; Listing generated by Microsoft (R) Optimizing Compiler Version 16.00.30319.01 

	TITLE	E:\work\tranet_version\GS\GameServer\Achievements.cpp
	.686P
	.XMM
	include listing.inc
	.model	flat

INCLUDELIB LIBCMT
INCLUDELIB OLDNAMES

_DATA	SEGMENT
_g_iNpcUpDfLevel_CGATE DD 01H
	DD	02H
	DD	02dc6c0H
	DD	02H
	DD	03H
	DD	02dc6c0H
	DD	03H
	DD	04H
	DD	02dc6c0H
_g_iNpcUpDfLevel_CSTATUE DD 01H
	DD	03H
	DD	02dc6c0H
	DD	02H
	DD	05H
	DD	02dc6c0H
	DD	03H
	DD	07H
	DD	02dc6c0H
_g_iNpcUpMaxHP_CGATE DD 02625a0H
	DD	02H
	DD	0f4240H
	DD	03567e0H
	DD	03H
	DD	0f4240H
	DD	04f5880H
	DD	04H
	DD	0f4240H
_g_iNpcUpMaxHP_CSTATUE DD 02191c0H
	DD	03H
	DD	0f4240H
	DD	033e140H
	DD	05H
	DD	0f4240H
	DD	04c4b40H
	DD	07H
	DD	0f4240H
_g_iNpcUpRgLevel_CSTATUE DD 01H
	DD	03H
	DD	04c4b40H
	DD	02H
	DD	05H
	DD	04c4b40H
	DD	03H
	DD	07H
	DD	04c4b40H
_g_iCsUserReSpawnArea DD 023H
	DD	011H
	DD	090H
	DD	030H
	DD	04aH
	DD	090H
	DD	073H
	DD	09aH
	DD	023H
	DD	011H
	DD	090H
	DD	030H
_g_iNpcDefense_CGATE DD 064H
	DD	0b4H
	DD	012cH
	DD	0208H
_g_iNpcDefense_CSTATUE DD 050H
	DD	0b4H
	DD	0154H
	DD	0226H
_g_iCastleWallStepAxisY DD 071H
	DD	0a0H
	DD	0cbH
_g_sttKALIMAGATE_LEVEL DD 028H
	DD	082H
	DD	014H
	DD	06eH
	DD	083H
	DD	0b4H
	DD	06fH
	DD	0a0H
	DD	0b5H
	DD	0e6H
	DD	0a1H
	DD	0d2H
	DD	0e7H
	DD	0118H
	DD	0d3H
	DD	0104H
	DD	0119H
	DD	014aH
	DD	0105H
	DD	0136H
	DD	014bH
	DD	015dH
	DD	0137H
	DD	015dH
	DD	015eH
	DD	03e8H
	DD	015eH
	DD	03e8H
_g_iKalimaGateGateIndex DD 058H
	DD	059H
	DD	05aH
	DD	05bH
	DD	05cH
	DD	05dH
	DD	074H
_DATA	ENDS
PUBLIC	?set@PBMSG_HEAD2@@QAEXPAEEEE@Z			; PBMSG_HEAD2::set
; Function compile flags: /Ogtp
; File e:\work\tranet_version\gs\include\prodef.h
;	COMDAT ?set@PBMSG_HEAD2@@QAEXPAEEEE@Z
_TEXT	SEGMENT
_lpBuf$ = 8						; size = 4
_head$ = 12						; size = 1
_sub$ = 16						; size = 1
_size$ = 20						; size = 1
?set@PBMSG_HEAD2@@QAEXPAEEEE@Z PROC			; PBMSG_HEAD2::set, COMDAT
; _this$ = ecx

; 104  : 	{

  00000	55		 push	 ebp
  00001	8b ec		 mov	 ebp, esp

; 105  : 		lpBuf[0] = 0xC1;

  00003	8b 45 08	 mov	 eax, DWORD PTR _lpBuf$[ebp]

; 106  : 		lpBuf[1] = size;

  00006	8a 4d 14	 mov	 cl, BYTE PTR _size$[ebp]

; 107  : 		lpBuf[2] = head;

  00009	8a 55 0c	 mov	 dl, BYTE PTR _head$[ebp]
  0000c	88 48 01	 mov	 BYTE PTR [eax+1], cl

; 108  : 		lpBuf[3] = sub;

  0000f	8a 4d 10	 mov	 cl, BYTE PTR _sub$[ebp]
  00012	c6 00 c1	 mov	 BYTE PTR [eax], 193	; 000000c1H
  00015	88 50 02	 mov	 BYTE PTR [eax+2], dl
  00018	88 48 03	 mov	 BYTE PTR [eax+3], cl

; 109  : 	};

  0001b	5d		 pop	 ebp
  0001c	c2 10 00	 ret	 16			; 00000010H
?set@PBMSG_HEAD2@@QAEXPAEEEE@Z ENDP			; PBMSG_HEAD2::set
_TEXT	ENDS
PUBLIC	??_H@YGXPAXIHP6EPAX0@Z@Z			; `vector constructor iterator'
; Function compile flags: /Ogtp
;	COMDAT ??_H@YGXPAXIHP6EPAX0@Z@Z
_TEXT	SEGMENT
___t$ = 8						; size = 4
___s$ = 12						; size = 4
___n$ = 16						; size = 4
___f$ = 20						; size = 4
??_H@YGXPAXIHP6EPAX0@Z@Z PROC				; `vector constructor iterator', COMDAT
  00000	55		 push	 ebp
  00001	8b ec		 mov	 ebp, esp
  00003	57		 push	 edi
  00004	8b 7d 10	 mov	 edi, DWORD PTR ___n$[ebp]
  00007	4f		 dec	 edi
  00008	78 14		 js	 SHORT $LN1@vector
  0000a	53		 push	 ebx
  0000b	8b 5d 14	 mov	 ebx, DWORD PTR ___f$[ebp]
  0000e	56		 push	 esi
  0000f	8b 75 08	 mov	 esi, DWORD PTR ___t$[ebp]
$LL2@vector:
  00012	8b ce		 mov	 ecx, esi
  00014	ff d3		 call	 ebx
  00016	03 75 0c	 add	 esi, DWORD PTR ___s$[ebp]
  00019	4f		 dec	 edi
  0001a	79 f6		 jns	 SHORT $LL2@vector
  0001c	5e		 pop	 esi
  0001d	5b		 pop	 ebx
$LN1@vector:
  0001e	5f		 pop	 edi
  0001f	5d		 pop	 ebp
  00020	c2 10 00	 ret	 16			; 00000010H
??_H@YGXPAXIHP6EPAX0@Z@Z ENDP				; `vector constructor iterator'
_TEXT	ENDS
PUBLIC	?GetCastleState@CCastleSiege@@QAEHXZ		; CCastleSiege::GetCastleState
; Function compile flags: /Ogtp
; File e:\work\tranet_version\gs\gameserver\castlesiege.h
;	COMDAT ?GetCastleState@CCastleSiege@@QAEHXZ
_TEXT	SEGMENT
?GetCastleState@CCastleSiege@@QAEHXZ PROC		; CCastleSiege::GetCastleState, COMDAT
; _this$ = ecx

; 314  : 	int GetCastleState(){return m_iCastleSiegeState;}

  00000	8b 41 28	 mov	 eax, DWORD PTR [ecx+40]
  00003	c3		 ret	 0
?GetCastleState@CCastleSiege@@QAEHXZ ENDP		; CCastleSiege::GetCastleState
_TEXT	ENDS
PUBLIC	?GetCrownUserIndex@CCastleSiege@@QAEHXZ		; CCastleSiege::GetCrownUserIndex
; Function compile flags: /Ogtp
;	COMDAT ?GetCrownUserIndex@CCastleSiege@@QAEHXZ
_TEXT	SEGMENT
?GetCrownUserIndex@CCastleSiege@@QAEHXZ PROC		; CCastleSiege::GetCrownUserIndex, COMDAT
; _this$ = ecx

; 390  : 	int GetCrownUserIndex(){return m_iCastleCrownAccessUser;}

  00000	8b 81 f0 01 00
	00		 mov	 eax, DWORD PTR [ecx+496]
  00006	c3		 ret	 0
?GetCrownUserIndex@CCastleSiege@@QAEHXZ ENDP		; CCastleSiege::GetCrownUserIndex
_TEXT	ENDS
PUBLIC	??1CAchievements@@QAE@XZ			; CAchievements::~CAchievements
; Function compile flags: /Ogtp
; File e:\work\tranet_version\gs\gameserver\achievements.cpp
;	COMDAT ??1CAchievements@@QAE@XZ
_TEXT	SEGMENT
??1CAchievements@@QAE@XZ PROC				; CAchievements::~CAchievements, COMDAT
; _this$ = ecx

; 24   : }

  00000	c3		 ret	 0
??1CAchievements@@QAE@XZ ENDP				; CAchievements::~CAchievements
_TEXT	ENDS
PUBLIC	?Init@CAchievements@@QAEXXZ			; CAchievements::Init
EXTRN	_memset:PROC
; Function compile flags: /Ogtp
;	COMDAT ?Init@CAchievements@@QAEXXZ
_TEXT	SEGMENT
?Init@CAchievements@@QAEXXZ PROC			; CAchievements::Init, COMDAT
; _this$ = ecx

; 27   : {

  00000	56		 push	 esi
  00001	8b f1		 mov	 esi, ecx

; 28   : 	this->bEnable = false;
; 29   : 	memset(&this->m_config, 0, sizeof(this->m_config));

  00003	68 c8 00 00 00	 push	 200			; 000000c8H
  00008	8d 46 18	 lea	 eax, DWORD PTR [esi+24]
  0000b	6a 00		 push	 0
  0000d	50		 push	 eax
  0000e	c6 46 14 00	 mov	 BYTE PTR [esi+20], 0
  00012	e8 00 00 00 00	 call	 _memset

; 30   : 	memset(&this->m_reward, 0, sizeof(this->m_reward));

  00017	68 c8 00 00 00	 push	 200			; 000000c8H
  0001c	6a 00		 push	 0
  0001e	81 c6 e0 00 00
	00		 add	 esi, 224		; 000000e0H
  00024	56		 push	 esi
  00025	e8 00 00 00 00	 call	 _memset
  0002a	83 c4 18	 add	 esp, 24			; 00000018H
  0002d	5e		 pop	 esi

; 31   : }

  0002e	c3		 ret	 0
?Init@CAchievements@@QAEXXZ ENDP			; CAchievements::Init
_TEXT	ENDS
PUBLIC	??_C@_0BD@EFPIOGLG@DivCriticalPercent?$AA@	; `string'
PUBLIC	??_C@_0BD@CDJCBAGJ@DivExellentPercent?$AA@	; `string'
PUBLIC	??_C@_07HLKCCONK@DivLife?$AA@			; `string'
PUBLIC	??_C@_0L@COGGGABP@DivDefence?$AA@		; `string'
PUBLIC	??_C@_09NFBNHDPD@DivDamage?$AA@			; `string'
PUBLIC	??_C@_0BC@FBDOMICD@CriticalDamageMax?$AA@	; `string'
PUBLIC	??_C@_0BC@DEACALA@ExellentDamageMax?$AA@	; `string'
PUBLIC	??_C@_07LCDDDIHB@LifeMax?$AA@			; `string'
PUBLIC	??_C@_0L@LBODNNMD@DefenceMax?$AA@		; `string'
PUBLIC	??_C@_05PMCMDMKN@Power?$AA@			; `string'
PUBLIC	??_C@_09CFLNECFJ@DamageMax?$AA@			; `string'
PUBLIC	??_C@_0L@CDBAFBIG@PickUpRena?$AA@		; `string'
PUBLIC	??_C@_06BAGMPINC@Reward?$AA@			; `string'
PUBLIC	??_C@_0BC@FJIMNPIE@OfflineAttackTime?$AA@	; `string'
PUBLIC	??_C@_0BB@PHACFCBC@PickUpLuckyCoins?$AA@	; `string'
PUBLIC	??_C@_0L@CPMGAAI@PickUpSing?$AA@		; `string'
PUBLIC	??_C@_0BB@NMPMEAAK@PartyNoobLevelUp?$AA@	; `string'
PUBLIC	??_C@_0M@MAMKFDOB@GuildWarWin?$AA@		; `string'
PUBLIC	??_C@_0BC@FPGPMG@BuyDonateShopItem?$AA@		; `string'
PUBLIC	??_C@_0L@FDIMBEGH@KillErohim?$AA@		; `string'
PUBLIC	??_C@_0BG@ILFJNFJC@KillPlayerCastleSiege?$AA@	; `string'
PUBLIC	??_C@_0BD@PHINJBKO@KillCastleSiegeNPC?$AA@	; `string'
PUBLIC	??_C@_08FMDKGBNF@WinSiege?$AA@			; `string'
PUBLIC	??_C@_0BE@IDFBIGEM@MovePlayerFromCrown?$AA@	; `string'
PUBLIC	??_C@_0BF@HBGCIILA@WithstandSwitch10min?$AA@	; `string'
PUBLIC	??_C@_0BF@HAPDHJPC@MovePlayerFromSwitch?$AA@	; `string'
PUBLIC	??_C@_0BD@FHBADLJE@KanturuMonsterKill?$AA@	; `string'
PUBLIC	??_C@_0M@DLOEGGIN@PheonixKill?$AA@		; `string'
PUBLIC	??_C@_0BD@DIKHGCEL@HappyPouchesKiller?$AA@	; `string'
PUBLIC	??_C@_0BB@NECNGOHI@BlueRabbitKiller?$AA@	; `string'
PUBLIC	??_C@_0N@BEADCOLL@GrandResetUp?$AA@		; `string'
PUBLIC	??_C@_0L@EGINCFEN@CompleteBC?$AA@		; `string'
PUBLIC	??_C@_0N@MFBGOGFE@KillStatueBC?$AA@		; `string'
PUBLIC	??_C@_0L@NMFHDMIL@KundunKill?$AA@		; `string'
PUBLIC	??_C@_0M@MNEEJGKH@SelupanKill?$AA@		; `string'
PUBLIC	??_C@_0BD@BPBOIKLO@KillInSelf_Defense?$AA@	; `string'
PUBLIC	??_C@_0N@MICFOEPF@HellMainKill?$AA@		; `string'
PUBLIC	??_C@_0BE@CFAFEAJG@CryWolfEventMonster?$AA@	; `string'
PUBLIC	??_C@_0N@ONNONHJN@PhonomanKill?$AA@		; `string'
PUBLIC	??_C@_0L@OLDACHIE@MootopVote?$AA@		; `string'
PUBLIC	??_C@_0BC@ICDLIGPJ@Monster100LvlKill?$AA@	; `string'
PUBLIC	??_C@_0BA@ODPJIDCG@KanturuBossKill?$AA@		; `string'
PUBLIC	??_C@_07CJCBJCFL@ResetUp?$AA@			; `string'
PUBLIC	??_C@_07IFHAFPIB@LevelUp?$AA@			; `string'
PUBLIC	??_C@_07GHADJGDF@DuelWin?$AA@			; `string'
PUBLIC	??_C@_0N@DDKMACBB@PickUpAncent?$AA@		; `string'
PUBLIC	??_C@_0P@IFEPEFIA@PickUpExellent?$AA@		; `string'
PUBLIC	??_C@_09DGDHEANG@PickUpZen?$AA@			; `string'
PUBLIC	??_C@_0P@MLNADFDL@FailedChaosMix?$AA@		; `string'
PUBLIC	??_C@_0BA@JFKMGLE@SuccessChaosMix?$AA@		; `string'
PUBLIC	??_C@_0L@HICNPMAF@UsedJewels?$AA@		; `string'
PUBLIC	??_C@_0N@ICMJNFMD@PickUpJewels?$AA@		; `string'
PUBLIC	??_C@_0L@DLJNOBJL@OnlineTime?$AA@		; `string'
PUBLIC	??_C@_0N@BMJIPOCO@WinningTheCC?$AA@		; `string'
PUBLIC	??_C@_0N@GMLBOAGE@TakePartInCC?$AA@		; `string'
PUBLIC	??_C@_0L@JLBEKLBI@KillGateBC?$AA@		; `string'
PUBLIC	??_C@_07HOHPILBP@OrcKill?$AA@			; `string'
PUBLIC	??_C@_0O@HLDKCBKH@RedDragonKill?$AA@		; `string'
PUBLIC	??_C@_0L@KBPGGACD@PlayerKill?$AA@		; `string'
PUBLIC	??_C@_0BA@EPMFDFLP@WhiteWizardKill?$AA@		; `string'
PUBLIC	??_C@_0BB@GDDPKKHF@KalimaMonserKill?$AA@	; `string'
PUBLIC	??_C@_0L@KPOJALCF@GoldenKill?$AA@		; `string'
PUBLIC	??_C@_07PLHEGJFB@Mission?$AA@			; `string'
PUBLIC	??_C@_0M@LJDMLBHP@MonsterKill?$AA@		; `string'
PUBLIC	??_C@_06POMJKEPM@Common?$AA@			; `string'
PUBLIC	??_C@_06CKGENIKG@Enable?$AA@			; `string'
PUBLIC	?Read@CAchievements@@QAEXPAD@Z			; CAchievements::Read
EXTRN	__imp__GetPrivateProfileIntA@16:PROC
;	COMDAT ??_C@_0BD@EFPIOGLG@DivCriticalPercent?$AA@
CONST	SEGMENT
??_C@_0BD@EFPIOGLG@DivCriticalPercent?$AA@ DB 'DivCriticalPercent', 00H ; `string'
CONST	ENDS
;	COMDAT ??_C@_0BD@CDJCBAGJ@DivExellentPercent?$AA@
CONST	SEGMENT
??_C@_0BD@CDJCBAGJ@DivExellentPercent?$AA@ DB 'DivExellentPercent', 00H ; `string'
CONST	ENDS
;	COMDAT ??_C@_07HLKCCONK@DivLife?$AA@
CONST	SEGMENT
??_C@_07HLKCCONK@DivLife?$AA@ DB 'DivLife', 00H		; `string'
CONST	ENDS
;	COMDAT ??_C@_0L@COGGGABP@DivDefence?$AA@
CONST	SEGMENT
??_C@_0L@COGGGABP@DivDefence?$AA@ DB 'DivDefence', 00H	; `string'
CONST	ENDS
;	COMDAT ??_C@_09NFBNHDPD@DivDamage?$AA@
CONST	SEGMENT
??_C@_09NFBNHDPD@DivDamage?$AA@ DB 'DivDamage', 00H	; `string'
CONST	ENDS
;	COMDAT ??_C@_0BC@FBDOMICD@CriticalDamageMax?$AA@
CONST	SEGMENT
??_C@_0BC@FBDOMICD@CriticalDamageMax?$AA@ DB 'CriticalDamageMax', 00H ; `string'
CONST	ENDS
;	COMDAT ??_C@_0BC@DEACALA@ExellentDamageMax?$AA@
CONST	SEGMENT
??_C@_0BC@DEACALA@ExellentDamageMax?$AA@ DB 'ExellentDamageMax', 00H ; `string'
CONST	ENDS
;	COMDAT ??_C@_07LCDDDIHB@LifeMax?$AA@
CONST	SEGMENT
??_C@_07LCDDDIHB@LifeMax?$AA@ DB 'LifeMax', 00H		; `string'
CONST	ENDS
;	COMDAT ??_C@_0L@LBODNNMD@DefenceMax?$AA@
CONST	SEGMENT
??_C@_0L@LBODNNMD@DefenceMax?$AA@ DB 'DefenceMax', 00H	; `string'
CONST	ENDS
;	COMDAT ??_C@_05PMCMDMKN@Power?$AA@
CONST	SEGMENT
??_C@_05PMCMDMKN@Power?$AA@ DB 'Power', 00H		; `string'
CONST	ENDS
;	COMDAT ??_C@_09CFLNECFJ@DamageMax?$AA@
CONST	SEGMENT
??_C@_09CFLNECFJ@DamageMax?$AA@ DB 'DamageMax', 00H	; `string'
CONST	ENDS
;	COMDAT ??_C@_0L@CDBAFBIG@PickUpRena?$AA@
CONST	SEGMENT
??_C@_0L@CDBAFBIG@PickUpRena?$AA@ DB 'PickUpRena', 00H	; `string'
CONST	ENDS
;	COMDAT ??_C@_06BAGMPINC@Reward?$AA@
CONST	SEGMENT
??_C@_06BAGMPINC@Reward?$AA@ DB 'Reward', 00H		; `string'
CONST	ENDS
;	COMDAT ??_C@_0BC@FJIMNPIE@OfflineAttackTime?$AA@
CONST	SEGMENT
??_C@_0BC@FJIMNPIE@OfflineAttackTime?$AA@ DB 'OfflineAttackTime', 00H ; `string'
CONST	ENDS
;	COMDAT ??_C@_0BB@PHACFCBC@PickUpLuckyCoins?$AA@
CONST	SEGMENT
??_C@_0BB@PHACFCBC@PickUpLuckyCoins?$AA@ DB 'PickUpLuckyCoins', 00H ; `string'
CONST	ENDS
;	COMDAT ??_C@_0L@CPMGAAI@PickUpSing?$AA@
CONST	SEGMENT
??_C@_0L@CPMGAAI@PickUpSing?$AA@ DB 'PickUpSing', 00H	; `string'
CONST	ENDS
;	COMDAT ??_C@_0BB@NMPMEAAK@PartyNoobLevelUp?$AA@
CONST	SEGMENT
??_C@_0BB@NMPMEAAK@PartyNoobLevelUp?$AA@ DB 'PartyNoobLevelUp', 00H ; `string'
CONST	ENDS
;	COMDAT ??_C@_0M@MAMKFDOB@GuildWarWin?$AA@
CONST	SEGMENT
??_C@_0M@MAMKFDOB@GuildWarWin?$AA@ DB 'GuildWarWin', 00H ; `string'
CONST	ENDS
;	COMDAT ??_C@_0BC@FPGPMG@BuyDonateShopItem?$AA@
CONST	SEGMENT
??_C@_0BC@FPGPMG@BuyDonateShopItem?$AA@ DB 'BuyDonateShopItem', 00H ; `string'
CONST	ENDS
;	COMDAT ??_C@_0L@FDIMBEGH@KillErohim?$AA@
CONST	SEGMENT
??_C@_0L@FDIMBEGH@KillErohim?$AA@ DB 'KillErohim', 00H	; `string'
CONST	ENDS
;	COMDAT ??_C@_0BG@ILFJNFJC@KillPlayerCastleSiege?$AA@
CONST	SEGMENT
??_C@_0BG@ILFJNFJC@KillPlayerCastleSiege?$AA@ DB 'KillPlayerCastleSiege', 00H ; `string'
CONST	ENDS
;	COMDAT ??_C@_0BD@PHINJBKO@KillCastleSiegeNPC?$AA@
CONST	SEGMENT
??_C@_0BD@PHINJBKO@KillCastleSiegeNPC?$AA@ DB 'KillCastleSiegeNPC', 00H ; `string'
CONST	ENDS
;	COMDAT ??_C@_08FMDKGBNF@WinSiege?$AA@
CONST	SEGMENT
??_C@_08FMDKGBNF@WinSiege?$AA@ DB 'WinSiege', 00H	; `string'
CONST	ENDS
;	COMDAT ??_C@_0BE@IDFBIGEM@MovePlayerFromCrown?$AA@
CONST	SEGMENT
??_C@_0BE@IDFBIGEM@MovePlayerFromCrown?$AA@ DB 'MovePlayerFromCrown', 00H ; `string'
CONST	ENDS
;	COMDAT ??_C@_0BF@HBGCIILA@WithstandSwitch10min?$AA@
CONST	SEGMENT
??_C@_0BF@HBGCIILA@WithstandSwitch10min?$AA@ DB 'WithstandSwitch10min', 00H ; `string'
CONST	ENDS
;	COMDAT ??_C@_0BF@HAPDHJPC@MovePlayerFromSwitch?$AA@
CONST	SEGMENT
??_C@_0BF@HAPDHJPC@MovePlayerFromSwitch?$AA@ DB 'MovePlayerFromSwitch', 00H ; `string'
CONST	ENDS
;	COMDAT ??_C@_0BD@FHBADLJE@KanturuMonsterKill?$AA@
CONST	SEGMENT
??_C@_0BD@FHBADLJE@KanturuMonsterKill?$AA@ DB 'KanturuMonsterKill', 00H ; `string'
CONST	ENDS
;	COMDAT ??_C@_0M@DLOEGGIN@PheonixKill?$AA@
CONST	SEGMENT
??_C@_0M@DLOEGGIN@PheonixKill?$AA@ DB 'PheonixKill', 00H ; `string'
CONST	ENDS
;	COMDAT ??_C@_0BD@DIKHGCEL@HappyPouchesKiller?$AA@
CONST	SEGMENT
??_C@_0BD@DIKHGCEL@HappyPouchesKiller?$AA@ DB 'HappyPouchesKiller', 00H ; `string'
CONST	ENDS
;	COMDAT ??_C@_0BB@NECNGOHI@BlueRabbitKiller?$AA@
CONST	SEGMENT
??_C@_0BB@NECNGOHI@BlueRabbitKiller?$AA@ DB 'BlueRabbitKiller', 00H ; `string'
CONST	ENDS
;	COMDAT ??_C@_0N@BEADCOLL@GrandResetUp?$AA@
CONST	SEGMENT
??_C@_0N@BEADCOLL@GrandResetUp?$AA@ DB 'GrandResetUp', 00H ; `string'
CONST	ENDS
;	COMDAT ??_C@_0L@EGINCFEN@CompleteBC?$AA@
CONST	SEGMENT
??_C@_0L@EGINCFEN@CompleteBC?$AA@ DB 'CompleteBC', 00H	; `string'
CONST	ENDS
;	COMDAT ??_C@_0N@MFBGOGFE@KillStatueBC?$AA@
CONST	SEGMENT
??_C@_0N@MFBGOGFE@KillStatueBC?$AA@ DB 'KillStatueBC', 00H ; `string'
CONST	ENDS
;	COMDAT ??_C@_0L@NMFHDMIL@KundunKill?$AA@
CONST	SEGMENT
??_C@_0L@NMFHDMIL@KundunKill?$AA@ DB 'KundunKill', 00H	; `string'
CONST	ENDS
;	COMDAT ??_C@_0M@MNEEJGKH@SelupanKill?$AA@
CONST	SEGMENT
??_C@_0M@MNEEJGKH@SelupanKill?$AA@ DB 'SelupanKill', 00H ; `string'
CONST	ENDS
;	COMDAT ??_C@_0BD@BPBOIKLO@KillInSelf_Defense?$AA@
CONST	SEGMENT
??_C@_0BD@BPBOIKLO@KillInSelf_Defense?$AA@ DB 'KillInSelf_Defense', 00H ; `string'
CONST	ENDS
;	COMDAT ??_C@_0N@MICFOEPF@HellMainKill?$AA@
CONST	SEGMENT
??_C@_0N@MICFOEPF@HellMainKill?$AA@ DB 'HellMainKill', 00H ; `string'
CONST	ENDS
;	COMDAT ??_C@_0BE@CFAFEAJG@CryWolfEventMonster?$AA@
CONST	SEGMENT
??_C@_0BE@CFAFEAJG@CryWolfEventMonster?$AA@ DB 'CryWolfEventMonster', 00H ; `string'
CONST	ENDS
;	COMDAT ??_C@_0N@ONNONHJN@PhonomanKill?$AA@
CONST	SEGMENT
??_C@_0N@ONNONHJN@PhonomanKill?$AA@ DB 'PhonomanKill', 00H ; `string'
CONST	ENDS
;	COMDAT ??_C@_0L@OLDACHIE@MootopVote?$AA@
CONST	SEGMENT
??_C@_0L@OLDACHIE@MootopVote?$AA@ DB 'MootopVote', 00H	; `string'
CONST	ENDS
;	COMDAT ??_C@_0BC@ICDLIGPJ@Monster100LvlKill?$AA@
CONST	SEGMENT
??_C@_0BC@ICDLIGPJ@Monster100LvlKill?$AA@ DB 'Monster100LvlKill', 00H ; `string'
CONST	ENDS
;	COMDAT ??_C@_0BA@ODPJIDCG@KanturuBossKill?$AA@
CONST	SEGMENT
??_C@_0BA@ODPJIDCG@KanturuBossKill?$AA@ DB 'KanturuBossKill', 00H ; `string'
CONST	ENDS
;	COMDAT ??_C@_07CJCBJCFL@ResetUp?$AA@
CONST	SEGMENT
??_C@_07CJCBJCFL@ResetUp?$AA@ DB 'ResetUp', 00H		; `string'
CONST	ENDS
;	COMDAT ??_C@_07IFHAFPIB@LevelUp?$AA@
CONST	SEGMENT
??_C@_07IFHAFPIB@LevelUp?$AA@ DB 'LevelUp', 00H		; `string'
CONST	ENDS
;	COMDAT ??_C@_07GHADJGDF@DuelWin?$AA@
CONST	SEGMENT
??_C@_07GHADJGDF@DuelWin?$AA@ DB 'DuelWin', 00H		; `string'
CONST	ENDS
;	COMDAT ??_C@_0N@DDKMACBB@PickUpAncent?$AA@
CONST	SEGMENT
??_C@_0N@DDKMACBB@PickUpAncent?$AA@ DB 'PickUpAncent', 00H ; `string'
CONST	ENDS
;	COMDAT ??_C@_0P@IFEPEFIA@PickUpExellent?$AA@
CONST	SEGMENT
??_C@_0P@IFEPEFIA@PickUpExellent?$AA@ DB 'PickUpExellent', 00H ; `string'
CONST	ENDS
;	COMDAT ??_C@_09DGDHEANG@PickUpZen?$AA@
CONST	SEGMENT
??_C@_09DGDHEANG@PickUpZen?$AA@ DB 'PickUpZen', 00H	; `string'
CONST	ENDS
;	COMDAT ??_C@_0P@MLNADFDL@FailedChaosMix?$AA@
CONST	SEGMENT
??_C@_0P@MLNADFDL@FailedChaosMix?$AA@ DB 'FailedChaosMix', 00H ; `string'
CONST	ENDS
;	COMDAT ??_C@_0BA@JFKMGLE@SuccessChaosMix?$AA@
CONST	SEGMENT
??_C@_0BA@JFKMGLE@SuccessChaosMix?$AA@ DB 'SuccessChaosMix', 00H ; `string'
CONST	ENDS
;	COMDAT ??_C@_0L@HICNPMAF@UsedJewels?$AA@
CONST	SEGMENT
??_C@_0L@HICNPMAF@UsedJewels?$AA@ DB 'UsedJewels', 00H	; `string'
CONST	ENDS
;	COMDAT ??_C@_0N@ICMJNFMD@PickUpJewels?$AA@
CONST	SEGMENT
??_C@_0N@ICMJNFMD@PickUpJewels?$AA@ DB 'PickUpJewels', 00H ; `string'
CONST	ENDS
;	COMDAT ??_C@_0L@DLJNOBJL@OnlineTime?$AA@
CONST	SEGMENT
??_C@_0L@DLJNOBJL@OnlineTime?$AA@ DB 'OnlineTime', 00H	; `string'
CONST	ENDS
;	COMDAT ??_C@_0N@BMJIPOCO@WinningTheCC?$AA@
CONST	SEGMENT
??_C@_0N@BMJIPOCO@WinningTheCC?$AA@ DB 'WinningTheCC', 00H ; `string'
CONST	ENDS
;	COMDAT ??_C@_0N@GMLBOAGE@TakePartInCC?$AA@
CONST	SEGMENT
??_C@_0N@GMLBOAGE@TakePartInCC?$AA@ DB 'TakePartInCC', 00H ; `string'
CONST	ENDS
;	COMDAT ??_C@_0L@JLBEKLBI@KillGateBC?$AA@
CONST	SEGMENT
??_C@_0L@JLBEKLBI@KillGateBC?$AA@ DB 'KillGateBC', 00H	; `string'
CONST	ENDS
;	COMDAT ??_C@_07HOHPILBP@OrcKill?$AA@
CONST	SEGMENT
??_C@_07HOHPILBP@OrcKill?$AA@ DB 'OrcKill', 00H		; `string'
CONST	ENDS
;	COMDAT ??_C@_0O@HLDKCBKH@RedDragonKill?$AA@
CONST	SEGMENT
??_C@_0O@HLDKCBKH@RedDragonKill?$AA@ DB 'RedDragonKill', 00H ; `string'
CONST	ENDS
;	COMDAT ??_C@_0L@KBPGGACD@PlayerKill?$AA@
CONST	SEGMENT
??_C@_0L@KBPGGACD@PlayerKill?$AA@ DB 'PlayerKill', 00H	; `string'
CONST	ENDS
;	COMDAT ??_C@_0BA@EPMFDFLP@WhiteWizardKill?$AA@
CONST	SEGMENT
??_C@_0BA@EPMFDFLP@WhiteWizardKill?$AA@ DB 'WhiteWizardKill', 00H ; `string'
CONST	ENDS
;	COMDAT ??_C@_0BB@GDDPKKHF@KalimaMonserKill?$AA@
CONST	SEGMENT
??_C@_0BB@GDDPKKHF@KalimaMonserKill?$AA@ DB 'KalimaMonserKill', 00H ; `string'
CONST	ENDS
;	COMDAT ??_C@_0L@KPOJALCF@GoldenKill?$AA@
CONST	SEGMENT
??_C@_0L@KPOJALCF@GoldenKill?$AA@ DB 'GoldenKill', 00H	; `string'
CONST	ENDS
;	COMDAT ??_C@_07PLHEGJFB@Mission?$AA@
CONST	SEGMENT
??_C@_07PLHEGJFB@Mission?$AA@ DB 'Mission', 00H		; `string'
CONST	ENDS
;	COMDAT ??_C@_0M@LJDMLBHP@MonsterKill?$AA@
CONST	SEGMENT
??_C@_0M@LJDMLBHP@MonsterKill?$AA@ DB 'MonsterKill', 00H ; `string'
CONST	ENDS
;	COMDAT ??_C@_06POMJKEPM@Common?$AA@
CONST	SEGMENT
??_C@_06POMJKEPM@Common?$AA@ DB 'Common', 00H		; `string'
CONST	ENDS
;	COMDAT ??_C@_06CKGENIKG@Enable?$AA@
CONST	SEGMENT
??_C@_06CKGENIKG@Enable?$AA@ DB 'Enable', 00H		; `string'
; Function compile flags: /Ogtp
CONST	ENDS
;	COMDAT ?Read@CAchievements@@QAEXPAD@Z
_TEXT	SEGMENT
_filename$ = 8						; size = 4
?Read@CAchievements@@QAEXPAD@Z PROC			; CAchievements::Read, COMDAT
; _this$ = ecx

; 54   : {

  00000	55		 push	 ebp
  00001	8b ec		 mov	 ebp, esp
  00003	53		 push	 ebx

; 55   : 	this->bEnable = GetPrivateProfileInt("Common", "Enable", 0, filename);

  00004	8b 1d 00 00 00
	00		 mov	 ebx, DWORD PTR __imp__GetPrivateProfileIntA@16
  0000a	56		 push	 esi
  0000b	57		 push	 edi
  0000c	8b 7d 08	 mov	 edi, DWORD PTR _filename$[ebp]
  0000f	57		 push	 edi
  00010	6a 00		 push	 0
  00012	68 00 00 00 00	 push	 OFFSET ??_C@_06CKGENIKG@Enable?$AA@
  00017	68 00 00 00 00	 push	 OFFSET ??_C@_06POMJKEPM@Common?$AA@
  0001c	8b f1		 mov	 esi, ecx
  0001e	ff d3		 call	 ebx

; 56   : 	//-> mission config read
; 57   : 	this->m_config.i1_MonsterKill = GetPrivateProfileInt("Mission", "MonsterKill", 100, filename);

  00020	57		 push	 edi
  00021	6a 64		 push	 100			; 00000064H
  00023	85 c0		 test	 eax, eax
  00025	68 00 00 00 00	 push	 OFFSET ??_C@_0M@LJDMLBHP@MonsterKill?$AA@
  0002a	0f 95 c0	 setne	 al
  0002d	68 00 00 00 00	 push	 OFFSET ??_C@_07PLHEGJFB@Mission?$AA@
  00032	88 46 14	 mov	 BYTE PTR [esi+20], al
  00035	ff d3		 call	 ebx

; 58   : 	this->m_config.i2_GoldenKill = GetPrivateProfileInt("Mission", "GoldenKill", 100, filename);

  00037	57		 push	 edi
  00038	6a 64		 push	 100			; 00000064H
  0003a	68 00 00 00 00	 push	 OFFSET ??_C@_0L@KPOJALCF@GoldenKill?$AA@
  0003f	68 00 00 00 00	 push	 OFFSET ??_C@_07PLHEGJFB@Mission?$AA@
  00044	89 46 18	 mov	 DWORD PTR [esi+24], eax
  00047	ff d3		 call	 ebx

; 59   : 	this->m_config.i3_KalimaMonserKill = GetPrivateProfileInt("Mission", "KalimaMonserKill", 100, filename);

  00049	57		 push	 edi
  0004a	6a 64		 push	 100			; 00000064H
  0004c	68 00 00 00 00	 push	 OFFSET ??_C@_0BB@GDDPKKHF@KalimaMonserKill?$AA@
  00051	68 00 00 00 00	 push	 OFFSET ??_C@_07PLHEGJFB@Mission?$AA@
  00056	89 46 1c	 mov	 DWORD PTR [esi+28], eax
  00059	ff d3		 call	 ebx

; 60   : 	this->m_config.i4_WhiteWizardKill = GetPrivateProfileInt("Mission", "WhiteWizardKill", 100, filename);

  0005b	57		 push	 edi
  0005c	6a 64		 push	 100			; 00000064H
  0005e	68 00 00 00 00	 push	 OFFSET ??_C@_0BA@EPMFDFLP@WhiteWizardKill?$AA@
  00063	68 00 00 00 00	 push	 OFFSET ??_C@_07PLHEGJFB@Mission?$AA@
  00068	89 46 20	 mov	 DWORD PTR [esi+32], eax
  0006b	ff d3		 call	 ebx

; 61   : 	this->m_config.i5_PlayerKill = GetPrivateProfileInt("Mission", "PlayerKill", 100, filename);

  0006d	57		 push	 edi
  0006e	6a 64		 push	 100			; 00000064H
  00070	68 00 00 00 00	 push	 OFFSET ??_C@_0L@KBPGGACD@PlayerKill?$AA@
  00075	68 00 00 00 00	 push	 OFFSET ??_C@_07PLHEGJFB@Mission?$AA@
  0007a	89 46 24	 mov	 DWORD PTR [esi+36], eax
  0007d	ff d3		 call	 ebx

; 62   : 	this->m_config.i6_RedDragonKill = GetPrivateProfileInt("Mission", "RedDragonKill", 100, filename);

  0007f	57		 push	 edi
  00080	6a 64		 push	 100			; 00000064H
  00082	68 00 00 00 00	 push	 OFFSET ??_C@_0O@HLDKCBKH@RedDragonKill?$AA@
  00087	68 00 00 00 00	 push	 OFFSET ??_C@_07PLHEGJFB@Mission?$AA@
  0008c	89 46 28	 mov	 DWORD PTR [esi+40], eax
  0008f	ff d3		 call	 ebx

; 63   : 	this->m_config.i7_OrcKill = GetPrivateProfileInt("Mission", "OrcKill", 100, filename);

  00091	57		 push	 edi
  00092	6a 64		 push	 100			; 00000064H
  00094	68 00 00 00 00	 push	 OFFSET ??_C@_07HOHPILBP@OrcKill?$AA@
  00099	68 00 00 00 00	 push	 OFFSET ??_C@_07PLHEGJFB@Mission?$AA@
  0009e	89 46 2c	 mov	 DWORD PTR [esi+44], eax
  000a1	ff d3		 call	 ebx

; 64   : 	this->m_config.i8_KillGateBC = GetPrivateProfileInt("Mission", "KillGateBC", 100, filename);

  000a3	57		 push	 edi
  000a4	6a 64		 push	 100			; 00000064H
  000a6	68 00 00 00 00	 push	 OFFSET ??_C@_0L@JLBEKLBI@KillGateBC?$AA@
  000ab	68 00 00 00 00	 push	 OFFSET ??_C@_07PLHEGJFB@Mission?$AA@
  000b0	89 46 30	 mov	 DWORD PTR [esi+48], eax
  000b3	ff d3		 call	 ebx

; 65   : 	this->m_config.i9_TakePartInCC = GetPrivateProfileInt("Mission", "TakePartInCC", 100, filename);

  000b5	57		 push	 edi
  000b6	6a 64		 push	 100			; 00000064H
  000b8	68 00 00 00 00	 push	 OFFSET ??_C@_0N@GMLBOAGE@TakePartInCC?$AA@
  000bd	68 00 00 00 00	 push	 OFFSET ??_C@_07PLHEGJFB@Mission?$AA@
  000c2	89 46 34	 mov	 DWORD PTR [esi+52], eax
  000c5	ff d3		 call	 ebx

; 66   : 	this->m_config.i10_WinningTheCC = GetPrivateProfileInt("Mission", "WinningTheCC", 100, filename);

  000c7	57		 push	 edi
  000c8	6a 64		 push	 100			; 00000064H
  000ca	68 00 00 00 00	 push	 OFFSET ??_C@_0N@BMJIPOCO@WinningTheCC?$AA@
  000cf	68 00 00 00 00	 push	 OFFSET ??_C@_07PLHEGJFB@Mission?$AA@
  000d4	89 46 38	 mov	 DWORD PTR [esi+56], eax
  000d7	ff d3		 call	 ebx

; 67   : 	this->m_config.i11_OnlineTime = GetPrivateProfileInt("Mission", "OnlineTime", 100, filename);

  000d9	57		 push	 edi
  000da	6a 64		 push	 100			; 00000064H
  000dc	68 00 00 00 00	 push	 OFFSET ??_C@_0L@DLJNOBJL@OnlineTime?$AA@
  000e1	68 00 00 00 00	 push	 OFFSET ??_C@_07PLHEGJFB@Mission?$AA@
  000e6	89 46 3c	 mov	 DWORD PTR [esi+60], eax
  000e9	ff d3		 call	 ebx
  000eb	89 46 40	 mov	 DWORD PTR [esi+64], eax

; 68   : 	this->m_config.i12_PickUpJewels = GetPrivateProfileInt("Mission", "PickUpJewels", 100, filename);

  000ee	57		 push	 edi
  000ef	6a 64		 push	 100			; 00000064H
  000f1	68 00 00 00 00	 push	 OFFSET ??_C@_0N@ICMJNFMD@PickUpJewels?$AA@
  000f6	68 00 00 00 00	 push	 OFFSET ??_C@_07PLHEGJFB@Mission?$AA@
  000fb	ff d3		 call	 ebx

; 69   : 	this->m_config.i13_UsedJewels = GetPrivateProfileInt("Mission", "UsedJewels", 100, filename);

  000fd	57		 push	 edi
  000fe	6a 64		 push	 100			; 00000064H
  00100	68 00 00 00 00	 push	 OFFSET ??_C@_0L@HICNPMAF@UsedJewels?$AA@
  00105	68 00 00 00 00	 push	 OFFSET ??_C@_07PLHEGJFB@Mission?$AA@
  0010a	89 46 44	 mov	 DWORD PTR [esi+68], eax
  0010d	ff d3		 call	 ebx

; 70   : 	this->m_config.i14_SuccessChaosMix = GetPrivateProfileInt("Mission", "SuccessChaosMix", 100, filename);

  0010f	57		 push	 edi
  00110	6a 64		 push	 100			; 00000064H
  00112	68 00 00 00 00	 push	 OFFSET ??_C@_0BA@JFKMGLE@SuccessChaosMix?$AA@
  00117	68 00 00 00 00	 push	 OFFSET ??_C@_07PLHEGJFB@Mission?$AA@
  0011c	89 46 48	 mov	 DWORD PTR [esi+72], eax
  0011f	ff d3		 call	 ebx

; 71   : 	this->m_config.i15_FailedChaosMix = GetPrivateProfileInt("Mission", "FailedChaosMix", 100, filename);

  00121	57		 push	 edi
  00122	6a 64		 push	 100			; 00000064H
  00124	68 00 00 00 00	 push	 OFFSET ??_C@_0P@MLNADFDL@FailedChaosMix?$AA@
  00129	68 00 00 00 00	 push	 OFFSET ??_C@_07PLHEGJFB@Mission?$AA@
  0012e	89 46 4c	 mov	 DWORD PTR [esi+76], eax
  00131	ff d3		 call	 ebx

; 72   : 	this->m_config.i16_PickUpZen = GetPrivateProfileInt("Mission", "PickUpZen", 100, filename);

  00133	57		 push	 edi
  00134	6a 64		 push	 100			; 00000064H
  00136	68 00 00 00 00	 push	 OFFSET ??_C@_09DGDHEANG@PickUpZen?$AA@
  0013b	68 00 00 00 00	 push	 OFFSET ??_C@_07PLHEGJFB@Mission?$AA@
  00140	89 46 50	 mov	 DWORD PTR [esi+80], eax
  00143	ff d3		 call	 ebx

; 73   : 	this->m_config.i17_PickUpExellent = GetPrivateProfileInt("Mission", "PickUpExellent", 100, filename);

  00145	57		 push	 edi
  00146	6a 64		 push	 100			; 00000064H
  00148	68 00 00 00 00	 push	 OFFSET ??_C@_0P@IFEPEFIA@PickUpExellent?$AA@
  0014d	68 00 00 00 00	 push	 OFFSET ??_C@_07PLHEGJFB@Mission?$AA@
  00152	89 46 54	 mov	 DWORD PTR [esi+84], eax
  00155	ff d3		 call	 ebx

; 74   : 	this->m_config.i18_PickUpAncent = GetPrivateProfileInt("Mission", "PickUpAncent", 100, filename);

  00157	57		 push	 edi
  00158	6a 64		 push	 100			; 00000064H
  0015a	68 00 00 00 00	 push	 OFFSET ??_C@_0N@DDKMACBB@PickUpAncent?$AA@
  0015f	68 00 00 00 00	 push	 OFFSET ??_C@_07PLHEGJFB@Mission?$AA@
  00164	89 46 58	 mov	 DWORD PTR [esi+88], eax
  00167	ff d3		 call	 ebx

; 75   : 	this->m_config.i19_DuelWin = GetPrivateProfileInt("Mission", "DuelWin", 100, filename);

  00169	57		 push	 edi
  0016a	6a 64		 push	 100			; 00000064H
  0016c	68 00 00 00 00	 push	 OFFSET ??_C@_07GHADJGDF@DuelWin?$AA@
  00171	68 00 00 00 00	 push	 OFFSET ??_C@_07PLHEGJFB@Mission?$AA@
  00176	89 46 5c	 mov	 DWORD PTR [esi+92], eax
  00179	ff d3		 call	 ebx

; 76   : 	this->m_config.i20_LevelUp = GetPrivateProfileInt("Mission", "LevelUp", 100, filename);

  0017b	57		 push	 edi
  0017c	6a 64		 push	 100			; 00000064H
  0017e	68 00 00 00 00	 push	 OFFSET ??_C@_07IFHAFPIB@LevelUp?$AA@
  00183	68 00 00 00 00	 push	 OFFSET ??_C@_07PLHEGJFB@Mission?$AA@
  00188	89 46 60	 mov	 DWORD PTR [esi+96], eax
  0018b	ff d3		 call	 ebx

; 77   : 	this->m_config.i21_ResetUp = GetPrivateProfileInt("Mission", "ResetUp", 100, filename);

  0018d	57		 push	 edi
  0018e	6a 64		 push	 100			; 00000064H
  00190	68 00 00 00 00	 push	 OFFSET ??_C@_07CJCBJCFL@ResetUp?$AA@
  00195	68 00 00 00 00	 push	 OFFSET ??_C@_07PLHEGJFB@Mission?$AA@
  0019a	89 46 64	 mov	 DWORD PTR [esi+100], eax
  0019d	ff d3		 call	 ebx

; 78   : 	this->m_config.i22_KanturuBossKill = GetPrivateProfileInt("Mission", "KanturuBossKill", 100, filename);

  0019f	57		 push	 edi
  001a0	6a 64		 push	 100			; 00000064H
  001a2	68 00 00 00 00	 push	 OFFSET ??_C@_0BA@ODPJIDCG@KanturuBossKill?$AA@
  001a7	68 00 00 00 00	 push	 OFFSET ??_C@_07PLHEGJFB@Mission?$AA@
  001ac	89 46 68	 mov	 DWORD PTR [esi+104], eax
  001af	ff d3		 call	 ebx

; 79   : 	this->m_config.i23_Monster100LvlKill = GetPrivateProfileInt("Mission", "Monster100LvlKill", 100, filename);

  001b1	57		 push	 edi
  001b2	6a 64		 push	 100			; 00000064H
  001b4	68 00 00 00 00	 push	 OFFSET ??_C@_0BC@ICDLIGPJ@Monster100LvlKill?$AA@
  001b9	68 00 00 00 00	 push	 OFFSET ??_C@_07PLHEGJFB@Mission?$AA@
  001be	89 46 6c	 mov	 DWORD PTR [esi+108], eax
  001c1	ff d3		 call	 ebx

; 80   : 	this->m_config.i24_MootopVote = GetPrivateProfileInt("Mission", "MootopVote", 100, filename);

  001c3	57		 push	 edi
  001c4	6a 64		 push	 100			; 00000064H
  001c6	68 00 00 00 00	 push	 OFFSET ??_C@_0L@OLDACHIE@MootopVote?$AA@
  001cb	68 00 00 00 00	 push	 OFFSET ??_C@_07PLHEGJFB@Mission?$AA@
  001d0	89 46 70	 mov	 DWORD PTR [esi+112], eax
  001d3	ff d3		 call	 ebx

; 81   : 	this->m_config.i25_PhonomanKill = GetPrivateProfileInt("Mission", "PhonomanKill", 100, filename);

  001d5	57		 push	 edi
  001d6	6a 64		 push	 100			; 00000064H
  001d8	68 00 00 00 00	 push	 OFFSET ??_C@_0N@ONNONHJN@PhonomanKill?$AA@
  001dd	89 46 74	 mov	 DWORD PTR [esi+116], eax
  001e0	68 00 00 00 00	 push	 OFFSET ??_C@_07PLHEGJFB@Mission?$AA@
  001e5	ff d3		 call	 ebx

; 82   : 	this->m_config.i26_CryWolfEventMonster = GetPrivateProfileInt("Mission", "CryWolfEventMonster", 100, filename);

  001e7	57		 push	 edi
  001e8	6a 64		 push	 100			; 00000064H
  001ea	68 00 00 00 00	 push	 OFFSET ??_C@_0BE@CFAFEAJG@CryWolfEventMonster?$AA@
  001ef	68 00 00 00 00	 push	 OFFSET ??_C@_07PLHEGJFB@Mission?$AA@
  001f4	89 46 78	 mov	 DWORD PTR [esi+120], eax
  001f7	ff d3		 call	 ebx

; 83   : 	this->m_config.i27_HellMainKill = GetPrivateProfileInt("Mission", "HellMainKill", 100, filename);

  001f9	57		 push	 edi
  001fa	6a 64		 push	 100			; 00000064H
  001fc	68 00 00 00 00	 push	 OFFSET ??_C@_0N@MICFOEPF@HellMainKill?$AA@
  00201	68 00 00 00 00	 push	 OFFSET ??_C@_07PLHEGJFB@Mission?$AA@
  00206	89 46 7c	 mov	 DWORD PTR [esi+124], eax
  00209	ff d3		 call	 ebx

; 84   : 	this->m_config.i28_KillInSelf_Defense = GetPrivateProfileInt("Mission", "KillInSelf_Defense", 100, filename);

  0020b	57		 push	 edi
  0020c	6a 64		 push	 100			; 00000064H
  0020e	68 00 00 00 00	 push	 OFFSET ??_C@_0BD@BPBOIKLO@KillInSelf_Defense?$AA@
  00213	68 00 00 00 00	 push	 OFFSET ??_C@_07PLHEGJFB@Mission?$AA@
  00218	89 86 80 00 00
	00		 mov	 DWORD PTR [esi+128], eax
  0021e	ff d3		 call	 ebx

; 85   : 	this->m_config.i29_SelupanKill = GetPrivateProfileInt("Mission", "SelupanKill", 100, filename);

  00220	57		 push	 edi
  00221	6a 64		 push	 100			; 00000064H
  00223	68 00 00 00 00	 push	 OFFSET ??_C@_0M@MNEEJGKH@SelupanKill?$AA@
  00228	68 00 00 00 00	 push	 OFFSET ??_C@_07PLHEGJFB@Mission?$AA@
  0022d	89 86 84 00 00
	00		 mov	 DWORD PTR [esi+132], eax
  00233	ff d3		 call	 ebx

; 86   : 	this->m_config.i30_KundunKill = GetPrivateProfileInt("Mission", "KundunKill", 100, filename);

  00235	57		 push	 edi
  00236	6a 64		 push	 100			; 00000064H
  00238	68 00 00 00 00	 push	 OFFSET ??_C@_0L@NMFHDMIL@KundunKill?$AA@
  0023d	68 00 00 00 00	 push	 OFFSET ??_C@_07PLHEGJFB@Mission?$AA@
  00242	89 86 88 00 00
	00		 mov	 DWORD PTR [esi+136], eax
  00248	ff d3		 call	 ebx

; 87   : 	this->m_config.i31_KillStatueBC = GetPrivateProfileInt("Mission", "KillStatueBC", 100, filename);

  0024a	57		 push	 edi
  0024b	6a 64		 push	 100			; 00000064H
  0024d	68 00 00 00 00	 push	 OFFSET ??_C@_0N@MFBGOGFE@KillStatueBC?$AA@
  00252	68 00 00 00 00	 push	 OFFSET ??_C@_07PLHEGJFB@Mission?$AA@
  00257	89 86 8c 00 00
	00		 mov	 DWORD PTR [esi+140], eax
  0025d	ff d3		 call	 ebx

; 88   : 	this->m_config.i32_CompleteBC = GetPrivateProfileInt("Mission", "CompleteBC", 100, filename);

  0025f	57		 push	 edi
  00260	6a 64		 push	 100			; 00000064H
  00262	68 00 00 00 00	 push	 OFFSET ??_C@_0L@EGINCFEN@CompleteBC?$AA@
  00267	68 00 00 00 00	 push	 OFFSET ??_C@_07PLHEGJFB@Mission?$AA@
  0026c	89 86 90 00 00
	00		 mov	 DWORD PTR [esi+144], eax
  00272	ff d3		 call	 ebx

; 89   : 	this->m_config.i33_GrandResetUp = GetPrivateProfileInt("Mission", "GrandResetUp", 100, filename);

  00274	57		 push	 edi
  00275	6a 64		 push	 100			; 00000064H
  00277	68 00 00 00 00	 push	 OFFSET ??_C@_0N@BEADCOLL@GrandResetUp?$AA@
  0027c	68 00 00 00 00	 push	 OFFSET ??_C@_07PLHEGJFB@Mission?$AA@
  00281	89 86 94 00 00
	00		 mov	 DWORD PTR [esi+148], eax
  00287	ff d3		 call	 ebx

; 90   : 	this->m_config.i34_BlueRabbitKiller = GetPrivateProfileInt("Mission", "BlueRabbitKiller", 100, filename);

  00289	57		 push	 edi
  0028a	6a 64		 push	 100			; 00000064H
  0028c	68 00 00 00 00	 push	 OFFSET ??_C@_0BB@NECNGOHI@BlueRabbitKiller?$AA@
  00291	68 00 00 00 00	 push	 OFFSET ??_C@_07PLHEGJFB@Mission?$AA@
  00296	89 86 98 00 00
	00		 mov	 DWORD PTR [esi+152], eax
  0029c	ff d3		 call	 ebx

; 91   : 	this->m_config.i35_HappyPouchesKiller = GetPrivateProfileInt("Mission", "HappyPouchesKiller", 100, filename);

  0029e	57		 push	 edi
  0029f	6a 64		 push	 100			; 00000064H
  002a1	68 00 00 00 00	 push	 OFFSET ??_C@_0BD@DIKHGCEL@HappyPouchesKiller?$AA@
  002a6	68 00 00 00 00	 push	 OFFSET ??_C@_07PLHEGJFB@Mission?$AA@
  002ab	89 86 9c 00 00
	00		 mov	 DWORD PTR [esi+156], eax
  002b1	ff d3		 call	 ebx

; 92   : 	this->m_config.i36_PheonixKill = GetPrivateProfileInt("Mission", "PheonixKill", 100, filename);

  002b3	57		 push	 edi
  002b4	6a 64		 push	 100			; 00000064H
  002b6	68 00 00 00 00	 push	 OFFSET ??_C@_0M@DLOEGGIN@PheonixKill?$AA@
  002bb	68 00 00 00 00	 push	 OFFSET ??_C@_07PLHEGJFB@Mission?$AA@
  002c0	89 86 a0 00 00
	00		 mov	 DWORD PTR [esi+160], eax
  002c6	ff d3		 call	 ebx

; 93   : 	this->m_config.i37_KanturuMonsterKill = GetPrivateProfileInt("Mission", "KanturuMonsterKill", 100, filename);

  002c8	57		 push	 edi
  002c9	6a 64		 push	 100			; 00000064H
  002cb	68 00 00 00 00	 push	 OFFSET ??_C@_0BD@FHBADLJE@KanturuMonsterKill?$AA@
  002d0	68 00 00 00 00	 push	 OFFSET ??_C@_07PLHEGJFB@Mission?$AA@
  002d5	89 86 a4 00 00
	00		 mov	 DWORD PTR [esi+164], eax
  002db	ff d3		 call	 ebx

; 94   : 	this->m_config.i38_MovePlayerFromSwitch = GetPrivateProfileInt("Mission", "MovePlayerFromSwitch", 100, filename);

  002dd	57		 push	 edi
  002de	6a 64		 push	 100			; 00000064H
  002e0	68 00 00 00 00	 push	 OFFSET ??_C@_0BF@HAPDHJPC@MovePlayerFromSwitch?$AA@
  002e5	68 00 00 00 00	 push	 OFFSET ??_C@_07PLHEGJFB@Mission?$AA@
  002ea	89 86 a8 00 00
	00		 mov	 DWORD PTR [esi+168], eax
  002f0	ff d3		 call	 ebx
  002f2	89 86 ac 00 00
	00		 mov	 DWORD PTR [esi+172], eax

; 95   : 	this->m_config.i39_WithstandSwitch10min = GetPrivateProfileInt("Mission", "WithstandSwitch10min", 100, filename);

  002f8	57		 push	 edi
  002f9	6a 64		 push	 100			; 00000064H
  002fb	68 00 00 00 00	 push	 OFFSET ??_C@_0BF@HBGCIILA@WithstandSwitch10min?$AA@
  00300	68 00 00 00 00	 push	 OFFSET ??_C@_07PLHEGJFB@Mission?$AA@
  00305	ff d3		 call	 ebx

; 96   : 	this->m_config.i40_MovePlayerFromCrown = GetPrivateProfileInt("Mission", "MovePlayerFromCrown", 100, filename);

  00307	57		 push	 edi
  00308	6a 64		 push	 100			; 00000064H
  0030a	68 00 00 00 00	 push	 OFFSET ??_C@_0BE@IDFBIGEM@MovePlayerFromCrown?$AA@
  0030f	68 00 00 00 00	 push	 OFFSET ??_C@_07PLHEGJFB@Mission?$AA@
  00314	89 86 b0 00 00
	00		 mov	 DWORD PTR [esi+176], eax
  0031a	ff d3		 call	 ebx

; 97   : 	this->m_config.i41_WinSiege = GetPrivateProfileInt("Mission", "WinSiege", 100, filename);

  0031c	57		 push	 edi
  0031d	6a 64		 push	 100			; 00000064H
  0031f	68 00 00 00 00	 push	 OFFSET ??_C@_08FMDKGBNF@WinSiege?$AA@
  00324	68 00 00 00 00	 push	 OFFSET ??_C@_07PLHEGJFB@Mission?$AA@
  00329	89 86 b4 00 00
	00		 mov	 DWORD PTR [esi+180], eax
  0032f	ff d3		 call	 ebx

; 98   : 	this->m_config.i42_KillCastleSiegeNPC = GetPrivateProfileInt("Mission", "KillCastleSiegeNPC", 100, filename);

  00331	57		 push	 edi
  00332	6a 64		 push	 100			; 00000064H
  00334	68 00 00 00 00	 push	 OFFSET ??_C@_0BD@PHINJBKO@KillCastleSiegeNPC?$AA@
  00339	68 00 00 00 00	 push	 OFFSET ??_C@_07PLHEGJFB@Mission?$AA@
  0033e	89 86 b8 00 00
	00		 mov	 DWORD PTR [esi+184], eax
  00344	ff d3		 call	 ebx

; 99   : 	this->m_config.i43_KillPlayerCastleSiege = GetPrivateProfileInt("Mission", "KillPlayerCastleSiege", 100, filename);

  00346	57		 push	 edi
  00347	6a 64		 push	 100			; 00000064H
  00349	68 00 00 00 00	 push	 OFFSET ??_C@_0BG@ILFJNFJC@KillPlayerCastleSiege?$AA@
  0034e	68 00 00 00 00	 push	 OFFSET ??_C@_07PLHEGJFB@Mission?$AA@
  00353	89 86 bc 00 00
	00		 mov	 DWORD PTR [esi+188], eax
  00359	ff d3		 call	 ebx

; 100  : 	this->m_config.i44_KillErohim = GetPrivateProfileInt("Mission", "KillErohim", 100, filename);

  0035b	57		 push	 edi
  0035c	6a 64		 push	 100			; 00000064H
  0035e	68 00 00 00 00	 push	 OFFSET ??_C@_0L@FDIMBEGH@KillErohim?$AA@
  00363	68 00 00 00 00	 push	 OFFSET ??_C@_07PLHEGJFB@Mission?$AA@
  00368	89 86 c0 00 00
	00		 mov	 DWORD PTR [esi+192], eax
  0036e	ff d3		 call	 ebx

; 101  : 	this->m_config.i45_BuyDonateShopItem = GetPrivateProfileInt("Mission", "BuyDonateShopItem", 100, filename);

  00370	57		 push	 edi
  00371	6a 64		 push	 100			; 00000064H
  00373	68 00 00 00 00	 push	 OFFSET ??_C@_0BC@FPGPMG@BuyDonateShopItem?$AA@
  00378	68 00 00 00 00	 push	 OFFSET ??_C@_07PLHEGJFB@Mission?$AA@
  0037d	89 86 c4 00 00
	00		 mov	 DWORD PTR [esi+196], eax
  00383	ff d3		 call	 ebx

; 102  : 	this->m_config.i46_GuildWarWin = GetPrivateProfileInt("Mission", "GuildWarWin", 100, filename);

  00385	57		 push	 edi
  00386	6a 64		 push	 100			; 00000064H
  00388	68 00 00 00 00	 push	 OFFSET ??_C@_0M@MAMKFDOB@GuildWarWin?$AA@
  0038d	68 00 00 00 00	 push	 OFFSET ??_C@_07PLHEGJFB@Mission?$AA@
  00392	89 86 c8 00 00
	00		 mov	 DWORD PTR [esi+200], eax
  00398	ff d3		 call	 ebx

; 103  : 	this->m_config.i47_PartyNoobLevelUp = GetPrivateProfileInt("Mission", "PartyNoobLevelUp", 100, filename);

  0039a	57		 push	 edi
  0039b	6a 64		 push	 100			; 00000064H
  0039d	68 00 00 00 00	 push	 OFFSET ??_C@_0BB@NMPMEAAK@PartyNoobLevelUp?$AA@
  003a2	68 00 00 00 00	 push	 OFFSET ??_C@_07PLHEGJFB@Mission?$AA@
  003a7	89 86 cc 00 00
	00		 mov	 DWORD PTR [esi+204], eax
  003ad	ff d3		 call	 ebx

; 104  : 	this->m_config.i48_PickUpRena = GetPrivateProfileInt("Mission", "PickUpSing", 100, filename);

  003af	57		 push	 edi
  003b0	6a 64		 push	 100			; 00000064H
  003b2	68 00 00 00 00	 push	 OFFSET ??_C@_0L@CPMGAAI@PickUpSing?$AA@
  003b7	68 00 00 00 00	 push	 OFFSET ??_C@_07PLHEGJFB@Mission?$AA@
  003bc	89 86 d0 00 00
	00		 mov	 DWORD PTR [esi+208], eax
  003c2	ff d3		 call	 ebx

; 105  : 	this->m_config.i49_PickUpLuckyCoins = GetPrivateProfileInt("Mission", "PickUpLuckyCoins", 100, filename);

  003c4	57		 push	 edi
  003c5	6a 64		 push	 100			; 00000064H
  003c7	68 00 00 00 00	 push	 OFFSET ??_C@_0BB@PHACFCBC@PickUpLuckyCoins?$AA@
  003cc	68 00 00 00 00	 push	 OFFSET ??_C@_07PLHEGJFB@Mission?$AA@
  003d1	89 86 d4 00 00
	00		 mov	 DWORD PTR [esi+212], eax
  003d7	ff d3		 call	 ebx

; 106  : 	this->m_config.i50_OfflineAttackTime = GetPrivateProfileInt("Mission", "OfflineAttackTime", 100, filename);

  003d9	57		 push	 edi
  003da	6a 64		 push	 100			; 00000064H
  003dc	68 00 00 00 00	 push	 OFFSET ??_C@_0BC@FJIMNPIE@OfflineAttackTime?$AA@
  003e1	68 00 00 00 00	 push	 OFFSET ??_C@_07PLHEGJFB@Mission?$AA@
  003e6	89 86 d8 00 00
	00		 mov	 DWORD PTR [esi+216], eax
  003ec	ff d3		 call	 ebx

; 107  : 	//-> reward confg read
; 108  : 	this->m_reward.i1_MonsterKill = GetPrivateProfileInt("Reward", "MonsterKill", 100, filename);

  003ee	57		 push	 edi
  003ef	6a 64		 push	 100			; 00000064H
  003f1	68 00 00 00 00	 push	 OFFSET ??_C@_0M@LJDMLBHP@MonsterKill?$AA@
  003f6	68 00 00 00 00	 push	 OFFSET ??_C@_06BAGMPINC@Reward?$AA@
  003fb	89 86 dc 00 00
	00		 mov	 DWORD PTR [esi+220], eax
  00401	ff d3		 call	 ebx

; 109  : 	this->m_reward.i2_GoldenKill = GetPrivateProfileInt("Reward", "GoldenKill", 100, filename);

  00403	57		 push	 edi
  00404	6a 64		 push	 100			; 00000064H
  00406	68 00 00 00 00	 push	 OFFSET ??_C@_0L@KPOJALCF@GoldenKill?$AA@
  0040b	89 86 e0 00 00
	00		 mov	 DWORD PTR [esi+224], eax
  00411	68 00 00 00 00	 push	 OFFSET ??_C@_06BAGMPINC@Reward?$AA@
  00416	ff d3		 call	 ebx

; 110  : 	this->m_reward.i3_KalimaMonserKill = GetPrivateProfileInt("Reward", "KalimaMonserKill", 100, filename);

  00418	57		 push	 edi
  00419	6a 64		 push	 100			; 00000064H
  0041b	68 00 00 00 00	 push	 OFFSET ??_C@_0BB@GDDPKKHF@KalimaMonserKill?$AA@
  00420	68 00 00 00 00	 push	 OFFSET ??_C@_06BAGMPINC@Reward?$AA@
  00425	89 86 e4 00 00
	00		 mov	 DWORD PTR [esi+228], eax
  0042b	ff d3		 call	 ebx

; 111  : 	this->m_reward.i4_WhiteWizardKill = GetPrivateProfileInt("Reward", "WhiteWizardKill", 100, filename);

  0042d	57		 push	 edi
  0042e	6a 64		 push	 100			; 00000064H
  00430	68 00 00 00 00	 push	 OFFSET ??_C@_0BA@EPMFDFLP@WhiteWizardKill?$AA@
  00435	68 00 00 00 00	 push	 OFFSET ??_C@_06BAGMPINC@Reward?$AA@
  0043a	89 86 e8 00 00
	00		 mov	 DWORD PTR [esi+232], eax
  00440	ff d3		 call	 ebx

; 112  : 	this->m_reward.i5_PlayerKill = GetPrivateProfileInt("Reward", "PlayerKill", 100, filename);

  00442	57		 push	 edi
  00443	6a 64		 push	 100			; 00000064H
  00445	68 00 00 00 00	 push	 OFFSET ??_C@_0L@KBPGGACD@PlayerKill?$AA@
  0044a	68 00 00 00 00	 push	 OFFSET ??_C@_06BAGMPINC@Reward?$AA@
  0044f	89 86 ec 00 00
	00		 mov	 DWORD PTR [esi+236], eax
  00455	ff d3		 call	 ebx

; 113  : 	this->m_reward.i6_RedDragonKill = GetPrivateProfileInt("Reward", "RedDragonKill", 100, filename);

  00457	57		 push	 edi
  00458	6a 64		 push	 100			; 00000064H
  0045a	68 00 00 00 00	 push	 OFFSET ??_C@_0O@HLDKCBKH@RedDragonKill?$AA@
  0045f	68 00 00 00 00	 push	 OFFSET ??_C@_06BAGMPINC@Reward?$AA@
  00464	89 86 f0 00 00
	00		 mov	 DWORD PTR [esi+240], eax
  0046a	ff d3		 call	 ebx

; 114  : 	this->m_reward.i7_OrcKill = GetPrivateProfileInt("Reward", "OrcKill", 100, filename);

  0046c	57		 push	 edi
  0046d	6a 64		 push	 100			; 00000064H
  0046f	68 00 00 00 00	 push	 OFFSET ??_C@_07HOHPILBP@OrcKill?$AA@
  00474	68 00 00 00 00	 push	 OFFSET ??_C@_06BAGMPINC@Reward?$AA@
  00479	89 86 f4 00 00
	00		 mov	 DWORD PTR [esi+244], eax
  0047f	ff d3		 call	 ebx

; 115  : 	this->m_reward.i8_KillGateBC = GetPrivateProfileInt("Reward", "KillGateBC", 100, filename);

  00481	57		 push	 edi
  00482	6a 64		 push	 100			; 00000064H
  00484	68 00 00 00 00	 push	 OFFSET ??_C@_0L@JLBEKLBI@KillGateBC?$AA@
  00489	68 00 00 00 00	 push	 OFFSET ??_C@_06BAGMPINC@Reward?$AA@
  0048e	89 86 f8 00 00
	00		 mov	 DWORD PTR [esi+248], eax
  00494	ff d3		 call	 ebx

; 116  : 	this->m_reward.i9_TakePartInCC = GetPrivateProfileInt("Reward", "TakePartInCC", 100, filename);

  00496	57		 push	 edi
  00497	6a 64		 push	 100			; 00000064H
  00499	68 00 00 00 00	 push	 OFFSET ??_C@_0N@GMLBOAGE@TakePartInCC?$AA@
  0049e	68 00 00 00 00	 push	 OFFSET ??_C@_06BAGMPINC@Reward?$AA@
  004a3	89 86 fc 00 00
	00		 mov	 DWORD PTR [esi+252], eax
  004a9	ff d3		 call	 ebx

; 117  : 	this->m_reward.i10_WinningTheCC = GetPrivateProfileInt("Reward", "WinningTheCC", 100, filename);

  004ab	57		 push	 edi
  004ac	6a 64		 push	 100			; 00000064H
  004ae	68 00 00 00 00	 push	 OFFSET ??_C@_0N@BMJIPOCO@WinningTheCC?$AA@
  004b3	68 00 00 00 00	 push	 OFFSET ??_C@_06BAGMPINC@Reward?$AA@
  004b8	89 86 00 01 00
	00		 mov	 DWORD PTR [esi+256], eax
  004be	ff d3		 call	 ebx

; 118  : 	this->m_reward.i11_OnlineTime = GetPrivateProfileInt("Reward", "OnlineTime", 100, filename);

  004c0	57		 push	 edi
  004c1	6a 64		 push	 100			; 00000064H
  004c3	68 00 00 00 00	 push	 OFFSET ??_C@_0L@DLJNOBJL@OnlineTime?$AA@
  004c8	68 00 00 00 00	 push	 OFFSET ??_C@_06BAGMPINC@Reward?$AA@
  004cd	89 86 04 01 00
	00		 mov	 DWORD PTR [esi+260], eax
  004d3	ff d3		 call	 ebx

; 119  : 	this->m_reward.i12_PickUpJewels = GetPrivateProfileInt("Reward", "PickUpJewels", 100, filename);

  004d5	57		 push	 edi
  004d6	6a 64		 push	 100			; 00000064H
  004d8	68 00 00 00 00	 push	 OFFSET ??_C@_0N@ICMJNFMD@PickUpJewels?$AA@
  004dd	68 00 00 00 00	 push	 OFFSET ??_C@_06BAGMPINC@Reward?$AA@
  004e2	89 86 08 01 00
	00		 mov	 DWORD PTR [esi+264], eax
  004e8	ff d3		 call	 ebx

; 120  : 	this->m_reward.i13_UsedJewels = GetPrivateProfileInt("Reward", "UsedJewels", 100, filename);

  004ea	57		 push	 edi
  004eb	6a 64		 push	 100			; 00000064H
  004ed	68 00 00 00 00	 push	 OFFSET ??_C@_0L@HICNPMAF@UsedJewels?$AA@
  004f2	68 00 00 00 00	 push	 OFFSET ??_C@_06BAGMPINC@Reward?$AA@
  004f7	89 86 0c 01 00
	00		 mov	 DWORD PTR [esi+268], eax
  004fd	ff d3		 call	 ebx

; 121  : 	this->m_reward.i14_SuccessChaosMix = GetPrivateProfileInt("Reward", "SuccessChaosMix", 100, filename);

  004ff	57		 push	 edi
  00500	6a 64		 push	 100			; 00000064H
  00502	68 00 00 00 00	 push	 OFFSET ??_C@_0BA@JFKMGLE@SuccessChaosMix?$AA@
  00507	68 00 00 00 00	 push	 OFFSET ??_C@_06BAGMPINC@Reward?$AA@
  0050c	89 86 10 01 00
	00		 mov	 DWORD PTR [esi+272], eax
  00512	ff d3		 call	 ebx

; 122  : 	this->m_reward.i15_FailedChaosMix = GetPrivateProfileInt("Reward", "FailedChaosMix", 100, filename);

  00514	57		 push	 edi
  00515	6a 64		 push	 100			; 00000064H
  00517	68 00 00 00 00	 push	 OFFSET ??_C@_0P@MLNADFDL@FailedChaosMix?$AA@
  0051c	68 00 00 00 00	 push	 OFFSET ??_C@_06BAGMPINC@Reward?$AA@
  00521	89 86 14 01 00
	00		 mov	 DWORD PTR [esi+276], eax
  00527	ff d3		 call	 ebx
  00529	89 86 18 01 00
	00		 mov	 DWORD PTR [esi+280], eax

; 123  : 	this->m_reward.i16_PickUpZen = GetPrivateProfileInt("Reward", "PickUpZen", 100, filename);

  0052f	57		 push	 edi
  00530	6a 64		 push	 100			; 00000064H
  00532	68 00 00 00 00	 push	 OFFSET ??_C@_09DGDHEANG@PickUpZen?$AA@
  00537	68 00 00 00 00	 push	 OFFSET ??_C@_06BAGMPINC@Reward?$AA@
  0053c	ff d3		 call	 ebx

; 124  : 	this->m_reward.i17_PickUpExellent = GetPrivateProfileInt("Reward", "PickUpExellent", 100, filename);

  0053e	57		 push	 edi
  0053f	6a 64		 push	 100			; 00000064H
  00541	68 00 00 00 00	 push	 OFFSET ??_C@_0P@IFEPEFIA@PickUpExellent?$AA@
  00546	68 00 00 00 00	 push	 OFFSET ??_C@_06BAGMPINC@Reward?$AA@
  0054b	89 86 1c 01 00
	00		 mov	 DWORD PTR [esi+284], eax
  00551	ff d3		 call	 ebx

; 125  : 	this->m_reward.i18_PickUpAncent = GetPrivateProfileInt("Reward", "PickUpAncent", 100, filename);

  00553	57		 push	 edi
  00554	6a 64		 push	 100			; 00000064H
  00556	68 00 00 00 00	 push	 OFFSET ??_C@_0N@DDKMACBB@PickUpAncent?$AA@
  0055b	68 00 00 00 00	 push	 OFFSET ??_C@_06BAGMPINC@Reward?$AA@
  00560	89 86 20 01 00
	00		 mov	 DWORD PTR [esi+288], eax
  00566	ff d3		 call	 ebx

; 126  : 	this->m_reward.i19_DuelWin = GetPrivateProfileInt("Reward", "DuelWin", 100, filename);

  00568	57		 push	 edi
  00569	6a 64		 push	 100			; 00000064H
  0056b	68 00 00 00 00	 push	 OFFSET ??_C@_07GHADJGDF@DuelWin?$AA@
  00570	68 00 00 00 00	 push	 OFFSET ??_C@_06BAGMPINC@Reward?$AA@
  00575	89 86 24 01 00
	00		 mov	 DWORD PTR [esi+292], eax
  0057b	ff d3		 call	 ebx

; 127  : 	this->m_reward.i20_LevelUp = GetPrivateProfileInt("Reward", "LevelUp", 100, filename);

  0057d	57		 push	 edi
  0057e	6a 64		 push	 100			; 00000064H
  00580	68 00 00 00 00	 push	 OFFSET ??_C@_07IFHAFPIB@LevelUp?$AA@
  00585	68 00 00 00 00	 push	 OFFSET ??_C@_06BAGMPINC@Reward?$AA@
  0058a	89 86 28 01 00
	00		 mov	 DWORD PTR [esi+296], eax
  00590	ff d3		 call	 ebx

; 128  : 	this->m_reward.i21_ResetUp = GetPrivateProfileInt("Reward", "ResetUp", 100, filename);

  00592	57		 push	 edi
  00593	6a 64		 push	 100			; 00000064H
  00595	68 00 00 00 00	 push	 OFFSET ??_C@_07CJCBJCFL@ResetUp?$AA@
  0059a	68 00 00 00 00	 push	 OFFSET ??_C@_06BAGMPINC@Reward?$AA@
  0059f	89 86 2c 01 00
	00		 mov	 DWORD PTR [esi+300], eax
  005a5	ff d3		 call	 ebx

; 129  : 	this->m_reward.i22_KanturuBossKill = GetPrivateProfileInt("Reward", "KanturuBossKill", 100, filename);

  005a7	57		 push	 edi
  005a8	6a 64		 push	 100			; 00000064H
  005aa	68 00 00 00 00	 push	 OFFSET ??_C@_0BA@ODPJIDCG@KanturuBossKill?$AA@
  005af	68 00 00 00 00	 push	 OFFSET ??_C@_06BAGMPINC@Reward?$AA@
  005b4	89 86 30 01 00
	00		 mov	 DWORD PTR [esi+304], eax
  005ba	ff d3		 call	 ebx

; 130  : 	this->m_reward.i23_Monster100LvlKill = GetPrivateProfileInt("Reward", "Monster100LvlKill", 100, filename);

  005bc	57		 push	 edi
  005bd	6a 64		 push	 100			; 00000064H
  005bf	68 00 00 00 00	 push	 OFFSET ??_C@_0BC@ICDLIGPJ@Monster100LvlKill?$AA@
  005c4	68 00 00 00 00	 push	 OFFSET ??_C@_06BAGMPINC@Reward?$AA@
  005c9	89 86 34 01 00
	00		 mov	 DWORD PTR [esi+308], eax
  005cf	ff d3		 call	 ebx

; 131  : 	this->m_reward.i24_MootopVote = GetPrivateProfileInt("Reward", "MootopVote", 100, filename);

  005d1	57		 push	 edi
  005d2	6a 64		 push	 100			; 00000064H
  005d4	68 00 00 00 00	 push	 OFFSET ??_C@_0L@OLDACHIE@MootopVote?$AA@
  005d9	68 00 00 00 00	 push	 OFFSET ??_C@_06BAGMPINC@Reward?$AA@
  005de	89 86 38 01 00
	00		 mov	 DWORD PTR [esi+312], eax
  005e4	ff d3		 call	 ebx

; 132  : 	this->m_reward.i25_PhonomanKill = GetPrivateProfileInt("Reward", "PhonomanKill", 100, filename);

  005e6	57		 push	 edi
  005e7	6a 64		 push	 100			; 00000064H
  005e9	68 00 00 00 00	 push	 OFFSET ??_C@_0N@ONNONHJN@PhonomanKill?$AA@
  005ee	68 00 00 00 00	 push	 OFFSET ??_C@_06BAGMPINC@Reward?$AA@
  005f3	89 86 3c 01 00
	00		 mov	 DWORD PTR [esi+316], eax
  005f9	ff d3		 call	 ebx

; 133  : 	this->m_reward.i26_CryWolfEventMonster = GetPrivateProfileInt("Reward", "CryWolfEventMonster", 100, filename);

  005fb	57		 push	 edi
  005fc	6a 64		 push	 100			; 00000064H
  005fe	68 00 00 00 00	 push	 OFFSET ??_C@_0BE@CFAFEAJG@CryWolfEventMonster?$AA@
  00603	68 00 00 00 00	 push	 OFFSET ??_C@_06BAGMPINC@Reward?$AA@
  00608	89 86 40 01 00
	00		 mov	 DWORD PTR [esi+320], eax
  0060e	ff d3		 call	 ebx

; 134  : 	this->m_reward.i27_HellMainKill = GetPrivateProfileInt("Reward", "HellMainKill", 100, filename);

  00610	57		 push	 edi
  00611	6a 64		 push	 100			; 00000064H
  00613	68 00 00 00 00	 push	 OFFSET ??_C@_0N@MICFOEPF@HellMainKill?$AA@
  00618	68 00 00 00 00	 push	 OFFSET ??_C@_06BAGMPINC@Reward?$AA@
  0061d	89 86 44 01 00
	00		 mov	 DWORD PTR [esi+324], eax
  00623	ff d3		 call	 ebx

; 135  : 	this->m_reward.i28_KillInSelf_Defense = GetPrivateProfileInt("Reward", "KillInSelf_Defense", 100, filename);

  00625	57		 push	 edi
  00626	6a 64		 push	 100			; 00000064H
  00628	68 00 00 00 00	 push	 OFFSET ??_C@_0BD@BPBOIKLO@KillInSelf_Defense?$AA@
  0062d	68 00 00 00 00	 push	 OFFSET ??_C@_06BAGMPINC@Reward?$AA@
  00632	89 86 48 01 00
	00		 mov	 DWORD PTR [esi+328], eax
  00638	ff d3		 call	 ebx

; 136  : 	this->m_reward.i29_SelupanKill = GetPrivateProfileInt("Reward", "SelupanKill", 100, filename);

  0063a	57		 push	 edi
  0063b	6a 64		 push	 100			; 00000064H
  0063d	68 00 00 00 00	 push	 OFFSET ??_C@_0M@MNEEJGKH@SelupanKill?$AA@
  00642	89 86 4c 01 00
	00		 mov	 DWORD PTR [esi+332], eax
  00648	68 00 00 00 00	 push	 OFFSET ??_C@_06BAGMPINC@Reward?$AA@
  0064d	ff d3		 call	 ebx

; 137  : 	this->m_reward.i30_KundunKill = GetPrivateProfileInt("Reward", "KundunKill", 100, filename);

  0064f	57		 push	 edi
  00650	6a 64		 push	 100			; 00000064H
  00652	68 00 00 00 00	 push	 OFFSET ??_C@_0L@NMFHDMIL@KundunKill?$AA@
  00657	68 00 00 00 00	 push	 OFFSET ??_C@_06BAGMPINC@Reward?$AA@
  0065c	89 86 50 01 00
	00		 mov	 DWORD PTR [esi+336], eax
  00662	ff d3		 call	 ebx

; 138  : 	this->m_reward.i31_KillStatueBC = GetPrivateProfileInt("Reward", "KillStatueBC", 100, filename);

  00664	57		 push	 edi
  00665	6a 64		 push	 100			; 00000064H
  00667	68 00 00 00 00	 push	 OFFSET ??_C@_0N@MFBGOGFE@KillStatueBC?$AA@
  0066c	68 00 00 00 00	 push	 OFFSET ??_C@_06BAGMPINC@Reward?$AA@
  00671	89 86 54 01 00
	00		 mov	 DWORD PTR [esi+340], eax
  00677	ff d3		 call	 ebx

; 139  : 	this->m_reward.i32_CompleteBC = GetPrivateProfileInt("Reward", "CompleteBC", 100, filename);

  00679	57		 push	 edi
  0067a	6a 64		 push	 100			; 00000064H
  0067c	68 00 00 00 00	 push	 OFFSET ??_C@_0L@EGINCFEN@CompleteBC?$AA@
  00681	68 00 00 00 00	 push	 OFFSET ??_C@_06BAGMPINC@Reward?$AA@
  00686	89 86 58 01 00
	00		 mov	 DWORD PTR [esi+344], eax
  0068c	ff d3		 call	 ebx

; 140  : 	this->m_reward.i33_GrandResetUp = GetPrivateProfileInt("Reward", "GrandResetUp", 100, filename);

  0068e	57		 push	 edi
  0068f	6a 64		 push	 100			; 00000064H
  00691	68 00 00 00 00	 push	 OFFSET ??_C@_0N@BEADCOLL@GrandResetUp?$AA@
  00696	68 00 00 00 00	 push	 OFFSET ??_C@_06BAGMPINC@Reward?$AA@
  0069b	89 86 5c 01 00
	00		 mov	 DWORD PTR [esi+348], eax
  006a1	ff d3		 call	 ebx

; 141  : 	this->m_reward.i34_BlueRabbitKiller = GetPrivateProfileInt("Reward", "BlueRabbitKiller", 100, filename);

  006a3	57		 push	 edi
  006a4	6a 64		 push	 100			; 00000064H
  006a6	68 00 00 00 00	 push	 OFFSET ??_C@_0BB@NECNGOHI@BlueRabbitKiller?$AA@
  006ab	68 00 00 00 00	 push	 OFFSET ??_C@_06BAGMPINC@Reward?$AA@
  006b0	89 86 60 01 00
	00		 mov	 DWORD PTR [esi+352], eax
  006b6	ff d3		 call	 ebx

; 142  : 	this->m_reward.i35_HappyPouchesKiller = GetPrivateProfileInt("Reward", "HappyPouchesKiller", 100, filename);

  006b8	57		 push	 edi
  006b9	6a 64		 push	 100			; 00000064H
  006bb	68 00 00 00 00	 push	 OFFSET ??_C@_0BD@DIKHGCEL@HappyPouchesKiller?$AA@
  006c0	68 00 00 00 00	 push	 OFFSET ??_C@_06BAGMPINC@Reward?$AA@
  006c5	89 86 64 01 00
	00		 mov	 DWORD PTR [esi+356], eax
  006cb	ff d3		 call	 ebx

; 143  : 	this->m_reward.i36_PheonixKill = GetPrivateProfileInt("Reward", "PheonixKill", 100, filename);

  006cd	57		 push	 edi
  006ce	6a 64		 push	 100			; 00000064H
  006d0	68 00 00 00 00	 push	 OFFSET ??_C@_0M@DLOEGGIN@PheonixKill?$AA@
  006d5	68 00 00 00 00	 push	 OFFSET ??_C@_06BAGMPINC@Reward?$AA@
  006da	89 86 68 01 00
	00		 mov	 DWORD PTR [esi+360], eax
  006e0	ff d3		 call	 ebx

; 144  : 	this->m_reward.i37_KanturuMonsterKill = GetPrivateProfileInt("Reward", "KanturuMonsterKill", 100, filename);

  006e2	57		 push	 edi
  006e3	6a 64		 push	 100			; 00000064H
  006e5	68 00 00 00 00	 push	 OFFSET ??_C@_0BD@FHBADLJE@KanturuMonsterKill?$AA@
  006ea	68 00 00 00 00	 push	 OFFSET ??_C@_06BAGMPINC@Reward?$AA@
  006ef	89 86 6c 01 00
	00		 mov	 DWORD PTR [esi+364], eax
  006f5	ff d3		 call	 ebx

; 145  : 	this->m_reward.i38_MovePlayerFromSwitch = GetPrivateProfileInt("Reward", "MovePlayerFromSwitch", 100, filename);

  006f7	57		 push	 edi
  006f8	6a 64		 push	 100			; 00000064H
  006fa	68 00 00 00 00	 push	 OFFSET ??_C@_0BF@HAPDHJPC@MovePlayerFromSwitch?$AA@
  006ff	68 00 00 00 00	 push	 OFFSET ??_C@_06BAGMPINC@Reward?$AA@
  00704	89 86 70 01 00
	00		 mov	 DWORD PTR [esi+368], eax
  0070a	ff d3		 call	 ebx

; 146  : 	this->m_reward.i39_WithstandSwitch10min = GetPrivateProfileInt("Reward", "WithstandSwitch10min", 100, filename);

  0070c	57		 push	 edi
  0070d	6a 64		 push	 100			; 00000064H
  0070f	68 00 00 00 00	 push	 OFFSET ??_C@_0BF@HBGCIILA@WithstandSwitch10min?$AA@
  00714	68 00 00 00 00	 push	 OFFSET ??_C@_06BAGMPINC@Reward?$AA@
  00719	89 86 74 01 00
	00		 mov	 DWORD PTR [esi+372], eax
  0071f	ff d3		 call	 ebx

; 147  : 	this->m_reward.i40_MovePlayerFromCrown = GetPrivateProfileInt("Reward", "MovePlayerFromCrown", 100, filename);

  00721	57		 push	 edi
  00722	6a 64		 push	 100			; 00000064H
  00724	68 00 00 00 00	 push	 OFFSET ??_C@_0BE@IDFBIGEM@MovePlayerFromCrown?$AA@
  00729	68 00 00 00 00	 push	 OFFSET ??_C@_06BAGMPINC@Reward?$AA@
  0072e	89 86 78 01 00
	00		 mov	 DWORD PTR [esi+376], eax
  00734	ff d3		 call	 ebx

; 148  : 	this->m_reward.i41_WinSiege = GetPrivateProfileInt("Reward", "WinSiege", 100, filename);

  00736	57		 push	 edi
  00737	6a 64		 push	 100			; 00000064H
  00739	68 00 00 00 00	 push	 OFFSET ??_C@_08FMDKGBNF@WinSiege?$AA@
  0073e	68 00 00 00 00	 push	 OFFSET ??_C@_06BAGMPINC@Reward?$AA@
  00743	89 86 7c 01 00
	00		 mov	 DWORD PTR [esi+380], eax
  00749	ff d3		 call	 ebx

; 149  : 	this->m_reward.i42_KillCastleSiegeNPC = GetPrivateProfileInt("Reward", "KillCastleSiegeNPC", 100, filename);

  0074b	57		 push	 edi
  0074c	6a 64		 push	 100			; 00000064H
  0074e	68 00 00 00 00	 push	 OFFSET ??_C@_0BD@PHINJBKO@KillCastleSiegeNPC?$AA@
  00753	68 00 00 00 00	 push	 OFFSET ??_C@_06BAGMPINC@Reward?$AA@
  00758	89 86 80 01 00
	00		 mov	 DWORD PTR [esi+384], eax
  0075e	ff d3		 call	 ebx
  00760	89 86 84 01 00
	00		 mov	 DWORD PTR [esi+388], eax

; 150  : 	this->m_reward.i43_KillPlayerCastleSiege = GetPrivateProfileInt("Reward", "KillPlayerCastleSiege", 100, filename);

  00766	57		 push	 edi
  00767	6a 64		 push	 100			; 00000064H
  00769	68 00 00 00 00	 push	 OFFSET ??_C@_0BG@ILFJNFJC@KillPlayerCastleSiege?$AA@
  0076e	68 00 00 00 00	 push	 OFFSET ??_C@_06BAGMPINC@Reward?$AA@
  00773	ff d3		 call	 ebx

; 151  : 	this->m_reward.i44_KillErohim = GetPrivateProfileInt("Reward", "KillErohim", 100, filename);

  00775	57		 push	 edi
  00776	6a 64		 push	 100			; 00000064H
  00778	68 00 00 00 00	 push	 OFFSET ??_C@_0L@FDIMBEGH@KillErohim?$AA@
  0077d	68 00 00 00 00	 push	 OFFSET ??_C@_06BAGMPINC@Reward?$AA@
  00782	89 86 88 01 00
	00		 mov	 DWORD PTR [esi+392], eax
  00788	ff d3		 call	 ebx

; 152  : 	this->m_reward.i45_BuyDonateShopItem = GetPrivateProfileInt("Reward", "BuyDonateShopItem", 100, filename);

  0078a	57		 push	 edi
  0078b	6a 64		 push	 100			; 00000064H
  0078d	68 00 00 00 00	 push	 OFFSET ??_C@_0BC@FPGPMG@BuyDonateShopItem?$AA@
  00792	68 00 00 00 00	 push	 OFFSET ??_C@_06BAGMPINC@Reward?$AA@
  00797	89 86 8c 01 00
	00		 mov	 DWORD PTR [esi+396], eax
  0079d	ff d3		 call	 ebx

; 153  : 	this->m_reward.i46_GuildWarWin = GetPrivateProfileInt("Reward", "GuildWarWin", 100, filename);

  0079f	57		 push	 edi
  007a0	6a 64		 push	 100			; 00000064H
  007a2	68 00 00 00 00	 push	 OFFSET ??_C@_0M@MAMKFDOB@GuildWarWin?$AA@
  007a7	68 00 00 00 00	 push	 OFFSET ??_C@_06BAGMPINC@Reward?$AA@
  007ac	89 86 90 01 00
	00		 mov	 DWORD PTR [esi+400], eax
  007b2	ff d3		 call	 ebx

; 154  : 	this->m_reward.i47_PartyNoobLevelUp = GetPrivateProfileInt("Reward", "PartyNoobLevelUp", 100, filename);

  007b4	57		 push	 edi
  007b5	6a 64		 push	 100			; 00000064H
  007b7	68 00 00 00 00	 push	 OFFSET ??_C@_0BB@NMPMEAAK@PartyNoobLevelUp?$AA@
  007bc	68 00 00 00 00	 push	 OFFSET ??_C@_06BAGMPINC@Reward?$AA@
  007c1	89 86 94 01 00
	00		 mov	 DWORD PTR [esi+404], eax
  007c7	ff d3		 call	 ebx

; 155  : 	this->m_reward.i48_PickUpRena = GetPrivateProfileInt("Reward", "PickUpRena", 100, filename);

  007c9	57		 push	 edi
  007ca	6a 64		 push	 100			; 00000064H
  007cc	68 00 00 00 00	 push	 OFFSET ??_C@_0L@CDBAFBIG@PickUpRena?$AA@
  007d1	68 00 00 00 00	 push	 OFFSET ??_C@_06BAGMPINC@Reward?$AA@
  007d6	89 86 98 01 00
	00		 mov	 DWORD PTR [esi+408], eax
  007dc	ff d3		 call	 ebx

; 156  : 	this->m_reward.i49_PickUpLuckyCoins = GetPrivateProfileInt("Reward", "PickUpLuckyCoins", 100, filename);

  007de	57		 push	 edi
  007df	6a 64		 push	 100			; 00000064H
  007e1	68 00 00 00 00	 push	 OFFSET ??_C@_0BB@PHACFCBC@PickUpLuckyCoins?$AA@
  007e6	68 00 00 00 00	 push	 OFFSET ??_C@_06BAGMPINC@Reward?$AA@
  007eb	89 86 9c 01 00
	00		 mov	 DWORD PTR [esi+412], eax
  007f1	ff d3		 call	 ebx

; 157  : 	this->m_reward.i50_OfflineAttackTime = GetPrivateProfileInt("Reward", "OfflineAttackTime", 100, filename);

  007f3	57		 push	 edi
  007f4	6a 64		 push	 100			; 00000064H
  007f6	68 00 00 00 00	 push	 OFFSET ??_C@_0BC@FJIMNPIE@OfflineAttackTime?$AA@
  007fb	68 00 00 00 00	 push	 OFFSET ??_C@_06BAGMPINC@Reward?$AA@
  00800	89 86 a0 01 00
	00		 mov	 DWORD PTR [esi+416], eax
  00806	ff d3		 call	 ebx

; 158  : 	//power cfg
; 159  : 	this->iDamageMax = GetPrivateProfileInt("Power", "DamageMax", 100, filename);

  00808	57		 push	 edi
  00809	6a 64		 push	 100			; 00000064H
  0080b	68 00 00 00 00	 push	 OFFSET ??_C@_09CFLNECFJ@DamageMax?$AA@
  00810	68 00 00 00 00	 push	 OFFSET ??_C@_05PMCMDMKN@Power?$AA@
  00815	89 86 a4 01 00
	00		 mov	 DWORD PTR [esi+420], eax
  0081b	ff d3		 call	 ebx

; 160  : 	this->iDefenceMax = GetPrivateProfileInt("Power", "DefenceMax", 100, filename);

  0081d	57		 push	 edi
  0081e	6a 64		 push	 100			; 00000064H
  00820	68 00 00 00 00	 push	 OFFSET ??_C@_0L@LBODNNMD@DefenceMax?$AA@
  00825	68 00 00 00 00	 push	 OFFSET ??_C@_05PMCMDMKN@Power?$AA@
  0082a	89 86 a8 01 00
	00		 mov	 DWORD PTR [esi+424], eax
  00830	ff d3		 call	 ebx

; 161  : 	this->iLifeMax = GetPrivateProfileInt("Power", "LifeMax", 100, filename);

  00832	57		 push	 edi
  00833	6a 64		 push	 100			; 00000064H
  00835	68 00 00 00 00	 push	 OFFSET ??_C@_07LCDDDIHB@LifeMax?$AA@
  0083a	68 00 00 00 00	 push	 OFFSET ??_C@_05PMCMDMKN@Power?$AA@
  0083f	89 86 ac 01 00
	00		 mov	 DWORD PTR [esi+428], eax
  00845	ff d3		 call	 ebx

; 162  : 	this->iExellentDamageMax = GetPrivateProfileInt("Power", "ExellentDamageMax", 100, filename);

  00847	57		 push	 edi
  00848	6a 64		 push	 100			; 00000064H
  0084a	68 00 00 00 00	 push	 OFFSET ??_C@_0BC@DEACALA@ExellentDamageMax?$AA@
  0084f	68 00 00 00 00	 push	 OFFSET ??_C@_05PMCMDMKN@Power?$AA@
  00854	89 86 b0 01 00
	00		 mov	 DWORD PTR [esi+432], eax
  0085a	ff d3		 call	 ebx

; 163  : 	this->iCriticalDamageMax = GetPrivateProfileInt("Power", "CriticalDamageMax", 100, filename);

  0085c	57		 push	 edi
  0085d	6a 64		 push	 100			; 00000064H
  0085f	68 00 00 00 00	 push	 OFFSET ??_C@_0BC@FBDOMICD@CriticalDamageMax?$AA@
  00864	68 00 00 00 00	 push	 OFFSET ??_C@_05PMCMDMKN@Power?$AA@
  00869	89 86 b4 01 00
	00		 mov	 DWORD PTR [esi+436], eax
  0086f	ff d3		 call	 ebx

; 164  : 	//power div
; 165  : 	this->m_DivDamage = GetPrivateProfileInt("Power", "DivDamage", 60, filename);

  00871	57		 push	 edi
  00872	6a 3c		 push	 60			; 0000003cH
  00874	68 00 00 00 00	 push	 OFFSET ??_C@_09NFBNHDPD@DivDamage?$AA@
  00879	89 86 b8 01 00
	00		 mov	 DWORD PTR [esi+440], eax
  0087f	68 00 00 00 00	 push	 OFFSET ??_C@_05PMCMDMKN@Power?$AA@
  00884	ff d3		 call	 ebx

; 166  : 	this->m_DivDefence = GetPrivateProfileInt("Power", "DivDefence", 40, filename);

  00886	57		 push	 edi
  00887	6a 28		 push	 40			; 00000028H
  00889	68 00 00 00 00	 push	 OFFSET ??_C@_0L@COGGGABP@DivDefence?$AA@
  0088e	68 00 00 00 00	 push	 OFFSET ??_C@_05PMCMDMKN@Power?$AA@
  00893	89 06		 mov	 DWORD PTR [esi], eax
  00895	ff d3		 call	 ebx

; 167  : 	this->m_DivLife = GetPrivateProfileInt("Power", "DivLife", 200, filename);

  00897	57		 push	 edi
  00898	68 c8 00 00 00	 push	 200			; 000000c8H
  0089d	68 00 00 00 00	 push	 OFFSET ??_C@_07HLKCCONK@DivLife?$AA@
  008a2	68 00 00 00 00	 push	 OFFSET ??_C@_05PMCMDMKN@Power?$AA@
  008a7	89 46 04	 mov	 DWORD PTR [esi+4], eax
  008aa	ff d3		 call	 ebx

; 168  : 	this->m_DivExellentPercent = GetPrivateProfileInt("Power", "DivExellentPercent", 20, filename);

  008ac	57		 push	 edi
  008ad	6a 14		 push	 20			; 00000014H
  008af	68 00 00 00 00	 push	 OFFSET ??_C@_0BD@CDJCBAGJ@DivExellentPercent?$AA@
  008b4	68 00 00 00 00	 push	 OFFSET ??_C@_05PMCMDMKN@Power?$AA@
  008b9	89 46 08	 mov	 DWORD PTR [esi+8], eax
  008bc	ff d3		 call	 ebx

; 169  : 	this->m_DivCriticalPercent = GetPrivateProfileInt("Power", "DivCriticalPercent", 20, filename);

  008be	57		 push	 edi
  008bf	6a 14		 push	 20			; 00000014H
  008c1	68 00 00 00 00	 push	 OFFSET ??_C@_0BD@EFPIOGLG@DivCriticalPercent?$AA@
  008c6	68 00 00 00 00	 push	 OFFSET ??_C@_05PMCMDMKN@Power?$AA@
  008cb	89 46 0c	 mov	 DWORD PTR [esi+12], eax
  008ce	ff d3		 call	 ebx
  008d0	5f		 pop	 edi
  008d1	89 46 10	 mov	 DWORD PTR [esi+16], eax
  008d4	5e		 pop	 esi
  008d5	5b		 pop	 ebx

; 170  : }

  008d6	5d		 pop	 ebp
  008d7	c2 04 00	 ret	 4
?Read@CAchievements@@QAEXPAD@Z ENDP			; CAchievements::Read
_TEXT	ENDS
PUBLIC	__$ArrayPad$
PUBLIC	?GDPlayerLoad@CAchievements@@QAEXH@Z		; CAchievements::GDPlayerLoad
EXTRN	?Send@DBSockMng@@QAEHPADH@Z:PROC		; DBSockMng::Send
EXTRN	?cDBSMng@@3VDBSockMng@@A:BYTE			; cDBSMng
EXTRN	?gObj@@3PAUOBJECTSTRUCT@@A:DWORD		; gObj
EXTRN	___security_cookie:DWORD
EXTRN	@__security_check_cookie@4:PROC
; Function compile flags: /Ogtp
;	COMDAT ?GDPlayerLoad@CAchievements@@QAEXH@Z
_TEXT	SEGMENT
_pMsg$ = -24						; size = 20
__$ArrayPad$ = -4					; size = 4
_aIndex$ = 8						; size = 4
?GDPlayerLoad@CAchievements@@QAEXH@Z PROC		; CAchievements::GDPlayerLoad, COMDAT
; _this$ = ecx

; 173  : {

  00000	55		 push	 ebp
  00001	8b ec		 mov	 ebp, esp
  00003	83 ec 18	 sub	 esp, 24			; 00000018H
  00006	a1 00 00 00 00	 mov	 eax, DWORD PTR ___security_cookie
  0000b	33 c5		 xor	 eax, ebp
  0000d	89 45 fc	 mov	 DWORD PTR __$ArrayPad$[ebp], eax

; 174  : 	if(!this->bEnable)

  00010	80 79 14 00	 cmp	 BYTE PTR [ecx+20], 0
  00014	8b 55 08	 mov	 edx, DWORD PTR _aIndex$[ebp]
  00017	74 53		 je	 SHORT $LN3@GDPlayerLo

; 175  : 	{
; 176  : 		return;
; 177  : 	}
; 178  : 
; 179  : 	if(!OBJMAX_RANGE(aIndex))

  00019	85 d2		 test	 edx, edx
  0001b	78 4f		 js	 SHORT $LN3@GDPlayerLo
  0001d	33 c0		 xor	 eax, eax
  0001f	81 fa 97 3a 00
	00		 cmp	 edx, 14999		; 00003a97H
  00025	0f 9e c0	 setle	 al
  00028	85 c0		 test	 eax, eax
  0002a	74 40		 je	 SHORT $LN3@GDPlayerLo

; 180  : 	{
; 181  : 		return;
; 182  : 	}
; 183  : 
; 184  : 	LPOBJ lpUser = &gObj[aIndex];

  0002c	8b c2		 mov	 eax, edx
  0002e	69 c0 50 2b 00
	00		 imul	 eax, 11088		; 00002b50H
  00034	03 05 00 00 00
	00		 add	 eax, DWORD PTR ?gObj@@3PAUOBJECTSTRUCT@@A ; gObj

; 185  : 	PMSG_GDREQ_ACH_LOAD pMsg;
; 186  : 	pMsg.h.set((LPBYTE)&pMsg, 0xEA, 0x0D, sizeof(pMsg));

  0003a	c7 45 e8 c1 14
	ea 0d		 mov	 DWORD PTR _pMsg$[ebp], 233444545 ; 0dea14c1H

; 187  : 	pMsg.aIndex = aIndex;

  00041	89 55 ec	 mov	 DWORD PTR _pMsg$[ebp+4], edx

; 188  : 	pMsg.szName[10] = 0;

  00044	c6 45 fa 00	 mov	 BYTE PTR _pMsg$[ebp+18], 0

; 189  : 	memcpy(pMsg.szName, lpUser->Name, sizeof(pMsg.szName)-1);

  00048	8b 48 77	 mov	 ecx, DWORD PTR [eax+119]
  0004b	89 4d f0	 mov	 DWORD PTR _pMsg$[ebp+8], ecx
  0004e	8b 50 7b	 mov	 edx, DWORD PTR [eax+123]

; 190  : 	cDBSMng.Send((char*)&pMsg, sizeof(pMsg));

  00051	6a 14		 push	 20			; 00000014H
  00053	8d 4d e8	 lea	 ecx, DWORD PTR _pMsg$[ebp]
  00056	89 55 f4	 mov	 DWORD PTR _pMsg$[ebp+12], edx
  00059	66 8b 40 7f	 mov	 ax, WORD PTR [eax+127]
  0005d	51		 push	 ecx
  0005e	b9 00 00 00 00	 mov	 ecx, OFFSET ?cDBSMng@@3VDBSockMng@@A ; cDBSMng
  00063	66 89 45 f8	 mov	 WORD PTR _pMsg$[ebp+16], ax
  00067	e8 00 00 00 00	 call	 ?Send@DBSockMng@@QAEHPADH@Z ; DBSockMng::Send
$LN3@GDPlayerLo:

; 191  : }

  0006c	8b 4d fc	 mov	 ecx, DWORD PTR __$ArrayPad$[ebp]
  0006f	33 cd		 xor	 ecx, ebp
  00071	e8 00 00 00 00	 call	 @__security_check_cookie@4
  00076	8b e5		 mov	 esp, ebp
  00078	5d		 pop	 ebp
  00079	c2 04 00	 ret	 4
?GDPlayerLoad@CAchievements@@QAEXH@Z ENDP		; CAchievements::GDPlayerLoad
_TEXT	ENDS
PUBLIC	__$ArrayPad$
PUBLIC	?GDPlayerSave@CAchievements@@QAEXH@Z		; CAchievements::GDPlayerSave
; Function compile flags: /Ogtp
;	COMDAT ?GDPlayerSave@CAchievements@@QAEXH@Z
_TEXT	SEGMENT
_pMsg$ = -220						; size = 216
__$ArrayPad$ = -4					; size = 4
_aIndex$ = 8						; size = 4
?GDPlayerSave@CAchievements@@QAEXH@Z PROC		; CAchievements::GDPlayerSave, COMDAT
; _this$ = ecx

; 214  : {

  00000	55		 push	 ebp
  00001	8b ec		 mov	 ebp, esp
  00003	81 ec dc 00 00
	00		 sub	 esp, 220		; 000000dcH
  00009	a1 00 00 00 00	 mov	 eax, DWORD PTR ___security_cookie
  0000e	33 c5		 xor	 eax, ebp
  00010	89 45 fc	 mov	 DWORD PTR __$ArrayPad$[ebp], eax

; 215  : 	if(!this->bEnable)

  00013	80 79 14 00	 cmp	 BYTE PTR [ecx+20], 0
  00017	8b 45 08	 mov	 eax, DWORD PTR _aIndex$[ebp]
  0001a	0f 84 82 00 00
	00		 je	 $LN4@GDPlayerSa

; 216  : 	{
; 217  : 		return;
; 218  : 	}
; 219  : 
; 220  : 	if(!OBJMAX_RANGE(aIndex))

  00020	85 c0		 test	 eax, eax
  00022	78 7e		 js	 SHORT $LN4@GDPlayerSa
  00024	33 c9		 xor	 ecx, ecx
  00026	3d 97 3a 00 00	 cmp	 eax, 14999		; 00003a97H
  0002b	0f 9e c1	 setle	 cl
  0002e	85 c9		 test	 ecx, ecx
  00030	74 70		 je	 SHORT $LN4@GDPlayerSa

; 221  : 	{
; 222  : 		return;
; 223  : 	}
; 224  : 
; 225  : 
; 226  : 	LPOBJ lpUser = &gObj[aIndex];

  00032	69 c0 50 2b 00
	00		 imul	 eax, 11088		; 00002b50H
  00038	03 05 00 00 00
	00		 add	 eax, DWORD PTR ?gObj@@3PAUOBJECTSTRUCT@@A ; gObj

; 227  : 
; 228  : 	if(!lpUser->ach.bLoaded)

  0003e	80 b8 20 29 00
	00 00		 cmp	 BYTE PTR [eax+10528], 0
  00045	74 5b		 je	 SHORT $LN4@GDPlayerSa

; 229  : 	{
; 230  : 		return;
; 231  : 	}
; 232  : 
; 233  : 	PMSG_GDREQ_ACH_SAVE pMsg;
; 234  : 	pMsg.h.set((LPBYTE)&pMsg, 0xEA, 0x0E, sizeof(pMsg));

  00047	c7 85 24 ff ff
	ff c1 d8 ea 0e	 mov	 DWORD PTR _pMsg$[ebp], 250271937 ; 0eead8c1H

; 235  : 	pMsg.szName[10] = 0;

  00051	c6 85 32 ff ff
	ff 00		 mov	 BYTE PTR _pMsg$[ebp+14], 0

; 236  : 	memcpy(pMsg.szName, lpUser->Name, sizeof(pMsg.szName)-1);

  00058	8b 48 77	 mov	 ecx, DWORD PTR [eax+119]
  0005b	89 8d 28 ff ff
	ff		 mov	 DWORD PTR _pMsg$[ebp+4], ecx
  00061	8b 50 7b	 mov	 edx, DWORD PTR [eax+123]
  00064	56		 push	 esi
  00065	89 95 2c ff ff
	ff		 mov	 DWORD PTR _pMsg$[ebp+8], edx
  0006b	66 8b 48 7f	 mov	 cx, WORD PTR [eax+127]
  0006f	57		 push	 edi
  00070	66 89 8d 30 ff
	ff ff		 mov	 WORD PTR _pMsg$[ebp+12], cx

; 237  : 	memcpy(&pMsg.usr, &lpUser->ach.mission, sizeof(pMsg.usr));

  00077	8d b0 30 29 00
	00		 lea	 esi, DWORD PTR [eax+10544]
  0007d	b9 32 00 00 00	 mov	 ecx, 50			; 00000032H
  00082	8d bd 34 ff ff
	ff		 lea	 edi, DWORD PTR _pMsg$[ebp+16]

; 238  : 	cDBSMng.Send((char*)&pMsg, sizeof(pMsg));

  00088	68 d8 00 00 00	 push	 216			; 000000d8H
  0008d	8d 95 24 ff ff
	ff		 lea	 edx, DWORD PTR _pMsg$[ebp]
  00093	f3 a5		 rep movsd
  00095	52		 push	 edx
  00096	b9 00 00 00 00	 mov	 ecx, OFFSET ?cDBSMng@@3VDBSockMng@@A ; cDBSMng
  0009b	e8 00 00 00 00	 call	 ?Send@DBSockMng@@QAEHPADH@Z ; DBSockMng::Send
  000a0	5f		 pop	 edi
  000a1	5e		 pop	 esi
$LN4@GDPlayerSa:

; 239  : }

  000a2	8b 4d fc	 mov	 ecx, DWORD PTR __$ArrayPad$[ebp]
  000a5	33 cd		 xor	 ecx, ebp
  000a7	e8 00 00 00 00	 call	 @__security_check_cookie@4
  000ac	8b e5		 mov	 esp, ebp
  000ae	5d		 pop	 ebp
  000af	c2 04 00	 ret	 4
?GDPlayerSave@CAchievements@@QAEXH@Z ENDP		; CAchievements::GDPlayerSave
_TEXT	ENDS
PUBLIC	__$ArrayPad$
PUBLIC	?GCSettingsData@CAchievements@@QAEXH@Z		; CAchievements::GCSettingsData
EXTRN	?DataSend@@YAHHPAEK@Z:PROC			; DataSend
; Function compile flags: /Ogtp
;	COMDAT ?GCSettingsData@CAchievements@@QAEXH@Z
_TEXT	SEGMENT
_pMsg$ = -208						; size = 204
__$ArrayPad$ = -4					; size = 4
_aIndex$ = 8						; size = 4
?GCSettingsData@CAchievements@@QAEXH@Z PROC		; CAchievements::GCSettingsData, COMDAT
; _this$ = ecx

; 242  : {

  00000	55		 push	 ebp
  00001	8b ec		 mov	 ebp, esp
  00003	81 ec d0 00 00
	00		 sub	 esp, 208		; 000000d0H
  00009	a1 00 00 00 00	 mov	 eax, DWORD PTR ___security_cookie
  0000e	33 c5		 xor	 eax, ebp
  00010	89 45 fc	 mov	 DWORD PTR __$ArrayPad$[ebp], eax

; 243  : 	if(!this->bEnable)

  00013	80 79 14 00	 cmp	 BYTE PTR [ecx+20], 0
  00017	74 48		 je	 SHORT $LN3@GCSettings

; 244  : 	{
; 245  : 		return;
; 246  : 	}
; 247  : 
; 248  : 	if(!OBJMAX_RANGE(aIndex))

  00019	8b 45 08	 mov	 eax, DWORD PTR _aIndex$[ebp]
  0001c	85 c0		 test	 eax, eax
  0001e	78 41		 js	 SHORT $LN3@GCSettings
  00020	33 d2		 xor	 edx, edx
  00022	3d 97 3a 00 00	 cmp	 eax, 14999		; 00003a97H
  00027	0f 9e c2	 setle	 dl
  0002a	85 d2		 test	 edx, edx
  0002c	74 33		 je	 SHORT $LN3@GCSettings

; 249  : 	{
; 250  : 		return;
; 251  : 	}
; 252  : 
; 253  : 	PMSG_GC_ACH_SETTINGS_DATA pMsg;
; 254  : 	pMsg.h.set((LPBYTE)&pMsg, 0xFB, 0x90, sizeof(pMsg));
; 255  : 	memcpy(&pMsg.cfg, &this->m_config, sizeof(this->m_config));

  0002e	56		 push	 esi
  0002f	57		 push	 edi
  00030	8d 71 18	 lea	 esi, DWORD PTR [ecx+24]
  00033	c7 85 30 ff ff
	ff c1 cc fb 90	 mov	 DWORD PTR _pMsg$[ebp], -1862546239 ; 90fbccc1H
  0003d	b9 32 00 00 00	 mov	 ecx, 50			; 00000032H
  00042	8d bd 34 ff ff
	ff		 lea	 edi, DWORD PTR _pMsg$[ebp+4]
  00048	f3 a5		 rep movsd

; 256  : 
; 257  : 	DataSend(aIndex, (LPBYTE)&pMsg, sizeof(pMsg));

  0004a	68 cc 00 00 00	 push	 204			; 000000ccH
  0004f	8d 8d 30 ff ff
	ff		 lea	 ecx, DWORD PTR _pMsg$[ebp]
  00055	51		 push	 ecx
  00056	50		 push	 eax
  00057	e8 00 00 00 00	 call	 ?DataSend@@YAHHPAEK@Z	; DataSend
  0005c	83 c4 0c	 add	 esp, 12			; 0000000cH
  0005f	5f		 pop	 edi
  00060	5e		 pop	 esi
$LN3@GCSettings:

; 258  : }

  00061	8b 4d fc	 mov	 ecx, DWORD PTR __$ArrayPad$[ebp]
  00064	33 cd		 xor	 ecx, ebp
  00066	e8 00 00 00 00	 call	 @__security_check_cookie@4
  0006b	8b e5		 mov	 esp, ebp
  0006d	5d		 pop	 ebp
  0006e	c2 04 00	 ret	 4
?GCSettingsData@CAchievements@@QAEXH@Z ENDP		; CAchievements::GCSettingsData
_TEXT	ENDS
PUBLIC	__$ArrayPad$
PUBLIC	?GCPlayerData@CAchievements@@QAEXH_N@Z		; CAchievements::GCPlayerData
; Function compile flags: /Ogtp
;	COMDAT ?GCPlayerData@CAchievements@@QAEXH_N@Z
_TEXT	SEGMENT
_pMsg$ = -212						; size = 208
__$ArrayPad$ = -4					; size = 4
_aIndex$ = 8						; size = 4
_bWin$ = 12						; size = 1
?GCPlayerData@CAchievements@@QAEXH_N@Z PROC		; CAchievements::GCPlayerData, COMDAT
; _this$ = ecx

; 261  : {

  00000	55		 push	 ebp
  00001	8b ec		 mov	 ebp, esp
  00003	81 ec d4 00 00
	00		 sub	 esp, 212		; 000000d4H
  00009	a1 00 00 00 00	 mov	 eax, DWORD PTR ___security_cookie
  0000e	33 c5		 xor	 eax, ebp
  00010	89 45 fc	 mov	 DWORD PTR __$ArrayPad$[ebp], eax
  00013	8b 55 08	 mov	 edx, DWORD PTR _aIndex$[ebp]

; 262  : 	if(!OBJMAX_RANGE(aIndex))

  00016	85 d2		 test	 edx, edx
  00018	78 5c		 js	 SHORT $LN2@GCPlayerDa
  0001a	33 c0		 xor	 eax, eax
  0001c	81 fa 97 3a 00
	00		 cmp	 edx, 14999		; 00003a97H
  00022	0f 9e c0	 setle	 al
  00025	85 c0		 test	 eax, eax
  00027	74 4d		 je	 SHORT $LN2@GCPlayerDa

; 263  : 	{
; 264  : 		return;
; 265  : 	}
; 266  : 
; 267  : 	LPOBJ lpUser = &gObj[aIndex];
; 268  : 
; 269  : 	PMSG_GC_ACH_PLAYER_DATA pMsg;
; 270  : 	pMsg.h.set((LPBYTE)&pMsg, 0xFB, 0x91, sizeof(pMsg));
; 271  : 	pMsg.bWinOpen = bWin;

  00029	8a 4d 0c	 mov	 cl, BYTE PTR _bWin$[ebp]
  0002c	56		 push	 esi
  0002d	8b f2		 mov	 esi, edx
  0002f	69 f6 50 2b 00
	00		 imul	 esi, 11088		; 00002b50H
  00035	03 35 00 00 00
	00		 add	 esi, DWORD PTR ?gObj@@3PAUOBJECTSTRUCT@@A ; gObj
  0003b	57		 push	 edi

; 272  : 	memcpy(&pMsg.usr, &lpUser->ach.mission, sizeof(pMsg.usr));
; 273  : 	DataSend(aIndex, (LPBYTE)&pMsg, sizeof(pMsg));

  0003c	68 d0 00 00 00	 push	 208			; 000000d0H
  00041	8d 85 2c ff ff
	ff		 lea	 eax, DWORD PTR _pMsg$[ebp]
  00047	88 8d 30 ff ff
	ff		 mov	 BYTE PTR _pMsg$[ebp+4], cl
  0004d	50		 push	 eax
  0004e	c7 85 2c ff ff
	ff c1 d0 fb 91	 mov	 DWORD PTR _pMsg$[ebp], -1845767999 ; 91fbd0c1H
  00058	81 c6 30 29 00
	00		 add	 esi, 10544		; 00002930H
  0005e	b9 32 00 00 00	 mov	 ecx, 50			; 00000032H
  00063	8d bd 34 ff ff
	ff		 lea	 edi, DWORD PTR _pMsg$[ebp+8]
  00069	52		 push	 edx
  0006a	f3 a5		 rep movsd
  0006c	e8 00 00 00 00	 call	 ?DataSend@@YAHHPAEK@Z	; DataSend
  00071	83 c4 0c	 add	 esp, 12			; 0000000cH
  00074	5f		 pop	 edi
  00075	5e		 pop	 esi
$LN2@GCPlayerDa:

; 274  : }

  00076	8b 4d fc	 mov	 ecx, DWORD PTR __$ArrayPad$[ebp]
  00079	33 cd		 xor	 ecx, ebp
  0007b	e8 00 00 00 00	 call	 @__security_check_cookie@4
  00080	8b e5		 mov	 esp, ebp
  00082	5d		 pop	 ebp
  00083	c2 08 00	 ret	 8
?GCPlayerData@CAchievements@@QAEXH_N@Z ENDP		; CAchievements::GCPlayerData
_TEXT	ENDS
PUBLIC	?CGWindowOpen@CAchievements@@QAEXPAUPMSG_CG_ACH_WINOPEN@@H@Z ; CAchievements::CGWindowOpen
; Function compile flags: /Ogtp
;	COMDAT ?CGWindowOpen@CAchievements@@QAEXPAUPMSG_CG_ACH_WINOPEN@@H@Z
_TEXT	SEGMENT
_aRecv$ = 8						; size = 4
_aIndex$ = 12						; size = 4
?CGWindowOpen@CAchievements@@QAEXPAUPMSG_CG_ACH_WINOPEN@@H@Z PROC ; CAchievements::CGWindowOpen, COMDAT
; _this$ = ecx

; 277  : {

  00000	55		 push	 ebp
  00001	8b ec		 mov	 ebp, esp

; 278  : 	if(!this->bEnable)

  00003	80 79 14 00	 cmp	 BYTE PTR [ecx+20], 0
  00007	74 0b		 je	 SHORT $LN2@CGWindowOp

; 279  : 	{
; 280  : 		return;
; 281  : 	}
; 282  : 
; 283  : 	this->GCPlayerData(aIndex, true);

  00009	8b 45 0c	 mov	 eax, DWORD PTR _aIndex$[ebp]
  0000c	6a 01		 push	 1
  0000e	50		 push	 eax
  0000f	e8 00 00 00 00	 call	 ?GCPlayerData@CAchievements@@QAEXH_N@Z ; CAchievements::GCPlayerData
$LN2@CGWindowOp:

; 284  : }

  00014	5d		 pop	 ebp
  00015	c2 08 00	 ret	 8
?CGWindowOpen@CAchievements@@QAEXPAUPMSG_CG_ACH_WINOPEN@@H@Z ENDP ; CAchievements::CGWindowOpen
_TEXT	ENDS
PUBLIC	??_C@_00CNPNBAHC@?$AA@				; `string'
PUBLIC	??_C@_0BK@IPFGILAF@?$FLAchievements?$FN?3?5?$CL?$CFd?5WCoin?$AA@ ; `string'
PUBLIC	??_C@_0BM@GCMOIFFL@?$FLAchievements?$FN?3?5?$CL?$CFd?5Credits?$AA@ ; `string'
PUBLIC	??_C@_0BL@FGCKJPKI@?$FLAchievements?$FN?3?5?$CL?$CFd?5Goblin?$AA@ ; `string'
PUBLIC	__$ArrayPad$
PUBLIC	?PlayerReward@CAchievements@@QAEXHHHH@Z		; CAchievements::PlayerReward
EXTRN	?ZtUserDataSend@@YAXH@Z:PROC			; ZtUserDataSend
EXTRN	?MessageSendEx@@YAXHHPAD0ZZ:PROC		; MessageSendEx
EXTRN	_sprintf:PROC
EXTRN	?GDSaveUserInfo@GameShop@@QAEXH@Z:PROC		; GameShop::GDSaveUserInfo
EXTRN	?gGameShop@@3VGameShop@@A:BYTE			; gGameShop
EXTRN	?CheckUser@CZtLicense@@QAE_NH@Z:PROC		; CZtLicense::CheckUser
EXTRN	?g_ZtLicense@@3VCZtLicense@@A:BYTE		; g_ZtLicense
EXTRN	__fltused:DWORD
;	COMDAT ??_C@_00CNPNBAHC@?$AA@
CONST	SEGMENT
??_C@_00CNPNBAHC@?$AA@ DB 00H				; `string'
CONST	ENDS
;	COMDAT ??_C@_0BK@IPFGILAF@?$FLAchievements?$FN?3?5?$CL?$CFd?5WCoin?$AA@
CONST	SEGMENT
??_C@_0BK@IPFGILAF@?$FLAchievements?$FN?3?5?$CL?$CFd?5WCoin?$AA@ DB '[Ach'
	DB	'ievements]: +%d WCoin', 00H			; `string'
CONST	ENDS
;	COMDAT ??_C@_0BM@GCMOIFFL@?$FLAchievements?$FN?3?5?$CL?$CFd?5Credits?$AA@
CONST	SEGMENT
??_C@_0BM@GCMOIFFL@?$FLAchievements?$FN?3?5?$CL?$CFd?5Credits?$AA@ DB '[A'
	DB	'chievements]: +%d Credits', 00H		; `string'
CONST	ENDS
;	COMDAT ??_C@_0BL@FGCKJPKI@?$FLAchievements?$FN?3?5?$CL?$CFd?5Goblin?$AA@
CONST	SEGMENT
??_C@_0BL@FGCKJPKI@?$FLAchievements?$FN?3?5?$CL?$CFd?5Goblin?$AA@ DB '[Ac'
	DB	'hievements]: +%d Goblin', 00H		; `string'
; Function compile flags: /Ogtp
CONST	ENDS
;	COMDAT ?PlayerReward@CAchievements@@QAEXHHHH@Z
_TEXT	SEGMENT
_szReward$211168 = -68					; size = 64
__$ArrayPad$ = -4					; size = 4
_aIndex$ = 8						; size = 4
_mission_need$ = 12					; size = 4
_mission$ = 16						; size = 4
_ireward$ = 20						; size = 4
?PlayerReward@CAchievements@@QAEXHHHH@Z PROC		; CAchievements::PlayerReward, COMDAT
; _this$ = ecx

; 287  : {

  00000	55		 push	 ebp
  00001	8b ec		 mov	 ebp, esp
  00003	83 ec 44	 sub	 esp, 68			; 00000044H
  00006	a1 00 00 00 00	 mov	 eax, DWORD PTR ___security_cookie
  0000b	33 c5		 xor	 eax, ebp
  0000d	89 45 fc	 mov	 DWORD PTR __$ArrayPad$[ebp], eax
  00010	57		 push	 edi
  00011	8b 7d 08	 mov	 edi, DWORD PTR _aIndex$[ebp]

; 288  : 	if(!OBJMAX_RANGE(aIndex))

  00014	85 ff		 test	 edi, edi
  00016	0f 88 cd 01 00
	00		 js	 $LN6@PlayerRewa
  0001c	33 c0		 xor	 eax, eax
  0001e	81 ff 97 3a 00
	00		 cmp	 edi, 14999		; 00003a97H
  00024	0f 9e c0	 setle	 al
  00027	85 c0		 test	 eax, eax
  00029	0f 84 ba 01 00
	00		 je	 $LN6@PlayerRewa

; 289  : 	{
; 290  : 		return;
; 291  : 	}
; 292  : 
; 293  : 	LPOBJ lpUser = &gObj[aIndex];
; 294  : 
; 295  : 	if(mission >= mission_need)

  0002f	8b 45 10	 mov	 eax, DWORD PTR _mission$[ebp]
  00032	56		 push	 esi
  00033	8b f7		 mov	 esi, edi
  00035	69 f6 50 2b 00
	00		 imul	 esi, 11088		; 00002b50H
  0003b	03 35 00 00 00
	00		 add	 esi, DWORD PTR ?gObj@@3PAUOBJECTSTRUCT@@A ; gObj
  00041	3b 45 0c	 cmp	 eax, DWORD PTR _mission_need$[ebp]
  00044	0f 8c 9e 01 00
	00		 jl	 $LN13@PlayerRewa

; 296  : 	{
; 297  : 		char szReward[64];
; 298  : #if(GAMESERVER_ACHIVEMENTS==EXGAME_SERVER)
; 299  : 		if(ireward > 0)
; 300  : 		{
; 301  : 			lpUser->Bonus += ireward;
; 302  : 			g_ZtUser.UpdateCharEx(aIndex);
; 303  : 			sprintf(szReward, "[Achievements]: +%d Bonus", ireward);
; 304  : 			MessageSendUser(aIndex, 6, "", szReward);
; 305  : 		}
; 306  : #endif
; 307  : #if(GAMESERVER_ACHIVEMENTS==ZTTEAM_SERVER)
; 308  : 		if(ireward > 0)

  0004a	53		 push	 ebx
  0004b	8b 5d 14	 mov	 ebx, DWORD PTR _ireward$[ebp]
  0004e	85 db		 test	 ebx, ebx
  00050	0f 8e 91 01 00
	00		 jle	 $LN14@PlayerRewa

; 309  : 		{
; 310  : 			if(g_ZtLicense.CheckUser(eZtUB::Gredy) || g_ZtLicense.CheckUser(eZtUB::Gredy2) || g_ZtLicense.CheckUser(eZtUB::GredyLocal) || 
; 311  : 				g_ZtLicense.CheckUser(eZtUB::AlterMU) || g_ZtLicense.CheckUser(eZtUB::Artem) || g_ZtLicense.CheckUser(eZtUB::Artem2) ||
; 312  : 				g_ZtLicense.CheckUser(eZtUB::RevoMU) || g_ZtLicense.CheckUser(eZtUB::GloryMU) || g_ZtLicense.CheckUser(eZtUB::mu4you) || g_ZtLicense.CheckUser(eZtUB::Escalate) ||
; 313  : 				g_ZtLicense.CheckUser(eZtUB::eternalmu) || g_ZtLicense.CheckUser(eZtUB::NSGames))

  00056	6a 20		 push	 32			; 00000020H
  00058	b9 00 00 00 00	 mov	 ecx, OFFSET ?g_ZtLicense@@3VCZtLicense@@A ; g_ZtLicense
  0005d	e8 00 00 00 00	 call	 ?CheckUser@CZtLicense@@QAE_NH@Z ; CZtLicense::CheckUser
  00062	84 c0		 test	 al, al
  00064	0f 85 37 01 00
	00		 jne	 $LN4@PlayerRewa
  0006a	6a 22		 push	 34			; 00000022H
  0006c	b9 00 00 00 00	 mov	 ecx, OFFSET ?g_ZtLicense@@3VCZtLicense@@A ; g_ZtLicense
  00071	e8 00 00 00 00	 call	 ?CheckUser@CZtLicense@@QAE_NH@Z ; CZtLicense::CheckUser
  00076	84 c0		 test	 al, al
  00078	0f 85 23 01 00
	00		 jne	 $LN4@PlayerRewa
  0007e	6a 21		 push	 33			; 00000021H
  00080	b9 00 00 00 00	 mov	 ecx, OFFSET ?g_ZtLicense@@3VCZtLicense@@A ; g_ZtLicense
  00085	e8 00 00 00 00	 call	 ?CheckUser@CZtLicense@@QAE_NH@Z ; CZtLicense::CheckUser
  0008a	84 c0		 test	 al, al
  0008c	0f 85 0f 01 00
	00		 jne	 $LN4@PlayerRewa
  00092	6a 3e		 push	 62			; 0000003eH
  00094	b9 00 00 00 00	 mov	 ecx, OFFSET ?g_ZtLicense@@3VCZtLicense@@A ; g_ZtLicense
  00099	e8 00 00 00 00	 call	 ?CheckUser@CZtLicense@@QAE_NH@Z ; CZtLicense::CheckUser
  0009e	84 c0		 test	 al, al
  000a0	0f 85 fb 00 00
	00		 jne	 $LN4@PlayerRewa
  000a6	6a 30		 push	 48			; 00000030H
  000a8	b9 00 00 00 00	 mov	 ecx, OFFSET ?g_ZtLicense@@3VCZtLicense@@A ; g_ZtLicense
  000ad	e8 00 00 00 00	 call	 ?CheckUser@CZtLicense@@QAE_NH@Z ; CZtLicense::CheckUser
  000b2	84 c0		 test	 al, al
  000b4	0f 85 e7 00 00
	00		 jne	 $LN4@PlayerRewa
  000ba	6a 31		 push	 49			; 00000031H
  000bc	b9 00 00 00 00	 mov	 ecx, OFFSET ?g_ZtLicense@@3VCZtLicense@@A ; g_ZtLicense
  000c1	e8 00 00 00 00	 call	 ?CheckUser@CZtLicense@@QAE_NH@Z ; CZtLicense::CheckUser
  000c6	84 c0		 test	 al, al
  000c8	0f 85 d3 00 00
	00		 jne	 $LN4@PlayerRewa
  000ce	6a 43		 push	 67			; 00000043H
  000d0	b9 00 00 00 00	 mov	 ecx, OFFSET ?g_ZtLicense@@3VCZtLicense@@A ; g_ZtLicense
  000d5	e8 00 00 00 00	 call	 ?CheckUser@CZtLicense@@QAE_NH@Z ; CZtLicense::CheckUser
  000da	84 c0		 test	 al, al
  000dc	0f 85 bf 00 00
	00		 jne	 $LN4@PlayerRewa
  000e2	6a 46		 push	 70			; 00000046H
  000e4	b9 00 00 00 00	 mov	 ecx, OFFSET ?g_ZtLicense@@3VCZtLicense@@A ; g_ZtLicense
  000e9	e8 00 00 00 00	 call	 ?CheckUser@CZtLicense@@QAE_NH@Z ; CZtLicense::CheckUser
  000ee	84 c0		 test	 al, al
  000f0	0f 85 ab 00 00
	00		 jne	 $LN4@PlayerRewa
  000f6	6a 4e		 push	 78			; 0000004eH
  000f8	b9 00 00 00 00	 mov	 ecx, OFFSET ?g_ZtLicense@@3VCZtLicense@@A ; g_ZtLicense
  000fd	e8 00 00 00 00	 call	 ?CheckUser@CZtLicense@@QAE_NH@Z ; CZtLicense::CheckUser
  00102	84 c0		 test	 al, al
  00104	0f 85 97 00 00
	00		 jne	 $LN4@PlayerRewa
  0010a	6a 40		 push	 64			; 00000040H
  0010c	b9 00 00 00 00	 mov	 ecx, OFFSET ?g_ZtLicense@@3VCZtLicense@@A ; g_ZtLicense
  00111	e8 00 00 00 00	 call	 ?CheckUser@CZtLicense@@QAE_NH@Z ; CZtLicense::CheckUser
  00116	84 c0		 test	 al, al
  00118	0f 85 83 00 00
	00		 jne	 $LN4@PlayerRewa
  0011e	6a 4f		 push	 79			; 0000004fH
  00120	b9 00 00 00 00	 mov	 ecx, OFFSET ?g_ZtLicense@@3VCZtLicense@@A ; g_ZtLicense
  00125	e8 00 00 00 00	 call	 ?CheckUser@CZtLicense@@QAE_NH@Z ; CZtLicense::CheckUser
  0012a	84 c0		 test	 al, al
  0012c	75 73		 jne	 SHORT $LN4@PlayerRewa
  0012e	6a 51		 push	 81			; 00000051H
  00130	b9 00 00 00 00	 mov	 ecx, OFFSET ?g_ZtLicense@@3VCZtLicense@@A ; g_ZtLicense
  00135	e8 00 00 00 00	 call	 ?CheckUser@CZtLicense@@QAE_NH@Z ; CZtLicense::CheckUser
  0013a	84 c0		 test	 al, al
  0013c	75 63		 jne	 SHORT $LN4@PlayerRewa

; 319  : 			}
; 320  : 			else if(g_ZtLicense.CheckUser(eZtUB::EpicMU))

  0013e	6a 3b		 push	 59			; 0000003bH
  00140	b9 00 00 00 00	 mov	 ecx, OFFSET ?g_ZtLicense@@3VCZtLicense@@A ; g_ZtLicense
  00145	e8 00 00 00 00	 call	 ?CheckUser@CZtLicense@@QAE_NH@Z ; CZtLicense::CheckUser
  0014a	84 c0		 test	 al, al
  0014c	74 2f		 je	 SHORT $LN2@PlayerRewa

; 321  : 			{
; 322  : 				lpUser->GameShop.GoblinPoint += ireward;

  0014e	db 45 14	 fild	 DWORD PTR _ireward$[ebp]

; 323  : 				gGameShop.GDSaveUserInfo(aIndex);

  00151	57		 push	 edi
  00152	b9 00 00 00 00	 mov	 ecx, OFFSET ?gGameShop@@3VGameShop@@A ; gGameShop
  00157	dc 86 08 23 00
	00		 fadd	 QWORD PTR [esi+8968]
  0015d	dd 9e 08 23 00
	00		 fstp	 QWORD PTR [esi+8968]
  00163	e8 00 00 00 00	 call	 ?GDSaveUserInfo@GameShop@@QAEXH@Z ; GameShop::GDSaveUserInfo

; 324  : 				sprintf(szReward, "[Achievements]: +%d Goblin", ireward);

  00168	53		 push	 ebx
  00169	8d 4d bc	 lea	 ecx, DWORD PTR _szReward$211168[ebp]
  0016c	68 00 00 00 00	 push	 OFFSET ??_C@_0BL@FGCKJPKI@?$FLAchievements?$FN?3?5?$CL?$CFd?5Goblin?$AA@
  00171	51		 push	 ecx
  00172	e8 00 00 00 00	 call	 _sprintf

; 325  : 				MessageSendEx(aIndex, 6, "", szReward);

  00177	8d 55 bc	 lea	 edx, DWORD PTR _szReward$211168[ebp]
  0017a	52		 push	 edx

; 326  : 			}
; 327  : 			else

  0017b	eb 51		 jmp	 SHORT $LN15@PlayerRewa
$LN2@PlayerRewa:

; 328  : 			{
; 329  : 				lpUser->ZtCred += ireward;

  0017d	db 45 14	 fild	 DWORD PTR _ireward$[ebp]

; 330  : 				sprintf(szReward, "[Achievements]: +%d Credits", ireward);

  00180	53		 push	 ebx
  00181	8d 45 bc	 lea	 eax, DWORD PTR _szReward$211168[ebp]
  00184	68 00 00 00 00	 push	 OFFSET ??_C@_0BM@GCMOIFFL@?$FLAchievements?$FN?3?5?$CL?$CFd?5Credits?$AA@
  00189	d8 86 a8 22 00
	00		 fadd	 DWORD PTR [esi+8872]
  0018f	50		 push	 eax
  00190	d9 9e a8 22 00
	00		 fstp	 DWORD PTR [esi+8872]
  00196	e8 00 00 00 00	 call	 _sprintf

; 331  : 				MessageSendEx(aIndex, 6, "", szReward);

  0019b	8d 4d bc	 lea	 ecx, DWORD PTR _szReward$211168[ebp]
  0019e	51		 push	 ecx
  0019f	eb 2d		 jmp	 SHORT $LN15@PlayerRewa
$LN4@PlayerRewa:

; 314  : 			{
; 315  : 				lpUser->GameShop.WCoinC += ireward;

  001a1	db 45 14	 fild	 DWORD PTR _ireward$[ebp]

; 316  : 				gGameShop.GDSaveUserInfo(aIndex);

  001a4	57		 push	 edi
  001a5	b9 00 00 00 00	 mov	 ecx, OFFSET ?gGameShop@@3VGameShop@@A ; gGameShop
  001aa	dc 86 00 23 00
	00		 fadd	 QWORD PTR [esi+8960]
  001b0	dd 9e 00 23 00
	00		 fstp	 QWORD PTR [esi+8960]
  001b6	e8 00 00 00 00	 call	 ?GDSaveUserInfo@GameShop@@QAEXH@Z ; GameShop::GDSaveUserInfo

; 317  : 				sprintf(szReward, "[Achievements]: +%d WCoin", ireward);

  001bb	53		 push	 ebx
  001bc	8d 55 bc	 lea	 edx, DWORD PTR _szReward$211168[ebp]
  001bf	68 00 00 00 00	 push	 OFFSET ??_C@_0BK@IPFGILAF@?$FLAchievements?$FN?3?5?$CL?$CFd?5WCoin?$AA@
  001c4	52		 push	 edx
  001c5	e8 00 00 00 00	 call	 _sprintf

; 318  : 				MessageSendEx(aIndex, 6, "", szReward);

  001ca	8d 45 bc	 lea	 eax, DWORD PTR _szReward$211168[ebp]
  001cd	50		 push	 eax
$LN15@PlayerRewa:
  001ce	68 00 00 00 00	 push	 OFFSET ??_C@_00CNPNBAHC@?$AA@
  001d3	6a 06		 push	 6
  001d5	57		 push	 edi
  001d6	e8 00 00 00 00	 call	 ?MessageSendEx@@YAXHHPAD0ZZ ; MessageSendEx
  001db	83 c4 1c	 add	 esp, 28			; 0000001cH

; 332  : 			}
; 333  : 
; 334  : 			ZtUserDataSend(aIndex);

  001de	57		 push	 edi
  001df	e8 00 00 00 00	 call	 ?ZtUserDataSend@@YAXH@Z	; ZtUserDataSend
  001e4	83 c4 04	 add	 esp, 4
$LN14@PlayerRewa:
  001e7	5b		 pop	 ebx
$LN13@PlayerRewa:
  001e8	5e		 pop	 esi
$LN6@PlayerRewa:

; 335  : 		}
; 336  : #endif
; 337  : 	}
; 338  : }

  001e9	8b 4d fc	 mov	 ecx, DWORD PTR __$ArrayPad$[ebp]
  001ec	33 cd		 xor	 ecx, ebp
  001ee	5f		 pop	 edi
  001ef	e8 00 00 00 00	 call	 @__security_check_cookie@4
  001f4	8b e5		 mov	 esp, ebp
  001f6	5d		 pop	 ebp
  001f7	c2 10 00	 ret	 16			; 00000010H
?PlayerReward@CAchievements@@QAEXHHHH@Z ENDP		; CAchievements::PlayerReward
_TEXT	ENDS
PUBLIC	?MonsterKill@CAchievements@@QAEXHH@Z		; CAchievements::MonsterKill
EXTRN	?gObjIsConnected@@YAHH@Z:PROC			; gObjIsConnected
; Function compile flags: /Ogtp
;	COMDAT ?MonsterKill@CAchievements@@QAEXHH@Z
_TEXT	SEGMENT
_aIndex$ = 8						; size = 4
_lpMonster$ = 12					; size = 4
_aMonsterIndex$ = 12					; size = 4
?MonsterKill@CAchievements@@QAEXHH@Z PROC		; CAchievements::MonsterKill, COMDAT
; _this$ = ecx

; 341  : {

  00000	55		 push	 ebp
  00001	8b ec		 mov	 ebp, esp
  00003	56		 push	 esi
  00004	8b f1		 mov	 esi, ecx

; 342  : 	if(!this->bEnable)

  00006	80 7e 14 00	 cmp	 BYTE PTR [esi+20], 0
  0000a	0f 84 cb 05 00
	00		 je	 $LN46@MonsterKil

; 343  : 	{
; 344  : 		return;
; 345  : 	}
; 346  : 
; 347  : 	if(!gObjIsConnected(aIndex) || !gObjIsConnected(aMonsterIndex))

  00010	53		 push	 ebx
  00011	8b 5d 08	 mov	 ebx, DWORD PTR _aIndex$[ebp]
  00014	53		 push	 ebx
  00015	e8 00 00 00 00	 call	 ?gObjIsConnected@@YAHH@Z ; gObjIsConnected
  0001a	83 c4 04	 add	 esp, 4
  0001d	85 c0		 test	 eax, eax
  0001f	0f 84 b5 05 00
	00		 je	 $LN66@MonsterKil
  00025	8b 45 0c	 mov	 eax, DWORD PTR _aMonsterIndex$[ebp]
  00028	50		 push	 eax
  00029	e8 00 00 00 00	 call	 ?gObjIsConnected@@YAHH@Z ; gObjIsConnected
  0002e	83 c4 04	 add	 esp, 4
  00031	85 c0		 test	 eax, eax
  00033	0f 84 a1 05 00
	00		 je	 $LN66@MonsterKil

; 348  : 	{
; 349  : 		return;
; 350  : 	}
; 351  : 
; 352  : 	LPOBJ lpUser = &gObj[aIndex];
; 353  : 	LPOBJ lpMonster = &gObj[aMonsterIndex];

  00039	8b 45 0c	 mov	 eax, DWORD PTR _aMonsterIndex$[ebp]
  0003c	8b 0d 00 00 00
	00		 mov	 ecx, DWORD PTR ?gObj@@3PAUOBJECTSTRUCT@@A ; gObj
  00042	69 c0 50 2b 00
	00		 imul	 eax, 11088		; 00002b50H
  00048	57		 push	 edi
  00049	8b fb		 mov	 edi, ebx
  0004b	69 ff 50 2b 00
	00		 imul	 edi, 11088		; 00002b50H
  00051	03 f9		 add	 edi, ecx
  00053	03 c1		 add	 eax, ecx

; 354  : 
; 355  : 	if(!lpUser->ach.bLoaded)

  00055	80 bf 20 29 00
	00 00		 cmp	 BYTE PTR [edi+10528], 0
  0005c	89 45 0c	 mov	 DWORD PTR _lpMonster$[ebp], eax
  0005f	0f 84 74 05 00
	00		 je	 $LN67@MonsterKil

; 356  : 	{
; 357  : 		return;
; 358  : 	}
; 359  : 
; 360  : 	//i1_MonsterKill
; 361  : 	if(this->m_config.i1_MonsterKill > lpUser->ach.mission.i1_MonsterKill)

  00065	8b 87 30 29 00
	00		 mov	 eax, DWORD PTR [edi+10544]
  0006b	39 46 18	 cmp	 DWORD PTR [esi+24], eax
  0006e	76 1b		 jbe	 SHORT $LN44@MonsterKil

; 362  : 	{
; 363  : 		lpUser->ach.mission.i1_MonsterKill++;

  00070	40		 inc	 eax
  00071	89 87 30 29 00
	00		 mov	 DWORD PTR [edi+10544], eax

; 364  : 		this->PlayerReward(aIndex, this->m_config.i1_MonsterKill, lpUser->ach.mission.i1_MonsterKill, this->m_reward.i1_MonsterKill);

  00077	8b 8e e0 00 00
	00		 mov	 ecx, DWORD PTR [esi+224]
  0007d	8b 56 18	 mov	 edx, DWORD PTR [esi+24]
  00080	51		 push	 ecx
  00081	50		 push	 eax
  00082	52		 push	 edx
  00083	53		 push	 ebx
  00084	8b ce		 mov	 ecx, esi
  00086	e8 00 00 00 00	 call	 ?PlayerReward@CAchievements@@QAEXHHHH@Z ; CAchievements::PlayerReward
$LN44@MonsterKil:

; 365  : 
; 366  : 	}
; 367  : 	//i2_GoldenKill
; 368  : 	if(this->m_config.i2_GoldenKill > lpUser->ach.mission.i2_GoldenKill)

  0008b	8b 8f 34 29 00
	00		 mov	 ecx, DWORD PTR [edi+10548]
  00091	39 4e 1c	 cmp	 DWORD PTR [esi+28], ecx
  00094	0f 86 cd 00 00
	00		 jbe	 $LN56@MonsterKil

; 369  : 	{
; 370  : 		if( lpMonster->Class == 78  || lpMonster->Class == 53  || lpMonster->Class == 79  || lpMonster->Class == 80  || lpMonster->Class == 82  || 
; 371  : 			lpMonster->Class == 502 || lpMonster->Class == 493 || lpMonster->Class == 494 || lpMonster->Class == 495 || lpMonster->Class == 496 || 
; 372  : 			lpMonster->Class == 497 || lpMonster->Class == 498 || lpMonster->Class == 499 || lpMonster->Class == 500 || lpMonster->Class == 501 ||
; 373  : 			lpMonster->Class == 42  ||	//??
; 374  : 			lpMonster->Class == 43	||	//GoldenBudgeDragon
; 375  : 			lpMonster->Class == 44	||	//Dragon
; 376  : 			lpMonster->Class == 54	||	//GoldenBudgeDragon
; 377  : 			lpMonster->Class == 81		//GoldenVepar
; 378  : 			)	

  0009a	8b 45 0c	 mov	 eax, DWORD PTR _lpMonster$[ebp]
  0009d	0f b7 80 b8 00
	00 00		 movzx	 eax, WORD PTR [eax+184]
  000a4	83 f8 4e	 cmp	 eax, 78			; 0000004eH
  000a7	0f 84 9d 00 00
	00		 je	 $LN41@MonsterKil
  000ad	83 f8 35	 cmp	 eax, 53			; 00000035H
  000b0	0f 84 94 00 00
	00		 je	 $LN41@MonsterKil
  000b6	83 f8 4f	 cmp	 eax, 79			; 0000004fH
  000b9	0f 84 8b 00 00
	00		 je	 $LN41@MonsterKil
  000bf	83 f8 50	 cmp	 eax, 80			; 00000050H
  000c2	0f 84 82 00 00
	00		 je	 $LN41@MonsterKil
  000c8	83 f8 52	 cmp	 eax, 82			; 00000052H
  000cb	74 7d		 je	 SHORT $LN41@MonsterKil
  000cd	ba f6 01 00 00	 mov	 edx, 502		; 000001f6H
  000d2	66 3b c2	 cmp	 ax, dx
  000d5	74 73		 je	 SHORT $LN41@MonsterKil
  000d7	ba ed 01 00 00	 mov	 edx, 493		; 000001edH
  000dc	66 3b c2	 cmp	 ax, dx
  000df	74 69		 je	 SHORT $LN41@MonsterKil
  000e1	ba ee 01 00 00	 mov	 edx, 494		; 000001eeH
  000e6	66 3b c2	 cmp	 ax, dx
  000e9	74 5f		 je	 SHORT $LN41@MonsterKil
  000eb	ba ef 01 00 00	 mov	 edx, 495		; 000001efH
  000f0	66 3b c2	 cmp	 ax, dx
  000f3	74 55		 je	 SHORT $LN41@MonsterKil
  000f5	ba f0 01 00 00	 mov	 edx, 496		; 000001f0H
  000fa	66 3b c2	 cmp	 ax, dx
  000fd	74 4b		 je	 SHORT $LN41@MonsterKil
  000ff	ba f1 01 00 00	 mov	 edx, 497		; 000001f1H
  00104	66 3b c2	 cmp	 ax, dx
  00107	74 41		 je	 SHORT $LN41@MonsterKil
  00109	ba f2 01 00 00	 mov	 edx, 498		; 000001f2H
  0010e	66 3b c2	 cmp	 ax, dx
  00111	74 37		 je	 SHORT $LN41@MonsterKil
  00113	ba f3 01 00 00	 mov	 edx, 499		; 000001f3H
  00118	66 3b c2	 cmp	 ax, dx
  0011b	74 2d		 je	 SHORT $LN41@MonsterKil
  0011d	ba f4 01 00 00	 mov	 edx, 500		; 000001f4H
  00122	66 3b c2	 cmp	 ax, dx
  00125	74 23		 je	 SHORT $LN41@MonsterKil
  00127	ba f5 01 00 00	 mov	 edx, 501		; 000001f5H
  0012c	66 3b c2	 cmp	 ax, dx
  0012f	74 19		 je	 SHORT $LN41@MonsterKil
  00131	83 f8 2a	 cmp	 eax, 42			; 0000002aH
  00134	74 14		 je	 SHORT $LN41@MonsterKil
  00136	83 f8 2b	 cmp	 eax, 43			; 0000002bH
  00139	74 0f		 je	 SHORT $LN41@MonsterKil
  0013b	83 f8 2c	 cmp	 eax, 44			; 0000002cH
  0013e	74 0a		 je	 SHORT $LN41@MonsterKil
  00140	83 f8 36	 cmp	 eax, 54			; 00000036H
  00143	74 05		 je	 SHORT $LN41@MonsterKil
  00145	83 f8 51	 cmp	 eax, 81			; 00000051H
  00148	75 1d		 jne	 SHORT $LN56@MonsterKil
$LN41@MonsterKil:

; 379  : 		{
; 380  : 			lpUser->ach.mission.i2_GoldenKill++;

  0014a	8d 41 01	 lea	 eax, DWORD PTR [ecx+1]
  0014d	89 87 34 29 00
	00		 mov	 DWORD PTR [edi+10548], eax

; 381  : 			this->PlayerReward(aIndex, this->m_config.i2_GoldenKill, lpUser->ach.mission.i2_GoldenKill, this->m_reward.i2_GoldenKill);

  00153	8b 8e e4 00 00
	00		 mov	 ecx, DWORD PTR [esi+228]
  00159	8b 56 1c	 mov	 edx, DWORD PTR [esi+28]
  0015c	51		 push	 ecx
  0015d	50		 push	 eax
  0015e	52		 push	 edx
  0015f	53		 push	 ebx
  00160	8b ce		 mov	 ecx, esi
  00162	e8 00 00 00 00	 call	 ?PlayerReward@CAchievements@@QAEXHHHH@Z ; CAchievements::PlayerReward
$LN56@MonsterKil:

; 382  : 		}
; 383  : 	}
; 384  : 	//i3_KalimaMonserKill
; 385  : 	if(this->m_config.i3_KalimaMonserKill > lpUser->ach.mission.i3_KalimaMonserKill)

  00167	8b 87 38 29 00
	00		 mov	 eax, DWORD PTR [edi+10552]
  0016d	39 46 20	 cmp	 DWORD PTR [esi+32], eax
  00170	76 39		 jbe	 SHORT $LN64@MonsterKil

; 386  : 	{
; 387  : 		if(KALIMA_MAP_RANGE(lpUser->MapNumber))

  00172	8a 8f 49 01 00
	00		 mov	 cl, BYTE PTR [edi+329]
  00178	80 f9 18	 cmp	 cl, 24			; 00000018H
  0017b	72 2e		 jb	 SHORT $LN64@MonsterKil
  0017d	80 f9 1d	 cmp	 cl, 29			; 0000001dH
  00180	76 0e		 jbe	 SHORT $LN55@MonsterKil
  00182	33 d2		 xor	 edx, edx
  00184	80 f9 24	 cmp	 cl, 36			; 00000024H
  00187	0f 94 c2	 sete	 dl
  0018a	8b ca		 mov	 ecx, edx
  0018c	85 c9		 test	 ecx, ecx
  0018e	74 1b		 je	 SHORT $LN64@MonsterKil
$LN55@MonsterKil:

; 388  : 		{
; 389  : 			lpUser->ach.mission.i3_KalimaMonserKill++;

  00190	40		 inc	 eax
  00191	89 87 38 29 00
	00		 mov	 DWORD PTR [edi+10552], eax

; 390  : 			this->PlayerReward(aIndex, this->m_config.i3_KalimaMonserKill, lpUser->ach.mission.i3_KalimaMonserKill, this->m_reward.i3_KalimaMonserKill);

  00197	8b 8e e8 00 00
	00		 mov	 ecx, DWORD PTR [esi+232]
  0019d	8b 56 20	 mov	 edx, DWORD PTR [esi+32]
  001a0	51		 push	 ecx
  001a1	50		 push	 eax
  001a2	52		 push	 edx
  001a3	53		 push	 ebx
  001a4	8b ce		 mov	 ecx, esi
  001a6	e8 00 00 00 00	 call	 ?PlayerReward@CAchievements@@QAEXHHHH@Z ; CAchievements::PlayerReward
$LN64@MonsterKil:

; 391  : 		}
; 392  : 	}
; 393  : 	//i4_WhiteWizardKill
; 394  : 	if(this->m_config.i4_WhiteWizardKill > lpUser->ach.mission.i4_WhiteWizardKill)

  001ab	8b 87 3c 29 00
	00		 mov	 eax, DWORD PTR [edi+10556]
  001b1	39 46 24	 cmp	 DWORD PTR [esi+36], eax
  001b4	76 2c		 jbe	 SHORT $LN59@MonsterKil

; 395  : 	{
; 396  : 		if(lpMonster->Class == 135)

  001b6	8b 55 0c	 mov	 edx, DWORD PTR _lpMonster$[ebp]
  001b9	b9 87 00 00 00	 mov	 ecx, 135		; 00000087H
  001be	66 39 8a b8 00
	00 00		 cmp	 WORD PTR [edx+184], cx
  001c5	75 1b		 jne	 SHORT $LN59@MonsterKil

; 397  : 		{
; 398  : 			lpUser->ach.mission.i4_WhiteWizardKill++;

  001c7	40		 inc	 eax
  001c8	89 87 3c 29 00
	00		 mov	 DWORD PTR [edi+10556], eax

; 399  : 			this->PlayerReward(aIndex, this->m_config.i4_WhiteWizardKill, lpUser->ach.mission.i4_WhiteWizardKill, this->m_reward.i4_WhiteWizardKill);

  001ce	8b 8e ec 00 00
	00		 mov	 ecx, DWORD PTR [esi+236]
  001d4	8b 56 24	 mov	 edx, DWORD PTR [esi+36]
  001d7	51		 push	 ecx
  001d8	50		 push	 eax
  001d9	52		 push	 edx
  001da	53		 push	 ebx
  001db	8b ce		 mov	 ecx, esi
  001dd	e8 00 00 00 00	 call	 ?PlayerReward@CAchievements@@QAEXHHHH@Z ; CAchievements::PlayerReward
$LN59@MonsterKil:

; 400  : 		}
; 401  : 	}
; 402  : 	//i6_RedDragonKill
; 403  : 	if(this->m_config.i6_RedDragonKill > lpUser->ach.mission.i6_RedDragonKill)

  001e2	8b 87 44 29 00
	00		 mov	 eax, DWORD PTR [edi+10564]
  001e8	39 46 2c	 cmp	 DWORD PTR [esi+44], eax
  001eb	76 28		 jbe	 SHORT $LN35@MonsterKil

; 404  : 	{
; 405  : 		if(lpMonster->Class == 44)

  001ed	8b 4d 0c	 mov	 ecx, DWORD PTR _lpMonster$[ebp]
  001f0	66 83 b9 b8 00
	00 00 2c	 cmp	 WORD PTR [ecx+184], 44	; 0000002cH
  001f8	75 1b		 jne	 SHORT $LN35@MonsterKil

; 406  : 		{
; 407  : 			lpUser->ach.mission.i6_RedDragonKill++;

  001fa	40		 inc	 eax
  001fb	89 87 44 29 00
	00		 mov	 DWORD PTR [edi+10564], eax

; 408  : 			this->PlayerReward(aIndex, this->m_config.i6_RedDragonKill, lpUser->ach.mission.i6_RedDragonKill, this->m_reward.i6_RedDragonKill);

  00201	8b 96 f4 00 00
	00		 mov	 edx, DWORD PTR [esi+244]
  00207	52		 push	 edx
  00208	50		 push	 eax
  00209	8b 46 2c	 mov	 eax, DWORD PTR [esi+44]
  0020c	50		 push	 eax
  0020d	53		 push	 ebx
  0020e	8b ce		 mov	 ecx, esi
  00210	e8 00 00 00 00	 call	 ?PlayerReward@CAchievements@@QAEXHHHH@Z ; CAchievements::PlayerReward
$LN35@MonsterKil:

; 409  : 		}
; 410  : 	}
; 411  : 	//i7_OrcKill
; 412  : 	if(this->m_config.i7_OrcKill > lpUser->ach.mission.i7_OrcKill)

  00215	8b 87 48 29 00
	00		 mov	 eax, DWORD PTR [edi+10568]
  0021b	39 46 30	 cmp	 DWORD PTR [esi+48], eax
  0021e	76 39		 jbe	 SHORT $LN61@MonsterKil

; 413  : 	{
; 414  : 		if(lpMonster->Class == 136 || lpMonster->Class == 137)

  00220	8b 4d 0c	 mov	 ecx, DWORD PTR _lpMonster$[ebp]
  00223	0f b7 89 b8 00
	00 00		 movzx	 ecx, WORD PTR [ecx+184]
  0022a	ba 88 00 00 00	 mov	 edx, 136		; 00000088H
  0022f	66 3b ca	 cmp	 cx, dx
  00232	74 0a		 je	 SHORT $LN32@MonsterKil
  00234	ba 89 00 00 00	 mov	 edx, 137		; 00000089H
  00239	66 3b ca	 cmp	 cx, dx
  0023c	75 1b		 jne	 SHORT $LN61@MonsterKil
$LN32@MonsterKil:

; 415  : 		{
; 416  : 			lpUser->ach.mission.i7_OrcKill++;

  0023e	40		 inc	 eax
  0023f	89 87 48 29 00
	00		 mov	 DWORD PTR [edi+10568], eax

; 417  : 			this->PlayerReward(aIndex, this->m_config.i7_OrcKill, lpUser->ach.mission.i7_OrcKill, this->m_reward.i7_OrcKill);

  00245	8b 8e f8 00 00
	00		 mov	 ecx, DWORD PTR [esi+248]
  0024b	8b 56 30	 mov	 edx, DWORD PTR [esi+48]
  0024e	51		 push	 ecx
  0024f	50		 push	 eax
  00250	52		 push	 edx
  00251	53		 push	 ebx
  00252	8b ce		 mov	 ecx, esi
  00254	e8 00 00 00 00	 call	 ?PlayerReward@CAchievements@@QAEXHHHH@Z ; CAchievements::PlayerReward
$LN61@MonsterKil:

; 418  : 		}
; 419  : 	}
; 420  : 	//i8_KillGateBC
; 421  : 	if(this->m_config.i8_KillGateBC > lpUser->ach.mission.i8_KillGateBC)

  00259	8b 87 4c 29 00
	00		 mov	 eax, DWORD PTR [edi+10572]
  0025f	39 46 34	 cmp	 DWORD PTR [esi+52], eax
  00262	76 2c		 jbe	 SHORT $LN57@MonsterKil

; 422  : 	{
; 423  : 		if(lpMonster->Class == 131)

  00264	8b 55 0c	 mov	 edx, DWORD PTR _lpMonster$[ebp]
  00267	b9 83 00 00 00	 mov	 ecx, 131		; 00000083H
  0026c	66 39 8a b8 00
	00 00		 cmp	 WORD PTR [edx+184], cx
  00273	75 1b		 jne	 SHORT $LN57@MonsterKil

; 424  : 		{
; 425  : 			lpUser->ach.mission.i8_KillGateBC++;

  00275	40		 inc	 eax
  00276	89 87 4c 29 00
	00		 mov	 DWORD PTR [edi+10572], eax

; 426  : 			this->PlayerReward(aIndex, this->m_config.i8_KillGateBC, lpUser->ach.mission.i8_KillGateBC, this->m_reward.i8_KillGateBC);

  0027c	8b 8e fc 00 00
	00		 mov	 ecx, DWORD PTR [esi+252]
  00282	8b 56 34	 mov	 edx, DWORD PTR [esi+52]
  00285	51		 push	 ecx
  00286	50		 push	 eax
  00287	52		 push	 edx
  00288	53		 push	 ebx
  00289	8b ce		 mov	 ecx, esi
  0028b	e8 00 00 00 00	 call	 ?PlayerReward@CAchievements@@QAEXHHHH@Z ; CAchievements::PlayerReward
$LN57@MonsterKil:

; 427  : 		}
; 428  : 	}
; 429  : 	//i22_KanturuBossKill
; 430  : 	if(this->m_config.i22_KanturuBossKill > lpUser->ach.mission.i22_KanturuBossKill)

  00290	8b 87 84 29 00
	00		 mov	 eax, DWORD PTR [edi+10628]
  00296	39 46 6c	 cmp	 DWORD PTR [esi+108], eax
  00299	76 43		 jbe	 SHORT $LN62@MonsterKil

; 431  : 	{
; 432  : 		if(lpMonster->Class == 361 || lpMonster->Class == 362 || lpMonster->Class == 363)

  0029b	8b 4d 0c	 mov	 ecx, DWORD PTR _lpMonster$[ebp]
  0029e	0f b7 89 b8 00
	00 00		 movzx	 ecx, WORD PTR [ecx+184]
  002a5	ba 69 01 00 00	 mov	 edx, 361		; 00000169H
  002aa	66 3b ca	 cmp	 cx, dx
  002ad	74 14		 je	 SHORT $LN27@MonsterKil
  002af	ba 6a 01 00 00	 mov	 edx, 362		; 0000016aH
  002b4	66 3b ca	 cmp	 cx, dx
  002b7	74 0a		 je	 SHORT $LN27@MonsterKil
  002b9	ba 6b 01 00 00	 mov	 edx, 363		; 0000016bH
  002be	66 3b ca	 cmp	 cx, dx
  002c1	75 1b		 jne	 SHORT $LN62@MonsterKil
$LN27@MonsterKil:

; 433  : 		{
; 434  : 			lpUser->ach.mission.i22_KanturuBossKill++;

  002c3	40		 inc	 eax
  002c4	89 87 84 29 00
	00		 mov	 DWORD PTR [edi+10628], eax

; 435  : 			this->PlayerReward(aIndex, this->m_config.i22_KanturuBossKill, lpUser->ach.mission.i22_KanturuBossKill, this->m_reward.i22_KanturuBossKill);

  002ca	8b 8e 34 01 00
	00		 mov	 ecx, DWORD PTR [esi+308]
  002d0	8b 56 6c	 mov	 edx, DWORD PTR [esi+108]
  002d3	51		 push	 ecx
  002d4	50		 push	 eax
  002d5	52		 push	 edx
  002d6	53		 push	 ebx
  002d7	8b ce		 mov	 ecx, esi
  002d9	e8 00 00 00 00	 call	 ?PlayerReward@CAchievements@@QAEXHHHH@Z ; CAchievements::PlayerReward
$LN62@MonsterKil:

; 436  : 		}
; 437  : 	}
; 438  : 	//i23_Monster100LvlKill
; 439  : 	if(this->m_config.i23_Monster100LvlKill > lpUser->ach.mission.i23_Monster100LvlKill)

  002de	8b 87 88 29 00
	00		 mov	 eax, DWORD PTR [edi+10632]
  002e4	39 46 70	 cmp	 DWORD PTR [esi+112], eax
  002e7	76 28		 jbe	 SHORT $LN25@MonsterKil

; 440  : 	{
; 441  : 		if(lpMonster->Level >= 100)

  002e9	8b 4d 0c	 mov	 ecx, DWORD PTR _lpMonster$[ebp]
  002ec	66 83 b9 be 00
	00 00 64	 cmp	 WORD PTR [ecx+190], 100	; 00000064H
  002f4	7c 1b		 jl	 SHORT $LN25@MonsterKil

; 442  : 		{
; 443  : 			lpUser->ach.mission.i23_Monster100LvlKill++;

  002f6	40		 inc	 eax
  002f7	89 87 88 29 00
	00		 mov	 DWORD PTR [edi+10632], eax

; 444  : 			this->PlayerReward(aIndex, this->m_config.i23_Monster100LvlKill, lpUser->ach.mission.i23_Monster100LvlKill, this->m_reward.i23_Monster100LvlKill);

  002fd	8b 96 38 01 00
	00		 mov	 edx, DWORD PTR [esi+312]
  00303	52		 push	 edx
  00304	50		 push	 eax
  00305	8b 46 70	 mov	 eax, DWORD PTR [esi+112]
  00308	50		 push	 eax
  00309	53		 push	 ebx
  0030a	8b ce		 mov	 ecx, esi
  0030c	e8 00 00 00 00	 call	 ?PlayerReward@CAchievements@@QAEXHHHH@Z ; CAchievements::PlayerReward
$LN25@MonsterKil:

; 445  : 		}
; 446  : 	}
; 447  : 	//i26_CryWolfEventMonster
; 448  : 	if(this->m_config.i26_CryWolfEventMonster > lpUser->ach.mission.i26_CryWolfEventMonster)

  00311	8b 87 94 29 00
	00		 mov	 eax, DWORD PTR [edi+10644]
  00317	39 46 7c	 cmp	 DWORD PTR [esi+124], eax
  0031a	76 39		 jbe	 SHORT $LN60@MonsterKil

; 449  : 	{
; 450  : 		if(lpMonster->Class == 349 || lpMonster->Class == 340)

  0031c	8b 4d 0c	 mov	 ecx, DWORD PTR _lpMonster$[ebp]
  0031f	0f b7 89 b8 00
	00 00		 movzx	 ecx, WORD PTR [ecx+184]
  00326	ba 5d 01 00 00	 mov	 edx, 349		; 0000015dH
  0032b	66 3b ca	 cmp	 cx, dx
  0032e	74 0a		 je	 SHORT $LN22@MonsterKil
  00330	ba 54 01 00 00	 mov	 edx, 340		; 00000154H
  00335	66 3b ca	 cmp	 cx, dx
  00338	75 1b		 jne	 SHORT $LN60@MonsterKil
$LN22@MonsterKil:

; 451  : 		{
; 452  : 			lpUser->ach.mission.i26_CryWolfEventMonster++;

  0033a	40		 inc	 eax
  0033b	89 87 94 29 00
	00		 mov	 DWORD PTR [edi+10644], eax

; 453  : 			this->PlayerReward(aIndex, this->m_config.i26_CryWolfEventMonster, lpUser->ach.mission.i26_CryWolfEventMonster, this->m_reward.i26_CryWolfEventMonster);

  00341	8b 8e 44 01 00
	00		 mov	 ecx, DWORD PTR [esi+324]
  00347	8b 56 7c	 mov	 edx, DWORD PTR [esi+124]
  0034a	51		 push	 ecx
  0034b	50		 push	 eax
  0034c	52		 push	 edx
  0034d	53		 push	 ebx
  0034e	8b ce		 mov	 ecx, esi
  00350	e8 00 00 00 00	 call	 ?PlayerReward@CAchievements@@QAEXHHHH@Z ; CAchievements::PlayerReward
$LN60@MonsterKil:

; 454  : 		}
; 455  : 	}
; 456  : 	//i27_HellMainKill
; 457  : 	if(this->m_config.i27_HellMainKill > lpUser->ach.mission.i27_HellMainKill)

  00355	8b 87 98 29 00
	00		 mov	 eax, DWORD PTR [edi+10648]
  0035b	39 86 80 00 00
	00		 cmp	 DWORD PTR [esi+128], eax
  00361	76 2f		 jbe	 SHORT $LN20@MonsterKil

; 458  : 	{
; 459  : 		if(lpMonster->Class == 309)

  00363	8b 55 0c	 mov	 edx, DWORD PTR _lpMonster$[ebp]
  00366	b9 35 01 00 00	 mov	 ecx, 309		; 00000135H
  0036b	66 39 8a b8 00
	00 00		 cmp	 WORD PTR [edx+184], cx
  00372	75 1e		 jne	 SHORT $LN20@MonsterKil

; 460  : 		{
; 461  : 			lpUser->ach.mission.i27_HellMainKill++;

  00374	40		 inc	 eax
  00375	89 87 98 29 00
	00		 mov	 DWORD PTR [edi+10648], eax

; 462  : 			this->PlayerReward(aIndex, this->m_config.i27_HellMainKill, lpUser->ach.mission.i27_HellMainKill, this->m_reward.i27_HellMainKill);

  0037b	8b 8e 48 01 00
	00		 mov	 ecx, DWORD PTR [esi+328]
  00381	8b 96 80 00 00
	00		 mov	 edx, DWORD PTR [esi+128]
  00387	51		 push	 ecx
  00388	50		 push	 eax
  00389	52		 push	 edx
  0038a	53		 push	 ebx
  0038b	8b ce		 mov	 ecx, esi
  0038d	e8 00 00 00 00	 call	 ?PlayerReward@CAchievements@@QAEXHHHH@Z ; CAchievements::PlayerReward
$LN20@MonsterKil:

; 463  : 		}
; 464  : 	}
; 465  : 	//i29_SelupanKill
; 466  : 	if(this->m_config.i29_SelupanKill > lpUser->ach.mission.i29_SelupanKill)

  00392	8b 87 a0 29 00
	00		 mov	 eax, DWORD PTR [edi+10656]
  00398	39 86 88 00 00
	00		 cmp	 DWORD PTR [esi+136], eax
  0039e	76 2f		 jbe	 SHORT $LN18@MonsterKil

; 467  : 	{
; 468  : 		if(lpMonster->Class == 459)

  003a0	8b 55 0c	 mov	 edx, DWORD PTR _lpMonster$[ebp]
  003a3	b9 cb 01 00 00	 mov	 ecx, 459		; 000001cbH
  003a8	66 39 8a b8 00
	00 00		 cmp	 WORD PTR [edx+184], cx
  003af	75 1e		 jne	 SHORT $LN18@MonsterKil

; 469  : 		{
; 470  : 			lpUser->ach.mission.i29_SelupanKill++;

  003b1	40		 inc	 eax
  003b2	89 87 a0 29 00
	00		 mov	 DWORD PTR [edi+10656], eax

; 471  : 			this->PlayerReward(aIndex, this->m_config.i29_SelupanKill, lpUser->ach.mission.i29_SelupanKill, this->m_reward.i29_SelupanKill);

  003b8	8b 8e 50 01 00
	00		 mov	 ecx, DWORD PTR [esi+336]
  003be	8b 96 88 00 00
	00		 mov	 edx, DWORD PTR [esi+136]
  003c4	51		 push	 ecx
  003c5	50		 push	 eax
  003c6	52		 push	 edx
  003c7	53		 push	 ebx
  003c8	8b ce		 mov	 ecx, esi
  003ca	e8 00 00 00 00	 call	 ?PlayerReward@CAchievements@@QAEXHHHH@Z ; CAchievements::PlayerReward
$LN18@MonsterKil:

; 472  : 		}
; 473  : 	}
; 474  : 	//i30_KundunKill
; 475  : 	if(this->m_config.i30_KundunKill > lpUser->ach.mission.i30_KundunKill)

  003cf	8b 87 a4 29 00
	00		 mov	 eax, DWORD PTR [edi+10660]
  003d5	39 86 8c 00 00
	00		 cmp	 DWORD PTR [esi+140], eax
  003db	76 2f		 jbe	 SHORT $LN16@MonsterKil

; 476  : 	{
; 477  : 		if(lpMonster->Class == 275)

  003dd	8b 55 0c	 mov	 edx, DWORD PTR _lpMonster$[ebp]
  003e0	b9 13 01 00 00	 mov	 ecx, 275		; 00000113H
  003e5	66 39 8a b8 00
	00 00		 cmp	 WORD PTR [edx+184], cx
  003ec	75 1e		 jne	 SHORT $LN16@MonsterKil

; 478  : 		{
; 479  : 			lpUser->ach.mission.i30_KundunKill++;

  003ee	40		 inc	 eax
  003ef	89 87 a4 29 00
	00		 mov	 DWORD PTR [edi+10660], eax

; 480  : 			this->PlayerReward(aIndex, this->m_config.i30_KundunKill, lpUser->ach.mission.i30_KundunKill, this->m_reward.i30_KundunKill);

  003f5	8b 8e 54 01 00
	00		 mov	 ecx, DWORD PTR [esi+340]
  003fb	8b 96 8c 00 00
	00		 mov	 edx, DWORD PTR [esi+140]
  00401	51		 push	 ecx
  00402	50		 push	 eax
  00403	52		 push	 edx
  00404	53		 push	 ebx
  00405	8b ce		 mov	 ecx, esi
  00407	e8 00 00 00 00	 call	 ?PlayerReward@CAchievements@@QAEXHHHH@Z ; CAchievements::PlayerReward
$LN16@MonsterKil:

; 481  : 		}
; 482  : 	}
; 483  : 	//i31_KillStatueBC
; 484  : 	if(this->m_config.i31_KillStatueBC > lpUser->ach.mission.i31_KillStatueBC)

  0040c	8b 87 a8 29 00
	00		 mov	 eax, DWORD PTR [edi+10664]
  00412	39 86 90 00 00
	00		 cmp	 DWORD PTR [esi+144], eax
  00418	76 2f		 jbe	 SHORT $LN14@MonsterKil

; 485  : 	{
; 486  : 		if(lpMonster->Class == 131)

  0041a	8b 55 0c	 mov	 edx, DWORD PTR _lpMonster$[ebp]
  0041d	b9 83 00 00 00	 mov	 ecx, 131		; 00000083H
  00422	66 39 8a b8 00
	00 00		 cmp	 WORD PTR [edx+184], cx
  00429	75 1e		 jne	 SHORT $LN14@MonsterKil

; 487  : 		{
; 488  : 			lpUser->ach.mission.i31_KillStatueBC++;

  0042b	40		 inc	 eax
  0042c	89 87 a8 29 00
	00		 mov	 DWORD PTR [edi+10664], eax

; 489  : 			this->PlayerReward(aIndex, this->m_config.i31_KillStatueBC, lpUser->ach.mission.i31_KillStatueBC, this->m_reward.i31_KillStatueBC);

  00432	8b 8e 58 01 00
	00		 mov	 ecx, DWORD PTR [esi+344]
  00438	8b 96 90 00 00
	00		 mov	 edx, DWORD PTR [esi+144]
  0043e	51		 push	 ecx
  0043f	50		 push	 eax
  00440	52		 push	 edx
  00441	53		 push	 ebx
  00442	8b ce		 mov	 ecx, esi
  00444	e8 00 00 00 00	 call	 ?PlayerReward@CAchievements@@QAEXHHHH@Z ; CAchievements::PlayerReward
$LN14@MonsterKil:

; 490  : 		}
; 491  : 	}
; 492  : 	//i34_BlueRabbitKiller
; 493  : 	if(this->m_config.i34_BlueRabbitKiller > lpUser->ach.mission.i34_BlueRabbitKiller)

  00449	8b 87 b4 29 00
	00		 mov	 eax, DWORD PTR [edi+10676]
  0044f	39 86 9c 00 00
	00		 cmp	 DWORD PTR [esi+156], eax
  00455	76 2f		 jbe	 SHORT $LN12@MonsterKil

; 494  : 	{
; 495  : 		if(lpMonster->Class == 413)

  00457	8b 55 0c	 mov	 edx, DWORD PTR _lpMonster$[ebp]
  0045a	b9 9d 01 00 00	 mov	 ecx, 413		; 0000019dH
  0045f	66 39 8a b8 00
	00 00		 cmp	 WORD PTR [edx+184], cx
  00466	75 1e		 jne	 SHORT $LN12@MonsterKil

; 496  : 		{
; 497  : 			lpUser->ach.mission.i34_BlueRabbitKiller++;

  00468	40		 inc	 eax
  00469	89 87 b4 29 00
	00		 mov	 DWORD PTR [edi+10676], eax

; 498  : 			this->PlayerReward(aIndex, this->m_config.i34_BlueRabbitKiller, lpUser->ach.mission.i34_BlueRabbitKiller, this->m_reward.i34_BlueRabbitKiller);

  0046f	8b 8e 64 01 00
	00		 mov	 ecx, DWORD PTR [esi+356]
  00475	8b 96 9c 00 00
	00		 mov	 edx, DWORD PTR [esi+156]
  0047b	51		 push	 ecx
  0047c	50		 push	 eax
  0047d	52		 push	 edx
  0047e	53		 push	 ebx
  0047f	8b ce		 mov	 ecx, esi
  00481	e8 00 00 00 00	 call	 ?PlayerReward@CAchievements@@QAEXHHHH@Z ; CAchievements::PlayerReward
$LN12@MonsterKil:

; 499  : 		}
; 500  : 	}
; 501  : 	//i35_HappyPouchesKiller
; 502  : 	if(this->m_config.i35_HappyPouchesKiller > lpUser->ach.mission.i35_HappyPouchesKiller)

  00486	8b 87 b8 29 00
	00		 mov	 eax, DWORD PTR [edi+10680]
  0048c	39 86 a0 00 00
	00		 cmp	 DWORD PTR [esi+160], eax
  00492	76 2f		 jbe	 SHORT $LN10@MonsterKil

; 503  : 	{
; 504  : 		if(lpMonster->Class == 463)

  00494	8b 55 0c	 mov	 edx, DWORD PTR _lpMonster$[ebp]
  00497	b9 cf 01 00 00	 mov	 ecx, 463		; 000001cfH
  0049c	66 39 8a b8 00
	00 00		 cmp	 WORD PTR [edx+184], cx
  004a3	75 1e		 jne	 SHORT $LN10@MonsterKil

; 505  : 		{
; 506  : 			lpUser->ach.mission.i35_HappyPouchesKiller++;

  004a5	40		 inc	 eax
  004a6	89 87 b8 29 00
	00		 mov	 DWORD PTR [edi+10680], eax

; 507  : 			this->PlayerReward(aIndex, this->m_config.i35_HappyPouchesKiller, lpUser->ach.mission.i35_HappyPouchesKiller, this->m_reward.i35_HappyPouchesKiller);

  004ac	8b 8e 68 01 00
	00		 mov	 ecx, DWORD PTR [esi+360]
  004b2	8b 96 a0 00 00
	00		 mov	 edx, DWORD PTR [esi+160]
  004b8	51		 push	 ecx
  004b9	50		 push	 eax
  004ba	52		 push	 edx
  004bb	53		 push	 ebx
  004bc	8b ce		 mov	 ecx, esi
  004be	e8 00 00 00 00	 call	 ?PlayerReward@CAchievements@@QAEXHHHH@Z ; CAchievements::PlayerReward
$LN10@MonsterKil:

; 508  : 		}
; 509  : 	}
; 510  : 	//i36_PheonixKill
; 511  : 	if(this->m_config.i36_PheonixKill > lpUser->ach.mission.i36_PheonixKill)

  004c3	8b 87 bc 29 00
	00		 mov	 eax, DWORD PTR [edi+10684]
  004c9	39 86 a4 00 00
	00		 cmp	 DWORD PTR [esi+164], eax
  004cf	76 2b		 jbe	 SHORT $LN8@MonsterKil

; 512  : 	{
; 513  : 		if(lpMonster->Class == 77)

  004d1	8b 4d 0c	 mov	 ecx, DWORD PTR _lpMonster$[ebp]
  004d4	66 83 b9 b8 00
	00 00 4d	 cmp	 WORD PTR [ecx+184], 77	; 0000004dH
  004dc	75 1e		 jne	 SHORT $LN8@MonsterKil

; 514  : 		{
; 515  : 			lpUser->ach.mission.i36_PheonixKill++;

  004de	40		 inc	 eax
  004df	89 87 bc 29 00
	00		 mov	 DWORD PTR [edi+10684], eax

; 516  : 			this->PlayerReward(aIndex, this->m_config.i36_PheonixKill, lpUser->ach.mission.i36_PheonixKill, this->m_reward.i36_PheonixKill);

  004e5	8b 96 6c 01 00
	00		 mov	 edx, DWORD PTR [esi+364]
  004eb	52		 push	 edx
  004ec	50		 push	 eax
  004ed	8b 86 a4 00 00
	00		 mov	 eax, DWORD PTR [esi+164]
  004f3	50		 push	 eax
  004f4	53		 push	 ebx
  004f5	8b ce		 mov	 ecx, esi
  004f7	e8 00 00 00 00	 call	 ?PlayerReward@CAchievements@@QAEXHHHH@Z ; CAchievements::PlayerReward
$LN8@MonsterKil:

; 517  : 		}
; 518  : 	}
; 519  : 	//i37_KanturuMonsterKill
; 520  : 	if(this->m_config.i37_KanturuMonsterKill > lpUser->ach.mission.i37_KanturuMonsterKill)

  004fc	8b 87 c0 29 00
	00		 mov	 eax, DWORD PTR [edi+10688]
  00502	39 86 a8 00 00
	00		 cmp	 DWORD PTR [esi+168], eax
  00508	76 2a		 jbe	 SHORT $LN6@MonsterKil

; 521  : 	{
; 522  : 		if(lpMonster->MapNumber == MAP_INDEX_KANTURU_BOSS)

  0050a	8b 4d 0c	 mov	 ecx, DWORD PTR _lpMonster$[ebp]
  0050d	80 b9 49 01 00
	00 27		 cmp	 BYTE PTR [ecx+329], 39	; 00000027H
  00514	75 1e		 jne	 SHORT $LN6@MonsterKil

; 523  : 		{
; 524  : 			lpUser->ach.mission.i37_KanturuMonsterKill++;

  00516	40		 inc	 eax
  00517	89 87 c0 29 00
	00		 mov	 DWORD PTR [edi+10688], eax

; 525  : 			this->PlayerReward(aIndex, this->m_config.i37_KanturuMonsterKill, lpUser->ach.mission.i37_KanturuMonsterKill, this->m_reward.i37_KanturuMonsterKill);

  0051d	8b 96 70 01 00
	00		 mov	 edx, DWORD PTR [esi+368]
  00523	52		 push	 edx
  00524	50		 push	 eax
  00525	8b 86 a8 00 00
	00		 mov	 eax, DWORD PTR [esi+168]
  0052b	50		 push	 eax
  0052c	53		 push	 ebx
  0052d	8b ce		 mov	 ecx, esi
  0052f	e8 00 00 00 00	 call	 ?PlayerReward@CAchievements@@QAEXHHHH@Z ; CAchievements::PlayerReward
$LN6@MonsterKil:

; 526  : 		}
; 527  : 	}
; 528  : 	//i42_KillCastleSiegeNPC
; 529  : 	if(this->m_config.i42_KillCastleSiegeNPC > lpUser->ach.mission.i42_KillCastleSiegeNPC)

  00534	8b 87 d4 29 00
	00		 mov	 eax, DWORD PTR [edi+10708]
  0053a	39 86 bc 00 00
	00		 cmp	 DWORD PTR [esi+188], eax
  00540	76 5a		 jbe	 SHORT $LN63@MonsterKil

; 530  : 	{
; 531  : 		if(lpMonster->Class == 283 || lpMonster->Class == 277 || lpMonster->Class == 288 || lpMonster->Class == 222 || lpMonster->Class == 221)

  00542	8b 4d 0c	 mov	 ecx, DWORD PTR _lpMonster$[ebp]
  00545	0f b7 89 b8 00
	00 00		 movzx	 ecx, WORD PTR [ecx+184]
  0054c	ba 1b 01 00 00	 mov	 edx, 283		; 0000011bH
  00551	66 3b ca	 cmp	 cx, dx
  00554	74 28		 je	 SHORT $LN3@MonsterKil
  00556	ba 15 01 00 00	 mov	 edx, 277		; 00000115H
  0055b	66 3b ca	 cmp	 cx, dx
  0055e	74 1e		 je	 SHORT $LN3@MonsterKil
  00560	ba 20 01 00 00	 mov	 edx, 288		; 00000120H
  00565	66 3b ca	 cmp	 cx, dx
  00568	74 14		 je	 SHORT $LN3@MonsterKil
  0056a	ba de 00 00 00	 mov	 edx, 222		; 000000deH
  0056f	66 3b ca	 cmp	 cx, dx
  00572	74 0a		 je	 SHORT $LN3@MonsterKil
  00574	ba dd 00 00 00	 mov	 edx, 221		; 000000ddH
  00579	66 3b ca	 cmp	 cx, dx
  0057c	75 1e		 jne	 SHORT $LN63@MonsterKil
$LN3@MonsterKil:

; 532  : 		{
; 533  : 			lpUser->ach.mission.i42_KillCastleSiegeNPC++;

  0057e	40		 inc	 eax
  0057f	89 87 d4 29 00
	00		 mov	 DWORD PTR [edi+10708], eax

; 534  : 			this->PlayerReward(aIndex, this->m_config.i42_KillCastleSiegeNPC, lpUser->ach.mission.i42_KillCastleSiegeNPC, this->m_reward.i42_KillCastleSiegeNPC);

  00585	8b 8e 84 01 00
	00		 mov	 ecx, DWORD PTR [esi+388]
  0058b	8b 96 bc 00 00
	00		 mov	 edx, DWORD PTR [esi+188]
  00591	51		 push	 ecx
  00592	50		 push	 eax
  00593	52		 push	 edx
  00594	53		 push	 ebx
  00595	8b ce		 mov	 ecx, esi
  00597	e8 00 00 00 00	 call	 ?PlayerReward@CAchievements@@QAEXHHHH@Z ; CAchievements::PlayerReward
$LN63@MonsterKil:

; 535  : 		}
; 536  : 	}
; 537  : 	//i44_KillErohim
; 538  : 	if(this->m_config.i44_KillErohim > lpUser->ach.mission.i44_KillErohim)

  0059c	8b 87 dc 29 00
	00		 mov	 eax, DWORD PTR [edi+10716]
  005a2	39 86 c4 00 00
	00		 cmp	 DWORD PTR [esi+196], eax
  005a8	76 2f		 jbe	 SHORT $LN67@MonsterKil

; 539  : 	{
; 540  : 		if(lpMonster->Class == 295)

  005aa	8b 55 0c	 mov	 edx, DWORD PTR _lpMonster$[ebp]
  005ad	b9 27 01 00 00	 mov	 ecx, 295		; 00000127H
  005b2	66 39 8a b8 00
	00 00		 cmp	 WORD PTR [edx+184], cx
  005b9	75 1e		 jne	 SHORT $LN67@MonsterKil

; 541  : 		{
; 542  : 			lpUser->ach.mission.i44_KillErohim++;

  005bb	40		 inc	 eax
  005bc	89 87 dc 29 00
	00		 mov	 DWORD PTR [edi+10716], eax

; 543  : 			this->PlayerReward(aIndex, this->m_config.i44_KillErohim, lpUser->ach.mission.i44_KillErohim, this->m_reward.i44_KillErohim);

  005c2	8b 8e 8c 01 00
	00		 mov	 ecx, DWORD PTR [esi+396]
  005c8	8b 96 c4 00 00
	00		 mov	 edx, DWORD PTR [esi+196]
  005ce	51		 push	 ecx
  005cf	50		 push	 eax
  005d0	52		 push	 edx
  005d1	53		 push	 ebx
  005d2	8b ce		 mov	 ecx, esi
  005d4	e8 00 00 00 00	 call	 ?PlayerReward@CAchievements@@QAEXHHHH@Z ; CAchievements::PlayerReward
$LN67@MonsterKil:
  005d9	5f		 pop	 edi
$LN66@MonsterKil:
  005da	5b		 pop	 ebx
$LN46@MonsterKil:
  005db	5e		 pop	 esi

; 544  : 		}
; 545  : 	}
; 546  : }

  005dc	5d		 pop	 ebp
  005dd	c2 08 00	 ret	 8
?MonsterKill@CAchievements@@QAEXHH@Z ENDP		; CAchievements::MonsterKill
_TEXT	ENDS
PUBLIC	?PlayerKill@CAchievements@@QAEXHH@Z		; CAchievements::PlayerKill
EXTRN	?GetCrownSwitchUserIndex@CCastleSiege@@QAEHH@Z:PROC ; CCastleSiege::GetCrownSwitchUserIndex
EXTRN	?g_CastleSiege@@3VCCastleSiege@@A:BYTE		; g_CastleSiege
; Function compile flags: /Ogtp
;	COMDAT ?PlayerKill@CAchievements@@QAEXHH@Z
_TEXT	SEGMENT
tv243 = -4						; size = 4
_iCrownIndex2$211272 = -4				; size = 4
tv490 = 8						; size = 4
_iCrownIndex$211279 = 8					; size = 4
_iCrownIndex1$211271 = 8				; size = 4
_aIndex$ = 8						; size = 4
_aTargetIndex$ = 12					; size = 4
?PlayerKill@CAchievements@@QAEXHH@Z PROC		; CAchievements::PlayerKill, COMDAT
; _this$ = ecx

; 549  : {

  00000	55		 push	 ebp
  00001	8b ec		 mov	 ebp, esp
  00003	51		 push	 ecx
  00004	57		 push	 edi
  00005	8b f9		 mov	 edi, ecx

; 550  : 	if(!this->bEnable)

  00007	80 7f 14 00	 cmp	 BYTE PTR [edi+20], 0
  0000b	0f 84 3d 02 00
	00		 je	 $LN23@PlayerKill

; 551  : 	{
; 552  : 		return;
; 553  : 	}
; 554  : 
; 555  : 	if(!gObjIsConnected(aIndex) || !gObjIsConnected(aTargetIndex))

  00011	56		 push	 esi
  00012	8b 75 08	 mov	 esi, DWORD PTR _aIndex$[ebp]
  00015	56		 push	 esi
  00016	e8 00 00 00 00	 call	 ?gObjIsConnected@@YAHH@Z ; gObjIsConnected
  0001b	83 c4 04	 add	 esp, 4
  0001e	85 c0		 test	 eax, eax
  00020	0f 84 27 02 00
	00		 je	 $LN40@PlayerKill
  00026	53		 push	 ebx
  00027	8b 5d 0c	 mov	 ebx, DWORD PTR _aTargetIndex$[ebp]
  0002a	53		 push	 ebx
  0002b	e8 00 00 00 00	 call	 ?gObjIsConnected@@YAHH@Z ; gObjIsConnected
  00030	83 c4 04	 add	 esp, 4
  00033	85 c0		 test	 eax, eax
  00035	0f 84 11 02 00
	00		 je	 $LN41@PlayerKill

; 556  : 	{
; 557  : 		return;
; 558  : 	}
; 559  : 
; 560  : 	LPOBJ lpUser = &gObj[aIndex];

  0003b	a1 00 00 00 00	 mov	 eax, DWORD PTR ?gObj@@3PAUOBJECTSTRUCT@@A ; gObj
  00040	69 f6 50 2b 00
	00		 imul	 esi, 11088		; 00002b50H

; 561  : 	LPOBJ lpTarget = &gObj[aTargetIndex];

  00046	69 db 50 2b 00
	00		 imul	 ebx, 11088		; 00002b50H
  0004c	03 f0		 add	 esi, eax
  0004e	03 d8		 add	 ebx, eax

; 562  : 
; 563  : 	if(!lpUser->ach.bLoaded)

  00050	80 be 20 29 00
	00 00		 cmp	 BYTE PTR [esi+10528], 0
  00057	0f 84 ef 01 00
	00		 je	 $LN41@PlayerKill

; 564  : 	{
; 565  : 		return;
; 566  : 	}
; 567  : 
; 568  : 	//i5_PlayerKill
; 569  : 	if(this->m_config.i5_PlayerKill > lpUser->ach.mission.i5_PlayerKill)

  0005d	8b 86 40 29 00
	00		 mov	 eax, DWORD PTR [esi+10560]
  00063	39 47 28	 cmp	 DWORD PTR [edi+40], eax
  00066	76 1e		 jbe	 SHORT $LN21@PlayerKill

; 570  : 	{
; 571  : 		lpUser->ach.mission.i5_PlayerKill++;

  00068	40		 inc	 eax
  00069	89 86 40 29 00
	00		 mov	 DWORD PTR [esi+10560], eax

; 572  : 		this->PlayerReward(aIndex, this->m_config.i5_PlayerKill, lpUser->ach.mission.i5_PlayerKill, this->m_reward.i5_PlayerKill);

  0006f	8b 8f f0 00 00
	00		 mov	 ecx, DWORD PTR [edi+240]
  00075	8b 57 28	 mov	 edx, DWORD PTR [edi+40]
  00078	51		 push	 ecx
  00079	50		 push	 eax
  0007a	8b 45 08	 mov	 eax, DWORD PTR _aIndex$[ebp]
  0007d	52		 push	 edx
  0007e	50		 push	 eax
  0007f	8b cf		 mov	 ecx, edi
  00081	e8 00 00 00 00	 call	 ?PlayerReward@CAchievements@@QAEXHHHH@Z ; CAchievements::PlayerReward
$LN21@PlayerKill:

; 573  : 	}
; 574  : 	//i25_PhonomanKill
; 575  : 	if(this->m_config.i25_PhonomanKill > lpUser->ach.mission.i25_PhonomanKill)

  00086	8b 86 90 29 00
	00		 mov	 eax, DWORD PTR [esi+10640]
  0008c	39 47 78	 cmp	 DWORD PTR [edi+120], eax
  0008f	76 29		 jbe	 SHORT $LN34@PlayerKill

; 576  : 	{
; 577  : 		if(lpTarget->m_PK_Level >= 6)

  00091	80 bb 3d 01 00
	00 06		 cmp	 BYTE PTR [ebx+317], 6
  00098	7c 20		 jl	 SHORT $LN34@PlayerKill

; 578  : 		{
; 579  : 			lpUser->ach.mission.i25_PhonomanKill++;
; 580  : 			this->PlayerReward(aIndex, this->m_config.i25_PhonomanKill, lpUser->ach.mission.i25_PhonomanKill, this->m_reward.i25_PhonomanKill);

  0009a	8b 5d 08	 mov	 ebx, DWORD PTR _aIndex$[ebp]
  0009d	40		 inc	 eax
  0009e	89 86 90 29 00
	00		 mov	 DWORD PTR [esi+10640], eax
  000a4	8b 8f 40 01 00
	00		 mov	 ecx, DWORD PTR [edi+320]
  000aa	8b 57 78	 mov	 edx, DWORD PTR [edi+120]
  000ad	51		 push	 ecx
  000ae	50		 push	 eax
  000af	52		 push	 edx
  000b0	53		 push	 ebx
  000b1	8b cf		 mov	 ecx, edi
  000b3	e8 00 00 00 00	 call	 ?PlayerReward@CAchievements@@QAEXHHHH@Z ; CAchievements::PlayerReward
  000b8	eb 03		 jmp	 SHORT $LN19@PlayerKill
$LN34@PlayerKill:
  000ba	8b 5d 08	 mov	 ebx, DWORD PTR _aIndex$[ebp]
$LN19@PlayerKill:

; 581  : 		}
; 582  : 	}
; 583  : 	//i28_KillInSelf_Defense
; 584  : 	if(this->m_config.i28_KillInSelf_Defense > lpUser->ach.mission.i28_KillInSelf_Defense)

  000bd	8b 87 84 00 00
	00		 mov	 eax, DWORD PTR [edi+132]
  000c3	3b 86 9c 29 00
	00		 cmp	 eax, DWORD PTR [esi+10652]
  000c9	76 4f		 jbe	 SHORT $LN36@PlayerKill

; 585  : 	{
; 586  : 		for(int n = 0; n < MAX_SELF_DEFENSE;n++)

  000cb	8d 8e e4 03 00
	00		 lea	 ecx, DWORD PTR [esi+996]
  000d1	89 4d 08	 mov	 DWORD PTR tv490[ebp], ecx
  000d4	c7 45 fc 07 00
	00 00		 mov	 DWORD PTR tv243[ebp], 7
  000db	eb 03 8d 49 00	 npad	 5
$LL17@PlayerKill:

; 587  : 		{
; 588  : 			if(lpUser->SelfDefense[n] >= 0)

  000e0	8b 55 08	 mov	 edx, DWORD PTR tv490[ebp]
  000e3	8b 02		 mov	 eax, DWORD PTR [edx]
  000e5	85 c0		 test	 eax, eax
  000e7	78 28		 js	 SHORT $LN16@PlayerKill

; 589  : 			{
; 590  : 				if(lpUser->SelfDefense[n] == aTargetIndex)

  000e9	3b 45 0c	 cmp	 eax, DWORD PTR _aTargetIndex$[ebp]
  000ec	75 23		 jne	 SHORT $LN16@PlayerKill

; 591  : 				{
; 592  : 					lpUser->ach.mission.i28_KillInSelf_Defense++;

  000ee	ff 86 9c 29 00
	00		 inc	 DWORD PTR [esi+10652]

; 593  : 					this->PlayerReward(aIndex, this->m_config.i28_KillInSelf_Defense, lpUser->ach.mission.i28_KillInSelf_Defense, this->m_reward.i28_KillInSelf_Defense);

  000f4	8b 8f 4c 01 00
	00		 mov	 ecx, DWORD PTR [edi+332]
  000fa	8b 86 9c 29 00
	00		 mov	 eax, DWORD PTR [esi+10652]
  00100	8b 97 84 00 00
	00		 mov	 edx, DWORD PTR [edi+132]
  00106	51		 push	 ecx
  00107	50		 push	 eax
  00108	52		 push	 edx
  00109	53		 push	 ebx
  0010a	8b cf		 mov	 ecx, edi
  0010c	e8 00 00 00 00	 call	 ?PlayerReward@CAchievements@@QAEXHHHH@Z ; CAchievements::PlayerReward
$LN16@PlayerKill:

; 585  : 	{
; 586  : 		for(int n = 0; n < MAX_SELF_DEFENSE;n++)

  00111	83 45 08 04	 add	 DWORD PTR tv490[ebp], 4
  00115	ff 4d fc	 dec	 DWORD PTR tv243[ebp]
  00118	75 c6		 jne	 SHORT $LL17@PlayerKill
$LN36@PlayerKill:

; 594  : 				}
; 595  : 			}
; 596  : 		}
; 597  : 	}
; 598  : 	//i38_MovePlayerFromSwitch
; 599  : 	if(this->m_config.i38_MovePlayerFromSwitch > lpUser->ach.mission.i38_MovePlayerFromSwitch)

  0011a	8b 87 ac 00 00
	00		 mov	 eax, DWORD PTR [edi+172]
  00120	3b 86 c4 29 00
	00		 cmp	 eax, DWORD PTR [esi+10692]
  00126	0f 86 94 00 00
	00		 jbe	 $LN37@PlayerKill

; 600  : 	{
; 601  : 		int iCrownIndex1 = g_CastleSiege.GetCrownSwitchUserIndex(217);

  0012c	68 d9 00 00 00	 push	 217			; 000000d9H
  00131	b9 00 00 00 00	 mov	 ecx, OFFSET ?g_CastleSiege@@3VCCastleSiege@@A ; g_CastleSiege
  00136	e8 00 00 00 00	 call	 ?GetCrownSwitchUserIndex@CCastleSiege@@QAEHH@Z ; CCastleSiege::GetCrownSwitchUserIndex

; 602  : 		int iCrownIndex2 = g_CastleSiege.GetCrownSwitchUserIndex(218);

  0013b	68 da 00 00 00	 push	 218			; 000000daH
  00140	b9 00 00 00 00	 mov	 ecx, OFFSET ?g_CastleSiege@@3VCCastleSiege@@A ; g_CastleSiege
  00145	89 45 08	 mov	 DWORD PTR _iCrownIndex1$211271[ebp], eax
  00148	e8 00 00 00 00	 call	 ?GetCrownSwitchUserIndex@CCastleSiege@@QAEHH@Z ; CCastleSiege::GetCrownSwitchUserIndex

; 603  : 
; 604  : 		if(gObjIsConnected(iCrownIndex1))

  0014d	8b 4d 08	 mov	 ecx, DWORD PTR _iCrownIndex1$211271[ebp]
  00150	51		 push	 ecx
  00151	89 45 fc	 mov	 DWORD PTR _iCrownIndex2$211272[ebp], eax
  00154	e8 00 00 00 00	 call	 ?gObjIsConnected@@YAHH@Z ; gObjIsConnected
  00159	83 c4 04	 add	 esp, 4
  0015c	85 c0		 test	 eax, eax
  0015e	74 25		 je	 SHORT $LN11@PlayerKill

; 605  : 		{
; 606  : 			if(aTargetIndex == iCrownIndex1)

  00160	8b 55 08	 mov	 edx, DWORD PTR _iCrownIndex1$211271[ebp]
  00163	39 55 0c	 cmp	 DWORD PTR _aTargetIndex$[ebp], edx
  00166	75 58		 jne	 SHORT $LN37@PlayerKill

; 607  : 			{
; 608  : 				lpUser->ach.mission.i38_MovePlayerFromSwitch++;

  00168	ff 86 c4 29 00
	00		 inc	 DWORD PTR [esi+10692]

; 609  : 				this->PlayerReward(aIndex, this->m_config.i38_MovePlayerFromSwitch, lpUser->ach.mission.i38_MovePlayerFromSwitch, this->m_reward.i38_MovePlayerFromSwitch);

  0016e	8b 8f 74 01 00
	00		 mov	 ecx, DWORD PTR [edi+372]
  00174	8b 86 c4 29 00
	00		 mov	 eax, DWORD PTR [esi+10692]
  0017a	8b 97 ac 00 00
	00		 mov	 edx, DWORD PTR [edi+172]
  00180	51		 push	 ecx
  00181	50		 push	 eax
  00182	52		 push	 edx

; 610  : 			}
; 611  : 		}

  00183	eb 33		 jmp	 SHORT $LN42@PlayerKill
$LN11@PlayerKill:

; 612  : 		else if(gObjIsConnected(iCrownIndex2))

  00185	8b 45 fc	 mov	 eax, DWORD PTR _iCrownIndex2$211272[ebp]
  00188	50		 push	 eax
  00189	e8 00 00 00 00	 call	 ?gObjIsConnected@@YAHH@Z ; gObjIsConnected
  0018e	83 c4 04	 add	 esp, 4
  00191	85 c0		 test	 eax, eax
  00193	74 2b		 je	 SHORT $LN37@PlayerKill

; 613  : 		{
; 614  : 			if(aTargetIndex == iCrownIndex2)

  00195	8b 4d fc	 mov	 ecx, DWORD PTR _iCrownIndex2$211272[ebp]
  00198	39 4d 0c	 cmp	 DWORD PTR _aTargetIndex$[ebp], ecx
  0019b	75 23		 jne	 SHORT $LN37@PlayerKill

; 615  : 			{
; 616  : 				lpUser->ach.mission.i38_MovePlayerFromSwitch++;

  0019d	ff 86 c4 29 00
	00		 inc	 DWORD PTR [esi+10692]

; 617  : 				this->PlayerReward(aIndex, this->m_config.i38_MovePlayerFromSwitch, lpUser->ach.mission.i38_MovePlayerFromSwitch, this->m_reward.i38_MovePlayerFromSwitch);

  001a3	8b 97 74 01 00
	00		 mov	 edx, DWORD PTR [edi+372]
  001a9	8b 86 c4 29 00
	00		 mov	 eax, DWORD PTR [esi+10692]
  001af	52		 push	 edx
  001b0	50		 push	 eax
  001b1	8b 87 ac 00 00
	00		 mov	 eax, DWORD PTR [edi+172]
  001b7	50		 push	 eax
$LN42@PlayerKill:
  001b8	53		 push	 ebx
  001b9	8b cf		 mov	 ecx, edi
  001bb	e8 00 00 00 00	 call	 ?PlayerReward@CAchievements@@QAEXHHHH@Z ; CAchievements::PlayerReward
$LN37@PlayerKill:

; 618  : 			}
; 619  : 		}
; 620  : 	}	
; 621  : 	//i40_MovePlayerFromCrownkill
; 622  : 	if(this->m_config.i40_MovePlayerFromCrown > lpUser->ach.mission.i40_MovePlayerFromCrown)

  001c0	8b 8f b4 00 00
	00		 mov	 ecx, DWORD PTR [edi+180]
  001c6	3b 8e cc 29 00
	00		 cmp	 ecx, DWORD PTR [esi+10700]
  001cc	76 40		 jbe	 SHORT $LN39@PlayerKill

; 623  : 	{
; 624  : 		int iCrownIndex = g_CastleSiege.GetCrownUserIndex();

  001ce	a1 f0 01 00 00	 mov	 eax, DWORD PTR ?g_CastleSiege@@3VCCastleSiege@@A+496

; 625  : 		if(gObjIsConnected(iCrownIndex))

  001d3	50		 push	 eax
  001d4	89 45 08	 mov	 DWORD PTR _iCrownIndex$211279[ebp], eax
  001d7	e8 00 00 00 00	 call	 ?gObjIsConnected@@YAHH@Z ; gObjIsConnected
  001dc	83 c4 04	 add	 esp, 4
  001df	85 c0		 test	 eax, eax
  001e1	74 2b		 je	 SHORT $LN39@PlayerKill

; 626  : 		{
; 627  : 			if(iCrownIndex == aTargetIndex)

  001e3	8b 55 0c	 mov	 edx, DWORD PTR _aTargetIndex$[ebp]
  001e6	39 55 08	 cmp	 DWORD PTR _iCrownIndex$211279[ebp], edx
  001e9	75 23		 jne	 SHORT $LN39@PlayerKill

; 628  : 			{
; 629  : 				lpUser->ach.mission.i40_MovePlayerFromCrown++;

  001eb	ff 86 cc 29 00
	00		 inc	 DWORD PTR [esi+10700]

; 630  : 				this->PlayerReward(aIndex, this->m_config.i40_MovePlayerFromCrown, lpUser->ach.mission.i40_MovePlayerFromCrown, this->m_reward.i40_MovePlayerFromCrown);

  001f1	8b 8f 7c 01 00
	00		 mov	 ecx, DWORD PTR [edi+380]
  001f7	8b 86 cc 29 00
	00		 mov	 eax, DWORD PTR [esi+10700]
  001fd	8b 97 b4 00 00
	00		 mov	 edx, DWORD PTR [edi+180]
  00203	51		 push	 ecx
  00204	50		 push	 eax
  00205	52		 push	 edx
  00206	53		 push	 ebx
  00207	8b cf		 mov	 ecx, edi
  00209	e8 00 00 00 00	 call	 ?PlayerReward@CAchievements@@QAEXHHHH@Z ; CAchievements::PlayerReward
$LN39@PlayerKill:

; 631  : 			}
; 632  : 		}
; 633  : 	}
; 634  : 	//i43_KillPlayerCastleSiege
; 635  : 	if(this->m_config.i43_KillPlayerCastleSiege > lpUser->ach.mission.i43_KillPlayerCastleSiege)

  0020e	8b 86 d8 29 00
	00		 mov	 eax, DWORD PTR [esi+10712]
  00214	39 87 c0 00 00
	00		 cmp	 DWORD PTR [edi+192], eax
  0021a	76 30		 jbe	 SHORT $LN41@PlayerKill

; 636  : 	{
; 637  : #if(GAMESERVER_ACHIVEMENTS==ZTTEAM_SERVER || GAMESERVER_ACHIVEMENTS==ZTEAM_SERVER)
; 638  : 		if(lpUser->MapNumber == MAP_INDEX_CASTLESIEGE)

  0021c	80 be 49 01 00
	00 1e		 cmp	 BYTE PTR [esi+329], 30	; 0000001eH
  00223	75 27		 jne	 SHORT $LN41@PlayerKill

; 639  : 		{
; 640  : 			if(g_CastleSiege.GetCastleState() == CASTLESIEGE_STATE_STARTSIEGE)

  00225	83 3d 28 00 00
	00 07		 cmp	 DWORD PTR ?g_CastleSiege@@3VCCastleSiege@@A+40, 7
  0022c	75 1e		 jne	 SHORT $LN41@PlayerKill

; 641  : 			{
; 642  : 				lpUser->ach.mission.i43_KillPlayerCastleSiege++;

  0022e	40		 inc	 eax
  0022f	89 86 d8 29 00
	00		 mov	 DWORD PTR [esi+10712], eax

; 643  : 				this->PlayerReward(aIndex, this->m_config.i43_KillPlayerCastleSiege, lpUser->ach.mission.i43_KillPlayerCastleSiege, this->m_reward.i43_KillPlayerCastleSiege);

  00235	8b 8f 88 01 00
	00		 mov	 ecx, DWORD PTR [edi+392]
  0023b	8b 97 c0 00 00
	00		 mov	 edx, DWORD PTR [edi+192]
  00241	51		 push	 ecx
  00242	50		 push	 eax
  00243	52		 push	 edx
  00244	53		 push	 ebx
  00245	8b cf		 mov	 ecx, edi
  00247	e8 00 00 00 00	 call	 ?PlayerReward@CAchievements@@QAEXHHHH@Z ; CAchievements::PlayerReward
$LN41@PlayerKill:
  0024c	5b		 pop	 ebx
$LN40@PlayerKill:
  0024d	5e		 pop	 esi
$LN23@PlayerKill:
  0024e	5f		 pop	 edi

; 644  : 			}
; 645  : 		}
; 646  : #else
; 647  : #if(GS_CASTLE==1)
; 648  : 		if(lpUser->MapNumber == MAP_INDEX_CASTLESIEGE)
; 649  : 		{
; 650  : 			if(g_CastleSiege.GetCastleState() == CASTLESIEGE_STATE_STARTSIEGE)
; 651  : 			{
; 652  : 				lpUser->ach.mission.i43_KillPlayerCastleSiege++;
; 653  : 				this->PlayerReward(aIndex, this->m_config.i43_KillPlayerCastleSiege, lpUser->ach.mission.i43_KillPlayerCastleSiege, this->m_reward.i43_KillPlayerCastleSiege);
; 654  : 			}
; 655  : 		}
; 656  : #endif
; 657  : #endif
; 658  : 	}
; 659  : }

  0024f	8b e5		 mov	 esp, ebp
  00251	5d		 pop	 ebp
  00252	c2 08 00	 ret	 8
?PlayerKill@CAchievements@@QAEXHH@Z ENDP		; CAchievements::PlayerKill
_TEXT	ENDS
PUBLIC	?PickUp@CAchievements@@QAEXHHHHHH@Z		; CAchievements::PickUp
; Function compile flags: /Ogtp
;	COMDAT ?PickUp@CAchievements@@QAEXHHHHHH@Z
_TEXT	SEGMENT
_aIndex$ = 8						; size = 4
_iItemNum$ = 12						; size = 4
_iLevel$ = 16						; size = 4
_iExl$ = 20						; size = 4
_iAnc$ = 24						; size = 4
_iDur$ = 28						; size = 4
?PickUp@CAchievements@@QAEXHHHHHH@Z PROC		; CAchievements::PickUp, COMDAT
; _this$ = ecx

; 662  : {

  00000	55		 push	 ebp
  00001	8b ec		 mov	 ebp, esp
  00003	56		 push	 esi
  00004	8b f1		 mov	 esi, ecx

; 663  : 	if(!this->bEnable)

  00006	80 7e 14 00	 cmp	 BYTE PTR [esi+20], 0
  0000a	0f 84 b5 01 00
	00		 je	 $LN2@PickUp

; 664  : 	{
; 665  : 		return;
; 666  : 	}
; 667  : 
; 668  : 	if(!gObjIsConnected(aIndex))

  00010	53		 push	 ebx
  00011	8b 5d 08	 mov	 ebx, DWORD PTR _aIndex$[ebp]
  00014	53		 push	 ebx
  00015	e8 00 00 00 00	 call	 ?gObjIsConnected@@YAHH@Z ; gObjIsConnected
  0001a	83 c4 04	 add	 esp, 4
  0001d	85 c0		 test	 eax, eax
  0001f	0f 84 9f 01 00
	00		 je	 $LN25@PickUp

; 669  : 	{
; 670  : 		return;
; 671  : 	}
; 672  : 
; 673  : 	LPOBJ lpUser = &gObj[aIndex];

  00025	57		 push	 edi
  00026	8b fb		 mov	 edi, ebx
  00028	69 ff 50 2b 00
	00		 imul	 edi, 11088		; 00002b50H
  0002e	03 3d 00 00 00
	00		 add	 edi, DWORD PTR ?gObj@@3PAUOBJECTSTRUCT@@A ; gObj

; 674  : 
; 675  : 	if(!lpUser->ach.bLoaded)

  00034	80 bf 20 29 00
	00 00		 cmp	 BYTE PTR [edi+10528], 0
  0003b	0f 84 82 01 00
	00		 je	 $LN26@PickUp

; 676  : 	{
; 677  : 		return;
; 678  : 	}
; 679  : 
; 680  : 	//i12_PickUpJewels
; 681  : 	if(this->m_config.i12_PickUpJewels > lpUser->ach.mission.i12_PickUpJewels)

  00041	8b 87 5c 29 00
	00		 mov	 eax, DWORD PTR [edi+10588]

; 682  : 	{
; 683  : 		if( iItemNum == ITEMGET(12, 15) ||
; 684  : 			iItemNum == ITEMGET(14, 13) ||
; 685  : 			iItemNum == ITEMGET(14, 14) ||
; 686  : 			iItemNum == ITEMGET(14, 16) ||
; 687  : 			iItemNum == ITEMGET(14, 22) ||
; 688  : 			iItemNum == ITEMGET(14, 31) ||
; 689  : 			iItemNum == ITEMGET(14, 42))

  00047	8b 4d 0c	 mov	 ecx, DWORD PTR _iItemNum$[ebp]
  0004a	39 46 44	 cmp	 DWORD PTR [esi+68], eax
  0004d	76 56		 jbe	 SHORT $LN13@PickUp
  0004f	81 f9 0f 18 00
	00		 cmp	 ecx, 6159		; 0000180fH
  00055	74 30		 je	 SHORT $LN12@PickUp
  00057	81 f9 0d 1c 00
	00		 cmp	 ecx, 7181		; 00001c0dH
  0005d	74 28		 je	 SHORT $LN12@PickUp
  0005f	81 f9 0e 1c 00
	00		 cmp	 ecx, 7182		; 00001c0eH
  00065	74 20		 je	 SHORT $LN12@PickUp
  00067	81 f9 10 1c 00
	00		 cmp	 ecx, 7184		; 00001c10H
  0006d	74 18		 je	 SHORT $LN12@PickUp
  0006f	81 f9 16 1c 00
	00		 cmp	 ecx, 7190		; 00001c16H
  00075	74 10		 je	 SHORT $LN12@PickUp
  00077	81 f9 1f 1c 00
	00		 cmp	 ecx, 7199		; 00001c1fH
  0007d	74 08		 je	 SHORT $LN12@PickUp
  0007f	81 f9 2a 1c 00
	00		 cmp	 ecx, 7210		; 00001c2aH
  00085	75 1e		 jne	 SHORT $LN13@PickUp
$LN12@PickUp:

; 690  : 		{
; 691  : 			lpUser->ach.mission.i12_PickUpJewels++;

  00087	40		 inc	 eax
  00088	89 87 5c 29 00
	00		 mov	 DWORD PTR [edi+10588], eax

; 692  : 			this->PlayerReward(aIndex, this->m_config.i12_PickUpJewels, lpUser->ach.mission.i12_PickUpJewels, this->m_reward.i12_PickUpJewels);

  0008e	8b 8e 0c 01 00
	00		 mov	 ecx, DWORD PTR [esi+268]
  00094	8b 56 44	 mov	 edx, DWORD PTR [esi+68]
  00097	51		 push	 ecx
  00098	50		 push	 eax
  00099	52		 push	 edx
  0009a	53		 push	 ebx
  0009b	8b ce		 mov	 ecx, esi
  0009d	e8 00 00 00 00	 call	 ?PlayerReward@CAchievements@@QAEXHHHH@Z ; CAchievements::PlayerReward
  000a2	8b 4d 0c	 mov	 ecx, DWORD PTR _iItemNum$[ebp]
$LN13@PickUp:

; 693  : 		}
; 694  : 	}
; 695  : 	//i16_PickUpZen
; 696  : 	if(this->m_config.i16_PickUpZen > lpUser->ach.mission.i16_PickUpZen)

  000a5	8b 87 6c 29 00
	00		 mov	 eax, DWORD PTR [edi+10604]
  000ab	39 46 54	 cmp	 DWORD PTR [esi+84], eax
  000ae	76 26		 jbe	 SHORT $LN10@PickUp

; 697  : 	{
; 698  : 		if(iItemNum == ITEMGET(14,15))

  000b0	81 f9 0f 1c 00
	00		 cmp	 ecx, 7183		; 00001c0fH
  000b6	75 1e		 jne	 SHORT $LN10@PickUp

; 699  : 		{
; 700  : 			lpUser->ach.mission.i16_PickUpZen++;

  000b8	40		 inc	 eax
  000b9	89 87 6c 29 00
	00		 mov	 DWORD PTR [edi+10604], eax

; 701  : 			this->PlayerReward(aIndex, this->m_config.i16_PickUpZen, lpUser->ach.mission.i16_PickUpZen, this->m_reward.i16_PickUpZen);

  000bf	8b 8e 1c 01 00
	00		 mov	 ecx, DWORD PTR [esi+284]
  000c5	8b 56 54	 mov	 edx, DWORD PTR [esi+84]
  000c8	51		 push	 ecx
  000c9	50		 push	 eax
  000ca	52		 push	 edx
  000cb	53		 push	 ebx
  000cc	8b ce		 mov	 ecx, esi
  000ce	e8 00 00 00 00	 call	 ?PlayerReward@CAchievements@@QAEXHHHH@Z ; CAchievements::PlayerReward
  000d3	8b 4d 0c	 mov	 ecx, DWORD PTR _iItemNum$[ebp]
$LN10@PickUp:

; 702  : 		}
; 703  : 	}
; 704  : 	//i17_PickUpExellent
; 705  : 	if(this->m_config.i17_PickUpExellent > lpUser->ach.mission.i17_PickUpExellent)

  000d6	8b 87 70 29 00
	00		 mov	 eax, DWORD PTR [edi+10608]
  000dc	39 46 58	 cmp	 DWORD PTR [esi+88], eax
  000df	76 24		 jbe	 SHORT $LN21@PickUp

; 706  : 	{
; 707  : 		if(iExl > 0)

  000e1	83 7d 14 00	 cmp	 DWORD PTR _iExl$[ebp], 0
  000e5	7e 1e		 jle	 SHORT $LN21@PickUp

; 708  : 		{
; 709  : 			lpUser->ach.mission.i17_PickUpExellent++;

  000e7	40		 inc	 eax
  000e8	89 87 70 29 00
	00		 mov	 DWORD PTR [edi+10608], eax

; 710  : 			this->PlayerReward(aIndex, this->m_config.i17_PickUpExellent, lpUser->ach.mission.i17_PickUpExellent, this->m_reward.i17_PickUpExellent);

  000ee	8b 8e 20 01 00
	00		 mov	 ecx, DWORD PTR [esi+288]
  000f4	8b 56 58	 mov	 edx, DWORD PTR [esi+88]
  000f7	51		 push	 ecx
  000f8	50		 push	 eax
  000f9	52		 push	 edx
  000fa	53		 push	 ebx
  000fb	8b ce		 mov	 ecx, esi
  000fd	e8 00 00 00 00	 call	 ?PlayerReward@CAchievements@@QAEXHHHH@Z ; CAchievements::PlayerReward
  00102	8b 4d 0c	 mov	 ecx, DWORD PTR _iItemNum$[ebp]
$LN21@PickUp:

; 711  : 		}
; 712  : 	}
; 713  : 	//i18_PickUpAncent
; 714  : 	if(this->m_config.i18_PickUpAncent > lpUser->ach.mission.i18_PickUpAncent)

  00105	8b 87 74 29 00
	00		 mov	 eax, DWORD PTR [edi+10612]
  0010b	39 46 5c	 cmp	 DWORD PTR [esi+92], eax
  0010e	76 24		 jbe	 SHORT $LN6@PickUp

; 715  : 	{
; 716  : 		if(iAnc > 0)

  00110	83 7d 18 00	 cmp	 DWORD PTR _iAnc$[ebp], 0
  00114	7e 1e		 jle	 SHORT $LN6@PickUp

; 717  : 		{
; 718  : 			lpUser->ach.mission.i18_PickUpAncent++;

  00116	40		 inc	 eax
  00117	89 87 74 29 00
	00		 mov	 DWORD PTR [edi+10612], eax

; 719  : 			this->PlayerReward(aIndex, this->m_config.i18_PickUpAncent, lpUser->ach.mission.i18_PickUpAncent, this->m_reward.i18_PickUpAncent);

  0011d	8b 8e 24 01 00
	00		 mov	 ecx, DWORD PTR [esi+292]
  00123	8b 56 5c	 mov	 edx, DWORD PTR [esi+92]
  00126	51		 push	 ecx
  00127	50		 push	 eax
  00128	52		 push	 edx
  00129	53		 push	 ebx
  0012a	8b ce		 mov	 ecx, esi
  0012c	e8 00 00 00 00	 call	 ?PlayerReward@CAchievements@@QAEXHHHH@Z ; CAchievements::PlayerReward
  00131	8b 4d 0c	 mov	 ecx, DWORD PTR _iItemNum$[ebp]
$LN6@PickUp:

; 720  : 		}
; 721  : 	}
; 722  : 	//i48_PickUpSing
; 723  : 	if(this->m_config.i48_PickUpRena > lpUser->ach.mission.i48_PickUpRena)

  00134	8b 87 ec 29 00
	00		 mov	 eax, DWORD PTR [edi+10732]
  0013a	39 86 d4 00 00
	00		 cmp	 DWORD PTR [esi+212], eax
  00140	76 2f		 jbe	 SHORT $LN22@PickUp

; 724  : 	{
; 725  : 		if(iItemNum == ITEMGET(14,21) && iLevel == 0)

  00142	81 f9 15 1c 00
	00		 cmp	 ecx, 7189		; 00001c15H
  00148	75 27		 jne	 SHORT $LN22@PickUp
  0014a	83 7d 10 00	 cmp	 DWORD PTR _iLevel$[ebp], 0
  0014e	75 21		 jne	 SHORT $LN22@PickUp

; 726  : 		{
; 727  : 			lpUser->ach.mission.i48_PickUpRena++;

  00150	40		 inc	 eax
  00151	89 87 ec 29 00
	00		 mov	 DWORD PTR [edi+10732], eax

; 728  : 			this->PlayerReward(aIndex, this->m_config.i48_PickUpRena, lpUser->ach.mission.i48_PickUpRena, this->m_reward.i48_PickUpRena);

  00157	8b 8e 9c 01 00
	00		 mov	 ecx, DWORD PTR [esi+412]
  0015d	8b 96 d4 00 00
	00		 mov	 edx, DWORD PTR [esi+212]
  00163	51		 push	 ecx
  00164	50		 push	 eax
  00165	52		 push	 edx
  00166	53		 push	 ebx
  00167	8b ce		 mov	 ecx, esi
  00169	e8 00 00 00 00	 call	 ?PlayerReward@CAchievements@@QAEXHHHH@Z ; CAchievements::PlayerReward
  0016e	8b 4d 0c	 mov	 ecx, DWORD PTR _iItemNum$[ebp]
$LN22@PickUp:

; 729  : 		}
; 730  : 	}
; 731  : 	//i49_PickUpLuckyCoins Sing of lord
; 732  : 	if(this->m_config.i49_PickUpLuckyCoins > lpUser->ach.mission.i49_PickUpLuckyCoins)

  00171	8b 87 f0 29 00
	00		 mov	 eax, DWORD PTR [edi+10736]
  00177	39 86 d8 00 00
	00		 cmp	 DWORD PTR [esi+216], eax
  0017d	76 44		 jbe	 SHORT $LN26@PickUp

; 733  : 	{
; 734  : 		//if(iItemNum == ITEMGET(14,100))
; 735  : 		if(iItemNum == ITEMGET(14,21) && iLevel == 3)

  0017f	81 f9 15 1c 00
	00		 cmp	 ecx, 7189		; 00001c15H
  00185	75 3c		 jne	 SHORT $LN26@PickUp
  00187	83 7d 10 03	 cmp	 DWORD PTR _iLevel$[ebp], 3
  0018b	75 36		 jne	 SHORT $LN26@PickUp

; 736  : 		{
; 737  : 			//lpUser->ach.mission.i49_PickUpLuckyCoins++;
; 738  : 			lpUser->ach.mission.i49_PickUpLuckyCoins += iDur;

  0018d	03 45 1c	 add	 eax, DWORD PTR _iDur$[ebp]
  00190	89 87 f0 29 00
	00		 mov	 DWORD PTR [edi+10736], eax

; 739  : 
; 740  : 			if(lpUser->ach.mission.i49_PickUpLuckyCoins > this->m_config.i49_PickUpLuckyCoins)

  00196	8b 8e d8 00 00
	00		 mov	 ecx, DWORD PTR [esi+216]
  0019c	3b c1		 cmp	 eax, ecx
  0019e	76 06		 jbe	 SHORT $LN1@PickUp

; 741  : 			{
; 742  : 				lpUser->ach.mission.i49_PickUpLuckyCoins = this->m_config.i49_PickUpLuckyCoins;

  001a0	89 8f f0 29 00
	00		 mov	 DWORD PTR [edi+10736], ecx
$LN1@PickUp:

; 743  : 			}
; 744  : 
; 745  : 			this->PlayerReward(aIndex, this->m_config.i49_PickUpLuckyCoins, lpUser->ach.mission.i49_PickUpLuckyCoins, this->m_reward.i49_PickUpLuckyCoins);

  001a6	8b 96 a0 01 00
	00		 mov	 edx, DWORD PTR [esi+416]
  001ac	8b 87 f0 29 00
	00		 mov	 eax, DWORD PTR [edi+10736]
  001b2	8b 8e d8 00 00
	00		 mov	 ecx, DWORD PTR [esi+216]
  001b8	52		 push	 edx
  001b9	50		 push	 eax
  001ba	51		 push	 ecx
  001bb	53		 push	 ebx
  001bc	8b ce		 mov	 ecx, esi
  001be	e8 00 00 00 00	 call	 ?PlayerReward@CAchievements@@QAEXHHHH@Z ; CAchievements::PlayerReward
$LN26@PickUp:
  001c3	5f		 pop	 edi
$LN25@PickUp:
  001c4	5b		 pop	 ebx
$LN2@PickUp:
  001c5	5e		 pop	 esi

; 746  : 		}
; 747  : 	}
; 748  : }

  001c6	5d		 pop	 ebp
  001c7	c2 18 00	 ret	 24			; 00000018H
?PickUp@CAchievements@@QAEXHHHHHH@Z ENDP		; CAchievements::PickUp
_TEXT	ENDS
PUBLIC	?UsedJewel@CAchievements@@QAEXH@Z		; CAchievements::UsedJewel
; Function compile flags: /Ogtp
;	COMDAT ?UsedJewel@CAchievements@@QAEXH@Z
_TEXT	SEGMENT
_aIndex$ = 8						; size = 4
?UsedJewel@CAchievements@@QAEXH@Z PROC			; CAchievements::UsedJewel, COMDAT
; _this$ = ecx

; 751  : {

  00000	55		 push	 ebp
  00001	8b ec		 mov	 ebp, esp
  00003	56		 push	 esi
  00004	8b f1		 mov	 esi, ecx

; 752  : 	if(!this->bEnable)

  00006	80 7e 14 00	 cmp	 BYTE PTR [esi+20], 0
  0000a	74 4f		 je	 SHORT $LN1@UsedJewel

; 753  : 	{
; 754  : 		return;
; 755  : 	}
; 756  : 
; 757  : 	if(!gObjIsConnected(aIndex))

  0000c	57		 push	 edi
  0000d	8b 7d 08	 mov	 edi, DWORD PTR _aIndex$[ebp]
  00010	57		 push	 edi
  00011	e8 00 00 00 00	 call	 ?gObjIsConnected@@YAHH@Z ; gObjIsConnected
  00016	83 c4 04	 add	 esp, 4
  00019	85 c0		 test	 eax, eax
  0001b	74 3d		 je	 SHORT $LN7@UsedJewel

; 758  : 	{
; 759  : 		return;
; 760  : 	}
; 761  : 
; 762  : 	LPOBJ lpUser = &gObj[aIndex];

  0001d	8b c7		 mov	 eax, edi
  0001f	69 c0 50 2b 00
	00		 imul	 eax, 11088		; 00002b50H
  00025	03 05 00 00 00
	00		 add	 eax, DWORD PTR ?gObj@@3PAUOBJECTSTRUCT@@A ; gObj

; 763  : 
; 764  : 	if(!lpUser->ach.bLoaded)

  0002b	80 b8 20 29 00
	00 00		 cmp	 BYTE PTR [eax+10528], 0
  00032	74 26		 je	 SHORT $LN7@UsedJewel

; 765  : 	{
; 766  : 		return;
; 767  : 	}
; 768  : 
; 769  : 	//i13_UsedJewels
; 770  : 	if(this->m_config.i13_UsedJewels > lpUser->ach.mission.i13_UsedJewels)

  00034	8b 88 60 29 00
	00		 mov	 ecx, DWORD PTR [eax+10592]
  0003a	39 4e 48	 cmp	 DWORD PTR [esi+72], ecx
  0003d	76 1b		 jbe	 SHORT $LN7@UsedJewel

; 771  : 	{
; 772  : 		lpUser->ach.mission.i13_UsedJewels++;

  0003f	41		 inc	 ecx
  00040	89 88 60 29 00
	00		 mov	 DWORD PTR [eax+10592], ecx

; 773  : 		this->PlayerReward(aIndex, this->m_config.i13_UsedJewels, lpUser->ach.mission.i13_UsedJewels, this->m_reward.i13_UsedJewels);

  00046	8b 86 10 01 00
	00		 mov	 eax, DWORD PTR [esi+272]
  0004c	50		 push	 eax
  0004d	51		 push	 ecx
  0004e	8b 4e 48	 mov	 ecx, DWORD PTR [esi+72]
  00051	51		 push	 ecx
  00052	57		 push	 edi
  00053	8b ce		 mov	 ecx, esi
  00055	e8 00 00 00 00	 call	 ?PlayerReward@CAchievements@@QAEXHHHH@Z ; CAchievements::PlayerReward
$LN7@UsedJewel:
  0005a	5f		 pop	 edi
$LN1@UsedJewel:
  0005b	5e		 pop	 esi

; 774  : 	}
; 775  : }

  0005c	5d		 pop	 ebp
  0005d	c2 04 00	 ret	 4
?UsedJewel@CAchievements@@QAEXH@Z ENDP			; CAchievements::UsedJewel
_TEXT	ENDS
PUBLIC	?TimeInGame@CAchievements@@QAEXH@Z		; CAchievements::TimeInGame
; Function compile flags: /Ogtp
;	COMDAT ?TimeInGame@CAchievements@@QAEXH@Z
_TEXT	SEGMENT
_iCrownIndex2$211333 = -4				; size = 4
_iCrownIndex1$211332 = 8				; size = 4
_aIndex$ = 8						; size = 4
?TimeInGame@CAchievements@@QAEXH@Z PROC			; CAchievements::TimeInGame, COMDAT
; _this$ = ecx

; 778  : {

  00000	55		 push	 ebp
  00001	8b ec		 mov	 ebp, esp
  00003	51		 push	 ecx
  00004	57		 push	 edi
  00005	8b f9		 mov	 edi, ecx

; 779  : 	if(!this->bEnable)

  00007	80 7f 14 00	 cmp	 BYTE PTR [edi+20], 0
  0000b	0f 84 6b 01 00
	00		 je	 $LN1@TimeInGame

; 780  : 	{
; 781  : 		return;
; 782  : 	}
; 783  : 
; 784  : 	if(!gObjIsConnected(aIndex))

  00011	53		 push	 ebx
  00012	8b 5d 08	 mov	 ebx, DWORD PTR _aIndex$[ebp]
  00015	53		 push	 ebx
  00016	e8 00 00 00 00	 call	 ?gObjIsConnected@@YAHH@Z ; gObjIsConnected
  0001b	83 c4 04	 add	 esp, 4
  0001e	85 c0		 test	 eax, eax
  00020	0f 84 55 01 00
	00		 je	 $LN21@TimeInGame

; 785  : 	{
; 786  : 		return;
; 787  : 	}
; 788  : 
; 789  : 	LPOBJ lpUser = &gObj[aIndex];

  00026	56		 push	 esi
  00027	8b f3		 mov	 esi, ebx
  00029	69 f6 50 2b 00
	00		 imul	 esi, 11088		; 00002b50H
  0002f	03 35 00 00 00
	00		 add	 esi, DWORD PTR ?gObj@@3PAUOBJECTSTRUCT@@A ; gObj

; 790  : 
; 791  : 	if(!lpUser->ach.bLoaded)

  00035	80 be 20 29 00
	00 00		 cmp	 BYTE PTR [esi+10528], 0
  0003c	0f 84 38 01 00
	00		 je	 $LN22@TimeInGame

; 792  : 	{
; 793  : 		return;
; 794  : 	}
; 795  : 
; 796  : 	//i11_OnlineTime
; 797  : 	if(this->m_config.i11_OnlineTime > lpUser->ach.mission.i11_OnlineTime)

  00042	8b 86 58 29 00
	00		 mov	 eax, DWORD PTR [esi+10584]
  00048	39 47 40	 cmp	 DWORD PTR [edi+64], eax
  0004b	76 37		 jbe	 SHORT $LN18@TimeInGame

; 798  : 	{
; 799  : 		lpUser->ach.InGameTime++;

  0004d	ff 86 24 29 00
	00		 inc	 DWORD PTR [esi+10532]

; 800  : 		if(lpUser->ach.InGameTime >= 3600)

  00053	81 be 24 29 00
	00 10 0e 00 00	 cmp	 DWORD PTR [esi+10532], 3600 ; 00000e10H
  0005d	7c 25		 jl	 SHORT $LN18@TimeInGame

; 801  : 		{
; 802  : 			lpUser->ach.mission.i11_OnlineTime++;

  0005f	40		 inc	 eax
  00060	89 86 58 29 00
	00		 mov	 DWORD PTR [esi+10584], eax

; 803  : 			this->PlayerReward(aIndex, this->m_config.i11_OnlineTime, lpUser->ach.mission.i11_OnlineTime, this->m_reward.i11_OnlineTime);

  00066	8b 8f 08 01 00
	00		 mov	 ecx, DWORD PTR [edi+264]
  0006c	8b 57 40	 mov	 edx, DWORD PTR [edi+64]
  0006f	51		 push	 ecx
  00070	50		 push	 eax
  00071	52		 push	 edx
  00072	53		 push	 ebx
  00073	8b cf		 mov	 ecx, edi
  00075	e8 00 00 00 00	 call	 ?PlayerReward@CAchievements@@QAEXHHHH@Z ; CAchievements::PlayerReward

; 804  : 			lpUser->ach.InGameTime = 0;

  0007a	c7 86 24 29 00
	00 00 00 00 00	 mov	 DWORD PTR [esi+10532], 0
$LN18@TimeInGame:

; 805  : 		}
; 806  : 	}
; 807  : 	//i39_WithstandSwitch10min
; 808  : 	if(this->m_config.i39_WithstandSwitch10min > lpUser->ach.mission.i39_WithstandSwitch10min)

  00084	8b 87 b0 00 00
	00		 mov	 eax, DWORD PTR [edi+176]
  0008a	3b 86 c8 29 00
	00		 cmp	 eax, DWORD PTR [esi+10696]
  00090	0f 86 8a 00 00
	00		 jbe	 $LN20@TimeInGame

; 809  : 	{
; 810  : 		int iCrownIndex1 = g_CastleSiege.GetCrownSwitchUserIndex(217);

  00096	68 d9 00 00 00	 push	 217			; 000000d9H
  0009b	b9 00 00 00 00	 mov	 ecx, OFFSET ?g_CastleSiege@@3VCCastleSiege@@A ; g_CastleSiege
  000a0	e8 00 00 00 00	 call	 ?GetCrownSwitchUserIndex@CCastleSiege@@QAEHH@Z ; CCastleSiege::GetCrownSwitchUserIndex

; 811  : 		int iCrownIndex2 = g_CastleSiege.GetCrownSwitchUserIndex(218);

  000a5	68 da 00 00 00	 push	 218			; 000000daH
  000aa	b9 00 00 00 00	 mov	 ecx, OFFSET ?g_CastleSiege@@3VCCastleSiege@@A ; g_CastleSiege
  000af	89 45 08	 mov	 DWORD PTR _iCrownIndex1$211332[ebp], eax
  000b2	e8 00 00 00 00	 call	 ?GetCrownSwitchUserIndex@CCastleSiege@@QAEHH@Z ; CCastleSiege::GetCrownSwitchUserIndex

; 812  : 
; 813  : 		if(gObjIsConnected(iCrownIndex1) || gObjIsConnected(iCrownIndex2))

  000b7	8b 4d 08	 mov	 ecx, DWORD PTR _iCrownIndex1$211332[ebp]
  000ba	51		 push	 ecx
  000bb	89 45 fc	 mov	 DWORD PTR _iCrownIndex2$211333[ebp], eax
  000be	e8 00 00 00 00	 call	 ?gObjIsConnected@@YAHH@Z ; gObjIsConnected
  000c3	83 c4 04	 add	 esp, 4
  000c6	85 c0		 test	 eax, eax
  000c8	75 10		 jne	 SHORT $LN8@TimeInGame
  000ca	8b 55 fc	 mov	 edx, DWORD PTR _iCrownIndex2$211333[ebp]
  000cd	52		 push	 edx
  000ce	e8 00 00 00 00	 call	 ?gObjIsConnected@@YAHH@Z ; gObjIsConnected
  000d3	83 c4 04	 add	 esp, 4
  000d6	85 c0		 test	 eax, eax
  000d8	74 46		 je	 SHORT $LN20@TimeInGame
$LN8@TimeInGame:

; 814  : 		{
; 815  : 			if(aIndex == iCrownIndex1 || aIndex == iCrownIndex2)

  000da	3b 5d 08	 cmp	 ebx, DWORD PTR _iCrownIndex1$211332[ebp]
  000dd	74 05		 je	 SHORT $LN6@TimeInGame
  000df	3b 5d fc	 cmp	 ebx, DWORD PTR _iCrownIndex2$211333[ebp]
  000e2	75 3c		 jne	 SHORT $LN20@TimeInGame
$LN6@TimeInGame:

; 816  : 			{
; 817  : 				lpUser->ach.CSSwitchTime++;

  000e4	ff 86 2c 29 00
	00		 inc	 DWORD PTR [esi+10540]

; 818  : 				if(lpUser->ach.CSSwitchTime >= 60)

  000ea	83 be 2c 29 00
	00 3c		 cmp	 DWORD PTR [esi+10540], 60 ; 0000003cH
  000f1	7c 2d		 jl	 SHORT $LN20@TimeInGame

; 819  : 				{
; 820  : 					lpUser->ach.mission.i39_WithstandSwitch10min++;

  000f3	ff 86 c8 29 00
	00		 inc	 DWORD PTR [esi+10696]

; 821  : 					this->PlayerReward(aIndex, this->m_config.i39_WithstandSwitch10min, lpUser->ach.mission.i39_WithstandSwitch10min, this->m_reward.i39_WithstandSwitch10min);

  000f9	8b 8f 78 01 00
	00		 mov	 ecx, DWORD PTR [edi+376]
  000ff	8b 86 c8 29 00
	00		 mov	 eax, DWORD PTR [esi+10696]
  00105	8b 97 b0 00 00
	00		 mov	 edx, DWORD PTR [edi+176]
  0010b	51		 push	 ecx
  0010c	50		 push	 eax
  0010d	52		 push	 edx
  0010e	53		 push	 ebx
  0010f	8b cf		 mov	 ecx, edi
  00111	e8 00 00 00 00	 call	 ?PlayerReward@CAchievements@@QAEXHHHH@Z ; CAchievements::PlayerReward

; 822  : 					lpUser->ach.CSSwitchTime = 0;

  00116	c7 86 2c 29 00
	00 00 00 00 00	 mov	 DWORD PTR [esi+10540], 0
$LN20@TimeInGame:

; 823  : 				}
; 824  : 			}
; 825  : 		}
; 826  : 	}
; 827  : 	//i50_OfflineAttackTime
; 828  : 	if(this->m_config.i50_OfflineAttackTime > lpUser->ach.mission.i50_OfflineAttackTime)

  00120	8b 86 f4 29 00
	00		 mov	 eax, DWORD PTR [esi+10740]
  00126	39 87 dc 00 00
	00		 cmp	 DWORD PTR [edi+220], eax
  0012c	76 4c		 jbe	 SHORT $LN22@TimeInGame

; 829  : 	{
; 830  : #if(GAMESERVER_ACHIVEMENTS==ZTTEAM_SERVER)
; 831  : 		if(lpUser->m_OfflineMode || lpUser->OffExp)

  0012e	80 be d4 28 00
	00 00		 cmp	 BYTE PTR [esi+10452], 0
  00135	75 09		 jne	 SHORT $LN2@TimeInGame
  00137	83 be 98 22 00
	00 00		 cmp	 DWORD PTR [esi+8856], 0
  0013e	74 3a		 je	 SHORT $LN22@TimeInGame
$LN2@TimeInGame:

; 832  : #endif
; 833  : #if(GAMESERVER_ACHIVEMENTS==EXGAME_SERVER)
; 834  : 		if(lpUser->m_OfflineMode)
; 835  : #endif
; 836  : #if(GAMESERVER_ACHIVEMENTS==ZTEAM_SERVER)
; 837  : 		if(lpUser->OffExp)
; 838  : #endif
; 839  : 		{
; 840  : 			lpUser->ach.InOfflineAttackTime++;

  00140	ff 86 28 29 00
	00		 inc	 DWORD PTR [esi+10536]

; 841  : 			if(lpUser->ach.InOfflineAttackTime >= 3600)

  00146	81 be 28 29 00
	00 10 0e 00 00	 cmp	 DWORD PTR [esi+10536], 3600 ; 00000e10H
  00150	7c 28		 jl	 SHORT $LN22@TimeInGame

; 842  : 			{
; 843  : 				lpUser->ach.mission.i50_OfflineAttackTime++;

  00152	40		 inc	 eax
  00153	89 86 f4 29 00
	00		 mov	 DWORD PTR [esi+10740], eax

; 844  : 				this->PlayerReward(aIndex, this->m_config.i50_OfflineAttackTime, lpUser->ach.mission.i50_OfflineAttackTime, this->m_reward.i50_OfflineAttackTime);

  00159	8b 8f a4 01 00
	00		 mov	 ecx, DWORD PTR [edi+420]
  0015f	8b 97 dc 00 00
	00		 mov	 edx, DWORD PTR [edi+220]
  00165	51		 push	 ecx
  00166	50		 push	 eax
  00167	52		 push	 edx
  00168	53		 push	 ebx
  00169	8b cf		 mov	 ecx, edi
  0016b	e8 00 00 00 00	 call	 ?PlayerReward@CAchievements@@QAEXHHHH@Z ; CAchievements::PlayerReward

; 845  : 				lpUser->ach.InOfflineAttackTime = 0;

  00170	c7 86 28 29 00
	00 00 00 00 00	 mov	 DWORD PTR [esi+10536], 0
$LN22@TimeInGame:
  0017a	5e		 pop	 esi
$LN21@TimeInGame:
  0017b	5b		 pop	 ebx
$LN1@TimeInGame:
  0017c	5f		 pop	 edi

; 846  : 			}
; 847  : 		}
; 848  : 	}
; 849  : }

  0017d	8b e5		 mov	 esp, ebp
  0017f	5d		 pop	 ebp
  00180	c2 04 00	 ret	 4
?TimeInGame@CAchievements@@QAEXH@Z ENDP			; CAchievements::TimeInGame
_TEXT	ENDS
PUBLIC	?SuccessChaosMix@CAchievements@@QAEXH@Z		; CAchievements::SuccessChaosMix
; Function compile flags: /Ogtp
;	COMDAT ?SuccessChaosMix@CAchievements@@QAEXH@Z
_TEXT	SEGMENT
_aIndex$ = 8						; size = 4
?SuccessChaosMix@CAchievements@@QAEXH@Z PROC		; CAchievements::SuccessChaosMix, COMDAT
; _this$ = ecx

; 852  : {

  00000	55		 push	 ebp
  00001	8b ec		 mov	 ebp, esp
  00003	56		 push	 esi
  00004	8b f1		 mov	 esi, ecx

; 853  : 	if(!this->bEnable)

  00006	80 7e 14 00	 cmp	 BYTE PTR [esi+20], 0
  0000a	74 4f		 je	 SHORT $LN1@SuccessCha

; 854  : 	{
; 855  : 		return;
; 856  : 	}
; 857  : 
; 858  : 	if(!gObjIsConnected(aIndex))

  0000c	57		 push	 edi
  0000d	8b 7d 08	 mov	 edi, DWORD PTR _aIndex$[ebp]
  00010	57		 push	 edi
  00011	e8 00 00 00 00	 call	 ?gObjIsConnected@@YAHH@Z ; gObjIsConnected
  00016	83 c4 04	 add	 esp, 4
  00019	85 c0		 test	 eax, eax
  0001b	74 3d		 je	 SHORT $LN7@SuccessCha

; 859  : 	{
; 860  : 		return;
; 861  : 	}
; 862  : 
; 863  : 	LPOBJ lpUser = &gObj[aIndex];

  0001d	8b c7		 mov	 eax, edi
  0001f	69 c0 50 2b 00
	00		 imul	 eax, 11088		; 00002b50H
  00025	03 05 00 00 00
	00		 add	 eax, DWORD PTR ?gObj@@3PAUOBJECTSTRUCT@@A ; gObj

; 864  : 
; 865  : 	if(!lpUser->ach.bLoaded)

  0002b	80 b8 20 29 00
	00 00		 cmp	 BYTE PTR [eax+10528], 0
  00032	74 26		 je	 SHORT $LN7@SuccessCha

; 866  : 	{
; 867  : 		return;
; 868  : 	}
; 869  : 
; 870  : 	//i14_SuccessChaosMix
; 871  : 	if(this->m_config.i14_SuccessChaosMix > lpUser->ach.mission.i14_SuccessChaosMix)

  00034	8b 88 64 29 00
	00		 mov	 ecx, DWORD PTR [eax+10596]
  0003a	39 4e 4c	 cmp	 DWORD PTR [esi+76], ecx
  0003d	76 1b		 jbe	 SHORT $LN7@SuccessCha

; 872  : 	{
; 873  : 		lpUser->ach.mission.i14_SuccessChaosMix++;

  0003f	41		 inc	 ecx
  00040	89 88 64 29 00
	00		 mov	 DWORD PTR [eax+10596], ecx

; 874  : 		this->PlayerReward(aIndex, this->m_config.i14_SuccessChaosMix, lpUser->ach.mission.i14_SuccessChaosMix, this->m_reward.i14_SuccessChaosMix);

  00046	8b 86 14 01 00
	00		 mov	 eax, DWORD PTR [esi+276]
  0004c	50		 push	 eax
  0004d	51		 push	 ecx
  0004e	8b 4e 4c	 mov	 ecx, DWORD PTR [esi+76]
  00051	51		 push	 ecx
  00052	57		 push	 edi
  00053	8b ce		 mov	 ecx, esi
  00055	e8 00 00 00 00	 call	 ?PlayerReward@CAchievements@@QAEXHHHH@Z ; CAchievements::PlayerReward
$LN7@SuccessCha:
  0005a	5f		 pop	 edi
$LN1@SuccessCha:
  0005b	5e		 pop	 esi

; 875  : 	}
; 876  : }

  0005c	5d		 pop	 ebp
  0005d	c2 04 00	 ret	 4
?SuccessChaosMix@CAchievements@@QAEXH@Z ENDP		; CAchievements::SuccessChaosMix
_TEXT	ENDS
PUBLIC	?FailedChaosMix@CAchievements@@QAEXH@Z		; CAchievements::FailedChaosMix
; Function compile flags: /Ogtp
;	COMDAT ?FailedChaosMix@CAchievements@@QAEXH@Z
_TEXT	SEGMENT
_aIndex$ = 8						; size = 4
?FailedChaosMix@CAchievements@@QAEXH@Z PROC		; CAchievements::FailedChaosMix, COMDAT
; _this$ = ecx

; 879  : {

  00000	55		 push	 ebp
  00001	8b ec		 mov	 ebp, esp
  00003	56		 push	 esi
  00004	8b f1		 mov	 esi, ecx

; 880  : 	if(!this->bEnable)

  00006	80 7e 14 00	 cmp	 BYTE PTR [esi+20], 0
  0000a	74 4f		 je	 SHORT $LN1@FailedChao

; 881  : 	{
; 882  : 		return;
; 883  : 	}
; 884  : 
; 885  : 	if(!gObjIsConnected(aIndex))

  0000c	57		 push	 edi
  0000d	8b 7d 08	 mov	 edi, DWORD PTR _aIndex$[ebp]
  00010	57		 push	 edi
  00011	e8 00 00 00 00	 call	 ?gObjIsConnected@@YAHH@Z ; gObjIsConnected
  00016	83 c4 04	 add	 esp, 4
  00019	85 c0		 test	 eax, eax
  0001b	74 3d		 je	 SHORT $LN7@FailedChao

; 886  : 	{
; 887  : 		return;
; 888  : 	}
; 889  : 
; 890  : 	LPOBJ lpUser = &gObj[aIndex];

  0001d	8b c7		 mov	 eax, edi
  0001f	69 c0 50 2b 00
	00		 imul	 eax, 11088		; 00002b50H
  00025	03 05 00 00 00
	00		 add	 eax, DWORD PTR ?gObj@@3PAUOBJECTSTRUCT@@A ; gObj

; 891  : 
; 892  : 	if(!lpUser->ach.bLoaded)

  0002b	80 b8 20 29 00
	00 00		 cmp	 BYTE PTR [eax+10528], 0
  00032	74 26		 je	 SHORT $LN7@FailedChao

; 893  : 	{
; 894  : 		return;
; 895  : 	}
; 896  : 
; 897  : 	//i15_FailedChaosMix
; 898  : 	if(this->m_config.i15_FailedChaosMix > lpUser->ach.mission.i15_FailedChaosMix)

  00034	8b 88 68 29 00
	00		 mov	 ecx, DWORD PTR [eax+10600]
  0003a	39 4e 50	 cmp	 DWORD PTR [esi+80], ecx
  0003d	76 1b		 jbe	 SHORT $LN7@FailedChao

; 899  : 	{
; 900  : 		lpUser->ach.mission.i15_FailedChaosMix++;

  0003f	41		 inc	 ecx
  00040	89 88 68 29 00
	00		 mov	 DWORD PTR [eax+10600], ecx

; 901  : 		this->PlayerReward(aIndex, this->m_config.i15_FailedChaosMix, lpUser->ach.mission.i15_FailedChaosMix, this->m_reward.i15_FailedChaosMix);

  00046	8b 86 18 01 00
	00		 mov	 eax, DWORD PTR [esi+280]
  0004c	50		 push	 eax
  0004d	51		 push	 ecx
  0004e	8b 4e 50	 mov	 ecx, DWORD PTR [esi+80]
  00051	51		 push	 ecx
  00052	57		 push	 edi
  00053	8b ce		 mov	 ecx, esi
  00055	e8 00 00 00 00	 call	 ?PlayerReward@CAchievements@@QAEXHHHH@Z ; CAchievements::PlayerReward
$LN7@FailedChao:
  0005a	5f		 pop	 edi
$LN1@FailedChao:
  0005b	5e		 pop	 esi

; 902  : 	}
; 903  : }

  0005c	5d		 pop	 ebp
  0005d	c2 04 00	 ret	 4
?FailedChaosMix@CAchievements@@QAEXH@Z ENDP		; CAchievements::FailedChaosMix
_TEXT	ENDS
PUBLIC	?LevelUp@CAchievements@@QAEXH@Z			; CAchievements::LevelUp
EXTRN	?gParty@@3VPartyClass@@A:BYTE			; gParty
; Function compile flags: /Ogtp
;	COMDAT ?LevelUp@CAchievements@@QAEXH@Z
_TEXT	SEGMENT
_i$211373 = -8						; size = 4
tv289 = -4						; size = 4
_aIndex$ = 8						; size = 4
?LevelUp@CAchievements@@QAEXH@Z PROC			; CAchievements::LevelUp, COMDAT
; _this$ = ecx

; 906  : {

  00000	55		 push	 ebp
  00001	8b ec		 mov	 ebp, esp
  00003	83 ec 08	 sub	 esp, 8
  00006	53		 push	 ebx
  00007	8b d9		 mov	 ebx, ecx

; 907  : 	if(!this->bEnable)

  00009	80 7b 14 00	 cmp	 BYTE PTR [ebx+20], 0
  0000d	0f 84 02 01 00
	00		 je	 $LN3@LevelUp

; 908  : 	{
; 909  : 		return;
; 910  : 	}
; 911  : 
; 912  : 	if(!gObjIsConnected(aIndex))

  00013	57		 push	 edi
  00014	8b 7d 08	 mov	 edi, DWORD PTR _aIndex$[ebp]
  00017	57		 push	 edi
  00018	e8 00 00 00 00	 call	 ?gObjIsConnected@@YAHH@Z ; gObjIsConnected
  0001d	83 c4 04	 add	 esp, 4
  00020	85 c0		 test	 eax, eax
  00022	0f 84 ec 00 00
	00		 je	 $LN18@LevelUp

; 913  : 	{
; 914  : 		return;
; 915  : 	}
; 916  : 
; 917  : 	LPOBJ lpUser = &gObj[aIndex];

  00028	56		 push	 esi
  00029	8b f7		 mov	 esi, edi
  0002b	69 f6 50 2b 00
	00		 imul	 esi, 11088		; 00002b50H
  00031	03 35 00 00 00
	00		 add	 esi, DWORD PTR ?gObj@@3PAUOBJECTSTRUCT@@A ; gObj

; 918  : 
; 919  : 	if(!lpUser->ach.bLoaded)

  00037	80 be 20 29 00
	00 00		 cmp	 BYTE PTR [esi+10528], 0
  0003e	0f 84 cf 00 00
	00		 je	 $LN19@LevelUp

; 920  : 	{
; 921  : 		return;
; 922  : 	}
; 923  : 
; 924  : 	//i20_LevelUp
; 925  : 	if(this->m_config.i20_LevelUp > lpUser->ach.mission.i20_LevelUp)

  00044	8b 86 7c 29 00
	00		 mov	 eax, DWORD PTR [esi+10620]
  0004a	39 43 64	 cmp	 DWORD PTR [ebx+100], eax
  0004d	76 1b		 jbe	 SHORT $LN8@LevelUp

; 926  : 	{
; 927  : 		lpUser->ach.mission.i20_LevelUp++;

  0004f	40		 inc	 eax
  00050	89 86 7c 29 00
	00		 mov	 DWORD PTR [esi+10620], eax

; 928  : 		this->PlayerReward(aIndex, this->m_config.i20_LevelUp, lpUser->ach.mission.i20_LevelUp, this->m_reward.i20_LevelUp);

  00056	8b 8b 2c 01 00
	00		 mov	 ecx, DWORD PTR [ebx+300]
  0005c	8b 53 64	 mov	 edx, DWORD PTR [ebx+100]
  0005f	51		 push	 ecx
  00060	50		 push	 eax
  00061	52		 push	 edx
  00062	57		 push	 edi
  00063	8b cb		 mov	 ecx, ebx
  00065	e8 00 00 00 00	 call	 ?PlayerReward@CAchievements@@QAEXHHHH@Z ; CAchievements::PlayerReward
$LN8@LevelUp:

; 929  : 	}
; 930  : 	//i47_PartyNoobLevelUp
; 931  : 	if(this->m_config.i47_PartyNoobLevelUp > lpUser->ach.mission.i47_PartyNoobLevelUp)

  0006a	8b 83 d0 00 00
	00		 mov	 eax, DWORD PTR [ebx+208]
  00070	3b 86 e8 29 00
	00		 cmp	 eax, DWORD PTR [esi+10728]
  00076	0f 86 97 00 00
	00		 jbe	 $LN19@LevelUp

; 932  : 	{
; 933  : 		if(lpUser->PartyNumber >= 0)

  0007c	8b 86 2c 04 00
	00		 mov	 eax, DWORD PTR [esi+1068]
  00082	85 c0		 test	 eax, eax
  00084	0f 88 89 00 00
	00		 js	 $LN19@LevelUp

; 934  : 		{
; 935  : 			int iPartyNumber = lpUser->PartyNumber;

  0008a	6b c0 68	 imul	 eax, 104		; 00000068H
  0008d	05 0c 00 00 00	 add	 eax, OFFSET ?gParty@@3VPartyClass@@A+12

; 936  : 			for(int i = 0; i < MAX_USER_IN_PARTY; i++ )

  00092	c7 45 f8 00 00
	00 00		 mov	 DWORD PTR _i$211373[ebp], 0
  00099	89 45 fc	 mov	 DWORD PTR tv289[ebp], eax
  0009c	8d 64 24 00	 npad	 4
$LL17@LevelUp:

; 937  : 			{
; 938  : 				int aUserIndex = gParty.m_PartyS[iPartyNumber].Number[i];

  000a0	8b 4d fc	 mov	 ecx, DWORD PTR tv289[ebp]
  000a3	8b 39		 mov	 edi, DWORD PTR [ecx]

; 939  : 				if (gObjIsConnected(aUserIndex))

  000a5	57		 push	 edi
  000a6	e8 00 00 00 00	 call	 ?gObjIsConnected@@YAHH@Z ; gObjIsConnected
  000ab	83 c4 04	 add	 esp, 4
  000ae	85 c0		 test	 eax, eax
  000b0	74 22		 je	 SHORT $LN4@LevelUp

; 940  : 				{
; 941  : 					LPOBJ PartyUser = &gObj[aUserIndex];
; 942  : 					if(lpUser->Level > (PartyUser->Level+100))

  000b2	8b 15 00 00 00
	00		 mov	 edx, DWORD PTR ?gObj@@3PAUOBJECTSTRUCT@@A ; gObj
  000b8	69 ff 50 2b 00
	00		 imul	 edi, 11088		; 00002b50H
  000be	0f bf 84 17 be
	00 00 00	 movsx	 eax, WORD PTR [edi+edx+190]
  000c6	0f bf 8e be 00
	00 00		 movsx	 ecx, WORD PTR [esi+190]
  000cd	83 c0 64	 add	 eax, 100		; 00000064H
  000d0	3b c8		 cmp	 ecx, eax
  000d2	7f 19		 jg	 SHORT $LN15@LevelUp
$LN4@LevelUp:

; 936  : 			for(int i = 0; i < MAX_USER_IN_PARTY; i++ )

  000d4	8b 45 f8	 mov	 eax, DWORD PTR _i$211373[ebp]
  000d7	83 45 fc 04	 add	 DWORD PTR tv289[ebp], 4
  000db	40		 inc	 eax
  000dc	89 45 f8	 mov	 DWORD PTR _i$211373[ebp], eax
  000df	83 f8 0a	 cmp	 eax, 10			; 0000000aH
  000e2	7c bc		 jl	 SHORT $LL17@LevelUp
  000e4	5e		 pop	 esi
  000e5	5f		 pop	 edi
  000e6	5b		 pop	 ebx

; 946  : 						break;
; 947  : 					}		
; 948  : 				}
; 949  : 			}
; 950  : 		}
; 951  : 	}
; 952  : }

  000e7	8b e5		 mov	 esp, ebp
  000e9	5d		 pop	 ebp
  000ea	c2 04 00	 ret	 4
$LN15@LevelUp:

; 943  : 					{
; 944  : 						lpUser->ach.mission.i47_PartyNoobLevelUp++;

  000ed	ff 86 e8 29 00
	00		 inc	 DWORD PTR [esi+10728]

; 945  : 						this->PlayerReward(aIndex, this->m_config.i47_PartyNoobLevelUp, lpUser->ach.mission.i47_PartyNoobLevelUp, this->m_reward.i47_PartyNoobLevelUp);

  000f3	8b 93 98 01 00
	00		 mov	 edx, DWORD PTR [ebx+408]
  000f9	8b b6 e8 29 00
	00		 mov	 esi, DWORD PTR [esi+10728]
  000ff	8b 83 d0 00 00
	00		 mov	 eax, DWORD PTR [ebx+208]
  00105	8b 4d 08	 mov	 ecx, DWORD PTR _aIndex$[ebp]
  00108	52		 push	 edx
  00109	56		 push	 esi
  0010a	50		 push	 eax
  0010b	51		 push	 ecx
  0010c	8b cb		 mov	 ecx, ebx
  0010e	e8 00 00 00 00	 call	 ?PlayerReward@CAchievements@@QAEXHHHH@Z ; CAchievements::PlayerReward
$LN19@LevelUp:
  00113	5e		 pop	 esi
$LN18@LevelUp:
  00114	5f		 pop	 edi
$LN3@LevelUp:
  00115	5b		 pop	 ebx

; 946  : 						break;
; 947  : 					}		
; 948  : 				}
; 949  : 			}
; 950  : 		}
; 951  : 	}
; 952  : }

  00116	8b e5		 mov	 esp, ebp
  00118	5d		 pop	 ebp
  00119	c2 04 00	 ret	 4
?LevelUp@CAchievements@@QAEXH@Z ENDP			; CAchievements::LevelUp
_TEXT	ENDS
PUBLIC	?ResetUp@CAchievements@@QAEXH@Z			; CAchievements::ResetUp
; Function compile flags: /Ogtp
;	COMDAT ?ResetUp@CAchievements@@QAEXH@Z
_TEXT	SEGMENT
_aIndex$ = 8						; size = 4
?ResetUp@CAchievements@@QAEXH@Z PROC			; CAchievements::ResetUp, COMDAT
; _this$ = ecx

; 955  : {

  00000	55		 push	 ebp
  00001	8b ec		 mov	 ebp, esp
  00003	56		 push	 esi
  00004	8b f1		 mov	 esi, ecx

; 956  : 	if(!this->bEnable)

  00006	80 7e 14 00	 cmp	 BYTE PTR [esi+20], 0
  0000a	74 4f		 je	 SHORT $LN1@ResetUp

; 957  : 	{
; 958  : 		return;
; 959  : 	}
; 960  : 
; 961  : 	if(!gObjIsConnected(aIndex))

  0000c	57		 push	 edi
  0000d	8b 7d 08	 mov	 edi, DWORD PTR _aIndex$[ebp]
  00010	57		 push	 edi
  00011	e8 00 00 00 00	 call	 ?gObjIsConnected@@YAHH@Z ; gObjIsConnected
  00016	83 c4 04	 add	 esp, 4
  00019	85 c0		 test	 eax, eax
  0001b	74 3d		 je	 SHORT $LN7@ResetUp

; 962  : 	{
; 963  : 		return;
; 964  : 	}
; 965  : 
; 966  : 	LPOBJ lpUser = &gObj[aIndex];

  0001d	8b c7		 mov	 eax, edi
  0001f	69 c0 50 2b 00
	00		 imul	 eax, 11088		; 00002b50H
  00025	03 05 00 00 00
	00		 add	 eax, DWORD PTR ?gObj@@3PAUOBJECTSTRUCT@@A ; gObj

; 967  : 
; 968  : 	if(!lpUser->ach.bLoaded)

  0002b	80 b8 20 29 00
	00 00		 cmp	 BYTE PTR [eax+10528], 0
  00032	74 26		 je	 SHORT $LN7@ResetUp

; 969  : 	{
; 970  : 		return;
; 971  : 	}
; 972  : 
; 973  : 	//i21_ResetUp
; 974  : 	if(this->m_config.i21_ResetUp > lpUser->ach.mission.i21_ResetUp)

  00034	8b 88 80 29 00
	00		 mov	 ecx, DWORD PTR [eax+10624]
  0003a	39 4e 68	 cmp	 DWORD PTR [esi+104], ecx
  0003d	76 1b		 jbe	 SHORT $LN7@ResetUp

; 975  : 	{
; 976  : 		lpUser->ach.mission.i21_ResetUp++;

  0003f	41		 inc	 ecx
  00040	89 88 80 29 00
	00		 mov	 DWORD PTR [eax+10624], ecx

; 977  : 		this->PlayerReward(aIndex, this->m_config.i21_ResetUp, lpUser->ach.mission.i21_ResetUp, this->m_reward.i21_ResetUp);

  00046	8b 86 30 01 00
	00		 mov	 eax, DWORD PTR [esi+304]
  0004c	50		 push	 eax
  0004d	51		 push	 ecx
  0004e	8b 4e 68	 mov	 ecx, DWORD PTR [esi+104]
  00051	51		 push	 ecx
  00052	57		 push	 edi
  00053	8b ce		 mov	 ecx, esi
  00055	e8 00 00 00 00	 call	 ?PlayerReward@CAchievements@@QAEXHHHH@Z ; CAchievements::PlayerReward
$LN7@ResetUp:
  0005a	5f		 pop	 edi
$LN1@ResetUp:
  0005b	5e		 pop	 esi

; 978  : 	}
; 979  : }

  0005c	5d		 pop	 ebp
  0005d	c2 04 00	 ret	 4
?ResetUp@CAchievements@@QAEXH@Z ENDP			; CAchievements::ResetUp
_TEXT	ENDS
PUBLIC	?GrandResetUp@CAchievements@@QAEXH@Z		; CAchievements::GrandResetUp
; Function compile flags: /Ogtp
;	COMDAT ?GrandResetUp@CAchievements@@QAEXH@Z
_TEXT	SEGMENT
_aIndex$ = 8						; size = 4
?GrandResetUp@CAchievements@@QAEXH@Z PROC		; CAchievements::GrandResetUp, COMDAT
; _this$ = ecx

; 982  : {

  00000	55		 push	 ebp
  00001	8b ec		 mov	 ebp, esp
  00003	56		 push	 esi
  00004	8b f1		 mov	 esi, ecx

; 983  : 	if(!this->bEnable)

  00006	80 7e 14 00	 cmp	 BYTE PTR [esi+20], 0
  0000a	74 55		 je	 SHORT $LN1@GrandReset

; 984  : 	{
; 985  : 		return;
; 986  : 	}
; 987  : 
; 988  : 	if(!gObjIsConnected(aIndex))

  0000c	57		 push	 edi
  0000d	8b 7d 08	 mov	 edi, DWORD PTR _aIndex$[ebp]
  00010	57		 push	 edi
  00011	e8 00 00 00 00	 call	 ?gObjIsConnected@@YAHH@Z ; gObjIsConnected
  00016	83 c4 04	 add	 esp, 4
  00019	85 c0		 test	 eax, eax
  0001b	74 43		 je	 SHORT $LN7@GrandReset

; 989  : 	{
; 990  : 		return;
; 991  : 	}
; 992  : 
; 993  : 	LPOBJ lpUser = &gObj[aIndex];

  0001d	8b c7		 mov	 eax, edi
  0001f	69 c0 50 2b 00
	00		 imul	 eax, 11088		; 00002b50H
  00025	03 05 00 00 00
	00		 add	 eax, DWORD PTR ?gObj@@3PAUOBJECTSTRUCT@@A ; gObj

; 994  : 
; 995  : 	if(!lpUser->ach.bLoaded)

  0002b	80 b8 20 29 00
	00 00		 cmp	 BYTE PTR [eax+10528], 0
  00032	74 2c		 je	 SHORT $LN7@GrandReset

; 996  : 	{
; 997  : 		return;
; 998  : 	}
; 999  : 
; 1000 : 	//i33_GrandResetUp
; 1001 : 	if(this->m_config.i33_GrandResetUp > lpUser->ach.mission.i33_GrandResetUp)

  00034	8b 88 b0 29 00
	00		 mov	 ecx, DWORD PTR [eax+10672]
  0003a	39 8e 98 00 00
	00		 cmp	 DWORD PTR [esi+152], ecx
  00040	76 1e		 jbe	 SHORT $LN7@GrandReset

; 1002 : 	{
; 1003 : 		lpUser->ach.mission.i33_GrandResetUp++;

  00042	41		 inc	 ecx
  00043	89 88 b0 29 00
	00		 mov	 DWORD PTR [eax+10672], ecx

; 1004 : 		this->PlayerReward(aIndex, this->m_config.i33_GrandResetUp, lpUser->ach.mission.i33_GrandResetUp, this->m_reward.i33_GrandResetUp);

  00049	8b 86 60 01 00
	00		 mov	 eax, DWORD PTR [esi+352]
  0004f	50		 push	 eax
  00050	51		 push	 ecx
  00051	8b 8e 98 00 00
	00		 mov	 ecx, DWORD PTR [esi+152]
  00057	51		 push	 ecx
  00058	57		 push	 edi
  00059	8b ce		 mov	 ecx, esi
  0005b	e8 00 00 00 00	 call	 ?PlayerReward@CAchievements@@QAEXHHHH@Z ; CAchievements::PlayerReward
$LN7@GrandReset:
  00060	5f		 pop	 edi
$LN1@GrandReset:
  00061	5e		 pop	 esi

; 1005 : 	}
; 1006 : }

  00062	5d		 pop	 ebp
  00063	c2 04 00	 ret	 4
?GrandResetUp@CAchievements@@QAEXH@Z ENDP		; CAchievements::GrandResetUp
_TEXT	ENDS
PUBLIC	?MootopVoteUp@CAchievements@@QAEXH@Z		; CAchievements::MootopVoteUp
; Function compile flags: /Ogtp
;	COMDAT ?MootopVoteUp@CAchievements@@QAEXH@Z
_TEXT	SEGMENT
_aIndex$ = 8						; size = 4
?MootopVoteUp@CAchievements@@QAEXH@Z PROC		; CAchievements::MootopVoteUp, COMDAT
; _this$ = ecx

; 1009 : {

  00000	55		 push	 ebp
  00001	8b ec		 mov	 ebp, esp
  00003	56		 push	 esi
  00004	8b f1		 mov	 esi, ecx

; 1010 : 	if(!this->bEnable)

  00006	80 7e 14 00	 cmp	 BYTE PTR [esi+20], 0
  0000a	74 4f		 je	 SHORT $LN1@MootopVote

; 1011 : 	{
; 1012 : 		return;
; 1013 : 	}
; 1014 : 
; 1015 : 	if(!gObjIsConnected(aIndex))

  0000c	57		 push	 edi
  0000d	8b 7d 08	 mov	 edi, DWORD PTR _aIndex$[ebp]
  00010	57		 push	 edi
  00011	e8 00 00 00 00	 call	 ?gObjIsConnected@@YAHH@Z ; gObjIsConnected
  00016	83 c4 04	 add	 esp, 4
  00019	85 c0		 test	 eax, eax
  0001b	74 3d		 je	 SHORT $LN7@MootopVote

; 1016 : 	{
; 1017 : 		return;
; 1018 : 	}
; 1019 : 
; 1020 : 	LPOBJ lpUser = &gObj[aIndex];

  0001d	8b c7		 mov	 eax, edi
  0001f	69 c0 50 2b 00
	00		 imul	 eax, 11088		; 00002b50H
  00025	03 05 00 00 00
	00		 add	 eax, DWORD PTR ?gObj@@3PAUOBJECTSTRUCT@@A ; gObj

; 1021 : 
; 1022 : 	if(!lpUser->ach.bLoaded)

  0002b	80 b8 20 29 00
	00 00		 cmp	 BYTE PTR [eax+10528], 0
  00032	74 26		 je	 SHORT $LN7@MootopVote

; 1023 : 	{
; 1024 : 		return;
; 1025 : 	}
; 1026 : 
; 1027 : 	//i24_MootopVote
; 1028 : 	if(this->m_config.i24_MootopVote > lpUser->ach.mission.i24_MootopVote)

  00034	8b 88 8c 29 00
	00		 mov	 ecx, DWORD PTR [eax+10636]
  0003a	39 4e 74	 cmp	 DWORD PTR [esi+116], ecx
  0003d	76 1b		 jbe	 SHORT $LN7@MootopVote

; 1029 : 	{
; 1030 : 		lpUser->ach.mission.i24_MootopVote++;

  0003f	41		 inc	 ecx
  00040	89 88 8c 29 00
	00		 mov	 DWORD PTR [eax+10636], ecx

; 1031 : 		this->PlayerReward(aIndex, this->m_config.i24_MootopVote, lpUser->ach.mission.i24_MootopVote, this->m_reward.i24_MootopVote);

  00046	8b 86 3c 01 00
	00		 mov	 eax, DWORD PTR [esi+316]
  0004c	50		 push	 eax
  0004d	51		 push	 ecx
  0004e	8b 4e 74	 mov	 ecx, DWORD PTR [esi+116]
  00051	51		 push	 ecx
  00052	57		 push	 edi
  00053	8b ce		 mov	 ecx, esi
  00055	e8 00 00 00 00	 call	 ?PlayerReward@CAchievements@@QAEXHHHH@Z ; CAchievements::PlayerReward
$LN7@MootopVote:
  0005a	5f		 pop	 edi
$LN1@MootopVote:
  0005b	5e		 pop	 esi

; 1032 : 	}
; 1033 : }

  0005c	5d		 pop	 ebp
  0005d	c2 04 00	 ret	 4
?MootopVoteUp@CAchievements@@QAEXH@Z ENDP		; CAchievements::MootopVoteUp
_TEXT	ENDS
PUBLIC	?TeleportInCC@CAchievements@@QAEXH@Z		; CAchievements::TeleportInCC
; Function compile flags: /Ogtp
;	COMDAT ?TeleportInCC@CAchievements@@QAEXH@Z
_TEXT	SEGMENT
_aIndex$ = 8						; size = 4
?TeleportInCC@CAchievements@@QAEXH@Z PROC		; CAchievements::TeleportInCC, COMDAT
; _this$ = ecx

; 1036 : {

  00000	55		 push	 ebp
  00001	8b ec		 mov	 ebp, esp
  00003	56		 push	 esi
  00004	8b f1		 mov	 esi, ecx

; 1037 : 	if(!this->bEnable)

  00006	80 7e 14 00	 cmp	 BYTE PTR [esi+20], 0
  0000a	74 4f		 je	 SHORT $LN1@TeleportIn

; 1038 : 	{
; 1039 : 		return;
; 1040 : 	}
; 1041 : 
; 1042 : 	if(!gObjIsConnected(aIndex))

  0000c	57		 push	 edi
  0000d	8b 7d 08	 mov	 edi, DWORD PTR _aIndex$[ebp]
  00010	57		 push	 edi
  00011	e8 00 00 00 00	 call	 ?gObjIsConnected@@YAHH@Z ; gObjIsConnected
  00016	83 c4 04	 add	 esp, 4
  00019	85 c0		 test	 eax, eax
  0001b	74 3d		 je	 SHORT $LN7@TeleportIn

; 1043 : 	{
; 1044 : 		return;
; 1045 : 	}
; 1046 : 
; 1047 : 	LPOBJ lpUser = &gObj[aIndex];

  0001d	8b c7		 mov	 eax, edi
  0001f	69 c0 50 2b 00
	00		 imul	 eax, 11088		; 00002b50H
  00025	03 05 00 00 00
	00		 add	 eax, DWORD PTR ?gObj@@3PAUOBJECTSTRUCT@@A ; gObj

; 1048 : 
; 1049 : 	if(!lpUser->ach.bLoaded)

  0002b	80 b8 20 29 00
	00 00		 cmp	 BYTE PTR [eax+10528], 0
  00032	74 26		 je	 SHORT $LN7@TeleportIn

; 1050 : 	{
; 1051 : 		return;
; 1052 : 	}
; 1053 : 
; 1054 : 	//i9_TakePartInCC
; 1055 : 	if(this->m_config.i9_TakePartInCC > lpUser->ach.mission.i9_TakePartInCC)

  00034	8b 88 50 29 00
	00		 mov	 ecx, DWORD PTR [eax+10576]
  0003a	39 4e 38	 cmp	 DWORD PTR [esi+56], ecx
  0003d	76 1b		 jbe	 SHORT $LN7@TeleportIn

; 1056 : 	{
; 1057 : 		lpUser->ach.mission.i9_TakePartInCC++;

  0003f	41		 inc	 ecx
  00040	89 88 50 29 00
	00		 mov	 DWORD PTR [eax+10576], ecx

; 1058 : 		this->PlayerReward(aIndex, this->m_config.i9_TakePartInCC, lpUser->ach.mission.i9_TakePartInCC, this->m_reward.i9_TakePartInCC);

  00046	8b 86 00 01 00
	00		 mov	 eax, DWORD PTR [esi+256]
  0004c	50		 push	 eax
  0004d	51		 push	 ecx
  0004e	8b 4e 38	 mov	 ecx, DWORD PTR [esi+56]
  00051	51		 push	 ecx
  00052	57		 push	 edi
  00053	8b ce		 mov	 ecx, esi
  00055	e8 00 00 00 00	 call	 ?PlayerReward@CAchievements@@QAEXHHHH@Z ; CAchievements::PlayerReward
$LN7@TeleportIn:
  0005a	5f		 pop	 edi
$LN1@TeleportIn:
  0005b	5e		 pop	 esi

; 1059 : 	}
; 1060 : }

  0005c	5d		 pop	 ebp
  0005d	c2 04 00	 ret	 4
?TeleportInCC@CAchievements@@QAEXH@Z ENDP		; CAchievements::TeleportInCC
_TEXT	ENDS
PUBLIC	?WinCastleSiege@CAchievements@@QAEXPAD@Z	; CAchievements::WinCastleSiege
EXTRN	?SearchUnion@TUnion@@QAEPAVTUnionInfo@@H@Z:PROC	; TUnion::SearchUnion
EXTRN	?UnionManager@@3VTUnion@@A:BYTE			; UnionManager
; Function compile flags: /Ogtp
;	COMDAT ?WinCastleSiege@CAchievements@@QAEXPAD@Z
_TEXT	SEGMENT
tv260 = -8						; size = 4
_aIndex$211423 = -4					; size = 4
_szGuildName$ = 8					; size = 4
?WinCastleSiege@CAchievements@@QAEXPAD@Z PROC		; CAchievements::WinCastleSiege, COMDAT
; _this$ = ecx

; 1063 : {

  00000	55		 push	 ebp
  00001	8b ec		 mov	 ebp, esp
  00003	83 ec 08	 sub	 esp, 8
  00006	53		 push	 ebx
  00007	8b d9		 mov	 ebx, ecx

; 1064 : 	if(!this->bEnable)

  00009	80 7b 14 00	 cmp	 BYTE PTR [ebx+20], 0
  0000d	0f 84 69 01 00
	00		 je	 $LN9@WinCastleS

; 1065 : 	{
; 1066 : 		return;
; 1067 : 	}
; 1068 : 
; 1069 : 	if(strlen(szGuildName) < 1)

  00013	8b 45 08	 mov	 eax, DWORD PTR _szGuildName$[ebp]
  00016	8d 50 01	 lea	 edx, DWORD PTR [eax+1]
  00019	8d a4 24 00 00
	00 00		 npad	 7
$LL18@WinCastleS:
  00020	8a 08		 mov	 cl, BYTE PTR [eax]
  00022	40		 inc	 eax
  00023	84 c9		 test	 cl, cl
  00025	75 f9		 jne	 SHORT $LL18@WinCastleS
  00027	2b c2		 sub	 eax, edx
  00029	b9 01 00 00 00	 mov	 ecx, 1
  0002e	3b c1		 cmp	 eax, ecx
  00030	0f 82 46 01 00
	00		 jb	 $LN9@WinCastleS

; 1070 : 	{
; 1071 : 		return;
; 1072 : 	}
; 1073 : 
; 1074 : 	for(int aIndex = OBJ_STARTUSERINDZT; aIndex < OBJMAX; aIndex++)

  00036	56		 push	 esi
  00037	57		 push	 edi
  00038	bf 00 a7 40 09	 mov	 edi, 155232000		; 0940a700H
  0003d	c7 45 fc b0 36
	00 00		 mov	 DWORD PTR _aIndex$211423[ebp], 14000 ; 000036b0H
  00044	89 7d f8	 mov	 DWORD PTR tv260[ebp], edi
  00047	eb 07 8d a4 24
	00 00 00 00	 npad	 9
$LL11@WinCastleS:

; 1075 : 	{
; 1076 : 		LPOBJ lpUser = &gObj[aIndex];

  00050	03 3d 00 00 00
	00		 add	 edi, DWORD PTR ?gObj@@3PAUOBJECTSTRUCT@@A ; gObj

; 1077 : 
; 1078 : 		if(lpUser->Connected == PLAYER_PLAYING && lpUser->Type == OBJ_USER)

  00056	83 7f 04 03	 cmp	 DWORD PTR [edi+4], 3
  0005a	0f 85 fa 00 00
	00		 jne	 $LN10@WinCastleS
  00060	66 39 4f 68	 cmp	 WORD PTR [edi+104], cx
  00064	0f 85 f0 00 00
	00		 jne	 $LN10@WinCastleS

; 1079 : 		{
; 1080 : 			if(!lpUser->ach.bLoaded)

  0006a	80 bf 20 29 00
	00 00		 cmp	 BYTE PTR [edi+10528], 0
  00071	0f 84 e3 00 00
	00		 je	 $LN10@WinCastleS

; 1081 : 			{
; 1082 : 				continue;
; 1083 : 			}
; 1084 : 
; 1085 : 			_GUILD_INFO_STRUCT * lpGuildUser = lpUser->lpGuild;

  00077	8b b7 38 04 00
	00		 mov	 esi, DWORD PTR [edi+1080]

; 1086 : 
; 1087 : 			if(!lpGuildUser)

  0007d	85 f6		 test	 esi, esi
  0007f	0f 84 d5 00 00
	00		 je	 $LN10@WinCastleS

; 1088 : 			{
; 1089 : 				continue;
; 1090 : 			}
; 1091 : 
; 1092 : 			if(!strcmp(lpGuildUser->Name, szGuildName))

  00085	8b 4d 08	 mov	 ecx, DWORD PTR _szGuildName$[ebp]
  00088	8d 46 04	 lea	 eax, DWORD PTR [esi+4]
  0008b	eb 03 8d 49 00	 npad	 5
$LL19@WinCastleS:
  00090	8a 10		 mov	 dl, BYTE PTR [eax]
  00092	3a 11		 cmp	 dl, BYTE PTR [ecx]
  00094	75 1a		 jne	 SHORT $LN20@WinCastleS
  00096	84 d2		 test	 dl, dl
  00098	74 12		 je	 SHORT $LN21@WinCastleS
  0009a	8a 50 01	 mov	 dl, BYTE PTR [eax+1]
  0009d	3a 51 01	 cmp	 dl, BYTE PTR [ecx+1]
  000a0	75 0e		 jne	 SHORT $LN20@WinCastleS
  000a2	83 c0 02	 add	 eax, 2
  000a5	83 c1 02	 add	 ecx, 2
  000a8	84 d2		 test	 dl, dl
  000aa	75 e4		 jne	 SHORT $LL19@WinCastleS
$LN21@WinCastleS:
  000ac	33 c0		 xor	 eax, eax
  000ae	eb 05		 jmp	 SHORT $LN22@WinCastleS
$LN20@WinCastleS:
  000b0	1b c0		 sbb	 eax, eax
  000b2	83 d8 ff	 sbb	 eax, -1
$LN22@WinCastleS:
  000b5	85 c0		 test	 eax, eax
  000b7	75 2e		 jne	 SHORT $LN5@WinCastleS

; 1093 : 			{
; 1094 : 				//i41_WinSiege
; 1095 : 				if(this->m_config.i41_WinSiege > lpUser->ach.mission.i41_WinSiege)

  000b9	8b 87 d0 29 00
	00		 mov	 eax, DWORD PTR [edi+10704]
  000bf	39 83 b8 00 00
	00		 cmp	 DWORD PTR [ebx+184], eax
  000c5	0f 86 8f 00 00
	00		 jbe	 $LN10@WinCastleS

; 1096 : 				{
; 1097 : 					lpUser->ach.mission.i41_WinSiege++;

  000cb	40		 inc	 eax
  000cc	89 87 d0 29 00
	00		 mov	 DWORD PTR [edi+10704], eax

; 1098 : 					this->PlayerReward(aIndex, this->m_config.i41_WinSiege, lpUser->ach.mission.i41_WinSiege, this->m_reward.i41_WinSiege);

  000d2	8b 8b 80 01 00
	00		 mov	 ecx, DWORD PTR [ebx+384]
  000d8	8b 93 b8 00 00
	00		 mov	 edx, DWORD PTR [ebx+184]
  000de	51		 push	 ecx
  000df	50		 push	 eax
  000e0	8b 45 fc	 mov	 eax, DWORD PTR _aIndex$211423[ebp]
  000e3	52		 push	 edx
  000e4	50		 push	 eax

; 1099 : 				}
; 1100 : 				continue;

  000e5	eb 6c		 jmp	 SHORT $LN29@WinCastleS
$LN5@WinCastleS:

; 1101 : 			}
; 1102 : 
; 1103 : 			TUnionInfo * pUnionUser = UnionManager.SearchUnion(lpGuildUser->iGuildUnion);

  000e7	8b 8e 1c 07 00
	00		 mov	 ecx, DWORD PTR [esi+1820]
  000ed	51		 push	 ecx
  000ee	b9 00 00 00 00	 mov	 ecx, OFFSET ?UnionManager@@3VTUnion@@A ; UnionManager
  000f3	e8 00 00 00 00	 call	 ?SearchUnion@TUnion@@QAEPAVTUnionInfo@@H@Z ; TUnion::SearchUnion

; 1104 : 
; 1105 : 			if(!pUnionUser)

  000f8	85 c0		 test	 eax, eax
  000fa	74 5e		 je	 SHORT $LN10@WinCastleS

; 1106 : 			{
; 1107 : 				continue;
; 1108 : 			}
; 1109 : 
; 1110 : 			if(!strcmp(pUnionUser->m_szMasterGuild, szGuildName))

  000fc	8b 4d 08	 mov	 ecx, DWORD PTR _szGuildName$[ebp]
  000ff	83 c0 10	 add	 eax, 16			; 00000010H
$LL23@WinCastleS:
  00102	8a 10		 mov	 dl, BYTE PTR [eax]
  00104	3a 11		 cmp	 dl, BYTE PTR [ecx]
  00106	75 1a		 jne	 SHORT $LN24@WinCastleS
  00108	84 d2		 test	 dl, dl
  0010a	74 12		 je	 SHORT $LN25@WinCastleS
  0010c	8a 50 01	 mov	 dl, BYTE PTR [eax+1]
  0010f	3a 51 01	 cmp	 dl, BYTE PTR [ecx+1]
  00112	75 0e		 jne	 SHORT $LN24@WinCastleS
  00114	83 c0 02	 add	 eax, 2
  00117	83 c1 02	 add	 ecx, 2
  0011a	84 d2		 test	 dl, dl
  0011c	75 e4		 jne	 SHORT $LL23@WinCastleS
$LN25@WinCastleS:
  0011e	33 c0		 xor	 eax, eax
  00120	eb 05		 jmp	 SHORT $LN26@WinCastleS
$LN24@WinCastleS:
  00122	1b c0		 sbb	 eax, eax
  00124	83 d8 ff	 sbb	 eax, -1
$LN26@WinCastleS:
  00127	85 c0		 test	 eax, eax
  00129	75 2f		 jne	 SHORT $LN10@WinCastleS

; 1111 : 			{
; 1112 : 				//i41_WinSiege
; 1113 : 				if(this->m_config.i41_WinSiege > lpUser->ach.mission.i41_WinSiege)

  0012b	8b 87 d0 29 00
	00		 mov	 eax, DWORD PTR [edi+10704]
  00131	39 83 b8 00 00
	00		 cmp	 DWORD PTR [ebx+184], eax
  00137	76 21		 jbe	 SHORT $LN10@WinCastleS

; 1114 : 				{
; 1115 : 					lpUser->ach.mission.i41_WinSiege++;
; 1116 : 					this->PlayerReward(aIndex, this->m_config.i41_WinSiege, lpUser->ach.mission.i41_WinSiege, this->m_reward.i41_WinSiege);

  00139	8b 4d fc	 mov	 ecx, DWORD PTR _aIndex$211423[ebp]
  0013c	40		 inc	 eax
  0013d	89 87 d0 29 00
	00		 mov	 DWORD PTR [edi+10704], eax
  00143	8b 93 80 01 00
	00		 mov	 edx, DWORD PTR [ebx+384]
  00149	52		 push	 edx
  0014a	50		 push	 eax
  0014b	8b 83 b8 00 00
	00		 mov	 eax, DWORD PTR [ebx+184]
  00151	50		 push	 eax
  00152	51		 push	 ecx
$LN29@WinCastleS:
  00153	8b cb		 mov	 ecx, ebx
  00155	e8 00 00 00 00	 call	 ?PlayerReward@CAchievements@@QAEXHHHH@Z ; CAchievements::PlayerReward
$LN10@WinCastleS:

; 1070 : 	{
; 1071 : 		return;
; 1072 : 	}
; 1073 : 
; 1074 : 	for(int aIndex = OBJ_STARTUSERINDZT; aIndex < OBJMAX; aIndex++)

  0015a	8b 7d f8	 mov	 edi, DWORD PTR tv260[ebp]
  0015d	b9 01 00 00 00	 mov	 ecx, 1
  00162	01 4d fc	 add	 DWORD PTR _aIndex$211423[ebp], ecx
  00165	81 c7 50 2b 00
	00		 add	 edi, 11088		; 00002b50H
  0016b	89 7d f8	 mov	 DWORD PTR tv260[ebp], edi
  0016e	81 ff 80 d7 e9
	09		 cmp	 edi, 166320000		; 09e9d780H
  00174	0f 8c d6 fe ff
	ff		 jl	 $LL11@WinCastleS
  0017a	5f		 pop	 edi
  0017b	5e		 pop	 esi
$LN9@WinCastleS:
  0017c	5b		 pop	 ebx

; 1117 : 				}
; 1118 : 			}
; 1119 : 		}
; 1120 : 	}
; 1121 : }

  0017d	8b e5		 mov	 esp, ebp
  0017f	5d		 pop	 ebp
  00180	c2 04 00	 ret	 4
?WinCastleSiege@CAchievements@@QAEXPAD@Z ENDP		; CAchievements::WinCastleSiege
_TEXT	ENDS
PUBLIC	?BuyDonateShopItem@CAchievements@@QAEXHH@Z	; CAchievements::BuyDonateShopItem
; Function compile flags: /Ogtp
;	COMDAT ?BuyDonateShopItem@CAchievements@@QAEXHH@Z
_TEXT	SEGMENT
_aIndex$ = 8						; size = 4
_iCost$ = 12						; size = 4
?BuyDonateShopItem@CAchievements@@QAEXHH@Z PROC		; CAchievements::BuyDonateShopItem, COMDAT
; _this$ = ecx

; 1124 : {

  00000	55		 push	 ebp
  00001	8b ec		 mov	 ebp, esp
  00003	56		 push	 esi
  00004	8b f1		 mov	 esi, ecx

; 1125 : 	if(!this->bEnable)

  00006	80 7e 14 00	 cmp	 BYTE PTR [esi+20], 0
  0000a	74 69		 je	 SHORT $LN1@BuyDonateS

; 1126 : 	{
; 1127 : 		return;
; 1128 : 	}
; 1129 : 
; 1130 : 	if(!gObjIsConnected(aIndex))

  0000c	57		 push	 edi
  0000d	8b 7d 08	 mov	 edi, DWORD PTR _aIndex$[ebp]
  00010	57		 push	 edi
  00011	e8 00 00 00 00	 call	 ?gObjIsConnected@@YAHH@Z ; gObjIsConnected
  00016	83 c4 04	 add	 esp, 4
  00019	85 c0		 test	 eax, eax
  0001b	74 57		 je	 SHORT $LN8@BuyDonateS

; 1131 : 	{
; 1132 : 		return;
; 1133 : 	}
; 1134 : 
; 1135 : 	LPOBJ lpUser = &gObj[aIndex];

  0001d	8b c7		 mov	 eax, edi
  0001f	69 c0 50 2b 00
	00		 imul	 eax, 11088		; 00002b50H
  00025	03 05 00 00 00
	00		 add	 eax, DWORD PTR ?gObj@@3PAUOBJECTSTRUCT@@A ; gObj

; 1136 : 
; 1137 : 	if(!lpUser->ach.bLoaded)

  0002b	80 b8 20 29 00
	00 00		 cmp	 BYTE PTR [eax+10528], 0
  00032	74 40		 je	 SHORT $LN8@BuyDonateS

; 1138 : 	{
; 1139 : 		return;
; 1140 : 	}
; 1141 : 
; 1142 : 	//i45_BuyDonateShopItem
; 1143 : 	if(this->m_config.i45_BuyDonateShopItem > lpUser->ach.mission.i45_BuyDonateShopItem)

  00034	8b 88 e0 29 00
	00		 mov	 ecx, DWORD PTR [eax+10720]
  0003a	39 8e c8 00 00
	00		 cmp	 DWORD PTR [esi+200], ecx
  00040	76 32		 jbe	 SHORT $LN8@BuyDonateS

; 1144 : 	{
; 1145 : 		lpUser->ach.mission.i45_BuyDonateShopItem += iCost;

  00042	8b 55 0c	 mov	 edx, DWORD PTR _iCost$[ebp]
  00045	03 d1		 add	 edx, ecx
  00047	89 90 e0 29 00
	00		 mov	 DWORD PTR [eax+10720], edx

; 1146 : 		if(lpUser->ach.mission.i45_BuyDonateShopItem > this->m_config.i45_BuyDonateShopItem)

  0004d	8b 8e c8 00 00
	00		 mov	 ecx, DWORD PTR [esi+200]
  00053	3b d1		 cmp	 edx, ecx
  00055	76 1d		 jbe	 SHORT $LN8@BuyDonateS

; 1147 : 		{
; 1148 : 			lpUser->ach.mission.i45_BuyDonateShopItem = this->m_config.i45_BuyDonateShopItem;

  00057	89 88 e0 29 00
	00		 mov	 DWORD PTR [eax+10720], ecx

; 1149 : 			this->PlayerReward(aIndex, this->m_config.i45_BuyDonateShopItem, lpUser->ach.mission.i45_BuyDonateShopItem, this->m_reward.i45_BuyDonateShopItem);

  0005d	8b 86 90 01 00
	00		 mov	 eax, DWORD PTR [esi+400]
  00063	50		 push	 eax
  00064	51		 push	 ecx
  00065	8b 8e c8 00 00
	00		 mov	 ecx, DWORD PTR [esi+200]
  0006b	51		 push	 ecx
  0006c	57		 push	 edi
  0006d	8b ce		 mov	 ecx, esi
  0006f	e8 00 00 00 00	 call	 ?PlayerReward@CAchievements@@QAEXHHHH@Z ; CAchievements::PlayerReward
$LN8@BuyDonateS:
  00074	5f		 pop	 edi
$LN1@BuyDonateS:
  00075	5e		 pop	 esi

; 1150 : 		}
; 1151 : 	}
; 1152 : }

  00076	5d		 pop	 ebp
  00077	c2 08 00	 ret	 8
?BuyDonateShopItem@CAchievements@@QAEXHH@Z ENDP		; CAchievements::BuyDonateShopItem
_TEXT	ENDS
PUBLIC	?GuildWarWin@CAchievements@@QAEXH@Z		; CAchievements::GuildWarWin
; Function compile flags: /Ogtp
;	COMDAT ?GuildWarWin@CAchievements@@QAEXH@Z
_TEXT	SEGMENT
_aIndex$ = 8						; size = 4
?GuildWarWin@CAchievements@@QAEXH@Z PROC		; CAchievements::GuildWarWin, COMDAT
; _this$ = ecx

; 1155 : {

  00000	55		 push	 ebp
  00001	8b ec		 mov	 ebp, esp
  00003	56		 push	 esi
  00004	8b f1		 mov	 esi, ecx

; 1156 : 	if(!this->bEnable)

  00006	80 7e 14 00	 cmp	 BYTE PTR [esi+20], 0
  0000a	74 55		 je	 SHORT $LN1@GuildWarWi

; 1157 : 	{
; 1158 : 		return;
; 1159 : 	}
; 1160 : 
; 1161 : 	if(!gObjIsConnected(aIndex))

  0000c	57		 push	 edi
  0000d	8b 7d 08	 mov	 edi, DWORD PTR _aIndex$[ebp]
  00010	57		 push	 edi
  00011	e8 00 00 00 00	 call	 ?gObjIsConnected@@YAHH@Z ; gObjIsConnected
  00016	83 c4 04	 add	 esp, 4
  00019	85 c0		 test	 eax, eax
  0001b	74 43		 je	 SHORT $LN7@GuildWarWi

; 1162 : 	{
; 1163 : 		return;
; 1164 : 	}
; 1165 : 
; 1166 : 	LPOBJ lpUser = &gObj[aIndex];

  0001d	8b c7		 mov	 eax, edi
  0001f	69 c0 50 2b 00
	00		 imul	 eax, 11088		; 00002b50H
  00025	03 05 00 00 00
	00		 add	 eax, DWORD PTR ?gObj@@3PAUOBJECTSTRUCT@@A ; gObj

; 1167 : 
; 1168 : 	if(!lpUser->ach.bLoaded)

  0002b	80 b8 20 29 00
	00 00		 cmp	 BYTE PTR [eax+10528], 0
  00032	74 2c		 je	 SHORT $LN7@GuildWarWi

; 1169 : 	{
; 1170 : 		return;
; 1171 : 	}
; 1172 : 
; 1173 : 	//i46_GuildWarWin
; 1174 : 	if(this->m_config.i46_GuildWarWin > lpUser->ach.mission.i46_GuildWarWin)

  00034	8b 88 e4 29 00
	00		 mov	 ecx, DWORD PTR [eax+10724]
  0003a	39 8e cc 00 00
	00		 cmp	 DWORD PTR [esi+204], ecx
  00040	76 1e		 jbe	 SHORT $LN7@GuildWarWi

; 1175 : 	{
; 1176 : 		lpUser->ach.mission.i46_GuildWarWin++;

  00042	41		 inc	 ecx
  00043	89 88 e4 29 00
	00		 mov	 DWORD PTR [eax+10724], ecx

; 1177 : 		this->PlayerReward(aIndex, this->m_config.i46_GuildWarWin, lpUser->ach.mission.i46_GuildWarWin, this->m_reward.i46_GuildWarWin);

  00049	8b 86 94 01 00
	00		 mov	 eax, DWORD PTR [esi+404]
  0004f	50		 push	 eax
  00050	51		 push	 ecx
  00051	8b 8e cc 00 00
	00		 mov	 ecx, DWORD PTR [esi+204]
  00057	51		 push	 ecx
  00058	57		 push	 edi
  00059	8b ce		 mov	 ecx, esi
  0005b	e8 00 00 00 00	 call	 ?PlayerReward@CAchievements@@QAEXHHHH@Z ; CAchievements::PlayerReward
$LN7@GuildWarWi:
  00060	5f		 pop	 edi
$LN1@GuildWarWi:
  00061	5e		 pop	 esi

; 1178 : 	}
; 1179 : }

  00062	5d		 pop	 ebp
  00063	c2 04 00	 ret	 4
?GuildWarWin@CAchievements@@QAEXH@Z ENDP		; CAchievements::GuildWarWin
_TEXT	ENDS
PUBLIC	?DuelWin@CAchievements@@QAEXH@Z			; CAchievements::DuelWin
; Function compile flags: /Ogtp
;	COMDAT ?DuelWin@CAchievements@@QAEXH@Z
_TEXT	SEGMENT
_aIndex$ = 8						; size = 4
?DuelWin@CAchievements@@QAEXH@Z PROC			; CAchievements::DuelWin, COMDAT
; _this$ = ecx

; 1182 : {

  00000	55		 push	 ebp
  00001	8b ec		 mov	 ebp, esp
  00003	56		 push	 esi
  00004	8b f1		 mov	 esi, ecx

; 1183 : 	if(!this->bEnable)

  00006	80 7e 14 00	 cmp	 BYTE PTR [esi+20], 0
  0000a	74 54		 je	 SHORT $LN1@DuelWin

; 1184 : 	{
; 1185 : 		return;
; 1186 : 	}
; 1187 : 
; 1188 : 	if(!gObjIsConnected(aIndex))

  0000c	57		 push	 edi
  0000d	8b 7d 08	 mov	 edi, DWORD PTR _aIndex$[ebp]
  00010	57		 push	 edi
  00011	e8 00 00 00 00	 call	 ?gObjIsConnected@@YAHH@Z ; gObjIsConnected
  00016	83 c4 04	 add	 esp, 4
  00019	85 c0		 test	 eax, eax
  0001b	74 42		 je	 SHORT $LN7@DuelWin

; 1189 : 	{
; 1190 : 		return;
; 1191 : 	}
; 1192 : 
; 1193 : 	LPOBJ lpUser = &gObj[aIndex];

  0001d	8b c7		 mov	 eax, edi
  0001f	69 c0 50 2b 00
	00		 imul	 eax, 11088		; 00002b50H
  00025	03 05 00 00 00
	00		 add	 eax, DWORD PTR ?gObj@@3PAUOBJECTSTRUCT@@A ; gObj

; 1194 : 
; 1195 : 	if(!lpUser->ach.bLoaded)

  0002b	80 b8 20 29 00
	00 00		 cmp	 BYTE PTR [eax+10528], 0
  00032	74 2b		 je	 SHORT $LN7@DuelWin

; 1196 : 	{
; 1197 : 		return;
; 1198 : 	}
; 1199 : 
; 1200 : 	//i19_DuelWin
; 1201 : 	if(this->m_config.i10_WinningTheCC > lpUser->ach.mission.i10_WinningTheCC)

  00034	8b 4e 3c	 mov	 ecx, DWORD PTR [esi+60]
  00037	3b 88 54 29 00
	00		 cmp	 ecx, DWORD PTR [eax+10580]
  0003d	76 20		 jbe	 SHORT $LN7@DuelWin

; 1202 : 	{
; 1203 : 		lpUser->ach.mission.i19_DuelWin++;

  0003f	ff 80 78 29 00
	00		 inc	 DWORD PTR [eax+10616]

; 1204 : 		this->PlayerReward(aIndex, this->m_config.i19_DuelWin, lpUser->ach.mission.i19_DuelWin, this->m_reward.i19_DuelWin);

  00045	8b 96 28 01 00
	00		 mov	 edx, DWORD PTR [esi+296]
  0004b	8b 80 78 29 00
	00		 mov	 eax, DWORD PTR [eax+10616]
  00051	52		 push	 edx
  00052	50		 push	 eax
  00053	8b 46 60	 mov	 eax, DWORD PTR [esi+96]
  00056	50		 push	 eax
  00057	57		 push	 edi
  00058	8b ce		 mov	 ecx, esi
  0005a	e8 00 00 00 00	 call	 ?PlayerReward@CAchievements@@QAEXHHHH@Z ; CAchievements::PlayerReward
$LN7@DuelWin:
  0005f	5f		 pop	 edi
$LN1@DuelWin:
  00060	5e		 pop	 esi

; 1205 : 	}
; 1206 : }

  00061	5d		 pop	 ebp
  00062	c2 04 00	 ret	 4
?DuelWin@CAchievements@@QAEXH@Z ENDP			; CAchievements::DuelWin
_TEXT	ENDS
PUBLIC	?CompleteBC@CAchievements@@QAEXH@Z		; CAchievements::CompleteBC
; Function compile flags: /Ogtp
;	COMDAT ?CompleteBC@CAchievements@@QAEXH@Z
_TEXT	SEGMENT
_aIndex$ = 8						; size = 4
?CompleteBC@CAchievements@@QAEXH@Z PROC			; CAchievements::CompleteBC, COMDAT
; _this$ = ecx

; 1209 : {

  00000	55		 push	 ebp
  00001	8b ec		 mov	 ebp, esp
  00003	56		 push	 esi
  00004	8b f1		 mov	 esi, ecx

; 1210 : 	if(!this->bEnable)

  00006	80 7e 14 00	 cmp	 BYTE PTR [esi+20], 0
  0000a	74 55		 je	 SHORT $LN1@CompleteBC

; 1211 : 	{
; 1212 : 		return;
; 1213 : 	}
; 1214 : 
; 1215 : 	if(!gObjIsConnected(aIndex))

  0000c	57		 push	 edi
  0000d	8b 7d 08	 mov	 edi, DWORD PTR _aIndex$[ebp]
  00010	57		 push	 edi
  00011	e8 00 00 00 00	 call	 ?gObjIsConnected@@YAHH@Z ; gObjIsConnected
  00016	83 c4 04	 add	 esp, 4
  00019	85 c0		 test	 eax, eax
  0001b	74 43		 je	 SHORT $LN7@CompleteBC

; 1216 : 	{
; 1217 : 		return;
; 1218 : 	}
; 1219 : 
; 1220 : 	LPOBJ lpUser = &gObj[aIndex];

  0001d	8b c7		 mov	 eax, edi
  0001f	69 c0 50 2b 00
	00		 imul	 eax, 11088		; 00002b50H
  00025	03 05 00 00 00
	00		 add	 eax, DWORD PTR ?gObj@@3PAUOBJECTSTRUCT@@A ; gObj

; 1221 : 
; 1222 : 	if(!lpUser->ach.bLoaded)

  0002b	80 b8 20 29 00
	00 00		 cmp	 BYTE PTR [eax+10528], 0
  00032	74 2c		 je	 SHORT $LN7@CompleteBC

; 1223 : 	{
; 1224 : 		return;
; 1225 : 	}
; 1226 : 
; 1227 : 	//i32_CompleteBC
; 1228 : 	if(this->m_config.i32_CompleteBC > lpUser->ach.mission.i32_CompleteBC)

  00034	8b 88 ac 29 00
	00		 mov	 ecx, DWORD PTR [eax+10668]
  0003a	39 8e 94 00 00
	00		 cmp	 DWORD PTR [esi+148], ecx
  00040	76 1e		 jbe	 SHORT $LN7@CompleteBC

; 1229 : 	{
; 1230 : 		lpUser->ach.mission.i32_CompleteBC++;

  00042	41		 inc	 ecx
  00043	89 88 ac 29 00
	00		 mov	 DWORD PTR [eax+10668], ecx

; 1231 : 		this->PlayerReward(aIndex, this->m_config.i32_CompleteBC, lpUser->ach.mission.i32_CompleteBC, this->m_reward.i32_CompleteBC);

  00049	8b 86 5c 01 00
	00		 mov	 eax, DWORD PTR [esi+348]
  0004f	50		 push	 eax
  00050	51		 push	 ecx
  00051	8b 8e 94 00 00
	00		 mov	 ecx, DWORD PTR [esi+148]
  00057	51		 push	 ecx
  00058	57		 push	 edi
  00059	8b ce		 mov	 ecx, esi
  0005b	e8 00 00 00 00	 call	 ?PlayerReward@CAchievements@@QAEXHHHH@Z ; CAchievements::PlayerReward
$LN7@CompleteBC:
  00060	5f		 pop	 edi
$LN1@CompleteBC:
  00061	5e		 pop	 esi

; 1232 : 	}
; 1233 : }

  00062	5d		 pop	 ebp
  00063	c2 04 00	 ret	 4
?CompleteBC@CAchievements@@QAEXH@Z ENDP			; CAchievements::CompleteBC
_TEXT	ENDS
PUBLIC	?WinCC@CAchievements@@QAEXH@Z			; CAchievements::WinCC
; Function compile flags: /Ogtp
;	COMDAT ?WinCC@CAchievements@@QAEXH@Z
_TEXT	SEGMENT
_aIndex$ = 8						; size = 4
?WinCC@CAchievements@@QAEXH@Z PROC			; CAchievements::WinCC, COMDAT
; _this$ = ecx

; 1236 : {

  00000	55		 push	 ebp
  00001	8b ec		 mov	 ebp, esp
  00003	56		 push	 esi
  00004	8b f1		 mov	 esi, ecx

; 1237 : 	if(!this->bEnable)

  00006	80 7e 14 00	 cmp	 BYTE PTR [esi+20], 0
  0000a	74 4f		 je	 SHORT $LN1@WinCC

; 1238 : 	{
; 1239 : 		return;
; 1240 : 	}
; 1241 : 
; 1242 : 	if(!gObjIsConnected(aIndex))

  0000c	57		 push	 edi
  0000d	8b 7d 08	 mov	 edi, DWORD PTR _aIndex$[ebp]
  00010	57		 push	 edi
  00011	e8 00 00 00 00	 call	 ?gObjIsConnected@@YAHH@Z ; gObjIsConnected
  00016	83 c4 04	 add	 esp, 4
  00019	85 c0		 test	 eax, eax
  0001b	74 3d		 je	 SHORT $LN7@WinCC

; 1243 : 	{
; 1244 : 		return;
; 1245 : 	}
; 1246 : 
; 1247 : 	LPOBJ lpUser = &gObj[aIndex];

  0001d	8b c7		 mov	 eax, edi
  0001f	69 c0 50 2b 00
	00		 imul	 eax, 11088		; 00002b50H
  00025	03 05 00 00 00
	00		 add	 eax, DWORD PTR ?gObj@@3PAUOBJECTSTRUCT@@A ; gObj

; 1248 : 
; 1249 : 	if(!lpUser->ach.bLoaded)

  0002b	80 b8 20 29 00
	00 00		 cmp	 BYTE PTR [eax+10528], 0
  00032	74 26		 je	 SHORT $LN7@WinCC

; 1250 : 	{
; 1251 : 		return;
; 1252 : 	}
; 1253 : 
; 1254 : 	//i10_WinningTheCC
; 1255 : 	if(this->m_config.i10_WinningTheCC > lpUser->ach.mission.i10_WinningTheCC)

  00034	8b 88 54 29 00
	00		 mov	 ecx, DWORD PTR [eax+10580]
  0003a	39 4e 3c	 cmp	 DWORD PTR [esi+60], ecx
  0003d	76 1b		 jbe	 SHORT $LN7@WinCC

; 1256 : 	{
; 1257 : 		lpUser->ach.mission.i10_WinningTheCC++;

  0003f	41		 inc	 ecx
  00040	89 88 54 29 00
	00		 mov	 DWORD PTR [eax+10580], ecx

; 1258 : 		this->PlayerReward(aIndex, this->m_config.i10_WinningTheCC, lpUser->ach.mission.i10_WinningTheCC, this->m_reward.i10_WinningTheCC);

  00046	8b 86 04 01 00
	00		 mov	 eax, DWORD PTR [esi+260]
  0004c	50		 push	 eax
  0004d	51		 push	 ecx
  0004e	8b 4e 3c	 mov	 ecx, DWORD PTR [esi+60]
  00051	51		 push	 ecx
  00052	57		 push	 edi
  00053	8b ce		 mov	 ecx, esi
  00055	e8 00 00 00 00	 call	 ?PlayerReward@CAchievements@@QAEXHHHH@Z ; CAchievements::PlayerReward
$LN7@WinCC:
  0005a	5f		 pop	 edi
$LN1@WinCC:
  0005b	5e		 pop	 esi

; 1259 : 	}
; 1260 : }

  0005c	5d		 pop	 ebp
  0005d	c2 04 00	 ret	 4
?WinCC@CAchievements@@QAEXH@Z ENDP			; CAchievements::WinCC
_TEXT	ENDS
PUBLIC	?PickUpZen@CAchievements@@QAEXHH@Z		; CAchievements::PickUpZen
; Function compile flags: /Ogtp
;	COMDAT ?PickUpZen@CAchievements@@QAEXHH@Z
_TEXT	SEGMENT
_aIndex$ = 8						; size = 4
_money$ = 12						; size = 4
?PickUpZen@CAchievements@@QAEXHH@Z PROC			; CAchievements::PickUpZen, COMDAT
; _this$ = ecx

; 1263 : {

  00000	55		 push	 ebp
  00001	8b ec		 mov	 ebp, esp
  00003	56		 push	 esi
  00004	8b f1		 mov	 esi, ecx

; 1264 : 	if(!this->bEnable)

  00006	80 7e 14 00	 cmp	 BYTE PTR [esi+20], 0
  0000a	74 51		 je	 SHORT $LN1@PickUpZen

; 1265 : 	{
; 1266 : 		return;
; 1267 : 	}
; 1268 : 
; 1269 : 	if(!gObjIsConnected(aIndex))

  0000c	57		 push	 edi
  0000d	8b 7d 08	 mov	 edi, DWORD PTR _aIndex$[ebp]
  00010	57		 push	 edi
  00011	e8 00 00 00 00	 call	 ?gObjIsConnected@@YAHH@Z ; gObjIsConnected
  00016	83 c4 04	 add	 esp, 4
  00019	85 c0		 test	 eax, eax
  0001b	74 3f		 je	 SHORT $LN7@PickUpZen

; 1270 : 	{
; 1271 : 		return;
; 1272 : 	}
; 1273 : 
; 1274 : 	LPOBJ lpUser = &gObj[aIndex];

  0001d	8b c7		 mov	 eax, edi
  0001f	69 c0 50 2b 00
	00		 imul	 eax, 11088		; 00002b50H
  00025	03 05 00 00 00
	00		 add	 eax, DWORD PTR ?gObj@@3PAUOBJECTSTRUCT@@A ; gObj

; 1275 : 
; 1276 : 	if(!lpUser->ach.bLoaded)

  0002b	80 b8 20 29 00
	00 00		 cmp	 BYTE PTR [eax+10528], 0
  00032	74 28		 je	 SHORT $LN7@PickUpZen

; 1277 : 	{
; 1278 : 		return;
; 1279 : 	}
; 1280 : 
; 1281 : 	//i16_PickUpZen
; 1282 : 	if(this->m_config.i16_PickUpZen > lpUser->ach.mission.i16_PickUpZen)

  00034	8b 88 6c 29 00
	00		 mov	 ecx, DWORD PTR [eax+10604]
  0003a	39 4e 54	 cmp	 DWORD PTR [esi+84], ecx
  0003d	76 1d		 jbe	 SHORT $LN7@PickUpZen

; 1283 : 	{
; 1284 : 		lpUser->ach.mission.i16_PickUpZen += money;

  0003f	03 4d 0c	 add	 ecx, DWORD PTR _money$[ebp]
  00042	89 88 6c 29 00
	00		 mov	 DWORD PTR [eax+10604], ecx

; 1285 : 		this->PlayerReward(aIndex, this->m_config.i16_PickUpZen, lpUser->ach.mission.i16_PickUpZen, this->m_reward.i16_PickUpZen);

  00048	8b 86 1c 01 00
	00		 mov	 eax, DWORD PTR [esi+284]
  0004e	50		 push	 eax
  0004f	51		 push	 ecx
  00050	8b 4e 54	 mov	 ecx, DWORD PTR [esi+84]
  00053	51		 push	 ecx
  00054	57		 push	 edi
  00055	8b ce		 mov	 ecx, esi
  00057	e8 00 00 00 00	 call	 ?PlayerReward@CAchievements@@QAEXHHHH@Z ; CAchievements::PlayerReward
$LN7@PickUpZen:
  0005c	5f		 pop	 edi
$LN1@PickUpZen:
  0005d	5e		 pop	 esi

; 1286 : 	}
; 1287 : }

  0005e	5d		 pop	 ebp
  0005f	c2 08 00	 ret	 8
?PickUpZen@CAchievements@@QAEXHH@Z ENDP			; CAchievements::PickUpZen
_TEXT	ENDS
PUBLIC	_aIndex$GSCopy$
PUBLIC	__$ArrayPad$
PUBLIC	?CalculatorPower@CAchievements@@QAEXH@Z		; CAchievements::CalculatorPower
; Function compile flags: /Ogtp
;	COMDAT ?CalculatorPower@CAchievements@@QAEXH@Z
_TEXT	SEGMENT
_aIndex$GSCopy$ = -64					; size = 4
_iAddDamage$ = -60					; size = 4
_iAddDefence$ = -56					; size = 4
_iAddLife$ = -52					; size = 4
_pMsg$ = -48						; size = 44
__$ArrayPad$ = -4					; size = 4
_aIndex$ = 8						; size = 4
?CalculatorPower@CAchievements@@QAEXH@Z PROC		; CAchievements::CalculatorPower, COMDAT
; _this$ = ecx

; 1290 : {

  00000	55		 push	 ebp
  00001	8b ec		 mov	 ebp, esp
  00003	83 ec 40	 sub	 esp, 64			; 00000040H
  00006	a1 00 00 00 00	 mov	 eax, DWORD PTR ___security_cookie
  0000b	33 c5		 xor	 eax, ebp
  0000d	89 45 fc	 mov	 DWORD PTR __$ArrayPad$[ebp], eax
  00010	56		 push	 esi
  00011	57		 push	 edi
  00012	8b 7d 08	 mov	 edi, DWORD PTR _aIndex$[ebp]
  00015	8b f1		 mov	 esi, ecx

; 1291 : 	if(!this->bEnable)

  00017	80 7e 14 00	 cmp	 BYTE PTR [esi+20], 0

; 1631 : 	}
; 1632 : 
; 1633 : 	PMSG_GC_ACH_POWER pMsg;
; 1634 : 	pMsg.h.set((LPBYTE)&pMsg, 0xFB, 0x92, sizeof(pMsg));

  0001b	89 7d c0	 mov	 DWORD PTR _aIndex$GSCopy$[ebp], edi
  0001e	0f 84 2a 04 00
	00		 je	 $LN65@Calculator

; 1292 : 	{
; 1293 : 		return;
; 1294 : 	}
; 1295 : 
; 1296 : 	if(!gObjIsConnected(aIndex))

  00024	57		 push	 edi
  00025	e8 00 00 00 00	 call	 ?gObjIsConnected@@YAHH@Z ; gObjIsConnected
  0002a	83 c4 04	 add	 esp, 4
  0002d	85 c0		 test	 eax, eax
  0002f	0f 84 19 04 00
	00		 je	 $LN65@Calculator

; 1297 : 	{
; 1298 : 		return;
; 1299 : 	}
; 1300 : 
; 1301 : 	LPOBJ lpUser = &gObj[aIndex];

  00035	69 ff 50 2b 00
	00		 imul	 edi, 11088		; 00002b50H
  0003b	03 3d 00 00 00
	00		 add	 edi, DWORD PTR ?gObj@@3PAUOBJECTSTRUCT@@A ; gObj

; 1302 : 
; 1303 : 	if(!lpUser->ach.bLoaded)

  00041	80 bf 20 29 00
	00 00		 cmp	 BYTE PTR [edi+10528], 0
  00048	0f 84 00 04 00
	00		 je	 $LN65@Calculator

; 1304 : 	{
; 1305 : 		return;
; 1306 : 	}
; 1307 : 
; 1308 : 	int iAchCount = 0;
; 1309 : 
; 1310 : 	if(lpUser->ach.mission.i1_MonsterKill >= this->m_config.i1_MonsterKill)

  0004e	8b 87 30 29 00
	00		 mov	 eax, DWORD PTR [edi+10544]
  00054	33 c9		 xor	 ecx, ecx
  00056	3b 46 18	 cmp	 eax, DWORD PTR [esi+24]
  00059	72 05		 jb	 SHORT $LN61@Calculator

; 1311 : 	{
; 1312 : 		iAchCount++;

  0005b	b9 01 00 00 00	 mov	 ecx, 1
$LN61@Calculator:

; 1313 : 	}
; 1314 : 
; 1315 : 	if(lpUser->ach.mission.i2_GoldenKill >= this->m_config.i2_GoldenKill)

  00060	8b 97 34 29 00
	00		 mov	 edx, DWORD PTR [edi+10548]
  00066	3b 56 1c	 cmp	 edx, DWORD PTR [esi+28]
  00069	72 01		 jb	 SHORT $LN60@Calculator

; 1316 : 	{
; 1317 : 		iAchCount++;

  0006b	41		 inc	 ecx
$LN60@Calculator:

; 1318 : 	}
; 1319 : 
; 1320 : 	if(lpUser->ach.mission.i3_KalimaMonserKill >= this->m_config.i3_KalimaMonserKill)

  0006c	8b 87 38 29 00
	00		 mov	 eax, DWORD PTR [edi+10552]
  00072	3b 46 20	 cmp	 eax, DWORD PTR [esi+32]
  00075	72 01		 jb	 SHORT $LN59@Calculator

; 1321 : 	{
; 1322 : 		iAchCount++;

  00077	41		 inc	 ecx
$LN59@Calculator:

; 1323 : 	}
; 1324 : 
; 1325 : 	if(lpUser->ach.mission.i4_WhiteWizardKill >= this->m_config.i4_WhiteWizardKill)

  00078	8b 97 3c 29 00
	00		 mov	 edx, DWORD PTR [edi+10556]
  0007e	3b 56 24	 cmp	 edx, DWORD PTR [esi+36]
  00081	72 01		 jb	 SHORT $LN58@Calculator

; 1326 : 	{
; 1327 : 		iAchCount++;

  00083	41		 inc	 ecx
$LN58@Calculator:

; 1328 : 	}
; 1329 : 
; 1330 : 	if(lpUser->ach.mission.i5_PlayerKill >= this->m_config.i5_PlayerKill)

  00084	8b 87 40 29 00
	00		 mov	 eax, DWORD PTR [edi+10560]
  0008a	3b 46 28	 cmp	 eax, DWORD PTR [esi+40]
  0008d	72 01		 jb	 SHORT $LN57@Calculator

; 1331 : 	{
; 1332 : 		iAchCount++;

  0008f	41		 inc	 ecx
$LN57@Calculator:

; 1333 : 	}
; 1334 : 
; 1335 : 	if(lpUser->ach.mission.i6_RedDragonKill >= this->m_config.i6_RedDragonKill)

  00090	8b 97 44 29 00
	00		 mov	 edx, DWORD PTR [edi+10564]
  00096	3b 56 2c	 cmp	 edx, DWORD PTR [esi+44]
  00099	72 01		 jb	 SHORT $LN56@Calculator

; 1336 : 	{
; 1337 : 		iAchCount++;

  0009b	41		 inc	 ecx
$LN56@Calculator:

; 1338 : 	}
; 1339 : 
; 1340 : 	if(lpUser->ach.mission.i7_OrcKill >= this->m_config.i7_OrcKill)

  0009c	8b 87 48 29 00
	00		 mov	 eax, DWORD PTR [edi+10568]
  000a2	3b 46 30	 cmp	 eax, DWORD PTR [esi+48]
  000a5	72 01		 jb	 SHORT $LN55@Calculator

; 1341 : 	{
; 1342 : 		iAchCount++;

  000a7	41		 inc	 ecx
$LN55@Calculator:

; 1343 : 	}
; 1344 : 
; 1345 : 	if(lpUser->ach.mission.i8_KillGateBC >= this->m_config.i8_KillGateBC)

  000a8	8b 97 4c 29 00
	00		 mov	 edx, DWORD PTR [edi+10572]
  000ae	3b 56 34	 cmp	 edx, DWORD PTR [esi+52]
  000b1	72 01		 jb	 SHORT $LN54@Calculator

; 1346 : 	{
; 1347 : 		iAchCount++;

  000b3	41		 inc	 ecx
$LN54@Calculator:

; 1348 : 	}
; 1349 : 
; 1350 : 	if(lpUser->ach.mission.i9_TakePartInCC >= this->m_config.i9_TakePartInCC)

  000b4	8b 87 50 29 00
	00		 mov	 eax, DWORD PTR [edi+10576]
  000ba	3b 46 38	 cmp	 eax, DWORD PTR [esi+56]
  000bd	72 01		 jb	 SHORT $LN53@Calculator

; 1351 : 	{
; 1352 : 		iAchCount++;

  000bf	41		 inc	 ecx
$LN53@Calculator:

; 1353 : 	}
; 1354 : 
; 1355 : 	if(lpUser->ach.mission.i10_WinningTheCC >= this->m_config.i10_WinningTheCC)

  000c0	8b 97 54 29 00
	00		 mov	 edx, DWORD PTR [edi+10580]
  000c6	3b 56 3c	 cmp	 edx, DWORD PTR [esi+60]
  000c9	72 01		 jb	 SHORT $LN52@Calculator

; 1356 : 	{
; 1357 : 		iAchCount++;

  000cb	41		 inc	 ecx
$LN52@Calculator:

; 1358 : 	}
; 1359 : 
; 1360 : 	if(lpUser->ach.mission.i11_OnlineTime >= this->m_config.i11_OnlineTime)

  000cc	8b 87 58 29 00
	00		 mov	 eax, DWORD PTR [edi+10584]
  000d2	3b 46 40	 cmp	 eax, DWORD PTR [esi+64]
  000d5	72 01		 jb	 SHORT $LN51@Calculator

; 1361 : 	{
; 1362 : 		iAchCount++;

  000d7	41		 inc	 ecx
$LN51@Calculator:

; 1363 : 	}
; 1364 : 
; 1365 : 	if(lpUser->ach.mission.i12_PickUpJewels >= this->m_config.i12_PickUpJewels)

  000d8	8b 97 5c 29 00
	00		 mov	 edx, DWORD PTR [edi+10588]
  000de	3b 56 44	 cmp	 edx, DWORD PTR [esi+68]
  000e1	72 01		 jb	 SHORT $LN50@Calculator

; 1366 : 	{
; 1367 : 		iAchCount++;

  000e3	41		 inc	 ecx
$LN50@Calculator:

; 1368 : 	}
; 1369 : 
; 1370 : 	if(lpUser->ach.mission.i13_UsedJewels >= this->m_config.i13_UsedJewels)

  000e4	8b 87 60 29 00
	00		 mov	 eax, DWORD PTR [edi+10592]
  000ea	3b 46 48	 cmp	 eax, DWORD PTR [esi+72]
  000ed	72 01		 jb	 SHORT $LN49@Calculator

; 1371 : 	{
; 1372 : 		iAchCount++;

  000ef	41		 inc	 ecx
$LN49@Calculator:

; 1373 : 	}
; 1374 : 
; 1375 : 	if(lpUser->ach.mission.i14_SuccessChaosMix >= this->m_config.i14_SuccessChaosMix)

  000f0	8b 97 64 29 00
	00		 mov	 edx, DWORD PTR [edi+10596]
  000f6	3b 56 4c	 cmp	 edx, DWORD PTR [esi+76]
  000f9	72 01		 jb	 SHORT $LN48@Calculator

; 1376 : 	{
; 1377 : 		iAchCount++;

  000fb	41		 inc	 ecx
$LN48@Calculator:

; 1378 : 	}
; 1379 : 
; 1380 : 	if(lpUser->ach.mission.i15_FailedChaosMix >= this->m_config.i15_FailedChaosMix)

  000fc	8b 87 68 29 00
	00		 mov	 eax, DWORD PTR [edi+10600]
  00102	3b 46 50	 cmp	 eax, DWORD PTR [esi+80]
  00105	72 01		 jb	 SHORT $LN47@Calculator

; 1381 : 	{
; 1382 : 		iAchCount++;

  00107	41		 inc	 ecx
$LN47@Calculator:

; 1383 : 	}
; 1384 : 
; 1385 : 	if(lpUser->ach.mission.i16_PickUpZen >= this->m_config.i16_PickUpZen)

  00108	8b 97 6c 29 00
	00		 mov	 edx, DWORD PTR [edi+10604]
  0010e	3b 56 54	 cmp	 edx, DWORD PTR [esi+84]
  00111	72 01		 jb	 SHORT $LN46@Calculator

; 1386 : 	{
; 1387 : 		iAchCount++;

  00113	41		 inc	 ecx
$LN46@Calculator:

; 1388 : 	}
; 1389 : 
; 1390 : 	if(lpUser->ach.mission.i17_PickUpExellent >= this->m_config.i17_PickUpExellent)

  00114	8b 87 70 29 00
	00		 mov	 eax, DWORD PTR [edi+10608]
  0011a	3b 46 58	 cmp	 eax, DWORD PTR [esi+88]
  0011d	72 01		 jb	 SHORT $LN45@Calculator

; 1391 : 	{
; 1392 : 		iAchCount++;

  0011f	41		 inc	 ecx
$LN45@Calculator:

; 1393 : 	}
; 1394 : 
; 1395 : 	if(lpUser->ach.mission.i18_PickUpAncent >= this->m_config.i18_PickUpAncent)

  00120	8b 97 74 29 00
	00		 mov	 edx, DWORD PTR [edi+10612]
  00126	3b 56 5c	 cmp	 edx, DWORD PTR [esi+92]
  00129	72 01		 jb	 SHORT $LN44@Calculator

; 1396 : 	{
; 1397 : 		iAchCount++;

  0012b	41		 inc	 ecx
$LN44@Calculator:

; 1398 : 	}
; 1399 : 
; 1400 : 	if(lpUser->ach.mission.i19_DuelWin >= this->m_config.i19_DuelWin)

  0012c	8b 87 78 29 00
	00		 mov	 eax, DWORD PTR [edi+10616]
  00132	3b 46 60	 cmp	 eax, DWORD PTR [esi+96]
  00135	72 01		 jb	 SHORT $LN43@Calculator

; 1401 : 	{
; 1402 : 		iAchCount++;

  00137	41		 inc	 ecx
$LN43@Calculator:

; 1403 : 	}
; 1404 : 
; 1405 : 	if(lpUser->ach.mission.i20_LevelUp >= this->m_config.i20_LevelUp)

  00138	8b 97 7c 29 00
	00		 mov	 edx, DWORD PTR [edi+10620]
  0013e	3b 56 64	 cmp	 edx, DWORD PTR [esi+100]
  00141	72 01		 jb	 SHORT $LN42@Calculator

; 1406 : 	{
; 1407 : 		iAchCount++;

  00143	41		 inc	 ecx
$LN42@Calculator:

; 1408 : 	}
; 1409 : 
; 1410 : 	if(lpUser->ach.mission.i21_ResetUp >= this->m_config.i21_ResetUp)

  00144	8b 87 80 29 00
	00		 mov	 eax, DWORD PTR [edi+10624]
  0014a	3b 46 68	 cmp	 eax, DWORD PTR [esi+104]
  0014d	72 01		 jb	 SHORT $LN41@Calculator

; 1411 : 	{
; 1412 : 		iAchCount++;

  0014f	41		 inc	 ecx
$LN41@Calculator:

; 1413 : 	}
; 1414 : 
; 1415 : 	if(lpUser->ach.mission.i22_KanturuBossKill >= this->m_config.i22_KanturuBossKill)

  00150	8b 97 84 29 00
	00		 mov	 edx, DWORD PTR [edi+10628]
  00156	3b 56 6c	 cmp	 edx, DWORD PTR [esi+108]
  00159	72 01		 jb	 SHORT $LN40@Calculator

; 1416 : 	{
; 1417 : 		iAchCount++;

  0015b	41		 inc	 ecx
$LN40@Calculator:

; 1418 : 	}
; 1419 : 
; 1420 : 	if(lpUser->ach.mission.i23_Monster100LvlKill >= this->m_config.i23_Monster100LvlKill)

  0015c	8b 87 88 29 00
	00		 mov	 eax, DWORD PTR [edi+10632]
  00162	3b 46 70	 cmp	 eax, DWORD PTR [esi+112]
  00165	72 01		 jb	 SHORT $LN39@Calculator

; 1421 : 	{
; 1422 : 		iAchCount++;

  00167	41		 inc	 ecx
$LN39@Calculator:

; 1423 : 	}
; 1424 : 
; 1425 : 	if(lpUser->ach.mission.i24_MootopVote >= this->m_config.i24_MootopVote)

  00168	8b 97 8c 29 00
	00		 mov	 edx, DWORD PTR [edi+10636]
  0016e	3b 56 74	 cmp	 edx, DWORD PTR [esi+116]
  00171	72 01		 jb	 SHORT $LN38@Calculator

; 1426 : 	{
; 1427 : 		iAchCount++;

  00173	41		 inc	 ecx
$LN38@Calculator:

; 1428 : 	}
; 1429 : 
; 1430 : 	if(lpUser->ach.mission.i25_PhonomanKill >= this->m_config.i25_PhonomanKill)

  00174	8b 87 90 29 00
	00		 mov	 eax, DWORD PTR [edi+10640]
  0017a	3b 46 78	 cmp	 eax, DWORD PTR [esi+120]
  0017d	72 01		 jb	 SHORT $LN37@Calculator

; 1431 : 	{
; 1432 : 		iAchCount++;

  0017f	41		 inc	 ecx
$LN37@Calculator:

; 1433 : 	}
; 1434 : 
; 1435 : 	if(lpUser->ach.mission.i26_CryWolfEventMonster >= this->m_config.i26_CryWolfEventMonster)

  00180	8b 97 94 29 00
	00		 mov	 edx, DWORD PTR [edi+10644]
  00186	3b 56 7c	 cmp	 edx, DWORD PTR [esi+124]
  00189	72 01		 jb	 SHORT $LN36@Calculator

; 1436 : 	{
; 1437 : 		iAchCount++;

  0018b	41		 inc	 ecx
$LN36@Calculator:

; 1438 : 	}
; 1439 : 
; 1440 : 	if(lpUser->ach.mission.i27_HellMainKill >= this->m_config.i27_HellMainKill)

  0018c	8b 87 98 29 00
	00		 mov	 eax, DWORD PTR [edi+10648]
  00192	3b 86 80 00 00
	00		 cmp	 eax, DWORD PTR [esi+128]
  00198	72 01		 jb	 SHORT $LN35@Calculator

; 1441 : 	{
; 1442 : 		iAchCount++;

  0019a	41		 inc	 ecx
$LN35@Calculator:

; 1443 : 	}
; 1444 : 
; 1445 : 	if(lpUser->ach.mission.i28_KillInSelf_Defense >= this->m_config.i28_KillInSelf_Defense)

  0019b	8b 97 9c 29 00
	00		 mov	 edx, DWORD PTR [edi+10652]
  001a1	3b 96 84 00 00
	00		 cmp	 edx, DWORD PTR [esi+132]
  001a7	72 01		 jb	 SHORT $LN34@Calculator

; 1446 : 	{
; 1447 : 		iAchCount++;

  001a9	41		 inc	 ecx
$LN34@Calculator:

; 1448 : 	}
; 1449 : 
; 1450 : 	if(lpUser->ach.mission.i29_SelupanKill >= this->m_config.i29_SelupanKill)

  001aa	8b 87 a0 29 00
	00		 mov	 eax, DWORD PTR [edi+10656]
  001b0	3b 86 88 00 00
	00		 cmp	 eax, DWORD PTR [esi+136]
  001b6	72 01		 jb	 SHORT $LN33@Calculator

; 1451 : 	{
; 1452 : 		iAchCount++;

  001b8	41		 inc	 ecx
$LN33@Calculator:

; 1453 : 	}
; 1454 : 
; 1455 : 	if(lpUser->ach.mission.i30_KundunKill >= this->m_config.i30_KundunKill)

  001b9	8b 97 a4 29 00
	00		 mov	 edx, DWORD PTR [edi+10660]
  001bf	3b 96 8c 00 00
	00		 cmp	 edx, DWORD PTR [esi+140]
  001c5	72 01		 jb	 SHORT $LN32@Calculator

; 1456 : 	{
; 1457 : 		iAchCount++;

  001c7	41		 inc	 ecx
$LN32@Calculator:

; 1458 : 	}
; 1459 : 
; 1460 : 	if(lpUser->ach.mission.i31_KillStatueBC >= this->m_config.i31_KillStatueBC)

  001c8	8b 87 a8 29 00
	00		 mov	 eax, DWORD PTR [edi+10664]
  001ce	3b 86 90 00 00
	00		 cmp	 eax, DWORD PTR [esi+144]
  001d4	72 01		 jb	 SHORT $LN31@Calculator

; 1461 : 	{
; 1462 : 		iAchCount++;

  001d6	41		 inc	 ecx
$LN31@Calculator:

; 1463 : 	}
; 1464 : 
; 1465 : 	if(lpUser->ach.mission.i32_CompleteBC >= this->m_config.i32_CompleteBC)

  001d7	8b 97 ac 29 00
	00		 mov	 edx, DWORD PTR [edi+10668]
  001dd	3b 96 94 00 00
	00		 cmp	 edx, DWORD PTR [esi+148]
  001e3	72 01		 jb	 SHORT $LN30@Calculator

; 1466 : 	{
; 1467 : 		iAchCount++;

  001e5	41		 inc	 ecx
$LN30@Calculator:

; 1468 : 	}
; 1469 : 
; 1470 : 	if(lpUser->ach.mission.i33_GrandResetUp >= this->m_config.i33_GrandResetUp)

  001e6	8b 87 b0 29 00
	00		 mov	 eax, DWORD PTR [edi+10672]
  001ec	3b 86 98 00 00
	00		 cmp	 eax, DWORD PTR [esi+152]
  001f2	72 01		 jb	 SHORT $LN29@Calculator

; 1471 : 	{
; 1472 : 		iAchCount++;

  001f4	41		 inc	 ecx
$LN29@Calculator:

; 1473 : 	}
; 1474 : 
; 1475 : 	if(lpUser->ach.mission.i34_BlueRabbitKiller >= this->m_config.i34_BlueRabbitKiller)

  001f5	8b 97 b4 29 00
	00		 mov	 edx, DWORD PTR [edi+10676]
  001fb	3b 96 9c 00 00
	00		 cmp	 edx, DWORD PTR [esi+156]
  00201	72 01		 jb	 SHORT $LN28@Calculator

; 1476 : 	{
; 1477 : 		iAchCount++;

  00203	41		 inc	 ecx
$LN28@Calculator:

; 1478 : 	}
; 1479 : 
; 1480 : 	if(lpUser->ach.mission.i35_HappyPouchesKiller >= this->m_config.i35_HappyPouchesKiller)

  00204	8b 87 b8 29 00
	00		 mov	 eax, DWORD PTR [edi+10680]
  0020a	3b 86 a0 00 00
	00		 cmp	 eax, DWORD PTR [esi+160]
  00210	72 01		 jb	 SHORT $LN27@Calculator

; 1481 : 	{
; 1482 : 		iAchCount++;

  00212	41		 inc	 ecx
$LN27@Calculator:

; 1483 : 	}
; 1484 : 
; 1485 : 	if(lpUser->ach.mission.i36_PheonixKill >= this->m_config.i36_PheonixKill)

  00213	8b 97 bc 29 00
	00		 mov	 edx, DWORD PTR [edi+10684]
  00219	3b 96 a4 00 00
	00		 cmp	 edx, DWORD PTR [esi+164]
  0021f	72 01		 jb	 SHORT $LN26@Calculator

; 1486 : 	{
; 1487 : 		iAchCount++;

  00221	41		 inc	 ecx
$LN26@Calculator:

; 1488 : 	}
; 1489 : 
; 1490 : 	if(lpUser->ach.mission.i37_KanturuMonsterKill >= this->m_config.i37_KanturuMonsterKill)

  00222	8b 87 c0 29 00
	00		 mov	 eax, DWORD PTR [edi+10688]
  00228	3b 86 a8 00 00
	00		 cmp	 eax, DWORD PTR [esi+168]
  0022e	72 01		 jb	 SHORT $LN25@Calculator

; 1491 : 	{
; 1492 : 		iAchCount++;

  00230	41		 inc	 ecx
$LN25@Calculator:

; 1493 : 	}
; 1494 : 
; 1495 : 	if(lpUser->ach.mission.i38_MovePlayerFromSwitch >= this->m_config.i38_MovePlayerFromSwitch)

  00231	8b 97 c4 29 00
	00		 mov	 edx, DWORD PTR [edi+10692]
  00237	3b 96 ac 00 00
	00		 cmp	 edx, DWORD PTR [esi+172]
  0023d	72 01		 jb	 SHORT $LN24@Calculator

; 1496 : 	{
; 1497 : 		iAchCount++;

  0023f	41		 inc	 ecx
$LN24@Calculator:

; 1498 : 	}
; 1499 : 
; 1500 : 	if(lpUser->ach.mission.i39_WithstandSwitch10min >= this->m_config.i39_WithstandSwitch10min)

  00240	8b 87 c8 29 00
	00		 mov	 eax, DWORD PTR [edi+10696]
  00246	3b 86 b0 00 00
	00		 cmp	 eax, DWORD PTR [esi+176]
  0024c	72 01		 jb	 SHORT $LN23@Calculator

; 1501 : 	{
; 1502 : 		iAchCount++;

  0024e	41		 inc	 ecx
$LN23@Calculator:

; 1503 : 	}
; 1504 : 
; 1505 : 	if(lpUser->ach.mission.i40_MovePlayerFromCrown >= this->m_config.i40_MovePlayerFromCrown)

  0024f	8b 97 cc 29 00
	00		 mov	 edx, DWORD PTR [edi+10700]
  00255	3b 96 b4 00 00
	00		 cmp	 edx, DWORD PTR [esi+180]
  0025b	72 01		 jb	 SHORT $LN22@Calculator

; 1506 : 	{
; 1507 : 		iAchCount++;

  0025d	41		 inc	 ecx
$LN22@Calculator:

; 1508 : 	}
; 1509 : 
; 1510 : 	if(lpUser->ach.mission.i41_WinSiege >= this->m_config.i41_WinSiege)

  0025e	8b 87 d0 29 00
	00		 mov	 eax, DWORD PTR [edi+10704]
  00264	3b 86 b8 00 00
	00		 cmp	 eax, DWORD PTR [esi+184]
  0026a	72 01		 jb	 SHORT $LN21@Calculator

; 1511 : 	{
; 1512 : 		iAchCount++;

  0026c	41		 inc	 ecx
$LN21@Calculator:

; 1513 : 	}
; 1514 : 
; 1515 : 	if(lpUser->ach.mission.i42_KillCastleSiegeNPC >= this->m_config.i42_KillCastleSiegeNPC)

  0026d	8b 97 d4 29 00
	00		 mov	 edx, DWORD PTR [edi+10708]
  00273	3b 96 bc 00 00
	00		 cmp	 edx, DWORD PTR [esi+188]
  00279	72 01		 jb	 SHORT $LN20@Calculator

; 1516 : 	{
; 1517 : 		iAchCount++;

  0027b	41		 inc	 ecx
$LN20@Calculator:

; 1518 : 	}
; 1519 : 
; 1520 : 	if(lpUser->ach.mission.i43_KillPlayerCastleSiege >= this->m_config.i43_KillPlayerCastleSiege)

  0027c	8b 87 d8 29 00
	00		 mov	 eax, DWORD PTR [edi+10712]
  00282	3b 86 c0 00 00
	00		 cmp	 eax, DWORD PTR [esi+192]
  00288	72 01		 jb	 SHORT $LN19@Calculator

; 1521 : 	{
; 1522 : 		iAchCount++;

  0028a	41		 inc	 ecx
$LN19@Calculator:

; 1523 : 	}
; 1524 : 
; 1525 : 	if(lpUser->ach.mission.i44_KillErohim >= this->m_config.i44_KillErohim)

  0028b	8b 97 dc 29 00
	00		 mov	 edx, DWORD PTR [edi+10716]
  00291	3b 96 c4 00 00
	00		 cmp	 edx, DWORD PTR [esi+196]
  00297	72 01		 jb	 SHORT $LN18@Calculator

; 1526 : 	{
; 1527 : 		iAchCount++;

  00299	41		 inc	 ecx
$LN18@Calculator:

; 1528 : 	}
; 1529 : 
; 1530 : 	if(lpUser->ach.mission.i45_BuyDonateShopItem >= this->m_config.i45_BuyDonateShopItem)

  0029a	8b 87 e0 29 00
	00		 mov	 eax, DWORD PTR [edi+10720]
  002a0	3b 86 c8 00 00
	00		 cmp	 eax, DWORD PTR [esi+200]
  002a6	72 01		 jb	 SHORT $LN17@Calculator

; 1531 : 	{
; 1532 : 		iAchCount++;

  002a8	41		 inc	 ecx
$LN17@Calculator:

; 1533 : 	}
; 1534 : 
; 1535 : 	if(lpUser->ach.mission.i46_GuildWarWin >= this->m_config.i46_GuildWarWin)

  002a9	8b 97 e4 29 00
	00		 mov	 edx, DWORD PTR [edi+10724]
  002af	3b 96 cc 00 00
	00		 cmp	 edx, DWORD PTR [esi+204]
  002b5	72 01		 jb	 SHORT $LN16@Calculator

; 1536 : 	{
; 1537 : 		iAchCount++;

  002b7	41		 inc	 ecx
$LN16@Calculator:

; 1538 : 	}
; 1539 : 
; 1540 : 	if(lpUser->ach.mission.i47_PartyNoobLevelUp >= this->m_config.i47_PartyNoobLevelUp)

  002b8	8b 87 e8 29 00
	00		 mov	 eax, DWORD PTR [edi+10728]
  002be	3b 86 d0 00 00
	00		 cmp	 eax, DWORD PTR [esi+208]
  002c4	72 01		 jb	 SHORT $LN15@Calculator

; 1541 : 	{
; 1542 : 		iAchCount++;

  002c6	41		 inc	 ecx
$LN15@Calculator:

; 1543 : 	}
; 1544 : 
; 1545 : 	if(lpUser->ach.mission.i48_PickUpRena >= this->m_config.i48_PickUpRena)

  002c7	8b 97 ec 29 00
	00		 mov	 edx, DWORD PTR [edi+10732]
  002cd	3b 96 d4 00 00
	00		 cmp	 edx, DWORD PTR [esi+212]
  002d3	72 01		 jb	 SHORT $LN14@Calculator

; 1546 : 	{
; 1547 : 		iAchCount++;

  002d5	41		 inc	 ecx
$LN14@Calculator:

; 1548 : 	}
; 1549 : 
; 1550 : 	if(lpUser->ach.mission.i49_PickUpLuckyCoins >= this->m_config.i49_PickUpLuckyCoins)

  002d6	8b 87 f0 29 00
	00		 mov	 eax, DWORD PTR [edi+10736]
  002dc	3b 86 d8 00 00
	00		 cmp	 eax, DWORD PTR [esi+216]
  002e2	72 01		 jb	 SHORT $LN13@Calculator

; 1551 : 	{
; 1552 : 		iAchCount++;

  002e4	41		 inc	 ecx
$LN13@Calculator:

; 1553 : 	}
; 1554 : 
; 1555 : 	if(lpUser->ach.mission.i50_OfflineAttackTime >= this->m_config.i50_OfflineAttackTime)

  002e5	8b 97 f4 29 00
	00		 mov	 edx, DWORD PTR [edi+10740]
  002eb	3b 96 dc 00 00
	00		 cmp	 edx, DWORD PTR [esi+220]
  002f1	72 01		 jb	 SHORT $LN12@Calculator

; 1556 : 	{
; 1557 : 		iAchCount++;

  002f3	41		 inc	 ecx
$LN12@Calculator:

; 1558 : 	}
; 1559 : 
; 1560 : 	int iAddDamage = 0;
; 1561 : 	int iAddDefence = 0;
; 1562 : 	int iAddLife = 0;
; 1563 : 	int iAddExellentPercent = 0;
; 1564 : 	int iAddCriticalPercent = 0;
; 1565 : 
; 1566 : 	//iAddDamage = 60 * iAchCount;
; 1567 : 	//iAddDefence = 40 * iAchCount;
; 1568 : 	//iAddLife =  200 * iAchCount;
; 1569 : 	//iAddExellentPercent = 0.2 * iAchCount;
; 1570 : 	//iAddCriticalPercent = 0.2 * iAchCount;
; 1571 : 
; 1572 : 	iAddDamage = this->m_DivDamage * iAchCount;

  002f4	8b 16		 mov	 edx, DWORD PTR [esi]
  002f6	0f af d1	 imul	 edx, ecx
  002f9	89 55 c4	 mov	 DWORD PTR _iAddDamage$[ebp], edx

; 1573 : 	iAddDefence = this->m_DivDefence * iAchCount;

  002fc	8b 56 04	 mov	 edx, DWORD PTR [esi+4]
  002ff	0f af d1	 imul	 edx, ecx
  00302	89 55 c8	 mov	 DWORD PTR _iAddDefence$[ebp], edx

; 1574 : 	iAddLife =  this->m_DivLife * iAchCount;

  00305	8b 56 08	 mov	 edx, DWORD PTR [esi+8]
  00308	0f af d1	 imul	 edx, ecx
  0030b	53		 push	 ebx
  0030c	33 db		 xor	 ebx, ebx
  0030e	33 c0		 xor	 eax, eax
  00310	89 55 cc	 mov	 DWORD PTR _iAddLife$[ebp], edx

; 1575 : 
; 1576 : 	if(iAchCount > 0)

  00313	85 c9		 test	 ecx, ecx
  00315	7e 31		 jle	 SHORT $LN11@Calculator

; 1577 : 	{
; 1578 : 		iAddExellentPercent = ( iAchCount * this->m_DivExellentPercent ) / 100;

  00317	8b 56 0c	 mov	 edx, DWORD PTR [esi+12]
  0031a	0f af d1	 imul	 edx, ecx
  0031d	b8 1f 85 eb 51	 mov	 eax, 1374389535		; 51eb851fH
  00322	f7 ea		 imul	 edx
  00324	c1 fa 05	 sar	 edx, 5
  00327	8b da		 mov	 ebx, edx
  00329	c1 eb 1f	 shr	 ebx, 31			; 0000001fH
  0032c	03 da		 add	 ebx, edx

; 1579 : 		iAddCriticalPercent = ( iAchCount * this->m_DivCriticalPercent ) / 100;

  0032e	8b 56 10	 mov	 edx, DWORD PTR [esi+16]
  00331	0f af d1	 imul	 edx, ecx
  00334	b8 1f 85 eb 51	 mov	 eax, 1374389535		; 51eb851fH
  00339	f7 ea		 imul	 edx
  0033b	c1 fa 05	 sar	 edx, 5
  0033e	8b c2		 mov	 eax, edx
  00340	c1 e8 1f	 shr	 eax, 31			; 0000001fH
  00343	03 c2		 add	 eax, edx
  00345	8b 55 cc	 mov	 edx, DWORD PTR _iAddLife$[ebp]
$LN11@Calculator:

; 1580 : 	}
; 1581 : 
; 1582 : 	if(iAddDamage > 0)

  00348	8b 4d c4	 mov	 ecx, DWORD PTR _iAddDamage$[ebp]
  0034b	85 c9		 test	 ecx, ecx
  0034d	7e 36		 jle	 SHORT $LN10@Calculator

; 1583 : 	{
; 1584 : 		if(iAddDamage > this->iDamageMax)

  0034f	8b 96 a8 01 00
	00		 mov	 edx, DWORD PTR [esi+424]
  00355	3b ca		 cmp	 ecx, edx
  00357	7e 05		 jle	 SHORT $LN9@Calculator

; 1585 : 		{
; 1586 : 			iAddDamage = this->iDamageMax;

  00359	8b ca		 mov	 ecx, edx
  0035b	89 4d c4	 mov	 DWORD PTR _iAddDamage$[ebp], ecx
$LN9@Calculator:

; 1587 : 		}
; 1588 : 		lpUser->m_AttackDamageMaxLeft += iAddDamage;

  0035e	01 8f 78 04 00
	00		 add	 DWORD PTR [edi+1144], ecx

; 1589 : 		lpUser->m_AttackDamageMinLeft += iAddDamage;

  00364	01 8f 7c 04 00
	00		 add	 DWORD PTR [edi+1148], ecx

; 1590 : 		lpUser->m_AttackDamageMaxRight += iAddDamage;

  0036a	01 8f 80 04 00
	00		 add	 DWORD PTR [edi+1152], ecx

; 1591 : 		lpUser->m_AttackDamageMinRight += iAddDamage;

  00370	01 8f 84 04 00
	00		 add	 DWORD PTR [edi+1156], ecx

; 1592 : 		lpUser->m_MagicDamageMin += iAddDamage;

  00376	01 8f 68 04 00
	00		 add	 DWORD PTR [edi+1128], ecx

; 1593 : 		lpUser->m_MagicDamageMax += iAddDamage;

  0037c	01 8f 6c 04 00
	00		 add	 DWORD PTR [edi+1132], ecx
  00382	8b 55 cc	 mov	 edx, DWORD PTR _iAddLife$[ebp]
$LN10@Calculator:

; 1594 : 	}
; 1595 : 
; 1596 : 	if(iAddDefence > 0)

  00385	8b 4d c8	 mov	 ecx, DWORD PTR _iAddDefence$[ebp]
  00388	85 c9		 test	 ecx, ecx
  0038a	7e 1e		 jle	 SHORT $LN8@Calculator

; 1597 : 	{
; 1598 : 		if(iAddDefence > this->iDefenceMax)

  0038c	8b 96 ac 01 00
	00		 mov	 edx, DWORD PTR [esi+428]
  00392	3b ca		 cmp	 ecx, edx
  00394	7e 05		 jle	 SHORT $LN7@Calculator

; 1599 : 		{
; 1600 : 			iAddDefence = this->iDefenceMax;

  00396	8b ca		 mov	 ecx, edx
  00398	89 4d c8	 mov	 DWORD PTR _iAddDefence$[ebp], ecx
$LN7@Calculator:

; 1601 : 		}
; 1602 : 		lpUser->m_Defense += iAddDefence;

  0039b	01 8f 94 04 00
	00		 add	 DWORD PTR [edi+1172], ecx

; 1603 : 		lpUser->m_MagicDefense += iAddDefence;

  003a1	01 8f 98 04 00
	00		 add	 DWORD PTR [edi+1176], ecx
  003a7	8b 55 cc	 mov	 edx, DWORD PTR _iAddLife$[ebp]
$LN8@Calculator:

; 1604 : 	}
; 1605 : 
; 1606 : 	if(iAddLife > 0)

  003aa	85 d2		 test	 edx, edx
  003ac	7e 15		 jle	 SHORT $LN6@Calculator

; 1607 : 	{
; 1608 : 		if(iAddLife > this->iLifeMax)

  003ae	8b 8e b0 01 00
	00		 mov	 ecx, DWORD PTR [esi+432]
  003b4	3b d1		 cmp	 edx, ecx
  003b6	7e 05		 jle	 SHORT $LN5@Calculator

; 1609 : 		{
; 1610 : 			iAddLife = this->iLifeMax;

  003b8	8b d1		 mov	 edx, ecx
  003ba	89 4d cc	 mov	 DWORD PTR _iAddLife$[ebp], ecx
$LN5@Calculator:

; 1611 : 		}
; 1612 : 		lpUser->AddLife += iAddLife;

  003bd	01 97 4c 01 00
	00		 add	 DWORD PTR [edi+332], edx
$LN6@Calculator:

; 1613 : 	}
; 1614 : 
; 1615 : 	if(iAddExellentPercent > 0)

  003c3	85 db		 test	 ebx, ebx
  003c5	7e 12		 jle	 SHORT $LN4@Calculator

; 1616 : 	{
; 1617 : 		if(iAddExellentPercent > this->iExellentDamageMax)

  003c7	8b 8e b4 01 00
	00		 mov	 ecx, DWORD PTR [esi+436]
  003cd	3b d9		 cmp	 ebx, ecx
  003cf	7e 02		 jle	 SHORT $LN3@Calculator

; 1618 : 		{
; 1619 : 			iAddExellentPercent = this->iExellentDamageMax;

  003d1	8b d9		 mov	 ebx, ecx
$LN3@Calculator:

; 1620 : 		}
; 1621 : 		lpUser->m_ExcelentDamage += iAddExellentPercent;

  003d3	01 9f c0 04 00
	00		 add	 DWORD PTR [edi+1216], ebx
$LN4@Calculator:

; 1622 : 	}
; 1623 : 
; 1624 : 	if(iAddCriticalPercent > 0)

  003d9	85 c0		 test	 eax, eax
  003db	7e 12		 jle	 SHORT $LN2@Calculator

; 1625 : 	{
; 1626 : 		if(iAddCriticalPercent > this->iCriticalDamageMax)

  003dd	8b 8e b8 01 00
	00		 mov	 ecx, DWORD PTR [esi+440]
  003e3	3b c1		 cmp	 eax, ecx
  003e5	7e 02		 jle	 SHORT $LN1@Calculator

; 1627 : 		{
; 1628 : 			iAddCriticalPercent = this->iCriticalDamageMax;

  003e7	8b c1		 mov	 eax, ecx
$LN1@Calculator:

; 1629 : 		}
; 1630 : 		lpUser->m_CriticalDamage += iAddCriticalPercent;

  003e9	01 87 bc 04 00
	00		 add	 DWORD PTR [edi+1212], eax
$LN2@Calculator:

; 1635 : 
; 1636 : 	pMsg.iDamage = iAddDamage;

  003ef	8b 4d c4	 mov	 ecx, DWORD PTR _iAddDamage$[ebp]

; 1637 : 	pMsg.iDamageMax = this->iDamageMax;

  003f2	8b 96 a8 01 00
	00		 mov	 edx, DWORD PTR [esi+424]
  003f8	89 4d d4	 mov	 DWORD PTR _pMsg$[ebp+4], ecx

; 1638 : 	pMsg.iDefence = iAddDefence;

  003fb	8b 4d c8	 mov	 ecx, DWORD PTR _iAddDefence$[ebp]
  003fe	89 4d dc	 mov	 DWORD PTR _pMsg$[ebp+12], ecx

; 1639 : 	pMsg.iDefenceMax = this->iDefenceMax;
; 1640 : 	pMsg.iLife = iAddLife;

  00401	8b 4d cc	 mov	 ecx, DWORD PTR _iAddLife$[ebp]
  00404	89 55 d8	 mov	 DWORD PTR _pMsg$[ebp+8], edx
  00407	8b 96 ac 01 00
	00		 mov	 edx, DWORD PTR [esi+428]
  0040d	89 4d e4	 mov	 DWORD PTR _pMsg$[ebp+20], ecx

; 1641 : 	pMsg.iLifeMax = this->iLifeMax;
; 1642 : 	pMsg.iExellentDamage = iAddExellentPercent;
; 1643 : 	pMsg.iExellentDamageMax = this->iExellentDamageMax;

  00410	8b 8e b4 01 00
	00		 mov	 ecx, DWORD PTR [esi+436]
  00416	89 55 e0	 mov	 DWORD PTR _pMsg$[ebp+16], edx
  00419	8b 96 b0 01 00
	00		 mov	 edx, DWORD PTR [esi+432]

; 1644 : 	pMsg.iCriticalDamage = iAddCriticalPercent;

  0041f	89 45 f4	 mov	 DWORD PTR _pMsg$[ebp+36], eax

; 1645 : 	pMsg.iCriticalDamageMax = this->iCriticalDamageMax;
; 1646 : 
; 1647 : 	DataSend(aIndex, (LPBYTE)&pMsg, sizeof(pMsg));

  00422	6a 2c		 push	 44			; 0000002cH
  00424	8d 45 d0	 lea	 eax, DWORD PTR _pMsg$[ebp]
  00427	89 4d f0	 mov	 DWORD PTR _pMsg$[ebp+32], ecx
  0042a	8b 4d c0	 mov	 ecx, DWORD PTR _aIndex$GSCopy$[ebp]
  0042d	89 55 e8	 mov	 DWORD PTR _pMsg$[ebp+24], edx
  00430	8b 96 b8 01 00
	00		 mov	 edx, DWORD PTR [esi+440]
  00436	50		 push	 eax
  00437	51		 push	 ecx
  00438	c7 45 d0 c1 2c
	fb 92		 mov	 DWORD PTR _pMsg$[ebp], -1829032767 ; 92fb2cc1H
  0043f	89 5d ec	 mov	 DWORD PTR _pMsg$[ebp+28], ebx
  00442	89 55 f8	 mov	 DWORD PTR _pMsg$[ebp+40], edx
  00445	e8 00 00 00 00	 call	 ?DataSend@@YAHHPAEK@Z	; DataSend
  0044a	83 c4 0c	 add	 esp, 12			; 0000000cH
  0044d	5b		 pop	 ebx
$LN65@Calculator:

; 1648 : }

  0044e	8b 4d fc	 mov	 ecx, DWORD PTR __$ArrayPad$[ebp]
  00451	5f		 pop	 edi
  00452	33 cd		 xor	 ecx, ebp
  00454	5e		 pop	 esi
  00455	e8 00 00 00 00	 call	 @__security_check_cookie@4
  0045a	8b e5		 mov	 esp, ebp
  0045c	5d		 pop	 ebp
  0045d	c2 04 00	 ret	 4
?CalculatorPower@CAchievements@@QAEXH@Z ENDP		; CAchievements::CalculatorPower
_TEXT	ENDS
PUBLIC	?GetItemDrop@CAchievements@@QAE_NHH@Z		; CAchievements::GetItemDrop
; Function compile flags: /Ogtp
;	COMDAT ?GetItemDrop@CAchievements@@QAE_NHH@Z
_TEXT	SEGMENT
_aIndex$ = 8						; size = 4
_ItemNumber$ = 12					; size = 4
?GetItemDrop@CAchievements@@QAE_NHH@Z PROC		; CAchievements::GetItemDrop, COMDAT
; _this$ = ecx

; 1651 : {

  00000	55		 push	 ebp
  00001	8b ec		 mov	 ebp, esp

; 1652 : 	if(!this->bEnable)

  00003	80 79 14 00	 cmp	 BYTE PTR [ecx+20], 0
  00007	75 06		 jne	 SHORT $LN4@GetItemDro

; 1653 : 	{
; 1654 : 		return true;

  00009	b0 01		 mov	 al, 1

; 1672 : 		{
; 1673 : 			return false;
; 1674 : 		}
; 1675 : 	}
; 1676 : 
; 1677 : 	return true;
; 1678 : }

  0000b	5d		 pop	 ebp
  0000c	c2 08 00	 ret	 8
$LN4@GetItemDro:
  0000f	56		 push	 esi

; 1655 : 	}
; 1656 : 
; 1657 : 	if(!gObjIsConnected(aIndex))

  00010	8b 75 08	 mov	 esi, DWORD PTR _aIndex$[ebp]
  00013	56		 push	 esi
  00014	e8 00 00 00 00	 call	 ?gObjIsConnected@@YAHH@Z ; gObjIsConnected
  00019	83 c4 04	 add	 esp, 4
  0001c	85 c0		 test	 eax, eax
  0001e	75 07		 jne	 SHORT $LN3@GetItemDro

; 1658 : 	{
; 1659 : 		return false;

  00020	32 c0		 xor	 al, al
  00022	5e		 pop	 esi

; 1672 : 		{
; 1673 : 			return false;
; 1674 : 		}
; 1675 : 	}
; 1676 : 
; 1677 : 	return true;
; 1678 : }

  00023	5d		 pop	 ebp
  00024	c2 08 00	 ret	 8
$LN3@GetItemDro:

; 1660 : 	}
; 1661 : 
; 1662 : 	LPOBJ lpUser = &gObj[aIndex];
; 1663 : 
; 1664 : 	if(!lpUser->ach.bLoaded)

  00027	a1 00 00 00 00	 mov	 eax, DWORD PTR ?gObj@@3PAUOBJECTSTRUCT@@A ; gObj
  0002c	69 f6 50 2b 00
	00		 imul	 esi, 11088		; 00002b50H
  00032	80 bc 06 20 29
	00 00 00	 cmp	 BYTE PTR [esi+eax+10528], 0
  0003a	75 07		 jne	 SHORT $LN2@GetItemDro

; 1665 : 	{
; 1666 : 		return true;

  0003c	b0 01		 mov	 al, 1
  0003e	5e		 pop	 esi

; 1672 : 		{
; 1673 : 			return false;
; 1674 : 		}
; 1675 : 	}
; 1676 : 
; 1677 : 	return true;
; 1678 : }

  0003f	5d		 pop	 ebp
  00040	c2 08 00	 ret	 8
$LN2@GetItemDro:

; 1667 : 	}
; 1668 : 
; 1669 : 	//if(this->m_config.i48_PickUpRena > lpUser->ach.mission.i48_PickUpRena || this->m_config.i49_PickUpLuckyCoins > lpUser->ach.mission.i49_PickUpLuckyCoins)
; 1670 : 	{
; 1671 : 		if(ItemNumber == ITEMGET(14,21))

  00043	81 7d 0c 15 1c
	00 00		 cmp	 DWORD PTR _ItemNumber$[ebp], 7189 ; 00001c15H
  0004a	5e		 pop	 esi
  0004b	0f 95 c0	 setne	 al

; 1672 : 		{
; 1673 : 			return false;
; 1674 : 		}
; 1675 : 	}
; 1676 : 
; 1677 : 	return true;
; 1678 : }

  0004e	5d		 pop	 ebp
  0004f	c2 08 00	 ret	 8
?GetItemDrop@CAchievements@@QAE_NHH@Z ENDP		; CAchievements::GetItemDrop
_TEXT	ENDS
PUBLIC	??0CAchievements@@QAE@XZ			; CAchievements::CAchievements
; Function compile flags: /Ogtp
;	COMDAT ??0CAchievements@@QAE@XZ
_TEXT	SEGMENT
??0CAchievements@@QAE@XZ PROC				; CAchievements::CAchievements, COMDAT
; _this$ = ecx

; 18   : {

  00000	56		 push	 esi
  00001	8b f1		 mov	 esi, ecx

; 19   : 	this->Init();

  00003	e8 00 00 00 00	 call	 ?Init@CAchievements@@QAEXXZ ; CAchievements::Init

; 20   : }

  00008	8b c6		 mov	 eax, esi
  0000a	5e		 pop	 esi
  0000b	c3		 ret	 0
??0CAchievements@@QAE@XZ ENDP				; CAchievements::CAchievements
_TEXT	ENDS
PUBLIC	??_C@_0BI@OHPNKCKH@ZtData?2Achievements?4ini?$AA@ ; `string'
PUBLIC	?Load@CAchievements@@QAEXXZ			; CAchievements::Load
EXTRN	?GetNewPath@CDirPath@@QAEPADPAD@Z:PROC		; CDirPath::GetNewPath
EXTRN	?gDirPath@@3VCDirPath@@A:BYTE			; gDirPath
;	COMDAT ??_C@_0BI@OHPNKCKH@ZtData?2Achievements?4ini?$AA@
CONST	SEGMENT
??_C@_0BI@OHPNKCKH@ZtData?2Achievements?4ini?$AA@ DB 'ZtData\Achievements'
	DB	'.ini', 00H					; `string'
; Function compile flags: /Ogtp
CONST	ENDS
;	COMDAT ?Load@CAchievements@@QAEXXZ
_TEXT	SEGMENT
?Load@CAchievements@@QAEXXZ PROC			; CAchievements::Load, COMDAT
; _this$ = ecx

; 35   : 	if(!g_ZtLicense.user.bAchievements)

  00000	80 3d ed 00 00
	00 00		 cmp	 BYTE PTR ?g_ZtLicense@@3VCZtLicense@@A+237, 0
  00007	53		 push	 ebx
  00008	8b d9		 mov	 ebx, ecx
  0000a	74 61		 je	 SHORT $LN2@Load

; 36   : 	{
; 37   : 		return;
; 38   : 	}
; 39   : 
; 40   : 	this->Init();

  0000c	56		 push	 esi
  0000d	57		 push	 edi
  0000e	e8 00 00 00 00	 call	 ?Init@CAchievements@@QAEXXZ ; CAchievements::Init

; 41   : 	this->Read(gDirPath.GetNewPath("ZtData\\Achievements.ini"));

  00013	68 00 00 00 00	 push	 OFFSET ??_C@_0BI@OHPNKCKH@ZtData?2Achievements?4ini?$AA@
  00018	b9 00 00 00 00	 mov	 ecx, OFFSET ?gDirPath@@3VCDirPath@@A ; gDirPath
  0001d	e8 00 00 00 00	 call	 ?GetNewPath@CDirPath@@QAEPADPAD@Z ; CDirPath::GetNewPath
  00022	50		 push	 eax
  00023	8b cb		 mov	 ecx, ebx
  00025	e8 00 00 00 00	 call	 ?Read@CAchievements@@QAEXPAD@Z ; CAchievements::Read
  0002a	a1 00 00 00 00	 mov	 eax, DWORD PTR ?gObj@@3PAUOBJECTSTRUCT@@A ; gObj

; 42   : 
; 43   : 	for(int aIndex = OBJ_STARTUSERINDZT; aIndex < OBJMAX; aIndex++)

  0002f	bf b0 36 00 00	 mov	 edi, 14000		; 000036b0H
  00034	be 00 a7 40 09	 mov	 esi, 155232000		; 0940a700H
  00039	8d a4 24 00 00
	00 00		 npad	 7
$LL4@Load:

; 44   : 	{
; 45   : 		LPOBJ lpUser = &gObj[aIndex];
; 46   : 		if(lpUser->Connected == PLAYER_PLAYING && lpUser->Type == OBJ_USER)

  00040	83 7c 06 04 03	 cmp	 DWORD PTR [esi+eax+4], 3
  00045	75 15		 jne	 SHORT $LN3@Load
  00047	66 83 7c 06 68
	01		 cmp	 WORD PTR [esi+eax+104], 1
  0004d	75 0d		 jne	 SHORT $LN3@Load

; 47   : 		{
; 48   : 			this->GCSettingsData(aIndex);

  0004f	57		 push	 edi
  00050	8b cb		 mov	 ecx, ebx
  00052	e8 00 00 00 00	 call	 ?GCSettingsData@CAchievements@@QAEXH@Z ; CAchievements::GCSettingsData
  00057	a1 00 00 00 00	 mov	 eax, DWORD PTR ?gObj@@3PAUOBJECTSTRUCT@@A ; gObj
$LN3@Load:

; 42   : 
; 43   : 	for(int aIndex = OBJ_STARTUSERINDZT; aIndex < OBJMAX; aIndex++)

  0005c	81 c6 50 2b 00
	00		 add	 esi, 11088		; 00002b50H
  00062	47		 inc	 edi
  00063	81 fe 80 d7 e9
	09		 cmp	 esi, 166320000		; 09e9d780H
  00069	7c d5		 jl	 SHORT $LL4@Load
  0006b	5f		 pop	 edi
  0006c	5e		 pop	 esi
$LN2@Load:
  0006d	5b		 pop	 ebx

; 49   : 		}
; 50   : 	}
; 51   : }

  0006e	c3		 ret	 0
?Load@CAchievements@@QAEXXZ ENDP			; CAchievements::Load
_TEXT	ENDS
PUBLIC	?DGPlayerLoad@CAchievements@@QAEXPAUPMSG_DGANS_ACH_LOAD@@@Z ; CAchievements::DGPlayerLoad
EXTRN	?gObjCalCharacter@@YAXH@Z:PROC			; gObjCalCharacter
; Function compile flags: /Ogtp
;	COMDAT ?DGPlayerLoad@CAchievements@@QAEXPAUPMSG_DGANS_ACH_LOAD@@@Z
_TEXT	SEGMENT
_aRecv$ = 8						; size = 4
?DGPlayerLoad@CAchievements@@QAEXPAUPMSG_DGANS_ACH_LOAD@@@Z PROC ; CAchievements::DGPlayerLoad, COMDAT
; _this$ = ecx

; 194  : {

  00000	55		 push	 ebp
  00001	8b ec		 mov	 ebp, esp
  00003	53		 push	 ebx
  00004	56		 push	 esi

; 195  : 	int aIndex = aRecv->aIndex;

  00005	8b 75 08	 mov	 esi, DWORD PTR _aRecv$[ebp]
  00008	8b 5e 04	 mov	 ebx, DWORD PTR [esi+4]
  0000b	8b d1		 mov	 edx, ecx

; 196  : 
; 197  : 	if(!OBJMAX_RANGE(aIndex))

  0000d	85 db		 test	 ebx, ebx
  0000f	78 49		 js	 SHORT $LN2@DGPlayerLo
  00011	33 c0		 xor	 eax, eax
  00013	81 fb 97 3a 00
	00		 cmp	 ebx, 14999		; 00003a97H
  00019	0f 9e c0	 setle	 al
  0001c	85 c0		 test	 eax, eax
  0001e	74 3a		 je	 SHORT $LN2@DGPlayerLo

; 198  : 	{
; 199  : 		return;
; 200  : 	}
; 201  : 
; 202  : 	LPOBJ lpUser = &gObj[aIndex];

  00020	8b c3		 mov	 eax, ebx
  00022	69 c0 50 2b 00
	00		 imul	 eax, 11088		; 00002b50H
  00028	03 05 00 00 00
	00		 add	 eax, DWORD PTR ?gObj@@3PAUOBJECTSTRUCT@@A ; gObj
  0002e	57		 push	 edi

; 203  : 
; 204  : 	memcpy(&lpUser->ach.mission, &aRecv->usr, sizeof(aRecv->usr));

  0002f	8d b8 30 29 00
	00		 lea	 edi, DWORD PTR [eax+10544]
  00035	83 c6 0c	 add	 esi, 12			; 0000000cH
  00038	b9 32 00 00 00	 mov	 ecx, 50			; 00000032H
  0003d	f3 a5		 rep movsd

; 205  : 
; 206  : 	lpUser->ach.bLoaded = true;
; 207  : 
; 208  : 	this->GCPlayerData(aIndex, false);

  0003f	6a 00		 push	 0
  00041	53		 push	 ebx
  00042	8b ca		 mov	 ecx, edx
  00044	c6 80 20 29 00
	00 01		 mov	 BYTE PTR [eax+10528], 1
  0004b	e8 00 00 00 00	 call	 ?GCPlayerData@CAchievements@@QAEXH_N@Z ; CAchievements::GCPlayerData

; 209  : 
; 210  : 	gObjCalCharacter(aIndex);

  00050	53		 push	 ebx
  00051	e8 00 00 00 00	 call	 ?gObjCalCharacter@@YAXH@Z ; gObjCalCharacter
  00056	83 c4 04	 add	 esp, 4
  00059	5f		 pop	 edi
$LN2@DGPlayerLo:
  0005a	5e		 pop	 esi
  0005b	5b		 pop	 ebx

; 211  : }

  0005c	5d		 pop	 ebp
  0005d	c2 04 00	 ret	 4
?DGPlayerLoad@CAchievements@@QAEXPAUPMSG_DGANS_ACH_LOAD@@@Z ENDP ; CAchievements::DGPlayerLoad
_TEXT	ENDS
EXTRN	_atexit:PROC
; Function compile flags: /Ogtp
;	COMDAT ??__Eg_Achievements@@YAXXZ
text$yc	SEGMENT
??__Eg_Achievements@@YAXXZ PROC				; `dynamic initializer for 'g_Achievements'', COMDAT

; 15   : CAchievements g_Achievements;

  00000	b9 00 00 00 00	 mov	 ecx, OFFSET ?g_Achievements@@3VCAchievements@@A ; g_Achievements
  00005	e8 00 00 00 00	 call	 ??0CAchievements@@QAE@XZ ; CAchievements::CAchievements
  0000a	68 00 00 00 00	 push	 OFFSET ??__Fg_Achievements@@YAXXZ ; `dynamic atexit destructor for 'g_Achievements''
  0000f	e8 00 00 00 00	 call	 _atexit
  00014	59		 pop	 ecx
  00015	c3		 ret	 0
??__Eg_Achievements@@YAXXZ ENDP				; `dynamic initializer for 'g_Achievements''
; Function compile flags: /Ogtp
text$yc	ENDS
;	COMDAT ??__Fg_Achievements@@YAXXZ
text$yd	SEGMENT
??__Fg_Achievements@@YAXXZ PROC				; `dynamic atexit destructor for 'g_Achievements'', COMDAT
  00000	c3		 ret	 0
??__Fg_Achievements@@YAXXZ ENDP				; `dynamic atexit destructor for 'g_Achievements''
text$yd	ENDS
PUBLIC	?g_Achievements@@3VCAchievements@@A		; g_Achievements
_BSS	SEGMENT
?g_Achievements@@3VCAchievements@@A DB 01bcH DUP (?)	; g_Achievements
_BSS	ENDS
CRT$XCU	SEGMENT
_g_Achievements$initializer$ DD FLAT:??__Eg_Achievements@@YAXXZ
CRT$XCU	ENDS
END
