; Listing generated by Microsoft (R) Optimizing Compiler Version 16.00.30319.01 

	TITLE	E:\work\tranet_version\GS\GameServer\BMQuest.cpp
	.686P
	.XMM
	include listing.inc
	.model	flat

INCLUDELIB LIBCMT
INCLUDELIB OLDNAMES

PUBLIC	??2@YAPAXIPAX@Z					; operator new
; Function compile flags: /Ogtp
; File d:\program files (x86)\microsoft visual studio 10.0\vc\include\new.h
;	COMDAT ??2@YAPAXIPAX@Z
_TEXT	SEGMENT
___formal$ = 8						; size = 4
__Where$ = 12						; size = 4
??2@YAPAXIPAX@Z PROC					; operator new, COMDAT

; 81   :         {return (_Where); }

  00000	55		 push	 ebp
  00001	8b ec		 mov	 ebp, esp
  00003	8b 45 0c	 mov	 eax, DWORD PTR __Where$[ebp]
  00006	5d		 pop	 ebp
  00007	c3		 ret	 0
??2@YAPAXIPAX@Z ENDP					; operator new
_TEXT	ENDS
PUBLIC	??3@YAXPAX0@Z					; operator delete
; Function compile flags: /Ogtp
;	COMDAT ??3@YAXPAX0@Z
_TEXT	SEGMENT
___formal$ = 8						; size = 4
___formal$ = 12						; size = 4
??3@YAXPAX0@Z PROC					; operator delete, COMDAT

; 83   :         {return; }

  00000	c3		 ret	 0
??3@YAXPAX0@Z ENDP					; operator delete
_TEXT	ENDS
PUBLIC	??_H@YGXPAXIHP6EPAX0@Z@Z			; `vector constructor iterator'
; Function compile flags: /Ogtp
;	COMDAT ??_H@YGXPAXIHP6EPAX0@Z@Z
_TEXT	SEGMENT
___t$ = 8						; size = 4
___s$ = 12						; size = 4
___n$ = 16						; size = 4
___f$ = 20						; size = 4
??_H@YGXPAXIHP6EPAX0@Z@Z PROC				; `vector constructor iterator', COMDAT
  00000	55		 push	 ebp
  00001	8b ec		 mov	 ebp, esp
  00003	57		 push	 edi
  00004	8b 7d 10	 mov	 edi, DWORD PTR ___n$[ebp]
  00007	4f		 dec	 edi
  00008	78 14		 js	 SHORT $LN1@vector
  0000a	53		 push	 ebx
  0000b	8b 5d 14	 mov	 ebx, DWORD PTR ___f$[ebp]
  0000e	56		 push	 esi
  0000f	8b 75 08	 mov	 esi, DWORD PTR ___t$[ebp]
$LL2@vector:
  00012	8b ce		 mov	 ecx, esi
  00014	ff d3		 call	 ebx
  00016	03 75 0c	 add	 esi, DWORD PTR ___s$[ebp]
  00019	4f		 dec	 edi
  0001a	79 f6		 jns	 SHORT $LL2@vector
  0001c	5e		 pop	 esi
  0001d	5b		 pop	 ebx
$LN1@vector:
  0001e	5f		 pop	 edi
  0001f	5d		 pop	 ebp
  00020	c2 10 00	 ret	 16			; 00000010H
??_H@YGXPAXIHP6EPAX0@Z@Z ENDP				; `vector constructor iterator'
_TEXT	ENDS
PUBLIC	??_C@_0N@MNCBHHPO@RandOptNPC_Y?$AA@		; `string'
PUBLIC	??_C@_0N@NEDKEGLP@RandOptNPC_X?$AA@		; `string'
PUBLIC	??_C@_0P@PNAPPNKE@RandOptNPC_Map?$AA@		; `string'
PUBLIC	??_C@_0BB@HBPNGDEE@RandOptNPC_Class?$AA@	; `string'
PUBLIC	??_C@_05CCGMLFNG@Reset?$AA@			; `string'
PUBLIC	??_C@_05MGEEICMI@NPC_Y?$AA@			; `string'
PUBLIC	??_C@_05NPFPLDIJ@NPC_X?$AA@			; `string'
PUBLIC	??_C@_07LJMEGBCH@NPC_Map?$AA@			; `string'
PUBLIC	??_C@_03BCJIDNJL@NPC?$AA@			; `string'
PUBLIC	??_C@_06POMJKEPM@Common?$AA@			; `string'
PUBLIC	??_C@_06CKGENIKG@Enable?$AA@			; `string'
PUBLIC	??_C@_0BL@ICONHKC@?4?4?2Data?2ZtData?2BMQuest?4ini?$AA@ ; `string'
PUBLIC	?StartConfig@cBMQuest@@QAEXXZ			; cBMQuest::StartConfig
EXTRN	__imp__GetPrivateProfileIntA@16:PROC
;	COMDAT ??_C@_0N@MNCBHHPO@RandOptNPC_Y?$AA@
; File e:\work\tranet_version\gs\gameserver\bmquest.cpp
CONST	SEGMENT
??_C@_0N@MNCBHHPO@RandOptNPC_Y?$AA@ DB 'RandOptNPC_Y', 00H ; `string'
CONST	ENDS
;	COMDAT ??_C@_0N@NEDKEGLP@RandOptNPC_X?$AA@
CONST	SEGMENT
??_C@_0N@NEDKEGLP@RandOptNPC_X?$AA@ DB 'RandOptNPC_X', 00H ; `string'
CONST	ENDS
;	COMDAT ??_C@_0P@PNAPPNKE@RandOptNPC_Map?$AA@
CONST	SEGMENT
??_C@_0P@PNAPPNKE@RandOptNPC_Map?$AA@ DB 'RandOptNPC_Map', 00H ; `string'
CONST	ENDS
;	COMDAT ??_C@_0BB@HBPNGDEE@RandOptNPC_Class?$AA@
CONST	SEGMENT
??_C@_0BB@HBPNGDEE@RandOptNPC_Class?$AA@ DB 'RandOptNPC_Class', 00H ; `string'
CONST	ENDS
;	COMDAT ??_C@_05CCGMLFNG@Reset?$AA@
CONST	SEGMENT
??_C@_05CCGMLFNG@Reset?$AA@ DB 'Reset', 00H		; `string'
CONST	ENDS
;	COMDAT ??_C@_05MGEEICMI@NPC_Y?$AA@
CONST	SEGMENT
??_C@_05MGEEICMI@NPC_Y?$AA@ DB 'NPC_Y', 00H		; `string'
CONST	ENDS
;	COMDAT ??_C@_05NPFPLDIJ@NPC_X?$AA@
CONST	SEGMENT
??_C@_05NPFPLDIJ@NPC_X?$AA@ DB 'NPC_X', 00H		; `string'
CONST	ENDS
;	COMDAT ??_C@_07LJMEGBCH@NPC_Map?$AA@
CONST	SEGMENT
??_C@_07LJMEGBCH@NPC_Map?$AA@ DB 'NPC_Map', 00H		; `string'
CONST	ENDS
;	COMDAT ??_C@_03BCJIDNJL@NPC?$AA@
CONST	SEGMENT
??_C@_03BCJIDNJL@NPC?$AA@ DB 'NPC', 00H			; `string'
CONST	ENDS
;	COMDAT ??_C@_06POMJKEPM@Common?$AA@
CONST	SEGMENT
??_C@_06POMJKEPM@Common?$AA@ DB 'Common', 00H		; `string'
CONST	ENDS
;	COMDAT ??_C@_06CKGENIKG@Enable?$AA@
CONST	SEGMENT
??_C@_06CKGENIKG@Enable?$AA@ DB 'Enable', 00H		; `string'
CONST	ENDS
;	COMDAT ??_C@_0BL@ICONHKC@?4?4?2Data?2ZtData?2BMQuest?4ini?$AA@
CONST	SEGMENT
??_C@_0BL@ICONHKC@?4?4?2Data?2ZtData?2BMQuest?4ini?$AA@ DB '..\Data\ZtDat'
	DB	'a\BMQuest.ini', 00H				; `string'
; Function compile flags: /Ogtp
CONST	ENDS
;	COMDAT ?StartConfig@cBMQuest@@QAEXXZ
_TEXT	SEGMENT
?StartConfig@cBMQuest@@QAEXXZ PROC			; cBMQuest::StartConfig, COMDAT
; _this$ = ecx

; 14   : {

  00000	53		 push	 ebx
  00001	56		 push	 esi
  00002	57		 push	 edi

; 15   : 	Enable = GetPrivateProfileInt("Common","Enable",0,_DIR_BMQUEST);

  00003	8b 3d 00 00 00
	00		 mov	 edi, DWORD PTR __imp__GetPrivateProfileIntA@16
  00009	68 00 00 00 00	 push	 OFFSET ??_C@_0BL@ICONHKC@?4?4?2Data?2ZtData?2BMQuest?4ini?$AA@
  0000e	33 db		 xor	 ebx, ebx
  00010	53		 push	 ebx
  00011	68 00 00 00 00	 push	 OFFSET ??_C@_06CKGENIKG@Enable?$AA@
  00016	68 00 00 00 00	 push	 OFFSET ??_C@_06POMJKEPM@Common?$AA@
  0001b	8b f1		 mov	 esi, ecx
  0001d	ff d7		 call	 edi

; 16   : 	NPC = GetPrivateProfileInt("Common","NPC",0,_DIR_BMQUEST);

  0001f	68 00 00 00 00	 push	 OFFSET ??_C@_0BL@ICONHKC@?4?4?2Data?2ZtData?2BMQuest?4ini?$AA@
  00024	53		 push	 ebx
  00025	68 00 00 00 00	 push	 OFFSET ??_C@_03BCJIDNJL@NPC?$AA@
  0002a	68 00 00 00 00	 push	 OFFSET ??_C@_06POMJKEPM@Common?$AA@
  0002f	89 86 00 db 1a
	00		 mov	 DWORD PTR [esi+1760000], eax
  00035	ff d7		 call	 edi

; 17   : 	NPC_Map = GetPrivateProfileInt("Common","NPC_Map",0,_DIR_BMQUEST);

  00037	68 00 00 00 00	 push	 OFFSET ??_C@_0BL@ICONHKC@?4?4?2Data?2ZtData?2BMQuest?4ini?$AA@
  0003c	53		 push	 ebx
  0003d	68 00 00 00 00	 push	 OFFSET ??_C@_07LJMEGBCH@NPC_Map?$AA@
  00042	68 00 00 00 00	 push	 OFFSET ??_C@_06POMJKEPM@Common?$AA@
  00047	89 86 04 db 1a
	00		 mov	 DWORD PTR [esi+1760004], eax
  0004d	ff d7		 call	 edi

; 18   : 	NPC_X = GetPrivateProfileInt("Common","NPC_X",0,_DIR_BMQUEST);

  0004f	68 00 00 00 00	 push	 OFFSET ??_C@_0BL@ICONHKC@?4?4?2Data?2ZtData?2BMQuest?4ini?$AA@
  00054	53		 push	 ebx
  00055	68 00 00 00 00	 push	 OFFSET ??_C@_05NPFPLDIJ@NPC_X?$AA@
  0005a	68 00 00 00 00	 push	 OFFSET ??_C@_06POMJKEPM@Common?$AA@
  0005f	89 86 08 db 1a
	00		 mov	 DWORD PTR [esi+1760008], eax
  00065	ff d7		 call	 edi

; 19   : 	NPC_Y = GetPrivateProfileInt("Common","NPC_Y",0,_DIR_BMQUEST);

  00067	68 00 00 00 00	 push	 OFFSET ??_C@_0BL@ICONHKC@?4?4?2Data?2ZtData?2BMQuest?4ini?$AA@
  0006c	53		 push	 ebx
  0006d	68 00 00 00 00	 push	 OFFSET ??_C@_05MGEEICMI@NPC_Y?$AA@
  00072	68 00 00 00 00	 push	 OFFSET ??_C@_06POMJKEPM@Common?$AA@
  00077	89 86 0c db 1a
	00		 mov	 DWORD PTR [esi+1760012], eax
  0007d	ff d7		 call	 edi

; 20   : 	Reset = GetPrivateProfileInt("Common","Reset",0,_DIR_BMQUEST);

  0007f	68 00 00 00 00	 push	 OFFSET ??_C@_0BL@ICONHKC@?4?4?2Data?2ZtData?2BMQuest?4ini?$AA@
  00084	53		 push	 ebx
  00085	68 00 00 00 00	 push	 OFFSET ??_C@_05CCGMLFNG@Reset?$AA@
  0008a	68 00 00 00 00	 push	 OFFSET ??_C@_06POMJKEPM@Common?$AA@
  0008f	89 86 10 db 1a
	00		 mov	 DWORD PTR [esi+1760016], eax
  00095	ff d7		 call	 edi

; 21   : 
; 22   : 	this->m_sRandOptNPC_Class = GetPrivateProfileInt("Common","RandOptNPC_Class",0,_DIR_BMQUEST);

  00097	68 00 00 00 00	 push	 OFFSET ??_C@_0BL@ICONHKC@?4?4?2Data?2ZtData?2BMQuest?4ini?$AA@
  0009c	53		 push	 ebx
  0009d	68 00 00 00 00	 push	 OFFSET ??_C@_0BB@HBPNGDEE@RandOptNPC_Class?$AA@
  000a2	68 00 00 00 00	 push	 OFFSET ??_C@_06POMJKEPM@Common?$AA@
  000a7	89 86 14 db 1a
	00		 mov	 DWORD PTR [esi+1760020], eax
  000ad	ff d7		 call	 edi

; 23   : 	this->m_btRandOptNPC_Map = GetPrivateProfileInt("Common","RandOptNPC_Map",0,_DIR_BMQUEST);

  000af	68 00 00 00 00	 push	 OFFSET ??_C@_0BL@ICONHKC@?4?4?2Data?2ZtData?2BMQuest?4ini?$AA@
  000b4	53		 push	 ebx
  000b5	68 00 00 00 00	 push	 OFFSET ??_C@_0P@PNAPPNKE@RandOptNPC_Map?$AA@
  000ba	68 00 00 00 00	 push	 OFFSET ??_C@_06POMJKEPM@Common?$AA@
  000bf	66 89 86 38 db
	1a 00		 mov	 WORD PTR [esi+1760056], ax
  000c6	ff d7		 call	 edi

; 24   : 	this->m_btRandOptNPC_X = GetPrivateProfileInt("Common","RandOptNPC_X",0,_DIR_BMQUEST);

  000c8	68 00 00 00 00	 push	 OFFSET ??_C@_0BL@ICONHKC@?4?4?2Data?2ZtData?2BMQuest?4ini?$AA@
  000cd	53		 push	 ebx
  000ce	68 00 00 00 00	 push	 OFFSET ??_C@_0N@NEDKEGLP@RandOptNPC_X?$AA@
  000d3	68 00 00 00 00	 push	 OFFSET ??_C@_06POMJKEPM@Common?$AA@
  000d8	88 86 3a db 1a
	00		 mov	 BYTE PTR [esi+1760058], al
  000de	ff d7		 call	 edi

; 25   : 	this->m_btRandOptNPC_Y = GetPrivateProfileInt("Common","RandOptNPC_Y",0,_DIR_BMQUEST);

  000e0	68 00 00 00 00	 push	 OFFSET ??_C@_0BL@ICONHKC@?4?4?2Data?2ZtData?2BMQuest?4ini?$AA@
  000e5	53		 push	 ebx
  000e6	68 00 00 00 00	 push	 OFFSET ??_C@_0N@MNCBHHPO@RandOptNPC_Y?$AA@
  000eb	68 00 00 00 00	 push	 OFFSET ??_C@_06POMJKEPM@Common?$AA@
  000f0	88 86 3b db 1a
	00		 mov	 BYTE PTR [esi+1760059], al
  000f6	ff d7		 call	 edi
  000f8	88 86 3c db 1a
	00		 mov	 BYTE PTR [esi+1760060], al
  000fe	8d 46 08	 lea	 eax, DWORD PTR [esi+8]
  00101	8d 53 08	 lea	 edx, DWORD PTR [ebx+8]
$LL6@StartConfi:

; 28   : 	{
; 29   : 		for(int j(0);j<_MAX_BMQUEST;j++)

  00104	b9 e8 03 00 00	 mov	 ecx, 1000		; 000003e8H
  00109	8d a4 24 00 00
	00 00		 npad	 7
$LL3@StartConfi:

; 30   : 		{
; 31   : 			Quest[i][j].Mob = 0;

  00110	89 58 f8	 mov	 DWORD PTR [eax-8], ebx

; 32   : 			Quest[i][j].Coun = 0;

  00113	89 58 fc	 mov	 DWORD PTR [eax-4], ebx

; 33   : 			Quest[i][j].proc = 0;

  00116	89 18		 mov	 DWORD PTR [eax], ebx

; 34   : 			Quest[i][j].rew = 0;

  00118	89 58 04	 mov	 DWORD PTR [eax+4], ebx

; 35   : 			Quest[i][j].gift = 0;

  0011b	89 58 08	 mov	 DWORD PTR [eax+8], ebx

; 36   : 			Quest[i][j].msg[0] = NULL;

  0011e	88 58 0c	 mov	 BYTE PTR [eax+12], bl

; 37   : 			Quest[i][j].msg2[0] = NULL;

  00121	88 58 70	 mov	 BYTE PTR [eax+112], bl
  00124	05 dc 00 00 00	 add	 eax, 220		; 000000dcH
  00129	49		 dec	 ecx
  0012a	75 e4		 jne	 SHORT $LL3@StartConfi

; 26   : 
; 27   : 	for (int i(0);i<_MAX_CLASS_BMQUEST;i++)

  0012c	4a		 dec	 edx
  0012d	75 d5		 jne	 SHORT $LL6@StartConfi

; 38   : 		}
; 39   : 	}
; 40   : }

  0012f	5f		 pop	 edi
  00130	5e		 pop	 esi
  00131	5b		 pop	 ebx
  00132	c3		 ret	 0
?StartConfig@cBMQuest@@QAEXXZ ENDP			; cBMQuest::StartConfig
_TEXT	ENDS
PUBLIC	??_C@_0O@CKAEPJAF@error?5?3?5?$CFs?5?$CFd?$AA@	; `string'
PUBLIC	??_C@_0M@FANINMGL@BMQuest?4cpp?$AA@		; `string'
PUBLIC	?AddedCharacter@cBMQuest@@QAEXH@Z		; cBMQuest::AddedCharacter
EXTRN	?gObj@@3PAUOBJECTSTRUCT@@A:DWORD		; gObj
EXTRN	?LogAdd@@3P6AXPADZZA:DWORD			; LogAdd
;	COMDAT ??_C@_0O@CKAEPJAF@error?5?3?5?$CFs?5?$CFd?$AA@
CONST	SEGMENT
??_C@_0O@CKAEPJAF@error?5?3?5?$CFs?5?$CFd?$AA@ DB 'error : %s %d', 00H ; `string'
CONST	ENDS
;	COMDAT ??_C@_0M@FANINMGL@BMQuest?4cpp?$AA@
CONST	SEGMENT
??_C@_0M@FANINMGL@BMQuest?4cpp?$AA@ DB 'BMQuest.cpp', 00H ; `string'
; Function compile flags: /Ogtp
CONST	ENDS
;	COMDAT ?AddedCharacter@cBMQuest@@QAEXH@Z
_TEXT	SEGMENT
_aIndex$ = 8						; size = 4
?AddedCharacter@cBMQuest@@QAEXH@Z PROC			; cBMQuest::AddedCharacter, COMDAT
; _this$ = ecx

; 213  : {

  00000	55		 push	 ebp
  00001	8b ec		 mov	 ebp, esp

; 214  : 	if(!Enable)

  00003	83 b9 00 db 1a
	00 00		 cmp	 DWORD PTR [ecx+1760000], 0
  0000a	0f 84 a3 00 00
	00		 je	 $LN4@AddedChara

; 215  : 		return;	
; 216  : 
; 217  : 	if ( OBJMAX_RANGE(aIndex) == FALSE )

  00010	8b 45 08	 mov	 eax, DWORD PTR _aIndex$[ebp]
  00013	85 c0		 test	 eax, eax
  00015	78 0e		 js	 SHORT $LN8@AddedChara
  00017	33 c9		 xor	 ecx, ecx
  00019	3d 97 3a 00 00	 cmp	 eax, 14999		; 00003a97H
  0001e	0f 9e c1	 setle	 cl
  00021	85 c9		 test	 ecx, ecx
  00023	75 1c		 jne	 SHORT $LN2@AddedChara
$LN8@AddedChara:

; 218  : 	{
; 219  : 		LogAdd("error : %s %d", __FILE__, __LINE__ );

  00025	68 db 00 00 00	 push	 219			; 000000dbH
  0002a	68 00 00 00 00	 push	 OFFSET ??_C@_0M@FANINMGL@BMQuest?4cpp?$AA@
  0002f	68 00 00 00 00	 push	 OFFSET ??_C@_0O@CKAEPJAF@error?5?3?5?$CFs?5?$CFd?$AA@
  00034	ff 15 00 00 00
	00		 call	 DWORD PTR ?LogAdd@@3P6AXPADZZA ; LogAdd
  0003a	83 c4 0c	 add	 esp, 12			; 0000000cH

; 241  : }

  0003d	5d		 pop	 ebp
  0003e	c2 04 00	 ret	 4
$LN2@AddedChara:

; 220  : 		return;
; 221  : 	}
; 222  : 
; 223  : 	LPOBJ lpUser = &gObj[aIndex];

  00041	69 c0 50 2b 00
	00		 imul	 eax, 11088		; 00002b50H
  00047	03 05 00 00 00
	00		 add	 eax, DWORD PTR ?gObj@@3PAUOBJECTSTRUCT@@A ; gObj

; 224  : 
; 225  : 	if(lpUser->Connected < PLAYER_PLAYING)

  0004d	83 78 04 03	 cmp	 DWORD PTR [eax+4], 3
  00051	7c 60		 jl	 SHORT $LN4@AddedChara

; 226  : 	{
; 227  : 		return;
; 228  : 	}
; 229  : 
; 230  : 	lpUser->DamageReflect += lpUser->BMDamageReflect;

  00053	8a 88 b4 28 00
	00		 mov	 cl, BYTE PTR [eax+10420]
  00059	00 88 71 01 00
	00		 add	 BYTE PTR [eax+369], cl

; 231  : 	lpUser->m_AttackDamageMaxLeft += lpUser->BMDamage;

  0005f	8b 88 b8 28 00
	00		 mov	 ecx, DWORD PTR [eax+10424]
  00065	01 88 78 04 00
	00		 add	 DWORD PTR [eax+1144], ecx

; 232  : 	lpUser->m_AttackDamageMinLeft += lpUser->BMDamage;

  0006b	01 88 7c 04 00
	00		 add	 DWORD PTR [eax+1148], ecx

; 233  : 	lpUser->m_AttackDamageMaxRight += lpUser->BMDamage;

  00071	01 88 80 04 00
	00		 add	 DWORD PTR [eax+1152], ecx

; 234  : 	lpUser->m_AttackDamageMinRight += lpUser->BMDamage;

  00077	01 88 84 04 00
	00		 add	 DWORD PTR [eax+1156], ecx

; 235  : 	lpUser->m_MagicDamageMin += lpUser->BMDamage;

  0007d	01 88 68 04 00
	00		 add	 DWORD PTR [eax+1128], ecx

; 236  : 	lpUser->m_MagicDamageMax += lpUser->BMDamage;

  00083	01 88 6c 04 00
	00		 add	 DWORD PTR [eax+1132], ecx

; 237  : 	lpUser->m_Defense += lpUser->BMDefense;

  00089	8b 88 bc 28 00
	00		 mov	 ecx, DWORD PTR [eax+10428]
  0008f	01 88 94 04 00
	00		 add	 DWORD PTR [eax+1172], ecx

; 238  : 	lpUser->m_MagicDefense += lpUser->BMDefense;

  00095	01 88 98 04 00
	00		 add	 DWORD PTR [eax+1176], ecx

; 239  : 	lpUser->m_CriticalDamage += lpUser->BMCriticalDamage;

  0009b	8b 90 c0 28 00
	00		 mov	 edx, DWORD PTR [eax+10432]

; 240  : 	lpUser->m_ExcelentDamage += lpUser->BMExcelentDamage;

  000a1	8b 88 c4 28 00
	00		 mov	 ecx, DWORD PTR [eax+10436]
  000a7	01 90 bc 04 00
	00		 add	 DWORD PTR [eax+1212], edx
  000ad	01 88 c0 04 00
	00		 add	 DWORD PTR [eax+1216], ecx
$LN4@AddedChara:

; 241  : }

  000b3	5d		 pop	 ebp
  000b4	c2 04 00	 ret	 4
?AddedCharacter@cBMQuest@@QAEXH@Z ENDP			; cBMQuest::AddedCharacter
_TEXT	ENDS
PUBLIC	??_C@_0BD@BKLKCPLB@?$EA?$FLBMInfo?$FN?5?$CL?$CFd?5Life?$AA@ ; `string'
PUBLIC	??_C@_0BI@LPBEODEH@?$EA?$FLBMInfo?$FN?5?$CL?$CFd?5ExcDamage?$AA@ ; `string'
PUBLIC	??_C@_0BJ@BGKBGMKI@?$EA?$FLBMInfo?$FN?5?$CL?$CFd?5CritDamage?$AA@ ; `string'
PUBLIC	??_C@_0BG@HMLFEONI@?$EA?$FLBMInfo?$FN?5?$CL?$CFd?5Defense?$AA@ ; `string'
PUBLIC	??_C@_0BF@CEBDJABB@?$EA?$FLBMInfo?$FN?5?$CL?$CFd?5Damage?$AA@ ; `string'
PUBLIC	??_C@_0BG@FDIPBDGE@?$EA?$FLBMInfo?$FN?5?$CL?$CFd?5Reflect?$AA@ ; `string'
PUBLIC	?CharacterInformation@cBMQuest@@QAEXH@Z		; cBMQuest::CharacterInformation
EXTRN	?MessageChat@@YAXHPADZZ:PROC			; MessageChat
;	COMDAT ??_C@_0BD@BKLKCPLB@?$EA?$FLBMInfo?$FN?5?$CL?$CFd?5Life?$AA@
CONST	SEGMENT
??_C@_0BD@BKLKCPLB@?$EA?$FLBMInfo?$FN?5?$CL?$CFd?5Life?$AA@ DB '@[BMInfo]'
	DB	' +%d Life', 00H				; `string'
CONST	ENDS
;	COMDAT ??_C@_0BI@LPBEODEH@?$EA?$FLBMInfo?$FN?5?$CL?$CFd?5ExcDamage?$AA@
CONST	SEGMENT
??_C@_0BI@LPBEODEH@?$EA?$FLBMInfo?$FN?5?$CL?$CFd?5ExcDamage?$AA@ DB '@[BM'
	DB	'Info] +%d ExcDamage', 00H			; `string'
CONST	ENDS
;	COMDAT ??_C@_0BJ@BGKBGMKI@?$EA?$FLBMInfo?$FN?5?$CL?$CFd?5CritDamage?$AA@
CONST	SEGMENT
??_C@_0BJ@BGKBGMKI@?$EA?$FLBMInfo?$FN?5?$CL?$CFd?5CritDamage?$AA@ DB '@[B'
	DB	'MInfo] +%d CritDamage', 00H			; `string'
CONST	ENDS
;	COMDAT ??_C@_0BG@HMLFEONI@?$EA?$FLBMInfo?$FN?5?$CL?$CFd?5Defense?$AA@
CONST	SEGMENT
??_C@_0BG@HMLFEONI@?$EA?$FLBMInfo?$FN?5?$CL?$CFd?5Defense?$AA@ DB '@[BMIn'
	DB	'fo] +%d Defense', 00H			; `string'
CONST	ENDS
;	COMDAT ??_C@_0BF@CEBDJABB@?$EA?$FLBMInfo?$FN?5?$CL?$CFd?5Damage?$AA@
CONST	SEGMENT
??_C@_0BF@CEBDJABB@?$EA?$FLBMInfo?$FN?5?$CL?$CFd?5Damage?$AA@ DB '@[BMInf'
	DB	'o] +%d Damage', 00H				; `string'
CONST	ENDS
;	COMDAT ??_C@_0BG@FDIPBDGE@?$EA?$FLBMInfo?$FN?5?$CL?$CFd?5Reflect?$AA@
CONST	SEGMENT
??_C@_0BG@FDIPBDGE@?$EA?$FLBMInfo?$FN?5?$CL?$CFd?5Reflect?$AA@ DB '@[BMIn'
	DB	'fo] +%d Reflect', 00H			; `string'
; Function compile flags: /Ogtp
CONST	ENDS
;	COMDAT ?CharacterInformation@cBMQuest@@QAEXH@Z
_TEXT	SEGMENT
_aIndex$ = 8						; size = 4
?CharacterInformation@cBMQuest@@QAEXH@Z PROC		; cBMQuest::CharacterInformation, COMDAT
; _this$ = ecx

; 244  : {

  00000	55		 push	 ebp
  00001	8b ec		 mov	 ebp, esp

; 245  : 	if(!Enable)

  00003	83 b9 00 db 1a
	00 00		 cmp	 DWORD PTR [ecx+1760000], 0
  0000a	0f 84 ba 00 00
	00		 je	 $LN4@CharacterI

; 246  : 		return;
; 247  : 
; 248  : 	if ( OBJMAX_RANGE(aIndex) == FALSE )

  00010	57		 push	 edi
  00011	8b 7d 08	 mov	 edi, DWORD PTR _aIndex$[ebp]
  00014	85 ff		 test	 edi, edi
  00016	78 0f		 js	 SHORT $LN8@CharacterI
  00018	33 c0		 xor	 eax, eax
  0001a	81 ff 97 3a 00
	00		 cmp	 edi, 14999		; 00003a97H
  00020	0f 9e c0	 setle	 al
  00023	85 c0		 test	 eax, eax
  00025	75 1d		 jne	 SHORT $LN2@CharacterI
$LN8@CharacterI:

; 249  : 	{
; 250  : 		LogAdd("error : %s %d", __FILE__, __LINE__ );

  00027	68 fa 00 00 00	 push	 250			; 000000faH
  0002c	68 00 00 00 00	 push	 OFFSET ??_C@_0M@FANINMGL@BMQuest?4cpp?$AA@
  00031	68 00 00 00 00	 push	 OFFSET ??_C@_0O@CKAEPJAF@error?5?3?5?$CFs?5?$CFd?$AA@
  00036	ff 15 00 00 00
	00		 call	 DWORD PTR ?LogAdd@@3P6AXPADZZA ; LogAdd
  0003c	83 c4 0c	 add	 esp, 12			; 0000000cH
  0003f	5f		 pop	 edi

; 267  : }

  00040	5d		 pop	 ebp
  00041	c2 04 00	 ret	 4
$LN2@CharacterI:
  00044	56		 push	 esi

; 251  : 		return;
; 252  : 	}
; 253  : 
; 254  : 	LPOBJ lpUser = &gObj[aIndex];

  00045	8b f7		 mov	 esi, edi
  00047	69 f6 50 2b 00
	00		 imul	 esi, 11088		; 00002b50H
  0004d	03 35 00 00 00
	00		 add	 esi, DWORD PTR ?gObj@@3PAUOBJECTSTRUCT@@A ; gObj

; 255  : 
; 256  : 	if(lpUser->Connected < PLAYER_PLAYING)

  00053	83 7e 04 03	 cmp	 DWORD PTR [esi+4], 3
  00057	7c 6f		 jl	 SHORT $LN10@CharacterI

; 257  : 	{
; 258  : 		return;
; 259  : 	}
; 260  : 	
; 261  : 	MessageChat(aIndex,"@[BMInfo] +%d Reflect",lpUser->BMDamageReflect);

  00059	8b 86 b4 28 00
	00		 mov	 eax, DWORD PTR [esi+10420]
  0005f	50		 push	 eax
  00060	68 00 00 00 00	 push	 OFFSET ??_C@_0BG@FDIPBDGE@?$EA?$FLBMInfo?$FN?5?$CL?$CFd?5Reflect?$AA@
  00065	57		 push	 edi
  00066	e8 00 00 00 00	 call	 ?MessageChat@@YAXHPADZZ	; MessageChat

; 262  : 	MessageChat(aIndex,"@[BMInfo] +%d Damage",lpUser->BMDamage);

  0006b	8b 8e b8 28 00
	00		 mov	 ecx, DWORD PTR [esi+10424]
  00071	51		 push	 ecx
  00072	68 00 00 00 00	 push	 OFFSET ??_C@_0BF@CEBDJABB@?$EA?$FLBMInfo?$FN?5?$CL?$CFd?5Damage?$AA@
  00077	57		 push	 edi
  00078	e8 00 00 00 00	 call	 ?MessageChat@@YAXHPADZZ	; MessageChat

; 263  : 	MessageChat(aIndex,"@[BMInfo] +%d Defense",lpUser->BMDefense);

  0007d	8b 96 bc 28 00
	00		 mov	 edx, DWORD PTR [esi+10428]
  00083	52		 push	 edx
  00084	68 00 00 00 00	 push	 OFFSET ??_C@_0BG@HMLFEONI@?$EA?$FLBMInfo?$FN?5?$CL?$CFd?5Defense?$AA@
  00089	57		 push	 edi
  0008a	e8 00 00 00 00	 call	 ?MessageChat@@YAXHPADZZ	; MessageChat

; 264  : 	MessageChat(aIndex,"@[BMInfo] +%d CritDamage",lpUser->BMCriticalDamage);

  0008f	8b 86 c0 28 00
	00		 mov	 eax, DWORD PTR [esi+10432]
  00095	50		 push	 eax
  00096	68 00 00 00 00	 push	 OFFSET ??_C@_0BJ@BGKBGMKI@?$EA?$FLBMInfo?$FN?5?$CL?$CFd?5CritDamage?$AA@
  0009b	57		 push	 edi
  0009c	e8 00 00 00 00	 call	 ?MessageChat@@YAXHPADZZ	; MessageChat

; 265  : 	MessageChat(aIndex,"@[BMInfo] +%d ExcDamage",lpUser->BMExcelentDamage);

  000a1	8b 8e c4 28 00
	00		 mov	 ecx, DWORD PTR [esi+10436]
  000a7	51		 push	 ecx
  000a8	68 00 00 00 00	 push	 OFFSET ??_C@_0BI@LPBEODEH@?$EA?$FLBMInfo?$FN?5?$CL?$CFd?5ExcDamage?$AA@
  000ad	57		 push	 edi
  000ae	e8 00 00 00 00	 call	 ?MessageChat@@YAXHPADZZ	; MessageChat

; 266  : 	MessageChat(aIndex,"@[BMInfo] +%d Life",lpUser->BMLife);

  000b3	8b 96 c8 28 00
	00		 mov	 edx, DWORD PTR [esi+10440]
  000b9	52		 push	 edx
  000ba	68 00 00 00 00	 push	 OFFSET ??_C@_0BD@BKLKCPLB@?$EA?$FLBMInfo?$FN?5?$CL?$CFd?5Life?$AA@
  000bf	57		 push	 edi
  000c0	e8 00 00 00 00	 call	 ?MessageChat@@YAXHPADZZ	; MessageChat
  000c5	83 c4 48	 add	 esp, 72			; 00000048H
$LN10@CharacterI:
  000c8	5e		 pop	 esi
  000c9	5f		 pop	 edi
$LN4@CharacterI:

; 267  : }

  000ca	5d		 pop	 ebp
  000cb	c2 04 00	 ret	 4
?CharacterInformation@cBMQuest@@QAEXH@Z ENDP		; cBMQuest::CharacterInformation
_TEXT	ENDS
PUBLIC	??_C@_0CB@PGLBKFC@?$EA?$FLBMQuest?$FN?5Mission?5accomplished?$CB@ ; `string'
PUBLIC	??_C@_0BG@BJDBHHCA@?$EA?$FLBMQuest?$FN?5?$CFs?5?$FL?$CFd?1?$CFd?$FN?$AA@ ; `string'
PUBLIC	?MonsterKill@cBMQuest@@QAEXHH@Z			; cBMQuest::MonsterKill
EXTRN	_rand:PROC
;	COMDAT ??_C@_0CB@PGLBKFC@?$EA?$FLBMQuest?$FN?5Mission?5accomplished?$CB@
CONST	SEGMENT
??_C@_0CB@PGLBKFC@?$EA?$FLBMQuest?$FN?5Mission?5accomplished?$CB@ DB '@[B'
	DB	'MQuest] Mission accomplished!', 00H		; `string'
CONST	ENDS
;	COMDAT ??_C@_0BG@BJDBHHCA@?$EA?$FLBMQuest?$FN?5?$CFs?5?$FL?$CFd?1?$CFd?$FN?$AA@
CONST	SEGMENT
??_C@_0BG@BJDBHHCA@?$EA?$FLBMQuest?$FN?5?$CFs?5?$FL?$CFd?1?$CFd?$FN?$AA@ DB '@'
	DB	'[BMQuest] %s [%d/%d]', 00H			; `string'
; Function compile flags: /Ogtp
CONST	ENDS
;	COMDAT ?MonsterKill@cBMQuest@@QAEXHH@Z
_TEXT	SEGMENT
_aIndex$ = 8						; size = 4
_mIndex$ = 12						; size = 4
?MonsterKill@cBMQuest@@QAEXHH@Z PROC			; cBMQuest::MonsterKill, COMDAT
; _this$ = ecx

; 386  : {

  00000	55		 push	 ebp
  00001	8b ec		 mov	 ebp, esp
  00003	53		 push	 ebx
  00004	8b d9		 mov	 ebx, ecx

; 387  : 	if(!Enable)

  00006	83 bb 00 db 1a
	00 00		 cmp	 DWORD PTR [ebx+1760000], 0
  0000d	0f 84 0d 01 00
	00		 je	 $LN1@MonsterKil

; 388  : 		return;
; 389  : 	
; 390  : 	if ( OBJMAX_RANGE(aIndex) == FALSE || OBJMAX_RANGE(mIndex) == FALSE )

  00013	56		 push	 esi
  00014	8b 75 08	 mov	 esi, DWORD PTR _aIndex$[ebp]
  00017	85 f6		 test	 esi, esi
  00019	0f 88 06 01 00
	00		 js	 $LN6@MonsterKil
  0001f	33 c0		 xor	 eax, eax
  00021	81 fe 97 3a 00
	00		 cmp	 esi, 14999		; 00003a97H
  00027	0f 9e c0	 setle	 al
  0002a	85 c0		 test	 eax, eax
  0002c	0f 84 f3 00 00
	00		 je	 $LN6@MonsterKil
  00032	8b 45 0c	 mov	 eax, DWORD PTR _mIndex$[ebp]
  00035	85 c0		 test	 eax, eax
  00037	0f 88 e8 00 00
	00		 js	 $LN6@MonsterKil
  0003d	33 c9		 xor	 ecx, ecx
  0003f	3d 97 3a 00 00	 cmp	 eax, 14999		; 00003a97H
  00044	0f 9e c1	 setle	 cl
  00047	85 c9		 test	 ecx, ecx
  00049	0f 84 d6 00 00
	00		 je	 $LN6@MonsterKil

; 393  : 		return;
; 394  : 	}
; 395  : 
; 396  : 	LPOBJ lpUser = &gObj[aIndex];

  0004f	8b 0d 00 00 00
	00		 mov	 ecx, DWORD PTR ?gObj@@3PAUOBJECTSTRUCT@@A ; gObj
  00055	69 f6 50 2b 00
	00		 imul	 esi, 11088		; 00002b50H
  0005b	03 f1		 add	 esi, ecx

; 397  : 	LPOBJ lpMonster = &gObj[mIndex];
; 398  : 
; 399  : 	if(lpUser->Connected < PLAYER_PLAYING)

  0005d	83 7e 04 03	 cmp	 DWORD PTR [esi+4], 3
  00061	0f 8c b8 00 00
	00		 jl	 $LN15@MonsterKil

; 400  : 	{
; 401  : 		return;
; 402  : 	}
; 403  : 
; 404  : 	int QClass = lpUser->Class+1;

  00067	57		 push	 edi
  00068	0f b7 be b8 00
	00 00		 movzx	 edi, WORD PTR [esi+184]
  0006f	47		 inc	 edi

; 405  : 
; 406  : 	if(lpUser->BMQuest_start == 1 && lpMonster->Class == Quest[QClass][lpUser->BMQuest_num].Mob)

  00070	83 be b0 28 00
	00 01		 cmp	 DWORD PTR [esi+10416], 1
  00077	0f 85 a1 00 00
	00		 jne	 $LN16@MonsterKil
  0007d	8b 96 a8 28 00
	00		 mov	 edx, DWORD PTR [esi+10408]
  00083	69 ff e8 03 00
	00		 imul	 edi, 1000		; 000003e8H
  00089	69 c0 50 2b 00
	00		 imul	 eax, 11088		; 00002b50H
  0008f	0f b7 84 08 b8
	00 00 00	 movzx	 eax, WORD PTR [eax+ecx+184]
  00097	03 d7		 add	 edx, edi
  00099	69 d2 dc 00 00
	00		 imul	 edx, 220		; 000000dcH
  0009f	3b 04 1a	 cmp	 eax, DWORD PTR [edx+ebx]
  000a2	75 7a		 jne	 SHORT $LN16@MonsterKil

; 407  : 	{
; 408  : 		int iRate = rand()%100+1;

  000a4	e8 00 00 00 00	 call	 _rand
  000a9	99		 cdq
  000aa	b9 64 00 00 00	 mov	 ecx, 100		; 00000064H
  000af	f7 f9		 idiv	 ecx

; 409  : 
; 410  : 		if(Quest[QClass][lpUser->BMQuest_num].proc >= iRate)

  000b1	8b 86 a8 28 00
	00		 mov	 eax, DWORD PTR [esi+10408]
  000b7	03 c7		 add	 eax, edi
  000b9	69 c0 dc 00 00
	00		 imul	 eax, 220		; 000000dcH
  000bf	03 c3		 add	 eax, ebx
  000c1	42		 inc	 edx
  000c2	39 50 08	 cmp	 DWORD PTR [eax+8], edx
  000c5	7c 57		 jl	 SHORT $LN16@MonsterKil

; 411  : 		{			
; 412  : 			if(lpUser->BMQuest_kill < Quest[QClass][lpUser->BMQuest_num].Coun)

  000c7	8b 8e ac 28 00
	00		 mov	 ecx, DWORD PTR [esi+10412]
  000cd	3b 48 04	 cmp	 ecx, DWORD PTR [eax+4]
  000d0	7d 4c		 jge	 SHORT $LN16@MonsterKil

; 413  : 			{
; 414  : 				lpUser->BMQuest_kill++;

  000d2	41		 inc	 ecx
  000d3	89 8e ac 28 00
	00		 mov	 DWORD PTR [esi+10412], ecx

; 415  : 				//MySQL.Execute("UPDATE Character SET BMQuest_kill = BMQuest_kill + 1 WHERE Name='%s'",NULL->Name);
; 416  : 				MessageChat(aIndex,"@[BMQuest] %s [%d/%d]",
; 417  : 					Quest[QClass][lpUser->BMQuest_num].msg2,
; 418  : 					lpUser->BMQuest_kill,
; 419  : 					Quest[QClass][lpUser->BMQuest_num].Coun);

  000d9	8b 50 04	 mov	 edx, DWORD PTR [eax+4]
  000dc	52		 push	 edx
  000dd	51		 push	 ecx
  000de	83 c0 78	 add	 eax, 120		; 00000078H
  000e1	50		 push	 eax
  000e2	8b 45 08	 mov	 eax, DWORD PTR _aIndex$[ebp]
  000e5	68 00 00 00 00	 push	 OFFSET ??_C@_0BG@BJDBHHCA@?$EA?$FLBMQuest?$FN?5?$CFs?5?$FL?$CFd?1?$CFd?$FN?$AA@
  000ea	50		 push	 eax
  000eb	e8 00 00 00 00	 call	 ?MessageChat@@YAXHPADZZ	; MessageChat

; 420  : 			
; 421  : 				if(lpUser->BMQuest_kill == Quest[QClass][lpUser->BMQuest_num].Coun)

  000f0	8b 8e a8 28 00
	00		 mov	 ecx, DWORD PTR [esi+10408]
  000f6	8b 96 ac 28 00
	00		 mov	 edx, DWORD PTR [esi+10412]
  000fc	03 cf		 add	 ecx, edi
  000fe	69 c9 dc 00 00
	00		 imul	 ecx, 220		; 000000dcH
  00104	83 c4 14	 add	 esp, 20			; 00000014H
  00107	3b 54 19 04	 cmp	 edx, DWORD PTR [ecx+ebx+4]
  0010b	75 11		 jne	 SHORT $LN16@MonsterKil

; 422  : 				{
; 423  : 					MessageChat(aIndex,"@[BMQuest] Mission accomplished!");

  0010d	8b 45 08	 mov	 eax, DWORD PTR _aIndex$[ebp]
  00110	68 00 00 00 00	 push	 OFFSET ??_C@_0CB@PGLBKFC@?$EA?$FLBMQuest?$FN?5Mission?5accomplished?$CB@
  00115	50		 push	 eax
  00116	e8 00 00 00 00	 call	 ?MessageChat@@YAXHPADZZ	; MessageChat
  0011b	83 c4 08	 add	 esp, 8
$LN16@MonsterKil:
  0011e	5f		 pop	 edi
$LN15@MonsterKil:
  0011f	5e		 pop	 esi
$LN1@MonsterKil:
  00120	5b		 pop	 ebx

; 424  : 				}
; 425  : 			}
; 426  : 		}
; 427  : 	}
; 428  : }

  00121	5d		 pop	 ebp
  00122	c2 08 00	 ret	 8
$LN6@MonsterKil:

; 391  : 	{
; 392  : 		LogAdd("error : %s %d", __FILE__, __LINE__ );

  00125	68 88 01 00 00	 push	 392			; 00000188H
  0012a	68 00 00 00 00	 push	 OFFSET ??_C@_0M@FANINMGL@BMQuest?4cpp?$AA@
  0012f	68 00 00 00 00	 push	 OFFSET ??_C@_0O@CKAEPJAF@error?5?3?5?$CFs?5?$CFd?$AA@
  00134	ff 15 00 00 00
	00		 call	 DWORD PTR ?LogAdd@@3P6AXPADZZA ; LogAdd
  0013a	83 c4 0c	 add	 esp, 12			; 0000000cH
  0013d	5e		 pop	 esi
  0013e	5b		 pop	 ebx

; 424  : 				}
; 425  : 			}
; 426  : 		}
; 427  : 	}
; 428  : }

  0013f	5d		 pop	 ebp
  00140	c2 08 00	 ret	 8
?MonsterKill@cBMQuest@@QAEXHH@Z ENDP			; cBMQuest::MonsterKill
_TEXT	ENDS
PUBLIC	??_C@_0BF@JLLIFHHP@?$EA?$FLBMQuest?$FN?5Life?3?5?$CL?$CFd?$AA@ ; `string'
PUBLIC	??_C@_0BP@JLDHHCLO@?$EA?$FLBMQuest?$FN?5ExcelentDamage?3?5?$CL?$CFd?$AA@ ; `string'
PUBLIC	??_C@_0BP@EAKLAL@?$EA?$FLBMQuest?$FN?5CriticalDamage?3?5?$CL?$CFd?$AA@ ; `string'
PUBLIC	??_C@_0BI@MHBAOHBM@?$EA?$FLBMQuest?$FN?5Defense?3?5?$CL?$CFd?$AA@ ; `string'
PUBLIC	??_C@_0BH@GAHBIHNC@?$EA?$FLBMQuest?$FN?5Damage?3?5?$CL?$CFd?$AA@ ; `string'
PUBLIC	??_C@_0BO@DOACPHFK@?$EA?$FLBMQuest?$FN?5DamageReflect?3?5?$CL?$CFd?$AA@ ; `string'
PUBLIC	?Presents@cBMQuest@@QAEXHHH@Z			; cBMQuest::Presents
EXTRN	?ZtFireCracker@@YAXHEE@Z:PROC			; ZtFireCracker
;	COMDAT ??_C@_0BF@JLLIFHHP@?$EA?$FLBMQuest?$FN?5Life?3?5?$CL?$CFd?$AA@
CONST	SEGMENT
??_C@_0BF@JLLIFHHP@?$EA?$FLBMQuest?$FN?5Life?3?5?$CL?$CFd?$AA@ DB '@[BMQu'
	DB	'est] Life: +%d', 00H			; `string'
CONST	ENDS
;	COMDAT ??_C@_0BP@JLDHHCLO@?$EA?$FLBMQuest?$FN?5ExcelentDamage?3?5?$CL?$CFd?$AA@
CONST	SEGMENT
??_C@_0BP@JLDHHCLO@?$EA?$FLBMQuest?$FN?5ExcelentDamage?3?5?$CL?$CFd?$AA@ DB '@'
	DB	'[BMQuest] ExcelentDamage: +%d', 00H		; `string'
CONST	ENDS
;	COMDAT ??_C@_0BP@EAKLAL@?$EA?$FLBMQuest?$FN?5CriticalDamage?3?5?$CL?$CFd?$AA@
CONST	SEGMENT
??_C@_0BP@EAKLAL@?$EA?$FLBMQuest?$FN?5CriticalDamage?3?5?$CL?$CFd?$AA@ DB '@'
	DB	'[BMQuest] CriticalDamage: +%d', 00H		; `string'
CONST	ENDS
;	COMDAT ??_C@_0BI@MHBAOHBM@?$EA?$FLBMQuest?$FN?5Defense?3?5?$CL?$CFd?$AA@
CONST	SEGMENT
??_C@_0BI@MHBAOHBM@?$EA?$FLBMQuest?$FN?5Defense?3?5?$CL?$CFd?$AA@ DB '@[B'
	DB	'MQuest] Defense: +%d', 00H			; `string'
CONST	ENDS
;	COMDAT ??_C@_0BH@GAHBIHNC@?$EA?$FLBMQuest?$FN?5Damage?3?5?$CL?$CFd?$AA@
CONST	SEGMENT
??_C@_0BH@GAHBIHNC@?$EA?$FLBMQuest?$FN?5Damage?3?5?$CL?$CFd?$AA@ DB '@[BM'
	DB	'Quest] Damage: +%d', 00H			; `string'
CONST	ENDS
;	COMDAT ??_C@_0BO@DOACPHFK@?$EA?$FLBMQuest?$FN?5DamageReflect?3?5?$CL?$CFd?$AA@
CONST	SEGMENT
??_C@_0BO@DOACPHFK@?$EA?$FLBMQuest?$FN?5DamageReflect?3?5?$CL?$CFd?$AA@ DB '@'
	DB	'[BMQuest] DamageReflect: +%d', 00H		; `string'
; Function compile flags: /Ogtp
CONST	ENDS
;	COMDAT ?Presents@cBMQuest@@QAEXHHH@Z
_TEXT	SEGMENT
_aIndex$ = 8						; size = 4
_Present$ = 12						; size = 4
_Gifts$ = 16						; size = 4
?Presents@cBMQuest@@QAEXHHH@Z PROC			; cBMQuest::Presents, COMDAT
; _this$ = ecx

; 431  : {

  00000	55		 push	 ebp
  00001	8b ec		 mov	 ebp, esp
  00003	57		 push	 edi

; 432  : 	if ( OBJMAX_RANGE(aIndex) == FALSE )

  00004	8b 7d 08	 mov	 edi, DWORD PTR _aIndex$[ebp]
  00007	85 ff		 test	 edi, edi
  00009	78 0f		 js	 SHORT $LN18@Presents
  0000b	33 c0		 xor	 eax, eax
  0000d	81 ff 97 3a 00
	00		 cmp	 edi, 14999		; 00003a97H
  00013	0f 9e c0	 setle	 al
  00016	85 c0		 test	 eax, eax
  00018	75 1d		 jne	 SHORT $LN13@Presents
$LN18@Presents:

; 433  : 	{
; 434  : 		LogAdd("error : %s %d", __FILE__, __LINE__ );

  0001a	68 b2 01 00 00	 push	 434			; 000001b2H
  0001f	68 00 00 00 00	 push	 OFFSET ??_C@_0M@FANINMGL@BMQuest?4cpp?$AA@
  00024	68 00 00 00 00	 push	 OFFSET ??_C@_0O@CKAEPJAF@error?5?3?5?$CFs?5?$CFd?$AA@
  00029	ff 15 00 00 00
	00		 call	 DWORD PTR ?LogAdd@@3P6AXPADZZA ; LogAdd
  0002f	83 c4 0c	 add	 esp, 12			; 0000000cH
  00032	5f		 pop	 edi

; 491  : }

  00033	5d		 pop	 ebp
  00034	c2 0c 00	 ret	 12			; 0000000cH
$LN13@Presents:
  00037	56		 push	 esi

; 435  : 		return;
; 436  : 	}
; 437  : 
; 438  : 	LPOBJ lpUser = &gObj[aIndex];

  00038	8b f7		 mov	 esi, edi
  0003a	69 f6 50 2b 00
	00		 imul	 esi, 11088		; 00002b50H
  00040	03 35 00 00 00
	00		 add	 esi, DWORD PTR ?gObj@@3PAUOBJECTSTRUCT@@A ; gObj

; 439  : 
; 440  : 	if(lpUser->Connected < PLAYER_PLAYING)

  00046	83 7e 04 03	 cmp	 DWORD PTR [esi+4], 3
  0004a	0f 8c a7 00 00
	00		 jl	 $LN19@Presents

; 441  : 	{
; 442  : 		return;
; 443  : 	}
; 444  : 	
; 445  : 	/*
; 446  : 		1 - BMDamageReflect;
; 447  : 		2 - BMDamage;
; 448  : 		3 - BMDefense;
; 449  : 		4 - BMCriticalDamage;
; 450  : 		5 - BMExcelentDamage;
; 451  : 		6 - BMLife;
; 452  : 	*/
; 453  : 	if(Present == 1)		//BMDamageReflect

  00050	8b 45 0c	 mov	 eax, DWORD PTR _Present$[ebp]
  00053	83 f8 01	 cmp	 eax, 1
  00056	75 11		 jne	 SHORT $LN11@Presents

; 454  : 	{
; 455  : 		lpUser->BMDamageReflect += Gifts;

  00058	8b 45 10	 mov	 eax, DWORD PTR _Gifts$[ebp]
  0005b	01 86 b4 28 00
	00		 add	 DWORD PTR [esi+10420], eax

; 456  : 		//exQueryUpdate("UPDATE Character SET BMDamageReflect = BMDamageReflect + %d WHERE Name='%s'", Gifts, NULL->Name);
; 457  : 		MessageChat(aIndex,"@[BMQuest] DamageReflect: +%d",Gifts);

  00061	50		 push	 eax
  00062	68 00 00 00 00	 push	 OFFSET ??_C@_0BO@DOACPHFK@?$EA?$FLBMQuest?$FN?5DamageReflect?3?5?$CL?$CFd?$AA@
  00067	eb 6c		 jmp	 SHORT $LN20@Presents
$LN11@Presents:

; 458  : 	}
; 459  : 	else if(Present == 2)	//BMDamage

  00069	83 f8 02	 cmp	 eax, 2
  0006c	75 11		 jne	 SHORT $LN9@Presents

; 460  : 	{
; 461  : 		lpUser->BMDamage += Gifts;

  0006e	8b 45 10	 mov	 eax, DWORD PTR _Gifts$[ebp]
  00071	01 86 b8 28 00
	00		 add	 DWORD PTR [esi+10424], eax

; 462  : 		//exQueryUpdate("UPDATE Character SET BMDamage = BMDamage + %d WHERE Name='%s'", Gifts, NULL->Name);
; 463  : 		MessageChat(aIndex,"@[BMQuest] Damage: +%d",Gifts);

  00077	50		 push	 eax
  00078	68 00 00 00 00	 push	 OFFSET ??_C@_0BH@GAHBIHNC@?$EA?$FLBMQuest?$FN?5Damage?3?5?$CL?$CFd?$AA@
  0007d	eb 56		 jmp	 SHORT $LN20@Presents
$LN9@Presents:

; 464  : 	}
; 465  : 	else if(Present == 3)	//BMDefense

  0007f	83 f8 03	 cmp	 eax, 3
  00082	75 11		 jne	 SHORT $LN7@Presents

; 466  : 	{
; 467  : 		lpUser->BMDefense += Gifts;

  00084	8b 45 10	 mov	 eax, DWORD PTR _Gifts$[ebp]
  00087	01 86 bc 28 00
	00		 add	 DWORD PTR [esi+10428], eax

; 468  : 		//exQueryUpdate("UPDATE Character SET BMDefense = BMDefense + %d WHERE Name='%s'", Gifts, NULL->Name);
; 469  : 		MessageChat(aIndex,"@[BMQuest] Defense: +%d",Gifts);

  0008d	50		 push	 eax
  0008e	68 00 00 00 00	 push	 OFFSET ??_C@_0BI@MHBAOHBM@?$EA?$FLBMQuest?$FN?5Defense?3?5?$CL?$CFd?$AA@
  00093	eb 40		 jmp	 SHORT $LN20@Presents
$LN7@Presents:

; 470  : 	}
; 471  : 	else if(Present == 4)	//BMCriticalDamage

  00095	83 f8 04	 cmp	 eax, 4
  00098	75 11		 jne	 SHORT $LN5@Presents

; 472  : 	{
; 473  : 		lpUser->BMCriticalDamage += Gifts;

  0009a	8b 45 10	 mov	 eax, DWORD PTR _Gifts$[ebp]
  0009d	01 86 c0 28 00
	00		 add	 DWORD PTR [esi+10432], eax

; 474  : 		//exQueryUpdate("UPDATE Character SET BMCriticalDamage = BMCriticalDamage + %d WHERE Name='%s'", Gifts, NULL->Name);
; 475  : 		MessageChat(aIndex,"@[BMQuest] CriticalDamage: +%d",Gifts);

  000a3	50		 push	 eax
  000a4	68 00 00 00 00	 push	 OFFSET ??_C@_0BP@EAKLAL@?$EA?$FLBMQuest?$FN?5CriticalDamage?3?5?$CL?$CFd?$AA@
  000a9	eb 2a		 jmp	 SHORT $LN20@Presents
$LN5@Presents:

; 476  : 	}
; 477  : 	else if(Present == 5)	//BMExcelentDamage

  000ab	83 f8 05	 cmp	 eax, 5
  000ae	75 11		 jne	 SHORT $LN3@Presents

; 478  : 	{
; 479  : 		lpUser->BMExcelentDamage += Gifts;

  000b0	8b 45 10	 mov	 eax, DWORD PTR _Gifts$[ebp]
  000b3	01 86 c4 28 00
	00		 add	 DWORD PTR [esi+10436], eax

; 480  : 		//exQueryUpdate("UPDATE Character SET BMExcelentDamage = BMExcelentDamage + %d WHERE Name='%s'", Gifts, NULL->Name);
; 481  : 		MessageChat(aIndex,"@[BMQuest] ExcelentDamage: +%d",Gifts);

  000b9	50		 push	 eax
  000ba	68 00 00 00 00	 push	 OFFSET ??_C@_0BP@JLDHHCLO@?$EA?$FLBMQuest?$FN?5ExcelentDamage?3?5?$CL?$CFd?$AA@
  000bf	eb 14		 jmp	 SHORT $LN20@Presents
$LN3@Presents:

; 482  : 	}
; 483  : 	else if(Present == 6)	//BMLife

  000c1	83 f8 06	 cmp	 eax, 6
  000c4	75 18		 jne	 SHORT $LN1@Presents

; 484  : 	{
; 485  : 		lpUser->BMLife += Gifts;

  000c6	8b 45 10	 mov	 eax, DWORD PTR _Gifts$[ebp]
  000c9	01 86 c8 28 00
	00		 add	 DWORD PTR [esi+10440], eax

; 486  : 		//exQueryUpdate("UPDATE Character SET BMLife = BMLife + %d WHERE Name='%s'", Gifts, NULL->Name);
; 487  : 		MessageChat(aIndex,"@[BMQuest] Life: +%d",Gifts);

  000cf	50		 push	 eax
  000d0	68 00 00 00 00	 push	 OFFSET ??_C@_0BF@JLLIFHHP@?$EA?$FLBMQuest?$FN?5Life?3?5?$CL?$CFd?$AA@
$LN20@Presents:
  000d5	57		 push	 edi
  000d6	e8 00 00 00 00	 call	 ?MessageChat@@YAXHPADZZ	; MessageChat
  000db	83 c4 0c	 add	 esp, 12			; 0000000cH
$LN1@Presents:

; 488  : 	}
; 489  : 	//LevelUpEffect (aIndex,1);
; 490  : 	ZtFireCracker(aIndex, lpUser->X, lpUser->Y);

  000de	0f b6 86 46 01
	00 00		 movzx	 eax, BYTE PTR [esi+326]
  000e5	0f b6 8e 44 01
	00 00		 movzx	 ecx, BYTE PTR [esi+324]
  000ec	50		 push	 eax
  000ed	51		 push	 ecx
  000ee	57		 push	 edi
  000ef	e8 00 00 00 00	 call	 ?ZtFireCracker@@YAXHEE@Z ; ZtFireCracker
  000f4	83 c4 0c	 add	 esp, 12			; 0000000cH
$LN19@Presents:
  000f7	5e		 pop	 esi
  000f8	5f		 pop	 edi

; 491  : }

  000f9	5d		 pop	 ebp
  000fa	c2 0c 00	 ret	 12			; 0000000cH
?Presents@cBMQuest@@QAEXHHH@Z ENDP			; cBMQuest::Presents
_TEXT	ENDS
PUBLIC	?RandOptNpcDialog@cBMQuest@@QAE_NHH@Z		; cBMQuest::RandOptNpcDialog
; Function compile flags: /Ogtp
;	COMDAT ?RandOptNpcDialog@cBMQuest@@QAE_NHH@Z
_TEXT	SEGMENT
_aIndex$ = 8						; size = 4
_aNpcIndex$ = 12					; size = 4
?RandOptNpcDialog@cBMQuest@@QAE_NHH@Z PROC		; cBMQuest::RandOptNpcDialog, COMDAT
; _this$ = ecx

; 495  : 	if(!THINNAKORN_MAC)
; 496  : 	{
; 497  : 		return false;

  00000	32 c0		 xor	 al, al

; 498  : 	}
; 499  : 
; 500  : 	if(!this->Enable)
; 501  : 	{
; 502  : 		return false;
; 503  : 	}
; 504  : 
; 505  : 	if(!OBJMAX_RANGE(aIndex) || !OBJMAX_RANGE(aNpcIndex))
; 506  : 	{
; 507  : 		return false;
; 508  : 	}
; 509  : 
; 510  : 	LPOBJ lpUser = &gObj[aIndex];
; 511  : 	LPOBJ lpNpc = &gObj[aNpcIndex];
; 512  : 
; 513  : 	if(lpNpc->Class == this->m_sRandOptNPC_Class && lpNpc->MapNumber == this->m_btRandOptNPC_Map && lpNpc->X == this->m_btRandOptNPC_X && lpNpc->Y == this->m_btRandOptNPC_Y)
; 514  : 	{
; 515  : 		if(lpUser->Level >= 400 || gSystemOfRage.rUser[aIndex].rLevel == 300)
; 516  : 		{
; 517  : 
; 518  : 		}
; 519  : 
; 520  : 		//MessageChat(aIndex,"@[BMInfo] +%d Reflect",lpUser->BMDamageReflect);
; 521  : 		//MessageChat(aIndex,"@[BMInfo] +%d Damage",lpUser->BMDamage);
; 522  : 		//MessageChat(aIndex,"@[BMInfo] +%d Defense",lpUser->BMDefense);
; 523  : 		////MessageChat(aIndex,"@[BMInfo] +%d CritDamage",lpUser->BMCriticalDamage);
; 524  : 		//MessageChat(aIndex,"@[BMInfo] +%d ExcDamage",lpUser->BMExcelentDamage);
; 525  : 		//MessageChat(aIndex,"@[BMInfo] +%d Life",lpUser->BMLife);
; 526  : 
; 527  : 		//MsgOutput(aIndex, "[BMQuest] Random option", iTotalRagePoint);
; 528  : 
; 529  : 		return true;
; 530  : 	}
; 531  : 
; 532  : 	return false;
; 533  : }

  00002	c2 08 00	 ret	 8
?RandOptNpcDialog@cBMQuest@@QAE_NHH@Z ENDP		; cBMQuest::RandOptNpcDialog
_TEXT	ENDS
PUBLIC	?size@?$vector@UBMQuestRandOpt_DATA@@V?$allocator@UBMQuestRandOpt_DATA@@@std@@@std@@QBEIXZ ; std::vector<BMQuestRandOpt_DATA,std::allocator<BMQuestRandOpt_DATA> >::size
; Function compile flags: /Ogtp
; File d:\program files (x86)\microsoft visual studio 10.0\vc\include\vector
;	COMDAT ?size@?$vector@UBMQuestRandOpt_DATA@@V?$allocator@UBMQuestRandOpt_DATA@@@std@@@std@@QBEIXZ
_TEXT	SEGMENT
?size@?$vector@UBMQuestRandOpt_DATA@@V?$allocator@UBMQuestRandOpt_DATA@@@std@@@std@@QBEIXZ PROC ; std::vector<BMQuestRandOpt_DATA,std::allocator<BMQuestRandOpt_DATA> >::size, COMDAT
; _this$ = ecx

; 879  : 		return (this->_Mylast - this->_Myfirst);

  00000	8b 41 04	 mov	 eax, DWORD PTR [ecx+4]
  00003	2b 01		 sub	 eax, DWORD PTR [ecx]
  00005	c1 f8 05	 sar	 eax, 5

; 880  : 		}

  00008	c3		 ret	 0
?size@?$vector@UBMQuestRandOpt_DATA@@V?$allocator@UBMQuestRandOpt_DATA@@@std@@@std@@QBEIXZ ENDP ; std::vector<BMQuestRandOpt_DATA,std::allocator<BMQuestRandOpt_DATA> >::size
_TEXT	ENDS
PUBLIC	??A?$vector@UBMQuestRandOpt_DATA@@V?$allocator@UBMQuestRandOpt_DATA@@@std@@@std@@QAEAAUBMQuestRandOpt_DATA@@I@Z ; std::vector<BMQuestRandOpt_DATA,std::allocator<BMQuestRandOpt_DATA> >::operator[]
; Function compile flags: /Ogtp
;	COMDAT ??A?$vector@UBMQuestRandOpt_DATA@@V?$allocator@UBMQuestRandOpt_DATA@@@std@@@std@@QAEAAUBMQuestRandOpt_DATA@@I@Z
_TEXT	SEGMENT
__Pos$ = 8						; size = 4
??A?$vector@UBMQuestRandOpt_DATA@@V?$allocator@UBMQuestRandOpt_DATA@@@std@@@std@@QAEAAUBMQuestRandOpt_DATA@@I@Z PROC ; std::vector<BMQuestRandOpt_DATA,std::allocator<BMQuestRandOpt_DATA> >::operator[], COMDAT
; _this$ = ecx

; 928  : 		{	// subscript mutable sequence

  00000	55		 push	 ebp
  00001	8b ec		 mov	 ebp, esp

; 929  :  #if _ITERATOR_DEBUG_LEVEL == 2
; 930  : 		if (size() <= _Pos)
; 931  : 			{	// report error
; 932  : 			_DEBUG_ERROR("vector subscript out of range");
; 933  : 			_SCL_SECURE_OUT_OF_RANGE;
; 934  : 			}
; 935  : 
; 936  :  #elif _ITERATOR_DEBUG_LEVEL == 1
; 937  : 		_SCL_SECURE_VALIDATE_RANGE(_Pos < size());
; 938  :  #endif /* _ITERATOR_DEBUG_LEVEL */
; 939  : 
; 940  : 		return (*(this->_Myfirst + _Pos));

  00003	8b 45 08	 mov	 eax, DWORD PTR __Pos$[ebp]
  00006	c1 e0 05	 shl	 eax, 5
  00009	03 01		 add	 eax, DWORD PTR [ecx]

; 941  : 		}

  0000b	5d		 pop	 ebp
  0000c	c2 04 00	 ret	 4
??A?$vector@UBMQuestRandOpt_DATA@@V?$allocator@UBMQuestRandOpt_DATA@@@std@@@std@@QAEAAUBMQuestRandOpt_DATA@@I@Z ENDP ; std::vector<BMQuestRandOpt_DATA,std::allocator<BMQuestRandOpt_DATA> >::operator[]
_TEXT	ENDS
PUBLIC	?_Inside@?$vector@UBMQuestRandOpt_DATA@@V?$allocator@UBMQuestRandOpt_DATA@@@std@@@std@@IBE_NPBUBMQuestRandOpt_DATA@@@Z ; std::vector<BMQuestRandOpt_DATA,std::allocator<BMQuestRandOpt_DATA> >::_Inside
; Function compile flags: /Ogtp
;	COMDAT ?_Inside@?$vector@UBMQuestRandOpt_DATA@@V?$allocator@UBMQuestRandOpt_DATA@@@std@@@std@@IBE_NPBUBMQuestRandOpt_DATA@@@Z
_TEXT	SEGMENT
__Ptr$ = 8						; size = 4
?_Inside@?$vector@UBMQuestRandOpt_DATA@@V?$allocator@UBMQuestRandOpt_DATA@@@std@@@std@@IBE_NPBUBMQuestRandOpt_DATA@@@Z PROC ; std::vector<BMQuestRandOpt_DATA,std::allocator<BMQuestRandOpt_DATA> >::_Inside, COMDAT
; _this$ = ecx

; 1285 : 		{	// test if _Ptr points inside vector

  00000	55		 push	 ebp
  00001	8b ec		 mov	 ebp, esp

; 1286 : 		return (_Ptr < this->_Mylast && this->_Myfirst <= _Ptr);

  00003	8b 45 08	 mov	 eax, DWORD PTR __Ptr$[ebp]
  00006	3b 41 04	 cmp	 eax, DWORD PTR [ecx+4]
  00009	73 0d		 jae	 SHORT $LN3@Inside
  0000b	39 01		 cmp	 DWORD PTR [ecx], eax
  0000d	77 09		 ja	 SHORT $LN3@Inside
  0000f	b8 01 00 00 00	 mov	 eax, 1

; 1287 : 		}

  00014	5d		 pop	 ebp
  00015	c2 04 00	 ret	 4
$LN3@Inside:

; 1286 : 		return (_Ptr < this->_Mylast && this->_Myfirst <= _Ptr);

  00018	33 c0		 xor	 eax, eax

; 1287 : 		}

  0001a	5d		 pop	 ebp
  0001b	c2 04 00	 ret	 4
?_Inside@?$vector@UBMQuestRandOpt_DATA@@V?$allocator@UBMQuestRandOpt_DATA@@@std@@@std@@IBE_NPBUBMQuestRandOpt_DATA@@@Z ENDP ; std::vector<BMQuestRandOpt_DATA,std::allocator<BMQuestRandOpt_DATA> >::_Inside
_TEXT	ENDS
PUBLIC	?_Orphan_range@?$vector@UBMQuestRandOpt_DATA@@V?$allocator@UBMQuestRandOpt_DATA@@@std@@@std@@IBEXPAUBMQuestRandOpt_DATA@@0@Z ; std::vector<BMQuestRandOpt_DATA,std::allocator<BMQuestRandOpt_DATA> >::_Orphan_range
; Function compile flags: /Ogtp
;	COMDAT ?_Orphan_range@?$vector@UBMQuestRandOpt_DATA@@V?$allocator@UBMQuestRandOpt_DATA@@@std@@@std@@IBEXPAUBMQuestRandOpt_DATA@@0@Z
_TEXT	SEGMENT
___formal$ = 8						; size = 4
___formal$ = 12						; size = 4
?_Orphan_range@?$vector@UBMQuestRandOpt_DATA@@V?$allocator@UBMQuestRandOpt_DATA@@@std@@@std@@IBEXPAUBMQuestRandOpt_DATA@@0@Z PROC ; std::vector<BMQuestRandOpt_DATA,std::allocator<BMQuestRandOpt_DATA> >::_Orphan_range, COMDAT
; _this$ = ecx

; 1454 : 		}

  00000	c2 08 00	 ret	 8
?_Orphan_range@?$vector@UBMQuestRandOpt_DATA@@V?$allocator@UBMQuestRandOpt_DATA@@@std@@@std@@IBEXPAUBMQuestRandOpt_DATA@@0@Z ENDP ; std::vector<BMQuestRandOpt_DATA,std::allocator<BMQuestRandOpt_DATA> >::_Orphan_range
_TEXT	ENDS
PUBLIC	??1?$_Vector_val@UBMQuestRandOpt_DATA@@V?$allocator@UBMQuestRandOpt_DATA@@@std@@@std@@QAE@XZ ; std::_Vector_val<BMQuestRandOpt_DATA,std::allocator<BMQuestRandOpt_DATA> >::~_Vector_val<BMQuestRandOpt_DATA,std::allocator<BMQuestRandOpt_DATA> >
; Function compile flags: /Ogtp
;	COMDAT ??1?$_Vector_val@UBMQuestRandOpt_DATA@@V?$allocator@UBMQuestRandOpt_DATA@@@std@@@std@@QAE@XZ
_TEXT	SEGMENT
??1?$_Vector_val@UBMQuestRandOpt_DATA@@V?$allocator@UBMQuestRandOpt_DATA@@@std@@@std@@QAE@XZ PROC ; std::_Vector_val<BMQuestRandOpt_DATA,std::allocator<BMQuestRandOpt_DATA> >::~_Vector_val<BMQuestRandOpt_DATA,std::allocator<BMQuestRandOpt_DATA> >, COMDAT
; _this$ = ecx

; 434  : 		}

  00000	c3		 ret	 0
??1?$_Vector_val@UBMQuestRandOpt_DATA@@V?$allocator@UBMQuestRandOpt_DATA@@@std@@@std@@QAE@XZ ENDP ; std::_Vector_val<BMQuestRandOpt_DATA,std::allocator<BMQuestRandOpt_DATA> >::~_Vector_val<BMQuestRandOpt_DATA,std::allocator<BMQuestRandOpt_DATA> >
_TEXT	ENDS
PUBLIC	??0?$allocator@UBMQuestRandOpt_DATA@@@std@@QAE@XZ ; std::allocator<BMQuestRandOpt_DATA>::allocator<BMQuestRandOpt_DATA>
; Function compile flags: /Ogtp
; File d:\program files (x86)\microsoft visual studio 10.0\vc\include\xmemory
;	COMDAT ??0?$allocator@UBMQuestRandOpt_DATA@@@std@@QAE@XZ
_TEXT	SEGMENT
??0?$allocator@UBMQuestRandOpt_DATA@@@std@@QAE@XZ PROC	; std::allocator<BMQuestRandOpt_DATA>::allocator<BMQuestRandOpt_DATA>, COMDAT
; _this$ = ecx

; 161  : 	_ALLOCATOR() _THROW0()

  00000	8b c1		 mov	 eax, ecx

; 162  : 		{	// construct default allocator (do nothing)
; 163  : 		}

  00002	c3		 ret	 0
??0?$allocator@UBMQuestRandOpt_DATA@@@std@@QAE@XZ ENDP	; std::allocator<BMQuestRandOpt_DATA>::allocator<BMQuestRandOpt_DATA>
_TEXT	ENDS
PUBLIC	?capacity@?$vector@UBMQuestRandOpt_DATA@@V?$allocator@UBMQuestRandOpt_DATA@@@std@@@std@@QBEIXZ ; std::vector<BMQuestRandOpt_DATA,std::allocator<BMQuestRandOpt_DATA> >::capacity
; Function compile flags: /Ogtp
; File d:\program files (x86)\microsoft visual studio 10.0\vc\include\vector
;	COMDAT ?capacity@?$vector@UBMQuestRandOpt_DATA@@V?$allocator@UBMQuestRandOpt_DATA@@@std@@@std@@QBEIXZ
_TEXT	SEGMENT
?capacity@?$vector@UBMQuestRandOpt_DATA@@V?$allocator@UBMQuestRandOpt_DATA@@@std@@@std@@QBEIXZ PROC ; std::vector<BMQuestRandOpt_DATA,std::allocator<BMQuestRandOpt_DATA> >::capacity, COMDAT
; _this$ = ecx

; 777  : 		return (this->_Myend - this->_Myfirst);

  00000	8b 41 08	 mov	 eax, DWORD PTR [ecx+8]
  00003	2b 01		 sub	 eax, DWORD PTR [ecx]
  00005	c1 f8 05	 sar	 eax, 5

; 778  : 		}

  00008	c3		 ret	 0
?capacity@?$vector@UBMQuestRandOpt_DATA@@V?$allocator@UBMQuestRandOpt_DATA@@@std@@@std@@QBEIXZ ENDP ; std::vector<BMQuestRandOpt_DATA,std::allocator<BMQuestRandOpt_DATA> >::capacity
_TEXT	ENDS
PUBLIC	??_C@_0BD@OLBABOEK@vector?$DMT?$DO?5too?5long?$AA@ ; `string'
PUBLIC	?_Xlen@?$vector@UBMQuestRandOpt_DATA@@V?$allocator@UBMQuestRandOpt_DATA@@@std@@@std@@IBEXXZ ; std::vector<BMQuestRandOpt_DATA,std::allocator<BMQuestRandOpt_DATA> >::_Xlen
EXTRN	?_Xlength_error@std@@YAXPBD@Z:PROC		; std::_Xlength_error
;	COMDAT ??_C@_0BD@OLBABOEK@vector?$DMT?$DO?5too?5long?$AA@
CONST	SEGMENT
??_C@_0BD@OLBABOEK@vector?$DMT?$DO?5too?5long?$AA@ DB 'vector<T> too long'
	DB	00H						; `string'
; Function compile flags: /Ogtp
CONST	ENDS
;	COMDAT ?_Xlen@?$vector@UBMQuestRandOpt_DATA@@V?$allocator@UBMQuestRandOpt_DATA@@@std@@@std@@IBEXXZ
_TEXT	SEGMENT
?_Xlen@?$vector@UBMQuestRandOpt_DATA@@V?$allocator@UBMQuestRandOpt_DATA@@@std@@@std@@IBEXXZ PROC ; std::vector<BMQuestRandOpt_DATA,std::allocator<BMQuestRandOpt_DATA> >::_Xlen, COMDAT
; _this$ = ecx

; 1427 : 		_Xlength_error("vector<T> too long");

  00000	68 00 00 00 00	 push	 OFFSET ??_C@_0BD@OLBABOEK@vector?$DMT?$DO?5too?5long?$AA@
  00005	e8 00 00 00 00	 call	 ?_Xlength_error@std@@YAXPBD@Z ; std::_Xlength_error
$LN4@Xlen:
$LN3@Xlen:
  0000a	cc		 int	 3
?_Xlen@?$vector@UBMQuestRandOpt_DATA@@V?$allocator@UBMQuestRandOpt_DATA@@@std@@@std@@IBEXXZ ENDP ; std::vector<BMQuestRandOpt_DATA,std::allocator<BMQuestRandOpt_DATA> >::_Xlen
_TEXT	ENDS
PUBLIC	??0?$allocator@UBMQuestRandOpt_DATA@@@std@@QAE@ABV01@@Z ; std::allocator<BMQuestRandOpt_DATA>::allocator<BMQuestRandOpt_DATA>
; Function compile flags: /Ogtp
; File d:\program files (x86)\microsoft visual studio 10.0\vc\include\xmemory
;	COMDAT ??0?$allocator@UBMQuestRandOpt_DATA@@@std@@QAE@ABV01@@Z
_TEXT	SEGMENT
___formal$ = 8						; size = 4
??0?$allocator@UBMQuestRandOpt_DATA@@@std@@QAE@ABV01@@Z PROC ; std::allocator<BMQuestRandOpt_DATA>::allocator<BMQuestRandOpt_DATA>, COMDAT
; _this$ = ecx

; 165  : 	_ALLOCATOR(const _ALLOCATOR<_Ty>&) _THROW0()

  00000	8b c1		 mov	 eax, ecx

; 166  : 		{	// construct by copying (do nothing)
; 167  : 		}

  00002	c2 04 00	 ret	 4
??0?$allocator@UBMQuestRandOpt_DATA@@@std@@QAE@ABV01@@Z ENDP ; std::allocator<BMQuestRandOpt_DATA>::allocator<BMQuestRandOpt_DATA>
_TEXT	ENDS
PUBLIC	?deallocate@?$allocator@UBMQuestRandOpt_DATA@@@std@@QAEXPAUBMQuestRandOpt_DATA@@I@Z ; std::allocator<BMQuestRandOpt_DATA>::deallocate
EXTRN	??3@YAXPAX@Z:PROC				; operator delete
; Function compile flags: /Ogtp
;	COMDAT ?deallocate@?$allocator@UBMQuestRandOpt_DATA@@@std@@QAEXPAUBMQuestRandOpt_DATA@@I@Z
_TEXT	SEGMENT
__Ptr$ = 8						; size = 4
___formal$ = 12						; size = 4
?deallocate@?$allocator@UBMQuestRandOpt_DATA@@@std@@QAEXPAUBMQuestRandOpt_DATA@@I@Z PROC ; std::allocator<BMQuestRandOpt_DATA>::deallocate, COMDAT
; _this$ = ecx

; 181  : 		{	// deallocate object at _Ptr, ignore size

  00000	55		 push	 ebp
  00001	8b ec		 mov	 ebp, esp

; 182  : 		::operator delete(_Ptr);

  00003	8b 45 08	 mov	 eax, DWORD PTR __Ptr$[ebp]
  00006	50		 push	 eax
  00007	e8 00 00 00 00	 call	 ??3@YAXPAX@Z		; operator delete
  0000c	83 c4 04	 add	 esp, 4

; 183  : 		}

  0000f	5d		 pop	 ebp
  00010	c2 08 00	 ret	 8
?deallocate@?$allocator@UBMQuestRandOpt_DATA@@@std@@QAEXPAUBMQuestRandOpt_DATA@@I@Z ENDP ; std::allocator<BMQuestRandOpt_DATA>::deallocate
_TEXT	ENDS
PUBLIC	?max_size@?$allocator@UBMQuestRandOpt_DATA@@@std@@QBEIXZ ; std::allocator<BMQuestRandOpt_DATA>::max_size
; Function compile flags: /Ogtp
;	COMDAT ?max_size@?$allocator@UBMQuestRandOpt_DATA@@@std@@QBEIXZ
_TEXT	SEGMENT
?max_size@?$allocator@UBMQuestRandOpt_DATA@@@std@@QBEIXZ PROC ; std::allocator<BMQuestRandOpt_DATA>::max_size, COMDAT
; _this$ = ecx

; 218  : 		_SIZT _Count = (_SIZT)(-1) / sizeof (_Ty);
; 219  : 		return (0 < _Count ? _Count : 1);

  00000	b8 ff ff ff 07	 mov	 eax, 134217727		; 07ffffffH

; 220  : 		}

  00005	c3		 ret	 0
?max_size@?$allocator@UBMQuestRandOpt_DATA@@@std@@QBEIXZ ENDP ; std::allocator<BMQuestRandOpt_DATA>::max_size
_TEXT	ENDS
PUBLIC	?_Compat@?$_Vector_const_iterator@V?$_Vector_val@UBMQuestRandOpt_DATA@@V?$allocator@UBMQuestRandOpt_DATA@@@std@@@std@@@std@@QBEXABV12@@Z ; std::_Vector_const_iterator<std::_Vector_val<BMQuestRandOpt_DATA,std::allocator<BMQuestRandOpt_DATA> > >::_Compat
; Function compile flags: /Ogtp
; File d:\program files (x86)\microsoft visual studio 10.0\vc\include\vector
;	COMDAT ?_Compat@?$_Vector_const_iterator@V?$_Vector_val@UBMQuestRandOpt_DATA@@V?$allocator@UBMQuestRandOpt_DATA@@@std@@@std@@@std@@QBEXABV12@@Z
_TEXT	SEGMENT
___formal$ = 8						; size = 4
?_Compat@?$_Vector_const_iterator@V?$_Vector_val@UBMQuestRandOpt_DATA@@V?$allocator@UBMQuestRandOpt_DATA@@@std@@@std@@@std@@QBEXABV12@@Z PROC ; std::_Vector_const_iterator<std::_Vector_val<BMQuestRandOpt_DATA,std::allocator<BMQuestRandOpt_DATA> > >::_Compat, COMDAT
; _this$ = ecx

; 253  : 		}

  00000	c2 04 00	 ret	 4
?_Compat@?$_Vector_const_iterator@V?$_Vector_val@UBMQuestRandOpt_DATA@@V?$allocator@UBMQuestRandOpt_DATA@@@std@@@std@@@std@@QBEXABV12@@Z ENDP ; std::_Vector_const_iterator<std::_Vector_val<BMQuestRandOpt_DATA,std::allocator<BMQuestRandOpt_DATA> > >::_Compat
_TEXT	ENDS
PUBLIC	??$addressof@$$CBUBMQuestRandOpt_DATA@@@std@@YAPBUBMQuestRandOpt_DATA@@ABU1@@Z ; std::addressof<BMQuestRandOpt_DATA const >
; Function compile flags: /Ogtp
; File d:\program files (x86)\microsoft visual studio 10.0\vc\include\xmemory
;	COMDAT ??$addressof@$$CBUBMQuestRandOpt_DATA@@@std@@YAPBUBMQuestRandOpt_DATA@@ABU1@@Z
_TEXT	SEGMENT
__Val$ = 8						; size = 4
??$addressof@$$CBUBMQuestRandOpt_DATA@@@std@@YAPBUBMQuestRandOpt_DATA@@ABU1@@Z PROC ; std::addressof<BMQuestRandOpt_DATA const >, COMDAT

; 110  : 	{	// return address of _Val

  00000	55		 push	 ebp
  00001	8b ec		 mov	 ebp, esp

; 111  : 	return ((_Ty *) &(char&)_Val);

  00003	8b 45 08	 mov	 eax, DWORD PTR __Val$[ebp]

; 112  : 	}

  00006	5d		 pop	 ebp
  00007	c3		 ret	 0
??$addressof@$$CBUBMQuestRandOpt_DATA@@@std@@YAPBUBMQuestRandOpt_DATA@@ABU1@@Z ENDP ; std::addressof<BMQuestRandOpt_DATA const >
_TEXT	ENDS
PUBLIC	??$forward@AAUBMQuestRandOpt_DATA@@@std@@YAAAUBMQuestRandOpt_DATA@@AAU1@@Z ; std::forward<BMQuestRandOpt_DATA &>
; Function compile flags: /Ogtp
; File d:\program files (x86)\microsoft visual studio 10.0\vc\include\utility
;	COMDAT ??$forward@AAUBMQuestRandOpt_DATA@@@std@@YAAAUBMQuestRandOpt_DATA@@AAU1@@Z
_TEXT	SEGMENT
__Arg$ = 8						; size = 4
??$forward@AAUBMQuestRandOpt_DATA@@@std@@YAAAUBMQuestRandOpt_DATA@@AAU1@@Z PROC ; std::forward<BMQuestRandOpt_DATA &>, COMDAT

; 78   : 	{	// forward _Arg, given explicitly specified type parameter

  00000	55		 push	 ebp
  00001	8b ec		 mov	 ebp, esp

; 79   : 	return ((_Ty&&)_Arg);

  00003	8b 45 08	 mov	 eax, DWORD PTR __Arg$[ebp]

; 80   : 	}

  00006	5d		 pop	 ebp
  00007	c3		 ret	 0
??$forward@AAUBMQuestRandOpt_DATA@@@std@@YAAAUBMQuestRandOpt_DATA@@AAU1@@Z ENDP ; std::forward<BMQuestRandOpt_DATA &>
_TEXT	ENDS
PUBLIC	??$construct@AAUBMQuestRandOpt_DATA@@@?$allocator@UBMQuestRandOpt_DATA@@@std@@QAEXPAUBMQuestRandOpt_DATA@@AAU2@@Z ; std::allocator<BMQuestRandOpt_DATA>::construct<BMQuestRandOpt_DATA &>
; Function compile flags: /Ogtp
; File d:\program files (x86)\microsoft visual studio 10.0\vc\include\xmemory
;	COMDAT ??$construct@AAUBMQuestRandOpt_DATA@@@?$allocator@UBMQuestRandOpt_DATA@@@std@@QAEXPAUBMQuestRandOpt_DATA@@AAU2@@Z
_TEXT	SEGMENT
__Ptr$ = 8						; size = 4
__Val$ = 12						; size = 4
??$construct@AAUBMQuestRandOpt_DATA@@@?$allocator@UBMQuestRandOpt_DATA@@@std@@QAEXPAUBMQuestRandOpt_DATA@@AAU2@@Z PROC ; std::allocator<BMQuestRandOpt_DATA>::construct<BMQuestRandOpt_DATA &>, COMDAT
; _this$ = ecx

; 206  : 		void construct(pointer _Ptr, _Other&& _Val)

  00000	55		 push	 ebp
  00001	8b ec		 mov	 ebp, esp
  00003	57		 push	 edi

; 207  : 		{	// construct object at _Ptr with value _Val
; 208  : 		::new ((void _FARQ *)_Ptr) _Ty(_STD forward<_Other>(_Val));

  00004	8b 7d 08	 mov	 edi, DWORD PTR __Ptr$[ebp]
  00007	85 ff		 test	 edi, edi
  00009	74 0c		 je	 SHORT $LN3@construct
  0000b	56		 push	 esi
  0000c	8b 75 0c	 mov	 esi, DWORD PTR __Val$[ebp]
  0000f	b9 08 00 00 00	 mov	 ecx, 8
  00014	f3 a5		 rep movsd
  00016	5e		 pop	 esi
$LN3@construct:
  00017	5f		 pop	 edi

; 209  : 		}

  00018	5d		 pop	 ebp
  00019	c2 08 00	 ret	 8
??$construct@AAUBMQuestRandOpt_DATA@@@?$allocator@UBMQuestRandOpt_DATA@@@std@@QAEXPAUBMQuestRandOpt_DATA@@AAU2@@Z ENDP ; std::allocator<BMQuestRandOpt_DATA>::construct<BMQuestRandOpt_DATA &>
_TEXT	ENDS
PUBLIC	??$forward@ABUBMQuestRandOpt_DATA@@@std@@YAABUBMQuestRandOpt_DATA@@ABU1@@Z ; std::forward<BMQuestRandOpt_DATA const &>
; Function compile flags: /Ogtp
; File d:\program files (x86)\microsoft visual studio 10.0\vc\include\utility
;	COMDAT ??$forward@ABUBMQuestRandOpt_DATA@@@std@@YAABUBMQuestRandOpt_DATA@@ABU1@@Z
_TEXT	SEGMENT
__Arg$ = 8						; size = 4
??$forward@ABUBMQuestRandOpt_DATA@@@std@@YAABUBMQuestRandOpt_DATA@@ABU1@@Z PROC ; std::forward<BMQuestRandOpt_DATA const &>, COMDAT

; 78   : 	{	// forward _Arg, given explicitly specified type parameter

  00000	55		 push	 ebp
  00001	8b ec		 mov	 ebp, esp

; 79   : 	return ((_Ty&&)_Arg);

  00003	8b 45 08	 mov	 eax, DWORD PTR __Arg$[ebp]

; 80   : 	}

  00006	5d		 pop	 ebp
  00007	c3		 ret	 0
??$forward@ABUBMQuestRandOpt_DATA@@@std@@YAABUBMQuestRandOpt_DATA@@ABU1@@Z ENDP ; std::forward<BMQuestRandOpt_DATA const &>
_TEXT	ENDS
PUBLIC	??$_Ptr_cat@UBMQuestRandOpt_DATA@@U1@@std@@YA?AU_Nonscalar_ptr_iterator_tag@0@PAUBMQuestRandOpt_DATA@@0@Z ; std::_Ptr_cat<BMQuestRandOpt_DATA,BMQuestRandOpt_DATA>
; Function compile flags: /Ogtp
; File d:\program files (x86)\microsoft visual studio 10.0\vc\include\xutility
;	COMDAT ??$_Ptr_cat@UBMQuestRandOpt_DATA@@U1@@std@@YA?AU_Nonscalar_ptr_iterator_tag@0@PAUBMQuestRandOpt_DATA@@0@Z
_TEXT	SEGMENT
__Cat$ = -1						; size = 1
___formal$ = 8						; size = 4
___formal$ = 12						; size = 4
??$_Ptr_cat@UBMQuestRandOpt_DATA@@U1@@std@@YA?AU_Nonscalar_ptr_iterator_tag@0@PAUBMQuestRandOpt_DATA@@0@Z PROC ; std::_Ptr_cat<BMQuestRandOpt_DATA,BMQuestRandOpt_DATA>, COMDAT

; 516  : 	{	// return pointer category from pointers

  00000	55		 push	 ebp
  00001	8b ec		 mov	 ebp, esp
  00003	51		 push	 ecx

; 517  : 	typename _Ptr_cat_helper<_Elem1, _Elem2>::_Type _Cat;
; 518  : 	return (_Cat);

  00004	8a 45 ff	 mov	 al, BYTE PTR __Cat$[ebp]

; 519  : 	}

  00007	8b e5		 mov	 esp, ebp
  00009	5d		 pop	 ebp
  0000a	c3		 ret	 0
??$_Ptr_cat@UBMQuestRandOpt_DATA@@U1@@std@@YA?AU_Nonscalar_ptr_iterator_tag@0@PAUBMQuestRandOpt_DATA@@0@Z ENDP ; std::_Ptr_cat<BMQuestRandOpt_DATA,BMQuestRandOpt_DATA>
_TEXT	ENDS
PUBLIC	??$_Construct@UBMQuestRandOpt_DATA@@ABU1@@std@@YAXPAUBMQuestRandOpt_DATA@@ABU1@@Z ; std::_Construct<BMQuestRandOpt_DATA,BMQuestRandOpt_DATA const &>
; Function compile flags: /Ogtp
; File d:\program files (x86)\microsoft visual studio 10.0\vc\include\xmemory
;	COMDAT ??$_Construct@UBMQuestRandOpt_DATA@@ABU1@@std@@YAXPAUBMQuestRandOpt_DATA@@ABU1@@Z
_TEXT	SEGMENT
__Ptr$ = 8						; size = 4
__Val$ = 12						; size = 4
??$_Construct@UBMQuestRandOpt_DATA@@ABU1@@std@@YAXPAUBMQuestRandOpt_DATA@@ABU1@@Z PROC ; std::_Construct<BMQuestRandOpt_DATA,BMQuestRandOpt_DATA const &>, COMDAT

; 46   : 	{	// construct object at _Ptr with value _Val

  00000	55		 push	 ebp
  00001	8b ec		 mov	 ebp, esp
  00003	57		 push	 edi

; 47   : 	void _FARQ *_Vptr = _Ptr;
; 48   : 	::new (_Vptr) _Ty1(_STD forward<_Ty2>(_Val));

  00004	8b 7d 08	 mov	 edi, DWORD PTR __Ptr$[ebp]
  00007	85 ff		 test	 edi, edi
  00009	74 0c		 je	 SHORT $LN3@Construct
  0000b	56		 push	 esi
  0000c	8b 75 0c	 mov	 esi, DWORD PTR __Val$[ebp]
  0000f	b9 08 00 00 00	 mov	 ecx, 8
  00014	f3 a5		 rep movsd
  00016	5e		 pop	 esi
$LN3@Construct:
  00017	5f		 pop	 edi

; 49   : 	}

  00018	5d		 pop	 ebp
  00019	c3		 ret	 0
??$_Construct@UBMQuestRandOpt_DATA@@ABU1@@std@@YAXPAUBMQuestRandOpt_DATA@@ABU1@@Z ENDP ; std::_Construct<BMQuestRandOpt_DATA,BMQuestRandOpt_DATA const &>
_TEXT	ENDS
PUBLIC	??$move@AAUBMQuestRandOpt_DATA@@@std@@YA$$QAUBMQuestRandOpt_DATA@@AAU1@@Z ; std::move<BMQuestRandOpt_DATA &>
; Function compile flags: /Ogtp
; File d:\program files (x86)\microsoft visual studio 10.0\vc\include\utility
;	COMDAT ??$move@AAUBMQuestRandOpt_DATA@@@std@@YA$$QAUBMQuestRandOpt_DATA@@AAU1@@Z
_TEXT	SEGMENT
__Arg$ = 8						; size = 4
??$move@AAUBMQuestRandOpt_DATA@@@std@@YA$$QAUBMQuestRandOpt_DATA@@AAU1@@Z PROC ; std::move<BMQuestRandOpt_DATA &>, COMDAT

; 86   : 	{	// forward _Arg as movable

  00000	55		 push	 ebp
  00001	8b ec		 mov	 ebp, esp

; 87   : 	return ((typename tr1::_Remove_reference<_Ty>::_Type&&)_Arg);

  00003	8b 45 08	 mov	 eax, DWORD PTR __Arg$[ebp]

; 88   : 	}

  00006	5d		 pop	 ebp
  00007	c3		 ret	 0
??$move@AAUBMQuestRandOpt_DATA@@@std@@YA$$QAUBMQuestRandOpt_DATA@@AAU1@@Z ENDP ; std::move<BMQuestRandOpt_DATA &>
_TEXT	ENDS
PUBLIC	??$_Val_type@PAUBMQuestRandOpt_DATA@@@std@@YAPAUBMQuestRandOpt_DATA@@PAU1@@Z ; std::_Val_type<BMQuestRandOpt_DATA *>
; Function compile flags: /Ogtp
; File d:\program files (x86)\microsoft visual studio 10.0\vc\include\xutility
;	COMDAT ??$_Val_type@PAUBMQuestRandOpt_DATA@@@std@@YAPAUBMQuestRandOpt_DATA@@PAU1@@Z
_TEXT	SEGMENT
___formal$ = 8						; size = 4
??$_Val_type@PAUBMQuestRandOpt_DATA@@@std@@YAPAUBMQuestRandOpt_DATA@@PAU1@@Z PROC ; std::_Val_type<BMQuestRandOpt_DATA *>, COMDAT

; 790  : 	return (0);

  00000	33 c0		 xor	 eax, eax

; 791  : 	}

  00002	c3		 ret	 0
??$_Val_type@PAUBMQuestRandOpt_DATA@@@std@@YAPAUBMQuestRandOpt_DATA@@PAU1@@Z ENDP ; std::_Val_type<BMQuestRandOpt_DATA *>
_TEXT	ENDS
PUBLIC	??$_Destroy@UBMQuestRandOpt_DATA@@@std@@YAXPAUBMQuestRandOpt_DATA@@@Z ; std::_Destroy<BMQuestRandOpt_DATA>
; Function compile flags: /Ogtp
; File d:\program files (x86)\microsoft visual studio 10.0\vc\include\xmemory
;	COMDAT ??$_Destroy@UBMQuestRandOpt_DATA@@@std@@YAXPAUBMQuestRandOpt_DATA@@@Z
_TEXT	SEGMENT
__Ptr$ = 8						; size = 4
??$_Destroy@UBMQuestRandOpt_DATA@@@std@@YAXPAUBMQuestRandOpt_DATA@@@Z PROC ; std::_Destroy<BMQuestRandOpt_DATA>, COMDAT

; 63   : 	_Ptr->~_Ty();
; 64   : 	}

  00000	c3		 ret	 0
??$_Destroy@UBMQuestRandOpt_DATA@@@std@@YAXPAUBMQuestRandOpt_DATA@@@Z ENDP ; std::_Destroy<BMQuestRandOpt_DATA>
_TEXT	ENDS
PUBLIC	??$forward@UBMQuestRandOpt_DATA@@@std@@YA$$QAUBMQuestRandOpt_DATA@@AAU1@@Z ; std::forward<BMQuestRandOpt_DATA>
; Function compile flags: /Ogtp
; File d:\program files (x86)\microsoft visual studio 10.0\vc\include\utility
;	COMDAT ??$forward@UBMQuestRandOpt_DATA@@@std@@YA$$QAUBMQuestRandOpt_DATA@@AAU1@@Z
_TEXT	SEGMENT
__Arg$ = 8						; size = 4
??$forward@UBMQuestRandOpt_DATA@@@std@@YA$$QAUBMQuestRandOpt_DATA@@AAU1@@Z PROC ; std::forward<BMQuestRandOpt_DATA>, COMDAT

; 78   : 	{	// forward _Arg, given explicitly specified type parameter

  00000	55		 push	 ebp
  00001	8b ec		 mov	 ebp, esp

; 79   : 	return ((_Ty&&)_Arg);

  00003	8b 45 08	 mov	 eax, DWORD PTR __Arg$[ebp]

; 80   : 	}

  00006	5d		 pop	 ebp
  00007	c3		 ret	 0
??$forward@UBMQuestRandOpt_DATA@@@std@@YA$$QAUBMQuestRandOpt_DATA@@AAU1@@Z ENDP ; std::forward<BMQuestRandOpt_DATA>
_TEXT	ENDS
PUBLIC	??_7bad_alloc@std@@6B@				; std::bad_alloc::`vftable'
PUBLIC	??0bad_alloc@std@@QAE@PBD@Z			; std::bad_alloc::bad_alloc
PUBLIC	??_R4bad_alloc@std@@6B@				; std::bad_alloc::`RTTI Complete Object Locator'
PUBLIC	??_R0?AVbad_alloc@std@@@8			; std::bad_alloc `RTTI Type Descriptor'
PUBLIC	??_R3bad_alloc@std@@8				; std::bad_alloc::`RTTI Class Hierarchy Descriptor'
PUBLIC	??_R2bad_alloc@std@@8				; std::bad_alloc::`RTTI Base Class Array'
PUBLIC	??_R1A@?0A@EA@bad_alloc@std@@8			; std::bad_alloc::`RTTI Base Class Descriptor at (0,-1,0,64)'
PUBLIC	??_R1A@?0A@EA@exception@std@@8			; std::exception::`RTTI Base Class Descriptor at (0,-1,0,64)'
PUBLIC	??_R0?AVexception@std@@@8			; std::exception `RTTI Type Descriptor'
PUBLIC	??_R3exception@std@@8				; std::exception::`RTTI Class Hierarchy Descriptor'
PUBLIC	??_R2exception@std@@8				; std::exception::`RTTI Base Class Array'
EXTRN	??0exception@std@@QAE@ABQBD@Z:PROC		; std::exception::exception
EXTRN	??_7type_info@@6B@:QWORD			; type_info::`vftable'
EXTRN	??_Ebad_alloc@std@@UAEPAXI@Z:PROC		; std::bad_alloc::`vector deleting destructor'
EXTRN	?what@exception@std@@UBEPBDXZ:PROC		; std::exception::what
;	COMDAT ??_R2exception@std@@8
; File d:\program files (x86)\microsoft visual studio 10.0\vc\include\exception
rdata$r	SEGMENT
??_R2exception@std@@8 DD FLAT:??_R1A@?0A@EA@exception@std@@8 ; std::exception::`RTTI Base Class Array'
rdata$r	ENDS
;	COMDAT ??_R3exception@std@@8
rdata$r	SEGMENT
??_R3exception@std@@8 DD 00H				; std::exception::`RTTI Class Hierarchy Descriptor'
	DD	00H
	DD	01H
	DD	FLAT:??_R2exception@std@@8
rdata$r	ENDS
;	COMDAT ??_R0?AVexception@std@@@8
_DATA	SEGMENT
??_R0?AVexception@std@@@8 DD FLAT:??_7type_info@@6B@	; std::exception `RTTI Type Descriptor'
	DD	00H
	DB	'.?AVexception@std@@', 00H
_DATA	ENDS
;	COMDAT ??_R1A@?0A@EA@exception@std@@8
rdata$r	SEGMENT
??_R1A@?0A@EA@exception@std@@8 DD FLAT:??_R0?AVexception@std@@@8 ; std::exception::`RTTI Base Class Descriptor at (0,-1,0,64)'
	DD	00H
	DD	00H
	DD	0ffffffffH
	DD	00H
	DD	040H
	DD	FLAT:??_R3exception@std@@8
rdata$r	ENDS
;	COMDAT ??_R1A@?0A@EA@bad_alloc@std@@8
rdata$r	SEGMENT
??_R1A@?0A@EA@bad_alloc@std@@8 DD FLAT:??_R0?AVbad_alloc@std@@@8 ; std::bad_alloc::`RTTI Base Class Descriptor at (0,-1,0,64)'
	DD	01H
	DD	00H
	DD	0ffffffffH
	DD	00H
	DD	040H
	DD	FLAT:??_R3bad_alloc@std@@8
rdata$r	ENDS
;	COMDAT ??_R2bad_alloc@std@@8
rdata$r	SEGMENT
??_R2bad_alloc@std@@8 DD FLAT:??_R1A@?0A@EA@bad_alloc@std@@8 ; std::bad_alloc::`RTTI Base Class Array'
	DD	FLAT:??_R1A@?0A@EA@exception@std@@8
rdata$r	ENDS
;	COMDAT ??_R3bad_alloc@std@@8
rdata$r	SEGMENT
??_R3bad_alloc@std@@8 DD 00H				; std::bad_alloc::`RTTI Class Hierarchy Descriptor'
	DD	00H
	DD	02H
	DD	FLAT:??_R2bad_alloc@std@@8
rdata$r	ENDS
;	COMDAT ??_R0?AVbad_alloc@std@@@8
_DATA	SEGMENT
??_R0?AVbad_alloc@std@@@8 DD FLAT:??_7type_info@@6B@	; std::bad_alloc `RTTI Type Descriptor'
	DD	00H
	DB	'.?AVbad_alloc@std@@', 00H
_DATA	ENDS
;	COMDAT ??_R4bad_alloc@std@@6B@
rdata$r	SEGMENT
??_R4bad_alloc@std@@6B@ DD 00H				; std::bad_alloc::`RTTI Complete Object Locator'
	DD	00H
	DD	00H
	DD	FLAT:??_R0?AVbad_alloc@std@@@8
	DD	FLAT:??_R3bad_alloc@std@@8
rdata$r	ENDS
;	COMDAT ??_7bad_alloc@std@@6B@
CONST	SEGMENT
??_7bad_alloc@std@@6B@ DD FLAT:??_R4bad_alloc@std@@6B@	; std::bad_alloc::`vftable'
	DD	FLAT:??_Ebad_alloc@std@@UAEPAXI@Z
	DD	FLAT:?what@exception@std@@UBEPBDXZ
; Function compile flags: /Ogtp
CONST	ENDS
;	COMDAT ??0bad_alloc@std@@QAE@PBD@Z
_TEXT	SEGMENT
__Message$ = 8						; size = 4
??0bad_alloc@std@@QAE@PBD@Z PROC			; std::bad_alloc::bad_alloc, COMDAT
; _this$ = ecx

; 345  : 		{	// construct from message string

  00000	55		 push	 ebp
  00001	8b ec		 mov	 ebp, esp
  00003	56		 push	 esi
  00004	8d 45 08	 lea	 eax, DWORD PTR __Message$[ebp]
  00007	50		 push	 eax
  00008	8b f1		 mov	 esi, ecx
  0000a	e8 00 00 00 00	 call	 ??0exception@std@@QAE@ABQBD@Z ; std::exception::exception
  0000f	c7 06 00 00 00
	00		 mov	 DWORD PTR [esi], OFFSET ??_7bad_alloc@std@@6B@

; 346  : 		}

  00015	8b c6		 mov	 eax, esi
  00017	5e		 pop	 esi
  00018	5d		 pop	 ebp
  00019	c2 04 00	 ret	 4
??0bad_alloc@std@@QAE@PBD@Z ENDP			; std::bad_alloc::bad_alloc
_TEXT	ENDS
PUBLIC	??1bad_alloc@std@@UAE@XZ			; std::bad_alloc::~bad_alloc
EXTRN	??1exception@std@@UAE@XZ:PROC			; std::exception::~exception
; Function compile flags: /Ogtp
;	COMDAT ??1bad_alloc@std@@UAE@XZ
_TEXT	SEGMENT
??1bad_alloc@std@@UAE@XZ PROC				; std::bad_alloc::~bad_alloc, COMDAT
; _this$ = ecx

; 354  : 		{	// destroy the object

  00000	c7 01 00 00 00
	00		 mov	 DWORD PTR [ecx], OFFSET ??_7bad_alloc@std@@6B@

; 355  : 		}

  00006	e9 00 00 00 00	 jmp	 ??1exception@std@@UAE@XZ ; std::exception::~exception
??1bad_alloc@std@@UAE@XZ ENDP				; std::bad_alloc::~bad_alloc
; Function compile flags: /Ogtp
_TEXT	ENDS
;	COMDAT ??_Gbad_alloc@std@@UAEPAXI@Z
_TEXT	SEGMENT
___flags$ = 8						; size = 4
??_Gbad_alloc@std@@UAEPAXI@Z PROC			; std::bad_alloc::`scalar deleting destructor', COMDAT
; _this$ = ecx
  00000	55		 push	 ebp
  00001	8b ec		 mov	 ebp, esp
  00003	56		 push	 esi
  00004	8b f1		 mov	 esi, ecx
  00006	c7 06 00 00 00
	00		 mov	 DWORD PTR [esi], OFFSET ??_7bad_alloc@std@@6B@
  0000c	e8 00 00 00 00	 call	 ??1exception@std@@UAE@XZ ; std::exception::~exception
  00011	f6 45 08 01	 test	 BYTE PTR ___flags$[ebp], 1
  00015	74 09		 je	 SHORT $LN6@scalar
  00017	56		 push	 esi
  00018	e8 00 00 00 00	 call	 ??3@YAXPAX@Z		; operator delete
  0001d	83 c4 04	 add	 esp, 4
$LN6@scalar:
  00020	8b c6		 mov	 eax, esi
  00022	5e		 pop	 esi
  00023	5d		 pop	 ebp
  00024	c2 04 00	 ret	 4
??_Gbad_alloc@std@@UAEPAXI@Z ENDP			; std::bad_alloc::`scalar deleting destructor'
_TEXT	ENDS
PUBLIC	?_Orphan_all@_Container_base0@std@@QAEXXZ	; std::_Container_base0::_Orphan_all
; Function compile flags: /Ogtp
; File d:\program files (x86)\microsoft visual studio 10.0\vc\include\xutility
;	COMDAT ?_Orphan_all@_Container_base0@std@@QAEXXZ
_TEXT	SEGMENT
?_Orphan_all@_Container_base0@std@@QAEXXZ PROC		; std::_Container_base0::_Orphan_all, COMDAT
; _this$ = ecx

; 38   : 		}

  00000	c3		 ret	 0
?_Orphan_all@_Container_base0@std@@QAEXXZ ENDP		; std::_Container_base0::_Orphan_all
_TEXT	ENDS
PUBLIC	?_Adopt@_Iterator_base0@std@@QAEXPBX@Z		; std::_Iterator_base0::_Adopt
; Function compile flags: /Ogtp
;	COMDAT ?_Adopt@_Iterator_base0@std@@QAEXPBX@Z
_TEXT	SEGMENT
___formal$ = 8						; size = 4
?_Adopt@_Iterator_base0@std@@QAEXPBX@Z PROC		; std::_Iterator_base0::_Adopt, COMDAT
; _this$ = ecx

; 49   : 		}

  00000	c2 04 00	 ret	 4
?_Adopt@_Iterator_base0@std@@QAEXPBX@Z ENDP		; std::_Iterator_base0::_Adopt
_TEXT	ENDS
PUBLIC	??_C@_0CE@HHODGGLO@You?5have?5completed?5all?5the?5Missi@ ; `string'
PUBLIC	??_C@_0BO@ENMKBBNP@Your?5Mission?5is?5not?5finished?$CB?$AA@ ; `string'
PUBLIC	??_C@_0BC@JOGHABHI@?$EA?$FLBMQuest?$FN?5Finish?$AA@ ; `string'
PUBLIC	??_C@_0BL@IDMCJBFF@You?5completed?5the?5mission?$CB?$AA@ ; `string'
PUBLIC	??_C@_0O@CDMFMOLE@?$EA?$FLBMQuest?$FN?5?$CFs?$AA@ ; `string'
PUBLIC	??_C@_0BH@CHPOIIBF@?$EA?$FLBMQuest?$FN?5Mission?3?5?$CFd?$AA@ ; `string'
PUBLIC	??_C@_0L@PMKLANHL@Good?5luck?$CB?$AA@		; `string'
PUBLIC	??_C@_0CD@IJLLHDOG@Mission?5is?5available?5with?5?$CFd?5res@ ; `string'
PUBLIC	__$ArrayPad$
PUBLIC	?NPCdialogue@cBMQuest@@QAEXHH@Z			; cBMQuest::NPCdialogue
EXTRN	?ChatTargetSend@@YAXPAUOBJECTSTRUCT@@PADH@Z:PROC ; ChatTargetSend
EXTRN	_sprintf:PROC
EXTRN	___security_cookie:DWORD
EXTRN	@__security_check_cookie@4:PROC
;	COMDAT ??_C@_0CE@HHODGGLO@You?5have?5completed?5all?5the?5Missi@
; File e:\work\tranet_version\gs\gameserver\bmquest.cpp
CONST	SEGMENT
??_C@_0CE@HHODGGLO@You?5have?5completed?5all?5the?5Missi@ DB 'You have co'
	DB	'mpleted all the Mission!', 00H		; `string'
CONST	ENDS
;	COMDAT ??_C@_0BO@ENMKBBNP@Your?5Mission?5is?5not?5finished?$CB?$AA@
CONST	SEGMENT
??_C@_0BO@ENMKBBNP@Your?5Mission?5is?5not?5finished?$CB?$AA@ DB 'Your Mis'
	DB	'sion is not finished!', 00H			; `string'
CONST	ENDS
;	COMDAT ??_C@_0BC@JOGHABHI@?$EA?$FLBMQuest?$FN?5Finish?$AA@
CONST	SEGMENT
??_C@_0BC@JOGHABHI@?$EA?$FLBMQuest?$FN?5Finish?$AA@ DB '@[BMQuest] Finish'
	DB	00H						; `string'
CONST	ENDS
;	COMDAT ??_C@_0BL@IDMCJBFF@You?5completed?5the?5mission?$CB?$AA@
CONST	SEGMENT
??_C@_0BL@IDMCJBFF@You?5completed?5the?5mission?$CB?$AA@ DB 'You complete'
	DB	'd the mission!', 00H			; `string'
CONST	ENDS
;	COMDAT ??_C@_0O@CDMFMOLE@?$EA?$FLBMQuest?$FN?5?$CFs?$AA@
CONST	SEGMENT
??_C@_0O@CDMFMOLE@?$EA?$FLBMQuest?$FN?5?$CFs?$AA@ DB '@[BMQuest] %s', 00H ; `string'
CONST	ENDS
;	COMDAT ??_C@_0BH@CHPOIIBF@?$EA?$FLBMQuest?$FN?5Mission?3?5?$CFd?$AA@
CONST	SEGMENT
??_C@_0BH@CHPOIIBF@?$EA?$FLBMQuest?$FN?5Mission?3?5?$CFd?$AA@ DB '@[BMQue'
	DB	'st] Mission: %d', 00H			; `string'
CONST	ENDS
;	COMDAT ??_C@_0L@PMKLANHL@Good?5luck?$CB?$AA@
CONST	SEGMENT
??_C@_0L@PMKLANHL@Good?5luck?$CB?$AA@ DB 'Good luck!', 00H ; `string'
CONST	ENDS
;	COMDAT ??_C@_0CD@IJLLHDOG@Mission?5is?5available?5with?5?$CFd?5res@
CONST	SEGMENT
??_C@_0CD@IJLLHDOG@Mission?5is?5available?5with?5?$CFd?5res@ DB 'Mission '
	DB	'is available with %d reset', 00H		; `string'
; Function compile flags: /Ogtp
CONST	ENDS
;	COMDAT ?NPCdialogue@cBMQuest@@QAEXHH@Z
_TEXT	SEGMENT
_QClass$ = -116						; size = 4
_lpNpc$ = -112						; size = 4
tv328 = -108						; size = 4
_Buffs$203357 = -104					; size = 100
__$ArrayPad$ = -4					; size = 4
_aIndex$ = 8						; size = 4
_aNPC$ = 12						; size = 4
?NPCdialogue@cBMQuest@@QAEXHH@Z PROC			; cBMQuest::NPCdialogue, COMDAT
; _this$ = ecx

; 303  : {

  00000	55		 push	 ebp
  00001	8b ec		 mov	 ebp, esp
  00003	83 ec 74	 sub	 esp, 116		; 00000074H
  00006	a1 00 00 00 00	 mov	 eax, DWORD PTR ___security_cookie
  0000b	33 c5		 xor	 eax, ebp
  0000d	89 45 fc	 mov	 DWORD PTR __$ArrayPad$[ebp], eax
  00010	8b 45 0c	 mov	 eax, DWORD PTR _aNPC$[ebp]
  00013	53		 push	 ebx
  00014	57		 push	 edi
  00015	8b 7d 08	 mov	 edi, DWORD PTR _aIndex$[ebp]
  00018	8b d9		 mov	 ebx, ecx

; 304  : 	if ( OBJMAX_RANGE(aIndex) == FALSE || OBJMAX_RANGE(aNPC) == FALSE )

  0001a	85 ff		 test	 edi, edi
  0001c	0f 88 75 02 00
	00		 js	 $LN11@NPCdialogu
  00022	33 c9		 xor	 ecx, ecx
  00024	81 ff 97 3a 00
	00		 cmp	 edi, 14999		; 00003a97H
  0002a	0f 9e c1	 setle	 cl
  0002d	85 c9		 test	 ecx, ecx
  0002f	0f 84 62 02 00
	00		 je	 $LN11@NPCdialogu
  00035	85 c0		 test	 eax, eax
  00037	0f 88 5a 02 00
	00		 js	 $LN11@NPCdialogu
  0003d	33 c9		 xor	 ecx, ecx
  0003f	3d 97 3a 00 00	 cmp	 eax, 14999		; 00003a97H
  00044	0f 9e c1	 setle	 cl
  00047	85 c9		 test	 ecx, ecx
  00049	0f 84 48 02 00
	00		 je	 $LN11@NPCdialogu

; 307  : 		return;
; 308  : 	}
; 309  : 
; 310  : 	LPOBJ lpUser = &gObj[aIndex];

  0004f	8b 0d 00 00 00
	00		 mov	 ecx, DWORD PTR ?gObj@@3PAUOBJECTSTRUCT@@A ; gObj

; 311  : 	LPOBJ lpNpc = &gObj[aNPC];

  00055	69 c0 50 2b 00
	00		 imul	 eax, 11088		; 00002b50H
  0005b	56		 push	 esi
  0005c	8b f7		 mov	 esi, edi
  0005e	69 f6 50 2b 00
	00		 imul	 esi, 11088		; 00002b50H
  00064	03 f1		 add	 esi, ecx
  00066	03 c1		 add	 eax, ecx

; 312  : 
; 313  : 	if(lpUser->Connected < PLAYER_PLAYING)

  00068	83 7e 04 03	 cmp	 DWORD PTR [esi+4], 3
  0006c	89 45 90	 mov	 DWORD PTR _lpNpc$[ebp], eax
  0006f	7c 2e		 jl	 SHORT $LN19@NPCdialogu

; 314  : 	{
; 315  : 		return;
; 316  : 	}
; 317  : 
; 318  : 	if(lpUser->Reset < Reset)

  00071	8b 8b 14 db 1a
	00		 mov	 ecx, DWORD PTR [ebx+1760020]
  00077	39 8e 90 22 00
	00		 cmp	 DWORD PTR [esi+8848], ecx
  0007d	7d 33		 jge	 SHORT $LN9@NPCdialogu

; 319  : 	{
; 320  : 		char Buffs[100];
; 321  : 		sprintf(Buffs,"Mission is available with %d reset",Reset);

  0007f	51		 push	 ecx
  00080	8d 45 98	 lea	 eax, DWORD PTR _Buffs$203357[ebp]
  00083	68 00 00 00 00	 push	 OFFSET ??_C@_0CD@IJLLHDOG@Mission?5is?5available?5with?5?$CFd?5res@
  00088	50		 push	 eax
  00089	e8 00 00 00 00	 call	 _sprintf

; 322  : 		ChatTargetSend(lpNpc,Buffs,aIndex);

  0008e	8b 55 90	 mov	 edx, DWORD PTR _lpNpc$[ebp]
  00091	57		 push	 edi
  00092	8d 4d 98	 lea	 ecx, DWORD PTR _Buffs$203357[ebp]
  00095	51		 push	 ecx
  00096	52		 push	 edx
  00097	e8 00 00 00 00	 call	 ?ChatTargetSend@@YAXPAUOBJECTSTRUCT@@PADH@Z ; ChatTargetSend
  0009c	83 c4 18	 add	 esp, 24			; 00000018H
$LN19@NPCdialogu:
  0009f	5e		 pop	 esi
  000a0	5f		 pop	 edi
  000a1	5b		 pop	 ebx

; 382  : 	}
; 383  : }

  000a2	8b 4d fc	 mov	 ecx, DWORD PTR __$ArrayPad$[ebp]
  000a5	33 cd		 xor	 ecx, ebp
  000a7	e8 00 00 00 00	 call	 @__security_check_cookie@4
  000ac	8b e5		 mov	 esp, ebp
  000ae	5d		 pop	 ebp
  000af	c2 08 00	 ret	 8
$LN9@NPCdialogu:

; 323  : 		return;
; 324  : 	}
; 325  : 
; 326  : 	int QClass = lpUser->Class+1;

  000b2	0f b7 8e b8 00
	00 00		 movzx	 ecx, WORD PTR [esi+184]

; 327  : 	//    ?
; 328  : 	if(lpUser->BMQuest_num < Count[QClass])

  000b9	8b 96 a8 28 00
	00		 mov	 edx, DWORD PTR [esi+10408]
  000bf	41		 inc	 ecx
  000c0	89 4d 8c	 mov	 DWORD PTR _QClass$[ebp], ecx
  000c3	3b 94 8b 18 db
	1a 00		 cmp	 edx, DWORD PTR [ebx+ecx*4+1760024]
  000ca	0f 8d 9a 01 00
	00		 jge	 $LN8@NPCdialogu

; 329  : 	{
; 330  : 		// ? ??
; 331  : 		if(lpUser->BMQuest_start == 0)

  000d0	8b 86 b0 28 00
	00		 mov	 eax, DWORD PTR [esi+10416]
  000d6	85 c0		 test	 eax, eax
  000d8	75 78		 jne	 SHORT $LN7@NPCdialogu

; 332  : 		{
; 333  : 			ChatTargetSend(lpNpc,"Good luck!",aIndex);

  000da	8b 45 90	 mov	 eax, DWORD PTR _lpNpc$[ebp]
  000dd	57		 push	 edi
  000de	68 00 00 00 00	 push	 OFFSET ??_C@_0L@PMKLANHL@Good?5luck?$CB?$AA@
  000e3	50		 push	 eax
  000e4	e8 00 00 00 00	 call	 ?ChatTargetSend@@YAXPAUOBJECTSTRUCT@@PADH@Z ; ChatTargetSend

; 334  : 			lpUser->BMQuest_start = 1;
; 335  : 			//exQueryUpdate("UPDATE Character SET BMQuest_start = 1 WHERE Name='%s'", NULL->Name);
; 336  : 			MessageChat(aIndex,"@[BMQuest] Mission: %d",lpUser->BMQuest_num+1);

  000e9	8b 8e a8 28 00
	00		 mov	 ecx, DWORD PTR [esi+10408]
  000ef	41		 inc	 ecx
  000f0	51		 push	 ecx
  000f1	68 00 00 00 00	 push	 OFFSET ??_C@_0BH@CHPOIIBF@?$EA?$FLBMQuest?$FN?5Mission?3?5?$CFd?$AA@
  000f6	57		 push	 edi
  000f7	c7 86 b0 28 00
	00 01 00 00 00	 mov	 DWORD PTR [esi+10416], 1
  00101	e8 00 00 00 00	 call	 ?MessageChat@@YAXHPADZZ	; MessageChat

; 337  : 			MessageChat(aIndex,"@[BMQuest] %s",Quest[QClass][lpUser->BMQuest_num].msg);

  00106	8b 45 8c	 mov	 eax, DWORD PTR _QClass$[ebp]
  00109	8b 96 a8 28 00
	00		 mov	 edx, DWORD PTR [esi+10408]
  0010f	69 c0 e8 03 00
	00		 imul	 eax, 1000		; 000003e8H
  00115	03 d0		 add	 edx, eax
  00117	69 d2 dc 00 00
	00		 imul	 edx, 220		; 000000dcH
  0011d	89 45 94	 mov	 DWORD PTR tv328[ebp], eax
  00120	8d 44 1a 14	 lea	 eax, DWORD PTR [edx+ebx+20]
  00124	50		 push	 eax
  00125	68 00 00 00 00	 push	 OFFSET ??_C@_0O@CDMFMOLE@?$EA?$FLBMQuest?$FN?5?$CFs?$AA@
  0012a	57		 push	 edi
  0012b	e8 00 00 00 00	 call	 ?MessageChat@@YAXHPADZZ	; MessageChat

; 338  : 			MessageChat(aIndex,"@[BMQuest] %s [%d/%d]",
; 339  : 				Quest[QClass][lpUser->BMQuest_num].msg2,
; 340  : 				lpUser->BMQuest_kill,
; 341  : 				Quest[QClass][lpUser->BMQuest_num].Coun);

  00130	8b 8e a8 28 00
	00		 mov	 ecx, DWORD PTR [esi+10408]
  00136	03 4d 94	 add	 ecx, DWORD PTR tv328[ebp]
  00139	8b 86 ac 28 00
	00		 mov	 eax, DWORD PTR [esi+10412]
  0013f	69 c9 dc 00 00
	00		 imul	 ecx, 220		; 000000dcH
  00145	8b 54 0b 04	 mov	 edx, DWORD PTR [ebx+ecx+4]
  00149	03 d9		 add	 ebx, ecx
  0014b	52		 push	 edx
  0014c	50		 push	 eax
  0014d	e9 f3 00 00 00	 jmp	 $LN20@NPCdialogu
$LN7@NPCdialogu:

; 342  : 		}
; 343  : 		// ???
; 344  : 		else if(lpUser->BMQuest_start == 1)

  00152	83 f8 01	 cmp	 eax, 1
  00155	0f 85 44 ff ff
	ff		 jne	 $LN19@NPCdialogu

; 345  : 		{
; 346  : 			// ?
; 347  : 			if(lpUser->BMQuest_kill >= Quest[QClass][lpUser->BMQuest_num].Coun)

  0015b	69 c9 e8 03 00
	00		 imul	 ecx, 1000		; 000003e8H
  00161	89 4d 94	 mov	 DWORD PTR tv328[ebp], ecx
  00164	03 ca		 add	 ecx, edx
  00166	8b 96 ac 28 00
	00		 mov	 edx, DWORD PTR [esi+10412]
  0016c	69 c9 dc 00 00
	00		 imul	 ecx, 220		; 000000dcH
  00172	3b 54 19 04	 cmp	 edx, DWORD PTR [ecx+ebx+4]
  00176	7c 6f		 jl	 SHORT $LN4@NPCdialogu

; 348  : 			{
; 349  : 				Presents(aIndex,
; 350  : 					Quest[QClass][lpUser->BMQuest_num].rew,
; 351  : 					Quest[QClass][lpUser->BMQuest_num].gift); // ?

  00178	8b 44 19 10	 mov	 eax, DWORD PTR [ecx+ebx+16]
  0017c	8b 4c 19 0c	 mov	 ecx, DWORD PTR [ecx+ebx+12]
  00180	50		 push	 eax
  00181	51		 push	 ecx
  00182	57		 push	 edi
  00183	8b cb		 mov	 ecx, ebx
  00185	e8 00 00 00 00	 call	 ?Presents@cBMQuest@@QAEXHHH@Z ; cBMQuest::Presents

; 352  : 
; 353  : 				lpUser->BMQuest_start = 0;
; 354  : 				lpUser->BMQuest_num++;
; 355  : 				lpUser->BMQuest_kill = 0;
; 356  : 				ChatTargetSend(lpNpc,"You completed the mission!",aIndex);

  0018a	8b 55 90	 mov	 edx, DWORD PTR _lpNpc$[ebp]
  0018d	ff 86 a8 28 00
	00		 inc	 DWORD PTR [esi+10408]
  00193	57		 push	 edi
  00194	33 c0		 xor	 eax, eax
  00196	68 00 00 00 00	 push	 OFFSET ??_C@_0BL@IDMCJBFF@You?5completed?5the?5mission?$CB?$AA@
  0019b	52		 push	 edx
  0019c	89 86 b0 28 00
	00		 mov	 DWORD PTR [esi+10416], eax
  001a2	89 86 ac 28 00
	00		 mov	 DWORD PTR [esi+10412], eax
  001a8	e8 00 00 00 00	 call	 ?ChatTargetSend@@YAXPAUOBJECTSTRUCT@@PADH@Z ; ChatTargetSend

; 357  : 				//exQueryUpdate("UPDATE Character SET BMQuest_start = 0 WHERE Name='%s'", NULL->Name);
; 358  : 				//exQueryUpdate("UPDATE Character SET BMQuest_num = BMQuest_num + 1 WHERE Name='%s'", NULL->Name);
; 359  : 				//MySQL.Execute("UPDATE Character SET BMQuest_kill = 0 WHERE Name='%s'",NULL->Name);
; 360  : 				if(lpUser->BMQuest_num == Count[QClass])

  001ad	8b 86 a8 28 00
	00		 mov	 eax, DWORD PTR [esi+10408]
  001b3	8b 4d 8c	 mov	 ecx, DWORD PTR _QClass$[ebp]
  001b6	83 c4 0c	 add	 esp, 12			; 0000000cH
  001b9	3b 84 8b 18 db
	1a 00		 cmp	 eax, DWORD PTR [ebx+ecx*4+1760024]
  001c0	0f 85 d9 fe ff
	ff		 jne	 $LN19@NPCdialogu

; 361  : 				{
; 362  : 					MessageChat(aIndex,"@[BMQuest] Finish");

  001c6	68 00 00 00 00	 push	 OFFSET ??_C@_0BC@JOGHABHI@?$EA?$FLBMQuest?$FN?5Finish?$AA@
  001cb	57		 push	 edi
  001cc	e8 00 00 00 00	 call	 ?MessageChat@@YAXHPADZZ	; MessageChat
  001d1	83 c4 08	 add	 esp, 8
  001d4	5e		 pop	 esi
  001d5	5f		 pop	 edi
  001d6	5b		 pop	 ebx

; 382  : 	}
; 383  : }

  001d7	8b 4d fc	 mov	 ecx, DWORD PTR __$ArrayPad$[ebp]
  001da	33 cd		 xor	 ecx, ebp
  001dc	e8 00 00 00 00	 call	 @__security_check_cookie@4
  001e1	8b e5		 mov	 esp, ebp
  001e3	5d		 pop	 ebp
  001e4	c2 08 00	 ret	 8
$LN4@NPCdialogu:

; 363  : 				}
; 364  : 			}
; 365  : 			// ? 
; 366  : 			else
; 367  : 			{
; 368  : 				ChatTargetSend(lpNpc,"Your Mission is not finished!",aIndex);

  001e7	8b 55 90	 mov	 edx, DWORD PTR _lpNpc$[ebp]
  001ea	57		 push	 edi
  001eb	68 00 00 00 00	 push	 OFFSET ??_C@_0BO@ENMKBBNP@Your?5Mission?5is?5not?5finished?$CB?$AA@
  001f0	52		 push	 edx
  001f1	e8 00 00 00 00	 call	 ?ChatTargetSend@@YAXPAUOBJECTSTRUCT@@PADH@Z ; ChatTargetSend

; 369  : 				MessageChat(aIndex,"@[BMQuest] Mission: %d",lpUser->BMQuest_num+1);

  001f6	8b 86 a8 28 00
	00		 mov	 eax, DWORD PTR [esi+10408]
  001fc	40		 inc	 eax
  001fd	50		 push	 eax
  001fe	68 00 00 00 00	 push	 OFFSET ??_C@_0BH@CHPOIIBF@?$EA?$FLBMQuest?$FN?5Mission?3?5?$CFd?$AA@
  00203	57		 push	 edi
  00204	e8 00 00 00 00	 call	 ?MessageChat@@YAXHPADZZ	; MessageChat

; 370  : 				MessageChat(aIndex,"@[BMQuest] %s",Quest[QClass][lpUser->BMQuest_num].msg);

  00209	8b 8e a8 28 00
	00		 mov	 ecx, DWORD PTR [esi+10408]
  0020f	03 4d 94	 add	 ecx, DWORD PTR tv328[ebp]
  00212	69 c9 dc 00 00
	00		 imul	 ecx, 220		; 000000dcH
  00218	8d 54 19 14	 lea	 edx, DWORD PTR [ecx+ebx+20]
  0021c	52		 push	 edx
  0021d	68 00 00 00 00	 push	 OFFSET ??_C@_0O@CDMFMOLE@?$EA?$FLBMQuest?$FN?5?$CFs?$AA@
  00222	57		 push	 edi
  00223	e8 00 00 00 00	 call	 ?MessageChat@@YAXHPADZZ	; MessageChat

; 371  : 				MessageChat(aIndex,"@[BMQuest] %s [%d/%d]",
; 372  : 					Quest[QClass][lpUser->BMQuest_num].msg2,
; 373  : 					lpUser->BMQuest_kill,
; 374  : 					Quest[QClass][lpUser->BMQuest_num].Coun);

  00228	8b 86 a8 28 00
	00		 mov	 eax, DWORD PTR [esi+10408]
  0022e	03 45 94	 add	 eax, DWORD PTR tv328[ebp]
  00231	8b 96 ac 28 00
	00		 mov	 edx, DWORD PTR [esi+10412]
  00237	69 c0 dc 00 00
	00		 imul	 eax, 220		; 000000dcH
  0023d	8b 4c 03 04	 mov	 ecx, DWORD PTR [ebx+eax+4]
  00241	03 d8		 add	 ebx, eax
  00243	51		 push	 ecx
  00244	52		 push	 edx
$LN20@NPCdialogu:
  00245	83 c3 78	 add	 ebx, 120		; 00000078H
  00248	53		 push	 ebx
  00249	68 00 00 00 00	 push	 OFFSET ??_C@_0BG@BJDBHHCA@?$EA?$FLBMQuest?$FN?5?$CFs?5?$FL?$CFd?1?$CFd?$FN?$AA@
  0024e	57		 push	 edi
  0024f	e8 00 00 00 00	 call	 ?MessageChat@@YAXHPADZZ	; MessageChat
  00254	83 c4 38	 add	 esp, 56			; 00000038H
  00257	5e		 pop	 esi
  00258	5f		 pop	 edi
  00259	5b		 pop	 ebx

; 382  : 	}
; 383  : }

  0025a	8b 4d fc	 mov	 ecx, DWORD PTR __$ArrayPad$[ebp]
  0025d	33 cd		 xor	 ecx, ebp
  0025f	e8 00 00 00 00	 call	 @__security_check_cookie@4
  00264	8b e5		 mov	 esp, ebp
  00266	5d		 pop	 ebp
  00267	c2 08 00	 ret	 8
$LN8@NPCdialogu:

; 375  : 			}
; 376  : 		}
; 377  : 	}
; 378  : 	else
; 379  : 	{
; 380  : 		ChatTargetSend(lpNpc,"You have completed all the Mission!",aIndex);

  0026a	57		 push	 edi
  0026b	68 00 00 00 00	 push	 OFFSET ??_C@_0CE@HHODGGLO@You?5have?5completed?5all?5the?5Missi@
  00270	50		 push	 eax
  00271	e8 00 00 00 00	 call	 ?ChatTargetSend@@YAXPAUOBJECTSTRUCT@@PADH@Z ; ChatTargetSend

; 381  : 		MessageChat(aIndex,"@[BMQuest] Finish");

  00276	68 00 00 00 00	 push	 OFFSET ??_C@_0BC@JOGHABHI@?$EA?$FLBMQuest?$FN?5Finish?$AA@
  0027b	57		 push	 edi
  0027c	e8 00 00 00 00	 call	 ?MessageChat@@YAXHPADZZ	; MessageChat
  00281	83 c4 14	 add	 esp, 20			; 00000014H
  00284	5e		 pop	 esi
  00285	5f		 pop	 edi
  00286	5b		 pop	 ebx

; 382  : 	}
; 383  : }

  00287	8b 4d fc	 mov	 ecx, DWORD PTR __$ArrayPad$[ebp]
  0028a	33 cd		 xor	 ecx, ebp
  0028c	e8 00 00 00 00	 call	 @__security_check_cookie@4
  00291	8b e5		 mov	 esp, ebp
  00293	5d		 pop	 ebp
  00294	c2 08 00	 ret	 8
$LN11@NPCdialogu:

; 305  : 	{
; 306  : 		LogAdd("error : %s %d", __FILE__, __LINE__ );

  00297	68 32 01 00 00	 push	 306			; 00000132H
  0029c	68 00 00 00 00	 push	 OFFSET ??_C@_0M@FANINMGL@BMQuest?4cpp?$AA@
  002a1	68 00 00 00 00	 push	 OFFSET ??_C@_0O@CKAEPJAF@error?5?3?5?$CFs?5?$CFd?$AA@
  002a6	ff 15 00 00 00
	00		 call	 DWORD PTR ?LogAdd@@3P6AXPADZZA ; LogAdd

; 382  : 	}
; 383  : }

  002ac	8b 4d fc	 mov	 ecx, DWORD PTR __$ArrayPad$[ebp]
  002af	83 c4 0c	 add	 esp, 12			; 0000000cH
  002b2	5f		 pop	 edi
  002b3	33 cd		 xor	 ecx, ebp
  002b5	5b		 pop	 ebx
  002b6	e8 00 00 00 00	 call	 @__security_check_cookie@4
  002bb	8b e5		 mov	 esp, ebp
  002bd	5d		 pop	 ebp
  002be	c2 08 00	 ret	 8
?NPCdialogue@cBMQuest@@QAEXHH@Z ENDP			; cBMQuest::NPCdialogue
_TEXT	ENDS
PUBLIC	?CheckLevels@cBMQuest@@QAEXH@Z			; cBMQuest::CheckLevels
; Function compile flags: /Ogtp
;	COMDAT ?CheckLevels@cBMQuest@@QAEXH@Z
_TEXT	SEGMENT
_aIndex$ = 8						; size = 4
?CheckLevels@cBMQuest@@QAEXH@Z PROC			; cBMQuest::CheckLevels, COMDAT
; _this$ = ecx

; 537  : 	if(!THINNAKORN_MAC)
; 538  : 	{
; 539  : 		return;
; 540  : 	}
; 541  : 
; 542  : 	if(!OBJMAX_RANGE(aIndex))
; 543  : 	{
; 544  : 		return;
; 545  : 	}
; 546  : 
; 547  : 	LPOBJ lpUser = &gObj[aIndex];
; 548  : 
; 549  : 	for(int i = 0; i < this->m_RandOpt.size(); i++)
; 550  : 	{	
; 551  : 		if(lpUser->Level == this->m_RandOpt[i].NeedLevel && gSystemOfRage.rUser[aIndex].rLevel == this->m_RandOpt[i].NeedRageLevel)
; 552  : 		{
; 553  : 			int iRand = rand()%6;
; 554  : 
; 555  : 			switch(iRand)
; 556  : 			{
; 557  : 			case 0:
; 558  : 				{
; 559  : 					lpUser->BMDamageReflect += this->m_RandOpt[i].AddDamageReflect;
; 560  : 					MessageChat(aIndex, "@[BMQuest] Random option Reflect: +%d", this->m_RandOpt[i].AddDamageReflect);
; 561  : 				}
; 562  : 				break;
; 563  : 			case 1:
; 564  : 				{
; 565  : 					lpUser->BMDamage += this->m_RandOpt[i].AddDamage;
; 566  : 					MessageChat(aIndex, "@[BMQuest] Random option Damage: +%d", this->m_RandOpt[i].AddDamage);
; 567  : 				}
; 568  : 				break;
; 569  : 			case 2:
; 570  : 				{
; 571  : 					lpUser->BMDefense += this->m_RandOpt[i].AddDefense;
; 572  : 					MessageChat(aIndex, "@[BMQuest] Random option Defence: +%d", this->m_RandOpt[i].AddDefense);
; 573  : 				}
; 574  : 				break;
; 575  : 			case 3:
; 576  : 				{
; 577  : 					lpUser->BMCriticalDamage += this->m_RandOpt[i].AddCriticalDamage;
; 578  : 					MessageChat(aIndex, "@[BMQuest] Random option Critical Damage: +%d", this->m_RandOpt[i].AddCriticalDamage);
; 579  : 				}
; 580  : 				break;
; 581  : 			case 4:
; 582  : 				{
; 583  : 					lpUser->BMExcelentDamage += this->m_RandOpt[i].AddExcelentDamage;
; 584  : 					MessageChat(aIndex, "@[BMQuest] Random option Exellent Damage: +%d", this->m_RandOpt[i].AddExcelentDamage);
; 585  : 				}
; 586  : 				break;
; 587  : 			case 5:
; 588  : 				{
; 589  : 					lpUser->BMLife += this->m_RandOpt[i].AddLife;
; 590  : 					MessageChat(aIndex, "@[BMQuest] Random option Life: +%d", this->m_RandOpt[i].AddLife);
; 591  : 				}
; 592  : 				break;
; 593  : 			}
; 594  : 
; 595  : 			gObjCalCharacter(aIndex);
; 596  : 			ZtFireCracker(aIndex, lpUser->X, lpUser->Y);
; 597  : 			return;
; 598  : 		}
; 599  : 	}
; 600  : }

  00000	c2 04 00	 ret	 4
?CheckLevels@cBMQuest@@QAEXH@Z ENDP			; cBMQuest::CheckLevels
_TEXT	ENDS
PUBLIC	??0?$_Vector_val@UBMQuestRandOpt_DATA@@V?$allocator@UBMQuestRandOpt_DATA@@@std@@@std@@QAE@V?$allocator@UBMQuestRandOpt_DATA@@@1@@Z ; std::_Vector_val<BMQuestRandOpt_DATA,std::allocator<BMQuestRandOpt_DATA> >::_Vector_val<BMQuestRandOpt_DATA,std::allocator<BMQuestRandOpt_DATA> >
; Function compile flags: /Ogtp
; File d:\program files (x86)\microsoft visual studio 10.0\vc\include\vector
;	COMDAT ??0?$_Vector_val@UBMQuestRandOpt_DATA@@V?$allocator@UBMQuestRandOpt_DATA@@@std@@@std@@QAE@V?$allocator@UBMQuestRandOpt_DATA@@@1@@Z
_TEXT	SEGMENT
__Al$ = 8						; size = 1
??0?$_Vector_val@UBMQuestRandOpt_DATA@@V?$allocator@UBMQuestRandOpt_DATA@@@std@@@std@@QAE@V?$allocator@UBMQuestRandOpt_DATA@@@1@@Z PROC ; std::_Vector_val<BMQuestRandOpt_DATA,std::allocator<BMQuestRandOpt_DATA> >::_Vector_val<BMQuestRandOpt_DATA,std::allocator<BMQuestRandOpt_DATA> >, COMDAT
; _this$ = ecx

; 426  : 		{	// construct allocator from _Al

  00000	8b c1		 mov	 eax, ecx

; 427  : 		_Myfirst = 0;

  00002	33 c9		 xor	 ecx, ecx
  00004	89 08		 mov	 DWORD PTR [eax], ecx

; 428  : 		_Mylast = 0;

  00006	89 48 04	 mov	 DWORD PTR [eax+4], ecx

; 429  : 		_Myend = 0;

  00009	89 48 08	 mov	 DWORD PTR [eax+8], ecx

; 430  : 		}

  0000c	c2 04 00	 ret	 4
??0?$_Vector_val@UBMQuestRandOpt_DATA@@V?$allocator@UBMQuestRandOpt_DATA@@@std@@@std@@QAE@V?$allocator@UBMQuestRandOpt_DATA@@@1@@Z ENDP ; std::_Vector_val<BMQuestRandOpt_DATA,std::allocator<BMQuestRandOpt_DATA> >::_Vector_val<BMQuestRandOpt_DATA,std::allocator<BMQuestRandOpt_DATA> >
_TEXT	ENDS
PUBLIC	?max_size@?$vector@UBMQuestRandOpt_DATA@@V?$allocator@UBMQuestRandOpt_DATA@@@std@@@std@@QBEIXZ ; std::vector<BMQuestRandOpt_DATA,std::allocator<BMQuestRandOpt_DATA> >::max_size
; Function compile flags: /Ogtp
;	COMDAT ?max_size@?$vector@UBMQuestRandOpt_DATA@@V?$allocator@UBMQuestRandOpt_DATA@@@std@@@std@@QBEIXZ
_TEXT	SEGMENT
?max_size@?$vector@UBMQuestRandOpt_DATA@@V?$allocator@UBMQuestRandOpt_DATA@@@std@@@std@@QBEIXZ PROC ; std::vector<BMQuestRandOpt_DATA,std::allocator<BMQuestRandOpt_DATA> >::max_size, COMDAT
; _this$ = ecx

; 884  : 		return (this->_Alval.max_size());

  00000	b8 ff ff ff 07	 mov	 eax, 134217727		; 07ffffffH

; 885  : 		}

  00005	c3		 ret	 0
?max_size@?$vector@UBMQuestRandOpt_DATA@@V?$allocator@UBMQuestRandOpt_DATA@@@std@@@std@@QBEIXZ ENDP ; std::vector<BMQuestRandOpt_DATA,std::allocator<BMQuestRandOpt_DATA> >::max_size
_TEXT	ENDS
PUBLIC	?_Grow_to@?$vector@UBMQuestRandOpt_DATA@@V?$allocator@UBMQuestRandOpt_DATA@@@std@@@std@@IBEII@Z ; std::vector<BMQuestRandOpt_DATA,std::allocator<BMQuestRandOpt_DATA> >::_Grow_to
; Function compile flags: /Ogtp
;	COMDAT ?_Grow_to@?$vector@UBMQuestRandOpt_DATA@@V?$allocator@UBMQuestRandOpt_DATA@@@std@@@std@@IBEII@Z
_TEXT	SEGMENT
__Count$ = 8						; size = 4
?_Grow_to@?$vector@UBMQuestRandOpt_DATA@@V?$allocator@UBMQuestRandOpt_DATA@@@std@@@std@@IBEII@Z PROC ; std::vector<BMQuestRandOpt_DATA,std::allocator<BMQuestRandOpt_DATA> >::_Grow_to, COMDAT
; _this$ = ecx

; 1274 : 		{	// grow by 50% or at least to _Count

  00000	55		 push	 ebp
  00001	8b ec		 mov	 ebp, esp

; 1275 : 		size_type _Capacity = capacity();

  00003	8b 41 08	 mov	 eax, DWORD PTR [ecx+8]
  00006	2b 01		 sub	 eax, DWORD PTR [ecx]

; 1276 : 
; 1277 : 		_Capacity = max_size() - _Capacity / 2 < _Capacity
; 1278 : 			? 0 : _Capacity + _Capacity / 2;	// try to grow by 50%

  00008	ba ff ff ff 07	 mov	 edx, 134217727		; 07ffffffH
  0000d	c1 f8 05	 sar	 eax, 5
  00010	8b c8		 mov	 ecx, eax
  00012	d1 e9		 shr	 ecx, 1
  00014	2b d1		 sub	 edx, ecx
  00016	3b d0		 cmp	 edx, eax
  00018	73 04		 jae	 SHORT $LN4@Grow_to
  0001a	33 c0		 xor	 eax, eax
  0001c	eb 02		 jmp	 SHORT $LN5@Grow_to
$LN4@Grow_to:
  0001e	03 c1		 add	 eax, ecx
$LN5@Grow_to:

; 1279 : 		if (_Capacity < _Count)

  00020	8b 4d 08	 mov	 ecx, DWORD PTR __Count$[ebp]
  00023	3b c1		 cmp	 eax, ecx
  00025	73 02		 jae	 SHORT $LN1@Grow_to

; 1280 : 			_Capacity = _Count;
; 1281 : 		return (_Capacity);

  00027	8b c1		 mov	 eax, ecx
$LN1@Grow_to:

; 1282 : 		}

  00029	5d		 pop	 ebp
  0002a	c2 04 00	 ret	 4
?_Grow_to@?$vector@UBMQuestRandOpt_DATA@@V?$allocator@UBMQuestRandOpt_DATA@@@std@@@std@@IBEII@Z ENDP ; std::vector<BMQuestRandOpt_DATA,std::allocator<BMQuestRandOpt_DATA> >::_Grow_to
_TEXT	ENDS
PUBLIC	??0?$_Vector_const_iterator@V?$_Vector_val@UBMQuestRandOpt_DATA@@V?$allocator@UBMQuestRandOpt_DATA@@@std@@@std@@@std@@QAE@PAUBMQuestRandOpt_DATA@@PBU_Container_base0@1@@Z ; std::_Vector_const_iterator<std::_Vector_val<BMQuestRandOpt_DATA,std::allocator<BMQuestRandOpt_DATA> > >::_Vector_const_iterator<std::_Vector_val<BMQuestRandOpt_DATA,std::allocator<BMQuestRandOpt_DATA> > >
; Function compile flags: /Ogtp
;	COMDAT ??0?$_Vector_const_iterator@V?$_Vector_val@UBMQuestRandOpt_DATA@@V?$allocator@UBMQuestRandOpt_DATA@@@std@@@std@@@std@@QAE@PAUBMQuestRandOpt_DATA@@PBU_Container_base0@1@@Z
_TEXT	SEGMENT
__Parg$ = 8						; size = 4
__Pvector$ = 12						; size = 4
??0?$_Vector_const_iterator@V?$_Vector_val@UBMQuestRandOpt_DATA@@V?$allocator@UBMQuestRandOpt_DATA@@@std@@@std@@@std@@QAE@PAUBMQuestRandOpt_DATA@@PBU_Container_base0@1@@Z PROC ; std::_Vector_const_iterator<std::_Vector_val<BMQuestRandOpt_DATA,std::allocator<BMQuestRandOpt_DATA> > >::_Vector_const_iterator<std::_Vector_val<BMQuestRandOpt_DATA,std::allocator<BMQuestRandOpt_DATA> > >, COMDAT
; _this$ = ecx

; 45   : 		{	// construct with pointer _Parg

  00000	55		 push	 ebp
  00001	8b ec		 mov	 ebp, esp
  00003	8b c1		 mov	 eax, ecx
  00005	8b 4d 08	 mov	 ecx, DWORD PTR __Parg$[ebp]
  00008	89 08		 mov	 DWORD PTR [eax], ecx

; 46   : 		this->_Adopt(_Pvector);
; 47   : 		}

  0000a	5d		 pop	 ebp
  0000b	c2 08 00	 ret	 8
??0?$_Vector_const_iterator@V?$_Vector_val@UBMQuestRandOpt_DATA@@V?$allocator@UBMQuestRandOpt_DATA@@@std@@@std@@@std@@QAE@PAUBMQuestRandOpt_DATA@@PBU_Container_base0@1@@Z ENDP ; std::_Vector_const_iterator<std::_Vector_val<BMQuestRandOpt_DATA,std::allocator<BMQuestRandOpt_DATA> > >::_Vector_const_iterator<std::_Vector_val<BMQuestRandOpt_DATA,std::allocator<BMQuestRandOpt_DATA> > >
_TEXT	ENDS
PUBLIC	??8?$_Vector_const_iterator@V?$_Vector_val@UBMQuestRandOpt_DATA@@V?$allocator@UBMQuestRandOpt_DATA@@@std@@@std@@@std@@QBE_NABV01@@Z ; std::_Vector_const_iterator<std::_Vector_val<BMQuestRandOpt_DATA,std::allocator<BMQuestRandOpt_DATA> > >::operator==
; Function compile flags: /Ogtp
;	COMDAT ??8?$_Vector_const_iterator@V?$_Vector_val@UBMQuestRandOpt_DATA@@V?$allocator@UBMQuestRandOpt_DATA@@@std@@@std@@@std@@QBE_NABV01@@Z
_TEXT	SEGMENT
__Right$ = 8						; size = 4
??8?$_Vector_const_iterator@V?$_Vector_val@UBMQuestRandOpt_DATA@@V?$allocator@UBMQuestRandOpt_DATA@@@std@@@std@@@std@@QBE_NABV01@@Z PROC ; std::_Vector_const_iterator<std::_Vector_val<BMQuestRandOpt_DATA,std::allocator<BMQuestRandOpt_DATA> > >::operator==, COMDAT
; _this$ = ecx

; 201  : 		{	// test for iterator equality

  00000	55		 push	 ebp
  00001	8b ec		 mov	 ebp, esp

; 202  : 		_Compat(_Right);
; 203  : 		return (this->_Ptr == _Right._Ptr);

  00003	8b 01		 mov	 eax, DWORD PTR [ecx]
  00005	8b 55 08	 mov	 edx, DWORD PTR __Right$[ebp]
  00008	33 c9		 xor	 ecx, ecx
  0000a	3b 02		 cmp	 eax, DWORD PTR [edx]
  0000c	0f 94 c0	 sete	 al

; 204  : 		}

  0000f	5d		 pop	 ebp
  00010	c2 04 00	 ret	 4
??8?$_Vector_const_iterator@V?$_Vector_val@UBMQuestRandOpt_DATA@@V?$allocator@UBMQuestRandOpt_DATA@@@std@@@std@@@std@@QBE_NABV01@@Z ENDP ; std::_Vector_const_iterator<std::_Vector_val<BMQuestRandOpt_DATA,std::allocator<BMQuestRandOpt_DATA> > >::operator==
_TEXT	ENDS
PUBLIC	??$_Cons_val@V?$allocator@UBMQuestRandOpt_DATA@@@std@@UBMQuestRandOpt_DATA@@AAU3@@std@@YAXAAV?$allocator@UBMQuestRandOpt_DATA@@@0@PAUBMQuestRandOpt_DATA@@AAU2@@Z ; std::_Cons_val<std::allocator<BMQuestRandOpt_DATA>,BMQuestRandOpt_DATA,BMQuestRandOpt_DATA &>
; Function compile flags: /Ogtp
; File d:\program files (x86)\microsoft visual studio 10.0\vc\include\xmemory
;	COMDAT ??$_Cons_val@V?$allocator@UBMQuestRandOpt_DATA@@@std@@UBMQuestRandOpt_DATA@@AAU3@@std@@YAXAAV?$allocator@UBMQuestRandOpt_DATA@@@0@PAUBMQuestRandOpt_DATA@@AAU2@@Z
_TEXT	SEGMENT
__Alval$ = 8						; size = 4
__Pdest$ = 12						; size = 4
__Src$ = 16						; size = 4
??$_Cons_val@V?$allocator@UBMQuestRandOpt_DATA@@@std@@UBMQuestRandOpt_DATA@@AAU3@@std@@YAXAAV?$allocator@UBMQuestRandOpt_DATA@@@0@PAUBMQuestRandOpt_DATA@@AAU2@@Z PROC ; std::_Cons_val<std::allocator<BMQuestRandOpt_DATA>,BMQuestRandOpt_DATA,BMQuestRandOpt_DATA &>, COMDAT

; 279  : 	{	// construct using allocator

  00000	55		 push	 ebp
  00001	8b ec		 mov	 ebp, esp
  00003	57		 push	 edi

; 280  : 	_Alval.construct(_Pdest, _STD forward<_Ty2>(_Src));

  00004	8b 7d 0c	 mov	 edi, DWORD PTR __Pdest$[ebp]
  00007	85 ff		 test	 edi, edi
  00009	74 0c		 je	 SHORT $LN7@Cons_val
  0000b	56		 push	 esi
  0000c	8b 75 10	 mov	 esi, DWORD PTR __Src$[ebp]
  0000f	b9 08 00 00 00	 mov	 ecx, 8
  00014	f3 a5		 rep movsd
  00016	5e		 pop	 esi
$LN7@Cons_val:
  00017	5f		 pop	 edi

; 281  : 	}

  00018	5d		 pop	 ebp
  00019	c3		 ret	 0
??$_Cons_val@V?$allocator@UBMQuestRandOpt_DATA@@@std@@UBMQuestRandOpt_DATA@@AAU3@@std@@YAXAAV?$allocator@UBMQuestRandOpt_DATA@@@0@PAUBMQuestRandOpt_DATA@@AAU2@@Z ENDP ; std::_Cons_val<std::allocator<BMQuestRandOpt_DATA>,BMQuestRandOpt_DATA,BMQuestRandOpt_DATA &>
_TEXT	ENDS
PUBLIC	__TI2?AVbad_alloc@std@@
PUBLIC	??$_Allocate@UBMQuestRandOpt_DATA@@@std@@YAPAUBMQuestRandOpt_DATA@@IPAU1@@Z ; std::_Allocate<BMQuestRandOpt_DATA>
PUBLIC	__CTA2?AVbad_alloc@std@@
PUBLIC	__CT??_R0?AVbad_alloc@std@@@8??0bad_alloc@std@@QAE@ABV01@@Z12
PUBLIC	??0bad_alloc@std@@QAE@ABV01@@Z			; std::bad_alloc::bad_alloc
PUBLIC	__CT??_R0?AVexception@std@@@8??0exception@std@@QAE@ABV01@@Z12
EXTRN	??2@YAPAXI@Z:PROC				; operator new
EXTRN	__CxxThrowException@8:PROC
EXTRN	??0exception@std@@QAE@ABV01@@Z:PROC		; std::exception::exception
;	COMDAT __CT??_R0?AVexception@std@@@8??0exception@std@@QAE@ABV01@@Z12
; File d:\program files (x86)\microsoft visual studio 10.0\vc\include\exception
xdata$x	SEGMENT
__CT??_R0?AVexception@std@@@8??0exception@std@@QAE@ABV01@@Z12 DD 00H
	DD	FLAT:??_R0?AVexception@std@@@8
	DD	00H
	DD	0ffffffffH
	ORG $+4
	DD	0cH
	DD	FLAT:??0exception@std@@QAE@ABV01@@Z
xdata$x	ENDS
;	COMDAT __CT??_R0?AVbad_alloc@std@@@8??0bad_alloc@std@@QAE@ABV01@@Z12
xdata$x	SEGMENT
__CT??_R0?AVbad_alloc@std@@@8??0bad_alloc@std@@QAE@ABV01@@Z12 DD 00H
	DD	FLAT:??_R0?AVbad_alloc@std@@@8
	DD	00H
	DD	0ffffffffH
	ORG $+4
	DD	0cH
	DD	FLAT:??0bad_alloc@std@@QAE@ABV01@@Z
xdata$x	ENDS
;	COMDAT __CTA2?AVbad_alloc@std@@
xdata$x	SEGMENT
__CTA2?AVbad_alloc@std@@ DD 02H
	DD	FLAT:__CT??_R0?AVbad_alloc@std@@@8??0bad_alloc@std@@QAE@ABV01@@Z12
	DD	FLAT:__CT??_R0?AVexception@std@@@8??0exception@std@@QAE@ABV01@@Z12
xdata$x	ENDS
;	COMDAT __TI2?AVbad_alloc@std@@
xdata$x	SEGMENT
__TI2?AVbad_alloc@std@@ DD 00H
	DD	FLAT:??1bad_alloc@std@@UAE@XZ
	DD	00H
	DD	FLAT:__CTA2?AVbad_alloc@std@@
; Function compile flags: /Ogtp
; File d:\program files (x86)\microsoft visual studio 10.0\vc\include\xmemory
xdata$x	ENDS
;	COMDAT ??$_Allocate@UBMQuestRandOpt_DATA@@@std@@YAPAUBMQuestRandOpt_DATA@@IPAU1@@Z
_TEXT	SEGMENT
$T204731 = -12						; size = 12
$T204736 = 8						; size = 4
__Count$ = 8						; size = 4
___formal$ = 12						; size = 4
??$_Allocate@UBMQuestRandOpt_DATA@@@std@@YAPAUBMQuestRandOpt_DATA@@IPAU1@@Z PROC ; std::_Allocate<BMQuestRandOpt_DATA>, COMDAT

; 30   : 	{	// allocate storage for _Count elements of type _Ty

  00000	55		 push	 ebp
  00001	8b ec		 mov	 ebp, esp

; 31   : 	void *_Ptr = 0;
; 32   : 
; 33   : 	if (_Count <= 0)

  00003	8b 4d 08	 mov	 ecx, DWORD PTR __Count$[ebp]
  00006	83 ec 0c	 sub	 esp, 12			; 0000000cH
  00009	33 c0		 xor	 eax, eax
  0000b	85 c9		 test	 ecx, ecx

; 34   : 		_Count = 0;
; 35   : 	else if (((_SIZT)(-1) / sizeof (_Ty) < _Count)

  0000d	74 40		 je	 SHORT $LN5@Allocate

; 36   : 		|| (_Ptr = ::operator new(_Count * sizeof (_Ty))) == 0)

  0000f	81 f9 ff ff ff
	07		 cmp	 ecx, 134217727		; 07ffffffH
  00015	77 10		 ja	 SHORT $LN1@Allocate
  00017	c1 e1 05	 shl	 ecx, 5
  0001a	51		 push	 ecx
  0001b	e8 00 00 00 00	 call	 ??2@YAPAXI@Z		; operator new
  00020	83 c4 04	 add	 esp, 4
  00023	85 c0		 test	 eax, eax

; 38   : 
; 39   : 	return ((_Ty _FARQ *)_Ptr);

  00025	75 28		 jne	 SHORT $LN5@Allocate
$LN1@Allocate:

; 37   : 		_THROW_NCEE(bad_alloc, 0);

  00027	8d 45 08	 lea	 eax, DWORD PTR $T204736[ebp]
  0002a	50		 push	 eax
  0002b	8d 4d f4	 lea	 ecx, DWORD PTR $T204731[ebp]
  0002e	c7 45 08 00 00
	00 00		 mov	 DWORD PTR $T204736[ebp], 0
  00035	e8 00 00 00 00	 call	 ??0exception@std@@QAE@ABQBD@Z ; std::exception::exception
  0003a	68 00 00 00 00	 push	 OFFSET __TI2?AVbad_alloc@std@@
  0003f	8d 4d f4	 lea	 ecx, DWORD PTR $T204731[ebp]
  00042	51		 push	 ecx
  00043	c7 45 f4 00 00
	00 00		 mov	 DWORD PTR $T204731[ebp], OFFSET ??_7bad_alloc@std@@6B@
  0004a	e8 00 00 00 00	 call	 __CxxThrowException@8
$LN10@Allocate:
$LN5@Allocate:

; 40   : 	}

  0004f	8b e5		 mov	 esp, ebp
  00051	5d		 pop	 ebp
  00052	c3		 ret	 0
$LN9@Allocate:
??$_Allocate@UBMQuestRandOpt_DATA@@@std@@YAPAUBMQuestRandOpt_DATA@@IPAU1@@Z ENDP ; std::_Allocate<BMQuestRandOpt_DATA>
; Function compile flags: /Ogtp
_TEXT	ENDS
;	COMDAT ??0bad_alloc@std@@QAE@ABV01@@Z
_TEXT	SEGMENT
___that$ = 8						; size = 4
??0bad_alloc@std@@QAE@ABV01@@Z PROC			; std::bad_alloc::bad_alloc, COMDAT
; _this$ = ecx
  00000	55		 push	 ebp
  00001	8b ec		 mov	 ebp, esp
  00003	8b 45 08	 mov	 eax, DWORD PTR ___that$[ebp]
  00006	56		 push	 esi
  00007	50		 push	 eax
  00008	8b f1		 mov	 esi, ecx
  0000a	e8 00 00 00 00	 call	 ??0exception@std@@QAE@ABV01@@Z ; std::exception::exception
  0000f	c7 06 00 00 00
	00		 mov	 DWORD PTR [esi], OFFSET ??_7bad_alloc@std@@6B@
  00015	8b c6		 mov	 eax, esi
  00017	5e		 pop	 esi
  00018	5d		 pop	 ebp
  00019	c2 04 00	 ret	 4
??0bad_alloc@std@@QAE@ABV01@@Z ENDP			; std::bad_alloc::bad_alloc
_TEXT	ENDS
PUBLIC	?construct@?$allocator@UBMQuestRandOpt_DATA@@@std@@QAEXPAUBMQuestRandOpt_DATA@@ABU3@@Z ; std::allocator<BMQuestRandOpt_DATA>::construct
; Function compile flags: /Ogtp
;	COMDAT ?construct@?$allocator@UBMQuestRandOpt_DATA@@@std@@QAEXPAUBMQuestRandOpt_DATA@@ABU3@@Z
_TEXT	SEGMENT
__Ptr$ = 8						; size = 4
__Val$ = 12						; size = 4
?construct@?$allocator@UBMQuestRandOpt_DATA@@@std@@QAEXPAUBMQuestRandOpt_DATA@@ABU3@@Z PROC ; std::allocator<BMQuestRandOpt_DATA>::construct, COMDAT
; _this$ = ecx

; 196  : 		{	// construct object at _Ptr with value _Val

  00000	55		 push	 ebp
  00001	8b ec		 mov	 ebp, esp
  00003	57		 push	 edi

; 197  : 		_Construct(_Ptr, _Val);

  00004	8b 7d 08	 mov	 edi, DWORD PTR __Ptr$[ebp]
  00007	85 ff		 test	 edi, edi
  00009	74 0c		 je	 SHORT $LN5@construct@2
  0000b	56		 push	 esi
  0000c	8b 75 0c	 mov	 esi, DWORD PTR __Val$[ebp]
  0000f	b9 08 00 00 00	 mov	 ecx, 8
  00014	f3 a5		 rep movsd
  00016	5e		 pop	 esi
$LN5@construct@2:
  00017	5f		 pop	 edi

; 198  : 		}

  00018	5d		 pop	 ebp
  00019	c2 08 00	 ret	 8
?construct@?$allocator@UBMQuestRandOpt_DATA@@@std@@QAEXPAUBMQuestRandOpt_DATA@@ABU3@@Z ENDP ; std::allocator<BMQuestRandOpt_DATA>::construct
_TEXT	ENDS
PUBLIC	??$_Move@PAUBMQuestRandOpt_DATA@@PAU1@@std@@YAPAUBMQuestRandOpt_DATA@@PAU1@00U_Nonscalar_ptr_iterator_tag@0@@Z ; std::_Move<BMQuestRandOpt_DATA *,BMQuestRandOpt_DATA *>
; Function compile flags: /Ogtp
; File d:\program files (x86)\microsoft visual studio 10.0\vc\include\xutility
;	COMDAT ??$_Move@PAUBMQuestRandOpt_DATA@@PAU1@@std@@YAPAUBMQuestRandOpt_DATA@@PAU1@00U_Nonscalar_ptr_iterator_tag@0@@Z
_TEXT	SEGMENT
__First$ = 8						; size = 4
__Last$ = 12						; size = 4
__Dest$ = 16						; size = 4
___formal$ = 20						; size = 1
??$_Move@PAUBMQuestRandOpt_DATA@@PAU1@@std@@YAPAUBMQuestRandOpt_DATA@@PAU1@00U_Nonscalar_ptr_iterator_tag@0@@Z PROC ; std::_Move<BMQuestRandOpt_DATA *,BMQuestRandOpt_DATA *>, COMDAT

; 2512 : 	{	// move [_First, _Last) to [_Dest, ...), arbitrary iterators

  00000	55		 push	 ebp
  00001	8b ec		 mov	 ebp, esp

; 2513 : 	for (; _First != _Last; ++_Dest, ++_First)

  00003	8b 55 08	 mov	 edx, DWORD PTR __First$[ebp]
  00006	8b 45 10	 mov	 eax, DWORD PTR __Dest$[ebp]
  00009	53		 push	 ebx
  0000a	8b 5d 0c	 mov	 ebx, DWORD PTR __Last$[ebp]
  0000d	3b d3		 cmp	 edx, ebx
  0000f	74 19		 je	 SHORT $LN1@Move
  00011	56		 push	 esi
  00012	57		 push	 edi
$LL3@Move:

; 2514 : 		*_Dest = _STD move(*_First);

  00013	8b f2		 mov	 esi, edx
  00015	8b f8		 mov	 edi, eax
  00017	83 c2 20	 add	 edx, 32			; 00000020H
  0001a	b9 08 00 00 00	 mov	 ecx, 8
  0001f	83 c0 20	 add	 eax, 32			; 00000020H
  00022	f3 a5		 rep movsd
  00024	3b d3		 cmp	 edx, ebx
  00026	75 eb		 jne	 SHORT $LL3@Move
  00028	5f		 pop	 edi
  00029	5e		 pop	 esi
$LN1@Move:
  0002a	5b		 pop	 ebx

; 2515 : 	return (_Dest);
; 2516 : 	}

  0002b	5d		 pop	 ebp
  0002c	c3		 ret	 0
??$_Move@PAUBMQuestRandOpt_DATA@@PAU1@@std@@YAPAUBMQuestRandOpt_DATA@@PAU1@00U_Nonscalar_ptr_iterator_tag@0@@Z ENDP ; std::_Move<BMQuestRandOpt_DATA *,BMQuestRandOpt_DATA *>
_TEXT	ENDS
PUBLIC	?destroy@?$allocator@UBMQuestRandOpt_DATA@@@std@@QAEXPAUBMQuestRandOpt_DATA@@@Z ; std::allocator<BMQuestRandOpt_DATA>::destroy
; Function compile flags: /Ogtp
; File d:\program files (x86)\microsoft visual studio 10.0\vc\include\xmemory
;	COMDAT ?destroy@?$allocator@UBMQuestRandOpt_DATA@@@std@@QAEXPAUBMQuestRandOpt_DATA@@@Z
_TEXT	SEGMENT
__Ptr$ = 8						; size = 4
?destroy@?$allocator@UBMQuestRandOpt_DATA@@@std@@QAEXPAUBMQuestRandOpt_DATA@@@Z PROC ; std::allocator<BMQuestRandOpt_DATA>::destroy, COMDAT
; _this$ = ecx

; 213  : 		_Destroy(_Ptr);
; 214  : 		}

  00000	c2 04 00	 ret	 4
?destroy@?$allocator@UBMQuestRandOpt_DATA@@@std@@QAEXPAUBMQuestRandOpt_DATA@@@Z ENDP ; std::allocator<BMQuestRandOpt_DATA>::destroy
_TEXT	ENDS
PUBLIC	?construct@?$allocator@UBMQuestRandOpt_DATA@@@std@@QAEXPAUBMQuestRandOpt_DATA@@$$QAU3@@Z ; std::allocator<BMQuestRandOpt_DATA>::construct
; Function compile flags: /Ogtp
;	COMDAT ?construct@?$allocator@UBMQuestRandOpt_DATA@@@std@@QAEXPAUBMQuestRandOpt_DATA@@$$QAU3@@Z
_TEXT	SEGMENT
__Ptr$ = 8						; size = 4
__Val$ = 12						; size = 4
?construct@?$allocator@UBMQuestRandOpt_DATA@@@std@@QAEXPAUBMQuestRandOpt_DATA@@$$QAU3@@Z PROC ; std::allocator<BMQuestRandOpt_DATA>::construct, COMDAT
; _this$ = ecx

; 201  : 		{	// construct object at _Ptr with value _Val

  00000	55		 push	 ebp
  00001	8b ec		 mov	 ebp, esp
  00003	57		 push	 edi

; 202  : 		::new ((void _FARQ *)_Ptr) _Ty(_STD forward<_Ty>(_Val));

  00004	8b 7d 08	 mov	 edi, DWORD PTR __Ptr$[ebp]
  00007	85 ff		 test	 edi, edi
  00009	74 0c		 je	 SHORT $LN3@construct@3
  0000b	56		 push	 esi
  0000c	8b 75 0c	 mov	 esi, DWORD PTR __Val$[ebp]
  0000f	b9 08 00 00 00	 mov	 ecx, 8
  00014	f3 a5		 rep movsd
  00016	5e		 pop	 esi
$LN3@construct@3:
  00017	5f		 pop	 edi

; 203  : 		}

  00018	5d		 pop	 ebp
  00019	c2 08 00	 ret	 8
?construct@?$allocator@UBMQuestRandOpt_DATA@@@std@@QAEXPAUBMQuestRandOpt_DATA@@$$QAU3@@Z ENDP ; std::allocator<BMQuestRandOpt_DATA>::construct
_TEXT	ENDS
PUBLIC	?NPCClick@cBMQuest@@QAE_NHH@Z			; cBMQuest::NPCClick
EXTRN	?gObjIsConnectedZt@@YA_NH@Z:PROC		; gObjIsConnectedZt
; Function compile flags: /Ogtp
; File e:\work\tranet_version\gs\gameserver\bmquest.cpp
;	COMDAT ?NPCClick@cBMQuest@@QAE_NHH@Z
_TEXT	SEGMENT
_aIndex$ = 8						; size = 4
_aNPC$ = 12						; size = 4
?NPCClick@cBMQuest@@QAE_NHH@Z PROC			; cBMQuest::NPCClick, COMDAT
; _this$ = ecx

; 270  : {

  00000	55		 push	 ebp
  00001	8b ec		 mov	 ebp, esp
  00003	56		 push	 esi
  00004	8b f1		 mov	 esi, ecx

; 271  : 	if(!this->Enable)

  00006	83 be 00 db 1a
	00 00		 cmp	 DWORD PTR [esi+1760000], 0
  0000d	75 07		 jne	 SHORT $LN5@NPCClick

; 272  : 	{
; 273  :  		return false;

  0000f	32 c0		 xor	 al, al
  00011	5e		 pop	 esi

; 297  : 	}
; 298  : 
; 299  : 	return false;
; 300  : }

  00012	5d		 pop	 ebp
  00013	c2 08 00	 ret	 8
$LN5@NPCClick:
  00016	53		 push	 ebx

; 274  : 	}
; 275  : 
; 276  : 	if ( OBJMAX_RANGE(aIndex) == FALSE || OBJMAX_RANGE(aNPC) == FALSE )

  00017	8b 5d 08	 mov	 ebx, DWORD PTR _aIndex$[ebp]
  0001a	57		 push	 edi
  0001b	85 db		 test	 ebx, ebx
  0001d	0f 88 8e 00 00
	00		 js	 $LN3@NPCClick
  00023	33 c0		 xor	 eax, eax
  00025	81 fb 97 3a 00
	00		 cmp	 ebx, 14999		; 00003a97H
  0002b	0f 9e c0	 setle	 al
  0002e	85 c0		 test	 eax, eax
  00030	74 7f		 je	 SHORT $LN3@NPCClick
  00032	8b 7d 0c	 mov	 edi, DWORD PTR _aNPC$[ebp]
  00035	85 ff		 test	 edi, edi
  00037	78 78		 js	 SHORT $LN3@NPCClick
  00039	33 c0		 xor	 eax, eax
  0003b	81 ff 97 3a 00
	00		 cmp	 edi, 14999		; 00003a97H
  00041	0f 9e c0	 setle	 al
  00044	85 c0		 test	 eax, eax
  00046	74 69		 je	 SHORT $LN3@NPCClick

; 280  : 	}
; 281  : 
; 282  : 	if(!gObjIsConnectedZt(aIndex))

  00048	53		 push	 ebx
  00049	e8 00 00 00 00	 call	 ?gObjIsConnectedZt@@YA_NH@Z ; gObjIsConnectedZt
  0004e	83 c4 04	 add	 esp, 4
  00051	84 c0		 test	 al, al

; 283  : 	{
; 284  : 		return false;

  00053	74 74		 je	 SHORT $LN14@NPCClick

; 285  : 	}
; 286  : 
; 287  : 	LPOBJ lpUser = &gObj[aIndex];
; 288  : 	LPOBJ lpNpc = &gObj[aNPC];

  00055	8b c7		 mov	 eax, edi
  00057	69 c0 50 2b 00
	00		 imul	 eax, 11088		; 00002b50H
  0005d	03 05 00 00 00
	00		 add	 eax, DWORD PTR ?gObj@@3PAUOBJECTSTRUCT@@A ; gObj

; 289  : 
; 290  : 	if(		lpNpc->Class		== this->NPC 
; 291  : 		&&	lpNpc->MapNumber	== this->NPC_Map
; 292  : 		&&	lpNpc->X			== this->NPC_X
; 293  : 		&&	lpNpc->Y			== this->NPC_Y )

  00063	0f b7 88 b8 00
	00 00		 movzx	 ecx, WORD PTR [eax+184]
  0006a	3b 8e 04 db 1a
	00		 cmp	 ecx, DWORD PTR [esi+1760004]
  00070	75 57		 jne	 SHORT $LN14@NPCClick
  00072	0f b6 90 49 01
	00 00		 movzx	 edx, BYTE PTR [eax+329]
  00079	3b 96 08 db 1a
	00		 cmp	 edx, DWORD PTR [esi+1760008]
  0007f	75 48		 jne	 SHORT $LN14@NPCClick
  00081	0f bf 88 44 01
	00 00		 movsx	 ecx, WORD PTR [eax+324]
  00088	3b 8e 0c db 1a
	00		 cmp	 ecx, DWORD PTR [esi+1760012]
  0008e	75 39		 jne	 SHORT $LN14@NPCClick
  00090	0f bf 90 46 01
	00 00		 movsx	 edx, WORD PTR [eax+326]
  00097	3b 96 10 db 1a
	00		 cmp	 edx, DWORD PTR [esi+1760016]
  0009d	75 2a		 jne	 SHORT $LN14@NPCClick

; 294  : 	{
; 295  : 		NPCdialogue(aIndex,aNPC);

  0009f	57		 push	 edi
  000a0	53		 push	 ebx
  000a1	8b ce		 mov	 ecx, esi
  000a3	e8 00 00 00 00	 call	 ?NPCdialogue@cBMQuest@@QAEXHH@Z ; cBMQuest::NPCdialogue
  000a8	5f		 pop	 edi
  000a9	5b		 pop	 ebx

; 296  : 		return true;

  000aa	b0 01		 mov	 al, 1
  000ac	5e		 pop	 esi

; 297  : 	}
; 298  : 
; 299  : 	return false;
; 300  : }

  000ad	5d		 pop	 ebp
  000ae	c2 08 00	 ret	 8
$LN3@NPCClick:

; 277  : 	{
; 278  : 		LogAdd("error : %s %d", __FILE__, __LINE__ );

  000b1	68 16 01 00 00	 push	 278			; 00000116H
  000b6	68 00 00 00 00	 push	 OFFSET ??_C@_0M@FANINMGL@BMQuest?4cpp?$AA@
  000bb	68 00 00 00 00	 push	 OFFSET ??_C@_0O@CKAEPJAF@error?5?3?5?$CFs?5?$CFd?$AA@
  000c0	ff 15 00 00 00
	00		 call	 DWORD PTR ?LogAdd@@3P6AXPADZZA ; LogAdd
  000c6	83 c4 0c	 add	 esp, 12			; 0000000cH
$LN14@NPCClick:

; 279  : 		return false;

  000c9	5f		 pop	 edi
  000ca	5b		 pop	 ebx
  000cb	32 c0		 xor	 al, al
  000cd	5e		 pop	 esi

; 297  : 	}
; 298  : 
; 299  : 	return false;
; 300  : }

  000ce	5d		 pop	 ebp
  000cf	c2 08 00	 ret	 8
?NPCClick@cBMQuest@@QAE_NHH@Z ENDP			; cBMQuest::NPCClick
_TEXT	ENDS
PUBLIC	??0?$vector@UBMQuestRandOpt_DATA@@V?$allocator@UBMQuestRandOpt_DATA@@@std@@@std@@QAE@XZ ; std::vector<BMQuestRandOpt_DATA,std::allocator<BMQuestRandOpt_DATA> >::vector<BMQuestRandOpt_DATA,std::allocator<BMQuestRandOpt_DATA> >
; Function compile flags: /Ogtp
; File d:\program files (x86)\microsoft visual studio 10.0\vc\include\vector
;	COMDAT ??0?$vector@UBMQuestRandOpt_DATA@@V?$allocator@UBMQuestRandOpt_DATA@@@std@@@std@@QAE@XZ
_TEXT	SEGMENT
??0?$vector@UBMQuestRandOpt_DATA@@V?$allocator@UBMQuestRandOpt_DATA@@@std@@@std@@QAE@XZ PROC ; std::vector<BMQuestRandOpt_DATA,std::allocator<BMQuestRandOpt_DATA> >::vector<BMQuestRandOpt_DATA,std::allocator<BMQuestRandOpt_DATA> >, COMDAT
; _this$ = ecx

; 507  : 		{	// construct empty vector

  00000	8b c1		 mov	 eax, ecx
  00002	33 c9		 xor	 ecx, ecx
  00004	89 08		 mov	 DWORD PTR [eax], ecx
  00006	89 48 04	 mov	 DWORD PTR [eax+4], ecx
  00009	89 48 08	 mov	 DWORD PTR [eax+8], ecx

; 508  : 		}

  0000c	c3		 ret	 0
??0?$vector@UBMQuestRandOpt_DATA@@V?$allocator@UBMQuestRandOpt_DATA@@@std@@@std@@QAE@XZ ENDP ; std::vector<BMQuestRandOpt_DATA,std::allocator<BMQuestRandOpt_DATA> >::vector<BMQuestRandOpt_DATA,std::allocator<BMQuestRandOpt_DATA> >
_TEXT	ENDS
PUBLIC	??0?$_Vector_iterator@V?$_Vector_val@UBMQuestRandOpt_DATA@@V?$allocator@UBMQuestRandOpt_DATA@@@std@@@std@@@std@@QAE@PAUBMQuestRandOpt_DATA@@PBU_Container_base0@1@@Z ; std::_Vector_iterator<std::_Vector_val<BMQuestRandOpt_DATA,std::allocator<BMQuestRandOpt_DATA> > >::_Vector_iterator<std::_Vector_val<BMQuestRandOpt_DATA,std::allocator<BMQuestRandOpt_DATA> > >
; Function compile flags: /Ogtp
;	COMDAT ??0?$_Vector_iterator@V?$_Vector_val@UBMQuestRandOpt_DATA@@V?$allocator@UBMQuestRandOpt_DATA@@@std@@@std@@@std@@QAE@PAUBMQuestRandOpt_DATA@@PBU_Container_base0@1@@Z
_TEXT	SEGMENT
__Parg$ = 8						; size = 4
__Pvector$ = 12						; size = 4
??0?$_Vector_iterator@V?$_Vector_val@UBMQuestRandOpt_DATA@@V?$allocator@UBMQuestRandOpt_DATA@@@std@@@std@@@std@@QAE@PAUBMQuestRandOpt_DATA@@PBU_Container_base0@1@@Z PROC ; std::_Vector_iterator<std::_Vector_val<BMQuestRandOpt_DATA,std::allocator<BMQuestRandOpt_DATA> > >::_Vector_iterator<std::_Vector_val<BMQuestRandOpt_DATA,std::allocator<BMQuestRandOpt_DATA> > >, COMDAT
; _this$ = ecx

; 304  : 		{	// construct with pointer _Parg

  00000	55		 push	 ebp
  00001	8b ec		 mov	 ebp, esp
  00003	8b c1		 mov	 eax, ecx
  00005	8b 4d 08	 mov	 ecx, DWORD PTR __Parg$[ebp]
  00008	89 08		 mov	 DWORD PTR [eax], ecx

; 305  : 		}

  0000a	5d		 pop	 ebp
  0000b	c2 08 00	 ret	 8
??0?$_Vector_iterator@V?$_Vector_val@UBMQuestRandOpt_DATA@@V?$allocator@UBMQuestRandOpt_DATA@@@std@@@std@@@std@@QAE@PAUBMQuestRandOpt_DATA@@PBU_Container_base0@1@@Z ENDP ; std::_Vector_iterator<std::_Vector_val<BMQuestRandOpt_DATA,std::allocator<BMQuestRandOpt_DATA> > >::_Vector_iterator<std::_Vector_val<BMQuestRandOpt_DATA,std::allocator<BMQuestRandOpt_DATA> > >
_TEXT	ENDS
PUBLIC	??9?$_Vector_const_iterator@V?$_Vector_val@UBMQuestRandOpt_DATA@@V?$allocator@UBMQuestRandOpt_DATA@@@std@@@std@@@std@@QBE_NABV01@@Z ; std::_Vector_const_iterator<std::_Vector_val<BMQuestRandOpt_DATA,std::allocator<BMQuestRandOpt_DATA> > >::operator!=
; Function compile flags: /Ogtp
;	COMDAT ??9?$_Vector_const_iterator@V?$_Vector_val@UBMQuestRandOpt_DATA@@V?$allocator@UBMQuestRandOpt_DATA@@@std@@@std@@@std@@QBE_NABV01@@Z
_TEXT	SEGMENT
__Right$ = 8						; size = 4
??9?$_Vector_const_iterator@V?$_Vector_val@UBMQuestRandOpt_DATA@@V?$allocator@UBMQuestRandOpt_DATA@@@std@@@std@@@std@@QBE_NABV01@@Z PROC ; std::_Vector_const_iterator<std::_Vector_val<BMQuestRandOpt_DATA,std::allocator<BMQuestRandOpt_DATA> > >::operator!=, COMDAT
; _this$ = ecx

; 207  : 		{	// test for iterator inequality

  00000	55		 push	 ebp
  00001	8b ec		 mov	 ebp, esp

; 208  : 		return (!(*this == _Right));

  00003	8b 01		 mov	 eax, DWORD PTR [ecx]
  00005	8b 55 08	 mov	 edx, DWORD PTR __Right$[ebp]
  00008	33 c9		 xor	 ecx, ecx
  0000a	3b 02		 cmp	 eax, DWORD PTR [edx]
  0000c	0f 95 c0	 setne	 al

; 209  : 		}

  0000f	5d		 pop	 ebp
  00010	c2 04 00	 ret	 4
??9?$_Vector_const_iterator@V?$_Vector_val@UBMQuestRandOpt_DATA@@V?$allocator@UBMQuestRandOpt_DATA@@@std@@@std@@@std@@QBE_NABV01@@Z ENDP ; std::_Vector_const_iterator<std::_Vector_val<BMQuestRandOpt_DATA,std::allocator<BMQuestRandOpt_DATA> > >::operator!=
_TEXT	ENDS
PUBLIC	?allocate@?$allocator@UBMQuestRandOpt_DATA@@@std@@QAEPAUBMQuestRandOpt_DATA@@I@Z ; std::allocator<BMQuestRandOpt_DATA>::allocate
; Function compile flags: /Ogtp
; File d:\program files (x86)\microsoft visual studio 10.0\vc\include\xmemory
;	COMDAT ?allocate@?$allocator@UBMQuestRandOpt_DATA@@@std@@QAEPAUBMQuestRandOpt_DATA@@I@Z
_TEXT	SEGMENT
$T204848 = -12						; size = 12
$T204846 = 8						; size = 4
__Count$ = 8						; size = 4
?allocate@?$allocator@UBMQuestRandOpt_DATA@@@std@@QAEPAUBMQuestRandOpt_DATA@@I@Z PROC ; std::allocator<BMQuestRandOpt_DATA>::allocate, COMDAT
; _this$ = ecx

; 186  : 		{	// allocate array of _Count elements

  00000	55		 push	 ebp
  00001	8b ec		 mov	 ebp, esp

; 187  : 		return (_Allocate(_Count, (pointer)0));

  00003	8b 4d 08	 mov	 ecx, DWORD PTR __Count$[ebp]
  00006	83 ec 0c	 sub	 esp, 12			; 0000000cH
  00009	33 c0		 xor	 eax, eax
  0000b	85 c9		 test	 ecx, ecx
  0000d	74 40		 je	 SHORT $LN1@allocate
  0000f	81 f9 ff ff ff
	07		 cmp	 ecx, 134217727		; 07ffffffH
  00015	77 10		 ja	 SHORT $LN3@allocate
  00017	c1 e1 05	 shl	 ecx, 5
  0001a	51		 push	 ecx
  0001b	e8 00 00 00 00	 call	 ??2@YAPAXI@Z		; operator new
  00020	83 c4 04	 add	 esp, 4
  00023	85 c0		 test	 eax, eax
  00025	75 28		 jne	 SHORT $LN1@allocate
$LN3@allocate:
  00027	8d 45 08	 lea	 eax, DWORD PTR $T204846[ebp]
  0002a	50		 push	 eax
  0002b	8d 4d f4	 lea	 ecx, DWORD PTR $T204848[ebp]
  0002e	c7 45 08 00 00
	00 00		 mov	 DWORD PTR $T204846[ebp], 0
  00035	e8 00 00 00 00	 call	 ??0exception@std@@QAE@ABQBD@Z ; std::exception::exception
  0003a	68 00 00 00 00	 push	 OFFSET __TI2?AVbad_alloc@std@@
  0003f	8d 4d f4	 lea	 ecx, DWORD PTR $T204848[ebp]
  00042	51		 push	 ecx
  00043	c7 45 f4 00 00
	00 00		 mov	 DWORD PTR $T204848[ebp], OFFSET ??_7bad_alloc@std@@6B@
  0004a	e8 00 00 00 00	 call	 __CxxThrowException@8
$LN13@allocate:
$LN1@allocate:

; 188  : 		}

  0004f	8b e5		 mov	 esp, ebp
  00051	5d		 pop	 ebp
  00052	c2 04 00	 ret	 4
$LN12@allocate:
?allocate@?$allocator@UBMQuestRandOpt_DATA@@@std@@QAEPAUBMQuestRandOpt_DATA@@I@Z ENDP ; std::allocator<BMQuestRandOpt_DATA>::allocate
_TEXT	ENDS
PUBLIC	??$_Cons_val@V?$allocator@UBMQuestRandOpt_DATA@@@std@@UBMQuestRandOpt_DATA@@ABU3@@std@@YAXAAV?$allocator@UBMQuestRandOpt_DATA@@@0@PAUBMQuestRandOpt_DATA@@ABU2@@Z ; std::_Cons_val<std::allocator<BMQuestRandOpt_DATA>,BMQuestRandOpt_DATA,BMQuestRandOpt_DATA const &>
; Function compile flags: /Ogtp
;	COMDAT ??$_Cons_val@V?$allocator@UBMQuestRandOpt_DATA@@@std@@UBMQuestRandOpt_DATA@@ABU3@@std@@YAXAAV?$allocator@UBMQuestRandOpt_DATA@@@0@PAUBMQuestRandOpt_DATA@@ABU2@@Z
_TEXT	SEGMENT
__Alval$ = 8						; size = 4
__Pdest$ = 12						; size = 4
__Src$ = 16						; size = 4
??$_Cons_val@V?$allocator@UBMQuestRandOpt_DATA@@@std@@UBMQuestRandOpt_DATA@@ABU3@@std@@YAXAAV?$allocator@UBMQuestRandOpt_DATA@@@0@PAUBMQuestRandOpt_DATA@@ABU2@@Z PROC ; std::_Cons_val<std::allocator<BMQuestRandOpt_DATA>,BMQuestRandOpt_DATA,BMQuestRandOpt_DATA const &>, COMDAT

; 279  : 	{	// construct using allocator

  00000	55		 push	 ebp
  00001	8b ec		 mov	 ebp, esp
  00003	57		 push	 edi

; 280  : 	_Alval.construct(_Pdest, _STD forward<_Ty2>(_Src));

  00004	8b 7d 0c	 mov	 edi, DWORD PTR __Pdest$[ebp]
  00007	85 ff		 test	 edi, edi
  00009	74 0c		 je	 SHORT $LN9@Cons_val@2
  0000b	56		 push	 esi
  0000c	8b 75 10	 mov	 esi, DWORD PTR __Src$[ebp]
  0000f	b9 08 00 00 00	 mov	 ecx, 8
  00014	f3 a5		 rep movsd
  00016	5e		 pop	 esi
$LN9@Cons_val@2:
  00017	5f		 pop	 edi

; 281  : 	}

  00018	5d		 pop	 ebp
  00019	c3		 ret	 0
??$_Cons_val@V?$allocator@UBMQuestRandOpt_DATA@@@std@@UBMQuestRandOpt_DATA@@ABU3@@std@@YAXAAV?$allocator@UBMQuestRandOpt_DATA@@@0@PAUBMQuestRandOpt_DATA@@ABU2@@Z ENDP ; std::_Cons_val<std::allocator<BMQuestRandOpt_DATA>,BMQuestRandOpt_DATA,BMQuestRandOpt_DATA const &>
_TEXT	ENDS
PUBLIC	??$_Move@PAUBMQuestRandOpt_DATA@@PAU1@@std@@YAPAUBMQuestRandOpt_DATA@@PAU1@00@Z ; std::_Move<BMQuestRandOpt_DATA *,BMQuestRandOpt_DATA *>
; Function compile flags: /Ogtp
; File d:\program files (x86)\microsoft visual studio 10.0\vc\include\xutility
;	COMDAT ??$_Move@PAUBMQuestRandOpt_DATA@@PAU1@@std@@YAPAUBMQuestRandOpt_DATA@@PAU1@00@Z
_TEXT	SEGMENT
__First$ = 8						; size = 4
__Last$ = 12						; size = 4
__Dest$ = 16						; size = 4
??$_Move@PAUBMQuestRandOpt_DATA@@PAU1@@std@@YAPAUBMQuestRandOpt_DATA@@PAU1@00@Z PROC ; std::_Move<BMQuestRandOpt_DATA *,BMQuestRandOpt_DATA *>, COMDAT

; 2533 : 	{	// move [_First, _Last) to [_Dest, ...), unchecked

  00000	55		 push	 ebp
  00001	8b ec		 mov	 ebp, esp

; 2534 : 	return (_Move(_First, _Last,
; 2535 : 		_Dest, _Ptr_cat(_First, _Dest)));

  00003	8b 55 08	 mov	 edx, DWORD PTR __First$[ebp]
  00006	8b 45 10	 mov	 eax, DWORD PTR __Dest$[ebp]
  00009	53		 push	 ebx
  0000a	8b 5d 0c	 mov	 ebx, DWORD PTR __Last$[ebp]
  0000d	3b d3		 cmp	 edx, ebx
  0000f	74 19		 je	 SHORT $LN5@Move@2
  00011	56		 push	 esi
  00012	57		 push	 edi
$LL7@Move@2:
  00013	8b f2		 mov	 esi, edx
  00015	8b f8		 mov	 edi, eax
  00017	83 c2 20	 add	 edx, 32			; 00000020H
  0001a	b9 08 00 00 00	 mov	 ecx, 8
  0001f	83 c0 20	 add	 eax, 32			; 00000020H
  00022	f3 a5		 rep movsd
  00024	3b d3		 cmp	 edx, ebx
  00026	75 eb		 jne	 SHORT $LL7@Move@2
  00028	5f		 pop	 edi
  00029	5e		 pop	 esi
$LN5@Move@2:
  0002a	5b		 pop	 ebx

; 2536 : 	}

  0002b	5d		 pop	 ebp
  0002c	c3		 ret	 0
??$_Move@PAUBMQuestRandOpt_DATA@@PAU1@@std@@YAPAUBMQuestRandOpt_DATA@@PAU1@00@Z ENDP ; std::_Move<BMQuestRandOpt_DATA *,BMQuestRandOpt_DATA *>
_TEXT	ENDS
PUBLIC	??$_Dest_val@V?$allocator@UBMQuestRandOpt_DATA@@@std@@UBMQuestRandOpt_DATA@@@std@@YAXAAV?$allocator@UBMQuestRandOpt_DATA@@@0@PAUBMQuestRandOpt_DATA@@@Z ; std::_Dest_val<std::allocator<BMQuestRandOpt_DATA>,BMQuestRandOpt_DATA>
; Function compile flags: /Ogtp
; File d:\program files (x86)\microsoft visual studio 10.0\vc\include\xmemory
;	COMDAT ??$_Dest_val@V?$allocator@UBMQuestRandOpt_DATA@@@std@@UBMQuestRandOpt_DATA@@@std@@YAXAAV?$allocator@UBMQuestRandOpt_DATA@@@0@PAUBMQuestRandOpt_DATA@@@Z
_TEXT	SEGMENT
__Alval$ = 8						; size = 4
__Pdest$ = 12						; size = 4
??$_Dest_val@V?$allocator@UBMQuestRandOpt_DATA@@@std@@UBMQuestRandOpt_DATA@@@std@@YAXAAV?$allocator@UBMQuestRandOpt_DATA@@@0@PAUBMQuestRandOpt_DATA@@@Z PROC ; std::_Dest_val<std::allocator<BMQuestRandOpt_DATA>,BMQuestRandOpt_DATA>, COMDAT

; 287  : 	_Alval.destroy(_Pdest);
; 288  : 	}

  00000	c3		 ret	 0
??$_Dest_val@V?$allocator@UBMQuestRandOpt_DATA@@@std@@UBMQuestRandOpt_DATA@@@std@@YAXAAV?$allocator@UBMQuestRandOpt_DATA@@@0@PAUBMQuestRandOpt_DATA@@@Z ENDP ; std::_Dest_val<std::allocator<BMQuestRandOpt_DATA>,BMQuestRandOpt_DATA>
_TEXT	ENDS
PUBLIC	??$_Cons_val@V?$allocator@UBMQuestRandOpt_DATA@@@std@@UBMQuestRandOpt_DATA@@U3@@std@@YAXAAV?$allocator@UBMQuestRandOpt_DATA@@@0@PAUBMQuestRandOpt_DATA@@$$QAU2@@Z ; std::_Cons_val<std::allocator<BMQuestRandOpt_DATA>,BMQuestRandOpt_DATA,BMQuestRandOpt_DATA>
; Function compile flags: /Ogtp
;	COMDAT ??$_Cons_val@V?$allocator@UBMQuestRandOpt_DATA@@@std@@UBMQuestRandOpt_DATA@@U3@@std@@YAXAAV?$allocator@UBMQuestRandOpt_DATA@@@0@PAUBMQuestRandOpt_DATA@@$$QAU2@@Z
_TEXT	SEGMENT
__Alval$ = 8						; size = 4
__Pdest$ = 12						; size = 4
__Src$ = 16						; size = 4
??$_Cons_val@V?$allocator@UBMQuestRandOpt_DATA@@@std@@UBMQuestRandOpt_DATA@@U3@@std@@YAXAAV?$allocator@UBMQuestRandOpt_DATA@@@0@PAUBMQuestRandOpt_DATA@@$$QAU2@@Z PROC ; std::_Cons_val<std::allocator<BMQuestRandOpt_DATA>,BMQuestRandOpt_DATA,BMQuestRandOpt_DATA>, COMDAT

; 279  : 	{	// construct using allocator

  00000	55		 push	 ebp
  00001	8b ec		 mov	 ebp, esp
  00003	57		 push	 edi

; 280  : 	_Alval.construct(_Pdest, _STD forward<_Ty2>(_Src));

  00004	8b 7d 0c	 mov	 edi, DWORD PTR __Pdest$[ebp]
  00007	85 ff		 test	 edi, edi
  00009	74 0c		 je	 SHORT $LN7@Cons_val@3
  0000b	56		 push	 esi
  0000c	8b 75 10	 mov	 esi, DWORD PTR __Src$[ebp]
  0000f	b9 08 00 00 00	 mov	 ecx, 8
  00014	f3 a5		 rep movsd
  00016	5e		 pop	 esi
$LN7@Cons_val@3:
  00017	5f		 pop	 edi

; 281  : 	}

  00018	5d		 pop	 ebp
  00019	c3		 ret	 0
??$_Cons_val@V?$allocator@UBMQuestRandOpt_DATA@@@std@@UBMQuestRandOpt_DATA@@U3@@std@@YAXAAV?$allocator@UBMQuestRandOpt_DATA@@@0@PAUBMQuestRandOpt_DATA@@$$QAU2@@Z ENDP ; std::_Cons_val<std::allocator<BMQuestRandOpt_DATA>,BMQuestRandOpt_DATA,BMQuestRandOpt_DATA>
_TEXT	ENDS
PUBLIC	?begin@?$vector@UBMQuestRandOpt_DATA@@V?$allocator@UBMQuestRandOpt_DATA@@@std@@@std@@QAE?AV?$_Vector_iterator@V?$_Vector_val@UBMQuestRandOpt_DATA@@V?$allocator@UBMQuestRandOpt_DATA@@@std@@@std@@@2@XZ ; std::vector<BMQuestRandOpt_DATA,std::allocator<BMQuestRandOpt_DATA> >::begin
; Function compile flags: /Ogtp
; File d:\program files (x86)\microsoft visual studio 10.0\vc\include\vector
;	COMDAT ?begin@?$vector@UBMQuestRandOpt_DATA@@V?$allocator@UBMQuestRandOpt_DATA@@@std@@@std@@QAE?AV?$_Vector_iterator@V?$_Vector_val@UBMQuestRandOpt_DATA@@V?$allocator@UBMQuestRandOpt_DATA@@@std@@@std@@@2@XZ
_TEXT	SEGMENT
___$ReturnUdt$ = 8					; size = 4
?begin@?$vector@UBMQuestRandOpt_DATA@@V?$allocator@UBMQuestRandOpt_DATA@@@std@@@std@@QAE?AV?$_Vector_iterator@V?$_Vector_val@UBMQuestRandOpt_DATA@@V?$allocator@UBMQuestRandOpt_DATA@@@std@@@std@@@2@XZ PROC ; std::vector<BMQuestRandOpt_DATA,std::allocator<BMQuestRandOpt_DATA> >::begin, COMDAT
; _this$ = ecx

; 781  : 		{	// return iterator for beginning of mutable sequence

  00000	55		 push	 ebp
  00001	8b ec		 mov	 ebp, esp

; 782  : 		return (iterator(this->_Myfirst, this));

  00003	8b 09		 mov	 ecx, DWORD PTR [ecx]
  00005	8b 45 08	 mov	 eax, DWORD PTR ___$ReturnUdt$[ebp]
  00008	89 08		 mov	 DWORD PTR [eax], ecx

; 783  : 		}

  0000a	5d		 pop	 ebp
  0000b	c2 04 00	 ret	 4
?begin@?$vector@UBMQuestRandOpt_DATA@@V?$allocator@UBMQuestRandOpt_DATA@@@std@@@std@@QAE?AV?$_Vector_iterator@V?$_Vector_val@UBMQuestRandOpt_DATA@@V?$allocator@UBMQuestRandOpt_DATA@@@std@@@std@@@2@XZ ENDP ; std::vector<BMQuestRandOpt_DATA,std::allocator<BMQuestRandOpt_DATA> >::begin
_TEXT	ENDS
PUBLIC	?end@?$vector@UBMQuestRandOpt_DATA@@V?$allocator@UBMQuestRandOpt_DATA@@@std@@@std@@QAE?AV?$_Vector_iterator@V?$_Vector_val@UBMQuestRandOpt_DATA@@V?$allocator@UBMQuestRandOpt_DATA@@@std@@@std@@@2@XZ ; std::vector<BMQuestRandOpt_DATA,std::allocator<BMQuestRandOpt_DATA> >::end
; Function compile flags: /Ogtp
;	COMDAT ?end@?$vector@UBMQuestRandOpt_DATA@@V?$allocator@UBMQuestRandOpt_DATA@@@std@@@std@@QAE?AV?$_Vector_iterator@V?$_Vector_val@UBMQuestRandOpt_DATA@@V?$allocator@UBMQuestRandOpt_DATA@@@std@@@std@@@2@XZ
_TEXT	SEGMENT
___$ReturnUdt$ = 8					; size = 4
?end@?$vector@UBMQuestRandOpt_DATA@@V?$allocator@UBMQuestRandOpt_DATA@@@std@@@std@@QAE?AV?$_Vector_iterator@V?$_Vector_val@UBMQuestRandOpt_DATA@@V?$allocator@UBMQuestRandOpt_DATA@@@std@@@std@@@2@XZ PROC ; std::vector<BMQuestRandOpt_DATA,std::allocator<BMQuestRandOpt_DATA> >::end, COMDAT
; _this$ = ecx

; 791  : 		{	// return iterator for end of mutable sequence

  00000	55		 push	 ebp
  00001	8b ec		 mov	 ebp, esp

; 792  : 		return (iterator(this->_Mylast, this));

  00003	8b 49 04	 mov	 ecx, DWORD PTR [ecx+4]
  00006	8b 45 08	 mov	 eax, DWORD PTR ___$ReturnUdt$[ebp]
  00009	89 08		 mov	 DWORD PTR [eax], ecx

; 793  : 		}

  0000b	5d		 pop	 ebp
  0000c	c2 04 00	 ret	 4
?end@?$vector@UBMQuestRandOpt_DATA@@V?$allocator@UBMQuestRandOpt_DATA@@@std@@@std@@QAE?AV?$_Vector_iterator@V?$_Vector_val@UBMQuestRandOpt_DATA@@V?$allocator@UBMQuestRandOpt_DATA@@@std@@@std@@@2@XZ ENDP ; std::vector<BMQuestRandOpt_DATA,std::allocator<BMQuestRandOpt_DATA> >::end
_TEXT	ENDS
PUBLIC	?_Make_iter@?$vector@UBMQuestRandOpt_DATA@@V?$allocator@UBMQuestRandOpt_DATA@@@std@@@std@@QBE?AV?$_Vector_iterator@V?$_Vector_val@UBMQuestRandOpt_DATA@@V?$allocator@UBMQuestRandOpt_DATA@@@std@@@std@@@2@V?$_Vector_const_iterator@V?$_Vector_val@UBMQuestRandOpt_DATA@@V?$allocator@UBMQuestRandOpt_DATA@@@std@@@std@@@2@@Z ; std::vector<BMQuestRandOpt_DATA,std::allocator<BMQuestRandOpt_DATA> >::_Make_iter
; Function compile flags: /Ogtp
;	COMDAT ?_Make_iter@?$vector@UBMQuestRandOpt_DATA@@V?$allocator@UBMQuestRandOpt_DATA@@@std@@@std@@QBE?AV?$_Vector_iterator@V?$_Vector_val@UBMQuestRandOpt_DATA@@V?$allocator@UBMQuestRandOpt_DATA@@@std@@@std@@@2@V?$_Vector_const_iterator@V?$_Vector_val@UBMQuestRandOpt_DATA@@V?$allocator@UBMQuestRandOpt_DATA@@@std@@@std@@@2@@Z
_TEXT	SEGMENT
___$ReturnUdt$ = 8					; size = 4
__Where$ = 12						; size = 4
?_Make_iter@?$vector@UBMQuestRandOpt_DATA@@V?$allocator@UBMQuestRandOpt_DATA@@@std@@@std@@QBE?AV?$_Vector_iterator@V?$_Vector_val@UBMQuestRandOpt_DATA@@V?$allocator@UBMQuestRandOpt_DATA@@@std@@@std@@@2@V?$_Vector_const_iterator@V?$_Vector_val@UBMQuestRandOpt_DATA@@V?$allocator@UBMQuestRandOpt_DATA@@@std@@@std@@@2@@Z PROC ; std::vector<BMQuestRandOpt_DATA,std::allocator<BMQuestRandOpt_DATA> >::_Make_iter, COMDAT
; _this$ = ecx

; 801  : 		{	// make iterator from const_iterator

  00000	55		 push	 ebp
  00001	8b ec		 mov	 ebp, esp

; 802  : 		return (iterator(_Where._Ptr, this));

  00003	8b 45 08	 mov	 eax, DWORD PTR ___$ReturnUdt$[ebp]
  00006	8b 4d 0c	 mov	 ecx, DWORD PTR __Where$[ebp]
  00009	89 08		 mov	 DWORD PTR [eax], ecx

; 803  : 		}

  0000b	5d		 pop	 ebp
  0000c	c2 08 00	 ret	 8
?_Make_iter@?$vector@UBMQuestRandOpt_DATA@@V?$allocator@UBMQuestRandOpt_DATA@@@std@@@std@@QBE?AV?$_Vector_iterator@V?$_Vector_val@UBMQuestRandOpt_DATA@@V?$allocator@UBMQuestRandOpt_DATA@@@std@@@std@@@2@V?$_Vector_const_iterator@V?$_Vector_val@UBMQuestRandOpt_DATA@@V?$allocator@UBMQuestRandOpt_DATA@@@std@@@std@@@2@@Z ENDP ; std::vector<BMQuestRandOpt_DATA,std::allocator<BMQuestRandOpt_DATA> >::_Make_iter
_TEXT	ENDS
PUBLIC	??$_Destroy_range@V?$allocator@UBMQuestRandOpt_DATA@@@std@@@std@@YAXPAUBMQuestRandOpt_DATA@@0AAV?$allocator@UBMQuestRandOpt_DATA@@@0@U_Nonscalar_ptr_iterator_tag@0@@Z ; std::_Destroy_range<std::allocator<BMQuestRandOpt_DATA> >
; Function compile flags: /Ogtp
; File d:\program files (x86)\microsoft visual studio 10.0\vc\include\xmemory
;	COMDAT ??$_Destroy_range@V?$allocator@UBMQuestRandOpt_DATA@@@std@@@std@@YAXPAUBMQuestRandOpt_DATA@@0AAV?$allocator@UBMQuestRandOpt_DATA@@@0@U_Nonscalar_ptr_iterator_tag@0@@Z
_TEXT	SEGMENT
__First$ = 8						; size = 4
__Last$ = 12						; size = 4
__Al$ = 16						; size = 4
___formal$ = 20						; size = 1
??$_Destroy_range@V?$allocator@UBMQuestRandOpt_DATA@@@std@@@std@@YAXPAUBMQuestRandOpt_DATA@@0AAV?$allocator@UBMQuestRandOpt_DATA@@@0@U_Nonscalar_ptr_iterator_tag@0@@Z PROC ; std::_Destroy_range<std::allocator<BMQuestRandOpt_DATA> >, COMDAT

; 96   : 	for (; _First != _Last; ++_First)
; 97   : 		_Dest_val(_Al, _First);
; 98   : 	}

  00000	c3		 ret	 0
??$_Destroy_range@V?$allocator@UBMQuestRandOpt_DATA@@@std@@@std@@YAXPAUBMQuestRandOpt_DATA@@0AAV?$allocator@UBMQuestRandOpt_DATA@@@0@U_Nonscalar_ptr_iterator_tag@0@@Z ENDP ; std::_Destroy_range<std::allocator<BMQuestRandOpt_DATA> >
_TEXT	ENDS
PUBLIC	??$_Uninit_move@PAUBMQuestRandOpt_DATA@@PAU1@V?$allocator@UBMQuestRandOpt_DATA@@@std@@U1@@std@@YAPAUBMQuestRandOpt_DATA@@PAU1@00AAV?$allocator@UBMQuestRandOpt_DATA@@@0@0U_Nonscalar_ptr_iterator_tag@0@@Z ; std::_Uninit_move<BMQuestRandOpt_DATA *,BMQuestRandOpt_DATA *,std::allocator<BMQuestRandOpt_DATA>,BMQuestRandOpt_DATA>
; Function compile flags: /Ogtp
; File d:\program files (x86)\microsoft visual studio 10.0\vc\include\memory
;	COMDAT ??$_Uninit_move@PAUBMQuestRandOpt_DATA@@PAU1@V?$allocator@UBMQuestRandOpt_DATA@@@std@@U1@@std@@YAPAUBMQuestRandOpt_DATA@@PAU1@00AAV?$allocator@UBMQuestRandOpt_DATA@@@0@0U_Nonscalar_ptr_iterator_tag@0@@Z
_TEXT	SEGMENT
__First$ = 8						; size = 4
__Last$ = 12						; size = 4
__Dest$ = 16						; size = 4
__Al$ = 20						; size = 4
___formal$ = 24						; size = 4
___formal$ = 28						; size = 1
??$_Uninit_move@PAUBMQuestRandOpt_DATA@@PAU1@V?$allocator@UBMQuestRandOpt_DATA@@@std@@U1@@std@@YAPAUBMQuestRandOpt_DATA@@PAU1@00AAV?$allocator@UBMQuestRandOpt_DATA@@@0@0U_Nonscalar_ptr_iterator_tag@0@@Z PROC ; std::_Uninit_move<BMQuestRandOpt_DATA *,BMQuestRandOpt_DATA *,std::allocator<BMQuestRandOpt_DATA>,BMQuestRandOpt_DATA>, COMDAT

; 424  : 	{	// move [_First, _Last) to raw _Dest, using _Al, arbitrary type

  00000	55		 push	 ebp
  00001	8b ec		 mov	 ebp, esp
  00003	53		 push	 ebx

; 425  : 	_DEBUG_RANGE(_First, _Last);
; 426  : 	_DEBUG_POINTER(_Dest);
; 427  : 	_FwdIt _Next = _Dest;
; 428  : 
; 429  : 	_TRY_BEGIN
; 430  : 	for (; _First != _Last; ++_Dest, ++_First)

  00004	8b 5d 0c	 mov	 ebx, DWORD PTR __Last$[ebp]
  00007	56		 push	 esi
  00008	8b 75 08	 mov	 esi, DWORD PTR __First$[ebp]
  0000b	3b f3		 cmp	 esi, ebx
  0000d	74 23		 je	 SHORT $LN17@Uninit_mov
  0000f	57		 push	 edi
  00010	8b 7d 10	 mov	 edi, DWORD PTR __Dest$[ebp]
$LL6@Uninit_mov:

; 431  : 		_Cons_val(_Al, _Dest, (_Valty &&)*_First);

  00013	8b 45 14	 mov	 eax, DWORD PTR __Al$[ebp]
  00016	56		 push	 esi
  00017	57		 push	 edi
  00018	50		 push	 eax
  00019	e8 00 00 00 00	 call	 ??$_Cons_val@V?$allocator@UBMQuestRandOpt_DATA@@@std@@UBMQuestRandOpt_DATA@@U3@@std@@YAXAAV?$allocator@UBMQuestRandOpt_DATA@@@0@PAUBMQuestRandOpt_DATA@@$$QAU2@@Z ; std::_Cons_val<std::allocator<BMQuestRandOpt_DATA>,BMQuestRandOpt_DATA,BMQuestRandOpt_DATA>
  0001e	83 c6 20	 add	 esi, 32			; 00000020H
  00021	83 c4 0c	 add	 esp, 12			; 0000000cH
  00024	83 c7 20	 add	 edi, 32			; 00000020H
  00027	3b f3		 cmp	 esi, ebx
  00029	75 e8		 jne	 SHORT $LL6@Uninit_mov

; 432  : 	_CATCH_ALL
; 433  : 	for (; _Next != _Dest; ++_Next)
; 434  : 		_Dest_val(_Al, _Next);
; 435  : 	_RERAISE;
; 436  : 	_CATCH_END
; 437  : 	return (_Dest);

  0002b	8b c7		 mov	 eax, edi
  0002d	5f		 pop	 edi
  0002e	5e		 pop	 esi
  0002f	5b		 pop	 ebx

; 438  : 	}

  00030	5d		 pop	 ebp
  00031	c3		 ret	 0
$LN17@Uninit_mov:

; 432  : 	_CATCH_ALL
; 433  : 	for (; _Next != _Dest; ++_Next)
; 434  : 		_Dest_val(_Al, _Next);
; 435  : 	_RERAISE;
; 436  : 	_CATCH_END
; 437  : 	return (_Dest);

  00032	8b 45 10	 mov	 eax, DWORD PTR __Dest$[ebp]
  00035	5e		 pop	 esi
  00036	5b		 pop	 ebx

; 438  : 	}

  00037	5d		 pop	 ebp
  00038	c3		 ret	 0
??$_Uninit_move@PAUBMQuestRandOpt_DATA@@PAU1@V?$allocator@UBMQuestRandOpt_DATA@@@std@@U1@@std@@YAPAUBMQuestRandOpt_DATA@@PAU1@00AAV?$allocator@UBMQuestRandOpt_DATA@@@0@0U_Nonscalar_ptr_iterator_tag@0@@Z ENDP ; std::_Uninit_move<BMQuestRandOpt_DATA *,BMQuestRandOpt_DATA *,std::allocator<BMQuestRandOpt_DATA>,BMQuestRandOpt_DATA>
_TEXT	ENDS
PUBLIC	??$_Destroy_range@V?$allocator@UBMQuestRandOpt_DATA@@@std@@@std@@YAXPAUBMQuestRandOpt_DATA@@0AAV?$allocator@UBMQuestRandOpt_DATA@@@0@@Z ; std::_Destroy_range<std::allocator<BMQuestRandOpt_DATA> >
; Function compile flags: /Ogtp
; File d:\program files (x86)\microsoft visual studio 10.0\vc\include\xmemory
;	COMDAT ??$_Destroy_range@V?$allocator@UBMQuestRandOpt_DATA@@@std@@@std@@YAXPAUBMQuestRandOpt_DATA@@0AAV?$allocator@UBMQuestRandOpt_DATA@@@0@@Z
_TEXT	SEGMENT
__First$ = 8						; size = 4
__Last$ = 12						; size = 4
__Al$ = 16						; size = 4
??$_Destroy_range@V?$allocator@UBMQuestRandOpt_DATA@@@std@@@std@@YAXPAUBMQuestRandOpt_DATA@@0AAV?$allocator@UBMQuestRandOpt_DATA@@@0@@Z PROC ; std::_Destroy_range<std::allocator<BMQuestRandOpt_DATA> >, COMDAT

; 88   : 	_Destroy_range(_First, _Last, _Al, _Ptr_cat(_First, _Last));
; 89   : 	}

  00000	c3		 ret	 0
??$_Destroy_range@V?$allocator@UBMQuestRandOpt_DATA@@@std@@@std@@YAXPAUBMQuestRandOpt_DATA@@0AAV?$allocator@UBMQuestRandOpt_DATA@@@0@@Z ENDP ; std::_Destroy_range<std::allocator<BMQuestRandOpt_DATA> >
_TEXT	ENDS
PUBLIC	??$_Uninitialized_move@PAUBMQuestRandOpt_DATA@@PAU1@V?$allocator@UBMQuestRandOpt_DATA@@@std@@@std@@YAPAUBMQuestRandOpt_DATA@@PAU1@00AAV?$allocator@UBMQuestRandOpt_DATA@@@0@@Z ; std::_Uninitialized_move<BMQuestRandOpt_DATA *,BMQuestRandOpt_DATA *,std::allocator<BMQuestRandOpt_DATA> >
; Function compile flags: /Ogtp
; File d:\program files (x86)\microsoft visual studio 10.0\vc\include\memory
;	COMDAT ??$_Uninitialized_move@PAUBMQuestRandOpt_DATA@@PAU1@V?$allocator@UBMQuestRandOpt_DATA@@@std@@@std@@YAPAUBMQuestRandOpt_DATA@@PAU1@00AAV?$allocator@UBMQuestRandOpt_DATA@@@0@@Z
_TEXT	SEGMENT
__Cat$205041 = -4					; size = 1
__First$ = 8						; size = 4
__Last$ = 12						; size = 4
__Dest$ = 16						; size = 4
__Al$ = 20						; size = 4
??$_Uninitialized_move@PAUBMQuestRandOpt_DATA@@PAU1@V?$allocator@UBMQuestRandOpt_DATA@@@std@@@std@@YAPAUBMQuestRandOpt_DATA@@PAU1@00AAV?$allocator@UBMQuestRandOpt_DATA@@@0@@Z PROC ; std::_Uninitialized_move<BMQuestRandOpt_DATA *,BMQuestRandOpt_DATA *,std::allocator<BMQuestRandOpt_DATA> >, COMDAT

; 469  : 	{	// move [_First, _Last) to raw _Dest, using _Al

  00000	55		 push	 ebp
  00001	8b ec		 mov	 ebp, esp
  00003	51		 push	 ecx

; 470  : 	return (_Uninit_move(_First, _Last, _Dest, _Al,
; 471  : 		_Val_type(_First), _Ptr_cat(_First, _Dest)));

  00004	8b 45 fc	 mov	 eax, DWORD PTR __Cat$205041[ebp]
  00007	8b 4d 14	 mov	 ecx, DWORD PTR __Al$[ebp]
  0000a	8b 55 10	 mov	 edx, DWORD PTR __Dest$[ebp]
  0000d	50		 push	 eax
  0000e	8b 45 0c	 mov	 eax, DWORD PTR __Last$[ebp]
  00011	6a 00		 push	 0
  00013	51		 push	 ecx
  00014	8b 4d 08	 mov	 ecx, DWORD PTR __First$[ebp]
  00017	52		 push	 edx
  00018	50		 push	 eax
  00019	51		 push	 ecx
  0001a	e8 00 00 00 00	 call	 ??$_Uninit_move@PAUBMQuestRandOpt_DATA@@PAU1@V?$allocator@UBMQuestRandOpt_DATA@@@std@@U1@@std@@YAPAUBMQuestRandOpt_DATA@@PAU1@00AAV?$allocator@UBMQuestRandOpt_DATA@@@0@0U_Nonscalar_ptr_iterator_tag@0@@Z ; std::_Uninit_move<BMQuestRandOpt_DATA *,BMQuestRandOpt_DATA *,std::allocator<BMQuestRandOpt_DATA>,BMQuestRandOpt_DATA>
  0001f	83 c4 18	 add	 esp, 24			; 00000018H

; 472  : 	}

  00022	8b e5		 mov	 esp, ebp
  00024	5d		 pop	 ebp
  00025	c3		 ret	 0
??$_Uninitialized_move@PAUBMQuestRandOpt_DATA@@PAU1@V?$allocator@UBMQuestRandOpt_DATA@@@std@@@std@@YAPAUBMQuestRandOpt_DATA@@PAU1@00AAV?$allocator@UBMQuestRandOpt_DATA@@@0@@Z ENDP ; std::_Uninitialized_move<BMQuestRandOpt_DATA *,BMQuestRandOpt_DATA *,std::allocator<BMQuestRandOpt_DATA> >
_TEXT	ENDS
PUBLIC	?_Destroy@?$vector@UBMQuestRandOpt_DATA@@V?$allocator@UBMQuestRandOpt_DATA@@@std@@@std@@IAEXPAUBMQuestRandOpt_DATA@@0@Z ; std::vector<BMQuestRandOpt_DATA,std::allocator<BMQuestRandOpt_DATA> >::_Destroy
; Function compile flags: /Ogtp
; File d:\program files (x86)\microsoft visual studio 10.0\vc\include\vector
;	COMDAT ?_Destroy@?$vector@UBMQuestRandOpt_DATA@@V?$allocator@UBMQuestRandOpt_DATA@@@std@@@std@@IAEXPAUBMQuestRandOpt_DATA@@0@Z
_TEXT	SEGMENT
__First$ = 8						; size = 4
__Last$ = 12						; size = 4
?_Destroy@?$vector@UBMQuestRandOpt_DATA@@V?$allocator@UBMQuestRandOpt_DATA@@@std@@@std@@IAEXPAUBMQuestRandOpt_DATA@@0@Z PROC ; std::vector<BMQuestRandOpt_DATA,std::allocator<BMQuestRandOpt_DATA> >::_Destroy, COMDAT
; _this$ = ecx

; 1270 : 		_Destroy_range(_First, _Last, this->_Alval);
; 1271 : 		}

  00000	c2 08 00	 ret	 8
?_Destroy@?$vector@UBMQuestRandOpt_DATA@@V?$allocator@UBMQuestRandOpt_DATA@@@std@@@std@@IAEXPAUBMQuestRandOpt_DATA@@0@Z ENDP ; std::vector<BMQuestRandOpt_DATA,std::allocator<BMQuestRandOpt_DATA> >::_Destroy
_TEXT	ENDS
PUBLIC	??$_Umove@PAUBMQuestRandOpt_DATA@@@?$vector@UBMQuestRandOpt_DATA@@V?$allocator@UBMQuestRandOpt_DATA@@@std@@@std@@IAEPAUBMQuestRandOpt_DATA@@PAU2@00@Z ; std::vector<BMQuestRandOpt_DATA,std::allocator<BMQuestRandOpt_DATA> >::_Umove<BMQuestRandOpt_DATA *>
; Function compile flags: /Ogtp
;	COMDAT ??$_Umove@PAUBMQuestRandOpt_DATA@@@?$vector@UBMQuestRandOpt_DATA@@V?$allocator@UBMQuestRandOpt_DATA@@@std@@@std@@IAEPAUBMQuestRandOpt_DATA@@PAU2@00@Z
_TEXT	SEGMENT
__First$ = 8						; size = 4
__Last$ = 12						; size = 4
__Cat$205063 = 16					; size = 1
__Ptr$ = 16						; size = 4
??$_Umove@PAUBMQuestRandOpt_DATA@@@?$vector@UBMQuestRandOpt_DATA@@V?$allocator@UBMQuestRandOpt_DATA@@@std@@@std@@IAEPAUBMQuestRandOpt_DATA@@PAU2@00@Z PROC ; std::vector<BMQuestRandOpt_DATA,std::allocator<BMQuestRandOpt_DATA> >::_Umove<BMQuestRandOpt_DATA *>, COMDAT
; _this$ = ecx

; 1322 : 		pointer _Umove(_Iter _First, _Iter _Last, pointer _Ptr)

  00000	55		 push	 ebp
  00001	8b ec		 mov	 ebp, esp

; 1323 : 		{	// move initializing [_First, _Last), using allocator
; 1324 : 		return (_Uninitialized_move(_First, _Last,
; 1325 : 			_Ptr, this->_Alval));

  00003	8b 45 10	 mov	 eax, DWORD PTR __Cat$205063[ebp]
  00006	8b 55 0c	 mov	 edx, DWORD PTR __Last$[ebp]
  00009	50		 push	 eax
  0000a	8b 45 08	 mov	 eax, DWORD PTR __First$[ebp]
  0000d	6a 00		 push	 0
  0000f	83 c1 0c	 add	 ecx, 12			; 0000000cH
  00012	51		 push	 ecx
  00013	8b 4d 10	 mov	 ecx, DWORD PTR __Ptr$[ebp]
  00016	51		 push	 ecx
  00017	52		 push	 edx
  00018	50		 push	 eax
  00019	e8 00 00 00 00	 call	 ??$_Uninit_move@PAUBMQuestRandOpt_DATA@@PAU1@V?$allocator@UBMQuestRandOpt_DATA@@@std@@U1@@std@@YAPAUBMQuestRandOpt_DATA@@PAU1@00AAV?$allocator@UBMQuestRandOpt_DATA@@@0@0U_Nonscalar_ptr_iterator_tag@0@@Z ; std::_Uninit_move<BMQuestRandOpt_DATA *,BMQuestRandOpt_DATA *,std::allocator<BMQuestRandOpt_DATA>,BMQuestRandOpt_DATA>
  0001e	83 c4 18	 add	 esp, 24			; 00000018H

; 1326 : 		}

  00021	5d		 pop	 ebp
  00022	c2 0c 00	 ret	 12			; 0000000cH
??$_Umove@PAUBMQuestRandOpt_DATA@@@?$vector@UBMQuestRandOpt_DATA@@V?$allocator@UBMQuestRandOpt_DATA@@@std@@@std@@IAEPAUBMQuestRandOpt_DATA@@PAU2@00@Z ENDP ; std::vector<BMQuestRandOpt_DATA,std::allocator<BMQuestRandOpt_DATA> >::_Umove<BMQuestRandOpt_DATA *>
_TEXT	ENDS
PUBLIC	?erase@?$vector@UBMQuestRandOpt_DATA@@V?$allocator@UBMQuestRandOpt_DATA@@@std@@@std@@QAE?AV?$_Vector_iterator@V?$_Vector_val@UBMQuestRandOpt_DATA@@V?$allocator@UBMQuestRandOpt_DATA@@@std@@@std@@@2@V?$_Vector_const_iterator@V?$_Vector_val@UBMQuestRandOpt_DATA@@V?$allocator@UBMQuestRandOpt_DATA@@@std@@@std@@@2@0@Z ; std::vector<BMQuestRandOpt_DATA,std::allocator<BMQuestRandOpt_DATA> >::erase
; Function compile flags: /Ogtp
;	COMDAT ?erase@?$vector@UBMQuestRandOpt_DATA@@V?$allocator@UBMQuestRandOpt_DATA@@@std@@@std@@QAE?AV?$_Vector_iterator@V?$_Vector_val@UBMQuestRandOpt_DATA@@V?$allocator@UBMQuestRandOpt_DATA@@@std@@@std@@@2@V?$_Vector_const_iterator@V?$_Vector_val@UBMQuestRandOpt_DATA@@V?$allocator@UBMQuestRandOpt_DATA@@@std@@@std@@@2@0@Z
_TEXT	SEGMENT
_this$ = -4						; size = 4
___$ReturnUdt$ = 8					; size = 4
__First_arg$ = 12					; size = 4
__Last_arg$ = 16					; size = 4
?erase@?$vector@UBMQuestRandOpt_DATA@@V?$allocator@UBMQuestRandOpt_DATA@@@std@@@std@@QAE?AV?$_Vector_iterator@V?$_Vector_val@UBMQuestRandOpt_DATA@@V?$allocator@UBMQuestRandOpt_DATA@@@std@@@std@@@2@V?$_Vector_const_iterator@V?$_Vector_val@UBMQuestRandOpt_DATA@@V?$allocator@UBMQuestRandOpt_DATA@@@std@@@std@@@2@0@Z PROC ; std::vector<BMQuestRandOpt_DATA,std::allocator<BMQuestRandOpt_DATA> >::erase, COMDAT
; _this$ = ecx

; 1190 : 		{	// erase [_First, _Last)

  00000	55		 push	 ebp
  00001	8b ec		 mov	 ebp, esp
  00003	51		 push	 ecx

; 1191 : 		iterator _First = _Make_iter(_First_arg);
; 1192 : 		iterator _Last = _Make_iter(_Last_arg);
; 1193 : 
; 1194 : 		if (_First != _Last)

  00004	8b 55 10	 mov	 edx, DWORD PTR __Last_arg$[ebp]
  00007	53		 push	 ebx
  00008	8b 5d 0c	 mov	 ebx, DWORD PTR __First_arg$[ebp]
  0000b	56		 push	 esi
  0000c	8b 75 08	 mov	 esi, DWORD PTR ___$ReturnUdt$[ebp]
  0000f	89 4d fc	 mov	 DWORD PTR _this$[ebp], ecx
  00012	89 1e		 mov	 DWORD PTR [esi], ebx
  00014	3b da		 cmp	 ebx, edx
  00016	74 27		 je	 SHORT $LN39@erase

; 1195 : 			{	// worth doing, copy down over hole
; 1196 :  #if _ITERATOR_DEBUG_LEVEL == 2
; 1197 : 			if (_Last < _First || _VICONT(_First) != this
; 1198 : 				|| _VIPTR(_First) < this->_Myfirst
; 1199 : 				|| this->_Mylast < _VIPTR(_Last))
; 1200 : 				_DEBUG_ERROR("vector erase iterator outside range");
; 1201 : 			pointer _Ptr = _Move(_VIPTR(_Last), this->_Mylast,
; 1202 : 				_VIPTR(_First));
; 1203 : 			_Orphan_range(_VIPTR(_First), this->_Mylast);
; 1204 : 
; 1205 :  #else /* _ITERATOR_DEBUG_LEVEL == 2 */
; 1206 : 			pointer _Ptr = _Move(_VIPTR(_Last), this->_Mylast,
; 1207 : 				_VIPTR(_First));

  00018	8b 41 04	 mov	 eax, DWORD PTR [ecx+4]
  0001b	3b d0		 cmp	 edx, eax
  0001d	74 1d		 je	 SHORT $LN30@erase
  0001f	57		 push	 edi
$LL32@erase:
  00020	8b f2		 mov	 esi, edx
  00022	8b fb		 mov	 edi, ebx
  00024	83 c2 20	 add	 edx, 32			; 00000020H
  00027	b9 08 00 00 00	 mov	 ecx, 8
  0002c	83 c3 20	 add	 ebx, 32			; 00000020H
  0002f	f3 a5		 rep movsd
  00031	3b d0		 cmp	 edx, eax
  00033	75 eb		 jne	 SHORT $LL32@erase
  00035	8b 4d fc	 mov	 ecx, DWORD PTR _this$[ebp]
  00038	8b 75 08	 mov	 esi, DWORD PTR ___$ReturnUdt$[ebp]
  0003b	5f		 pop	 edi
$LN30@erase:

; 1208 :  #endif /* _ITERATOR_DEBUG_LEVEL == 2 */
; 1209 : 
; 1210 : 			_Destroy(_Ptr, this->_Mylast);
; 1211 : 			this->_Mylast = _Ptr;

  0003c	89 59 04	 mov	 DWORD PTR [ecx+4], ebx
$LN39@erase:

; 1212 : 			}
; 1213 : 		return (_First);

  0003f	8b c6		 mov	 eax, esi
  00041	5e		 pop	 esi
  00042	5b		 pop	 ebx

; 1214 : 		}

  00043	8b e5		 mov	 esp, ebp
  00045	5d		 pop	 ebp
  00046	c2 0c 00	 ret	 12			; 0000000cH
?erase@?$vector@UBMQuestRandOpt_DATA@@V?$allocator@UBMQuestRandOpt_DATA@@@std@@@std@@QAE?AV?$_Vector_iterator@V?$_Vector_val@UBMQuestRandOpt_DATA@@V?$allocator@UBMQuestRandOpt_DATA@@@std@@@std@@@2@V?$_Vector_const_iterator@V?$_Vector_val@UBMQuestRandOpt_DATA@@V?$allocator@UBMQuestRandOpt_DATA@@@std@@@std@@@2@0@Z ENDP ; std::vector<BMQuestRandOpt_DATA,std::allocator<BMQuestRandOpt_DATA> >::erase
_TEXT	ENDS
PUBLIC	?_Tidy@?$vector@UBMQuestRandOpt_DATA@@V?$allocator@UBMQuestRandOpt_DATA@@@std@@@std@@IAEXXZ ; std::vector<BMQuestRandOpt_DATA,std::allocator<BMQuestRandOpt_DATA> >::_Tidy
; Function compile flags: /Ogtp
;	COMDAT ?_Tidy@?$vector@UBMQuestRandOpt_DATA@@V?$allocator@UBMQuestRandOpt_DATA@@@std@@@std@@IAEXXZ
_TEXT	SEGMENT
?_Tidy@?$vector@UBMQuestRandOpt_DATA@@V?$allocator@UBMQuestRandOpt_DATA@@@std@@@std@@IAEXXZ PROC ; std::vector<BMQuestRandOpt_DATA,std::allocator<BMQuestRandOpt_DATA> >::_Tidy, COMDAT
; _this$ = ecx

; 1301 : 		{	// free all storage

  00000	56		 push	 esi
  00001	8b f1		 mov	 esi, ecx

; 1302 : 		if (this->_Myfirst != 0)

  00003	8b 06		 mov	 eax, DWORD PTR [esi]
  00005	85 c0		 test	 eax, eax
  00007	74 09		 je	 SHORT $LN6@Tidy

; 1303 : 			{	// something to free, destroy and deallocate it
; 1304 : 			this->_Orphan_all();
; 1305 : 			_Destroy(this->_Myfirst, this->_Mylast);
; 1306 : 			this->_Alval.deallocate(this->_Myfirst,
; 1307 : 				this->_Myend - this->_Myfirst);

  00009	50		 push	 eax
  0000a	e8 00 00 00 00	 call	 ??3@YAXPAX@Z		; operator delete
  0000f	83 c4 04	 add	 esp, 4
$LN6@Tidy:

; 1308 : 			}
; 1309 : 		this->_Myfirst = 0;

  00012	c7 06 00 00 00
	00		 mov	 DWORD PTR [esi], 0

; 1310 : 		this->_Mylast = 0;

  00018	c7 46 04 00 00
	00 00		 mov	 DWORD PTR [esi+4], 0

; 1311 : 		this->_Myend = 0;

  0001f	c7 46 08 00 00
	00 00		 mov	 DWORD PTR [esi+8], 0
  00026	5e		 pop	 esi

; 1312 : 		}

  00027	c3		 ret	 0
?_Tidy@?$vector@UBMQuestRandOpt_DATA@@V?$allocator@UBMQuestRandOpt_DATA@@@std@@@std@@IAEXXZ ENDP ; std::vector<BMQuestRandOpt_DATA,std::allocator<BMQuestRandOpt_DATA> >::_Tidy
_TEXT	ENDS
PUBLIC	?reserve@?$vector@UBMQuestRandOpt_DATA@@V?$allocator@UBMQuestRandOpt_DATA@@@std@@@std@@QAEXI@Z ; std::vector<BMQuestRandOpt_DATA,std::allocator<BMQuestRandOpt_DATA> >::reserve
EXTRN	___CxxFrameHandler3:PROC
;	COMDAT xdata$x
; File d:\program files (x86)\microsoft visual studio 10.0\vc\include\xutility
xdata$x	SEGMENT
__catchsym$?reserve@?$vector@UBMQuestRandOpt_DATA@@V?$allocator@UBMQuestRandOpt_DATA@@@std@@@std@@QAEXI@Z$2 DD 040H
	DD	00H
	DD	00H
	DD	FLAT:__catch$?reserve@?$vector@UBMQuestRandOpt_DATA@@V?$allocator@UBMQuestRandOpt_DATA@@@std@@@std@@QAEXI@Z$0
__unwindtable$?reserve@?$vector@UBMQuestRandOpt_DATA@@V?$allocator@UBMQuestRandOpt_DATA@@@std@@@std@@QAEXI@Z DD 0ffffffffH
	DD	00H
	DD	0ffffffffH
	DD	00H
__tryblocktable$?reserve@?$vector@UBMQuestRandOpt_DATA@@V?$allocator@UBMQuestRandOpt_DATA@@@std@@@std@@QAEXI@Z DD 00H
	DD	00H
	DD	01H
	DD	01H
	DD	FLAT:__catchsym$?reserve@?$vector@UBMQuestRandOpt_DATA@@V?$allocator@UBMQuestRandOpt_DATA@@@std@@@std@@QAEXI@Z$2
__ehfuncinfo$?reserve@?$vector@UBMQuestRandOpt_DATA@@V?$allocator@UBMQuestRandOpt_DATA@@@std@@@std@@QAEXI@Z DD 019930522H
	DD	02H
	DD	FLAT:__unwindtable$?reserve@?$vector@UBMQuestRandOpt_DATA@@V?$allocator@UBMQuestRandOpt_DATA@@@std@@@std@@QAEXI@Z
	DD	01H
	DD	FLAT:__tryblocktable$?reserve@?$vector@UBMQuestRandOpt_DATA@@V?$allocator@UBMQuestRandOpt_DATA@@@std@@@std@@QAEXI@Z
	DD	2 DUP(00H)
	DD	00H
	DD	01H
; Function compile flags: /Ogtp
; File d:\program files (x86)\microsoft visual studio 10.0\vc\include\vector
xdata$x	ENDS
;	COMDAT ?reserve@?$vector@UBMQuestRandOpt_DATA@@V?$allocator@UBMQuestRandOpt_DATA@@@std@@@std@@QAEXI@Z
_TEXT	SEGMENT
__Ptr$203704 = -20					; size = 4
__$EHRec$ = -16						; size = 16
__Cat$205234 = 8					; size = 1
__Count$ = 8						; size = 4
?reserve@?$vector@UBMQuestRandOpt_DATA@@V?$allocator@UBMQuestRandOpt_DATA@@@std@@@std@@QAEXI@Z PROC ; std::vector<BMQuestRandOpt_DATA,std::allocator<BMQuestRandOpt_DATA> >::reserve, COMDAT
; _this$ = ecx

; 746  : 		{	// determine new minimum length of allocated storage

  00000	55		 push	 ebp
  00001	8b ec		 mov	 ebp, esp
  00003	6a ff		 push	 -1
  00005	68 00 00 00 00	 push	 __ehhandler$?reserve@?$vector@UBMQuestRandOpt_DATA@@V?$allocator@UBMQuestRandOpt_DATA@@@std@@@std@@QAEXI@Z
  0000a	64 a1 00 00 00
	00		 mov	 eax, DWORD PTR fs:0
  00010	50		 push	 eax
  00011	83 ec 08	 sub	 esp, 8
  00014	53		 push	 ebx
  00015	56		 push	 esi
  00016	57		 push	 edi
  00017	a1 00 00 00 00	 mov	 eax, DWORD PTR ___security_cookie
  0001c	33 c5		 xor	 eax, ebp
  0001e	50		 push	 eax
  0001f	8d 45 f4	 lea	 eax, DWORD PTR __$EHRec$[ebp+4]
  00022	64 a3 00 00 00
	00		 mov	 DWORD PTR fs:0, eax
  00028	89 65 f0	 mov	 DWORD PTR __$EHRec$[ebp], esp
  0002b	8b f1		 mov	 esi, ecx

; 747  : 		if (max_size() < _Count)

  0002d	8b 45 08	 mov	 eax, DWORD PTR __Count$[ebp]
  00030	3d ff ff ff 07	 cmp	 eax, 134217727		; 07ffffffH
  00035	76 0a		 jbe	 SHORT $LN5@reserve

; 748  : 			_Xlen();	// result too long

  00037	68 00 00 00 00	 push	 OFFSET ??_C@_0BD@OLBABOEK@vector?$DMT?$DO?5too?5long?$AA@
  0003c	e8 00 00 00 00	 call	 ?_Xlength_error@std@@YAXPBD@Z ; std::_Xlength_error
$LN42@reserve:
$LN5@reserve:

; 749  : 		else if (capacity() < _Count)

  00041	8b 4e 08	 mov	 ecx, DWORD PTR [esi+8]
  00044	2b 0e		 sub	 ecx, DWORD PTR [esi]
  00046	c1 f9 05	 sar	 ecx, 5
  00049	3b c8		 cmp	 ecx, eax
  0004b	73 57		 jae	 SHORT $LN3@reserve

; 750  : 			{	// not enough room, reallocate
; 751  : 			pointer _Ptr = this->_Alval.allocate(_Count);

  0004d	8d 7e 0c	 lea	 edi, DWORD PTR [esi+12]
  00050	50		 push	 eax
  00051	8b cf		 mov	 ecx, edi
  00053	e8 00 00 00 00	 call	 ?allocate@?$allocator@UBMQuestRandOpt_DATA@@@std@@QAEPAUBMQuestRandOpt_DATA@@I@Z ; std::allocator<BMQuestRandOpt_DATA>::allocate

; 752  : 
; 753  : 			_TRY_BEGIN
; 754  : 			_Umove(this->_Myfirst, this->_Mylast, _Ptr);

  00058	8b 55 08	 mov	 edx, DWORD PTR __Cat$205234[ebp]
  0005b	8b 0e		 mov	 ecx, DWORD PTR [esi]
  0005d	52		 push	 edx
  0005e	6a 00		 push	 0
  00060	8b d8		 mov	 ebx, eax
  00062	8b 46 04	 mov	 eax, DWORD PTR [esi+4]
  00065	57		 push	 edi
  00066	53		 push	 ebx
  00067	50		 push	 eax
  00068	51		 push	 ecx
  00069	89 5d ec	 mov	 DWORD PTR __Ptr$203704[ebp], ebx
  0006c	c7 45 fc 00 00
	00 00		 mov	 DWORD PTR __$EHRec$[ebp+12], 0
  00073	e8 00 00 00 00	 call	 ??$_Uninit_move@PAUBMQuestRandOpt_DATA@@PAU1@V?$allocator@UBMQuestRandOpt_DATA@@@std@@U1@@std@@YAPAUBMQuestRandOpt_DATA@@PAU1@00AAV?$allocator@UBMQuestRandOpt_DATA@@@0@0U_Nonscalar_ptr_iterator_tag@0@@Z ; std::_Uninit_move<BMQuestRandOpt_DATA *,BMQuestRandOpt_DATA *,std::allocator<BMQuestRandOpt_DATA>,BMQuestRandOpt_DATA>

; 758  : 			_CATCH_END
; 759  : 
; 760  : 			size_type _Size = size();

  00078	8b 06		 mov	 eax, DWORD PTR [esi]
  0007a	8b 7e 04	 mov	 edi, DWORD PTR [esi+4]
  0007d	83 c4 18	 add	 esp, 24			; 00000018H
  00080	2b f8		 sub	 edi, eax

; 761  : 			if (this->_Myfirst != 0)

  00082	85 c0		 test	 eax, eax
  00084	74 09		 je	 SHORT $LN35@reserve

; 762  : 				{	// destroy and deallocate old array
; 763  : 				_Destroy(this->_Myfirst, this->_Mylast);
; 764  : 				this->_Alval.deallocate(this->_Myfirst,
; 765  : 					this->_Myend - this->_Myfirst);

  00086	50		 push	 eax
  00087	e8 00 00 00 00	 call	 ??3@YAXPAX@Z		; operator delete
  0008c	83 c4 04	 add	 esp, 4
$LN35@reserve:

; 766  : 				}
; 767  : 
; 768  : 			this->_Orphan_all();
; 769  : 			this->_Myend = _Ptr + _Count;

  0008f	8b 45 08	 mov	 eax, DWORD PTR __Count$[ebp]
  00092	c1 e0 05	 shl	 eax, 5
  00095	03 c3		 add	 eax, ebx

; 770  : 			this->_Mylast = _Ptr + _Size;

  00097	83 e7 e0	 and	 edi, -32		; ffffffe0H
  0009a	03 fb		 add	 edi, ebx
  0009c	89 46 08	 mov	 DWORD PTR [esi+8], eax
  0009f	89 7e 04	 mov	 DWORD PTR [esi+4], edi

; 771  : 			this->_Myfirst = _Ptr;

  000a2	89 1e		 mov	 DWORD PTR [esi], ebx
$LN3@reserve:

; 772  : 			}
; 773  : 		}

  000a4	8b 4d f4	 mov	 ecx, DWORD PTR __$EHRec$[ebp+4]
  000a7	64 89 0d 00 00
	00 00		 mov	 DWORD PTR fs:0, ecx
  000ae	59		 pop	 ecx
  000af	5f		 pop	 edi
  000b0	5e		 pop	 esi
  000b1	5b		 pop	 ebx
  000b2	8b e5		 mov	 esp, ebp
  000b4	5d		 pop	 ebp
  000b5	c2 04 00	 ret	 4
__catch$?reserve@?$vector@UBMQuestRandOpt_DATA@@V?$allocator@UBMQuestRandOpt_DATA@@@std@@@std@@QAEXI@Z$0:

; 755  : 			_CATCH_ALL
; 756  : 			this->_Alval.deallocate(_Ptr, _Count);

  000b8	8b 45 ec	 mov	 eax, DWORD PTR __Ptr$203704[ebp]
  000bb	50		 push	 eax
  000bc	e8 00 00 00 00	 call	 ??3@YAXPAX@Z		; operator delete
  000c1	83 c4 04	 add	 esp, 4

; 757  : 			_RERAISE;

  000c4	6a 00		 push	 0
  000c6	6a 00		 push	 0
  000c8	e8 00 00 00 00	 call	 __CxxThrowException@8
$LN43@reserve:
$LN41@reserve:
  000cd	cc		 int	 3
_TEXT	ENDS
;	COMDAT text$x
text$x	SEGMENT
__ehhandler$?reserve@?$vector@UBMQuestRandOpt_DATA@@V?$allocator@UBMQuestRandOpt_DATA@@@std@@@std@@QAEXI@Z:
  00000	8b 54 24 08	 mov	 edx, DWORD PTR [esp+8]
  00004	8d 42 0c	 lea	 eax, DWORD PTR [edx+12]
  00007	8b 4a e8	 mov	 ecx, DWORD PTR [edx-24]
  0000a	33 c8		 xor	 ecx, eax
  0000c	e8 00 00 00 00	 call	 @__security_check_cookie@4
  00011	b8 00 00 00 00	 mov	 eax, OFFSET __ehfuncinfo$?reserve@?$vector@UBMQuestRandOpt_DATA@@V?$allocator@UBMQuestRandOpt_DATA@@@std@@@std@@QAEXI@Z
  00016	e9 00 00 00 00	 jmp	 ___CxxFrameHandler3
text$x	ENDS
?reserve@?$vector@UBMQuestRandOpt_DATA@@V?$allocator@UBMQuestRandOpt_DATA@@@std@@@std@@QAEXI@Z ENDP ; std::vector<BMQuestRandOpt_DATA,std::allocator<BMQuestRandOpt_DATA> >::reserve
PUBLIC	??1?$vector@UBMQuestRandOpt_DATA@@V?$allocator@UBMQuestRandOpt_DATA@@@std@@@std@@QAE@XZ ; std::vector<BMQuestRandOpt_DATA,std::allocator<BMQuestRandOpt_DATA> >::~vector<BMQuestRandOpt_DATA,std::allocator<BMQuestRandOpt_DATA> >
; Function compile flags: /Ogtp
;	COMDAT ??1?$vector@UBMQuestRandOpt_DATA@@V?$allocator@UBMQuestRandOpt_DATA@@@std@@@std@@QAE@XZ
_TEXT	SEGMENT
??1?$vector@UBMQuestRandOpt_DATA@@V?$allocator@UBMQuestRandOpt_DATA@@@std@@@std@@QAE@XZ PROC ; std::vector<BMQuestRandOpt_DATA,std::allocator<BMQuestRandOpt_DATA> >::~vector<BMQuestRandOpt_DATA,std::allocator<BMQuestRandOpt_DATA> >, COMDAT
; _this$ = ecx

; 704  : 		{	// destroy the object

  00000	56		 push	 esi
  00001	8b f1		 mov	 esi, ecx

; 705  : 		_Tidy();

  00003	8b 06		 mov	 eax, DWORD PTR [esi]
  00005	85 c0		 test	 eax, eax
  00007	74 09		 je	 SHORT $LN8@vector@2
  00009	50		 push	 eax
  0000a	e8 00 00 00 00	 call	 ??3@YAXPAX@Z		; operator delete
  0000f	83 c4 04	 add	 esp, 4
$LN8@vector@2:
  00012	c7 06 00 00 00
	00		 mov	 DWORD PTR [esi], 0
  00018	c7 46 04 00 00
	00 00		 mov	 DWORD PTR [esi+4], 0
  0001f	c7 46 08 00 00
	00 00		 mov	 DWORD PTR [esi+8], 0
  00026	5e		 pop	 esi

; 706  : 		}

  00027	c3		 ret	 0
??1?$vector@UBMQuestRandOpt_DATA@@V?$allocator@UBMQuestRandOpt_DATA@@@std@@@std@@QAE@XZ ENDP ; std::vector<BMQuestRandOpt_DATA,std::allocator<BMQuestRandOpt_DATA> >::~vector<BMQuestRandOpt_DATA,std::allocator<BMQuestRandOpt_DATA> >
_TEXT	ENDS
PUBLIC	?clear@?$vector@UBMQuestRandOpt_DATA@@V?$allocator@UBMQuestRandOpt_DATA@@@std@@@std@@QAEXXZ ; std::vector<BMQuestRandOpt_DATA,std::allocator<BMQuestRandOpt_DATA> >::clear
; Function compile flags: /Ogtp
;	COMDAT ?clear@?$vector@UBMQuestRandOpt_DATA@@V?$allocator@UBMQuestRandOpt_DATA@@@std@@@std@@QAEXXZ
_TEXT	SEGMENT
_this$ = -4						; size = 4
?clear@?$vector@UBMQuestRandOpt_DATA@@V?$allocator@UBMQuestRandOpt_DATA@@@std@@@std@@QAEXXZ PROC ; std::vector<BMQuestRandOpt_DATA,std::allocator<BMQuestRandOpt_DATA> >::clear, COMDAT
; _this$ = ecx

; 1217 : 		{	// erase all

  00000	55		 push	 ebp
  00001	8b ec		 mov	 ebp, esp
  00003	51		 push	 ecx

; 1218 : 		erase(begin(), end());

  00004	8b 51 04	 mov	 edx, DWORD PTR [ecx+4]
  00007	53		 push	 ebx
  00008	8b 19		 mov	 ebx, DWORD PTR [ecx]
  0000a	89 4d fc	 mov	 DWORD PTR _this$[ebp], ecx
  0000d	3b da		 cmp	 ebx, edx
  0000f	74 2c		 je	 SHORT $LN19@clear
  00011	8b c2		 mov	 eax, edx
  00013	3b d2		 cmp	 edx, edx
  00015	74 23		 je	 SHORT $LN48@clear
  00017	56		 push	 esi
  00018	57		 push	 edi
  00019	8d a4 24 00 00
	00 00		 npad	 7
$LL50@clear:
  00020	8b f0		 mov	 esi, eax
  00022	8b fb		 mov	 edi, ebx
  00024	83 c0 20	 add	 eax, 32			; 00000020H
  00027	b9 08 00 00 00	 mov	 ecx, 8
  0002c	83 c3 20	 add	 ebx, 32			; 00000020H
  0002f	f3 a5		 rep movsd
  00031	3b c2		 cmp	 eax, edx
  00033	75 eb		 jne	 SHORT $LL50@clear
  00035	8b 4d fc	 mov	 ecx, DWORD PTR _this$[ebp]
  00038	5f		 pop	 edi
  00039	5e		 pop	 esi
$LN48@clear:
  0003a	89 59 04	 mov	 DWORD PTR [ecx+4], ebx
$LN19@clear:
  0003d	5b		 pop	 ebx

; 1219 : 		}

  0003e	8b e5		 mov	 esp, ebp
  00040	5d		 pop	 ebp
  00041	c3		 ret	 0
?clear@?$vector@UBMQuestRandOpt_DATA@@V?$allocator@UBMQuestRandOpt_DATA@@@std@@@std@@QAEXXZ ENDP ; std::vector<BMQuestRandOpt_DATA,std::allocator<BMQuestRandOpt_DATA> >::clear
_TEXT	ENDS
PUBLIC	?_Reserve@?$vector@UBMQuestRandOpt_DATA@@V?$allocator@UBMQuestRandOpt_DATA@@@std@@@std@@IAEXI@Z ; std::vector<BMQuestRandOpt_DATA,std::allocator<BMQuestRandOpt_DATA> >::_Reserve
; Function compile flags: /Ogtp
;	COMDAT ?_Reserve@?$vector@UBMQuestRandOpt_DATA@@V?$allocator@UBMQuestRandOpt_DATA@@@std@@@std@@IAEXI@Z
_TEXT	SEGMENT
__Count$ = 8						; size = 4
?_Reserve@?$vector@UBMQuestRandOpt_DATA@@V?$allocator@UBMQuestRandOpt_DATA@@@std@@@std@@IAEXI@Z PROC ; std::vector<BMQuestRandOpt_DATA,std::allocator<BMQuestRandOpt_DATA> >::_Reserve, COMDAT
; _this$ = ecx

; 1290 : 		{	// ensure room for _Count new elements, grow exponentially

  00000	55		 push	 ebp
  00001	8b ec		 mov	 ebp, esp

; 1291 : 		size_type _Size = size();

  00003	8b 41 04	 mov	 eax, DWORD PTR [ecx+4]

; 1292 : 		if (max_size() - _Count < _Size)

  00006	8b 55 08	 mov	 edx, DWORD PTR __Count$[ebp]
  00009	56		 push	 esi
  0000a	8b 31		 mov	 esi, DWORD PTR [ecx]
  0000c	57		 push	 edi
  0000d	2b c6		 sub	 eax, esi
  0000f	bf ff ff ff 07	 mov	 edi, 134217727		; 07ffffffH
  00014	c1 f8 05	 sar	 eax, 5
  00017	2b fa		 sub	 edi, edx
  00019	3b f8		 cmp	 edi, eax
  0001b	73 0a		 jae	 SHORT $LN4@Reserve

; 1293 : 			_Xlen();

  0001d	68 00 00 00 00	 push	 OFFSET ??_C@_0BD@OLBABOEK@vector?$DMT?$DO?5too?5long?$AA@
  00022	e8 00 00 00 00	 call	 ?_Xlength_error@std@@YAXPBD@Z ; std::_Xlength_error
$LN34@Reserve:
$LN4@Reserve:

; 1294 : 		else if ((_Size += _Count) <= capacity())

  00027	03 c2		 add	 eax, edx
  00029	8b 51 08	 mov	 edx, DWORD PTR [ecx+8]
  0002c	2b d6		 sub	 edx, esi
  0002e	c1 fa 05	 sar	 edx, 5
  00031	3b c2		 cmp	 eax, edx
  00033	76 21		 jbe	 SHORT $LN1@Reserve

; 1295 : 			;
; 1296 : 		else
; 1297 : 			reserve(_Grow_to(_Size));

  00035	8b f2		 mov	 esi, edx
  00037	d1 ee		 shr	 esi, 1
  00039	bf ff ff ff 07	 mov	 edi, 134217727		; 07ffffffH
  0003e	2b fe		 sub	 edi, esi
  00040	3b fa		 cmp	 edi, edx
  00042	73 04		 jae	 SHORT $LN23@Reserve
  00044	33 d2		 xor	 edx, edx
  00046	eb 02		 jmp	 SHORT $LN24@Reserve
$LN23@Reserve:
  00048	03 d6		 add	 edx, esi
$LN24@Reserve:
  0004a	3b d0		 cmp	 edx, eax
  0004c	73 02		 jae	 SHORT $LN20@Reserve
  0004e	8b d0		 mov	 edx, eax
$LN20@Reserve:
  00050	52		 push	 edx
  00051	e8 00 00 00 00	 call	 ?reserve@?$vector@UBMQuestRandOpt_DATA@@V?$allocator@UBMQuestRandOpt_DATA@@@std@@@std@@QAEXI@Z ; std::vector<BMQuestRandOpt_DATA,std::allocator<BMQuestRandOpt_DATA> >::reserve
$LN1@Reserve:
  00056	5f		 pop	 edi
  00057	5e		 pop	 esi

; 1298 : 		}

  00058	5d		 pop	 ebp
  00059	c2 04 00	 ret	 4
$LN33@Reserve:
?_Reserve@?$vector@UBMQuestRandOpt_DATA@@V?$allocator@UBMQuestRandOpt_DATA@@@std@@@std@@IAEXI@Z ENDP ; std::vector<BMQuestRandOpt_DATA,std::allocator<BMQuestRandOpt_DATA> >::_Reserve
_TEXT	ENDS
PUBLIC	??0cBMQuest@@QAE@XZ				; cBMQuest::cBMQuest
; Function compile flags: /Ogtp
;	COMDAT ??0cBMQuest@@QAE@XZ
_TEXT	SEGMENT
??0cBMQuest@@QAE@XZ PROC				; cBMQuest::cBMQuest, COMDAT
; _this$ = ecx
  00000	8b c1		 mov	 eax, ecx
  00002	33 c9		 xor	 ecx, ecx
  00004	89 88 40 db 1a
	00		 mov	 DWORD PTR [eax+1760064], ecx
  0000a	89 88 44 db 1a
	00		 mov	 DWORD PTR [eax+1760068], ecx
  00010	89 88 48 db 1a
	00		 mov	 DWORD PTR [eax+1760072], ecx
  00016	c3		 ret	 0
??0cBMQuest@@QAE@XZ ENDP				; cBMQuest::cBMQuest
_TEXT	ENDS
PUBLIC	??1cBMQuest@@QAE@XZ				; cBMQuest::~cBMQuest
; Function compile flags: /Ogtp
;	COMDAT ??1cBMQuest@@QAE@XZ
_TEXT	SEGMENT
??1cBMQuest@@QAE@XZ PROC				; cBMQuest::~cBMQuest, COMDAT
; _this$ = ecx
  00000	56		 push	 esi
  00001	8b f1		 mov	 esi, ecx
  00003	8b 86 40 db 1a
	00		 mov	 eax, DWORD PTR [esi+1760064]
  00009	85 c0		 test	 eax, eax
  0000b	74 09		 je	 SHORT $LN11@cBMQuest
  0000d	50		 push	 eax
  0000e	e8 00 00 00 00	 call	 ??3@YAXPAX@Z		; operator delete
  00013	83 c4 04	 add	 esp, 4
$LN11@cBMQuest:
  00016	c7 86 40 db 1a
	00 00 00 00 00	 mov	 DWORD PTR [esi+1760064], 0
  00020	c7 86 44 db 1a
	00 00 00 00 00	 mov	 DWORD PTR [esi+1760068], 0
  0002a	c7 86 48 db 1a
	00 00 00 00 00	 mov	 DWORD PTR [esi+1760072], 0
  00034	5e		 pop	 esi
  00035	c3		 ret	 0
??1cBMQuest@@QAE@XZ ENDP				; cBMQuest::~cBMQuest
_TEXT	ENDS
PUBLIC	?push_back@?$vector@UBMQuestRandOpt_DATA@@V?$allocator@UBMQuestRandOpt_DATA@@@std@@@std@@QAEXABUBMQuestRandOpt_DATA@@@Z ; std::vector<BMQuestRandOpt_DATA,std::allocator<BMQuestRandOpt_DATA> >::push_back
; Function compile flags: /Ogtp
;	COMDAT ?push_back@?$vector@UBMQuestRandOpt_DATA@@V?$allocator@UBMQuestRandOpt_DATA@@@std@@@std@@QAEXABUBMQuestRandOpt_DATA@@@Z
_TEXT	SEGMENT
__Val$ = 8						; size = 4
?push_back@?$vector@UBMQuestRandOpt_DATA@@V?$allocator@UBMQuestRandOpt_DATA@@@std@@@std@@QAEXABUBMQuestRandOpt_DATA@@@Z PROC ; std::vector<BMQuestRandOpt_DATA,std::allocator<BMQuestRandOpt_DATA> >::push_back, COMDAT
; _this$ = ecx

; 976  : 		{	// insert element at end

  00000	55		 push	 ebp
  00001	8b ec		 mov	 ebp, esp
  00003	56		 push	 esi
  00004	8b f1		 mov	 esi, ecx

; 977  : 		if (_Inside(_STD addressof(_Val)))

  00006	8b 46 04	 mov	 eax, DWORD PTR [esi+4]
  00009	57		 push	 edi
  0000a	8b 7d 08	 mov	 edi, DWORD PTR __Val$[ebp]
  0000d	3b f8		 cmp	 edi, eax
  0000f	73 36		 jae	 SHORT $LN4@push_back
  00011	8b 0e		 mov	 ecx, DWORD PTR [esi]
  00013	3b cf		 cmp	 ecx, edi
  00015	77 30		 ja	 SHORT $LN4@push_back

; 978  : 			{	// push back an element
; 979  : 			size_type _Idx = _STD addressof(_Val) - this->_Myfirst;

  00017	2b f9		 sub	 edi, ecx

; 980  : 			if (this->_Mylast == this->_Myend)

  00019	3b 46 08	 cmp	 eax, DWORD PTR [esi+8]
  0001c	75 09		 jne	 SHORT $LN3@push_back

; 981  : 				_Reserve(1);

  0001e	6a 01		 push	 1
  00020	8b ce		 mov	 ecx, esi
  00022	e8 00 00 00 00	 call	 ?_Reserve@?$vector@UBMQuestRandOpt_DATA@@V?$allocator@UBMQuestRandOpt_DATA@@@std@@@std@@IAEXI@Z ; std::vector<BMQuestRandOpt_DATA,std::allocator<BMQuestRandOpt_DATA> >::_Reserve
$LN3@push_back:

; 982  : 			_Orphan_range(this->_Mylast, this->_Mylast);
; 983  : 			_Cons_val(this->_Alval,
; 984  : 				this->_Mylast,
; 985  : 				this->_Myfirst[_Idx]);

  00027	8b 46 04	 mov	 eax, DWORD PTR [esi+4]
  0002a	83 e7 e0	 and	 edi, -32		; ffffffe0H
  0002d	03 3e		 add	 edi, DWORD PTR [esi]
  0002f	8d 4e 0c	 lea	 ecx, DWORD PTR [esi+12]
  00032	57		 push	 edi
  00033	50		 push	 eax
  00034	51		 push	 ecx
  00035	e8 00 00 00 00	 call	 ??$_Cons_val@V?$allocator@UBMQuestRandOpt_DATA@@@std@@UBMQuestRandOpt_DATA@@AAU3@@std@@YAXAAV?$allocator@UBMQuestRandOpt_DATA@@@0@PAUBMQuestRandOpt_DATA@@AAU2@@Z ; std::_Cons_val<std::allocator<BMQuestRandOpt_DATA>,BMQuestRandOpt_DATA,BMQuestRandOpt_DATA &>

; 992  : 			_Orphan_range(this->_Mylast, this->_Mylast);
; 993  : 			_Cons_val(this->_Alval,
; 994  : 				this->_Mylast,
; 995  : 				_Val);

  0003a	83 c4 0c	 add	 esp, 12			; 0000000cH

; 996  : 			++this->_Mylast;

  0003d	83 46 04 20	 add	 DWORD PTR [esi+4], 32	; 00000020H
  00041	5f		 pop	 edi
  00042	5e		 pop	 esi

; 997  : 			}
; 998  : 		}

  00043	5d		 pop	 ebp
  00044	c2 04 00	 ret	 4
$LN4@push_back:

; 986  : 			++this->_Mylast;
; 987  : 			}
; 988  : 		else
; 989  : 			{	// push back a non-element
; 990  : 			if (this->_Mylast == this->_Myend)

  00047	3b 46 08	 cmp	 eax, DWORD PTR [esi+8]
  0004a	75 09		 jne	 SHORT $LN1@push_back

; 991  : 				_Reserve(1);

  0004c	6a 01		 push	 1
  0004e	8b ce		 mov	 ecx, esi
  00050	e8 00 00 00 00	 call	 ?_Reserve@?$vector@UBMQuestRandOpt_DATA@@V?$allocator@UBMQuestRandOpt_DATA@@@std@@@std@@IAEXI@Z ; std::vector<BMQuestRandOpt_DATA,std::allocator<BMQuestRandOpt_DATA> >::_Reserve
$LN1@push_back:

; 992  : 			_Orphan_range(this->_Mylast, this->_Mylast);
; 993  : 			_Cons_val(this->_Alval,
; 994  : 				this->_Mylast,
; 995  : 				_Val);

  00055	8b 56 04	 mov	 edx, DWORD PTR [esi+4]
  00058	57		 push	 edi
  00059	52		 push	 edx
  0005a	8d 46 0c	 lea	 eax, DWORD PTR [esi+12]
  0005d	50		 push	 eax
  0005e	e8 00 00 00 00	 call	 ??$_Cons_val@V?$allocator@UBMQuestRandOpt_DATA@@@std@@UBMQuestRandOpt_DATA@@ABU3@@std@@YAXAAV?$allocator@UBMQuestRandOpt_DATA@@@0@PAUBMQuestRandOpt_DATA@@ABU2@@Z ; std::_Cons_val<std::allocator<BMQuestRandOpt_DATA>,BMQuestRandOpt_DATA,BMQuestRandOpt_DATA const &>
  00063	83 c4 0c	 add	 esp, 12			; 0000000cH

; 996  : 			++this->_Mylast;

  00066	83 46 04 20	 add	 DWORD PTR [esi+4], 32	; 00000020H
  0006a	5f		 pop	 edi
  0006b	5e		 pop	 esi

; 997  : 			}
; 998  : 		}

  0006c	5d		 pop	 ebp
  0006d	c2 04 00	 ret	 4
?push_back@?$vector@UBMQuestRandOpt_DATA@@V?$allocator@UBMQuestRandOpt_DATA@@@std@@@std@@QAEXABUBMQuestRandOpt_DATA@@@Z ENDP ; std::vector<BMQuestRandOpt_DATA,std::allocator<BMQuestRandOpt_DATA> >::push_back
_TEXT	ENDS
PUBLIC	??_C@_0BI@HDMMBKBM@?$CFd?5?$CFd?5?$CFd?5?$CFd?5?$CFd?5?$CFd?5?$CFd?5?$CFd?$AA@ ; `string'
PUBLIC	??_C@_02DKCKIIND@?$CFs?$AA@			; `string'
PUBLIC	??_C@_0BP@KENEOMOO@?$CFd?5?$CFd?5?$CFd?5?$CFd?5?$CFd?5?$CC?$CF?$FL?$FO?$CC?$FN?$CC?5?$CC?$CF?$FL?$FO?$CC?$FN?$CC?$AA@ ; `string'
PUBLIC	??_C@_0CD@MBFMLNLA@Data?2ZtData?2BMQuest?4ini?5Load?5Err@ ; `string'
PUBLIC	??_C@_0P@BPENEPNJ@CRITICAL?5ERROR?$AA@		; `string'
PUBLIC	??_C@_01KDCPPGHE@r?$AA@				; `string'
PUBLIC	__$ArrayPad$
PUBLIC	?StartUP@cBMQuest@@QAEXXZ			; cBMQuest::StartUP
EXTRN	_fclose:PROC
EXTRN	_sscanf:PROC
EXTRN	?Zt_IsBadFileLine@@YA_NPADAAH@Z:PROC		; Zt_IsBadFileLine
EXTRN	_fgets:PROC
EXTRN	_feof:PROC
EXTRN	__imp__MessageBoxA@16:PROC
EXTRN	_fopen:PROC
EXTRN	?g_ZtLicense@@3VCZtLicense@@A:BYTE		; g_ZtLicense
;	COMDAT ??_C@_0BI@HDMMBKBM@?$CFd?5?$CFd?5?$CFd?5?$CFd?5?$CFd?5?$CFd?5?$CFd?5?$CFd?$AA@
; File e:\work\tranet_version\gs\gameserver\bmquest.cpp
CONST	SEGMENT
??_C@_0BI@HDMMBKBM@?$CFd?5?$CFd?5?$CFd?5?$CFd?5?$CFd?5?$CFd?5?$CFd?5?$CFd?$AA@ DB '%'
	DB	'd %d %d %d %d %d %d %d', 00H		; `string'
CONST	ENDS
;	COMDAT ??_C@_02DKCKIIND@?$CFs?$AA@
CONST	SEGMENT
??_C@_02DKCKIIND@?$CFs?$AA@ DB '%s', 00H		; `string'
CONST	ENDS
;	COMDAT ??_C@_0BP@KENEOMOO@?$CFd?5?$CFd?5?$CFd?5?$CFd?5?$CFd?5?$CC?$CF?$FL?$FO?$CC?$FN?$CC?5?$CC?$CF?$FL?$FO?$CC?$FN?$CC?$AA@
CONST	SEGMENT
??_C@_0BP@KENEOMOO@?$CFd?5?$CFd?5?$CFd?5?$CFd?5?$CFd?5?$CC?$CF?$FL?$FO?$CC?$FN?$CC?5?$CC?$CF?$FL?$FO?$CC?$FN?$CC?$AA@ DB '%'
	DB	'd %d %d %d %d "%[^"]" "%[^"]"', 00H		; `string'
CONST	ENDS
;	COMDAT ??_C@_0CD@MBFMLNLA@Data?2ZtData?2BMQuest?4ini?5Load?5Err@
CONST	SEGMENT
??_C@_0CD@MBFMLNLA@Data?2ZtData?2BMQuest?4ini?5Load?5Err@ DB 'Data\ZtData'
	DB	'\BMQuest.ini Load Error', 00H		; `string'
CONST	ENDS
;	COMDAT ??_C@_0P@BPENEPNJ@CRITICAL?5ERROR?$AA@
CONST	SEGMENT
??_C@_0P@BPENEPNJ@CRITICAL?5ERROR?$AA@ DB 'CRITICAL ERROR', 00H ; `string'
CONST	ENDS
;	COMDAT ??_C@_01KDCPPGHE@r?$AA@
CONST	SEGMENT
??_C@_01KDCPPGHE@r?$AA@ DB 'r', 00H			; `string'
; Function compile flags: /Ogtp
CONST	ENDS
;	COMDAT ?StartUP@cBMQuest@@QAEXXZ
_TEXT	SEGMENT
_file$ = -508						; size = 4
_Flag$ = -504						; size = 4
_n$203304 = -500					; size = 40
_n$203300 = -500					; size = 40
_n$203296 = -500					; size = 40
_n$203292 = -500					; size = 40
_n$203288 = -500					; size = 40
_n$203284 = -500					; size = 40
_n$203278 = -500					; size = 40
_list$203308 = -492					; size = 32
_Buff$ = -460						; size = 256
_mes$203305 = -204					; size = 100
_mes$203301 = -204					; size = 100
_mes$203297 = -204					; size = 100
_mes$203293 = -204					; size = 100
_mes$203289 = -204					; size = 100
_mes$203285 = -204					; size = 100
_mes2$203280 = -204					; size = 100
_mes2$203306 = -104					; size = 100
_mes2$203302 = -104					; size = 100
_mes2$203298 = -104					; size = 100
_mes2$203294 = -104					; size = 100
_mes2$203290 = -104					; size = 100
_mes2$203286 = -104					; size = 100
_mes$203279 = -104					; size = 100
__$ArrayPad$ = -4					; size = 4
?StartUP@cBMQuest@@QAEXXZ PROC				; cBMQuest::StartUP, COMDAT
; _this$ = ecx

; 43   : {

  00000	55		 push	 ebp
  00001	8b ec		 mov	 ebp, esp
  00003	81 ec fc 01 00
	00		 sub	 esp, 508		; 000001fcH
  00009	a1 00 00 00 00	 mov	 eax, DWORD PTR ___security_cookie
  0000e	33 c5		 xor	 eax, ebp
  00010	89 45 fc	 mov	 DWORD PTR __$ArrayPad$[ebp], eax
  00013	53		 push	 ebx

; 44   : 	if(!g_ZtLicense.user.BMQuest)

  00014	33 db		 xor	 ebx, ebx
  00016	56		 push	 esi
  00017	8b f1		 mov	 esi, ecx
  00019	38 1d de 00 00
	00		 cmp	 BYTE PTR ?g_ZtLicense@@3VCZtLicense@@A+222, bl
  0001f	75 16		 jne	 SHORT $LN14@StartUP

; 45   : 	{
; 46   : 		Enable = false;

  00021	89 9e 00 db 1a
	00		 mov	 DWORD PTR [esi+1760000], ebx
  00027	5e		 pop	 esi
  00028	5b		 pop	 ebx

; 210  : }

  00029	8b 4d fc	 mov	 ecx, DWORD PTR __$ArrayPad$[ebp]
  0002c	33 cd		 xor	 ecx, ebp
  0002e	e8 00 00 00 00	 call	 @__security_check_cookie@4
  00033	8b e5		 mov	 esp, ebp
  00035	5d		 pop	 ebp
  00036	c3		 ret	 0
$LN14@StartUP:

; 47   : 		return;
; 48   : 	}
; 49   : 
; 50   : 	StartConfig();

  00037	e8 00 00 00 00	 call	 ?StartConfig@cBMQuest@@QAEXXZ ; cBMQuest::StartConfig

; 51   : 
; 52   : 	if(!Enable)

  0003c	39 9e 00 db 1a
	00		 cmp	 DWORD PTR [esi+1760000], ebx
  00042	0f 84 01 09 00
	00		 je	 $LN15@StartUP

; 53   : 	{
; 54   : 		return;
; 55   : 	}
; 56   : 
; 57   : 	this->m_RandOpt.clear();

  00048	57		 push	 edi
  00049	8d 8e 40 db 1a
	00		 lea	 ecx, DWORD PTR [esi+1760064]
  0004f	e8 00 00 00 00	 call	 ?clear@?$vector@UBMQuestRandOpt_DATA@@V?$allocator@UBMQuestRandOpt_DATA@@@std@@@std@@QAEXXZ ; std::vector<BMQuestRandOpt_DATA,std::allocator<BMQuestRandOpt_DATA> >::clear

; 58   : 
; 59   : 	FILE *file;
; 60   : 	file = fopen(_DIR_BMQUEST,"r");

  00054	68 00 00 00 00	 push	 OFFSET ??_C@_01KDCPPGHE@r?$AA@
  00059	68 00 00 00 00	 push	 OFFSET ??_C@_0BL@ICONHKC@?4?4?2Data?2ZtData?2BMQuest?4ini?$AA@
  0005e	e8 00 00 00 00	 call	 _fopen
  00063	8b f8		 mov	 edi, eax
  00065	83 c4 08	 add	 esp, 8
  00068	89 bd 04 fe ff
	ff		 mov	 DWORD PTR _file$[ebp], edi

; 61   : 	if(file == NULL)

  0006e	3b fb		 cmp	 edi, ebx
  00070	75 23		 jne	 SHORT $LN12@StartUP

; 62   : 	{
; 63   : 		MessageBoxA(0,"Data\\ZtData\\BMQuest.ini Load Error","CRITICAL ERROR",0);

  00072	53		 push	 ebx
  00073	68 00 00 00 00	 push	 OFFSET ??_C@_0P@BPENEPNJ@CRITICAL?5ERROR?$AA@
  00078	68 00 00 00 00	 push	 OFFSET ??_C@_0CD@MBFMLNLA@Data?2ZtData?2BMQuest?4ini?5Load?5Err@
  0007d	53		 push	 ebx
  0007e	ff 15 00 00 00
	00		 call	 DWORD PTR __imp__MessageBoxA@16
  00084	5f		 pop	 edi
  00085	5e		 pop	 esi
  00086	5b		 pop	 ebx

; 210  : }

  00087	8b 4d fc	 mov	 ecx, DWORD PTR __$ArrayPad$[ebp]
  0008a	33 cd		 xor	 ecx, ebp
  0008c	e8 00 00 00 00	 call	 @__security_check_cookie@4
  00091	8b e5		 mov	 esp, ebp
  00093	5d		 pop	 ebp
  00094	c3		 ret	 0
$LN12@StartUP:

; 64   : 		return;
; 65   : 	}
; 66   : 	char Buff[256];
; 67   : 	int Flag = 0;
; 68   : 	Count[1] = 0;
; 69   : 	Count[2] = 0;
; 70   : 	Count[3] = 0;
; 71   : 	Count[4] = 0;
; 72   : 	Count[5] = 0;
; 73   : 	Count[6] = 0;
; 74   : 
; 75   : 	while(!feof(file)) //     ??

  00095	57		 push	 edi
  00096	89 9d 08 fe ff
	ff		 mov	 DWORD PTR _Flag$[ebp], ebx
  0009c	89 9e 1c db 1a
	00		 mov	 DWORD PTR [esi+1760028], ebx
  000a2	89 9e 20 db 1a
	00		 mov	 DWORD PTR [esi+1760032], ebx
  000a8	89 9e 24 db 1a
	00		 mov	 DWORD PTR [esi+1760036], ebx
  000ae	89 9e 28 db 1a
	00		 mov	 DWORD PTR [esi+1760040], ebx
  000b4	89 9e 2c db 1a
	00		 mov	 DWORD PTR [esi+1760044], ebx
  000ba	89 9e 30 db 1a
	00		 mov	 DWORD PTR [esi+1760048], ebx
  000c0	e8 00 00 00 00	 call	 _feof
  000c5	83 c4 04	 add	 esp, 4
  000c8	85 c0		 test	 eax, eax
  000ca	0f 85 6f 08 00
	00		 jne	 $LN10@StartUP
  000d0	8d 78 01	 lea	 edi, DWORD PTR [eax+1]
$LL11@StartUP:

; 76   : 	{
; 77   : 		fgets(Buff,256,file);//  ?

  000d3	8b 9d 04 fe ff
	ff		 mov	 ebx, DWORD PTR _file$[ebp]
  000d9	53		 push	 ebx
  000da	8d 85 34 fe ff
	ff		 lea	 eax, DWORD PTR _Buff$[ebp]
  000e0	68 00 01 00 00	 push	 256			; 00000100H
  000e5	50		 push	 eax
  000e6	e8 00 00 00 00	 call	 _fgets

; 78   : 		if(Zt_IsBadFileLine(Buff, Flag)) // 

  000eb	8d 8d 08 fe ff
	ff		 lea	 ecx, DWORD PTR _Flag$[ebp]
  000f1	51		 push	 ecx
  000f2	8d 95 34 fe ff
	ff		 lea	 edx, DWORD PTR _Buff$[ebp]
  000f8	52		 push	 edx
  000f9	e8 00 00 00 00	 call	 ?Zt_IsBadFileLine@@YA_NPADAAH@Z ; Zt_IsBadFileLine
  000fe	83 c4 14	 add	 esp, 20			; 00000014H
  00101	84 c0		 test	 al, al
  00103	0f 85 23 08 00
	00		 jne	 $LN1@StartUP

; 79   : 			continue;
; 80   : 		if(Flag == 1)

  00109	39 bd 08 fe ff
	ff		 cmp	 DWORD PTR _Flag$[ebp], edi
  0010f	0f 85 0e 01 00
	00		 jne	 $LN8@StartUP

; 81   : 		{
; 82   : 			int n[10];
; 83   : 			char mes[100];
; 84   : 			char mes2[100];
; 85   : 			//gets(mes);
; 86   : 			sscanf(Buff,"%d %d %d %d %d \"%[^\"]\" \"%[^\"]\"",&n[0],&n[1],&n[2],&n[3],&n[4],&mes,&mes2);

  00115	8d 85 34 ff ff
	ff		 lea	 eax, DWORD PTR _mes2$203280[ebp]
  0011b	50		 push	 eax
  0011c	8d 4d 98	 lea	 ecx, DWORD PTR _mes$203279[ebp]
  0011f	51		 push	 ecx
  00120	8d 95 1c fe ff
	ff		 lea	 edx, DWORD PTR _n$203278[ebp+16]
  00126	52		 push	 edx
  00127	8d 85 18 fe ff
	ff		 lea	 eax, DWORD PTR _n$203278[ebp+12]
  0012d	50		 push	 eax
  0012e	8d 8d 14 fe ff
	ff		 lea	 ecx, DWORD PTR _n$203278[ebp+8]
  00134	51		 push	 ecx
  00135	8d 95 10 fe ff
	ff		 lea	 edx, DWORD PTR _n$203278[ebp+4]
  0013b	52		 push	 edx
  0013c	8d 85 0c fe ff
	ff		 lea	 eax, DWORD PTR _n$203278[ebp]
  00142	50		 push	 eax
  00143	8d 8d 34 fe ff
	ff		 lea	 ecx, DWORD PTR _Buff$[ebp]
  00149	68 00 00 00 00	 push	 OFFSET ??_C@_0BP@KENEOMOO@?$CFd?5?$CFd?5?$CFd?5?$CFd?5?$CFd?5?$CC?$CF?$FL?$FO?$CC?$FN?$CC?5?$CC?$CF?$FL?$FO?$CC?$FN?$CC?$AA@
  0014e	51		 push	 ecx
  0014f	e8 00 00 00 00	 call	 _sscanf

; 87   : 			Quest[1][Count[1]].Mob  = n[0];

  00154	8b 96 1c db 1a
	00		 mov	 edx, DWORD PTR [esi+1760028]
  0015a	8b 85 0c fe ff
	ff		 mov	 eax, DWORD PTR _n$203278[ebp]
  00160	81 c2 e8 03 00
	00		 add	 edx, 1000		; 000003e8H
  00166	69 d2 dc 00 00
	00		 imul	 edx, 220		; 000000dcH
  0016c	89 04 32	 mov	 DWORD PTR [edx+esi], eax

; 88   : 			Quest[1][Count[1]].Coun = n[1];

  0016f	8b 8e 1c db 1a
	00		 mov	 ecx, DWORD PTR [esi+1760028]
  00175	8b 95 10 fe ff
	ff		 mov	 edx, DWORD PTR _n$203278[ebp+4]
  0017b	69 c9 dc 00 00
	00		 imul	 ecx, 220		; 000000dcH
  00181	89 94 31 64 5b
	03 00		 mov	 DWORD PTR [ecx+esi+220004], edx

; 89   : 			Quest[1][Count[1]].proc = n[2];

  00188	8b 86 1c db 1a
	00		 mov	 eax, DWORD PTR [esi+1760028]
  0018e	8b 8d 14 fe ff
	ff		 mov	 ecx, DWORD PTR _n$203278[ebp+8]
  00194	69 c0 dc 00 00
	00		 imul	 eax, 220		; 000000dcH
  0019a	89 8c 30 68 5b
	03 00		 mov	 DWORD PTR [eax+esi+220008], ecx

; 90   : 			Quest[1][Count[1]].rew  = n[3];

  001a1	8b 96 1c db 1a
	00		 mov	 edx, DWORD PTR [esi+1760028]
  001a7	8b 85 18 fe ff
	ff		 mov	 eax, DWORD PTR _n$203278[ebp+12]
  001ad	69 d2 dc 00 00
	00		 imul	 edx, 220		; 000000dcH
  001b3	89 84 32 6c 5b
	03 00		 mov	 DWORD PTR [edx+esi+220012], eax

; 91   : 			Quest[1][Count[1]].gift = n[4];

  001ba	8b 8e 1c db 1a
	00		 mov	 ecx, DWORD PTR [esi+1760028]
  001c0	8b 95 1c fe ff
	ff		 mov	 edx, DWORD PTR _n$203278[ebp+16]
  001c6	69 c9 dc 00 00
	00		 imul	 ecx, 220		; 000000dcH
  001cc	89 94 31 70 5b
	03 00		 mov	 DWORD PTR [ecx+esi+220016], edx

; 92   : 			sprintf(Quest[1][Count[1]].msg,"%s",mes);

  001d3	8b 8e 1c db 1a
	00		 mov	 ecx, DWORD PTR [esi+1760028]
  001d9	69 c9 dc 00 00
	00		 imul	 ecx, 220		; 000000dcH
  001df	8d 45 98	 lea	 eax, DWORD PTR _mes$203279[ebp]
  001e2	50		 push	 eax
  001e3	8d 94 31 74 5b
	03 00		 lea	 edx, DWORD PTR [ecx+esi+220020]
  001ea	68 00 00 00 00	 push	 OFFSET ??_C@_02DKCKIIND@?$CFs?$AA@
  001ef	52		 push	 edx
  001f0	e8 00 00 00 00	 call	 _sprintf

; 93   : 			sprintf(Quest[1][Count[1]].msg2,"%s",mes2);

  001f5	8b 8e 1c db 1a
	00		 mov	 ecx, DWORD PTR [esi+1760028]
  001fb	69 c9 dc 00 00
	00		 imul	 ecx, 220		; 000000dcH
  00201	8d 85 34 ff ff
	ff		 lea	 eax, DWORD PTR _mes2$203280[ebp]
  00207	50		 push	 eax
  00208	8d 94 31 d8 5b
	03 00		 lea	 edx, DWORD PTR [ecx+esi+220120]
  0020f	68 00 00 00 00	 push	 OFFSET ??_C@_02DKCKIIND@?$CFs?$AA@
  00214	52		 push	 edx
  00215	e8 00 00 00 00	 call	 _sprintf
  0021a	83 c4 3c	 add	 esp, 60			; 0000003cH

; 94   : 			Count[1]++;

  0021d	01 be 1c db 1a
	00		 add	 DWORD PTR [esi+1760028], edi
$LN8@StartUP:

; 95   : 		}
; 96   : 		if(Flag == 2)

  00223	83 bd 08 fe ff
	ff 02		 cmp	 DWORD PTR _Flag$[ebp], 2
  0022a	0f 85 0e 01 00
	00		 jne	 $LN7@StartUP

; 97   : 		{
; 98   : 			int n[10];
; 99   : 			char mes[100];
; 100  : 			char mes2[100];
; 101  : 			//gets(mes);
; 102  : 			sscanf(Buff,"%d %d %d %d %d \"%[^\"]\" \"%[^\"]\"",&n[0],&n[1],&n[2],&n[3],&n[4],&mes,&mes2);

  00230	8d 45 98	 lea	 eax, DWORD PTR _mes2$203286[ebp]
  00233	50		 push	 eax
  00234	8d 8d 34 ff ff
	ff		 lea	 ecx, DWORD PTR _mes$203285[ebp]
  0023a	51		 push	 ecx
  0023b	8d 95 1c fe ff
	ff		 lea	 edx, DWORD PTR _n$203284[ebp+16]
  00241	52		 push	 edx
  00242	8d 85 18 fe ff
	ff		 lea	 eax, DWORD PTR _n$203284[ebp+12]
  00248	50		 push	 eax
  00249	8d 8d 14 fe ff
	ff		 lea	 ecx, DWORD PTR _n$203284[ebp+8]
  0024f	51		 push	 ecx
  00250	8d 95 10 fe ff
	ff		 lea	 edx, DWORD PTR _n$203284[ebp+4]
  00256	52		 push	 edx
  00257	8d 85 0c fe ff
	ff		 lea	 eax, DWORD PTR _n$203284[ebp]
  0025d	50		 push	 eax
  0025e	8d 8d 34 fe ff
	ff		 lea	 ecx, DWORD PTR _Buff$[ebp]
  00264	68 00 00 00 00	 push	 OFFSET ??_C@_0BP@KENEOMOO@?$CFd?5?$CFd?5?$CFd?5?$CFd?5?$CFd?5?$CC?$CF?$FL?$FO?$CC?$FN?$CC?5?$CC?$CF?$FL?$FO?$CC?$FN?$CC?$AA@
  00269	51		 push	 ecx
  0026a	e8 00 00 00 00	 call	 _sscanf

; 103  : 			Quest[2][Count[2]].Mob  = n[0];

  0026f	8b 96 20 db 1a
	00		 mov	 edx, DWORD PTR [esi+1760032]
  00275	8b 85 0c fe ff
	ff		 mov	 eax, DWORD PTR _n$203284[ebp]
  0027b	81 c2 d0 07 00
	00		 add	 edx, 2000		; 000007d0H
  00281	69 d2 dc 00 00
	00		 imul	 edx, 220		; 000000dcH
  00287	89 04 32	 mov	 DWORD PTR [edx+esi], eax

; 104  : 			Quest[2][Count[2]].Coun = n[1];

  0028a	8b 8e 20 db 1a
	00		 mov	 ecx, DWORD PTR [esi+1760032]
  00290	8b 95 10 fe ff
	ff		 mov	 edx, DWORD PTR _n$203284[ebp+4]
  00296	69 c9 dc 00 00
	00		 imul	 ecx, 220		; 000000dcH
  0029c	89 94 31 c4 b6
	06 00		 mov	 DWORD PTR [ecx+esi+440004], edx

; 105  : 			Quest[2][Count[2]].proc = n[2];

  002a3	8b 86 20 db 1a
	00		 mov	 eax, DWORD PTR [esi+1760032]
  002a9	8b 8d 14 fe ff
	ff		 mov	 ecx, DWORD PTR _n$203284[ebp+8]
  002af	69 c0 dc 00 00
	00		 imul	 eax, 220		; 000000dcH
  002b5	89 8c 30 c8 b6
	06 00		 mov	 DWORD PTR [eax+esi+440008], ecx

; 106  : 			Quest[2][Count[2]].rew  = n[3];

  002bc	8b 96 20 db 1a
	00		 mov	 edx, DWORD PTR [esi+1760032]
  002c2	8b 85 18 fe ff
	ff		 mov	 eax, DWORD PTR _n$203284[ebp+12]
  002c8	69 d2 dc 00 00
	00		 imul	 edx, 220		; 000000dcH
  002ce	89 84 32 cc b6
	06 00		 mov	 DWORD PTR [edx+esi+440012], eax

; 107  : 			Quest[2][Count[2]].gift = n[4];

  002d5	8b 8e 20 db 1a
	00		 mov	 ecx, DWORD PTR [esi+1760032]
  002db	8b 95 1c fe ff
	ff		 mov	 edx, DWORD PTR _n$203284[ebp+16]
  002e1	69 c9 dc 00 00
	00		 imul	 ecx, 220		; 000000dcH
  002e7	89 94 31 d0 b6
	06 00		 mov	 DWORD PTR [ecx+esi+440016], edx

; 108  : 			sprintf(Quest[2][Count[2]].msg,"%s",mes);

  002ee	8b 8e 20 db 1a
	00		 mov	 ecx, DWORD PTR [esi+1760032]
  002f4	69 c9 dc 00 00
	00		 imul	 ecx, 220		; 000000dcH
  002fa	8d 85 34 ff ff
	ff		 lea	 eax, DWORD PTR _mes$203285[ebp]
  00300	50		 push	 eax
  00301	8d 94 31 d4 b6
	06 00		 lea	 edx, DWORD PTR [ecx+esi+440020]
  00308	68 00 00 00 00	 push	 OFFSET ??_C@_02DKCKIIND@?$CFs?$AA@
  0030d	52		 push	 edx
  0030e	e8 00 00 00 00	 call	 _sprintf

; 109  : 			sprintf(Quest[2][Count[2]].msg2,"%s",mes2);

  00313	8b 8e 20 db 1a
	00		 mov	 ecx, DWORD PTR [esi+1760032]
  00319	69 c9 dc 00 00
	00		 imul	 ecx, 220		; 000000dcH
  0031f	8d 45 98	 lea	 eax, DWORD PTR _mes2$203286[ebp]
  00322	50		 push	 eax
  00323	8d 94 31 38 b7
	06 00		 lea	 edx, DWORD PTR [ecx+esi+440120]
  0032a	68 00 00 00 00	 push	 OFFSET ??_C@_02DKCKIIND@?$CFs?$AA@
  0032f	52		 push	 edx
  00330	e8 00 00 00 00	 call	 _sprintf
  00335	83 c4 3c	 add	 esp, 60			; 0000003cH

; 110  : 			Count[2]++;

  00338	01 be 20 db 1a
	00		 add	 DWORD PTR [esi+1760032], edi
$LN7@StartUP:

; 111  : 		}
; 112  : 		if(Flag == 3)

  0033e	83 bd 08 fe ff
	ff 03		 cmp	 DWORD PTR _Flag$[ebp], 3
  00345	0f 85 0e 01 00
	00		 jne	 $LN6@StartUP

; 113  : 		{
; 114  : 			int n[10];
; 115  : 			char mes[100];
; 116  : 			char mes2[100];
; 117  : 			//gets(mes);
; 118  : 			sscanf(Buff,"%d %d %d %d %d \"%[^\"]\" \"%[^\"]\"",&n[0],&n[1],&n[2],&n[3],&n[4],&mes,&mes2);

  0034b	8d 45 98	 lea	 eax, DWORD PTR _mes2$203290[ebp]
  0034e	50		 push	 eax
  0034f	8d 8d 34 ff ff
	ff		 lea	 ecx, DWORD PTR _mes$203289[ebp]
  00355	51		 push	 ecx
  00356	8d 95 1c fe ff
	ff		 lea	 edx, DWORD PTR _n$203288[ebp+16]
  0035c	52		 push	 edx
  0035d	8d 85 18 fe ff
	ff		 lea	 eax, DWORD PTR _n$203288[ebp+12]
  00363	50		 push	 eax
  00364	8d 8d 14 fe ff
	ff		 lea	 ecx, DWORD PTR _n$203288[ebp+8]
  0036a	51		 push	 ecx
  0036b	8d 95 10 fe ff
	ff		 lea	 edx, DWORD PTR _n$203288[ebp+4]
  00371	52		 push	 edx
  00372	8d 85 0c fe ff
	ff		 lea	 eax, DWORD PTR _n$203288[ebp]
  00378	50		 push	 eax
  00379	8d 8d 34 fe ff
	ff		 lea	 ecx, DWORD PTR _Buff$[ebp]
  0037f	68 00 00 00 00	 push	 OFFSET ??_C@_0BP@KENEOMOO@?$CFd?5?$CFd?5?$CFd?5?$CFd?5?$CFd?5?$CC?$CF?$FL?$FO?$CC?$FN?$CC?5?$CC?$CF?$FL?$FO?$CC?$FN?$CC?$AA@
  00384	51		 push	 ecx
  00385	e8 00 00 00 00	 call	 _sscanf

; 119  : 			Quest[3][Count[3]].Mob  = n[0];

  0038a	8b 96 24 db 1a
	00		 mov	 edx, DWORD PTR [esi+1760036]
  00390	8b 85 0c fe ff
	ff		 mov	 eax, DWORD PTR _n$203288[ebp]
  00396	81 c2 b8 0b 00
	00		 add	 edx, 3000		; 00000bb8H
  0039c	69 d2 dc 00 00
	00		 imul	 edx, 220		; 000000dcH
  003a2	89 04 32	 mov	 DWORD PTR [edx+esi], eax

; 120  : 			Quest[3][Count[3]].Coun = n[1];

  003a5	8b 8e 24 db 1a
	00		 mov	 ecx, DWORD PTR [esi+1760036]
  003ab	8b 95 10 fe ff
	ff		 mov	 edx, DWORD PTR _n$203288[ebp+4]
  003b1	69 c9 dc 00 00
	00		 imul	 ecx, 220		; 000000dcH
  003b7	89 94 31 24 12
	0a 00		 mov	 DWORD PTR [ecx+esi+660004], edx

; 121  : 			Quest[3][Count[3]].proc = n[2];

  003be	8b 86 24 db 1a
	00		 mov	 eax, DWORD PTR [esi+1760036]
  003c4	8b 8d 14 fe ff
	ff		 mov	 ecx, DWORD PTR _n$203288[ebp+8]
  003ca	69 c0 dc 00 00
	00		 imul	 eax, 220		; 000000dcH
  003d0	89 8c 30 28 12
	0a 00		 mov	 DWORD PTR [eax+esi+660008], ecx

; 122  : 			Quest[3][Count[3]].rew  = n[3];

  003d7	8b 96 24 db 1a
	00		 mov	 edx, DWORD PTR [esi+1760036]
  003dd	8b 85 18 fe ff
	ff		 mov	 eax, DWORD PTR _n$203288[ebp+12]
  003e3	69 d2 dc 00 00
	00		 imul	 edx, 220		; 000000dcH
  003e9	89 84 32 2c 12
	0a 00		 mov	 DWORD PTR [edx+esi+660012], eax

; 123  : 			Quest[3][Count[3]].gift = n[4];

  003f0	8b 8e 24 db 1a
	00		 mov	 ecx, DWORD PTR [esi+1760036]
  003f6	8b 95 1c fe ff
	ff		 mov	 edx, DWORD PTR _n$203288[ebp+16]
  003fc	69 c9 dc 00 00
	00		 imul	 ecx, 220		; 000000dcH
  00402	89 94 31 30 12
	0a 00		 mov	 DWORD PTR [ecx+esi+660016], edx

; 124  : 			sprintf(Quest[3][Count[3]].msg,"%s",mes);

  00409	8b 8e 24 db 1a
	00		 mov	 ecx, DWORD PTR [esi+1760036]
  0040f	69 c9 dc 00 00
	00		 imul	 ecx, 220		; 000000dcH
  00415	8d 85 34 ff ff
	ff		 lea	 eax, DWORD PTR _mes$203289[ebp]
  0041b	50		 push	 eax
  0041c	8d 94 31 34 12
	0a 00		 lea	 edx, DWORD PTR [ecx+esi+660020]
  00423	68 00 00 00 00	 push	 OFFSET ??_C@_02DKCKIIND@?$CFs?$AA@
  00428	52		 push	 edx
  00429	e8 00 00 00 00	 call	 _sprintf

; 125  : 			sprintf(Quest[3][Count[3]].msg2,"%s",mes2);

  0042e	8b 8e 24 db 1a
	00		 mov	 ecx, DWORD PTR [esi+1760036]
  00434	69 c9 dc 00 00
	00		 imul	 ecx, 220		; 000000dcH
  0043a	8d 45 98	 lea	 eax, DWORD PTR _mes2$203290[ebp]
  0043d	50		 push	 eax
  0043e	8d 94 31 98 12
	0a 00		 lea	 edx, DWORD PTR [ecx+esi+660120]
  00445	68 00 00 00 00	 push	 OFFSET ??_C@_02DKCKIIND@?$CFs?$AA@
  0044a	52		 push	 edx
  0044b	e8 00 00 00 00	 call	 _sprintf
  00450	83 c4 3c	 add	 esp, 60			; 0000003cH

; 126  : 			Count[3]++;

  00453	01 be 24 db 1a
	00		 add	 DWORD PTR [esi+1760036], edi
$LN6@StartUP:

; 127  : 		}
; 128  : 		if(Flag == 4)

  00459	83 bd 08 fe ff
	ff 04		 cmp	 DWORD PTR _Flag$[ebp], 4
  00460	0f 85 0e 01 00
	00		 jne	 $LN5@StartUP

; 129  : 		{
; 130  : 			int n[10];
; 131  : 			char mes[100];
; 132  : 			char mes2[100];
; 133  : 			//gets(mes);
; 134  : 			sscanf(Buff,"%d %d %d %d %d \"%[^\"]\" \"%[^\"]\"",&n[0],&n[1],&n[2],&n[3],&n[4],&mes,&mes2);

  00466	8d 45 98	 lea	 eax, DWORD PTR _mes2$203294[ebp]
  00469	50		 push	 eax
  0046a	8d 8d 34 ff ff
	ff		 lea	 ecx, DWORD PTR _mes$203293[ebp]
  00470	51		 push	 ecx
  00471	8d 95 1c fe ff
	ff		 lea	 edx, DWORD PTR _n$203292[ebp+16]
  00477	52		 push	 edx
  00478	8d 85 18 fe ff
	ff		 lea	 eax, DWORD PTR _n$203292[ebp+12]
  0047e	50		 push	 eax
  0047f	8d 8d 14 fe ff
	ff		 lea	 ecx, DWORD PTR _n$203292[ebp+8]
  00485	51		 push	 ecx
  00486	8d 95 10 fe ff
	ff		 lea	 edx, DWORD PTR _n$203292[ebp+4]
  0048c	52		 push	 edx
  0048d	8d 85 0c fe ff
	ff		 lea	 eax, DWORD PTR _n$203292[ebp]
  00493	50		 push	 eax
  00494	8d 8d 34 fe ff
	ff		 lea	 ecx, DWORD PTR _Buff$[ebp]
  0049a	68 00 00 00 00	 push	 OFFSET ??_C@_0BP@KENEOMOO@?$CFd?5?$CFd?5?$CFd?5?$CFd?5?$CFd?5?$CC?$CF?$FL?$FO?$CC?$FN?$CC?5?$CC?$CF?$FL?$FO?$CC?$FN?$CC?$AA@
  0049f	51		 push	 ecx
  004a0	e8 00 00 00 00	 call	 _sscanf

; 135  : 			Quest[4][Count[4]].Mob  = n[0];

  004a5	8b 96 28 db 1a
	00		 mov	 edx, DWORD PTR [esi+1760040]
  004ab	8b 85 0c fe ff
	ff		 mov	 eax, DWORD PTR _n$203292[ebp]
  004b1	81 c2 a0 0f 00
	00		 add	 edx, 4000		; 00000fa0H
  004b7	69 d2 dc 00 00
	00		 imul	 edx, 220		; 000000dcH
  004bd	89 04 32	 mov	 DWORD PTR [edx+esi], eax

; 136  : 			Quest[4][Count[4]].Coun = n[1];

  004c0	8b 8e 28 db 1a
	00		 mov	 ecx, DWORD PTR [esi+1760040]
  004c6	8b 95 10 fe ff
	ff		 mov	 edx, DWORD PTR _n$203292[ebp+4]
  004cc	69 c9 dc 00 00
	00		 imul	 ecx, 220		; 000000dcH
  004d2	89 94 31 84 6d
	0d 00		 mov	 DWORD PTR [ecx+esi+880004], edx

; 137  : 			Quest[4][Count[4]].proc = n[2];

  004d9	8b 86 28 db 1a
	00		 mov	 eax, DWORD PTR [esi+1760040]
  004df	8b 8d 14 fe ff
	ff		 mov	 ecx, DWORD PTR _n$203292[ebp+8]
  004e5	69 c0 dc 00 00
	00		 imul	 eax, 220		; 000000dcH
  004eb	89 8c 30 88 6d
	0d 00		 mov	 DWORD PTR [eax+esi+880008], ecx

; 138  : 			Quest[4][Count[4]].rew  = n[3];

  004f2	8b 96 28 db 1a
	00		 mov	 edx, DWORD PTR [esi+1760040]
  004f8	8b 85 18 fe ff
	ff		 mov	 eax, DWORD PTR _n$203292[ebp+12]
  004fe	69 d2 dc 00 00
	00		 imul	 edx, 220		; 000000dcH
  00504	89 84 32 8c 6d
	0d 00		 mov	 DWORD PTR [edx+esi+880012], eax

; 139  : 			Quest[4][Count[4]].gift = n[4];

  0050b	8b 8e 28 db 1a
	00		 mov	 ecx, DWORD PTR [esi+1760040]
  00511	8b 95 1c fe ff
	ff		 mov	 edx, DWORD PTR _n$203292[ebp+16]
  00517	69 c9 dc 00 00
	00		 imul	 ecx, 220		; 000000dcH
  0051d	89 94 31 90 6d
	0d 00		 mov	 DWORD PTR [ecx+esi+880016], edx

; 140  : 			sprintf(Quest[4][Count[4]].msg,"%s",mes);

  00524	8b 8e 28 db 1a
	00		 mov	 ecx, DWORD PTR [esi+1760040]
  0052a	69 c9 dc 00 00
	00		 imul	 ecx, 220		; 000000dcH
  00530	8d 85 34 ff ff
	ff		 lea	 eax, DWORD PTR _mes$203293[ebp]
  00536	50		 push	 eax
  00537	8d 94 31 94 6d
	0d 00		 lea	 edx, DWORD PTR [ecx+esi+880020]
  0053e	68 00 00 00 00	 push	 OFFSET ??_C@_02DKCKIIND@?$CFs?$AA@
  00543	52		 push	 edx
  00544	e8 00 00 00 00	 call	 _sprintf

; 141  : 			sprintf(Quest[4][Count[4]].msg2,"%s",mes2);

  00549	8b 8e 28 db 1a
	00		 mov	 ecx, DWORD PTR [esi+1760040]
  0054f	69 c9 dc 00 00
	00		 imul	 ecx, 220		; 000000dcH
  00555	8d 45 98	 lea	 eax, DWORD PTR _mes2$203294[ebp]
  00558	50		 push	 eax
  00559	8d 94 31 f8 6d
	0d 00		 lea	 edx, DWORD PTR [ecx+esi+880120]
  00560	68 00 00 00 00	 push	 OFFSET ??_C@_02DKCKIIND@?$CFs?$AA@
  00565	52		 push	 edx
  00566	e8 00 00 00 00	 call	 _sprintf
  0056b	83 c4 3c	 add	 esp, 60			; 0000003cH

; 142  : 			Count[4]++;

  0056e	01 be 28 db 1a
	00		 add	 DWORD PTR [esi+1760040], edi
$LN5@StartUP:

; 143  : 		}
; 144  : 		if(Flag == 5)

  00574	83 bd 08 fe ff
	ff 05		 cmp	 DWORD PTR _Flag$[ebp], 5
  0057b	0f 85 0e 01 00
	00		 jne	 $LN4@StartUP

; 145  : 		{
; 146  : 			int n[10];
; 147  : 			char mes[100];
; 148  : 			char mes2[100];
; 149  : 			//gets(mes);
; 150  : 			sscanf(Buff,"%d %d %d %d %d \"%[^\"]\" \"%[^\"]\"",&n[0],&n[1],&n[2],&n[3],&n[4],&mes,&mes2);

  00581	8d 45 98	 lea	 eax, DWORD PTR _mes2$203298[ebp]
  00584	50		 push	 eax
  00585	8d 8d 34 ff ff
	ff		 lea	 ecx, DWORD PTR _mes$203297[ebp]
  0058b	51		 push	 ecx
  0058c	8d 95 1c fe ff
	ff		 lea	 edx, DWORD PTR _n$203296[ebp+16]
  00592	52		 push	 edx
  00593	8d 85 18 fe ff
	ff		 lea	 eax, DWORD PTR _n$203296[ebp+12]
  00599	50		 push	 eax
  0059a	8d 8d 14 fe ff
	ff		 lea	 ecx, DWORD PTR _n$203296[ebp+8]
  005a0	51		 push	 ecx
  005a1	8d 95 10 fe ff
	ff		 lea	 edx, DWORD PTR _n$203296[ebp+4]
  005a7	52		 push	 edx
  005a8	8d 85 0c fe ff
	ff		 lea	 eax, DWORD PTR _n$203296[ebp]
  005ae	50		 push	 eax
  005af	8d 8d 34 fe ff
	ff		 lea	 ecx, DWORD PTR _Buff$[ebp]
  005b5	68 00 00 00 00	 push	 OFFSET ??_C@_0BP@KENEOMOO@?$CFd?5?$CFd?5?$CFd?5?$CFd?5?$CFd?5?$CC?$CF?$FL?$FO?$CC?$FN?$CC?5?$CC?$CF?$FL?$FO?$CC?$FN?$CC?$AA@
  005ba	51		 push	 ecx
  005bb	e8 00 00 00 00	 call	 _sscanf

; 151  : 			Quest[5][Count[5]].Mob  = n[0];

  005c0	8b 96 2c db 1a
	00		 mov	 edx, DWORD PTR [esi+1760044]
  005c6	8b 85 0c fe ff
	ff		 mov	 eax, DWORD PTR _n$203296[ebp]
  005cc	81 c2 88 13 00
	00		 add	 edx, 5000		; 00001388H
  005d2	69 d2 dc 00 00
	00		 imul	 edx, 220		; 000000dcH
  005d8	89 04 32	 mov	 DWORD PTR [edx+esi], eax

; 152  : 			Quest[5][Count[5]].Coun = n[1];

  005db	8b 8e 2c db 1a
	00		 mov	 ecx, DWORD PTR [esi+1760044]
  005e1	8b 95 10 fe ff
	ff		 mov	 edx, DWORD PTR _n$203296[ebp+4]
  005e7	69 c9 dc 00 00
	00		 imul	 ecx, 220		; 000000dcH
  005ed	89 94 31 e4 c8
	10 00		 mov	 DWORD PTR [ecx+esi+1100004], edx

; 153  : 			Quest[5][Count[5]].proc = n[2];

  005f4	8b 86 2c db 1a
	00		 mov	 eax, DWORD PTR [esi+1760044]
  005fa	8b 8d 14 fe ff
	ff		 mov	 ecx, DWORD PTR _n$203296[ebp+8]
  00600	69 c0 dc 00 00
	00		 imul	 eax, 220		; 000000dcH
  00606	89 8c 30 e8 c8
	10 00		 mov	 DWORD PTR [eax+esi+1100008], ecx

; 154  : 			Quest[5][Count[5]].rew  = n[3];

  0060d	8b 96 2c db 1a
	00		 mov	 edx, DWORD PTR [esi+1760044]
  00613	8b 85 18 fe ff
	ff		 mov	 eax, DWORD PTR _n$203296[ebp+12]
  00619	69 d2 dc 00 00
	00		 imul	 edx, 220		; 000000dcH
  0061f	89 84 32 ec c8
	10 00		 mov	 DWORD PTR [edx+esi+1100012], eax

; 155  : 			Quest[5][Count[5]].gift = n[4];

  00626	8b 8e 2c db 1a
	00		 mov	 ecx, DWORD PTR [esi+1760044]
  0062c	8b 95 1c fe ff
	ff		 mov	 edx, DWORD PTR _n$203296[ebp+16]
  00632	69 c9 dc 00 00
	00		 imul	 ecx, 220		; 000000dcH
  00638	89 94 31 f0 c8
	10 00		 mov	 DWORD PTR [ecx+esi+1100016], edx

; 156  : 			sprintf(Quest[5][Count[5]].msg,"%s",mes);

  0063f	8b 8e 2c db 1a
	00		 mov	 ecx, DWORD PTR [esi+1760044]
  00645	69 c9 dc 00 00
	00		 imul	 ecx, 220		; 000000dcH
  0064b	8d 85 34 ff ff
	ff		 lea	 eax, DWORD PTR _mes$203297[ebp]
  00651	50		 push	 eax
  00652	8d 94 31 f4 c8
	10 00		 lea	 edx, DWORD PTR [ecx+esi+1100020]
  00659	68 00 00 00 00	 push	 OFFSET ??_C@_02DKCKIIND@?$CFs?$AA@
  0065e	52		 push	 edx
  0065f	e8 00 00 00 00	 call	 _sprintf

; 157  : 			sprintf(Quest[5][Count[5]].msg2,"%s",mes2);

  00664	8b 8e 2c db 1a
	00		 mov	 ecx, DWORD PTR [esi+1760044]
  0066a	69 c9 dc 00 00
	00		 imul	 ecx, 220		; 000000dcH
  00670	8d 45 98	 lea	 eax, DWORD PTR _mes2$203298[ebp]
  00673	50		 push	 eax
  00674	8d 94 31 58 c9
	10 00		 lea	 edx, DWORD PTR [ecx+esi+1100120]
  0067b	68 00 00 00 00	 push	 OFFSET ??_C@_02DKCKIIND@?$CFs?$AA@
  00680	52		 push	 edx
  00681	e8 00 00 00 00	 call	 _sprintf
  00686	83 c4 3c	 add	 esp, 60			; 0000003cH

; 158  : 			Count[5]++;

  00689	01 be 2c db 1a
	00		 add	 DWORD PTR [esi+1760044], edi
$LN4@StartUP:

; 159  : 		}
; 160  : 		if(Flag == 6)

  0068f	83 bd 08 fe ff
	ff 06		 cmp	 DWORD PTR _Flag$[ebp], 6
  00696	0f 85 0e 01 00
	00		 jne	 $LN3@StartUP

; 161  : 		{
; 162  : 			int n[10];
; 163  : 			char mes[100];
; 164  : 			char mes2[100];
; 165  : 			//gets(mes);
; 166  : 			sscanf(Buff,"%d %d %d %d %d \"%[^\"]\" \"%[^\"]\"",&n[0],&n[1],&n[2],&n[3],&n[4],&mes,&mes2);

  0069c	8d 45 98	 lea	 eax, DWORD PTR _mes2$203302[ebp]
  0069f	50		 push	 eax
  006a0	8d 8d 34 ff ff
	ff		 lea	 ecx, DWORD PTR _mes$203301[ebp]
  006a6	51		 push	 ecx
  006a7	8d 95 1c fe ff
	ff		 lea	 edx, DWORD PTR _n$203300[ebp+16]
  006ad	52		 push	 edx
  006ae	8d 85 18 fe ff
	ff		 lea	 eax, DWORD PTR _n$203300[ebp+12]
  006b4	50		 push	 eax
  006b5	8d 8d 14 fe ff
	ff		 lea	 ecx, DWORD PTR _n$203300[ebp+8]
  006bb	51		 push	 ecx
  006bc	8d 95 10 fe ff
	ff		 lea	 edx, DWORD PTR _n$203300[ebp+4]
  006c2	52		 push	 edx
  006c3	8d 85 0c fe ff
	ff		 lea	 eax, DWORD PTR _n$203300[ebp]
  006c9	50		 push	 eax
  006ca	8d 8d 34 fe ff
	ff		 lea	 ecx, DWORD PTR _Buff$[ebp]
  006d0	68 00 00 00 00	 push	 OFFSET ??_C@_0BP@KENEOMOO@?$CFd?5?$CFd?5?$CFd?5?$CFd?5?$CFd?5?$CC?$CF?$FL?$FO?$CC?$FN?$CC?5?$CC?$CF?$FL?$FO?$CC?$FN?$CC?$AA@
  006d5	51		 push	 ecx
  006d6	e8 00 00 00 00	 call	 _sscanf

; 167  : 			Quest[6][Count[6]].Mob  = n[0];

  006db	8b 96 30 db 1a
	00		 mov	 edx, DWORD PTR [esi+1760048]
  006e1	8b 85 0c fe ff
	ff		 mov	 eax, DWORD PTR _n$203300[ebp]
  006e7	81 c2 70 17 00
	00		 add	 edx, 6000		; 00001770H
  006ed	69 d2 dc 00 00
	00		 imul	 edx, 220		; 000000dcH
  006f3	89 04 32	 mov	 DWORD PTR [edx+esi], eax

; 168  : 			Quest[6][Count[6]].Coun = n[1];

  006f6	8b 8e 30 db 1a
	00		 mov	 ecx, DWORD PTR [esi+1760048]
  006fc	8b 95 10 fe ff
	ff		 mov	 edx, DWORD PTR _n$203300[ebp+4]
  00702	69 c9 dc 00 00
	00		 imul	 ecx, 220		; 000000dcH
  00708	89 94 31 44 24
	14 00		 mov	 DWORD PTR [ecx+esi+1320004], edx

; 169  : 			Quest[6][Count[6]].proc = n[2];

  0070f	8b 86 30 db 1a
	00		 mov	 eax, DWORD PTR [esi+1760048]
  00715	8b 8d 14 fe ff
	ff		 mov	 ecx, DWORD PTR _n$203300[ebp+8]
  0071b	69 c0 dc 00 00
	00		 imul	 eax, 220		; 000000dcH
  00721	89 8c 30 48 24
	14 00		 mov	 DWORD PTR [eax+esi+1320008], ecx

; 170  : 			Quest[6][Count[6]].rew  = n[3];

  00728	8b 96 30 db 1a
	00		 mov	 edx, DWORD PTR [esi+1760048]
  0072e	8b 85 18 fe ff
	ff		 mov	 eax, DWORD PTR _n$203300[ebp+12]
  00734	69 d2 dc 00 00
	00		 imul	 edx, 220		; 000000dcH
  0073a	89 84 32 4c 24
	14 00		 mov	 DWORD PTR [edx+esi+1320012], eax

; 171  : 			Quest[6][Count[6]].gift = n[4];

  00741	8b 8e 30 db 1a
	00		 mov	 ecx, DWORD PTR [esi+1760048]
  00747	8b 95 1c fe ff
	ff		 mov	 edx, DWORD PTR _n$203300[ebp+16]
  0074d	69 c9 dc 00 00
	00		 imul	 ecx, 220		; 000000dcH
  00753	89 94 31 50 24
	14 00		 mov	 DWORD PTR [ecx+esi+1320016], edx

; 172  : 			sprintf(Quest[6][Count[6]].msg,"%s",mes);

  0075a	8b 8e 30 db 1a
	00		 mov	 ecx, DWORD PTR [esi+1760048]
  00760	69 c9 dc 00 00
	00		 imul	 ecx, 220		; 000000dcH
  00766	8d 85 34 ff ff
	ff		 lea	 eax, DWORD PTR _mes$203301[ebp]
  0076c	50		 push	 eax
  0076d	8d 94 31 54 24
	14 00		 lea	 edx, DWORD PTR [ecx+esi+1320020]
  00774	68 00 00 00 00	 push	 OFFSET ??_C@_02DKCKIIND@?$CFs?$AA@
  00779	52		 push	 edx
  0077a	e8 00 00 00 00	 call	 _sprintf

; 173  : 			sprintf(Quest[6][Count[6]].msg2,"%s",mes2);

  0077f	8b 8e 30 db 1a
	00		 mov	 ecx, DWORD PTR [esi+1760048]
  00785	69 c9 dc 00 00
	00		 imul	 ecx, 220		; 000000dcH
  0078b	8d 45 98	 lea	 eax, DWORD PTR _mes2$203302[ebp]
  0078e	50		 push	 eax
  0078f	8d 94 31 b8 24
	14 00		 lea	 edx, DWORD PTR [ecx+esi+1320120]
  00796	68 00 00 00 00	 push	 OFFSET ??_C@_02DKCKIIND@?$CFs?$AA@
  0079b	52		 push	 edx
  0079c	e8 00 00 00 00	 call	 _sprintf
  007a1	83 c4 3c	 add	 esp, 60			; 0000003cH

; 174  : 			Count[6]++;

  007a4	01 be 30 db 1a
	00		 add	 DWORD PTR [esi+1760048], edi
$LN3@StartUP:

; 175  : 		}
; 176  : 		if(Flag == 7)

  007aa	83 bd 08 fe ff
	ff 07		 cmp	 DWORD PTR _Flag$[ebp], 7
  007b1	0f 85 0e 01 00
	00		 jne	 $LN2@StartUP

; 177  : 		{
; 178  : 			int n[10];
; 179  : 			char mes[100];
; 180  : 			char mes2[100];
; 181  : 			//gets(mes);
; 182  : 			sscanf(Buff,"%d %d %d %d %d \"%[^\"]\" \"%[^\"]\"",&n[0],&n[1],&n[2],&n[3],&n[4],&mes,&mes2);

  007b7	8d 45 98	 lea	 eax, DWORD PTR _mes2$203306[ebp]
  007ba	50		 push	 eax
  007bb	8d 8d 34 ff ff
	ff		 lea	 ecx, DWORD PTR _mes$203305[ebp]
  007c1	51		 push	 ecx
  007c2	8d 95 1c fe ff
	ff		 lea	 edx, DWORD PTR _n$203304[ebp+16]
  007c8	52		 push	 edx
  007c9	8d 85 18 fe ff
	ff		 lea	 eax, DWORD PTR _n$203304[ebp+12]
  007cf	50		 push	 eax
  007d0	8d 8d 14 fe ff
	ff		 lea	 ecx, DWORD PTR _n$203304[ebp+8]
  007d6	51		 push	 ecx
  007d7	8d 95 10 fe ff
	ff		 lea	 edx, DWORD PTR _n$203304[ebp+4]
  007dd	52		 push	 edx
  007de	8d 85 0c fe ff
	ff		 lea	 eax, DWORD PTR _n$203304[ebp]
  007e4	50		 push	 eax
  007e5	8d 8d 34 fe ff
	ff		 lea	 ecx, DWORD PTR _Buff$[ebp]
  007eb	68 00 00 00 00	 push	 OFFSET ??_C@_0BP@KENEOMOO@?$CFd?5?$CFd?5?$CFd?5?$CFd?5?$CFd?5?$CC?$CF?$FL?$FO?$CC?$FN?$CC?5?$CC?$CF?$FL?$FO?$CC?$FN?$CC?$AA@
  007f0	51		 push	 ecx
  007f1	e8 00 00 00 00	 call	 _sscanf

; 183  : 			Quest[7][Count[7]].Mob  = n[0];

  007f6	8b 96 34 db 1a
	00		 mov	 edx, DWORD PTR [esi+1760052]
  007fc	8b 85 0c fe ff
	ff		 mov	 eax, DWORD PTR _n$203304[ebp]
  00802	81 c2 58 1b 00
	00		 add	 edx, 7000		; 00001b58H
  00808	69 d2 dc 00 00
	00		 imul	 edx, 220		; 000000dcH
  0080e	89 04 32	 mov	 DWORD PTR [edx+esi], eax

; 184  : 			Quest[7][Count[7]].Coun = n[1];

  00811	8b 8e 34 db 1a
	00		 mov	 ecx, DWORD PTR [esi+1760052]
  00817	8b 95 10 fe ff
	ff		 mov	 edx, DWORD PTR _n$203304[ebp+4]
  0081d	69 c9 dc 00 00
	00		 imul	 ecx, 220		; 000000dcH
  00823	89 94 31 a4 7f
	17 00		 mov	 DWORD PTR [ecx+esi+1540004], edx

; 185  : 			Quest[7][Count[7]].proc = n[2];

  0082a	8b 86 34 db 1a
	00		 mov	 eax, DWORD PTR [esi+1760052]
  00830	8b 8d 14 fe ff
	ff		 mov	 ecx, DWORD PTR _n$203304[ebp+8]
  00836	69 c0 dc 00 00
	00		 imul	 eax, 220		; 000000dcH
  0083c	89 8c 30 a8 7f
	17 00		 mov	 DWORD PTR [eax+esi+1540008], ecx

; 186  : 			Quest[7][Count[7]].rew  = n[3];

  00843	8b 96 34 db 1a
	00		 mov	 edx, DWORD PTR [esi+1760052]
  00849	8b 85 18 fe ff
	ff		 mov	 eax, DWORD PTR _n$203304[ebp+12]
  0084f	69 d2 dc 00 00
	00		 imul	 edx, 220		; 000000dcH
  00855	89 84 32 ac 7f
	17 00		 mov	 DWORD PTR [edx+esi+1540012], eax

; 187  : 			Quest[7][Count[7]].gift = n[4];

  0085c	8b 8e 34 db 1a
	00		 mov	 ecx, DWORD PTR [esi+1760052]
  00862	8b 95 1c fe ff
	ff		 mov	 edx, DWORD PTR _n$203304[ebp+16]
  00868	69 c9 dc 00 00
	00		 imul	 ecx, 220		; 000000dcH
  0086e	89 94 31 b0 7f
	17 00		 mov	 DWORD PTR [ecx+esi+1540016], edx

; 188  : 			sprintf(Quest[7][Count[7]].msg,"%s",mes);

  00875	8b 8e 34 db 1a
	00		 mov	 ecx, DWORD PTR [esi+1760052]
  0087b	69 c9 dc 00 00
	00		 imul	 ecx, 220		; 000000dcH
  00881	8d 85 34 ff ff
	ff		 lea	 eax, DWORD PTR _mes$203305[ebp]
  00887	50		 push	 eax
  00888	8d 94 31 b4 7f
	17 00		 lea	 edx, DWORD PTR [ecx+esi+1540020]
  0088f	68 00 00 00 00	 push	 OFFSET ??_C@_02DKCKIIND@?$CFs?$AA@
  00894	52		 push	 edx
  00895	e8 00 00 00 00	 call	 _sprintf

; 189  : 			sprintf(Quest[7][Count[7]].msg2,"%s",mes2);

  0089a	8b 8e 34 db 1a
	00		 mov	 ecx, DWORD PTR [esi+1760052]
  008a0	69 c9 dc 00 00
	00		 imul	 ecx, 220		; 000000dcH
  008a6	8d 45 98	 lea	 eax, DWORD PTR _mes2$203306[ebp]
  008a9	50		 push	 eax
  008aa	8d 94 31 18 80
	17 00		 lea	 edx, DWORD PTR [ecx+esi+1540120]
  008b1	68 00 00 00 00	 push	 OFFSET ??_C@_02DKCKIIND@?$CFs?$AA@
  008b6	52		 push	 edx
  008b7	e8 00 00 00 00	 call	 _sprintf
  008bc	83 c4 3c	 add	 esp, 60			; 0000003cH

; 190  : 			Count[7]++;

  008bf	01 be 34 db 1a
	00		 add	 DWORD PTR [esi+1760052], edi
$LN2@StartUP:

; 191  : 		}
; 192  : 		if(Flag == 8)

  008c5	83 bd 08 fe ff
	ff 08		 cmp	 DWORD PTR _Flag$[ebp], 8
  008cc	75 5e		 jne	 SHORT $LN1@StartUP

; 193  : 		{
; 194  : 			BMQuestRandOpt_DATA list;
; 195  : 
; 196  : 			sscanf(Buff,"%d %d %d %d %d %d %d %d",
; 197  : 				&list.NeedLevel,
; 198  : 				&list.NeedRageLevel,
; 199  : 				&list.AddDamageReflect,
; 200  : 				&list.AddDamage,
; 201  : 				&list.AddDefense,
; 202  : 				&list.AddCriticalDamage,
; 203  : 				&list.AddExcelentDamage,
; 204  : 				&list.AddLife);

  008ce	8d 85 30 fe ff
	ff		 lea	 eax, DWORD PTR _list$203308[ebp+28]
  008d4	50		 push	 eax
  008d5	8d 8d 2c fe ff
	ff		 lea	 ecx, DWORD PTR _list$203308[ebp+24]
  008db	51		 push	 ecx
  008dc	8d 95 28 fe ff
	ff		 lea	 edx, DWORD PTR _list$203308[ebp+20]
  008e2	52		 push	 edx
  008e3	8d 85 24 fe ff
	ff		 lea	 eax, DWORD PTR _list$203308[ebp+16]
  008e9	50		 push	 eax
  008ea	8d 8d 20 fe ff
	ff		 lea	 ecx, DWORD PTR _list$203308[ebp+12]
  008f0	51		 push	 ecx
  008f1	8d 95 1c fe ff
	ff		 lea	 edx, DWORD PTR _list$203308[ebp+8]
  008f7	52		 push	 edx
  008f8	8d 85 18 fe ff
	ff		 lea	 eax, DWORD PTR _list$203308[ebp+4]
  008fe	50		 push	 eax
  008ff	8d 8d 14 fe ff
	ff		 lea	 ecx, DWORD PTR _list$203308[ebp]
  00905	51		 push	 ecx
  00906	8d 95 34 fe ff
	ff		 lea	 edx, DWORD PTR _Buff$[ebp]
  0090c	68 00 00 00 00	 push	 OFFSET ??_C@_0BI@HDMMBKBM@?$CFd?5?$CFd?5?$CFd?5?$CFd?5?$CFd?5?$CFd?5?$CFd?5?$CFd?$AA@
  00911	52		 push	 edx
  00912	e8 00 00 00 00	 call	 _sscanf
  00917	83 c4 28	 add	 esp, 40			; 00000028H

; 205  : 
; 206  : 			this->m_RandOpt.push_back(list);

  0091a	8d 85 14 fe ff
	ff		 lea	 eax, DWORD PTR _list$203308[ebp]
  00920	50		 push	 eax
  00921	8d 8e 40 db 1a
	00		 lea	 ecx, DWORD PTR [esi+1760064]
  00927	e8 00 00 00 00	 call	 ?push_back@?$vector@UBMQuestRandOpt_DATA@@V?$allocator@UBMQuestRandOpt_DATA@@@std@@@std@@QAEXABUBMQuestRandOpt_DATA@@@Z ; std::vector<BMQuestRandOpt_DATA,std::allocator<BMQuestRandOpt_DATA> >::push_back
$LN1@StartUP:

; 64   : 		return;
; 65   : 	}
; 66   : 	char Buff[256];
; 67   : 	int Flag = 0;
; 68   : 	Count[1] = 0;
; 69   : 	Count[2] = 0;
; 70   : 	Count[3] = 0;
; 71   : 	Count[4] = 0;
; 72   : 	Count[5] = 0;
; 73   : 	Count[6] = 0;
; 74   : 
; 75   : 	while(!feof(file)) //     ??

  0092c	53		 push	 ebx
  0092d	e8 00 00 00 00	 call	 _feof
  00932	83 c4 04	 add	 esp, 4
  00935	85 c0		 test	 eax, eax
  00937	0f 84 96 f7 ff
	ff		 je	 $LL11@StartUP
  0093d	8b fb		 mov	 edi, ebx
$LN10@StartUP:

; 207  : 		}
; 208  : 	}
; 209  : 	fclose(file);

  0093f	57		 push	 edi
  00940	e8 00 00 00 00	 call	 _fclose
  00945	83 c4 04	 add	 esp, 4
  00948	5f		 pop	 edi
$LN15@StartUP:

; 210  : }

  00949	8b 4d fc	 mov	 ecx, DWORD PTR __$ArrayPad$[ebp]
  0094c	5e		 pop	 esi
  0094d	33 cd		 xor	 ecx, ebp
  0094f	5b		 pop	 ebx
  00950	e8 00 00 00 00	 call	 @__security_check_cookie@4
  00955	8b e5		 mov	 esp, ebp
  00957	5d		 pop	 ebp
  00958	c3		 ret	 0
?StartUP@cBMQuest@@QAEXXZ ENDP				; cBMQuest::StartUP
_TEXT	ENDS
EXTRN	_atexit:PROC
; Function compile flags: /Ogtp
;	COMDAT ??__EBMQuest@@YAXXZ
text$yc	SEGMENT
??__EBMQuest@@YAXXZ PROC				; `dynamic initializer for 'BMQuest'', COMDAT

; 11   : cBMQuest BMQuest;

  00000	68 00 00 00 00	 push	 OFFSET ??__FBMQuest@@YAXXZ ; `dynamic atexit destructor for 'BMQuest''
  00005	e8 00 00 00 00	 call	 _atexit
  0000a	59		 pop	 ecx
  0000b	c3		 ret	 0
??__EBMQuest@@YAXXZ ENDP				; `dynamic initializer for 'BMQuest''
; Function compile flags: /Ogtp
text$yc	ENDS
;	COMDAT ??__FBMQuest@@YAXXZ
text$yd	SEGMENT
??__FBMQuest@@YAXXZ PROC				; `dynamic atexit destructor for 'BMQuest'', COMDAT
  00000	a1 40 db 1a 00	 mov	 eax, DWORD PTR ?BMQuest@@3VcBMQuest@@A+1760064
  00005	85 c0		 test	 eax, eax
  00007	74 09		 je	 SHORT $LN12@dynamic
  00009	50		 push	 eax
  0000a	e8 00 00 00 00	 call	 ??3@YAXPAX@Z		; operator delete
  0000f	83 c4 04	 add	 esp, 4
$LN12@dynamic:
  00012	c7 05 40 db 1a
	00 00 00 00 00	 mov	 DWORD PTR ?BMQuest@@3VcBMQuest@@A+1760064, 0
  0001c	c7 05 44 db 1a
	00 00 00 00 00	 mov	 DWORD PTR ?BMQuest@@3VcBMQuest@@A+1760068, 0
  00026	c7 05 48 db 1a
	00 00 00 00 00	 mov	 DWORD PTR ?BMQuest@@3VcBMQuest@@A+1760072, 0
  00030	c3		 ret	 0
??__FBMQuest@@YAXXZ ENDP				; `dynamic atexit destructor for 'BMQuest''
text$yd	ENDS
PUBLIC	?BMQuest@@3VcBMQuest@@A				; BMQuest
_BSS	SEGMENT
?BMQuest@@3VcBMQuest@@A DB 01adb50H DUP (?)		; BMQuest
_BSS	ENDS
CRT$XCU	SEGMENT
_BMQuest$initializer$ DD FLAT:??__EBMQuest@@YAXXZ
CRT$XCU	ENDS
END
