; Listing generated by Microsoft (R) Optimizing Compiler Version 16.00.30319.01 

	TITLE	E:\work\tranet_version\GS\GameServer\Brotherhood.cpp
	.686P
	.XMM
	include listing.inc
	.model	flat

INCLUDELIB LIBCMT
INCLUDELIB OLDNAMES

_DATA	SEGMENT
_g_iNpcUpDfLevel_CGATE DD 01H
	DD	02H
	DD	02dc6c0H
	DD	02H
	DD	03H
	DD	02dc6c0H
	DD	03H
	DD	04H
	DD	02dc6c0H
_g_iNpcUpDfLevel_CSTATUE DD 01H
	DD	03H
	DD	02dc6c0H
	DD	02H
	DD	05H
	DD	02dc6c0H
	DD	03H
	DD	07H
	DD	02dc6c0H
_g_iNpcUpMaxHP_CGATE DD 02625a0H
	DD	02H
	DD	0f4240H
	DD	03567e0H
	DD	03H
	DD	0f4240H
	DD	04f5880H
	DD	04H
	DD	0f4240H
_g_iNpcUpMaxHP_CSTATUE DD 02191c0H
	DD	03H
	DD	0f4240H
	DD	033e140H
	DD	05H
	DD	0f4240H
	DD	04c4b40H
	DD	07H
	DD	0f4240H
_g_iNpcUpRgLevel_CSTATUE DD 01H
	DD	03H
	DD	04c4b40H
	DD	02H
	DD	05H
	DD	04c4b40H
	DD	03H
	DD	07H
	DD	04c4b40H
_g_iCsUserReSpawnArea DD 023H
	DD	011H
	DD	090H
	DD	030H
	DD	04aH
	DD	090H
	DD	073H
	DD	09aH
	DD	023H
	DD	011H
	DD	090H
	DD	030H
_g_iNpcDefense_CGATE DD 064H
	DD	0b4H
	DD	012cH
	DD	0208H
_g_iNpcDefense_CSTATUE DD 050H
	DD	0b4H
	DD	0154H
	DD	0226H
_g_iCastleWallStepAxisY DD 071H
	DD	0a0H
	DD	0cbH
_DATA	ENDS
PUBLIC	??2@YAPAXIPAX@Z					; operator new
; Function compile flags: /Ogtp
; File d:\program files (x86)\microsoft visual studio 10.0\vc\include\new.h
;	COMDAT ??2@YAPAXIPAX@Z
_TEXT	SEGMENT
___formal$ = 8						; size = 4
__Where$ = 12						; size = 4
??2@YAPAXIPAX@Z PROC					; operator new, COMDAT

; 81   :         {return (_Where); }

  00000	55		 push	 ebp
  00001	8b ec		 mov	 ebp, esp
  00003	8b 45 0c	 mov	 eax, DWORD PTR __Where$[ebp]
  00006	5d		 pop	 ebp
  00007	c3		 ret	 0
??2@YAPAXIPAX@Z ENDP					; operator new
_TEXT	ENDS
PUBLIC	??3@YAXPAX0@Z					; operator delete
; Function compile flags: /Ogtp
;	COMDAT ??3@YAXPAX0@Z
_TEXT	SEGMENT
___formal$ = 8						; size = 4
___formal$ = 12						; size = 4
??3@YAXPAX0@Z PROC					; operator delete, COMDAT

; 83   :         {return; }

  00000	c3		 ret	 0
??3@YAXPAX0@Z ENDP					; operator delete
_TEXT	ENDS
PUBLIC	??_H@YGXPAXIHP6EPAX0@Z@Z			; `vector constructor iterator'
; Function compile flags: /Ogtp
;	COMDAT ??_H@YGXPAXIHP6EPAX0@Z@Z
_TEXT	SEGMENT
___t$ = 8						; size = 4
___s$ = 12						; size = 4
___n$ = 16						; size = 4
___f$ = 20						; size = 4
??_H@YGXPAXIHP6EPAX0@Z@Z PROC				; `vector constructor iterator', COMDAT
  00000	55		 push	 ebp
  00001	8b ec		 mov	 ebp, esp
  00003	57		 push	 edi
  00004	8b 7d 10	 mov	 edi, DWORD PTR ___n$[ebp]
  00007	4f		 dec	 edi
  00008	78 14		 js	 SHORT $LN1@vector
  0000a	53		 push	 ebx
  0000b	8b 5d 14	 mov	 ebx, DWORD PTR ___f$[ebp]
  0000e	56		 push	 esi
  0000f	8b 75 08	 mov	 esi, DWORD PTR ___t$[ebp]
$LL2@vector:
  00012	8b ce		 mov	 ecx, esi
  00014	ff d3		 call	 ebx
  00016	03 75 0c	 add	 esi, DWORD PTR ___s$[ebp]
  00019	4f		 dec	 edi
  0001a	79 f6		 jns	 SHORT $LL2@vector
  0001c	5e		 pop	 esi
  0001d	5b		 pop	 ebx
$LN1@vector:
  0001e	5f		 pop	 edi
  0001f	5d		 pop	 ebp
  00020	c2 10 00	 ret	 16			; 00000010H
??_H@YGXPAXIHP6EPAX0@Z@Z ENDP				; `vector constructor iterator'
_TEXT	ENDS
PUBLIC	?GetCastleState@CCastleSiege@@QAEHXZ		; CCastleSiege::GetCastleState
; Function compile flags: /Ogtp
; File e:\work\tranet_version\gs\gameserver\castlesiege.h
;	COMDAT ?GetCastleState@CCastleSiege@@QAEHXZ
_TEXT	SEGMENT
?GetCastleState@CCastleSiege@@QAEHXZ PROC		; CCastleSiege::GetCastleState, COMDAT
; _this$ = ecx

; 314  : 	int GetCastleState(){return m_iCastleSiegeState;}

  00000	8b 41 28	 mov	 eax, DWORD PTR [ecx+40]
  00003	c3		 ret	 0
?GetCastleState@CCastleSiege@@QAEHXZ ENDP		; CCastleSiege::GetCastleState
_TEXT	ENDS
PUBLIC	??_C@_0DJ@GPAKNOIP@?$CFd?5?$CFd?5?$CFd?5?$CFd?5?$CFd?5?$CFd?5?$CFd?5?$CFd?5?$CFd?5?$CFd?5?$CFd@ ; `string'
PUBLIC	??_C@_0P@BPENEPNJ@CRITICAL?5ERROR?$AA@		; `string'
PUBLIC	??_C@_01KDCPPGHE@r?$AA@				; `string'
PUBLIC	??_C@_0N@CFFNNNEN@TeleportTime?$AA@		; `string'
PUBLIC	??_C@_0O@FNMAFCDN@TeleportWCoin?$AA@		; `string'
PUBLIC	??_C@_0L@GALFOAPI@ExitActive?$AA@		; `string'
PUBLIC	??_C@_0P@EGBIOLDI@TeleportActive?$AA@		; `string'
PUBLIC	??_C@_07COKOJLE@BuyCost?$AA@			; `string'
PUBLIC	??_C@_07PEMHDHCM@BuyType?$AA@			; `string'
PUBLIC	??_C@_0BB@NKLOEMKC@PlusDoubleDamage?$AA@	; `string'
PUBLIC	??_C@_0L@HBCMGFMN@PlusIgnore?$AA@		; `string'
PUBLIC	??_C@_0M@EJBFAHCL@PlusDefence?$AA@		; `string'
PUBLIC	??_C@_0L@HLDAILGI@PlusDamage?$AA@		; `string'
PUBLIC	??_C@_07HHKCFDII@PlusZen?$AA@			; `string'
PUBLIC	??_C@_07LPGHBLLN@PlusExp?$AA@			; `string'
PUBLIC	??_C@_06CNKIADGI@ZtTeam?$AA@			; `string'
PUBLIC	??_C@_06CKGENIKG@Enable?$AA@			; `string'
PUBLIC	??_C@_0BP@GAGNOOCN@?4?4?2Data?2ZtData?2Brotherhood?4txt?$AA@ ; `string'
PUBLIC	__$ArrayPad$
PUBLIC	?Load@Brotherhood@@QAEXXZ			; Brotherhood::Load
EXTRN	_fclose:PROC
EXTRN	_sscanf:PROC
EXTRN	?Zt_IsBadFileLine@@YA_NPADAAH@Z:PROC		; Zt_IsBadFileLine
EXTRN	_fgets:PROC
EXTRN	_feof:PROC
EXTRN	__imp__MessageBoxA@16:PROC
EXTRN	_fopen:PROC
EXTRN	__imp__GetPrivateProfileIntA@16:PROC
EXTRN	?g_ZtLicense@@3VCZtLicense@@A:BYTE		; g_ZtLicense
EXTRN	___security_cookie:DWORD
EXTRN	@__security_check_cookie@4:PROC
;	COMDAT ??_C@_0DJ@GPAKNOIP@?$CFd?5?$CFd?5?$CFd?5?$CFd?5?$CFd?5?$CFd?5?$CFd?5?$CFd?5?$CFd?5?$CFd?5?$CFd@
; File e:\work\tranet_version\gs\gameserver\brotherhood.cpp
CONST	SEGMENT
??_C@_0DJ@GPAKNOIP@?$CFd?5?$CFd?5?$CFd?5?$CFd?5?$CFd?5?$CFd?5?$CFd?5?$CFd?5?$CFd?5?$CFd?5?$CFd@ DB '%'
	DB	'd %d %d %d %d %d %d %d %d %d %d %d %d %d %d %d %d %d %d', 00H ; `string'
CONST	ENDS
;	COMDAT ??_C@_0P@BPENEPNJ@CRITICAL?5ERROR?$AA@
CONST	SEGMENT
??_C@_0P@BPENEPNJ@CRITICAL?5ERROR?$AA@ DB 'CRITICAL ERROR', 00H ; `string'
CONST	ENDS
;	COMDAT ??_C@_01KDCPPGHE@r?$AA@
CONST	SEGMENT
??_C@_01KDCPPGHE@r?$AA@ DB 'r', 00H			; `string'
CONST	ENDS
;	COMDAT ??_C@_0N@CFFNNNEN@TeleportTime?$AA@
CONST	SEGMENT
??_C@_0N@CFFNNNEN@TeleportTime?$AA@ DB 'TeleportTime', 00H ; `string'
CONST	ENDS
;	COMDAT ??_C@_0O@FNMAFCDN@TeleportWCoin?$AA@
CONST	SEGMENT
??_C@_0O@FNMAFCDN@TeleportWCoin?$AA@ DB 'TeleportWCoin', 00H ; `string'
CONST	ENDS
;	COMDAT ??_C@_0L@GALFOAPI@ExitActive?$AA@
CONST	SEGMENT
??_C@_0L@GALFOAPI@ExitActive?$AA@ DB 'ExitActive', 00H	; `string'
CONST	ENDS
;	COMDAT ??_C@_0P@EGBIOLDI@TeleportActive?$AA@
CONST	SEGMENT
??_C@_0P@EGBIOLDI@TeleportActive?$AA@ DB 'TeleportActive', 00H ; `string'
CONST	ENDS
;	COMDAT ??_C@_07COKOJLE@BuyCost?$AA@
CONST	SEGMENT
??_C@_07COKOJLE@BuyCost?$AA@ DB 'BuyCost', 00H		; `string'
CONST	ENDS
;	COMDAT ??_C@_07PEMHDHCM@BuyType?$AA@
CONST	SEGMENT
??_C@_07PEMHDHCM@BuyType?$AA@ DB 'BuyType', 00H		; `string'
CONST	ENDS
;	COMDAT ??_C@_0BB@NKLOEMKC@PlusDoubleDamage?$AA@
CONST	SEGMENT
??_C@_0BB@NKLOEMKC@PlusDoubleDamage?$AA@ DB 'PlusDoubleDamage', 00H ; `string'
CONST	ENDS
;	COMDAT ??_C@_0L@HBCMGFMN@PlusIgnore?$AA@
CONST	SEGMENT
??_C@_0L@HBCMGFMN@PlusIgnore?$AA@ DB 'PlusIgnore', 00H	; `string'
CONST	ENDS
;	COMDAT ??_C@_0M@EJBFAHCL@PlusDefence?$AA@
CONST	SEGMENT
??_C@_0M@EJBFAHCL@PlusDefence?$AA@ DB 'PlusDefence', 00H ; `string'
CONST	ENDS
;	COMDAT ??_C@_0L@HLDAILGI@PlusDamage?$AA@
CONST	SEGMENT
??_C@_0L@HLDAILGI@PlusDamage?$AA@ DB 'PlusDamage', 00H	; `string'
CONST	ENDS
;	COMDAT ??_C@_07HHKCFDII@PlusZen?$AA@
CONST	SEGMENT
??_C@_07HHKCFDII@PlusZen?$AA@ DB 'PlusZen', 00H		; `string'
CONST	ENDS
;	COMDAT ??_C@_07LPGHBLLN@PlusExp?$AA@
CONST	SEGMENT
??_C@_07LPGHBLLN@PlusExp?$AA@ DB 'PlusExp', 00H		; `string'
CONST	ENDS
;	COMDAT ??_C@_06CNKIADGI@ZtTeam?$AA@
CONST	SEGMENT
??_C@_06CNKIADGI@ZtTeam?$AA@ DB 'ZtTeam', 00H		; `string'
CONST	ENDS
;	COMDAT ??_C@_06CKGENIKG@Enable?$AA@
CONST	SEGMENT
??_C@_06CKGENIKG@Enable?$AA@ DB 'Enable', 00H		; `string'
CONST	ENDS
;	COMDAT ??_C@_0BP@GAGNOOCN@?4?4?2Data?2ZtData?2Brotherhood?4txt?$AA@
CONST	SEGMENT
??_C@_0BP@GAGNOOCN@?4?4?2Data?2ZtData?2Brotherhood?4txt?$AA@ DB '..\Data\'
	DB	'ZtData\Brotherhood.txt', 00H		; `string'
; Function compile flags: /Ogtp
CONST	ENDS
;	COMDAT ?Load@Brotherhood@@QAEXXZ
_TEXT	SEGMENT
_Flag$ = -340						; size = 4
_n$212321 = -336					; size = 76
_Buff$ = -260						; size = 256
__$ArrayPad$ = -4					; size = 4
?Load@Brotherhood@@QAEXXZ PROC				; Brotherhood::Load, COMDAT
; _this$ = ecx

; 25   : {

  00000	55		 push	 ebp
  00001	8b ec		 mov	 ebp, esp
  00003	81 ec 54 01 00
	00		 sub	 esp, 340		; 00000154H
  00009	a1 00 00 00 00	 mov	 eax, DWORD PTR ___security_cookie
  0000e	33 c5		 xor	 eax, ebp
  00010	89 45 fc	 mov	 DWORD PTR __$ArrayPad$[ebp], eax
  00013	53		 push	 ebx

; 26   : 	if(g_ZtLicense.user.Brotherhood == false)

  00014	33 db		 xor	 ebx, ebx
  00016	56		 push	 esi
  00017	8b f1		 mov	 esi, ecx
  00019	38 1d d4 00 00
	00		 cmp	 BYTE PTR ?g_ZtLicense@@3VCZtLicense@@A+212, bl
  0001f	75 12		 jne	 SHORT $LN6@Load

; 27   : 	{
; 28   : 		this->Enable = 0;

  00021	88 1e		 mov	 BYTE PTR [esi], bl
  00023	5e		 pop	 esi
  00024	5b		 pop	 ebx

; 103  : }

  00025	8b 4d fc	 mov	 ecx, DWORD PTR __$ArrayPad$[ebp]
  00028	33 cd		 xor	 ecx, ebp
  0002a	e8 00 00 00 00	 call	 @__security_check_cookie@4
  0002f	8b e5		 mov	 esp, ebp
  00031	5d		 pop	 ebp
  00032	c3		 ret	 0
$LN6@Load:
  00033	57		 push	 edi

; 29   : 		return;
; 30   : 	}
; 31   : 
; 32   : 	this->Enable = GetPrivateProfileInt("ZtTeam","Enable",0,Brotherhood_DIR);

  00034	8b 3d 00 00 00
	00		 mov	 edi, DWORD PTR __imp__GetPrivateProfileIntA@16
  0003a	68 00 00 00 00	 push	 OFFSET ??_C@_0BP@GAGNOOCN@?4?4?2Data?2ZtData?2Brotherhood?4txt?$AA@
  0003f	53		 push	 ebx
  00040	68 00 00 00 00	 push	 OFFSET ??_C@_06CKGENIKG@Enable?$AA@
  00045	68 00 00 00 00	 push	 OFFSET ??_C@_06CNKIADGI@ZtTeam?$AA@
  0004a	ff d7		 call	 edi

; 33   : 	this->PlusExp = GetPrivateProfileInt("ZtTeam","PlusExp",0,Brotherhood_DIR);

  0004c	68 00 00 00 00	 push	 OFFSET ??_C@_0BP@GAGNOOCN@?4?4?2Data?2ZtData?2Brotherhood?4txt?$AA@
  00051	53		 push	 ebx
  00052	85 c0		 test	 eax, eax
  00054	68 00 00 00 00	 push	 OFFSET ??_C@_07LPGHBLLN@PlusExp?$AA@
  00059	0f 95 c0	 setne	 al
  0005c	68 00 00 00 00	 push	 OFFSET ??_C@_06CNKIADGI@ZtTeam?$AA@
  00061	88 06		 mov	 BYTE PTR [esi], al
  00063	ff d7		 call	 edi

; 34   : 	this->PlusZen = GetPrivateProfileInt("ZtTeam","PlusZen",0,Brotherhood_DIR);

  00065	68 00 00 00 00	 push	 OFFSET ??_C@_0BP@GAGNOOCN@?4?4?2Data?2ZtData?2Brotherhood?4txt?$AA@
  0006a	53		 push	 ebx
  0006b	68 00 00 00 00	 push	 OFFSET ??_C@_07HHKCFDII@PlusZen?$AA@
  00070	68 00 00 00 00	 push	 OFFSET ??_C@_06CNKIADGI@ZtTeam?$AA@
  00075	89 46 04	 mov	 DWORD PTR [esi+4], eax
  00078	ff d7		 call	 edi

; 35   : 
; 36   : 	this->PlusDamage = GetPrivateProfileInt("ZtTeam","PlusDamage",0,Brotherhood_DIR);

  0007a	68 00 00 00 00	 push	 OFFSET ??_C@_0BP@GAGNOOCN@?4?4?2Data?2ZtData?2Brotherhood?4txt?$AA@
  0007f	53		 push	 ebx
  00080	68 00 00 00 00	 push	 OFFSET ??_C@_0L@HLDAILGI@PlusDamage?$AA@
  00085	68 00 00 00 00	 push	 OFFSET ??_C@_06CNKIADGI@ZtTeam?$AA@
  0008a	89 46 08	 mov	 DWORD PTR [esi+8], eax
  0008d	ff d7		 call	 edi

; 37   : 	this->PlusDefence = GetPrivateProfileInt("ZtTeam","PlusDefence",0,Brotherhood_DIR);

  0008f	68 00 00 00 00	 push	 OFFSET ??_C@_0BP@GAGNOOCN@?4?4?2Data?2ZtData?2Brotherhood?4txt?$AA@
  00094	53		 push	 ebx
  00095	68 00 00 00 00	 push	 OFFSET ??_C@_0M@EJBFAHCL@PlusDefence?$AA@
  0009a	68 00 00 00 00	 push	 OFFSET ??_C@_06CNKIADGI@ZtTeam?$AA@
  0009f	89 46 0c	 mov	 DWORD PTR [esi+12], eax
  000a2	ff d7		 call	 edi

; 38   : 	this->PlusIgnore = GetPrivateProfileInt("ZtTeam","PlusIgnore",0,Brotherhood_DIR);

  000a4	68 00 00 00 00	 push	 OFFSET ??_C@_0BP@GAGNOOCN@?4?4?2Data?2ZtData?2Brotherhood?4txt?$AA@
  000a9	53		 push	 ebx
  000aa	68 00 00 00 00	 push	 OFFSET ??_C@_0L@HBCMGFMN@PlusIgnore?$AA@
  000af	68 00 00 00 00	 push	 OFFSET ??_C@_06CNKIADGI@ZtTeam?$AA@
  000b4	89 46 10	 mov	 DWORD PTR [esi+16], eax
  000b7	ff d7		 call	 edi

; 39   : 	this->PlusDoubleDamage = GetPrivateProfileInt("ZtTeam","PlusDoubleDamage",0,Brotherhood_DIR);

  000b9	68 00 00 00 00	 push	 OFFSET ??_C@_0BP@GAGNOOCN@?4?4?2Data?2ZtData?2Brotherhood?4txt?$AA@
  000be	53		 push	 ebx
  000bf	68 00 00 00 00	 push	 OFFSET ??_C@_0BB@NKLOEMKC@PlusDoubleDamage?$AA@
  000c4	68 00 00 00 00	 push	 OFFSET ??_C@_06CNKIADGI@ZtTeam?$AA@
  000c9	89 46 14	 mov	 DWORD PTR [esi+20], eax
  000cc	ff d7		 call	 edi

; 40   : 
; 41   : 	this->BuyType = GetPrivateProfileInt("ZtTeam","BuyType",0,Brotherhood_DIR);

  000ce	68 00 00 00 00	 push	 OFFSET ??_C@_0BP@GAGNOOCN@?4?4?2Data?2ZtData?2Brotherhood?4txt?$AA@
  000d3	53		 push	 ebx
  000d4	68 00 00 00 00	 push	 OFFSET ??_C@_07PEMHDHCM@BuyType?$AA@
  000d9	68 00 00 00 00	 push	 OFFSET ??_C@_06CNKIADGI@ZtTeam?$AA@
  000de	89 46 18	 mov	 DWORD PTR [esi+24], eax
  000e1	ff d7		 call	 edi

; 42   : 	this->BuyCost = GetPrivateProfileInt("ZtTeam","BuyCost",0,Brotherhood_DIR);

  000e3	68 00 00 00 00	 push	 OFFSET ??_C@_0BP@GAGNOOCN@?4?4?2Data?2ZtData?2Brotherhood?4txt?$AA@
  000e8	53		 push	 ebx
  000e9	68 00 00 00 00	 push	 OFFSET ??_C@_07COKOJLE@BuyCost?$AA@
  000ee	68 00 00 00 00	 push	 OFFSET ??_C@_06CNKIADGI@ZtTeam?$AA@
  000f3	89 46 1c	 mov	 DWORD PTR [esi+28], eax
  000f6	ff d7		 call	 edi

; 43   : 
; 44   : 	this->TeleportActive = GetPrivateProfileInt("ZtTeam","TeleportActive",1,Brotherhood_DIR);

  000f8	68 00 00 00 00	 push	 OFFSET ??_C@_0BP@GAGNOOCN@?4?4?2Data?2ZtData?2Brotherhood?4txt?$AA@
  000fd	6a 01		 push	 1
  000ff	68 00 00 00 00	 push	 OFFSET ??_C@_0P@EGBIOLDI@TeleportActive?$AA@
  00104	68 00 00 00 00	 push	 OFFSET ??_C@_06CNKIADGI@ZtTeam?$AA@
  00109	89 46 20	 mov	 DWORD PTR [esi+32], eax
  0010c	ff d7		 call	 edi

; 45   : 	this->ExitActive = GetPrivateProfileInt("ZtTeam","ExitActive",0,Brotherhood_DIR);

  0010e	68 00 00 00 00	 push	 OFFSET ??_C@_0BP@GAGNOOCN@?4?4?2Data?2ZtData?2Brotherhood?4txt?$AA@
  00113	53		 push	 ebx
  00114	68 00 00 00 00	 push	 OFFSET ??_C@_0L@GALFOAPI@ExitActive?$AA@
  00119	68 00 00 00 00	 push	 OFFSET ??_C@_06CNKIADGI@ZtTeam?$AA@
  0011e	89 46 24	 mov	 DWORD PTR [esi+36], eax
  00121	ff d7		 call	 edi

; 46   : 
; 47   : 	#if(BROTHER_PAYTELEPORT)
; 48   : 	this->m_TeleportWCoin = GetPrivateProfileInt("ZtTeam","TeleportWCoin",0,Brotherhood_DIR);

  00123	68 00 00 00 00	 push	 OFFSET ??_C@_0BP@GAGNOOCN@?4?4?2Data?2ZtData?2Brotherhood?4txt?$AA@
  00128	53		 push	 ebx
  00129	68 00 00 00 00	 push	 OFFSET ??_C@_0O@FNMAFCDN@TeleportWCoin?$AA@
  0012e	68 00 00 00 00	 push	 OFFSET ??_C@_06CNKIADGI@ZtTeam?$AA@
  00133	89 46 28	 mov	 DWORD PTR [esi+40], eax
  00136	ff d7		 call	 edi

; 49   : 	#endif
; 50   : 
; 51   : 	#if(BR_TELEPORT_TIME)
; 52   : 	this->m_TeleportTime = GetPrivateProfileInt("ZtTeam","TeleportTime",0,Brotherhood_DIR);

  00138	68 00 00 00 00	 push	 OFFSET ??_C@_0BP@GAGNOOCN@?4?4?2Data?2ZtData?2Brotherhood?4txt?$AA@
  0013d	53		 push	 ebx
  0013e	68 00 00 00 00	 push	 OFFSET ??_C@_0N@CFFNNNEN@TeleportTime?$AA@
  00143	68 00 00 00 00	 push	 OFFSET ??_C@_06CNKIADGI@ZtTeam?$AA@
  00148	89 86 10 29 01
	00		 mov	 DWORD PTR [esi+76048], eax
  0014e	ff d7		 call	 edi

; 53   : 	#endif
; 54   : 
; 55   : 	FILE *file = fopen(Brotherhood_DIR,"r");

  00150	68 00 00 00 00	 push	 OFFSET ??_C@_01KDCPPGHE@r?$AA@
  00155	68 00 00 00 00	 push	 OFFSET ??_C@_0BP@GAGNOOCN@?4?4?2Data?2ZtData?2Brotherhood?4txt?$AA@
  0015a	89 86 14 29 01
	00		 mov	 DWORD PTR [esi+76052], eax
  00160	e8 00 00 00 00	 call	 _fopen
  00165	8b f8		 mov	 edi, eax
  00167	83 c4 08	 add	 esp, 8

; 56   : 
; 57   : 	if (file == NULL)

  0016a	3b fb		 cmp	 edi, ebx
  0016c	75 25		 jne	 SHORT $LN5@Load

; 58   : 	{
; 59   : 		MessageBoxA(0,Brotherhood_DIR,"CRITICAL ERROR",0);

  0016e	53		 push	 ebx
  0016f	68 00 00 00 00	 push	 OFFSET ??_C@_0P@BPENEPNJ@CRITICAL?5ERROR?$AA@
  00174	68 00 00 00 00	 push	 OFFSET ??_C@_0BP@GAGNOOCN@?4?4?2Data?2ZtData?2Brotherhood?4txt?$AA@
  00179	53		 push	 ebx
  0017a	ff 15 00 00 00
	00		 call	 DWORD PTR __imp__MessageBoxA@16
  00180	5f		 pop	 edi

; 60   : 		this->Enable = 0;

  00181	88 1e		 mov	 BYTE PTR [esi], bl
  00183	5e		 pop	 esi
  00184	5b		 pop	 ebx

; 103  : }

  00185	8b 4d fc	 mov	 ecx, DWORD PTR __$ArrayPad$[ebp]
  00188	33 cd		 xor	 ecx, ebp
  0018a	e8 00 00 00 00	 call	 @__security_check_cookie@4
  0018f	8b e5		 mov	 esp, ebp
  00191	5d		 pop	 ebp
  00192	c3		 ret	 0
$LN5@Load:

; 61   : 		return;
; 62   : 	}
; 63   : 
; 64   : 	this->DropCount = 0;
; 65   : 
; 66   : 	char Buff[256];
; 67   : 	int Flag = 0;
; 68   : 	while (!feof(file))

  00193	57		 push	 edi
  00194	89 5e 2c	 mov	 DWORD PTR [esi+44], ebx
  00197	89 9d ac fe ff
	ff		 mov	 DWORD PTR _Flag$[ebp], ebx
  0019d	e8 00 00 00 00	 call	 _feof
  001a2	83 c4 04	 add	 esp, 4
  001a5	85 c0		 test	 eax, eax
  001a7	0f 85 22 02 00
	00		 jne	 $LN3@Load
  001ad	8d 49 00	 npad	 3
$LL4@Load:

; 69   : 	{
; 70   : 		fgets(Buff,256,file);

  001b0	57		 push	 edi
  001b1	8d 8d fc fe ff
	ff		 lea	 ecx, DWORD PTR _Buff$[ebp]
  001b7	68 00 01 00 00	 push	 256			; 00000100H
  001bc	51		 push	 ecx
  001bd	e8 00 00 00 00	 call	 _fgets

; 71   : 
; 72   : 		if(Zt_IsBadFileLine(Buff, Flag))

  001c2	8d 95 ac fe ff
	ff		 lea	 edx, DWORD PTR _Flag$[ebp]
  001c8	52		 push	 edx
  001c9	8d 85 fc fe ff
	ff		 lea	 eax, DWORD PTR _Buff$[ebp]
  001cf	50		 push	 eax
  001d0	e8 00 00 00 00	 call	 ?Zt_IsBadFileLine@@YA_NPADAAH@Z ; Zt_IsBadFileLine
  001d5	83 c4 14	 add	 esp, 20			; 00000014H
  001d8	84 c0		 test	 al, al
  001da	0f 85 de 01 00
	00		 jne	 $LN1@Load

; 73   : 			continue;
; 74   : 
; 75   : 		if (Flag == 1)

  001e0	bb 01 00 00 00	 mov	 ebx, 1
  001e5	39 9d ac fe ff
	ff		 cmp	 DWORD PTR _Flag$[ebp], ebx
  001eb	0f 85 cd 01 00
	00		 jne	 $LN1@Load

; 76   : 		{
; 77   : 			int n[19];
; 78   : 			sscanf(Buff,"%d %d %d %d %d %d %d %d %d %d %d %d %d %d %d %d %d %d %d", &n[0],&n[1],&n[2],&n[3],&n[4],&n[5],&n[6],&n[7],&n[8],&n[9],&n[10],&n[11],&n[12],&n[13],&n[14],&n[15],&n[16],&n[17],&n[18]);

  001f1	8d 8d f8 fe ff
	ff		 lea	 ecx, DWORD PTR _n$212321[ebp+72]
  001f7	51		 push	 ecx
  001f8	8d 95 f4 fe ff
	ff		 lea	 edx, DWORD PTR _n$212321[ebp+68]
  001fe	52		 push	 edx
  001ff	8d 85 f0 fe ff
	ff		 lea	 eax, DWORD PTR _n$212321[ebp+64]
  00205	50		 push	 eax
  00206	8d 8d ec fe ff
	ff		 lea	 ecx, DWORD PTR _n$212321[ebp+60]
  0020c	51		 push	 ecx
  0020d	8d 95 e8 fe ff
	ff		 lea	 edx, DWORD PTR _n$212321[ebp+56]
  00213	52		 push	 edx
  00214	8d 85 e4 fe ff
	ff		 lea	 eax, DWORD PTR _n$212321[ebp+52]
  0021a	50		 push	 eax
  0021b	8d 8d e0 fe ff
	ff		 lea	 ecx, DWORD PTR _n$212321[ebp+48]
  00221	51		 push	 ecx
  00222	8d 95 dc fe ff
	ff		 lea	 edx, DWORD PTR _n$212321[ebp+44]
  00228	52		 push	 edx
  00229	8d 85 d8 fe ff
	ff		 lea	 eax, DWORD PTR _n$212321[ebp+40]
  0022f	50		 push	 eax
  00230	8d 8d d4 fe ff
	ff		 lea	 ecx, DWORD PTR _n$212321[ebp+36]
  00236	51		 push	 ecx
  00237	8d 95 d0 fe ff
	ff		 lea	 edx, DWORD PTR _n$212321[ebp+32]
  0023d	52		 push	 edx
  0023e	8d 85 cc fe ff
	ff		 lea	 eax, DWORD PTR _n$212321[ebp+28]
  00244	50		 push	 eax
  00245	8d 8d c8 fe ff
	ff		 lea	 ecx, DWORD PTR _n$212321[ebp+24]
  0024b	51		 push	 ecx
  0024c	8d 95 c4 fe ff
	ff		 lea	 edx, DWORD PTR _n$212321[ebp+20]
  00252	52		 push	 edx
  00253	8d 85 c0 fe ff
	ff		 lea	 eax, DWORD PTR _n$212321[ebp+16]
  00259	50		 push	 eax
  0025a	8d 8d bc fe ff
	ff		 lea	 ecx, DWORD PTR _n$212321[ebp+12]
  00260	51		 push	 ecx
  00261	8d 95 b8 fe ff
	ff		 lea	 edx, DWORD PTR _n$212321[ebp+8]
  00267	52		 push	 edx
  00268	8d 85 b4 fe ff
	ff		 lea	 eax, DWORD PTR _n$212321[ebp+4]
  0026e	50		 push	 eax
  0026f	8d 8d b0 fe ff
	ff		 lea	 ecx, DWORD PTR _n$212321[ebp]
  00275	51		 push	 ecx
  00276	8d 95 fc fe ff
	ff		 lea	 edx, DWORD PTR _Buff$[ebp]
  0027c	68 00 00 00 00	 push	 OFFSET ??_C@_0DJ@GPAKNOIP@?$CFd?5?$CFd?5?$CFd?5?$CFd?5?$CFd?5?$CFd?5?$CFd?5?$CFd?5?$CFd?5?$CFd?5?$CFd@
  00281	52		 push	 edx
  00282	e8 00 00 00 00	 call	 _sscanf

; 79   : 			this->Drop[this->DropCount].Type			= n[0];

  00287	8b 46 2c	 mov	 eax, DWORD PTR [esi+44]
  0028a	8b 8d b0 fe ff
	ff		 mov	 ecx, DWORD PTR _n$212321[ebp]
  00290	6b c0 4c	 imul	 eax, 76			; 0000004cH
  00293	89 4c 30 30	 mov	 DWORD PTR [eax+esi+48], ecx

; 80   : 			this->Drop[this->DropCount].Index			= n[1];

  00297	8b 56 2c	 mov	 edx, DWORD PTR [esi+44]
  0029a	8b 85 b4 fe ff
	ff		 mov	 eax, DWORD PTR _n$212321[ebp+4]
  002a0	6b d2 4c	 imul	 edx, 76			; 0000004cH
  002a3	89 44 32 34	 mov	 DWORD PTR [edx+esi+52], eax

; 81   : 			this->Drop[this->DropCount].MinLevel		= n[2];

  002a7	8b 4e 2c	 mov	 ecx, DWORD PTR [esi+44]
  002aa	8b 95 b8 fe ff
	ff		 mov	 edx, DWORD PTR _n$212321[ebp+8]
  002b0	6b c9 4c	 imul	 ecx, 76			; 0000004cH
  002b3	89 54 31 38	 mov	 DWORD PTR [ecx+esi+56], edx

; 82   : 			this->Drop[this->DropCount].MaxLevel		= n[3];

  002b7	8b 46 2c	 mov	 eax, DWORD PTR [esi+44]
  002ba	8b 8d bc fe ff
	ff		 mov	 ecx, DWORD PTR _n$212321[ebp+12]
  002c0	6b c0 4c	 imul	 eax, 76			; 0000004cH
  002c3	89 4c 30 3c	 mov	 DWORD PTR [eax+esi+60], ecx

; 83   : 			this->Drop[this->DropCount].Dur				= n[4];

  002c7	8b 56 2c	 mov	 edx, DWORD PTR [esi+44]
  002ca	8b 85 c0 fe ff
	ff		 mov	 eax, DWORD PTR _n$212321[ebp+16]
  002d0	6b d2 4c	 imul	 edx, 76			; 0000004cH
  002d3	89 44 32 40	 mov	 DWORD PTR [edx+esi+64], eax

; 84   : 			this->Drop[this->DropCount].OptionRate		= n[5];

  002d7	8b 4e 2c	 mov	 ecx, DWORD PTR [esi+44]
  002da	8b 95 c4 fe ff
	ff		 mov	 edx, DWORD PTR _n$212321[ebp+20]
  002e0	6b c9 4c	 imul	 ecx, 76			; 0000004cH
  002e3	89 54 31 44	 mov	 DWORD PTR [ecx+esi+68], edx

; 85   : 			this->Drop[this->DropCount].MaxOption		= n[6];

  002e7	8b 46 2c	 mov	 eax, DWORD PTR [esi+44]
  002ea	8b 8d c8 fe ff
	ff		 mov	 ecx, DWORD PTR _n$212321[ebp+24]
  002f0	6b c0 4c	 imul	 eax, 76			; 0000004cH
  002f3	89 4c 30 48	 mov	 DWORD PTR [eax+esi+72], ecx

; 86   : 			this->Drop[this->DropCount].LuckRate		= n[7];

  002f7	8b 56 2c	 mov	 edx, DWORD PTR [esi+44]
  002fa	8b 85 cc fe ff
	ff		 mov	 eax, DWORD PTR _n$212321[ebp+28]
  00300	03 d3		 add	 edx, ebx
  00302	6b d2 4c	 imul	 edx, 76			; 0000004cH
  00305	89 04 32	 mov	 DWORD PTR [edx+esi], eax

; 87   : 			this->Drop[this->DropCount].LuckOption		= n[8];

  00308	8b 4e 2c	 mov	 ecx, DWORD PTR [esi+44]
  0030b	8b 95 d0 fe ff
	ff		 mov	 edx, DWORD PTR _n$212321[ebp+32]
  00311	83 c4 54	 add	 esp, 84			; 00000054H
  00314	6b c9 4c	 imul	 ecx, 76			; 0000004cH
  00317	89 54 31 50	 mov	 DWORD PTR [ecx+esi+80], edx

; 88   : 			this->Drop[this->DropCount].SkillRate		= n[9];

  0031b	8b 46 2c	 mov	 eax, DWORD PTR [esi+44]
  0031e	8b 8d d4 fe ff
	ff		 mov	 ecx, DWORD PTR _n$212321[ebp+36]
  00324	6b c0 4c	 imul	 eax, 76			; 0000004cH
  00327	89 4c 30 54	 mov	 DWORD PTR [eax+esi+84], ecx

; 89   : 			this->Drop[this->DropCount].SkillOption		= n[10];

  0032b	8b 56 2c	 mov	 edx, DWORD PTR [esi+44]
  0032e	8b 85 d8 fe ff
	ff		 mov	 eax, DWORD PTR _n$212321[ebp+40]
  00334	6b d2 4c	 imul	 edx, 76			; 0000004cH
  00337	89 44 32 58	 mov	 DWORD PTR [edx+esi+88], eax

; 90   : 			this->Drop[this->DropCount].ExlRate			= n[11];

  0033b	8b 4e 2c	 mov	 ecx, DWORD PTR [esi+44]
  0033e	8b 95 dc fe ff
	ff		 mov	 edx, DWORD PTR _n$212321[ebp+44]
  00344	6b c9 4c	 imul	 ecx, 76			; 0000004cH
  00347	89 54 31 5c	 mov	 DWORD PTR [ecx+esi+92], edx

; 91   : 			this->Drop[this->DropCount].ExlOption		= n[12];

  0034b	8b 46 2c	 mov	 eax, DWORD PTR [esi+44]
  0034e	8b 8d e0 fe ff
	ff		 mov	 ecx, DWORD PTR _n$212321[ebp+48]
  00354	6b c0 4c	 imul	 eax, 76			; 0000004cH
  00357	89 4c 30 60	 mov	 DWORD PTR [eax+esi+96], ecx

; 92   : 			this->Drop[this->DropCount].AncRate			= n[13];

  0035b	8b 56 2c	 mov	 edx, DWORD PTR [esi+44]
  0035e	8b 85 e4 fe ff
	ff		 mov	 eax, DWORD PTR _n$212321[ebp+52]
  00364	6b d2 4c	 imul	 edx, 76			; 0000004cH
  00367	89 44 32 64	 mov	 DWORD PTR [edx+esi+100], eax

; 93   : 			this->Drop[this->DropCount].AncOption		= n[14];

  0036b	8b 4e 2c	 mov	 ecx, DWORD PTR [esi+44]
  0036e	8b 95 e8 fe ff
	ff		 mov	 edx, DWORD PTR _n$212321[ebp+56]
  00374	6b c9 4c	 imul	 ecx, 76			; 0000004cH
  00377	89 54 31 68	 mov	 DWORD PTR [ecx+esi+104], edx

; 94   : 			this->Drop[this->DropCount].MonsterMinLevel = n[15];

  0037b	8b 46 2c	 mov	 eax, DWORD PTR [esi+44]
  0037e	8b 8d ec fe ff
	ff		 mov	 ecx, DWORD PTR _n$212321[ebp+60]
  00384	6b c0 4c	 imul	 eax, 76			; 0000004cH
  00387	89 4c 30 6c	 mov	 DWORD PTR [eax+esi+108], ecx

; 95   : 			this->Drop[this->DropCount].MonsterMaxLevel = n[16];

  0038b	8b 56 2c	 mov	 edx, DWORD PTR [esi+44]
  0038e	8b 85 f0 fe ff
	ff		 mov	 eax, DWORD PTR _n$212321[ebp+64]
  00394	6b d2 4c	 imul	 edx, 76			; 0000004cH
  00397	89 44 32 70	 mov	 DWORD PTR [edx+esi+112], eax

; 96   : 			this->Drop[this->DropCount].MonsterMap		= n[17];

  0039b	8b 4e 2c	 mov	 ecx, DWORD PTR [esi+44]
  0039e	8b 95 f4 fe ff
	ff		 mov	 edx, DWORD PTR _n$212321[ebp+68]
  003a4	6b c9 4c	 imul	 ecx, 76			; 0000004cH
  003a7	89 54 31 74	 mov	 DWORD PTR [ecx+esi+116], edx

; 97   : 			this->Drop[this->DropCount].ItemDropRate	= n[18];

  003ab	8b 46 2c	 mov	 eax, DWORD PTR [esi+44]
  003ae	8b 8d f8 fe ff
	ff		 mov	 ecx, DWORD PTR _n$212321[ebp+72]
  003b4	6b c0 4c	 imul	 eax, 76			; 0000004cH
  003b7	89 4c 30 78	 mov	 DWORD PTR [eax+esi+120], ecx

; 98   : 			this->DropCount++;

  003bb	01 5e 2c	 add	 DWORD PTR [esi+44], ebx
$LN1@Load:

; 61   : 		return;
; 62   : 	}
; 63   : 
; 64   : 	this->DropCount = 0;
; 65   : 
; 66   : 	char Buff[256];
; 67   : 	int Flag = 0;
; 68   : 	while (!feof(file))

  003be	57		 push	 edi
  003bf	e8 00 00 00 00	 call	 _feof
  003c4	83 c4 04	 add	 esp, 4
  003c7	85 c0		 test	 eax, eax
  003c9	0f 84 e1 fd ff
	ff		 je	 $LL4@Load
$LN3@Load:

; 99   : 		}
; 100  : 
; 101  : 	}
; 102  : 	fclose(file);

  003cf	57		 push	 edi
  003d0	e8 00 00 00 00	 call	 _fclose

; 103  : }

  003d5	8b 4d fc	 mov	 ecx, DWORD PTR __$ArrayPad$[ebp]
  003d8	83 c4 04	 add	 esp, 4
  003db	5f		 pop	 edi
  003dc	5e		 pop	 esi
  003dd	33 cd		 xor	 ecx, ebp
  003df	5b		 pop	 ebx
  003e0	e8 00 00 00 00	 call	 @__security_check_cookie@4
  003e5	8b e5		 mov	 esp, ebp
  003e7	5d		 pop	 ebp
  003e8	c3		 ret	 0
?Load@Brotherhood@@QAEXXZ ENDP				; Brotherhood::Load
_TEXT	ENDS
PUBLIC	??_C@_03EHAPBBEA@One?$AA@			; `string'
PUBLIC	?ActiveBrother@Brotherhood@@QAE_NPAUOBJECTSTRUCT@@@Z ; Brotherhood::ActiveBrother
EXTRN	_strncmp:PROC
EXTRN	?gObj@@3PAUOBJECTSTRUCT@@A:DWORD		; gObj
EXTRN	?gParty@@3VPartyClass@@A:BYTE			; gParty
EXTRN	?g_MaxPartyMember@@3HA:DWORD			; g_MaxPartyMember
EXTRN	?CheckUser@CZtLicense@@QAE_NH@Z:PROC		; CZtLicense::CheckUser
;	COMDAT ??_C@_03EHAPBBEA@One?$AA@
CONST	SEGMENT
??_C@_03EHAPBBEA@One?$AA@ DB 'One', 00H			; `string'
; Function compile flags: /Ogtp
CONST	ENDS
;	COMDAT ?ActiveBrother@Brotherhood@@QAE_NPAUOBJECTSTRUCT@@@Z
_TEXT	SEGMENT
tv198 = 8						; size = 4
_lpObj$ = 8						; size = 4
?ActiveBrother@Brotherhood@@QAE_NPAUOBJECTSTRUCT@@@Z PROC ; Brotherhood::ActiveBrother, COMDAT
; _this$ = ecx

; 106  : {

  00000	55		 push	 ebp
  00001	8b ec		 mov	 ebp, esp

; 107  : 	if(!this->Enable) return false;

  00003	80 39 00	 cmp	 BYTE PTR [ecx], 0
  00006	75 06		 jne	 SHORT $LN19@ActiveBrot
  00008	32 c0		 xor	 al, al

; 184  : 	}
; 185  : 	return false;
; 186  : }

  0000a	5d		 pop	 ebp
  0000b	c2 04 00	 ret	 4
$LN19@ActiveBrot:

; 108  : 
; 109  : #ifdef BR_DEBUG
; 110  : 	return true;
; 111  : #endif
; 112  : 
; 113  : 	int	partynum = lpObj->PartyNumber;

  0000e	8b 45 08	 mov	 eax, DWORD PTR _lpObj$[ebp]
  00011	53		 push	 ebx
  00012	8b 98 2c 04 00
	00		 mov	 ebx, DWORD PTR [eax+1068]
  00018	57		 push	 edi

; 114  : 
; 115  : 	if(!strcmp(lpObj->Brotherhood,"One"))

  00019	8d b8 6d 28 00
	00		 lea	 edi, DWORD PTR [eax+10349]
  0001f	89 7d 08	 mov	 DWORD PTR tv198[ebp], edi
  00022	b9 00 00 00 00	 mov	 ecx, OFFSET ??_C@_03EHAPBBEA@One?$AA@
  00027	8b c7		 mov	 eax, edi
  00029	8d a4 24 00 00
	00 00		 npad	 7
$LL28@ActiveBrot:
  00030	8a 10		 mov	 dl, BYTE PTR [eax]
  00032	3a 11		 cmp	 dl, BYTE PTR [ecx]
  00034	75 1a		 jne	 SHORT $LN29@ActiveBrot
  00036	84 d2		 test	 dl, dl
  00038	74 12		 je	 SHORT $LN30@ActiveBrot
  0003a	8a 50 01	 mov	 dl, BYTE PTR [eax+1]
  0003d	3a 51 01	 cmp	 dl, BYTE PTR [ecx+1]
  00040	75 0e		 jne	 SHORT $LN29@ActiveBrot
  00042	83 c0 02	 add	 eax, 2
  00045	83 c1 02	 add	 ecx, 2
  00048	84 d2		 test	 dl, dl
  0004a	75 e4		 jne	 SHORT $LL28@ActiveBrot
$LN30@ActiveBrot:
  0004c	33 c0		 xor	 eax, eax
  0004e	eb 05		 jmp	 SHORT $LN31@ActiveBrot
$LN29@ActiveBrot:
  00050	1b c0		 sbb	 eax, eax
  00052	83 d8 ff	 sbb	 eax, -1
$LN31@ActiveBrot:
  00055	85 c0		 test	 eax, eax
  00057	75 08		 jne	 SHORT $LN18@ActiveBrot

; 116  : 	{
; 117  : 		return false;

  00059	5f		 pop	 edi
  0005a	32 c0		 xor	 al, al
  0005c	5b		 pop	 ebx

; 184  : 	}
; 185  : 	return false;
; 186  : }

  0005d	5d		 pop	 ebp
  0005e	c2 04 00	 ret	 4
$LN18@ActiveBrot:
  00061	56		 push	 esi

; 118  : 	}
; 119  : 
; 120  : 	if(g_ZtLicense.CheckUser(Local) || g_ZtLicense.CheckUser(SILVER1) || g_ZtLicense.CheckUser(SILVER2))

  00062	6a 00		 push	 0
  00064	b9 00 00 00 00	 mov	 ecx, OFFSET ?g_ZtLicense@@3VCZtLicense@@A ; g_ZtLicense
  00069	e8 00 00 00 00	 call	 ?CheckUser@CZtLicense@@QAE_NH@Z ; CZtLicense::CheckUser
  0006e	84 c0		 test	 al, al
  00070	0f 85 7d 00 00
	00		 jne	 $LN16@ActiveBrot
  00076	6a 07		 push	 7
  00078	b9 00 00 00 00	 mov	 ecx, OFFSET ?g_ZtLicense@@3VCZtLicense@@A ; g_ZtLicense
  0007d	e8 00 00 00 00	 call	 ?CheckUser@CZtLicense@@QAE_NH@Z ; CZtLicense::CheckUser
  00082	84 c0		 test	 al, al
  00084	75 6d		 jne	 SHORT $LN16@ActiveBrot
  00086	6a 08		 push	 8
  00088	b9 00 00 00 00	 mov	 ecx, OFFSET ?g_ZtLicense@@3VCZtLicense@@A ; g_ZtLicense
  0008d	e8 00 00 00 00	 call	 ?CheckUser@CZtLicense@@QAE_NH@Z ; CZtLicense::CheckUser
  00092	84 c0		 test	 al, al
  00094	75 5d		 jne	 SHORT $LN16@ActiveBrot

; 136  : 		{
; 137  : 			return true;
; 138  : 		}
; 139  : 
; 140  : 		return false;
; 141  : 	}
; 142  : 	else
; 143  : 	{
; 144  : 
; 145  : 		if(partynum == -1) return false;

  00096	83 fb ff	 cmp	 ebx, -1
  00099	74 4f		 je	 SHORT $LN3@ActiveBrot

; 146  : 
; 147  : 		int number = 0;
; 148  : 
; 149  : 		for(int n = 0; n < MAX_USER_IN_PARTY; n++)

  0009b	33 f6		 xor	 esi, esi
  0009d	8d 49 00	 npad	 3
$LL7@ActiveBrot:

; 150  : 		{
; 151  : #if _NEW_PARTY_SYSTEM_ == TRUE
; 152  : 			if( n >= g_MaxPartyMember)

  000a0	3b 35 00 00 00
	00		 cmp	 esi, DWORD PTR ?g_MaxPartyMember@@3HA ; g_MaxPartyMember
  000a6	7d 39		 jge	 SHORT $LN5@ActiveBrot

; 153  : 			{
; 154  : 				break;
; 155  : 			}
; 156  : #endif
; 157  : 			number = gParty.m_PartyS[partynum].Number[n];

  000a8	8b c3		 mov	 eax, ebx
  000aa	6b c0 1a	 imul	 eax, 26			; 0000001aH
  000ad	03 c6		 add	 eax, esi
  000af	8b 04 85 0c 00
	00 00		 mov	 eax, DWORD PTR ?gParty@@3VPartyClass@@A[eax*4+12]

; 158  : 
; 159  : 			if(number >= 0)

  000b6	85 c0		 test	 eax, eax
  000b8	78 30		 js	 SHORT $LN3@ActiveBrot

; 160  : 			{
; 161  : 				LPOBJ LpBrother = &gObj[number];

  000ba	69 c0 50 2b 00
	00		 imul	 eax, 11088		; 00002b50H
  000c0	03 05 00 00 00
	00		 add	 eax, DWORD PTR ?gObj@@3PAUOBJECTSTRUCT@@A ; gObj

; 162  : 
; 163  : 				/*if(g_ZtLicense.CheckUser(Local) || g_ZtLicense.CheckUser(ulasevich) || g_ZtLicense.CheckUser(ulasevich2))
; 164  : 				{
; 165  : 					if(!strncmp(lpObj->Brotherhood,LpBrother->Brotherhood,10))
; 166  : 					{
; 167  : 						return true;
; 168  : 					}
; 169  : 				}
; 170  : 				else*/
; 171  : 				{
; 172  : 					if(strncmp(lpObj->Brotherhood,LpBrother->Brotherhood,10))

  000c6	6a 0a		 push	 10			; 0000000aH
  000c8	05 6d 28 00 00	 add	 eax, 10349		; 0000286dH
  000cd	50		 push	 eax
  000ce	57		 push	 edi
  000cf	e8 00 00 00 00	 call	 _strncmp
  000d4	83 c4 0c	 add	 esp, 12			; 0000000cH
  000d7	85 c0		 test	 eax, eax
  000d9	75 0f		 jne	 SHORT $LN3@ActiveBrot

; 146  : 
; 147  : 		int number = 0;
; 148  : 
; 149  : 		for(int n = 0; n < MAX_USER_IN_PARTY; n++)

  000db	46		 inc	 esi
  000dc	83 fe 0a	 cmp	 esi, 10			; 0000000aH
  000df	7c bf		 jl	 SHORT $LL7@ActiveBrot
$LN5@ActiveBrot:
  000e1	5e		 pop	 esi
  000e2	5f		 pop	 edi

; 181  : 			}
; 182  : 		}
; 183  : 		return true;

  000e3	b0 01		 mov	 al, 1
  000e5	5b		 pop	 ebx

; 184  : 	}
; 185  : 	return false;
; 186  : }

  000e6	5d		 pop	 ebp
  000e7	c2 04 00	 ret	 4
$LN3@ActiveBrot:
  000ea	5e		 pop	 esi
  000eb	5f		 pop	 edi

; 173  : 					{
; 174  : 						return false;
; 175  : 					}
; 176  : 				}
; 177  : 			}
; 178  : 			else
; 179  : 			{
; 180  : 				return false;

  000ec	32 c0		 xor	 al, al
  000ee	5b		 pop	 ebx

; 184  : 	}
; 185  : 	return false;
; 186  : }

  000ef	5d		 pop	 ebp
  000f0	c2 04 00	 ret	 4
$LN16@ActiveBrot:

; 121  : 	{
; 122  : 		int Countbr = 0;

  000f3	33 ff		 xor	 edi, edi
  000f5	be 00 a7 40 09	 mov	 esi, 155232000		; 0940a700H
  000fa	bb 03 00 00 00	 mov	 ebx, 3
  000ff	90		 npad	 1
$LL15@ActiveBrot:

; 124  : 		{
; 125  : 			if ( gObj[n].Connected == PLAYER_PLAYING )

  00100	a1 00 00 00 00	 mov	 eax, DWORD PTR ?gObj@@3PAUOBJECTSTRUCT@@A ; gObj
  00105	39 5c 06 04	 cmp	 DWORD PTR [esi+eax+4], ebx
  00109	75 1b		 jne	 SHORT $LN14@ActiveBrot

; 126  : 			{
; 127  : 				LPOBJ LpBrother = &gObj[n];
; 128  : 				if(!strncmp(lpObj->Brotherhood,LpBrother->Brotherhood,10))

  0010b	8b 55 08	 mov	 edx, DWORD PTR tv198[ebp]
  0010e	6a 0a		 push	 10			; 0000000aH
  00110	8d 8c 06 6d 28
	00 00		 lea	 ecx, DWORD PTR [esi+eax+10349]
  00117	51		 push	 ecx
  00118	52		 push	 edx
  00119	e8 00 00 00 00	 call	 _strncmp
  0011e	83 c4 0c	 add	 esp, 12			; 0000000cH
  00121	85 c0		 test	 eax, eax
  00123	75 01		 jne	 SHORT $LN14@ActiveBrot

; 129  : 				{
; 130  : 					Countbr++;

  00125	47		 inc	 edi
$LN14@ActiveBrot:

; 123  : 		for (int n=OBJ_STARTUSERINDZT;n<OBJMAX;n++)

  00126	81 c6 50 2b 00
	00		 add	 esi, 11088		; 00002b50H
  0012c	81 fe 80 d7 e9
	09		 cmp	 esi, 166320000		; 09e9d780H
  00132	7c cc		 jl	 SHORT $LL15@ActiveBrot

; 131  : 				}
; 132  : 			}
; 133  : 		}
; 134  : 
; 135  : 		if(Countbr >= 5)

  00134	5e		 pop	 esi
  00135	83 ff 05	 cmp	 edi, 5
  00138	5f		 pop	 edi
  00139	0f 9d c0	 setge	 al
  0013c	5b		 pop	 ebx

; 184  : 	}
; 185  : 	return false;
; 186  : }

  0013d	5d		 pop	 ebp
  0013e	c2 04 00	 ret	 4
?ActiveBrother@Brotherhood@@QAE_NPAUOBJECTSTRUCT@@@Z ENDP ; Brotherhood::ActiveBrother
_TEXT	ENDS
PUBLIC	?UserExp@Brotherhood@@QAEXPAUOBJECTSTRUCT@@AA_J@Z ; Brotherhood::UserExp
EXTRN	__alldiv:PROC
EXTRN	__allmul:PROC
; Function compile flags: /Ogtp
;	COMDAT ?UserExp@Brotherhood@@QAEXPAUOBJECTSTRUCT@@AA_J@Z
_TEXT	SEGMENT
_this$ = -4						; size = 4
_lpObj$ = 8						; size = 4
_Exp$ = 12						; size = 4
?UserExp@Brotherhood@@QAEXPAUOBJECTSTRUCT@@AA_J@Z PROC	; Brotherhood::UserExp, COMDAT
; _this$ = ecx

; 189  : {

  00000	55		 push	 ebp
  00001	8b ec		 mov	 ebp, esp
  00003	51		 push	 ecx

; 190  : 	if(!this->Enable) return;

  00004	80 39 00	 cmp	 BYTE PTR [ecx], 0
  00007	89 4d fc	 mov	 DWORD PTR _this$[ebp], ecx
  0000a	74 3f		 je	 SHORT $LN3@UserExp

; 191  : 
; 192  : 	if(!this->ActiveBrother(lpObj)) return;

  0000c	8b 45 08	 mov	 eax, DWORD PTR _lpObj$[ebp]
  0000f	50		 push	 eax
  00010	e8 00 00 00 00	 call	 ?ActiveBrother@Brotherhood@@QAE_NPAUOBJECTSTRUCT@@@Z ; Brotherhood::ActiveBrother
  00015	84 c0		 test	 al, al
  00017	74 32		 je	 SHORT $LN3@UserExp

; 193  : 
; 194  : 	Exp += ( Exp * this->PlusExp ) / 100;

  00019	8b 4d fc	 mov	 ecx, DWORD PTR _this$[ebp]
  0001c	8b 41 04	 mov	 eax, DWORD PTR [ecx+4]
  0001f	53		 push	 ebx
  00020	56		 push	 esi
  00021	8b 75 0c	 mov	 esi, DWORD PTR _Exp$[ebp]
  00024	8b 5e 04	 mov	 ebx, DWORD PTR [esi+4]
  00027	57		 push	 edi
  00028	8b 3e		 mov	 edi, DWORD PTR [esi]
  0002a	53		 push	 ebx
  0002b	99		 cdq
  0002c	57		 push	 edi
  0002d	52		 push	 edx
  0002e	50		 push	 eax
  0002f	e8 00 00 00 00	 call	 __allmul
  00034	6a 00		 push	 0
  00036	6a 64		 push	 100			; 00000064H
  00038	52		 push	 edx
  00039	50		 push	 eax
  0003a	e8 00 00 00 00	 call	 __alldiv
  0003f	03 c7		 add	 eax, edi
  00041	13 d3		 adc	 edx, ebx
  00043	5f		 pop	 edi
  00044	89 06		 mov	 DWORD PTR [esi], eax
  00046	89 56 04	 mov	 DWORD PTR [esi+4], edx
  00049	5e		 pop	 esi
  0004a	5b		 pop	 ebx
$LN3@UserExp:

; 195  : }

  0004b	8b e5		 mov	 esp, ebp
  0004d	5d		 pop	 ebp
  0004e	c2 08 00	 ret	 8
?UserExp@Brotherhood@@QAEXPAUOBJECTSTRUCT@@AA_J@Z ENDP	; Brotherhood::UserExp
_TEXT	ENDS
PUBLIC	__real@4059000000000000
PUBLIC	?UserBonusZen@Brotherhood@@QAEXPAUOBJECTSTRUCT@@AAM@Z ; Brotherhood::UserBonusZen
EXTRN	__fltused:DWORD
;	COMDAT __real@4059000000000000
CONST	SEGMENT
__real@4059000000000000 DQ 04059000000000000r	; 100
; Function compile flags: /Ogtp
CONST	ENDS
;	COMDAT ?UserBonusZen@Brotherhood@@QAEXPAUOBJECTSTRUCT@@AAM@Z
_TEXT	SEGMENT
_lpObj$ = 8						; size = 4
_money$ = 12						; size = 4
?UserBonusZen@Brotherhood@@QAEXPAUOBJECTSTRUCT@@AAM@Z PROC ; Brotherhood::UserBonusZen, COMDAT
; _this$ = ecx

; 198  : {

  00000	55		 push	 ebp
  00001	8b ec		 mov	 ebp, esp
  00003	56		 push	 esi
  00004	8b f1		 mov	 esi, ecx

; 199  : 	if(!this->Enable) return;

  00006	80 3e 00	 cmp	 BYTE PTR [esi], 0
  00009	74 1f		 je	 SHORT $LN3@UserBonusZ

; 200  : 
; 201  : 	if(!this->ActiveBrother(lpObj)) return;

  0000b	8b 45 08	 mov	 eax, DWORD PTR _lpObj$[ebp]
  0000e	50		 push	 eax
  0000f	e8 00 00 00 00	 call	 ?ActiveBrother@Brotherhood@@QAE_NPAUOBJECTSTRUCT@@@Z ; Brotherhood::ActiveBrother
  00014	84 c0		 test	 al, al
  00016	74 12		 je	 SHORT $LN3@UserBonusZ

; 202  : 
; 203  : 	money += ( money * this->PlusZen ) / 100;

  00018	db 46 08	 fild	 DWORD PTR [esi+8]
  0001b	8b 45 0c	 mov	 eax, DWORD PTR _money$[ebp]
  0001e	d8 08		 fmul	 DWORD PTR [eax]
  00020	dc 35 00 00 00
	00		 fdiv	 QWORD PTR __real@4059000000000000
  00026	d8 00		 fadd	 DWORD PTR [eax]
  00028	d9 18		 fstp	 DWORD PTR [eax]
$LN3@UserBonusZ:
  0002a	5e		 pop	 esi

; 204  : }

  0002b	5d		 pop	 ebp
  0002c	c2 08 00	 ret	 8
?UserBonusZen@Brotherhood@@QAEXPAUOBJECTSTRUCT@@AAM@Z ENDP ; Brotherhood::UserBonusZen
_TEXT	ENDS
PUBLIC	?ProccessItemDrop@Brotherhood@@QAE_NPAUOBJECTSTRUCT@@0@Z ; Brotherhood::ProccessItemDrop
EXTRN	?ItemSerialCreateSend@@YAXHEEEHEEEEEHEE@Z:PROC	; ItemSerialCreateSend
EXTRN	?gObjMonsterTopHitDamageUser@@YAHPAUOBJECTSTRUCT@@@Z:PROC ; gObjMonsterTopHitDamageUser
EXTRN	?GenExcOpt@@YAHH@Z:PROC				; GenExcOpt
EXTRN	_rand:PROC
; Function compile flags: /Ogtp
;	COMDAT ?ProccessItemDrop@Brotherhood@@QAE_NPAUOBJECTSTRUCT@@0@Z
_TEXT	SEGMENT
_iOption$212384 = -12					; size = 4
_iExlOpt$212387 = -8					; size = 4
_iLevel$212383 = -4					; size = 4
_this$ = -4						; size = 4
_iAncOpt$212388 = 8					; size = 4
_lpMobObj$ = 8						; size = 4
_iLuck$212385 = 12					; size = 4
_lpTargetObj$ = 12					; size = 4
?ProccessItemDrop@Brotherhood@@QAE_NPAUOBJECTSTRUCT@@0@Z PROC ; Brotherhood::ProccessItemDrop, COMDAT
; _this$ = ecx

; 207  : {

  00000	55		 push	 ebp
  00001	8b ec		 mov	 ebp, esp
  00003	83 ec 0c	 sub	 esp, 12			; 0000000cH
  00006	57		 push	 edi
  00007	8b f9		 mov	 edi, ecx

; 208  : 	if(!this->Enable) return false; 

  00009	80 3f 00	 cmp	 BYTE PTR [edi], 0
  0000c	89 7d fc	 mov	 DWORD PTR _this$[ebp], edi
  0000f	75 09		 jne	 SHORT $LN22@ProccessIt
$LN31@ProccessIt:
  00011	32 c0		 xor	 al, al
  00013	5f		 pop	 edi

; 283  : }

  00014	8b e5		 mov	 esp, ebp
  00016	5d		 pop	 ebp
  00017	c2 08 00	 ret	 8
$LN22@ProccessIt:

; 209  : 
; 210  : 	if(!this->ActiveBrother(lpTargetObj)) return false;

  0001a	8b 45 0c	 mov	 eax, DWORD PTR _lpTargetObj$[ebp]
  0001d	50		 push	 eax
  0001e	e8 00 00 00 00	 call	 ?ActiveBrother@Brotherhood@@QAE_NPAUOBJECTSTRUCT@@@Z ; Brotherhood::ActiveBrother
  00023	84 c0		 test	 al, al
  00025	74 ea		 je	 SHORT $LN31@ProccessIt

; 211  : 
; 212  : 	for (int i=0; i < this->DropCount; i++)

  00027	53		 push	 ebx
  00028	56		 push	 esi
  00029	33 f6		 xor	 esi, esi
  0002b	39 77 2c	 cmp	 DWORD PTR [edi+44], esi
  0002e	7e 51		 jle	 SHORT $LN18@ProccessIt
  00030	8b 5d 08	 mov	 ebx, DWORD PTR _lpMobObj$[ebp]
  00033	83 c7 74	 add	 edi, 116		; 00000074H
  00036	eb 08 8d a4 24
	00 00 00 00 90	 npad	 10
$LL20@ProccessIt:

; 213  : 	{
; 214  : 		if ( lpMobObj->MapNumber == this->Drop[i].MonsterMap || this->Drop[i].MonsterMap == -1 )

  00040	0f b6 8b 49 01
	00 00		 movzx	 ecx, BYTE PTR [ebx+329]
  00047	8b 07		 mov	 eax, DWORD PTR [edi]
  00049	3b c8		 cmp	 ecx, eax
  0004b	74 05		 je	 SHORT $LN16@ProccessIt
  0004d	83 f8 ff	 cmp	 eax, -1
  00050	75 23		 jne	 SHORT $LN19@ProccessIt
$LN16@ProccessIt:

; 215  : 		{
; 216  : 			if ( lpMobObj->Level >= this->Drop[i].MonsterMinLevel && lpMobObj->Level <= this->Drop[i].MonsterMaxLevel )

  00052	0f bf 83 be 00
	00 00		 movsx	 eax, WORD PTR [ebx+190]
  00059	3b 47 f8	 cmp	 eax, DWORD PTR [edi-8]
  0005c	7c 17		 jl	 SHORT $LN19@ProccessIt
  0005e	3b 47 fc	 cmp	 eax, DWORD PTR [edi-4]
  00061	7f 12		 jg	 SHORT $LN19@ProccessIt

; 217  : 			{
; 218  : 				if ( (rand()%10000) < this->Drop[i].ItemDropRate )

  00063	e8 00 00 00 00	 call	 _rand
  00068	99		 cdq
  00069	b9 10 27 00 00	 mov	 ecx, 10000		; 00002710H
  0006e	f7 f9		 idiv	 ecx
  00070	3b 57 04	 cmp	 edx, DWORD PTR [edi+4]
  00073	7c 17		 jl	 SHORT $LN26@ProccessIt
$LN19@ProccessIt:

; 211  : 
; 212  : 	for (int i=0; i < this->DropCount; i++)

  00075	8b 55 fc	 mov	 edx, DWORD PTR _this$[ebp]
  00078	46		 inc	 esi
  00079	83 c7 4c	 add	 edi, 76			; 0000004cH
  0007c	3b 72 2c	 cmp	 esi, DWORD PTR [edx+44]
  0007f	7c bf		 jl	 SHORT $LL20@ProccessIt
$LN18@ProccessIt:
  00081	5e		 pop	 esi
  00082	5b		 pop	 ebx

; 278  : 				}
; 279  : 			}
; 280  : 		}
; 281  : 	}
; 282  : 	return false;

  00083	32 c0		 xor	 al, al
  00085	5f		 pop	 edi

; 283  : }

  00086	8b e5		 mov	 esp, ebp
  00088	5d		 pop	 ebp
  00089	c2 08 00	 ret	 8
$LN26@ProccessIt:

; 219  : 				{
; 220  : 					int iLevel	= 0;
; 221  : 					int iOption	= 0;
; 222  : 					int iLuck	= 0;
; 223  : 					int iSkill	= 0;
; 224  : 					int iExlOpt	= 0;
; 225  : 					int iAncOpt	= 0;
; 226  : 					
; 227  : 					if( this->Drop[i].MaxLevel == this->Drop[i].MinLevel )

  0008c	6b f6 4c	 imul	 esi, 76			; 0000004cH
  0008f	03 75 fc	 add	 esi, DWORD PTR _this$[ebp]
  00092	33 c9		 xor	 ecx, ecx
  00094	8b 46 38	 mov	 eax, DWORD PTR [esi+56]
  00097	89 4d f4	 mov	 DWORD PTR _iOption$212384[ebp], ecx
  0009a	89 4d 0c	 mov	 DWORD PTR _iLuck$212385[ebp], ecx
  0009d	89 4d f8	 mov	 DWORD PTR _iExlOpt$212387[ebp], ecx
  000a0	89 4d 08	 mov	 DWORD PTR _iAncOpt$212388[ebp], ecx
  000a3	39 46 3c	 cmp	 DWORD PTR [esi+60], eax
  000a6	75 05		 jne	 SHORT $LN13@ProccessIt

; 228  : 					{
; 229  : 						iLevel = this->Drop[i].MinLevel;

  000a8	89 45 fc	 mov	 DWORD PTR _iLevel$212383[ebp], eax

; 230  : 					}
; 231  : 					else

  000ab	eb 17		 jmp	 SHORT $LN12@ProccessIt
$LN13@ProccessIt:

; 232  : 					{
; 233  : 						iLevel = this->Drop[i].MinLevel + (rand() % (this->Drop[i].MaxLevel - this->Drop[i].MinLevel + 1));

  000ad	8b f8		 mov	 edi, eax
  000af	e8 00 00 00 00	 call	 _rand
  000b4	8b 4e 3c	 mov	 ecx, DWORD PTR [esi+60]
  000b7	2b cf		 sub	 ecx, edi
  000b9	41		 inc	 ecx
  000ba	99		 cdq
  000bb	f7 f9		 idiv	 ecx
  000bd	03 d7		 add	 edx, edi
  000bf	89 55 fc	 mov	 DWORD PTR _iLevel$212383[ebp], edx
  000c2	33 c9		 xor	 ecx, ecx
$LN12@ProccessIt:

; 234  : 					}	
; 235  : 
; 236  : 					if( this->Drop[i].MaxOption != 0 )

  000c4	39 4e 48	 cmp	 DWORD PTR [esi+72], ecx
  000c7	74 27		 je	 SHORT $LN28@ProccessIt

; 237  : 					{
; 238  : 						if( rand() % 100 < this->Drop[i].OptionRate )

  000c9	e8 00 00 00 00	 call	 _rand
  000ce	99		 cdq
  000cf	b9 64 00 00 00	 mov	 ecx, 100		; 00000064H
  000d4	f7 f9		 idiv	 ecx
  000d6	3b 56 44	 cmp	 edx, DWORD PTR [esi+68]
  000d9	7d 15		 jge	 SHORT $LN28@ProccessIt

; 239  : 						{
; 240  : 							iOption = rand() % this->Drop[i].MaxOption + 1;

  000db	e8 00 00 00 00	 call	 _rand
  000e0	99		 cdq
  000e1	f7 7e 48	 idiv	 DWORD PTR [esi+72]
  000e4	bf 01 00 00 00	 mov	 edi, 1
  000e9	03 d7		 add	 edx, edi
  000eb	89 55 f4	 mov	 DWORD PTR _iOption$212384[ebp], edx
  000ee	eb 05		 jmp	 SHORT $LN10@ProccessIt
$LN28@ProccessIt:
  000f0	bf 01 00 00 00	 mov	 edi, 1
$LN10@ProccessIt:

; 241  : 						}
; 242  : 					}
; 243  : 
; 244  : 					if( this->Drop[i].LuckOption == 1 )

  000f5	39 7e 50	 cmp	 DWORD PTR [esi+80], edi
  000f8	75 15		 jne	 SHORT $LN8@ProccessIt

; 245  : 					{
; 246  : 						if( rand() % 100 < this->Drop[i].LuckRate )

  000fa	e8 00 00 00 00	 call	 _rand
  000ff	99		 cdq
  00100	b9 64 00 00 00	 mov	 ecx, 100		; 00000064H
  00105	f7 f9		 idiv	 ecx
  00107	3b 56 4c	 cmp	 edx, DWORD PTR [esi+76]
  0010a	7d 03		 jge	 SHORT $LN8@ProccessIt

; 247  : 						{
; 248  : 							iLuck = 1;

  0010c	89 7d 0c	 mov	 DWORD PTR _iLuck$212385[ebp], edi
$LN8@ProccessIt:

; 249  : 						}
; 250  : 					}
; 251  : 
; 252  : 					if( this->Drop[i].SkillOption == 1 )

  0010f	39 7e 58	 cmp	 DWORD PTR [esi+88], edi
  00112	75 15		 jne	 SHORT $LN6@ProccessIt

; 253  : 					{
; 254  : 						if( rand() % 100 < this->Drop[i].SkillRate )

  00114	e8 00 00 00 00	 call	 _rand
  00119	99		 cdq
  0011a	b9 64 00 00 00	 mov	 ecx, 100		; 00000064H
  0011f	f7 f9		 idiv	 ecx
  00121	3b 56 54	 cmp	 edx, DWORD PTR [esi+84]
  00124	7d 03		 jge	 SHORT $LN6@ProccessIt

; 255  : 						{
; 256  : 							iLuck = 1;

  00126	89 7d 0c	 mov	 DWORD PTR _iLuck$212385[ebp], edi
$LN6@ProccessIt:

; 257  : 						}
; 258  : 					}
; 259  : 
; 260  : 					if(this->Drop[i].ExlOption)

  00129	83 7e 60 00	 cmp	 DWORD PTR [esi+96], 0
  0012d	74 21		 je	 SHORT $LN4@ProccessIt

; 261  : 					{
; 262  : 						if( rand() % 100 < this->Drop[i].ExlRate )

  0012f	e8 00 00 00 00	 call	 _rand
  00134	99		 cdq
  00135	b9 64 00 00 00	 mov	 ecx, 100		; 00000064H
  0013a	f7 f9		 idiv	 ecx
  0013c	3b 56 5c	 cmp	 edx, DWORD PTR [esi+92]
  0013f	7d 0f		 jge	 SHORT $LN4@ProccessIt

; 263  : 						{
; 264  : 							iExlOpt = GenExcOpt(this->Drop[i].ExlOption);

  00141	8b 56 60	 mov	 edx, DWORD PTR [esi+96]
  00144	52		 push	 edx
  00145	e8 00 00 00 00	 call	 ?GenExcOpt@@YAHH@Z	; GenExcOpt
  0014a	83 c4 04	 add	 esp, 4
  0014d	89 45 f8	 mov	 DWORD PTR _iExlOpt$212387[ebp], eax
$LN4@ProccessIt:

; 265  : 						}
; 266  : 					}
; 267  : 
; 268  : 					if(this->Drop[i].AncOption == 5 || this->Drop[i].AncOption == 10)

  00150	8b 46 68	 mov	 eax, DWORD PTR [esi+104]
  00153	83 f8 05	 cmp	 eax, 5
  00156	74 05		 je	 SHORT $LN2@ProccessIt
  00158	83 f8 0a	 cmp	 eax, 10			; 0000000aH
  0015b	75 18		 jne	 SHORT $LN1@ProccessIt
$LN2@ProccessIt:

; 269  : 					{
; 270  : 						if( rand() % 100 < this->Drop[i].AncRate )

  0015d	e8 00 00 00 00	 call	 _rand
  00162	99		 cdq
  00163	b9 64 00 00 00	 mov	 ecx, 100		; 00000064H
  00168	f7 f9		 idiv	 ecx
  0016a	3b 56 64	 cmp	 edx, DWORD PTR [esi+100]
  0016d	7d 06		 jge	 SHORT $LN1@ProccessIt

; 271  : 						{
; 272  : 							iAncOpt = this->Drop[i].AncOption;

  0016f	8b 56 68	 mov	 edx, DWORD PTR [esi+104]
  00172	89 55 08	 mov	 DWORD PTR _iAncOpt$212388[ebp], edx
$LN1@ProccessIt:

; 273  : 						}
; 274  : 					}
; 275  : 
; 276  : 					ItemSerialCreateSend(lpMobObj->m_Index,lpMobObj->MapNumber,lpMobObj->X,lpMobObj->Y,ITEMGET(this->Drop[i].Type,this->Drop[i].Index),iLevel,this->Drop[i].Dur,iSkill,iLuck,iOption,gObjMonsterTopHitDamageUser(lpMobObj),iExlOpt,iAncOpt);

  00175	8b 45 08	 mov	 eax, DWORD PTR _iAncOpt$212388[ebp]
  00178	8b 4d f8	 mov	 ecx, DWORD PTR _iExlOpt$212387[ebp]
  0017b	50		 push	 eax
  0017c	51		 push	 ecx
  0017d	53		 push	 ebx
  0017e	e8 00 00 00 00	 call	 ?gObjMonsterTopHitDamageUser@@YAHPAUOBJECTSTRUCT@@@Z ; gObjMonsterTopHitDamageUser
  00183	8b 55 f4	 mov	 edx, DWORD PTR _iOption$212384[ebp]
  00186	0f b6 4e 40	 movzx	 ecx, BYTE PTR [esi+64]
  0018a	83 c4 04	 add	 esp, 4
  0018d	50		 push	 eax
  0018e	8b 45 0c	 mov	 eax, DWORD PTR _iLuck$212385[ebp]
  00191	52		 push	 edx
  00192	8b 55 fc	 mov	 edx, DWORD PTR _iLevel$212383[ebp]
  00195	50		 push	 eax
  00196	8b 46 30	 mov	 eax, DWORD PTR [esi+48]
  00199	6a 00		 push	 0
  0019b	51		 push	 ecx
  0019c	0f b6 8b 46 01
	00 00		 movzx	 ecx, BYTE PTR [ebx+326]
  001a3	52		 push	 edx
  001a4	0f b6 93 44 01
	00 00		 movzx	 edx, BYTE PTR [ebx+324]
  001ab	c1 e0 09	 shl	 eax, 9
  001ae	03 46 34	 add	 eax, DWORD PTR [esi+52]
  001b1	50		 push	 eax
  001b2	0f b6 83 49 01
	00 00		 movzx	 eax, BYTE PTR [ebx+329]
  001b9	51		 push	 ecx
  001ba	8b 0b		 mov	 ecx, DWORD PTR [ebx]
  001bc	52		 push	 edx
  001bd	50		 push	 eax
  001be	51		 push	 ecx
  001bf	e8 00 00 00 00	 call	 ?ItemSerialCreateSend@@YAXHEEEHEEEEEHEE@Z ; ItemSerialCreateSend
  001c4	83 c4 34	 add	 esp, 52			; 00000034H
  001c7	5e		 pop	 esi
  001c8	5b		 pop	 ebx

; 277  : 					return true;

  001c9	b0 01		 mov	 al, 1
  001cb	5f		 pop	 edi

; 283  : }

  001cc	8b e5		 mov	 esp, ebp
  001ce	5d		 pop	 ebp
  001cf	c2 08 00	 ret	 8
?ProccessItemDrop@Brotherhood@@QAE_NPAUOBJECTSTRUCT@@0@Z ENDP ; Brotherhood::ProccessItemDrop
_TEXT	ENDS
PUBLIC	?CharacterAdded@Brotherhood@@QAEXPAUOBJECTSTRUCT@@@Z ; Brotherhood::CharacterAdded
; Function compile flags: /Ogtp
;	COMDAT ?CharacterAdded@Brotherhood@@QAEXPAUOBJECTSTRUCT@@@Z
_TEXT	SEGMENT
_lpObj$ = 8						; size = 4
?CharacterAdded@Brotherhood@@QAEXPAUOBJECTSTRUCT@@@Z PROC ; Brotherhood::CharacterAdded, COMDAT
; _this$ = ecx

; 286  : {

  00000	55		 push	 ebp
  00001	8b ec		 mov	 ebp, esp
  00003	57		 push	 edi
  00004	8b f9		 mov	 edi, ecx

; 287  : 	if(!this->Enable) return; 

  00006	80 3f 00	 cmp	 BYTE PTR [edi], 0
  00009	0f 84 53 01 00
	00		 je	 $LN3@CharacterA

; 288  : 	if(!this->ActiveBrother(lpObj)) return;

  0000f	56		 push	 esi
  00010	8b 75 08	 mov	 esi, DWORD PTR _lpObj$[ebp]
  00013	56		 push	 esi
  00014	e8 00 00 00 00	 call	 ?ActiveBrother@Brotherhood@@QAE_NPAUOBJECTSTRUCT@@@Z ; Brotherhood::ActiveBrother
  00019	84 c0		 test	 al, al
  0001b	0f 84 40 01 00
	00		 je	 $LN5@CharacterA

; 289  : 	//Damage
; 290  : 	lpObj->m_AttackDamageMaxLeft += ((lpObj->m_AttackDamageMaxLeft * this->PlusDamage) / 100);

  00021	8b 4f 0c	 mov	 ecx, DWORD PTR [edi+12]
  00024	53		 push	 ebx
  00025	8b 9e 78 04 00
	00		 mov	 ebx, DWORD PTR [esi+1144]
  0002b	0f af cb	 imul	 ecx, ebx
  0002e	b8 1f 85 eb 51	 mov	 eax, 1374389535		; 51eb851fH
  00033	f7 e9		 imul	 ecx
  00035	c1 fa 05	 sar	 edx, 5
  00038	8b c2		 mov	 eax, edx
  0003a	c1 e8 1f	 shr	 eax, 31			; 0000001fH
  0003d	03 c2		 add	 eax, edx
  0003f	03 c3		 add	 eax, ebx

; 291  : 	lpObj->m_AttackDamageMinLeft += ((lpObj->m_AttackDamageMinLeft * this->PlusDamage) / 100);

  00041	8b 9e 7c 04 00
	00		 mov	 ebx, DWORD PTR [esi+1148]
  00047	89 86 78 04 00
	00		 mov	 DWORD PTR [esi+1144], eax
  0004d	8b 4f 0c	 mov	 ecx, DWORD PTR [edi+12]
  00050	0f af cb	 imul	 ecx, ebx
  00053	b8 1f 85 eb 51	 mov	 eax, 1374389535		; 51eb851fH
  00058	f7 e9		 imul	 ecx
  0005a	c1 fa 05	 sar	 edx, 5
  0005d	8b ca		 mov	 ecx, edx
  0005f	c1 e9 1f	 shr	 ecx, 31			; 0000001fH
  00062	03 ca		 add	 ecx, edx
  00064	03 cb		 add	 ecx, ebx

; 292  : 	lpObj->m_AttackDamageMaxRight += ((lpObj->m_AttackDamageMaxRight * this->PlusDamage) / 100);

  00066	8b 9e 80 04 00
	00		 mov	 ebx, DWORD PTR [esi+1152]
  0006c	89 8e 7c 04 00
	00		 mov	 DWORD PTR [esi+1148], ecx
  00072	8b 4f 0c	 mov	 ecx, DWORD PTR [edi+12]
  00075	0f af cb	 imul	 ecx, ebx
  00078	b8 1f 85 eb 51	 mov	 eax, 1374389535		; 51eb851fH
  0007d	f7 e9		 imul	 ecx
  0007f	c1 fa 05	 sar	 edx, 5
  00082	8b c2		 mov	 eax, edx
  00084	c1 e8 1f	 shr	 eax, 31			; 0000001fH
  00087	03 c2		 add	 eax, edx
  00089	03 c3		 add	 eax, ebx

; 293  : 	lpObj->m_AttackDamageMinRight += ((lpObj->m_AttackDamageMinRight * this->PlusDamage) / 100);

  0008b	8b 9e 84 04 00
	00		 mov	 ebx, DWORD PTR [esi+1156]
  00091	89 86 80 04 00
	00		 mov	 DWORD PTR [esi+1152], eax
  00097	8b 4f 0c	 mov	 ecx, DWORD PTR [edi+12]
  0009a	0f af cb	 imul	 ecx, ebx
  0009d	b8 1f 85 eb 51	 mov	 eax, 1374389535		; 51eb851fH
  000a2	f7 e9		 imul	 ecx
  000a4	c1 fa 05	 sar	 edx, 5
  000a7	8b ca		 mov	 ecx, edx
  000a9	c1 e9 1f	 shr	 ecx, 31			; 0000001fH
  000ac	03 ca		 add	 ecx, edx
  000ae	03 cb		 add	 ecx, ebx
  000b0	89 8e 84 04 00
	00		 mov	 DWORD PTR [esi+1156], ecx

; 294  : 	//Ignore
; 295  : 	lpObj->SetOpIgnoreDefense += this->PlusIgnore;

  000b6	8a 57 14	 mov	 dl, BYTE PTR [edi+20]
  000b9	00 96 3e 11 00
	00		 add	 BYTE PTR [esi+4414], dl

; 296  : 	//Double Damage
; 297  : 	lpObj->SetOpDoubleDamage += this->PlusDoubleDamage;

  000bf	8a 47 18	 mov	 al, BYTE PTR [edi+24]
  000c2	00 86 3f 11 00
	00		 add	 BYTE PTR [esi+4415], al

; 298  : 	lpObj->m_MagicDamageMin += ((gObj->m_MagicDamageMin * this->PlusDamage) / 100);

  000c8	8b 0d 00 00 00
	00		 mov	 ecx, DWORD PTR ?gObj@@3PAUOBJECTSTRUCT@@A ; gObj
  000ce	8b 89 68 04 00
	00		 mov	 ecx, DWORD PTR [ecx+1128]
  000d4	0f af 4f 0c	 imul	 ecx, DWORD PTR [edi+12]
  000d8	b8 1f 85 eb 51	 mov	 eax, 1374389535		; 51eb851fH
  000dd	f7 e9		 imul	 ecx
  000df	c1 fa 05	 sar	 edx, 5
  000e2	8b c2		 mov	 eax, edx
  000e4	c1 e8 1f	 shr	 eax, 31			; 0000001fH
  000e7	03 c2		 add	 eax, edx
  000e9	01 86 68 04 00
	00		 add	 DWORD PTR [esi+1128], eax

; 299  : 	lpObj->m_MagicDamageMax += ((gObj->m_MagicDamageMax * this->PlusDamage) / 100);

  000ef	8b 0d 00 00 00
	00		 mov	 ecx, DWORD PTR ?gObj@@3PAUOBJECTSTRUCT@@A ; gObj
  000f5	8b 89 6c 04 00
	00		 mov	 ecx, DWORD PTR [ecx+1132]
  000fb	0f af 4f 0c	 imul	 ecx, DWORD PTR [edi+12]

; 300  : 	//Defense
; 301  : 	lpObj->m_Defense += ((lpObj->m_Defense * this->PlusDefence) / 100);

  000ff	8b 9e 94 04 00
	00		 mov	 ebx, DWORD PTR [esi+1172]
  00105	b8 1f 85 eb 51	 mov	 eax, 1374389535		; 51eb851fH
  0010a	f7 e9		 imul	 ecx
  0010c	c1 fa 05	 sar	 edx, 5
  0010f	8b c2		 mov	 eax, edx
  00111	c1 e8 1f	 shr	 eax, 31			; 0000001fH
  00114	03 c2		 add	 eax, edx
  00116	01 86 6c 04 00
	00		 add	 DWORD PTR [esi+1132], eax
  0011c	8b 4f 10	 mov	 ecx, DWORD PTR [edi+16]
  0011f	0f af cb	 imul	 ecx, ebx
  00122	b8 1f 85 eb 51	 mov	 eax, 1374389535		; 51eb851fH
  00127	f7 e9		 imul	 ecx
  00129	c1 fa 05	 sar	 edx, 5
  0012c	8b ca		 mov	 ecx, edx
  0012e	c1 e9 1f	 shr	 ecx, 31			; 0000001fH
  00131	03 ca		 add	 ecx, edx
  00133	03 cb		 add	 ecx, ebx
  00135	89 8e 94 04 00
	00		 mov	 DWORD PTR [esi+1172], ecx

; 302  : 	lpObj->m_MagicDefense += ((lpObj->m_MagicDefense * this->PlusDefence) / 100);

  0013b	8b 8e 98 04 00
	00		 mov	 ecx, DWORD PTR [esi+1176]
  00141	8b 7f 10	 mov	 edi, DWORD PTR [edi+16]
  00144	0f af f9	 imul	 edi, ecx
  00147	b8 1f 85 eb 51	 mov	 eax, 1374389535		; 51eb851fH
  0014c	f7 ef		 imul	 edi
  0014e	c1 fa 05	 sar	 edx, 5
  00151	8b c2		 mov	 eax, edx
  00153	c1 e8 1f	 shr	 eax, 31			; 0000001fH
  00156	03 c2		 add	 eax, edx
  00158	03 c1		 add	 eax, ecx
  0015a	89 86 98 04 00
	00		 mov	 DWORD PTR [esi+1176], eax
  00160	5b		 pop	 ebx
$LN5@CharacterA:
  00161	5e		 pop	 esi
$LN3@CharacterA:
  00162	5f		 pop	 edi

; 303  : }

  00163	5d		 pop	 ebp
  00164	c2 04 00	 ret	 4
?CharacterAdded@Brotherhood@@QAEXPAUOBJECTSTRUCT@@@Z ENDP ; Brotherhood::CharacterAdded
_TEXT	ENDS
PUBLIC	??_C@_0CA@ILOGBKGN@?$FLBrotherhood?$FN?3?5No?5Teleport?5Move?$AA@ ; `string'
PUBLIC	??_C@_0BN@OLODJBKC@?$FLBrotherhood?$FN?3?5Teleport?5Move?$AA@ ; `string'
PUBLIC	??_C@_0CM@OPJICLIM@?$FLBrotherhood?$FN?3?5Need?5to?5wait?5whit@ ; `string'
PUBLIC	??_C@_0CB@ILEAJAFL@?$FLBrotherhood?$FN?3?5No?5Teleport?5Wcoin@ ; `string'
PUBLIC	??_C@_0CB@BCDIHHMP@?$FLBrotherhood?$FN?3?5No?5Move?5Interface@ ; `string'
PUBLIC	??_C@_0BL@KOILJEBG@?$FLBrotherhood?$FN?3?5No?5Move?5Map?$AA@ ; `string'
PUBLIC	?Teleport@Brotherhood@@QAEXPAUOBJECTSTRUCT@@H@Z	; Brotherhood::Teleport
EXTRN	?AddUserData@CRaklionBattleUserMng@@QAEHH@Z:PROC ; CRaklionBattleUserMng::AddUserData
EXTRN	?g_RaklionBattleUserMng@@3VCRaklionBattleUserMng@@A:BYTE ; g_RaklionBattleUserMng
EXTRN	?gObjTeleport@@YAXHHHH@Z:PROC			; gObjTeleport
EXTRN	?ZtUserDataSend@@YAXH@Z:PROC			; ZtUserDataSend
EXTRN	?GDSaveUserInfo@GameShop@@QAEXH@Z:PROC		; GameShop::GDSaveUserInfo
EXTRN	?gGameShop@@3VGameShop@@A:BYTE			; gGameShop
EXTRN	?MsgOutput@@YAXHPADZZ:PROC			; MsgOutput
EXTRN	?CheckEquipmentToMove@CMoveCommand@@QAEHPAUOBJECTSTRUCT@@H@Z:PROC ; CMoveCommand::CheckEquipmentToMove
EXTRN	?GetMoveLevel@CMoveCommand@@QAEHHHHH@Z:PROC	; CMoveCommand::GetMoveLevel
EXTRN	?g_CastleSiege@@3VCCastleSiege@@A:BYTE		; g_CastleSiege
EXTRN	?GCMagicAttackNumberSend@@YAXPAUOBJECTSTRUCT@@GHE@Z:PROC ; GCMagicAttackNumberSend
EXTRN	?skillSuccess@@3HA:DWORD			; skillSuccess
EXTRN	?GetRaklionState@CRaklion@@QAEHXZ:PROC		; CRaklion::GetRaklionState
EXTRN	?g_Raklion@@3VCRaklion@@A:BYTE			; g_Raklion
EXTRN	?CheckInterfaceToMove@CMoveCommand@@QAEHPAUOBJECTSTRUCT@@@Z:PROC ; CMoveCommand::CheckInterfaceToMove
EXTRN	?GCServerMsgStringSend@@YAXPADHE@Z:PROC		; GCServerMsgStringSend
EXTRN	?CheckMainToMove@CMoveCommand@@QAEHPAUOBJECTSTRUCT@@@Z:PROC ; CMoveCommand::CheckMainToMove
EXTRN	?gMoveCommand@@3VCMoveCommand@@A:BYTE		; gMoveCommand
EXTRN	?CheckTeleoprtMap@cTeleportManager@@QAE_NHH@Z:PROC ; cTeleportManager::CheckTeleoprtMap
EXTRN	?gTeleportManager@@3VcTeleportManager@@A:BYTE	; gTeleportManager
;	COMDAT ??_C@_0CA@ILOGBKGN@?$FLBrotherhood?$FN?3?5No?5Teleport?5Move?$AA@
; File e:\work\tranet_version\gs\gameserver\castlesiege.h
CONST	SEGMENT
??_C@_0CA@ILOGBKGN@?$FLBrotherhood?$FN?3?5No?5Teleport?5Move?$AA@ DB '[Br'
	DB	'otherhood]: No Teleport Move', 00H		; `string'
CONST	ENDS
;	COMDAT ??_C@_0BN@OLODJBKC@?$FLBrotherhood?$FN?3?5Teleport?5Move?$AA@
CONST	SEGMENT
??_C@_0BN@OLODJBKC@?$FLBrotherhood?$FN?3?5Teleport?5Move?$AA@ DB '[Brothe'
	DB	'rhood]: Teleport Move', 00H			; `string'
CONST	ENDS
;	COMDAT ??_C@_0CM@OPJICLIM@?$FLBrotherhood?$FN?3?5Need?5to?5wait?5whit@
CONST	SEGMENT
??_C@_0CM@OPJICLIM@?$FLBrotherhood?$FN?3?5Need?5to?5wait?5whit@ DB '[Brot'
	DB	'herhood]: Need to wait white %d second', 00H ; `string'
CONST	ENDS
;	COMDAT ??_C@_0CB@ILEAJAFL@?$FLBrotherhood?$FN?3?5No?5Teleport?5Wcoin@
CONST	SEGMENT
??_C@_0CB@ILEAJAFL@?$FLBrotherhood?$FN?3?5No?5Teleport?5Wcoin@ DB '[Broth'
	DB	'erhood]: No Teleport Wcoin', 00H		; `string'
CONST	ENDS
;	COMDAT ??_C@_0CB@BCDIHHMP@?$FLBrotherhood?$FN?3?5No?5Move?5Interface@
CONST	SEGMENT
??_C@_0CB@BCDIHHMP@?$FLBrotherhood?$FN?3?5No?5Move?5Interface@ DB '[Broth'
	DB	'erhood]: No Move Interface', 00H		; `string'
CONST	ENDS
;	COMDAT ??_C@_0BL@KOILJEBG@?$FLBrotherhood?$FN?3?5No?5Move?5Map?$AA@
CONST	SEGMENT
??_C@_0BL@KOILJEBG@?$FLBrotherhood?$FN?3?5No?5Move?5Map?$AA@ DB '[Brother'
	DB	'hood]: No Move Map', 00H			; `string'
; Function compile flags: /Ogtp
; File e:\work\tranet_version\gs\gameserver\brotherhood.cpp
CONST	ENDS
;	COMDAT ?Teleport@Brotherhood@@QAEXPAUOBJECTSTRUCT@@H@Z
_TEXT	SEGMENT
_this$ = -4						; size = 4
tv385 = 8						; size = 4
_bCheckMainToMove$ = 8					; size = 4
_lpObj$ = 8						; size = 4
_bCheckEquipmentToMove$ = 12				; size = 4
_TargetIndex$ = 12					; size = 4
?Teleport@Brotherhood@@QAEXPAUOBJECTSTRUCT@@H@Z PROC	; Brotherhood::Teleport, COMDAT
; _this$ = ecx

; 306  : {

  00000	55		 push	 ebp
  00001	8b ec		 mov	 ebp, esp
  00003	51		 push	 ecx

; 307  : 	if(!this->Enable) return; 

  00004	80 39 00	 cmp	 BYTE PTR [ecx], 0
  00007	89 4d fc	 mov	 DWORD PTR _this$[ebp], ecx
  0000a	0f 84 6d 03 00
	00		 je	 $LN1@Teleport

; 308  : 
; 309  : 	if(!this->ActiveBrother(lpObj)) return;

  00010	56		 push	 esi
  00011	8b 75 08	 mov	 esi, DWORD PTR _lpObj$[ebp]
  00014	56		 push	 esi
  00015	e8 00 00 00 00	 call	 ?ActiveBrother@Brotherhood@@QAE_NPAUOBJECTSTRUCT@@@Z ; Brotherhood::ActiveBrother
  0001a	84 c0		 test	 al, al
  0001c	0f 84 5a 03 00
	00		 je	 $LN33@Teleport

; 310  : 
; 311  : 	LPOBJ lpTarget = &gObj[TargetIndex];
; 312  : 
; 313  : 	if(strcmp(lpObj->Brotherhood,lpTarget->Brotherhood))

  00022	a1 00 00 00 00	 mov	 eax, DWORD PTR ?gObj@@3PAUOBJECTSTRUCT@@A ; gObj
  00027	53		 push	 ebx
  00028	8b 5d 0c	 mov	 ebx, DWORD PTR _TargetIndex$[ebp]
  0002b	57		 push	 edi
  0002c	8b fb		 mov	 edi, ebx
  0002e	69 ff 50 2b 00
	00		 imul	 edi, 11088		; 00002b50H
  00034	8d 8c 07 6d 28
	00 00		 lea	 ecx, DWORD PTR [edi+eax+10349]
  0003b	8d 86 6d 28 00
	00		 lea	 eax, DWORD PTR [esi+10349]
$LL28@Teleport:
  00041	8a 10		 mov	 dl, BYTE PTR [eax]
  00043	3a 11		 cmp	 dl, BYTE PTR [ecx]
  00045	75 1a		 jne	 SHORT $LN29@Teleport
  00047	84 d2		 test	 dl, dl
  00049	74 12		 je	 SHORT $LN30@Teleport
  0004b	8a 50 01	 mov	 dl, BYTE PTR [eax+1]
  0004e	3a 51 01	 cmp	 dl, BYTE PTR [ecx+1]
  00051	75 0e		 jne	 SHORT $LN29@Teleport
  00053	83 c0 02	 add	 eax, 2
  00056	83 c1 02	 add	 ecx, 2
  00059	84 d2		 test	 dl, dl
  0005b	75 e4		 jne	 SHORT $LL28@Teleport
$LN30@Teleport:
  0005d	33 c0		 xor	 eax, eax
  0005f	eb 05		 jmp	 SHORT $LN31@Teleport
$LN29@Teleport:
  00061	1b c0		 sbb	 eax, eax
  00063	83 d8 ff	 sbb	 eax, -1
$LN31@Teleport:
  00066	85 c0		 test	 eax, eax
  00068	0f 85 0c 03 00
	00		 jne	 $LN34@Teleport

; 314  : 	{
; 315  : 		return;
; 316  : 	}
; 317  : 
; 318  : 	if(!gTeleportManager.CheckTeleoprtMap(lpObj->m_Index, TargetIndex))

  0006e	8b 0e		 mov	 ecx, DWORD PTR [esi]
  00070	53		 push	 ebx
  00071	51		 push	 ecx
  00072	b9 00 00 00 00	 mov	 ecx, OFFSET ?gTeleportManager@@3VcTeleportManager@@A ; gTeleportManager
  00077	e8 00 00 00 00	 call	 ?CheckTeleoprtMap@cTeleportManager@@QAE_NHH@Z ; cTeleportManager::CheckTeleoprtMap
  0007c	84 c0		 test	 al, al
  0007e	0f 84 f6 02 00
	00		 je	 $LN34@Teleport

; 319  : 	{
; 320  : 		return;
; 321  : 	}
; 322  : 	if (this->TeleportActive == 0)

  00084	8b 55 fc	 mov	 edx, DWORD PTR _this$[ebp]
  00087	83 7a 24 00	 cmp	 DWORD PTR [edx+36], 0
  0008b	0f 84 e9 02 00
	00		 je	 $LN34@Teleport

; 323  : 	{
; 324  : 		return;
; 325  : 	}
; 326  : 	if(gMoveCommand.CheckMainToMove(lpObj) == 0)

  00091	56		 push	 esi
  00092	b9 00 00 00 00	 mov	 ecx, OFFSET ?gMoveCommand@@3VCMoveCommand@@A ; gMoveCommand
  00097	e8 00 00 00 00	 call	 ?CheckMainToMove@CMoveCommand@@QAEHPAUOBJECTSTRUCT@@@Z ; CMoveCommand::CheckMainToMove
  0009c	85 c0		 test	 eax, eax
  0009e	75 1b		 jne	 SHORT $LN18@Teleport

; 327  : 	{
; 328  : 		GCServerMsgStringSend("[Brotherhood]: No Move Map",lpObj->m_Index,1);

  000a0	8b 06		 mov	 eax, DWORD PTR [esi]
  000a2	6a 01		 push	 1
  000a4	50		 push	 eax
  000a5	68 00 00 00 00	 push	 OFFSET ??_C@_0BL@KOILJEBG@?$FLBrotherhood?$FN?3?5No?5Move?5Map?$AA@

; 417  : 	}
; 418  : 	else
; 419  : 	{
; 420  : 		GCServerMsgStringSend("[Brotherhood]: No Teleport Move",lpBrother->m_Index,1);

  000aa	e8 00 00 00 00	 call	 ?GCServerMsgStringSend@@YAXPADHE@Z ; GCServerMsgStringSend
  000af	83 c4 0c	 add	 esp, 12			; 0000000cH
  000b2	5f		 pop	 edi
  000b3	5b		 pop	 ebx
  000b4	5e		 pop	 esi

; 421  : 	}
; 422  : 
; 423  : }

  000b5	8b e5		 mov	 esp, ebp
  000b7	5d		 pop	 ebp
  000b8	c2 08 00	 ret	 8
$LN18@Teleport:

; 329  : 		return;
; 330  : 	}
; 331  : 
; 332  : 	if(gMoveCommand.CheckInterfaceToMove(lpObj) == 0)

  000bb	56		 push	 esi
  000bc	b9 00 00 00 00	 mov	 ecx, OFFSET ?gMoveCommand@@3VCMoveCommand@@A ; gMoveCommand
  000c1	e8 00 00 00 00	 call	 ?CheckInterfaceToMove@CMoveCommand@@QAEHPAUOBJECTSTRUCT@@@Z ; CMoveCommand::CheckInterfaceToMove
  000c6	85 c0		 test	 eax, eax
  000c8	75 1b		 jne	 SHORT $LN17@Teleport

; 333  : 	{
; 334  : 		GCServerMsgStringSend("[Brotherhood]: No Move Interface",lpObj->m_Index,1);

  000ca	8b 0e		 mov	 ecx, DWORD PTR [esi]
  000cc	6a 01		 push	 1
  000ce	51		 push	 ecx
  000cf	68 00 00 00 00	 push	 OFFSET ??_C@_0CB@BCDIHHMP@?$FLBrotherhood?$FN?3?5No?5Move?5Interface@

; 417  : 	}
; 418  : 	else
; 419  : 	{
; 420  : 		GCServerMsgStringSend("[Brotherhood]: No Teleport Move",lpBrother->m_Index,1);

  000d4	e8 00 00 00 00	 call	 ?GCServerMsgStringSend@@YAXPADHE@Z ; GCServerMsgStringSend
  000d9	83 c4 0c	 add	 esp, 12			; 0000000cH
  000dc	5f		 pop	 edi
  000dd	5b		 pop	 ebx
  000de	5e		 pop	 esi

; 421  : 	}
; 422  : 
; 423  : }

  000df	8b e5		 mov	 esp, ebp
  000e1	5d		 pop	 ebp
  000e2	c2 08 00	 ret	 8
$LN17@Teleport:

; 335  : 		return;
; 336  : 	}
; 337  : 
; 338  : 	if( lpObj->MapNumber == MAP_INDEX_RAKLION_BOSS &&
; 339  : 		lpObj->Connected == PLAYER_PLAYING &&
; 340  : 		(g_Raklion.GetRaklionState() == RAKLION_STATE_CLOSE_DOOR ||
; 341  : 		g_Raklion.GetRaklionState() == RAKLION_STATE_ALL_USER_DIE ||
; 342  : 		g_Raklion.GetRaklionState() == RAKLION_STATE_NOTIFY_4 ||
; 343  : 		g_Raklion.GetRaklionState() == RAKLION_STATE_END) ) 

  000e5	80 be 49 01 00
	00 3a		 cmp	 BYTE PTR [esi+329], 58	; 0000003aH
  000ec	75 5d		 jne	 SHORT $LN16@Teleport
  000ee	83 7e 04 03	 cmp	 DWORD PTR [esi+4], 3
  000f2	75 57		 jne	 SHORT $LN16@Teleport
  000f4	b9 00 00 00 00	 mov	 ecx, OFFSET ?g_Raklion@@3VCRaklion@@A ; g_Raklion
  000f9	e8 00 00 00 00	 call	 ?GetRaklionState@CRaklion@@QAEHXZ ; CRaklion::GetRaklionState
  000fe	83 f8 07	 cmp	 eax, 7
  00101	74 2d		 je	 SHORT $LN15@Teleport
  00103	b9 00 00 00 00	 mov	 ecx, OFFSET ?g_Raklion@@3VCRaklion@@A ; g_Raklion
  00108	e8 00 00 00 00	 call	 ?GetRaklionState@CRaklion@@QAEHXZ ; CRaklion::GetRaklionState
  0010d	83 f8 08	 cmp	 eax, 8
  00110	74 1e		 je	 SHORT $LN15@Teleport
  00112	b9 00 00 00 00	 mov	 ecx, OFFSET ?g_Raklion@@3VCRaklion@@A ; g_Raklion
  00117	e8 00 00 00 00	 call	 ?GetRaklionState@CRaklion@@QAEHXZ ; CRaklion::GetRaklionState
  0011c	83 f8 09	 cmp	 eax, 9
  0011f	74 0f		 je	 SHORT $LN15@Teleport
  00121	b9 00 00 00 00	 mov	 ecx, OFFSET ?g_Raklion@@3VCRaklion@@A ; g_Raklion
  00126	e8 00 00 00 00	 call	 ?GetRaklionState@CRaklion@@QAEHXZ ; CRaklion::GetRaklionState
  0012b	83 f8 0a	 cmp	 eax, 10			; 0000000aH
  0012e	75 1b		 jne	 SHORT $LN16@Teleport
$LN15@Teleport:

; 344  : 	{
; 345  : 		GCServerMsgStringSend("[Brotherhood]: No Move Map",lpObj->m_Index,1);

  00130	8b 16		 mov	 edx, DWORD PTR [esi]
  00132	6a 01		 push	 1
  00134	52		 push	 edx
  00135	68 00 00 00 00	 push	 OFFSET ??_C@_0BL@KOILJEBG@?$FLBrotherhood?$FN?3?5No?5Move?5Map?$AA@

; 417  : 	}
; 418  : 	else
; 419  : 	{
; 420  : 		GCServerMsgStringSend("[Brotherhood]: No Teleport Move",lpBrother->m_Index,1);

  0013a	e8 00 00 00 00	 call	 ?GCServerMsgStringSend@@YAXPADHE@Z ; GCServerMsgStringSend
  0013f	83 c4 0c	 add	 esp, 12			; 0000000cH
  00142	5f		 pop	 edi
  00143	5b		 pop	 ebx
  00144	5e		 pop	 esi

; 421  : 	}
; 422  : 
; 423  : }

  00145	8b e5		 mov	 esp, ebp
  00147	5d		 pop	 ebp
  00148	c2 08 00	 ret	 8
$LN16@Teleport:

; 346  : 		return;
; 347  : 	}
; 348  : 
; 349  : 	LPOBJ lpBrother = &gObj[TargetIndex];
; 350  : 
; 351  : 	GCMagicAttackNumberSend(lpObj,AT_SKILL_RECALL_PARTY,lpObj->m_Index,skillSuccess);

  0014b	0f b6 0d 00 00
	00 00		 movzx	 ecx, BYTE PTR ?skillSuccess@@3HA
  00152	8b 16		 mov	 edx, DWORD PTR [esi]
  00154	03 3d 00 00 00
	00		 add	 edi, DWORD PTR ?gObj@@3PAUOBJECTSTRUCT@@A ; gObj
  0015a	51		 push	 ecx
  0015b	52		 push	 edx
  0015c	6a 3f		 push	 63			; 0000003fH
  0015e	56		 push	 esi
  0015f	e8 00 00 00 00	 call	 ?GCMagicAttackNumberSend@@YAXPAUOBJECTSTRUCT@@GHE@Z ; GCMagicAttackNumberSend
  00164	83 c4 10	 add	 esp, 16			; 00000010H

; 352  : 
; 353  : 	if(g_CastleSiege.GetCastleState() == CASTLESIEGE_STATE_STARTSIEGE)

  00167	83 3d 28 00 00
	00 07		 cmp	 DWORD PTR ?g_CastleSiege@@3VCCastleSiege@@A+40, 7
  0016e	75 12		 jne	 SHORT $LN13@Teleport

; 354  : 	{
; 355  : 		if(lpBrother->m_btCsJoinSide != lpObj->m_btCsJoinSide)

  00170	8a 87 02 1c 00
	00		 mov	 al, BYTE PTR [edi+7170]
  00176	3a 86 02 1c 00
	00		 cmp	 al, BYTE PTR [esi+7170]
  0017c	0f 85 f8 01 00
	00		 jne	 $LN34@Teleport
$LN13@Teleport:

; 356  : 		{
; 357  : 			return;
; 358  : 		}
; 359  : 	}
; 360  : 
; 361  : 	int movelevel = gMoveCommand.GetMoveLevel(lpObj->MapNumber,lpObj->X,lpObj->Y,lpBrother->Class);

  00182	0f b7 8f b8 00
	00 00		 movzx	 ecx, WORD PTR [edi+184]
  00189	0f bf 96 46 01
	00 00		 movsx	 edx, WORD PTR [esi+326]
  00190	0f bf 86 44 01
	00 00		 movsx	 eax, WORD PTR [esi+324]
  00197	51		 push	 ecx
  00198	0f b6 8e 49 01
	00 00		 movzx	 ecx, BYTE PTR [esi+329]
  0019f	52		 push	 edx
  001a0	50		 push	 eax
  001a1	51		 push	 ecx
  001a2	b9 00 00 00 00	 mov	 ecx, OFFSET ?gMoveCommand@@3VCMoveCommand@@A ; gMoveCommand
  001a7	e8 00 00 00 00	 call	 ?GetMoveLevel@CMoveCommand@@QAEHHHHH@Z ; CMoveCommand::GetMoveLevel

; 362  : 	int bCheckMainToMove = gMoveCommand.CheckMainToMove(lpBrother);

  001ac	57		 push	 edi
  001ad	b9 00 00 00 00	 mov	 ecx, OFFSET ?gMoveCommand@@3VCMoveCommand@@A ; gMoveCommand
  001b2	8b d8		 mov	 ebx, eax
  001b4	e8 00 00 00 00	 call	 ?CheckMainToMove@CMoveCommand@@QAEHPAUOBJECTSTRUCT@@@Z ; CMoveCommand::CheckMainToMove

; 363  : 	int bCheckEquipmentToMove = gMoveCommand.CheckEquipmentToMove(lpBrother,lpObj->MapNumber);

  001b9	0f b6 96 49 01
	00 00		 movzx	 edx, BYTE PTR [esi+329]
  001c0	52		 push	 edx
  001c1	57		 push	 edi
  001c2	b9 00 00 00 00	 mov	 ecx, OFFSET ?gMoveCommand@@3VCMoveCommand@@A ; gMoveCommand
  001c7	89 45 08	 mov	 DWORD PTR _bCheckMainToMove$[ebp], eax
  001ca	e8 00 00 00 00	 call	 ?CheckEquipmentToMove@CMoveCommand@@QAEHPAUOBJECTSTRUCT@@H@Z ; CMoveCommand::CheckEquipmentToMove

; 364  : 	int bCheckInterfaceToMove = gMoveCommand.CheckInterfaceToMove(lpBrother);

  001cf	57		 push	 edi
  001d0	b9 00 00 00 00	 mov	 ecx, OFFSET ?gMoveCommand@@3VCMoveCommand@@A ; gMoveCommand
  001d5	89 45 0c	 mov	 DWORD PTR _bCheckEquipmentToMove$[ebp], eax
  001d8	e8 00 00 00 00	 call	 ?CheckInterfaceToMove@CMoveCommand@@QAEHPAUOBJECTSTRUCT@@@Z ; CMoveCommand::CheckInterfaceToMove

; 365  : 
; 366  : 	if(lpBrother->Level >= movelevel
; 367  : 		&& movelevel != -1
; 368  : 		&& bCheckMainToMove != false
; 369  : 		&& bCheckEquipmentToMove != false
; 370  : 		&& bCheckInterfaceToMove != false)

  001dd	0f bf 8f be 00
	00 00		 movsx	 ecx, WORD PTR [edi+190]
  001e4	3b cb		 cmp	 ecx, ebx
  001e6	0f 8c 7c 01 00
	00		 jl	 $LN12@Teleport
  001ec	83 fb ff	 cmp	 ebx, -1
  001ef	0f 84 73 01 00
	00		 je	 $LN12@Teleport
  001f5	83 7d 08 00	 cmp	 DWORD PTR _bCheckMainToMove$[ebp], 0
  001f9	0f 84 69 01 00
	00		 je	 $LN12@Teleport
  001ff	83 7d 0c 00	 cmp	 DWORD PTR _bCheckEquipmentToMove$[ebp], 0
  00203	0f 84 5f 01 00
	00		 je	 $LN12@Teleport
  00209	85 c0		 test	 eax, eax
  0020b	0f 84 57 01 00
	00		 je	 $LN12@Teleport

; 371  : 	{
; 372  : 		#if(BROTHER_PAYTELEPORT)
; 373  : 		if(g_ZtLicense.CheckUser(eZtUB::ulasevich) || g_ZtLicense.CheckUser(eZtUB::ulasevich2))

  00211	6a 17		 push	 23			; 00000017H
  00213	b9 00 00 00 00	 mov	 ecx, OFFSET ?g_ZtLicense@@3VCZtLicense@@A ; g_ZtLicense
  00218	e8 00 00 00 00	 call	 ?CheckUser@CZtLicense@@QAE_NH@Z ; CZtLicense::CheckUser
  0021d	84 c0		 test	 al, al
  0021f	75 10		 jne	 SHORT $LN10@Teleport
  00221	6a 24		 push	 36			; 00000024H
  00223	b9 00 00 00 00	 mov	 ecx, OFFSET ?g_ZtLicense@@3VCZtLicense@@A ; g_ZtLicense
  00228	e8 00 00 00 00	 call	 ?CheckUser@CZtLicense@@QAE_NH@Z ; CZtLicense::CheckUser
  0022d	84 c0		 test	 al, al
  0022f	74 31		 je	 SHORT $LN32@Teleport
$LN10@Teleport:

; 374  : 		{
; 375  : 			if(lpObj->GameShop.WCoinC < this->m_TeleportWCoin)

  00231	8b 5d fc	 mov	 ebx, DWORD PTR _this$[ebp]
  00234	db 83 10 29 01
	00		 fild	 DWORD PTR [ebx+76048]
  0023a	dc 9e 00 23 00
	00		 fcomp	 QWORD PTR [esi+8960]
  00240	df e0		 fnstsw	 ax
  00242	f6 c4 41	 test	 ah, 65			; 00000041H
  00245	75 1e		 jne	 SHORT $LN9@Teleport

; 376  : 			{
; 377  : 				GCServerMsgStringSend("[Brotherhood]: No Teleport Wcoin",lpBrother->m_Index,1);

  00247	8b 17		 mov	 edx, DWORD PTR [edi]
  00249	6a 01		 push	 1
  0024b	52		 push	 edx
  0024c	68 00 00 00 00	 push	 OFFSET ??_C@_0CB@ILEAJAFL@?$FLBrotherhood?$FN?3?5No?5Teleport?5Wcoin@

; 417  : 	}
; 418  : 	else
; 419  : 	{
; 420  : 		GCServerMsgStringSend("[Brotherhood]: No Teleport Move",lpBrother->m_Index,1);

  00251	e8 00 00 00 00	 call	 ?GCServerMsgStringSend@@YAXPADHE@Z ; GCServerMsgStringSend
  00256	83 c4 0c	 add	 esp, 12			; 0000000cH
  00259	5f		 pop	 edi
  0025a	5b		 pop	 ebx
  0025b	5e		 pop	 esi

; 421  : 	}
; 422  : 
; 423  : }

  0025c	8b e5		 mov	 esp, ebp
  0025e	5d		 pop	 ebp
  0025f	c2 08 00	 ret	 8
$LN32@Teleport:

; 374  : 		{
; 375  : 			if(lpObj->GameShop.WCoinC < this->m_TeleportWCoin)

  00262	8b 5d fc	 mov	 ebx, DWORD PTR _this$[ebp]
$LN9@Teleport:

; 378  : 				return;
; 379  : 			}
; 380  : 		}
; 381  : 		#endif
; 382  : 
; 383  : 		#if(BR_TELEPORT_TIME)
; 384  : 		if(g_ZtLicense.CheckUser(eZtUB::ulasevich) || g_ZtLicense.CheckUser(eZtUB::ulasevich2))

  00265	6a 17		 push	 23			; 00000017H
  00267	b9 00 00 00 00	 mov	 ecx, OFFSET ?g_ZtLicense@@3VCZtLicense@@A ; g_ZtLicense
  0026c	e8 00 00 00 00	 call	 ?CheckUser@CZtLicense@@QAE_NH@Z ; CZtLicense::CheckUser
  00271	84 c0		 test	 al, al
  00273	75 10		 jne	 SHORT $LN7@Teleport
  00275	6a 24		 push	 36			; 00000024H
  00277	b9 00 00 00 00	 mov	 ecx, OFFSET ?g_ZtLicense@@3VCZtLicense@@A ; g_ZtLicense
  0027c	e8 00 00 00 00	 call	 ?CheckUser@CZtLicense@@QAE_NH@Z ; CZtLicense::CheckUser
  00281	84 c0		 test	 al, al
  00283	74 3b		 je	 SHORT $LN8@Teleport
$LN7@Teleport:

; 385  : 		{
; 386  : 			if(lpObj->m_BroTeleportTime > 0)

  00285	8b 86 78 28 00
	00		 mov	 eax, DWORD PTR [esi+10360]
  0028b	85 c0		 test	 eax, eax
  0028d	7e 1a		 jle	 SHORT $LN6@Teleport

; 387  : 			{
; 388  : 				MsgOutput(lpObj->m_Index, "[Brotherhood]: Need to wait white %d second", lpObj->m_BroTeleportTime);

  0028f	50		 push	 eax
  00290	8b 06		 mov	 eax, DWORD PTR [esi]
  00292	68 00 00 00 00	 push	 OFFSET ??_C@_0CM@OPJICLIM@?$FLBrotherhood?$FN?3?5Need?5to?5wait?5whit@
  00297	50		 push	 eax
  00298	e8 00 00 00 00	 call	 ?MsgOutput@@YAXHPADZZ	; MsgOutput

; 417  : 	}
; 418  : 	else
; 419  : 	{
; 420  : 		GCServerMsgStringSend("[Brotherhood]: No Teleport Move",lpBrother->m_Index,1);

  0029d	83 c4 0c	 add	 esp, 12			; 0000000cH
  002a0	5f		 pop	 edi
  002a1	5b		 pop	 ebx
  002a2	5e		 pop	 esi

; 421  : 	}
; 422  : 
; 423  : }

  002a3	8b e5		 mov	 esp, ebp
  002a5	5d		 pop	 ebp
  002a6	c2 08 00	 ret	 8
$LN6@Teleport:

; 389  : 				return;
; 390  : 			}
; 391  : 
; 392  : 			lpObj->m_BroTeleportTime = this->m_TeleportTime * 60;

  002a9	8b 83 14 29 01
	00		 mov	 eax, DWORD PTR [ebx+76052]
  002af	8b c8		 mov	 ecx, eax
  002b1	c1 e1 04	 shl	 ecx, 4
  002b4	2b c8		 sub	 ecx, eax
  002b6	03 c9		 add	 ecx, ecx
  002b8	03 c9		 add	 ecx, ecx
  002ba	89 8e 78 28 00
	00		 mov	 DWORD PTR [esi+10360], ecx
$LN8@Teleport:

; 393  : 		}
; 394  : 		#endif
; 395  : 
; 396  : 		#if(BROTHER_PAYTELEPORT)
; 397  : 		if(g_ZtLicense.CheckUser(eZtUB::ulasevich) || g_ZtLicense.CheckUser(eZtUB::ulasevich2))

  002c0	6a 17		 push	 23			; 00000017H
  002c2	b9 00 00 00 00	 mov	 ecx, OFFSET ?g_ZtLicense@@3VCZtLicense@@A ; g_ZtLicense
  002c7	e8 00 00 00 00	 call	 ?CheckUser@CZtLicense@@QAE_NH@Z ; CZtLicense::CheckUser
  002cc	84 c0		 test	 al, al
  002ce	75 10		 jne	 SHORT $LN4@Teleport
  002d0	6a 24		 push	 36			; 00000024H
  002d2	b9 00 00 00 00	 mov	 ecx, OFFSET ?g_ZtLicense@@3VCZtLicense@@A ; g_ZtLicense
  002d7	e8 00 00 00 00	 call	 ?CheckUser@CZtLicense@@QAE_NH@Z ; CZtLicense::CheckUser
  002dc	84 c0		 test	 al, al
  002de	74 34		 je	 SHORT $LN3@Teleport
$LN4@Teleport:

; 398  : 		{
; 399  : 			if(this->m_TeleportWCoin > 0)

  002e0	8b 83 10 29 01
	00		 mov	 eax, DWORD PTR [ebx+76048]
  002e6	89 45 08	 mov	 DWORD PTR tv385[ebp], eax
  002e9	85 c0		 test	 eax, eax
  002eb	7e 27		 jle	 SHORT $LN3@Teleport

; 400  : 			{
; 401  : 				lpObj->GameShop.WCoinC -= this->m_TeleportWCoin;

  002ed	db 45 08	 fild	 DWORD PTR tv385[ebp]

; 402  : 				gGameShop.GDSaveUserInfo(lpObj->m_Index);

  002f0	8b 16		 mov	 edx, DWORD PTR [esi]
  002f2	52		 push	 edx
  002f3	b9 00 00 00 00	 mov	 ecx, OFFSET ?gGameShop@@3VGameShop@@A ; gGameShop
  002f8	dc ae 00 23 00
	00		 fsubr	 QWORD PTR [esi+8960]
  002fe	dd 9e 00 23 00
	00		 fstp	 QWORD PTR [esi+8960]
  00304	e8 00 00 00 00	 call	 ?GDSaveUserInfo@GameShop@@QAEXH@Z ; GameShop::GDSaveUserInfo

; 403  : 				ZtUserDataSend(lpObj->m_Index);

  00309	8b 06		 mov	 eax, DWORD PTR [esi]
  0030b	50		 push	 eax
  0030c	e8 00 00 00 00	 call	 ?ZtUserDataSend@@YAXH@Z	; ZtUserDataSend
  00311	83 c4 04	 add	 esp, 4
$LN3@Teleport:

; 404  : 			}
; 405  : 		}
; 406  : 		#endif
; 407  : 
; 408  : 		gObjTeleport(lpBrother->m_Index,lpObj->MapNumber,lpObj->X,lpObj->Y);

  00314	0f bf 8e 46 01
	00 00		 movsx	 ecx, WORD PTR [esi+326]
  0031b	0f bf 96 44 01
	00 00		 movsx	 edx, WORD PTR [esi+324]
  00322	0f b6 86 49 01
	00 00		 movzx	 eax, BYTE PTR [esi+329]
  00329	51		 push	 ecx
  0032a	8b 0f		 mov	 ecx, DWORD PTR [edi]
  0032c	52		 push	 edx
  0032d	50		 push	 eax
  0032e	51		 push	 ecx
  0032f	e8 00 00 00 00	 call	 ?gObjTeleport@@YAXHHHH@Z ; gObjTeleport
  00334	83 c4 10	 add	 esp, 16			; 00000010H

; 409  : 			
; 410  : 		//Season4 add-on
; 411  : 		if(lpObj->MapNumber == MAP_INDEX_RAKLION_BOSS)

  00337	80 be 49 01 00
	00 3a		 cmp	 BYTE PTR [esi+329], 58	; 0000003aH
  0033e	75 0d		 jne	 SHORT $LN2@Teleport

; 412  : 		{
; 413  : 			g_RaklionBattleUserMng.AddUserData(lpBrother->m_Index);

  00340	8b 17		 mov	 edx, DWORD PTR [edi]
  00342	52		 push	 edx
  00343	b9 00 00 00 00	 mov	 ecx, OFFSET ?g_RaklionBattleUserMng@@3VCRaklionBattleUserMng@@A ; g_RaklionBattleUserMng
  00348	e8 00 00 00 00	 call	 ?AddUserData@CRaklionBattleUserMng@@QAEHH@Z ; CRaklionBattleUserMng::AddUserData
$LN2@Teleport:

; 414  : 		}
; 415  : 
; 416  : 		GCServerMsgStringSend("[Brotherhood]: Teleport Move",lpBrother->m_Index,1);

  0034d	8b 07		 mov	 eax, DWORD PTR [edi]
  0034f	6a 01		 push	 1
  00351	50		 push	 eax
  00352	68 00 00 00 00	 push	 OFFSET ??_C@_0BN@OLODJBKC@?$FLBrotherhood?$FN?3?5Teleport?5Move?$AA@

; 417  : 	}
; 418  : 	else
; 419  : 	{
; 420  : 		GCServerMsgStringSend("[Brotherhood]: No Teleport Move",lpBrother->m_Index,1);

  00357	e8 00 00 00 00	 call	 ?GCServerMsgStringSend@@YAXPADHE@Z ; GCServerMsgStringSend
  0035c	83 c4 0c	 add	 esp, 12			; 0000000cH
  0035f	5f		 pop	 edi
  00360	5b		 pop	 ebx
  00361	5e		 pop	 esi

; 421  : 	}
; 422  : 
; 423  : }

  00362	8b e5		 mov	 esp, ebp
  00364	5d		 pop	 ebp
  00365	c2 08 00	 ret	 8
$LN12@Teleport:

; 417  : 	}
; 418  : 	else
; 419  : 	{
; 420  : 		GCServerMsgStringSend("[Brotherhood]: No Teleport Move",lpBrother->m_Index,1);

  00368	8b 0f		 mov	 ecx, DWORD PTR [edi]
  0036a	6a 01		 push	 1
  0036c	51		 push	 ecx
  0036d	68 00 00 00 00	 push	 OFFSET ??_C@_0CA@ILOGBKGN@?$FLBrotherhood?$FN?3?5No?5Teleport?5Move?$AA@
  00372	e8 00 00 00 00	 call	 ?GCServerMsgStringSend@@YAXPADHE@Z ; GCServerMsgStringSend
  00377	83 c4 0c	 add	 esp, 12			; 0000000cH
$LN34@Teleport:
  0037a	5f		 pop	 edi
  0037b	5b		 pop	 ebx
$LN33@Teleport:
  0037c	5e		 pop	 esi
$LN1@Teleport:

; 421  : 	}
; 422  : 
; 423  : }

  0037d	8b e5		 mov	 esp, ebp
  0037f	5d		 pop	 ebp
  00380	c2 08 00	 ret	 8
?Teleport@Brotherhood@@QAEXPAUOBJECTSTRUCT@@H@Z ENDP	; Brotherhood::Teleport
_TEXT	ENDS
PUBLIC	??_C@_0BC@HBGECFMK@?$FLBrotherhood?$FN?3?5?$CFs?$AA@ ; `string'
PUBLIC	??_C@_0O@CKAEPJAF@error?5?3?5?$CFs?5?$CFd?$AA@	; `string'
PUBLIC	??_C@_0BA@GFGCGMCP@Brotherhood?4cpp?$AA@	; `string'
PUBLIC	?UserConnect@Brotherhood@@QAEXH@Z		; Brotherhood::UserConnect
EXTRN	?MsgNormal@@YAXHPADZZ:PROC			; MsgNormal
EXTRN	?LogAdd@@3P6AXPADZZA:DWORD			; LogAdd
;	COMDAT ??_C@_0BC@HBGECFMK@?$FLBrotherhood?$FN?3?5?$CFs?$AA@
CONST	SEGMENT
??_C@_0BC@HBGECFMK@?$FLBrotherhood?$FN?3?5?$CFs?$AA@ DB '[Brotherhood]: %'
	DB	's', 00H					; `string'
CONST	ENDS
;	COMDAT ??_C@_0O@CKAEPJAF@error?5?3?5?$CFs?5?$CFd?$AA@
CONST	SEGMENT
??_C@_0O@CKAEPJAF@error?5?3?5?$CFs?5?$CFd?$AA@ DB 'error : %s %d', 00H ; `string'
CONST	ENDS
;	COMDAT ??_C@_0BA@GFGCGMCP@Brotherhood?4cpp?$AA@
CONST	SEGMENT
??_C@_0BA@GFGCGMCP@Brotherhood?4cpp?$AA@ DB 'Brotherhood.cpp', 00H ; `string'
; Function compile flags: /Ogtp
CONST	ENDS
;	COMDAT ?UserConnect@Brotherhood@@QAEXH@Z
_TEXT	SEGMENT
_aIndex$ = 8						; size = 4
?UserConnect@Brotherhood@@QAEXH@Z PROC			; Brotherhood::UserConnect, COMDAT
; _this$ = ecx

; 427  : {

  00000	55		 push	 ebp
  00001	8b ec		 mov	 ebp, esp

; 428  : 	if(!this->Enable)

  00003	80 39 00	 cmp	 BYTE PTR [ecx], 0
  00006	0f 84 90 00 00
	00		 je	 $LN5@UserConnec

; 429  : 	{
; 430  : 		return;
; 431  : 	}
; 432  : 
; 433  : 	if ( OBJMAX_RANGE(aIndex) == FALSE )

  0000c	57		 push	 edi
  0000d	8b 7d 08	 mov	 edi, DWORD PTR _aIndex$[ebp]
  00010	85 ff		 test	 edi, edi
  00012	78 0f		 js	 SHORT $LN9@UserConnec
  00014	33 c0		 xor	 eax, eax
  00016	81 ff 97 3a 00
	00		 cmp	 edi, 14999		; 00003a97H
  0001c	0f 9e c0	 setle	 al
  0001f	85 c0		 test	 eax, eax
  00021	75 1d		 jne	 SHORT $LN3@UserConnec
$LN9@UserConnec:

; 434  : 	{
; 435  : 		LogAdd("error : %s %d", __FILE__, __LINE__ );

  00023	68 b3 01 00 00	 push	 435			; 000001b3H
  00028	68 00 00 00 00	 push	 OFFSET ??_C@_0BA@GFGCGMCP@Brotherhood?4cpp?$AA@
  0002d	68 00 00 00 00	 push	 OFFSET ??_C@_0O@CKAEPJAF@error?5?3?5?$CFs?5?$CFd?$AA@
  00032	ff 15 00 00 00
	00		 call	 DWORD PTR ?LogAdd@@3P6AXPADZZA ; LogAdd
  00038	83 c4 0c	 add	 esp, 12			; 0000000cH
  0003b	5f		 pop	 edi

; 452  : 
; 453  : }

  0003c	5d		 pop	 ebp
  0003d	c2 04 00	 ret	 4
$LN3@UserConnec:

; 436  : 		return;
; 437  : 	}
; 438  : 
; 439  : 	LPOBJ lpUser = &gObj[aIndex];

  00040	8b c7		 mov	 eax, edi
  00042	69 c0 50 2b 00
	00		 imul	 eax, 11088		; 00002b50H
  00048	03 05 00 00 00
	00		 add	 eax, DWORD PTR ?gObj@@3PAUOBJECTSTRUCT@@A ; gObj

; 440  : 
; 441  : 	if(lpUser->Connected < PLAYER_PLAYING)

  0004e	83 78 04 03	 cmp	 DWORD PTR [eax+4], 3
  00052	7c 47		 jl	 SHORT $LN14@UserConnec

; 442  : 	{
; 443  : 		return;
; 444  : 	}
; 445  : 
; 446  : 	if(!strcmp(lpUser->Brotherhood,"One"))

  00054	56		 push	 esi
  00055	8d b0 6d 28 00
	00		 lea	 esi, DWORD PTR [eax+10349]
  0005b	b9 00 00 00 00	 mov	 ecx, OFFSET ??_C@_03EHAPBBEA@One?$AA@
  00060	8b c6		 mov	 eax, esi
$LL10@UserConnec:
  00062	8a 10		 mov	 dl, BYTE PTR [eax]
  00064	3a 11		 cmp	 dl, BYTE PTR [ecx]
  00066	75 1a		 jne	 SHORT $LN11@UserConnec
  00068	84 d2		 test	 dl, dl
  0006a	74 12		 je	 SHORT $LN12@UserConnec
  0006c	8a 50 01	 mov	 dl, BYTE PTR [eax+1]
  0006f	3a 51 01	 cmp	 dl, BYTE PTR [ecx+1]
  00072	75 0e		 jne	 SHORT $LN11@UserConnec
  00074	83 c0 02	 add	 eax, 2
  00077	83 c1 02	 add	 ecx, 2
  0007a	84 d2		 test	 dl, dl
  0007c	75 e4		 jne	 SHORT $LL10@UserConnec
$LN12@UserConnec:
  0007e	33 c0		 xor	 eax, eax
  00080	eb 05		 jmp	 SHORT $LN13@UserConnec
$LN11@UserConnec:
  00082	1b c0		 sbb	 eax, eax
  00084	83 d8 ff	 sbb	 eax, -1
$LN13@UserConnec:
  00087	85 c0		 test	 eax, eax
  00089	74 0f		 je	 SHORT $LN15@UserConnec

; 447  : 	{
; 448  : 		return;
; 449  : 	}
; 450  : 
; 451  : 	MsgNormal(aIndex,"[Brotherhood]: %s",lpUser->Brotherhood);

  0008b	56		 push	 esi
  0008c	68 00 00 00 00	 push	 OFFSET ??_C@_0BC@HBGECFMK@?$FLBrotherhood?$FN?3?5?$CFs?$AA@
  00091	57		 push	 edi
  00092	e8 00 00 00 00	 call	 ?MsgNormal@@YAXHPADZZ	; MsgNormal
  00097	83 c4 0c	 add	 esp, 12			; 0000000cH
$LN15@UserConnec:
  0009a	5e		 pop	 esi
$LN14@UserConnec:
  0009b	5f		 pop	 edi
$LN5@UserConnec:

; 452  : 
; 453  : }

  0009c	5d		 pop	 ebp
  0009d	c2 04 00	 ret	 4
?UserConnect@Brotherhood@@QAEXH@Z ENDP			; Brotherhood::UserConnect
_TEXT	ENDS
PUBLIC	?CheckSimbol@Brotherhood@@QAE_NPAD@Z		; Brotherhood::CheckSimbol
; Function compile flags: /Ogtp
;	COMDAT ?CheckSimbol@Brotherhood@@QAE_NPAD@Z
_TEXT	SEGMENT
_String$ = 8						; size = 4
?CheckSimbol@Brotherhood@@QAE_NPAD@Z PROC		; Brotherhood::CheckSimbol, COMDAT
; _this$ = ecx

; 456  : {

  00000	55		 push	 ebp
  00001	8b ec		 mov	 ebp, esp

; 457  : 	if(String[0] == ' ')

  00003	8b 55 08	 mov	 edx, DWORD PTR _String$[ebp]
  00006	80 3a 20	 cmp	 BYTE PTR [edx], 32	; 00000020H
  00009	75 06		 jne	 SHORT $LN71@CheckSimbo
$LN1@CheckSimbo:

; 458  : 		return false;

  0000b	32 c0		 xor	 al, al

; 534  : }

  0000d	5d		 pop	 ebp
  0000e	c2 04 00	 ret	 4
$LN71@CheckSimbo:

; 459  : 
; 460  : 	for(int i(0);i<10;i++)

  00011	33 c9		 xor	 ecx, ecx
$LL70@CheckSimbo:

; 461  : 	{
; 462  : 		if(String[i] == NULL)

  00013	8a 04 11	 mov	 al, BYTE PTR [ecx+edx]
  00016	84 c0		 test	 al, al
  00018	74 19		 je	 SHORT $LN69@CheckSimbo

; 463  : 			continue;
; 464  : 
; 465  : 		switch(String[i])

  0001a	0f be c0	 movsx	 eax, al
  0001d	83 c0 e0	 add	 eax, -32		; ffffffe0H
  00020	83 f8 5a	 cmp	 eax, 90			; 0000005aH
  00023	77 e6		 ja	 SHORT $LN1@CheckSimbo
  00025	0f b6 80 00 00
	00 00		 movzx	 eax, BYTE PTR $LN76@CheckSimbo[eax]
  0002c	ff 24 85 00 00
	00 00		 jmp	 DWORD PTR $LN77@CheckSimbo[eax*4]
$LN69@CheckSimbo:

; 459  : 
; 460  : 	for(int i(0);i<10;i++)

  00033	41		 inc	 ecx
  00034	83 f9 0a	 cmp	 ecx, 10			; 0000000aH
  00037	7c da		 jl	 SHORT $LL70@CheckSimbo

; 466  : 		{
; 467  : 		case 'a': continue ; break;
; 468  : 		case 'b': continue ; break;
; 469  : 		case 'c': continue ; break;
; 470  : 		case 'd': continue ; break;
; 471  : 		case 'e': continue ; break;
; 472  : 		case 'f': continue ; break;
; 473  : 		case 'g': continue ; break;
; 474  : 		case 'h': continue ; break;
; 475  : 		case 'i': continue ; break;
; 476  : 		case 'j': continue ; break;
; 477  : 		case 'k': continue ; break;
; 478  : 		case 'l': continue ; break;
; 479  : 		case 'm': continue ; break;
; 480  : 		case 'n': continue ; break;
; 481  : 		case 'o': continue ; break;
; 482  : 		case 'p': continue ; break;
; 483  : 		case 'q': continue ; break;
; 484  : 		case 'r': continue ; break;
; 485  : 		case 's': continue ; break;
; 486  : 		case 't': continue ; break;
; 487  : 		case 'u': continue ; break;
; 488  : 		case 'v': continue ; break;
; 489  : 		case 'w': continue ; break;
; 490  : 		case 'x': continue ; break;
; 491  : 		case 'y': continue ; break;
; 492  : 		case 'z': continue ; break;
; 493  : 		case 'A': continue ; break;
; 494  : 		case 'B': continue ; break;
; 495  : 		case 'C': continue ; break;
; 496  : 		case 'D': continue ; break;
; 497  : 		case 'E': continue ; break;
; 498  : 		case 'F': continue ; break;
; 499  : 		case 'G': continue ; break;
; 500  : 		case 'H': continue ; break;
; 501  : 		case 'I': continue ; break;
; 502  : 		case 'J': continue ; break;
; 503  : 		case 'K': continue ; break;
; 504  : 		case 'L': continue ; break;
; 505  : 		case 'M': continue ; break;
; 506  : 		case 'N': continue ; break;
; 507  : 		case 'O': continue ; break;
; 508  : 		case 'P': continue ; break;
; 509  : 		case 'Q': continue ; break;
; 510  : 		case 'R': continue ; break;
; 511  : 		case 'S': continue ; break;
; 512  : 		case 'T': continue ; break;
; 513  : 		case 'U': continue ; break;
; 514  : 		case 'V': continue ; break;
; 515  : 		case 'W': continue ; break;
; 516  : 		case 'X': continue ; break;
; 517  : 		case 'Y': continue ; break;
; 518  : 		case 'Z': continue ; break;
; 519  : 		case '0': continue ; break;
; 520  : 		case '1': continue ; break;
; 521  : 		case '2': continue ; break;
; 522  : 		case '3': continue ; break;
; 523  : 		case '4': continue ; break;
; 524  : 		case '5': continue ; break;
; 525  : 		case '6': continue ; break;
; 526  : 		case '7': continue ; break;
; 527  : 		case '8': continue ; break;
; 528  : 		case '9': continue ; break;
; 529  : 		case ' ': continue ; break;
; 530  : 		default: return false;
; 531  : 		}
; 532  : 	}
; 533  : 	return true;

  00039	b0 01		 mov	 al, 1

; 534  : }

  0003b	5d		 pop	 ebp
  0003c	c2 04 00	 ret	 4
  0003f	90		 npad	 1
$LN77@CheckSimbo:
  00040	00 00 00 00	 DD	 $LN69@CheckSimbo
  00044	00 00 00 00	 DD	 $LN1@CheckSimbo
$LN76@CheckSimbo:
  00048	00		 DB	 0
  00049	01		 DB	 1
  0004a	01		 DB	 1
  0004b	01		 DB	 1
  0004c	01		 DB	 1
  0004d	01		 DB	 1
  0004e	01		 DB	 1
  0004f	01		 DB	 1
  00050	01		 DB	 1
  00051	01		 DB	 1
  00052	01		 DB	 1
  00053	01		 DB	 1
  00054	01		 DB	 1
  00055	01		 DB	 1
  00056	01		 DB	 1
  00057	01		 DB	 1
  00058	00		 DB	 0
  00059	00		 DB	 0
  0005a	00		 DB	 0
  0005b	00		 DB	 0
  0005c	00		 DB	 0
  0005d	00		 DB	 0
  0005e	00		 DB	 0
  0005f	00		 DB	 0
  00060	00		 DB	 0
  00061	00		 DB	 0
  00062	01		 DB	 1
  00063	01		 DB	 1
  00064	01		 DB	 1
  00065	01		 DB	 1
  00066	01		 DB	 1
  00067	01		 DB	 1
  00068	01		 DB	 1
  00069	00		 DB	 0
  0006a	00		 DB	 0
  0006b	00		 DB	 0
  0006c	00		 DB	 0
  0006d	00		 DB	 0
  0006e	00		 DB	 0
  0006f	00		 DB	 0
  00070	00		 DB	 0
  00071	00		 DB	 0
  00072	00		 DB	 0
  00073	00		 DB	 0
  00074	00		 DB	 0
  00075	00		 DB	 0
  00076	00		 DB	 0
  00077	00		 DB	 0
  00078	00		 DB	 0
  00079	00		 DB	 0
  0007a	00		 DB	 0
  0007b	00		 DB	 0
  0007c	00		 DB	 0
  0007d	00		 DB	 0
  0007e	00		 DB	 0
  0007f	00		 DB	 0
  00080	00		 DB	 0
  00081	00		 DB	 0
  00082	00		 DB	 0
  00083	01		 DB	 1
  00084	01		 DB	 1
  00085	01		 DB	 1
  00086	01		 DB	 1
  00087	01		 DB	 1
  00088	01		 DB	 1
  00089	00		 DB	 0
  0008a	00		 DB	 0
  0008b	00		 DB	 0
  0008c	00		 DB	 0
  0008d	00		 DB	 0
  0008e	00		 DB	 0
  0008f	00		 DB	 0
  00090	00		 DB	 0
  00091	00		 DB	 0
  00092	00		 DB	 0
  00093	00		 DB	 0
  00094	00		 DB	 0
  00095	00		 DB	 0
  00096	00		 DB	 0
  00097	00		 DB	 0
  00098	00		 DB	 0
  00099	00		 DB	 0
  0009a	00		 DB	 0
  0009b	00		 DB	 0
  0009c	00		 DB	 0
  0009d	00		 DB	 0
  0009e	00		 DB	 0
  0009f	00		 DB	 0
  000a0	00		 DB	 0
  000a1	00		 DB	 0
  000a2	00		 DB	 0
?CheckSimbol@Brotherhood@@QAE_NPAD@Z ENDP		; Brotherhood::CheckSimbol
_TEXT	ENDS
PUBLIC	??_C@_0BL@MGHIGAKM@?$HO?$FLBrotherhood?$FN?3?5Create?3?5?$CFs?$AA@ ; `string'
PUBLIC	??_C@_0BO@EFGFCICC@?$FLBrotherhood?$FN?3?5Need?5?$CFd?5Credit?$AA@ ; `string'
PUBLIC	??_C@_0BO@MJNLBDFA@?$FLBrotherhood?$FN?3?5Need?5?$CFd?5Goblin?$AA@ ; `string'
PUBLIC	??_C@_0BO@FFKPHDKI@?$FLBrotherhood?$FN?3?5Need?5?$CFd?5WCoinP?$AA@ ; `string'
PUBLIC	??_C@_0BO@DEEADCDK@?$FLBrotherhood?$FN?3?5Need?5?$CFd?5WCoinC?$AA@ ; `string'
PUBLIC	??_C@_0BL@CNLPDMGF@?$FLBrotherhood?$FN?3?5Need?5?$CFd?5Zen?$AA@ ; `string'
PUBLIC	??_C@_0CC@BKCMJHBG@?$FLBrotherhood?$FN?3?5Brother?5Party?5?$CFd?1@ ; `string'
PUBLIC	??_C@_0BO@KLPFKPNJ@?$FLBrotherhood?$FN?5Need?5Max?5User?55?$AA@ ; `string'
PUBLIC	??_C@_0BO@GGNKNGLB@?$FLBrotherhood?$FN?5No?5Party?5Leader?$AA@ ; `string'
PUBLIC	??_C@_0BJ@PHMHMDCA@?$FLBrotherhood?$FN?5Word?5Error?$AA@ ; `string'
PUBLIC	??_C@_0BJ@LGGNJJGF@?$FLBrotherhood?$FN?5Max?5Len?510?$AA@ ; `string'
PUBLIC	??_C@_0BH@IHBBNOAL@?$FLBrotherhood?$FN?5No?5Party?$AA@ ; `string'
PUBLIC	_aIndex$GSCopy$
PUBLIC	_this$GSCopy$
PUBLIC	__$ArrayPad$
PUBLIC	?UserAddedBrother@Brotherhood@@QAEXHPAD@Z	; Brotherhood::UserAddedBrother
EXTRN	?MessageChat@@YAXHPADZZ:PROC			; MessageChat
EXTRN	?ZtFireCracker@@YAXHEE@Z:PROC			; ZtFireCracker
EXTRN	?GCMoneySend@@YAXHK@Z:PROC			; GCMoneySend
EXTRN	?GetPartyCount@PartyClass@@QAEHH@Z:PROC		; PartyClass::GetPartyCount
EXTRN	?Isleader@PartyClass@@QAEHHHH@Z:PROC		; PartyClass::Isleader
EXTRN	_strncpy:PROC
;	COMDAT ??_C@_0BL@MGHIGAKM@?$HO?$FLBrotherhood?$FN?3?5Create?3?5?$CFs?$AA@
CONST	SEGMENT
??_C@_0BL@MGHIGAKM@?$HO?$FLBrotherhood?$FN?3?5Create?3?5?$CFs?$AA@ DB '~['
	DB	'Brotherhood]: Create: %s', 00H		; `string'
CONST	ENDS
;	COMDAT ??_C@_0BO@EFGFCICC@?$FLBrotherhood?$FN?3?5Need?5?$CFd?5Credit?$AA@
CONST	SEGMENT
??_C@_0BO@EFGFCICC@?$FLBrotherhood?$FN?3?5Need?5?$CFd?5Credit?$AA@ DB '[B'
	DB	'rotherhood]: Need %d Credit', 00H		; `string'
CONST	ENDS
;	COMDAT ??_C@_0BO@MJNLBDFA@?$FLBrotherhood?$FN?3?5Need?5?$CFd?5Goblin?$AA@
CONST	SEGMENT
??_C@_0BO@MJNLBDFA@?$FLBrotherhood?$FN?3?5Need?5?$CFd?5Goblin?$AA@ DB '[B'
	DB	'rotherhood]: Need %d Goblin', 00H		; `string'
CONST	ENDS
;	COMDAT ??_C@_0BO@FFKPHDKI@?$FLBrotherhood?$FN?3?5Need?5?$CFd?5WCoinP?$AA@
CONST	SEGMENT
??_C@_0BO@FFKPHDKI@?$FLBrotherhood?$FN?3?5Need?5?$CFd?5WCoinP?$AA@ DB '[B'
	DB	'rotherhood]: Need %d WCoinP', 00H		; `string'
CONST	ENDS
;	COMDAT ??_C@_0BO@DEEADCDK@?$FLBrotherhood?$FN?3?5Need?5?$CFd?5WCoinC?$AA@
CONST	SEGMENT
??_C@_0BO@DEEADCDK@?$FLBrotherhood?$FN?3?5Need?5?$CFd?5WCoinC?$AA@ DB '[B'
	DB	'rotherhood]: Need %d WCoinC', 00H		; `string'
CONST	ENDS
;	COMDAT ??_C@_0BL@CNLPDMGF@?$FLBrotherhood?$FN?3?5Need?5?$CFd?5Zen?$AA@
CONST	SEGMENT
??_C@_0BL@CNLPDMGF@?$FLBrotherhood?$FN?3?5Need?5?$CFd?5Zen?$AA@ DB '[Brot'
	DB	'herhood]: Need %d Zen', 00H			; `string'
CONST	ENDS
;	COMDAT ??_C@_0CC@BKCMJHBG@?$FLBrotherhood?$FN?3?5Brother?5Party?5?$CFd?1@
CONST	SEGMENT
??_C@_0CC@BKCMJHBG@?$FLBrotherhood?$FN?3?5Brother?5Party?5?$CFd?1@ DB '[B'
	DB	'rotherhood]: Brother Party %d/5', 00H	; `string'
CONST	ENDS
;	COMDAT ??_C@_0BO@KLPFKPNJ@?$FLBrotherhood?$FN?5Need?5Max?5User?55?$AA@
CONST	SEGMENT
??_C@_0BO@KLPFKPNJ@?$FLBrotherhood?$FN?5Need?5Max?5User?55?$AA@ DB '[Brot'
	DB	'herhood] Need Max User 5', 00H		; `string'
CONST	ENDS
;	COMDAT ??_C@_0BO@GGNKNGLB@?$FLBrotherhood?$FN?5No?5Party?5Leader?$AA@
CONST	SEGMENT
??_C@_0BO@GGNKNGLB@?$FLBrotherhood?$FN?5No?5Party?5Leader?$AA@ DB '[Broth'
	DB	'erhood] No Party Leader', 00H		; `string'
CONST	ENDS
;	COMDAT ??_C@_0BJ@PHMHMDCA@?$FLBrotherhood?$FN?5Word?5Error?$AA@
CONST	SEGMENT
??_C@_0BJ@PHMHMDCA@?$FLBrotherhood?$FN?5Word?5Error?$AA@ DB '[Brotherhood'
	DB	'] Word Error', 00H				; `string'
CONST	ENDS
;	COMDAT ??_C@_0BJ@LGGNJJGF@?$FLBrotherhood?$FN?5Max?5Len?510?$AA@
CONST	SEGMENT
??_C@_0BJ@LGGNJJGF@?$FLBrotherhood?$FN?5Max?5Len?510?$AA@ DB '[Brotherhoo'
	DB	'd] Max Len 10', 00H				; `string'
CONST	ENDS
;	COMDAT ??_C@_0BH@IHBBNOAL@?$FLBrotherhood?$FN?5No?5Party?$AA@
CONST	SEGMENT
??_C@_0BH@IHBBNOAL@?$FLBrotherhood?$FN?5No?5Party?$AA@ DB '[Brotherhood] '
	DB	'No Party', 00H				; `string'
; Function compile flags: /Ogtp
CONST	ENDS
;	COMDAT ?UserAddedBrother@Brotherhood@@QAEXHPAD@Z
_TEXT	SEGMENT
_BrCount$ = -32						; size = 4
_partynum$ = -28					; size = 4
tv539 = -24						; size = 4
tv435 = -24						; size = 4
_this$GSCopy$ = -24					; size = 4
tv408 = -20						; size = 4
_aIndex$GSCopy$ = -20					; size = 4
_szBrName$ = -16					; size = 11
__$ArrayPad$ = -4					; size = 4
_aIndex$ = 8						; size = 4
_BrName$ = 12						; size = 4
?UserAddedBrother@Brotherhood@@QAEXHPAD@Z PROC		; Brotherhood::UserAddedBrother, COMDAT
; _this$ = ecx

; 537  : {

  00000	55		 push	 ebp
  00001	8b ec		 mov	 ebp, esp
  00003	83 ec 20	 sub	 esp, 32			; 00000020H
  00006	a1 00 00 00 00	 mov	 eax, DWORD PTR ___security_cookie
  0000b	33 c5		 xor	 eax, ebp
  0000d	89 45 fc	 mov	 DWORD PTR __$ArrayPad$[ebp], eax

; 538  : 	if(!this->Enable)

  00010	80 39 00	 cmp	 BYTE PTR [ecx], 0
  00013	8b 55 08	 mov	 edx, DWORD PTR _aIndex$[ebp]
  00016	53		 push	 ebx
  00017	8b 5d 0c	 mov	 ebx, DWORD PTR _BrName$[ebp]

; 570  : 		return;
; 571  : 	}
; 572  : #endif
; 573  : 	char szBrName[11] = { 0 };

  0001a	89 4d e8	 mov	 DWORD PTR _this$GSCopy$[ebp], ecx
  0001d	89 55 ec	 mov	 DWORD PTR _aIndex$GSCopy$[ebp], edx
  00020	0f 84 80 04 00
	00		 je	 $LN2@UserAddedB

; 539  : 	{
; 540  : 		return;
; 541  : 	}
; 542  : 
; 543  : 	if ( OBJMAX_RANGE(aIndex) == FALSE )

  00026	85 d2		 test	 edx, edx
  00028	78 0f		 js	 SHORT $LN45@UserAddedB
  0002a	33 c0		 xor	 eax, eax
  0002c	81 fa 97 3a 00
	00		 cmp	 edx, 14999		; 00003a97H
  00032	0f 9e c0	 setle	 al
  00035	85 c0		 test	 eax, eax
  00037	75 29		 jne	 SHORT $LN34@UserAddedB
$LN45@UserAddedB:

; 544  : 	{
; 545  : 		LogAdd("error : %s %d", __FILE__, __LINE__ );

  00039	68 21 02 00 00	 push	 545			; 00000221H
  0003e	68 00 00 00 00	 push	 OFFSET ??_C@_0BA@GFGCGMCP@Brotherhood?4cpp?$AA@
  00043	68 00 00 00 00	 push	 OFFSET ??_C@_0O@CKAEPJAF@error?5?3?5?$CFs?5?$CFd?$AA@
  00048	ff 15 00 00 00
	00		 call	 DWORD PTR ?LogAdd@@3P6AXPADZZA ; LogAdd
  0004e	83 c4 0c	 add	 esp, 12			; 0000000cH
  00051	5b		 pop	 ebx

; 714  : #ifndef FIX_DS_CRASH
; 715  : 			GJSetCharacterInfo(LpBrother, number, 0);
; 716  : #endif
; 717  : 		}
; 718  : 	}
; 719  : 	// Done
; 720  : #else
; 721  : 			strncpy(gObj[aIndex].Brotherhood,szBrName,10);
; 722  : 			//ZtFireCracker(aIndex, LpBrother->X, LpBrother->Y);
; 723  : 			MessageChat(aIndex,"~[Brotherhood]: Create: %s",szBrName);
; 724  : #ifndef FIX_DS_CRASH
; 725  : 			GJSetCharacterInfo(&gObj[aIndex], aIndex, 0);
; 726  : #endif
; 727  : #endif
; 728  : }

  00052	8b 4d fc	 mov	 ecx, DWORD PTR __$ArrayPad$[ebp]
  00055	33 cd		 xor	 ecx, ebp
  00057	e8 00 00 00 00	 call	 @__security_check_cookie@4
  0005c	8b e5		 mov	 esp, ebp
  0005e	5d		 pop	 ebp
  0005f	c2 08 00	 ret	 8
$LN34@UserAddedB:

; 546  : 		return;
; 547  : 	}
; 548  : 
; 549  : 	LPOBJ lpUser = &gObj[aIndex];

  00062	a1 00 00 00 00	 mov	 eax, DWORD PTR ?gObj@@3PAUOBJECTSTRUCT@@A ; gObj
  00067	56		 push	 esi
  00068	57		 push	 edi
  00069	8b fa		 mov	 edi, edx
  0006b	69 ff 50 2b 00
	00		 imul	 edi, 11088		; 00002b50H

; 550  : 
; 551  : 	if(lpUser->Connected < PLAYER_PLAYING)

  00071	83 7c 07 04 03	 cmp	 DWORD PTR [edi+eax+4], 3
  00076	8d 34 07	 lea	 esi, DWORD PTR [edi+eax]
  00079	0f 8c 25 04 00
	00		 jl	 $LN55@UserAddedB

; 552  : 	{
; 553  : 		return;
; 554  : 	}
; 555  : 
; 556  : #ifndef BR_DEBUG
; 557  : 
; 558  : 	//  ???
; 559  : 	if(lpUser->PartyNumber == -1)

  0007f	83 be 2c 04 00
	00 ff		 cmp	 DWORD PTR [esi+1068], -1
  00086	75 21		 jne	 SHORT $LN32@UserAddedB

; 560  : 	{
; 561  : 		MsgNormal(aIndex,"[Brotherhood] No Party");

  00088	68 00 00 00 00	 push	 OFFSET ??_C@_0BH@IHBBNOAL@?$FLBrotherhood?$FN?5No?5Party?$AA@
  0008d	52		 push	 edx
  0008e	e8 00 00 00 00	 call	 ?MsgNormal@@YAXHPADZZ	; MsgNormal
  00093	83 c4 08	 add	 esp, 8
  00096	5f		 pop	 edi
  00097	5e		 pop	 esi
  00098	5b		 pop	 ebx

; 714  : #ifndef FIX_DS_CRASH
; 715  : 			GJSetCharacterInfo(LpBrother, number, 0);
; 716  : #endif
; 717  : 		}
; 718  : 	}
; 719  : 	// Done
; 720  : #else
; 721  : 			strncpy(gObj[aIndex].Brotherhood,szBrName,10);
; 722  : 			//ZtFireCracker(aIndex, LpBrother->X, LpBrother->Y);
; 723  : 			MessageChat(aIndex,"~[Brotherhood]: Create: %s",szBrName);
; 724  : #ifndef FIX_DS_CRASH
; 725  : 			GJSetCharacterInfo(&gObj[aIndex], aIndex, 0);
; 726  : #endif
; 727  : #endif
; 728  : }

  00099	8b 4d fc	 mov	 ecx, DWORD PTR __$ArrayPad$[ebp]
  0009c	33 cd		 xor	 ecx, ebp
  0009e	e8 00 00 00 00	 call	 @__security_check_cookie@4
  000a3	8b e5		 mov	 esp, ebp
  000a5	5d		 pop	 ebp
  000a6	c2 08 00	 ret	 8
$LN32@UserAddedB:

; 562  : 		return;
; 563  : 	}
; 564  : 
; 565  : 
; 566  : 
; 567  : 	if (strlen(BrName) > 10) 

  000a9	8b c3		 mov	 eax, ebx
  000ab	8d 50 01	 lea	 edx, DWORD PTR [eax+1]
  000ae	8b ff		 npad	 2
$LL46@UserAddedB:
  000b0	8a 08		 mov	 cl, BYTE PTR [eax]
  000b2	40		 inc	 eax
  000b3	84 c9		 test	 cl, cl
  000b5	75 f9		 jne	 SHORT $LL46@UserAddedB
  000b7	2b c2		 sub	 eax, edx
  000b9	83 f8 0a	 cmp	 eax, 10			; 0000000aH
  000bc	76 24		 jbe	 SHORT $LN31@UserAddedB

; 568  : 	{
; 569  : 		MsgNormal(aIndex,"[Brotherhood] Max Len 10");

  000be	8b 4d ec	 mov	 ecx, DWORD PTR _aIndex$GSCopy$[ebp]
  000c1	68 00 00 00 00	 push	 OFFSET ??_C@_0BJ@LGGNJJGF@?$FLBrotherhood?$FN?5Max?5Len?510?$AA@
  000c6	51		 push	 ecx
  000c7	e8 00 00 00 00	 call	 ?MsgNormal@@YAXHPADZZ	; MsgNormal
  000cc	83 c4 08	 add	 esp, 8
  000cf	5f		 pop	 edi
  000d0	5e		 pop	 esi
  000d1	5b		 pop	 ebx

; 714  : #ifndef FIX_DS_CRASH
; 715  : 			GJSetCharacterInfo(LpBrother, number, 0);
; 716  : #endif
; 717  : 		}
; 718  : 	}
; 719  : 	// Done
; 720  : #else
; 721  : 			strncpy(gObj[aIndex].Brotherhood,szBrName,10);
; 722  : 			//ZtFireCracker(aIndex, LpBrother->X, LpBrother->Y);
; 723  : 			MessageChat(aIndex,"~[Brotherhood]: Create: %s",szBrName);
; 724  : #ifndef FIX_DS_CRASH
; 725  : 			GJSetCharacterInfo(&gObj[aIndex], aIndex, 0);
; 726  : #endif
; 727  : #endif
; 728  : }

  000d2	8b 4d fc	 mov	 ecx, DWORD PTR __$ArrayPad$[ebp]
  000d5	33 cd		 xor	 ecx, ebp
  000d7	e8 00 00 00 00	 call	 @__security_check_cookie@4
  000dc	8b e5		 mov	 esp, ebp
  000de	5d		 pop	 ebp
  000df	c2 08 00	 ret	 8
$LN31@UserAddedB:

; 574  : 	strncpy(szBrName,BrName,10);

  000e2	6a 0a		 push	 10			; 0000000aH
  000e4	33 c0		 xor	 eax, eax
  000e6	8d 55 f0	 lea	 edx, DWORD PTR _szBrName$[ebp]
  000e9	53		 push	 ebx
  000ea	52		 push	 edx
  000eb	c6 45 f0 00	 mov	 BYTE PTR _szBrName$[ebp], 0
  000ef	89 45 f1	 mov	 DWORD PTR _szBrName$[ebp+1], eax
  000f2	89 45 f5	 mov	 DWORD PTR _szBrName$[ebp+5], eax
  000f5	66 89 45 f9	 mov	 WORD PTR _szBrName$[ebp+9], ax
  000f9	e8 00 00 00 00	 call	 _strncpy

; 575  : 
; 576  : 	//  ??
; 577  : 	if(this->CheckSimbol(szBrName) == false)

  000fe	8b 4d e8	 mov	 ecx, DWORD PTR _this$GSCopy$[ebp]
  00101	83 c4 0c	 add	 esp, 12			; 0000000cH
  00104	8d 45 f0	 lea	 eax, DWORD PTR _szBrName$[ebp]
  00107	50		 push	 eax
  00108	e8 00 00 00 00	 call	 ?CheckSimbol@Brotherhood@@QAE_NPAD@Z ; Brotherhood::CheckSimbol
  0010d	84 c0		 test	 al, al
  0010f	75 24		 jne	 SHORT $LN30@UserAddedB

; 578  : 	{
; 579  : 		MsgNormal(aIndex,"[Brotherhood] Word Error");

  00111	8b 4d ec	 mov	 ecx, DWORD PTR _aIndex$GSCopy$[ebp]
  00114	68 00 00 00 00	 push	 OFFSET ??_C@_0BJ@PHMHMDCA@?$FLBrotherhood?$FN?5Word?5Error?$AA@
  00119	51		 push	 ecx
  0011a	e8 00 00 00 00	 call	 ?MsgNormal@@YAXHPADZZ	; MsgNormal
  0011f	83 c4 08	 add	 esp, 8
  00122	5f		 pop	 edi
  00123	5e		 pop	 esi
  00124	5b		 pop	 ebx

; 714  : #ifndef FIX_DS_CRASH
; 715  : 			GJSetCharacterInfo(LpBrother, number, 0);
; 716  : #endif
; 717  : 		}
; 718  : 	}
; 719  : 	// Done
; 720  : #else
; 721  : 			strncpy(gObj[aIndex].Brotherhood,szBrName,10);
; 722  : 			//ZtFireCracker(aIndex, LpBrother->X, LpBrother->Y);
; 723  : 			MessageChat(aIndex,"~[Brotherhood]: Create: %s",szBrName);
; 724  : #ifndef FIX_DS_CRASH
; 725  : 			GJSetCharacterInfo(&gObj[aIndex], aIndex, 0);
; 726  : #endif
; 727  : #endif
; 728  : }

  00125	8b 4d fc	 mov	 ecx, DWORD PTR __$ArrayPad$[ebp]
  00128	33 cd		 xor	 ecx, ebp
  0012a	e8 00 00 00 00	 call	 @__security_check_cookie@4
  0012f	8b e5		 mov	 esp, ebp
  00131	5d		 pop	 ebp
  00132	c2 08 00	 ret	 8
$LN30@UserAddedB:

; 580  : 		return;
; 581  : 	}
; 582  : 
; 583  : 	if(strcmp(lpUser->Brotherhood,"One"))

  00135	8d 86 6d 28 00
	00		 lea	 eax, DWORD PTR [esi+10349]
  0013b	b9 00 00 00 00	 mov	 ecx, OFFSET ??_C@_03EHAPBBEA@One?$AA@
$LL47@UserAddedB:
  00140	8a 10		 mov	 dl, BYTE PTR [eax]
  00142	3a 11		 cmp	 dl, BYTE PTR [ecx]
  00144	75 1a		 jne	 SHORT $LN48@UserAddedB
  00146	84 d2		 test	 dl, dl
  00148	74 12		 je	 SHORT $LN49@UserAddedB
  0014a	8a 50 01	 mov	 dl, BYTE PTR [eax+1]
  0014d	3a 51 01	 cmp	 dl, BYTE PTR [ecx+1]
  00150	75 0e		 jne	 SHORT $LN48@UserAddedB
  00152	83 c0 02	 add	 eax, 2
  00155	83 c1 02	 add	 ecx, 2
  00158	84 d2		 test	 dl, dl
  0015a	75 e4		 jne	 SHORT $LL47@UserAddedB
$LN49@UserAddedB:
  0015c	33 c0		 xor	 eax, eax
  0015e	eb 05		 jmp	 SHORT $LN50@UserAddedB
$LN48@UserAddedB:
  00160	1b c0		 sbb	 eax, eax
  00162	83 d8 ff	 sbb	 eax, -1
$LN50@UserAddedB:
  00165	85 c0		 test	 eax, eax
  00167	0f 85 37 03 00
	00		 jne	 $LN55@UserAddedB

; 584  : 	{
; 585  : 		return;
; 586  : 	}
; 587  : 
; 588  : 	int number = 0;
; 589  : 	int BrCount = 0;
; 590  : 	int	partynum = lpUser->PartyNumber;

  0016d	8b 96 2c 04 00
	00		 mov	 edx, DWORD PTR [esi+1068]

; 591  : 
; 592  : #ifndef BR_DEBUG
; 593  : 
; 594  : 	if( !gParty.Isleader(gObj[aIndex].PartyNumber, aIndex, gObj[aIndex].DBNumber) )

  00173	8b 5d ec	 mov	 ebx, DWORD PTR _aIndex$GSCopy$[ebp]
  00176	89 45 e0	 mov	 DWORD PTR _BrCount$[ebp], eax
  00179	a1 00 00 00 00	 mov	 eax, DWORD PTR ?gObj@@3PAUOBJECTSTRUCT@@A ; gObj
  0017e	8b 4c 07 2c	 mov	 ecx, DWORD PTR [edi+eax+44]
  00182	51		 push	 ecx
  00183	89 55 e4	 mov	 DWORD PTR _partynum$[ebp], edx
  00186	8b 94 07 2c 04
	00 00		 mov	 edx, DWORD PTR [edi+eax+1068]
  0018d	53		 push	 ebx
  0018e	52		 push	 edx
  0018f	b9 00 00 00 00	 mov	 ecx, OFFSET ?gParty@@3VPartyClass@@A ; gParty
  00194	e8 00 00 00 00	 call	 ?Isleader@PartyClass@@QAEHHHH@Z ; PartyClass::Isleader
  00199	85 c0		 test	 eax, eax
  0019b	75 21		 jne	 SHORT $LN28@UserAddedB

; 595  : 	{
; 596  : 		MsgNormal(aIndex,"[Brotherhood] No Party Leader");

  0019d	68 00 00 00 00	 push	 OFFSET ??_C@_0BO@GGNKNGLB@?$FLBrotherhood?$FN?5No?5Party?5Leader?$AA@
  001a2	53		 push	 ebx
  001a3	e8 00 00 00 00	 call	 ?MsgNormal@@YAXHPADZZ	; MsgNormal
  001a8	83 c4 08	 add	 esp, 8
  001ab	5f		 pop	 edi
  001ac	5e		 pop	 esi
  001ad	5b		 pop	 ebx

; 714  : #ifndef FIX_DS_CRASH
; 715  : 			GJSetCharacterInfo(LpBrother, number, 0);
; 716  : #endif
; 717  : 		}
; 718  : 	}
; 719  : 	// Done
; 720  : #else
; 721  : 			strncpy(gObj[aIndex].Brotherhood,szBrName,10);
; 722  : 			//ZtFireCracker(aIndex, LpBrother->X, LpBrother->Y);
; 723  : 			MessageChat(aIndex,"~[Brotherhood]: Create: %s",szBrName);
; 724  : #ifndef FIX_DS_CRASH
; 725  : 			GJSetCharacterInfo(&gObj[aIndex], aIndex, 0);
; 726  : #endif
; 727  : #endif
; 728  : }

  001ae	8b 4d fc	 mov	 ecx, DWORD PTR __$ArrayPad$[ebp]
  001b1	33 cd		 xor	 ecx, ebp
  001b3	e8 00 00 00 00	 call	 @__security_check_cookie@4
  001b8	8b e5		 mov	 esp, ebp
  001ba	5d		 pop	 ebp
  001bb	c2 08 00	 ret	 8
$LN28@UserAddedB:

; 597  : 		return;
; 598  : 	}
; 599  : 	
; 600  : 	int PartyUserCount = gParty.GetPartyCount(partynum);

  001be	8b 45 e4	 mov	 eax, DWORD PTR _partynum$[ebp]
  001c1	50		 push	 eax
  001c2	b9 00 00 00 00	 mov	 ecx, OFFSET ?gParty@@3VPartyClass@@A ; gParty
  001c7	e8 00 00 00 00	 call	 ?GetPartyCount@PartyClass@@QAEHH@Z ; PartyClass::GetPartyCount

; 601  : 
; 602  : 	if(PartyUserCount > 5)

  001cc	83 f8 05	 cmp	 eax, 5
  001cf	7e 21		 jle	 SHORT $LN27@UserAddedB

; 603  : 	{
; 604  : 		MsgNormal(aIndex,"[Brotherhood] Need Max User 5");

  001d1	68 00 00 00 00	 push	 OFFSET ??_C@_0BO@KLPFKPNJ@?$FLBrotherhood?$FN?5Need?5Max?5User?55?$AA@
  001d6	53		 push	 ebx
  001d7	e8 00 00 00 00	 call	 ?MsgNormal@@YAXHPADZZ	; MsgNormal
  001dc	83 c4 08	 add	 esp, 8
  001df	5f		 pop	 edi
  001e0	5e		 pop	 esi
  001e1	5b		 pop	 ebx

; 714  : #ifndef FIX_DS_CRASH
; 715  : 			GJSetCharacterInfo(LpBrother, number, 0);
; 716  : #endif
; 717  : 		}
; 718  : 	}
; 719  : 	// Done
; 720  : #else
; 721  : 			strncpy(gObj[aIndex].Brotherhood,szBrName,10);
; 722  : 			//ZtFireCracker(aIndex, LpBrother->X, LpBrother->Y);
; 723  : 			MessageChat(aIndex,"~[Brotherhood]: Create: %s",szBrName);
; 724  : #ifndef FIX_DS_CRASH
; 725  : 			GJSetCharacterInfo(&gObj[aIndex], aIndex, 0);
; 726  : #endif
; 727  : #endif
; 728  : }

  001e2	8b 4d fc	 mov	 ecx, DWORD PTR __$ArrayPad$[ebp]
  001e5	33 cd		 xor	 ecx, ebp
  001e7	e8 00 00 00 00	 call	 @__security_check_cookie@4
  001ec	8b e5		 mov	 esp, ebp
  001ee	5d		 pop	 ebp
  001ef	c2 08 00	 ret	 8
$LN27@UserAddedB:

; 605  : 		return;
; 606  : 	}
; 607  : 
; 608  : 	for(int n = 0; n < MAX_USER_IN_PARTY; n++)

  001f2	33 ff		 xor	 edi, edi
$LL53@UserAddedB:

; 609  : 	{
; 610  : #if _NEW_PARTY_SYSTEM_ == TRUE
; 611  : 		if( n >= g_MaxPartyMember)

  001f4	3b 3d 00 00 00
	00		 cmp	 edi, DWORD PTR ?g_MaxPartyMember@@3HA ; g_MaxPartyMember
  001fa	7d 49		 jge	 SHORT $LN42@UserAddedB

; 612  : 		{
; 613  : 			break;
; 614  : 		}
; 615  : #endif
; 616  : 		number = gParty.m_PartyS[partynum].Number[n];

  001fc	8b 4d e4	 mov	 ecx, DWORD PTR _partynum$[ebp]
  001ff	6b c9 1a	 imul	 ecx, 26			; 0000001aH
  00202	03 cf		 add	 ecx, edi
  00204	8b 04 8d 0c 00
	00 00		 mov	 eax, DWORD PTR ?gParty@@3VPartyClass@@A[ecx*4+12]

; 617  : 
; 618  : 		if(number >= 0 && lpUser->Connected == PLAYER_PLAYING)

  0020b	85 c0		 test	 eax, eax
  0020d	78 30		 js	 SHORT $LN25@UserAddedB
  0020f	83 7e 04 03	 cmp	 DWORD PTR [esi+4], 3
  00213	75 2a		 jne	 SHORT $LN25@UserAddedB

; 619  : 		{
; 620  : 			LPOBJ LpBrother = &gObj[number];

  00215	69 c0 50 2b 00
	00		 imul	 eax, 11088		; 00002b50H
  0021b	03 05 00 00 00
	00		 add	 eax, DWORD PTR ?gObj@@3PAUOBJECTSTRUCT@@A ; gObj

; 621  : 			if(!strncmp(lpUser->Brotherhood,LpBrother->Brotherhood,10))

  00221	6a 0a		 push	 10			; 0000000aH
  00223	05 6d 28 00 00	 add	 eax, 10349		; 0000286dH
  00228	50		 push	 eax
  00229	8d 86 6d 28 00
	00		 lea	 eax, DWORD PTR [esi+10349]
  0022f	50		 push	 eax
  00230	e8 00 00 00 00	 call	 _strncmp
  00235	83 c4 0c	 add	 esp, 12			; 0000000cH
  00238	85 c0		 test	 eax, eax
  0023a	75 03		 jne	 SHORT $LN25@UserAddedB

; 622  : 			{
; 623  : 				BrCount++;

  0023c	ff 45 e0	 inc	 DWORD PTR _BrCount$[ebp]
$LN25@UserAddedB:

; 605  : 		return;
; 606  : 	}
; 607  : 
; 608  : 	for(int n = 0; n < MAX_USER_IN_PARTY; n++)

  0023f	47		 inc	 edi
  00240	83 ff 0a	 cmp	 edi, 10			; 0000000aH
  00243	7c af		 jl	 SHORT $LL53@UserAddedB
$LN42@UserAddedB:

; 624  : 			}
; 625  : 		}
; 626  : 		else
; 627  : 		{
; 628  : 			continue;
; 629  : 		}
; 630  : 	}
; 631  : 
; 632  : #if _NEW_PARTY_SYSTEM_ == TRUE
; 633  : 	if(5 > BrCount)

  00245	8b 45 e0	 mov	 eax, DWORD PTR _BrCount$[ebp]
  00248	83 f8 05	 cmp	 eax, 5
  0024b	7d 22		 jge	 SHORT $LN19@UserAddedB

; 634  : 	{
; 635  : 		MsgNormal(aIndex,"[Brotherhood]: Brother Party %d/5",BrCount);

  0024d	50		 push	 eax
  0024e	68 00 00 00 00	 push	 OFFSET ??_C@_0CC@BKCMJHBG@?$FLBrotherhood?$FN?3?5Brother?5Party?5?$CFd?1@
  00253	53		 push	 ebx
  00254	e8 00 00 00 00	 call	 ?MsgNormal@@YAXHPADZZ	; MsgNormal
  00259	83 c4 0c	 add	 esp, 12			; 0000000cH
  0025c	5f		 pop	 edi
  0025d	5e		 pop	 esi
  0025e	5b		 pop	 ebx

; 714  : #ifndef FIX_DS_CRASH
; 715  : 			GJSetCharacterInfo(LpBrother, number, 0);
; 716  : #endif
; 717  : 		}
; 718  : 	}
; 719  : 	// Done
; 720  : #else
; 721  : 			strncpy(gObj[aIndex].Brotherhood,szBrName,10);
; 722  : 			//ZtFireCracker(aIndex, LpBrother->X, LpBrother->Y);
; 723  : 			MessageChat(aIndex,"~[Brotherhood]: Create: %s",szBrName);
; 724  : #ifndef FIX_DS_CRASH
; 725  : 			GJSetCharacterInfo(&gObj[aIndex], aIndex, 0);
; 726  : #endif
; 727  : #endif
; 728  : }

  0025f	8b 4d fc	 mov	 ecx, DWORD PTR __$ArrayPad$[ebp]
  00262	33 cd		 xor	 ecx, ebp
  00264	e8 00 00 00 00	 call	 @__security_check_cookie@4
  00269	8b e5		 mov	 esp, ebp
  0026b	5d		 pop	 ebp
  0026c	c2 08 00	 ret	 8
$LN19@UserAddedB:

; 636  : 		return;
; 637  : 	}
; 638  : #else
; 639  : 	if(MAX_USER_IN_PARTY > BrCount)
; 640  : 	{
; 641  : 		MsgNormal(aIndex,"[Brotherhood]: Brother Party %d/5",BrCount);
; 642  : 		return;
; 643  : 	}
; 644  : #endif
; 645  : 
; 646  : 	if(this->BuyType == 1)	//Zen

  0026f	8b 4d e8	 mov	 ecx, DWORD PTR _this$GSCopy$[ebp]
  00272	8b 41 1c	 mov	 eax, DWORD PTR [ecx+28]
  00275	83 f8 01	 cmp	 eax, 1
  00278	75 46		 jne	 SHORT $LN18@UserAddedB

; 647  : 	{
; 648  : 		if(lpUser->Money < this->BuyCost)

  0027a	8b 86 f0 00 00
	00		 mov	 eax, DWORD PTR [esi+240]
  00280	8b 49 20	 mov	 ecx, DWORD PTR [ecx+32]
  00283	3b c1		 cmp	 eax, ecx
  00285	7d 22		 jge	 SHORT $LN17@UserAddedB

; 649  : 		{
; 650  : 			MsgNormal(aIndex,"[Brotherhood]: Need %d Zen",this->BuyCost);

  00287	51		 push	 ecx
  00288	68 00 00 00 00	 push	 OFFSET ??_C@_0BL@CNLPDMGF@?$FLBrotherhood?$FN?3?5Need?5?$CFd?5Zen?$AA@
  0028d	53		 push	 ebx
  0028e	e8 00 00 00 00	 call	 ?MsgNormal@@YAXHPADZZ	; MsgNormal
  00293	83 c4 0c	 add	 esp, 12			; 0000000cH
  00296	5f		 pop	 edi
  00297	5e		 pop	 esi
  00298	5b		 pop	 ebx

; 714  : #ifndef FIX_DS_CRASH
; 715  : 			GJSetCharacterInfo(LpBrother, number, 0);
; 716  : #endif
; 717  : 		}
; 718  : 	}
; 719  : 	// Done
; 720  : #else
; 721  : 			strncpy(gObj[aIndex].Brotherhood,szBrName,10);
; 722  : 			//ZtFireCracker(aIndex, LpBrother->X, LpBrother->Y);
; 723  : 			MessageChat(aIndex,"~[Brotherhood]: Create: %s",szBrName);
; 724  : #ifndef FIX_DS_CRASH
; 725  : 			GJSetCharacterInfo(&gObj[aIndex], aIndex, 0);
; 726  : #endif
; 727  : #endif
; 728  : }

  00299	8b 4d fc	 mov	 ecx, DWORD PTR __$ArrayPad$[ebp]
  0029c	33 cd		 xor	 ecx, ebp
  0029e	e8 00 00 00 00	 call	 @__security_check_cookie@4
  002a3	8b e5		 mov	 esp, ebp
  002a5	5d		 pop	 ebp
  002a6	c2 08 00	 ret	 8
$LN17@UserAddedB:

; 651  : 			return;
; 652  : 		}
; 653  : 		lpUser->Money -= this->BuyCost;

  002a9	2b c1		 sub	 eax, ecx

; 654  : 		GCMoneySend(aIndex,lpUser->Money);

  002ab	50		 push	 eax
  002ac	53		 push	 ebx
  002ad	89 86 f0 00 00
	00		 mov	 DWORD PTR [esi+240], eax
  002b3	e8 00 00 00 00	 call	 ?GCMoneySend@@YAXHK@Z	; GCMoneySend
  002b8	83 c4 08	 add	 esp, 8
  002bb	e9 6c 01 00 00	 jmp	 $LN6@UserAddedB
$LN18@UserAddedB:

; 655  : 	}
; 656  : 	else if(this->BuyType == 2)	//WcoinC

  002c0	83 f8 02	 cmp	 eax, 2
  002c3	75 56		 jne	 SHORT $LN15@UserAddedB

; 657  : 	{
; 658  : 		if(lpUser->GameShop.WCoinC < this->BuyCost)

  002c5	8b 49 20	 mov	 ecx, DWORD PTR [ecx+32]
  002c8	89 4d ec	 mov	 DWORD PTR tv408[ebp], ecx
  002cb	db 45 ec	 fild	 DWORD PTR tv408[ebp]
  002ce	dc 96 00 23 00
	00		 fcom	 QWORD PTR [esi+8960]
  002d4	df e0		 fnstsw	 ax
  002d6	f6 c4 41	 test	 ah, 65			; 00000041H
  002d9	75 24		 jne	 SHORT $LN14@UserAddedB

; 659  : 		{
; 660  : 			MsgNormal(aIndex,"[Brotherhood]: Need %d WCoinC",this->BuyCost);

  002db	51		 push	 ecx
  002dc	dd d8		 fstp	 ST(0)
  002de	68 00 00 00 00	 push	 OFFSET ??_C@_0BO@DEEADCDK@?$FLBrotherhood?$FN?3?5Need?5?$CFd?5WCoinC?$AA@
  002e3	53		 push	 ebx
  002e4	e8 00 00 00 00	 call	 ?MsgNormal@@YAXHPADZZ	; MsgNormal
  002e9	83 c4 0c	 add	 esp, 12			; 0000000cH
  002ec	5f		 pop	 edi
  002ed	5e		 pop	 esi
  002ee	5b		 pop	 ebx

; 714  : #ifndef FIX_DS_CRASH
; 715  : 			GJSetCharacterInfo(LpBrother, number, 0);
; 716  : #endif
; 717  : 		}
; 718  : 	}
; 719  : 	// Done
; 720  : #else
; 721  : 			strncpy(gObj[aIndex].Brotherhood,szBrName,10);
; 722  : 			//ZtFireCracker(aIndex, LpBrother->X, LpBrother->Y);
; 723  : 			MessageChat(aIndex,"~[Brotherhood]: Create: %s",szBrName);
; 724  : #ifndef FIX_DS_CRASH
; 725  : 			GJSetCharacterInfo(&gObj[aIndex], aIndex, 0);
; 726  : #endif
; 727  : #endif
; 728  : }

  002ef	8b 4d fc	 mov	 ecx, DWORD PTR __$ArrayPad$[ebp]
  002f2	33 cd		 xor	 ecx, ebp
  002f4	e8 00 00 00 00	 call	 @__security_check_cookie@4
  002f9	8b e5		 mov	 esp, ebp
  002fb	5d		 pop	 ebp
  002fc	c2 08 00	 ret	 8
$LN14@UserAddedB:

; 661  : 			return;
; 662  : 		}
; 663  : 		lpUser->GameShop.WCoinC -= this->BuyCost;

  002ff	dc ae 00 23 00
	00		 fsubr	 QWORD PTR [esi+8960]

; 664  : 		gGameShop.GDSaveUserInfo(aIndex);

  00305	53		 push	 ebx
  00306	b9 00 00 00 00	 mov	 ecx, OFFSET ?gGameShop@@3VGameShop@@A ; gGameShop
  0030b	dd 9e 00 23 00
	00		 fstp	 QWORD PTR [esi+8960]
  00311	e8 00 00 00 00	 call	 ?GDSaveUserInfo@GameShop@@QAEXH@Z ; GameShop::GDSaveUserInfo

; 665  : 		ZtUserDataSend(aIndex);

  00316	e9 08 01 00 00	 jmp	 $LN69@UserAddedB
$LN15@UserAddedB:

; 666  : 	}
; 667  : 	else if(this->BuyType == 3)	//WcoinP

  0031b	83 f8 03	 cmp	 eax, 3
  0031e	75 56		 jne	 SHORT $LN12@UserAddedB

; 668  : 	{
; 669  : 		if(lpUser->GameShop.WCoinP < this->BuyCost)

  00320	8b 49 20	 mov	 ecx, DWORD PTR [ecx+32]
  00323	89 4d ec	 mov	 DWORD PTR tv408[ebp], ecx
  00326	db 45 ec	 fild	 DWORD PTR tv408[ebp]
  00329	dc 96 f8 22 00
	00		 fcom	 QWORD PTR [esi+8952]
  0032f	df e0		 fnstsw	 ax
  00331	f6 c4 41	 test	 ah, 65			; 00000041H
  00334	75 24		 jne	 SHORT $LN11@UserAddedB

; 670  : 		{
; 671  : 			MsgNormal(aIndex,"[Brotherhood]: Need %d WCoinP",this->BuyCost);

  00336	51		 push	 ecx
  00337	dd d8		 fstp	 ST(0)
  00339	68 00 00 00 00	 push	 OFFSET ??_C@_0BO@FFKPHDKI@?$FLBrotherhood?$FN?3?5Need?5?$CFd?5WCoinP?$AA@
  0033e	53		 push	 ebx
  0033f	e8 00 00 00 00	 call	 ?MsgNormal@@YAXHPADZZ	; MsgNormal
  00344	83 c4 0c	 add	 esp, 12			; 0000000cH
  00347	5f		 pop	 edi
  00348	5e		 pop	 esi
  00349	5b		 pop	 ebx

; 714  : #ifndef FIX_DS_CRASH
; 715  : 			GJSetCharacterInfo(LpBrother, number, 0);
; 716  : #endif
; 717  : 		}
; 718  : 	}
; 719  : 	// Done
; 720  : #else
; 721  : 			strncpy(gObj[aIndex].Brotherhood,szBrName,10);
; 722  : 			//ZtFireCracker(aIndex, LpBrother->X, LpBrother->Y);
; 723  : 			MessageChat(aIndex,"~[Brotherhood]: Create: %s",szBrName);
; 724  : #ifndef FIX_DS_CRASH
; 725  : 			GJSetCharacterInfo(&gObj[aIndex], aIndex, 0);
; 726  : #endif
; 727  : #endif
; 728  : }

  0034a	8b 4d fc	 mov	 ecx, DWORD PTR __$ArrayPad$[ebp]
  0034d	33 cd		 xor	 ecx, ebp
  0034f	e8 00 00 00 00	 call	 @__security_check_cookie@4
  00354	8b e5		 mov	 esp, ebp
  00356	5d		 pop	 ebp
  00357	c2 08 00	 ret	 8
$LN11@UserAddedB:

; 672  : 			return;
; 673  : 		}
; 674  : 		lpUser->GameShop.WCoinP -= this->BuyCost;

  0035a	dc ae f8 22 00
	00		 fsubr	 QWORD PTR [esi+8952]

; 675  : 		gGameShop.GDSaveUserInfo(aIndex);

  00360	53		 push	 ebx
  00361	b9 00 00 00 00	 mov	 ecx, OFFSET ?gGameShop@@3VGameShop@@A ; gGameShop
  00366	dd 9e f8 22 00
	00		 fstp	 QWORD PTR [esi+8952]
  0036c	e8 00 00 00 00	 call	 ?GDSaveUserInfo@GameShop@@QAEXH@Z ; GameShop::GDSaveUserInfo

; 676  : 		ZtUserDataSend(aIndex);

  00371	e9 ad 00 00 00	 jmp	 $LN69@UserAddedB
$LN12@UserAddedB:

; 677  : 	}
; 678  : 	else if(this->BuyType == 4)	//Goblin

  00376	83 f8 04	 cmp	 eax, 4
  00379	75 53		 jne	 SHORT $LN9@UserAddedB

; 679  : 	{
; 680  : 		if(lpUser->GameShop.GoblinPoint < this->BuyCost)

  0037b	8b 49 20	 mov	 ecx, DWORD PTR [ecx+32]
  0037e	89 4d ec	 mov	 DWORD PTR tv408[ebp], ecx
  00381	db 45 ec	 fild	 DWORD PTR tv408[ebp]
  00384	dc 96 08 23 00
	00		 fcom	 QWORD PTR [esi+8968]
  0038a	df e0		 fnstsw	 ax
  0038c	f6 c4 41	 test	 ah, 65			; 00000041H
  0038f	75 24		 jne	 SHORT $LN8@UserAddedB

; 681  : 		{
; 682  : 			MsgNormal(aIndex,"[Brotherhood]: Need %d Goblin",this->BuyCost);

  00391	51		 push	 ecx
  00392	dd d8		 fstp	 ST(0)
  00394	68 00 00 00 00	 push	 OFFSET ??_C@_0BO@MJNLBDFA@?$FLBrotherhood?$FN?3?5Need?5?$CFd?5Goblin?$AA@
  00399	53		 push	 ebx
  0039a	e8 00 00 00 00	 call	 ?MsgNormal@@YAXHPADZZ	; MsgNormal
  0039f	83 c4 0c	 add	 esp, 12			; 0000000cH
  003a2	5f		 pop	 edi
  003a3	5e		 pop	 esi
  003a4	5b		 pop	 ebx

; 714  : #ifndef FIX_DS_CRASH
; 715  : 			GJSetCharacterInfo(LpBrother, number, 0);
; 716  : #endif
; 717  : 		}
; 718  : 	}
; 719  : 	// Done
; 720  : #else
; 721  : 			strncpy(gObj[aIndex].Brotherhood,szBrName,10);
; 722  : 			//ZtFireCracker(aIndex, LpBrother->X, LpBrother->Y);
; 723  : 			MessageChat(aIndex,"~[Brotherhood]: Create: %s",szBrName);
; 724  : #ifndef FIX_DS_CRASH
; 725  : 			GJSetCharacterInfo(&gObj[aIndex], aIndex, 0);
; 726  : #endif
; 727  : #endif
; 728  : }

  003a5	8b 4d fc	 mov	 ecx, DWORD PTR __$ArrayPad$[ebp]
  003a8	33 cd		 xor	 ecx, ebp
  003aa	e8 00 00 00 00	 call	 @__security_check_cookie@4
  003af	8b e5		 mov	 esp, ebp
  003b1	5d		 pop	 ebp
  003b2	c2 08 00	 ret	 8
$LN8@UserAddedB:

; 683  : 			return;
; 684  : 		}
; 685  : 		lpUser->GameShop.GoblinPoint -= this->BuyCost;

  003b5	dc ae 08 23 00
	00		 fsubr	 QWORD PTR [esi+8968]

; 686  : 		gGameShop.GDSaveUserInfo(aIndex);

  003bb	53		 push	 ebx
  003bc	b9 00 00 00 00	 mov	 ecx, OFFSET ?gGameShop@@3VGameShop@@A ; gGameShop
  003c1	dd 9e 08 23 00
	00		 fstp	 QWORD PTR [esi+8968]
  003c7	e8 00 00 00 00	 call	 ?GDSaveUserInfo@GameShop@@QAEXH@Z ; GameShop::GDSaveUserInfo

; 687  : 		ZtUserDataSend(aIndex);

  003cc	eb 55		 jmp	 SHORT $LN69@UserAddedB
$LN9@UserAddedB:

; 688  : 	}
; 689  : 	else if(this->BuyType == 5)	//Credits

  003ce	83 f8 05	 cmp	 eax, 5
  003d1	75 59		 jne	 SHORT $LN6@UserAddedB

; 690  : 	{
; 691  : 		if(lpUser->ZtCred < this->BuyCost)

  003d3	8b 49 20	 mov	 ecx, DWORD PTR [ecx+32]
  003d6	89 4d ec	 mov	 DWORD PTR tv408[ebp], ecx
  003d9	db 45 ec	 fild	 DWORD PTR tv408[ebp]
  003dc	d9 5d e8	 fstp	 DWORD PTR tv435[ebp]
  003df	d9 86 a8 22 00
	00		 fld	 DWORD PTR [esi+8872]
  003e5	d9 45 e8	 fld	 DWORD PTR tv435[ebp]
  003e8	d8 d1		 fcom	 ST(1)
  003ea	df e0		 fnstsw	 ax
  003ec	dd d9		 fstp	 ST(1)
  003ee	f6 c4 41	 test	 ah, 65			; 00000041H
  003f1	75 24		 jne	 SHORT $LN5@UserAddedB

; 692  : 		{
; 693  : 			MsgNormal(aIndex,"[Brotherhood]: Need %d Credit",this->BuyCost);

  003f3	51		 push	 ecx
  003f4	dd d8		 fstp	 ST(0)
  003f6	68 00 00 00 00	 push	 OFFSET ??_C@_0BO@EFGFCICC@?$FLBrotherhood?$FN?3?5Need?5?$CFd?5Credit?$AA@
  003fb	53		 push	 ebx
  003fc	e8 00 00 00 00	 call	 ?MsgNormal@@YAXHPADZZ	; MsgNormal
  00401	83 c4 0c	 add	 esp, 12			; 0000000cH
  00404	5f		 pop	 edi
  00405	5e		 pop	 esi
  00406	5b		 pop	 ebx

; 714  : #ifndef FIX_DS_CRASH
; 715  : 			GJSetCharacterInfo(LpBrother, number, 0);
; 716  : #endif
; 717  : 		}
; 718  : 	}
; 719  : 	// Done
; 720  : #else
; 721  : 			strncpy(gObj[aIndex].Brotherhood,szBrName,10);
; 722  : 			//ZtFireCracker(aIndex, LpBrother->X, LpBrother->Y);
; 723  : 			MessageChat(aIndex,"~[Brotherhood]: Create: %s",szBrName);
; 724  : #ifndef FIX_DS_CRASH
; 725  : 			GJSetCharacterInfo(&gObj[aIndex], aIndex, 0);
; 726  : #endif
; 727  : #endif
; 728  : }

  00407	8b 4d fc	 mov	 ecx, DWORD PTR __$ArrayPad$[ebp]
  0040a	33 cd		 xor	 ecx, ebp
  0040c	e8 00 00 00 00	 call	 @__security_check_cookie@4
  00411	8b e5		 mov	 esp, ebp
  00413	5d		 pop	 ebp
  00414	c2 08 00	 ret	 8
$LN5@UserAddedB:

; 694  : 			return;
; 695  : 		}
; 696  : 		lpUser->ZtCred -= this->BuyCost;

  00417	d8 ae a8 22 00
	00		 fsubr	 DWORD PTR [esi+8872]
  0041d	d9 9e a8 22 00
	00		 fstp	 DWORD PTR [esi+8872]
$LN69@UserAddedB:

; 697  : 		ZtUserDataSend(aIndex);

  00423	53		 push	 ebx
  00424	e8 00 00 00 00	 call	 ?ZtUserDataSend@@YAXH@Z	; ZtUserDataSend
  00429	83 c4 04	 add	 esp, 4
$LN6@UserAddedB:

; 698  : 	}
; 699  : 
; 700  : #if _NEW_PARTY_SYSTEM_ == TRUE
; 701  : 	for(int i=0; i< g_MaxPartyMember; i++)

  0042c	33 db		 xor	 ebx, ebx
  0042e	39 1d 00 00 00
	00		 cmp	 DWORD PTR ?g_MaxPartyMember@@3HA, ebx ; g_MaxPartyMember
  00434	7e 6e		 jle	 SHORT $LN55@UserAddedB
  00436	8b 45 e4	 mov	 eax, DWORD PTR _partynum$[ebp]
  00439	6b c0 68	 imul	 eax, 104		; 00000068H
  0043c	05 0c 00 00 00	 add	 eax, OFFSET ?gParty@@3VPartyClass@@A+12
  00441	89 45 e8	 mov	 DWORD PTR tv539[ebp], eax
$LL54@UserAddedB:

; 702  : #else
; 703  : 	for(int i=0; i < MAX_USER_IN_PARTY; i++)
; 704  : #endif
; 705  : 	{
; 706  : 		number = gParty.m_PartyS[partynum].Number[i];

  00444	8b 38		 mov	 edi, DWORD PTR [eax]

; 707  : 
; 708  : 		if(number >= 0)

  00446	85 ff		 test	 edi, edi
  00448	78 48		 js	 SHORT $LN3@UserAddedB

; 709  : 		{
; 710  : 			LPOBJ LpBrother = &gObj[number];

  0044a	8b f7		 mov	 esi, edi
  0044c	69 f6 50 2b 00
	00		 imul	 esi, 11088		; 00002b50H
  00452	03 35 00 00 00
	00		 add	 esi, DWORD PTR ?gObj@@3PAUOBJECTSTRUCT@@A ; gObj

; 711  : 			strncpy(LpBrother->Brotherhood,szBrName,10);

  00458	6a 0a		 push	 10			; 0000000aH
  0045a	8d 55 f0	 lea	 edx, DWORD PTR _szBrName$[ebp]
  0045d	52		 push	 edx
  0045e	8d 86 6d 28 00
	00		 lea	 eax, DWORD PTR [esi+10349]
  00464	50		 push	 eax
  00465	e8 00 00 00 00	 call	 _strncpy

; 712  : 			ZtFireCracker(number, LpBrother->X, LpBrother->Y);

  0046a	0f b6 8e 46 01
	00 00		 movzx	 ecx, BYTE PTR [esi+326]
  00471	0f b6 96 44 01
	00 00		 movzx	 edx, BYTE PTR [esi+324]
  00478	51		 push	 ecx
  00479	52		 push	 edx
  0047a	57		 push	 edi
  0047b	e8 00 00 00 00	 call	 ?ZtFireCracker@@YAXHEE@Z ; ZtFireCracker

; 713  : 			MessageChat(number,"~[Brotherhood]: Create: %s",szBrName);

  00480	8d 45 f0	 lea	 eax, DWORD PTR _szBrName$[ebp]
  00483	50		 push	 eax
  00484	68 00 00 00 00	 push	 OFFSET ??_C@_0BL@MGHIGAKM@?$HO?$FLBrotherhood?$FN?3?5Create?3?5?$CFs?$AA@
  00489	57		 push	 edi
  0048a	e8 00 00 00 00	 call	 ?MessageChat@@YAXHPADZZ	; MessageChat
  0048f	83 c4 24	 add	 esp, 36			; 00000024H
$LN3@UserAddedB:

; 698  : 	}
; 699  : 
; 700  : #if _NEW_PARTY_SYSTEM_ == TRUE
; 701  : 	for(int i=0; i< g_MaxPartyMember; i++)

  00492	8b 45 e8	 mov	 eax, DWORD PTR tv539[ebp]
  00495	43		 inc	 ebx
  00496	83 c0 04	 add	 eax, 4
  00499	89 45 e8	 mov	 DWORD PTR tv539[ebp], eax
  0049c	3b 1d 00 00 00
	00		 cmp	 ebx, DWORD PTR ?g_MaxPartyMember@@3HA ; g_MaxPartyMember
  004a2	7c a0		 jl	 SHORT $LL54@UserAddedB
$LN55@UserAddedB:
  004a4	5f		 pop	 edi
  004a5	5e		 pop	 esi
$LN2@UserAddedB:

; 714  : #ifndef FIX_DS_CRASH
; 715  : 			GJSetCharacterInfo(LpBrother, number, 0);
; 716  : #endif
; 717  : 		}
; 718  : 	}
; 719  : 	// Done
; 720  : #else
; 721  : 			strncpy(gObj[aIndex].Brotherhood,szBrName,10);
; 722  : 			//ZtFireCracker(aIndex, LpBrother->X, LpBrother->Y);
; 723  : 			MessageChat(aIndex,"~[Brotherhood]: Create: %s",szBrName);
; 724  : #ifndef FIX_DS_CRASH
; 725  : 			GJSetCharacterInfo(&gObj[aIndex], aIndex, 0);
; 726  : #endif
; 727  : #endif
; 728  : }

  004a6	8b 4d fc	 mov	 ecx, DWORD PTR __$ArrayPad$[ebp]
  004a9	33 cd		 xor	 ecx, ebp
  004ab	5b		 pop	 ebx
  004ac	e8 00 00 00 00	 call	 @__security_check_cookie@4
  004b1	8b e5		 mov	 esp, ebp
  004b3	5d		 pop	 ebp
  004b4	c2 08 00	 ret	 8
?UserAddedBrother@Brotherhood@@QAEXHPAD@Z ENDP		; Brotherhood::UserAddedBrother
_TEXT	ENDS
PUBLIC	??_C@_0BF@INKEAOIF@?$HO?$FLBrotherhood?$FN?3?5Exit?$AA@ ; `string'
PUBLIC	?UserExitBrother@Brotherhood@@QAEXH@Z		; Brotherhood::UserExitBrother
;	COMDAT ??_C@_0BF@INKEAOIF@?$HO?$FLBrotherhood?$FN?3?5Exit?$AA@
CONST	SEGMENT
??_C@_0BF@INKEAOIF@?$HO?$FLBrotherhood?$FN?3?5Exit?$AA@ DB '~[Brotherhood'
	DB	']: Exit', 00H				; `string'
; Function compile flags: /Ogtp
CONST	ENDS
;	COMDAT ?UserExitBrother@Brotherhood@@QAEXH@Z
_TEXT	SEGMENT
_aIndex$ = 8						; size = 4
?UserExitBrother@Brotherhood@@QAEXH@Z PROC		; Brotherhood::UserExitBrother, COMDAT
; _this$ = ecx

; 731  : {

  00000	55		 push	 ebp
  00001	8b ec		 mov	 ebp, esp

; 732  : 	if(!this->Enable)

  00003	80 39 00	 cmp	 BYTE PTR [ecx], 0
  00006	0f 84 95 00 00
	00		 je	 $LN1@UserExitBr

; 733  : 	{
; 734  : 		return;
; 735  : 	}
; 736  : 
; 737  : 	if ( OBJMAX_RANGE(aIndex) == FALSE )

  0000c	57		 push	 edi
  0000d	8b 7d 08	 mov	 edi, DWORD PTR _aIndex$[ebp]
  00010	85 ff		 test	 edi, edi
  00012	78 0f		 js	 SHORT $LN9@UserExitBr
  00014	33 c0		 xor	 eax, eax
  00016	81 ff 97 3a 00
	00		 cmp	 edi, 14999		; 00003a97H
  0001c	0f 9e c0	 setle	 al
  0001f	85 c0		 test	 eax, eax
  00021	75 1d		 jne	 SHORT $LN3@UserExitBr
$LN9@UserExitBr:

; 738  : 	{
; 739  : 		LogAdd("error : %s %d", __FILE__, __LINE__ );

  00023	68 e3 02 00 00	 push	 739			; 000002e3H
  00028	68 00 00 00 00	 push	 OFFSET ??_C@_0BA@GFGCGMCP@Brotherhood?4cpp?$AA@
  0002d	68 00 00 00 00	 push	 OFFSET ??_C@_0O@CKAEPJAF@error?5?3?5?$CFs?5?$CFd?$AA@
  00032	ff 15 00 00 00
	00		 call	 DWORD PTR ?LogAdd@@3P6AXPADZZA ; LogAdd
  00038	83 c4 0c	 add	 esp, 12			; 0000000cH
  0003b	5f		 pop	 edi

; 757  : 		return;
; 758  : 	}
; 759  : }

  0003c	5d		 pop	 ebp
  0003d	c2 04 00	 ret	 4
$LN3@UserExitBr:

; 740  : 		return;
; 741  : 	}
; 742  : 
; 743  : 	LPOBJ lpUser = &gObj[aIndex];

  00040	8b c7		 mov	 eax, edi
  00042	69 c0 50 2b 00
	00		 imul	 eax, 11088		; 00002b50H
  00048	03 05 00 00 00
	00		 add	 eax, DWORD PTR ?gObj@@3PAUOBJECTSTRUCT@@A ; gObj

; 744  : 
; 745  : 	if(lpUser->Connected < PLAYER_PLAYING)

  0004e	83 78 04 03	 cmp	 DWORD PTR [eax+4], 3
  00052	7c 4c		 jl	 SHORT $LN14@UserExitBr

; 746  : 	{
; 747  : 		return;
; 748  : 	}
; 749  : 
; 750  : 	if(strcmp(lpUser->Brotherhood,"One"))

  00054	56		 push	 esi
  00055	8d b0 6d 28 00
	00		 lea	 esi, DWORD PTR [eax+10349]
  0005b	b9 00 00 00 00	 mov	 ecx, OFFSET ??_C@_03EHAPBBEA@One?$AA@
  00060	8b c6		 mov	 eax, esi
$LL10@UserExitBr:
  00062	8a 10		 mov	 dl, BYTE PTR [eax]
  00064	3a 11		 cmp	 dl, BYTE PTR [ecx]
  00066	75 1a		 jne	 SHORT $LN11@UserExitBr
  00068	84 d2		 test	 dl, dl
  0006a	74 12		 je	 SHORT $LN12@UserExitBr
  0006c	8a 50 01	 mov	 dl, BYTE PTR [eax+1]
  0006f	3a 51 01	 cmp	 dl, BYTE PTR [ecx+1]
  00072	75 0e		 jne	 SHORT $LN11@UserExitBr
  00074	83 c0 02	 add	 eax, 2
  00077	83 c1 02	 add	 ecx, 2
  0007a	84 d2		 test	 dl, dl
  0007c	75 e4		 jne	 SHORT $LL10@UserExitBr
$LN12@UserExitBr:
  0007e	33 c0		 xor	 eax, eax
  00080	eb 05		 jmp	 SHORT $LN13@UserExitBr
$LN11@UserExitBr:
  00082	1b c0		 sbb	 eax, eax
  00084	83 d8 ff	 sbb	 eax, -1
$LN13@UserExitBr:
  00087	85 c0		 test	 eax, eax
  00089	74 14		 je	 SHORT $LN15@UserExitBr

; 751  : 	{
; 752  : 		strcpy(lpUser->Brotherhood,"One");
; 753  : #ifndef FIX_DS_CRASH
; 754  : 		GJSetCharacterInfo(lpUser, aIndex, 0);
; 755  : #endif
; 756  : 		MessageChat(aIndex,"~[Brotherhood]: Exit");

  0008b	68 00 00 00 00	 push	 OFFSET ??_C@_0BF@INKEAOIF@?$HO?$FLBrotherhood?$FN?3?5Exit?$AA@
  00090	57		 push	 edi
  00091	c7 06 4f 6e 65
	00		 mov	 DWORD PTR [esi], 6647375 ; 00656e4fH
  00097	e8 00 00 00 00	 call	 ?MessageChat@@YAXHPADZZ	; MessageChat
  0009c	83 c4 08	 add	 esp, 8
$LN15@UserExitBr:
  0009f	5e		 pop	 esi
$LN14@UserExitBr:
  000a0	5f		 pop	 edi
$LN1@UserExitBr:

; 757  : 		return;
; 758  : 	}
; 759  : }

  000a1	5d		 pop	 ebp
  000a2	c2 04 00	 ret	 4
?UserExitBrother@Brotherhood@@QAEXH@Z ENDP		; Brotherhood::UserExitBrother
_TEXT	ENDS
PUBLIC	?TickTime@Brotherhood@@QAEXH@Z			; Brotherhood::TickTime
EXTRN	?gObjRemoveBuffEffect@@YAEPAUOBJECTSTRUCT@@H@Z:PROC ; gObjRemoveBuffEffect
EXTRN	?gObjApplyBuffEffectDuration@@YAEPAUOBJECTSTRUCT@@HEHEHH@Z:PROC ; gObjApplyBuffEffectDuration
EXTRN	?gObjSearchActiveEffect@@YAEPAUOBJECTSTRUCT@@H@Z:PROC ; gObjSearchActiveEffect
; Function compile flags: /Ogtp
;	COMDAT ?TickTime@Brotherhood@@QAEXH@Z
_TEXT	SEGMENT
_aIndex$ = 8						; size = 4
?TickTime@Brotherhood@@QAEXH@Z PROC			; Brotherhood::TickTime, COMDAT
; _this$ = ecx

; 763  : {

  00000	55		 push	 ebp
  00001	8b ec		 mov	 ebp, esp

; 764  : 
; 765  : 	if(!this->Enable)

  00003	80 39 00	 cmp	 BYTE PTR [ecx], 0
  00006	0f 84 9d 00 00
	00		 je	 $LN1@TickTime

; 766  : 	{
; 767  : 		return;
; 768  : 	}
; 769  : 
; 770  : 	if ( OBJMAX_RANGE(aIndex) == FALSE )

  0000c	56		 push	 esi
  0000d	8b 75 08	 mov	 esi, DWORD PTR _aIndex$[ebp]
  00010	85 f6		 test	 esi, esi
  00012	78 0f		 js	 SHORT $LN12@TickTime
  00014	33 c0		 xor	 eax, eax
  00016	81 fe 97 3a 00
	00		 cmp	 esi, 14999		; 00003a97H
  0001c	0f 9e c0	 setle	 al
  0001f	85 c0		 test	 eax, eax
  00021	75 1d		 jne	 SHORT $LN6@TickTime
$LN12@TickTime:

; 771  : 	{
; 772  : 		LogAdd("error : %s %d", __FILE__, __LINE__ );

  00023	68 04 03 00 00	 push	 772			; 00000304H
  00028	68 00 00 00 00	 push	 OFFSET ??_C@_0BA@GFGCGMCP@Brotherhood?4cpp?$AA@
  0002d	68 00 00 00 00	 push	 OFFSET ??_C@_0O@CKAEPJAF@error?5?3?5?$CFs?5?$CFd?$AA@
  00032	ff 15 00 00 00
	00		 call	 DWORD PTR ?LogAdd@@3P6AXPADZZA ; LogAdd
  00038	83 c4 0c	 add	 esp, 12			; 0000000cH
  0003b	5e		 pop	 esi

; 795  : 		}
; 796  : 	}
; 797  : }

  0003c	5d		 pop	 ebp
  0003d	c2 04 00	 ret	 4
$LN6@TickTime:

; 773  : 		return;
; 774  : 	}
; 775  : 
; 776  : 	LPOBJ lpUser = &gObj[aIndex];

  00040	69 f6 50 2b 00
	00		 imul	 esi, 11088		; 00002b50H
  00046	03 35 00 00 00
	00		 add	 esi, DWORD PTR ?gObj@@3PAUOBJECTSTRUCT@@A ; gObj

; 777  : 
; 778  : 	if(lpUser->Connected < PLAYER_PLAYING)

  0004c	83 7e 04 03	 cmp	 DWORD PTR [esi+4], 3
  00050	7c 56		 jl	 SHORT $LN13@TickTime

; 779  : 	{
; 780  : 		return;
; 781  : 	}
; 782  : 
; 783  : 	if(ActiveBrother(lpUser))

  00052	56		 push	 esi
  00053	e8 00 00 00 00	 call	 ?ActiveBrother@Brotherhood@@QAE_NPAUOBJECTSTRUCT@@@Z ; Brotherhood::ActiveBrother

; 784  : 	{
; 785  : 		if(gObjSearchActiveEffect(lpUser, AT_BT_BROTHERHOOD_BUFF) == FALSE )

  00058	68 ae 00 00 00	 push	 174			; 000000aeH
  0005d	56		 push	 esi
  0005e	84 c0		 test	 al, al
  00060	74 2c		 je	 SHORT $LN4@TickTime
  00062	e8 00 00 00 00	 call	 ?gObjSearchActiveEffect@@YAEPAUOBJECTSTRUCT@@H@Z ; gObjSearchActiveEffect
  00067	83 c4 08	 add	 esp, 8
  0006a	84 c0		 test	 al, al
  0006c	75 3a		 jne	 SHORT $LN13@TickTime

; 786  : 		{
; 787  : 			gObjApplyBuffEffectDuration(lpUser,AT_BT_BROTHERHOOD_BUFF,0,0,0,0,600);

  0006e	68 58 02 00 00	 push	 600			; 00000258H
  00073	6a 00		 push	 0
  00075	6a 00		 push	 0
  00077	6a 00		 push	 0
  00079	6a 00		 push	 0
  0007b	68 ae 00 00 00	 push	 174			; 000000aeH
  00080	56		 push	 esi
  00081	e8 00 00 00 00	 call	 ?gObjApplyBuffEffectDuration@@YAEPAUOBJECTSTRUCT@@HEHEHH@Z ; gObjApplyBuffEffectDuration
  00086	83 c4 1c	 add	 esp, 28			; 0000001cH
  00089	5e		 pop	 esi

; 795  : 		}
; 796  : 	}
; 797  : }

  0008a	5d		 pop	 ebp
  0008b	c2 04 00	 ret	 4
$LN4@TickTime:

; 788  : 		}
; 789  : 	}
; 790  : 	else
; 791  : 	{
; 792  : 		if(gObjSearchActiveEffect(lpUser, AT_BT_BROTHERHOOD_BUFF) == TRUE )

  0008e	e8 00 00 00 00	 call	 ?gObjSearchActiveEffect@@YAEPAUOBJECTSTRUCT@@H@Z ; gObjSearchActiveEffect
  00093	83 c4 08	 add	 esp, 8
  00096	3c 01		 cmp	 al, 1
  00098	75 0e		 jne	 SHORT $LN13@TickTime

; 793  : 		{
; 794  : 			gObjRemoveBuffEffect(lpUser,AT_BT_BROTHERHOOD_BUFF);

  0009a	68 ae 00 00 00	 push	 174			; 000000aeH
  0009f	56		 push	 esi
  000a0	e8 00 00 00 00	 call	 ?gObjRemoveBuffEffect@@YAEPAUOBJECTSTRUCT@@H@Z ; gObjRemoveBuffEffect
  000a5	83 c4 08	 add	 esp, 8
$LN13@TickTime:
  000a8	5e		 pop	 esi
$LN1@TickTime:

; 795  : 		}
; 796  : 	}
; 797  : }

  000a9	5d		 pop	 ebp
  000aa	c2 04 00	 ret	 4
?TickTime@Brotherhood@@QAEXH@Z ENDP			; Brotherhood::TickTime
_TEXT	ENDS
PUBLIC	??_C@_0CG@OFBBBAIA@?$FLBrotherhood?$FN?5create?5brother?5?1br@ ; `string'
PUBLIC	__$ArrayPad$
PUBLIC	?NewAddBrother@Brotherhood@@QAE_NHH@Z		; Brotherhood::NewAddBrother
EXTRN	?Send@DBSockMng@@QAEHPADH@Z:PROC		; DBSockMng::Send
EXTRN	?cDBSMng@@3VDBSockMng@@A:BYTE			; cDBSMng
;	COMDAT ??_C@_0CG@OFBBBAIA@?$FLBrotherhood?$FN?5create?5brother?5?1br@
CONST	SEGMENT
??_C@_0CG@OFBBBAIA@?$FLBrotherhood?$FN?5create?5brother?5?1br@ DB '[Broth'
	DB	'erhood] create brother /brstart', 00H	; `string'
; Function compile flags: /Ogtp
CONST	ENDS
;	COMDAT ?NewAddBrother@Brotherhood@@QAE_NHH@Z
_TEXT	SEGMENT
tv174 = -32						; size = 4
_Send$ = -28						; size = 24
__$ArrayPad$ = -4					; size = 4
_aIndex$ = 8						; size = 4
_TargetIndex$ = 12					; size = 4
?NewAddBrother@Brotherhood@@QAE_NHH@Z PROC		; Brotherhood::NewAddBrother, COMDAT
; _this$ = ecx

; 800  : {

  00000	55		 push	 ebp
  00001	8b ec		 mov	 ebp, esp
  00003	83 ec 20	 sub	 esp, 32			; 00000020H
  00006	a1 00 00 00 00	 mov	 eax, DWORD PTR ___security_cookie
  0000b	33 c5		 xor	 eax, ebp
  0000d	89 45 fc	 mov	 DWORD PTR __$ArrayPad$[ebp], eax

; 801  : 
; 802  : 	if(!this->Enable)

  00010	80 39 00	 cmp	 BYTE PTR [ecx], 0
  00013	53		 push	 ebx
  00014	8b 5d 08	 mov	 ebx, DWORD PTR _aIndex$[ebp]

; 803  : 	{
; 804  : 		return false;

  00017	74 2b		 je	 SHORT $LN20@NewAddBrot

; 805  : 	}
; 806  : 
; 807  : 	if ( OBJMAX_RANGE(aIndex) == FALSE )

  00019	85 db		 test	 ebx, ebx
  0001b	78 0f		 js	 SHORT $LN12@NewAddBrot
  0001d	33 c0		 xor	 eax, eax
  0001f	81 fb 97 3a 00
	00		 cmp	 ebx, 14999		; 00003a97H
  00025	0f 9e c0	 setle	 al
  00028	85 c0		 test	 eax, eax
  0002a	75 2b		 jne	 SHORT $LN6@NewAddBrot
$LN12@NewAddBrot:

; 808  : 	{
; 809  : 		LogAdd("error : %s %d", __FILE__, __LINE__ );

  0002c	68 29 03 00 00	 push	 809			; 00000329H
  00031	68 00 00 00 00	 push	 OFFSET ??_C@_0BA@GFGCGMCP@Brotherhood?4cpp?$AA@
  00036	68 00 00 00 00	 push	 OFFSET ??_C@_0O@CKAEPJAF@error?5?3?5?$CFs?5?$CFd?$AA@
  0003b	ff 15 00 00 00
	00		 call	 DWORD PTR ?LogAdd@@3P6AXPADZZA ; LogAdd
  00041	83 c4 0c	 add	 esp, 12			; 0000000cH
$LN20@NewAddBrot:

; 810  : 		return false;

  00044	32 c0		 xor	 al, al
  00046	5b		 pop	 ebx

; 866  : 
; 867  : }

  00047	8b 4d fc	 mov	 ecx, DWORD PTR __$ArrayPad$[ebp]
  0004a	33 cd		 xor	 ecx, ebp
  0004c	e8 00 00 00 00	 call	 @__security_check_cookie@4
  00051	8b e5		 mov	 esp, ebp
  00053	5d		 pop	 ebp
  00054	c2 08 00	 ret	 8
$LN6@NewAddBrot:

; 811  : 	}
; 812  : 
; 813  : 	LPOBJ lpUser = &gObj[aIndex];

  00057	8b 0d 00 00 00
	00		 mov	 ecx, DWORD PTR ?gObj@@3PAUOBJECTSTRUCT@@A ; gObj
  0005d	8b c3		 mov	 eax, ebx
  0005f	69 c0 50 2b 00
	00		 imul	 eax, 11088		; 00002b50H

; 814  : 
; 815  : 	if(lpUser->Connected < PLAYER_PLAYING)

  00065	83 7c 08 04 03	 cmp	 DWORD PTR [eax+ecx+4], 3
  0006a	56		 push	 esi
  0006b	8d 34 08	 lea	 esi, DWORD PTR [eax+ecx]

; 816  : 	{
; 817  : 		return false;

  0006e	7c 1c		 jl	 SHORT $LN19@NewAddBrot

; 818  : 	}
; 819  : #ifndef BR_DEBUG
; 820  : 	//  ???
; 821  : 	if(lpUser->PartyNumber == -1)

  00070	8b 86 2c 04 00
	00		 mov	 eax, DWORD PTR [esi+1068]
  00076	89 45 e0	 mov	 DWORD PTR tv174[ebp], eax
  00079	83 f8 ff	 cmp	 eax, -1
  0007c	75 22		 jne	 SHORT $LN4@NewAddBrot

; 822  : 	{
; 823  : 		MsgNormal(aIndex,"[Brotherhood] No Party");

  0007e	68 00 00 00 00	 push	 OFFSET ??_C@_0BH@IHBBNOAL@?$FLBrotherhood?$FN?5No?5Party?$AA@
  00083	53		 push	 ebx
  00084	e8 00 00 00 00	 call	 ?MsgNormal@@YAXHPADZZ	; MsgNormal
  00089	83 c4 08	 add	 esp, 8
$LN19@NewAddBrot:

; 824  : 		return false;

  0008c	5e		 pop	 esi
  0008d	32 c0		 xor	 al, al
  0008f	5b		 pop	 ebx

; 866  : 
; 867  : }

  00090	8b 4d fc	 mov	 ecx, DWORD PTR __$ArrayPad$[ebp]
  00093	33 cd		 xor	 ecx, ebp
  00095	e8 00 00 00 00	 call	 @__security_check_cookie@4
  0009a	8b e5		 mov	 esp, ebp
  0009c	5d		 pop	 ebp
  0009d	c2 08 00	 ret	 8
$LN4@NewAddBrot:
  000a0	57		 push	 edi

; 825  : 	}
; 826  : 
; 827  : 	if(!strcmp(lpUser->Brotherhood,"One"))

  000a1	b9 00 00 00 00	 mov	 ecx, OFFSET ??_C@_03EHAPBBEA@One?$AA@
  000a6	8d 86 6d 28 00
	00		 lea	 eax, DWORD PTR [esi+10349]
  000ac	8d 64 24 00	 npad	 4
$LL13@NewAddBrot:
  000b0	8a 10		 mov	 dl, BYTE PTR [eax]
  000b2	3a 11		 cmp	 dl, BYTE PTR [ecx]
  000b4	75 1a		 jne	 SHORT $LN14@NewAddBrot
  000b6	84 d2		 test	 dl, dl
  000b8	74 12		 je	 SHORT $LN15@NewAddBrot
  000ba	8a 50 01	 mov	 dl, BYTE PTR [eax+1]
  000bd	3a 51 01	 cmp	 dl, BYTE PTR [ecx+1]
  000c0	75 0e		 jne	 SHORT $LN14@NewAddBrot
  000c2	83 c0 02	 add	 eax, 2
  000c5	83 c1 02	 add	 ecx, 2
  000c8	84 d2		 test	 dl, dl
  000ca	75 e4		 jne	 SHORT $LL13@NewAddBrot
$LN15@NewAddBrot:
  000cc	33 c0		 xor	 eax, eax
  000ce	eb 05		 jmp	 SHORT $LN16@NewAddBrot
$LN14@NewAddBrot:
  000d0	1b c0		 sbb	 eax, eax
  000d2	83 d8 ff	 sbb	 eax, -1
$LN16@NewAddBrot:
  000d5	85 c0		 test	 eax, eax
  000d7	75 23		 jne	 SHORT $LN3@NewAddBrot

; 828  : 	{
; 829  : 		MsgNormal(aIndex,"[Brotherhood] create brother /brstart");

  000d9	68 00 00 00 00	 push	 OFFSET ??_C@_0CG@OFBBBAIA@?$FLBrotherhood?$FN?5create?5brother?5?1br@
  000de	53		 push	 ebx
  000df	e8 00 00 00 00	 call	 ?MsgNormal@@YAXHPADZZ	; MsgNormal
  000e4	83 c4 08	 add	 esp, 8
  000e7	5f		 pop	 edi
  000e8	5e		 pop	 esi

; 830  : 		return false;

  000e9	32 c0		 xor	 al, al
  000eb	5b		 pop	 ebx

; 866  : 
; 867  : }

  000ec	8b 4d fc	 mov	 ecx, DWORD PTR __$ArrayPad$[ebp]
  000ef	33 cd		 xor	 ecx, ebp
  000f1	e8 00 00 00 00	 call	 @__security_check_cookie@4
  000f6	8b e5		 mov	 esp, ebp
  000f8	5d		 pop	 ebp
  000f9	c2 08 00	 ret	 8
$LN3@NewAddBrot:

; 831  : 	}
; 832  : 
; 833  : 	int number = 0;
; 834  : 	int BrCount = 0;
; 835  : 	int	partynum = lpUser->PartyNumber;
; 836  : 
; 837  : 	if( !gParty.Isleader(gObj[aIndex].PartyNumber, aIndex, gObj[aIndex].DBNumber) )

  000fc	8b 56 2c	 mov	 edx, DWORD PTR [esi+44]
  000ff	8b 86 2c 04 00
	00		 mov	 eax, DWORD PTR [esi+1068]
  00105	52		 push	 edx
  00106	53		 push	 ebx
  00107	50		 push	 eax
  00108	b9 00 00 00 00	 mov	 ecx, OFFSET ?gParty@@3VPartyClass@@A ; gParty
  0010d	e8 00 00 00 00	 call	 ?Isleader@PartyClass@@QAEHHHH@Z ; PartyClass::Isleader
  00112	85 c0		 test	 eax, eax
  00114	75 23		 jne	 SHORT $LN2@NewAddBrot

; 838  : 	{
; 839  : 		MsgNormal(aIndex,"[Brotherhood] No Party Leader");

  00116	68 00 00 00 00	 push	 OFFSET ??_C@_0BO@GGNKNGLB@?$FLBrotherhood?$FN?5No?5Party?5Leader?$AA@
  0011b	53		 push	 ebx
  0011c	e8 00 00 00 00	 call	 ?MsgNormal@@YAXHPADZZ	; MsgNormal
  00121	83 c4 08	 add	 esp, 8
  00124	5f		 pop	 edi
  00125	5e		 pop	 esi

; 840  : 		return false;

  00126	32 c0		 xor	 al, al
  00128	5b		 pop	 ebx

; 866  : 
; 867  : }

  00129	8b 4d fc	 mov	 ecx, DWORD PTR __$ArrayPad$[ebp]
  0012c	33 cd		 xor	 ecx, ebp
  0012e	e8 00 00 00 00	 call	 @__security_check_cookie@4
  00133	8b e5		 mov	 esp, ebp
  00135	5d		 pop	 ebp
  00136	c2 08 00	 ret	 8
$LN2@NewAddBrot:

; 841  : 	}
; 842  : 
; 843  : 	int PartyUserCount = gParty.GetPartyCount(partynum);

  00139	8b 4d e0	 mov	 ecx, DWORD PTR tv174[ebp]
  0013c	51		 push	 ecx
  0013d	b9 00 00 00 00	 mov	 ecx, OFFSET ?gParty@@3VPartyClass@@A ; gParty
  00142	e8 00 00 00 00	 call	 ?GetPartyCount@PartyClass@@QAEHH@Z ; PartyClass::GetPartyCount

; 844  : 
; 845  : 	if(PartyUserCount > 5)

  00147	83 f8 05	 cmp	 eax, 5
  0014a	7e 23		 jle	 SHORT $LN1@NewAddBrot

; 846  : 	{
; 847  : 		MsgNormal(aIndex,"[Brotherhood] Need Max User 5");

  0014c	68 00 00 00 00	 push	 OFFSET ??_C@_0BO@KLPFKPNJ@?$FLBrotherhood?$FN?5Need?5Max?5User?55?$AA@
  00151	53		 push	 ebx
  00152	e8 00 00 00 00	 call	 ?MsgNormal@@YAXHPADZZ	; MsgNormal
  00157	83 c4 08	 add	 esp, 8
  0015a	5f		 pop	 edi
  0015b	5e		 pop	 esi

; 848  : 		return false;

  0015c	32 c0		 xor	 al, al
  0015e	5b		 pop	 ebx

; 866  : 
; 867  : }

  0015f	8b 4d fc	 mov	 ecx, DWORD PTR __$ArrayPad$[ebp]
  00162	33 cd		 xor	 ecx, ebp
  00164	e8 00 00 00 00	 call	 @__security_check_cookie@4
  00169	8b e5		 mov	 esp, ebp
  0016b	5d		 pop	 ebp
  0016c	c2 08 00	 ret	 8
$LN1@NewAddBrot:

; 849  : 	}
; 850  : 
; 851  : #endif
; 852  : 
; 853  : 	GD_CheckBrother Send;
; 854  : 
; 855  : 	Send.h.c = 0xC1;
; 856  : 	Send.h.headcode = 0xE2;
; 857  : 	Send.h.subcode = 0x04;
; 858  : 	Send.h.size = sizeof(GD_CheckBrother);
; 859  : 	Send.aIndex = aIndex;
; 860  : 	Send.aTargetIndex = TargetIndex;

  0016f	8b 55 0c	 mov	 edx, DWORD PTR _TargetIndex$[ebp]
  00172	c7 45 e4 c1 18
	e2 04		 mov	 DWORD PTR _Send$[ebp], 81926337 ; 04e218c1H
  00179	89 5d e8	 mov	 DWORD PTR _Send$[ebp+4], ebx
  0017c	89 55 ec	 mov	 DWORD PTR _Send$[ebp+8], edx

; 861  : 	//Send
; 862  : 	Send.BrName[MAX_ACCOUNT_LEN] = 0;

  0017f	c6 45 fa 00	 mov	 BYTE PTR _Send$[ebp+22], 0

; 863  : 	memcpy(Send.BrName, lpUser->Brotherhood, sizeof(Send.BrName)-1);

  00183	8b 86 6d 28 00
	00		 mov	 eax, DWORD PTR [esi+10349]
  00189	89 45 f0	 mov	 DWORD PTR _Send$[ebp+12], eax
  0018c	8b 8e 71 28 00
	00		 mov	 ecx, DWORD PTR [esi+10353]
  00192	89 4d f4	 mov	 DWORD PTR _Send$[ebp+16], ecx
  00195	66 8b 96 75 28
	00 00		 mov	 dx, WORD PTR [esi+10357]

; 864  : 
; 865  : 	cDBSMng.Send((char*)&Send, sizeof(GD_CheckBrother));

  0019c	6a 18		 push	 24			; 00000018H
  0019e	8d 45 e4	 lea	 eax, DWORD PTR _Send$[ebp]
  001a1	50		 push	 eax
  001a2	b9 00 00 00 00	 mov	 ecx, OFFSET ?cDBSMng@@3VDBSockMng@@A ; cDBSMng
  001a7	66 89 55 f8	 mov	 WORD PTR _Send$[ebp+20], dx
  001ab	e8 00 00 00 00	 call	 ?Send@DBSockMng@@QAEHPADH@Z ; DBSockMng::Send

; 866  : 
; 867  : }

  001b0	8b 4d fc	 mov	 ecx, DWORD PTR __$ArrayPad$[ebp]
  001b3	5f		 pop	 edi
  001b4	5e		 pop	 esi
  001b5	33 cd		 xor	 ecx, ebp
  001b7	5b		 pop	 ebx
  001b8	e8 00 00 00 00	 call	 @__security_check_cookie@4
  001bd	8b e5		 mov	 esp, ebp
  001bf	5d		 pop	 ebp
  001c0	c2 08 00	 ret	 8
?NewAddBrother@Brotherhood@@QAE_NHH@Z ENDP		; Brotherhood::NewAddBrother
_TEXT	ENDS
PUBLIC	??_C@_0BI@LHBMPGAC@?$HO?$FLBrotherhood?$FN?3?5New?3?5?$CFs?$AA@ ; `string'
PUBLIC	??_C@_0CM@NEOCLGBF@?$FLBrotherhood?$FN?5Need?5Full?5?$CFd?5?1?5?$CFd?5@ ; `string'
PUBLIC	??_C@_0BC@JHEHGABB@?$FLBrotherhood?$FN?55?15?$AA@ ; `string'
PUBLIC	??_C@_0BJ@OOMPCCAM@?$FLBrotherhood?$FN?5No?5Brother?$AA@ ; `string'
PUBLIC	?DG_RecvBrotherCount@Brotherhood@@QAEXPAUDG_CheckBrother@@@Z ; Brotherhood::DG_RecvBrotherCount
;	COMDAT ??_C@_0BI@LHBMPGAC@?$HO?$FLBrotherhood?$FN?3?5New?3?5?$CFs?$AA@
CONST	SEGMENT
??_C@_0BI@LHBMPGAC@?$HO?$FLBrotherhood?$FN?3?5New?3?5?$CFs?$AA@ DB '~[Bro'
	DB	'therhood]: New: %s', 00H			; `string'
CONST	ENDS
;	COMDAT ??_C@_0CM@NEOCLGBF@?$FLBrotherhood?$FN?5Need?5Full?5?$CFd?5?1?5?$CFd?5@
CONST	SEGMENT
??_C@_0CM@NEOCLGBF@?$FLBrotherhood?$FN?5Need?5Full?5?$CFd?5?1?5?$CFd?5@ DB '['
	DB	'Brotherhood] Need Full %d / %d for add new', 00H ; `string'
CONST	ENDS
;	COMDAT ??_C@_0BC@JHEHGABB@?$FLBrotherhood?$FN?55?15?$AA@
CONST	SEGMENT
??_C@_0BC@JHEHGABB@?$FLBrotherhood?$FN?55?15?$AA@ DB '[Brotherhood] 5/5', 00H ; `string'
CONST	ENDS
;	COMDAT ??_C@_0BJ@OOMPCCAM@?$FLBrotherhood?$FN?5No?5Brother?$AA@
CONST	SEGMENT
??_C@_0BJ@OOMPCCAM@?$FLBrotherhood?$FN?5No?5Brother?$AA@ DB '[Brotherhood'
	DB	'] No Brother', 00H				; `string'
; Function compile flags: /Ogtp
CONST	ENDS
;	COMDAT ?DG_RecvBrotherCount@Brotherhood@@QAEXPAUDG_CheckBrother@@@Z
_TEXT	SEGMENT
_lpUser$ = -12						; size = 4
_aIndex$ = -8						; size = 4
tv357 = -4						; size = 4
_Count$ = -4						; size = 4
_i$212692 = 8						; size = 4
_BrCount$ = 8						; size = 4
_Recv$ = 8						; size = 4
?DG_RecvBrotherCount@Brotherhood@@QAEXPAUDG_CheckBrother@@@Z PROC ; Brotherhood::DG_RecvBrotherCount, COMDAT
; _this$ = ecx

; 871  : {

  00000	55		 push	 ebp
  00001	8b ec		 mov	 ebp, esp
  00003	83 ec 0c	 sub	 esp, 12			; 0000000cH

; 872  : 	if(!this->Enable)

  00006	80 39 00	 cmp	 BYTE PTR [ecx], 0
  00009	0f 84 d5 01 00
	00		 je	 $LN2@DG_RecvBro

; 873  : 	{
; 874  : 		return;
; 875  : 	}
; 876  : 
; 877  : 	int aIndex = Recv->aIndex;

  0000f	8b 4d 08	 mov	 ecx, DWORD PTR _Recv$[ebp]
  00012	8b 51 04	 mov	 edx, DWORD PTR [ecx+4]

; 878  : 	int aTragetIndex = Recv->aTargetIndex;

  00015	8b 41 08	 mov	 eax, DWORD PTR [ecx+8]
  00018	56		 push	 esi

; 879  : 	int Count = Recv->Count;

  00019	8b 71 0c	 mov	 esi, DWORD PTR [ecx+12]
  0001c	89 55 f8	 mov	 DWORD PTR _aIndex$[ebp], edx
  0001f	89 75 fc	 mov	 DWORD PTR _Count$[ebp], esi

; 880  : 
; 881  : 	if ( OBJMAX_RANGE(aIndex) == FALSE )

  00022	85 d2		 test	 edx, edx
  00024	78 0f		 js	 SHORT $LN31@DG_RecvBro
  00026	33 c9		 xor	 ecx, ecx
  00028	81 fa 97 3a 00
	00		 cmp	 edx, 14999		; 00003a97H
  0002e	0f 9e c1	 setle	 cl
  00031	85 c9		 test	 ecx, ecx
  00033	75 07		 jne	 SHORT $LN18@DG_RecvBro
$LN31@DG_RecvBro:

; 882  : 	{
; 883  : 		LogAdd("error : %s %d", __FILE__, __LINE__ );

  00035	68 73 03 00 00	 push	 883			; 00000373H

; 884  : 		return;

  0003a	eb 17		 jmp	 SHORT $LN40@DG_RecvBro
$LN18@DG_RecvBro:

; 885  : 	}
; 886  : 
; 887  : 	if ( OBJMAX_RANGE(aTragetIndex) == FALSE )

  0003c	85 c0		 test	 eax, eax
  0003e	78 0e		 js	 SHORT $LN32@DG_RecvBro
  00040	33 c9		 xor	 ecx, ecx
  00042	3d 97 3a 00 00	 cmp	 eax, 14999		; 00003a97H
  00047	0f 9e c1	 setle	 cl
  0004a	85 c9		 test	 ecx, ecx
  0004c	75 1f		 jne	 SHORT $LN17@DG_RecvBro
$LN32@DG_RecvBro:

; 888  : 	{
; 889  : 		LogAdd("error : %s %d", __FILE__, __LINE__ );

  0004e	68 79 03 00 00	 push	 889			; 00000379H
$LN40@DG_RecvBro:
  00053	68 00 00 00 00	 push	 OFFSET ??_C@_0BA@GFGCGMCP@Brotherhood?4cpp?$AA@
  00058	68 00 00 00 00	 push	 OFFSET ??_C@_0O@CKAEPJAF@error?5?3?5?$CFs?5?$CFd?$AA@
  0005d	ff 15 00 00 00
	00		 call	 DWORD PTR ?LogAdd@@3P6AXPADZZA ; LogAdd
  00063	83 c4 0c	 add	 esp, 12			; 0000000cH
  00066	5e		 pop	 esi

; 969  : #ifndef FIX_DS_CRASH
; 970  : 			GJSetCharacterInfo(LpBrother, number, 0);
; 971  : #endif
; 972  : 		}
; 973  : 	}
; 974  : 
; 975  : #else
; 976  : 			strncpy(lpUser->Brotherhood,lpUser->Brotherhood,10);
; 977  : 			ZtFireCracker(aIndex, lpUser->X, lpUser->Y);
; 978  : 			MessageChat(aIndex,"~[Brotherhood]: New: %s",lpUser->Brotherhood);
; 979  : #ifndef FIX_DS_CRASH
; 980  : 			GJSetCharacterInfo(lpUser, aIndex, 0);
; 981  : #endif
; 982  : 
; 983  : #endif
; 984  : 
; 985  : }

  00067	8b e5		 mov	 esp, ebp
  00069	5d		 pop	 ebp
  0006a	c2 04 00	 ret	 4
$LN17@DG_RecvBro:

; 890  : 		return;
; 891  : 	}
; 892  : 
; 893  : 	LPOBJ lpUser = &gObj[aIndex];

  0006d	8b 0d 00 00 00
	00		 mov	 ecx, DWORD PTR ?gObj@@3PAUOBJECTSTRUCT@@A ; gObj
  00073	53		 push	 ebx
  00074	8b da		 mov	 ebx, edx
  00076	69 db 50 2b 00
	00		 imul	 ebx, 11088		; 00002b50H
  0007c	57		 push	 edi
  0007d	03 d9		 add	 ebx, ecx

; 894  : 	LPOBJ lpTarget = &gObj[aTragetIndex];
; 895  : 
; 896  : 	if(lpUser->Connected < PLAYER_PLAYING)

  0007f	bf 03 00 00 00	 mov	 edi, 3
  00084	89 5d f4	 mov	 DWORD PTR _lpUser$[ebp], ebx
  00087	39 7b 04	 cmp	 DWORD PTR [ebx+4], edi
  0008a	0f 8c 51 01 00
	00		 jl	 $LN38@DG_RecvBro

; 897  : 	{
; 898  : 		return;
; 899  : 	}
; 900  : 
; 901  : 	if(lpTarget->Connected < PLAYER_PLAYING)

  00090	69 c0 50 2b 00
	00		 imul	 eax, 11088		; 00002b50H
  00096	39 7c 08 04	 cmp	 DWORD PTR [eax+ecx+4], edi
  0009a	0f 8c 41 01 00
	00		 jl	 $LN38@DG_RecvBro

; 902  : 	{
; 903  : 		return;
; 904  : 	}
; 905  : 
; 906  : 	if(Count <= 0)

  000a0	85 f6		 test	 esi, esi
  000a2	7f 17		 jg	 SHORT $LN14@DG_RecvBro

; 907  : 	{
; 908  : 		MsgNormal(aIndex,"[Brotherhood] No Brother");

  000a4	68 00 00 00 00	 push	 OFFSET ??_C@_0BJ@OOMPCCAM@?$FLBrotherhood?$FN?5No?5Brother?$AA@
  000a9	52		 push	 edx
  000aa	e8 00 00 00 00	 call	 ?MsgNormal@@YAXHPADZZ	; MsgNormal
  000af	83 c4 08	 add	 esp, 8
  000b2	5f		 pop	 edi
  000b3	5b		 pop	 ebx
  000b4	5e		 pop	 esi

; 969  : #ifndef FIX_DS_CRASH
; 970  : 			GJSetCharacterInfo(LpBrother, number, 0);
; 971  : #endif
; 972  : 		}
; 973  : 	}
; 974  : 
; 975  : #else
; 976  : 			strncpy(lpUser->Brotherhood,lpUser->Brotherhood,10);
; 977  : 			ZtFireCracker(aIndex, lpUser->X, lpUser->Y);
; 978  : 			MessageChat(aIndex,"~[Brotherhood]: New: %s",lpUser->Brotherhood);
; 979  : #ifndef FIX_DS_CRASH
; 980  : 			GJSetCharacterInfo(lpUser, aIndex, 0);
; 981  : #endif
; 982  : 
; 983  : #endif
; 984  : 
; 985  : }

  000b5	8b e5		 mov	 esp, ebp
  000b7	5d		 pop	 ebp
  000b8	c2 04 00	 ret	 4
$LN14@DG_RecvBro:

; 909  : 		return;
; 910  : 	}
; 911  : 
; 912  : 	if(Count >= 5)

  000bb	83 fe 05	 cmp	 esi, 5
  000be	7c 17		 jl	 SHORT $LN13@DG_RecvBro

; 913  : 	{
; 914  : 		MsgNormal(aIndex,"[Brotherhood] 5/5");

  000c0	68 00 00 00 00	 push	 OFFSET ??_C@_0BC@JHEHGABB@?$FLBrotherhood?$FN?55?15?$AA@
  000c5	52		 push	 edx
  000c6	e8 00 00 00 00	 call	 ?MsgNormal@@YAXHPADZZ	; MsgNormal
  000cb	83 c4 08	 add	 esp, 8
  000ce	5f		 pop	 edi
  000cf	5b		 pop	 ebx
  000d0	5e		 pop	 esi

; 969  : #ifndef FIX_DS_CRASH
; 970  : 			GJSetCharacterInfo(LpBrother, number, 0);
; 971  : #endif
; 972  : 		}
; 973  : 	}
; 974  : 
; 975  : #else
; 976  : 			strncpy(lpUser->Brotherhood,lpUser->Brotherhood,10);
; 977  : 			ZtFireCracker(aIndex, lpUser->X, lpUser->Y);
; 978  : 			MessageChat(aIndex,"~[Brotherhood]: New: %s",lpUser->Brotherhood);
; 979  : #ifndef FIX_DS_CRASH
; 980  : 			GJSetCharacterInfo(lpUser, aIndex, 0);
; 981  : #endif
; 982  : 
; 983  : #endif
; 984  : 
; 985  : }

  000d1	8b e5		 mov	 esp, ebp
  000d3	5d		 pop	 ebp
  000d4	c2 04 00	 ret	 4
$LN13@DG_RecvBro:

; 915  : 		return;
; 916  : 	}
; 917  : 
; 918  : #ifndef BR_DEBUG
; 919  : 
; 920  : 	int number = 0;
; 921  : 	int BrCount = 0;
; 922  : 	int	partynum = lpUser->PartyNumber;

  000d7	8b bb 2c 04 00
	00		 mov	 edi, DWORD PTR [ebx+1068]
  000dd	c7 45 08 00 00
	00 00		 mov	 DWORD PTR _BrCount$[ebp], 0

; 923  : 
; 924  : 	for(int n = 0; n < MAX_USER_IN_PARTY; n++)

  000e4	33 f6		 xor	 esi, esi
$LL35@DG_RecvBro:

; 925  : 	{
; 926  : #if _NEW_PARTY_SYSTEM_ == TRUE
; 927  : 		if( n >= g_MaxPartyMember)

  000e6	3b 35 00 00 00
	00		 cmp	 esi, DWORD PTR ?g_MaxPartyMember@@3HA ; g_MaxPartyMember
  000ec	7d 48		 jge	 SHORT $LN28@DG_RecvBro

; 928  : 		{
; 929  : 			break;
; 930  : 		}
; 931  : #endif
; 932  : 		number = gParty.m_PartyS[partynum].Number[n];

  000ee	8b c7		 mov	 eax, edi
  000f0	6b c0 1a	 imul	 eax, 26			; 0000001aH
  000f3	03 c6		 add	 eax, esi
  000f5	8b 04 85 0c 00
	00 00		 mov	 eax, DWORD PTR ?gParty@@3VPartyClass@@A[eax*4+12]

; 933  : 
; 934  : 		if(number >= 0 && lpUser->Connected == PLAYER_PLAYING)

  000fc	85 c0		 test	 eax, eax
  000fe	78 30		 js	 SHORT $LN11@DG_RecvBro
  00100	83 7b 04 03	 cmp	 DWORD PTR [ebx+4], 3
  00104	75 2a		 jne	 SHORT $LN11@DG_RecvBro

; 935  : 		{
; 936  : 			LPOBJ LpBrother = &gObj[number];

  00106	69 c0 50 2b 00
	00		 imul	 eax, 11088		; 00002b50H
  0010c	03 05 00 00 00
	00		 add	 eax, DWORD PTR ?gObj@@3PAUOBJECTSTRUCT@@A ; gObj

; 937  : 			if(!strncmp(lpUser->Brotherhood,LpBrother->Brotherhood,10))

  00112	6a 0a		 push	 10			; 0000000aH
  00114	05 6d 28 00 00	 add	 eax, 10349		; 0000286dH
  00119	50		 push	 eax
  0011a	8d 8b 6d 28 00
	00		 lea	 ecx, DWORD PTR [ebx+10349]
  00120	51		 push	 ecx
  00121	e8 00 00 00 00	 call	 _strncmp
  00126	83 c4 0c	 add	 esp, 12			; 0000000cH
  00129	85 c0		 test	 eax, eax
  0012b	75 03		 jne	 SHORT $LN11@DG_RecvBro

; 938  : 			{
; 939  : 				BrCount++;

  0012d	ff 45 08	 inc	 DWORD PTR _BrCount$[ebp]
$LN11@DG_RecvBro:

; 923  : 
; 924  : 	for(int n = 0; n < MAX_USER_IN_PARTY; n++)

  00130	46		 inc	 esi
  00131	83 fe 0a	 cmp	 esi, 10			; 0000000aH
  00134	7c b0		 jl	 SHORT $LL35@DG_RecvBro
$LN28@DG_RecvBro:

; 940  : 			}
; 941  : 		}
; 942  : 		else
; 943  : 		{
; 944  : 			continue;
; 945  : 		}
; 946  : 	}
; 947  : 
; 948  : 
; 949  : 	if(BrCount != Count)

  00136	8b 45 fc	 mov	 eax, DWORD PTR _Count$[ebp]
  00139	8b 4d 08	 mov	 ecx, DWORD PTR _BrCount$[ebp]
  0013c	3b c8		 cmp	 ecx, eax
  0013e	74 1c		 je	 SHORT $LN5@DG_RecvBro

; 950  : 	{
; 951  : 		MsgNormal(aIndex,"[Brotherhood] Need Full %d / %d for add new",BrCount,Count);

  00140	8b 55 f8	 mov	 edx, DWORD PTR _aIndex$[ebp]
  00143	50		 push	 eax
  00144	51		 push	 ecx
  00145	68 00 00 00 00	 push	 OFFSET ??_C@_0CM@NEOCLGBF@?$FLBrotherhood?$FN?5Need?5Full?5?$CFd?5?1?5?$CFd?5@
  0014a	52		 push	 edx
  0014b	e8 00 00 00 00	 call	 ?MsgNormal@@YAXHPADZZ	; MsgNormal
  00150	83 c4 10	 add	 esp, 16			; 00000010H
  00153	5f		 pop	 edi
  00154	5b		 pop	 ebx
  00155	5e		 pop	 esi

; 969  : #ifndef FIX_DS_CRASH
; 970  : 			GJSetCharacterInfo(LpBrother, number, 0);
; 971  : #endif
; 972  : 		}
; 973  : 	}
; 974  : 
; 975  : #else
; 976  : 			strncpy(lpUser->Brotherhood,lpUser->Brotherhood,10);
; 977  : 			ZtFireCracker(aIndex, lpUser->X, lpUser->Y);
; 978  : 			MessageChat(aIndex,"~[Brotherhood]: New: %s",lpUser->Brotherhood);
; 979  : #ifndef FIX_DS_CRASH
; 980  : 			GJSetCharacterInfo(lpUser, aIndex, 0);
; 981  : #endif
; 982  : 
; 983  : #endif
; 984  : 
; 985  : }

  00156	8b e5		 mov	 esp, ebp
  00158	5d		 pop	 ebp
  00159	c2 04 00	 ret	 4
$LN5@DG_RecvBro:

; 952  : 		return;
; 953  : 	}
; 954  : 
; 955  : #if _NEW_PARTY_SYSTEM_ == TRUE
; 956  : 	for(int i=0; i< g_MaxPartyMember; i++)

  0015c	83 3d 00 00 00
	00 00		 cmp	 DWORD PTR ?g_MaxPartyMember@@3HA, 0 ; g_MaxPartyMember
  00163	c7 45 08 00 00
	00 00		 mov	 DWORD PTR _i$212692[ebp], 0
  0016a	7e 75		 jle	 SHORT $LN38@DG_RecvBro
  0016c	6b ff 68	 imul	 edi, 104		; 00000068H
  0016f	81 c7 0c 00 00
	00		 add	 edi, OFFSET ?gParty@@3VPartyClass@@A+12
  00175	89 7d fc	 mov	 DWORD PTR tv357[ebp], edi
$LL36@DG_RecvBro:

; 957  : #else
; 958  : 	for(int i=0; i < MAX_USER_IN_PARTY; i++)
; 959  : #endif
; 960  : 	{
; 961  : 		number = gParty.m_PartyS[partynum].Number[i];

  00178	8b 3f		 mov	 edi, DWORD PTR [edi]

; 962  : 
; 963  : 		if(number >= 0)

  0017a	85 ff		 test	 edi, edi
  0017c	78 4b		 js	 SHORT $LN3@DG_RecvBro

; 964  : 		{
; 965  : 			LPOBJ LpBrother = &gObj[number];

  0017e	8b f7		 mov	 esi, edi
  00180	69 f6 50 2b 00
	00		 imul	 esi, 11088		; 00002b50H
  00186	03 35 00 00 00
	00		 add	 esi, DWORD PTR ?gObj@@3PAUOBJECTSTRUCT@@A ; gObj

; 966  : 			strncpy(LpBrother->Brotherhood,lpUser->Brotherhood,10);

  0018c	6a 0a		 push	 10			; 0000000aH
  0018e	81 c3 6d 28 00
	00		 add	 ebx, 10349		; 0000286dH
  00194	8d 86 6d 28 00
	00		 lea	 eax, DWORD PTR [esi+10349]
  0019a	53		 push	 ebx
  0019b	50		 push	 eax
  0019c	e8 00 00 00 00	 call	 _strncpy

; 967  : 			ZtFireCracker(number, LpBrother->X, LpBrother->Y);

  001a1	0f b6 8e 46 01
	00 00		 movzx	 ecx, BYTE PTR [esi+326]
  001a8	0f b6 96 44 01
	00 00		 movzx	 edx, BYTE PTR [esi+324]
  001af	51		 push	 ecx
  001b0	52		 push	 edx
  001b1	57		 push	 edi
  001b2	e8 00 00 00 00	 call	 ?ZtFireCracker@@YAXHEE@Z ; ZtFireCracker

; 968  : 			MessageChat(number,"~[Brotherhood]: New: %s",lpUser->Brotherhood);

  001b7	53		 push	 ebx
  001b8	68 00 00 00 00	 push	 OFFSET ??_C@_0BI@LHBMPGAC@?$HO?$FLBrotherhood?$FN?3?5New?3?5?$CFs?$AA@
  001bd	57		 push	 edi
  001be	e8 00 00 00 00	 call	 ?MessageChat@@YAXHPADZZ	; MessageChat
  001c3	8b 5d f4	 mov	 ebx, DWORD PTR _lpUser$[ebp]
  001c6	83 c4 24	 add	 esp, 36			; 00000024H
$LN3@DG_RecvBro:

; 952  : 		return;
; 953  : 	}
; 954  : 
; 955  : #if _NEW_PARTY_SYSTEM_ == TRUE
; 956  : 	for(int i=0; i< g_MaxPartyMember; i++)

  001c9	8b 45 08	 mov	 eax, DWORD PTR _i$212692[ebp]
  001cc	8b 7d fc	 mov	 edi, DWORD PTR tv357[ebp]
  001cf	40		 inc	 eax
  001d0	83 c7 04	 add	 edi, 4
  001d3	89 45 08	 mov	 DWORD PTR _i$212692[ebp], eax
  001d6	89 7d fc	 mov	 DWORD PTR tv357[ebp], edi
  001d9	3b 05 00 00 00
	00		 cmp	 eax, DWORD PTR ?g_MaxPartyMember@@3HA ; g_MaxPartyMember
  001df	7c 97		 jl	 SHORT $LL36@DG_RecvBro
$LN38@DG_RecvBro:
  001e1	5f		 pop	 edi
  001e2	5b		 pop	 ebx
  001e3	5e		 pop	 esi
$LN2@DG_RecvBro:

; 969  : #ifndef FIX_DS_CRASH
; 970  : 			GJSetCharacterInfo(LpBrother, number, 0);
; 971  : #endif
; 972  : 		}
; 973  : 	}
; 974  : 
; 975  : #else
; 976  : 			strncpy(lpUser->Brotherhood,lpUser->Brotherhood,10);
; 977  : 			ZtFireCracker(aIndex, lpUser->X, lpUser->Y);
; 978  : 			MessageChat(aIndex,"~[Brotherhood]: New: %s",lpUser->Brotherhood);
; 979  : #ifndef FIX_DS_CRASH
; 980  : 			GJSetCharacterInfo(lpUser, aIndex, 0);
; 981  : #endif
; 982  : 
; 983  : #endif
; 984  : 
; 985  : }

  001e4	8b e5		 mov	 esp, ebp
  001e6	5d		 pop	 ebp
  001e7	c2 04 00	 ret	 4
?DG_RecvBrotherCount@Brotherhood@@QAEXPAUDG_CheckBrother@@@Z ENDP ; Brotherhood::DG_RecvBrotherCount
_TEXT	ENDS
PUBLIC	?size@?$vector@UBROTHER_DATA@@V?$allocator@UBROTHER_DATA@@@std@@@std@@QBEIXZ ; std::vector<BROTHER_DATA,std::allocator<BROTHER_DATA> >::size
; Function compile flags: /Ogtp
; File d:\program files (x86)\microsoft visual studio 10.0\vc\include\vector
;	COMDAT ?size@?$vector@UBROTHER_DATA@@V?$allocator@UBROTHER_DATA@@@std@@@std@@QBEIXZ
_TEXT	SEGMENT
?size@?$vector@UBROTHER_DATA@@V?$allocator@UBROTHER_DATA@@@std@@@std@@QBEIXZ PROC ; std::vector<BROTHER_DATA,std::allocator<BROTHER_DATA> >::size, COMDAT
; _this$ = ecx

; 879  : 		return (this->_Mylast - this->_Myfirst);

  00000	8b 41 04	 mov	 eax, DWORD PTR [ecx+4]
  00003	2b 01		 sub	 eax, DWORD PTR [ecx]
  00005	c1 f8 04	 sar	 eax, 4

; 880  : 		}

  00008	c3		 ret	 0
?size@?$vector@UBROTHER_DATA@@V?$allocator@UBROTHER_DATA@@@std@@@std@@QBEIXZ ENDP ; std::vector<BROTHER_DATA,std::allocator<BROTHER_DATA> >::size
_TEXT	ENDS
PUBLIC	??A?$vector@UBROTHER_DATA@@V?$allocator@UBROTHER_DATA@@@std@@@std@@QAEAAUBROTHER_DATA@@I@Z ; std::vector<BROTHER_DATA,std::allocator<BROTHER_DATA> >::operator[]
; Function compile flags: /Ogtp
;	COMDAT ??A?$vector@UBROTHER_DATA@@V?$allocator@UBROTHER_DATA@@@std@@@std@@QAEAAUBROTHER_DATA@@I@Z
_TEXT	SEGMENT
__Pos$ = 8						; size = 4
??A?$vector@UBROTHER_DATA@@V?$allocator@UBROTHER_DATA@@@std@@@std@@QAEAAUBROTHER_DATA@@I@Z PROC ; std::vector<BROTHER_DATA,std::allocator<BROTHER_DATA> >::operator[], COMDAT
; _this$ = ecx

; 928  : 		{	// subscript mutable sequence

  00000	55		 push	 ebp
  00001	8b ec		 mov	 ebp, esp

; 929  :  #if _ITERATOR_DEBUG_LEVEL == 2
; 930  : 		if (size() <= _Pos)
; 931  : 			{	// report error
; 932  : 			_DEBUG_ERROR("vector subscript out of range");
; 933  : 			_SCL_SECURE_OUT_OF_RANGE;
; 934  : 			}
; 935  : 
; 936  :  #elif _ITERATOR_DEBUG_LEVEL == 1
; 937  : 		_SCL_SECURE_VALIDATE_RANGE(_Pos < size());
; 938  :  #endif /* _ITERATOR_DEBUG_LEVEL */
; 939  : 
; 940  : 		return (*(this->_Myfirst + _Pos));

  00003	8b 45 08	 mov	 eax, DWORD PTR __Pos$[ebp]
  00006	c1 e0 04	 shl	 eax, 4
  00009	03 01		 add	 eax, DWORD PTR [ecx]

; 941  : 		}

  0000b	5d		 pop	 ebp
  0000c	c2 04 00	 ret	 4
??A?$vector@UBROTHER_DATA@@V?$allocator@UBROTHER_DATA@@@std@@@std@@QAEAAUBROTHER_DATA@@I@Z ENDP ; std::vector<BROTHER_DATA,std::allocator<BROTHER_DATA> >::operator[]
_TEXT	ENDS
PUBLIC	?_Inside@?$vector@UBROTHER_DATA@@V?$allocator@UBROTHER_DATA@@@std@@@std@@IBE_NPBUBROTHER_DATA@@@Z ; std::vector<BROTHER_DATA,std::allocator<BROTHER_DATA> >::_Inside
; Function compile flags: /Ogtp
;	COMDAT ?_Inside@?$vector@UBROTHER_DATA@@V?$allocator@UBROTHER_DATA@@@std@@@std@@IBE_NPBUBROTHER_DATA@@@Z
_TEXT	SEGMENT
__Ptr$ = 8						; size = 4
?_Inside@?$vector@UBROTHER_DATA@@V?$allocator@UBROTHER_DATA@@@std@@@std@@IBE_NPBUBROTHER_DATA@@@Z PROC ; std::vector<BROTHER_DATA,std::allocator<BROTHER_DATA> >::_Inside, COMDAT
; _this$ = ecx

; 1285 : 		{	// test if _Ptr points inside vector

  00000	55		 push	 ebp
  00001	8b ec		 mov	 ebp, esp

; 1286 : 		return (_Ptr < this->_Mylast && this->_Myfirst <= _Ptr);

  00003	8b 45 08	 mov	 eax, DWORD PTR __Ptr$[ebp]
  00006	3b 41 04	 cmp	 eax, DWORD PTR [ecx+4]
  00009	73 0d		 jae	 SHORT $LN3@Inside
  0000b	39 01		 cmp	 DWORD PTR [ecx], eax
  0000d	77 09		 ja	 SHORT $LN3@Inside
  0000f	b8 01 00 00 00	 mov	 eax, 1

; 1287 : 		}

  00014	5d		 pop	 ebp
  00015	c2 04 00	 ret	 4
$LN3@Inside:

; 1286 : 		return (_Ptr < this->_Mylast && this->_Myfirst <= _Ptr);

  00018	33 c0		 xor	 eax, eax

; 1287 : 		}

  0001a	5d		 pop	 ebp
  0001b	c2 04 00	 ret	 4
?_Inside@?$vector@UBROTHER_DATA@@V?$allocator@UBROTHER_DATA@@@std@@@std@@IBE_NPBUBROTHER_DATA@@@Z ENDP ; std::vector<BROTHER_DATA,std::allocator<BROTHER_DATA> >::_Inside
_TEXT	ENDS
PUBLIC	?_Orphan_range@?$vector@UBROTHER_DATA@@V?$allocator@UBROTHER_DATA@@@std@@@std@@IBEXPAUBROTHER_DATA@@0@Z ; std::vector<BROTHER_DATA,std::allocator<BROTHER_DATA> >::_Orphan_range
; Function compile flags: /Ogtp
;	COMDAT ?_Orphan_range@?$vector@UBROTHER_DATA@@V?$allocator@UBROTHER_DATA@@@std@@@std@@IBEXPAUBROTHER_DATA@@0@Z
_TEXT	SEGMENT
___formal$ = 8						; size = 4
___formal$ = 12						; size = 4
?_Orphan_range@?$vector@UBROTHER_DATA@@V?$allocator@UBROTHER_DATA@@@std@@@std@@IBEXPAUBROTHER_DATA@@0@Z PROC ; std::vector<BROTHER_DATA,std::allocator<BROTHER_DATA> >::_Orphan_range, COMDAT
; _this$ = ecx

; 1454 : 		}

  00000	c2 08 00	 ret	 8
?_Orphan_range@?$vector@UBROTHER_DATA@@V?$allocator@UBROTHER_DATA@@@std@@@std@@IBEXPAUBROTHER_DATA@@0@Z ENDP ; std::vector<BROTHER_DATA,std::allocator<BROTHER_DATA> >::_Orphan_range
_TEXT	ENDS
PUBLIC	??1?$_Vector_val@UBROTHER_DATA@@V?$allocator@UBROTHER_DATA@@@std@@@std@@QAE@XZ ; std::_Vector_val<BROTHER_DATA,std::allocator<BROTHER_DATA> >::~_Vector_val<BROTHER_DATA,std::allocator<BROTHER_DATA> >
; Function compile flags: /Ogtp
;	COMDAT ??1?$_Vector_val@UBROTHER_DATA@@V?$allocator@UBROTHER_DATA@@@std@@@std@@QAE@XZ
_TEXT	SEGMENT
??1?$_Vector_val@UBROTHER_DATA@@V?$allocator@UBROTHER_DATA@@@std@@@std@@QAE@XZ PROC ; std::_Vector_val<BROTHER_DATA,std::allocator<BROTHER_DATA> >::~_Vector_val<BROTHER_DATA,std::allocator<BROTHER_DATA> >, COMDAT
; _this$ = ecx

; 434  : 		}

  00000	c3		 ret	 0
??1?$_Vector_val@UBROTHER_DATA@@V?$allocator@UBROTHER_DATA@@@std@@@std@@QAE@XZ ENDP ; std::_Vector_val<BROTHER_DATA,std::allocator<BROTHER_DATA> >::~_Vector_val<BROTHER_DATA,std::allocator<BROTHER_DATA> >
_TEXT	ENDS
PUBLIC	??0?$allocator@UBROTHER_DATA@@@std@@QAE@XZ	; std::allocator<BROTHER_DATA>::allocator<BROTHER_DATA>
; Function compile flags: /Ogtp
; File d:\program files (x86)\microsoft visual studio 10.0\vc\include\xmemory
;	COMDAT ??0?$allocator@UBROTHER_DATA@@@std@@QAE@XZ
_TEXT	SEGMENT
??0?$allocator@UBROTHER_DATA@@@std@@QAE@XZ PROC		; std::allocator<BROTHER_DATA>::allocator<BROTHER_DATA>, COMDAT
; _this$ = ecx

; 161  : 	_ALLOCATOR() _THROW0()

  00000	8b c1		 mov	 eax, ecx

; 162  : 		{	// construct default allocator (do nothing)
; 163  : 		}

  00002	c3		 ret	 0
??0?$allocator@UBROTHER_DATA@@@std@@QAE@XZ ENDP		; std::allocator<BROTHER_DATA>::allocator<BROTHER_DATA>
_TEXT	ENDS
PUBLIC	?capacity@?$vector@UBROTHER_DATA@@V?$allocator@UBROTHER_DATA@@@std@@@std@@QBEIXZ ; std::vector<BROTHER_DATA,std::allocator<BROTHER_DATA> >::capacity
; Function compile flags: /Ogtp
; File d:\program files (x86)\microsoft visual studio 10.0\vc\include\vector
;	COMDAT ?capacity@?$vector@UBROTHER_DATA@@V?$allocator@UBROTHER_DATA@@@std@@@std@@QBEIXZ
_TEXT	SEGMENT
?capacity@?$vector@UBROTHER_DATA@@V?$allocator@UBROTHER_DATA@@@std@@@std@@QBEIXZ PROC ; std::vector<BROTHER_DATA,std::allocator<BROTHER_DATA> >::capacity, COMDAT
; _this$ = ecx

; 777  : 		return (this->_Myend - this->_Myfirst);

  00000	8b 41 08	 mov	 eax, DWORD PTR [ecx+8]
  00003	2b 01		 sub	 eax, DWORD PTR [ecx]
  00005	c1 f8 04	 sar	 eax, 4

; 778  : 		}

  00008	c3		 ret	 0
?capacity@?$vector@UBROTHER_DATA@@V?$allocator@UBROTHER_DATA@@@std@@@std@@QBEIXZ ENDP ; std::vector<BROTHER_DATA,std::allocator<BROTHER_DATA> >::capacity
_TEXT	ENDS
PUBLIC	??_C@_0BD@OLBABOEK@vector?$DMT?$DO?5too?5long?$AA@ ; `string'
PUBLIC	?_Xlen@?$vector@UBROTHER_DATA@@V?$allocator@UBROTHER_DATA@@@std@@@std@@IBEXXZ ; std::vector<BROTHER_DATA,std::allocator<BROTHER_DATA> >::_Xlen
EXTRN	?_Xlength_error@std@@YAXPBD@Z:PROC		; std::_Xlength_error
;	COMDAT ??_C@_0BD@OLBABOEK@vector?$DMT?$DO?5too?5long?$AA@
CONST	SEGMENT
??_C@_0BD@OLBABOEK@vector?$DMT?$DO?5too?5long?$AA@ DB 'vector<T> too long'
	DB	00H						; `string'
; Function compile flags: /Ogtp
CONST	ENDS
;	COMDAT ?_Xlen@?$vector@UBROTHER_DATA@@V?$allocator@UBROTHER_DATA@@@std@@@std@@IBEXXZ
_TEXT	SEGMENT
?_Xlen@?$vector@UBROTHER_DATA@@V?$allocator@UBROTHER_DATA@@@std@@@std@@IBEXXZ PROC ; std::vector<BROTHER_DATA,std::allocator<BROTHER_DATA> >::_Xlen, COMDAT
; _this$ = ecx

; 1427 : 		_Xlength_error("vector<T> too long");

  00000	68 00 00 00 00	 push	 OFFSET ??_C@_0BD@OLBABOEK@vector?$DMT?$DO?5too?5long?$AA@
  00005	e8 00 00 00 00	 call	 ?_Xlength_error@std@@YAXPBD@Z ; std::_Xlength_error
$LN4@Xlen:
$LN3@Xlen:
  0000a	cc		 int	 3
?_Xlen@?$vector@UBROTHER_DATA@@V?$allocator@UBROTHER_DATA@@@std@@@std@@IBEXXZ ENDP ; std::vector<BROTHER_DATA,std::allocator<BROTHER_DATA> >::_Xlen
_TEXT	ENDS
PUBLIC	??0?$allocator@UBROTHER_DATA@@@std@@QAE@ABV01@@Z ; std::allocator<BROTHER_DATA>::allocator<BROTHER_DATA>
; Function compile flags: /Ogtp
; File d:\program files (x86)\microsoft visual studio 10.0\vc\include\xmemory
;	COMDAT ??0?$allocator@UBROTHER_DATA@@@std@@QAE@ABV01@@Z
_TEXT	SEGMENT
___formal$ = 8						; size = 4
??0?$allocator@UBROTHER_DATA@@@std@@QAE@ABV01@@Z PROC	; std::allocator<BROTHER_DATA>::allocator<BROTHER_DATA>, COMDAT
; _this$ = ecx

; 165  : 	_ALLOCATOR(const _ALLOCATOR<_Ty>&) _THROW0()

  00000	8b c1		 mov	 eax, ecx

; 166  : 		{	// construct by copying (do nothing)
; 167  : 		}

  00002	c2 04 00	 ret	 4
??0?$allocator@UBROTHER_DATA@@@std@@QAE@ABV01@@Z ENDP	; std::allocator<BROTHER_DATA>::allocator<BROTHER_DATA>
_TEXT	ENDS
PUBLIC	?deallocate@?$allocator@UBROTHER_DATA@@@std@@QAEXPAUBROTHER_DATA@@I@Z ; std::allocator<BROTHER_DATA>::deallocate
EXTRN	??3@YAXPAX@Z:PROC				; operator delete
; Function compile flags: /Ogtp
;	COMDAT ?deallocate@?$allocator@UBROTHER_DATA@@@std@@QAEXPAUBROTHER_DATA@@I@Z
_TEXT	SEGMENT
__Ptr$ = 8						; size = 4
___formal$ = 12						; size = 4
?deallocate@?$allocator@UBROTHER_DATA@@@std@@QAEXPAUBROTHER_DATA@@I@Z PROC ; std::allocator<BROTHER_DATA>::deallocate, COMDAT
; _this$ = ecx

; 181  : 		{	// deallocate object at _Ptr, ignore size

  00000	55		 push	 ebp
  00001	8b ec		 mov	 ebp, esp

; 182  : 		::operator delete(_Ptr);

  00003	8b 45 08	 mov	 eax, DWORD PTR __Ptr$[ebp]
  00006	50		 push	 eax
  00007	e8 00 00 00 00	 call	 ??3@YAXPAX@Z		; operator delete
  0000c	83 c4 04	 add	 esp, 4

; 183  : 		}

  0000f	5d		 pop	 ebp
  00010	c2 08 00	 ret	 8
?deallocate@?$allocator@UBROTHER_DATA@@@std@@QAEXPAUBROTHER_DATA@@I@Z ENDP ; std::allocator<BROTHER_DATA>::deallocate
_TEXT	ENDS
PUBLIC	?max_size@?$allocator@UBROTHER_DATA@@@std@@QBEIXZ ; std::allocator<BROTHER_DATA>::max_size
; Function compile flags: /Ogtp
;	COMDAT ?max_size@?$allocator@UBROTHER_DATA@@@std@@QBEIXZ
_TEXT	SEGMENT
?max_size@?$allocator@UBROTHER_DATA@@@std@@QBEIXZ PROC	; std::allocator<BROTHER_DATA>::max_size, COMDAT
; _this$ = ecx

; 218  : 		_SIZT _Count = (_SIZT)(-1) / sizeof (_Ty);
; 219  : 		return (0 < _Count ? _Count : 1);

  00000	b8 ff ff ff 0f	 mov	 eax, 268435455		; 0fffffffH

; 220  : 		}

  00005	c3		 ret	 0
?max_size@?$allocator@UBROTHER_DATA@@@std@@QBEIXZ ENDP	; std::allocator<BROTHER_DATA>::max_size
_TEXT	ENDS
PUBLIC	??$addressof@$$CBUBROTHER_DATA@@@std@@YAPBUBROTHER_DATA@@ABU1@@Z ; std::addressof<BROTHER_DATA const >
; Function compile flags: /Ogtp
;	COMDAT ??$addressof@$$CBUBROTHER_DATA@@@std@@YAPBUBROTHER_DATA@@ABU1@@Z
_TEXT	SEGMENT
__Val$ = 8						; size = 4
??$addressof@$$CBUBROTHER_DATA@@@std@@YAPBUBROTHER_DATA@@ABU1@@Z PROC ; std::addressof<BROTHER_DATA const >, COMDAT

; 110  : 	{	// return address of _Val

  00000	55		 push	 ebp
  00001	8b ec		 mov	 ebp, esp

; 111  : 	return ((_Ty *) &(char&)_Val);

  00003	8b 45 08	 mov	 eax, DWORD PTR __Val$[ebp]

; 112  : 	}

  00006	5d		 pop	 ebp
  00007	c3		 ret	 0
??$addressof@$$CBUBROTHER_DATA@@@std@@YAPBUBROTHER_DATA@@ABU1@@Z ENDP ; std::addressof<BROTHER_DATA const >
_TEXT	ENDS
PUBLIC	??$forward@AAUBROTHER_DATA@@@std@@YAAAUBROTHER_DATA@@AAU1@@Z ; std::forward<BROTHER_DATA &>
; Function compile flags: /Ogtp
; File d:\program files (x86)\microsoft visual studio 10.0\vc\include\utility
;	COMDAT ??$forward@AAUBROTHER_DATA@@@std@@YAAAUBROTHER_DATA@@AAU1@@Z
_TEXT	SEGMENT
__Arg$ = 8						; size = 4
??$forward@AAUBROTHER_DATA@@@std@@YAAAUBROTHER_DATA@@AAU1@@Z PROC ; std::forward<BROTHER_DATA &>, COMDAT

; 78   : 	{	// forward _Arg, given explicitly specified type parameter

  00000	55		 push	 ebp
  00001	8b ec		 mov	 ebp, esp

; 79   : 	return ((_Ty&&)_Arg);

  00003	8b 45 08	 mov	 eax, DWORD PTR __Arg$[ebp]

; 80   : 	}

  00006	5d		 pop	 ebp
  00007	c3		 ret	 0
??$forward@AAUBROTHER_DATA@@@std@@YAAAUBROTHER_DATA@@AAU1@@Z ENDP ; std::forward<BROTHER_DATA &>
_TEXT	ENDS
PUBLIC	??$construct@AAUBROTHER_DATA@@@?$allocator@UBROTHER_DATA@@@std@@QAEXPAUBROTHER_DATA@@AAU2@@Z ; std::allocator<BROTHER_DATA>::construct<BROTHER_DATA &>
; Function compile flags: /Ogtp
; File d:\program files (x86)\microsoft visual studio 10.0\vc\include\xmemory
;	COMDAT ??$construct@AAUBROTHER_DATA@@@?$allocator@UBROTHER_DATA@@@std@@QAEXPAUBROTHER_DATA@@AAU2@@Z
_TEXT	SEGMENT
__Ptr$ = 8						; size = 4
__Val$ = 12						; size = 4
??$construct@AAUBROTHER_DATA@@@?$allocator@UBROTHER_DATA@@@std@@QAEXPAUBROTHER_DATA@@AAU2@@Z PROC ; std::allocator<BROTHER_DATA>::construct<BROTHER_DATA &>, COMDAT
; _this$ = ecx

; 206  : 		void construct(pointer _Ptr, _Other&& _Val)

  00000	55		 push	 ebp
  00001	8b ec		 mov	 ebp, esp

; 207  : 		{	// construct object at _Ptr with value _Val
; 208  : 		::new ((void _FARQ *)_Ptr) _Ty(_STD forward<_Other>(_Val));

  00003	8b 45 08	 mov	 eax, DWORD PTR __Ptr$[ebp]
  00006	85 c0		 test	 eax, eax
  00008	74 19		 je	 SHORT $LN3@construct
  0000a	8b 4d 0c	 mov	 ecx, DWORD PTR __Val$[ebp]
  0000d	8b 11		 mov	 edx, DWORD PTR [ecx]
  0000f	89 10		 mov	 DWORD PTR [eax], edx
  00011	8b 51 04	 mov	 edx, DWORD PTR [ecx+4]
  00014	89 50 04	 mov	 DWORD PTR [eax+4], edx
  00017	8b 51 08	 mov	 edx, DWORD PTR [ecx+8]
  0001a	89 50 08	 mov	 DWORD PTR [eax+8], edx
  0001d	8b 49 0c	 mov	 ecx, DWORD PTR [ecx+12]
  00020	89 48 0c	 mov	 DWORD PTR [eax+12], ecx
$LN3@construct:

; 209  : 		}

  00023	5d		 pop	 ebp
  00024	c2 08 00	 ret	 8
??$construct@AAUBROTHER_DATA@@@?$allocator@UBROTHER_DATA@@@std@@QAEXPAUBROTHER_DATA@@AAU2@@Z ENDP ; std::allocator<BROTHER_DATA>::construct<BROTHER_DATA &>
_TEXT	ENDS
PUBLIC	??$forward@ABUBROTHER_DATA@@@std@@YAABUBROTHER_DATA@@ABU1@@Z ; std::forward<BROTHER_DATA const &>
; Function compile flags: /Ogtp
; File d:\program files (x86)\microsoft visual studio 10.0\vc\include\utility
;	COMDAT ??$forward@ABUBROTHER_DATA@@@std@@YAABUBROTHER_DATA@@ABU1@@Z
_TEXT	SEGMENT
__Arg$ = 8						; size = 4
??$forward@ABUBROTHER_DATA@@@std@@YAABUBROTHER_DATA@@ABU1@@Z PROC ; std::forward<BROTHER_DATA const &>, COMDAT

; 78   : 	{	// forward _Arg, given explicitly specified type parameter

  00000	55		 push	 ebp
  00001	8b ec		 mov	 ebp, esp

; 79   : 	return ((_Ty&&)_Arg);

  00003	8b 45 08	 mov	 eax, DWORD PTR __Arg$[ebp]

; 80   : 	}

  00006	5d		 pop	 ebp
  00007	c3		 ret	 0
??$forward@ABUBROTHER_DATA@@@std@@YAABUBROTHER_DATA@@ABU1@@Z ENDP ; std::forward<BROTHER_DATA const &>
_TEXT	ENDS
PUBLIC	??$_Ptr_cat@UBROTHER_DATA@@U1@@std@@YA?AU_Nonscalar_ptr_iterator_tag@0@PAUBROTHER_DATA@@0@Z ; std::_Ptr_cat<BROTHER_DATA,BROTHER_DATA>
; Function compile flags: /Ogtp
; File d:\program files (x86)\microsoft visual studio 10.0\vc\include\xutility
;	COMDAT ??$_Ptr_cat@UBROTHER_DATA@@U1@@std@@YA?AU_Nonscalar_ptr_iterator_tag@0@PAUBROTHER_DATA@@0@Z
_TEXT	SEGMENT
__Cat$ = -1						; size = 1
___formal$ = 8						; size = 4
___formal$ = 12						; size = 4
??$_Ptr_cat@UBROTHER_DATA@@U1@@std@@YA?AU_Nonscalar_ptr_iterator_tag@0@PAUBROTHER_DATA@@0@Z PROC ; std::_Ptr_cat<BROTHER_DATA,BROTHER_DATA>, COMDAT

; 516  : 	{	// return pointer category from pointers

  00000	55		 push	 ebp
  00001	8b ec		 mov	 ebp, esp
  00003	51		 push	 ecx

; 517  : 	typename _Ptr_cat_helper<_Elem1, _Elem2>::_Type _Cat;
; 518  : 	return (_Cat);

  00004	8a 45 ff	 mov	 al, BYTE PTR __Cat$[ebp]

; 519  : 	}

  00007	8b e5		 mov	 esp, ebp
  00009	5d		 pop	 ebp
  0000a	c3		 ret	 0
??$_Ptr_cat@UBROTHER_DATA@@U1@@std@@YA?AU_Nonscalar_ptr_iterator_tag@0@PAUBROTHER_DATA@@0@Z ENDP ; std::_Ptr_cat<BROTHER_DATA,BROTHER_DATA>
_TEXT	ENDS
PUBLIC	??$_Construct@UBROTHER_DATA@@ABU1@@std@@YAXPAUBROTHER_DATA@@ABU1@@Z ; std::_Construct<BROTHER_DATA,BROTHER_DATA const &>
; Function compile flags: /Ogtp
; File d:\program files (x86)\microsoft visual studio 10.0\vc\include\xmemory
;	COMDAT ??$_Construct@UBROTHER_DATA@@ABU1@@std@@YAXPAUBROTHER_DATA@@ABU1@@Z
_TEXT	SEGMENT
__Ptr$ = 8						; size = 4
__Val$ = 12						; size = 4
??$_Construct@UBROTHER_DATA@@ABU1@@std@@YAXPAUBROTHER_DATA@@ABU1@@Z PROC ; std::_Construct<BROTHER_DATA,BROTHER_DATA const &>, COMDAT

; 46   : 	{	// construct object at _Ptr with value _Val

  00000	55		 push	 ebp
  00001	8b ec		 mov	 ebp, esp

; 47   : 	void _FARQ *_Vptr = _Ptr;
; 48   : 	::new (_Vptr) _Ty1(_STD forward<_Ty2>(_Val));

  00003	8b 45 08	 mov	 eax, DWORD PTR __Ptr$[ebp]
  00006	85 c0		 test	 eax, eax
  00008	74 19		 je	 SHORT $LN3@Construct
  0000a	8b 4d 0c	 mov	 ecx, DWORD PTR __Val$[ebp]
  0000d	8b 11		 mov	 edx, DWORD PTR [ecx]
  0000f	89 10		 mov	 DWORD PTR [eax], edx
  00011	8b 51 04	 mov	 edx, DWORD PTR [ecx+4]
  00014	89 50 04	 mov	 DWORD PTR [eax+4], edx
  00017	8b 51 08	 mov	 edx, DWORD PTR [ecx+8]
  0001a	89 50 08	 mov	 DWORD PTR [eax+8], edx
  0001d	8b 49 0c	 mov	 ecx, DWORD PTR [ecx+12]
  00020	89 48 0c	 mov	 DWORD PTR [eax+12], ecx
$LN3@Construct:

; 49   : 	}

  00023	5d		 pop	 ebp
  00024	c3		 ret	 0
??$_Construct@UBROTHER_DATA@@ABU1@@std@@YAXPAUBROTHER_DATA@@ABU1@@Z ENDP ; std::_Construct<BROTHER_DATA,BROTHER_DATA const &>
_TEXT	ENDS
PUBLIC	??$_Val_type@PAUBROTHER_DATA@@@std@@YAPAUBROTHER_DATA@@PAU1@@Z ; std::_Val_type<BROTHER_DATA *>
; Function compile flags: /Ogtp
; File d:\program files (x86)\microsoft visual studio 10.0\vc\include\xutility
;	COMDAT ??$_Val_type@PAUBROTHER_DATA@@@std@@YAPAUBROTHER_DATA@@PAU1@@Z
_TEXT	SEGMENT
___formal$ = 8						; size = 4
??$_Val_type@PAUBROTHER_DATA@@@std@@YAPAUBROTHER_DATA@@PAU1@@Z PROC ; std::_Val_type<BROTHER_DATA *>, COMDAT

; 790  : 	return (0);

  00000	33 c0		 xor	 eax, eax

; 791  : 	}

  00002	c3		 ret	 0
??$_Val_type@PAUBROTHER_DATA@@@std@@YAPAUBROTHER_DATA@@PAU1@@Z ENDP ; std::_Val_type<BROTHER_DATA *>
_TEXT	ENDS
PUBLIC	??$_Destroy@UBROTHER_DATA@@@std@@YAXPAUBROTHER_DATA@@@Z ; std::_Destroy<BROTHER_DATA>
; Function compile flags: /Ogtp
; File d:\program files (x86)\microsoft visual studio 10.0\vc\include\xmemory
;	COMDAT ??$_Destroy@UBROTHER_DATA@@@std@@YAXPAUBROTHER_DATA@@@Z
_TEXT	SEGMENT
__Ptr$ = 8						; size = 4
??$_Destroy@UBROTHER_DATA@@@std@@YAXPAUBROTHER_DATA@@@Z PROC ; std::_Destroy<BROTHER_DATA>, COMDAT

; 63   : 	_Ptr->~_Ty();
; 64   : 	}

  00000	c3		 ret	 0
??$_Destroy@UBROTHER_DATA@@@std@@YAXPAUBROTHER_DATA@@@Z ENDP ; std::_Destroy<BROTHER_DATA>
_TEXT	ENDS
PUBLIC	??$forward@UBROTHER_DATA@@@std@@YA$$QAUBROTHER_DATA@@AAU1@@Z ; std::forward<BROTHER_DATA>
; Function compile flags: /Ogtp
; File d:\program files (x86)\microsoft visual studio 10.0\vc\include\utility
;	COMDAT ??$forward@UBROTHER_DATA@@@std@@YA$$QAUBROTHER_DATA@@AAU1@@Z
_TEXT	SEGMENT
__Arg$ = 8						; size = 4
??$forward@UBROTHER_DATA@@@std@@YA$$QAUBROTHER_DATA@@AAU1@@Z PROC ; std::forward<BROTHER_DATA>, COMDAT

; 78   : 	{	// forward _Arg, given explicitly specified type parameter

  00000	55		 push	 ebp
  00001	8b ec		 mov	 ebp, esp

; 79   : 	return ((_Ty&&)_Arg);

  00003	8b 45 08	 mov	 eax, DWORD PTR __Arg$[ebp]

; 80   : 	}

  00006	5d		 pop	 ebp
  00007	c3		 ret	 0
??$forward@UBROTHER_DATA@@@std@@YA$$QAUBROTHER_DATA@@AAU1@@Z ENDP ; std::forward<BROTHER_DATA>
_TEXT	ENDS
PUBLIC	??_7bad_alloc@std@@6B@				; std::bad_alloc::`vftable'
PUBLIC	??0bad_alloc@std@@QAE@PBD@Z			; std::bad_alloc::bad_alloc
PUBLIC	??_R4bad_alloc@std@@6B@				; std::bad_alloc::`RTTI Complete Object Locator'
PUBLIC	??_R0?AVbad_alloc@std@@@8			; std::bad_alloc `RTTI Type Descriptor'
PUBLIC	??_R3bad_alloc@std@@8				; std::bad_alloc::`RTTI Class Hierarchy Descriptor'
PUBLIC	??_R2bad_alloc@std@@8				; std::bad_alloc::`RTTI Base Class Array'
PUBLIC	??_R1A@?0A@EA@bad_alloc@std@@8			; std::bad_alloc::`RTTI Base Class Descriptor at (0,-1,0,64)'
PUBLIC	??_R1A@?0A@EA@exception@std@@8			; std::exception::`RTTI Base Class Descriptor at (0,-1,0,64)'
PUBLIC	??_R0?AVexception@std@@@8			; std::exception `RTTI Type Descriptor'
PUBLIC	??_R3exception@std@@8				; std::exception::`RTTI Class Hierarchy Descriptor'
PUBLIC	??_R2exception@std@@8				; std::exception::`RTTI Base Class Array'
EXTRN	??0exception@std@@QAE@ABQBD@Z:PROC		; std::exception::exception
EXTRN	??_7type_info@@6B@:QWORD			; type_info::`vftable'
EXTRN	??_Ebad_alloc@std@@UAEPAXI@Z:PROC		; std::bad_alloc::`vector deleting destructor'
EXTRN	?what@exception@std@@UBEPBDXZ:PROC		; std::exception::what
;	COMDAT ??_R2exception@std@@8
; File d:\program files (x86)\microsoft visual studio 10.0\vc\include\exception
rdata$r	SEGMENT
??_R2exception@std@@8 DD FLAT:??_R1A@?0A@EA@exception@std@@8 ; std::exception::`RTTI Base Class Array'
rdata$r	ENDS
;	COMDAT ??_R3exception@std@@8
rdata$r	SEGMENT
??_R3exception@std@@8 DD 00H				; std::exception::`RTTI Class Hierarchy Descriptor'
	DD	00H
	DD	01H
	DD	FLAT:??_R2exception@std@@8
rdata$r	ENDS
;	COMDAT ??_R0?AVexception@std@@@8
_DATA	SEGMENT
??_R0?AVexception@std@@@8 DD FLAT:??_7type_info@@6B@	; std::exception `RTTI Type Descriptor'
	DD	00H
	DB	'.?AVexception@std@@', 00H
_DATA	ENDS
;	COMDAT ??_R1A@?0A@EA@exception@std@@8
rdata$r	SEGMENT
??_R1A@?0A@EA@exception@std@@8 DD FLAT:??_R0?AVexception@std@@@8 ; std::exception::`RTTI Base Class Descriptor at (0,-1,0,64)'
	DD	00H
	DD	00H
	DD	0ffffffffH
	DD	00H
	DD	040H
	DD	FLAT:??_R3exception@std@@8
rdata$r	ENDS
;	COMDAT ??_R1A@?0A@EA@bad_alloc@std@@8
rdata$r	SEGMENT
??_R1A@?0A@EA@bad_alloc@std@@8 DD FLAT:??_R0?AVbad_alloc@std@@@8 ; std::bad_alloc::`RTTI Base Class Descriptor at (0,-1,0,64)'
	DD	01H
	DD	00H
	DD	0ffffffffH
	DD	00H
	DD	040H
	DD	FLAT:??_R3bad_alloc@std@@8
rdata$r	ENDS
;	COMDAT ??_R2bad_alloc@std@@8
rdata$r	SEGMENT
??_R2bad_alloc@std@@8 DD FLAT:??_R1A@?0A@EA@bad_alloc@std@@8 ; std::bad_alloc::`RTTI Base Class Array'
	DD	FLAT:??_R1A@?0A@EA@exception@std@@8
rdata$r	ENDS
;	COMDAT ??_R3bad_alloc@std@@8
rdata$r	SEGMENT
??_R3bad_alloc@std@@8 DD 00H				; std::bad_alloc::`RTTI Class Hierarchy Descriptor'
	DD	00H
	DD	02H
	DD	FLAT:??_R2bad_alloc@std@@8
rdata$r	ENDS
;	COMDAT ??_R0?AVbad_alloc@std@@@8
_DATA	SEGMENT
??_R0?AVbad_alloc@std@@@8 DD FLAT:??_7type_info@@6B@	; std::bad_alloc `RTTI Type Descriptor'
	DD	00H
	DB	'.?AVbad_alloc@std@@', 00H
_DATA	ENDS
;	COMDAT ??_R4bad_alloc@std@@6B@
rdata$r	SEGMENT
??_R4bad_alloc@std@@6B@ DD 00H				; std::bad_alloc::`RTTI Complete Object Locator'
	DD	00H
	DD	00H
	DD	FLAT:??_R0?AVbad_alloc@std@@@8
	DD	FLAT:??_R3bad_alloc@std@@8
rdata$r	ENDS
;	COMDAT ??_7bad_alloc@std@@6B@
CONST	SEGMENT
??_7bad_alloc@std@@6B@ DD FLAT:??_R4bad_alloc@std@@6B@	; std::bad_alloc::`vftable'
	DD	FLAT:??_Ebad_alloc@std@@UAEPAXI@Z
	DD	FLAT:?what@exception@std@@UBEPBDXZ
; Function compile flags: /Ogtp
CONST	ENDS
;	COMDAT ??0bad_alloc@std@@QAE@PBD@Z
_TEXT	SEGMENT
__Message$ = 8						; size = 4
??0bad_alloc@std@@QAE@PBD@Z PROC			; std::bad_alloc::bad_alloc, COMDAT
; _this$ = ecx

; 345  : 		{	// construct from message string

  00000	55		 push	 ebp
  00001	8b ec		 mov	 ebp, esp
  00003	56		 push	 esi
  00004	8d 45 08	 lea	 eax, DWORD PTR __Message$[ebp]
  00007	50		 push	 eax
  00008	8b f1		 mov	 esi, ecx
  0000a	e8 00 00 00 00	 call	 ??0exception@std@@QAE@ABQBD@Z ; std::exception::exception
  0000f	c7 06 00 00 00
	00		 mov	 DWORD PTR [esi], OFFSET ??_7bad_alloc@std@@6B@

; 346  : 		}

  00015	8b c6		 mov	 eax, esi
  00017	5e		 pop	 esi
  00018	5d		 pop	 ebp
  00019	c2 04 00	 ret	 4
??0bad_alloc@std@@QAE@PBD@Z ENDP			; std::bad_alloc::bad_alloc
_TEXT	ENDS
PUBLIC	??1bad_alloc@std@@UAE@XZ			; std::bad_alloc::~bad_alloc
EXTRN	??1exception@std@@UAE@XZ:PROC			; std::exception::~exception
; Function compile flags: /Ogtp
;	COMDAT ??1bad_alloc@std@@UAE@XZ
_TEXT	SEGMENT
??1bad_alloc@std@@UAE@XZ PROC				; std::bad_alloc::~bad_alloc, COMDAT
; _this$ = ecx

; 354  : 		{	// destroy the object

  00000	c7 01 00 00 00
	00		 mov	 DWORD PTR [ecx], OFFSET ??_7bad_alloc@std@@6B@

; 355  : 		}

  00006	e9 00 00 00 00	 jmp	 ??1exception@std@@UAE@XZ ; std::exception::~exception
??1bad_alloc@std@@UAE@XZ ENDP				; std::bad_alloc::~bad_alloc
; Function compile flags: /Ogtp
_TEXT	ENDS
;	COMDAT ??_Gbad_alloc@std@@UAEPAXI@Z
_TEXT	SEGMENT
___flags$ = 8						; size = 4
??_Gbad_alloc@std@@UAEPAXI@Z PROC			; std::bad_alloc::`scalar deleting destructor', COMDAT
; _this$ = ecx
  00000	55		 push	 ebp
  00001	8b ec		 mov	 ebp, esp
  00003	56		 push	 esi
  00004	8b f1		 mov	 esi, ecx
  00006	c7 06 00 00 00
	00		 mov	 DWORD PTR [esi], OFFSET ??_7bad_alloc@std@@6B@
  0000c	e8 00 00 00 00	 call	 ??1exception@std@@UAE@XZ ; std::exception::~exception
  00011	f6 45 08 01	 test	 BYTE PTR ___flags$[ebp], 1
  00015	74 09		 je	 SHORT $LN6@scalar
  00017	56		 push	 esi
  00018	e8 00 00 00 00	 call	 ??3@YAXPAX@Z		; operator delete
  0001d	83 c4 04	 add	 esp, 4
$LN6@scalar:
  00020	8b c6		 mov	 eax, esi
  00022	5e		 pop	 esi
  00023	5d		 pop	 ebp
  00024	c2 04 00	 ret	 4
??_Gbad_alloc@std@@UAEPAXI@Z ENDP			; std::bad_alloc::`scalar deleting destructor'
_TEXT	ENDS
PUBLIC	?_Orphan_all@_Container_base0@std@@QAEXXZ	; std::_Container_base0::_Orphan_all
; Function compile flags: /Ogtp
; File d:\program files (x86)\microsoft visual studio 10.0\vc\include\xutility
;	COMDAT ?_Orphan_all@_Container_base0@std@@QAEXXZ
_TEXT	SEGMENT
?_Orphan_all@_Container_base0@std@@QAEXXZ PROC		; std::_Container_base0::_Orphan_all, COMDAT
; _this$ = ecx

; 38   : 		}

  00000	c3		 ret	 0
?_Orphan_all@_Container_base0@std@@QAEXXZ ENDP		; std::_Container_base0::_Orphan_all
_TEXT	ENDS
PUBLIC	??0?$_Vector_val@UBROTHER_DATA@@V?$allocator@UBROTHER_DATA@@@std@@@std@@QAE@V?$allocator@UBROTHER_DATA@@@1@@Z ; std::_Vector_val<BROTHER_DATA,std::allocator<BROTHER_DATA> >::_Vector_val<BROTHER_DATA,std::allocator<BROTHER_DATA> >
; Function compile flags: /Ogtp
; File d:\program files (x86)\microsoft visual studio 10.0\vc\include\vector
;	COMDAT ??0?$_Vector_val@UBROTHER_DATA@@V?$allocator@UBROTHER_DATA@@@std@@@std@@QAE@V?$allocator@UBROTHER_DATA@@@1@@Z
_TEXT	SEGMENT
__Al$ = 8						; size = 1
??0?$_Vector_val@UBROTHER_DATA@@V?$allocator@UBROTHER_DATA@@@std@@@std@@QAE@V?$allocator@UBROTHER_DATA@@@1@@Z PROC ; std::_Vector_val<BROTHER_DATA,std::allocator<BROTHER_DATA> >::_Vector_val<BROTHER_DATA,std::allocator<BROTHER_DATA> >, COMDAT
; _this$ = ecx

; 426  : 		{	// construct allocator from _Al

  00000	8b c1		 mov	 eax, ecx

; 427  : 		_Myfirst = 0;

  00002	33 c9		 xor	 ecx, ecx
  00004	89 08		 mov	 DWORD PTR [eax], ecx

; 428  : 		_Mylast = 0;

  00006	89 48 04	 mov	 DWORD PTR [eax+4], ecx

; 429  : 		_Myend = 0;

  00009	89 48 08	 mov	 DWORD PTR [eax+8], ecx

; 430  : 		}

  0000c	c2 04 00	 ret	 4
??0?$_Vector_val@UBROTHER_DATA@@V?$allocator@UBROTHER_DATA@@@std@@@std@@QAE@V?$allocator@UBROTHER_DATA@@@1@@Z ENDP ; std::_Vector_val<BROTHER_DATA,std::allocator<BROTHER_DATA> >::_Vector_val<BROTHER_DATA,std::allocator<BROTHER_DATA> >
_TEXT	ENDS
PUBLIC	?max_size@?$vector@UBROTHER_DATA@@V?$allocator@UBROTHER_DATA@@@std@@@std@@QBEIXZ ; std::vector<BROTHER_DATA,std::allocator<BROTHER_DATA> >::max_size
; Function compile flags: /Ogtp
;	COMDAT ?max_size@?$vector@UBROTHER_DATA@@V?$allocator@UBROTHER_DATA@@@std@@@std@@QBEIXZ
_TEXT	SEGMENT
?max_size@?$vector@UBROTHER_DATA@@V?$allocator@UBROTHER_DATA@@@std@@@std@@QBEIXZ PROC ; std::vector<BROTHER_DATA,std::allocator<BROTHER_DATA> >::max_size, COMDAT
; _this$ = ecx

; 884  : 		return (this->_Alval.max_size());

  00000	b8 ff ff ff 0f	 mov	 eax, 268435455		; 0fffffffH

; 885  : 		}

  00005	c3		 ret	 0
?max_size@?$vector@UBROTHER_DATA@@V?$allocator@UBROTHER_DATA@@@std@@@std@@QBEIXZ ENDP ; std::vector<BROTHER_DATA,std::allocator<BROTHER_DATA> >::max_size
_TEXT	ENDS
PUBLIC	?_Grow_to@?$vector@UBROTHER_DATA@@V?$allocator@UBROTHER_DATA@@@std@@@std@@IBEII@Z ; std::vector<BROTHER_DATA,std::allocator<BROTHER_DATA> >::_Grow_to
; Function compile flags: /Ogtp
;	COMDAT ?_Grow_to@?$vector@UBROTHER_DATA@@V?$allocator@UBROTHER_DATA@@@std@@@std@@IBEII@Z
_TEXT	SEGMENT
__Count$ = 8						; size = 4
?_Grow_to@?$vector@UBROTHER_DATA@@V?$allocator@UBROTHER_DATA@@@std@@@std@@IBEII@Z PROC ; std::vector<BROTHER_DATA,std::allocator<BROTHER_DATA> >::_Grow_to, COMDAT
; _this$ = ecx

; 1274 : 		{	// grow by 50% or at least to _Count

  00000	55		 push	 ebp
  00001	8b ec		 mov	 ebp, esp

; 1275 : 		size_type _Capacity = capacity();

  00003	8b 41 08	 mov	 eax, DWORD PTR [ecx+8]
  00006	2b 01		 sub	 eax, DWORD PTR [ecx]

; 1276 : 
; 1277 : 		_Capacity = max_size() - _Capacity / 2 < _Capacity
; 1278 : 			? 0 : _Capacity + _Capacity / 2;	// try to grow by 50%

  00008	ba ff ff ff 0f	 mov	 edx, 268435455		; 0fffffffH
  0000d	c1 f8 04	 sar	 eax, 4
  00010	8b c8		 mov	 ecx, eax
  00012	d1 e9		 shr	 ecx, 1
  00014	2b d1		 sub	 edx, ecx
  00016	3b d0		 cmp	 edx, eax
  00018	73 04		 jae	 SHORT $LN4@Grow_to
  0001a	33 c0		 xor	 eax, eax
  0001c	eb 02		 jmp	 SHORT $LN5@Grow_to
$LN4@Grow_to:
  0001e	03 c1		 add	 eax, ecx
$LN5@Grow_to:

; 1279 : 		if (_Capacity < _Count)

  00020	8b 4d 08	 mov	 ecx, DWORD PTR __Count$[ebp]
  00023	3b c1		 cmp	 eax, ecx
  00025	73 02		 jae	 SHORT $LN1@Grow_to

; 1280 : 			_Capacity = _Count;
; 1281 : 		return (_Capacity);

  00027	8b c1		 mov	 eax, ecx
$LN1@Grow_to:

; 1282 : 		}

  00029	5d		 pop	 ebp
  0002a	c2 04 00	 ret	 4
?_Grow_to@?$vector@UBROTHER_DATA@@V?$allocator@UBROTHER_DATA@@@std@@@std@@IBEII@Z ENDP ; std::vector<BROTHER_DATA,std::allocator<BROTHER_DATA> >::_Grow_to
_TEXT	ENDS
PUBLIC	??$_Cons_val@V?$allocator@UBROTHER_DATA@@@std@@UBROTHER_DATA@@AAU3@@std@@YAXAAV?$allocator@UBROTHER_DATA@@@0@PAUBROTHER_DATA@@AAU2@@Z ; std::_Cons_val<std::allocator<BROTHER_DATA>,BROTHER_DATA,BROTHER_DATA &>
; Function compile flags: /Ogtp
; File d:\program files (x86)\microsoft visual studio 10.0\vc\include\xmemory
;	COMDAT ??$_Cons_val@V?$allocator@UBROTHER_DATA@@@std@@UBROTHER_DATA@@AAU3@@std@@YAXAAV?$allocator@UBROTHER_DATA@@@0@PAUBROTHER_DATA@@AAU2@@Z
_TEXT	SEGMENT
__Alval$ = 8						; size = 4
__Pdest$ = 12						; size = 4
__Src$ = 16						; size = 4
??$_Cons_val@V?$allocator@UBROTHER_DATA@@@std@@UBROTHER_DATA@@AAU3@@std@@YAXAAV?$allocator@UBROTHER_DATA@@@0@PAUBROTHER_DATA@@AAU2@@Z PROC ; std::_Cons_val<std::allocator<BROTHER_DATA>,BROTHER_DATA,BROTHER_DATA &>, COMDAT

; 279  : 	{	// construct using allocator

  00000	55		 push	 ebp
  00001	8b ec		 mov	 ebp, esp

; 280  : 	_Alval.construct(_Pdest, _STD forward<_Ty2>(_Src));

  00003	8b 45 0c	 mov	 eax, DWORD PTR __Pdest$[ebp]
  00006	85 c0		 test	 eax, eax
  00008	74 19		 je	 SHORT $LN7@Cons_val
  0000a	8b 4d 10	 mov	 ecx, DWORD PTR __Src$[ebp]
  0000d	8b 11		 mov	 edx, DWORD PTR [ecx]
  0000f	89 10		 mov	 DWORD PTR [eax], edx
  00011	8b 51 04	 mov	 edx, DWORD PTR [ecx+4]
  00014	89 50 04	 mov	 DWORD PTR [eax+4], edx
  00017	8b 51 08	 mov	 edx, DWORD PTR [ecx+8]
  0001a	89 50 08	 mov	 DWORD PTR [eax+8], edx
  0001d	8b 49 0c	 mov	 ecx, DWORD PTR [ecx+12]
  00020	89 48 0c	 mov	 DWORD PTR [eax+12], ecx
$LN7@Cons_val:

; 281  : 	}

  00023	5d		 pop	 ebp
  00024	c3		 ret	 0
??$_Cons_val@V?$allocator@UBROTHER_DATA@@@std@@UBROTHER_DATA@@AAU3@@std@@YAXAAV?$allocator@UBROTHER_DATA@@@0@PAUBROTHER_DATA@@AAU2@@Z ENDP ; std::_Cons_val<std::allocator<BROTHER_DATA>,BROTHER_DATA,BROTHER_DATA &>
_TEXT	ENDS
PUBLIC	__TI2?AVbad_alloc@std@@
PUBLIC	??$_Allocate@UBROTHER_DATA@@@std@@YAPAUBROTHER_DATA@@IPAU1@@Z ; std::_Allocate<BROTHER_DATA>
PUBLIC	__CTA2?AVbad_alloc@std@@
PUBLIC	__CT??_R0?AVbad_alloc@std@@@8??0bad_alloc@std@@QAE@ABV01@@Z12
PUBLIC	??0bad_alloc@std@@QAE@ABV01@@Z			; std::bad_alloc::bad_alloc
PUBLIC	__CT??_R0?AVexception@std@@@8??0exception@std@@QAE@ABV01@@Z12
EXTRN	??2@YAPAXI@Z:PROC				; operator new
EXTRN	__CxxThrowException@8:PROC
EXTRN	??0exception@std@@QAE@ABV01@@Z:PROC		; std::exception::exception
;	COMDAT __CT??_R0?AVexception@std@@@8??0exception@std@@QAE@ABV01@@Z12
; File d:\program files (x86)\microsoft visual studio 10.0\vc\include\exception
xdata$x	SEGMENT
__CT??_R0?AVexception@std@@@8??0exception@std@@QAE@ABV01@@Z12 DD 00H
	DD	FLAT:??_R0?AVexception@std@@@8
	DD	00H
	DD	0ffffffffH
	ORG $+4
	DD	0cH
	DD	FLAT:??0exception@std@@QAE@ABV01@@Z
xdata$x	ENDS
;	COMDAT __CT??_R0?AVbad_alloc@std@@@8??0bad_alloc@std@@QAE@ABV01@@Z12
xdata$x	SEGMENT
__CT??_R0?AVbad_alloc@std@@@8??0bad_alloc@std@@QAE@ABV01@@Z12 DD 00H
	DD	FLAT:??_R0?AVbad_alloc@std@@@8
	DD	00H
	DD	0ffffffffH
	ORG $+4
	DD	0cH
	DD	FLAT:??0bad_alloc@std@@QAE@ABV01@@Z
xdata$x	ENDS
;	COMDAT __CTA2?AVbad_alloc@std@@
xdata$x	SEGMENT
__CTA2?AVbad_alloc@std@@ DD 02H
	DD	FLAT:__CT??_R0?AVbad_alloc@std@@@8??0bad_alloc@std@@QAE@ABV01@@Z12
	DD	FLAT:__CT??_R0?AVexception@std@@@8??0exception@std@@QAE@ABV01@@Z12
xdata$x	ENDS
;	COMDAT __TI2?AVbad_alloc@std@@
xdata$x	SEGMENT
__TI2?AVbad_alloc@std@@ DD 00H
	DD	FLAT:??1bad_alloc@std@@UAE@XZ
	DD	00H
	DD	FLAT:__CTA2?AVbad_alloc@std@@
; Function compile flags: /Ogtp
; File d:\program files (x86)\microsoft visual studio 10.0\vc\include\xmemory
xdata$x	ENDS
;	COMDAT ??$_Allocate@UBROTHER_DATA@@@std@@YAPAUBROTHER_DATA@@IPAU1@@Z
_TEXT	SEGMENT
$T213821 = -12						; size = 12
$T213826 = 8						; size = 4
__Count$ = 8						; size = 4
___formal$ = 12						; size = 4
??$_Allocate@UBROTHER_DATA@@@std@@YAPAUBROTHER_DATA@@IPAU1@@Z PROC ; std::_Allocate<BROTHER_DATA>, COMDAT

; 30   : 	{	// allocate storage for _Count elements of type _Ty

  00000	55		 push	 ebp
  00001	8b ec		 mov	 ebp, esp

; 31   : 	void *_Ptr = 0;
; 32   : 
; 33   : 	if (_Count <= 0)

  00003	8b 4d 08	 mov	 ecx, DWORD PTR __Count$[ebp]
  00006	83 ec 0c	 sub	 esp, 12			; 0000000cH
  00009	33 c0		 xor	 eax, eax
  0000b	85 c9		 test	 ecx, ecx

; 34   : 		_Count = 0;
; 35   : 	else if (((_SIZT)(-1) / sizeof (_Ty) < _Count)

  0000d	74 40		 je	 SHORT $LN5@Allocate

; 36   : 		|| (_Ptr = ::operator new(_Count * sizeof (_Ty))) == 0)

  0000f	81 f9 ff ff ff
	0f		 cmp	 ecx, 268435455		; 0fffffffH
  00015	77 10		 ja	 SHORT $LN1@Allocate
  00017	c1 e1 04	 shl	 ecx, 4
  0001a	51		 push	 ecx
  0001b	e8 00 00 00 00	 call	 ??2@YAPAXI@Z		; operator new
  00020	83 c4 04	 add	 esp, 4
  00023	85 c0		 test	 eax, eax

; 38   : 
; 39   : 	return ((_Ty _FARQ *)_Ptr);

  00025	75 28		 jne	 SHORT $LN5@Allocate
$LN1@Allocate:

; 37   : 		_THROW_NCEE(bad_alloc, 0);

  00027	8d 45 08	 lea	 eax, DWORD PTR $T213826[ebp]
  0002a	50		 push	 eax
  0002b	8d 4d f4	 lea	 ecx, DWORD PTR $T213821[ebp]
  0002e	c7 45 08 00 00
	00 00		 mov	 DWORD PTR $T213826[ebp], 0
  00035	e8 00 00 00 00	 call	 ??0exception@std@@QAE@ABQBD@Z ; std::exception::exception
  0003a	68 00 00 00 00	 push	 OFFSET __TI2?AVbad_alloc@std@@
  0003f	8d 4d f4	 lea	 ecx, DWORD PTR $T213821[ebp]
  00042	51		 push	 ecx
  00043	c7 45 f4 00 00
	00 00		 mov	 DWORD PTR $T213821[ebp], OFFSET ??_7bad_alloc@std@@6B@
  0004a	e8 00 00 00 00	 call	 __CxxThrowException@8
$LN10@Allocate:
$LN5@Allocate:

; 40   : 	}

  0004f	8b e5		 mov	 esp, ebp
  00051	5d		 pop	 ebp
  00052	c3		 ret	 0
$LN9@Allocate:
??$_Allocate@UBROTHER_DATA@@@std@@YAPAUBROTHER_DATA@@IPAU1@@Z ENDP ; std::_Allocate<BROTHER_DATA>
; Function compile flags: /Ogtp
_TEXT	ENDS
;	COMDAT ??0bad_alloc@std@@QAE@ABV01@@Z
_TEXT	SEGMENT
___that$ = 8						; size = 4
??0bad_alloc@std@@QAE@ABV01@@Z PROC			; std::bad_alloc::bad_alloc, COMDAT
; _this$ = ecx
  00000	55		 push	 ebp
  00001	8b ec		 mov	 ebp, esp
  00003	8b 45 08	 mov	 eax, DWORD PTR ___that$[ebp]
  00006	56		 push	 esi
  00007	50		 push	 eax
  00008	8b f1		 mov	 esi, ecx
  0000a	e8 00 00 00 00	 call	 ??0exception@std@@QAE@ABV01@@Z ; std::exception::exception
  0000f	c7 06 00 00 00
	00		 mov	 DWORD PTR [esi], OFFSET ??_7bad_alloc@std@@6B@
  00015	8b c6		 mov	 eax, esi
  00017	5e		 pop	 esi
  00018	5d		 pop	 ebp
  00019	c2 04 00	 ret	 4
??0bad_alloc@std@@QAE@ABV01@@Z ENDP			; std::bad_alloc::bad_alloc
_TEXT	ENDS
PUBLIC	?construct@?$allocator@UBROTHER_DATA@@@std@@QAEXPAUBROTHER_DATA@@ABU3@@Z ; std::allocator<BROTHER_DATA>::construct
; Function compile flags: /Ogtp
;	COMDAT ?construct@?$allocator@UBROTHER_DATA@@@std@@QAEXPAUBROTHER_DATA@@ABU3@@Z
_TEXT	SEGMENT
__Ptr$ = 8						; size = 4
__Val$ = 12						; size = 4
?construct@?$allocator@UBROTHER_DATA@@@std@@QAEXPAUBROTHER_DATA@@ABU3@@Z PROC ; std::allocator<BROTHER_DATA>::construct, COMDAT
; _this$ = ecx

; 196  : 		{	// construct object at _Ptr with value _Val

  00000	55		 push	 ebp
  00001	8b ec		 mov	 ebp, esp

; 197  : 		_Construct(_Ptr, _Val);

  00003	8b 45 08	 mov	 eax, DWORD PTR __Ptr$[ebp]
  00006	85 c0		 test	 eax, eax
  00008	74 19		 je	 SHORT $LN5@construct@2
  0000a	8b 4d 0c	 mov	 ecx, DWORD PTR __Val$[ebp]
  0000d	8b 11		 mov	 edx, DWORD PTR [ecx]
  0000f	89 10		 mov	 DWORD PTR [eax], edx
  00011	8b 51 04	 mov	 edx, DWORD PTR [ecx+4]
  00014	89 50 04	 mov	 DWORD PTR [eax+4], edx
  00017	8b 51 08	 mov	 edx, DWORD PTR [ecx+8]
  0001a	89 50 08	 mov	 DWORD PTR [eax+8], edx
  0001d	8b 49 0c	 mov	 ecx, DWORD PTR [ecx+12]
  00020	89 48 0c	 mov	 DWORD PTR [eax+12], ecx
$LN5@construct@2:

; 198  : 		}

  00023	5d		 pop	 ebp
  00024	c2 08 00	 ret	 8
?construct@?$allocator@UBROTHER_DATA@@@std@@QAEXPAUBROTHER_DATA@@ABU3@@Z ENDP ; std::allocator<BROTHER_DATA>::construct
_TEXT	ENDS
PUBLIC	?destroy@?$allocator@UBROTHER_DATA@@@std@@QAEXPAUBROTHER_DATA@@@Z ; std::allocator<BROTHER_DATA>::destroy
; Function compile flags: /Ogtp
;	COMDAT ?destroy@?$allocator@UBROTHER_DATA@@@std@@QAEXPAUBROTHER_DATA@@@Z
_TEXT	SEGMENT
__Ptr$ = 8						; size = 4
?destroy@?$allocator@UBROTHER_DATA@@@std@@QAEXPAUBROTHER_DATA@@@Z PROC ; std::allocator<BROTHER_DATA>::destroy, COMDAT
; _this$ = ecx

; 213  : 		_Destroy(_Ptr);
; 214  : 		}

  00000	c2 04 00	 ret	 4
?destroy@?$allocator@UBROTHER_DATA@@@std@@QAEXPAUBROTHER_DATA@@@Z ENDP ; std::allocator<BROTHER_DATA>::destroy
_TEXT	ENDS
PUBLIC	?construct@?$allocator@UBROTHER_DATA@@@std@@QAEXPAUBROTHER_DATA@@$$QAU3@@Z ; std::allocator<BROTHER_DATA>::construct
; Function compile flags: /Ogtp
;	COMDAT ?construct@?$allocator@UBROTHER_DATA@@@std@@QAEXPAUBROTHER_DATA@@$$QAU3@@Z
_TEXT	SEGMENT
__Ptr$ = 8						; size = 4
__Val$ = 12						; size = 4
?construct@?$allocator@UBROTHER_DATA@@@std@@QAEXPAUBROTHER_DATA@@$$QAU3@@Z PROC ; std::allocator<BROTHER_DATA>::construct, COMDAT
; _this$ = ecx

; 201  : 		{	// construct object at _Ptr with value _Val

  00000	55		 push	 ebp
  00001	8b ec		 mov	 ebp, esp

; 202  : 		::new ((void _FARQ *)_Ptr) _Ty(_STD forward<_Ty>(_Val));

  00003	8b 45 08	 mov	 eax, DWORD PTR __Ptr$[ebp]
  00006	85 c0		 test	 eax, eax
  00008	74 19		 je	 SHORT $LN3@construct@3
  0000a	8b 4d 0c	 mov	 ecx, DWORD PTR __Val$[ebp]
  0000d	8b 11		 mov	 edx, DWORD PTR [ecx]
  0000f	89 10		 mov	 DWORD PTR [eax], edx
  00011	8b 51 04	 mov	 edx, DWORD PTR [ecx+4]
  00014	89 50 04	 mov	 DWORD PTR [eax+4], edx
  00017	8b 51 08	 mov	 edx, DWORD PTR [ecx+8]
  0001a	89 50 08	 mov	 DWORD PTR [eax+8], edx
  0001d	8b 49 0c	 mov	 ecx, DWORD PTR [ecx+12]
  00020	89 48 0c	 mov	 DWORD PTR [eax+12], ecx
$LN3@construct@3:

; 203  : 		}

  00023	5d		 pop	 ebp
  00024	c2 08 00	 ret	 8
?construct@?$allocator@UBROTHER_DATA@@@std@@QAEXPAUBROTHER_DATA@@$$QAU3@@Z ENDP ; std::allocator<BROTHER_DATA>::construct
_TEXT	ENDS
PUBLIC	??0?$vector@UBROTHER_DATA@@V?$allocator@UBROTHER_DATA@@@std@@@std@@QAE@XZ ; std::vector<BROTHER_DATA,std::allocator<BROTHER_DATA> >::vector<BROTHER_DATA,std::allocator<BROTHER_DATA> >
; Function compile flags: /Ogtp
; File d:\program files (x86)\microsoft visual studio 10.0\vc\include\vector
;	COMDAT ??0?$vector@UBROTHER_DATA@@V?$allocator@UBROTHER_DATA@@@std@@@std@@QAE@XZ
_TEXT	SEGMENT
??0?$vector@UBROTHER_DATA@@V?$allocator@UBROTHER_DATA@@@std@@@std@@QAE@XZ PROC ; std::vector<BROTHER_DATA,std::allocator<BROTHER_DATA> >::vector<BROTHER_DATA,std::allocator<BROTHER_DATA> >, COMDAT
; _this$ = ecx

; 507  : 		{	// construct empty vector

  00000	8b c1		 mov	 eax, ecx
  00002	33 c9		 xor	 ecx, ecx
  00004	89 08		 mov	 DWORD PTR [eax], ecx
  00006	89 48 04	 mov	 DWORD PTR [eax+4], ecx
  00009	89 48 08	 mov	 DWORD PTR [eax+8], ecx

; 508  : 		}

  0000c	c3		 ret	 0
??0?$vector@UBROTHER_DATA@@V?$allocator@UBROTHER_DATA@@@std@@@std@@QAE@XZ ENDP ; std::vector<BROTHER_DATA,std::allocator<BROTHER_DATA> >::vector<BROTHER_DATA,std::allocator<BROTHER_DATA> >
_TEXT	ENDS
PUBLIC	?allocate@?$allocator@UBROTHER_DATA@@@std@@QAEPAUBROTHER_DATA@@I@Z ; std::allocator<BROTHER_DATA>::allocate
; Function compile flags: /Ogtp
; File d:\program files (x86)\microsoft visual studio 10.0\vc\include\xmemory
;	COMDAT ?allocate@?$allocator@UBROTHER_DATA@@@std@@QAEPAUBROTHER_DATA@@I@Z
_TEXT	SEGMENT
$T213907 = -12						; size = 12
$T213899 = 8						; size = 4
__Count$ = 8						; size = 4
?allocate@?$allocator@UBROTHER_DATA@@@std@@QAEPAUBROTHER_DATA@@I@Z PROC ; std::allocator<BROTHER_DATA>::allocate, COMDAT
; _this$ = ecx

; 186  : 		{	// allocate array of _Count elements

  00000	55		 push	 ebp
  00001	8b ec		 mov	 ebp, esp

; 187  : 		return (_Allocate(_Count, (pointer)0));

  00003	8b 4d 08	 mov	 ecx, DWORD PTR __Count$[ebp]
  00006	83 ec 0c	 sub	 esp, 12			; 0000000cH
  00009	33 c0		 xor	 eax, eax
  0000b	85 c9		 test	 ecx, ecx
  0000d	74 40		 je	 SHORT $LN1@allocate
  0000f	81 f9 ff ff ff
	0f		 cmp	 ecx, 268435455		; 0fffffffH
  00015	77 10		 ja	 SHORT $LN3@allocate
  00017	c1 e1 04	 shl	 ecx, 4
  0001a	51		 push	 ecx
  0001b	e8 00 00 00 00	 call	 ??2@YAPAXI@Z		; operator new
  00020	83 c4 04	 add	 esp, 4
  00023	85 c0		 test	 eax, eax
  00025	75 28		 jne	 SHORT $LN1@allocate
$LN3@allocate:
  00027	8d 45 08	 lea	 eax, DWORD PTR $T213899[ebp]
  0002a	50		 push	 eax
  0002b	8d 4d f4	 lea	 ecx, DWORD PTR $T213907[ebp]
  0002e	c7 45 08 00 00
	00 00		 mov	 DWORD PTR $T213899[ebp], 0
  00035	e8 00 00 00 00	 call	 ??0exception@std@@QAE@ABQBD@Z ; std::exception::exception
  0003a	68 00 00 00 00	 push	 OFFSET __TI2?AVbad_alloc@std@@
  0003f	8d 4d f4	 lea	 ecx, DWORD PTR $T213907[ebp]
  00042	51		 push	 ecx
  00043	c7 45 f4 00 00
	00 00		 mov	 DWORD PTR $T213907[ebp], OFFSET ??_7bad_alloc@std@@6B@
  0004a	e8 00 00 00 00	 call	 __CxxThrowException@8
$LN13@allocate:
$LN1@allocate:

; 188  : 		}

  0004f	8b e5		 mov	 esp, ebp
  00051	5d		 pop	 ebp
  00052	c2 04 00	 ret	 4
$LN12@allocate:
?allocate@?$allocator@UBROTHER_DATA@@@std@@QAEPAUBROTHER_DATA@@I@Z ENDP ; std::allocator<BROTHER_DATA>::allocate
_TEXT	ENDS
PUBLIC	??$_Cons_val@V?$allocator@UBROTHER_DATA@@@std@@UBROTHER_DATA@@ABU3@@std@@YAXAAV?$allocator@UBROTHER_DATA@@@0@PAUBROTHER_DATA@@ABU2@@Z ; std::_Cons_val<std::allocator<BROTHER_DATA>,BROTHER_DATA,BROTHER_DATA const &>
; Function compile flags: /Ogtp
;	COMDAT ??$_Cons_val@V?$allocator@UBROTHER_DATA@@@std@@UBROTHER_DATA@@ABU3@@std@@YAXAAV?$allocator@UBROTHER_DATA@@@0@PAUBROTHER_DATA@@ABU2@@Z
_TEXT	SEGMENT
__Alval$ = 8						; size = 4
__Pdest$ = 12						; size = 4
__Src$ = 16						; size = 4
??$_Cons_val@V?$allocator@UBROTHER_DATA@@@std@@UBROTHER_DATA@@ABU3@@std@@YAXAAV?$allocator@UBROTHER_DATA@@@0@PAUBROTHER_DATA@@ABU2@@Z PROC ; std::_Cons_val<std::allocator<BROTHER_DATA>,BROTHER_DATA,BROTHER_DATA const &>, COMDAT

; 279  : 	{	// construct using allocator

  00000	55		 push	 ebp
  00001	8b ec		 mov	 ebp, esp

; 280  : 	_Alval.construct(_Pdest, _STD forward<_Ty2>(_Src));

  00003	8b 45 0c	 mov	 eax, DWORD PTR __Pdest$[ebp]
  00006	85 c0		 test	 eax, eax
  00008	74 19		 je	 SHORT $LN9@Cons_val@2
  0000a	8b 4d 10	 mov	 ecx, DWORD PTR __Src$[ebp]
  0000d	8b 11		 mov	 edx, DWORD PTR [ecx]
  0000f	89 10		 mov	 DWORD PTR [eax], edx
  00011	8b 51 04	 mov	 edx, DWORD PTR [ecx+4]
  00014	89 50 04	 mov	 DWORD PTR [eax+4], edx
  00017	8b 51 08	 mov	 edx, DWORD PTR [ecx+8]
  0001a	89 50 08	 mov	 DWORD PTR [eax+8], edx
  0001d	8b 49 0c	 mov	 ecx, DWORD PTR [ecx+12]
  00020	89 48 0c	 mov	 DWORD PTR [eax+12], ecx
$LN9@Cons_val@2:

; 281  : 	}

  00023	5d		 pop	 ebp
  00024	c3		 ret	 0
??$_Cons_val@V?$allocator@UBROTHER_DATA@@@std@@UBROTHER_DATA@@ABU3@@std@@YAXAAV?$allocator@UBROTHER_DATA@@@0@PAUBROTHER_DATA@@ABU2@@Z ENDP ; std::_Cons_val<std::allocator<BROTHER_DATA>,BROTHER_DATA,BROTHER_DATA const &>
_TEXT	ENDS
PUBLIC	??$_Dest_val@V?$allocator@UBROTHER_DATA@@@std@@UBROTHER_DATA@@@std@@YAXAAV?$allocator@UBROTHER_DATA@@@0@PAUBROTHER_DATA@@@Z ; std::_Dest_val<std::allocator<BROTHER_DATA>,BROTHER_DATA>
; Function compile flags: /Ogtp
;	COMDAT ??$_Dest_val@V?$allocator@UBROTHER_DATA@@@std@@UBROTHER_DATA@@@std@@YAXAAV?$allocator@UBROTHER_DATA@@@0@PAUBROTHER_DATA@@@Z
_TEXT	SEGMENT
__Alval$ = 8						; size = 4
__Pdest$ = 12						; size = 4
??$_Dest_val@V?$allocator@UBROTHER_DATA@@@std@@UBROTHER_DATA@@@std@@YAXAAV?$allocator@UBROTHER_DATA@@@0@PAUBROTHER_DATA@@@Z PROC ; std::_Dest_val<std::allocator<BROTHER_DATA>,BROTHER_DATA>, COMDAT

; 287  : 	_Alval.destroy(_Pdest);
; 288  : 	}

  00000	c3		 ret	 0
??$_Dest_val@V?$allocator@UBROTHER_DATA@@@std@@UBROTHER_DATA@@@std@@YAXAAV?$allocator@UBROTHER_DATA@@@0@PAUBROTHER_DATA@@@Z ENDP ; std::_Dest_val<std::allocator<BROTHER_DATA>,BROTHER_DATA>
_TEXT	ENDS
PUBLIC	??$_Cons_val@V?$allocator@UBROTHER_DATA@@@std@@UBROTHER_DATA@@U3@@std@@YAXAAV?$allocator@UBROTHER_DATA@@@0@PAUBROTHER_DATA@@$$QAU2@@Z ; std::_Cons_val<std::allocator<BROTHER_DATA>,BROTHER_DATA,BROTHER_DATA>
; Function compile flags: /Ogtp
;	COMDAT ??$_Cons_val@V?$allocator@UBROTHER_DATA@@@std@@UBROTHER_DATA@@U3@@std@@YAXAAV?$allocator@UBROTHER_DATA@@@0@PAUBROTHER_DATA@@$$QAU2@@Z
_TEXT	SEGMENT
__Alval$ = 8						; size = 4
__Pdest$ = 12						; size = 4
__Src$ = 16						; size = 4
??$_Cons_val@V?$allocator@UBROTHER_DATA@@@std@@UBROTHER_DATA@@U3@@std@@YAXAAV?$allocator@UBROTHER_DATA@@@0@PAUBROTHER_DATA@@$$QAU2@@Z PROC ; std::_Cons_val<std::allocator<BROTHER_DATA>,BROTHER_DATA,BROTHER_DATA>, COMDAT

; 279  : 	{	// construct using allocator

  00000	55		 push	 ebp
  00001	8b ec		 mov	 ebp, esp

; 280  : 	_Alval.construct(_Pdest, _STD forward<_Ty2>(_Src));

  00003	8b 45 0c	 mov	 eax, DWORD PTR __Pdest$[ebp]
  00006	85 c0		 test	 eax, eax
  00008	74 19		 je	 SHORT $LN7@Cons_val@3
  0000a	8b 4d 10	 mov	 ecx, DWORD PTR __Src$[ebp]
  0000d	8b 11		 mov	 edx, DWORD PTR [ecx]
  0000f	89 10		 mov	 DWORD PTR [eax], edx
  00011	8b 51 04	 mov	 edx, DWORD PTR [ecx+4]
  00014	89 50 04	 mov	 DWORD PTR [eax+4], edx
  00017	8b 51 08	 mov	 edx, DWORD PTR [ecx+8]
  0001a	89 50 08	 mov	 DWORD PTR [eax+8], edx
  0001d	8b 49 0c	 mov	 ecx, DWORD PTR [ecx+12]
  00020	89 48 0c	 mov	 DWORD PTR [eax+12], ecx
$LN7@Cons_val@3:

; 281  : 	}

  00023	5d		 pop	 ebp
  00024	c3		 ret	 0
??$_Cons_val@V?$allocator@UBROTHER_DATA@@@std@@UBROTHER_DATA@@U3@@std@@YAXAAV?$allocator@UBROTHER_DATA@@@0@PAUBROTHER_DATA@@$$QAU2@@Z ENDP ; std::_Cons_val<std::allocator<BROTHER_DATA>,BROTHER_DATA,BROTHER_DATA>
_TEXT	ENDS
PUBLIC	??$_Destroy_range@V?$allocator@UBROTHER_DATA@@@std@@@std@@YAXPAUBROTHER_DATA@@0AAV?$allocator@UBROTHER_DATA@@@0@U_Nonscalar_ptr_iterator_tag@0@@Z ; std::_Destroy_range<std::allocator<BROTHER_DATA> >
; Function compile flags: /Ogtp
;	COMDAT ??$_Destroy_range@V?$allocator@UBROTHER_DATA@@@std@@@std@@YAXPAUBROTHER_DATA@@0AAV?$allocator@UBROTHER_DATA@@@0@U_Nonscalar_ptr_iterator_tag@0@@Z
_TEXT	SEGMENT
__First$ = 8						; size = 4
__Last$ = 12						; size = 4
__Al$ = 16						; size = 4
___formal$ = 20						; size = 1
??$_Destroy_range@V?$allocator@UBROTHER_DATA@@@std@@@std@@YAXPAUBROTHER_DATA@@0AAV?$allocator@UBROTHER_DATA@@@0@U_Nonscalar_ptr_iterator_tag@0@@Z PROC ; std::_Destroy_range<std::allocator<BROTHER_DATA> >, COMDAT

; 96   : 	for (; _First != _Last; ++_First)
; 97   : 		_Dest_val(_Al, _First);
; 98   : 	}

  00000	c3		 ret	 0
??$_Destroy_range@V?$allocator@UBROTHER_DATA@@@std@@@std@@YAXPAUBROTHER_DATA@@0AAV?$allocator@UBROTHER_DATA@@@0@U_Nonscalar_ptr_iterator_tag@0@@Z ENDP ; std::_Destroy_range<std::allocator<BROTHER_DATA> >
_TEXT	ENDS
PUBLIC	??$_Uninit_move@PAUBROTHER_DATA@@PAU1@V?$allocator@UBROTHER_DATA@@@std@@U1@@std@@YAPAUBROTHER_DATA@@PAU1@00AAV?$allocator@UBROTHER_DATA@@@0@0U_Nonscalar_ptr_iterator_tag@0@@Z ; std::_Uninit_move<BROTHER_DATA *,BROTHER_DATA *,std::allocator<BROTHER_DATA>,BROTHER_DATA>
; Function compile flags: /Ogtp
; File d:\program files (x86)\microsoft visual studio 10.0\vc\include\memory
;	COMDAT ??$_Uninit_move@PAUBROTHER_DATA@@PAU1@V?$allocator@UBROTHER_DATA@@@std@@U1@@std@@YAPAUBROTHER_DATA@@PAU1@00AAV?$allocator@UBROTHER_DATA@@@0@0U_Nonscalar_ptr_iterator_tag@0@@Z
_TEXT	SEGMENT
__First$ = 8						; size = 4
__Last$ = 12						; size = 4
__Dest$ = 16						; size = 4
__Al$ = 20						; size = 4
___formal$ = 24						; size = 4
___formal$ = 28						; size = 1
??$_Uninit_move@PAUBROTHER_DATA@@PAU1@V?$allocator@UBROTHER_DATA@@@std@@U1@@std@@YAPAUBROTHER_DATA@@PAU1@00AAV?$allocator@UBROTHER_DATA@@@0@0U_Nonscalar_ptr_iterator_tag@0@@Z PROC ; std::_Uninit_move<BROTHER_DATA *,BROTHER_DATA *,std::allocator<BROTHER_DATA>,BROTHER_DATA>, COMDAT

; 424  : 	{	// move [_First, _Last) to raw _Dest, using _Al, arbitrary type

  00000	55		 push	 ebp
  00001	8b ec		 mov	 ebp, esp
  00003	53		 push	 ebx

; 425  : 	_DEBUG_RANGE(_First, _Last);
; 426  : 	_DEBUG_POINTER(_Dest);
; 427  : 	_FwdIt _Next = _Dest;
; 428  : 
; 429  : 	_TRY_BEGIN
; 430  : 	for (; _First != _Last; ++_Dest, ++_First)

  00004	8b 5d 0c	 mov	 ebx, DWORD PTR __Last$[ebp]
  00007	56		 push	 esi
  00008	8b 75 08	 mov	 esi, DWORD PTR __First$[ebp]
  0000b	3b f3		 cmp	 esi, ebx
  0000d	74 23		 je	 SHORT $LN17@Uninit_mov
  0000f	57		 push	 edi
  00010	8b 7d 10	 mov	 edi, DWORD PTR __Dest$[ebp]
$LL6@Uninit_mov:

; 431  : 		_Cons_val(_Al, _Dest, (_Valty &&)*_First);

  00013	8b 45 14	 mov	 eax, DWORD PTR __Al$[ebp]
  00016	56		 push	 esi
  00017	57		 push	 edi
  00018	50		 push	 eax
  00019	e8 00 00 00 00	 call	 ??$_Cons_val@V?$allocator@UBROTHER_DATA@@@std@@UBROTHER_DATA@@U3@@std@@YAXAAV?$allocator@UBROTHER_DATA@@@0@PAUBROTHER_DATA@@$$QAU2@@Z ; std::_Cons_val<std::allocator<BROTHER_DATA>,BROTHER_DATA,BROTHER_DATA>
  0001e	83 c6 10	 add	 esi, 16			; 00000010H
  00021	83 c4 0c	 add	 esp, 12			; 0000000cH
  00024	83 c7 10	 add	 edi, 16			; 00000010H
  00027	3b f3		 cmp	 esi, ebx
  00029	75 e8		 jne	 SHORT $LL6@Uninit_mov

; 432  : 	_CATCH_ALL
; 433  : 	for (; _Next != _Dest; ++_Next)
; 434  : 		_Dest_val(_Al, _Next);
; 435  : 	_RERAISE;
; 436  : 	_CATCH_END
; 437  : 	return (_Dest);

  0002b	8b c7		 mov	 eax, edi
  0002d	5f		 pop	 edi
  0002e	5e		 pop	 esi
  0002f	5b		 pop	 ebx

; 438  : 	}

  00030	5d		 pop	 ebp
  00031	c3		 ret	 0
$LN17@Uninit_mov:

; 432  : 	_CATCH_ALL
; 433  : 	for (; _Next != _Dest; ++_Next)
; 434  : 		_Dest_val(_Al, _Next);
; 435  : 	_RERAISE;
; 436  : 	_CATCH_END
; 437  : 	return (_Dest);

  00032	8b 45 10	 mov	 eax, DWORD PTR __Dest$[ebp]
  00035	5e		 pop	 esi
  00036	5b		 pop	 ebx

; 438  : 	}

  00037	5d		 pop	 ebp
  00038	c3		 ret	 0
??$_Uninit_move@PAUBROTHER_DATA@@PAU1@V?$allocator@UBROTHER_DATA@@@std@@U1@@std@@YAPAUBROTHER_DATA@@PAU1@00AAV?$allocator@UBROTHER_DATA@@@0@0U_Nonscalar_ptr_iterator_tag@0@@Z ENDP ; std::_Uninit_move<BROTHER_DATA *,BROTHER_DATA *,std::allocator<BROTHER_DATA>,BROTHER_DATA>
_TEXT	ENDS
PUBLIC	??$_Destroy_range@V?$allocator@UBROTHER_DATA@@@std@@@std@@YAXPAUBROTHER_DATA@@0AAV?$allocator@UBROTHER_DATA@@@0@@Z ; std::_Destroy_range<std::allocator<BROTHER_DATA> >
; Function compile flags: /Ogtp
; File d:\program files (x86)\microsoft visual studio 10.0\vc\include\xmemory
;	COMDAT ??$_Destroy_range@V?$allocator@UBROTHER_DATA@@@std@@@std@@YAXPAUBROTHER_DATA@@0AAV?$allocator@UBROTHER_DATA@@@0@@Z
_TEXT	SEGMENT
__First$ = 8						; size = 4
__Last$ = 12						; size = 4
__Al$ = 16						; size = 4
??$_Destroy_range@V?$allocator@UBROTHER_DATA@@@std@@@std@@YAXPAUBROTHER_DATA@@0AAV?$allocator@UBROTHER_DATA@@@0@@Z PROC ; std::_Destroy_range<std::allocator<BROTHER_DATA> >, COMDAT

; 88   : 	_Destroy_range(_First, _Last, _Al, _Ptr_cat(_First, _Last));
; 89   : 	}

  00000	c3		 ret	 0
??$_Destroy_range@V?$allocator@UBROTHER_DATA@@@std@@@std@@YAXPAUBROTHER_DATA@@0AAV?$allocator@UBROTHER_DATA@@@0@@Z ENDP ; std::_Destroy_range<std::allocator<BROTHER_DATA> >
_TEXT	ENDS
PUBLIC	??$_Uninitialized_move@PAUBROTHER_DATA@@PAU1@V?$allocator@UBROTHER_DATA@@@std@@@std@@YAPAUBROTHER_DATA@@PAU1@00AAV?$allocator@UBROTHER_DATA@@@0@@Z ; std::_Uninitialized_move<BROTHER_DATA *,BROTHER_DATA *,std::allocator<BROTHER_DATA> >
; Function compile flags: /Ogtp
; File d:\program files (x86)\microsoft visual studio 10.0\vc\include\memory
;	COMDAT ??$_Uninitialized_move@PAUBROTHER_DATA@@PAU1@V?$allocator@UBROTHER_DATA@@@std@@@std@@YAPAUBROTHER_DATA@@PAU1@00AAV?$allocator@UBROTHER_DATA@@@0@@Z
_TEXT	SEGMENT
__Cat$214017 = -4					; size = 1
__First$ = 8						; size = 4
__Last$ = 12						; size = 4
__Dest$ = 16						; size = 4
__Al$ = 20						; size = 4
??$_Uninitialized_move@PAUBROTHER_DATA@@PAU1@V?$allocator@UBROTHER_DATA@@@std@@@std@@YAPAUBROTHER_DATA@@PAU1@00AAV?$allocator@UBROTHER_DATA@@@0@@Z PROC ; std::_Uninitialized_move<BROTHER_DATA *,BROTHER_DATA *,std::allocator<BROTHER_DATA> >, COMDAT

; 469  : 	{	// move [_First, _Last) to raw _Dest, using _Al

  00000	55		 push	 ebp
  00001	8b ec		 mov	 ebp, esp
  00003	51		 push	 ecx

; 470  : 	return (_Uninit_move(_First, _Last, _Dest, _Al,
; 471  : 		_Val_type(_First), _Ptr_cat(_First, _Dest)));

  00004	8b 45 fc	 mov	 eax, DWORD PTR __Cat$214017[ebp]
  00007	8b 4d 14	 mov	 ecx, DWORD PTR __Al$[ebp]
  0000a	8b 55 10	 mov	 edx, DWORD PTR __Dest$[ebp]
  0000d	50		 push	 eax
  0000e	8b 45 0c	 mov	 eax, DWORD PTR __Last$[ebp]
  00011	6a 00		 push	 0
  00013	51		 push	 ecx
  00014	8b 4d 08	 mov	 ecx, DWORD PTR __First$[ebp]
  00017	52		 push	 edx
  00018	50		 push	 eax
  00019	51		 push	 ecx
  0001a	e8 00 00 00 00	 call	 ??$_Uninit_move@PAUBROTHER_DATA@@PAU1@V?$allocator@UBROTHER_DATA@@@std@@U1@@std@@YAPAUBROTHER_DATA@@PAU1@00AAV?$allocator@UBROTHER_DATA@@@0@0U_Nonscalar_ptr_iterator_tag@0@@Z ; std::_Uninit_move<BROTHER_DATA *,BROTHER_DATA *,std::allocator<BROTHER_DATA>,BROTHER_DATA>
  0001f	83 c4 18	 add	 esp, 24			; 00000018H

; 472  : 	}

  00022	8b e5		 mov	 esp, ebp
  00024	5d		 pop	 ebp
  00025	c3		 ret	 0
??$_Uninitialized_move@PAUBROTHER_DATA@@PAU1@V?$allocator@UBROTHER_DATA@@@std@@@std@@YAPAUBROTHER_DATA@@PAU1@00AAV?$allocator@UBROTHER_DATA@@@0@@Z ENDP ; std::_Uninitialized_move<BROTHER_DATA *,BROTHER_DATA *,std::allocator<BROTHER_DATA> >
_TEXT	ENDS
PUBLIC	?_Destroy@?$vector@UBROTHER_DATA@@V?$allocator@UBROTHER_DATA@@@std@@@std@@IAEXPAUBROTHER_DATA@@0@Z ; std::vector<BROTHER_DATA,std::allocator<BROTHER_DATA> >::_Destroy
; Function compile flags: /Ogtp
; File d:\program files (x86)\microsoft visual studio 10.0\vc\include\vector
;	COMDAT ?_Destroy@?$vector@UBROTHER_DATA@@V?$allocator@UBROTHER_DATA@@@std@@@std@@IAEXPAUBROTHER_DATA@@0@Z
_TEXT	SEGMENT
__First$ = 8						; size = 4
__Last$ = 12						; size = 4
?_Destroy@?$vector@UBROTHER_DATA@@V?$allocator@UBROTHER_DATA@@@std@@@std@@IAEXPAUBROTHER_DATA@@0@Z PROC ; std::vector<BROTHER_DATA,std::allocator<BROTHER_DATA> >::_Destroy, COMDAT
; _this$ = ecx

; 1270 : 		_Destroy_range(_First, _Last, this->_Alval);
; 1271 : 		}

  00000	c2 08 00	 ret	 8
?_Destroy@?$vector@UBROTHER_DATA@@V?$allocator@UBROTHER_DATA@@@std@@@std@@IAEXPAUBROTHER_DATA@@0@Z ENDP ; std::vector<BROTHER_DATA,std::allocator<BROTHER_DATA> >::_Destroy
_TEXT	ENDS
PUBLIC	??$_Umove@PAUBROTHER_DATA@@@?$vector@UBROTHER_DATA@@V?$allocator@UBROTHER_DATA@@@std@@@std@@IAEPAUBROTHER_DATA@@PAU2@00@Z ; std::vector<BROTHER_DATA,std::allocator<BROTHER_DATA> >::_Umove<BROTHER_DATA *>
; Function compile flags: /Ogtp
;	COMDAT ??$_Umove@PAUBROTHER_DATA@@@?$vector@UBROTHER_DATA@@V?$allocator@UBROTHER_DATA@@@std@@@std@@IAEPAUBROTHER_DATA@@PAU2@00@Z
_TEXT	SEGMENT
__First$ = 8						; size = 4
__Last$ = 12						; size = 4
__Cat$214040 = 16					; size = 1
__Ptr$ = 16						; size = 4
??$_Umove@PAUBROTHER_DATA@@@?$vector@UBROTHER_DATA@@V?$allocator@UBROTHER_DATA@@@std@@@std@@IAEPAUBROTHER_DATA@@PAU2@00@Z PROC ; std::vector<BROTHER_DATA,std::allocator<BROTHER_DATA> >::_Umove<BROTHER_DATA *>, COMDAT
; _this$ = ecx

; 1322 : 		pointer _Umove(_Iter _First, _Iter _Last, pointer _Ptr)

  00000	55		 push	 ebp
  00001	8b ec		 mov	 ebp, esp

; 1323 : 		{	// move initializing [_First, _Last), using allocator
; 1324 : 		return (_Uninitialized_move(_First, _Last,
; 1325 : 			_Ptr, this->_Alval));

  00003	8b 45 10	 mov	 eax, DWORD PTR __Cat$214040[ebp]
  00006	8b 55 0c	 mov	 edx, DWORD PTR __Last$[ebp]
  00009	50		 push	 eax
  0000a	8b 45 08	 mov	 eax, DWORD PTR __First$[ebp]
  0000d	6a 00		 push	 0
  0000f	83 c1 0c	 add	 ecx, 12			; 0000000cH
  00012	51		 push	 ecx
  00013	8b 4d 10	 mov	 ecx, DWORD PTR __Ptr$[ebp]
  00016	51		 push	 ecx
  00017	52		 push	 edx
  00018	50		 push	 eax
  00019	e8 00 00 00 00	 call	 ??$_Uninit_move@PAUBROTHER_DATA@@PAU1@V?$allocator@UBROTHER_DATA@@@std@@U1@@std@@YAPAUBROTHER_DATA@@PAU1@00AAV?$allocator@UBROTHER_DATA@@@0@0U_Nonscalar_ptr_iterator_tag@0@@Z ; std::_Uninit_move<BROTHER_DATA *,BROTHER_DATA *,std::allocator<BROTHER_DATA>,BROTHER_DATA>
  0001e	83 c4 18	 add	 esp, 24			; 00000018H

; 1326 : 		}

  00021	5d		 pop	 ebp
  00022	c2 0c 00	 ret	 12			; 0000000cH
??$_Umove@PAUBROTHER_DATA@@@?$vector@UBROTHER_DATA@@V?$allocator@UBROTHER_DATA@@@std@@@std@@IAEPAUBROTHER_DATA@@PAU2@00@Z ENDP ; std::vector<BROTHER_DATA,std::allocator<BROTHER_DATA> >::_Umove<BROTHER_DATA *>
_TEXT	ENDS
PUBLIC	?_Tidy@?$vector@UBROTHER_DATA@@V?$allocator@UBROTHER_DATA@@@std@@@std@@IAEXXZ ; std::vector<BROTHER_DATA,std::allocator<BROTHER_DATA> >::_Tidy
; Function compile flags: /Ogtp
;	COMDAT ?_Tidy@?$vector@UBROTHER_DATA@@V?$allocator@UBROTHER_DATA@@@std@@@std@@IAEXXZ
_TEXT	SEGMENT
?_Tidy@?$vector@UBROTHER_DATA@@V?$allocator@UBROTHER_DATA@@@std@@@std@@IAEXXZ PROC ; std::vector<BROTHER_DATA,std::allocator<BROTHER_DATA> >::_Tidy, COMDAT
; _this$ = ecx

; 1301 : 		{	// free all storage

  00000	56		 push	 esi
  00001	8b f1		 mov	 esi, ecx

; 1302 : 		if (this->_Myfirst != 0)

  00003	8b 06		 mov	 eax, DWORD PTR [esi]
  00005	85 c0		 test	 eax, eax
  00007	74 09		 je	 SHORT $LN6@Tidy

; 1303 : 			{	// something to free, destroy and deallocate it
; 1304 : 			this->_Orphan_all();
; 1305 : 			_Destroy(this->_Myfirst, this->_Mylast);
; 1306 : 			this->_Alval.deallocate(this->_Myfirst,
; 1307 : 				this->_Myend - this->_Myfirst);

  00009	50		 push	 eax
  0000a	e8 00 00 00 00	 call	 ??3@YAXPAX@Z		; operator delete
  0000f	83 c4 04	 add	 esp, 4
$LN6@Tidy:

; 1308 : 			}
; 1309 : 		this->_Myfirst = 0;

  00012	c7 06 00 00 00
	00		 mov	 DWORD PTR [esi], 0

; 1310 : 		this->_Mylast = 0;

  00018	c7 46 04 00 00
	00 00		 mov	 DWORD PTR [esi+4], 0

; 1311 : 		this->_Myend = 0;

  0001f	c7 46 08 00 00
	00 00		 mov	 DWORD PTR [esi+8], 0
  00026	5e		 pop	 esi

; 1312 : 		}

  00027	c3		 ret	 0
?_Tidy@?$vector@UBROTHER_DATA@@V?$allocator@UBROTHER_DATA@@@std@@@std@@IAEXXZ ENDP ; std::vector<BROTHER_DATA,std::allocator<BROTHER_DATA> >::_Tidy
_TEXT	ENDS
PUBLIC	?reserve@?$vector@UBROTHER_DATA@@V?$allocator@UBROTHER_DATA@@@std@@@std@@QAEXI@Z ; std::vector<BROTHER_DATA,std::allocator<BROTHER_DATA> >::reserve
EXTRN	___CxxFrameHandler3:PROC
;	COMDAT xdata$x
; File d:\program files (x86)\microsoft visual studio 10.0\vc\include\xutility
xdata$x	SEGMENT
__catchsym$?reserve@?$vector@UBROTHER_DATA@@V?$allocator@UBROTHER_DATA@@@std@@@std@@QAEXI@Z$2 DD 040H
	DD	00H
	DD	00H
	DD	FLAT:__catch$?reserve@?$vector@UBROTHER_DATA@@V?$allocator@UBROTHER_DATA@@@std@@@std@@QAEXI@Z$0
__unwindtable$?reserve@?$vector@UBROTHER_DATA@@V?$allocator@UBROTHER_DATA@@@std@@@std@@QAEXI@Z DD 0ffffffffH
	DD	00H
	DD	0ffffffffH
	DD	00H
__tryblocktable$?reserve@?$vector@UBROTHER_DATA@@V?$allocator@UBROTHER_DATA@@@std@@@std@@QAEXI@Z DD 00H
	DD	00H
	DD	01H
	DD	01H
	DD	FLAT:__catchsym$?reserve@?$vector@UBROTHER_DATA@@V?$allocator@UBROTHER_DATA@@@std@@@std@@QAEXI@Z$2
__ehfuncinfo$?reserve@?$vector@UBROTHER_DATA@@V?$allocator@UBROTHER_DATA@@@std@@@std@@QAEXI@Z DD 019930522H
	DD	02H
	DD	FLAT:__unwindtable$?reserve@?$vector@UBROTHER_DATA@@V?$allocator@UBROTHER_DATA@@@std@@@std@@QAEXI@Z
	DD	01H
	DD	FLAT:__tryblocktable$?reserve@?$vector@UBROTHER_DATA@@V?$allocator@UBROTHER_DATA@@@std@@@std@@QAEXI@Z
	DD	2 DUP(00H)
	DD	00H
	DD	01H
; Function compile flags: /Ogtp
; File d:\program files (x86)\microsoft visual studio 10.0\vc\include\vector
xdata$x	ENDS
;	COMDAT ?reserve@?$vector@UBROTHER_DATA@@V?$allocator@UBROTHER_DATA@@@std@@@std@@QAEXI@Z
_TEXT	SEGMENT
__Ptr$212781 = -20					; size = 4
__$EHRec$ = -16						; size = 16
__Cat$214107 = 8					; size = 1
__Count$ = 8						; size = 4
?reserve@?$vector@UBROTHER_DATA@@V?$allocator@UBROTHER_DATA@@@std@@@std@@QAEXI@Z PROC ; std::vector<BROTHER_DATA,std::allocator<BROTHER_DATA> >::reserve, COMDAT
; _this$ = ecx

; 746  : 		{	// determine new minimum length of allocated storage

  00000	55		 push	 ebp
  00001	8b ec		 mov	 ebp, esp
  00003	6a ff		 push	 -1
  00005	68 00 00 00 00	 push	 __ehhandler$?reserve@?$vector@UBROTHER_DATA@@V?$allocator@UBROTHER_DATA@@@std@@@std@@QAEXI@Z
  0000a	64 a1 00 00 00
	00		 mov	 eax, DWORD PTR fs:0
  00010	50		 push	 eax
  00011	83 ec 08	 sub	 esp, 8
  00014	53		 push	 ebx
  00015	56		 push	 esi
  00016	57		 push	 edi
  00017	a1 00 00 00 00	 mov	 eax, DWORD PTR ___security_cookie
  0001c	33 c5		 xor	 eax, ebp
  0001e	50		 push	 eax
  0001f	8d 45 f4	 lea	 eax, DWORD PTR __$EHRec$[ebp+4]
  00022	64 a3 00 00 00
	00		 mov	 DWORD PTR fs:0, eax
  00028	89 65 f0	 mov	 DWORD PTR __$EHRec$[ebp], esp
  0002b	8b f1		 mov	 esi, ecx

; 747  : 		if (max_size() < _Count)

  0002d	8b 45 08	 mov	 eax, DWORD PTR __Count$[ebp]
  00030	3d ff ff ff 0f	 cmp	 eax, 268435455		; 0fffffffH
  00035	76 0a		 jbe	 SHORT $LN5@reserve

; 748  : 			_Xlen();	// result too long

  00037	68 00 00 00 00	 push	 OFFSET ??_C@_0BD@OLBABOEK@vector?$DMT?$DO?5too?5long?$AA@
  0003c	e8 00 00 00 00	 call	 ?_Xlength_error@std@@YAXPBD@Z ; std::_Xlength_error
$LN42@reserve:
$LN5@reserve:

; 749  : 		else if (capacity() < _Count)

  00041	8b 4e 08	 mov	 ecx, DWORD PTR [esi+8]
  00044	2b 0e		 sub	 ecx, DWORD PTR [esi]
  00046	c1 f9 04	 sar	 ecx, 4
  00049	3b c8		 cmp	 ecx, eax
  0004b	73 57		 jae	 SHORT $LN3@reserve

; 750  : 			{	// not enough room, reallocate
; 751  : 			pointer _Ptr = this->_Alval.allocate(_Count);

  0004d	8d 7e 0c	 lea	 edi, DWORD PTR [esi+12]
  00050	50		 push	 eax
  00051	8b cf		 mov	 ecx, edi
  00053	e8 00 00 00 00	 call	 ?allocate@?$allocator@UBROTHER_DATA@@@std@@QAEPAUBROTHER_DATA@@I@Z ; std::allocator<BROTHER_DATA>::allocate

; 752  : 
; 753  : 			_TRY_BEGIN
; 754  : 			_Umove(this->_Myfirst, this->_Mylast, _Ptr);

  00058	8b 55 08	 mov	 edx, DWORD PTR __Cat$214107[ebp]
  0005b	8b 0e		 mov	 ecx, DWORD PTR [esi]
  0005d	52		 push	 edx
  0005e	6a 00		 push	 0
  00060	8b d8		 mov	 ebx, eax
  00062	8b 46 04	 mov	 eax, DWORD PTR [esi+4]
  00065	57		 push	 edi
  00066	53		 push	 ebx
  00067	50		 push	 eax
  00068	51		 push	 ecx
  00069	89 5d ec	 mov	 DWORD PTR __Ptr$212781[ebp], ebx
  0006c	c7 45 fc 00 00
	00 00		 mov	 DWORD PTR __$EHRec$[ebp+12], 0
  00073	e8 00 00 00 00	 call	 ??$_Uninit_move@PAUBROTHER_DATA@@PAU1@V?$allocator@UBROTHER_DATA@@@std@@U1@@std@@YAPAUBROTHER_DATA@@PAU1@00AAV?$allocator@UBROTHER_DATA@@@0@0U_Nonscalar_ptr_iterator_tag@0@@Z ; std::_Uninit_move<BROTHER_DATA *,BROTHER_DATA *,std::allocator<BROTHER_DATA>,BROTHER_DATA>

; 758  : 			_CATCH_END
; 759  : 
; 760  : 			size_type _Size = size();

  00078	8b 06		 mov	 eax, DWORD PTR [esi]
  0007a	8b 7e 04	 mov	 edi, DWORD PTR [esi+4]
  0007d	83 c4 18	 add	 esp, 24			; 00000018H
  00080	2b f8		 sub	 edi, eax

; 761  : 			if (this->_Myfirst != 0)

  00082	85 c0		 test	 eax, eax
  00084	74 09		 je	 SHORT $LN35@reserve

; 762  : 				{	// destroy and deallocate old array
; 763  : 				_Destroy(this->_Myfirst, this->_Mylast);
; 764  : 				this->_Alval.deallocate(this->_Myfirst,
; 765  : 					this->_Myend - this->_Myfirst);

  00086	50		 push	 eax
  00087	e8 00 00 00 00	 call	 ??3@YAXPAX@Z		; operator delete
  0008c	83 c4 04	 add	 esp, 4
$LN35@reserve:

; 766  : 				}
; 767  : 
; 768  : 			this->_Orphan_all();
; 769  : 			this->_Myend = _Ptr + _Count;

  0008f	8b 45 08	 mov	 eax, DWORD PTR __Count$[ebp]
  00092	c1 e0 04	 shl	 eax, 4
  00095	03 c3		 add	 eax, ebx

; 770  : 			this->_Mylast = _Ptr + _Size;

  00097	83 e7 f0	 and	 edi, -16		; fffffff0H
  0009a	03 fb		 add	 edi, ebx
  0009c	89 46 08	 mov	 DWORD PTR [esi+8], eax
  0009f	89 7e 04	 mov	 DWORD PTR [esi+4], edi

; 771  : 			this->_Myfirst = _Ptr;

  000a2	89 1e		 mov	 DWORD PTR [esi], ebx
$LN3@reserve:

; 772  : 			}
; 773  : 		}

  000a4	8b 4d f4	 mov	 ecx, DWORD PTR __$EHRec$[ebp+4]
  000a7	64 89 0d 00 00
	00 00		 mov	 DWORD PTR fs:0, ecx
  000ae	59		 pop	 ecx
  000af	5f		 pop	 edi
  000b0	5e		 pop	 esi
  000b1	5b		 pop	 ebx
  000b2	8b e5		 mov	 esp, ebp
  000b4	5d		 pop	 ebp
  000b5	c2 04 00	 ret	 4
__catch$?reserve@?$vector@UBROTHER_DATA@@V?$allocator@UBROTHER_DATA@@@std@@@std@@QAEXI@Z$0:

; 755  : 			_CATCH_ALL
; 756  : 			this->_Alval.deallocate(_Ptr, _Count);

  000b8	8b 45 ec	 mov	 eax, DWORD PTR __Ptr$212781[ebp]
  000bb	50		 push	 eax
  000bc	e8 00 00 00 00	 call	 ??3@YAXPAX@Z		; operator delete
  000c1	83 c4 04	 add	 esp, 4

; 757  : 			_RERAISE;

  000c4	6a 00		 push	 0
  000c6	6a 00		 push	 0
  000c8	e8 00 00 00 00	 call	 __CxxThrowException@8
$LN43@reserve:
$LN41@reserve:
  000cd	cc		 int	 3
_TEXT	ENDS
;	COMDAT text$x
text$x	SEGMENT
__ehhandler$?reserve@?$vector@UBROTHER_DATA@@V?$allocator@UBROTHER_DATA@@@std@@@std@@QAEXI@Z:
  00000	8b 54 24 08	 mov	 edx, DWORD PTR [esp+8]
  00004	8d 42 0c	 lea	 eax, DWORD PTR [edx+12]
  00007	8b 4a e8	 mov	 ecx, DWORD PTR [edx-24]
  0000a	33 c8		 xor	 ecx, eax
  0000c	e8 00 00 00 00	 call	 @__security_check_cookie@4
  00011	b8 00 00 00 00	 mov	 eax, OFFSET __ehfuncinfo$?reserve@?$vector@UBROTHER_DATA@@V?$allocator@UBROTHER_DATA@@@std@@@std@@QAEXI@Z
  00016	e9 00 00 00 00	 jmp	 ___CxxFrameHandler3
text$x	ENDS
?reserve@?$vector@UBROTHER_DATA@@V?$allocator@UBROTHER_DATA@@@std@@@std@@QAEXI@Z ENDP ; std::vector<BROTHER_DATA,std::allocator<BROTHER_DATA> >::reserve
PUBLIC	??1?$vector@UBROTHER_DATA@@V?$allocator@UBROTHER_DATA@@@std@@@std@@QAE@XZ ; std::vector<BROTHER_DATA,std::allocator<BROTHER_DATA> >::~vector<BROTHER_DATA,std::allocator<BROTHER_DATA> >
; Function compile flags: /Ogtp
;	COMDAT ??1?$vector@UBROTHER_DATA@@V?$allocator@UBROTHER_DATA@@@std@@@std@@QAE@XZ
_TEXT	SEGMENT
??1?$vector@UBROTHER_DATA@@V?$allocator@UBROTHER_DATA@@@std@@@std@@QAE@XZ PROC ; std::vector<BROTHER_DATA,std::allocator<BROTHER_DATA> >::~vector<BROTHER_DATA,std::allocator<BROTHER_DATA> >, COMDAT
; _this$ = ecx

; 704  : 		{	// destroy the object

  00000	56		 push	 esi
  00001	8b f1		 mov	 esi, ecx

; 705  : 		_Tidy();

  00003	8b 06		 mov	 eax, DWORD PTR [esi]
  00005	85 c0		 test	 eax, eax
  00007	74 09		 je	 SHORT $LN8@vector@2
  00009	50		 push	 eax
  0000a	e8 00 00 00 00	 call	 ??3@YAXPAX@Z		; operator delete
  0000f	83 c4 04	 add	 esp, 4
$LN8@vector@2:
  00012	c7 06 00 00 00
	00		 mov	 DWORD PTR [esi], 0
  00018	c7 46 04 00 00
	00 00		 mov	 DWORD PTR [esi+4], 0
  0001f	c7 46 08 00 00
	00 00		 mov	 DWORD PTR [esi+8], 0
  00026	5e		 pop	 esi

; 706  : 		}

  00027	c3		 ret	 0
??1?$vector@UBROTHER_DATA@@V?$allocator@UBROTHER_DATA@@@std@@@std@@QAE@XZ ENDP ; std::vector<BROTHER_DATA,std::allocator<BROTHER_DATA> >::~vector<BROTHER_DATA,std::allocator<BROTHER_DATA> >
_TEXT	ENDS
PUBLIC	?_Reserve@?$vector@UBROTHER_DATA@@V?$allocator@UBROTHER_DATA@@@std@@@std@@IAEXI@Z ; std::vector<BROTHER_DATA,std::allocator<BROTHER_DATA> >::_Reserve
; Function compile flags: /Ogtp
;	COMDAT ?_Reserve@?$vector@UBROTHER_DATA@@V?$allocator@UBROTHER_DATA@@@std@@@std@@IAEXI@Z
_TEXT	SEGMENT
__Count$ = 8						; size = 4
?_Reserve@?$vector@UBROTHER_DATA@@V?$allocator@UBROTHER_DATA@@@std@@@std@@IAEXI@Z PROC ; std::vector<BROTHER_DATA,std::allocator<BROTHER_DATA> >::_Reserve, COMDAT
; _this$ = ecx

; 1290 : 		{	// ensure room for _Count new elements, grow exponentially

  00000	55		 push	 ebp
  00001	8b ec		 mov	 ebp, esp

; 1291 : 		size_type _Size = size();

  00003	8b 41 04	 mov	 eax, DWORD PTR [ecx+4]

; 1292 : 		if (max_size() - _Count < _Size)

  00006	8b 55 08	 mov	 edx, DWORD PTR __Count$[ebp]
  00009	56		 push	 esi
  0000a	8b 31		 mov	 esi, DWORD PTR [ecx]
  0000c	57		 push	 edi
  0000d	2b c6		 sub	 eax, esi
  0000f	bf ff ff ff 0f	 mov	 edi, 268435455		; 0fffffffH
  00014	c1 f8 04	 sar	 eax, 4
  00017	2b fa		 sub	 edi, edx
  00019	3b f8		 cmp	 edi, eax
  0001b	73 0a		 jae	 SHORT $LN4@Reserve

; 1293 : 			_Xlen();

  0001d	68 00 00 00 00	 push	 OFFSET ??_C@_0BD@OLBABOEK@vector?$DMT?$DO?5too?5long?$AA@
  00022	e8 00 00 00 00	 call	 ?_Xlength_error@std@@YAXPBD@Z ; std::_Xlength_error
$LN34@Reserve:
$LN4@Reserve:

; 1294 : 		else if ((_Size += _Count) <= capacity())

  00027	03 c2		 add	 eax, edx
  00029	8b 51 08	 mov	 edx, DWORD PTR [ecx+8]
  0002c	2b d6		 sub	 edx, esi
  0002e	c1 fa 04	 sar	 edx, 4
  00031	3b c2		 cmp	 eax, edx
  00033	76 21		 jbe	 SHORT $LN1@Reserve

; 1295 : 			;
; 1296 : 		else
; 1297 : 			reserve(_Grow_to(_Size));

  00035	8b f2		 mov	 esi, edx
  00037	d1 ee		 shr	 esi, 1
  00039	bf ff ff ff 0f	 mov	 edi, 268435455		; 0fffffffH
  0003e	2b fe		 sub	 edi, esi
  00040	3b fa		 cmp	 edi, edx
  00042	73 04		 jae	 SHORT $LN23@Reserve
  00044	33 d2		 xor	 edx, edx
  00046	eb 02		 jmp	 SHORT $LN24@Reserve
$LN23@Reserve:
  00048	03 d6		 add	 edx, esi
$LN24@Reserve:
  0004a	3b d0		 cmp	 edx, eax
  0004c	73 02		 jae	 SHORT $LN20@Reserve
  0004e	8b d0		 mov	 edx, eax
$LN20@Reserve:
  00050	52		 push	 edx
  00051	e8 00 00 00 00	 call	 ?reserve@?$vector@UBROTHER_DATA@@V?$allocator@UBROTHER_DATA@@@std@@@std@@QAEXI@Z ; std::vector<BROTHER_DATA,std::allocator<BROTHER_DATA> >::reserve
$LN1@Reserve:
  00056	5f		 pop	 edi
  00057	5e		 pop	 esi

; 1298 : 		}

  00058	5d		 pop	 ebp
  00059	c2 04 00	 ret	 4
$LN33@Reserve:
?_Reserve@?$vector@UBROTHER_DATA@@V?$allocator@UBROTHER_DATA@@@std@@@std@@IAEXI@Z ENDP ; std::vector<BROTHER_DATA,std::allocator<BROTHER_DATA> >::_Reserve
_TEXT	ENDS
PUBLIC	??0Brotherhood@@QAE@XZ				; Brotherhood::Brotherhood
; Function compile flags: /Ogtp
;	COMDAT ??0Brotherhood@@QAE@XZ
_TEXT	SEGMENT
??0Brotherhood@@QAE@XZ PROC				; Brotherhood::Brotherhood, COMDAT
; _this$ = ecx
  00000	8b c1		 mov	 eax, ecx
  00002	33 c9		 xor	 ecx, ecx
  00004	89 88 18 29 01
	00		 mov	 DWORD PTR [eax+76056], ecx
  0000a	89 88 1c 29 01
	00		 mov	 DWORD PTR [eax+76060], ecx
  00010	89 88 20 29 01
	00		 mov	 DWORD PTR [eax+76064], ecx
  00016	c3		 ret	 0
??0Brotherhood@@QAE@XZ ENDP				; Brotherhood::Brotherhood
_TEXT	ENDS
PUBLIC	??1Brotherhood@@QAE@XZ				; Brotherhood::~Brotherhood
; Function compile flags: /Ogtp
;	COMDAT ??1Brotherhood@@QAE@XZ
_TEXT	SEGMENT
??1Brotherhood@@QAE@XZ PROC				; Brotherhood::~Brotherhood, COMDAT
; _this$ = ecx
  00000	56		 push	 esi
  00001	8b f1		 mov	 esi, ecx
  00003	8b 86 18 29 01
	00		 mov	 eax, DWORD PTR [esi+76056]
  00009	85 c0		 test	 eax, eax
  0000b	74 09		 je	 SHORT $LN11@Brotherhoo
  0000d	50		 push	 eax
  0000e	e8 00 00 00 00	 call	 ??3@YAXPAX@Z		; operator delete
  00013	83 c4 04	 add	 esp, 4
$LN11@Brotherhoo:
  00016	c7 86 18 29 01
	00 00 00 00 00	 mov	 DWORD PTR [esi+76056], 0
  00020	c7 86 1c 29 01
	00 00 00 00 00	 mov	 DWORD PTR [esi+76060], 0
  0002a	c7 86 20 29 01
	00 00 00 00 00	 mov	 DWORD PTR [esi+76064], 0
  00034	5e		 pop	 esi
  00035	c3		 ret	 0
??1Brotherhood@@QAE@XZ ENDP				; Brotherhood::~Brotherhood
_TEXT	ENDS
PUBLIC	?push_back@?$vector@UBROTHER_DATA@@V?$allocator@UBROTHER_DATA@@@std@@@std@@QAEXABUBROTHER_DATA@@@Z ; std::vector<BROTHER_DATA,std::allocator<BROTHER_DATA> >::push_back
; Function compile flags: /Ogtp
;	COMDAT ?push_back@?$vector@UBROTHER_DATA@@V?$allocator@UBROTHER_DATA@@@std@@@std@@QAEXABUBROTHER_DATA@@@Z
_TEXT	SEGMENT
__Val$ = 8						; size = 4
?push_back@?$vector@UBROTHER_DATA@@V?$allocator@UBROTHER_DATA@@@std@@@std@@QAEXABUBROTHER_DATA@@@Z PROC ; std::vector<BROTHER_DATA,std::allocator<BROTHER_DATA> >::push_back, COMDAT
; _this$ = ecx

; 976  : 		{	// insert element at end

  00000	55		 push	 ebp
  00001	8b ec		 mov	 ebp, esp
  00003	56		 push	 esi
  00004	8b f1		 mov	 esi, ecx

; 977  : 		if (_Inside(_STD addressof(_Val)))

  00006	8b 46 04	 mov	 eax, DWORD PTR [esi+4]
  00009	57		 push	 edi
  0000a	8b 7d 08	 mov	 edi, DWORD PTR __Val$[ebp]
  0000d	3b f8		 cmp	 edi, eax
  0000f	73 36		 jae	 SHORT $LN4@push_back
  00011	8b 0e		 mov	 ecx, DWORD PTR [esi]
  00013	3b cf		 cmp	 ecx, edi
  00015	77 30		 ja	 SHORT $LN4@push_back

; 978  : 			{	// push back an element
; 979  : 			size_type _Idx = _STD addressof(_Val) - this->_Myfirst;

  00017	2b f9		 sub	 edi, ecx

; 980  : 			if (this->_Mylast == this->_Myend)

  00019	3b 46 08	 cmp	 eax, DWORD PTR [esi+8]
  0001c	75 09		 jne	 SHORT $LN3@push_back

; 981  : 				_Reserve(1);

  0001e	6a 01		 push	 1
  00020	8b ce		 mov	 ecx, esi
  00022	e8 00 00 00 00	 call	 ?_Reserve@?$vector@UBROTHER_DATA@@V?$allocator@UBROTHER_DATA@@@std@@@std@@IAEXI@Z ; std::vector<BROTHER_DATA,std::allocator<BROTHER_DATA> >::_Reserve
$LN3@push_back:

; 982  : 			_Orphan_range(this->_Mylast, this->_Mylast);
; 983  : 			_Cons_val(this->_Alval,
; 984  : 				this->_Mylast,
; 985  : 				this->_Myfirst[_Idx]);

  00027	8b 46 04	 mov	 eax, DWORD PTR [esi+4]
  0002a	83 e7 f0	 and	 edi, -16		; fffffff0H
  0002d	03 3e		 add	 edi, DWORD PTR [esi]
  0002f	8d 4e 0c	 lea	 ecx, DWORD PTR [esi+12]
  00032	57		 push	 edi
  00033	50		 push	 eax
  00034	51		 push	 ecx
  00035	e8 00 00 00 00	 call	 ??$_Cons_val@V?$allocator@UBROTHER_DATA@@@std@@UBROTHER_DATA@@AAU3@@std@@YAXAAV?$allocator@UBROTHER_DATA@@@0@PAUBROTHER_DATA@@AAU2@@Z ; std::_Cons_val<std::allocator<BROTHER_DATA>,BROTHER_DATA,BROTHER_DATA &>

; 992  : 			_Orphan_range(this->_Mylast, this->_Mylast);
; 993  : 			_Cons_val(this->_Alval,
; 994  : 				this->_Mylast,
; 995  : 				_Val);

  0003a	83 c4 0c	 add	 esp, 12			; 0000000cH

; 996  : 			++this->_Mylast;

  0003d	83 46 04 10	 add	 DWORD PTR [esi+4], 16	; 00000010H
  00041	5f		 pop	 edi
  00042	5e		 pop	 esi

; 997  : 			}
; 998  : 		}

  00043	5d		 pop	 ebp
  00044	c2 04 00	 ret	 4
$LN4@push_back:

; 986  : 			++this->_Mylast;
; 987  : 			}
; 988  : 		else
; 989  : 			{	// push back a non-element
; 990  : 			if (this->_Mylast == this->_Myend)

  00047	3b 46 08	 cmp	 eax, DWORD PTR [esi+8]
  0004a	75 09		 jne	 SHORT $LN1@push_back

; 991  : 				_Reserve(1);

  0004c	6a 01		 push	 1
  0004e	8b ce		 mov	 ecx, esi
  00050	e8 00 00 00 00	 call	 ?_Reserve@?$vector@UBROTHER_DATA@@V?$allocator@UBROTHER_DATA@@@std@@@std@@IAEXI@Z ; std::vector<BROTHER_DATA,std::allocator<BROTHER_DATA> >::_Reserve
$LN1@push_back:

; 992  : 			_Orphan_range(this->_Mylast, this->_Mylast);
; 993  : 			_Cons_val(this->_Alval,
; 994  : 				this->_Mylast,
; 995  : 				_Val);

  00055	8b 56 04	 mov	 edx, DWORD PTR [esi+4]
  00058	57		 push	 edi
  00059	52		 push	 edx
  0005a	8d 46 0c	 lea	 eax, DWORD PTR [esi+12]
  0005d	50		 push	 eax
  0005e	e8 00 00 00 00	 call	 ??$_Cons_val@V?$allocator@UBROTHER_DATA@@@std@@UBROTHER_DATA@@ABU3@@std@@YAXAAV?$allocator@UBROTHER_DATA@@@0@PAUBROTHER_DATA@@ABU2@@Z ; std::_Cons_val<std::allocator<BROTHER_DATA>,BROTHER_DATA,BROTHER_DATA const &>
  00063	83 c4 0c	 add	 esp, 12			; 0000000cH

; 996  : 			++this->_Mylast;

  00066	83 46 04 10	 add	 DWORD PTR [esi+4], 16	; 00000010H
  0006a	5f		 pop	 edi
  0006b	5e		 pop	 esi

; 997  : 			}
; 998  : 		}

  0006c	5d		 pop	 ebp
  0006d	c2 04 00	 ret	 4
?push_back@?$vector@UBROTHER_DATA@@V?$allocator@UBROTHER_DATA@@@std@@@std@@QAEXABUBROTHER_DATA@@@Z ENDP ; std::vector<BROTHER_DATA,std::allocator<BROTHER_DATA> >::push_back
_TEXT	ENDS
PUBLIC	??_C@_0CG@JKGPLACO@?$FLBrotherhood?$FN?3?5Teleport?5Time?3?5?$CFd@ ; `string'
PUBLIC	_this$GSCopy$
PUBLIC	_lpBro$GSCopy$
PUBLIC	__$ArrayPad$
PUBLIC	?CheckBrotherTeleport@Brotherhood@@QAE_NPAUOBJECTSTRUCT@@@Z ; Brotherhood::CheckBrotherTeleport
EXTRN	__imp__GetTickCount@0:PROC
;	COMDAT ??_C@_0CG@JKGPLACO@?$FLBrotherhood?$FN?3?5Teleport?5Time?3?5?$CFd@
CONST	SEGMENT
??_C@_0CG@JKGPLACO@?$FLBrotherhood?$FN?3?5Teleport?5Time?3?5?$CFd@ DB '[B'
	DB	'rotherhood]: Teleport Time: %d / %d', 00H	; `string'
; Function compile flags: /Ogtp
; File e:\work\tranet_version\gs\gameserver\brotherhood.cpp
CONST	ENDS
;	COMDAT ?CheckBrotherTeleport@Brotherhood@@QAE_NPAUOBJECTSTRUCT@@@Z
_TEXT	SEGMENT
_this$GSCopy$ = -40					; size = 4
tv480 = -36						; size = 4
tv492 = -32						; size = 4
tv748 = -28						; size = 4
_lpBro$GSCopy$ = -24					; size = 4
_list$ = -20						; size = 16
__$ArrayPad$ = -4					; size = 4
_lpBro$ = 8						; size = 4
?CheckBrotherTeleport@Brotherhood@@QAE_NPAUOBJECTSTRUCT@@@Z PROC ; Brotherhood::CheckBrotherTeleport, COMDAT
; _this$ = ecx

; 989  : {

  00000	55		 push	 ebp
  00001	8b ec		 mov	 ebp, esp
  00003	83 ec 28	 sub	 esp, 40			; 00000028H
  00006	a1 00 00 00 00	 mov	 eax, DWORD PTR ___security_cookie
  0000b	33 c5		 xor	 eax, ebp
  0000d	89 45 fc	 mov	 DWORD PTR __$ArrayPad$[ebp], eax

; 991  : 	{
; 992  : 		if(!strcmp(this->m_Brother[i].BRName, lpBro->Brotherhood))

  00010	8b 45 08	 mov	 eax, DWORD PTR _lpBro$[ebp]
  00013	53		 push	 ebx
  00014	56		 push	 esi
  00015	8b b1 1c 29 01
	00		 mov	 esi, DWORD PTR [ecx+76060]
  0001b	8d 99 18 29 01
	00		 lea	 ebx, DWORD PTR [ecx+76056]
  00021	89 45 e8	 mov	 DWORD PTR _lpBro$GSCopy$[ebp], eax
  00024	8b 03		 mov	 eax, DWORD PTR [ebx]
  00026	2b f0		 sub	 esi, eax
  00028	57		 push	 edi
  00029	c1 fe 04	 sar	 esi, 4
  0002c	33 ff		 xor	 edi, edi
  0002e	89 4d d8	 mov	 DWORD PTR _this$GSCopy$[ebp], ecx
  00031	89 5d dc	 mov	 DWORD PTR tv480[ebp], ebx
  00034	89 45 e0	 mov	 DWORD PTR tv492[ebp], eax
  00037	85 f6		 test	 esi, esi
  00039	74 47		 je	 SHORT $LN4@CheckBroth
  0003b	89 45 e4	 mov	 DWORD PTR tv748[ebp], eax
  0003e	8b ff		 npad	 2
$LL111@CheckBroth:
  00040	8b 4d e8	 mov	 ecx, DWORD PTR _lpBro$GSCopy$[ebp]
  00043	8b 45 e4	 mov	 eax, DWORD PTR tv748[ebp]
  00046	81 c1 6d 28 00
	00		 add	 ecx, 10349		; 0000286dH
  0004c	8d 64 24 00	 npad	 4
$LL107@CheckBroth:
  00050	8a 10		 mov	 dl, BYTE PTR [eax]
  00052	3a 11		 cmp	 dl, BYTE PTR [ecx]
  00054	75 1a		 jne	 SHORT $LN108@CheckBroth
  00056	84 d2		 test	 dl, dl
  00058	74 12		 je	 SHORT $LN109@CheckBroth
  0005a	8a 50 01	 mov	 dl, BYTE PTR [eax+1]
  0005d	3a 51 01	 cmp	 dl, BYTE PTR [ecx+1]
  00060	75 0e		 jne	 SHORT $LN108@CheckBroth
  00062	83 c0 02	 add	 eax, 2
  00065	83 c1 02	 add	 ecx, 2
  00068	84 d2		 test	 dl, dl
  0006a	75 e4		 jne	 SHORT $LL107@CheckBroth
$LN109@CheckBroth:
  0006c	33 c0		 xor	 eax, eax
  0006e	eb 05		 jmp	 SHORT $LN110@CheckBroth
$LN108@CheckBroth:
  00070	1b c0		 sbb	 eax, eax
  00072	83 d8 ff	 sbb	 eax, -1
$LN110@CheckBroth:
  00075	85 c0		 test	 eax, eax
  00077	74 67		 je	 SHORT $LN104@CheckBroth

; 990  : 	for(int i = 0; i < this->m_Brother.size(); i++)

  00079	83 45 e4 10	 add	 DWORD PTR tv748[ebp], 16 ; 00000010H
  0007d	47		 inc	 edi
  0007e	3b fe		 cmp	 edi, esi
  00080	72 be		 jb	 SHORT $LL111@CheckBroth
$LN4@CheckBroth:

; 1005 : 			}
; 1006 : 		}
; 1007 : 	}
; 1008 : 
; 1009 : 	BROTHER_DATA list;
; 1010 : 	strcpy(list.BRName, lpBro->Brotherhood);

  00082	8b 45 e8	 mov	 eax, DWORD PTR _lpBro$GSCopy$[ebp]
  00085	05 6d 28 00 00	 add	 eax, 10349		; 0000286dH
  0008a	8d 55 ec	 lea	 edx, DWORD PTR _list$[ebp]
  0008d	2b d0		 sub	 edx, eax
  0008f	90		 npad	 1
$LL9@CheckBroth:
  00090	8a 08		 mov	 cl, BYTE PTR [eax]
  00092	88 0c 02	 mov	 BYTE PTR [edx+eax], cl
  00095	40		 inc	 eax
  00096	84 c9		 test	 cl, cl
  00098	75 f6		 jne	 SHORT $LL9@CheckBroth

; 1011 : 	list.TeleportTick = GetTickCount();

  0009a	ff 15 00 00 00
	00		 call	 DWORD PTR __imp__GetTickCount@0
  000a0	89 45 f8	 mov	 DWORD PTR _list$[ebp+12], eax

; 1012 : 	this->m_Brother.push_back(list);

  000a3	8b 43 04	 mov	 eax, DWORD PTR [ebx+4]
  000a6	8d 4d ec	 lea	 ecx, DWORD PTR _list$[ebp]
  000a9	3b c8		 cmp	 ecx, eax
  000ab	0f 83 e4 00 00
	00		 jae	 $LN21@CheckBroth
  000b1	8b 13		 mov	 edx, DWORD PTR [ebx]
  000b3	3b d1		 cmp	 edx, ecx
  000b5	0f 87 da 00 00
	00		 ja	 $LN21@CheckBroth
  000bb	8b f1		 mov	 esi, ecx
  000bd	8b 4b 08	 mov	 ecx, DWORD PTR [ebx+8]
  000c0	2b f2		 sub	 esi, edx
  000c2	3b c1		 cmp	 eax, ecx
  000c4	0f 85 b6 00 00
	00		 jne	 $LN32@CheckBroth
  000ca	2b c2		 sub	 eax, edx
  000cc	c1 f8 04	 sar	 eax, 4
  000cf	3d fe ff ff 0f	 cmp	 eax, 268435454		; 0ffffffeH
  000d4	76 7d		 jbe	 SHORT $LN35@CheckBroth
  000d6	68 00 00 00 00	 push	 OFFSET ??_C@_0BD@OLBABOEK@vector?$DMT?$DO?5too?5long?$AA@
  000db	e8 00 00 00 00	 call	 ?_Xlength_error@std@@YAXPBD@Z ; std::_Xlength_error
$LN114@CheckBroth:
$LN104@CheckBroth:

; 993  : 		{
; 994  : 			int iDelay = GetTickCount() - this->m_Brother[i].TeleportTick;

  000e0	8b 1d 00 00 00
	00		 mov	 ebx, DWORD PTR __imp__GetTickCount@0
  000e6	03 ff		 add	 edi, edi
  000e8	ff d3		 call	 ebx
  000ea	8b 55 e0	 mov	 edx, DWORD PTR tv492[ebp]
  000ed	8b c8		 mov	 ecx, eax

; 995  : 
; 996  : 			if(iDelay > (this->m_TeleportTime * 1000))

  000ef	8b 45 d8	 mov	 eax, DWORD PTR _this$GSCopy$[ebp]
  000f2	2b 4c fa 0c	 sub	 ecx, DWORD PTR [edx+edi*8+12]
  000f6	8b 80 14 29 01
	00		 mov	 eax, DWORD PTR [eax+76052]
  000fc	8b d0		 mov	 edx, eax
  000fe	69 d2 e8 03 00
	00		 imul	 edx, 1000		; 000003e8H
  00104	3b ca		 cmp	 ecx, edx
  00106	7e 10		 jle	 SHORT $LN2@CheckBroth

; 997  : 			{
; 998  : 				this->m_Brother[i].TeleportTick = GetTickCount();

  00108	8b 45 dc	 mov	 eax, DWORD PTR tv480[ebp]
  0010b	8b 30		 mov	 esi, DWORD PTR [eax]
  0010d	ff d3		 call	 ebx
  0010f	89 44 fe 0c	 mov	 DWORD PTR [esi+edi*8+12], eax

; 999  : 				return true;

  00113	e9 e1 00 00 00	 jmp	 $LN19@CheckBroth
$LN2@CheckBroth:

; 1000 : 			}
; 1001 : 			else
; 1002 : 			{
; 1003 : 				MsgOutput(lpBro->m_Index, "[Brotherhood]: Teleport Time: %d / %d", (iDelay / 1000), this->m_TeleportTime);

  00118	50		 push	 eax
  00119	b8 d3 4d 62 10	 mov	 eax, 274877907		; 10624dd3H
  0011e	f7 e9		 imul	 ecx
  00120	c1 fa 06	 sar	 edx, 6
  00123	8b ca		 mov	 ecx, edx
  00125	c1 e9 1f	 shr	 ecx, 31			; 0000001fH
  00128	03 ca		 add	 ecx, edx
  0012a	8b 55 e8	 mov	 edx, DWORD PTR _lpBro$GSCopy$[ebp]
  0012d	8b 02		 mov	 eax, DWORD PTR [edx]
  0012f	51		 push	 ecx
  00130	68 00 00 00 00	 push	 OFFSET ??_C@_0CG@JKGPLACO@?$FLBrotherhood?$FN?3?5Teleport?5Time?3?5?$CFd@
  00135	50		 push	 eax
  00136	e8 00 00 00 00	 call	 ?MsgOutput@@YAXHPADZZ	; MsgOutput
  0013b	83 c4 10	 add	 esp, 16			; 00000010H
  0013e	5f		 pop	 edi
  0013f	5e		 pop	 esi

; 1004 : 				return false;

  00140	32 c0		 xor	 al, al
  00142	5b		 pop	 ebx

; 1013 : 
; 1014 : 	return true;
; 1015 : }

  00143	8b 4d fc	 mov	 ecx, DWORD PTR __$ArrayPad$[ebp]
  00146	33 cd		 xor	 ecx, ebp
  00148	e8 00 00 00 00	 call	 @__security_check_cookie@4
  0014d	8b e5		 mov	 esp, ebp
  0014f	5d		 pop	 ebp
  00150	c2 04 00	 ret	 4

; 1012 : 	this->m_Brother.push_back(list);

$LN35@CheckBroth:
  00153	2b ca		 sub	 ecx, edx
  00155	40		 inc	 eax
  00156	c1 f9 04	 sar	 ecx, 4
  00159	3b c1		 cmp	 eax, ecx
  0015b	76 23		 jbe	 SHORT $LN32@CheckBroth
  0015d	8b d1		 mov	 edx, ecx
  0015f	d1 ea		 shr	 edx, 1
  00161	bf ff ff ff 0f	 mov	 edi, 268435455		; 0fffffffH
  00166	2b fa		 sub	 edi, edx
  00168	3b f9		 cmp	 edi, ecx
  0016a	73 04		 jae	 SHORT $LN54@CheckBroth
  0016c	33 c9		 xor	 ecx, ecx
  0016e	eb 02		 jmp	 SHORT $LN55@CheckBroth
$LN54@CheckBroth:
  00170	03 ca		 add	 ecx, edx
$LN55@CheckBroth:
  00172	3b c8		 cmp	 ecx, eax
  00174	73 02		 jae	 SHORT $LN51@CheckBroth
  00176	8b c8		 mov	 ecx, eax
$LN51@CheckBroth:
  00178	51		 push	 ecx
  00179	8b cb		 mov	 ecx, ebx
  0017b	e8 00 00 00 00	 call	 ?reserve@?$vector@UBROTHER_DATA@@V?$allocator@UBROTHER_DATA@@@std@@@std@@QAEXI@Z ; std::vector<BROTHER_DATA,std::allocator<BROTHER_DATA> >::reserve
$LN32@CheckBroth:
  00180	8b 53 04	 mov	 edx, DWORD PTR [ebx+4]
  00183	83 e6 f0	 and	 esi, -16		; fffffff0H
  00186	03 33		 add	 esi, DWORD PTR [ebx]
  00188	8d 43 0c	 lea	 eax, DWORD PTR [ebx+12]
  0018b	56		 push	 esi
  0018c	52		 push	 edx
  0018d	50		 push	 eax
  0018e	e8 00 00 00 00	 call	 ??$_Cons_val@V?$allocator@UBROTHER_DATA@@@std@@UBROTHER_DATA@@AAU3@@std@@YAXAAV?$allocator@UBROTHER_DATA@@@0@PAUBROTHER_DATA@@AAU2@@Z ; std::_Cons_val<std::allocator<BROTHER_DATA>,BROTHER_DATA,BROTHER_DATA &>
  00193	eb 5d		 jmp	 SHORT $LN113@CheckBroth
$LN21@CheckBroth:
  00195	8b 4b 08	 mov	 ecx, DWORD PTR [ebx+8]
  00198	3b c1		 cmp	 eax, ecx
  0019a	75 45		 jne	 SHORT $LN67@CheckBroth
  0019c	8b 13		 mov	 edx, DWORD PTR [ebx]
  0019e	2b c2		 sub	 eax, edx
  001a0	c1 f8 04	 sar	 eax, 4
  001a3	3d fe ff ff 0f	 cmp	 eax, 268435454		; 0ffffffeH
  001a8	76 0a		 jbe	 SHORT $LN70@CheckBroth
  001aa	68 00 00 00 00	 push	 OFFSET ??_C@_0BD@OLBABOEK@vector?$DMT?$DO?5too?5long?$AA@
  001af	e8 00 00 00 00	 call	 ?_Xlength_error@std@@YAXPBD@Z ; std::_Xlength_error
$LN115@CheckBroth:
$LN70@CheckBroth:
  001b4	2b ca		 sub	 ecx, edx
  001b6	40		 inc	 eax
  001b7	c1 f9 04	 sar	 ecx, 4
  001ba	3b c1		 cmp	 eax, ecx
  001bc	76 23		 jbe	 SHORT $LN67@CheckBroth
  001be	8b d1		 mov	 edx, ecx
  001c0	d1 ea		 shr	 edx, 1
  001c2	be ff ff ff 0f	 mov	 esi, 268435455		; 0fffffffH
  001c7	2b f2		 sub	 esi, edx
  001c9	3b f1		 cmp	 esi, ecx
  001cb	73 04		 jae	 SHORT $LN89@CheckBroth
  001cd	33 c9		 xor	 ecx, ecx
  001cf	eb 02		 jmp	 SHORT $LN90@CheckBroth
$LN89@CheckBroth:
  001d1	03 ca		 add	 ecx, edx
$LN90@CheckBroth:
  001d3	3b c8		 cmp	 ecx, eax
  001d5	73 02		 jae	 SHORT $LN86@CheckBroth
  001d7	8b c8		 mov	 ecx, eax
$LN86@CheckBroth:
  001d9	51		 push	 ecx
  001da	8b cb		 mov	 ecx, ebx
  001dc	e8 00 00 00 00	 call	 ?reserve@?$vector@UBROTHER_DATA@@V?$allocator@UBROTHER_DATA@@@std@@@std@@QAEXI@Z ; std::vector<BROTHER_DATA,std::allocator<BROTHER_DATA> >::reserve
$LN67@CheckBroth:
  001e1	8b 53 04	 mov	 edx, DWORD PTR [ebx+4]
  001e4	8d 4d ec	 lea	 ecx, DWORD PTR _list$[ebp]
  001e7	51		 push	 ecx
  001e8	52		 push	 edx
  001e9	8d 43 0c	 lea	 eax, DWORD PTR [ebx+12]
  001ec	50		 push	 eax
  001ed	e8 00 00 00 00	 call	 ??$_Cons_val@V?$allocator@UBROTHER_DATA@@@std@@UBROTHER_DATA@@ABU3@@std@@YAXAAV?$allocator@UBROTHER_DATA@@@0@PAUBROTHER_DATA@@ABU2@@Z ; std::_Cons_val<std::allocator<BROTHER_DATA>,BROTHER_DATA,BROTHER_DATA const &>
$LN113@CheckBroth:
  001f2	83 c4 0c	 add	 esp, 12			; 0000000cH
  001f5	83 43 04 10	 add	 DWORD PTR [ebx+4], 16	; 00000010H
$LN19@CheckBroth:

; 1013 : 
; 1014 : 	return true;
; 1015 : }

  001f9	8b 4d fc	 mov	 ecx, DWORD PTR __$ArrayPad$[ebp]
  001fc	5f		 pop	 edi
  001fd	5e		 pop	 esi
  001fe	33 cd		 xor	 ecx, ebp
  00200	b0 01		 mov	 al, 1
  00202	5b		 pop	 ebx
  00203	e8 00 00 00 00	 call	 @__security_check_cookie@4
  00208	8b e5		 mov	 esp, ebp
  0020a	5d		 pop	 ebp
  0020b	c2 04 00	 ret	 4
$LN112@CheckBroth:
?CheckBrotherTeleport@Brotherhood@@QAE_NPAUOBJECTSTRUCT@@@Z ENDP ; Brotherhood::CheckBrotherTeleport
_TEXT	ENDS
EXTRN	_atexit:PROC
; Function compile flags: /Ogtp
;	COMDAT ??__EgBrotherhood@@YAXXZ
text$yc	SEGMENT
??__EgBrotherhood@@YAXXZ PROC				; `dynamic initializer for 'gBrotherhood'', COMDAT

; 22   : Brotherhood gBrotherhood;

  00000	68 00 00 00 00	 push	 OFFSET ??__FgBrotherhood@@YAXXZ ; `dynamic atexit destructor for 'gBrotherhood''
  00005	e8 00 00 00 00	 call	 _atexit
  0000a	59		 pop	 ecx
  0000b	c3		 ret	 0
??__EgBrotherhood@@YAXXZ ENDP				; `dynamic initializer for 'gBrotherhood''
; Function compile flags: /Ogtp
text$yc	ENDS
;	COMDAT ??__FgBrotherhood@@YAXXZ
text$yd	SEGMENT
??__FgBrotherhood@@YAXXZ PROC				; `dynamic atexit destructor for 'gBrotherhood'', COMDAT
  00000	a1 18 29 01 00	 mov	 eax, DWORD PTR ?gBrotherhood@@3VBrotherhood@@A+76056
  00005	85 c0		 test	 eax, eax
  00007	74 09		 je	 SHORT $LN12@dynamic
  00009	50		 push	 eax
  0000a	e8 00 00 00 00	 call	 ??3@YAXPAX@Z		; operator delete
  0000f	83 c4 04	 add	 esp, 4
$LN12@dynamic:
  00012	c7 05 18 29 01
	00 00 00 00 00	 mov	 DWORD PTR ?gBrotherhood@@3VBrotherhood@@A+76056, 0
  0001c	c7 05 1c 29 01
	00 00 00 00 00	 mov	 DWORD PTR ?gBrotherhood@@3VBrotherhood@@A+76060, 0
  00026	c7 05 20 29 01
	00 00 00 00 00	 mov	 DWORD PTR ?gBrotherhood@@3VBrotherhood@@A+76064, 0
  00030	c3		 ret	 0
??__FgBrotherhood@@YAXXZ ENDP				; `dynamic atexit destructor for 'gBrotherhood''
text$yd	ENDS
PUBLIC	?gBrotherhood@@3VBrotherhood@@A			; gBrotherhood
_BSS	SEGMENT
?gBrotherhood@@3VBrotherhood@@A DB 012928H DUP (?)	; gBrotherhood
_BSS	ENDS
CRT$XCU	SEGMENT
_gBrotherhood$initializer$ DD FLAT:??__EgBrotherhood@@YAXXZ
CRT$XCU	ENDS
END
