; Listing generated by Microsoft (R) Optimizing Compiler Version 16.00.30319.01 

	TITLE	E:\work\tranet_version\GS\GameServer\CalculatorManager.cpp
	.686P
	.XMM
	include listing.inc
	.model	flat

INCLUDELIB LIBCMT
INCLUDELIB OLDNAMES

PUBLIC	?CalculatorManager@@3VcCalculatorManager@@A	; CalculatorManager
_BSS	SEGMENT
?CalculatorManager@@3VcCalculatorManager@@A DB 048H DUP (?) ; CalculatorManager
_BSS	ENDS
PUBLIC	??_C@_0BB@JKFEPIJA@DamageMaxPercent?$AA@	; `string'
PUBLIC	??_C@_0M@BKNIILFP@RageFighter?$AA@		; `string'
PUBLIC	??_C@_0BB@FGFJIDJP@DamageMinPercent?$AA@	; `string'
PUBLIC	??_C@_0BK@KLLBDLFM@MaximumCurseDamagePercent?$AA@ ; `string'
PUBLIC	??_C@_0BK@EIOMIFIG@MinimumCurseDamagePercent?$AA@ ; `string'
PUBLIC	??_C@_0BN@BENDNGHI@MaximumWizardryDamagePercent?$AA@ ; `string'
PUBLIC	??_C@_08HLBMEKKE@Summoner?$AA@			; `string'
PUBLIC	??_C@_0BN@PLFBMIAC@MinimumWizardryDamagePercent?$AA@ ; `string'
PUBLIC	??_C@_09PCICNBOE@Dark_Lord?$AA@			; `string'
PUBLIC	??_C@_0BA@IPLGPKDA@Magic_Gladiator?$AA@		; `string'
PUBLIC	??_C@_09DIFEFNGC@Fairy_Elf?$AA@			; `string'
PUBLIC	??_C@_0BB@LPDOCKGO@MaxDamagePercent?$AA@	; `string'
PUBLIC	??_C@_0M@MNCPOEBE@Dark_Knight?$AA@		; `string'
PUBLIC	??_C@_0BB@KKLFPOJM@MinDamagePercent?$AA@	; `string'
PUBLIC	??_C@_0BE@GGBCKODP@MaxWizDamagePercent?$AA@	; `string'
PUBLIC	??_C@_0M@CJAMKEGP@Dark_Wizard?$AA@		; `string'
PUBLIC	??_C@_0BE@EPGMFDCH@MinWizDamagePercent?$AA@	; `string'
PUBLIC	??_C@_0CF@KOJJOAIC@?4?4?2Data?2ZtData?2CalculatorManager@ ; `string'
PUBLIC	?Load@cCalculatorManager@@QAEXXZ		; cCalculatorManager::Load
EXTRN	__imp__GetPrivateProfileIntA@16:PROC
;	COMDAT ??_C@_0BB@JKFEPIJA@DamageMaxPercent?$AA@
; File e:\work\tranet_version\gs\gameserver\calculatormanager.cpp
CONST	SEGMENT
??_C@_0BB@JKFEPIJA@DamageMaxPercent?$AA@ DB 'DamageMaxPercent', 00H ; `string'
CONST	ENDS
;	COMDAT ??_C@_0M@BKNIILFP@RageFighter?$AA@
CONST	SEGMENT
??_C@_0M@BKNIILFP@RageFighter?$AA@ DB 'RageFighter', 00H ; `string'
CONST	ENDS
;	COMDAT ??_C@_0BB@FGFJIDJP@DamageMinPercent?$AA@
CONST	SEGMENT
??_C@_0BB@FGFJIDJP@DamageMinPercent?$AA@ DB 'DamageMinPercent', 00H ; `string'
CONST	ENDS
;	COMDAT ??_C@_0BK@KLLBDLFM@MaximumCurseDamagePercent?$AA@
CONST	SEGMENT
??_C@_0BK@KLLBDLFM@MaximumCurseDamagePercent?$AA@ DB 'MaximumCurseDamageP'
	DB	'ercent', 00H				; `string'
CONST	ENDS
;	COMDAT ??_C@_0BK@EIOMIFIG@MinimumCurseDamagePercent?$AA@
CONST	SEGMENT
??_C@_0BK@EIOMIFIG@MinimumCurseDamagePercent?$AA@ DB 'MinimumCurseDamageP'
	DB	'ercent', 00H				; `string'
CONST	ENDS
;	COMDAT ??_C@_0BN@BENDNGHI@MaximumWizardryDamagePercent?$AA@
CONST	SEGMENT
??_C@_0BN@BENDNGHI@MaximumWizardryDamagePercent?$AA@ DB 'MaximumWizardryD'
	DB	'amagePercent', 00H				; `string'
CONST	ENDS
;	COMDAT ??_C@_08HLBMEKKE@Summoner?$AA@
CONST	SEGMENT
??_C@_08HLBMEKKE@Summoner?$AA@ DB 'Summoner', 00H	; `string'
CONST	ENDS
;	COMDAT ??_C@_0BN@PLFBMIAC@MinimumWizardryDamagePercent?$AA@
CONST	SEGMENT
??_C@_0BN@PLFBMIAC@MinimumWizardryDamagePercent?$AA@ DB 'MinimumWizardryD'
	DB	'amagePercent', 00H				; `string'
CONST	ENDS
;	COMDAT ??_C@_09PCICNBOE@Dark_Lord?$AA@
CONST	SEGMENT
??_C@_09PCICNBOE@Dark_Lord?$AA@ DB 'Dark_Lord', 00H	; `string'
CONST	ENDS
;	COMDAT ??_C@_0BA@IPLGPKDA@Magic_Gladiator?$AA@
CONST	SEGMENT
??_C@_0BA@IPLGPKDA@Magic_Gladiator?$AA@ DB 'Magic_Gladiator', 00H ; `string'
CONST	ENDS
;	COMDAT ??_C@_09DIFEFNGC@Fairy_Elf?$AA@
CONST	SEGMENT
??_C@_09DIFEFNGC@Fairy_Elf?$AA@ DB 'Fairy_Elf', 00H	; `string'
CONST	ENDS
;	COMDAT ??_C@_0BB@LPDOCKGO@MaxDamagePercent?$AA@
CONST	SEGMENT
??_C@_0BB@LPDOCKGO@MaxDamagePercent?$AA@ DB 'MaxDamagePercent', 00H ; `string'
CONST	ENDS
;	COMDAT ??_C@_0M@MNCPOEBE@Dark_Knight?$AA@
CONST	SEGMENT
??_C@_0M@MNCPOEBE@Dark_Knight?$AA@ DB 'Dark_Knight', 00H ; `string'
CONST	ENDS
;	COMDAT ??_C@_0BB@KKLFPOJM@MinDamagePercent?$AA@
CONST	SEGMENT
??_C@_0BB@KKLFPOJM@MinDamagePercent?$AA@ DB 'MinDamagePercent', 00H ; `string'
CONST	ENDS
;	COMDAT ??_C@_0BE@GGBCKODP@MaxWizDamagePercent?$AA@
CONST	SEGMENT
??_C@_0BE@GGBCKODP@MaxWizDamagePercent?$AA@ DB 'MaxWizDamagePercent', 00H ; `string'
CONST	ENDS
;	COMDAT ??_C@_0M@CJAMKEGP@Dark_Wizard?$AA@
CONST	SEGMENT
??_C@_0M@CJAMKEGP@Dark_Wizard?$AA@ DB 'Dark_Wizard', 00H ; `string'
CONST	ENDS
;	COMDAT ??_C@_0BE@EPGMFDCH@MinWizDamagePercent?$AA@
CONST	SEGMENT
??_C@_0BE@EPGMFDCH@MinWizDamagePercent?$AA@ DB 'MinWizDamagePercent', 00H ; `string'
CONST	ENDS
;	COMDAT ??_C@_0CF@KOJJOAIC@?4?4?2Data?2ZtData?2CalculatorManager@
CONST	SEGMENT
??_C@_0CF@KOJJOAIC@?4?4?2Data?2ZtData?2CalculatorManager@ DB '..\Data\ZtD'
	DB	'ata\CalculatorManager.ini', 00H		; `string'
; Function compile flags: /Ogtp
CONST	ENDS
;	COMDAT ?Load@cCalculatorManager@@QAEXXZ
_TEXT	SEGMENT
?Load@cCalculatorManager@@QAEXXZ PROC			; cCalculatorManager::Load, COMDAT
; _this$ = ecx

; 10   : {

  00000	56		 push	 esi
  00001	57		 push	 edi

; 11   : 	//Dark_Wizard
; 12   : 	this->DW_MinWizDamagePercent = GetPrivateProfileInt("Dark_Wizard", "MinWizDamagePercent", 100, CALCULATOR_MANAGER_DIR);

  00002	8b 3d 00 00 00
	00		 mov	 edi, DWORD PTR __imp__GetPrivateProfileIntA@16
  00008	68 00 00 00 00	 push	 OFFSET ??_C@_0CF@KOJJOAIC@?4?4?2Data?2ZtData?2CalculatorManager@
  0000d	6a 64		 push	 100			; 00000064H
  0000f	68 00 00 00 00	 push	 OFFSET ??_C@_0BE@EPGMFDCH@MinWizDamagePercent?$AA@
  00014	68 00 00 00 00	 push	 OFFSET ??_C@_0M@CJAMKEGP@Dark_Wizard?$AA@
  00019	8b f1		 mov	 esi, ecx
  0001b	ff d7		 call	 edi

; 13   : 	this->DW_MaxWizDamagePercent = GetPrivateProfileInt("Dark_Wizard", "MaxWizDamagePercent", 100, CALCULATOR_MANAGER_DIR);

  0001d	68 00 00 00 00	 push	 OFFSET ??_C@_0CF@KOJJOAIC@?4?4?2Data?2ZtData?2CalculatorManager@
  00022	6a 64		 push	 100			; 00000064H
  00024	68 00 00 00 00	 push	 OFFSET ??_C@_0BE@GGBCKODP@MaxWizDamagePercent?$AA@
  00029	68 00 00 00 00	 push	 OFFSET ??_C@_0M@CJAMKEGP@Dark_Wizard?$AA@
  0002e	89 06		 mov	 DWORD PTR [esi], eax
  00030	ff d7		 call	 edi

; 14   : 
; 15   : 	//Dark_Knight
; 16   : 	this->DK_MinDamagePercent = GetPrivateProfileInt("Dark_Knight", "MinDamagePercent", 100, CALCULATOR_MANAGER_DIR);

  00032	68 00 00 00 00	 push	 OFFSET ??_C@_0CF@KOJJOAIC@?4?4?2Data?2ZtData?2CalculatorManager@
  00037	6a 64		 push	 100			; 00000064H
  00039	68 00 00 00 00	 push	 OFFSET ??_C@_0BB@KKLFPOJM@MinDamagePercent?$AA@
  0003e	68 00 00 00 00	 push	 OFFSET ??_C@_0M@MNCPOEBE@Dark_Knight?$AA@
  00043	89 46 04	 mov	 DWORD PTR [esi+4], eax
  00046	ff d7		 call	 edi

; 17   : 	this->DK_MaxDamagePercent = GetPrivateProfileInt("Dark_Knight", "MaxDamagePercent", 100, CALCULATOR_MANAGER_DIR);

  00048	68 00 00 00 00	 push	 OFFSET ??_C@_0CF@KOJJOAIC@?4?4?2Data?2ZtData?2CalculatorManager@
  0004d	6a 64		 push	 100			; 00000064H
  0004f	68 00 00 00 00	 push	 OFFSET ??_C@_0BB@LPDOCKGO@MaxDamagePercent?$AA@
  00054	68 00 00 00 00	 push	 OFFSET ??_C@_0M@MNCPOEBE@Dark_Knight?$AA@
  00059	89 46 08	 mov	 DWORD PTR [esi+8], eax
  0005c	ff d7		 call	 edi

; 18   : 
; 19   : 	//Fairy_Elf
; 20   : 	this->FE_MinDamagePercent = GetPrivateProfileInt("Fairy_Elf", "MinDamagePercent", 100, CALCULATOR_MANAGER_DIR);

  0005e	68 00 00 00 00	 push	 OFFSET ??_C@_0CF@KOJJOAIC@?4?4?2Data?2ZtData?2CalculatorManager@
  00063	6a 64		 push	 100			; 00000064H
  00065	68 00 00 00 00	 push	 OFFSET ??_C@_0BB@KKLFPOJM@MinDamagePercent?$AA@
  0006a	68 00 00 00 00	 push	 OFFSET ??_C@_09DIFEFNGC@Fairy_Elf?$AA@
  0006f	89 46 0c	 mov	 DWORD PTR [esi+12], eax
  00072	ff d7		 call	 edi

; 21   : 	this->FE_MaxDamagePercent = GetPrivateProfileInt("Fairy_Elf", "MaxDamagePercent", 100, CALCULATOR_MANAGER_DIR);

  00074	68 00 00 00 00	 push	 OFFSET ??_C@_0CF@KOJJOAIC@?4?4?2Data?2ZtData?2CalculatorManager@
  00079	6a 64		 push	 100			; 00000064H
  0007b	68 00 00 00 00	 push	 OFFSET ??_C@_0BB@LPDOCKGO@MaxDamagePercent?$AA@
  00080	68 00 00 00 00	 push	 OFFSET ??_C@_09DIFEFNGC@Fairy_Elf?$AA@
  00085	89 46 10	 mov	 DWORD PTR [esi+16], eax
  00088	ff d7		 call	 edi

; 22   : 
; 23   : 	//Magic_Gladiator
; 24   : 	this->MG_MinDamagePercent = GetPrivateProfileInt("Magic_Gladiator", "MinDamagePercent", 100, CALCULATOR_MANAGER_DIR);

  0008a	68 00 00 00 00	 push	 OFFSET ??_C@_0CF@KOJJOAIC@?4?4?2Data?2ZtData?2CalculatorManager@
  0008f	6a 64		 push	 100			; 00000064H
  00091	68 00 00 00 00	 push	 OFFSET ??_C@_0BB@KKLFPOJM@MinDamagePercent?$AA@
  00096	68 00 00 00 00	 push	 OFFSET ??_C@_0BA@IPLGPKDA@Magic_Gladiator?$AA@
  0009b	89 46 14	 mov	 DWORD PTR [esi+20], eax
  0009e	ff d7		 call	 edi

; 25   : 	this->MG_MaxDamagePercent = GetPrivateProfileInt("Magic_Gladiator", "MaxDamagePercent", 100, CALCULATOR_MANAGER_DIR);

  000a0	68 00 00 00 00	 push	 OFFSET ??_C@_0CF@KOJJOAIC@?4?4?2Data?2ZtData?2CalculatorManager@
  000a5	6a 64		 push	 100			; 00000064H
  000a7	68 00 00 00 00	 push	 OFFSET ??_C@_0BB@LPDOCKGO@MaxDamagePercent?$AA@
  000ac	68 00 00 00 00	 push	 OFFSET ??_C@_0BA@IPLGPKDA@Magic_Gladiator?$AA@
  000b1	89 46 18	 mov	 DWORD PTR [esi+24], eax
  000b4	ff d7		 call	 edi

; 26   : 	this->MG_MinWizDamagePercent = GetPrivateProfileInt("Magic_Gladiator", "MinWizDamagePercent", 100, CALCULATOR_MANAGER_DIR);

  000b6	68 00 00 00 00	 push	 OFFSET ??_C@_0CF@KOJJOAIC@?4?4?2Data?2ZtData?2CalculatorManager@
  000bb	6a 64		 push	 100			; 00000064H
  000bd	68 00 00 00 00	 push	 OFFSET ??_C@_0BE@EPGMFDCH@MinWizDamagePercent?$AA@
  000c2	68 00 00 00 00	 push	 OFFSET ??_C@_0BA@IPLGPKDA@Magic_Gladiator?$AA@
  000c7	89 46 1c	 mov	 DWORD PTR [esi+28], eax
  000ca	ff d7		 call	 edi

; 27   : 	this->MG_MaxWizDamagePercent = GetPrivateProfileInt("Magic_Gladiator", "MaxWizDamagePercent", 100, CALCULATOR_MANAGER_DIR);

  000cc	68 00 00 00 00	 push	 OFFSET ??_C@_0CF@KOJJOAIC@?4?4?2Data?2ZtData?2CalculatorManager@
  000d1	6a 64		 push	 100			; 00000064H
  000d3	68 00 00 00 00	 push	 OFFSET ??_C@_0BE@GGBCKODP@MaxWizDamagePercent?$AA@
  000d8	68 00 00 00 00	 push	 OFFSET ??_C@_0BA@IPLGPKDA@Magic_Gladiator?$AA@
  000dd	89 46 20	 mov	 DWORD PTR [esi+32], eax
  000e0	ff d7		 call	 edi

; 28   : 
; 29   : 	//Dark_Lord
; 30   : 	this->DL_MinDamagePercent = GetPrivateProfileInt("Dark_Lord", "MinDamagePercent", 100, CALCULATOR_MANAGER_DIR);

  000e2	68 00 00 00 00	 push	 OFFSET ??_C@_0CF@KOJJOAIC@?4?4?2Data?2ZtData?2CalculatorManager@
  000e7	6a 64		 push	 100			; 00000064H
  000e9	68 00 00 00 00	 push	 OFFSET ??_C@_0BB@KKLFPOJM@MinDamagePercent?$AA@
  000ee	68 00 00 00 00	 push	 OFFSET ??_C@_09PCICNBOE@Dark_Lord?$AA@
  000f3	89 46 24	 mov	 DWORD PTR [esi+36], eax
  000f6	ff d7		 call	 edi

; 31   : 	this->DL_MaxDamagePercent = GetPrivateProfileInt("Dark_Lord", "MaxDamagePercent", 100, CALCULATOR_MANAGER_DIR);

  000f8	68 00 00 00 00	 push	 OFFSET ??_C@_0CF@KOJJOAIC@?4?4?2Data?2ZtData?2CalculatorManager@
  000fd	6a 64		 push	 100			; 00000064H
  000ff	68 00 00 00 00	 push	 OFFSET ??_C@_0BB@LPDOCKGO@MaxDamagePercent?$AA@
  00104	68 00 00 00 00	 push	 OFFSET ??_C@_09PCICNBOE@Dark_Lord?$AA@
  00109	89 46 28	 mov	 DWORD PTR [esi+40], eax
  0010c	ff d7		 call	 edi

; 32   : 
; 33   : 	//Summoner
; 34   : 	this->SUM_MinimumWizardryDamagePercent = GetPrivateProfileInt("Summoner", "MinimumWizardryDamagePercent", 100, CALCULATOR_MANAGER_DIR);

  0010e	68 00 00 00 00	 push	 OFFSET ??_C@_0CF@KOJJOAIC@?4?4?2Data?2ZtData?2CalculatorManager@
  00113	6a 64		 push	 100			; 00000064H
  00115	68 00 00 00 00	 push	 OFFSET ??_C@_0BN@PLFBMIAC@MinimumWizardryDamagePercent?$AA@
  0011a	68 00 00 00 00	 push	 OFFSET ??_C@_08HLBMEKKE@Summoner?$AA@
  0011f	89 46 2c	 mov	 DWORD PTR [esi+44], eax
  00122	ff d7		 call	 edi

; 35   : 	this->SUM_MaximumWizardryDamagePercent = GetPrivateProfileInt("Summoner", "MaximumWizardryDamagePercent", 100, CALCULATOR_MANAGER_DIR);

  00124	68 00 00 00 00	 push	 OFFSET ??_C@_0CF@KOJJOAIC@?4?4?2Data?2ZtData?2CalculatorManager@
  00129	6a 64		 push	 100			; 00000064H
  0012b	68 00 00 00 00	 push	 OFFSET ??_C@_0BN@BENDNGHI@MaximumWizardryDamagePercent?$AA@
  00130	68 00 00 00 00	 push	 OFFSET ??_C@_08HLBMEKKE@Summoner?$AA@
  00135	89 46 30	 mov	 DWORD PTR [esi+48], eax
  00138	ff d7		 call	 edi

; 36   : 	this->SUM_MinimumCurseDamagePercent = GetPrivateProfileInt("Summoner", "MinimumCurseDamagePercent", 100, CALCULATOR_MANAGER_DIR);

  0013a	68 00 00 00 00	 push	 OFFSET ??_C@_0CF@KOJJOAIC@?4?4?2Data?2ZtData?2CalculatorManager@
  0013f	6a 64		 push	 100			; 00000064H
  00141	68 00 00 00 00	 push	 OFFSET ??_C@_0BK@EIOMIFIG@MinimumCurseDamagePercent?$AA@
  00146	68 00 00 00 00	 push	 OFFSET ??_C@_08HLBMEKKE@Summoner?$AA@
  0014b	89 46 34	 mov	 DWORD PTR [esi+52], eax
  0014e	ff d7		 call	 edi

; 37   : 	this->SUM_MaximumCurseDamagePercent = GetPrivateProfileInt("Summoner", "MaximumCurseDamagePercent", 100, CALCULATOR_MANAGER_DIR);

  00150	68 00 00 00 00	 push	 OFFSET ??_C@_0CF@KOJJOAIC@?4?4?2Data?2ZtData?2CalculatorManager@
  00155	6a 64		 push	 100			; 00000064H
  00157	68 00 00 00 00	 push	 OFFSET ??_C@_0BK@KLLBDLFM@MaximumCurseDamagePercent?$AA@
  0015c	68 00 00 00 00	 push	 OFFSET ??_C@_08HLBMEKKE@Summoner?$AA@
  00161	89 46 38	 mov	 DWORD PTR [esi+56], eax
  00164	ff d7		 call	 edi

; 38   : 
; 39   : 	//RageFighter
; 40   : 	this->RF_DamageMinPercent = GetPrivateProfileInt("RageFighter", "DamageMinPercent", 100, CALCULATOR_MANAGER_DIR);

  00166	68 00 00 00 00	 push	 OFFSET ??_C@_0CF@KOJJOAIC@?4?4?2Data?2ZtData?2CalculatorManager@
  0016b	6a 64		 push	 100			; 00000064H
  0016d	68 00 00 00 00	 push	 OFFSET ??_C@_0BB@FGFJIDJP@DamageMinPercent?$AA@
  00172	68 00 00 00 00	 push	 OFFSET ??_C@_0M@BKNIILFP@RageFighter?$AA@
  00177	89 46 3c	 mov	 DWORD PTR [esi+60], eax
  0017a	ff d7		 call	 edi

; 41   : 	this->RF_DamageMaxPercent = GetPrivateProfileInt("RageFighter", "DamageMaxPercent", 100, CALCULATOR_MANAGER_DIR);

  0017c	68 00 00 00 00	 push	 OFFSET ??_C@_0CF@KOJJOAIC@?4?4?2Data?2ZtData?2CalculatorManager@
  00181	6a 64		 push	 100			; 00000064H
  00183	68 00 00 00 00	 push	 OFFSET ??_C@_0BB@JKFEPIJA@DamageMaxPercent?$AA@
  00188	68 00 00 00 00	 push	 OFFSET ??_C@_0M@BKNIILFP@RageFighter?$AA@
  0018d	89 46 40	 mov	 DWORD PTR [esi+64], eax
  00190	ff d7		 call	 edi
  00192	5f		 pop	 edi
  00193	89 46 44	 mov	 DWORD PTR [esi+68], eax
  00196	5e		 pop	 esi

; 42   : }

  00197	c3		 ret	 0
?Load@cCalculatorManager@@QAEXXZ ENDP			; cCalculatorManager::Load
_TEXT	ENDS
END
