; Listing generated by Microsoft (R) Optimizing Compiler Version 16.00.30319.01 

	TITLE	E:\work\tranet_version\GS\GameServer\CashShop.cpp
	.686P
	.XMM
	include listing.inc
	.model	flat

INCLUDELIB LIBCMT
INCLUDELIB OLDNAMES

_DATA	SEGMENT
_g_iNpcUpDfLevel_CGATE DD 01H
	DD	02H
	DD	02dc6c0H
	DD	02H
	DD	03H
	DD	02dc6c0H
	DD	03H
	DD	04H
	DD	02dc6c0H
_g_iNpcUpDfLevel_CSTATUE DD 01H
	DD	03H
	DD	02dc6c0H
	DD	02H
	DD	05H
	DD	02dc6c0H
	DD	03H
	DD	07H
	DD	02dc6c0H
_g_iNpcUpMaxHP_CGATE DD 02625a0H
	DD	02H
	DD	0f4240H
	DD	03567e0H
	DD	03H
	DD	0f4240H
	DD	04f5880H
	DD	04H
	DD	0f4240H
_g_iNpcUpMaxHP_CSTATUE DD 02191c0H
	DD	03H
	DD	0f4240H
	DD	033e140H
	DD	05H
	DD	0f4240H
	DD	04c4b40H
	DD	07H
	DD	0f4240H
_g_iNpcUpRgLevel_CSTATUE DD 01H
	DD	03H
	DD	04c4b40H
	DD	02H
	DD	05H
	DD	04c4b40H
	DD	03H
	DD	07H
	DD	04c4b40H
_g_iCsUserReSpawnArea DD 023H
	DD	011H
	DD	090H
	DD	030H
	DD	04aH
	DD	090H
	DD	073H
	DD	09aH
	DD	023H
	DD	011H
	DD	090H
	DD	030H
_g_iNpcDefense_CGATE DD 064H
	DD	0b4H
	DD	012cH
	DD	0208H
_g_iNpcDefense_CSTATUE DD 050H
	DD	0b4H
	DD	0154H
	DD	0226H
_g_iCastleWallStepAxisY DD 071H
	DD	0a0H
	DD	0cbH
_DATA	ENDS
PUBLIC	??_H@YGXPAXIHP6EPAX0@Z@Z			; `vector constructor iterator'
; Function compile flags: /Ogtp
;	COMDAT ??_H@YGXPAXIHP6EPAX0@Z@Z
_TEXT	SEGMENT
___t$ = 8						; size = 4
___s$ = 12						; size = 4
___n$ = 16						; size = 4
___f$ = 20						; size = 4
??_H@YGXPAXIHP6EPAX0@Z@Z PROC				; `vector constructor iterator', COMDAT
  00000	55		 push	 ebp
  00001	8b ec		 mov	 ebp, esp
  00003	57		 push	 edi
  00004	8b 7d 10	 mov	 edi, DWORD PTR ___n$[ebp]
  00007	4f		 dec	 edi
  00008	78 14		 js	 SHORT $LN1@vector
  0000a	53		 push	 ebx
  0000b	8b 5d 14	 mov	 ebx, DWORD PTR ___f$[ebp]
  0000e	56		 push	 esi
  0000f	8b 75 08	 mov	 esi, DWORD PTR ___t$[ebp]
$LL2@vector:
  00012	8b ce		 mov	 ecx, esi
  00014	ff d3		 call	 ebx
  00016	03 75 0c	 add	 esi, DWORD PTR ___s$[ebp]
  00019	4f		 dec	 edi
  0001a	79 f6		 jns	 SHORT $LL2@vector
  0001c	5e		 pop	 esi
  0001d	5b		 pop	 ebx
$LN1@vector:
  0001e	5f		 pop	 edi
  0001f	5d		 pop	 ebp
  00020	c2 10 00	 ret	 16			; 00000010H
??_H@YGXPAXIHP6EPAX0@Z@Z ENDP				; `vector constructor iterator'
_TEXT	ENDS
PUBLIC	?IsCashItem@@YAHH@Z				; IsCashItem
; Function compile flags: /Ogtp
; File e:\work\tranet_version\gs\gameserver\cashshop.cpp
;	COMDAT ?IsCashItem@@YAHH@Z
_TEXT	SEGMENT
_iItemCode$ = 8						; size = 4
?IsCashItem@@YAHH@Z PROC				; IsCashItem, COMDAT

; 1530 : {

  00000	55		 push	 ebp
  00001	8b ec		 mov	 ebp, esp

; 1531 : 	switch ( iItemCode )

  00003	8b 45 08	 mov	 eax, DWORD PTR _iItemCode$[ebp]
  00006	3d 35 1c 00 00	 cmp	 eax, 7221		; 00001c35H
  0000b	7f 21		 jg	 SHORT $LN20@IsCashItem
  0000d	74 18		 je	 SHORT $LN15@IsCashItem
  0000f	05 d5 e5 ff ff	 add	 eax, -6699		; ffffe5d5H
  00014	83 f8 50	 cmp	 eax, 80			; 00000050H
  00017	77 2d		 ja	 SHORT $LN16@IsCashItem
  00019	0f b6 80 00 00
	00 00		 movzx	 eax, BYTE PTR $LN21@IsCashItem[eax]
  00020	ff 24 85 00 00
	00 00		 jmp	 DWORD PTR $LN23@IsCashItem[eax*4]
$LN15@IsCashItem:

; 1532 : 	{
; 1533 : 		case ITEMGET(13,43): return TRUE;

  00027	b8 01 00 00 00	 mov	 eax, 1

; 1615 : }

  0002c	5d		 pop	 ebp
  0002d	c3		 ret	 0
$LN20@IsCashItem:

; 1531 : 	switch ( iItemCode )

  0002e	05 ca e3 ff ff	 add	 eax, -7222		; ffffe3caH
  00033	83 f8 2c	 cmp	 eax, 44			; 0000002cH
  00036	77 0e		 ja	 SHORT $LN16@IsCashItem
  00038	0f b6 88 00 00
	00 00		 movzx	 ecx, BYTE PTR $LN22@IsCashItem[eax]
  0003f	ff 24 8d 00 00
	00 00		 jmp	 DWORD PTR $LN24@IsCashItem[ecx*4]
$LN16@IsCashItem:

; 1534 : 		case ITEMGET(13,44): return TRUE;
; 1535 : 		case ITEMGET(13,45): return TRUE;
; 1536 : 
; 1537 : 		case ITEMGET(13,46): return TRUE;
; 1538 : 		case ITEMGET(13,47): return TRUE;
; 1539 : 		case ITEMGET(13,48): return TRUE;
; 1540 : 
; 1541 : 		case ITEMGET(14,53): return TRUE;
; 1542 : 		case ITEMGET(14,54): return TRUE;
; 1543 : 
; 1544 : 		case ITEMGET(14,58): return TRUE;
; 1545 : 		case ITEMGET(14,59): return TRUE;
; 1546 : 		case ITEMGET(14,60): return TRUE;
; 1547 : 		case ITEMGET(14,61): return TRUE;
; 1548 : 		case ITEMGET(14,62): return TRUE;
; 1549 : 
; 1550 : 		case ITEMGET(13,54):
; 1551 : 		case ITEMGET(13,55):
; 1552 : 		case ITEMGET(13,56):
; 1553 : 		case ITEMGET(13,57):
; 1554 : 		case ITEMGET(13,58):
; 1555 : 		case ITEMGET(13,59): //Seal of Mobility
; 1556 : 		case ITEMGET(13,60): //Indulgence
; 1557 : 		case ITEMGET(13,61): //Illusion Temple Ticket
; 1558 : 
; 1559 : 		case ITEMGET(14,70):
; 1560 : 		case ITEMGET(14,71):
; 1561 : 			
; 1562 : 		case ITEMGET(14,72):
; 1563 : 		case ITEMGET(14,73):
; 1564 : 		case ITEMGET(14,74):
; 1565 : 		case ITEMGET(14,75):
; 1566 : 		case ITEMGET(14,76):
; 1567 : 		case ITEMGET(14,77):
; 1568 : 		case ITEMGET(14,78):
; 1569 : 		case ITEMGET(14,79):
; 1570 : 		case ITEMGET(14,80):
; 1571 : 		case ITEMGET(14,81):
; 1572 : 		case ITEMGET(14,82):
; 1573 : 		case ITEMGET(14,83):
; 1574 : 
; 1575 : 		case ITEMGET(14,94): //Medium Elite Potion
; 1576 : 			return TRUE;
; 1577 : 
; 1578 : 		//Missing Other Chaos Card
; 1579 : 
; 1580 : 		//Missing 2 Items from Season 4.0
; 1581 : 		
; 1582 : 		//Season4.5 add-on
; 1583 : 		case ITEMGET(13,81): //Talisman of Guardian
; 1584 : 		case ITEMGET(13,82): //Talisman of Protection
; 1585 : 		case ITEMGET(13,83): //Talisman of Satan Wing
; 1586 : 		case ITEMGET(13,84): //Talisman of Heaven Wing
; 1587 : 		case ITEMGET(13,85): //Talisman of Elf Wing
; 1588 : 		case ITEMGET(13,86): //Talisman of Curse Wing
; 1589 : 		case ITEMGET(13,87): //Talisman of Lord Cape
; 1590 : 		case ITEMGET(13,88): //Talisman of Dragon Wing
; 1591 : 		case ITEMGET(13,89): //Talisman of Soul Wing
; 1592 : 		case ITEMGET(13,90): //Talisman of Spirit Wing
; 1593 : 		case ITEMGET(13,91): //Talisman of Despair Wing
; 1594 : 		case ITEMGET(13,92): //Talisman of Darkness Wing
; 1595 : 		case ITEMGET(13,93): //Seal of Master Ascension
; 1596 : 		case ITEMGET(13,94): //Seal of Master Wealth
; 1597 : 		
; 1598 : 		//Season3 add-on
; 1599 : 		case ITEMGET(13,62): //Seal of Healing
; 1600 : 		case ITEMGET(13,63): //Seal of Divinity
; 1601 : 		case ITEMGET(13,64): //Demon Pet
; 1602 : 		case ITEMGET(13,65): //Spirit Guardian Pet
; 1603 : 		case ITEMGET(14,96): //Talisman of Chaos Assembly
; 1604 : 		case ITEMGET(14,97): //Scroll of Battle
; 1605 : 		case ITEMGET(14,98): //Scroll of Strenghthener
; 1606 : 			//Season 4.6 addon
; 1607 : 		case ITEMGET(13,76)://Panda Ring
; 1608 : 		case ITEMGET(13,80)://Panda Pet
; 1609 : 		case ITEMGET(13, 106): // Unicorn Pet Season 5 Episode 2 JPN
; 1610 : 		case ITEMGET(13, 122): // Skeleton Ring Season 5 Episode 2 JPN 
; 1611 : 		case ITEMGET(13, 123): // Skeleton Pet Season 5 Episode 2 JPN
; 1612 : 			return TRUE;
; 1613 : 	}
; 1614 : 	return FALSE;

  00046	33 c0		 xor	 eax, eax

; 1615 : }

  00048	5d		 pop	 ebp
  00049	c3		 ret	 0
  0004a	8b ff		 npad	 2
$LN23@IsCashItem:
  0004c	00 00 00 00	 DD	 $LN15@IsCashItem
  00050	00 00 00 00	 DD	 $LN16@IsCashItem
$LN21@IsCashItem:
  00054	00		 DB	 0
  00055	00		 DB	 0
  00056	00		 DB	 0
  00057	00		 DB	 0
  00058	00		 DB	 0
  00059	00		 DB	 0
  0005a	01		 DB	 1
  0005b	01		 DB	 1
  0005c	01		 DB	 1
  0005d	01		 DB	 1
  0005e	01		 DB	 1
  0005f	00		 DB	 0
  00060	00		 DB	 0
  00061	00		 DB	 0
  00062	00		 DB	 0
  00063	00		 DB	 0
  00064	00		 DB	 0
  00065	00		 DB	 0
  00066	00		 DB	 0
  00067	00		 DB	 0
  00068	00		 DB	 0
  00069	00		 DB	 0
  0006a	00		 DB	 0
  0006b	01		 DB	 1
  0006c	01		 DB	 1
  0006d	01		 DB	 1
  0006e	01		 DB	 1
  0006f	01		 DB	 1
  00070	01		 DB	 1
  00071	01		 DB	 1
  00072	01		 DB	 1
  00073	01		 DB	 1
  00074	01		 DB	 1
  00075	00		 DB	 0
  00076	01		 DB	 1
  00077	01		 DB	 1
  00078	01		 DB	 1
  00079	00		 DB	 0
  0007a	00		 DB	 0
  0007b	00		 DB	 0
  0007c	00		 DB	 0
  0007d	00		 DB	 0
  0007e	00		 DB	 0
  0007f	00		 DB	 0
  00080	00		 DB	 0
  00081	00		 DB	 0
  00082	00		 DB	 0
  00083	00		 DB	 0
  00084	00		 DB	 0
  00085	00		 DB	 0
  00086	00		 DB	 0
  00087	00		 DB	 0
  00088	01		 DB	 1
  00089	01		 DB	 1
  0008a	01		 DB	 1
  0008b	01		 DB	 1
  0008c	01		 DB	 1
  0008d	01		 DB	 1
  0008e	01		 DB	 1
  0008f	01		 DB	 1
  00090	01		 DB	 1
  00091	01		 DB	 1
  00092	01		 DB	 1
  00093	00		 DB	 0
  00094	01		 DB	 1
  00095	01		 DB	 1
  00096	01		 DB	 1
  00097	01		 DB	 1
  00098	01		 DB	 1
  00099	01		 DB	 1
  0009a	01		 DB	 1
  0009b	01		 DB	 1
  0009c	01		 DB	 1
  0009d	01		 DB	 1
  0009e	01		 DB	 1
  0009f	01		 DB	 1
  000a0	01		 DB	 1
  000a1	01		 DB	 1
  000a2	01		 DB	 1
  000a3	00		 DB	 0
  000a4	00		 DB	 0
  000a5	8d 49 00	 npad	 3
$LN24@IsCashItem:
  000a8	00 00 00 00	 DD	 $LN15@IsCashItem
  000ac	00 00 00 00	 DD	 $LN16@IsCashItem
$LN22@IsCashItem:
  000b0	00		 DB	 0
  000b1	01		 DB	 1
  000b2	01		 DB	 1
  000b3	01		 DB	 1
  000b4	00		 DB	 0
  000b5	00		 DB	 0
  000b6	00		 DB	 0
  000b7	00		 DB	 0
  000b8	00		 DB	 0
  000b9	01		 DB	 1
  000ba	01		 DB	 1
  000bb	01		 DB	 1
  000bc	01		 DB	 1
  000bd	01		 DB	 1
  000be	01		 DB	 1
  000bf	01		 DB	 1
  000c0	00		 DB	 0
  000c1	00		 DB	 0
  000c2	00		 DB	 0
  000c3	00		 DB	 0
  000c4	00		 DB	 0
  000c5	00		 DB	 0
  000c6	00		 DB	 0
  000c7	00		 DB	 0
  000c8	00		 DB	 0
  000c9	00		 DB	 0
  000ca	00		 DB	 0
  000cb	00		 DB	 0
  000cc	00		 DB	 0
  000cd	00		 DB	 0
  000ce	01		 DB	 1
  000cf	01		 DB	 1
  000d0	01		 DB	 1
  000d1	01		 DB	 1
  000d2	01		 DB	 1
  000d3	01		 DB	 1
  000d4	01		 DB	 1
  000d5	01		 DB	 1
  000d6	01		 DB	 1
  000d7	01		 DB	 1
  000d8	00		 DB	 0
  000d9	01		 DB	 1
  000da	00		 DB	 0
  000db	00		 DB	 0
  000dc	00		 DB	 0
?IsCashItem@@YAHH@Z ENDP				; IsCashItem
_TEXT	ENDS
PUBLIC	?CanItemTouchCash@@YAHH@Z			; CanItemTouchCash
; Function compile flags: /Ogtp
;	COMDAT ?CanItemTouchCash@@YAHH@Z
_TEXT	SEGMENT
_iItemCode$ = 8						; size = 4
?CanItemTouchCash@@YAHH@Z PROC				; CanItemTouchCash, COMDAT

; 1618 : {

  00000	55		 push	 ebp
  00001	8b ec		 mov	 ebp, esp

; 1619 : 	switch ( iItemCode )

  00003	8b 45 08	 mov	 eax, DWORD PTR _iItemCode$[ebp]
  00006	3d 6a 1a 00 00	 cmp	 eax, 6762		; 00001a6aH
  0000b	7f 1a		 jg	 SHORT $LN6@CanItemTou
  0000d	74 2f		 je	 SHORT $LN1@CanItemTou
  0000f	05 c0 e5 ff ff	 add	 eax, -6720		; ffffe5c0H
  00014	83 f8 10	 cmp	 eax, 16			; 00000010H
  00017	77 33		 ja	 SHORT $LN2@CanItemTou
  00019	0f b6 80 00 00
	00 00		 movzx	 eax, BYTE PTR $LN8@CanItemTou[eax]
  00020	ff 24 85 00 00
	00 00		 jmp	 DWORD PTR $LN9@CanItemTou[eax*4]
$LN6@CanItemTou:
  00027	3d 36 1c 00 00	 cmp	 eax, 7222		; 00001c36H
  0002c	7f 17		 jg	 SHORT $LN7@CanItemTou
  0002e	74 0e		 je	 SHORT $LN1@CanItemTou
  00030	3d 7a 1a 00 00	 cmp	 eax, 6778		; 00001a7aH
  00035	7c 15		 jl	 SHORT $LN2@CanItemTou
  00037	3d 7b 1a 00 00	 cmp	 eax, 6779		; 00001a7bH
  0003c	7f 0e		 jg	 SHORT $LN2@CanItemTou
$LN1@CanItemTou:

; 1620 : 	{
; 1621 : 		case ITEMGET(14,54):
; 1622 : 		case ITEMGET(13,64)://Demon Pet
; 1623 : 		case ITEMGET(13,65)://Spirit Guardian Pet
; 1624 : 		case ITEMGET(14,96):
; 1625 : 		case ITEMGET(13,76)://Panda Ring
; 1626 : 		case ITEMGET(13,80)://Panda Pet
; 1627 : 		case ITEMGET(13, 106): // Season 5 Episode 2 JPN
; 1628 : 		case ITEMGET(13, 122): // Skeleton Ring Season 5 Episode 2 JPN 
; 1629 : 		case ITEMGET(13, 123): // Skeleton Pet Season 5 Episode 2 JPN
; 1630 : 			return TRUE;

  0003e	b8 01 00 00 00	 mov	 eax, 1

; 1633 : }

  00043	5d		 pop	 ebp
  00044	c3		 ret	 0
$LN7@CanItemTou:

; 1619 : 	switch ( iItemCode )

  00045	3d 60 1c 00 00	 cmp	 eax, 7264		; 00001c60H
  0004a	74 f2		 je	 SHORT $LN1@CanItemTou
$LN2@CanItemTou:

; 1631 : 	}
; 1632 : 	return FALSE;

  0004c	33 c0		 xor	 eax, eax

; 1633 : }

  0004e	5d		 pop	 ebp
  0004f	c3		 ret	 0
$LN9@CanItemTou:
  00050	00 00 00 00	 DD	 $LN1@CanItemTou
  00054	00 00 00 00	 DD	 $LN2@CanItemTou
$LN8@CanItemTou:
  00058	00		 DB	 0
  00059	00		 DB	 0
  0005a	01		 DB	 1
  0005b	01		 DB	 1
  0005c	01		 DB	 1
  0005d	01		 DB	 1
  0005e	01		 DB	 1
  0005f	01		 DB	 1
  00060	01		 DB	 1
  00061	01		 DB	 1
  00062	01		 DB	 1
  00063	01		 DB	 1
  00064	00		 DB	 0
  00065	01		 DB	 1
  00066	01		 DB	 1
  00067	01		 DB	 1
  00068	00		 DB	 0
?CanItemTouchCash@@YAHH@Z ENDP				; CanItemTouchCash
_TEXT	ENDS
END
