; Listing generated by Microsoft (R) Optimizing Compiler Version 16.00.30319.01 

	TITLE	E:\work\tranet_version\GS\GameServer\CastleSiege.cpp
	.686P
	.XMM
	include listing.inc
	.model	flat

INCLUDELIB LIBCMT
INCLUDELIB OLDNAMES

_DATA	SEGMENT
_g_iNpcUpDfLevel_CGATE DD 01H
	DD	02H
	DD	02dc6c0H
	DD	02H
	DD	03H
	DD	02dc6c0H
	DD	03H
	DD	04H
	DD	02dc6c0H
_g_iNpcUpDfLevel_CSTATUE DD 01H
	DD	03H
	DD	02dc6c0H
	DD	02H
	DD	05H
	DD	02dc6c0H
	DD	03H
	DD	07H
	DD	02dc6c0H
_g_iNpcUpMaxHP_CGATE DD 02625a0H
	DD	02H
	DD	0f4240H
	DD	03567e0H
	DD	03H
	DD	0f4240H
	DD	04f5880H
	DD	04H
	DD	0f4240H
_g_iNpcUpMaxHP_CSTATUE DD 02191c0H
	DD	03H
	DD	0f4240H
	DD	033e140H
	DD	05H
	DD	0f4240H
	DD	04c4b40H
	DD	07H
	DD	0f4240H
_g_iNpcUpRgLevel_CSTATUE DD 01H
	DD	03H
	DD	04c4b40H
	DD	02H
	DD	05H
	DD	04c4b40H
	DD	03H
	DD	07H
	DD	04c4b40H
_g_iCsUserReSpawnArea DD 023H
	DD	011H
	DD	090H
	DD	030H
	DD	04aH
	DD	090H
	DD	073H
	DD	09aH
	DD	023H
	DD	011H
	DD	090H
	DD	030H
_g_iNpcDefense_CGATE DD 064H
	DD	0b4H
	DD	012cH
	DD	0208H
_g_iNpcDefense_CSTATUE DD 050H
	DD	0b4H
	DD	0154H
	DD	0226H
_g_iCastleWallStepAxisY DD 071H
	DD	0a0H
	DD	0cbH
_DATA	ENDS
PUBLIC	?set@PBMSG_HEAD2@@QAEXPAEEEE@Z			; PBMSG_HEAD2::set
; Function compile flags: /Ogtp
; File e:\work\tranet_version\gs\include\prodef.h
;	COMDAT ?set@PBMSG_HEAD2@@QAEXPAEEEE@Z
_TEXT	SEGMENT
_lpBuf$ = 8						; size = 4
_head$ = 12						; size = 1
_sub$ = 16						; size = 1
_size$ = 20						; size = 1
?set@PBMSG_HEAD2@@QAEXPAEEEE@Z PROC			; PBMSG_HEAD2::set, COMDAT
; _this$ = ecx

; 104  : 	{

  00000	55		 push	 ebp
  00001	8b ec		 mov	 ebp, esp

; 105  : 		lpBuf[0] = 0xC1;

  00003	8b 45 08	 mov	 eax, DWORD PTR _lpBuf$[ebp]

; 106  : 		lpBuf[1] = size;

  00006	8a 4d 14	 mov	 cl, BYTE PTR _size$[ebp]

; 107  : 		lpBuf[2] = head;

  00009	8a 55 0c	 mov	 dl, BYTE PTR _head$[ebp]
  0000c	88 48 01	 mov	 BYTE PTR [eax+1], cl

; 108  : 		lpBuf[3] = sub;

  0000f	8a 4d 10	 mov	 cl, BYTE PTR _sub$[ebp]
  00012	c6 00 c1	 mov	 BYTE PTR [eax], 193	; 000000c1H
  00015	88 50 02	 mov	 BYTE PTR [eax+2], dl
  00018	88 48 03	 mov	 BYTE PTR [eax+3], cl

; 109  : 	};

  0001b	5d		 pop	 ebp
  0001c	c2 10 00	 ret	 16			; 00000010H
?set@PBMSG_HEAD2@@QAEXPAEEEE@Z ENDP			; PBMSG_HEAD2::set
_TEXT	ENDS
PUBLIC	?set@PWMSG_HEAD@@QAEXPAEEH@Z			; PWMSG_HEAD::set
; Function compile flags: /Ogtp
;	COMDAT ?set@PWMSG_HEAD@@QAEXPAEEH@Z
_TEXT	SEGMENT
_lpBuf$ = 8						; size = 4
_head$ = 12						; size = 1
_size$ = 16						; size = 4
?set@PWMSG_HEAD@@QAEXPAEEH@Z PROC			; PWMSG_HEAD::set, COMDAT
; _this$ = ecx

; 122  : 	{

  00000	55		 push	 ebp
  00001	8b ec		 mov	 ebp, esp

; 123  : 		lpBuf[0] = 0xC2;

  00003	8b 45 08	 mov	 eax, DWORD PTR _lpBuf$[ebp]

; 124  : 		lpBuf[1] = SET_NUMBERH(size);

  00006	8b 4d 10	 mov	 ecx, DWORD PTR _size$[ebp]
  00009	8b d1		 mov	 edx, ecx

; 125  : 		lpBuf[2] = SET_NUMBERL(size);

  0000b	88 48 02	 mov	 BYTE PTR [eax+2], cl

; 126  : 		lpBuf[3] = head;

  0000e	8a 4d 0c	 mov	 cl, BYTE PTR _head$[ebp]
  00011	c1 ea 08	 shr	 edx, 8
  00014	c6 00 c2	 mov	 BYTE PTR [eax], 194	; 000000c2H
  00017	88 50 01	 mov	 BYTE PTR [eax+1], dl
  0001a	88 48 03	 mov	 BYTE PTR [eax+3], cl

; 127  : 	};

  0001d	5d		 pop	 ebp
  0001e	c2 0c 00	 ret	 12			; 0000000cH
?set@PWMSG_HEAD@@QAEXPAEEH@Z ENDP			; PWMSG_HEAD::set
_TEXT	ENDS
PUBLIC	??2@YAPAXIPAX@Z					; operator new
; Function compile flags: /Ogtp
; File d:\program files (x86)\microsoft visual studio 10.0\vc\include\new.h
;	COMDAT ??2@YAPAXIPAX@Z
_TEXT	SEGMENT
___formal$ = 8						; size = 4
__Where$ = 12						; size = 4
??2@YAPAXIPAX@Z PROC					; operator new, COMDAT

; 81   :         {return (_Where); }

  00000	55		 push	 ebp
  00001	8b ec		 mov	 ebp, esp
  00003	8b 45 0c	 mov	 eax, DWORD PTR __Where$[ebp]
  00006	5d		 pop	 ebp
  00007	c3		 ret	 0
??2@YAPAXIPAX@Z ENDP					; operator new
_TEXT	ENDS
PUBLIC	??3@YAXPAX0@Z					; operator delete
; Function compile flags: /Ogtp
;	COMDAT ??3@YAXPAX0@Z
_TEXT	SEGMENT
___formal$ = 8						; size = 4
___formal$ = 12						; size = 4
??3@YAXPAX0@Z PROC					; operator delete, COMDAT

; 83   :         {return; }

  00000	c3		 ret	 0
??3@YAXPAX0@Z ENDP					; operator delete
_TEXT	ENDS
PUBLIC	??_H@YGXPAXIHP6EPAX0@Z@Z			; `vector constructor iterator'
; Function compile flags: /Ogtp
;	COMDAT ??_H@YGXPAXIHP6EPAX0@Z@Z
_TEXT	SEGMENT
___t$ = 8						; size = 4
___s$ = 12						; size = 4
___n$ = 16						; size = 4
___f$ = 20						; size = 4
??_H@YGXPAXIHP6EPAX0@Z@Z PROC				; `vector constructor iterator', COMDAT
  00000	55		 push	 ebp
  00001	8b ec		 mov	 ebp, esp
  00003	57		 push	 edi
  00004	8b 7d 10	 mov	 edi, DWORD PTR ___n$[ebp]
  00007	4f		 dec	 edi
  00008	78 14		 js	 SHORT $LN1@vector
  0000a	53		 push	 ebx
  0000b	8b 5d 14	 mov	 ebx, DWORD PTR ___f$[ebp]
  0000e	56		 push	 esi
  0000f	8b 75 08	 mov	 esi, DWORD PTR ___t$[ebp]
$LL2@vector:
  00012	8b ce		 mov	 ecx, esi
  00014	ff d3		 call	 ebx
  00016	03 75 0c	 add	 esi, DWORD PTR ___s$[ebp]
  00019	4f		 dec	 edi
  0001a	79 f6		 jns	 SHORT $LL2@vector
  0001c	5e		 pop	 esi
  0001d	5b		 pop	 ebx
$LN1@vector:
  0001e	5f		 pop	 edi
  0001f	5d		 pop	 ebp
  00020	c2 10 00	 ret	 16			; 00000010H
??_H@YGXPAXIHP6EPAX0@Z@Z ENDP				; `vector constructor iterator'
_TEXT	ENDS
PUBLIC	?GetCastleLeftSiegeDate@CCastleSiege@@QAE?AU_SYSTEMTIME@@XZ ; CCastleSiege::GetCastleLeftSiegeDate
; Function compile flags: /Ogtp
; File e:\work\tranet_version\gs\gameserver\castlesiege.h
;	COMDAT ?GetCastleLeftSiegeDate@CCastleSiege@@QAE?AU_SYSTEMTIME@@XZ
_TEXT	SEGMENT
___$ReturnUdt$ = 8					; size = 4
?GetCastleLeftSiegeDate@CCastleSiege@@QAE?AU_SYSTEMTIME@@XZ PROC ; CCastleSiege::GetCastleLeftSiegeDate, COMDAT
; _this$ = ecx

; 315  : 	SYSTEMTIME GetCastleLeftSiegeDate() {return m_tmLeftCastleSiegeDate;}

  00000	55		 push	 ebp
  00001	8b ec		 mov	 ebp, esp
  00003	8b 45 08	 mov	 eax, DWORD PTR ___$ReturnUdt$[ebp]
  00006	8b 91 80 00 00
	00		 mov	 edx, DWORD PTR [ecx+128]
  0000c	89 10		 mov	 DWORD PTR [eax], edx
  0000e	8b 91 84 00 00
	00		 mov	 edx, DWORD PTR [ecx+132]
  00014	89 50 04	 mov	 DWORD PTR [eax+4], edx
  00017	8b 91 88 00 00
	00		 mov	 edx, DWORD PTR [ecx+136]
  0001d	8b 89 8c 00 00
	00		 mov	 ecx, DWORD PTR [ecx+140]
  00023	89 50 08	 mov	 DWORD PTR [eax+8], edx
  00026	89 48 0c	 mov	 DWORD PTR [eax+12], ecx
  00029	5d		 pop	 ebp
  0002a	c2 04 00	 ret	 4
?GetCastleLeftSiegeDate@CCastleSiege@@QAE?AU_SYSTEMTIME@@XZ ENDP ; CCastleSiege::GetCastleLeftSiegeDate
_TEXT	ENDS
PUBLIC	?SetCastleTowerAccessable@CCastleSiege@@QAEXH@Z	; CCastleSiege::SetCastleTowerAccessable
; Function compile flags: /Ogtp
;	COMDAT ?SetCastleTowerAccessable@CCastleSiege@@QAEXH@Z
_TEXT	SEGMENT
_bTowerAccessable$ = 8					; size = 4
?SetCastleTowerAccessable@CCastleSiege@@QAEXH@Z PROC	; CCastleSiege::SetCastleTowerAccessable, COMDAT
; _this$ = ecx

; 350  : 	void SetCastleTowerAccessable(BOOL bTowerAccessable){m_bCastleTowerAccessable = bTowerAccessable;}

  00000	55		 push	 ebp
  00001	8b ec		 mov	 ebp, esp
  00003	8b 45 08	 mov	 eax, DWORD PTR _bTowerAccessable$[ebp]
  00006	89 81 e4 01 00
	00		 mov	 DWORD PTR [ecx+484], eax
  0000c	5d		 pop	 ebp
  0000d	c2 04 00	 ret	 4
?SetCastleTowerAccessable@CCastleSiege@@QAEXH@Z ENDP	; CCastleSiege::SetCastleTowerAccessable
_TEXT	ENDS
PUBLIC	?GetCrownUserIndex@CCastleSiege@@QAEHXZ		; CCastleSiege::GetCrownUserIndex
; Function compile flags: /Ogtp
;	COMDAT ?GetCrownUserIndex@CCastleSiege@@QAEHXZ
_TEXT	SEGMENT
?GetCrownUserIndex@CCastleSiege@@QAEHXZ PROC		; CCastleSiege::GetCrownUserIndex, COMDAT
; _this$ = ecx

; 390  : 	int GetCrownUserIndex(){return m_iCastleCrownAccessUser;}

  00000	8b 81 f0 01 00
	00		 mov	 eax, DWORD PTR [ecx+496]
  00006	c3		 ret	 0
?GetCrownUserIndex@CCastleSiege@@QAEHXZ ENDP		; CCastleSiege::GetCrownUserIndex
_TEXT	ENDS
PUBLIC	?ResetCrownUserIndex@CCastleSiege@@QAEXXZ	; CCastleSiege::ResetCrownUserIndex
; Function compile flags: /Ogtp
;	COMDAT ?ResetCrownUserIndex@CCastleSiege@@QAEXXZ
_TEXT	SEGMENT
?ResetCrownUserIndex@CCastleSiege@@QAEXXZ PROC		; CCastleSiege::ResetCrownUserIndex, COMDAT
; _this$ = ecx

; 391  : 	void ResetCrownUserIndex(){m_iCastleCrownAccessUser=-1;}

  00000	c7 81 f0 01 00
	00 ff ff ff ff	 mov	 DWORD PTR [ecx+496], -1
  0000a	c3		 ret	 0
?ResetCrownUserIndex@CCastleSiege@@QAEXXZ ENDP		; CCastleSiege::ResetCrownUserIndex
_TEXT	ENDS
PUBLIC	?SetCrownAccessUserX@CCastleSiege@@QAEXE@Z	; CCastleSiege::SetCrownAccessUserX
; Function compile flags: /Ogtp
;	COMDAT ?SetCrownAccessUserX@CCastleSiege@@QAEXE@Z
_TEXT	SEGMENT
_iX$ = 8						; size = 1
?SetCrownAccessUserX@CCastleSiege@@QAEXE@Z PROC		; CCastleSiege::SetCrownAccessUserX, COMDAT
; _this$ = ecx

; 394  : 	void SetCrownAccessUserX(BYTE iX){m_btCastleCrownAccessUserX = iX;}

  00000	55		 push	 ebp
  00001	8b ec		 mov	 ebp, esp
  00003	8a 45 08	 mov	 al, BYTE PTR _iX$[ebp]
  00006	88 81 f4 01 00
	00		 mov	 BYTE PTR [ecx+500], al
  0000c	5d		 pop	 ebp
  0000d	c2 04 00	 ret	 4
?SetCrownAccessUserX@CCastleSiege@@QAEXE@Z ENDP		; CCastleSiege::SetCrownAccessUserX
_TEXT	ENDS
PUBLIC	?SetCrownAccessUserY@CCastleSiege@@QAEXE@Z	; CCastleSiege::SetCrownAccessUserY
; Function compile flags: /Ogtp
;	COMDAT ?SetCrownAccessUserY@CCastleSiege@@QAEXE@Z
_TEXT	SEGMENT
_iY$ = 8						; size = 1
?SetCrownAccessUserY@CCastleSiege@@QAEXE@Z PROC		; CCastleSiege::SetCrownAccessUserY, COMDAT
; _this$ = ecx

; 395  : 	void SetCrownAccessUserY(BYTE iY){m_btCastleCrownAccessUserY = iY;}

  00000	55		 push	 ebp
  00001	8b ec		 mov	 ebp, esp
  00003	8a 45 08	 mov	 al, BYTE PTR _iY$[ebp]
  00006	88 81 f5 01 00
	00		 mov	 BYTE PTR [ecx+501], al
  0000c	5d		 pop	 ebp
  0000d	c2 04 00	 ret	 4
?SetCrownAccessUserY@CCastleSiege@@QAEXE@Z ENDP		; CCastleSiege::SetCrownAccessUserY
_TEXT	ENDS
EXTRN	__difftime64:PROC
EXTRN	__fltused:DWORD
; Function compile flags: /Ogtp
; File d:\program files (x86)\microsoft visual studio 10.0\vc\include\time.inl
;	COMDAT _difftime
_TEXT	SEGMENT
__Time1$ = 8						; size = 8
__Time2$ = 16						; size = 8
_difftime PROC						; COMDAT

; 83   : {

  00000	55		 push	 ebp
  00001	8b ec		 mov	 ebp, esp

; 84   :     return _difftime64(_Time1,_Time2);

  00003	8b 45 14	 mov	 eax, DWORD PTR __Time2$[ebp+4]
  00006	8b 4d 10	 mov	 ecx, DWORD PTR __Time2$[ebp]
  00009	8b 55 0c	 mov	 edx, DWORD PTR __Time1$[ebp+4]
  0000c	50		 push	 eax
  0000d	8b 45 08	 mov	 eax, DWORD PTR __Time1$[ebp]
  00010	51		 push	 ecx
  00011	52		 push	 edx
  00012	50		 push	 eax
  00013	e8 00 00 00 00	 call	 __difftime64
  00018	83 c4 10	 add	 esp, 16			; 00000010H

; 85   : }

  0001b	5d		 pop	 ebp
  0001c	c3		 ret	 0
_difftime ENDP
_TEXT	ENDS
EXTRN	__mktime64:PROC
; Function compile flags: /Ogtp
;	COMDAT _mktime
_TEXT	SEGMENT
_mktime	PROC						; COMDAT
; __Tm$ = eax

; 125  :     return _mktime64(_Tm);

  00000	50		 push	 eax
  00001	e8 00 00 00 00	 call	 __mktime64
  00006	83 c4 04	 add	 esp, 4

; 126  : }

  00009	c3		 ret	 0
_mktime	ENDP
_TEXT	ENDS
EXTRN	__time64:PROC
; Function compile flags: /Ogtp
;	COMDAT _time
_TEXT	SEGMENT
_time	PROC						; COMDAT
; __Time$ = eax

; 133  :     return _time64(_Time);

  00000	50		 push	 eax
  00001	e8 00 00 00 00	 call	 __time64
  00006	83 c4 04	 add	 esp, 4

; 134  : }

  00009	c3		 ret	 0
_time	ENDP
_TEXT	ENDS
PUBLIC	?_ARGB@@YAKEEEE@Z				; _ARGB
; Function compile flags: /Ogtp
; File e:\work\tranet_version\gs\gameserver\tnotice.h
;	COMDAT ?_ARGB@@YAKEEEE@Z
_TEXT	SEGMENT
_a$ = 8							; size = 1
_r$ = 12						; size = 1
_g$ = 16						; size = 1
_b$ = 20						; size = 1
?_ARGB@@YAKEEEE@Z PROC					; _ARGB, COMDAT

; 9    : __inline DWORD _ARGB(BYTE a, BYTE r, BYTE g, BYTE b){ return a*16777216 + b*65536 + g*256 + r;}; // in tnotice.h : line 8

  00000	55		 push	 ebp
  00001	8b ec		 mov	 ebp, esp
  00003	0f b6 45 08	 movzx	 eax, BYTE PTR _a$[ebp]
  00007	0f b6 4d 14	 movzx	 ecx, BYTE PTR _b$[ebp]
  0000b	0f b6 55 10	 movzx	 edx, BYTE PTR _g$[ebp]
  0000f	c1 e0 08	 shl	 eax, 8
  00012	03 c1		 add	 eax, ecx
  00014	0f b6 4d 0c	 movzx	 ecx, BYTE PTR _r$[ebp]
  00018	c1 e0 08	 shl	 eax, 8
  0001b	03 c2		 add	 eax, edx
  0001d	c1 e0 08	 shl	 eax, 8
  00020	03 c1		 add	 eax, ecx
  00022	5d		 pop	 ebp
  00023	c3		 ret	 0
?_ARGB@@YAKEEEE@Z ENDP					; _ARGB
_TEXT	ENDS
PUBLIC	__$ArrayPad$
EXTRN	_isalnum:PROC
EXTRN	_isalpha:PROC
EXTRN	_atof:PROC
EXTRN	_isdigit:PROC
EXTRN	_getc:PROC
EXTRN	_ungetc:PROC
EXTRN	_isspace:PROC
EXTRN	_fgetc:PROC
EXTRN	___security_cookie:DWORD
EXTRN	@__security_check_cookie@4:PROC
_BSS	SEGMENT
_CurrentToken DD 01H DUP (?)
_TokenNumber DD	01H DUP (?)
_SMDFile DD	01H DUP (?)
_TokenString DB	064H DUP (?)
; Function compile flags: /Ogtp
; File e:\work\tranet_version\gs\include\readscript.h
_BSS	ENDS
;	COMDAT ?GetToken@@YA?AW4SMDToken@@XZ
_TEXT	SEGMENT
_TempString$ = -104					; size = 100
__$ArrayPad$ = -4					; size = 4
?GetToken@@YA?AW4SMDToken@@XZ PROC			; GetToken, COMDAT

; 24   : {

  00000	55		 push	 ebp
  00001	8b ec		 mov	 ebp, esp
  00003	83 ec 68	 sub	 esp, 104		; 00000068H
  00006	a1 00 00 00 00	 mov	 eax, DWORD PTR ___security_cookie
  0000b	33 c5		 xor	 eax, ebp
  0000d	89 45 fc	 mov	 DWORD PTR __$ArrayPad$[ebp], eax

; 25   : 	char ch;
; 26   : 	char* p;
; 27   : 	char TempString[100];
; 28   : 
; 29   : 	TokenString[0]=0;

  00010	c6 05 00 00 00
	00 00		 mov	 BYTE PTR _TokenString, 0
  00017	53		 push	 ebx
  00018	eb 06 8d 9b 00
	00 00 00	 npad	 8
$LL31@GetToken:

; 30   : 
; 31   : 	do
; 32   : 	{
; 33   : 		if ((ch=fgetc(SMDFile)) == -1)

  00020	a1 00 00 00 00	 mov	 eax, DWORD PTR _SMDFile
  00025	50		 push	 eax
  00026	e8 00 00 00 00	 call	 _fgetc
  0002b	8a d8		 mov	 bl, al
  0002d	83 c4 04	 add	 esp, 4
  00030	80 fb ff	 cmp	 bl, -1
  00033	74 64		 je	 SHORT $LN39@GetToken

; 36   : 		}
; 37   : 		else
; 38   : 		{	
; 39   : 			if (ch=='/')		// this is /

  00035	80 fb 2f	 cmp	 bl, 47			; 0000002fH
  00038	75 31		 jne	 SHORT $LN30@GetToken

; 40   : 			{
; 41   : 				if((ch=fgetc(SMDFile)) == '/')

  0003a	8b 0d 00 00 00
	00		 mov	 ecx, DWORD PTR _SMDFile
  00040	51		 push	 ecx
  00041	e8 00 00 00 00	 call	 _fgetc
  00046	8a d8		 mov	 bl, al
  00048	83 c4 04	 add	 esp, 4
  0004b	80 fb 2f	 cmp	 bl, 47			; 0000002fH
  0004e	75 1b		 jne	 SHORT $LN30@GetToken
$LL24@GetToken:

; 42   : 				{
; 43   : 					while ((ch != '\n') && (ch != -1))	// End of Line (EOL)

  00050	80 fb ff	 cmp	 bl, -1
  00053	74 44		 je	 SHORT $LN39@GetToken

; 44   : 					{
; 45   : 						ch=fgetc(SMDFile);

  00055	8b 15 00 00 00
	00		 mov	 edx, DWORD PTR _SMDFile
  0005b	52		 push	 edx
  0005c	e8 00 00 00 00	 call	 _fgetc
  00061	8a d8		 mov	 bl, al
  00063	83 c4 04	 add	 esp, 4
  00066	80 fb 0a	 cmp	 bl, 10			; 0000000aH
  00069	75 e5		 jne	 SHORT $LL24@GetToken
$LN30@GetToken:

; 46   : 					}
; 47   : 	
; 48   : 					if (ch == -1)
; 49   : 					{
; 50   : 						return END;	// End of FILE
; 51   : 					}
; 52   : 				}
; 53   : 			}
; 54   : 		}
; 55   : 	}
; 56   : 	while (isspace(ch) != 0);

  0006b	0f be c3	 movsx	 eax, bl
  0006e	50		 push	 eax
  0006f	e8 00 00 00 00	 call	 _isspace
  00074	83 c4 04	 add	 esp, 4
  00077	85 c0		 test	 eax, eax
  00079	75 a5		 jne	 SHORT $LL31@GetToken

; 57   : 
; 58   : 	
; 59   : 	switch(ch)

  0007b	0f be c3	 movsx	 eax, bl
  0007e	8d 48 de	 lea	 ecx, DWORD PTR [eax-34]
  00081	56		 push	 esi
  00082	83 f9 5b	 cmp	 ecx, 91			; 0000005bH
  00085	0f 87 2b 01 00
	00		 ja	 $LN6@GetToken
  0008b	0f b6 89 00 00
	00 00		 movzx	 ecx, BYTE PTR $LN46@GetToken[ecx]
  00092	ff 24 8d 00 00
	00 00		 jmp	 DWORD PTR $LN50@GetToken[ecx*4]
$LN39@GetToken:

; 34   : 		{
; 35   : 			return END;	// End of FILE (EOF)

  00099	b8 02 00 00 00	 mov	 eax, 2
  0009e	5b		 pop	 ebx

; 147  : 		}
; 148  : 		break;
; 149  : 
; 150  : 	}
; 151  : 
; 152  : 	return NAME;
; 153  : }

  0009f	8b 4d fc	 mov	 ecx, DWORD PTR __$ArrayPad$[ebp]
  000a2	33 cd		 xor	 ecx, ebp
  000a4	e8 00 00 00 00	 call	 @__security_check_cookie@4
  000a9	8b e5		 mov	 esp, ebp
  000ab	5d		 pop	 ebp
  000ac	c3		 ret	 0
$LN19@GetToken:

; 60   : 	{
; 61   : 
; 62   : 	case 0x23:	// #
; 63   : 		return CurrentToken=COMMAND;

  000ad	b8 23 00 00 00	 mov	 eax, 35			; 00000023H
  000b2	e9 99 01 00 00	 jmp	 $LN48@GetToken
$LN18@GetToken:

; 64   : 		break;
; 65   : 	
; 66   : 	case 0x3B:	// ;
; 67   : 		return CurrentToken=SEMICOLON;

  000b7	b8 3b 00 00 00	 mov	 eax, 59			; 0000003bH
  000bc	e9 8f 01 00 00	 jmp	 $LN48@GetToken
$LN17@GetToken:

; 68   : 		break;
; 69   : 	
; 70   : 	case 0x2C:	// ,
; 71   : 
; 72   : 		return CurrentToken=COMMA;

  000c1	b8 2c 00 00 00	 mov	 eax, 44			; 0000002cH
  000c6	e9 85 01 00 00	 jmp	 $LN48@GetToken
$LN16@GetToken:

; 73   : 		break;
; 74   : 	
; 75   : 	case 0x7B:	// {
; 76   : 		return CurrentToken = LP;

  000cb	b8 7b 00 00 00	 mov	 eax, 123		; 0000007bH
  000d0	e9 7b 01 00 00	 jmp	 $LN48@GetToken
$LN15@GetToken:

; 77   : 		break;
; 78   : 
; 79   : 	case 0x7D:	// }
; 80   : 		return CurrentToken = RP;

  000d5	b8 7d 00 00 00	 mov	 eax, 125		; 0000007dH
  000da	e9 71 01 00 00	 jmp	 $LN48@GetToken
$LN14@GetToken:

; 81   : 		break;
; 82   : 	// Nice Index Table :)	by Deathway
; 83   : 	// Numbers Case
; 84   : 	case 0x2D:	//-
; 85   : 	case 0x2E:	//.
; 86   : 	case '0':	//0
; 87   : 	case '1':	//1
; 88   : 	case '2':	//2
; 89   : 	case '3':	//3
; 90   : 	case '4':	//4		
; 91   : 	case '5':	//5
; 92   : 	case '6':	//6
; 93   : 	case '7':	//7
; 94   : 	case '8':	//8
; 95   : 	case '9':	//9
; 96   : 		ungetc(ch, SMDFile);

  000df	8b 15 00 00 00
	00		 mov	 edx, DWORD PTR _SMDFile
  000e5	52		 push	 edx
  000e6	50		 push	 eax
  000e7	e8 00 00 00 00	 call	 _ungetc

; 97   : 		p = TempString;
; 98   : 		
; 99   : 		while (((ch=getc(SMDFile)) != -1) && ((ch == 0x2E) || (isdigit(ch) != 0) || (ch == 0x2D)))  // 2e '.'  2D '-'

  000ec	a1 00 00 00 00	 mov	 eax, DWORD PTR _SMDFile
  000f1	50		 push	 eax
  000f2	8d 75 98	 lea	 esi, DWORD PTR _TempString$[ebp]
  000f5	e8 00 00 00 00	 call	 _getc
  000fa	8a d8		 mov	 bl, al
  000fc	83 c4 0c	 add	 esp, 12			; 0000000cH
  000ff	80 fb ff	 cmp	 bl, -1
  00102	74 33		 je	 SHORT $LN12@GetToken
$LL13@GetToken:
  00104	80 fb 2e	 cmp	 bl, 46			; 0000002eH
  00107	74 15		 je	 SHORT $LN11@GetToken
  00109	0f be cb	 movsx	 ecx, bl
  0010c	51		 push	 ecx
  0010d	e8 00 00 00 00	 call	 _isdigit
  00112	83 c4 04	 add	 esp, 4
  00115	85 c0		 test	 eax, eax
  00117	75 05		 jne	 SHORT $LN11@GetToken
  00119	80 fb 2d	 cmp	 bl, 45			; 0000002dH
  0011c	75 19		 jne	 SHORT $LN12@GetToken
$LN11@GetToken:
  0011e	8b 15 00 00 00
	00		 mov	 edx, DWORD PTR _SMDFile

; 100  : 		{
; 101  : 			*p = ch;	// Construct a String

  00124	88 1e		 mov	 BYTE PTR [esi], bl
  00126	52		 push	 edx

; 102  : 			p++;

  00127	46		 inc	 esi
  00128	e8 00 00 00 00	 call	 _getc
  0012d	8a d8		 mov	 bl, al
  0012f	83 c4 04	 add	 esp, 4
  00132	80 fb ff	 cmp	 bl, -1
  00135	75 cd		 jne	 SHORT $LL13@GetToken
$LN12@GetToken:

; 103  : 		}		
; 104  : 		*p = 0;
; 105  : 		TokenNumber = atof( TempString);	// Select the first Byte as Main ID

  00137	8d 45 98	 lea	 eax, DWORD PTR _TempString$[ebp]
  0013a	50		 push	 eax
  0013b	c6 06 00	 mov	 BYTE PTR [esi], 0
  0013e	e8 00 00 00 00	 call	 _atof
  00143	d9 1d 00 00 00
	00		 fstp	 DWORD PTR _TokenNumber
  00149	83 c4 04	 add	 esp, 4
  0014c	5e		 pop	 esi

; 106  : 		return CurrentToken  = NUMBER ;

  0014d	c7 05 00 00 00
	00 01 00 00 00	 mov	 DWORD PTR _CurrentToken, 1
  00157	b8 01 00 00 00	 mov	 eax, 1
  0015c	5b		 pop	 ebx

; 147  : 		}
; 148  : 		break;
; 149  : 
; 150  : 	}
; 151  : 
; 152  : 	return NAME;
; 153  : }

  0015d	8b 4d fc	 mov	 ecx, DWORD PTR __$ArrayPad$[ebp]
  00160	33 cd		 xor	 ecx, ebp
  00162	e8 00 00 00 00	 call	 @__security_check_cookie@4
  00167	8b e5		 mov	 esp, ebp
  00169	5d		 pop	 ebp
  0016a	c3		 ret	 0
$LN10@GetToken:

; 107  : 		break;
; 108  : 
; 109  : 	case '\"':	// "	String Case
; 110  : 		p=&TokenString[0];
; 111  : 		
; 112  : 		while (((ch=getc(SMDFile)) != -1 ) && (ch != 0x22))	// nice

  0016b	8b 0d 00 00 00
	00		 mov	 ecx, DWORD PTR _SMDFile
  00171	51		 push	 ecx
  00172	be 00 00 00 00	 mov	 esi, OFFSET _TokenString
  00177	e8 00 00 00 00	 call	 _getc
  0017c	83 c4 04	 add	 esp, 4
  0017f	3c ff		 cmp	 al, -1
  00181	74 1e		 je	 SHORT $LN8@GetToken
$LL9@GetToken:
  00183	3c 22		 cmp	 al, 34			; 00000022H
  00185	0f 84 a1 00 00
	00		 je	 $LN7@GetToken
  0018b	8b 15 00 00 00
	00		 mov	 edx, DWORD PTR _SMDFile

; 113  : 		{
; 114  : 			*p = ch;

  00191	88 06		 mov	 BYTE PTR [esi], al
  00193	52		 push	 edx

; 115  : 			p++;

  00194	46		 inc	 esi
  00195	e8 00 00 00 00	 call	 _getc
  0019a	83 c4 04	 add	 esp, 4
  0019d	3c ff		 cmp	 al, -1
  0019f	75 e2		 jne	 SHORT $LL9@GetToken
$LN8@GetToken:

; 116  : 		}
; 117  : 		if (ch != 0x22 )

  001a1	3c 22		 cmp	 al, 34			; 00000022H
  001a3	0f 84 83 00 00
	00		 je	 $LN7@GetToken

; 118  : 		{
; 119  : 			ungetc(ch, SMDFile);

  001a9	8b 0d 00 00 00
	00		 mov	 ecx, DWORD PTR _SMDFile
  001af	0f be d0	 movsx	 edx, al
  001b2	51		 push	 ecx
  001b3	52		 push	 edx

; 120  : 		}
; 121  : 		*p = 0;
; 122  : 		return CurrentToken = NAME;

  001b4	eb 6e		 jmp	 SHORT $LN49@GetToken
$LN6@GetToken:

; 123  : 		break;
; 124  : 
; 125  : 	default:	// Others
; 126  : 		if (isalpha(ch))

  001b6	50		 push	 eax
  001b7	e8 00 00 00 00	 call	 _isalpha
  001bc	83 c4 04	 add	 esp, 4
  001bf	85 c0		 test	 eax, eax
  001c1	0f 84 84 00 00
	00		 je	 $LN5@GetToken

; 127  : 		{
; 128  : 			p=&TokenString[0];
; 129  : 			*p=ch;
; 130  : 			p++;
; 131  : 
; 132  : 			while ( ((ch=getc(SMDFile)) != -1) && ( (ch == 0x2E) || (ch == 0x5F) || (isalnum(ch) != 0) ) )

  001c7	a1 00 00 00 00	 mov	 eax, DWORD PTR _SMDFile
  001cc	50		 push	 eax
  001cd	88 1d 00 00 00
	00		 mov	 BYTE PTR _TokenString, bl
  001d3	be 01 00 00 00	 mov	 esi, OFFSET _TokenString+1
  001d8	e8 00 00 00 00	 call	 _getc
  001dd	8a d8		 mov	 bl, al
  001df	83 c4 04	 add	 esp, 4
  001e2	80 fb ff	 cmp	 bl, -1
  001e5	74 33		 je	 SHORT $LN3@GetToken
$LL4@GetToken:
  001e7	80 fb 2e	 cmp	 bl, 46			; 0000002eH
  001ea	74 15		 je	 SHORT $LN2@GetToken
  001ec	80 fb 5f	 cmp	 bl, 95			; 0000005fH
  001ef	74 10		 je	 SHORT $LN2@GetToken
  001f1	0f be cb	 movsx	 ecx, bl
  001f4	51		 push	 ecx
  001f5	e8 00 00 00 00	 call	 _isalnum
  001fa	83 c4 04	 add	 esp, 4
  001fd	85 c0		 test	 eax, eax
  001ff	74 19		 je	 SHORT $LN3@GetToken
$LN2@GetToken:
  00201	8b 15 00 00 00
	00		 mov	 edx, DWORD PTR _SMDFile

; 133  : 			{
; 134  : 				*p=ch;

  00207	88 1e		 mov	 BYTE PTR [esi], bl
  00209	52		 push	 edx

; 135  : 				p++;

  0020a	46		 inc	 esi
  0020b	e8 00 00 00 00	 call	 _getc
  00210	8a d8		 mov	 bl, al
  00212	83 c4 04	 add	 esp, 4
  00215	80 fb ff	 cmp	 bl, -1
  00218	75 cd		 jne	 SHORT $LL4@GetToken
$LN3@GetToken:

; 136  : 				
; 137  : 			}
; 138  : 
; 139  : 			ungetc(ch, SMDFile);

  0021a	a1 00 00 00 00	 mov	 eax, DWORD PTR _SMDFile
  0021f	0f be cb	 movsx	 ecx, bl
  00222	50		 push	 eax
  00223	51		 push	 ecx
$LN49@GetToken:
  00224	e8 00 00 00 00	 call	 _ungetc
  00229	83 c4 08	 add	 esp, 8
$LN7@GetToken:

; 140  : 			*p=0;

  0022c	c6 06 00	 mov	 BYTE PTR [esi], 0
  0022f	5e		 pop	 esi

; 141  : 			CurrentToken=NAME;

  00230	c7 05 00 00 00
	00 00 00 00 00	 mov	 DWORD PTR _CurrentToken, 0

; 142  : 			return CurrentToken;

  0023a	33 c0		 xor	 eax, eax
  0023c	5b		 pop	 ebx

; 147  : 		}
; 148  : 		break;
; 149  : 
; 150  : 	}
; 151  : 
; 152  : 	return NAME;
; 153  : }

  0023d	8b 4d fc	 mov	 ecx, DWORD PTR __$ArrayPad$[ebp]
  00240	33 cd		 xor	 ecx, ebp
  00242	e8 00 00 00 00	 call	 @__security_check_cookie@4
  00247	8b e5		 mov	 esp, ebp
  00249	5d		 pop	 ebp
  0024a	c3		 ret	 0
$LN5@GetToken:

; 143  : 		}
; 144  : 		else
; 145  : 		{
; 146  : 			return CurrentToken = SMD_ERROR; // '<'

  0024b	b8 3c 00 00 00	 mov	 eax, 60			; 0000003cH
$LN48@GetToken:

; 147  : 		}
; 148  : 		break;
; 149  : 
; 150  : 	}
; 151  : 
; 152  : 	return NAME;
; 153  : }

  00250	8b 4d fc	 mov	 ecx, DWORD PTR __$ArrayPad$[ebp]
  00253	5e		 pop	 esi
  00254	33 cd		 xor	 ecx, ebp
  00256	a3 00 00 00 00	 mov	 DWORD PTR _CurrentToken, eax
  0025b	5b		 pop	 ebx
  0025c	e8 00 00 00 00	 call	 @__security_check_cookie@4
  00261	8b e5		 mov	 esp, ebp
  00263	5d		 pop	 ebp
  00264	c3		 ret	 0
  00265	8d 49 00	 npad	 3
$LN50@GetToken:
  00268	00 00 00 00	 DD	 $LN10@GetToken
  0026c	00 00 00 00	 DD	 $LN19@GetToken
  00270	00 00 00 00	 DD	 $LN17@GetToken
  00274	00 00 00 00	 DD	 $LN14@GetToken
  00278	00 00 00 00	 DD	 $LN18@GetToken
  0027c	00 00 00 00	 DD	 $LN16@GetToken
  00280	00 00 00 00	 DD	 $LN15@GetToken
  00284	00 00 00 00	 DD	 $LN6@GetToken
$LN46@GetToken:
  00288	00		 DB	 0
  00289	01		 DB	 1
  0028a	07		 DB	 7
  0028b	07		 DB	 7
  0028c	07		 DB	 7
  0028d	07		 DB	 7
  0028e	07		 DB	 7
  0028f	07		 DB	 7
  00290	07		 DB	 7
  00291	07		 DB	 7
  00292	02		 DB	 2
  00293	03		 DB	 3
  00294	03		 DB	 3
  00295	07		 DB	 7
  00296	03		 DB	 3
  00297	03		 DB	 3
  00298	03		 DB	 3
  00299	03		 DB	 3
  0029a	03		 DB	 3
  0029b	03		 DB	 3
  0029c	03		 DB	 3
  0029d	03		 DB	 3
  0029e	03		 DB	 3
  0029f	03		 DB	 3
  002a0	07		 DB	 7
  002a1	04		 DB	 4
  002a2	07		 DB	 7
  002a3	07		 DB	 7
  002a4	07		 DB	 7
  002a5	07		 DB	 7
  002a6	07		 DB	 7
  002a7	07		 DB	 7
  002a8	07		 DB	 7
  002a9	07		 DB	 7
  002aa	07		 DB	 7
  002ab	07		 DB	 7
  002ac	07		 DB	 7
  002ad	07		 DB	 7
  002ae	07		 DB	 7
  002af	07		 DB	 7
  002b0	07		 DB	 7
  002b1	07		 DB	 7
  002b2	07		 DB	 7
  002b3	07		 DB	 7
  002b4	07		 DB	 7
  002b5	07		 DB	 7
  002b6	07		 DB	 7
  002b7	07		 DB	 7
  002b8	07		 DB	 7
  002b9	07		 DB	 7
  002ba	07		 DB	 7
  002bb	07		 DB	 7
  002bc	07		 DB	 7
  002bd	07		 DB	 7
  002be	07		 DB	 7
  002bf	07		 DB	 7
  002c0	07		 DB	 7
  002c1	07		 DB	 7
  002c2	07		 DB	 7
  002c3	07		 DB	 7
  002c4	07		 DB	 7
  002c5	07		 DB	 7
  002c6	07		 DB	 7
  002c7	07		 DB	 7
  002c8	07		 DB	 7
  002c9	07		 DB	 7
  002ca	07		 DB	 7
  002cb	07		 DB	 7
  002cc	07		 DB	 7
  002cd	07		 DB	 7
  002ce	07		 DB	 7
  002cf	07		 DB	 7
  002d0	07		 DB	 7
  002d1	07		 DB	 7
  002d2	07		 DB	 7
  002d3	07		 DB	 7
  002d4	07		 DB	 7
  002d5	07		 DB	 7
  002d6	07		 DB	 7
  002d7	07		 DB	 7
  002d8	07		 DB	 7
  002d9	07		 DB	 7
  002da	07		 DB	 7
  002db	07		 DB	 7
  002dc	07		 DB	 7
  002dd	07		 DB	 7
  002de	07		 DB	 7
  002df	07		 DB	 7
  002e0	07		 DB	 7
  002e1	05		 DB	 5
  002e2	07		 DB	 7
  002e3	06		 DB	 6
?GetToken@@YA?AW4SMDToken@@XZ ENDP			; GetToken
_TEXT	ENDS
PUBLIC	??_7_CS_SCHEDULE_DATA@@6B@			; _CS_SCHEDULE_DATA::`vftable'
PUBLIC	??1_CS_SCHEDULE_DATA@@UAE@XZ			; _CS_SCHEDULE_DATA::~_CS_SCHEDULE_DATA
PUBLIC	??_R4_CS_SCHEDULE_DATA@@6B@			; _CS_SCHEDULE_DATA::`RTTI Complete Object Locator'
PUBLIC	??_R0?AU_CS_SCHEDULE_DATA@@@8			; _CS_SCHEDULE_DATA `RTTI Type Descriptor'
PUBLIC	??_R3_CS_SCHEDULE_DATA@@8			; _CS_SCHEDULE_DATA::`RTTI Class Hierarchy Descriptor'
PUBLIC	??_R2_CS_SCHEDULE_DATA@@8			; _CS_SCHEDULE_DATA::`RTTI Base Class Array'
PUBLIC	??_R1A@?0A@EA@_CS_SCHEDULE_DATA@@8		; _CS_SCHEDULE_DATA::`RTTI Base Class Descriptor at (0,-1,0,64)'
EXTRN	??_7type_info@@6B@:QWORD			; type_info::`vftable'
EXTRN	??_E_CS_SCHEDULE_DATA@@UAEPAXI@Z:PROC		; _CS_SCHEDULE_DATA::`vector deleting destructor'
;	COMDAT ??_R1A@?0A@EA@_CS_SCHEDULE_DATA@@8
; File e:\work\tranet_version\gs\gameserver\castlesiege.cpp
rdata$r	SEGMENT
??_R1A@?0A@EA@_CS_SCHEDULE_DATA@@8 DD FLAT:??_R0?AU_CS_SCHEDULE_DATA@@@8 ; _CS_SCHEDULE_DATA::`RTTI Base Class Descriptor at (0,-1,0,64)'
	DD	00H
	DD	00H
	DD	0ffffffffH
	DD	00H
	DD	040H
	DD	FLAT:??_R3_CS_SCHEDULE_DATA@@8
rdata$r	ENDS
;	COMDAT ??_R2_CS_SCHEDULE_DATA@@8
rdata$r	SEGMENT
??_R2_CS_SCHEDULE_DATA@@8 DD FLAT:??_R1A@?0A@EA@_CS_SCHEDULE_DATA@@8 ; _CS_SCHEDULE_DATA::`RTTI Base Class Array'
rdata$r	ENDS
;	COMDAT ??_R3_CS_SCHEDULE_DATA@@8
rdata$r	SEGMENT
??_R3_CS_SCHEDULE_DATA@@8 DD 00H			; _CS_SCHEDULE_DATA::`RTTI Class Hierarchy Descriptor'
	DD	00H
	DD	01H
	DD	FLAT:??_R2_CS_SCHEDULE_DATA@@8
rdata$r	ENDS
;	COMDAT ??_R0?AU_CS_SCHEDULE_DATA@@@8
_DATA	SEGMENT
??_R0?AU_CS_SCHEDULE_DATA@@@8 DD FLAT:??_7type_info@@6B@ ; _CS_SCHEDULE_DATA `RTTI Type Descriptor'
	DD	00H
	DB	'.?AU_CS_SCHEDULE_DATA@@', 00H
_DATA	ENDS
;	COMDAT ??_R4_CS_SCHEDULE_DATA@@6B@
rdata$r	SEGMENT
??_R4_CS_SCHEDULE_DATA@@6B@ DD 00H			; _CS_SCHEDULE_DATA::`RTTI Complete Object Locator'
	DD	00H
	DD	00H
	DD	FLAT:??_R0?AU_CS_SCHEDULE_DATA@@@8
	DD	FLAT:??_R3_CS_SCHEDULE_DATA@@8
rdata$r	ENDS
;	COMDAT ??_7_CS_SCHEDULE_DATA@@6B@
CONST	SEGMENT
??_7_CS_SCHEDULE_DATA@@6B@ DD FLAT:??_R4_CS_SCHEDULE_DATA@@6B@ ; _CS_SCHEDULE_DATA::`vftable'
	DD	FLAT:??_E_CS_SCHEDULE_DATA@@UAEPAXI@Z
; Function compile flags: /Ogtp
CONST	ENDS
;	COMDAT ??1_CS_SCHEDULE_DATA@@UAE@XZ
_TEXT	SEGMENT
??1_CS_SCHEDULE_DATA@@UAE@XZ PROC			; _CS_SCHEDULE_DATA::~_CS_SCHEDULE_DATA, COMDAT
; _this$ = ecx

; 48   : {

  00000	c7 01 00 00 00
	00		 mov	 DWORD PTR [ecx], OFFSET ??_7_CS_SCHEDULE_DATA@@6B@

; 49   : 
; 50   : }

  00006	c3		 ret	 0
??1_CS_SCHEDULE_DATA@@UAE@XZ ENDP			; _CS_SCHEDULE_DATA::~_CS_SCHEDULE_DATA
_TEXT	ENDS
PUBLIC	?Clear@_CS_SCHEDULE_DATA@@QAEXXZ		; _CS_SCHEDULE_DATA::Clear
; Function compile flags: /Ogtp
;	COMDAT ?Clear@_CS_SCHEDULE_DATA@@QAEXXZ
_TEXT	SEGMENT
?Clear@_CS_SCHEDULE_DATA@@QAEXXZ PROC			; _CS_SCHEDULE_DATA::Clear, COMDAT
; _this$ = ecx

; 54   : 	this->m_bIN_USE = FALSE;
; 55   : 	this->m_iSTATE = -1;

  00000	83 c8 ff	 or	 eax, -1
  00003	33 d2		 xor	 edx, edx
  00005	89 51 04	 mov	 DWORD PTR [ecx+4], edx
  00008	89 41 08	 mov	 DWORD PTR [ecx+8], eax

; 56   : 	this->m_iADD_DAY = -1;

  0000b	89 41 0c	 mov	 DWORD PTR [ecx+12], eax

; 57   : 	this->m_iADD_HOUR = -1; 

  0000e	89 41 10	 mov	 DWORD PTR [ecx+16], eax

; 58   : 	this->m_iADD_MIN = -1;

  00011	89 41 14	 mov	 DWORD PTR [ecx+20], eax

; 59   : 	this->m_iGAP_SEC = 0;

  00014	89 51 18	 mov	 DWORD PTR [ecx+24], edx

; 60   : }

  00017	c3		 ret	 0
?Clear@_CS_SCHEDULE_DATA@@QAEXXZ ENDP			; _CS_SCHEDULE_DATA::Clear
_TEXT	ENDS
PUBLIC	??_7_CS_TOTAL_GUILD_DATA@@6B@			; _CS_TOTAL_GUILD_DATA::`vftable'
PUBLIC	??1_CS_TOTAL_GUILD_DATA@@UAE@XZ			; _CS_TOTAL_GUILD_DATA::~_CS_TOTAL_GUILD_DATA
PUBLIC	??_R4_CS_TOTAL_GUILD_DATA@@6B@			; _CS_TOTAL_GUILD_DATA::`RTTI Complete Object Locator'
PUBLIC	??_R0?AU_CS_TOTAL_GUILD_DATA@@@8		; _CS_TOTAL_GUILD_DATA `RTTI Type Descriptor'
PUBLIC	??_R3_CS_TOTAL_GUILD_DATA@@8			; _CS_TOTAL_GUILD_DATA::`RTTI Class Hierarchy Descriptor'
PUBLIC	??_R2_CS_TOTAL_GUILD_DATA@@8			; _CS_TOTAL_GUILD_DATA::`RTTI Base Class Array'
PUBLIC	??_R1A@?0A@EA@_CS_TOTAL_GUILD_DATA@@8		; _CS_TOTAL_GUILD_DATA::`RTTI Base Class Descriptor at (0,-1,0,64)'
EXTRN	??_E_CS_TOTAL_GUILD_DATA@@UAEPAXI@Z:PROC	; _CS_TOTAL_GUILD_DATA::`vector deleting destructor'
;	COMDAT ??_R1A@?0A@EA@_CS_TOTAL_GUILD_DATA@@8
rdata$r	SEGMENT
??_R1A@?0A@EA@_CS_TOTAL_GUILD_DATA@@8 DD FLAT:??_R0?AU_CS_TOTAL_GUILD_DATA@@@8 ; _CS_TOTAL_GUILD_DATA::`RTTI Base Class Descriptor at (0,-1,0,64)'
	DD	00H
	DD	00H
	DD	0ffffffffH
	DD	00H
	DD	040H
	DD	FLAT:??_R3_CS_TOTAL_GUILD_DATA@@8
rdata$r	ENDS
;	COMDAT ??_R2_CS_TOTAL_GUILD_DATA@@8
rdata$r	SEGMENT
??_R2_CS_TOTAL_GUILD_DATA@@8 DD FLAT:??_R1A@?0A@EA@_CS_TOTAL_GUILD_DATA@@8 ; _CS_TOTAL_GUILD_DATA::`RTTI Base Class Array'
rdata$r	ENDS
;	COMDAT ??_R3_CS_TOTAL_GUILD_DATA@@8
rdata$r	SEGMENT
??_R3_CS_TOTAL_GUILD_DATA@@8 DD 00H			; _CS_TOTAL_GUILD_DATA::`RTTI Class Hierarchy Descriptor'
	DD	00H
	DD	01H
	DD	FLAT:??_R2_CS_TOTAL_GUILD_DATA@@8
rdata$r	ENDS
;	COMDAT ??_R0?AU_CS_TOTAL_GUILD_DATA@@@8
_DATA	SEGMENT
??_R0?AU_CS_TOTAL_GUILD_DATA@@@8 DD FLAT:??_7type_info@@6B@ ; _CS_TOTAL_GUILD_DATA `RTTI Type Descriptor'
	DD	00H
	DB	'.?AU_CS_TOTAL_GUILD_DATA@@', 00H
_DATA	ENDS
;	COMDAT ??_R4_CS_TOTAL_GUILD_DATA@@6B@
rdata$r	SEGMENT
??_R4_CS_TOTAL_GUILD_DATA@@6B@ DD 00H			; _CS_TOTAL_GUILD_DATA::`RTTI Complete Object Locator'
	DD	00H
	DD	00H
	DD	FLAT:??_R0?AU_CS_TOTAL_GUILD_DATA@@@8
	DD	FLAT:??_R3_CS_TOTAL_GUILD_DATA@@8
rdata$r	ENDS
;	COMDAT ??_7_CS_TOTAL_GUILD_DATA@@6B@
CONST	SEGMENT
??_7_CS_TOTAL_GUILD_DATA@@6B@ DD FLAT:??_R4_CS_TOTAL_GUILD_DATA@@6B@ ; _CS_TOTAL_GUILD_DATA::`vftable'
	DD	FLAT:??_E_CS_TOTAL_GUILD_DATA@@UAEPAXI@Z
; Function compile flags: /Ogtp
CONST	ENDS
;	COMDAT ??1_CS_TOTAL_GUILD_DATA@@UAE@XZ
_TEXT	SEGMENT
??1_CS_TOTAL_GUILD_DATA@@UAE@XZ PROC			; _CS_TOTAL_GUILD_DATA::~_CS_TOTAL_GUILD_DATA, COMDAT
; _this$ = ecx

; 90   : {

  00000	c7 01 00 00 00
	00		 mov	 DWORD PTR [ecx], OFFSET ??_7_CS_TOTAL_GUILD_DATA@@6B@

; 91   : 
; 92   : }

  00006	c3		 ret	 0
??1_CS_TOTAL_GUILD_DATA@@UAE@XZ ENDP			; _CS_TOTAL_GUILD_DATA::~_CS_TOTAL_GUILD_DATA
_TEXT	ENDS
PUBLIC	?Clear@_CS_TOTAL_GUILD_DATA@@QAEXXZ		; _CS_TOTAL_GUILD_DATA::Clear
; Function compile flags: /Ogtp
;	COMDAT ?Clear@_CS_TOTAL_GUILD_DATA@@QAEXXZ
_TEXT	SEGMENT
?Clear@_CS_TOTAL_GUILD_DATA@@QAEXXZ PROC		; _CS_TOTAL_GUILD_DATA::Clear, COMDAT
; _this$ = ecx

; 96   : 	this->m_bIN_USE = FALSE;

  00000	33 c0		 xor	 eax, eax
  00002	89 41 04	 mov	 DWORD PTR [ecx+4], eax

; 97   : 	this->m_iCsGuildID = 0;

  00005	89 41 08	 mov	 DWORD PTR [ecx+8], eax

; 98   : 	this->m_bGuildInvolved = 0;

  00008	89 41 0c	 mov	 DWORD PTR [ecx+12], eax

; 99   : 	this->m_iGuildScore = 0; //season 2.5 add-on

  0000b	89 41 10	 mov	 DWORD PTR [ecx+16], eax

; 100  : }

  0000e	c3		 ret	 0
?Clear@_CS_TOTAL_GUILD_DATA@@QAEXXZ ENDP		; _CS_TOTAL_GUILD_DATA::Clear
_TEXT	ENDS
PUBLIC	??_7_CS_MINIMAP_DATA@@6B@			; _CS_MINIMAP_DATA::`vftable'
PUBLIC	??1_CS_MINIMAP_DATA@@UAE@XZ			; _CS_MINIMAP_DATA::~_CS_MINIMAP_DATA
PUBLIC	??_R4_CS_MINIMAP_DATA@@6B@			; _CS_MINIMAP_DATA::`RTTI Complete Object Locator'
PUBLIC	??_R0?AU_CS_MINIMAP_DATA@@@8			; _CS_MINIMAP_DATA `RTTI Type Descriptor'
PUBLIC	??_R3_CS_MINIMAP_DATA@@8			; _CS_MINIMAP_DATA::`RTTI Class Hierarchy Descriptor'
PUBLIC	??_R2_CS_MINIMAP_DATA@@8			; _CS_MINIMAP_DATA::`RTTI Base Class Array'
PUBLIC	??_R1A@?0A@EA@_CS_MINIMAP_DATA@@8		; _CS_MINIMAP_DATA::`RTTI Base Class Descriptor at (0,-1,0,64)'
EXTRN	??_E_CS_MINIMAP_DATA@@UAEPAXI@Z:PROC		; _CS_MINIMAP_DATA::`vector deleting destructor'
;	COMDAT ??_R1A@?0A@EA@_CS_MINIMAP_DATA@@8
rdata$r	SEGMENT
??_R1A@?0A@EA@_CS_MINIMAP_DATA@@8 DD FLAT:??_R0?AU_CS_MINIMAP_DATA@@@8 ; _CS_MINIMAP_DATA::`RTTI Base Class Descriptor at (0,-1,0,64)'
	DD	00H
	DD	00H
	DD	0ffffffffH
	DD	00H
	DD	040H
	DD	FLAT:??_R3_CS_MINIMAP_DATA@@8
rdata$r	ENDS
;	COMDAT ??_R2_CS_MINIMAP_DATA@@8
rdata$r	SEGMENT
??_R2_CS_MINIMAP_DATA@@8 DD FLAT:??_R1A@?0A@EA@_CS_MINIMAP_DATA@@8 ; _CS_MINIMAP_DATA::`RTTI Base Class Array'
rdata$r	ENDS
;	COMDAT ??_R3_CS_MINIMAP_DATA@@8
rdata$r	SEGMENT
??_R3_CS_MINIMAP_DATA@@8 DD 00H				; _CS_MINIMAP_DATA::`RTTI Class Hierarchy Descriptor'
	DD	00H
	DD	01H
	DD	FLAT:??_R2_CS_MINIMAP_DATA@@8
rdata$r	ENDS
;	COMDAT ??_R0?AU_CS_MINIMAP_DATA@@@8
_DATA	SEGMENT
??_R0?AU_CS_MINIMAP_DATA@@@8 DD FLAT:??_7type_info@@6B@	; _CS_MINIMAP_DATA `RTTI Type Descriptor'
	DD	00H
	DB	'.?AU_CS_MINIMAP_DATA@@', 00H
_DATA	ENDS
;	COMDAT ??_R4_CS_MINIMAP_DATA@@6B@
rdata$r	SEGMENT
??_R4_CS_MINIMAP_DATA@@6B@ DD 00H			; _CS_MINIMAP_DATA::`RTTI Complete Object Locator'
	DD	00H
	DD	00H
	DD	FLAT:??_R0?AU_CS_MINIMAP_DATA@@@8
	DD	FLAT:??_R3_CS_MINIMAP_DATA@@8
rdata$r	ENDS
;	COMDAT ??_7_CS_MINIMAP_DATA@@6B@
CONST	SEGMENT
??_7_CS_MINIMAP_DATA@@6B@ DD FLAT:??_R4_CS_MINIMAP_DATA@@6B@ ; _CS_MINIMAP_DATA::`vftable'
	DD	FLAT:??_E_CS_MINIMAP_DATA@@UAEPAXI@Z
; Function compile flags: /Ogtp
CONST	ENDS
;	COMDAT ??1_CS_MINIMAP_DATA@@UAE@XZ
_TEXT	SEGMENT
??1_CS_MINIMAP_DATA@@UAE@XZ PROC			; _CS_MINIMAP_DATA::~_CS_MINIMAP_DATA, COMDAT
; _this$ = ecx

; 108  : {

  00000	c7 01 00 00 00
	00		 mov	 DWORD PTR [ecx], OFFSET ??_7_CS_MINIMAP_DATA@@6B@

; 109  : 
; 110  : }

  00006	c3		 ret	 0
??1_CS_MINIMAP_DATA@@UAE@XZ ENDP			; _CS_MINIMAP_DATA::~_CS_MINIMAP_DATA
_TEXT	ENDS
PUBLIC	?Clear@_CS_MINIMAP_DATA@@QAEXXZ			; _CS_MINIMAP_DATA::Clear
EXTRN	_memset:PROC
; Function compile flags: /Ogtp
;	COMDAT ?Clear@_CS_MINIMAP_DATA@@QAEXXZ
_TEXT	SEGMENT
?Clear@_CS_MINIMAP_DATA@@QAEXXZ PROC			; _CS_MINIMAP_DATA::Clear, COMDAT
; _this$ = ecx

; 114  : 	this->m_iGuildMasterIndex = -1;
; 115  : 	memset(this->m_szGuildName,0,sizeof(this->m_szGuildName));

  00000	33 c0		 xor	 eax, eax
  00002	56		 push	 esi
  00003	8b f1		 mov	 esi, ecx
  00005	c7 46 04 ff ff
	ff ff		 mov	 DWORD PTR [esi+4], -1
  0000c	89 46 08	 mov	 DWORD PTR [esi+8], eax
  0000f	89 46 0c	 mov	 DWORD PTR [esi+12], eax
  00012	89 46 10	 mov	 DWORD PTR [esi+16], eax

; 116  : 	memset(this->m_stMiniMapPoint,0,sizeof(this->m_stMiniMapPoint));

  00015	68 d0 07 00 00	 push	 2000			; 000007d0H
  0001a	50		 push	 eax
  0001b	89 46 14	 mov	 DWORD PTR [esi+20], eax
  0001e	8d 46 1c	 lea	 eax, DWORD PTR [esi+28]
  00021	50		 push	 eax
  00022	e8 00 00 00 00	 call	 _memset
  00027	83 c4 0c	 add	 esp, 12			; 0000000cH

; 117  : 	this->m_iMiniMapPointCount = 0;

  0002a	c7 46 18 00 00
	00 00		 mov	 DWORD PTR [esi+24], 0
  00031	5e		 pop	 esi

; 118  : }

  00032	c3		 ret	 0
?Clear@_CS_MINIMAP_DATA@@QAEXXZ ENDP			; _CS_MINIMAP_DATA::Clear
_TEXT	ENDS
PUBLIC	??_7_CS_NPC_DATA@@6B@				; _CS_NPC_DATA::`vftable'
PUBLIC	??1_CS_NPC_DATA@@UAE@XZ				; _CS_NPC_DATA::~_CS_NPC_DATA
PUBLIC	??_R4_CS_NPC_DATA@@6B@				; _CS_NPC_DATA::`RTTI Complete Object Locator'
PUBLIC	??_R0?AU_CS_NPC_DATA@@@8			; _CS_NPC_DATA `RTTI Type Descriptor'
PUBLIC	??_R3_CS_NPC_DATA@@8				; _CS_NPC_DATA::`RTTI Class Hierarchy Descriptor'
PUBLIC	??_R2_CS_NPC_DATA@@8				; _CS_NPC_DATA::`RTTI Base Class Array'
PUBLIC	??_R1A@?0A@EA@_CS_NPC_DATA@@8			; _CS_NPC_DATA::`RTTI Base Class Descriptor at (0,-1,0,64)'
EXTRN	??_E_CS_NPC_DATA@@UAEPAXI@Z:PROC		; _CS_NPC_DATA::`vector deleting destructor'
;	COMDAT ??_R1A@?0A@EA@_CS_NPC_DATA@@8
rdata$r	SEGMENT
??_R1A@?0A@EA@_CS_NPC_DATA@@8 DD FLAT:??_R0?AU_CS_NPC_DATA@@@8 ; _CS_NPC_DATA::`RTTI Base Class Descriptor at (0,-1,0,64)'
	DD	00H
	DD	00H
	DD	0ffffffffH
	DD	00H
	DD	040H
	DD	FLAT:??_R3_CS_NPC_DATA@@8
rdata$r	ENDS
;	COMDAT ??_R2_CS_NPC_DATA@@8
rdata$r	SEGMENT
??_R2_CS_NPC_DATA@@8 DD FLAT:??_R1A@?0A@EA@_CS_NPC_DATA@@8 ; _CS_NPC_DATA::`RTTI Base Class Array'
rdata$r	ENDS
;	COMDAT ??_R3_CS_NPC_DATA@@8
rdata$r	SEGMENT
??_R3_CS_NPC_DATA@@8 DD 00H				; _CS_NPC_DATA::`RTTI Class Hierarchy Descriptor'
	DD	00H
	DD	01H
	DD	FLAT:??_R2_CS_NPC_DATA@@8
rdata$r	ENDS
;	COMDAT ??_R0?AU_CS_NPC_DATA@@@8
_DATA	SEGMENT
??_R0?AU_CS_NPC_DATA@@@8 DD FLAT:??_7type_info@@6B@	; _CS_NPC_DATA `RTTI Type Descriptor'
	DD	00H
	DB	'.?AU_CS_NPC_DATA@@', 00H
_DATA	ENDS
;	COMDAT ??_R4_CS_NPC_DATA@@6B@
rdata$r	SEGMENT
??_R4_CS_NPC_DATA@@6B@ DD 00H				; _CS_NPC_DATA::`RTTI Complete Object Locator'
	DD	00H
	DD	00H
	DD	FLAT:??_R0?AU_CS_NPC_DATA@@@8
	DD	FLAT:??_R3_CS_NPC_DATA@@8
rdata$r	ENDS
;	COMDAT ??_7_CS_NPC_DATA@@6B@
CONST	SEGMENT
??_7_CS_NPC_DATA@@6B@ DD FLAT:??_R4_CS_NPC_DATA@@6B@	; _CS_NPC_DATA::`vftable'
	DD	FLAT:??_E_CS_NPC_DATA@@UAEPAXI@Z
; Function compile flags: /Ogtp
CONST	ENDS
;	COMDAT ??1_CS_NPC_DATA@@UAE@XZ
_TEXT	SEGMENT
??1_CS_NPC_DATA@@UAE@XZ PROC				; _CS_NPC_DATA::~_CS_NPC_DATA, COMDAT
; _this$ = ecx

; 127  : {

  00000	c7 01 00 00 00
	00		 mov	 DWORD PTR [ecx], OFFSET ??_7_CS_NPC_DATA@@6B@

; 128  : 
; 129  : };

  00006	c3		 ret	 0
??1_CS_NPC_DATA@@UAE@XZ ENDP				; _CS_NPC_DATA::~_CS_NPC_DATA
_TEXT	ENDS
PUBLIC	?Clear@_CS_NPC_DATA@@QAEXXZ			; _CS_NPC_DATA::Clear
; Function compile flags: /Ogtp
;	COMDAT ?Clear@_CS_NPC_DATA@@QAEXXZ
_TEXT	SEGMENT
?Clear@_CS_NPC_DATA@@QAEXXZ PROC			; _CS_NPC_DATA::Clear, COMDAT
; _this$ = ecx

; 133  : 	this->m_bIN_USE = FALSE;
; 134  : 	this->m_iNPC_NUM = -1;

  00000	83 c8 ff	 or	 eax, -1
  00003	33 d2		 xor	 edx, edx
  00005	89 51 04	 mov	 DWORD PTR [ecx+4], edx
  00008	89 41 08	 mov	 DWORD PTR [ecx+8], eax

; 135  : 	this->m_iNPC_INDEX = -1;

  0000b	89 41 0c	 mov	 DWORD PTR [ecx+12], eax

; 136  : 	this->m_iNPC_LIVE = 0;

  0000e	89 51 68	 mov	 DWORD PTR [ecx+104], edx

; 137  : 	this->m_iNPC_AUTH = -1;

  00011	89 41 6c	 mov	 DWORD PTR [ecx+108], eax

; 138  : 	this->m_bNPC_DBSAVE = FALSE;

  00014	89 51 10	 mov	 DWORD PTR [ecx+16], edx

; 139  : 	this->m_iNPC_SIDE = 0;

  00017	89 51 14	 mov	 DWORD PTR [ecx+20], edx

; 140  : 	this->m_iNPC_OBJINDEX = -1;

  0001a	89 41 18	 mov	 DWORD PTR [ecx+24], eax

; 141  : 	this->m_iNPC_DF_LEVEL = 0;

  0001d	89 51 1c	 mov	 DWORD PTR [ecx+28], edx

; 142  : 	this->m_iNPC_RG_LEVEL = 0;

  00020	89 51 20	 mov	 DWORD PTR [ecx+32], edx

; 143  : 	this->m_iNPC_MAXHP = 0;

  00023	89 51 24	 mov	 DWORD PTR [ecx+36], edx

; 144  : 	this->m_iNPC_HP = 0;

  00026	89 51 28	 mov	 DWORD PTR [ecx+40], edx

; 145  : 	this->m_iNPC_SX = -1;

  00029	89 41 2c	 mov	 DWORD PTR [ecx+44], eax

; 146  : 	this->m_iNPC_SY = -1;

  0002c	89 41 30	 mov	 DWORD PTR [ecx+48], eax

; 147  : 	this->m_iNPC_DX = -1;

  0002f	89 41 34	 mov	 DWORD PTR [ecx+52], eax

; 148  : 	this->m_iNPC_DY = -1;

  00032	89 41 38	 mov	 DWORD PTR [ecx+56], eax

; 149  : 	this->m_iNPC_DIR = -1;

  00035	89 41 3c	 mov	 DWORD PTR [ecx+60], eax

; 150  : 	this->m_iNPC_BASE_DF_LEVEL = 0;

  00038	89 51 40	 mov	 DWORD PTR [ecx+64], edx

; 151  : 	this->m_iNPC_BASE_RG_LEVEL = 0;

  0003b	89 51 44	 mov	 DWORD PTR [ecx+68], edx

; 152  : 	this->m_iNPC_BASE_MAXHP = 0;

  0003e	89 51 48	 mov	 DWORD PTR [ecx+72], edx

; 153  : 	this->m_iNPC_BASE_HP = 0;

  00041	89 51 4c	 mov	 DWORD PTR [ecx+76], edx

; 154  : 	this->m_iNPC_BASE_SX = -1;

  00044	89 41 50	 mov	 DWORD PTR [ecx+80], eax

; 155  : 	this->m_iNPC_BASE_SY = -1;

  00047	89 41 54	 mov	 DWORD PTR [ecx+84], eax

; 156  : 	this->m_iNPC_BASE_DX = -1;

  0004a	89 41 58	 mov	 DWORD PTR [ecx+88], eax

; 157  : 	this->m_iNPC_BASE_DY = -1;

  0004d	89 41 5c	 mov	 DWORD PTR [ecx+92], eax

; 158  : 	this->m_iNPC_BASE_DIR = -1;

  00050	89 41 60	 mov	 DWORD PTR [ecx+96], eax

; 159  : 	this->m_iCsNpcExistVal = 0;

  00053	89 51 70	 mov	 DWORD PTR [ecx+112], edx

; 160  : }

  00056	c3		 ret	 0
?Clear@_CS_NPC_DATA@@QAEXXZ ENDP			; _CS_NPC_DATA::Clear
_TEXT	ENDS
PUBLIC	?SetBaseValue@_CS_NPC_DATA@@QAEXXZ		; _CS_NPC_DATA::SetBaseValue
; Function compile flags: /Ogtp
;	COMDAT ?SetBaseValue@_CS_NPC_DATA@@QAEXXZ
_TEXT	SEGMENT
?SetBaseValue@_CS_NPC_DATA@@QAEXXZ PROC			; _CS_NPC_DATA::SetBaseValue, COMDAT
; _this$ = ecx

; 164  : 	this->m_iNPC_DF_LEVEL = this->m_iNPC_BASE_DF_LEVEL;

  00000	8b 41 40	 mov	 eax, DWORD PTR [ecx+64]

; 165  : 	this->m_iNPC_RG_LEVEL = this->m_iNPC_BASE_RG_LEVEL;

  00003	8b 51 44	 mov	 edx, DWORD PTR [ecx+68]
  00006	89 41 1c	 mov	 DWORD PTR [ecx+28], eax

; 166  : 
; 167  : 	this->m_iNPC_MAXHP = this->m_iNPC_BASE_MAXHP;

  00009	8b 41 48	 mov	 eax, DWORD PTR [ecx+72]
  0000c	89 51 20	 mov	 DWORD PTR [ecx+32], edx

; 168  : 	this->m_iNPC_HP = this->m_iNPC_BASE_HP;

  0000f	8b 51 4c	 mov	 edx, DWORD PTR [ecx+76]
  00012	89 41 24	 mov	 DWORD PTR [ecx+36], eax

; 169  : 
; 170  : 	this->m_iNPC_SX = this->m_iNPC_BASE_SX;

  00015	8b 41 50	 mov	 eax, DWORD PTR [ecx+80]
  00018	89 51 28	 mov	 DWORD PTR [ecx+40], edx

; 171  : 	this->m_iNPC_SY = this->m_iNPC_BASE_SY;

  0001b	8b 51 54	 mov	 edx, DWORD PTR [ecx+84]
  0001e	89 41 2c	 mov	 DWORD PTR [ecx+44], eax

; 172  : 
; 173  : 	this->m_iNPC_DX = this->m_iNPC_BASE_DX;

  00021	8b 41 58	 mov	 eax, DWORD PTR [ecx+88]
  00024	89 51 30	 mov	 DWORD PTR [ecx+48], edx

; 174  : 	this->m_iNPC_DY = this->m_iNPC_BASE_DY;

  00027	8b 51 5c	 mov	 edx, DWORD PTR [ecx+92]
  0002a	89 41 34	 mov	 DWORD PTR [ecx+52], eax

; 175  : 
; 176  : 	this->m_iNPC_DIR = this->m_iNPC_BASE_DIR;

  0002d	8b 41 60	 mov	 eax, DWORD PTR [ecx+96]
  00030	89 51 38	 mov	 DWORD PTR [ecx+56], edx
  00033	89 41 3c	 mov	 DWORD PTR [ecx+60], eax

; 177  : }

  00036	c3		 ret	 0
?SetBaseValue@_CS_NPC_DATA@@QAEXXZ ENDP			; _CS_NPC_DATA::SetBaseValue
_TEXT	ENDS
PUBLIC	?ScheduleStateCompFunc@CCastleSiege@@SAEAAU_CS_SCHEDULE_DATA@@0@Z ; CCastleSiege::ScheduleStateCompFunc
; Function compile flags: /Ogtp
;	COMDAT ?ScheduleStateCompFunc@CCastleSiege@@SAEAAU_CS_SCHEDULE_DATA@@0@Z
_TEXT	SEGMENT
_A$ = 8							; size = 4
_B$ = 12						; size = 4
?ScheduleStateCompFunc@CCastleSiege@@SAEAAU_CS_SCHEDULE_DATA@@0@Z PROC ; CCastleSiege::ScheduleStateCompFunc, COMDAT

; 200  : {

  00000	55		 push	 ebp
  00001	8b ec		 mov	 ebp, esp

; 201  : 	if (A.m_iSTATE > B.m_iSTATE)

  00003	8b 45 08	 mov	 eax, DWORD PTR _A$[ebp]
  00006	8b 48 08	 mov	 ecx, DWORD PTR [eax+8]
  00009	8b 55 0c	 mov	 edx, DWORD PTR _B$[ebp]
  0000c	3b 4a 08	 cmp	 ecx, DWORD PTR [edx+8]
  0000f	0f 9e c0	 setle	 al

; 202  : 	{
; 203  : 		return false;
; 204  : 	}
; 205  : 
; 206  : 	return true;
; 207  : }

  00012	5d		 pop	 ebp
  00013	c3		 ret	 0
?ScheduleStateCompFunc@CCastleSiege@@SAEAAU_CS_SCHEDULE_DATA@@0@Z ENDP ; CCastleSiege::ScheduleStateCompFunc
_TEXT	ENDS
PUBLIC	??0_CS_SCHEDULE_DATA@@QAE@ABU0@@Z		; _CS_SCHEDULE_DATA::_CS_SCHEDULE_DATA
; Function compile flags: /Ogtp
;	COMDAT ??0_CS_SCHEDULE_DATA@@QAE@ABU0@@Z
_TEXT	SEGMENT
___that$ = 8						; size = 4
??0_CS_SCHEDULE_DATA@@QAE@ABU0@@Z PROC			; _CS_SCHEDULE_DATA::_CS_SCHEDULE_DATA, COMDAT
; _this$ = ecx
  00000	55		 push	 ebp
  00001	8b ec		 mov	 ebp, esp
  00003	8b c1		 mov	 eax, ecx
  00005	8b 4d 08	 mov	 ecx, DWORD PTR ___that$[ebp]
  00008	c7 00 00 00 00
	00		 mov	 DWORD PTR [eax], OFFSET ??_7_CS_SCHEDULE_DATA@@6B@
  0000e	8b 51 04	 mov	 edx, DWORD PTR [ecx+4]
  00011	89 50 04	 mov	 DWORD PTR [eax+4], edx
  00014	8b 51 08	 mov	 edx, DWORD PTR [ecx+8]
  00017	89 50 08	 mov	 DWORD PTR [eax+8], edx
  0001a	8b 51 0c	 mov	 edx, DWORD PTR [ecx+12]
  0001d	89 50 0c	 mov	 DWORD PTR [eax+12], edx
  00020	8b 51 10	 mov	 edx, DWORD PTR [ecx+16]
  00023	89 50 10	 mov	 DWORD PTR [eax+16], edx
  00026	8b 51 14	 mov	 edx, DWORD PTR [ecx+20]
  00029	89 50 14	 mov	 DWORD PTR [eax+20], edx
  0002c	8b 49 18	 mov	 ecx, DWORD PTR [ecx+24]
  0002f	89 48 18	 mov	 DWORD PTR [eax+24], ecx
  00032	5d		 pop	 ebp
  00033	c2 04 00	 ret	 4
??0_CS_SCHEDULE_DATA@@QAE@ABU0@@Z ENDP			; _CS_SCHEDULE_DATA::_CS_SCHEDULE_DATA
_TEXT	ENDS
PUBLIC	??0_CS_NPC_DATA@@QAE@ABU0@@Z			; _CS_NPC_DATA::_CS_NPC_DATA
; Function compile flags: /Ogtp
;	COMDAT ??0_CS_NPC_DATA@@QAE@ABU0@@Z
_TEXT	SEGMENT
___that$ = 8						; size = 4
??0_CS_NPC_DATA@@QAE@ABU0@@Z PROC			; _CS_NPC_DATA::_CS_NPC_DATA, COMDAT
; _this$ = ecx
  00000	55		 push	 ebp
  00001	8b ec		 mov	 ebp, esp
  00003	8b c1		 mov	 eax, ecx
  00005	8b 4d 08	 mov	 ecx, DWORD PTR ___that$[ebp]
  00008	c7 00 00 00 00
	00		 mov	 DWORD PTR [eax], OFFSET ??_7_CS_NPC_DATA@@6B@
  0000e	8b 51 04	 mov	 edx, DWORD PTR [ecx+4]
  00011	89 50 04	 mov	 DWORD PTR [eax+4], edx
  00014	8b 51 08	 mov	 edx, DWORD PTR [ecx+8]
  00017	89 50 08	 mov	 DWORD PTR [eax+8], edx
  0001a	8b 51 0c	 mov	 edx, DWORD PTR [ecx+12]
  0001d	89 50 0c	 mov	 DWORD PTR [eax+12], edx
  00020	8b 51 10	 mov	 edx, DWORD PTR [ecx+16]
  00023	89 50 10	 mov	 DWORD PTR [eax+16], edx
  00026	8b 51 14	 mov	 edx, DWORD PTR [ecx+20]
  00029	89 50 14	 mov	 DWORD PTR [eax+20], edx
  0002c	8b 51 18	 mov	 edx, DWORD PTR [ecx+24]
  0002f	89 50 18	 mov	 DWORD PTR [eax+24], edx
  00032	8b 51 1c	 mov	 edx, DWORD PTR [ecx+28]
  00035	89 50 1c	 mov	 DWORD PTR [eax+28], edx
  00038	8b 51 20	 mov	 edx, DWORD PTR [ecx+32]
  0003b	89 50 20	 mov	 DWORD PTR [eax+32], edx
  0003e	8b 51 24	 mov	 edx, DWORD PTR [ecx+36]
  00041	89 50 24	 mov	 DWORD PTR [eax+36], edx
  00044	8b 51 28	 mov	 edx, DWORD PTR [ecx+40]
  00047	89 50 28	 mov	 DWORD PTR [eax+40], edx
  0004a	8b 51 2c	 mov	 edx, DWORD PTR [ecx+44]
  0004d	89 50 2c	 mov	 DWORD PTR [eax+44], edx
  00050	8b 51 30	 mov	 edx, DWORD PTR [ecx+48]
  00053	89 50 30	 mov	 DWORD PTR [eax+48], edx
  00056	8b 51 34	 mov	 edx, DWORD PTR [ecx+52]
  00059	89 50 34	 mov	 DWORD PTR [eax+52], edx
  0005c	8b 51 38	 mov	 edx, DWORD PTR [ecx+56]
  0005f	89 50 38	 mov	 DWORD PTR [eax+56], edx
  00062	8b 51 3c	 mov	 edx, DWORD PTR [ecx+60]
  00065	89 50 3c	 mov	 DWORD PTR [eax+60], edx
  00068	8b 51 40	 mov	 edx, DWORD PTR [ecx+64]
  0006b	89 50 40	 mov	 DWORD PTR [eax+64], edx
  0006e	8b 51 44	 mov	 edx, DWORD PTR [ecx+68]
  00071	89 50 44	 mov	 DWORD PTR [eax+68], edx
  00074	8b 51 48	 mov	 edx, DWORD PTR [ecx+72]
  00077	89 50 48	 mov	 DWORD PTR [eax+72], edx
  0007a	8b 51 4c	 mov	 edx, DWORD PTR [ecx+76]
  0007d	89 50 4c	 mov	 DWORD PTR [eax+76], edx
  00080	8b 51 50	 mov	 edx, DWORD PTR [ecx+80]
  00083	89 50 50	 mov	 DWORD PTR [eax+80], edx
  00086	8b 51 54	 mov	 edx, DWORD PTR [ecx+84]
  00089	89 50 54	 mov	 DWORD PTR [eax+84], edx
  0008c	8b 51 58	 mov	 edx, DWORD PTR [ecx+88]
  0008f	89 50 58	 mov	 DWORD PTR [eax+88], edx
  00092	8b 51 5c	 mov	 edx, DWORD PTR [ecx+92]
  00095	89 50 5c	 mov	 DWORD PTR [eax+92], edx
  00098	8b 51 60	 mov	 edx, DWORD PTR [ecx+96]
  0009b	89 50 60	 mov	 DWORD PTR [eax+96], edx
  0009e	8b 51 64	 mov	 edx, DWORD PTR [ecx+100]
  000a1	89 50 64	 mov	 DWORD PTR [eax+100], edx
  000a4	8b 51 68	 mov	 edx, DWORD PTR [ecx+104]
  000a7	89 50 68	 mov	 DWORD PTR [eax+104], edx
  000aa	8b 51 6c	 mov	 edx, DWORD PTR [ecx+108]
  000ad	89 50 6c	 mov	 DWORD PTR [eax+108], edx
  000b0	0f b6 51 70	 movzx	 edx, BYTE PTR [ecx+112]
  000b4	88 50 70	 mov	 BYTE PTR [eax+112], dl
  000b7	0f b6 51 71	 movzx	 edx, BYTE PTR [ecx+113]
  000bb	88 50 71	 mov	 BYTE PTR [eax+113], dl
  000be	0f b6 51 72	 movzx	 edx, BYTE PTR [ecx+114]
  000c2	88 50 72	 mov	 BYTE PTR [eax+114], dl
  000c5	0f b6 51 73	 movzx	 edx, BYTE PTR [ecx+115]
  000c9	88 50 73	 mov	 BYTE PTR [eax+115], dl
  000cc	8b 49 70	 mov	 ecx, DWORD PTR [ecx+112]
  000cf	89 48 70	 mov	 DWORD PTR [eax+112], ecx
  000d2	5d		 pop	 ebp
  000d3	c2 04 00	 ret	 4
??0_CS_NPC_DATA@@QAE@ABU0@@Z ENDP			; _CS_NPC_DATA::_CS_NPC_DATA
_TEXT	ENDS
PUBLIC	??_C@_0DP@KNAGLCDG@?$FLCastleSiege?$FN?5CCastleSiege?3?3Data@ ; `string'
PUBLIC	??_C@_0DP@OMADBIOD@?$FLCastleSiege?$FN?5CCastleSiege?3?3Data@ ; `string'
PUBLIC	??_C@_0GC@PDALCIPJ@?$FLCastleSiege?$FN?5CCastleSiege?3?3Data@ ; `string'
PUBLIC	??_C@_0DP@JKMGFFHF@?$FLCastleSiege?$FN?5CCastleSiege?3?3Data@ ; `string'
PUBLIC	??_C@_0EH@HNGJKKNJ@?$FLCastleSiege?$FN?5CCastleSiege?3?3Data@ ; `string'
PUBLIC	?DataRequest@CCastleSiege@@QAEHXZ		; CCastleSiege::DataRequest
EXTRN	?GS_GDReqCastleInitData@@YAXHH@Z:PROC		; GS_GDReqCastleInitData
EXTRN	__imp__GetTickCount@0:PROC
EXTRN	?LogAddC@@3P6AXEPADZZA:DWORD			; LogAddC
;	COMDAT ??_C@_0DP@KNAGLCDG@?$FLCastleSiege?$FN?5CCastleSiege?3?3Data@
CONST	SEGMENT
??_C@_0DP@KNAGLCDG@?$FLCastleSiege?$FN?5CCastleSiege?3?3Data@ DB '[Castle'
	DB	'Siege] CCastleSiege::DataRequest() - REQUEST DATA AGAIN', 00H ; `string'
CONST	ENDS
;	COMDAT ??_C@_0DP@OMADBIOD@?$FLCastleSiege?$FN?5CCastleSiege?3?3Data@
CONST	SEGMENT
??_C@_0DP@OMADBIOD@?$FLCastleSiege?$FN?5CCastleSiege?3?3Data@ DB '[Castle'
	DB	'Siege] CCastleSiege::DataRequest() - REQUEST DATA FIRST', 00H ; `string'
CONST	ENDS
;	COMDAT ??_C@_0GC@PDALCIPJ@?$FLCastleSiege?$FN?5CCastleSiege?3?3Data@
CONST	SEGMENT
??_C@_0GC@PDALCIPJ@?$FLCastleSiege?$FN?5CCastleSiege?3?3Data@ DB '[Castle'
	DB	'Siege] CCastleSiege::DataRequest() - m_iCastleDataLoadState !'
	DB	'= CASTLESIEGE_DATALOAD_2 (%d)', 00H		; `string'
CONST	ENDS
;	COMDAT ??_C@_0DP@JKMGFFHF@?$FLCastleSiege?$FN?5CCastleSiege?3?3Data@
CONST	SEGMENT
??_C@_0DP@JKMGFFHF@?$FLCastleSiege?$FN?5CCastleSiege?3?3Data@ DB '[Castle'
	DB	'Siege] CCastleSiege::DataRequest() - m_iMapSvrGroup < 0', 00H ; `string'
CONST	ENDS
;	COMDAT ??_C@_0EH@HNGJKKNJ@?$FLCastleSiege?$FN?5CCastleSiege?3?3Data@
CONST	SEGMENT
??_C@_0EH@HNGJKKNJ@?$FLCastleSiege?$FN?5CCastleSiege?3?3Data@ DB '[Castle'
	DB	'Siege] CCastleSiege::DataRequest() - m_bFileDataLoadOK == FAL'
	DB	'SE', 00H					; `string'
; Function compile flags: /Ogtp
CONST	ENDS
;	COMDAT ?DataRequest@CCastleSiege@@QAEHXZ
_TEXT	SEGMENT
?DataRequest@CCastleSiege@@QAEHXZ PROC			; CCastleSiege::DataRequest, COMDAT
; _this$ = ecx

; 965  : {

  00000	56		 push	 esi
  00001	8b f1		 mov	 esi, ecx

; 966  : 	if (this->m_bFileDataLoadOK == FALSE)

  00003	83 7e 0c 00	 cmp	 DWORD PTR [esi+12], 0
  00007	75 14		 jne	 SHORT $LN7@DataReques

; 967  : 	{
; 968  : 		LogAddC(2,"[CastleSiege] CCastleSiege::DataRequest() - m_bFileDataLoadOK == FALSE");

  00009	68 00 00 00 00	 push	 OFFSET ??_C@_0EH@HNGJKKNJ@?$FLCastleSiege?$FN?5CCastleSiege?3?3Data@
  0000e	6a 02		 push	 2
  00010	ff 15 00 00 00
	00		 call	 DWORD PTR ?LogAddC@@3P6AXEPADZZA ; LogAddC
  00016	83 c4 08	 add	 esp, 8

; 969  : 		return false;

  00019	33 c0		 xor	 eax, eax
  0001b	5e		 pop	 esi

; 1005 : }

  0001c	c3		 ret	 0
$LN7@DataReques:

; 970  : 	}
; 971  : 
; 972  : 	if (this->m_iMapSvrGroup < 0)

  0001d	83 7e 18 00	 cmp	 DWORD PTR [esi+24], 0
  00021	7d 14		 jge	 SHORT $LN6@DataReques

; 973  : 	{
; 974  : 		LogAddC(2,"[CastleSiege] CCastleSiege::DataRequest() - m_iMapSvrGroup < 0");

  00023	68 00 00 00 00	 push	 OFFSET ??_C@_0DP@JKMGFFHF@?$FLCastleSiege?$FN?5CCastleSiege?3?3Data@
  00028	6a 02		 push	 2
  0002a	ff 15 00 00 00
	00		 call	 DWORD PTR ?LogAddC@@3P6AXEPADZZA ; LogAddC
  00030	83 c4 08	 add	 esp, 8

; 975  : 		return false;

  00033	33 c0		 xor	 eax, eax
  00035	5e		 pop	 esi

; 1005 : }

  00036	c3		 ret	 0
$LN6@DataReques:

; 976  : 	}
; 977  : 
; 978  : 	if (this->m_iCastleDataLoadState != CASTLESIEGE_DATALOAD_2)

  00037	8b 46 1c	 mov	 eax, DWORD PTR [esi+28]
  0003a	83 f8 02	 cmp	 eax, 2
  0003d	74 15		 je	 SHORT $LN5@DataReques

; 979  : 	{
; 980  : 		LogAddC(2,"[CastleSiege] CCastleSiege::DataRequest() - m_iCastleDataLoadState != CASTLESIEGE_DATALOAD_2 (%d)",m_iCastleDataLoadState);

  0003f	50		 push	 eax
  00040	68 00 00 00 00	 push	 OFFSET ??_C@_0GC@PDALCIPJ@?$FLCastleSiege?$FN?5CCastleSiege?3?3Data@
  00045	6a 02		 push	 2
  00047	ff 15 00 00 00
	00		 call	 DWORD PTR ?LogAddC@@3P6AXEPADZZA ; LogAddC
  0004d	83 c4 0c	 add	 esp, 12			; 0000000cH

; 981  : 		return false;

  00050	33 c0		 xor	 eax, eax
  00052	5e		 pop	 esi

; 1005 : }

  00053	c3		 ret	 0
$LN5@DataReques:

; 982  : 	}
; 983  : 
; 984  : 	BOOL bDbRequestData = FALSE;
; 985  : 
; 986  : 	if (this->m_dwDbDataLoadTickCount == 0)

  00054	83 7e 20 00	 cmp	 DWORD PTR [esi+32], 0
  00058	57		 push	 edi
  00059	75 0f		 jne	 SHORT $LN4@DataReques

; 987  : 	{
; 988  : 		bDbRequestData = TRUE;
; 989  : 		m_dwDbDataLoadTickCount = GetTickCount();

  0005b	ff 15 00 00 00
	00		 call	 DWORD PTR __imp__GetTickCount@0

; 990  : 		LogAddC(3,"[CastleSiege] CCastleSiege::DataRequest() - REQUEST DATA FIRST");

  00061	68 00 00 00 00	 push	 OFFSET ??_C@_0DP@OMADBIOD@?$FLCastleSiege?$FN?5CCastleSiege?3?3Data@
  00066	6a 03		 push	 3
  00068	eb 1b		 jmp	 SHORT $LN11@DataReques
$LN4@DataReques:

; 991  : 	}
; 992  : 	else if (GetTickCount() - this->m_dwDbDataLoadTickCount > 3000)

  0006a	8b 3d 00 00 00
	00		 mov	 edi, DWORD PTR __imp__GetTickCount@0
  00070	ff d7		 call	 edi
  00072	2b 46 20	 sub	 eax, DWORD PTR [esi+32]
  00075	3d b8 0b 00 00	 cmp	 eax, 3000		; 00000bb8H
  0007a	76 25		 jbe	 SHORT $LN1@DataReques

; 993  : 	{
; 994  : 		bDbRequestData = TRUE;
; 995  : 		m_dwDbDataLoadTickCount = GetTickCount();

  0007c	ff d7		 call	 edi

; 996  : 		LogAddC(2,"[CastleSiege] CCastleSiege::DataRequest() - REQUEST DATA AGAIN");

  0007e	68 00 00 00 00	 push	 OFFSET ??_C@_0DP@KNAGLCDG@?$FLCastleSiege?$FN?5CCastleSiege?3?3Data@
  00083	6a 02		 push	 2
$LN11@DataReques:
  00085	89 46 20	 mov	 DWORD PTR [esi+32], eax
  00088	ff 15 00 00 00
	00		 call	 DWORD PTR ?LogAddC@@3P6AXEPADZZA ; LogAddC

; 997  : 	}
; 998  : 
; 999  : 	if (bDbRequestData != FALSE)
; 1000 : 	{
; 1001 : 		GS_GDReqCastleInitData(m_iMapSvrGroup,m_iCastleSiegeCycle);

  0008e	8b 46 24	 mov	 eax, DWORD PTR [esi+36]
  00091	8b 4e 18	 mov	 ecx, DWORD PTR [esi+24]
  00094	83 c4 08	 add	 esp, 8
  00097	50		 push	 eax
  00098	51		 push	 ecx
  00099	e8 00 00 00 00	 call	 ?GS_GDReqCastleInitData@@YAXHH@Z ; GS_GDReqCastleInitData
  0009e	83 c4 08	 add	 esp, 8
$LN1@DataReques:

; 1002 : 	}
; 1003 : 
; 1004 : 	return true;

  000a1	5f		 pop	 edi
  000a2	b8 01 00 00 00	 mov	 eax, 1
  000a7	5e		 pop	 esi

; 1005 : }

  000a8	c3		 ret	 0
?DataRequest@CCastleSiege@@QAEHXZ ENDP			; CCastleSiege::DataRequest
_TEXT	ENDS
PUBLIC	?SetState_NONE@CCastleSiege@@QAEXH@Z		; CCastleSiege::SetState_NONE
; Function compile flags: /Ogtp
;	COMDAT ?SetState_NONE@CCastleSiege@@QAEXH@Z
_TEXT	SEGMENT
_bSetRemainMsec$ = 8					; size = 4
?SetState_NONE@CCastleSiege@@QAEXH@Z PROC		; CCastleSiege::SetState_NONE, COMDAT
; _this$ = ecx

; 1206 : 
; 1207 : }

  00000	c2 04 00	 ret	 4
?SetState_NONE@CCastleSiege@@QAEXH@Z ENDP		; CCastleSiege::SetState_NONE
_TEXT	ENDS
PUBLIC	__real@408f400000000000
PUBLIC	??_C@_0BG@EJLADNHL@SET?5SetState_IDLE_1?$CI?$CJ?$AA@ ; `string'
PUBLIC	__$ArrayPad$
PUBLIC	?SetState_IDLE_1@CCastleSiege@@QAEXH@Z		; CCastleSiege::SetState_IDLE_1
EXTRN	?LogAddTD@@3P6AXPADZZA:DWORD			; LogAddTD
EXTRN	__ftol2_sse:PROC
;	COMDAT __real@408f400000000000
; File d:\program files (x86)\microsoft visual studio 10.0\vc\include\time.inl
CONST	SEGMENT
__real@408f400000000000 DQ 0408f400000000000r	; 1000
CONST	ENDS
;	COMDAT ??_C@_0BG@EJLADNHL@SET?5SetState_IDLE_1?$CI?$CJ?$AA@
CONST	SEGMENT
??_C@_0BG@EJLADNHL@SET?5SetState_IDLE_1?$CI?$CJ?$AA@ DB 'SET SetState_IDL'
	DB	'E_1()', 00H					; `string'
; Function compile flags: /Ogtp
; File e:\work\tranet_version\gs\gameserver\castlesiege.cpp
CONST	ENDS
;	COMDAT ?SetState_IDLE_1@CCastleSiege@@QAEXH@Z
_TEXT	SEGMENT
_ttSTime$213552 = -48					; size = 8
_tmETime$213554 = -40					; size = 36
__$ArrayPad$ = -4					; size = 4
_bSetRemainMsec$ = 8					; size = 4
?SetState_IDLE_1@CCastleSiege@@QAEXH@Z PROC		; CCastleSiege::SetState_IDLE_1, COMDAT
; _this$ = ecx

; 1210 : {

  00000	55		 push	 ebp
  00001	8b ec		 mov	 ebp, esp
  00003	83 ec 30	 sub	 esp, 48			; 00000030H
  00006	a1 00 00 00 00	 mov	 eax, DWORD PTR ___security_cookie
  0000b	33 c5		 xor	 eax, ebp
  0000d	89 45 fc	 mov	 DWORD PTR __$ArrayPad$[ebp], eax
  00010	56		 push	 esi

; 1211 : 	LogAddTD("SET SetState_IDLE_1()");

  00011	68 00 00 00 00	 push	 OFFSET ??_C@_0BG@EJLADNHL@SET?5SetState_IDLE_1?$CI?$CJ?$AA@
  00016	8b f1		 mov	 esi, ecx
  00018	ff 15 00 00 00
	00		 call	 DWORD PTR ?LogAddTD@@3P6AXPADZZA ; LogAddTD
  0001e	83 c4 04	 add	 esp, 4

; 1212 : 
; 1213 : 	if (bSetRemainMsec != FALSE)

  00021	83 7d 08 00	 cmp	 DWORD PTR _bSetRemainMsec$[ebp], 0
  00025	74 7b		 je	 SHORT $LN1@SetState_I

; 1214 : 	{
; 1215 : 		time_t ttSTime;
; 1216 : 		time_t ttETime;
; 1217 : 		tm tmETime;
; 1218 : 		double dResultSecond;
; 1219 : 
; 1220 : 		memset(&tmETime,0,sizeof(tmETime));
; 1221 : 
; 1222 : 		tmETime.tm_year = m_tmStartDate.wYear - 1900;
; 1223 : 		tmETime.tm_mon = m_tmStartDate.wMonth - 1;

  00027	0f b7 8e b6 00
	00 00		 movzx	 ecx, WORD PTR [esi+182]

; 1224 : 		tmETime.tm_mday = m_tmStartDate.wDay;

  0002e	0f b7 96 ba 00
	00 00		 movzx	 edx, WORD PTR [esi+186]
  00035	33 c0		 xor	 eax, eax
  00037	89 45 e4	 mov	 DWORD PTR _tmETime$213554[ebp+12], eax
  0003a	89 45 e8	 mov	 DWORD PTR _tmETime$213554[ebp+16], eax
  0003d	89 45 ec	 mov	 DWORD PTR _tmETime$213554[ebp+20], eax
  00040	89 45 d8	 mov	 DWORD PTR _tmETime$213554[ebp], eax
  00043	89 45 dc	 mov	 DWORD PTR _tmETime$213554[ebp+4], eax
  00046	89 45 e0	 mov	 DWORD PTR _tmETime$213554[ebp+8], eax
  00049	89 45 f0	 mov	 DWORD PTR _tmETime$213554[ebp+24], eax
  0004c	89 45 f4	 mov	 DWORD PTR _tmETime$213554[ebp+28], eax
  0004f	89 45 f8	 mov	 DWORD PTR _tmETime$213554[ebp+32], eax
  00052	0f b7 86 b4 00
	00 00		 movzx	 eax, WORD PTR [esi+180]
  00059	2d 6c 07 00 00	 sub	 eax, 1900		; 0000076cH
  0005e	53		 push	 ebx
  0005f	89 45 ec	 mov	 DWORD PTR _tmETime$213554[ebp+20], eax

; 1225 : 
; 1226 : 		ttETime = mktime(&tmETime);

  00062	8d 45 d8	 lea	 eax, DWORD PTR _tmETime$213554[ebp]
  00065	57		 push	 edi
  00066	49		 dec	 ecx
  00067	50		 push	 eax
  00068	89 4d e8	 mov	 DWORD PTR _tmETime$213554[ebp+16], ecx
  0006b	89 55 e4	 mov	 DWORD PTR _tmETime$213554[ebp+12], edx
  0006e	e8 00 00 00 00	 call	 __mktime64

; 1227 : 		time(&ttSTime);

  00073	8d 4d d0	 lea	 ecx, DWORD PTR _ttSTime$213552[ebp]
  00076	51		 push	 ecx
  00077	8b f8		 mov	 edi, eax
  00079	8b da		 mov	 ebx, edx
  0007b	e8 00 00 00 00	 call	 __time64

; 1228 : 
; 1229 : 		dResultSecond = difftime(ttETime,ttSTime);

  00080	8b 55 d4	 mov	 edx, DWORD PTR _ttSTime$213552[ebp+4]
  00083	8b 45 d0	 mov	 eax, DWORD PTR _ttSTime$213552[ebp]
  00086	52		 push	 edx
  00087	50		 push	 eax
  00088	53		 push	 ebx
  00089	57		 push	 edi
  0008a	e8 00 00 00 00	 call	 __difftime64

; 1230 : 		this->m_iCS_REMAIN_MSEC = dResultSecond * (double)1000.0;

  0008f	dc 0d 00 00 00
	00		 fmul	 QWORD PTR __real@408f400000000000
  00095	83 c4 18	 add	 esp, 24			; 00000018H
  00098	e8 00 00 00 00	 call	 __ftol2_sse
  0009d	5f		 pop	 edi
  0009e	89 46 68	 mov	 DWORD PTR [esi+104], eax
  000a1	5b		 pop	 ebx
$LN1@SetState_I:

; 1231 : 	}
; 1232 : }

  000a2	8b 4d fc	 mov	 ecx, DWORD PTR __$ArrayPad$[ebp]
  000a5	33 cd		 xor	 ecx, ebp
  000a7	5e		 pop	 esi
  000a8	e8 00 00 00 00	 call	 @__security_check_cookie@4
  000ad	8b e5		 mov	 esp, ebp
  000af	5d		 pop	 ebp
  000b0	c2 04 00	 ret	 4
?SetState_IDLE_1@CCastleSiege@@QAEXH@Z ENDP		; CCastleSiege::SetState_IDLE_1
_TEXT	ENDS
PUBLIC	?ProcState_NONE@CCastleSiege@@QAEXXZ		; CCastleSiege::ProcState_NONE
; Function compile flags: /Ogtp
;	COMDAT ?ProcState_NONE@CCastleSiege@@QAEXXZ
_TEXT	SEGMENT
?ProcState_NONE@CCastleSiege@@QAEXXZ PROC		; CCastleSiege::ProcState_NONE, COMDAT
; _this$ = ecx

; 1478 : 
; 1479 : }

  00000	c3		 ret	 0
?ProcState_NONE@CCastleSiege@@QAEXXZ ENDP		; CCastleSiege::ProcState_NONE
_TEXT	ENDS
PUBLIC	??4_CS_SCHEDULE_DATA@@QAEAAU0@ABU0@@Z		; _CS_SCHEDULE_DATA::operator=
; Function compile flags: /Ogtp
;	COMDAT ??4_CS_SCHEDULE_DATA@@QAEAAU0@ABU0@@Z
_TEXT	SEGMENT
___that$ = 8						; size = 4
??4_CS_SCHEDULE_DATA@@QAEAAU0@ABU0@@Z PROC		; _CS_SCHEDULE_DATA::operator=, COMDAT
; _this$ = ecx
  00000	55		 push	 ebp
  00001	8b ec		 mov	 ebp, esp
  00003	8b c1		 mov	 eax, ecx
  00005	8b 4d 08	 mov	 ecx, DWORD PTR ___that$[ebp]
  00008	8b 51 04	 mov	 edx, DWORD PTR [ecx+4]
  0000b	89 50 04	 mov	 DWORD PTR [eax+4], edx
  0000e	8b 51 08	 mov	 edx, DWORD PTR [ecx+8]
  00011	89 50 08	 mov	 DWORD PTR [eax+8], edx
  00014	8b 51 0c	 mov	 edx, DWORD PTR [ecx+12]
  00017	89 50 0c	 mov	 DWORD PTR [eax+12], edx
  0001a	8b 51 10	 mov	 edx, DWORD PTR [ecx+16]
  0001d	89 50 10	 mov	 DWORD PTR [eax+16], edx
  00020	8b 51 14	 mov	 edx, DWORD PTR [ecx+20]
  00023	89 50 14	 mov	 DWORD PTR [eax+20], edx
  00026	8b 49 18	 mov	 ecx, DWORD PTR [ecx+24]
  00029	89 48 18	 mov	 DWORD PTR [eax+24], ecx
  0002c	5d		 pop	 ebp
  0002d	c2 04 00	 ret	 4
??4_CS_SCHEDULE_DATA@@QAEAAU0@ABU0@@Z ENDP		; _CS_SCHEDULE_DATA::operator=
_TEXT	ENDS
PUBLIC	?GetNextDay@CCastleSiege@@QAEXPAU_SYSTEMTIME@@HHHH@Z ; CCastleSiege::GetNextDay
EXTRN	__imp__FileTimeToSystemTime@8:PROC
EXTRN	__imp__SystemTimeToFileTime@8:PROC
EXTRN	__allmul:PROC
; Function compile flags: /Ogtp
;	COMDAT ?GetNextDay@CCastleSiege@@QAEXPAU_SYSTEMTIME@@HHHH@Z
_TEXT	SEGMENT
_fst$ = -8						; size = 8
_st$ = 8						; size = 4
_iAfterDay$ = 12					; size = 4
_iAfterHour$ = 16					; size = 4
_iAfterMin$ = 20					; size = 4
_iAfterSec$ = 24					; size = 4
?GetNextDay@CCastleSiege@@QAEXPAU_SYSTEMTIME@@HHHH@Z PROC ; CCastleSiege::GetNextDay, COMDAT
; _this$ = ecx

; 2174 : {

  00000	55		 push	 ebp
  00001	8b ec		 mov	 ebp, esp
  00003	83 ec 08	 sub	 esp, 8
  00006	56		 push	 esi

; 2175 : 	__int64 i64;
; 2176 : 	_FILETIME fst;
; 2177 : 	st->wDayOfWeek = 0;

  00007	8b 75 08	 mov	 esi, DWORD PTR _st$[ebp]
  0000a	33 c0		 xor	 eax, eax
  0000c	57		 push	 edi
  0000d	66 89 46 04	 mov	 WORD PTR [esi+4], ax

; 2178 : 	st->wMilliseconds = 0;
; 2179 : 	st->wSecond = 0;
; 2180 : 	SystemTimeToFileTime(st,&fst);

  00011	8d 45 f8	 lea	 eax, DWORD PTR _fst$[ebp]
  00014	50		 push	 eax
  00015	33 c9		 xor	 ecx, ecx
  00017	56		 push	 esi
  00018	89 4e 0c	 mov	 DWORD PTR [esi+12], ecx
  0001b	ff 15 00 00 00
	00		 call	 DWORD PTR __imp__SystemTimeToFileTime@8

; 2181 : 	i64 = ((__int64)fst.dwHighDateTime << 0x20) + fst.dwLowDateTime;
; 2182 : 	i64 = i64 + (__int64)iAfterDay * 864000000000 + (__int64)iAfterHour * 36000000000 +(__int64) iAfterMin * 600000000 + (__int64)iAfterSec * 10000000;

  00021	8b 45 0c	 mov	 eax, DWORD PTR _iAfterDay$[ebp]
  00024	99		 cdq
  00025	8b fa		 mov	 edi, edx
  00027	0f a4 c2 01	 shld	 edx, eax, 1
  0002b	8b c8		 mov	 ecx, eax
  0002d	03 c0		 add	 eax, eax
  0002f	03 c8		 add	 ecx, eax
  00031	13 fa		 adc	 edi, edx
  00033	8b 45 10	 mov	 eax, DWORD PTR _iAfterHour$[ebp]
  00036	0f a4 cf 03	 shld	 edi, ecx, 3
  0003a	03 c9		 add	 ecx, ecx
  0003c	99		 cdq
  0003d	03 c9		 add	 ecx, ecx
  0003f	03 c9		 add	 ecx, ecx
  00041	03 c8		 add	 ecx, eax
  00043	13 fa		 adc	 edi, edx
  00045	8b d1		 mov	 edx, ecx
  00047	8b c7		 mov	 eax, edi
  00049	0f a4 d0 04	 shld	 eax, edx, 4
  0004d	c1 e2 04	 shl	 edx, 4
  00050	2b d1		 sub	 edx, ecx
  00052	1b c7		 sbb	 eax, edi
  00054	8b ca		 mov	 ecx, edx
  00056	8b f8		 mov	 edi, eax
  00058	8b 45 14	 mov	 eax, DWORD PTR _iAfterMin$[ebp]
  0005b	0f a4 cf 02	 shld	 edi, ecx, 2
  0005f	99		 cdq
  00060	03 c9		 add	 ecx, ecx
  00062	03 c9		 add	 ecx, ecx
  00064	03 c8		 add	 ecx, eax
  00066	13 fa		 adc	 edi, edx
  00068	8b d1		 mov	 edx, ecx
  0006a	8b c7		 mov	 eax, edi
  0006c	0f a4 d0 04	 shld	 eax, edx, 4
  00070	c1 e2 04	 shl	 edx, 4
  00073	2b d1		 sub	 edx, ecx
  00075	1b c7		 sbb	 eax, edi
  00077	0f a4 d0 02	 shld	 eax, edx, 2
  0007b	03 d2		 add	 edx, edx
  0007d	8b f8		 mov	 edi, eax
  0007f	8b 45 18	 mov	 eax, DWORD PTR _iAfterSec$[ebp]
  00082	8d 0c 12	 lea	 ecx, DWORD PTR [edx+edx]
  00085	99		 cdq
  00086	6a 00		 push	 0
  00088	03 c8		 add	 ecx, eax
  0008a	68 80 96 98 00	 push	 10000000		; 00989680H
  0008f	13 fa		 adc	 edi, edx
  00091	57		 push	 edi
  00092	51		 push	 ecx
  00093	e8 00 00 00 00	 call	 __allmul
  00098	33 c9		 xor	 ecx, ecx
  0009a	03 c1		 add	 eax, ecx
  0009c	13 55 fc	 adc	 edx, DWORD PTR _fst$[ebp+4]
  0009f	33 ff		 xor	 edi, edi
  000a1	03 45 f8	 add	 eax, DWORD PTR _fst$[ebp]

; 2183 : 	fst.dwHighDateTime = i64 >> 0x20;
; 2184 : 	fst.dwLowDateTime = i64 & 0xFFFFFFFF;
; 2185 : 	FileTimeToSystemTime(&fst,st);

  000a4	56		 push	 esi
  000a5	13 d7		 adc	 edx, edi
  000a7	8b ca		 mov	 ecx, edx
  000a9	89 55 fc	 mov	 DWORD PTR _fst$[ebp+4], edx
  000ac	8d 55 f8	 lea	 edx, DWORD PTR _fst$[ebp]
  000af	52		 push	 edx
  000b0	c1 f9 1f	 sar	 ecx, 31			; 0000001fH
  000b3	89 45 f8	 mov	 DWORD PTR _fst$[ebp], eax
  000b6	ff 15 00 00 00
	00		 call	 DWORD PTR __imp__FileTimeToSystemTime@8
  000bc	5f		 pop	 edi
  000bd	5e		 pop	 esi

; 2186 : }

  000be	8b e5		 mov	 esp, ebp
  000c0	5d		 pop	 ebp
  000c1	c2 14 00	 ret	 20			; 00000014H
?GetNextDay@CCastleSiege@@QAEXPAU_SYSTEMTIME@@HHHH@Z ENDP ; CCastleSiege::GetNextDay
_TEXT	ENDS
PUBLIC	?GetCastleStateTerm@CCastleSiege@@QAEHPAU_SYSTEMTIME@@0@Z ; CCastleSiege::GetCastleStateTerm
EXTRN	__imp__GetLocalTime@4:PROC
; Function compile flags: /Ogtp
;	COMDAT ?GetCastleStateTerm@CCastleSiege@@QAEHPAU_SYSTEMTIME@@0@Z
_TEXT	SEGMENT
_tmStateStartDate$ = 8					; size = 4
_tmStateEndDate$ = 12					; size = 4
?GetCastleStateTerm@CCastleSiege@@QAEHPAU_SYSTEMTIME@@0@Z PROC ; CCastleSiege::GetCastleStateTerm, COMDAT
; _this$ = ecx

; 2302 : {

  00000	55		 push	 ebp
  00001	8b ec		 mov	 ebp, esp
  00003	56		 push	 esi
  00004	8b f1		 mov	 esi, ecx

; 2303 : 	if ( this->m_iCastleSiegeState < CASTLESIEGE_STATE_IDLE_1 || CASTLESIEGE_STATE_ENDCYCLE < this->m_iCastleSiegeState )

  00006	8b 46 28	 mov	 eax, DWORD PTR [esi+40]
  00009	85 c0		 test	 eax, eax
  0000b	78 5c		 js	 SHORT $LN2@GetCastleS
  0000d	83 f8 09	 cmp	 eax, 9
  00010	7f 57		 jg	 SHORT $LN2@GetCastleS

; 2306 : 	}
; 2307 : 
; 2308 : 	if ( this->m_bDoRun == FALSE )

  00012	83 7e 14 00	 cmp	 DWORD PTR [esi+20], 0

; 2309 : 	{
; 2310 : 		return FALSE;

  00016	74 51		 je	 SHORT $LN2@GetCastleS

; 2311 : 	}
; 2312 : 
; 2313 : 	*tmStateStartDate = this->m_tmStateStartDate;

  00018	8b 4e 70	 mov	 ecx, DWORD PTR [esi+112]
  0001b	8b 45 08	 mov	 eax, DWORD PTR _tmStateStartDate$[ebp]
  0001e	89 08		 mov	 DWORD PTR [eax], ecx
  00020	8b 56 74	 mov	 edx, DWORD PTR [esi+116]
  00023	89 50 04	 mov	 DWORD PTR [eax+4], edx
  00026	8b 4e 78	 mov	 ecx, DWORD PTR [esi+120]
  00029	57		 push	 edi

; 2314 : 
; 2315 : 	GetLocalTime(tmStateEndDate);

  0002a	8b 7d 0c	 mov	 edi, DWORD PTR _tmStateEndDate$[ebp]
  0002d	89 48 08	 mov	 DWORD PTR [eax+8], ecx
  00030	8b 56 7c	 mov	 edx, DWORD PTR [esi+124]
  00033	57		 push	 edi
  00034	89 50 0c	 mov	 DWORD PTR [eax+12], edx
  00037	ff 15 00 00 00
	00		 call	 DWORD PTR __imp__GetLocalTime@4

; 2316 : 
; 2317 : 	GetNextDay(tmStateEndDate, 0, 0, 0, this->m_iCS_REMAIN_MSEC / 1000);

  0003d	b8 d3 4d 62 10	 mov	 eax, 274877907		; 10624dd3H
  00042	f7 6e 68	 imul	 DWORD PTR [esi+104]
  00045	c1 fa 06	 sar	 edx, 6
  00048	8b c2		 mov	 eax, edx
  0004a	c1 e8 1f	 shr	 eax, 31			; 0000001fH
  0004d	03 c2		 add	 eax, edx
  0004f	50		 push	 eax
  00050	6a 00		 push	 0
  00052	6a 00		 push	 0
  00054	6a 00		 push	 0
  00056	57		 push	 edi
  00057	8b ce		 mov	 ecx, esi
  00059	e8 00 00 00 00	 call	 ?GetNextDay@CCastleSiege@@QAEXPAU_SYSTEMTIME@@HHHH@Z ; CCastleSiege::GetNextDay
  0005e	5f		 pop	 edi

; 2318 : 
; 2319 : 	return TRUE;

  0005f	b8 01 00 00 00	 mov	 eax, 1
  00064	5e		 pop	 esi

; 2320 : }

  00065	5d		 pop	 ebp
  00066	c2 08 00	 ret	 8
$LN2@GetCastleS:

; 2304 : 	{
; 2305 : 		return FALSE;

  00069	33 c0		 xor	 eax, eax
  0006b	5e		 pop	 esi

; 2320 : }

  0006c	5d		 pop	 ebp
  0006d	c2 08 00	 ret	 8
?GetCastleStateTerm@CCastleSiege@@QAEHPAU_SYSTEMTIME@@0@Z ENDP ; CCastleSiege::GetCastleStateTerm
_TEXT	ENDS
PUBLIC	?GetCurRemainSec@CCastleSiege@@QAEHXZ		; CCastleSiege::GetCurRemainSec
; Function compile flags: /Ogtp
;	COMDAT ?GetCurRemainSec@CCastleSiege@@QAEHXZ
_TEXT	SEGMENT
?GetCurRemainSec@CCastleSiege@@QAEHXZ PROC		; CCastleSiege::GetCurRemainSec, COMDAT
; _this$ = ecx

; 2324 : 	if ( this->m_iCS_REMAIN_MSEC < 0 )

  00000	8b 49 68	 mov	 ecx, DWORD PTR [ecx+104]
  00003	85 c9		 test	 ecx, ecx
  00005	79 04		 jns	 SHORT $LN1@GetCurRema

; 2325 : 	{
; 2326 : 		return -1;

  00007	83 c8 ff	 or	 eax, -1

; 2334 : }

  0000a	c3		 ret	 0
$LN1@GetCurRema:

; 2327 : 	}
; 2328 : 
; 2329 : #ifdef DEBUG_CODE
; 2330 : 	LogAddC(2,"%d",m_iCS_REMAIN_MSEC);
; 2331 : #endif
; 2332 : 
; 2333 : 	return (this->m_iCS_REMAIN_MSEC / 1000);

  0000b	b8 d3 4d 62 10	 mov	 eax, 274877907		; 10624dd3H
  00010	f7 e9		 imul	 ecx
  00012	c1 fa 06	 sar	 edx, 6
  00015	8b c2		 mov	 eax, edx
  00017	c1 e8 1f	 shr	 eax, 31			; 0000001fH
  0001a	03 c2		 add	 eax, edx

; 2334 : }

  0001c	c3		 ret	 0
?GetCurRemainSec@CCastleSiege@@QAEHXZ ENDP		; CCastleSiege::GetCurRemainSec
_TEXT	ENDS
PUBLIC	?ClearNonDbNPC@CCastleSiege@@QAEXXZ		; CCastleSiege::ClearNonDbNPC
EXTRN	?gObjDel@@YAFH@Z:PROC				; gObjDel
EXTRN	?DeleteMercenary@CMercenary@@QAEHH@Z:PROC	; CMercenary::DeleteMercenary
EXTRN	?g_CsNPC_Mercenary@@3VCMercenary@@A:QWORD	; g_CsNPC_Mercenary
EXTRN	?DeleteLifeStone@CLifeStone@@QAEHH@Z:PROC	; CLifeStone::DeleteLifeStone
EXTRN	?g_CsNPC_LifeStone@@3VCLifeStone@@A:DWORD	; g_CsNPC_LifeStone
EXTRN	?gObj@@3PAUOBJECTSTRUCT@@A:DWORD		; gObj
EXTRN	?gObjIsConnected@@YAHH@Z:PROC			; gObjIsConnected
; Function compile flags: /Ogtp
;	COMDAT ?ClearNonDbNPC@CCastleSiege@@QAEXXZ
_TEXT	SEGMENT
?ClearNonDbNPC@CCastleSiege@@QAEXXZ PROC		; CCastleSiege::ClearNonDbNPC, COMDAT
; _this$ = ecx

; 2356 : {

  00000	56		 push	 esi
  00001	57		 push	 edi

; 2357 : 	for(int n = 0; n < OBJ_MAXMONSTER; n++)

  00002	33 ff		 xor	 edi, edi
  00004	33 f6		 xor	 esi, esi
$LL8@ClearNonDb:

; 2358 : 	{
; 2359 : 		if (gObjIsConnected(n) && gObj[n].MapNumber == MAP_INDEX_CASTLESIEGE	&& gObj[n].m_btCsNpcType != NULL && gObj[n].m_btCsNpcType != 1)

  00006	57		 push	 edi
  00007	e8 00 00 00 00	 call	 ?gObjIsConnected@@YAHH@Z ; gObjIsConnected
  0000c	83 c4 04	 add	 esp, 4
  0000f	85 c0		 test	 eax, eax
  00011	0f 84 82 00 00
	00		 je	 $LN7@ClearNonDb
  00017	a1 00 00 00 00	 mov	 eax, DWORD PTR ?gObj@@3PAUOBJECTSTRUCT@@A ; gObj
  0001c	80 bc 06 49 01
	00 00 1e	 cmp	 BYTE PTR [esi+eax+329], 30 ; 0000001eH
  00024	75 73		 jne	 SHORT $LN7@ClearNonDb
  00026	8a 8c 06 f8 1b
	00 00		 mov	 cl, BYTE PTR [esi+eax+7160]
  0002d	84 c9		 test	 cl, cl
  0002f	74 68		 je	 SHORT $LN7@ClearNonDb
  00031	80 f9 01	 cmp	 cl, 1
  00034	74 63		 je	 SHORT $LN7@ClearNonDb

; 2360 : 		{
; 2361 : 			if (gObj[n].Class == 278)

  00036	b9 16 01 00 00	 mov	 ecx, 278		; 00000116H
  0003b	66 39 8c 06 b8
	00 00 00	 cmp	 WORD PTR [esi+eax+184], cx
  00043	75 10		 jne	 SHORT $LN4@ClearNonDb

; 2362 : 			{
; 2363 : 				g_CsNPC_LifeStone.DeleteLifeStone(n);

  00045	57		 push	 edi
  00046	b9 00 00 00 00	 mov	 ecx, OFFSET ?g_CsNPC_LifeStone@@3VCLifeStone@@A ; g_CsNPC_LifeStone
  0004b	e8 00 00 00 00	 call	 ?DeleteLifeStone@CLifeStone@@QAEHH@Z ; CLifeStone::DeleteLifeStone
  00050	a1 00 00 00 00	 mov	 eax, DWORD PTR ?gObj@@3PAUOBJECTSTRUCT@@A ; gObj
$LN4@ClearNonDb:

; 2364 : 			}
; 2365 : 
; 2366 : 			if (gObj[n].Class == 287 || gObj[n].Class == 286)

  00055	0f b7 8c 06 b8
	00 00 00	 movzx	 ecx, WORD PTR [esi+eax+184]
  0005d	ba 1f 01 00 00	 mov	 edx, 287		; 0000011fH
  00062	66 3b ca	 cmp	 cx, dx
  00065	74 0a		 je	 SHORT $LN2@ClearNonDb
  00067	ba 1e 01 00 00	 mov	 edx, 286		; 0000011eH
  0006c	66 3b ca	 cmp	 cx, dx
  0006f	75 10		 jne	 SHORT $LN3@ClearNonDb
$LN2@ClearNonDb:

; 2367 : 			{
; 2368 : 				g_CsNPC_Mercenary.DeleteMercenary(n);

  00071	57		 push	 edi
  00072	b9 00 00 00 00	 mov	 ecx, OFFSET ?g_CsNPC_Mercenary@@3VCMercenary@@A ; g_CsNPC_Mercenary
  00077	e8 00 00 00 00	 call	 ?DeleteMercenary@CMercenary@@QAEHH@Z ; CMercenary::DeleteMercenary
  0007c	a1 00 00 00 00	 mov	 eax, DWORD PTR ?gObj@@3PAUOBJECTSTRUCT@@A ; gObj
$LN3@ClearNonDb:

; 2369 : 			}
; 2370 : 
; 2371 : 			if (gObj[n].Class == 219)

  00081	b9 db 00 00 00	 mov	 ecx, 219		; 000000dbH
  00086	66 39 8c 06 b8
	00 00 00	 cmp	 WORD PTR [esi+eax+184], cx
  0008e	74 09		 je	 SHORT $LN7@ClearNonDb

; 2372 : 			{
; 2373 : 				continue;
; 2374 : 			}
; 2375 : 
; 2376 : 			gObjDel(n);

  00090	57		 push	 edi
  00091	e8 00 00 00 00	 call	 ?gObjDel@@YAFH@Z	; gObjDel
  00096	83 c4 04	 add	 esp, 4
$LN7@ClearNonDb:

; 2357 : 	for(int n = 0; n < OBJ_MAXMONSTER; n++)

  00099	81 c6 50 2b 00
	00		 add	 esi, 11088		; 00002b50H
  0009f	47		 inc	 edi
  000a0	81 fe 80 76 97
	08		 cmp	 esi, 144144000		; 08977680H
  000a6	0f 8c 5a ff ff
	ff		 jl	 $LL8@ClearNonDb

; 2377 : 		}
; 2378 : 	}
; 2379 : }

  000ac	5f		 pop	 edi
  000ad	5e		 pop	 esi
  000ae	c3		 ret	 0
?ClearNonDbNPC@CCastleSiege@@QAEXXZ ENDP		; CCastleSiege::ClearNonDbNPC
_TEXT	ENDS
PUBLIC	?ClearNonDbNPC_MidWin@CCastleSiege@@QAEXXZ	; CCastleSiege::ClearNonDbNPC_MidWin
; Function compile flags: /Ogtp
;	COMDAT ?ClearNonDbNPC_MidWin@CCastleSiege@@QAEXXZ
_TEXT	SEGMENT
?ClearNonDbNPC_MidWin@CCastleSiege@@QAEXXZ PROC		; CCastleSiege::ClearNonDbNPC_MidWin, COMDAT
; _this$ = ecx

; 2382 : {

  00000	56		 push	 esi
  00001	57		 push	 edi

; 2383 : 	for( int n = 0 ; n < OBJ_MAXMONSTER; n++ )

  00002	33 ff		 xor	 edi, edi
  00004	33 f6		 xor	 esi, esi
$LL8@ClearNonDb@2:

; 2384 : 	{
; 2385 : 		if ( gObjIsConnected(n) )

  00006	57		 push	 edi
  00007	e8 00 00 00 00	 call	 ?gObjIsConnected@@YAHH@Z ; gObjIsConnected
  0000c	83 c4 04	 add	 esp, 4
  0000f	85 c0		 test	 eax, eax
  00011	74 56		 je	 SHORT $LN7@ClearNonDb@2

; 2386 : 		{
; 2387 : 			if ( gObj[n].MapNumber == MAP_INDEX_CASTLESIEGE )

  00013	a1 00 00 00 00	 mov	 eax, DWORD PTR ?gObj@@3PAUOBJECTSTRUCT@@A ; gObj
  00018	80 bc 06 49 01
	00 00 1e	 cmp	 BYTE PTR [esi+eax+329], 30 ; 0000001eH
  00020	75 47		 jne	 SHORT $LN7@ClearNonDb@2

; 2388 : 			{
; 2389 : 				if ( gObj[n].m_btCsNpcType && gObj[n].m_btCsNpcType != 1 )

  00022	8a 8c 06 f8 1b
	00 00		 mov	 cl, BYTE PTR [esi+eax+7160]
  00029	84 c9		 test	 cl, cl
  0002b	74 3c		 je	 SHORT $LN7@ClearNonDb@2
  0002d	80 f9 01	 cmp	 cl, 1
  00030	74 37		 je	 SHORT $LN7@ClearNonDb@2

; 2390 : 				{
; 2391 : 					if ( gObj[n].Class == 278 )

  00032	b9 16 01 00 00	 mov	 ecx, 278		; 00000116H
  00037	66 39 8c 06 b8
	00 00 00	 cmp	 WORD PTR [esi+eax+184], cx
  0003f	75 10		 jne	 SHORT $LN2@ClearNonDb@2

; 2392 : 					{
; 2393 : 						g_CsNPC_LifeStone.DeleteLifeStone(n);

  00041	57		 push	 edi
  00042	b9 00 00 00 00	 mov	 ecx, OFFSET ?g_CsNPC_LifeStone@@3VCLifeStone@@A ; g_CsNPC_LifeStone
  00047	e8 00 00 00 00	 call	 ?DeleteLifeStone@CLifeStone@@QAEHH@Z ; CLifeStone::DeleteLifeStone
  0004c	a1 00 00 00 00	 mov	 eax, DWORD PTR ?gObj@@3PAUOBJECTSTRUCT@@A ; gObj
$LN2@ClearNonDb@2:

; 2394 : 					}
; 2395 : 					
; 2396 : 					if ( gObj[n].Class == 278 )

  00051	ba 16 01 00 00	 mov	 edx, 278		; 00000116H
  00056	66 39 94 06 b8
	00 00 00	 cmp	 WORD PTR [esi+eax+184], dx
  0005e	75 09		 jne	 SHORT $LN7@ClearNonDb@2

; 2397 : 					{
; 2398 : 						gObjDel(n);

  00060	57		 push	 edi
  00061	e8 00 00 00 00	 call	 ?gObjDel@@YAFH@Z	; gObjDel
  00066	83 c4 04	 add	 esp, 4
$LN7@ClearNonDb@2:

; 2383 : 	for( int n = 0 ; n < OBJ_MAXMONSTER; n++ )

  00069	81 c6 50 2b 00
	00		 add	 esi, 11088		; 00002b50H
  0006f	47		 inc	 edi
  00070	81 fe 80 76 97
	08		 cmp	 esi, 144144000		; 08977680H
  00076	7c 8e		 jl	 SHORT $LL8@ClearNonDb@2

; 2399 : 					}
; 2400 : 				}
; 2401 : 			}
; 2402 : 		}
; 2403 : 	}
; 2404 : }

  00078	5f		 pop	 edi
  00079	5e		 pop	 esi
  0007a	c3		 ret	 0
?ClearNonDbNPC_MidWin@CCastleSiege@@QAEXXZ ENDP		; CCastleSiege::ClearNonDbNPC_MidWin
_TEXT	ENDS
PUBLIC	?ClearAllNPC@CCastleSiege@@QAEXXZ		; CCastleSiege::ClearAllNPC
; Function compile flags: /Ogtp
;	COMDAT ?ClearAllNPC@CCastleSiege@@QAEXXZ
_TEXT	SEGMENT
?ClearAllNPC@CCastleSiege@@QAEXXZ PROC			; CCastleSiege::ClearAllNPC, COMDAT
; _this$ = ecx

; 2407 : {

  00000	56		 push	 esi
  00001	57		 push	 edi

; 2408 : 	for(int n = 0; n < OBJ_MAXMONSTER; n++)

  00002	33 ff		 xor	 edi, edi
  00004	33 f6		 xor	 esi, esi
  00006	eb 08 8d a4 24
	00 00 00 00 90	 npad	 10
$LL4@ClearAllNP:

; 2409 : 	{
; 2410 : 		if (gObj[n].m_btCsNpcType)

  00010	a1 00 00 00 00	 mov	 eax, DWORD PTR ?gObj@@3PAUOBJECTSTRUCT@@A ; gObj
  00015	80 bc 06 f8 1b
	00 00 00	 cmp	 BYTE PTR [esi+eax+7160], 0
  0001d	74 09		 je	 SHORT $LN3@ClearAllNP

; 2411 : 		{
; 2412 : 			gObjDel(n);

  0001f	57		 push	 edi
  00020	e8 00 00 00 00	 call	 ?gObjDel@@YAFH@Z	; gObjDel
  00025	83 c4 04	 add	 esp, 4
$LN3@ClearAllNP:

; 2408 : 	for(int n = 0; n < OBJ_MAXMONSTER; n++)

  00028	81 c6 50 2b 00
	00		 add	 esi, 11088		; 00002b50H
  0002e	47		 inc	 edi
  0002f	81 fe 80 76 97
	08		 cmp	 esi, 144144000		; 08977680H
  00035	7c d9		 jl	 SHORT $LL4@ClearAllNP

; 2413 : 		}
; 2414 : 	}
; 2415 : }

  00037	5f		 pop	 edi
  00038	5e		 pop	 esi
  00039	c3		 ret	 0
?ClearAllNPC@CCastleSiege@@QAEXXZ ENDP			; CCastleSiege::ClearAllNPC
_TEXT	ENDS
PUBLIC	??4_CS_NPC_DATA@@QAEAAU0@ABU0@@Z		; _CS_NPC_DATA::operator=
; Function compile flags: /Ogtp
;	COMDAT ??4_CS_NPC_DATA@@QAEAAU0@ABU0@@Z
_TEXT	SEGMENT
___that$ = 8						; size = 4
??4_CS_NPC_DATA@@QAEAAU0@ABU0@@Z PROC			; _CS_NPC_DATA::operator=, COMDAT
; _this$ = ecx
  00000	55		 push	 ebp
  00001	8b ec		 mov	 ebp, esp
  00003	8b c1		 mov	 eax, ecx
  00005	8b 4d 08	 mov	 ecx, DWORD PTR ___that$[ebp]
  00008	8b 51 04	 mov	 edx, DWORD PTR [ecx+4]
  0000b	89 50 04	 mov	 DWORD PTR [eax+4], edx
  0000e	8b 51 08	 mov	 edx, DWORD PTR [ecx+8]
  00011	89 50 08	 mov	 DWORD PTR [eax+8], edx
  00014	8b 51 0c	 mov	 edx, DWORD PTR [ecx+12]
  00017	89 50 0c	 mov	 DWORD PTR [eax+12], edx
  0001a	8b 51 10	 mov	 edx, DWORD PTR [ecx+16]
  0001d	89 50 10	 mov	 DWORD PTR [eax+16], edx
  00020	8b 51 14	 mov	 edx, DWORD PTR [ecx+20]
  00023	89 50 14	 mov	 DWORD PTR [eax+20], edx
  00026	8b 51 18	 mov	 edx, DWORD PTR [ecx+24]
  00029	89 50 18	 mov	 DWORD PTR [eax+24], edx
  0002c	8b 51 1c	 mov	 edx, DWORD PTR [ecx+28]
  0002f	89 50 1c	 mov	 DWORD PTR [eax+28], edx
  00032	8b 51 20	 mov	 edx, DWORD PTR [ecx+32]
  00035	89 50 20	 mov	 DWORD PTR [eax+32], edx
  00038	8b 51 24	 mov	 edx, DWORD PTR [ecx+36]
  0003b	89 50 24	 mov	 DWORD PTR [eax+36], edx
  0003e	8b 51 28	 mov	 edx, DWORD PTR [ecx+40]
  00041	89 50 28	 mov	 DWORD PTR [eax+40], edx
  00044	8b 51 2c	 mov	 edx, DWORD PTR [ecx+44]
  00047	89 50 2c	 mov	 DWORD PTR [eax+44], edx
  0004a	8b 51 30	 mov	 edx, DWORD PTR [ecx+48]
  0004d	89 50 30	 mov	 DWORD PTR [eax+48], edx
  00050	8b 51 34	 mov	 edx, DWORD PTR [ecx+52]
  00053	89 50 34	 mov	 DWORD PTR [eax+52], edx
  00056	8b 51 38	 mov	 edx, DWORD PTR [ecx+56]
  00059	89 50 38	 mov	 DWORD PTR [eax+56], edx
  0005c	8b 51 3c	 mov	 edx, DWORD PTR [ecx+60]
  0005f	89 50 3c	 mov	 DWORD PTR [eax+60], edx
  00062	8b 51 40	 mov	 edx, DWORD PTR [ecx+64]
  00065	89 50 40	 mov	 DWORD PTR [eax+64], edx
  00068	8b 51 44	 mov	 edx, DWORD PTR [ecx+68]
  0006b	89 50 44	 mov	 DWORD PTR [eax+68], edx
  0006e	8b 51 48	 mov	 edx, DWORD PTR [ecx+72]
  00071	89 50 48	 mov	 DWORD PTR [eax+72], edx
  00074	8b 51 4c	 mov	 edx, DWORD PTR [ecx+76]
  00077	89 50 4c	 mov	 DWORD PTR [eax+76], edx
  0007a	8b 51 50	 mov	 edx, DWORD PTR [ecx+80]
  0007d	89 50 50	 mov	 DWORD PTR [eax+80], edx
  00080	8b 51 54	 mov	 edx, DWORD PTR [ecx+84]
  00083	89 50 54	 mov	 DWORD PTR [eax+84], edx
  00086	8b 51 58	 mov	 edx, DWORD PTR [ecx+88]
  00089	89 50 58	 mov	 DWORD PTR [eax+88], edx
  0008c	8b 51 5c	 mov	 edx, DWORD PTR [ecx+92]
  0008f	89 50 5c	 mov	 DWORD PTR [eax+92], edx
  00092	8b 51 60	 mov	 edx, DWORD PTR [ecx+96]
  00095	89 50 60	 mov	 DWORD PTR [eax+96], edx
  00098	8b 51 64	 mov	 edx, DWORD PTR [ecx+100]
  0009b	89 50 64	 mov	 DWORD PTR [eax+100], edx
  0009e	8b 51 68	 mov	 edx, DWORD PTR [ecx+104]
  000a1	89 50 68	 mov	 DWORD PTR [eax+104], edx
  000a4	8b 51 6c	 mov	 edx, DWORD PTR [ecx+108]
  000a7	89 50 6c	 mov	 DWORD PTR [eax+108], edx
  000aa	0f b6 51 70	 movzx	 edx, BYTE PTR [ecx+112]
  000ae	88 50 70	 mov	 BYTE PTR [eax+112], dl
  000b1	0f b6 51 71	 movzx	 edx, BYTE PTR [ecx+113]
  000b5	88 50 71	 mov	 BYTE PTR [eax+113], dl
  000b8	0f b6 51 72	 movzx	 edx, BYTE PTR [ecx+114]
  000bc	88 50 72	 mov	 BYTE PTR [eax+114], dl
  000bf	0f b6 51 73	 movzx	 edx, BYTE PTR [ecx+115]
  000c3	88 50 73	 mov	 BYTE PTR [eax+115], dl
  000c6	8b 49 70	 mov	 ecx, DWORD PTR [ecx+112]
  000c9	89 48 70	 mov	 DWORD PTR [eax+112], ecx
  000cc	5d		 pop	 ebp
  000cd	c2 04 00	 ret	 4
??4_CS_NPC_DATA@@QAEAAU0@ABU0@@Z ENDP			; _CS_NPC_DATA::operator=
_TEXT	ENDS
PUBLIC	?SendCsGateStateViewPort@CCastleSiege@@QAEXHE@Z	; CCastleSiege::SendCsGateStateViewPort
EXTRN	?GCAnsCsGateCurState@@YAXHHH@Z:PROC		; GCAnsCsGateCurState
; Function compile flags: /Ogtp
;	COMDAT ?SendCsGateStateViewPort@CCastleSiege@@QAEXHE@Z
_TEXT	SEGMENT
tv139 = 8						; size = 4
_iGateIndex$ = 8					; size = 4
_btOperate$ = 12					; size = 1
?SendCsGateStateViewPort@CCastleSiege@@QAEXHE@Z PROC	; CCastleSiege::SendCsGateStateViewPort, COMDAT
; _this$ = ecx

; 3574 : {

  00000	55		 push	 ebp
  00001	8b ec		 mov	 ebp, esp
  00003	53		 push	 ebx

; 3575 : 	if ( gObjIsConnected(iGateIndex) == FALSE )

  00004	8b 5d 08	 mov	 ebx, DWORD PTR _iGateIndex$[ebp]
  00007	53		 push	 ebx
  00008	e8 00 00 00 00	 call	 ?gObjIsConnected@@YAHH@Z ; gObjIsConnected
  0000d	83 c4 04	 add	 esp, 4
  00010	85 c0		 test	 eax, eax
  00012	74 73		 je	 SHORT $LN3@SendCsGate

; 3576 : 	{
; 3577 : 		return;
; 3578 : 	}
; 3579 : 
; 3580 : 	LPOBJ lpObj = &gObj[iGateIndex];

  00014	8b c3		 mov	 eax, ebx
  00016	69 c0 50 2b 00
	00		 imul	 eax, 11088		; 00002b50H
  0001c	03 05 00 00 00
	00		 add	 eax, DWORD PTR ?gObj@@3PAUOBJECTSTRUCT@@A ; gObj

; 3581 : 
; 3582 : 	if ( lpObj->VPCount2 < 1 )

  00022	b9 01 00 00 00	 mov	 ecx, 1
  00027	39 88 34 0c 00
	00		 cmp	 DWORD PTR [eax+3124], ecx
  0002d	7c 58		 jl	 SHORT $LN3@SendCsGate

; 3583 : 	{
; 3584 : 		return;
; 3585 : 	}
; 3586 : 
; 3587 : 	int tObjNum = -1;
; 3588 : 
; 3589 : 	for( int i = 0; i < MAX_VIEWPORT; i++ )

  0002f	56		 push	 esi
  00030	57		 push	 edi
  00031	8d b8 ae 08 00
	00		 lea	 edi, DWORD PTR [eax+2222]
  00037	c7 45 08 4b 00
	00 00		 mov	 DWORD PTR tv139[ebp], 75 ; 0000004bH
  0003e	8b ff		 npad	 2
$LL13@SendCsGate:

; 3590 : 	{
; 3591 : 		tObjNum = lpObj->VpPlayer2[i].number;

  00040	0f bf 37	 movsx	 esi, WORD PTR [edi]

; 3592 : 
; 3593 : 		if ( tObjNum >= 0 )

  00043	85 f6		 test	 esi, esi
  00045	78 31		 js	 SHORT $LN4@SendCsGate

; 3594 : 		{
; 3595 : 			if ( gObj[tObjNum].Type == OBJ_USER && gObjIsConnected(tObjNum) )

  00047	8b 15 00 00 00
	00		 mov	 edx, DWORD PTR ?gObj@@3PAUOBJECTSTRUCT@@A ; gObj
  0004d	8b c6		 mov	 eax, esi
  0004f	69 c0 50 2b 00
	00		 imul	 eax, 11088		; 00002b50H
  00055	66 39 4c 10 68	 cmp	 WORD PTR [eax+edx+104], cx
  0005a	75 1c		 jne	 SHORT $LN4@SendCsGate
  0005c	56		 push	 esi
  0005d	e8 00 00 00 00	 call	 ?gObjIsConnected@@YAHH@Z ; gObjIsConnected
  00062	83 c4 04	 add	 esp, 4
  00065	85 c0		 test	 eax, eax
  00067	74 0f		 je	 SHORT $LN4@SendCsGate

; 3596 : 			{
; 3597 : 				GCAnsCsGateCurState(tObjNum, iGateIndex, btOperate);

  00069	0f b6 45 0c	 movzx	 eax, BYTE PTR _btOperate$[ebp]
  0006d	50		 push	 eax
  0006e	53		 push	 ebx
  0006f	56		 push	 esi
  00070	e8 00 00 00 00	 call	 ?GCAnsCsGateCurState@@YAXHHH@Z ; GCAnsCsGateCurState
  00075	83 c4 0c	 add	 esp, 12			; 0000000cH
$LN4@SendCsGate:

; 3583 : 	{
; 3584 : 		return;
; 3585 : 	}
; 3586 : 
; 3587 : 	int tObjNum = -1;
; 3588 : 
; 3589 : 	for( int i = 0; i < MAX_VIEWPORT; i++ )

  00078	b9 01 00 00 00	 mov	 ecx, 1
  0007d	83 c7 0c	 add	 edi, 12			; 0000000cH
  00080	29 4d 08	 sub	 DWORD PTR tv139[ebp], ecx
  00083	75 bb		 jne	 SHORT $LL13@SendCsGate
  00085	5f		 pop	 edi
  00086	5e		 pop	 esi
$LN3@SendCsGate:
  00087	5b		 pop	 ebx

; 3598 : 			}
; 3599 : 		}
; 3600 : 	}
; 3601 : }

  00088	5d		 pop	 ebp
  00089	c2 08 00	 ret	 8
?SendCsGateStateViewPort@CCastleSiege@@QAEXHE@Z ENDP	; CCastleSiege::SendCsGateStateViewPort
_TEXT	ENDS
PUBLIC	__real@461c4000
PUBLIC	?CreateCsGateLever@CCastleSiege@@QAEHHH@Z	; CCastleSiege::CreateCsGateLever
EXTRN	?gObjSetMonster@@YAHHH@Z:PROC			; gObjSetMonster
EXTRN	?gObjAddMonster@@YAFH@Z:PROC			; gObjAddMonster
;	COMDAT __real@461c4000
CONST	SEGMENT
__real@461c4000 DD 0461c4000r			; 10000
; Function compile flags: /Ogtp
CONST	ENDS
;	COMDAT ?CreateCsGateLever@CCastleSiege@@QAEHHH@Z
_TEXT	SEGMENT
_iX$ = 8						; size = 4
_iY$ = 12						; size = 4
?CreateCsGateLever@CCastleSiege@@QAEHHH@Z PROC		; CCastleSiege::CreateCsGateLever, COMDAT
; _this$ = ecx

; 3639 : {

  00000	55		 push	 ebp
  00001	8b ec		 mov	 ebp, esp
  00003	53		 push	 ebx

; 3640 : 	if (XY_MACRO(iX) == FALSE || XY_MACRO(iY) == FALSE)

  00004	8b 5d 08	 mov	 ebx, DWORD PTR _iX$[ebp]
  00007	57		 push	 edi
  00008	85 db		 test	 ebx, ebx
  0000a	0f 88 99 01 00
	00		 js	 $LN2@CreateCsGa
  00010	33 c0		 xor	 eax, eax
  00012	81 fb ff 00 00
	00		 cmp	 ebx, 255		; 000000ffH
  00018	0f 9e c0	 setle	 al
  0001b	85 c0		 test	 eax, eax
  0001d	0f 84 86 01 00
	00		 je	 $LN2@CreateCsGa
  00023	8b 7d 0c	 mov	 edi, DWORD PTR _iY$[ebp]
  00026	85 ff		 test	 edi, edi
  00028	0f 88 7b 01 00
	00		 js	 $LN2@CreateCsGa
  0002e	33 c0		 xor	 eax, eax
  00030	81 ff ff 00 00
	00		 cmp	 edi, 255		; 000000ffH
  00036	0f 9e c0	 setle	 al
  00039	85 c0		 test	 eax, eax
  0003b	0f 84 68 01 00
	00		 je	 $LN2@CreateCsGa

; 3643 : 	}
; 3644 : 
; 3645 : 	int iNPC_INDEX = gObjAddMonster(MAP_INDEX_CASTLESIEGE);

  00041	56		 push	 esi
  00042	6a 1e		 push	 30			; 0000001eH
  00044	e8 00 00 00 00	 call	 ?gObjAddMonster@@YAFH@Z	; gObjAddMonster
  00049	0f bf f0	 movsx	 esi, ax
  0004c	83 c4 04	 add	 esp, 4

; 3646 : 
; 3647 : 	if (iNPC_INDEX >= 0)

  0004f	85 f6		 test	 esi, esi
  00051	0f 88 48 01 00
	00		 js	 $LN1@CreateCsGa

; 3648 : 	{
; 3649 : 		gObjSetMonster(iNPC_INDEX, 219);

  00057	68 db 00 00 00	 push	 219			; 000000dbH
  0005c	56		 push	 esi
  0005d	e8 00 00 00 00	 call	 ?gObjSetMonster@@YAHHH@Z ; gObjSetMonster

; 3650 : 
; 3651 : 		gObj[iNPC_INDEX].m_PosNum = -1;
; 3652 : 		gObj[iNPC_INDEX].X = iX;
; 3653 : 		gObj[iNPC_INDEX].Y = iY;
; 3654 : 		gObj[iNPC_INDEX].MapNumber = MAP_INDEX_CASTLESIEGE;
; 3655 : 		gObj[iNPC_INDEX].TX = gObj[iNPC_INDEX].X;
; 3656 : 		gObj[iNPC_INDEX].TY = gObj[iNPC_INDEX].Y;
; 3657 : 		gObj[iNPC_INDEX].m_OldX = gObj[iNPC_INDEX].X;
; 3658 : 		gObj[iNPC_INDEX].m_OldY = gObj[iNPC_INDEX].Y;
; 3659 : 		gObj[iNPC_INDEX].Dir = 1;
; 3660 : 		gObj[iNPC_INDEX].StartX = gObj[iNPC_INDEX].X;
; 3661 : 		gObj[iNPC_INDEX].StartY = gObj[iNPC_INDEX].Y;
; 3662 : 		gObj[iNPC_INDEX].DieRegen = 0;
; 3663 : 		gObj[iNPC_INDEX].MaxRegenTime = 0;
; 3664 : 		gObj[iNPC_INDEX].Life = 10000.0f;

  00062	d9 05 00 00 00
	00		 fld	 DWORD PTR __real@461c4000
  00068	8b 15 00 00 00
	00		 mov	 edx, DWORD PTR ?gObj@@3PAUOBJECTSTRUCT@@A ; gObj
  0006e	8b c6		 mov	 eax, esi
  00070	69 c0 50 2b 00
	00		 imul	 eax, 11088		; 00002b50H
  00076	83 c4 08	 add	 esp, 8
  00079	83 c9 ff	 or	 ecx, -1
  0007c	66 89 8c 10 b0
	03 00 00	 mov	 WORD PTR [eax+edx+944], cx
  00084	8b 0d 00 00 00
	00		 mov	 ecx, DWORD PTR ?gObj@@3PAUOBJECTSTRUCT@@A ; gObj
  0008a	66 89 9c 08 44
	01 00 00	 mov	 WORD PTR [eax+ecx+324], bx
  00092	8b 15 00 00 00
	00		 mov	 edx, DWORD PTR ?gObj@@3PAUOBJECTSTRUCT@@A ; gObj
  00098	66 89 bc 10 46
	01 00 00	 mov	 WORD PTR [eax+edx+326], di
  000a0	8b 0d 00 00 00
	00		 mov	 ecx, DWORD PTR ?gObj@@3PAUOBJECTSTRUCT@@A ; gObj
  000a6	c6 84 08 49 01
	00 00 1e	 mov	 BYTE PTR [eax+ecx+329], 30 ; 0000001eH
  000ae	8b 0d 00 00 00
	00		 mov	 ecx, DWORD PTR ?gObj@@3PAUOBJECTSTRUCT@@A ; gObj
  000b4	0f b7 94 08 44
	01 00 00	 movzx	 edx, WORD PTR [eax+ecx+324]
  000bc	66 89 94 08 7c
	01 00 00	 mov	 WORD PTR [eax+ecx+380], dx
  000c4	8b 0d 00 00 00
	00		 mov	 ecx, DWORD PTR ?gObj@@3PAUOBJECTSTRUCT@@A ; gObj
  000ca	0f b7 94 08 46
	01 00 00	 movzx	 edx, WORD PTR [eax+ecx+326]
  000d2	66 89 94 08 7e
	01 00 00	 mov	 WORD PTR [eax+ecx+382], dx
  000da	8b 0d 00 00 00
	00		 mov	 ecx, DWORD PTR ?gObj@@3PAUOBJECTSTRUCT@@A ; gObj
  000e0	0f b7 94 08 44
	01 00 00	 movzx	 edx, WORD PTR [eax+ecx+324]
  000e8	66 89 94 08 78
	01 00 00	 mov	 WORD PTR [eax+ecx+376], dx
  000f0	8b 0d 00 00 00
	00		 mov	 ecx, DWORD PTR ?gObj@@3PAUOBJECTSTRUCT@@A ; gObj
  000f6	0f b7 94 08 46
	01 00 00	 movzx	 edx, WORD PTR [eax+ecx+326]
  000fe	66 89 94 08 7a
	01 00 00	 mov	 WORD PTR [eax+ecx+378], dx
  00106	8b 0d 00 00 00
	00		 mov	 ecx, DWORD PTR ?gObj@@3PAUOBJECTSTRUCT@@A ; gObj
  0010c	c6 84 08 48 01
	00 00 01	 mov	 BYTE PTR [eax+ecx+328], 1
  00114	8b 0d 00 00 00
	00		 mov	 ecx, DWORD PTR ?gObj@@3PAUOBJECTSTRUCT@@A ; gObj
  0011a	0f b6 94 08 44
	01 00 00	 movzx	 edx, BYTE PTR [eax+ecx+324]
  00122	88 94 08 76 01
	00 00		 mov	 BYTE PTR [eax+ecx+374], dl
  00129	8b 0d 00 00 00
	00		 mov	 ecx, DWORD PTR ?gObj@@3PAUOBJECTSTRUCT@@A ; gObj
  0012f	0f b6 94 08 46
	01 00 00	 movzx	 edx, BYTE PTR [eax+ecx+326]
  00137	88 94 08 77 01
	00 00		 mov	 BYTE PTR [eax+ecx+375], dl
  0013e	8b 0d 00 00 00
	00		 mov	 ecx, DWORD PTR ?gObj@@3PAUOBJECTSTRUCT@@A ; gObj
  00144	c6 84 08 a2 03
	00 00 00	 mov	 BYTE PTR [eax+ecx+930], 0
  0014c	8b 15 00 00 00
	00		 mov	 edx, DWORD PTR ?gObj@@3PAUOBJECTSTRUCT@@A ; gObj
  00152	c7 84 10 ac 03
	00 00 00 00 00
	00		 mov	 DWORD PTR [eax+edx+940], 0
  0015d	8b 0d 00 00 00
	00		 mov	 ecx, DWORD PTR ?gObj@@3PAUOBJECTSTRUCT@@A ; gObj
  00163	d9 94 08 fc 00
	00 00		 fst	 DWORD PTR [eax+ecx+252]

; 3665 : 		gObj[iNPC_INDEX].MaxLife = 10000.0f;

  0016a	8b 15 00 00 00
	00		 mov	 edx, DWORD PTR ?gObj@@3PAUOBJECTSTRUCT@@A ; gObj
  00170	d9 9c 10 00 01
	00 00		 fstp	 DWORD PTR [eax+edx+256]

; 3666 : 		gObj[iNPC_INDEX].m_btCsNpcType = 2;

  00177	8b 0d 00 00 00
	00		 mov	 ecx, DWORD PTR ?gObj@@3PAUOBJECTSTRUCT@@A ; gObj
  0017d	c6 84 08 f8 1b
	00 00 02	 mov	 BYTE PTR [eax+ecx+7160], 2

; 3667 : 		gObj[iNPC_INDEX].m_iCsGateLeverLinkIndex = -1;

  00185	8b 15 00 00 00
	00		 mov	 edx, DWORD PTR ?gObj@@3PAUOBJECTSTRUCT@@A ; gObj
  0018b	c7 84 10 fc 1b
	00 00 ff ff ff
	ff		 mov	 DWORD PTR [eax+edx+7164], -1

; 3668 : 	
; 3669 : 		return iNPC_INDEX;

  00196	8b c6		 mov	 eax, esi
  00198	5e		 pop	 esi
  00199	5f		 pop	 edi
  0019a	5b		 pop	 ebx

; 3673 : }

  0019b	5d		 pop	 ebp
  0019c	c2 08 00	 ret	 8
$LN1@CreateCsGa:
  0019f	5e		 pop	 esi
  001a0	5f		 pop	 edi

; 3670 : 	}	
; 3671 : 
; 3672 : 	return -1;

  001a1	83 c8 ff	 or	 eax, -1
  001a4	5b		 pop	 ebx

; 3673 : }

  001a5	5d		 pop	 ebp
  001a6	c2 08 00	 ret	 8
$LN2@CreateCsGa:
  001a9	5f		 pop	 edi

; 3641 : 	{
; 3642 : 		return -1;

  001aa	83 c8 ff	 or	 eax, -1
  001ad	5b		 pop	 ebx

; 3673 : }

  001ae	5d		 pop	 ebp
  001af	c2 08 00	 ret	 8
?CreateCsGateLever@CCastleSiege@@QAEHHH@Z ENDP		; CCastleSiege::CreateCsGateLever
_TEXT	ENDS
PUBLIC	?LinkCsGateLever@CCastleSiege@@QAEHHH@Z		; CCastleSiege::LinkCsGateLever
; Function compile flags: /Ogtp
;	COMDAT ?LinkCsGateLever@CCastleSiege@@QAEHHH@Z
_TEXT	SEGMENT
_iLeverIndex$ = 8					; size = 4
_iGateIndex$ = 12					; size = 4
?LinkCsGateLever@CCastleSiege@@QAEHHH@Z PROC		; CCastleSiege::LinkCsGateLever, COMDAT
; _this$ = ecx

; 3676 : {

  00000	55		 push	 ebp
  00001	8b ec		 mov	 ebp, esp
  00003	53		 push	 ebx

; 3677 : 	if (!gObjIsConnected(iLeverIndex) || gObj[iLeverIndex].Class != 219)

  00004	8b 5d 08	 mov	 ebx, DWORD PTR _iLeverIndex$[ebp]
  00007	56		 push	 esi
  00008	53		 push	 ebx
  00009	e8 00 00 00 00	 call	 ?gObjIsConnected@@YAHH@Z ; gObjIsConnected
  0000e	83 c4 04	 add	 esp, 4
  00011	85 c0		 test	 eax, eax
  00013	74 74		 je	 SHORT $LN3@LinkCsGate
  00015	8b 0d 00 00 00
	00		 mov	 ecx, DWORD PTR ?gObj@@3PAUOBJECTSTRUCT@@A ; gObj
  0001b	8b f3		 mov	 esi, ebx
  0001d	69 f6 50 2b 00
	00		 imul	 esi, 11088		; 00002b50H
  00023	b8 db 00 00 00	 mov	 eax, 219		; 000000dbH
  00028	66 39 84 0e b8
	00 00 00	 cmp	 WORD PTR [esi+ecx+184], ax
  00030	75 57		 jne	 SHORT $LN3@LinkCsGate

; 3680 : 	}
; 3681 : 
; 3682 : 	if (!gObjIsConnected(iGateIndex) || gObj[iGateIndex].Class != 277)

  00032	57		 push	 edi
  00033	8b 7d 0c	 mov	 edi, DWORD PTR _iGateIndex$[ebp]
  00036	57		 push	 edi
  00037	e8 00 00 00 00	 call	 ?gObjIsConnected@@YAHH@Z ; gObjIsConnected
  0003c	83 c4 04	 add	 esp, 4
  0003f	85 c0		 test	 eax, eax
  00041	74 3d		 je	 SHORT $LN1@LinkCsGate
  00043	8b 0d 00 00 00
	00		 mov	 ecx, DWORD PTR ?gObj@@3PAUOBJECTSTRUCT@@A ; gObj
  00049	8b c7		 mov	 eax, edi
  0004b	69 c0 50 2b 00
	00		 imul	 eax, 11088		; 00002b50H
  00051	ba 15 01 00 00	 mov	 edx, 277		; 00000115H
  00056	66 39 94 08 b8
	00 00 00	 cmp	 WORD PTR [eax+ecx+184], dx
  0005e	75 20		 jne	 SHORT $LN1@LinkCsGate

; 3685 : 	}
; 3686 : 
; 3687 : 	gObj[iLeverIndex].m_iCsGateLeverLinkIndex = iGateIndex;

  00060	89 bc 0e fc 1b
	00 00		 mov	 DWORD PTR [esi+ecx+7164], edi

; 3688 : 	gObj[iGateIndex].m_iCsGateLeverLinkIndex = iLeverIndex;

  00067	8b 0d 00 00 00
	00		 mov	 ecx, DWORD PTR ?gObj@@3PAUOBJECTSTRUCT@@A ; gObj
  0006d	5f		 pop	 edi
  0006e	89 9c 08 fc 1b
	00 00		 mov	 DWORD PTR [eax+ecx+7164], ebx
  00075	5e		 pop	 esi

; 3689 : 	return true;

  00076	b8 01 00 00 00	 mov	 eax, 1
  0007b	5b		 pop	 ebx

; 3690 : }

  0007c	5d		 pop	 ebp
  0007d	c2 08 00	 ret	 8
$LN1@LinkCsGate:
  00080	5f		 pop	 edi
  00081	5e		 pop	 esi

; 3683 : 	{
; 3684 : 		return false;

  00082	33 c0		 xor	 eax, eax
  00084	5b		 pop	 ebx

; 3690 : }

  00085	5d		 pop	 ebp
  00086	c2 08 00	 ret	 8
$LN3@LinkCsGate:
  00089	5e		 pop	 esi

; 3678 : 	{
; 3679 : 		return false;

  0008a	33 c0		 xor	 eax, eax
  0008c	5b		 pop	 ebx

; 3690 : }

  0008d	5d		 pop	 ebp
  0008e	c2 08 00	 ret	 8
?LinkCsGateLever@CCastleSiege@@QAEHHH@Z ENDP		; CCastleSiege::LinkCsGateLever
_TEXT	ENDS
PUBLIC	?CheckLeverAlive@CCastleSiege@@QAEHH@Z		; CCastleSiege::CheckLeverAlive
; Function compile flags: /Ogtp
;	COMDAT ?CheckLeverAlive@CCastleSiege@@QAEHH@Z
_TEXT	SEGMENT
_iLeverIndex$ = 8					; size = 4
?CheckLeverAlive@CCastleSiege@@QAEHH@Z PROC		; CCastleSiege::CheckLeverAlive, COMDAT
; _this$ = ecx

; 3693 : {

  00000	55		 push	 ebp
  00001	8b ec		 mov	 ebp, esp
  00003	56		 push	 esi

; 3694 : 	if (gObjIsConnected(iLeverIndex) == FALSE || gObj[iLeverIndex].Class != 219 )

  00004	8b 75 08	 mov	 esi, DWORD PTR _iLeverIndex$[ebp]
  00007	56		 push	 esi
  00008	e8 00 00 00 00	 call	 ?gObjIsConnected@@YAHH@Z ; gObjIsConnected
  0000d	83 c4 04	 add	 esp, 4
  00010	85 c0		 test	 eax, eax
  00012	74 25		 je	 SHORT $LN1@CheckLever
  00014	8b 0d 00 00 00
	00		 mov	 ecx, DWORD PTR ?gObj@@3PAUOBJECTSTRUCT@@A ; gObj
  0001a	69 f6 50 2b 00
	00		 imul	 esi, 11088		; 00002b50H
  00020	b8 db 00 00 00	 mov	 eax, 219		; 000000dbH
  00025	66 39 84 0e b8
	00 00 00	 cmp	 WORD PTR [esi+ecx+184], ax
  0002d	75 0a		 jne	 SHORT $LN1@CheckLever

; 3697 : 	}
; 3698 : 
; 3699 : 	return true;

  0002f	b8 01 00 00 00	 mov	 eax, 1
  00034	5e		 pop	 esi

; 3700 : }

  00035	5d		 pop	 ebp
  00036	c2 04 00	 ret	 4
$LN1@CheckLever:

; 3695 : 	{
; 3696 : 		return false;

  00039	33 c0		 xor	 eax, eax
  0003b	5e		 pop	 esi

; 3700 : }

  0003c	5d		 pop	 ebp
  0003d	c2 04 00	 ret	 4
?CheckLeverAlive@CCastleSiege@@QAEHH@Z ENDP		; CCastleSiege::CheckLeverAlive
_TEXT	ENDS
PUBLIC	?CheckCsGateAlive@CCastleSiege@@QAEHH@Z		; CCastleSiege::CheckCsGateAlive
; Function compile flags: /Ogtp
;	COMDAT ?CheckCsGateAlive@CCastleSiege@@QAEHH@Z
_TEXT	SEGMENT
_iGateIndex$ = 8					; size = 4
?CheckCsGateAlive@CCastleSiege@@QAEHH@Z PROC		; CCastleSiege::CheckCsGateAlive, COMDAT
; _this$ = ecx

; 3751 : {

  00000	55		 push	 ebp
  00001	8b ec		 mov	 ebp, esp
  00003	56		 push	 esi

; 3752 : 	if ( !gObjIsConnected(iGateIndex) || gObj[iGateIndex].Class != 277 ) 

  00004	8b 75 08	 mov	 esi, DWORD PTR _iGateIndex$[ebp]
  00007	56		 push	 esi
  00008	e8 00 00 00 00	 call	 ?gObjIsConnected@@YAHH@Z ; gObjIsConnected
  0000d	83 c4 04	 add	 esp, 4
  00010	85 c0		 test	 eax, eax
  00012	74 25		 je	 SHORT $LN1@CheckCsGat
  00014	8b 0d 00 00 00
	00		 mov	 ecx, DWORD PTR ?gObj@@3PAUOBJECTSTRUCT@@A ; gObj
  0001a	69 f6 50 2b 00
	00		 imul	 esi, 11088		; 00002b50H
  00020	b8 15 01 00 00	 mov	 eax, 277		; 00000115H
  00025	66 39 84 0e b8
	00 00 00	 cmp	 WORD PTR [esi+ecx+184], ax
  0002d	75 0a		 jne	 SHORT $LN1@CheckCsGat

; 3755 : 	}
; 3756 : 
; 3757 : 	return TRUE;

  0002f	b8 01 00 00 00	 mov	 eax, 1
  00034	5e		 pop	 esi

; 3758 : }

  00035	5d		 pop	 ebp
  00036	c2 04 00	 ret	 4
$LN1@CheckCsGat:

; 3753 : 	{
; 3754 : 		return FALSE;

  00039	33 c0		 xor	 eax, eax
  0003b	5e		 pop	 esi

; 3758 : }

  0003c	5d		 pop	 ebp
  0003d	c2 04 00	 ret	 4
?CheckCsGateAlive@CCastleSiege@@QAEHH@Z ENDP		; CCastleSiege::CheckCsGateAlive
_TEXT	ENDS
PUBLIC	??_C@_0EF@HPOOMKEE@?$FLCastleSiege?$FN?5?$FL?$CFs?$FN?$FL?$CFs?$FN?5Deleting?5@ ; `string'
PUBLIC	?DelGemOfDefend@CCastleSiege@@QAEHHH@Z		; CCastleSiege::DelGemOfDefend
EXTRN	?GCInventoryItemDeleteSend@@YAXHEE@Z:PROC	; GCInventoryItemDeleteSend
EXTRN	?gObjInventoryDeleteItem@@YAEHH@Z:PROC		; gObjInventoryDeleteItem
EXTRN	?gObjInventoryItemSet@@YAXHHE@Z:PROC		; gObjInventoryItemSet
EXTRN	?IsItem@CItem@@QAEHXZ:PROC			; CItem::IsItem
;	COMDAT ??_C@_0EF@HPOOMKEE@?$FLCastleSiege?$FN?5?$FL?$CFs?$FN?$FL?$CFs?$FN?5Deleting?5@
CONST	SEGMENT
??_C@_0EF@HPOOMKEE@?$FLCastleSiege?$FN?5?$FL?$CFs?$FN?$FL?$CFs?$FN?5Deleting?5@ DB '['
	DB	'CastleSiege] [%s][%s] Deleting Gem of Defend (GUILD:%s) - Ser'
	DB	'ial:%u', 00H				; `string'
; Function compile flags: /Ogtp
CONST	ENDS
;	COMDAT ?DelGemOfDefend@CCastleSiege@@QAEHHH@Z
_TEXT	SEGMENT
_iGemOfDefendDeletCount$ = -4				; size = 4
tv264 = 8						; size = 4
_iGemOfDefendCount$ = 8					; size = 4
_iIndex$ = 8						; size = 4
_iNeedGemOfDefend$ = 12					; size = 4
?DelGemOfDefend@CCastleSiege@@QAEHHH@Z PROC		; CCastleSiege::DelGemOfDefend, COMDAT
; _this$ = ecx

; 3761 : {

  00000	55		 push	 ebp
  00001	8b ec		 mov	 ebp, esp
  00003	51		 push	 ecx
  00004	53		 push	 ebx

; 3762 : 	if ( gObjIsConnected(iIndex) == FALSE )

  00005	8b 5d 08	 mov	 ebx, DWORD PTR _iIndex$[ebp]
  00008	53		 push	 ebx
  00009	e8 00 00 00 00	 call	 ?gObjIsConnected@@YAHH@Z ; gObjIsConnected
  0000e	83 c4 04	 add	 esp, 4
  00011	85 c0		 test	 eax, eax
  00013	75 07		 jne	 SHORT $LN14@DelGemOfDe
  00015	5b		 pop	 ebx

; 3815 : }

  00016	8b e5		 mov	 esp, ebp
  00018	5d		 pop	 ebp
  00019	c2 08 00	 ret	 8
$LN14@DelGemOfDe:
  0001c	57		 push	 edi

; 3763 : 	{
; 3764 : 		return FALSE;
; 3765 : 	}
; 3766 : 
; 3767 : 	if ( iNeedGemOfDefend <= 0 )

  0001d	33 ff		 xor	 edi, edi
  0001f	39 7d 0c	 cmp	 DWORD PTR _iNeedGemOfDefend$[ebp], edi
  00022	7f 0a		 jg	 SHORT $LN13@DelGemOfDe

; 3768 : 	{
; 3769 : 		return FALSE;

  00024	5f		 pop	 edi
  00025	33 c0		 xor	 eax, eax
  00027	5b		 pop	 ebx

; 3815 : }

  00028	8b e5		 mov	 esp, ebp
  0002a	5d		 pop	 ebp
  0002b	c2 08 00	 ret	 8
$LN13@DelGemOfDe:

; 3770 : 	}
; 3771 : 
; 3772 : 	int iGemOfDefendCount = 0;

  0002e	a1 00 00 00 00	 mov	 eax, DWORD PTR ?gObj@@3PAUOBJECTSTRUCT@@A ; gObj
  00033	56		 push	 esi
  00034	8b f3		 mov	 esi, ebx
  00036	89 7d 08	 mov	 DWORD PTR _iGemOfDefendCount$[ebp], edi
  00039	69 f6 50 2b 00
	00		 imul	 esi, 11088		; 00002b50H
  0003f	90		 npad	 1
$LL12@DelGemOfDe:

; 3775 : 	{
; 3776 : 		if ( gObj[iIndex].pInventory[x].IsItem() == TRUE )

  00040	8b 8c 06 24 0e
	00 00		 mov	 ecx, DWORD PTR [esi+eax+3620]
  00047	03 cf		 add	 ecx, edi
  00049	e8 00 00 00 00	 call	 ?IsItem@CItem@@QAEHXZ	; CItem::IsItem
  0004e	83 f8 01	 cmp	 eax, 1
  00051	a1 00 00 00 00	 mov	 eax, DWORD PTR ?gObj@@3PAUOBJECTSTRUCT@@A ; gObj
  00056	75 16		 jne	 SHORT $LN11@DelGemOfDe

; 3777 : 		{
; 3778 : 			if ( gObj[iIndex].pInventory[x].m_Type == ITEMGET(14,31) )

  00058	8b 8c 06 24 0e
	00 00		 mov	 ecx, DWORD PTR [esi+eax+3620]
  0005f	ba 1f 1c 00 00	 mov	 edx, 7199		; 00001c1fH
  00064	66 39 54 39 06	 cmp	 WORD PTR [ecx+edi+6], dx
  00069	75 03		 jne	 SHORT $LN11@DelGemOfDe

; 3779 : 			{
; 3780 : 				iGemOfDefendCount++;

  0006b	ff 45 08	 inc	 DWORD PTR _iGemOfDefendCount$[ebp]
$LN11@DelGemOfDe:

; 3773 : 
; 3774 : 	for( int x = 0; x < INVENTORY_SIZE; x++ )

  0006e	81 c7 d4 00 00
	00		 add	 edi, 212		; 000000d4H
  00074	81 ff 70 c3 00
	00		 cmp	 edi, 50032		; 0000c370H
  0007a	7c c4		 jl	 SHORT $LL12@DelGemOfDe

; 3781 : 			}
; 3782 : 		}
; 3783 : 	}
; 3784 : 
; 3785 : 	if ( iGemOfDefendCount < iNeedGemOfDefend )

  0007c	8b 4d 0c	 mov	 ecx, DWORD PTR _iNeedGemOfDefend$[ebp]
  0007f	39 4d 08	 cmp	 DWORD PTR _iGemOfDefendCount$[ebp], ecx
  00082	7d 0b		 jge	 SHORT $LN7@DelGemOfDe

; 3786 : 	{
; 3787 : 		return FALSE;

  00084	5e		 pop	 esi
  00085	5f		 pop	 edi
  00086	33 c0		 xor	 eax, eax
  00088	5b		 pop	 ebx

; 3815 : }

  00089	8b e5		 mov	 esp, ebp
  0008b	5d		 pop	 ebp
  0008c	c2 08 00	 ret	 8
$LN7@DelGemOfDe:

; 3788 : 	}
; 3789 : 
; 3790 : 	int iGemOfDefendDeletCount = 0;

  0008f	33 ff		 xor	 edi, edi
  00091	89 7d fc	 mov	 DWORD PTR _iGemOfDefendDeletCount$[ebp], edi
  00094	89 7d 08	 mov	 DWORD PTR tv264[ebp], edi
  00097	eb 07 8d a4 24
	00 00 00 00	 npad	 9
$LL24@DelGemOfDe:

; 3793 : 	{
; 3794 : 		if ( gObj[iIndex].pInventory[x].IsItem() == TRUE )

  000a0	8b 8c 06 24 0e
	00 00		 mov	 ecx, DWORD PTR [esi+eax+3620]
  000a7	03 4d 08	 add	 ecx, DWORD PTR tv264[ebp]
  000aa	e8 00 00 00 00	 call	 ?IsItem@CItem@@QAEHXZ	; CItem::IsItem
  000af	83 f8 01	 cmp	 eax, 1
  000b2	75 65		 jne	 SHORT $LN25@DelGemOfDe

; 3795 : 		{
; 3796 : 			if ( gObj[iIndex].pInventory[x].m_Type == ITEMGET(14,31) )

  000b4	a1 00 00 00 00	 mov	 eax, DWORD PTR ?gObj@@3PAUOBJECTSTRUCT@@A ; gObj
  000b9	8b 4d 08	 mov	 ecx, DWORD PTR tv264[ebp]
  000bc	03 8c 06 24 0e
	00 00		 add	 ecx, DWORD PTR [esi+eax+3620]
  000c3	ba 1f 1c 00 00	 mov	 edx, 7199		; 00001c1fH
  000c8	66 39 51 06	 cmp	 WORD PTR [ecx+6], dx
  000cc	75 50		 jne	 SHORT $LN5@DelGemOfDe

; 3797 : 			{
; 3798 : 				LogAddTD("[CastleSiege] [%s][%s] Deleting Gem of Defend (GUILD:%s) - Serial:%u", gObj[iIndex].AccountID, gObj[iIndex].Name, gObj[iIndex].GuildName, gObj[iIndex].pInventory[x].m_Number);

  000ce	8b 09		 mov	 ecx, DWORD PTR [ecx]
  000d0	51		 push	 ecx
  000d1	8d 94 06 3c 04
	00 00		 lea	 edx, DWORD PTR [esi+eax+1084]
  000d8	52		 push	 edx
  000d9	8d 4c 06 77	 lea	 ecx, DWORD PTR [esi+eax+119]
  000dd	51		 push	 ecx
  000de	8d 54 06 6c	 lea	 edx, DWORD PTR [esi+eax+108]
  000e2	52		 push	 edx
  000e3	68 00 00 00 00	 push	 OFFSET ??_C@_0EF@HPOOMKEE@?$FLCastleSiege?$FN?5?$FL?$CFs?$FN?$FL?$CFs?$FN?5Deleting?5@
  000e8	ff 15 00 00 00
	00		 call	 DWORD PTR ?LogAddTD@@3P6AXPADZZA ; LogAddTD

; 3799 : 
; 3800 : 				gObjInventoryItemSet(iIndex, x, 0xff);

  000ee	68 ff 00 00 00	 push	 255			; 000000ffH
  000f3	57		 push	 edi
  000f4	53		 push	 ebx
  000f5	e8 00 00 00 00	 call	 ?gObjInventoryItemSet@@YAXHHE@Z ; gObjInventoryItemSet

; 3801 : 				gObjInventoryDeleteItem(iIndex, x);

  000fa	57		 push	 edi
  000fb	53		 push	 ebx
  000fc	e8 00 00 00 00	 call	 ?gObjInventoryDeleteItem@@YAEHH@Z ; gObjInventoryDeleteItem

; 3802 : 				GCInventoryItemDeleteSend(iIndex, x, 1);

  00101	6a 01		 push	 1
  00103	57		 push	 edi
  00104	53		 push	 ebx
  00105	e8 00 00 00 00	 call	 ?GCInventoryItemDeleteSend@@YAXHEE@Z ; GCInventoryItemDeleteSend

; 3803 : 
; 3804 : 				iGemOfDefendDeletCount++;

  0010a	8b 45 fc	 mov	 eax, DWORD PTR _iGemOfDefendDeletCount$[ebp]
  0010d	40		 inc	 eax
  0010e	83 c4 34	 add	 esp, 52			; 00000034H
  00111	89 45 fc	 mov	 DWORD PTR _iGemOfDefendDeletCount$[ebp], eax

; 3805 : 
; 3806 : 				if ( iGemOfDefendDeletCount >= iNeedGemOfDefend )

  00114	3b 45 0c	 cmp	 eax, DWORD PTR _iNeedGemOfDefend$[ebp]
  00117	7d 1e		 jge	 SHORT $LN19@DelGemOfDe
$LN25@DelGemOfDe:
  00119	a1 00 00 00 00	 mov	 eax, DWORD PTR ?gObj@@3PAUOBJECTSTRUCT@@A ; gObj
$LN5@DelGemOfDe:

; 3791 : 
; 3792 : 	for (int x = 0; x < INVENTORY_SIZE; x++ )

  0011e	8b 4d 08	 mov	 ecx, DWORD PTR tv264[ebp]
  00121	81 c1 d4 00 00
	00		 add	 ecx, 212		; 000000d4H
  00127	47		 inc	 edi
  00128	89 4d 08	 mov	 DWORD PTR tv264[ebp], ecx
  0012b	81 f9 70 c3 00
	00		 cmp	 ecx, 50032		; 0000c370H
  00131	0f 8c 69 ff ff
	ff		 jl	 $LL24@DelGemOfDe
$LN19@DelGemOfDe:
  00137	5e		 pop	 esi
  00138	5f		 pop	 edi

; 3807 : 				{
; 3808 : 					break;
; 3809 : 				}
; 3810 : 			}
; 3811 : 		}
; 3812 : 	}
; 3813 : 
; 3814 : 	return TRUE;

  00139	b8 01 00 00 00	 mov	 eax, 1
  0013e	5b		 pop	 ebx

; 3815 : }

  0013f	8b e5		 mov	 esp, ebp
  00141	5d		 pop	 ebp
  00142	c2 08 00	 ret	 8
?DelGemOfDefend@CCastleSiege@@QAEHHH@Z ENDP		; CCastleSiege::DelGemOfDefend
_TEXT	ENDS
PUBLIC	??_C@_0DB@KBMNIOHF@?$FLCastleSiege?$FN?5Tax?5Rate?5Setted?5?9?5@ ; `string'
PUBLIC	?SetTaxRate@CCastleSiege@@QAEXHH@Z		; CCastleSiege::SetTaxRate
;	COMDAT ??_C@_0DB@KBMNIOHF@?$FLCastleSiege?$FN?5Tax?5Rate?5Setted?5?9?5@
CONST	SEGMENT
??_C@_0DB@KBMNIOHF@?$FLCastleSiege?$FN?5Tax?5Rate?5Setted?5?9?5@ DB '[Cas'
	DB	'tleSiege] Tax Rate Setted - Type:%d, Rate:%d', 00H ; `string'
; Function compile flags: /Ogtp
CONST	ENDS
;	COMDAT ?SetTaxRate@CCastleSiege@@QAEXHH@Z
_TEXT	SEGMENT
_iTaxType$ = 8						; size = 4
_iTaxRate$ = 12						; size = 4
?SetTaxRate@CCastleSiege@@QAEXHH@Z PROC			; CCastleSiege::SetTaxRate, COMDAT
; _this$ = ecx

; 3818 : {

  00000	55		 push	 ebp
  00001	8b ec		 mov	 ebp, esp
  00003	56		 push	 esi
  00004	57		 push	 edi

; 3819 : 	int iMaxTaxRate = 0;
; 3820 : 	
; 3821 : 	switch( iTaxType )

  00005	8b 7d 08	 mov	 edi, DWORD PTR _iTaxType$[ebp]
  00008	8b c7		 mov	 eax, edi
  0000a	33 f6		 xor	 esi, esi
  0000c	48		 dec	 eax
  0000d	74 0d		 je	 SHORT $LN10@SetTaxRate
  0000f	48		 dec	 eax
  00010	74 0a		 je	 SHORT $LN10@SetTaxRate
  00012	48		 dec	 eax
  00013	75 0c		 jne	 SHORT $LN11@SetTaxRate

; 3825 : 		break;
; 3826 : 	case 2:
; 3827 : 		iMaxTaxRate = 3;
; 3828 : 		break;
; 3829 : 	case 3:
; 3830 : 		iMaxTaxRate = 300000;

  00015	be e0 93 04 00	 mov	 esi, 300000		; 000493e0H

; 3831 : 		break;

  0001a	eb 05		 jmp	 SHORT $LN11@SetTaxRate
$LN10@SetTaxRate:

; 3822 : 	{
; 3823 : 	case 1:
; 3824 : 		iMaxTaxRate = 3;

  0001c	be 03 00 00 00	 mov	 esi, 3
$LN11@SetTaxRate:

; 3832 : 	}
; 3833 : 
; 3834 : 	if ( iTaxRate < 0 || iTaxRate > iMaxTaxRate ) //season4.5 fix

  00021	8b 55 0c	 mov	 edx, DWORD PTR _iTaxRate$[ebp]
  00024	85 d2		 test	 edx, edx
  00026	78 35		 js	 SHORT $LN6@SetTaxRate
  00028	3b d6		 cmp	 edx, esi
  0002a	7f 31		 jg	 SHORT $LN6@SetTaxRate

; 3835 : 	{
; 3836 : 		return;
; 3837 : 	}
; 3838 : 	
; 3839 : 	switch( iTaxType )

  0002c	8b c7		 mov	 eax, edi
  0002e	48		 dec	 eax
  0002f	74 16		 je	 SHORT $LN3@SetTaxRate
  00031	48		 dec	 eax
  00032	74 0b		 je	 SHORT $LN2@SetTaxRate
  00034	48		 dec	 eax
  00035	75 16		 jne	 SHORT $LN4@SetTaxRate

; 3847 : 	case 3:
; 3848 : 		this->m_iTaxHuntZone = iTaxRate;

  00037	89 91 f8 00 00
	00		 mov	 DWORD PTR [ecx+248], edx

; 3849 : 		break;

  0003d	eb 0e		 jmp	 SHORT $LN4@SetTaxRate
$LN2@SetTaxRate:

; 3843 : 		break;
; 3844 : 	case 2:
; 3845 : 		this->m_iTaxRateStore = iTaxRate;

  0003f	89 91 f4 00 00
	00		 mov	 DWORD PTR [ecx+244], edx

; 3846 : 		break;

  00045	eb 06		 jmp	 SHORT $LN4@SetTaxRate
$LN3@SetTaxRate:

; 3840 : 	{
; 3841 : 	case 1:
; 3842 : 		this->m_iTaxRateChaos = iTaxRate;

  00047	89 91 f0 00 00
	00		 mov	 DWORD PTR [ecx+240], edx
$LN4@SetTaxRate:

; 3850 : 	}
; 3851 : 	
; 3852 : 	LogAddTD("[CastleSiege] Tax Rate Setted - Type:%d, Rate:%d", iTaxType, iTaxRate);

  0004d	52		 push	 edx
  0004e	57		 push	 edi
  0004f	68 00 00 00 00	 push	 OFFSET ??_C@_0DB@KBMNIOHF@?$FLCastleSiege?$FN?5Tax?5Rate?5Setted?5?9?5@
  00054	ff 15 00 00 00
	00		 call	 DWORD PTR ?LogAddTD@@3P6AXPADZZA ; LogAddTD
  0005a	83 c4 0c	 add	 esp, 12			; 0000000cH
$LN6@SetTaxRate:
  0005d	5f		 pop	 edi
  0005e	5e		 pop	 esi

; 3853 : }

  0005f	5d		 pop	 ebp
  00060	c2 08 00	 ret	 8
?SetTaxRate@CCastleSiege@@QAEXHH@Z ENDP			; CCastleSiege::SetTaxRate
_TEXT	ENDS
PUBLIC	?CheckCastleHasMoney@CCastleSiege@@QAEH_J@Z	; CCastleSiege::CheckCastleHasMoney
; Function compile flags: /Ogtp
;	COMDAT ?CheckCastleHasMoney@CCastleSiege@@QAEH_J@Z
_TEXT	SEGMENT
_i64CastleMoney$ = 8					; size = 8
?CheckCastleHasMoney@CCastleSiege@@QAEH_J@Z PROC	; CCastleSiege::CheckCastleHasMoney, COMDAT
; _this$ = ecx

; 3856 : {

  00000	55		 push	 ebp
  00001	8b ec		 mov	 ebp, esp

; 3857 : 	if ( this->m_i64CastleMoney >= i64CastleMoney )

  00003	8b 81 ec 00 00
	00		 mov	 eax, DWORD PTR [ecx+236]
  00009	3b 45 0c	 cmp	 eax, DWORD PTR _i64CastleMoney$[ebp+4]
  0000c	7c 16		 jl	 SHORT $LN1@CheckCastl
  0000e	7f 0b		 jg	 SHORT $LN4@CheckCastl
  00010	8b 89 e8 00 00
	00		 mov	 ecx, DWORD PTR [ecx+232]
  00016	3b 4d 08	 cmp	 ecx, DWORD PTR _i64CastleMoney$[ebp]
  00019	72 09		 jb	 SHORT $LN1@CheckCastl
$LN4@CheckCastl:

; 3858 : 	{
; 3859 : 		return TRUE;

  0001b	b8 01 00 00 00	 mov	 eax, 1

; 3863 : }

  00020	5d		 pop	 ebp
  00021	c2 08 00	 ret	 8
$LN1@CheckCastl:

; 3860 : 	}
; 3861 : 
; 3862 : 	return FALSE;

  00024	33 c0		 xor	 eax, eax

; 3863 : }

  00026	5d		 pop	 ebp
  00027	c2 08 00	 ret	 8
?CheckCastleHasMoney@CCastleSiege@@QAEH_J@Z ENDP	; CCastleSiege::CheckCastleHasMoney
_TEXT	ENDS
PUBLIC	?SetCastleMoney@CCastleSiege@@QAEX_J@Z		; CCastleSiege::SetCastleMoney
; Function compile flags: /Ogtp
;	COMDAT ?SetCastleMoney@CCastleSiege@@QAEX_J@Z
_TEXT	SEGMENT
_i64CastleMoney$ = 8					; size = 8
?SetCastleMoney@CCastleSiege@@QAEX_J@Z PROC		; CCastleSiege::SetCastleMoney, COMDAT
; _this$ = ecx

; 3866 : {

  00000	55		 push	 ebp
  00001	8b ec		 mov	 ebp, esp

; 3867 : 	this->m_i64CastleMoney = i64CastleMoney;

  00003	8b 45 08	 mov	 eax, DWORD PTR _i64CastleMoney$[ebp]
  00006	8b 55 0c	 mov	 edx, DWORD PTR _i64CastleMoney$[ebp+4]
  00009	89 81 e8 00 00
	00		 mov	 DWORD PTR [ecx+232], eax
  0000f	89 91 ec 00 00
	00		 mov	 DWORD PTR [ecx+236], edx

; 3868 : }

  00015	5d		 pop	 ebp
  00016	c2 08 00	 ret	 8
?SetCastleMoney@CCastleSiege@@QAEX_J@Z ENDP		; CCastleSiege::SetCastleMoney
_TEXT	ENDS
PUBLIC	?ResetCastleTaxInfo@CCastleSiege@@QAEXXZ	; CCastleSiege::ResetCastleTaxInfo
; Function compile flags: /Ogtp
;	COMDAT ?ResetCastleTaxInfo@CCastleSiege@@QAEXXZ
_TEXT	SEGMENT
?ResetCastleTaxInfo@CCastleSiege@@QAEXXZ PROC		; CCastleSiege::ResetCastleTaxInfo, COMDAT
; _this$ = ecx

; 3872 : 	this->m_i64CastleMoney = 0;

  00000	33 c0		 xor	 eax, eax
  00002	89 81 e8 00 00
	00		 mov	 DWORD PTR [ecx+232], eax
  00008	89 81 ec 00 00
	00		 mov	 DWORD PTR [ecx+236], eax

; 3873 : 	this->m_iTaxRateChaos = 0;

  0000e	89 81 f0 00 00
	00		 mov	 DWORD PTR [ecx+240], eax

; 3874 : 	this->m_iTaxRateStore = 0;

  00014	89 81 f4 00 00
	00		 mov	 DWORD PTR [ecx+244], eax

; 3875 : 	this->m_iTaxHuntZone = 0;

  0001a	89 81 f8 00 00
	00		 mov	 DWORD PTR [ecx+248], eax

; 3876 : }

  00020	c3		 ret	 0
?ResetCastleTaxInfo@CCastleSiege@@QAEXXZ ENDP		; CCastleSiege::ResetCastleTaxInfo
_TEXT	ENDS
PUBLIC	?SendCastleStateSync@CCastleSiege@@QAEXXZ	; CCastleSiege::SendCastleStateSync
EXTRN	?GS_GDReqCastleStateSync@@YAXHHHHHPAD@Z:PROC	; GS_GDReqCastleStateSync
; Function compile flags: /Ogtp
;	COMDAT ?SendCastleStateSync@CCastleSiege@@QAEXXZ
_TEXT	SEGMENT
?SendCastleStateSync@CCastleSiege@@QAEXXZ PROC		; CCastleSiege::SendCastleStateSync, COMDAT
; _this$ = ecx

; 3880 : 	GS_GDReqCastleStateSync(this->m_iMapSvrGroup, this->m_iCastleSiegeState, this->m_iTaxRateChaos, this->m_iTaxRateStore, this->m_iTaxHuntZone, this->m_szCastleOwnerGuild);

  00000	8b 91 f8 00 00
	00		 mov	 edx, DWORD PTR [ecx+248]
  00006	8d 81 d7 00 00
	00		 lea	 eax, DWORD PTR [ecx+215]
  0000c	50		 push	 eax
  0000d	8b 81 f4 00 00
	00		 mov	 eax, DWORD PTR [ecx+244]
  00013	52		 push	 edx
  00014	8b 91 f0 00 00
	00		 mov	 edx, DWORD PTR [ecx+240]
  0001a	50		 push	 eax
  0001b	8b 41 28	 mov	 eax, DWORD PTR [ecx+40]
  0001e	8b 49 18	 mov	 ecx, DWORD PTR [ecx+24]
  00021	52		 push	 edx
  00022	50		 push	 eax
  00023	51		 push	 ecx
  00024	e8 00 00 00 00	 call	 ?GS_GDReqCastleStateSync@@YAXHHHHHPAD@Z ; GS_GDReqCastleStateSync
  00029	83 c4 18	 add	 esp, 24			; 00000018H

; 3881 : }

  0002c	c3		 ret	 0
?SendCastleStateSync@CCastleSiege@@QAEXXZ ENDP		; CCastleSiege::SendCastleStateSync
_TEXT	ENDS
PUBLIC	??_C@_00CNPNBAHC@?$AA@				; `string'
PUBLIC	?CheckGuildOwnCastle@CCastleSiege@@QAEHPAD@Z	; CCastleSiege::CheckGuildOwnCastle
;	COMDAT ??_C@_00CNPNBAHC@?$AA@
CONST	SEGMENT
??_C@_00CNPNBAHC@?$AA@ DB 00H				; `string'
; Function compile flags: /Ogtp
CONST	ENDS
;	COMDAT ?CheckGuildOwnCastle@CCastleSiege@@QAEHPAD@Z
_TEXT	SEGMENT
_lpszGuildName$ = 8					; size = 4
?CheckGuildOwnCastle@CCastleSiege@@QAEHPAD@Z PROC	; CCastleSiege::CheckGuildOwnCastle, COMDAT
; _this$ = ecx

; 3884 : {

  00000	55		 push	 ebp
  00001	8b ec		 mov	 ebp, esp
  00003	57		 push	 edi

; 3885 : 	if ( lpszGuildName == NULL )

  00004	8b 7d 08	 mov	 edi, DWORD PTR _lpszGuildName$[ebp]
  00007	85 ff		 test	 edi, edi
  00009	75 07		 jne	 SHORT $LN3@CheckGuild

; 3886 : 	{
; 3887 : 		return FALSE;

  0000b	33 c0		 xor	 eax, eax
  0000d	5f		 pop	 edi

; 3896 : 	{
; 3897 : 		return TRUE;
; 3898 : 	}
; 3899 : 
; 3900 : 	return FALSE;
; 3901 : }

  0000e	5d		 pop	 ebp
  0000f	c2 04 00	 ret	 4
$LN3@CheckGuild:
  00012	56		 push	 esi

; 3888 : 	}
; 3889 : 
; 3890 : 	if ( strcmp(this->m_szCastleOwnerGuild, "") == 0 )

  00013	8d b1 d7 00 00
	00		 lea	 esi, DWORD PTR [ecx+215]
  00019	b9 00 00 00 00	 mov	 ecx, OFFSET ??_C@_00CNPNBAHC@?$AA@
  0001e	8b c6		 mov	 eax, esi
$LL6@CheckGuild:
  00020	8a 10		 mov	 dl, BYTE PTR [eax]
  00022	3a 11		 cmp	 dl, BYTE PTR [ecx]
  00024	75 1a		 jne	 SHORT $LN7@CheckGuild
  00026	84 d2		 test	 dl, dl
  00028	74 12		 je	 SHORT $LN8@CheckGuild
  0002a	8a 50 01	 mov	 dl, BYTE PTR [eax+1]
  0002d	3a 51 01	 cmp	 dl, BYTE PTR [ecx+1]
  00030	75 0e		 jne	 SHORT $LN7@CheckGuild
  00032	83 c0 02	 add	 eax, 2
  00035	83 c1 02	 add	 ecx, 2
  00038	84 d2		 test	 dl, dl
  0003a	75 e4		 jne	 SHORT $LL6@CheckGuild
$LN8@CheckGuild:
  0003c	33 c0		 xor	 eax, eax
  0003e	eb 05		 jmp	 SHORT $LN9@CheckGuild
$LN7@CheckGuild:
  00040	1b c0		 sbb	 eax, eax
  00042	83 d8 ff	 sbb	 eax, -1
$LN9@CheckGuild:
  00045	85 c0		 test	 eax, eax
  00047	75 06		 jne	 SHORT $LN2@CheckGuild
  00049	5e		 pop	 esi
  0004a	5f		 pop	 edi

; 3896 : 	{
; 3897 : 		return TRUE;
; 3898 : 	}
; 3899 : 
; 3900 : 	return FALSE;
; 3901 : }

  0004b	5d		 pop	 ebp
  0004c	c2 04 00	 ret	 4
$LN2@CheckGuild:

; 3891 : 	{
; 3892 : 		return FALSE;
; 3893 : 	}
; 3894 : 
; 3895 : 	if ( strcmp(this->m_szCastleOwnerGuild, lpszGuildName) == 0 )

  0004f	8b cf		 mov	 ecx, edi
  00051	8b c6		 mov	 eax, esi
$LL10@CheckGuild:
  00053	8a 10		 mov	 dl, BYTE PTR [eax]
  00055	3a 11		 cmp	 dl, BYTE PTR [ecx]
  00057	75 27		 jne	 SHORT $LN11@CheckGuild
  00059	84 d2		 test	 dl, dl
  0005b	74 12		 je	 SHORT $LN12@CheckGuild
  0005d	8a 50 01	 mov	 dl, BYTE PTR [eax+1]
  00060	3a 51 01	 cmp	 dl, BYTE PTR [ecx+1]
  00063	75 1b		 jne	 SHORT $LN11@CheckGuild
  00065	83 c0 02	 add	 eax, 2
  00068	83 c1 02	 add	 ecx, 2
  0006b	84 d2		 test	 dl, dl
  0006d	75 e4		 jne	 SHORT $LL10@CheckGuild
$LN12@CheckGuild:
  0006f	33 c0		 xor	 eax, eax
  00071	33 c9		 xor	 ecx, ecx
  00073	85 c0		 test	 eax, eax
  00075	0f 94 c1	 sete	 cl
  00078	5e		 pop	 esi
  00079	5f		 pop	 edi
  0007a	8b c1		 mov	 eax, ecx

; 3896 : 	{
; 3897 : 		return TRUE;
; 3898 : 	}
; 3899 : 
; 3900 : 	return FALSE;
; 3901 : }

  0007c	5d		 pop	 ebp
  0007d	c2 04 00	 ret	 4
$LN11@CheckGuild:

; 3891 : 	{
; 3892 : 		return FALSE;
; 3893 : 	}
; 3894 : 
; 3895 : 	if ( strcmp(this->m_szCastleOwnerGuild, lpszGuildName) == 0 )

  00080	1b c0		 sbb	 eax, eax
  00082	83 d8 ff	 sbb	 eax, -1
  00085	33 c9		 xor	 ecx, ecx
  00087	85 c0		 test	 eax, eax
  00089	0f 94 c1	 sete	 cl
  0008c	5e		 pop	 esi
  0008d	5f		 pop	 edi
  0008e	8b c1		 mov	 eax, ecx

; 3896 : 	{
; 3897 : 		return TRUE;
; 3898 : 	}
; 3899 : 
; 3900 : 	return FALSE;
; 3901 : }

  00090	5d		 pop	 ebp
  00091	c2 04 00	 ret	 4
?CheckGuildOwnCastle@CCastleSiege@@QAEHPAD@Z ENDP	; CCastleSiege::CheckGuildOwnCastle
_TEXT	ENDS
PUBLIC	?SetGateBlockState@CCastleSiege@@QAEXHHH@Z	; CCastleSiege::SetGateBlockState
EXTRN	?MapC@@3PAVMapClass@@A:BYTE			; MapC
; Function compile flags: /Ogtp
;	COMDAT ?SetGateBlockState@CCastleSiege@@QAEXHHH@Z
_TEXT	SEGMENT
tv199 = 8						; size = 4
_iX$ = 8						; size = 4
_iY$ = 12						; size = 4
_iGateState$ = 16					; size = 4
?SetGateBlockState@CCastleSiege@@QAEXHHH@Z PROC		; CCastleSiege::SetGateBlockState, COMDAT
; _this$ = ecx

; 3923 : {

  00000	55		 push	 ebp
  00001	8b ec		 mov	 ebp, esp

; 3924 : 	if (XY_MACRO(iX) == FALSE || XY_MACRO(iY) == FALSE)

  00003	8b 45 08	 mov	 eax, DWORD PTR _iX$[ebp]
  00006	85 c0		 test	 eax, eax
  00008	0f 88 c2 00 00
	00		 js	 $LN11@SetGateBlo
  0000e	33 c9		 xor	 ecx, ecx
  00010	3d ff 00 00 00	 cmp	 eax, 255		; 000000ffH
  00015	0f 9e c1	 setle	 cl
  00018	85 c9		 test	 ecx, ecx
  0001a	0f 84 b0 00 00
	00		 je	 $LN11@SetGateBlo
  00020	57		 push	 edi
  00021	8b 7d 0c	 mov	 edi, DWORD PTR _iY$[ebp]
  00024	85 ff		 test	 edi, edi
  00026	0f 88 a3 00 00
	00		 js	 $LN34@SetGateBlo
  0002c	33 c9		 xor	 ecx, ecx
  0002e	81 ff ff 00 00
	00		 cmp	 edi, 255		; 000000ffH
  00034	0f 9e c1	 setle	 cl
  00037	85 c9		 test	 ecx, ecx
  00039	0f 84 90 00 00
	00		 je	 $LN34@SetGateBlo

; 3925 : 	{
; 3926 : 		return;
; 3927 : 	}
; 3928 : 
; 3929 : 	switch(iGateState)

  0003f	8b 4d 10	 mov	 ecx, DWORD PTR _iGateState$[ebp]
  00042	83 e9 00	 sub	 ecx, 0
  00045	53		 push	 ebx
  00046	56		 push	 esi
  00047	74 4a		 je	 SHORT $LN14@SetGateBlo
  00049	49		 dec	 ecx
  0004a	0f 85 7d 00 00
	00		 jne	 $LN35@SetGateBlo

; 3938 : 				}
; 3939 : 			}
; 3940 : 		}
; 3941 : 		break;
; 3942 : 	case 1:
; 3943 : 		{
; 3944 : 			for(int i = iX -2; i <= iX + 3; i++)

  00050	8d 70 fe	 lea	 esi, DWORD PTR [eax-2]
  00053	83 c0 03	 add	 eax, 3
  00056	89 45 08	 mov	 DWORD PTR tv199[ebp], eax
  00059	3b f0		 cmp	 esi, eax
  0005b	7f 70		 jg	 SHORT $LN35@SetGateBlo
  0005d	8d 5f 02	 lea	 ebx, DWORD PTR [edi+2]
$LL6@SetGateBlo:

; 3945 : 			{
; 3946 : 				for(int j = iY; j <= iY + 2;j++)

  00060	3b fb		 cmp	 edi, ebx
  00062	7f 23		 jg	 SHORT $LN5@SetGateBlo
  00064	8b d3		 mov	 edx, ebx
  00066	8b cf		 mov	 ecx, edi
  00068	2b d7		 sub	 edx, edi
  0006a	c1 e1 08	 shl	 ecx, 8
  0006d	42		 inc	 edx
  0006e	8b ff		 npad	 2
$LL3@SetGateBlo:

; 3947 : 				{
; 3948 : 					MapC[MAP_INDEX_CASTLESIEGE].m_attrbuf[j * 256 + i] &= ~16;

  00070	a1 80 2e 9d 00	 mov	 eax, DWORD PTR ?MapC@@3PAVMapClass@@A+10301056
  00075	03 c1		 add	 eax, ecx
  00077	80 24 30 ef	 and	 BYTE PTR [eax+esi], 239	; 000000efH
  0007b	81 c1 00 01 00
	00		 add	 ecx, 256		; 00000100H
  00081	4a		 dec	 edx
  00082	75 ec		 jne	 SHORT $LL3@SetGateBlo

; 3945 : 			{
; 3946 : 				for(int j = iY; j <= iY + 2;j++)

  00084	8b 45 08	 mov	 eax, DWORD PTR tv199[ebp]
$LN5@SetGateBlo:

; 3938 : 				}
; 3939 : 			}
; 3940 : 		}
; 3941 : 		break;
; 3942 : 	case 1:
; 3943 : 		{
; 3944 : 			for(int i = iX -2; i <= iX + 3; i++)

  00087	46		 inc	 esi
  00088	3b f0		 cmp	 esi, eax
  0008a	7e d4		 jle	 SHORT $LL6@SetGateBlo
  0008c	5e		 pop	 esi
  0008d	5b		 pop	 ebx
  0008e	5f		 pop	 edi

; 3949 : 				}
; 3950 : 			}
; 3951 : 		}
; 3952 : 		break;
; 3953 : 	}
; 3954 : }

  0008f	5d		 pop	 ebp
  00090	c2 0c 00	 ret	 12			; 0000000cH
$LN14@SetGateBlo:

; 3930 : 	{
; 3931 : 	case 0:
; 3932 : 		{
; 3933 : 			for(int i = iX -2; i <= iX + 3; i++)

  00093	8d 70 fe	 lea	 esi, DWORD PTR [eax-2]
  00096	83 c0 03	 add	 eax, 3
  00099	89 45 08	 mov	 DWORD PTR tv199[ebp], eax
  0009c	3b f0		 cmp	 esi, eax
  0009e	7f 2d		 jg	 SHORT $LN35@SetGateBlo
  000a0	8d 5f 02	 lea	 ebx, DWORD PTR [edi+2]
$LL13@SetGateBlo:

; 3934 : 			{
; 3935 : 				for(int j = iY; j <= iY + 2;j++)

  000a3	3b fb		 cmp	 edi, ebx
  000a5	7f 21		 jg	 SHORT $LN12@SetGateBlo
  000a7	8b d3		 mov	 edx, ebx
  000a9	8b cf		 mov	 ecx, edi
  000ab	2b d7		 sub	 edx, edi
  000ad	c1 e1 08	 shl	 ecx, 8
  000b0	42		 inc	 edx
$LL10@SetGateBlo:

; 3936 : 				{
; 3937 : 					MapC[MAP_INDEX_CASTLESIEGE].m_attrbuf[j * 256 + i] |= 16;

  000b1	a1 80 2e 9d 00	 mov	 eax, DWORD PTR ?MapC@@3PAVMapClass@@A+10301056
  000b6	03 c1		 add	 eax, ecx
  000b8	80 0c 30 10	 or	 BYTE PTR [eax+esi], 16	; 00000010H
  000bc	81 c1 00 01 00
	00		 add	 ecx, 256		; 00000100H
  000c2	4a		 dec	 edx
  000c3	75 ec		 jne	 SHORT $LL10@SetGateBlo

; 3934 : 			{
; 3935 : 				for(int j = iY; j <= iY + 2;j++)

  000c5	8b 45 08	 mov	 eax, DWORD PTR tv199[ebp]
$LN12@SetGateBlo:

; 3930 : 	{
; 3931 : 	case 0:
; 3932 : 		{
; 3933 : 			for(int i = iX -2; i <= iX + 3; i++)

  000c8	46		 inc	 esi
  000c9	3b f0		 cmp	 esi, eax
  000cb	7e d6		 jle	 SHORT $LL13@SetGateBlo
$LN35@SetGateBlo:
  000cd	5e		 pop	 esi
  000ce	5b		 pop	 ebx
$LN34@SetGateBlo:
  000cf	5f		 pop	 edi
$LN11@SetGateBlo:

; 3949 : 				}
; 3950 : 			}
; 3951 : 		}
; 3952 : 		break;
; 3953 : 	}
; 3954 : }

  000d0	5d		 pop	 ebp
  000d1	c2 0c 00	 ret	 12			; 0000000cH
?SetGateBlockState@CCastleSiege@@QAEXHHH@Z ENDP		; CCastleSiege::SetGateBlockState
_TEXT	ENDS
PUBLIC	?RegGuildScoreCompFunc@CCastleSiege@@SAEAAU_CS_REG_GUILD_DATA@@0@Z ; CCastleSiege::RegGuildScoreCompFunc
; Function compile flags: /Ogtp
;	COMDAT ?RegGuildScoreCompFunc@CCastleSiege@@SAEAAU_CS_REG_GUILD_DATA@@0@Z
_TEXT	SEGMENT
_A$ = 8							; size = 4
_B$ = 12						; size = 4
?RegGuildScoreCompFunc@CCastleSiege@@SAEAAU_CS_REG_GUILD_DATA@@0@Z PROC ; CCastleSiege::RegGuildScoreCompFunc, COMDAT

; 4114 : {

  00000	55		 push	 ebp
  00001	8b ec		 mov	 ebp, esp

; 4115 : 	if (A.m_i64TotolScore < B.m_i64TotolScore)

  00003	8b 45 08	 mov	 eax, DWORD PTR _A$[ebp]
  00006	8b 50 3c	 mov	 edx, DWORD PTR [eax+60]
  00009	8b 4d 0c	 mov	 ecx, DWORD PTR _B$[ebp]
  0000c	3b 51 3c	 cmp	 edx, DWORD PTR [ecx+60]
  0000f	7f 0e		 jg	 SHORT $LN1@RegGuildSc
  00011	7c 08		 jl	 SHORT $LN4@RegGuildSc
  00013	8b 40 38	 mov	 eax, DWORD PTR [eax+56]
  00016	3b 41 38	 cmp	 eax, DWORD PTR [ecx+56]
  00019	73 04		 jae	 SHORT $LN1@RegGuildSc
$LN4@RegGuildSc:

; 4116 : 	{
; 4117 : 		return false;

  0001b	32 c0		 xor	 al, al

; 4120 : }

  0001d	5d		 pop	 ebp
  0001e	c3		 ret	 0
$LN1@RegGuildSc:

; 4118 : 	}
; 4119 : 	return true;

  0001f	b0 01		 mov	 al, 1

; 4120 : }

  00021	5d		 pop	 ebp
  00022	c3		 ret	 0
?RegGuildScoreCompFunc@CCastleSiege@@SAEAAU_CS_REG_GUILD_DATA@@0@Z ENDP ; CCastleSiege::RegGuildScoreCompFunc
_TEXT	ENDS
PUBLIC	??0_CS_TOTAL_GUILD_DATA@@QAE@ABU0@@Z		; _CS_TOTAL_GUILD_DATA::_CS_TOTAL_GUILD_DATA
; Function compile flags: /Ogtp
;	COMDAT ??0_CS_TOTAL_GUILD_DATA@@QAE@ABU0@@Z
_TEXT	SEGMENT
___that$ = 8						; size = 4
??0_CS_TOTAL_GUILD_DATA@@QAE@ABU0@@Z PROC		; _CS_TOTAL_GUILD_DATA::_CS_TOTAL_GUILD_DATA, COMDAT
; _this$ = ecx
  00000	55		 push	 ebp
  00001	8b ec		 mov	 ebp, esp
  00003	8b c1		 mov	 eax, ecx
  00005	8b 4d 08	 mov	 ecx, DWORD PTR ___that$[ebp]
  00008	c7 00 00 00 00
	00		 mov	 DWORD PTR [eax], OFFSET ??_7_CS_TOTAL_GUILD_DATA@@6B@
  0000e	8b 51 04	 mov	 edx, DWORD PTR [ecx+4]
  00011	89 50 04	 mov	 DWORD PTR [eax+4], edx
  00014	8b 51 08	 mov	 edx, DWORD PTR [ecx+8]
  00017	89 50 08	 mov	 DWORD PTR [eax+8], edx
  0001a	8b 51 0c	 mov	 edx, DWORD PTR [ecx+12]
  0001d	89 50 0c	 mov	 DWORD PTR [eax+12], edx
  00020	8b 49 10	 mov	 ecx, DWORD PTR [ecx+16]
  00023	89 48 10	 mov	 DWORD PTR [eax+16], ecx
  00026	5d		 pop	 ebp
  00027	c2 04 00	 ret	 4
??0_CS_TOTAL_GUILD_DATA@@QAE@ABU0@@Z ENDP		; _CS_TOTAL_GUILD_DATA::_CS_TOTAL_GUILD_DATA
_TEXT	ENDS
PUBLIC	?NotifySelfCsJoinSide@CCastleSiege@@QAEXH@Z	; CCastleSiege::NotifySelfCsJoinSide
EXTRN	?DataSend@@YAHHPAEK@Z:PROC			; DataSend
EXTRN	?gObjClearStandardBuffEffect@@YAEPAUOBJECTSTRUCT@@H@Z:PROC ; gObjClearStandardBuffEffect
EXTRN	?gObjApplyBuffEffectDuration@@YAEPAUOBJECTSTRUCT@@HEHEHH@Z:PROC ; gObjApplyBuffEffectDuration
EXTRN	?gObjRemoveBuffEffect@@YAEPAUOBJECTSTRUCT@@H@Z:PROC ; gObjRemoveBuffEffect
; Function compile flags: /Ogtp
;	COMDAT ?NotifySelfCsJoinSide@CCastleSiege@@QAEXH@Z
_TEXT	SEGMENT
_pMsg$ = -8						; size = 5
_iIndex$ = 8						; size = 4
?NotifySelfCsJoinSide@CCastleSiege@@QAEXH@Z PROC	; CCastleSiege::NotifySelfCsJoinSide, COMDAT
; _this$ = ecx

; 4408 : {

  00000	55		 push	 ebp
  00001	8b ec		 mov	 ebp, esp
  00003	83 ec 08	 sub	 esp, 8
  00006	56		 push	 esi

; 4409 : 	if (gObjIsConnected(iIndex) == FALSE)

  00007	8b 75 08	 mov	 esi, DWORD PTR _iIndex$[ebp]
  0000a	57		 push	 edi
  0000b	56		 push	 esi
  0000c	8b f9		 mov	 edi, ecx
  0000e	e8 00 00 00 00	 call	 ?gObjIsConnected@@YAHH@Z ; gObjIsConnected
  00013	83 c4 04	 add	 esp, 4
  00016	85 c0		 test	 eax, eax
  00018	0f 84 2b 01 00
	00		 je	 $LN25@NotifySelf

; 4410 : 	{
; 4411 : 		return;
; 4412 : 	}
; 4413 : 
; 4414 : 	int iState = 0;
; 4415 : 	int iViewState = 0;
; 4416 : 
; 4417 : 	BYTE btCsJoinSide = gObj[iIndex].m_btCsJoinSide; //loc4

  0001e	a1 00 00 00 00	 mov	 eax, DWORD PTR ?gObj@@3PAUOBJECTSTRUCT@@A ; gObj
  00023	69 f6 50 2b 00
	00		 imul	 esi, 11088		; 00002b50H
  00029	03 c6		 add	 eax, esi
  0002b	53		 push	 ebx
  0002c	8a 98 02 1c 00
	00		 mov	 bl, BYTE PTR [eax+7170]

; 4418 : 
; 4419 : 	PMSG_ANS_NOTIFYCSJOINSIDE pMsg;
; 4420 : 
; 4421 : 	if (btCsJoinSide < 0)
; 4422 : 	{
; 4423 : 		btCsJoinSide = 0;
; 4424 : 	}
; 4425 : 
; 4426 : 	if (btCsJoinSide > 4) //season3.0 changed

  00032	80 fb 04	 cmp	 bl, 4
  00035	76 02		 jbe	 SHORT $LN22@NotifySelf

; 4427 : 	{
; 4428 : 		btCsJoinSide = 0;

  00037	32 db		 xor	 bl, bl
$LN22@NotifySelf:

; 4429 : 	}
; 4430 : 
; 4431 : 	switch(btCsJoinSide) //season3 all changed

  00039	0f b6 cb	 movzx	 ecx, bl
  0003c	83 f9 04	 cmp	 ecx, 4
  0003f	0f 87 d0 00 00
	00		 ja	 $LN20@NotifySelf
  00045	ff 24 8d 00 00
	00 00		 jmp	 DWORD PTR $LN30@NotifySelf[ecx*4]
$LN19@NotifySelf:

; 4432 : 	{
; 4433 : 	case 1:
; 4434 : 		iState = 1;
; 4435 : 		iViewState = 0x40000;
; 4436 : 		if (this->m_iCastleSiegeState == CASTLESIEGE_STATE_STARTSIEGE || this->m_iCastleSiegeState == CASTLESIEGE_STATE_ENDSIEGE)

  0004c	8b 4f 28	 mov	 ecx, DWORD PTR [edi+40]
  0004f	83 f9 07	 cmp	 ecx, 7
  00052	74 12		 je	 SHORT $LN17@NotifySelf
  00054	83 f9 08	 cmp	 ecx, 8
  00057	74 0d		 je	 SHORT $LN17@NotifySelf

; 4439 : 		}
; 4440 : 		else
; 4441 : 		{
; 4442 : 			gObjRemoveBuffEffect(&gObj[iIndex], AT_WATCHING_TOWER);

  00059	6a 0e		 push	 14			; 0000000eH
  0005b	50		 push	 eax
  0005c	e8 00 00 00 00	 call	 ?gObjRemoveBuffEffect@@YAEPAUOBJECTSTRUCT@@H@Z ; gObjRemoveBuffEffect
  00061	e9 ac 00 00 00	 jmp	 $LN29@NotifySelf
$LN17@NotifySelf:

; 4437 : 		{
; 4438 : 			gObjApplyBuffEffectDuration(&gObj[iIndex], AT_WATCHING_TOWER, 0, 0, 0, 0, -10);

  00066	6a f6		 push	 -10			; fffffff6H
  00068	6a 00		 push	 0
  0006a	6a 00		 push	 0
  0006c	6a 00		 push	 0
  0006e	6a 00		 push	 0
  00070	6a 0e		 push	 14			; 0000000eH
  00072	50		 push	 eax
  00073	e8 00 00 00 00	 call	 ?gObjApplyBuffEffectDuration@@YAEPAUOBJECTSTRUCT@@HEHEHH@Z ; gObjApplyBuffEffectDuration
  00078	83 c4 1c	 add	 esp, 28			; 0000001cH

; 4443 : 		}
; 4444 : 		break;

  0007b	e9 95 00 00 00	 jmp	 $LN20@NotifySelf
$LN15@NotifySelf:

; 4445 : 	case 2:
; 4446 : 		iState = 1;
; 4447 : 		iViewState = 0x80000;
; 4448 : 		if (this->m_iCastleSiegeState == CASTLESIEGE_STATE_STARTSIEGE || this->m_iCastleSiegeState == CASTLESIEGE_STATE_ENDSIEGE)

  00080	8b 4f 28	 mov	 ecx, DWORD PTR [edi+40]
  00083	83 f9 07	 cmp	 ecx, 7
  00086	74 0f		 je	 SHORT $LN13@NotifySelf
  00088	83 f9 08	 cmp	 ecx, 8
  0008b	74 0a		 je	 SHORT $LN13@NotifySelf

; 4451 : 		}
; 4452 : 		else
; 4453 : 		{
; 4454 : 			gObjRemoveBuffEffect(&gObj[iIndex], AT_ATTACKING_GUILD1);

  0008d	6a 0f		 push	 15			; 0000000fH
  0008f	50		 push	 eax
  00090	e8 00 00 00 00	 call	 ?gObjRemoveBuffEffect@@YAEPAUOBJECTSTRUCT@@H@Z ; gObjRemoveBuffEffect
  00095	eb 7b		 jmp	 SHORT $LN29@NotifySelf
$LN13@NotifySelf:

; 4449 : 		{
; 4450 : 			gObjApplyBuffEffectDuration(&gObj[iIndex], AT_ATTACKING_GUILD1, 0, 0, 0, 0, -10);

  00097	6a f6		 push	 -10			; fffffff6H
  00099	6a 00		 push	 0
  0009b	6a 00		 push	 0
  0009d	6a 00		 push	 0
  0009f	6a 00		 push	 0
  000a1	6a 0f		 push	 15			; 0000000fH
  000a3	50		 push	 eax
  000a4	e8 00 00 00 00	 call	 ?gObjApplyBuffEffectDuration@@YAEPAUOBJECTSTRUCT@@HEHEHH@Z ; gObjApplyBuffEffectDuration
  000a9	83 c4 1c	 add	 esp, 28			; 0000001cH

; 4455 : 		}
; 4456 : 		break;

  000ac	eb 67		 jmp	 SHORT $LN20@NotifySelf
$LN11@NotifySelf:

; 4457 : 	case 3:
; 4458 : 		iState = 1;
; 4459 : 		iViewState = 0x400000;
; 4460 : 		if (this->m_iCastleSiegeState == CASTLESIEGE_STATE_STARTSIEGE || this->m_iCastleSiegeState == CASTLESIEGE_STATE_ENDSIEGE)

  000ae	8b 4f 28	 mov	 ecx, DWORD PTR [edi+40]
  000b1	83 f9 07	 cmp	 ecx, 7
  000b4	74 0f		 je	 SHORT $LN9@NotifySelf
  000b6	83 f9 08	 cmp	 ecx, 8
  000b9	74 0a		 je	 SHORT $LN9@NotifySelf

; 4463 : 		}
; 4464 : 		else
; 4465 : 		{
; 4466 : 			gObjRemoveBuffEffect(&gObj[iIndex], AT_ATTACKING_GUILD2);

  000bb	6a 10		 push	 16			; 00000010H
  000bd	50		 push	 eax
  000be	e8 00 00 00 00	 call	 ?gObjRemoveBuffEffect@@YAEPAUOBJECTSTRUCT@@H@Z ; gObjRemoveBuffEffect
  000c3	eb 4d		 jmp	 SHORT $LN29@NotifySelf
$LN9@NotifySelf:

; 4461 : 		{
; 4462 : 			gObjApplyBuffEffectDuration(&gObj[iIndex], AT_ATTACKING_GUILD2, 0, 0, 0, 0, -10);

  000c5	6a f6		 push	 -10			; fffffff6H
  000c7	6a 00		 push	 0
  000c9	6a 00		 push	 0
  000cb	6a 00		 push	 0
  000cd	6a 00		 push	 0
  000cf	6a 10		 push	 16			; 00000010H
  000d1	50		 push	 eax
  000d2	e8 00 00 00 00	 call	 ?gObjApplyBuffEffectDuration@@YAEPAUOBJECTSTRUCT@@HEHEHH@Z ; gObjApplyBuffEffectDuration
  000d7	83 c4 1c	 add	 esp, 28			; 0000001cH

; 4467 : 		}
; 4468 : 		break;

  000da	eb 39		 jmp	 SHORT $LN20@NotifySelf
$LN7@NotifySelf:

; 4469 : 	case 4:
; 4470 : 		iState = 1;
; 4471 : 		iViewState = 0x800000;
; 4472 : 		if (this->m_iCastleSiegeState == CASTLESIEGE_STATE_STARTSIEGE || this->m_iCastleSiegeState == CASTLESIEGE_STATE_ENDSIEGE)

  000dc	8b 4f 28	 mov	 ecx, DWORD PTR [edi+40]
  000df	83 f9 07	 cmp	 ecx, 7
  000e2	74 0f		 je	 SHORT $LN5@NotifySelf
  000e4	83 f9 08	 cmp	 ecx, 8
  000e7	74 0a		 je	 SHORT $LN5@NotifySelf

; 4475 : 		}
; 4476 : 		else
; 4477 : 		{
; 4478 : 			gObjRemoveBuffEffect(&gObj[iIndex], AT_ATTACKING_GUILD3);

  000e9	6a 11		 push	 17			; 00000011H
  000eb	50		 push	 eax
  000ec	e8 00 00 00 00	 call	 ?gObjRemoveBuffEffect@@YAEPAUOBJECTSTRUCT@@H@Z ; gObjRemoveBuffEffect
  000f1	eb 1f		 jmp	 SHORT $LN29@NotifySelf
$LN5@NotifySelf:

; 4473 : 		{
; 4474 : 			gObjApplyBuffEffectDuration(&gObj[iIndex], AT_ATTACKING_GUILD3, 0, 0, 0, 0, -10);

  000f3	6a f6		 push	 -10			; fffffff6H
  000f5	6a 00		 push	 0
  000f7	6a 00		 push	 0
  000f9	6a 00		 push	 0
  000fb	6a 00		 push	 0
  000fd	6a 11		 push	 17			; 00000011H
  000ff	50		 push	 eax
  00100	e8 00 00 00 00	 call	 ?gObjApplyBuffEffectDuration@@YAEPAUOBJECTSTRUCT@@HEHEHH@Z ; gObjApplyBuffEffectDuration
  00105	83 c4 1c	 add	 esp, 28			; 0000001cH

; 4479 : 		}
; 4480 : 		break;

  00108	eb 0b		 jmp	 SHORT $LN20@NotifySelf
$LN3@NotifySelf:

; 4481 : 	case 0: //season4.5 fix
; 4482 : 	//default:
; 4483 : 		iState = 0;
; 4484 : 		iViewState = 0xC0000;
; 4485 : 		gObjClearStandardBuffEffect(&gObj[iIndex], AT_SIEGE_GENERAL);

  0010a	6a 07		 push	 7
  0010c	50		 push	 eax
  0010d	e8 00 00 00 00	 call	 ?gObjClearStandardBuffEffect@@YAEPAUOBJECTSTRUCT@@H@Z ; gObjClearStandardBuffEffect
$LN29@NotifySelf:
  00112	83 c4 08	 add	 esp, 8
$LN20@NotifySelf:

; 4486 : 	}
; 4487 : 
; 4488 : 	pMsg.h.set((LPBYTE)&pMsg,0xB2,0x19,sizeof(pMsg));

  00115	c7 45 f8 c1 05
	b2 19		 mov	 DWORD PTR _pMsg$[ebp], 431097281 ; 19b205c1H

; 4489 : 
; 4490 : 	if (btCsJoinSide == 2) //same result...

  0011c	80 fb 02	 cmp	 bl, 2
  0011f	75 12		 jne	 SHORT $LN2@NotifySelf

; 4491 : 	{
; 4492 : 		pMsg.btCsJoinSide = gObj[iIndex].m_btCsJoinSide;

  00121	8b 0d 00 00 00
	00		 mov	 ecx, DWORD PTR ?gObj@@3PAUOBJECTSTRUCT@@A ; gObj
  00127	8a 94 0e 02 1c
	00 00		 mov	 dl, BYTE PTR [esi+ecx+7170]
  0012e	88 55 fc	 mov	 BYTE PTR _pMsg$[ebp+4], dl

; 4493 : 	}
; 4494 : 	else

  00131	eb 03		 jmp	 SHORT $LN1@NotifySelf
$LN2@NotifySelf:

; 4495 : 	{
; 4496 : 		pMsg.btCsJoinSide = btCsJoinSide;

  00133	88 5d fc	 mov	 BYTE PTR _pMsg$[ebp+4], bl
$LN1@NotifySelf:

; 4497 : 	}
; 4498 : 
; 4499 : 	//GCSendState iViewState
; 4500 : 
; 4501 : 	DataSend(iIndex,(LPBYTE)&pMsg,pMsg.h.size);

  00136	8b 4d 08	 mov	 ecx, DWORD PTR _iIndex$[ebp]
  00139	6a 05		 push	 5
  0013b	8d 45 f8	 lea	 eax, DWORD PTR _pMsg$[ebp]
  0013e	50		 push	 eax
  0013f	51		 push	 ecx
  00140	e8 00 00 00 00	 call	 ?DataSend@@YAHHPAEK@Z	; DataSend
  00145	83 c4 0c	 add	 esp, 12			; 0000000cH
  00148	5b		 pop	 ebx
$LN25@NotifySelf:
  00149	5f		 pop	 edi
  0014a	5e		 pop	 esi

; 4502 : }

  0014b	8b e5		 mov	 esp, ebp
  0014d	5d		 pop	 ebp
  0014e	c2 04 00	 ret	 4
  00151	8d 49 00	 npad	 3
$LN30@NotifySelf:
  00154	00 00 00 00	 DD	 $LN3@NotifySelf
  00158	00 00 00 00	 DD	 $LN19@NotifySelf
  0015c	00 00 00 00	 DD	 $LN15@NotifySelf
  00160	00 00 00 00	 DD	 $LN11@NotifySelf
  00164	00 00 00 00	 DD	 $LN7@NotifySelf
?NotifySelfCsJoinSide@CCastleSiege@@QAEXH@Z ENDP	; CCastleSiege::NotifySelfCsJoinSide
_TEXT	ENDS
PUBLIC	?CheckCastleOwnerMember@CCastleSiege@@QAEHH@Z	; CCastleSiege::CheckCastleOwnerMember
; Function compile flags: /Ogtp
;	COMDAT ?CheckCastleOwnerMember@CCastleSiege@@QAEHH@Z
_TEXT	SEGMENT
_iIndex$ = 8						; size = 4
?CheckCastleOwnerMember@CCastleSiege@@QAEHH@Z PROC	; CCastleSiege::CheckCastleOwnerMember, COMDAT
; _this$ = ecx

; 4600 : {

  00000	55		 push	 ebp
  00001	8b ec		 mov	 ebp, esp
  00003	56		 push	 esi
  00004	57		 push	 edi

; 4601 : 	if ( gObjIsConnected(iIndex) == FALSE )

  00005	8b 7d 08	 mov	 edi, DWORD PTR _iIndex$[ebp]
  00008	57		 push	 edi
  00009	8b f1		 mov	 esi, ecx
  0000b	e8 00 00 00 00	 call	 ?gObjIsConnected@@YAHH@Z ; gObjIsConnected
  00010	83 c4 04	 add	 esp, 4
  00013	85 c0		 test	 eax, eax
  00015	75 06		 jne	 SHORT $LN4@CheckCastl@2
  00017	5f		 pop	 edi
  00018	5e		 pop	 esi

; 4617 : 	{
; 4618 : 		return FALSE;
; 4619 : 	}
; 4620 : 
; 4621 : 	return TRUE;
; 4622 : }

  00019	5d		 pop	 ebp
  0001a	c2 04 00	 ret	 4
$LN4@CheckCastl@2:
  0001d	53		 push	 ebx

; 4602 : 	{
; 4603 : 		return FALSE;
; 4604 : 	}
; 4605 : 
; 4606 : 	if ( strcmp(this->m_szCastleOwnerGuild, "") == 0 )

  0001e	8d 9e d7 00 00
	00		 lea	 ebx, DWORD PTR [esi+215]
  00024	b9 00 00 00 00	 mov	 ecx, OFFSET ??_C@_00CNPNBAHC@?$AA@
  00029	8b c3		 mov	 eax, ebx
  0002b	eb 03 8d 49 00	 npad	 5
$LL7@CheckCastl@2:
  00030	8a 10		 mov	 dl, BYTE PTR [eax]
  00032	3a 11		 cmp	 dl, BYTE PTR [ecx]
  00034	75 1a		 jne	 SHORT $LN8@CheckCastl@2
  00036	84 d2		 test	 dl, dl
  00038	74 12		 je	 SHORT $LN9@CheckCastl@2
  0003a	8a 50 01	 mov	 dl, BYTE PTR [eax+1]
  0003d	3a 51 01	 cmp	 dl, BYTE PTR [ecx+1]
  00040	75 0e		 jne	 SHORT $LN8@CheckCastl@2
  00042	83 c0 02	 add	 eax, 2
  00045	83 c1 02	 add	 ecx, 2
  00048	84 d2		 test	 dl, dl
  0004a	75 e4		 jne	 SHORT $LL7@CheckCastl@2
$LN9@CheckCastl@2:
  0004c	33 c0		 xor	 eax, eax
  0004e	eb 05		 jmp	 SHORT $LN10@CheckCastl@2
$LN8@CheckCastl@2:
  00050	1b c0		 sbb	 eax, eax
  00052	83 d8 ff	 sbb	 eax, -1
$LN10@CheckCastl@2:
  00055	85 c0		 test	 eax, eax

; 4607 : 	{
; 4608 : 		return FALSE;

  00057	74 42		 je	 SHORT $LN20@CheckCastl@2

; 4609 : 	}
; 4610 : 
; 4611 : 	if ( strcmp(gObj[iIndex].GuildName, "") == 0 )

  00059	a1 00 00 00 00	 mov	 eax, DWORD PTR ?gObj@@3PAUOBJECTSTRUCT@@A ; gObj
  0005e	69 ff 50 2b 00
	00		 imul	 edi, 11088		; 00002b50H
  00064	8d b4 07 3c 04
	00 00		 lea	 esi, DWORD PTR [edi+eax+1084]
  0006b	b9 00 00 00 00	 mov	 ecx, OFFSET ??_C@_00CNPNBAHC@?$AA@
  00070	8b c6		 mov	 eax, esi
$LL11@CheckCastl@2:
  00072	8a 10		 mov	 dl, BYTE PTR [eax]
  00074	3a 11		 cmp	 dl, BYTE PTR [ecx]
  00076	75 1a		 jne	 SHORT $LN12@CheckCastl@2
  00078	84 d2		 test	 dl, dl
  0007a	74 12		 je	 SHORT $LN13@CheckCastl@2
  0007c	8a 50 01	 mov	 dl, BYTE PTR [eax+1]
  0007f	3a 51 01	 cmp	 dl, BYTE PTR [ecx+1]
  00082	75 0e		 jne	 SHORT $LN12@CheckCastl@2
  00084	83 c0 02	 add	 eax, 2
  00087	83 c1 02	 add	 ecx, 2
  0008a	84 d2		 test	 dl, dl
  0008c	75 e4		 jne	 SHORT $LL11@CheckCastl@2
$LN13@CheckCastl@2:
  0008e	33 c0		 xor	 eax, eax
  00090	eb 05		 jmp	 SHORT $LN14@CheckCastl@2
$LN12@CheckCastl@2:
  00092	1b c0		 sbb	 eax, eax
  00094	83 d8 ff	 sbb	 eax, -1
$LN14@CheckCastl@2:
  00097	85 c0		 test	 eax, eax
  00099	75 09		 jne	 SHORT $LN2@CheckCastl@2
$LN20@CheckCastl@2:
  0009b	5b		 pop	 ebx
  0009c	5f		 pop	 edi

; 4612 : 	{
; 4613 : 		return FALSE;

  0009d	33 c0		 xor	 eax, eax
  0009f	5e		 pop	 esi

; 4617 : 	{
; 4618 : 		return FALSE;
; 4619 : 	}
; 4620 : 
; 4621 : 	return TRUE;
; 4622 : }

  000a0	5d		 pop	 ebp
  000a1	c2 04 00	 ret	 4
$LN2@CheckCastl@2:

; 4614 : 	}
; 4615 : 
; 4616 : 	if ( strcmp(gObj[iIndex].GuildName, this->m_szCastleOwnerGuild) != 0 )

  000a4	8b cb		 mov	 ecx, ebx
  000a6	8b c6		 mov	 eax, esi
$LL15@CheckCastl@2:
  000a8	8a 10		 mov	 dl, BYTE PTR [eax]
  000aa	3a 11		 cmp	 dl, BYTE PTR [ecx]
  000ac	75 28		 jne	 SHORT $LN16@CheckCastl@2
  000ae	84 d2		 test	 dl, dl
  000b0	74 12		 je	 SHORT $LN17@CheckCastl@2
  000b2	8a 50 01	 mov	 dl, BYTE PTR [eax+1]
  000b5	3a 51 01	 cmp	 dl, BYTE PTR [ecx+1]
  000b8	75 1c		 jne	 SHORT $LN16@CheckCastl@2
  000ba	83 c0 02	 add	 eax, 2
  000bd	83 c1 02	 add	 ecx, 2
  000c0	84 d2		 test	 dl, dl
  000c2	75 e4		 jne	 SHORT $LL15@CheckCastl@2
$LN17@CheckCastl@2:
  000c4	33 c0		 xor	 eax, eax
  000c6	33 c9		 xor	 ecx, ecx
  000c8	85 c0		 test	 eax, eax
  000ca	0f 94 c1	 sete	 cl
  000cd	5b		 pop	 ebx
  000ce	5f		 pop	 edi
  000cf	5e		 pop	 esi
  000d0	8b c1		 mov	 eax, ecx

; 4617 : 	{
; 4618 : 		return FALSE;
; 4619 : 	}
; 4620 : 
; 4621 : 	return TRUE;
; 4622 : }

  000d2	5d		 pop	 ebp
  000d3	c2 04 00	 ret	 4
$LN16@CheckCastl@2:

; 4614 : 	}
; 4615 : 
; 4616 : 	if ( strcmp(gObj[iIndex].GuildName, this->m_szCastleOwnerGuild) != 0 )

  000d6	1b c0		 sbb	 eax, eax
  000d8	83 d8 ff	 sbb	 eax, -1
  000db	33 c9		 xor	 ecx, ecx
  000dd	85 c0		 test	 eax, eax
  000df	0f 94 c1	 sete	 cl
  000e2	5b		 pop	 ebx
  000e3	5f		 pop	 edi
  000e4	5e		 pop	 esi
  000e5	8b c1		 mov	 eax, ecx

; 4617 : 	{
; 4618 : 		return FALSE;
; 4619 : 	}
; 4620 : 
; 4621 : 	return TRUE;
; 4622 : }

  000e7	5d		 pop	 ebp
  000e8	c2 04 00	 ret	 4
?CheckCastleOwnerMember@CCastleSiege@@QAEHH@Z ENDP	; CCastleSiege::CheckCastleOwnerMember
_TEXT	ENDS
PUBLIC	?CheckCastleOwnerUnionMember@CCastleSiege@@QAEHH@Z ; CCastleSiege::CheckCastleOwnerUnionMember
EXTRN	?SearchUnion@TUnion@@QAEPAVTUnionInfo@@H@Z:PROC	; TUnion::SearchUnion
EXTRN	?UnionManager@@3VTUnion@@A:BYTE			; UnionManager
; Function compile flags: /Ogtp
;	COMDAT ?CheckCastleOwnerUnionMember@CCastleSiege@@QAEHH@Z
_TEXT	SEGMENT
_iIndex$ = 8						; size = 4
?CheckCastleOwnerUnionMember@CCastleSiege@@QAEHH@Z PROC	; CCastleSiege::CheckCastleOwnerUnionMember, COMDAT
; _this$ = ecx

; 4625 : {

  00000	55		 push	 ebp
  00001	8b ec		 mov	 ebp, esp
  00003	56		 push	 esi
  00004	57		 push	 edi

; 4626 : 	_GUILD_INFO_STRUCT* lpGuildInfo;
; 4627 : 	TUnionInfo * pUnionInfo;
; 4628 : 
; 4629 : 	if ( ::gObjIsConnected(iIndex) == FALSE )

  00005	8b 7d 08	 mov	 edi, DWORD PTR _iIndex$[ebp]
  00008	57		 push	 edi
  00009	8b f1		 mov	 esi, ecx
  0000b	e8 00 00 00 00	 call	 ?gObjIsConnected@@YAHH@Z ; gObjIsConnected
  00010	83 c4 04	 add	 esp, 4
  00013	85 c0		 test	 eax, eax
  00015	75 06		 jne	 SHORT $LN6@CheckCastl@3
  00017	5f		 pop	 edi
  00018	5e		 pop	 esi

; 4659 : 	{
; 4660 : 		return TRUE;
; 4661 : 	}
; 4662 : 
; 4663 : 	return FALSE;
; 4664 : }

  00019	5d		 pop	 ebp
  0001a	c2 04 00	 ret	 4
$LN6@CheckCastl@3:
  0001d	53		 push	 ebx

; 4630 : 	{
; 4631 : 		return FALSE;
; 4632 : 	}
; 4633 : 
; 4634 : 	if ( strcmp(this->m_szCastleOwnerGuild, "") == 0 )

  0001e	8d 9e d7 00 00
	00		 lea	 ebx, DWORD PTR [esi+215]
  00024	b9 00 00 00 00	 mov	 ecx, OFFSET ??_C@_00CNPNBAHC@?$AA@
  00029	8b c3		 mov	 eax, ebx
  0002b	eb 03 8d 49 00	 npad	 5
$LL9@CheckCastl@3:
  00030	8a 10		 mov	 dl, BYTE PTR [eax]
  00032	3a 11		 cmp	 dl, BYTE PTR [ecx]
  00034	75 1a		 jne	 SHORT $LN10@CheckCastl@3
  00036	84 d2		 test	 dl, dl
  00038	74 12		 je	 SHORT $LN11@CheckCastl@3
  0003a	8a 50 01	 mov	 dl, BYTE PTR [eax+1]
  0003d	3a 51 01	 cmp	 dl, BYTE PTR [ecx+1]
  00040	75 0e		 jne	 SHORT $LN10@CheckCastl@3
  00042	83 c0 02	 add	 eax, 2
  00045	83 c1 02	 add	 ecx, 2
  00048	84 d2		 test	 dl, dl
  0004a	75 e4		 jne	 SHORT $LL9@CheckCastl@3
$LN11@CheckCastl@3:
  0004c	33 c0		 xor	 eax, eax
  0004e	eb 05		 jmp	 SHORT $LN12@CheckCastl@3
$LN10@CheckCastl@3:
  00050	1b c0		 sbb	 eax, eax
  00052	83 d8 ff	 sbb	 eax, -1
$LN12@CheckCastl@3:
  00055	85 c0		 test	 eax, eax

; 4635 : 	{
; 4636 : 		return FALSE;

  00057	74 61		 je	 SHORT $LN22@CheckCastl@3

; 4637 : 	}
; 4638 : 
; 4639 : 	if ( strcmp(gObj[iIndex].GuildName, "") == 0 )

  00059	a1 00 00 00 00	 mov	 eax, DWORD PTR ?gObj@@3PAUOBJECTSTRUCT@@A ; gObj
  0005e	69 ff 50 2b 00
	00		 imul	 edi, 11088		; 00002b50H
  00064	8d 34 07	 lea	 esi, DWORD PTR [edi+eax]
  00067	b9 00 00 00 00	 mov	 ecx, OFFSET ??_C@_00CNPNBAHC@?$AA@
  0006c	8d 86 3c 04 00
	00		 lea	 eax, DWORD PTR [esi+1084]
$LL13@CheckCastl@3:
  00072	8a 10		 mov	 dl, BYTE PTR [eax]
  00074	3a 11		 cmp	 dl, BYTE PTR [ecx]
  00076	75 1a		 jne	 SHORT $LN14@CheckCastl@3
  00078	84 d2		 test	 dl, dl
  0007a	74 12		 je	 SHORT $LN15@CheckCastl@3
  0007c	8a 50 01	 mov	 dl, BYTE PTR [eax+1]
  0007f	3a 51 01	 cmp	 dl, BYTE PTR [ecx+1]
  00082	75 0e		 jne	 SHORT $LN14@CheckCastl@3
  00084	83 c0 02	 add	 eax, 2
  00087	83 c1 02	 add	 ecx, 2
  0008a	84 d2		 test	 dl, dl
  0008c	75 e4		 jne	 SHORT $LL13@CheckCastl@3
$LN15@CheckCastl@3:
  0008e	33 c0		 xor	 eax, eax
  00090	eb 05		 jmp	 SHORT $LN16@CheckCastl@3
$LN14@CheckCastl@3:
  00092	1b c0		 sbb	 eax, eax
  00094	83 d8 ff	 sbb	 eax, -1
$LN16@CheckCastl@3:
  00097	85 c0		 test	 eax, eax

; 4640 : 	{
; 4641 : 		return FALSE;

  00099	74 1f		 je	 SHORT $LN22@CheckCastl@3

; 4642 : 	}
; 4643 : 
; 4644 : 	lpGuildInfo = gObj[iIndex].lpGuild;

  0009b	8b 86 38 04 00
	00		 mov	 eax, DWORD PTR [esi+1080]

; 4645 : 
; 4646 : 	if ( lpGuildInfo == NULL )

  000a1	85 c0		 test	 eax, eax

; 4647 : 	{
; 4648 : 		return FALSE;

  000a3	74 15		 je	 SHORT $LN22@CheckCastl@3

; 4649 : 	}
; 4650 : 
; 4651 : 	pUnionInfo = UnionManager.SearchUnion(lpGuildInfo->iGuildUnion);

  000a5	8b 88 1c 07 00
	00		 mov	 ecx, DWORD PTR [eax+1820]
  000ab	51		 push	 ecx
  000ac	b9 00 00 00 00	 mov	 ecx, OFFSET ?UnionManager@@3VTUnion@@A ; UnionManager
  000b1	e8 00 00 00 00	 call	 ?SearchUnion@TUnion@@QAEPAVTUnionInfo@@H@Z ; TUnion::SearchUnion

; 4652 : 
; 4653 : 	if ( pUnionInfo == NULL )

  000b6	85 c0		 test	 eax, eax
  000b8	75 09		 jne	 SHORT $LN2@CheckCastl@3
$LN22@CheckCastl@3:
  000ba	5b		 pop	 ebx
  000bb	5f		 pop	 edi

; 4654 : 	{
; 4655 : 		return FALSE;

  000bc	33 c0		 xor	 eax, eax
  000be	5e		 pop	 esi

; 4659 : 	{
; 4660 : 		return TRUE;
; 4661 : 	}
; 4662 : 
; 4663 : 	return FALSE;
; 4664 : }

  000bf	5d		 pop	 ebp
  000c0	c2 04 00	 ret	 4
$LN2@CheckCastl@3:

; 4656 : 	}
; 4657 : 
; 4658 : 	if ( strcmp(pUnionInfo->m_szMasterGuild, this->m_szCastleOwnerGuild) == 0 )

  000c3	8b cb		 mov	 ecx, ebx
  000c5	83 c0 10	 add	 eax, 16			; 00000010H
$LL17@CheckCastl@3:
  000c8	8a 10		 mov	 dl, BYTE PTR [eax]
  000ca	3a 11		 cmp	 dl, BYTE PTR [ecx]
  000cc	75 28		 jne	 SHORT $LN18@CheckCastl@3
  000ce	84 d2		 test	 dl, dl
  000d0	74 12		 je	 SHORT $LN19@CheckCastl@3
  000d2	8a 50 01	 mov	 dl, BYTE PTR [eax+1]
  000d5	3a 51 01	 cmp	 dl, BYTE PTR [ecx+1]
  000d8	75 1c		 jne	 SHORT $LN18@CheckCastl@3
  000da	83 c0 02	 add	 eax, 2
  000dd	83 c1 02	 add	 ecx, 2
  000e0	84 d2		 test	 dl, dl
  000e2	75 e4		 jne	 SHORT $LL17@CheckCastl@3
$LN19@CheckCastl@3:
  000e4	33 c0		 xor	 eax, eax
  000e6	33 d2		 xor	 edx, edx
  000e8	85 c0		 test	 eax, eax
  000ea	0f 94 c2	 sete	 dl
  000ed	5b		 pop	 ebx
  000ee	5f		 pop	 edi
  000ef	5e		 pop	 esi
  000f0	8b c2		 mov	 eax, edx

; 4659 : 	{
; 4660 : 		return TRUE;
; 4661 : 	}
; 4662 : 
; 4663 : 	return FALSE;
; 4664 : }

  000f2	5d		 pop	 ebp
  000f3	c2 04 00	 ret	 4
$LN18@CheckCastl@3:

; 4656 : 	}
; 4657 : 
; 4658 : 	if ( strcmp(pUnionInfo->m_szMasterGuild, this->m_szCastleOwnerGuild) == 0 )

  000f6	1b c0		 sbb	 eax, eax
  000f8	83 d8 ff	 sbb	 eax, -1
  000fb	33 d2		 xor	 edx, edx
  000fd	85 c0		 test	 eax, eax
  000ff	0f 94 c2	 sete	 dl
  00102	5b		 pop	 ebx
  00103	5f		 pop	 edi
  00104	5e		 pop	 esi
  00105	8b c2		 mov	 eax, edx

; 4659 : 	{
; 4660 : 		return TRUE;
; 4661 : 	}
; 4662 : 
; 4663 : 	return FALSE;
; 4664 : }

  00107	5d		 pop	 ebp
  00108	c2 04 00	 ret	 4
?CheckCastleOwnerUnionMember@CCastleSiege@@QAEHH@Z ENDP	; CCastleSiege::CheckCastleOwnerUnionMember
_TEXT	ENDS
PUBLIC	?CheckGuardianStatueExist@CCastleSiege@@QAEHXZ	; CCastleSiege::CheckGuardianStatueExist
; Function compile flags: /Ogtp
;	COMDAT ?CheckGuardianStatueExist@CCastleSiege@@QAEHXZ
_TEXT	SEGMENT
?CheckGuardianStatueExist@CCastleSiege@@QAEHXZ PROC	; CCastleSiege::CheckGuardianStatueExist, COMDAT
; _this$ = ecx

; 4668 : 	for( int iIDX = 0; iIDX < OBJ_MAXMONSTER; iIDX++ )

  00000	8b 0d 00 00 00
	00		 mov	 ecx, DWORD PTR ?gObj@@3PAUOBJECTSTRUCT@@A ; gObj
  00006	33 d2		 xor	 edx, edx
  00008	83 c1 04	 add	 ecx, 4
  0000b	8d 42 01	 lea	 eax, DWORD PTR [edx+1]
  0000e	56		 push	 esi
  0000f	90		 npad	 1
$LL6@CheckGuard:

; 4669 : 	{
; 4670 : 		if ( gObj[iIDX].Class == 283 )

  00010	be 1b 01 00 00	 mov	 esi, 283		; 0000011bH
  00015	66 39 b1 b4 00
	00 00		 cmp	 WORD PTR [ecx+180], si
  0001c	75 13		 jne	 SHORT $LN5@CheckGuard

; 4671 : 		{
; 4672 : 			if ( gObj[iIDX].Connected > PLAYER_LOGGED && gObj[iIDX].Live == 1 )

  0001e	83 39 02	 cmp	 DWORD PTR [ecx], 2
  00021	7e 0e		 jle	 SHORT $LN5@CheckGuard
  00023	38 41 66	 cmp	 BYTE PTR [ecx+102], al
  00026	75 09		 jne	 SHORT $LN5@CheckGuard

; 4673 : 			{
; 4674 : 				if ( gObj[iIDX].MapNumber == MAP_INDEX_CASTLESIEGE )

  00028	80 b9 45 01 00
	00 1e		 cmp	 BYTE PTR [ecx+325], 30	; 0000001eH
  0002f	74 12		 je	 SHORT $LN7@CheckGuard
$LN5@CheckGuard:

; 4668 : 	for( int iIDX = 0; iIDX < OBJ_MAXMONSTER; iIDX++ )

  00031	03 d0		 add	 edx, eax
  00033	81 c1 50 2b 00
	00		 add	 ecx, 11088		; 00002b50H
  00039	81 fa c8 32 00
	00		 cmp	 edx, 13000		; 000032c8H
  0003f	7c cf		 jl	 SHORT $LL6@CheckGuard

; 4675 : 				{
; 4676 : 					return TRUE;
; 4677 : 				}
; 4678 : 			}
; 4679 : 		}
; 4680 : 	}
; 4681 : 
; 4682 : 	return FALSE;

  00041	33 c0		 xor	 eax, eax
$LN7@CheckGuard:
  00043	5e		 pop	 esi

; 4683 : }

  00044	c3		 ret	 0
?CheckGuardianStatueExist@CCastleSiege@@QAEHXZ ENDP	; CCastleSiege::CheckGuardianStatueExist
_TEXT	ENDS
PUBLIC	?CheckUnionGuildMaster@CCastleSiege@@QAEHH@Z	; CCastleSiege::CheckUnionGuildMaster
; Function compile flags: /Ogtp
;	COMDAT ?CheckUnionGuildMaster@CCastleSiege@@QAEHH@Z
_TEXT	SEGMENT
_iIndex$ = 8						; size = 4
?CheckUnionGuildMaster@CCastleSiege@@QAEHH@Z PROC	; CCastleSiege::CheckUnionGuildMaster, COMDAT
; _this$ = ecx

; 4925 : {

  00000	55		 push	 ebp
  00001	8b ec		 mov	 ebp, esp
  00003	56		 push	 esi

; 4926 : 	_GUILD_INFO_STRUCT* lpGuildInfo;
; 4927 : 
; 4928 : 	if ( gObjIsConnected(iIndex) == FALSE )

  00004	8b 75 08	 mov	 esi, DWORD PTR _iIndex$[ebp]
  00007	56		 push	 esi
  00008	e8 00 00 00 00	 call	 ?gObjIsConnected@@YAHH@Z ; gObjIsConnected
  0000d	83 c4 04	 add	 esp, 4
  00010	85 c0		 test	 eax, eax

; 4929 : 	{
; 4930 : 		return FALSE;

  00012	74 3c		 je	 SHORT $LN2@CheckUnion

; 4931 : 	}
; 4932 : 
; 4933 : 	lpGuildInfo = gObj[iIndex].lpGuild;

  00014	a1 00 00 00 00	 mov	 eax, DWORD PTR ?gObj@@3PAUOBJECTSTRUCT@@A ; gObj
  00019	69 f6 50 2b 00
	00		 imul	 esi, 11088		; 00002b50H
  0001f	8d 0c 06	 lea	 ecx, DWORD PTR [esi+eax]
  00022	8b 81 38 04 00
	00		 mov	 eax, DWORD PTR [ecx+1080]

; 4934 : 
; 4935 : 	if ( lpGuildInfo == NULL )

  00028	85 c0		 test	 eax, eax

; 4936 : 	{
; 4937 : 		return FALSE;

  0002a	74 24		 je	 SHORT $LN2@CheckUnion

; 4938 : 	}
; 4939 : 
; 4940 : 	if ( gObj[iIndex].GuildStatus == GUILD_MASTER )

  0002c	81 b9 48 04 00
	00 80 00 00 00	 cmp	 DWORD PTR [ecx+1096], 128 ; 00000080H
  00036	75 18		 jne	 SHORT $LN2@CheckUnion

; 4941 : 	{
; 4942 : 		if ( (lpGuildInfo->Number == lpGuildInfo->iGuildUnion) || (lpGuildInfo->iGuildUnion == 0) )

  00038	8b 88 1c 07 00
	00		 mov	 ecx, DWORD PTR [eax+1820]
  0003e	39 08		 cmp	 DWORD PTR [eax], ecx
  00040	74 04		 je	 SHORT $LN1@CheckUnion
  00042	85 c9		 test	 ecx, ecx
  00044	75 0a		 jne	 SHORT $LN2@CheckUnion
$LN1@CheckUnion:

; 4943 : 		{
; 4944 : 			return TRUE;

  00046	b8 01 00 00 00	 mov	 eax, 1
  0004b	5e		 pop	 esi

; 4949 : }

  0004c	5d		 pop	 ebp
  0004d	c2 04 00	 ret	 4
$LN2@CheckUnion:

; 4945 : 		}
; 4946 : 	}
; 4947 : 
; 4948 : 	return FALSE;

  00050	33 c0		 xor	 eax, eax
  00052	5e		 pop	 esi

; 4949 : }

  00053	5d		 pop	 ebp
  00054	c2 04 00	 ret	 4
?CheckUnionGuildMaster@CCastleSiege@@QAEHH@Z ENDP	; CCastleSiege::CheckUnionGuildMaster
_TEXT	ENDS
PUBLIC	?SetCrownSwitchUserIndex@CCastleSiege@@QAEXHH@Z	; CCastleSiege::SetCrownSwitchUserIndex
; Function compile flags: /Ogtp
;	COMDAT ?SetCrownSwitchUserIndex@CCastleSiege@@QAEXHH@Z
_TEXT	SEGMENT
_iMonsterClass$ = 8					; size = 4
_iIndex$ = 12						; size = 4
?SetCrownSwitchUserIndex@CCastleSiege@@QAEXHH@Z PROC	; CCastleSiege::SetCrownSwitchUserIndex, COMDAT
; _this$ = ecx

; 4952 : {

  00000	55		 push	 ebp
  00001	8b ec		 mov	 ebp, esp

; 4953 : 	switch( iMonsterClass )

  00003	8b 45 08	 mov	 eax, DWORD PTR _iMonsterClass$[ebp]
  00006	2d d9 00 00 00	 sub	 eax, 217		; 000000d9H
  0000b	74 10		 je	 SHORT $LN2@SetCrownSw
  0000d	48		 dec	 eax
  0000e	75 16		 jne	 SHORT $LN3@SetCrownSw

; 4957 : 		break;
; 4958 : 	case 218:
; 4959 : 			this->m_iCastleSwitchAccessUser2 = iIndex;

  00010	8b 45 0c	 mov	 eax, DWORD PTR _iIndex$[ebp]
  00013	89 81 fc 01 00
	00		 mov	 DWORD PTR [ecx+508], eax

; 4960 : 		break;
; 4961 : 	}
; 4962 : }

  00019	5d		 pop	 ebp
  0001a	c2 08 00	 ret	 8
$LN2@SetCrownSw:

; 4954 : 	{
; 4955 : 	case 217:
; 4956 : 			this->m_iCastleSwitchAccessUser1 = iIndex;

  0001d	8b 55 0c	 mov	 edx, DWORD PTR _iIndex$[ebp]
  00020	89 91 f8 01 00
	00		 mov	 DWORD PTR [ecx+504], edx
$LN3@SetCrownSw:

; 4960 : 		break;
; 4961 : 	}
; 4962 : }

  00026	5d		 pop	 ebp
  00027	c2 08 00	 ret	 8
?SetCrownSwitchUserIndex@CCastleSiege@@QAEXHH@Z ENDP	; CCastleSiege::SetCrownSwitchUserIndex
_TEXT	ENDS
PUBLIC	?GetCrownSwitchUserIndex@CCastleSiege@@QAEHH@Z	; CCastleSiege::GetCrownSwitchUserIndex
; Function compile flags: /Ogtp
;	COMDAT ?GetCrownSwitchUserIndex@CCastleSiege@@QAEHH@Z
_TEXT	SEGMENT
_iMonsterClass$ = 8					; size = 4
?GetCrownSwitchUserIndex@CCastleSiege@@QAEHH@Z PROC	; CCastleSiege::GetCrownSwitchUserIndex, COMDAT
; _this$ = ecx

; 4965 : {

  00000	55		 push	 ebp
  00001	8b ec		 mov	 ebp, esp

; 4966 : 	int iUserIndex = OBJ_EMPTY;
; 4967 : 
; 4968 : 	switch( iMonsterClass )

  00003	8b 55 08	 mov	 edx, DWORD PTR _iMonsterClass$[ebp]
  00006	83 c8 ff	 or	 eax, -1
  00009	81 ea d9 00 00
	00		 sub	 edx, 217		; 000000d9H
  0000f	74 0d		 je	 SHORT $LN2@GetCrownSw
  00011	4a		 dec	 edx
  00012	75 10		 jne	 SHORT $LN3@GetCrownSw

; 4969 : 	{
; 4970 : 	case 217:
; 4971 : 			iUserIndex = this->m_iCastleSwitchAccessUser1;
; 4972 : 		break;
; 4973 : 	case 218:
; 4974 : 			iUserIndex = this->m_iCastleSwitchAccessUser2;
; 4975 : 		break;
; 4976 : 	}
; 4977 : 
; 4978 : 	return iUserIndex;

  00014	8b 81 fc 01 00
	00		 mov	 eax, DWORD PTR [ecx+508]

; 4979 : }

  0001a	5d		 pop	 ebp
  0001b	c2 04 00	 ret	 4
$LN2@GetCrownSw:

; 4969 : 	{
; 4970 : 	case 217:
; 4971 : 			iUserIndex = this->m_iCastleSwitchAccessUser1;
; 4972 : 		break;
; 4973 : 	case 218:
; 4974 : 			iUserIndex = this->m_iCastleSwitchAccessUser2;
; 4975 : 		break;
; 4976 : 	}
; 4977 : 
; 4978 : 	return iUserIndex;

  0001e	8b 81 f8 01 00
	00		 mov	 eax, DWORD PTR [ecx+504]
$LN3@GetCrownSw:

; 4979 : }

  00024	5d		 pop	 ebp
  00025	c2 04 00	 ret	 4
?GetCrownSwitchUserIndex@CCastleSiege@@QAEHH@Z ENDP	; CCastleSiege::GetCrownSwitchUserIndex
_TEXT	ENDS
PUBLIC	?ResetCrownSwitchUserIndex@CCastleSiege@@QAEXH@Z ; CCastleSiege::ResetCrownSwitchUserIndex
; Function compile flags: /Ogtp
;	COMDAT ?ResetCrownSwitchUserIndex@CCastleSiege@@QAEXH@Z
_TEXT	SEGMENT
_iMonsterClass$ = 8					; size = 4
?ResetCrownSwitchUserIndex@CCastleSiege@@QAEXH@Z PROC	; CCastleSiege::ResetCrownSwitchUserIndex, COMDAT
; _this$ = ecx

; 4982 : {

  00000	55		 push	 ebp
  00001	8b ec		 mov	 ebp, esp

; 4983 : 	switch( iMonsterClass )

  00003	8b 45 08	 mov	 eax, DWORD PTR _iMonsterClass$[ebp]
  00006	2d d9 00 00 00	 sub	 eax, 217		; 000000d9H
  0000b	74 11		 je	 SHORT $LN2@ResetCrown
  0000d	48		 dec	 eax
  0000e	75 18		 jne	 SHORT $LN3@ResetCrown

; 4987 : 		break;
; 4988 : 	case 218:
; 4989 : 			this->m_iCastleSwitchAccessUser2 = OBJ_EMPTY;

  00010	c7 81 fc 01 00
	00 ff ff ff ff	 mov	 DWORD PTR [ecx+508], -1

; 4990 : 		break;
; 4991 : 	}
; 4992 : }

  0001a	5d		 pop	 ebp
  0001b	c2 04 00	 ret	 4
$LN2@ResetCrown:

; 4984 : 	{
; 4985 : 	case 217:
; 4986 : 			this->m_iCastleSwitchAccessUser1 = OBJ_EMPTY;

  0001e	c7 81 f8 01 00
	00 ff ff ff ff	 mov	 DWORD PTR [ecx+504], -1
$LN3@ResetCrown:

; 4990 : 		break;
; 4991 : 	}
; 4992 : }

  00028	5d		 pop	 ebp
  00029	c2 04 00	 ret	 4
?ResetCrownSwitchUserIndex@CCastleSiege@@QAEXH@Z ENDP	; CCastleSiege::ResetCrownSwitchUserIndex
_TEXT	ENDS
PUBLIC	?SetCrownAccessTickCount@CCastleSiege@@QAEXXZ	; CCastleSiege::SetCrownAccessTickCount
; Function compile flags: /Ogtp
;	COMDAT ?SetCrownAccessTickCount@CCastleSiege@@QAEXXZ
_TEXT	SEGMENT
?SetCrownAccessTickCount@CCastleSiege@@QAEXXZ PROC	; CCastleSiege::SetCrownAccessTickCount, COMDAT
; _this$ = ecx

; 4995 : {

  00000	56		 push	 esi
  00001	8b f1		 mov	 esi, ecx

; 4996 : 	this->m_dwCrownAccessTime = GetTickCount();

  00003	ff 15 00 00 00
	00		 call	 DWORD PTR __imp__GetTickCount@0
  00009	89 86 00 02 00
	00		 mov	 DWORD PTR [esi+512], eax
  0000f	5e		 pop	 esi

; 4997 : }

  00010	c3		 ret	 0
?SetCrownAccessTickCount@CCastleSiege@@QAEXXZ ENDP	; CCastleSiege::SetCrownAccessTickCount
_TEXT	ENDS
PUBLIC	?ResetCrownAccessTickCount@CCastleSiege@@QAEXXZ	; CCastleSiege::ResetCrownAccessTickCount
; Function compile flags: /Ogtp
;	COMDAT ?ResetCrownAccessTickCount@CCastleSiege@@QAEXXZ
_TEXT	SEGMENT
?ResetCrownAccessTickCount@CCastleSiege@@QAEXXZ PROC	; CCastleSiege::ResetCrownAccessTickCount, COMDAT
; _this$ = ecx

; 5001 : 	this->m_dwCrownAccessTime = 0;

  00000	c7 81 00 02 00
	00 00 00 00 00	 mov	 DWORD PTR [ecx+512], 0

; 5002 : }

  0000a	c3		 ret	 0
?ResetCrownAccessTickCount@CCastleSiege@@QAEXXZ ENDP	; CCastleSiege::ResetCrownAccessTickCount
_TEXT	ENDS
PUBLIC	?CheckOverlapCsMarks@CCastleSiege@@QAEHH@Z	; CCastleSiege::CheckOverlapCsMarks
; Function compile flags: /Ogtp
;	COMDAT ?CheckOverlapCsMarks@CCastleSiege@@QAEHH@Z
_TEXT	SEGMENT
_x$216497 = -4						; size = 4
_iIndex$ = 8						; size = 4
?CheckOverlapCsMarks@CCastleSiege@@QAEHH@Z PROC		; CCastleSiege::CheckOverlapCsMarks, COMDAT
; _this$ = ecx

; 5005 : {

  00000	55		 push	 ebp
  00001	8b ec		 mov	 ebp, esp
  00003	51		 push	 ecx
  00004	53		 push	 ebx

; 5006 : 	for( int x = INVETORY_WEAR_SIZE; x < MAIN_INVENTORY_SIZE; x++ )

  00005	8b 5d 08	 mov	 ebx, DWORD PTR _iIndex$[ebp]
  00008	56		 push	 esi
  00009	69 db 50 2b 00
	00		 imul	 ebx, 11088		; 00002b50H
  0000f	57		 push	 edi
  00010	8b 3d 00 00 00
	00		 mov	 edi, DWORD PTR ?gObj@@3PAUOBJECTSTRUCT@@A ; gObj
  00016	c7 45 fc 0c 00
	00 00		 mov	 DWORD PTR _x$216497[ebp], 12 ; 0000000cH
  0001d	be f0 09 00 00	 mov	 esi, 2544		; 000009f0H
$LL6@CheckOverl:

; 5007 : 	{
; 5008 : 		if ( gObj[iIndex].pInventory[x].IsItem() == TRUE )

  00022	8b 8c 3b 24 0e
	00 00		 mov	 ecx, DWORD PTR [ebx+edi+3620]
  00029	03 ce		 add	 ecx, esi
  0002b	e8 00 00 00 00	 call	 ?IsItem@CItem@@QAEHXZ	; CItem::IsItem
  00030	8b 3d 00 00 00
	00		 mov	 edi, DWORD PTR ?gObj@@3PAUOBJECTSTRUCT@@A ; gObj
  00036	83 f8 01	 cmp	 eax, 1
  00039	75 38		 jne	 SHORT $LN5@CheckOverl

; 5009 : 		{
; 5010 : 			if ( (gObj[iIndex].pInventory[x].m_Type == ITEMGET(14,21)) && (gObj[iIndex].pInventory[x].m_Level == 3) )

  0003b	8b 84 3b 24 0e
	00 00		 mov	 eax, DWORD PTR [ebx+edi+3620]
  00042	b9 15 1c 00 00	 mov	 ecx, 7189		; 00001c15H
  00047	66 39 4c 30 06	 cmp	 WORD PTR [eax+esi+6], cx
  0004c	75 25		 jne	 SHORT $LN5@CheckOverl
  0004e	66 83 7c 30 08
	03		 cmp	 WORD PTR [eax+esi+8], 3
  00054	75 1d		 jne	 SHORT $LN5@CheckOverl

; 5011 : 			{
; 5012 : 				int dur = gObj[iIndex].pInventory[x].m_Durability;

  00056	d9 44 30 24	 fld	 DWORD PTR [eax+esi+36]
  0005a	e8 00 00 00 00	 call	 __ftol2_sse

; 5013 : 
; 5014 : 				if ( ITEM_DUR_RANGE(dur) )

  0005f	85 c0		 test	 eax, eax
  00061	78 10		 js	 SHORT $LN5@CheckOverl
  00063	33 d2		 xor	 edx, edx
  00065	3d fe 00 00 00	 cmp	 eax, 254		; 000000feH
  0006a	0f 9e c2	 setle	 dl
  0006d	8b c2		 mov	 eax, edx
  0006f	85 c0		 test	 eax, eax
  00071	75 1d		 jne	 SHORT $LN12@CheckOverl
$LN5@CheckOverl:

; 5006 : 	for( int x = INVETORY_WEAR_SIZE; x < MAIN_INVENTORY_SIZE; x++ )

  00073	ff 45 fc	 inc	 DWORD PTR _x$216497[ebp]
  00076	81 c6 d4 00 00
	00		 add	 esi, 212		; 000000d4H
  0007c	81 fe f0 a8 00
	00		 cmp	 esi, 43248		; 0000a8f0H
  00082	7c 9e		 jl	 SHORT $LL6@CheckOverl

; 5017 : 				}
; 5018 : 			}
; 5019 : 		}
; 5020 : 	}
; 5021 : 	return -1;

  00084	5f		 pop	 edi
  00085	5e		 pop	 esi
  00086	83 c8 ff	 or	 eax, -1
  00089	5b		 pop	 ebx

; 5022 : }

  0008a	8b e5		 mov	 esp, ebp
  0008c	5d		 pop	 ebp
  0008d	c2 04 00	 ret	 4
$LN12@CheckOverl:

; 5015 : 				{
; 5016 : 					return x;

  00090	8b 45 fc	 mov	 eax, DWORD PTR _x$216497[ebp]
  00093	5f		 pop	 edi
  00094	5e		 pop	 esi
  00095	5b		 pop	 ebx

; 5022 : }

  00096	8b e5		 mov	 esp, ebp
  00098	5d		 pop	 ebp
  00099	c2 04 00	 ret	 4
?CheckOverlapCsMarks@CCastleSiege@@QAEHH@Z ENDP		; CCastleSiege::CheckOverlapCsMarks
_TEXT	ENDS
PUBLIC	?CheckTeleportMagicAxisY@CCastleSiege@@QAEHHHH@Z ; CCastleSiege::CheckTeleportMagicAxisY
; Function compile flags: /Ogtp
;	COMDAT ?CheckTeleportMagicAxisY@CCastleSiege@@QAEHHHH@Z
_TEXT	SEGMENT
_iStartY$ = 8						; size = 4
_iTargetX$ = 12						; size = 4
_iTargetY$ = 16						; size = 4
?CheckTeleportMagicAxisY@CCastleSiege@@QAEHHHH@Z PROC	; CCastleSiege::CheckTeleportMagicAxisY, COMDAT
; _this$ = ecx

; 5063 : {

  00000	55		 push	 ebp
  00001	8b ec		 mov	 ebp, esp

; 5064 : 	for( int iSTEP = 0; iSTEP < 3; iSTEP++ )

  00003	8b 55 08	 mov	 edx, DWORD PTR _iStartY$[ebp]
  00006	56		 push	 esi
  00007	8b 75 10	 mov	 esi, DWORD PTR _iTargetY$[ebp]
  0000a	57		 push	 edi
  0000b	8b 7d 0c	 mov	 edi, DWORD PTR _iTargetX$[ebp]
  0000e	b9 00 00 00 00	 mov	 ecx, OFFSET _g_iCastleWallStepAxisY
$LL4@CheckTelep:

; 5065 : 	{
; 5066 : 		if ( (g_iCastleWallStepAxisY[iSTEP] >= iStartY) && (g_iCastleWallStepAxisY[iSTEP] <= iTargetY) && (iTargetX < 144) )

  00013	8b 01		 mov	 eax, DWORD PTR [ecx]
  00015	3b c2		 cmp	 eax, edx
  00017	7c 0c		 jl	 SHORT $LN3@CheckTelep
  00019	3b c6		 cmp	 eax, esi
  0001b	7f 08		 jg	 SHORT $LN3@CheckTelep
  0001d	81 ff 90 00 00
	00		 cmp	 edi, 144		; 00000090H
  00023	7c 16		 jl	 SHORT $LN8@CheckTelep
$LN3@CheckTelep:

; 5064 : 	for( int iSTEP = 0; iSTEP < 3; iSTEP++ )

  00025	83 c1 04	 add	 ecx, 4
  00028	81 f9 0c 00 00
	00		 cmp	 ecx, OFFSET _g_iCastleWallStepAxisY+12
  0002e	7c e3		 jl	 SHORT $LL4@CheckTelep

; 5069 : 		}
; 5070 : 	}
; 5071 : 	return TRUE;

  00030	5f		 pop	 edi
  00031	b8 01 00 00 00	 mov	 eax, 1
  00036	5e		 pop	 esi

; 5072 : }

  00037	5d		 pop	 ebp
  00038	c2 0c 00	 ret	 12			; 0000000cH
$LN8@CheckTelep:
  0003b	5f		 pop	 edi

; 5067 : 		{
; 5068 : 			return FALSE;

  0003c	33 c0		 xor	 eax, eax
  0003e	5e		 pop	 esi

; 5072 : }

  0003f	5d		 pop	 ebp
  00040	c2 0c 00	 ret	 12			; 0000000cH
?CheckTeleportMagicAxisY@CCastleSiege@@QAEHHHH@Z ENDP	; CCastleSiege::CheckTeleportMagicAxisY
_TEXT	ENDS
PUBLIC	?NotifyCsSelfLeftTime@CCastleSiege@@QAEXH@Z	; CCastleSiege::NotifyCsSelfLeftTime
EXTRN	?GCAnsSelfCsLeftTimeAlarm@@YAXHEE@Z:PROC	; GCAnsSelfCsLeftTimeAlarm
; Function compile flags: /Ogtp
;	COMDAT ?NotifyCsSelfLeftTime@CCastleSiege@@QAEXH@Z
_TEXT	SEGMENT
_iIndex$ = 8						; size = 4
?NotifyCsSelfLeftTime@CCastleSiege@@QAEXH@Z PROC	; CCastleSiege::NotifyCsSelfLeftTime, COMDAT
; _this$ = ecx

; 5075 : {

  00000	55		 push	 ebp
  00001	8b ec		 mov	 ebp, esp

; 5076 : 	GCAnsSelfCsLeftTimeAlarm(iIndex, (this->m_iCS_REMAIN_MSEC/1000)/3600, ((this->m_iCS_REMAIN_MSEC/1000)%3600)/60);

  00003	8b 49 68	 mov	 ecx, DWORD PTR [ecx+104]
  00006	b8 d3 4d 62 10	 mov	 eax, 274877907		; 10624dd3H
  0000b	f7 e9		 imul	 ecx
  0000d	c1 fa 06	 sar	 edx, 6
  00010	8b c2		 mov	 eax, edx
  00012	c1 e8 1f	 shr	 eax, 31			; 0000001fH
  00015	03 c2		 add	 eax, edx
  00017	99		 cdq
  00018	b9 10 0e 00 00	 mov	 ecx, 3600		; 00000e10H
  0001d	f7 f9		 idiv	 ecx
  0001f	56		 push	 esi
  00020	8b f0		 mov	 esi, eax
  00022	8b ca		 mov	 ecx, edx
  00024	b8 89 88 88 88	 mov	 eax, -2004318071	; 88888889H
  00029	f7 e9		 imul	 ecx
  0002b	03 d1		 add	 edx, ecx
  0002d	8b 4d 08	 mov	 ecx, DWORD PTR _iIndex$[ebp]
  00030	c1 fa 05	 sar	 edx, 5
  00033	8b c2		 mov	 eax, edx
  00035	c1 e8 1f	 shr	 eax, 31			; 0000001fH
  00038	03 c2		 add	 eax, edx
  0003a	50		 push	 eax
  0003b	56		 push	 esi
  0003c	51		 push	 ecx
  0003d	e8 00 00 00 00	 call	 ?GCAnsSelfCsLeftTimeAlarm@@YAXHEE@Z ; GCAnsSelfCsLeftTimeAlarm
  00042	83 c4 0c	 add	 esp, 12			; 0000000cH
  00045	5e		 pop	 esi

; 5077 : }

  00046	5d		 pop	 ebp
  00047	c2 04 00	 ret	 4
?NotifyCsSelfLeftTime@CCastleSiege@@QAEXH@Z ENDP	; CCastleSiege::NotifyCsSelfLeftTime
_TEXT	ENDS
PUBLIC	?ReSpawnAllUser@CCastleSiege@@QAEXXZ		; CCastleSiege::ReSpawnAllUser
EXTRN	?gObjViewportListProtocolCreate@@YAXPAUOBJECTSTRUCT@@@Z:PROC ; gObjViewportListProtocolCreate
EXTRN	?GCTeleportSend@@YAXPAUOBJECTSTRUCT@@HEEEE@Z:PROC ; GCTeleportSend
EXTRN	?gObjClearViewport@@YAXPAUOBJECTSTRUCT@@@Z:PROC	; gObjClearViewport
EXTRN	_rand:PROC
; Function compile flags: /Ogtp
;	COMDAT ?ReSpawnAllUser@CCastleSiege@@QAEXXZ
_TEXT	SEGMENT
_iCNT$216637 = -12					; size = 4
_iCNT$216631 = -12					; size = 4
_iCNT$216625 = -12					; size = 4
_iUSER$216610 = -8					; size = 4
_iTY$ = -4						; size = 4
?ReSpawnAllUser@CCastleSiege@@QAEXXZ PROC		; CCastleSiege::ReSpawnAllUser, COMDAT
; _this$ = ecx

; 5230 : {

  00000	55		 push	 ebp
  00001	8b ec		 mov	 ebp, esp
  00003	83 ec 0c	 sub	 esp, 12			; 0000000cH
  00006	53		 push	 ebx
  00007	56		 push	 esi
  00008	57		 push	 edi

; 5231 : 	int iTX, iTY;
; 5232 : 	BYTE btMapAttr;
; 5233 : 
; 5234 : 	for( int iUSER = OBJ_STARTUSERINDZT; iUSER < OBJMAX; iUSER++ )

  00009	c7 45 f8 b0 36
	00 00		 mov	 DWORD PTR _iUSER$216610[ebp], 14000 ; 000036b0H
  00010	be 00 a7 40 09	 mov	 esi, 155232000		; 0940a700H
$LL26@ReSpawnAll:

; 5235 : 	{
; 5236 : 		if ( gObjIsConnected(iUSER) == FALSE )

  00015	8b 45 f8	 mov	 eax, DWORD PTR _iUSER$216610[ebp]
  00018	50		 push	 eax
  00019	e8 00 00 00 00	 call	 ?gObjIsConnected@@YAHH@Z ; gObjIsConnected
  0001e	83 c4 04	 add	 esp, 4
  00021	85 c0		 test	 eax, eax
  00023	0f 84 44 02 00
	00		 je	 $LN25@ReSpawnAll

; 5237 : 		{
; 5238 : 			continue;
; 5239 : 		}
; 5240 : 
; 5241 : 		if ( gObj[iUSER].MapNumber != MAP_INDEX_CASTLESIEGE )

  00029	a1 00 00 00 00	 mov	 eax, DWORD PTR ?gObj@@3PAUOBJECTSTRUCT@@A ; gObj
  0002e	80 bc 06 49 01
	00 00 1e	 cmp	 BYTE PTR [esi+eax+329], 30 ; 0000001eH
  00036	0f 85 31 02 00
	00		 jne	 $LN25@ReSpawnAll

; 5242 : 		{
; 5243 : 			continue;
; 5244 : 		}
; 5245 : 
; 5246 : 		BYTE btJoinSide = gObj[iUSER].m_btCsJoinSide;

  0003c	8a 84 06 02 1c
	00 00		 mov	 al, BYTE PTR [esi+eax+7170]

; 5247 : 
; 5248 : 		if ( btJoinSide < 0 ) 
; 5249 : 		{
; 5250 : 			btJoinSide = 0;
; 5251 : 		}
; 5252 : 
; 5253 : 		if ( btJoinSide > 2 )

  00043	3c 02		 cmp	 al, 2
  00045	76 02		 jbe	 SHORT $LN20@ReSpawnAll

; 5254 : 		{
; 5255 : 			btJoinSide = 2;

  00047	b0 02		 mov	 al, 2
$LN20@ReSpawnAll:

; 5256 : 		}
; 5257 : 
; 5258 : 		BOOL bMoveOK = FALSE;
; 5259 : 
; 5260 : 		switch( btJoinSide )

  00049	0f b6 c0	 movzx	 eax, al
  0004c	48		 dec	 eax

; 5289 : 					{
; 5290 : 						bMoveOK = TRUE;
; 5291 : 						break;
; 5292 : 					}
; 5293 : 				}
; 5294 : 			}
; 5295 : 			break;
; 5296 : 		default:
; 5297 : 			{
; 5298 : 				for(int iCNT = 0; iCNT < 100; iCNT++)

  0004d	c7 45 f4 00 00
	00 00		 mov	 DWORD PTR _iCNT$216637[ebp], 0
  00054	0f 84 ba 00 00
	00		 je	 $LL16@ReSpawnAll

; 5256 : 		}
; 5257 : 
; 5258 : 		BOOL bMoveOK = FALSE;
; 5259 : 
; 5260 : 		switch( btJoinSide )

  0005a	48		 dec	 eax
  0005b	74 63		 je	 SHORT $LL11@ReSpawnAll
  0005d	8d 49 00	 npad	 3
$LL6@ReSpawnAll:

; 5299 : 				{
; 5300 : 					iTX = (rand() % (g_iCsUserReSpawnArea[0][2] - g_iCsUserReSpawnArea[0][0])) + g_iCsUserReSpawnArea[0][0];

  00060	e8 00 00 00 00	 call	 _rand
  00065	8b 0d 00 00 00
	00		 mov	 ecx, DWORD PTR _g_iCsUserReSpawnArea
  0006b	8b 3d 08 00 00
	00		 mov	 edi, DWORD PTR _g_iCsUserReSpawnArea+8
  00071	99		 cdq
  00072	2b f9		 sub	 edi, ecx
  00074	f7 ff		 idiv	 edi
  00076	8d 1c 11	 lea	 ebx, DWORD PTR [ecx+edx]

; 5301 : 					iTY = (rand() % (g_iCsUserReSpawnArea[0][3] - g_iCsUserReSpawnArea[0][1])) + g_iCsUserReSpawnArea[0][1];

  00079	e8 00 00 00 00	 call	 _rand
  0007e	8b 0d 04 00 00
	00		 mov	 ecx, DWORD PTR _g_iCsUserReSpawnArea+4
  00084	8b 3d 0c 00 00
	00		 mov	 edi, DWORD PTR _g_iCsUserReSpawnArea+12
  0008a	2b f9		 sub	 edi, ecx
  0008c	99		 cdq
  0008d	f7 ff		 idiv	 edi
  0008f	03 d1		 add	 edx, ecx

; 5302 : 
; 5303 : 					btMapAttr = MapC[MAP_INDEX_CASTLESIEGE].m_attrbuf[iTY * 256 + iTX];

  00091	8b ca		 mov	 ecx, edx
  00093	c1 e1 08	 shl	 ecx, 8
  00096	03 0d 80 2e 9d
	00		 add	 ecx, DWORD PTR ?MapC@@3PAVMapClass@@A+10301056
  0009c	89 55 fc	 mov	 DWORD PTR _iTY$[ebp], edx

; 5304 : 
; 5305 : 					if ((btMapAttr & 4) != 4)

  0009f	f6 04 19 04	 test	 BYTE PTR [ecx+ebx], 4
  000a3	0f 84 c2 00 00
	00		 je	 $LN45@ReSpawnAll

; 5289 : 					{
; 5290 : 						bMoveOK = TRUE;
; 5291 : 						break;
; 5292 : 					}
; 5293 : 				}
; 5294 : 			}
; 5295 : 			break;
; 5296 : 		default:
; 5297 : 			{
; 5298 : 				for(int iCNT = 0; iCNT < 100; iCNT++)

  000a9	8b 45 f4	 mov	 eax, DWORD PTR _iCNT$216637[ebp]
  000ac	40		 inc	 eax
  000ad	89 45 f4	 mov	 DWORD PTR _iCNT$216637[ebp], eax
  000b0	83 f8 64	 cmp	 eax, 100		; 00000064H
  000b3	7c ab		 jl	 SHORT $LL6@ReSpawnAll

; 5270 : 
; 5271 : 					if ((btMapAttr & 4) != 4)

  000b5	e9 b3 01 00 00	 jmp	 $LN25@ReSpawnAll
  000ba	8d 9b 00 00 00
	00		 npad	 6
$LL11@ReSpawnAll:

; 5282 : 				{
; 5283 : 					iTX = (rand() % (g_iCsUserReSpawnArea[2][2] - g_iCsUserReSpawnArea[2][0])) + g_iCsUserReSpawnArea[2][0];

  000c0	e8 00 00 00 00	 call	 _rand
  000c5	8b 0d 20 00 00
	00		 mov	 ecx, DWORD PTR _g_iCsUserReSpawnArea+32
  000cb	8b 3d 28 00 00
	00		 mov	 edi, DWORD PTR _g_iCsUserReSpawnArea+40
  000d1	99		 cdq
  000d2	2b f9		 sub	 edi, ecx
  000d4	f7 ff		 idiv	 edi
  000d6	8d 1c 11	 lea	 ebx, DWORD PTR [ecx+edx]

; 5284 : 					iTY = (rand() % (g_iCsUserReSpawnArea[2][3] - g_iCsUserReSpawnArea[2][1])) + g_iCsUserReSpawnArea[2][1];

  000d9	e8 00 00 00 00	 call	 _rand
  000de	8b 0d 24 00 00
	00		 mov	 ecx, DWORD PTR _g_iCsUserReSpawnArea+36
  000e4	8b 3d 2c 00 00
	00		 mov	 edi, DWORD PTR _g_iCsUserReSpawnArea+44
  000ea	2b f9		 sub	 edi, ecx
  000ec	99		 cdq
  000ed	f7 ff		 idiv	 edi
  000ef	03 d1		 add	 edx, ecx
  000f1	89 55 fc	 mov	 DWORD PTR _iTY$[ebp], edx

; 5285 : 
; 5286 : 					btMapAttr = MapC[MAP_INDEX_CASTLESIEGE].m_attrbuf[iTY * 256 + iTX];

  000f4	c1 e2 08	 shl	 edx, 8
  000f7	03 15 80 2e 9d
	00		 add	 edx, DWORD PTR ?MapC@@3PAVMapClass@@A+10301056

; 5287 : 
; 5288 : 					if ((btMapAttr & 4) != 4)

  000fd	f6 04 1a 04	 test	 BYTE PTR [edx+ebx], 4
  00101	74 65		 je	 SHORT $LN43@ReSpawnAll

; 5272 : 					{
; 5273 : 						bMoveOK = TRUE;
; 5274 : 						break;
; 5275 : 					}
; 5276 : 				}
; 5277 : 			}
; 5278 : 			break;
; 5279 : 		case 2:
; 5280 : 			{
; 5281 : 				for(int iCNT = 0; iCNT < 100; iCNT++)

  00103	8b 45 f4	 mov	 eax, DWORD PTR _iCNT$216631[ebp]
  00106	40		 inc	 eax
  00107	89 45 f4	 mov	 DWORD PTR _iCNT$216631[ebp], eax
  0010a	83 f8 64	 cmp	 eax, 100		; 00000064H
  0010d	7c b1		 jl	 SHORT $LL11@ReSpawnAll

; 5270 : 
; 5271 : 					if ((btMapAttr & 4) != 4)

  0010f	e9 59 01 00 00	 jmp	 $LN25@ReSpawnAll
$LL16@ReSpawnAll:

; 5265 : 				{
; 5266 : 					iTX = (rand() % (g_iCsUserReSpawnArea[1][2] - g_iCsUserReSpawnArea[1][0])) + g_iCsUserReSpawnArea[1][0];

  00114	e8 00 00 00 00	 call	 _rand
  00119	8b 0d 10 00 00
	00		 mov	 ecx, DWORD PTR _g_iCsUserReSpawnArea+16
  0011f	8b 3d 18 00 00
	00		 mov	 edi, DWORD PTR _g_iCsUserReSpawnArea+24
  00125	99		 cdq
  00126	2b f9		 sub	 edi, ecx
  00128	f7 ff		 idiv	 edi
  0012a	8d 1c 11	 lea	 ebx, DWORD PTR [ecx+edx]

; 5267 : 					iTY = (rand() % (g_iCsUserReSpawnArea[1][3] - g_iCsUserReSpawnArea[1][1])) + g_iCsUserReSpawnArea[1][1];

  0012d	e8 00 00 00 00	 call	 _rand
  00132	8b 0d 14 00 00
	00		 mov	 ecx, DWORD PTR _g_iCsUserReSpawnArea+20
  00138	8b 3d 1c 00 00
	00		 mov	 edi, DWORD PTR _g_iCsUserReSpawnArea+28
  0013e	2b f9		 sub	 edi, ecx
  00140	99		 cdq
  00141	f7 ff		 idiv	 edi
  00143	03 d1		 add	 edx, ecx
  00145	89 55 fc	 mov	 DWORD PTR _iTY$[ebp], edx

; 5268 : 
; 5269 : 					btMapAttr = MapC[MAP_INDEX_CASTLESIEGE].m_attrbuf[iTY * 256 + iTX];

  00148	c1 e2 08	 shl	 edx, 8
  0014b	03 15 80 2e 9d
	00		 add	 edx, DWORD PTR ?MapC@@3PAVMapClass@@A+10301056

; 5270 : 
; 5271 : 					if ((btMapAttr & 4) != 4)

  00151	f6 04 1a 04	 test	 BYTE PTR [edx+ebx], 4
  00155	74 11		 je	 SHORT $LN43@ReSpawnAll

; 5261 : 		{
; 5262 : 		case 1:
; 5263 : 			{
; 5264 : 				for(int iCNT = 0; iCNT < 100; iCNT++)

  00157	8b 45 f4	 mov	 eax, DWORD PTR _iCNT$216625[ebp]
  0015a	40		 inc	 eax
  0015b	89 45 f4	 mov	 DWORD PTR _iCNT$216625[ebp], eax
  0015e	83 f8 64	 cmp	 eax, 100		; 00000064H
  00161	7c b1		 jl	 SHORT $LL16@ReSpawnAll

; 5270 : 
; 5271 : 					if ((btMapAttr & 4) != 4)

  00163	e9 05 01 00 00	 jmp	 $LN25@ReSpawnAll
$LN43@ReSpawnAll:
  00168	8b 55 fc	 mov	 edx, DWORD PTR _iTY$[ebp]
$LN45@ReSpawnAll:

; 5306 : 					{
; 5307 : 						bMoveOK = TRUE;
; 5308 : 						break;
; 5309 : 					}
; 5310 : 				}
; 5311 : 			}
; 5312 : 			break;
; 5313 : 		}
; 5314 : 
; 5315 : 		if ( bMoveOK )
; 5316 : 		{
; 5317 : 			gObj[iUSER].m_State = 32;

  0016b	a1 00 00 00 00	 mov	 eax, DWORD PTR ?gObj@@3PAUOBJECTSTRUCT@@A ; gObj
  00170	c7 84 06 20 02
	00 00 20 00 00
	00		 mov	 DWORD PTR [esi+eax+544], 32 ; 00000020H

; 5318 : 			gObj[iUSER].X = iTX;

  0017b	8b 0d 00 00 00
	00		 mov	 ecx, DWORD PTR ?gObj@@3PAUOBJECTSTRUCT@@A ; gObj
  00181	66 89 9c 0e 44
	01 00 00	 mov	 WORD PTR [esi+ecx+324], bx

; 5319 : 			gObj[iUSER].Y = iTY;

  00189	a1 00 00 00 00	 mov	 eax, DWORD PTR ?gObj@@3PAUOBJECTSTRUCT@@A ; gObj
  0018e	66 89 94 06 46
	01 00 00	 mov	 WORD PTR [esi+eax+326], dx

; 5320 : 			gObj[iUSER].TX = iTX;

  00196	8b 0d 00 00 00
	00		 mov	 ecx, DWORD PTR ?gObj@@3PAUOBJECTSTRUCT@@A ; gObj
  0019c	66 89 9c 0e 7c
	01 00 00	 mov	 WORD PTR [esi+ecx+380], bx

; 5321 : 			gObj[iUSER].TX = iTY;

  001a4	a1 00 00 00 00	 mov	 eax, DWORD PTR ?gObj@@3PAUOBJECTSTRUCT@@A ; gObj
  001a9	66 89 94 06 7c
	01 00 00	 mov	 WORD PTR [esi+eax+380], dx

; 5322 : 			gObj[iUSER].MapNumber = MAP_INDEX_CASTLESIEGE;

  001b1	8b 0d 00 00 00
	00		 mov	 ecx, DWORD PTR ?gObj@@3PAUOBJECTSTRUCT@@A ; gObj
  001b7	c6 84 0e 49 01
	00 00 1e	 mov	 BYTE PTR [esi+ecx+329], 30 ; 0000001eH

; 5323 : 			gObj[iUSER].PathCount = 0;

  001bf	8b 15 00 00 00
	00		 mov	 edx, DWORD PTR ?gObj@@3PAUOBJECTSTRUCT@@A ; gObj
  001c5	c7 84 16 84 01
	00 00 00 00 00
	00		 mov	 DWORD PTR [esi+edx+388], 0

; 5324 : 			gObj[iUSER].Teleport = 0;

  001d0	a1 00 00 00 00	 mov	 eax, DWORD PTR ?gObj@@3PAUOBJECTSTRUCT@@A ; gObj
  001d5	c6 84 06 a0 03
	00 00 00	 mov	 BYTE PTR [esi+eax+928], 0

; 5325 : 
; 5326 : 			gObjClearViewport(&gObj[iUSER]);

  001dd	8b 0d 00 00 00
	00		 mov	 ecx, DWORD PTR ?gObj@@3PAUOBJECTSTRUCT@@A ; gObj
  001e3	8d 14 0e	 lea	 edx, DWORD PTR [esi+ecx]
  001e6	52		 push	 edx
  001e7	e8 00 00 00 00	 call	 ?gObjClearViewport@@YAXPAUOBJECTSTRUCT@@@Z ; gObjClearViewport

; 5327 : 			GCTeleportSend(&gObj[iUSER], -1, MAP_INDEX_CASTLESIEGE, gObj[iUSER].X, gObj[iUSER].Y, gObj[iUSER].Dir);

  001ec	a1 00 00 00 00	 mov	 eax, DWORD PTR ?gObj@@3PAUOBJECTSTRUCT@@A ; gObj
  001f1	0f b6 8c 30 48
	01 00 00	 movzx	 ecx, BYTE PTR [eax+esi+328]
  001f9	0f b6 94 30 46
	01 00 00	 movzx	 edx, BYTE PTR [eax+esi+326]
  00201	03 c6		 add	 eax, esi
  00203	51		 push	 ecx
  00204	0f b6 88 44 01
	00 00		 movzx	 ecx, BYTE PTR [eax+324]
  0020b	52		 push	 edx
  0020c	51		 push	 ecx
  0020d	6a 1e		 push	 30			; 0000001eH
  0020f	6a ff		 push	 -1
  00211	50		 push	 eax
  00212	e8 00 00 00 00	 call	 ?GCTeleportSend@@YAXPAUOBJECTSTRUCT@@HEEEE@Z ; GCTeleportSend

; 5328 : 
; 5329 : 			if ( gObj[iUSER].m_Change >= 0 )

  00217	8b 15 00 00 00
	00		 mov	 edx, DWORD PTR ?gObj@@3PAUOBJECTSTRUCT@@A ; gObj
  0021d	8d 04 16	 lea	 eax, DWORD PTR [esi+edx]
  00220	83 c4 1c	 add	 esp, 28			; 0000001cH
  00223	83 b8 54 04 00
	00 00		 cmp	 DWORD PTR [eax+1108], 0
  0022a	7c 09		 jl	 SHORT $LN1@ReSpawnAll

; 5330 : 			{
; 5331 : 				gObjViewportListProtocolCreate(&gObj[iUSER]);

  0022c	50		 push	 eax
  0022d	e8 00 00 00 00	 call	 ?gObjViewportListProtocolCreate@@YAXPAUOBJECTSTRUCT@@@Z ; gObjViewportListProtocolCreate
  00232	83 c4 04	 add	 esp, 4
$LN1@ReSpawnAll:

; 5332 : 			}
; 5333 : 			gObj[iUSER].RegenMapNumber = MAP_INDEX_CASTLESIEGE;

  00235	a1 00 00 00 00	 mov	 eax, DWORD PTR ?gObj@@3PAUOBJECTSTRUCT@@A ; gObj
  0023a	c6 84 06 a4 03
	00 00 1e	 mov	 BYTE PTR [esi+eax+932], 30 ; 0000001eH

; 5334 : 			gObj[iUSER].RegenMapX = iTX;

  00242	8b 0d 00 00 00
	00		 mov	 ecx, DWORD PTR ?gObj@@3PAUOBJECTSTRUCT@@A ; gObj

; 5335 : 			gObj[iUSER].RegenMapY = iTY;

  00248	8a 45 fc	 mov	 al, BYTE PTR _iTY$[ebp]
  0024b	88 9c 0e a5 03
	00 00		 mov	 BYTE PTR [esi+ecx+933], bl
  00252	8b 15 00 00 00
	00		 mov	 edx, DWORD PTR ?gObj@@3PAUOBJECTSTRUCT@@A ; gObj
  00258	88 84 16 a6 03
	00 00		 mov	 BYTE PTR [esi+edx+934], al

; 5336 : 			gObj[iUSER].RegenOk = TRUE;

  0025f	8b 0d 00 00 00
	00		 mov	 ecx, DWORD PTR ?gObj@@3PAUOBJECTSTRUCT@@A ; gObj
  00265	c6 84 0e a3 03
	00 00 01	 mov	 BYTE PTR [esi+ecx+931], 1
$LN25@ReSpawnAll:

; 5231 : 	int iTX, iTY;
; 5232 : 	BYTE btMapAttr;
; 5233 : 
; 5234 : 	for( int iUSER = OBJ_STARTUSERINDZT; iUSER < OBJMAX; iUSER++ )

  0026d	ff 45 f8	 inc	 DWORD PTR _iUSER$216610[ebp]
  00270	81 c6 50 2b 00
	00		 add	 esi, 11088		; 00002b50H
  00276	81 fe 80 d7 e9
	09		 cmp	 esi, 166320000		; 09e9d780H
  0027c	0f 8c 93 fd ff
	ff		 jl	 $LL26@ReSpawnAll
  00282	5f		 pop	 edi
  00283	5e		 pop	 esi
  00284	5b		 pop	 ebx

; 5337 : 		}
; 5338 : 	}
; 5339 : }

  00285	8b e5		 mov	 esp, ebp
  00287	5d		 pop	 ebp
  00288	c3		 ret	 0
?ReSpawnAllUser@CCastleSiege@@QAEXXZ ENDP		; CCastleSiege::ReSpawnAllUser
_TEXT	ENDS
PUBLIC	?ReSpawnEnemyUser@CCastleSiege@@QAEXH@Z		; CCastleSiege::ReSpawnEnemyUser
EXTRN	?CheckUser@CZtLicense@@QAE_NH@Z:PROC		; CZtLicense::CheckUser
EXTRN	?g_ZtLicense@@3VCZtLicense@@A:BYTE		; g_ZtLicense
; Function compile flags: /Ogtp
;	COMDAT ?ReSpawnEnemyUser@CCastleSiege@@QAEXH@Z
_TEXT	SEGMENT
_this$ = -16						; size = 4
_iUSER$216651 = -12					; size = 4
_iCNT$216681 = -8					; size = 4
_iCNT$216675 = -8					; size = 4
_iCNT$216668 = -8					; size = 4
_iTY$ = -4						; size = 4
_bRefreshOwnerUser$ = 8					; size = 4
?ReSpawnEnemyUser@CCastleSiege@@QAEXH@Z PROC		; CCastleSiege::ReSpawnEnemyUser, COMDAT
; _this$ = ecx

; 5342 : {

  00000	55		 push	 ebp
  00001	8b ec		 mov	 ebp, esp
  00003	83 ec 10	 sub	 esp, 16			; 00000010H
  00006	53		 push	 ebx
  00007	56		 push	 esi
  00008	57		 push	 edi

; 5343 : 	int iTX;
; 5344 : 	int iTY;
; 5345 : 	BYTE btMapAttr;
; 5346 : 
; 5347 : 	for(int iUSER = OBJ_STARTUSERINDZT; iUSER < OBJMAX; iUSER++)

  00009	bf b0 36 00 00	 mov	 edi, 14000		; 000036b0H
  0000e	89 4d f0	 mov	 DWORD PTR _this$[ebp], ecx
  00011	89 7d f4	 mov	 DWORD PTR _iUSER$216651[ebp], edi
  00014	be 00 a7 40 09	 mov	 esi, 155232000		; 0940a700H
  00019	8d a4 24 00 00
	00 00		 npad	 7
$LL32@ReSpawnEne:

; 5348 : 	{
; 5349 : 		if (gObjIsConnected(iUSER) == FALSE)

  00020	57		 push	 edi
  00021	e8 00 00 00 00	 call	 ?gObjIsConnected@@YAHH@Z ; gObjIsConnected
  00026	83 c4 04	 add	 esp, 4
  00029	85 c0		 test	 eax, eax
  0002b	0f 84 4c 03 00
	00		 je	 $LN31@ReSpawnEne

; 5350 : 		{
; 5351 : 			continue;
; 5352 : 		}
; 5353 : 
; 5354 : 		if (gObj[iUSER].MapNumber != MAP_INDEX_CASTLESIEGE && gObj[iUSER].MapNumber != MAP_INDEX_CASTLEHUNTZONE)

  00031	8b 15 00 00 00
	00		 mov	 edx, DWORD PTR ?gObj@@3PAUOBJECTSTRUCT@@A ; gObj
  00037	8a 8c 16 49 01
	00 00		 mov	 cl, BYTE PTR [esi+edx+329]
  0003e	80 f9 1e	 cmp	 cl, 30			; 0000001eH
  00041	74 09		 je	 SHORT $LN28@ReSpawnEne
  00043	80 f9 1f	 cmp	 cl, 31			; 0000001fH
  00046	0f 85 31 03 00
	00		 jne	 $LN31@ReSpawnEne
$LN28@ReSpawnEne:

; 5355 : 		{
; 5356 : 			continue;
; 5357 : 		}
; 5358 : 
; 5359 : 		BYTE btCsJoinSide = gObj[iUSER].m_btCsJoinSide;

  0004c	8a 84 16 02 1c
	00 00		 mov	 al, BYTE PTR [esi+edx+7170]

; 5360 : 
; 5361 : 		if (btCsJoinSide < 0)
; 5362 : 		{
; 5363 : 			btCsJoinSide = 0;
; 5364 : 		}
; 5365 : 
; 5366 : 		if (btCsJoinSide > 2)

  00053	3c 02		 cmp	 al, 2
  00055	76 02		 jbe	 SHORT $LN26@ReSpawnEne

; 5367 : 		{
; 5368 : 			btCsJoinSide = 2;

  00057	b0 02		 mov	 al, 2
$LN26@ReSpawnEne:

; 5369 : 		}
; 5370 : 
; 5371 : 		int bMoveOK = FALSE;
; 5372 : 
; 5373 : 		switch(btCsJoinSide)

  00059	0f b6 c0	 movzx	 eax, al
  0005c	33 ff		 xor	 edi, edi
  0005e	2b c7		 sub	 eax, edi
  00060	0f 84 6f 01 00
	00		 je	 $LN10@ReSpawnEne
  00066	48		 dec	 eax
  00067	74 64		 je	 SHORT $LN23@ReSpawnEne
  00069	48		 dec	 eax
  0006a	0f 85 c1 02 00
	00		 jne	 $LN5@ReSpawnEne

; 5413 : 		case 2:
; 5414 : 			{
; 5415 : 				for(int iCNT = 0; iCNT < 100; iCNT++)

  00070	89 7d f8	 mov	 DWORD PTR _iCNT$216675[ebp], edi
$LL14@ReSpawnEne:

; 5416 : 				{
; 5417 : 					iTX = (rand() % (g_iCsUserReSpawnArea[2][2] - g_iCsUserReSpawnArea[2][0])) + g_iCsUserReSpawnArea[2][0];

  00073	e8 00 00 00 00	 call	 _rand
  00078	8b 0d 20 00 00
	00		 mov	 ecx, DWORD PTR _g_iCsUserReSpawnArea+32
  0007e	8b 3d 28 00 00
	00		 mov	 edi, DWORD PTR _g_iCsUserReSpawnArea+40
  00084	99		 cdq
  00085	2b f9		 sub	 edi, ecx
  00087	f7 ff		 idiv	 edi
  00089	8d 1c 11	 lea	 ebx, DWORD PTR [ecx+edx]

; 5418 : 					iTY = (rand() % (g_iCsUserReSpawnArea[2][3] - g_iCsUserReSpawnArea[2][1])) + g_iCsUserReSpawnArea[2][1];

  0008c	e8 00 00 00 00	 call	 _rand
  00091	8b 0d 24 00 00
	00		 mov	 ecx, DWORD PTR _g_iCsUserReSpawnArea+36
  00097	8b 3d 2c 00 00
	00		 mov	 edi, DWORD PTR _g_iCsUserReSpawnArea+44
  0009d	99		 cdq
  0009e	2b f9		 sub	 edi, ecx
  000a0	f7 ff		 idiv	 edi
  000a2	03 d1		 add	 edx, ecx

; 5419 : 
; 5420 : 					btMapAttr = MapC[MAP_INDEX_CASTLESIEGE].m_attrbuf[iTY * 256 + iTX];

  000a4	8b c2		 mov	 eax, edx
  000a6	c1 e0 08	 shl	 eax, 8
  000a9	03 05 80 2e 9d
	00		 add	 eax, DWORD PTR ?MapC@@3PAVMapClass@@A+10301056
  000af	89 55 fc	 mov	 DWORD PTR _iTY$[ebp], edx

; 5421 : 
; 5422 : 					if ((btMapAttr & 4) != 4)

  000b2	f6 04 18 04	 test	 BYTE PTR [eax+ebx], 4
  000b6	0f 84 73 01 00
	00		 je	 $LN50@ReSpawnEne

; 5413 : 		case 2:
; 5414 : 			{
; 5415 : 				for(int iCNT = 0; iCNT < 100; iCNT++)

  000bc	8b 45 f8	 mov	 eax, DWORD PTR _iCNT$216675[ebp]
  000bf	40		 inc	 eax
  000c0	89 45 f8	 mov	 DWORD PTR _iCNT$216675[ebp], eax
  000c3	83 f8 64	 cmp	 eax, 100		; 00000064H
  000c6	7c ab		 jl	 SHORT $LL14@ReSpawnEne

; 5438 : 
; 5439 : 					if ((btMapAttr & 4) != 4)

  000c8	e9 64 02 00 00	 jmp	 $LN5@ReSpawnEne
$LN23@ReSpawnEne:

; 5374 : 		{
; 5375 : 		case 1:
; 5376 : 			if (bRefreshOwnerUser != FALSE)

  000cd	39 7d 08	 cmp	 DWORD PTR _bRefreshOwnerUser$[ebp], edi
  000d0	0f 84 5b 02 00
	00		 je	 $LN5@ReSpawnEne

; 5377 : 			{
; 5378 : 				gObj[iUSER].RegenMapNumber = gObj[iUSER].MapNumber;

  000d6	88 8c 16 a4 03
	00 00		 mov	 BYTE PTR [esi+edx+932], cl

; 5379 : 				gObj[iUSER].RegenMapX = gObj[iUSER].X;

  000dd	a1 00 00 00 00	 mov	 eax, DWORD PTR ?gObj@@3PAUOBJECTSTRUCT@@A ; gObj
  000e2	8a 8c 06 44 01
	00 00		 mov	 cl, BYTE PTR [esi+eax+324]
  000e9	88 8c 06 a5 03
	00 00		 mov	 BYTE PTR [esi+eax+933], cl

; 5380 : 				gObj[iUSER].RegenMapY = gObj[iUSER].Y;

  000f0	a1 00 00 00 00	 mov	 eax, DWORD PTR ?gObj@@3PAUOBJECTSTRUCT@@A ; gObj
  000f5	8a 94 06 46 01
	00 00		 mov	 dl, BYTE PTR [esi+eax+326]
  000fc	88 94 06 a6 03
	00 00		 mov	 BYTE PTR [esi+eax+934], dl

; 5381 : 
; 5382 : 				if (gObj[iUSER].MapNumber == MAP_INDEX_CASTLEHUNTZONE) //season 2.5 add-on

  00103	a1 00 00 00 00	 mov	 eax, DWORD PTR ?gObj@@3PAUOBJECTSTRUCT@@A ; gObj
  00108	03 c6		 add	 eax, esi
  0010a	80 b8 49 01 00
	00 1f		 cmp	 BYTE PTR [eax+329], 31	; 0000001fH
  00111	75 5b		 jne	 SHORT $LN21@ReSpawnEne

; 5383 : 				{
; 5384 : 					for(int iCNT = 0; iCNT < 100; iCNT++)

  00113	89 7d f8	 mov	 DWORD PTR _iCNT$216668[ebp], edi
$LL20@ReSpawnEne:

; 5385 : 					{
; 5386 : 						iTX = (rand() % (g_iCsUserReSpawnArea[2][2] - g_iCsUserReSpawnArea[2][0])) + g_iCsUserReSpawnArea[2][0];

  00116	e8 00 00 00 00	 call	 _rand
  0011b	8b 0d 20 00 00
	00		 mov	 ecx, DWORD PTR _g_iCsUserReSpawnArea+32
  00121	8b 3d 28 00 00
	00		 mov	 edi, DWORD PTR _g_iCsUserReSpawnArea+40
  00127	99		 cdq
  00128	2b f9		 sub	 edi, ecx
  0012a	f7 ff		 idiv	 edi
  0012c	8d 1c 11	 lea	 ebx, DWORD PTR [ecx+edx]

; 5387 : 						iTY = (rand() % (g_iCsUserReSpawnArea[2][3] - g_iCsUserReSpawnArea[2][1])) + g_iCsUserReSpawnArea[2][1];

  0012f	e8 00 00 00 00	 call	 _rand
  00134	8b 0d 24 00 00
	00		 mov	 ecx, DWORD PTR _g_iCsUserReSpawnArea+36
  0013a	8b 3d 2c 00 00
	00		 mov	 edi, DWORD PTR _g_iCsUserReSpawnArea+44
  00140	2b f9		 sub	 edi, ecx
  00142	99		 cdq
  00143	f7 ff		 idiv	 edi
  00145	03 d1		 add	 edx, ecx
  00147	89 55 fc	 mov	 DWORD PTR _iTY$[ebp], edx

; 5388 : 
; 5389 : 						btMapAttr = MapC[MAP_INDEX_CASTLESIEGE].m_attrbuf[iTY * 256 + iTX];

  0014a	c1 e2 08	 shl	 edx, 8
  0014d	03 15 80 2e 9d
	00		 add	 edx, DWORD PTR ?MapC@@3PAVMapClass@@A+10301056

; 5390 : 
; 5391 : 						if ((btMapAttr & 4) != 4)

  00153	f6 04 1a 04	 test	 BYTE PTR [edx+ebx], 4
  00157	0f 84 cf 00 00
	00		 je	 $LN48@ReSpawnEne

; 5383 : 				{
; 5384 : 					for(int iCNT = 0; iCNT < 100; iCNT++)

  0015d	8b 45 f8	 mov	 eax, DWORD PTR _iCNT$216668[ebp]
  00160	40		 inc	 eax
  00161	89 45 f8	 mov	 DWORD PTR _iCNT$216668[ebp], eax
  00164	83 f8 64	 cmp	 eax, 100		; 00000064H
  00167	7c ad		 jl	 SHORT $LL20@ReSpawnEne

; 5438 : 
; 5439 : 					if ((btMapAttr & 4) != 4)

  00169	e9 c3 01 00 00	 jmp	 $LN5@ReSpawnEne
$LN21@ReSpawnEne:

; 5392 : 						{
; 5393 : 							bMoveOK = TRUE;
; 5394 : 							break;
; 5395 : 						}
; 5396 : 					}
; 5397 : 					break;
; 5398 : 				}
; 5399 : 
; 5400 : 				gObjClearViewport(&gObj[iUSER]);

  0016e	50		 push	 eax
  0016f	e8 00 00 00 00	 call	 ?gObjClearViewport@@YAXPAUOBJECTSTRUCT@@@Z ; gObjClearViewport

; 5401 : 
; 5402 : 				GCTeleportSend(&gObj[iUSER],-1,gObj[iUSER].MapNumber,gObj[iUSER].X,gObj[iUSER].Y,gObj[iUSER].Dir); //season 2.5 changed

  00174	8b 0d 00 00 00
	00		 mov	 ecx, DWORD PTR ?gObj@@3PAUOBJECTSTRUCT@@A ; gObj
  0017a	0f b6 94 0e 48
	01 00 00	 movzx	 edx, BYTE PTR [esi+ecx+328]
  00182	8d 04 0e	 lea	 eax, DWORD PTR [esi+ecx]
  00185	0f b6 88 46 01
	00 00		 movzx	 ecx, BYTE PTR [eax+326]
  0018c	52		 push	 edx
  0018d	0f b6 90 44 01
	00 00		 movzx	 edx, BYTE PTR [eax+324]
  00194	51		 push	 ecx
  00195	0f b6 88 49 01
	00 00		 movzx	 ecx, BYTE PTR [eax+329]
  0019c	52		 push	 edx
  0019d	51		 push	 ecx
  0019e	6a ff		 push	 -1
  001a0	50		 push	 eax
  001a1	e8 00 00 00 00	 call	 ?GCTeleportSend@@YAXPAUOBJECTSTRUCT@@HEEEE@Z ; GCTeleportSend

; 5403 : 
; 5404 : 				if (gObj[iUSER].m_Change >= 0)

  001a6	8b 15 00 00 00
	00		 mov	 edx, DWORD PTR ?gObj@@3PAUOBJECTSTRUCT@@A ; gObj
  001ac	8d 04 16	 lea	 eax, DWORD PTR [esi+edx]
  001af	83 c4 1c	 add	 esp, 28			; 0000001cH
  001b2	39 b8 54 04 00
	00		 cmp	 DWORD PTR [eax+1108], edi
  001b8	7c 09		 jl	 SHORT $LN16@ReSpawnEne

; 5405 : 				{
; 5406 : 					gObjViewportListProtocolCreate(&gObj[iUSER]);

  001ba	50		 push	 eax
  001bb	e8 00 00 00 00	 call	 ?gObjViewportListProtocolCreate@@YAXPAUOBJECTSTRUCT@@@Z ; gObjViewportListProtocolCreate
  001c0	83 c4 04	 add	 esp, 4
$LN16@ReSpawnEne:

; 5407 : 				}
; 5408 : 
; 5409 : 				gObj[iUSER].RegenOk = TRUE;

  001c3	a1 00 00 00 00	 mov	 eax, DWORD PTR ?gObj@@3PAUOBJECTSTRUCT@@A ; gObj
  001c8	c6 84 06 a3 03
	00 00 01	 mov	 BYTE PTR [esi+eax+931], 1

; 5410 : 			}
; 5411 : 			bMoveOK = FALSE;
; 5412 : 			break;

  001d0	e9 5c 01 00 00	 jmp	 $LN5@ReSpawnEne
$LN10@ReSpawnEne:

; 5423 : 					{
; 5424 : 						bMoveOK = TRUE;
; 5425 : 						break;
; 5426 : 					}
; 5427 : 				}
; 5428 : 			}
; 5429 : 			break;
; 5430 : 		case 0:
; 5431 : 			{
; 5432 : 				for(int iCNT = 0; iCNT < 100; iCNT++)

  001d5	89 7d f8	 mov	 DWORD PTR _iCNT$216681[ebp], edi
$LL9@ReSpawnEne:

; 5433 : 				{
; 5434 : 					iTX = (rand()% (g_iCsUserReSpawnArea[0][2] - g_iCsUserReSpawnArea[0][0])) + g_iCsUserReSpawnArea[0][0];

  001d8	e8 00 00 00 00	 call	 _rand
  001dd	8b 0d 00 00 00
	00		 mov	 ecx, DWORD PTR _g_iCsUserReSpawnArea
  001e3	8b 3d 08 00 00
	00		 mov	 edi, DWORD PTR _g_iCsUserReSpawnArea+8
  001e9	99		 cdq
  001ea	2b f9		 sub	 edi, ecx
  001ec	f7 ff		 idiv	 edi
  001ee	8d 1c 11	 lea	 ebx, DWORD PTR [ecx+edx]

; 5435 : 					iTY = (rand()% (g_iCsUserReSpawnArea[0][3] - g_iCsUserReSpawnArea[0][1])) + g_iCsUserReSpawnArea[0][1];

  001f1	e8 00 00 00 00	 call	 _rand
  001f6	8b 0d 04 00 00
	00		 mov	 ecx, DWORD PTR _g_iCsUserReSpawnArea+4
  001fc	8b 3d 0c 00 00
	00		 mov	 edi, DWORD PTR _g_iCsUserReSpawnArea+12
  00202	2b f9		 sub	 edi, ecx
  00204	99		 cdq
  00205	f7 ff		 idiv	 edi
  00207	03 d1		 add	 edx, ecx
  00209	89 55 fc	 mov	 DWORD PTR _iTY$[ebp], edx

; 5436 : 
; 5437 : 					btMapAttr = MapC[MAP_INDEX_CASTLESIEGE].m_attrbuf[iTY * 256 + iTX];

  0020c	c1 e2 08	 shl	 edx, 8
  0020f	03 15 80 2e 9d
	00		 add	 edx, DWORD PTR ?MapC@@3PAVMapClass@@A+10301056

; 5438 : 
; 5439 : 					if ((btMapAttr & 4) != 4)

  00215	f6 04 1a 04	 test	 BYTE PTR [edx+ebx], 4
  00219	74 11		 je	 SHORT $LN48@ReSpawnEne

; 5423 : 					{
; 5424 : 						bMoveOK = TRUE;
; 5425 : 						break;
; 5426 : 					}
; 5427 : 				}
; 5428 : 			}
; 5429 : 			break;
; 5430 : 		case 0:
; 5431 : 			{
; 5432 : 				for(int iCNT = 0; iCNT < 100; iCNT++)

  0021b	8b 45 f8	 mov	 eax, DWORD PTR _iCNT$216681[ebp]
  0021e	40		 inc	 eax
  0021f	89 45 f8	 mov	 DWORD PTR _iCNT$216681[ebp], eax
  00222	83 f8 64	 cmp	 eax, 100		; 00000064H
  00225	7c b1		 jl	 SHORT $LL9@ReSpawnEne

; 5438 : 
; 5439 : 					if ((btMapAttr & 4) != 4)

  00227	e9 05 01 00 00	 jmp	 $LN5@ReSpawnEne
$LN48@ReSpawnEne:
  0022c	8b 55 fc	 mov	 edx, DWORD PTR _iTY$[ebp]
$LN50@ReSpawnEne:

; 5440 : 					{
; 5441 : 						bMoveOK = TRUE;
; 5442 : 						break;
; 5443 : 					}
; 5444 : 				}
; 5445 : 			}
; 5446 : 			break;
; 5447 : 		}
; 5448 : 
; 5449 : 		if (bMoveOK != FALSE)
; 5450 : 		{
; 5451 : 			gObj[iUSER].m_State = 32;

  0022f	8b 0d 00 00 00
	00		 mov	 ecx, DWORD PTR ?gObj@@3PAUOBJECTSTRUCT@@A ; gObj
  00235	c7 84 0e 20 02
	00 00 20 00 00
	00		 mov	 DWORD PTR [esi+ecx+544], 32 ; 00000020H

; 5452 : 			gObj[iUSER].X = iTX;

  00240	a1 00 00 00 00	 mov	 eax, DWORD PTR ?gObj@@3PAUOBJECTSTRUCT@@A ; gObj
  00245	66 89 9c 06 44
	01 00 00	 mov	 WORD PTR [esi+eax+324], bx

; 5453 : 			gObj[iUSER].Y = iTY;

  0024d	8b 0d 00 00 00
	00		 mov	 ecx, DWORD PTR ?gObj@@3PAUOBJECTSTRUCT@@A ; gObj
  00253	66 89 94 0e 46
	01 00 00	 mov	 WORD PTR [esi+ecx+326], dx

; 5454 : 			gObj[iUSER].TX = iTX;

  0025b	a1 00 00 00 00	 mov	 eax, DWORD PTR ?gObj@@3PAUOBJECTSTRUCT@@A ; gObj
  00260	66 89 9c 06 7c
	01 00 00	 mov	 WORD PTR [esi+eax+380], bx

; 5455 : 			gObj[iUSER].TX = iTY;

  00268	8b 0d 00 00 00
	00		 mov	 ecx, DWORD PTR ?gObj@@3PAUOBJECTSTRUCT@@A ; gObj
  0026e	66 89 94 0e 7c
	01 00 00	 mov	 WORD PTR [esi+ecx+380], dx

; 5456 : 			gObj[iUSER].MapNumber = MAP_INDEX_CASTLESIEGE;

  00276	8b 15 00 00 00
	00		 mov	 edx, DWORD PTR ?gObj@@3PAUOBJECTSTRUCT@@A ; gObj
  0027c	c6 84 16 49 01
	00 00 1e	 mov	 BYTE PTR [esi+edx+329], 30 ; 0000001eH

; 5457 : 			gObj[iUSER].PathCount = 0;

  00284	a1 00 00 00 00	 mov	 eax, DWORD PTR ?gObj@@3PAUOBJECTSTRUCT@@A ; gObj
  00289	c7 84 06 84 01
	00 00 00 00 00
	00		 mov	 DWORD PTR [esi+eax+388], 0

; 5458 : 			gObj[iUSER].Teleport = 0;

  00294	8b 0d 00 00 00
	00		 mov	 ecx, DWORD PTR ?gObj@@3PAUOBJECTSTRUCT@@A ; gObj
  0029a	c6 84 0e a0 03
	00 00 00	 mov	 BYTE PTR [esi+ecx+928], 0

; 5459 : 
; 5460 : 			gObjClearViewport(&gObj[iUSER]);

  002a2	8b 15 00 00 00
	00		 mov	 edx, DWORD PTR ?gObj@@3PAUOBJECTSTRUCT@@A ; gObj
  002a8	8d 04 16	 lea	 eax, DWORD PTR [esi+edx]
  002ab	50		 push	 eax
  002ac	e8 00 00 00 00	 call	 ?gObjClearViewport@@YAXPAUOBJECTSTRUCT@@@Z ; gObjClearViewport

; 5461 : 			GCTeleportSend(&gObj[iUSER],-1,MAP_INDEX_CASTLESIEGE,gObj[iUSER].X,gObj[iUSER].Y,gObj[iUSER].Dir);

  002b1	8b 0d 00 00 00
	00		 mov	 ecx, DWORD PTR ?gObj@@3PAUOBJECTSTRUCT@@A ; gObj
  002b7	0f b6 94 0e 48
	01 00 00	 movzx	 edx, BYTE PTR [esi+ecx+328]
  002bf	8d 04 0e	 lea	 eax, DWORD PTR [esi+ecx]
  002c2	0f b6 88 46 01
	00 00		 movzx	 ecx, BYTE PTR [eax+326]
  002c9	52		 push	 edx
  002ca	0f b6 90 44 01
	00 00		 movzx	 edx, BYTE PTR [eax+324]
  002d1	51		 push	 ecx
  002d2	52		 push	 edx
  002d3	6a 1e		 push	 30			; 0000001eH
  002d5	6a ff		 push	 -1
  002d7	50		 push	 eax
  002d8	e8 00 00 00 00	 call	 ?GCTeleportSend@@YAXPAUOBJECTSTRUCT@@HEEEE@Z ; GCTeleportSend

; 5462 : 
; 5463 : 			if (gObj[iUSER].m_Change >= 0)

  002dd	a1 00 00 00 00	 mov	 eax, DWORD PTR ?gObj@@3PAUOBJECTSTRUCT@@A ; gObj
  002e2	03 c6		 add	 eax, esi
  002e4	83 c4 1c	 add	 esp, 28			; 0000001cH
  002e7	83 b8 54 04 00
	00 00		 cmp	 DWORD PTR [eax+1108], 0
  002ee	7c 09		 jl	 SHORT $LN4@ReSpawnEne

; 5464 : 			{
; 5465 : 				gObjViewportListProtocolCreate(&gObj[iUSER]);

  002f0	50		 push	 eax
  002f1	e8 00 00 00 00	 call	 ?gObjViewportListProtocolCreate@@YAXPAUOBJECTSTRUCT@@@Z ; gObjViewportListProtocolCreate
  002f6	83 c4 04	 add	 esp, 4
$LN4@ReSpawnEne:

; 5466 : 			}
; 5467 : 
; 5468 : 			gObj[iUSER].RegenMapNumber = MAP_INDEX_CASTLESIEGE;

  002f9	8b 0d 00 00 00
	00		 mov	 ecx, DWORD PTR ?gObj@@3PAUOBJECTSTRUCT@@A ; gObj
  002ff	c6 84 0e a4 03
	00 00 1e	 mov	 BYTE PTR [esi+ecx+932], 30 ; 0000001eH

; 5469 : 			gObj[iUSER].RegenMapX = iTX;

  00307	8b 15 00 00 00
	00		 mov	 edx, DWORD PTR ?gObj@@3PAUOBJECTSTRUCT@@A ; gObj

; 5470 : 			gObj[iUSER].RegenMapY = iTY;

  0030d	8a 4d fc	 mov	 cl, BYTE PTR _iTY$[ebp]
  00310	88 9c 16 a5 03
	00 00		 mov	 BYTE PTR [esi+edx+933], bl
  00317	a1 00 00 00 00	 mov	 eax, DWORD PTR ?gObj@@3PAUOBJECTSTRUCT@@A ; gObj
  0031c	88 8c 06 a6 03
	00 00		 mov	 BYTE PTR [esi+eax+934], cl

; 5471 : 			gObj[iUSER].RegenOk = TRUE;

  00323	8b 15 00 00 00
	00		 mov	 edx, DWORD PTR ?gObj@@3PAUOBJECTSTRUCT@@A ; gObj
  00329	c6 84 16 a3 03
	00 00 01	 mov	 BYTE PTR [esi+edx+931], 1
$LN5@ReSpawnEne:

; 5472 : 		}
; 5473 : 
; 5474 : 		this->NotifySelfCsJoinSide(iUSER);

  00331	8b 7d f4	 mov	 edi, DWORD PTR _iUSER$216651[ebp]
  00334	8b 4d f0	 mov	 ecx, DWORD PTR _this$[ebp]
  00337	57		 push	 edi
  00338	e8 00 00 00 00	 call	 ?NotifySelfCsJoinSide@CCastleSiege@@QAEXH@Z ; CCastleSiege::NotifySelfCsJoinSide

; 5475 : 
; 5476 : 		if(g_ZtLicense.CheckUser(eZtUB::PrideMu) || g_ZtLicense.CheckUser(eZtUB::PrideMuLocal) || g_ZtLicense.CheckUser(eZtUB::Local3))

  0033d	6a 11		 push	 17			; 00000011H
  0033f	b9 00 00 00 00	 mov	 ecx, OFFSET ?g_ZtLicense@@3VCZtLicense@@A ; g_ZtLicense
  00344	e8 00 00 00 00	 call	 ?CheckUser@CZtLicense@@QAE_NH@Z ; CZtLicense::CheckUser
  00349	84 c0		 test	 al, al
  0034b	75 30		 jne	 SHORT $LN31@ReSpawnEne
  0034d	6a 1a		 push	 26			; 0000001aH
  0034f	b9 00 00 00 00	 mov	 ecx, OFFSET ?g_ZtLicense@@3VCZtLicense@@A ; g_ZtLicense
  00354	e8 00 00 00 00	 call	 ?CheckUser@CZtLicense@@QAE_NH@Z ; CZtLicense::CheckUser
  00359	84 c0		 test	 al, al
  0035b	75 20		 jne	 SHORT $LN31@ReSpawnEne
  0035d	6a 1c		 push	 28			; 0000001cH
  0035f	b9 00 00 00 00	 mov	 ecx, OFFSET ?g_ZtLicense@@3VCZtLicense@@A ; g_ZtLicense
  00364	e8 00 00 00 00	 call	 ?CheckUser@CZtLicense@@QAE_NH@Z ; CZtLicense::CheckUser
  00369	84 c0		 test	 al, al
  0036b	75 10		 jne	 SHORT $LN31@ReSpawnEne

; 5477 : 		{
; 5478 : 			
; 5479 : 		}
; 5480 : 		else
; 5481 : 		{
; 5482 : 			gObj[iUSER].m_iAccumulatedCrownAccessTime = 0;	//break

  0036d	a1 00 00 00 00	 mov	 eax, DWORD PTR ?gObj@@3PAUOBJECTSTRUCT@@A ; gObj
  00372	c7 84 06 1c 1c
	00 00 00 00 00
	00		 mov	 DWORD PTR [esi+eax+7196], 0
$LN31@ReSpawnEne:

; 5343 : 	int iTX;
; 5344 : 	int iTY;
; 5345 : 	BYTE btMapAttr;
; 5346 : 
; 5347 : 	for(int iUSER = OBJ_STARTUSERINDZT; iUSER < OBJMAX; iUSER++)

  0037d	47		 inc	 edi
  0037e	81 c6 50 2b 00
	00		 add	 esi, 11088		; 00002b50H
  00384	89 7d f4	 mov	 DWORD PTR _iUSER$216651[ebp], edi
  00387	81 fe 80 d7 e9
	09		 cmp	 esi, 166320000		; 09e9d780H
  0038d	0f 8c 8d fc ff
	ff		 jl	 $LL32@ReSpawnEne
  00393	5f		 pop	 edi
  00394	5e		 pop	 esi
  00395	5b		 pop	 ebx

; 5483 : 		}
; 5484 : 	}
; 5485 : }

  00396	8b e5		 mov	 esp, ebp
  00398	5d		 pop	 ebp
  00399	c2 04 00	 ret	 4
?ReSpawnEnemyUser@CCastleSiege@@QAEXH@Z ENDP		; CCastleSiege::ReSpawnEnemyUser
_TEXT	ENDS
PUBLIC	?NotifyAllUserCsStartState@CCastleSiege@@QAEXE@Z ; CCastleSiege::NotifyAllUserCsStartState
; Function compile flags: /Ogtp
;	COMDAT ?NotifyAllUserCsStartState@CCastleSiege@@QAEXE@Z
_TEXT	SEGMENT
_pMsg$ = -8						; size = 5
_btStartState$ = 8					; size = 1
?NotifyAllUserCsStartState@CCastleSiege@@QAEXE@Z PROC	; CCastleSiege::NotifyAllUserCsStartState, COMDAT
; _this$ = ecx

; 5488 : {

  00000	55		 push	 ebp
  00001	8b ec		 mov	 ebp, esp
  00003	83 ec 08	 sub	 esp, 8

; 5489 : 	PMSG_ANS_NOTIFYCSSTART pMsg;
; 5490 : 
; 5491 : 	pMsg.h.set((LPBYTE)&pMsg,0xB2,0x17,sizeof(pMsg));
; 5492 : 	pMsg.btStartState = btStartState;

  00006	8a 45 08	 mov	 al, BYTE PTR _btStartState$[ebp]
  00009	56		 push	 esi
  0000a	57		 push	 edi
  0000b	88 45 fc	 mov	 BYTE PTR _pMsg$[ebp+4], al
  0000e	a1 00 00 00 00	 mov	 eax, DWORD PTR ?gObj@@3PAUOBJECTSTRUCT@@A ; gObj
  00013	c7 45 f8 c1 05
	b2 17		 mov	 DWORD PTR _pMsg$[ebp], 397542849 ; 17b205c1H

; 5493 : 
; 5494 : 	for(int i = OBJ_STARTUSERINDZT; i < OBJMAX; i++)

  0001a	bf b0 36 00 00	 mov	 edi, 14000		; 000036b0H
  0001f	be 00 a7 40 09	 mov	 esi, 155232000		; 0940a700H
$LL11@NotifyAllU:

; 5495 : 	{
; 5496 : 		if (gObj[i].Connected == PLAYER_PLAYING && gObj[i].Type == OBJ_USER)

  00024	83 7c 06 04 03	 cmp	 DWORD PTR [esi+eax+4], 3
  00029	75 1f		 jne	 SHORT $LN3@NotifyAllU
  0002b	66 83 7c 06 68
	01		 cmp	 WORD PTR [esi+eax+104], 1
  00031	75 17		 jne	 SHORT $LN3@NotifyAllU

; 5497 : 		{
; 5498 : 			DataSend(i,(LPBYTE)&pMsg,pMsg.h.size);

  00033	0f b6 4d f9	 movzx	 ecx, BYTE PTR _pMsg$[ebp+1]
  00037	51		 push	 ecx
  00038	8d 55 f8	 lea	 edx, DWORD PTR _pMsg$[ebp]
  0003b	52		 push	 edx
  0003c	57		 push	 edi
  0003d	e8 00 00 00 00	 call	 ?DataSend@@YAHHPAEK@Z	; DataSend
  00042	a1 00 00 00 00	 mov	 eax, DWORD PTR ?gObj@@3PAUOBJECTSTRUCT@@A ; gObj
  00047	83 c4 0c	 add	 esp, 12			; 0000000cH
$LN3@NotifyAllU:

; 5493 : 
; 5494 : 	for(int i = OBJ_STARTUSERINDZT; i < OBJMAX; i++)

  0004a	81 c6 50 2b 00
	00		 add	 esi, 11088		; 00002b50H
  00050	47		 inc	 edi
  00051	81 fe 80 d7 e9
	09		 cmp	 esi, 166320000		; 09e9d780H
  00057	7c cb		 jl	 SHORT $LL11@NotifyAllU
  00059	5f		 pop	 edi
  0005a	5e		 pop	 esi

; 5499 : 		}
; 5500 : 	}
; 5501 : }

  0005b	8b e5		 mov	 esp, ebp
  0005d	5d		 pop	 ebp
  0005e	c2 04 00	 ret	 4
?NotifyAllUserCsStartState@CCastleSiege@@QAEXE@Z ENDP	; CCastleSiege::NotifyAllUserCsStartState
_TEXT	ENDS
PUBLIC	__$ArrayPad$
PUBLIC	?NotifyAllUserCsProgState@CCastleSiege@@QAEXEPAD@Z ; CCastleSiege::NotifyAllUserCsProgState
; Function compile flags: /Ogtp
;	COMDAT ?NotifyAllUserCsProgState@CCastleSiege@@QAEXEPAD@Z
_TEXT	SEGMENT
_pMsg$ = -20						; size = 13
__$ArrayPad$ = -4					; size = 4
_btProgState$ = 8					; size = 1
_lpszGuildName$ = 12					; size = 4
?NotifyAllUserCsProgState@CCastleSiege@@QAEXEPAD@Z PROC	; CCastleSiege::NotifyAllUserCsProgState, COMDAT
; _this$ = ecx

; 5504 : {

  00000	55		 push	 ebp
  00001	8b ec		 mov	 ebp, esp
  00003	83 ec 14	 sub	 esp, 20			; 00000014H
  00006	a1 00 00 00 00	 mov	 eax, DWORD PTR ___security_cookie
  0000b	33 c5		 xor	 eax, ebp
  0000d	89 45 fc	 mov	 DWORD PTR __$ArrayPad$[ebp], eax

; 5505 : 	PMSG_ANS_NOTIFYCSPROGRESS pMsg;
; 5506 : 	
; 5507 : 	pMsg.h.set((LPBYTE)&pMsg, 0xB2, 0x18, sizeof(pMsg));
; 5508 : 
; 5509 : 	pMsg.btCastleSiegeState = btProgState;

  00010	8a 4d 08	 mov	 cl, BYTE PTR _btProgState$[ebp]
  00013	8b 45 0c	 mov	 eax, DWORD PTR _lpszGuildName$[ebp]

; 5510 : 
; 5511 : 	memset(&pMsg.szGuildName, 0, sizeof(pMsg.szGuildName));
; 5512 : 	memcpy(&pMsg.szGuildName, lpszGuildName, sizeof(pMsg.szGuildName));

  00016	8b 10		 mov	 edx, DWORD PTR [eax]
  00018	8b 40 04	 mov	 eax, DWORD PTR [eax+4]
  0001b	88 4d f0	 mov	 BYTE PTR _pMsg$[ebp+4], cl
  0001e	33 c9		 xor	 ecx, ecx
  00020	56		 push	 esi
  00021	89 4d f5	 mov	 DWORD PTR _pMsg$[ebp+9], ecx
  00024	57		 push	 edi
  00025	89 4d f1	 mov	 DWORD PTR _pMsg$[ebp+5], ecx
  00028	89 45 f5	 mov	 DWORD PTR _pMsg$[ebp+9], eax

; 5515 : 	{
; 5516 : 		if ( (gObj[i].Connected == PLAYER_PLAYING) && (gObj[i].Type == OBJ_USER) )

  0002b	a1 00 00 00 00	 mov	 eax, DWORD PTR ?gObj@@3PAUOBJECTSTRUCT@@A ; gObj
  00030	c7 45 ec c1 0d
	b2 18		 mov	 DWORD PTR _pMsg$[ebp], 414322113 ; 18b20dc1H
  00037	89 55 f1	 mov	 DWORD PTR _pMsg$[ebp+5], edx
  0003a	bf b0 36 00 00	 mov	 edi, 14000		; 000036b0H
  0003f	be 00 a7 40 09	 mov	 esi, 155232000		; 0940a700H
$LL12@NotifyAllU@2:
  00044	83 7c 06 04 03	 cmp	 DWORD PTR [esi+eax+4], 3
  00049	75 29		 jne	 SHORT $LN4@NotifyAllU@2
  0004b	66 83 7c 06 68
	01		 cmp	 WORD PTR [esi+eax+104], 1
  00051	75 21		 jne	 SHORT $LN4@NotifyAllU@2

; 5517 : 		{
; 5518 : 			if ( gObj[i].MapNumber == MAP_INDEX_CASTLESIEGE )

  00053	80 bc 06 49 01
	00 00 1e	 cmp	 BYTE PTR [esi+eax+329], 30 ; 0000001eH
  0005b	75 17		 jne	 SHORT $LN4@NotifyAllU@2

; 5519 : 			{
; 5520 : 				DataSend(i, (LPBYTE)&pMsg, pMsg.h.size);

  0005d	0f b6 4d ed	 movzx	 ecx, BYTE PTR _pMsg$[ebp+1]
  00061	51		 push	 ecx
  00062	8d 55 ec	 lea	 edx, DWORD PTR _pMsg$[ebp]
  00065	52		 push	 edx
  00066	57		 push	 edi
  00067	e8 00 00 00 00	 call	 ?DataSend@@YAHHPAEK@Z	; DataSend
  0006c	a1 00 00 00 00	 mov	 eax, DWORD PTR ?gObj@@3PAUOBJECTSTRUCT@@A ; gObj
  00071	83 c4 0c	 add	 esp, 12			; 0000000cH
$LN4@NotifyAllU@2:

; 5513 : 
; 5514 : 	for( int i = OBJ_STARTUSERINDZT; i < OBJMAX; i++ )

  00074	81 c6 50 2b 00
	00		 add	 esi, 11088		; 00002b50H
  0007a	47		 inc	 edi
  0007b	81 fe 80 d7 e9
	09		 cmp	 esi, 166320000		; 09e9d780H
  00081	7c c1		 jl	 SHORT $LL12@NotifyAllU@2

; 5521 : 			}
; 5522 : 		}
; 5523 : 	}
; 5524 : }

  00083	8b 4d fc	 mov	 ecx, DWORD PTR __$ArrayPad$[ebp]
  00086	5f		 pop	 edi
  00087	33 cd		 xor	 ecx, ebp
  00089	5e		 pop	 esi
  0008a	e8 00 00 00 00	 call	 @__security_check_cookie@4
  0008f	8b e5		 mov	 esp, ebp
  00091	5d		 pop	 ebp
  00092	c2 08 00	 ret	 8
?NotifyAllUserCsProgState@CCastleSiege@@QAEXEPAD@Z ENDP	; CCastleSiege::NotifyAllUserCsProgState
_TEXT	ENDS
PUBLIC	?ClearCastleTowerBarrier@CCastleSiege@@QAEXXZ	; CCastleSiege::ClearCastleTowerBarrier
; Function compile flags: /Ogtp
;	COMDAT ?ClearCastleTowerBarrier@CCastleSiege@@QAEXXZ
_TEXT	SEGMENT
?ClearCastleTowerBarrier@CCastleSiege@@QAEXXZ PROC	; CCastleSiege::ClearCastleTowerBarrier, COMDAT
; _this$ = ecx

; 5527 : {

  00000	56		 push	 esi
  00001	57		 push	 edi

; 5528 : 	for( int iIDX = 0; iIDX < OBJ_MAXMONSTER; iIDX++ )

  00002	33 ff		 xor	 edi, edi
  00004	33 f6		 xor	 esi, esi
$LL5@ClearCastl:

; 5529 : 	{
; 5530 : 		if ( ::gObjIsConnected(iIDX) == FALSE )

  00006	57		 push	 edi
  00007	e8 00 00 00 00	 call	 ?gObjIsConnected@@YAHH@Z ; gObjIsConnected
  0000c	83 c4 04	 add	 esp, 4
  0000f	85 c0		 test	 eax, eax
  00011	74 1e		 je	 SHORT $LN4@ClearCastl

; 5531 : 		{
; 5532 : 			continue;
; 5533 : 		}
; 5534 : 
; 5535 : 		if ( gObj[iIDX].Class == 215 )

  00013	8b 0d 00 00 00
	00		 mov	 ecx, DWORD PTR ?gObj@@3PAUOBJECTSTRUCT@@A ; gObj
  00019	b8 d7 00 00 00	 mov	 eax, 215		; 000000d7H
  0001e	66 39 84 0e b8
	00 00 00	 cmp	 WORD PTR [esi+ecx+184], ax
  00026	75 09		 jne	 SHORT $LN4@ClearCastl

; 5536 : 		{
; 5537 : 			gObjDel(iIDX);

  00028	57		 push	 edi
  00029	e8 00 00 00 00	 call	 ?gObjDel@@YAFH@Z	; gObjDel
  0002e	83 c4 04	 add	 esp, 4
$LN4@ClearCastl:

; 5528 : 	for( int iIDX = 0; iIDX < OBJ_MAXMONSTER; iIDX++ )

  00031	81 c6 50 2b 00
	00		 add	 esi, 11088		; 00002b50H
  00037	47		 inc	 edi
  00038	81 fe 80 76 97
	08		 cmp	 esi, 144144000		; 08977680H
  0003e	7c c6		 jl	 SHORT $LL5@ClearCastl

; 5538 : 		}
; 5539 : 	}
; 5540 : }

  00040	5f		 pop	 edi
  00041	5e		 pop	 esi
  00042	c3		 ret	 0
?ClearCastleTowerBarrier@CCastleSiege@@QAEXXZ ENDP	; CCastleSiege::ClearCastleTowerBarrier
_TEXT	ENDS
PUBLIC	??1?$_Pair_base@HU_CS_MINIMAP_DATA@@@std@@QAE@XZ ; std::_Pair_base<int,_CS_MINIMAP_DATA>::~_Pair_base<int,_CS_MINIMAP_DATA>
; Function compile flags: /Ogtp
;	COMDAT ??1?$_Pair_base@HU_CS_MINIMAP_DATA@@@std@@QAE@XZ
_TEXT	SEGMENT
??1?$_Pair_base@HU_CS_MINIMAP_DATA@@@std@@QAE@XZ PROC	; std::_Pair_base<int,_CS_MINIMAP_DATA>::~_Pair_base<int,_CS_MINIMAP_DATA>, COMDAT
; _this$ = ecx
  00000	83 c1 04	 add	 ecx, 4
  00003	e9 00 00 00 00	 jmp	 ??1_CS_MINIMAP_DATA@@UAE@XZ ; _CS_MINIMAP_DATA::~_CS_MINIMAP_DATA
??1?$_Pair_base@HU_CS_MINIMAP_DATA@@@std@@QAE@XZ ENDP	; std::_Pair_base<int,_CS_MINIMAP_DATA>::~_Pair_base<int,_CS_MINIMAP_DATA>
_TEXT	ENDS
PUBLIC	??_C@_0CH@BGBDJFNB@?$FLCastleSiege?$FN?5Crown?5State?5Change@ ; `string'
PUBLIC	??_C@_0EL@KHBPMGI@?$FLCastleSiege?$FN?5CCastleSiege?3?3Noti@ ; `string'
PUBLIC	?NotifyCrownState@CCastleSiege@@QAEXE@Z		; CCastleSiege::NotifyCrownState
;	COMDAT ??_C@_0CH@BGBDJFNB@?$FLCastleSiege?$FN?5Crown?5State?5Change@
; File e:\work\tranet_version\gs\include\prodef.h
CONST	SEGMENT
??_C@_0CH@BGBDJFNB@?$FLCastleSiege?$FN?5Crown?5State?5Change@ DB '[Castle'
	DB	'Siege] Crown State Changed (%d)', 00H	; `string'
CONST	ENDS
;	COMDAT ??_C@_0EL@KHBPMGI@?$FLCastleSiege?$FN?5CCastleSiege?3?3Noti@
CONST	SEGMENT
??_C@_0EL@KHBPMGI@?$FLCastleSiege?$FN?5CCastleSiege?3?3Noti@ DB '[CastleS'
	DB	'iege] CCastleSiege::NotifyCrownState() - m_iCrownIndex isn''t'
	DB	' Valid', 00H				; `string'
; Function compile flags: /Ogtp
; File e:\work\tranet_version\gs\gameserver\castlesiege.cpp
CONST	ENDS
;	COMDAT ?NotifyCrownState@CCastleSiege@@QAEXE@Z
_TEXT	SEGMENT
_pMsg$ = -8						; size = 5
_btState$ = 8						; size = 1
?NotifyCrownState@CCastleSiege@@QAEXE@Z PROC		; CCastleSiege::NotifyCrownState, COMDAT
; _this$ = ecx

; 5769 : {

  00000	55		 push	 ebp
  00001	8b ec		 mov	 ebp, esp
  00003	83 ec 08	 sub	 esp, 8
  00006	56		 push	 esi
  00007	8b f1		 mov	 esi, ecx

; 5770 : 	if ( gObjIsConnected(m_iCrownIndex) == FALSE )

  00009	8b 86 ec 01 00
	00		 mov	 eax, DWORD PTR [esi+492]
  0000f	50		 push	 eax
  00010	e8 00 00 00 00	 call	 ?gObjIsConnected@@YAHH@Z ; gObjIsConnected
  00015	83 c4 04	 add	 esp, 4
  00018	85 c0		 test	 eax, eax
  0001a	75 17		 jne	 SHORT $LN10@NotifyCrow
$LN18@NotifyCrow:

; 5771 : 	{
; 5772 : 		LogAddC(2, "[CastleSiege] CCastleSiege::NotifyCrownState() - m_iCrownIndex isn't Valid");

  0001c	68 00 00 00 00	 push	 OFFSET ??_C@_0EL@KHBPMGI@?$FLCastleSiege?$FN?5CCastleSiege?3?3Noti@
  00021	6a 02		 push	 2
  00023	ff 15 00 00 00
	00		 call	 DWORD PTR ?LogAddC@@3P6AXEPADZZA ; LogAddC
  00029	83 c4 08	 add	 esp, 8
  0002c	5e		 pop	 esi

; 5819 : }

  0002d	8b e5		 mov	 esp, ebp
  0002f	5d		 pop	 ebp
  00030	c2 04 00	 ret	 4
$LN10@NotifyCrow:

; 5773 : 		return;
; 5774 : 	}
; 5775 : 
; 5776 : 	if ( gObj[m_iCrownIndex].Class != 216 )

  00033	8b b6 ec 01 00
	00		 mov	 esi, DWORD PTR [esi+492]
  00039	69 f6 50 2b 00
	00		 imul	 esi, 11088		; 00002b50H
  0003f	03 35 00 00 00
	00		 add	 esi, DWORD PTR ?gObj@@3PAUOBJECTSTRUCT@@A ; gObj
  00045	b8 d8 00 00 00	 mov	 eax, 216		; 000000d8H
  0004a	66 39 86 b8 00
	00 00		 cmp	 WORD PTR [esi+184], ax

; 5777 : 	{
; 5778 : 		LogAddC(2, "[CastleSiege] CCastleSiege::NotifyCrownState() - m_iCrownIndex isn't Valid");
; 5779 : 		return;

  00051	75 c9		 jne	 SHORT $LN18@NotifyCrow

; 5780 : 	}
; 5781 : 
; 5782 : 	LPOBJ lpObj = &gObj[m_iCrownIndex];
; 5783 : 
; 5784 : 	if (btState == 0)//Season 4.5 addon

  00053	80 7d 08 00	 cmp	 BYTE PTR _btState$[ebp], 0
  00057	75 17		 jne	 SHORT $LN8@NotifyCrow

; 5785 : 	{
; 5786 : 		gObjApplyBuffEffectDuration(lpObj,AT_CASTLE_CROWN_STATUS,0,0,0,0,-10);

  00059	6a f6		 push	 -10			; fffffff6H
  0005b	6a 00		 push	 0
  0005d	6a 00		 push	 0
  0005f	6a 00		 push	 0
  00061	6a 00		 push	 0
  00063	6a 14		 push	 20			; 00000014H
  00065	56		 push	 esi
  00066	e8 00 00 00 00	 call	 ?gObjApplyBuffEffectDuration@@YAEPAUOBJECTSTRUCT@@HEHEHH@Z ; gObjApplyBuffEffectDuration
  0006b	83 c4 1c	 add	 esp, 28			; 0000001cH

; 5787 : 	}
; 5788 : 	else

  0006e	eb 0b		 jmp	 SHORT $LN7@NotifyCrow
$LN8@NotifyCrow:

; 5789 : 	{
; 5790 : 		gObjRemoveBuffEffect(lpObj,AT_CASTLE_CROWN_STATUS);

  00070	6a 14		 push	 20			; 00000014H
  00072	56		 push	 esi
  00073	e8 00 00 00 00	 call	 ?gObjRemoveBuffEffect@@YAEPAUOBJECTSTRUCT@@H@Z ; gObjRemoveBuffEffect
  00078	83 c4 08	 add	 esp, 8
$LN7@NotifyCrow:

; 5791 : 	}
; 5792 : 
; 5793 : 	if ( lpObj->VPCount2 < 1 )

  0007b	83 be 34 0c 00
	00 01		 cmp	 DWORD PTR [esi+3124], 1
  00082	7c 6c		 jl	 SHORT $LN11@NotifyCrow

; 5794 : 	{
; 5795 : 		return;
; 5796 : 	}
; 5797 : 
; 5798 : 	PMSG_ANS_NOTIFYCROWNSTATE pMsg;
; 5799 : 
; 5800 : 	pMsg.h.set((LPBYTE)&pMsg, 0xB2, 0x16, sizeof(pMsg));
; 5801 : 	pMsg.btCrownState = btState;

  00084	8a 4d 08	 mov	 cl, BYTE PTR _btState$[ebp]
  00087	57		 push	 edi
  00088	c7 45 f8 c1 05
	b2 16		 mov	 DWORD PTR _pMsg$[ebp], 380765633 ; 16b205c1H
  0008f	88 4d fc	 mov	 BYTE PTR _pMsg$[ebp+4], cl
  00092	81 c6 ae 08 00
	00		 add	 esi, 2222		; 000008aeH
  00098	bf 4b 00 00 00	 mov	 edi, 75			; 0000004bH
  0009d	8d 49 00	 npad	 3
$LL5@NotifyCrow:

; 5806 : 	{
; 5807 : 		tObjNum = lpObj->VpPlayer2[i].number;

  000a0	0f bf 06	 movsx	 eax, WORD PTR [esi]

; 5808 : 
; 5809 : 		if ( tObjNum >= 0 )

  000a3	85 c0		 test	 eax, eax
  000a5	78 2f		 js	 SHORT $LN4@NotifyCrow

; 5810 : 		{
; 5811 : 			if ( gObj[tObjNum].Type == OBJ_USER && gObj[tObjNum].Live )

  000a7	8b 0d 00 00 00
	00		 mov	 ecx, DWORD PTR ?gObj@@3PAUOBJECTSTRUCT@@A ; gObj
  000ad	8b d0		 mov	 edx, eax
  000af	69 d2 50 2b 00
	00		 imul	 edx, 11088		; 00002b50H
  000b5	66 83 7c 11 68
	01		 cmp	 WORD PTR [ecx+edx+104], 1
  000bb	75 19		 jne	 SHORT $LN4@NotifyCrow
  000bd	80 7c 11 6a 00	 cmp	 BYTE PTR [ecx+edx+106], 0
  000c2	74 12		 je	 SHORT $LN4@NotifyCrow

; 5812 : 			{
; 5813 : 				DataSend(tObjNum, (LPBYTE)&pMsg, pMsg.h.size);

  000c4	0f b6 55 f9	 movzx	 edx, BYTE PTR _pMsg$[ebp+1]
  000c8	52		 push	 edx
  000c9	8d 4d f8	 lea	 ecx, DWORD PTR _pMsg$[ebp]
  000cc	51		 push	 ecx
  000cd	50		 push	 eax
  000ce	e8 00 00 00 00	 call	 ?DataSend@@YAHHPAEK@Z	; DataSend
  000d3	83 c4 0c	 add	 esp, 12			; 0000000cH
$LN4@NotifyCrow:

; 5802 : 
; 5803 : 	int tObjNum = OBJ_EMPTY;
; 5804 : 
; 5805 : 	for( int i = 0; i < MAX_VIEWPORT; i++ )

  000d6	83 c6 0c	 add	 esi, 12			; 0000000cH
  000d9	4f		 dec	 edi
  000da	75 c4		 jne	 SHORT $LL5@NotifyCrow

; 5814 : 			}
; 5815 : 		}
; 5816 : 	}
; 5817 : 
; 5818 : 	LogAddTD("[CastleSiege] Crown State Changed (%d)", btState);

  000dc	0f b6 55 08	 movzx	 edx, BYTE PTR _btState$[ebp]
  000e0	52		 push	 edx
  000e1	68 00 00 00 00	 push	 OFFSET ??_C@_0CH@BGBDJFNB@?$FLCastleSiege?$FN?5Crown?5State?5Change@
  000e6	ff 15 00 00 00
	00		 call	 DWORD PTR ?LogAddTD@@3P6AXPADZZA ; LogAddTD
  000ec	83 c4 08	 add	 esp, 8
  000ef	5f		 pop	 edi
$LN11@NotifyCrow:
  000f0	5e		 pop	 esi

; 5819 : }

  000f1	8b e5		 mov	 esp, ebp
  000f3	5d		 pop	 ebp
  000f4	c2 04 00	 ret	 4
?NotifyCrownState@CCastleSiege@@QAEXE@Z ENDP		; CCastleSiege::NotifyCrownState
_TEXT	ENDS
PUBLIC	??_C@_0FD@NMEPOKII@?$FLCastleSiege?$FN?5CCastleSiege?3?3Noti@ ; `string'
PUBLIC	__$ArrayPad$
PUBLIC	?NotifyCrownSwitchInfo@CCastleSiege@@QAEXH@Z	; CCastleSiege::NotifyCrownSwitchInfo
EXTRN	?GetUnionName@TUnion@@QAEHHPAD@Z:PROC		; TUnion::GetUnionName
;	COMDAT ??_C@_0FD@NMEPOKII@?$FLCastleSiege?$FN?5CCastleSiege?3?3Noti@
; File e:\work\tranet_version\gs\include\prodef.h
CONST	SEGMENT
??_C@_0FD@NMEPOKII@?$FLCastleSiege?$FN?5CCastleSiege?3?3Noti@ DB '[Castle'
	DB	'Siege] CCastleSiege::NotifyCrownSwitchInfo() - iCrownSwitchIn'
	DB	'dex is Invalid', 00H			; `string'
; Function compile flags: /Ogtp
; File e:\work\tranet_version\gs\gameserver\castlesiege.cpp
CONST	ENDS
;	COMDAT ?NotifyCrownSwitchInfo@CCastleSiege@@QAEXH@Z
_TEXT	SEGMENT
_pMsg$ = -40						; size = 26
_szMasterGuildName$217741 = -12				; size = 8
__$ArrayPad$ = -4					; size = 4
_iCrownSwitchIndex$ = 8					; size = 4
?NotifyCrownSwitchInfo@CCastleSiege@@QAEXH@Z PROC	; CCastleSiege::NotifyCrownSwitchInfo, COMDAT
; _this$ = ecx

; 5822 : {

  00000	55		 push	 ebp
  00001	8b ec		 mov	 ebp, esp
  00003	83 ec 28	 sub	 esp, 40			; 00000028H
  00006	a1 00 00 00 00	 mov	 eax, DWORD PTR ___security_cookie
  0000b	33 c5		 xor	 eax, ebp
  0000d	89 45 fc	 mov	 DWORD PTR __$ArrayPad$[ebp], eax
  00010	53		 push	 ebx
  00011	8b 5d 08	 mov	 ebx, DWORD PTR _iCrownSwitchIndex$[ebp]

; 5823 : 	if ( gObjIsConnected(iCrownSwitchIndex) == FALSE )

  00014	53		 push	 ebx
  00015	e8 00 00 00 00	 call	 ?gObjIsConnected@@YAHH@Z ; gObjIsConnected
  0001a	83 c4 04	 add	 esp, 4
  0001d	85 c0		 test	 eax, eax
  0001f	75 21		 jne	 SHORT $LN11@NotifyCrow@2

; 5824 : 	{
; 5825 : 		LogAddC(2, "[CastleSiege] CCastleSiege::NotifyCrownSwitchInfo() - iCrownSwitchIndex is Invalid");

  00021	68 00 00 00 00	 push	 OFFSET ??_C@_0FD@NMEPOKII@?$FLCastleSiege?$FN?5CCastleSiege?3?3Noti@
  00026	6a 02		 push	 2
  00028	ff 15 00 00 00
	00		 call	 DWORD PTR ?LogAddC@@3P6AXEPADZZA ; LogAddC
  0002e	83 c4 08	 add	 esp, 8
  00031	5b		 pop	 ebx

; 5889 : 			}
; 5890 : 		}
; 5891 : 	}
; 5892 : }

  00032	8b 4d fc	 mov	 ecx, DWORD PTR __$ArrayPad$[ebp]
  00035	33 cd		 xor	 ecx, ebp
  00037	e8 00 00 00 00	 call	 @__security_check_cookie@4
  0003c	8b e5		 mov	 esp, ebp
  0003e	5d		 pop	 ebp
  0003f	c2 04 00	 ret	 4
$LN11@NotifyCrow@2:
  00042	57		 push	 edi

; 5826 : 		return;
; 5827 : 	}
; 5828 : 
; 5829 : 	if ( (gObj[iCrownSwitchIndex].Class != 217) && (gObj[iCrownSwitchIndex].Class != 218) )

  00043	8b fb		 mov	 edi, ebx
  00045	69 ff 50 2b 00
	00		 imul	 edi, 11088		; 00002b50H
  0004b	03 3d 00 00 00
	00		 add	 edi, DWORD PTR ?gObj@@3PAUOBJECTSTRUCT@@A ; gObj
  00051	ba d9 00 00 00	 mov	 edx, 217		; 000000d9H
  00056	0f b7 87 b8 00
	00 00		 movzx	 eax, WORD PTR [edi+184]
  0005d	66 3b c2	 cmp	 ax, dx
  00060	74 2c		 je	 SHORT $LN10@NotifyCrow@2
  00062	b9 da 00 00 00	 mov	 ecx, 218		; 000000daH
  00067	66 3b c1	 cmp	 ax, cx
  0006a	74 22		 je	 SHORT $LN10@NotifyCrow@2

; 5830 : 	{
; 5831 : 		LogAddC(2, "[CastleSiege] CCastleSiege::NotifyCrownSwitchInfo() - iCrownSwitchIndex is Invalid");

  0006c	68 00 00 00 00	 push	 OFFSET ??_C@_0FD@NMEPOKII@?$FLCastleSiege?$FN?5CCastleSiege?3?3Noti@
  00071	6a 02		 push	 2
  00073	ff 15 00 00 00
	00		 call	 DWORD PTR ?LogAddC@@3P6AXEPADZZA ; LogAddC
  00079	83 c4 08	 add	 esp, 8
  0007c	5f		 pop	 edi
  0007d	5b		 pop	 ebx

; 5889 : 			}
; 5890 : 		}
; 5891 : 	}
; 5892 : }

  0007e	8b 4d fc	 mov	 ecx, DWORD PTR __$ArrayPad$[ebp]
  00081	33 cd		 xor	 ecx, ebp
  00083	e8 00 00 00 00	 call	 @__security_check_cookie@4
  00088	8b e5		 mov	 esp, ebp
  0008a	5d		 pop	 ebp
  0008b	c2 04 00	 ret	 4
$LN10@NotifyCrow@2:

; 5832 : 		return;
; 5833 : 	}
; 5834 : 
; 5835 : 	LPOBJ lpObj = &gObj[iCrownSwitchIndex];
; 5836 : 
; 5837 : 	if ( lpObj->VPCount2 < 1 )

  0008e	83 bf 34 0c 00
	00 01		 cmp	 DWORD PTR [edi+3124], 1
  00095	0f 8c 22 01 00
	00		 jl	 $LN19@NotifyCrow@2

; 5838 : 	{
; 5839 : 		return;
; 5840 : 	}
; 5841 : 
; 5842 : 	PMSG_ANS_NOTIFY_CROWNSWITCH_INFO pMsg;
; 5843 : 	pMsg.h.set((LPBYTE)&pMsg, 0xB2, 0x20, sizeof(pMsg));
; 5844 : 
; 5845 : 	pMsg.btIndex1 = SET_NUMBERH(LOWORD(iCrownSwitchIndex));
; 5846 : 	pMsg.btIndex2 = SET_NUMBERL(LOWORD(iCrownSwitchIndex));
; 5847 : 
; 5848 : 	pMsg.btSwitchState = 0;
; 5849 : 	pMsg.btJoinSide = 0;
; 5850 : 
; 5851 : 	memset(&pMsg.szGuildName, 0, MAX_GUILD_LEN);

  0009b	33 c0		 xor	 eax, eax
  0009d	8b d3		 mov	 edx, ebx
  0009f	88 5d dd	 mov	 BYTE PTR _pMsg$[ebp+5], bl
  000a2	c1 ea 08	 shr	 edx, 8
  000a5	33 db		 xor	 ebx, ebx
  000a7	88 55 dc	 mov	 BYTE PTR _pMsg$[ebp+4], dl
  000aa	89 45 e0	 mov	 DWORD PTR _pMsg$[ebp+8], eax
  000ad	89 45 e4	 mov	 DWORD PTR _pMsg$[ebp+12], eax

; 5852 : 	memset(&pMsg.szUserName, 0, MAX_ACCOUNT_LEN);

  000b0	89 45 e8	 mov	 DWORD PTR _pMsg$[ebp+16], eax
  000b3	89 45 ec	 mov	 DWORD PTR _pMsg$[ebp+20], eax
  000b6	66 89 45 f0	 mov	 WORD PTR _pMsg$[ebp+24], ax
  000ba	c7 45 d8 c1 1a
	b2 20		 mov	 DWORD PTR _pMsg$[ebp], 548543169 ; 20b21ac1H
  000c1	66 89 5d de	 mov	 WORD PTR _pMsg$[ebp+6], bx

; 5853 : 
; 5854 : 	int iCrownSwitchUserIndex = g_CastleSiege.GetCrownSwitchUserIndex(lpObj->Class); // wtf!

  000c5	0f b7 87 b8 00
	00 00		 movzx	 eax, WORD PTR [edi+184]
  000cc	56		 push	 esi
  000cd	50		 push	 eax
  000ce	b9 00 00 00 00	 mov	 ecx, OFFSET ?g_CastleSiege@@3VCCastleSiege@@A ; g_CastleSiege
  000d3	e8 00 00 00 00	 call	 ?GetCrownSwitchUserIndex@CCastleSiege@@QAEHH@Z ; CCastleSiege::GetCrownSwitchUserIndex
  000d8	8b f0		 mov	 esi, eax

; 5855 : 
; 5856 : 	if ( gObjIsConnected(iCrownSwitchUserIndex) )

  000da	56		 push	 esi
  000db	e8 00 00 00 00	 call	 ?gObjIsConnected@@YAHH@Z ; gObjIsConnected
  000e0	83 c4 04	 add	 esp, 4
  000e3	85 c0		 test	 eax, eax
  000e5	0f 84 8b 00 00
	00		 je	 $LN8@NotifyCrow@2

; 5857 : 	{
; 5858 : 		LPOBJ lpSwitchObj = &gObj[iCrownSwitchUserIndex];

  000eb	8b c6		 mov	 eax, esi
  000ed	69 c0 50 2b 00
	00		 imul	 eax, 11088		; 00002b50H
  000f3	03 05 00 00 00
	00		 add	 eax, DWORD PTR ?gObj@@3PAUOBJECTSTRUCT@@A ; gObj

; 5859 : 		char szMasterGuildName[MAX_GUILD_LEN];
; 5860 : 
; 5861 : 		pMsg.btSwitchState = TRUE;

  000f9	c6 45 de 01	 mov	 BYTE PTR _pMsg$[ebp+6], 1

; 5862 : 		pMsg.btJoinSide = lpSwitchObj->m_btCsJoinSide;

  000fd	8a 88 02 1c 00
	00		 mov	 cl, BYTE PTR [eax+7170]
  00103	88 4d df	 mov	 BYTE PTR _pMsg$[ebp+7], cl

; 5863 : 
; 5864 : 		memcpy(&pMsg.szUserName, lpSwitchObj->Name, MAX_ACCOUNT_LEN);

  00106	8b 50 77	 mov	 edx, DWORD PTR [eax+119]
  00109	89 55 e8	 mov	 DWORD PTR _pMsg$[ebp+16], edx
  0010c	8b 48 7b	 mov	 ecx, DWORD PTR [eax+123]
  0010f	89 4d ec	 mov	 DWORD PTR _pMsg$[ebp+20], ecx
  00112	66 8b 50 7f	 mov	 dx, WORD PTR [eax+127]
  00116	66 89 55 f0	 mov	 WORD PTR _pMsg$[ebp+24], dx

; 5865 : 		memcpy(&pMsg.szGuildName, lpSwitchObj->GuildName, MAX_GUILD_LEN);

  0011a	8b 88 3c 04 00
	00		 mov	 ecx, DWORD PTR [eax+1084]
  00120	89 4d e0	 mov	 DWORD PTR _pMsg$[ebp+8], ecx
  00123	8b 90 40 04 00
	00		 mov	 edx, DWORD PTR [eax+1088]

; 5866 : 		memset(&szMasterGuildName, 0, MAX_GUILD_LEN);

  00129	33 c9		 xor	 ecx, ecx
  0012b	89 55 e4	 mov	 DWORD PTR _pMsg$[ebp+12], edx
  0012e	89 4d f4	 mov	 DWORD PTR _szMasterGuildName$217741[ebp], ecx
  00131	89 4d f8	 mov	 DWORD PTR _szMasterGuildName$217741[ebp+4], ecx

; 5867 : 
; 5868 : 		if ( lpSwitchObj->lpGuild )

  00134	8b 80 38 04 00
	00		 mov	 eax, DWORD PTR [eax+1080]
  0013a	3b c3		 cmp	 eax, ebx
  0013c	74 26		 je	 SHORT $LN6@NotifyCrow@2

; 5869 : 		{
; 5870 : 			if ( UnionManager.GetUnionName(lpSwitchObj->lpGuild->iGuildUnion, szMasterGuildName) != -1 )

  0013e	8b 90 1c 07 00
	00		 mov	 edx, DWORD PTR [eax+1820]
  00144	8d 4d f4	 lea	 ecx, DWORD PTR _szMasterGuildName$217741[ebp]
  00147	51		 push	 ecx
  00148	52		 push	 edx
  00149	b9 00 00 00 00	 mov	 ecx, OFFSET ?UnionManager@@3VTUnion@@A ; UnionManager
  0014e	e8 00 00 00 00	 call	 ?GetUnionName@TUnion@@QAEHHPAD@Z ; TUnion::GetUnionName
  00153	83 f8 ff	 cmp	 eax, -1
  00156	74 0c		 je	 SHORT $LN6@NotifyCrow@2

; 5871 : 			{
; 5872 : 				memcpy(&pMsg.szGuildName, szMasterGuildName, MAX_GUILD_LEN);

  00158	8b 45 f4	 mov	 eax, DWORD PTR _szMasterGuildName$217741[ebp]
  0015b	8b 4d f8	 mov	 ecx, DWORD PTR _szMasterGuildName$217741[ebp+4]
  0015e	89 45 e0	 mov	 DWORD PTR _pMsg$[ebp+8], eax
  00161	89 4d e4	 mov	 DWORD PTR _pMsg$[ebp+12], ecx
$LN6@NotifyCrow@2:

; 5873 : 			}
; 5874 : 		}
; 5875 : 		DataSend(iCrownSwitchUserIndex, (LPBYTE)&pMsg, pMsg.h.size);

  00164	0f b6 55 d9	 movzx	 edx, BYTE PTR _pMsg$[ebp+1]
  00168	52		 push	 edx
  00169	8d 45 d8	 lea	 eax, DWORD PTR _pMsg$[ebp]
  0016c	50		 push	 eax
  0016d	56		 push	 esi
  0016e	e8 00 00 00 00	 call	 ?DataSend@@YAHHPAEK@Z	; DataSend
  00173	83 c4 0c	 add	 esp, 12			; 0000000cH
$LN8@NotifyCrow@2:

; 5876 : 	}
; 5877 : 	
; 5878 : 	int tObjNum = OBJ_EMPTY;
; 5879 : 
; 5880 : 	for( int i = 0; i < MAX_VIEWPORT; i++ )

  00176	8d b7 ae 08 00
	00		 lea	 esi, DWORD PTR [edi+2222]
  0017c	bf 4b 00 00 00	 mov	 edi, 75			; 0000004bH
$LL5@NotifyCrow@2:

; 5881 : 	{
; 5882 : 		tObjNum = lpObj->VpPlayer2[i].number;

  00181	0f bf 06	 movsx	 eax, WORD PTR [esi]

; 5883 : 
; 5884 : 		if ( tObjNum >= 0 )

  00184	3b c3		 cmp	 eax, ebx
  00186	7c 2e		 jl	 SHORT $LN4@NotifyCrow@2

; 5885 : 		{
; 5886 : 			if ( gObj[tObjNum].Type == OBJ_USER && gObj[tObjNum].Live )

  00188	8b 15 00 00 00
	00		 mov	 edx, DWORD PTR ?gObj@@3PAUOBJECTSTRUCT@@A ; gObj
  0018e	8b c8		 mov	 ecx, eax
  00190	69 c9 50 2b 00
	00		 imul	 ecx, 11088		; 00002b50H
  00196	66 83 7c 11 68
	01		 cmp	 WORD PTR [ecx+edx+104], 1
  0019c	75 18		 jne	 SHORT $LN4@NotifyCrow@2
  0019e	38 5c 11 6a	 cmp	 BYTE PTR [ecx+edx+106], bl
  001a2	74 12		 je	 SHORT $LN4@NotifyCrow@2

; 5887 : 			{
; 5888 : 				DataSend(tObjNum, (LPBYTE)&pMsg, pMsg.h.size);

  001a4	0f b6 4d d9	 movzx	 ecx, BYTE PTR _pMsg$[ebp+1]
  001a8	51		 push	 ecx
  001a9	8d 55 d8	 lea	 edx, DWORD PTR _pMsg$[ebp]
  001ac	52		 push	 edx
  001ad	50		 push	 eax
  001ae	e8 00 00 00 00	 call	 ?DataSend@@YAHHPAEK@Z	; DataSend
  001b3	83 c4 0c	 add	 esp, 12			; 0000000cH
$LN4@NotifyCrow@2:

; 5876 : 	}
; 5877 : 	
; 5878 : 	int tObjNum = OBJ_EMPTY;
; 5879 : 
; 5880 : 	for( int i = 0; i < MAX_VIEWPORT; i++ )

  001b6	83 c6 0c	 add	 esi, 12			; 0000000cH
  001b9	4f		 dec	 edi
  001ba	75 c5		 jne	 SHORT $LL5@NotifyCrow@2
  001bc	5e		 pop	 esi
$LN19@NotifyCrow@2:

; 5889 : 			}
; 5890 : 		}
; 5891 : 	}
; 5892 : }

  001bd	8b 4d fc	 mov	 ecx, DWORD PTR __$ArrayPad$[ebp]
  001c0	5f		 pop	 edi
  001c1	33 cd		 xor	 ecx, ebp
  001c3	5b		 pop	 ebx
  001c4	e8 00 00 00 00	 call	 @__security_check_cookie@4
  001c9	8b e5		 mov	 esp, ebp
  001cb	5d		 pop	 ebp
  001cc	c2 04 00	 ret	 4
?NotifyCrownSwitchInfo@CCastleSiege@@QAEXH@Z ENDP	; CCastleSiege::NotifyCrownSwitchInfo
_TEXT	ENDS
PUBLIC	?SendMapServerGroupMsg@CCastleSiege@@QAEXPAD@Z	; CCastleSiege::SendMapServerGroupMsg
EXTRN	?GS_GDReqMapSvrMsgMultiCast@@YAXHPAD@Z:PROC	; GS_GDReqMapSvrMsgMultiCast
; Function compile flags: /Ogtp
;	COMDAT ?SendMapServerGroupMsg@CCastleSiege@@QAEXPAD@Z
_TEXT	SEGMENT
_lpszMsg$ = 8						; size = 4
?SendMapServerGroupMsg@CCastleSiege@@QAEXPAD@Z PROC	; CCastleSiege::SendMapServerGroupMsg, COMDAT
; _this$ = ecx

; 5895 : {

  00000	55		 push	 ebp
  00001	8b ec		 mov	 ebp, esp

; 5896 : 	GS_GDReqMapSvrMsgMultiCast(this->m_iMapSvrGroup, lpszMsg);

  00003	8b 45 08	 mov	 eax, DWORD PTR _lpszMsg$[ebp]
  00006	8b 49 18	 mov	 ecx, DWORD PTR [ecx+24]
  00009	50		 push	 eax
  0000a	51		 push	 ecx
  0000b	e8 00 00 00 00	 call	 ?GS_GDReqMapSvrMsgMultiCast@@YAXHPAD@Z ; GS_GDReqMapSvrMsgMultiCast
  00010	83 c4 08	 add	 esp, 8

; 5897 : }

  00013	5d		 pop	 ebp
  00014	c2 04 00	 ret	 4
?SendMapServerGroupMsg@CCastleSiege@@QAEXPAD@Z ENDP	; CCastleSiege::SendMapServerGroupMsg
_TEXT	ENDS
PUBLIC	?SendAllUserAnyData@CCastleSiege@@QAEXPAEH@Z	; CCastleSiege::SendAllUserAnyData
; Function compile flags: /Ogtp
;	COMDAT ?SendAllUserAnyData@CCastleSiege@@QAEXPAEH@Z
_TEXT	SEGMENT
_lpMsg$ = 8						; size = 4
_iSize$ = 12						; size = 4
?SendAllUserAnyData@CCastleSiege@@QAEXPAEH@Z PROC	; CCastleSiege::SendAllUserAnyData, COMDAT
; _this$ = ecx

; 5900 : {

  00000	55		 push	 ebp
  00001	8b ec		 mov	 ebp, esp

; 5901 : 	for( int i = OBJ_STARTUSERINDZT; i < OBJMAX; i++ )

  00003	a1 00 00 00 00	 mov	 eax, DWORD PTR ?gObj@@3PAUOBJECTSTRUCT@@A ; gObj
  00008	53		 push	 ebx
  00009	8b 5d 0c	 mov	 ebx, DWORD PTR _iSize$[ebp]
  0000c	56		 push	 esi
  0000d	57		 push	 edi
  0000e	bf b0 36 00 00	 mov	 edi, 14000		; 000036b0H
  00013	be 00 a7 40 09	 mov	 esi, 155232000		; 0940a700H
$LL4@SendAllUse:

; 5902 : 	{
; 5903 : 		if ( (gObj[i].Connected == PLAYER_PLAYING) && (gObj[i].Type == OBJ_USER) )

  00018	83 7c 06 04 03	 cmp	 DWORD PTR [esi+eax+4], 3
  0001d	75 1b		 jne	 SHORT $LN3@SendAllUse
  0001f	66 83 7c 06 68
	01		 cmp	 WORD PTR [esi+eax+104], 1
  00025	75 13		 jne	 SHORT $LN3@SendAllUse

; 5904 : 		{
; 5905 : 			::DataSend(i, lpMsg, iSize);

  00027	8b 45 08	 mov	 eax, DWORD PTR _lpMsg$[ebp]
  0002a	53		 push	 ebx
  0002b	50		 push	 eax
  0002c	57		 push	 edi
  0002d	e8 00 00 00 00	 call	 ?DataSend@@YAHHPAEK@Z	; DataSend
  00032	a1 00 00 00 00	 mov	 eax, DWORD PTR ?gObj@@3PAUOBJECTSTRUCT@@A ; gObj
  00037	83 c4 0c	 add	 esp, 12			; 0000000cH
$LN3@SendAllUse:

; 5901 : 	for( int i = OBJ_STARTUSERINDZT; i < OBJMAX; i++ )

  0003a	81 c6 50 2b 00
	00		 add	 esi, 11088		; 00002b50H
  00040	47		 inc	 edi
  00041	81 fe 80 d7 e9
	09		 cmp	 esi, 166320000		; 09e9d780H
  00047	7c cf		 jl	 SHORT $LL4@SendAllUse
  00049	5f		 pop	 edi
  0004a	5e		 pop	 esi
  0004b	5b		 pop	 ebx

; 5906 : 		}
; 5907 : 	}
; 5908 : }

  0004c	5d		 pop	 ebp
  0004d	c2 08 00	 ret	 8
?SendAllUserAnyData@CCastleSiege@@QAEXPAEH@Z ENDP	; CCastleSiege::SendAllUserAnyData
_TEXT	ENDS
PUBLIC	__$ArrayPad$
PUBLIC	?SendAllUserAnyMsg@CCastleSiege@@QAEXPADH@Z	; CCastleSiege::SendAllUserAnyMsg
EXTRN	?SendNoticeToAllUser@TNotice@@SAXPAX@Z:PROC	; TNotice::SendNoticeToAllUser
EXTRN	?SetNoticeProperty@TNotice@@SAXPAXEKEGE@Z:PROC	; TNotice::SetNoticeProperty
EXTRN	?MakeNoticeMsg@TNotice@@SAXPAXEPAD@Z:PROC	; TNotice::MakeNoticeMsg
; Function compile flags: /Ogtp
;	COMDAT ?SendAllUserAnyMsg@CCastleSiege@@QAEXPADH@Z
_TEXT	SEGMENT
_pNotice$ = -276					; size = 272
__$ArrayPad$ = -4					; size = 4
_lpszMsg$ = 8						; size = 4
_iType$ = 12						; size = 4
?SendAllUserAnyMsg@CCastleSiege@@QAEXPADH@Z PROC	; CCastleSiege::SendAllUserAnyMsg, COMDAT
; _this$ = ecx

; 5911 : {

  00000	55		 push	 ebp
  00001	8b ec		 mov	 ebp, esp
  00003	81 ec 14 01 00
	00		 sub	 esp, 276		; 00000114H
  00009	a1 00 00 00 00	 mov	 eax, DWORD PTR ___security_cookie
  0000e	33 c5		 xor	 eax, ebp
  00010	89 45 fc	 mov	 DWORD PTR __$ArrayPad$[ebp], eax
  00013	8b 45 08	 mov	 eax, DWORD PTR _lpszMsg$[ebp]

; 5912 : 	PMSG_NOTICE pNotice;
; 5913 : 
; 5914 : 	if ( lpszMsg == NULL )

  00016	85 c0		 test	 eax, eax
  00018	0f 84 b6 00 00
	00		 je	 $LN8@SendAllUse@2

; 5915 : 	{
; 5916 : 		return;
; 5917 : 	}
; 5918 : 
; 5919 : 	switch( iType )

  0001e	8b 4d 0c	 mov	 ecx, DWORD PTR _iType$[ebp]
  00021	49		 dec	 ecx
  00022	74 79		 je	 SHORT $LN7@SendAllUse@2
  00024	49		 dec	 ecx
  00025	0f 85 a9 00 00
	00		 jne	 $LN8@SendAllUse@2

; 5925 : 		break;
; 5926 : 
; 5927 : 		case 2:
; 5928 : 			{
; 5929 : 				TNotice::MakeNoticeMsg(&pNotice, 0, lpszMsg);

  0002b	56		 push	 esi
  0002c	57		 push	 edi
  0002d	50		 push	 eax
  0002e	51		 push	 ecx
  0002f	8d 85 ec fe ff
	ff		 lea	 eax, DWORD PTR _pNotice$[ebp]
  00035	50		 push	 eax
  00036	e8 00 00 00 00	 call	 ?MakeNoticeMsg@TNotice@@SAXPAXEPAD@Z ; TNotice::MakeNoticeMsg
  0003b	a1 00 00 00 00	 mov	 eax, DWORD PTR ?gObj@@3PAUOBJECTSTRUCT@@A ; gObj
  00040	83 c4 0c	 add	 esp, 12			; 0000000cH

; 5930 : 				for(int i = OBJ_STARTUSERINDZT; i < OBJMAX; i++ )

  00043	bf b0 36 00 00	 mov	 edi, 14000		; 000036b0H
  00048	be 00 a7 40 09	 mov	 esi, 155232000		; 0940a700H
  0004d	8d 49 00	 npad	 3
$LL5@SendAllUse@2:

; 5931 : 				{
; 5932 : 					if ( (gObj[i].Connected == PLAYER_PLAYING) && (gObj[i].Type == OBJ_USER) )

  00050	83 7c 06 04 03	 cmp	 DWORD PTR [esi+eax+4], 3
  00055	75 25		 jne	 SHORT $LN4@SendAllUse@2
  00057	66 83 7c 06 68
	01		 cmp	 WORD PTR [esi+eax+104], 1
  0005d	75 1d		 jne	 SHORT $LN4@SendAllUse@2

; 5933 : 					{
; 5934 : 						::DataSend(i, (LPBYTE)&pNotice, pNotice.h.size);

  0005f	0f b6 8d ed fe
	ff ff		 movzx	 ecx, BYTE PTR _pNotice$[ebp+1]
  00066	51		 push	 ecx
  00067	8d 95 ec fe ff
	ff		 lea	 edx, DWORD PTR _pNotice$[ebp]
  0006d	52		 push	 edx
  0006e	57		 push	 edi
  0006f	e8 00 00 00 00	 call	 ?DataSend@@YAHHPAEK@Z	; DataSend
  00074	a1 00 00 00 00	 mov	 eax, DWORD PTR ?gObj@@3PAUOBJECTSTRUCT@@A ; gObj
  00079	83 c4 0c	 add	 esp, 12			; 0000000cH
$LN4@SendAllUse@2:

; 5930 : 				for(int i = OBJ_STARTUSERINDZT; i < OBJMAX; i++ )

  0007c	81 c6 50 2b 00
	00		 add	 esi, 11088		; 00002b50H
  00082	47		 inc	 edi
  00083	81 fe 80 d7 e9
	09		 cmp	 esi, 166320000		; 09e9d780H
  00089	7c c5		 jl	 SHORT $LL5@SendAllUse@2
  0008b	5f		 pop	 edi
  0008c	5e		 pop	 esi

; 5935 : 					}
; 5936 : 				}
; 5937 : 			}
; 5938 : 		break;
; 5939 : 
; 5940 : 		default:
; 5941 : 			break;
; 5942 : 	}
; 5943 : }

  0008d	8b 4d fc	 mov	 ecx, DWORD PTR __$ArrayPad$[ebp]
  00090	33 cd		 xor	 ecx, ebp
  00092	e8 00 00 00 00	 call	 @__security_check_cookie@4
  00097	8b e5		 mov	 esp, ebp
  00099	5d		 pop	 ebp
  0009a	c2 08 00	 ret	 8
$LN7@SendAllUse@2:

; 5920 : 	{
; 5921 : 		case 1:
; 5922 : 			TNotice::MakeNoticeMsg(&pNotice, 0, lpszMsg);

  0009d	50		 push	 eax
  0009e	8d 85 ec fe ff
	ff		 lea	 eax, DWORD PTR _pNotice$[ebp]
  000a4	6a 00		 push	 0
  000a6	50		 push	 eax
  000a7	e8 00 00 00 00	 call	 ?MakeNoticeMsg@TNotice@@SAXPAXEPAD@Z ; TNotice::MakeNoticeMsg

; 5923 : 			TNotice::SetNoticeProperty(&pNotice, 10, _ARGB(255, 255, 200, 80), 1, 0, 20);

  000ac	6a 14		 push	 20			; 00000014H
  000ae	6a 00		 push	 0
  000b0	6a 01		 push	 1
  000b2	68 ff c8 50 ff	 push	 -11482881		; ff50c8ffH
  000b7	8d 8d ec fe ff
	ff		 lea	 ecx, DWORD PTR _pNotice$[ebp]
  000bd	6a 0a		 push	 10			; 0000000aH
  000bf	51		 push	 ecx
  000c0	e8 00 00 00 00	 call	 ?SetNoticeProperty@TNotice@@SAXPAXEKEGE@Z ; TNotice::SetNoticeProperty

; 5924 : 			TNotice::SendNoticeToAllUser(&pNotice);

  000c5	8d 95 ec fe ff
	ff		 lea	 edx, DWORD PTR _pNotice$[ebp]
  000cb	52		 push	 edx
  000cc	e8 00 00 00 00	 call	 ?SendNoticeToAllUser@TNotice@@SAXPAX@Z ; TNotice::SendNoticeToAllUser
  000d1	83 c4 28	 add	 esp, 40			; 00000028H
$LN8@SendAllUse@2:

; 5935 : 					}
; 5936 : 				}
; 5937 : 			}
; 5938 : 		break;
; 5939 : 
; 5940 : 		default:
; 5941 : 			break;
; 5942 : 	}
; 5943 : }

  000d4	8b 4d fc	 mov	 ecx, DWORD PTR __$ArrayPad$[ebp]
  000d7	33 cd		 xor	 ecx, ebp
  000d9	e8 00 00 00 00	 call	 @__security_check_cookie@4
  000de	8b e5		 mov	 esp, ebp
  000e0	5d		 pop	 ebp
  000e1	c2 08 00	 ret	 8
?SendAllUserAnyMsg@CCastleSiege@@QAEXPADH@Z ENDP	; CCastleSiege::SendAllUserAnyMsg
_TEXT	ENDS
PUBLIC	?SendCsUserAnyData@CCastleSiege@@QAEXPAEH@Z	; CCastleSiege::SendCsUserAnyData
; Function compile flags: /Ogtp
;	COMDAT ?SendCsUserAnyData@CCastleSiege@@QAEXPAEH@Z
_TEXT	SEGMENT
_lpMsg$ = 8						; size = 4
_iSize$ = 12						; size = 4
?SendCsUserAnyData@CCastleSiege@@QAEXPAEH@Z PROC	; CCastleSiege::SendCsUserAnyData, COMDAT
; _this$ = ecx

; 5946 : {

  00000	55		 push	 ebp
  00001	8b ec		 mov	 ebp, esp

; 5947 : 	for( int i = OBJ_STARTUSERINDZT; i < OBJMAX; i++ )

  00003	a1 00 00 00 00	 mov	 eax, DWORD PTR ?gObj@@3PAUOBJECTSTRUCT@@A ; gObj
  00008	53		 push	 ebx
  00009	8b 5d 0c	 mov	 ebx, DWORD PTR _iSize$[ebp]
  0000c	56		 push	 esi
  0000d	57		 push	 edi
  0000e	bf b0 36 00 00	 mov	 edi, 14000		; 000036b0H
  00013	be 00 a7 40 09	 mov	 esi, 155232000		; 0940a700H
$LL5@SendCsUser:

; 5948 : 	{
; 5949 : 		if ( (gObj[i].Connected == PLAYER_PLAYING) && (gObj[i].Type == OBJ_USER) )

  00018	83 7c 06 04 03	 cmp	 DWORD PTR [esi+eax+4], 3
  0001d	75 25		 jne	 SHORT $LN4@SendCsUser
  0001f	66 83 7c 06 68
	01		 cmp	 WORD PTR [esi+eax+104], 1
  00025	75 1d		 jne	 SHORT $LN4@SendCsUser

; 5950 : 		{
; 5951 : 			if ( gObj[i].MapNumber == MAP_INDEX_CASTLESIEGE )

  00027	80 bc 06 49 01
	00 00 1e	 cmp	 BYTE PTR [esi+eax+329], 30 ; 0000001eH
  0002f	75 13		 jne	 SHORT $LN4@SendCsUser

; 5952 : 			{
; 5953 : 				DataSend(i, lpMsg, iSize);

  00031	8b 45 08	 mov	 eax, DWORD PTR _lpMsg$[ebp]
  00034	53		 push	 ebx
  00035	50		 push	 eax
  00036	57		 push	 edi
  00037	e8 00 00 00 00	 call	 ?DataSend@@YAHHPAEK@Z	; DataSend
  0003c	a1 00 00 00 00	 mov	 eax, DWORD PTR ?gObj@@3PAUOBJECTSTRUCT@@A ; gObj
  00041	83 c4 0c	 add	 esp, 12			; 0000000cH
$LN4@SendCsUser:

; 5947 : 	for( int i = OBJ_STARTUSERINDZT; i < OBJMAX; i++ )

  00044	81 c6 50 2b 00
	00		 add	 esi, 11088		; 00002b50H
  0004a	47		 inc	 edi
  0004b	81 fe 80 d7 e9
	09		 cmp	 esi, 166320000		; 09e9d780H
  00051	7c c5		 jl	 SHORT $LL5@SendCsUser
  00053	5f		 pop	 edi
  00054	5e		 pop	 esi
  00055	5b		 pop	 ebx

; 5954 : 			}
; 5955 : 		}
; 5956 : 	}
; 5957 : }

  00056	5d		 pop	 ebp
  00057	c2 08 00	 ret	 8
?SendCsUserAnyData@CCastleSiege@@QAEXPAEH@Z ENDP	; CCastleSiege::SendCsUserAnyData
_TEXT	ENDS
PUBLIC	__$ArrayPad$
PUBLIC	?SendCsUserAnyMsg@CCastleSiege@@QAEXPAD@Z	; CCastleSiege::SendCsUserAnyMsg
; Function compile flags: /Ogtp
;	COMDAT ?SendCsUserAnyMsg@CCastleSiege@@QAEXPAD@Z
_TEXT	SEGMENT
_pNotice$ = -276					; size = 272
__$ArrayPad$ = -4					; size = 4
_lpszMsg$ = 8						; size = 4
?SendCsUserAnyMsg@CCastleSiege@@QAEXPAD@Z PROC		; CCastleSiege::SendCsUserAnyMsg, COMDAT
; _this$ = ecx

; 5960 : {

  00000	55		 push	 ebp
  00001	8b ec		 mov	 ebp, esp
  00003	81 ec 14 01 00
	00		 sub	 esp, 276		; 00000114H
  00009	a1 00 00 00 00	 mov	 eax, DWORD PTR ___security_cookie
  0000e	33 c5		 xor	 eax, ebp
  00010	89 45 fc	 mov	 DWORD PTR __$ArrayPad$[ebp], eax
  00013	8b 45 08	 mov	 eax, DWORD PTR _lpszMsg$[ebp]

; 5961 : 	PMSG_NOTICE pNotice;
; 5962 : 
; 5963 : 	if ( lpszMsg == NULL )

  00016	85 c0		 test	 eax, eax
  00018	74 6d		 je	 SHORT $LN3@SendCsUser@2

; 5964 : 	{
; 5965 : 		return;
; 5966 : 	}
; 5967 : 
; 5968 : 	TNotice::MakeNoticeMsg(&pNotice, 0, lpszMsg);

  0001a	56		 push	 esi
  0001b	57		 push	 edi
  0001c	50		 push	 eax
  0001d	8d 85 ec fe ff
	ff		 lea	 eax, DWORD PTR _pNotice$[ebp]
  00023	6a 00		 push	 0
  00025	50		 push	 eax
  00026	e8 00 00 00 00	 call	 ?MakeNoticeMsg@TNotice@@SAXPAXEPAD@Z ; TNotice::MakeNoticeMsg
  0002b	a1 00 00 00 00	 mov	 eax, DWORD PTR ?gObj@@3PAUOBJECTSTRUCT@@A ; gObj
  00030	83 c4 0c	 add	 esp, 12			; 0000000cH

; 5969 : 
; 5970 : 	for( int i = OBJ_STARTUSERINDZT; i < OBJMAX; i++ )

  00033	bf b0 36 00 00	 mov	 edi, 14000		; 000036b0H
  00038	be 00 a7 40 09	 mov	 esi, 155232000		; 0940a700H
  0003d	8d 49 00	 npad	 3
$LL5@SendCsUser@2:

; 5971 : 	{
; 5972 : 		if ( (gObj[i].Connected == PLAYER_PLAYING) && (gObj[i].Type == OBJ_USER) )

  00040	83 7c 06 04 03	 cmp	 DWORD PTR [esi+eax+4], 3
  00045	75 2f		 jne	 SHORT $LN4@SendCsUser@2
  00047	66 83 7c 06 68
	01		 cmp	 WORD PTR [esi+eax+104], 1
  0004d	75 27		 jne	 SHORT $LN4@SendCsUser@2

; 5973 : 		{
; 5974 : 			if ( gObj[i].MapNumber == MAP_INDEX_CASTLESIEGE )

  0004f	80 bc 06 49 01
	00 00 1e	 cmp	 BYTE PTR [esi+eax+329], 30 ; 0000001eH
  00057	75 1d		 jne	 SHORT $LN4@SendCsUser@2

; 5975 : 			{
; 5976 : 				DataSend(i, (LPBYTE)&pNotice, pNotice.h.size);

  00059	0f b6 8d ed fe
	ff ff		 movzx	 ecx, BYTE PTR _pNotice$[ebp+1]
  00060	51		 push	 ecx
  00061	8d 95 ec fe ff
	ff		 lea	 edx, DWORD PTR _pNotice$[ebp]
  00067	52		 push	 edx
  00068	57		 push	 edi
  00069	e8 00 00 00 00	 call	 ?DataSend@@YAHHPAEK@Z	; DataSend
  0006e	a1 00 00 00 00	 mov	 eax, DWORD PTR ?gObj@@3PAUOBJECTSTRUCT@@A ; gObj
  00073	83 c4 0c	 add	 esp, 12			; 0000000cH
$LN4@SendCsUser@2:

; 5969 : 
; 5970 : 	for( int i = OBJ_STARTUSERINDZT; i < OBJMAX; i++ )

  00076	81 c6 50 2b 00
	00		 add	 esi, 11088		; 00002b50H
  0007c	47		 inc	 edi
  0007d	81 fe 80 d7 e9
	09		 cmp	 esi, 166320000		; 09e9d780H
  00083	7c bb		 jl	 SHORT $LL5@SendCsUser@2
  00085	5f		 pop	 edi
  00086	5e		 pop	 esi
$LN3@SendCsUser@2:

; 5977 : 			}
; 5978 : 		}
; 5979 : 	}
; 5980 : }

  00087	8b 4d fc	 mov	 ecx, DWORD PTR __$ArrayPad$[ebp]
  0008a	33 cd		 xor	 ecx, ebp
  0008c	e8 00 00 00 00	 call	 @__security_check_cookie@4
  00091	8b e5		 mov	 esp, ebp
  00093	5d		 pop	 ebp
  00094	c2 04 00	 ret	 4
?SendCsUserAnyMsg@CCastleSiege@@QAEXPAD@Z ENDP		; CCastleSiege::SendCsUserAnyMsg
_TEXT	ENDS
PUBLIC	?SavePcRoomUserList@CCastleSiege@@QAEXXZ	; CCastleSiege::SavePcRoomUserList
; Function compile flags: /Ogtp
;	COMDAT ?SavePcRoomUserList@CCastleSiege@@QAEXXZ
_TEXT	SEGMENT
?SavePcRoomUserList@CCastleSiege@@QAEXXZ PROC		; CCastleSiege::SavePcRoomUserList, COMDAT
; _this$ = ecx

; 6245 : 	//Something related to muonline.co.kr version (could be sort of a pcbang system for siege??)
; 6246 : }

  00000	c3		 ret	 0
?SavePcRoomUserList@CCastleSiege@@QAEXXZ ENDP		; CCastleSiege::SavePcRoomUserList
_TEXT	ENDS
PUBLIC	?size@?$vector@U_CS_SCHEDULE_DATA@@V?$allocator@U_CS_SCHEDULE_DATA@@@std@@@std@@QBEIXZ ; std::vector<_CS_SCHEDULE_DATA,std::allocator<_CS_SCHEDULE_DATA> >::size
; Function compile flags: /Ogtp
; File d:\program files (x86)\microsoft visual studio 10.0\vc\include\vector
;	COMDAT ?size@?$vector@U_CS_SCHEDULE_DATA@@V?$allocator@U_CS_SCHEDULE_DATA@@@std@@@std@@QBEIXZ
_TEXT	SEGMENT
?size@?$vector@U_CS_SCHEDULE_DATA@@V?$allocator@U_CS_SCHEDULE_DATA@@@std@@@std@@QBEIXZ PROC ; std::vector<_CS_SCHEDULE_DATA,std::allocator<_CS_SCHEDULE_DATA> >::size, COMDAT
; _this$ = ecx

; 878  : 		{	// return length of sequence

  00000	56		 push	 esi

; 879  : 		return (this->_Mylast - this->_Myfirst);

  00001	8b 71 04	 mov	 esi, DWORD PTR [ecx+4]
  00004	2b 31		 sub	 esi, DWORD PTR [ecx]
  00006	b8 93 24 49 92	 mov	 eax, -1840700269	; 92492493H
  0000b	f7 ee		 imul	 esi
  0000d	03 d6		 add	 edx, esi
  0000f	c1 fa 04	 sar	 edx, 4
  00012	8b c2		 mov	 eax, edx
  00014	c1 e8 1f	 shr	 eax, 31			; 0000001fH
  00017	03 c2		 add	 eax, edx
  00019	5e		 pop	 esi

; 880  : 		}

  0001a	c3		 ret	 0
?size@?$vector@U_CS_SCHEDULE_DATA@@V?$allocator@U_CS_SCHEDULE_DATA@@@std@@@std@@QBEIXZ ENDP ; std::vector<_CS_SCHEDULE_DATA,std::allocator<_CS_SCHEDULE_DATA> >::size
_TEXT	ENDS
PUBLIC	?empty@?$vector@U_CS_SCHEDULE_DATA@@V?$allocator@U_CS_SCHEDULE_DATA@@@std@@@std@@QBE_NXZ ; std::vector<_CS_SCHEDULE_DATA,std::allocator<_CS_SCHEDULE_DATA> >::empty
; Function compile flags: /Ogtp
;	COMDAT ?empty@?$vector@U_CS_SCHEDULE_DATA@@V?$allocator@U_CS_SCHEDULE_DATA@@@std@@@std@@QBE_NXZ
_TEXT	SEGMENT
?empty@?$vector@U_CS_SCHEDULE_DATA@@V?$allocator@U_CS_SCHEDULE_DATA@@@std@@@std@@QBE_NXZ PROC ; std::vector<_CS_SCHEDULE_DATA,std::allocator<_CS_SCHEDULE_DATA> >::empty, COMDAT
; _this$ = ecx

; 889  : 		return (this->_Myfirst == this->_Mylast);

  00000	8b 01		 mov	 eax, DWORD PTR [ecx]
  00002	33 d2		 xor	 edx, edx
  00004	3b 41 04	 cmp	 eax, DWORD PTR [ecx+4]
  00007	0f 94 c0	 sete	 al

; 890  : 		}

  0000a	c3		 ret	 0
?empty@?$vector@U_CS_SCHEDULE_DATA@@V?$allocator@U_CS_SCHEDULE_DATA@@@std@@@std@@QBE_NXZ ENDP ; std::vector<_CS_SCHEDULE_DATA,std::allocator<_CS_SCHEDULE_DATA> >::empty
_TEXT	ENDS
PUBLIC	??A?$vector@U_CS_SCHEDULE_DATA@@V?$allocator@U_CS_SCHEDULE_DATA@@@std@@@std@@QAEAAU_CS_SCHEDULE_DATA@@I@Z ; std::vector<_CS_SCHEDULE_DATA,std::allocator<_CS_SCHEDULE_DATA> >::operator[]
; Function compile flags: /Ogtp
;	COMDAT ??A?$vector@U_CS_SCHEDULE_DATA@@V?$allocator@U_CS_SCHEDULE_DATA@@@std@@@std@@QAEAAU_CS_SCHEDULE_DATA@@I@Z
_TEXT	SEGMENT
__Pos$ = 8						; size = 4
??A?$vector@U_CS_SCHEDULE_DATA@@V?$allocator@U_CS_SCHEDULE_DATA@@@std@@@std@@QAEAAU_CS_SCHEDULE_DATA@@I@Z PROC ; std::vector<_CS_SCHEDULE_DATA,std::allocator<_CS_SCHEDULE_DATA> >::operator[], COMDAT
; _this$ = ecx

; 928  : 		{	// subscript mutable sequence

  00000	55		 push	 ebp
  00001	8b ec		 mov	 ebp, esp

; 929  :  #if _ITERATOR_DEBUG_LEVEL == 2
; 930  : 		if (size() <= _Pos)
; 931  : 			{	// report error
; 932  : 			_DEBUG_ERROR("vector subscript out of range");
; 933  : 			_SCL_SECURE_OUT_OF_RANGE;
; 934  : 			}
; 935  : 
; 936  :  #elif _ITERATOR_DEBUG_LEVEL == 1
; 937  : 		_SCL_SECURE_VALIDATE_RANGE(_Pos < size());
; 938  :  #endif /* _ITERATOR_DEBUG_LEVEL */
; 939  : 
; 940  : 		return (*(this->_Myfirst + _Pos));

  00003	8b 45 08	 mov	 eax, DWORD PTR __Pos$[ebp]
  00006	8d 14 c5 00 00
	00 00		 lea	 edx, DWORD PTR [eax*8]
  0000d	2b d0		 sub	 edx, eax
  0000f	8b 01		 mov	 eax, DWORD PTR [ecx]
  00011	8d 04 90	 lea	 eax, DWORD PTR [eax+edx*4]

; 941  : 		}

  00014	5d		 pop	 ebp
  00015	c2 04 00	 ret	 4
??A?$vector@U_CS_SCHEDULE_DATA@@V?$allocator@U_CS_SCHEDULE_DATA@@@std@@@std@@QAEAAU_CS_SCHEDULE_DATA@@I@Z ENDP ; std::vector<_CS_SCHEDULE_DATA,std::allocator<_CS_SCHEDULE_DATA> >::operator[]
_TEXT	ENDS
PUBLIC	?empty@?$vector@U_CS_NPC_DATA@@V?$allocator@U_CS_NPC_DATA@@@std@@@std@@QBE_NXZ ; std::vector<_CS_NPC_DATA,std::allocator<_CS_NPC_DATA> >::empty
; Function compile flags: /Ogtp
;	COMDAT ?empty@?$vector@U_CS_NPC_DATA@@V?$allocator@U_CS_NPC_DATA@@@std@@@std@@QBE_NXZ
_TEXT	SEGMENT
?empty@?$vector@U_CS_NPC_DATA@@V?$allocator@U_CS_NPC_DATA@@@std@@@std@@QBE_NXZ PROC ; std::vector<_CS_NPC_DATA,std::allocator<_CS_NPC_DATA> >::empty, COMDAT
; _this$ = ecx

; 889  : 		return (this->_Myfirst == this->_Mylast);

  00000	8b 01		 mov	 eax, DWORD PTR [ecx]
  00002	33 d2		 xor	 edx, edx
  00004	3b 41 04	 cmp	 eax, DWORD PTR [ecx+4]
  00007	0f 94 c0	 sete	 al

; 890  : 		}

  0000a	c3		 ret	 0
?empty@?$vector@U_CS_NPC_DATA@@V?$allocator@U_CS_NPC_DATA@@@std@@@std@@QBE_NXZ ENDP ; std::vector<_CS_NPC_DATA,std::allocator<_CS_NPC_DATA> >::empty
_TEXT	ENDS
PUBLIC	?size@?$_Tree@V?$_Tmap_traits@V?$basic_string@DU?$char_traits@D@std@@V?$allocator@D@2@@std@@U_CS_TOTAL_GUILD_DATA@@U?$less@V?$basic_string@DU?$char_traits@D@std@@V?$allocator@D@2@@std@@@2@V?$allocator@U?$pair@$$CBV?$basic_string@DU?$char_traits@D@std@@V?$allocator@D@2@@std@@U_CS_TOTAL_GUILD_DATA@@@std@@@2@$0A@@std@@@std@@QBEIXZ ; std::_Tree<std::_Tmap_traits<std::basic_string<char,std::char_traits<char>,std::allocator<char> >,_CS_TOTAL_GUILD_DATA,std::less<std::basic_string<char,std::char_traits<char>,std::allocator<char> > >,std::allocator<std::pair<std::basic_string<char,std::char_traits<char>,std::allocator<char> > const ,_CS_TOTAL_GUILD_DATA> >,0> >::size
; Function compile flags: /Ogtp
; File d:\program files (x86)\microsoft visual studio 10.0\vc\include\xtree
;	COMDAT ?size@?$_Tree@V?$_Tmap_traits@V?$basic_string@DU?$char_traits@D@std@@V?$allocator@D@2@@std@@U_CS_TOTAL_GUILD_DATA@@U?$less@V?$basic_string@DU?$char_traits@D@std@@V?$allocator@D@2@@std@@@2@V?$allocator@U?$pair@$$CBV?$basic_string@DU?$char_traits@D@std@@V?$allocator@D@2@@std@@U_CS_TOTAL_GUILD_DATA@@@std@@@2@$0A@@std@@@std@@QBEIXZ
_TEXT	SEGMENT
?size@?$_Tree@V?$_Tmap_traits@V?$basic_string@DU?$char_traits@D@std@@V?$allocator@D@2@@std@@U_CS_TOTAL_GUILD_DATA@@U?$less@V?$basic_string@DU?$char_traits@D@std@@V?$allocator@D@2@@std@@@2@V?$allocator@U?$pair@$$CBV?$basic_string@DU?$char_traits@D@std@@V?$allocator@D@2@@std@@U_CS_TOTAL_GUILD_DATA@@@std@@@2@$0A@@std@@@std@@QBEIXZ PROC ; std::_Tree<std::_Tmap_traits<std::basic_string<char,std::char_traits<char>,std::allocator<char> >,_CS_TOTAL_GUILD_DATA,std::less<std::basic_string<char,std::char_traits<char>,std::allocator<char> > >,std::allocator<std::pair<std::basic_string<char,std::char_traits<char>,std::allocator<char> > const ,_CS_TOTAL_GUILD_DATA> >,0> >::size, COMDAT
; _this$ = ecx

; 869  : 		return (this->_Mysize);

  00000	8b 41 08	 mov	 eax, DWORD PTR [ecx+8]

; 870  : 		}

  00003	c3		 ret	 0
?size@?$_Tree@V?$_Tmap_traits@V?$basic_string@DU?$char_traits@D@std@@V?$allocator@D@2@@std@@U_CS_TOTAL_GUILD_DATA@@U?$less@V?$basic_string@DU?$char_traits@D@std@@V?$allocator@D@2@@std@@@2@V?$allocator@U?$pair@$$CBV?$basic_string@DU?$char_traits@D@std@@V?$allocator@D@2@@std@@U_CS_TOTAL_GUILD_DATA@@@std@@@2@$0A@@std@@@std@@QBEIXZ ENDP ; std::_Tree<std::_Tmap_traits<std::basic_string<char,std::char_traits<char>,std::allocator<char> >,_CS_TOTAL_GUILD_DATA,std::less<std::basic_string<char,std::char_traits<char>,std::allocator<char> > >,std::allocator<std::pair<std::basic_string<char,std::char_traits<char>,std::allocator<char> > const ,_CS_TOTAL_GUILD_DATA> >,0> >::size
_TEXT	ENDS
PUBLIC	?empty@?$_Tree@V?$_Tmap_traits@V?$basic_string@DU?$char_traits@D@std@@V?$allocator@D@2@@std@@U_CS_TOTAL_GUILD_DATA@@U?$less@V?$basic_string@DU?$char_traits@D@std@@V?$allocator@D@2@@std@@@2@V?$allocator@U?$pair@$$CBV?$basic_string@DU?$char_traits@D@std@@V?$allocator@D@2@@std@@U_CS_TOTAL_GUILD_DATA@@@std@@@2@$0A@@std@@@std@@QBE_NXZ ; std::_Tree<std::_Tmap_traits<std::basic_string<char,std::char_traits<char>,std::allocator<char> >,_CS_TOTAL_GUILD_DATA,std::less<std::basic_string<char,std::char_traits<char>,std::allocator<char> > >,std::allocator<std::pair<std::basic_string<char,std::char_traits<char>,std::allocator<char> > const ,_CS_TOTAL_GUILD_DATA> >,0> >::empty
; Function compile flags: /Ogtp
;	COMDAT ?empty@?$_Tree@V?$_Tmap_traits@V?$basic_string@DU?$char_traits@D@std@@V?$allocator@D@2@@std@@U_CS_TOTAL_GUILD_DATA@@U?$less@V?$basic_string@DU?$char_traits@D@std@@V?$allocator@D@2@@std@@@2@V?$allocator@U?$pair@$$CBV?$basic_string@DU?$char_traits@D@std@@V?$allocator@D@2@@std@@U_CS_TOTAL_GUILD_DATA@@@std@@@2@$0A@@std@@@std@@QBE_NXZ
_TEXT	SEGMENT
?empty@?$_Tree@V?$_Tmap_traits@V?$basic_string@DU?$char_traits@D@std@@V?$allocator@D@2@@std@@U_CS_TOTAL_GUILD_DATA@@U?$less@V?$basic_string@DU?$char_traits@D@std@@V?$allocator@D@2@@std@@@2@V?$allocator@U?$pair@$$CBV?$basic_string@DU?$char_traits@D@std@@V?$allocator@D@2@@std@@U_CS_TOTAL_GUILD_DATA@@@std@@@2@$0A@@std@@@std@@QBE_NXZ PROC ; std::_Tree<std::_Tmap_traits<std::basic_string<char,std::char_traits<char>,std::allocator<char> >,_CS_TOTAL_GUILD_DATA,std::less<std::basic_string<char,std::char_traits<char>,std::allocator<char> > >,std::allocator<std::pair<std::basic_string<char,std::char_traits<char>,std::allocator<char> > const ,_CS_TOTAL_GUILD_DATA> >,0> >::empty, COMDAT
; _this$ = ecx

; 879  : 		return (size() == 0);

  00000	33 c0		 xor	 eax, eax
  00002	39 41 08	 cmp	 DWORD PTR [ecx+8], eax
  00005	0f 94 c0	 sete	 al

; 880  : 		}

  00008	c3		 ret	 0
?empty@?$_Tree@V?$_Tmap_traits@V?$basic_string@DU?$char_traits@D@std@@V?$allocator@D@2@@std@@U_CS_TOTAL_GUILD_DATA@@U?$less@V?$basic_string@DU?$char_traits@D@std@@V?$allocator@D@2@@std@@@2@V?$allocator@U?$pair@$$CBV?$basic_string@DU?$char_traits@D@std@@V?$allocator@D@2@@std@@U_CS_TOTAL_GUILD_DATA@@@std@@@2@$0A@@std@@@std@@QBE_NXZ ENDP ; std::_Tree<std::_Tmap_traits<std::basic_string<char,std::char_traits<char>,std::allocator<char> >,_CS_TOTAL_GUILD_DATA,std::less<std::basic_string<char,std::char_traits<char>,std::allocator<char> > >,std::allocator<std::pair<std::basic_string<char,std::char_traits<char>,std::allocator<char> > const ,_CS_TOTAL_GUILD_DATA> >,0> >::empty
_TEXT	ENDS
PUBLIC	?size@?$vector@U_CS_REG_GUILD_DATA@@V?$allocator@U_CS_REG_GUILD_DATA@@@std@@@std@@QBEIXZ ; std::vector<_CS_REG_GUILD_DATA,std::allocator<_CS_REG_GUILD_DATA> >::size
; Function compile flags: /Ogtp
; File d:\program files (x86)\microsoft visual studio 10.0\vc\include\vector
;	COMDAT ?size@?$vector@U_CS_REG_GUILD_DATA@@V?$allocator@U_CS_REG_GUILD_DATA@@@std@@@std@@QBEIXZ
_TEXT	SEGMENT
?size@?$vector@U_CS_REG_GUILD_DATA@@V?$allocator@U_CS_REG_GUILD_DATA@@@std@@@std@@QBEIXZ PROC ; std::vector<_CS_REG_GUILD_DATA,std::allocator<_CS_REG_GUILD_DATA> >::size, COMDAT
; _this$ = ecx

; 879  : 		return (this->_Mylast - this->_Myfirst);

  00000	8b 41 04	 mov	 eax, DWORD PTR [ecx+4]
  00003	2b 01		 sub	 eax, DWORD PTR [ecx]
  00005	c1 f8 06	 sar	 eax, 6

; 880  : 		}

  00008	c3		 ret	 0
?size@?$vector@U_CS_REG_GUILD_DATA@@V?$allocator@U_CS_REG_GUILD_DATA@@@std@@@std@@QBEIXZ ENDP ; std::vector<_CS_REG_GUILD_DATA,std::allocator<_CS_REG_GUILD_DATA> >::size
_TEXT	ENDS
PUBLIC	?empty@?$vector@U_CS_REG_GUILD_DATA@@V?$allocator@U_CS_REG_GUILD_DATA@@@std@@@std@@QBE_NXZ ; std::vector<_CS_REG_GUILD_DATA,std::allocator<_CS_REG_GUILD_DATA> >::empty
; Function compile flags: /Ogtp
;	COMDAT ?empty@?$vector@U_CS_REG_GUILD_DATA@@V?$allocator@U_CS_REG_GUILD_DATA@@@std@@@std@@QBE_NXZ
_TEXT	SEGMENT
?empty@?$vector@U_CS_REG_GUILD_DATA@@V?$allocator@U_CS_REG_GUILD_DATA@@@std@@@std@@QBE_NXZ PROC ; std::vector<_CS_REG_GUILD_DATA,std::allocator<_CS_REG_GUILD_DATA> >::empty, COMDAT
; _this$ = ecx

; 889  : 		return (this->_Myfirst == this->_Mylast);

  00000	8b 01		 mov	 eax, DWORD PTR [ecx]
  00002	33 d2		 xor	 edx, edx
  00004	3b 41 04	 cmp	 eax, DWORD PTR [ecx+4]
  00007	0f 94 c0	 sete	 al

; 890  : 		}

  0000a	c3		 ret	 0
?empty@?$vector@U_CS_REG_GUILD_DATA@@V?$allocator@U_CS_REG_GUILD_DATA@@@std@@@std@@QBE_NXZ ENDP ; std::vector<_CS_REG_GUILD_DATA,std::allocator<_CS_REG_GUILD_DATA> >::empty
_TEXT	ENDS
PUBLIC	??A?$vector@U_CS_REG_GUILD_DATA@@V?$allocator@U_CS_REG_GUILD_DATA@@@std@@@std@@QAEAAU_CS_REG_GUILD_DATA@@I@Z ; std::vector<_CS_REG_GUILD_DATA,std::allocator<_CS_REG_GUILD_DATA> >::operator[]
; Function compile flags: /Ogtp
;	COMDAT ??A?$vector@U_CS_REG_GUILD_DATA@@V?$allocator@U_CS_REG_GUILD_DATA@@@std@@@std@@QAEAAU_CS_REG_GUILD_DATA@@I@Z
_TEXT	SEGMENT
__Pos$ = 8						; size = 4
??A?$vector@U_CS_REG_GUILD_DATA@@V?$allocator@U_CS_REG_GUILD_DATA@@@std@@@std@@QAEAAU_CS_REG_GUILD_DATA@@I@Z PROC ; std::vector<_CS_REG_GUILD_DATA,std::allocator<_CS_REG_GUILD_DATA> >::operator[], COMDAT
; _this$ = ecx

; 928  : 		{	// subscript mutable sequence

  00000	55		 push	 ebp
  00001	8b ec		 mov	 ebp, esp

; 929  :  #if _ITERATOR_DEBUG_LEVEL == 2
; 930  : 		if (size() <= _Pos)
; 931  : 			{	// report error
; 932  : 			_DEBUG_ERROR("vector subscript out of range");
; 933  : 			_SCL_SECURE_OUT_OF_RANGE;
; 934  : 			}
; 935  : 
; 936  :  #elif _ITERATOR_DEBUG_LEVEL == 1
; 937  : 		_SCL_SECURE_VALIDATE_RANGE(_Pos < size());
; 938  :  #endif /* _ITERATOR_DEBUG_LEVEL */
; 939  : 
; 940  : 		return (*(this->_Myfirst + _Pos));

  00003	8b 45 08	 mov	 eax, DWORD PTR __Pos$[ebp]
  00006	c1 e0 06	 shl	 eax, 6
  00009	03 01		 add	 eax, DWORD PTR [ecx]

; 941  : 		}

  0000b	5d		 pop	 ebp
  0000c	c2 04 00	 ret	 4
??A?$vector@U_CS_REG_GUILD_DATA@@V?$allocator@U_CS_REG_GUILD_DATA@@@std@@@std@@QAEAAU_CS_REG_GUILD_DATA@@I@Z ENDP ; std::vector<_CS_REG_GUILD_DATA,std::allocator<_CS_REG_GUILD_DATA> >::operator[]
_TEXT	ENDS
PUBLIC	??R?$less@H@std@@QBE_NABH0@Z			; std::less<int>::operator()
; Function compile flags: /Ogtp
; File d:\program files (x86)\microsoft visual studio 10.0\vc\include\xfunctional
;	COMDAT ??R?$less@H@std@@QBE_NABH0@Z
_TEXT	SEGMENT
__Left$ = 8						; size = 4
__Right$ = 12						; size = 4
??R?$less@H@std@@QBE_NABH0@Z PROC			; std::less<int>::operator(), COMDAT
; _this$ = ecx

; 124  : 		{	// apply operator< to operands

  00000	55		 push	 ebp
  00001	8b ec		 mov	 ebp, esp

; 125  : 		return (_Left < _Right);

  00003	8b 45 08	 mov	 eax, DWORD PTR __Left$[ebp]
  00006	8b 08		 mov	 ecx, DWORD PTR [eax]
  00008	8b 55 0c	 mov	 edx, DWORD PTR __Right$[ebp]
  0000b	33 c0		 xor	 eax, eax
  0000d	3b 0a		 cmp	 ecx, DWORD PTR [edx]
  0000f	0f 9c c0	 setl	 al

; 126  : 		}

  00012	5d		 pop	 ebp
  00013	c2 08 00	 ret	 8
??R?$less@H@std@@QBE_NABH0@Z ENDP			; std::less<int>::operator()
_TEXT	ENDS
PUBLIC	?_Inside@?$vector@U_CS_SCHEDULE_DATA@@V?$allocator@U_CS_SCHEDULE_DATA@@@std@@@std@@IBE_NPBU_CS_SCHEDULE_DATA@@@Z ; std::vector<_CS_SCHEDULE_DATA,std::allocator<_CS_SCHEDULE_DATA> >::_Inside
; Function compile flags: /Ogtp
; File d:\program files (x86)\microsoft visual studio 10.0\vc\include\vector
;	COMDAT ?_Inside@?$vector@U_CS_SCHEDULE_DATA@@V?$allocator@U_CS_SCHEDULE_DATA@@@std@@@std@@IBE_NPBU_CS_SCHEDULE_DATA@@@Z
_TEXT	SEGMENT
__Ptr$ = 8						; size = 4
?_Inside@?$vector@U_CS_SCHEDULE_DATA@@V?$allocator@U_CS_SCHEDULE_DATA@@@std@@@std@@IBE_NPBU_CS_SCHEDULE_DATA@@@Z PROC ; std::vector<_CS_SCHEDULE_DATA,std::allocator<_CS_SCHEDULE_DATA> >::_Inside, COMDAT
; _this$ = ecx

; 1285 : 		{	// test if _Ptr points inside vector

  00000	55		 push	 ebp
  00001	8b ec		 mov	 ebp, esp

; 1286 : 		return (_Ptr < this->_Mylast && this->_Myfirst <= _Ptr);

  00003	8b 45 08	 mov	 eax, DWORD PTR __Ptr$[ebp]
  00006	3b 41 04	 cmp	 eax, DWORD PTR [ecx+4]
  00009	73 0d		 jae	 SHORT $LN3@Inside
  0000b	39 01		 cmp	 DWORD PTR [ecx], eax
  0000d	77 09		 ja	 SHORT $LN3@Inside
  0000f	b8 01 00 00 00	 mov	 eax, 1

; 1287 : 		}

  00014	5d		 pop	 ebp
  00015	c2 04 00	 ret	 4
$LN3@Inside:

; 1286 : 		return (_Ptr < this->_Mylast && this->_Myfirst <= _Ptr);

  00018	33 c0		 xor	 eax, eax

; 1287 : 		}

  0001a	5d		 pop	 ebp
  0001b	c2 04 00	 ret	 4
?_Inside@?$vector@U_CS_SCHEDULE_DATA@@V?$allocator@U_CS_SCHEDULE_DATA@@@std@@@std@@IBE_NPBU_CS_SCHEDULE_DATA@@@Z ENDP ; std::vector<_CS_SCHEDULE_DATA,std::allocator<_CS_SCHEDULE_DATA> >::_Inside
_TEXT	ENDS
PUBLIC	?_Orphan_range@?$vector@U_CS_SCHEDULE_DATA@@V?$allocator@U_CS_SCHEDULE_DATA@@@std@@@std@@IBEXPAU_CS_SCHEDULE_DATA@@0@Z ; std::vector<_CS_SCHEDULE_DATA,std::allocator<_CS_SCHEDULE_DATA> >::_Orphan_range
; Function compile flags: /Ogtp
;	COMDAT ?_Orphan_range@?$vector@U_CS_SCHEDULE_DATA@@V?$allocator@U_CS_SCHEDULE_DATA@@@std@@@std@@IBEXPAU_CS_SCHEDULE_DATA@@0@Z
_TEXT	SEGMENT
___formal$ = 8						; size = 4
___formal$ = 12						; size = 4
?_Orphan_range@?$vector@U_CS_SCHEDULE_DATA@@V?$allocator@U_CS_SCHEDULE_DATA@@@std@@@std@@IBEXPAU_CS_SCHEDULE_DATA@@0@Z PROC ; std::vector<_CS_SCHEDULE_DATA,std::allocator<_CS_SCHEDULE_DATA> >::_Orphan_range, COMDAT
; _this$ = ecx

; 1454 : 		}

  00000	c2 08 00	 ret	 8
?_Orphan_range@?$vector@U_CS_SCHEDULE_DATA@@V?$allocator@U_CS_SCHEDULE_DATA@@@std@@@std@@IBEXPAU_CS_SCHEDULE_DATA@@0@Z ENDP ; std::vector<_CS_SCHEDULE_DATA,std::allocator<_CS_SCHEDULE_DATA> >::_Orphan_range
_TEXT	ENDS
