; Listing generated by Microsoft (R) Optimizing Compiler Version 16.00.30319.01 

	TITLE	E:\work\tranet_version\GS\GameServer\ComboCustom.cpp
	.686P
	.XMM
	include listing.inc
	.model	flat

INCLUDELIB LIBCMT
INCLUDELIB OLDNAMES

_DATA	SEGMENT
_g_iNpcUpDfLevel_CGATE DD 01H
	DD	02H
	DD	02dc6c0H
	DD	02H
	DD	03H
	DD	02dc6c0H
	DD	03H
	DD	04H
	DD	02dc6c0H
_g_iNpcUpDfLevel_CSTATUE DD 01H
	DD	03H
	DD	02dc6c0H
	DD	02H
	DD	05H
	DD	02dc6c0H
	DD	03H
	DD	07H
	DD	02dc6c0H
_g_iNpcUpMaxHP_CGATE DD 02625a0H
	DD	02H
	DD	0f4240H
	DD	03567e0H
	DD	03H
	DD	0f4240H
	DD	04f5880H
	DD	04H
	DD	0f4240H
_g_iNpcUpMaxHP_CSTATUE DD 02191c0H
	DD	03H
	DD	0f4240H
	DD	033e140H
	DD	05H
	DD	0f4240H
	DD	04c4b40H
	DD	07H
	DD	0f4240H
_g_iNpcUpRgLevel_CSTATUE DD 01H
	DD	03H
	DD	04c4b40H
	DD	02H
	DD	05H
	DD	04c4b40H
	DD	03H
	DD	07H
	DD	04c4b40H
_g_iCsUserReSpawnArea DD 023H
	DD	011H
	DD	090H
	DD	030H
	DD	04aH
	DD	090H
	DD	073H
	DD	09aH
	DD	023H
	DD	011H
	DD	090H
	DD	030H
_g_iNpcDefense_CGATE DD 064H
	DD	0b4H
	DD	012cH
	DD	0208H
_g_iNpcDefense_CSTATUE DD 050H
	DD	0b4H
	DD	0154H
	DD	0226H
_g_iCastleWallStepAxisY DD 071H
	DD	0a0H
	DD	0cbH
_DATA	ENDS
PUBLIC	??_H@YGXPAXIHP6EPAX0@Z@Z			; `vector constructor iterator'
; Function compile flags: /Ogtp
;	COMDAT ??_H@YGXPAXIHP6EPAX0@Z@Z
_TEXT	SEGMENT
___t$ = 8						; size = 4
___s$ = 12						; size = 4
___n$ = 16						; size = 4
___f$ = 20						; size = 4
??_H@YGXPAXIHP6EPAX0@Z@Z PROC				; `vector constructor iterator', COMDAT
  00000	55		 push	 ebp
  00001	8b ec		 mov	 ebp, esp
  00003	57		 push	 edi
  00004	8b 7d 10	 mov	 edi, DWORD PTR ___n$[ebp]
  00007	4f		 dec	 edi
  00008	78 14		 js	 SHORT $LN1@vector
  0000a	53		 push	 ebx
  0000b	8b 5d 14	 mov	 ebx, DWORD PTR ___f$[ebp]
  0000e	56		 push	 esi
  0000f	8b 75 08	 mov	 esi, DWORD PTR ___t$[ebp]
$LL2@vector:
  00012	8b ce		 mov	 ecx, esi
  00014	ff d3		 call	 ebx
  00016	03 75 0c	 add	 esi, DWORD PTR ___s$[ebp]
  00019	4f		 dec	 edi
  0001a	79 f6		 jns	 SHORT $LL2@vector
  0001c	5e		 pop	 esi
  0001d	5b		 pop	 ebx
$LN1@vector:
  0001e	5f		 pop	 edi
  0001f	5d		 pop	 ebp
  00020	c2 10 00	 ret	 16			; 00000010H
??_H@YGXPAXIHP6EPAX0@Z@Z ENDP				; `vector constructor iterator'
_TEXT	ENDS
PUBLIC	??1ComboCustom@@QAE@XZ				; ComboCustom::~ComboCustom
; Function compile flags: /Ogtp
; File e:\work\tranet_version\gs\gameserver\combocustom.cpp
;	COMDAT ??1ComboCustom@@QAE@XZ
_TEXT	SEGMENT
??1ComboCustom@@QAE@XZ PROC				; ComboCustom::~ComboCustom, COMDAT
; _this$ = ecx

; 18   : 	// ----
; 19   : }

  00000	c3		 ret	 0
??1ComboCustom@@QAE@XZ ENDP				; ComboCustom::~ComboCustom
_TEXT	ENDS
PUBLIC	?Init@ComboCustom@@QAEXXZ			; ComboCustom::Init
; Function compile flags: /Ogtp
;	COMDAT ?Init@ComboCustom@@QAEXXZ
_TEXT	SEGMENT
?Init@ComboCustom@@QAEXXZ PROC				; ComboCustom::Init, COMDAT
; _this$ = ecx

; 23   : 	this->Enable = 0;

  00000	33 c0		 xor	 eax, eax
  00002	89 01		 mov	 DWORD PTR [ecx], eax

; 24   : 
; 25   : 	this->DWComboEnable = 0;

  00004	88 41 04	 mov	 BYTE PTR [ecx+4], al

; 26   : 	this->DWComboSkill_1 = 0;

  00007	89 41 08	 mov	 DWORD PTR [ecx+8], eax

; 27   : 	this->DWComboSkill_2 = 0;

  0000a	89 41 0c	 mov	 DWORD PTR [ecx+12], eax

; 28   : 	this->DWComboSkill_3 = 0;

  0000d	89 41 10	 mov	 DWORD PTR [ecx+16], eax

; 29   : 
; 30   : 	this->AEComboEnable = 0;

  00010	88 41 14	 mov	 BYTE PTR [ecx+20], al

; 31   : 	this->AEComboSkill_1 = 0;

  00013	89 41 18	 mov	 DWORD PTR [ecx+24], eax

; 32   : 	this->AEComboSkill_2 = 0;

  00016	89 41 1c	 mov	 DWORD PTR [ecx+28], eax

; 33   : 	this->AEComboSkill_3 = 0;

  00019	89 41 20	 mov	 DWORD PTR [ecx+32], eax

; 34   : 
; 35   : 	this->SUMComboEnable = 0;

  0001c	88 41 24	 mov	 BYTE PTR [ecx+36], al

; 36   : 	this->SUMComboSkill_1 = 0;

  0001f	89 41 28	 mov	 DWORD PTR [ecx+40], eax

; 37   : 	this->SUMComboSkill_2 = 0;

  00022	89 41 2c	 mov	 DWORD PTR [ecx+44], eax

; 38   : 	this->SUMComboSkill_3 = 0;

  00025	89 41 30	 mov	 DWORD PTR [ecx+48], eax

; 39   : 
; 40   : 	this->MGComboEnable = 0;

  00028	88 41 34	 mov	 BYTE PTR [ecx+52], al

; 41   : 	this->MGComboSkill_1 = 0;

  0002b	89 41 38	 mov	 DWORD PTR [ecx+56], eax

; 42   : 	this->MGComboSkill_2 = 0;

  0002e	89 41 3c	 mov	 DWORD PTR [ecx+60], eax

; 43   : 	this->MGComboSkill_3 = 0;

  00031	89 41 40	 mov	 DWORD PTR [ecx+64], eax

; 44   : 
; 45   : 	this->DLComboEnable = 0;

  00034	88 41 44	 mov	 BYTE PTR [ecx+68], al

; 46   : 	this->DLComboSkill_1 = 0;

  00037	89 41 48	 mov	 DWORD PTR [ecx+72], eax

; 47   : 	this->DLComboSkill_2 = 0;

  0003a	89 41 4c	 mov	 DWORD PTR [ecx+76], eax

; 48   : 	this->DLComboSkill_3 = 0;

  0003d	89 41 50	 mov	 DWORD PTR [ecx+80], eax

; 49   : 
; 50   : 	this->RFComboEnable = 0;

  00040	88 41 54	 mov	 BYTE PTR [ecx+84], al

; 51   : 	this->RFComboSkill_1 = 0;

  00043	89 41 58	 mov	 DWORD PTR [ecx+88], eax

; 52   : 	this->RFComboSkill_2 = 0;

  00046	89 41 5c	 mov	 DWORD PTR [ecx+92], eax

; 53   : 	this->RFComboSkill_3 = 0;

  00049	89 41 60	 mov	 DWORD PTR [ecx+96], eax

; 54   : 
; 55   : 	// ----
; 56   : 
; 57   : 	this->Master_DWComboSkill_1 = 0;

  0004c	89 41 64	 mov	 DWORD PTR [ecx+100], eax

; 58   : 	this->Master_DWComboSkill_2 = 0;

  0004f	89 41 68	 mov	 DWORD PTR [ecx+104], eax

; 59   : 	this->Master_DWComboSkill_3 = 0;

  00052	89 41 6c	 mov	 DWORD PTR [ecx+108], eax

; 60   : 
; 61   : 	this->Master_AEComboSkill_1 = 0;

  00055	89 41 70	 mov	 DWORD PTR [ecx+112], eax

; 62   : 	this->Master_AEComboSkill_2 = 0;

  00058	89 41 74	 mov	 DWORD PTR [ecx+116], eax

; 63   : 	this->Master_AEComboSkill_3 = 0;

  0005b	89 41 78	 mov	 DWORD PTR [ecx+120], eax

; 64   : 
; 65   : 	this->Master_SUMComboSkill_1 = 0;

  0005e	89 41 7c	 mov	 DWORD PTR [ecx+124], eax

; 66   : 	this->Master_SUMComboSkill_2 = 0;

  00061	89 81 80 00 00
	00		 mov	 DWORD PTR [ecx+128], eax

; 67   : 	this->Master_SUMComboSkill_3 = 0;

  00067	89 81 84 00 00
	00		 mov	 DWORD PTR [ecx+132], eax

; 68   : 
; 69   : 	this->Master_MGComboSkill_1 = 0;

  0006d	89 81 88 00 00
	00		 mov	 DWORD PTR [ecx+136], eax

; 70   : 	this->Master_MGComboSkill_2 = 0;

  00073	89 81 8c 00 00
	00		 mov	 DWORD PTR [ecx+140], eax

; 71   : 	this->Master_MGComboSkill_3 = 0;

  00079	89 81 90 00 00
	00		 mov	 DWORD PTR [ecx+144], eax

; 72   : 
; 73   : 	this->Master_DLComboSkill_1 = 0;

  0007f	89 81 94 00 00
	00		 mov	 DWORD PTR [ecx+148], eax

; 74   : 	this->Master_DLComboSkill_2 = 0;

  00085	89 81 98 00 00
	00		 mov	 DWORD PTR [ecx+152], eax

; 75   : 	this->Master_DLComboSkill_3 = 0;

  0008b	89 81 9c 00 00
	00		 mov	 DWORD PTR [ecx+156], eax

; 76   : 
; 77   : 	this->Master_RFComboSkill_1 = 0;

  00091	89 81 a0 00 00
	00		 mov	 DWORD PTR [ecx+160], eax

; 78   : 	this->Master_RFComboSkill_2 = 0;

  00097	89 81 a4 00 00
	00		 mov	 DWORD PTR [ecx+164], eax

; 79   : 	this->Master_RFComboSkill_3 = 0;

  0009d	89 81 a8 00 00
	00		 mov	 DWORD PTR [ecx+168], eax

; 80   : }

  000a3	c3		 ret	 0
?Init@ComboCustom@@QAEXXZ ENDP				; ComboCustom::Init
_TEXT	ENDS
PUBLIC	??_C@_0BG@FMFBHPMJ@Master_RFComboSkill_3?$AA@	; `string'
PUBLIC	??_C@_0BG@EFEKEOII@Master_RFComboSkill_2?$AA@	; `string'
PUBLIC	??_C@_0BG@GOGHBNEL@Master_RFComboSkill_1?$AA@	; `string'
PUBLIC	??_C@_0BG@OIPOOOOP@Master_DLComboSkill_3?$AA@	; `string'
PUBLIC	??_C@_0BG@PBOFNPKO@Master_DLComboSkill_2?$AA@	; `string'
PUBLIC	??_C@_0BG@NKMIIMGN@Master_DLComboSkill_1?$AA@	; `string'
PUBLIC	??_C@_0BG@NBLEMCGN@Master_MGComboSkill_3?$AA@	; `string'
PUBLIC	??_C@_0BG@MIKPPDCM@Master_MGComboSkill_2?$AA@	; `string'
PUBLIC	??_C@_0BG@ODICKAOP@Master_MGComboSkill_1?$AA@	; `string'
PUBLIC	??_C@_0BH@HPLGPCAE@Master_SUMComboSkill_3?$AA@	; `string'
PUBLIC	??_C@_0BH@GGKNMDEF@Master_SUMComboSkill_2?$AA@	; `string'
PUBLIC	??_C@_0BH@ENIAJAIG@Master_SUMComboSkill_1?$AA@	; `string'
PUBLIC	??_C@_0BG@HFCPKPCE@Master_AEComboSkill_3?$AA@	; `string'
PUBLIC	??_C@_0BG@GMDEJOGF@Master_AEComboSkill_2?$AA@	; `string'
PUBLIC	??_C@_0BG@EHBJMNKG@Master_AEComboSkill_1?$AA@	; `string'
PUBLIC	??_C@_0BG@MBHEOJGO@Master_DWComboSkill_3?$AA@	; `string'
PUBLIC	??_C@_0BG@NIGPNICP@Master_DWComboSkill_2?$AA@	; `string'
PUBLIC	??_C@_0BG@PDECILOM@Master_DWComboSkill_1?$AA@	; `string'
PUBLIC	??_C@_0P@ODBLDGAF@RFComboSkill_3?$AA@		; `string'
PUBLIC	??_C@_0P@PKAAAHEE@RFComboSkill_2?$AA@		; `string'
PUBLIC	??_C@_0P@NBCNFEIH@RFComboSkill_1?$AA@		; `string'
PUBLIC	??_C@_0O@GGCIKMFC@RFComboEnable?$AA@		; `string'
PUBLIC	??_C@_0P@FHLEKHCD@DLComboSkill_3?$AA@		; `string'
PUBLIC	??_C@_0P@EOKPJGGC@DLComboSkill_2?$AA@		; `string'
PUBLIC	??_C@_0P@GFICMFKB@DLComboSkill_1?$AA@		; `string'
PUBLIC	??_C@_0O@MCAHLNKO@DLComboEnable?$AA@		; `string'
PUBLIC	??_C@_0P@GOPOILKB@MGComboSkill_3?$AA@		; `string'
PUBLIC	??_C@_0P@HHOFLKOA@MGComboSkill_2?$AA@		; `string'
PUBLIC	??_C@_0P@FMMIOJCD@MGComboSkill_1?$AA@		; `string'
PUBLIC	??_C@_0O@ILJIPNEN@MGComboEnable?$AA@		; `string'
PUBLIC	??_C@_0BA@ONNLDGNG@SUMComboSkill_3?$AA@		; `string'
PUBLIC	??_C@_0BA@PEMAAHJH@SUMComboSkill_2?$AA@		; `string'
PUBLIC	??_C@_0BA@NPONFEFE@SUMComboSkill_1?$AA@		; `string'
PUBLIC	??_C@_0P@HNKAENFK@SUMComboEnable?$AA@		; `string'
PUBLIC	??_C@_0P@MKGFOGOI@AEComboSkill_3?$AA@		; `string'
PUBLIC	??_C@_0P@NDHONHKJ@AEComboSkill_2?$AA@		; `string'
PUBLIC	??_C@_0P@PIFDIEGK@AEComboSkill_1?$AA@		; `string'
PUBLIC	??_C@_0O@MBDBNJCL@AEComboEnable?$AA@		; `string'
PUBLIC	??_C@_0P@HODOKAKC@DWComboSkill_3?$AA@		; `string'
PUBLIC	??_C@_0P@GHCFJBOD@DWComboSkill_2?$AA@		; `string'
PUBLIC	??_C@_0P@EMAIMCCA@DWComboSkill_1?$AA@		; `string'
PUBLIC	??_C@_0O@JBMJKENH@DWComboEnable?$AA@		; `string'
PUBLIC	??_C@_06CNKIADGI@ZtTeam?$AA@			; `string'
PUBLIC	??_C@_06CKGENIKG@Enable?$AA@			; `string'
PUBLIC	?Read@ComboCustom@@QAEXPAD@Z			; ComboCustom::Read
EXTRN	__imp__GetPrivateProfileIntA@16:PROC
;	COMDAT ??_C@_0BG@FMFBHPMJ@Master_RFComboSkill_3?$AA@
CONST	SEGMENT
??_C@_0BG@FMFBHPMJ@Master_RFComboSkill_3?$AA@ DB 'Master_RFComboSkill_3', 00H ; `string'
CONST	ENDS
;	COMDAT ??_C@_0BG@EFEKEOII@Master_RFComboSkill_2?$AA@
CONST	SEGMENT
??_C@_0BG@EFEKEOII@Master_RFComboSkill_2?$AA@ DB 'Master_RFComboSkill_2', 00H ; `string'
CONST	ENDS
;	COMDAT ??_C@_0BG@GOGHBNEL@Master_RFComboSkill_1?$AA@
CONST	SEGMENT
??_C@_0BG@GOGHBNEL@Master_RFComboSkill_1?$AA@ DB 'Master_RFComboSkill_1', 00H ; `string'
CONST	ENDS
;	COMDAT ??_C@_0BG@OIPOOOOP@Master_DLComboSkill_3?$AA@
CONST	SEGMENT
??_C@_0BG@OIPOOOOP@Master_DLComboSkill_3?$AA@ DB 'Master_DLComboSkill_3', 00H ; `string'
CONST	ENDS
;	COMDAT ??_C@_0BG@PBOFNPKO@Master_DLComboSkill_2?$AA@
CONST	SEGMENT
??_C@_0BG@PBOFNPKO@Master_DLComboSkill_2?$AA@ DB 'Master_DLComboSkill_2', 00H ; `string'
CONST	ENDS
;	COMDAT ??_C@_0BG@NKMIIMGN@Master_DLComboSkill_1?$AA@
CONST	SEGMENT
??_C@_0BG@NKMIIMGN@Master_DLComboSkill_1?$AA@ DB 'Master_DLComboSkill_1', 00H ; `string'
CONST	ENDS
;	COMDAT ??_C@_0BG@NBLEMCGN@Master_MGComboSkill_3?$AA@
CONST	SEGMENT
??_C@_0BG@NBLEMCGN@Master_MGComboSkill_3?$AA@ DB 'Master_MGComboSkill_3', 00H ; `string'
CONST	ENDS
;	COMDAT ??_C@_0BG@MIKPPDCM@Master_MGComboSkill_2?$AA@
CONST	SEGMENT
??_C@_0BG@MIKPPDCM@Master_MGComboSkill_2?$AA@ DB 'Master_MGComboSkill_2', 00H ; `string'
CONST	ENDS
;	COMDAT ??_C@_0BG@ODICKAOP@Master_MGComboSkill_1?$AA@
CONST	SEGMENT
??_C@_0BG@ODICKAOP@Master_MGComboSkill_1?$AA@ DB 'Master_MGComboSkill_1', 00H ; `string'
CONST	ENDS
;	COMDAT ??_C@_0BH@HPLGPCAE@Master_SUMComboSkill_3?$AA@
CONST	SEGMENT
??_C@_0BH@HPLGPCAE@Master_SUMComboSkill_3?$AA@ DB 'Master_SUMComboSkill_3'
	DB	00H						; `string'
CONST	ENDS
;	COMDAT ??_C@_0BH@GGKNMDEF@Master_SUMComboSkill_2?$AA@
CONST	SEGMENT
??_C@_0BH@GGKNMDEF@Master_SUMComboSkill_2?$AA@ DB 'Master_SUMComboSkill_2'
	DB	00H						; `string'
CONST	ENDS
;	COMDAT ??_C@_0BH@ENIAJAIG@Master_SUMComboSkill_1?$AA@
CONST	SEGMENT
??_C@_0BH@ENIAJAIG@Master_SUMComboSkill_1?$AA@ DB 'Master_SUMComboSkill_1'
	DB	00H						; `string'
CONST	ENDS
;	COMDAT ??_C@_0BG@HFCPKPCE@Master_AEComboSkill_3?$AA@
CONST	SEGMENT
??_C@_0BG@HFCPKPCE@Master_AEComboSkill_3?$AA@ DB 'Master_AEComboSkill_3', 00H ; `string'
CONST	ENDS
;	COMDAT ??_C@_0BG@GMDEJOGF@Master_AEComboSkill_2?$AA@
CONST	SEGMENT
??_C@_0BG@GMDEJOGF@Master_AEComboSkill_2?$AA@ DB 'Master_AEComboSkill_2', 00H ; `string'
CONST	ENDS
;	COMDAT ??_C@_0BG@EHBJMNKG@Master_AEComboSkill_1?$AA@
CONST	SEGMENT
??_C@_0BG@EHBJMNKG@Master_AEComboSkill_1?$AA@ DB 'Master_AEComboSkill_1', 00H ; `string'
CONST	ENDS
;	COMDAT ??_C@_0BG@MBHEOJGO@Master_DWComboSkill_3?$AA@
CONST	SEGMENT
??_C@_0BG@MBHEOJGO@Master_DWComboSkill_3?$AA@ DB 'Master_DWComboSkill_3', 00H ; `string'
CONST	ENDS
;	COMDAT ??_C@_0BG@NIGPNICP@Master_DWComboSkill_2?$AA@
CONST	SEGMENT
??_C@_0BG@NIGPNICP@Master_DWComboSkill_2?$AA@ DB 'Master_DWComboSkill_2', 00H ; `string'
CONST	ENDS
;	COMDAT ??_C@_0BG@PDECILOM@Master_DWComboSkill_1?$AA@
CONST	SEGMENT
??_C@_0BG@PDECILOM@Master_DWComboSkill_1?$AA@ DB 'Master_DWComboSkill_1', 00H ; `string'
CONST	ENDS
;	COMDAT ??_C@_0P@ODBLDGAF@RFComboSkill_3?$AA@
CONST	SEGMENT
??_C@_0P@ODBLDGAF@RFComboSkill_3?$AA@ DB 'RFComboSkill_3', 00H ; `string'
CONST	ENDS
;	COMDAT ??_C@_0P@PKAAAHEE@RFComboSkill_2?$AA@
CONST	SEGMENT
??_C@_0P@PKAAAHEE@RFComboSkill_2?$AA@ DB 'RFComboSkill_2', 00H ; `string'
CONST	ENDS
;	COMDAT ??_C@_0P@NBCNFEIH@RFComboSkill_1?$AA@
CONST	SEGMENT
??_C@_0P@NBCNFEIH@RFComboSkill_1?$AA@ DB 'RFComboSkill_1', 00H ; `string'
CONST	ENDS
;	COMDAT ??_C@_0O@GGCIKMFC@RFComboEnable?$AA@
CONST	SEGMENT
??_C@_0O@GGCIKMFC@RFComboEnable?$AA@ DB 'RFComboEnable', 00H ; `string'
CONST	ENDS
;	COMDAT ??_C@_0P@FHLEKHCD@DLComboSkill_3?$AA@
CONST	SEGMENT
??_C@_0P@FHLEKHCD@DLComboSkill_3?$AA@ DB 'DLComboSkill_3', 00H ; `string'
CONST	ENDS
;	COMDAT ??_C@_0P@EOKPJGGC@DLComboSkill_2?$AA@
CONST	SEGMENT
??_C@_0P@EOKPJGGC@DLComboSkill_2?$AA@ DB 'DLComboSkill_2', 00H ; `string'
CONST	ENDS
;	COMDAT ??_C@_0P@GFICMFKB@DLComboSkill_1?$AA@
CONST	SEGMENT
??_C@_0P@GFICMFKB@DLComboSkill_1?$AA@ DB 'DLComboSkill_1', 00H ; `string'
CONST	ENDS
;	COMDAT ??_C@_0O@MCAHLNKO@DLComboEnable?$AA@
CONST	SEGMENT
??_C@_0O@MCAHLNKO@DLComboEnable?$AA@ DB 'DLComboEnable', 00H ; `string'
CONST	ENDS
;	COMDAT ??_C@_0P@GOPOILKB@MGComboSkill_3?$AA@
CONST	SEGMENT
??_C@_0P@GOPOILKB@MGComboSkill_3?$AA@ DB 'MGComboSkill_3', 00H ; `string'
CONST	ENDS
;	COMDAT ??_C@_0P@HHOFLKOA@MGComboSkill_2?$AA@
CONST	SEGMENT
??_C@_0P@HHOFLKOA@MGComboSkill_2?$AA@ DB 'MGComboSkill_2', 00H ; `string'
CONST	ENDS
;	COMDAT ??_C@_0P@FMMIOJCD@MGComboSkill_1?$AA@
CONST	SEGMENT
??_C@_0P@FMMIOJCD@MGComboSkill_1?$AA@ DB 'MGComboSkill_1', 00H ; `string'
CONST	ENDS
;	COMDAT ??_C@_0O@ILJIPNEN@MGComboEnable?$AA@
CONST	SEGMENT
??_C@_0O@ILJIPNEN@MGComboEnable?$AA@ DB 'MGComboEnable', 00H ; `string'
CONST	ENDS
;	COMDAT ??_C@_0BA@ONNLDGNG@SUMComboSkill_3?$AA@
CONST	SEGMENT
??_C@_0BA@ONNLDGNG@SUMComboSkill_3?$AA@ DB 'SUMComboSkill_3', 00H ; `string'
CONST	ENDS
;	COMDAT ??_C@_0BA@PEMAAHJH@SUMComboSkill_2?$AA@
CONST	SEGMENT
??_C@_0BA@PEMAAHJH@SUMComboSkill_2?$AA@ DB 'SUMComboSkill_2', 00H ; `string'
CONST	ENDS
;	COMDAT ??_C@_0BA@NPONFEFE@SUMComboSkill_1?$AA@
CONST	SEGMENT
??_C@_0BA@NPONFEFE@SUMComboSkill_1?$AA@ DB 'SUMComboSkill_1', 00H ; `string'
CONST	ENDS
;	COMDAT ??_C@_0P@HNKAENFK@SUMComboEnable?$AA@
CONST	SEGMENT
??_C@_0P@HNKAENFK@SUMComboEnable?$AA@ DB 'SUMComboEnable', 00H ; `string'
CONST	ENDS
;	COMDAT ??_C@_0P@MKGFOGOI@AEComboSkill_3?$AA@
CONST	SEGMENT
??_C@_0P@MKGFOGOI@AEComboSkill_3?$AA@ DB 'AEComboSkill_3', 00H ; `string'
CONST	ENDS
;	COMDAT ??_C@_0P@NDHONHKJ@AEComboSkill_2?$AA@
CONST	SEGMENT
??_C@_0P@NDHONHKJ@AEComboSkill_2?$AA@ DB 'AEComboSkill_2', 00H ; `string'
CONST	ENDS
;	COMDAT ??_C@_0P@PIFDIEGK@AEComboSkill_1?$AA@
CONST	SEGMENT
??_C@_0P@PIFDIEGK@AEComboSkill_1?$AA@ DB 'AEComboSkill_1', 00H ; `string'
CONST	ENDS
;	COMDAT ??_C@_0O@MBDBNJCL@AEComboEnable?$AA@
CONST	SEGMENT
??_C@_0O@MBDBNJCL@AEComboEnable?$AA@ DB 'AEComboEnable', 00H ; `string'
CONST	ENDS
;	COMDAT ??_C@_0P@HODOKAKC@DWComboSkill_3?$AA@
CONST	SEGMENT
??_C@_0P@HODOKAKC@DWComboSkill_3?$AA@ DB 'DWComboSkill_3', 00H ; `string'
CONST	ENDS
;	COMDAT ??_C@_0P@GHCFJBOD@DWComboSkill_2?$AA@
CONST	SEGMENT
??_C@_0P@GHCFJBOD@DWComboSkill_2?$AA@ DB 'DWComboSkill_2', 00H ; `string'
CONST	ENDS
;	COMDAT ??_C@_0P@EMAIMCCA@DWComboSkill_1?$AA@
CONST	SEGMENT
??_C@_0P@EMAIMCCA@DWComboSkill_1?$AA@ DB 'DWComboSkill_1', 00H ; `string'
CONST	ENDS
;	COMDAT ??_C@_0O@JBMJKENH@DWComboEnable?$AA@
CONST	SEGMENT
??_C@_0O@JBMJKENH@DWComboEnable?$AA@ DB 'DWComboEnable', 00H ; `string'
CONST	ENDS
;	COMDAT ??_C@_06CNKIADGI@ZtTeam?$AA@
CONST	SEGMENT
??_C@_06CNKIADGI@ZtTeam?$AA@ DB 'ZtTeam', 00H		; `string'
CONST	ENDS
;	COMDAT ??_C@_06CKGENIKG@Enable?$AA@
CONST	SEGMENT
??_C@_06CKGENIKG@Enable?$AA@ DB 'Enable', 00H		; `string'
; Function compile flags: /Ogtp
CONST	ENDS
;	COMDAT ?Read@ComboCustom@@QAEXPAD@Z
_TEXT	SEGMENT
_File$ = 8						; size = 4
?Read@ComboCustom@@QAEXPAD@Z PROC			; ComboCustom::Read, COMDAT
; _this$ = ecx

; 95   : {

  00000	55		 push	 ebp
  00001	8b ec		 mov	 ebp, esp
  00003	53		 push	 ebx

; 96   : 	this->Enable = GetPrivateProfileInt("ZtTeam","Enable",0,File);

  00004	8b 1d 00 00 00
	00		 mov	 ebx, DWORD PTR __imp__GetPrivateProfileIntA@16
  0000a	56		 push	 esi
  0000b	57		 push	 edi
  0000c	8b 7d 08	 mov	 edi, DWORD PTR _File$[ebp]
  0000f	57		 push	 edi
  00010	6a 00		 push	 0
  00012	68 00 00 00 00	 push	 OFFSET ??_C@_06CKGENIKG@Enable?$AA@
  00017	68 00 00 00 00	 push	 OFFSET ??_C@_06CNKIADGI@ZtTeam?$AA@
  0001c	8b f1		 mov	 esi, ecx
  0001e	ff d3		 call	 ebx

; 97   : 
; 98   : 	this->DWComboEnable = GetPrivateProfileInt("ZtTeam","DWComboEnable",0,File);

  00020	57		 push	 edi
  00021	6a 00		 push	 0
  00023	68 00 00 00 00	 push	 OFFSET ??_C@_0O@JBMJKENH@DWComboEnable?$AA@
  00028	68 00 00 00 00	 push	 OFFSET ??_C@_06CNKIADGI@ZtTeam?$AA@
  0002d	89 06		 mov	 DWORD PTR [esi], eax
  0002f	ff d3		 call	 ebx

; 99   : 	this->DWComboSkill_1 = GetPrivateProfileInt("ZtTeam","DWComboSkill_1",0,File);

  00031	57		 push	 edi
  00032	6a 00		 push	 0
  00034	85 c0		 test	 eax, eax
  00036	68 00 00 00 00	 push	 OFFSET ??_C@_0P@EMAIMCCA@DWComboSkill_1?$AA@
  0003b	0f 95 c0	 setne	 al
  0003e	68 00 00 00 00	 push	 OFFSET ??_C@_06CNKIADGI@ZtTeam?$AA@
  00043	88 46 04	 mov	 BYTE PTR [esi+4], al
  00046	ff d3		 call	 ebx

; 100  : 	this->DWComboSkill_2 = GetPrivateProfileInt("ZtTeam","DWComboSkill_2",0,File);

  00048	57		 push	 edi
  00049	6a 00		 push	 0
  0004b	68 00 00 00 00	 push	 OFFSET ??_C@_0P@GHCFJBOD@DWComboSkill_2?$AA@
  00050	68 00 00 00 00	 push	 OFFSET ??_C@_06CNKIADGI@ZtTeam?$AA@
  00055	89 46 08	 mov	 DWORD PTR [esi+8], eax
  00058	ff d3		 call	 ebx

; 101  : 	this->DWComboSkill_3 = GetPrivateProfileInt("ZtTeam","DWComboSkill_3",0,File);

  0005a	57		 push	 edi
  0005b	6a 00		 push	 0
  0005d	68 00 00 00 00	 push	 OFFSET ??_C@_0P@HODOKAKC@DWComboSkill_3?$AA@
  00062	68 00 00 00 00	 push	 OFFSET ??_C@_06CNKIADGI@ZtTeam?$AA@
  00067	89 46 0c	 mov	 DWORD PTR [esi+12], eax
  0006a	ff d3		 call	 ebx

; 102  : 
; 103  : 	this->AEComboEnable = GetPrivateProfileInt("ZtTeam","AEComboEnable",0,File);

  0006c	57		 push	 edi
  0006d	6a 00		 push	 0
  0006f	68 00 00 00 00	 push	 OFFSET ??_C@_0O@MBDBNJCL@AEComboEnable?$AA@
  00074	68 00 00 00 00	 push	 OFFSET ??_C@_06CNKIADGI@ZtTeam?$AA@
  00079	89 46 10	 mov	 DWORD PTR [esi+16], eax
  0007c	ff d3		 call	 ebx

; 104  : 	this->AEComboSkill_1 = GetPrivateProfileInt("ZtTeam","AEComboSkill_1",0,File);

  0007e	57		 push	 edi
  0007f	6a 00		 push	 0
  00081	85 c0		 test	 eax, eax
  00083	68 00 00 00 00	 push	 OFFSET ??_C@_0P@PIFDIEGK@AEComboSkill_1?$AA@
  00088	0f 95 c1	 setne	 cl
  0008b	68 00 00 00 00	 push	 OFFSET ??_C@_06CNKIADGI@ZtTeam?$AA@
  00090	88 4e 14	 mov	 BYTE PTR [esi+20], cl
  00093	ff d3		 call	 ebx

; 105  : 	this->AEComboSkill_2 = GetPrivateProfileInt("ZtTeam","AEComboSkill_2",0,File);

  00095	57		 push	 edi
  00096	6a 00		 push	 0
  00098	68 00 00 00 00	 push	 OFFSET ??_C@_0P@NDHONHKJ@AEComboSkill_2?$AA@
  0009d	68 00 00 00 00	 push	 OFFSET ??_C@_06CNKIADGI@ZtTeam?$AA@
  000a2	89 46 18	 mov	 DWORD PTR [esi+24], eax
  000a5	ff d3		 call	 ebx

; 106  : 	this->AEComboSkill_3 = GetPrivateProfileInt("ZtTeam","AEComboSkill_3",0,File);

  000a7	57		 push	 edi
  000a8	6a 00		 push	 0
  000aa	68 00 00 00 00	 push	 OFFSET ??_C@_0P@MKGFOGOI@AEComboSkill_3?$AA@
  000af	68 00 00 00 00	 push	 OFFSET ??_C@_06CNKIADGI@ZtTeam?$AA@
  000b4	89 46 1c	 mov	 DWORD PTR [esi+28], eax
  000b7	ff d3		 call	 ebx

; 107  : 
; 108  : 	this->SUMComboEnable = GetPrivateProfileInt("ZtTeam","SUMComboEnable",0,File);

  000b9	57		 push	 edi
  000ba	6a 00		 push	 0
  000bc	68 00 00 00 00	 push	 OFFSET ??_C@_0P@HNKAENFK@SUMComboEnable?$AA@
  000c1	68 00 00 00 00	 push	 OFFSET ??_C@_06CNKIADGI@ZtTeam?$AA@
  000c6	89 46 20	 mov	 DWORD PTR [esi+32], eax
  000c9	ff d3		 call	 ebx

; 109  : 	this->SUMComboSkill_1 = GetPrivateProfileInt("ZtTeam","SUMComboSkill_1",0,File);

  000cb	57		 push	 edi
  000cc	6a 00		 push	 0
  000ce	85 c0		 test	 eax, eax
  000d0	68 00 00 00 00	 push	 OFFSET ??_C@_0BA@NPONFEFE@SUMComboSkill_1?$AA@
  000d5	0f 95 c2	 setne	 dl
  000d8	68 00 00 00 00	 push	 OFFSET ??_C@_06CNKIADGI@ZtTeam?$AA@
  000dd	88 56 24	 mov	 BYTE PTR [esi+36], dl
  000e0	ff d3		 call	 ebx

; 110  : 	this->SUMComboSkill_2 = GetPrivateProfileInt("ZtTeam","SUMComboSkill_2",0,File);

  000e2	57		 push	 edi
  000e3	6a 00		 push	 0
  000e5	89 46 28	 mov	 DWORD PTR [esi+40], eax
  000e8	68 00 00 00 00	 push	 OFFSET ??_C@_0BA@PEMAAHJH@SUMComboSkill_2?$AA@
  000ed	68 00 00 00 00	 push	 OFFSET ??_C@_06CNKIADGI@ZtTeam?$AA@
  000f2	ff d3		 call	 ebx

; 111  : 	this->SUMComboSkill_3 = GetPrivateProfileInt("ZtTeam","SUMComboSkill_3",0,File);

  000f4	57		 push	 edi
  000f5	6a 00		 push	 0
  000f7	68 00 00 00 00	 push	 OFFSET ??_C@_0BA@ONNLDGNG@SUMComboSkill_3?$AA@
  000fc	68 00 00 00 00	 push	 OFFSET ??_C@_06CNKIADGI@ZtTeam?$AA@
  00101	89 46 2c	 mov	 DWORD PTR [esi+44], eax
  00104	ff d3		 call	 ebx

; 112  : 
; 113  : 	this->MGComboEnable = GetPrivateProfileInt("ZtTeam","MGComboEnable",0,File);

  00106	57		 push	 edi
  00107	6a 00		 push	 0
  00109	68 00 00 00 00	 push	 OFFSET ??_C@_0O@ILJIPNEN@MGComboEnable?$AA@
  0010e	68 00 00 00 00	 push	 OFFSET ??_C@_06CNKIADGI@ZtTeam?$AA@
  00113	89 46 30	 mov	 DWORD PTR [esi+48], eax
  00116	ff d3		 call	 ebx

; 114  : 	this->MGComboSkill_1 = GetPrivateProfileInt("ZtTeam","MGComboSkill_1",0,File);

  00118	57		 push	 edi
  00119	6a 00		 push	 0
  0011b	85 c0		 test	 eax, eax
  0011d	68 00 00 00 00	 push	 OFFSET ??_C@_0P@FMMIOJCD@MGComboSkill_1?$AA@
  00122	0f 95 c0	 setne	 al
  00125	68 00 00 00 00	 push	 OFFSET ??_C@_06CNKIADGI@ZtTeam?$AA@
  0012a	88 46 34	 mov	 BYTE PTR [esi+52], al
  0012d	ff d3		 call	 ebx

; 115  : 	this->MGComboSkill_2 = GetPrivateProfileInt("ZtTeam","MGComboSkill_2",0,File);

  0012f	57		 push	 edi
  00130	6a 00		 push	 0
  00132	68 00 00 00 00	 push	 OFFSET ??_C@_0P@HHOFLKOA@MGComboSkill_2?$AA@
  00137	68 00 00 00 00	 push	 OFFSET ??_C@_06CNKIADGI@ZtTeam?$AA@
  0013c	89 46 38	 mov	 DWORD PTR [esi+56], eax
  0013f	ff d3		 call	 ebx

; 116  : 	this->MGComboSkill_3 = GetPrivateProfileInt("ZtTeam","MGComboSkill_3",0,File);

  00141	57		 push	 edi
  00142	6a 00		 push	 0
  00144	68 00 00 00 00	 push	 OFFSET ??_C@_0P@GOPOILKB@MGComboSkill_3?$AA@
  00149	68 00 00 00 00	 push	 OFFSET ??_C@_06CNKIADGI@ZtTeam?$AA@
  0014e	89 46 3c	 mov	 DWORD PTR [esi+60], eax
  00151	ff d3		 call	 ebx

; 117  : 
; 118  : 	this->DLComboEnable = GetPrivateProfileInt("ZtTeam","DLComboEnable",0,File);

  00153	57		 push	 edi
  00154	6a 00		 push	 0
  00156	68 00 00 00 00	 push	 OFFSET ??_C@_0O@MCAHLNKO@DLComboEnable?$AA@
  0015b	68 00 00 00 00	 push	 OFFSET ??_C@_06CNKIADGI@ZtTeam?$AA@
  00160	89 46 40	 mov	 DWORD PTR [esi+64], eax
  00163	ff d3		 call	 ebx

; 119  : 	this->DLComboSkill_1 = GetPrivateProfileInt("ZtTeam","DLComboSkill_1",0,File);

  00165	57		 push	 edi
  00166	6a 00		 push	 0
  00168	85 c0		 test	 eax, eax
  0016a	68 00 00 00 00	 push	 OFFSET ??_C@_0P@GFICMFKB@DLComboSkill_1?$AA@
  0016f	0f 95 c1	 setne	 cl
  00172	68 00 00 00 00	 push	 OFFSET ??_C@_06CNKIADGI@ZtTeam?$AA@
  00177	88 4e 44	 mov	 BYTE PTR [esi+68], cl
  0017a	ff d3		 call	 ebx

; 120  : 	this->DLComboSkill_2 = GetPrivateProfileInt("ZtTeam","DLComboSkill_2",0,File);

  0017c	57		 push	 edi
  0017d	6a 00		 push	 0
  0017f	68 00 00 00 00	 push	 OFFSET ??_C@_0P@EOKPJGGC@DLComboSkill_2?$AA@
  00184	68 00 00 00 00	 push	 OFFSET ??_C@_06CNKIADGI@ZtTeam?$AA@
  00189	89 46 48	 mov	 DWORD PTR [esi+72], eax
  0018c	ff d3		 call	 ebx

; 121  : 	this->DLComboSkill_3 = GetPrivateProfileInt("ZtTeam","DLComboSkill_3",0,File);

  0018e	57		 push	 edi
  0018f	6a 00		 push	 0
  00191	68 00 00 00 00	 push	 OFFSET ??_C@_0P@FHLEKHCD@DLComboSkill_3?$AA@
  00196	68 00 00 00 00	 push	 OFFSET ??_C@_06CNKIADGI@ZtTeam?$AA@
  0019b	89 46 4c	 mov	 DWORD PTR [esi+76], eax
  0019e	ff d3		 call	 ebx

; 122  : 
; 123  : 	this->RFComboEnable = GetPrivateProfileInt("ZtTeam","RFComboEnable",0,File);

  001a0	57		 push	 edi
  001a1	6a 00		 push	 0
  001a3	68 00 00 00 00	 push	 OFFSET ??_C@_0O@GGCIKMFC@RFComboEnable?$AA@
  001a8	68 00 00 00 00	 push	 OFFSET ??_C@_06CNKIADGI@ZtTeam?$AA@
  001ad	89 46 50	 mov	 DWORD PTR [esi+80], eax
  001b0	ff d3		 call	 ebx

; 124  : 	this->RFComboSkill_1 = GetPrivateProfileInt("ZtTeam","RFComboSkill_1",0,File);

  001b2	57		 push	 edi
  001b3	6a 00		 push	 0
  001b5	85 c0		 test	 eax, eax
  001b7	68 00 00 00 00	 push	 OFFSET ??_C@_0P@NBCNFEIH@RFComboSkill_1?$AA@
  001bc	0f 95 c2	 setne	 dl
  001bf	68 00 00 00 00	 push	 OFFSET ??_C@_06CNKIADGI@ZtTeam?$AA@
  001c4	88 56 54	 mov	 BYTE PTR [esi+84], dl
  001c7	ff d3		 call	 ebx

; 125  : 	this->RFComboSkill_2 = GetPrivateProfileInt("ZtTeam","RFComboSkill_2",0,File);

  001c9	57		 push	 edi
  001ca	6a 00		 push	 0
  001cc	68 00 00 00 00	 push	 OFFSET ??_C@_0P@PKAAAHEE@RFComboSkill_2?$AA@
  001d1	68 00 00 00 00	 push	 OFFSET ??_C@_06CNKIADGI@ZtTeam?$AA@
  001d6	89 46 58	 mov	 DWORD PTR [esi+88], eax
  001d9	ff d3		 call	 ebx
  001db	89 46 5c	 mov	 DWORD PTR [esi+92], eax

; 126  : 	this->RFComboSkill_3 = GetPrivateProfileInt("ZtTeam","RFComboSkill_3",0,File);

  001de	57		 push	 edi
  001df	6a 00		 push	 0
  001e1	68 00 00 00 00	 push	 OFFSET ??_C@_0P@ODBLDGAF@RFComboSkill_3?$AA@
  001e6	68 00 00 00 00	 push	 OFFSET ??_C@_06CNKIADGI@ZtTeam?$AA@
  001eb	ff d3		 call	 ebx

; 127  : 
; 128  : 	// ----
; 129  : 
; 130  : 	this->Master_DWComboSkill_1 = GetPrivateProfileInt("ZtTeam","Master_DWComboSkill_1",0,File);

  001ed	57		 push	 edi
  001ee	6a 00		 push	 0
  001f0	68 00 00 00 00	 push	 OFFSET ??_C@_0BG@PDECILOM@Master_DWComboSkill_1?$AA@
  001f5	68 00 00 00 00	 push	 OFFSET ??_C@_06CNKIADGI@ZtTeam?$AA@
  001fa	89 46 60	 mov	 DWORD PTR [esi+96], eax
  001fd	ff d3		 call	 ebx

; 131  : 	this->Master_DWComboSkill_2 = GetPrivateProfileInt("ZtTeam","Master_DWComboSkill_2",0,File);

  001ff	57		 push	 edi
  00200	6a 00		 push	 0
  00202	68 00 00 00 00	 push	 OFFSET ??_C@_0BG@NIGPNICP@Master_DWComboSkill_2?$AA@
  00207	68 00 00 00 00	 push	 OFFSET ??_C@_06CNKIADGI@ZtTeam?$AA@
  0020c	89 46 64	 mov	 DWORD PTR [esi+100], eax
  0020f	ff d3		 call	 ebx

; 132  : 	this->Master_DWComboSkill_3 = GetPrivateProfileInt("ZtTeam","Master_DWComboSkill_3",0,File);

  00211	57		 push	 edi
  00212	6a 00		 push	 0
  00214	68 00 00 00 00	 push	 OFFSET ??_C@_0BG@MBHEOJGO@Master_DWComboSkill_3?$AA@
  00219	68 00 00 00 00	 push	 OFFSET ??_C@_06CNKIADGI@ZtTeam?$AA@
  0021e	89 46 68	 mov	 DWORD PTR [esi+104], eax
  00221	ff d3		 call	 ebx

; 133  : 
; 134  : 	this->Master_AEComboSkill_1 = GetPrivateProfileInt("ZtTeam","Master_AEComboSkill_1",0,File);

  00223	57		 push	 edi
  00224	6a 00		 push	 0
  00226	68 00 00 00 00	 push	 OFFSET ??_C@_0BG@EHBJMNKG@Master_AEComboSkill_1?$AA@
  0022b	68 00 00 00 00	 push	 OFFSET ??_C@_06CNKIADGI@ZtTeam?$AA@
  00230	89 46 6c	 mov	 DWORD PTR [esi+108], eax
  00233	ff d3		 call	 ebx

; 135  : 	this->Master_AEComboSkill_2 = GetPrivateProfileInt("ZtTeam","Master_AEComboSkill_2",0,File);

  00235	57		 push	 edi
  00236	6a 00		 push	 0
  00238	68 00 00 00 00	 push	 OFFSET ??_C@_0BG@GMDEJOGF@Master_AEComboSkill_2?$AA@
  0023d	68 00 00 00 00	 push	 OFFSET ??_C@_06CNKIADGI@ZtTeam?$AA@
  00242	89 46 70	 mov	 DWORD PTR [esi+112], eax
  00245	ff d3		 call	 ebx

; 136  : 	this->Master_AEComboSkill_3 = GetPrivateProfileInt("ZtTeam","Master_AEComboSkill_3",0,File);

  00247	57		 push	 edi
  00248	6a 00		 push	 0
  0024a	68 00 00 00 00	 push	 OFFSET ??_C@_0BG@HFCPKPCE@Master_AEComboSkill_3?$AA@
  0024f	68 00 00 00 00	 push	 OFFSET ??_C@_06CNKIADGI@ZtTeam?$AA@
  00254	89 46 74	 mov	 DWORD PTR [esi+116], eax
  00257	ff d3		 call	 ebx

; 137  : 
; 138  : 	this->Master_SUMComboSkill_1 = GetPrivateProfileInt("ZtTeam","Master_SUMComboSkill_1",0,File);

  00259	57		 push	 edi
  0025a	6a 00		 push	 0
  0025c	68 00 00 00 00	 push	 OFFSET ??_C@_0BH@ENIAJAIG@Master_SUMComboSkill_1?$AA@
  00261	68 00 00 00 00	 push	 OFFSET ??_C@_06CNKIADGI@ZtTeam?$AA@
  00266	89 46 78	 mov	 DWORD PTR [esi+120], eax
  00269	ff d3		 call	 ebx

; 139  : 	this->Master_SUMComboSkill_2 = GetPrivateProfileInt("ZtTeam","Master_SUMComboSkill_2",0,File);

  0026b	57		 push	 edi
  0026c	6a 00		 push	 0
  0026e	68 00 00 00 00	 push	 OFFSET ??_C@_0BH@GGKNMDEF@Master_SUMComboSkill_2?$AA@
  00273	68 00 00 00 00	 push	 OFFSET ??_C@_06CNKIADGI@ZtTeam?$AA@
  00278	89 46 7c	 mov	 DWORD PTR [esi+124], eax
  0027b	ff d3		 call	 ebx

; 140  : 	this->Master_SUMComboSkill_3 = GetPrivateProfileInt("ZtTeam","Master_SUMComboSkill_3",0,File);

  0027d	57		 push	 edi
  0027e	6a 00		 push	 0
  00280	68 00 00 00 00	 push	 OFFSET ??_C@_0BH@HPLGPCAE@Master_SUMComboSkill_3?$AA@
  00285	68 00 00 00 00	 push	 OFFSET ??_C@_06CNKIADGI@ZtTeam?$AA@
  0028a	89 86 80 00 00
	00		 mov	 DWORD PTR [esi+128], eax
  00290	ff d3		 call	 ebx

; 141  : 
; 142  : 	this->Master_MGComboSkill_1 = GetPrivateProfileInt("ZtTeam","Master_MGComboSkill_1",0,File);

  00292	57		 push	 edi
  00293	6a 00		 push	 0
  00295	68 00 00 00 00	 push	 OFFSET ??_C@_0BG@ODICKAOP@Master_MGComboSkill_1?$AA@
  0029a	68 00 00 00 00	 push	 OFFSET ??_C@_06CNKIADGI@ZtTeam?$AA@
  0029f	89 86 84 00 00
	00		 mov	 DWORD PTR [esi+132], eax
  002a5	ff d3		 call	 ebx

; 143  : 	this->Master_MGComboSkill_2 = GetPrivateProfileInt("ZtTeam","Master_MGComboSkill_2",0,File);

  002a7	57		 push	 edi
  002a8	6a 00		 push	 0
  002aa	68 00 00 00 00	 push	 OFFSET ??_C@_0BG@MIKPPDCM@Master_MGComboSkill_2?$AA@
  002af	68 00 00 00 00	 push	 OFFSET ??_C@_06CNKIADGI@ZtTeam?$AA@
  002b4	89 86 88 00 00
	00		 mov	 DWORD PTR [esi+136], eax
  002ba	ff d3		 call	 ebx

; 144  : 	this->Master_MGComboSkill_3 = GetPrivateProfileInt("ZtTeam","Master_MGComboSkill_3",0,File);

  002bc	57		 push	 edi
  002bd	6a 00		 push	 0
  002bf	68 00 00 00 00	 push	 OFFSET ??_C@_0BG@NBLEMCGN@Master_MGComboSkill_3?$AA@
  002c4	68 00 00 00 00	 push	 OFFSET ??_C@_06CNKIADGI@ZtTeam?$AA@
  002c9	89 86 8c 00 00
	00		 mov	 DWORD PTR [esi+140], eax
  002cf	ff d3		 call	 ebx

; 145  : 
; 146  : 	this->Master_DLComboSkill_1 = GetPrivateProfileInt("ZtTeam","Master_DLComboSkill_1",0,File);

  002d1	57		 push	 edi
  002d2	6a 00		 push	 0
  002d4	89 86 90 00 00
	00		 mov	 DWORD PTR [esi+144], eax
  002da	68 00 00 00 00	 push	 OFFSET ??_C@_0BG@NKMIIMGN@Master_DLComboSkill_1?$AA@
  002df	68 00 00 00 00	 push	 OFFSET ??_C@_06CNKIADGI@ZtTeam?$AA@
  002e4	ff d3		 call	 ebx

; 147  : 	this->Master_DLComboSkill_2 = GetPrivateProfileInt("ZtTeam","Master_DLComboSkill_2",0,File);

  002e6	57		 push	 edi
  002e7	6a 00		 push	 0
  002e9	68 00 00 00 00	 push	 OFFSET ??_C@_0BG@PBOFNPKO@Master_DLComboSkill_2?$AA@
  002ee	68 00 00 00 00	 push	 OFFSET ??_C@_06CNKIADGI@ZtTeam?$AA@
  002f3	89 86 94 00 00
	00		 mov	 DWORD PTR [esi+148], eax
  002f9	ff d3		 call	 ebx

; 148  : 	this->Master_DLComboSkill_3 = GetPrivateProfileInt("ZtTeam","Master_DLComboSkill_3",0,File);

  002fb	57		 push	 edi
  002fc	6a 00		 push	 0
  002fe	68 00 00 00 00	 push	 OFFSET ??_C@_0BG@OIPOOOOP@Master_DLComboSkill_3?$AA@
  00303	68 00 00 00 00	 push	 OFFSET ??_C@_06CNKIADGI@ZtTeam?$AA@
  00308	89 86 98 00 00
	00		 mov	 DWORD PTR [esi+152], eax
  0030e	ff d3		 call	 ebx

; 149  : 
; 150  : 	this->Master_RFComboSkill_1 = GetPrivateProfileInt("ZtTeam","Master_RFComboSkill_1",0,File);

  00310	57		 push	 edi
  00311	6a 00		 push	 0
  00313	68 00 00 00 00	 push	 OFFSET ??_C@_0BG@GOGHBNEL@Master_RFComboSkill_1?$AA@
  00318	68 00 00 00 00	 push	 OFFSET ??_C@_06CNKIADGI@ZtTeam?$AA@
  0031d	89 86 9c 00 00
	00		 mov	 DWORD PTR [esi+156], eax
  00323	ff d3		 call	 ebx

; 151  : 	this->Master_RFComboSkill_2 = GetPrivateProfileInt("ZtTeam","Master_RFComboSkill_2",0,File);

  00325	57		 push	 edi
  00326	6a 00		 push	 0
  00328	68 00 00 00 00	 push	 OFFSET ??_C@_0BG@EFEKEOII@Master_RFComboSkill_2?$AA@
  0032d	68 00 00 00 00	 push	 OFFSET ??_C@_06CNKIADGI@ZtTeam?$AA@
  00332	89 86 a0 00 00
	00		 mov	 DWORD PTR [esi+160], eax
  00338	ff d3		 call	 ebx

; 152  : 	this->Master_RFComboSkill_3 = GetPrivateProfileInt("ZtTeam","Master_RFComboSkill_3",0,File);

  0033a	57		 push	 edi
  0033b	6a 00		 push	 0
  0033d	68 00 00 00 00	 push	 OFFSET ??_C@_0BG@FMFBHPMJ@Master_RFComboSkill_3?$AA@
  00342	68 00 00 00 00	 push	 OFFSET ??_C@_06CNKIADGI@ZtTeam?$AA@
  00347	89 86 a4 00 00
	00		 mov	 DWORD PTR [esi+164], eax
  0034d	ff d3		 call	 ebx
  0034f	5f		 pop	 edi
  00350	89 86 a8 00 00
	00		 mov	 DWORD PTR [esi+168], eax
  00356	5e		 pop	 esi
  00357	5b		 pop	 ebx

; 153  : }

  00358	5d		 pop	 ebp
  00359	c2 04 00	 ret	 4
?Read@ComboCustom@@QAEXPAD@Z ENDP			; ComboCustom::Read
_TEXT	ENDS
PUBLIC	?DarkWizard@ComboCustom@@QAEHH@Z		; ComboCustom::DarkWizard
; Function compile flags: /Ogtp
;	COMDAT ?DarkWizard@ComboCustom@@QAEHH@Z
_TEXT	SEGMENT
_skillnumber$ = 8					; size = 4
?DarkWizard@ComboCustom@@QAEHH@Z PROC			; ComboCustom::DarkWizard, COMDAT
; _this$ = ecx

; 214  : {

  00000	55		 push	 ebp
  00001	8b ec		 mov	 ebp, esp

; 215  : 	if(!this->DWComboEnable)

  00003	80 79 04 00	 cmp	 BYTE PTR [ecx+4], 0
  00007	75 07		 jne	 SHORT $LN11@DarkWizard

; 216  : 	{
; 217  : 		return -1;

  00009	83 c8 ff	 or	 eax, -1

; 242  : 	{
; 243  : 		return 1;
; 244  : 	}
; 245  : 
; 246  : 	return -1;
; 247  : }

  0000c	5d		 pop	 ebp
  0000d	c2 04 00	 ret	 4
$LN11@DarkWizard:

; 218  : 	}
; 219  : 
; 220  : 	if(skillnumber == this->DWComboSkill_1)

  00010	8b 45 08	 mov	 eax, DWORD PTR _skillnumber$[ebp]
  00013	3b 41 08	 cmp	 eax, DWORD PTR [ecx+8]
  00016	75 06		 jne	 SHORT $LN10@DarkWizard
$LN14@DarkWizard:

; 221  : 	{
; 222  : 		return 0;

  00018	33 c0		 xor	 eax, eax

; 242  : 	{
; 243  : 		return 1;
; 244  : 	}
; 245  : 
; 246  : 	return -1;
; 247  : }

  0001a	5d		 pop	 ebp
  0001b	c2 04 00	 ret	 4
$LN10@DarkWizard:

; 223  : 	}
; 224  : 	else if(skillnumber == this->DWComboSkill_2)

  0001e	3b 41 0c	 cmp	 eax, DWORD PTR [ecx+12]
  00021	75 09		 jne	 SHORT $LN8@DarkWizard
$LN15@DarkWizard:

; 225  : 	{
; 226  : 		return 1;

  00023	b8 01 00 00 00	 mov	 eax, 1

; 242  : 	{
; 243  : 		return 1;
; 244  : 	}
; 245  : 
; 246  : 	return -1;
; 247  : }

  00028	5d		 pop	 ebp
  00029	c2 04 00	 ret	 4
$LN8@DarkWizard:

; 227  : 	}
; 228  : 	else if(skillnumber == this->DWComboSkill_3)

  0002c	3b 41 10	 cmp	 eax, DWORD PTR [ecx+16]

; 229  : 	{
; 230  : 		return 1;

  0002f	74 f2		 je	 SHORT $LN15@DarkWizard

; 231  : 	}
; 232  : 
; 233  : 	if(skillnumber == this->Master_DWComboSkill_1)

  00031	3b 41 64	 cmp	 eax, DWORD PTR [ecx+100]

; 234  : 	{
; 235  : 		return 0;

  00034	74 e2		 je	 SHORT $LN14@DarkWizard

; 236  : 	}
; 237  : 	else if(skillnumber == this->Master_DWComboSkill_2)

  00036	3b 41 68	 cmp	 eax, DWORD PTR [ecx+104]

; 238  : 	{
; 239  : 		return 1;

  00039	74 e8		 je	 SHORT $LN15@DarkWizard

; 240  : 	}
; 241  : 	else if(skillnumber == this->Master_DWComboSkill_3)

  0003b	33 d2		 xor	 edx, edx
  0003d	3b 41 6c	 cmp	 eax, DWORD PTR [ecx+108]
  00040	0f 94 c2	 sete	 dl
  00043	8d 44 12 ff	 lea	 eax, DWORD PTR [edx+edx-1]

; 242  : 	{
; 243  : 		return 1;
; 244  : 	}
; 245  : 
; 246  : 	return -1;
; 247  : }

  00047	5d		 pop	 ebp
  00048	c2 04 00	 ret	 4
?DarkWizard@ComboCustom@@QAEHH@Z ENDP			; ComboCustom::DarkWizard
_TEXT	ENDS
PUBLIC	?Elf@ComboCustom@@QAEHH@Z			; ComboCustom::Elf
; Function compile flags: /Ogtp
;	COMDAT ?Elf@ComboCustom@@QAEHH@Z
_TEXT	SEGMENT
_skillnumber$ = 8					; size = 4
?Elf@ComboCustom@@QAEHH@Z PROC				; ComboCustom::Elf, COMDAT
; _this$ = ecx

; 250  : {

  00000	55		 push	 ebp
  00001	8b ec		 mov	 ebp, esp

; 251  : 	if(!this->AEComboEnable)

  00003	80 79 14 00	 cmp	 BYTE PTR [ecx+20], 0
  00007	75 07		 jne	 SHORT $LN11@Elf

; 252  : 	{
; 253  : 		return -1;

  00009	83 c8 ff	 or	 eax, -1

; 278  : 	{
; 279  : 		return 1;
; 280  : 	}
; 281  : 
; 282  : 	return -1;
; 283  : }

  0000c	5d		 pop	 ebp
  0000d	c2 04 00	 ret	 4
$LN11@Elf:

; 254  : 	}
; 255  : 
; 256  : 	if(skillnumber == this->AEComboSkill_1)

  00010	8b 45 08	 mov	 eax, DWORD PTR _skillnumber$[ebp]
  00013	3b 41 18	 cmp	 eax, DWORD PTR [ecx+24]
  00016	75 06		 jne	 SHORT $LN10@Elf
$LN14@Elf:

; 257  : 	{
; 258  : 		return 0;

  00018	33 c0		 xor	 eax, eax

; 278  : 	{
; 279  : 		return 1;
; 280  : 	}
; 281  : 
; 282  : 	return -1;
; 283  : }

  0001a	5d		 pop	 ebp
  0001b	c2 04 00	 ret	 4
$LN10@Elf:

; 259  : 	}
; 260  : 	else if(skillnumber == this->AEComboSkill_2)

  0001e	3b 41 1c	 cmp	 eax, DWORD PTR [ecx+28]
  00021	75 09		 jne	 SHORT $LN8@Elf
$LN15@Elf:

; 261  : 	{
; 262  : 		return 1;

  00023	b8 01 00 00 00	 mov	 eax, 1

; 278  : 	{
; 279  : 		return 1;
; 280  : 	}
; 281  : 
; 282  : 	return -1;
; 283  : }

  00028	5d		 pop	 ebp
  00029	c2 04 00	 ret	 4
$LN8@Elf:

; 263  : 	}
; 264  : 	else if(skillnumber == this->AEComboSkill_3)

  0002c	3b 41 20	 cmp	 eax, DWORD PTR [ecx+32]

; 265  : 	{
; 266  : 		return 1;

  0002f	74 f2		 je	 SHORT $LN15@Elf

; 267  : 	}
; 268  : 
; 269  : 	if(skillnumber == this->Master_AEComboSkill_1)

  00031	3b 41 70	 cmp	 eax, DWORD PTR [ecx+112]

; 270  : 	{
; 271  : 		return 0;

  00034	74 e2		 je	 SHORT $LN14@Elf

; 272  : 	}
; 273  : 	else if(skillnumber == this->Master_AEComboSkill_2)

  00036	3b 41 74	 cmp	 eax, DWORD PTR [ecx+116]

; 274  : 	{
; 275  : 		return 1;

  00039	74 e8		 je	 SHORT $LN15@Elf

; 276  : 	}
; 277  : 	else if(skillnumber == this->Master_AEComboSkill_3)

  0003b	33 d2		 xor	 edx, edx
  0003d	3b 41 78	 cmp	 eax, DWORD PTR [ecx+120]
  00040	0f 94 c2	 sete	 dl
  00043	8d 44 12 ff	 lea	 eax, DWORD PTR [edx+edx-1]

; 278  : 	{
; 279  : 		return 1;
; 280  : 	}
; 281  : 
; 282  : 	return -1;
; 283  : }

  00047	5d		 pop	 ebp
  00048	c2 04 00	 ret	 4
?Elf@ComboCustom@@QAEHH@Z ENDP				; ComboCustom::Elf
_TEXT	ENDS
PUBLIC	?Summoner@ComboCustom@@QAEHH@Z			; ComboCustom::Summoner
; Function compile flags: /Ogtp
;	COMDAT ?Summoner@ComboCustom@@QAEHH@Z
_TEXT	SEGMENT
_skillnumber$ = 8					; size = 4
?Summoner@ComboCustom@@QAEHH@Z PROC			; ComboCustom::Summoner, COMDAT
; _this$ = ecx

; 286  : {

  00000	55		 push	 ebp
  00001	8b ec		 mov	 ebp, esp

; 287  : 	if(!this->SUMComboEnable)

  00003	80 79 24 00	 cmp	 BYTE PTR [ecx+36], 0
  00007	75 07		 jne	 SHORT $LN11@Summoner

; 288  : 	{
; 289  : 		return -1;

  00009	83 c8 ff	 or	 eax, -1

; 314  : 	{
; 315  : 		return 1;
; 316  : 	}
; 317  : 
; 318  : 	return -1;
; 319  : }

  0000c	5d		 pop	 ebp
  0000d	c2 04 00	 ret	 4
$LN11@Summoner:

; 290  : 	}
; 291  : 
; 292  : 	if(skillnumber == this->SUMComboSkill_1)

  00010	8b 45 08	 mov	 eax, DWORD PTR _skillnumber$[ebp]
  00013	3b 41 28	 cmp	 eax, DWORD PTR [ecx+40]
  00016	75 06		 jne	 SHORT $LN10@Summoner
$LN14@Summoner:

; 293  : 	{
; 294  : 		return 0;

  00018	33 c0		 xor	 eax, eax

; 314  : 	{
; 315  : 		return 1;
; 316  : 	}
; 317  : 
; 318  : 	return -1;
; 319  : }

  0001a	5d		 pop	 ebp
  0001b	c2 04 00	 ret	 4
$LN10@Summoner:

; 295  : 	}
; 296  : 	else if(skillnumber == this->SUMComboSkill_2)

  0001e	3b 41 2c	 cmp	 eax, DWORD PTR [ecx+44]
  00021	75 09		 jne	 SHORT $LN8@Summoner
$LN15@Summoner:

; 297  : 	{
; 298  : 		return 1;

  00023	b8 01 00 00 00	 mov	 eax, 1

; 314  : 	{
; 315  : 		return 1;
; 316  : 	}
; 317  : 
; 318  : 	return -1;
; 319  : }

  00028	5d		 pop	 ebp
  00029	c2 04 00	 ret	 4
$LN8@Summoner:

; 299  : 	}
; 300  : 	else if(skillnumber == this->SUMComboSkill_3)

  0002c	3b 41 30	 cmp	 eax, DWORD PTR [ecx+48]

; 301  : 	{
; 302  : 		return 1;

  0002f	74 f2		 je	 SHORT $LN15@Summoner

; 303  : 	}
; 304  : 
; 305  : 	if(skillnumber == this->Master_SUMComboSkill_1)

  00031	3b 41 7c	 cmp	 eax, DWORD PTR [ecx+124]

; 306  : 	{
; 307  : 		return 0;

  00034	74 e2		 je	 SHORT $LN14@Summoner

; 308  : 	}
; 309  : 	else if(skillnumber == this->Master_SUMComboSkill_2)

  00036	3b 81 80 00 00
	00		 cmp	 eax, DWORD PTR [ecx+128]

; 310  : 	{
; 311  : 		return 1;

  0003c	74 e5		 je	 SHORT $LN15@Summoner

; 312  : 	}
; 313  : 	else if(skillnumber == this->Master_SUMComboSkill_3)

  0003e	33 d2		 xor	 edx, edx
  00040	3b 81 84 00 00
	00		 cmp	 eax, DWORD PTR [ecx+132]
  00046	0f 94 c2	 sete	 dl
  00049	8d 44 12 ff	 lea	 eax, DWORD PTR [edx+edx-1]

; 314  : 	{
; 315  : 		return 1;
; 316  : 	}
; 317  : 
; 318  : 	return -1;
; 319  : }

  0004d	5d		 pop	 ebp
  0004e	c2 04 00	 ret	 4
?Summoner@ComboCustom@@QAEHH@Z ENDP			; ComboCustom::Summoner
_TEXT	ENDS
PUBLIC	?MagicGladiator@ComboCustom@@QAEHH@Z		; ComboCustom::MagicGladiator
; Function compile flags: /Ogtp
;	COMDAT ?MagicGladiator@ComboCustom@@QAEHH@Z
_TEXT	SEGMENT
_skillnumber$ = 8					; size = 4
?MagicGladiator@ComboCustom@@QAEHH@Z PROC		; ComboCustom::MagicGladiator, COMDAT
; _this$ = ecx

; 322  : {

  00000	55		 push	 ebp
  00001	8b ec		 mov	 ebp, esp

; 323  : 	if(!this->MGComboEnable)

  00003	80 79 34 00	 cmp	 BYTE PTR [ecx+52], 0
  00007	75 07		 jne	 SHORT $LN11@MagicGladi

; 324  : 	{
; 325  : 		return -1;

  00009	83 c8 ff	 or	 eax, -1

; 350  : 	{
; 351  : 		return 1;
; 352  : 	}
; 353  : 
; 354  : 	return -1;
; 355  : }

  0000c	5d		 pop	 ebp
  0000d	c2 04 00	 ret	 4
$LN11@MagicGladi:

; 326  : 	}
; 327  : 
; 328  : 	if(skillnumber == this->MGComboSkill_1)

  00010	8b 45 08	 mov	 eax, DWORD PTR _skillnumber$[ebp]
  00013	3b 41 38	 cmp	 eax, DWORD PTR [ecx+56]
  00016	75 06		 jne	 SHORT $LN10@MagicGladi
$LN14@MagicGladi:

; 329  : 	{
; 330  : 		return 0;

  00018	33 c0		 xor	 eax, eax

; 350  : 	{
; 351  : 		return 1;
; 352  : 	}
; 353  : 
; 354  : 	return -1;
; 355  : }

  0001a	5d		 pop	 ebp
  0001b	c2 04 00	 ret	 4
$LN10@MagicGladi:

; 331  : 	}
; 332  : 	else if(skillnumber == this->MGComboSkill_2)

  0001e	3b 41 3c	 cmp	 eax, DWORD PTR [ecx+60]
  00021	75 09		 jne	 SHORT $LN8@MagicGladi
$LN15@MagicGladi:

; 333  : 	{
; 334  : 		return 1;

  00023	b8 01 00 00 00	 mov	 eax, 1

; 350  : 	{
; 351  : 		return 1;
; 352  : 	}
; 353  : 
; 354  : 	return -1;
; 355  : }

  00028	5d		 pop	 ebp
  00029	c2 04 00	 ret	 4
$LN8@MagicGladi:

; 335  : 	}
; 336  : 	else if(skillnumber == this->MGComboSkill_3)

  0002c	3b 41 40	 cmp	 eax, DWORD PTR [ecx+64]

; 337  : 	{
; 338  : 		return 1;

  0002f	74 f2		 je	 SHORT $LN15@MagicGladi

; 339  : 	}
; 340  : 
; 341  : 	if(skillnumber == this->Master_MGComboSkill_1)

  00031	3b 81 88 00 00
	00		 cmp	 eax, DWORD PTR [ecx+136]

; 342  : 	{
; 343  : 		return 0;

  00037	74 df		 je	 SHORT $LN14@MagicGladi

; 344  : 	}
; 345  : 	else if(skillnumber == this->Master_MGComboSkill_2)

  00039	3b 81 8c 00 00
	00		 cmp	 eax, DWORD PTR [ecx+140]

; 346  : 	{
; 347  : 		return 1;

  0003f	74 e2		 je	 SHORT $LN15@MagicGladi

; 348  : 	}
; 349  : 	else if(skillnumber == this->Master_MGComboSkill_3)

  00041	33 d2		 xor	 edx, edx
  00043	3b 81 90 00 00
	00		 cmp	 eax, DWORD PTR [ecx+144]
  00049	0f 94 c2	 sete	 dl
  0004c	8d 44 12 ff	 lea	 eax, DWORD PTR [edx+edx-1]

; 350  : 	{
; 351  : 		return 1;
; 352  : 	}
; 353  : 
; 354  : 	return -1;
; 355  : }

  00050	5d		 pop	 ebp
  00051	c2 04 00	 ret	 4
?MagicGladiator@ComboCustom@@QAEHH@Z ENDP		; ComboCustom::MagicGladiator
_TEXT	ENDS
PUBLIC	?DarkLord@ComboCustom@@QAEHH@Z			; ComboCustom::DarkLord
; Function compile flags: /Ogtp
;	COMDAT ?DarkLord@ComboCustom@@QAEHH@Z
_TEXT	SEGMENT
_skillnumber$ = 8					; size = 4
?DarkLord@ComboCustom@@QAEHH@Z PROC			; ComboCustom::DarkLord, COMDAT
; _this$ = ecx

; 358  : {

  00000	55		 push	 ebp
  00001	8b ec		 mov	 ebp, esp

; 359  : 	if(!this->DLComboEnable)

  00003	80 79 44 00	 cmp	 BYTE PTR [ecx+68], 0
  00007	75 07		 jne	 SHORT $LN11@DarkLord

; 360  : 	{
; 361  : 		return -1;

  00009	83 c8 ff	 or	 eax, -1

; 386  : 	{
; 387  : 		return 1;
; 388  : 	}
; 389  : 
; 390  : 	return -1;
; 391  : }

  0000c	5d		 pop	 ebp
  0000d	c2 04 00	 ret	 4
$LN11@DarkLord:

; 362  : 	}
; 363  : 
; 364  : 	if(skillnumber == this->DLComboSkill_1)

  00010	8b 45 08	 mov	 eax, DWORD PTR _skillnumber$[ebp]
  00013	3b 41 48	 cmp	 eax, DWORD PTR [ecx+72]
  00016	75 06		 jne	 SHORT $LN10@DarkLord
$LN14@DarkLord:

; 365  : 	{
; 366  : 		return 0;

  00018	33 c0		 xor	 eax, eax

; 386  : 	{
; 387  : 		return 1;
; 388  : 	}
; 389  : 
; 390  : 	return -1;
; 391  : }

  0001a	5d		 pop	 ebp
  0001b	c2 04 00	 ret	 4
$LN10@DarkLord:

; 367  : 	}
; 368  : 	else if(skillnumber == this->DLComboSkill_2)

  0001e	3b 41 4c	 cmp	 eax, DWORD PTR [ecx+76]
  00021	75 09		 jne	 SHORT $LN8@DarkLord
$LN15@DarkLord:

; 369  : 	{
; 370  : 		return 1;

  00023	b8 01 00 00 00	 mov	 eax, 1

; 386  : 	{
; 387  : 		return 1;
; 388  : 	}
; 389  : 
; 390  : 	return -1;
; 391  : }

  00028	5d		 pop	 ebp
  00029	c2 04 00	 ret	 4
$LN8@DarkLord:

; 371  : 	}
; 372  : 	else if(skillnumber == this->DLComboSkill_3)

  0002c	3b 41 50	 cmp	 eax, DWORD PTR [ecx+80]

; 373  : 	{
; 374  : 		return 1;

  0002f	74 f2		 je	 SHORT $LN15@DarkLord

; 375  : 	}
; 376  : 
; 377  : 	if(skillnumber == this->Master_DLComboSkill_1)

  00031	3b 81 94 00 00
	00		 cmp	 eax, DWORD PTR [ecx+148]

; 378  : 	{
; 379  : 		return 0;

  00037	74 df		 je	 SHORT $LN14@DarkLord

; 380  : 	}
; 381  : 	else if(skillnumber == this->Master_DLComboSkill_2)

  00039	3b 81 98 00 00
	00		 cmp	 eax, DWORD PTR [ecx+152]

; 382  : 	{
; 383  : 		return 1;

  0003f	74 e2		 je	 SHORT $LN15@DarkLord

; 384  : 	}
; 385  : 	else if(skillnumber == this->Master_DLComboSkill_3)

  00041	33 d2		 xor	 edx, edx
  00043	3b 81 9c 00 00
	00		 cmp	 eax, DWORD PTR [ecx+156]
  00049	0f 94 c2	 sete	 dl
  0004c	8d 44 12 ff	 lea	 eax, DWORD PTR [edx+edx-1]

; 386  : 	{
; 387  : 		return 1;
; 388  : 	}
; 389  : 
; 390  : 	return -1;
; 391  : }

  00050	5d		 pop	 ebp
  00051	c2 04 00	 ret	 4
?DarkLord@ComboCustom@@QAEHH@Z ENDP			; ComboCustom::DarkLord
_TEXT	ENDS
PUBLIC	?RageFighter@ComboCustom@@QAEHH@Z		; ComboCustom::RageFighter
; Function compile flags: /Ogtp
;	COMDAT ?RageFighter@ComboCustom@@QAEHH@Z
_TEXT	SEGMENT
_skillnumber$ = 8					; size = 4
?RageFighter@ComboCustom@@QAEHH@Z PROC			; ComboCustom::RageFighter, COMDAT
; _this$ = ecx

; 394  : {

  00000	55		 push	 ebp
  00001	8b ec		 mov	 ebp, esp

; 395  : 	if(!this->RFComboEnable)

  00003	80 79 54 00	 cmp	 BYTE PTR [ecx+84], 0
  00007	75 07		 jne	 SHORT $LN11@RageFighte

; 396  : 	{
; 397  : 		return -1;

  00009	83 c8 ff	 or	 eax, -1

; 422  : 	{
; 423  : 		return 1;
; 424  : 	}
; 425  : 
; 426  : 	return -1;
; 427  : }

  0000c	5d		 pop	 ebp
  0000d	c2 04 00	 ret	 4
$LN11@RageFighte:

; 398  : 	}
; 399  : 
; 400  : 	if(skillnumber == this->RFComboSkill_1)

  00010	8b 45 08	 mov	 eax, DWORD PTR _skillnumber$[ebp]
  00013	3b 41 58	 cmp	 eax, DWORD PTR [ecx+88]
  00016	75 06		 jne	 SHORT $LN10@RageFighte
$LN14@RageFighte:

; 401  : 	{
; 402  : 		return 0;

  00018	33 c0		 xor	 eax, eax

; 422  : 	{
; 423  : 		return 1;
; 424  : 	}
; 425  : 
; 426  : 	return -1;
; 427  : }

  0001a	5d		 pop	 ebp
  0001b	c2 04 00	 ret	 4
$LN10@RageFighte:

; 403  : 	}
; 404  : 	else if(skillnumber == this->RFComboSkill_2)

  0001e	3b 41 5c	 cmp	 eax, DWORD PTR [ecx+92]
  00021	75 09		 jne	 SHORT $LN8@RageFighte
$LN15@RageFighte:

; 405  : 	{
; 406  : 		return 1;

  00023	b8 01 00 00 00	 mov	 eax, 1

; 422  : 	{
; 423  : 		return 1;
; 424  : 	}
; 425  : 
; 426  : 	return -1;
; 427  : }

  00028	5d		 pop	 ebp
  00029	c2 04 00	 ret	 4
$LN8@RageFighte:

; 407  : 	}
; 408  : 	else if(skillnumber == this->RFComboSkill_3)

  0002c	3b 41 60	 cmp	 eax, DWORD PTR [ecx+96]

; 409  : 	{
; 410  : 		return 1;

  0002f	74 f2		 je	 SHORT $LN15@RageFighte

; 411  : 	}
; 412  : 
; 413  : 	if(skillnumber == this->Master_RFComboSkill_1)

  00031	3b 81 a0 00 00
	00		 cmp	 eax, DWORD PTR [ecx+160]

; 414  : 	{
; 415  : 		return 0;

  00037	74 df		 je	 SHORT $LN14@RageFighte

; 416  : 	}
; 417  : 	else if(skillnumber == this->Master_RFComboSkill_2)

  00039	3b 81 a4 00 00
	00		 cmp	 eax, DWORD PTR [ecx+164]

; 418  : 	{
; 419  : 		return 1;

  0003f	74 e2		 je	 SHORT $LN15@RageFighte

; 420  : 	}
; 421  : 	else if(skillnumber == this->Master_RFComboSkill_3)

  00041	33 d2		 xor	 edx, edx
  00043	3b 81 a8 00 00
	00		 cmp	 eax, DWORD PTR [ecx+168]
  00049	0f 94 c2	 sete	 dl
  0004c	8d 44 12 ff	 lea	 eax, DWORD PTR [edx+edx-1]

; 422  : 	{
; 423  : 		return 1;
; 424  : 	}
; 425  : 
; 426  : 	return -1;
; 427  : }

  00050	5d		 pop	 ebp
  00051	c2 04 00	 ret	 4
?RageFighter@ComboCustom@@QAEHH@Z ENDP			; ComboCustom::RageFighter
_TEXT	ENDS
PUBLIC	??0ComboCustom@@QAE@XZ				; ComboCustom::ComboCustom
; Function compile flags: /Ogtp
;	COMDAT ??0ComboCustom@@QAE@XZ
_TEXT	SEGMENT
??0ComboCustom@@QAE@XZ PROC				; ComboCustom::ComboCustom, COMDAT
; _this$ = ecx

; 13   : 	this->Init();

  00000	e8 00 00 00 00	 call	 ?Init@ComboCustom@@QAEXXZ ; ComboCustom::Init

; 14   : }

  00005	8b c1		 mov	 eax, ecx
  00007	c3		 ret	 0
??0ComboCustom@@QAE@XZ ENDP				; ComboCustom::ComboCustom
_TEXT	ENDS
PUBLIC	??_C@_0BH@JOIJLBGB@ZtData?2ComboCustom?4ini?$AA@ ; `string'
PUBLIC	?Load@ComboCustom@@QAEXXZ			; ComboCustom::Load
EXTRN	?GetNewPath@CDirPath@@QAEPADPAD@Z:PROC		; CDirPath::GetNewPath
EXTRN	?gDirPath@@3VCDirPath@@A:BYTE			; gDirPath
EXTRN	?g_ZtLicense@@3VCZtLicense@@A:BYTE		; g_ZtLicense
;	COMDAT ??_C@_0BH@JOIJLBGB@ZtData?2ComboCustom?4ini?$AA@
CONST	SEGMENT
??_C@_0BH@JOIJLBGB@ZtData?2ComboCustom?4ini?$AA@ DB 'ZtData\ComboCustom.i'
	DB	'ni', 00H					; `string'
; Function compile flags: /Ogtp
CONST	ENDS
;	COMDAT ?Load@ComboCustom@@QAEXXZ
_TEXT	SEGMENT
?Load@ComboCustom@@QAEXXZ PROC				; ComboCustom::Load, COMDAT
; _this$ = ecx

; 83   : {

  00000	56		 push	 esi
  00001	8b f1		 mov	 esi, ecx

; 84   : 	this->Init();

  00003	e8 00 00 00 00	 call	 ?Init@ComboCustom@@QAEXXZ ; ComboCustom::Init

; 85   : 
; 86   : 	if(!g_ZtLicense.user.ComboCustom)

  00008	80 3d dc 00 00
	00 00		 cmp	 BYTE PTR ?g_ZtLicense@@3VCZtLicense@@A+220, 0
  0000f	74 17		 je	 SHORT $LN2@Load

; 87   : 	{
; 88   : 		return;
; 89   : 	}
; 90   : 
; 91   : 	this->Read(gDirPath.GetNewPath("ZtData\\ComboCustom.ini"));

  00011	68 00 00 00 00	 push	 OFFSET ??_C@_0BH@JOIJLBGB@ZtData?2ComboCustom?4ini?$AA@
  00016	b9 00 00 00 00	 mov	 ecx, OFFSET ?gDirPath@@3VCDirPath@@A ; gDirPath
  0001b	e8 00 00 00 00	 call	 ?GetNewPath@CDirPath@@QAEPADPAD@Z ; CDirPath::GetNewPath
  00020	50		 push	 eax
  00021	8b ce		 mov	 ecx, esi
  00023	e8 00 00 00 00	 call	 ?Read@ComboCustom@@QAEXPAD@Z ; ComboCustom::Read
$LN2@Load:
  00028	5e		 pop	 esi

; 92   : }

  00029	c3		 ret	 0
?Load@ComboCustom@@QAEXXZ ENDP				; ComboCustom::Load
_TEXT	ENDS
PUBLIC	?Main@ComboCustom@@QAEHHH@Z			; ComboCustom::Main
EXTRN	?CheckUser@CZtLicense@@QAE_NH@Z:PROC		; CZtLicense::CheckUser
EXTRN	?gObj@@3PAUOBJECTSTRUCT@@A:DWORD		; gObj
; Function compile flags: /Ogtp
;	COMDAT ?Main@ComboCustom@@QAEHHH@Z
_TEXT	SEGMENT
_aIndex$ = 8						; size = 4
_skillnumber$ = 12					; size = 4
?Main@ComboCustom@@QAEHHH@Z PROC			; ComboCustom::Main, COMDAT
; _this$ = ecx

; 156  : {

  00000	55		 push	 ebp
  00001	8b ec		 mov	 ebp, esp
  00003	57		 push	 edi
  00004	8b f9		 mov	 edi, ecx

; 157  : 	if(!this->Enable)

  00006	83 3f 00	 cmp	 DWORD PTR [edi], 0
  00009	75 0a		 jne	 SHORT $LN12@Main

; 158  : 	{
; 159  : 		return -2;

  0000b	b8 fe ff ff ff	 mov	 eax, -2			; fffffffeH
  00010	5f		 pop	 edi

; 208  : 		}
; 209  : 		break;
; 210  : 	}
; 211  : }

  00011	5d		 pop	 ebp
  00012	c2 08 00	 ret	 8
$LN12@Main:
  00015	56		 push	 esi

; 160  : 	}
; 161  : 
; 162  : 	LPOBJ lpObj = &gObj[aIndex];

  00016	8b 75 08	 mov	 esi, DWORD PTR _aIndex$[ebp]
  00019	69 f6 50 2b 00
	00		 imul	 esi, 11088		; 00002b50H
  0001f	03 35 00 00 00
	00		 add	 esi, DWORD PTR ?gObj@@3PAUOBJECTSTRUCT@@A ; gObj

; 163  : 
; 164  : 	if(g_ZtLicense.CheckUser(eZtUB::NSGames))

  00025	6a 51		 push	 81			; 00000051H
  00027	b9 00 00 00 00	 mov	 ecx, OFFSET ?g_ZtLicense@@3VCZtLicense@@A ; g_ZtLicense
  0002c	e8 00 00 00 00	 call	 ?CheckUser@CZtLicense@@QAE_NH@Z ; CZtLicense::CheckUser
  00031	84 c0		 test	 al, al
  00033	74 09		 je	 SHORT $LN10@Main

; 165  : 	{
; 166  : 		if(!lpObj->ChangeUP3rd)

  00035	80 be bc 00 00
	00 00		 cmp	 BYTE PTR [esi+188], 0

; 167  : 		{
; 168  : 			return -2;

  0003c	74 24		 je	 SHORT $LN6@Main
$LN10@Main:

; 169  : 		}
; 170  : 	}
; 171  : 
; 172  : 	switch(lpObj->Class)

  0003e	0f b7 86 b8 00
	00 00		 movzx	 eax, WORD PTR [esi+184]
  00045	83 f8 06	 cmp	 eax, 6
  00048	77 72		 ja	 SHORT $LN15@Main
  0004a	ff 24 85 00 00
	00 00		 jmp	 DWORD PTR $LN16@Main[eax*4]
$LN7@Main:

; 173  : 	{
; 174  : 	case CLASS_WIZARD:
; 175  : 		{
; 176  : 			return this->DarkWizard(skillnumber);

  00051	8b 45 0c	 mov	 eax, DWORD PTR _skillnumber$[ebp]
  00054	50		 push	 eax
  00055	8b cf		 mov	 ecx, edi
  00057	e8 00 00 00 00	 call	 ?DarkWizard@ComboCustom@@QAEHH@Z ; ComboCustom::DarkWizard
  0005c	5e		 pop	 esi
  0005d	5f		 pop	 edi

; 208  : 		}
; 209  : 		break;
; 210  : 	}
; 211  : }

  0005e	5d		 pop	 ebp
  0005f	c2 08 00	 ret	 8
$LN6@Main:
  00062	5e		 pop	 esi

; 177  : 		}
; 178  : 		break;
; 179  : 	case CLASS_KNIGHT:
; 180  : 		{
; 181  : 			//return this->DarkKnight(skillnumber);
; 182  : 			return -2;

  00063	b8 fe ff ff ff	 mov	 eax, -2			; fffffffeH
  00068	5f		 pop	 edi

; 208  : 		}
; 209  : 		break;
; 210  : 	}
; 211  : }

  00069	5d		 pop	 ebp
  0006a	c2 08 00	 ret	 8
$LN5@Main:

; 183  : 		}
; 184  : 		break;
; 185  : 	case CLASS_ELF:
; 186  : 		{
; 187  : 			return this->Elf(skillnumber);

  0006d	8b 4d 0c	 mov	 ecx, DWORD PTR _skillnumber$[ebp]
  00070	51		 push	 ecx
  00071	8b cf		 mov	 ecx, edi
  00073	e8 00 00 00 00	 call	 ?Elf@ComboCustom@@QAEHH@Z ; ComboCustom::Elf
  00078	5e		 pop	 esi
  00079	5f		 pop	 edi

; 208  : 		}
; 209  : 		break;
; 210  : 	}
; 211  : }

  0007a	5d		 pop	 ebp
  0007b	c2 08 00	 ret	 8
$LN4@Main:

; 188  : 		}
; 189  : 		break;
; 190  : 	case CLASS_MAGUMSA:
; 191  : 		{
; 192  : 			return this->MagicGladiator(skillnumber);

  0007e	8b 55 0c	 mov	 edx, DWORD PTR _skillnumber$[ebp]
  00081	52		 push	 edx
  00082	8b cf		 mov	 ecx, edi
  00084	e8 00 00 00 00	 call	 ?MagicGladiator@ComboCustom@@QAEHH@Z ; ComboCustom::MagicGladiator
  00089	5e		 pop	 esi
  0008a	5f		 pop	 edi

; 208  : 		}
; 209  : 		break;
; 210  : 	}
; 211  : }

  0008b	5d		 pop	 ebp
  0008c	c2 08 00	 ret	 8
$LN3@Main:

; 193  : 		}
; 194  : 		break;
; 195  : 	case CLASS_DARKLORD:
; 196  : 		{
; 197  : 			return this->DarkLord(skillnumber);

  0008f	8b 45 0c	 mov	 eax, DWORD PTR _skillnumber$[ebp]
  00092	50		 push	 eax
  00093	8b cf		 mov	 ecx, edi
  00095	e8 00 00 00 00	 call	 ?DarkLord@ComboCustom@@QAEHH@Z ; ComboCustom::DarkLord
  0009a	5e		 pop	 esi
  0009b	5f		 pop	 edi

; 208  : 		}
; 209  : 		break;
; 210  : 	}
; 211  : }

  0009c	5d		 pop	 ebp
  0009d	c2 08 00	 ret	 8
$LN2@Main:

; 198  : 		}
; 199  : 		break;
; 200  : 	case CLASS_SUMMONER:
; 201  : 		{
; 202  : 			return this->Summoner(skillnumber);

  000a0	8b 4d 0c	 mov	 ecx, DWORD PTR _skillnumber$[ebp]
  000a3	51		 push	 ecx
  000a4	8b cf		 mov	 ecx, edi
  000a6	e8 00 00 00 00	 call	 ?Summoner@ComboCustom@@QAEHH@Z ; ComboCustom::Summoner
  000ab	5e		 pop	 esi
  000ac	5f		 pop	 edi

; 208  : 		}
; 209  : 		break;
; 210  : 	}
; 211  : }

  000ad	5d		 pop	 ebp
  000ae	c2 08 00	 ret	 8
$LN1@Main:

; 203  : 		}
; 204  : 		break;
; 205  : 	case CLASS_MONK:
; 206  : 		{
; 207  : 			return this->RageFighter(skillnumber);

  000b1	8b 55 0c	 mov	 edx, DWORD PTR _skillnumber$[ebp]
  000b4	52		 push	 edx
  000b5	8b cf		 mov	 ecx, edi
  000b7	e8 00 00 00 00	 call	 ?RageFighter@ComboCustom@@QAEHH@Z ; ComboCustom::RageFighter
$LN15@Main:
  000bc	5e		 pop	 esi
  000bd	5f		 pop	 edi

; 208  : 		}
; 209  : 		break;
; 210  : 	}
; 211  : }

  000be	5d		 pop	 ebp
  000bf	c2 08 00	 ret	 8
  000c2	8b ff		 npad	 2
$LN16@Main:
  000c4	00 00 00 00	 DD	 $LN7@Main
  000c8	00 00 00 00	 DD	 $LN6@Main
  000cc	00 00 00 00	 DD	 $LN5@Main
  000d0	00 00 00 00	 DD	 $LN4@Main
  000d4	00 00 00 00	 DD	 $LN3@Main
  000d8	00 00 00 00	 DD	 $LN2@Main
  000dc	00 00 00 00	 DD	 $LN1@Main
?Main@ComboCustom@@QAEHHH@Z ENDP			; ComboCustom::Main
_TEXT	ENDS
EXTRN	_atexit:PROC
; Function compile flags: /Ogtp
;	COMDAT ??__Eg_ComboCustom@@YAXXZ
text$yc	SEGMENT
??__Eg_ComboCustom@@YAXXZ PROC				; `dynamic initializer for 'g_ComboCustom'', COMDAT

; 9    : ComboCustom g_ComboCustom;

  00000	b9 00 00 00 00	 mov	 ecx, OFFSET ?g_ComboCustom@@3VComboCustom@@A ; g_ComboCustom
  00005	e8 00 00 00 00	 call	 ??0ComboCustom@@QAE@XZ	; ComboCustom::ComboCustom
  0000a	68 00 00 00 00	 push	 OFFSET ??__Fg_ComboCustom@@YAXXZ ; `dynamic atexit destructor for 'g_ComboCustom''
  0000f	e8 00 00 00 00	 call	 _atexit
  00014	59		 pop	 ecx
  00015	c3		 ret	 0
??__Eg_ComboCustom@@YAXXZ ENDP				; `dynamic initializer for 'g_ComboCustom''
; Function compile flags: /Ogtp
text$yc	ENDS
;	COMDAT ??__Fg_ComboCustom@@YAXXZ
text$yd	SEGMENT
??__Fg_ComboCustom@@YAXXZ PROC				; `dynamic atexit destructor for 'g_ComboCustom'', COMDAT
  00000	c3		 ret	 0
??__Fg_ComboCustom@@YAXXZ ENDP				; `dynamic atexit destructor for 'g_ComboCustom''
text$yd	ENDS
PUBLIC	?g_ComboCustom@@3VComboCustom@@A		; g_ComboCustom
_BSS	SEGMENT
?g_ComboCustom@@3VComboCustom@@A DB 0acH DUP (?)	; g_ComboCustom
_BSS	ENDS
CRT$XCU	SEGMENT
_g_ComboCustom$initializer$ DD FLAT:??__Eg_ComboCustom@@YAXXZ
CRT$XCU	ENDS
END
