; Listing generated by Microsoft (R) Optimizing Compiler Version 16.00.30319.01 

	TITLE	E:\work\tranet_version\GS\GameServer\Configs.cpp
	.686P
	.XMM
	include listing.inc
	.model	flat

INCLUDELIB LIBCMT
INCLUDELIB OLDNAMES

PUBLIC	?ZtConfig@@3VcZtConfigs@@A			; ZtConfig
_BSS	SEGMENT
?ZtConfig@@3VcZtConfigs@@A DB 0db0H DUP (?)		; ZtConfig
_BSS	ENDS
_DATA	SEGMENT
_g_sttBLOODCASTLE_LEVEL DD 0fH
	DD	050H
	DD	0aH
	DD	03cH
	DD	051H
	DD	082H
	DD	03dH
	DD	06eH
	DD	083H
	DD	0b4H
	DD	06fH
	DD	0a0H
	DD	0b5H
	DD	0e6H
	DD	0a1H
	DD	0d2H
	DD	0e7H
	DD	0118H
	DD	0d3H
	DD	0104H
	DD	0119H
	DD	014aH
	DD	0105H
	DD	0136H
	DD	014bH
	DD	03e8H
	DD	0137H
	DD	03e8H
	DD	0fH
	DD	04afH
	DD	0aH
	DD	04afH
_g_sttCHAOSCASTLE_LEVEL DD 0fH
	DD	031H
	DD	0fH
	DD	01dH
	DD	032H
	DD	077H
	DD	01eH
	DD	063H
	DD	078H
	DD	0b3H
	DD	064H
	DD	09fH
	DD	0b4H
	DD	0efH
	DD	0a0H
	DD	0dbH
	DD	0f0H
	DD	012bH
	DD	0dcH
	DD	0117H
	DD	012cH
	DD	03e8H
	DD	0118H
	DD	03e8H
	DD	03e8H
	DD	04afH
	DD	03e8H
	DD	04afH
_g_iChaosCastle_BlowOutDistance DD 03H
	DD	04H
	DD	03H
	DD	04H
	DD	02H
	DD	03H
	DD	00H
	DD	01H
_g_iChaosCastle_BlowOutDamage DD 0fH
	DD	0fH
	DD	0aH
	DD	05H
_g_iChaosCastle_EnterCost DD 061a8H
	DD	013880H
	DD	0249f0H
	DD	03d090H
	DD	061a80H
	DD	09eb10H
	DD	0f4240H
_g_iChaosCastle_GuardSetValue DD 09c4H
	DD	09c4H
	DD	09c4H
	DD	09c4H
	DD	09c4H
	DD	09c4H
	DD	09c4H
_g_iChaosCastle_MonsterItems DD 01c0dH
	DD	01H
	DD	01c0eH
	DD	02H
	DD	01c0dH
	DD	01H
	DD	01c0eH
	DD	03H
	DD	01c0dH
	DD	01H
	DD	01c0eH
	DD	03H
	DD	01c0dH
	DD	02H
	DD	01c0eH
	DD	02H
	DD	01c0dH
	DD	02H
	DD	01c0eH
	DD	03H
	DD	01c0dH
	DD	02H
	DD	01c0eH
	DD	03H
	DD	01c0dH
	DD	02H
	DD	01c0eH
	DD	04H
_g_iChaosCastle_MonsterItemsNewServer DD 00H
	DD	00H
	DD	01c0eH
	DD	02H
	DD	01c0dH
	DD	01H
	DD	01c0eH
	DD	01H
	DD	01c0dH
	DD	01H
	DD	01c0eH
	DD	02H
	DD	01c0dH
	DD	01H
	DD	01c0eH
	DD	02H
	DD	01c0dH
	DD	02H
	DD	01c0eH
	DD	01H
	DD	01c0dH
	DD	02H
	DD	01c0eH
	DD	02H
	DD	01c0dH
	DD	02H
	DD	01c0eH
	DD	03H
_g_iChaosCastle_GroundAxis DD 017H
	DD	04bH
	DD	02cH
	DD	06cH
_g_iChaosCastle_DamageAxis DD 017H
	DD	04bH
	DD	02cH
	DD	06cH
	DD	019H
	DD	04dH
	DD	02aH
	DD	06aH
	DD	01bH
	DD	04fH
	DD	028H
	DD	068H
	DD	01dH
	DD	051H
	DD	026H
	DD	066H
_g_iChaosCastle_MapHollowZone DD 017H
	DD	04bH
	DD	02cH
	DD	04cH
	DD	02bH
	DD	04dH
	DD	02cH
	DD	06cH
	DD	017H
	DD	06bH
	DD	02aH
	DD	06cH
	DD	017H
	DD	04dH
	DD	018H
	DD	06aH
	DD	017H
	DD	04bH
	DD	02cH
	DD	04cH
	DD	02bH
	DD	04dH
	DD	02cH
	DD	06cH
	DD	017H
	DD	06bH
	DD	02aH
	DD	06cH
	DD	017H
	DD	04dH
	DD	018H
	DD	06aH
	DD	019H
	DD	04dH
	DD	02aH
	DD	04eH
	DD	029H
	DD	04fH
	DD	02aH
	DD	06aH
	DD	019H
	DD	069H
	DD	028H
	DD	06aH
	DD	019H
	DD	04fH
	DD	01aH
	DD	068H
	DD	01bH
	DD	04fH
	DD	028H
	DD	050H
	DD	027H
	DD	051H
	DD	028H
	DD	068H
	DD	01bH
	DD	067H
	DD	026H
	DD	068H
	DD	01bH
	DD	051H
	DD	01cH
	DD	066H
_DATA	ENDS
PUBLIC	??_H@YGXPAXIHP6EPAX0@Z@Z			; `vector constructor iterator'
; Function compile flags: /Ogtp
;	COMDAT ??_H@YGXPAXIHP6EPAX0@Z@Z
_TEXT	SEGMENT
___t$ = 8						; size = 4
___s$ = 12						; size = 4
___n$ = 16						; size = 4
___f$ = 20						; size = 4
??_H@YGXPAXIHP6EPAX0@Z@Z PROC				; `vector constructor iterator', COMDAT
  00000	55		 push	 ebp
  00001	8b ec		 mov	 ebp, esp
  00003	57		 push	 edi
  00004	8b 7d 10	 mov	 edi, DWORD PTR ___n$[ebp]
  00007	4f		 dec	 edi
  00008	78 14		 js	 SHORT $LN1@vector
  0000a	53		 push	 ebx
  0000b	8b 5d 14	 mov	 ebx, DWORD PTR ___f$[ebp]
  0000e	56		 push	 esi
  0000f	8b 75 08	 mov	 esi, DWORD PTR ___t$[ebp]
$LL2@vector:
  00012	8b ce		 mov	 ecx, esi
  00014	ff d3		 call	 ebx
  00016	03 75 0c	 add	 esi, DWORD PTR ___s$[ebp]
  00019	4f		 dec	 edi
  0001a	79 f6		 jns	 SHORT $LL2@vector
  0001c	5e		 pop	 esi
  0001d	5b		 pop	 ebx
$LN1@vector:
  0001e	5f		 pop	 edi
  0001f	5d		 pop	 ebp
  00020	c2 10 00	 ret	 16			; 00000010H
??_H@YGXPAXIHP6EPAX0@Z@Z ENDP				; `vector constructor iterator'
_TEXT	ENDS
PUBLIC	??_C@_0BE@FEKBLFNH@NewBuffPartyDefence?$AA@	; `string'
PUBLIC	??_C@_0BD@HIJCBDHI@NewBuffPartyDamage?$AA@	; `string'
PUBLIC	??_C@_0BG@DGGLLPMG@NewBuffPartyMembCount?$AA@	; `string'
PUBLIC	??_C@_0BD@PEKDAHBH@NewBuffPartyEnable?$AA@	; `string'
PUBLIC	??_C@_0BE@HGOKOEGD@NewBuffGuildDefence?$AA@	; `string'
PUBLIC	??_C@_0BD@DBNFBOMO@NewBuffGuildDamage?$AA@	; `string'
PUBLIC	??_C@_0BH@HCIGDAG@NewBuffGuildMembOnline?$AA@	; `string'
PUBLIC	??_C@_0BD@LNOEAKKB@NewBuffGuildEnable?$AA@	; `string'
PUBLIC	??_C@_0BG@PICBNOIL@NewBuffPremiumDefence?$AA@	; `string'
PUBLIC	??_C@_0BF@EEAAAPFD@NewBuffPremiumDamage?$AA@	; `string'
PUBLIC	??_C@_0BF@MIDBBLDM@NewBuffPremiumEnable?$AA@	; `string'
PUBLIC	??_C@_0BL@DOCLALOP@?4?4?2Data?2ZtData?2NewBuff?4ini?$AA@ ; `string'
PUBLIC	??_C@_04MJOIBMDI@RF_Y?$AA@			; `string'
PUBLIC	??_C@_04NAPDCNHJ@RF_X?$AA@			; `string'
PUBLIC	??_C@_0M@OEIIMLMI@RF_MapStart?$AA@		; `string'
PUBLIC	??_C@_04EJPFJOHO@DL_Y?$AA@			; `string'
PUBLIC	??_C@_04FAOOKPDP@DL_X?$AA@			; `string'
PUBLIC	??_C@_0M@OFACNLFA@DL_MapStart?$AA@		; `string'
PUBLIC	??_C@_04JDOEHLAO@MG_Y?$AA@			; `string'
PUBLIC	??_C@_04IKPPEKEP@MG_X?$AA@			; `string'
PUBLIC	??_C@_0M@FLIKGGIF@MG_MapStart?$AA@		; `string'
PUBLIC	??_C@_04LGCEMNPJ@SU_Y?$AA@			; `string'
PUBLIC	??_C@_04KPDPPMLI@SU_X?$AA@			; `string'
PUBLIC	??_C@_0M@EIDJCFGN@SU_MapStart?$AA@		; `string'
PUBLIC	??_C@_04JJNPIEE@EE_Y?$AA@			; `string'
PUBLIC	??_C@_04BAIGMJAF@EE_X?$AA@			; `string'
PUBLIC	??_C@_0M@FOKKJLK@EE_MapStart?$AA@		; `string'
PUBLIC	??_C@_04NECCKGMH@DK_Y?$AA@			; `string'
PUBLIC	??_C@_04MNDJJHIG@DK_X?$AA@			; `string'
PUBLIC	??_C@_0M@MMDJMOND@DK_MapStart?$AA@		; `string'
PUBLIC	??_C@_04MOONEOOA@DW_Y?$AA@			; `string'
PUBLIC	??_C@_04NHPGHPKB@DW_X?$AA@			; `string'
PUBLIC	??_C@_0M@GINFJINP@DW_MapStart?$AA@		; `string'
PUBLIC	??_C@_0BM@IKFOIIJL@?4?4?2Data?2ZtData?2MapStart?4ini?$AA@ ; `string'
PUBLIC	??_C@_0BH@HMPFPJHA@TeleportMapForDieMap51?$AA@	; `string'
PUBLIC	??_C@_0BH@GECMKCAG@TeleportMapForDieMap40?$AA@	; `string'
PUBLIC	??_C@_0BG@FDOFJEDH@TeleportMapForDieMap6?$AA@	; `string'
PUBLIC	??_C@_0BK@EBLBDIHE@?4?4?2Data?2ZtData?2MapDie?4ini?$AA@ ; `string'
PUBLIC	??_C@_08NDNCIGJE@Class3rd?$AA@			; `string'
PUBLIC	??_C@_08GLGOOBPB@Class2rd?$AA@			; `string'
PUBLIC	??_C@_06MOPANJOH@Marlon?$AA@			; `string'
PUBLIC	??_C@_06INNNFHKM@Master?$AA@			; `string'
PUBLIC	??_C@_0O@PKHMODMN@RfLevelPoints?$AA@		; `string'
PUBLIC	??_C@_0O@FOFDPCDB@DlLevelPoints?$AA@		; `string'
PUBLIC	??_C@_0O@BHMMLCNC@MgLevelPoints?$AA@		; `string'
PUBLIC	??_C@_0P@CMJAHKBN@SumLevelPoints?$AA@		; `string'
PUBLIC	??_C@_0P@GFCFENCP@ElfLevelPoints?$AA@		; `string'
PUBLIC	??_C@_0O@NJNOLEI@DwLevelPoints?$AA@		; `string'
PUBLIC	??_C@_0O@CDCAPEGJ@DkLevelPoints?$AA@		; `string'
PUBLIC	??_C@_0BP@DGHOKCPO@?4?4?2Data?2ZtData?2AddPointLvl?4ini?$AA@ ; `string'
PUBLIC	??_C@_05OKMLJOMC@?$CFd?5?$CFd?$AA@		; `string'
PUBLIC	??_C@_0BA@PIOFNAIM@LOAD?5FILE?5ERROR?$AA@	; `string'
PUBLIC	??_C@_01KDCPPGHE@r?$AA@				; `string'
PUBLIC	??_C@_0BF@KHLDLEHL@CountErohimItemsDrop?$AA@	; `string'
PUBLIC	??_C@_0BF@BCJHLFDK@CountKundumItemsDrop?$AA@	; `string'
PUBLIC	??_C@_08LEBLPLCH@ExpMinus?$AA@			; `string'
PUBLIC	??_C@_04PABHPHAJ@Gold?$AA@			; `string'
PUBLIC	??_C@_06BONGPKIK@Silver?$AA@			; `string'
PUBLIC	??_C@_0M@DPJHHJHF@PartySystem?$AA@		; `string'
PUBLIC	??_C@_0BC@OIHKJNFL@PartySystemEnable?$AA@	; `string'
PUBLIC	??_C@_0L@LMHNIDEG@GMKillMapY?$AA@		; `string'
PUBLIC	??_C@_0L@KFGGLCAH@GMKillMapX?$AA@		; `string'
PUBLIC	??_C@_05PDFHKAHB@GMMap?$AA@			; `string'
PUBLIC	??_C@_09JLHLFOB@GMKillMap?$AA@			; `string'
PUBLIC	??_C@_0BB@CGPMFCOB@FloodProtectTime?$AA@	; `string'
PUBLIC	??_C@_0M@FDPCIMFD@FloodInPost?$AA@		; `string'
PUBLIC	??_C@_0BD@IIGIBBFK@IsPostFloodProtect?$AA@	; `string'
PUBLIC	??_C@_0BA@HJHGGKGC@ErohimItemsDrop?$AA@		; `string'
PUBLIC	??_C@_09CMLILGNK@ItemsDrop?$AA@			; `string'
PUBLIC	??_C@_0BA@MMFCGLCD@KundumItemsDrop?$AA@		; `string'
PUBLIC	??_C@_0CA@CPBLOJFD@?4?4?2Data?2ZtData?2dryneaConfig?4ini?$AA@ ; `string'
PUBLIC	??_C@_0BB@JOFKNJGG@VitalityToLifeRF?$AA@	; `string'
PUBLIC	??_C@_0M@IFOGKLEF@LevelLifeRF?$AA@		; `string'
PUBLIC	??_C@_0BC@EHEENFLA@VitalityToLifeSUM?$AA@	; `string'
PUBLIC	??_C@_0N@OFDIBILA@LevelLifeSUM?$AA@		; `string'
PUBLIC	??_C@_0BB@HMBOOOCO@VitalityToLifeDL?$AA@	; `string'
PUBLIC	??_C@_0M@GHKCJMAN@LevelLifeDL?$AA@		; `string'
PUBLIC	??_C@_0BB@JADLAMGK@VitalityToLifeMG?$AA@	; `string'
PUBLIC	??_C@_0M@ILIHHOEJ@LevelLifeMG?$AA@		; `string'
PUBLIC	??_C@_0BC@MCDFJMMH@VitalityToLifeELF?$AA@	; `string'
PUBLIC	??_C@_0N@GAEJFBMH@LevelLifeELF?$AA@		; `string'
PUBLIC	??_C@_0BB@DDFPHIOJ@VitalityToLifeDK?$AA@	; `string'
PUBLIC	??_C@_0M@CIODAKMK@LevelLifeDK?$AA@		; `string'
PUBLIC	??_C@_0BB@HMGMGKJK@VitalityToLifeSM?$AA@	; `string'
PUBLIC	??_C@_07GNAIBKOG@MaxLife?$AA@			; `string'
PUBLIC	??_C@_0M@GHNABILJ@LevelLifeSM?$AA@		; `string'
PUBLIC	??_C@_09NCEFHIOD@Fortitude?$AA@			; `string'
PUBLIC	??_C@_02GACNOJIN@BK?$AA@			; `string'
PUBLIC	??_C@_09KLNDOCNC@ComboBase?$AA@			; `string'
PUBLIC	??_C@_0P@KINOHHEI@OffDecreaseDur?$AA@		; `string'
PUBLIC	??_C@_0L@ICIPIMOB@IncPercent?$AA@		; `string'
PUBLIC	??_C@_0L@LBPLDKBB@DecPercent?$AA@		; `string'
PUBLIC	??_C@_0BA@CKCFCJNP@AttackDamageMax?$AA@		; `string'
PUBLIC	??_C@_0BA@DIKOMNLA@AttackDamageMin?$AA@		; `string'
PUBLIC	??_C@_07IOCAHHAN@AddMana?$AA@			; `string'
PUBLIC	??_C@_07BMILOCOO@AddLife?$AA@			; `string'
PUBLIC	??_C@_0BE@FDGOFHPP@DiapasonMasterMoney?$AA@	; `string'
PUBLIC	??_C@_09MMCIGBFH@MasterZen?$AA@			; `string'
PUBLIC	??_C@_0M@CLMNLHID@MasterMoney?$AA@		; `string'
PUBLIC	??_C@_0CB@GGFIJGAD@?4?4?2Data?2ZtData?2PrideMuConfig?4ini@ ; `string'
PUBLIC	??_C@_03PDAOPOAJ@GmY?$AA@			; `string'
PUBLIC	??_C@_03OKBFMPEI@GmX?$AA@			; `string'
PUBLIC	??_C@_05DCJGIPHF@GmMap?$AA@			; `string'
PUBLIC	??_C@_0BJ@LEEACENA@?4?4?2Data?2ZtData?2GmMap?4ini?$AA@ ; `string'
PUBLIC	??_C@_0M@MEOEHJII@SearchEvent?$AA@		; `string'
PUBLIC	??_C@_0CK@PKJPGHPM@?$FLSearch?5Event?$FN?5Event?5Start?5For?5?$CF@ ; `string'
PUBLIC	??_C@_09JMDHGKGF@DropEvent?$AA@			; `string'
PUBLIC	??_C@_0CI@JCKJNPEA@?$FLDrop?5Event?$FN?5Event?5Start?5For?5?$CFd?5@ ; `string'
PUBLIC	??_C@_0O@LIFHJMIC@MessageConfig?$AA@		; `string'
PUBLIC	??_C@_09PCOABNJK@HappyHour?$AA@			; `string'
PUBLIC	??_C@_0CI@GOEPAOAJ@?$FLHappy?5Hour?$FN?5Event?5Start?5For?5?$CFd?5@ ; `string'
PUBLIC	??_C@_0CB@NNPBLLBF@?4?4?2Data?2ZtData?2MessageConfig?4ini@ ; `string'
PUBLIC	??_C@_0N@KIIAEHLD@ShowZtCredit?$AA@		; `string'
PUBLIC	??_C@_06LGONOADE@ShowGP?$AA@			; `string'
PUBLIC	??_C@_0L@DOBIGPHK@ShowWcoinC?$AA@		; `string'
PUBLIC	??_C@_09JAPKFKFH@ShowGMAll?$AA@			; `string'
PUBLIC	??_C@_0O@EINGOGBE@ShowNameColor?$AA@		; `string'
PUBLIC	??_C@_0M@MOLFGNHA@ShowNameAll?$AA@		; `string'
PUBLIC	??_C@_0L@FCMJFHPJ@ShowOnline?$AA@		; `string'
PUBLIC	??_C@_0L@HPKGMHDD@ShowGReset?$AA@		; `string'
PUBLIC	??_C@_09OFLIDOEG@ShowReset?$AA@			; `string'
PUBLIC	??_C@_06CKGENIKG@Enable?$AA@			; `string'
PUBLIC	??_C@_0CB@OMLGHAKM@?4?4?2Data?2ZtData?2PlayerConnect?4ini@ ; `string'
PUBLIC	??_C@_0BC@CGOLLBCP@GoldenGreatDragon?$AA@	; `string'
PUBLIC	??_C@_09OEMFLPMC@countitem?$AA@			; `string'
PUBLIC	??_C@_0L@BHPAMDEK@randlevel3?$AA@		; `string'
PUBLIC	??_C@_0L@OOLPCAL@randlevel2?$AA@		; `string'
PUBLIC	??_C@_0L@CFMGKBMI@randlevel1?$AA@		; `string'
PUBLIC	??_C@_0N@HHBMKNLD@GoldenDragon?$AA@		; `string'
PUBLIC	??_C@_0M@MMGMILNL@GoldenNapin?$AA@		; `string'
PUBLIC	??_C@_0BB@OONOPKFI@GoldenIronKnight?$AA@	; `string'
PUBLIC	??_C@_0P@EAJKDCOP@GoldenTwinTale?$AA@		; `string'
PUBLIC	??_C@_0O@EIIOBDNH@GoldenSatyrus?$AA@		; `string'
PUBLIC	??_C@_0M@MBPAFJBI@GoldenCrust?$AA@		; `string'
PUBLIC	??_C@_0M@GMKLCGPC@GoldenGolem?$AA@		; `string'
PUBLIC	??_C@_0M@LJEOIGLC@GoldenWheel?$AA@		; `string'
PUBLIC	??_C@_0P@BINBPBJF@GoldenTantalos?$AA@		; `string'
PUBLIC	??_C@_0M@IPCKDDCD@GoldenDevil?$AA@		; `string'
PUBLIC	??_C@_0M@DOANKBAI@GoldenVepar?$AA@		; `string'
PUBLIC	??_C@_0BB@NNGMMMAH@GoldenLizardKing?$AA@	; `string'
PUBLIC	??_C@_0O@ONGBPJOA@GoldenSoldier?$AA@		; `string'
PUBLIC	??_C@_0M@NPCACHAI@GoldenTitan?$AA@		; `string'
PUBLIC	??_C@_0BB@PMLMCGPG@GoldenDarkKnight?$AA@	; `string'
PUBLIC	??_C@_0N@GNJACHAI@GoldenGoblin?$AA@		; `string'
PUBLIC	??_C@_0BC@LLLKPALN@GoldenBudgeDragon?$AA@	; `string'
PUBLIC	??_C@_09EBLHEKMK@ItemLevel?$AA@			; `string'
PUBLIC	??_C@_09LCBEKCCJ@ItemIndex?$AA@			; `string'
PUBLIC	??_C@_06COGLIGFC@Dragon?$AA@			; `string'
PUBLIC	??_C@_08LJOGMPAO@ItemType?$AA@			; `string'
PUBLIC	??_C@_0CN@DJEEGMHO@?4?4?2Data?2ZtData?2Events?2GoldenInva@ ; `string'
PUBLIC	??_C@_09FEFNOIN@DuelLevel?$AA@			; `string'
PUBLIC	??_C@_04EPBLILKF@Duel?$AA@			; `string'
PUBLIC	??_C@_04BLOGEDLD@Gate?$AA@			; `string'
PUBLIC	??_C@_07GPOLHHOH@PkLimit?$AA@			; `string'
PUBLIC	??_C@_02HPIPJOJD@PK?$AA@			; `string'
PUBLIC	??_C@_09FNHGLBIL@PKPartyOn?$AA@			; `string'
PUBLIC	??_C@_0BN@FIOMFOPK@?4?4?2Data?2ZtData?2PvPSystem?4ini?$AA@ ; `string'
PUBLIC	??_C@_0BH@FCABGCKB@RingSkeletonDurability?$AA@	; `string'
PUBLIC	??_C@_0BE@MODNLPLG@RingPandaDurability?$AA@	; `string'
PUBLIC	??_C@_0BD@EHLKGHKK@DinorantDurability?$AA@	; `string'
PUBLIC	??_C@_0BB@KEGIPMLB@UniriaDurability?$AA@	; `string'
PUBLIC	??_C@_0BC@JMNEHPBP@UnicornDurability?$AA@	; `string'
PUBLIC	??_C@_0BD@IBJLACMM@SkeletonDurability?$AA@	; `string'
PUBLIC	??_C@_0BA@CKPNOEKM@PandaDurability?$AA@		; `string'
PUBLIC	??_C@_0BD@GLMHAOCA@GuardianDurability?$AA@	; `string'
PUBLIC	??_C@_0BA@HLKLPGNP@DemonDurability?$AA@		; `string'
PUBLIC	??_C@_0BA@NIALJKML@SatanDurability?$AA@		; `string'
PUBLIC	??_C@_0BB@HMPHPBHO@RudolfDurability?$AA@	; `string'
PUBLIC	??_C@_0BB@OHAGIPNH@PetDurabilityDiv?$AA@	; `string'
PUBLIC	??_C@_0BA@NLFFKPBF@AngelDurability?$AA@		; `string'
PUBLIC	??_C@_0BJ@PNGLHMOF@GoldFenrirProcDurability?$AA@ ; `string'
PUBLIC	??_C@_0BD@NNICAKBA@GoldFenrirProcLife?$AA@	; `string'
PUBLIC	??_C@_0BF@PPKOKDO@GoldFenrirProcAbsurd?$AA@	; `string'
PUBLIC	??_C@_0BF@NIALAOMG@GoldFenrirProcDamage?$AA@	; `string'
PUBLIC	??_C@_0BK@LLKCGAK@BlackFenrirProcDurability?$AA@ ; `string'
PUBLIC	??_C@_0BE@CKFPCFDG@BlackFenrirProcLife?$AA@	; `string'
PUBLIC	??_C@_0BG@GHPFKDJO@BlackFenrirProcAbsurd?$AA@	; `string'
PUBLIC	??_C@_0BG@LAAEEHGG@BlackFenrirProcDamage?$AA@	; `string'
PUBLIC	??_C@_0BJ@HGNDEEEG@BlueFenrirProcDurability?$AA@ ; `string'
PUBLIC	??_C@_0BD@NBABNGPJ@BlueFenrirProcLife?$AA@	; `string'
PUBLIC	??_C@_0BF@PCDDAOH@BlueFenrirProcAbsurd?$AA@	; `string'
PUBLIC	??_C@_0BF@NINCNEBP@BlueFenrirProcDamage?$AA@	; `string'
PUBLIC	??_C@_0BI@OCEBDAGI@RedFenrirProcDurability?$AA@	; `string'
PUBLIC	??_C@_0BC@IGFPMEEP@RedFenrirProcLife?$AA@	; `string'
PUBLIC	??_C@_0BE@EOAFBPMP@RedFenrirProcAbsurd?$AA@	; `string'
PUBLIC	??_C@_06KAEKLEML@Fenrir?$AA@			; `string'
PUBLIC	??_C@_0BE@JJPEPLDH@RedFenrirProcDamage?$AA@	; `string'
PUBLIC	??_C@_0BD@JCKJEJIF@SkeletonPetAndRing?$AA@	; `string'
PUBLIC	??_C@_0M@KAGNIJEL@SkeletonPet?$AA@		; `string'
PUBLIC	??_C@_0L@DCGNFONO@Experience?$AA@		; `string'
PUBLIC	??_C@_0BF@JONGFLJ@RavenDurabilitySmall?$AA@	; `string'
PUBLIC	??_C@_0BI@GFJAHIIP@RavenAttackDamageMaxCmd?$AA@	; `string'
PUBLIC	??_C@_0BI@GGGDJIMA@RavenAttackDamageMinCmd?$AA@	; `string'
PUBLIC	??_C@_0BI@OFFJKOEA@RavenAttackDamageMaxLvl?$AA@	; `string'
PUBLIC	??_C@_0L@NPEGNDBD@DarkSpirit?$AA@		; `string'
PUBLIC	??_C@_0BI@OGKKEOAP@RavenAttackDamageMinLvl?$AA@	; `string'
PUBLIC	??_C@_03HKMMIPC@Exp?$AA@			; `string'
PUBLIC	??_C@_05OCALBHM@Panda?$AA@			; `string'
PUBLIC	??_C@_0N@OLKLOICD@AttackDamage?$AA@		; `string'
PUBLIC	??_C@_09PLEBLNMO@PandaRing?$AA@			; `string'
PUBLIC	??_C@_03MPGJIAMH@Zen?$AA@			; `string'
PUBLIC	??_C@_0BI@NMLLNIHA@?4?4?2Data?2ZtData?2Pets?4ini?$AA@ ; `string'
PUBLIC	??_C@_0BB@KKDLNMAD@DSRewardLevelUp3?$AA@	; `string'
PUBLIC	??_C@_0BB@LDCAONEC@DSRewardLevelUp2?$AA@	; `string'
PUBLIC	??_C@_0BB@JIANLOIB@DSRewardLevelUp1?$AA@	; `string'
PUBLIC	??_C@_0BA@HPMHDCCH@DSAllowPKPlayer?$AA@		; `string'
PUBLIC	??_C@_0BG@KLHLNOIL@DSParty1ExpSetPercent?$AA@	; `string'
PUBLIC	??_C@_0BG@CBAHLLOI@DSParty5ExpSetPercent?$AA@	; `string'
PUBLIC	??_C@_0BG@JIPMGAAA@DSParty4ExpSetPercent?$AA@	; `string'
PUBLIC	??_C@_0BG@DPNGPBK@DSParty3ExpSetPercent?$AA@	; `string'
PUBLIC	??_C@_0BG@LKAGLEPC@DSParty2ExpSetPercent?$AA@	; `string'
PUBLIC	??_C@_0BH@CKMHNKKK@DSPartyExpPercentOther?$AA@	; `string'
PUBLIC	??_C@_0BD@GNODHJOK@DSParty5ExpPercent?$AA@	; `string'
PUBLIC	??_C@_0BD@PGEGDFIF@DSParty4ExpPercent?$AA@	; `string'
PUBLIC	??_C@_0M@DFALAJPK@DevilSquare?$AA@		; `string'
PUBLIC	??_C@_0BD@ICNONMAK@DSParty3ExpPercent?$AA@	; `string'
PUBLIC	??_C@_0M@DMDCPMM@ChaosCastle?$AA@		; `string'
PUBLIC	??_C@_0M@GPALKPNK@CCMinPlayer?$AA@		; `string'
PUBLIC	??_C@_0BB@PDPJEHDE@BCAllowPKPlayer8?$AA@	; `string'
PUBLIC	??_C@_0O@IOJFCINI@BCDropAncOpt8?$AA@		; `string'
PUBLIC	??_C@_0O@ONBIPNG@BCDropExcOpt8?$AA@		; `string'
PUBLIC	??_C@_0L@IBPNLEMG@BCDropOpt8?$AA@		; `string'
PUBLIC	??_C@_0M@IIFJCENL@BCDropLuck8?$AA@		; `string'
PUBLIC	??_C@_0N@BCIOMHDL@BCDropSkill8?$AA@		; `string'
PUBLIC	??_C@_0N@CGKKAFLF@BCDropLevel8?$AA@		; `string'
PUBLIC	??_C@_09DBGFKBND@BCDropID8?$AA@			; `string'
PUBLIC	??_C@_0M@OKBOJMFH@BCDropType8?$AA@		; `string'
PUBLIC	??_C@_0BB@HEGBFLPL@BCAllowPKPlayer7?$AA@	; `string'
PUBLIC	??_C@_0O@JANDEBH@BCDropAncOpt7?$AA@		; `string'
PUBLIC	??_C@_0O@IJEJJDBJ@BCDropExcOpt7?$AA@		; `string'
PUBLIC	??_C@_0L@GGFKIAJ@BCDropOpt7?$AA@		; `string'
PUBLIC	??_C@_0M@PMBDIBE@BCDropLuck7?$AA@		; `string'
PUBLIC	??_C@_0N@JFBGNLPE@BCDropSkill7?$AA@		; `string'
PUBLIC	??_C@_0N@KBDCBJHK@BCDropLevel7?$AA@		; `string'
PUBLIC	??_C@_09LGPNLNBM@BCDropID7?$AA@			; `string'
PUBLIC	??_C@_0M@GNIGIAJI@BCDropType7?$AA@		; `string'
PUBLIC	??_C@_0BB@GNHKGKLK@BCAllowPKPlayer6?$AA@	; `string'
PUBLIC	??_C@_0O@BABGAFFG@BCDropAncOpt6?$AA@		; `string'
PUBLIC	??_C@_0O@JAFCKCFI@BCDropExcOpt6?$AA@		; `string'
PUBLIC	??_C@_0L@BPHOJJEI@BCDropOpt6?$AA@		; `string'
PUBLIC	??_C@_0M@BGNKAJFF@BCDropLuck6?$AA@		; `string'
PUBLIC	??_C@_0N@IMANOKLF@BCDropSkill6?$AA@		; `string'
PUBLIC	??_C@_0N@LICJCIDL@BCDropLevel6?$AA@		; `string'
PUBLIC	??_C@_09KPOGIMFN@BCDropID6?$AA@			; `string'
PUBLIC	??_C@_0M@HEJNLBNJ@BCDropType6?$AA@		; `string'
PUBLIC	??_C@_0BB@EGFHDJHJ@BCAllowPKPlayer5?$AA@	; `string'
PUBLIC	??_C@_0O@DLDLFGJF@BCDropAncOpt5?$AA@		; `string'
PUBLIC	??_C@_0O@LLHPPBJL@BCDropExcOpt5?$AA@		; `string'
PUBLIC	??_C@_0L@DEFDMKIL@BCDropOpt5?$AA@		; `string'
PUBLIC	??_C@_0M@DNPHFKJG@BCDropLuck5?$AA@		; `string'
PUBLIC	??_C@_0N@KHCALJHG@BCDropSkill5?$AA@		; `string'
PUBLIC	??_C@_0N@JDAEHLPI@BCDropLevel5?$AA@		; `string'
PUBLIC	??_C@_09IEMLNPJO@BCDropID5?$AA@			; `string'
PUBLIC	??_C@_0M@FPLAOCBK@BCDropType5?$AA@		; `string'
PUBLIC	??_C@_0BB@FPEMAIDI@BCAllowPKPlayer4?$AA@	; `string'
PUBLIC	??_C@_0O@CCCAGHNE@BCDropAncOpt4?$AA@		; `string'
PUBLIC	??_C@_0O@KCGEMANK@BCDropExcOpt4?$AA@		; `string'
PUBLIC	??_C@_0L@CNEIPLMK@BCDropOpt4?$AA@		; `string'
PUBLIC	??_C@_0M@CEOMGLNH@BCDropLuck4?$AA@		; `string'
PUBLIC	??_C@_0N@LODLIIDH@BCDropSkill4?$AA@		; `string'
PUBLIC	??_C@_0N@IKBPEKLJ@BCDropLevel4?$AA@		; `string'
PUBLIC	??_C@_09JNNAOONP@BCDropID4?$AA@			; `string'
PUBLIC	??_C@_0M@EGKLNDFL@BCDropType4?$AA@		; `string'
PUBLIC	??_C@_0BB@BAANJOPP@BCAllowPKPlayer3?$AA@	; `string'
PUBLIC	??_C@_0O@GNGBPBBD@BCDropAncOpt3?$AA@		; `string'
PUBLIC	??_C@_0O@ONCFFGBN@BCDropExcOpt3?$AA@		; `string'
PUBLIC	??_C@_0L@GCAJGNAN@BCDropOpt3?$AA@		; `string'
PUBLIC	??_C@_0M@GLKNPNBA@BCDropLuck3?$AA@		; `string'
PUBLIC	??_C@_0N@PBHKBOPA@BCDropSkill3?$AA@		; `string'
PUBLIC	??_C@_0N@MFFONMHO@BCDropLevel3?$AA@		; `string'
PUBLIC	??_C@_09NCJBHIBI@BCDropID3?$AA@			; `string'
PUBLIC	??_C@_0M@JOKEFJM@BCDropType3?$AA@		; `string'
PUBLIC	??_C@_0BB@JBGKPLO@BCAllowPKPlayer2?$AA@		; `string'
PUBLIC	??_C@_0O@HEHKMAFC@BCDropAncOpt2?$AA@		; `string'
PUBLIC	??_C@_0O@PEDOGHFM@BCDropExcOpt2?$AA@		; `string'
PUBLIC	??_C@_0L@HLBCFMEM@BCDropOpt2?$AA@		; `string'
PUBLIC	??_C@_0M@HCLGMMFB@BCDropLuck2?$AA@		; `string'
PUBLIC	??_C@_0N@OIGBCPLB@BCDropSkill2?$AA@		; `string'
PUBLIC	??_C@_0N@NMEFONDP@BCDropLevel2?$AA@		; `string'
PUBLIC	??_C@_09MLIKEJFJ@BCDropID2?$AA@			; `string'
PUBLIC	??_C@_0M@BAPBHENN@BCDropType2?$AA@		; `string'
PUBLIC	??_C@_0BB@CCDLPMHN@BCAllowPKPlayer1?$AA@	; `string'
PUBLIC	??_C@_0O@FPFHJDJB@BCDropAncOpt1?$AA@		; `string'
PUBLIC	??_C@_0O@NPBDDEJP@BCDropExcOpt1?$AA@		; `string'
PUBLIC	??_C@_0L@FADPAPIP@BCDropOpt1?$AA@		; `string'
PUBLIC	??_C@_0M@FJJLJPJC@BCDropLuck1?$AA@		; `string'
PUBLIC	??_C@_0N@MDEMHMHC@BCDropSkill1?$AA@		; `string'
PUBLIC	??_C@_0N@PHGILOPM@BCDropLevel1?$AA@		; `string'
PUBLIC	??_C@_09OAKHBKJK@BCDropID1?$AA@			; `string'
PUBLIC	??_C@_0M@DLNMCHBO@BCDropType1?$AA@		; `string'
PUBLIC	??_C@_0BA@DHNLFKEC@CCRewardLevelUp?$AA@		; `string'
PUBLIC	??_C@_0BA@JJLDMLND@BCRewardLevelUp?$AA@		; `string'
PUBLIC	??_C@_0BA@GIDEMEIM@BCAllowPKPlayer?$AA@		; `string'
PUBLIC	??_C@_0N@DMFJJAD@BCDropAncOpt?$AA@		; `string'
PUBLIC	??_C@_0N@CCAFFMJG@BCDropExcOpt?$AA@		; `string'
PUBLIC	??_C@_09GLKALDEK@BCDropOpt?$AA@			; `string'
PUBLIC	??_C@_0L@HJHMIFEG@BCDropLuck?$AA@		; `string'
PUBLIC	??_C@_0M@BBCMNDMH@BCDropSkill?$AA@		; `string'
PUBLIC	??_C@_0M@FLDHKBKO@BCDropLevel?$AA@		; `string'
PUBLIC	??_C@_08CDCNIEDA@BCDropID?$AA@			; `string'
PUBLIC	??_C@_0M@EAAIBIKA@BloodCastle?$AA@		; `string'
PUBLIC	??_C@_0L@ODNJNGBK@BCDropType?$AA@		; `string'
PUBLIC	??_C@_0N@IELNPJCL@ItDropAncOpt?$AA@		; `string'
PUBLIC	??_C@_0N@KFHNDMLO@ItDropExcOpt?$AA@		; `string'
PUBLIC	??_C@_09NJBAOFKG@ItDropOpt?$AA@			; `string'
PUBLIC	??_C@_0L@NAHCJLED@ItDropLuck?$AA@		; `string'
PUBLIC	??_C@_0M@GBOPCJFG@ItDropSkill?$AA@		; `string'
PUBLIC	??_C@_0M@CLPEFLDP@ItDropLevel?$AA@		; `string'
PUBLIC	??_C@_08COHAEAIJ@ItDropID?$AA@			; `string'
PUBLIC	??_C@_0L@EKNHMIBP@ItDropType?$AA@		; `string'
PUBLIC	??_C@_0P@MKNNBBHA@IllusionTemple?$AA@		; `string'
PUBLIC	??_C@_0N@DIJFKDPN@ItMinPlayers?$AA@		; `string'
PUBLIC	??_C@_0BK@GDGHCGII@?4?4?2Data?2ZtData?2Events?4ini?$AA@ ; `string'
PUBLIC	??_C@_0O@OMDLJIIP@GensColorBlue?$AA@		; `string'
PUBLIC	??_C@_0P@FJJBAMMP@GensColorGreen?$AA@		; `string'
PUBLIC	??_C@_0N@GJKDHDBG@GensColorRed?$AA@		; `string'
PUBLIC	??_C@_0BA@JLFAEIBB@GensColorEnable?$AA@		; `string'
PUBLIC	??_C@_0O@GEIEBGDA@AdminPostName?$AA@		; `string'
PUBLIC	??_C@_03EBMOLPEO@?1gg?$AA@			; `string'
PUBLIC	??_C@_09FDPGKJIB@MoneyType?$AA@			; `string'
PUBLIC	??_C@_0M@LDFBDLDI@PostPCPoint?$AA@		; `string'
PUBLIC	??_C@_0P@HABGNHDN@PkClearCredits?$AA@		; `string'
PUBLIC	??_C@_0M@OGBNAHMP@PKClearType?$AA@		; `string'
PUBLIC	??_C@_0N@JGEOMKLM@PkClearMoney?$AA@		; `string'
PUBLIC	??_C@_0N@LFLKJINM@PkClearLevel?$AA@		; `string'
PUBLIC	??_C@_07DOAOMMKG@Enabled?$AA@			; `string'
PUBLIC	??_C@_0O@ICHAGEJN@AddPointLevel?$AA@		; `string'
PUBLIC	??_C@_0M@FLIEHIPP@AddPriceZen?$AA@		; `string'
PUBLIC	??_C@_0L@PJEJJPCD@PostServer?$AA@		; `string'
PUBLIC	??_C@_09BPEAKGKL@PostDelay?$AA@			; `string'
PUBLIC	??_C@_09KBJPHKHD@PostColor?$AA@			; `string'
PUBLIC	??_C@_09MIBFFENF@PostPrist?$AA@			; `string'
PUBLIC	??_C@_07JMLJGMOM@?$FLpost?$FN?3?$AA@		; `string'
PUBLIC	??_C@_09NPPPIPJF@PostMoney?$AA@			; `string'
PUBLIC	??_C@_09PMALNNPF@PostLevel?$AA@			; `string'
PUBLIC	??_C@_07MLKAJEJD@PkClear?$AA@			; `string'
PUBLIC	??_C@_0M@MLICEIGI@PkClearName?$AA@		; `string'
PUBLIC	??_C@_08OLBJHFEG@?1pkclear?$AA@			; `string'
PUBLIC	??_C@_07HIBHDECO@CmdName?$AA@			; `string'
PUBLIC	??_C@_04BCEBBOAK@?1cmd?$AA@			; `string'
PUBLIC	??_C@_07EEMMPEJB@EneName?$AA@			; `string'
PUBLIC	??_C@_04CMHHMOMO@?1ene?$AA@			; `string'
PUBLIC	??_C@_07LLNFCNOJ@VitName?$AA@			; `string'
PUBLIC	??_C@_04DIENADCK@?1vit?$AA@			; `string'
PUBLIC	??_C@_07CCNMHPMD@AgiName?$AA@			; `string'
PUBLIC	??_C@_04HBCNBK@?1agi?$AA@			; `string'
PUBLIC	??_C@_0L@JFFLHCAL@AddCommand?$AA@		; `string'
PUBLIC	??_C@_07CDGFDNJO@StrName?$AA@			; `string'
PUBLIC	??_C@_04ENDHGELN@?1str?$AA@			; `string'
PUBLIC	??_C@_04HPGPEKIH@Post?$AA@			; `string'
PUBLIC	??_C@_08BDIACMIO@PostName?$AA@			; `string'
PUBLIC	??_C@_05DPLEIENO@?1post?$AA@			; `string'
PUBLIC	??_C@_0BM@KMKNOAKM@?4?4?2Data?2ZtData?2Commands?4ini?$AA@ ; `string'
PUBLIC	??_C@_0BI@MJOCMMBI@AEAttackDamageEnergyMax?$AA@	; `string'
PUBLIC	??_C@_0BI@NLGJCIHH@AEAttackDamageEnergyMin?$AA@	; `string'
PUBLIC	??_C@_0BK@DPACDBAJ@AEAttackDamageVitalityMax?$AA@ ; `string'
PUBLIC	??_C@_0BK@CNIJNFGG@AEAttackDamageVitalityMin?$AA@ ; `string'
PUBLIC	??_C@_0BL@BOJOCMNJ@AEAttackDamageDexterityMax?$AA@ ; `string'
PUBLIC	??_C@_0BL@MBFMILG@AEAttackDamageDexterityMin?$AA@ ; `string'
PUBLIC	??_C@_0BK@NNKLCMIM@AEAttackDamageStrengthMax?$AA@ ; `string'
PUBLIC	??_C@_0BK@MPCAMIOD@AEAttackDamageStrengthMin?$AA@ ; `string'
PUBLIC	??_C@_0BD@NGDMFPLJ@RFPvPAttackRateDiv?$AA@	; `string'
PUBLIC	??_C@_0BF@GKCEFGDC@RFPvPAttackRateFact2?$AA@	; `string'
PUBLIC	??_C@_0BF@EBAJAFPB@RFPvPAttackRateFact1?$AA@	; `string'
PUBLIC	??_C@_0BD@MFPLFOJL@SUPvPAttackRateDiv?$AA@	; `string'
PUBLIC	??_C@_0BF@LKJBDDED@SUPvPAttackRateFact2?$AA@	; `string'
PUBLIC	??_C@_0BF@JBLMGAIA@SUPvPAttackRateFact1?$AA@	; `string'
PUBLIC	??_C@_0BF@IAOIOBCG@DLPvPAttackRateFact2?$AA@	; `string'
PUBLIC	??_C@_0BF@KLMFLCOF@DLPvPAttackRateFact1?$AA@	; `string'
PUBLIC	??_C@_0BD@GJLDEEJM@MGPvPAttackRateDiv?$AA@	; `string'
PUBLIC	??_C@_0BF@ILCPALG@MGPvPAttackRateFact2?$AA@	; `string'
PUBLIC	??_C@_0BF@CDJPKDHF@MGPvPAttackRateFact1?$AA@	; `string'
PUBLIC	??_C@_0BD@GFMGDCJK@EEPvPAttackRateDiv?$AA@	; `string'
PUBLIC	??_C@_0BF@OHIOIPEM@EEPvPAttackRateFact2?$AA@	; `string'
PUBLIC	??_C@_0BF@MMKDNMIP@EEPvPAttackRateFact1?$AA@	; `string'
PUBLIC	??_C@_0BF@FCFMNBHL@DWPvPAttackRateFact2?$AA@	; `string'
PUBLIC	??_C@_0BF@HJHBICLI@DWPvPAttackRateFact1?$AA@	; `string'
PUBLIC	??_C@_0BD@KLAJKAEL@DKPvPAttackRateDiv?$AA@	; `string'
PUBLIC	??_C@_0BF@GBKMEHLF@DKPvPAttackRateFact2?$AA@	; `string'
PUBLIC	??_C@_0BF@EKIBBEHG@DKPvPAttackRateFact1?$AA@	; `string'
PUBLIC	??_C@_0BF@FALIENJF@CWElfAlterDMGPercent?$AA@	; `string'
PUBLIC	??_C@_0P@NCKHGKEG@BerserkAddMana?$AA@		; `string'
PUBLIC	??_C@_0BF@NLHHHFNI@DLSkillDMGPercentMax?$AA@	; `string'
PUBLIC	??_C@_0BF@DKDDNDEL@DKSkillDMGPercentMax?$AA@	; `string'
PUBLIC	??_C@_0BC@BAEFKHHM@DamageMax_VitLeft?$AA@	; `string'
PUBLIC	??_C@_0BC@IADGLHJG@DamageMin_VitLeft?$AA@	; `string'
PUBLIC	??_C@_0BD@EDFMHHNJ@DamageMax_VitRight?$AA@	; `string'
PUBLIC	??_C@_0M@BKNIILFP@RageFighter?$AA@		; `string'
PUBLIC	??_C@_0BD@DBDAPKP@DamageMin_VitRight?$AA@	; `string'
PUBLIC	??_C@_07PEDPFCGC@Defense?$AA@			; `string'
PUBLIC	??_C@_0BD@OCEADDEC@SuccessfulBlocking?$AA@	; `string'
PUBLIC	??_C@_0P@CLAFNACP@MagicDamageMin?$AA@		; `string'
PUBLIC	??_C@_0P@DJIODEEA@MagicDamageMax?$AA@		; `string'
PUBLIC	??_C@_09PCICNBOE@Dark_Lord?$AA@			; `string'
PUBLIC	??_C@_0M@CJAMKEGP@Dark_Wizard?$AA@		; `string'
PUBLIC	??_C@_08HLBMEKKE@Summoner?$AA@			; `string'
PUBLIC	??_C@_0BC@HPCPGOOO@DamageMin_EneLeft?$AA@	; `string'
PUBLIC	??_C@_0BC@OPFMHOAE@DamageMax_EneLeft?$AA@	; `string'
PUBLIC	??_C@_0BD@FNDCOPHI@DamageMin_EneRight?$AA@	; `string'
PUBLIC	??_C@_0BD@BNHNJHAO@DamageMax_EneRight?$AA@	; `string'
PUBLIC	??_C@_0BA@IPLGPKDA@Magic_Gladiator?$AA@		; `string'
PUBLIC	??_C@_0BC@BIIGKHOB@DamageMin_StrLeft?$AA@	; `string'
PUBLIC	??_C@_0BC@IIPFLHAL@DamageMax_StrLeft?$AA@	; `string'
PUBLIC	??_C@_0BD@MNOKFLCA@DamageMin_StrRight?$AA@	; `string'
PUBLIC	??_C@_0M@MNCPOEBE@Dark_Knight?$AA@		; `string'
PUBLIC	??_C@_0BD@INKFCDFG@DamageMax_StrRight?$AA@	; `string'
PUBLIC	??_C@_0BF@PBOHAMNC@DamageMin_DexStrLeft?$AA@	; `string'
PUBLIC	??_C@_0BF@NGFMGLOD@DamageMax_DexStrLeft?$AA@	; `string'
PUBLIC	??_C@_0BG@HCNDFLJN@DamageMin_DexStrRight?$AA@	; `string'
PUBLIC	??_C@_0BG@CDCKOAMA@DamageMax_DexStrRight?$AA@	; `string'
PUBLIC	??_C@_0BI@MAMADLME@DamageMin_NoBow_DexLeft?$AA@	; `string'
PUBLIC	??_C@_0BI@NGIMLHOK@DamageMin_NoBow_StrLeft?$AA@	; `string'
PUBLIC	??_C@_0BI@JDGGCDCA@DamageMax_NoBow_DexLeft?$AA@	; `string'
PUBLIC	??_C@_0BI@IFCKKPAO@DamageMax_NoBow_StrLeft?$AA@	; `string'
PUBLIC	??_C@_0BJ@IGDGMJPL@DamageMin_NoBow_DexRight?$AA@ ; `string'
PUBLIC	??_C@_0BJ@FKPGIILI@DamageMin_NoBow_StrRight?$AA@ ; `string'
PUBLIC	??_C@_0BJ@CBACEJIC@DamageMax_NoBow_DexRight?$AA@ ; `string'
PUBLIC	??_C@_0BJ@PNMCAIMB@DamageMax_NoBow_StrRight?$AA@ ; `string'
PUBLIC	??_C@_0BJ@CNDLEJGO@DamageMin_Bow_StrDexLeft?$AA@ ; `string'
PUBLIC	??_C@_0BJ@IKAPMJBH@DamageMax_Bow_StrDexLeft?$AA@ ; `string'
PUBLIC	??_C@_0BK@LANIHIHP@DamageMin_Bow_StrDexRight?$AA@ ; `string'
PUBLIC	??_C@_09DIFEFNGC@Fairy_Elf?$AA@			; `string'
PUBLIC	??_C@_0BK@JJKGIFGH@DamageMax_Bow_StrDexRight?$AA@ ; `string'
PUBLIC	??_C@_0BK@FKMBAABH@SoulBarrierAttackManaDown?$AA@ ; `string'
PUBLIC	??_C@_0BD@ILDLACFI@ComboDamagePercent?$AA@	; `string'
PUBLIC	??_C@_0BB@FNNJAMED@ReflectToReflect?$AA@	; `string'
PUBLIC	??_C@_0BH@KAHNGFMD@CastleDamageByAlliance?$AA@	; `string'
PUBLIC	??_C@_08KHNFHHOB@MaxStats?$AA@			; `string'
PUBLIC	??_C@_0BI@IPAIFD@PetCastleAttackByPlayer?$AA@	; `string'
PUBLIC	??_C@_0BF@DMHPGJA@PetCastleAttackByNPC?$AA@	; `string'
PUBLIC	??_C@_0BF@JAHKLENK@CastleAttackByPlayer?$AA@	; `string'
PUBLIC	??_C@_0BC@PPFCPJN@CastleAttackByNPC?$AA@	; `string'
PUBLIC	??_C@_0BH@OHMFFPBI@CastleSiegeSkillEnable?$AA@	; `string'
PUBLIC	??_C@_06POMJKEPM@Common?$AA@			; `string'
PUBLIC	??_C@_09MINFMDAF@NeedArrow?$AA@			; `string'
PUBLIC	??_C@_0BN@KOHJPEHI@?4?4?2Data?2ZtData?2Character?4ini?$AA@ ; `string'
PUBLIC	??_C@_0N@LLPFBELB@ExpPartyPlus?$AA@		; `string'
PUBLIC	??_C@_0BB@HCCLEKCI@AllianceMaxGuild?$AA@	; `string'
PUBLIC	??_C@_0N@MPBFAGDG@GuildMaxUser?$AA@		; `string'
PUBLIC	??_C@_0BD@KBAOACND@BloodCastleMaxUser?$AA@	; `string'
PUBLIC	??_C@_0N@BGKKOBGO@NorItemLevel?$AA@		; `string'
PUBLIC	??_C@_0N@NPEDLNMM@NorItemLimit?$AA@		; `string'
PUBLIC	??_C@_0BC@DMKDJAEC@MembItemWareLimit?$AA@	; `string'
PUBLIC	??_C@_0BB@OHOCANAI@MembItemMixLimit?$AA@	; `string'
PUBLIC	??_C@_0O@OBLFKLCB@MembItemLimit?$AA@		; `string'
PUBLIC	??_C@_0N@KBOKNHMN@Ringstrength?$AA@		; `string'
PUBLIC	??_C@_0BB@OLCPBPLP@DevilSqueryCount?$AA@	; `string'
PUBLIC	??_C@_0BB@NMLFGMHD@BloodCastleCount?$AA@	; `string'
PUBLIC	??_C@_0BD@NMMBGEC@DurabilityMaxCount?$AA@	; `string'
PUBLIC	??_C@_0BB@PIKGNFJI@DurabilityEnable?$AA@	; `string'
PUBLIC	??_C@_0BE@OMLJFHBO@CheckOtherGuildLand?$AA@	; `string'
PUBLIC	??_C@_0P@NBNCCEMG@MarlonTeleport?$AA@		; `string'
PUBLIC	??_C@_0M@KFFOANIE@PotionDelay?$AA@		; `string'
PUBLIC	??_C@_0BH@PCNOGLEL@NoobBuffDefencePercent?$AA@	; `string'
PUBLIC	??_C@_0BG@IIMIEODH@NoobBuffDamagePercent?$AA@	; `string'
PUBLIC	??_C@_0BB@GDDGHPJM@NoobBuffMaxReset?$AA@	; `string'
PUBLIC	??_C@_0P@NHEJBOPE@NoobBuffEnable?$AA@		; `string'
PUBLIC	??_C@_0P@DALCDAPN@PercentKillZen?$AA@		; `string'
PUBLIC	??_C@_0M@DCDMAILA@ExlDropRate?$AA@		; `string'
PUBLIC	??_C@_09HEEKJFKJ@ReConnect?$AA@			; `string'
PUBLIC	??_C@_09BMIDEEAO@ArenaItem?$AA@			; `string'
PUBLIC	??_C@_0BB@MCHIAFN@CommandSetLeader?$AA@		; `string'
PUBLIC	??_C@_0O@EFBFEMGF@AutoSetLeader?$AA@		; `string'
PUBLIC	??_C@_0M@IOKCPMBJ@RePartyTime?$AA@		; `string'
PUBLIC	??_C@_0O@PCMHEGFB@RePartyEnable?$AA@		; `string'
PUBLIC	??_C@_0BE@CFNMLIBO@CountItemDropErohim?$AA@	; `string'
PUBLIC	??_C@_0BE@CBEBGMCE@CountItemDropKundun?$AA@	; `string'
PUBLIC	??_C@_0BF@CDBGPNPC@CountItemDropSelupan?$AA@	; `string'
PUBLIC	??_C@_0P@FPJLLCEA@ProcentDropZen?$AA@		; `string'
PUBLIC	??_C@_0L@DLHIOEAJ@MaxDropZen?$AA@		; `string'
PUBLIC	??_C@_0BB@OHNOBAOE@MarlonQuestReset?$AA@	; `string'
PUBLIC	??_C@_0BC@JONOACBC@DisatanceObjViewe?$AA@	; `string'
PUBLIC	??_C@_0O@JCJOCALP@KundunAncDrop?$AA@		; `string'
PUBLIC	??_C@_05LICMIJMM@Guard?$AA@			; `string'
PUBLIC	??_C@_0N@GAKPJHLA@GuardMessage?$AA@		; `string'
PUBLIC	??_C@_0BE@CDCKDDPK@Welcome?5to?5Ex?9Games?$AA@	; `string'
PUBLIC	??_C@_0O@DIFEKECK@MasterDropZen?$AA@		; `string'
PUBLIC	??_C@_0BE@EJDHFDGH@Wing5MaxSuccessRate?$AA@	; `string'
PUBLIC	??_C@_0BE@OHFPMCPG@Wing4MaxSuccessRate?$AA@	; `string'
PUBLIC	??_C@_0BG@PAGEHNCK@Wing2_5MaxSuccessRate?$AA@	; `string'
PUBLIC	??_C@_0BA@EJDEHLBF@DinorantMixRate?$AA@		; `string'
PUBLIC	??_C@_0BF@PLBFDKPB@WingLv3MixMaxPercent?$AA@	; `string'
PUBLIC	??_C@_0BN@HCIIKEKG@FeatherofCondorMixMaxPercent?$AA@ ; `string'
PUBLIC	??_C@_0BJ@GACBIDHJ@DarkSpiritMixSuccessRate?$AA@ ; `string'
PUBLIC	??_C@_0BI@GCJANFMA@DarkHorseMixSuccessRate?$AA@	; `string'
PUBLIC	??_C@_0BE@LEMOKLBC@Wing2MaxSuccessRate?$AA@	; `string'
PUBLIC	??_C@_0BC@HBJMIEIB@MixMaxSuccessRate?$AA@	; `string'
PUBLIC	??_C@_0BC@OMCNANPE@MixLuckOptRateAdd?$AA@	; `string'
PUBLIC	??_C@_0BH@FBDPHOOK@MixSocket15SuccessRate?$AA@	; `string'
PUBLIC	??_C@_0BK@MLCJJPOM@Mix380AncExc15SuccessRate?$AA@ ; `string'
PUBLIC	??_C@_0BH@DOLHJBNM@MixNormal15SuccessRate?$AA@	; `string'
PUBLIC	??_C@_0BH@IMKJKHGP@MixSocket14SuccessRate?$AA@	; `string'
PUBLIC	??_C@_0BK@BGLPEGGJ@Mix380AncExc14SuccessRate?$AA@ ; `string'
PUBLIC	??_C@_0BH@ODCBEIFJ@MixNormal14SuccessRate?$AA@	; `string'
PUBLIC	??_C@_0BH@PBNKKBDH@MixSocket13SuccessRate?$AA@	; `string'
PUBLIC	??_C@_0BK@GLMMEADB@Mix380AncExc13SuccessRate?$AA@ ; `string'
PUBLIC	??_C@_0BH@JOFCEOAB@MixNormal13SuccessRate?$AA@	; `string'
PUBLIC	??_C@_0BH@CMEMHILC@MixSocket12SuccessRate?$AA@	; `string'
PUBLIC	??_C@_0BK@LGFKJJLE@Mix380AncExc12SuccessRate?$AA@ ; `string'
PUBLIC	??_C@_0BH@EDMEJHIE@MixNormal12SuccessRate?$AA@	; `string'
PUBLIC	??_C@_0BH@JBIGBEHM@MixSocket11SuccessRate?$AA@	; `string'
PUBLIC	??_C@_0BK@LJAPFHK@Mix380AncExc11SuccessRate?$AA@ ; `string'
PUBLIC	??_C@_0BH@POAOPLEK@MixNormal11SuccessRate?$AA@	; `string'
PUBLIC	??_C@_0BH@EMBAMNPJ@MixSocket10SuccessRate?$AA@	; `string'
PUBLIC	??_C@_0BK@NGAGCMPP@Mix380AncExc10SuccessRate?$AA@ ; `string'
PUBLIC	??_C@_0BH@CDJICCMP@MixNormal10SuccessRate?$AA@	; `string'
PUBLIC	??_C@_0L@BAKJPIHJ@DeleteLogs?$AA@		; `string'
PUBLIC	??_C@_0L@FGHOFJAN@PersonalID?$AA@		; `string'
PUBLIC	??_C@_08BPDKCIGK@CheckSum?$AA@			; `string'
PUBLIC	??_C@_0BK@LPKPDKGD@?4?4?2Data?2ZtData?2Common?4ini?$AA@ ; `string'
PUBLIC	??_C@_08BFKFNBGC@MaxLevel?$AA@			; `string'
PUBLIC	??_C@_0P@CCLLNAEF@MultiWarehouse?$AA@		; `string'
PUBLIC	??_C@_0L@PHGOHEFN@DonateShop?$AA@		; `string'
PUBLIC	??_C@_08KNIMID@PostItem?$AA@			; `string'
PUBLIC	??_C@_0BD@KMKHPDOP@DivFireScreamSpeed?$AA@	; `string'
PUBLIC	??_C@_0N@JDNGCJM@MasterSkills?$AA@		; `string'
PUBLIC	??_C@_09PCFKOPAI@DLReflect?$AA@			; `string'
PUBLIC	??_C@_0BA@JHMAKOGB@CreateMONKLevel?$AA@		; `string'
PUBLIC	??_C@_0P@LCDIEJDJ@CreateSUMLevel?$AA@		; `string'
PUBLIC	??_C@_0O@MPPNBNCE@CreateDLLevel?$AA@		; `string'
PUBLIC	??_C@_0O@NCLFFCPF@CreateMGLevel?$AA@		; `string'
PUBLIC	??_C@_0M@ICCLDJIL@EnableHPBar?$AA@		; `string'
PUBLIC	??_C@_0BA@FACLGDII@ClientAntiCheat?$AA@		; `string'
PUBLIC	??_C@_0BE@LBCOHCJL@MoveTargetPosEffect?$AA@	; `string'
PUBLIC	??_C@_06GMDPMMC@Top100?$AA@			; `string'
PUBLIC	??_C@_09EGDCOCMF@AutoParty?$AA@			; `string'
PUBLIC	??_C@_0BD@MAJIDFMA@HelperClickerLevel?$AA@	; `string'
PUBLIC	??_C@_06CNKIADGI@ZtTeam?$AA@			; `string'
PUBLIC	??_C@_0L@FCEPFPBL@SwitchChar?$AA@		; `string'
PUBLIC	??_C@_0BM@FGLABAKE@?4?4?2Data?2ZtData?2ZtCustom?4ini?$AA@ ; `string'
PUBLIC	__$ArrayPad$
PUBLIC	?LoadConfigs@cZtConfigs@@QAEX_N@Z		; cZtConfigs::LoadConfigs
EXTRN	?gObjCalCharacter@@YAXH@Z:PROC			; gObjCalCharacter
EXTRN	?gObj@@3PAUOBJECTSTRUCT@@A:DWORD		; gObj
EXTRN	_fclose:PROC
EXTRN	_sscanf:PROC
EXTRN	?Zt_IsBadFileLine@@YA_NPADAAH@Z:PROC		; Zt_IsBadFileLine
EXTRN	_fgets:PROC
EXTRN	_feof:PROC
EXTRN	__imp__ExitProcess@4:PROC
EXTRN	__imp__MessageBoxA@16:PROC
EXTRN	_fopen:PROC
EXTRN	__imp__GetPrivateProfileStringA@24:PROC
EXTRN	__imp__GetPrivateProfileIntA@16:PROC
EXTRN	?Load@CMarriage@@QAEXXZ:PROC			; CMarriage::Load
EXTRN	?g_Marriage@@3VCMarriage@@A:BYTE		; g_Marriage
EXTRN	?Load@ComboCustom@@QAEXXZ:PROC			; ComboCustom::Load
EXTRN	?g_ComboCustom@@3VComboCustom@@A:BYTE		; g_ComboCustom
EXTRN	?Load@NewsBoard@@QAEXXZ:PROC			; NewsBoard::Load
EXTRN	?g_NewsBoard@@3VNewsBoard@@A:BYTE		; g_NewsBoard
EXTRN	?Load@cPandoraBoxEvent@@QAEXXZ:PROC		; cPandoraBoxEvent::Load
EXTRN	?gPandoraBoxEvent@@3VcPandoraBoxEvent@@A:BYTE	; gPandoraBoxEvent
EXTRN	?Load@Brotherhood@@QAEXXZ:PROC			; Brotherhood::Load
EXTRN	?gBrotherhood@@3VBrotherhood@@A:BYTE		; gBrotherhood
EXTRN	?Load@cAlertSystem@@QAEXXZ:PROC			; cAlertSystem::Load
EXTRN	?AlertSystem@@3VcAlertSystem@@A:BYTE		; AlertSystem
EXTRN	?Load@PartyBonus@@QAEXXZ:PROC			; PartyBonus::Load
EXTRN	?gPartyBonus@@3VPartyBonus@@A:BYTE		; gPartyBonus
EXTRN	?Load@cMonsterSpawner@@QAEXXZ:PROC		; cMonsterSpawner::Load
EXTRN	?gMonsterSpawner@@3VcMonsterSpawner@@A:BYTE	; gMonsterSpawner
EXTRN	?LoadConfigs@CDeviasBattle@@QAEXXZ:PROC		; CDeviasBattle::LoadConfigs
EXTRN	?g_DeviasBattle@@3VCDeviasBattle@@A:BYTE	; g_DeviasBattle
EXTRN	?LoadConfigs@cLoraBattle@@QAEXXZ:PROC		; cLoraBattle::LoadConfigs
EXTRN	?LoraBattle@@3VcLoraBattle@@A:BYTE		; LoraBattle
EXTRN	?Load@cCustomNpc@@QAEXXZ:PROC			; cCustomNpc::Load
EXTRN	?gCustomNpc@@3VcCustomNpc@@A:BYTE		; gCustomNpc
EXTRN	?Init@cBossRewardItem@@QAEXXZ:PROC		; cBossRewardItem::Init
EXTRN	?gBossRewardItem@@3VcBossRewardItem@@A:BYTE	; gBossRewardItem
EXTRN	?Load@cWingsDamage@@QAEXXZ:PROC			; cWingsDamage::Load
EXTRN	?gWingsDamage@@3VcWingsDamage@@A:BYTE		; gWingsDamage
EXTRN	?Load@CChaosCastleRewardItem@@QAEXXZ:PROC	; CChaosCastleRewardItem::Load
EXTRN	?gChaosCastleRewardItem@@3VCChaosCastleRewardItem@@A:BYTE ; gChaosCastleRewardItem
EXTRN	?Load@cBloodCastleRewardItem@@QAEXXZ:PROC	; cBloodCastleRewardItem::Load
EXTRN	?gBloodCastleRewardItem@@3VcBloodCastleRewardItem@@A:BYTE ; gBloodCastleRewardItem
EXTRN	?Load@cDevilSquareRewardItem@@QAEXXZ:PROC	; cDevilSquareRewardItem::Load
EXTRN	?gDevilSquareRewardItem@@3VcDevilSquareRewardItem@@A:BYTE ; gDevilSquareRewardItem
EXTRN	?Load@cCalculatorManager@@QAEXXZ:PROC		; cCalculatorManager::Load
EXTRN	?CalculatorManager@@3VcCalculatorManager@@A:BYTE ; CalculatorManager
EXTRN	?Load@cBalanceSystem@@QAEXXZ:PROC		; cBalanceSystem::Load
EXTRN	?gBalanceSystem@@3VcBalanceSystem@@A:BYTE	; gBalanceSystem
EXTRN	?Load@cGrandHero@@QAEXXZ:PROC			; cGrandHero::Load
EXTRN	?GrandHero@@3VcGrandHero@@A:BYTE		; GrandHero
EXTRN	?Load@cTvTEvent@@QAEXXZ:PROC			; cTvTEvent::Load
EXTRN	?TvT@@3VcTvTEvent@@A:BYTE			; TvT
EXTRN	?Load@MonsterQuest@@QAEXXZ:PROC			; MonsterQuest::Load
EXTRN	?gMonsterQuest@@3VMonsterQuest@@A:BYTE		; gMonsterQuest
EXTRN	?Load@MixOption@@QAEXXZ:PROC			; MixOption::Load
EXTRN	?g_MixOption@@3VMixOption@@A:BYTE		; g_MixOption
EXTRN	?Init@cChaosMixManager@@QAEXXZ:PROC		; cChaosMixManager::Init
EXTRN	?ChaosMixManager@@3VcChaosMixManager@@A:BYTE	; ChaosMixManager
EXTRN	?Load@cMonsterBonus@@QAEXXZ:PROC		; cMonsterBonus::Load
EXTRN	?gMonsterBonus@@3VcMonsterBonus@@A:BYTE		; gMonsterBonus
EXTRN	?LoadTimer@cEventTimer@@QAEXXZ:PROC		; cEventTimer::LoadTimer
EXTRN	?gEventTimer@@3VcEventTimer@@A:BYTE		; gEventTimer
EXTRN	?Load@cMaxPower@@QAEXXZ:PROC			; cMaxPower::Load
EXTRN	?gMaxPower@@3VcMaxPower@@A:BYTE			; gMaxPower
EXTRN	?Load@cTeleportManager@@QAEXXZ:PROC		; cTeleportManager::Load
EXTRN	?gTeleportManager@@3VcTeleportManager@@A:BYTE	; gTeleportManager
EXTRN	?Load@cExclusiveOptions@@QAEXXZ:PROC		; cExclusiveOptions::Load
EXTRN	?gExclusiveOptions@@3VcExclusiveOptions@@A:BYTE	; gExclusiveOptions
EXTRN	?Init@cWinQuestSystem@@QAEXXZ:PROC		; cWinQuestSystem::Init
EXTRN	?gWinQuestSystem@@3VcWinQuestSystem@@A:BYTE	; gWinQuestSystem
EXTRN	?Load@cCreditDonate@@QAEXXZ:PROC		; cCreditDonate::Load
EXTRN	?gCreditDonate@@3VcCreditDonate@@A:BYTE		; gCreditDonate
EXTRN	?Init@Voter@@QAEXXZ:PROC			; Voter::Init
EXTRN	?gVoter@@3VVoter@@A:BYTE			; gVoter
EXTRN	?Load@JewelsBank@@QAEXXZ:PROC			; JewelsBank::Load
EXTRN	?gJewelsBank@@3VJewelsBank@@A:BYTE		; gJewelsBank
EXTRN	?Load@OnlineBonus@@QAEXXZ:PROC			; OnlineBonus::Load
EXTRN	?gOnlineBonus@@3VOnlineBonus@@A:BYTE		; gOnlineBonus
EXTRN	?Load@cNewJewels@@QAEXXZ:PROC			; cNewJewels::Load
EXTRN	?gNewJewels@@3VcNewJewels@@A:BYTE		; gNewJewels
EXTRN	?Init@CItemDropManager@@QAEXXZ:PROC		; CItemDropManager::Init
EXTRN	?gItemDropManager@@3VCItemDropManager@@A:BYTE	; gItemDropManager
EXTRN	?Load@cBlockMoveItem@@QAEXXZ:PROC		; cBlockMoveItem::Load
EXTRN	?gBlockMoveIteml@@3VcBlockMoveItem@@A:BYTE	; gBlockMoveIteml
EXTRN	?Load@cSystemOfRage@@QAEXXZ:PROC		; cSystemOfRage::Load
EXTRN	?gSystemOfRage@@3VcSystemOfRage@@A:BYTE		; gSystemOfRage
EXTRN	?CheckUser@CZtLicense@@QAE_NH@Z:PROC		; CZtLicense::CheckUser
EXTRN	?Loader@PremiumSystem@@QAEXXZ:PROC		; PremiumSystem::Loader
EXTRN	?Premium@@3VPremiumSystem@@A:BYTE		; Premium
EXTRN	?LoadingEvent@cSearchEvent@@QAEXXZ:PROC		; cSearchEvent::LoadingEvent
EXTRN	?SearchEvent@@3VcSearchEvent@@A:BYTE		; SearchEvent
EXTRN	?LoadFile@cDropEvent@@QAEXXZ:PROC		; cDropEvent::LoadFile
EXTRN	?DropEvent@@3VcDropEvent@@A:BYTE		; DropEvent
EXTRN	?LoadConfig@cPriceManager@@QAEXXZ:PROC		; cPriceManager::LoadConfig
EXTRN	?PriceManager@@3VcPriceManager@@A:BYTE		; PriceManager
EXTRN	?LoadConfig@cPvPMapSystem@@QAEXXZ:PROC		; cPvPMapSystem::LoadConfig
EXTRN	?PvPMapSystem@@3VcPvPMapSystem@@A:BYTE		; PvPMapSystem
EXTRN	?LoadConfig@cMapExp@@QAEXXZ:PROC		; cMapExp::LoadConfig
EXTRN	?gMapExp@@3VcMapExp@@A:BYTE			; gMapExp
EXTRN	?LoadConfig@cDropZenManager@@QAEXXZ:PROC	; cDropZenManager::LoadConfig
EXTRN	?DropZenManager@@3VcDropZenManager@@A:BYTE	; DropZenManager
EXTRN	?Loader@cZtQuest@@QAEXXZ:PROC			; cZtQuest::Loader
EXTRN	?ZtQuestSystem@@3VcZtQuest@@A:BYTE		; ZtQuestSystem
EXTRN	?Load@cOffTrade@@QAEXXZ:PROC			; cOffTrade::Load
EXTRN	?gOffTrade@@3VcOffTrade@@A:BYTE			; gOffTrade
EXTRN	?LoadConfig@cHappyHour@@QAEXXZ:PROC		; cHappyHour::LoadConfig
EXTRN	?HappyHour@@3VcHappyHour@@A:BYTE		; HappyHour
EXTRN	?Load@cGrandReset@@QAEXXZ:PROC			; cGrandReset::Load
EXTRN	?gGrandReset@@3VcGrandReset@@A:BYTE		; gGrandReset
EXTRN	?LoadConfig@cOffExp@@QAEXXZ:PROC		; cOffExp::LoadConfig
EXTRN	?OffExp@@3VcOffExp@@A:BYTE			; OffExp
EXTRN	?Load@cResetSystem@@QAEXXZ:PROC			; cResetSystem::Load
EXTRN	?gResetSystem@@3VcResetSystem@@A:BYTE		; gResetSystem
EXTRN	?ReedConfig@cBloodHound@@QAEXXZ:PROC		; cBloodHound::ReedConfig
EXTRN	?BloodHound@@3VcBloodHound@@A:BYTE		; BloodHound
EXTRN	?g_ZtLicense@@3VCZtLicense@@A:BYTE		; g_ZtLicense
EXTRN	?Load@TeleportShop@@QAEXXZ:PROC			; TeleportShop::Load
EXTRN	?g_TeleportShop@@3VTeleportShop@@A:BYTE		; g_TeleportShop
EXTRN	?Load@CSmithy@@QAEXXZ:PROC			; CSmithy::Load
EXTRN	?g_Smithy@@3VCSmithy@@A:BYTE			; g_Smithy
EXTRN	?Load@CUserConfig@@QAEXXZ:PROC			; CUserConfig::Load
EXTRN	?g_UserConfig@@3VCUserConfig@@A:BYTE		; g_UserConfig
EXTRN	___security_cookie:DWORD
EXTRN	@__security_check_cookie@4:PROC
;	COMDAT ??_C@_0BE@FEKBLFNH@NewBuffPartyDefence?$AA@
; File e:\work\tranet_version\gs\gameserver\configs.cpp
CONST	SEGMENT
??_C@_0BE@FEKBLFNH@NewBuffPartyDefence?$AA@ DB 'NewBuffPartyDefence', 00H ; `string'
CONST	ENDS
;	COMDAT ??_C@_0BD@HIJCBDHI@NewBuffPartyDamage?$AA@
CONST	SEGMENT
??_C@_0BD@HIJCBDHI@NewBuffPartyDamage?$AA@ DB 'NewBuffPartyDamage', 00H ; `string'
CONST	ENDS
;	COMDAT ??_C@_0BG@DGGLLPMG@NewBuffPartyMembCount?$AA@
CONST	SEGMENT
??_C@_0BG@DGGLLPMG@NewBuffPartyMembCount?$AA@ DB 'NewBuffPartyMembCount', 00H ; `string'
CONST	ENDS
;	COMDAT ??_C@_0BD@PEKDAHBH@NewBuffPartyEnable?$AA@
CONST	SEGMENT
??_C@_0BD@PEKDAHBH@NewBuffPartyEnable?$AA@ DB 'NewBuffPartyEnable', 00H ; `string'
CONST	ENDS
;	COMDAT ??_C@_0BE@HGOKOEGD@NewBuffGuildDefence?$AA@
CONST	SEGMENT
??_C@_0BE@HGOKOEGD@NewBuffGuildDefence?$AA@ DB 'NewBuffGuildDefence', 00H ; `string'
CONST	ENDS
;	COMDAT ??_C@_0BD@DBNFBOMO@NewBuffGuildDamage?$AA@
CONST	SEGMENT
??_C@_0BD@DBNFBOMO@NewBuffGuildDamage?$AA@ DB 'NewBuffGuildDamage', 00H ; `string'
CONST	ENDS
;	COMDAT ??_C@_0BH@HCIGDAG@NewBuffGuildMembOnline?$AA@
CONST	SEGMENT
??_C@_0BH@HCIGDAG@NewBuffGuildMembOnline?$AA@ DB 'NewBuffGuildMembOnline', 00H ; `string'
CONST	ENDS
;	COMDAT ??_C@_0BD@LNOEAKKB@NewBuffGuildEnable?$AA@
CONST	SEGMENT
??_C@_0BD@LNOEAKKB@NewBuffGuildEnable?$AA@ DB 'NewBuffGuildEnable', 00H ; `string'
CONST	ENDS
;	COMDAT ??_C@_0BG@PICBNOIL@NewBuffPremiumDefence?$AA@
CONST	SEGMENT
??_C@_0BG@PICBNOIL@NewBuffPremiumDefence?$AA@ DB 'NewBuffPremiumDefence', 00H ; `string'
CONST	ENDS
;	COMDAT ??_C@_0BF@EEAAAPFD@NewBuffPremiumDamage?$AA@
CONST	SEGMENT
??_C@_0BF@EEAAAPFD@NewBuffPremiumDamage?$AA@ DB 'NewBuffPremiumDamage', 00H ; `string'
CONST	ENDS
;	COMDAT ??_C@_0BF@MIDBBLDM@NewBuffPremiumEnable?$AA@
CONST	SEGMENT
??_C@_0BF@MIDBBLDM@NewBuffPremiumEnable?$AA@ DB 'NewBuffPremiumEnable', 00H ; `string'
CONST	ENDS
;	COMDAT ??_C@_0BL@DOCLALOP@?4?4?2Data?2ZtData?2NewBuff?4ini?$AA@
CONST	SEGMENT
??_C@_0BL@DOCLALOP@?4?4?2Data?2ZtData?2NewBuff?4ini?$AA@ DB '..\Data\ZtDa'
	DB	'ta\NewBuff.ini', 00H			; `string'
CONST	ENDS
;	COMDAT ??_C@_04MJOIBMDI@RF_Y?$AA@
CONST	SEGMENT
??_C@_04MJOIBMDI@RF_Y?$AA@ DB 'RF_Y', 00H		; `string'
CONST	ENDS
;	COMDAT ??_C@_04NAPDCNHJ@RF_X?$AA@
CONST	SEGMENT
??_C@_04NAPDCNHJ@RF_X?$AA@ DB 'RF_X', 00H		; `string'
CONST	ENDS
;	COMDAT ??_C@_0M@OEIIMLMI@RF_MapStart?$AA@
CONST	SEGMENT
??_C@_0M@OEIIMLMI@RF_MapStart?$AA@ DB 'RF_MapStart', 00H ; `string'
CONST	ENDS
;	COMDAT ??_C@_04EJPFJOHO@DL_Y?$AA@
CONST	SEGMENT
??_C@_04EJPFJOHO@DL_Y?$AA@ DB 'DL_Y', 00H		; `string'
CONST	ENDS
;	COMDAT ??_C@_04FAOOKPDP@DL_X?$AA@
CONST	SEGMENT
??_C@_04FAOOKPDP@DL_X?$AA@ DB 'DL_X', 00H		; `string'
CONST	ENDS
;	COMDAT ??_C@_0M@OFACNLFA@DL_MapStart?$AA@
CONST	SEGMENT
??_C@_0M@OFACNLFA@DL_MapStart?$AA@ DB 'DL_MapStart', 00H ; `string'
CONST	ENDS
;	COMDAT ??_C@_04JDOEHLAO@MG_Y?$AA@
CONST	SEGMENT
??_C@_04JDOEHLAO@MG_Y?$AA@ DB 'MG_Y', 00H		; `string'
CONST	ENDS
;	COMDAT ??_C@_04IKPPEKEP@MG_X?$AA@
CONST	SEGMENT
??_C@_04IKPPEKEP@MG_X?$AA@ DB 'MG_X', 00H		; `string'
CONST	ENDS
;	COMDAT ??_C@_0M@FLIKGGIF@MG_MapStart?$AA@
CONST	SEGMENT
??_C@_0M@FLIKGGIF@MG_MapStart?$AA@ DB 'MG_MapStart', 00H ; `string'
CONST	ENDS
;	COMDAT ??_C@_04LGCEMNPJ@SU_Y?$AA@
CONST	SEGMENT
??_C@_04LGCEMNPJ@SU_Y?$AA@ DB 'SU_Y', 00H		; `string'
CONST	ENDS
;	COMDAT ??_C@_04KPDPPMLI@SU_X?$AA@
CONST	SEGMENT
??_C@_04KPDPPMLI@SU_X?$AA@ DB 'SU_X', 00H		; `string'
CONST	ENDS
;	COMDAT ??_C@_0M@EIDJCFGN@SU_MapStart?$AA@
CONST	SEGMENT
??_C@_0M@EIDJCFGN@SU_MapStart?$AA@ DB 'SU_MapStart', 00H ; `string'
CONST	ENDS
;	COMDAT ??_C@_04JJNPIEE@EE_Y?$AA@
CONST	SEGMENT
??_C@_04JJNPIEE@EE_Y?$AA@ DB 'EE_Y', 00H		; `string'
CONST	ENDS
;	COMDAT ??_C@_04BAIGMJAF@EE_X?$AA@
CONST	SEGMENT
??_C@_04BAIGMJAF@EE_X?$AA@ DB 'EE_X', 00H		; `string'
CONST	ENDS
;	COMDAT ??_C@_0M@FOKKJLK@EE_MapStart?$AA@
CONST	SEGMENT
??_C@_0M@FOKKJLK@EE_MapStart?$AA@ DB 'EE_MapStart', 00H	; `string'
CONST	ENDS
;	COMDAT ??_C@_04NECCKGMH@DK_Y?$AA@
CONST	SEGMENT
??_C@_04NECCKGMH@DK_Y?$AA@ DB 'DK_Y', 00H		; `string'
CONST	ENDS
;	COMDAT ??_C@_04MNDJJHIG@DK_X?$AA@
CONST	SEGMENT
??_C@_04MNDJJHIG@DK_X?$AA@ DB 'DK_X', 00H		; `string'
CONST	ENDS
;	COMDAT ??_C@_0M@MMDJMOND@DK_MapStart?$AA@
CONST	SEGMENT
??_C@_0M@MMDJMOND@DK_MapStart?$AA@ DB 'DK_MapStart', 00H ; `string'
CONST	ENDS
;	COMDAT ??_C@_04MOONEOOA@DW_Y?$AA@
CONST	SEGMENT
??_C@_04MOONEOOA@DW_Y?$AA@ DB 'DW_Y', 00H		; `string'
CONST	ENDS
;	COMDAT ??_C@_04NHPGHPKB@DW_X?$AA@
CONST	SEGMENT
??_C@_04NHPGHPKB@DW_X?$AA@ DB 'DW_X', 00H		; `string'
CONST	ENDS
;	COMDAT ??_C@_0M@GINFJINP@DW_MapStart?$AA@
CONST	SEGMENT
??_C@_0M@GINFJINP@DW_MapStart?$AA@ DB 'DW_MapStart', 00H ; `string'
CONST	ENDS
;	COMDAT ??_C@_0BM@IKFOIIJL@?4?4?2Data?2ZtData?2MapStart?4ini?$AA@
CONST	SEGMENT
??_C@_0BM@IKFOIIJL@?4?4?2Data?2ZtData?2MapStart?4ini?$AA@ DB '..\Data\ZtD'
	DB	'ata\MapStart.ini', 00H			; `string'
CONST	ENDS
;	COMDAT ??_C@_0BH@HMPFPJHA@TeleportMapForDieMap51?$AA@
CONST	SEGMENT
??_C@_0BH@HMPFPJHA@TeleportMapForDieMap51?$AA@ DB 'TeleportMapForDieMap51'
	DB	00H						; `string'
CONST	ENDS
;	COMDAT ??_C@_0BH@GECMKCAG@TeleportMapForDieMap40?$AA@
CONST	SEGMENT
??_C@_0BH@GECMKCAG@TeleportMapForDieMap40?$AA@ DB 'TeleportMapForDieMap40'
	DB	00H						; `string'
CONST	ENDS
;	COMDAT ??_C@_0BG@FDOFJEDH@TeleportMapForDieMap6?$AA@
CONST	SEGMENT
??_C@_0BG@FDOFJEDH@TeleportMapForDieMap6?$AA@ DB 'TeleportMapForDieMap6', 00H ; `string'
CONST	ENDS
;	COMDAT ??_C@_0BK@EBLBDIHE@?4?4?2Data?2ZtData?2MapDie?4ini?$AA@
CONST	SEGMENT
??_C@_0BK@EBLBDIHE@?4?4?2Data?2ZtData?2MapDie?4ini?$AA@ DB '..\Data\ZtDat'
	DB	'a\MapDie.ini', 00H				; `string'
CONST	ENDS
;	COMDAT ??_C@_08NDNCIGJE@Class3rd?$AA@
CONST	SEGMENT
??_C@_08NDNCIGJE@Class3rd?$AA@ DB 'Class3rd', 00H	; `string'
CONST	ENDS
;	COMDAT ??_C@_08GLGOOBPB@Class2rd?$AA@
CONST	SEGMENT
??_C@_08GLGOOBPB@Class2rd?$AA@ DB 'Class2rd', 00H	; `string'
CONST	ENDS
;	COMDAT ??_C@_06MOPANJOH@Marlon?$AA@
CONST	SEGMENT
??_C@_06MOPANJOH@Marlon?$AA@ DB 'Marlon', 00H		; `string'
CONST	ENDS
;	COMDAT ??_C@_06INNNFHKM@Master?$AA@
CONST	SEGMENT
??_C@_06INNNFHKM@Master?$AA@ DB 'Master', 00H		; `string'
CONST	ENDS
;	COMDAT ??_C@_0O@PKHMODMN@RfLevelPoints?$AA@
CONST	SEGMENT
??_C@_0O@PKHMODMN@RfLevelPoints?$AA@ DB 'RfLevelPoints', 00H ; `string'
CONST	ENDS
;	COMDAT ??_C@_0O@FOFDPCDB@DlLevelPoints?$AA@
CONST	SEGMENT
??_C@_0O@FOFDPCDB@DlLevelPoints?$AA@ DB 'DlLevelPoints', 00H ; `string'
CONST	ENDS
;	COMDAT ??_C@_0O@BHMMLCNC@MgLevelPoints?$AA@
CONST	SEGMENT
??_C@_0O@BHMMLCNC@MgLevelPoints?$AA@ DB 'MgLevelPoints', 00H ; `string'
CONST	ENDS
;	COMDAT ??_C@_0P@CMJAHKBN@SumLevelPoints?$AA@
CONST	SEGMENT
??_C@_0P@CMJAHKBN@SumLevelPoints?$AA@ DB 'SumLevelPoints', 00H ; `string'
CONST	ENDS
;	COMDAT ??_C@_0P@GFCFENCP@ElfLevelPoints?$AA@
CONST	SEGMENT
??_C@_0P@GFCFENCP@ElfLevelPoints?$AA@ DB 'ElfLevelPoints', 00H ; `string'
CONST	ENDS
;	COMDAT ??_C@_0O@NJNOLEI@DwLevelPoints?$AA@
CONST	SEGMENT
??_C@_0O@NJNOLEI@DwLevelPoints?$AA@ DB 'DwLevelPoints', 00H ; `string'
CONST	ENDS
;	COMDAT ??_C@_0O@CDCAPEGJ@DkLevelPoints?$AA@
CONST	SEGMENT
??_C@_0O@CDCAPEGJ@DkLevelPoints?$AA@ DB 'DkLevelPoints', 00H ; `string'
CONST	ENDS
;	COMDAT ??_C@_0BP@DGHOKCPO@?4?4?2Data?2ZtData?2AddPointLvl?4ini?$AA@
CONST	SEGMENT
??_C@_0BP@DGHOKCPO@?4?4?2Data?2ZtData?2AddPointLvl?4ini?$AA@ DB '..\Data\'
	DB	'ZtData\AddPointLvl.ini', 00H		; `string'
CONST	ENDS
;	COMDAT ??_C@_05OKMLJOMC@?$CFd?5?$CFd?$AA@
CONST	SEGMENT
??_C@_05OKMLJOMC@?$CFd?5?$CFd?$AA@ DB '%d %d', 00H	; `string'
CONST	ENDS
;	COMDAT ??_C@_0BA@PIOFNAIM@LOAD?5FILE?5ERROR?$AA@
CONST	SEGMENT
??_C@_0BA@PIOFNAIM@LOAD?5FILE?5ERROR?$AA@ DB 'LOAD FILE ERROR', 00H ; `string'
CONST	ENDS
;	COMDAT ??_C@_01KDCPPGHE@r?$AA@
CONST	SEGMENT
??_C@_01KDCPPGHE@r?$AA@ DB 'r', 00H			; `string'
CONST	ENDS
;	COMDAT ??_C@_0BF@KHLDLEHL@CountErohimItemsDrop?$AA@
CONST	SEGMENT
??_C@_0BF@KHLDLEHL@CountErohimItemsDrop?$AA@ DB 'CountErohimItemsDrop', 00H ; `string'
CONST	ENDS
;	COMDAT ??_C@_0BF@BCJHLFDK@CountKundumItemsDrop?$AA@
CONST	SEGMENT
??_C@_0BF@BCJHLFDK@CountKundumItemsDrop?$AA@ DB 'CountKundumItemsDrop', 00H ; `string'
CONST	ENDS
;	COMDAT ??_C@_08LEBLPLCH@ExpMinus?$AA@
CONST	SEGMENT
??_C@_08LEBLPLCH@ExpMinus?$AA@ DB 'ExpMinus', 00H	; `string'
CONST	ENDS
;	COMDAT ??_C@_04PABHPHAJ@Gold?$AA@
CONST	SEGMENT
??_C@_04PABHPHAJ@Gold?$AA@ DB 'Gold', 00H		; `string'
CONST	ENDS
;	COMDAT ??_C@_06BONGPKIK@Silver?$AA@
CONST	SEGMENT
??_C@_06BONGPKIK@Silver?$AA@ DB 'Silver', 00H		; `string'
CONST	ENDS
;	COMDAT ??_C@_0M@DPJHHJHF@PartySystem?$AA@
CONST	SEGMENT
??_C@_0M@DPJHHJHF@PartySystem?$AA@ DB 'PartySystem', 00H ; `string'
CONST	ENDS
;	COMDAT ??_C@_0BC@OIHKJNFL@PartySystemEnable?$AA@
CONST	SEGMENT
??_C@_0BC@OIHKJNFL@PartySystemEnable?$AA@ DB 'PartySystemEnable', 00H ; `string'
CONST	ENDS
;	COMDAT ??_C@_0L@LMHNIDEG@GMKillMapY?$AA@
CONST	SEGMENT
??_C@_0L@LMHNIDEG@GMKillMapY?$AA@ DB 'GMKillMapY', 00H	; `string'
CONST	ENDS
;	COMDAT ??_C@_0L@KFGGLCAH@GMKillMapX?$AA@
CONST	SEGMENT
??_C@_0L@KFGGLCAH@GMKillMapX?$AA@ DB 'GMKillMapX', 00H	; `string'
CONST	ENDS
;	COMDAT ??_C@_05PDFHKAHB@GMMap?$AA@
CONST	SEGMENT
??_C@_05PDFHKAHB@GMMap?$AA@ DB 'GMMap', 00H		; `string'
CONST	ENDS
;	COMDAT ??_C@_09JLHLFOB@GMKillMap?$AA@
CONST	SEGMENT
??_C@_09JLHLFOB@GMKillMap?$AA@ DB 'GMKillMap', 00H	; `string'
CONST	ENDS
;	COMDAT ??_C@_0BB@CGPMFCOB@FloodProtectTime?$AA@
CONST	SEGMENT
??_C@_0BB@CGPMFCOB@FloodProtectTime?$AA@ DB 'FloodProtectTime', 00H ; `string'
CONST	ENDS
;	COMDAT ??_C@_0M@FDPCIMFD@FloodInPost?$AA@
CONST	SEGMENT
??_C@_0M@FDPCIMFD@FloodInPost?$AA@ DB 'FloodInPost', 00H ; `string'
CONST	ENDS
;	COMDAT ??_C@_0BD@IIGIBBFK@IsPostFloodProtect?$AA@
CONST	SEGMENT
??_C@_0BD@IIGIBBFK@IsPostFloodProtect?$AA@ DB 'IsPostFloodProtect', 00H ; `string'
CONST	ENDS
;	COMDAT ??_C@_0BA@HJHGGKGC@ErohimItemsDrop?$AA@
CONST	SEGMENT
??_C@_0BA@HJHGGKGC@ErohimItemsDrop?$AA@ DB 'ErohimItemsDrop', 00H ; `string'
CONST	ENDS
;	COMDAT ??_C@_09CMLILGNK@ItemsDrop?$AA@
CONST	SEGMENT
??_C@_09CMLILGNK@ItemsDrop?$AA@ DB 'ItemsDrop', 00H	; `string'
CONST	ENDS
;	COMDAT ??_C@_0BA@MMFCGLCD@KundumItemsDrop?$AA@
CONST	SEGMENT
??_C@_0BA@MMFCGLCD@KundumItemsDrop?$AA@ DB 'KundumItemsDrop', 00H ; `string'
CONST	ENDS
;	COMDAT ??_C@_0CA@CPBLOJFD@?4?4?2Data?2ZtData?2dryneaConfig?4ini?$AA@
CONST	SEGMENT
??_C@_0CA@CPBLOJFD@?4?4?2Data?2ZtData?2dryneaConfig?4ini?$AA@ DB '..\Data'
	DB	'\ZtData\dryneaConfig.ini', 00H		; `string'
CONST	ENDS
;	COMDAT ??_C@_0BB@JOFKNJGG@VitalityToLifeRF?$AA@
CONST	SEGMENT
??_C@_0BB@JOFKNJGG@VitalityToLifeRF?$AA@ DB 'VitalityToLifeRF', 00H ; `string'
CONST	ENDS
;	COMDAT ??_C@_0M@IFOGKLEF@LevelLifeRF?$AA@
CONST	SEGMENT
??_C@_0M@IFOGKLEF@LevelLifeRF?$AA@ DB 'LevelLifeRF', 00H ; `string'
CONST	ENDS
;	COMDAT ??_C@_0BC@EHEENFLA@VitalityToLifeSUM?$AA@
CONST	SEGMENT
??_C@_0BC@EHEENFLA@VitalityToLifeSUM?$AA@ DB 'VitalityToLifeSUM', 00H ; `string'
CONST	ENDS
;	COMDAT ??_C@_0N@OFDIBILA@LevelLifeSUM?$AA@
CONST	SEGMENT
??_C@_0N@OFDIBILA@LevelLifeSUM?$AA@ DB 'LevelLifeSUM', 00H ; `string'
CONST	ENDS
;	COMDAT ??_C@_0BB@HMBOOOCO@VitalityToLifeDL?$AA@
CONST	SEGMENT
??_C@_0BB@HMBOOOCO@VitalityToLifeDL?$AA@ DB 'VitalityToLifeDL', 00H ; `string'
CONST	ENDS
;	COMDAT ??_C@_0M@GHKCJMAN@LevelLifeDL?$AA@
CONST	SEGMENT
??_C@_0M@GHKCJMAN@LevelLifeDL?$AA@ DB 'LevelLifeDL', 00H ; `string'
CONST	ENDS
;	COMDAT ??_C@_0BB@JADLAMGK@VitalityToLifeMG?$AA@
CONST	SEGMENT
??_C@_0BB@JADLAMGK@VitalityToLifeMG?$AA@ DB 'VitalityToLifeMG', 00H ; `string'
CONST	ENDS
;	COMDAT ??_C@_0M@ILIHHOEJ@LevelLifeMG?$AA@
CONST	SEGMENT
??_C@_0M@ILIHHOEJ@LevelLifeMG?$AA@ DB 'LevelLifeMG', 00H ; `string'
CONST	ENDS
;	COMDAT ??_C@_0BC@MCDFJMMH@VitalityToLifeELF?$AA@
CONST	SEGMENT
??_C@_0BC@MCDFJMMH@VitalityToLifeELF?$AA@ DB 'VitalityToLifeELF', 00H ; `string'
CONST	ENDS
;	COMDAT ??_C@_0N@GAEJFBMH@LevelLifeELF?$AA@
CONST	SEGMENT
??_C@_0N@GAEJFBMH@LevelLifeELF?$AA@ DB 'LevelLifeELF', 00H ; `string'
CONST	ENDS
;	COMDAT ??_C@_0BB@DDFPHIOJ@VitalityToLifeDK?$AA@
CONST	SEGMENT
??_C@_0BB@DDFPHIOJ@VitalityToLifeDK?$AA@ DB 'VitalityToLifeDK', 00H ; `string'
CONST	ENDS
;	COMDAT ??_C@_0M@CIODAKMK@LevelLifeDK?$AA@
CONST	SEGMENT
??_C@_0M@CIODAKMK@LevelLifeDK?$AA@ DB 'LevelLifeDK', 00H ; `string'
CONST	ENDS
;	COMDAT ??_C@_0BB@HMGMGKJK@VitalityToLifeSM?$AA@
CONST	SEGMENT
??_C@_0BB@HMGMGKJK@VitalityToLifeSM?$AA@ DB 'VitalityToLifeSM', 00H ; `string'
CONST	ENDS
;	COMDAT ??_C@_07GNAIBKOG@MaxLife?$AA@
CONST	SEGMENT
??_C@_07GNAIBKOG@MaxLife?$AA@ DB 'MaxLife', 00H		; `string'
CONST	ENDS
;	COMDAT ??_C@_0M@GHNABILJ@LevelLifeSM?$AA@
CONST	SEGMENT
??_C@_0M@GHNABILJ@LevelLifeSM?$AA@ DB 'LevelLifeSM', 00H ; `string'
CONST	ENDS
;	COMDAT ??_C@_09NCEFHIOD@Fortitude?$AA@
CONST	SEGMENT
??_C@_09NCEFHIOD@Fortitude?$AA@ DB 'Fortitude', 00H	; `string'
CONST	ENDS
;	COMDAT ??_C@_02GACNOJIN@BK?$AA@
CONST	SEGMENT
??_C@_02GACNOJIN@BK?$AA@ DB 'BK', 00H			; `string'
CONST	ENDS
;	COMDAT ??_C@_09KLNDOCNC@ComboBase?$AA@
CONST	SEGMENT
??_C@_09KLNDOCNC@ComboBase?$AA@ DB 'ComboBase', 00H	; `string'
CONST	ENDS
;	COMDAT ??_C@_0P@KINOHHEI@OffDecreaseDur?$AA@
CONST	SEGMENT
??_C@_0P@KINOHHEI@OffDecreaseDur?$AA@ DB 'OffDecreaseDur', 00H ; `string'
CONST	ENDS
;	COMDAT ??_C@_0L@ICIPIMOB@IncPercent?$AA@
CONST	SEGMENT
??_C@_0L@ICIPIMOB@IncPercent?$AA@ DB 'IncPercent', 00H	; `string'
CONST	ENDS
;	COMDAT ??_C@_0L@LBPLDKBB@DecPercent?$AA@
CONST	SEGMENT
??_C@_0L@LBPLDKBB@DecPercent?$AA@ DB 'DecPercent', 00H	; `string'
CONST	ENDS
;	COMDAT ??_C@_0BA@CKCFCJNP@AttackDamageMax?$AA@
CONST	SEGMENT
??_C@_0BA@CKCFCJNP@AttackDamageMax?$AA@ DB 'AttackDamageMax', 00H ; `string'
CONST	ENDS
;	COMDAT ??_C@_0BA@DIKOMNLA@AttackDamageMin?$AA@
CONST	SEGMENT
??_C@_0BA@DIKOMNLA@AttackDamageMin?$AA@ DB 'AttackDamageMin', 00H ; `string'
CONST	ENDS
;	COMDAT ??_C@_07IOCAHHAN@AddMana?$AA@
CONST	SEGMENT
??_C@_07IOCAHHAN@AddMana?$AA@ DB 'AddMana', 00H		; `string'
CONST	ENDS
;	COMDAT ??_C@_07BMILOCOO@AddLife?$AA@
CONST	SEGMENT
??_C@_07BMILOCOO@AddLife?$AA@ DB 'AddLife', 00H		; `string'
CONST	ENDS
;	COMDAT ??_C@_0BE@FDGOFHPP@DiapasonMasterMoney?$AA@
CONST	SEGMENT
??_C@_0BE@FDGOFHPP@DiapasonMasterMoney?$AA@ DB 'DiapasonMasterMoney', 00H ; `string'
CONST	ENDS
;	COMDAT ??_C@_09MMCIGBFH@MasterZen?$AA@
CONST	SEGMENT
??_C@_09MMCIGBFH@MasterZen?$AA@ DB 'MasterZen', 00H	; `string'
CONST	ENDS
;	COMDAT ??_C@_0M@CLMNLHID@MasterMoney?$AA@
CONST	SEGMENT
??_C@_0M@CLMNLHID@MasterMoney?$AA@ DB 'MasterMoney', 00H ; `string'
CONST	ENDS
;	COMDAT ??_C@_0CB@GGFIJGAD@?4?4?2Data?2ZtData?2PrideMuConfig?4ini@
CONST	SEGMENT
??_C@_0CB@GGFIJGAD@?4?4?2Data?2ZtData?2PrideMuConfig?4ini@ DB '..\Data\Zt'
	DB	'Data\PrideMuConfig.ini', 00H		; `string'
CONST	ENDS
;	COMDAT ??_C@_03PDAOPOAJ@GmY?$AA@
CONST	SEGMENT
??_C@_03PDAOPOAJ@GmY?$AA@ DB 'GmY', 00H			; `string'
CONST	ENDS
;	COMDAT ??_C@_03OKBFMPEI@GmX?$AA@
CONST	SEGMENT
??_C@_03OKBFMPEI@GmX?$AA@ DB 'GmX', 00H			; `string'
CONST	ENDS
;	COMDAT ??_C@_05DCJGIPHF@GmMap?$AA@
CONST	SEGMENT
??_C@_05DCJGIPHF@GmMap?$AA@ DB 'GmMap', 00H		; `string'
CONST	ENDS
;	COMDAT ??_C@_0BJ@LEEACENA@?4?4?2Data?2ZtData?2GmMap?4ini?$AA@
CONST	SEGMENT
??_C@_0BJ@LEEACENA@?4?4?2Data?2ZtData?2GmMap?4ini?$AA@ DB '..\Data\ZtData'
	DB	'\GmMap.ini', 00H				; `string'
CONST	ENDS
;	COMDAT ??_C@_0M@MEOEHJII@SearchEvent?$AA@
CONST	SEGMENT
??_C@_0M@MEOEHJII@SearchEvent?$AA@ DB 'SearchEvent', 00H ; `string'
CONST	ENDS
;	COMDAT ??_C@_0CK@PKJPGHPM@?$FLSearch?5Event?$FN?5Event?5Start?5For?5?$CF@
CONST	SEGMENT
??_C@_0CK@PKJPGHPM@?$FLSearch?5Event?$FN?5Event?5Start?5For?5?$CF@ DB '[S'
	DB	'earch Event] Event Start For %d Minutes', 00H ; `string'
CONST	ENDS
;	COMDAT ??_C@_09JMDHGKGF@DropEvent?$AA@
CONST	SEGMENT
??_C@_09JMDHGKGF@DropEvent?$AA@ DB 'DropEvent', 00H	; `string'
CONST	ENDS
;	COMDAT ??_C@_0CI@JCKJNPEA@?$FLDrop?5Event?$FN?5Event?5Start?5For?5?$CFd?5@
CONST	SEGMENT
??_C@_0CI@JCKJNPEA@?$FLDrop?5Event?$FN?5Event?5Start?5For?5?$CFd?5@ DB '['
	DB	'Drop Event] Event Start For %d Minutes', 00H ; `string'
CONST	ENDS
;	COMDAT ??_C@_0O@LIFHJMIC@MessageConfig?$AA@
CONST	SEGMENT
??_C@_0O@LIFHJMIC@MessageConfig?$AA@ DB 'MessageConfig', 00H ; `string'
CONST	ENDS
;	COMDAT ??_C@_09PCOABNJK@HappyHour?$AA@
CONST	SEGMENT
??_C@_09PCOABNJK@HappyHour?$AA@ DB 'HappyHour', 00H	; `string'
CONST	ENDS
;	COMDAT ??_C@_0CI@GOEPAOAJ@?$FLHappy?5Hour?$FN?5Event?5Start?5For?5?$CFd?5@
CONST	SEGMENT
??_C@_0CI@GOEPAOAJ@?$FLHappy?5Hour?$FN?5Event?5Start?5For?5?$CFd?5@ DB '['
	DB	'Happy Hour] Event Start For %d Minutes', 00H ; `string'
CONST	ENDS
;	COMDAT ??_C@_0CB@NNPBLLBF@?4?4?2Data?2ZtData?2MessageConfig?4ini@
CONST	SEGMENT
??_C@_0CB@NNPBLLBF@?4?4?2Data?2ZtData?2MessageConfig?4ini@ DB '..\Data\Zt'
	DB	'Data\MessageConfig.ini', 00H		; `string'
CONST	ENDS
;	COMDAT ??_C@_0N@KIIAEHLD@ShowZtCredit?$AA@
CONST	SEGMENT
??_C@_0N@KIIAEHLD@ShowZtCredit?$AA@ DB 'ShowZtCredit', 00H ; `string'
CONST	ENDS
;	COMDAT ??_C@_06LGONOADE@ShowGP?$AA@
CONST	SEGMENT
??_C@_06LGONOADE@ShowGP?$AA@ DB 'ShowGP', 00H		; `string'
CONST	ENDS
;	COMDAT ??_C@_0L@DOBIGPHK@ShowWcoinC?$AA@
CONST	SEGMENT
??_C@_0L@DOBIGPHK@ShowWcoinC?$AA@ DB 'ShowWcoinC', 00H	; `string'
CONST	ENDS
;	COMDAT ??_C@_09JAPKFKFH@ShowGMAll?$AA@
CONST	SEGMENT
??_C@_09JAPKFKFH@ShowGMAll?$AA@ DB 'ShowGMAll', 00H	; `string'
CONST	ENDS
;	COMDAT ??_C@_0O@EINGOGBE@ShowNameColor?$AA@
CONST	SEGMENT
??_C@_0O@EINGOGBE@ShowNameColor?$AA@ DB 'ShowNameColor', 00H ; `string'
CONST	ENDS
;	COMDAT ??_C@_0M@MOLFGNHA@ShowNameAll?$AA@
CONST	SEGMENT
??_C@_0M@MOLFGNHA@ShowNameAll?$AA@ DB 'ShowNameAll', 00H ; `string'
CONST	ENDS
;	COMDAT ??_C@_0L@FCMJFHPJ@ShowOnline?$AA@
CONST	SEGMENT
??_C@_0L@FCMJFHPJ@ShowOnline?$AA@ DB 'ShowOnline', 00H	; `string'
CONST	ENDS
;	COMDAT ??_C@_0L@HPKGMHDD@ShowGReset?$AA@
CONST	SEGMENT
??_C@_0L@HPKGMHDD@ShowGReset?$AA@ DB 'ShowGReset', 00H	; `string'
CONST	ENDS
;	COMDAT ??_C@_09OFLIDOEG@ShowReset?$AA@
CONST	SEGMENT
??_C@_09OFLIDOEG@ShowReset?$AA@ DB 'ShowReset', 00H	; `string'
CONST	ENDS
;	COMDAT ??_C@_06CKGENIKG@Enable?$AA@
CONST	SEGMENT
??_C@_06CKGENIKG@Enable?$AA@ DB 'Enable', 00H		; `string'
CONST	ENDS
;	COMDAT ??_C@_0CB@OMLGHAKM@?4?4?2Data?2ZtData?2PlayerConnect?4ini@
CONST	SEGMENT
??_C@_0CB@OMLGHAKM@?4?4?2Data?2ZtData?2PlayerConnect?4ini@ DB '..\Data\Zt'
	DB	'Data\PlayerConnect.ini', 00H		; `string'
CONST	ENDS
;	COMDAT ??_C@_0BC@CGOLLBCP@GoldenGreatDragon?$AA@
CONST	SEGMENT
??_C@_0BC@CGOLLBCP@GoldenGreatDragon?$AA@ DB 'GoldenGreatDragon', 00H ; `string'
CONST	ENDS
;	COMDAT ??_C@_09OEMFLPMC@countitem?$AA@
CONST	SEGMENT
??_C@_09OEMFLPMC@countitem?$AA@ DB 'countitem', 00H	; `string'
CONST	ENDS
;	COMDAT ??_C@_0L@BHPAMDEK@randlevel3?$AA@
CONST	SEGMENT
??_C@_0L@BHPAMDEK@randlevel3?$AA@ DB 'randlevel3', 00H	; `string'
CONST	ENDS
;	COMDAT ??_C@_0L@OOLPCAL@randlevel2?$AA@
CONST	SEGMENT
??_C@_0L@OOLPCAL@randlevel2?$AA@ DB 'randlevel2', 00H	; `string'
CONST	ENDS
;	COMDAT ??_C@_0L@CFMGKBMI@randlevel1?$AA@
CONST	SEGMENT
??_C@_0L@CFMGKBMI@randlevel1?$AA@ DB 'randlevel1', 00H	; `string'
CONST	ENDS
;	COMDAT ??_C@_0N@HHBMKNLD@GoldenDragon?$AA@
CONST	SEGMENT
??_C@_0N@HHBMKNLD@GoldenDragon?$AA@ DB 'GoldenDragon', 00H ; `string'
CONST	ENDS
;	COMDAT ??_C@_0M@MMGMILNL@GoldenNapin?$AA@
CONST	SEGMENT
??_C@_0M@MMGMILNL@GoldenNapin?$AA@ DB 'GoldenNapin', 00H ; `string'
CONST	ENDS
;	COMDAT ??_C@_0BB@OONOPKFI@GoldenIronKnight?$AA@
CONST	SEGMENT
??_C@_0BB@OONOPKFI@GoldenIronKnight?$AA@ DB 'GoldenIronKnight', 00H ; `string'
CONST	ENDS
;	COMDAT ??_C@_0P@EAJKDCOP@GoldenTwinTale?$AA@
CONST	SEGMENT
??_C@_0P@EAJKDCOP@GoldenTwinTale?$AA@ DB 'GoldenTwinTale', 00H ; `string'
CONST	ENDS
;	COMDAT ??_C@_0O@EIIOBDNH@GoldenSatyrus?$AA@
CONST	SEGMENT
??_C@_0O@EIIOBDNH@GoldenSatyrus?$AA@ DB 'GoldenSatyrus', 00H ; `string'
CONST	ENDS
;	COMDAT ??_C@_0M@MBPAFJBI@GoldenCrust?$AA@
CONST	SEGMENT
??_C@_0M@MBPAFJBI@GoldenCrust?$AA@ DB 'GoldenCrust', 00H ; `string'
CONST	ENDS
;	COMDAT ??_C@_0M@GMKLCGPC@GoldenGolem?$AA@
CONST	SEGMENT
??_C@_0M@GMKLCGPC@GoldenGolem?$AA@ DB 'GoldenGolem', 00H ; `string'
CONST	ENDS
;	COMDAT ??_C@_0M@LJEOIGLC@GoldenWheel?$AA@
CONST	SEGMENT
??_C@_0M@LJEOIGLC@GoldenWheel?$AA@ DB 'GoldenWheel', 00H ; `string'
CONST	ENDS
;	COMDAT ??_C@_0P@BINBPBJF@GoldenTantalos?$AA@
CONST	SEGMENT
??_C@_0P@BINBPBJF@GoldenTantalos?$AA@ DB 'GoldenTantalos', 00H ; `string'
CONST	ENDS
;	COMDAT ??_C@_0M@IPCKDDCD@GoldenDevil?$AA@
CONST	SEGMENT
??_C@_0M@IPCKDDCD@GoldenDevil?$AA@ DB 'GoldenDevil', 00H ; `string'
CONST	ENDS
;	COMDAT ??_C@_0M@DOANKBAI@GoldenVepar?$AA@
CONST	SEGMENT
??_C@_0M@DOANKBAI@GoldenVepar?$AA@ DB 'GoldenVepar', 00H ; `string'
CONST	ENDS
;	COMDAT ??_C@_0BB@NNGMMMAH@GoldenLizardKing?$AA@
CONST	SEGMENT
??_C@_0BB@NNGMMMAH@GoldenLizardKing?$AA@ DB 'GoldenLizardKing', 00H ; `string'
CONST	ENDS
;	COMDAT ??_C@_0O@ONGBPJOA@GoldenSoldier?$AA@
CONST	SEGMENT
??_C@_0O@ONGBPJOA@GoldenSoldier?$AA@ DB 'GoldenSoldier', 00H ; `string'
CONST	ENDS
;	COMDAT ??_C@_0M@NPCACHAI@GoldenTitan?$AA@
CONST	SEGMENT
??_C@_0M@NPCACHAI@GoldenTitan?$AA@ DB 'GoldenTitan', 00H ; `string'
CONST	ENDS
;	COMDAT ??_C@_0BB@PMLMCGPG@GoldenDarkKnight?$AA@
CONST	SEGMENT
??_C@_0BB@PMLMCGPG@GoldenDarkKnight?$AA@ DB 'GoldenDarkKnight', 00H ; `string'
CONST	ENDS
;	COMDAT ??_C@_0N@GNJACHAI@GoldenGoblin?$AA@
CONST	SEGMENT
??_C@_0N@GNJACHAI@GoldenGoblin?$AA@ DB 'GoldenGoblin', 00H ; `string'
CONST	ENDS
;	COMDAT ??_C@_0BC@LLLKPALN@GoldenBudgeDragon?$AA@
CONST	SEGMENT
??_C@_0BC@LLLKPALN@GoldenBudgeDragon?$AA@ DB 'GoldenBudgeDragon', 00H ; `string'
CONST	ENDS
;	COMDAT ??_C@_09EBLHEKMK@ItemLevel?$AA@
CONST	SEGMENT
??_C@_09EBLHEKMK@ItemLevel?$AA@ DB 'ItemLevel', 00H	; `string'
CONST	ENDS
;	COMDAT ??_C@_09LCBEKCCJ@ItemIndex?$AA@
CONST	SEGMENT
??_C@_09LCBEKCCJ@ItemIndex?$AA@ DB 'ItemIndex', 00H	; `string'
CONST	ENDS
;	COMDAT ??_C@_06COGLIGFC@Dragon?$AA@
CONST	SEGMENT
??_C@_06COGLIGFC@Dragon?$AA@ DB 'Dragon', 00H		; `string'
CONST	ENDS
;	COMDAT ??_C@_08LJOGMPAO@ItemType?$AA@
CONST	SEGMENT
??_C@_08LJOGMPAO@ItemType?$AA@ DB 'ItemType', 00H	; `string'
CONST	ENDS
;	COMDAT ??_C@_0CN@DJEEGMHO@?4?4?2Data?2ZtData?2Events?2GoldenInva@
CONST	SEGMENT
??_C@_0CN@DJEEGMHO@?4?4?2Data?2ZtData?2Events?2GoldenInva@ DB '..\Data\Zt'
	DB	'Data\Events\GoldenInvasionDrop.ini', 00H	; `string'
CONST	ENDS
;	COMDAT ??_C@_09FEFNOIN@DuelLevel?$AA@
CONST	SEGMENT
??_C@_09FEFNOIN@DuelLevel?$AA@ DB 'DuelLevel', 00H	; `string'
CONST	ENDS
;	COMDAT ??_C@_04EPBLILKF@Duel?$AA@
CONST	SEGMENT
??_C@_04EPBLILKF@Duel?$AA@ DB 'Duel', 00H		; `string'
CONST	ENDS
;	COMDAT ??_C@_04BLOGEDLD@Gate?$AA@
CONST	SEGMENT
??_C@_04BLOGEDLD@Gate?$AA@ DB 'Gate', 00H		; `string'
CONST	ENDS
;	COMDAT ??_C@_07GPOLHHOH@PkLimit?$AA@
CONST	SEGMENT
??_C@_07GPOLHHOH@PkLimit?$AA@ DB 'PkLimit', 00H		; `string'
CONST	ENDS
;	COMDAT ??_C@_02HPIPJOJD@PK?$AA@
CONST	SEGMENT
??_C@_02HPIPJOJD@PK?$AA@ DB 'PK', 00H			; `string'
CONST	ENDS
;	COMDAT ??_C@_09FNHGLBIL@PKPartyOn?$AA@
CONST	SEGMENT
??_C@_09FNHGLBIL@PKPartyOn?$AA@ DB 'PKPartyOn', 00H	; `string'
CONST	ENDS
;	COMDAT ??_C@_0BN@FIOMFOPK@?4?4?2Data?2ZtData?2PvPSystem?4ini?$AA@
CONST	SEGMENT
??_C@_0BN@FIOMFOPK@?4?4?2Data?2ZtData?2PvPSystem?4ini?$AA@ DB '..\Data\Zt'
	DB	'Data\PvPSystem.ini', 00H			; `string'
CONST	ENDS
;	COMDAT ??_C@_0BH@FCABGCKB@RingSkeletonDurability?$AA@
CONST	SEGMENT
??_C@_0BH@FCABGCKB@RingSkeletonDurability?$AA@ DB 'RingSkeletonDurability'
	DB	00H						; `string'
CONST	ENDS
;	COMDAT ??_C@_0BE@MODNLPLG@RingPandaDurability?$AA@
CONST	SEGMENT
??_C@_0BE@MODNLPLG@RingPandaDurability?$AA@ DB 'RingPandaDurability', 00H ; `string'
CONST	ENDS
;	COMDAT ??_C@_0BD@EHLKGHKK@DinorantDurability?$AA@
CONST	SEGMENT
??_C@_0BD@EHLKGHKK@DinorantDurability?$AA@ DB 'DinorantDurability', 00H ; `string'
CONST	ENDS
;	COMDAT ??_C@_0BB@KEGIPMLB@UniriaDurability?$AA@
CONST	SEGMENT
??_C@_0BB@KEGIPMLB@UniriaDurability?$AA@ DB 'UniriaDurability', 00H ; `string'
CONST	ENDS
;	COMDAT ??_C@_0BC@JMNEHPBP@UnicornDurability?$AA@
CONST	SEGMENT
??_C@_0BC@JMNEHPBP@UnicornDurability?$AA@ DB 'UnicornDurability', 00H ; `string'
CONST	ENDS
;	COMDAT ??_C@_0BD@IBJLACMM@SkeletonDurability?$AA@
CONST	SEGMENT
??_C@_0BD@IBJLACMM@SkeletonDurability?$AA@ DB 'SkeletonDurability', 00H ; `string'
CONST	ENDS
;	COMDAT ??_C@_0BA@CKPNOEKM@PandaDurability?$AA@
CONST	SEGMENT
??_C@_0BA@CKPNOEKM@PandaDurability?$AA@ DB 'PandaDurability', 00H ; `string'
CONST	ENDS
;	COMDAT ??_C@_0BD@GLMHAOCA@GuardianDurability?$AA@
CONST	SEGMENT
??_C@_0BD@GLMHAOCA@GuardianDurability?$AA@ DB 'GuardianDurability', 00H ; `string'
CONST	ENDS
;	COMDAT ??_C@_0BA@HLKLPGNP@DemonDurability?$AA@
CONST	SEGMENT
??_C@_0BA@HLKLPGNP@DemonDurability?$AA@ DB 'DemonDurability', 00H ; `string'
CONST	ENDS
;	COMDAT ??_C@_0BA@NIALJKML@SatanDurability?$AA@
CONST	SEGMENT
??_C@_0BA@NIALJKML@SatanDurability?$AA@ DB 'SatanDurability', 00H ; `string'
CONST	ENDS
;	COMDAT ??_C@_0BB@HMPHPBHO@RudolfDurability?$AA@
CONST	SEGMENT
??_C@_0BB@HMPHPBHO@RudolfDurability?$AA@ DB 'RudolfDurability', 00H ; `string'
CONST	ENDS
;	COMDAT ??_C@_0BB@OHAGIPNH@PetDurabilityDiv?$AA@
CONST	SEGMENT
??_C@_0BB@OHAGIPNH@PetDurabilityDiv?$AA@ DB 'PetDurabilityDiv', 00H ; `string'
CONST	ENDS
;	COMDAT ??_C@_0BA@NLFFKPBF@AngelDurability?$AA@
CONST	SEGMENT
??_C@_0BA@NLFFKPBF@AngelDurability?$AA@ DB 'AngelDurability', 00H ; `string'
CONST	ENDS
;	COMDAT ??_C@_0BJ@PNGLHMOF@GoldFenrirProcDurability?$AA@
CONST	SEGMENT
??_C@_0BJ@PNGLHMOF@GoldFenrirProcDurability?$AA@ DB 'GoldFenrirProcDurabi'
	DB	'lity', 00H					; `string'
CONST	ENDS
;	COMDAT ??_C@_0BD@NNICAKBA@GoldFenrirProcLife?$AA@
CONST	SEGMENT
??_C@_0BD@NNICAKBA@GoldFenrirProcLife?$AA@ DB 'GoldFenrirProcLife', 00H ; `string'
CONST	ENDS
;	COMDAT ??_C@_0BF@PPKOKDO@GoldFenrirProcAbsurd?$AA@
CONST	SEGMENT
??_C@_0BF@PPKOKDO@GoldFenrirProcAbsurd?$AA@ DB 'GoldFenrirProcAbsurd', 00H ; `string'
CONST	ENDS
;	COMDAT ??_C@_0BF@NIALAOMG@GoldFenrirProcDamage?$AA@
CONST	SEGMENT
??_C@_0BF@NIALAOMG@GoldFenrirProcDamage?$AA@ DB 'GoldFenrirProcDamage', 00H ; `string'
CONST	ENDS
;	COMDAT ??_C@_0BK@LLKCGAK@BlackFenrirProcDurability?$AA@
CONST	SEGMENT
??_C@_0BK@LLKCGAK@BlackFenrirProcDurability?$AA@ DB 'BlackFenrirProcDurab'
	DB	'ility', 00H					; `string'
CONST	ENDS
;	COMDAT ??_C@_0BE@CKFPCFDG@BlackFenrirProcLife?$AA@
CONST	SEGMENT
??_C@_0BE@CKFPCFDG@BlackFenrirProcLife?$AA@ DB 'BlackFenrirProcLife', 00H ; `string'
CONST	ENDS
;	COMDAT ??_C@_0BG@GHPFKDJO@BlackFenrirProcAbsurd?$AA@
CONST	SEGMENT
??_C@_0BG@GHPFKDJO@BlackFenrirProcAbsurd?$AA@ DB 'BlackFenrirProcAbsurd', 00H ; `string'
CONST	ENDS
;	COMDAT ??_C@_0BG@LAAEEHGG@BlackFenrirProcDamage?$AA@
CONST	SEGMENT
??_C@_0BG@LAAEEHGG@BlackFenrirProcDamage?$AA@ DB 'BlackFenrirProcDamage', 00H ; `string'
CONST	ENDS
;	COMDAT ??_C@_0BJ@HGNDEEEG@BlueFenrirProcDurability?$AA@
CONST	SEGMENT
??_C@_0BJ@HGNDEEEG@BlueFenrirProcDurability?$AA@ DB 'BlueFenrirProcDurabi'
	DB	'lity', 00H					; `string'
CONST	ENDS
;	COMDAT ??_C@_0BD@NBABNGPJ@BlueFenrirProcLife?$AA@
CONST	SEGMENT
??_C@_0BD@NBABNGPJ@BlueFenrirProcLife?$AA@ DB 'BlueFenrirProcLife', 00H ; `string'
CONST	ENDS
;	COMDAT ??_C@_0BF@PCDDAOH@BlueFenrirProcAbsurd?$AA@
CONST	SEGMENT
??_C@_0BF@PCDDAOH@BlueFenrirProcAbsurd?$AA@ DB 'BlueFenrirProcAbsurd', 00H ; `string'
CONST	ENDS
;	COMDAT ??_C@_0BF@NINCNEBP@BlueFenrirProcDamage?$AA@
CONST	SEGMENT
??_C@_0BF@NINCNEBP@BlueFenrirProcDamage?$AA@ DB 'BlueFenrirProcDamage', 00H ; `string'
CONST	ENDS
;	COMDAT ??_C@_0BI@OCEBDAGI@RedFenrirProcDurability?$AA@
CONST	SEGMENT
??_C@_0BI@OCEBDAGI@RedFenrirProcDurability?$AA@ DB 'RedFenrirProcDurabili'
	DB	'ty', 00H					; `string'
CONST	ENDS
;	COMDAT ??_C@_0BC@IGFPMEEP@RedFenrirProcLife?$AA@
CONST	SEGMENT
??_C@_0BC@IGFPMEEP@RedFenrirProcLife?$AA@ DB 'RedFenrirProcLife', 00H ; `string'
CONST	ENDS
;	COMDAT ??_C@_0BE@EOAFBPMP@RedFenrirProcAbsurd?$AA@
CONST	SEGMENT
??_C@_0BE@EOAFBPMP@RedFenrirProcAbsurd?$AA@ DB 'RedFenrirProcAbsurd', 00H ; `string'
CONST	ENDS
;	COMDAT ??_C@_06KAEKLEML@Fenrir?$AA@
CONST	SEGMENT
??_C@_06KAEKLEML@Fenrir?$AA@ DB 'Fenrir', 00H		; `string'
CONST	ENDS
;	COMDAT ??_C@_0BE@JJPEPLDH@RedFenrirProcDamage?$AA@
CONST	SEGMENT
??_C@_0BE@JJPEPLDH@RedFenrirProcDamage?$AA@ DB 'RedFenrirProcDamage', 00H ; `string'
CONST	ENDS
;	COMDAT ??_C@_0BD@JCKJEJIF@SkeletonPetAndRing?$AA@
CONST	SEGMENT
??_C@_0BD@JCKJEJIF@SkeletonPetAndRing?$AA@ DB 'SkeletonPetAndRing', 00H ; `string'
CONST	ENDS
;	COMDAT ??_C@_0M@KAGNIJEL@SkeletonPet?$AA@
CONST	SEGMENT
??_C@_0M@KAGNIJEL@SkeletonPet?$AA@ DB 'SkeletonPet', 00H ; `string'
CONST	ENDS
;	COMDAT ??_C@_0L@DCGNFONO@Experience?$AA@
CONST	SEGMENT
??_C@_0L@DCGNFONO@Experience?$AA@ DB 'Experience', 00H	; `string'
CONST	ENDS
;	COMDAT ??_C@_0BF@JONGFLJ@RavenDurabilitySmall?$AA@
CONST	SEGMENT
??_C@_0BF@JONGFLJ@RavenDurabilitySmall?$AA@ DB 'RavenDurabilitySmall', 00H ; `string'
CONST	ENDS
;	COMDAT ??_C@_0BI@GFJAHIIP@RavenAttackDamageMaxCmd?$AA@
CONST	SEGMENT
??_C@_0BI@GFJAHIIP@RavenAttackDamageMaxCmd?$AA@ DB 'RavenAttackDamageMaxC'
	DB	'md', 00H					; `string'
CONST	ENDS
;	COMDAT ??_C@_0BI@GGGDJIMA@RavenAttackDamageMinCmd?$AA@
CONST	SEGMENT
??_C@_0BI@GGGDJIMA@RavenAttackDamageMinCmd?$AA@ DB 'RavenAttackDamageMinC'
	DB	'md', 00H					; `string'
CONST	ENDS
;	COMDAT ??_C@_0BI@OFFJKOEA@RavenAttackDamageMaxLvl?$AA@
CONST	SEGMENT
??_C@_0BI@OFFJKOEA@RavenAttackDamageMaxLvl?$AA@ DB 'RavenAttackDamageMaxL'
	DB	'vl', 00H					; `string'
CONST	ENDS
;	COMDAT ??_C@_0L@NPEGNDBD@DarkSpirit?$AA@
CONST	SEGMENT
??_C@_0L@NPEGNDBD@DarkSpirit?$AA@ DB 'DarkSpirit', 00H	; `string'
CONST	ENDS
;	COMDAT ??_C@_0BI@OGKKEOAP@RavenAttackDamageMinLvl?$AA@
CONST	SEGMENT
??_C@_0BI@OGKKEOAP@RavenAttackDamageMinLvl?$AA@ DB 'RavenAttackDamageMinL'
	DB	'vl', 00H					; `string'
CONST	ENDS
;	COMDAT ??_C@_03HKMMIPC@Exp?$AA@
CONST	SEGMENT
??_C@_03HKMMIPC@Exp?$AA@ DB 'Exp', 00H			; `string'
CONST	ENDS
;	COMDAT ??_C@_05OCALBHM@Panda?$AA@
CONST	SEGMENT
??_C@_05OCALBHM@Panda?$AA@ DB 'Panda', 00H		; `string'
CONST	ENDS
;	COMDAT ??_C@_0N@OLKLOICD@AttackDamage?$AA@
CONST	SEGMENT
??_C@_0N@OLKLOICD@AttackDamage?$AA@ DB 'AttackDamage', 00H ; `string'
CONST	ENDS
;	COMDAT ??_C@_09PLEBLNMO@PandaRing?$AA@
CONST	SEGMENT
??_C@_09PLEBLNMO@PandaRing?$AA@ DB 'PandaRing', 00H	; `string'
CONST	ENDS
;	COMDAT ??_C@_03MPGJIAMH@Zen?$AA@
CONST	SEGMENT
??_C@_03MPGJIAMH@Zen?$AA@ DB 'Zen', 00H			; `string'
CONST	ENDS
;	COMDAT ??_C@_0BI@NMLLNIHA@?4?4?2Data?2ZtData?2Pets?4ini?$AA@
CONST	SEGMENT
??_C@_0BI@NMLLNIHA@?4?4?2Data?2ZtData?2Pets?4ini?$AA@ DB '..\Data\ZtData\'
	DB	'Pets.ini', 00H				; `string'
CONST	ENDS
;	COMDAT ??_C@_0BB@KKDLNMAD@DSRewardLevelUp3?$AA@
CONST	SEGMENT
??_C@_0BB@KKDLNMAD@DSRewardLevelUp3?$AA@ DB 'DSRewardLevelUp3', 00H ; `string'
CONST	ENDS
;	COMDAT ??_C@_0BB@LDCAONEC@DSRewardLevelUp2?$AA@
CONST	SEGMENT
??_C@_0BB@LDCAONEC@DSRewardLevelUp2?$AA@ DB 'DSRewardLevelUp2', 00H ; `string'
CONST	ENDS
;	COMDAT ??_C@_0BB@JIANLOIB@DSRewardLevelUp1?$AA@
CONST	SEGMENT
??_C@_0BB@JIANLOIB@DSRewardLevelUp1?$AA@ DB 'DSRewardLevelUp1', 00H ; `string'
CONST	ENDS
;	COMDAT ??_C@_0BA@HPMHDCCH@DSAllowPKPlayer?$AA@
CONST	SEGMENT
??_C@_0BA@HPMHDCCH@DSAllowPKPlayer?$AA@ DB 'DSAllowPKPlayer', 00H ; `string'
CONST	ENDS
;	COMDAT ??_C@_0BG@KLHLNOIL@DSParty1ExpSetPercent?$AA@
CONST	SEGMENT
??_C@_0BG@KLHLNOIL@DSParty1ExpSetPercent?$AA@ DB 'DSParty1ExpSetPercent', 00H ; `string'
CONST	ENDS
;	COMDAT ??_C@_0BG@CBAHLLOI@DSParty5ExpSetPercent?$AA@
CONST	SEGMENT
??_C@_0BG@CBAHLLOI@DSParty5ExpSetPercent?$AA@ DB 'DSParty5ExpSetPercent', 00H ; `string'
CONST	ENDS
;	COMDAT ??_C@_0BG@JIPMGAAA@DSParty4ExpSetPercent?$AA@
CONST	SEGMENT
??_C@_0BG@JIPMGAAA@DSParty4ExpSetPercent?$AA@ DB 'DSParty4ExpSetPercent', 00H ; `string'
CONST	ENDS
;	COMDAT ??_C@_0BG@DPNGPBK@DSParty3ExpSetPercent?$AA@
CONST	SEGMENT
??_C@_0BG@DPNGPBK@DSParty3ExpSetPercent?$AA@ DB 'DSParty3ExpSetPercent', 00H ; `string'
CONST	ENDS
;	COMDAT ??_C@_0BG@LKAGLEPC@DSParty2ExpSetPercent?$AA@
CONST	SEGMENT
??_C@_0BG@LKAGLEPC@DSParty2ExpSetPercent?$AA@ DB 'DSParty2ExpSetPercent', 00H ; `string'
CONST	ENDS
;	COMDAT ??_C@_0BH@CKMHNKKK@DSPartyExpPercentOther?$AA@
CONST	SEGMENT
??_C@_0BH@CKMHNKKK@DSPartyExpPercentOther?$AA@ DB 'DSPartyExpPercentOther'
	DB	00H						; `string'
CONST	ENDS
;	COMDAT ??_C@_0BD@GNODHJOK@DSParty5ExpPercent?$AA@
CONST	SEGMENT
??_C@_0BD@GNODHJOK@DSParty5ExpPercent?$AA@ DB 'DSParty5ExpPercent', 00H ; `string'
CONST	ENDS
;	COMDAT ??_C@_0BD@PGEGDFIF@DSParty4ExpPercent?$AA@
CONST	SEGMENT
??_C@_0BD@PGEGDFIF@DSParty4ExpPercent?$AA@ DB 'DSParty4ExpPercent', 00H ; `string'
CONST	ENDS
;	COMDAT ??_C@_0M@DFALAJPK@DevilSquare?$AA@
CONST	SEGMENT
??_C@_0M@DFALAJPK@DevilSquare?$AA@ DB 'DevilSquare', 00H ; `string'
CONST	ENDS
;	COMDAT ??_C@_0BD@ICNONMAK@DSParty3ExpPercent?$AA@
CONST	SEGMENT
??_C@_0BD@ICNONMAK@DSParty3ExpPercent?$AA@ DB 'DSParty3ExpPercent', 00H ; `string'
CONST	ENDS
;	COMDAT ??_C@_0M@DMDCPMM@ChaosCastle?$AA@
CONST	SEGMENT
??_C@_0M@DMDCPMM@ChaosCastle?$AA@ DB 'ChaosCastle', 00H	; `string'
CONST	ENDS
;	COMDAT ??_C@_0M@GPALKPNK@CCMinPlayer?$AA@
CONST	SEGMENT
??_C@_0M@GPALKPNK@CCMinPlayer?$AA@ DB 'CCMinPlayer', 00H ; `string'
CONST	ENDS
;	COMDAT ??_C@_0BB@PDPJEHDE@BCAllowPKPlayer8?$AA@
CONST	SEGMENT
??_C@_0BB@PDPJEHDE@BCAllowPKPlayer8?$AA@ DB 'BCAllowPKPlayer8', 00H ; `string'
CONST	ENDS
;	COMDAT ??_C@_0O@IOJFCINI@BCDropAncOpt8?$AA@
CONST	SEGMENT
??_C@_0O@IOJFCINI@BCDropAncOpt8?$AA@ DB 'BCDropAncOpt8', 00H ; `string'
CONST	ENDS
;	COMDAT ??_C@_0O@ONBIPNG@BCDropExcOpt8?$AA@
CONST	SEGMENT
??_C@_0O@ONBIPNG@BCDropExcOpt8?$AA@ DB 'BCDropExcOpt8', 00H ; `string'
CONST	ENDS
;	COMDAT ??_C@_0L@IBPNLEMG@BCDropOpt8?$AA@
CONST	SEGMENT
??_C@_0L@IBPNLEMG@BCDropOpt8?$AA@ DB 'BCDropOpt8', 00H	; `string'
CONST	ENDS
;	COMDAT ??_C@_0M@IIFJCENL@BCDropLuck8?$AA@
CONST	SEGMENT
??_C@_0M@IIFJCENL@BCDropLuck8?$AA@ DB 'BCDropLuck8', 00H ; `string'
CONST	ENDS
;	COMDAT ??_C@_0N@BCIOMHDL@BCDropSkill8?$AA@
CONST	SEGMENT
??_C@_0N@BCIOMHDL@BCDropSkill8?$AA@ DB 'BCDropSkill8', 00H ; `string'
CONST	ENDS
;	COMDAT ??_C@_0N@CGKKAFLF@BCDropLevel8?$AA@
CONST	SEGMENT
??_C@_0N@CGKKAFLF@BCDropLevel8?$AA@ DB 'BCDropLevel8', 00H ; `string'
CONST	ENDS
;	COMDAT ??_C@_09DBGFKBND@BCDropID8?$AA@
CONST	SEGMENT
??_C@_09DBGFKBND@BCDropID8?$AA@ DB 'BCDropID8', 00H	; `string'
CONST	ENDS
;	COMDAT ??_C@_0M@OKBOJMFH@BCDropType8?$AA@
CONST	SEGMENT
??_C@_0M@OKBOJMFH@BCDropType8?$AA@ DB 'BCDropType8', 00H ; `string'
CONST	ENDS
;	COMDAT ??_C@_0BB@HEGBFLPL@BCAllowPKPlayer7?$AA@
CONST	SEGMENT
??_C@_0BB@HEGBFLPL@BCAllowPKPlayer7?$AA@ DB 'BCAllowPKPlayer7', 00H ; `string'
CONST	ENDS
;	COMDAT ??_C@_0O@JANDEBH@BCDropAncOpt7?$AA@
CONST	SEGMENT
??_C@_0O@JANDEBH@BCDropAncOpt7?$AA@ DB 'BCDropAncOpt7', 00H ; `string'
CONST	ENDS
;	COMDAT ??_C@_0O@IJEJJDBJ@BCDropExcOpt7?$AA@
CONST	SEGMENT
??_C@_0O@IJEJJDBJ@BCDropExcOpt7?$AA@ DB 'BCDropExcOpt7', 00H ; `string'
CONST	ENDS
;	COMDAT ??_C@_0L@GGFKIAJ@BCDropOpt7?$AA@
CONST	SEGMENT
??_C@_0L@GGFKIAJ@BCDropOpt7?$AA@ DB 'BCDropOpt7', 00H	; `string'
CONST	ENDS
;	COMDAT ??_C@_0M@PMBDIBE@BCDropLuck7?$AA@
CONST	SEGMENT
??_C@_0M@PMBDIBE@BCDropLuck7?$AA@ DB 'BCDropLuck7', 00H	; `string'
CONST	ENDS
;	COMDAT ??_C@_0N@JFBGNLPE@BCDropSkill7?$AA@
CONST	SEGMENT
??_C@_0N@JFBGNLPE@BCDropSkill7?$AA@ DB 'BCDropSkill7', 00H ; `string'
CONST	ENDS
;	COMDAT ??_C@_0N@KBDCBJHK@BCDropLevel7?$AA@
CONST	SEGMENT
??_C@_0N@KBDCBJHK@BCDropLevel7?$AA@ DB 'BCDropLevel7', 00H ; `string'
CONST	ENDS
;	COMDAT ??_C@_09LGPNLNBM@BCDropID7?$AA@
CONST	SEGMENT
??_C@_09LGPNLNBM@BCDropID7?$AA@ DB 'BCDropID7', 00H	; `string'
CONST	ENDS
;	COMDAT ??_C@_0M@GNIGIAJI@BCDropType7?$AA@
CONST	SEGMENT
??_C@_0M@GNIGIAJI@BCDropType7?$AA@ DB 'BCDropType7', 00H ; `string'
CONST	ENDS
;	COMDAT ??_C@_0BB@GNHKGKLK@BCAllowPKPlayer6?$AA@
CONST	SEGMENT
??_C@_0BB@GNHKGKLK@BCAllowPKPlayer6?$AA@ DB 'BCAllowPKPlayer6', 00H ; `string'
CONST	ENDS
;	COMDAT ??_C@_0O@BABGAFFG@BCDropAncOpt6?$AA@
CONST	SEGMENT
??_C@_0O@BABGAFFG@BCDropAncOpt6?$AA@ DB 'BCDropAncOpt6', 00H ; `string'
CONST	ENDS
;	COMDAT ??_C@_0O@JAFCKCFI@BCDropExcOpt6?$AA@
CONST	SEGMENT
??_C@_0O@JAFCKCFI@BCDropExcOpt6?$AA@ DB 'BCDropExcOpt6', 00H ; `string'
CONST	ENDS
;	COMDAT ??_C@_0L@BPHOJJEI@BCDropOpt6?$AA@
CONST	SEGMENT
??_C@_0L@BPHOJJEI@BCDropOpt6?$AA@ DB 'BCDropOpt6', 00H	; `string'
CONST	ENDS
;	COMDAT ??_C@_0M@BGNKAJFF@BCDropLuck6?$AA@
CONST	SEGMENT
??_C@_0M@BGNKAJFF@BCDropLuck6?$AA@ DB 'BCDropLuck6', 00H ; `string'
CONST	ENDS
;	COMDAT ??_C@_0N@IMANOKLF@BCDropSkill6?$AA@
CONST	SEGMENT
??_C@_0N@IMANOKLF@BCDropSkill6?$AA@ DB 'BCDropSkill6', 00H ; `string'
CONST	ENDS
;	COMDAT ??_C@_0N@LICJCIDL@BCDropLevel6?$AA@
CONST	SEGMENT
??_C@_0N@LICJCIDL@BCDropLevel6?$AA@ DB 'BCDropLevel6', 00H ; `string'
CONST	ENDS
;	COMDAT ??_C@_09KPOGIMFN@BCDropID6?$AA@
CONST	SEGMENT
??_C@_09KPOGIMFN@BCDropID6?$AA@ DB 'BCDropID6', 00H	; `string'
CONST	ENDS
;	COMDAT ??_C@_0M@HEJNLBNJ@BCDropType6?$AA@
CONST	SEGMENT
??_C@_0M@HEJNLBNJ@BCDropType6?$AA@ DB 'BCDropType6', 00H ; `string'
CONST	ENDS
;	COMDAT ??_C@_0BB@EGFHDJHJ@BCAllowPKPlayer5?$AA@
CONST	SEGMENT
??_C@_0BB@EGFHDJHJ@BCAllowPKPlayer5?$AA@ DB 'BCAllowPKPlayer5', 00H ; `string'
CONST	ENDS
;	COMDAT ??_C@_0O@DLDLFGJF@BCDropAncOpt5?$AA@
CONST	SEGMENT
??_C@_0O@DLDLFGJF@BCDropAncOpt5?$AA@ DB 'BCDropAncOpt5', 00H ; `string'
CONST	ENDS
;	COMDAT ??_C@_0O@LLHPPBJL@BCDropExcOpt5?$AA@
CONST	SEGMENT
??_C@_0O@LLHPPBJL@BCDropExcOpt5?$AA@ DB 'BCDropExcOpt5', 00H ; `string'
CONST	ENDS
;	COMDAT ??_C@_0L@DEFDMKIL@BCDropOpt5?$AA@
CONST	SEGMENT
??_C@_0L@DEFDMKIL@BCDropOpt5?$AA@ DB 'BCDropOpt5', 00H	; `string'
CONST	ENDS
;	COMDAT ??_C@_0M@DNPHFKJG@BCDropLuck5?$AA@
CONST	SEGMENT
??_C@_0M@DNPHFKJG@BCDropLuck5?$AA@ DB 'BCDropLuck5', 00H ; `string'
CONST	ENDS
;	COMDAT ??_C@_0N@KHCALJHG@BCDropSkill5?$AA@
CONST	SEGMENT
??_C@_0N@KHCALJHG@BCDropSkill5?$AA@ DB 'BCDropSkill5', 00H ; `string'
CONST	ENDS
;	COMDAT ??_C@_0N@JDAEHLPI@BCDropLevel5?$AA@
CONST	SEGMENT
??_C@_0N@JDAEHLPI@BCDropLevel5?$AA@ DB 'BCDropLevel5', 00H ; `string'
CONST	ENDS
;	COMDAT ??_C@_09IEMLNPJO@BCDropID5?$AA@
CONST	SEGMENT
??_C@_09IEMLNPJO@BCDropID5?$AA@ DB 'BCDropID5', 00H	; `string'
CONST	ENDS
;	COMDAT ??_C@_0M@FPLAOCBK@BCDropType5?$AA@
CONST	SEGMENT
??_C@_0M@FPLAOCBK@BCDropType5?$AA@ DB 'BCDropType5', 00H ; `string'
CONST	ENDS
;	COMDAT ??_C@_0BB@FPEMAIDI@BCAllowPKPlayer4?$AA@
CONST	SEGMENT
??_C@_0BB@FPEMAIDI@BCAllowPKPlayer4?$AA@ DB 'BCAllowPKPlayer4', 00H ; `string'
CONST	ENDS
;	COMDAT ??_C@_0O@CCCAGHNE@BCDropAncOpt4?$AA@
CONST	SEGMENT
??_C@_0O@CCCAGHNE@BCDropAncOpt4?$AA@ DB 'BCDropAncOpt4', 00H ; `string'
CONST	ENDS
;	COMDAT ??_C@_0O@KCGEMANK@BCDropExcOpt4?$AA@
CONST	SEGMENT
??_C@_0O@KCGEMANK@BCDropExcOpt4?$AA@ DB 'BCDropExcOpt4', 00H ; `string'
CONST	ENDS
;	COMDAT ??_C@_0L@CNEIPLMK@BCDropOpt4?$AA@
CONST	SEGMENT
??_C@_0L@CNEIPLMK@BCDropOpt4?$AA@ DB 'BCDropOpt4', 00H	; `string'
CONST	ENDS
;	COMDAT ??_C@_0M@CEOMGLNH@BCDropLuck4?$AA@
CONST	SEGMENT
??_C@_0M@CEOMGLNH@BCDropLuck4?$AA@ DB 'BCDropLuck4', 00H ; `string'
CONST	ENDS
;	COMDAT ??_C@_0N@LODLIIDH@BCDropSkill4?$AA@
CONST	SEGMENT
??_C@_0N@LODLIIDH@BCDropSkill4?$AA@ DB 'BCDropSkill4', 00H ; `string'
CONST	ENDS
;	COMDAT ??_C@_0N@IKBPEKLJ@BCDropLevel4?$AA@
CONST	SEGMENT
??_C@_0N@IKBPEKLJ@BCDropLevel4?$AA@ DB 'BCDropLevel4', 00H ; `string'
CONST	ENDS
;	COMDAT ??_C@_09JNNAOONP@BCDropID4?$AA@
CONST	SEGMENT
??_C@_09JNNAOONP@BCDropID4?$AA@ DB 'BCDropID4', 00H	; `string'
CONST	ENDS
;	COMDAT ??_C@_0M@EGKLNDFL@BCDropType4?$AA@
CONST	SEGMENT
??_C@_0M@EGKLNDFL@BCDropType4?$AA@ DB 'BCDropType4', 00H ; `string'
CONST	ENDS
;	COMDAT ??_C@_0BB@BAANJOPP@BCAllowPKPlayer3?$AA@
CONST	SEGMENT
??_C@_0BB@BAANJOPP@BCAllowPKPlayer3?$AA@ DB 'BCAllowPKPlayer3', 00H ; `string'
CONST	ENDS
;	COMDAT ??_C@_0O@GNGBPBBD@BCDropAncOpt3?$AA@
CONST	SEGMENT
??_C@_0O@GNGBPBBD@BCDropAncOpt3?$AA@ DB 'BCDropAncOpt3', 00H ; `string'
CONST	ENDS
;	COMDAT ??_C@_0O@ONCFFGBN@BCDropExcOpt3?$AA@
CONST	SEGMENT
??_C@_0O@ONCFFGBN@BCDropExcOpt3?$AA@ DB 'BCDropExcOpt3', 00H ; `string'
CONST	ENDS
;	COMDAT ??_C@_0L@GCAJGNAN@BCDropOpt3?$AA@
CONST	SEGMENT
??_C@_0L@GCAJGNAN@BCDropOpt3?$AA@ DB 'BCDropOpt3', 00H	; `string'
CONST	ENDS
;	COMDAT ??_C@_0M@GLKNPNBA@BCDropLuck3?$AA@
CONST	SEGMENT
??_C@_0M@GLKNPNBA@BCDropLuck3?$AA@ DB 'BCDropLuck3', 00H ; `string'
CONST	ENDS
;	COMDAT ??_C@_0N@PBHKBOPA@BCDropSkill3?$AA@
CONST	SEGMENT
??_C@_0N@PBHKBOPA@BCDropSkill3?$AA@ DB 'BCDropSkill3', 00H ; `string'
CONST	ENDS
;	COMDAT ??_C@_0N@MFFONMHO@BCDropLevel3?$AA@
CONST	SEGMENT
??_C@_0N@MFFONMHO@BCDropLevel3?$AA@ DB 'BCDropLevel3', 00H ; `string'
CONST	ENDS
;	COMDAT ??_C@_09NCJBHIBI@BCDropID3?$AA@
CONST	SEGMENT
??_C@_09NCJBHIBI@BCDropID3?$AA@ DB 'BCDropID3', 00H	; `string'
CONST	ENDS
;	COMDAT ??_C@_0M@JOKEFJM@BCDropType3?$AA@
CONST	SEGMENT
??_C@_0M@JOKEFJM@BCDropType3?$AA@ DB 'BCDropType3', 00H	; `string'
CONST	ENDS
;	COMDAT ??_C@_0BB@JBGKPLO@BCAllowPKPlayer2?$AA@
CONST	SEGMENT
??_C@_0BB@JBGKPLO@BCAllowPKPlayer2?$AA@ DB 'BCAllowPKPlayer2', 00H ; `string'
CONST	ENDS
;	COMDAT ??_C@_0O@HEHKMAFC@BCDropAncOpt2?$AA@
CONST	SEGMENT
??_C@_0O@HEHKMAFC@BCDropAncOpt2?$AA@ DB 'BCDropAncOpt2', 00H ; `string'
CONST	ENDS
;	COMDAT ??_C@_0O@PEDOGHFM@BCDropExcOpt2?$AA@
CONST	SEGMENT
??_C@_0O@PEDOGHFM@BCDropExcOpt2?$AA@ DB 'BCDropExcOpt2', 00H ; `string'
CONST	ENDS
;	COMDAT ??_C@_0L@HLBCFMEM@BCDropOpt2?$AA@
CONST	SEGMENT
??_C@_0L@HLBCFMEM@BCDropOpt2?$AA@ DB 'BCDropOpt2', 00H	; `string'
CONST	ENDS
;	COMDAT ??_C@_0M@HCLGMMFB@BCDropLuck2?$AA@
CONST	SEGMENT
??_C@_0M@HCLGMMFB@BCDropLuck2?$AA@ DB 'BCDropLuck2', 00H ; `string'
CONST	ENDS
;	COMDAT ??_C@_0N@OIGBCPLB@BCDropSkill2?$AA@
CONST	SEGMENT
??_C@_0N@OIGBCPLB@BCDropSkill2?$AA@ DB 'BCDropSkill2', 00H ; `string'
CONST	ENDS
;	COMDAT ??_C@_0N@NMEFONDP@BCDropLevel2?$AA@
CONST	SEGMENT
??_C@_0N@NMEFONDP@BCDropLevel2?$AA@ DB 'BCDropLevel2', 00H ; `string'
CONST	ENDS
;	COMDAT ??_C@_09MLIKEJFJ@BCDropID2?$AA@
CONST	SEGMENT
??_C@_09MLIKEJFJ@BCDropID2?$AA@ DB 'BCDropID2', 00H	; `string'
CONST	ENDS
;	COMDAT ??_C@_0M@BAPBHENN@BCDropType2?$AA@
CONST	SEGMENT
??_C@_0M@BAPBHENN@BCDropType2?$AA@ DB 'BCDropType2', 00H ; `string'
CONST	ENDS
;	COMDAT ??_C@_0BB@CCDLPMHN@BCAllowPKPlayer1?$AA@
CONST	SEGMENT
??_C@_0BB@CCDLPMHN@BCAllowPKPlayer1?$AA@ DB 'BCAllowPKPlayer1', 00H ; `string'
CONST	ENDS
;	COMDAT ??_C@_0O@FPFHJDJB@BCDropAncOpt1?$AA@
CONST	SEGMENT
??_C@_0O@FPFHJDJB@BCDropAncOpt1?$AA@ DB 'BCDropAncOpt1', 00H ; `string'
CONST	ENDS
;	COMDAT ??_C@_0O@NPBDDEJP@BCDropExcOpt1?$AA@
CONST	SEGMENT
??_C@_0O@NPBDDEJP@BCDropExcOpt1?$AA@ DB 'BCDropExcOpt1', 00H ; `string'
CONST	ENDS
;	COMDAT ??_C@_0L@FADPAPIP@BCDropOpt1?$AA@
CONST	SEGMENT
??_C@_0L@FADPAPIP@BCDropOpt1?$AA@ DB 'BCDropOpt1', 00H	; `string'
CONST	ENDS
;	COMDAT ??_C@_0M@FJJLJPJC@BCDropLuck1?$AA@
CONST	SEGMENT
??_C@_0M@FJJLJPJC@BCDropLuck1?$AA@ DB 'BCDropLuck1', 00H ; `string'
CONST	ENDS
;	COMDAT ??_C@_0N@MDEMHMHC@BCDropSkill1?$AA@
CONST	SEGMENT
??_C@_0N@MDEMHMHC@BCDropSkill1?$AA@ DB 'BCDropSkill1', 00H ; `string'
CONST	ENDS
;	COMDAT ??_C@_0N@PHGILOPM@BCDropLevel1?$AA@
CONST	SEGMENT
??_C@_0N@PHGILOPM@BCDropLevel1?$AA@ DB 'BCDropLevel1', 00H ; `string'
CONST	ENDS
;	COMDAT ??_C@_09OAKHBKJK@BCDropID1?$AA@
CONST	SEGMENT
??_C@_09OAKHBKJK@BCDropID1?$AA@ DB 'BCDropID1', 00H	; `string'
CONST	ENDS
;	COMDAT ??_C@_0M@DLNMCHBO@BCDropType1?$AA@
CONST	SEGMENT
??_C@_0M@DLNMCHBO@BCDropType1?$AA@ DB 'BCDropType1', 00H ; `string'
CONST	ENDS
;	COMDAT ??_C@_0BA@DHNLFKEC@CCRewardLevelUp?$AA@
CONST	SEGMENT
??_C@_0BA@DHNLFKEC@CCRewardLevelUp?$AA@ DB 'CCRewardLevelUp', 00H ; `string'
CONST	ENDS
;	COMDAT ??_C@_0BA@JJLDMLND@BCRewardLevelUp?$AA@
CONST	SEGMENT
??_C@_0BA@JJLDMLND@BCRewardLevelUp?$AA@ DB 'BCRewardLevelUp', 00H ; `string'
CONST	ENDS
;	COMDAT ??_C@_0BA@GIDEMEIM@BCAllowPKPlayer?$AA@
CONST	SEGMENT
??_C@_0BA@GIDEMEIM@BCAllowPKPlayer?$AA@ DB 'BCAllowPKPlayer', 00H ; `string'
CONST	ENDS
;	COMDAT ??_C@_0N@DMFJJAD@BCDropAncOpt?$AA@
CONST	SEGMENT
??_C@_0N@DMFJJAD@BCDropAncOpt?$AA@ DB 'BCDropAncOpt', 00H ; `string'
CONST	ENDS
;	COMDAT ??_C@_0N@CCAFFMJG@BCDropExcOpt?$AA@
CONST	SEGMENT
??_C@_0N@CCAFFMJG@BCDropExcOpt?$AA@ DB 'BCDropExcOpt', 00H ; `string'
CONST	ENDS
;	COMDAT ??_C@_09GLKALDEK@BCDropOpt?$AA@
CONST	SEGMENT
??_C@_09GLKALDEK@BCDropOpt?$AA@ DB 'BCDropOpt', 00H	; `string'
CONST	ENDS
;	COMDAT ??_C@_0L@HJHMIFEG@BCDropLuck?$AA@
CONST	SEGMENT
??_C@_0L@HJHMIFEG@BCDropLuck?$AA@ DB 'BCDropLuck', 00H	; `string'
CONST	ENDS
;	COMDAT ??_C@_0M@BBCMNDMH@BCDropSkill?$AA@
CONST	SEGMENT
??_C@_0M@BBCMNDMH@BCDropSkill?$AA@ DB 'BCDropSkill', 00H ; `string'
CONST	ENDS
;	COMDAT ??_C@_0M@FLDHKBKO@BCDropLevel?$AA@
CONST	SEGMENT
??_C@_0M@FLDHKBKO@BCDropLevel?$AA@ DB 'BCDropLevel', 00H ; `string'
CONST	ENDS
;	COMDAT ??_C@_08CDCNIEDA@BCDropID?$AA@
CONST	SEGMENT
??_C@_08CDCNIEDA@BCDropID?$AA@ DB 'BCDropID', 00H	; `string'
CONST	ENDS
;	COMDAT ??_C@_0M@EAAIBIKA@BloodCastle?$AA@
CONST	SEGMENT
??_C@_0M@EAAIBIKA@BloodCastle?$AA@ DB 'BloodCastle', 00H ; `string'
CONST	ENDS
;	COMDAT ??_C@_0L@ODNJNGBK@BCDropType?$AA@
CONST	SEGMENT
??_C@_0L@ODNJNGBK@BCDropType?$AA@ DB 'BCDropType', 00H	; `string'
CONST	ENDS
;	COMDAT ??_C@_0N@IELNPJCL@ItDropAncOpt?$AA@
CONST	SEGMENT
??_C@_0N@IELNPJCL@ItDropAncOpt?$AA@ DB 'ItDropAncOpt', 00H ; `string'
CONST	ENDS
;	COMDAT ??_C@_0N@KFHNDMLO@ItDropExcOpt?$AA@
CONST	SEGMENT
??_C@_0N@KFHNDMLO@ItDropExcOpt?$AA@ DB 'ItDropExcOpt', 00H ; `string'
CONST	ENDS
;	COMDAT ??_C@_09NJBAOFKG@ItDropOpt?$AA@
CONST	SEGMENT
??_C@_09NJBAOFKG@ItDropOpt?$AA@ DB 'ItDropOpt', 00H	; `string'
CONST	ENDS
;	COMDAT ??_C@_0L@NAHCJLED@ItDropLuck?$AA@
CONST	SEGMENT
??_C@_0L@NAHCJLED@ItDropLuck?$AA@ DB 'ItDropLuck', 00H	; `string'
CONST	ENDS
;	COMDAT ??_C@_0M@GBOPCJFG@ItDropSkill?$AA@
CONST	SEGMENT
??_C@_0M@GBOPCJFG@ItDropSkill?$AA@ DB 'ItDropSkill', 00H ; `string'
CONST	ENDS
;	COMDAT ??_C@_0M@CLPEFLDP@ItDropLevel?$AA@
CONST	SEGMENT
??_C@_0M@CLPEFLDP@ItDropLevel?$AA@ DB 'ItDropLevel', 00H ; `string'
CONST	ENDS
;	COMDAT ??_C@_08COHAEAIJ@ItDropID?$AA@
CONST	SEGMENT
??_C@_08COHAEAIJ@ItDropID?$AA@ DB 'ItDropID', 00H	; `string'
CONST	ENDS
;	COMDAT ??_C@_0L@EKNHMIBP@ItDropType?$AA@
CONST	SEGMENT
??_C@_0L@EKNHMIBP@ItDropType?$AA@ DB 'ItDropType', 00H	; `string'
CONST	ENDS
;	COMDAT ??_C@_0P@MKNNBBHA@IllusionTemple?$AA@
CONST	SEGMENT
??_C@_0P@MKNNBBHA@IllusionTemple?$AA@ DB 'IllusionTemple', 00H ; `string'
CONST	ENDS
;	COMDAT ??_C@_0N@DIJFKDPN@ItMinPlayers?$AA@
CONST	SEGMENT
??_C@_0N@DIJFKDPN@ItMinPlayers?$AA@ DB 'ItMinPlayers', 00H ; `string'
CONST	ENDS
;	COMDAT ??_C@_0BK@GDGHCGII@?4?4?2Data?2ZtData?2Events?4ini?$AA@
CONST	SEGMENT
??_C@_0BK@GDGHCGII@?4?4?2Data?2ZtData?2Events?4ini?$AA@ DB '..\Data\ZtDat'
	DB	'a\Events.ini', 00H				; `string'
CONST	ENDS
;	COMDAT ??_C@_0O@OMDLJIIP@GensColorBlue?$AA@
CONST	SEGMENT
??_C@_0O@OMDLJIIP@GensColorBlue?$AA@ DB 'GensColorBlue', 00H ; `string'
CONST	ENDS
;	COMDAT ??_C@_0P@FJJBAMMP@GensColorGreen?$AA@
CONST	SEGMENT
??_C@_0P@FJJBAMMP@GensColorGreen?$AA@ DB 'GensColorGreen', 00H ; `string'
CONST	ENDS
;	COMDAT ??_C@_0N@GJKDHDBG@GensColorRed?$AA@
CONST	SEGMENT
??_C@_0N@GJKDHDBG@GensColorRed?$AA@ DB 'GensColorRed', 00H ; `string'
CONST	ENDS
;	COMDAT ??_C@_0BA@JLFAEIBB@GensColorEnable?$AA@
CONST	SEGMENT
??_C@_0BA@JLFAEIBB@GensColorEnable?$AA@ DB 'GensColorEnable', 00H ; `string'
CONST	ENDS
;	COMDAT ??_C@_0O@GEIEBGDA@AdminPostName?$AA@
CONST	SEGMENT
??_C@_0O@GEIEBGDA@AdminPostName?$AA@ DB 'AdminPostName', 00H ; `string'
CONST	ENDS
;	COMDAT ??_C@_03EBMOLPEO@?1gg?$AA@
CONST	SEGMENT
??_C@_03EBMOLPEO@?1gg?$AA@ DB '/gg', 00H		; `string'
CONST	ENDS
;	COMDAT ??_C@_09FDPGKJIB@MoneyType?$AA@
CONST	SEGMENT
??_C@_09FDPGKJIB@MoneyType?$AA@ DB 'MoneyType', 00H	; `string'
CONST	ENDS
;	COMDAT ??_C@_0M@LDFBDLDI@PostPCPoint?$AA@
CONST	SEGMENT
??_C@_0M@LDFBDLDI@PostPCPoint?$AA@ DB 'PostPCPoint', 00H ; `string'
CONST	ENDS
;	COMDAT ??_C@_0P@HABGNHDN@PkClearCredits?$AA@
CONST	SEGMENT
??_C@_0P@HABGNHDN@PkClearCredits?$AA@ DB 'PkClearCredits', 00H ; `string'
CONST	ENDS
;	COMDAT ??_C@_0M@OGBNAHMP@PKClearType?$AA@
CONST	SEGMENT
??_C@_0M@OGBNAHMP@PKClearType?$AA@ DB 'PKClearType', 00H ; `string'
CONST	ENDS
;	COMDAT ??_C@_0N@JGEOMKLM@PkClearMoney?$AA@
CONST	SEGMENT
??_C@_0N@JGEOMKLM@PkClearMoney?$AA@ DB 'PkClearMoney', 00H ; `string'
CONST	ENDS
;	COMDAT ??_C@_0N@LFLKJINM@PkClearLevel?$AA@
CONST	SEGMENT
??_C@_0N@LFLKJINM@PkClearLevel?$AA@ DB 'PkClearLevel', 00H ; `string'
CONST	ENDS
;	COMDAT ??_C@_07DOAOMMKG@Enabled?$AA@
CONST	SEGMENT
??_C@_07DOAOMMKG@Enabled?$AA@ DB 'Enabled', 00H		; `string'
CONST	ENDS
;	COMDAT ??_C@_0O@ICHAGEJN@AddPointLevel?$AA@
CONST	SEGMENT
??_C@_0O@ICHAGEJN@AddPointLevel?$AA@ DB 'AddPointLevel', 00H ; `string'
CONST	ENDS
;	COMDAT ??_C@_0M@FLIEHIPP@AddPriceZen?$AA@
CONST	SEGMENT
??_C@_0M@FLIEHIPP@AddPriceZen?$AA@ DB 'AddPriceZen', 00H ; `string'
CONST	ENDS
;	COMDAT ??_C@_0L@PJEJJPCD@PostServer?$AA@
CONST	SEGMENT
??_C@_0L@PJEJJPCD@PostServer?$AA@ DB 'PostServer', 00H	; `string'
CONST	ENDS
;	COMDAT ??_C@_09BPEAKGKL@PostDelay?$AA@
CONST	SEGMENT
??_C@_09BPEAKGKL@PostDelay?$AA@ DB 'PostDelay', 00H	; `string'
CONST	ENDS
;	COMDAT ??_C@_09KBJPHKHD@PostColor?$AA@
CONST	SEGMENT
??_C@_09KBJPHKHD@PostColor?$AA@ DB 'PostColor', 00H	; `string'
CONST	ENDS
;	COMDAT ??_C@_09MIBFFENF@PostPrist?$AA@
CONST	SEGMENT
??_C@_09MIBFFENF@PostPrist?$AA@ DB 'PostPrist', 00H	; `string'
CONST	ENDS
;	COMDAT ??_C@_07JMLJGMOM@?$FLpost?$FN?3?$AA@
CONST	SEGMENT
??_C@_07JMLJGMOM@?$FLpost?$FN?3?$AA@ DB '[post]:', 00H	; `string'
CONST	ENDS
;	COMDAT ??_C@_09NPPPIPJF@PostMoney?$AA@
CONST	SEGMENT
??_C@_09NPPPIPJF@PostMoney?$AA@ DB 'PostMoney', 00H	; `string'
CONST	ENDS
;	COMDAT ??_C@_09PMALNNPF@PostLevel?$AA@
CONST	SEGMENT
??_C@_09PMALNNPF@PostLevel?$AA@ DB 'PostLevel', 00H	; `string'
CONST	ENDS
;	COMDAT ??_C@_07MLKAJEJD@PkClear?$AA@
CONST	SEGMENT
??_C@_07MLKAJEJD@PkClear?$AA@ DB 'PkClear', 00H		; `string'
CONST	ENDS
;	COMDAT ??_C@_0M@MLICEIGI@PkClearName?$AA@
CONST	SEGMENT
??_C@_0M@MLICEIGI@PkClearName?$AA@ DB 'PkClearName', 00H ; `string'
CONST	ENDS
;	COMDAT ??_C@_08OLBJHFEG@?1pkclear?$AA@
CONST	SEGMENT
??_C@_08OLBJHFEG@?1pkclear?$AA@ DB '/pkclear', 00H	; `string'
CONST	ENDS
;	COMDAT ??_C@_07HIBHDECO@CmdName?$AA@
CONST	SEGMENT
??_C@_07HIBHDECO@CmdName?$AA@ DB 'CmdName', 00H		; `string'
CONST	ENDS
;	COMDAT ??_C@_04BCEBBOAK@?1cmd?$AA@
CONST	SEGMENT
??_C@_04BCEBBOAK@?1cmd?$AA@ DB '/cmd', 00H		; `string'
CONST	ENDS
;	COMDAT ??_C@_07EEMMPEJB@EneName?$AA@
CONST	SEGMENT
??_C@_07EEMMPEJB@EneName?$AA@ DB 'EneName', 00H		; `string'
CONST	ENDS
;	COMDAT ??_C@_04CMHHMOMO@?1ene?$AA@
CONST	SEGMENT
??_C@_04CMHHMOMO@?1ene?$AA@ DB '/ene', 00H		; `string'
CONST	ENDS
;	COMDAT ??_C@_07LLNFCNOJ@VitName?$AA@
CONST	SEGMENT
??_C@_07LLNFCNOJ@VitName?$AA@ DB 'VitName', 00H		; `string'
CONST	ENDS
;	COMDAT ??_C@_04DIENADCK@?1vit?$AA@
CONST	SEGMENT
??_C@_04DIENADCK@?1vit?$AA@ DB '/vit', 00H		; `string'
CONST	ENDS
;	COMDAT ??_C@_07CCNMHPMD@AgiName?$AA@
CONST	SEGMENT
??_C@_07CCNMHPMD@AgiName?$AA@ DB 'AgiName', 00H		; `string'
CONST	ENDS
;	COMDAT ??_C@_04HBCNBK@?1agi?$AA@
CONST	SEGMENT
??_C@_04HBCNBK@?1agi?$AA@ DB '/agi', 00H		; `string'
CONST	ENDS
;	COMDAT ??_C@_0L@JFFLHCAL@AddCommand?$AA@
CONST	SEGMENT
??_C@_0L@JFFLHCAL@AddCommand?$AA@ DB 'AddCommand', 00H	; `string'
CONST	ENDS
;	COMDAT ??_C@_07CDGFDNJO@StrName?$AA@
CONST	SEGMENT
??_C@_07CDGFDNJO@StrName?$AA@ DB 'StrName', 00H		; `string'
CONST	ENDS
;	COMDAT ??_C@_04ENDHGELN@?1str?$AA@
CONST	SEGMENT
??_C@_04ENDHGELN@?1str?$AA@ DB '/str', 00H		; `string'
CONST	ENDS
;	COMDAT ??_C@_04HPGPEKIH@Post?$AA@
CONST	SEGMENT
??_C@_04HPGPEKIH@Post?$AA@ DB 'Post', 00H		; `string'
CONST	ENDS
;	COMDAT ??_C@_08BDIACMIO@PostName?$AA@
CONST	SEGMENT
??_C@_08BDIACMIO@PostName?$AA@ DB 'PostName', 00H	; `string'
CONST	ENDS
;	COMDAT ??_C@_05DPLEIENO@?1post?$AA@
CONST	SEGMENT
??_C@_05DPLEIENO@?1post?$AA@ DB '/post', 00H		; `string'
CONST	ENDS
;	COMDAT ??_C@_0BM@KMKNOAKM@?4?4?2Data?2ZtData?2Commands?4ini?$AA@
CONST	SEGMENT
??_C@_0BM@KMKNOAKM@?4?4?2Data?2ZtData?2Commands?4ini?$AA@ DB '..\Data\ZtD'
	DB	'ata\Commands.ini', 00H			; `string'
CONST	ENDS
;	COMDAT ??_C@_0BI@MJOCMMBI@AEAttackDamageEnergyMax?$AA@
CONST	SEGMENT
??_C@_0BI@MJOCMMBI@AEAttackDamageEnergyMax?$AA@ DB 'AEAttackDamageEnergyM'
	DB	'ax', 00H					; `string'
CONST	ENDS
;	COMDAT ??_C@_0BI@NLGJCIHH@AEAttackDamageEnergyMin?$AA@
CONST	SEGMENT
??_C@_0BI@NLGJCIHH@AEAttackDamageEnergyMin?$AA@ DB 'AEAttackDamageEnergyM'
	DB	'in', 00H					; `string'
CONST	ENDS
;	COMDAT ??_C@_0BK@DPACDBAJ@AEAttackDamageVitalityMax?$AA@
CONST	SEGMENT
??_C@_0BK@DPACDBAJ@AEAttackDamageVitalityMax?$AA@ DB 'AEAttackDamageVital'
	DB	'ityMax', 00H				; `string'
CONST	ENDS
;	COMDAT ??_C@_0BK@CNIJNFGG@AEAttackDamageVitalityMin?$AA@
CONST	SEGMENT
??_C@_0BK@CNIJNFGG@AEAttackDamageVitalityMin?$AA@ DB 'AEAttackDamageVital'
	DB	'ityMin', 00H				; `string'
CONST	ENDS
;	COMDAT ??_C@_0BL@BOJOCMNJ@AEAttackDamageDexterityMax?$AA@
CONST	SEGMENT
??_C@_0BL@BOJOCMNJ@AEAttackDamageDexterityMax?$AA@ DB 'AEAttackDamageDext'
	DB	'erityMax', 00H				; `string'
CONST	ENDS
;	COMDAT ??_C@_0BL@MBFMILG@AEAttackDamageDexterityMin?$AA@
CONST	SEGMENT
??_C@_0BL@MBFMILG@AEAttackDamageDexterityMin?$AA@ DB 'AEAttackDamageDexte'
	DB	'rityMin', 00H				; `string'
CONST	ENDS
;	COMDAT ??_C@_0BK@NNKLCMIM@AEAttackDamageStrengthMax?$AA@
CONST	SEGMENT
??_C@_0BK@NNKLCMIM@AEAttackDamageStrengthMax?$AA@ DB 'AEAttackDamageStren'
	DB	'gthMax', 00H				; `string'
CONST	ENDS
;	COMDAT ??_C@_0BK@MPCAMIOD@AEAttackDamageStrengthMin?$AA@
CONST	SEGMENT
??_C@_0BK@MPCAMIOD@AEAttackDamageStrengthMin?$AA@ DB 'AEAttackDamageStren'
	DB	'gthMin', 00H				; `string'
CONST	ENDS
;	COMDAT ??_C@_0BD@NGDMFPLJ@RFPvPAttackRateDiv?$AA@
CONST	SEGMENT
??_C@_0BD@NGDMFPLJ@RFPvPAttackRateDiv?$AA@ DB 'RFPvPAttackRateDiv', 00H ; `string'
CONST	ENDS
;	COMDAT ??_C@_0BF@GKCEFGDC@RFPvPAttackRateFact2?$AA@
CONST	SEGMENT
??_C@_0BF@GKCEFGDC@RFPvPAttackRateFact2?$AA@ DB 'RFPvPAttackRateFact2', 00H ; `string'
CONST	ENDS
;	COMDAT ??_C@_0BF@EBAJAFPB@RFPvPAttackRateFact1?$AA@
CONST	SEGMENT
??_C@_0BF@EBAJAFPB@RFPvPAttackRateFact1?$AA@ DB 'RFPvPAttackRateFact1', 00H ; `string'
CONST	ENDS
;	COMDAT ??_C@_0BD@MFPLFOJL@SUPvPAttackRateDiv?$AA@
CONST	SEGMENT
??_C@_0BD@MFPLFOJL@SUPvPAttackRateDiv?$AA@ DB 'SUPvPAttackRateDiv', 00H ; `string'
CONST	ENDS
;	COMDAT ??_C@_0BF@LKJBDDED@SUPvPAttackRateFact2?$AA@
CONST	SEGMENT
??_C@_0BF@LKJBDDED@SUPvPAttackRateFact2?$AA@ DB 'SUPvPAttackRateFact2', 00H ; `string'
CONST	ENDS
;	COMDAT ??_C@_0BF@JBLMGAIA@SUPvPAttackRateFact1?$AA@
CONST	SEGMENT
??_C@_0BF@JBLMGAIA@SUPvPAttackRateFact1?$AA@ DB 'SUPvPAttackRateFact1', 00H ; `string'
CONST	ENDS
;	COMDAT ??_C@_0BF@IAOIOBCG@DLPvPAttackRateFact2?$AA@
CONST	SEGMENT
??_C@_0BF@IAOIOBCG@DLPvPAttackRateFact2?$AA@ DB 'DLPvPAttackRateFact2', 00H ; `string'
CONST	ENDS
;	COMDAT ??_C@_0BF@KLMFLCOF@DLPvPAttackRateFact1?$AA@
CONST	SEGMENT
??_C@_0BF@KLMFLCOF@DLPvPAttackRateFact1?$AA@ DB 'DLPvPAttackRateFact1', 00H ; `string'
CONST	ENDS
;	COMDAT ??_C@_0BD@GJLDEEJM@MGPvPAttackRateDiv?$AA@
CONST	SEGMENT
??_C@_0BD@GJLDEEJM@MGPvPAttackRateDiv?$AA@ DB 'MGPvPAttackRateDiv', 00H ; `string'
CONST	ENDS
;	COMDAT ??_C@_0BF@ILCPALG@MGPvPAttackRateFact2?$AA@
CONST	SEGMENT
??_C@_0BF@ILCPALG@MGPvPAttackRateFact2?$AA@ DB 'MGPvPAttackRateFact2', 00H ; `string'
CONST	ENDS
;	COMDAT ??_C@_0BF@CDJPKDHF@MGPvPAttackRateFact1?$AA@
CONST	SEGMENT
??_C@_0BF@CDJPKDHF@MGPvPAttackRateFact1?$AA@ DB 'MGPvPAttackRateFact1', 00H ; `string'
CONST	ENDS
;	COMDAT ??_C@_0BD@GFMGDCJK@EEPvPAttackRateDiv?$AA@
CONST	SEGMENT
??_C@_0BD@GFMGDCJK@EEPvPAttackRateDiv?$AA@ DB 'EEPvPAttackRateDiv', 00H ; `string'
CONST	ENDS
;	COMDAT ??_C@_0BF@OHIOIPEM@EEPvPAttackRateFact2?$AA@
CONST	SEGMENT
??_C@_0BF@OHIOIPEM@EEPvPAttackRateFact2?$AA@ DB 'EEPvPAttackRateFact2', 00H ; `string'
CONST	ENDS
;	COMDAT ??_C@_0BF@MMKDNMIP@EEPvPAttackRateFact1?$AA@
CONST	SEGMENT
??_C@_0BF@MMKDNMIP@EEPvPAttackRateFact1?$AA@ DB 'EEPvPAttackRateFact1', 00H ; `string'
CONST	ENDS
;	COMDAT ??_C@_0BF@FCFMNBHL@DWPvPAttackRateFact2?$AA@
CONST	SEGMENT
??_C@_0BF@FCFMNBHL@DWPvPAttackRateFact2?$AA@ DB 'DWPvPAttackRateFact2', 00H ; `string'
CONST	ENDS
;	COMDAT ??_C@_0BF@HJHBICLI@DWPvPAttackRateFact1?$AA@
CONST	SEGMENT
??_C@_0BF@HJHBICLI@DWPvPAttackRateFact1?$AA@ DB 'DWPvPAttackRateFact1', 00H ; `string'
CONST	ENDS
;	COMDAT ??_C@_0BD@KLAJKAEL@DKPvPAttackRateDiv?$AA@
CONST	SEGMENT
??_C@_0BD@KLAJKAEL@DKPvPAttackRateDiv?$AA@ DB 'DKPvPAttackRateDiv', 00H ; `string'
CONST	ENDS
;	COMDAT ??_C@_0BF@GBKMEHLF@DKPvPAttackRateFact2?$AA@
CONST	SEGMENT
??_C@_0BF@GBKMEHLF@DKPvPAttackRateFact2?$AA@ DB 'DKPvPAttackRateFact2', 00H ; `string'
CONST	ENDS
;	COMDAT ??_C@_0BF@EKIBBEHG@DKPvPAttackRateFact1?$AA@
CONST	SEGMENT
??_C@_0BF@EKIBBEHG@DKPvPAttackRateFact1?$AA@ DB 'DKPvPAttackRateFact1', 00H ; `string'
CONST	ENDS
;	COMDAT ??_C@_0BF@FALIENJF@CWElfAlterDMGPercent?$AA@
CONST	SEGMENT
??_C@_0BF@FALIENJF@CWElfAlterDMGPercent?$AA@ DB 'CWElfAlterDMGPercent', 00H ; `string'
CONST	ENDS
;	COMDAT ??_C@_0P@NCKHGKEG@BerserkAddMana?$AA@
CONST	SEGMENT
??_C@_0P@NCKHGKEG@BerserkAddMana?$AA@ DB 'BerserkAddMana', 00H ; `string'
CONST	ENDS
;	COMDAT ??_C@_0BF@NLHHHFNI@DLSkillDMGPercentMax?$AA@
CONST	SEGMENT
??_C@_0BF@NLHHHFNI@DLSkillDMGPercentMax?$AA@ DB 'DLSkillDMGPercentMax', 00H ; `string'
CONST	ENDS
;	COMDAT ??_C@_0BF@DKDDNDEL@DKSkillDMGPercentMax?$AA@
CONST	SEGMENT
??_C@_0BF@DKDDNDEL@DKSkillDMGPercentMax?$AA@ DB 'DKSkillDMGPercentMax', 00H ; `string'
CONST	ENDS
;	COMDAT ??_C@_0BC@BAEFKHHM@DamageMax_VitLeft?$AA@
CONST	SEGMENT
??_C@_0BC@BAEFKHHM@DamageMax_VitLeft?$AA@ DB 'DamageMax_VitLeft', 00H ; `string'
CONST	ENDS
;	COMDAT ??_C@_0BC@IADGLHJG@DamageMin_VitLeft?$AA@
CONST	SEGMENT
??_C@_0BC@IADGLHJG@DamageMin_VitLeft?$AA@ DB 'DamageMin_VitLeft', 00H ; `string'
CONST	ENDS
;	COMDAT ??_C@_0BD@EDFMHHNJ@DamageMax_VitRight?$AA@
CONST	SEGMENT
??_C@_0BD@EDFMHHNJ@DamageMax_VitRight?$AA@ DB 'DamageMax_VitRight', 00H ; `string'
CONST	ENDS
;	COMDAT ??_C@_0M@BKNIILFP@RageFighter?$AA@
CONST	SEGMENT
??_C@_0M@BKNIILFP@RageFighter?$AA@ DB 'RageFighter', 00H ; `string'
CONST	ENDS
;	COMDAT ??_C@_0BD@DBDAPKP@DamageMin_VitRight?$AA@
CONST	SEGMENT
??_C@_0BD@DBDAPKP@DamageMin_VitRight?$AA@ DB 'DamageMin_VitRight', 00H ; `string'
CONST	ENDS
;	COMDAT ??_C@_07PEDPFCGC@Defense?$AA@
CONST	SEGMENT
??_C@_07PEDPFCGC@Defense?$AA@ DB 'Defense', 00H		; `string'
CONST	ENDS
;	COMDAT ??_C@_0BD@OCEADDEC@SuccessfulBlocking?$AA@
CONST	SEGMENT
??_C@_0BD@OCEADDEC@SuccessfulBlocking?$AA@ DB 'SuccessfulBlocking', 00H ; `string'
CONST	ENDS
;	COMDAT ??_C@_0P@CLAFNACP@MagicDamageMin?$AA@
CONST	SEGMENT
??_C@_0P@CLAFNACP@MagicDamageMin?$AA@ DB 'MagicDamageMin', 00H ; `string'
CONST	ENDS
;	COMDAT ??_C@_0P@DJIODEEA@MagicDamageMax?$AA@
CONST	SEGMENT
??_C@_0P@DJIODEEA@MagicDamageMax?$AA@ DB 'MagicDamageMax', 00H ; `string'
CONST	ENDS
;	COMDAT ??_C@_09PCICNBOE@Dark_Lord?$AA@
CONST	SEGMENT
??_C@_09PCICNBOE@Dark_Lord?$AA@ DB 'Dark_Lord', 00H	; `string'
CONST	ENDS
;	COMDAT ??_C@_0M@CJAMKEGP@Dark_Wizard?$AA@
CONST	SEGMENT
??_C@_0M@CJAMKEGP@Dark_Wizard?$AA@ DB 'Dark_Wizard', 00H ; `string'
CONST	ENDS
;	COMDAT ??_C@_08HLBMEKKE@Summoner?$AA@
CONST	SEGMENT
??_C@_08HLBMEKKE@Summoner?$AA@ DB 'Summoner', 00H	; `string'
CONST	ENDS
;	COMDAT ??_C@_0BC@HPCPGOOO@DamageMin_EneLeft?$AA@
CONST	SEGMENT
??_C@_0BC@HPCPGOOO@DamageMin_EneLeft?$AA@ DB 'DamageMin_EneLeft', 00H ; `string'
CONST	ENDS
;	COMDAT ??_C@_0BC@OPFMHOAE@DamageMax_EneLeft?$AA@
CONST	SEGMENT
??_C@_0BC@OPFMHOAE@DamageMax_EneLeft?$AA@ DB 'DamageMax_EneLeft', 00H ; `string'
CONST	ENDS
;	COMDAT ??_C@_0BD@FNDCOPHI@DamageMin_EneRight?$AA@
CONST	SEGMENT
??_C@_0BD@FNDCOPHI@DamageMin_EneRight?$AA@ DB 'DamageMin_EneRight', 00H ; `string'
CONST	ENDS
;	COMDAT ??_C@_0BD@BNHNJHAO@DamageMax_EneRight?$AA@
CONST	SEGMENT
??_C@_0BD@BNHNJHAO@DamageMax_EneRight?$AA@ DB 'DamageMax_EneRight', 00H ; `string'
CONST	ENDS
;	COMDAT ??_C@_0BA@IPLGPKDA@Magic_Gladiator?$AA@
CONST	SEGMENT
??_C@_0BA@IPLGPKDA@Magic_Gladiator?$AA@ DB 'Magic_Gladiator', 00H ; `string'
CONST	ENDS
;	COMDAT ??_C@_0BC@BIIGKHOB@DamageMin_StrLeft?$AA@
CONST	SEGMENT
??_C@_0BC@BIIGKHOB@DamageMin_StrLeft?$AA@ DB 'DamageMin_StrLeft', 00H ; `string'
CONST	ENDS
;	COMDAT ??_C@_0BC@IIPFLHAL@DamageMax_StrLeft?$AA@
CONST	SEGMENT
??_C@_0BC@IIPFLHAL@DamageMax_StrLeft?$AA@ DB 'DamageMax_StrLeft', 00H ; `string'
CONST	ENDS
;	COMDAT ??_C@_0BD@MNOKFLCA@DamageMin_StrRight?$AA@
CONST	SEGMENT
??_C@_0BD@MNOKFLCA@DamageMin_StrRight?$AA@ DB 'DamageMin_StrRight', 00H ; `string'
CONST	ENDS
;	COMDAT ??_C@_0M@MNCPOEBE@Dark_Knight?$AA@
CONST	SEGMENT
??_C@_0M@MNCPOEBE@Dark_Knight?$AA@ DB 'Dark_Knight', 00H ; `string'
CONST	ENDS
;	COMDAT ??_C@_0BD@INKFCDFG@DamageMax_StrRight?$AA@
CONST	SEGMENT
??_C@_0BD@INKFCDFG@DamageMax_StrRight?$AA@ DB 'DamageMax_StrRight', 00H ; `string'
CONST	ENDS
;	COMDAT ??_C@_0BF@PBOHAMNC@DamageMin_DexStrLeft?$AA@
CONST	SEGMENT
??_C@_0BF@PBOHAMNC@DamageMin_DexStrLeft?$AA@ DB 'DamageMin_DexStrLeft', 00H ; `string'
CONST	ENDS
;	COMDAT ??_C@_0BF@NGFMGLOD@DamageMax_DexStrLeft?$AA@
CONST	SEGMENT
??_C@_0BF@NGFMGLOD@DamageMax_DexStrLeft?$AA@ DB 'DamageMax_DexStrLeft', 00H ; `string'
CONST	ENDS
;	COMDAT ??_C@_0BG@HCNDFLJN@DamageMin_DexStrRight?$AA@
CONST	SEGMENT
??_C@_0BG@HCNDFLJN@DamageMin_DexStrRight?$AA@ DB 'DamageMin_DexStrRight', 00H ; `string'
CONST	ENDS
;	COMDAT ??_C@_0BG@CDCKOAMA@DamageMax_DexStrRight?$AA@
CONST	SEGMENT
??_C@_0BG@CDCKOAMA@DamageMax_DexStrRight?$AA@ DB 'DamageMax_DexStrRight', 00H ; `string'
CONST	ENDS
;	COMDAT ??_C@_0BI@MAMADLME@DamageMin_NoBow_DexLeft?$AA@
CONST	SEGMENT
??_C@_0BI@MAMADLME@DamageMin_NoBow_DexLeft?$AA@ DB 'DamageMin_NoBow_DexLe'
	DB	'ft', 00H					; `string'
CONST	ENDS
;	COMDAT ??_C@_0BI@NGIMLHOK@DamageMin_NoBow_StrLeft?$AA@
CONST	SEGMENT
??_C@_0BI@NGIMLHOK@DamageMin_NoBow_StrLeft?$AA@ DB 'DamageMin_NoBow_StrLe'
	DB	'ft', 00H					; `string'
CONST	ENDS
;	COMDAT ??_C@_0BI@JDGGCDCA@DamageMax_NoBow_DexLeft?$AA@
CONST	SEGMENT
??_C@_0BI@JDGGCDCA@DamageMax_NoBow_DexLeft?$AA@ DB 'DamageMax_NoBow_DexLe'
	DB	'ft', 00H					; `string'
CONST	ENDS
;	COMDAT ??_C@_0BI@IFCKKPAO@DamageMax_NoBow_StrLeft?$AA@
CONST	SEGMENT
??_C@_0BI@IFCKKPAO@DamageMax_NoBow_StrLeft?$AA@ DB 'DamageMax_NoBow_StrLe'
	DB	'ft', 00H					; `string'
CONST	ENDS
;	COMDAT ??_C@_0BJ@IGDGMJPL@DamageMin_NoBow_DexRight?$AA@
CONST	SEGMENT
??_C@_0BJ@IGDGMJPL@DamageMin_NoBow_DexRight?$AA@ DB 'DamageMin_NoBow_DexR'
	DB	'ight', 00H					; `string'
CONST	ENDS
;	COMDAT ??_C@_0BJ@FKPGIILI@DamageMin_NoBow_StrRight?$AA@
CONST	SEGMENT
??_C@_0BJ@FKPGIILI@DamageMin_NoBow_StrRight?$AA@ DB 'DamageMin_NoBow_StrR'
	DB	'ight', 00H					; `string'
CONST	ENDS
;	COMDAT ??_C@_0BJ@CBACEJIC@DamageMax_NoBow_DexRight?$AA@
CONST	SEGMENT
??_C@_0BJ@CBACEJIC@DamageMax_NoBow_DexRight?$AA@ DB 'DamageMax_NoBow_DexR'
	DB	'ight', 00H					; `string'
CONST	ENDS
;	COMDAT ??_C@_0BJ@PNMCAIMB@DamageMax_NoBow_StrRight?$AA@
CONST	SEGMENT
??_C@_0BJ@PNMCAIMB@DamageMax_NoBow_StrRight?$AA@ DB 'DamageMax_NoBow_StrR'
	DB	'ight', 00H					; `string'
CONST	ENDS
;	COMDAT ??_C@_0BJ@CNDLEJGO@DamageMin_Bow_StrDexLeft?$AA@
CONST	SEGMENT
??_C@_0BJ@CNDLEJGO@DamageMin_Bow_StrDexLeft?$AA@ DB 'DamageMin_Bow_StrDex'
	DB	'Left', 00H					; `string'
CONST	ENDS
;	COMDAT ??_C@_0BJ@IKAPMJBH@DamageMax_Bow_StrDexLeft?$AA@
CONST	SEGMENT
??_C@_0BJ@IKAPMJBH@DamageMax_Bow_StrDexLeft?$AA@ DB 'DamageMax_Bow_StrDex'
	DB	'Left', 00H					; `string'
CONST	ENDS
;	COMDAT ??_C@_0BK@LANIHIHP@DamageMin_Bow_StrDexRight?$AA@
CONST	SEGMENT
??_C@_0BK@LANIHIHP@DamageMin_Bow_StrDexRight?$AA@ DB 'DamageMin_Bow_StrDe'
	DB	'xRight', 00H				; `string'
CONST	ENDS
;	COMDAT ??_C@_09DIFEFNGC@Fairy_Elf?$AA@
CONST	SEGMENT
??_C@_09DIFEFNGC@Fairy_Elf?$AA@ DB 'Fairy_Elf', 00H	; `string'
CONST	ENDS
;	COMDAT ??_C@_0BK@JJKGIFGH@DamageMax_Bow_StrDexRight?$AA@
CONST	SEGMENT
??_C@_0BK@JJKGIFGH@DamageMax_Bow_StrDexRight?$AA@ DB 'DamageMax_Bow_StrDe'
	DB	'xRight', 00H				; `string'
CONST	ENDS
;	COMDAT ??_C@_0BK@FKMBAABH@SoulBarrierAttackManaDown?$AA@
CONST	SEGMENT
??_C@_0BK@FKMBAABH@SoulBarrierAttackManaDown?$AA@ DB 'SoulBarrierAttackMa'
	DB	'naDown', 00H				; `string'
CONST	ENDS
;	COMDAT ??_C@_0BD@ILDLACFI@ComboDamagePercent?$AA@
CONST	SEGMENT
??_C@_0BD@ILDLACFI@ComboDamagePercent?$AA@ DB 'ComboDamagePercent', 00H ; `string'
CONST	ENDS
;	COMDAT ??_C@_0BB@FNNJAMED@ReflectToReflect?$AA@
CONST	SEGMENT
??_C@_0BB@FNNJAMED@ReflectToReflect?$AA@ DB 'ReflectToReflect', 00H ; `string'
CONST	ENDS
;	COMDAT ??_C@_0BH@KAHNGFMD@CastleDamageByAlliance?$AA@
CONST	SEGMENT
??_C@_0BH@KAHNGFMD@CastleDamageByAlliance?$AA@ DB 'CastleDamageByAlliance'
	DB	00H						; `string'
CONST	ENDS
;	COMDAT ??_C@_08KHNFHHOB@MaxStats?$AA@
CONST	SEGMENT
??_C@_08KHNFHHOB@MaxStats?$AA@ DB 'MaxStats', 00H	; `string'
CONST	ENDS
;	COMDAT ??_C@_0BI@IPAIFD@PetCastleAttackByPlayer?$AA@
CONST	SEGMENT
??_C@_0BI@IPAIFD@PetCastleAttackByPlayer?$AA@ DB 'PetCastleAttackByPlayer'
	DB	00H						; `string'
CONST	ENDS
;	COMDAT ??_C@_0BF@DMHPGJA@PetCastleAttackByNPC?$AA@
CONST	SEGMENT
??_C@_0BF@DMHPGJA@PetCastleAttackByNPC?$AA@ DB 'PetCastleAttackByNPC', 00H ; `string'
CONST	ENDS
;	COMDAT ??_C@_0BF@JAHKLENK@CastleAttackByPlayer?$AA@
CONST	SEGMENT
??_C@_0BF@JAHKLENK@CastleAttackByPlayer?$AA@ DB 'CastleAttackByPlayer', 00H ; `string'
CONST	ENDS
;	COMDAT ??_C@_0BC@PPFCPJN@CastleAttackByNPC?$AA@
CONST	SEGMENT
??_C@_0BC@PPFCPJN@CastleAttackByNPC?$AA@ DB 'CastleAttackByNPC', 00H ; `string'
CONST	ENDS
;	COMDAT ??_C@_0BH@OHMFFPBI@CastleSiegeSkillEnable?$AA@
CONST	SEGMENT
??_C@_0BH@OHMFFPBI@CastleSiegeSkillEnable?$AA@ DB 'CastleSiegeSkillEnable'
	DB	00H						; `string'
CONST	ENDS
;	COMDAT ??_C@_06POMJKEPM@Common?$AA@
CONST	SEGMENT
??_C@_06POMJKEPM@Common?$AA@ DB 'Common', 00H		; `string'
CONST	ENDS
;	COMDAT ??_C@_09MINFMDAF@NeedArrow?$AA@
CONST	SEGMENT
??_C@_09MINFMDAF@NeedArrow?$AA@ DB 'NeedArrow', 00H	; `string'
CONST	ENDS
;	COMDAT ??_C@_0BN@KOHJPEHI@?4?4?2Data?2ZtData?2Character?4ini?$AA@
CONST	SEGMENT
??_C@_0BN@KOHJPEHI@?4?4?2Data?2ZtData?2Character?4ini?$AA@ DB '..\Data\Zt'
	DB	'Data\Character.ini', 00H			; `string'
CONST	ENDS
;	COMDAT ??_C@_0N@LLPFBELB@ExpPartyPlus?$AA@
CONST	SEGMENT
??_C@_0N@LLPFBELB@ExpPartyPlus?$AA@ DB 'ExpPartyPlus', 00H ; `string'
CONST	ENDS
;	COMDAT ??_C@_0BB@HCCLEKCI@AllianceMaxGuild?$AA@
CONST	SEGMENT
??_C@_0BB@HCCLEKCI@AllianceMaxGuild?$AA@ DB 'AllianceMaxGuild', 00H ; `string'
CONST	ENDS
;	COMDAT ??_C@_0N@MPBFAGDG@GuildMaxUser?$AA@
CONST	SEGMENT
??_C@_0N@MPBFAGDG@GuildMaxUser?$AA@ DB 'GuildMaxUser', 00H ; `string'
CONST	ENDS
;	COMDAT ??_C@_0BD@KBAOACND@BloodCastleMaxUser?$AA@
CONST	SEGMENT
??_C@_0BD@KBAOACND@BloodCastleMaxUser?$AA@ DB 'BloodCastleMaxUser', 00H ; `string'
CONST	ENDS
;	COMDAT ??_C@_0N@BGKKOBGO@NorItemLevel?$AA@
CONST	SEGMENT
??_C@_0N@BGKKOBGO@NorItemLevel?$AA@ DB 'NorItemLevel', 00H ; `string'
CONST	ENDS
;	COMDAT ??_C@_0N@NPEDLNMM@NorItemLimit?$AA@
CONST	SEGMENT
??_C@_0N@NPEDLNMM@NorItemLimit?$AA@ DB 'NorItemLimit', 00H ; `string'
CONST	ENDS
;	COMDAT ??_C@_0BC@DMKDJAEC@MembItemWareLimit?$AA@
CONST	SEGMENT
??_C@_0BC@DMKDJAEC@MembItemWareLimit?$AA@ DB 'MembItemWareLimit', 00H ; `string'
CONST	ENDS
;	COMDAT ??_C@_0BB@OHOCANAI@MembItemMixLimit?$AA@
CONST	SEGMENT
??_C@_0BB@OHOCANAI@MembItemMixLimit?$AA@ DB 'MembItemMixLimit', 00H ; `string'
CONST	ENDS
;	COMDAT ??_C@_0O@OBLFKLCB@MembItemLimit?$AA@
CONST	SEGMENT
??_C@_0O@OBLFKLCB@MembItemLimit?$AA@ DB 'MembItemLimit', 00H ; `string'
CONST	ENDS
;	COMDAT ??_C@_0N@KBOKNHMN@Ringstrength?$AA@
CONST	SEGMENT
??_C@_0N@KBOKNHMN@Ringstrength?$AA@ DB 'Ringstrength', 00H ; `string'
CONST	ENDS
;	COMDAT ??_C@_0BB@OLCPBPLP@DevilSqueryCount?$AA@
CONST	SEGMENT
??_C@_0BB@OLCPBPLP@DevilSqueryCount?$AA@ DB 'DevilSqueryCount', 00H ; `string'
CONST	ENDS
;	COMDAT ??_C@_0BB@NMLFGMHD@BloodCastleCount?$AA@
CONST	SEGMENT
??_C@_0BB@NMLFGMHD@BloodCastleCount?$AA@ DB 'BloodCastleCount', 00H ; `string'
CONST	ENDS
;	COMDAT ??_C@_0BD@NMMBGEC@DurabilityMaxCount?$AA@
CONST	SEGMENT
??_C@_0BD@NMMBGEC@DurabilityMaxCount?$AA@ DB 'DurabilityMaxCount', 00H ; `string'
CONST	ENDS
;	COMDAT ??_C@_0BB@PIKGNFJI@DurabilityEnable?$AA@
CONST	SEGMENT
??_C@_0BB@PIKGNFJI@DurabilityEnable?$AA@ DB 'DurabilityEnable', 00H ; `string'
CONST	ENDS
;	COMDAT ??_C@_0BE@OMLJFHBO@CheckOtherGuildLand?$AA@
CONST	SEGMENT
??_C@_0BE@OMLJFHBO@CheckOtherGuildLand?$AA@ DB 'CheckOtherGuildLand', 00H ; `string'
CONST	ENDS
;	COMDAT ??_C@_0P@NBNCCEMG@MarlonTeleport?$AA@
CONST	SEGMENT
??_C@_0P@NBNCCEMG@MarlonTeleport?$AA@ DB 'MarlonTeleport', 00H ; `string'
CONST	ENDS
;	COMDAT ??_C@_0M@KFFOANIE@PotionDelay?$AA@
CONST	SEGMENT
??_C@_0M@KFFOANIE@PotionDelay?$AA@ DB 'PotionDelay', 00H ; `string'
CONST	ENDS
;	COMDAT ??_C@_0BH@PCNOGLEL@NoobBuffDefencePercent?$AA@
CONST	SEGMENT
??_C@_0BH@PCNOGLEL@NoobBuffDefencePercent?$AA@ DB 'NoobBuffDefencePercent'
	DB	00H						; `string'
CONST	ENDS
;	COMDAT ??_C@_0BG@IIMIEODH@NoobBuffDamagePercent?$AA@
CONST	SEGMENT
??_C@_0BG@IIMIEODH@NoobBuffDamagePercent?$AA@ DB 'NoobBuffDamagePercent', 00H ; `string'
CONST	ENDS
;	COMDAT ??_C@_0BB@GDDGHPJM@NoobBuffMaxReset?$AA@
CONST	SEGMENT
??_C@_0BB@GDDGHPJM@NoobBuffMaxReset?$AA@ DB 'NoobBuffMaxReset', 00H ; `string'
CONST	ENDS
;	COMDAT ??_C@_0P@NHEJBOPE@NoobBuffEnable?$AA@
CONST	SEGMENT
??_C@_0P@NHEJBOPE@NoobBuffEnable?$AA@ DB 'NoobBuffEnable', 00H ; `string'
CONST	ENDS
;	COMDAT ??_C@_0P@DALCDAPN@PercentKillZen?$AA@
CONST	SEGMENT
??_C@_0P@DALCDAPN@PercentKillZen?$AA@ DB 'PercentKillZen', 00H ; `string'
CONST	ENDS
;	COMDAT ??_C@_0M@DCDMAILA@ExlDropRate?$AA@
CONST	SEGMENT
??_C@_0M@DCDMAILA@ExlDropRate?$AA@ DB 'ExlDropRate', 00H ; `string'
CONST	ENDS
;	COMDAT ??_C@_09HEEKJFKJ@ReConnect?$AA@
CONST	SEGMENT
??_C@_09HEEKJFKJ@ReConnect?$AA@ DB 'ReConnect', 00H	; `string'
CONST	ENDS
;	COMDAT ??_C@_09BMIDEEAO@ArenaItem?$AA@
CONST	SEGMENT
??_C@_09BMIDEEAO@ArenaItem?$AA@ DB 'ArenaItem', 00H	; `string'
CONST	ENDS
;	COMDAT ??_C@_0BB@MCHIAFN@CommandSetLeader?$AA@
CONST	SEGMENT
??_C@_0BB@MCHIAFN@CommandSetLeader?$AA@ DB 'CommandSetLeader', 00H ; `string'
CONST	ENDS
;	COMDAT ??_C@_0O@EFBFEMGF@AutoSetLeader?$AA@
CONST	SEGMENT
??_C@_0O@EFBFEMGF@AutoSetLeader?$AA@ DB 'AutoSetLeader', 00H ; `string'
CONST	ENDS
;	COMDAT ??_C@_0M@IOKCPMBJ@RePartyTime?$AA@
CONST	SEGMENT
??_C@_0M@IOKCPMBJ@RePartyTime?$AA@ DB 'RePartyTime', 00H ; `string'
CONST	ENDS
;	COMDAT ??_C@_0O@PCMHEGFB@RePartyEnable?$AA@
CONST	SEGMENT
??_C@_0O@PCMHEGFB@RePartyEnable?$AA@ DB 'RePartyEnable', 00H ; `string'
CONST	ENDS
;	COMDAT ??_C@_0BE@CFNMLIBO@CountItemDropErohim?$AA@
CONST	SEGMENT
??_C@_0BE@CFNMLIBO@CountItemDropErohim?$AA@ DB 'CountItemDropErohim', 00H ; `string'
CONST	ENDS
;	COMDAT ??_C@_0BE@CBEBGMCE@CountItemDropKundun?$AA@
CONST	SEGMENT
??_C@_0BE@CBEBGMCE@CountItemDropKundun?$AA@ DB 'CountItemDropKundun', 00H ; `string'
CONST	ENDS
;	COMDAT ??_C@_0BF@CDBGPNPC@CountItemDropSelupan?$AA@
CONST	SEGMENT
??_C@_0BF@CDBGPNPC@CountItemDropSelupan?$AA@ DB 'CountItemDropSelupan', 00H ; `string'
CONST	ENDS
;	COMDAT ??_C@_0P@FPJLLCEA@ProcentDropZen?$AA@
CONST	SEGMENT
??_C@_0P@FPJLLCEA@ProcentDropZen?$AA@ DB 'ProcentDropZen', 00H ; `string'
CONST	ENDS
;	COMDAT ??_C@_0L@DLHIOEAJ@MaxDropZen?$AA@
CONST	SEGMENT
??_C@_0L@DLHIOEAJ@MaxDropZen?$AA@ DB 'MaxDropZen', 00H	; `string'
CONST	ENDS
;	COMDAT ??_C@_0BB@OHNOBAOE@MarlonQuestReset?$AA@
CONST	SEGMENT
??_C@_0BB@OHNOBAOE@MarlonQuestReset?$AA@ DB 'MarlonQuestReset', 00H ; `string'
CONST	ENDS
;	COMDAT ??_C@_0BC@JONOACBC@DisatanceObjViewe?$AA@
CONST	SEGMENT
??_C@_0BC@JONOACBC@DisatanceObjViewe?$AA@ DB 'DisatanceObjViewe', 00H ; `string'
CONST	ENDS
;	COMDAT ??_C@_0O@JCJOCALP@KundunAncDrop?$AA@
CONST	SEGMENT
??_C@_0O@JCJOCALP@KundunAncDrop?$AA@ DB 'KundunAncDrop', 00H ; `string'
CONST	ENDS
;	COMDAT ??_C@_05LICMIJMM@Guard?$AA@
CONST	SEGMENT
??_C@_05LICMIJMM@Guard?$AA@ DB 'Guard', 00H		; `string'
CONST	ENDS
;	COMDAT ??_C@_0N@GAKPJHLA@GuardMessage?$AA@
CONST	SEGMENT
??_C@_0N@GAKPJHLA@GuardMessage?$AA@ DB 'GuardMessage', 00H ; `string'
CONST	ENDS
;	COMDAT ??_C@_0BE@CDCKDDPK@Welcome?5to?5Ex?9Games?$AA@
CONST	SEGMENT
??_C@_0BE@CDCKDDPK@Welcome?5to?5Ex?9Games?$AA@ DB 'Welcome to Ex-Games', 00H ; `string'
CONST	ENDS
;	COMDAT ??_C@_0O@DIFEKECK@MasterDropZen?$AA@
CONST	SEGMENT
??_C@_0O@DIFEKECK@MasterDropZen?$AA@ DB 'MasterDropZen', 00H ; `string'
CONST	ENDS
;	COMDAT ??_C@_0BE@EJDHFDGH@Wing5MaxSuccessRate?$AA@
CONST	SEGMENT
??_C@_0BE@EJDHFDGH@Wing5MaxSuccessRate?$AA@ DB 'Wing5MaxSuccessRate', 00H ; `string'
CONST	ENDS
;	COMDAT ??_C@_0BE@OHFPMCPG@Wing4MaxSuccessRate?$AA@
CONST	SEGMENT
??_C@_0BE@OHFPMCPG@Wing4MaxSuccessRate?$AA@ DB 'Wing4MaxSuccessRate', 00H ; `string'
CONST	ENDS
;	COMDAT ??_C@_0BG@PAGEHNCK@Wing2_5MaxSuccessRate?$AA@
CONST	SEGMENT
??_C@_0BG@PAGEHNCK@Wing2_5MaxSuccessRate?$AA@ DB 'Wing2_5MaxSuccessRate', 00H ; `string'
CONST	ENDS
;	COMDAT ??_C@_0BA@EJDEHLBF@DinorantMixRate?$AA@
CONST	SEGMENT
??_C@_0BA@EJDEHLBF@DinorantMixRate?$AA@ DB 'DinorantMixRate', 00H ; `string'
CONST	ENDS
;	COMDAT ??_C@_0BF@PLBFDKPB@WingLv3MixMaxPercent?$AA@
CONST	SEGMENT
??_C@_0BF@PLBFDKPB@WingLv3MixMaxPercent?$AA@ DB 'WingLv3MixMaxPercent', 00H ; `string'
CONST	ENDS
;	COMDAT ??_C@_0BN@HCIIKEKG@FeatherofCondorMixMaxPercent?$AA@
CONST	SEGMENT
??_C@_0BN@HCIIKEKG@FeatherofCondorMixMaxPercent?$AA@ DB 'FeatherofCondorM'
	DB	'ixMaxPercent', 00H				; `string'
CONST	ENDS
;	COMDAT ??_C@_0BJ@GACBIDHJ@DarkSpiritMixSuccessRate?$AA@
CONST	SEGMENT
??_C@_0BJ@GACBIDHJ@DarkSpiritMixSuccessRate?$AA@ DB 'DarkSpiritMixSuccess'
	DB	'Rate', 00H					; `string'
CONST	ENDS
;	COMDAT ??_C@_0BI@GCJANFMA@DarkHorseMixSuccessRate?$AA@
CONST	SEGMENT
??_C@_0BI@GCJANFMA@DarkHorseMixSuccessRate?$AA@ DB 'DarkHorseMixSuccessRa'
	DB	'te', 00H					; `string'
CONST	ENDS
;	COMDAT ??_C@_0BE@LEMOKLBC@Wing2MaxSuccessRate?$AA@
CONST	SEGMENT
??_C@_0BE@LEMOKLBC@Wing2MaxSuccessRate?$AA@ DB 'Wing2MaxSuccessRate', 00H ; `string'
CONST	ENDS
;	COMDAT ??_C@_0BC@HBJMIEIB@MixMaxSuccessRate?$AA@
CONST	SEGMENT
??_C@_0BC@HBJMIEIB@MixMaxSuccessRate?$AA@ DB 'MixMaxSuccessRate', 00H ; `string'
CONST	ENDS
;	COMDAT ??_C@_0BC@OMCNANPE@MixLuckOptRateAdd?$AA@
CONST	SEGMENT
??_C@_0BC@OMCNANPE@MixLuckOptRateAdd?$AA@ DB 'MixLuckOptRateAdd', 00H ; `string'
CONST	ENDS
;	COMDAT ??_C@_0BH@FBDPHOOK@MixSocket15SuccessRate?$AA@
CONST	SEGMENT
??_C@_0BH@FBDPHOOK@MixSocket15SuccessRate?$AA@ DB 'MixSocket15SuccessRate'
	DB	00H						; `string'
CONST	ENDS
;	COMDAT ??_C@_0BK@MLCJJPOM@Mix380AncExc15SuccessRate?$AA@
CONST	SEGMENT
??_C@_0BK@MLCJJPOM@Mix380AncExc15SuccessRate?$AA@ DB 'Mix380AncExc15Succe'
	DB	'ssRate', 00H				; `string'
CONST	ENDS
;	COMDAT ??_C@_0BH@DOLHJBNM@MixNormal15SuccessRate?$AA@
CONST	SEGMENT
??_C@_0BH@DOLHJBNM@MixNormal15SuccessRate?$AA@ DB 'MixNormal15SuccessRate'
	DB	00H						; `string'
CONST	ENDS
;	COMDAT ??_C@_0BH@IMKJKHGP@MixSocket14SuccessRate?$AA@
CONST	SEGMENT
??_C@_0BH@IMKJKHGP@MixSocket14SuccessRate?$AA@ DB 'MixSocket14SuccessRate'
	DB	00H						; `string'
CONST	ENDS
;	COMDAT ??_C@_0BK@BGLPEGGJ@Mix380AncExc14SuccessRate?$AA@
CONST	SEGMENT
??_C@_0BK@BGLPEGGJ@Mix380AncExc14SuccessRate?$AA@ DB 'Mix380AncExc14Succe'
	DB	'ssRate', 00H				; `string'
CONST	ENDS
;	COMDAT ??_C@_0BH@ODCBEIFJ@MixNormal14SuccessRate?$AA@
CONST	SEGMENT
??_C@_0BH@ODCBEIFJ@MixNormal14SuccessRate?$AA@ DB 'MixNormal14SuccessRate'
	DB	00H						; `string'
CONST	ENDS
;	COMDAT ??_C@_0BH@PBNKKBDH@MixSocket13SuccessRate?$AA@
CONST	SEGMENT
??_C@_0BH@PBNKKBDH@MixSocket13SuccessRate?$AA@ DB 'MixSocket13SuccessRate'
	DB	00H						; `string'
CONST	ENDS
;	COMDAT ??_C@_0BK@GLMMEADB@Mix380AncExc13SuccessRate?$AA@
CONST	SEGMENT
??_C@_0BK@GLMMEADB@Mix380AncExc13SuccessRate?$AA@ DB 'Mix380AncExc13Succe'
	DB	'ssRate', 00H				; `string'
CONST	ENDS
;	COMDAT ??_C@_0BH@JOFCEOAB@MixNormal13SuccessRate?$AA@
CONST	SEGMENT
??_C@_0BH@JOFCEOAB@MixNormal13SuccessRate?$AA@ DB 'MixNormal13SuccessRate'
	DB	00H						; `string'
CONST	ENDS
;	COMDAT ??_C@_0BH@CMEMHILC@MixSocket12SuccessRate?$AA@
CONST	SEGMENT
??_C@_0BH@CMEMHILC@MixSocket12SuccessRate?$AA@ DB 'MixSocket12SuccessRate'
	DB	00H						; `string'
CONST	ENDS
;	COMDAT ??_C@_0BK@LGFKJJLE@Mix380AncExc12SuccessRate?$AA@
CONST	SEGMENT
??_C@_0BK@LGFKJJLE@Mix380AncExc12SuccessRate?$AA@ DB 'Mix380AncExc12Succe'
	DB	'ssRate', 00H				; `string'
CONST	ENDS
;	COMDAT ??_C@_0BH@EDMEJHIE@MixNormal12SuccessRate?$AA@
CONST	SEGMENT
??_C@_0BH@EDMEJHIE@MixNormal12SuccessRate?$AA@ DB 'MixNormal12SuccessRate'
	DB	00H						; `string'
CONST	ENDS
;	COMDAT ??_C@_0BH@JBIGBEHM@MixSocket11SuccessRate?$AA@
CONST	SEGMENT
??_C@_0BH@JBIGBEHM@MixSocket11SuccessRate?$AA@ DB 'MixSocket11SuccessRate'
	DB	00H						; `string'
CONST	ENDS
;	COMDAT ??_C@_0BK@LJAPFHK@Mix380AncExc11SuccessRate?$AA@
CONST	SEGMENT
??_C@_0BK@LJAPFHK@Mix380AncExc11SuccessRate?$AA@ DB 'Mix380AncExc11Succes'
	DB	'sRate', 00H					; `string'
CONST	ENDS
;	COMDAT ??_C@_0BH@POAOPLEK@MixNormal11SuccessRate?$AA@
CONST	SEGMENT
??_C@_0BH@POAOPLEK@MixNormal11SuccessRate?$AA@ DB 'MixNormal11SuccessRate'
	DB	00H						; `string'
CONST	ENDS
;	COMDAT ??_C@_0BH@EMBAMNPJ@MixSocket10SuccessRate?$AA@
CONST	SEGMENT
??_C@_0BH@EMBAMNPJ@MixSocket10SuccessRate?$AA@ DB 'MixSocket10SuccessRate'
	DB	00H						; `string'
CONST	ENDS
;	COMDAT ??_C@_0BK@NGAGCMPP@Mix380AncExc10SuccessRate?$AA@
CONST	SEGMENT
??_C@_0BK@NGAGCMPP@Mix380AncExc10SuccessRate?$AA@ DB 'Mix380AncExc10Succe'
	DB	'ssRate', 00H				; `string'
CONST	ENDS
;	COMDAT ??_C@_0BH@CDJICCMP@MixNormal10SuccessRate?$AA@
CONST	SEGMENT
??_C@_0BH@CDJICCMP@MixNormal10SuccessRate?$AA@ DB 'MixNormal10SuccessRate'
	DB	00H						; `string'
CONST	ENDS
;	COMDAT ??_C@_0L@BAKJPIHJ@DeleteLogs?$AA@
CONST	SEGMENT
??_C@_0L@BAKJPIHJ@DeleteLogs?$AA@ DB 'DeleteLogs', 00H	; `string'
CONST	ENDS
;	COMDAT ??_C@_0L@FGHOFJAN@PersonalID?$AA@
CONST	SEGMENT
??_C@_0L@FGHOFJAN@PersonalID?$AA@ DB 'PersonalID', 00H	; `string'
CONST	ENDS
;	COMDAT ??_C@_08BPDKCIGK@CheckSum?$AA@
CONST	SEGMENT
??_C@_08BPDKCIGK@CheckSum?$AA@ DB 'CheckSum', 00H	; `string'
CONST	ENDS
;	COMDAT ??_C@_0BK@LPKPDKGD@?4?4?2Data?2ZtData?2Common?4ini?$AA@
CONST	SEGMENT
??_C@_0BK@LPKPDKGD@?4?4?2Data?2ZtData?2Common?4ini?$AA@ DB '..\Data\ZtDat'
	DB	'a\Common.ini', 00H				; `string'
CONST	ENDS
;	COMDAT ??_C@_08BFKFNBGC@MaxLevel?$AA@
CONST	SEGMENT
??_C@_08BFKFNBGC@MaxLevel?$AA@ DB 'MaxLevel', 00H	; `string'
CONST	ENDS
;	COMDAT ??_C@_0P@CCLLNAEF@MultiWarehouse?$AA@
CONST	SEGMENT
??_C@_0P@CCLLNAEF@MultiWarehouse?$AA@ DB 'MultiWarehouse', 00H ; `string'
CONST	ENDS
;	COMDAT ??_C@_0L@PHGOHEFN@DonateShop?$AA@
CONST	SEGMENT
??_C@_0L@PHGOHEFN@DonateShop?$AA@ DB 'DonateShop', 00H	; `string'
CONST	ENDS
;	COMDAT ??_C@_08KNIMID@PostItem?$AA@
CONST	SEGMENT
??_C@_08KNIMID@PostItem?$AA@ DB 'PostItem', 00H		; `string'
CONST	ENDS
;	COMDAT ??_C@_0BD@KMKHPDOP@DivFireScreamSpeed?$AA@
CONST	SEGMENT
??_C@_0BD@KMKHPDOP@DivFireScreamSpeed?$AA@ DB 'DivFireScreamSpeed', 00H ; `string'
CONST	ENDS
;	COMDAT ??_C@_0N@JDNGCJM@MasterSkills?$AA@
CONST	SEGMENT
??_C@_0N@JDNGCJM@MasterSkills?$AA@ DB 'MasterSkills', 00H ; `string'
CONST	ENDS
;	COMDAT ??_C@_09PCFKOPAI@DLReflect?$AA@
CONST	SEGMENT
??_C@_09PCFKOPAI@DLReflect?$AA@ DB 'DLReflect', 00H	; `string'
CONST	ENDS
;	COMDAT ??_C@_0BA@JHMAKOGB@CreateMONKLevel?$AA@
CONST	SEGMENT
??_C@_0BA@JHMAKOGB@CreateMONKLevel?$AA@ DB 'CreateMONKLevel', 00H ; `string'
CONST	ENDS
;	COMDAT ??_C@_0P@LCDIEJDJ@CreateSUMLevel?$AA@
CONST	SEGMENT
??_C@_0P@LCDIEJDJ@CreateSUMLevel?$AA@ DB 'CreateSUMLevel', 00H ; `string'
CONST	ENDS
;	COMDAT ??_C@_0O@MPPNBNCE@CreateDLLevel?$AA@
CONST	SEGMENT
??_C@_0O@MPPNBNCE@CreateDLLevel?$AA@ DB 'CreateDLLevel', 00H ; `string'
CONST	ENDS
;	COMDAT ??_C@_0O@NCLFFCPF@CreateMGLevel?$AA@
CONST	SEGMENT
??_C@_0O@NCLFFCPF@CreateMGLevel?$AA@ DB 'CreateMGLevel', 00H ; `string'
CONST	ENDS
;	COMDAT ??_C@_0M@ICCLDJIL@EnableHPBar?$AA@
CONST	SEGMENT
??_C@_0M@ICCLDJIL@EnableHPBar?$AA@ DB 'EnableHPBar', 00H ; `string'
CONST	ENDS
;	COMDAT ??_C@_0BA@FACLGDII@ClientAntiCheat?$AA@
CONST	SEGMENT
??_C@_0BA@FACLGDII@ClientAntiCheat?$AA@ DB 'ClientAntiCheat', 00H ; `string'
CONST	ENDS
;	COMDAT ??_C@_0BE@LBCOHCJL@MoveTargetPosEffect?$AA@
CONST	SEGMENT
??_C@_0BE@LBCOHCJL@MoveTargetPosEffect?$AA@ DB 'MoveTargetPosEffect', 00H ; `string'
CONST	ENDS
;	COMDAT ??_C@_06GMDPMMC@Top100?$AA@
CONST	SEGMENT
??_C@_06GMDPMMC@Top100?$AA@ DB 'Top100', 00H		; `string'
CONST	ENDS
;	COMDAT ??_C@_09EGDCOCMF@AutoParty?$AA@
CONST	SEGMENT
??_C@_09EGDCOCMF@AutoParty?$AA@ DB 'AutoParty', 00H	; `string'
CONST	ENDS
;	COMDAT ??_C@_0BD@MAJIDFMA@HelperClickerLevel?$AA@
CONST	SEGMENT
??_C@_0BD@MAJIDFMA@HelperClickerLevel?$AA@ DB 'HelperClickerLevel', 00H ; `string'
CONST	ENDS
;	COMDAT ??_C@_06CNKIADGI@ZtTeam?$AA@
CONST	SEGMENT
??_C@_06CNKIADGI@ZtTeam?$AA@ DB 'ZtTeam', 00H		; `string'
CONST	ENDS
;	COMDAT ??_C@_0L@FCEPFPBL@SwitchChar?$AA@
CONST	SEGMENT
??_C@_0L@FCEPFPBL@SwitchChar?$AA@ DB 'SwitchChar', 00H	; `string'
CONST	ENDS
;	COMDAT ??_C@_0BM@FGLABAKE@?4?4?2Data?2ZtData?2ZtCustom?4ini?$AA@
CONST	SEGMENT
??_C@_0BM@FGLABAKE@?4?4?2Data?2ZtData?2ZtCustom?4ini?$AA@ DB '..\Data\ZtD'
	DB	'ata\ZtCustom.ini', 00H			; `string'
; Function compile flags: /Ogtp
CONST	ENDS
;	COMDAT ?LoadConfigs@cZtConfigs@@QAEX_N@Z
_TEXT	SEGMENT
_n$215468 = -276					; size = 8
_Flag$215461 = -268					; size = 4
_file$215456 = -264					; size = 4
_Buff$215460 = -260					; size = 256
__$ArrayPad$ = -4					; size = 4
_isExReload$ = 8					; size = 1
?LoadConfigs@cZtConfigs@@QAEX_N@Z PROC			; cZtConfigs::LoadConfigs, COMDAT
; _this$ = ecx

; 85   : {

  00000	55		 push	 ebp
  00001	8b ec		 mov	 ebp, esp
  00003	81 ec 14 01 00
	00		 sub	 esp, 276		; 00000114H
  00009	a1 00 00 00 00	 mov	 eax, DWORD PTR ___security_cookie
  0000e	33 c5		 xor	 eax, ebp
  00010	89 45 fc	 mov	 DWORD PTR __$ArrayPad$[ebp], eax
  00013	56		 push	 esi
  00014	8b f1		 mov	 esi, ecx
  00016	57		 push	 edi

; 86   : 	g_UserConfig.Load();

  00017	b9 00 00 00 00	 mov	 ecx, OFFSET ?g_UserConfig@@3VCUserConfig@@A ; g_UserConfig
  0001c	e8 00 00 00 00	 call	 ?Load@CUserConfig@@QAEXXZ ; CUserConfig::Load

; 87   : 
; 88   : #if(CUSTOM_SMITHY == TRUE)
; 89   : 	g_Smithy.Load();

  00021	b9 00 00 00 00	 mov	 ecx, OFFSET ?g_Smithy@@3VCSmithy@@A ; g_Smithy
  00026	e8 00 00 00 00	 call	 ?Load@CSmithy@@QAEXXZ	; CSmithy::Load

; 90   : #endif
; 91   : 
; 92   : 	g_TeleportShop.Load();

  0002b	b9 00 00 00 00	 mov	 ecx, OFFSET ?g_TeleportShop@@3VTeleportShop@@A ; g_TeleportShop
  00030	e8 00 00 00 00	 call	 ?Load@TeleportShop@@QAEXXZ ; TeleportShop::Load

; 93   : 
; 94   : 	if(g_ZtLicense.user.BloodHound)

  00035	80 3d cf 00 00
	00 00		 cmp	 BYTE PTR ?g_ZtLicense@@3VCZtLicense@@A+207, 0
  0003c	74 0a		 je	 SHORT $LN54@LoadConfig

; 95   : 	{
; 96   : 		BloodHound.ReedConfig();

  0003e	b9 00 00 00 00	 mov	 ecx, OFFSET ?BloodHound@@3VcBloodHound@@A ; BloodHound
  00043	e8 00 00 00 00	 call	 ?ReedConfig@cBloodHound@@QAEXXZ ; cBloodHound::ReedConfig
$LN54@LoadConfig:

; 97   : 	}
; 98   : 
; 99   : 	gResetSystem.Load();

  00048	b9 00 00 00 00	 mov	 ecx, OFFSET ?gResetSystem@@3VcResetSystem@@A ; gResetSystem
  0004d	e8 00 00 00 00	 call	 ?Load@cResetSystem@@QAEXXZ ; cResetSystem::Load

; 100  : 	OffExp.LoadConfig();

  00052	b9 00 00 00 00	 mov	 ecx, OFFSET ?OffExp@@3VcOffExp@@A ; OffExp
  00057	e8 00 00 00 00	 call	 ?LoadConfig@cOffExp@@QAEXXZ ; cOffExp::LoadConfig

; 101  : 	gGrandReset.Load();

  0005c	b9 00 00 00 00	 mov	 ecx, OFFSET ?gGrandReset@@3VcGrandReset@@A ; gGrandReset
  00061	e8 00 00 00 00	 call	 ?Load@cGrandReset@@QAEXXZ ; cGrandReset::Load

; 102  : 	HappyHour.LoadConfig();

  00066	b9 00 00 00 00	 mov	 ecx, OFFSET ?HappyHour@@3VcHappyHour@@A ; HappyHour
  0006b	e8 00 00 00 00	 call	 ?LoadConfig@cHappyHour@@QAEXXZ ; cHappyHour::LoadConfig

; 103  : 
; 104  : #ifdef _OFFTRADE_
; 105  : 	gOffTrade.Load();

  00070	b9 00 00 00 00	 mov	 ecx, OFFSET ?gOffTrade@@3VcOffTrade@@A ; gOffTrade
  00075	e8 00 00 00 00	 call	 ?Load@cOffTrade@@QAEXXZ	; cOffTrade::Load

; 106  : #endif
; 107  : 	ZtQuestSystem.Loader();

  0007a	b9 00 00 00 00	 mov	 ecx, OFFSET ?ZtQuestSystem@@3VcZtQuest@@A ; ZtQuestSystem
  0007f	e8 00 00 00 00	 call	 ?Loader@cZtQuest@@QAEXXZ ; cZtQuest::Loader

; 108  : 	DropZenManager.LoadConfig();

  00084	b9 00 00 00 00	 mov	 ecx, OFFSET ?DropZenManager@@3VcDropZenManager@@A ; DropZenManager
  00089	e8 00 00 00 00	 call	 ?LoadConfig@cDropZenManager@@QAEXXZ ; cDropZenManager::LoadConfig

; 109  : 
; 110  : 	gMapExp.LoadConfig();

  0008e	b9 00 00 00 00	 mov	 ecx, OFFSET ?gMapExp@@3VcMapExp@@A ; gMapExp
  00093	e8 00 00 00 00	 call	 ?LoadConfig@cMapExp@@QAEXXZ ; cMapExp::LoadConfig

; 111  : 
; 112  : 	PvPMapSystem.LoadConfig();

  00098	b9 00 00 00 00	 mov	 ecx, OFFSET ?PvPMapSystem@@3VcPvPMapSystem@@A ; PvPMapSystem
  0009d	e8 00 00 00 00	 call	 ?LoadConfig@cPvPMapSystem@@QAEXXZ ; cPvPMapSystem::LoadConfig

; 113  : 
; 114  : 	PriceManager.LoadConfig();

  000a2	b9 00 00 00 00	 mov	 ecx, OFFSET ?PriceManager@@3VcPriceManager@@A ; PriceManager
  000a7	e8 00 00 00 00	 call	 ?LoadConfig@cPriceManager@@QAEXXZ ; cPriceManager::LoadConfig

; 115  : 	DropEvent.LoadFile();

  000ac	b9 00 00 00 00	 mov	 ecx, OFFSET ?DropEvent@@3VcDropEvent@@A ; DropEvent
  000b1	e8 00 00 00 00	 call	 ?LoadFile@cDropEvent@@QAEXXZ ; cDropEvent::LoadFile

; 116  : 	SearchEvent.LoadingEvent();

  000b6	b9 00 00 00 00	 mov	 ecx, OFFSET ?SearchEvent@@3VcSearchEvent@@A ; SearchEvent
  000bb	e8 00 00 00 00	 call	 ?LoadingEvent@cSearchEvent@@QAEXXZ ; cSearchEvent::LoadingEvent

; 117  : 	Premium.Loader();

  000c0	b9 00 00 00 00	 mov	 ecx, OFFSET ?Premium@@3VPremiumSystem@@A ; Premium
  000c5	e8 00 00 00 00	 call	 ?Loader@PremiumSystem@@QAEXXZ ; PremiumSystem::Loader

; 118  : #ifdef ZT_RELOAD_RAGE_SILVER
; 119  : 	if(g_ZtLicense.CheckUser(eZtUB::Local3) || g_ZtLicense.CheckUser(SILVER1) || g_ZtLicense.CheckUser(SILVER2))

  000ca	6a 1c		 push	 28			; 0000001cH
  000cc	b9 00 00 00 00	 mov	 ecx, OFFSET ?g_ZtLicense@@3VCZtLicense@@A ; g_ZtLicense
  000d1	e8 00 00 00 00	 call	 ?CheckUser@CZtLicense@@QAE_NH@Z ; CZtLicense::CheckUser
  000d6	84 c0		 test	 al, al
  000d8	75 2a		 jne	 SHORT $LN52@LoadConfig
  000da	6a 07		 push	 7
  000dc	b9 00 00 00 00	 mov	 ecx, OFFSET ?g_ZtLicense@@3VCZtLicense@@A ; g_ZtLicense
  000e1	e8 00 00 00 00	 call	 ?CheckUser@CZtLicense@@QAE_NH@Z ; CZtLicense::CheckUser
  000e6	84 c0		 test	 al, al
  000e8	75 1a		 jne	 SHORT $LN52@LoadConfig
  000ea	6a 08		 push	 8
  000ec	b9 00 00 00 00	 mov	 ecx, OFFSET ?g_ZtLicense@@3VCZtLicense@@A ; g_ZtLicense
  000f1	e8 00 00 00 00	 call	 ?CheckUser@CZtLicense@@QAE_NH@Z ; CZtLicense::CheckUser
  000f6	84 c0		 test	 al, al
  000f8	75 0a		 jne	 SHORT $LN52@LoadConfig

; 124  : 		}
; 125  : 	}
; 126  : 	else
; 127  : 	{
; 128  : 		if(g_ZtLicense.user.Rage)

  000fa	38 05 cd 00 00
	00		 cmp	 BYTE PTR ?g_ZtLicense@@3VCZtLicense@@A+205, al
  00100	74 1b		 je	 SHORT $LN51@LoadConfig

; 129  : 		{
; 130  : 			gSystemOfRage.Load();

  00102	eb 0f		 jmp	 SHORT $LN81@LoadConfig
$LN52@LoadConfig:

; 120  : 	{
; 121  : 		if(	g_ZtLicense.user.Rage && (!isExReload)	)

  00104	80 3d cd 00 00
	00 00		 cmp	 BYTE PTR ?g_ZtLicense@@3VCZtLicense@@A+205, 0
  0010b	74 10		 je	 SHORT $LN51@LoadConfig
  0010d	80 7d 08 00	 cmp	 BYTE PTR _isExReload$[ebp], 0
  00111	75 0a		 jne	 SHORT $LN51@LoadConfig
$LN81@LoadConfig:

; 122  : 		{
; 123  : 			gSystemOfRage.Load();

  00113	b9 00 00 00 00	 mov	 ecx, OFFSET ?gSystemOfRage@@3VcSystemOfRage@@A ; gSystemOfRage
  00118	e8 00 00 00 00	 call	 ?Load@cSystemOfRage@@QAEXXZ ; cSystemOfRage::Load
$LN51@LoadConfig:

; 131  : 		}
; 132  : 	}
; 133  : #else
; 134  : 	if(g_ZtLicense.user.Rage)
; 135  : 		{
; 136  : 			gSystemOfRage.Load();
; 137  : 		}
; 138  : #endif
; 139  : 
; 140  : 	gBlockMoveIteml.Load();

  0011d	b9 00 00 00 00	 mov	 ecx, OFFSET ?gBlockMoveIteml@@3VcBlockMoveItem@@A ; gBlockMoveIteml
  00122	e8 00 00 00 00	 call	 ?Load@cBlockMoveItem@@QAEXXZ ; cBlockMoveItem::Load

; 141  : 
; 142  : 	gItemDropManager.Init();

  00127	b9 00 00 00 00	 mov	 ecx, OFFSET ?gItemDropManager@@3VCItemDropManager@@A ; gItemDropManager
  0012c	e8 00 00 00 00	 call	 ?Init@CItemDropManager@@QAEXXZ ; CItemDropManager::Init

; 143  : 
; 144  : 	gNewJewels.Load();

  00131	b9 00 00 00 00	 mov	 ecx, OFFSET ?gNewJewels@@3VcNewJewels@@A ; gNewJewels
  00136	e8 00 00 00 00	 call	 ?Load@cNewJewels@@QAEXXZ ; cNewJewels::Load

; 145  : 
; 146  : 	gOnlineBonus.Load();

  0013b	b9 00 00 00 00	 mov	 ecx, OFFSET ?gOnlineBonus@@3VOnlineBonus@@A ; gOnlineBonus
  00140	e8 00 00 00 00	 call	 ?Load@OnlineBonus@@QAEXXZ ; OnlineBonus::Load

; 147  : 	gJewelsBank.Load();

  00145	b9 00 00 00 00	 mov	 ecx, OFFSET ?gJewelsBank@@3VJewelsBank@@A ; gJewelsBank
  0014a	e8 00 00 00 00	 call	 ?Load@JewelsBank@@QAEXXZ ; JewelsBank::Load

; 148  : #ifdef _VOTER_
; 149  : 	gVoter.Init();

  0014f	b9 00 00 00 00	 mov	 ecx, OFFSET ?gVoter@@3VVoter@@A ; gVoter
  00154	e8 00 00 00 00	 call	 ?Init@Voter@@QAEXXZ	; Voter::Init

; 150  : #endif
; 151  : 	gCreditDonate.Load();

  00159	b9 00 00 00 00	 mov	 ecx, OFFSET ?gCreditDonate@@3VcCreditDonate@@A ; gCreditDonate
  0015e	e8 00 00 00 00	 call	 ?Load@cCreditDonate@@QAEXXZ ; cCreditDonate::Load

; 152  : 
; 153  : 	if(g_ZtLicense.user.WinQuest)

  00163	80 3d ce 00 00
	00 00		 cmp	 BYTE PTR ?g_ZtLicense@@3VCZtLicense@@A+206, 0
  0016a	74 0a		 je	 SHORT $LN48@LoadConfig

; 154  : 	{
; 155  : 		gWinQuestSystem.Init();

  0016c	b9 00 00 00 00	 mov	 ecx, OFFSET ?gWinQuestSystem@@3VcWinQuestSystem@@A ; gWinQuestSystem
  00171	e8 00 00 00 00	 call	 ?Init@cWinQuestSystem@@QAEXXZ ; cWinQuestSystem::Init
$LN48@LoadConfig:

; 156  : 	}
; 157  : 
; 158  : 	gExclusiveOptions.Load();

  00176	b9 00 00 00 00	 mov	 ecx, OFFSET ?gExclusiveOptions@@3VcExclusiveOptions@@A ; gExclusiveOptions
  0017b	e8 00 00 00 00	 call	 ?Load@cExclusiveOptions@@QAEXXZ ; cExclusiveOptions::Load

; 159  : 
; 160  : 	gTeleportManager.Load();

  00180	b9 00 00 00 00	 mov	 ecx, OFFSET ?gTeleportManager@@3VcTeleportManager@@A ; gTeleportManager
  00185	e8 00 00 00 00	 call	 ?Load@cTeleportManager@@QAEXXZ ; cTeleportManager::Load

; 161  : 
; 162  : 	gMaxPower.Load();

  0018a	b9 00 00 00 00	 mov	 ecx, OFFSET ?gMaxPower@@3VcMaxPower@@A ; gMaxPower
  0018f	e8 00 00 00 00	 call	 ?Load@cMaxPower@@QAEXXZ	; cMaxPower::Load

; 163  : 
; 164  : 	gEventTimer.LoadTimer();

  00194	b9 00 00 00 00	 mov	 ecx, OFFSET ?gEventTimer@@3VcEventTimer@@A ; gEventTimer
  00199	e8 00 00 00 00	 call	 ?LoadTimer@cEventTimer@@QAEXXZ ; cEventTimer::LoadTimer

; 165  : 
; 166  : 	gMonsterBonus.Load();

  0019e	b9 00 00 00 00	 mov	 ecx, OFFSET ?gMonsterBonus@@3VcMonsterBonus@@A ; gMonsterBonus
  001a3	e8 00 00 00 00	 call	 ?Load@cMonsterBonus@@QAEXXZ ; cMonsterBonus::Load

; 167  : 
; 168  : 	ChaosMixManager.Init();

  001a8	b9 00 00 00 00	 mov	 ecx, OFFSET ?ChaosMixManager@@3VcChaosMixManager@@A ; ChaosMixManager
  001ad	e8 00 00 00 00	 call	 ?Init@cChaosMixManager@@QAEXXZ ; cChaosMixManager::Init

; 169  : 
; 170  : 	g_MixOption.Load();

  001b2	b9 00 00 00 00	 mov	 ecx, OFFSET ?g_MixOption@@3VMixOption@@A ; g_MixOption
  001b7	e8 00 00 00 00	 call	 ?Load@MixOption@@QAEXXZ	; MixOption::Load

; 171  : #ifdef PRIVATE_MODULE
; 172  : 	if(g_ZtLicense.user.MonsterQuest)

  001bc	80 3d d0 00 00
	00 00		 cmp	 BYTE PTR ?g_ZtLicense@@3VCZtLicense@@A+208, 0
  001c3	74 0a		 je	 SHORT $LN47@LoadConfig

; 173  : 	{
; 174  : 		gMonsterQuest.Load();

  001c5	b9 00 00 00 00	 mov	 ecx, OFFSET ?gMonsterQuest@@3VMonsterQuest@@A ; gMonsterQuest
  001ca	e8 00 00 00 00	 call	 ?Load@MonsterQuest@@QAEXXZ ; MonsterQuest::Load
$LN47@LoadConfig:

; 175  : 	}
; 176  : #endif
; 177  : 
; 178  : 	if(g_ZtLicense.user.TvTEvent)

  001cf	80 3d d1 00 00
	00 00		 cmp	 BYTE PTR ?g_ZtLicense@@3VCZtLicense@@A+209, 0
  001d6	74 0a		 je	 SHORT $LN46@LoadConfig

; 179  : 	{
; 180  : 		TvT.Load();

  001d8	b9 00 00 00 00	 mov	 ecx, OFFSET ?TvT@@3VcTvTEvent@@A ; TvT
  001dd	e8 00 00 00 00	 call	 ?Load@cTvTEvent@@QAEXXZ	; cTvTEvent::Load
$LN46@LoadConfig:

; 181  : 	}
; 182  : #if(GRAND_HERO_DEV)
; 183  : 	GrandHero.Load();

  001e2	b9 00 00 00 00	 mov	 ecx, OFFSET ?GrandHero@@3VcGrandHero@@A ; GrandHero
  001e7	e8 00 00 00 00	 call	 ?Load@cGrandHero@@QAEXXZ ; cGrandHero::Load

; 184  : #endif
; 185  : #ifdef _BALANS_SYSTEM_
; 186  : 	gBalanceSystem.Load();

  001ec	b9 00 00 00 00	 mov	 ecx, OFFSET ?gBalanceSystem@@3VcBalanceSystem@@A ; gBalanceSystem
  001f1	e8 00 00 00 00	 call	 ?Load@cBalanceSystem@@QAEXXZ ; cBalanceSystem::Load

; 187  : #endif
; 188  : 
; 189  : 	
; 190  : #ifdef CALCULATOR_MANAGER
; 191  : 	if (g_ZtLicense.CheckUser(eZtUB::ulasevich) || g_ZtLicense.CheckUser(eZtUB::ConflictNoCustom) || g_ZtLicense.CheckUser(eZtUB::ulasevich2))

  001f6	6a 17		 push	 23			; 00000017H
  001f8	b9 00 00 00 00	 mov	 ecx, OFFSET ?g_ZtLicense@@3VCZtLicense@@A ; g_ZtLicense
  001fd	e8 00 00 00 00	 call	 ?CheckUser@CZtLicense@@QAE_NH@Z ; CZtLicense::CheckUser
  00202	84 c0		 test	 al, al
  00204	75 20		 jne	 SHORT $LN75@LoadConfig
  00206	6a 28		 push	 40			; 00000028H
  00208	b9 00 00 00 00	 mov	 ecx, OFFSET ?g_ZtLicense@@3VCZtLicense@@A ; g_ZtLicense
  0020d	e8 00 00 00 00	 call	 ?CheckUser@CZtLicense@@QAE_NH@Z ; CZtLicense::CheckUser
  00212	84 c0		 test	 al, al
  00214	75 10		 jne	 SHORT $LN75@LoadConfig
  00216	6a 24		 push	 36			; 00000024H
  00218	b9 00 00 00 00	 mov	 ecx, OFFSET ?g_ZtLicense@@3VCZtLicense@@A ; g_ZtLicense
  0021d	e8 00 00 00 00	 call	 ?CheckUser@CZtLicense@@QAE_NH@Z ; CZtLicense::CheckUser
  00222	84 c0		 test	 al, al
  00224	74 0a		 je	 SHORT $LN45@LoadConfig
$LN75@LoadConfig:

; 192  : 	{
; 193  : 		CalculatorManager.Load();

  00226	b9 00 00 00 00	 mov	 ecx, OFFSET ?CalculatorManager@@3VcCalculatorManager@@A ; CalculatorManager
  0022b	e8 00 00 00 00	 call	 ?Load@cCalculatorManager@@QAEXXZ ; cCalculatorManager::Load
$LN45@LoadConfig:

; 194  : 	}
; 195  : #endif
; 196  : 	
; 197  : 
; 198  : 
; 199  : #ifdef DS_REWARD_ITEM
; 200  : 	gDevilSquareRewardItem.Load();

  00230	b9 00 00 00 00	 mov	 ecx, OFFSET ?gDevilSquareRewardItem@@3VcDevilSquareRewardItem@@A ; gDevilSquareRewardItem
  00235	e8 00 00 00 00	 call	 ?Load@cDevilSquareRewardItem@@QAEXXZ ; cDevilSquareRewardItem::Load

; 201  : 	gBloodCastleRewardItem.Load();

  0023a	b9 00 00 00 00	 mov	 ecx, OFFSET ?gBloodCastleRewardItem@@3VcBloodCastleRewardItem@@A ; gBloodCastleRewardItem
  0023f	e8 00 00 00 00	 call	 ?Load@cBloodCastleRewardItem@@QAEXXZ ; cBloodCastleRewardItem::Load

; 202  : #endif // DS_REWARD_ITEM
; 203  : 	gChaosCastleRewardItem.Load();

  00244	b9 00 00 00 00	 mov	 ecx, OFFSET ?gChaosCastleRewardItem@@3VCChaosCastleRewardItem@@A ; gChaosCastleRewardItem
  00249	e8 00 00 00 00	 call	 ?Load@CChaosCastleRewardItem@@QAEXXZ ; CChaosCastleRewardItem::Load

; 204  : #ifdef _WINGS_DAMAGE_
; 205  : 	gWingsDamage.Load();

  0024e	b9 00 00 00 00	 mov	 ecx, OFFSET ?gWingsDamage@@3VcWingsDamage@@A ; gWingsDamage
  00253	e8 00 00 00 00	 call	 ?Load@cWingsDamage@@QAEXXZ ; cWingsDamage::Load

; 206  : #endif // _WINGS_DAMAGE_
; 207  : #ifdef BOSS_REWARD_ITEM
; 208  : 	gBossRewardItem.Init();

  00258	b9 00 00 00 00	 mov	 ecx, OFFSET ?gBossRewardItem@@3VcBossRewardItem@@A ; gBossRewardItem
  0025d	e8 00 00 00 00	 call	 ?Init@cBossRewardItem@@QAEXXZ ; cBossRewardItem::Init

; 209  : #endif // BOSS_REWARD_ITEM
; 210  : 	gCustomNpc.Load();

  00262	b9 00 00 00 00	 mov	 ecx, OFFSET ?gCustomNpc@@3VcCustomNpc@@A ; gCustomNpc
  00267	e8 00 00 00 00	 call	 ?Load@cCustomNpc@@QAEXXZ ; cCustomNpc::Load

; 211  : #ifdef LORA_BATTLE_EVENT
; 212  : 	//if(g_ZtLicense.CheckUser(eZtUB::Gredy) || g_ZtLicense.CheckUser(eZtUB::GredyLocal) || g_ZtLicense.CheckUser(eZtUB::Gredy2))
; 213  : 	{
; 214  : 		LoraBattle.LoadConfigs();

  0026c	b9 00 00 00 00	 mov	 ecx, OFFSET ?LoraBattle@@3VcLoraBattle@@A ; LoraBattle
  00271	e8 00 00 00 00	 call	 ?LoadConfigs@cLoraBattle@@QAEXXZ ; cLoraBattle::LoadConfigs

; 215  : 	}
; 216  : #endif // LORA_BATTLE_EVENT
; 217  : 
; 218  : #if(EVENT_DEVIASBATTLE)
; 219  : 	if(g_ZtLicense.CheckUser(eZtUB::Gredy) || g_ZtLicense.CheckUser(eZtUB::GredyLocal) || g_ZtLicense.CheckUser(eZtUB::Gredy2))

  00276	6a 20		 push	 32			; 00000020H
  00278	b9 00 00 00 00	 mov	 ecx, OFFSET ?g_ZtLicense@@3VCZtLicense@@A ; g_ZtLicense
  0027d	e8 00 00 00 00	 call	 ?CheckUser@CZtLicense@@QAE_NH@Z ; CZtLicense::CheckUser
  00282	84 c0		 test	 al, al
  00284	75 20		 jne	 SHORT $LN42@LoadConfig
  00286	6a 21		 push	 33			; 00000021H
  00288	b9 00 00 00 00	 mov	 ecx, OFFSET ?g_ZtLicense@@3VCZtLicense@@A ; g_ZtLicense
  0028d	e8 00 00 00 00	 call	 ?CheckUser@CZtLicense@@QAE_NH@Z ; CZtLicense::CheckUser
  00292	84 c0		 test	 al, al
  00294	75 10		 jne	 SHORT $LN42@LoadConfig
  00296	6a 22		 push	 34			; 00000022H
  00298	b9 00 00 00 00	 mov	 ecx, OFFSET ?g_ZtLicense@@3VCZtLicense@@A ; g_ZtLicense
  0029d	e8 00 00 00 00	 call	 ?CheckUser@CZtLicense@@QAE_NH@Z ; CZtLicense::CheckUser
  002a2	84 c0		 test	 al, al
  002a4	74 0a		 je	 SHORT $LN43@LoadConfig
$LN42@LoadConfig:

; 220  : 	{
; 221  : 		g_DeviasBattle.LoadConfigs();

  002a6	b9 00 00 00 00	 mov	 ecx, OFFSET ?g_DeviasBattle@@3VCDeviasBattle@@A ; g_DeviasBattle
  002ab	e8 00 00 00 00	 call	 ?LoadConfigs@CDeviasBattle@@QAEXXZ ; CDeviasBattle::LoadConfigs
$LN43@LoadConfig:

; 222  : 	}
; 223  : #endif
; 224  : 
; 225  : 	if(g_ZtLicense.CheckUser(eZtUB::ulasevich) || g_ZtLicense.CheckUser(eZtUB::ConflictNoCustom) || g_ZtLicense.CheckUser(eZtUB::ulasevich2))

  002b0	6a 17		 push	 23			; 00000017H
  002b2	b9 00 00 00 00	 mov	 ecx, OFFSET ?g_ZtLicense@@3VCZtLicense@@A ; g_ZtLicense
  002b7	e8 00 00 00 00	 call	 ?CheckUser@CZtLicense@@QAE_NH@Z ; CZtLicense::CheckUser
  002bc	84 c0		 test	 al, al
  002be	75 3c		 jne	 SHORT $LN79@LoadConfig
  002c0	6a 28		 push	 40			; 00000028H
  002c2	b9 00 00 00 00	 mov	 ecx, OFFSET ?g_ZtLicense@@3VCZtLicense@@A ; g_ZtLicense
  002c7	e8 00 00 00 00	 call	 ?CheckUser@CZtLicense@@QAE_NH@Z ; CZtLicense::CheckUser
  002cc	84 c0		 test	 al, al
  002ce	75 2c		 jne	 SHORT $LN79@LoadConfig
  002d0	6a 24		 push	 36			; 00000024H
  002d2	b9 00 00 00 00	 mov	 ecx, OFFSET ?g_ZtLicense@@3VCZtLicense@@A ; g_ZtLicense
  002d7	e8 00 00 00 00	 call	 ?CheckUser@CZtLicense@@QAE_NH@Z ; CZtLicense::CheckUser
  002dc	84 c0		 test	 al, al
  002de	75 1c		 jne	 SHORT $LN79@LoadConfig

; 230  : #endif
; 231  : 	}
; 232  : 	#if(LICENSE_UKRAINE)
; 233  : 	else if(g_ZtLicense.CheckUser(eZtUB::AlterMU))

  002e0	6a 3e		 push	 62			; 0000003eH
  002e2	b9 00 00 00 00	 mov	 ecx, OFFSET ?g_ZtLicense@@3VCZtLicense@@A ; g_ZtLicense
  002e7	e8 00 00 00 00	 call	 ?CheckUser@CZtLicense@@QAE_NH@Z ; CZtLicense::CheckUser
  002ec	84 c0		 test	 al, al
  002ee	74 20		 je	 SHORT $LN38@LoadConfig

; 234  : 	{
; 235  : 		gMonsterSpawner.Load();

  002f0	b9 00 00 00 00	 mov	 ecx, OFFSET ?gMonsterSpawner@@3VcMonsterSpawner@@A ; gMonsterSpawner
  002f5	e8 00 00 00 00	 call	 ?Load@cMonsterSpawner@@QAEXXZ ; cMonsterSpawner::Load
  002fa	eb 14		 jmp	 SHORT $LN38@LoadConfig
$LN79@LoadConfig:

; 226  : 	{
; 227  : 		gMonsterSpawner.Load();

  002fc	b9 00 00 00 00	 mov	 ecx, OFFSET ?gMonsterSpawner@@3VcMonsterSpawner@@A ; gMonsterSpawner
  00301	e8 00 00 00 00	 call	 ?Load@cMonsterSpawner@@QAEXXZ ; cMonsterSpawner::Load

; 228  : #ifdef PARTY_BONUS
; 229  : 		gPartyBonus.Load();

  00306	b9 00 00 00 00	 mov	 ecx, OFFSET ?gPartyBonus@@3VPartyBonus@@A ; gPartyBonus
  0030b	e8 00 00 00 00	 call	 ?Load@PartyBonus@@QAEXXZ ; PartyBonus::Load
$LN38@LoadConfig:

; 236  : 	}
; 237  : #endif
; 238  : 	AlertSystem.Load();

  00310	b9 00 00 00 00	 mov	 ecx, OFFSET ?AlertSystem@@3VcAlertSystem@@A ; AlertSystem
  00315	e8 00 00 00 00	 call	 ?Load@cAlertSystem@@QAEXXZ ; cAlertSystem::Load

; 239  : 
; 240  : 
; 241  : 
; 242  : #if(SYSTEMOF_BROTHER==TRUE)
; 243  : 	gBrotherhood.Load();

  0031a	b9 00 00 00 00	 mov	 ecx, OFFSET ?gBrotherhood@@3VBrotherhood@@A ; gBrotherhood
  0031f	e8 00 00 00 00	 call	 ?Load@Brotherhood@@QAEXXZ ; Brotherhood::Load

; 244  : #endif
; 245  : #ifdef PANDORA_EVENT
; 246  : 	if (g_ZtLicense.user.PandoraEvent)

  00324	80 3d d9 00 00
	00 00		 cmp	 BYTE PTR ?g_ZtLicense@@3VCZtLicense@@A+217, 0
  0032b	74 0a		 je	 SHORT $LN37@LoadConfig

; 247  : 	{
; 248  : 		gPandoraBoxEvent.Load();

  0032d	b9 00 00 00 00	 mov	 ecx, OFFSET ?gPandoraBoxEvent@@3VcPandoraBoxEvent@@A ; gPandoraBoxEvent
  00332	e8 00 00 00 00	 call	 ?Load@cPandoraBoxEvent@@QAEXXZ ; cPandoraBoxEvent::Load
$LN37@LoadConfig:

; 249  : 	}
; 250  : #endif // PANDORA_EVENT
; 251  : #if(CUSTOM_NEWS==TRUE)
; 252  : 	g_NewsBoard.Load();

  00337	53		 push	 ebx
  00338	b9 00 00 00 00	 mov	 ecx, OFFSET ?g_NewsBoard@@3VNewsBoard@@A ; g_NewsBoard
  0033d	e8 00 00 00 00	 call	 ?Load@NewsBoard@@QAEXXZ	; NewsBoard::Load

; 253  : #endif // NEWS_BOARD
; 254  : 
; 255  : #if(DEV_COMBO_CUSTOM==TRUE)
; 256  : 	g_ComboCustom.Load();

  00342	b9 00 00 00 00	 mov	 ecx, OFFSET ?g_ComboCustom@@3VComboCustom@@A ; g_ComboCustom
  00347	e8 00 00 00 00	 call	 ?Load@ComboCustom@@QAEXXZ ; ComboCustom::Load

; 257  : #endif
; 258  : 
; 259  : #if(CUSTOM_MARRIAGE)
; 260  : 	g_Marriage.Load();

  0034c	b9 00 00 00 00	 mov	 ecx, OFFSET ?g_Marriage@@3VCMarriage@@A ; g_Marriage
  00351	e8 00 00 00 00	 call	 ?Load@CMarriage@@QAEXXZ	; CMarriage::Load

; 261  : #endif
; 262  : 	//----------------
; 263  : 
; 264  : 	this->ZtCustom.SwitchChar = GetPrivateProfileInt("ZtTeam","SwitchChar",0,ZtCustom_DIR);

  00356	8b 3d 00 00 00
	00		 mov	 edi, DWORD PTR __imp__GetPrivateProfileIntA@16
  0035c	68 00 00 00 00	 push	 OFFSET ??_C@_0BM@FGLABAKE@?4?4?2Data?2ZtData?2ZtCustom?4ini?$AA@
  00361	6a 00		 push	 0
  00363	68 00 00 00 00	 push	 OFFSET ??_C@_0L@FCEPFPBL@SwitchChar?$AA@
  00368	68 00 00 00 00	 push	 OFFSET ??_C@_06CNKIADGI@ZtTeam?$AA@
  0036d	ff d7		 call	 edi

; 265  : 	this->ZtCustom.HelperClickerLevel = GetPrivateProfileInt("ZtTeam","HelperClickerLevel",80,ZtCustom_DIR);

  0036f	68 00 00 00 00	 push	 OFFSET ??_C@_0BM@FGLABAKE@?4?4?2Data?2ZtData?2ZtCustom?4ini?$AA@
  00374	6a 50		 push	 80			; 00000050H
  00376	68 00 00 00 00	 push	 OFFSET ??_C@_0BD@MAJIDFMA@HelperClickerLevel?$AA@
  0037b	68 00 00 00 00	 push	 OFFSET ??_C@_06CNKIADGI@ZtTeam?$AA@
  00380	89 06		 mov	 DWORD PTR [esi], eax
  00382	ff d7		 call	 edi

; 266  : 
; 267  : 	this->ZtCustom.AutoParty = GetPrivateProfileInt("ZtTeam","AutoParty",1,ZtCustom_DIR);

  00384	68 00 00 00 00	 push	 OFFSET ??_C@_0BM@FGLABAKE@?4?4?2Data?2ZtData?2ZtCustom?4ini?$AA@
  00389	6a 01		 push	 1
  0038b	68 00 00 00 00	 push	 OFFSET ??_C@_09EGDCOCMF@AutoParty?$AA@
  00390	68 00 00 00 00	 push	 OFFSET ??_C@_06CNKIADGI@ZtTeam?$AA@
  00395	89 46 04	 mov	 DWORD PTR [esi+4], eax
  00398	ff d7		 call	 edi

; 268  : 	this->ZtCustom.Top100 = GetPrivateProfileInt("ZtTeam","Top100",1,ZtCustom_DIR);

  0039a	68 00 00 00 00	 push	 OFFSET ??_C@_0BM@FGLABAKE@?4?4?2Data?2ZtData?2ZtCustom?4ini?$AA@
  0039f	6a 01		 push	 1
  003a1	85 c0		 test	 eax, eax
  003a3	68 00 00 00 00	 push	 OFFSET ??_C@_06GMDPMMC@Top100?$AA@
  003a8	0f 95 c0	 setne	 al
  003ab	68 00 00 00 00	 push	 OFFSET ??_C@_06CNKIADGI@ZtTeam?$AA@
  003b0	88 46 08	 mov	 BYTE PTR [esi+8], al
  003b3	ff d7		 call	 edi

; 269  : 	
; 270  : 	this->ZtCustom.MoveTargetPosEffect = GetPrivateProfileInt("ZtTeam","MoveTargetPosEffect",1,ZtCustom_DIR);

  003b5	68 00 00 00 00	 push	 OFFSET ??_C@_0BM@FGLABAKE@?4?4?2Data?2ZtData?2ZtCustom?4ini?$AA@
  003ba	6a 01		 push	 1
  003bc	68 00 00 00 00	 push	 OFFSET ??_C@_0BE@LBCOHCJL@MoveTargetPosEffect?$AA@
  003c1	68 00 00 00 00	 push	 OFFSET ??_C@_06CNKIADGI@ZtTeam?$AA@
  003c6	88 46 09	 mov	 BYTE PTR [esi+9], al
  003c9	ff d7		 call	 edi

; 271  : 	this->ZtCustom.ClientAntiCheat = GetPrivateProfileInt("ZtTeam","ClientAntiCheat",0,ZtCustom_DIR);

  003cb	68 00 00 00 00	 push	 OFFSET ??_C@_0BM@FGLABAKE@?4?4?2Data?2ZtData?2ZtCustom?4ini?$AA@
  003d0	6a 00		 push	 0
  003d2	68 00 00 00 00	 push	 OFFSET ??_C@_0BA@FACLGDII@ClientAntiCheat?$AA@
  003d7	68 00 00 00 00	 push	 OFFSET ??_C@_06CNKIADGI@ZtTeam?$AA@
  003dc	88 46 0a	 mov	 BYTE PTR [esi+10], al
  003df	ff d7		 call	 edi

; 272  : 
; 273  : 	this->ZtCustom.EnableHPBar = GetPrivateProfileInt("ZtTeam","EnableHPBar",1,ZtCustom_DIR);

  003e1	68 00 00 00 00	 push	 OFFSET ??_C@_0BM@FGLABAKE@?4?4?2Data?2ZtData?2ZtCustom?4ini?$AA@
  003e6	6a 01		 push	 1
  003e8	68 00 00 00 00	 push	 OFFSET ??_C@_0M@ICCLDJIL@EnableHPBar?$AA@
  003ed	68 00 00 00 00	 push	 OFFSET ??_C@_06CNKIADGI@ZtTeam?$AA@
  003f2	88 46 0b	 mov	 BYTE PTR [esi+11], al
  003f5	ff d7		 call	 edi

; 274  : 	
; 275  : 	this->ZtCustom.CreateMGLevel	= GetPrivateProfileInt("ZtTeam", "CreateMGLevel", 220, ZtCustom_DIR);

  003f7	68 00 00 00 00	 push	 OFFSET ??_C@_0BM@FGLABAKE@?4?4?2Data?2ZtData?2ZtCustom?4ini?$AA@
  003fc	68 dc 00 00 00	 push	 220			; 000000dcH
  00401	68 00 00 00 00	 push	 OFFSET ??_C@_0O@NCLFFCPF@CreateMGLevel?$AA@
  00406	68 00 00 00 00	 push	 OFFSET ??_C@_06CNKIADGI@ZtTeam?$AA@
  0040b	88 46 0c	 mov	 BYTE PTR [esi+12], al
  0040e	ff d7		 call	 edi

; 276  : 	this->ZtCustom.CreateDLLevel	= GetPrivateProfileInt("ZtTeam", "CreateDLLevel", 250, ZtCustom_DIR);

  00410	68 00 00 00 00	 push	 OFFSET ??_C@_0BM@FGLABAKE@?4?4?2Data?2ZtData?2ZtCustom?4ini?$AA@
  00415	68 fa 00 00 00	 push	 250			; 000000faH
  0041a	68 00 00 00 00	 push	 OFFSET ??_C@_0O@MPPNBNCE@CreateDLLevel?$AA@
  0041f	68 00 00 00 00	 push	 OFFSET ??_C@_06CNKIADGI@ZtTeam?$AA@
  00424	66 89 46 0e	 mov	 WORD PTR [esi+14], ax
  00428	ff d7		 call	 edi

; 277  : 	this->ZtCustom.CreateSUMLevel	= GetPrivateProfileInt("ZtTeam", "CreateSUMLevel", 150, ZtCustom_DIR);

  0042a	68 00 00 00 00	 push	 OFFSET ??_C@_0BM@FGLABAKE@?4?4?2Data?2ZtData?2ZtCustom?4ini?$AA@
  0042f	68 96 00 00 00	 push	 150			; 00000096H
  00434	68 00 00 00 00	 push	 OFFSET ??_C@_0P@LCDIEJDJ@CreateSUMLevel?$AA@
  00439	68 00 00 00 00	 push	 OFFSET ??_C@_06CNKIADGI@ZtTeam?$AA@
  0043e	66 89 46 10	 mov	 WORD PTR [esi+16], ax
  00442	ff d7		 call	 edi

; 278  : 	this->ZtCustom.CreateMONKLevel	= GetPrivateProfileInt("ZtTeam", "CreateMONKLevel", 180, ZtCustom_DIR);

  00444	68 00 00 00 00	 push	 OFFSET ??_C@_0BM@FGLABAKE@?4?4?2Data?2ZtData?2ZtCustom?4ini?$AA@
  00449	68 b4 00 00 00	 push	 180			; 000000b4H
  0044e	68 00 00 00 00	 push	 OFFSET ??_C@_0BA@JHMAKOGB@CreateMONKLevel?$AA@
  00453	68 00 00 00 00	 push	 OFFSET ??_C@_06CNKIADGI@ZtTeam?$AA@
  00458	66 89 46 12	 mov	 WORD PTR [esi+18], ax
  0045c	ff d7		 call	 edi

; 279  : 	
; 280  : 	this->ZtCustom.DLReflect = GetPrivateProfileInt("ZtTeam", "DLReflect", 0, ZtCustom_DIR);

  0045e	68 00 00 00 00	 push	 OFFSET ??_C@_0BM@FGLABAKE@?4?4?2Data?2ZtData?2ZtCustom?4ini?$AA@
  00463	6a 00		 push	 0
  00465	68 00 00 00 00	 push	 OFFSET ??_C@_09PCFKOPAI@DLReflect?$AA@
  0046a	68 00 00 00 00	 push	 OFFSET ??_C@_06CNKIADGI@ZtTeam?$AA@
  0046f	66 89 46 14	 mov	 WORD PTR [esi+20], ax
  00473	ff d7		 call	 edi

; 281  : 	this->ZtCustom.MasterSkills = GetPrivateProfileInt("ZtTeam", "MasterSkills", 1, ZtCustom_DIR);

  00475	68 00 00 00 00	 push	 OFFSET ??_C@_0BM@FGLABAKE@?4?4?2Data?2ZtData?2ZtCustom?4ini?$AA@
  0047a	6a 01		 push	 1
  0047c	68 00 00 00 00	 push	 OFFSET ??_C@_0N@JDNGCJM@MasterSkills?$AA@
  00481	68 00 00 00 00	 push	 OFFSET ??_C@_06CNKIADGI@ZtTeam?$AA@
  00486	88 46 16	 mov	 BYTE PTR [esi+22], al
  00489	ff d7		 call	 edi

; 282  : 	this->ZtCustom.DivFireScreamSpeed = GetPrivateProfileInt("ZtTeam", "DivFireScreamSpeed", 1, ZtCustom_DIR);

  0048b	68 00 00 00 00	 push	 OFFSET ??_C@_0BM@FGLABAKE@?4?4?2Data?2ZtData?2ZtCustom?4ini?$AA@
  00490	6a 01		 push	 1
  00492	85 c0		 test	 eax, eax
  00494	68 00 00 00 00	 push	 OFFSET ??_C@_0BD@KMKHPDOP@DivFireScreamSpeed?$AA@
  00499	0f 95 c1	 setne	 cl
  0049c	68 00 00 00 00	 push	 OFFSET ??_C@_06CNKIADGI@ZtTeam?$AA@
  004a1	88 4e 17	 mov	 BYTE PTR [esi+23], cl
  004a4	ff d7		 call	 edi

; 283  : 
; 284  : 	this->ZtCustom.PostItem = GetPrivateProfileInt("ZtTeam", "PostItem", 0, ZtCustom_DIR);

  004a6	68 00 00 00 00	 push	 OFFSET ??_C@_0BM@FGLABAKE@?4?4?2Data?2ZtData?2ZtCustom?4ini?$AA@
  004ab	6a 00		 push	 0
  004ad	68 00 00 00 00	 push	 OFFSET ??_C@_08KNIMID@PostItem?$AA@
  004b2	68 00 00 00 00	 push	 OFFSET ??_C@_06CNKIADGI@ZtTeam?$AA@
  004b7	89 46 18	 mov	 DWORD PTR [esi+24], eax
  004ba	ff d7		 call	 edi

; 285  : 	this->ZtCustom.DonateShop = GetPrivateProfileInt("ZtTeam", "DonateShop", 0, ZtCustom_DIR);

  004bc	68 00 00 00 00	 push	 OFFSET ??_C@_0BM@FGLABAKE@?4?4?2Data?2ZtData?2ZtCustom?4ini?$AA@
  004c1	6a 00		 push	 0
  004c3	85 c0		 test	 eax, eax
  004c5	68 00 00 00 00	 push	 OFFSET ??_C@_0L@PHGOHEFN@DonateShop?$AA@
  004ca	0f 95 c2	 setne	 dl
  004cd	68 00 00 00 00	 push	 OFFSET ??_C@_06CNKIADGI@ZtTeam?$AA@
  004d2	88 56 1c	 mov	 BYTE PTR [esi+28], dl
  004d5	ff d7		 call	 edi

; 286  : 	
; 287  : 	this->ZtCustom.MultiWarehouse = GetPrivateProfileInt("ZtTeam", "MultiWarehouse", 0, ZtCustom_DIR);

  004d7	68 00 00 00 00	 push	 OFFSET ??_C@_0BM@FGLABAKE@?4?4?2Data?2ZtData?2ZtCustom?4ini?$AA@
  004dc	6a 00		 push	 0
  004de	85 c0		 test	 eax, eax
  004e0	68 00 00 00 00	 push	 OFFSET ??_C@_0P@CCLLNAEF@MultiWarehouse?$AA@
  004e5	0f 95 c0	 setne	 al
  004e8	68 00 00 00 00	 push	 OFFSET ??_C@_06CNKIADGI@ZtTeam?$AA@
  004ed	88 46 1d	 mov	 BYTE PTR [esi+29], al
  004f0	ff d7		 call	 edi

; 288  : 
; 289  : 	this->ZtCustom.MaxLevel = GetPrivateProfileInt("ZtTeam", "MaxLevel", 400, ZtCustom_DIR);

  004f2	68 00 00 00 00	 push	 OFFSET ??_C@_0BM@FGLABAKE@?4?4?2Data?2ZtData?2ZtCustom?4ini?$AA@
  004f7	68 90 01 00 00	 push	 400			; 00000190H
  004fc	68 00 00 00 00	 push	 OFFSET ??_C@_08BFKFNBGC@MaxLevel?$AA@
  00501	68 00 00 00 00	 push	 OFFSET ??_C@_06CNKIADGI@ZtTeam?$AA@
  00506	89 46 20	 mov	 DWORD PTR [esi+32], eax
  00509	ff d7		 call	 edi

; 290  : 
; 291  : 	
; 292  : 	//----------------
; 293  : 	// CommonServer
; 294  : 	//----------------
; 295  : 
; 296  : 	this->CommonServer.EnableCheckSum = GetPrivateProfileInt("ZtTeam","CheckSum",0,CommonServer_DIR);

  0050b	68 00 00 00 00	 push	 OFFSET ??_C@_0BK@LPKPDKGD@?4?4?2Data?2ZtData?2Common?4ini?$AA@
  00510	6a 00		 push	 0
  00512	68 00 00 00 00	 push	 OFFSET ??_C@_08BPDKCIGK@CheckSum?$AA@
  00517	68 00 00 00 00	 push	 OFFSET ??_C@_06CNKIADGI@ZtTeam?$AA@
  0051c	89 46 24	 mov	 DWORD PTR [esi+36], eax
  0051f	ff d7		 call	 edi

; 297  : 	this->CommonServer.Zt_PersonalID = GetPrivateProfileInt("ZtTeam","PersonalID",0,CommonServer_DIR);

  00521	68 00 00 00 00	 push	 OFFSET ??_C@_0BK@LPKPDKGD@?4?4?2Data?2ZtData?2Common?4ini?$AA@
  00526	6a 00		 push	 0
  00528	68 00 00 00 00	 push	 OFFSET ??_C@_0L@FGHOFJAN@PersonalID?$AA@
  0052d	68 00 00 00 00	 push	 OFFSET ??_C@_06CNKIADGI@ZtTeam?$AA@
  00532	89 46 28	 mov	 DWORD PTR [esi+40], eax
  00535	ff d7		 call	 edi

; 298  : 	this->CommonServer.DeleteLogs = GetPrivateProfileInt("ZtTeam","DeleteLogs",0,CommonServer_DIR);

  00537	68 00 00 00 00	 push	 OFFSET ??_C@_0BK@LPKPDKGD@?4?4?2Data?2ZtData?2Common?4ini?$AA@
  0053c	6a 00		 push	 0
  0053e	68 00 00 00 00	 push	 OFFSET ??_C@_0L@BAKJPIHJ@DeleteLogs?$AA@
  00543	68 00 00 00 00	 push	 OFFSET ??_C@_06CNKIADGI@ZtTeam?$AA@
  00548	89 46 2c	 mov	 DWORD PTR [esi+44], eax
  0054b	ff d7		 call	 edi

; 299  : 
; 300  : 	//this->CommonServer.Zt_LifeRate = GetPrivateProfileInt("JewelRates","LifeRate",50,CommonServer_DIR);
; 301  : 	//this->CommonServer.Zt_SoulRate = GetPrivateProfileInt("JewelRates","SoulRate",50,CommonServer_DIR);
; 302  : 	//this->CommonServer.Zt_SoulRateLuck = GetPrivateProfileInt("JewelRates","SoulRateLuck",20,CommonServer_DIR);
; 303  : 	
; 304  : 	this->CommonServer.ZtMixNormal10SuccessRate = GetPrivateProfileInt("ZtTeam","MixNormal10SuccessRate",60,CommonServer_DIR);

  0054d	68 00 00 00 00	 push	 OFFSET ??_C@_0BK@LPKPDKGD@?4?4?2Data?2ZtData?2Common?4ini?$AA@
  00552	6a 3c		 push	 60			; 0000003cH
  00554	68 00 00 00 00	 push	 OFFSET ??_C@_0BH@CDJICCMP@MixNormal10SuccessRate?$AA@
  00559	68 00 00 00 00	 push	 OFFSET ??_C@_06CNKIADGI@ZtTeam?$AA@
  0055e	89 46 30	 mov	 DWORD PTR [esi+48], eax
  00561	ff d7		 call	 edi

; 305  : 	this->CommonServer.ZtMix380AncExc10SuccessRate = GetPrivateProfileInt("ZtTeam","Mix380AncExc10SuccessRate",50,CommonServer_DIR);

  00563	68 00 00 00 00	 push	 OFFSET ??_C@_0BK@LPKPDKGD@?4?4?2Data?2ZtData?2Common?4ini?$AA@
  00568	6a 32		 push	 50			; 00000032H
  0056a	68 00 00 00 00	 push	 OFFSET ??_C@_0BK@NGAGCMPP@Mix380AncExc10SuccessRate?$AA@
  0056f	68 00 00 00 00	 push	 OFFSET ??_C@_06CNKIADGI@ZtTeam?$AA@
  00574	89 46 34	 mov	 DWORD PTR [esi+52], eax
  00577	ff d7		 call	 edi

; 306  : 	this->CommonServer.ZtMixSocket10SuccessRate = GetPrivateProfileInt("ZtTeam","MixSocket10SuccessRate",40,CommonServer_DIR);

  00579	68 00 00 00 00	 push	 OFFSET ??_C@_0BK@LPKPDKGD@?4?4?2Data?2ZtData?2Common?4ini?$AA@
  0057e	6a 28		 push	 40			; 00000028H
  00580	68 00 00 00 00	 push	 OFFSET ??_C@_0BH@EMBAMNPJ@MixSocket10SuccessRate?$AA@
  00585	68 00 00 00 00	 push	 OFFSET ??_C@_06CNKIADGI@ZtTeam?$AA@
  0058a	89 46 38	 mov	 DWORD PTR [esi+56], eax
  0058d	ff d7		 call	 edi

; 307  : 	this->CommonServer.ZtMixNormal11SuccessRate = GetPrivateProfileInt("ZtTeam","MixNormal11SuccessRate",60,CommonServer_DIR);

  0058f	68 00 00 00 00	 push	 OFFSET ??_C@_0BK@LPKPDKGD@?4?4?2Data?2ZtData?2Common?4ini?$AA@
  00594	89 46 3c	 mov	 DWORD PTR [esi+60], eax
  00597	6a 3c		 push	 60			; 0000003cH
  00599	68 00 00 00 00	 push	 OFFSET ??_C@_0BH@POAOPLEK@MixNormal11SuccessRate?$AA@
  0059e	68 00 00 00 00	 push	 OFFSET ??_C@_06CNKIADGI@ZtTeam?$AA@
  005a3	ff d7		 call	 edi

; 308  : 	this->CommonServer.ZtMix380AncExc11SuccessRate = GetPrivateProfileInt("ZtTeam","Mix380AncExc11SuccessRate",50,CommonServer_DIR);

  005a5	68 00 00 00 00	 push	 OFFSET ??_C@_0BK@LPKPDKGD@?4?4?2Data?2ZtData?2Common?4ini?$AA@
  005aa	6a 32		 push	 50			; 00000032H
  005ac	68 00 00 00 00	 push	 OFFSET ??_C@_0BK@LJAPFHK@Mix380AncExc11SuccessRate?$AA@
  005b1	68 00 00 00 00	 push	 OFFSET ??_C@_06CNKIADGI@ZtTeam?$AA@
  005b6	89 46 40	 mov	 DWORD PTR [esi+64], eax
  005b9	ff d7		 call	 edi

; 309  : 	this->CommonServer.ZtMixSocket11SuccessRate = GetPrivateProfileInt("ZtTeam","MixSocket11SuccessRate",40,CommonServer_DIR);

  005bb	68 00 00 00 00	 push	 OFFSET ??_C@_0BK@LPKPDKGD@?4?4?2Data?2ZtData?2Common?4ini?$AA@
  005c0	6a 28		 push	 40			; 00000028H
  005c2	68 00 00 00 00	 push	 OFFSET ??_C@_0BH@JBIGBEHM@MixSocket11SuccessRate?$AA@
  005c7	68 00 00 00 00	 push	 OFFSET ??_C@_06CNKIADGI@ZtTeam?$AA@
  005cc	89 46 44	 mov	 DWORD PTR [esi+68], eax
  005cf	ff d7		 call	 edi

; 310  : 	this->CommonServer.ZtMixNormal12SuccessRate = GetPrivateProfileInt("ZtTeam","MixNormal12SuccessRate",60,CommonServer_DIR);

  005d1	68 00 00 00 00	 push	 OFFSET ??_C@_0BK@LPKPDKGD@?4?4?2Data?2ZtData?2Common?4ini?$AA@
  005d6	6a 3c		 push	 60			; 0000003cH
  005d8	68 00 00 00 00	 push	 OFFSET ??_C@_0BH@EDMEJHIE@MixNormal12SuccessRate?$AA@
  005dd	68 00 00 00 00	 push	 OFFSET ??_C@_06CNKIADGI@ZtTeam?$AA@
  005e2	89 46 48	 mov	 DWORD PTR [esi+72], eax
  005e5	ff d7		 call	 edi

; 311  : 	this->CommonServer.ZtMix380AncExc12SuccessRate = GetPrivateProfileInt("ZtTeam","Mix380AncExc12SuccessRate",50,CommonServer_DIR);

  005e7	68 00 00 00 00	 push	 OFFSET ??_C@_0BK@LPKPDKGD@?4?4?2Data?2ZtData?2Common?4ini?$AA@
  005ec	6a 32		 push	 50			; 00000032H
  005ee	68 00 00 00 00	 push	 OFFSET ??_C@_0BK@LGFKJJLE@Mix380AncExc12SuccessRate?$AA@
  005f3	68 00 00 00 00	 push	 OFFSET ??_C@_06CNKIADGI@ZtTeam?$AA@
  005f8	89 46 4c	 mov	 DWORD PTR [esi+76], eax
  005fb	ff d7		 call	 edi

; 312  : 	this->CommonServer.ZtMixSocket12SuccessRate = GetPrivateProfileInt("ZtTeam","MixSocket12SuccessRate",40,CommonServer_DIR);

  005fd	68 00 00 00 00	 push	 OFFSET ??_C@_0BK@LPKPDKGD@?4?4?2Data?2ZtData?2Common?4ini?$AA@
  00602	6a 28		 push	 40			; 00000028H
  00604	68 00 00 00 00	 push	 OFFSET ??_C@_0BH@CMEMHILC@MixSocket12SuccessRate?$AA@
  00609	68 00 00 00 00	 push	 OFFSET ??_C@_06CNKIADGI@ZtTeam?$AA@
  0060e	89 46 50	 mov	 DWORD PTR [esi+80], eax
  00611	ff d7		 call	 edi

; 313  : 	this->CommonServer.ZtMixNormal13SuccessRate = GetPrivateProfileInt("ZtTeam","MixNormal13SuccessRate",55,CommonServer_DIR);

  00613	68 00 00 00 00	 push	 OFFSET ??_C@_0BK@LPKPDKGD@?4?4?2Data?2ZtData?2Common?4ini?$AA@
  00618	6a 37		 push	 55			; 00000037H
  0061a	68 00 00 00 00	 push	 OFFSET ??_C@_0BH@JOFCEOAB@MixNormal13SuccessRate?$AA@
  0061f	68 00 00 00 00	 push	 OFFSET ??_C@_06CNKIADGI@ZtTeam?$AA@
  00624	89 46 54	 mov	 DWORD PTR [esi+84], eax
  00627	ff d7		 call	 edi

; 314  : 	this->CommonServer.ZtMix380AncExc13SuccessRate = GetPrivateProfileInt("ZtTeam","Mix380AncExc13SuccessRate",50,CommonServer_DIR);

  00629	68 00 00 00 00	 push	 OFFSET ??_C@_0BK@LPKPDKGD@?4?4?2Data?2ZtData?2Common?4ini?$AA@
  0062e	6a 32		 push	 50			; 00000032H
  00630	68 00 00 00 00	 push	 OFFSET ??_C@_0BK@GLMMEADB@Mix380AncExc13SuccessRate?$AA@
  00635	68 00 00 00 00	 push	 OFFSET ??_C@_06CNKIADGI@ZtTeam?$AA@
  0063a	89 46 58	 mov	 DWORD PTR [esi+88], eax
  0063d	ff d7		 call	 edi

; 315  : 	this->CommonServer.ZtMixSocket13SuccessRate = GetPrivateProfileInt("ZtTeam","MixSocket13SuccessRate",35,CommonServer_DIR);

  0063f	68 00 00 00 00	 push	 OFFSET ??_C@_0BK@LPKPDKGD@?4?4?2Data?2ZtData?2Common?4ini?$AA@
  00644	6a 23		 push	 35			; 00000023H
  00646	68 00 00 00 00	 push	 OFFSET ??_C@_0BH@PBNKKBDH@MixSocket13SuccessRate?$AA@
  0064b	68 00 00 00 00	 push	 OFFSET ??_C@_06CNKIADGI@ZtTeam?$AA@
  00650	89 46 5c	 mov	 DWORD PTR [esi+92], eax
  00653	ff d7		 call	 edi

; 316  : 
; 317  : 	//Season 5 +15 Items
; 318  : 	this->CommonServer.ZtMixNormal14SuccessRate = GetPrivateProfileInt("ZtTeam","MixNormal14SuccessRate",55,CommonServer_DIR);

  00655	68 00 00 00 00	 push	 OFFSET ??_C@_0BK@LPKPDKGD@?4?4?2Data?2ZtData?2Common?4ini?$AA@
  0065a	6a 37		 push	 55			; 00000037H
  0065c	68 00 00 00 00	 push	 OFFSET ??_C@_0BH@ODCBEIFJ@MixNormal14SuccessRate?$AA@
  00661	68 00 00 00 00	 push	 OFFSET ??_C@_06CNKIADGI@ZtTeam?$AA@
  00666	89 46 60	 mov	 DWORD PTR [esi+96], eax
  00669	ff d7		 call	 edi

; 319  : 	this->CommonServer.ZtMix380AncExc14SuccessRate = GetPrivateProfileInt("ZtTeam","Mix380AncExc14SuccessRate",50,CommonServer_DIR);

  0066b	68 00 00 00 00	 push	 OFFSET ??_C@_0BK@LPKPDKGD@?4?4?2Data?2ZtData?2Common?4ini?$AA@
  00670	6a 32		 push	 50			; 00000032H
  00672	68 00 00 00 00	 push	 OFFSET ??_C@_0BK@BGLPEGGJ@Mix380AncExc14SuccessRate?$AA@
  00677	68 00 00 00 00	 push	 OFFSET ??_C@_06CNKIADGI@ZtTeam?$AA@
  0067c	89 46 64	 mov	 DWORD PTR [esi+100], eax
  0067f	ff d7		 call	 edi

; 320  : 	this->CommonServer.ZtMixSocket14SuccessRate = GetPrivateProfileInt("ZtTeam","MixSocket14SuccessRate",35,CommonServer_DIR);

  00681	68 00 00 00 00	 push	 OFFSET ??_C@_0BK@LPKPDKGD@?4?4?2Data?2ZtData?2Common?4ini?$AA@
  00686	6a 23		 push	 35			; 00000023H
  00688	68 00 00 00 00	 push	 OFFSET ??_C@_0BH@IMKJKHGP@MixSocket14SuccessRate?$AA@
  0068d	68 00 00 00 00	 push	 OFFSET ??_C@_06CNKIADGI@ZtTeam?$AA@
  00692	89 46 68	 mov	 DWORD PTR [esi+104], eax
  00695	ff d7		 call	 edi

; 321  : 	this->CommonServer.ZtMixNormal15SuccessRate = GetPrivateProfileInt("ZtTeam","MixNormal15SuccessRate",55,CommonServer_DIR);

  00697	68 00 00 00 00	 push	 OFFSET ??_C@_0BK@LPKPDKGD@?4?4?2Data?2ZtData?2Common?4ini?$AA@
  0069c	6a 37		 push	 55			; 00000037H
  0069e	68 00 00 00 00	 push	 OFFSET ??_C@_0BH@DOLHJBNM@MixNormal15SuccessRate?$AA@
  006a3	68 00 00 00 00	 push	 OFFSET ??_C@_06CNKIADGI@ZtTeam?$AA@
  006a8	89 46 6c	 mov	 DWORD PTR [esi+108], eax
  006ab	ff d7		 call	 edi

; 322  : 	this->CommonServer.ZtMix380AncExc15SuccessRate = GetPrivateProfileInt("ZtTeam","Mix380AncExc15SuccessRate",50,CommonServer_DIR);

  006ad	68 00 00 00 00	 push	 OFFSET ??_C@_0BK@LPKPDKGD@?4?4?2Data?2ZtData?2Common?4ini?$AA@
  006b2	6a 32		 push	 50			; 00000032H
  006b4	68 00 00 00 00	 push	 OFFSET ??_C@_0BK@MLCJJPOM@Mix380AncExc15SuccessRate?$AA@
  006b9	68 00 00 00 00	 push	 OFFSET ??_C@_06CNKIADGI@ZtTeam?$AA@
  006be	89 46 70	 mov	 DWORD PTR [esi+112], eax
  006c1	ff d7		 call	 edi

; 323  : 	this->CommonServer.ZtMixSocket15SuccessRate = GetPrivateProfileInt("ZtTeam","MixSocket15SuccessRate",35,CommonServer_DIR);

  006c3	68 00 00 00 00	 push	 OFFSET ??_C@_0BK@LPKPDKGD@?4?4?2Data?2ZtData?2Common?4ini?$AA@
  006c8	6a 23		 push	 35			; 00000023H
  006ca	68 00 00 00 00	 push	 OFFSET ??_C@_0BH@FBDPHOOK@MixSocket15SuccessRate?$AA@
  006cf	68 00 00 00 00	 push	 OFFSET ??_C@_06CNKIADGI@ZtTeam?$AA@
  006d4	89 46 74	 mov	 DWORD PTR [esi+116], eax
  006d7	ff d7		 call	 edi

; 324  : 
; 325  : 	this->CommonServer.ZtMixLuckOptRateAdd = GetPrivateProfileInt("ZtTeam","MixLuckOptRateAdd",20,CommonServer_DIR);

  006d9	68 00 00 00 00	 push	 OFFSET ??_C@_0BK@LPKPDKGD@?4?4?2Data?2ZtData?2Common?4ini?$AA@
  006de	6a 14		 push	 20			; 00000014H
  006e0	68 00 00 00 00	 push	 OFFSET ??_C@_0BC@OMCNANPE@MixLuckOptRateAdd?$AA@
  006e5	68 00 00 00 00	 push	 OFFSET ??_C@_06CNKIADGI@ZtTeam?$AA@
  006ea	89 46 78	 mov	 DWORD PTR [esi+120], eax
  006ed	ff d7		 call	 edi

; 326  : 	this->CommonServer.ZtMixMaxSuccessRate = GetPrivateProfileInt("ZtTeam","MixMaxSuccessRate",75,CommonServer_DIR);

  006ef	68 00 00 00 00	 push	 OFFSET ??_C@_0BK@LPKPDKGD@?4?4?2Data?2ZtData?2Common?4ini?$AA@
  006f4	6a 4b		 push	 75			; 0000004bH
  006f6	68 00 00 00 00	 push	 OFFSET ??_C@_0BC@HBJMIEIB@MixMaxSuccessRate?$AA@
  006fb	68 00 00 00 00	 push	 OFFSET ??_C@_06CNKIADGI@ZtTeam?$AA@
  00700	89 46 7c	 mov	 DWORD PTR [esi+124], eax
  00703	ff d7		 call	 edi

; 327  : 	this->CommonServer.ZtWing2MaxSuccessRate = GetPrivateProfileInt("ZtTeam","Wing2MaxSuccessRate",90,CommonServer_DIR);

  00705	68 00 00 00 00	 push	 OFFSET ??_C@_0BK@LPKPDKGD@?4?4?2Data?2ZtData?2Common?4ini?$AA@
  0070a	6a 5a		 push	 90			; 0000005aH
  0070c	68 00 00 00 00	 push	 OFFSET ??_C@_0BE@LEMOKLBC@Wing2MaxSuccessRate?$AA@
  00711	68 00 00 00 00	 push	 OFFSET ??_C@_06CNKIADGI@ZtTeam?$AA@
  00716	89 86 80 00 00
	00		 mov	 DWORD PTR [esi+128], eax
  0071c	ff d7		 call	 edi

; 328  : 	this->CommonServer.ZtDarkHorseMixSuccessRate = GetPrivateProfileInt("ZtTeam","DarkHorseMixSuccessRate",60,CommonServer_DIR);

  0071e	68 00 00 00 00	 push	 OFFSET ??_C@_0BK@LPKPDKGD@?4?4?2Data?2ZtData?2Common?4ini?$AA@
  00723	6a 3c		 push	 60			; 0000003cH
  00725	68 00 00 00 00	 push	 OFFSET ??_C@_0BI@GCJANFMA@DarkHorseMixSuccessRate?$AA@
  0072a	68 00 00 00 00	 push	 OFFSET ??_C@_06CNKIADGI@ZtTeam?$AA@
  0072f	89 86 84 00 00
	00		 mov	 DWORD PTR [esi+132], eax
  00735	ff d7		 call	 edi

; 329  : 	this->CommonServer.ZtDarkSpiritMixSuccessRate = GetPrivateProfileInt("ZtTeam","DarkSpiritMixSuccessRate",60,CommonServer_DIR);

  00737	68 00 00 00 00	 push	 OFFSET ??_C@_0BK@LPKPDKGD@?4?4?2Data?2ZtData?2Common?4ini?$AA@
  0073c	6a 3c		 push	 60			; 0000003cH
  0073e	68 00 00 00 00	 push	 OFFSET ??_C@_0BJ@GACBIDHJ@DarkSpiritMixSuccessRate?$AA@
  00743	68 00 00 00 00	 push	 OFFSET ??_C@_06CNKIADGI@ZtTeam?$AA@
  00748	89 86 88 00 00
	00		 mov	 DWORD PTR [esi+136], eax
  0074e	ff d7		 call	 edi

; 330  : 	this->CommonServer.ZtFeatherofCondorMixMaxPercent = GetPrivateProfileInt("ZtTeam","FeatherofCondorMixMaxPercent",60,CommonServer_DIR);

  00750	68 00 00 00 00	 push	 OFFSET ??_C@_0BK@LPKPDKGD@?4?4?2Data?2ZtData?2Common?4ini?$AA@
  00755	6a 3c		 push	 60			; 0000003cH
  00757	68 00 00 00 00	 push	 OFFSET ??_C@_0BN@HCIIKEKG@FeatherofCondorMixMaxPercent?$AA@
  0075c	68 00 00 00 00	 push	 OFFSET ??_C@_06CNKIADGI@ZtTeam?$AA@
  00761	89 86 8c 00 00
	00		 mov	 DWORD PTR [esi+140], eax
  00767	ff d7		 call	 edi

; 331  : 	this->CommonServer.ZtWingLv3MixMaxPercent = GetPrivateProfileInt("ZtTeam","WingLv3MixMaxPercent",40,CommonServer_DIR);

  00769	68 00 00 00 00	 push	 OFFSET ??_C@_0BK@LPKPDKGD@?4?4?2Data?2ZtData?2Common?4ini?$AA@
  0076e	6a 28		 push	 40			; 00000028H
  00770	68 00 00 00 00	 push	 OFFSET ??_C@_0BF@PLBFDKPB@WingLv3MixMaxPercent?$AA@
  00775	68 00 00 00 00	 push	 OFFSET ??_C@_06CNKIADGI@ZtTeam?$AA@
  0077a	89 86 90 00 00
	00		 mov	 DWORD PTR [esi+144], eax
  00780	ff d7		 call	 edi

; 332  : 	this->CommonServer.ZtDinorantMixRate = GetPrivateProfileInt("ZtTeam","DinorantMixRate",70,CommonServer_DIR);

  00782	68 00 00 00 00	 push	 OFFSET ??_C@_0BK@LPKPDKGD@?4?4?2Data?2ZtData?2Common?4ini?$AA@
  00787	6a 46		 push	 70			; 00000046H
  00789	68 00 00 00 00	 push	 OFFSET ??_C@_0BA@EJDEHLBF@DinorantMixRate?$AA@
  0078e	68 00 00 00 00	 push	 OFFSET ??_C@_06CNKIADGI@ZtTeam?$AA@
  00793	89 86 94 00 00
	00		 mov	 DWORD PTR [esi+148], eax
  00799	ff d7		 call	 edi

; 333  : 
; 334  : 	this->CommonServer.Wing2_5MaxSuccessRate = GetPrivateProfileInt("ZtTeam","Wing2_5MaxSuccessRate",60,CommonServer_DIR);

  0079b	68 00 00 00 00	 push	 OFFSET ??_C@_0BK@LPKPDKGD@?4?4?2Data?2ZtData?2Common?4ini?$AA@
  007a0	6a 3c		 push	 60			; 0000003cH
  007a2	68 00 00 00 00	 push	 OFFSET ??_C@_0BG@PAGEHNCK@Wing2_5MaxSuccessRate?$AA@
  007a7	68 00 00 00 00	 push	 OFFSET ??_C@_06CNKIADGI@ZtTeam?$AA@
  007ac	89 86 98 00 00
	00		 mov	 DWORD PTR [esi+152], eax
  007b2	ff d7		 call	 edi

; 335  : 	this->CommonServer.Wing4MaxSuccessRate = GetPrivateProfileInt("ZtTeam","Wing4MaxSuccessRate",40,CommonServer_DIR);

  007b4	68 00 00 00 00	 push	 OFFSET ??_C@_0BK@LPKPDKGD@?4?4?2Data?2ZtData?2Common?4ini?$AA@
  007b9	6a 28		 push	 40			; 00000028H
  007bb	68 00 00 00 00	 push	 OFFSET ??_C@_0BE@OHFPMCPG@Wing4MaxSuccessRate?$AA@
  007c0	68 00 00 00 00	 push	 OFFSET ??_C@_06CNKIADGI@ZtTeam?$AA@
  007c5	89 86 9c 00 00
	00		 mov	 DWORD PTR [esi+156], eax
  007cb	ff d7		 call	 edi

; 336  : 	this->CommonServer.Wing5MaxSuccessRate = GetPrivateProfileInt("ZtTeam","Wing5MaxSuccessRate",40,CommonServer_DIR);

  007cd	68 00 00 00 00	 push	 OFFSET ??_C@_0BK@LPKPDKGD@?4?4?2Data?2ZtData?2Common?4ini?$AA@
  007d2	6a 28		 push	 40			; 00000028H
  007d4	68 00 00 00 00	 push	 OFFSET ??_C@_0BE@EJDHFDGH@Wing5MaxSuccessRate?$AA@
  007d9	68 00 00 00 00	 push	 OFFSET ??_C@_06CNKIADGI@ZtTeam?$AA@
  007de	89 86 a0 00 00
	00		 mov	 DWORD PTR [esi+160], eax
  007e4	ff d7		 call	 edi

; 337  : 
; 338  : 	this->CommonServer.Zt_MasterDropZen = GetPrivateProfileInt("ZtTeam","MasterDropZen",100,CommonServer_DIR);

  007e6	68 00 00 00 00	 push	 OFFSET ??_C@_0BK@LPKPDKGD@?4?4?2Data?2ZtData?2Common?4ini?$AA@
  007eb	6a 64		 push	 100			; 00000064H
  007ed	68 00 00 00 00	 push	 OFFSET ??_C@_0O@DIFEKECK@MasterDropZen?$AA@
  007f2	68 00 00 00 00	 push	 OFFSET ??_C@_06CNKIADGI@ZtTeam?$AA@
  007f7	89 86 a4 00 00
	00		 mov	 DWORD PTR [esi+164], eax
  007fd	ff d7		 call	 edi

; 339  : 
; 340  : 	GetPrivateProfileString("Guard", "GuardMessage","Welcome to Ex-Games",this->CommonServer.GuardMessage,50,CommonServer_DIR);

  007ff	68 00 00 00 00	 push	 OFFSET ??_C@_0BK@LPKPDKGD@?4?4?2Data?2ZtData?2Common?4ini?$AA@
  00804	89 86 a8 00 00
	00		 mov	 DWORD PTR [esi+168], eax
  0080a	6a 32		 push	 50			; 00000032H
  0080c	8b 1d 00 00 00
	00		 mov	 ebx, DWORD PTR __imp__GetPrivateProfileStringA@24
  00812	8d 8e ac 00 00
	00		 lea	 ecx, DWORD PTR [esi+172]
  00818	51		 push	 ecx
  00819	68 00 00 00 00	 push	 OFFSET ??_C@_0BE@CDCKDDPK@Welcome?5to?5Ex?9Games?$AA@
  0081e	68 00 00 00 00	 push	 OFFSET ??_C@_0N@GAKPJHLA@GuardMessage?$AA@
  00823	68 00 00 00 00	 push	 OFFSET ??_C@_05LICMIJMM@Guard?$AA@
  00828	ff d3		 call	 ebx

; 341  : 
; 342  : 	this->CommonServer.KundunAncDrop = GetPrivateProfileInt("ZtTeam","KundunAncDrop",2500,CommonServer_DIR);

  0082a	68 00 00 00 00	 push	 OFFSET ??_C@_0BK@LPKPDKGD@?4?4?2Data?2ZtData?2Common?4ini?$AA@
  0082f	68 c4 09 00 00	 push	 2500			; 000009c4H
  00834	68 00 00 00 00	 push	 OFFSET ??_C@_0O@JCJOCALP@KundunAncDrop?$AA@
  00839	68 00 00 00 00	 push	 OFFSET ??_C@_06CNKIADGI@ZtTeam?$AA@
  0083e	ff d7		 call	 edi

; 343  : 
; 344  : 	this->CommonServer.DisatanceObjViewe = GetPrivateProfileInt("ZtTeam","DisatanceObjViewe",15,CommonServer_DIR);

  00840	68 00 00 00 00	 push	 OFFSET ??_C@_0BK@LPKPDKGD@?4?4?2Data?2ZtData?2Common?4ini?$AA@
  00845	6a 0f		 push	 15			; 0000000fH
  00847	68 00 00 00 00	 push	 OFFSET ??_C@_0BC@JONOACBC@DisatanceObjViewe?$AA@
  0084c	68 00 00 00 00	 push	 OFFSET ??_C@_06CNKIADGI@ZtTeam?$AA@
  00851	89 86 e0 00 00
	00		 mov	 DWORD PTR [esi+224], eax
  00857	ff d7		 call	 edi

; 345  : 
; 346  : 	this->CommonServer.MarlonQuestReset = GetPrivateProfileInt("ZtTeam","MarlonQuestReset",0,CommonServer_DIR);

  00859	68 00 00 00 00	 push	 OFFSET ??_C@_0BK@LPKPDKGD@?4?4?2Data?2ZtData?2Common?4ini?$AA@
  0085e	6a 00		 push	 0
  00860	68 00 00 00 00	 push	 OFFSET ??_C@_0BB@OHNOBAOE@MarlonQuestReset?$AA@
  00865	68 00 00 00 00	 push	 OFFSET ??_C@_06CNKIADGI@ZtTeam?$AA@
  0086a	89 86 e4 00 00
	00		 mov	 DWORD PTR [esi+228], eax
  00870	ff d7		 call	 edi

; 347  : 
; 348  : 	this->CommonServer.MaxDropZen = GetPrivateProfileInt("ZtTeam","MaxDropZen",1000000,CommonServer_DIR);

  00872	68 00 00 00 00	 push	 OFFSET ??_C@_0BK@LPKPDKGD@?4?4?2Data?2ZtData?2Common?4ini?$AA@
  00877	68 40 42 0f 00	 push	 1000000			; 000f4240H
  0087c	85 c0		 test	 eax, eax
  0087e	68 00 00 00 00	 push	 OFFSET ??_C@_0L@DLHIOEAJ@MaxDropZen?$AA@
  00883	0f 95 c2	 setne	 dl
  00886	68 00 00 00 00	 push	 OFFSET ??_C@_06CNKIADGI@ZtTeam?$AA@
  0088b	88 96 e8 00 00
	00		 mov	 BYTE PTR [esi+232], dl
  00891	ff d7		 call	 edi

; 349  : 	this->CommonServer.ProcentDropZen = GetPrivateProfileInt("ZtTeam", "ProcentDropZen", 100, CommonServer_DIR);

  00893	68 00 00 00 00	 push	 OFFSET ??_C@_0BK@LPKPDKGD@?4?4?2Data?2ZtData?2Common?4ini?$AA@
  00898	6a 64		 push	 100			; 00000064H
  0089a	68 00 00 00 00	 push	 OFFSET ??_C@_0P@FPJLLCEA@ProcentDropZen?$AA@
  0089f	68 00 00 00 00	 push	 OFFSET ??_C@_06CNKIADGI@ZtTeam?$AA@
  008a4	89 86 ec 00 00
	00		 mov	 DWORD PTR [esi+236], eax
  008aa	ff d7		 call	 edi
  008ac	89 86 f0 00 00
	00		 mov	 DWORD PTR [esi+240], eax

; 350  : 	if (this->CommonServer.ProcentDropZen <= 0)

  008b2	85 c0		 test	 eax, eax
  008b4	7f 0a		 jg	 SHORT $LN36@LoadConfig

; 351  : 	{
; 352  : 		this->CommonServer.ProcentDropZen = 0;

  008b6	c7 86 f0 00 00
	00 00 00 00 00	 mov	 DWORD PTR [esi+240], 0
$LN36@LoadConfig:

; 353  : 	}
; 354  : 
; 355  : 	this->CommonServer.CountItemDropSelupan = GetPrivateProfileInt("ZtTeam","CountItemDropSelupan",10,CommonServer_DIR);

  008c0	68 00 00 00 00	 push	 OFFSET ??_C@_0BK@LPKPDKGD@?4?4?2Data?2ZtData?2Common?4ini?$AA@
  008c5	6a 0a		 push	 10			; 0000000aH
  008c7	68 00 00 00 00	 push	 OFFSET ??_C@_0BF@CDBGPNPC@CountItemDropSelupan?$AA@
  008cc	68 00 00 00 00	 push	 OFFSET ??_C@_06CNKIADGI@ZtTeam?$AA@
  008d1	ff d7		 call	 edi

; 356  : 	this->CommonServer.CountItemDropKundun = GetPrivateProfileInt("ZtTeam","CountItemDropKundun",3,CommonServer_DIR);

  008d3	68 00 00 00 00	 push	 OFFSET ??_C@_0BK@LPKPDKGD@?4?4?2Data?2ZtData?2Common?4ini?$AA@
  008d8	6a 03		 push	 3
  008da	68 00 00 00 00	 push	 OFFSET ??_C@_0BE@CBEBGMCE@CountItemDropKundun?$AA@
  008df	68 00 00 00 00	 push	 OFFSET ??_C@_06CNKIADGI@ZtTeam?$AA@
  008e4	89 86 f4 00 00
	00		 mov	 DWORD PTR [esi+244], eax
  008ea	ff d7		 call	 edi

; 357  : 	this->CommonServer.CountItemDropErohim = GetPrivateProfileInt("ZtTeam","CountItemDropErohim",1,CommonServer_DIR);

  008ec	68 00 00 00 00	 push	 OFFSET ??_C@_0BK@LPKPDKGD@?4?4?2Data?2ZtData?2Common?4ini?$AA@
  008f1	6a 01		 push	 1
  008f3	68 00 00 00 00	 push	 OFFSET ??_C@_0BE@CFNMLIBO@CountItemDropErohim?$AA@
  008f8	68 00 00 00 00	 push	 OFFSET ??_C@_06CNKIADGI@ZtTeam?$AA@
  008fd	89 86 f8 00 00
	00		 mov	 DWORD PTR [esi+248], eax
  00903	ff d7		 call	 edi

; 358  : 
; 359  : #if(_NEW_PT_SYSTEM_	==1)
; 360  : 	this->CommonServer.RePartyEnable = GetPrivateProfileInt("ZtTeam","RePartyEnable",0,CommonServer_DIR);

  00905	68 00 00 00 00	 push	 OFFSET ??_C@_0BK@LPKPDKGD@?4?4?2Data?2ZtData?2Common?4ini?$AA@
  0090a	6a 00		 push	 0
  0090c	68 00 00 00 00	 push	 OFFSET ??_C@_0O@PCMHEGFB@RePartyEnable?$AA@
  00911	68 00 00 00 00	 push	 OFFSET ??_C@_06CNKIADGI@ZtTeam?$AA@
  00916	89 86 fc 00 00
	00		 mov	 DWORD PTR [esi+252], eax
  0091c	ff d7		 call	 edi

; 361  : 	this->CommonServer.RePartyTime = GetPrivateProfileInt("ZtTeam","RePartyTime",10,CommonServer_DIR) * 3600;

  0091e	68 00 00 00 00	 push	 OFFSET ??_C@_0BK@LPKPDKGD@?4?4?2Data?2ZtData?2Common?4ini?$AA@
  00923	6a 0a		 push	 10			; 0000000aH
  00925	68 00 00 00 00	 push	 OFFSET ??_C@_0M@IOKCPMBJ@RePartyTime?$AA@
  0092a	68 00 00 00 00	 push	 OFFSET ??_C@_06CNKIADGI@ZtTeam?$AA@
  0092f	89 86 00 01 00
	00		 mov	 DWORD PTR [esi+256], eax
  00935	ff d7		 call	 edi
  00937	69 c0 10 0e 00
	00		 imul	 eax, 3600		; 00000e10H

; 362  : 	this->CommonServer.AutoSetLeader = GetPrivateProfileInt("ZtTeam","AutoSetLeader",1,CommonServer_DIR);

  0093d	68 00 00 00 00	 push	 OFFSET ??_C@_0BK@LPKPDKGD@?4?4?2Data?2ZtData?2Common?4ini?$AA@
  00942	6a 01		 push	 1
  00944	68 00 00 00 00	 push	 OFFSET ??_C@_0O@EFBFEMGF@AutoSetLeader?$AA@
  00949	68 00 00 00 00	 push	 OFFSET ??_C@_06CNKIADGI@ZtTeam?$AA@
  0094e	89 86 04 01 00
	00		 mov	 DWORD PTR [esi+260], eax
  00954	ff d7		 call	 edi

; 363  : 	this->CommonServer.CommandSetLeader = GetPrivateProfileInt("ZtTeam","CommandSetLeader",1,CommonServer_DIR);

  00956	68 00 00 00 00	 push	 OFFSET ??_C@_0BK@LPKPDKGD@?4?4?2Data?2ZtData?2Common?4ini?$AA@
  0095b	6a 01		 push	 1
  0095d	68 00 00 00 00	 push	 OFFSET ??_C@_0BB@MCHIAFN@CommandSetLeader?$AA@
  00962	68 00 00 00 00	 push	 OFFSET ??_C@_06CNKIADGI@ZtTeam?$AA@
  00967	89 86 08 01 00
	00		 mov	 DWORD PTR [esi+264], eax
  0096d	ff d7		 call	 edi

; 364  : #endif
; 365  : 
; 366  : #if(_ARENA_ITEM_)
; 367  : 	this->CommonServer.ArenaItem = GetPrivateProfileInt("ZtTeam","ArenaItem",-1,CommonServer_DIR);

  0096f	68 00 00 00 00	 push	 OFFSET ??_C@_0BK@LPKPDKGD@?4?4?2Data?2ZtData?2Common?4ini?$AA@
  00974	6a ff		 push	 -1
  00976	68 00 00 00 00	 push	 OFFSET ??_C@_09BMIDEEAO@ArenaItem?$AA@
  0097b	68 00 00 00 00	 push	 OFFSET ??_C@_06CNKIADGI@ZtTeam?$AA@
  00980	89 86 0c 01 00
	00		 mov	 DWORD PTR [esi+268], eax
  00986	ff d7		 call	 edi

; 368  : #endif
; 369  : 
; 370  : 	this->CommonServer.ReConnect = GetPrivateProfileInt("ZtTeam","ReConnect",1,CommonServer_DIR);

  00988	68 00 00 00 00	 push	 OFFSET ??_C@_0BK@LPKPDKGD@?4?4?2Data?2ZtData?2Common?4ini?$AA@
  0098d	6a 01		 push	 1
  0098f	68 00 00 00 00	 push	 OFFSET ??_C@_09HEEKJFKJ@ReConnect?$AA@
  00994	68 00 00 00 00	 push	 OFFSET ??_C@_06CNKIADGI@ZtTeam?$AA@
  00999	89 86 10 01 00
	00		 mov	 DWORD PTR [esi+272], eax
  0099f	ff d7		 call	 edi

; 371  : 	
; 372  : 	this->CommonServer.ExlDropRate = GetPrivateProfileInt("ZtTeam","ExlDropRate",10,CommonServer_DIR);

  009a1	68 00 00 00 00	 push	 OFFSET ??_C@_0BK@LPKPDKGD@?4?4?2Data?2ZtData?2Common?4ini?$AA@
  009a6	6a 0a		 push	 10			; 0000000aH
  009a8	85 c0		 test	 eax, eax
  009aa	68 00 00 00 00	 push	 OFFSET ??_C@_0M@DCDMAILA@ExlDropRate?$AA@
  009af	0f 95 c0	 setne	 al
  009b2	68 00 00 00 00	 push	 OFFSET ??_C@_06CNKIADGI@ZtTeam?$AA@
  009b7	88 86 14 01 00
	00		 mov	 BYTE PTR [esi+276], al
  009bd	ff d7		 call	 edi

; 373  : 	this->CommonServer.PercentKillZen  = GetPrivateProfileInt("ZtTeam","PercentKillZen",10,CommonServer_DIR);

  009bf	68 00 00 00 00	 push	 OFFSET ??_C@_0BK@LPKPDKGD@?4?4?2Data?2ZtData?2Common?4ini?$AA@
  009c4	6a 0a		 push	 10			; 0000000aH
  009c6	68 00 00 00 00	 push	 OFFSET ??_C@_0P@DALCDAPN@PercentKillZen?$AA@
  009cb	68 00 00 00 00	 push	 OFFSET ??_C@_06CNKIADGI@ZtTeam?$AA@
  009d0	89 86 18 01 00
	00		 mov	 DWORD PTR [esi+280], eax
  009d6	ff d7		 call	 edi

; 374  : 
; 375  : #if(CUSTOM_NOOBBUFF)
; 376  : 	this->CommonServer.bNoobBuffEnable = GetPrivateProfileInt("ZtTeam","NoobBuffEnable",0,CommonServer_DIR);

  009d8	68 00 00 00 00	 push	 OFFSET ??_C@_0BK@LPKPDKGD@?4?4?2Data?2ZtData?2Common?4ini?$AA@
  009dd	6a 00		 push	 0
  009df	68 00 00 00 00	 push	 OFFSET ??_C@_0P@NHEJBOPE@NoobBuffEnable?$AA@
  009e4	68 00 00 00 00	 push	 OFFSET ??_C@_06CNKIADGI@ZtTeam?$AA@
  009e9	89 86 1c 01 00
	00		 mov	 DWORD PTR [esi+284], eax
  009ef	ff d7		 call	 edi

; 377  : 	this->CommonServer.iNoobBuffMaxReset = GetPrivateProfileInt("ZtTeam","NoobBuffMaxReset",1,CommonServer_DIR);

  009f1	68 00 00 00 00	 push	 OFFSET ??_C@_0BK@LPKPDKGD@?4?4?2Data?2ZtData?2Common?4ini?$AA@
  009f6	6a 01		 push	 1
  009f8	85 c0		 test	 eax, eax
  009fa	0f 95 c1	 setne	 cl
  009fd	68 00 00 00 00	 push	 OFFSET ??_C@_0BB@GDDGHPJM@NoobBuffMaxReset?$AA@
  00a02	88 8e 20 01 00
	00		 mov	 BYTE PTR [esi+288], cl
  00a08	68 00 00 00 00	 push	 OFFSET ??_C@_06CNKIADGI@ZtTeam?$AA@
  00a0d	ff d7		 call	 edi

; 378  : 	this->CommonServer.m_NoobDamage = GetPrivateProfileInt("ZtTeam","NoobBuffDamagePercent",15,CommonServer_DIR);

  00a0f	68 00 00 00 00	 push	 OFFSET ??_C@_0BK@LPKPDKGD@?4?4?2Data?2ZtData?2Common?4ini?$AA@
  00a14	6a 0f		 push	 15			; 0000000fH
  00a16	68 00 00 00 00	 push	 OFFSET ??_C@_0BG@IIMIEODH@NoobBuffDamagePercent?$AA@
  00a1b	68 00 00 00 00	 push	 OFFSET ??_C@_06CNKIADGI@ZtTeam?$AA@
  00a20	89 86 24 01 00
	00		 mov	 DWORD PTR [esi+292], eax
  00a26	ff d7		 call	 edi

; 379  : 	this->CommonServer.m_NoobDefence = GetPrivateProfileInt("ZtTeam","NoobBuffDefencePercent",15,CommonServer_DIR);

  00a28	68 00 00 00 00	 push	 OFFSET ??_C@_0BK@LPKPDKGD@?4?4?2Data?2ZtData?2Common?4ini?$AA@
  00a2d	6a 0f		 push	 15			; 0000000fH
  00a2f	68 00 00 00 00	 push	 OFFSET ??_C@_0BH@PCNOGLEL@NoobBuffDefencePercent?$AA@
  00a34	68 00 00 00 00	 push	 OFFSET ??_C@_06CNKIADGI@ZtTeam?$AA@
  00a39	89 86 28 01 00
	00		 mov	 DWORD PTR [esi+296], eax
  00a3f	ff d7		 call	 edi

; 380  : #endif
; 381  : 
; 382  : #if(CUSTOM_POTIONTICK)
; 383  : 	this->CommonServer.PotionDelay = GetPrivateProfileInt("ZtTeam","PotionDelay",0,CommonServer_DIR);

  00a41	68 00 00 00 00	 push	 OFFSET ??_C@_0BK@LPKPDKGD@?4?4?2Data?2ZtData?2Common?4ini?$AA@
  00a46	6a 00		 push	 0
  00a48	68 00 00 00 00	 push	 OFFSET ??_C@_0M@KFFOANIE@PotionDelay?$AA@
  00a4d	68 00 00 00 00	 push	 OFFSET ??_C@_06CNKIADGI@ZtTeam?$AA@
  00a52	89 86 2c 01 00
	00		 mov	 DWORD PTR [esi+300], eax
  00a58	ff d7		 call	 edi

; 384  : #endif
; 385  : 
; 386  : 	this->CommonServer.MarlonTeleport = GetPrivateProfileInt("ZtTeam","MarlonTeleport",1,CommonServer_DIR);

  00a5a	68 00 00 00 00	 push	 OFFSET ??_C@_0BK@LPKPDKGD@?4?4?2Data?2ZtData?2Common?4ini?$AA@
  00a5f	6a 01		 push	 1
  00a61	68 00 00 00 00	 push	 OFFSET ??_C@_0P@NBNCCEMG@MarlonTeleport?$AA@
  00a66	68 00 00 00 00	 push	 OFFSET ??_C@_06CNKIADGI@ZtTeam?$AA@
  00a6b	89 86 30 01 00
	00		 mov	 DWORD PTR [esi+304], eax
  00a71	ff d7		 call	 edi

; 387  : 	this->CommonServer.CheckOtherGuildLand = GetPrivateProfileInt("ZtTeam","CheckOtherGuildLand",0,CommonServer_DIR);

  00a73	68 00 00 00 00	 push	 OFFSET ??_C@_0BK@LPKPDKGD@?4?4?2Data?2ZtData?2Common?4ini?$AA@
  00a78	6a 00		 push	 0
  00a7a	68 00 00 00 00	 push	 OFFSET ??_C@_0BE@OMLJFHBO@CheckOtherGuildLand?$AA@
  00a7f	68 00 00 00 00	 push	 OFFSET ??_C@_06CNKIADGI@ZtTeam?$AA@
  00a84	89 86 34 01 00
	00		 mov	 DWORD PTR [esi+308], eax
  00a8a	ff d7		 call	 edi

; 388  : 	
; 389  : #if(WAITENI_CUSTOM)
; 390  : 	this->CommonServer.DurabilityEnable = GetPrivateProfileInt("ZtTeam","DurabilityEnable",1,CommonServer_DIR);

  00a8c	68 00 00 00 00	 push	 OFFSET ??_C@_0BK@LPKPDKGD@?4?4?2Data?2ZtData?2Common?4ini?$AA@
  00a91	6a 01		 push	 1
  00a93	68 00 00 00 00	 push	 OFFSET ??_C@_0BB@PIKGNFJI@DurabilityEnable?$AA@
  00a98	68 00 00 00 00	 push	 OFFSET ??_C@_06CNKIADGI@ZtTeam?$AA@
  00a9d	89 86 38 01 00
	00		 mov	 DWORD PTR [esi+312], eax
  00aa3	ff d7		 call	 edi

; 391  : 	this->CommonServer.DurabilityMaxCount = GetPrivateProfileInt("ZtTeam","DurabilityMaxCount",1,CommonServer_DIR);

  00aa5	68 00 00 00 00	 push	 OFFSET ??_C@_0BK@LPKPDKGD@?4?4?2Data?2ZtData?2Common?4ini?$AA@
  00aaa	6a 01		 push	 1
  00aac	68 00 00 00 00	 push	 OFFSET ??_C@_0BD@NMMBGEC@DurabilityMaxCount?$AA@
  00ab1	68 00 00 00 00	 push	 OFFSET ??_C@_06CNKIADGI@ZtTeam?$AA@
  00ab6	89 86 3c 01 00
	00		 mov	 DWORD PTR [esi+316], eax
  00abc	ff d7		 call	 edi

; 392  : 	this->CommonServer.BloodCastleCount = GetPrivateProfileInt("ZtTeam","BloodCastleCount",4,CommonServer_DIR);

  00abe	68 00 00 00 00	 push	 OFFSET ??_C@_0BK@LPKPDKGD@?4?4?2Data?2ZtData?2Common?4ini?$AA@
  00ac3	6a 04		 push	 4
  00ac5	68 00 00 00 00	 push	 OFFSET ??_C@_0BB@NMLFGMHD@BloodCastleCount?$AA@
  00aca	68 00 00 00 00	 push	 OFFSET ??_C@_06CNKIADGI@ZtTeam?$AA@
  00acf	89 86 40 01 00
	00		 mov	 DWORD PTR [esi+320], eax
  00ad5	ff d7		 call	 edi

; 393  : 	this->CommonServer.DevilSqueryCount = GetPrivateProfileInt("ZtTeam","DevilSqueryCount",4,CommonServer_DIR);

  00ad7	68 00 00 00 00	 push	 OFFSET ??_C@_0BK@LPKPDKGD@?4?4?2Data?2ZtData?2Common?4ini?$AA@
  00adc	6a 04		 push	 4
  00ade	68 00 00 00 00	 push	 OFFSET ??_C@_0BB@OLCPBPLP@DevilSqueryCount?$AA@
  00ae3	68 00 00 00 00	 push	 OFFSET ??_C@_06CNKIADGI@ZtTeam?$AA@
  00ae8	89 86 44 01 00
	00		 mov	 DWORD PTR [esi+324], eax
  00aee	ff d7		 call	 edi

; 394  : #endif
; 395  : #if(CUSTOM_FLAGS)
; 396  : 	this->CommonServer.Ringstrength = GetPrivateProfileInt("ZtTeam", "Ringstrength", 10, CommonServer_DIR);

  00af0	68 00 00 00 00	 push	 OFFSET ??_C@_0BK@LPKPDKGD@?4?4?2Data?2ZtData?2Common?4ini?$AA@
  00af5	6a 0a		 push	 10			; 0000000aH
  00af7	68 00 00 00 00	 push	 OFFSET ??_C@_0N@KBOKNHMN@Ringstrength?$AA@
  00afc	68 00 00 00 00	 push	 OFFSET ??_C@_06CNKIADGI@ZtTeam?$AA@
  00b01	89 86 48 01 00
	00		 mov	 DWORD PTR [esi+328], eax
  00b07	ff d7		 call	 edi

; 397  : #endif
; 398  : #if(Negative_Number)
; 399  : 	this->CommonServer.MembItemLimit = GetPrivateProfileInt("ZtTeam", "MembItemLimit", 0, CommonServer_DIR);

  00b09	68 00 00 00 00	 push	 OFFSET ??_C@_0BK@LPKPDKGD@?4?4?2Data?2ZtData?2Common?4ini?$AA@
  00b0e	6a 00		 push	 0
  00b10	68 00 00 00 00	 push	 OFFSET ??_C@_0O@OBLFKLCB@MembItemLimit?$AA@
  00b15	68 00 00 00 00	 push	 OFFSET ??_C@_06CNKIADGI@ZtTeam?$AA@
  00b1a	89 86 4c 01 00
	00		 mov	 DWORD PTR [esi+332], eax
  00b20	ff d7		 call	 edi

; 400  : 	this->CommonServer.MembItemMixLimit = GetPrivateProfileInt("ZtTeam", "MembItemMixLimit", 0, CommonServer_DIR);

  00b22	68 00 00 00 00	 push	 OFFSET ??_C@_0BK@LPKPDKGD@?4?4?2Data?2ZtData?2Common?4ini?$AA@
  00b27	6a 00		 push	 0
  00b29	68 00 00 00 00	 push	 OFFSET ??_C@_0BB@OHOCANAI@MembItemMixLimit?$AA@
  00b2e	68 00 00 00 00	 push	 OFFSET ??_C@_06CNKIADGI@ZtTeam?$AA@
  00b33	89 86 50 01 00
	00		 mov	 DWORD PTR [esi+336], eax
  00b39	ff d7		 call	 edi

; 401  : 	this->CommonServer.MembItemWareLimit = GetPrivateProfileInt("ZtTeam", "MembItemWareLimit", 0, CommonServer_DIR);

  00b3b	68 00 00 00 00	 push	 OFFSET ??_C@_0BK@LPKPDKGD@?4?4?2Data?2ZtData?2Common?4ini?$AA@
  00b40	6a 00		 push	 0
  00b42	68 00 00 00 00	 push	 OFFSET ??_C@_0BC@DMKDJAEC@MembItemWareLimit?$AA@
  00b47	68 00 00 00 00	 push	 OFFSET ??_C@_06CNKIADGI@ZtTeam?$AA@
  00b4c	89 86 54 01 00
	00		 mov	 DWORD PTR [esi+340], eax
  00b52	ff d7		 call	 edi
  00b54	89 86 58 01 00
	00		 mov	 DWORD PTR [esi+344], eax

; 402  : 	this->CommonServer.NorItemLimit = GetPrivateProfileInt("ZtTeam", "NorItemLimit", 0, CommonServer_DIR);

  00b5a	68 00 00 00 00	 push	 OFFSET ??_C@_0BK@LPKPDKGD@?4?4?2Data?2ZtData?2Common?4ini?$AA@
  00b5f	6a 00		 push	 0
  00b61	68 00 00 00 00	 push	 OFFSET ??_C@_0N@NPEDLNMM@NorItemLimit?$AA@
  00b66	68 00 00 00 00	 push	 OFFSET ??_C@_06CNKIADGI@ZtTeam?$AA@
  00b6b	ff d7		 call	 edi

; 403  : 	this->CommonServer.NorItemLevel = GetPrivateProfileInt("ZtTeam", "NorItemLevel", 15, CommonServer_DIR);

  00b6d	68 00 00 00 00	 push	 OFFSET ??_C@_0BK@LPKPDKGD@?4?4?2Data?2ZtData?2Common?4ini?$AA@
  00b72	6a 0f		 push	 15			; 0000000fH
  00b74	68 00 00 00 00	 push	 OFFSET ??_C@_0N@BGKKOBGO@NorItemLevel?$AA@
  00b79	68 00 00 00 00	 push	 OFFSET ??_C@_06CNKIADGI@ZtTeam?$AA@
  00b7e	89 86 5c 01 00
	00		 mov	 DWORD PTR [esi+348], eax
  00b84	ff d7		 call	 edi

; 404  : 	this->CommonServer.NorItemExt = GetPrivateProfileInt("ZtTeam", "NorItemLevel", 6, CommonServer_DIR);

  00b86	68 00 00 00 00	 push	 OFFSET ??_C@_0BK@LPKPDKGD@?4?4?2Data?2ZtData?2Common?4ini?$AA@
  00b8b	6a 06		 push	 6
  00b8d	68 00 00 00 00	 push	 OFFSET ??_C@_0N@BGKKOBGO@NorItemLevel?$AA@
  00b92	68 00 00 00 00	 push	 OFFSET ??_C@_06CNKIADGI@ZtTeam?$AA@
  00b97	89 86 60 01 00
	00		 mov	 DWORD PTR [esi+352], eax
  00b9d	ff d7		 call	 edi

; 405  : #endif
; 406  : 	this->m_iBloodCastleMaxUser = GetPrivateProfileInt("ZtTeam","BloodCastleMaxUser",1,CommonServer_DIR);

  00b9f	68 00 00 00 00	 push	 OFFSET ??_C@_0BK@LPKPDKGD@?4?4?2Data?2ZtData?2Common?4ini?$AA@
  00ba4	6a 01		 push	 1
  00ba6	68 00 00 00 00	 push	 OFFSET ??_C@_0BD@KBAOACND@BloodCastleMaxUser?$AA@
  00bab	68 00 00 00 00	 push	 OFFSET ??_C@_06CNKIADGI@ZtTeam?$AA@
  00bb0	89 86 64 01 00
	00		 mov	 DWORD PTR [esi+356], eax
  00bb6	ff d7		 call	 edi

; 407  : 	this->m_iGuildMaxUser = GetPrivateProfileInt("ZtTeam","GuildMaxUser",80,CommonServer_DIR);

  00bb8	68 00 00 00 00	 push	 OFFSET ??_C@_0BK@LPKPDKGD@?4?4?2Data?2ZtData?2Common?4ini?$AA@
  00bbd	6a 50		 push	 80			; 00000050H
  00bbf	68 00 00 00 00	 push	 OFFSET ??_C@_0N@MPBFAGDG@GuildMaxUser?$AA@
  00bc4	68 00 00 00 00	 push	 OFFSET ??_C@_06CNKIADGI@ZtTeam?$AA@
  00bc9	89 86 a0 0d 00
	00		 mov	 DWORD PTR [esi+3488], eax
  00bcf	ff d7		 call	 edi

; 408  : 	this->m_iAllianceMaxGuild = GetPrivateProfileInt("ZtTeam","AllianceMaxGuild",1,CommonServer_DIR);

  00bd1	68 00 00 00 00	 push	 OFFSET ??_C@_0BK@LPKPDKGD@?4?4?2Data?2ZtData?2Common?4ini?$AA@
  00bd6	6a 01		 push	 1
  00bd8	68 00 00 00 00	 push	 OFFSET ??_C@_0BB@HCCLEKCI@AllianceMaxGuild?$AA@
  00bdd	68 00 00 00 00	 push	 OFFSET ??_C@_06CNKIADGI@ZtTeam?$AA@
  00be2	89 86 a4 0d 00
	00		 mov	 DWORD PTR [esi+3492], eax
  00be8	ff d7		 call	 edi

; 409  : 
; 410  : 	this->m_iExpPartyPlus = GetPrivateProfileInt("ZtTeam","ExpPartyPlus",0,CommonServer_DIR);

  00bea	68 00 00 00 00	 push	 OFFSET ??_C@_0BK@LPKPDKGD@?4?4?2Data?2ZtData?2Common?4ini?$AA@
  00bef	6a 00		 push	 0
  00bf1	68 00 00 00 00	 push	 OFFSET ??_C@_0N@LLPFBELB@ExpPartyPlus?$AA@
  00bf6	68 00 00 00 00	 push	 OFFSET ??_C@_06CNKIADGI@ZtTeam?$AA@
  00bfb	89 86 a8 0d 00
	00		 mov	 DWORD PTR [esi+3496], eax
  00c01	ff d7		 call	 edi

; 411  : 
; 412  : 	//----------------
; 413  : 	//		Skills
; 414  : 	//----------------
; 415  : 
; 416  : 
; 417  : 
; 418  : 	//----------------------
; 419  : 	//		Character
; 420  : 	//----------------------
; 421  : 
; 422  : 	this->Character.NeedArrow = GetPrivateProfileInt("Common","NeedArrow",1,Character_DIR);

  00c03	68 00 00 00 00	 push	 OFFSET ??_C@_0BN@KOHJPEHI@?4?4?2Data?2ZtData?2Character?4ini?$AA@
  00c08	6a 01		 push	 1
  00c0a	68 00 00 00 00	 push	 OFFSET ??_C@_09MINFMDAF@NeedArrow?$AA@
  00c0f	68 00 00 00 00	 push	 OFFSET ??_C@_06POMJKEPM@Common?$AA@
  00c14	89 86 ac 0d 00
	00		 mov	 DWORD PTR [esi+3500], eax
  00c1a	ff d7		 call	 edi

; 423  : 	this->Character.CastleSiegeSkillEnable = GetPrivateProfileInt("Common","CastleSiegeSkillEnable",1,Character_DIR);

  00c1c	68 00 00 00 00	 push	 OFFSET ??_C@_0BN@KOHJPEHI@?4?4?2Data?2ZtData?2Character?4ini?$AA@
  00c21	6a 01		 push	 1
  00c23	68 00 00 00 00	 push	 OFFSET ??_C@_0BH@OHMFFPBI@CastleSiegeSkillEnable?$AA@
  00c28	68 00 00 00 00	 push	 OFFSET ??_C@_06POMJKEPM@Common?$AA@
  00c2d	89 86 68 01 00
	00		 mov	 DWORD PTR [esi+360], eax
  00c33	ff d7		 call	 edi

; 424  : 	this->Character.CastleAttackByNPC = GetPrivateProfileInt("Common","CastleAttackByNPC",20,Character_DIR);

  00c35	68 00 00 00 00	 push	 OFFSET ??_C@_0BN@KOHJPEHI@?4?4?2Data?2ZtData?2Character?4ini?$AA@
  00c3a	6a 14		 push	 20			; 00000014H
  00c3c	68 00 00 00 00	 push	 OFFSET ??_C@_0BC@PPFCPJN@CastleAttackByNPC?$AA@
  00c41	68 00 00 00 00	 push	 OFFSET ??_C@_06POMJKEPM@Common?$AA@
  00c46	89 86 6c 01 00
	00		 mov	 DWORD PTR [esi+364], eax
  00c4c	ff d7		 call	 edi

; 425  : 	this->Character.CastleAttackByPlayer = GetPrivateProfileInt("Common","CastleAttackByPlayer",40,Character_DIR);

  00c4e	68 00 00 00 00	 push	 OFFSET ??_C@_0BN@KOHJPEHI@?4?4?2Data?2ZtData?2Character?4ini?$AA@
  00c53	6a 28		 push	 40			; 00000028H
  00c55	68 00 00 00 00	 push	 OFFSET ??_C@_0BF@JAHKLENK@CastleAttackByPlayer?$AA@
  00c5a	68 00 00 00 00	 push	 OFFSET ??_C@_06POMJKEPM@Common?$AA@
  00c5f	89 86 70 01 00
	00		 mov	 DWORD PTR [esi+368], eax
  00c65	ff d7		 call	 edi

; 426  : 	this->Character.PetCastleAttackByNPC = GetPrivateProfileInt("Common","PetCastleAttackByNPC",20,Character_DIR);

  00c67	68 00 00 00 00	 push	 OFFSET ??_C@_0BN@KOHJPEHI@?4?4?2Data?2ZtData?2Character?4ini?$AA@
  00c6c	6a 14		 push	 20			; 00000014H
  00c6e	68 00 00 00 00	 push	 OFFSET ??_C@_0BF@DMHPGJA@PetCastleAttackByNPC?$AA@
  00c73	68 00 00 00 00	 push	 OFFSET ??_C@_06POMJKEPM@Common?$AA@
  00c78	89 86 74 01 00
	00		 mov	 DWORD PTR [esi+372], eax
  00c7e	ff d7		 call	 edi

; 427  : 	this->Character.PetCastleAttackByPlayer = GetPrivateProfileInt("Common","PetCastleAttackByPlayer",40,Character_DIR);

  00c80	68 00 00 00 00	 push	 OFFSET ??_C@_0BN@KOHJPEHI@?4?4?2Data?2ZtData?2Character?4ini?$AA@
  00c85	6a 28		 push	 40			; 00000028H
  00c87	68 00 00 00 00	 push	 OFFSET ??_C@_0BI@IPAIFD@PetCastleAttackByPlayer?$AA@
  00c8c	68 00 00 00 00	 push	 OFFSET ??_C@_06POMJKEPM@Common?$AA@
  00c91	89 86 78 01 00
	00		 mov	 DWORD PTR [esi+376], eax
  00c97	ff d7		 call	 edi

; 428  : 	this->Character.MaxStats = GetPrivateProfileInt("Common", "MaxStats", 65535, Character_DIR);

  00c99	68 00 00 00 00	 push	 OFFSET ??_C@_0BN@KOHJPEHI@?4?4?2Data?2ZtData?2Character?4ini?$AA@
  00c9e	68 ff ff 00 00	 push	 65535			; 0000ffffH
  00ca3	68 00 00 00 00	 push	 OFFSET ??_C@_08KHNFHHOB@MaxStats?$AA@
  00ca8	89 86 7c 01 00
	00		 mov	 DWORD PTR [esi+380], eax
  00cae	68 00 00 00 00	 push	 OFFSET ??_C@_06POMJKEPM@Common?$AA@
  00cb3	ff d7		 call	 edi

; 429  : 	this->Character.CastleDamageByAlliance = GetPrivateProfileInt("Common", "CastleDamageByAlliance", 100, Character_DIR);

  00cb5	68 00 00 00 00	 push	 OFFSET ??_C@_0BN@KOHJPEHI@?4?4?2Data?2ZtData?2Character?4ini?$AA@
  00cba	6a 64		 push	 100			; 00000064H
  00cbc	68 00 00 00 00	 push	 OFFSET ??_C@_0BH@KAHNGFMD@CastleDamageByAlliance?$AA@
  00cc1	68 00 00 00 00	 push	 OFFSET ??_C@_06POMJKEPM@Common?$AA@
  00cc6	89 86 80 01 00
	00		 mov	 DWORD PTR [esi+384], eax
  00ccc	ff d7		 call	 edi

; 430  : 	this->Character.bReflectToReflect = GetPrivateProfileInt("Common", "ReflectToReflect", 1, Character_DIR);

  00cce	68 00 00 00 00	 push	 OFFSET ??_C@_0BN@KOHJPEHI@?4?4?2Data?2ZtData?2Character?4ini?$AA@
  00cd3	6a 01		 push	 1
  00cd5	68 00 00 00 00	 push	 OFFSET ??_C@_0BB@FNNJAMED@ReflectToReflect?$AA@
  00cda	68 00 00 00 00	 push	 OFFSET ??_C@_06POMJKEPM@Common?$AA@
  00cdf	89 86 84 01 00
	00		 mov	 DWORD PTR [esi+388], eax
  00ce5	ff d7		 call	 edi

; 431  : 
; 432  : 	this->Character.ComboDamagePercent = GetPrivateProfileInt("Common", "ComboDamagePercent", 100, Character_DIR);

  00ce7	68 00 00 00 00	 push	 OFFSET ??_C@_0BN@KOHJPEHI@?4?4?2Data?2ZtData?2Character?4ini?$AA@
  00cec	6a 64		 push	 100			; 00000064H
  00cee	85 c0		 test	 eax, eax
  00cf0	68 00 00 00 00	 push	 OFFSET ??_C@_0BD@ILDLACFI@ComboDamagePercent?$AA@
  00cf5	0f 95 c2	 setne	 dl
  00cf8	68 00 00 00 00	 push	 OFFSET ??_C@_06POMJKEPM@Common?$AA@
  00cfd	88 96 88 01 00
	00		 mov	 BYTE PTR [esi+392], dl
  00d03	ff d7		 call	 edi

; 433  : 	this->Character.SoulBarrierAttackManaDown = GetPrivateProfileInt("Common", "SoulBarrierAttackManaDown", 1, Character_DIR);

  00d05	68 00 00 00 00	 push	 OFFSET ??_C@_0BN@KOHJPEHI@?4?4?2Data?2ZtData?2Character?4ini?$AA@
  00d0a	6a 01		 push	 1
  00d0c	68 00 00 00 00	 push	 OFFSET ??_C@_0BK@FKMBAABH@SoulBarrierAttackManaDown?$AA@
  00d11	68 00 00 00 00	 push	 OFFSET ??_C@_06POMJKEPM@Common?$AA@
  00d16	89 86 90 01 00
	00		 mov	 DWORD PTR [esi+400], eax
  00d1c	ff d7		 call	 edi
  00d1e	85 c0		 test	 eax, eax
  00d20	0f 95 c0	 setne	 al
  00d23	88 86 94 01 00
	00		 mov	 BYTE PTR [esi+404], al

; 434  : 
; 435  : 	if(this->Character.CastleDamageByAlliance < 0)

  00d29	83 be 84 01 00
	00 00		 cmp	 DWORD PTR [esi+388], 0
  00d30	7d 0a		 jge	 SHORT $LN35@LoadConfig

; 436  : 	{
; 437  : 		this->Character.CastleDamageByAlliance = 0;

  00d32	c7 86 84 01 00
	00 00 00 00 00	 mov	 DWORD PTR [esi+388], 0
$LN35@LoadConfig:

; 438  : 	}
; 439  : 
; 440  : 	this->Character.ELFDamageMax_Bow_StrDexRight = GetPrivateProfileInt("Fairy_Elf","DamageMax_Bow_StrDexRight",4,Character_DIR);

  00d3c	68 00 00 00 00	 push	 OFFSET ??_C@_0BN@KOHJPEHI@?4?4?2Data?2ZtData?2Character?4ini?$AA@
  00d41	6a 04		 push	 4
  00d43	68 00 00 00 00	 push	 OFFSET ??_C@_0BK@JJKGIFGH@DamageMax_Bow_StrDexRight?$AA@
  00d48	68 00 00 00 00	 push	 OFFSET ??_C@_09DIFEFNGC@Fairy_Elf?$AA@
  00d4d	ff d7		 call	 edi

; 441  : 	this->Character.ELFDamageMin_Bow_StrDexRight = GetPrivateProfileInt("Fairy_Elf","DamageMin_Bow_StrDexRight",7,Character_DIR);

  00d4f	68 00 00 00 00	 push	 OFFSET ??_C@_0BN@KOHJPEHI@?4?4?2Data?2ZtData?2Character?4ini?$AA@
  00d54	6a 07		 push	 7
  00d56	68 00 00 00 00	 push	 OFFSET ??_C@_0BK@LANIHIHP@DamageMin_Bow_StrDexRight?$AA@
  00d5b	68 00 00 00 00	 push	 OFFSET ??_C@_09DIFEFNGC@Fairy_Elf?$AA@
  00d60	89 86 98 01 00
	00		 mov	 DWORD PTR [esi+408], eax
  00d66	ff d7		 call	 edi

; 442  : 	this->Character.ELFDamageMax_Bow_StrDexLeft = GetPrivateProfileInt("Fairy_Elf","DamageMax_Bow_StrDexLeft",4,Character_DIR);

  00d68	68 00 00 00 00	 push	 OFFSET ??_C@_0BN@KOHJPEHI@?4?4?2Data?2ZtData?2Character?4ini?$AA@
  00d6d	6a 04		 push	 4
  00d6f	68 00 00 00 00	 push	 OFFSET ??_C@_0BJ@IKAPMJBH@DamageMax_Bow_StrDexLeft?$AA@
  00d74	68 00 00 00 00	 push	 OFFSET ??_C@_09DIFEFNGC@Fairy_Elf?$AA@
  00d79	89 86 9c 01 00
	00		 mov	 DWORD PTR [esi+412], eax
  00d7f	ff d7		 call	 edi

; 443  : 	this->Character.ELFDamageMin_Bow_StrDexLeft = GetPrivateProfileInt("Fairy_Elf","DamageMin_Bow_StrDexLeft",7,Character_DIR);

  00d81	68 00 00 00 00	 push	 OFFSET ??_C@_0BN@KOHJPEHI@?4?4?2Data?2ZtData?2Character?4ini?$AA@
  00d86	6a 07		 push	 7
  00d88	68 00 00 00 00	 push	 OFFSET ??_C@_0BJ@CNDLEJGO@DamageMin_Bow_StrDexLeft?$AA@
  00d8d	68 00 00 00 00	 push	 OFFSET ??_C@_09DIFEFNGC@Fairy_Elf?$AA@
  00d92	89 86 a0 01 00
	00		 mov	 DWORD PTR [esi+416], eax
  00d98	ff d7		 call	 edi

; 444  : 
; 445  : 	this->Character.ELFDamageMax_NoBow_StrRight = GetPrivateProfileInt("Fairy_Elf","DamageMax_NoBow_StrRight",8,Character_DIR);

  00d9a	68 00 00 00 00	 push	 OFFSET ??_C@_0BN@KOHJPEHI@?4?4?2Data?2ZtData?2Character?4ini?$AA@
  00d9f	6a 08		 push	 8
  00da1	68 00 00 00 00	 push	 OFFSET ??_C@_0BJ@PNMCAIMB@DamageMax_NoBow_StrRight?$AA@
  00da6	68 00 00 00 00	 push	 OFFSET ??_C@_09DIFEFNGC@Fairy_Elf?$AA@
  00dab	89 86 a4 01 00
	00		 mov	 DWORD PTR [esi+420], eax
  00db1	ff d7		 call	 edi

; 446  : 	this->Character.ELFDamageMax_NoBow_DexRight = GetPrivateProfileInt("Fairy_Elf","DamageMax_NoBow_DexRight",4,Character_DIR);

  00db3	68 00 00 00 00	 push	 OFFSET ??_C@_0BN@KOHJPEHI@?4?4?2Data?2ZtData?2Character?4ini?$AA@
  00db8	6a 04		 push	 4
  00dba	68 00 00 00 00	 push	 OFFSET ??_C@_0BJ@CBACEJIC@DamageMax_NoBow_DexRight?$AA@
  00dbf	68 00 00 00 00	 push	 OFFSET ??_C@_09DIFEFNGC@Fairy_Elf?$AA@
  00dc4	89 86 a8 01 00
	00		 mov	 DWORD PTR [esi+424], eax
  00dca	ff d7		 call	 edi

; 447  : 	this->Character.ELFDamageMin_NoBow_StrRight = GetPrivateProfileInt("Fairy_Elf","DamageMin_NoBow_StrRight",14,Character_DIR);

  00dcc	68 00 00 00 00	 push	 OFFSET ??_C@_0BN@KOHJPEHI@?4?4?2Data?2ZtData?2Character?4ini?$AA@
  00dd1	6a 0e		 push	 14			; 0000000eH
  00dd3	68 00 00 00 00	 push	 OFFSET ??_C@_0BJ@FKPGIILI@DamageMin_NoBow_StrRight?$AA@
  00dd8	68 00 00 00 00	 push	 OFFSET ??_C@_09DIFEFNGC@Fairy_Elf?$AA@
  00ddd	89 86 ac 01 00
	00		 mov	 DWORD PTR [esi+428], eax
  00de3	ff d7		 call	 edi

; 448  : 	this->Character.ELFDamageMin_NoBow_DexRight = GetPrivateProfileInt("Fairy_Elf","DamageMin_NoBow_DexRight",7,Character_DIR);

  00de5	68 00 00 00 00	 push	 OFFSET ??_C@_0BN@KOHJPEHI@?4?4?2Data?2ZtData?2Character?4ini?$AA@
  00dea	6a 07		 push	 7
  00dec	68 00 00 00 00	 push	 OFFSET ??_C@_0BJ@IGDGMJPL@DamageMin_NoBow_DexRight?$AA@
  00df1	68 00 00 00 00	 push	 OFFSET ??_C@_09DIFEFNGC@Fairy_Elf?$AA@
  00df6	89 86 b0 01 00
	00		 mov	 DWORD PTR [esi+432], eax
  00dfc	ff d7		 call	 edi

; 449  : 
; 450  : 	this->Character.ELFDamageMax_NoBow_StrLeft = GetPrivateProfileInt("Fairy_Elf","DamageMax_NoBow_StrLeft",8,Character_DIR);

  00dfe	68 00 00 00 00	 push	 OFFSET ??_C@_0BN@KOHJPEHI@?4?4?2Data?2ZtData?2Character?4ini?$AA@
  00e03	6a 08		 push	 8
  00e05	68 00 00 00 00	 push	 OFFSET ??_C@_0BI@IFCKKPAO@DamageMax_NoBow_StrLeft?$AA@
  00e0a	68 00 00 00 00	 push	 OFFSET ??_C@_09DIFEFNGC@Fairy_Elf?$AA@
  00e0f	89 86 b4 01 00
	00		 mov	 DWORD PTR [esi+436], eax
  00e15	ff d7		 call	 edi

; 451  : 	this->Character.ELFDamageMax_NoBow_DexLeft = GetPrivateProfileInt("Fairy_Elf","DamageMax_NoBow_DexLeft",4,Character_DIR);

  00e17	68 00 00 00 00	 push	 OFFSET ??_C@_0BN@KOHJPEHI@?4?4?2Data?2ZtData?2Character?4ini?$AA@
  00e1c	6a 04		 push	 4
  00e1e	68 00 00 00 00	 push	 OFFSET ??_C@_0BI@JDGGCDCA@DamageMax_NoBow_DexLeft?$AA@
  00e23	68 00 00 00 00	 push	 OFFSET ??_C@_09DIFEFNGC@Fairy_Elf?$AA@
  00e28	89 86 b8 01 00
	00		 mov	 DWORD PTR [esi+440], eax
  00e2e	ff d7		 call	 edi

; 452  : 	this->Character.ELFDamageMin_NoBow_StrLeft = GetPrivateProfileInt("Fairy_Elf","DamageMin_NoBow_StrLeft",14,Character_DIR);

  00e30	68 00 00 00 00	 push	 OFFSET ??_C@_0BN@KOHJPEHI@?4?4?2Data?2ZtData?2Character?4ini?$AA@
  00e35	6a 0e		 push	 14			; 0000000eH
  00e37	68 00 00 00 00	 push	 OFFSET ??_C@_0BI@NGIMLHOK@DamageMin_NoBow_StrLeft?$AA@
  00e3c	68 00 00 00 00	 push	 OFFSET ??_C@_09DIFEFNGC@Fairy_Elf?$AA@
  00e41	89 86 bc 01 00
	00		 mov	 DWORD PTR [esi+444], eax
  00e47	ff d7		 call	 edi

; 453  : 	this->Character.ELFDamageMin_NoBow_DexLeft = GetPrivateProfileInt("Fairy_Elf","DamageMin_NoBow_DexLeft",7,Character_DIR);

  00e49	68 00 00 00 00	 push	 OFFSET ??_C@_0BN@KOHJPEHI@?4?4?2Data?2ZtData?2Character?4ini?$AA@
  00e4e	6a 07		 push	 7
  00e50	68 00 00 00 00	 push	 OFFSET ??_C@_0BI@MAMADLME@DamageMin_NoBow_DexLeft?$AA@
  00e55	68 00 00 00 00	 push	 OFFSET ??_C@_09DIFEFNGC@Fairy_Elf?$AA@
  00e5a	89 86 c0 01 00
	00		 mov	 DWORD PTR [esi+448], eax
  00e60	ff d7		 call	 edi

; 454  : 
; 455  : 	this->Character.ELFDamageMax_DexStrRight = GetPrivateProfileInt("Fairy_Elf","DamageMax_DexStrRight",4,Character_DIR);

  00e62	68 00 00 00 00	 push	 OFFSET ??_C@_0BN@KOHJPEHI@?4?4?2Data?2ZtData?2Character?4ini?$AA@
  00e67	6a 04		 push	 4
  00e69	68 00 00 00 00	 push	 OFFSET ??_C@_0BG@CDCKOAMA@DamageMax_DexStrRight?$AA@
  00e6e	68 00 00 00 00	 push	 OFFSET ??_C@_09DIFEFNGC@Fairy_Elf?$AA@
  00e73	89 86 c4 01 00
	00		 mov	 DWORD PTR [esi+452], eax
  00e79	ff d7		 call	 edi

; 456  : 	this->Character.ELFDamageMin_DexStrRight = GetPrivateProfileInt("Fairy_Elf","DamageMin_DexStrRight",7,Character_DIR);

  00e7b	68 00 00 00 00	 push	 OFFSET ??_C@_0BN@KOHJPEHI@?4?4?2Data?2ZtData?2Character?4ini?$AA@
  00e80	6a 07		 push	 7
  00e82	89 86 c8 01 00
	00		 mov	 DWORD PTR [esi+456], eax
  00e88	68 00 00 00 00	 push	 OFFSET ??_C@_0BG@HCNDFLJN@DamageMin_DexStrRight?$AA@
  00e8d	68 00 00 00 00	 push	 OFFSET ??_C@_09DIFEFNGC@Fairy_Elf?$AA@
  00e92	ff d7		 call	 edi

; 457  : 	this->Character.ELFDamageMax_DexStrLeft = GetPrivateProfileInt("Fairy_Elf","DamageMax_DexStrLeft",4,Character_DIR);

  00e94	68 00 00 00 00	 push	 OFFSET ??_C@_0BN@KOHJPEHI@?4?4?2Data?2ZtData?2Character?4ini?$AA@
  00e99	6a 04		 push	 4
  00e9b	68 00 00 00 00	 push	 OFFSET ??_C@_0BF@NGFMGLOD@DamageMax_DexStrLeft?$AA@
  00ea0	68 00 00 00 00	 push	 OFFSET ??_C@_09DIFEFNGC@Fairy_Elf?$AA@
  00ea5	89 86 cc 01 00
	00		 mov	 DWORD PTR [esi+460], eax
  00eab	ff d7		 call	 edi

; 458  : 	this->Character.ELFDamageMin_DexStrLeft = GetPrivateProfileInt("Fairy_Elf","DamageMin_DexStrLeft",7,Character_DIR);

  00ead	68 00 00 00 00	 push	 OFFSET ??_C@_0BN@KOHJPEHI@?4?4?2Data?2ZtData?2Character?4ini?$AA@
  00eb2	6a 07		 push	 7
  00eb4	68 00 00 00 00	 push	 OFFSET ??_C@_0BF@PBOHAMNC@DamageMin_DexStrLeft?$AA@
  00eb9	68 00 00 00 00	 push	 OFFSET ??_C@_09DIFEFNGC@Fairy_Elf?$AA@
  00ebe	89 86 d0 01 00
	00		 mov	 DWORD PTR [esi+464], eax
  00ec4	ff d7		 call	 edi

; 459  : 
; 460  : 	//----------------------
; 461  : 	this->Character.DKDamageMax_StrRight = GetPrivateProfileInt("Dark_Knight","DamageMax_StrRight",4,Character_DIR);

  00ec6	68 00 00 00 00	 push	 OFFSET ??_C@_0BN@KOHJPEHI@?4?4?2Data?2ZtData?2Character?4ini?$AA@
  00ecb	6a 04		 push	 4
  00ecd	68 00 00 00 00	 push	 OFFSET ??_C@_0BD@INKFCDFG@DamageMax_StrRight?$AA@
  00ed2	68 00 00 00 00	 push	 OFFSET ??_C@_0M@MNCPOEBE@Dark_Knight?$AA@
  00ed7	89 86 d4 01 00
	00		 mov	 DWORD PTR [esi+468], eax
  00edd	ff d7		 call	 edi

; 462  : 	this->Character.DKDamageMin_StrRight = GetPrivateProfileInt("Dark_Knight","DamageMin_StrRight",6,Character_DIR);

  00edf	68 00 00 00 00	 push	 OFFSET ??_C@_0BN@KOHJPEHI@?4?4?2Data?2ZtData?2Character?4ini?$AA@
  00ee4	6a 06		 push	 6
  00ee6	68 00 00 00 00	 push	 OFFSET ??_C@_0BD@MNOKFLCA@DamageMin_StrRight?$AA@
  00eeb	68 00 00 00 00	 push	 OFFSET ??_C@_0M@MNCPOEBE@Dark_Knight?$AA@
  00ef0	89 86 d8 01 00
	00		 mov	 DWORD PTR [esi+472], eax
  00ef6	ff d7		 call	 edi

; 463  : 	this->Character.DKDamageMax_StrLeft = GetPrivateProfileInt("Dark_Knight","DamageMax_StrLeft",4,Character_DIR);

  00ef8	68 00 00 00 00	 push	 OFFSET ??_C@_0BN@KOHJPEHI@?4?4?2Data?2ZtData?2Character?4ini?$AA@
  00efd	6a 04		 push	 4
  00eff	68 00 00 00 00	 push	 OFFSET ??_C@_0BC@IIPFLHAL@DamageMax_StrLeft?$AA@
  00f04	68 00 00 00 00	 push	 OFFSET ??_C@_0M@MNCPOEBE@Dark_Knight?$AA@
  00f09	89 86 dc 01 00
	00		 mov	 DWORD PTR [esi+476], eax
  00f0f	ff d7		 call	 edi

; 464  : 	this->Character.DKDamageMin_StrLeft = GetPrivateProfileInt("Dark_Knight","DamageMin_StrLeft",6,Character_DIR);

  00f11	68 00 00 00 00	 push	 OFFSET ??_C@_0BN@KOHJPEHI@?4?4?2Data?2ZtData?2Character?4ini?$AA@
  00f16	6a 06		 push	 6
  00f18	68 00 00 00 00	 push	 OFFSET ??_C@_0BC@BIIGKHOB@DamageMin_StrLeft?$AA@
  00f1d	68 00 00 00 00	 push	 OFFSET ??_C@_0M@MNCPOEBE@Dark_Knight?$AA@
  00f22	89 86 e0 01 00
	00		 mov	 DWORD PTR [esi+480], eax
  00f28	ff d7		 call	 edi

; 465  : 	//----------------------
; 466  : 	this->Character.MGDamageMax_StrRight = GetPrivateProfileInt("Magic_Gladiator","DamageMax_StrRight",4,Character_DIR);

  00f2a	68 00 00 00 00	 push	 OFFSET ??_C@_0BN@KOHJPEHI@?4?4?2Data?2ZtData?2Character?4ini?$AA@
  00f2f	6a 04		 push	 4
  00f31	68 00 00 00 00	 push	 OFFSET ??_C@_0BD@INKFCDFG@DamageMax_StrRight?$AA@
  00f36	68 00 00 00 00	 push	 OFFSET ??_C@_0BA@IPLGPKDA@Magic_Gladiator?$AA@
  00f3b	89 86 e4 01 00
	00		 mov	 DWORD PTR [esi+484], eax
  00f41	ff d7		 call	 edi

; 467  : 	this->Character.MGDamageMax_EneRight = GetPrivateProfileInt("Magic_Gladiator","DamageMax_EneRight",8,Character_DIR);

  00f43	68 00 00 00 00	 push	 OFFSET ??_C@_0BN@KOHJPEHI@?4?4?2Data?2ZtData?2Character?4ini?$AA@
  00f48	6a 08		 push	 8
  00f4a	68 00 00 00 00	 push	 OFFSET ??_C@_0BD@BNHNJHAO@DamageMax_EneRight?$AA@
  00f4f	68 00 00 00 00	 push	 OFFSET ??_C@_0BA@IPLGPKDA@Magic_Gladiator?$AA@
  00f54	89 86 e8 01 00
	00		 mov	 DWORD PTR [esi+488], eax
  00f5a	ff d7		 call	 edi

; 468  : 	this->Character.MGDamageMin_StrRight = GetPrivateProfileInt("Magic_Gladiator","DamageMin_StrRight",6,Character_DIR);

  00f5c	68 00 00 00 00	 push	 OFFSET ??_C@_0BN@KOHJPEHI@?4?4?2Data?2ZtData?2Character?4ini?$AA@
  00f61	6a 06		 push	 6
  00f63	68 00 00 00 00	 push	 OFFSET ??_C@_0BD@MNOKFLCA@DamageMin_StrRight?$AA@
  00f68	68 00 00 00 00	 push	 OFFSET ??_C@_0BA@IPLGPKDA@Magic_Gladiator?$AA@
  00f6d	89 86 ec 01 00
	00		 mov	 DWORD PTR [esi+492], eax
  00f73	ff d7		 call	 edi

; 469  : 	this->Character.MGDamageMin_EneRight = GetPrivateProfileInt("Magic_Gladiator","DamageMin_EneRight",12,Character_DIR);

  00f75	68 00 00 00 00	 push	 OFFSET ??_C@_0BN@KOHJPEHI@?4?4?2Data?2ZtData?2Character?4ini?$AA@
  00f7a	6a 0c		 push	 12			; 0000000cH
  00f7c	68 00 00 00 00	 push	 OFFSET ??_C@_0BD@FNDCOPHI@DamageMin_EneRight?$AA@
  00f81	68 00 00 00 00	 push	 OFFSET ??_C@_0BA@IPLGPKDA@Magic_Gladiator?$AA@
  00f86	89 86 f0 01 00
	00		 mov	 DWORD PTR [esi+496], eax
  00f8c	ff d7		 call	 edi

; 470  : 
; 471  : 	this->Character.MGDamageMax_StrLeft = GetPrivateProfileInt("Magic_Gladiator","DamageMax_StrLeft",4,Character_DIR);

  00f8e	68 00 00 00 00	 push	 OFFSET ??_C@_0BN@KOHJPEHI@?4?4?2Data?2ZtData?2Character?4ini?$AA@
  00f93	6a 04		 push	 4
  00f95	68 00 00 00 00	 push	 OFFSET ??_C@_0BC@IIPFLHAL@DamageMax_StrLeft?$AA@
  00f9a	68 00 00 00 00	 push	 OFFSET ??_C@_0BA@IPLGPKDA@Magic_Gladiator?$AA@
  00f9f	89 86 f4 01 00
	00		 mov	 DWORD PTR [esi+500], eax
  00fa5	ff d7		 call	 edi

; 472  : 	this->Character.MGDamageMax_EneLeft = GetPrivateProfileInt("Magic_Gladiator","DamageMax_EneLeft",8,Character_DIR);

  00fa7	68 00 00 00 00	 push	 OFFSET ??_C@_0BN@KOHJPEHI@?4?4?2Data?2ZtData?2Character?4ini?$AA@
  00fac	6a 08		 push	 8
  00fae	68 00 00 00 00	 push	 OFFSET ??_C@_0BC@OPFMHOAE@DamageMax_EneLeft?$AA@
  00fb3	68 00 00 00 00	 push	 OFFSET ??_C@_0BA@IPLGPKDA@Magic_Gladiator?$AA@
  00fb8	89 86 f8 01 00
	00		 mov	 DWORD PTR [esi+504], eax
  00fbe	ff d7		 call	 edi

; 473  : 	this->Character.MGDamageMin_StrLeft = GetPrivateProfileInt("Magic_Gladiator","DamageMin_StrLeft",6,Character_DIR);

  00fc0	68 00 00 00 00	 push	 OFFSET ??_C@_0BN@KOHJPEHI@?4?4?2Data?2ZtData?2Character?4ini?$AA@
  00fc5	6a 06		 push	 6
  00fc7	68 00 00 00 00	 push	 OFFSET ??_C@_0BC@BIIGKHOB@DamageMin_StrLeft?$AA@
  00fcc	68 00 00 00 00	 push	 OFFSET ??_C@_0BA@IPLGPKDA@Magic_Gladiator?$AA@
  00fd1	89 86 fc 01 00
	00		 mov	 DWORD PTR [esi+508], eax
  00fd7	ff d7		 call	 edi
  00fd9	89 86 00 02 00
	00		 mov	 DWORD PTR [esi+512], eax

; 474  : 	this->Character.MGDamageMin_EneLeft = GetPrivateProfileInt("Magic_Gladiator","DamageMin_EneLeft",12,Character_DIR);

  00fdf	68 00 00 00 00	 push	 OFFSET ??_C@_0BN@KOHJPEHI@?4?4?2Data?2ZtData?2Character?4ini?$AA@
  00fe4	6a 0c		 push	 12			; 0000000cH
  00fe6	68 00 00 00 00	 push	 OFFSET ??_C@_0BC@HPCPGOOO@DamageMin_EneLeft?$AA@
  00feb	68 00 00 00 00	 push	 OFFSET ??_C@_0BA@IPLGPKDA@Magic_Gladiator?$AA@
  00ff0	ff d7		 call	 edi

; 475  : 	//----------------------
; 476  : 	this->Character.SUMDamageMax_StrRight = GetPrivateProfileInt("Summoner","DamageMax_StrRight",4,Character_DIR);

  00ff2	68 00 00 00 00	 push	 OFFSET ??_C@_0BN@KOHJPEHI@?4?4?2Data?2ZtData?2Character?4ini?$AA@
  00ff7	6a 04		 push	 4
  00ff9	68 00 00 00 00	 push	 OFFSET ??_C@_0BD@INKFCDFG@DamageMax_StrRight?$AA@
  00ffe	68 00 00 00 00	 push	 OFFSET ??_C@_08HLBMEKKE@Summoner?$AA@
  01003	89 86 04 02 00
	00		 mov	 DWORD PTR [esi+516], eax
  01009	ff d7		 call	 edi

; 477  : 	this->Character.SUMDamageMin_StrRight = GetPrivateProfileInt("Summoner","DamageMin_StrRight",7,Character_DIR);

  0100b	68 00 00 00 00	 push	 OFFSET ??_C@_0BN@KOHJPEHI@?4?4?2Data?2ZtData?2Character?4ini?$AA@
  01010	6a 07		 push	 7
  01012	68 00 00 00 00	 push	 OFFSET ??_C@_0BD@MNOKFLCA@DamageMin_StrRight?$AA@
  01017	68 00 00 00 00	 push	 OFFSET ??_C@_08HLBMEKKE@Summoner?$AA@
  0101c	89 86 08 02 00
	00		 mov	 DWORD PTR [esi+520], eax
  01022	ff d7		 call	 edi

; 478  : 	this->Character.SUMDamageMax_StrLeft = GetPrivateProfileInt("Summoner","DamageMax_StrLeft",4,Character_DIR);

  01024	68 00 00 00 00	 push	 OFFSET ??_C@_0BN@KOHJPEHI@?4?4?2Data?2ZtData?2Character?4ini?$AA@
  01029	6a 04		 push	 4
  0102b	68 00 00 00 00	 push	 OFFSET ??_C@_0BC@IIPFLHAL@DamageMax_StrLeft?$AA@
  01030	68 00 00 00 00	 push	 OFFSET ??_C@_08HLBMEKKE@Summoner?$AA@
  01035	89 86 0c 02 00
	00		 mov	 DWORD PTR [esi+524], eax
  0103b	ff d7		 call	 edi

; 479  : 	this->Character.SUMDamageMin_StrLeft = GetPrivateProfileInt("Summoner","DamageMin_StrLeft",7,Character_DIR);

  0103d	68 00 00 00 00	 push	 OFFSET ??_C@_0BN@KOHJPEHI@?4?4?2Data?2ZtData?2Character?4ini?$AA@
  01042	6a 07		 push	 7
  01044	68 00 00 00 00	 push	 OFFSET ??_C@_0BC@BIIGKHOB@DamageMin_StrLeft?$AA@
  01049	68 00 00 00 00	 push	 OFFSET ??_C@_08HLBMEKKE@Summoner?$AA@
  0104e	89 86 10 02 00
	00		 mov	 DWORD PTR [esi+528], eax
  01054	ff d7		 call	 edi

; 480  : 	//----------------------
; 481  : 	this->Character.DWDamageMax_StrRight = GetPrivateProfileInt("Dark_Wizard","DamageMax_StrRight",4,Character_DIR);

  01056	68 00 00 00 00	 push	 OFFSET ??_C@_0BN@KOHJPEHI@?4?4?2Data?2ZtData?2Character?4ini?$AA@
  0105b	6a 04		 push	 4
  0105d	68 00 00 00 00	 push	 OFFSET ??_C@_0BD@INKFCDFG@DamageMax_StrRight?$AA@
  01062	68 00 00 00 00	 push	 OFFSET ??_C@_0M@CJAMKEGP@Dark_Wizard?$AA@
  01067	89 86 14 02 00
	00		 mov	 DWORD PTR [esi+532], eax
  0106d	ff d7		 call	 edi

; 482  : 	this->Character.DWDamageMin_StrRight = GetPrivateProfileInt("Dark_Wizard","DamageMin_StrRight",6,Character_DIR);

  0106f	68 00 00 00 00	 push	 OFFSET ??_C@_0BN@KOHJPEHI@?4?4?2Data?2ZtData?2Character?4ini?$AA@
  01074	6a 06		 push	 6
  01076	68 00 00 00 00	 push	 OFFSET ??_C@_0BD@MNOKFLCA@DamageMin_StrRight?$AA@
  0107b	68 00 00 00 00	 push	 OFFSET ??_C@_0M@CJAMKEGP@Dark_Wizard?$AA@
  01080	89 86 18 02 00
	00		 mov	 DWORD PTR [esi+536], eax
  01086	ff d7		 call	 edi

; 483  : 	this->Character.DWDamageMax_StrLeft = GetPrivateProfileInt("Dark_Wizard","DamageMax_StrLeft",4,Character_DIR);

  01088	68 00 00 00 00	 push	 OFFSET ??_C@_0BN@KOHJPEHI@?4?4?2Data?2ZtData?2Character?4ini?$AA@
  0108d	6a 04		 push	 4
  0108f	68 00 00 00 00	 push	 OFFSET ??_C@_0BC@IIPFLHAL@DamageMax_StrLeft?$AA@
  01094	68 00 00 00 00	 push	 OFFSET ??_C@_0M@CJAMKEGP@Dark_Wizard?$AA@
  01099	89 86 1c 02 00
	00		 mov	 DWORD PTR [esi+540], eax
  0109f	ff d7		 call	 edi

; 484  : 	this->Character.DWDamageMin_StrLeft = GetPrivateProfileInt("Dark_Wizard","DamageMin_StrLeft",6,Character_DIR);

  010a1	68 00 00 00 00	 push	 OFFSET ??_C@_0BN@KOHJPEHI@?4?4?2Data?2ZtData?2Character?4ini?$AA@
  010a6	6a 06		 push	 6
  010a8	68 00 00 00 00	 push	 OFFSET ??_C@_0BC@BIIGKHOB@DamageMin_StrLeft?$AA@
  010ad	68 00 00 00 00	 push	 OFFSET ??_C@_0M@CJAMKEGP@Dark_Wizard?$AA@
  010b2	89 86 20 02 00
	00		 mov	 DWORD PTR [esi+544], eax
  010b8	ff d7		 call	 edi

; 485  : 	//------------------------
; 486  : 	this->Character.DLDamageMax_StrRight = GetPrivateProfileInt("Dark_Lord","DamageMax_StrRight",5,Character_DIR);

  010ba	68 00 00 00 00	 push	 OFFSET ??_C@_0BN@KOHJPEHI@?4?4?2Data?2ZtData?2Character?4ini?$AA@
  010bf	6a 05		 push	 5
  010c1	68 00 00 00 00	 push	 OFFSET ??_C@_0BD@INKFCDFG@DamageMax_StrRight?$AA@
  010c6	68 00 00 00 00	 push	 OFFSET ??_C@_09PCICNBOE@Dark_Lord?$AA@
  010cb	89 86 24 02 00
	00		 mov	 DWORD PTR [esi+548], eax
  010d1	ff d7		 call	 edi

; 487  : 	this->Character.DLDamageMax_EneRight = GetPrivateProfileInt("Dark_Lord","DamageMax_EneRight",10,Character_DIR);

  010d3	68 00 00 00 00	 push	 OFFSET ??_C@_0BN@KOHJPEHI@?4?4?2Data?2ZtData?2Character?4ini?$AA@
  010d8	6a 0a		 push	 10			; 0000000aH
  010da	68 00 00 00 00	 push	 OFFSET ??_C@_0BD@BNHNJHAO@DamageMax_EneRight?$AA@
  010df	68 00 00 00 00	 push	 OFFSET ??_C@_09PCICNBOE@Dark_Lord?$AA@
  010e4	89 86 28 02 00
	00		 mov	 DWORD PTR [esi+552], eax
  010ea	ff d7		 call	 edi

; 488  : 	this->Character.DLDamageMin_StrRight = GetPrivateProfileInt("Dark_Lord","DamageMin_StrRight",7,Character_DIR);

  010ec	68 00 00 00 00	 push	 OFFSET ??_C@_0BN@KOHJPEHI@?4?4?2Data?2ZtData?2Character?4ini?$AA@
  010f1	6a 07		 push	 7
  010f3	68 00 00 00 00	 push	 OFFSET ??_C@_0BD@MNOKFLCA@DamageMin_StrRight?$AA@
  010f8	68 00 00 00 00	 push	 OFFSET ??_C@_09PCICNBOE@Dark_Lord?$AA@
  010fd	89 86 2c 02 00
	00		 mov	 DWORD PTR [esi+556], eax
  01103	ff d7		 call	 edi

; 489  : 	this->Character.DLDamageMin_EneRight = GetPrivateProfileInt("Dark_Lord","DamageMin_EneRight",14,Character_DIR);

  01105	68 00 00 00 00	 push	 OFFSET ??_C@_0BN@KOHJPEHI@?4?4?2Data?2ZtData?2Character?4ini?$AA@
  0110a	6a 0e		 push	 14			; 0000000eH
  0110c	68 00 00 00 00	 push	 OFFSET ??_C@_0BD@FNDCOPHI@DamageMin_EneRight?$AA@
  01111	68 00 00 00 00	 push	 OFFSET ??_C@_09PCICNBOE@Dark_Lord?$AA@
  01116	89 86 30 02 00
	00		 mov	 DWORD PTR [esi+560], eax
  0111c	ff d7		 call	 edi

; 490  : 
; 491  : 	this->Character.DLDamageMax_StrLeft = GetPrivateProfileInt("Dark_Lord","DamageMax_StrLeft",5,Character_DIR);

  0111e	68 00 00 00 00	 push	 OFFSET ??_C@_0BN@KOHJPEHI@?4?4?2Data?2ZtData?2Character?4ini?$AA@
  01123	6a 05		 push	 5
  01125	89 86 34 02 00
	00		 mov	 DWORD PTR [esi+564], eax
  0112b	68 00 00 00 00	 push	 OFFSET ??_C@_0BC@IIPFLHAL@DamageMax_StrLeft?$AA@
  01130	68 00 00 00 00	 push	 OFFSET ??_C@_09PCICNBOE@Dark_Lord?$AA@
  01135	ff d7		 call	 edi

; 492  : 	this->Character.DLDamageMax_EneLeft = GetPrivateProfileInt("Dark_Lord","DamageMax_EneLeft",10,Character_DIR);

  01137	68 00 00 00 00	 push	 OFFSET ??_C@_0BN@KOHJPEHI@?4?4?2Data?2ZtData?2Character?4ini?$AA@
  0113c	6a 0a		 push	 10			; 0000000aH
  0113e	68 00 00 00 00	 push	 OFFSET ??_C@_0BC@OPFMHOAE@DamageMax_EneLeft?$AA@
  01143	68 00 00 00 00	 push	 OFFSET ??_C@_09PCICNBOE@Dark_Lord?$AA@
  01148	89 86 38 02 00
	00		 mov	 DWORD PTR [esi+568], eax
  0114e	ff d7		 call	 edi

; 493  : 	this->Character.DLDamageMin_StrLeft = GetPrivateProfileInt("Dark_Lord","DamageMin_StrLeft",7,Character_DIR);

  01150	68 00 00 00 00	 push	 OFFSET ??_C@_0BN@KOHJPEHI@?4?4?2Data?2ZtData?2Character?4ini?$AA@
  01155	6a 07		 push	 7
  01157	68 00 00 00 00	 push	 OFFSET ??_C@_0BC@BIIGKHOB@DamageMin_StrLeft?$AA@
  0115c	68 00 00 00 00	 push	 OFFSET ??_C@_09PCICNBOE@Dark_Lord?$AA@
  01161	89 86 3c 02 00
	00		 mov	 DWORD PTR [esi+572], eax
  01167	ff d7		 call	 edi

; 494  : 	this->Character.DLDamageMin_EneLeft = GetPrivateProfileInt("Dark_Lord","DamageMin_EneLeft",14,Character_DIR);

  01169	68 00 00 00 00	 push	 OFFSET ??_C@_0BN@KOHJPEHI@?4?4?2Data?2ZtData?2Character?4ini?$AA@
  0116e	6a 0e		 push	 14			; 0000000eH
  01170	68 00 00 00 00	 push	 OFFSET ??_C@_0BC@HPCPGOOO@DamageMin_EneLeft?$AA@
  01175	68 00 00 00 00	 push	 OFFSET ??_C@_09PCICNBOE@Dark_Lord?$AA@
  0117a	89 86 40 02 00
	00		 mov	 DWORD PTR [esi+576], eax
  01180	ff d7		 call	 edi

; 495  : 	//-------------------------
; 496  : 
; 497  : 	this->Character.SUMMagicDamageMax = GetPrivateProfileInt("Summoner","MagicDamageMax",4,Character_DIR);

  01182	68 00 00 00 00	 push	 OFFSET ??_C@_0BN@KOHJPEHI@?4?4?2Data?2ZtData?2Character?4ini?$AA@
  01187	6a 04		 push	 4
  01189	68 00 00 00 00	 push	 OFFSET ??_C@_0P@DJIODEEA@MagicDamageMax?$AA@
  0118e	68 00 00 00 00	 push	 OFFSET ??_C@_08HLBMEKKE@Summoner?$AA@
  01193	89 86 44 02 00
	00		 mov	 DWORD PTR [esi+580], eax
  01199	ff d7		 call	 edi

; 498  : 	this->Character.SUMMagicDamageMin = GetPrivateProfileInt("Summoner","MagicDamageMin",9,Character_DIR);

  0119b	68 00 00 00 00	 push	 OFFSET ??_C@_0BN@KOHJPEHI@?4?4?2Data?2ZtData?2Character?4ini?$AA@
  011a0	6a 09		 push	 9
  011a2	68 00 00 00 00	 push	 OFFSET ??_C@_0P@CLAFNACP@MagicDamageMin?$AA@
  011a7	68 00 00 00 00	 push	 OFFSET ??_C@_08HLBMEKKE@Summoner?$AA@
  011ac	89 86 48 02 00
	00		 mov	 DWORD PTR [esi+584], eax
  011b2	ff d7		 call	 edi

; 499  : 
; 500  : 	this->Character.MGMagicDamageMax = GetPrivateProfileInt("Magic_Gladiator","MagicDamageMax",4,Character_DIR);

  011b4	68 00 00 00 00	 push	 OFFSET ??_C@_0BN@KOHJPEHI@?4?4?2Data?2ZtData?2Character?4ini?$AA@
  011b9	6a 04		 push	 4
  011bb	68 00 00 00 00	 push	 OFFSET ??_C@_0P@DJIODEEA@MagicDamageMax?$AA@
  011c0	68 00 00 00 00	 push	 OFFSET ??_C@_0BA@IPLGPKDA@Magic_Gladiator?$AA@
  011c5	89 86 4c 02 00
	00		 mov	 DWORD PTR [esi+588], eax
  011cb	ff d7		 call	 edi

; 501  : 	this->Character.MGMagicDamageMin = GetPrivateProfileInt("Magic_Gladiator","MagicDamageMin",9,Character_DIR);

  011cd	68 00 00 00 00	 push	 OFFSET ??_C@_0BN@KOHJPEHI@?4?4?2Data?2ZtData?2Character?4ini?$AA@
  011d2	6a 09		 push	 9
  011d4	68 00 00 00 00	 push	 OFFSET ??_C@_0P@CLAFNACP@MagicDamageMin?$AA@
  011d9	68 00 00 00 00	 push	 OFFSET ??_C@_0BA@IPLGPKDA@Magic_Gladiator?$AA@
  011de	89 86 50 02 00
	00		 mov	 DWORD PTR [esi+592], eax
  011e4	ff d7		 call	 edi

; 502  : 
; 503  : 	this->Character.DWMagicDamageMax = GetPrivateProfileInt("Dark_Wizard","MagicDamageMax",4,Character_DIR);

  011e6	68 00 00 00 00	 push	 OFFSET ??_C@_0BN@KOHJPEHI@?4?4?2Data?2ZtData?2Character?4ini?$AA@
  011eb	6a 04		 push	 4
  011ed	68 00 00 00 00	 push	 OFFSET ??_C@_0P@DJIODEEA@MagicDamageMax?$AA@
  011f2	68 00 00 00 00	 push	 OFFSET ??_C@_0M@CJAMKEGP@Dark_Wizard?$AA@
  011f7	89 86 54 02 00
	00		 mov	 DWORD PTR [esi+596], eax
  011fd	ff d7		 call	 edi

; 504  : 	this->Character.DWMagicDamageMin = GetPrivateProfileInt("Dark_Wizard","MagicDamageMin",9,Character_DIR);

  011ff	68 00 00 00 00	 push	 OFFSET ??_C@_0BN@KOHJPEHI@?4?4?2Data?2ZtData?2Character?4ini?$AA@
  01204	6a 09		 push	 9
  01206	68 00 00 00 00	 push	 OFFSET ??_C@_0P@CLAFNACP@MagicDamageMin?$AA@
  0120b	68 00 00 00 00	 push	 OFFSET ??_C@_0M@CJAMKEGP@Dark_Wizard?$AA@
  01210	89 86 58 02 00
	00		 mov	 DWORD PTR [esi+600], eax
  01216	ff d7		 call	 edi

; 505  : 
; 506  : 	//---------------------------------
; 507  : 	this->Character.ELFSuccessfulBlocking = GetPrivateProfileInt("Fairy_Elf","SuccessfulBlocking",4,Character_DIR);

  01218	68 00 00 00 00	 push	 OFFSET ??_C@_0BN@KOHJPEHI@?4?4?2Data?2ZtData?2Character?4ini?$AA@
  0121d	6a 04		 push	 4
  0121f	68 00 00 00 00	 push	 OFFSET ??_C@_0BD@OCEADDEC@SuccessfulBlocking?$AA@
  01224	68 00 00 00 00	 push	 OFFSET ??_C@_09DIFEFNGC@Fairy_Elf?$AA@
  01229	89 86 5c 02 00
	00		 mov	 DWORD PTR [esi+604], eax
  0122f	ff d7		 call	 edi

; 508  : 	this->Character.DLSuccessfulBlocking = GetPrivateProfileInt("Dark_Lord","SuccessfulBlocking",7,Character_DIR);

  01231	68 00 00 00 00	 push	 OFFSET ??_C@_0BN@KOHJPEHI@?4?4?2Data?2ZtData?2Character?4ini?$AA@
  01236	6a 07		 push	 7
  01238	68 00 00 00 00	 push	 OFFSET ??_C@_0BD@OCEADDEC@SuccessfulBlocking?$AA@
  0123d	68 00 00 00 00	 push	 OFFSET ??_C@_09PCICNBOE@Dark_Lord?$AA@
  01242	89 86 60 02 00
	00		 mov	 DWORD PTR [esi+608], eax
  01248	ff d7		 call	 edi

; 509  : 	this->Character.SUMSuccessfulBlocking = GetPrivateProfileInt("Summoner","SuccessfulBlocking",4,Character_DIR);

  0124a	68 00 00 00 00	 push	 OFFSET ??_C@_0BN@KOHJPEHI@?4?4?2Data?2ZtData?2Character?4ini?$AA@
  0124f	6a 04		 push	 4
  01251	68 00 00 00 00	 push	 OFFSET ??_C@_0BD@OCEADDEC@SuccessfulBlocking?$AA@
  01256	68 00 00 00 00	 push	 OFFSET ??_C@_08HLBMEKKE@Summoner?$AA@
  0125b	89 86 64 02 00
	00		 mov	 DWORD PTR [esi+612], eax
  01261	ff d7		 call	 edi

; 510  : 	this->Character.DWSuccessfulBlocking = GetPrivateProfileInt("Dark_Wizard","SuccessfulBlocking",3,Character_DIR);

  01263	68 00 00 00 00	 push	 OFFSET ??_C@_0BN@KOHJPEHI@?4?4?2Data?2ZtData?2Character?4ini?$AA@
  01268	6a 03		 push	 3
  0126a	68 00 00 00 00	 push	 OFFSET ??_C@_0BD@OCEADDEC@SuccessfulBlocking?$AA@
  0126f	68 00 00 00 00	 push	 OFFSET ??_C@_0M@CJAMKEGP@Dark_Wizard?$AA@
  01274	89 86 68 02 00
	00		 mov	 DWORD PTR [esi+616], eax
  0127a	ff d7		 call	 edi
  0127c	89 86 6c 02 00
	00		 mov	 DWORD PTR [esi+620], eax

; 511  : 	this->Character.DKSuccessfulBlocking = GetPrivateProfileInt("Dark_Knight","SuccessfulBlocking",3,Character_DIR);

  01282	68 00 00 00 00	 push	 OFFSET ??_C@_0BN@KOHJPEHI@?4?4?2Data?2ZtData?2Character?4ini?$AA@
  01287	6a 03		 push	 3
  01289	68 00 00 00 00	 push	 OFFSET ??_C@_0BD@OCEADDEC@SuccessfulBlocking?$AA@
  0128e	68 00 00 00 00	 push	 OFFSET ??_C@_0M@MNCPOEBE@Dark_Knight?$AA@
  01293	ff d7		 call	 edi

; 512  : 	this->Character.MGSuccessfulBlocking = GetPrivateProfileInt("Magic_Gladiator","SuccessfulBlocking",3,Character_DIR);

  01295	68 00 00 00 00	 push	 OFFSET ??_C@_0BN@KOHJPEHI@?4?4?2Data?2ZtData?2Character?4ini?$AA@
  0129a	6a 03		 push	 3
  0129c	68 00 00 00 00	 push	 OFFSET ??_C@_0BD@OCEADDEC@SuccessfulBlocking?$AA@
  012a1	68 00 00 00 00	 push	 OFFSET ??_C@_0BA@IPLGPKDA@Magic_Gladiator?$AA@
  012a6	89 86 70 02 00
	00		 mov	 DWORD PTR [esi+624], eax
  012ac	ff d7		 call	 edi

; 513  : 	//---------------------------------
; 514  : 	this->Character.ELFDefense = GetPrivateProfileInt("Fairy_Elf","Defense",10,Character_DIR);

  012ae	68 00 00 00 00	 push	 OFFSET ??_C@_0BN@KOHJPEHI@?4?4?2Data?2ZtData?2Character?4ini?$AA@
  012b3	6a 0a		 push	 10			; 0000000aH
  012b5	68 00 00 00 00	 push	 OFFSET ??_C@_07PEDPFCGC@Defense?$AA@
  012ba	68 00 00 00 00	 push	 OFFSET ??_C@_09DIFEFNGC@Fairy_Elf?$AA@
  012bf	89 86 74 02 00
	00		 mov	 DWORD PTR [esi+628], eax
  012c5	ff d7		 call	 edi

; 515  : 	this->Character.DKDefense = GetPrivateProfileInt("Dark_Knight","Defense",3,Character_DIR);

  012c7	68 00 00 00 00	 push	 OFFSET ??_C@_0BN@KOHJPEHI@?4?4?2Data?2ZtData?2Character?4ini?$AA@
  012cc	6a 03		 push	 3
  012ce	68 00 00 00 00	 push	 OFFSET ??_C@_07PEDPFCGC@Defense?$AA@
  012d3	68 00 00 00 00	 push	 OFFSET ??_C@_0M@MNCPOEBE@Dark_Knight?$AA@
  012d8	89 86 78 02 00
	00		 mov	 DWORD PTR [esi+632], eax
  012de	ff d7		 call	 edi

; 516  : 	this->Character.DLDefense = GetPrivateProfileInt("Dark_Lord","Defense",7,Character_DIR);

  012e0	68 00 00 00 00	 push	 OFFSET ??_C@_0BN@KOHJPEHI@?4?4?2Data?2ZtData?2Character?4ini?$AA@
  012e5	6a 07		 push	 7
  012e7	68 00 00 00 00	 push	 OFFSET ??_C@_07PEDPFCGC@Defense?$AA@
  012ec	68 00 00 00 00	 push	 OFFSET ??_C@_09PCICNBOE@Dark_Lord?$AA@
  012f1	89 86 7c 02 00
	00		 mov	 DWORD PTR [esi+636], eax
  012f7	ff d7		 call	 edi

; 517  : 	this->Character.SUMDefense = GetPrivateProfileInt("Summoner","Defense",3,Character_DIR);

  012f9	68 00 00 00 00	 push	 OFFSET ??_C@_0BN@KOHJPEHI@?4?4?2Data?2ZtData?2Character?4ini?$AA@
  012fe	6a 03		 push	 3
  01300	68 00 00 00 00	 push	 OFFSET ??_C@_07PEDPFCGC@Defense?$AA@
  01305	68 00 00 00 00	 push	 OFFSET ??_C@_08HLBMEKKE@Summoner?$AA@
  0130a	89 86 80 02 00
	00		 mov	 DWORD PTR [esi+640], eax
  01310	ff d7		 call	 edi

; 518  : 	this->Character.MGDefense = GetPrivateProfileInt("Magic_Gladiator","Defense",4,Character_DIR);

  01312	68 00 00 00 00	 push	 OFFSET ??_C@_0BN@KOHJPEHI@?4?4?2Data?2ZtData?2Character?4ini?$AA@
  01317	6a 04		 push	 4
  01319	68 00 00 00 00	 push	 OFFSET ??_C@_07PEDPFCGC@Defense?$AA@
  0131e	68 00 00 00 00	 push	 OFFSET ??_C@_0BA@IPLGPKDA@Magic_Gladiator?$AA@
  01323	89 86 84 02 00
	00		 mov	 DWORD PTR [esi+644], eax
  01329	ff d7		 call	 edi

; 519  : 	this->Character.DWDefense = GetPrivateProfileInt("Dark_Wizard","Defense",4,Character_DIR);

  0132b	68 00 00 00 00	 push	 OFFSET ??_C@_0BN@KOHJPEHI@?4?4?2Data?2ZtData?2Character?4ini?$AA@
  01330	6a 04		 push	 4
  01332	68 00 00 00 00	 push	 OFFSET ??_C@_07PEDPFCGC@Defense?$AA@
  01337	68 00 00 00 00	 push	 OFFSET ??_C@_0M@CJAMKEGP@Dark_Wizard?$AA@
  0133c	89 86 88 02 00
	00		 mov	 DWORD PTR [esi+648], eax
  01342	ff d7		 call	 edi

; 520  : 
; 521  : 	this->Character.RFDamageMin_VitRight = GetPrivateProfileInt("RageFighter","DamageMin_VitRight",15,Character_DIR);

  01344	68 00 00 00 00	 push	 OFFSET ??_C@_0BN@KOHJPEHI@?4?4?2Data?2ZtData?2Character?4ini?$AA@
  01349	6a 0f		 push	 15			; 0000000fH
  0134b	68 00 00 00 00	 push	 OFFSET ??_C@_0BD@DBDAPKP@DamageMin_VitRight?$AA@
  01350	68 00 00 00 00	 push	 OFFSET ??_C@_0M@BKNIILFP@RageFighter?$AA@
  01355	89 86 8c 02 00
	00		 mov	 DWORD PTR [esi+652], eax
  0135b	ff d7		 call	 edi

; 522  : 	this->Character.RFDamageMin_StrRight = GetPrivateProfileInt("RageFighter","DamageMin_StrRight",7,Character_DIR);

  0135d	68 00 00 00 00	 push	 OFFSET ??_C@_0BN@KOHJPEHI@?4?4?2Data?2ZtData?2Character?4ini?$AA@
  01362	6a 07		 push	 7
  01364	68 00 00 00 00	 push	 OFFSET ??_C@_0BD@MNOKFLCA@DamageMin_StrRight?$AA@
  01369	68 00 00 00 00	 push	 OFFSET ??_C@_0M@BKNIILFP@RageFighter?$AA@
  0136e	89 86 90 02 00
	00		 mov	 DWORD PTR [esi+656], eax
  01374	ff d7		 call	 edi

; 523  : 	this->Character.RFDamageMax_VitRight = GetPrivateProfileInt("RageFighter","DamageMax_VitRight",12,Character_DIR);

  01376	68 00 00 00 00	 push	 OFFSET ??_C@_0BN@KOHJPEHI@?4?4?2Data?2ZtData?2Character?4ini?$AA@
  0137b	6a 0c		 push	 12			; 0000000cH
  0137d	68 00 00 00 00	 push	 OFFSET ??_C@_0BD@EDFMHHNJ@DamageMax_VitRight?$AA@
  01382	68 00 00 00 00	 push	 OFFSET ??_C@_0M@BKNIILFP@RageFighter?$AA@
  01387	89 86 94 02 00
	00		 mov	 DWORD PTR [esi+660], eax
  0138d	ff d7		 call	 edi

; 524  : 	this->Character.RFDamageMax_StrRight = GetPrivateProfileInt("RageFighter","DamageMax_StrRight",5,Character_DIR);

  0138f	68 00 00 00 00	 push	 OFFSET ??_C@_0BN@KOHJPEHI@?4?4?2Data?2ZtData?2Character?4ini?$AA@
  01394	6a 05		 push	 5
  01396	68 00 00 00 00	 push	 OFFSET ??_C@_0BD@INKFCDFG@DamageMax_StrRight?$AA@
  0139b	68 00 00 00 00	 push	 OFFSET ??_C@_0M@BKNIILFP@RageFighter?$AA@
  013a0	89 86 98 02 00
	00		 mov	 DWORD PTR [esi+664], eax
  013a6	ff d7		 call	 edi

; 525  : 
; 526  : 	this->Character.RFDamageMin_VitLeft = GetPrivateProfileInt("RageFighter","DamageMin_VitLeft",15,Character_DIR);

  013a8	68 00 00 00 00	 push	 OFFSET ??_C@_0BN@KOHJPEHI@?4?4?2Data?2ZtData?2Character?4ini?$AA@
  013ad	6a 0f		 push	 15			; 0000000fH
  013af	68 00 00 00 00	 push	 OFFSET ??_C@_0BC@IADGLHJG@DamageMin_VitLeft?$AA@
  013b4	68 00 00 00 00	 push	 OFFSET ??_C@_0M@BKNIILFP@RageFighter?$AA@
  013b9	89 86 9c 02 00
	00		 mov	 DWORD PTR [esi+668], eax
  013bf	ff d7		 call	 edi

; 527  : 	this->Character.RFDamageMin_StrLeft = GetPrivateProfileInt("RageFighter","DamageMin_StrLeft",7,Character_DIR);

  013c1	68 00 00 00 00	 push	 OFFSET ??_C@_0BN@KOHJPEHI@?4?4?2Data?2ZtData?2Character?4ini?$AA@
  013c6	6a 07		 push	 7
  013c8	89 86 a0 02 00
	00		 mov	 DWORD PTR [esi+672], eax
  013ce	68 00 00 00 00	 push	 OFFSET ??_C@_0BC@BIIGKHOB@DamageMin_StrLeft?$AA@
  013d3	68 00 00 00 00	 push	 OFFSET ??_C@_0M@BKNIILFP@RageFighter?$AA@
  013d8	ff d7		 call	 edi

; 528  : 	this->Character.RFDamageMax_VitLeft = GetPrivateProfileInt("RageFighter","DamageMax_VitLeft",12,Character_DIR);

  013da	68 00 00 00 00	 push	 OFFSET ??_C@_0BN@KOHJPEHI@?4?4?2Data?2ZtData?2Character?4ini?$AA@
  013df	6a 0c		 push	 12			; 0000000cH
  013e1	68 00 00 00 00	 push	 OFFSET ??_C@_0BC@BAEFKHHM@DamageMax_VitLeft?$AA@
  013e6	68 00 00 00 00	 push	 OFFSET ??_C@_0M@BKNIILFP@RageFighter?$AA@
  013eb	89 86 a4 02 00
	00		 mov	 DWORD PTR [esi+676], eax
  013f1	ff d7		 call	 edi

; 529  : 	this->Character.RFDamageMax_StrLeft = GetPrivateProfileInt("RageFighter","DamageMax_StrLeft",5,Character_DIR);

  013f3	68 00 00 00 00	 push	 OFFSET ??_C@_0BN@KOHJPEHI@?4?4?2Data?2ZtData?2Character?4ini?$AA@
  013f8	6a 05		 push	 5
  013fa	68 00 00 00 00	 push	 OFFSET ??_C@_0BC@IIPFLHAL@DamageMax_StrLeft?$AA@
  013ff	68 00 00 00 00	 push	 OFFSET ??_C@_0M@BKNIILFP@RageFighter?$AA@
  01404	89 86 a8 02 00
	00		 mov	 DWORD PTR [esi+680], eax
  0140a	ff d7		 call	 edi

; 530  : 
; 531  : 	this->Character.RFSuccessfulBlocking = GetPrivateProfileInt("RageFighter","SuccessfulBlocking",10,Character_DIR);

  0140c	68 00 00 00 00	 push	 OFFSET ??_C@_0BN@KOHJPEHI@?4?4?2Data?2ZtData?2Character?4ini?$AA@
  01411	6a 0a		 push	 10			; 0000000aH
  01413	68 00 00 00 00	 push	 OFFSET ??_C@_0BD@OCEADDEC@SuccessfulBlocking?$AA@
  01418	68 00 00 00 00	 push	 OFFSET ??_C@_0M@BKNIILFP@RageFighter?$AA@
  0141d	89 86 ac 02 00
	00		 mov	 DWORD PTR [esi+684], eax
  01423	ff d7		 call	 edi

; 532  : 
; 533  : 	this->Character.RFDefense = GetPrivateProfileInt("RageFighter","Defense",8,Character_DIR);

  01425	68 00 00 00 00	 push	 OFFSET ??_C@_0BN@KOHJPEHI@?4?4?2Data?2ZtData?2Character?4ini?$AA@
  0142a	6a 08		 push	 8
  0142c	68 00 00 00 00	 push	 OFFSET ??_C@_07PEDPFCGC@Defense?$AA@
  01431	68 00 00 00 00	 push	 OFFSET ??_C@_0M@BKNIILFP@RageFighter?$AA@
  01436	89 86 b0 02 00
	00		 mov	 DWORD PTR [esi+688], eax
  0143c	ff d7		 call	 edi

; 534  : 
; 535  : 	this->Character.DKSkillDMGPercentMax = GetPrivateProfileInt("Dark_Knight","DKSkillDMGPercentMax",0,Character_DIR);

  0143e	68 00 00 00 00	 push	 OFFSET ??_C@_0BN@KOHJPEHI@?4?4?2Data?2ZtData?2Character?4ini?$AA@
  01443	6a 00		 push	 0
  01445	68 00 00 00 00	 push	 OFFSET ??_C@_0BF@DKDDNDEL@DKSkillDMGPercentMax?$AA@
  0144a	68 00 00 00 00	 push	 OFFSET ??_C@_0M@MNCPOEBE@Dark_Knight?$AA@
  0144f	89 86 b4 02 00
	00		 mov	 DWORD PTR [esi+692], eax
  01455	ff d7		 call	 edi

; 536  : 	this->Character.DLSkillDMGPercentMax = GetPrivateProfileInt("Dark_Lord","DLSkillDMGPercentMax",0,Character_DIR);

  01457	68 00 00 00 00	 push	 OFFSET ??_C@_0BN@KOHJPEHI@?4?4?2Data?2ZtData?2Character?4ini?$AA@
  0145c	6a 00		 push	 0
  0145e	68 00 00 00 00	 push	 OFFSET ??_C@_0BF@NLHHHFNI@DLSkillDMGPercentMax?$AA@
  01463	68 00 00 00 00	 push	 OFFSET ??_C@_09PCICNBOE@Dark_Lord?$AA@
  01468	89 86 b8 02 00
	00		 mov	 DWORD PTR [esi+696], eax
  0146e	ff d7		 call	 edi

; 537  : 
; 538  : #ifdef FIX_BERSERK_SUM
; 539  : 	this->Character.BerserkAddMana = GetPrivateProfileInt("Summoner","BerserkAddMana",0,Character_DIR);

  01470	68 00 00 00 00	 push	 OFFSET ??_C@_0BN@KOHJPEHI@?4?4?2Data?2ZtData?2Character?4ini?$AA@
  01475	6a 00		 push	 0
  01477	68 00 00 00 00	 push	 OFFSET ??_C@_0P@NCKHGKEG@BerserkAddMana?$AA@
  0147c	68 00 00 00 00	 push	 OFFSET ??_C@_08HLBMEKKE@Summoner?$AA@
  01481	89 86 bc 02 00
	00		 mov	 DWORD PTR [esi+700], eax
  01487	ff d7		 call	 edi

; 540  : #endif
; 541  : 
; 542  : #if(CUSTOM_CW_ALTERELFDMG)
; 543  : 	this->Character.CWElfAlterDMGPercent = GetPrivateProfileInt("Common","CWElfAlterDMGPercent",100,Character_DIR);

  01489	68 00 00 00 00	 push	 OFFSET ??_C@_0BN@KOHJPEHI@?4?4?2Data?2ZtData?2Character?4ini?$AA@
  0148e	6a 64		 push	 100			; 00000064H
  01490	68 00 00 00 00	 push	 OFFSET ??_C@_0BF@FALIENJF@CWElfAlterDMGPercent?$AA@
  01495	68 00 00 00 00	 push	 OFFSET ??_C@_06POMJKEPM@Common?$AA@
  0149a	89 86 c0 02 00
	00		 mov	 DWORD PTR [esi+704], eax
  014a0	ff d7		 call	 edi

; 544  : #endif
; 545  : 
; 546  : 	this->Character.DKPvPAttackRateFact1 = GetPrivateProfileInt("Dark_Knight","DKPvPAttackRateFact1",3,Character_DIR);

  014a2	68 00 00 00 00	 push	 OFFSET ??_C@_0BN@KOHJPEHI@?4?4?2Data?2ZtData?2Character?4ini?$AA@
  014a7	6a 03		 push	 3
  014a9	68 00 00 00 00	 push	 OFFSET ??_C@_0BF@EKIBBEHG@DKPvPAttackRateFact1?$AA@
  014ae	68 00 00 00 00	 push	 OFFSET ??_C@_0M@MNCPOEBE@Dark_Knight?$AA@
  014b3	89 86 8c 01 00
	00		 mov	 DWORD PTR [esi+396], eax
  014b9	ff d7		 call	 edi

; 547  : 	this->Character.DKPvPAttackRateFact2 = GetPrivateProfileInt("Dark_Knight","DKPvPAttackRateFact2",45,Character_DIR);

  014bb	68 00 00 00 00	 push	 OFFSET ??_C@_0BN@KOHJPEHI@?4?4?2Data?2ZtData?2Character?4ini?$AA@
  014c0	6a 2d		 push	 45			; 0000002dH
  014c2	68 00 00 00 00	 push	 OFFSET ??_C@_0BF@GBKMEHLF@DKPvPAttackRateFact2?$AA@
  014c7	68 00 00 00 00	 push	 OFFSET ??_C@_0M@MNCPOEBE@Dark_Knight?$AA@
  014cc	89 86 c4 02 00
	00		 mov	 DWORD PTR [esi+708], eax
  014d2	ff d7		 call	 edi

; 548  : 	this->Character.DKPvPAttackRateDiv = GetPrivateProfileInt("Dark_Knight","DKPvPAttackRateDiv",10,Character_DIR);

  014d4	68 00 00 00 00	 push	 OFFSET ??_C@_0BN@KOHJPEHI@?4?4?2Data?2ZtData?2Character?4ini?$AA@
  014d9	6a 0a		 push	 10			; 0000000aH
  014db	68 00 00 00 00	 push	 OFFSET ??_C@_0BD@KLAJKAEL@DKPvPAttackRateDiv?$AA@
  014e0	68 00 00 00 00	 push	 OFFSET ??_C@_0M@MNCPOEBE@Dark_Knight?$AA@
  014e5	89 86 c8 02 00
	00		 mov	 DWORD PTR [esi+712], eax
  014eb	ff d7		 call	 edi

; 549  : 
; 550  : 	this->Character.DWPvPAttackRateFact1 = GetPrivateProfileInt("Dark_Wizard","DWPvPAttackRateFact1",3,Character_DIR);

  014ed	68 00 00 00 00	 push	 OFFSET ??_C@_0BN@KOHJPEHI@?4?4?2Data?2ZtData?2Character?4ini?$AA@
  014f2	6a 03		 push	 3
  014f4	68 00 00 00 00	 push	 OFFSET ??_C@_0BF@HJHBICLI@DWPvPAttackRateFact1?$AA@
  014f9	68 00 00 00 00	 push	 OFFSET ??_C@_0M@CJAMKEGP@Dark_Wizard?$AA@
  014fe	89 86 cc 02 00
	00		 mov	 DWORD PTR [esi+716], eax
  01504	ff d7		 call	 edi

; 551  : 	this->Character.DWPvPAttackRateFact2 = GetPrivateProfileInt("Dark_Wizard","DWPvPAttackRateFact2",4,Character_DIR);

  01506	68 00 00 00 00	 push	 OFFSET ??_C@_0BN@KOHJPEHI@?4?4?2Data?2ZtData?2Character?4ini?$AA@
  0150b	6a 04		 push	 4
  0150d	68 00 00 00 00	 push	 OFFSET ??_C@_0BF@FCFMNBHL@DWPvPAttackRateFact2?$AA@
  01512	68 00 00 00 00	 push	 OFFSET ??_C@_0M@CJAMKEGP@Dark_Wizard?$AA@
  01517	89 86 d0 02 00
	00		 mov	 DWORD PTR [esi+720], eax
  0151d	ff d7		 call	 edi
  0151f	89 86 d4 02 00
	00		 mov	 DWORD PTR [esi+724], eax

; 552  : 
; 553  : 	this->Character.EEPvPAttackRateFact1 = GetPrivateProfileInt("Fairy_Elf","EEPvPAttackRateFact1",3,Character_DIR);

  01525	68 00 00 00 00	 push	 OFFSET ??_C@_0BN@KOHJPEHI@?4?4?2Data?2ZtData?2Character?4ini?$AA@
  0152a	6a 03		 push	 3
  0152c	68 00 00 00 00	 push	 OFFSET ??_C@_0BF@MMKDNMIP@EEPvPAttackRateFact1?$AA@
  01531	68 00 00 00 00	 push	 OFFSET ??_C@_09DIFEFNGC@Fairy_Elf?$AA@
  01536	ff d7		 call	 edi

; 554  : 	this->Character.EEPvPAttackRateFact2 = GetPrivateProfileInt("Fairy_Elf","EEPvPAttackRateFact2",6,Character_DIR);

  01538	68 00 00 00 00	 push	 OFFSET ??_C@_0BN@KOHJPEHI@?4?4?2Data?2ZtData?2Character?4ini?$AA@
  0153d	6a 06		 push	 6
  0153f	68 00 00 00 00	 push	 OFFSET ??_C@_0BF@OHIOIPEM@EEPvPAttackRateFact2?$AA@
  01544	68 00 00 00 00	 push	 OFFSET ??_C@_09DIFEFNGC@Fairy_Elf?$AA@
  01549	89 86 d8 02 00
	00		 mov	 DWORD PTR [esi+728], eax
  0154f	ff d7		 call	 edi

; 555  : 	this->Character.EEPvPAttackRateDiv = GetPrivateProfileInt("Fairy_Elf","EEPvPAttackRateDiv",10,Character_DIR);

  01551	68 00 00 00 00	 push	 OFFSET ??_C@_0BN@KOHJPEHI@?4?4?2Data?2ZtData?2Character?4ini?$AA@
  01556	6a 0a		 push	 10			; 0000000aH
  01558	68 00 00 00 00	 push	 OFFSET ??_C@_0BD@GFMGDCJK@EEPvPAttackRateDiv?$AA@
  0155d	68 00 00 00 00	 push	 OFFSET ??_C@_09DIFEFNGC@Fairy_Elf?$AA@
  01562	89 86 dc 02 00
	00		 mov	 DWORD PTR [esi+732], eax
  01568	ff d7		 call	 edi

; 556  : 
; 557  : 	this->Character.MGPvPAttackRateFact1 = GetPrivateProfileInt("Magic_Gladiator","MGPvPAttackRateFact1",3,Character_DIR);

  0156a	68 00 00 00 00	 push	 OFFSET ??_C@_0BN@KOHJPEHI@?4?4?2Data?2ZtData?2Character?4ini?$AA@
  0156f	6a 03		 push	 3
  01571	68 00 00 00 00	 push	 OFFSET ??_C@_0BF@CDJPKDHF@MGPvPAttackRateFact1?$AA@
  01576	68 00 00 00 00	 push	 OFFSET ??_C@_0BA@IPLGPKDA@Magic_Gladiator?$AA@
  0157b	89 86 e0 02 00
	00		 mov	 DWORD PTR [esi+736], eax
  01581	ff d7		 call	 edi

; 558  : 	this->Character.MGPvPAttackRateFact2 = GetPrivateProfileInt("Magic_Gladiator","MGPvPAttackRateFact2",35,Character_DIR);

  01583	68 00 00 00 00	 push	 OFFSET ??_C@_0BN@KOHJPEHI@?4?4?2Data?2ZtData?2Character?4ini?$AA@
  01588	6a 23		 push	 35			; 00000023H
  0158a	68 00 00 00 00	 push	 OFFSET ??_C@_0BF@ILCPALG@MGPvPAttackRateFact2?$AA@
  0158f	68 00 00 00 00	 push	 OFFSET ??_C@_0BA@IPLGPKDA@Magic_Gladiator?$AA@
  01594	89 86 e4 02 00
	00		 mov	 DWORD PTR [esi+740], eax
  0159a	ff d7		 call	 edi

; 559  : 	this->Character.MGPvPAttackRateDiv = GetPrivateProfileInt("Magic_Gladiator","MGPvPAttackRateDiv",10,Character_DIR);

  0159c	68 00 00 00 00	 push	 OFFSET ??_C@_0BN@KOHJPEHI@?4?4?2Data?2ZtData?2Character?4ini?$AA@
  015a1	6a 0a		 push	 10			; 0000000aH
  015a3	68 00 00 00 00	 push	 OFFSET ??_C@_0BD@GJLDEEJM@MGPvPAttackRateDiv?$AA@
  015a8	68 00 00 00 00	 push	 OFFSET ??_C@_0BA@IPLGPKDA@Magic_Gladiator?$AA@
  015ad	89 86 e8 02 00
	00		 mov	 DWORD PTR [esi+744], eax
  015b3	ff d7		 call	 edi

; 560  : 
; 561  : 	this->Character.DLPvPAttackRateFact1 = GetPrivateProfileInt("Dark_Lord","DLPvPAttackRateFact1",3,Character_DIR);

  015b5	68 00 00 00 00	 push	 OFFSET ??_C@_0BN@KOHJPEHI@?4?4?2Data?2ZtData?2Character?4ini?$AA@
  015ba	6a 03		 push	 3
  015bc	68 00 00 00 00	 push	 OFFSET ??_C@_0BF@KLMFLCOF@DLPvPAttackRateFact1?$AA@
  015c1	68 00 00 00 00	 push	 OFFSET ??_C@_09PCICNBOE@Dark_Lord?$AA@
  015c6	89 86 ec 02 00
	00		 mov	 DWORD PTR [esi+748], eax
  015cc	ff d7		 call	 edi

; 562  : 	this->Character.DLPvPAttackRateFact2 = GetPrivateProfileInt("Dark_Lord","DLPvPAttackRateFact2",4,Character_DIR);

  015ce	68 00 00 00 00	 push	 OFFSET ??_C@_0BN@KOHJPEHI@?4?4?2Data?2ZtData?2Character?4ini?$AA@
  015d3	6a 04		 push	 4
  015d5	68 00 00 00 00	 push	 OFFSET ??_C@_0BF@IAOIOBCG@DLPvPAttackRateFact2?$AA@
  015da	68 00 00 00 00	 push	 OFFSET ??_C@_09PCICNBOE@Dark_Lord?$AA@
  015df	89 86 f0 02 00
	00		 mov	 DWORD PTR [esi+752], eax
  015e5	ff d7		 call	 edi

; 563  : 
; 564  : 	this->Character.SUPvPAttackRateFact1 = GetPrivateProfileInt("Summoner","SUPvPAttackRateFact1",3,Character_DIR);

  015e7	68 00 00 00 00	 push	 OFFSET ??_C@_0BN@KOHJPEHI@?4?4?2Data?2ZtData?2Character?4ini?$AA@
  015ec	6a 03		 push	 3
  015ee	68 00 00 00 00	 push	 OFFSET ??_C@_0BF@JBLMGAIA@SUPvPAttackRateFact1?$AA@
  015f3	68 00 00 00 00	 push	 OFFSET ??_C@_08HLBMEKKE@Summoner?$AA@
  015f8	89 86 f4 02 00
	00		 mov	 DWORD PTR [esi+756], eax
  015fe	ff d7		 call	 edi

; 565  : 	this->Character.SUPvPAttackRateFact2 = GetPrivateProfileInt("Summoner","SUPvPAttackRateFact2",35,Character_DIR);

  01600	68 00 00 00 00	 push	 OFFSET ??_C@_0BN@KOHJPEHI@?4?4?2Data?2ZtData?2Character?4ini?$AA@
  01605	6a 23		 push	 35			; 00000023H
  01607	68 00 00 00 00	 push	 OFFSET ??_C@_0BF@LKJBDDED@SUPvPAttackRateFact2?$AA@
  0160c	68 00 00 00 00	 push	 OFFSET ??_C@_08HLBMEKKE@Summoner?$AA@
  01611	89 86 f8 02 00
	00		 mov	 DWORD PTR [esi+760], eax
  01617	ff d7		 call	 edi

; 566  : 	this->Character.SUPvPAttackRateDiv = GetPrivateProfileInt("Summoner","SUPvPAttackRateDiv",10,Character_DIR);

  01619	68 00 00 00 00	 push	 OFFSET ??_C@_0BN@KOHJPEHI@?4?4?2Data?2ZtData?2Character?4ini?$AA@
  0161e	6a 0a		 push	 10			; 0000000aH
  01620	68 00 00 00 00	 push	 OFFSET ??_C@_0BD@MFPLFOJL@SUPvPAttackRateDiv?$AA@
  01625	68 00 00 00 00	 push	 OFFSET ??_C@_08HLBMEKKE@Summoner?$AA@
  0162a	89 86 fc 02 00
	00		 mov	 DWORD PTR [esi+764], eax
  01630	ff d7		 call	 edi

; 567  : 
; 568  : 	this->Character.RFPvPAttackRateFact1 = GetPrivateProfileInt("RageFighter","RFPvPAttackRateFact1",3,Character_DIR);

  01632	68 00 00 00 00	 push	 OFFSET ??_C@_0BN@KOHJPEHI@?4?4?2Data?2ZtData?2Character?4ini?$AA@
  01637	6a 03		 push	 3
  01639	68 00 00 00 00	 push	 OFFSET ??_C@_0BF@EBAJAFPB@RFPvPAttackRateFact1?$AA@
  0163e	68 00 00 00 00	 push	 OFFSET ??_C@_0M@BKNIILFP@RageFighter?$AA@
  01643	89 86 00 03 00
	00		 mov	 DWORD PTR [esi+768], eax
  01649	ff d7		 call	 edi

; 569  : 	this->Character.RFPvPAttackRateFact2 = GetPrivateProfileInt("RageFighter","RFPvPAttackRateFact2",36,Character_DIR);

  0164b	68 00 00 00 00	 push	 OFFSET ??_C@_0BN@KOHJPEHI@?4?4?2Data?2ZtData?2Character?4ini?$AA@
  01650	6a 24		 push	 36			; 00000024H
  01652	68 00 00 00 00	 push	 OFFSET ??_C@_0BF@GKCEFGDC@RFPvPAttackRateFact2?$AA@
  01657	68 00 00 00 00	 push	 OFFSET ??_C@_0M@BKNIILFP@RageFighter?$AA@
  0165c	89 86 04 03 00
	00		 mov	 DWORD PTR [esi+772], eax
  01662	ff d7		 call	 edi

; 570  : 	this->Character.RFPvPAttackRateDiv = GetPrivateProfileInt("RageFighter","RFPvPAttackRateDiv",10,Character_DIR);

  01664	68 00 00 00 00	 push	 OFFSET ??_C@_0BN@KOHJPEHI@?4?4?2Data?2ZtData?2Character?4ini?$AA@
  01669	6a 0a		 push	 10			; 0000000aH
  0166b	89 86 08 03 00
	00		 mov	 DWORD PTR [esi+776], eax
  01671	68 00 00 00 00	 push	 OFFSET ??_C@_0BD@NGDMFPLJ@RFPvPAttackRateDiv?$AA@
  01676	68 00 00 00 00	 push	 OFFSET ??_C@_0M@BKNIILFP@RageFighter?$AA@
  0167b	ff d7		 call	 edi

; 571  : 
; 572  : 
; 573  : 	this->Character.AEAttackDamageStrengthMin = GetPrivateProfileInt("Fairy_Elf","AEAttackDamageStrengthMin",7,Character_DIR);

  0167d	68 00 00 00 00	 push	 OFFSET ??_C@_0BN@KOHJPEHI@?4?4?2Data?2ZtData?2Character?4ini?$AA@
  01682	6a 07		 push	 7
  01684	68 00 00 00 00	 push	 OFFSET ??_C@_0BK@MPCAMIOD@AEAttackDamageStrengthMin?$AA@
  01689	68 00 00 00 00	 push	 OFFSET ??_C@_09DIFEFNGC@Fairy_Elf?$AA@
  0168e	89 86 0c 03 00
	00		 mov	 DWORD PTR [esi+780], eax
  01694	ff d7		 call	 edi

; 574  : 	this->Character.AEAttackDamageStrengthMax = GetPrivateProfileInt("Fairy_Elf","AEAttackDamageStrengthMax",4,Character_DIR);

  01696	68 00 00 00 00	 push	 OFFSET ??_C@_0BN@KOHJPEHI@?4?4?2Data?2ZtData?2Character?4ini?$AA@
  0169b	6a 04		 push	 4
  0169d	68 00 00 00 00	 push	 OFFSET ??_C@_0BK@NNKLCMIM@AEAttackDamageStrengthMax?$AA@
  016a2	68 00 00 00 00	 push	 OFFSET ??_C@_09DIFEFNGC@Fairy_Elf?$AA@
  016a7	89 86 10 03 00
	00		 mov	 DWORD PTR [esi+784], eax
  016ad	ff d7		 call	 edi

; 575  : 	this->Character.AEAttackDamageDexterityMin = GetPrivateProfileInt("Fairy_Elf","AEAttackDamageDexterityMin",7,Character_DIR);

  016af	68 00 00 00 00	 push	 OFFSET ??_C@_0BN@KOHJPEHI@?4?4?2Data?2ZtData?2Character?4ini?$AA@
  016b4	6a 07		 push	 7
  016b6	68 00 00 00 00	 push	 OFFSET ??_C@_0BL@MBFMILG@AEAttackDamageDexterityMin?$AA@
  016bb	68 00 00 00 00	 push	 OFFSET ??_C@_09DIFEFNGC@Fairy_Elf?$AA@
  016c0	89 86 14 03 00
	00		 mov	 DWORD PTR [esi+788], eax
  016c6	ff d7		 call	 edi

; 576  : 	this->Character.AEAttackDamageDexterityMax = GetPrivateProfileInt("Fairy_Elf","AEAttackDamageDexterityMax",4,Character_DIR);

  016c8	68 00 00 00 00	 push	 OFFSET ??_C@_0BN@KOHJPEHI@?4?4?2Data?2ZtData?2Character?4ini?$AA@
  016cd	6a 04		 push	 4
  016cf	68 00 00 00 00	 push	 OFFSET ??_C@_0BL@BOJOCMNJ@AEAttackDamageDexterityMax?$AA@
  016d4	68 00 00 00 00	 push	 OFFSET ??_C@_09DIFEFNGC@Fairy_Elf?$AA@
  016d9	89 86 18 03 00
	00		 mov	 DWORD PTR [esi+792], eax
  016df	ff d7		 call	 edi

; 577  : 	this->Character.AEAttackDamageVitalityMin = GetPrivateProfileInt("Fairy_Elf","AEAttackDamageVitalityMin",7,Character_DIR);

  016e1	68 00 00 00 00	 push	 OFFSET ??_C@_0BN@KOHJPEHI@?4?4?2Data?2ZtData?2Character?4ini?$AA@
  016e6	6a 07		 push	 7
  016e8	68 00 00 00 00	 push	 OFFSET ??_C@_0BK@CNIJNFGG@AEAttackDamageVitalityMin?$AA@
  016ed	68 00 00 00 00	 push	 OFFSET ??_C@_09DIFEFNGC@Fairy_Elf?$AA@
  016f2	89 86 1c 03 00
	00		 mov	 DWORD PTR [esi+796], eax
  016f8	ff d7		 call	 edi

; 578  : 	this->Character.AEAttackDamageVitalityMax = GetPrivateProfileInt("Fairy_Elf","AEAttackDamageVitalityMax",4,Character_DIR);

  016fa	68 00 00 00 00	 push	 OFFSET ??_C@_0BN@KOHJPEHI@?4?4?2Data?2ZtData?2Character?4ini?$AA@
  016ff	6a 04		 push	 4
  01701	68 00 00 00 00	 push	 OFFSET ??_C@_0BK@DPACDBAJ@AEAttackDamageVitalityMax?$AA@
  01706	68 00 00 00 00	 push	 OFFSET ??_C@_09DIFEFNGC@Fairy_Elf?$AA@
  0170b	89 86 20 03 00
	00		 mov	 DWORD PTR [esi+800], eax
  01711	ff d7		 call	 edi

; 579  : 	this->Character.AEAttackDamageEnergyMin = GetPrivateProfileInt("Fairy_Elf","AEAttackDamageEnergyMin",7,Character_DIR);

  01713	68 00 00 00 00	 push	 OFFSET ??_C@_0BN@KOHJPEHI@?4?4?2Data?2ZtData?2Character?4ini?$AA@
  01718	6a 07		 push	 7
  0171a	68 00 00 00 00	 push	 OFFSET ??_C@_0BI@NLGJCIHH@AEAttackDamageEnergyMin?$AA@
  0171f	68 00 00 00 00	 push	 OFFSET ??_C@_09DIFEFNGC@Fairy_Elf?$AA@
  01724	89 86 24 03 00
	00		 mov	 DWORD PTR [esi+804], eax
  0172a	ff d7		 call	 edi

; 580  : 	this->Character.AEAttackDamageEnergyMax = GetPrivateProfileInt("Fairy_Elf","AEAttackDamageEnergyMax",4,Character_DIR);

  0172c	68 00 00 00 00	 push	 OFFSET ??_C@_0BN@KOHJPEHI@?4?4?2Data?2ZtData?2Character?4ini?$AA@
  01731	6a 04		 push	 4
  01733	68 00 00 00 00	 push	 OFFSET ??_C@_0BI@MJOCMMBI@AEAttackDamageEnergyMax?$AA@
  01738	68 00 00 00 00	 push	 OFFSET ??_C@_09DIFEFNGC@Fairy_Elf?$AA@
  0173d	89 86 28 03 00
	00		 mov	 DWORD PTR [esi+808], eax
  01743	ff d7		 call	 edi

; 581  : 
; 582  : 
; 583  : 	//---------------------------------
; 584  : 	//			Commands
; 585  : 	//---------------------------------
; 586  : 	 GetPrivateProfileString("Post", "PostName","/post",Command.CommandPost,100,Commands_DIR);

  01745	68 00 00 00 00	 push	 OFFSET ??_C@_0BM@KMKNOAKM@?4?4?2Data?2ZtData?2Commands?4ini?$AA@
  0174a	6a 64		 push	 100			; 00000064H
  0174c	8d 8e 30 03 00
	00		 lea	 ecx, DWORD PTR [esi+816]
  01752	51		 push	 ecx
  01753	68 00 00 00 00	 push	 OFFSET ??_C@_05DPLEIENO@?1post?$AA@
  01758	68 00 00 00 00	 push	 OFFSET ??_C@_08BDIACMIO@PostName?$AA@
  0175d	68 00 00 00 00	 push	 OFFSET ??_C@_04HPGPEKIH@Post?$AA@
  01762	89 86 2c 03 00
	00		 mov	 DWORD PTR [esi+812], eax
  01768	ff d3		 call	 ebx

; 587  : 	 	 
; 588  : 	 GetPrivateProfileString("AddCommand", "StrName","/str",Command.CommandAddStr,100,Commands_DIR);

  0176a	68 00 00 00 00	 push	 OFFSET ??_C@_0BM@KMKNOAKM@?4?4?2Data?2ZtData?2Commands?4ini?$AA@
  0176f	6a 64		 push	 100			; 00000064H
  01771	8d 96 94 03 00
	00		 lea	 edx, DWORD PTR [esi+916]
  01777	52		 push	 edx
  01778	68 00 00 00 00	 push	 OFFSET ??_C@_04ENDHGELN@?1str?$AA@
  0177d	68 00 00 00 00	 push	 OFFSET ??_C@_07CDGFDNJO@StrName?$AA@
  01782	68 00 00 00 00	 push	 OFFSET ??_C@_0L@JFFLHCAL@AddCommand?$AA@
  01787	ff d3		 call	 ebx

; 589  : 	 
; 590  : 	 GetPrivateProfileString("AddCommand", "AgiName","/agi",Command.CommandAddAgi,100,Commands_DIR);

  01789	68 00 00 00 00	 push	 OFFSET ??_C@_0BM@KMKNOAKM@?4?4?2Data?2ZtData?2Commands?4ini?$AA@
  0178e	6a 64		 push	 100			; 00000064H
  01790	8d 86 f8 03 00
	00		 lea	 eax, DWORD PTR [esi+1016]
  01796	50		 push	 eax
  01797	68 00 00 00 00	 push	 OFFSET ??_C@_04HBCNBK@?1agi?$AA@
  0179c	68 00 00 00 00	 push	 OFFSET ??_C@_07CCNMHPMD@AgiName?$AA@
  017a1	68 00 00 00 00	 push	 OFFSET ??_C@_0L@JFFLHCAL@AddCommand?$AA@
  017a6	ff d3		 call	 ebx

; 591  : 	 
; 592  : 	 GetPrivateProfileString("AddCommand", "VitName","/vit",Command.CommandAddVit,100,Commands_DIR);

  017a8	68 00 00 00 00	 push	 OFFSET ??_C@_0BM@KMKNOAKM@?4?4?2Data?2ZtData?2Commands?4ini?$AA@
  017ad	6a 64		 push	 100			; 00000064H
  017af	8d 8e 5c 04 00
	00		 lea	 ecx, DWORD PTR [esi+1116]
  017b5	51		 push	 ecx
  017b6	68 00 00 00 00	 push	 OFFSET ??_C@_04DIENADCK@?1vit?$AA@
  017bb	68 00 00 00 00	 push	 OFFSET ??_C@_07LLNFCNOJ@VitName?$AA@
  017c0	68 00 00 00 00	 push	 OFFSET ??_C@_0L@JFFLHCAL@AddCommand?$AA@
  017c5	ff d3		 call	 ebx

; 593  : 	 
; 594  : 	 GetPrivateProfileString("AddCommand", "EneName","/ene",Command.CommandAddEne,100,Commands_DIR);

  017c7	68 00 00 00 00	 push	 OFFSET ??_C@_0BM@KMKNOAKM@?4?4?2Data?2ZtData?2Commands?4ini?$AA@
  017cc	6a 64		 push	 100			; 00000064H
  017ce	8d 96 c0 04 00
	00		 lea	 edx, DWORD PTR [esi+1216]
  017d4	52		 push	 edx
  017d5	68 00 00 00 00	 push	 OFFSET ??_C@_04CMHHMOMO@?1ene?$AA@
  017da	68 00 00 00 00	 push	 OFFSET ??_C@_07EEMMPEJB@EneName?$AA@
  017df	68 00 00 00 00	 push	 OFFSET ??_C@_0L@JFFLHCAL@AddCommand?$AA@
  017e4	ff d3		 call	 ebx

; 595  : 	 
; 596  : 	 GetPrivateProfileString("AddCommand", "CmdName","/cmd",Command.CommandAddCmd,100,Commands_DIR);//snaker 5.11

  017e6	68 00 00 00 00	 push	 OFFSET ??_C@_0BM@KMKNOAKM@?4?4?2Data?2ZtData?2Commands?4ini?$AA@
  017eb	6a 64		 push	 100			; 00000064H
  017ed	8d 86 24 05 00
	00		 lea	 eax, DWORD PTR [esi+1316]
  017f3	50		 push	 eax
  017f4	68 00 00 00 00	 push	 OFFSET ??_C@_04BCEBBOAK@?1cmd?$AA@
  017f9	68 00 00 00 00	 push	 OFFSET ??_C@_07HIBHDECO@CmdName?$AA@
  017fe	68 00 00 00 00	 push	 OFFSET ??_C@_0L@JFFLHCAL@AddCommand?$AA@
  01803	ff d3		 call	 ebx

; 597  : 	 
; 598  : 	 GetPrivateProfileString("PkClear", "PkClearName","/pkclear",Command.CommandPkClear,100,Commands_DIR);

  01805	68 00 00 00 00	 push	 OFFSET ??_C@_0BM@KMKNOAKM@?4?4?2Data?2ZtData?2Commands?4ini?$AA@
  0180a	6a 64		 push	 100			; 00000064H
  0180c	8d 8e 88 05 00
	00		 lea	 ecx, DWORD PTR [esi+1416]
  01812	51		 push	 ecx
  01813	68 00 00 00 00	 push	 OFFSET ??_C@_08OLBJHFEG@?1pkclear?$AA@
  01818	68 00 00 00 00	 push	 OFFSET ??_C@_0M@MLICEIGI@PkClearName?$AA@
  0181d	68 00 00 00 00	 push	 OFFSET ??_C@_07MLKAJEJD@PkClear?$AA@
  01822	ff d3		 call	 ebx

; 599  : 
; 600  : 	 /*GetPrivateProfileString("Reset", "cmd","/reset",Command.CommandReset,100,Reset_DIR);*/
; 601  : 
; 602  : 	/* GetPrivateProfileString("GrandReset", "cmd","/grandreset",Command.CommandGrandReset,100,GrandReset_DIR);*/
; 603  : 
; 604  : 	this->Command.PostLevel = GetPrivateProfileInt("Post","PostLevel",100,Commands_DIR);

  01824	68 00 00 00 00	 push	 OFFSET ??_C@_0BM@KMKNOAKM@?4?4?2Data?2ZtData?2Commands?4ini?$AA@
  01829	6a 64		 push	 100			; 00000064H
  0182b	68 00 00 00 00	 push	 OFFSET ??_C@_09PMALNNPF@PostLevel?$AA@
  01830	68 00 00 00 00	 push	 OFFSET ??_C@_04HPGPEKIH@Post?$AA@
  01835	ff d7		 call	 edi

; 605  : 	
; 606  : 	this->Command.PostMoney = GetPrivateProfileInt("Post","PostMoney",1000000,Commands_DIR);

  01837	68 00 00 00 00	 push	 OFFSET ??_C@_0BM@KMKNOAKM@?4?4?2Data?2ZtData?2Commands?4ini?$AA@
  0183c	68 40 42 0f 00	 push	 1000000			; 000f4240H
  01841	68 00 00 00 00	 push	 OFFSET ??_C@_09NPPPIPJF@PostMoney?$AA@
  01846	68 00 00 00 00	 push	 OFFSET ??_C@_04HPGPEKIH@Post?$AA@
  0184b	89 86 ec 05 00
	00		 mov	 DWORD PTR [esi+1516], eax
  01851	ff d7		 call	 edi

; 607  : 
; 608  : 	GetPrivateProfileString("Post", "PostPrist","[post]:",Command.PostPrist,100,Commands_DIR);

  01853	68 00 00 00 00	 push	 OFFSET ??_C@_0BM@KMKNOAKM@?4?4?2Data?2ZtData?2Commands?4ini?$AA@
  01858	6a 64		 push	 100			; 00000064H
  0185a	8d 96 f4 05 00
	00		 lea	 edx, DWORD PTR [esi+1524]
  01860	52		 push	 edx
  01861	68 00 00 00 00	 push	 OFFSET ??_C@_07JMLJGMOM@?$FLpost?$FN?3?$AA@
  01866	68 00 00 00 00	 push	 OFFSET ??_C@_09MIBFFENF@PostPrist?$AA@
  0186b	68 00 00 00 00	 push	 OFFSET ??_C@_04HPGPEKIH@Post?$AA@
  01870	89 86 f0 05 00
	00		 mov	 DWORD PTR [esi+1520], eax
  01876	ff d3		 call	 ebx

; 609  : 
; 610  : 	this->Command.PostColor = GetPrivateProfileInt("Post","PostColor",1,Commands_DIR);

  01878	68 00 00 00 00	 push	 OFFSET ??_C@_0BM@KMKNOAKM@?4?4?2Data?2ZtData?2Commands?4ini?$AA@
  0187d	6a 01		 push	 1
  0187f	68 00 00 00 00	 push	 OFFSET ??_C@_09KBJPHKHD@PostColor?$AA@
  01884	68 00 00 00 00	 push	 OFFSET ??_C@_04HPGPEKIH@Post?$AA@
  01889	ff d7		 call	 edi

; 611  : 	this->Command.PostDelay = GetPrivateProfileInt("Post","PostDelay",0,Commands_DIR);

  0188b	68 00 00 00 00	 push	 OFFSET ??_C@_0BM@KMKNOAKM@?4?4?2Data?2ZtData?2Commands?4ini?$AA@
  01890	6a 00		 push	 0
  01892	68 00 00 00 00	 push	 OFFSET ??_C@_09BPEAKGKL@PostDelay?$AA@
  01897	68 00 00 00 00	 push	 OFFSET ??_C@_04HPGPEKIH@Post?$AA@
  0189c	89 86 58 06 00
	00		 mov	 DWORD PTR [esi+1624], eax
  018a2	ff d7		 call	 edi

; 612  : 	
; 613  : 	this->Command.PostServer = GetPrivateProfileInt("Post","PostServer",0,Commands_DIR);

  018a4	68 00 00 00 00	 push	 OFFSET ??_C@_0BM@KMKNOAKM@?4?4?2Data?2ZtData?2Commands?4ini?$AA@
  018a9	6a 00		 push	 0
  018ab	68 00 00 00 00	 push	 OFFSET ??_C@_0L@PJEJJPCD@PostServer?$AA@
  018b0	68 00 00 00 00	 push	 OFFSET ??_C@_04HPGPEKIH@Post?$AA@
  018b5	89 86 5c 06 00
	00		 mov	 DWORD PTR [esi+1628], eax
  018bb	ff d7		 call	 edi
  018bd	89 86 60 06 00
	00		 mov	 DWORD PTR [esi+1632], eax

; 614  : 	
; 615  : 
; 616  : //#ifdef _CONFLICT_
; 617  : //
; 618  : //#else
; 619  : 	if(this->Command.PostColor < 1 || this->Command.PostColor > 9)

  018c3	8b 86 58 06 00
	00		 mov	 eax, DWORD PTR [esi+1624]
  018c9	83 f8 01	 cmp	 eax, 1
  018cc	7c 05		 jl	 SHORT $LN33@LoadConfig
  018ce	83 f8 09	 cmp	 eax, 9
  018d1	7e 0a		 jle	 SHORT $LN34@LoadConfig
$LN33@LoadConfig:

; 620  : 	{
; 621  : 		this->Command.PostColor = 3;

  018d3	c7 86 58 06 00
	00 03 00 00 00	 mov	 DWORD PTR [esi+1624], 3
$LN34@LoadConfig:

; 622  : 	}
; 623  : //#endif
; 624  : 	this->Command.AddMoney = GetPrivateProfileInt("AddCommand","AddPriceZen",0,Commands_DIR);

  018dd	68 00 00 00 00	 push	 OFFSET ??_C@_0BM@KMKNOAKM@?4?4?2Data?2ZtData?2Commands?4ini?$AA@
  018e2	6a 00		 push	 0
  018e4	68 00 00 00 00	 push	 OFFSET ??_C@_0M@FLIEHIPP@AddPriceZen?$AA@
  018e9	68 00 00 00 00	 push	 OFFSET ??_C@_0L@JFFLHCAL@AddCommand?$AA@
  018ee	ff d7		 call	 edi

; 625  : 	this->Command.AddLeveL = GetPrivateProfileInt("AddCommand","AddPointLevel",1,Commands_DIR);

  018f0	68 00 00 00 00	 push	 OFFSET ??_C@_0BM@KMKNOAKM@?4?4?2Data?2ZtData?2Commands?4ini?$AA@
  018f5	6a 01		 push	 1
  018f7	68 00 00 00 00	 push	 OFFSET ??_C@_0O@ICHAGEJN@AddPointLevel?$AA@
  018fc	68 00 00 00 00	 push	 OFFSET ??_C@_0L@JFFLHCAL@AddCommand?$AA@
  01901	89 86 cc 06 00
	00		 mov	 DWORD PTR [esi+1740], eax
  01907	ff d7		 call	 edi

; 626  : 
; 627  : 	this->Command.Zt_PkClear_Enabled = GetPrivateProfileInt("PkClear","Enabled",1,Commands_DIR);

  01909	68 00 00 00 00	 push	 OFFSET ??_C@_0BM@KMKNOAKM@?4?4?2Data?2ZtData?2Commands?4ini?$AA@
  0190e	6a 01		 push	 1
  01910	68 00 00 00 00	 push	 OFFSET ??_C@_07DOAOMMKG@Enabled?$AA@
  01915	68 00 00 00 00	 push	 OFFSET ??_C@_07MLKAJEJD@PkClear?$AA@
  0191a	89 86 d0 06 00
	00		 mov	 DWORD PTR [esi+1744], eax
  01920	ff d7		 call	 edi

; 628  : 	this->Command.Zt_PkClearLevel = GetPrivateProfileInt("PkClear","PkClearLevel",0,Commands_DIR);

  01922	68 00 00 00 00	 push	 OFFSET ??_C@_0BM@KMKNOAKM@?4?4?2Data?2ZtData?2Commands?4ini?$AA@
  01927	6a 00		 push	 0
  01929	68 00 00 00 00	 push	 OFFSET ??_C@_0N@LFLKJINM@PkClearLevel?$AA@
  0192e	68 00 00 00 00	 push	 OFFSET ??_C@_07MLKAJEJD@PkClear?$AA@
  01933	89 86 d4 06 00
	00		 mov	 DWORD PTR [esi+1748], eax
  01939	ff d7		 call	 edi

; 629  : 	this->Command.Zt_PkClearMoney = GetPrivateProfileInt("PkClear","PkClearMoney",0,Commands_DIR);

  0193b	68 00 00 00 00	 push	 OFFSET ??_C@_0BM@KMKNOAKM@?4?4?2Data?2ZtData?2Commands?4ini?$AA@
  01940	6a 00		 push	 0
  01942	68 00 00 00 00	 push	 OFFSET ??_C@_0N@JGEOMKLM@PkClearMoney?$AA@
  01947	68 00 00 00 00	 push	 OFFSET ??_C@_07MLKAJEJD@PkClear?$AA@
  0194c	89 86 d8 06 00
	00		 mov	 DWORD PTR [esi+1752], eax
  01952	ff d7		 call	 edi

; 630  : 	this->Command.Zt_PKClearType = GetPrivateProfileInt("PkClear","PKClearType",0,Commands_DIR);

  01954	68 00 00 00 00	 push	 OFFSET ??_C@_0BM@KMKNOAKM@?4?4?2Data?2ZtData?2Commands?4ini?$AA@
  01959	6a 00		 push	 0
  0195b	68 00 00 00 00	 push	 OFFSET ??_C@_0M@OGBNAHMP@PKClearType?$AA@
  01960	68 00 00 00 00	 push	 OFFSET ??_C@_07MLKAJEJD@PkClear?$AA@
  01965	89 86 dc 06 00
	00		 mov	 DWORD PTR [esi+1756], eax
  0196b	ff d7		 call	 edi

; 631  : #ifdef PK_CLEAR_TO_CREDITS
; 632  : 	if(g_ZtLicense.CheckUser(eZtUB::Local3) || g_ZtLicense.CheckUser(SILVER1) || g_ZtLicense.CheckUser(SILVER2))

  0196d	6a 1c		 push	 28			; 0000001cH
  0196f	b9 00 00 00 00	 mov	 ecx, OFFSET ?g_ZtLicense@@3VCZtLicense@@A ; g_ZtLicense
  01974	89 86 e0 06 00
	00		 mov	 DWORD PTR [esi+1760], eax
  0197a	e8 00 00 00 00	 call	 ?CheckUser@CZtLicense@@QAE_NH@Z ; CZtLicense::CheckUser
  0197f	84 c0		 test	 al, al
  01981	75 20		 jne	 SHORT $LN31@LoadConfig
  01983	6a 07		 push	 7
  01985	b9 00 00 00 00	 mov	 ecx, OFFSET ?g_ZtLicense@@3VCZtLicense@@A ; g_ZtLicense
  0198a	e8 00 00 00 00	 call	 ?CheckUser@CZtLicense@@QAE_NH@Z ; CZtLicense::CheckUser
  0198f	84 c0		 test	 al, al
  01991	75 10		 jne	 SHORT $LN31@LoadConfig
  01993	6a 08		 push	 8
  01995	b9 00 00 00 00	 mov	 ecx, OFFSET ?g_ZtLicense@@3VCZtLicense@@A ; g_ZtLicense
  0199a	e8 00 00 00 00	 call	 ?CheckUser@CZtLicense@@QAE_NH@Z ; CZtLicense::CheckUser
  0199f	84 c0		 test	 al, al
  019a1	74 19		 je	 SHORT $LN32@LoadConfig
$LN31@LoadConfig:

; 633  : 	{
; 634  : 		this->Command.Zt_PkClearCredits = GetPrivateProfileInt("PkClear","PkClearCredits",0,Commands_DIR);

  019a3	68 00 00 00 00	 push	 OFFSET ??_C@_0BM@KMKNOAKM@?4?4?2Data?2ZtData?2Commands?4ini?$AA@
  019a8	6a 00		 push	 0
  019aa	68 00 00 00 00	 push	 OFFSET ??_C@_0P@HABGNHDN@PkClearCredits?$AA@
  019af	68 00 00 00 00	 push	 OFFSET ??_C@_07MLKAJEJD@PkClear?$AA@
  019b4	ff d7		 call	 edi
  019b6	89 86 e4 06 00
	00		 mov	 DWORD PTR [esi+1764], eax
$LN32@LoadConfig:

; 635  : 	}
; 636  : #endif // PK_CLEAR_TO_CREDITS
; 637  : 
; 638  : 	this->Command.PostPCPoint = GetPrivateProfileInt("Post","PostPCPoint",1000000,Commands_DIR);

  019bc	68 00 00 00 00	 push	 OFFSET ??_C@_0BM@KMKNOAKM@?4?4?2Data?2ZtData?2Commands?4ini?$AA@
  019c1	68 40 42 0f 00	 push	 1000000			; 000f4240H
  019c6	68 00 00 00 00	 push	 OFFSET ??_C@_0M@LDFBDLDI@PostPCPoint?$AA@
  019cb	68 00 00 00 00	 push	 OFFSET ??_C@_04HPGPEKIH@Post?$AA@
  019d0	ff d7		 call	 edi

; 639  : 	this->Command.MoneyType = GetPrivateProfileInt("Post","MoneyType",1,Commands_DIR);

  019d2	68 00 00 00 00	 push	 OFFSET ??_C@_0BM@KMKNOAKM@?4?4?2Data?2ZtData?2Commands?4ini?$AA@
  019d7	6a 01		 push	 1
  019d9	68 00 00 00 00	 push	 OFFSET ??_C@_09FDPGKJIB@MoneyType?$AA@
  019de	68 00 00 00 00	 push	 OFFSET ??_C@_04HPGPEKIH@Post?$AA@
  019e3	89 86 e8 06 00
	00		 mov	 DWORD PTR [esi+1768], eax
  019e9	ff d7		 call	 edi

; 640  : 	
; 641  : #ifdef _POST_CONFIG_
; 642  : 	 GetPrivateProfileString("Post", "AdminPostName","/gg",Command.AdminPostName,100,Commands_DIR);

  019eb	68 00 00 00 00	 push	 OFFSET ??_C@_0BM@KMKNOAKM@?4?4?2Data?2ZtData?2Commands?4ini?$AA@
  019f0	6a 64		 push	 100			; 00000064H
  019f2	89 86 ec 06 00
	00		 mov	 DWORD PTR [esi+1772], eax
  019f8	8d 86 68 06 00
	00		 lea	 eax, DWORD PTR [esi+1640]
  019fe	50		 push	 eax
  019ff	68 00 00 00 00	 push	 OFFSET ??_C@_03EBMOLPEO@?1gg?$AA@
  01a04	68 00 00 00 00	 push	 OFFSET ??_C@_0O@GEIEBGDA@AdminPostName?$AA@
  01a09	68 00 00 00 00	 push	 OFFSET ??_C@_04HPGPEKIH@Post?$AA@
  01a0e	ff d3		 call	 ebx

; 643  : #endif
; 644  : 
; 645  : 	this->Command.GensColorEnable = GetPrivateProfileInt("Post","GensColorEnable",0,Commands_DIR);

  01a10	68 00 00 00 00	 push	 OFFSET ??_C@_0BM@KMKNOAKM@?4?4?2Data?2ZtData?2Commands?4ini?$AA@
  01a15	6a 00		 push	 0
  01a17	68 00 00 00 00	 push	 OFFSET ??_C@_0BA@JLFAEIBB@GensColorEnable?$AA@
  01a1c	68 00 00 00 00	 push	 OFFSET ??_C@_04HPGPEKIH@Post?$AA@
  01a21	ff d7		 call	 edi

; 646  : 	this->Command.GensColorRed = GetPrivateProfileInt("Post","GensColorRed",230,Commands_DIR);

  01a23	68 00 00 00 00	 push	 OFFSET ??_C@_0BM@KMKNOAKM@?4?4?2Data?2ZtData?2Commands?4ini?$AA@
  01a28	68 e6 00 00 00	 push	 230			; 000000e6H
  01a2d	85 c0		 test	 eax, eax
  01a2f	68 00 00 00 00	 push	 OFFSET ??_C@_0N@GJKDHDBG@GensColorRed?$AA@
  01a34	0f 95 c1	 setne	 cl
  01a37	68 00 00 00 00	 push	 OFFSET ??_C@_04HPGPEKIH@Post?$AA@
  01a3c	88 8e f0 06 00
	00		 mov	 BYTE PTR [esi+1776], cl
  01a42	ff d7		 call	 edi

; 647  : 	this->Command.GensColorGreen = GetPrivateProfileInt("Post","GensColorGreen",230,Commands_DIR);

  01a44	68 00 00 00 00	 push	 OFFSET ??_C@_0BM@KMKNOAKM@?4?4?2Data?2ZtData?2Commands?4ini?$AA@
  01a49	68 e6 00 00 00	 push	 230			; 000000e6H
  01a4e	68 00 00 00 00	 push	 OFFSET ??_C@_0P@FJJBAMMP@GensColorGreen?$AA@
  01a53	68 00 00 00 00	 push	 OFFSET ??_C@_04HPGPEKIH@Post?$AA@
  01a58	88 86 f1 06 00
	00		 mov	 BYTE PTR [esi+1777], al
  01a5e	ff d7		 call	 edi

; 648  : 	this->Command.GensColorBlue = GetPrivateProfileInt("Post","GensColorBlue",233,Commands_DIR);

  01a60	68 00 00 00 00	 push	 OFFSET ??_C@_0BM@KMKNOAKM@?4?4?2Data?2ZtData?2Commands?4ini?$AA@
  01a65	68 e9 00 00 00	 push	 233			; 000000e9H
  01a6a	68 00 00 00 00	 push	 OFFSET ??_C@_0O@OMDLJIIP@GensColorBlue?$AA@
  01a6f	68 00 00 00 00	 push	 OFFSET ??_C@_04HPGPEKIH@Post?$AA@
  01a74	88 86 f2 06 00
	00		 mov	 BYTE PTR [esi+1778], al
  01a7a	ff d7		 call	 edi

; 649  : 
; 650  : 	//---------------------------------
; 651  : 	//			Events
; 652  : 	//---------------------------------
; 653  : 
; 654  : 	this->Event.Zt_IllusionTemplPlaerMin = GetPrivateProfileInt("IllusionTemple","ItMinPlayers",4,Events_DIR);

  01a7c	68 00 00 00 00	 push	 OFFSET ??_C@_0BK@GDGHCGII@?4?4?2Data?2ZtData?2Events?4ini?$AA@
  01a81	6a 04		 push	 4
  01a83	68 00 00 00 00	 push	 OFFSET ??_C@_0N@DIJFKDPN@ItMinPlayers?$AA@
  01a88	68 00 00 00 00	 push	 OFFSET ??_C@_0P@MKNNBBHA@IllusionTemple?$AA@
  01a8d	88 86 f3 06 00
	00		 mov	 BYTE PTR [esi+1779], al
  01a93	ff d7		 call	 edi

; 655  : 	this->Event.Zt_ItDropType	= GetPrivateProfileInt("IllusionTemple","ItDropType",12,Events_DIR);

  01a95	68 00 00 00 00	 push	 OFFSET ??_C@_0BK@GDGHCGII@?4?4?2Data?2ZtData?2Events?4ini?$AA@
  01a9a	6a 0c		 push	 12			; 0000000cH
  01a9c	68 00 00 00 00	 push	 OFFSET ??_C@_0L@EKNHMIBP@ItDropType?$AA@
  01aa1	68 00 00 00 00	 push	 OFFSET ??_C@_0P@MKNNBBHA@IllusionTemple?$AA@
  01aa6	89 86 f4 06 00
	00		 mov	 DWORD PTR [esi+1780], eax
  01aac	ff d7		 call	 edi

; 656  : 	this->Event.Zt_ItDropID		= GetPrivateProfileInt("IllusionTemple","ItDropID",15,Events_DIR);

  01aae	68 00 00 00 00	 push	 OFFSET ??_C@_0BK@GDGHCGII@?4?4?2Data?2ZtData?2Events?4ini?$AA@
  01ab3	6a 0f		 push	 15			; 0000000fH
  01ab5	68 00 00 00 00	 push	 OFFSET ??_C@_08COHAEAIJ@ItDropID?$AA@
  01aba	68 00 00 00 00	 push	 OFFSET ??_C@_0P@MKNNBBHA@IllusionTemple?$AA@
  01abf	89 86 f8 06 00
	00		 mov	 DWORD PTR [esi+1784], eax
  01ac5	ff d7		 call	 edi

; 657  : 	this->Event.Zt_ItDropLevel	= GetPrivateProfileInt("IllusionTemple","ItDropLevel",0,Events_DIR);

  01ac7	68 00 00 00 00	 push	 OFFSET ??_C@_0BK@GDGHCGII@?4?4?2Data?2ZtData?2Events?4ini?$AA@
  01acc	6a 00		 push	 0
  01ace	68 00 00 00 00	 push	 OFFSET ??_C@_0M@CLPEFLDP@ItDropLevel?$AA@
  01ad3	68 00 00 00 00	 push	 OFFSET ??_C@_0P@MKNNBBHA@IllusionTemple?$AA@
  01ad8	89 86 fc 06 00
	00		 mov	 DWORD PTR [esi+1788], eax
  01ade	ff d7		 call	 edi

; 658  : 	this->Event.Zt_ItDropSkill	= GetPrivateProfileInt("IllusionTemple","ItDropSkill",0,Events_DIR);

  01ae0	68 00 00 00 00	 push	 OFFSET ??_C@_0BK@GDGHCGII@?4?4?2Data?2ZtData?2Events?4ini?$AA@
  01ae5	6a 00		 push	 0
  01ae7	68 00 00 00 00	 push	 OFFSET ??_C@_0M@GBOPCJFG@ItDropSkill?$AA@
  01aec	68 00 00 00 00	 push	 OFFSET ??_C@_0P@MKNNBBHA@IllusionTemple?$AA@
  01af1	89 86 00 07 00
	00		 mov	 DWORD PTR [esi+1792], eax
  01af7	ff d7		 call	 edi

; 659  : 	this->Event.Zt_ItDropLuck	= GetPrivateProfileInt("IllusionTemple","ItDropLuck",0,Events_DIR);

  01af9	68 00 00 00 00	 push	 OFFSET ??_C@_0BK@GDGHCGII@?4?4?2Data?2ZtData?2Events?4ini?$AA@
  01afe	6a 00		 push	 0
  01b00	68 00 00 00 00	 push	 OFFSET ??_C@_0L@NAHCJLED@ItDropLuck?$AA@
  01b05	68 00 00 00 00	 push	 OFFSET ??_C@_0P@MKNNBBHA@IllusionTemple?$AA@
  01b0a	89 86 04 07 00
	00		 mov	 DWORD PTR [esi+1796], eax
  01b10	ff d7		 call	 edi

; 660  : 	this->Event.Zt_ItDropOpt	= GetPrivateProfileInt("IllusionTemple","ItDropOpt",0,Events_DIR);

  01b12	68 00 00 00 00	 push	 OFFSET ??_C@_0BK@GDGHCGII@?4?4?2Data?2ZtData?2Events?4ini?$AA@
  01b17	6a 00		 push	 0
  01b19	68 00 00 00 00	 push	 OFFSET ??_C@_09NJBAOFKG@ItDropOpt?$AA@
  01b1e	68 00 00 00 00	 push	 OFFSET ??_C@_0P@MKNNBBHA@IllusionTemple?$AA@
  01b23	89 86 08 07 00
	00		 mov	 DWORD PTR [esi+1800], eax
  01b29	ff d7		 call	 edi

; 661  : 	this->Event.Zt_ItDropExcOpt	= GetPrivateProfileInt("IllusionTemple","ItDropExcOpt",0,Events_DIR);

  01b2b	68 00 00 00 00	 push	 OFFSET ??_C@_0BK@GDGHCGII@?4?4?2Data?2ZtData?2Events?4ini?$AA@
  01b30	6a 00		 push	 0
  01b32	68 00 00 00 00	 push	 OFFSET ??_C@_0N@KFHNDMLO@ItDropExcOpt?$AA@
  01b37	68 00 00 00 00	 push	 OFFSET ??_C@_0P@MKNNBBHA@IllusionTemple?$AA@
  01b3c	89 86 0c 07 00
	00		 mov	 DWORD PTR [esi+1804], eax
  01b42	ff d7		 call	 edi

; 662  : 	this->Event.Zt_ItDropAncOpt	= GetPrivateProfileInt("IllusionTemple","ItDropAncOpt",0,Events_DIR);

  01b44	68 00 00 00 00	 push	 OFFSET ??_C@_0BK@GDGHCGII@?4?4?2Data?2ZtData?2Events?4ini?$AA@
  01b49	6a 00		 push	 0
  01b4b	68 00 00 00 00	 push	 OFFSET ??_C@_0N@IELNPJCL@ItDropAncOpt?$AA@
  01b50	68 00 00 00 00	 push	 OFFSET ??_C@_0P@MKNNBBHA@IllusionTemple?$AA@
  01b55	89 86 10 07 00
	00		 mov	 DWORD PTR [esi+1808], eax
  01b5b	ff d7		 call	 edi

; 663  : 
; 664  : 	this->Event.Zt_BCDropType	= GetPrivateProfileInt("BloodCastle","BCDropType",12,Events_DIR);

  01b5d	68 00 00 00 00	 push	 OFFSET ??_C@_0BK@GDGHCGII@?4?4?2Data?2ZtData?2Events?4ini?$AA@
  01b62	6a 0c		 push	 12			; 0000000cH
  01b64	68 00 00 00 00	 push	 OFFSET ??_C@_0L@ODNJNGBK@BCDropType?$AA@
  01b69	68 00 00 00 00	 push	 OFFSET ??_C@_0M@EAAIBIKA@BloodCastle?$AA@
  01b6e	89 86 14 07 00
	00		 mov	 DWORD PTR [esi+1812], eax
  01b74	ff d7		 call	 edi

; 665  : 	this->Event.Zt_BCDropID		= GetPrivateProfileInt("BloodCastle","BCDropID",15,Events_DIR);

  01b76	68 00 00 00 00	 push	 OFFSET ??_C@_0BK@GDGHCGII@?4?4?2Data?2ZtData?2Events?4ini?$AA@
  01b7b	6a 0f		 push	 15			; 0000000fH
  01b7d	68 00 00 00 00	 push	 OFFSET ??_C@_08CDCNIEDA@BCDropID?$AA@
  01b82	68 00 00 00 00	 push	 OFFSET ??_C@_0M@EAAIBIKA@BloodCastle?$AA@
  01b87	89 86 18 07 00
	00		 mov	 DWORD PTR [esi+1816], eax
  01b8d	ff d7		 call	 edi

; 666  : 	this->Event.Zt_BCDropLevel	= GetPrivateProfileInt("BloodCastle","BCDropLevel",0,Events_DIR);

  01b8f	68 00 00 00 00	 push	 OFFSET ??_C@_0BK@GDGHCGII@?4?4?2Data?2ZtData?2Events?4ini?$AA@
  01b94	6a 00		 push	 0
  01b96	68 00 00 00 00	 push	 OFFSET ??_C@_0M@FLDHKBKO@BCDropLevel?$AA@
  01b9b	68 00 00 00 00	 push	 OFFSET ??_C@_0M@EAAIBIKA@BloodCastle?$AA@
  01ba0	89 86 1c 07 00
	00		 mov	 DWORD PTR [esi+1820], eax
  01ba6	ff d7		 call	 edi

; 667  : 	this->Event.Zt_BCDropSkill	= GetPrivateProfileInt("BloodCastle","BCDropSkill",0,Events_DIR);

  01ba8	68 00 00 00 00	 push	 OFFSET ??_C@_0BK@GDGHCGII@?4?4?2Data?2ZtData?2Events?4ini?$AA@
  01bad	6a 00		 push	 0
  01baf	68 00 00 00 00	 push	 OFFSET ??_C@_0M@BBCMNDMH@BCDropSkill?$AA@
  01bb4	68 00 00 00 00	 push	 OFFSET ??_C@_0M@EAAIBIKA@BloodCastle?$AA@
  01bb9	89 86 20 07 00
	00		 mov	 DWORD PTR [esi+1824], eax
  01bbf	ff d7		 call	 edi

; 668  : 	this->Event.Zt_BCDropLuck	= GetPrivateProfileInt("BloodCastle","BCDropLuck",0,Events_DIR);

  01bc1	68 00 00 00 00	 push	 OFFSET ??_C@_0BK@GDGHCGII@?4?4?2Data?2ZtData?2Events?4ini?$AA@
  01bc6	6a 00		 push	 0
  01bc8	68 00 00 00 00	 push	 OFFSET ??_C@_0L@HJHMIFEG@BCDropLuck?$AA@
  01bcd	68 00 00 00 00	 push	 OFFSET ??_C@_0M@EAAIBIKA@BloodCastle?$AA@
  01bd2	89 86 24 07 00
	00		 mov	 DWORD PTR [esi+1828], eax
  01bd8	ff d7		 call	 edi

; 669  : 	this->Event.Zt_BCDropOpt	= GetPrivateProfileInt("BloodCastle","BCDropOpt",0,Events_DIR);

  01bda	68 00 00 00 00	 push	 OFFSET ??_C@_0BK@GDGHCGII@?4?4?2Data?2ZtData?2Events?4ini?$AA@
  01bdf	6a 00		 push	 0
  01be1	68 00 00 00 00	 push	 OFFSET ??_C@_09GLKALDEK@BCDropOpt?$AA@
  01be6	68 00 00 00 00	 push	 OFFSET ??_C@_0M@EAAIBIKA@BloodCastle?$AA@
  01beb	89 86 28 07 00
	00		 mov	 DWORD PTR [esi+1832], eax
  01bf1	ff d7		 call	 edi

; 670  : 	this->Event.Zt_BCDropExcOpt	= GetPrivateProfileInt("BloodCastle","BCDropExcOpt",0,Events_DIR);

  01bf3	68 00 00 00 00	 push	 OFFSET ??_C@_0BK@GDGHCGII@?4?4?2Data?2ZtData?2Events?4ini?$AA@
  01bf8	6a 00		 push	 0
  01bfa	68 00 00 00 00	 push	 OFFSET ??_C@_0N@CCAFFMJG@BCDropExcOpt?$AA@
  01bff	68 00 00 00 00	 push	 OFFSET ??_C@_0M@EAAIBIKA@BloodCastle?$AA@
  01c04	89 86 2c 07 00
	00		 mov	 DWORD PTR [esi+1836], eax
  01c0a	ff d7		 call	 edi

; 671  : 	this->Event.Zt_BCDropAncOpt	= GetPrivateProfileInt("BloodCastle","BCDropAncOpt",0,Events_DIR);

  01c0c	68 00 00 00 00	 push	 OFFSET ??_C@_0BK@GDGHCGII@?4?4?2Data?2ZtData?2Events?4ini?$AA@
  01c11	6a 00		 push	 0
  01c13	68 00 00 00 00	 push	 OFFSET ??_C@_0N@DMFJJAD@BCDropAncOpt?$AA@
  01c18	68 00 00 00 00	 push	 OFFSET ??_C@_0M@EAAIBIKA@BloodCastle?$AA@
  01c1d	89 86 30 07 00
	00		 mov	 DWORD PTR [esi+1840], eax
  01c23	ff d7		 call	 edi

; 672  : 	this->Event.BCAllowPKPlayer	= GetPrivateProfileInt("BloodCastle","BCAllowPKPlayer",0,Events_DIR);

  01c25	68 00 00 00 00	 push	 OFFSET ??_C@_0BK@GDGHCGII@?4?4?2Data?2ZtData?2Events?4ini?$AA@
  01c2a	6a 00		 push	 0
  01c2c	68 00 00 00 00	 push	 OFFSET ??_C@_0BA@GIDEMEIM@BCAllowPKPlayer?$AA@
  01c31	68 00 00 00 00	 push	 OFFSET ??_C@_0M@EAAIBIKA@BloodCastle?$AA@
  01c36	89 86 34 07 00
	00		 mov	 DWORD PTR [esi+1844], eax
  01c3c	ff d7		 call	 edi

; 673  : 
; 674  : 	this->Event.Zt_BCRewardLevelUp = GetPrivateProfileInt("BloodCastle","BCRewardLevelUp",0,Events_DIR);

  01c3e	68 00 00 00 00	 push	 OFFSET ??_C@_0BK@GDGHCGII@?4?4?2Data?2ZtData?2Events?4ini?$AA@
  01c43	6a 00		 push	 0
  01c45	68 00 00 00 00	 push	 OFFSET ??_C@_0BA@JJLDMLND@BCRewardLevelUp?$AA@
  01c4a	68 00 00 00 00	 push	 OFFSET ??_C@_0M@EAAIBIKA@BloodCastle?$AA@
  01c4f	89 86 38 07 00
	00		 mov	 DWORD PTR [esi+1848], eax
  01c55	ff d7		 call	 edi

; 675  : 	this->Event.Zt_CCRewardLevelUp = GetPrivateProfileInt("BloodCastle","CCRewardLevelUp",0,Events_DIR);

  01c57	68 00 00 00 00	 push	 OFFSET ??_C@_0BK@GDGHCGII@?4?4?2Data?2ZtData?2Events?4ini?$AA@
  01c5c	89 86 3c 07 00
	00		 mov	 DWORD PTR [esi+1852], eax
  01c62	6a 00		 push	 0
  01c64	68 00 00 00 00	 push	 OFFSET ??_C@_0BA@DHNLFKEC@CCRewardLevelUp?$AA@
  01c69	68 00 00 00 00	 push	 OFFSET ??_C@_0M@EAAIBIKA@BloodCastle?$AA@
  01c6e	ff d7		 call	 edi

; 676  : 	
; 677  : 
; 678  : #ifdef BC_LVL_DROP
; 679  : 	if(g_ZtLicense.CheckUser(eZtUB::Local3) || g_ZtLicense.CheckUser(eZtUB::drynea) || g_ZtLicense.CheckUser(eZtUB::Local2) || g_ZtLicense.CheckUser(eZtUB::Local))

  01c70	6a 1c		 push	 28			; 0000001cH
  01c72	b9 00 00 00 00	 mov	 ecx, OFFSET ?g_ZtLicense@@3VCZtLicense@@A ; g_ZtLicense
  01c77	89 86 40 07 00
	00		 mov	 DWORD PTR [esi+1856], eax
  01c7d	e8 00 00 00 00	 call	 ?CheckUser@CZtLicense@@QAE_NH@Z ; CZtLicense::CheckUser
  01c82	84 c0		 test	 al, al
  01c84	75 34		 jne	 SHORT $LN29@LoadConfig
  01c86	6a 01		 push	 1
  01c88	b9 00 00 00 00	 mov	 ecx, OFFSET ?g_ZtLicense@@3VCZtLicense@@A ; g_ZtLicense
  01c8d	e8 00 00 00 00	 call	 ?CheckUser@CZtLicense@@QAE_NH@Z ; CZtLicense::CheckUser
  01c92	84 c0		 test	 al, al
  01c94	75 24		 jne	 SHORT $LN29@LoadConfig
  01c96	6a 18		 push	 24			; 00000018H
  01c98	b9 00 00 00 00	 mov	 ecx, OFFSET ?g_ZtLicense@@3VCZtLicense@@A ; g_ZtLicense
  01c9d	e8 00 00 00 00	 call	 ?CheckUser@CZtLicense@@QAE_NH@Z ; CZtLicense::CheckUser
  01ca2	84 c0		 test	 al, al
  01ca4	75 14		 jne	 SHORT $LN29@LoadConfig
  01ca6	6a 00		 push	 0
  01ca8	b9 00 00 00 00	 mov	 ecx, OFFSET ?g_ZtLicense@@3VCZtLicense@@A ; g_ZtLicense
  01cad	e8 00 00 00 00	 call	 ?CheckUser@CZtLicense@@QAE_NH@Z ; CZtLicense::CheckUser
  01cb2	84 c0		 test	 al, al
  01cb4	0f 84 08 07 00
	00		 je	 $LN30@LoadConfig
$LN29@LoadConfig:

; 680  : 	{
; 681  : 		this->Event.Zt_BCDropType_DRYNEA[1]	= GetPrivateProfileInt("BloodCastle","BCDropType1",12,Events_DIR);

  01cba	68 00 00 00 00	 push	 OFFSET ??_C@_0BK@GDGHCGII@?4?4?2Data?2ZtData?2Events?4ini?$AA@
  01cbf	6a 0c		 push	 12			; 0000000cH
  01cc1	68 00 00 00 00	 push	 OFFSET ??_C@_0M@DLNMCHBO@BCDropType1?$AA@
  01cc6	68 00 00 00 00	 push	 OFFSET ??_C@_0M@EAAIBIKA@BloodCastle?$AA@
  01ccb	ff d7		 call	 edi

; 682  : 		this->Event.Zt_BCDropID_DRYNEA[1]		= GetPrivateProfileInt("BloodCastle","BCDropID1",15,Events_DIR);

  01ccd	68 00 00 00 00	 push	 OFFSET ??_C@_0BK@GDGHCGII@?4?4?2Data?2ZtData?2Events?4ini?$AA@
  01cd2	6a 0f		 push	 15			; 0000000fH
  01cd4	68 00 00 00 00	 push	 OFFSET ??_C@_09OAKHBKJK@BCDropID1?$AA@
  01cd9	68 00 00 00 00	 push	 OFFSET ??_C@_0M@EAAIBIKA@BloodCastle?$AA@
  01cde	89 86 48 07 00
	00		 mov	 DWORD PTR [esi+1864], eax
  01ce4	ff d7		 call	 edi

; 683  : 		this->Event.Zt_BCDropLevel_DRYNEA[1]	= GetPrivateProfileInt("BloodCastle","BCDropLevel1",0,Events_DIR);

  01ce6	68 00 00 00 00	 push	 OFFSET ??_C@_0BK@GDGHCGII@?4?4?2Data?2ZtData?2Events?4ini?$AA@
  01ceb	6a 00		 push	 0
  01ced	68 00 00 00 00	 push	 OFFSET ??_C@_0N@PHGILOPM@BCDropLevel1?$AA@
  01cf2	68 00 00 00 00	 push	 OFFSET ??_C@_0M@EAAIBIKA@BloodCastle?$AA@
  01cf7	89 86 68 07 00
	00		 mov	 DWORD PTR [esi+1896], eax
  01cfd	ff d7		 call	 edi

; 684  : 		this->Event.Zt_BCDropSkill_DRYNEA[1]	= GetPrivateProfileInt("BloodCastle","BCDropSkill1",0,Events_DIR);

  01cff	68 00 00 00 00	 push	 OFFSET ??_C@_0BK@GDGHCGII@?4?4?2Data?2ZtData?2Events?4ini?$AA@
  01d04	6a 00		 push	 0
  01d06	68 00 00 00 00	 push	 OFFSET ??_C@_0N@MDEMHMHC@BCDropSkill1?$AA@
  01d0b	68 00 00 00 00	 push	 OFFSET ??_C@_0M@EAAIBIKA@BloodCastle?$AA@
  01d10	89 86 88 07 00
	00		 mov	 DWORD PTR [esi+1928], eax
  01d16	ff d7		 call	 edi

; 685  : 		this->Event.Zt_BCDropLuck_DRYNEA[1]	= GetPrivateProfileInt("BloodCastle","BCDropLuck1",0,Events_DIR);

  01d18	68 00 00 00 00	 push	 OFFSET ??_C@_0BK@GDGHCGII@?4?4?2Data?2ZtData?2Events?4ini?$AA@
  01d1d	6a 00		 push	 0
  01d1f	68 00 00 00 00	 push	 OFFSET ??_C@_0M@FJJLJPJC@BCDropLuck1?$AA@
  01d24	68 00 00 00 00	 push	 OFFSET ??_C@_0M@EAAIBIKA@BloodCastle?$AA@
  01d29	89 86 a8 07 00
	00		 mov	 DWORD PTR [esi+1960], eax
  01d2f	ff d7		 call	 edi

; 686  : 		this->Event.Zt_BCDropOpt_DRYNEA[1]	= GetPrivateProfileInt("BloodCastle","BCDropOpt1",0,Events_DIR);

  01d31	68 00 00 00 00	 push	 OFFSET ??_C@_0BK@GDGHCGII@?4?4?2Data?2ZtData?2Events?4ini?$AA@
  01d36	6a 00		 push	 0
  01d38	68 00 00 00 00	 push	 OFFSET ??_C@_0L@FADPAPIP@BCDropOpt1?$AA@
  01d3d	68 00 00 00 00	 push	 OFFSET ??_C@_0M@EAAIBIKA@BloodCastle?$AA@
  01d42	89 86 c8 07 00
	00		 mov	 DWORD PTR [esi+1992], eax
  01d48	ff d7		 call	 edi

; 687  : 		this->Event.Zt_BCDropExcOpt_DRYNEA[1]	= GetPrivateProfileInt("BloodCastle","BCDropExcOpt1",0,Events_DIR);

  01d4a	68 00 00 00 00	 push	 OFFSET ??_C@_0BK@GDGHCGII@?4?4?2Data?2ZtData?2Events?4ini?$AA@
  01d4f	6a 00		 push	 0
  01d51	68 00 00 00 00	 push	 OFFSET ??_C@_0O@NPBDDEJP@BCDropExcOpt1?$AA@
  01d56	68 00 00 00 00	 push	 OFFSET ??_C@_0M@EAAIBIKA@BloodCastle?$AA@
  01d5b	89 86 e8 07 00
	00		 mov	 DWORD PTR [esi+2024], eax
  01d61	ff d7		 call	 edi

; 688  : 		this->Event.Zt_BCDropAncOpt_DRYNEA[1]	= GetPrivateProfileInt("BloodCastle","BCDropAncOpt1",0,Events_DIR);

  01d63	68 00 00 00 00	 push	 OFFSET ??_C@_0BK@GDGHCGII@?4?4?2Data?2ZtData?2Events?4ini?$AA@
  01d68	6a 00		 push	 0
  01d6a	68 00 00 00 00	 push	 OFFSET ??_C@_0O@FPFHJDJB@BCDropAncOpt1?$AA@
  01d6f	68 00 00 00 00	 push	 OFFSET ??_C@_0M@EAAIBIKA@BloodCastle?$AA@
  01d74	89 86 08 08 00
	00		 mov	 DWORD PTR [esi+2056], eax
  01d7a	ff d7		 call	 edi

; 689  : 		this->Event.BCAllowPKPlayer_DRYNEA[1]	= GetPrivateProfileInt("BloodCastle","BCAllowPKPlayer1",0,Events_DIR);

  01d7c	68 00 00 00 00	 push	 OFFSET ??_C@_0BK@GDGHCGII@?4?4?2Data?2ZtData?2Events?4ini?$AA@
  01d81	6a 00		 push	 0
  01d83	68 00 00 00 00	 push	 OFFSET ??_C@_0BB@CCDLPMHN@BCAllowPKPlayer1?$AA@
  01d88	68 00 00 00 00	 push	 OFFSET ??_C@_0M@EAAIBIKA@BloodCastle?$AA@
  01d8d	89 86 28 08 00
	00		 mov	 DWORD PTR [esi+2088], eax
  01d93	ff d7		 call	 edi

; 690  : 
; 691  : 		this->Event.Zt_BCDropType_DRYNEA[2]	= GetPrivateProfileInt("BloodCastle","BCDropType2",12,Events_DIR);

  01d95	68 00 00 00 00	 push	 OFFSET ??_C@_0BK@GDGHCGII@?4?4?2Data?2ZtData?2Events?4ini?$AA@
  01d9a	6a 0c		 push	 12			; 0000000cH
  01d9c	68 00 00 00 00	 push	 OFFSET ??_C@_0M@BAPBHENN@BCDropType2?$AA@
  01da1	68 00 00 00 00	 push	 OFFSET ??_C@_0M@EAAIBIKA@BloodCastle?$AA@
  01da6	89 86 48 08 00
	00		 mov	 DWORD PTR [esi+2120], eax
  01dac	ff d7		 call	 edi

; 692  : 		this->Event.Zt_BCDropID_DRYNEA[2]		= GetPrivateProfileInt("BloodCastle","BCDropID2",15,Events_DIR);

  01dae	68 00 00 00 00	 push	 OFFSET ??_C@_0BK@GDGHCGII@?4?4?2Data?2ZtData?2Events?4ini?$AA@
  01db3	6a 0f		 push	 15			; 0000000fH
  01db5	68 00 00 00 00	 push	 OFFSET ??_C@_09MLIKEJFJ@BCDropID2?$AA@
  01dba	68 00 00 00 00	 push	 OFFSET ??_C@_0M@EAAIBIKA@BloodCastle?$AA@
  01dbf	89 86 4c 07 00
	00		 mov	 DWORD PTR [esi+1868], eax
  01dc5	ff d7		 call	 edi

; 693  : 		this->Event.Zt_BCDropLevel_DRYNEA[2]	= GetPrivateProfileInt("BloodCastle","BCDropLevel2",0,Events_DIR);

  01dc7	68 00 00 00 00	 push	 OFFSET ??_C@_0BK@GDGHCGII@?4?4?2Data?2ZtData?2Events?4ini?$AA@
  01dcc	6a 00		 push	 0
  01dce	68 00 00 00 00	 push	 OFFSET ??_C@_0N@NMEFONDP@BCDropLevel2?$AA@
  01dd3	68 00 00 00 00	 push	 OFFSET ??_C@_0M@EAAIBIKA@BloodCastle?$AA@
  01dd8	89 86 6c 07 00
	00		 mov	 DWORD PTR [esi+1900], eax
  01dde	ff d7		 call	 edi

; 694  : 		this->Event.Zt_BCDropSkill_DRYNEA[2]	= GetPrivateProfileInt("BloodCastle","BCDropSkill2",0,Events_DIR);

  01de0	68 00 00 00 00	 push	 OFFSET ??_C@_0BK@GDGHCGII@?4?4?2Data?2ZtData?2Events?4ini?$AA@
  01de5	6a 00		 push	 0
  01de7	68 00 00 00 00	 push	 OFFSET ??_C@_0N@OIGBCPLB@BCDropSkill2?$AA@
  01dec	68 00 00 00 00	 push	 OFFSET ??_C@_0M@EAAIBIKA@BloodCastle?$AA@
  01df1	89 86 8c 07 00
	00		 mov	 DWORD PTR [esi+1932], eax
  01df7	ff d7		 call	 edi

; 695  : 		this->Event.Zt_BCDropLuck_DRYNEA[2]	= GetPrivateProfileInt("BloodCastle","BCDropLuck2",0,Events_DIR);

  01df9	68 00 00 00 00	 push	 OFFSET ??_C@_0BK@GDGHCGII@?4?4?2Data?2ZtData?2Events?4ini?$AA@
  01dfe	6a 00		 push	 0
  01e00	89 86 ac 07 00
	00		 mov	 DWORD PTR [esi+1964], eax
  01e06	68 00 00 00 00	 push	 OFFSET ??_C@_0M@HCLGMMFB@BCDropLuck2?$AA@
  01e0b	68 00 00 00 00	 push	 OFFSET ??_C@_0M@EAAIBIKA@BloodCastle?$AA@
  01e10	ff d7		 call	 edi

; 696  : 		this->Event.Zt_BCDropOpt_DRYNEA[2]	= GetPrivateProfileInt("BloodCastle","BCDropOpt2",0,Events_DIR);

  01e12	68 00 00 00 00	 push	 OFFSET ??_C@_0BK@GDGHCGII@?4?4?2Data?2ZtData?2Events?4ini?$AA@
  01e17	6a 00		 push	 0
  01e19	68 00 00 00 00	 push	 OFFSET ??_C@_0L@HLBCFMEM@BCDropOpt2?$AA@
  01e1e	68 00 00 00 00	 push	 OFFSET ??_C@_0M@EAAIBIKA@BloodCastle?$AA@
  01e23	89 86 cc 07 00
	00		 mov	 DWORD PTR [esi+1996], eax
  01e29	ff d7		 call	 edi

; 697  : 		this->Event.Zt_BCDropExcOpt_DRYNEA[2]	= GetPrivateProfileInt("BloodCastle","BCDropExcOpt2",0,Events_DIR);

  01e2b	68 00 00 00 00	 push	 OFFSET ??_C@_0BK@GDGHCGII@?4?4?2Data?2ZtData?2Events?4ini?$AA@
  01e30	6a 00		 push	 0
  01e32	68 00 00 00 00	 push	 OFFSET ??_C@_0O@PEDOGHFM@BCDropExcOpt2?$AA@
  01e37	68 00 00 00 00	 push	 OFFSET ??_C@_0M@EAAIBIKA@BloodCastle?$AA@
  01e3c	89 86 ec 07 00
	00		 mov	 DWORD PTR [esi+2028], eax
  01e42	ff d7		 call	 edi

; 698  : 		this->Event.Zt_BCDropAncOpt_DRYNEA[2]	= GetPrivateProfileInt("BloodCastle","BCDropAncOpt2",0,Events_DIR);

  01e44	68 00 00 00 00	 push	 OFFSET ??_C@_0BK@GDGHCGII@?4?4?2Data?2ZtData?2Events?4ini?$AA@
  01e49	6a 00		 push	 0
  01e4b	68 00 00 00 00	 push	 OFFSET ??_C@_0O@HEHKMAFC@BCDropAncOpt2?$AA@
  01e50	68 00 00 00 00	 push	 OFFSET ??_C@_0M@EAAIBIKA@BloodCastle?$AA@
  01e55	89 86 0c 08 00
	00		 mov	 DWORD PTR [esi+2060], eax
  01e5b	ff d7		 call	 edi

; 699  : 		this->Event.BCAllowPKPlayer_DRYNEA[2]	= GetPrivateProfileInt("BloodCastle","BCAllowPKPlayer2",0,Events_DIR);

  01e5d	68 00 00 00 00	 push	 OFFSET ??_C@_0BK@GDGHCGII@?4?4?2Data?2ZtData?2Events?4ini?$AA@
  01e62	6a 00		 push	 0
  01e64	68 00 00 00 00	 push	 OFFSET ??_C@_0BB@JBGKPLO@BCAllowPKPlayer2?$AA@
  01e69	68 00 00 00 00	 push	 OFFSET ??_C@_0M@EAAIBIKA@BloodCastle?$AA@
  01e6e	89 86 2c 08 00
	00		 mov	 DWORD PTR [esi+2092], eax
  01e74	ff d7		 call	 edi

; 700  : 
; 701  : 		this->Event.Zt_BCDropType_DRYNEA[3]	= GetPrivateProfileInt("BloodCastle","BCDropType3",12,Events_DIR);

  01e76	68 00 00 00 00	 push	 OFFSET ??_C@_0BK@GDGHCGII@?4?4?2Data?2ZtData?2Events?4ini?$AA@
  01e7b	6a 0c		 push	 12			; 0000000cH
  01e7d	68 00 00 00 00	 push	 OFFSET ??_C@_0M@JOKEFJM@BCDropType3?$AA@
  01e82	68 00 00 00 00	 push	 OFFSET ??_C@_0M@EAAIBIKA@BloodCastle?$AA@
  01e87	89 86 4c 08 00
	00		 mov	 DWORD PTR [esi+2124], eax
  01e8d	ff d7		 call	 edi

; 702  : 		this->Event.Zt_BCDropID_DRYNEA[3]		= GetPrivateProfileInt("BloodCastle","BCDropID3",15,Events_DIR);

  01e8f	68 00 00 00 00	 push	 OFFSET ??_C@_0BK@GDGHCGII@?4?4?2Data?2ZtData?2Events?4ini?$AA@
  01e94	6a 0f		 push	 15			; 0000000fH
  01e96	68 00 00 00 00	 push	 OFFSET ??_C@_09NCJBHIBI@BCDropID3?$AA@
  01e9b	68 00 00 00 00	 push	 OFFSET ??_C@_0M@EAAIBIKA@BloodCastle?$AA@
  01ea0	89 86 50 07 00
	00		 mov	 DWORD PTR [esi+1872], eax
  01ea6	ff d7		 call	 edi

; 703  : 		this->Event.Zt_BCDropLevel_DRYNEA[3]	= GetPrivateProfileInt("BloodCastle","BCDropLevel3",0,Events_DIR);

  01ea8	68 00 00 00 00	 push	 OFFSET ??_C@_0BK@GDGHCGII@?4?4?2Data?2ZtData?2Events?4ini?$AA@
  01ead	6a 00		 push	 0
  01eaf	68 00 00 00 00	 push	 OFFSET ??_C@_0N@MFFONMHO@BCDropLevel3?$AA@
  01eb4	68 00 00 00 00	 push	 OFFSET ??_C@_0M@EAAIBIKA@BloodCastle?$AA@
  01eb9	89 86 70 07 00
	00		 mov	 DWORD PTR [esi+1904], eax
  01ebf	ff d7		 call	 edi

; 704  : 		this->Event.Zt_BCDropSkill_DRYNEA[3]	= GetPrivateProfileInt("BloodCastle","BCDropSkill3",0,Events_DIR);

  01ec1	68 00 00 00 00	 push	 OFFSET ??_C@_0BK@GDGHCGII@?4?4?2Data?2ZtData?2Events?4ini?$AA@
  01ec6	6a 00		 push	 0
  01ec8	68 00 00 00 00	 push	 OFFSET ??_C@_0N@PBHKBOPA@BCDropSkill3?$AA@
  01ecd	68 00 00 00 00	 push	 OFFSET ??_C@_0M@EAAIBIKA@BloodCastle?$AA@
  01ed2	89 86 90 07 00
	00		 mov	 DWORD PTR [esi+1936], eax
  01ed8	ff d7		 call	 edi

; 705  : 		this->Event.Zt_BCDropLuck_DRYNEA[3]	= GetPrivateProfileInt("BloodCastle","BCDropLuck3",0,Events_DIR);

  01eda	68 00 00 00 00	 push	 OFFSET ??_C@_0BK@GDGHCGII@?4?4?2Data?2ZtData?2Events?4ini?$AA@
  01edf	6a 00		 push	 0
  01ee1	68 00 00 00 00	 push	 OFFSET ??_C@_0M@GLKNPNBA@BCDropLuck3?$AA@
  01ee6	68 00 00 00 00	 push	 OFFSET ??_C@_0M@EAAIBIKA@BloodCastle?$AA@
  01eeb	89 86 b0 07 00
	00		 mov	 DWORD PTR [esi+1968], eax
  01ef1	ff d7		 call	 edi

; 706  : 		this->Event.Zt_BCDropOpt_DRYNEA[3]	= GetPrivateProfileInt("BloodCastle","BCDropOpt3",0,Events_DIR);

  01ef3	68 00 00 00 00	 push	 OFFSET ??_C@_0BK@GDGHCGII@?4?4?2Data?2ZtData?2Events?4ini?$AA@
  01ef8	6a 00		 push	 0
  01efa	68 00 00 00 00	 push	 OFFSET ??_C@_0L@GCAJGNAN@BCDropOpt3?$AA@
  01eff	68 00 00 00 00	 push	 OFFSET ??_C@_0M@EAAIBIKA@BloodCastle?$AA@
  01f04	89 86 d0 07 00
	00		 mov	 DWORD PTR [esi+2000], eax
  01f0a	ff d7		 call	 edi

; 707  : 		this->Event.Zt_BCDropExcOpt_DRYNEA[3]	= GetPrivateProfileInt("BloodCastle","BCDropExcOpt3",0,Events_DIR);

  01f0c	68 00 00 00 00	 push	 OFFSET ??_C@_0BK@GDGHCGII@?4?4?2Data?2ZtData?2Events?4ini?$AA@
  01f11	6a 00		 push	 0
  01f13	68 00 00 00 00	 push	 OFFSET ??_C@_0O@ONCFFGBN@BCDropExcOpt3?$AA@
  01f18	68 00 00 00 00	 push	 OFFSET ??_C@_0M@EAAIBIKA@BloodCastle?$AA@
  01f1d	89 86 f0 07 00
	00		 mov	 DWORD PTR [esi+2032], eax
  01f23	ff d7		 call	 edi

; 708  : 		this->Event.Zt_BCDropAncOpt_DRYNEA[3]	= GetPrivateProfileInt("BloodCastle","BCDropAncOpt3",0,Events_DIR);

  01f25	68 00 00 00 00	 push	 OFFSET ??_C@_0BK@GDGHCGII@?4?4?2Data?2ZtData?2Events?4ini?$AA@
  01f2a	6a 00		 push	 0
  01f2c	68 00 00 00 00	 push	 OFFSET ??_C@_0O@GNGBPBBD@BCDropAncOpt3?$AA@
  01f31	68 00 00 00 00	 push	 OFFSET ??_C@_0M@EAAIBIKA@BloodCastle?$AA@
  01f36	89 86 10 08 00
	00		 mov	 DWORD PTR [esi+2064], eax
  01f3c	ff d7		 call	 edi

; 709  : 		this->Event.BCAllowPKPlayer_DRYNEA[3]	= GetPrivateProfileInt("BloodCastle","BCAllowPKPlayer3",0,Events_DIR);

  01f3e	68 00 00 00 00	 push	 OFFSET ??_C@_0BK@GDGHCGII@?4?4?2Data?2ZtData?2Events?4ini?$AA@
  01f43	6a 00		 push	 0
  01f45	68 00 00 00 00	 push	 OFFSET ??_C@_0BB@BAANJOPP@BCAllowPKPlayer3?$AA@
  01f4a	68 00 00 00 00	 push	 OFFSET ??_C@_0M@EAAIBIKA@BloodCastle?$AA@
  01f4f	89 86 30 08 00
	00		 mov	 DWORD PTR [esi+2096], eax
  01f55	ff d7		 call	 edi
  01f57	89 86 50 08 00
	00		 mov	 DWORD PTR [esi+2128], eax

; 710  : 
; 711  : 		this->Event.Zt_BCDropType_DRYNEA[4]	= GetPrivateProfileInt("BloodCastle","BCDropType4",12,Events_DIR);

  01f5d	68 00 00 00 00	 push	 OFFSET ??_C@_0BK@GDGHCGII@?4?4?2Data?2ZtData?2Events?4ini?$AA@
  01f62	6a 0c		 push	 12			; 0000000cH
  01f64	68 00 00 00 00	 push	 OFFSET ??_C@_0M@EGKLNDFL@BCDropType4?$AA@
  01f69	68 00 00 00 00	 push	 OFFSET ??_C@_0M@EAAIBIKA@BloodCastle?$AA@
  01f6e	ff d7		 call	 edi

; 712  : 		this->Event.Zt_BCDropID_DRYNEA[4]		= GetPrivateProfileInt("BloodCastle","BCDropID4",15,Events_DIR);

  01f70	68 00 00 00 00	 push	 OFFSET ??_C@_0BK@GDGHCGII@?4?4?2Data?2ZtData?2Events?4ini?$AA@
  01f75	6a 0f		 push	 15			; 0000000fH
  01f77	68 00 00 00 00	 push	 OFFSET ??_C@_09JNNAOONP@BCDropID4?$AA@
  01f7c	68 00 00 00 00	 push	 OFFSET ??_C@_0M@EAAIBIKA@BloodCastle?$AA@
  01f81	89 86 54 07 00
	00		 mov	 DWORD PTR [esi+1876], eax
  01f87	ff d7		 call	 edi

; 713  : 		this->Event.Zt_BCDropLevel_DRYNEA[4]	= GetPrivateProfileInt("BloodCastle","BCDropLevel4",0,Events_DIR);

  01f89	68 00 00 00 00	 push	 OFFSET ??_C@_0BK@GDGHCGII@?4?4?2Data?2ZtData?2Events?4ini?$AA@
  01f8e	6a 00		 push	 0
  01f90	68 00 00 00 00	 push	 OFFSET ??_C@_0N@IKBPEKLJ@BCDropLevel4?$AA@
  01f95	68 00 00 00 00	 push	 OFFSET ??_C@_0M@EAAIBIKA@BloodCastle?$AA@
  01f9a	89 86 74 07 00
	00		 mov	 DWORD PTR [esi+1908], eax
  01fa0	ff d7		 call	 edi

; 714  : 		this->Event.Zt_BCDropSkill_DRYNEA[4]	= GetPrivateProfileInt("BloodCastle","BCDropSkill4",0,Events_DIR);

  01fa2	68 00 00 00 00	 push	 OFFSET ??_C@_0BK@GDGHCGII@?4?4?2Data?2ZtData?2Events?4ini?$AA@
  01fa7	6a 00		 push	 0
  01fa9	68 00 00 00 00	 push	 OFFSET ??_C@_0N@LODLIIDH@BCDropSkill4?$AA@
  01fae	68 00 00 00 00	 push	 OFFSET ??_C@_0M@EAAIBIKA@BloodCastle?$AA@
  01fb3	89 86 94 07 00
	00		 mov	 DWORD PTR [esi+1940], eax
  01fb9	ff d7		 call	 edi

; 715  : 		this->Event.Zt_BCDropLuck_DRYNEA[4]	= GetPrivateProfileInt("BloodCastle","BCDropLuck4",0,Events_DIR);

  01fbb	68 00 00 00 00	 push	 OFFSET ??_C@_0BK@GDGHCGII@?4?4?2Data?2ZtData?2Events?4ini?$AA@
  01fc0	6a 00		 push	 0
  01fc2	68 00 00 00 00	 push	 OFFSET ??_C@_0M@CEOMGLNH@BCDropLuck4?$AA@
  01fc7	68 00 00 00 00	 push	 OFFSET ??_C@_0M@EAAIBIKA@BloodCastle?$AA@
  01fcc	89 86 b4 07 00
	00		 mov	 DWORD PTR [esi+1972], eax
  01fd2	ff d7		 call	 edi

; 716  : 		this->Event.Zt_BCDropOpt_DRYNEA[4]	= GetPrivateProfileInt("BloodCastle","BCDropOpt4",0,Events_DIR);

  01fd4	68 00 00 00 00	 push	 OFFSET ??_C@_0BK@GDGHCGII@?4?4?2Data?2ZtData?2Events?4ini?$AA@
  01fd9	6a 00		 push	 0
  01fdb	68 00 00 00 00	 push	 OFFSET ??_C@_0L@CNEIPLMK@BCDropOpt4?$AA@
  01fe0	68 00 00 00 00	 push	 OFFSET ??_C@_0M@EAAIBIKA@BloodCastle?$AA@
  01fe5	89 86 d4 07 00
	00		 mov	 DWORD PTR [esi+2004], eax
  01feb	ff d7		 call	 edi

; 717  : 		this->Event.Zt_BCDropExcOpt_DRYNEA[4]	= GetPrivateProfileInt("BloodCastle","BCDropExcOpt4",0,Events_DIR);

  01fed	68 00 00 00 00	 push	 OFFSET ??_C@_0BK@GDGHCGII@?4?4?2Data?2ZtData?2Events?4ini?$AA@
  01ff2	6a 00		 push	 0
  01ff4	68 00 00 00 00	 push	 OFFSET ??_C@_0O@KCGEMANK@BCDropExcOpt4?$AA@
  01ff9	68 00 00 00 00	 push	 OFFSET ??_C@_0M@EAAIBIKA@BloodCastle?$AA@
  01ffe	89 86 f4 07 00
	00		 mov	 DWORD PTR [esi+2036], eax
  02004	ff d7		 call	 edi

; 718  : 		this->Event.Zt_BCDropAncOpt_DRYNEA[4]	= GetPrivateProfileInt("BloodCastle","BCDropAncOpt4",0,Events_DIR);

  02006	68 00 00 00 00	 push	 OFFSET ??_C@_0BK@GDGHCGII@?4?4?2Data?2ZtData?2Events?4ini?$AA@
  0200b	6a 00		 push	 0
  0200d	68 00 00 00 00	 push	 OFFSET ??_C@_0O@CCCAGHNE@BCDropAncOpt4?$AA@
  02012	68 00 00 00 00	 push	 OFFSET ??_C@_0M@EAAIBIKA@BloodCastle?$AA@
  02017	89 86 14 08 00
	00		 mov	 DWORD PTR [esi+2068], eax
  0201d	ff d7		 call	 edi

; 719  : 		this->Event.BCAllowPKPlayer_DRYNEA[4]	= GetPrivateProfileInt("BloodCastle","BCAllowPKPlayer4",0,Events_DIR);

  0201f	68 00 00 00 00	 push	 OFFSET ??_C@_0BK@GDGHCGII@?4?4?2Data?2ZtData?2Events?4ini?$AA@
  02024	6a 00		 push	 0
  02026	68 00 00 00 00	 push	 OFFSET ??_C@_0BB@FPEMAIDI@BCAllowPKPlayer4?$AA@
  0202b	68 00 00 00 00	 push	 OFFSET ??_C@_0M@EAAIBIKA@BloodCastle?$AA@
  02030	89 86 34 08 00
	00		 mov	 DWORD PTR [esi+2100], eax
  02036	ff d7		 call	 edi

; 720  : 
; 721  : 		this->Event.Zt_BCDropType_DRYNEA[5]	= GetPrivateProfileInt("BloodCastle","BCDropType5",12,Events_DIR);

  02038	68 00 00 00 00	 push	 OFFSET ??_C@_0BK@GDGHCGII@?4?4?2Data?2ZtData?2Events?4ini?$AA@
  0203d	6a 0c		 push	 12			; 0000000cH
  0203f	68 00 00 00 00	 push	 OFFSET ??_C@_0M@FPLAOCBK@BCDropType5?$AA@
  02044	68 00 00 00 00	 push	 OFFSET ??_C@_0M@EAAIBIKA@BloodCastle?$AA@
  02049	89 86 54 08 00
	00		 mov	 DWORD PTR [esi+2132], eax
  0204f	ff d7		 call	 edi

; 722  : 		this->Event.Zt_BCDropID_DRYNEA[5]		= GetPrivateProfileInt("BloodCastle","BCDropID5",15,Events_DIR);

  02051	68 00 00 00 00	 push	 OFFSET ??_C@_0BK@GDGHCGII@?4?4?2Data?2ZtData?2Events?4ini?$AA@
  02056	6a 0f		 push	 15			; 0000000fH
  02058	68 00 00 00 00	 push	 OFFSET ??_C@_09IEMLNPJO@BCDropID5?$AA@
  0205d	68 00 00 00 00	 push	 OFFSET ??_C@_0M@EAAIBIKA@BloodCastle?$AA@
  02062	89 86 58 07 00
	00		 mov	 DWORD PTR [esi+1880], eax
  02068	ff d7		 call	 edi

; 723  : 		this->Event.Zt_BCDropLevel_DRYNEA[5]	= GetPrivateProfileInt("BloodCastle","BCDropLevel5",0,Events_DIR);

  0206a	68 00 00 00 00	 push	 OFFSET ??_C@_0BK@GDGHCGII@?4?4?2Data?2ZtData?2Events?4ini?$AA@
  0206f	6a 00		 push	 0
  02071	68 00 00 00 00	 push	 OFFSET ??_C@_0N@JDAEHLPI@BCDropLevel5?$AA@
  02076	68 00 00 00 00	 push	 OFFSET ??_C@_0M@EAAIBIKA@BloodCastle?$AA@
  0207b	89 86 78 07 00
	00		 mov	 DWORD PTR [esi+1912], eax
  02081	ff d7		 call	 edi

; 724  : 		this->Event.Zt_BCDropSkill_DRYNEA[5]	= GetPrivateProfileInt("BloodCastle","BCDropSkill5",0,Events_DIR);

  02083	68 00 00 00 00	 push	 OFFSET ??_C@_0BK@GDGHCGII@?4?4?2Data?2ZtData?2Events?4ini?$AA@
  02088	6a 00		 push	 0
  0208a	68 00 00 00 00	 push	 OFFSET ??_C@_0N@KHCALJHG@BCDropSkill5?$AA@
  0208f	68 00 00 00 00	 push	 OFFSET ??_C@_0M@EAAIBIKA@BloodCastle?$AA@
  02094	89 86 98 07 00
	00		 mov	 DWORD PTR [esi+1944], eax
  0209a	ff d7		 call	 edi

; 725  : 		this->Event.Zt_BCDropLuck_DRYNEA[5]	= GetPrivateProfileInt("BloodCastle","BCDropLuck5",0,Events_DIR);

  0209c	68 00 00 00 00	 push	 OFFSET ??_C@_0BK@GDGHCGII@?4?4?2Data?2ZtData?2Events?4ini?$AA@
  020a1	6a 00		 push	 0
  020a3	89 86 b8 07 00
	00		 mov	 DWORD PTR [esi+1976], eax
  020a9	68 00 00 00 00	 push	 OFFSET ??_C@_0M@DNPHFKJG@BCDropLuck5?$AA@
  020ae	68 00 00 00 00	 push	 OFFSET ??_C@_0M@EAAIBIKA@BloodCastle?$AA@
  020b3	ff d7		 call	 edi

; 726  : 		this->Event.Zt_BCDropOpt_DRYNEA[5]	= GetPrivateProfileInt("BloodCastle","BCDropOpt5",0,Events_DIR);

  020b5	68 00 00 00 00	 push	 OFFSET ??_C@_0BK@GDGHCGII@?4?4?2Data?2ZtData?2Events?4ini?$AA@
  020ba	6a 00		 push	 0
  020bc	68 00 00 00 00	 push	 OFFSET ??_C@_0L@DEFDMKIL@BCDropOpt5?$AA@
  020c1	68 00 00 00 00	 push	 OFFSET ??_C@_0M@EAAIBIKA@BloodCastle?$AA@
  020c6	89 86 d8 07 00
	00		 mov	 DWORD PTR [esi+2008], eax
  020cc	ff d7		 call	 edi

; 727  : 		this->Event.Zt_BCDropExcOpt_DRYNEA[5]	= GetPrivateProfileInt("BloodCastle","BCDropExcOpt5",0,Events_DIR);

  020ce	68 00 00 00 00	 push	 OFFSET ??_C@_0BK@GDGHCGII@?4?4?2Data?2ZtData?2Events?4ini?$AA@
  020d3	6a 00		 push	 0
  020d5	68 00 00 00 00	 push	 OFFSET ??_C@_0O@LLHPPBJL@BCDropExcOpt5?$AA@
  020da	68 00 00 00 00	 push	 OFFSET ??_C@_0M@EAAIBIKA@BloodCastle?$AA@
  020df	89 86 f8 07 00
	00		 mov	 DWORD PTR [esi+2040], eax
  020e5	ff d7		 call	 edi

; 728  : 		this->Event.Zt_BCDropAncOpt_DRYNEA[5]	= GetPrivateProfileInt("BloodCastle","BCDropAncOpt5",0,Events_DIR);

  020e7	68 00 00 00 00	 push	 OFFSET ??_C@_0BK@GDGHCGII@?4?4?2Data?2ZtData?2Events?4ini?$AA@
  020ec	6a 00		 push	 0
  020ee	68 00 00 00 00	 push	 OFFSET ??_C@_0O@DLDLFGJF@BCDropAncOpt5?$AA@
  020f3	68 00 00 00 00	 push	 OFFSET ??_C@_0M@EAAIBIKA@BloodCastle?$AA@
  020f8	89 86 18 08 00
	00		 mov	 DWORD PTR [esi+2072], eax
  020fe	ff d7		 call	 edi

; 729  : 		this->Event.BCAllowPKPlayer_DRYNEA[5]	= GetPrivateProfileInt("BloodCastle","BCAllowPKPlayer5",0,Events_DIR);

  02100	68 00 00 00 00	 push	 OFFSET ??_C@_0BK@GDGHCGII@?4?4?2Data?2ZtData?2Events?4ini?$AA@
  02105	6a 00		 push	 0
  02107	68 00 00 00 00	 push	 OFFSET ??_C@_0BB@EGFHDJHJ@BCAllowPKPlayer5?$AA@
  0210c	68 00 00 00 00	 push	 OFFSET ??_C@_0M@EAAIBIKA@BloodCastle?$AA@
  02111	89 86 38 08 00
	00		 mov	 DWORD PTR [esi+2104], eax
  02117	ff d7		 call	 edi

; 730  : 
; 731  : 		this->Event.Zt_BCDropType_DRYNEA[6]	= GetPrivateProfileInt("BloodCastle","BCDropType6",12,Events_DIR);

  02119	68 00 00 00 00	 push	 OFFSET ??_C@_0BK@GDGHCGII@?4?4?2Data?2ZtData?2Events?4ini?$AA@
  0211e	6a 0c		 push	 12			; 0000000cH
  02120	68 00 00 00 00	 push	 OFFSET ??_C@_0M@HEJNLBNJ@BCDropType6?$AA@
  02125	68 00 00 00 00	 push	 OFFSET ??_C@_0M@EAAIBIKA@BloodCastle?$AA@
  0212a	89 86 58 08 00
	00		 mov	 DWORD PTR [esi+2136], eax
  02130	ff d7		 call	 edi

; 732  : 		this->Event.Zt_BCDropID_DRYNEA[6]		= GetPrivateProfileInt("BloodCastle","BCDropID6",15,Events_DIR);

  02132	68 00 00 00 00	 push	 OFFSET ??_C@_0BK@GDGHCGII@?4?4?2Data?2ZtData?2Events?4ini?$AA@
  02137	6a 0f		 push	 15			; 0000000fH
  02139	68 00 00 00 00	 push	 OFFSET ??_C@_09KPOGIMFN@BCDropID6?$AA@
  0213e	68 00 00 00 00	 push	 OFFSET ??_C@_0M@EAAIBIKA@BloodCastle?$AA@
  02143	89 86 5c 07 00
	00		 mov	 DWORD PTR [esi+1884], eax
  02149	ff d7		 call	 edi

; 733  : 		this->Event.Zt_BCDropLevel_DRYNEA[6]	= GetPrivateProfileInt("BloodCastle","BCDropLevel6",0,Events_DIR);

  0214b	68 00 00 00 00	 push	 OFFSET ??_C@_0BK@GDGHCGII@?4?4?2Data?2ZtData?2Events?4ini?$AA@
  02150	6a 00		 push	 0
  02152	68 00 00 00 00	 push	 OFFSET ??_C@_0N@LICJCIDL@BCDropLevel6?$AA@
  02157	68 00 00 00 00	 push	 OFFSET ??_C@_0M@EAAIBIKA@BloodCastle?$AA@
  0215c	89 86 7c 07 00
	00		 mov	 DWORD PTR [esi+1916], eax
  02162	ff d7		 call	 edi

; 734  : 		this->Event.Zt_BCDropSkill_DRYNEA[6]	= GetPrivateProfileInt("BloodCastle","BCDropSkill6",0,Events_DIR);

  02164	68 00 00 00 00	 push	 OFFSET ??_C@_0BK@GDGHCGII@?4?4?2Data?2ZtData?2Events?4ini?$AA@
  02169	6a 00		 push	 0
  0216b	68 00 00 00 00	 push	 OFFSET ??_C@_0N@IMANOKLF@BCDropSkill6?$AA@
  02170	68 00 00 00 00	 push	 OFFSET ??_C@_0M@EAAIBIKA@BloodCastle?$AA@
  02175	89 86 9c 07 00
	00		 mov	 DWORD PTR [esi+1948], eax
  0217b	ff d7		 call	 edi

; 735  : 		this->Event.Zt_BCDropLuck_DRYNEA[6]	= GetPrivateProfileInt("BloodCastle","BCDropLuck6",0,Events_DIR);

  0217d	68 00 00 00 00	 push	 OFFSET ??_C@_0BK@GDGHCGII@?4?4?2Data?2ZtData?2Events?4ini?$AA@
  02182	6a 00		 push	 0
  02184	68 00 00 00 00	 push	 OFFSET ??_C@_0M@BGNKAJFF@BCDropLuck6?$AA@
  02189	68 00 00 00 00	 push	 OFFSET ??_C@_0M@EAAIBIKA@BloodCastle?$AA@
  0218e	89 86 bc 07 00
	00		 mov	 DWORD PTR [esi+1980], eax
  02194	ff d7		 call	 edi

; 736  : 		this->Event.Zt_BCDropOpt_DRYNEA[6]	= GetPrivateProfileInt("BloodCastle","BCDropOpt6",0,Events_DIR);

  02196	68 00 00 00 00	 push	 OFFSET ??_C@_0BK@GDGHCGII@?4?4?2Data?2ZtData?2Events?4ini?$AA@
  0219b	6a 00		 push	 0
  0219d	68 00 00 00 00	 push	 OFFSET ??_C@_0L@BPHOJJEI@BCDropOpt6?$AA@
  021a2	68 00 00 00 00	 push	 OFFSET ??_C@_0M@EAAIBIKA@BloodCastle?$AA@
  021a7	89 86 dc 07 00
	00		 mov	 DWORD PTR [esi+2012], eax
  021ad	ff d7		 call	 edi

; 737  : 		this->Event.Zt_BCDropExcOpt_DRYNEA[6]	= GetPrivateProfileInt("BloodCastle","BCDropExcOpt6",0,Events_DIR);

  021af	68 00 00 00 00	 push	 OFFSET ??_C@_0BK@GDGHCGII@?4?4?2Data?2ZtData?2Events?4ini?$AA@
  021b4	6a 00		 push	 0
  021b6	68 00 00 00 00	 push	 OFFSET ??_C@_0O@JAFCKCFI@BCDropExcOpt6?$AA@
  021bb	68 00 00 00 00	 push	 OFFSET ??_C@_0M@EAAIBIKA@BloodCastle?$AA@
  021c0	89 86 fc 07 00
	00		 mov	 DWORD PTR [esi+2044], eax
  021c6	ff d7		 call	 edi

; 738  : 		this->Event.Zt_BCDropAncOpt_DRYNEA[6]	= GetPrivateProfileInt("BloodCastle","BCDropAncOpt6",0,Events_DIR);

  021c8	68 00 00 00 00	 push	 OFFSET ??_C@_0BK@GDGHCGII@?4?4?2Data?2ZtData?2Events?4ini?$AA@
  021cd	6a 00		 push	 0
  021cf	68 00 00 00 00	 push	 OFFSET ??_C@_0O@BABGAFFG@BCDropAncOpt6?$AA@
  021d4	68 00 00 00 00	 push	 OFFSET ??_C@_0M@EAAIBIKA@BloodCastle?$AA@
  021d9	89 86 1c 08 00
	00		 mov	 DWORD PTR [esi+2076], eax
  021df	ff d7		 call	 edi

; 739  : 		this->Event.BCAllowPKPlayer_DRYNEA[6]	= GetPrivateProfileInt("BloodCastle","BCAllowPKPlayer6",0,Events_DIR);

  021e1	68 00 00 00 00	 push	 OFFSET ??_C@_0BK@GDGHCGII@?4?4?2Data?2ZtData?2Events?4ini?$AA@
  021e6	6a 00		 push	 0
  021e8	68 00 00 00 00	 push	 OFFSET ??_C@_0BB@GNHKGKLK@BCAllowPKPlayer6?$AA@
  021ed	68 00 00 00 00	 push	 OFFSET ??_C@_0M@EAAIBIKA@BloodCastle?$AA@
  021f2	89 86 3c 08 00
	00		 mov	 DWORD PTR [esi+2108], eax
  021f8	ff d7		 call	 edi
  021fa	89 86 5c 08 00
	00		 mov	 DWORD PTR [esi+2140], eax

; 740  : 
; 741  : 		this->Event.Zt_BCDropType_DRYNEA[7]	= GetPrivateProfileInt("BloodCastle","BCDropType7",12,Events_DIR);

  02200	68 00 00 00 00	 push	 OFFSET ??_C@_0BK@GDGHCGII@?4?4?2Data?2ZtData?2Events?4ini?$AA@
  02205	6a 0c		 push	 12			; 0000000cH
  02207	68 00 00 00 00	 push	 OFFSET ??_C@_0M@GNIGIAJI@BCDropType7?$AA@
  0220c	68 00 00 00 00	 push	 OFFSET ??_C@_0M@EAAIBIKA@BloodCastle?$AA@
  02211	ff d7		 call	 edi

; 742  : 		this->Event.Zt_BCDropID_DRYNEA[7]		= GetPrivateProfileInt("BloodCastle","BCDropID7",15,Events_DIR);

  02213	68 00 00 00 00	 push	 OFFSET ??_C@_0BK@GDGHCGII@?4?4?2Data?2ZtData?2Events?4ini?$AA@
  02218	6a 0f		 push	 15			; 0000000fH
  0221a	68 00 00 00 00	 push	 OFFSET ??_C@_09LGPNLNBM@BCDropID7?$AA@
  0221f	68 00 00 00 00	 push	 OFFSET ??_C@_0M@EAAIBIKA@BloodCastle?$AA@
  02224	89 86 60 07 00
	00		 mov	 DWORD PTR [esi+1888], eax
  0222a	ff d7		 call	 edi

; 743  : 		this->Event.Zt_BCDropLevel_DRYNEA[7]	= GetPrivateProfileInt("BloodCastle","BCDropLevel7",0,Events_DIR);

  0222c	68 00 00 00 00	 push	 OFFSET ??_C@_0BK@GDGHCGII@?4?4?2Data?2ZtData?2Events?4ini?$AA@
  02231	6a 00		 push	 0
  02233	68 00 00 00 00	 push	 OFFSET ??_C@_0N@KBDCBJHK@BCDropLevel7?$AA@
  02238	68 00 00 00 00	 push	 OFFSET ??_C@_0M@EAAIBIKA@BloodCastle?$AA@
  0223d	89 86 80 07 00
	00		 mov	 DWORD PTR [esi+1920], eax
  02243	ff d7		 call	 edi

; 744  : 		this->Event.Zt_BCDropSkill_DRYNEA[7]	= GetPrivateProfileInt("BloodCastle","BCDropSkill7",0,Events_DIR);

  02245	68 00 00 00 00	 push	 OFFSET ??_C@_0BK@GDGHCGII@?4?4?2Data?2ZtData?2Events?4ini?$AA@
  0224a	6a 00		 push	 0
  0224c	68 00 00 00 00	 push	 OFFSET ??_C@_0N@JFBGNLPE@BCDropSkill7?$AA@
  02251	68 00 00 00 00	 push	 OFFSET ??_C@_0M@EAAIBIKA@BloodCastle?$AA@
  02256	89 86 a0 07 00
	00		 mov	 DWORD PTR [esi+1952], eax
  0225c	ff d7		 call	 edi

; 745  : 		this->Event.Zt_BCDropLuck_DRYNEA[7]	= GetPrivateProfileInt("BloodCastle","BCDropLuck7",0,Events_DIR);

  0225e	68 00 00 00 00	 push	 OFFSET ??_C@_0BK@GDGHCGII@?4?4?2Data?2ZtData?2Events?4ini?$AA@
  02263	6a 00		 push	 0
  02265	68 00 00 00 00	 push	 OFFSET ??_C@_0M@PMBDIBE@BCDropLuck7?$AA@
  0226a	68 00 00 00 00	 push	 OFFSET ??_C@_0M@EAAIBIKA@BloodCastle?$AA@
  0226f	89 86 c0 07 00
	00		 mov	 DWORD PTR [esi+1984], eax
  02275	ff d7		 call	 edi

; 746  : 		this->Event.Zt_BCDropOpt_DRYNEA[7]	= GetPrivateProfileInt("BloodCastle","BCDropOpt7",0,Events_DIR);

  02277	68 00 00 00 00	 push	 OFFSET ??_C@_0BK@GDGHCGII@?4?4?2Data?2ZtData?2Events?4ini?$AA@
  0227c	6a 00		 push	 0
  0227e	68 00 00 00 00	 push	 OFFSET ??_C@_0L@GGFKIAJ@BCDropOpt7?$AA@
  02283	68 00 00 00 00	 push	 OFFSET ??_C@_0M@EAAIBIKA@BloodCastle?$AA@
  02288	89 86 e0 07 00
	00		 mov	 DWORD PTR [esi+2016], eax
  0228e	ff d7		 call	 edi

; 747  : 		this->Event.Zt_BCDropExcOpt_DRYNEA[7]	= GetPrivateProfileInt("BloodCastle","BCDropExcOpt7",0,Events_DIR);

  02290	68 00 00 00 00	 push	 OFFSET ??_C@_0BK@GDGHCGII@?4?4?2Data?2ZtData?2Events?4ini?$AA@
  02295	6a 00		 push	 0
  02297	68 00 00 00 00	 push	 OFFSET ??_C@_0O@IJEJJDBJ@BCDropExcOpt7?$AA@
  0229c	68 00 00 00 00	 push	 OFFSET ??_C@_0M@EAAIBIKA@BloodCastle?$AA@
  022a1	89 86 00 08 00
	00		 mov	 DWORD PTR [esi+2048], eax
  022a7	ff d7		 call	 edi

; 748  : 		this->Event.Zt_BCDropAncOpt_DRYNEA[7]	= GetPrivateProfileInt("BloodCastle","BCDropAncOpt7",0,Events_DIR);

  022a9	68 00 00 00 00	 push	 OFFSET ??_C@_0BK@GDGHCGII@?4?4?2Data?2ZtData?2Events?4ini?$AA@
  022ae	6a 00		 push	 0
  022b0	68 00 00 00 00	 push	 OFFSET ??_C@_0O@JANDEBH@BCDropAncOpt7?$AA@
  022b5	68 00 00 00 00	 push	 OFFSET ??_C@_0M@EAAIBIKA@BloodCastle?$AA@
  022ba	89 86 20 08 00
	00		 mov	 DWORD PTR [esi+2080], eax
  022c0	ff d7		 call	 edi

; 749  : 		this->Event.BCAllowPKPlayer_DRYNEA[7]	= GetPrivateProfileInt("BloodCastle","BCAllowPKPlayer7",0,Events_DIR);

  022c2	68 00 00 00 00	 push	 OFFSET ??_C@_0BK@GDGHCGII@?4?4?2Data?2ZtData?2Events?4ini?$AA@
  022c7	6a 00		 push	 0
  022c9	68 00 00 00 00	 push	 OFFSET ??_C@_0BB@HEGBFLPL@BCAllowPKPlayer7?$AA@
  022ce	68 00 00 00 00	 push	 OFFSET ??_C@_0M@EAAIBIKA@BloodCastle?$AA@
  022d3	89 86 40 08 00
	00		 mov	 DWORD PTR [esi+2112], eax
  022d9	ff d7		 call	 edi

; 750  : 
; 751  : 		this->Event.Zt_BCDropType_DRYNEA[8]	= GetPrivateProfileInt("BloodCastle","BCDropType8",12,Events_DIR);

  022db	68 00 00 00 00	 push	 OFFSET ??_C@_0BK@GDGHCGII@?4?4?2Data?2ZtData?2Events?4ini?$AA@
  022e0	6a 0c		 push	 12			; 0000000cH
  022e2	68 00 00 00 00	 push	 OFFSET ??_C@_0M@OKBOJMFH@BCDropType8?$AA@
  022e7	68 00 00 00 00	 push	 OFFSET ??_C@_0M@EAAIBIKA@BloodCastle?$AA@
  022ec	89 86 60 08 00
	00		 mov	 DWORD PTR [esi+2144], eax
  022f2	ff d7		 call	 edi

; 752  : 		this->Event.Zt_BCDropID_DRYNEA[8]		= GetPrivateProfileInt("BloodCastle","BCDropID8",15,Events_DIR);

  022f4	68 00 00 00 00	 push	 OFFSET ??_C@_0BK@GDGHCGII@?4?4?2Data?2ZtData?2Events?4ini?$AA@
  022f9	6a 0f		 push	 15			; 0000000fH
  022fb	68 00 00 00 00	 push	 OFFSET ??_C@_09DBGFKBND@BCDropID8?$AA@
  02300	68 00 00 00 00	 push	 OFFSET ??_C@_0M@EAAIBIKA@BloodCastle?$AA@
  02305	89 86 64 07 00
	00		 mov	 DWORD PTR [esi+1892], eax
  0230b	ff d7		 call	 edi

; 753  : 		this->Event.Zt_BCDropLevel_DRYNEA[8]	= GetPrivateProfileInt("BloodCastle","BCDropLevel8",0,Events_DIR);

  0230d	68 00 00 00 00	 push	 OFFSET ??_C@_0BK@GDGHCGII@?4?4?2Data?2ZtData?2Events?4ini?$AA@
  02312	6a 00		 push	 0
  02314	68 00 00 00 00	 push	 OFFSET ??_C@_0N@CGKKAFLF@BCDropLevel8?$AA@
  02319	68 00 00 00 00	 push	 OFFSET ??_C@_0M@EAAIBIKA@BloodCastle?$AA@
  0231e	89 86 84 07 00
	00		 mov	 DWORD PTR [esi+1924], eax
  02324	ff d7		 call	 edi

; 754  : 		this->Event.Zt_BCDropSkill_DRYNEA[8]	= GetPrivateProfileInt("BloodCastle","BCDropSkill8",0,Events_DIR);

  02326	68 00 00 00 00	 push	 OFFSET ??_C@_0BK@GDGHCGII@?4?4?2Data?2ZtData?2Events?4ini?$AA@
  0232b	6a 00		 push	 0
  0232d	68 00 00 00 00	 push	 OFFSET ??_C@_0N@BCIOMHDL@BCDropSkill8?$AA@
  02332	68 00 00 00 00	 push	 OFFSET ??_C@_0M@EAAIBIKA@BloodCastle?$AA@
  02337	89 86 a4 07 00
	00		 mov	 DWORD PTR [esi+1956], eax
  0233d	ff d7		 call	 edi

; 755  : 		this->Event.Zt_BCDropLuck_DRYNEA[8]	= GetPrivateProfileInt("BloodCastle","BCDropLuck8",0,Events_DIR);

  0233f	68 00 00 00 00	 push	 OFFSET ??_C@_0BK@GDGHCGII@?4?4?2Data?2ZtData?2Events?4ini?$AA@
  02344	6a 00		 push	 0
  02346	89 86 c4 07 00
	00		 mov	 DWORD PTR [esi+1988], eax
  0234c	68 00 00 00 00	 push	 OFFSET ??_C@_0M@IIFJCENL@BCDropLuck8?$AA@
  02351	68 00 00 00 00	 push	 OFFSET ??_C@_0M@EAAIBIKA@BloodCastle?$AA@
  02356	ff d7		 call	 edi

; 756  : 		this->Event.Zt_BCDropOpt_DRYNEA[8]	= GetPrivateProfileInt("BloodCastle","BCDropOpt8",0,Events_DIR);

  02358	68 00 00 00 00	 push	 OFFSET ??_C@_0BK@GDGHCGII@?4?4?2Data?2ZtData?2Events?4ini?$AA@
  0235d	6a 00		 push	 0
  0235f	68 00 00 00 00	 push	 OFFSET ??_C@_0L@IBPNLEMG@BCDropOpt8?$AA@
  02364	68 00 00 00 00	 push	 OFFSET ??_C@_0M@EAAIBIKA@BloodCastle?$AA@
  02369	89 86 e4 07 00
	00		 mov	 DWORD PTR [esi+2020], eax
  0236f	ff d7		 call	 edi

; 757  : 		this->Event.Zt_BCDropExcOpt_DRYNEA[8]	= GetPrivateProfileInt("BloodCastle","BCDropExcOpt8",0,Events_DIR);

  02371	68 00 00 00 00	 push	 OFFSET ??_C@_0BK@GDGHCGII@?4?4?2Data?2ZtData?2Events?4ini?$AA@
  02376	6a 00		 push	 0
  02378	68 00 00 00 00	 push	 OFFSET ??_C@_0O@ONBIPNG@BCDropExcOpt8?$AA@
  0237d	68 00 00 00 00	 push	 OFFSET ??_C@_0M@EAAIBIKA@BloodCastle?$AA@
  02382	89 86 04 08 00
	00		 mov	 DWORD PTR [esi+2052], eax
  02388	ff d7		 call	 edi

; 758  : 		this->Event.Zt_BCDropAncOpt_DRYNEA[8]	= GetPrivateProfileInt("BloodCastle","BCDropAncOpt8",0,Events_DIR);

  0238a	68 00 00 00 00	 push	 OFFSET ??_C@_0BK@GDGHCGII@?4?4?2Data?2ZtData?2Events?4ini?$AA@
  0238f	6a 00		 push	 0
  02391	68 00 00 00 00	 push	 OFFSET ??_C@_0O@IOJFCINI@BCDropAncOpt8?$AA@
  02396	68 00 00 00 00	 push	 OFFSET ??_C@_0M@EAAIBIKA@BloodCastle?$AA@
  0239b	89 86 24 08 00
	00		 mov	 DWORD PTR [esi+2084], eax
  023a1	ff d7		 call	 edi

; 759  : 		this->Event.BCAllowPKPlayer_DRYNEA[8]	= GetPrivateProfileInt("BloodCastle","BCAllowPKPlayer8",0,Events_DIR);

  023a3	68 00 00 00 00	 push	 OFFSET ??_C@_0BK@GDGHCGII@?4?4?2Data?2ZtData?2Events?4ini?$AA@
  023a8	6a 00		 push	 0
  023aa	68 00 00 00 00	 push	 OFFSET ??_C@_0BB@PDPJEHDE@BCAllowPKPlayer8?$AA@
  023af	68 00 00 00 00	 push	 OFFSET ??_C@_0M@EAAIBIKA@BloodCastle?$AA@
  023b4	89 86 44 08 00
	00		 mov	 DWORD PTR [esi+2116], eax
  023ba	ff d7		 call	 edi
  023bc	89 86 64 08 00
	00		 mov	 DWORD PTR [esi+2148], eax
$LN30@LoadConfig:

; 760  : 	}
; 761  : #endif
; 762  : 
; 763  : 	this->Event.Zt_CCMinPlayer = GetPrivateProfileInt("ChaosCastle","CCMinPlayer",2,Events_DIR);

  023c2	68 00 00 00 00	 push	 OFFSET ??_C@_0BK@GDGHCGII@?4?4?2Data?2ZtData?2Events?4ini?$AA@
  023c7	6a 02		 push	 2
  023c9	68 00 00 00 00	 push	 OFFSET ??_C@_0M@GPALKPNK@CCMinPlayer?$AA@
  023ce	68 00 00 00 00	 push	 OFFSET ??_C@_0M@DMDCPMM@ChaosCastle?$AA@
  023d3	ff d7		 call	 edi

; 764  : 	this->Event.Zt_CCRewardLevelUp = GetPrivateProfileInt("ChaosCastle","CCRewardLevelUp",2,Events_DIR);

  023d5	68 00 00 00 00	 push	 OFFSET ??_C@_0BK@GDGHCGII@?4?4?2Data?2ZtData?2Events?4ini?$AA@
  023da	6a 02		 push	 2
  023dc	68 00 00 00 00	 push	 OFFSET ??_C@_0BA@DHNLFKEC@CCRewardLevelUp?$AA@
  023e1	68 00 00 00 00	 push	 OFFSET ??_C@_0M@DMDCPMM@ChaosCastle?$AA@
  023e6	89 86 64 08 00
	00		 mov	 DWORD PTR [esi+2148], eax
  023ec	ff d7		 call	 edi

; 765  : 
; 766  : 	this->Event.DSParty3ExpPercent = GetPrivateProfileInt("DevilSquare","DSParty3ExpPercent",230,Events_DIR);

  023ee	68 00 00 00 00	 push	 OFFSET ??_C@_0BK@GDGHCGII@?4?4?2Data?2ZtData?2Events?4ini?$AA@
  023f3	68 e6 00 00 00	 push	 230			; 000000e6H
  023f8	68 00 00 00 00	 push	 OFFSET ??_C@_0BD@ICNONMAK@DSParty3ExpPercent?$AA@
  023fd	68 00 00 00 00	 push	 OFFSET ??_C@_0M@DFALAJPK@DevilSquare?$AA@
  02402	89 86 40 07 00
	00		 mov	 DWORD PTR [esi+1856], eax
  02408	ff d7		 call	 edi

; 767  : 	this->Event.DSParty4ExpPercent = GetPrivateProfileInt("DevilSquare","DSParty4ExpPercent",270,Events_DIR);

  0240a	68 00 00 00 00	 push	 OFFSET ??_C@_0BK@GDGHCGII@?4?4?2Data?2ZtData?2Events?4ini?$AA@
  0240f	68 0e 01 00 00	 push	 270			; 0000010eH
  02414	68 00 00 00 00	 push	 OFFSET ??_C@_0BD@PGEGDFIF@DSParty4ExpPercent?$AA@
  02419	68 00 00 00 00	 push	 OFFSET ??_C@_0M@DFALAJPK@DevilSquare?$AA@
  0241e	89 86 68 08 00
	00		 mov	 DWORD PTR [esi+2152], eax
  02424	ff d7		 call	 edi

; 768  : 	this->Event.DSParty5ExpPercent = GetPrivateProfileInt("DevilSquare","DSParty5ExpPercent",300,Events_DIR);

  02426	68 00 00 00 00	 push	 OFFSET ??_C@_0BK@GDGHCGII@?4?4?2Data?2ZtData?2Events?4ini?$AA@
  0242b	68 2c 01 00 00	 push	 300			; 0000012cH
  02430	68 00 00 00 00	 push	 OFFSET ??_C@_0BD@GNODHJOK@DSParty5ExpPercent?$AA@
  02435	68 00 00 00 00	 push	 OFFSET ??_C@_0M@DFALAJPK@DevilSquare?$AA@
  0243a	89 86 6c 08 00
	00		 mov	 DWORD PTR [esi+2156], eax
  02440	ff d7		 call	 edi

; 769  : 	this->Event.DSPartyExpPercentOther = GetPrivateProfileInt("DevilSquare","DSPartyExpPercentOther",120,Events_DIR);

  02442	68 00 00 00 00	 push	 OFFSET ??_C@_0BK@GDGHCGII@?4?4?2Data?2ZtData?2Events?4ini?$AA@
  02447	6a 78		 push	 120			; 00000078H
  02449	68 00 00 00 00	 push	 OFFSET ??_C@_0BH@CKMHNKKK@DSPartyExpPercentOther?$AA@
  0244e	68 00 00 00 00	 push	 OFFSET ??_C@_0M@DFALAJPK@DevilSquare?$AA@
  02453	89 86 70 08 00
	00		 mov	 DWORD PTR [esi+2160], eax
  02459	ff d7		 call	 edi

; 770  : 	this->Event.DSParty2ExpSetPercent = GetPrivateProfileInt("DevilSquare","DSParty2ExpSetPercent",160,Events_DIR);

  0245b	68 00 00 00 00	 push	 OFFSET ??_C@_0BK@GDGHCGII@?4?4?2Data?2ZtData?2Events?4ini?$AA@
  02460	68 a0 00 00 00	 push	 160			; 000000a0H
  02465	68 00 00 00 00	 push	 OFFSET ??_C@_0BG@LKAGLEPC@DSParty2ExpSetPercent?$AA@
  0246a	68 00 00 00 00	 push	 OFFSET ??_C@_0M@DFALAJPK@DevilSquare?$AA@
  0246f	89 86 74 08 00
	00		 mov	 DWORD PTR [esi+2164], eax
  02475	ff d7		 call	 edi

; 771  : 	this->Event.DSParty3ExpSetPercent = GetPrivateProfileInt("DevilSquare","DSParty3ExpSetPercent",180,Events_DIR);

  02477	68 00 00 00 00	 push	 OFFSET ??_C@_0BK@GDGHCGII@?4?4?2Data?2ZtData?2Events?4ini?$AA@
  0247c	68 b4 00 00 00	 push	 180			; 000000b4H
  02481	68 00 00 00 00	 push	 OFFSET ??_C@_0BG@DPNGPBK@DSParty3ExpSetPercent?$AA@
  02486	68 00 00 00 00	 push	 OFFSET ??_C@_0M@DFALAJPK@DevilSquare?$AA@
  0248b	89 86 78 08 00
	00		 mov	 DWORD PTR [esi+2168], eax
  02491	ff d7		 call	 edi

; 772  : 	this->Event.DSParty4ExpSetPercent = GetPrivateProfileInt("DevilSquare","DSParty4ExpSetPercent",200,Events_DIR);

  02493	68 00 00 00 00	 push	 OFFSET ??_C@_0BK@GDGHCGII@?4?4?2Data?2ZtData?2Events?4ini?$AA@
  02498	68 c8 00 00 00	 push	 200			; 000000c8H
  0249d	68 00 00 00 00	 push	 OFFSET ??_C@_0BG@JIPMGAAA@DSParty4ExpSetPercent?$AA@
  024a2	68 00 00 00 00	 push	 OFFSET ??_C@_0M@DFALAJPK@DevilSquare?$AA@
  024a7	89 86 7c 08 00
	00		 mov	 DWORD PTR [esi+2172], eax
  024ad	ff d7		 call	 edi

; 773  : 	this->Event.DSParty5ExpSetPercent = GetPrivateProfileInt("DevilSquare","DSParty5ExpSetPercent",220,Events_DIR);

  024af	68 00 00 00 00	 push	 OFFSET ??_C@_0BK@GDGHCGII@?4?4?2Data?2ZtData?2Events?4ini?$AA@
  024b4	68 dc 00 00 00	 push	 220			; 000000dcH
  024b9	68 00 00 00 00	 push	 OFFSET ??_C@_0BG@CBAHLLOI@DSParty5ExpSetPercent?$AA@
  024be	68 00 00 00 00	 push	 OFFSET ??_C@_0M@DFALAJPK@DevilSquare?$AA@
  024c3	89 86 80 08 00
	00		 mov	 DWORD PTR [esi+2176], eax
  024c9	ff d7		 call	 edi

; 774  : 	this->Event.DSParty1ExpSetPercent = GetPrivateProfileInt("DevilSquare","DSParty1ExpSetPercent",150,Events_DIR);

  024cb	68 00 00 00 00	 push	 OFFSET ??_C@_0BK@GDGHCGII@?4?4?2Data?2ZtData?2Events?4ini?$AA@
  024d0	68 96 00 00 00	 push	 150			; 00000096H
  024d5	68 00 00 00 00	 push	 OFFSET ??_C@_0BG@KLHLNOIL@DSParty1ExpSetPercent?$AA@
  024da	68 00 00 00 00	 push	 OFFSET ??_C@_0M@DFALAJPK@DevilSquare?$AA@
  024df	89 86 84 08 00
	00		 mov	 DWORD PTR [esi+2180], eax
  024e5	ff d7		 call	 edi

; 775  : 
; 776  : 	this->Event.DSAllowPKPlayer = GetPrivateProfileInt("DevilSquare","DSAllowPKPlayer",0,Events_DIR);

  024e7	68 00 00 00 00	 push	 OFFSET ??_C@_0BK@GDGHCGII@?4?4?2Data?2ZtData?2Events?4ini?$AA@
  024ec	6a 00		 push	 0
  024ee	68 00 00 00 00	 push	 OFFSET ??_C@_0BA@HPMHDCCH@DSAllowPKPlayer?$AA@
  024f3	68 00 00 00 00	 push	 OFFSET ??_C@_0M@DFALAJPK@DevilSquare?$AA@
  024f8	89 86 88 08 00
	00		 mov	 DWORD PTR [esi+2184], eax
  024fe	ff d7		 call	 edi

; 777  : 
; 778  : 	this->Event.Zt_DSRewardLevelUp1 = GetPrivateProfileInt("DevilSquare","DSRewardLevelUp1",0,Events_DIR);

  02500	68 00 00 00 00	 push	 OFFSET ??_C@_0BK@GDGHCGII@?4?4?2Data?2ZtData?2Events?4ini?$AA@
  02505	6a 00		 push	 0
  02507	68 00 00 00 00	 push	 OFFSET ??_C@_0BB@JIANLOIB@DSRewardLevelUp1?$AA@
  0250c	68 00 00 00 00	 push	 OFFSET ??_C@_0M@DFALAJPK@DevilSquare?$AA@
  02511	89 86 8c 08 00
	00		 mov	 DWORD PTR [esi+2188], eax
  02517	ff d7		 call	 edi

; 779  : 	this->Event.Zt_DSRewardLevelUp2 = GetPrivateProfileInt("DevilSquare","DSRewardLevelUp2",0,Events_DIR);

  02519	68 00 00 00 00	 push	 OFFSET ??_C@_0BK@GDGHCGII@?4?4?2Data?2ZtData?2Events?4ini?$AA@
  0251e	6a 00		 push	 0
  02520	89 86 90 08 00
	00		 mov	 DWORD PTR [esi+2192], eax
  02526	68 00 00 00 00	 push	 OFFSET ??_C@_0BB@LDCAONEC@DSRewardLevelUp2?$AA@
  0252b	68 00 00 00 00	 push	 OFFSET ??_C@_0M@DFALAJPK@DevilSquare?$AA@
  02530	ff d7		 call	 edi

; 780  : 	this->Event.Zt_DSRewardLevelUp3 = GetPrivateProfileInt("DevilSquare","DSRewardLevelUp3",0,Events_DIR);

  02532	68 00 00 00 00	 push	 OFFSET ??_C@_0BK@GDGHCGII@?4?4?2Data?2ZtData?2Events?4ini?$AA@
  02537	6a 00		 push	 0
  02539	68 00 00 00 00	 push	 OFFSET ??_C@_0BB@KKDLNMAD@DSRewardLevelUp3?$AA@
  0253e	68 00 00 00 00	 push	 OFFSET ??_C@_0M@DFALAJPK@DevilSquare?$AA@
  02543	89 86 94 08 00
	00		 mov	 DWORD PTR [esi+2196], eax
  02549	ff d7		 call	 edi

; 781  : 
; 782  : 	//---------------------------------
; 783  : 	//			Reset
; 784  : 	//---------------------------------
; 785  : 
; 786  : 	//this->Reset.EnableResetSystem = GetPrivateProfileInt("Reset","Enable",0,Reset_DIR);	
; 787  : 	//this->Reset.Maxres = GetPrivateProfileInt("Reset","Max.res",100,Reset_DIR);
; 788  : 	//this->Reset.ZenForm = GetPrivateProfileInt("Reset","ZenForm",0,Reset_DIR);
; 789  : 	//this->Reset.NeedZen = GetPrivateProfileInt("Reset","Need.Zen",0,Reset_DIR);
; 790  : 	//this->Reset.NeedLevel = GetPrivateProfileInt("Reset","Need.Level",0,Reset_DIR);
; 791  : 	//this->Reset.AddForm = GetPrivateProfileInt("Reset","Add.Form",0,Reset_DIR);
; 792  : 	//this->Reset.AddPointsDW = GetPrivateProfileInt("Reset","Add.PointsDW",0,Reset_DIR);
; 793  : 	//this->Reset.AddPointsDK = GetPrivateProfileInt("Reset","Add.PointsDK",0,Reset_DIR);
; 794  : 	//this->Reset.AddPointsELF = GetPrivateProfileInt("Reset","Add.PointsELF",0,Reset_DIR);
; 795  : 	//this->Reset.AddPointsSUM = GetPrivateProfileInt("Reset","Add.PointsSUM",0,Reset_DIR);
; 796  : 	//this->Reset.AddPointsMG = GetPrivateProfileInt("Reset","Add.PointsMG",0,Reset_DIR);
; 797  : 	//this->Reset.AddPointsDL = GetPrivateProfileInt("Reset","Add.PointsDL",0,Reset_DIR);
; 798  : 	//this->Reset.AddPcPoint = GetPrivateProfileInt("Reset","Add.PcPoint",0,Reset_DIR);
; 799  : 	//this->Reset.NeedEmptyInv = GetPrivateProfileInt("Reset","Need.EmptyInv",1,Reset_DIR);
; 800  : 
; 801  : 	//---------------------------------
; 802  : 	//			Grand Reset
; 803  : 	//---------------------------------
; 804  : 
; 805  : 	//this->GrandReset.EnableGrandResetSystem = GetPrivateProfileInt("GrandReset","Enable",0,GrandReset_DIR);	
; 806  : 	//this->GrandReset.MaxGrandRes = GetPrivateProfileInt("GrandReset","Max.GrandRes",100,GrandReset_DIR);
; 807  : 	//this->GrandReset.ZenForm = GetPrivateProfileInt("GrandReset","ZenForm",0,GrandReset_DIR);
; 808  : 	//this->GrandReset.NeedZen = GetPrivateProfileInt("GrandReset","Need.Zen",0,GrandReset_DIR);
; 809  : 	//this->GrandReset.NeedRes = GetPrivateProfileInt("GrandReset","Need.Res",0,GrandReset_DIR);
; 810  : 	//this->GrandReset.NeedLevel = GetPrivateProfileInt("GrandReset","Need.Level",0,GrandReset_DIR);
; 811  : 	//this->GrandReset.AddForm = GetPrivateProfileInt("GrandReset","Add.Form",0,GrandReset_DIR);
; 812  : 	//this->GrandReset.AddPointsDW = GetPrivateProfileInt("GrandReset","Add.PointsDW",0,GrandReset_DIR);
; 813  : 	//this->GrandReset.AddPointsDK = GetPrivateProfileInt("GrandReset","Add.PointsDK",0,GrandReset_DIR);
; 814  : 	//this->GrandReset.AddPointsELF = GetPrivateProfileInt("GrandReset","Add.PointsELF",0,GrandReset_DIR);
; 815  : 	//this->GrandReset.AddPointsSUM = GetPrivateProfileInt("GrandReset","Add.PointsSUM",0,GrandReset_DIR);
; 816  : 	//this->GrandReset.AddPointsMG = GetPrivateProfileInt("GrandReset","Add.PointsMG",0,GrandReset_DIR);
; 817  : 	//this->GrandReset.AddPointsDL = GetPrivateProfileInt("GrandReset","Add.PointsDL",0,GrandReset_DIR);
; 818  : 	//this->GrandReset.AddPcPoint = GetPrivateProfileInt("GrandReset","Add.PcPoint",0,GrandReset_DIR);
; 819  : 	//this->GrandReset.NeedEmptyInv = GetPrivateProfileInt("GrandReset","Need.EmptyInv",1,GrandReset_DIR);
; 820  : 
; 821  : 	//---------------------------------
; 822  : 	//			Pets
; 823  : 	//---------------------------------
; 824  : 
; 825  : 	this->Pet.Zt_PandaRingZen = GetPrivateProfileInt("PandaRing","Zen",30,Pets_DIR);

  0254b	68 00 00 00 00	 push	 OFFSET ??_C@_0BI@NMLLNIHA@?4?4?2Data?2ZtData?2Pets?4ini?$AA@
  02550	6a 1e		 push	 30			; 0000001eH
  02552	68 00 00 00 00	 push	 OFFSET ??_C@_03MPGJIAMH@Zen?$AA@
  02557	68 00 00 00 00	 push	 OFFSET ??_C@_09PLEBLNMO@PandaRing?$AA@
  0255c	89 86 98 08 00
	00		 mov	 DWORD PTR [esi+2200], eax
  02562	ff d7		 call	 edi

; 826  : 	this->Pet.Zt_PandaRingAttack = GetPrivateProfileInt("PandaRing","AttackDamage",30,Pets_DIR);

  02564	68 00 00 00 00	 push	 OFFSET ??_C@_0BI@NMLLNIHA@?4?4?2Data?2ZtData?2Pets?4ini?$AA@
  02569	6a 1e		 push	 30			; 0000001eH
  0256b	68 00 00 00 00	 push	 OFFSET ??_C@_0N@OLKLOICD@AttackDamage?$AA@
  02570	68 00 00 00 00	 push	 OFFSET ??_C@_09PLEBLNMO@PandaRing?$AA@
  02575	89 86 9c 08 00
	00		 mov	 DWORD PTR [esi+2204], eax
  0257b	ff d7		 call	 edi

; 827  : 	this->Pet.Zt_PandaDef = GetPrivateProfileInt("Panda","Defense",50,Pets_DIR);

  0257d	68 00 00 00 00	 push	 OFFSET ??_C@_0BI@NMLLNIHA@?4?4?2Data?2ZtData?2Pets?4ini?$AA@
  02582	6a 32		 push	 50			; 00000032H
  02584	68 00 00 00 00	 push	 OFFSET ??_C@_07PEDPFCGC@Defense?$AA@
  02589	68 00 00 00 00	 push	 OFFSET ??_C@_05OCALBHM@Panda?$AA@
  0258e	89 86 a0 08 00
	00		 mov	 DWORD PTR [esi+2208], eax
  02594	ff d7		 call	 edi

; 828  : 	this->Pet.Zt_PandaExp = GetPrivateProfileInt("Panda","Exp",50,Pets_DIR);

  02596	68 00 00 00 00	 push	 OFFSET ??_C@_0BI@NMLLNIHA@?4?4?2Data?2ZtData?2Pets?4ini?$AA@
  0259b	6a 32		 push	 50			; 00000032H
  0259d	68 00 00 00 00	 push	 OFFSET ??_C@_03HKMMIPC@Exp?$AA@
  025a2	68 00 00 00 00	 push	 OFFSET ??_C@_05OCALBHM@Panda?$AA@
  025a7	89 86 a4 08 00
	00		 mov	 DWORD PTR [esi+2212], eax
  025ad	ff d7		 call	 edi

; 829  : 
; 830  : 	this->Pet.RavenAttackDamageMinLvl = GetPrivateProfileInt("DarkSpirit","RavenAttackDamageMinLvl",15,Pets_DIR);

  025af	68 00 00 00 00	 push	 OFFSET ??_C@_0BI@NMLLNIHA@?4?4?2Data?2ZtData?2Pets?4ini?$AA@
  025b4	6a 0f		 push	 15			; 0000000fH
  025b6	68 00 00 00 00	 push	 OFFSET ??_C@_0BI@OGKKEOAP@RavenAttackDamageMinLvl?$AA@
  025bb	68 00 00 00 00	 push	 OFFSET ??_C@_0L@NPEGNDBD@DarkSpirit?$AA@
  025c0	89 86 a8 08 00
	00		 mov	 DWORD PTR [esi+2216], eax
  025c6	ff d7		 call	 edi

; 831  : 	this->Pet.RavenAttackDamageMaxLvl = GetPrivateProfileInt("DarkSpirit","RavenAttackDamageMaxLvl",15,Pets_DIR);

  025c8	68 00 00 00 00	 push	 OFFSET ??_C@_0BI@NMLLNIHA@?4?4?2Data?2ZtData?2Pets?4ini?$AA@
  025cd	6a 0f		 push	 15			; 0000000fH
  025cf	68 00 00 00 00	 push	 OFFSET ??_C@_0BI@OFFJKOEA@RavenAttackDamageMaxLvl?$AA@
  025d4	68 00 00 00 00	 push	 OFFSET ??_C@_0L@NPEGNDBD@DarkSpirit?$AA@
  025d9	89 86 ac 08 00
	00		 mov	 DWORD PTR [esi+2220], eax
  025df	ff d7		 call	 edi

; 832  : 
; 833  : 	this->Pet.RavenAttackDamageMinCmd = GetPrivateProfileInt("DarkSpirit","RavenAttackDamageMinCmd",8,Pets_DIR);

  025e1	68 00 00 00 00	 push	 OFFSET ??_C@_0BI@NMLLNIHA@?4?4?2Data?2ZtData?2Pets?4ini?$AA@
  025e6	6a 08		 push	 8
  025e8	68 00 00 00 00	 push	 OFFSET ??_C@_0BI@GGGDJIMA@RavenAttackDamageMinCmd?$AA@
  025ed	68 00 00 00 00	 push	 OFFSET ??_C@_0L@NPEGNDBD@DarkSpirit?$AA@
  025f2	89 86 b0 08 00
	00		 mov	 DWORD PTR [esi+2224], eax
  025f8	ff d7		 call	 edi

; 834  : 	this->Pet.RavenAttackDamageMaxCmd = GetPrivateProfileInt("DarkSpirit","RavenAttackDamageMaxCmd",4,Pets_DIR);

  025fa	68 00 00 00 00	 push	 OFFSET ??_C@_0BI@NMLLNIHA@?4?4?2Data?2ZtData?2Pets?4ini?$AA@
  025ff	6a 04		 push	 4
  02601	68 00 00 00 00	 push	 OFFSET ??_C@_0BI@GFJAHIIP@RavenAttackDamageMaxCmd?$AA@
  02606	68 00 00 00 00	 push	 OFFSET ??_C@_0L@NPEGNDBD@DarkSpirit?$AA@
  0260b	89 86 b4 08 00
	00		 mov	 DWORD PTR [esi+2228], eax
  02611	ff d7		 call	 edi

; 835  : 
; 836  : 	this->Pet.RavenDurabilitySmall = GetPrivateProfileInt("DarkSpirit","RavenDurabilitySmall",800,Pets_DIR);

  02613	68 00 00 00 00	 push	 OFFSET ??_C@_0BI@NMLLNIHA@?4?4?2Data?2ZtData?2Pets?4ini?$AA@
  02618	68 20 03 00 00	 push	 800			; 00000320H
  0261d	68 00 00 00 00	 push	 OFFSET ??_C@_0BF@JONGFLJ@RavenDurabilitySmall?$AA@
  02622	68 00 00 00 00	 push	 OFFSET ??_C@_0L@NPEGNDBD@DarkSpirit?$AA@
  02627	89 86 b8 08 00
	00		 mov	 DWORD PTR [esi+2232], eax
  0262d	ff d7		 call	 edi

; 837  : 
; 838  : 	this->Pet.SkeletonPetExp = GetPrivateProfileInt("SkeletonPet","Experience",30,Pets_DIR);

  0262f	68 00 00 00 00	 push	 OFFSET ??_C@_0BI@NMLLNIHA@?4?4?2Data?2ZtData?2Pets?4ini?$AA@
  02634	6a 1e		 push	 30			; 0000001eH
  02636	68 00 00 00 00	 push	 OFFSET ??_C@_0L@DCGNFONO@Experience?$AA@
  0263b	68 00 00 00 00	 push	 OFFSET ??_C@_0M@KAGNIJEL@SkeletonPet?$AA@
  02640	89 86 bc 08 00
	00		 mov	 DWORD PTR [esi+2236], eax
  02646	ff d7		 call	 edi

; 839  : 	this->Pet.SkeletonPetAndRingExp = GetPrivateProfileInt("SkeletonPetAndRing","Experience",60,Pets_DIR);

  02648	68 00 00 00 00	 push	 OFFSET ??_C@_0BI@NMLLNIHA@?4?4?2Data?2ZtData?2Pets?4ini?$AA@
  0264d	6a 3c		 push	 60			; 0000003cH
  0264f	68 00 00 00 00	 push	 OFFSET ??_C@_0L@DCGNFONO@Experience?$AA@
  02654	68 00 00 00 00	 push	 OFFSET ??_C@_0BD@JCKJEJIF@SkeletonPetAndRing?$AA@
  02659	89 86 c0 08 00
	00		 mov	 DWORD PTR [esi+2240], eax
  0265f	ff d7		 call	 edi

; 840  : 
; 841  : 	this->Pet.RedFenrirProcDamage = GetPrivateProfileInt("Fenrir","RedFenrirProcDamage",10,Pets_DIR);

  02661	68 00 00 00 00	 push	 OFFSET ??_C@_0BI@NMLLNIHA@?4?4?2Data?2ZtData?2Pets?4ini?$AA@
  02666	6a 0a		 push	 10			; 0000000aH
  02668	68 00 00 00 00	 push	 OFFSET ??_C@_0BE@JJPEPLDH@RedFenrirProcDamage?$AA@
  0266d	68 00 00 00 00	 push	 OFFSET ??_C@_06KAEKLEML@Fenrir?$AA@
  02672	89 86 c4 08 00
	00		 mov	 DWORD PTR [esi+2244], eax
  02678	ff d7		 call	 edi
  0267a	89 86 c8 08 00
	00		 mov	 DWORD PTR [esi+2248], eax

; 842  : 	this->Pet.RedFenrirProcAbsurd = GetPrivateProfileInt("Fenrir","RedFenrirProcAbsurd",10,Pets_DIR);

  02680	68 00 00 00 00	 push	 OFFSET ??_C@_0BI@NMLLNIHA@?4?4?2Data?2ZtData?2Pets?4ini?$AA@
  02685	6a 0a		 push	 10			; 0000000aH
  02687	68 00 00 00 00	 push	 OFFSET ??_C@_0BE@EOAFBPMP@RedFenrirProcAbsurd?$AA@
  0268c	68 00 00 00 00	 push	 OFFSET ??_C@_06KAEKLEML@Fenrir?$AA@
  02691	ff d7		 call	 edi

; 843  : 	this->Pet.RedFenrirProcLife = GetPrivateProfileInt("Fenrir","RedFenrirProcLife",10,Pets_DIR);

  02693	68 00 00 00 00	 push	 OFFSET ??_C@_0BI@NMLLNIHA@?4?4?2Data?2ZtData?2Pets?4ini?$AA@
  02698	6a 0a		 push	 10			; 0000000aH
  0269a	68 00 00 00 00	 push	 OFFSET ??_C@_0BC@IGFPMEEP@RedFenrirProcLife?$AA@
  0269f	68 00 00 00 00	 push	 OFFSET ??_C@_06KAEKLEML@Fenrir?$AA@
  026a4	89 86 cc 08 00
	00		 mov	 DWORD PTR [esi+2252], eax
  026aa	ff d7		 call	 edi

; 844  : 	this->Pet.RedFenrirProcDurability = GetPrivateProfileInt("Fenrir","RedFenrirProcDurability",100,Pets_DIR);

  026ac	68 00 00 00 00	 push	 OFFSET ??_C@_0BI@NMLLNIHA@?4?4?2Data?2ZtData?2Pets?4ini?$AA@
  026b1	6a 64		 push	 100			; 00000064H
  026b3	68 00 00 00 00	 push	 OFFSET ??_C@_0BI@OCEBDAGI@RedFenrirProcDurability?$AA@
  026b8	68 00 00 00 00	 push	 OFFSET ??_C@_06KAEKLEML@Fenrir?$AA@
  026bd	89 86 d0 08 00
	00		 mov	 DWORD PTR [esi+2256], eax
  026c3	ff d7		 call	 edi

; 845  : 
; 846  : 	this->Pet.BlueFenrirProcDamage = GetPrivateProfileInt("Fenrir","BlueFenrirProcDamage",10,Pets_DIR);

  026c5	68 00 00 00 00	 push	 OFFSET ??_C@_0BI@NMLLNIHA@?4?4?2Data?2ZtData?2Pets?4ini?$AA@
  026ca	6a 0a		 push	 10			; 0000000aH
  026cc	68 00 00 00 00	 push	 OFFSET ??_C@_0BF@NINCNEBP@BlueFenrirProcDamage?$AA@
  026d1	68 00 00 00 00	 push	 OFFSET ??_C@_06KAEKLEML@Fenrir?$AA@
  026d6	89 86 d4 08 00
	00		 mov	 DWORD PTR [esi+2260], eax
  026dc	ff d7		 call	 edi

; 847  : 	this->Pet.BlueFenrirProcAbsurd = GetPrivateProfileInt("Fenrir","BlueFenrirProcAbsurd",10,Pets_DIR);

  026de	68 00 00 00 00	 push	 OFFSET ??_C@_0BI@NMLLNIHA@?4?4?2Data?2ZtData?2Pets?4ini?$AA@
  026e3	6a 0a		 push	 10			; 0000000aH
  026e5	68 00 00 00 00	 push	 OFFSET ??_C@_0BF@PCDDAOH@BlueFenrirProcAbsurd?$AA@
  026ea	68 00 00 00 00	 push	 OFFSET ??_C@_06KAEKLEML@Fenrir?$AA@
  026ef	89 86 d8 08 00
	00		 mov	 DWORD PTR [esi+2264], eax
  026f5	ff d7		 call	 edi

; 848  : 	this->Pet.BlueFenrirProcLife = GetPrivateProfileInt("Fenrir","BlueFenrirProcLife",10,Pets_DIR);

  026f7	68 00 00 00 00	 push	 OFFSET ??_C@_0BI@NMLLNIHA@?4?4?2Data?2ZtData?2Pets?4ini?$AA@
  026fc	6a 0a		 push	 10			; 0000000aH
  026fe	68 00 00 00 00	 push	 OFFSET ??_C@_0BD@NBABNGPJ@BlueFenrirProcLife?$AA@
  02703	68 00 00 00 00	 push	 OFFSET ??_C@_06KAEKLEML@Fenrir?$AA@
  02708	89 86 dc 08 00
	00		 mov	 DWORD PTR [esi+2268], eax
  0270e	ff d7		 call	 edi

; 849  : 	this->Pet.BlueFenrirProcDurability = GetPrivateProfileInt("Fenrir","BlueFenrirProcDurability",100,Pets_DIR);

  02710	68 00 00 00 00	 push	 OFFSET ??_C@_0BI@NMLLNIHA@?4?4?2Data?2ZtData?2Pets?4ini?$AA@
  02715	6a 64		 push	 100			; 00000064H
  02717	68 00 00 00 00	 push	 OFFSET ??_C@_0BJ@HGNDEEEG@BlueFenrirProcDurability?$AA@
  0271c	68 00 00 00 00	 push	 OFFSET ??_C@_06KAEKLEML@Fenrir?$AA@
  02721	89 86 e0 08 00
	00		 mov	 DWORD PTR [esi+2272], eax
  02727	ff d7		 call	 edi

; 850  : 
; 851  : 	this->Pet.BlackFenrirProcDamage = GetPrivateProfileInt("Fenrir","BlackFenrirProcDamage",10,Pets_DIR);

  02729	68 00 00 00 00	 push	 OFFSET ??_C@_0BI@NMLLNIHA@?4?4?2Data?2ZtData?2Pets?4ini?$AA@
  0272e	6a 0a		 push	 10			; 0000000aH
  02730	68 00 00 00 00	 push	 OFFSET ??_C@_0BG@LAAEEHGG@BlackFenrirProcDamage?$AA@
  02735	68 00 00 00 00	 push	 OFFSET ??_C@_06KAEKLEML@Fenrir?$AA@
  0273a	89 86 e4 08 00
	00		 mov	 DWORD PTR [esi+2276], eax
  02740	ff d7		 call	 edi

; 852  : 	this->Pet.BlackFenrirProcAbsurd = GetPrivateProfileInt("Fenrir","BlackFenrirProcAbsurd",10,Pets_DIR);

  02742	68 00 00 00 00	 push	 OFFSET ??_C@_0BI@NMLLNIHA@?4?4?2Data?2ZtData?2Pets?4ini?$AA@
  02747	6a 0a		 push	 10			; 0000000aH
  02749	68 00 00 00 00	 push	 OFFSET ??_C@_0BG@GHPFKDJO@BlackFenrirProcAbsurd?$AA@
  0274e	68 00 00 00 00	 push	 OFFSET ??_C@_06KAEKLEML@Fenrir?$AA@
  02753	89 86 e8 08 00
	00		 mov	 DWORD PTR [esi+2280], eax
  02759	ff d7		 call	 edi

; 853  : 	this->Pet.BlackFenrirProcLife = GetPrivateProfileInt("Fenrir","BlackFenrirProcLife",10,Pets_DIR);

  0275b	68 00 00 00 00	 push	 OFFSET ??_C@_0BI@NMLLNIHA@?4?4?2Data?2ZtData?2Pets?4ini?$AA@
  02760	6a 0a		 push	 10			; 0000000aH
  02762	68 00 00 00 00	 push	 OFFSET ??_C@_0BE@CKFPCFDG@BlackFenrirProcLife?$AA@
  02767	68 00 00 00 00	 push	 OFFSET ??_C@_06KAEKLEML@Fenrir?$AA@
  0276c	89 86 ec 08 00
	00		 mov	 DWORD PTR [esi+2284], eax
  02772	ff d7		 call	 edi

; 854  : 	this->Pet.BlackFenrirProcDurability = GetPrivateProfileInt("Fenrir","BlackFenrirProcDurability",100,Pets_DIR);

  02774	68 00 00 00 00	 push	 OFFSET ??_C@_0BI@NMLLNIHA@?4?4?2Data?2ZtData?2Pets?4ini?$AA@
  02779	6a 64		 push	 100			; 00000064H
  0277b	68 00 00 00 00	 push	 OFFSET ??_C@_0BK@LLKCGAK@BlackFenrirProcDurability?$AA@
  02780	68 00 00 00 00	 push	 OFFSET ??_C@_06KAEKLEML@Fenrir?$AA@
  02785	89 86 f0 08 00
	00		 mov	 DWORD PTR [esi+2288], eax
  0278b	ff d7		 call	 edi

; 855  : 
; 856  : 	this->Pet.GoldFenrirProcDamage = GetPrivateProfileInt("Fenrir","GoldFenrirProcDamage",10,Pets_DIR);

  0278d	68 00 00 00 00	 push	 OFFSET ??_C@_0BI@NMLLNIHA@?4?4?2Data?2ZtData?2Pets?4ini?$AA@
  02792	6a 0a		 push	 10			; 0000000aH
  02794	68 00 00 00 00	 push	 OFFSET ??_C@_0BF@NIALAOMG@GoldFenrirProcDamage?$AA@
  02799	68 00 00 00 00	 push	 OFFSET ??_C@_06KAEKLEML@Fenrir?$AA@
  0279e	89 86 f4 08 00
	00		 mov	 DWORD PTR [esi+2292], eax
  027a4	ff d7		 call	 edi

; 857  : 	this->Pet.GoldFenrirProcAbsurd = GetPrivateProfileInt("Fenrir","GoldFenrirProcAbsurd",10,Pets_DIR);

  027a6	68 00 00 00 00	 push	 OFFSET ??_C@_0BI@NMLLNIHA@?4?4?2Data?2ZtData?2Pets?4ini?$AA@
  027ab	6a 0a		 push	 10			; 0000000aH
  027ad	68 00 00 00 00	 push	 OFFSET ??_C@_0BF@PPKOKDO@GoldFenrirProcAbsurd?$AA@
  027b2	68 00 00 00 00	 push	 OFFSET ??_C@_06KAEKLEML@Fenrir?$AA@
  027b7	89 86 f8 08 00
	00		 mov	 DWORD PTR [esi+2296], eax
  027bd	ff d7		 call	 edi

; 858  : 	this->Pet.GoldFenrirProcLife = GetPrivateProfileInt("Fenrir","GoldFenrirProcLife",10,Pets_DIR);

  027bf	68 00 00 00 00	 push	 OFFSET ??_C@_0BI@NMLLNIHA@?4?4?2Data?2ZtData?2Pets?4ini?$AA@
  027c4	6a 0a		 push	 10			; 0000000aH
  027c6	89 86 fc 08 00
	00		 mov	 DWORD PTR [esi+2300], eax
  027cc	68 00 00 00 00	 push	 OFFSET ??_C@_0BD@NNICAKBA@GoldFenrirProcLife?$AA@
  027d1	68 00 00 00 00	 push	 OFFSET ??_C@_06KAEKLEML@Fenrir?$AA@
  027d6	ff d7		 call	 edi

; 859  : 	this->Pet.GoldFenrirProcDurability = GetPrivateProfileInt("Fenrir","GoldFenrirProcDurability",100,Pets_DIR);

  027d8	68 00 00 00 00	 push	 OFFSET ??_C@_0BI@NMLLNIHA@?4?4?2Data?2ZtData?2Pets?4ini?$AA@
  027dd	6a 64		 push	 100			; 00000064H
  027df	68 00 00 00 00	 push	 OFFSET ??_C@_0BJ@PNGLHMOF@GoldFenrirProcDurability?$AA@
  027e4	68 00 00 00 00	 push	 OFFSET ??_C@_06KAEKLEML@Fenrir?$AA@
  027e9	89 86 00 09 00
	00		 mov	 DWORD PTR [esi+2304], eax
  027ef	ff d7		 call	 edi

; 860  : 
; 861  : #if(CONFIG_PET_DURABILITY)
; 862  : 	this->Pet.AngelDurability = GetPrivateProfileInt("PetDurabilityDiv","AngelDurability",10,Pets_DIR);

  027f1	68 00 00 00 00	 push	 OFFSET ??_C@_0BI@NMLLNIHA@?4?4?2Data?2ZtData?2Pets?4ini?$AA@
  027f6	6a 0a		 push	 10			; 0000000aH
  027f8	68 00 00 00 00	 push	 OFFSET ??_C@_0BA@NLFFKPBF@AngelDurability?$AA@
  027fd	68 00 00 00 00	 push	 OFFSET ??_C@_0BB@OHAGIPNH@PetDurabilityDiv?$AA@
  02802	89 86 04 09 00
	00		 mov	 DWORD PTR [esi+2308], eax
  02808	ff d7		 call	 edi

; 863  : 	this->Pet.RudolfDurability = GetPrivateProfileInt("PetDurabilityDiv","RudolfDurability",10,Pets_DIR);

  0280a	68 00 00 00 00	 push	 OFFSET ??_C@_0BI@NMLLNIHA@?4?4?2Data?2ZtData?2Pets?4ini?$AA@
  0280f	6a 0a		 push	 10			; 0000000aH
  02811	68 00 00 00 00	 push	 OFFSET ??_C@_0BB@HMPHPBHO@RudolfDurability?$AA@
  02816	68 00 00 00 00	 push	 OFFSET ??_C@_0BB@OHAGIPNH@PetDurabilityDiv?$AA@
  0281b	89 86 08 09 00
	00		 mov	 DWORD PTR [esi+2312], eax
  02821	ff d7		 call	 edi

; 864  : 	this->Pet.SatanDurability = GetPrivateProfileInt("PetDurabilityDiv","SatanDurability",10,Pets_DIR);

  02823	68 00 00 00 00	 push	 OFFSET ??_C@_0BI@NMLLNIHA@?4?4?2Data?2ZtData?2Pets?4ini?$AA@
  02828	6a 0a		 push	 10			; 0000000aH
  0282a	68 00 00 00 00	 push	 OFFSET ??_C@_0BA@NIALJKML@SatanDurability?$AA@
  0282f	68 00 00 00 00	 push	 OFFSET ??_C@_0BB@OHAGIPNH@PetDurabilityDiv?$AA@
  02834	89 86 0c 09 00
	00		 mov	 DWORD PTR [esi+2316], eax
  0283a	ff d7		 call	 edi

; 865  : 	this->Pet.DemonDurability = GetPrivateProfileInt("PetDurabilityDiv","DemonDurability",10,Pets_DIR);

  0283c	68 00 00 00 00	 push	 OFFSET ??_C@_0BI@NMLLNIHA@?4?4?2Data?2ZtData?2Pets?4ini?$AA@
  02841	6a 0a		 push	 10			; 0000000aH
  02843	68 00 00 00 00	 push	 OFFSET ??_C@_0BA@HLKLPGNP@DemonDurability?$AA@
  02848	68 00 00 00 00	 push	 OFFSET ??_C@_0BB@OHAGIPNH@PetDurabilityDiv?$AA@
  0284d	89 86 10 09 00
	00		 mov	 DWORD PTR [esi+2320], eax
  02853	ff d7		 call	 edi

; 866  : 	this->Pet.GuardianDurability = GetPrivateProfileInt("PetDurabilityDiv","GuardianDurability",10,Pets_DIR);

  02855	68 00 00 00 00	 push	 OFFSET ??_C@_0BI@NMLLNIHA@?4?4?2Data?2ZtData?2Pets?4ini?$AA@
  0285a	6a 0a		 push	 10			; 0000000aH
  0285c	68 00 00 00 00	 push	 OFFSET ??_C@_0BD@GLMHAOCA@GuardianDurability?$AA@
  02861	68 00 00 00 00	 push	 OFFSET ??_C@_0BB@OHAGIPNH@PetDurabilityDiv?$AA@
  02866	89 86 14 09 00
	00		 mov	 DWORD PTR [esi+2324], eax
  0286c	ff d7		 call	 edi

; 867  : 	this->Pet.PandaDurability = GetPrivateProfileInt("PetDurabilityDiv","PandaDurability",10,Pets_DIR);

  0286e	68 00 00 00 00	 push	 OFFSET ??_C@_0BI@NMLLNIHA@?4?4?2Data?2ZtData?2Pets?4ini?$AA@
  02873	6a 0a		 push	 10			; 0000000aH
  02875	68 00 00 00 00	 push	 OFFSET ??_C@_0BA@CKPNOEKM@PandaDurability?$AA@
  0287a	68 00 00 00 00	 push	 OFFSET ??_C@_0BB@OHAGIPNH@PetDurabilityDiv?$AA@
  0287f	89 86 18 09 00
	00		 mov	 DWORD PTR [esi+2328], eax
  02885	ff d7		 call	 edi

; 868  : 	this->Pet.SkeletonDurability = GetPrivateProfileInt("PetDurabilityDiv","SkeletonDurability",10,Pets_DIR);

  02887	68 00 00 00 00	 push	 OFFSET ??_C@_0BI@NMLLNIHA@?4?4?2Data?2ZtData?2Pets?4ini?$AA@
  0288c	6a 0a		 push	 10			; 0000000aH
  0288e	68 00 00 00 00	 push	 OFFSET ??_C@_0BD@IBJLACMM@SkeletonDurability?$AA@
  02893	68 00 00 00 00	 push	 OFFSET ??_C@_0BB@OHAGIPNH@PetDurabilityDiv?$AA@
  02898	89 86 1c 09 00
	00		 mov	 DWORD PTR [esi+2332], eax
  0289e	ff d7		 call	 edi

; 869  : 	this->Pet.UnicornDurability = GetPrivateProfileInt("PetDurabilityDiv","UnicornDurability",10,Pets_DIR);

  028a0	68 00 00 00 00	 push	 OFFSET ??_C@_0BI@NMLLNIHA@?4?4?2Data?2ZtData?2Pets?4ini?$AA@
  028a5	6a 0a		 push	 10			; 0000000aH
  028a7	68 00 00 00 00	 push	 OFFSET ??_C@_0BC@JMNEHPBP@UnicornDurability?$AA@
  028ac	68 00 00 00 00	 push	 OFFSET ??_C@_0BB@OHAGIPNH@PetDurabilityDiv?$AA@
  028b1	89 86 20 09 00
	00		 mov	 DWORD PTR [esi+2336], eax
  028b7	ff d7		 call	 edi

; 870  : 	this->Pet.UniriaDurability = GetPrivateProfileInt("PetDurabilityDiv","UniriaDurability",10,Pets_DIR);

  028b9	68 00 00 00 00	 push	 OFFSET ??_C@_0BI@NMLLNIHA@?4?4?2Data?2ZtData?2Pets?4ini?$AA@
  028be	6a 0a		 push	 10			; 0000000aH
  028c0	68 00 00 00 00	 push	 OFFSET ??_C@_0BB@KEGIPMLB@UniriaDurability?$AA@
  028c5	68 00 00 00 00	 push	 OFFSET ??_C@_0BB@OHAGIPNH@PetDurabilityDiv?$AA@
  028ca	89 86 24 09 00
	00		 mov	 DWORD PTR [esi+2340], eax
  028d0	ff d7		 call	 edi

; 871  : 	this->Pet.DinorantDurability = GetPrivateProfileInt("PetDurabilityDiv","DinorantDurability",10,Pets_DIR);

  028d2	68 00 00 00 00	 push	 OFFSET ??_C@_0BI@NMLLNIHA@?4?4?2Data?2ZtData?2Pets?4ini?$AA@
  028d7	6a 0a		 push	 10			; 0000000aH
  028d9	68 00 00 00 00	 push	 OFFSET ??_C@_0BD@EHLKGHKK@DinorantDurability?$AA@
  028de	68 00 00 00 00	 push	 OFFSET ??_C@_0BB@OHAGIPNH@PetDurabilityDiv?$AA@
  028e3	89 86 28 09 00
	00		 mov	 DWORD PTR [esi+2344], eax
  028e9	ff d7		 call	 edi

; 872  : 	this->Pet.RingPandaDurability = GetPrivateProfileInt("PetDurabilityDiv","RingPandaDurability",10,Pets_DIR);

  028eb	68 00 00 00 00	 push	 OFFSET ??_C@_0BI@NMLLNIHA@?4?4?2Data?2ZtData?2Pets?4ini?$AA@
  028f0	6a 0a		 push	 10			; 0000000aH
  028f2	68 00 00 00 00	 push	 OFFSET ??_C@_0BE@MODNLPLG@RingPandaDurability?$AA@
  028f7	68 00 00 00 00	 push	 OFFSET ??_C@_0BB@OHAGIPNH@PetDurabilityDiv?$AA@
  028fc	89 86 2c 09 00
	00		 mov	 DWORD PTR [esi+2348], eax
  02902	ff d7		 call	 edi

; 873  : 	this->Pet.RingSkeletonDurability = GetPrivateProfileInt("PetDurabilityDiv","RingSkeletonDurability",10,Pets_DIR);

  02904	68 00 00 00 00	 push	 OFFSET ??_C@_0BI@NMLLNIHA@?4?4?2Data?2ZtData?2Pets?4ini?$AA@
  02909	6a 0a		 push	 10			; 0000000aH
  0290b	68 00 00 00 00	 push	 OFFSET ??_C@_0BH@FCABGCKB@RingSkeletonDurability?$AA@
  02910	68 00 00 00 00	 push	 OFFSET ??_C@_0BB@OHAGIPNH@PetDurabilityDiv?$AA@
  02915	89 86 30 09 00
	00		 mov	 DWORD PTR [esi+2352], eax
  0291b	ff d7		 call	 edi
  0291d	89 86 34 09 00
	00		 mov	 DWORD PTR [esi+2356], eax

; 874  : #endif
; 875  : 
; 876  : 	//---------------------------------
; 877  : 	//			PVP 
; 878  : 	//---------------------------------
; 879  : 
; 880  : 	this->PvP.ZtPkPartySystem = GetPrivateProfileInt("PK","PKPartyOn",0,PVP_DIR);

  02923	68 00 00 00 00	 push	 OFFSET ??_C@_0BN@FIOMFOPK@?4?4?2Data?2ZtData?2PvPSystem?4ini?$AA@
  02928	6a 00		 push	 0
  0292a	68 00 00 00 00	 push	 OFFSET ??_C@_09FNHGLBIL@PKPartyOn?$AA@
  0292f	68 00 00 00 00	 push	 OFFSET ??_C@_02HPIPJOJD@PK?$AA@
  02934	ff d7		 call	 edi

; 881  : 	this->PvP.ZtPkLimit = GetPrivateProfileInt("PK","PkLimit",6,PVP_DIR);

  02936	68 00 00 00 00	 push	 OFFSET ??_C@_0BN@FIOMFOPK@?4?4?2Data?2ZtData?2PvPSystem?4ini?$AA@
  0293b	6a 06		 push	 6
  0293d	68 00 00 00 00	 push	 OFFSET ??_C@_07GPOLHHOH@PkLimit?$AA@
  02942	68 00 00 00 00	 push	 OFFSET ??_C@_02HPIPJOJD@PK?$AA@
  02947	89 86 38 09 00
	00		 mov	 DWORD PTR [esi+2360], eax
  0294d	ff d7		 call	 edi

; 882  : 
; 883  : 	this->PvP.DuelGate = GetPrivateProfileInt("Duel","Gate",294,PVP_DIR);

  0294f	68 00 00 00 00	 push	 OFFSET ??_C@_0BN@FIOMFOPK@?4?4?2Data?2ZtData?2PvPSystem?4ini?$AA@
  02954	68 26 01 00 00	 push	 294			; 00000126H
  02959	68 00 00 00 00	 push	 OFFSET ??_C@_04BLOGEDLD@Gate?$AA@
  0295e	68 00 00 00 00	 push	 OFFSET ??_C@_04EPBLILKF@Duel?$AA@
  02963	89 86 3c 09 00
	00		 mov	 DWORD PTR [esi+2364], eax
  02969	ff d7		 call	 edi

; 884  : 
; 885  : 	if(g_ZtLicense.CheckUser(SILVER1) || g_ZtLicense.CheckUser(SILVER2))

  0296b	6a 07		 push	 7
  0296d	b9 00 00 00 00	 mov	 ecx, OFFSET ?g_ZtLicense@@3VCZtLicense@@A ; g_ZtLicense
  02972	89 86 40 09 00
	00		 mov	 DWORD PTR [esi+2368], eax
  02978	e8 00 00 00 00	 call	 ?CheckUser@CZtLicense@@QAE_NH@Z ; CZtLicense::CheckUser
  0297d	84 c0		 test	 al, al
  0297f	75 1c		 jne	 SHORT $LN27@LoadConfig
  02981	6a 08		 push	 8
  02983	b9 00 00 00 00	 mov	 ecx, OFFSET ?g_ZtLicense@@3VCZtLicense@@A ; g_ZtLicense
  02988	e8 00 00 00 00	 call	 ?CheckUser@CZtLicense@@QAE_NH@Z ; CZtLicense::CheckUser
  0298d	84 c0		 test	 al, al
  0298f	75 0c		 jne	 SHORT $LN27@LoadConfig

; 888  : 	}
; 889  : 	else
; 890  : 	{
; 891  : 		this->PvP.DuelLevel = 30;

  02991	c7 86 44 09 00
	00 1e 00 00 00	 mov	 DWORD PTR [esi+2372], 30 ; 0000001eH
  0299b	eb 19		 jmp	 SHORT $LN26@LoadConfig
$LN27@LoadConfig:

; 886  : 	{
; 887  : 		this->PvP.DuelLevel = GetPrivateProfileInt("Duel","DuelLevel",30,PVP_DIR);

  0299d	68 00 00 00 00	 push	 OFFSET ??_C@_0BN@FIOMFOPK@?4?4?2Data?2ZtData?2PvPSystem?4ini?$AA@
  029a2	6a 1e		 push	 30			; 0000001eH
  029a4	68 00 00 00 00	 push	 OFFSET ??_C@_09FEFNOIN@DuelLevel?$AA@
  029a9	68 00 00 00 00	 push	 OFFSET ??_C@_04EPBLILKF@Duel?$AA@
  029ae	ff d7		 call	 edi
  029b0	89 86 44 09 00
	00		 mov	 DWORD PTR [esi+2372], eax
$LN26@LoadConfig:

; 892  : 	}
; 893  : 	
; 894  : 
; 895  : 	//---------------------------------
; 896  : 	//			Golden Drop
; 897  : 	//---------------------------------
; 898  : 
; 899  : 	this->GoldenDrop.ItemType44 = GetPrivateProfileInt("Dragon","ItemType",14,GoldenDrop_DIR);

  029b6	68 00 00 00 00	 push	 OFFSET ??_C@_0CN@DJEEGMHO@?4?4?2Data?2ZtData?2Events?2GoldenInva@
  029bb	6a 0e		 push	 14			; 0000000eH
  029bd	68 00 00 00 00	 push	 OFFSET ??_C@_08LJOGMPAO@ItemType?$AA@
  029c2	68 00 00 00 00	 push	 OFFSET ??_C@_06COGLIGFC@Dragon?$AA@
  029c7	ff d7		 call	 edi

; 900  : 	this->GoldenDrop.ItemIndex44 = GetPrivateProfileInt("Dragon","ItemIndex",13,GoldenDrop_DIR);

  029c9	68 00 00 00 00	 push	 OFFSET ??_C@_0CN@DJEEGMHO@?4?4?2Data?2ZtData?2Events?2GoldenInva@
  029ce	6a 0d		 push	 13			; 0000000dH
  029d0	68 00 00 00 00	 push	 OFFSET ??_C@_09LCBEKCCJ@ItemIndex?$AA@
  029d5	68 00 00 00 00	 push	 OFFSET ??_C@_06COGLIGFC@Dragon?$AA@
  029da	89 86 48 09 00
	00		 mov	 DWORD PTR [esi+2376], eax
  029e0	ff d7		 call	 edi

; 901  : 	this->GoldenDrop.level44 = GetPrivateProfileInt("Dragon","ItemLevel",0,GoldenDrop_DIR);

  029e2	68 00 00 00 00	 push	 OFFSET ??_C@_0CN@DJEEGMHO@?4?4?2Data?2ZtData?2Events?2GoldenInva@
  029e7	6a 00		 push	 0
  029e9	68 00 00 00 00	 push	 OFFSET ??_C@_09EBLHEKMK@ItemLevel?$AA@
  029ee	68 00 00 00 00	 push	 OFFSET ??_C@_06COGLIGFC@Dragon?$AA@
  029f3	89 86 4c 09 00
	00		 mov	 DWORD PTR [esi+2380], eax
  029f9	ff d7		 call	 edi

; 902  : 
; 903  : 	this->GoldenDrop.ItemType43 = GetPrivateProfileInt("GoldenBudgeDragon","ItemType",14,GoldenDrop_DIR);

  029fb	68 00 00 00 00	 push	 OFFSET ??_C@_0CN@DJEEGMHO@?4?4?2Data?2ZtData?2Events?2GoldenInva@
  02a00	6a 0e		 push	 14			; 0000000eH
  02a02	68 00 00 00 00	 push	 OFFSET ??_C@_08LJOGMPAO@ItemType?$AA@
  02a07	68 00 00 00 00	 push	 OFFSET ??_C@_0BC@LLLKPALN@GoldenBudgeDragon?$AA@
  02a0c	89 86 50 09 00
	00		 mov	 DWORD PTR [esi+2384], eax
  02a12	ff d7		 call	 edi

; 904  : 	this->GoldenDrop.ItemIndex43 = GetPrivateProfileInt("GoldenBudgeDragon","ItemIndex",11,GoldenDrop_DIR);

  02a14	68 00 00 00 00	 push	 OFFSET ??_C@_0CN@DJEEGMHO@?4?4?2Data?2ZtData?2Events?2GoldenInva@
  02a19	6a 0b		 push	 11			; 0000000bH
  02a1b	68 00 00 00 00	 push	 OFFSET ??_C@_09LCBEKCCJ@ItemIndex?$AA@
  02a20	68 00 00 00 00	 push	 OFFSET ??_C@_0BC@LLLKPALN@GoldenBudgeDragon?$AA@
  02a25	89 86 54 09 00
	00		 mov	 DWORD PTR [esi+2388], eax
  02a2b	ff d7		 call	 edi

; 905  : 	this->GoldenDrop.level43 = GetPrivateProfileInt("GoldenBudgeDragon","ItemLevel",8,GoldenDrop_DIR);

  02a2d	68 00 00 00 00	 push	 OFFSET ??_C@_0CN@DJEEGMHO@?4?4?2Data?2ZtData?2Events?2GoldenInva@
  02a32	6a 08		 push	 8
  02a34	68 00 00 00 00	 push	 OFFSET ??_C@_09EBLHEKMK@ItemLevel?$AA@
  02a39	68 00 00 00 00	 push	 OFFSET ??_C@_0BC@LLLKPALN@GoldenBudgeDragon?$AA@
  02a3e	89 86 58 09 00
	00		 mov	 DWORD PTR [esi+2392], eax
  02a44	ff d7		 call	 edi

; 906  : 
; 907  : 	this->GoldenDrop.ItemType78 = GetPrivateProfileInt("GoldenGoblin","ItemType",14,GoldenDrop_DIR);

  02a46	68 00 00 00 00	 push	 OFFSET ??_C@_0CN@DJEEGMHO@?4?4?2Data?2ZtData?2Events?2GoldenInva@
  02a4b	6a 0e		 push	 14			; 0000000eH
  02a4d	68 00 00 00 00	 push	 OFFSET ??_C@_08LJOGMPAO@ItemType?$AA@
  02a52	68 00 00 00 00	 push	 OFFSET ??_C@_0N@GNJACHAI@GoldenGoblin?$AA@
  02a57	89 86 5c 09 00
	00		 mov	 DWORD PTR [esi+2396], eax
  02a5d	ff d7		 call	 edi

; 908  : 	this->GoldenDrop.ItemIndex78 = GetPrivateProfileInt("GoldenGoblin","ItemIndex",11,GoldenDrop_DIR);

  02a5f	68 00 00 00 00	 push	 OFFSET ??_C@_0CN@DJEEGMHO@?4?4?2Data?2ZtData?2Events?2GoldenInva@
  02a64	6a 0b		 push	 11			; 0000000bH
  02a66	68 00 00 00 00	 push	 OFFSET ??_C@_09LCBEKCCJ@ItemIndex?$AA@
  02a6b	68 00 00 00 00	 push	 OFFSET ??_C@_0N@GNJACHAI@GoldenGoblin?$AA@
  02a70	89 86 60 09 00
	00		 mov	 DWORD PTR [esi+2400], eax
  02a76	ff d7		 call	 edi

; 909  : 	this->GoldenDrop.level78 = GetPrivateProfileInt("GoldenGoblin","ItemLevel",8,GoldenDrop_DIR);

  02a78	68 00 00 00 00	 push	 OFFSET ??_C@_0CN@DJEEGMHO@?4?4?2Data?2ZtData?2Events?2GoldenInva@
  02a7d	6a 08		 push	 8
  02a7f	68 00 00 00 00	 push	 OFFSET ??_C@_09EBLHEKMK@ItemLevel?$AA@
  02a84	68 00 00 00 00	 push	 OFFSET ??_C@_0N@GNJACHAI@GoldenGoblin?$AA@
  02a89	89 86 64 09 00
	00		 mov	 DWORD PTR [esi+2404], eax
  02a8f	ff d7		 call	 edi

; 910  : 
; 911  : 	this->GoldenDrop.ItemType493 = GetPrivateProfileInt("GoldenDarkKnight","ItemType",14,GoldenDrop_DIR);

  02a91	68 00 00 00 00	 push	 OFFSET ??_C@_0CN@DJEEGMHO@?4?4?2Data?2ZtData?2Events?2GoldenInva@
  02a96	6a 0e		 push	 14			; 0000000eH
  02a98	68 00 00 00 00	 push	 OFFSET ??_C@_08LJOGMPAO@ItemType?$AA@
  02a9d	68 00 00 00 00	 push	 OFFSET ??_C@_0BB@PMLMCGPG@GoldenDarkKnight?$AA@
  02aa2	89 86 68 09 00
	00		 mov	 DWORD PTR [esi+2408], eax
  02aa8	ff d7		 call	 edi

; 912  : 	this->GoldenDrop.ItemIndex493 = GetPrivateProfileInt("GoldenDarkKnight","ItemIndex",11,GoldenDrop_DIR);

  02aaa	68 00 00 00 00	 push	 OFFSET ??_C@_0CN@DJEEGMHO@?4?4?2Data?2ZtData?2Events?2GoldenInva@
  02aaf	6a 0b		 push	 11			; 0000000bH
  02ab1	68 00 00 00 00	 push	 OFFSET ??_C@_09LCBEKCCJ@ItemIndex?$AA@
  02ab6	68 00 00 00 00	 push	 OFFSET ??_C@_0BB@PMLMCGPG@GoldenDarkKnight?$AA@
  02abb	89 86 6c 09 00
	00		 mov	 DWORD PTR [esi+2412], eax
  02ac1	ff d7		 call	 edi

; 913  : 	this->GoldenDrop.level493 = GetPrivateProfileInt("GoldenDarkKnight","ItemLevel",8,GoldenDrop_DIR);

  02ac3	68 00 00 00 00	 push	 OFFSET ??_C@_0CN@DJEEGMHO@?4?4?2Data?2ZtData?2Events?2GoldenInva@
  02ac8	6a 08		 push	 8
  02aca	68 00 00 00 00	 push	 OFFSET ??_C@_09EBLHEKMK@ItemLevel?$AA@
  02acf	68 00 00 00 00	 push	 OFFSET ??_C@_0BB@PMLMCGPG@GoldenDarkKnight?$AA@
  02ad4	89 86 70 09 00
	00		 mov	 DWORD PTR [esi+2416], eax
  02ada	ff d7		 call	 edi

; 914  : 
; 915  : 	this->GoldenDrop.ItemType53 = GetPrivateProfileInt("GoldenTitan","ItemType",14,GoldenDrop_DIR);

  02adc	68 00 00 00 00	 push	 OFFSET ??_C@_0CN@DJEEGMHO@?4?4?2Data?2ZtData?2Events?2GoldenInva@
  02ae1	6a 0e		 push	 14			; 0000000eH
  02ae3	68 00 00 00 00	 push	 OFFSET ??_C@_08LJOGMPAO@ItemType?$AA@
  02ae8	68 00 00 00 00	 push	 OFFSET ??_C@_0M@NPCACHAI@GoldenTitan?$AA@
  02aed	89 86 74 09 00
	00		 mov	 DWORD PTR [esi+2420], eax
  02af3	ff d7		 call	 edi

; 916  : 	this->GoldenDrop.ItemIndex53 = GetPrivateProfileInt("GoldenTitan","ItemIndex",11,GoldenDrop_DIR);

  02af5	68 00 00 00 00	 push	 OFFSET ??_C@_0CN@DJEEGMHO@?4?4?2Data?2ZtData?2Events?2GoldenInva@
  02afa	6a 0b		 push	 11			; 0000000bH
  02afc	89 86 78 09 00
	00		 mov	 DWORD PTR [esi+2424], eax
  02b02	68 00 00 00 00	 push	 OFFSET ??_C@_09LCBEKCCJ@ItemIndex?$AA@
  02b07	68 00 00 00 00	 push	 OFFSET ??_C@_0M@NPCACHAI@GoldenTitan?$AA@
  02b0c	ff d7		 call	 edi

; 917  : 	this->GoldenDrop.level53 = GetPrivateProfileInt("GoldenTitan","ItemLevel",8,GoldenDrop_DIR);

  02b0e	68 00 00 00 00	 push	 OFFSET ??_C@_0CN@DJEEGMHO@?4?4?2Data?2ZtData?2Events?2GoldenInva@
  02b13	6a 08		 push	 8
  02b15	68 00 00 00 00	 push	 OFFSET ??_C@_09EBLHEKMK@ItemLevel?$AA@
  02b1a	68 00 00 00 00	 push	 OFFSET ??_C@_0M@NPCACHAI@GoldenTitan?$AA@
  02b1f	89 86 7c 09 00
	00		 mov	 DWORD PTR [esi+2428], eax
  02b25	ff d7		 call	 edi

; 918  : 
; 919  : 	this->GoldenDrop.ItemType54 = GetPrivateProfileInt("GoldenSoldier","ItemType",14,GoldenDrop_DIR);

  02b27	68 00 00 00 00	 push	 OFFSET ??_C@_0CN@DJEEGMHO@?4?4?2Data?2ZtData?2Events?2GoldenInva@
  02b2c	6a 0e		 push	 14			; 0000000eH
  02b2e	68 00 00 00 00	 push	 OFFSET ??_C@_08LJOGMPAO@ItemType?$AA@
  02b33	68 00 00 00 00	 push	 OFFSET ??_C@_0O@ONGBPJOA@GoldenSoldier?$AA@
  02b38	89 86 80 09 00
	00		 mov	 DWORD PTR [esi+2432], eax
  02b3e	ff d7		 call	 edi

; 920  : 	this->GoldenDrop.ItemIndex54 = GetPrivateProfileInt("GoldenSoldier","ItemIndex",11,GoldenDrop_DIR);

  02b40	68 00 00 00 00	 push	 OFFSET ??_C@_0CN@DJEEGMHO@?4?4?2Data?2ZtData?2Events?2GoldenInva@
  02b45	6a 0b		 push	 11			; 0000000bH
  02b47	68 00 00 00 00	 push	 OFFSET ??_C@_09LCBEKCCJ@ItemIndex?$AA@
  02b4c	68 00 00 00 00	 push	 OFFSET ??_C@_0O@ONGBPJOA@GoldenSoldier?$AA@
  02b51	89 86 84 09 00
	00		 mov	 DWORD PTR [esi+2436], eax
  02b57	ff d7		 call	 edi

; 921  : 	this->GoldenDrop.level54 = GetPrivateProfileInt("GoldenSoldier","ItemLevel",8,GoldenDrop_DIR);

  02b59	68 00 00 00 00	 push	 OFFSET ??_C@_0CN@DJEEGMHO@?4?4?2Data?2ZtData?2Events?2GoldenInva@
  02b5e	6a 08		 push	 8
  02b60	68 00 00 00 00	 push	 OFFSET ??_C@_09EBLHEKMK@ItemLevel?$AA@
  02b65	68 00 00 00 00	 push	 OFFSET ??_C@_0O@ONGBPJOA@GoldenSoldier?$AA@
  02b6a	89 86 88 09 00
	00		 mov	 DWORD PTR [esi+2440], eax
  02b70	ff d7		 call	 edi

; 922  : 
; 923  : 	this->GoldenDrop.ItemType80 = GetPrivateProfileInt("GoldenLizardKing","ItemType",14,GoldenDrop_DIR);

  02b72	68 00 00 00 00	 push	 OFFSET ??_C@_0CN@DJEEGMHO@?4?4?2Data?2ZtData?2Events?2GoldenInva@
  02b77	6a 0e		 push	 14			; 0000000eH
  02b79	68 00 00 00 00	 push	 OFFSET ??_C@_08LJOGMPAO@ItemType?$AA@
  02b7e	68 00 00 00 00	 push	 OFFSET ??_C@_0BB@NNGMMMAH@GoldenLizardKing?$AA@
  02b83	89 86 8c 09 00
	00		 mov	 DWORD PTR [esi+2444], eax
  02b89	ff d7		 call	 edi

; 924  : 	this->GoldenDrop.ItemIndex80 = GetPrivateProfileInt("GoldenLizardKing","ItemIndex",11,GoldenDrop_DIR);

  02b8b	68 00 00 00 00	 push	 OFFSET ??_C@_0CN@DJEEGMHO@?4?4?2Data?2ZtData?2Events?2GoldenInva@
  02b90	6a 0b		 push	 11			; 0000000bH
  02b92	68 00 00 00 00	 push	 OFFSET ??_C@_09LCBEKCCJ@ItemIndex?$AA@
  02b97	68 00 00 00 00	 push	 OFFSET ??_C@_0BB@NNGMMMAH@GoldenLizardKing?$AA@
  02b9c	89 86 90 09 00
	00		 mov	 DWORD PTR [esi+2448], eax
  02ba2	ff d7		 call	 edi

; 925  : 	this->GoldenDrop.level80 = GetPrivateProfileInt("GoldenLizardKing","ItemLevel",9,GoldenDrop_DIR);

  02ba4	68 00 00 00 00	 push	 OFFSET ??_C@_0CN@DJEEGMHO@?4?4?2Data?2ZtData?2Events?2GoldenInva@
  02ba9	6a 09		 push	 9
  02bab	68 00 00 00 00	 push	 OFFSET ??_C@_09EBLHEKMK@ItemLevel?$AA@
  02bb0	68 00 00 00 00	 push	 OFFSET ??_C@_0BB@NNGMMMAH@GoldenLizardKing?$AA@
  02bb5	89 86 94 09 00
	00		 mov	 DWORD PTR [esi+2452], eax
  02bbb	ff d7		 call	 edi

; 926  : 
; 927  : 	this->GoldenDrop.ItemType81 = GetPrivateProfileInt("GoldenVepar","ItemType",14,GoldenDrop_DIR);

  02bbd	68 00 00 00 00	 push	 OFFSET ??_C@_0CN@DJEEGMHO@?4?4?2Data?2ZtData?2Events?2GoldenInva@
  02bc2	6a 0e		 push	 14			; 0000000eH
  02bc4	68 00 00 00 00	 push	 OFFSET ??_C@_08LJOGMPAO@ItemType?$AA@
  02bc9	68 00 00 00 00	 push	 OFFSET ??_C@_0M@DOANKBAI@GoldenVepar?$AA@
  02bce	89 86 98 09 00
	00		 mov	 DWORD PTR [esi+2456], eax
  02bd4	ff d7		 call	 edi

; 928  : 	this->GoldenDrop.ItemIndex81 = GetPrivateProfileInt("GoldenVepar","ItemIndex",11,GoldenDrop_DIR);

  02bd6	68 00 00 00 00	 push	 OFFSET ??_C@_0CN@DJEEGMHO@?4?4?2Data?2ZtData?2Events?2GoldenInva@
  02bdb	6a 0b		 push	 11			; 0000000bH
  02bdd	68 00 00 00 00	 push	 OFFSET ??_C@_09LCBEKCCJ@ItemIndex?$AA@
  02be2	68 00 00 00 00	 push	 OFFSET ??_C@_0M@DOANKBAI@GoldenVepar?$AA@
  02be7	89 86 9c 09 00
	00		 mov	 DWORD PTR [esi+2460], eax
  02bed	ff d7		 call	 edi

; 929  : 	this->GoldenDrop.level81 = GetPrivateProfileInt("GoldenVepar","ItemLevel",9,GoldenDrop_DIR);

  02bef	68 00 00 00 00	 push	 OFFSET ??_C@_0CN@DJEEGMHO@?4?4?2Data?2ZtData?2Events?2GoldenInva@
  02bf4	6a 09		 push	 9
  02bf6	68 00 00 00 00	 push	 OFFSET ??_C@_09EBLHEKMK@ItemLevel?$AA@
  02bfb	68 00 00 00 00	 push	 OFFSET ??_C@_0M@DOANKBAI@GoldenVepar?$AA@
  02c00	89 86 a0 09 00
	00		 mov	 DWORD PTR [esi+2464], eax
  02c06	ff d7		 call	 edi

; 930  : 
; 931  : 	this->GoldenDrop.ItemType494 = GetPrivateProfileInt("GoldenDevil","ItemType",14,GoldenDrop_DIR);

  02c08	68 00 00 00 00	 push	 OFFSET ??_C@_0CN@DJEEGMHO@?4?4?2Data?2ZtData?2Events?2GoldenInva@
  02c0d	6a 0e		 push	 14			; 0000000eH
  02c0f	68 00 00 00 00	 push	 OFFSET ??_C@_08LJOGMPAO@ItemType?$AA@
  02c14	68 00 00 00 00	 push	 OFFSET ??_C@_0M@IPCKDDCD@GoldenDevil?$AA@
  02c19	89 86 a4 09 00
	00		 mov	 DWORD PTR [esi+2468], eax
  02c1f	ff d7		 call	 edi

; 932  : 	this->GoldenDrop.ItemIndex494 = GetPrivateProfileInt("GoldenDevil","ItemIndex",11,GoldenDrop_DIR);

  02c21	68 00 00 00 00	 push	 OFFSET ??_C@_0CN@DJEEGMHO@?4?4?2Data?2ZtData?2Events?2GoldenInva@
  02c26	6a 0b		 push	 11			; 0000000bH
  02c28	68 00 00 00 00	 push	 OFFSET ??_C@_09LCBEKCCJ@ItemIndex?$AA@
  02c2d	68 00 00 00 00	 push	 OFFSET ??_C@_0M@IPCKDDCD@GoldenDevil?$AA@
  02c32	89 86 a8 09 00
	00		 mov	 DWORD PTR [esi+2472], eax
  02c38	ff d7		 call	 edi

; 933  : 	this->GoldenDrop.level494 = GetPrivateProfileInt("GoldenDevil","ItemLevel",9,GoldenDrop_DIR);

  02c3a	68 00 00 00 00	 push	 OFFSET ??_C@_0CN@DJEEGMHO@?4?4?2Data?2ZtData?2Events?2GoldenInva@
  02c3f	6a 09		 push	 9
  02c41	68 00 00 00 00	 push	 OFFSET ??_C@_09EBLHEKMK@ItemLevel?$AA@
  02c46	68 00 00 00 00	 push	 OFFSET ??_C@_0M@IPCKDDCD@GoldenDevil?$AA@
  02c4b	89 86 ac 09 00
	00		 mov	 DWORD PTR [esi+2476], eax
  02c51	ff d7		 call	 edi
  02c53	89 86 b0 09 00
	00		 mov	 DWORD PTR [esi+2480], eax

; 934  : 
; 935  : 	this->GoldenDrop.ItemType82 = GetPrivateProfileInt("GoldenTantalos","ItemType",14,GoldenDrop_DIR);

  02c59	68 00 00 00 00	 push	 OFFSET ??_C@_0CN@DJEEGMHO@?4?4?2Data?2ZtData?2Events?2GoldenInva@
  02c5e	6a 0e		 push	 14			; 0000000eH
  02c60	68 00 00 00 00	 push	 OFFSET ??_C@_08LJOGMPAO@ItemType?$AA@
  02c65	68 00 00 00 00	 push	 OFFSET ??_C@_0P@BINBPBJF@GoldenTantalos?$AA@
  02c6a	ff d7		 call	 edi

; 936  : 	this->GoldenDrop.ItemIndex82 = GetPrivateProfileInt("GoldenTantalos","ItemIndex",11,GoldenDrop_DIR);

  02c6c	68 00 00 00 00	 push	 OFFSET ??_C@_0CN@DJEEGMHO@?4?4?2Data?2ZtData?2Events?2GoldenInva@
  02c71	6a 0b		 push	 11			; 0000000bH
  02c73	68 00 00 00 00	 push	 OFFSET ??_C@_09LCBEKCCJ@ItemIndex?$AA@
  02c78	68 00 00 00 00	 push	 OFFSET ??_C@_0P@BINBPBJF@GoldenTantalos?$AA@
  02c7d	89 86 b4 09 00
	00		 mov	 DWORD PTR [esi+2484], eax
  02c83	ff d7		 call	 edi

; 937  : 	this->GoldenDrop.level82 = GetPrivateProfileInt("GoldenTantalos","ItemLevel",10,GoldenDrop_DIR);

  02c85	68 00 00 00 00	 push	 OFFSET ??_C@_0CN@DJEEGMHO@?4?4?2Data?2ZtData?2Events?2GoldenInva@
  02c8a	6a 0a		 push	 10			; 0000000aH
  02c8c	68 00 00 00 00	 push	 OFFSET ??_C@_09EBLHEKMK@ItemLevel?$AA@
  02c91	68 00 00 00 00	 push	 OFFSET ??_C@_0P@BINBPBJF@GoldenTantalos?$AA@
  02c96	89 86 b8 09 00
	00		 mov	 DWORD PTR [esi+2488], eax
  02c9c	ff d7		 call	 edi

; 938  : 
; 939  : 	this->GoldenDrop.ItemType83 = GetPrivateProfileInt("GoldenWheel","ItemType",14,GoldenDrop_DIR);

  02c9e	68 00 00 00 00	 push	 OFFSET ??_C@_0CN@DJEEGMHO@?4?4?2Data?2ZtData?2Events?2GoldenInva@
  02ca3	6a 0e		 push	 14			; 0000000eH
  02ca5	68 00 00 00 00	 push	 OFFSET ??_C@_08LJOGMPAO@ItemType?$AA@
  02caa	68 00 00 00 00	 push	 OFFSET ??_C@_0M@LJEOIGLC@GoldenWheel?$AA@
  02caf	89 86 bc 09 00
	00		 mov	 DWORD PTR [esi+2492], eax
  02cb5	ff d7		 call	 edi

; 940  : 	this->GoldenDrop.ItemIndex83 = GetPrivateProfileInt("GoldenWheel","ItemIndex",11,GoldenDrop_DIR);

  02cb7	68 00 00 00 00	 push	 OFFSET ??_C@_0CN@DJEEGMHO@?4?4?2Data?2ZtData?2Events?2GoldenInva@
  02cbc	6a 0b		 push	 11			; 0000000bH
  02cbe	68 00 00 00 00	 push	 OFFSET ??_C@_09LCBEKCCJ@ItemIndex?$AA@
  02cc3	68 00 00 00 00	 push	 OFFSET ??_C@_0M@LJEOIGLC@GoldenWheel?$AA@
  02cc8	89 86 c0 09 00
	00		 mov	 DWORD PTR [esi+2496], eax
  02cce	ff d7		 call	 edi

; 941  : 	this->GoldenDrop.level83 = GetPrivateProfileInt("GoldenWheel","ItemLevel",10,GoldenDrop_DIR);

  02cd0	68 00 00 00 00	 push	 OFFSET ??_C@_0CN@DJEEGMHO@?4?4?2Data?2ZtData?2Events?2GoldenInva@
  02cd5	6a 0a		 push	 10			; 0000000aH
  02cd7	68 00 00 00 00	 push	 OFFSET ??_C@_09EBLHEKMK@ItemLevel?$AA@
  02cdc	68 00 00 00 00	 push	 OFFSET ??_C@_0M@LJEOIGLC@GoldenWheel?$AA@
  02ce1	89 86 c4 09 00
	00		 mov	 DWORD PTR [esi+2500], eax
  02ce7	ff d7		 call	 edi

; 942  : 
; 943  : 	this->GoldenDrop.ItemType495 = GetPrivateProfileInt("GoldenGolem","ItemType",14,GoldenDrop_DIR);

  02ce9	68 00 00 00 00	 push	 OFFSET ??_C@_0CN@DJEEGMHO@?4?4?2Data?2ZtData?2Events?2GoldenInva@
  02cee	6a 0e		 push	 14			; 0000000eH
  02cf0	68 00 00 00 00	 push	 OFFSET ??_C@_08LJOGMPAO@ItemType?$AA@
  02cf5	68 00 00 00 00	 push	 OFFSET ??_C@_0M@GMKLCGPC@GoldenGolem?$AA@
  02cfa	89 86 c8 09 00
	00		 mov	 DWORD PTR [esi+2504], eax
  02d00	ff d7		 call	 edi

; 944  : 	this->GoldenDrop.ItemIndex495 = GetPrivateProfileInt("GoldenGolem","ItemIndex",11,GoldenDrop_DIR);

  02d02	68 00 00 00 00	 push	 OFFSET ??_C@_0CN@DJEEGMHO@?4?4?2Data?2ZtData?2Events?2GoldenInva@
  02d07	6a 0b		 push	 11			; 0000000bH
  02d09	68 00 00 00 00	 push	 OFFSET ??_C@_09LCBEKCCJ@ItemIndex?$AA@
  02d0e	68 00 00 00 00	 push	 OFFSET ??_C@_0M@GMKLCGPC@GoldenGolem?$AA@
  02d13	89 86 cc 09 00
	00		 mov	 DWORD PTR [esi+2508], eax
  02d19	ff d7		 call	 edi

; 945  : 	this->GoldenDrop.level495 = GetPrivateProfileInt("GoldenGolem","ItemLevel",10,GoldenDrop_DIR);

  02d1b	68 00 00 00 00	 push	 OFFSET ??_C@_0CN@DJEEGMHO@?4?4?2Data?2ZtData?2Events?2GoldenInva@
  02d20	6a 0a		 push	 10			; 0000000aH
  02d22	68 00 00 00 00	 push	 OFFSET ??_C@_09EBLHEKMK@ItemLevel?$AA@
  02d27	68 00 00 00 00	 push	 OFFSET ??_C@_0M@GMKLCGPC@GoldenGolem?$AA@
  02d2c	89 86 d0 09 00
	00		 mov	 DWORD PTR [esi+2512], eax
  02d32	ff d7		 call	 edi

; 946  : 
; 947  : 	this->GoldenDrop.ItemType496 = GetPrivateProfileInt("GoldenCrust","ItemType",14,GoldenDrop_DIR);

  02d34	68 00 00 00 00	 push	 OFFSET ??_C@_0CN@DJEEGMHO@?4?4?2Data?2ZtData?2Events?2GoldenInva@
  02d39	6a 0e		 push	 14			; 0000000eH
  02d3b	68 00 00 00 00	 push	 OFFSET ??_C@_08LJOGMPAO@ItemType?$AA@
  02d40	68 00 00 00 00	 push	 OFFSET ??_C@_0M@MBPAFJBI@GoldenCrust?$AA@
  02d45	89 86 d4 09 00
	00		 mov	 DWORD PTR [esi+2516], eax
  02d4b	ff d7		 call	 edi

; 948  : 	this->GoldenDrop.ItemIndex496 = GetPrivateProfileInt("GoldenCrust","ItemIndex",11,GoldenDrop_DIR);

  02d4d	68 00 00 00 00	 push	 OFFSET ??_C@_0CN@DJEEGMHO@?4?4?2Data?2ZtData?2Events?2GoldenInva@
  02d52	6a 0b		 push	 11			; 0000000bH
  02d54	68 00 00 00 00	 push	 OFFSET ??_C@_09LCBEKCCJ@ItemIndex?$AA@
  02d59	68 00 00 00 00	 push	 OFFSET ??_C@_0M@MBPAFJBI@GoldenCrust?$AA@
  02d5e	89 86 d8 09 00
	00		 mov	 DWORD PTR [esi+2520], eax
  02d64	ff d7		 call	 edi

; 949  : 	this->GoldenDrop.level496 = GetPrivateProfileInt("GoldenCrust","ItemLevel",10,GoldenDrop_DIR);

  02d66	68 00 00 00 00	 push	 OFFSET ??_C@_0CN@DJEEGMHO@?4?4?2Data?2ZtData?2Events?2GoldenInva@
  02d6b	6a 0a		 push	 10			; 0000000aH
  02d6d	68 00 00 00 00	 push	 OFFSET ??_C@_09EBLHEKMK@ItemLevel?$AA@
  02d72	68 00 00 00 00	 push	 OFFSET ??_C@_0M@MBPAFJBI@GoldenCrust?$AA@
  02d77	89 86 dc 09 00
	00		 mov	 DWORD PTR [esi+2524], eax
  02d7d	ff d7		 call	 edi

; 950  : 
; 951  : 	this->GoldenDrop.ItemType497 = GetPrivateProfileInt("GoldenSatyrus","ItemType",14,GoldenDrop_DIR);

  02d7f	68 00 00 00 00	 push	 OFFSET ??_C@_0CN@DJEEGMHO@?4?4?2Data?2ZtData?2Events?2GoldenInva@
  02d84	6a 0e		 push	 14			; 0000000eH
  02d86	68 00 00 00 00	 push	 OFFSET ??_C@_08LJOGMPAO@ItemType?$AA@
  02d8b	68 00 00 00 00	 push	 OFFSET ??_C@_0O@EIIOBDNH@GoldenSatyrus?$AA@
  02d90	89 86 e0 09 00
	00		 mov	 DWORD PTR [esi+2528], eax
  02d96	ff d7		 call	 edi

; 952  : 	this->GoldenDrop.ItemIndex497 = GetPrivateProfileInt("GoldenSatyrus","ItemIndex",11,GoldenDrop_DIR);

  02d98	68 00 00 00 00	 push	 OFFSET ??_C@_0CN@DJEEGMHO@?4?4?2Data?2ZtData?2Events?2GoldenInva@
  02d9d	6a 0b		 push	 11			; 0000000bH
  02d9f	89 86 e4 09 00
	00		 mov	 DWORD PTR [esi+2532], eax
  02da5	68 00 00 00 00	 push	 OFFSET ??_C@_09LCBEKCCJ@ItemIndex?$AA@
  02daa	68 00 00 00 00	 push	 OFFSET ??_C@_0O@EIIOBDNH@GoldenSatyrus?$AA@
  02daf	ff d7		 call	 edi

; 953  : 	this->GoldenDrop.level497 = GetPrivateProfileInt("GoldenSatyrus","ItemLevel",11,GoldenDrop_DIR);

  02db1	68 00 00 00 00	 push	 OFFSET ??_C@_0CN@DJEEGMHO@?4?4?2Data?2ZtData?2Events?2GoldenInva@
  02db6	6a 0b		 push	 11			; 0000000bH
  02db8	68 00 00 00 00	 push	 OFFSET ??_C@_09EBLHEKMK@ItemLevel?$AA@
  02dbd	68 00 00 00 00	 push	 OFFSET ??_C@_0O@EIIOBDNH@GoldenSatyrus?$AA@
  02dc2	89 86 e8 09 00
	00		 mov	 DWORD PTR [esi+2536], eax
  02dc8	ff d7		 call	 edi

; 954  : 
; 955  : 	this->GoldenDrop.ItemType498 = GetPrivateProfileInt("GoldenTwinTale","ItemType",14,GoldenDrop_DIR);

  02dca	68 00 00 00 00	 push	 OFFSET ??_C@_0CN@DJEEGMHO@?4?4?2Data?2ZtData?2Events?2GoldenInva@
  02dcf	6a 0e		 push	 14			; 0000000eH
  02dd1	68 00 00 00 00	 push	 OFFSET ??_C@_08LJOGMPAO@ItemType?$AA@
  02dd6	68 00 00 00 00	 push	 OFFSET ??_C@_0P@EAJKDCOP@GoldenTwinTale?$AA@
  02ddb	89 86 ec 09 00
	00		 mov	 DWORD PTR [esi+2540], eax
  02de1	ff d7		 call	 edi

; 956  : 	this->GoldenDrop.ItemIndex498 = GetPrivateProfileInt("GoldenTwinTale","ItemIndex",11,GoldenDrop_DIR);

  02de3	68 00 00 00 00	 push	 OFFSET ??_C@_0CN@DJEEGMHO@?4?4?2Data?2ZtData?2Events?2GoldenInva@
  02de8	6a 0b		 push	 11			; 0000000bH
  02dea	68 00 00 00 00	 push	 OFFSET ??_C@_09LCBEKCCJ@ItemIndex?$AA@
  02def	68 00 00 00 00	 push	 OFFSET ??_C@_0P@EAJKDCOP@GoldenTwinTale?$AA@
  02df4	89 86 f0 09 00
	00		 mov	 DWORD PTR [esi+2544], eax
  02dfa	ff d7		 call	 edi

; 957  : 	this->GoldenDrop.level498 = GetPrivateProfileInt("GoldenTwinTale","ItemLevel",11,GoldenDrop_DIR);

  02dfc	68 00 00 00 00	 push	 OFFSET ??_C@_0CN@DJEEGMHO@?4?4?2Data?2ZtData?2Events?2GoldenInva@
  02e01	6a 0b		 push	 11			; 0000000bH
  02e03	68 00 00 00 00	 push	 OFFSET ??_C@_09EBLHEKMK@ItemLevel?$AA@
  02e08	68 00 00 00 00	 push	 OFFSET ??_C@_0P@EAJKDCOP@GoldenTwinTale?$AA@
  02e0d	89 86 f4 09 00
	00		 mov	 DWORD PTR [esi+2548], eax
  02e13	ff d7		 call	 edi

; 958  : 
; 959  : 	this->GoldenDrop.ItemType499 = GetPrivateProfileInt("GoldenIronKnight","ItemType",14,GoldenDrop_DIR);

  02e15	68 00 00 00 00	 push	 OFFSET ??_C@_0CN@DJEEGMHO@?4?4?2Data?2ZtData?2Events?2GoldenInva@
  02e1a	6a 0e		 push	 14			; 0000000eH
  02e1c	68 00 00 00 00	 push	 OFFSET ??_C@_08LJOGMPAO@ItemType?$AA@
  02e21	68 00 00 00 00	 push	 OFFSET ??_C@_0BB@OONOPKFI@GoldenIronKnight?$AA@
  02e26	89 86 f8 09 00
	00		 mov	 DWORD PTR [esi+2552], eax
  02e2c	ff d7		 call	 edi

; 960  : 	this->GoldenDrop.ItemIndex499 = GetPrivateProfileInt("GoldenIronKnight","ItemIndex",11,GoldenDrop_DIR);

  02e2e	68 00 00 00 00	 push	 OFFSET ??_C@_0CN@DJEEGMHO@?4?4?2Data?2ZtData?2Events?2GoldenInva@
  02e33	6a 0b		 push	 11			; 0000000bH
  02e35	68 00 00 00 00	 push	 OFFSET ??_C@_09LCBEKCCJ@ItemIndex?$AA@
  02e3a	68 00 00 00 00	 push	 OFFSET ??_C@_0BB@OONOPKFI@GoldenIronKnight?$AA@
  02e3f	89 86 fc 09 00
	00		 mov	 DWORD PTR [esi+2556], eax
  02e45	ff d7		 call	 edi

; 961  : 	this->GoldenDrop.level499 = GetPrivateProfileInt("GoldenIronKnight","ItemLevel",12,GoldenDrop_DIR);

  02e47	68 00 00 00 00	 push	 OFFSET ??_C@_0CN@DJEEGMHO@?4?4?2Data?2ZtData?2Events?2GoldenInva@
  02e4c	6a 0c		 push	 12			; 0000000cH
  02e4e	68 00 00 00 00	 push	 OFFSET ??_C@_09EBLHEKMK@ItemLevel?$AA@
  02e53	68 00 00 00 00	 push	 OFFSET ??_C@_0BB@OONOPKFI@GoldenIronKnight?$AA@
  02e58	89 86 00 0a 00
	00		 mov	 DWORD PTR [esi+2560], eax
  02e5e	ff d7		 call	 edi

; 962  : 
; 963  : 	this->GoldenDrop.ItemType500 = GetPrivateProfileInt("GoldenNapin","ItemType",14,GoldenDrop_DIR);

  02e60	68 00 00 00 00	 push	 OFFSET ??_C@_0CN@DJEEGMHO@?4?4?2Data?2ZtData?2Events?2GoldenInva@
  02e65	6a 0e		 push	 14			; 0000000eH
  02e67	68 00 00 00 00	 push	 OFFSET ??_C@_08LJOGMPAO@ItemType?$AA@
  02e6c	68 00 00 00 00	 push	 OFFSET ??_C@_0M@MMGMILNL@GoldenNapin?$AA@
  02e71	89 86 04 0a 00
	00		 mov	 DWORD PTR [esi+2564], eax
  02e77	ff d7		 call	 edi

; 964  : 	this->GoldenDrop.ItemIndex500 = GetPrivateProfileInt("GoldenNapin","ItemIndex",11,GoldenDrop_DIR);

  02e79	68 00 00 00 00	 push	 OFFSET ??_C@_0CN@DJEEGMHO@?4?4?2Data?2ZtData?2Events?2GoldenInva@
  02e7e	6a 0b		 push	 11			; 0000000bH
  02e80	68 00 00 00 00	 push	 OFFSET ??_C@_09LCBEKCCJ@ItemIndex?$AA@
  02e85	68 00 00 00 00	 push	 OFFSET ??_C@_0M@MMGMILNL@GoldenNapin?$AA@
  02e8a	89 86 08 0a 00
	00		 mov	 DWORD PTR [esi+2568], eax
  02e90	ff d7		 call	 edi

; 965  : 	this->GoldenDrop.level500 = GetPrivateProfileInt("GoldenNapin","ItemLevel",12,GoldenDrop_DIR);

  02e92	68 00 00 00 00	 push	 OFFSET ??_C@_0CN@DJEEGMHO@?4?4?2Data?2ZtData?2Events?2GoldenInva@
  02e97	6a 0c		 push	 12			; 0000000cH
  02e99	68 00 00 00 00	 push	 OFFSET ??_C@_09EBLHEKMK@ItemLevel?$AA@
  02e9e	68 00 00 00 00	 push	 OFFSET ??_C@_0M@MMGMILNL@GoldenNapin?$AA@
  02ea3	89 86 0c 0a 00
	00		 mov	 DWORD PTR [esi+2572], eax
  02ea9	ff d7		 call	 edi

; 966  : 
; 967  : 	this->GoldenDrop.ItemType79 = GetPrivateProfileInt("GoldenDragon","ItemType",14,GoldenDrop_DIR);

  02eab	68 00 00 00 00	 push	 OFFSET ??_C@_0CN@DJEEGMHO@?4?4?2Data?2ZtData?2Events?2GoldenInva@
  02eb0	6a 0e		 push	 14			; 0000000eH
  02eb2	68 00 00 00 00	 push	 OFFSET ??_C@_08LJOGMPAO@ItemType?$AA@
  02eb7	68 00 00 00 00	 push	 OFFSET ??_C@_0N@HHBMKNLD@GoldenDragon?$AA@
  02ebc	89 86 10 0a 00
	00		 mov	 DWORD PTR [esi+2576], eax
  02ec2	ff d7		 call	 edi

; 968  : 	this->GoldenDrop.ItemIndex79 = GetPrivateProfileInt("GoldenDragon","ItemIndex",11,GoldenDrop_DIR);

  02ec4	68 00 00 00 00	 push	 OFFSET ??_C@_0CN@DJEEGMHO@?4?4?2Data?2ZtData?2Events?2GoldenInva@
  02ec9	6a 0b		 push	 11			; 0000000bH
  02ecb	68 00 00 00 00	 push	 OFFSET ??_C@_09LCBEKCCJ@ItemIndex?$AA@
  02ed0	68 00 00 00 00	 push	 OFFSET ??_C@_0N@HHBMKNLD@GoldenDragon?$AA@
  02ed5	89 86 14 0a 00
	00		 mov	 DWORD PTR [esi+2580], eax
  02edb	ff d7		 call	 edi

; 969  : 	this->GoldenDrop.randlevel1_79 = GetPrivateProfileInt("GoldenDragon","randlevel1",8,GoldenDrop_DIR);

  02edd	68 00 00 00 00	 push	 OFFSET ??_C@_0CN@DJEEGMHO@?4?4?2Data?2ZtData?2Events?2GoldenInva@
  02ee2	6a 08		 push	 8
  02ee4	68 00 00 00 00	 push	 OFFSET ??_C@_0L@CFMGKBMI@randlevel1?$AA@
  02ee9	68 00 00 00 00	 push	 OFFSET ??_C@_0N@HHBMKNLD@GoldenDragon?$AA@
  02eee	89 86 18 0a 00
	00		 mov	 DWORD PTR [esi+2584], eax
  02ef4	ff d7		 call	 edi
  02ef6	89 86 1c 0a 00
	00		 mov	 DWORD PTR [esi+2588], eax

; 970  : 	this->GoldenDrop.randlevel2_79 = GetPrivateProfileInt("GoldenDragon","randlevel2",9,GoldenDrop_DIR);

  02efc	68 00 00 00 00	 push	 OFFSET ??_C@_0CN@DJEEGMHO@?4?4?2Data?2ZtData?2Events?2GoldenInva@
  02f01	6a 09		 push	 9
  02f03	68 00 00 00 00	 push	 OFFSET ??_C@_0L@OOLPCAL@randlevel2?$AA@
  02f08	68 00 00 00 00	 push	 OFFSET ??_C@_0N@HHBMKNLD@GoldenDragon?$AA@
  02f0d	ff d7		 call	 edi

; 971  : 	this->GoldenDrop.randlevel3_79 = GetPrivateProfileInt("GoldenDragon","randlevel3",10,GoldenDrop_DIR);

  02f0f	68 00 00 00 00	 push	 OFFSET ??_C@_0CN@DJEEGMHO@?4?4?2Data?2ZtData?2Events?2GoldenInva@
  02f14	6a 0a		 push	 10			; 0000000aH
  02f16	68 00 00 00 00	 push	 OFFSET ??_C@_0L@BHPAMDEK@randlevel3?$AA@
  02f1b	68 00 00 00 00	 push	 OFFSET ??_C@_0N@HHBMKNLD@GoldenDragon?$AA@
  02f20	89 86 20 0a 00
	00		 mov	 DWORD PTR [esi+2592], eax
  02f26	ff d7		 call	 edi

; 972  : 	this->GoldenDrop.countitem79 = GetPrivateProfileInt("GoldenDragon","countitem",5,GoldenDrop_DIR);

  02f28	68 00 00 00 00	 push	 OFFSET ??_C@_0CN@DJEEGMHO@?4?4?2Data?2ZtData?2Events?2GoldenInva@
  02f2d	6a 05		 push	 5
  02f2f	68 00 00 00 00	 push	 OFFSET ??_C@_09OEMFLPMC@countitem?$AA@
  02f34	68 00 00 00 00	 push	 OFFSET ??_C@_0N@HHBMKNLD@GoldenDragon?$AA@
  02f39	89 86 24 0a 00
	00		 mov	 DWORD PTR [esi+2596], eax
  02f3f	ff d7		 call	 edi

; 973  : 
; 974  : 	this->GoldenDrop.ItemType501 = GetPrivateProfileInt("GoldenGreatDragon","ItemType",14,GoldenDrop_DIR);

  02f41	68 00 00 00 00	 push	 OFFSET ??_C@_0CN@DJEEGMHO@?4?4?2Data?2ZtData?2Events?2GoldenInva@
  02f46	6a 0e		 push	 14			; 0000000eH
  02f48	68 00 00 00 00	 push	 OFFSET ??_C@_08LJOGMPAO@ItemType?$AA@
  02f4d	68 00 00 00 00	 push	 OFFSET ??_C@_0BC@CGOLLBCP@GoldenGreatDragon?$AA@
  02f52	89 86 28 0a 00
	00		 mov	 DWORD PTR [esi+2600], eax
  02f58	ff d7		 call	 edi

; 975  : 	this->GoldenDrop.ItemIndex501 = GetPrivateProfileInt("GoldenGreatDragon","ItemIndex",11,GoldenDrop_DIR);

  02f5a	68 00 00 00 00	 push	 OFFSET ??_C@_0CN@DJEEGMHO@?4?4?2Data?2ZtData?2Events?2GoldenInva@
  02f5f	6a 0b		 push	 11			; 0000000bH
  02f61	68 00 00 00 00	 push	 OFFSET ??_C@_09LCBEKCCJ@ItemIndex?$AA@
  02f66	68 00 00 00 00	 push	 OFFSET ??_C@_0BC@CGOLLBCP@GoldenGreatDragon?$AA@
  02f6b	89 86 2c 0a 00
	00		 mov	 DWORD PTR [esi+2604], eax
  02f71	ff d7		 call	 edi

; 976  : 	this->GoldenDrop.randlevel1_501 = GetPrivateProfileInt("GoldenGreatDragon","randlevel1",11,GoldenDrop_DIR);

  02f73	68 00 00 00 00	 push	 OFFSET ??_C@_0CN@DJEEGMHO@?4?4?2Data?2ZtData?2Events?2GoldenInva@
  02f78	6a 0b		 push	 11			; 0000000bH
  02f7a	68 00 00 00 00	 push	 OFFSET ??_C@_0L@CFMGKBMI@randlevel1?$AA@
  02f7f	68 00 00 00 00	 push	 OFFSET ??_C@_0BC@CGOLLBCP@GoldenGreatDragon?$AA@
  02f84	89 86 30 0a 00
	00		 mov	 DWORD PTR [esi+2608], eax
  02f8a	ff d7		 call	 edi

; 977  : 	this->GoldenDrop.randlevel2_501 = GetPrivateProfileInt("GoldenGreatDragon","randlevel2",12,GoldenDrop_DIR);

  02f8c	68 00 00 00 00	 push	 OFFSET ??_C@_0CN@DJEEGMHO@?4?4?2Data?2ZtData?2Events?2GoldenInva@
  02f91	6a 0c		 push	 12			; 0000000cH
  02f93	68 00 00 00 00	 push	 OFFSET ??_C@_0L@OOLPCAL@randlevel2?$AA@
  02f98	68 00 00 00 00	 push	 OFFSET ??_C@_0BC@CGOLLBCP@GoldenGreatDragon?$AA@
  02f9d	89 86 34 0a 00
	00		 mov	 DWORD PTR [esi+2612], eax
  02fa3	ff d7		 call	 edi

; 978  : 	this->GoldenDrop.countitem501 = GetPrivateProfileInt("GoldenGreatDragon","countitem",5,GoldenDrop_DIR);

  02fa5	68 00 00 00 00	 push	 OFFSET ??_C@_0CN@DJEEGMHO@?4?4?2Data?2ZtData?2Events?2GoldenInva@
  02faa	6a 05		 push	 5
  02fac	68 00 00 00 00	 push	 OFFSET ??_C@_09OEMFLPMC@countitem?$AA@
  02fb1	68 00 00 00 00	 push	 OFFSET ??_C@_0BC@CGOLLBCP@GoldenGreatDragon?$AA@
  02fb6	89 86 38 0a 00
	00		 mov	 DWORD PTR [esi+2616], eax
  02fbc	ff d7		 call	 edi

; 979  : 
; 980  : 	//---------------------------------
; 981  : 	//			Player Connect
; 982  : 	//---------------------------------
; 983  : 
; 984  : 	this->PlayerConnect.EnablePlayerConnectSystem = GetPrivateProfileInt("Common","Enable",0,PlayerConnect_DIR);	

  02fbe	68 00 00 00 00	 push	 OFFSET ??_C@_0CB@OMLGHAKM@?4?4?2Data?2ZtData?2PlayerConnect?4ini@
  02fc3	6a 00		 push	 0
  02fc5	68 00 00 00 00	 push	 OFFSET ??_C@_06CKGENIKG@Enable?$AA@
  02fca	68 00 00 00 00	 push	 OFFSET ??_C@_06POMJKEPM@Common?$AA@
  02fcf	89 86 3c 0a 00
	00		 mov	 DWORD PTR [esi+2620], eax
  02fd5	ff d7		 call	 edi

; 985  : 	this->PlayerConnect.ShowReset = GetPrivateProfileInt("Common","ShowReset",0,PlayerConnect_DIR);

  02fd7	68 00 00 00 00	 push	 OFFSET ??_C@_0CB@OMLGHAKM@?4?4?2Data?2ZtData?2PlayerConnect?4ini@
  02fdc	6a 00		 push	 0
  02fde	68 00 00 00 00	 push	 OFFSET ??_C@_09OFLIDOEG@ShowReset?$AA@
  02fe3	68 00 00 00 00	 push	 OFFSET ??_C@_06POMJKEPM@Common?$AA@
  02fe8	89 86 40 0a 00
	00		 mov	 DWORD PTR [esi+2624], eax
  02fee	ff d7		 call	 edi

; 986  : 	this->PlayerConnect.ShowGReset = GetPrivateProfileInt("Common","ShowGReset",0,PlayerConnect_DIR);

  02ff0	68 00 00 00 00	 push	 OFFSET ??_C@_0CB@OMLGHAKM@?4?4?2Data?2ZtData?2PlayerConnect?4ini@
  02ff5	6a 00		 push	 0
  02ff7	68 00 00 00 00	 push	 OFFSET ??_C@_0L@HPKGMHDD@ShowGReset?$AA@
  02ffc	68 00 00 00 00	 push	 OFFSET ??_C@_06POMJKEPM@Common?$AA@
  03001	89 86 44 0a 00
	00		 mov	 DWORD PTR [esi+2628], eax
  03007	ff d7		 call	 edi

; 987  : 	this->PlayerConnect.ShowOnline = GetPrivateProfileInt("Common","ShowOnline",0,PlayerConnect_DIR);

  03009	68 00 00 00 00	 push	 OFFSET ??_C@_0CB@OMLGHAKM@?4?4?2Data?2ZtData?2PlayerConnect?4ini@
  0300e	6a 00		 push	 0
  03010	68 00 00 00 00	 push	 OFFSET ??_C@_0L@FCMJFHPJ@ShowOnline?$AA@
  03015	68 00 00 00 00	 push	 OFFSET ??_C@_06POMJKEPM@Common?$AA@
  0301a	89 86 48 0a 00
	00		 mov	 DWORD PTR [esi+2632], eax
  03020	ff d7		 call	 edi

; 988  : 
; 989  : 	this->PlayerConnect.ShowNameAll = GetPrivateProfileInt("Common","ShowNameAll",0,PlayerConnect_DIR);

  03022	68 00 00 00 00	 push	 OFFSET ??_C@_0CB@OMLGHAKM@?4?4?2Data?2ZtData?2PlayerConnect?4ini@
  03027	6a 00		 push	 0
  03029	68 00 00 00 00	 push	 OFFSET ??_C@_0M@MOLFGNHA@ShowNameAll?$AA@
  0302e	68 00 00 00 00	 push	 OFFSET ??_C@_06POMJKEPM@Common?$AA@
  03033	89 86 4c 0a 00
	00		 mov	 DWORD PTR [esi+2636], eax
  03039	ff d7		 call	 edi

; 990  : 	this->PlayerConnect.ShowNameColor = GetPrivateProfileInt("Common","ShowNameColor",0,PlayerConnect_DIR);

  0303b	68 00 00 00 00	 push	 OFFSET ??_C@_0CB@OMLGHAKM@?4?4?2Data?2ZtData?2PlayerConnect?4ini@
  03040	6a 00		 push	 0
  03042	89 86 50 0a 00
	00		 mov	 DWORD PTR [esi+2640], eax
  03048	68 00 00 00 00	 push	 OFFSET ??_C@_0O@EINGOGBE@ShowNameColor?$AA@
  0304d	68 00 00 00 00	 push	 OFFSET ??_C@_06POMJKEPM@Common?$AA@
  03052	ff d7		 call	 edi

; 991  : 	this->PlayerConnect.ShowGMAll = GetPrivateProfileInt("Common","ShowGMAll",0,PlayerConnect_DIR);

  03054	68 00 00 00 00	 push	 OFFSET ??_C@_0CB@OMLGHAKM@?4?4?2Data?2ZtData?2PlayerConnect?4ini@
  03059	6a 00		 push	 0
  0305b	68 00 00 00 00	 push	 OFFSET ??_C@_09JAPKFKFH@ShowGMAll?$AA@
  03060	68 00 00 00 00	 push	 OFFSET ??_C@_06POMJKEPM@Common?$AA@
  03065	89 86 54 0a 00
	00		 mov	 DWORD PTR [esi+2644], eax
  0306b	ff d7		 call	 edi

; 992  : 
; 993  : 	this->PlayerConnect.ShowWcoinC = GetPrivateProfileInt("Common","ShowWcoinC",0,PlayerConnect_DIR);

  0306d	68 00 00 00 00	 push	 OFFSET ??_C@_0CB@OMLGHAKM@?4?4?2Data?2ZtData?2PlayerConnect?4ini@
  03072	6a 00		 push	 0
  03074	68 00 00 00 00	 push	 OFFSET ??_C@_0L@DOBIGPHK@ShowWcoinC?$AA@
  03079	68 00 00 00 00	 push	 OFFSET ??_C@_06POMJKEPM@Common?$AA@
  0307e	89 86 58 0a 00
	00		 mov	 DWORD PTR [esi+2648], eax
  03084	ff d7		 call	 edi

; 994  : 	this->PlayerConnect.ShowGP = GetPrivateProfileInt("Common","ShowGP",0,PlayerConnect_DIR);

  03086	68 00 00 00 00	 push	 OFFSET ??_C@_0CB@OMLGHAKM@?4?4?2Data?2ZtData?2PlayerConnect?4ini@
  0308b	6a 00		 push	 0
  0308d	68 00 00 00 00	 push	 OFFSET ??_C@_06LGONOADE@ShowGP?$AA@
  03092	68 00 00 00 00	 push	 OFFSET ??_C@_06POMJKEPM@Common?$AA@
  03097	89 86 5c 0a 00
	00		 mov	 DWORD PTR [esi+2652], eax
  0309d	ff d7		 call	 edi

; 995  : 	this->PlayerConnect.ShowZtCredit = GetPrivateProfileInt("Common","ShowZtCredit",1,PlayerConnect_DIR);

  0309f	68 00 00 00 00	 push	 OFFSET ??_C@_0CB@OMLGHAKM@?4?4?2Data?2ZtData?2PlayerConnect?4ini@
  030a4	6a 01		 push	 1
  030a6	68 00 00 00 00	 push	 OFFSET ??_C@_0N@KIIAEHLD@ShowZtCredit?$AA@
  030ab	68 00 00 00 00	 push	 OFFSET ??_C@_06POMJKEPM@Common?$AA@
  030b0	89 86 60 0a 00
	00		 mov	 DWORD PTR [esi+2656], eax
  030b6	ff d7		 call	 edi
  030b8	89 86 64 0a 00
	00		 mov	 DWORD PTR [esi+2660], eax

; 996  : 
; 997  : 	if(this->PlayerConnect.ShowNameColor < 1 || this->PlayerConnect.ShowNameColor > 9)

  030be	8b 86 54 0a 00
	00		 mov	 eax, DWORD PTR [esi+2644]
  030c4	83 f8 01	 cmp	 eax, 1
  030c7	7c 05		 jl	 SHORT $LN24@LoadConfig
  030c9	83 f8 09	 cmp	 eax, 9
  030cc	7e 0a		 jle	 SHORT $LN25@LoadConfig
$LN24@LoadConfig:

; 998  : 	{
; 999  : 		this->PlayerConnect.ShowNameColor = 3;

  030ce	c7 86 54 0a 00
	00 03 00 00 00	 mov	 DWORD PTR [esi+2644], 3
$LN25@LoadConfig:

; 1000 : 	}
; 1001 : 
; 1002 : 	//=========================
; 1003 : 	//			Message Config
; 1004 : 	//===========================
; 1005 : #ifdef _MESSAGE_CONFIG_
; 1006 : 	GetPrivateProfileString("MessageConfig", "HappyHour","[Happy Hour] Event Start For %d Minutes",MessageConfig.HappyHour,100,MessageConfig_DIR);

  030d8	68 00 00 00 00	 push	 OFFSET ??_C@_0CB@NNPBLLBF@?4?4?2Data?2ZtData?2MessageConfig?4ini@
  030dd	6a 64		 push	 100			; 00000064H
  030df	8d 96 68 0a 00
	00		 lea	 edx, DWORD PTR [esi+2664]
  030e5	52		 push	 edx
  030e6	68 00 00 00 00	 push	 OFFSET ??_C@_0CI@GOEPAOAJ@?$FLHappy?5Hour?$FN?5Event?5Start?5For?5?$CFd?5@
  030eb	68 00 00 00 00	 push	 OFFSET ??_C@_09PCOABNJK@HappyHour?$AA@
  030f0	68 00 00 00 00	 push	 OFFSET ??_C@_0O@LIFHJMIC@MessageConfig?$AA@
  030f5	ff d3		 call	 ebx

; 1007 : 	GetPrivateProfileString("MessageConfig", "DropEvent","[Drop Event] Event Start For %d Minutes",MessageConfig.DropEvent,100,MessageConfig_DIR);

  030f7	68 00 00 00 00	 push	 OFFSET ??_C@_0CB@NNPBLLBF@?4?4?2Data?2ZtData?2MessageConfig?4ini@
  030fc	6a 64		 push	 100			; 00000064H
  030fe	8d 86 cc 0a 00
	00		 lea	 eax, DWORD PTR [esi+2764]
  03104	50		 push	 eax
  03105	68 00 00 00 00	 push	 OFFSET ??_C@_0CI@JCKJNPEA@?$FLDrop?5Event?$FN?5Event?5Start?5For?5?$CFd?5@
  0310a	68 00 00 00 00	 push	 OFFSET ??_C@_09JMDHGKGF@DropEvent?$AA@
  0310f	68 00 00 00 00	 push	 OFFSET ??_C@_0O@LIFHJMIC@MessageConfig?$AA@
  03114	ff d3		 call	 ebx

; 1008 : 	GetPrivateProfileString("MessageConfig", "SearchEvent","[Search Event] Event Start For %d Minutes",MessageConfig.SearchEvent,100,MessageConfig_DIR);

  03116	68 00 00 00 00	 push	 OFFSET ??_C@_0CB@NNPBLLBF@?4?4?2Data?2ZtData?2MessageConfig?4ini@
  0311b	6a 64		 push	 100			; 00000064H
  0311d	8d 8e 30 0b 00
	00		 lea	 ecx, DWORD PTR [esi+2864]
  03123	51		 push	 ecx
  03124	68 00 00 00 00	 push	 OFFSET ??_C@_0CK@PKJPGHPM@?$FLSearch?5Event?$FN?5Event?5Start?5For?5?$CF@
  03129	68 00 00 00 00	 push	 OFFSET ??_C@_0M@MEOEHJII@SearchEvent?$AA@
  0312e	68 00 00 00 00	 push	 OFFSET ??_C@_0O@LIFHJMIC@MessageConfig?$AA@
  03133	ff d3		 call	 ebx

; 1009 : #endif
; 1010 : #ifdef _CONFLICT_
; 1011 : 		if(g_ZtLicense.CheckUser(eZtUB::drynea))

  03135	6a 01		 push	 1
  03137	b9 00 00 00 00	 mov	 ecx, OFFSET ?g_ZtLicense@@3VCZtLicense@@A ; g_ZtLicense
  0313c	e8 00 00 00 00	 call	 ?CheckUser@CZtLicense@@QAE_NH@Z ; CZtLicense::CheckUser

; 1012 : 		{
; 1013 : 		this->GmMap.GmMap	= GetPrivateProfileInt("GmMap","GmMap",0,"..\\Data\\ZtData\\GmMap.ini");

  03141	33 db		 xor	 ebx, ebx
  03143	84 c0		 test	 al, al
  03145	74 48		 je	 SHORT $LN23@LoadConfig
  03147	68 00 00 00 00	 push	 OFFSET ??_C@_0BJ@LEEACENA@?4?4?2Data?2ZtData?2GmMap?4ini?$AA@
  0314c	53		 push	 ebx
  0314d	68 00 00 00 00	 push	 OFFSET ??_C@_05DCJGIPHF@GmMap?$AA@
  03152	68 00 00 00 00	 push	 OFFSET ??_C@_05DCJGIPHF@GmMap?$AA@
  03157	ff d7		 call	 edi

; 1014 : 		this->GmMap.GmX		= GetPrivateProfileInt("GmMap","GmX",0,"..\\Data\\ZtData\\GmMap.ini");

  03159	68 00 00 00 00	 push	 OFFSET ??_C@_0BJ@LEEACENA@?4?4?2Data?2ZtData?2GmMap?4ini?$AA@
  0315e	53		 push	 ebx
  0315f	68 00 00 00 00	 push	 OFFSET ??_C@_03OKBFMPEI@GmX?$AA@
  03164	68 00 00 00 00	 push	 OFFSET ??_C@_05DCJGIPHF@GmMap?$AA@
  03169	89 86 94 0b 00
	00		 mov	 DWORD PTR [esi+2964], eax
  0316f	ff d7		 call	 edi

; 1015 : 		this->GmMap.GMY		= GetPrivateProfileInt("GmMap","GmY",0,"..\\Data\\ZtData\\GmMap.ini");

  03171	68 00 00 00 00	 push	 OFFSET ??_C@_0BJ@LEEACENA@?4?4?2Data?2ZtData?2GmMap?4ini?$AA@
  03176	53		 push	 ebx
  03177	68 00 00 00 00	 push	 OFFSET ??_C@_03PDAOPOAJ@GmY?$AA@
  0317c	68 00 00 00 00	 push	 OFFSET ??_C@_05DCJGIPHF@GmMap?$AA@
  03181	89 86 98 0b 00
	00		 mov	 DWORD PTR [esi+2968], eax
  03187	ff d7		 call	 edi
  03189	89 86 9c 0b 00
	00		 mov	 DWORD PTR [esi+2972], eax
$LN23@LoadConfig:

; 1016 : 			
; 1017 : 		}
; 1018 : 
; 1019 : #endif
; 1020 : 
; 1021 : 
; 1022 : #ifdef PRIDEMU_CONFIG
; 1023 : 	if(g_ZtLicense.CheckUser(eZtUB::PrideMuLocal) || g_ZtLicense.CheckUser(eZtUB::PrideMu))

  0318f	6a 1a		 push	 26			; 0000001aH
  03191	b9 00 00 00 00	 mov	 ecx, OFFSET ?g_ZtLicense@@3VCZtLicense@@A ; g_ZtLicense
  03196	e8 00 00 00 00	 call	 ?CheckUser@CZtLicense@@QAE_NH@Z ; CZtLicense::CheckUser
  0319b	84 c0		 test	 al, al
  0319d	75 14		 jne	 SHORT $LN21@LoadConfig
  0319f	6a 11		 push	 17			; 00000011H
  031a1	b9 00 00 00 00	 mov	 ecx, OFFSET ?g_ZtLicense@@3VCZtLicense@@A ; g_ZtLicense
  031a6	e8 00 00 00 00	 call	 ?CheckUser@CZtLicense@@QAE_NH@Z ; CZtLicense::CheckUser
  031ab	84 c0		 test	 al, al
  031ad	0f 84 8b 02 00
	00		 je	 $LN22@LoadConfig
$LN21@LoadConfig:

; 1024 : 	{
; 1025 : 		PrideMu.MasterMoney =  GetPrivateProfileInt("MasterZen","MasterMoney",0,PrideMuConfig_DIR);

  031b3	68 00 00 00 00	 push	 OFFSET ??_C@_0CB@GGFIJGAD@?4?4?2Data?2ZtData?2PrideMuConfig?4ini@
  031b8	53		 push	 ebx
  031b9	68 00 00 00 00	 push	 OFFSET ??_C@_0M@CLMNLHID@MasterMoney?$AA@
  031be	68 00 00 00 00	 push	 OFFSET ??_C@_09MMCIGBFH@MasterZen?$AA@
  031c3	ff d7		 call	 edi

; 1026 : 		PrideMu.DiapasonMasterMoney =  GetPrivateProfileInt("MasterZen","DiapasonMasterMoney",1,PrideMuConfig_DIR);

  031c5	68 00 00 00 00	 push	 OFFSET ??_C@_0CB@GGFIJGAD@?4?4?2Data?2ZtData?2PrideMuConfig?4ini@
  031ca	6a 01		 push	 1
  031cc	68 00 00 00 00	 push	 OFFSET ??_C@_0BE@FDGOFHPP@DiapasonMasterMoney?$AA@
  031d1	68 00 00 00 00	 push	 OFFSET ??_C@_09MMCIGBFH@MasterZen?$AA@
  031d6	89 86 a0 0b 00
	00		 mov	 DWORD PTR [esi+2976], eax
  031dc	ff d7		 call	 edi

; 1027 : 
; 1028 : 		//Illusion Fenrir
; 1029 : 		PrideMu.AddLife =  GetPrivateProfileInt("Fenrir","AddLife",0,PrideMuConfig_DIR);

  031de	68 00 00 00 00	 push	 OFFSET ??_C@_0CB@GGFIJGAD@?4?4?2Data?2ZtData?2PrideMuConfig?4ini@
  031e3	53		 push	 ebx
  031e4	68 00 00 00 00	 push	 OFFSET ??_C@_07BMILOCOO@AddLife?$AA@
  031e9	68 00 00 00 00	 push	 OFFSET ??_C@_06KAEKLEML@Fenrir?$AA@
  031ee	89 86 a4 0b 00
	00		 mov	 DWORD PTR [esi+2980], eax
  031f4	ff d7		 call	 edi

; 1030 : 		PrideMu.AddMana =  GetPrivateProfileInt("Fenrir","AddMana",0,PrideMuConfig_DIR);

  031f6	68 00 00 00 00	 push	 OFFSET ??_C@_0CB@GGFIJGAD@?4?4?2Data?2ZtData?2PrideMuConfig?4ini@
  031fb	53		 push	 ebx
  031fc	68 00 00 00 00	 push	 OFFSET ??_C@_07IOCAHHAN@AddMana?$AA@
  03201	68 00 00 00 00	 push	 OFFSET ??_C@_06KAEKLEML@Fenrir?$AA@
  03206	89 86 a8 0b 00
	00		 mov	 DWORD PTR [esi+2984], eax
  0320c	ff d7		 call	 edi

; 1031 : 		PrideMu.AttackDamageMin =  GetPrivateProfileInt("Fenrir","AttackDamageMin",0,PrideMuConfig_DIR);

  0320e	68 00 00 00 00	 push	 OFFSET ??_C@_0CB@GGFIJGAD@?4?4?2Data?2ZtData?2PrideMuConfig?4ini@
  03213	53		 push	 ebx
  03214	68 00 00 00 00	 push	 OFFSET ??_C@_0BA@DIKOMNLA@AttackDamageMin?$AA@
  03219	68 00 00 00 00	 push	 OFFSET ??_C@_06KAEKLEML@Fenrir?$AA@
  0321e	89 86 ac 0b 00
	00		 mov	 DWORD PTR [esi+2988], eax
  03224	ff d7		 call	 edi

; 1032 : 		PrideMu.AttackDamageMax =  GetPrivateProfileInt("Fenrir","AttackDamageMax",0,PrideMuConfig_DIR);

  03226	68 00 00 00 00	 push	 OFFSET ??_C@_0CB@GGFIJGAD@?4?4?2Data?2ZtData?2PrideMuConfig?4ini@
  0322b	53		 push	 ebx
  0322c	68 00 00 00 00	 push	 OFFSET ??_C@_0BA@CKCFCJNP@AttackDamageMax?$AA@
  03231	68 00 00 00 00	 push	 OFFSET ??_C@_06KAEKLEML@Fenrir?$AA@
  03236	89 86 b0 0b 00
	00		 mov	 DWORD PTR [esi+2992], eax
  0323c	ff d7		 call	 edi

; 1033 : 		PrideMu.MagicDamageMin =  GetPrivateProfileInt("Fenrir","MagicDamageMin",0,PrideMuConfig_DIR);

  0323e	68 00 00 00 00	 push	 OFFSET ??_C@_0CB@GGFIJGAD@?4?4?2Data?2ZtData?2PrideMuConfig?4ini@
  03243	53		 push	 ebx
  03244	68 00 00 00 00	 push	 OFFSET ??_C@_0P@CLAFNACP@MagicDamageMin?$AA@
  03249	68 00 00 00 00	 push	 OFFSET ??_C@_06KAEKLEML@Fenrir?$AA@
  0324e	89 86 b4 0b 00
	00		 mov	 DWORD PTR [esi+2996], eax
  03254	ff d7		 call	 edi

; 1034 : 		PrideMu.MagicDamageMax =  GetPrivateProfileInt("Fenrir","MagicDamageMax",0,PrideMuConfig_DIR);

  03256	68 00 00 00 00	 push	 OFFSET ??_C@_0CB@GGFIJGAD@?4?4?2Data?2ZtData?2PrideMuConfig?4ini@
  0325b	53		 push	 ebx
  0325c	68 00 00 00 00	 push	 OFFSET ??_C@_0P@DJIODEEA@MagicDamageMax?$AA@
  03261	68 00 00 00 00	 push	 OFFSET ??_C@_06KAEKLEML@Fenrir?$AA@
  03266	89 86 b8 0b 00
	00		 mov	 DWORD PTR [esi+3000], eax
  0326c	ff d7		 call	 edi

; 1035 : 		//Protect Fenrir
; 1036 : 		PrideMu.DecPercent =  GetPrivateProfileInt("Fenrir","DecPercent",0,PrideMuConfig_DIR);

  0326e	68 00 00 00 00	 push	 OFFSET ??_C@_0CB@GGFIJGAD@?4?4?2Data?2ZtData?2PrideMuConfig?4ini@
  03273	53		 push	 ebx
  03274	68 00 00 00 00	 push	 OFFSET ??_C@_0L@LBPLDKBB@DecPercent?$AA@
  03279	68 00 00 00 00	 push	 OFFSET ??_C@_06KAEKLEML@Fenrir?$AA@
  0327e	89 86 bc 0b 00
	00		 mov	 DWORD PTR [esi+3004], eax
  03284	ff d7		 call	 edi

; 1037 : 		//Destroy Fenrir
; 1038 : 		PrideMu.IncPercent =  GetPrivateProfileInt("Fenrir","IncPercent",0,PrideMuConfig_DIR);

  03286	68 00 00 00 00	 push	 OFFSET ??_C@_0CB@GGFIJGAD@?4?4?2Data?2ZtData?2PrideMuConfig?4ini@
  0328b	53		 push	 ebx
  0328c	68 00 00 00 00	 push	 OFFSET ??_C@_0L@ICIPIMOB@IncPercent?$AA@
  03291	68 00 00 00 00	 push	 OFFSET ??_C@_06KAEKLEML@Fenrir?$AA@
  03296	89 86 c0 0b 00
	00		 mov	 DWORD PTR [esi+3008], eax
  0329c	ff d7		 call	 edi

; 1039 : 
; 1040 : 		PrideMu.OffDecreaseDur = GetPrivateProfileInt("Fenrir","OffDecreaseDur",0,PrideMuConfig_DIR);

  0329e	68 00 00 00 00	 push	 OFFSET ??_C@_0CB@GGFIJGAD@?4?4?2Data?2ZtData?2PrideMuConfig?4ini@
  032a3	53		 push	 ebx
  032a4	68 00 00 00 00	 push	 OFFSET ??_C@_0P@KINOHHEI@OffDecreaseDur?$AA@
  032a9	68 00 00 00 00	 push	 OFFSET ??_C@_06KAEKLEML@Fenrir?$AA@
  032ae	89 86 c4 0b 00
	00		 mov	 DWORD PTR [esi+3012], eax
  032b4	ff d7		 call	 edi

; 1041 : 
; 1042 : 		PrideMu.ComboBase = GetPrivateProfileInt("BK","ComboBase",100,PrideMuConfig_DIR);

  032b6	68 00 00 00 00	 push	 OFFSET ??_C@_0CB@GGFIJGAD@?4?4?2Data?2ZtData?2PrideMuConfig?4ini@
  032bb	6a 64		 push	 100			; 00000064H
  032bd	68 00 00 00 00	 push	 OFFSET ??_C@_09KLNDOCNC@ComboBase?$AA@
  032c2	68 00 00 00 00	 push	 OFFSET ??_C@_02GACNOJIN@BK?$AA@
  032c7	89 86 c8 0b 00
	00		 mov	 DWORD PTR [esi+3016], eax
  032cd	ff d7		 call	 edi

; 1043 : 		PrideMu.Fortitude = GetPrivateProfileInt("BK","Fortitude",100,PrideMuConfig_DIR);

  032cf	68 00 00 00 00	 push	 OFFSET ??_C@_0CB@GGFIJGAD@?4?4?2Data?2ZtData?2PrideMuConfig?4ini@
  032d4	6a 64		 push	 100			; 00000064H
  032d6	68 00 00 00 00	 push	 OFFSET ??_C@_09NCEFHIOD@Fortitude?$AA@
  032db	68 00 00 00 00	 push	 OFFSET ??_C@_02GACNOJIN@BK?$AA@
  032e0	89 86 cc 0b 00
	00		 mov	 DWORD PTR [esi+3020], eax
  032e6	ff d7		 call	 edi

; 1044 : 		PrideMu.LevelLifeSM = GetPrivateProfileInt("MaxLife","LevelLifeSM",0,PrideMuConfig_DIR);

  032e8	68 00 00 00 00	 push	 OFFSET ??_C@_0CB@GGFIJGAD@?4?4?2Data?2ZtData?2PrideMuConfig?4ini@
  032ed	53		 push	 ebx
  032ee	89 86 d0 0b 00
	00		 mov	 DWORD PTR [esi+3024], eax
  032f4	68 00 00 00 00	 push	 OFFSET ??_C@_0M@GHNABILJ@LevelLifeSM?$AA@
  032f9	68 00 00 00 00	 push	 OFFSET ??_C@_07GNAIBKOG@MaxLife?$AA@
  032fe	ff d7		 call	 edi

; 1045 : 		PrideMu.VitalityToLifeSM = GetPrivateProfileInt("MaxLife","VitalityToLifeSM",0,PrideMuConfig_DIR);

  03300	68 00 00 00 00	 push	 OFFSET ??_C@_0CB@GGFIJGAD@?4?4?2Data?2ZtData?2PrideMuConfig?4ini@
  03305	53		 push	 ebx
  03306	68 00 00 00 00	 push	 OFFSET ??_C@_0BB@HMGMGKJK@VitalityToLifeSM?$AA@
  0330b	68 00 00 00 00	 push	 OFFSET ??_C@_07GNAIBKOG@MaxLife?$AA@
  03310	89 86 d4 0b 00
	00		 mov	 DWORD PTR [esi+3028], eax
  03316	ff d7		 call	 edi

; 1046 : 
; 1047 : 		PrideMu.LevelLifeDK = GetPrivateProfileInt("MaxLife","LevelLifeDK",0,PrideMuConfig_DIR);

  03318	68 00 00 00 00	 push	 OFFSET ??_C@_0CB@GGFIJGAD@?4?4?2Data?2ZtData?2PrideMuConfig?4ini@
  0331d	53		 push	 ebx
  0331e	68 00 00 00 00	 push	 OFFSET ??_C@_0M@CIODAKMK@LevelLifeDK?$AA@
  03323	68 00 00 00 00	 push	 OFFSET ??_C@_07GNAIBKOG@MaxLife?$AA@
  03328	89 86 d8 0b 00
	00		 mov	 DWORD PTR [esi+3032], eax
  0332e	ff d7		 call	 edi

; 1048 : 		PrideMu.VitalityToLifeDK = GetPrivateProfileInt("MaxLife","VitalityToLifeDK",0,PrideMuConfig_DIR);

  03330	68 00 00 00 00	 push	 OFFSET ??_C@_0CB@GGFIJGAD@?4?4?2Data?2ZtData?2PrideMuConfig?4ini@
  03335	53		 push	 ebx
  03336	68 00 00 00 00	 push	 OFFSET ??_C@_0BB@DDFPHIOJ@VitalityToLifeDK?$AA@
  0333b	68 00 00 00 00	 push	 OFFSET ??_C@_07GNAIBKOG@MaxLife?$AA@
  03340	89 86 dc 0b 00
	00		 mov	 DWORD PTR [esi+3036], eax
  03346	ff d7		 call	 edi

; 1049 : 
; 1050 : 		PrideMu.LevelLifeELF = GetPrivateProfileInt("MaxLife","LevelLifeELF",0,PrideMuConfig_DIR);

  03348	68 00 00 00 00	 push	 OFFSET ??_C@_0CB@GGFIJGAD@?4?4?2Data?2ZtData?2PrideMuConfig?4ini@
  0334d	53		 push	 ebx
  0334e	68 00 00 00 00	 push	 OFFSET ??_C@_0N@GAEJFBMH@LevelLifeELF?$AA@
  03353	68 00 00 00 00	 push	 OFFSET ??_C@_07GNAIBKOG@MaxLife?$AA@
  03358	89 86 e0 0b 00
	00		 mov	 DWORD PTR [esi+3040], eax
  0335e	ff d7		 call	 edi

; 1051 : 		PrideMu.VitalityToLifeELF = GetPrivateProfileInt("MaxLife","VitalityToLifeELF",0,PrideMuConfig_DIR);

  03360	68 00 00 00 00	 push	 OFFSET ??_C@_0CB@GGFIJGAD@?4?4?2Data?2ZtData?2PrideMuConfig?4ini@
  03365	53		 push	 ebx
  03366	68 00 00 00 00	 push	 OFFSET ??_C@_0BC@MCDFJMMH@VitalityToLifeELF?$AA@
  0336b	68 00 00 00 00	 push	 OFFSET ??_C@_07GNAIBKOG@MaxLife?$AA@
  03370	89 86 e4 0b 00
	00		 mov	 DWORD PTR [esi+3044], eax
  03376	ff d7		 call	 edi

; 1052 : 
; 1053 : 		PrideMu.LevelLifeMG = GetPrivateProfileInt("MaxLife","LevelLifeMG",0,PrideMuConfig_DIR);

  03378	68 00 00 00 00	 push	 OFFSET ??_C@_0CB@GGFIJGAD@?4?4?2Data?2ZtData?2PrideMuConfig?4ini@
  0337d	53		 push	 ebx
  0337e	68 00 00 00 00	 push	 OFFSET ??_C@_0M@ILIHHOEJ@LevelLifeMG?$AA@
  03383	68 00 00 00 00	 push	 OFFSET ??_C@_07GNAIBKOG@MaxLife?$AA@
  03388	89 86 e8 0b 00
	00		 mov	 DWORD PTR [esi+3048], eax
  0338e	ff d7		 call	 edi

; 1054 : 		PrideMu.VitalityToLifeMG = GetPrivateProfileInt("MaxLife","VitalityToLifeMG",0,PrideMuConfig_DIR);

  03390	68 00 00 00 00	 push	 OFFSET ??_C@_0CB@GGFIJGAD@?4?4?2Data?2ZtData?2PrideMuConfig?4ini@
  03395	53		 push	 ebx
  03396	68 00 00 00 00	 push	 OFFSET ??_C@_0BB@JADLAMGK@VitalityToLifeMG?$AA@
  0339b	68 00 00 00 00	 push	 OFFSET ??_C@_07GNAIBKOG@MaxLife?$AA@
  033a0	89 86 ec 0b 00
	00		 mov	 DWORD PTR [esi+3052], eax
  033a6	ff d7		 call	 edi

; 1055 : 
; 1056 : 		PrideMu.LevelLifeDL = GetPrivateProfileInt("MaxLife","LevelLifeDL",0,PrideMuConfig_DIR);

  033a8	68 00 00 00 00	 push	 OFFSET ??_C@_0CB@GGFIJGAD@?4?4?2Data?2ZtData?2PrideMuConfig?4ini@
  033ad	53		 push	 ebx
  033ae	68 00 00 00 00	 push	 OFFSET ??_C@_0M@GHKCJMAN@LevelLifeDL?$AA@
  033b3	68 00 00 00 00	 push	 OFFSET ??_C@_07GNAIBKOG@MaxLife?$AA@
  033b8	89 86 f0 0b 00
	00		 mov	 DWORD PTR [esi+3056], eax
  033be	ff d7		 call	 edi

; 1057 : 		PrideMu.VitalityToLifeDL = GetPrivateProfileInt("MaxLife","VitalityToLifeDL",0,PrideMuConfig_DIR);

  033c0	68 00 00 00 00	 push	 OFFSET ??_C@_0CB@GGFIJGAD@?4?4?2Data?2ZtData?2PrideMuConfig?4ini@
  033c5	53		 push	 ebx
  033c6	68 00 00 00 00	 push	 OFFSET ??_C@_0BB@HMBOOOCO@VitalityToLifeDL?$AA@
  033cb	68 00 00 00 00	 push	 OFFSET ??_C@_07GNAIBKOG@MaxLife?$AA@
  033d0	89 86 f4 0b 00
	00		 mov	 DWORD PTR [esi+3060], eax
  033d6	ff d7		 call	 edi

; 1058 : 
; 1059 : 		PrideMu.LevelLifeSUM = GetPrivateProfileInt("MaxLife","LevelLifeSUM",0,PrideMuConfig_DIR);

  033d8	68 00 00 00 00	 push	 OFFSET ??_C@_0CB@GGFIJGAD@?4?4?2Data?2ZtData?2PrideMuConfig?4ini@
  033dd	53		 push	 ebx
  033de	68 00 00 00 00	 push	 OFFSET ??_C@_0N@OFDIBILA@LevelLifeSUM?$AA@
  033e3	68 00 00 00 00	 push	 OFFSET ??_C@_07GNAIBKOG@MaxLife?$AA@
  033e8	89 86 f8 0b 00
	00		 mov	 DWORD PTR [esi+3064], eax
  033ee	ff d7		 call	 edi

; 1060 : 		PrideMu.VitalityToLifeSUM = GetPrivateProfileInt("MaxLife","VitalityToLifeSUM",0,PrideMuConfig_DIR);

  033f0	68 00 00 00 00	 push	 OFFSET ??_C@_0CB@GGFIJGAD@?4?4?2Data?2ZtData?2PrideMuConfig?4ini@
  033f5	53		 push	 ebx
  033f6	68 00 00 00 00	 push	 OFFSET ??_C@_0BC@EHEENFLA@VitalityToLifeSUM?$AA@
  033fb	68 00 00 00 00	 push	 OFFSET ??_C@_07GNAIBKOG@MaxLife?$AA@
  03400	89 86 fc 0b 00
	00		 mov	 DWORD PTR [esi+3068], eax
  03406	ff d7		 call	 edi

; 1061 : 
; 1062 : 		PrideMu.LevelLifeRF = GetPrivateProfileInt("MaxLife","LevelLifeRF",0,PrideMuConfig_DIR);

  03408	68 00 00 00 00	 push	 OFFSET ??_C@_0CB@GGFIJGAD@?4?4?2Data?2ZtData?2PrideMuConfig?4ini@
  0340d	53		 push	 ebx
  0340e	68 00 00 00 00	 push	 OFFSET ??_C@_0M@IFOGKLEF@LevelLifeRF?$AA@
  03413	68 00 00 00 00	 push	 OFFSET ??_C@_07GNAIBKOG@MaxLife?$AA@
  03418	89 86 00 0c 00
	00		 mov	 DWORD PTR [esi+3072], eax
  0341e	ff d7		 call	 edi

; 1063 : 		PrideMu.VitalityToLifeRF = GetPrivateProfileInt("MaxLife","VitalityToLifeRF",0,PrideMuConfig_DIR);

  03420	68 00 00 00 00	 push	 OFFSET ??_C@_0CB@GGFIJGAD@?4?4?2Data?2ZtData?2PrideMuConfig?4ini@
  03425	53		 push	 ebx
  03426	68 00 00 00 00	 push	 OFFSET ??_C@_0BB@JOFKNJGG@VitalityToLifeRF?$AA@
  0342b	68 00 00 00 00	 push	 OFFSET ??_C@_07GNAIBKOG@MaxLife?$AA@
  03430	89 86 04 0c 00
	00		 mov	 DWORD PTR [esi+3076], eax
  03436	ff d7		 call	 edi
  03438	89 86 08 0c 00
	00		 mov	 DWORD PTR [esi+3080], eax
$LN22@LoadConfig:

; 1064 : 
; 1065 : 	}
; 1066 : 
; 1067 : #endif
; 1068 : #ifdef DRYNEA_LIST_CUSTOM
; 1069 : 		
; 1070 : 	DryneaConfig.KundumItemsDrop =  GetPrivateProfileInt("ItemsDrop","KundumItemsDrop", 10000, DryneaMuConfig_DIR);

  0343e	68 00 00 00 00	 push	 OFFSET ??_C@_0CA@CPBLOJFD@?4?4?2Data?2ZtData?2dryneaConfig?4ini?$AA@
  03443	68 10 27 00 00	 push	 10000			; 00002710H
  03448	68 00 00 00 00	 push	 OFFSET ??_C@_0BA@MMFCGLCD@KundumItemsDrop?$AA@
  0344d	68 00 00 00 00	 push	 OFFSET ??_C@_09CMLILGNK@ItemsDrop?$AA@
  03452	ff d7		 call	 edi

; 1071 : 	DryneaConfig.ErohimItemsDrop =  GetPrivateProfileInt("ItemsDrop","ErohimItemsDrop", 10000, DryneaMuConfig_DIR);

  03454	68 00 00 00 00	 push	 OFFSET ??_C@_0CA@CPBLOJFD@?4?4?2Data?2ZtData?2dryneaConfig?4ini?$AA@
  03459	68 10 27 00 00	 push	 10000			; 00002710H
  0345e	68 00 00 00 00	 push	 OFFSET ??_C@_0BA@HJHGGKGC@ErohimItemsDrop?$AA@
  03463	68 00 00 00 00	 push	 OFFSET ??_C@_09CMLILGNK@ItemsDrop?$AA@
  03468	89 86 78 0c 00
	00		 mov	 DWORD PTR [esi+3192], eax
  0346e	ff d7		 call	 edi

; 1072 : 
; 1073 : 	if(g_ZtLicense.CheckUser(eZtUB::drynea))

  03470	6a 01		 push	 1
  03472	b9 00 00 00 00	 mov	 ecx, OFFSET ?g_ZtLicense@@3VCZtLicense@@A ; g_ZtLicense
  03477	89 86 7c 0c 00
	00		 mov	 DWORD PTR [esi+3196], eax
  0347d	e8 00 00 00 00	 call	 ?CheckUser@CZtLicense@@QAE_NH@Z ; CZtLicense::CheckUser
  03482	84 c0		 test	 al, al
  03484	0f 84 9f 02 00
	00		 je	 $LN78@LoadConfig

; 1074 : 	{
; 1075 : 
; 1076 : 		DryneaConfig.PostFloodProtect = GetPrivateProfileInt("FloodInPost","IsPostFloodProtect", 0, DryneaMuConfig_DIR);

  0348a	68 00 00 00 00	 push	 OFFSET ??_C@_0CA@CPBLOJFD@?4?4?2Data?2ZtData?2dryneaConfig?4ini?$AA@
  0348f	53		 push	 ebx
  03490	68 00 00 00 00	 push	 OFFSET ??_C@_0BD@IIGIBBFK@IsPostFloodProtect?$AA@
  03495	68 00 00 00 00	 push	 OFFSET ??_C@_0M@FDPCIMFD@FloodInPost?$AA@
  0349a	ff d7		 call	 edi

; 1077 : 		DryneaConfig.PostFloodProtectTime = GetPrivateProfileInt("FloodInPost","FloodProtectTime", 0, DryneaMuConfig_DIR);

  0349c	68 00 00 00 00	 push	 OFFSET ??_C@_0CA@CPBLOJFD@?4?4?2Data?2ZtData?2dryneaConfig?4ini?$AA@
  034a1	53		 push	 ebx
  034a2	68 00 00 00 00	 push	 OFFSET ??_C@_0BB@CGPMFCOB@FloodProtectTime?$AA@
  034a7	68 00 00 00 00	 push	 OFFSET ??_C@_0M@FDPCIMFD@FloodInPost?$AA@
  034ac	89 86 88 0c 00
	00		 mov	 DWORD PTR [esi+3208], eax
  034b2	ff d7		 call	 edi
  034b4	89 86 8c 0c 00
	00		 mov	 DWORD PTR [esi+3212], eax

; 1078 : 		if(DryneaConfig.PostFloodProtectTime > 5000)

  034ba	3d 88 13 00 00	 cmp	 eax, 5000		; 00001388H
  034bf	7e 0a		 jle	 SHORT $LN19@LoadConfig

; 1079 : 		{
; 1080 : 			DryneaConfig.PostFloodProtectTime = 5000;

  034c1	c7 86 8c 0c 00
	00 88 13 00 00	 mov	 DWORD PTR [esi+3212], 5000 ; 00001388H
$LN19@LoadConfig:

; 1081 : 		}
; 1082 : 
; 1083 : 		DryneaConfig.GMKillMap  =  GetPrivateProfileInt("GMMap","GMKillMap",0,DryneaMuConfig_DIR);

  034cb	68 00 00 00 00	 push	 OFFSET ??_C@_0CA@CPBLOJFD@?4?4?2Data?2ZtData?2dryneaConfig?4ini?$AA@
  034d0	53		 push	 ebx
  034d1	68 00 00 00 00	 push	 OFFSET ??_C@_09JLHLFOB@GMKillMap?$AA@
  034d6	68 00 00 00 00	 push	 OFFSET ??_C@_05PDFHKAHB@GMMap?$AA@
  034db	ff d7		 call	 edi

; 1084 : 		DryneaConfig.GMKillMapX = GetPrivateProfileInt("GMMap","GMKillMapX",0,DryneaMuConfig_DIR);

  034dd	68 00 00 00 00	 push	 OFFSET ??_C@_0CA@CPBLOJFD@?4?4?2Data?2ZtData?2dryneaConfig?4ini?$AA@
  034e2	53		 push	 ebx
  034e3	68 00 00 00 00	 push	 OFFSET ??_C@_0L@KFGGLCAH@GMKillMapX?$AA@
  034e8	68 00 00 00 00	 push	 OFFSET ??_C@_05PDFHKAHB@GMMap?$AA@
  034ed	89 86 0c 0c 00
	00		 mov	 DWORD PTR [esi+3084], eax
  034f3	ff d7		 call	 edi

; 1085 : 		DryneaConfig.GMKillMapY =  GetPrivateProfileInt("GMMap","GMKillMapY",0,DryneaMuConfig_DIR);

  034f5	68 00 00 00 00	 push	 OFFSET ??_C@_0CA@CPBLOJFD@?4?4?2Data?2ZtData?2dryneaConfig?4ini?$AA@
  034fa	53		 push	 ebx
  034fb	68 00 00 00 00	 push	 OFFSET ??_C@_0L@LMHNIDEG@GMKillMapY?$AA@
  03500	68 00 00 00 00	 push	 OFFSET ??_C@_05PDFHKAHB@GMMap?$AA@
  03505	66 89 86 10 0c
	00 00		 mov	 WORD PTR [esi+3088], ax
  0350c	ff d7		 call	 edi

; 1086 : 
; 1087 : 		DryneaConfig.PartySystemEnable	=	GetPrivateProfileInt("PartySystem","PartySystemEnable",0,DryneaMuConfig_DIR);

  0350e	68 00 00 00 00	 push	 OFFSET ??_C@_0CA@CPBLOJFD@?4?4?2Data?2ZtData?2dryneaConfig?4ini?$AA@
  03513	53		 push	 ebx
  03514	68 00 00 00 00	 push	 OFFSET ??_C@_0BC@OIHKJNFL@PartySystemEnable?$AA@
  03519	68 00 00 00 00	 push	 OFFSET ??_C@_0M@DPJHHJHF@PartySystem?$AA@
  0351e	66 89 86 12 0c
	00 00		 mov	 WORD PTR [esi+3090], ax
  03525	ff d7		 call	 edi

; 1088 : 		DryneaConfig.Silver				=	GetPrivateProfileInt("PartySystem","Silver",0,DryneaMuConfig_DIR);

  03527	68 00 00 00 00	 push	 OFFSET ??_C@_0CA@CPBLOJFD@?4?4?2Data?2ZtData?2dryneaConfig?4ini?$AA@
  0352c	53		 push	 ebx
  0352d	68 00 00 00 00	 push	 OFFSET ??_C@_06BONGPKIK@Silver?$AA@
  03532	68 00 00 00 00	 push	 OFFSET ??_C@_0M@DPJHHJHF@PartySystem?$AA@
  03537	89 86 14 0c 00
	00		 mov	 DWORD PTR [esi+3092], eax
  0353d	ff d7		 call	 edi

; 1089 : 		DryneaConfig.Gold				=	GetPrivateProfileInt("PartySystem","Gold",0,DryneaMuConfig_DIR);

  0353f	68 00 00 00 00	 push	 OFFSET ??_C@_0CA@CPBLOJFD@?4?4?2Data?2ZtData?2dryneaConfig?4ini?$AA@
  03544	53		 push	 ebx
  03545	68 00 00 00 00	 push	 OFFSET ??_C@_04PABHPHAJ@Gold?$AA@
  0354a	68 00 00 00 00	 push	 OFFSET ??_C@_0M@DPJHHJHF@PartySystem?$AA@
  0354f	89 86 18 0c 00
	00		 mov	 DWORD PTR [esi+3096], eax
  03555	ff d7		 call	 edi

; 1090 : 		DryneaConfig.ExpMinus			=	GetPrivateProfileInt("PartySystem","ExpMinus",0,DryneaMuConfig_DIR);

  03557	68 00 00 00 00	 push	 OFFSET ??_C@_0CA@CPBLOJFD@?4?4?2Data?2ZtData?2dryneaConfig?4ini?$AA@
  0355c	53		 push	 ebx
  0355d	68 00 00 00 00	 push	 OFFSET ??_C@_08LEBLPLCH@ExpMinus?$AA@
  03562	68 00 00 00 00	 push	 OFFSET ??_C@_0M@DPJHHJHF@PartySystem?$AA@
  03567	89 86 1c 0c 00
	00		 mov	 DWORD PTR [esi+3100], eax
  0356d	ff d7		 call	 edi

; 1091 : 		//DryneaConfig.StartDiapason1		=	GetPrivateProfileInt("PartySystem","StartDiapason1",0,DryneaMuConfig_DIR);
; 1092 : 		//DryneaConfig.EndDiapason1		=	GetPrivateProfileInt("PartySystem","EndDiapason1",0,DryneaMuConfig_DIR);
; 1093 : 		//DryneaConfig.StartDiapason2		=	GetPrivateProfileInt("PartySystem","StartDiapason2",0,DryneaMuConfig_DIR);
; 1094 : 		//DryneaConfig.EndDiapason2		=	GetPrivateProfileInt("PartySystem","EndDiapason2",0,DryneaMuConfig_DIR);
; 1095 : 		//DryneaConfig.StartDiapason3		=	GetPrivateProfileInt("PartySystem","StartDiapason3",0,DryneaMuConfig_DIR);
; 1096 : 		//DryneaConfig.EndDiapason3		=	GetPrivateProfileInt("PartySystem","EndDiapason3",0,DryneaMuConfig_DIR);
; 1097 : 			
; 1098 : 		DryneaConfig.CountKundumItemsDrop =  GetPrivateProfileInt("ItemsDrop","CountKundumItemsDrop", 3, DryneaMuConfig_DIR);

  0356f	68 00 00 00 00	 push	 OFFSET ??_C@_0CA@CPBLOJFD@?4?4?2Data?2ZtData?2dryneaConfig?4ini?$AA@
  03574	6a 03		 push	 3
  03576	68 00 00 00 00	 push	 OFFSET ??_C@_0BF@BCJHLFDK@CountKundumItemsDrop?$AA@
  0357b	68 00 00 00 00	 push	 OFFSET ??_C@_09CMLILGNK@ItemsDrop?$AA@
  03580	89 86 20 0c 00
	00		 mov	 DWORD PTR [esi+3104], eax
  03586	ff d7		 call	 edi

; 1099 : 		DryneaConfig.CountErohimItemsDrop =  GetPrivateProfileInt("ItemsDrop","CountErohimItemsDrop", 1, DryneaMuConfig_DIR);

  03588	68 00 00 00 00	 push	 OFFSET ??_C@_0CA@CPBLOJFD@?4?4?2Data?2ZtData?2dryneaConfig?4ini?$AA@
  0358d	6a 01		 push	 1
  0358f	68 00 00 00 00	 push	 OFFSET ??_C@_0BF@KHLDLEHL@CountErohimItemsDrop?$AA@
  03594	68 00 00 00 00	 push	 OFFSET ??_C@_09CMLILGNK@ItemsDrop?$AA@
  03599	89 86 80 0c 00
	00		 mov	 DWORD PTR [esi+3200], eax
  0359f	ff d7		 call	 edi
  035a1	89 86 84 0c 00
	00		 mov	 DWORD PTR [esi+3204], eax

; 1100 : 
; 1101 : 		for(int i(0);i<MAXPARTY_DIAPASON;i++)
; 1102 : 		{
; 1103 : 			DryneaConfig.PartyDiapason[i].StartDiapason = 0;
; 1104 : 			DryneaConfig.PartyDiapason[i].EndDiapason = 0;
; 1105 : 		}
; 1106 : 		FILE * file = fopen(DryneaMuConfig_DIR,"r");

  035a7	68 00 00 00 00	 push	 OFFSET ??_C@_01KDCPPGHE@r?$AA@
  035ac	68 00 00 00 00	 push	 OFFSET ??_C@_0CA@CPBLOJFD@?4?4?2Data?2ZtData?2dryneaConfig?4ini?$AA@
  035b1	89 9e 24 0c 00
	00		 mov	 DWORD PTR [esi+3108], ebx
  035b7	89 9e 28 0c 00
	00		 mov	 DWORD PTR [esi+3112], ebx
  035bd	89 9e 2c 0c 00
	00		 mov	 DWORD PTR [esi+3116], ebx
  035c3	89 9e 30 0c 00
	00		 mov	 DWORD PTR [esi+3120], ebx
  035c9	89 9e 34 0c 00
	00		 mov	 DWORD PTR [esi+3124], ebx
  035cf	89 9e 38 0c 00
	00		 mov	 DWORD PTR [esi+3128], ebx
  035d5	89 9e 3c 0c 00
	00		 mov	 DWORD PTR [esi+3132], ebx
  035db	89 9e 40 0c 00
	00		 mov	 DWORD PTR [esi+3136], ebx
  035e1	89 9e 44 0c 00
	00		 mov	 DWORD PTR [esi+3140], ebx
  035e7	89 9e 48 0c 00
	00		 mov	 DWORD PTR [esi+3144], ebx
  035ed	89 9e 4c 0c 00
	00		 mov	 DWORD PTR [esi+3148], ebx
  035f3	89 9e 50 0c 00
	00		 mov	 DWORD PTR [esi+3152], ebx
  035f9	89 9e 54 0c 00
	00		 mov	 DWORD PTR [esi+3156], ebx
  035ff	89 9e 58 0c 00
	00		 mov	 DWORD PTR [esi+3160], ebx
  03605	89 9e 5c 0c 00
	00		 mov	 DWORD PTR [esi+3164], ebx
  0360b	89 9e 60 0c 00
	00		 mov	 DWORD PTR [esi+3168], ebx
  03611	89 9e 64 0c 00
	00		 mov	 DWORD PTR [esi+3172], ebx
  03617	89 9e 68 0c 00
	00		 mov	 DWORD PTR [esi+3176], ebx
  0361d	89 9e 6c 0c 00
	00		 mov	 DWORD PTR [esi+3180], ebx
  03623	89 9e 70 0c 00
	00		 mov	 DWORD PTR [esi+3184], ebx
  03629	e8 00 00 00 00	 call	 _fopen
  0362e	83 c4 08	 add	 esp, 8
  03631	89 85 f8 fe ff
	ff		 mov	 DWORD PTR _file$215456[ebp], eax

; 1107 : 		if(file == NULL)

  03637	3b c3		 cmp	 eax, ebx
  03639	75 19		 jne	 SHORT $LN15@LoadConfig

; 1108 : 		{
; 1109 : 			MessageBoxA(0,DryneaMuConfig_DIR,"LOAD FILE ERROR",0);

  0363b	53		 push	 ebx
  0363c	68 00 00 00 00	 push	 OFFSET ??_C@_0BA@PIOFNAIM@LOAD?5FILE?5ERROR?$AA@
  03641	68 00 00 00 00	 push	 OFFSET ??_C@_0CA@CPBLOJFD@?4?4?2Data?2ZtData?2dryneaConfig?4ini?$AA@
  03646	53		 push	 ebx
  03647	ff 15 00 00 00
	00		 call	 DWORD PTR __imp__MessageBoxA@16

; 1110 : 			ExitProcess(0);

  0364d	53		 push	 ebx
  0364e	ff 15 00 00 00
	00		 call	 DWORD PTR __imp__ExitProcess@4
$LN82@LoadConfig:
$LN15@LoadConfig:

; 1111 : 		}
; 1112 : 
; 1113 : 		char Buff[256];
; 1114 : 		int Flag = 0;
; 1115 : 		DryneaConfig.CountPartyDiapason = 0;
; 1116 : 
; 1117 : 		while(!feof(file))

  03654	50		 push	 eax
  03655	89 9d f4 fe ff
	ff		 mov	 DWORD PTR _Flag$215461[ebp], ebx
  0365b	89 9e 74 0c 00
	00		 mov	 DWORD PTR [esi+3188], ebx
  03661	e8 00 00 00 00	 call	 _feof
  03666	83 c4 04	 add	 esp, 4
  03669	85 c0		 test	 eax, eax
  0366b	0f 85 a9 00 00
	00		 jne	 $LN61@LoadConfig
$LL14@LoadConfig:

; 1118 : 		{
; 1119 : 			fgets(Buff,256,file);

  03671	8b 95 f8 fe ff
	ff		 mov	 edx, DWORD PTR _file$215456[ebp]
  03677	52		 push	 edx
  03678	8d 85 fc fe ff
	ff		 lea	 eax, DWORD PTR _Buff$215460[ebp]
  0367e	68 00 01 00 00	 push	 256			; 00000100H
  03683	50		 push	 eax
  03684	e8 00 00 00 00	 call	 _fgets

; 1120 : 			if(Zt_IsBadFileLine(Buff, Flag))

  03689	8d 8d f4 fe ff
	ff		 lea	 ecx, DWORD PTR _Flag$215461[ebp]
  0368f	51		 push	 ecx
  03690	8d 95 fc fe ff
	ff		 lea	 edx, DWORD PTR _Buff$215460[ebp]
  03696	52		 push	 edx
  03697	e8 00 00 00 00	 call	 ?Zt_IsBadFileLine@@YA_NPADAAH@Z ; Zt_IsBadFileLine
  0369c	83 c4 14	 add	 esp, 20			; 00000014H
  0369f	84 c0		 test	 al, al
  036a1	75 60		 jne	 SHORT $LN11@LoadConfig

; 1121 : 				continue;
; 1122 : 			if(Flag == 1)

  036a3	83 bd f4 fe ff
	ff 01		 cmp	 DWORD PTR _Flag$215461[ebp], 1
  036aa	75 57		 jne	 SHORT $LN11@LoadConfig

; 1123 : 			{
; 1124 : 				if(DryneaConfig.CountPartyDiapason == MAXPARTY_DIAPASON) break;

  036ac	83 be 74 0c 00
	00 0a		 cmp	 DWORD PTR [esi+3188], 10 ; 0000000aH
  036b3	74 65		 je	 SHORT $LN61@LoadConfig

; 1125 : 				int n[2];
; 1126 : 				sscanf(Buff, "%d %d", &n[0], &n[1]);

  036b5	8d 85 f0 fe ff
	ff		 lea	 eax, DWORD PTR _n$215468[ebp+4]
  036bb	50		 push	 eax
  036bc	8d 8d ec fe ff
	ff		 lea	 ecx, DWORD PTR _n$215468[ebp]
  036c2	51		 push	 ecx
  036c3	8d 95 fc fe ff
	ff		 lea	 edx, DWORD PTR _Buff$215460[ebp]
  036c9	68 00 00 00 00	 push	 OFFSET ??_C@_05OKMLJOMC@?$CFd?5?$CFd?$AA@
  036ce	52		 push	 edx
  036cf	e8 00 00 00 00	 call	 _sscanf

; 1127 : 				DryneaConfig.PartyDiapason[DryneaConfig.CountPartyDiapason].StartDiapason = n[0];

  036d4	8b 86 74 0c 00
	00		 mov	 eax, DWORD PTR [esi+3188]
  036da	8b 8d ec fe ff
	ff		 mov	 ecx, DWORD PTR _n$215468[ebp]
  036e0	89 8c c6 24 0c
	00 00		 mov	 DWORD PTR [esi+eax*8+3108], ecx

; 1128 : 				DryneaConfig.PartyDiapason[DryneaConfig.CountPartyDiapason].EndDiapason = n[1];

  036e7	8b 96 74 0c 00
	00		 mov	 edx, DWORD PTR [esi+3188]
  036ed	8b 85 f0 fe ff
	ff		 mov	 eax, DWORD PTR _n$215468[ebp+4]
  036f3	83 c4 10	 add	 esp, 16			; 00000010H
  036f6	89 84 d6 28 0c
	00 00		 mov	 DWORD PTR [esi+edx*8+3112], eax

; 1129 : 				DryneaConfig.CountPartyDiapason++;

  036fd	ff 86 74 0c 00
	00		 inc	 DWORD PTR [esi+3188]
$LN11@LoadConfig:

; 1111 : 		}
; 1112 : 
; 1113 : 		char Buff[256];
; 1114 : 		int Flag = 0;
; 1115 : 		DryneaConfig.CountPartyDiapason = 0;
; 1116 : 
; 1117 : 		while(!feof(file))

  03703	8b 8d f8 fe ff
	ff		 mov	 ecx, DWORD PTR _file$215456[ebp]
  03709	51		 push	 ecx
  0370a	e8 00 00 00 00	 call	 _feof
  0370f	83 c4 04	 add	 esp, 4
  03712	85 c0		 test	 eax, eax
  03714	0f 84 57 ff ff
	ff		 je	 $LL14@LoadConfig
$LN61@LoadConfig:

; 1130 : 			}
; 1131 : 		}
; 1132 : 		fclose(file);

  0371a	8b 95 f8 fe ff
	ff		 mov	 edx, DWORD PTR _file$215456[ebp]
  03720	52		 push	 edx
  03721	e8 00 00 00 00	 call	 _fclose
  03726	83 c4 04	 add	 esp, 4
$LN78@LoadConfig:

; 1133 : 	/*
; 1134 : 			[PartySystem]
; 1135 : 			Silver = 10; +10%  
; 1136 : 			Gold = +20%  
; 1137 : 			ExpMinus = 30 (    )
; 1138 : 
; 1139 : 			1
; 1140 : 			//[Start duapazon reset] [End diapazon reset]
; 1141 : 			0 20
; 1142 : 			21 80
; 1143 : 			81 150
; 1144 : 			end
; 1145 : 		*/
; 1146 : 	}
; 1147 : 
; 1148 : 	if(g_ZtLicense.CheckUser(eZtUB::MedoniAndrei))

  03729	6a 32		 push	 50			; 00000032H
  0372b	b9 00 00 00 00	 mov	 ecx, OFFSET ?g_ZtLicense@@3VCZtLicense@@A ; g_ZtLicense
  03730	e8 00 00 00 00	 call	 ?CheckUser@CZtLicense@@QAE_NH@Z ; CZtLicense::CheckUser
  03735	84 c0		 test	 al, al
  03737	0f 84 8b 00 00
	00		 je	 $LN9@LoadConfig

; 1149 : 	{
; 1150 : 		DryneaConfig.PostFloodProtect = GetPrivateProfileInt("FloodInPost","IsPostFloodProtect", 0, DryneaMuConfig_DIR);

  0373d	68 00 00 00 00	 push	 OFFSET ??_C@_0CA@CPBLOJFD@?4?4?2Data?2ZtData?2dryneaConfig?4ini?$AA@
  03742	53		 push	 ebx
  03743	68 00 00 00 00	 push	 OFFSET ??_C@_0BD@IIGIBBFK@IsPostFloodProtect?$AA@
  03748	68 00 00 00 00	 push	 OFFSET ??_C@_0M@FDPCIMFD@FloodInPost?$AA@
  0374d	ff d7		 call	 edi

; 1151 : 		DryneaConfig.PostFloodProtectTime = GetPrivateProfileInt("FloodInPost","FloodProtectTime", 0, DryneaMuConfig_DIR);

  0374f	68 00 00 00 00	 push	 OFFSET ??_C@_0CA@CPBLOJFD@?4?4?2Data?2ZtData?2dryneaConfig?4ini?$AA@
  03754	53		 push	 ebx
  03755	68 00 00 00 00	 push	 OFFSET ??_C@_0BB@CGPMFCOB@FloodProtectTime?$AA@
  0375a	68 00 00 00 00	 push	 OFFSET ??_C@_0M@FDPCIMFD@FloodInPost?$AA@
  0375f	89 86 88 0c 00
	00		 mov	 DWORD PTR [esi+3208], eax
  03765	ff d7		 call	 edi
  03767	89 86 8c 0c 00
	00		 mov	 DWORD PTR [esi+3212], eax

; 1152 : 		if(DryneaConfig.PostFloodProtectTime > 5000)

  0376d	3d 88 13 00 00	 cmp	 eax, 5000		; 00001388H
  03772	7e 0a		 jle	 SHORT $LN8@LoadConfig

; 1153 : 		{
; 1154 : 			DryneaConfig.PostFloodProtectTime = 5000;

  03774	c7 86 8c 0c 00
	00 88 13 00 00	 mov	 DWORD PTR [esi+3212], 5000 ; 00001388H
$LN8@LoadConfig:

; 1155 : 		}
; 1156 : 
; 1157 : 		DryneaConfig.GMKillMap  =  GetPrivateProfileInt("GMMap","GMKillMap",0,DryneaMuConfig_DIR);

  0377e	68 00 00 00 00	 push	 OFFSET ??_C@_0CA@CPBLOJFD@?4?4?2Data?2ZtData?2dryneaConfig?4ini?$AA@
  03783	53		 push	 ebx
  03784	68 00 00 00 00	 push	 OFFSET ??_C@_09JLHLFOB@GMKillMap?$AA@
  03789	68 00 00 00 00	 push	 OFFSET ??_C@_05PDFHKAHB@GMMap?$AA@
  0378e	ff d7		 call	 edi

; 1158 : 		DryneaConfig.GMKillMapX = GetPrivateProfileInt("GMMap","GMKillMapX",0,DryneaMuConfig_DIR);

  03790	68 00 00 00 00	 push	 OFFSET ??_C@_0CA@CPBLOJFD@?4?4?2Data?2ZtData?2dryneaConfig?4ini?$AA@
  03795	53		 push	 ebx
  03796	68 00 00 00 00	 push	 OFFSET ??_C@_0L@KFGGLCAH@GMKillMapX?$AA@
  0379b	68 00 00 00 00	 push	 OFFSET ??_C@_05PDFHKAHB@GMMap?$AA@
  037a0	89 86 0c 0c 00
	00		 mov	 DWORD PTR [esi+3084], eax
  037a6	ff d7		 call	 edi

; 1159 : 		DryneaConfig.GMKillMapY =  GetPrivateProfileInt("GMMap","GMKillMapY",0,DryneaMuConfig_DIR);

  037a8	68 00 00 00 00	 push	 OFFSET ??_C@_0CA@CPBLOJFD@?4?4?2Data?2ZtData?2dryneaConfig?4ini?$AA@
  037ad	53		 push	 ebx
  037ae	68 00 00 00 00	 push	 OFFSET ??_C@_0L@LMHNIDEG@GMKillMapY?$AA@
  037b3	68 00 00 00 00	 push	 OFFSET ??_C@_05PDFHKAHB@GMMap?$AA@
  037b8	66 89 86 10 0c
	00 00		 mov	 WORD PTR [esi+3088], ax
  037bf	ff d7		 call	 edi
  037c1	66 89 86 12 0c
	00 00		 mov	 WORD PTR [esi+3090], ax
$LN9@LoadConfig:

; 1160 : 
; 1161 : 
; 1162 : 	}
; 1163 : 	
; 1164 : 
; 1165 : #endif
; 1166 : 
; 1167 : 
; 1168 : #ifdef LVL_UP_POINTS
; 1169 : 		AddLvlPoint.DkLevelPoints  =  GetPrivateProfileInt("Common","DkLevelPoints",5,ADD_LVL_POINTS_DIR);

  037c8	68 00 00 00 00	 push	 OFFSET ??_C@_0BP@DGHOKCPO@?4?4?2Data?2ZtData?2AddPointLvl?4ini?$AA@
  037cd	6a 05		 push	 5
  037cf	68 00 00 00 00	 push	 OFFSET ??_C@_0O@CDCAPEGJ@DkLevelPoints?$AA@
  037d4	68 00 00 00 00	 push	 OFFSET ??_C@_06POMJKEPM@Common?$AA@
  037d9	ff d7		 call	 edi

; 1170 : 		AddLvlPoint.DwLevelPoints = GetPrivateProfileInt("Common","DwLevelPoints",5,ADD_LVL_POINTS_DIR);

  037db	68 00 00 00 00	 push	 OFFSET ??_C@_0BP@DGHOKCPO@?4?4?2Data?2ZtData?2AddPointLvl?4ini?$AA@
  037e0	6a 05		 push	 5
  037e2	68 00 00 00 00	 push	 OFFSET ??_C@_0O@NJNOLEI@DwLevelPoints?$AA@
  037e7	68 00 00 00 00	 push	 OFFSET ??_C@_06POMJKEPM@Common?$AA@
  037ec	89 86 90 0c 00
	00		 mov	 DWORD PTR [esi+3216], eax
  037f2	ff d7		 call	 edi

; 1171 : 		AddLvlPoint.ElfLevelPoints =  GetPrivateProfileInt("Common","ElfLevelPoints",5,ADD_LVL_POINTS_DIR);

  037f4	68 00 00 00 00	 push	 OFFSET ??_C@_0BP@DGHOKCPO@?4?4?2Data?2ZtData?2AddPointLvl?4ini?$AA@
  037f9	6a 05		 push	 5
  037fb	68 00 00 00 00	 push	 OFFSET ??_C@_0P@GFCFENCP@ElfLevelPoints?$AA@
  03800	68 00 00 00 00	 push	 OFFSET ??_C@_06POMJKEPM@Common?$AA@
  03805	89 86 94 0c 00
	00		 mov	 DWORD PTR [esi+3220], eax
  0380b	ff d7		 call	 edi

; 1172 : 		AddLvlPoint.SumLevelPoints =  GetPrivateProfileInt("Common","SumLevelPoints",5,ADD_LVL_POINTS_DIR);

  0380d	68 00 00 00 00	 push	 OFFSET ??_C@_0BP@DGHOKCPO@?4?4?2Data?2ZtData?2AddPointLvl?4ini?$AA@
  03812	6a 05		 push	 5
  03814	68 00 00 00 00	 push	 OFFSET ??_C@_0P@CMJAHKBN@SumLevelPoints?$AA@
  03819	68 00 00 00 00	 push	 OFFSET ??_C@_06POMJKEPM@Common?$AA@
  0381e	89 86 98 0c 00
	00		 mov	 DWORD PTR [esi+3224], eax
  03824	ff d7		 call	 edi

; 1173 : 		AddLvlPoint.MgLevelPoints =  GetPrivateProfileInt("Common","MgLevelPoints",7,ADD_LVL_POINTS_DIR);

  03826	68 00 00 00 00	 push	 OFFSET ??_C@_0BP@DGHOKCPO@?4?4?2Data?2ZtData?2AddPointLvl?4ini?$AA@
  0382b	6a 07		 push	 7
  0382d	68 00 00 00 00	 push	 OFFSET ??_C@_0O@BHMMLCNC@MgLevelPoints?$AA@
  03832	68 00 00 00 00	 push	 OFFSET ??_C@_06POMJKEPM@Common?$AA@
  03837	89 86 9c 0c 00
	00		 mov	 DWORD PTR [esi+3228], eax
  0383d	ff d7		 call	 edi

; 1174 : 		AddLvlPoint.DlLevelPoints =  GetPrivateProfileInt("Common","DlLevelPoints",7,ADD_LVL_POINTS_DIR);

  0383f	68 00 00 00 00	 push	 OFFSET ??_C@_0BP@DGHOKCPO@?4?4?2Data?2ZtData?2AddPointLvl?4ini?$AA@
  03844	6a 07		 push	 7
  03846	68 00 00 00 00	 push	 OFFSET ??_C@_0O@FOFDPCDB@DlLevelPoints?$AA@
  0384b	68 00 00 00 00	 push	 OFFSET ??_C@_06POMJKEPM@Common?$AA@
  03850	89 86 a0 0c 00
	00		 mov	 DWORD PTR [esi+3232], eax
  03856	ff d7		 call	 edi

; 1175 : 		AddLvlPoint.RfLevelPoints =  GetPrivateProfileInt("Common","RfLevelPoints",7,ADD_LVL_POINTS_DIR);

  03858	68 00 00 00 00	 push	 OFFSET ??_C@_0BP@DGHOKCPO@?4?4?2Data?2ZtData?2AddPointLvl?4ini?$AA@
  0385d	6a 07		 push	 7
  0385f	68 00 00 00 00	 push	 OFFSET ??_C@_0O@PKHMODMN@RfLevelPoints?$AA@
  03864	68 00 00 00 00	 push	 OFFSET ??_C@_06POMJKEPM@Common?$AA@
  03869	89 86 a4 0c 00
	00		 mov	 DWORD PTR [esi+3236], eax
  0386f	ff d7		 call	 edi

; 1176 : 
; 1177 : 		AddMasterLvlPoint.DkLevelPoints  =  GetPrivateProfileInt("Master","DkLevelPoints",1,ADD_LVL_POINTS_DIR);

  03871	68 00 00 00 00	 push	 OFFSET ??_C@_0BP@DGHOKCPO@?4?4?2Data?2ZtData?2AddPointLvl?4ini?$AA@
  03876	6a 01		 push	 1
  03878	68 00 00 00 00	 push	 OFFSET ??_C@_0O@CDCAPEGJ@DkLevelPoints?$AA@
  0387d	68 00 00 00 00	 push	 OFFSET ??_C@_06INNNFHKM@Master?$AA@
  03882	89 86 a8 0c 00
	00		 mov	 DWORD PTR [esi+3240], eax
  03888	ff d7		 call	 edi

; 1178 : 		AddMasterLvlPoint.DwLevelPoints = GetPrivateProfileInt("Master","DwLevelPoints",1,ADD_LVL_POINTS_DIR);

  0388a	68 00 00 00 00	 push	 OFFSET ??_C@_0BP@DGHOKCPO@?4?4?2Data?2ZtData?2AddPointLvl?4ini?$AA@
  0388f	6a 01		 push	 1
  03891	68 00 00 00 00	 push	 OFFSET ??_C@_0O@NJNOLEI@DwLevelPoints?$AA@
  03896	68 00 00 00 00	 push	 OFFSET ??_C@_06INNNFHKM@Master?$AA@
  0389b	89 86 ac 0c 00
	00		 mov	 DWORD PTR [esi+3244], eax
  038a1	ff d7		 call	 edi

; 1179 : 		AddMasterLvlPoint.ElfLevelPoints =  GetPrivateProfileInt("Master","ElfLevelPoints",1,ADD_LVL_POINTS_DIR);

  038a3	68 00 00 00 00	 push	 OFFSET ??_C@_0BP@DGHOKCPO@?4?4?2Data?2ZtData?2AddPointLvl?4ini?$AA@
  038a8	6a 01		 push	 1
  038aa	68 00 00 00 00	 push	 OFFSET ??_C@_0P@GFCFENCP@ElfLevelPoints?$AA@
  038af	68 00 00 00 00	 push	 OFFSET ??_C@_06INNNFHKM@Master?$AA@
  038b4	89 86 b0 0c 00
	00		 mov	 DWORD PTR [esi+3248], eax
  038ba	ff d7		 call	 edi

; 1180 : 		AddMasterLvlPoint.SumLevelPoints =  GetPrivateProfileInt("Master","SumLevelPoints",1,ADD_LVL_POINTS_DIR);

  038bc	68 00 00 00 00	 push	 OFFSET ??_C@_0BP@DGHOKCPO@?4?4?2Data?2ZtData?2AddPointLvl?4ini?$AA@
  038c1	6a 01		 push	 1
  038c3	68 00 00 00 00	 push	 OFFSET ??_C@_0P@CMJAHKBN@SumLevelPoints?$AA@
  038c8	68 00 00 00 00	 push	 OFFSET ??_C@_06INNNFHKM@Master?$AA@
  038cd	89 86 b4 0c 00
	00		 mov	 DWORD PTR [esi+3252], eax
  038d3	ff d7		 call	 edi

; 1181 : 		AddMasterLvlPoint.MgLevelPoints =  GetPrivateProfileInt("Master","MgLevelPoints",1,ADD_LVL_POINTS_DIR);

  038d5	68 00 00 00 00	 push	 OFFSET ??_C@_0BP@DGHOKCPO@?4?4?2Data?2ZtData?2AddPointLvl?4ini?$AA@
  038da	6a 01		 push	 1
  038dc	68 00 00 00 00	 push	 OFFSET ??_C@_0O@BHMMLCNC@MgLevelPoints?$AA@
  038e1	68 00 00 00 00	 push	 OFFSET ??_C@_06INNNFHKM@Master?$AA@
  038e6	89 86 b8 0c 00
	00		 mov	 DWORD PTR [esi+3256], eax
  038ec	ff d7		 call	 edi

; 1182 : 		AddMasterLvlPoint.DlLevelPoints =  GetPrivateProfileInt("Master","DlLevelPoints",1,ADD_LVL_POINTS_DIR);

  038ee	68 00 00 00 00	 push	 OFFSET ??_C@_0BP@DGHOKCPO@?4?4?2Data?2ZtData?2AddPointLvl?4ini?$AA@
  038f3	6a 01		 push	 1
  038f5	68 00 00 00 00	 push	 OFFSET ??_C@_0O@FOFDPCDB@DlLevelPoints?$AA@
  038fa	68 00 00 00 00	 push	 OFFSET ??_C@_06INNNFHKM@Master?$AA@
  038ff	89 86 bc 0c 00
	00		 mov	 DWORD PTR [esi+3260], eax
  03905	ff d7		 call	 edi

; 1183 : 		AddMasterLvlPoint.RfLevelPoints =  GetPrivateProfileInt("Master","RfLevelPoints",1,ADD_LVL_POINTS_DIR);

  03907	68 00 00 00 00	 push	 OFFSET ??_C@_0BP@DGHOKCPO@?4?4?2Data?2ZtData?2AddPointLvl?4ini?$AA@
  0390c	6a 01		 push	 1
  0390e	89 86 c0 0c 00
	00		 mov	 DWORD PTR [esi+3264], eax
  03914	68 00 00 00 00	 push	 OFFSET ??_C@_0O@PKHMODMN@RfLevelPoints?$AA@
  03919	68 00 00 00 00	 push	 OFFSET ??_C@_06INNNFHKM@Master?$AA@
  0391e	ff d7		 call	 edi

; 1184 : 
; 1185 : 		AddMarlonPoint.DkLevelPoints  =  GetPrivateProfileInt("Marlon","DkLevelPoints",1,ADD_LVL_POINTS_DIR);

  03920	68 00 00 00 00	 push	 OFFSET ??_C@_0BP@DGHOKCPO@?4?4?2Data?2ZtData?2AddPointLvl?4ini?$AA@
  03925	6a 01		 push	 1
  03927	68 00 00 00 00	 push	 OFFSET ??_C@_0O@CDCAPEGJ@DkLevelPoints?$AA@
  0392c	68 00 00 00 00	 push	 OFFSET ??_C@_06MOPANJOH@Marlon?$AA@
  03931	89 86 c4 0c 00
	00		 mov	 DWORD PTR [esi+3268], eax
  03937	ff d7		 call	 edi

; 1186 : 		AddMarlonPoint.DwLevelPoints = GetPrivateProfileInt("Marlon","DwLevelPoints",1,ADD_LVL_POINTS_DIR);

  03939	68 00 00 00 00	 push	 OFFSET ??_C@_0BP@DGHOKCPO@?4?4?2Data?2ZtData?2AddPointLvl?4ini?$AA@
  0393e	6a 01		 push	 1
  03940	68 00 00 00 00	 push	 OFFSET ??_C@_0O@NJNOLEI@DwLevelPoints?$AA@
  03945	68 00 00 00 00	 push	 OFFSET ??_C@_06MOPANJOH@Marlon?$AA@
  0394a	89 86 c8 0c 00
	00		 mov	 DWORD PTR [esi+3272], eax
  03950	ff d7		 call	 edi

; 1187 : 		AddMarlonPoint.ElfLevelPoints =  GetPrivateProfileInt("Marlon","ElfLevelPoints",1,ADD_LVL_POINTS_DIR);

  03952	68 00 00 00 00	 push	 OFFSET ??_C@_0BP@DGHOKCPO@?4?4?2Data?2ZtData?2AddPointLvl?4ini?$AA@
  03957	6a 01		 push	 1
  03959	68 00 00 00 00	 push	 OFFSET ??_C@_0P@GFCFENCP@ElfLevelPoints?$AA@
  0395e	68 00 00 00 00	 push	 OFFSET ??_C@_06MOPANJOH@Marlon?$AA@
  03963	89 86 cc 0c 00
	00		 mov	 DWORD PTR [esi+3276], eax
  03969	ff d7		 call	 edi

; 1188 : 		AddMarlonPoint.SumLevelPoints =  GetPrivateProfileInt("Marlon","SumLevelPoints",1,ADD_LVL_POINTS_DIR);

  0396b	68 00 00 00 00	 push	 OFFSET ??_C@_0BP@DGHOKCPO@?4?4?2Data?2ZtData?2AddPointLvl?4ini?$AA@
  03970	6a 01		 push	 1
  03972	68 00 00 00 00	 push	 OFFSET ??_C@_0P@CMJAHKBN@SumLevelPoints?$AA@
  03977	68 00 00 00 00	 push	 OFFSET ??_C@_06MOPANJOH@Marlon?$AA@
  0397c	89 86 d0 0c 00
	00		 mov	 DWORD PTR [esi+3280], eax
  03982	ff d7		 call	 edi

; 1189 : 		AddMarlonPoint.MgLevelPoints =  GetPrivateProfileInt("Marlon","MgLevelPoints",1,ADD_LVL_POINTS_DIR);

  03984	68 00 00 00 00	 push	 OFFSET ??_C@_0BP@DGHOKCPO@?4?4?2Data?2ZtData?2AddPointLvl?4ini?$AA@
  03989	6a 01		 push	 1
  0398b	68 00 00 00 00	 push	 OFFSET ??_C@_0O@BHMMLCNC@MgLevelPoints?$AA@
  03990	68 00 00 00 00	 push	 OFFSET ??_C@_06MOPANJOH@Marlon?$AA@
  03995	89 86 d4 0c 00
	00		 mov	 DWORD PTR [esi+3284], eax
  0399b	ff d7		 call	 edi

; 1190 : 		AddMarlonPoint.DlLevelPoints =  GetPrivateProfileInt("Marlon","DlLevelPoints",1,ADD_LVL_POINTS_DIR);

  0399d	68 00 00 00 00	 push	 OFFSET ??_C@_0BP@DGHOKCPO@?4?4?2Data?2ZtData?2AddPointLvl?4ini?$AA@
  039a2	6a 01		 push	 1
  039a4	68 00 00 00 00	 push	 OFFSET ??_C@_0O@FOFDPCDB@DlLevelPoints?$AA@
  039a9	68 00 00 00 00	 push	 OFFSET ??_C@_06MOPANJOH@Marlon?$AA@
  039ae	89 86 d8 0c 00
	00		 mov	 DWORD PTR [esi+3288], eax
  039b4	ff d7		 call	 edi

; 1191 : 		AddMarlonPoint.RfLevelPoints =  GetPrivateProfileInt("Marlon","RfLevelPoints",1,ADD_LVL_POINTS_DIR);

  039b6	68 00 00 00 00	 push	 OFFSET ??_C@_0BP@DGHOKCPO@?4?4?2Data?2ZtData?2AddPointLvl?4ini?$AA@
  039bb	6a 01		 push	 1
  039bd	68 00 00 00 00	 push	 OFFSET ??_C@_0O@PKHMODMN@RfLevelPoints?$AA@
  039c2	68 00 00 00 00	 push	 OFFSET ??_C@_06MOPANJOH@Marlon?$AA@
  039c7	89 86 dc 0c 00
	00		 mov	 DWORD PTR [esi+3292], eax
  039cd	ff d7		 call	 edi

; 1192 : 
; 1193 : 		AddClass2rdPoint.DkLevelPoints  =  GetPrivateProfileInt("Class2rd","DkLevelPoints",5,ADD_LVL_POINTS_DIR);

  039cf	68 00 00 00 00	 push	 OFFSET ??_C@_0BP@DGHOKCPO@?4?4?2Data?2ZtData?2AddPointLvl?4ini?$AA@
  039d4	6a 05		 push	 5
  039d6	68 00 00 00 00	 push	 OFFSET ??_C@_0O@CDCAPEGJ@DkLevelPoints?$AA@
  039db	68 00 00 00 00	 push	 OFFSET ??_C@_08GLGOOBPB@Class2rd?$AA@
  039e0	89 86 e0 0c 00
	00		 mov	 DWORD PTR [esi+3296], eax
  039e6	ff d7		 call	 edi

; 1194 : 		AddClass2rdPoint.DwLevelPoints = GetPrivateProfileInt("Class2rd","DwLevelPoints",5,ADD_LVL_POINTS_DIR);

  039e8	68 00 00 00 00	 push	 OFFSET ??_C@_0BP@DGHOKCPO@?4?4?2Data?2ZtData?2AddPointLvl?4ini?$AA@
  039ed	6a 05		 push	 5
  039ef	68 00 00 00 00	 push	 OFFSET ??_C@_0O@NJNOLEI@DwLevelPoints?$AA@
  039f4	68 00 00 00 00	 push	 OFFSET ??_C@_08GLGOOBPB@Class2rd?$AA@
  039f9	89 86 e4 0c 00
	00		 mov	 DWORD PTR [esi+3300], eax
  039ff	ff d7		 call	 edi

; 1195 : 		AddClass2rdPoint.ElfLevelPoints =  GetPrivateProfileInt("Class2rd","ElfLevelPoints",5,ADD_LVL_POINTS_DIR);

  03a01	68 00 00 00 00	 push	 OFFSET ??_C@_0BP@DGHOKCPO@?4?4?2Data?2ZtData?2AddPointLvl?4ini?$AA@
  03a06	6a 05		 push	 5
  03a08	68 00 00 00 00	 push	 OFFSET ??_C@_0P@GFCFENCP@ElfLevelPoints?$AA@
  03a0d	68 00 00 00 00	 push	 OFFSET ??_C@_08GLGOOBPB@Class2rd?$AA@
  03a12	89 86 e8 0c 00
	00		 mov	 DWORD PTR [esi+3304], eax
  03a18	ff d7		 call	 edi

; 1196 : 		AddClass2rdPoint.SumLevelPoints =  GetPrivateProfileInt("Class2rd","SumLevelPoints",5,ADD_LVL_POINTS_DIR);

  03a1a	68 00 00 00 00	 push	 OFFSET ??_C@_0BP@DGHOKCPO@?4?4?2Data?2ZtData?2AddPointLvl?4ini?$AA@
  03a1f	6a 05		 push	 5
  03a21	68 00 00 00 00	 push	 OFFSET ??_C@_0P@CMJAHKBN@SumLevelPoints?$AA@
  03a26	68 00 00 00 00	 push	 OFFSET ??_C@_08GLGOOBPB@Class2rd?$AA@
  03a2b	89 86 ec 0c 00
	00		 mov	 DWORD PTR [esi+3308], eax
  03a31	ff d7		 call	 edi

; 1197 : 
; 1198 : 		AddClass3rdPoint.DkLevelPoints  =  GetPrivateProfileInt("Class3rd","DkLevelPoints",5,ADD_LVL_POINTS_DIR);

  03a33	68 00 00 00 00	 push	 OFFSET ??_C@_0BP@DGHOKCPO@?4?4?2Data?2ZtData?2AddPointLvl?4ini?$AA@
  03a38	6a 05		 push	 5
  03a3a	68 00 00 00 00	 push	 OFFSET ??_C@_0O@CDCAPEGJ@DkLevelPoints?$AA@
  03a3f	68 00 00 00 00	 push	 OFFSET ??_C@_08NDNCIGJE@Class3rd?$AA@
  03a44	89 86 f0 0c 00
	00		 mov	 DWORD PTR [esi+3312], eax
  03a4a	ff d7		 call	 edi

; 1199 : 		AddClass3rdPoint.DwLevelPoints = GetPrivateProfileInt("Class3rd","DwLevelPoints",5,ADD_LVL_POINTS_DIR);

  03a4c	68 00 00 00 00	 push	 OFFSET ??_C@_0BP@DGHOKCPO@?4?4?2Data?2ZtData?2AddPointLvl?4ini?$AA@
  03a51	6a 05		 push	 5
  03a53	68 00 00 00 00	 push	 OFFSET ??_C@_0O@NJNOLEI@DwLevelPoints?$AA@
  03a58	68 00 00 00 00	 push	 OFFSET ??_C@_08NDNCIGJE@Class3rd?$AA@
  03a5d	89 86 f4 0c 00
	00		 mov	 DWORD PTR [esi+3316], eax
  03a63	ff d7		 call	 edi
  03a65	89 86 f8 0c 00
	00		 mov	 DWORD PTR [esi+3320], eax

; 1200 : 		AddClass3rdPoint.ElfLevelPoints =  GetPrivateProfileInt("Class3rd","ElfLevelPoints",5,ADD_LVL_POINTS_DIR);

  03a6b	68 00 00 00 00	 push	 OFFSET ??_C@_0BP@DGHOKCPO@?4?4?2Data?2ZtData?2AddPointLvl?4ini?$AA@
  03a70	6a 05		 push	 5
  03a72	68 00 00 00 00	 push	 OFFSET ??_C@_0P@GFCFENCP@ElfLevelPoints?$AA@
  03a77	68 00 00 00 00	 push	 OFFSET ??_C@_08NDNCIGJE@Class3rd?$AA@
  03a7c	ff d7		 call	 edi

; 1201 : 		AddClass3rdPoint.SumLevelPoints =  GetPrivateProfileInt("Class3rd","SumLevelPoints",5,ADD_LVL_POINTS_DIR);

  03a7e	68 00 00 00 00	 push	 OFFSET ??_C@_0BP@DGHOKCPO@?4?4?2Data?2ZtData?2AddPointLvl?4ini?$AA@
  03a83	6a 05		 push	 5
  03a85	68 00 00 00 00	 push	 OFFSET ??_C@_0P@CMJAHKBN@SumLevelPoints?$AA@
  03a8a	68 00 00 00 00	 push	 OFFSET ??_C@_08NDNCIGJE@Class3rd?$AA@
  03a8f	89 86 fc 0c 00
	00		 mov	 DWORD PTR [esi+3324], eax
  03a95	ff d7		 call	 edi

; 1202 : 		AddClass3rdPoint.MgLevelPoints =  GetPrivateProfileInt("Class3rd","MgLevelPoints",7,ADD_LVL_POINTS_DIR);

  03a97	68 00 00 00 00	 push	 OFFSET ??_C@_0BP@DGHOKCPO@?4?4?2Data?2ZtData?2AddPointLvl?4ini?$AA@
  03a9c	6a 07		 push	 7
  03a9e	68 00 00 00 00	 push	 OFFSET ??_C@_0O@BHMMLCNC@MgLevelPoints?$AA@
  03aa3	68 00 00 00 00	 push	 OFFSET ??_C@_08NDNCIGJE@Class3rd?$AA@
  03aa8	89 86 00 0d 00
	00		 mov	 DWORD PTR [esi+3328], eax
  03aae	ff d7		 call	 edi

; 1203 : 		AddClass3rdPoint.DlLevelPoints =  GetPrivateProfileInt("Class3rd","DlLevelPoints",7,ADD_LVL_POINTS_DIR);

  03ab0	68 00 00 00 00	 push	 OFFSET ??_C@_0BP@DGHOKCPO@?4?4?2Data?2ZtData?2AddPointLvl?4ini?$AA@
  03ab5	6a 07		 push	 7
  03ab7	68 00 00 00 00	 push	 OFFSET ??_C@_0O@FOFDPCDB@DlLevelPoints?$AA@
  03abc	68 00 00 00 00	 push	 OFFSET ??_C@_08NDNCIGJE@Class3rd?$AA@
  03ac1	89 86 04 0d 00
	00		 mov	 DWORD PTR [esi+3332], eax
  03ac7	ff d7		 call	 edi

; 1204 : 		AddClass3rdPoint.RfLevelPoints =  GetPrivateProfileInt("Class3rd","RfLevelPoints",7,ADD_LVL_POINTS_DIR);

  03ac9	68 00 00 00 00	 push	 OFFSET ??_C@_0BP@DGHOKCPO@?4?4?2Data?2ZtData?2AddPointLvl?4ini?$AA@
  03ace	6a 07		 push	 7
  03ad0	68 00 00 00 00	 push	 OFFSET ??_C@_0O@PKHMODMN@RfLevelPoints?$AA@
  03ad5	68 00 00 00 00	 push	 OFFSET ??_C@_08NDNCIGJE@Class3rd?$AA@
  03ada	89 86 08 0d 00
	00		 mov	 DWORD PTR [esi+3336], eax
  03ae0	ff d7		 call	 edi

; 1205 : #endif
; 1206 : //---
; 1207 : 
; 1208 : 	this->iTeleportMapForDieMap6 =  GetPrivateProfileInt("Common","TeleportMapForDieMap6",0,MAPDIE_PATH);

  03ae2	68 00 00 00 00	 push	 OFFSET ??_C@_0BK@EBLBDIHE@?4?4?2Data?2ZtData?2MapDie?4ini?$AA@
  03ae7	53		 push	 ebx
  03ae8	68 00 00 00 00	 push	 OFFSET ??_C@_0BG@FDOFJEDH@TeleportMapForDieMap6?$AA@
  03aed	68 00 00 00 00	 push	 OFFSET ??_C@_06POMJKEPM@Common?$AA@
  03af2	89 86 0c 0d 00
	00		 mov	 DWORD PTR [esi+3340], eax
  03af8	ff d7		 call	 edi

; 1209 : 	this->iTeleportMapForDieMap40 =  GetPrivateProfileInt("Common","TeleportMapForDieMap40",0,MAPDIE_PATH);

  03afa	68 00 00 00 00	 push	 OFFSET ??_C@_0BK@EBLBDIHE@?4?4?2Data?2ZtData?2MapDie?4ini?$AA@
  03aff	53		 push	 ebx
  03b00	68 00 00 00 00	 push	 OFFSET ??_C@_0BH@GECMKCAG@TeleportMapForDieMap40?$AA@
  03b05	68 00 00 00 00	 push	 OFFSET ??_C@_06POMJKEPM@Common?$AA@
  03b0a	89 86 14 0d 00
	00		 mov	 DWORD PTR [esi+3348], eax
  03b10	ff d7		 call	 edi

; 1210 : 	this->iTeleportMapForDieMap51 =  GetPrivateProfileInt("Common","TeleportMapForDieMap51",0,MAPDIE_PATH);

  03b12	68 00 00 00 00	 push	 OFFSET ??_C@_0BK@EBLBDIHE@?4?4?2Data?2ZtData?2MapDie?4ini?$AA@
  03b17	53		 push	 ebx
  03b18	68 00 00 00 00	 push	 OFFSET ??_C@_0BH@HMPFPJHA@TeleportMapForDieMap51?$AA@
  03b1d	68 00 00 00 00	 push	 OFFSET ??_C@_06POMJKEPM@Common?$AA@
  03b22	89 86 18 0d 00
	00		 mov	 DWORD PTR [esi+3352], eax
  03b28	ff d7		 call	 edi

; 1211 : 
; 1212 : 	this->DW_MapStart = GetPrivateProfileInt("ZtTeam","DW_MapStart",0,MAPSTART_PATH);

  03b2a	68 00 00 00 00	 push	 OFFSET ??_C@_0BM@IKFOIIJL@?4?4?2Data?2ZtData?2MapStart?4ini?$AA@
  03b2f	53		 push	 ebx
  03b30	68 00 00 00 00	 push	 OFFSET ??_C@_0M@GINFJINP@DW_MapStart?$AA@
  03b35	68 00 00 00 00	 push	 OFFSET ??_C@_06CNKIADGI@ZtTeam?$AA@
  03b3a	89 86 1c 0d 00
	00		 mov	 DWORD PTR [esi+3356], eax
  03b40	ff d7		 call	 edi

; 1213 : 	this->DW_X = GetPrivateProfileInt("ZtTeam","DW_X",-1,MAPSTART_PATH);

  03b42	68 00 00 00 00	 push	 OFFSET ??_C@_0BM@IKFOIIJL@?4?4?2Data?2ZtData?2MapStart?4ini?$AA@
  03b47	6a ff		 push	 -1
  03b49	68 00 00 00 00	 push	 OFFSET ??_C@_04NHPGHPKB@DW_X?$AA@
  03b4e	68 00 00 00 00	 push	 OFFSET ??_C@_06CNKIADGI@ZtTeam?$AA@
  03b53	89 86 20 0d 00
	00		 mov	 DWORD PTR [esi+3360], eax
  03b59	ff d7		 call	 edi

; 1214 : 	this->DW_Y = GetPrivateProfileInt("ZtTeam","DW_Y",-1,MAPSTART_PATH);

  03b5b	68 00 00 00 00	 push	 OFFSET ??_C@_0BM@IKFOIIJL@?4?4?2Data?2ZtData?2MapStart?4ini?$AA@
  03b60	6a ff		 push	 -1
  03b62	68 00 00 00 00	 push	 OFFSET ??_C@_04MOONEOOA@DW_Y?$AA@
  03b67	68 00 00 00 00	 push	 OFFSET ??_C@_06CNKIADGI@ZtTeam?$AA@
  03b6c	89 86 24 0d 00
	00		 mov	 DWORD PTR [esi+3364], eax
  03b72	ff d7		 call	 edi

; 1215 : 	this->DK_MapStart = GetPrivateProfileInt("ZtTeam","DK_MapStart",0,MAPSTART_PATH);

  03b74	68 00 00 00 00	 push	 OFFSET ??_C@_0BM@IKFOIIJL@?4?4?2Data?2ZtData?2MapStart?4ini?$AA@
  03b79	53		 push	 ebx
  03b7a	68 00 00 00 00	 push	 OFFSET ??_C@_0M@MMDJMOND@DK_MapStart?$AA@
  03b7f	68 00 00 00 00	 push	 OFFSET ??_C@_06CNKIADGI@ZtTeam?$AA@
  03b84	89 86 28 0d 00
	00		 mov	 DWORD PTR [esi+3368], eax
  03b8a	ff d7		 call	 edi

; 1216 : 	this->DK_X = GetPrivateProfileInt("ZtTeam","DK_X",-1,MAPSTART_PATH);

  03b8c	68 00 00 00 00	 push	 OFFSET ??_C@_0BM@IKFOIIJL@?4?4?2Data?2ZtData?2MapStart?4ini?$AA@
  03b91	6a ff		 push	 -1
  03b93	68 00 00 00 00	 push	 OFFSET ??_C@_04MNDJJHIG@DK_X?$AA@
  03b98	68 00 00 00 00	 push	 OFFSET ??_C@_06CNKIADGI@ZtTeam?$AA@
  03b9d	89 86 2c 0d 00
	00		 mov	 DWORD PTR [esi+3372], eax
  03ba3	ff d7		 call	 edi

; 1217 : 	this->DK_Y = GetPrivateProfileInt("ZtTeam","DK_Y",-1,MAPSTART_PATH);

  03ba5	68 00 00 00 00	 push	 OFFSET ??_C@_0BM@IKFOIIJL@?4?4?2Data?2ZtData?2MapStart?4ini?$AA@
  03baa	6a ff		 push	 -1
  03bac	89 86 30 0d 00
	00		 mov	 DWORD PTR [esi+3376], eax
  03bb2	68 00 00 00 00	 push	 OFFSET ??_C@_04NECCKGMH@DK_Y?$AA@
  03bb7	68 00 00 00 00	 push	 OFFSET ??_C@_06CNKIADGI@ZtTeam?$AA@
  03bbc	ff d7		 call	 edi

; 1218 : 	this->EE_MapStart = GetPrivateProfileInt("ZtTeam","EE_MapStart",0,MAPSTART_PATH);

  03bbe	68 00 00 00 00	 push	 OFFSET ??_C@_0BM@IKFOIIJL@?4?4?2Data?2ZtData?2MapStart?4ini?$AA@
  03bc3	53		 push	 ebx
  03bc4	68 00 00 00 00	 push	 OFFSET ??_C@_0M@FOKKJLK@EE_MapStart?$AA@
  03bc9	68 00 00 00 00	 push	 OFFSET ??_C@_06CNKIADGI@ZtTeam?$AA@
  03bce	89 86 34 0d 00
	00		 mov	 DWORD PTR [esi+3380], eax
  03bd4	ff d7		 call	 edi

; 1219 : 	this->EE_X = GetPrivateProfileInt("ZtTeam","EE_X",-1,MAPSTART_PATH);

  03bd6	68 00 00 00 00	 push	 OFFSET ??_C@_0BM@IKFOIIJL@?4?4?2Data?2ZtData?2MapStart?4ini?$AA@
  03bdb	6a ff		 push	 -1
  03bdd	68 00 00 00 00	 push	 OFFSET ??_C@_04BAIGMJAF@EE_X?$AA@
  03be2	68 00 00 00 00	 push	 OFFSET ??_C@_06CNKIADGI@ZtTeam?$AA@
  03be7	89 86 38 0d 00
	00		 mov	 DWORD PTR [esi+3384], eax
  03bed	ff d7		 call	 edi

; 1220 : 	this->EE_Y = GetPrivateProfileInt("ZtTeam","EE_Y",-1,MAPSTART_PATH);

  03bef	68 00 00 00 00	 push	 OFFSET ??_C@_0BM@IKFOIIJL@?4?4?2Data?2ZtData?2MapStart?4ini?$AA@
  03bf4	6a ff		 push	 -1
  03bf6	68 00 00 00 00	 push	 OFFSET ??_C@_04JJNPIEE@EE_Y?$AA@
  03bfb	68 00 00 00 00	 push	 OFFSET ??_C@_06CNKIADGI@ZtTeam?$AA@
  03c00	89 86 3c 0d 00
	00		 mov	 DWORD PTR [esi+3388], eax
  03c06	ff d7		 call	 edi

; 1221 : 	this->SU_MapStart = GetPrivateProfileInt("ZtTeam","SU_MapStart",0,MAPSTART_PATH);

  03c08	68 00 00 00 00	 push	 OFFSET ??_C@_0BM@IKFOIIJL@?4?4?2Data?2ZtData?2MapStart?4ini?$AA@
  03c0d	53		 push	 ebx
  03c0e	68 00 00 00 00	 push	 OFFSET ??_C@_0M@EIDJCFGN@SU_MapStart?$AA@
  03c13	68 00 00 00 00	 push	 OFFSET ??_C@_06CNKIADGI@ZtTeam?$AA@
  03c18	89 86 40 0d 00
	00		 mov	 DWORD PTR [esi+3392], eax
  03c1e	ff d7		 call	 edi

; 1222 : 	this->SU_X = GetPrivateProfileInt("ZtTeam","SU_X",-1,MAPSTART_PATH);

  03c20	68 00 00 00 00	 push	 OFFSET ??_C@_0BM@IKFOIIJL@?4?4?2Data?2ZtData?2MapStart?4ini?$AA@
  03c25	6a ff		 push	 -1
  03c27	68 00 00 00 00	 push	 OFFSET ??_C@_04KPDPPMLI@SU_X?$AA@
  03c2c	68 00 00 00 00	 push	 OFFSET ??_C@_06CNKIADGI@ZtTeam?$AA@
  03c31	89 86 44 0d 00
	00		 mov	 DWORD PTR [esi+3396], eax
  03c37	ff d7		 call	 edi

; 1223 : 	this->SU_Y = GetPrivateProfileInt("ZtTeam","SU_Y",-1,MAPSTART_PATH);

  03c39	68 00 00 00 00	 push	 OFFSET ??_C@_0BM@IKFOIIJL@?4?4?2Data?2ZtData?2MapStart?4ini?$AA@
  03c3e	6a ff		 push	 -1
  03c40	68 00 00 00 00	 push	 OFFSET ??_C@_04LGCEMNPJ@SU_Y?$AA@
  03c45	68 00 00 00 00	 push	 OFFSET ??_C@_06CNKIADGI@ZtTeam?$AA@
  03c4a	89 86 48 0d 00
	00		 mov	 DWORD PTR [esi+3400], eax
  03c50	ff d7		 call	 edi

; 1224 : 	this->MG_MapStart = GetPrivateProfileInt("ZtTeam","MG_MapStart",0,MAPSTART_PATH);

  03c52	68 00 00 00 00	 push	 OFFSET ??_C@_0BM@IKFOIIJL@?4?4?2Data?2ZtData?2MapStart?4ini?$AA@
  03c57	53		 push	 ebx
  03c58	68 00 00 00 00	 push	 OFFSET ??_C@_0M@FLIKGGIF@MG_MapStart?$AA@
  03c5d	68 00 00 00 00	 push	 OFFSET ??_C@_06CNKIADGI@ZtTeam?$AA@
  03c62	89 86 4c 0d 00
	00		 mov	 DWORD PTR [esi+3404], eax
  03c68	ff d7		 call	 edi

; 1225 : 	this->MG_X = GetPrivateProfileInt("ZtTeam","MG_X",-1,MAPSTART_PATH);

  03c6a	68 00 00 00 00	 push	 OFFSET ??_C@_0BM@IKFOIIJL@?4?4?2Data?2ZtData?2MapStart?4ini?$AA@
  03c6f	6a ff		 push	 -1
  03c71	68 00 00 00 00	 push	 OFFSET ??_C@_04IKPPEKEP@MG_X?$AA@
  03c76	68 00 00 00 00	 push	 OFFSET ??_C@_06CNKIADGI@ZtTeam?$AA@
  03c7b	89 86 50 0d 00
	00		 mov	 DWORD PTR [esi+3408], eax
  03c81	ff d7		 call	 edi

; 1226 : 	this->MG_Y = GetPrivateProfileInt("ZtTeam","MG_Y",-1,MAPSTART_PATH);

  03c83	68 00 00 00 00	 push	 OFFSET ??_C@_0BM@IKFOIIJL@?4?4?2Data?2ZtData?2MapStart?4ini?$AA@
  03c88	6a ff		 push	 -1
  03c8a	68 00 00 00 00	 push	 OFFSET ??_C@_04JDOEHLAO@MG_Y?$AA@
  03c8f	68 00 00 00 00	 push	 OFFSET ??_C@_06CNKIADGI@ZtTeam?$AA@
  03c94	89 86 54 0d 00
	00		 mov	 DWORD PTR [esi+3412], eax
  03c9a	ff d7		 call	 edi

; 1227 : 	this->DL_MapStart = GetPrivateProfileInt("ZtTeam","DL_MapStart",0,MAPSTART_PATH);

  03c9c	68 00 00 00 00	 push	 OFFSET ??_C@_0BM@IKFOIIJL@?4?4?2Data?2ZtData?2MapStart?4ini?$AA@
  03ca1	53		 push	 ebx
  03ca2	68 00 00 00 00	 push	 OFFSET ??_C@_0M@OFACNLFA@DL_MapStart?$AA@
  03ca7	68 00 00 00 00	 push	 OFFSET ??_C@_06CNKIADGI@ZtTeam?$AA@
  03cac	89 86 58 0d 00
	00		 mov	 DWORD PTR [esi+3416], eax
  03cb2	ff d7		 call	 edi

; 1228 : 	this->DL_X = GetPrivateProfileInt("ZtTeam","DL_X",-1,MAPSTART_PATH);

  03cb4	68 00 00 00 00	 push	 OFFSET ??_C@_0BM@IKFOIIJL@?4?4?2Data?2ZtData?2MapStart?4ini?$AA@
  03cb9	6a ff		 push	 -1
  03cbb	68 00 00 00 00	 push	 OFFSET ??_C@_04FAOOKPDP@DL_X?$AA@
  03cc0	68 00 00 00 00	 push	 OFFSET ??_C@_06CNKIADGI@ZtTeam?$AA@
  03cc5	89 86 5c 0d 00
	00		 mov	 DWORD PTR [esi+3420], eax
  03ccb	ff d7		 call	 edi

; 1229 : 	this->DL_Y = GetPrivateProfileInt("ZtTeam","DL_Y",-1,MAPSTART_PATH);

  03ccd	68 00 00 00 00	 push	 OFFSET ??_C@_0BM@IKFOIIJL@?4?4?2Data?2ZtData?2MapStart?4ini?$AA@
  03cd2	6a ff		 push	 -1
  03cd4	68 00 00 00 00	 push	 OFFSET ??_C@_04EJPFJOHO@DL_Y?$AA@
  03cd9	68 00 00 00 00	 push	 OFFSET ??_C@_06CNKIADGI@ZtTeam?$AA@
  03cde	89 86 60 0d 00
	00		 mov	 DWORD PTR [esi+3424], eax
  03ce4	ff d7		 call	 edi

; 1230 : 	this->RF_MapStart = GetPrivateProfileInt("ZtTeam","RF_MapStart",0,MAPSTART_PATH);

  03ce6	68 00 00 00 00	 push	 OFFSET ??_C@_0BM@IKFOIIJL@?4?4?2Data?2ZtData?2MapStart?4ini?$AA@
  03ceb	53		 push	 ebx
  03cec	68 00 00 00 00	 push	 OFFSET ??_C@_0M@OEIIMLMI@RF_MapStart?$AA@
  03cf1	68 00 00 00 00	 push	 OFFSET ??_C@_06CNKIADGI@ZtTeam?$AA@
  03cf6	89 86 64 0d 00
	00		 mov	 DWORD PTR [esi+3428], eax
  03cfc	ff d7		 call	 edi
  03cfe	89 86 68 0d 00
	00		 mov	 DWORD PTR [esi+3432], eax

; 1231 : 	this->RF_X = GetPrivateProfileInt("ZtTeam","RF_X",-1,MAPSTART_PATH);

  03d04	68 00 00 00 00	 push	 OFFSET ??_C@_0BM@IKFOIIJL@?4?4?2Data?2ZtData?2MapStart?4ini?$AA@
  03d09	6a ff		 push	 -1
  03d0b	68 00 00 00 00	 push	 OFFSET ??_C@_04NAPDCNHJ@RF_X?$AA@
  03d10	68 00 00 00 00	 push	 OFFSET ??_C@_06CNKIADGI@ZtTeam?$AA@
  03d15	ff d7		 call	 edi

; 1232 : 	this->RF_Y = GetPrivateProfileInt("ZtTeam","RF_Y",-1,MAPSTART_PATH);

  03d17	68 00 00 00 00	 push	 OFFSET ??_C@_0BM@IKFOIIJL@?4?4?2Data?2ZtData?2MapStart?4ini?$AA@
  03d1c	6a ff		 push	 -1
  03d1e	68 00 00 00 00	 push	 OFFSET ??_C@_04MJOIBMDI@RF_Y?$AA@
  03d23	68 00 00 00 00	 push	 OFFSET ??_C@_06CNKIADGI@ZtTeam?$AA@
  03d28	89 86 6c 0d 00
	00		 mov	 DWORD PTR [esi+3436], eax
  03d2e	ff d7		 call	 edi

; 1233 : 
; 1234 : 	if(g_ZtLicense.CheckUser(eZtUB::Local)  || g_ZtLicense.CheckUser(eZtUB::eternalmu) ||
; 1235 : 	   g_ZtLicense.CheckUser(eZtUB::Artem)  || g_ZtLicense.CheckUser(eZtUB::Artem2)	|| 
; 1236 : 	   g_ZtLicense.CheckUser(eZtUB::NSGames)|| 
; 1237 : 	   g_ZtLicense.CheckUser(eZtUB::ulasevich)	|| g_ZtLicense.CheckUser(eZtUB::ulasevich2))

  03d30	53		 push	 ebx
  03d31	b9 00 00 00 00	 mov	 ecx, OFFSET ?g_ZtLicense@@3VCZtLicense@@A ; g_ZtLicense
  03d36	89 86 70 0d 00
	00		 mov	 DWORD PTR [esi+3440], eax
  03d3c	e8 00 00 00 00	 call	 ?CheckUser@CZtLicense@@QAE_NH@Z ; CZtLicense::CheckUser
  03d41	84 c0		 test	 al, al
  03d43	75 77		 jne	 SHORT $LN6@LoadConfig
  03d45	6a 4f		 push	 79			; 0000004fH
  03d47	b9 00 00 00 00	 mov	 ecx, OFFSET ?g_ZtLicense@@3VCZtLicense@@A ; g_ZtLicense
  03d4c	e8 00 00 00 00	 call	 ?CheckUser@CZtLicense@@QAE_NH@Z ; CZtLicense::CheckUser
  03d51	84 c0		 test	 al, al
  03d53	75 67		 jne	 SHORT $LN6@LoadConfig
  03d55	6a 30		 push	 48			; 00000030H
  03d57	b9 00 00 00 00	 mov	 ecx, OFFSET ?g_ZtLicense@@3VCZtLicense@@A ; g_ZtLicense
  03d5c	e8 00 00 00 00	 call	 ?CheckUser@CZtLicense@@QAE_NH@Z ; CZtLicense::CheckUser
  03d61	84 c0		 test	 al, al
  03d63	75 57		 jne	 SHORT $LN6@LoadConfig
  03d65	6a 31		 push	 49			; 00000031H
  03d67	b9 00 00 00 00	 mov	 ecx, OFFSET ?g_ZtLicense@@3VCZtLicense@@A ; g_ZtLicense
  03d6c	e8 00 00 00 00	 call	 ?CheckUser@CZtLicense@@QAE_NH@Z ; CZtLicense::CheckUser
  03d71	84 c0		 test	 al, al
  03d73	75 47		 jne	 SHORT $LN6@LoadConfig
  03d75	6a 51		 push	 81			; 00000051H
  03d77	b9 00 00 00 00	 mov	 ecx, OFFSET ?g_ZtLicense@@3VCZtLicense@@A ; g_ZtLicense
  03d7c	e8 00 00 00 00	 call	 ?CheckUser@CZtLicense@@QAE_NH@Z ; CZtLicense::CheckUser
  03d81	84 c0		 test	 al, al
  03d83	75 37		 jne	 SHORT $LN6@LoadConfig
  03d85	6a 17		 push	 23			; 00000017H
  03d87	b9 00 00 00 00	 mov	 ecx, OFFSET ?g_ZtLicense@@3VCZtLicense@@A ; g_ZtLicense
  03d8c	e8 00 00 00 00	 call	 ?CheckUser@CZtLicense@@QAE_NH@Z ; CZtLicense::CheckUser
  03d91	84 c0		 test	 al, al
  03d93	75 27		 jne	 SHORT $LN6@LoadConfig
  03d95	6a 24		 push	 36			; 00000024H
  03d97	b9 00 00 00 00	 mov	 ecx, OFFSET ?g_ZtLicense@@3VCZtLicense@@A ; g_ZtLicense
  03d9c	e8 00 00 00 00	 call	 ?CheckUser@CZtLicense@@QAE_NH@Z ; CZtLicense::CheckUser
  03da1	84 c0		 test	 al, al
  03da3	75 17		 jne	 SHORT $LN6@LoadConfig

; 1252 : 	}
; 1253 : 	else
; 1254 : 	{
; 1255 : 		this->m_bNewBuffPremiumEnable = false;

  03da5	88 86 74 0d 00
	00		 mov	 BYTE PTR [esi+3444], al

; 1256 : 		this->m_bNewBuffGuildEnable = false;

  03dab	88 86 80 0d 00
	00		 mov	 BYTE PTR [esi+3456], al

; 1257 : 		this->m_bNewBuffPartyEnable = false;

  03db1	88 86 90 0d 00
	00		 mov	 BYTE PTR [esi+3472], al
  03db7	e9 17 01 00 00	 jmp	 $LN5@LoadConfig
$LN6@LoadConfig:

; 1238 : 	{
; 1239 : 		this->m_bNewBuffPremiumEnable = GetPrivateProfileInt("ZtTeam","NewBuffPremiumEnable",0,NEWBUFF_PATH);

  03dbc	68 00 00 00 00	 push	 OFFSET ??_C@_0BL@DOCLALOP@?4?4?2Data?2ZtData?2NewBuff?4ini?$AA@
  03dc1	53		 push	 ebx
  03dc2	68 00 00 00 00	 push	 OFFSET ??_C@_0BF@MIDBBLDM@NewBuffPremiumEnable?$AA@
  03dc7	68 00 00 00 00	 push	 OFFSET ??_C@_06CNKIADGI@ZtTeam?$AA@
  03dcc	ff d7		 call	 edi

; 1240 : 		this->m_iNewBuffPremiumDamage = GetPrivateProfileInt("ZtTeam","NewBuffPremiumDamage",0,NEWBUFF_PATH);

  03dce	68 00 00 00 00	 push	 OFFSET ??_C@_0BL@DOCLALOP@?4?4?2Data?2ZtData?2NewBuff?4ini?$AA@
  03dd3	53		 push	 ebx
  03dd4	85 c0		 test	 eax, eax
  03dd6	68 00 00 00 00	 push	 OFFSET ??_C@_0BF@EEAAAPFD@NewBuffPremiumDamage?$AA@
  03ddb	0f 95 c0	 setne	 al
  03dde	68 00 00 00 00	 push	 OFFSET ??_C@_06CNKIADGI@ZtTeam?$AA@
  03de3	88 86 74 0d 00
	00		 mov	 BYTE PTR [esi+3444], al
  03de9	ff d7		 call	 edi

; 1241 : 		this->m_iNewBuffPremiumDefence = GetPrivateProfileInt("ZtTeam","NewBuffPremiumDefence",0,NEWBUFF_PATH);

  03deb	68 00 00 00 00	 push	 OFFSET ??_C@_0BL@DOCLALOP@?4?4?2Data?2ZtData?2NewBuff?4ini?$AA@
  03df0	53		 push	 ebx
  03df1	68 00 00 00 00	 push	 OFFSET ??_C@_0BG@PICBNOIL@NewBuffPremiumDefence?$AA@
  03df6	68 00 00 00 00	 push	 OFFSET ??_C@_06CNKIADGI@ZtTeam?$AA@
  03dfb	89 86 78 0d 00
	00		 mov	 DWORD PTR [esi+3448], eax
  03e01	ff d7		 call	 edi

; 1242 : 
; 1243 : 		this->m_bNewBuffGuildEnable = GetPrivateProfileInt("ZtTeam","NewBuffGuildEnable",0,NEWBUFF_PATH);

  03e03	68 00 00 00 00	 push	 OFFSET ??_C@_0BL@DOCLALOP@?4?4?2Data?2ZtData?2NewBuff?4ini?$AA@
  03e08	53		 push	 ebx
  03e09	68 00 00 00 00	 push	 OFFSET ??_C@_0BD@LNOEAKKB@NewBuffGuildEnable?$AA@
  03e0e	68 00 00 00 00	 push	 OFFSET ??_C@_06CNKIADGI@ZtTeam?$AA@
  03e13	89 86 7c 0d 00
	00		 mov	 DWORD PTR [esi+3452], eax
  03e19	ff d7		 call	 edi

; 1244 : 		this->m_bNewBuffGuildMembOnline = GetPrivateProfileInt("ZtTeam","NewBuffGuildMembOnline",0,NEWBUFF_PATH);

  03e1b	68 00 00 00 00	 push	 OFFSET ??_C@_0BL@DOCLALOP@?4?4?2Data?2ZtData?2NewBuff?4ini?$AA@
  03e20	53		 push	 ebx
  03e21	85 c0		 test	 eax, eax
  03e23	68 00 00 00 00	 push	 OFFSET ??_C@_0BH@HCIGDAG@NewBuffGuildMembOnline?$AA@
  03e28	0f 95 c1	 setne	 cl
  03e2b	68 00 00 00 00	 push	 OFFSET ??_C@_06CNKIADGI@ZtTeam?$AA@
  03e30	88 8e 80 0d 00
	00		 mov	 BYTE PTR [esi+3456], cl
  03e36	ff d7		 call	 edi

; 1245 : 		this->m_iNewBuffGuildDamage = GetPrivateProfileInt("ZtTeam","NewBuffGuildDamage",0,NEWBUFF_PATH);

  03e38	68 00 00 00 00	 push	 OFFSET ??_C@_0BL@DOCLALOP@?4?4?2Data?2ZtData?2NewBuff?4ini?$AA@
  03e3d	53		 push	 ebx
  03e3e	68 00 00 00 00	 push	 OFFSET ??_C@_0BD@DBNFBOMO@NewBuffGuildDamage?$AA@
  03e43	68 00 00 00 00	 push	 OFFSET ??_C@_06CNKIADGI@ZtTeam?$AA@
  03e48	89 86 84 0d 00
	00		 mov	 DWORD PTR [esi+3460], eax
  03e4e	ff d7		 call	 edi

; 1246 : 		this->m_iNewBuffGuildDefence = GetPrivateProfileInt("ZtTeam","NewBuffGuildDefence",0,NEWBUFF_PATH);

  03e50	68 00 00 00 00	 push	 OFFSET ??_C@_0BL@DOCLALOP@?4?4?2Data?2ZtData?2NewBuff?4ini?$AA@
  03e55	53		 push	 ebx
  03e56	68 00 00 00 00	 push	 OFFSET ??_C@_0BE@HGOKOEGD@NewBuffGuildDefence?$AA@
  03e5b	68 00 00 00 00	 push	 OFFSET ??_C@_06CNKIADGI@ZtTeam?$AA@
  03e60	89 86 88 0d 00
	00		 mov	 DWORD PTR [esi+3464], eax
  03e66	ff d7		 call	 edi

; 1247 : 
; 1248 : 		this->m_bNewBuffPartyEnable = GetPrivateProfileInt("ZtTeam","NewBuffPartyEnable",0,NEWBUFF_PATH);

  03e68	68 00 00 00 00	 push	 OFFSET ??_C@_0BL@DOCLALOP@?4?4?2Data?2ZtData?2NewBuff?4ini?$AA@
  03e6d	53		 push	 ebx
  03e6e	68 00 00 00 00	 push	 OFFSET ??_C@_0BD@PEKDAHBH@NewBuffPartyEnable?$AA@
  03e73	68 00 00 00 00	 push	 OFFSET ??_C@_06CNKIADGI@ZtTeam?$AA@
  03e78	89 86 8c 0d 00
	00		 mov	 DWORD PTR [esi+3468], eax
  03e7e	ff d7		 call	 edi

; 1249 : 		this->m_bNewBuffPartyMembCount = GetPrivateProfileInt("ZtTeam","NewBuffPartyMembCount",0,NEWBUFF_PATH);

  03e80	68 00 00 00 00	 push	 OFFSET ??_C@_0BL@DOCLALOP@?4?4?2Data?2ZtData?2NewBuff?4ini?$AA@
  03e85	53		 push	 ebx
  03e86	85 c0		 test	 eax, eax
  03e88	68 00 00 00 00	 push	 OFFSET ??_C@_0BG@DGGLLPMG@NewBuffPartyMembCount?$AA@
  03e8d	0f 95 c2	 setne	 dl
  03e90	68 00 00 00 00	 push	 OFFSET ??_C@_06CNKIADGI@ZtTeam?$AA@
  03e95	88 96 90 0d 00
	00		 mov	 BYTE PTR [esi+3472], dl
  03e9b	ff d7		 call	 edi

; 1250 : 		this->m_iNewBuffPartyDamage = GetPrivateProfileInt("ZtTeam","NewBuffPartyDamage",0,NEWBUFF_PATH);

  03e9d	68 00 00 00 00	 push	 OFFSET ??_C@_0BL@DOCLALOP@?4?4?2Data?2ZtData?2NewBuff?4ini?$AA@
  03ea2	53		 push	 ebx
  03ea3	68 00 00 00 00	 push	 OFFSET ??_C@_0BD@HIJCBDHI@NewBuffPartyDamage?$AA@
  03ea8	68 00 00 00 00	 push	 OFFSET ??_C@_06CNKIADGI@ZtTeam?$AA@
  03ead	89 86 94 0d 00
	00		 mov	 DWORD PTR [esi+3476], eax
  03eb3	ff d7		 call	 edi

; 1251 : 		this->m_iNewBuffPartyDefence = GetPrivateProfileInt("ZtTeam","NewBuffPartyDefence",0,NEWBUFF_PATH);

  03eb5	68 00 00 00 00	 push	 OFFSET ??_C@_0BL@DOCLALOP@?4?4?2Data?2ZtData?2NewBuff?4ini?$AA@
  03eba	53		 push	 ebx
  03ebb	68 00 00 00 00	 push	 OFFSET ??_C@_0BE@FEKBLFNH@NewBuffPartyDefence?$AA@
  03ec0	68 00 00 00 00	 push	 OFFSET ??_C@_06CNKIADGI@ZtTeam?$AA@
  03ec5	89 86 98 0d 00
	00		 mov	 DWORD PTR [esi+3480], eax
  03ecb	ff d7		 call	 edi
  03ecd	89 86 9c 0d 00
	00		 mov	 DWORD PTR [esi+3484], eax
$LN5@LoadConfig:

; 1258 : 	}
; 1259 : 
; 1260 : 
; 1261 : 	//---------------------------------
; 1262 : 	//			All Character reload
; 1263 : 	//---------------------------------
; 1264 : 
; 1265 : 	for (int n=OBJ_STARTUSERINDZT;n<OBJMAX; n++)

  03ed3	bf b0 36 00 00	 mov	 edi, 14000		; 000036b0H
  03ed8	be 00 a7 40 09	 mov	 esi, 155232000		; 0940a700H
  03edd	5b		 pop	 ebx
  03ede	8b ff		 npad	 2
$LL4@LoadConfig:

; 1266 : 	{
; 1267 : 		LPOBJ lpObj = &gObj[n];
; 1268 : 		if ( lpObj->Connected >= PLAYER_PLAYING)

  03ee0	a1 00 00 00 00	 mov	 eax, DWORD PTR ?gObj@@3PAUOBJECTSTRUCT@@A ; gObj
  03ee5	83 7c 06 04 03	 cmp	 DWORD PTR [esi+eax+4], 3
  03eea	7c 09		 jl	 SHORT $LN3@LoadConfig

; 1269 : 		{
; 1270 : 			gObjCalCharacter(n);

  03eec	57		 push	 edi
  03eed	e8 00 00 00 00	 call	 ?gObjCalCharacter@@YAXH@Z ; gObjCalCharacter
  03ef2	83 c4 04	 add	 esp, 4
$LN3@LoadConfig:

; 1258 : 	}
; 1259 : 
; 1260 : 
; 1261 : 	//---------------------------------
; 1262 : 	//			All Character reload
; 1263 : 	//---------------------------------
; 1264 : 
; 1265 : 	for (int n=OBJ_STARTUSERINDZT;n<OBJMAX; n++)

  03ef5	81 c6 50 2b 00
	00		 add	 esi, 11088		; 00002b50H
  03efb	47		 inc	 edi
  03efc	81 fe 80 d7 e9
	09		 cmp	 esi, 166320000		; 09e9d780H
  03f02	7c dc		 jl	 SHORT $LL4@LoadConfig

; 1271 : 		}
; 1272 : 	}
; 1273 : 
; 1274 : 	
; 1275 : 
; 1276 : }

  03f04	8b 4d fc	 mov	 ecx, DWORD PTR __$ArrayPad$[ebp]
  03f07	5f		 pop	 edi
  03f08	33 cd		 xor	 ecx, ebp
  03f0a	5e		 pop	 esi
  03f0b	e8 00 00 00 00	 call	 @__security_check_cookie@4
  03f10	8b e5		 mov	 esp, ebp
  03f12	5d		 pop	 ebp
  03f13	c2 04 00	 ret	 4
$LN80@LoadConfig:
?LoadConfigs@cZtConfigs@@QAEX_N@Z ENDP			; cZtConfigs::LoadConfigs
_TEXT	ENDS
END
