; Listing generated by Microsoft (R) Optimizing Compiler Version 16.00.30319.01 

	TITLE	E:\work\tranet_version\GS\GameServer\CriticalSectionZt.cpp
	.686P
	.XMM
	include listing.inc
	.model	flat

INCLUDELIB LIBCMT
INCLUDELIB OLDNAMES

PUBLIC	??_7CCriticalSectionZt@@6B@			; CCriticalSectionZt::`vftable'
PUBLIC	??0CCriticalSectionZt@@QAE@XZ			; CCriticalSectionZt::CCriticalSectionZt
PUBLIC	??_R4CCriticalSectionZt@@6B@			; CCriticalSectionZt::`RTTI Complete Object Locator'
PUBLIC	??_R0?AVCCriticalSectionZt@@@8			; CCriticalSectionZt `RTTI Type Descriptor'
PUBLIC	??_R3CCriticalSectionZt@@8			; CCriticalSectionZt::`RTTI Class Hierarchy Descriptor'
PUBLIC	??_R2CCriticalSectionZt@@8			; CCriticalSectionZt::`RTTI Base Class Array'
PUBLIC	??_R1A@?0A@EA@CCriticalSectionZt@@8		; CCriticalSectionZt::`RTTI Base Class Descriptor at (0,-1,0,64)'
EXTRN	__imp__InitializeCriticalSection@4:PROC
EXTRN	??_7type_info@@6B@:QWORD			; type_info::`vftable'
EXTRN	??_ECCriticalSectionZt@@UAEPAXI@Z:PROC		; CCriticalSectionZt::`vector deleting destructor'
;	COMDAT ??_R1A@?0A@EA@CCriticalSectionZt@@8
; File e:\work\tranet_version\gs\gameserver\criticalsectionzt.cpp
rdata$r	SEGMENT
??_R1A@?0A@EA@CCriticalSectionZt@@8 DD FLAT:??_R0?AVCCriticalSectionZt@@@8 ; CCriticalSectionZt::`RTTI Base Class Descriptor at (0,-1,0,64)'
	DD	00H
	DD	00H
	DD	0ffffffffH
	DD	00H
	DD	040H
	DD	FLAT:??_R3CCriticalSectionZt@@8
rdata$r	ENDS
;	COMDAT ??_R2CCriticalSectionZt@@8
rdata$r	SEGMENT
??_R2CCriticalSectionZt@@8 DD FLAT:??_R1A@?0A@EA@CCriticalSectionZt@@8 ; CCriticalSectionZt::`RTTI Base Class Array'
rdata$r	ENDS
;	COMDAT ??_R3CCriticalSectionZt@@8
rdata$r	SEGMENT
??_R3CCriticalSectionZt@@8 DD 00H			; CCriticalSectionZt::`RTTI Class Hierarchy Descriptor'
	DD	00H
	DD	01H
	DD	FLAT:??_R2CCriticalSectionZt@@8
rdata$r	ENDS
;	COMDAT ??_R0?AVCCriticalSectionZt@@@8
_DATA	SEGMENT
??_R0?AVCCriticalSectionZt@@@8 DD FLAT:??_7type_info@@6B@ ; CCriticalSectionZt `RTTI Type Descriptor'
	DD	00H
	DB	'.?AVCCriticalSectionZt@@', 00H
_DATA	ENDS
;	COMDAT ??_R4CCriticalSectionZt@@6B@
rdata$r	SEGMENT
??_R4CCriticalSectionZt@@6B@ DD 00H			; CCriticalSectionZt::`RTTI Complete Object Locator'
	DD	00H
	DD	00H
	DD	FLAT:??_R0?AVCCriticalSectionZt@@@8
	DD	FLAT:??_R3CCriticalSectionZt@@8
rdata$r	ENDS
;	COMDAT ??_7CCriticalSectionZt@@6B@
CONST	SEGMENT
??_7CCriticalSectionZt@@6B@ DD FLAT:??_R4CCriticalSectionZt@@6B@ ; CCriticalSectionZt::`vftable'
	DD	FLAT:??_ECCriticalSectionZt@@UAEPAXI@Z
; Function compile flags: /Ogtp
CONST	ENDS
;	COMDAT ??0CCriticalSectionZt@@QAE@XZ
_TEXT	SEGMENT
??0CCriticalSectionZt@@QAE@XZ PROC			; CCriticalSectionZt::CCriticalSectionZt, COMDAT
; _this$ = ecx

; 5    : {

  00000	56		 push	 esi
  00001	8b f1		 mov	 esi, ecx

; 6    : 	InitializeCriticalSection(&this->m_critical);

  00003	8d 46 04	 lea	 eax, DWORD PTR [esi+4]
  00006	50		 push	 eax
  00007	c7 06 00 00 00
	00		 mov	 DWORD PTR [esi], OFFSET ??_7CCriticalSectionZt@@6B@
  0000d	ff 15 00 00 00
	00		 call	 DWORD PTR __imp__InitializeCriticalSection@4

; 7    : }

  00013	8b c6		 mov	 eax, esi
  00015	5e		 pop	 esi
  00016	c3		 ret	 0
??0CCriticalSectionZt@@QAE@XZ ENDP			; CCriticalSectionZt::CCriticalSectionZt
_TEXT	ENDS
PUBLIC	??1CCriticalSectionZt@@UAE@XZ			; CCriticalSectionZt::~CCriticalSectionZt
EXTRN	__imp__DeleteCriticalSection@4:PROC
; Function compile flags: /Ogtp
;	COMDAT ??1CCriticalSectionZt@@UAE@XZ
_TEXT	SEGMENT
??1CCriticalSectionZt@@UAE@XZ PROC			; CCriticalSectionZt::~CCriticalSectionZt, COMDAT
; _this$ = ecx

; 10   : {

  00000	c7 01 00 00 00
	00		 mov	 DWORD PTR [ecx], OFFSET ??_7CCriticalSectionZt@@6B@

; 11   : 	DeleteCriticalSection(&this->m_critical);

  00006	83 c1 04	 add	 ecx, 4
  00009	51		 push	 ecx
  0000a	ff 15 00 00 00
	00		 call	 DWORD PTR __imp__DeleteCriticalSection@4

; 12   : }

  00010	c3		 ret	 0
??1CCriticalSectionZt@@UAE@XZ ENDP			; CCriticalSectionZt::~CCriticalSectionZt
_TEXT	ENDS
PUBLIC	?lock@CCriticalSectionZt@@QAEXXZ		; CCriticalSectionZt::lock
EXTRN	__imp__EnterCriticalSection@4:PROC
; Function compile flags: /Ogtp
;	COMDAT ?lock@CCriticalSectionZt@@QAEXXZ
_TEXT	SEGMENT
?lock@CCriticalSectionZt@@QAEXXZ PROC			; CCriticalSectionZt::lock, COMDAT
; _this$ = ecx

; 16   : 	EnterCriticalSection(&this->m_critical);

  00000	83 c1 04	 add	 ecx, 4
  00003	51		 push	 ecx
  00004	ff 15 00 00 00
	00		 call	 DWORD PTR __imp__EnterCriticalSection@4

; 17   : }

  0000a	c3		 ret	 0
?lock@CCriticalSectionZt@@QAEXXZ ENDP			; CCriticalSectionZt::lock
_TEXT	ENDS
PUBLIC	?unlock@CCriticalSectionZt@@QAEXXZ		; CCriticalSectionZt::unlock
EXTRN	__imp__LeaveCriticalSection@4:PROC
; Function compile flags: /Ogtp
;	COMDAT ?unlock@CCriticalSectionZt@@QAEXXZ
_TEXT	SEGMENT
?unlock@CCriticalSectionZt@@QAEXXZ PROC			; CCriticalSectionZt::unlock, COMDAT
; _this$ = ecx

; 21   : 	LeaveCriticalSection(&this->m_critical);

  00000	83 c1 04	 add	 ecx, 4
  00003	51		 push	 ecx
  00004	ff 15 00 00 00
	00		 call	 DWORD PTR __imp__LeaveCriticalSection@4

; 22   : }

  0000a	c3		 ret	 0
?unlock@CCriticalSectionZt@@QAEXXZ ENDP			; CCriticalSectionZt::unlock
_TEXT	ENDS
EXTRN	??3@YAXPAX@Z:PROC				; operator delete
; Function compile flags: /Ogtp
;	COMDAT ??_GCCriticalSectionZt@@UAEPAXI@Z
_TEXT	SEGMENT
___flags$ = 8						; size = 4
??_GCCriticalSectionZt@@UAEPAXI@Z PROC			; CCriticalSectionZt::`scalar deleting destructor', COMDAT
; _this$ = ecx
  00000	55		 push	 ebp
  00001	8b ec		 mov	 ebp, esp
  00003	56		 push	 esi
  00004	8b f1		 mov	 esi, ecx
  00006	e8 00 00 00 00	 call	 ??1CCriticalSectionZt@@UAE@XZ ; CCriticalSectionZt::~CCriticalSectionZt
  0000b	f6 45 08 01	 test	 BYTE PTR ___flags$[ebp], 1
  0000f	74 09		 je	 SHORT $LN4@scalar
  00011	56		 push	 esi
  00012	e8 00 00 00 00	 call	 ??3@YAXPAX@Z		; operator delete
  00017	83 c4 04	 add	 esp, 4
$LN4@scalar:
  0001a	8b c6		 mov	 eax, esi
  0001c	5e		 pop	 esi
  0001d	5d		 pop	 ebp
  0001e	c2 04 00	 ret	 4
??_GCCriticalSectionZt@@UAEPAXI@Z ENDP			; CCriticalSectionZt::`scalar deleting destructor'
_TEXT	ENDS
END
