; Listing generated by Microsoft (R) Optimizing Compiler Version 16.00.30319.01 

	TITLE	E:\work\tranet_version\GS\GameServer\CrywolfStatue.cpp
	.686P
	.XMM
	include listing.inc
	.model	flat

INCLUDELIB LIBCMT
INCLUDELIB OLDNAMES

_DATA	SEGMENT
_g_iNpcUpDfLevel_CGATE DD 01H
	DD	02H
	DD	02dc6c0H
	DD	02H
	DD	03H
	DD	02dc6c0H
	DD	03H
	DD	04H
	DD	02dc6c0H
_g_iNpcUpDfLevel_CSTATUE DD 01H
	DD	03H
	DD	02dc6c0H
	DD	02H
	DD	05H
	DD	02dc6c0H
	DD	03H
	DD	07H
	DD	02dc6c0H
_g_iNpcUpMaxHP_CGATE DD 02625a0H
	DD	02H
	DD	0f4240H
	DD	03567e0H
	DD	03H
	DD	0f4240H
	DD	04f5880H
	DD	04H
	DD	0f4240H
_g_iNpcUpMaxHP_CSTATUE DD 02191c0H
	DD	03H
	DD	0f4240H
	DD	033e140H
	DD	05H
	DD	0f4240H
	DD	04c4b40H
	DD	07H
	DD	0f4240H
_g_iNpcUpRgLevel_CSTATUE DD 01H
	DD	03H
	DD	04c4b40H
	DD	02H
	DD	05H
	DD	04c4b40H
	DD	03H
	DD	07H
	DD	04c4b40H
_g_iCsUserReSpawnArea DD 023H
	DD	011H
	DD	090H
	DD	030H
	DD	04aH
	DD	090H
	DD	073H
	DD	09aH
	DD	023H
	DD	011H
	DD	090H
	DD	030H
_g_iNpcDefense_CGATE DD 064H
	DD	0b4H
	DD	012cH
	DD	0208H
_g_iNpcDefense_CSTATUE DD 050H
	DD	0b4H
	DD	0154H
	DD	0226H
_g_iCastleWallStepAxisY DD 071H
	DD	0a0H
	DD	0cbH
_DATA	ENDS
PUBLIC	??_H@YGXPAXIHP6EPAX0@Z@Z			; `vector constructor iterator'
; Function compile flags: /Ogtp
;	COMDAT ??_H@YGXPAXIHP6EPAX0@Z@Z
_TEXT	SEGMENT
___t$ = 8						; size = 4
___s$ = 12						; size = 4
___n$ = 16						; size = 4
___f$ = 20						; size = 4
??_H@YGXPAXIHP6EPAX0@Z@Z PROC				; `vector constructor iterator', COMDAT
  00000	55		 push	 ebp
  00001	8b ec		 mov	 ebp, esp
  00003	57		 push	 edi
  00004	8b 7d 10	 mov	 edi, DWORD PTR ___n$[ebp]
  00007	4f		 dec	 edi
  00008	78 14		 js	 SHORT $LN1@vector
  0000a	53		 push	 ebx
  0000b	8b 5d 14	 mov	 ebx, DWORD PTR ___f$[ebp]
  0000e	56		 push	 esi
  0000f	8b 75 08	 mov	 esi, DWORD PTR ___t$[ebp]
$LL2@vector:
  00012	8b ce		 mov	 ecx, esi
  00014	ff d3		 call	 ebx
  00016	03 75 0c	 add	 esi, DWORD PTR ___s$[ebp]
  00019	4f		 dec	 edi
  0001a	79 f6		 jns	 SHORT $LL2@vector
  0001c	5e		 pop	 esi
  0001d	5b		 pop	 ebx
$LN1@vector:
  0001e	5f		 pop	 edi
  0001f	5d		 pop	 ebp
  00020	c2 10 00	 ret	 16			; 00000010H
??_H@YGXPAXIHP6EPAX0@Z@Z ENDP				; `vector constructor iterator'
_TEXT	ENDS
PUBLIC	?Reset@CCrywolfShield@@QAEXXZ			; CCrywolfShield::Reset
; Function compile flags: /Ogtp
; File e:\work\tranet_version\gs\gameserver\crywolfstatue.h
;	COMDAT ?Reset@CCrywolfShield@@QAEXXZ
_TEXT	SEGMENT
?Reset@CCrywolfShield@@QAEXXZ PROC			; CCrywolfShield::Reset, COMDAT
; _this$ = ecx

; 26   : 		this->m_iPriestNumber = 0;

  00000	33 c0		 xor	 eax, eax
  00002	89 41 0c	 mov	 DWORD PTR [ecx+12], eax

; 27   : 		this->m_iShieldHP = 0;	

  00005	89 41 04	 mov	 DWORD PTR [ecx+4], eax

; 28   : 		this->m_iShieldMaxHP = 0;	

  00008	89 01		 mov	 DWORD PTR [ecx], eax

; 29   : 		this->m_iShieldState = 0;	

  0000a	89 41 08	 mov	 DWORD PTR [ecx+8], eax

; 30   : 	}

  0000d	c3		 ret	 0
?Reset@CCrywolfShield@@QAEXXZ ENDP			; CCrywolfShield::Reset
_TEXT	ENDS
PUBLIC	??_7CCrywolfStatue@@6B@				; CCrywolfStatue::`vftable'
PUBLIC	??1CCrywolfStatue@@UAE@XZ			; CCrywolfStatue::~CCrywolfStatue
PUBLIC	??_R4CCrywolfStatue@@6B@			; CCrywolfStatue::`RTTI Complete Object Locator'
PUBLIC	??_R0?AVCCrywolfStatue@@@8			; CCrywolfStatue `RTTI Type Descriptor'
PUBLIC	??_R3CCrywolfStatue@@8				; CCrywolfStatue::`RTTI Class Hierarchy Descriptor'
PUBLIC	??_R2CCrywolfStatue@@8				; CCrywolfStatue::`RTTI Base Class Array'
PUBLIC	??_R1A@?0A@EA@CCrywolfStatue@@8			; CCrywolfStatue::`RTTI Base Class Descriptor at (0,-1,0,64)'
EXTRN	??_7type_info@@6B@:QWORD			; type_info::`vftable'
EXTRN	??_ECCrywolfStatue@@UAEPAXI@Z:PROC		; CCrywolfStatue::`vector deleting destructor'
;	COMDAT ??_R1A@?0A@EA@CCrywolfStatue@@8
; File e:\work\tranet_version\gs\gameserver\crywolfstatue.cpp
rdata$r	SEGMENT
??_R1A@?0A@EA@CCrywolfStatue@@8 DD FLAT:??_R0?AVCCrywolfStatue@@@8 ; CCrywolfStatue::`RTTI Base Class Descriptor at (0,-1,0,64)'
	DD	00H
	DD	00H
	DD	0ffffffffH
	DD	00H
	DD	040H
	DD	FLAT:??_R3CCrywolfStatue@@8
rdata$r	ENDS
;	COMDAT ??_R2CCrywolfStatue@@8
rdata$r	SEGMENT
??_R2CCrywolfStatue@@8 DD FLAT:??_R1A@?0A@EA@CCrywolfStatue@@8 ; CCrywolfStatue::`RTTI Base Class Array'
rdata$r	ENDS
;	COMDAT ??_R3CCrywolfStatue@@8
rdata$r	SEGMENT
??_R3CCrywolfStatue@@8 DD 00H				; CCrywolfStatue::`RTTI Class Hierarchy Descriptor'
	DD	00H
	DD	01H
	DD	FLAT:??_R2CCrywolfStatue@@8
rdata$r	ENDS
;	COMDAT ??_R0?AVCCrywolfStatue@@@8
_DATA	SEGMENT
??_R0?AVCCrywolfStatue@@@8 DD FLAT:??_7type_info@@6B@	; CCrywolfStatue `RTTI Type Descriptor'
	DD	00H
	DB	'.?AVCCrywolfStatue@@', 00H
_DATA	ENDS
;	COMDAT ??_R4CCrywolfStatue@@6B@
rdata$r	SEGMENT
??_R4CCrywolfStatue@@6B@ DD 00H				; CCrywolfStatue::`RTTI Complete Object Locator'
	DD	00H
	DD	00H
	DD	FLAT:??_R0?AVCCrywolfStatue@@@8
	DD	FLAT:??_R3CCrywolfStatue@@8
rdata$r	ENDS
;	COMDAT ??_7CCrywolfStatue@@6B@
CONST	SEGMENT
??_7CCrywolfStatue@@6B@ DD FLAT:??_R4CCrywolfStatue@@6B@ ; CCrywolfStatue::`vftable'
	DD	FLAT:??_ECCrywolfStatue@@UAEPAXI@Z
; Function compile flags: /Ogtp
CONST	ENDS
;	COMDAT ??1CCrywolfStatue@@UAE@XZ
_TEXT	SEGMENT
??1CCrywolfStatue@@UAE@XZ PROC				; CCrywolfStatue::~CCrywolfStatue, COMDAT
; _this$ = ecx

; 25   : {

  00000	c7 01 00 00 00
	00		 mov	 DWORD PTR [ecx], OFFSET ??_7CCrywolfStatue@@6B@

; 26   : 
; 27   : }

  00006	c3		 ret	 0
??1CCrywolfStatue@@UAE@XZ ENDP				; CCrywolfStatue::~CCrywolfStatue
_TEXT	ENDS
PUBLIC	?GetStatueViewState@CCrywolfStatue@@QAEHH@Z	; CCrywolfStatue::GetStatueViewState
; Function compile flags: /Ogtp
;	COMDAT ?GetStatueViewState@CCrywolfStatue@@QAEHH@Z
_TEXT	SEGMENT
_iPriestNumber$ = 8					; size = 4
?GetStatueViewState@CCrywolfStatue@@QAEHH@Z PROC	; CCrywolfStatue::GetStatueViewState, COMDAT
; _this$ = ecx

; 30   : {

  00000	55		 push	 ebp
  00001	8b ec		 mov	 ebp, esp

; 31   : 	int iViewState = 0;
; 32   : 
; 33   : 	switch ( iPriestNumber )

  00003	8b 4d 08	 mov	 ecx, DWORD PTR _iPriestNumber$[ebp]
  00006	33 c0		 xor	 eax, eax
  00008	83 f9 05	 cmp	 ecx, 5
  0000b	77 36		 ja	 SHORT $LN7@GetStatueV
  0000d	ff 24 8d 00 00
	00 00		 jmp	 DWORD PTR $LN11@GetStatueV[ecx*4]
$LN6@GetStatueV:

; 34   : 	{
; 35   : 		case 0:
; 36   : 			iViewState = 0;

  00014	33 c0		 xor	 eax, eax

; 52   : 			break;
; 53   : 	}
; 54   : 
; 55   : 	return iViewState;
; 56   : }

  00016	5d		 pop	 ebp
  00017	c2 04 00	 ret	 4
$LN5@GetStatueV:

; 37   : 			break;
; 38   : 		case 1:
; 39   : 			iViewState = 1;

  0001a	b8 01 00 00 00	 mov	 eax, 1

; 52   : 			break;
; 53   : 	}
; 54   : 
; 55   : 	return iViewState;
; 56   : }

  0001f	5d		 pop	 ebp
  00020	c2 04 00	 ret	 4
$LN4@GetStatueV:

; 40   : 			break;
; 41   : 		case 2:
; 42   : 			iViewState = 2;

  00023	b8 02 00 00 00	 mov	 eax, 2

; 52   : 			break;
; 53   : 	}
; 54   : 
; 55   : 	return iViewState;
; 56   : }

  00028	5d		 pop	 ebp
  00029	c2 04 00	 ret	 4
$LN3@GetStatueV:

; 43   : 			break;
; 44   : 		case 3:
; 45   : 			iViewState = 4;

  0002c	b8 04 00 00 00	 mov	 eax, 4

; 52   : 			break;
; 53   : 	}
; 54   : 
; 55   : 	return iViewState;
; 56   : }

  00031	5d		 pop	 ebp
  00032	c2 04 00	 ret	 4
$LN2@GetStatueV:

; 46   : 			break;
; 47   : 		case 4:
; 48   : 			iViewState = 8;

  00035	b8 08 00 00 00	 mov	 eax, 8

; 52   : 			break;
; 53   : 	}
; 54   : 
; 55   : 	return iViewState;
; 56   : }

  0003a	5d		 pop	 ebp
  0003b	c2 04 00	 ret	 4
$LN1@GetStatueV:

; 49   : 			break;
; 50   : 		case 5:
; 51   : 			iViewState = 256;

  0003e	b8 00 01 00 00	 mov	 eax, 256		; 00000100H
$LN7@GetStatueV:

; 52   : 			break;
; 53   : 	}
; 54   : 
; 55   : 	return iViewState;
; 56   : }

  00043	5d		 pop	 ebp
  00044	c2 04 00	 ret	 4
  00047	90		 npad	 1
$LN11@GetStatueV:
  00048	00 00 00 00	 DD	 $LN6@GetStatueV
  0004c	00 00 00 00	 DD	 $LN5@GetStatueV
  00050	00 00 00 00	 DD	 $LN4@GetStatueV
  00054	00 00 00 00	 DD	 $LN3@GetStatueV
  00058	00 00 00 00	 DD	 $LN2@GetStatueV
  0005c	00 00 00 00	 DD	 $LN1@GetStatueV
?GetStatueViewState@CCrywolfStatue@@QAEHH@Z ENDP	; CCrywolfStatue::GetStatueViewState
_TEXT	ENDS
PUBLIC	?SetStatueViewState@CCrywolfStatue@@QAEXPAUOBJECTSTRUCT@@H@Z ; CCrywolfStatue::SetStatueViewState
EXTRN	?gObjApplyBuffEffectDuration@@YAEPAUOBJECTSTRUCT@@HEHEHH@Z:PROC ; gObjApplyBuffEffectDuration
; Function compile flags: /Ogtp
;	COMDAT ?SetStatueViewState@CCrywolfStatue@@QAEXPAUOBJECTSTRUCT@@H@Z
_TEXT	SEGMENT
_lpObj$ = 8						; size = 4
_iAltarNumber$ = 12					; size = 4
?SetStatueViewState@CCrywolfStatue@@QAEXPAUOBJECTSTRUCT@@H@Z PROC ; CCrywolfStatue::SetStatueViewState, COMDAT
; _this$ = ecx

; 59   : {

  00000	55		 push	 ebp
  00001	8b ec		 mov	 ebp, esp

; 60   : 	switch ( iAltarNumber )

  00003	8b 45 0c	 mov	 eax, DWORD PTR _iAltarNumber$[ebp]
  00006	48		 dec	 eax
  00007	83 f8 04	 cmp	 eax, 4
  0000a	0f 87 8f 00 00
	00		 ja	 $LN6@SetStatueV
  00010	ff 24 85 00 00
	00 00		 jmp	 DWORD PTR $LN12@SetStatueV[eax*4]
$LN5@SetStatueV:

; 61   : 	{
; 62   : 		case 1:
; 63   : 			gObjApplyBuffEffectDuration(lpObj, AT_CRYWOLF_PROTECTION1, 0, 0, 0, 0, -10);

  00017	8b 45 08	 mov	 eax, DWORD PTR _lpObj$[ebp]
  0001a	6a f6		 push	 -10			; fffffff6H
  0001c	6a 00		 push	 0
  0001e	6a 00		 push	 0
  00020	6a 00		 push	 0
  00022	6a 00		 push	 0
  00024	6a 42		 push	 66			; 00000042H
  00026	50		 push	 eax

; 73   : 			break;
; 74   : 		case 5:
; 75   : 			gObjApplyBuffEffectDuration(lpObj, AT_CRYWOLF_PROTECTION5, 0, 0, 0, 0, -10);

  00027	e8 00 00 00 00	 call	 ?gObjApplyBuffEffectDuration@@YAEPAUOBJECTSTRUCT@@HEHEHH@Z ; gObjApplyBuffEffectDuration
  0002c	83 c4 1c	 add	 esp, 28			; 0000001cH

; 76   : 			break;
; 77   : 	}
; 78   : }

  0002f	5d		 pop	 ebp
  00030	c2 08 00	 ret	 8
$LN4@SetStatueV:

; 73   : 			break;
; 74   : 		case 5:
; 75   : 			gObjApplyBuffEffectDuration(lpObj, AT_CRYWOLF_PROTECTION5, 0, 0, 0, 0, -10);

  00033	8b 4d 08	 mov	 ecx, DWORD PTR _lpObj$[ebp]
  00036	6a f6		 push	 -10			; fffffff6H
  00038	6a 00		 push	 0
  0003a	6a 00		 push	 0
  0003c	6a 00		 push	 0
  0003e	6a 00		 push	 0
  00040	6a 43		 push	 67			; 00000043H
  00042	51		 push	 ecx
  00043	e8 00 00 00 00	 call	 ?gObjApplyBuffEffectDuration@@YAEPAUOBJECTSTRUCT@@HEHEHH@Z ; gObjApplyBuffEffectDuration
  00048	83 c4 1c	 add	 esp, 28			; 0000001cH

; 76   : 			break;
; 77   : 	}
; 78   : }

  0004b	5d		 pop	 ebp
  0004c	c2 08 00	 ret	 8
$LN3@SetStatueV:

; 64   : 			break;
; 65   : 		case 2:
; 66   : 			gObjApplyBuffEffectDuration(lpObj, AT_CRYWOLF_PROTECTION2, 0, 0, 0, 0, -10);
; 67   : 			break;
; 68   : 		case 3:
; 69   : 			gObjApplyBuffEffectDuration(lpObj, AT_CRYWOLF_PROTECTION3, 0, 0, 0, 0, -10);

  0004f	8b 55 08	 mov	 edx, DWORD PTR _lpObj$[ebp]
  00052	6a f6		 push	 -10			; fffffff6H
  00054	6a 00		 push	 0
  00056	6a 00		 push	 0
  00058	6a 00		 push	 0
  0005a	6a 00		 push	 0
  0005c	6a 44		 push	 68			; 00000044H
  0005e	52		 push	 edx

; 73   : 			break;
; 74   : 		case 5:
; 75   : 			gObjApplyBuffEffectDuration(lpObj, AT_CRYWOLF_PROTECTION5, 0, 0, 0, 0, -10);

  0005f	e8 00 00 00 00	 call	 ?gObjApplyBuffEffectDuration@@YAEPAUOBJECTSTRUCT@@HEHEHH@Z ; gObjApplyBuffEffectDuration
  00064	83 c4 1c	 add	 esp, 28			; 0000001cH

; 76   : 			break;
; 77   : 	}
; 78   : }

  00067	5d		 pop	 ebp
  00068	c2 08 00	 ret	 8
$LN2@SetStatueV:

; 70   : 			break;
; 71   : 		case 4:
; 72   : 			gObjApplyBuffEffectDuration(lpObj, AT_CRYWOLF_PROTECTION4, 0, 0, 0, 0, -10);

  0006b	8b 45 08	 mov	 eax, DWORD PTR _lpObj$[ebp]
  0006e	6a f6		 push	 -10			; fffffff6H
  00070	6a 00		 push	 0
  00072	6a 00		 push	 0
  00074	6a 00		 push	 0
  00076	6a 00		 push	 0
  00078	6a 45		 push	 69			; 00000045H
  0007a	50		 push	 eax

; 73   : 			break;
; 74   : 		case 5:
; 75   : 			gObjApplyBuffEffectDuration(lpObj, AT_CRYWOLF_PROTECTION5, 0, 0, 0, 0, -10);

  0007b	e8 00 00 00 00	 call	 ?gObjApplyBuffEffectDuration@@YAEPAUOBJECTSTRUCT@@HEHEHH@Z ; gObjApplyBuffEffectDuration
  00080	83 c4 1c	 add	 esp, 28			; 0000001cH

; 76   : 			break;
; 77   : 	}
; 78   : }

  00083	5d		 pop	 ebp
  00084	c2 08 00	 ret	 8
$LN1@SetStatueV:

; 73   : 			break;
; 74   : 		case 5:
; 75   : 			gObjApplyBuffEffectDuration(lpObj, AT_CRYWOLF_PROTECTION5, 0, 0, 0, 0, -10);

  00087	8b 4d 08	 mov	 ecx, DWORD PTR _lpObj$[ebp]
  0008a	6a f6		 push	 -10			; fffffff6H
  0008c	6a 00		 push	 0
  0008e	6a 00		 push	 0
  00090	6a 00		 push	 0
  00092	6a 00		 push	 0
  00094	6a 46		 push	 70			; 00000046H
  00096	51		 push	 ecx
  00097	e8 00 00 00 00	 call	 ?gObjApplyBuffEffectDuration@@YAEPAUOBJECTSTRUCT@@HEHEHH@Z ; gObjApplyBuffEffectDuration
  0009c	83 c4 1c	 add	 esp, 28			; 0000001cH
$LN6@SetStatueV:

; 76   : 			break;
; 77   : 	}
; 78   : }

  0009f	5d		 pop	 ebp
  000a0	c2 08 00	 ret	 8
  000a3	90		 npad	 1
$LN12@SetStatueV:
  000a4	00 00 00 00	 DD	 $LN5@SetStatueV
  000a8	00 00 00 00	 DD	 $LN4@SetStatueV
  000ac	00 00 00 00	 DD	 $LN3@SetStatueV
  000b0	00 00 00 00	 DD	 $LN2@SetStatueV
  000b4	00 00 00 00	 DD	 $LN1@SetStatueV
?SetStatueViewState@CCrywolfStatue@@QAEXPAUOBJECTSTRUCT@@H@Z ENDP ; CCrywolfStatue::SetStatueViewState
_TEXT	ENDS
PUBLIC	?CrywolfStatueAct@CCrywolfStatue@@QAEXH@Z	; CCrywolfStatue::CrywolfStatueAct
EXTRN	?SendCrywolfUserAnyMsg@CCrywolfUtil@@QAAXHPADZZ:PROC ; CCrywolfUtil::SendCrywolfUserAnyMsg
EXTRN	?Get@CMsg@@QAEPADH@Z:PROC			; CMsg::Get
EXTRN	?lMsg@@3VCMsg@@A:BYTE				; lMsg
EXTRN	?GetPriestMaxHPSum@CCrywolfAltar@@QAEHXZ:PROC	; CCrywolfAltar::GetPriestMaxHPSum
EXTRN	?GetPriestHPSum@CCrywolfAltar@@QAEHXZ:PROC	; CCrywolfAltar::GetPriestHPSum
EXTRN	?GetContractedAltarCount@CCrywolfAltar@@QAEHXZ:PROC ; CCrywolfAltar::GetContractedAltarCount
EXTRN	?g_CrywolfNPC_Altar@@3VCCrywolfAltar@@A:BYTE	; g_CrywolfNPC_Altar
EXTRN	?gObj@@3PAUOBJECTSTRUCT@@A:DWORD		; gObj
EXTRN	?gObjIsConnected@@YAHH@Z:PROC			; gObjIsConnected
; Function compile flags: /Ogtp
;	COMDAT ?CrywolfStatueAct@CCrywolfStatue@@QAEXH@Z
_TEXT	SEGMENT
_iPriestMaxHPSum$ = -4					; size = 4
tv226 = 8						; size = 4
_iIndex$ = 8						; size = 4
?CrywolfStatueAct@CCrywolfStatue@@QAEXH@Z PROC		; CCrywolfStatue::CrywolfStatueAct, COMDAT
; _this$ = ecx

; 81   : {

  00000	55		 push	 ebp
  00001	8b ec		 mov	 ebp, esp
  00003	51		 push	 ecx
  00004	56		 push	 esi
  00005	57		 push	 edi

; 82   : 	if ( !gObjIsConnected(iIndex))

  00006	8b 7d 08	 mov	 edi, DWORD PTR _iIndex$[ebp]
  00009	57		 push	 edi
  0000a	8b f1		 mov	 esi, ecx
  0000c	e8 00 00 00 00	 call	 ?gObjIsConnected@@YAHH@Z ; gObjIsConnected
  00011	83 c4 04	 add	 esp, 4
  00014	85 c0		 test	 eax, eax
  00016	0f 84 68 01 00
	00		 je	 $LN5@CrywolfSta

; 83   : 		return;
; 84   : 
; 85   : 	if ( gObj[iIndex].Type != OBJ_NPC || CHECK_CLASS(204, gObj[iIndex].Class) == FALSE )

  0001c	a1 00 00 00 00	 mov	 eax, DWORD PTR ?gObj@@3PAUOBJECTSTRUCT@@A ; gObj
  00021	69 ff 50 2b 00
	00		 imul	 edi, 11088		; 00002b50H
  00027	03 c7		 add	 eax, edi
  00029	66 83 78 68 03	 cmp	 WORD PTR [eax+104], 3
  0002e	89 45 08	 mov	 DWORD PTR tv226[ebp], eax
  00031	0f 85 4d 01 00
	00		 jne	 $LN5@CrywolfSta
  00037	b9 cc 00 00 00	 mov	 ecx, 204		; 000000ccH
  0003c	66 3b 88 b8 00
	00 00		 cmp	 cx, WORD PTR [eax+184]
  00043	0f 85 3b 01 00
	00		 jne	 $LN5@CrywolfSta

; 86   : 		return;
; 87   : 
; 88   : 	LPOBJ lpObj = &gObj[iIndex];
; 89   : 	int iContractedAlterCount = g_CrywolfNPC_Altar.GetContractedAltarCount();

  00049	53		 push	 ebx
  0004a	b9 00 00 00 00	 mov	 ecx, OFFSET ?g_CrywolfNPC_Altar@@3VCCrywolfAltar@@A ; g_CrywolfNPC_Altar
  0004f	e8 00 00 00 00	 call	 ?GetContractedAltarCount@CCrywolfAltar@@QAEHXZ ; CCrywolfAltar::GetContractedAltarCount

; 90   : 	int iPriestHPSum = g_CrywolfNPC_Altar.GetPriestHPSum();

  00054	b9 00 00 00 00	 mov	 ecx, OFFSET ?g_CrywolfNPC_Altar@@3VCCrywolfAltar@@A ; g_CrywolfNPC_Altar
  00059	8b f8		 mov	 edi, eax
  0005b	e8 00 00 00 00	 call	 ?GetPriestHPSum@CCrywolfAltar@@QAEHXZ ; CCrywolfAltar::GetPriestHPSum

; 91   : 	int iPriestMaxHPSum = g_CrywolfNPC_Altar.GetPriestMaxHPSum();

  00060	b9 00 00 00 00	 mov	 ecx, OFFSET ?g_CrywolfNPC_Altar@@3VCCrywolfAltar@@A ; g_CrywolfNPC_Altar
  00065	8b d8		 mov	 ebx, eax
  00067	e8 00 00 00 00	 call	 ?GetPriestMaxHPSum@CCrywolfAltar@@QAEHXZ ; CCrywolfAltar::GetPriestMaxHPSum
  0006c	8b c8		 mov	 ecx, eax
  0006e	89 4d fc	 mov	 DWORD PTR _iPriestMaxHPSum$[ebp], ecx

; 92   : 
; 93   : 	if ( iContractedAlterCount == 0 || this->m_Shield.m_iShieldHP == 0 )

  00071	85 ff		 test	 edi, edi
  00073	0f 84 80 00 00
	00		 je	 $LN8@CrywolfSta
  00079	83 7e 08 00	 cmp	 DWORD PTR [esi+8], 0
  0007d	74 7a		 je	 SHORT $LN8@CrywolfSta

; 112  : 		}
; 113  : 		return;
; 114  : 	}
; 115  : 	else if ( this->m_Shield.m_iShieldState == 0 )

  0007f	83 7e 0c 00	 cmp	 DWORD PTR [esi+12], 0
  00083	75 26		 jne	 SHORT $LN3@CrywolfSta

; 116  : 	{
; 117  : 		UTIL.SendCrywolfUserAnyMsg(2, lMsg.Get(MSGGET(13, 7)));

  00085	68 07 0d 00 00	 push	 3335			; 00000d07H
  0008a	b9 00 00 00 00	 mov	 ecx, OFFSET ?lMsg@@3VCMsg@@A ; lMsg
  0008f	e8 00 00 00 00	 call	 ?Get@CMsg@@QAEPADH@Z	; CMsg::Get
  00094	50		 push	 eax
  00095	6a 02		 push	 2
  00097	68 00 00 00 00	 push	 OFFSET _UTIL
  0009c	e8 00 00 00 00	 call	 ?SendCrywolfUserAnyMsg@CCrywolfUtil@@QAAXHPADZZ ; CCrywolfUtil::SendCrywolfUserAnyMsg

; 118  : 		this->SetStatueViewState(lpObj, iContractedAlterCount); //season 3.0 add-on

  000a1	8b 55 08	 mov	 edx, DWORD PTR tv226[ebp]
  000a4	83 c4 0c	 add	 esp, 12			; 0000000cH
  000a7	57		 push	 edi
  000a8	52		 push	 edx
  000a9	eb 2b		 jmp	 SHORT $LN16@CrywolfSta
$LN3@CrywolfSta:

; 119  : 	}
; 120  : 	else if ( this->m_Shield.m_iPriestNumber != iContractedAlterCount )

  000ab	39 7e 10	 cmp	 DWORD PTR [esi+16], edi
  000ae	74 2d		 je	 SHORT $LN1@CrywolfSta

; 121  : 	{
; 122  : 		UTIL.SendCrywolfUserAnyMsg(2, lMsg.Get(MSGGET(13, 6)), iContractedAlterCount, iPriestHPSum);

  000b0	53		 push	 ebx
  000b1	57		 push	 edi
  000b2	68 06 0d 00 00	 push	 3334			; 00000d06H
  000b7	b9 00 00 00 00	 mov	 ecx, OFFSET ?lMsg@@3VCMsg@@A ; lMsg
  000bc	e8 00 00 00 00	 call	 ?Get@CMsg@@QAEPADH@Z	; CMsg::Get
  000c1	50		 push	 eax
  000c2	6a 02		 push	 2
  000c4	68 00 00 00 00	 push	 OFFSET _UTIL
  000c9	e8 00 00 00 00	 call	 ?SendCrywolfUserAnyMsg@CCrywolfUtil@@QAAXHPADZZ ; CCrywolfUtil::SendCrywolfUserAnyMsg

; 123  : 		this->SetStatueViewState(lpObj, iContractedAlterCount); //season 3.0 add-on

  000ce	8b 45 08	 mov	 eax, DWORD PTR tv226[ebp]
  000d1	83 c4 14	 add	 esp, 20			; 00000014H
  000d4	57		 push	 edi
  000d5	50		 push	 eax
$LN16@CrywolfSta:
  000d6	8b ce		 mov	 ecx, esi
  000d8	e8 00 00 00 00	 call	 ?SetStatueViewState@CCrywolfStatue@@QAEXPAUOBJECTSTRUCT@@H@Z ; CCrywolfStatue::SetStatueViewState
$LN1@CrywolfSta:

; 124  : 	}
; 125  : 
; 126  : 	this->m_Shield.m_iShieldState = 1;
; 127  : 	this->m_Shield.m_iShieldHP = iPriestHPSum;
; 128  : 	this->m_Shield.m_iShieldMaxHP = iPriestMaxHPSum;

  000dd	8b 4d fc	 mov	 ecx, DWORD PTR _iPriestMaxHPSum$[ebp]
  000e0	89 5e 08	 mov	 DWORD PTR [esi+8], ebx
  000e3	5b		 pop	 ebx

; 129  : 	this->m_Shield.m_iPriestNumber = iContractedAlterCount;

  000e4	89 7e 10	 mov	 DWORD PTR [esi+16], edi
  000e7	5f		 pop	 edi
  000e8	c7 46 0c 01 00
	00 00		 mov	 DWORD PTR [esi+12], 1
  000ef	89 4e 04	 mov	 DWORD PTR [esi+4], ecx
  000f2	5e		 pop	 esi

; 130  : }

  000f3	8b e5		 mov	 esp, ebp
  000f5	5d		 pop	 ebp
  000f6	c2 04 00	 ret	 4
$LN8@CrywolfSta:

; 94   : 	{
; 95   : 		if ( this->m_Shield.m_iShieldState == 1 )

  000f9	b8 01 00 00 00	 mov	 eax, 1
  000fe	39 46 0c	 cmp	 DWORD PTR [esi+12], eax
  00101	75 42		 jne	 SHORT $LN7@CrywolfSta

; 96   : 		{
; 97   : 			UTIL.SendCrywolfUserAnyMsg(2, lMsg.Get(MSGGET(13, 5)));

  00103	68 05 0d 00 00	 push	 3333			; 00000d05H
  00108	b9 00 00 00 00	 mov	 ecx, OFFSET ?lMsg@@3VCMsg@@A ; lMsg
  0010d	e8 00 00 00 00	 call	 ?Get@CMsg@@QAEPADH@Z	; CMsg::Get
  00112	50		 push	 eax
  00113	6a 02		 push	 2
  00115	68 00 00 00 00	 push	 OFFSET _UTIL
  0011a	e8 00 00 00 00	 call	 ?SendCrywolfUserAnyMsg@CCrywolfUtil@@QAAXHPADZZ ; CCrywolfUtil::SendCrywolfUserAnyMsg

; 98   : 			this->m_Shield.m_iShieldState = 0;
; 99   : 			this->m_Shield.m_iShieldHP = 0;
; 100  : 			this->m_Shield.m_iShieldMaxHP = 0;
; 101  : 			this->m_Shield.m_iPriestNumber = iContractedAlterCount;
; 102  : 			this->SetStatueViewState(lpObj, iContractedAlterCount); //season 3.0 add-on

  0011f	8b 55 08	 mov	 edx, DWORD PTR tv226[ebp]
  00122	83 c4 0c	 add	 esp, 12			; 0000000cH
  00125	33 c0		 xor	 eax, eax
  00127	57		 push	 edi
  00128	52		 push	 edx

; 111  : 			this->SetStatueViewState(lpObj, iContractedAlterCount); //season 3.0 add-on

  00129	8b ce		 mov	 ecx, esi
  0012b	89 46 0c	 mov	 DWORD PTR [esi+12], eax
  0012e	89 46 08	 mov	 DWORD PTR [esi+8], eax
  00131	89 46 04	 mov	 DWORD PTR [esi+4], eax
  00134	89 7e 10	 mov	 DWORD PTR [esi+16], edi
  00137	e8 00 00 00 00	 call	 ?SetStatueViewState@CCrywolfStatue@@QAEXPAUOBJECTSTRUCT@@H@Z ; CCrywolfStatue::SetStatueViewState
  0013c	5b		 pop	 ebx
  0013d	5f		 pop	 edi
  0013e	5e		 pop	 esi

; 130  : }

  0013f	8b e5		 mov	 esp, ebp
  00141	5d		 pop	 ebp
  00142	c2 04 00	 ret	 4
$LN7@CrywolfSta:

; 103  : 		}
; 104  : 		else if ( this->m_Shield.m_iPriestNumber != iContractedAlterCount )

  00145	39 7e 10	 cmp	 DWORD PTR [esi+16], edi
  00148	74 39		 je	 SHORT $LN15@CrywolfSta

; 105  : 		{
; 106  : 			this->m_Shield.m_iShieldState = 1;
; 107  : 			this->m_Shield.m_iShieldHP = iPriestHPSum;
; 108  : 			this->m_Shield.m_iShieldMaxHP = iPriestMaxHPSum;
; 109  : 			this->m_Shield.m_iPriestNumber = iContractedAlterCount;
; 110  : 			UTIL.SendCrywolfUserAnyMsg(2, lMsg.Get(MSGGET(13, 6)), iContractedAlterCount, iPriestHPSum);

  0014a	53		 push	 ebx
  0014b	57		 push	 edi
  0014c	89 4e 04	 mov	 DWORD PTR [esi+4], ecx
  0014f	68 06 0d 00 00	 push	 3334			; 00000d06H
  00154	b9 00 00 00 00	 mov	 ecx, OFFSET ?lMsg@@3VCMsg@@A ; lMsg
  00159	89 46 0c	 mov	 DWORD PTR [esi+12], eax
  0015c	89 5e 08	 mov	 DWORD PTR [esi+8], ebx
  0015f	89 7e 10	 mov	 DWORD PTR [esi+16], edi
  00162	e8 00 00 00 00	 call	 ?Get@CMsg@@QAEPADH@Z	; CMsg::Get
  00167	50		 push	 eax
  00168	6a 02		 push	 2
  0016a	68 00 00 00 00	 push	 OFFSET _UTIL
  0016f	e8 00 00 00 00	 call	 ?SendCrywolfUserAnyMsg@CCrywolfUtil@@QAAXHPADZZ ; CCrywolfUtil::SendCrywolfUserAnyMsg

; 111  : 			this->SetStatueViewState(lpObj, iContractedAlterCount); //season 3.0 add-on

  00174	8b 45 08	 mov	 eax, DWORD PTR tv226[ebp]
  00177	83 c4 14	 add	 esp, 20			; 00000014H
  0017a	57		 push	 edi
  0017b	50		 push	 eax
  0017c	8b ce		 mov	 ecx, esi
  0017e	e8 00 00 00 00	 call	 ?SetStatueViewState@CCrywolfStatue@@QAEXPAUOBJECTSTRUCT@@H@Z ; CCrywolfStatue::SetStatueViewState
$LN15@CrywolfSta:
  00183	5b		 pop	 ebx
$LN5@CrywolfSta:
  00184	5f		 pop	 edi
  00185	5e		 pop	 esi

; 130  : }

  00186	8b e5		 mov	 esp, ebp
  00188	5d		 pop	 ebp
  00189	c2 04 00	 ret	 4
?CrywolfStatueAct@CCrywolfStatue@@QAEXH@Z ENDP		; CCrywolfStatue::CrywolfStatueAct
_TEXT	ENDS
PUBLIC	??0CCrywolfShield@@QAE@XZ			; CCrywolfShield::CCrywolfShield
; Function compile flags: /Ogtp
; File e:\work\tranet_version\gs\gameserver\crywolfstatue.h
;	COMDAT ??0CCrywolfShield@@QAE@XZ
_TEXT	SEGMENT
??0CCrywolfShield@@QAE@XZ PROC				; CCrywolfShield::CCrywolfShield, COMDAT
; _this$ = ecx

; 19   : 	CCrywolfShield()

  00000	8b c1		 mov	 eax, ecx

; 20   : 	{
; 21   : 		this->Reset();

  00002	33 c9		 xor	 ecx, ecx
  00004	89 48 0c	 mov	 DWORD PTR [eax+12], ecx
  00007	89 48 04	 mov	 DWORD PTR [eax+4], ecx
  0000a	89 08		 mov	 DWORD PTR [eax], ecx
  0000c	89 48 08	 mov	 DWORD PTR [eax+8], ecx

; 22   : 	}

  0000f	c3		 ret	 0
??0CCrywolfShield@@QAE@XZ ENDP				; CCrywolfShield::CCrywolfShield
_TEXT	ENDS
PUBLIC	??0CCrywolfStatue@@QAE@XZ			; CCrywolfStatue::CCrywolfStatue
; Function compile flags: /Ogtp
; File e:\work\tranet_version\gs\gameserver\crywolfstatue.cpp
;	COMDAT ??0CCrywolfStatue@@QAE@XZ
_TEXT	SEGMENT
??0CCrywolfStatue@@QAE@XZ PROC				; CCrywolfStatue::CCrywolfStatue, COMDAT
; _this$ = ecx

; 20   : {

  00000	8b c1		 mov	 eax, ecx
  00002	33 c9		 xor	 ecx, ecx
  00004	c7 00 00 00 00
	00		 mov	 DWORD PTR [eax], OFFSET ??_7CCrywolfStatue@@6B@
  0000a	89 48 10	 mov	 DWORD PTR [eax+16], ecx
  0000d	89 48 08	 mov	 DWORD PTR [eax+8], ecx
  00010	89 48 04	 mov	 DWORD PTR [eax+4], ecx
  00013	89 48 0c	 mov	 DWORD PTR [eax+12], ecx

; 21   : 
; 22   : }

  00016	c3		 ret	 0
??0CCrywolfStatue@@QAE@XZ ENDP				; CCrywolfStatue::CCrywolfStatue
_TEXT	ENDS
EXTRN	??3@YAXPAX@Z:PROC				; operator delete
; Function compile flags: /Ogtp
;	COMDAT ??_GCCrywolfStatue@@UAEPAXI@Z
_TEXT	SEGMENT
___flags$ = 8						; size = 4
??_GCCrywolfStatue@@UAEPAXI@Z PROC			; CCrywolfStatue::`scalar deleting destructor', COMDAT
; _this$ = ecx
  00000	55		 push	 ebp
  00001	8b ec		 mov	 ebp, esp
  00003	56		 push	 esi
  00004	8b f1		 mov	 esi, ecx
  00006	e8 00 00 00 00	 call	 ??1CCrywolfStatue@@UAE@XZ ; CCrywolfStatue::~CCrywolfStatue
  0000b	f6 45 08 01	 test	 BYTE PTR ___flags$[ebp], 1
  0000f	74 09		 je	 SHORT $LN4@scalar
  00011	56		 push	 esi
  00012	e8 00 00 00 00	 call	 ??3@YAXPAX@Z		; operator delete
  00017	83 c4 04	 add	 esp, 4
$LN4@scalar:
  0001a	8b c6		 mov	 eax, esi
  0001c	5e		 pop	 esi
  0001d	5d		 pop	 ebp
  0001e	c2 04 00	 ret	 4
??_GCCrywolfStatue@@UAEPAXI@Z ENDP			; CCrywolfStatue::`scalar deleting destructor'
_TEXT	ENDS
EXTRN	_atexit:PROC
EXTRN	??0CCrywolfUtil@@QAE@XZ:PROC			; CCrywolfUtil::CCrywolfUtil
; Function compile flags: /Ogtp
;	COMDAT ??__EUTIL@@YAXXZ
text$yc	SEGMENT
??__EUTIL@@YAXXZ PROC					; `dynamic initializer for 'UTIL'', COMDAT

; 13   : static CCrywolfUtil UTIL;

  00000	b9 00 00 00 00	 mov	 ecx, OFFSET _UTIL
  00005	e8 00 00 00 00	 call	 ??0CCrywolfUtil@@QAE@XZ	; CCrywolfUtil::CCrywolfUtil
  0000a	68 00 00 00 00	 push	 OFFSET ??__FUTIL@@YAXXZ	; `dynamic atexit destructor for 'UTIL''
  0000f	e8 00 00 00 00	 call	 _atexit
  00014	59		 pop	 ecx
  00015	c3		 ret	 0
??__EUTIL@@YAXXZ ENDP					; `dynamic initializer for 'UTIL''
; Function compile flags: /Ogtp
text$yc	ENDS
;	COMDAT ??__Eg_CrywolfNPC_Statue@@YAXXZ
text$yc	SEGMENT
??__Eg_CrywolfNPC_Statue@@YAXXZ PROC			; `dynamic initializer for 'g_CrywolfNPC_Statue'', COMDAT

; 14   : CCrywolfStatue g_CrywolfNPC_Statue;

  00000	b9 00 00 00 00	 mov	 ecx, OFFSET ?g_CrywolfNPC_Statue@@3VCCrywolfStatue@@A ; g_CrywolfNPC_Statue
  00005	e8 00 00 00 00	 call	 ??0CCrywolfStatue@@QAE@XZ ; CCrywolfStatue::CCrywolfStatue
  0000a	68 00 00 00 00	 push	 OFFSET ??__Fg_CrywolfNPC_Statue@@YAXXZ ; `dynamic atexit destructor for 'g_CrywolfNPC_Statue''
  0000f	e8 00 00 00 00	 call	 _atexit
  00014	59		 pop	 ecx
  00015	c3		 ret	 0
??__Eg_CrywolfNPC_Statue@@YAXXZ ENDP			; `dynamic initializer for 'g_CrywolfNPC_Statue''
text$yc	ENDS
EXTRN	??1CCrywolfUtil@@UAE@XZ:PROC			; CCrywolfUtil::~CCrywolfUtil
; Function compile flags: /Ogtp
;	COMDAT ??__FUTIL@@YAXXZ
text$yd	SEGMENT
??__FUTIL@@YAXXZ PROC					; `dynamic atexit destructor for 'UTIL'', COMDAT
  00000	b9 00 00 00 00	 mov	 ecx, OFFSET _UTIL
  00005	e9 00 00 00 00	 jmp	 ??1CCrywolfUtil@@UAE@XZ	; CCrywolfUtil::~CCrywolfUtil
??__FUTIL@@YAXXZ ENDP					; `dynamic atexit destructor for 'UTIL''
; Function compile flags: /Ogtp
text$yd	ENDS
;	COMDAT ??__Fg_CrywolfNPC_Statue@@YAXXZ
text$yd	SEGMENT
??__Fg_CrywolfNPC_Statue@@YAXXZ PROC			; `dynamic atexit destructor for 'g_CrywolfNPC_Statue'', COMDAT
  00000	b9 00 00 00 00	 mov	 ecx, OFFSET ?g_CrywolfNPC_Statue@@3VCCrywolfStatue@@A ; g_CrywolfNPC_Statue
  00005	e9 00 00 00 00	 jmp	 ??1CCrywolfStatue@@UAE@XZ ; CCrywolfStatue::~CCrywolfStatue
??__Fg_CrywolfNPC_Statue@@YAXXZ ENDP			; `dynamic atexit destructor for 'g_CrywolfNPC_Statue''
text$yd	ENDS
PUBLIC	?g_CrywolfNPC_Statue@@3VCCrywolfStatue@@A	; g_CrywolfNPC_Statue
_BSS	SEGMENT
?g_CrywolfNPC_Statue@@3VCCrywolfStatue@@A DB 014H DUP (?) ; g_CrywolfNPC_Statue
_UTIL	DD	01H DUP (?)
_BSS	ENDS
CRT$XCU	SEGMENT
_UTIL$initializer$ DD FLAT:??__EUTIL@@YAXXZ
_g_CrywolfNPC_Statue$initializer$ DD FLAT:??__Eg_CrywolfNPC_Statue@@YAXXZ
CRT$XCU	ENDS
END
