; Listing generated by Microsoft (R) Optimizing Compiler Version 16.00.30319.01 

	TITLE	E:\work\tranet_version\GS\GameServer\DonateManager.cpp
	.686P
	.XMM
	include listing.inc
	.model	flat

INCLUDELIB LIBCMT
INCLUDELIB OLDNAMES

_DATA	SEGMENT
_g_iNpcUpDfLevel_CGATE DD 01H
	DD	02H
	DD	02dc6c0H
	DD	02H
	DD	03H
	DD	02dc6c0H
	DD	03H
	DD	04H
	DD	02dc6c0H
_g_iNpcUpDfLevel_CSTATUE DD 01H
	DD	03H
	DD	02dc6c0H
	DD	02H
	DD	05H
	DD	02dc6c0H
	DD	03H
	DD	07H
	DD	02dc6c0H
_g_iNpcUpMaxHP_CGATE DD 02625a0H
	DD	02H
	DD	0f4240H
	DD	03567e0H
	DD	03H
	DD	0f4240H
	DD	04f5880H
	DD	04H
	DD	0f4240H
_g_iNpcUpMaxHP_CSTATUE DD 02191c0H
	DD	03H
	DD	0f4240H
	DD	033e140H
	DD	05H
	DD	0f4240H
	DD	04c4b40H
	DD	07H
	DD	0f4240H
_g_iNpcUpRgLevel_CSTATUE DD 01H
	DD	03H
	DD	04c4b40H
	DD	02H
	DD	05H
	DD	04c4b40H
	DD	03H
	DD	07H
	DD	04c4b40H
_g_iCsUserReSpawnArea DD 023H
	DD	011H
	DD	090H
	DD	030H
	DD	04aH
	DD	090H
	DD	073H
	DD	09aH
	DD	023H
	DD	011H
	DD	090H
	DD	030H
_g_iNpcDefense_CGATE DD 064H
	DD	0b4H
	DD	012cH
	DD	0208H
_g_iNpcDefense_CSTATUE DD 050H
	DD	0b4H
	DD	0154H
	DD	0226H
_g_iCastleWallStepAxisY DD 071H
	DD	0a0H
	DD	0cbH
_DATA	ENDS
PUBLIC	??2@YAPAXIPAX@Z					; operator new
; Function compile flags: /Ogtp
; File d:\program files (x86)\microsoft visual studio 10.0\vc\include\new.h
;	COMDAT ??2@YAPAXIPAX@Z
_TEXT	SEGMENT
___formal$ = 8						; size = 4
__Where$ = 12						; size = 4
??2@YAPAXIPAX@Z PROC					; operator new, COMDAT

; 81   :         {return (_Where); }

  00000	55		 push	 ebp
  00001	8b ec		 mov	 ebp, esp
  00003	8b 45 0c	 mov	 eax, DWORD PTR __Where$[ebp]
  00006	5d		 pop	 ebp
  00007	c3		 ret	 0
??2@YAPAXIPAX@Z ENDP					; operator new
_TEXT	ENDS
PUBLIC	??3@YAXPAX0@Z					; operator delete
; Function compile flags: /Ogtp
;	COMDAT ??3@YAXPAX0@Z
_TEXT	SEGMENT
___formal$ = 8						; size = 4
___formal$ = 12						; size = 4
??3@YAXPAX0@Z PROC					; operator delete, COMDAT

; 83   :         {return; }

  00000	c3		 ret	 0
??3@YAXPAX0@Z ENDP					; operator delete
_TEXT	ENDS
PUBLIC	??_H@YGXPAXIHP6EPAX0@Z@Z			; `vector constructor iterator'
; Function compile flags: /Ogtp
;	COMDAT ??_H@YGXPAXIHP6EPAX0@Z@Z
_TEXT	SEGMENT
___t$ = 8						; size = 4
___s$ = 12						; size = 4
___n$ = 16						; size = 4
___f$ = 20						; size = 4
??_H@YGXPAXIHP6EPAX0@Z@Z PROC				; `vector constructor iterator', COMDAT
  00000	55		 push	 ebp
  00001	8b ec		 mov	 ebp, esp
  00003	57		 push	 edi
  00004	8b 7d 10	 mov	 edi, DWORD PTR ___n$[ebp]
  00007	4f		 dec	 edi
  00008	78 14		 js	 SHORT $LN1@vector
  0000a	53		 push	 ebx
  0000b	8b 5d 14	 mov	 ebx, DWORD PTR ___f$[ebp]
  0000e	56		 push	 esi
  0000f	8b 75 08	 mov	 esi, DWORD PTR ___t$[ebp]
$LL2@vector:
  00012	8b ce		 mov	 ecx, esi
  00014	ff d3		 call	 ebx
  00016	03 75 0c	 add	 esi, DWORD PTR ___s$[ebp]
  00019	4f		 dec	 edi
  0001a	79 f6		 jns	 SHORT $LL2@vector
  0001c	5e		 pop	 esi
  0001d	5b		 pop	 ebx
$LN1@vector:
  0001e	5f		 pop	 edi
  0001f	5d		 pop	 ebp
  00020	c2 10 00	 ret	 16			; 00000010H
??_H@YGXPAXIHP6EPAX0@Z@Z ENDP				; `vector constructor iterator'
_TEXT	ENDS
PUBLIC	__$ArrayPad$
EXTRN	_isalnum:PROC
EXTRN	_isalpha:PROC
EXTRN	_atof:PROC
EXTRN	_isdigit:PROC
EXTRN	_getc:PROC
EXTRN	_ungetc:PROC
EXTRN	_isspace:PROC
EXTRN	_fgetc:PROC
EXTRN	___security_cookie:DWORD
EXTRN	__fltused:DWORD
EXTRN	@__security_check_cookie@4:PROC
_BSS	SEGMENT
_CurrentToken DD 01H DUP (?)
_TokenNumber DD	01H DUP (?)
_SMDFile DD	01H DUP (?)
_TokenString DB	064H DUP (?)
; Function compile flags: /Ogtp
; File e:\work\tranet_version\gs\include\readscript.h
_BSS	ENDS
;	COMDAT ?GetToken@@YA?AW4SMDToken@@XZ
_TEXT	SEGMENT
_TempString$ = -104					; size = 100
__$ArrayPad$ = -4					; size = 4
?GetToken@@YA?AW4SMDToken@@XZ PROC			; GetToken, COMDAT

; 24   : {

  00000	55		 push	 ebp
  00001	8b ec		 mov	 ebp, esp
  00003	83 ec 68	 sub	 esp, 104		; 00000068H
  00006	a1 00 00 00 00	 mov	 eax, DWORD PTR ___security_cookie
  0000b	33 c5		 xor	 eax, ebp
  0000d	89 45 fc	 mov	 DWORD PTR __$ArrayPad$[ebp], eax

; 25   : 	char ch;
; 26   : 	char* p;
; 27   : 	char TempString[100];
; 28   : 
; 29   : 	TokenString[0]=0;

  00010	c6 05 00 00 00
	00 00		 mov	 BYTE PTR _TokenString, 0
  00017	53		 push	 ebx
  00018	eb 06 8d 9b 00
	00 00 00	 npad	 8
$LL31@GetToken:

; 30   : 
; 31   : 	do
; 32   : 	{
; 33   : 		if ((ch=fgetc(SMDFile)) == -1)

  00020	a1 00 00 00 00	 mov	 eax, DWORD PTR _SMDFile
  00025	50		 push	 eax
  00026	e8 00 00 00 00	 call	 _fgetc
  0002b	8a d8		 mov	 bl, al
  0002d	83 c4 04	 add	 esp, 4
  00030	80 fb ff	 cmp	 bl, -1
  00033	74 64		 je	 SHORT $LN39@GetToken

; 36   : 		}
; 37   : 		else
; 38   : 		{	
; 39   : 			if (ch=='/')		// this is /

  00035	80 fb 2f	 cmp	 bl, 47			; 0000002fH
  00038	75 31		 jne	 SHORT $LN30@GetToken

; 40   : 			{
; 41   : 				if((ch=fgetc(SMDFile)) == '/')

  0003a	8b 0d 00 00 00
	00		 mov	 ecx, DWORD PTR _SMDFile
  00040	51		 push	 ecx
  00041	e8 00 00 00 00	 call	 _fgetc
  00046	8a d8		 mov	 bl, al
  00048	83 c4 04	 add	 esp, 4
  0004b	80 fb 2f	 cmp	 bl, 47			; 0000002fH
  0004e	75 1b		 jne	 SHORT $LN30@GetToken
$LL24@GetToken:

; 42   : 				{
; 43   : 					while ((ch != '\n') && (ch != -1))	// End of Line (EOL)

  00050	80 fb ff	 cmp	 bl, -1
  00053	74 44		 je	 SHORT $LN39@GetToken

; 44   : 					{
; 45   : 						ch=fgetc(SMDFile);

  00055	8b 15 00 00 00
	00		 mov	 edx, DWORD PTR _SMDFile
  0005b	52		 push	 edx
  0005c	e8 00 00 00 00	 call	 _fgetc
  00061	8a d8		 mov	 bl, al
  00063	83 c4 04	 add	 esp, 4
  00066	80 fb 0a	 cmp	 bl, 10			; 0000000aH
  00069	75 e5		 jne	 SHORT $LL24@GetToken
$LN30@GetToken:

; 46   : 					}
; 47   : 	
; 48   : 					if (ch == -1)
; 49   : 					{
; 50   : 						return END;	// End of FILE
; 51   : 					}
; 52   : 				}
; 53   : 			}
; 54   : 		}
; 55   : 	}
; 56   : 	while (isspace(ch) != 0);

  0006b	0f be c3	 movsx	 eax, bl
  0006e	50		 push	 eax
  0006f	e8 00 00 00 00	 call	 _isspace
  00074	83 c4 04	 add	 esp, 4
  00077	85 c0		 test	 eax, eax
  00079	75 a5		 jne	 SHORT $LL31@GetToken

; 57   : 
; 58   : 	
; 59   : 	switch(ch)

  0007b	0f be c3	 movsx	 eax, bl
  0007e	8d 48 de	 lea	 ecx, DWORD PTR [eax-34]
  00081	56		 push	 esi
  00082	83 f9 5b	 cmp	 ecx, 91			; 0000005bH
  00085	0f 87 2b 01 00
	00		 ja	 $LN6@GetToken
  0008b	0f b6 89 00 00
	00 00		 movzx	 ecx, BYTE PTR $LN46@GetToken[ecx]
  00092	ff 24 8d 00 00
	00 00		 jmp	 DWORD PTR $LN50@GetToken[ecx*4]
$LN39@GetToken:

; 34   : 		{
; 35   : 			return END;	// End of FILE (EOF)

  00099	b8 02 00 00 00	 mov	 eax, 2
  0009e	5b		 pop	 ebx

; 147  : 		}
; 148  : 		break;
; 149  : 
; 150  : 	}
; 151  : 
; 152  : 	return NAME;
; 153  : }

  0009f	8b 4d fc	 mov	 ecx, DWORD PTR __$ArrayPad$[ebp]
  000a2	33 cd		 xor	 ecx, ebp
  000a4	e8 00 00 00 00	 call	 @__security_check_cookie@4
  000a9	8b e5		 mov	 esp, ebp
  000ab	5d		 pop	 ebp
  000ac	c3		 ret	 0
$LN19@GetToken:

; 60   : 	{
; 61   : 
; 62   : 	case 0x23:	// #
; 63   : 		return CurrentToken=COMMAND;

  000ad	b8 23 00 00 00	 mov	 eax, 35			; 00000023H
  000b2	e9 99 01 00 00	 jmp	 $LN48@GetToken
$LN18@GetToken:

; 64   : 		break;
; 65   : 	
; 66   : 	case 0x3B:	// ;
; 67   : 		return CurrentToken=SEMICOLON;

  000b7	b8 3b 00 00 00	 mov	 eax, 59			; 0000003bH
  000bc	e9 8f 01 00 00	 jmp	 $LN48@GetToken
$LN17@GetToken:

; 68   : 		break;
; 69   : 	
; 70   : 	case 0x2C:	// ,
; 71   : 
; 72   : 		return CurrentToken=COMMA;

  000c1	b8 2c 00 00 00	 mov	 eax, 44			; 0000002cH
  000c6	e9 85 01 00 00	 jmp	 $LN48@GetToken
$LN16@GetToken:

; 73   : 		break;
; 74   : 	
; 75   : 	case 0x7B:	// {
; 76   : 		return CurrentToken = LP;

  000cb	b8 7b 00 00 00	 mov	 eax, 123		; 0000007bH
  000d0	e9 7b 01 00 00	 jmp	 $LN48@GetToken
$LN15@GetToken:

; 77   : 		break;
; 78   : 
; 79   : 	case 0x7D:	// }
; 80   : 		return CurrentToken = RP;

  000d5	b8 7d 00 00 00	 mov	 eax, 125		; 0000007dH
  000da	e9 71 01 00 00	 jmp	 $LN48@GetToken
$LN14@GetToken:

; 81   : 		break;
; 82   : 	// Nice Index Table :)	by Deathway
; 83   : 	// Numbers Case
; 84   : 	case 0x2D:	//-
; 85   : 	case 0x2E:	//.
; 86   : 	case '0':	//0
; 87   : 	case '1':	//1
; 88   : 	case '2':	//2
; 89   : 	case '3':	//3
; 90   : 	case '4':	//4		
; 91   : 	case '5':	//5
; 92   : 	case '6':	//6
; 93   : 	case '7':	//7
; 94   : 	case '8':	//8
; 95   : 	case '9':	//9
; 96   : 		ungetc(ch, SMDFile);

  000df	8b 15 00 00 00
	00		 mov	 edx, DWORD PTR _SMDFile
  000e5	52		 push	 edx
  000e6	50		 push	 eax
  000e7	e8 00 00 00 00	 call	 _ungetc

; 97   : 		p = TempString;
; 98   : 		
; 99   : 		while (((ch=getc(SMDFile)) != -1) && ((ch == 0x2E) || (isdigit(ch) != 0) || (ch == 0x2D)))  // 2e '.'  2D '-'

  000ec	a1 00 00 00 00	 mov	 eax, DWORD PTR _SMDFile
  000f1	50		 push	 eax
  000f2	8d 75 98	 lea	 esi, DWORD PTR _TempString$[ebp]
  000f5	e8 00 00 00 00	 call	 _getc
  000fa	8a d8		 mov	 bl, al
  000fc	83 c4 0c	 add	 esp, 12			; 0000000cH
  000ff	80 fb ff	 cmp	 bl, -1
  00102	74 33		 je	 SHORT $LN12@GetToken
$LL13@GetToken:
  00104	80 fb 2e	 cmp	 bl, 46			; 0000002eH
  00107	74 15		 je	 SHORT $LN11@GetToken
  00109	0f be cb	 movsx	 ecx, bl
  0010c	51		 push	 ecx
  0010d	e8 00 00 00 00	 call	 _isdigit
  00112	83 c4 04	 add	 esp, 4
  00115	85 c0		 test	 eax, eax
  00117	75 05		 jne	 SHORT $LN11@GetToken
  00119	80 fb 2d	 cmp	 bl, 45			; 0000002dH
  0011c	75 19		 jne	 SHORT $LN12@GetToken
$LN11@GetToken:
  0011e	8b 15 00 00 00
	00		 mov	 edx, DWORD PTR _SMDFile

; 100  : 		{
; 101  : 			*p = ch;	// Construct a String

  00124	88 1e		 mov	 BYTE PTR [esi], bl
  00126	52		 push	 edx

; 102  : 			p++;

  00127	46		 inc	 esi
  00128	e8 00 00 00 00	 call	 _getc
  0012d	8a d8		 mov	 bl, al
  0012f	83 c4 04	 add	 esp, 4
  00132	80 fb ff	 cmp	 bl, -1
  00135	75 cd		 jne	 SHORT $LL13@GetToken
$LN12@GetToken:

; 103  : 		}		
; 104  : 		*p = 0;
; 105  : 		TokenNumber = atof( TempString);	// Select the first Byte as Main ID

  00137	8d 45 98	 lea	 eax, DWORD PTR _TempString$[ebp]
  0013a	50		 push	 eax
  0013b	c6 06 00	 mov	 BYTE PTR [esi], 0
  0013e	e8 00 00 00 00	 call	 _atof
  00143	d9 1d 00 00 00
	00		 fstp	 DWORD PTR _TokenNumber
  00149	83 c4 04	 add	 esp, 4
  0014c	5e		 pop	 esi

; 106  : 		return CurrentToken  = NUMBER ;

  0014d	c7 05 00 00 00
	00 01 00 00 00	 mov	 DWORD PTR _CurrentToken, 1
  00157	b8 01 00 00 00	 mov	 eax, 1
  0015c	5b		 pop	 ebx

; 147  : 		}
; 148  : 		break;
; 149  : 
; 150  : 	}
; 151  : 
; 152  : 	return NAME;
; 153  : }

  0015d	8b 4d fc	 mov	 ecx, DWORD PTR __$ArrayPad$[ebp]
  00160	33 cd		 xor	 ecx, ebp
  00162	e8 00 00 00 00	 call	 @__security_check_cookie@4
  00167	8b e5		 mov	 esp, ebp
  00169	5d		 pop	 ebp
  0016a	c3		 ret	 0
$LN10@GetToken:

; 107  : 		break;
; 108  : 
; 109  : 	case '\"':	// "	String Case
; 110  : 		p=&TokenString[0];
; 111  : 		
; 112  : 		while (((ch=getc(SMDFile)) != -1 ) && (ch != 0x22))	// nice

  0016b	8b 0d 00 00 00
	00		 mov	 ecx, DWORD PTR _SMDFile
  00171	51		 push	 ecx
  00172	be 00 00 00 00	 mov	 esi, OFFSET _TokenString
  00177	e8 00 00 00 00	 call	 _getc
  0017c	83 c4 04	 add	 esp, 4
  0017f	3c ff		 cmp	 al, -1
  00181	74 1e		 je	 SHORT $LN8@GetToken
$LL9@GetToken:
  00183	3c 22		 cmp	 al, 34			; 00000022H
  00185	0f 84 a1 00 00
	00		 je	 $LN7@GetToken
  0018b	8b 15 00 00 00
	00		 mov	 edx, DWORD PTR _SMDFile

; 113  : 		{
; 114  : 			*p = ch;

  00191	88 06		 mov	 BYTE PTR [esi], al
  00193	52		 push	 edx

; 115  : 			p++;

  00194	46		 inc	 esi
  00195	e8 00 00 00 00	 call	 _getc
  0019a	83 c4 04	 add	 esp, 4
  0019d	3c ff		 cmp	 al, -1
  0019f	75 e2		 jne	 SHORT $LL9@GetToken
$LN8@GetToken:

; 116  : 		}
; 117  : 		if (ch != 0x22 )

  001a1	3c 22		 cmp	 al, 34			; 00000022H
  001a3	0f 84 83 00 00
	00		 je	 $LN7@GetToken

; 118  : 		{
; 119  : 			ungetc(ch, SMDFile);

  001a9	8b 0d 00 00 00
	00		 mov	 ecx, DWORD PTR _SMDFile
  001af	0f be d0	 movsx	 edx, al
  001b2	51		 push	 ecx
  001b3	52		 push	 edx

; 120  : 		}
; 121  : 		*p = 0;
; 122  : 		return CurrentToken = NAME;

  001b4	eb 6e		 jmp	 SHORT $LN49@GetToken
$LN6@GetToken:

; 123  : 		break;
; 124  : 
; 125  : 	default:	// Others
; 126  : 		if (isalpha(ch))

  001b6	50		 push	 eax
  001b7	e8 00 00 00 00	 call	 _isalpha
  001bc	83 c4 04	 add	 esp, 4
  001bf	85 c0		 test	 eax, eax
  001c1	0f 84 84 00 00
	00		 je	 $LN5@GetToken

; 127  : 		{
; 128  : 			p=&TokenString[0];
; 129  : 			*p=ch;
; 130  : 			p++;
; 131  : 
; 132  : 			while ( ((ch=getc(SMDFile)) != -1) && ( (ch == 0x2E) || (ch == 0x5F) || (isalnum(ch) != 0) ) )

  001c7	a1 00 00 00 00	 mov	 eax, DWORD PTR _SMDFile
  001cc	50		 push	 eax
  001cd	88 1d 00 00 00
	00		 mov	 BYTE PTR _TokenString, bl
  001d3	be 01 00 00 00	 mov	 esi, OFFSET _TokenString+1
  001d8	e8 00 00 00 00	 call	 _getc
  001dd	8a d8		 mov	 bl, al
  001df	83 c4 04	 add	 esp, 4
  001e2	80 fb ff	 cmp	 bl, -1
  001e5	74 33		 je	 SHORT $LN3@GetToken
$LL4@GetToken:
  001e7	80 fb 2e	 cmp	 bl, 46			; 0000002eH
  001ea	74 15		 je	 SHORT $LN2@GetToken
  001ec	80 fb 5f	 cmp	 bl, 95			; 0000005fH
  001ef	74 10		 je	 SHORT $LN2@GetToken
  001f1	0f be cb	 movsx	 ecx, bl
  001f4	51		 push	 ecx
  001f5	e8 00 00 00 00	 call	 _isalnum
  001fa	83 c4 04	 add	 esp, 4
  001fd	85 c0		 test	 eax, eax
  001ff	74 19		 je	 SHORT $LN3@GetToken
$LN2@GetToken:
  00201	8b 15 00 00 00
	00		 mov	 edx, DWORD PTR _SMDFile

; 133  : 			{
; 134  : 				*p=ch;

  00207	88 1e		 mov	 BYTE PTR [esi], bl
  00209	52		 push	 edx

; 135  : 				p++;

  0020a	46		 inc	 esi
  0020b	e8 00 00 00 00	 call	 _getc
  00210	8a d8		 mov	 bl, al
  00212	83 c4 04	 add	 esp, 4
  00215	80 fb ff	 cmp	 bl, -1
  00218	75 cd		 jne	 SHORT $LL4@GetToken
$LN3@GetToken:

; 136  : 				
; 137  : 			}
; 138  : 
; 139  : 			ungetc(ch, SMDFile);

  0021a	a1 00 00 00 00	 mov	 eax, DWORD PTR _SMDFile
  0021f	0f be cb	 movsx	 ecx, bl
  00222	50		 push	 eax
  00223	51		 push	 ecx
$LN49@GetToken:
  00224	e8 00 00 00 00	 call	 _ungetc
  00229	83 c4 08	 add	 esp, 8
$LN7@GetToken:

; 140  : 			*p=0;

  0022c	c6 06 00	 mov	 BYTE PTR [esi], 0
  0022f	5e		 pop	 esi

; 141  : 			CurrentToken=NAME;

  00230	c7 05 00 00 00
	00 00 00 00 00	 mov	 DWORD PTR _CurrentToken, 0

; 142  : 			return CurrentToken;

  0023a	33 c0		 xor	 eax, eax
  0023c	5b		 pop	 ebx

; 147  : 		}
; 148  : 		break;
; 149  : 
; 150  : 	}
; 151  : 
; 152  : 	return NAME;
; 153  : }

  0023d	8b 4d fc	 mov	 ecx, DWORD PTR __$ArrayPad$[ebp]
  00240	33 cd		 xor	 ecx, ebp
  00242	e8 00 00 00 00	 call	 @__security_check_cookie@4
  00247	8b e5		 mov	 esp, ebp
  00249	5d		 pop	 ebp
  0024a	c3		 ret	 0
$LN5@GetToken:

; 143  : 		}
; 144  : 		else
; 145  : 		{
; 146  : 			return CurrentToken = SMD_ERROR; // '<'

  0024b	b8 3c 00 00 00	 mov	 eax, 60			; 0000003cH
$LN48@GetToken:

; 147  : 		}
; 148  : 		break;
; 149  : 
; 150  : 	}
; 151  : 
; 152  : 	return NAME;
; 153  : }

  00250	8b 4d fc	 mov	 ecx, DWORD PTR __$ArrayPad$[ebp]
  00253	5e		 pop	 esi
  00254	33 cd		 xor	 ecx, ebp
  00256	a3 00 00 00 00	 mov	 DWORD PTR _CurrentToken, eax
  0025b	5b		 pop	 ebx
  0025c	e8 00 00 00 00	 call	 @__security_check_cookie@4
  00261	8b e5		 mov	 esp, ebp
  00263	5d		 pop	 ebp
  00264	c3		 ret	 0
  00265	8d 49 00	 npad	 3
$LN50@GetToken:
  00268	00 00 00 00	 DD	 $LN10@GetToken
  0026c	00 00 00 00	 DD	 $LN19@GetToken
  00270	00 00 00 00	 DD	 $LN17@GetToken
  00274	00 00 00 00	 DD	 $LN14@GetToken
  00278	00 00 00 00	 DD	 $LN18@GetToken
  0027c	00 00 00 00	 DD	 $LN16@GetToken
  00280	00 00 00 00	 DD	 $LN15@GetToken
  00284	00 00 00 00	 DD	 $LN6@GetToken
$LN46@GetToken:
  00288	00		 DB	 0
  00289	01		 DB	 1
  0028a	07		 DB	 7
  0028b	07		 DB	 7
  0028c	07		 DB	 7
  0028d	07		 DB	 7
  0028e	07		 DB	 7
  0028f	07		 DB	 7
  00290	07		 DB	 7
  00291	07		 DB	 7
  00292	02		 DB	 2
  00293	03		 DB	 3
  00294	03		 DB	 3
  00295	07		 DB	 7
  00296	03		 DB	 3
  00297	03		 DB	 3
  00298	03		 DB	 3
  00299	03		 DB	 3
  0029a	03		 DB	 3
  0029b	03		 DB	 3
  0029c	03		 DB	 3
  0029d	03		 DB	 3
  0029e	03		 DB	 3
  0029f	03		 DB	 3
  002a0	07		 DB	 7
  002a1	04		 DB	 4
  002a2	07		 DB	 7
  002a3	07		 DB	 7
  002a4	07		 DB	 7
  002a5	07		 DB	 7
  002a6	07		 DB	 7
  002a7	07		 DB	 7
  002a8	07		 DB	 7
  002a9	07		 DB	 7
  002aa	07		 DB	 7
  002ab	07		 DB	 7
  002ac	07		 DB	 7
  002ad	07		 DB	 7
  002ae	07		 DB	 7
  002af	07		 DB	 7
  002b0	07		 DB	 7
  002b1	07		 DB	 7
  002b2	07		 DB	 7
  002b3	07		 DB	 7
  002b4	07		 DB	 7
  002b5	07		 DB	 7
  002b6	07		 DB	 7
  002b7	07		 DB	 7
  002b8	07		 DB	 7
  002b9	07		 DB	 7
  002ba	07		 DB	 7
  002bb	07		 DB	 7
  002bc	07		 DB	 7
  002bd	07		 DB	 7
  002be	07		 DB	 7
  002bf	07		 DB	 7
  002c0	07		 DB	 7
  002c1	07		 DB	 7
  002c2	07		 DB	 7
  002c3	07		 DB	 7
  002c4	07		 DB	 7
  002c5	07		 DB	 7
  002c6	07		 DB	 7
  002c7	07		 DB	 7
  002c8	07		 DB	 7
  002c9	07		 DB	 7
  002ca	07		 DB	 7
  002cb	07		 DB	 7
  002cc	07		 DB	 7
  002cd	07		 DB	 7
  002ce	07		 DB	 7
  002cf	07		 DB	 7
  002d0	07		 DB	 7
  002d1	07		 DB	 7
  002d2	07		 DB	 7
  002d3	07		 DB	 7
  002d4	07		 DB	 7
  002d5	07		 DB	 7
  002d6	07		 DB	 7
  002d7	07		 DB	 7
  002d8	07		 DB	 7
  002d9	07		 DB	 7
  002da	07		 DB	 7
  002db	07		 DB	 7
  002dc	07		 DB	 7
  002dd	07		 DB	 7
  002de	07		 DB	 7
  002df	07		 DB	 7
  002e0	07		 DB	 7
  002e1	05		 DB	 5
  002e2	07		 DB	 7
  002e3	06		 DB	 6
?GetToken@@YA?AW4SMDToken@@XZ ENDP			; GetToken
_TEXT	ENDS
PUBLIC	?size@?$vector@UIMPERIALPET_DATA@@V?$allocator@UIMPERIALPET_DATA@@@std@@@std@@QBEIXZ ; std::vector<IMPERIALPET_DATA,std::allocator<IMPERIALPET_DATA> >::size
; Function compile flags: /Ogtp
; File d:\program files (x86)\microsoft visual studio 10.0\vc\include\vector
;	COMDAT ?size@?$vector@UIMPERIALPET_DATA@@V?$allocator@UIMPERIALPET_DATA@@@std@@@std@@QBEIXZ
_TEXT	SEGMENT
?size@?$vector@UIMPERIALPET_DATA@@V?$allocator@UIMPERIALPET_DATA@@@std@@@std@@QBEIXZ PROC ; std::vector<IMPERIALPET_DATA,std::allocator<IMPERIALPET_DATA> >::size, COMDAT
; _this$ = ecx

; 878  : 		{	// return length of sequence

  00000	56		 push	 esi

; 879  : 		return (this->_Mylast - this->_Myfirst);

  00001	8b 71 04	 mov	 esi, DWORD PTR [ecx+4]
  00004	2b 31		 sub	 esi, DWORD PTR [ecx]
  00006	b8 93 24 49 92	 mov	 eax, -1840700269	; 92492493H
  0000b	f7 ee		 imul	 esi
  0000d	03 d6		 add	 edx, esi
  0000f	c1 fa 03	 sar	 edx, 3
  00012	8b c2		 mov	 eax, edx
  00014	c1 e8 1f	 shr	 eax, 31			; 0000001fH
  00017	03 c2		 add	 eax, edx
  00019	5e		 pop	 esi

; 880  : 		}

  0001a	c3		 ret	 0
?size@?$vector@UIMPERIALPET_DATA@@V?$allocator@UIMPERIALPET_DATA@@@std@@@std@@QBEIXZ ENDP ; std::vector<IMPERIALPET_DATA,std::allocator<IMPERIALPET_DATA> >::size
_TEXT	ENDS
PUBLIC	??A?$vector@UIMPERIALPET_DATA@@V?$allocator@UIMPERIALPET_DATA@@@std@@@std@@QAEAAUIMPERIALPET_DATA@@I@Z ; std::vector<IMPERIALPET_DATA,std::allocator<IMPERIALPET_DATA> >::operator[]
; Function compile flags: /Ogtp
;	COMDAT ??A?$vector@UIMPERIALPET_DATA@@V?$allocator@UIMPERIALPET_DATA@@@std@@@std@@QAEAAUIMPERIALPET_DATA@@I@Z
_TEXT	SEGMENT
__Pos$ = 8						; size = 4
??A?$vector@UIMPERIALPET_DATA@@V?$allocator@UIMPERIALPET_DATA@@@std@@@std@@QAEAAUIMPERIALPET_DATA@@I@Z PROC ; std::vector<IMPERIALPET_DATA,std::allocator<IMPERIALPET_DATA> >::operator[], COMDAT
; _this$ = ecx

; 928  : 		{	// subscript mutable sequence

  00000	55		 push	 ebp
  00001	8b ec		 mov	 ebp, esp

; 929  :  #if _ITERATOR_DEBUG_LEVEL == 2
; 930  : 		if (size() <= _Pos)
; 931  : 			{	// report error
; 932  : 			_DEBUG_ERROR("vector subscript out of range");
; 933  : 			_SCL_SECURE_OUT_OF_RANGE;
; 934  : 			}
; 935  : 
; 936  :  #elif _ITERATOR_DEBUG_LEVEL == 1
; 937  : 		_SCL_SECURE_VALIDATE_RANGE(_Pos < size());
; 938  :  #endif /* _ITERATOR_DEBUG_LEVEL */
; 939  : 
; 940  : 		return (*(this->_Myfirst + _Pos));

  00003	8b 45 08	 mov	 eax, DWORD PTR __Pos$[ebp]
  00006	8d 14 c5 00 00
	00 00		 lea	 edx, DWORD PTR [eax*8]
  0000d	2b d0		 sub	 edx, eax
  0000f	8b 01		 mov	 eax, DWORD PTR [ecx]
  00011	8d 04 50	 lea	 eax, DWORD PTR [eax+edx*2]

; 941  : 		}

  00014	5d		 pop	 ebp
  00015	c2 04 00	 ret	 4
??A?$vector@UIMPERIALPET_DATA@@V?$allocator@UIMPERIALPET_DATA@@@std@@@std@@QAEAAUIMPERIALPET_DATA@@I@Z ENDP ; std::vector<IMPERIALPET_DATA,std::allocator<IMPERIALPET_DATA> >::operator[]
_TEXT	ENDS
PUBLIC	?size@?$vector@UEXPCHAR_DATA@@V?$allocator@UEXPCHAR_DATA@@@std@@@std@@QBEIXZ ; std::vector<EXPCHAR_DATA,std::allocator<EXPCHAR_DATA> >::size
; Function compile flags: /Ogtp
;	COMDAT ?size@?$vector@UEXPCHAR_DATA@@V?$allocator@UEXPCHAR_DATA@@@std@@@std@@QBEIXZ
_TEXT	SEGMENT
?size@?$vector@UEXPCHAR_DATA@@V?$allocator@UEXPCHAR_DATA@@@std@@@std@@QBEIXZ PROC ; std::vector<EXPCHAR_DATA,std::allocator<EXPCHAR_DATA> >::size, COMDAT
; _this$ = ecx

; 878  : 		{	// return length of sequence

  00000	56		 push	 esi

; 879  : 		return (this->_Mylast - this->_Myfirst);

  00001	8b 71 04	 mov	 esi, DWORD PTR [ecx+4]
  00004	2b 31		 sub	 esi, DWORD PTR [ecx]
  00006	b8 93 24 49 92	 mov	 eax, -1840700269	; 92492493H
  0000b	f7 ee		 imul	 esi
  0000d	03 d6		 add	 edx, esi
  0000f	c1 fa 03	 sar	 edx, 3
  00012	8b c2		 mov	 eax, edx
  00014	c1 e8 1f	 shr	 eax, 31			; 0000001fH
  00017	03 c2		 add	 eax, edx
  00019	5e		 pop	 esi

; 880  : 		}

  0001a	c3		 ret	 0
?size@?$vector@UEXPCHAR_DATA@@V?$allocator@UEXPCHAR_DATA@@@std@@@std@@QBEIXZ ENDP ; std::vector<EXPCHAR_DATA,std::allocator<EXPCHAR_DATA> >::size
_TEXT	ENDS
PUBLIC	??A?$vector@UEXPCHAR_DATA@@V?$allocator@UEXPCHAR_DATA@@@std@@@std@@QAEAAUEXPCHAR_DATA@@I@Z ; std::vector<EXPCHAR_DATA,std::allocator<EXPCHAR_DATA> >::operator[]
; Function compile flags: /Ogtp
;	COMDAT ??A?$vector@UEXPCHAR_DATA@@V?$allocator@UEXPCHAR_DATA@@@std@@@std@@QAEAAUEXPCHAR_DATA@@I@Z
_TEXT	SEGMENT
__Pos$ = 8						; size = 4
??A?$vector@UEXPCHAR_DATA@@V?$allocator@UEXPCHAR_DATA@@@std@@@std@@QAEAAUEXPCHAR_DATA@@I@Z PROC ; std::vector<EXPCHAR_DATA,std::allocator<EXPCHAR_DATA> >::operator[], COMDAT
; _this$ = ecx

; 928  : 		{	// subscript mutable sequence

  00000	55		 push	 ebp
  00001	8b ec		 mov	 ebp, esp

; 929  :  #if _ITERATOR_DEBUG_LEVEL == 2
; 930  : 		if (size() <= _Pos)
; 931  : 			{	// report error
; 932  : 			_DEBUG_ERROR("vector subscript out of range");
; 933  : 			_SCL_SECURE_OUT_OF_RANGE;
; 934  : 			}
; 935  : 
; 936  :  #elif _ITERATOR_DEBUG_LEVEL == 1
; 937  : 		_SCL_SECURE_VALIDATE_RANGE(_Pos < size());
; 938  :  #endif /* _ITERATOR_DEBUG_LEVEL */
; 939  : 
; 940  : 		return (*(this->_Myfirst + _Pos));

  00003	8b 45 08	 mov	 eax, DWORD PTR __Pos$[ebp]
  00006	8d 14 c5 00 00
	00 00		 lea	 edx, DWORD PTR [eax*8]
  0000d	2b d0		 sub	 edx, eax
  0000f	8b 01		 mov	 eax, DWORD PTR [ecx]
  00011	8d 04 50	 lea	 eax, DWORD PTR [eax+edx*2]

; 941  : 		}

  00014	5d		 pop	 ebp
  00015	c2 04 00	 ret	 4
??A?$vector@UEXPCHAR_DATA@@V?$allocator@UEXPCHAR_DATA@@@std@@@std@@QAEAAUEXPCHAR_DATA@@I@Z ENDP ; std::vector<EXPCHAR_DATA,std::allocator<EXPCHAR_DATA> >::operator[]
_TEXT	ENDS
PUBLIC	?_Inside@?$vector@UIMPERIALPET_DATA@@V?$allocator@UIMPERIALPET_DATA@@@std@@@std@@IBE_NPBUIMPERIALPET_DATA@@@Z ; std::vector<IMPERIALPET_DATA,std::allocator<IMPERIALPET_DATA> >::_Inside
; Function compile flags: /Ogtp
;	COMDAT ?_Inside@?$vector@UIMPERIALPET_DATA@@V?$allocator@UIMPERIALPET_DATA@@@std@@@std@@IBE_NPBUIMPERIALPET_DATA@@@Z
_TEXT	SEGMENT
__Ptr$ = 8						; size = 4
?_Inside@?$vector@UIMPERIALPET_DATA@@V?$allocator@UIMPERIALPET_DATA@@@std@@@std@@IBE_NPBUIMPERIALPET_DATA@@@Z PROC ; std::vector<IMPERIALPET_DATA,std::allocator<IMPERIALPET_DATA> >::_Inside, COMDAT
; _this$ = ecx

; 1285 : 		{	// test if _Ptr points inside vector

  00000	55		 push	 ebp
  00001	8b ec		 mov	 ebp, esp

; 1286 : 		return (_Ptr < this->_Mylast && this->_Myfirst <= _Ptr);

  00003	8b 45 08	 mov	 eax, DWORD PTR __Ptr$[ebp]
  00006	3b 41 04	 cmp	 eax, DWORD PTR [ecx+4]
  00009	73 0d		 jae	 SHORT $LN3@Inside
  0000b	39 01		 cmp	 DWORD PTR [ecx], eax
  0000d	77 09		 ja	 SHORT $LN3@Inside
  0000f	b8 01 00 00 00	 mov	 eax, 1

; 1287 : 		}

  00014	5d		 pop	 ebp
  00015	c2 04 00	 ret	 4
$LN3@Inside:

; 1286 : 		return (_Ptr < this->_Mylast && this->_Myfirst <= _Ptr);

  00018	33 c0		 xor	 eax, eax

; 1287 : 		}

  0001a	5d		 pop	 ebp
  0001b	c2 04 00	 ret	 4
?_Inside@?$vector@UIMPERIALPET_DATA@@V?$allocator@UIMPERIALPET_DATA@@@std@@@std@@IBE_NPBUIMPERIALPET_DATA@@@Z ENDP ; std::vector<IMPERIALPET_DATA,std::allocator<IMPERIALPET_DATA> >::_Inside
_TEXT	ENDS
PUBLIC	?_Orphan_range@?$vector@UIMPERIALPET_DATA@@V?$allocator@UIMPERIALPET_DATA@@@std@@@std@@IBEXPAUIMPERIALPET_DATA@@0@Z ; std::vector<IMPERIALPET_DATA,std::allocator<IMPERIALPET_DATA> >::_Orphan_range
; Function compile flags: /Ogtp
;	COMDAT ?_Orphan_range@?$vector@UIMPERIALPET_DATA@@V?$allocator@UIMPERIALPET_DATA@@@std@@@std@@IBEXPAUIMPERIALPET_DATA@@0@Z
_TEXT	SEGMENT
___formal$ = 8						; size = 4
___formal$ = 12						; size = 4
?_Orphan_range@?$vector@UIMPERIALPET_DATA@@V?$allocator@UIMPERIALPET_DATA@@@std@@@std@@IBEXPAUIMPERIALPET_DATA@@0@Z PROC ; std::vector<IMPERIALPET_DATA,std::allocator<IMPERIALPET_DATA> >::_Orphan_range, COMDAT
; _this$ = ecx

; 1454 : 		}

  00000	c2 08 00	 ret	 8
?_Orphan_range@?$vector@UIMPERIALPET_DATA@@V?$allocator@UIMPERIALPET_DATA@@@std@@@std@@IBEXPAUIMPERIALPET_DATA@@0@Z ENDP ; std::vector<IMPERIALPET_DATA,std::allocator<IMPERIALPET_DATA> >::_Orphan_range
_TEXT	ENDS
PUBLIC	??1?$_Vector_val@UIMPERIALPET_DATA@@V?$allocator@UIMPERIALPET_DATA@@@std@@@std@@QAE@XZ ; std::_Vector_val<IMPERIALPET_DATA,std::allocator<IMPERIALPET_DATA> >::~_Vector_val<IMPERIALPET_DATA,std::allocator<IMPERIALPET_DATA> >
; Function compile flags: /Ogtp
;	COMDAT ??1?$_Vector_val@UIMPERIALPET_DATA@@V?$allocator@UIMPERIALPET_DATA@@@std@@@std@@QAE@XZ
_TEXT	SEGMENT
??1?$_Vector_val@UIMPERIALPET_DATA@@V?$allocator@UIMPERIALPET_DATA@@@std@@@std@@QAE@XZ PROC ; std::_Vector_val<IMPERIALPET_DATA,std::allocator<IMPERIALPET_DATA> >::~_Vector_val<IMPERIALPET_DATA,std::allocator<IMPERIALPET_DATA> >, COMDAT
; _this$ = ecx

; 434  : 		}

  00000	c3		 ret	 0
??1?$_Vector_val@UIMPERIALPET_DATA@@V?$allocator@UIMPERIALPET_DATA@@@std@@@std@@QAE@XZ ENDP ; std::_Vector_val<IMPERIALPET_DATA,std::allocator<IMPERIALPET_DATA> >::~_Vector_val<IMPERIALPET_DATA,std::allocator<IMPERIALPET_DATA> >
_TEXT	ENDS
PUBLIC	??0?$allocator@UIMPERIALPET_DATA@@@std@@QAE@XZ	; std::allocator<IMPERIALPET_DATA>::allocator<IMPERIALPET_DATA>
; Function compile flags: /Ogtp
; File d:\program files (x86)\microsoft visual studio 10.0\vc\include\xmemory
;	COMDAT ??0?$allocator@UIMPERIALPET_DATA@@@std@@QAE@XZ
_TEXT	SEGMENT
??0?$allocator@UIMPERIALPET_DATA@@@std@@QAE@XZ PROC	; std::allocator<IMPERIALPET_DATA>::allocator<IMPERIALPET_DATA>, COMDAT
; _this$ = ecx

; 161  : 	_ALLOCATOR() _THROW0()

  00000	8b c1		 mov	 eax, ecx

; 162  : 		{	// construct default allocator (do nothing)
; 163  : 		}

  00002	c3		 ret	 0
??0?$allocator@UIMPERIALPET_DATA@@@std@@QAE@XZ ENDP	; std::allocator<IMPERIALPET_DATA>::allocator<IMPERIALPET_DATA>
_TEXT	ENDS
PUBLIC	?_Inside@?$vector@UEXPCHAR_DATA@@V?$allocator@UEXPCHAR_DATA@@@std@@@std@@IBE_NPBUEXPCHAR_DATA@@@Z ; std::vector<EXPCHAR_DATA,std::allocator<EXPCHAR_DATA> >::_Inside
; Function compile flags: /Ogtp
; File d:\program files (x86)\microsoft visual studio 10.0\vc\include\vector
;	COMDAT ?_Inside@?$vector@UEXPCHAR_DATA@@V?$allocator@UEXPCHAR_DATA@@@std@@@std@@IBE_NPBUEXPCHAR_DATA@@@Z
_TEXT	SEGMENT
__Ptr$ = 8						; size = 4
?_Inside@?$vector@UEXPCHAR_DATA@@V?$allocator@UEXPCHAR_DATA@@@std@@@std@@IBE_NPBUEXPCHAR_DATA@@@Z PROC ; std::vector<EXPCHAR_DATA,std::allocator<EXPCHAR_DATA> >::_Inside, COMDAT
; _this$ = ecx

; 1285 : 		{	// test if _Ptr points inside vector

  00000	55		 push	 ebp
  00001	8b ec		 mov	 ebp, esp

; 1286 : 		return (_Ptr < this->_Mylast && this->_Myfirst <= _Ptr);

  00003	8b 45 08	 mov	 eax, DWORD PTR __Ptr$[ebp]
  00006	3b 41 04	 cmp	 eax, DWORD PTR [ecx+4]
  00009	73 0d		 jae	 SHORT $LN3@Inside@2
  0000b	39 01		 cmp	 DWORD PTR [ecx], eax
  0000d	77 09		 ja	 SHORT $LN3@Inside@2
  0000f	b8 01 00 00 00	 mov	 eax, 1

; 1287 : 		}

  00014	5d		 pop	 ebp
  00015	c2 04 00	 ret	 4
$LN3@Inside@2:

; 1286 : 		return (_Ptr < this->_Mylast && this->_Myfirst <= _Ptr);

  00018	33 c0		 xor	 eax, eax

; 1287 : 		}

  0001a	5d		 pop	 ebp
  0001b	c2 04 00	 ret	 4
?_Inside@?$vector@UEXPCHAR_DATA@@V?$allocator@UEXPCHAR_DATA@@@std@@@std@@IBE_NPBUEXPCHAR_DATA@@@Z ENDP ; std::vector<EXPCHAR_DATA,std::allocator<EXPCHAR_DATA> >::_Inside
_TEXT	ENDS
PUBLIC	?_Orphan_range@?$vector@UEXPCHAR_DATA@@V?$allocator@UEXPCHAR_DATA@@@std@@@std@@IBEXPAUEXPCHAR_DATA@@0@Z ; std::vector<EXPCHAR_DATA,std::allocator<EXPCHAR_DATA> >::_Orphan_range
; Function compile flags: /Ogtp
;	COMDAT ?_Orphan_range@?$vector@UEXPCHAR_DATA@@V?$allocator@UEXPCHAR_DATA@@@std@@@std@@IBEXPAUEXPCHAR_DATA@@0@Z
_TEXT	SEGMENT
___formal$ = 8						; size = 4
___formal$ = 12						; size = 4
?_Orphan_range@?$vector@UEXPCHAR_DATA@@V?$allocator@UEXPCHAR_DATA@@@std@@@std@@IBEXPAUEXPCHAR_DATA@@0@Z PROC ; std::vector<EXPCHAR_DATA,std::allocator<EXPCHAR_DATA> >::_Orphan_range, COMDAT
; _this$ = ecx

; 1454 : 		}

  00000	c2 08 00	 ret	 8
?_Orphan_range@?$vector@UEXPCHAR_DATA@@V?$allocator@UEXPCHAR_DATA@@@std@@@std@@IBEXPAUEXPCHAR_DATA@@0@Z ENDP ; std::vector<EXPCHAR_DATA,std::allocator<EXPCHAR_DATA> >::_Orphan_range
_TEXT	ENDS
PUBLIC	??1?$_Vector_val@UEXPCHAR_DATA@@V?$allocator@UEXPCHAR_DATA@@@std@@@std@@QAE@XZ ; std::_Vector_val<EXPCHAR_DATA,std::allocator<EXPCHAR_DATA> >::~_Vector_val<EXPCHAR_DATA,std::allocator<EXPCHAR_DATA> >
; Function compile flags: /Ogtp
;	COMDAT ??1?$_Vector_val@UEXPCHAR_DATA@@V?$allocator@UEXPCHAR_DATA@@@std@@@std@@QAE@XZ
_TEXT	SEGMENT
??1?$_Vector_val@UEXPCHAR_DATA@@V?$allocator@UEXPCHAR_DATA@@@std@@@std@@QAE@XZ PROC ; std::_Vector_val<EXPCHAR_DATA,std::allocator<EXPCHAR_DATA> >::~_Vector_val<EXPCHAR_DATA,std::allocator<EXPCHAR_DATA> >, COMDAT
; _this$ = ecx

; 434  : 		}

  00000	c3		 ret	 0
??1?$_Vector_val@UEXPCHAR_DATA@@V?$allocator@UEXPCHAR_DATA@@@std@@@std@@QAE@XZ ENDP ; std::_Vector_val<EXPCHAR_DATA,std::allocator<EXPCHAR_DATA> >::~_Vector_val<EXPCHAR_DATA,std::allocator<EXPCHAR_DATA> >
_TEXT	ENDS
PUBLIC	??0?$allocator@UEXPCHAR_DATA@@@std@@QAE@XZ	; std::allocator<EXPCHAR_DATA>::allocator<EXPCHAR_DATA>
; Function compile flags: /Ogtp
; File d:\program files (x86)\microsoft visual studio 10.0\vc\include\xmemory
;	COMDAT ??0?$allocator@UEXPCHAR_DATA@@@std@@QAE@XZ
_TEXT	SEGMENT
??0?$allocator@UEXPCHAR_DATA@@@std@@QAE@XZ PROC		; std::allocator<EXPCHAR_DATA>::allocator<EXPCHAR_DATA>, COMDAT
; _this$ = ecx

; 161  : 	_ALLOCATOR() _THROW0()

  00000	8b c1		 mov	 eax, ecx

; 162  : 		{	// construct default allocator (do nothing)
; 163  : 		}

  00002	c3		 ret	 0
??0?$allocator@UEXPCHAR_DATA@@@std@@QAE@XZ ENDP		; std::allocator<EXPCHAR_DATA>::allocator<EXPCHAR_DATA>
_TEXT	ENDS
PUBLIC	?capacity@?$vector@UIMPERIALPET_DATA@@V?$allocator@UIMPERIALPET_DATA@@@std@@@std@@QBEIXZ ; std::vector<IMPERIALPET_DATA,std::allocator<IMPERIALPET_DATA> >::capacity
; Function compile flags: /Ogtp
; File d:\program files (x86)\microsoft visual studio 10.0\vc\include\vector
;	COMDAT ?capacity@?$vector@UIMPERIALPET_DATA@@V?$allocator@UIMPERIALPET_DATA@@@std@@@std@@QBEIXZ
_TEXT	SEGMENT
?capacity@?$vector@UIMPERIALPET_DATA@@V?$allocator@UIMPERIALPET_DATA@@@std@@@std@@QBEIXZ PROC ; std::vector<IMPERIALPET_DATA,std::allocator<IMPERIALPET_DATA> >::capacity, COMDAT
; _this$ = ecx

; 776  : 		{	// return current length of allocated storage

  00000	56		 push	 esi

; 777  : 		return (this->_Myend - this->_Myfirst);

  00001	8b 71 08	 mov	 esi, DWORD PTR [ecx+8]
  00004	2b 31		 sub	 esi, DWORD PTR [ecx]
  00006	b8 93 24 49 92	 mov	 eax, -1840700269	; 92492493H
  0000b	f7 ee		 imul	 esi
  0000d	03 d6		 add	 edx, esi
  0000f	c1 fa 03	 sar	 edx, 3
  00012	8b c2		 mov	 eax, edx
  00014	c1 e8 1f	 shr	 eax, 31			; 0000001fH
  00017	03 c2		 add	 eax, edx
  00019	5e		 pop	 esi

; 778  : 		}

  0001a	c3		 ret	 0
?capacity@?$vector@UIMPERIALPET_DATA@@V?$allocator@UIMPERIALPET_DATA@@@std@@@std@@QBEIXZ ENDP ; std::vector<IMPERIALPET_DATA,std::allocator<IMPERIALPET_DATA> >::capacity
_TEXT	ENDS
PUBLIC	??_C@_0BD@OLBABOEK@vector?$DMT?$DO?5too?5long?$AA@ ; `string'
PUBLIC	?_Xlen@?$vector@UIMPERIALPET_DATA@@V?$allocator@UIMPERIALPET_DATA@@@std@@@std@@IBEXXZ ; std::vector<IMPERIALPET_DATA,std::allocator<IMPERIALPET_DATA> >::_Xlen
EXTRN	?_Xlength_error@std@@YAXPBD@Z:PROC		; std::_Xlength_error
;	COMDAT ??_C@_0BD@OLBABOEK@vector?$DMT?$DO?5too?5long?$AA@
CONST	SEGMENT
??_C@_0BD@OLBABOEK@vector?$DMT?$DO?5too?5long?$AA@ DB 'vector<T> too long'
	DB	00H						; `string'
; Function compile flags: /Ogtp
CONST	ENDS
;	COMDAT ?_Xlen@?$vector@UIMPERIALPET_DATA@@V?$allocator@UIMPERIALPET_DATA@@@std@@@std@@IBEXXZ
_TEXT	SEGMENT
?_Xlen@?$vector@UIMPERIALPET_DATA@@V?$allocator@UIMPERIALPET_DATA@@@std@@@std@@IBEXXZ PROC ; std::vector<IMPERIALPET_DATA,std::allocator<IMPERIALPET_DATA> >::_Xlen, COMDAT
; _this$ = ecx

; 1427 : 		_Xlength_error("vector<T> too long");

  00000	68 00 00 00 00	 push	 OFFSET ??_C@_0BD@OLBABOEK@vector?$DMT?$DO?5too?5long?$AA@
  00005	e8 00 00 00 00	 call	 ?_Xlength_error@std@@YAXPBD@Z ; std::_Xlength_error
$LN4@Xlen:
$LN3@Xlen:
  0000a	cc		 int	 3
?_Xlen@?$vector@UIMPERIALPET_DATA@@V?$allocator@UIMPERIALPET_DATA@@@std@@@std@@IBEXXZ ENDP ; std::vector<IMPERIALPET_DATA,std::allocator<IMPERIALPET_DATA> >::_Xlen
_TEXT	ENDS
PUBLIC	??0?$allocator@UIMPERIALPET_DATA@@@std@@QAE@ABV01@@Z ; std::allocator<IMPERIALPET_DATA>::allocator<IMPERIALPET_DATA>
; Function compile flags: /Ogtp
; File d:\program files (x86)\microsoft visual studio 10.0\vc\include\xmemory
;	COMDAT ??0?$allocator@UIMPERIALPET_DATA@@@std@@QAE@ABV01@@Z
_TEXT	SEGMENT
___formal$ = 8						; size = 4
??0?$allocator@UIMPERIALPET_DATA@@@std@@QAE@ABV01@@Z PROC ; std::allocator<IMPERIALPET_DATA>::allocator<IMPERIALPET_DATA>, COMDAT
; _this$ = ecx

; 165  : 	_ALLOCATOR(const _ALLOCATOR<_Ty>&) _THROW0()

  00000	8b c1		 mov	 eax, ecx

; 166  : 		{	// construct by copying (do nothing)
; 167  : 		}

  00002	c2 04 00	 ret	 4
??0?$allocator@UIMPERIALPET_DATA@@@std@@QAE@ABV01@@Z ENDP ; std::allocator<IMPERIALPET_DATA>::allocator<IMPERIALPET_DATA>
_TEXT	ENDS
PUBLIC	?deallocate@?$allocator@UIMPERIALPET_DATA@@@std@@QAEXPAUIMPERIALPET_DATA@@I@Z ; std::allocator<IMPERIALPET_DATA>::deallocate
EXTRN	??3@YAXPAX@Z:PROC				; operator delete
; Function compile flags: /Ogtp
;	COMDAT ?deallocate@?$allocator@UIMPERIALPET_DATA@@@std@@QAEXPAUIMPERIALPET_DATA@@I@Z
_TEXT	SEGMENT
__Ptr$ = 8						; size = 4
___formal$ = 12						; size = 4
?deallocate@?$allocator@UIMPERIALPET_DATA@@@std@@QAEXPAUIMPERIALPET_DATA@@I@Z PROC ; std::allocator<IMPERIALPET_DATA>::deallocate, COMDAT
; _this$ = ecx

; 181  : 		{	// deallocate object at _Ptr, ignore size

  00000	55		 push	 ebp
  00001	8b ec		 mov	 ebp, esp

; 182  : 		::operator delete(_Ptr);

  00003	8b 45 08	 mov	 eax, DWORD PTR __Ptr$[ebp]
  00006	50		 push	 eax
  00007	e8 00 00 00 00	 call	 ??3@YAXPAX@Z		; operator delete
  0000c	83 c4 04	 add	 esp, 4

; 183  : 		}

  0000f	5d		 pop	 ebp
  00010	c2 08 00	 ret	 8
?deallocate@?$allocator@UIMPERIALPET_DATA@@@std@@QAEXPAUIMPERIALPET_DATA@@I@Z ENDP ; std::allocator<IMPERIALPET_DATA>::deallocate
_TEXT	ENDS
PUBLIC	?capacity@?$vector@UEXPCHAR_DATA@@V?$allocator@UEXPCHAR_DATA@@@std@@@std@@QBEIXZ ; std::vector<EXPCHAR_DATA,std::allocator<EXPCHAR_DATA> >::capacity
; Function compile flags: /Ogtp
; File d:\program files (x86)\microsoft visual studio 10.0\vc\include\vector
;	COMDAT ?capacity@?$vector@UEXPCHAR_DATA@@V?$allocator@UEXPCHAR_DATA@@@std@@@std@@QBEIXZ
_TEXT	SEGMENT
?capacity@?$vector@UEXPCHAR_DATA@@V?$allocator@UEXPCHAR_DATA@@@std@@@std@@QBEIXZ PROC ; std::vector<EXPCHAR_DATA,std::allocator<EXPCHAR_DATA> >::capacity, COMDAT
; _this$ = ecx

; 776  : 		{	// return current length of allocated storage

  00000	56		 push	 esi

; 777  : 		return (this->_Myend - this->_Myfirst);

  00001	8b 71 08	 mov	 esi, DWORD PTR [ecx+8]
  00004	2b 31		 sub	 esi, DWORD PTR [ecx]
  00006	b8 93 24 49 92	 mov	 eax, -1840700269	; 92492493H
  0000b	f7 ee		 imul	 esi
  0000d	03 d6		 add	 edx, esi
  0000f	c1 fa 03	 sar	 edx, 3
  00012	8b c2		 mov	 eax, edx
  00014	c1 e8 1f	 shr	 eax, 31			; 0000001fH
  00017	03 c2		 add	 eax, edx
  00019	5e		 pop	 esi

; 778  : 		}

  0001a	c3		 ret	 0
?capacity@?$vector@UEXPCHAR_DATA@@V?$allocator@UEXPCHAR_DATA@@@std@@@std@@QBEIXZ ENDP ; std::vector<EXPCHAR_DATA,std::allocator<EXPCHAR_DATA> >::capacity
_TEXT	ENDS
PUBLIC	?_Xlen@?$vector@UEXPCHAR_DATA@@V?$allocator@UEXPCHAR_DATA@@@std@@@std@@IBEXXZ ; std::vector<EXPCHAR_DATA,std::allocator<EXPCHAR_DATA> >::_Xlen
; Function compile flags: /Ogtp
;	COMDAT ?_Xlen@?$vector@UEXPCHAR_DATA@@V?$allocator@UEXPCHAR_DATA@@@std@@@std@@IBEXXZ
_TEXT	SEGMENT
?_Xlen@?$vector@UEXPCHAR_DATA@@V?$allocator@UEXPCHAR_DATA@@@std@@@std@@IBEXXZ PROC ; std::vector<EXPCHAR_DATA,std::allocator<EXPCHAR_DATA> >::_Xlen, COMDAT
; _this$ = ecx

; 1427 : 		_Xlength_error("vector<T> too long");

  00000	68 00 00 00 00	 push	 OFFSET ??_C@_0BD@OLBABOEK@vector?$DMT?$DO?5too?5long?$AA@
  00005	e8 00 00 00 00	 call	 ?_Xlength_error@std@@YAXPBD@Z ; std::_Xlength_error
$LN4@Xlen@2:
$LN3@Xlen@2:
  0000a	cc		 int	 3
?_Xlen@?$vector@UEXPCHAR_DATA@@V?$allocator@UEXPCHAR_DATA@@@std@@@std@@IBEXXZ ENDP ; std::vector<EXPCHAR_DATA,std::allocator<EXPCHAR_DATA> >::_Xlen
_TEXT	ENDS
PUBLIC	??0?$allocator@UEXPCHAR_DATA@@@std@@QAE@ABV01@@Z ; std::allocator<EXPCHAR_DATA>::allocator<EXPCHAR_DATA>
; Function compile flags: /Ogtp
; File d:\program files (x86)\microsoft visual studio 10.0\vc\include\xmemory
;	COMDAT ??0?$allocator@UEXPCHAR_DATA@@@std@@QAE@ABV01@@Z
_TEXT	SEGMENT
___formal$ = 8						; size = 4
??0?$allocator@UEXPCHAR_DATA@@@std@@QAE@ABV01@@Z PROC	; std::allocator<EXPCHAR_DATA>::allocator<EXPCHAR_DATA>, COMDAT
; _this$ = ecx

; 165  : 	_ALLOCATOR(const _ALLOCATOR<_Ty>&) _THROW0()

  00000	8b c1		 mov	 eax, ecx

; 166  : 		{	// construct by copying (do nothing)
; 167  : 		}

  00002	c2 04 00	 ret	 4
??0?$allocator@UEXPCHAR_DATA@@@std@@QAE@ABV01@@Z ENDP	; std::allocator<EXPCHAR_DATA>::allocator<EXPCHAR_DATA>
_TEXT	ENDS
PUBLIC	?deallocate@?$allocator@UEXPCHAR_DATA@@@std@@QAEXPAUEXPCHAR_DATA@@I@Z ; std::allocator<EXPCHAR_DATA>::deallocate
; Function compile flags: /Ogtp
;	COMDAT ?deallocate@?$allocator@UEXPCHAR_DATA@@@std@@QAEXPAUEXPCHAR_DATA@@I@Z
_TEXT	SEGMENT
__Ptr$ = 8						; size = 4
___formal$ = 12						; size = 4
?deallocate@?$allocator@UEXPCHAR_DATA@@@std@@QAEXPAUEXPCHAR_DATA@@I@Z PROC ; std::allocator<EXPCHAR_DATA>::deallocate, COMDAT
; _this$ = ecx

; 181  : 		{	// deallocate object at _Ptr, ignore size

  00000	55		 push	 ebp
  00001	8b ec		 mov	 ebp, esp

; 182  : 		::operator delete(_Ptr);

  00003	8b 45 08	 mov	 eax, DWORD PTR __Ptr$[ebp]
  00006	50		 push	 eax
  00007	e8 00 00 00 00	 call	 ??3@YAXPAX@Z		; operator delete
  0000c	83 c4 04	 add	 esp, 4

; 183  : 		}

  0000f	5d		 pop	 ebp
  00010	c2 08 00	 ret	 8
?deallocate@?$allocator@UEXPCHAR_DATA@@@std@@QAEXPAUEXPCHAR_DATA@@I@Z ENDP ; std::allocator<EXPCHAR_DATA>::deallocate
_TEXT	ENDS
PUBLIC	?max_size@?$allocator@UIMPERIALPET_DATA@@@std@@QBEIXZ ; std::allocator<IMPERIALPET_DATA>::max_size
; Function compile flags: /Ogtp
;	COMDAT ?max_size@?$allocator@UIMPERIALPET_DATA@@@std@@QBEIXZ
_TEXT	SEGMENT
?max_size@?$allocator@UIMPERIALPET_DATA@@@std@@QBEIXZ PROC ; std::allocator<IMPERIALPET_DATA>::max_size, COMDAT
; _this$ = ecx

; 218  : 		_SIZT _Count = (_SIZT)(-1) / sizeof (_Ty);
; 219  : 		return (0 < _Count ? _Count : 1);

  00000	b8 92 24 49 12	 mov	 eax, 306783378		; 12492492H

; 220  : 		}

  00005	c3		 ret	 0
?max_size@?$allocator@UIMPERIALPET_DATA@@@std@@QBEIXZ ENDP ; std::allocator<IMPERIALPET_DATA>::max_size
_TEXT	ENDS
PUBLIC	?max_size@?$allocator@UEXPCHAR_DATA@@@std@@QBEIXZ ; std::allocator<EXPCHAR_DATA>::max_size
; Function compile flags: /Ogtp
;	COMDAT ?max_size@?$allocator@UEXPCHAR_DATA@@@std@@QBEIXZ
_TEXT	SEGMENT
?max_size@?$allocator@UEXPCHAR_DATA@@@std@@QBEIXZ PROC	; std::allocator<EXPCHAR_DATA>::max_size, COMDAT
; _this$ = ecx

; 218  : 		_SIZT _Count = (_SIZT)(-1) / sizeof (_Ty);
; 219  : 		return (0 < _Count ? _Count : 1);

  00000	b8 92 24 49 12	 mov	 eax, 306783378		; 12492492H

; 220  : 		}

  00005	c3		 ret	 0
?max_size@?$allocator@UEXPCHAR_DATA@@@std@@QBEIXZ ENDP	; std::allocator<EXPCHAR_DATA>::max_size
_TEXT	ENDS
PUBLIC	?_Compat@?$_Vector_const_iterator@V?$_Vector_val@UIMPERIALPET_DATA@@V?$allocator@UIMPERIALPET_DATA@@@std@@@std@@@std@@QBEXABV12@@Z ; std::_Vector_const_iterator<std::_Vector_val<IMPERIALPET_DATA,std::allocator<IMPERIALPET_DATA> > >::_Compat
; Function compile flags: /Ogtp
; File d:\program files (x86)\microsoft visual studio 10.0\vc\include\vector
;	COMDAT ?_Compat@?$_Vector_const_iterator@V?$_Vector_val@UIMPERIALPET_DATA@@V?$allocator@UIMPERIALPET_DATA@@@std@@@std@@@std@@QBEXABV12@@Z
_TEXT	SEGMENT
___formal$ = 8						; size = 4
?_Compat@?$_Vector_const_iterator@V?$_Vector_val@UIMPERIALPET_DATA@@V?$allocator@UIMPERIALPET_DATA@@@std@@@std@@@std@@QBEXABV12@@Z PROC ; std::_Vector_const_iterator<std::_Vector_val<IMPERIALPET_DATA,std::allocator<IMPERIALPET_DATA> > >::_Compat, COMDAT
; _this$ = ecx

; 253  : 		}

  00000	c2 04 00	 ret	 4
?_Compat@?$_Vector_const_iterator@V?$_Vector_val@UIMPERIALPET_DATA@@V?$allocator@UIMPERIALPET_DATA@@@std@@@std@@@std@@QBEXABV12@@Z ENDP ; std::_Vector_const_iterator<std::_Vector_val<IMPERIALPET_DATA,std::allocator<IMPERIALPET_DATA> > >::_Compat
_TEXT	ENDS
PUBLIC	?_Compat@?$_Vector_const_iterator@V?$_Vector_val@UEXPCHAR_DATA@@V?$allocator@UEXPCHAR_DATA@@@std@@@std@@@std@@QBEXABV12@@Z ; std::_Vector_const_iterator<std::_Vector_val<EXPCHAR_DATA,std::allocator<EXPCHAR_DATA> > >::_Compat
; Function compile flags: /Ogtp
;	COMDAT ?_Compat@?$_Vector_const_iterator@V?$_Vector_val@UEXPCHAR_DATA@@V?$allocator@UEXPCHAR_DATA@@@std@@@std@@@std@@QBEXABV12@@Z
_TEXT	SEGMENT
___formal$ = 8						; size = 4
?_Compat@?$_Vector_const_iterator@V?$_Vector_val@UEXPCHAR_DATA@@V?$allocator@UEXPCHAR_DATA@@@std@@@std@@@std@@QBEXABV12@@Z PROC ; std::_Vector_const_iterator<std::_Vector_val<EXPCHAR_DATA,std::allocator<EXPCHAR_DATA> > >::_Compat, COMDAT
; _this$ = ecx

; 253  : 		}

  00000	c2 04 00	 ret	 4
?_Compat@?$_Vector_const_iterator@V?$_Vector_val@UEXPCHAR_DATA@@V?$allocator@UEXPCHAR_DATA@@@std@@@std@@@std@@QBEXABV12@@Z ENDP ; std::_Vector_const_iterator<std::_Vector_val<EXPCHAR_DATA,std::allocator<EXPCHAR_DATA> > >::_Compat
_TEXT	ENDS
PUBLIC	??$addressof@$$CBUIMPERIALPET_DATA@@@std@@YAPBUIMPERIALPET_DATA@@ABU1@@Z ; std::addressof<IMPERIALPET_DATA const >
; Function compile flags: /Ogtp
; File d:\program files (x86)\microsoft visual studio 10.0\vc\include\xmemory
;	COMDAT ??$addressof@$$CBUIMPERIALPET_DATA@@@std@@YAPBUIMPERIALPET_DATA@@ABU1@@Z
_TEXT	SEGMENT
__Val$ = 8						; size = 4
??$addressof@$$CBUIMPERIALPET_DATA@@@std@@YAPBUIMPERIALPET_DATA@@ABU1@@Z PROC ; std::addressof<IMPERIALPET_DATA const >, COMDAT

; 110  : 	{	// return address of _Val

  00000	55		 push	 ebp
  00001	8b ec		 mov	 ebp, esp

; 111  : 	return ((_Ty *) &(char&)_Val);

  00003	8b 45 08	 mov	 eax, DWORD PTR __Val$[ebp]

; 112  : 	}

  00006	5d		 pop	 ebp
  00007	c3		 ret	 0
??$addressof@$$CBUIMPERIALPET_DATA@@@std@@YAPBUIMPERIALPET_DATA@@ABU1@@Z ENDP ; std::addressof<IMPERIALPET_DATA const >
_TEXT	ENDS
PUBLIC	??$addressof@$$CBUEXPCHAR_DATA@@@std@@YAPBUEXPCHAR_DATA@@ABU1@@Z ; std::addressof<EXPCHAR_DATA const >
; Function compile flags: /Ogtp
;	COMDAT ??$addressof@$$CBUEXPCHAR_DATA@@@std@@YAPBUEXPCHAR_DATA@@ABU1@@Z
_TEXT	SEGMENT
__Val$ = 8						; size = 4
??$addressof@$$CBUEXPCHAR_DATA@@@std@@YAPBUEXPCHAR_DATA@@ABU1@@Z PROC ; std::addressof<EXPCHAR_DATA const >, COMDAT

; 110  : 	{	// return address of _Val

  00000	55		 push	 ebp
  00001	8b ec		 mov	 ebp, esp

; 111  : 	return ((_Ty *) &(char&)_Val);

  00003	8b 45 08	 mov	 eax, DWORD PTR __Val$[ebp]

; 112  : 	}

  00006	5d		 pop	 ebp
  00007	c3		 ret	 0
??$addressof@$$CBUEXPCHAR_DATA@@@std@@YAPBUEXPCHAR_DATA@@ABU1@@Z ENDP ; std::addressof<EXPCHAR_DATA const >
_TEXT	ENDS
PUBLIC	??$forward@AAUIMPERIALPET_DATA@@@std@@YAAAUIMPERIALPET_DATA@@AAU1@@Z ; std::forward<IMPERIALPET_DATA &>
; Function compile flags: /Ogtp
; File d:\program files (x86)\microsoft visual studio 10.0\vc\include\utility
;	COMDAT ??$forward@AAUIMPERIALPET_DATA@@@std@@YAAAUIMPERIALPET_DATA@@AAU1@@Z
_TEXT	SEGMENT
__Arg$ = 8						; size = 4
??$forward@AAUIMPERIALPET_DATA@@@std@@YAAAUIMPERIALPET_DATA@@AAU1@@Z PROC ; std::forward<IMPERIALPET_DATA &>, COMDAT

; 78   : 	{	// forward _Arg, given explicitly specified type parameter

  00000	55		 push	 ebp
  00001	8b ec		 mov	 ebp, esp

; 79   : 	return ((_Ty&&)_Arg);

  00003	8b 45 08	 mov	 eax, DWORD PTR __Arg$[ebp]

; 80   : 	}

  00006	5d		 pop	 ebp
  00007	c3		 ret	 0
??$forward@AAUIMPERIALPET_DATA@@@std@@YAAAUIMPERIALPET_DATA@@AAU1@@Z ENDP ; std::forward<IMPERIALPET_DATA &>
_TEXT	ENDS
PUBLIC	??$construct@AAUIMPERIALPET_DATA@@@?$allocator@UIMPERIALPET_DATA@@@std@@QAEXPAUIMPERIALPET_DATA@@AAU2@@Z ; std::allocator<IMPERIALPET_DATA>::construct<IMPERIALPET_DATA &>
; Function compile flags: /Ogtp
; File d:\program files (x86)\microsoft visual studio 10.0\vc\include\xmemory
;	COMDAT ??$construct@AAUIMPERIALPET_DATA@@@?$allocator@UIMPERIALPET_DATA@@@std@@QAEXPAUIMPERIALPET_DATA@@AAU2@@Z
_TEXT	SEGMENT
__Ptr$ = 8						; size = 4
__Val$ = 12						; size = 4
??$construct@AAUIMPERIALPET_DATA@@@?$allocator@UIMPERIALPET_DATA@@@std@@QAEXPAUIMPERIALPET_DATA@@AAU2@@Z PROC ; std::allocator<IMPERIALPET_DATA>::construct<IMPERIALPET_DATA &>, COMDAT
; _this$ = ecx

; 206  : 		void construct(pointer _Ptr, _Other&& _Val)

  00000	55		 push	 ebp
  00001	8b ec		 mov	 ebp, esp

; 207  : 		{	// construct object at _Ptr with value _Val
; 208  : 		::new ((void _FARQ *)_Ptr) _Ty(_STD forward<_Other>(_Val));

  00003	8b 45 08	 mov	 eax, DWORD PTR __Ptr$[ebp]
  00006	85 c0		 test	 eax, eax
  00008	74 1b		 je	 SHORT $LN3@construct
  0000a	8b 4d 0c	 mov	 ecx, DWORD PTR __Val$[ebp]
  0000d	8b 11		 mov	 edx, DWORD PTR [ecx]
  0000f	89 10		 mov	 DWORD PTR [eax], edx
  00011	8b 51 04	 mov	 edx, DWORD PTR [ecx+4]
  00014	89 50 04	 mov	 DWORD PTR [eax+4], edx
  00017	8b 51 08	 mov	 edx, DWORD PTR [ecx+8]
  0001a	89 50 08	 mov	 DWORD PTR [eax+8], edx
  0001d	66 8b 49 0c	 mov	 cx, WORD PTR [ecx+12]
  00021	66 89 48 0c	 mov	 WORD PTR [eax+12], cx
$LN3@construct:

; 209  : 		}

  00025	5d		 pop	 ebp
  00026	c2 08 00	 ret	 8
??$construct@AAUIMPERIALPET_DATA@@@?$allocator@UIMPERIALPET_DATA@@@std@@QAEXPAUIMPERIALPET_DATA@@AAU2@@Z ENDP ; std::allocator<IMPERIALPET_DATA>::construct<IMPERIALPET_DATA &>
_TEXT	ENDS
PUBLIC	??$forward@ABUIMPERIALPET_DATA@@@std@@YAABUIMPERIALPET_DATA@@ABU1@@Z ; std::forward<IMPERIALPET_DATA const &>
; Function compile flags: /Ogtp
; File d:\program files (x86)\microsoft visual studio 10.0\vc\include\utility
;	COMDAT ??$forward@ABUIMPERIALPET_DATA@@@std@@YAABUIMPERIALPET_DATA@@ABU1@@Z
_TEXT	SEGMENT
__Arg$ = 8						; size = 4
??$forward@ABUIMPERIALPET_DATA@@@std@@YAABUIMPERIALPET_DATA@@ABU1@@Z PROC ; std::forward<IMPERIALPET_DATA const &>, COMDAT

; 78   : 	{	// forward _Arg, given explicitly specified type parameter

  00000	55		 push	 ebp
  00001	8b ec		 mov	 ebp, esp

; 79   : 	return ((_Ty&&)_Arg);

  00003	8b 45 08	 mov	 eax, DWORD PTR __Arg$[ebp]

; 80   : 	}

  00006	5d		 pop	 ebp
  00007	c3		 ret	 0
??$forward@ABUIMPERIALPET_DATA@@@std@@YAABUIMPERIALPET_DATA@@ABU1@@Z ENDP ; std::forward<IMPERIALPET_DATA const &>
_TEXT	ENDS
PUBLIC	??$forward@AAUEXPCHAR_DATA@@@std@@YAAAUEXPCHAR_DATA@@AAU1@@Z ; std::forward<EXPCHAR_DATA &>
; Function compile flags: /Ogtp
;	COMDAT ??$forward@AAUEXPCHAR_DATA@@@std@@YAAAUEXPCHAR_DATA@@AAU1@@Z
_TEXT	SEGMENT
__Arg$ = 8						; size = 4
??$forward@AAUEXPCHAR_DATA@@@std@@YAAAUEXPCHAR_DATA@@AAU1@@Z PROC ; std::forward<EXPCHAR_DATA &>, COMDAT

; 78   : 	{	// forward _Arg, given explicitly specified type parameter

  00000	55		 push	 ebp
  00001	8b ec		 mov	 ebp, esp

; 79   : 	return ((_Ty&&)_Arg);

  00003	8b 45 08	 mov	 eax, DWORD PTR __Arg$[ebp]

; 80   : 	}

  00006	5d		 pop	 ebp
  00007	c3		 ret	 0
??$forward@AAUEXPCHAR_DATA@@@std@@YAAAUEXPCHAR_DATA@@AAU1@@Z ENDP ; std::forward<EXPCHAR_DATA &>
_TEXT	ENDS
PUBLIC	??$construct@AAUEXPCHAR_DATA@@@?$allocator@UEXPCHAR_DATA@@@std@@QAEXPAUEXPCHAR_DATA@@AAU2@@Z ; std::allocator<EXPCHAR_DATA>::construct<EXPCHAR_DATA &>
; Function compile flags: /Ogtp
; File d:\program files (x86)\microsoft visual studio 10.0\vc\include\xmemory
;	COMDAT ??$construct@AAUEXPCHAR_DATA@@@?$allocator@UEXPCHAR_DATA@@@std@@QAEXPAUEXPCHAR_DATA@@AAU2@@Z
_TEXT	SEGMENT
__Ptr$ = 8						; size = 4
__Val$ = 12						; size = 4
??$construct@AAUEXPCHAR_DATA@@@?$allocator@UEXPCHAR_DATA@@@std@@QAEXPAUEXPCHAR_DATA@@AAU2@@Z PROC ; std::allocator<EXPCHAR_DATA>::construct<EXPCHAR_DATA &>, COMDAT
; _this$ = ecx

; 206  : 		void construct(pointer _Ptr, _Other&& _Val)

  00000	55		 push	 ebp
  00001	8b ec		 mov	 ebp, esp

; 207  : 		{	// construct object at _Ptr with value _Val
; 208  : 		::new ((void _FARQ *)_Ptr) _Ty(_STD forward<_Other>(_Val));

  00003	8b 45 08	 mov	 eax, DWORD PTR __Ptr$[ebp]
  00006	85 c0		 test	 eax, eax
  00008	74 1b		 je	 SHORT $LN3@construct@2
  0000a	8b 4d 0c	 mov	 ecx, DWORD PTR __Val$[ebp]
  0000d	8b 11		 mov	 edx, DWORD PTR [ecx]
  0000f	89 10		 mov	 DWORD PTR [eax], edx
  00011	8b 51 04	 mov	 edx, DWORD PTR [ecx+4]
  00014	89 50 04	 mov	 DWORD PTR [eax+4], edx
  00017	8b 51 08	 mov	 edx, DWORD PTR [ecx+8]
  0001a	89 50 08	 mov	 DWORD PTR [eax+8], edx
  0001d	66 8b 49 0c	 mov	 cx, WORD PTR [ecx+12]
  00021	66 89 48 0c	 mov	 WORD PTR [eax+12], cx
$LN3@construct@2:

; 209  : 		}

  00025	5d		 pop	 ebp
  00026	c2 08 00	 ret	 8
??$construct@AAUEXPCHAR_DATA@@@?$allocator@UEXPCHAR_DATA@@@std@@QAEXPAUEXPCHAR_DATA@@AAU2@@Z ENDP ; std::allocator<EXPCHAR_DATA>::construct<EXPCHAR_DATA &>
_TEXT	ENDS
PUBLIC	??$forward@ABUEXPCHAR_DATA@@@std@@YAABUEXPCHAR_DATA@@ABU1@@Z ; std::forward<EXPCHAR_DATA const &>
; Function compile flags: /Ogtp
; File d:\program files (x86)\microsoft visual studio 10.0\vc\include\utility
;	COMDAT ??$forward@ABUEXPCHAR_DATA@@@std@@YAABUEXPCHAR_DATA@@ABU1@@Z
_TEXT	SEGMENT
__Arg$ = 8						; size = 4
??$forward@ABUEXPCHAR_DATA@@@std@@YAABUEXPCHAR_DATA@@ABU1@@Z PROC ; std::forward<EXPCHAR_DATA const &>, COMDAT

; 78   : 	{	// forward _Arg, given explicitly specified type parameter

  00000	55		 push	 ebp
  00001	8b ec		 mov	 ebp, esp

; 79   : 	return ((_Ty&&)_Arg);

  00003	8b 45 08	 mov	 eax, DWORD PTR __Arg$[ebp]

; 80   : 	}

  00006	5d		 pop	 ebp
  00007	c3		 ret	 0
??$forward@ABUEXPCHAR_DATA@@@std@@YAABUEXPCHAR_DATA@@ABU1@@Z ENDP ; std::forward<EXPCHAR_DATA const &>
_TEXT	ENDS
PUBLIC	??$_Ptr_cat@UIMPERIALPET_DATA@@U1@@std@@YA?AU_Nonscalar_ptr_iterator_tag@0@PAUIMPERIALPET_DATA@@0@Z ; std::_Ptr_cat<IMPERIALPET_DATA,IMPERIALPET_DATA>
; Function compile flags: /Ogtp
; File d:\program files (x86)\microsoft visual studio 10.0\vc\include\xutility
;	COMDAT ??$_Ptr_cat@UIMPERIALPET_DATA@@U1@@std@@YA?AU_Nonscalar_ptr_iterator_tag@0@PAUIMPERIALPET_DATA@@0@Z
_TEXT	SEGMENT
__Cat$ = -1						; size = 1
___formal$ = 8						; size = 4
___formal$ = 12						; size = 4
??$_Ptr_cat@UIMPERIALPET_DATA@@U1@@std@@YA?AU_Nonscalar_ptr_iterator_tag@0@PAUIMPERIALPET_DATA@@0@Z PROC ; std::_Ptr_cat<IMPERIALPET_DATA,IMPERIALPET_DATA>, COMDAT

; 516  : 	{	// return pointer category from pointers

  00000	55		 push	 ebp
  00001	8b ec		 mov	 ebp, esp
  00003	51		 push	 ecx

; 517  : 	typename _Ptr_cat_helper<_Elem1, _Elem2>::_Type _Cat;
; 518  : 	return (_Cat);

  00004	8a 45 ff	 mov	 al, BYTE PTR __Cat$[ebp]

; 519  : 	}

  00007	8b e5		 mov	 esp, ebp
  00009	5d		 pop	 ebp
  0000a	c3		 ret	 0
??$_Ptr_cat@UIMPERIALPET_DATA@@U1@@std@@YA?AU_Nonscalar_ptr_iterator_tag@0@PAUIMPERIALPET_DATA@@0@Z ENDP ; std::_Ptr_cat<IMPERIALPET_DATA,IMPERIALPET_DATA>
_TEXT	ENDS
PUBLIC	??$_Ptr_cat@UEXPCHAR_DATA@@U1@@std@@YA?AU_Nonscalar_ptr_iterator_tag@0@PAUEXPCHAR_DATA@@0@Z ; std::_Ptr_cat<EXPCHAR_DATA,EXPCHAR_DATA>
; Function compile flags: /Ogtp
;	COMDAT ??$_Ptr_cat@UEXPCHAR_DATA@@U1@@std@@YA?AU_Nonscalar_ptr_iterator_tag@0@PAUEXPCHAR_DATA@@0@Z
_TEXT	SEGMENT
__Cat$ = -1						; size = 1
___formal$ = 8						; size = 4
___formal$ = 12						; size = 4
??$_Ptr_cat@UEXPCHAR_DATA@@U1@@std@@YA?AU_Nonscalar_ptr_iterator_tag@0@PAUEXPCHAR_DATA@@0@Z PROC ; std::_Ptr_cat<EXPCHAR_DATA,EXPCHAR_DATA>, COMDAT

; 516  : 	{	// return pointer category from pointers

  00000	55		 push	 ebp
  00001	8b ec		 mov	 ebp, esp
  00003	51		 push	 ecx

; 517  : 	typename _Ptr_cat_helper<_Elem1, _Elem2>::_Type _Cat;
; 518  : 	return (_Cat);

  00004	8a 45 ff	 mov	 al, BYTE PTR __Cat$[ebp]

; 519  : 	}

  00007	8b e5		 mov	 esp, ebp
  00009	5d		 pop	 ebp
  0000a	c3		 ret	 0
??$_Ptr_cat@UEXPCHAR_DATA@@U1@@std@@YA?AU_Nonscalar_ptr_iterator_tag@0@PAUEXPCHAR_DATA@@0@Z ENDP ; std::_Ptr_cat<EXPCHAR_DATA,EXPCHAR_DATA>
_TEXT	ENDS
PUBLIC	??$_Construct@UIMPERIALPET_DATA@@ABU1@@std@@YAXPAUIMPERIALPET_DATA@@ABU1@@Z ; std::_Construct<IMPERIALPET_DATA,IMPERIALPET_DATA const &>
; Function compile flags: /Ogtp
; File d:\program files (x86)\microsoft visual studio 10.0\vc\include\xmemory
;	COMDAT ??$_Construct@UIMPERIALPET_DATA@@ABU1@@std@@YAXPAUIMPERIALPET_DATA@@ABU1@@Z
_TEXT	SEGMENT
__Ptr$ = 8						; size = 4
__Val$ = 12						; size = 4
??$_Construct@UIMPERIALPET_DATA@@ABU1@@std@@YAXPAUIMPERIALPET_DATA@@ABU1@@Z PROC ; std::_Construct<IMPERIALPET_DATA,IMPERIALPET_DATA const &>, COMDAT

; 46   : 	{	// construct object at _Ptr with value _Val

  00000	55		 push	 ebp
  00001	8b ec		 mov	 ebp, esp

; 47   : 	void _FARQ *_Vptr = _Ptr;
; 48   : 	::new (_Vptr) _Ty1(_STD forward<_Ty2>(_Val));

  00003	8b 45 08	 mov	 eax, DWORD PTR __Ptr$[ebp]
  00006	85 c0		 test	 eax, eax
  00008	74 1b		 je	 SHORT $LN3@Construct
  0000a	8b 4d 0c	 mov	 ecx, DWORD PTR __Val$[ebp]
  0000d	8b 11		 mov	 edx, DWORD PTR [ecx]
  0000f	89 10		 mov	 DWORD PTR [eax], edx
  00011	8b 51 04	 mov	 edx, DWORD PTR [ecx+4]
  00014	89 50 04	 mov	 DWORD PTR [eax+4], edx
  00017	8b 51 08	 mov	 edx, DWORD PTR [ecx+8]
  0001a	89 50 08	 mov	 DWORD PTR [eax+8], edx
  0001d	66 8b 49 0c	 mov	 cx, WORD PTR [ecx+12]
  00021	66 89 48 0c	 mov	 WORD PTR [eax+12], cx
$LN3@Construct:

; 49   : 	}

  00025	5d		 pop	 ebp
  00026	c3		 ret	 0
??$_Construct@UIMPERIALPET_DATA@@ABU1@@std@@YAXPAUIMPERIALPET_DATA@@ABU1@@Z ENDP ; std::_Construct<IMPERIALPET_DATA,IMPERIALPET_DATA const &>
_TEXT	ENDS
PUBLIC	??$_Construct@UEXPCHAR_DATA@@ABU1@@std@@YAXPAUEXPCHAR_DATA@@ABU1@@Z ; std::_Construct<EXPCHAR_DATA,EXPCHAR_DATA const &>
; Function compile flags: /Ogtp
;	COMDAT ??$_Construct@UEXPCHAR_DATA@@ABU1@@std@@YAXPAUEXPCHAR_DATA@@ABU1@@Z
_TEXT	SEGMENT
__Ptr$ = 8						; size = 4
__Val$ = 12						; size = 4
??$_Construct@UEXPCHAR_DATA@@ABU1@@std@@YAXPAUEXPCHAR_DATA@@ABU1@@Z PROC ; std::_Construct<EXPCHAR_DATA,EXPCHAR_DATA const &>, COMDAT

; 46   : 	{	// construct object at _Ptr with value _Val

  00000	55		 push	 ebp
  00001	8b ec		 mov	 ebp, esp

; 47   : 	void _FARQ *_Vptr = _Ptr;
; 48   : 	::new (_Vptr) _Ty1(_STD forward<_Ty2>(_Val));

  00003	8b 45 08	 mov	 eax, DWORD PTR __Ptr$[ebp]
  00006	85 c0		 test	 eax, eax
  00008	74 1b		 je	 SHORT $LN3@Construct@2
  0000a	8b 4d 0c	 mov	 ecx, DWORD PTR __Val$[ebp]
  0000d	8b 11		 mov	 edx, DWORD PTR [ecx]
  0000f	89 10		 mov	 DWORD PTR [eax], edx
  00011	8b 51 04	 mov	 edx, DWORD PTR [ecx+4]
  00014	89 50 04	 mov	 DWORD PTR [eax+4], edx
  00017	8b 51 08	 mov	 edx, DWORD PTR [ecx+8]
  0001a	89 50 08	 mov	 DWORD PTR [eax+8], edx
  0001d	66 8b 49 0c	 mov	 cx, WORD PTR [ecx+12]
  00021	66 89 48 0c	 mov	 WORD PTR [eax+12], cx
$LN3@Construct@2:

; 49   : 	}

  00025	5d		 pop	 ebp
  00026	c3		 ret	 0
??$_Construct@UEXPCHAR_DATA@@ABU1@@std@@YAXPAUEXPCHAR_DATA@@ABU1@@Z ENDP ; std::_Construct<EXPCHAR_DATA,EXPCHAR_DATA const &>
_TEXT	ENDS
PUBLIC	??$move@AAUIMPERIALPET_DATA@@@std@@YA$$QAUIMPERIALPET_DATA@@AAU1@@Z ; std::move<IMPERIALPET_DATA &>
; Function compile flags: /Ogtp
; File d:\program files (x86)\microsoft visual studio 10.0\vc\include\utility
;	COMDAT ??$move@AAUIMPERIALPET_DATA@@@std@@YA$$QAUIMPERIALPET_DATA@@AAU1@@Z
_TEXT	SEGMENT
__Arg$ = 8						; size = 4
??$move@AAUIMPERIALPET_DATA@@@std@@YA$$QAUIMPERIALPET_DATA@@AAU1@@Z PROC ; std::move<IMPERIALPET_DATA &>, COMDAT

; 86   : 	{	// forward _Arg as movable

  00000	55		 push	 ebp
  00001	8b ec		 mov	 ebp, esp

; 87   : 	return ((typename tr1::_Remove_reference<_Ty>::_Type&&)_Arg);

  00003	8b 45 08	 mov	 eax, DWORD PTR __Arg$[ebp]

; 88   : 	}

  00006	5d		 pop	 ebp
  00007	c3		 ret	 0
??$move@AAUIMPERIALPET_DATA@@@std@@YA$$QAUIMPERIALPET_DATA@@AAU1@@Z ENDP ; std::move<IMPERIALPET_DATA &>
_TEXT	ENDS
PUBLIC	??$move@AAUEXPCHAR_DATA@@@std@@YA$$QAUEXPCHAR_DATA@@AAU1@@Z ; std::move<EXPCHAR_DATA &>
; Function compile flags: /Ogtp
;	COMDAT ??$move@AAUEXPCHAR_DATA@@@std@@YA$$QAUEXPCHAR_DATA@@AAU1@@Z
_TEXT	SEGMENT
__Arg$ = 8						; size = 4
??$move@AAUEXPCHAR_DATA@@@std@@YA$$QAUEXPCHAR_DATA@@AAU1@@Z PROC ; std::move<EXPCHAR_DATA &>, COMDAT

; 86   : 	{	// forward _Arg as movable

  00000	55		 push	 ebp
  00001	8b ec		 mov	 ebp, esp

; 87   : 	return ((typename tr1::_Remove_reference<_Ty>::_Type&&)_Arg);

  00003	8b 45 08	 mov	 eax, DWORD PTR __Arg$[ebp]

; 88   : 	}

  00006	5d		 pop	 ebp
  00007	c3		 ret	 0
??$move@AAUEXPCHAR_DATA@@@std@@YA$$QAUEXPCHAR_DATA@@AAU1@@Z ENDP ; std::move<EXPCHAR_DATA &>
_TEXT	ENDS
PUBLIC	??$_Val_type@PAUIMPERIALPET_DATA@@@std@@YAPAUIMPERIALPET_DATA@@PAU1@@Z ; std::_Val_type<IMPERIALPET_DATA *>
; Function compile flags: /Ogtp
; File d:\program files (x86)\microsoft visual studio 10.0\vc\include\xutility
;	COMDAT ??$_Val_type@PAUIMPERIALPET_DATA@@@std@@YAPAUIMPERIALPET_DATA@@PAU1@@Z
_TEXT	SEGMENT
___formal$ = 8						; size = 4
??$_Val_type@PAUIMPERIALPET_DATA@@@std@@YAPAUIMPERIALPET_DATA@@PAU1@@Z PROC ; std::_Val_type<IMPERIALPET_DATA *>, COMDAT

; 790  : 	return (0);

  00000	33 c0		 xor	 eax, eax

; 791  : 	}

  00002	c3		 ret	 0
??$_Val_type@PAUIMPERIALPET_DATA@@@std@@YAPAUIMPERIALPET_DATA@@PAU1@@Z ENDP ; std::_Val_type<IMPERIALPET_DATA *>
_TEXT	ENDS
PUBLIC	??$_Val_type@PAUEXPCHAR_DATA@@@std@@YAPAUEXPCHAR_DATA@@PAU1@@Z ; std::_Val_type<EXPCHAR_DATA *>
; Function compile flags: /Ogtp
;	COMDAT ??$_Val_type@PAUEXPCHAR_DATA@@@std@@YAPAUEXPCHAR_DATA@@PAU1@@Z
_TEXT	SEGMENT
___formal$ = 8						; size = 4
??$_Val_type@PAUEXPCHAR_DATA@@@std@@YAPAUEXPCHAR_DATA@@PAU1@@Z PROC ; std::_Val_type<EXPCHAR_DATA *>, COMDAT

; 790  : 	return (0);

  00000	33 c0		 xor	 eax, eax

; 791  : 	}

  00002	c3		 ret	 0
??$_Val_type@PAUEXPCHAR_DATA@@@std@@YAPAUEXPCHAR_DATA@@PAU1@@Z ENDP ; std::_Val_type<EXPCHAR_DATA *>
_TEXT	ENDS
PUBLIC	??$_Destroy@UIMPERIALPET_DATA@@@std@@YAXPAUIMPERIALPET_DATA@@@Z ; std::_Destroy<IMPERIALPET_DATA>
; Function compile flags: /Ogtp
; File d:\program files (x86)\microsoft visual studio 10.0\vc\include\xmemory
;	COMDAT ??$_Destroy@UIMPERIALPET_DATA@@@std@@YAXPAUIMPERIALPET_DATA@@@Z
_TEXT	SEGMENT
__Ptr$ = 8						; size = 4
??$_Destroy@UIMPERIALPET_DATA@@@std@@YAXPAUIMPERIALPET_DATA@@@Z PROC ; std::_Destroy<IMPERIALPET_DATA>, COMDAT

; 63   : 	_Ptr->~_Ty();
; 64   : 	}

  00000	c3		 ret	 0
??$_Destroy@UIMPERIALPET_DATA@@@std@@YAXPAUIMPERIALPET_DATA@@@Z ENDP ; std::_Destroy<IMPERIALPET_DATA>
_TEXT	ENDS
PUBLIC	??$_Destroy@UEXPCHAR_DATA@@@std@@YAXPAUEXPCHAR_DATA@@@Z ; std::_Destroy<EXPCHAR_DATA>
; Function compile flags: /Ogtp
;	COMDAT ??$_Destroy@UEXPCHAR_DATA@@@std@@YAXPAUEXPCHAR_DATA@@@Z
_TEXT	SEGMENT
__Ptr$ = 8						; size = 4
??$_Destroy@UEXPCHAR_DATA@@@std@@YAXPAUEXPCHAR_DATA@@@Z PROC ; std::_Destroy<EXPCHAR_DATA>, COMDAT

; 63   : 	_Ptr->~_Ty();
; 64   : 	}

  00000	c3		 ret	 0
??$_Destroy@UEXPCHAR_DATA@@@std@@YAXPAUEXPCHAR_DATA@@@Z ENDP ; std::_Destroy<EXPCHAR_DATA>
_TEXT	ENDS
PUBLIC	??$forward@UIMPERIALPET_DATA@@@std@@YA$$QAUIMPERIALPET_DATA@@AAU1@@Z ; std::forward<IMPERIALPET_DATA>
; Function compile flags: /Ogtp
; File d:\program files (x86)\microsoft visual studio 10.0\vc\include\utility
;	COMDAT ??$forward@UIMPERIALPET_DATA@@@std@@YA$$QAUIMPERIALPET_DATA@@AAU1@@Z
_TEXT	SEGMENT
__Arg$ = 8						; size = 4
??$forward@UIMPERIALPET_DATA@@@std@@YA$$QAUIMPERIALPET_DATA@@AAU1@@Z PROC ; std::forward<IMPERIALPET_DATA>, COMDAT

; 78   : 	{	// forward _Arg, given explicitly specified type parameter

  00000	55		 push	 ebp
  00001	8b ec		 mov	 ebp, esp

; 79   : 	return ((_Ty&&)_Arg);

  00003	8b 45 08	 mov	 eax, DWORD PTR __Arg$[ebp]

; 80   : 	}

  00006	5d		 pop	 ebp
  00007	c3		 ret	 0
??$forward@UIMPERIALPET_DATA@@@std@@YA$$QAUIMPERIALPET_DATA@@AAU1@@Z ENDP ; std::forward<IMPERIALPET_DATA>
_TEXT	ENDS
PUBLIC	??$forward@UEXPCHAR_DATA@@@std@@YA$$QAUEXPCHAR_DATA@@AAU1@@Z ; std::forward<EXPCHAR_DATA>
; Function compile flags: /Ogtp
;	COMDAT ??$forward@UEXPCHAR_DATA@@@std@@YA$$QAUEXPCHAR_DATA@@AAU1@@Z
_TEXT	SEGMENT
__Arg$ = 8						; size = 4
??$forward@UEXPCHAR_DATA@@@std@@YA$$QAUEXPCHAR_DATA@@AAU1@@Z PROC ; std::forward<EXPCHAR_DATA>, COMDAT

; 78   : 	{	// forward _Arg, given explicitly specified type parameter

  00000	55		 push	 ebp
  00001	8b ec		 mov	 ebp, esp

; 79   : 	return ((_Ty&&)_Arg);

  00003	8b 45 08	 mov	 eax, DWORD PTR __Arg$[ebp]

; 80   : 	}

  00006	5d		 pop	 ebp
  00007	c3		 ret	 0
??$forward@UEXPCHAR_DATA@@@std@@YA$$QAUEXPCHAR_DATA@@AAU1@@Z ENDP ; std::forward<EXPCHAR_DATA>
_TEXT	ENDS
PUBLIC	??_7bad_alloc@std@@6B@				; std::bad_alloc::`vftable'
PUBLIC	??0bad_alloc@std@@QAE@PBD@Z			; std::bad_alloc::bad_alloc
PUBLIC	??_R4bad_alloc@std@@6B@				; std::bad_alloc::`RTTI Complete Object Locator'
PUBLIC	??_R0?AVbad_alloc@std@@@8			; std::bad_alloc `RTTI Type Descriptor'
PUBLIC	??_R3bad_alloc@std@@8				; std::bad_alloc::`RTTI Class Hierarchy Descriptor'
PUBLIC	??_R2bad_alloc@std@@8				; std::bad_alloc::`RTTI Base Class Array'
PUBLIC	??_R1A@?0A@EA@bad_alloc@std@@8			; std::bad_alloc::`RTTI Base Class Descriptor at (0,-1,0,64)'
PUBLIC	??_R1A@?0A@EA@exception@std@@8			; std::exception::`RTTI Base Class Descriptor at (0,-1,0,64)'
PUBLIC	??_R0?AVexception@std@@@8			; std::exception `RTTI Type Descriptor'
PUBLIC	??_R3exception@std@@8				; std::exception::`RTTI Class Hierarchy Descriptor'
PUBLIC	??_R2exception@std@@8				; std::exception::`RTTI Base Class Array'
EXTRN	??0exception@std@@QAE@ABQBD@Z:PROC		; std::exception::exception
EXTRN	??_7type_info@@6B@:QWORD			; type_info::`vftable'
EXTRN	??_Ebad_alloc@std@@UAEPAXI@Z:PROC		; std::bad_alloc::`vector deleting destructor'
EXTRN	?what@exception@std@@UBEPBDXZ:PROC		; std::exception::what
;	COMDAT ??_R2exception@std@@8
; File d:\program files (x86)\microsoft visual studio 10.0\vc\include\exception
rdata$r	SEGMENT
??_R2exception@std@@8 DD FLAT:??_R1A@?0A@EA@exception@std@@8 ; std::exception::`RTTI Base Class Array'
rdata$r	ENDS
;	COMDAT ??_R3exception@std@@8
rdata$r	SEGMENT
??_R3exception@std@@8 DD 00H				; std::exception::`RTTI Class Hierarchy Descriptor'
	DD	00H
	DD	01H
	DD	FLAT:??_R2exception@std@@8
rdata$r	ENDS
;	COMDAT ??_R0?AVexception@std@@@8
_DATA	SEGMENT
??_R0?AVexception@std@@@8 DD FLAT:??_7type_info@@6B@	; std::exception `RTTI Type Descriptor'
	DD	00H
	DB	'.?AVexception@std@@', 00H
_DATA	ENDS
;	COMDAT ??_R1A@?0A@EA@exception@std@@8
rdata$r	SEGMENT
??_R1A@?0A@EA@exception@std@@8 DD FLAT:??_R0?AVexception@std@@@8 ; std::exception::`RTTI Base Class Descriptor at (0,-1,0,64)'
	DD	00H
	DD	00H
	DD	0ffffffffH
	DD	00H
	DD	040H
	DD	FLAT:??_R3exception@std@@8
rdata$r	ENDS
;	COMDAT ??_R1A@?0A@EA@bad_alloc@std@@8
rdata$r	SEGMENT
??_R1A@?0A@EA@bad_alloc@std@@8 DD FLAT:??_R0?AVbad_alloc@std@@@8 ; std::bad_alloc::`RTTI Base Class Descriptor at (0,-1,0,64)'
	DD	01H
	DD	00H
	DD	0ffffffffH
	DD	00H
	DD	040H
	DD	FLAT:??_R3bad_alloc@std@@8
rdata$r	ENDS
;	COMDAT ??_R2bad_alloc@std@@8
rdata$r	SEGMENT
??_R2bad_alloc@std@@8 DD FLAT:??_R1A@?0A@EA@bad_alloc@std@@8 ; std::bad_alloc::`RTTI Base Class Array'
	DD	FLAT:??_R1A@?0A@EA@exception@std@@8
rdata$r	ENDS
;	COMDAT ??_R3bad_alloc@std@@8
rdata$r	SEGMENT
??_R3bad_alloc@std@@8 DD 00H				; std::bad_alloc::`RTTI Class Hierarchy Descriptor'
	DD	00H
	DD	02H
	DD	FLAT:??_R2bad_alloc@std@@8
rdata$r	ENDS
;	COMDAT ??_R0?AVbad_alloc@std@@@8
_DATA	SEGMENT
??_R0?AVbad_alloc@std@@@8 DD FLAT:??_7type_info@@6B@	; std::bad_alloc `RTTI Type Descriptor'
	DD	00H
	DB	'.?AVbad_alloc@std@@', 00H
_DATA	ENDS
;	COMDAT ??_R4bad_alloc@std@@6B@
rdata$r	SEGMENT
??_R4bad_alloc@std@@6B@ DD 00H				; std::bad_alloc::`RTTI Complete Object Locator'
	DD	00H
	DD	00H
	DD	FLAT:??_R0?AVbad_alloc@std@@@8
	DD	FLAT:??_R3bad_alloc@std@@8
rdata$r	ENDS
;	COMDAT ??_7bad_alloc@std@@6B@
CONST	SEGMENT
??_7bad_alloc@std@@6B@ DD FLAT:??_R4bad_alloc@std@@6B@	; std::bad_alloc::`vftable'
	DD	FLAT:??_Ebad_alloc@std@@UAEPAXI@Z
	DD	FLAT:?what@exception@std@@UBEPBDXZ
; Function compile flags: /Ogtp
CONST	ENDS
;	COMDAT ??0bad_alloc@std@@QAE@PBD@Z
_TEXT	SEGMENT
__Message$ = 8						; size = 4
??0bad_alloc@std@@QAE@PBD@Z PROC			; std::bad_alloc::bad_alloc, COMDAT
; _this$ = ecx

; 345  : 		{	// construct from message string

  00000	55		 push	 ebp
  00001	8b ec		 mov	 ebp, esp
  00003	56		 push	 esi
  00004	8d 45 08	 lea	 eax, DWORD PTR __Message$[ebp]
  00007	50		 push	 eax
  00008	8b f1		 mov	 esi, ecx
  0000a	e8 00 00 00 00	 call	 ??0exception@std@@QAE@ABQBD@Z ; std::exception::exception
  0000f	c7 06 00 00 00
	00		 mov	 DWORD PTR [esi], OFFSET ??_7bad_alloc@std@@6B@

; 346  : 		}

  00015	8b c6		 mov	 eax, esi
  00017	5e		 pop	 esi
  00018	5d		 pop	 ebp
  00019	c2 04 00	 ret	 4
??0bad_alloc@std@@QAE@PBD@Z ENDP			; std::bad_alloc::bad_alloc
_TEXT	ENDS
PUBLIC	??1bad_alloc@std@@UAE@XZ			; std::bad_alloc::~bad_alloc
EXTRN	??1exception@std@@UAE@XZ:PROC			; std::exception::~exception
; Function compile flags: /Ogtp
;	COMDAT ??1bad_alloc@std@@UAE@XZ
_TEXT	SEGMENT
??1bad_alloc@std@@UAE@XZ PROC				; std::bad_alloc::~bad_alloc, COMDAT
; _this$ = ecx

; 354  : 		{	// destroy the object

  00000	c7 01 00 00 00
	00		 mov	 DWORD PTR [ecx], OFFSET ??_7bad_alloc@std@@6B@

; 355  : 		}

  00006	e9 00 00 00 00	 jmp	 ??1exception@std@@UAE@XZ ; std::exception::~exception
??1bad_alloc@std@@UAE@XZ ENDP				; std::bad_alloc::~bad_alloc
; Function compile flags: /Ogtp
_TEXT	ENDS
;	COMDAT ??_Gbad_alloc@std@@UAEPAXI@Z
_TEXT	SEGMENT
___flags$ = 8						; size = 4
??_Gbad_alloc@std@@UAEPAXI@Z PROC			; std::bad_alloc::`scalar deleting destructor', COMDAT
; _this$ = ecx
  00000	55		 push	 ebp
  00001	8b ec		 mov	 ebp, esp
  00003	56		 push	 esi
  00004	8b f1		 mov	 esi, ecx
  00006	c7 06 00 00 00
	00		 mov	 DWORD PTR [esi], OFFSET ??_7bad_alloc@std@@6B@
  0000c	e8 00 00 00 00	 call	 ??1exception@std@@UAE@XZ ; std::exception::~exception
  00011	f6 45 08 01	 test	 BYTE PTR ___flags$[ebp], 1
  00015	74 09		 je	 SHORT $LN6@scalar
  00017	56		 push	 esi
  00018	e8 00 00 00 00	 call	 ??3@YAXPAX@Z		; operator delete
  0001d	83 c4 04	 add	 esp, 4
$LN6@scalar:
  00020	8b c6		 mov	 eax, esi
  00022	5e		 pop	 esi
  00023	5d		 pop	 ebp
  00024	c2 04 00	 ret	 4
??_Gbad_alloc@std@@UAEPAXI@Z ENDP			; std::bad_alloc::`scalar deleting destructor'
_TEXT	ENDS
PUBLIC	?_Orphan_all@_Container_base0@std@@QAEXXZ	; std::_Container_base0::_Orphan_all
; Function compile flags: /Ogtp
; File d:\program files (x86)\microsoft visual studio 10.0\vc\include\xutility
;	COMDAT ?_Orphan_all@_Container_base0@std@@QAEXXZ
_TEXT	SEGMENT
?_Orphan_all@_Container_base0@std@@QAEXXZ PROC		; std::_Container_base0::_Orphan_all, COMDAT
; _this$ = ecx

; 38   : 		}

  00000	c3		 ret	 0
?_Orphan_all@_Container_base0@std@@QAEXXZ ENDP		; std::_Container_base0::_Orphan_all
_TEXT	ENDS
PUBLIC	?_Adopt@_Iterator_base0@std@@QAEXPBX@Z		; std::_Iterator_base0::_Adopt
; Function compile flags: /Ogtp
;	COMDAT ?_Adopt@_Iterator_base0@std@@QAEXPBX@Z
_TEXT	SEGMENT
___formal$ = 8						; size = 4
?_Adopt@_Iterator_base0@std@@QAEXPBX@Z PROC		; std::_Iterator_base0::_Adopt, COMDAT
; _this$ = ecx

; 49   : 		}

  00000	c2 04 00	 ret	 4
?_Adopt@_Iterator_base0@std@@QAEXPBX@Z ENDP		; std::_Iterator_base0::_Adopt
_TEXT	ENDS
PUBLIC	?CheckItem@CDonateManager@@QAE_NH@Z		; CDonateManager::CheckItem
EXTRN	?gObj@@3PAUOBJECTSTRUCT@@A:DWORD		; gObj
EXTRN	?CheckUser@CZtLicense@@QAE_NH@Z:PROC		; CZtLicense::CheckUser
EXTRN	?g_ZtLicense@@3VCZtLicense@@A:BYTE		; g_ZtLicense
; Function compile flags: /Ogtp
; File e:\work\tranet_version\gs\gameserver\donatemanager.cpp
;	COMDAT ?CheckItem@CDonateManager@@QAE_NH@Z
_TEXT	SEGMENT
_lpUser$210001 = -4					; size = 4
_aIndex$ = 8						; size = 4
tv244 = 11						; size = 1
?CheckItem@CDonateManager@@QAE_NH@Z PROC		; CDonateManager::CheckItem, COMDAT
; _this$ = ecx

; 113  : {

  00000	55		 push	 ebp
  00001	8b ec		 mov	 ebp, esp
  00003	51		 push	 ecx
  00004	53		 push	 ebx
  00005	56		 push	 esi
  00006	57		 push	 edi
  00007	8b f9		 mov	 edi, ecx

; 114  : 	if(g_ZtLicense.CheckUser(eZtUB::MU2Play) || g_ZtLicense.CheckUser(eZtUB::Escalate) || g_ZtLicense.CheckUser(eZtUB::eternalmu))

  00009	6a 36		 push	 54			; 00000036H
  0000b	b9 00 00 00 00	 mov	 ecx, OFFSET ?g_ZtLicense@@3VCZtLicense@@A ; g_ZtLicense
  00010	e8 00 00 00 00	 call	 ?CheckUser@CZtLicense@@QAE_NH@Z ; CZtLicense::CheckUser
  00015	84 c0		 test	 al, al
  00017	75 24		 jne	 SHORT $LN8@CheckItem
  00019	6a 40		 push	 64			; 00000040H
  0001b	b9 00 00 00 00	 mov	 ecx, OFFSET ?g_ZtLicense@@3VCZtLicense@@A ; g_ZtLicense
  00020	e8 00 00 00 00	 call	 ?CheckUser@CZtLicense@@QAE_NH@Z ; CZtLicense::CheckUser
  00025	84 c0		 test	 al, al
  00027	75 14		 jne	 SHORT $LN8@CheckItem
  00029	6a 4f		 push	 79			; 0000004fH
  0002b	b9 00 00 00 00	 mov	 ecx, OFFSET ?g_ZtLicense@@3VCZtLicense@@A ; g_ZtLicense
  00030	e8 00 00 00 00	 call	 ?CheckUser@CZtLicense@@QAE_NH@Z ; CZtLicense::CheckUser
  00035	84 c0		 test	 al, al
  00037	0f 84 b2 00 00
	00		 je	 $LN4@CheckItem
$LN8@CheckItem:

; 115  : 	{
; 116  : 		if(!OBJMAX_RANGE(aIndex))

  0003d	8b 45 08	 mov	 eax, DWORD PTR _aIndex$[ebp]
  00040	85 c0		 test	 eax, eax
  00042	78 0e		 js	 SHORT $LN25@CheckItem
  00044	33 c9		 xor	 ecx, ecx
  00046	3d 97 3a 00 00	 cmp	 eax, 14999		; 00003a97H
  0004b	0f 9e c1	 setle	 cl
  0004e	85 c9		 test	 ecx, ecx
  00050	75 0b		 jne	 SHORT $LN7@CheckItem
$LN25@CheckItem:
  00052	5f		 pop	 edi
  00053	5e		 pop	 esi

; 117  : 		{
; 118  : 			return true;

  00054	b0 01		 mov	 al, 1
  00056	5b		 pop	 ebx

; 139  : }

  00057	8b e5		 mov	 esp, ebp
  00059	5d		 pop	 ebp
  0005a	c2 04 00	 ret	 4
$LN7@CheckItem:

; 119  : 		}
; 120  : 
; 121  : 		LPOBJ lpUser = &gObj[aIndex];
; 122  : 
; 123  : 		for(int i = 0; i < this->m_PetData.size(); i++)

  0005d	8b 37		 mov	 esi, DWORD PTR [edi]
  0005f	69 c0 50 2b 00
	00		 imul	 eax, 11088		; 00002b50H
  00065	03 05 00 00 00
	00		 add	 eax, DWORD PTR ?gObj@@3PAUOBJECTSTRUCT@@A ; gObj
  0006b	8b 4f 04	 mov	 ecx, DWORD PTR [edi+4]
  0006e	89 45 fc	 mov	 DWORD PTR _lpUser$210001[ebp], eax
  00071	2b ce		 sub	 ecx, esi
  00073	b8 93 24 49 92	 mov	 eax, -1840700269	; 92492493H
  00078	f7 e9		 imul	 ecx
  0007a	03 d1		 add	 edx, ecx
  0007c	c1 fa 03	 sar	 edx, 3
  0007f	8b fa		 mov	 edi, edx
  00081	c1 ef 1f	 shr	 edi, 31			; 0000001fH
  00084	33 db		 xor	 ebx, ebx
  00086	03 fa		 add	 edi, edx
  00088	74 65		 je	 SHORT $LN4@CheckItem

; 126  : 			{
; 127  : 				if(!strcmp(lpUser->Name, this->m_PetData[i].Name))

  0008a	8b 45 fc	 mov	 eax, DWORD PTR _lpUser$210001[ebp]
  0008d	83 c0 77	 add	 eax, 119		; 00000077H
  00090	8a 00		 mov	 al, BYTE PTR [eax]
  00092	88 45 0b	 mov	 BYTE PTR tv244[ebp], al
$LL31@CheckItem:

; 124  : 		{
; 125  : 			if(lpUser->Name[0] == this->m_PetData[i].Name[0])

  00095	8a 4d 0b	 mov	 cl, BYTE PTR tv244[ebp]
  00098	3a 0e		 cmp	 cl, BYTE PTR [esi]
  0009a	75 4b		 jne	 SHORT $LN5@CheckItem

; 126  : 			{
; 127  : 				if(!strcmp(lpUser->Name, this->m_PetData[i].Name))

  0009c	8b 45 fc	 mov	 eax, DWORD PTR _lpUser$210001[ebp]
  0009f	8b ce		 mov	 ecx, esi
  000a1	83 c0 77	 add	 eax, 119		; 00000077H
$LL26@CheckItem:
  000a4	8a 10		 mov	 dl, BYTE PTR [eax]
  000a6	3a 11		 cmp	 dl, BYTE PTR [ecx]
  000a8	75 1a		 jne	 SHORT $LN27@CheckItem
  000aa	84 d2		 test	 dl, dl
  000ac	74 12		 je	 SHORT $LN28@CheckItem
  000ae	8a 50 01	 mov	 dl, BYTE PTR [eax+1]
  000b1	3a 51 01	 cmp	 dl, BYTE PTR [ecx+1]
  000b4	75 0e		 jne	 SHORT $LN27@CheckItem
  000b6	83 c0 02	 add	 eax, 2
  000b9	83 c1 02	 add	 ecx, 2
  000bc	84 d2		 test	 dl, dl
  000be	75 e4		 jne	 SHORT $LL26@CheckItem
$LN28@CheckItem:
  000c0	33 c0		 xor	 eax, eax
  000c2	eb 05		 jmp	 SHORT $LN29@CheckItem
$LN27@CheckItem:
  000c4	1b c0		 sbb	 eax, eax
  000c6	83 d8 ff	 sbb	 eax, -1
$LN29@CheckItem:
  000c9	85 c0		 test	 eax, eax
  000cb	75 1a		 jne	 SHORT $LN5@CheckItem

; 128  : 				{
; 129  : 					if(this->m_PetData[i].Pet == lpUser->pInventory[8].m_Type)

  000cd	8b 55 fc	 mov	 edx, DWORD PTR _lpUser$210001[ebp]
  000d0	8b 82 24 0e 00
	00		 mov	 eax, DWORD PTR [edx+3620]
  000d6	66 8b 4e 0c	 mov	 cx, WORD PTR [esi+12]
  000da	66 3b 88 a6 06
	00 00		 cmp	 cx, WORD PTR [eax+1702]
  000e1	0f 84 6b ff ff
	ff		 je	 $LN25@CheckItem
$LN5@CheckItem:

; 119  : 		}
; 120  : 
; 121  : 		LPOBJ lpUser = &gObj[aIndex];
; 122  : 
; 123  : 		for(int i = 0; i < this->m_PetData.size(); i++)

  000e7	43		 inc	 ebx
  000e8	83 c6 0e	 add	 esi, 14			; 0000000eH
  000eb	3b df		 cmp	 ebx, edi
  000ed	72 a6		 jb	 SHORT $LL31@CheckItem
$LN4@CheckItem:
  000ef	5f		 pop	 edi
  000f0	5e		 pop	 esi

; 130  : 					{
; 131  : 						return true;
; 132  : 					}
; 133  : 				}	
; 134  : 			}
; 135  : 		}
; 136  : 	}
; 137  : 
; 138  : 	return false;

  000f1	32 c0		 xor	 al, al
  000f3	5b		 pop	 ebx

; 139  : }

  000f4	8b e5		 mov	 esp, ebp
  000f6	5d		 pop	 ebp
  000f7	c2 04 00	 ret	 4
?CheckItem@CDonateManager@@QAE_NH@Z ENDP		; CDonateManager::CheckItem
_TEXT	ENDS
PUBLIC	?CheckExp@CDonateManager@@QAEXHAA_J@Z		; CDonateManager::CheckExp
EXTRN	__alldiv:PROC
EXTRN	__allmul:PROC
; Function compile flags: /Ogtp
;	COMDAT ?CheckExp@CDonateManager@@QAEXHAA_J@Z
_TEXT	SEGMENT
tv243 = -8						; size = 4
_i$210018 = -4						; size = 4
_aIndex$ = 8						; size = 4
tv247 = 11						; size = 1
_exp$ = 12						; size = 4
?CheckExp@CDonateManager@@QAEXHAA_J@Z PROC		; CDonateManager::CheckExp, COMDAT
; _this$ = ecx

; 142  : {

  00000	55		 push	 ebp
  00001	8b ec		 mov	 ebp, esp
  00003	83 ec 08	 sub	 esp, 8
  00006	56		 push	 esi
  00007	8b f1		 mov	 esi, ecx

; 143  : 	if(g_ZtLicense.CheckUser(eZtUB::MU2Play)|| g_ZtLicense.CheckUser(eZtUB::Escalate) || g_ZtLicense.CheckUser(eZtUB::eternalmu))

  00009	6a 36		 push	 54			; 00000036H
  0000b	b9 00 00 00 00	 mov	 ecx, OFFSET ?g_ZtLicense@@3VCZtLicense@@A ; g_ZtLicense
  00010	e8 00 00 00 00	 call	 ?CheckUser@CZtLicense@@QAE_NH@Z ; CZtLicense::CheckUser
  00015	84 c0		 test	 al, al
  00017	75 24		 jne	 SHORT $LN7@CheckExp
  00019	6a 40		 push	 64			; 00000040H
  0001b	b9 00 00 00 00	 mov	 ecx, OFFSET ?g_ZtLicense@@3VCZtLicense@@A ; g_ZtLicense
  00020	e8 00 00 00 00	 call	 ?CheckUser@CZtLicense@@QAE_NH@Z ; CZtLicense::CheckUser
  00025	84 c0		 test	 al, al
  00027	75 14		 jne	 SHORT $LN7@CheckExp
  00029	6a 4f		 push	 79			; 0000004fH
  0002b	b9 00 00 00 00	 mov	 ecx, OFFSET ?g_ZtLicense@@3VCZtLicense@@A ; g_ZtLicense
  00030	e8 00 00 00 00	 call	 ?CheckUser@CZtLicense@@QAE_NH@Z ; CZtLicense::CheckUser
  00035	84 c0		 test	 al, al
  00037	0f 84 e1 00 00
	00		 je	 $LN3@CheckExp
$LN7@CheckExp:

; 144  : 	{
; 145  : 		if(!OBJMAX_RANGE(aIndex))

  0003d	8b 45 08	 mov	 eax, DWORD PTR _aIndex$[ebp]
  00040	85 c0		 test	 eax, eax
  00042	0f 88 d6 00 00
	00		 js	 $LN3@CheckExp
  00048	33 c9		 xor	 ecx, ecx
  0004a	3d 97 3a 00 00	 cmp	 eax, 14999		; 00003a97H
  0004f	0f 9e c1	 setle	 cl
  00052	85 c9		 test	 ecx, ecx
  00054	0f 84 c4 00 00
	00		 je	 $LN3@CheckExp

; 146  : 		{
; 147  : 			return;
; 148  : 		}
; 149  : 
; 150  : 		LPOBJ lpUser = &gObj[aIndex];
; 151  : 
; 152  : 		for(int i = 0; i < this->m_ExpData.size(); i++)

  0005a	8b 4e 14	 mov	 ecx, DWORD PTR [esi+20]
  0005d	69 c0 50 2b 00
	00		 imul	 eax, 11088		; 00002b50H
  00063	03 05 00 00 00
	00		 add	 eax, DWORD PTR ?gObj@@3PAUOBJECTSTRUCT@@A ; gObj
  00069	2b 4e 10	 sub	 ecx, DWORD PTR [esi+16]
  0006c	53		 push	 ebx
  0006d	57		 push	 edi
  0006e	8b f8		 mov	 edi, eax
  00070	b8 93 24 49 92	 mov	 eax, -1840700269	; 92492493H
  00075	f7 e9		 imul	 ecx
  00077	03 d1		 add	 edx, ecx
  00079	c1 fa 03	 sar	 edx, 3
  0007c	8b da		 mov	 ebx, edx
  0007e	c1 eb 1f	 shr	 ebx, 31			; 0000001fH
  00081	03 da		 add	 ebx, edx
  00083	c7 45 fc 00 00
	00 00		 mov	 DWORD PTR _i$210018[ebp], 0
  0008a	0f 84 8c 00 00
	00		 je	 $LN29@CheckExp
  00090	8b 76 10	 mov	 esi, DWORD PTR [esi+16]
  00093	89 75 f8	 mov	 DWORD PTR tv243[ebp], esi
$LL28@CheckExp:

; 153  : 		{
; 154  : 			if(lpUser->Name[0] == this->m_ExpData[i].Name[0])

  00096	8a 4f 77	 mov	 cl, BYTE PTR [edi+119]
  00099	3a 0e		 cmp	 cl, BYTE PTR [esi]
  0009b	75 2e		 jne	 SHORT $LN4@CheckExp

; 155  : 			{
; 156  : 				if(!strcmp(lpUser->Name, this->m_ExpData[i].Name))

  0009d	8b ce		 mov	 ecx, esi
  0009f	8d 47 77	 lea	 eax, DWORD PTR [edi+119]
$LL24@CheckExp:
  000a2	8a 10		 mov	 dl, BYTE PTR [eax]
  000a4	3a 11		 cmp	 dl, BYTE PTR [ecx]
  000a6	75 1a		 jne	 SHORT $LN25@CheckExp
  000a8	84 d2		 test	 dl, dl
  000aa	74 12		 je	 SHORT $LN26@CheckExp
  000ac	8a 50 01	 mov	 dl, BYTE PTR [eax+1]
  000af	3a 51 01	 cmp	 dl, BYTE PTR [ecx+1]
  000b2	75 0e		 jne	 SHORT $LN25@CheckExp
  000b4	83 c0 02	 add	 eax, 2
  000b7	83 c1 02	 add	 ecx, 2
  000ba	84 d2		 test	 dl, dl
  000bc	75 e4		 jne	 SHORT $LL24@CheckExp
$LN26@CheckExp:
  000be	33 c0		 xor	 eax, eax
  000c0	eb 05		 jmp	 SHORT $LN27@CheckExp
$LN25@CheckExp:
  000c2	1b c0		 sbb	 eax, eax
  000c4	83 d8 ff	 sbb	 eax, -1
$LN27@CheckExp:
  000c7	85 c0		 test	 eax, eax
  000c9	74 17		 je	 SHORT $LN22@CheckExp
$LN4@CheckExp:

; 146  : 		{
; 147  : 			return;
; 148  : 		}
; 149  : 
; 150  : 		LPOBJ lpUser = &gObj[aIndex];
; 151  : 
; 152  : 		for(int i = 0; i < this->m_ExpData.size(); i++)

  000cb	8b 45 fc	 mov	 eax, DWORD PTR _i$210018[ebp]
  000ce	40		 inc	 eax
  000cf	83 c6 0e	 add	 esi, 14			; 0000000eH
  000d2	89 45 fc	 mov	 DWORD PTR _i$210018[ebp], eax
  000d5	3b c3		 cmp	 eax, ebx
  000d7	72 bd		 jb	 SHORT $LL28@CheckExp
  000d9	5f		 pop	 edi
  000da	5b		 pop	 ebx
  000db	5e		 pop	 esi

; 159  : 					return;
; 160  : 				}	
; 161  : 			}
; 162  : 		}
; 163  : 	}
; 164  : }

  000dc	8b e5		 mov	 esp, ebp
  000de	5d		 pop	 ebp
  000df	c2 08 00	 ret	 8
$LN22@CheckExp:

; 157  : 				{
; 158  : 					exp += (exp * this->m_ExpData[i].PlusExpPercent) / 100;

  000e2	8b 45 fc	 mov	 eax, DWORD PTR _i$210018[ebp]
  000e5	8b 75 0c	 mov	 esi, DWORD PTR _exp$[ebp]
  000e8	8b 5e 04	 mov	 ebx, DWORD PTR [esi+4]
  000eb	8b 3e		 mov	 edi, DWORD PTR [esi]
  000ed	8d 14 c5 00 00
	00 00		 lea	 edx, DWORD PTR [eax*8]
  000f4	2b d0		 sub	 edx, eax
  000f6	8b 45 f8	 mov	 eax, DWORD PTR tv243[ebp]
  000f9	0f bf 44 50 0c	 movsx	 eax, WORD PTR [eax+edx*2+12]
  000fe	53		 push	 ebx
  000ff	99		 cdq
  00100	57		 push	 edi
  00101	52		 push	 edx
  00102	50		 push	 eax
  00103	e8 00 00 00 00	 call	 __allmul
  00108	6a 00		 push	 0
  0010a	6a 64		 push	 100			; 00000064H
  0010c	52		 push	 edx
  0010d	50		 push	 eax
  0010e	e8 00 00 00 00	 call	 __alldiv
  00113	03 c7		 add	 eax, edi
  00115	13 d3		 adc	 edx, ebx
  00117	89 06		 mov	 DWORD PTR [esi], eax
  00119	89 56 04	 mov	 DWORD PTR [esi+4], edx
$LN29@CheckExp:
  0011c	5f		 pop	 edi
  0011d	5b		 pop	 ebx
$LN3@CheckExp:
  0011e	5e		 pop	 esi

; 159  : 					return;
; 160  : 				}	
; 161  : 			}
; 162  : 		}
; 163  : 	}
; 164  : }

  0011f	8b e5		 mov	 esp, ebp
  00121	5d		 pop	 ebp
  00122	c2 08 00	 ret	 8
?CheckExp@CDonateManager@@QAEXHAA_J@Z ENDP		; CDonateManager::CheckExp
_TEXT	ENDS
PUBLIC	??0?$_Vector_val@UIMPERIALPET_DATA@@V?$allocator@UIMPERIALPET_DATA@@@std@@@std@@QAE@V?$allocator@UIMPERIALPET_DATA@@@1@@Z ; std::_Vector_val<IMPERIALPET_DATA,std::allocator<IMPERIALPET_DATA> >::_Vector_val<IMPERIALPET_DATA,std::allocator<IMPERIALPET_DATA> >
; Function compile flags: /Ogtp
; File d:\program files (x86)\microsoft visual studio 10.0\vc\include\vector
;	COMDAT ??0?$_Vector_val@UIMPERIALPET_DATA@@V?$allocator@UIMPERIALPET_DATA@@@std@@@std@@QAE@V?$allocator@UIMPERIALPET_DATA@@@1@@Z
_TEXT	SEGMENT
__Al$ = 8						; size = 1
??0?$_Vector_val@UIMPERIALPET_DATA@@V?$allocator@UIMPERIALPET_DATA@@@std@@@std@@QAE@V?$allocator@UIMPERIALPET_DATA@@@1@@Z PROC ; std::_Vector_val<IMPERIALPET_DATA,std::allocator<IMPERIALPET_DATA> >::_Vector_val<IMPERIALPET_DATA,std::allocator<IMPERIALPET_DATA> >, COMDAT
; _this$ = ecx

; 426  : 		{	// construct allocator from _Al

  00000	8b c1		 mov	 eax, ecx

; 427  : 		_Myfirst = 0;

  00002	33 c9		 xor	 ecx, ecx
  00004	89 08		 mov	 DWORD PTR [eax], ecx

; 428  : 		_Mylast = 0;

  00006	89 48 04	 mov	 DWORD PTR [eax+4], ecx

; 429  : 		_Myend = 0;

  00009	89 48 08	 mov	 DWORD PTR [eax+8], ecx

; 430  : 		}

  0000c	c2 04 00	 ret	 4
??0?$_Vector_val@UIMPERIALPET_DATA@@V?$allocator@UIMPERIALPET_DATA@@@std@@@std@@QAE@V?$allocator@UIMPERIALPET_DATA@@@1@@Z ENDP ; std::_Vector_val<IMPERIALPET_DATA,std::allocator<IMPERIALPET_DATA> >::_Vector_val<IMPERIALPET_DATA,std::allocator<IMPERIALPET_DATA> >
_TEXT	ENDS
PUBLIC	??0?$_Vector_val@UEXPCHAR_DATA@@V?$allocator@UEXPCHAR_DATA@@@std@@@std@@QAE@V?$allocator@UEXPCHAR_DATA@@@1@@Z ; std::_Vector_val<EXPCHAR_DATA,std::allocator<EXPCHAR_DATA> >::_Vector_val<EXPCHAR_DATA,std::allocator<EXPCHAR_DATA> >
; Function compile flags: /Ogtp
;	COMDAT ??0?$_Vector_val@UEXPCHAR_DATA@@V?$allocator@UEXPCHAR_DATA@@@std@@@std@@QAE@V?$allocator@UEXPCHAR_DATA@@@1@@Z
_TEXT	SEGMENT
__Al$ = 8						; size = 1
??0?$_Vector_val@UEXPCHAR_DATA@@V?$allocator@UEXPCHAR_DATA@@@std@@@std@@QAE@V?$allocator@UEXPCHAR_DATA@@@1@@Z PROC ; std::_Vector_val<EXPCHAR_DATA,std::allocator<EXPCHAR_DATA> >::_Vector_val<EXPCHAR_DATA,std::allocator<EXPCHAR_DATA> >, COMDAT
; _this$ = ecx

; 426  : 		{	// construct allocator from _Al

  00000	8b c1		 mov	 eax, ecx

; 427  : 		_Myfirst = 0;

  00002	33 c9		 xor	 ecx, ecx
  00004	89 08		 mov	 DWORD PTR [eax], ecx

; 428  : 		_Mylast = 0;

  00006	89 48 04	 mov	 DWORD PTR [eax+4], ecx

; 429  : 		_Myend = 0;

  00009	89 48 08	 mov	 DWORD PTR [eax+8], ecx

; 430  : 		}

  0000c	c2 04 00	 ret	 4
??0?$_Vector_val@UEXPCHAR_DATA@@V?$allocator@UEXPCHAR_DATA@@@std@@@std@@QAE@V?$allocator@UEXPCHAR_DATA@@@1@@Z ENDP ; std::_Vector_val<EXPCHAR_DATA,std::allocator<EXPCHAR_DATA> >::_Vector_val<EXPCHAR_DATA,std::allocator<EXPCHAR_DATA> >
_TEXT	ENDS
PUBLIC	?max_size@?$vector@UIMPERIALPET_DATA@@V?$allocator@UIMPERIALPET_DATA@@@std@@@std@@QBEIXZ ; std::vector<IMPERIALPET_DATA,std::allocator<IMPERIALPET_DATA> >::max_size
; Function compile flags: /Ogtp
;	COMDAT ?max_size@?$vector@UIMPERIALPET_DATA@@V?$allocator@UIMPERIALPET_DATA@@@std@@@std@@QBEIXZ
_TEXT	SEGMENT
?max_size@?$vector@UIMPERIALPET_DATA@@V?$allocator@UIMPERIALPET_DATA@@@std@@@std@@QBEIXZ PROC ; std::vector<IMPERIALPET_DATA,std::allocator<IMPERIALPET_DATA> >::max_size, COMDAT
; _this$ = ecx

; 884  : 		return (this->_Alval.max_size());

  00000	b8 92 24 49 12	 mov	 eax, 306783378		; 12492492H

; 885  : 		}

  00005	c3		 ret	 0
?max_size@?$vector@UIMPERIALPET_DATA@@V?$allocator@UIMPERIALPET_DATA@@@std@@@std@@QBEIXZ ENDP ; std::vector<IMPERIALPET_DATA,std::allocator<IMPERIALPET_DATA> >::max_size
_TEXT	ENDS
PUBLIC	?_Grow_to@?$vector@UIMPERIALPET_DATA@@V?$allocator@UIMPERIALPET_DATA@@@std@@@std@@IBEII@Z ; std::vector<IMPERIALPET_DATA,std::allocator<IMPERIALPET_DATA> >::_Grow_to
; Function compile flags: /Ogtp
;	COMDAT ?_Grow_to@?$vector@UIMPERIALPET_DATA@@V?$allocator@UIMPERIALPET_DATA@@@std@@@std@@IBEII@Z
_TEXT	SEGMENT
__Count$ = 8						; size = 4
?_Grow_to@?$vector@UIMPERIALPET_DATA@@V?$allocator@UIMPERIALPET_DATA@@@std@@@std@@IBEII@Z PROC ; std::vector<IMPERIALPET_DATA,std::allocator<IMPERIALPET_DATA> >::_Grow_to, COMDAT
; _this$ = ecx

; 1274 : 		{	// grow by 50% or at least to _Count

  00000	55		 push	 ebp
  00001	8b ec		 mov	 ebp, esp
  00003	56		 push	 esi

; 1275 : 		size_type _Capacity = capacity();

  00004	8b 71 08	 mov	 esi, DWORD PTR [ecx+8]
  00007	2b 31		 sub	 esi, DWORD PTR [ecx]
  00009	b8 93 24 49 92	 mov	 eax, -1840700269	; 92492493H
  0000e	f7 ee		 imul	 esi
  00010	03 d6		 add	 edx, esi
  00012	c1 fa 03	 sar	 edx, 3
  00015	8b c2		 mov	 eax, edx
  00017	c1 e8 1f	 shr	 eax, 31			; 0000001fH
  0001a	03 c2		 add	 eax, edx

; 1276 : 
; 1277 : 		_Capacity = max_size() - _Capacity / 2 < _Capacity
; 1278 : 			? 0 : _Capacity + _Capacity / 2;	// try to grow by 50%

  0001c	8b c8		 mov	 ecx, eax
  0001e	d1 e9		 shr	 ecx, 1
  00020	ba 92 24 49 12	 mov	 edx, 306783378		; 12492492H
  00025	2b d1		 sub	 edx, ecx
  00027	5e		 pop	 esi
  00028	3b d0		 cmp	 edx, eax
  0002a	73 04		 jae	 SHORT $LN4@Grow_to
  0002c	33 c0		 xor	 eax, eax
  0002e	eb 02		 jmp	 SHORT $LN5@Grow_to
$LN4@Grow_to:
  00030	03 c1		 add	 eax, ecx
$LN5@Grow_to:

; 1279 : 		if (_Capacity < _Count)

  00032	8b 4d 08	 mov	 ecx, DWORD PTR __Count$[ebp]
  00035	3b c1		 cmp	 eax, ecx
  00037	73 02		 jae	 SHORT $LN1@Grow_to

; 1280 : 			_Capacity = _Count;
; 1281 : 		return (_Capacity);

  00039	8b c1		 mov	 eax, ecx
$LN1@Grow_to:

; 1282 : 		}

  0003b	5d		 pop	 ebp
  0003c	c2 04 00	 ret	 4
?_Grow_to@?$vector@UIMPERIALPET_DATA@@V?$allocator@UIMPERIALPET_DATA@@@std@@@std@@IBEII@Z ENDP ; std::vector<IMPERIALPET_DATA,std::allocator<IMPERIALPET_DATA> >::_Grow_to
_TEXT	ENDS
PUBLIC	?max_size@?$vector@UEXPCHAR_DATA@@V?$allocator@UEXPCHAR_DATA@@@std@@@std@@QBEIXZ ; std::vector<EXPCHAR_DATA,std::allocator<EXPCHAR_DATA> >::max_size
; Function compile flags: /Ogtp
;	COMDAT ?max_size@?$vector@UEXPCHAR_DATA@@V?$allocator@UEXPCHAR_DATA@@@std@@@std@@QBEIXZ
_TEXT	SEGMENT
?max_size@?$vector@UEXPCHAR_DATA@@V?$allocator@UEXPCHAR_DATA@@@std@@@std@@QBEIXZ PROC ; std::vector<EXPCHAR_DATA,std::allocator<EXPCHAR_DATA> >::max_size, COMDAT
; _this$ = ecx

; 884  : 		return (this->_Alval.max_size());

  00000	b8 92 24 49 12	 mov	 eax, 306783378		; 12492492H

; 885  : 		}

  00005	c3		 ret	 0
?max_size@?$vector@UEXPCHAR_DATA@@V?$allocator@UEXPCHAR_DATA@@@std@@@std@@QBEIXZ ENDP ; std::vector<EXPCHAR_DATA,std::allocator<EXPCHAR_DATA> >::max_size
_TEXT	ENDS
PUBLIC	?_Grow_to@?$vector@UEXPCHAR_DATA@@V?$allocator@UEXPCHAR_DATA@@@std@@@std@@IBEII@Z ; std::vector<EXPCHAR_DATA,std::allocator<EXPCHAR_DATA> >::_Grow_to
; Function compile flags: /Ogtp
;	COMDAT ?_Grow_to@?$vector@UEXPCHAR_DATA@@V?$allocator@UEXPCHAR_DATA@@@std@@@std@@IBEII@Z
_TEXT	SEGMENT
__Count$ = 8						; size = 4
?_Grow_to@?$vector@UEXPCHAR_DATA@@V?$allocator@UEXPCHAR_DATA@@@std@@@std@@IBEII@Z PROC ; std::vector<EXPCHAR_DATA,std::allocator<EXPCHAR_DATA> >::_Grow_to, COMDAT
; _this$ = ecx

; 1274 : 		{	// grow by 50% or at least to _Count

  00000	55		 push	 ebp
  00001	8b ec		 mov	 ebp, esp
  00003	56		 push	 esi

; 1275 : 		size_type _Capacity = capacity();

  00004	8b 71 08	 mov	 esi, DWORD PTR [ecx+8]
  00007	2b 31		 sub	 esi, DWORD PTR [ecx]
  00009	b8 93 24 49 92	 mov	 eax, -1840700269	; 92492493H
  0000e	f7 ee		 imul	 esi
  00010	03 d6		 add	 edx, esi
  00012	c1 fa 03	 sar	 edx, 3
  00015	8b c2		 mov	 eax, edx
  00017	c1 e8 1f	 shr	 eax, 31			; 0000001fH
  0001a	03 c2		 add	 eax, edx

; 1276 : 
; 1277 : 		_Capacity = max_size() - _Capacity / 2 < _Capacity
; 1278 : 			? 0 : _Capacity + _Capacity / 2;	// try to grow by 50%

  0001c	8b c8		 mov	 ecx, eax
  0001e	d1 e9		 shr	 ecx, 1
  00020	ba 92 24 49 12	 mov	 edx, 306783378		; 12492492H
  00025	2b d1		 sub	 edx, ecx
  00027	5e		 pop	 esi
  00028	3b d0		 cmp	 edx, eax
  0002a	73 04		 jae	 SHORT $LN4@Grow_to@2
  0002c	33 c0		 xor	 eax, eax
  0002e	eb 02		 jmp	 SHORT $LN5@Grow_to@2
$LN4@Grow_to@2:
  00030	03 c1		 add	 eax, ecx
$LN5@Grow_to@2:

; 1279 : 		if (_Capacity < _Count)

  00032	8b 4d 08	 mov	 ecx, DWORD PTR __Count$[ebp]
  00035	3b c1		 cmp	 eax, ecx
  00037	73 02		 jae	 SHORT $LN1@Grow_to@2

; 1280 : 			_Capacity = _Count;
; 1281 : 		return (_Capacity);

  00039	8b c1		 mov	 eax, ecx
$LN1@Grow_to@2:

; 1282 : 		}

  0003b	5d		 pop	 ebp
  0003c	c2 04 00	 ret	 4
?_Grow_to@?$vector@UEXPCHAR_DATA@@V?$allocator@UEXPCHAR_DATA@@@std@@@std@@IBEII@Z ENDP ; std::vector<EXPCHAR_DATA,std::allocator<EXPCHAR_DATA> >::_Grow_to
_TEXT	ENDS
PUBLIC	??0?$_Vector_const_iterator@V?$_Vector_val@UIMPERIALPET_DATA@@V?$allocator@UIMPERIALPET_DATA@@@std@@@std@@@std@@QAE@PAUIMPERIALPET_DATA@@PBU_Container_base0@1@@Z ; std::_Vector_const_iterator<std::_Vector_val<IMPERIALPET_DATA,std::allocator<IMPERIALPET_DATA> > >::_Vector_const_iterator<std::_Vector_val<IMPERIALPET_DATA,std::allocator<IMPERIALPET_DATA> > >
; Function compile flags: /Ogtp
;	COMDAT ??0?$_Vector_const_iterator@V?$_Vector_val@UIMPERIALPET_DATA@@V?$allocator@UIMPERIALPET_DATA@@@std@@@std@@@std@@QAE@PAUIMPERIALPET_DATA@@PBU_Container_base0@1@@Z
_TEXT	SEGMENT
__Parg$ = 8						; size = 4
__Pvector$ = 12						; size = 4
??0?$_Vector_const_iterator@V?$_Vector_val@UIMPERIALPET_DATA@@V?$allocator@UIMPERIALPET_DATA@@@std@@@std@@@std@@QAE@PAUIMPERIALPET_DATA@@PBU_Container_base0@1@@Z PROC ; std::_Vector_const_iterator<std::_Vector_val<IMPERIALPET_DATA,std::allocator<IMPERIALPET_DATA> > >::_Vector_const_iterator<std::_Vector_val<IMPERIALPET_DATA,std::allocator<IMPERIALPET_DATA> > >, COMDAT
; _this$ = ecx

; 45   : 		{	// construct with pointer _Parg

  00000	55		 push	 ebp
  00001	8b ec		 mov	 ebp, esp
  00003	8b c1		 mov	 eax, ecx
  00005	8b 4d 08	 mov	 ecx, DWORD PTR __Parg$[ebp]
  00008	89 08		 mov	 DWORD PTR [eax], ecx

; 46   : 		this->_Adopt(_Pvector);
; 47   : 		}

  0000a	5d		 pop	 ebp
  0000b	c2 08 00	 ret	 8
??0?$_Vector_const_iterator@V?$_Vector_val@UIMPERIALPET_DATA@@V?$allocator@UIMPERIALPET_DATA@@@std@@@std@@@std@@QAE@PAUIMPERIALPET_DATA@@PBU_Container_base0@1@@Z ENDP ; std::_Vector_const_iterator<std::_Vector_val<IMPERIALPET_DATA,std::allocator<IMPERIALPET_DATA> > >::_Vector_const_iterator<std::_Vector_val<IMPERIALPET_DATA,std::allocator<IMPERIALPET_DATA> > >
_TEXT	ENDS
PUBLIC	??8?$_Vector_const_iterator@V?$_Vector_val@UIMPERIALPET_DATA@@V?$allocator@UIMPERIALPET_DATA@@@std@@@std@@@std@@QBE_NABV01@@Z ; std::_Vector_const_iterator<std::_Vector_val<IMPERIALPET_DATA,std::allocator<IMPERIALPET_DATA> > >::operator==
; Function compile flags: /Ogtp
;	COMDAT ??8?$_Vector_const_iterator@V?$_Vector_val@UIMPERIALPET_DATA@@V?$allocator@UIMPERIALPET_DATA@@@std@@@std@@@std@@QBE_NABV01@@Z
_TEXT	SEGMENT
__Right$ = 8						; size = 4
??8?$_Vector_const_iterator@V?$_Vector_val@UIMPERIALPET_DATA@@V?$allocator@UIMPERIALPET_DATA@@@std@@@std@@@std@@QBE_NABV01@@Z PROC ; std::_Vector_const_iterator<std::_Vector_val<IMPERIALPET_DATA,std::allocator<IMPERIALPET_DATA> > >::operator==, COMDAT
; _this$ = ecx

; 201  : 		{	// test for iterator equality

  00000	55		 push	 ebp
  00001	8b ec		 mov	 ebp, esp

; 202  : 		_Compat(_Right);
; 203  : 		return (this->_Ptr == _Right._Ptr);

  00003	8b 01		 mov	 eax, DWORD PTR [ecx]
  00005	8b 55 08	 mov	 edx, DWORD PTR __Right$[ebp]
  00008	33 c9		 xor	 ecx, ecx
  0000a	3b 02		 cmp	 eax, DWORD PTR [edx]
  0000c	0f 94 c0	 sete	 al

; 204  : 		}

  0000f	5d		 pop	 ebp
  00010	c2 04 00	 ret	 4
??8?$_Vector_const_iterator@V?$_Vector_val@UIMPERIALPET_DATA@@V?$allocator@UIMPERIALPET_DATA@@@std@@@std@@@std@@QBE_NABV01@@Z ENDP ; std::_Vector_const_iterator<std::_Vector_val<IMPERIALPET_DATA,std::allocator<IMPERIALPET_DATA> > >::operator==
_TEXT	ENDS
PUBLIC	??0?$_Vector_const_iterator@V?$_Vector_val@UEXPCHAR_DATA@@V?$allocator@UEXPCHAR_DATA@@@std@@@std@@@std@@QAE@PAUEXPCHAR_DATA@@PBU_Container_base0@1@@Z ; std::_Vector_const_iterator<std::_Vector_val<EXPCHAR_DATA,std::allocator<EXPCHAR_DATA> > >::_Vector_const_iterator<std::_Vector_val<EXPCHAR_DATA,std::allocator<EXPCHAR_DATA> > >
; Function compile flags: /Ogtp
;	COMDAT ??0?$_Vector_const_iterator@V?$_Vector_val@UEXPCHAR_DATA@@V?$allocator@UEXPCHAR_DATA@@@std@@@std@@@std@@QAE@PAUEXPCHAR_DATA@@PBU_Container_base0@1@@Z
_TEXT	SEGMENT
__Parg$ = 8						; size = 4
__Pvector$ = 12						; size = 4
??0?$_Vector_const_iterator@V?$_Vector_val@UEXPCHAR_DATA@@V?$allocator@UEXPCHAR_DATA@@@std@@@std@@@std@@QAE@PAUEXPCHAR_DATA@@PBU_Container_base0@1@@Z PROC ; std::_Vector_const_iterator<std::_Vector_val<EXPCHAR_DATA,std::allocator<EXPCHAR_DATA> > >::_Vector_const_iterator<std::_Vector_val<EXPCHAR_DATA,std::allocator<EXPCHAR_DATA> > >, COMDAT
; _this$ = ecx

; 45   : 		{	// construct with pointer _Parg

  00000	55		 push	 ebp
  00001	8b ec		 mov	 ebp, esp
  00003	8b c1		 mov	 eax, ecx
  00005	8b 4d 08	 mov	 ecx, DWORD PTR __Parg$[ebp]
  00008	89 08		 mov	 DWORD PTR [eax], ecx

; 46   : 		this->_Adopt(_Pvector);
; 47   : 		}

  0000a	5d		 pop	 ebp
  0000b	c2 08 00	 ret	 8
??0?$_Vector_const_iterator@V?$_Vector_val@UEXPCHAR_DATA@@V?$allocator@UEXPCHAR_DATA@@@std@@@std@@@std@@QAE@PAUEXPCHAR_DATA@@PBU_Container_base0@1@@Z ENDP ; std::_Vector_const_iterator<std::_Vector_val<EXPCHAR_DATA,std::allocator<EXPCHAR_DATA> > >::_Vector_const_iterator<std::_Vector_val<EXPCHAR_DATA,std::allocator<EXPCHAR_DATA> > >
_TEXT	ENDS
PUBLIC	??8?$_Vector_const_iterator@V?$_Vector_val@UEXPCHAR_DATA@@V?$allocator@UEXPCHAR_DATA@@@std@@@std@@@std@@QBE_NABV01@@Z ; std::_Vector_const_iterator<std::_Vector_val<EXPCHAR_DATA,std::allocator<EXPCHAR_DATA> > >::operator==
; Function compile flags: /Ogtp
;	COMDAT ??8?$_Vector_const_iterator@V?$_Vector_val@UEXPCHAR_DATA@@V?$allocator@UEXPCHAR_DATA@@@std@@@std@@@std@@QBE_NABV01@@Z
_TEXT	SEGMENT
__Right$ = 8						; size = 4
??8?$_Vector_const_iterator@V?$_Vector_val@UEXPCHAR_DATA@@V?$allocator@UEXPCHAR_DATA@@@std@@@std@@@std@@QBE_NABV01@@Z PROC ; std::_Vector_const_iterator<std::_Vector_val<EXPCHAR_DATA,std::allocator<EXPCHAR_DATA> > >::operator==, COMDAT
; _this$ = ecx

; 201  : 		{	// test for iterator equality

  00000	55		 push	 ebp
  00001	8b ec		 mov	 ebp, esp

; 202  : 		_Compat(_Right);
; 203  : 		return (this->_Ptr == _Right._Ptr);

  00003	8b 01		 mov	 eax, DWORD PTR [ecx]
  00005	8b 55 08	 mov	 edx, DWORD PTR __Right$[ebp]
  00008	33 c9		 xor	 ecx, ecx
  0000a	3b 02		 cmp	 eax, DWORD PTR [edx]
  0000c	0f 94 c0	 sete	 al

; 204  : 		}

  0000f	5d		 pop	 ebp
  00010	c2 04 00	 ret	 4
??8?$_Vector_const_iterator@V?$_Vector_val@UEXPCHAR_DATA@@V?$allocator@UEXPCHAR_DATA@@@std@@@std@@@std@@QBE_NABV01@@Z ENDP ; std::_Vector_const_iterator<std::_Vector_val<EXPCHAR_DATA,std::allocator<EXPCHAR_DATA> > >::operator==
_TEXT	ENDS
PUBLIC	??$_Cons_val@V?$allocator@UIMPERIALPET_DATA@@@std@@UIMPERIALPET_DATA@@AAU3@@std@@YAXAAV?$allocator@UIMPERIALPET_DATA@@@0@PAUIMPERIALPET_DATA@@AAU2@@Z ; std::_Cons_val<std::allocator<IMPERIALPET_DATA>,IMPERIALPET_DATA,IMPERIALPET_DATA &>
; Function compile flags: /Ogtp
; File d:\program files (x86)\microsoft visual studio 10.0\vc\include\xmemory
;	COMDAT ??$_Cons_val@V?$allocator@UIMPERIALPET_DATA@@@std@@UIMPERIALPET_DATA@@AAU3@@std@@YAXAAV?$allocator@UIMPERIALPET_DATA@@@0@PAUIMPERIALPET_DATA@@AAU2@@Z
_TEXT	SEGMENT
__Alval$ = 8						; size = 4
__Pdest$ = 12						; size = 4
__Src$ = 16						; size = 4
??$_Cons_val@V?$allocator@UIMPERIALPET_DATA@@@std@@UIMPERIALPET_DATA@@AAU3@@std@@YAXAAV?$allocator@UIMPERIALPET_DATA@@@0@PAUIMPERIALPET_DATA@@AAU2@@Z PROC ; std::_Cons_val<std::allocator<IMPERIALPET_DATA>,IMPERIALPET_DATA,IMPERIALPET_DATA &>, COMDAT

; 279  : 	{	// construct using allocator

  00000	55		 push	 ebp
  00001	8b ec		 mov	 ebp, esp

; 280  : 	_Alval.construct(_Pdest, _STD forward<_Ty2>(_Src));

  00003	8b 45 0c	 mov	 eax, DWORD PTR __Pdest$[ebp]
  00006	85 c0		 test	 eax, eax
  00008	74 1b		 je	 SHORT $LN7@Cons_val
  0000a	8b 4d 10	 mov	 ecx, DWORD PTR __Src$[ebp]
  0000d	8b 11		 mov	 edx, DWORD PTR [ecx]
  0000f	89 10		 mov	 DWORD PTR [eax], edx
  00011	8b 51 04	 mov	 edx, DWORD PTR [ecx+4]
  00014	89 50 04	 mov	 DWORD PTR [eax+4], edx
  00017	8b 51 08	 mov	 edx, DWORD PTR [ecx+8]
  0001a	89 50 08	 mov	 DWORD PTR [eax+8], edx
  0001d	66 8b 49 0c	 mov	 cx, WORD PTR [ecx+12]
  00021	66 89 48 0c	 mov	 WORD PTR [eax+12], cx
$LN7@Cons_val:

; 281  : 	}

  00025	5d		 pop	 ebp
  00026	c3		 ret	 0
??$_Cons_val@V?$allocator@UIMPERIALPET_DATA@@@std@@UIMPERIALPET_DATA@@AAU3@@std@@YAXAAV?$allocator@UIMPERIALPET_DATA@@@0@PAUIMPERIALPET_DATA@@AAU2@@Z ENDP ; std::_Cons_val<std::allocator<IMPERIALPET_DATA>,IMPERIALPET_DATA,IMPERIALPET_DATA &>
_TEXT	ENDS
PUBLIC	??$_Cons_val@V?$allocator@UEXPCHAR_DATA@@@std@@UEXPCHAR_DATA@@AAU3@@std@@YAXAAV?$allocator@UEXPCHAR_DATA@@@0@PAUEXPCHAR_DATA@@AAU2@@Z ; std::_Cons_val<std::allocator<EXPCHAR_DATA>,EXPCHAR_DATA,EXPCHAR_DATA &>
; Function compile flags: /Ogtp
;	COMDAT ??$_Cons_val@V?$allocator@UEXPCHAR_DATA@@@std@@UEXPCHAR_DATA@@AAU3@@std@@YAXAAV?$allocator@UEXPCHAR_DATA@@@0@PAUEXPCHAR_DATA@@AAU2@@Z
_TEXT	SEGMENT
__Alval$ = 8						; size = 4
__Pdest$ = 12						; size = 4
__Src$ = 16						; size = 4
??$_Cons_val@V?$allocator@UEXPCHAR_DATA@@@std@@UEXPCHAR_DATA@@AAU3@@std@@YAXAAV?$allocator@UEXPCHAR_DATA@@@0@PAUEXPCHAR_DATA@@AAU2@@Z PROC ; std::_Cons_val<std::allocator<EXPCHAR_DATA>,EXPCHAR_DATA,EXPCHAR_DATA &>, COMDAT

; 279  : 	{	// construct using allocator

  00000	55		 push	 ebp
  00001	8b ec		 mov	 ebp, esp

; 280  : 	_Alval.construct(_Pdest, _STD forward<_Ty2>(_Src));

  00003	8b 45 0c	 mov	 eax, DWORD PTR __Pdest$[ebp]
  00006	85 c0		 test	 eax, eax
  00008	74 1b		 je	 SHORT $LN7@Cons_val@2
  0000a	8b 4d 10	 mov	 ecx, DWORD PTR __Src$[ebp]
  0000d	8b 11		 mov	 edx, DWORD PTR [ecx]
  0000f	89 10		 mov	 DWORD PTR [eax], edx
  00011	8b 51 04	 mov	 edx, DWORD PTR [ecx+4]
  00014	89 50 04	 mov	 DWORD PTR [eax+4], edx
  00017	8b 51 08	 mov	 edx, DWORD PTR [ecx+8]
  0001a	89 50 08	 mov	 DWORD PTR [eax+8], edx
  0001d	66 8b 49 0c	 mov	 cx, WORD PTR [ecx+12]
  00021	66 89 48 0c	 mov	 WORD PTR [eax+12], cx
$LN7@Cons_val@2:

; 281  : 	}

  00025	5d		 pop	 ebp
  00026	c3		 ret	 0
??$_Cons_val@V?$allocator@UEXPCHAR_DATA@@@std@@UEXPCHAR_DATA@@AAU3@@std@@YAXAAV?$allocator@UEXPCHAR_DATA@@@0@PAUEXPCHAR_DATA@@AAU2@@Z ENDP ; std::_Cons_val<std::allocator<EXPCHAR_DATA>,EXPCHAR_DATA,EXPCHAR_DATA &>
_TEXT	ENDS
PUBLIC	__TI2?AVbad_alloc@std@@
PUBLIC	??$_Allocate@UIMPERIALPET_DATA@@@std@@YAPAUIMPERIALPET_DATA@@IPAU1@@Z ; std::_Allocate<IMPERIALPET_DATA>
PUBLIC	__CTA2?AVbad_alloc@std@@
PUBLIC	__CT??_R0?AVbad_alloc@std@@@8??0bad_alloc@std@@QAE@ABV01@@Z12
PUBLIC	??0bad_alloc@std@@QAE@ABV01@@Z			; std::bad_alloc::bad_alloc
PUBLIC	__CT??_R0?AVexception@std@@@8??0exception@std@@QAE@ABV01@@Z12
EXTRN	??2@YAPAXI@Z:PROC				; operator new
EXTRN	__CxxThrowException@8:PROC
EXTRN	??0exception@std@@QAE@ABV01@@Z:PROC		; std::exception::exception
;	COMDAT __CT??_R0?AVexception@std@@@8??0exception@std@@QAE@ABV01@@Z12
; File d:\program files (x86)\microsoft visual studio 10.0\vc\include\exception
xdata$x	SEGMENT
__CT??_R0?AVexception@std@@@8??0exception@std@@QAE@ABV01@@Z12 DD 00H
	DD	FLAT:??_R0?AVexception@std@@@8
	DD	00H
	DD	0ffffffffH
	ORG $+4
	DD	0cH
	DD	FLAT:??0exception@std@@QAE@ABV01@@Z
xdata$x	ENDS
;	COMDAT __CT??_R0?AVbad_alloc@std@@@8??0bad_alloc@std@@QAE@ABV01@@Z12
xdata$x	SEGMENT
__CT??_R0?AVbad_alloc@std@@@8??0bad_alloc@std@@QAE@ABV01@@Z12 DD 00H
	DD	FLAT:??_R0?AVbad_alloc@std@@@8
	DD	00H
	DD	0ffffffffH
	ORG $+4
	DD	0cH
	DD	FLAT:??0bad_alloc@std@@QAE@ABV01@@Z
xdata$x	ENDS
;	COMDAT __CTA2?AVbad_alloc@std@@
xdata$x	SEGMENT
__CTA2?AVbad_alloc@std@@ DD 02H
	DD	FLAT:__CT??_R0?AVbad_alloc@std@@@8??0bad_alloc@std@@QAE@ABV01@@Z12
	DD	FLAT:__CT??_R0?AVexception@std@@@8??0exception@std@@QAE@ABV01@@Z12
xdata$x	ENDS
;	COMDAT __TI2?AVbad_alloc@std@@
xdata$x	SEGMENT
__TI2?AVbad_alloc@std@@ DD 00H
	DD	FLAT:??1bad_alloc@std@@UAE@XZ
	DD	00H
	DD	FLAT:__CTA2?AVbad_alloc@std@@
; Function compile flags: /Ogtp
; File d:\program files (x86)\microsoft visual studio 10.0\vc\include\xmemory
xdata$x	ENDS
;	COMDAT ??$_Allocate@UIMPERIALPET_DATA@@@std@@YAPAUIMPERIALPET_DATA@@IPAU1@@Z
_TEXT	SEGMENT
$T212247 = -12						; size = 12
$T212252 = 8						; size = 4
__Count$ = 8						; size = 4
___formal$ = 12						; size = 4
??$_Allocate@UIMPERIALPET_DATA@@@std@@YAPAUIMPERIALPET_DATA@@IPAU1@@Z PROC ; std::_Allocate<IMPERIALPET_DATA>, COMDAT

; 30   : 	{	// allocate storage for _Count elements of type _Ty

  00000	55		 push	 ebp
  00001	8b ec		 mov	 ebp, esp

; 31   : 	void *_Ptr = 0;
; 32   : 
; 33   : 	if (_Count <= 0)

  00003	8b 4d 08	 mov	 ecx, DWORD PTR __Count$[ebp]
  00006	83 ec 0c	 sub	 esp, 12			; 0000000cH
  00009	33 c0		 xor	 eax, eax
  0000b	85 c9		 test	 ecx, ecx

; 34   : 		_Count = 0;
; 35   : 	else if (((_SIZT)(-1) / sizeof (_Ty) < _Count)

  0000d	74 48		 je	 SHORT $LN5@Allocate

; 36   : 		|| (_Ptr = ::operator new(_Count * sizeof (_Ty))) == 0)

  0000f	81 f9 92 24 49
	12		 cmp	 ecx, 306783378		; 12492492H
  00015	77 18		 ja	 SHORT $LN1@Allocate
  00017	8d 04 cd 00 00
	00 00		 lea	 eax, DWORD PTR [ecx*8]
  0001e	2b c1		 sub	 eax, ecx
  00020	03 c0		 add	 eax, eax
  00022	50		 push	 eax
  00023	e8 00 00 00 00	 call	 ??2@YAPAXI@Z		; operator new
  00028	83 c4 04	 add	 esp, 4
  0002b	85 c0		 test	 eax, eax

; 38   : 
; 39   : 	return ((_Ty _FARQ *)_Ptr);

  0002d	75 28		 jne	 SHORT $LN5@Allocate
$LN1@Allocate:

; 37   : 		_THROW_NCEE(bad_alloc, 0);

  0002f	8d 4d 08	 lea	 ecx, DWORD PTR $T212252[ebp]
  00032	51		 push	 ecx
  00033	8d 4d f4	 lea	 ecx, DWORD PTR $T212247[ebp]
  00036	c7 45 08 00 00
	00 00		 mov	 DWORD PTR $T212252[ebp], 0
  0003d	e8 00 00 00 00	 call	 ??0exception@std@@QAE@ABQBD@Z ; std::exception::exception
  00042	68 00 00 00 00	 push	 OFFSET __TI2?AVbad_alloc@std@@
  00047	8d 55 f4	 lea	 edx, DWORD PTR $T212247[ebp]
  0004a	52		 push	 edx
  0004b	c7 45 f4 00 00
	00 00		 mov	 DWORD PTR $T212247[ebp], OFFSET ??_7bad_alloc@std@@6B@
  00052	e8 00 00 00 00	 call	 __CxxThrowException@8
$LN10@Allocate:
$LN5@Allocate:

; 40   : 	}

  00057	8b e5		 mov	 esp, ebp
  00059	5d		 pop	 ebp
  0005a	c3		 ret	 0
$LN9@Allocate:
??$_Allocate@UIMPERIALPET_DATA@@@std@@YAPAUIMPERIALPET_DATA@@IPAU1@@Z ENDP ; std::_Allocate<IMPERIALPET_DATA>
; Function compile flags: /Ogtp
_TEXT	ENDS
;	COMDAT ??0bad_alloc@std@@QAE@ABV01@@Z
_TEXT	SEGMENT
___that$ = 8						; size = 4
??0bad_alloc@std@@QAE@ABV01@@Z PROC			; std::bad_alloc::bad_alloc, COMDAT
; _this$ = ecx
  00000	55		 push	 ebp
  00001	8b ec		 mov	 ebp, esp
  00003	8b 45 08	 mov	 eax, DWORD PTR ___that$[ebp]
  00006	56		 push	 esi
  00007	50		 push	 eax
  00008	8b f1		 mov	 esi, ecx
  0000a	e8 00 00 00 00	 call	 ??0exception@std@@QAE@ABV01@@Z ; std::exception::exception
  0000f	c7 06 00 00 00
	00		 mov	 DWORD PTR [esi], OFFSET ??_7bad_alloc@std@@6B@
  00015	8b c6		 mov	 eax, esi
  00017	5e		 pop	 esi
  00018	5d		 pop	 ebp
  00019	c2 04 00	 ret	 4
??0bad_alloc@std@@QAE@ABV01@@Z ENDP			; std::bad_alloc::bad_alloc
_TEXT	ENDS
PUBLIC	??$_Allocate@UEXPCHAR_DATA@@@std@@YAPAUEXPCHAR_DATA@@IPAU1@@Z ; std::_Allocate<EXPCHAR_DATA>
; Function compile flags: /Ogtp
;	COMDAT ??$_Allocate@UEXPCHAR_DATA@@@std@@YAPAUEXPCHAR_DATA@@IPAU1@@Z
_TEXT	SEGMENT
$T212260 = -12						; size = 12
$T212264 = 8						; size = 4
__Count$ = 8						; size = 4
___formal$ = 12						; size = 4
??$_Allocate@UEXPCHAR_DATA@@@std@@YAPAUEXPCHAR_DATA@@IPAU1@@Z PROC ; std::_Allocate<EXPCHAR_DATA>, COMDAT

; 30   : 	{	// allocate storage for _Count elements of type _Ty

  00000	55		 push	 ebp
  00001	8b ec		 mov	 ebp, esp

; 31   : 	void *_Ptr = 0;
; 32   : 
; 33   : 	if (_Count <= 0)

  00003	8b 4d 08	 mov	 ecx, DWORD PTR __Count$[ebp]
  00006	83 ec 0c	 sub	 esp, 12			; 0000000cH
  00009	33 c0		 xor	 eax, eax
  0000b	85 c9		 test	 ecx, ecx

; 34   : 		_Count = 0;
; 35   : 	else if (((_SIZT)(-1) / sizeof (_Ty) < _Count)

  0000d	74 48		 je	 SHORT $LN5@Allocate@2

; 36   : 		|| (_Ptr = ::operator new(_Count * sizeof (_Ty))) == 0)

  0000f	81 f9 92 24 49
	12		 cmp	 ecx, 306783378		; 12492492H
  00015	77 18		 ja	 SHORT $LN1@Allocate@2
  00017	8d 04 cd 00 00
	00 00		 lea	 eax, DWORD PTR [ecx*8]
  0001e	2b c1		 sub	 eax, ecx
  00020	03 c0		 add	 eax, eax
  00022	50		 push	 eax
  00023	e8 00 00 00 00	 call	 ??2@YAPAXI@Z		; operator new
  00028	83 c4 04	 add	 esp, 4
  0002b	85 c0		 test	 eax, eax

; 38   : 
; 39   : 	return ((_Ty _FARQ *)_Ptr);

  0002d	75 28		 jne	 SHORT $LN5@Allocate@2
$LN1@Allocate@2:

; 37   : 		_THROW_NCEE(bad_alloc, 0);

  0002f	8d 4d 08	 lea	 ecx, DWORD PTR $T212264[ebp]
  00032	51		 push	 ecx
  00033	8d 4d f4	 lea	 ecx, DWORD PTR $T212260[ebp]
  00036	c7 45 08 00 00
	00 00		 mov	 DWORD PTR $T212264[ebp], 0
  0003d	e8 00 00 00 00	 call	 ??0exception@std@@QAE@ABQBD@Z ; std::exception::exception
  00042	68 00 00 00 00	 push	 OFFSET __TI2?AVbad_alloc@std@@
  00047	8d 55 f4	 lea	 edx, DWORD PTR $T212260[ebp]
  0004a	52		 push	 edx
  0004b	c7 45 f4 00 00
	00 00		 mov	 DWORD PTR $T212260[ebp], OFFSET ??_7bad_alloc@std@@6B@
  00052	e8 00 00 00 00	 call	 __CxxThrowException@8
$LN10@Allocate@2:
$LN5@Allocate@2:

; 40   : 	}

  00057	8b e5		 mov	 esp, ebp
  00059	5d		 pop	 ebp
  0005a	c3		 ret	 0
$LN9@Allocate@2:
??$_Allocate@UEXPCHAR_DATA@@@std@@YAPAUEXPCHAR_DATA@@IPAU1@@Z ENDP ; std::_Allocate<EXPCHAR_DATA>
_TEXT	ENDS
PUBLIC	?construct@?$allocator@UIMPERIALPET_DATA@@@std@@QAEXPAUIMPERIALPET_DATA@@ABU3@@Z ; std::allocator<IMPERIALPET_DATA>::construct
; Function compile flags: /Ogtp
;	COMDAT ?construct@?$allocator@UIMPERIALPET_DATA@@@std@@QAEXPAUIMPERIALPET_DATA@@ABU3@@Z
_TEXT	SEGMENT
__Ptr$ = 8						; size = 4
__Val$ = 12						; size = 4
?construct@?$allocator@UIMPERIALPET_DATA@@@std@@QAEXPAUIMPERIALPET_DATA@@ABU3@@Z PROC ; std::allocator<IMPERIALPET_DATA>::construct, COMDAT
; _this$ = ecx

; 196  : 		{	// construct object at _Ptr with value _Val

  00000	55		 push	 ebp
  00001	8b ec		 mov	 ebp, esp

; 197  : 		_Construct(_Ptr, _Val);

  00003	8b 45 08	 mov	 eax, DWORD PTR __Ptr$[ebp]
  00006	85 c0		 test	 eax, eax
  00008	74 1b		 je	 SHORT $LN5@construct@3
  0000a	8b 4d 0c	 mov	 ecx, DWORD PTR __Val$[ebp]
  0000d	8b 11		 mov	 edx, DWORD PTR [ecx]
  0000f	89 10		 mov	 DWORD PTR [eax], edx
  00011	8b 51 04	 mov	 edx, DWORD PTR [ecx+4]
  00014	89 50 04	 mov	 DWORD PTR [eax+4], edx
  00017	8b 51 08	 mov	 edx, DWORD PTR [ecx+8]
  0001a	89 50 08	 mov	 DWORD PTR [eax+8], edx
  0001d	66 8b 49 0c	 mov	 cx, WORD PTR [ecx+12]
  00021	66 89 48 0c	 mov	 WORD PTR [eax+12], cx
$LN5@construct@3:

; 198  : 		}

  00025	5d		 pop	 ebp
  00026	c2 08 00	 ret	 8
?construct@?$allocator@UIMPERIALPET_DATA@@@std@@QAEXPAUIMPERIALPET_DATA@@ABU3@@Z ENDP ; std::allocator<IMPERIALPET_DATA>::construct
_TEXT	ENDS
PUBLIC	?construct@?$allocator@UEXPCHAR_DATA@@@std@@QAEXPAUEXPCHAR_DATA@@ABU3@@Z ; std::allocator<EXPCHAR_DATA>::construct
; Function compile flags: /Ogtp
;	COMDAT ?construct@?$allocator@UEXPCHAR_DATA@@@std@@QAEXPAUEXPCHAR_DATA@@ABU3@@Z
_TEXT	SEGMENT
__Ptr$ = 8						; size = 4
__Val$ = 12						; size = 4
?construct@?$allocator@UEXPCHAR_DATA@@@std@@QAEXPAUEXPCHAR_DATA@@ABU3@@Z PROC ; std::allocator<EXPCHAR_DATA>::construct, COMDAT
; _this$ = ecx

; 196  : 		{	// construct object at _Ptr with value _Val

  00000	55		 push	 ebp
  00001	8b ec		 mov	 ebp, esp

; 197  : 		_Construct(_Ptr, _Val);

  00003	8b 45 08	 mov	 eax, DWORD PTR __Ptr$[ebp]
  00006	85 c0		 test	 eax, eax
  00008	74 1b		 je	 SHORT $LN5@construct@4
  0000a	8b 4d 0c	 mov	 ecx, DWORD PTR __Val$[ebp]
  0000d	8b 11		 mov	 edx, DWORD PTR [ecx]
  0000f	89 10		 mov	 DWORD PTR [eax], edx
  00011	8b 51 04	 mov	 edx, DWORD PTR [ecx+4]
  00014	89 50 04	 mov	 DWORD PTR [eax+4], edx
  00017	8b 51 08	 mov	 edx, DWORD PTR [ecx+8]
  0001a	89 50 08	 mov	 DWORD PTR [eax+8], edx
  0001d	66 8b 49 0c	 mov	 cx, WORD PTR [ecx+12]
  00021	66 89 48 0c	 mov	 WORD PTR [eax+12], cx
$LN5@construct@4:

; 198  : 		}

  00025	5d		 pop	 ebp
  00026	c2 08 00	 ret	 8
?construct@?$allocator@UEXPCHAR_DATA@@@std@@QAEXPAUEXPCHAR_DATA@@ABU3@@Z ENDP ; std::allocator<EXPCHAR_DATA>::construct
_TEXT	ENDS
PUBLIC	??$_Move@PAUIMPERIALPET_DATA@@PAU1@@std@@YAPAUIMPERIALPET_DATA@@PAU1@00U_Nonscalar_ptr_iterator_tag@0@@Z ; std::_Move<IMPERIALPET_DATA *,IMPERIALPET_DATA *>
; Function compile flags: /Ogtp
; File d:\program files (x86)\microsoft visual studio 10.0\vc\include\xutility
;	COMDAT ??$_Move@PAUIMPERIALPET_DATA@@PAU1@@std@@YAPAUIMPERIALPET_DATA@@PAU1@00U_Nonscalar_ptr_iterator_tag@0@@Z
_TEXT	SEGMENT
__First$ = 8						; size = 4
__Last$ = 12						; size = 4
__Dest$ = 16						; size = 4
___formal$ = 20						; size = 1
??$_Move@PAUIMPERIALPET_DATA@@PAU1@@std@@YAPAUIMPERIALPET_DATA@@PAU1@00U_Nonscalar_ptr_iterator_tag@0@@Z PROC ; std::_Move<IMPERIALPET_DATA *,IMPERIALPET_DATA *>, COMDAT

; 2512 : 	{	// move [_First, _Last) to [_Dest, ...), arbitrary iterators

  00000	55		 push	 ebp
  00001	8b ec		 mov	 ebp, esp

; 2513 : 	for (; _First != _Last; ++_Dest, ++_First)

  00003	8b 4d 08	 mov	 ecx, DWORD PTR __First$[ebp]
  00006	8b 55 0c	 mov	 edx, DWORD PTR __Last$[ebp]
  00009	8b 45 10	 mov	 eax, DWORD PTR __Dest$[ebp]
  0000c	3b ca		 cmp	 ecx, edx
  0000e	74 24		 je	 SHORT $LN1@Move
  00010	56		 push	 esi
$LL3@Move:

; 2514 : 		*_Dest = _STD move(*_First);

  00011	8b 31		 mov	 esi, DWORD PTR [ecx]
  00013	89 30		 mov	 DWORD PTR [eax], esi
  00015	8b 71 04	 mov	 esi, DWORD PTR [ecx+4]
  00018	89 70 04	 mov	 DWORD PTR [eax+4], esi
  0001b	8b 71 08	 mov	 esi, DWORD PTR [ecx+8]
  0001e	89 70 08	 mov	 DWORD PTR [eax+8], esi
  00021	66 8b 71 0c	 mov	 si, WORD PTR [ecx+12]
  00025	66 89 70 0c	 mov	 WORD PTR [eax+12], si
  00029	83 c1 0e	 add	 ecx, 14			; 0000000eH
  0002c	83 c0 0e	 add	 eax, 14			; 0000000eH
  0002f	3b ca		 cmp	 ecx, edx
  00031	75 de		 jne	 SHORT $LL3@Move
  00033	5e		 pop	 esi
$LN1@Move:

; 2515 : 	return (_Dest);
; 2516 : 	}

  00034	5d		 pop	 ebp
  00035	c3		 ret	 0
??$_Move@PAUIMPERIALPET_DATA@@PAU1@@std@@YAPAUIMPERIALPET_DATA@@PAU1@00U_Nonscalar_ptr_iterator_tag@0@@Z ENDP ; std::_Move<IMPERIALPET_DATA *,IMPERIALPET_DATA *>
_TEXT	ENDS
PUBLIC	??$_Move@PAUEXPCHAR_DATA@@PAU1@@std@@YAPAUEXPCHAR_DATA@@PAU1@00U_Nonscalar_ptr_iterator_tag@0@@Z ; std::_Move<EXPCHAR_DATA *,EXPCHAR_DATA *>
; Function compile flags: /Ogtp
;	COMDAT ??$_Move@PAUEXPCHAR_DATA@@PAU1@@std@@YAPAUEXPCHAR_DATA@@PAU1@00U_Nonscalar_ptr_iterator_tag@0@@Z
_TEXT	SEGMENT
__First$ = 8						; size = 4
__Last$ = 12						; size = 4
__Dest$ = 16						; size = 4
___formal$ = 20						; size = 1
??$_Move@PAUEXPCHAR_DATA@@PAU1@@std@@YAPAUEXPCHAR_DATA@@PAU1@00U_Nonscalar_ptr_iterator_tag@0@@Z PROC ; std::_Move<EXPCHAR_DATA *,EXPCHAR_DATA *>, COMDAT

; 2512 : 	{	// move [_First, _Last) to [_Dest, ...), arbitrary iterators

  00000	55		 push	 ebp
  00001	8b ec		 mov	 ebp, esp

; 2513 : 	for (; _First != _Last; ++_Dest, ++_First)

  00003	8b 4d 08	 mov	 ecx, DWORD PTR __First$[ebp]
  00006	8b 55 0c	 mov	 edx, DWORD PTR __Last$[ebp]
  00009	8b 45 10	 mov	 eax, DWORD PTR __Dest$[ebp]
  0000c	3b ca		 cmp	 ecx, edx
  0000e	74 24		 je	 SHORT $LN1@Move@2
  00010	56		 push	 esi
$LL3@Move@2:

; 2514 : 		*_Dest = _STD move(*_First);

  00011	8b 31		 mov	 esi, DWORD PTR [ecx]
  00013	89 30		 mov	 DWORD PTR [eax], esi
  00015	8b 71 04	 mov	 esi, DWORD PTR [ecx+4]
  00018	89 70 04	 mov	 DWORD PTR [eax+4], esi
  0001b	8b 71 08	 mov	 esi, DWORD PTR [ecx+8]
  0001e	89 70 08	 mov	 DWORD PTR [eax+8], esi
  00021	66 8b 71 0c	 mov	 si, WORD PTR [ecx+12]
  00025	66 89 70 0c	 mov	 WORD PTR [eax+12], si
  00029	83 c1 0e	 add	 ecx, 14			; 0000000eH
  0002c	83 c0 0e	 add	 eax, 14			; 0000000eH
  0002f	3b ca		 cmp	 ecx, edx
  00031	75 de		 jne	 SHORT $LL3@Move@2
  00033	5e		 pop	 esi
$LN1@Move@2:

; 2515 : 	return (_Dest);
; 2516 : 	}

  00034	5d		 pop	 ebp
  00035	c3		 ret	 0
??$_Move@PAUEXPCHAR_DATA@@PAU1@@std@@YAPAUEXPCHAR_DATA@@PAU1@00U_Nonscalar_ptr_iterator_tag@0@@Z ENDP ; std::_Move<EXPCHAR_DATA *,EXPCHAR_DATA *>
_TEXT	ENDS
PUBLIC	?destroy@?$allocator@UIMPERIALPET_DATA@@@std@@QAEXPAUIMPERIALPET_DATA@@@Z ; std::allocator<IMPERIALPET_DATA>::destroy
; Function compile flags: /Ogtp
; File d:\program files (x86)\microsoft visual studio 10.0\vc\include\xmemory
;	COMDAT ?destroy@?$allocator@UIMPERIALPET_DATA@@@std@@QAEXPAUIMPERIALPET_DATA@@@Z
_TEXT	SEGMENT
__Ptr$ = 8						; size = 4
?destroy@?$allocator@UIMPERIALPET_DATA@@@std@@QAEXPAUIMPERIALPET_DATA@@@Z PROC ; std::allocator<IMPERIALPET_DATA>::destroy, COMDAT
; _this$ = ecx

; 213  : 		_Destroy(_Ptr);
; 214  : 		}

  00000	c2 04 00	 ret	 4
?destroy@?$allocator@UIMPERIALPET_DATA@@@std@@QAEXPAUIMPERIALPET_DATA@@@Z ENDP ; std::allocator<IMPERIALPET_DATA>::destroy
_TEXT	ENDS
PUBLIC	?destroy@?$allocator@UEXPCHAR_DATA@@@std@@QAEXPAUEXPCHAR_DATA@@@Z ; std::allocator<EXPCHAR_DATA>::destroy
; Function compile flags: /Ogtp
;	COMDAT ?destroy@?$allocator@UEXPCHAR_DATA@@@std@@QAEXPAUEXPCHAR_DATA@@@Z
_TEXT	SEGMENT
__Ptr$ = 8						; size = 4
?destroy@?$allocator@UEXPCHAR_DATA@@@std@@QAEXPAUEXPCHAR_DATA@@@Z PROC ; std::allocator<EXPCHAR_DATA>::destroy, COMDAT
; _this$ = ecx

; 213  : 		_Destroy(_Ptr);
; 214  : 		}

  00000	c2 04 00	 ret	 4
?destroy@?$allocator@UEXPCHAR_DATA@@@std@@QAEXPAUEXPCHAR_DATA@@@Z ENDP ; std::allocator<EXPCHAR_DATA>::destroy
_TEXT	ENDS
PUBLIC	?construct@?$allocator@UIMPERIALPET_DATA@@@std@@QAEXPAUIMPERIALPET_DATA@@$$QAU3@@Z ; std::allocator<IMPERIALPET_DATA>::construct
; Function compile flags: /Ogtp
;	COMDAT ?construct@?$allocator@UIMPERIALPET_DATA@@@std@@QAEXPAUIMPERIALPET_DATA@@$$QAU3@@Z
_TEXT	SEGMENT
__Ptr$ = 8						; size = 4
__Val$ = 12						; size = 4
?construct@?$allocator@UIMPERIALPET_DATA@@@std@@QAEXPAUIMPERIALPET_DATA@@$$QAU3@@Z PROC ; std::allocator<IMPERIALPET_DATA>::construct, COMDAT
; _this$ = ecx

; 201  : 		{	// construct object at _Ptr with value _Val

  00000	55		 push	 ebp
  00001	8b ec		 mov	 ebp, esp

; 202  : 		::new ((void _FARQ *)_Ptr) _Ty(_STD forward<_Ty>(_Val));

  00003	8b 45 08	 mov	 eax, DWORD PTR __Ptr$[ebp]
  00006	85 c0		 test	 eax, eax
  00008	74 1b		 je	 SHORT $LN3@construct@5
  0000a	8b 4d 0c	 mov	 ecx, DWORD PTR __Val$[ebp]
  0000d	8b 11		 mov	 edx, DWORD PTR [ecx]
  0000f	89 10		 mov	 DWORD PTR [eax], edx
  00011	8b 51 04	 mov	 edx, DWORD PTR [ecx+4]
  00014	89 50 04	 mov	 DWORD PTR [eax+4], edx
  00017	8b 51 08	 mov	 edx, DWORD PTR [ecx+8]
  0001a	89 50 08	 mov	 DWORD PTR [eax+8], edx
  0001d	66 8b 49 0c	 mov	 cx, WORD PTR [ecx+12]
  00021	66 89 48 0c	 mov	 WORD PTR [eax+12], cx
$LN3@construct@5:

; 203  : 		}

  00025	5d		 pop	 ebp
  00026	c2 08 00	 ret	 8
?construct@?$allocator@UIMPERIALPET_DATA@@@std@@QAEXPAUIMPERIALPET_DATA@@$$QAU3@@Z ENDP ; std::allocator<IMPERIALPET_DATA>::construct
_TEXT	ENDS
PUBLIC	?construct@?$allocator@UEXPCHAR_DATA@@@std@@QAEXPAUEXPCHAR_DATA@@$$QAU3@@Z ; std::allocator<EXPCHAR_DATA>::construct
; Function compile flags: /Ogtp
;	COMDAT ?construct@?$allocator@UEXPCHAR_DATA@@@std@@QAEXPAUEXPCHAR_DATA@@$$QAU3@@Z
_TEXT	SEGMENT
__Ptr$ = 8						; size = 4
__Val$ = 12						; size = 4
?construct@?$allocator@UEXPCHAR_DATA@@@std@@QAEXPAUEXPCHAR_DATA@@$$QAU3@@Z PROC ; std::allocator<EXPCHAR_DATA>::construct, COMDAT
; _this$ = ecx

; 201  : 		{	// construct object at _Ptr with value _Val

  00000	55		 push	 ebp
  00001	8b ec		 mov	 ebp, esp

; 202  : 		::new ((void _FARQ *)_Ptr) _Ty(_STD forward<_Ty>(_Val));

  00003	8b 45 08	 mov	 eax, DWORD PTR __Ptr$[ebp]
  00006	85 c0		 test	 eax, eax
  00008	74 1b		 je	 SHORT $LN3@construct@6
  0000a	8b 4d 0c	 mov	 ecx, DWORD PTR __Val$[ebp]
  0000d	8b 11		 mov	 edx, DWORD PTR [ecx]
  0000f	89 10		 mov	 DWORD PTR [eax], edx
  00011	8b 51 04	 mov	 edx, DWORD PTR [ecx+4]
  00014	89 50 04	 mov	 DWORD PTR [eax+4], edx
  00017	8b 51 08	 mov	 edx, DWORD PTR [ecx+8]
  0001a	89 50 08	 mov	 DWORD PTR [eax+8], edx
  0001d	66 8b 49 0c	 mov	 cx, WORD PTR [ecx+12]
  00021	66 89 48 0c	 mov	 WORD PTR [eax+12], cx
$LN3@construct@6:

; 203  : 		}

  00025	5d		 pop	 ebp
  00026	c2 08 00	 ret	 8
?construct@?$allocator@UEXPCHAR_DATA@@@std@@QAEXPAUEXPCHAR_DATA@@$$QAU3@@Z ENDP ; std::allocator<EXPCHAR_DATA>::construct
_TEXT	ENDS
PUBLIC	??0?$vector@UIMPERIALPET_DATA@@V?$allocator@UIMPERIALPET_DATA@@@std@@@std@@QAE@XZ ; std::vector<IMPERIALPET_DATA,std::allocator<IMPERIALPET_DATA> >::vector<IMPERIALPET_DATA,std::allocator<IMPERIALPET_DATA> >
; Function compile flags: /Ogtp
; File d:\program files (x86)\microsoft visual studio 10.0\vc\include\vector
;	COMDAT ??0?$vector@UIMPERIALPET_DATA@@V?$allocator@UIMPERIALPET_DATA@@@std@@@std@@QAE@XZ
_TEXT	SEGMENT
??0?$vector@UIMPERIALPET_DATA@@V?$allocator@UIMPERIALPET_DATA@@@std@@@std@@QAE@XZ PROC ; std::vector<IMPERIALPET_DATA,std::allocator<IMPERIALPET_DATA> >::vector<IMPERIALPET_DATA,std::allocator<IMPERIALPET_DATA> >, COMDAT
; _this$ = ecx

; 507  : 		{	// construct empty vector

  00000	8b c1		 mov	 eax, ecx
  00002	33 c9		 xor	 ecx, ecx
  00004	89 08		 mov	 DWORD PTR [eax], ecx
  00006	89 48 04	 mov	 DWORD PTR [eax+4], ecx
  00009	89 48 08	 mov	 DWORD PTR [eax+8], ecx

; 508  : 		}

  0000c	c3		 ret	 0
??0?$vector@UIMPERIALPET_DATA@@V?$allocator@UIMPERIALPET_DATA@@@std@@@std@@QAE@XZ ENDP ; std::vector<IMPERIALPET_DATA,std::allocator<IMPERIALPET_DATA> >::vector<IMPERIALPET_DATA,std::allocator<IMPERIALPET_DATA> >
_TEXT	ENDS
PUBLIC	??0?$vector@UEXPCHAR_DATA@@V?$allocator@UEXPCHAR_DATA@@@std@@@std@@QAE@XZ ; std::vector<EXPCHAR_DATA,std::allocator<EXPCHAR_DATA> >::vector<EXPCHAR_DATA,std::allocator<EXPCHAR_DATA> >
; Function compile flags: /Ogtp
;	COMDAT ??0?$vector@UEXPCHAR_DATA@@V?$allocator@UEXPCHAR_DATA@@@std@@@std@@QAE@XZ
_TEXT	SEGMENT
??0?$vector@UEXPCHAR_DATA@@V?$allocator@UEXPCHAR_DATA@@@std@@@std@@QAE@XZ PROC ; std::vector<EXPCHAR_DATA,std::allocator<EXPCHAR_DATA> >::vector<EXPCHAR_DATA,std::allocator<EXPCHAR_DATA> >, COMDAT
; _this$ = ecx

; 507  : 		{	// construct empty vector

  00000	8b c1		 mov	 eax, ecx
  00002	33 c9		 xor	 ecx, ecx
  00004	89 08		 mov	 DWORD PTR [eax], ecx
  00006	89 48 04	 mov	 DWORD PTR [eax+4], ecx
  00009	89 48 08	 mov	 DWORD PTR [eax+8], ecx

; 508  : 		}

  0000c	c3		 ret	 0
??0?$vector@UEXPCHAR_DATA@@V?$allocator@UEXPCHAR_DATA@@@std@@@std@@QAE@XZ ENDP ; std::vector<EXPCHAR_DATA,std::allocator<EXPCHAR_DATA> >::vector<EXPCHAR_DATA,std::allocator<EXPCHAR_DATA> >
_TEXT	ENDS
PUBLIC	??0?$_Vector_iterator@V?$_Vector_val@UIMPERIALPET_DATA@@V?$allocator@UIMPERIALPET_DATA@@@std@@@std@@@std@@QAE@PAUIMPERIALPET_DATA@@PBU_Container_base0@1@@Z ; std::_Vector_iterator<std::_Vector_val<IMPERIALPET_DATA,std::allocator<IMPERIALPET_DATA> > >::_Vector_iterator<std::_Vector_val<IMPERIALPET_DATA,std::allocator<IMPERIALPET_DATA> > >
; Function compile flags: /Ogtp
;	COMDAT ??0?$_Vector_iterator@V?$_Vector_val@UIMPERIALPET_DATA@@V?$allocator@UIMPERIALPET_DATA@@@std@@@std@@@std@@QAE@PAUIMPERIALPET_DATA@@PBU_Container_base0@1@@Z
_TEXT	SEGMENT
__Parg$ = 8						; size = 4
__Pvector$ = 12						; size = 4
??0?$_Vector_iterator@V?$_Vector_val@UIMPERIALPET_DATA@@V?$allocator@UIMPERIALPET_DATA@@@std@@@std@@@std@@QAE@PAUIMPERIALPET_DATA@@PBU_Container_base0@1@@Z PROC ; std::_Vector_iterator<std::_Vector_val<IMPERIALPET_DATA,std::allocator<IMPERIALPET_DATA> > >::_Vector_iterator<std::_Vector_val<IMPERIALPET_DATA,std::allocator<IMPERIALPET_DATA> > >, COMDAT
; _this$ = ecx

; 304  : 		{	// construct with pointer _Parg

  00000	55		 push	 ebp
  00001	8b ec		 mov	 ebp, esp
  00003	8b c1		 mov	 eax, ecx
  00005	8b 4d 08	 mov	 ecx, DWORD PTR __Parg$[ebp]
  00008	89 08		 mov	 DWORD PTR [eax], ecx

; 305  : 		}

  0000a	5d		 pop	 ebp
  0000b	c2 08 00	 ret	 8
??0?$_Vector_iterator@V?$_Vector_val@UIMPERIALPET_DATA@@V?$allocator@UIMPERIALPET_DATA@@@std@@@std@@@std@@QAE@PAUIMPERIALPET_DATA@@PBU_Container_base0@1@@Z ENDP ; std::_Vector_iterator<std::_Vector_val<IMPERIALPET_DATA,std::allocator<IMPERIALPET_DATA> > >::_Vector_iterator<std::_Vector_val<IMPERIALPET_DATA,std::allocator<IMPERIALPET_DATA> > >
_TEXT	ENDS
PUBLIC	??9?$_Vector_const_iterator@V?$_Vector_val@UIMPERIALPET_DATA@@V?$allocator@UIMPERIALPET_DATA@@@std@@@std@@@std@@QBE_NABV01@@Z ; std::_Vector_const_iterator<std::_Vector_val<IMPERIALPET_DATA,std::allocator<IMPERIALPET_DATA> > >::operator!=
; Function compile flags: /Ogtp
;	COMDAT ??9?$_Vector_const_iterator@V?$_Vector_val@UIMPERIALPET_DATA@@V?$allocator@UIMPERIALPET_DATA@@@std@@@std@@@std@@QBE_NABV01@@Z
_TEXT	SEGMENT
__Right$ = 8						; size = 4
??9?$_Vector_const_iterator@V?$_Vector_val@UIMPERIALPET_DATA@@V?$allocator@UIMPERIALPET_DATA@@@std@@@std@@@std@@QBE_NABV01@@Z PROC ; std::_Vector_const_iterator<std::_Vector_val<IMPERIALPET_DATA,std::allocator<IMPERIALPET_DATA> > >::operator!=, COMDAT
; _this$ = ecx

; 207  : 		{	// test for iterator inequality

  00000	55		 push	 ebp
  00001	8b ec		 mov	 ebp, esp

; 208  : 		return (!(*this == _Right));

  00003	8b 01		 mov	 eax, DWORD PTR [ecx]
  00005	8b 55 08	 mov	 edx, DWORD PTR __Right$[ebp]
  00008	33 c9		 xor	 ecx, ecx
  0000a	3b 02		 cmp	 eax, DWORD PTR [edx]
  0000c	0f 95 c0	 setne	 al

; 209  : 		}

  0000f	5d		 pop	 ebp
  00010	c2 04 00	 ret	 4
??9?$_Vector_const_iterator@V?$_Vector_val@UIMPERIALPET_DATA@@V?$allocator@UIMPERIALPET_DATA@@@std@@@std@@@std@@QBE_NABV01@@Z ENDP ; std::_Vector_const_iterator<std::_Vector_val<IMPERIALPET_DATA,std::allocator<IMPERIALPET_DATA> > >::operator!=
_TEXT	ENDS
PUBLIC	??0?$_Vector_iterator@V?$_Vector_val@UEXPCHAR_DATA@@V?$allocator@UEXPCHAR_DATA@@@std@@@std@@@std@@QAE@PAUEXPCHAR_DATA@@PBU_Container_base0@1@@Z ; std::_Vector_iterator<std::_Vector_val<EXPCHAR_DATA,std::allocator<EXPCHAR_DATA> > >::_Vector_iterator<std::_Vector_val<EXPCHAR_DATA,std::allocator<EXPCHAR_DATA> > >
; Function compile flags: /Ogtp
;	COMDAT ??0?$_Vector_iterator@V?$_Vector_val@UEXPCHAR_DATA@@V?$allocator@UEXPCHAR_DATA@@@std@@@std@@@std@@QAE@PAUEXPCHAR_DATA@@PBU_Container_base0@1@@Z
_TEXT	SEGMENT
__Parg$ = 8						; size = 4
__Pvector$ = 12						; size = 4
??0?$_Vector_iterator@V?$_Vector_val@UEXPCHAR_DATA@@V?$allocator@UEXPCHAR_DATA@@@std@@@std@@@std@@QAE@PAUEXPCHAR_DATA@@PBU_Container_base0@1@@Z PROC ; std::_Vector_iterator<std::_Vector_val<EXPCHAR_DATA,std::allocator<EXPCHAR_DATA> > >::_Vector_iterator<std::_Vector_val<EXPCHAR_DATA,std::allocator<EXPCHAR_DATA> > >, COMDAT
; _this$ = ecx

; 304  : 		{	// construct with pointer _Parg

  00000	55		 push	 ebp
  00001	8b ec		 mov	 ebp, esp
  00003	8b c1		 mov	 eax, ecx
  00005	8b 4d 08	 mov	 ecx, DWORD PTR __Parg$[ebp]
  00008	89 08		 mov	 DWORD PTR [eax], ecx

; 305  : 		}

  0000a	5d		 pop	 ebp
  0000b	c2 08 00	 ret	 8
??0?$_Vector_iterator@V?$_Vector_val@UEXPCHAR_DATA@@V?$allocator@UEXPCHAR_DATA@@@std@@@std@@@std@@QAE@PAUEXPCHAR_DATA@@PBU_Container_base0@1@@Z ENDP ; std::_Vector_iterator<std::_Vector_val<EXPCHAR_DATA,std::allocator<EXPCHAR_DATA> > >::_Vector_iterator<std::_Vector_val<EXPCHAR_DATA,std::allocator<EXPCHAR_DATA> > >
_TEXT	ENDS
PUBLIC	??9?$_Vector_const_iterator@V?$_Vector_val@UEXPCHAR_DATA@@V?$allocator@UEXPCHAR_DATA@@@std@@@std@@@std@@QBE_NABV01@@Z ; std::_Vector_const_iterator<std::_Vector_val<EXPCHAR_DATA,std::allocator<EXPCHAR_DATA> > >::operator!=
; Function compile flags: /Ogtp
;	COMDAT ??9?$_Vector_const_iterator@V?$_Vector_val@UEXPCHAR_DATA@@V?$allocator@UEXPCHAR_DATA@@@std@@@std@@@std@@QBE_NABV01@@Z
_TEXT	SEGMENT
__Right$ = 8						; size = 4
??9?$_Vector_const_iterator@V?$_Vector_val@UEXPCHAR_DATA@@V?$allocator@UEXPCHAR_DATA@@@std@@@std@@@std@@QBE_NABV01@@Z PROC ; std::_Vector_const_iterator<std::_Vector_val<EXPCHAR_DATA,std::allocator<EXPCHAR_DATA> > >::operator!=, COMDAT
; _this$ = ecx

; 207  : 		{	// test for iterator inequality

  00000	55		 push	 ebp
  00001	8b ec		 mov	 ebp, esp

; 208  : 		return (!(*this == _Right));

  00003	8b 01		 mov	 eax, DWORD PTR [ecx]
  00005	8b 55 08	 mov	 edx, DWORD PTR __Right$[ebp]
  00008	33 c9		 xor	 ecx, ecx
  0000a	3b 02		 cmp	 eax, DWORD PTR [edx]
  0000c	0f 95 c0	 setne	 al

; 209  : 		}

  0000f	5d		 pop	 ebp
  00010	c2 04 00	 ret	 4
??9?$_Vector_const_iterator@V?$_Vector_val@UEXPCHAR_DATA@@V?$allocator@UEXPCHAR_DATA@@@std@@@std@@@std@@QBE_NABV01@@Z ENDP ; std::_Vector_const_iterator<std::_Vector_val<EXPCHAR_DATA,std::allocator<EXPCHAR_DATA> > >::operator!=
_TEXT	ENDS
PUBLIC	?allocate@?$allocator@UIMPERIALPET_DATA@@@std@@QAEPAUIMPERIALPET_DATA@@I@Z ; std::allocator<IMPERIALPET_DATA>::allocate
; Function compile flags: /Ogtp
; File d:\program files (x86)\microsoft visual studio 10.0\vc\include\xmemory
;	COMDAT ?allocate@?$allocator@UIMPERIALPET_DATA@@@std@@QAEPAUIMPERIALPET_DATA@@I@Z
_TEXT	SEGMENT
$T212458 = -12						; size = 12
$T212450 = 8						; size = 4
__Count$ = 8						; size = 4
?allocate@?$allocator@UIMPERIALPET_DATA@@@std@@QAEPAUIMPERIALPET_DATA@@I@Z PROC ; std::allocator<IMPERIALPET_DATA>::allocate, COMDAT
; _this$ = ecx

; 186  : 		{	// allocate array of _Count elements

  00000	55		 push	 ebp
  00001	8b ec		 mov	 ebp, esp

; 187  : 		return (_Allocate(_Count, (pointer)0));

  00003	8b 4d 08	 mov	 ecx, DWORD PTR __Count$[ebp]
  00006	83 ec 0c	 sub	 esp, 12			; 0000000cH
  00009	33 c0		 xor	 eax, eax
  0000b	85 c9		 test	 ecx, ecx
  0000d	74 48		 je	 SHORT $LN1@allocate
  0000f	81 f9 92 24 49
	12		 cmp	 ecx, 306783378		; 12492492H
  00015	77 18		 ja	 SHORT $LN3@allocate
  00017	8d 04 cd 00 00
	00 00		 lea	 eax, DWORD PTR [ecx*8]
  0001e	2b c1		 sub	 eax, ecx
  00020	03 c0		 add	 eax, eax
  00022	50		 push	 eax
  00023	e8 00 00 00 00	 call	 ??2@YAPAXI@Z		; operator new
  00028	83 c4 04	 add	 esp, 4
  0002b	85 c0		 test	 eax, eax
  0002d	75 28		 jne	 SHORT $LN1@allocate
$LN3@allocate:
  0002f	8d 4d 08	 lea	 ecx, DWORD PTR $T212450[ebp]
  00032	51		 push	 ecx
  00033	8d 4d f4	 lea	 ecx, DWORD PTR $T212458[ebp]
  00036	c7 45 08 00 00
	00 00		 mov	 DWORD PTR $T212450[ebp], 0
  0003d	e8 00 00 00 00	 call	 ??0exception@std@@QAE@ABQBD@Z ; std::exception::exception
  00042	68 00 00 00 00	 push	 OFFSET __TI2?AVbad_alloc@std@@
  00047	8d 55 f4	 lea	 edx, DWORD PTR $T212458[ebp]
  0004a	52		 push	 edx
  0004b	c7 45 f4 00 00
	00 00		 mov	 DWORD PTR $T212458[ebp], OFFSET ??_7bad_alloc@std@@6B@
  00052	e8 00 00 00 00	 call	 __CxxThrowException@8
$LN13@allocate:
$LN1@allocate:

; 188  : 		}

  00057	8b e5		 mov	 esp, ebp
  00059	5d		 pop	 ebp
  0005a	c2 04 00	 ret	 4
$LN12@allocate:
?allocate@?$allocator@UIMPERIALPET_DATA@@@std@@QAEPAUIMPERIALPET_DATA@@I@Z ENDP ; std::allocator<IMPERIALPET_DATA>::allocate
_TEXT	ENDS
PUBLIC	?allocate@?$allocator@UEXPCHAR_DATA@@@std@@QAEPAUEXPCHAR_DATA@@I@Z ; std::allocator<EXPCHAR_DATA>::allocate
; Function compile flags: /Ogtp
;	COMDAT ?allocate@?$allocator@UEXPCHAR_DATA@@@std@@QAEPAUEXPCHAR_DATA@@I@Z
_TEXT	SEGMENT
$T212481 = -12						; size = 12
$T212473 = 8						; size = 4
__Count$ = 8						; size = 4
?allocate@?$allocator@UEXPCHAR_DATA@@@std@@QAEPAUEXPCHAR_DATA@@I@Z PROC ; std::allocator<EXPCHAR_DATA>::allocate, COMDAT
; _this$ = ecx

; 186  : 		{	// allocate array of _Count elements

  00000	55		 push	 ebp
  00001	8b ec		 mov	 ebp, esp

; 187  : 		return (_Allocate(_Count, (pointer)0));

  00003	8b 4d 08	 mov	 ecx, DWORD PTR __Count$[ebp]
  00006	83 ec 0c	 sub	 esp, 12			; 0000000cH
  00009	33 c0		 xor	 eax, eax
  0000b	85 c9		 test	 ecx, ecx
  0000d	74 48		 je	 SHORT $LN1@allocate@2
  0000f	81 f9 92 24 49
	12		 cmp	 ecx, 306783378		; 12492492H
  00015	77 18		 ja	 SHORT $LN3@allocate@2
  00017	8d 04 cd 00 00
	00 00		 lea	 eax, DWORD PTR [ecx*8]
  0001e	2b c1		 sub	 eax, ecx
  00020	03 c0		 add	 eax, eax
  00022	50		 push	 eax
  00023	e8 00 00 00 00	 call	 ??2@YAPAXI@Z		; operator new
  00028	83 c4 04	 add	 esp, 4
  0002b	85 c0		 test	 eax, eax
  0002d	75 28		 jne	 SHORT $LN1@allocate@2
$LN3@allocate@2:
  0002f	8d 4d 08	 lea	 ecx, DWORD PTR $T212473[ebp]
  00032	51		 push	 ecx
  00033	8d 4d f4	 lea	 ecx, DWORD PTR $T212481[ebp]
  00036	c7 45 08 00 00
	00 00		 mov	 DWORD PTR $T212473[ebp], 0
  0003d	e8 00 00 00 00	 call	 ??0exception@std@@QAE@ABQBD@Z ; std::exception::exception
  00042	68 00 00 00 00	 push	 OFFSET __TI2?AVbad_alloc@std@@
  00047	8d 55 f4	 lea	 edx, DWORD PTR $T212481[ebp]
  0004a	52		 push	 edx
  0004b	c7 45 f4 00 00
	00 00		 mov	 DWORD PTR $T212481[ebp], OFFSET ??_7bad_alloc@std@@6B@
  00052	e8 00 00 00 00	 call	 __CxxThrowException@8
$LN13@allocate@2:
$LN1@allocate@2:

; 188  : 		}

  00057	8b e5		 mov	 esp, ebp
  00059	5d		 pop	 ebp
  0005a	c2 04 00	 ret	 4
$LN12@allocate@2:
?allocate@?$allocator@UEXPCHAR_DATA@@@std@@QAEPAUEXPCHAR_DATA@@I@Z ENDP ; std::allocator<EXPCHAR_DATA>::allocate
_TEXT	ENDS
PUBLIC	??$_Cons_val@V?$allocator@UIMPERIALPET_DATA@@@std@@UIMPERIALPET_DATA@@ABU3@@std@@YAXAAV?$allocator@UIMPERIALPET_DATA@@@0@PAUIMPERIALPET_DATA@@ABU2@@Z ; std::_Cons_val<std::allocator<IMPERIALPET_DATA>,IMPERIALPET_DATA,IMPERIALPET_DATA const &>
; Function compile flags: /Ogtp
;	COMDAT ??$_Cons_val@V?$allocator@UIMPERIALPET_DATA@@@std@@UIMPERIALPET_DATA@@ABU3@@std@@YAXAAV?$allocator@UIMPERIALPET_DATA@@@0@PAUIMPERIALPET_DATA@@ABU2@@Z
_TEXT	SEGMENT
__Alval$ = 8						; size = 4
__Pdest$ = 12						; size = 4
__Src$ = 16						; size = 4
??$_Cons_val@V?$allocator@UIMPERIALPET_DATA@@@std@@UIMPERIALPET_DATA@@ABU3@@std@@YAXAAV?$allocator@UIMPERIALPET_DATA@@@0@PAUIMPERIALPET_DATA@@ABU2@@Z PROC ; std::_Cons_val<std::allocator<IMPERIALPET_DATA>,IMPERIALPET_DATA,IMPERIALPET_DATA const &>, COMDAT

; 279  : 	{	// construct using allocator

  00000	55		 push	 ebp
  00001	8b ec		 mov	 ebp, esp

; 280  : 	_Alval.construct(_Pdest, _STD forward<_Ty2>(_Src));

  00003	8b 45 0c	 mov	 eax, DWORD PTR __Pdest$[ebp]
  00006	85 c0		 test	 eax, eax
  00008	74 1b		 je	 SHORT $LN9@Cons_val@3
  0000a	8b 4d 10	 mov	 ecx, DWORD PTR __Src$[ebp]
  0000d	8b 11		 mov	 edx, DWORD PTR [ecx]
  0000f	89 10		 mov	 DWORD PTR [eax], edx
  00011	8b 51 04	 mov	 edx, DWORD PTR [ecx+4]
  00014	89 50 04	 mov	 DWORD PTR [eax+4], edx
  00017	8b 51 08	 mov	 edx, DWORD PTR [ecx+8]
  0001a	89 50 08	 mov	 DWORD PTR [eax+8], edx
  0001d	66 8b 49 0c	 mov	 cx, WORD PTR [ecx+12]
  00021	66 89 48 0c	 mov	 WORD PTR [eax+12], cx
$LN9@Cons_val@3:

; 281  : 	}

  00025	5d		 pop	 ebp
  00026	c3		 ret	 0
??$_Cons_val@V?$allocator@UIMPERIALPET_DATA@@@std@@UIMPERIALPET_DATA@@ABU3@@std@@YAXAAV?$allocator@UIMPERIALPET_DATA@@@0@PAUIMPERIALPET_DATA@@ABU2@@Z ENDP ; std::_Cons_val<std::allocator<IMPERIALPET_DATA>,IMPERIALPET_DATA,IMPERIALPET_DATA const &>
_TEXT	ENDS
PUBLIC	??$_Cons_val@V?$allocator@UEXPCHAR_DATA@@@std@@UEXPCHAR_DATA@@ABU3@@std@@YAXAAV?$allocator@UEXPCHAR_DATA@@@0@PAUEXPCHAR_DATA@@ABU2@@Z ; std::_Cons_val<std::allocator<EXPCHAR_DATA>,EXPCHAR_DATA,EXPCHAR_DATA const &>
; Function compile flags: /Ogtp
;	COMDAT ??$_Cons_val@V?$allocator@UEXPCHAR_DATA@@@std@@UEXPCHAR_DATA@@ABU3@@std@@YAXAAV?$allocator@UEXPCHAR_DATA@@@0@PAUEXPCHAR_DATA@@ABU2@@Z
_TEXT	SEGMENT
__Alval$ = 8						; size = 4
__Pdest$ = 12						; size = 4
__Src$ = 16						; size = 4
??$_Cons_val@V?$allocator@UEXPCHAR_DATA@@@std@@UEXPCHAR_DATA@@ABU3@@std@@YAXAAV?$allocator@UEXPCHAR_DATA@@@0@PAUEXPCHAR_DATA@@ABU2@@Z PROC ; std::_Cons_val<std::allocator<EXPCHAR_DATA>,EXPCHAR_DATA,EXPCHAR_DATA const &>, COMDAT

; 279  : 	{	// construct using allocator

  00000	55		 push	 ebp
  00001	8b ec		 mov	 ebp, esp

; 280  : 	_Alval.construct(_Pdest, _STD forward<_Ty2>(_Src));

  00003	8b 45 0c	 mov	 eax, DWORD PTR __Pdest$[ebp]
  00006	85 c0		 test	 eax, eax
  00008	74 1b		 je	 SHORT $LN9@Cons_val@4
  0000a	8b 4d 10	 mov	 ecx, DWORD PTR __Src$[ebp]
  0000d	8b 11		 mov	 edx, DWORD PTR [ecx]
  0000f	89 10		 mov	 DWORD PTR [eax], edx
  00011	8b 51 04	 mov	 edx, DWORD PTR [ecx+4]
  00014	89 50 04	 mov	 DWORD PTR [eax+4], edx
  00017	8b 51 08	 mov	 edx, DWORD PTR [ecx+8]
  0001a	89 50 08	 mov	 DWORD PTR [eax+8], edx
  0001d	66 8b 49 0c	 mov	 cx, WORD PTR [ecx+12]
  00021	66 89 48 0c	 mov	 WORD PTR [eax+12], cx
$LN9@Cons_val@4:

; 281  : 	}

  00025	5d		 pop	 ebp
  00026	c3		 ret	 0
??$_Cons_val@V?$allocator@UEXPCHAR_DATA@@@std@@UEXPCHAR_DATA@@ABU3@@std@@YAXAAV?$allocator@UEXPCHAR_DATA@@@0@PAUEXPCHAR_DATA@@ABU2@@Z ENDP ; std::_Cons_val<std::allocator<EXPCHAR_DATA>,EXPCHAR_DATA,EXPCHAR_DATA const &>
_TEXT	ENDS
PUBLIC	??$_Move@PAUIMPERIALPET_DATA@@PAU1@@std@@YAPAUIMPERIALPET_DATA@@PAU1@00@Z ; std::_Move<IMPERIALPET_DATA *,IMPERIALPET_DATA *>
; Function compile flags: /Ogtp
; File d:\program files (x86)\microsoft visual studio 10.0\vc\include\xutility
;	COMDAT ??$_Move@PAUIMPERIALPET_DATA@@PAU1@@std@@YAPAUIMPERIALPET_DATA@@PAU1@00@Z
_TEXT	SEGMENT
__First$ = 8						; size = 4
__Last$ = 12						; size = 4
__Dest$ = 16						; size = 4
??$_Move@PAUIMPERIALPET_DATA@@PAU1@@std@@YAPAUIMPERIALPET_DATA@@PAU1@00@Z PROC ; std::_Move<IMPERIALPET_DATA *,IMPERIALPET_DATA *>, COMDAT

; 2533 : 	{	// move [_First, _Last) to [_Dest, ...), unchecked

  00000	55		 push	 ebp
  00001	8b ec		 mov	 ebp, esp

; 2534 : 	return (_Move(_First, _Last,
; 2535 : 		_Dest, _Ptr_cat(_First, _Dest)));

  00003	8b 4d 08	 mov	 ecx, DWORD PTR __First$[ebp]
  00006	8b 55 0c	 mov	 edx, DWORD PTR __Last$[ebp]
  00009	8b 45 10	 mov	 eax, DWORD PTR __Dest$[ebp]
  0000c	3b ca		 cmp	 ecx, edx
  0000e	74 24		 je	 SHORT $LN5@Move@3
  00010	56		 push	 esi
$LL7@Move@3:
  00011	8b 31		 mov	 esi, DWORD PTR [ecx]
  00013	89 30		 mov	 DWORD PTR [eax], esi
  00015	8b 71 04	 mov	 esi, DWORD PTR [ecx+4]
  00018	89 70 04	 mov	 DWORD PTR [eax+4], esi
  0001b	8b 71 08	 mov	 esi, DWORD PTR [ecx+8]
  0001e	89 70 08	 mov	 DWORD PTR [eax+8], esi
  00021	66 8b 71 0c	 mov	 si, WORD PTR [ecx+12]
  00025	66 89 70 0c	 mov	 WORD PTR [eax+12], si
  00029	83 c1 0e	 add	 ecx, 14			; 0000000eH
  0002c	83 c0 0e	 add	 eax, 14			; 0000000eH
  0002f	3b ca		 cmp	 ecx, edx
  00031	75 de		 jne	 SHORT $LL7@Move@3
  00033	5e		 pop	 esi
$LN5@Move@3:

; 2536 : 	}

  00034	5d		 pop	 ebp
  00035	c3		 ret	 0
??$_Move@PAUIMPERIALPET_DATA@@PAU1@@std@@YAPAUIMPERIALPET_DATA@@PAU1@00@Z ENDP ; std::_Move<IMPERIALPET_DATA *,IMPERIALPET_DATA *>
_TEXT	ENDS
PUBLIC	??$_Move@PAUEXPCHAR_DATA@@PAU1@@std@@YAPAUEXPCHAR_DATA@@PAU1@00@Z ; std::_Move<EXPCHAR_DATA *,EXPCHAR_DATA *>
; Function compile flags: /Ogtp
;	COMDAT ??$_Move@PAUEXPCHAR_DATA@@PAU1@@std@@YAPAUEXPCHAR_DATA@@PAU1@00@Z
_TEXT	SEGMENT
__First$ = 8						; size = 4
__Last$ = 12						; size = 4
__Dest$ = 16						; size = 4
??$_Move@PAUEXPCHAR_DATA@@PAU1@@std@@YAPAUEXPCHAR_DATA@@PAU1@00@Z PROC ; std::_Move<EXPCHAR_DATA *,EXPCHAR_DATA *>, COMDAT

; 2533 : 	{	// move [_First, _Last) to [_Dest, ...), unchecked

  00000	55		 push	 ebp
  00001	8b ec		 mov	 ebp, esp

; 2534 : 	return (_Move(_First, _Last,
; 2535 : 		_Dest, _Ptr_cat(_First, _Dest)));

  00003	8b 4d 08	 mov	 ecx, DWORD PTR __First$[ebp]
  00006	8b 55 0c	 mov	 edx, DWORD PTR __Last$[ebp]
  00009	8b 45 10	 mov	 eax, DWORD PTR __Dest$[ebp]
  0000c	3b ca		 cmp	 ecx, edx
  0000e	74 24		 je	 SHORT $LN5@Move@4
  00010	56		 push	 esi
$LL7@Move@4:
  00011	8b 31		 mov	 esi, DWORD PTR [ecx]
  00013	89 30		 mov	 DWORD PTR [eax], esi
  00015	8b 71 04	 mov	 esi, DWORD PTR [ecx+4]
  00018	89 70 04	 mov	 DWORD PTR [eax+4], esi
  0001b	8b 71 08	 mov	 esi, DWORD PTR [ecx+8]
  0001e	89 70 08	 mov	 DWORD PTR [eax+8], esi
  00021	66 8b 71 0c	 mov	 si, WORD PTR [ecx+12]
  00025	66 89 70 0c	 mov	 WORD PTR [eax+12], si
  00029	83 c1 0e	 add	 ecx, 14			; 0000000eH
  0002c	83 c0 0e	 add	 eax, 14			; 0000000eH
  0002f	3b ca		 cmp	 ecx, edx
  00031	75 de		 jne	 SHORT $LL7@Move@4
  00033	5e		 pop	 esi
$LN5@Move@4:

; 2536 : 	}

  00034	5d		 pop	 ebp
  00035	c3		 ret	 0
??$_Move@PAUEXPCHAR_DATA@@PAU1@@std@@YAPAUEXPCHAR_DATA@@PAU1@00@Z ENDP ; std::_Move<EXPCHAR_DATA *,EXPCHAR_DATA *>
_TEXT	ENDS
PUBLIC	??$_Dest_val@V?$allocator@UIMPERIALPET_DATA@@@std@@UIMPERIALPET_DATA@@@std@@YAXAAV?$allocator@UIMPERIALPET_DATA@@@0@PAUIMPERIALPET_DATA@@@Z ; std::_Dest_val<std::allocator<IMPERIALPET_DATA>,IMPERIALPET_DATA>
; Function compile flags: /Ogtp
; File d:\program files (x86)\microsoft visual studio 10.0\vc\include\xmemory
;	COMDAT ??$_Dest_val@V?$allocator@UIMPERIALPET_DATA@@@std@@UIMPERIALPET_DATA@@@std@@YAXAAV?$allocator@UIMPERIALPET_DATA@@@0@PAUIMPERIALPET_DATA@@@Z
_TEXT	SEGMENT
__Alval$ = 8						; size = 4
__Pdest$ = 12						; size = 4
??$_Dest_val@V?$allocator@UIMPERIALPET_DATA@@@std@@UIMPERIALPET_DATA@@@std@@YAXAAV?$allocator@UIMPERIALPET_DATA@@@0@PAUIMPERIALPET_DATA@@@Z PROC ; std::_Dest_val<std::allocator<IMPERIALPET_DATA>,IMPERIALPET_DATA>, COMDAT

; 287  : 	_Alval.destroy(_Pdest);
; 288  : 	}

  00000	c3		 ret	 0
??$_Dest_val@V?$allocator@UIMPERIALPET_DATA@@@std@@UIMPERIALPET_DATA@@@std@@YAXAAV?$allocator@UIMPERIALPET_DATA@@@0@PAUIMPERIALPET_DATA@@@Z ENDP ; std::_Dest_val<std::allocator<IMPERIALPET_DATA>,IMPERIALPET_DATA>
_TEXT	ENDS
PUBLIC	??$_Dest_val@V?$allocator@UEXPCHAR_DATA@@@std@@UEXPCHAR_DATA@@@std@@YAXAAV?$allocator@UEXPCHAR_DATA@@@0@PAUEXPCHAR_DATA@@@Z ; std::_Dest_val<std::allocator<EXPCHAR_DATA>,EXPCHAR_DATA>
; Function compile flags: /Ogtp
;	COMDAT ??$_Dest_val@V?$allocator@UEXPCHAR_DATA@@@std@@UEXPCHAR_DATA@@@std@@YAXAAV?$allocator@UEXPCHAR_DATA@@@0@PAUEXPCHAR_DATA@@@Z
_TEXT	SEGMENT
__Alval$ = 8						; size = 4
__Pdest$ = 12						; size = 4
??$_Dest_val@V?$allocator@UEXPCHAR_DATA@@@std@@UEXPCHAR_DATA@@@std@@YAXAAV?$allocator@UEXPCHAR_DATA@@@0@PAUEXPCHAR_DATA@@@Z PROC ; std::_Dest_val<std::allocator<EXPCHAR_DATA>,EXPCHAR_DATA>, COMDAT

; 287  : 	_Alval.destroy(_Pdest);
; 288  : 	}

  00000	c3		 ret	 0
??$_Dest_val@V?$allocator@UEXPCHAR_DATA@@@std@@UEXPCHAR_DATA@@@std@@YAXAAV?$allocator@UEXPCHAR_DATA@@@0@PAUEXPCHAR_DATA@@@Z ENDP ; std::_Dest_val<std::allocator<EXPCHAR_DATA>,EXPCHAR_DATA>
_TEXT	ENDS
PUBLIC	??$_Cons_val@V?$allocator@UIMPERIALPET_DATA@@@std@@UIMPERIALPET_DATA@@U3@@std@@YAXAAV?$allocator@UIMPERIALPET_DATA@@@0@PAUIMPERIALPET_DATA@@$$QAU2@@Z ; std::_Cons_val<std::allocator<IMPERIALPET_DATA>,IMPERIALPET_DATA,IMPERIALPET_DATA>
; Function compile flags: /Ogtp
;	COMDAT ??$_Cons_val@V?$allocator@UIMPERIALPET_DATA@@@std@@UIMPERIALPET_DATA@@U3@@std@@YAXAAV?$allocator@UIMPERIALPET_DATA@@@0@PAUIMPERIALPET_DATA@@$$QAU2@@Z
_TEXT	SEGMENT
__Alval$ = 8						; size = 4
__Pdest$ = 12						; size = 4
__Src$ = 16						; size = 4
??$_Cons_val@V?$allocator@UIMPERIALPET_DATA@@@std@@UIMPERIALPET_DATA@@U3@@std@@YAXAAV?$allocator@UIMPERIALPET_DATA@@@0@PAUIMPERIALPET_DATA@@$$QAU2@@Z PROC ; std::_Cons_val<std::allocator<IMPERIALPET_DATA>,IMPERIALPET_DATA,IMPERIALPET_DATA>, COMDAT

; 279  : 	{	// construct using allocator

  00000	55		 push	 ebp
  00001	8b ec		 mov	 ebp, esp

; 280  : 	_Alval.construct(_Pdest, _STD forward<_Ty2>(_Src));

  00003	8b 45 0c	 mov	 eax, DWORD PTR __Pdest$[ebp]
  00006	85 c0		 test	 eax, eax
  00008	74 1b		 je	 SHORT $LN7@Cons_val@5
  0000a	8b 4d 10	 mov	 ecx, DWORD PTR __Src$[ebp]
  0000d	8b 11		 mov	 edx, DWORD PTR [ecx]
  0000f	89 10		 mov	 DWORD PTR [eax], edx
  00011	8b 51 04	 mov	 edx, DWORD PTR [ecx+4]
  00014	89 50 04	 mov	 DWORD PTR [eax+4], edx
  00017	8b 51 08	 mov	 edx, DWORD PTR [ecx+8]
  0001a	89 50 08	 mov	 DWORD PTR [eax+8], edx
  0001d	66 8b 49 0c	 mov	 cx, WORD PTR [ecx+12]
  00021	66 89 48 0c	 mov	 WORD PTR [eax+12], cx
$LN7@Cons_val@5:

; 281  : 	}

  00025	5d		 pop	 ebp
  00026	c3		 ret	 0
??$_Cons_val@V?$allocator@UIMPERIALPET_DATA@@@std@@UIMPERIALPET_DATA@@U3@@std@@YAXAAV?$allocator@UIMPERIALPET_DATA@@@0@PAUIMPERIALPET_DATA@@$$QAU2@@Z ENDP ; std::_Cons_val<std::allocator<IMPERIALPET_DATA>,IMPERIALPET_DATA,IMPERIALPET_DATA>
_TEXT	ENDS
PUBLIC	??$_Cons_val@V?$allocator@UEXPCHAR_DATA@@@std@@UEXPCHAR_DATA@@U3@@std@@YAXAAV?$allocator@UEXPCHAR_DATA@@@0@PAUEXPCHAR_DATA@@$$QAU2@@Z ; std::_Cons_val<std::allocator<EXPCHAR_DATA>,EXPCHAR_DATA,EXPCHAR_DATA>
; Function compile flags: /Ogtp
;	COMDAT ??$_Cons_val@V?$allocator@UEXPCHAR_DATA@@@std@@UEXPCHAR_DATA@@U3@@std@@YAXAAV?$allocator@UEXPCHAR_DATA@@@0@PAUEXPCHAR_DATA@@$$QAU2@@Z
_TEXT	SEGMENT
__Alval$ = 8						; size = 4
__Pdest$ = 12						; size = 4
__Src$ = 16						; size = 4
??$_Cons_val@V?$allocator@UEXPCHAR_DATA@@@std@@UEXPCHAR_DATA@@U3@@std@@YAXAAV?$allocator@UEXPCHAR_DATA@@@0@PAUEXPCHAR_DATA@@$$QAU2@@Z PROC ; std::_Cons_val<std::allocator<EXPCHAR_DATA>,EXPCHAR_DATA,EXPCHAR_DATA>, COMDAT

; 279  : 	{	// construct using allocator

  00000	55		 push	 ebp
  00001	8b ec		 mov	 ebp, esp

; 280  : 	_Alval.construct(_Pdest, _STD forward<_Ty2>(_Src));

  00003	8b 45 0c	 mov	 eax, DWORD PTR __Pdest$[ebp]
  00006	85 c0		 test	 eax, eax
  00008	74 1b		 je	 SHORT $LN7@Cons_val@6
  0000a	8b 4d 10	 mov	 ecx, DWORD PTR __Src$[ebp]
  0000d	8b 11		 mov	 edx, DWORD PTR [ecx]
  0000f	89 10		 mov	 DWORD PTR [eax], edx
  00011	8b 51 04	 mov	 edx, DWORD PTR [ecx+4]
  00014	89 50 04	 mov	 DWORD PTR [eax+4], edx
  00017	8b 51 08	 mov	 edx, DWORD PTR [ecx+8]
  0001a	89 50 08	 mov	 DWORD PTR [eax+8], edx
  0001d	66 8b 49 0c	 mov	 cx, WORD PTR [ecx+12]
  00021	66 89 48 0c	 mov	 WORD PTR [eax+12], cx
$LN7@Cons_val@6:

; 281  : 	}

  00025	5d		 pop	 ebp
  00026	c3		 ret	 0
??$_Cons_val@V?$allocator@UEXPCHAR_DATA@@@std@@UEXPCHAR_DATA@@U3@@std@@YAXAAV?$allocator@UEXPCHAR_DATA@@@0@PAUEXPCHAR_DATA@@$$QAU2@@Z ENDP ; std::_Cons_val<std::allocator<EXPCHAR_DATA>,EXPCHAR_DATA,EXPCHAR_DATA>
_TEXT	ENDS
PUBLIC	?begin@?$vector@UIMPERIALPET_DATA@@V?$allocator@UIMPERIALPET_DATA@@@std@@@std@@QAE?AV?$_Vector_iterator@V?$_Vector_val@UIMPERIALPET_DATA@@V?$allocator@UIMPERIALPET_DATA@@@std@@@std@@@2@XZ ; std::vector<IMPERIALPET_DATA,std::allocator<IMPERIALPET_DATA> >::begin
; Function compile flags: /Ogtp
; File d:\program files (x86)\microsoft visual studio 10.0\vc\include\vector
;	COMDAT ?begin@?$vector@UIMPERIALPET_DATA@@V?$allocator@UIMPERIALPET_DATA@@@std@@@std@@QAE?AV?$_Vector_iterator@V?$_Vector_val@UIMPERIALPET_DATA@@V?$allocator@UIMPERIALPET_DATA@@@std@@@std@@@2@XZ
_TEXT	SEGMENT
___$ReturnUdt$ = 8					; size = 4
?begin@?$vector@UIMPERIALPET_DATA@@V?$allocator@UIMPERIALPET_DATA@@@std@@@std@@QAE?AV?$_Vector_iterator@V?$_Vector_val@UIMPERIALPET_DATA@@V?$allocator@UIMPERIALPET_DATA@@@std@@@std@@@2@XZ PROC ; std::vector<IMPERIALPET_DATA,std::allocator<IMPERIALPET_DATA> >::begin, COMDAT
; _this$ = ecx

; 781  : 		{	// return iterator for beginning of mutable sequence

  00000	55		 push	 ebp
  00001	8b ec		 mov	 ebp, esp

; 782  : 		return (iterator(this->_Myfirst, this));

  00003	8b 09		 mov	 ecx, DWORD PTR [ecx]
  00005	8b 45 08	 mov	 eax, DWORD PTR ___$ReturnUdt$[ebp]
  00008	89 08		 mov	 DWORD PTR [eax], ecx

; 783  : 		}

  0000a	5d		 pop	 ebp
  0000b	c2 04 00	 ret	 4
?begin@?$vector@UIMPERIALPET_DATA@@V?$allocator@UIMPERIALPET_DATA@@@std@@@std@@QAE?AV?$_Vector_iterator@V?$_Vector_val@UIMPERIALPET_DATA@@V?$allocator@UIMPERIALPET_DATA@@@std@@@std@@@2@XZ ENDP ; std::vector<IMPERIALPET_DATA,std::allocator<IMPERIALPET_DATA> >::begin
_TEXT	ENDS
PUBLIC	?end@?$vector@UIMPERIALPET_DATA@@V?$allocator@UIMPERIALPET_DATA@@@std@@@std@@QAE?AV?$_Vector_iterator@V?$_Vector_val@UIMPERIALPET_DATA@@V?$allocator@UIMPERIALPET_DATA@@@std@@@std@@@2@XZ ; std::vector<IMPERIALPET_DATA,std::allocator<IMPERIALPET_DATA> >::end
; Function compile flags: /Ogtp
;	COMDAT ?end@?$vector@UIMPERIALPET_DATA@@V?$allocator@UIMPERIALPET_DATA@@@std@@@std@@QAE?AV?$_Vector_iterator@V?$_Vector_val@UIMPERIALPET_DATA@@V?$allocator@UIMPERIALPET_DATA@@@std@@@std@@@2@XZ
_TEXT	SEGMENT
___$ReturnUdt$ = 8					; size = 4
?end@?$vector@UIMPERIALPET_DATA@@V?$allocator@UIMPERIALPET_DATA@@@std@@@std@@QAE?AV?$_Vector_iterator@V?$_Vector_val@UIMPERIALPET_DATA@@V?$allocator@UIMPERIALPET_DATA@@@std@@@std@@@2@XZ PROC ; std::vector<IMPERIALPET_DATA,std::allocator<IMPERIALPET_DATA> >::end, COMDAT
; _this$ = ecx

; 791  : 		{	// return iterator for end of mutable sequence

  00000	55		 push	 ebp
  00001	8b ec		 mov	 ebp, esp

; 792  : 		return (iterator(this->_Mylast, this));

  00003	8b 49 04	 mov	 ecx, DWORD PTR [ecx+4]
  00006	8b 45 08	 mov	 eax, DWORD PTR ___$ReturnUdt$[ebp]
  00009	89 08		 mov	 DWORD PTR [eax], ecx

; 793  : 		}

  0000b	5d		 pop	 ebp
  0000c	c2 04 00	 ret	 4
?end@?$vector@UIMPERIALPET_DATA@@V?$allocator@UIMPERIALPET_DATA@@@std@@@std@@QAE?AV?$_Vector_iterator@V?$_Vector_val@UIMPERIALPET_DATA@@V?$allocator@UIMPERIALPET_DATA@@@std@@@std@@@2@XZ ENDP ; std::vector<IMPERIALPET_DATA,std::allocator<IMPERIALPET_DATA> >::end
_TEXT	ENDS
PUBLIC	?begin@?$vector@UEXPCHAR_DATA@@V?$allocator@UEXPCHAR_DATA@@@std@@@std@@QAE?AV?$_Vector_iterator@V?$_Vector_val@UEXPCHAR_DATA@@V?$allocator@UEXPCHAR_DATA@@@std@@@std@@@2@XZ ; std::vector<EXPCHAR_DATA,std::allocator<EXPCHAR_DATA> >::begin
; Function compile flags: /Ogtp
;	COMDAT ?begin@?$vector@UEXPCHAR_DATA@@V?$allocator@UEXPCHAR_DATA@@@std@@@std@@QAE?AV?$_Vector_iterator@V?$_Vector_val@UEXPCHAR_DATA@@V?$allocator@UEXPCHAR_DATA@@@std@@@std@@@2@XZ
_TEXT	SEGMENT
___$ReturnUdt$ = 8					; size = 4
?begin@?$vector@UEXPCHAR_DATA@@V?$allocator@UEXPCHAR_DATA@@@std@@@std@@QAE?AV?$_Vector_iterator@V?$_Vector_val@UEXPCHAR_DATA@@V?$allocator@UEXPCHAR_DATA@@@std@@@std@@@2@XZ PROC ; std::vector<EXPCHAR_DATA,std::allocator<EXPCHAR_DATA> >::begin, COMDAT
; _this$ = ecx

; 781  : 		{	// return iterator for beginning of mutable sequence

  00000	55		 push	 ebp
  00001	8b ec		 mov	 ebp, esp

; 782  : 		return (iterator(this->_Myfirst, this));

  00003	8b 09		 mov	 ecx, DWORD PTR [ecx]
  00005	8b 45 08	 mov	 eax, DWORD PTR ___$ReturnUdt$[ebp]
  00008	89 08		 mov	 DWORD PTR [eax], ecx

; 783  : 		}

  0000a	5d		 pop	 ebp
  0000b	c2 04 00	 ret	 4
?begin@?$vector@UEXPCHAR_DATA@@V?$allocator@UEXPCHAR_DATA@@@std@@@std@@QAE?AV?$_Vector_iterator@V?$_Vector_val@UEXPCHAR_DATA@@V?$allocator@UEXPCHAR_DATA@@@std@@@std@@@2@XZ ENDP ; std::vector<EXPCHAR_DATA,std::allocator<EXPCHAR_DATA> >::begin
_TEXT	ENDS
PUBLIC	?end@?$vector@UEXPCHAR_DATA@@V?$allocator@UEXPCHAR_DATA@@@std@@@std@@QAE?AV?$_Vector_iterator@V?$_Vector_val@UEXPCHAR_DATA@@V?$allocator@UEXPCHAR_DATA@@@std@@@std@@@2@XZ ; std::vector<EXPCHAR_DATA,std::allocator<EXPCHAR_DATA> >::end
; Function compile flags: /Ogtp
;	COMDAT ?end@?$vector@UEXPCHAR_DATA@@V?$allocator@UEXPCHAR_DATA@@@std@@@std@@QAE?AV?$_Vector_iterator@V?$_Vector_val@UEXPCHAR_DATA@@V?$allocator@UEXPCHAR_DATA@@@std@@@std@@@2@XZ
_TEXT	SEGMENT
___$ReturnUdt$ = 8					; size = 4
?end@?$vector@UEXPCHAR_DATA@@V?$allocator@UEXPCHAR_DATA@@@std@@@std@@QAE?AV?$_Vector_iterator@V?$_Vector_val@UEXPCHAR_DATA@@V?$allocator@UEXPCHAR_DATA@@@std@@@std@@@2@XZ PROC ; std::vector<EXPCHAR_DATA,std::allocator<EXPCHAR_DATA> >::end, COMDAT
; _this$ = ecx

; 791  : 		{	// return iterator for end of mutable sequence

  00000	55		 push	 ebp
  00001	8b ec		 mov	 ebp, esp

; 792  : 		return (iterator(this->_Mylast, this));

  00003	8b 49 04	 mov	 ecx, DWORD PTR [ecx+4]
  00006	8b 45 08	 mov	 eax, DWORD PTR ___$ReturnUdt$[ebp]
  00009	89 08		 mov	 DWORD PTR [eax], ecx

; 793  : 		}

  0000b	5d		 pop	 ebp
  0000c	c2 04 00	 ret	 4
?end@?$vector@UEXPCHAR_DATA@@V?$allocator@UEXPCHAR_DATA@@@std@@@std@@QAE?AV?$_Vector_iterator@V?$_Vector_val@UEXPCHAR_DATA@@V?$allocator@UEXPCHAR_DATA@@@std@@@std@@@2@XZ ENDP ; std::vector<EXPCHAR_DATA,std::allocator<EXPCHAR_DATA> >::end
_TEXT	ENDS
PUBLIC	?_Make_iter@?$vector@UIMPERIALPET_DATA@@V?$allocator@UIMPERIALPET_DATA@@@std@@@std@@QBE?AV?$_Vector_iterator@V?$_Vector_val@UIMPERIALPET_DATA@@V?$allocator@UIMPERIALPET_DATA@@@std@@@std@@@2@V?$_Vector_const_iterator@V?$_Vector_val@UIMPERIALPET_DATA@@V?$allocator@UIMPERIALPET_DATA@@@std@@@std@@@2@@Z ; std::vector<IMPERIALPET_DATA,std::allocator<IMPERIALPET_DATA> >::_Make_iter
; Function compile flags: /Ogtp
;	COMDAT ?_Make_iter@?$vector@UIMPERIALPET_DATA@@V?$allocator@UIMPERIALPET_DATA@@@std@@@std@@QBE?AV?$_Vector_iterator@V?$_Vector_val@UIMPERIALPET_DATA@@V?$allocator@UIMPERIALPET_DATA@@@std@@@std@@@2@V?$_Vector_const_iterator@V?$_Vector_val@UIMPERIALPET_DATA@@V?$allocator@UIMPERIALPET_DATA@@@std@@@std@@@2@@Z
_TEXT	SEGMENT
___$ReturnUdt$ = 8					; size = 4
__Where$ = 12						; size = 4
?_Make_iter@?$vector@UIMPERIALPET_DATA@@V?$allocator@UIMPERIALPET_DATA@@@std@@@std@@QBE?AV?$_Vector_iterator@V?$_Vector_val@UIMPERIALPET_DATA@@V?$allocator@UIMPERIALPET_DATA@@@std@@@std@@@2@V?$_Vector_const_iterator@V?$_Vector_val@UIMPERIALPET_DATA@@V?$allocator@UIMPERIALPET_DATA@@@std@@@std@@@2@@Z PROC ; std::vector<IMPERIALPET_DATA,std::allocator<IMPERIALPET_DATA> >::_Make_iter, COMDAT
; _this$ = ecx

; 801  : 		{	// make iterator from const_iterator

  00000	55		 push	 ebp
  00001	8b ec		 mov	 ebp, esp

; 802  : 		return (iterator(_Where._Ptr, this));

  00003	8b 45 08	 mov	 eax, DWORD PTR ___$ReturnUdt$[ebp]
  00006	8b 4d 0c	 mov	 ecx, DWORD PTR __Where$[ebp]
  00009	89 08		 mov	 DWORD PTR [eax], ecx

; 803  : 		}

  0000b	5d		 pop	 ebp
  0000c	c2 08 00	 ret	 8
?_Make_iter@?$vector@UIMPERIALPET_DATA@@V?$allocator@UIMPERIALPET_DATA@@@std@@@std@@QBE?AV?$_Vector_iterator@V?$_Vector_val@UIMPERIALPET_DATA@@V?$allocator@UIMPERIALPET_DATA@@@std@@@std@@@2@V?$_Vector_const_iterator@V?$_Vector_val@UIMPERIALPET_DATA@@V?$allocator@UIMPERIALPET_DATA@@@std@@@std@@@2@@Z ENDP ; std::vector<IMPERIALPET_DATA,std::allocator<IMPERIALPET_DATA> >::_Make_iter
_TEXT	ENDS
PUBLIC	?_Make_iter@?$vector@UEXPCHAR_DATA@@V?$allocator@UEXPCHAR_DATA@@@std@@@std@@QBE?AV?$_Vector_iterator@V?$_Vector_val@UEXPCHAR_DATA@@V?$allocator@UEXPCHAR_DATA@@@std@@@std@@@2@V?$_Vector_const_iterator@V?$_Vector_val@UEXPCHAR_DATA@@V?$allocator@UEXPCHAR_DATA@@@std@@@std@@@2@@Z ; std::vector<EXPCHAR_DATA,std::allocator<EXPCHAR_DATA> >::_Make_iter
; Function compile flags: /Ogtp
;	COMDAT ?_Make_iter@?$vector@UEXPCHAR_DATA@@V?$allocator@UEXPCHAR_DATA@@@std@@@std@@QBE?AV?$_Vector_iterator@V?$_Vector_val@UEXPCHAR_DATA@@V?$allocator@UEXPCHAR_DATA@@@std@@@std@@@2@V?$_Vector_const_iterator@V?$_Vector_val@UEXPCHAR_DATA@@V?$allocator@UEXPCHAR_DATA@@@std@@@std@@@2@@Z
_TEXT	SEGMENT
___$ReturnUdt$ = 8					; size = 4
__Where$ = 12						; size = 4
?_Make_iter@?$vector@UEXPCHAR_DATA@@V?$allocator@UEXPCHAR_DATA@@@std@@@std@@QBE?AV?$_Vector_iterator@V?$_Vector_val@UEXPCHAR_DATA@@V?$allocator@UEXPCHAR_DATA@@@std@@@std@@@2@V?$_Vector_const_iterator@V?$_Vector_val@UEXPCHAR_DATA@@V?$allocator@UEXPCHAR_DATA@@@std@@@std@@@2@@Z PROC ; std::vector<EXPCHAR_DATA,std::allocator<EXPCHAR_DATA> >::_Make_iter, COMDAT
; _this$ = ecx

; 801  : 		{	// make iterator from const_iterator

  00000	55		 push	 ebp
  00001	8b ec		 mov	 ebp, esp

; 802  : 		return (iterator(_Where._Ptr, this));

  00003	8b 45 08	 mov	 eax, DWORD PTR ___$ReturnUdt$[ebp]
  00006	8b 4d 0c	 mov	 ecx, DWORD PTR __Where$[ebp]
  00009	89 08		 mov	 DWORD PTR [eax], ecx

; 803  : 		}

  0000b	5d		 pop	 ebp
  0000c	c2 08 00	 ret	 8
?_Make_iter@?$vector@UEXPCHAR_DATA@@V?$allocator@UEXPCHAR_DATA@@@std@@@std@@QBE?AV?$_Vector_iterator@V?$_Vector_val@UEXPCHAR_DATA@@V?$allocator@UEXPCHAR_DATA@@@std@@@std@@@2@V?$_Vector_const_iterator@V?$_Vector_val@UEXPCHAR_DATA@@V?$allocator@UEXPCHAR_DATA@@@std@@@std@@@2@@Z ENDP ; std::vector<EXPCHAR_DATA,std::allocator<EXPCHAR_DATA> >::_Make_iter
_TEXT	ENDS
PUBLIC	??$_Destroy_range@V?$allocator@UIMPERIALPET_DATA@@@std@@@std@@YAXPAUIMPERIALPET_DATA@@0AAV?$allocator@UIMPERIALPET_DATA@@@0@U_Nonscalar_ptr_iterator_tag@0@@Z ; std::_Destroy_range<std::allocator<IMPERIALPET_DATA> >
; Function compile flags: /Ogtp
; File d:\program files (x86)\microsoft visual studio 10.0\vc\include\xmemory
;	COMDAT ??$_Destroy_range@V?$allocator@UIMPERIALPET_DATA@@@std@@@std@@YAXPAUIMPERIALPET_DATA@@0AAV?$allocator@UIMPERIALPET_DATA@@@0@U_Nonscalar_ptr_iterator_tag@0@@Z
_TEXT	SEGMENT
__First$ = 8						; size = 4
__Last$ = 12						; size = 4
__Al$ = 16						; size = 4
___formal$ = 20						; size = 1
??$_Destroy_range@V?$allocator@UIMPERIALPET_DATA@@@std@@@std@@YAXPAUIMPERIALPET_DATA@@0AAV?$allocator@UIMPERIALPET_DATA@@@0@U_Nonscalar_ptr_iterator_tag@0@@Z PROC ; std::_Destroy_range<std::allocator<IMPERIALPET_DATA> >, COMDAT

; 96   : 	for (; _First != _Last; ++_First)
; 97   : 		_Dest_val(_Al, _First);
; 98   : 	}

  00000	c3		 ret	 0
??$_Destroy_range@V?$allocator@UIMPERIALPET_DATA@@@std@@@std@@YAXPAUIMPERIALPET_DATA@@0AAV?$allocator@UIMPERIALPET_DATA@@@0@U_Nonscalar_ptr_iterator_tag@0@@Z ENDP ; std::_Destroy_range<std::allocator<IMPERIALPET_DATA> >
_TEXT	ENDS
PUBLIC	??$_Destroy_range@V?$allocator@UEXPCHAR_DATA@@@std@@@std@@YAXPAUEXPCHAR_DATA@@0AAV?$allocator@UEXPCHAR_DATA@@@0@U_Nonscalar_ptr_iterator_tag@0@@Z ; std::_Destroy_range<std::allocator<EXPCHAR_DATA> >
; Function compile flags: /Ogtp
;	COMDAT ??$_Destroy_range@V?$allocator@UEXPCHAR_DATA@@@std@@@std@@YAXPAUEXPCHAR_DATA@@0AAV?$allocator@UEXPCHAR_DATA@@@0@U_Nonscalar_ptr_iterator_tag@0@@Z
_TEXT	SEGMENT
__First$ = 8						; size = 4
__Last$ = 12						; size = 4
__Al$ = 16						; size = 4
___formal$ = 20						; size = 1
??$_Destroy_range@V?$allocator@UEXPCHAR_DATA@@@std@@@std@@YAXPAUEXPCHAR_DATA@@0AAV?$allocator@UEXPCHAR_DATA@@@0@U_Nonscalar_ptr_iterator_tag@0@@Z PROC ; std::_Destroy_range<std::allocator<EXPCHAR_DATA> >, COMDAT

; 96   : 	for (; _First != _Last; ++_First)
; 97   : 		_Dest_val(_Al, _First);
; 98   : 	}

  00000	c3		 ret	 0
??$_Destroy_range@V?$allocator@UEXPCHAR_DATA@@@std@@@std@@YAXPAUEXPCHAR_DATA@@0AAV?$allocator@UEXPCHAR_DATA@@@0@U_Nonscalar_ptr_iterator_tag@0@@Z ENDP ; std::_Destroy_range<std::allocator<EXPCHAR_DATA> >
_TEXT	ENDS
PUBLIC	??$_Uninit_move@PAUIMPERIALPET_DATA@@PAU1@V?$allocator@UIMPERIALPET_DATA@@@std@@U1@@std@@YAPAUIMPERIALPET_DATA@@PAU1@00AAV?$allocator@UIMPERIALPET_DATA@@@0@0U_Nonscalar_ptr_iterator_tag@0@@Z ; std::_Uninit_move<IMPERIALPET_DATA *,IMPERIALPET_DATA *,std::allocator<IMPERIALPET_DATA>,IMPERIALPET_DATA>
; Function compile flags: /Ogtp
; File d:\program files (x86)\microsoft visual studio 10.0\vc\include\memory
;	COMDAT ??$_Uninit_move@PAUIMPERIALPET_DATA@@PAU1@V?$allocator@UIMPERIALPET_DATA@@@std@@U1@@std@@YAPAUIMPERIALPET_DATA@@PAU1@00AAV?$allocator@UIMPERIALPET_DATA@@@0@0U_Nonscalar_ptr_iterator_tag@0@@Z
_TEXT	SEGMENT
__First$ = 8						; size = 4
__Last$ = 12						; size = 4
__Dest$ = 16						; size = 4
__Al$ = 20						; size = 4
___formal$ = 24						; size = 4
___formal$ = 28						; size = 1
??$_Uninit_move@PAUIMPERIALPET_DATA@@PAU1@V?$allocator@UIMPERIALPET_DATA@@@std@@U1@@std@@YAPAUIMPERIALPET_DATA@@PAU1@00AAV?$allocator@UIMPERIALPET_DATA@@@0@0U_Nonscalar_ptr_iterator_tag@0@@Z PROC ; std::_Uninit_move<IMPERIALPET_DATA *,IMPERIALPET_DATA *,std::allocator<IMPERIALPET_DATA>,IMPERIALPET_DATA>, COMDAT

; 424  : 	{	// move [_First, _Last) to raw _Dest, using _Al, arbitrary type

  00000	55		 push	 ebp
  00001	8b ec		 mov	 ebp, esp
  00003	53		 push	 ebx

; 425  : 	_DEBUG_RANGE(_First, _Last);
; 426  : 	_DEBUG_POINTER(_Dest);
; 427  : 	_FwdIt _Next = _Dest;
; 428  : 
; 429  : 	_TRY_BEGIN
; 430  : 	for (; _First != _Last; ++_Dest, ++_First)

  00004	8b 5d 0c	 mov	 ebx, DWORD PTR __Last$[ebp]
  00007	56		 push	 esi
  00008	8b 75 08	 mov	 esi, DWORD PTR __First$[ebp]
  0000b	3b f3		 cmp	 esi, ebx
  0000d	74 23		 je	 SHORT $LN17@Uninit_mov
  0000f	57		 push	 edi
  00010	8b 7d 10	 mov	 edi, DWORD PTR __Dest$[ebp]
$LL6@Uninit_mov:

; 431  : 		_Cons_val(_Al, _Dest, (_Valty &&)*_First);

  00013	8b 45 14	 mov	 eax, DWORD PTR __Al$[ebp]
  00016	56		 push	 esi
  00017	57		 push	 edi
  00018	50		 push	 eax
  00019	e8 00 00 00 00	 call	 ??$_Cons_val@V?$allocator@UIMPERIALPET_DATA@@@std@@UIMPERIALPET_DATA@@U3@@std@@YAXAAV?$allocator@UIMPERIALPET_DATA@@@0@PAUIMPERIALPET_DATA@@$$QAU2@@Z ; std::_Cons_val<std::allocator<IMPERIALPET_DATA>,IMPERIALPET_DATA,IMPERIALPET_DATA>
  0001e	83 c6 0e	 add	 esi, 14			; 0000000eH
  00021	83 c4 0c	 add	 esp, 12			; 0000000cH
  00024	83 c7 0e	 add	 edi, 14			; 0000000eH
  00027	3b f3		 cmp	 esi, ebx
  00029	75 e8		 jne	 SHORT $LL6@Uninit_mov

; 432  : 	_CATCH_ALL
; 433  : 	for (; _Next != _Dest; ++_Next)
; 434  : 		_Dest_val(_Al, _Next);
; 435  : 	_RERAISE;
; 436  : 	_CATCH_END
; 437  : 	return (_Dest);

  0002b	8b c7		 mov	 eax, edi
  0002d	5f		 pop	 edi
  0002e	5e		 pop	 esi
  0002f	5b		 pop	 ebx

; 438  : 	}

  00030	5d		 pop	 ebp
  00031	c3		 ret	 0
$LN17@Uninit_mov:

; 432  : 	_CATCH_ALL
; 433  : 	for (; _Next != _Dest; ++_Next)
; 434  : 		_Dest_val(_Al, _Next);
; 435  : 	_RERAISE;
; 436  : 	_CATCH_END
; 437  : 	return (_Dest);

  00032	8b 45 10	 mov	 eax, DWORD PTR __Dest$[ebp]
  00035	5e		 pop	 esi
  00036	5b		 pop	 ebx

; 438  : 	}

  00037	5d		 pop	 ebp
  00038	c3		 ret	 0
??$_Uninit_move@PAUIMPERIALPET_DATA@@PAU1@V?$allocator@UIMPERIALPET_DATA@@@std@@U1@@std@@YAPAUIMPERIALPET_DATA@@PAU1@00AAV?$allocator@UIMPERIALPET_DATA@@@0@0U_Nonscalar_ptr_iterator_tag@0@@Z ENDP ; std::_Uninit_move<IMPERIALPET_DATA *,IMPERIALPET_DATA *,std::allocator<IMPERIALPET_DATA>,IMPERIALPET_DATA>
_TEXT	ENDS
PUBLIC	??$_Uninit_move@PAUEXPCHAR_DATA@@PAU1@V?$allocator@UEXPCHAR_DATA@@@std@@U1@@std@@YAPAUEXPCHAR_DATA@@PAU1@00AAV?$allocator@UEXPCHAR_DATA@@@0@0U_Nonscalar_ptr_iterator_tag@0@@Z ; std::_Uninit_move<EXPCHAR_DATA *,EXPCHAR_DATA *,std::allocator<EXPCHAR_DATA>,EXPCHAR_DATA>
; Function compile flags: /Ogtp
;	COMDAT ??$_Uninit_move@PAUEXPCHAR_DATA@@PAU1@V?$allocator@UEXPCHAR_DATA@@@std@@U1@@std@@YAPAUEXPCHAR_DATA@@PAU1@00AAV?$allocator@UEXPCHAR_DATA@@@0@0U_Nonscalar_ptr_iterator_tag@0@@Z
_TEXT	SEGMENT
__First$ = 8						; size = 4
__Last$ = 12						; size = 4
__Dest$ = 16						; size = 4
__Al$ = 20						; size = 4
___formal$ = 24						; size = 4
___formal$ = 28						; size = 1
??$_Uninit_move@PAUEXPCHAR_DATA@@PAU1@V?$allocator@UEXPCHAR_DATA@@@std@@U1@@std@@YAPAUEXPCHAR_DATA@@PAU1@00AAV?$allocator@UEXPCHAR_DATA@@@0@0U_Nonscalar_ptr_iterator_tag@0@@Z PROC ; std::_Uninit_move<EXPCHAR_DATA *,EXPCHAR_DATA *,std::allocator<EXPCHAR_DATA>,EXPCHAR_DATA>, COMDAT

; 424  : 	{	// move [_First, _Last) to raw _Dest, using _Al, arbitrary type

  00000	55		 push	 ebp
  00001	8b ec		 mov	 ebp, esp
  00003	53		 push	 ebx

; 425  : 	_DEBUG_RANGE(_First, _Last);
; 426  : 	_DEBUG_POINTER(_Dest);
; 427  : 	_FwdIt _Next = _Dest;
; 428  : 
; 429  : 	_TRY_BEGIN
; 430  : 	for (; _First != _Last; ++_Dest, ++_First)

  00004	8b 5d 0c	 mov	 ebx, DWORD PTR __Last$[ebp]
  00007	56		 push	 esi
  00008	8b 75 08	 mov	 esi, DWORD PTR __First$[ebp]
  0000b	3b f3		 cmp	 esi, ebx
  0000d	74 23		 je	 SHORT $LN17@Uninit_mov@2
  0000f	57		 push	 edi
  00010	8b 7d 10	 mov	 edi, DWORD PTR __Dest$[ebp]
$LL6@Uninit_mov@2:

; 431  : 		_Cons_val(_Al, _Dest, (_Valty &&)*_First);

  00013	8b 45 14	 mov	 eax, DWORD PTR __Al$[ebp]
  00016	56		 push	 esi
  00017	57		 push	 edi
  00018	50		 push	 eax
  00019	e8 00 00 00 00	 call	 ??$_Cons_val@V?$allocator@UEXPCHAR_DATA@@@std@@UEXPCHAR_DATA@@U3@@std@@YAXAAV?$allocator@UEXPCHAR_DATA@@@0@PAUEXPCHAR_DATA@@$$QAU2@@Z ; std::_Cons_val<std::allocator<EXPCHAR_DATA>,EXPCHAR_DATA,EXPCHAR_DATA>
  0001e	83 c6 0e	 add	 esi, 14			; 0000000eH
  00021	83 c4 0c	 add	 esp, 12			; 0000000cH
  00024	83 c7 0e	 add	 edi, 14			; 0000000eH
  00027	3b f3		 cmp	 esi, ebx
  00029	75 e8		 jne	 SHORT $LL6@Uninit_mov@2

; 432  : 	_CATCH_ALL
; 433  : 	for (; _Next != _Dest; ++_Next)
; 434  : 		_Dest_val(_Al, _Next);
; 435  : 	_RERAISE;
; 436  : 	_CATCH_END
; 437  : 	return (_Dest);

  0002b	8b c7		 mov	 eax, edi
  0002d	5f		 pop	 edi
  0002e	5e		 pop	 esi
  0002f	5b		 pop	 ebx

; 438  : 	}

  00030	5d		 pop	 ebp
  00031	c3		 ret	 0
$LN17@Uninit_mov@2:

; 432  : 	_CATCH_ALL
; 433  : 	for (; _Next != _Dest; ++_Next)
; 434  : 		_Dest_val(_Al, _Next);
; 435  : 	_RERAISE;
; 436  : 	_CATCH_END
; 437  : 	return (_Dest);

  00032	8b 45 10	 mov	 eax, DWORD PTR __Dest$[ebp]
  00035	5e		 pop	 esi
  00036	5b		 pop	 ebx

; 438  : 	}

  00037	5d		 pop	 ebp
  00038	c3		 ret	 0
??$_Uninit_move@PAUEXPCHAR_DATA@@PAU1@V?$allocator@UEXPCHAR_DATA@@@std@@U1@@std@@YAPAUEXPCHAR_DATA@@PAU1@00AAV?$allocator@UEXPCHAR_DATA@@@0@0U_Nonscalar_ptr_iterator_tag@0@@Z ENDP ; std::_Uninit_move<EXPCHAR_DATA *,EXPCHAR_DATA *,std::allocator<EXPCHAR_DATA>,EXPCHAR_DATA>
_TEXT	ENDS
PUBLIC	??$_Destroy_range@V?$allocator@UIMPERIALPET_DATA@@@std@@@std@@YAXPAUIMPERIALPET_DATA@@0AAV?$allocator@UIMPERIALPET_DATA@@@0@@Z ; std::_Destroy_range<std::allocator<IMPERIALPET_DATA> >
; Function compile flags: /Ogtp
; File d:\program files (x86)\microsoft visual studio 10.0\vc\include\xmemory
;	COMDAT ??$_Destroy_range@V?$allocator@UIMPERIALPET_DATA@@@std@@@std@@YAXPAUIMPERIALPET_DATA@@0AAV?$allocator@UIMPERIALPET_DATA@@@0@@Z
_TEXT	SEGMENT
__First$ = 8						; size = 4
__Last$ = 12						; size = 4
__Al$ = 16						; size = 4
??$_Destroy_range@V?$allocator@UIMPERIALPET_DATA@@@std@@@std@@YAXPAUIMPERIALPET_DATA@@0AAV?$allocator@UIMPERIALPET_DATA@@@0@@Z PROC ; std::_Destroy_range<std::allocator<IMPERIALPET_DATA> >, COMDAT

; 88   : 	_Destroy_range(_First, _Last, _Al, _Ptr_cat(_First, _Last));
; 89   : 	}

  00000	c3		 ret	 0
??$_Destroy_range@V?$allocator@UIMPERIALPET_DATA@@@std@@@std@@YAXPAUIMPERIALPET_DATA@@0AAV?$allocator@UIMPERIALPET_DATA@@@0@@Z ENDP ; std::_Destroy_range<std::allocator<IMPERIALPET_DATA> >
_TEXT	ENDS
PUBLIC	??$_Destroy_range@V?$allocator@UEXPCHAR_DATA@@@std@@@std@@YAXPAUEXPCHAR_DATA@@0AAV?$allocator@UEXPCHAR_DATA@@@0@@Z ; std::_Destroy_range<std::allocator<EXPCHAR_DATA> >
; Function compile flags: /Ogtp
;	COMDAT ??$_Destroy_range@V?$allocator@UEXPCHAR_DATA@@@std@@@std@@YAXPAUEXPCHAR_DATA@@0AAV?$allocator@UEXPCHAR_DATA@@@0@@Z
_TEXT	SEGMENT
__First$ = 8						; size = 4
__Last$ = 12						; size = 4
__Al$ = 16						; size = 4
??$_Destroy_range@V?$allocator@UEXPCHAR_DATA@@@std@@@std@@YAXPAUEXPCHAR_DATA@@0AAV?$allocator@UEXPCHAR_DATA@@@0@@Z PROC ; std::_Destroy_range<std::allocator<EXPCHAR_DATA> >, COMDAT

; 88   : 	_Destroy_range(_First, _Last, _Al, _Ptr_cat(_First, _Last));
; 89   : 	}

  00000	c3		 ret	 0
??$_Destroy_range@V?$allocator@UEXPCHAR_DATA@@@std@@@std@@YAXPAUEXPCHAR_DATA@@0AAV?$allocator@UEXPCHAR_DATA@@@0@@Z ENDP ; std::_Destroy_range<std::allocator<EXPCHAR_DATA> >
_TEXT	ENDS
PUBLIC	??$_Uninitialized_move@PAUIMPERIALPET_DATA@@PAU1@V?$allocator@UIMPERIALPET_DATA@@@std@@@std@@YAPAUIMPERIALPET_DATA@@PAU1@00AAV?$allocator@UIMPERIALPET_DATA@@@0@@Z ; std::_Uninitialized_move<IMPERIALPET_DATA *,IMPERIALPET_DATA *,std::allocator<IMPERIALPET_DATA> >
; Function compile flags: /Ogtp
; File d:\program files (x86)\microsoft visual studio 10.0\vc\include\memory
;	COMDAT ??$_Uninitialized_move@PAUIMPERIALPET_DATA@@PAU1@V?$allocator@UIMPERIALPET_DATA@@@std@@@std@@YAPAUIMPERIALPET_DATA@@PAU1@00AAV?$allocator@UIMPERIALPET_DATA@@@0@@Z
_TEXT	SEGMENT
__Cat$212838 = -4					; size = 1
__First$ = 8						; size = 4
__Last$ = 12						; size = 4
__Dest$ = 16						; size = 4
__Al$ = 20						; size = 4
??$_Uninitialized_move@PAUIMPERIALPET_DATA@@PAU1@V?$allocator@UIMPERIALPET_DATA@@@std@@@std@@YAPAUIMPERIALPET_DATA@@PAU1@00AAV?$allocator@UIMPERIALPET_DATA@@@0@@Z PROC ; std::_Uninitialized_move<IMPERIALPET_DATA *,IMPERIALPET_DATA *,std::allocator<IMPERIALPET_DATA> >, COMDAT

; 469  : 	{	// move [_First, _Last) to raw _Dest, using _Al

  00000	55		 push	 ebp
  00001	8b ec		 mov	 ebp, esp
  00003	51		 push	 ecx

; 470  : 	return (_Uninit_move(_First, _Last, _Dest, _Al,
; 471  : 		_Val_type(_First), _Ptr_cat(_First, _Dest)));

  00004	8b 45 fc	 mov	 eax, DWORD PTR __Cat$212838[ebp]
  00007	8b 4d 14	 mov	 ecx, DWORD PTR __Al$[ebp]
  0000a	8b 55 10	 mov	 edx, DWORD PTR __Dest$[ebp]
  0000d	50		 push	 eax
  0000e	8b 45 0c	 mov	 eax, DWORD PTR __Last$[ebp]
  00011	6a 00		 push	 0
  00013	51		 push	 ecx
  00014	8b 4d 08	 mov	 ecx, DWORD PTR __First$[ebp]
  00017	52		 push	 edx
  00018	50		 push	 eax
  00019	51		 push	 ecx
  0001a	e8 00 00 00 00	 call	 ??$_Uninit_move@PAUIMPERIALPET_DATA@@PAU1@V?$allocator@UIMPERIALPET_DATA@@@std@@U1@@std@@YAPAUIMPERIALPET_DATA@@PAU1@00AAV?$allocator@UIMPERIALPET_DATA@@@0@0U_Nonscalar_ptr_iterator_tag@0@@Z ; std::_Uninit_move<IMPERIALPET_DATA *,IMPERIALPET_DATA *,std::allocator<IMPERIALPET_DATA>,IMPERIALPET_DATA>
  0001f	83 c4 18	 add	 esp, 24			; 00000018H

; 472  : 	}

  00022	8b e5		 mov	 esp, ebp
  00024	5d		 pop	 ebp
  00025	c3		 ret	 0
??$_Uninitialized_move@PAUIMPERIALPET_DATA@@PAU1@V?$allocator@UIMPERIALPET_DATA@@@std@@@std@@YAPAUIMPERIALPET_DATA@@PAU1@00AAV?$allocator@UIMPERIALPET_DATA@@@0@@Z ENDP ; std::_Uninitialized_move<IMPERIALPET_DATA *,IMPERIALPET_DATA *,std::allocator<IMPERIALPET_DATA> >
_TEXT	ENDS
PUBLIC	??$_Uninitialized_move@PAUEXPCHAR_DATA@@PAU1@V?$allocator@UEXPCHAR_DATA@@@std@@@std@@YAPAUEXPCHAR_DATA@@PAU1@00AAV?$allocator@UEXPCHAR_DATA@@@0@@Z ; std::_Uninitialized_move<EXPCHAR_DATA *,EXPCHAR_DATA *,std::allocator<EXPCHAR_DATA> >
; Function compile flags: /Ogtp
;	COMDAT ??$_Uninitialized_move@PAUEXPCHAR_DATA@@PAU1@V?$allocator@UEXPCHAR_DATA@@@std@@@std@@YAPAUEXPCHAR_DATA@@PAU1@00AAV?$allocator@UEXPCHAR_DATA@@@0@@Z
_TEXT	SEGMENT
__Cat$212848 = -4					; size = 1
__First$ = 8						; size = 4
__Last$ = 12						; size = 4
__Dest$ = 16						; size = 4
__Al$ = 20						; size = 4
??$_Uninitialized_move@PAUEXPCHAR_DATA@@PAU1@V?$allocator@UEXPCHAR_DATA@@@std@@@std@@YAPAUEXPCHAR_DATA@@PAU1@00AAV?$allocator@UEXPCHAR_DATA@@@0@@Z PROC ; std::_Uninitialized_move<EXPCHAR_DATA *,EXPCHAR_DATA *,std::allocator<EXPCHAR_DATA> >, COMDAT

; 469  : 	{	// move [_First, _Last) to raw _Dest, using _Al

  00000	55		 push	 ebp
  00001	8b ec		 mov	 ebp, esp
  00003	51		 push	 ecx

; 470  : 	return (_Uninit_move(_First, _Last, _Dest, _Al,
; 471  : 		_Val_type(_First), _Ptr_cat(_First, _Dest)));

  00004	8b 45 fc	 mov	 eax, DWORD PTR __Cat$212848[ebp]
  00007	8b 4d 14	 mov	 ecx, DWORD PTR __Al$[ebp]
  0000a	8b 55 10	 mov	 edx, DWORD PTR __Dest$[ebp]
  0000d	50		 push	 eax
  0000e	8b 45 0c	 mov	 eax, DWORD PTR __Last$[ebp]
  00011	6a 00		 push	 0
  00013	51		 push	 ecx
  00014	8b 4d 08	 mov	 ecx, DWORD PTR __First$[ebp]
  00017	52		 push	 edx
  00018	50		 push	 eax
  00019	51		 push	 ecx
  0001a	e8 00 00 00 00	 call	 ??$_Uninit_move@PAUEXPCHAR_DATA@@PAU1@V?$allocator@UEXPCHAR_DATA@@@std@@U1@@std@@YAPAUEXPCHAR_DATA@@PAU1@00AAV?$allocator@UEXPCHAR_DATA@@@0@0U_Nonscalar_ptr_iterator_tag@0@@Z ; std::_Uninit_move<EXPCHAR_DATA *,EXPCHAR_DATA *,std::allocator<EXPCHAR_DATA>,EXPCHAR_DATA>
  0001f	83 c4 18	 add	 esp, 24			; 00000018H

; 472  : 	}

  00022	8b e5		 mov	 esp, ebp
  00024	5d		 pop	 ebp
  00025	c3		 ret	 0
??$_Uninitialized_move@PAUEXPCHAR_DATA@@PAU1@V?$allocator@UEXPCHAR_DATA@@@std@@@std@@YAPAUEXPCHAR_DATA@@PAU1@00AAV?$allocator@UEXPCHAR_DATA@@@0@@Z ENDP ; std::_Uninitialized_move<EXPCHAR_DATA *,EXPCHAR_DATA *,std::allocator<EXPCHAR_DATA> >
_TEXT	ENDS
PUBLIC	?_Destroy@?$vector@UIMPERIALPET_DATA@@V?$allocator@UIMPERIALPET_DATA@@@std@@@std@@IAEXPAUIMPERIALPET_DATA@@0@Z ; std::vector<IMPERIALPET_DATA,std::allocator<IMPERIALPET_DATA> >::_Destroy
; Function compile flags: /Ogtp
; File d:\program files (x86)\microsoft visual studio 10.0\vc\include\vector
;	COMDAT ?_Destroy@?$vector@UIMPERIALPET_DATA@@V?$allocator@UIMPERIALPET_DATA@@@std@@@std@@IAEXPAUIMPERIALPET_DATA@@0@Z
_TEXT	SEGMENT
__First$ = 8						; size = 4
__Last$ = 12						; size = 4
?_Destroy@?$vector@UIMPERIALPET_DATA@@V?$allocator@UIMPERIALPET_DATA@@@std@@@std@@IAEXPAUIMPERIALPET_DATA@@0@Z PROC ; std::vector<IMPERIALPET_DATA,std::allocator<IMPERIALPET_DATA> >::_Destroy, COMDAT
; _this$ = ecx

; 1270 : 		_Destroy_range(_First, _Last, this->_Alval);
; 1271 : 		}

  00000	c2 08 00	 ret	 8
?_Destroy@?$vector@UIMPERIALPET_DATA@@V?$allocator@UIMPERIALPET_DATA@@@std@@@std@@IAEXPAUIMPERIALPET_DATA@@0@Z ENDP ; std::vector<IMPERIALPET_DATA,std::allocator<IMPERIALPET_DATA> >::_Destroy
_TEXT	ENDS
PUBLIC	?_Destroy@?$vector@UEXPCHAR_DATA@@V?$allocator@UEXPCHAR_DATA@@@std@@@std@@IAEXPAUEXPCHAR_DATA@@0@Z ; std::vector<EXPCHAR_DATA,std::allocator<EXPCHAR_DATA> >::_Destroy
; Function compile flags: /Ogtp
;	COMDAT ?_Destroy@?$vector@UEXPCHAR_DATA@@V?$allocator@UEXPCHAR_DATA@@@std@@@std@@IAEXPAUEXPCHAR_DATA@@0@Z
_TEXT	SEGMENT
__First$ = 8						; size = 4
__Last$ = 12						; size = 4
?_Destroy@?$vector@UEXPCHAR_DATA@@V?$allocator@UEXPCHAR_DATA@@@std@@@std@@IAEXPAUEXPCHAR_DATA@@0@Z PROC ; std::vector<EXPCHAR_DATA,std::allocator<EXPCHAR_DATA> >::_Destroy, COMDAT
; _this$ = ecx

; 1270 : 		_Destroy_range(_First, _Last, this->_Alval);
; 1271 : 		}

  00000	c2 08 00	 ret	 8
?_Destroy@?$vector@UEXPCHAR_DATA@@V?$allocator@UEXPCHAR_DATA@@@std@@@std@@IAEXPAUEXPCHAR_DATA@@0@Z ENDP ; std::vector<EXPCHAR_DATA,std::allocator<EXPCHAR_DATA> >::_Destroy
_TEXT	ENDS
PUBLIC	??$_Umove@PAUIMPERIALPET_DATA@@@?$vector@UIMPERIALPET_DATA@@V?$allocator@UIMPERIALPET_DATA@@@std@@@std@@IAEPAUIMPERIALPET_DATA@@PAU2@00@Z ; std::vector<IMPERIALPET_DATA,std::allocator<IMPERIALPET_DATA> >::_Umove<IMPERIALPET_DATA *>
; Function compile flags: /Ogtp
;	COMDAT ??$_Umove@PAUIMPERIALPET_DATA@@@?$vector@UIMPERIALPET_DATA@@V?$allocator@UIMPERIALPET_DATA@@@std@@@std@@IAEPAUIMPERIALPET_DATA@@PAU2@00@Z
_TEXT	SEGMENT
__First$ = 8						; size = 4
__Last$ = 12						; size = 4
__Cat$212874 = 16					; size = 1
__Ptr$ = 16						; size = 4
??$_Umove@PAUIMPERIALPET_DATA@@@?$vector@UIMPERIALPET_DATA@@V?$allocator@UIMPERIALPET_DATA@@@std@@@std@@IAEPAUIMPERIALPET_DATA@@PAU2@00@Z PROC ; std::vector<IMPERIALPET_DATA,std::allocator<IMPERIALPET_DATA> >::_Umove<IMPERIALPET_DATA *>, COMDAT
; _this$ = ecx

; 1322 : 		pointer _Umove(_Iter _First, _Iter _Last, pointer _Ptr)

  00000	55		 push	 ebp
  00001	8b ec		 mov	 ebp, esp

; 1323 : 		{	// move initializing [_First, _Last), using allocator
; 1324 : 		return (_Uninitialized_move(_First, _Last,
; 1325 : 			_Ptr, this->_Alval));

  00003	8b 45 10	 mov	 eax, DWORD PTR __Cat$212874[ebp]
  00006	8b 55 0c	 mov	 edx, DWORD PTR __Last$[ebp]
  00009	50		 push	 eax
  0000a	8b 45 08	 mov	 eax, DWORD PTR __First$[ebp]
  0000d	6a 00		 push	 0
  0000f	83 c1 0c	 add	 ecx, 12			; 0000000cH
  00012	51		 push	 ecx
  00013	8b 4d 10	 mov	 ecx, DWORD PTR __Ptr$[ebp]
  00016	51		 push	 ecx
  00017	52		 push	 edx
  00018	50		 push	 eax
  00019	e8 00 00 00 00	 call	 ??$_Uninit_move@PAUIMPERIALPET_DATA@@PAU1@V?$allocator@UIMPERIALPET_DATA@@@std@@U1@@std@@YAPAUIMPERIALPET_DATA@@PAU1@00AAV?$allocator@UIMPERIALPET_DATA@@@0@0U_Nonscalar_ptr_iterator_tag@0@@Z ; std::_Uninit_move<IMPERIALPET_DATA *,IMPERIALPET_DATA *,std::allocator<IMPERIALPET_DATA>,IMPERIALPET_DATA>
  0001e	83 c4 18	 add	 esp, 24			; 00000018H

; 1326 : 		}

  00021	5d		 pop	 ebp
  00022	c2 0c 00	 ret	 12			; 0000000cH
??$_Umove@PAUIMPERIALPET_DATA@@@?$vector@UIMPERIALPET_DATA@@V?$allocator@UIMPERIALPET_DATA@@@std@@@std@@IAEPAUIMPERIALPET_DATA@@PAU2@00@Z ENDP ; std::vector<IMPERIALPET_DATA,std::allocator<IMPERIALPET_DATA> >::_Umove<IMPERIALPET_DATA *>
_TEXT	ENDS
PUBLIC	??$_Umove@PAUEXPCHAR_DATA@@@?$vector@UEXPCHAR_DATA@@V?$allocator@UEXPCHAR_DATA@@@std@@@std@@IAEPAUEXPCHAR_DATA@@PAU2@00@Z ; std::vector<EXPCHAR_DATA,std::allocator<EXPCHAR_DATA> >::_Umove<EXPCHAR_DATA *>
; Function compile flags: /Ogtp
;	COMDAT ??$_Umove@PAUEXPCHAR_DATA@@@?$vector@UEXPCHAR_DATA@@V?$allocator@UEXPCHAR_DATA@@@std@@@std@@IAEPAUEXPCHAR_DATA@@PAU2@00@Z
_TEXT	SEGMENT
__First$ = 8						; size = 4
__Last$ = 12						; size = 4
__Cat$212893 = 16					; size = 1
__Ptr$ = 16						; size = 4
??$_Umove@PAUEXPCHAR_DATA@@@?$vector@UEXPCHAR_DATA@@V?$allocator@UEXPCHAR_DATA@@@std@@@std@@IAEPAUEXPCHAR_DATA@@PAU2@00@Z PROC ; std::vector<EXPCHAR_DATA,std::allocator<EXPCHAR_DATA> >::_Umove<EXPCHAR_DATA *>, COMDAT
; _this$ = ecx

; 1322 : 		pointer _Umove(_Iter _First, _Iter _Last, pointer _Ptr)

  00000	55		 push	 ebp
  00001	8b ec		 mov	 ebp, esp

; 1323 : 		{	// move initializing [_First, _Last), using allocator
; 1324 : 		return (_Uninitialized_move(_First, _Last,
; 1325 : 			_Ptr, this->_Alval));

  00003	8b 45 10	 mov	 eax, DWORD PTR __Cat$212893[ebp]
  00006	8b 55 0c	 mov	 edx, DWORD PTR __Last$[ebp]
  00009	50		 push	 eax
  0000a	8b 45 08	 mov	 eax, DWORD PTR __First$[ebp]
  0000d	6a 00		 push	 0
  0000f	83 c1 0c	 add	 ecx, 12			; 0000000cH
  00012	51		 push	 ecx
  00013	8b 4d 10	 mov	 ecx, DWORD PTR __Ptr$[ebp]
  00016	51		 push	 ecx
  00017	52		 push	 edx
  00018	50		 push	 eax
  00019	e8 00 00 00 00	 call	 ??$_Uninit_move@PAUEXPCHAR_DATA@@PAU1@V?$allocator@UEXPCHAR_DATA@@@std@@U1@@std@@YAPAUEXPCHAR_DATA@@PAU1@00AAV?$allocator@UEXPCHAR_DATA@@@0@0U_Nonscalar_ptr_iterator_tag@0@@Z ; std::_Uninit_move<EXPCHAR_DATA *,EXPCHAR_DATA *,std::allocator<EXPCHAR_DATA>,EXPCHAR_DATA>
  0001e	83 c4 18	 add	 esp, 24			; 00000018H

; 1326 : 		}

  00021	5d		 pop	 ebp
  00022	c2 0c 00	 ret	 12			; 0000000cH
??$_Umove@PAUEXPCHAR_DATA@@@?$vector@UEXPCHAR_DATA@@V?$allocator@UEXPCHAR_DATA@@@std@@@std@@IAEPAUEXPCHAR_DATA@@PAU2@00@Z ENDP ; std::vector<EXPCHAR_DATA,std::allocator<EXPCHAR_DATA> >::_Umove<EXPCHAR_DATA *>
_TEXT	ENDS
PUBLIC	?erase@?$vector@UIMPERIALPET_DATA@@V?$allocator@UIMPERIALPET_DATA@@@std@@@std@@QAE?AV?$_Vector_iterator@V?$_Vector_val@UIMPERIALPET_DATA@@V?$allocator@UIMPERIALPET_DATA@@@std@@@std@@@2@V?$_Vector_const_iterator@V?$_Vector_val@UIMPERIALPET_DATA@@V?$allocator@UIMPERIALPET_DATA@@@std@@@std@@@2@0@Z ; std::vector<IMPERIALPET_DATA,std::allocator<IMPERIALPET_DATA> >::erase
; Function compile flags: /Ogtp
;	COMDAT ?erase@?$vector@UIMPERIALPET_DATA@@V?$allocator@UIMPERIALPET_DATA@@@std@@@std@@QAE?AV?$_Vector_iterator@V?$_Vector_val@UIMPERIALPET_DATA@@V?$allocator@UIMPERIALPET_DATA@@@std@@@std@@@2@V?$_Vector_const_iterator@V?$_Vector_val@UIMPERIALPET_DATA@@V?$allocator@UIMPERIALPET_DATA@@@std@@@std@@@2@0@Z
_TEXT	SEGMENT
___$ReturnUdt$ = 8					; size = 4
__First_arg$ = 12					; size = 4
__Last_arg$ = 16					; size = 4
?erase@?$vector@UIMPERIALPET_DATA@@V?$allocator@UIMPERIALPET_DATA@@@std@@@std@@QAE?AV?$_Vector_iterator@V?$_Vector_val@UIMPERIALPET_DATA@@V?$allocator@UIMPERIALPET_DATA@@@std@@@std@@@2@V?$_Vector_const_iterator@V?$_Vector_val@UIMPERIALPET_DATA@@V?$allocator@UIMPERIALPET_DATA@@@std@@@std@@@2@0@Z PROC ; std::vector<IMPERIALPET_DATA,std::allocator<IMPERIALPET_DATA> >::erase, COMDAT
; _this$ = ecx

; 1190 : 		{	// erase [_First, _Last)

  00000	55		 push	 ebp
  00001	8b ec		 mov	 ebp, esp

; 1191 : 		iterator _First = _Make_iter(_First_arg);
; 1192 : 		iterator _Last = _Make_iter(_Last_arg);
; 1193 : 
; 1194 : 		if (_First != _Last)

  00003	8b 55 10	 mov	 edx, DWORD PTR __Last_arg$[ebp]
  00006	8b 45 08	 mov	 eax, DWORD PTR ___$ReturnUdt$[ebp]
  00009	56		 push	 esi
  0000a	8b 75 0c	 mov	 esi, DWORD PTR __First_arg$[ebp]
  0000d	89 30		 mov	 DWORD PTR [eax], esi
  0000f	3b f2		 cmp	 esi, edx
  00011	74 34		 je	 SHORT $LN1@erase

; 1195 : 			{	// worth doing, copy down over hole
; 1196 :  #if _ITERATOR_DEBUG_LEVEL == 2
; 1197 : 			if (_Last < _First || _VICONT(_First) != this
; 1198 : 				|| _VIPTR(_First) < this->_Myfirst
; 1199 : 				|| this->_Mylast < _VIPTR(_Last))
; 1200 : 				_DEBUG_ERROR("vector erase iterator outside range");
; 1201 : 			pointer _Ptr = _Move(_VIPTR(_Last), this->_Mylast,
; 1202 : 				_VIPTR(_First));
; 1203 : 			_Orphan_range(_VIPTR(_First), this->_Mylast);
; 1204 : 
; 1205 :  #else /* _ITERATOR_DEBUG_LEVEL == 2 */
; 1206 : 			pointer _Ptr = _Move(_VIPTR(_Last), this->_Mylast,
; 1207 : 				_VIPTR(_First));

  00013	57		 push	 edi
  00014	8b 79 04	 mov	 edi, DWORD PTR [ecx+4]
  00017	3b d7		 cmp	 edx, edi
  00019	74 28		 je	 SHORT $LN30@erase
  0001b	53		 push	 ebx
  0001c	8d 64 24 00	 npad	 4
$LL32@erase:
  00020	8b 1a		 mov	 ebx, DWORD PTR [edx]
  00022	89 1e		 mov	 DWORD PTR [esi], ebx
  00024	8b 5a 04	 mov	 ebx, DWORD PTR [edx+4]
  00027	89 5e 04	 mov	 DWORD PTR [esi+4], ebx
  0002a	8b 5a 08	 mov	 ebx, DWORD PTR [edx+8]
  0002d	89 5e 08	 mov	 DWORD PTR [esi+8], ebx
  00030	66 8b 5a 0c	 mov	 bx, WORD PTR [edx+12]
  00034	66 89 5e 0c	 mov	 WORD PTR [esi+12], bx
  00038	83 c2 0e	 add	 edx, 14			; 0000000eH
  0003b	83 c6 0e	 add	 esi, 14			; 0000000eH
  0003e	3b d7		 cmp	 edx, edi
  00040	75 de		 jne	 SHORT $LL32@erase
  00042	5b		 pop	 ebx
$LN30@erase:

; 1208 :  #endif /* _ITERATOR_DEBUG_LEVEL == 2 */
; 1209 : 
; 1210 : 			_Destroy(_Ptr, this->_Mylast);
; 1211 : 			this->_Mylast = _Ptr;

  00043	89 71 04	 mov	 DWORD PTR [ecx+4], esi
  00046	5f		 pop	 edi
$LN1@erase:
  00047	5e		 pop	 esi

; 1212 : 			}
; 1213 : 		return (_First);
; 1214 : 		}

  00048	5d		 pop	 ebp
  00049	c2 0c 00	 ret	 12			; 0000000cH
?erase@?$vector@UIMPERIALPET_DATA@@V?$allocator@UIMPERIALPET_DATA@@@std@@@std@@QAE?AV?$_Vector_iterator@V?$_Vector_val@UIMPERIALPET_DATA@@V?$allocator@UIMPERIALPET_DATA@@@std@@@std@@@2@V?$_Vector_const_iterator@V?$_Vector_val@UIMPERIALPET_DATA@@V?$allocator@UIMPERIALPET_DATA@@@std@@@std@@@2@0@Z ENDP ; std::vector<IMPERIALPET_DATA,std::allocator<IMPERIALPET_DATA> >::erase
_TEXT	ENDS
PUBLIC	?_Tidy@?$vector@UIMPERIALPET_DATA@@V?$allocator@UIMPERIALPET_DATA@@@std@@@std@@IAEXXZ ; std::vector<IMPERIALPET_DATA,std::allocator<IMPERIALPET_DATA> >::_Tidy
; Function compile flags: /Ogtp
;	COMDAT ?_Tidy@?$vector@UIMPERIALPET_DATA@@V?$allocator@UIMPERIALPET_DATA@@@std@@@std@@IAEXXZ
_TEXT	SEGMENT
?_Tidy@?$vector@UIMPERIALPET_DATA@@V?$allocator@UIMPERIALPET_DATA@@@std@@@std@@IAEXXZ PROC ; std::vector<IMPERIALPET_DATA,std::allocator<IMPERIALPET_DATA> >::_Tidy, COMDAT
; _this$ = ecx

; 1301 : 		{	// free all storage

  00000	56		 push	 esi
  00001	8b f1		 mov	 esi, ecx

; 1302 : 		if (this->_Myfirst != 0)

  00003	8b 06		 mov	 eax, DWORD PTR [esi]
  00005	85 c0		 test	 eax, eax
  00007	74 09		 je	 SHORT $LN6@Tidy

; 1303 : 			{	// something to free, destroy and deallocate it
; 1304 : 			this->_Orphan_all();
; 1305 : 			_Destroy(this->_Myfirst, this->_Mylast);
; 1306 : 			this->_Alval.deallocate(this->_Myfirst,
; 1307 : 				this->_Myend - this->_Myfirst);

  00009	50		 push	 eax
  0000a	e8 00 00 00 00	 call	 ??3@YAXPAX@Z		; operator delete
  0000f	83 c4 04	 add	 esp, 4
$LN6@Tidy:

; 1308 : 			}
; 1309 : 		this->_Myfirst = 0;

  00012	c7 06 00 00 00
	00		 mov	 DWORD PTR [esi], 0

; 1310 : 		this->_Mylast = 0;

  00018	c7 46 04 00 00
	00 00		 mov	 DWORD PTR [esi+4], 0

; 1311 : 		this->_Myend = 0;

  0001f	c7 46 08 00 00
	00 00		 mov	 DWORD PTR [esi+8], 0
  00026	5e		 pop	 esi

; 1312 : 		}

  00027	c3		 ret	 0
?_Tidy@?$vector@UIMPERIALPET_DATA@@V?$allocator@UIMPERIALPET_DATA@@@std@@@std@@IAEXXZ ENDP ; std::vector<IMPERIALPET_DATA,std::allocator<IMPERIALPET_DATA> >::_Tidy
_TEXT	ENDS
PUBLIC	?erase@?$vector@UEXPCHAR_DATA@@V?$allocator@UEXPCHAR_DATA@@@std@@@std@@QAE?AV?$_Vector_iterator@V?$_Vector_val@UEXPCHAR_DATA@@V?$allocator@UEXPCHAR_DATA@@@std@@@std@@@2@V?$_Vector_const_iterator@V?$_Vector_val@UEXPCHAR_DATA@@V?$allocator@UEXPCHAR_DATA@@@std@@@std@@@2@0@Z ; std::vector<EXPCHAR_DATA,std::allocator<EXPCHAR_DATA> >::erase
; Function compile flags: /Ogtp
;	COMDAT ?erase@?$vector@UEXPCHAR_DATA@@V?$allocator@UEXPCHAR_DATA@@@std@@@std@@QAE?AV?$_Vector_iterator@V?$_Vector_val@UEXPCHAR_DATA@@V?$allocator@UEXPCHAR_DATA@@@std@@@std@@@2@V?$_Vector_const_iterator@V?$_Vector_val@UEXPCHAR_DATA@@V?$allocator@UEXPCHAR_DATA@@@std@@@std@@@2@0@Z
_TEXT	SEGMENT
___$ReturnUdt$ = 8					; size = 4
__First_arg$ = 12					; size = 4
__Last_arg$ = 16					; size = 4
?erase@?$vector@UEXPCHAR_DATA@@V?$allocator@UEXPCHAR_DATA@@@std@@@std@@QAE?AV?$_Vector_iterator@V?$_Vector_val@UEXPCHAR_DATA@@V?$allocator@UEXPCHAR_DATA@@@std@@@std@@@2@V?$_Vector_const_iterator@V?$_Vector_val@UEXPCHAR_DATA@@V?$allocator@UEXPCHAR_DATA@@@std@@@std@@@2@0@Z PROC ; std::vector<EXPCHAR_DATA,std::allocator<EXPCHAR_DATA> >::erase, COMDAT
; _this$ = ecx

; 1190 : 		{	// erase [_First, _Last)

  00000	55		 push	 ebp
  00001	8b ec		 mov	 ebp, esp

; 1191 : 		iterator _First = _Make_iter(_First_arg);
; 1192 : 		iterator _Last = _Make_iter(_Last_arg);
; 1193 : 
; 1194 : 		if (_First != _Last)

  00003	8b 55 10	 mov	 edx, DWORD PTR __Last_arg$[ebp]
  00006	8b 45 08	 mov	 eax, DWORD PTR ___$ReturnUdt$[ebp]
  00009	56		 push	 esi
  0000a	8b 75 0c	 mov	 esi, DWORD PTR __First_arg$[ebp]
  0000d	89 30		 mov	 DWORD PTR [eax], esi
  0000f	3b f2		 cmp	 esi, edx
  00011	74 34		 je	 SHORT $LN1@erase@2

; 1195 : 			{	// worth doing, copy down over hole
; 1196 :  #if _ITERATOR_DEBUG_LEVEL == 2
; 1197 : 			if (_Last < _First || _VICONT(_First) != this
; 1198 : 				|| _VIPTR(_First) < this->_Myfirst
; 1199 : 				|| this->_Mylast < _VIPTR(_Last))
; 1200 : 				_DEBUG_ERROR("vector erase iterator outside range");
; 1201 : 			pointer _Ptr = _Move(_VIPTR(_Last), this->_Mylast,
; 1202 : 				_VIPTR(_First));
; 1203 : 			_Orphan_range(_VIPTR(_First), this->_Mylast);
; 1204 : 
; 1205 :  #else /* _ITERATOR_DEBUG_LEVEL == 2 */
; 1206 : 			pointer _Ptr = _Move(_VIPTR(_Last), this->_Mylast,
; 1207 : 				_VIPTR(_First));

  00013	57		 push	 edi
  00014	8b 79 04	 mov	 edi, DWORD PTR [ecx+4]
  00017	3b d7		 cmp	 edx, edi
  00019	74 28		 je	 SHORT $LN30@erase@2
  0001b	53		 push	 ebx
  0001c	8d 64 24 00	 npad	 4
$LL32@erase@2:
  00020	8b 1a		 mov	 ebx, DWORD PTR [edx]
  00022	89 1e		 mov	 DWORD PTR [esi], ebx
  00024	8b 5a 04	 mov	 ebx, DWORD PTR [edx+4]
  00027	89 5e 04	 mov	 DWORD PTR [esi+4], ebx
  0002a	8b 5a 08	 mov	 ebx, DWORD PTR [edx+8]
  0002d	89 5e 08	 mov	 DWORD PTR [esi+8], ebx
  00030	66 8b 5a 0c	 mov	 bx, WORD PTR [edx+12]
  00034	66 89 5e 0c	 mov	 WORD PTR [esi+12], bx
  00038	83 c2 0e	 add	 edx, 14			; 0000000eH
  0003b	83 c6 0e	 add	 esi, 14			; 0000000eH
  0003e	3b d7		 cmp	 edx, edi
  00040	75 de		 jne	 SHORT $LL32@erase@2
  00042	5b		 pop	 ebx
$LN30@erase@2:

; 1208 :  #endif /* _ITERATOR_DEBUG_LEVEL == 2 */
; 1209 : 
; 1210 : 			_Destroy(_Ptr, this->_Mylast);
; 1211 : 			this->_Mylast = _Ptr;

  00043	89 71 04	 mov	 DWORD PTR [ecx+4], esi
  00046	5f		 pop	 edi
$LN1@erase@2:
  00047	5e		 pop	 esi

; 1212 : 			}
; 1213 : 		return (_First);
; 1214 : 		}

  00048	5d		 pop	 ebp
  00049	c2 0c 00	 ret	 12			; 0000000cH
?erase@?$vector@UEXPCHAR_DATA@@V?$allocator@UEXPCHAR_DATA@@@std@@@std@@QAE?AV?$_Vector_iterator@V?$_Vector_val@UEXPCHAR_DATA@@V?$allocator@UEXPCHAR_DATA@@@std@@@std@@@2@V?$_Vector_const_iterator@V?$_Vector_val@UEXPCHAR_DATA@@V?$allocator@UEXPCHAR_DATA@@@std@@@std@@@2@0@Z ENDP ; std::vector<EXPCHAR_DATA,std::allocator<EXPCHAR_DATA> >::erase
_TEXT	ENDS
PUBLIC	?_Tidy@?$vector@UEXPCHAR_DATA@@V?$allocator@UEXPCHAR_DATA@@@std@@@std@@IAEXXZ ; std::vector<EXPCHAR_DATA,std::allocator<EXPCHAR_DATA> >::_Tidy
; Function compile flags: /Ogtp
;	COMDAT ?_Tidy@?$vector@UEXPCHAR_DATA@@V?$allocator@UEXPCHAR_DATA@@@std@@@std@@IAEXXZ
_TEXT	SEGMENT
?_Tidy@?$vector@UEXPCHAR_DATA@@V?$allocator@UEXPCHAR_DATA@@@std@@@std@@IAEXXZ PROC ; std::vector<EXPCHAR_DATA,std::allocator<EXPCHAR_DATA> >::_Tidy, COMDAT
; _this$ = ecx

; 1301 : 		{	// free all storage

  00000	56		 push	 esi
  00001	8b f1		 mov	 esi, ecx

; 1302 : 		if (this->_Myfirst != 0)

  00003	8b 06		 mov	 eax, DWORD PTR [esi]
  00005	85 c0		 test	 eax, eax
  00007	74 09		 je	 SHORT $LN6@Tidy@2

; 1303 : 			{	// something to free, destroy and deallocate it
; 1304 : 			this->_Orphan_all();
; 1305 : 			_Destroy(this->_Myfirst, this->_Mylast);
; 1306 : 			this->_Alval.deallocate(this->_Myfirst,
; 1307 : 				this->_Myend - this->_Myfirst);

  00009	50		 push	 eax
  0000a	e8 00 00 00 00	 call	 ??3@YAXPAX@Z		; operator delete
  0000f	83 c4 04	 add	 esp, 4
$LN6@Tidy@2:

; 1308 : 			}
; 1309 : 		this->_Myfirst = 0;

  00012	c7 06 00 00 00
	00		 mov	 DWORD PTR [esi], 0

; 1310 : 		this->_Mylast = 0;

  00018	c7 46 04 00 00
	00 00		 mov	 DWORD PTR [esi+4], 0

; 1311 : 		this->_Myend = 0;

  0001f	c7 46 08 00 00
	00 00		 mov	 DWORD PTR [esi+8], 0
  00026	5e		 pop	 esi

; 1312 : 		}

  00027	c3		 ret	 0
?_Tidy@?$vector@UEXPCHAR_DATA@@V?$allocator@UEXPCHAR_DATA@@@std@@@std@@IAEXXZ ENDP ; std::vector<EXPCHAR_DATA,std::allocator<EXPCHAR_DATA> >::_Tidy
_TEXT	ENDS
PUBLIC	?reserve@?$vector@UIMPERIALPET_DATA@@V?$allocator@UIMPERIALPET_DATA@@@std@@@std@@QAEXI@Z ; std::vector<IMPERIALPET_DATA,std::allocator<IMPERIALPET_DATA> >::reserve
EXTRN	___CxxFrameHandler3:PROC
;	COMDAT xdata$x
; File d:\program files (x86)\microsoft visual studio 10.0\vc\include\xutility
xdata$x	SEGMENT
__catchsym$?reserve@?$vector@UIMPERIALPET_DATA@@V?$allocator@UIMPERIALPET_DATA@@@std@@@std@@QAEXI@Z$2 DD 040H
	DD	00H
	DD	00H
	DD	FLAT:__catch$?reserve@?$vector@UIMPERIALPET_DATA@@V?$allocator@UIMPERIALPET_DATA@@@std@@@std@@QAEXI@Z$0
__unwindtable$?reserve@?$vector@UIMPERIALPET_DATA@@V?$allocator@UIMPERIALPET_DATA@@@std@@@std@@QAEXI@Z DD 0ffffffffH
	DD	00H
	DD	0ffffffffH
	DD	00H
__tryblocktable$?reserve@?$vector@UIMPERIALPET_DATA@@V?$allocator@UIMPERIALPET_DATA@@@std@@@std@@QAEXI@Z DD 00H
	DD	00H
	DD	01H
	DD	01H
	DD	FLAT:__catchsym$?reserve@?$vector@UIMPERIALPET_DATA@@V?$allocator@UIMPERIALPET_DATA@@@std@@@std@@QAEXI@Z$2
__ehfuncinfo$?reserve@?$vector@UIMPERIALPET_DATA@@V?$allocator@UIMPERIALPET_DATA@@@std@@@std@@QAEXI@Z DD 019930522H
	DD	02H
	DD	FLAT:__unwindtable$?reserve@?$vector@UIMPERIALPET_DATA@@V?$allocator@UIMPERIALPET_DATA@@@std@@@std@@QAEXI@Z
	DD	01H
	DD	FLAT:__tryblocktable$?reserve@?$vector@UIMPERIALPET_DATA@@V?$allocator@UIMPERIALPET_DATA@@@std@@@std@@QAEXI@Z
	DD	2 DUP(00H)
	DD	00H
	DD	01H
; Function compile flags: /Ogtp
; File d:\program files (x86)\microsoft visual studio 10.0\vc\include\vector
xdata$x	ENDS
;	COMDAT ?reserve@?$vector@UIMPERIALPET_DATA@@V?$allocator@UIMPERIALPET_DATA@@@std@@@std@@QAEXI@Z
_TEXT	SEGMENT
__Ptr$210501 = -20					; size = 4
__$EHRec$ = -16						; size = 16
__Cat$213177 = 8					; size = 1
__Count$ = 8						; size = 4
?reserve@?$vector@UIMPERIALPET_DATA@@V?$allocator@UIMPERIALPET_DATA@@@std@@@std@@QAEXI@Z PROC ; std::vector<IMPERIALPET_DATA,std::allocator<IMPERIALPET_DATA> >::reserve, COMDAT
; _this$ = ecx

; 746  : 		{	// determine new minimum length of allocated storage

  00000	55		 push	 ebp
  00001	8b ec		 mov	 ebp, esp
  00003	6a ff		 push	 -1
  00005	68 00 00 00 00	 push	 __ehhandler$?reserve@?$vector@UIMPERIALPET_DATA@@V?$allocator@UIMPERIALPET_DATA@@@std@@@std@@QAEXI@Z
  0000a	64 a1 00 00 00
	00		 mov	 eax, DWORD PTR fs:0
  00010	50		 push	 eax
  00011	83 ec 08	 sub	 esp, 8
  00014	53		 push	 ebx
  00015	56		 push	 esi
  00016	57		 push	 edi
  00017	a1 00 00 00 00	 mov	 eax, DWORD PTR ___security_cookie
  0001c	33 c5		 xor	 eax, ebp
  0001e	50		 push	 eax
  0001f	8d 45 f4	 lea	 eax, DWORD PTR __$EHRec$[ebp+4]
  00022	64 a3 00 00 00
	00		 mov	 DWORD PTR fs:0, eax
  00028	89 65 f0	 mov	 DWORD PTR __$EHRec$[ebp], esp
  0002b	8b f1		 mov	 esi, ecx

; 747  : 		if (max_size() < _Count)

  0002d	8b 5d 08	 mov	 ebx, DWORD PTR __Count$[ebp]
  00030	81 fb 92 24 49
	12		 cmp	 ebx, 306783378		; 12492492H
  00036	76 0a		 jbe	 SHORT $LN5@reserve

; 748  : 			_Xlen();	// result too long

  00038	68 00 00 00 00	 push	 OFFSET ??_C@_0BD@OLBABOEK@vector?$DMT?$DO?5too?5long?$AA@
  0003d	e8 00 00 00 00	 call	 ?_Xlength_error@std@@YAXPBD@Z ; std::_Xlength_error
$LN42@reserve:
$LN5@reserve:

; 749  : 		else if (capacity() < _Count)

  00042	8b 4e 08	 mov	 ecx, DWORD PTR [esi+8]
  00045	2b 0e		 sub	 ecx, DWORD PTR [esi]
  00047	b8 93 24 49 92	 mov	 eax, -1840700269	; 92492493H
  0004c	f7 e9		 imul	 ecx
  0004e	03 d1		 add	 edx, ecx
  00050	c1 fa 03	 sar	 edx, 3
  00053	8b c2		 mov	 eax, edx
  00055	c1 e8 1f	 shr	 eax, 31			; 0000001fH
  00058	03 c2		 add	 eax, edx
  0005a	3b c3		 cmp	 eax, ebx
  0005c	73 79		 jae	 SHORT $LN3@reserve

; 750  : 			{	// not enough room, reallocate
; 751  : 			pointer _Ptr = this->_Alval.allocate(_Count);

  0005e	8d 7e 0c	 lea	 edi, DWORD PTR [esi+12]
  00061	53		 push	 ebx
  00062	8b cf		 mov	 ecx, edi
  00064	e8 00 00 00 00	 call	 ?allocate@?$allocator@UIMPERIALPET_DATA@@@std@@QAEPAUIMPERIALPET_DATA@@I@Z ; std::allocator<IMPERIALPET_DATA>::allocate

; 752  : 
; 753  : 			_TRY_BEGIN
; 754  : 			_Umove(this->_Myfirst, this->_Mylast, _Ptr);

  00069	8b 5d 08	 mov	 ebx, DWORD PTR __Cat$213177[ebp]
  0006c	8b 4e 04	 mov	 ecx, DWORD PTR [esi+4]
  0006f	8b 16		 mov	 edx, DWORD PTR [esi]
  00071	53		 push	 ebx
  00072	6a 00		 push	 0
  00074	57		 push	 edi
  00075	50		 push	 eax
  00076	51		 push	 ecx
  00077	52		 push	 edx
  00078	89 45 ec	 mov	 DWORD PTR __Ptr$210501[ebp], eax
  0007b	c7 45 fc 00 00
	00 00		 mov	 DWORD PTR __$EHRec$[ebp+12], 0
  00082	e8 00 00 00 00	 call	 ??$_Uninit_move@PAUIMPERIALPET_DATA@@PAU1@V?$allocator@UIMPERIALPET_DATA@@@std@@U1@@std@@YAPAUIMPERIALPET_DATA@@PAU1@00AAV?$allocator@UIMPERIALPET_DATA@@@0@0U_Nonscalar_ptr_iterator_tag@0@@Z ; std::_Uninit_move<IMPERIALPET_DATA *,IMPERIALPET_DATA *,std::allocator<IMPERIALPET_DATA>,IMPERIALPET_DATA>

; 758  : 			_CATCH_END
; 759  : 
; 760  : 			size_type _Size = size();

  00087	8b 1e		 mov	 ebx, DWORD PTR [esi]
  00089	8b 4e 04	 mov	 ecx, DWORD PTR [esi+4]
  0008c	2b cb		 sub	 ecx, ebx
  0008e	b8 93 24 49 92	 mov	 eax, -1840700269	; 92492493H
  00093	f7 e9		 imul	 ecx
  00095	03 d1		 add	 edx, ecx
  00097	c1 fa 03	 sar	 edx, 3
  0009a	8b fa		 mov	 edi, edx
  0009c	c1 ef 1f	 shr	 edi, 31			; 0000001fH
  0009f	83 c4 18	 add	 esp, 24			; 00000018H
  000a2	03 fa		 add	 edi, edx

; 761  : 			if (this->_Myfirst != 0)

  000a4	85 db		 test	 ebx, ebx
  000a6	74 09		 je	 SHORT $LN35@reserve

; 762  : 				{	// destroy and deallocate old array
; 763  : 				_Destroy(this->_Myfirst, this->_Mylast);
; 764  : 				this->_Alval.deallocate(this->_Myfirst,
; 765  : 					this->_Myend - this->_Myfirst);

  000a8	53		 push	 ebx
  000a9	e8 00 00 00 00	 call	 ??3@YAXPAX@Z		; operator delete
  000ae	83 c4 04	 add	 esp, 4
$LN35@reserve:

; 766  : 				}
; 767  : 
; 768  : 			this->_Orphan_all();
; 769  : 			this->_Myend = _Ptr + _Count;

  000b1	8b 45 08	 mov	 eax, DWORD PTR __Count$[ebp]
  000b4	8d 0c c5 00 00
	00 00		 lea	 ecx, DWORD PTR [eax*8]
  000bb	2b c8		 sub	 ecx, eax
  000bd	8b 45 ec	 mov	 eax, DWORD PTR __Ptr$210501[ebp]
  000c0	8d 14 48	 lea	 edx, DWORD PTR [eax+ecx*2]

; 770  : 			this->_Mylast = _Ptr + _Size;

  000c3	8d 0c fd 00 00
	00 00		 lea	 ecx, DWORD PTR [edi*8]
  000ca	2b cf		 sub	 ecx, edi
  000cc	89 56 08	 mov	 DWORD PTR [esi+8], edx
  000cf	8d 14 48	 lea	 edx, DWORD PTR [eax+ecx*2]
  000d2	89 56 04	 mov	 DWORD PTR [esi+4], edx

; 771  : 			this->_Myfirst = _Ptr;

  000d5	89 06		 mov	 DWORD PTR [esi], eax
$LN3@reserve:

; 772  : 			}
; 773  : 		}

  000d7	8b 4d f4	 mov	 ecx, DWORD PTR __$EHRec$[ebp+4]
  000da	64 89 0d 00 00
	00 00		 mov	 DWORD PTR fs:0, ecx
  000e1	59		 pop	 ecx
  000e2	5f		 pop	 edi
  000e3	5e		 pop	 esi
  000e4	5b		 pop	 ebx
  000e5	8b e5		 mov	 esp, ebp
  000e7	5d		 pop	 ebp
  000e8	c2 04 00	 ret	 4
__catch$?reserve@?$vector@UIMPERIALPET_DATA@@V?$allocator@UIMPERIALPET_DATA@@@std@@@std@@QAEXI@Z$0:

; 755  : 			_CATCH_ALL
; 756  : 			this->_Alval.deallocate(_Ptr, _Count);

  000eb	8b 45 ec	 mov	 eax, DWORD PTR __Ptr$210501[ebp]
  000ee	50		 push	 eax
  000ef	e8 00 00 00 00	 call	 ??3@YAXPAX@Z		; operator delete
  000f4	83 c4 04	 add	 esp, 4

; 757  : 			_RERAISE;

  000f7	6a 00		 push	 0
  000f9	6a 00		 push	 0
  000fb	e8 00 00 00 00	 call	 __CxxThrowException@8
$LN43@reserve:
$LN41@reserve:
  00100	cc		 int	 3
_TEXT	ENDS
;	COMDAT text$x
text$x	SEGMENT
__ehhandler$?reserve@?$vector@UIMPERIALPET_DATA@@V?$allocator@UIMPERIALPET_DATA@@@std@@@std@@QAEXI@Z:
  00000	8b 54 24 08	 mov	 edx, DWORD PTR [esp+8]
  00004	8d 42 0c	 lea	 eax, DWORD PTR [edx+12]
  00007	8b 4a e8	 mov	 ecx, DWORD PTR [edx-24]
  0000a	33 c8		 xor	 ecx, eax
  0000c	e8 00 00 00 00	 call	 @__security_check_cookie@4
  00011	b8 00 00 00 00	 mov	 eax, OFFSET __ehfuncinfo$?reserve@?$vector@UIMPERIALPET_DATA@@V?$allocator@UIMPERIALPET_DATA@@@std@@@std@@QAEXI@Z
  00016	e9 00 00 00 00	 jmp	 ___CxxFrameHandler3
text$x	ENDS
?reserve@?$vector@UIMPERIALPET_DATA@@V?$allocator@UIMPERIALPET_DATA@@@std@@@std@@QAEXI@Z ENDP ; std::vector<IMPERIALPET_DATA,std::allocator<IMPERIALPET_DATA> >::reserve
PUBLIC	?reserve@?$vector@UEXPCHAR_DATA@@V?$allocator@UEXPCHAR_DATA@@@std@@@std@@QAEXI@Z ; std::vector<EXPCHAR_DATA,std::allocator<EXPCHAR_DATA> >::reserve
;	COMDAT xdata$x
; File d:\program files (x86)\microsoft visual studio 10.0\vc\include\xutility
xdata$x	SEGMENT
__catchsym$?reserve@?$vector@UEXPCHAR_DATA@@V?$allocator@UEXPCHAR_DATA@@@std@@@std@@QAEXI@Z$2 DD 040H
	DD	00H
	DD	00H
	DD	FLAT:__catch$?reserve@?$vector@UEXPCHAR_DATA@@V?$allocator@UEXPCHAR_DATA@@@std@@@std@@QAEXI@Z$0
__unwindtable$?reserve@?$vector@UEXPCHAR_DATA@@V?$allocator@UEXPCHAR_DATA@@@std@@@std@@QAEXI@Z DD 0ffffffffH
	DD	00H
	DD	0ffffffffH
	DD	00H
__tryblocktable$?reserve@?$vector@UEXPCHAR_DATA@@V?$allocator@UEXPCHAR_DATA@@@std@@@std@@QAEXI@Z DD 00H
	DD	00H
	DD	01H
	DD	01H
	DD	FLAT:__catchsym$?reserve@?$vector@UEXPCHAR_DATA@@V?$allocator@UEXPCHAR_DATA@@@std@@@std@@QAEXI@Z$2
__ehfuncinfo$?reserve@?$vector@UEXPCHAR_DATA@@V?$allocator@UEXPCHAR_DATA@@@std@@@std@@QAEXI@Z DD 019930522H
	DD	02H
	DD	FLAT:__unwindtable$?reserve@?$vector@UEXPCHAR_DATA@@V?$allocator@UEXPCHAR_DATA@@@std@@@std@@QAEXI@Z
	DD	01H
	DD	FLAT:__tryblocktable$?reserve@?$vector@UEXPCHAR_DATA@@V?$allocator@UEXPCHAR_DATA@@@std@@@std@@QAEXI@Z
	DD	2 DUP(00H)
	DD	00H
	DD	01H
; Function compile flags: /Ogtp
; File d:\program files (x86)\microsoft visual studio 10.0\vc\include\vector
xdata$x	ENDS
;	COMDAT ?reserve@?$vector@UEXPCHAR_DATA@@V?$allocator@UEXPCHAR_DATA@@@std@@@std@@QAEXI@Z
_TEXT	SEGMENT
__Ptr$210542 = -20					; size = 4
__$EHRec$ = -16						; size = 16
__Cat$213263 = 8					; size = 1
__Count$ = 8						; size = 4
?reserve@?$vector@UEXPCHAR_DATA@@V?$allocator@UEXPCHAR_DATA@@@std@@@std@@QAEXI@Z PROC ; std::vector<EXPCHAR_DATA,std::allocator<EXPCHAR_DATA> >::reserve, COMDAT
; _this$ = ecx

; 746  : 		{	// determine new minimum length of allocated storage

  00000	55		 push	 ebp
  00001	8b ec		 mov	 ebp, esp
  00003	6a ff		 push	 -1
  00005	68 00 00 00 00	 push	 __ehhandler$?reserve@?$vector@UEXPCHAR_DATA@@V?$allocator@UEXPCHAR_DATA@@@std@@@std@@QAEXI@Z
  0000a	64 a1 00 00 00
	00		 mov	 eax, DWORD PTR fs:0
  00010	50		 push	 eax
  00011	83 ec 08	 sub	 esp, 8
  00014	53		 push	 ebx
  00015	56		 push	 esi
  00016	57		 push	 edi
  00017	a1 00 00 00 00	 mov	 eax, DWORD PTR ___security_cookie
  0001c	33 c5		 xor	 eax, ebp
  0001e	50		 push	 eax
  0001f	8d 45 f4	 lea	 eax, DWORD PTR __$EHRec$[ebp+4]
  00022	64 a3 00 00 00
	00		 mov	 DWORD PTR fs:0, eax
  00028	89 65 f0	 mov	 DWORD PTR __$EHRec$[ebp], esp
  0002b	8b f1		 mov	 esi, ecx

; 747  : 		if (max_size() < _Count)

  0002d	8b 5d 08	 mov	 ebx, DWORD PTR __Count$[ebp]
  00030	81 fb 92 24 49
	12		 cmp	 ebx, 306783378		; 12492492H
  00036	76 0a		 jbe	 SHORT $LN5@reserve@2

; 748  : 			_Xlen();	// result too long

  00038	68 00 00 00 00	 push	 OFFSET ??_C@_0BD@OLBABOEK@vector?$DMT?$DO?5too?5long?$AA@
  0003d	e8 00 00 00 00	 call	 ?_Xlength_error@std@@YAXPBD@Z ; std::_Xlength_error
$LN42@reserve@2:
$LN5@reserve@2:

; 749  : 		else if (capacity() < _Count)

  00042	8b 4e 08	 mov	 ecx, DWORD PTR [esi+8]
  00045	2b 0e		 sub	 ecx, DWORD PTR [esi]
  00047	b8 93 24 49 92	 mov	 eax, -1840700269	; 92492493H
  0004c	f7 e9		 imul	 ecx
  0004e	03 d1		 add	 edx, ecx
  00050	c1 fa 03	 sar	 edx, 3
  00053	8b c2		 mov	 eax, edx
  00055	c1 e8 1f	 shr	 eax, 31			; 0000001fH
  00058	03 c2		 add	 eax, edx
  0005a	3b c3		 cmp	 eax, ebx
  0005c	73 79		 jae	 SHORT $LN3@reserve@2

; 750  : 			{	// not enough room, reallocate
; 751  : 			pointer _Ptr = this->_Alval.allocate(_Count);

  0005e	8d 7e 0c	 lea	 edi, DWORD PTR [esi+12]
  00061	53		 push	 ebx
  00062	8b cf		 mov	 ecx, edi
  00064	e8 00 00 00 00	 call	 ?allocate@?$allocator@UEXPCHAR_DATA@@@std@@QAEPAUEXPCHAR_DATA@@I@Z ; std::allocator<EXPCHAR_DATA>::allocate

; 752  : 
; 753  : 			_TRY_BEGIN
; 754  : 			_Umove(this->_Myfirst, this->_Mylast, _Ptr);

  00069	8b 5d 08	 mov	 ebx, DWORD PTR __Cat$213263[ebp]
  0006c	8b 4e 04	 mov	 ecx, DWORD PTR [esi+4]
  0006f	8b 16		 mov	 edx, DWORD PTR [esi]
  00071	53		 push	 ebx
  00072	6a 00		 push	 0
  00074	57		 push	 edi
  00075	50		 push	 eax
  00076	51		 push	 ecx
  00077	52		 push	 edx
  00078	89 45 ec	 mov	 DWORD PTR __Ptr$210542[ebp], eax
  0007b	c7 45 fc 00 00
	00 00		 mov	 DWORD PTR __$EHRec$[ebp+12], 0
  00082	e8 00 00 00 00	 call	 ??$_Uninit_move@PAUEXPCHAR_DATA@@PAU1@V?$allocator@UEXPCHAR_DATA@@@std@@U1@@std@@YAPAUEXPCHAR_DATA@@PAU1@00AAV?$allocator@UEXPCHAR_DATA@@@0@0U_Nonscalar_ptr_iterator_tag@0@@Z ; std::_Uninit_move<EXPCHAR_DATA *,EXPCHAR_DATA *,std::allocator<EXPCHAR_DATA>,EXPCHAR_DATA>

; 758  : 			_CATCH_END
; 759  : 
; 760  : 			size_type _Size = size();

  00087	8b 1e		 mov	 ebx, DWORD PTR [esi]
  00089	8b 4e 04	 mov	 ecx, DWORD PTR [esi+4]
  0008c	2b cb		 sub	 ecx, ebx
  0008e	b8 93 24 49 92	 mov	 eax, -1840700269	; 92492493H
  00093	f7 e9		 imul	 ecx
  00095	03 d1		 add	 edx, ecx
  00097	c1 fa 03	 sar	 edx, 3
  0009a	8b fa		 mov	 edi, edx
  0009c	c1 ef 1f	 shr	 edi, 31			; 0000001fH
  0009f	83 c4 18	 add	 esp, 24			; 00000018H
  000a2	03 fa		 add	 edi, edx

; 761  : 			if (this->_Myfirst != 0)

  000a4	85 db		 test	 ebx, ebx
  000a6	74 09		 je	 SHORT $LN35@reserve@2

; 762  : 				{	// destroy and deallocate old array
; 763  : 				_Destroy(this->_Myfirst, this->_Mylast);
; 764  : 				this->_Alval.deallocate(this->_Myfirst,
; 765  : 					this->_Myend - this->_Myfirst);

  000a8	53		 push	 ebx
  000a9	e8 00 00 00 00	 call	 ??3@YAXPAX@Z		; operator delete
  000ae	83 c4 04	 add	 esp, 4
$LN35@reserve@2:

; 766  : 				}
; 767  : 
; 768  : 			this->_Orphan_all();
; 769  : 			this->_Myend = _Ptr + _Count;

  000b1	8b 45 08	 mov	 eax, DWORD PTR __Count$[ebp]
  000b4	8d 0c c5 00 00
	00 00		 lea	 ecx, DWORD PTR [eax*8]
  000bb	2b c8		 sub	 ecx, eax
  000bd	8b 45 ec	 mov	 eax, DWORD PTR __Ptr$210542[ebp]
  000c0	8d 14 48	 lea	 edx, DWORD PTR [eax+ecx*2]

; 770  : 			this->_Mylast = _Ptr + _Size;

  000c3	8d 0c fd 00 00
	00 00		 lea	 ecx, DWORD PTR [edi*8]
  000ca	2b cf		 sub	 ecx, edi
  000cc	89 56 08	 mov	 DWORD PTR [esi+8], edx
  000cf	8d 14 48	 lea	 edx, DWORD PTR [eax+ecx*2]
  000d2	89 56 04	 mov	 DWORD PTR [esi+4], edx

; 771  : 			this->_Myfirst = _Ptr;

  000d5	89 06		 mov	 DWORD PTR [esi], eax
$LN3@reserve@2:

; 772  : 			}
; 773  : 		}

  000d7	8b 4d f4	 mov	 ecx, DWORD PTR __$EHRec$[ebp+4]
  000da	64 89 0d 00 00
	00 00		 mov	 DWORD PTR fs:0, ecx
  000e1	59		 pop	 ecx
  000e2	5f		 pop	 edi
  000e3	5e		 pop	 esi
  000e4	5b		 pop	 ebx
  000e5	8b e5		 mov	 esp, ebp
  000e7	5d		 pop	 ebp
  000e8	c2 04 00	 ret	 4
__catch$?reserve@?$vector@UEXPCHAR_DATA@@V?$allocator@UEXPCHAR_DATA@@@std@@@std@@QAEXI@Z$0:

; 755  : 			_CATCH_ALL
; 756  : 			this->_Alval.deallocate(_Ptr, _Count);

  000eb	8b 45 ec	 mov	 eax, DWORD PTR __Ptr$210542[ebp]
  000ee	50		 push	 eax
  000ef	e8 00 00 00 00	 call	 ??3@YAXPAX@Z		; operator delete
  000f4	83 c4 04	 add	 esp, 4

; 757  : 			_RERAISE;

  000f7	6a 00		 push	 0
  000f9	6a 00		 push	 0
  000fb	e8 00 00 00 00	 call	 __CxxThrowException@8
$LN43@reserve@2:
$LN41@reserve@2:
  00100	cc		 int	 3
_TEXT	ENDS
;	COMDAT text$x
text$x	SEGMENT
__ehhandler$?reserve@?$vector@UEXPCHAR_DATA@@V?$allocator@UEXPCHAR_DATA@@@std@@@std@@QAEXI@Z:
  00000	8b 54 24 08	 mov	 edx, DWORD PTR [esp+8]
  00004	8d 42 0c	 lea	 eax, DWORD PTR [edx+12]
  00007	8b 4a e8	 mov	 ecx, DWORD PTR [edx-24]
  0000a	33 c8		 xor	 ecx, eax
  0000c	e8 00 00 00 00	 call	 @__security_check_cookie@4
  00011	b8 00 00 00 00	 mov	 eax, OFFSET __ehfuncinfo$?reserve@?$vector@UEXPCHAR_DATA@@V?$allocator@UEXPCHAR_DATA@@@std@@@std@@QAEXI@Z
  00016	e9 00 00 00 00	 jmp	 ___CxxFrameHandler3
text$x	ENDS
?reserve@?$vector@UEXPCHAR_DATA@@V?$allocator@UEXPCHAR_DATA@@@std@@@std@@QAEXI@Z ENDP ; std::vector<EXPCHAR_DATA,std::allocator<EXPCHAR_DATA> >::reserve
PUBLIC	??1?$vector@UIMPERIALPET_DATA@@V?$allocator@UIMPERIALPET_DATA@@@std@@@std@@QAE@XZ ; std::vector<IMPERIALPET_DATA,std::allocator<IMPERIALPET_DATA> >::~vector<IMPERIALPET_DATA,std::allocator<IMPERIALPET_DATA> >
; Function compile flags: /Ogtp
;	COMDAT ??1?$vector@UIMPERIALPET_DATA@@V?$allocator@UIMPERIALPET_DATA@@@std@@@std@@QAE@XZ
_TEXT	SEGMENT
??1?$vector@UIMPERIALPET_DATA@@V?$allocator@UIMPERIALPET_DATA@@@std@@@std@@QAE@XZ PROC ; std::vector<IMPERIALPET_DATA,std::allocator<IMPERIALPET_DATA> >::~vector<IMPERIALPET_DATA,std::allocator<IMPERIALPET_DATA> >, COMDAT
; _this$ = ecx

; 704  : 		{	// destroy the object

  00000	56		 push	 esi
  00001	8b f1		 mov	 esi, ecx

; 705  : 		_Tidy();

  00003	8b 06		 mov	 eax, DWORD PTR [esi]
  00005	85 c0		 test	 eax, eax
  00007	74 09		 je	 SHORT $LN8@vector@2
  00009	50		 push	 eax
  0000a	e8 00 00 00 00	 call	 ??3@YAXPAX@Z		; operator delete
  0000f	83 c4 04	 add	 esp, 4
$LN8@vector@2:
  00012	c7 06 00 00 00
	00		 mov	 DWORD PTR [esi], 0
  00018	c7 46 04 00 00
	00 00		 mov	 DWORD PTR [esi+4], 0
  0001f	c7 46 08 00 00
	00 00		 mov	 DWORD PTR [esi+8], 0
  00026	5e		 pop	 esi

; 706  : 		}

  00027	c3		 ret	 0
??1?$vector@UIMPERIALPET_DATA@@V?$allocator@UIMPERIALPET_DATA@@@std@@@std@@QAE@XZ ENDP ; std::vector<IMPERIALPET_DATA,std::allocator<IMPERIALPET_DATA> >::~vector<IMPERIALPET_DATA,std::allocator<IMPERIALPET_DATA> >
_TEXT	ENDS
PUBLIC	?clear@?$vector@UIMPERIALPET_DATA@@V?$allocator@UIMPERIALPET_DATA@@@std@@@std@@QAEXXZ ; std::vector<IMPERIALPET_DATA,std::allocator<IMPERIALPET_DATA> >::clear
; Function compile flags: /Ogtp
;	COMDAT ?clear@?$vector@UIMPERIALPET_DATA@@V?$allocator@UIMPERIALPET_DATA@@@std@@@std@@QAEXXZ
_TEXT	SEGMENT
?clear@?$vector@UIMPERIALPET_DATA@@V?$allocator@UIMPERIALPET_DATA@@@std@@@std@@QAEXXZ PROC ; std::vector<IMPERIALPET_DATA,std::allocator<IMPERIALPET_DATA> >::clear, COMDAT
; _this$ = ecx

; 1218 : 		erase(begin(), end());

  00000	8b 11		 mov	 edx, DWORD PTR [ecx]
  00002	56		 push	 esi
  00003	8b 71 04	 mov	 esi, DWORD PTR [ecx+4]
  00006	3b d6		 cmp	 edx, esi
  00008	74 2d		 je	 SHORT $LN19@clear
  0000a	8b c6		 mov	 eax, esi
  0000c	3b f6		 cmp	 esi, esi
  0000e	74 24		 je	 SHORT $LN48@clear
  00010	57		 push	 edi
$LL50@clear:
  00011	8b 38		 mov	 edi, DWORD PTR [eax]
  00013	89 3a		 mov	 DWORD PTR [edx], edi
  00015	8b 78 04	 mov	 edi, DWORD PTR [eax+4]
  00018	89 7a 04	 mov	 DWORD PTR [edx+4], edi
  0001b	8b 78 08	 mov	 edi, DWORD PTR [eax+8]
  0001e	89 7a 08	 mov	 DWORD PTR [edx+8], edi
  00021	66 8b 78 0c	 mov	 di, WORD PTR [eax+12]
  00025	66 89 7a 0c	 mov	 WORD PTR [edx+12], di
  00029	83 c0 0e	 add	 eax, 14			; 0000000eH
  0002c	83 c2 0e	 add	 edx, 14			; 0000000eH
  0002f	3b c6		 cmp	 eax, esi
  00031	75 de		 jne	 SHORT $LL50@clear
  00033	5f		 pop	 edi
$LN48@clear:
  00034	89 51 04	 mov	 DWORD PTR [ecx+4], edx
$LN19@clear:
  00037	5e		 pop	 esi

; 1219 : 		}

  00038	c3		 ret	 0
?clear@?$vector@UIMPERIALPET_DATA@@V?$allocator@UIMPERIALPET_DATA@@@std@@@std@@QAEXXZ ENDP ; std::vector<IMPERIALPET_DATA,std::allocator<IMPERIALPET_DATA> >::clear
_TEXT	ENDS
PUBLIC	??1?$vector@UEXPCHAR_DATA@@V?$allocator@UEXPCHAR_DATA@@@std@@@std@@QAE@XZ ; std::vector<EXPCHAR_DATA,std::allocator<EXPCHAR_DATA> >::~vector<EXPCHAR_DATA,std::allocator<EXPCHAR_DATA> >
; Function compile flags: /Ogtp
;	COMDAT ??1?$vector@UEXPCHAR_DATA@@V?$allocator@UEXPCHAR_DATA@@@std@@@std@@QAE@XZ
_TEXT	SEGMENT
??1?$vector@UEXPCHAR_DATA@@V?$allocator@UEXPCHAR_DATA@@@std@@@std@@QAE@XZ PROC ; std::vector<EXPCHAR_DATA,std::allocator<EXPCHAR_DATA> >::~vector<EXPCHAR_DATA,std::allocator<EXPCHAR_DATA> >, COMDAT
; _this$ = ecx

; 704  : 		{	// destroy the object

  00000	56		 push	 esi
  00001	8b f1		 mov	 esi, ecx

; 705  : 		_Tidy();

  00003	8b 06		 mov	 eax, DWORD PTR [esi]
  00005	85 c0		 test	 eax, eax
  00007	74 09		 je	 SHORT $LN8@vector@3
  00009	50		 push	 eax
  0000a	e8 00 00 00 00	 call	 ??3@YAXPAX@Z		; operator delete
  0000f	83 c4 04	 add	 esp, 4
$LN8@vector@3:
  00012	c7 06 00 00 00
	00		 mov	 DWORD PTR [esi], 0
  00018	c7 46 04 00 00
	00 00		 mov	 DWORD PTR [esi+4], 0
  0001f	c7 46 08 00 00
	00 00		 mov	 DWORD PTR [esi+8], 0
  00026	5e		 pop	 esi

; 706  : 		}

  00027	c3		 ret	 0
??1?$vector@UEXPCHAR_DATA@@V?$allocator@UEXPCHAR_DATA@@@std@@@std@@QAE@XZ ENDP ; std::vector<EXPCHAR_DATA,std::allocator<EXPCHAR_DATA> >::~vector<EXPCHAR_DATA,std::allocator<EXPCHAR_DATA> >
_TEXT	ENDS
PUBLIC	?clear@?$vector@UEXPCHAR_DATA@@V?$allocator@UEXPCHAR_DATA@@@std@@@std@@QAEXXZ ; std::vector<EXPCHAR_DATA,std::allocator<EXPCHAR_DATA> >::clear
; Function compile flags: /Ogtp
;	COMDAT ?clear@?$vector@UEXPCHAR_DATA@@V?$allocator@UEXPCHAR_DATA@@@std@@@std@@QAEXXZ
_TEXT	SEGMENT
?clear@?$vector@UEXPCHAR_DATA@@V?$allocator@UEXPCHAR_DATA@@@std@@@std@@QAEXXZ PROC ; std::vector<EXPCHAR_DATA,std::allocator<EXPCHAR_DATA> >::clear, COMDAT
; _this$ = ecx

; 1218 : 		erase(begin(), end());

  00000	8b 11		 mov	 edx, DWORD PTR [ecx]
  00002	56		 push	 esi
  00003	8b 71 04	 mov	 esi, DWORD PTR [ecx+4]
  00006	3b d6		 cmp	 edx, esi
  00008	74 2d		 je	 SHORT $LN19@clear@2
  0000a	8b c6		 mov	 eax, esi
  0000c	3b f6		 cmp	 esi, esi
  0000e	74 24		 je	 SHORT $LN48@clear@2
  00010	57		 push	 edi
$LL50@clear@2:
  00011	8b 38		 mov	 edi, DWORD PTR [eax]
  00013	89 3a		 mov	 DWORD PTR [edx], edi
  00015	8b 78 04	 mov	 edi, DWORD PTR [eax+4]
  00018	89 7a 04	 mov	 DWORD PTR [edx+4], edi
  0001b	8b 78 08	 mov	 edi, DWORD PTR [eax+8]
  0001e	89 7a 08	 mov	 DWORD PTR [edx+8], edi
  00021	66 8b 78 0c	 mov	 di, WORD PTR [eax+12]
  00025	66 89 7a 0c	 mov	 WORD PTR [edx+12], di
  00029	83 c0 0e	 add	 eax, 14			; 0000000eH
  0002c	83 c2 0e	 add	 edx, 14			; 0000000eH
  0002f	3b c6		 cmp	 eax, esi
  00031	75 de		 jne	 SHORT $LL50@clear@2
  00033	5f		 pop	 edi
$LN48@clear@2:
  00034	89 51 04	 mov	 DWORD PTR [ecx+4], edx
$LN19@clear@2:
  00037	5e		 pop	 esi

; 1219 : 		}

  00038	c3		 ret	 0
?clear@?$vector@UEXPCHAR_DATA@@V?$allocator@UEXPCHAR_DATA@@@std@@@std@@QAEXXZ ENDP ; std::vector<EXPCHAR_DATA,std::allocator<EXPCHAR_DATA> >::clear
_TEXT	ENDS
PUBLIC	?_Reserve@?$vector@UIMPERIALPET_DATA@@V?$allocator@UIMPERIALPET_DATA@@@std@@@std@@IAEXI@Z ; std::vector<IMPERIALPET_DATA,std::allocator<IMPERIALPET_DATA> >::_Reserve
; Function compile flags: /Ogtp
;	COMDAT ?_Reserve@?$vector@UIMPERIALPET_DATA@@V?$allocator@UIMPERIALPET_DATA@@@std@@@std@@IAEXI@Z
_TEXT	SEGMENT
__Count$ = 8						; size = 4
?_Reserve@?$vector@UIMPERIALPET_DATA@@V?$allocator@UIMPERIALPET_DATA@@@std@@@std@@IAEXI@Z PROC ; std::vector<IMPERIALPET_DATA,std::allocator<IMPERIALPET_DATA> >::_Reserve, COMDAT
; _this$ = ecx

; 1290 : 		{	// ensure room for _Count new elements, grow exponentially

  00000	55		 push	 ebp
  00001	8b ec		 mov	 ebp, esp
  00003	53		 push	 ebx

; 1291 : 		size_type _Size = size();

  00004	8b 19		 mov	 ebx, DWORD PTR [ecx]
  00006	56		 push	 esi
  00007	8b 71 04	 mov	 esi, DWORD PTR [ecx+4]
  0000a	2b f3		 sub	 esi, ebx
  0000c	b8 93 24 49 92	 mov	 eax, -1840700269	; 92492493H
  00011	f7 ee		 imul	 esi

; 1292 : 		if (max_size() - _Count < _Size)

  00013	8b 45 08	 mov	 eax, DWORD PTR __Count$[ebp]
  00016	03 d6		 add	 edx, esi
  00018	c1 fa 03	 sar	 edx, 3
  0001b	8b f2		 mov	 esi, edx
  0001d	c1 ee 1f	 shr	 esi, 31			; 0000001fH
  00020	03 f2		 add	 esi, edx
  00022	ba 92 24 49 12	 mov	 edx, 306783378		; 12492492H
  00027	2b d0		 sub	 edx, eax
  00029	57		 push	 edi
  0002a	3b d6		 cmp	 edx, esi
  0002c	73 0a		 jae	 SHORT $LN4@Reserve

; 1293 : 			_Xlen();

  0002e	68 00 00 00 00	 push	 OFFSET ??_C@_0BD@OLBABOEK@vector?$DMT?$DO?5too?5long?$AA@
  00033	e8 00 00 00 00	 call	 ?_Xlength_error@std@@YAXPBD@Z ; std::_Xlength_error
$LN34@Reserve:
$LN4@Reserve:

; 1294 : 		else if ((_Size += _Count) <= capacity())

  00038	8b 79 08	 mov	 edi, DWORD PTR [ecx+8]
  0003b	03 f0		 add	 esi, eax
  0003d	2b fb		 sub	 edi, ebx
  0003f	b8 93 24 49 92	 mov	 eax, -1840700269	; 92492493H
  00044	f7 ef		 imul	 edi
  00046	03 d7		 add	 edx, edi
  00048	c1 fa 03	 sar	 edx, 3
  0004b	8b c2		 mov	 eax, edx
  0004d	c1 e8 1f	 shr	 eax, 31			; 0000001fH
  00050	03 c2		 add	 eax, edx
  00052	3b f0		 cmp	 esi, eax
  00054	76 21		 jbe	 SHORT $LN1@Reserve

; 1295 : 			;
; 1296 : 		else
; 1297 : 			reserve(_Grow_to(_Size));

  00056	8b d0		 mov	 edx, eax
  00058	d1 ea		 shr	 edx, 1
  0005a	bf 92 24 49 12	 mov	 edi, 306783378		; 12492492H
  0005f	2b fa		 sub	 edi, edx
  00061	3b f8		 cmp	 edi, eax
  00063	73 04		 jae	 SHORT $LN23@Reserve
  00065	33 c0		 xor	 eax, eax
  00067	eb 02		 jmp	 SHORT $LN24@Reserve
$LN23@Reserve:
  00069	03 c2		 add	 eax, edx
$LN24@Reserve:
  0006b	3b c6		 cmp	 eax, esi
  0006d	73 02		 jae	 SHORT $LN20@Reserve
  0006f	8b c6		 mov	 eax, esi
$LN20@Reserve:
  00071	50		 push	 eax
  00072	e8 00 00 00 00	 call	 ?reserve@?$vector@UIMPERIALPET_DATA@@V?$allocator@UIMPERIALPET_DATA@@@std@@@std@@QAEXI@Z ; std::vector<IMPERIALPET_DATA,std::allocator<IMPERIALPET_DATA> >::reserve
$LN1@Reserve:
  00077	5f		 pop	 edi
  00078	5e		 pop	 esi
  00079	5b		 pop	 ebx

; 1298 : 		}

  0007a	5d		 pop	 ebp
  0007b	c2 04 00	 ret	 4
$LN33@Reserve:
?_Reserve@?$vector@UIMPERIALPET_DATA@@V?$allocator@UIMPERIALPET_DATA@@@std@@@std@@IAEXI@Z ENDP ; std::vector<IMPERIALPET_DATA,std::allocator<IMPERIALPET_DATA> >::_Reserve
_TEXT	ENDS
PUBLIC	?_Reserve@?$vector@UEXPCHAR_DATA@@V?$allocator@UEXPCHAR_DATA@@@std@@@std@@IAEXI@Z ; std::vector<EXPCHAR_DATA,std::allocator<EXPCHAR_DATA> >::_Reserve
; Function compile flags: /Ogtp
;	COMDAT ?_Reserve@?$vector@UEXPCHAR_DATA@@V?$allocator@UEXPCHAR_DATA@@@std@@@std@@IAEXI@Z
_TEXT	SEGMENT
__Count$ = 8						; size = 4
?_Reserve@?$vector@UEXPCHAR_DATA@@V?$allocator@UEXPCHAR_DATA@@@std@@@std@@IAEXI@Z PROC ; std::vector<EXPCHAR_DATA,std::allocator<EXPCHAR_DATA> >::_Reserve, COMDAT
; _this$ = ecx

; 1290 : 		{	// ensure room for _Count new elements, grow exponentially

  00000	55		 push	 ebp
  00001	8b ec		 mov	 ebp, esp
  00003	53		 push	 ebx

; 1291 : 		size_type _Size = size();

  00004	8b 19		 mov	 ebx, DWORD PTR [ecx]
  00006	56		 push	 esi
  00007	8b 71 04	 mov	 esi, DWORD PTR [ecx+4]
  0000a	2b f3		 sub	 esi, ebx
  0000c	b8 93 24 49 92	 mov	 eax, -1840700269	; 92492493H
  00011	f7 ee		 imul	 esi

; 1292 : 		if (max_size() - _Count < _Size)

  00013	8b 45 08	 mov	 eax, DWORD PTR __Count$[ebp]
  00016	03 d6		 add	 edx, esi
  00018	c1 fa 03	 sar	 edx, 3
  0001b	8b f2		 mov	 esi, edx
  0001d	c1 ee 1f	 shr	 esi, 31			; 0000001fH
  00020	03 f2		 add	 esi, edx
  00022	ba 92 24 49 12	 mov	 edx, 306783378		; 12492492H
  00027	2b d0		 sub	 edx, eax
  00029	57		 push	 edi
  0002a	3b d6		 cmp	 edx, esi
  0002c	73 0a		 jae	 SHORT $LN4@Reserve@2

; 1293 : 			_Xlen();

  0002e	68 00 00 00 00	 push	 OFFSET ??_C@_0BD@OLBABOEK@vector?$DMT?$DO?5too?5long?$AA@
  00033	e8 00 00 00 00	 call	 ?_Xlength_error@std@@YAXPBD@Z ; std::_Xlength_error
$LN34@Reserve@2:
$LN4@Reserve@2:

; 1294 : 		else if ((_Size += _Count) <= capacity())

  00038	8b 79 08	 mov	 edi, DWORD PTR [ecx+8]
  0003b	03 f0		 add	 esi, eax
  0003d	2b fb		 sub	 edi, ebx
  0003f	b8 93 24 49 92	 mov	 eax, -1840700269	; 92492493H
  00044	f7 ef		 imul	 edi
  00046	03 d7		 add	 edx, edi
  00048	c1 fa 03	 sar	 edx, 3
  0004b	8b c2		 mov	 eax, edx
  0004d	c1 e8 1f	 shr	 eax, 31			; 0000001fH
  00050	03 c2		 add	 eax, edx
  00052	3b f0		 cmp	 esi, eax
  00054	76 21		 jbe	 SHORT $LN1@Reserve@2

; 1295 : 			;
; 1296 : 		else
; 1297 : 			reserve(_Grow_to(_Size));

  00056	8b d0		 mov	 edx, eax
  00058	d1 ea		 shr	 edx, 1
  0005a	bf 92 24 49 12	 mov	 edi, 306783378		; 12492492H
  0005f	2b fa		 sub	 edi, edx
  00061	3b f8		 cmp	 edi, eax
  00063	73 04		 jae	 SHORT $LN23@Reserve@2
  00065	33 c0		 xor	 eax, eax
  00067	eb 02		 jmp	 SHORT $LN24@Reserve@2
$LN23@Reserve@2:
  00069	03 c2		 add	 eax, edx
$LN24@Reserve@2:
  0006b	3b c6		 cmp	 eax, esi
  0006d	73 02		 jae	 SHORT $LN20@Reserve@2
  0006f	8b c6		 mov	 eax, esi
$LN20@Reserve@2:
  00071	50		 push	 eax
  00072	e8 00 00 00 00	 call	 ?reserve@?$vector@UEXPCHAR_DATA@@V?$allocator@UEXPCHAR_DATA@@@std@@@std@@QAEXI@Z ; std::vector<EXPCHAR_DATA,std::allocator<EXPCHAR_DATA> >::reserve
$LN1@Reserve@2:
  00077	5f		 pop	 edi
  00078	5e		 pop	 esi
  00079	5b		 pop	 ebx

; 1298 : 		}

  0007a	5d		 pop	 ebp
  0007b	c2 04 00	 ret	 4
$LN33@Reserve@2:
?_Reserve@?$vector@UEXPCHAR_DATA@@V?$allocator@UEXPCHAR_DATA@@@std@@@std@@IAEXI@Z ENDP ; std::vector<EXPCHAR_DATA,std::allocator<EXPCHAR_DATA> >::_Reserve
_TEXT	ENDS
PUBLIC	??0CDonateManager@@QAE@XZ			; CDonateManager::CDonateManager
; Function compile flags: /Ogtp
; File e:\work\tranet_version\gs\gameserver\donatemanager.cpp
;	COMDAT ??0CDonateManager@@QAE@XZ
_TEXT	SEGMENT
??0CDonateManager@@QAE@XZ PROC				; CDonateManager::CDonateManager, COMDAT
; _this$ = ecx

; 13   : {

  00000	8b c1		 mov	 eax, ecx
  00002	33 c9		 xor	 ecx, ecx
  00004	89 08		 mov	 DWORD PTR [eax], ecx
  00006	89 48 04	 mov	 DWORD PTR [eax+4], ecx
  00009	89 48 08	 mov	 DWORD PTR [eax+8], ecx
  0000c	56		 push	 esi
  0000d	89 48 10	 mov	 DWORD PTR [eax+16], ecx
  00010	89 48 14	 mov	 DWORD PTR [eax+20], ecx
  00013	89 48 18	 mov	 DWORD PTR [eax+24], ecx

; 14   : 	this->m_PetData.clear();

  00016	8b 30		 mov	 esi, DWORD PTR [eax]
  00018	8b 48 04	 mov	 ecx, DWORD PTR [eax+4]
  0001b	57		 push	 edi
  0001c	3b f1		 cmp	 esi, ecx
  0001e	74 2b		 je	 SHORT $LN39@CDonateMan
  00020	8b d1		 mov	 edx, ecx
  00022	3b c9		 cmp	 ecx, ecx
  00024	74 22		 je	 SHORT $LN68@CDonateMan
$LL70@CDonateMan:
  00026	8b 3a		 mov	 edi, DWORD PTR [edx]
  00028	89 3e		 mov	 DWORD PTR [esi], edi
  0002a	8b 7a 04	 mov	 edi, DWORD PTR [edx+4]
  0002d	89 7e 04	 mov	 DWORD PTR [esi+4], edi
  00030	8b 7a 08	 mov	 edi, DWORD PTR [edx+8]
  00033	89 7e 08	 mov	 DWORD PTR [esi+8], edi
  00036	66 8b 7a 0c	 mov	 di, WORD PTR [edx+12]
  0003a	66 89 7e 0c	 mov	 WORD PTR [esi+12], di
  0003e	83 c2 0e	 add	 edx, 14			; 0000000eH
  00041	83 c6 0e	 add	 esi, 14			; 0000000eH
  00044	3b d1		 cmp	 edx, ecx
  00046	75 de		 jne	 SHORT $LL70@CDonateMan
$LN68@CDonateMan:
  00048	89 70 04	 mov	 DWORD PTR [eax+4], esi
$LN39@CDonateMan:

; 15   : 	this->m_ExpData.clear();

  0004b	8b 70 10	 mov	 esi, DWORD PTR [eax+16]
  0004e	8b 48 14	 mov	 ecx, DWORD PTR [eax+20]
  00051	3b f1		 cmp	 esi, ecx
  00053	74 30		 je	 SHORT $LN93@CDonateMan
  00055	8b d1		 mov	 edx, ecx
  00057	3b c9		 cmp	 ecx, ecx
  00059	74 27		 je	 SHORT $LN122@CDonateMan
  0005b	eb 03 8d 49 00	 npad	 5
$LL124@CDonateMan:
  00060	8b 3a		 mov	 edi, DWORD PTR [edx]
  00062	89 3e		 mov	 DWORD PTR [esi], edi
  00064	8b 7a 04	 mov	 edi, DWORD PTR [edx+4]
  00067	89 7e 04	 mov	 DWORD PTR [esi+4], edi
  0006a	8b 7a 08	 mov	 edi, DWORD PTR [edx+8]
  0006d	89 7e 08	 mov	 DWORD PTR [esi+8], edi
  00070	66 8b 7a 0c	 mov	 di, WORD PTR [edx+12]
  00074	66 89 7e 0c	 mov	 WORD PTR [esi+12], di
  00078	83 c2 0e	 add	 edx, 14			; 0000000eH
  0007b	83 c6 0e	 add	 esi, 14			; 0000000eH
  0007e	3b d1		 cmp	 edx, ecx
  00080	75 de		 jne	 SHORT $LL124@CDonateMan
$LN122@CDonateMan:
  00082	89 70 14	 mov	 DWORD PTR [eax+20], esi
$LN93@CDonateMan:

; 16   : }

  00085	5f		 pop	 edi
  00086	5e		 pop	 esi
  00087	c3		 ret	 0
??0CDonateManager@@QAE@XZ ENDP				; CDonateManager::CDonateManager
_TEXT	ENDS
PUBLIC	??1CDonateManager@@QAE@XZ			; CDonateManager::~CDonateManager
; Function compile flags: /Ogtp
;	COMDAT ??1CDonateManager@@QAE@XZ
_TEXT	SEGMENT
??1CDonateManager@@QAE@XZ PROC				; CDonateManager::~CDonateManager, COMDAT
; _this$ = ecx

; 19   : {

  00000	56		 push	 esi
  00001	8b f1		 mov	 esi, ecx

; 20   : }

  00003	8b 46 10	 mov	 eax, DWORD PTR [esi+16]
  00006	57		 push	 edi
  00007	33 ff		 xor	 edi, edi
  00009	3b c7		 cmp	 eax, edi
  0000b	74 09		 je	 SHORT $LN12@CDonateMan@2
  0000d	50		 push	 eax
  0000e	e8 00 00 00 00	 call	 ??3@YAXPAX@Z		; operator delete
  00013	83 c4 04	 add	 esp, 4
$LN12@CDonateMan@2:
  00016	89 7e 10	 mov	 DWORD PTR [esi+16], edi
  00019	89 7e 14	 mov	 DWORD PTR [esi+20], edi
  0001c	89 7e 18	 mov	 DWORD PTR [esi+24], edi
  0001f	8b 06		 mov	 eax, DWORD PTR [esi]
  00021	3b c7		 cmp	 eax, edi
  00023	74 09		 je	 SHORT $LN23@CDonateMan@2
  00025	50		 push	 eax
  00026	e8 00 00 00 00	 call	 ??3@YAXPAX@Z		; operator delete
  0002b	83 c4 04	 add	 esp, 4
$LN23@CDonateMan@2:
  0002e	89 3e		 mov	 DWORD PTR [esi], edi
  00030	89 7e 04	 mov	 DWORD PTR [esi+4], edi
  00033	89 7e 08	 mov	 DWORD PTR [esi+8], edi
  00036	5f		 pop	 edi
  00037	5e		 pop	 esi
  00038	c3		 ret	 0
??1CDonateManager@@QAE@XZ ENDP				; CDonateManager::~CDonateManager
_TEXT	ENDS
PUBLIC	?push_back@?$vector@UIMPERIALPET_DATA@@V?$allocator@UIMPERIALPET_DATA@@@std@@@std@@QAEXABUIMPERIALPET_DATA@@@Z ; std::vector<IMPERIALPET_DATA,std::allocator<IMPERIALPET_DATA> >::push_back
; Function compile flags: /Ogtp
; File d:\program files (x86)\microsoft visual studio 10.0\vc\include\vector
;	COMDAT ?push_back@?$vector@UIMPERIALPET_DATA@@V?$allocator@UIMPERIALPET_DATA@@@std@@@std@@QAEXABUIMPERIALPET_DATA@@@Z
_TEXT	SEGMENT
__Val$ = 8						; size = 4
?push_back@?$vector@UIMPERIALPET_DATA@@V?$allocator@UIMPERIALPET_DATA@@@std@@@std@@QAEXABUIMPERIALPET_DATA@@@Z PROC ; std::vector<IMPERIALPET_DATA,std::allocator<IMPERIALPET_DATA> >::push_back, COMDAT
; _this$ = ecx

; 976  : 		{	// insert element at end

  00000	55		 push	 ebp
  00001	8b ec		 mov	 ebp, esp
  00003	56		 push	 esi
  00004	8b f1		 mov	 esi, ecx

; 977  : 		if (_Inside(_STD addressof(_Val)))

  00006	8b 4e 04	 mov	 ecx, DWORD PTR [esi+4]
  00009	57		 push	 edi
  0000a	8b 7d 08	 mov	 edi, DWORD PTR __Val$[ebp]
  0000d	3b f9		 cmp	 edi, ecx
  0000f	73 52		 jae	 SHORT $LN4@push_back
  00011	8b 06		 mov	 eax, DWORD PTR [esi]
  00013	3b c7		 cmp	 eax, edi
  00015	77 4c		 ja	 SHORT $LN4@push_back

; 978  : 			{	// push back an element
; 979  : 			size_type _Idx = _STD addressof(_Val) - this->_Myfirst;

  00017	2b f8		 sub	 edi, eax
  00019	b8 93 24 49 92	 mov	 eax, -1840700269	; 92492493H
  0001e	f7 ef		 imul	 edi
  00020	03 d7		 add	 edx, edi
  00022	c1 fa 03	 sar	 edx, 3
  00025	8b fa		 mov	 edi, edx
  00027	c1 ef 1f	 shr	 edi, 31			; 0000001fH
  0002a	03 fa		 add	 edi, edx

; 980  : 			if (this->_Mylast == this->_Myend)

  0002c	3b 4e 08	 cmp	 ecx, DWORD PTR [esi+8]
  0002f	75 09		 jne	 SHORT $LN3@push_back

; 981  : 				_Reserve(1);

  00031	6a 01		 push	 1
  00033	8b ce		 mov	 ecx, esi
  00035	e8 00 00 00 00	 call	 ?_Reserve@?$vector@UIMPERIALPET_DATA@@V?$allocator@UIMPERIALPET_DATA@@@std@@@std@@IAEXI@Z ; std::vector<IMPERIALPET_DATA,std::allocator<IMPERIALPET_DATA> >::_Reserve
$LN3@push_back:

; 982  : 			_Orphan_range(this->_Mylast, this->_Mylast);
; 983  : 			_Cons_val(this->_Alval,
; 984  : 				this->_Mylast,
; 985  : 				this->_Myfirst[_Idx]);

  0003a	8b 0e		 mov	 ecx, DWORD PTR [esi]
  0003c	8d 04 fd 00 00
	00 00		 lea	 eax, DWORD PTR [edi*8]
  00043	2b c7		 sub	 eax, edi
  00045	8d 14 41	 lea	 edx, DWORD PTR [ecx+eax*2]
  00048	8b 46 04	 mov	 eax, DWORD PTR [esi+4]
  0004b	52		 push	 edx
  0004c	50		 push	 eax
  0004d	8d 4e 0c	 lea	 ecx, DWORD PTR [esi+12]
  00050	51		 push	 ecx
  00051	e8 00 00 00 00	 call	 ??$_Cons_val@V?$allocator@UIMPERIALPET_DATA@@@std@@UIMPERIALPET_DATA@@AAU3@@std@@YAXAAV?$allocator@UIMPERIALPET_DATA@@@0@PAUIMPERIALPET_DATA@@AAU2@@Z ; std::_Cons_val<std::allocator<IMPERIALPET_DATA>,IMPERIALPET_DATA,IMPERIALPET_DATA &>

; 992  : 			_Orphan_range(this->_Mylast, this->_Mylast);
; 993  : 			_Cons_val(this->_Alval,
; 994  : 				this->_Mylast,
; 995  : 				_Val);

  00056	83 c4 0c	 add	 esp, 12			; 0000000cH

; 996  : 			++this->_Mylast;

  00059	83 46 04 0e	 add	 DWORD PTR [esi+4], 14	; 0000000eH
  0005d	5f		 pop	 edi
  0005e	5e		 pop	 esi

; 997  : 			}
; 998  : 		}

  0005f	5d		 pop	 ebp
  00060	c2 04 00	 ret	 4
$LN4@push_back:

; 986  : 			++this->_Mylast;
; 987  : 			}
; 988  : 		else
; 989  : 			{	// push back a non-element
; 990  : 			if (this->_Mylast == this->_Myend)

  00063	3b 4e 08	 cmp	 ecx, DWORD PTR [esi+8]
  00066	75 09		 jne	 SHORT $LN1@push_back

; 991  : 				_Reserve(1);

  00068	6a 01		 push	 1
  0006a	8b ce		 mov	 ecx, esi
  0006c	e8 00 00 00 00	 call	 ?_Reserve@?$vector@UIMPERIALPET_DATA@@V?$allocator@UIMPERIALPET_DATA@@@std@@@std@@IAEXI@Z ; std::vector<IMPERIALPET_DATA,std::allocator<IMPERIALPET_DATA> >::_Reserve
$LN1@push_back:

; 992  : 			_Orphan_range(this->_Mylast, this->_Mylast);
; 993  : 			_Cons_val(this->_Alval,
; 994  : 				this->_Mylast,
; 995  : 				_Val);

  00071	8b 56 04	 mov	 edx, DWORD PTR [esi+4]
  00074	57		 push	 edi
  00075	52		 push	 edx
  00076	8d 46 0c	 lea	 eax, DWORD PTR [esi+12]
  00079	50		 push	 eax
  0007a	e8 00 00 00 00	 call	 ??$_Cons_val@V?$allocator@UIMPERIALPET_DATA@@@std@@UIMPERIALPET_DATA@@ABU3@@std@@YAXAAV?$allocator@UIMPERIALPET_DATA@@@0@PAUIMPERIALPET_DATA@@ABU2@@Z ; std::_Cons_val<std::allocator<IMPERIALPET_DATA>,IMPERIALPET_DATA,IMPERIALPET_DATA const &>
  0007f	83 c4 0c	 add	 esp, 12			; 0000000cH

; 996  : 			++this->_Mylast;

  00082	83 46 04 0e	 add	 DWORD PTR [esi+4], 14	; 0000000eH
  00086	5f		 pop	 edi
  00087	5e		 pop	 esi

; 997  : 			}
; 998  : 		}

  00088	5d		 pop	 ebp
  00089	c2 04 00	 ret	 4
?push_back@?$vector@UIMPERIALPET_DATA@@V?$allocator@UIMPERIALPET_DATA@@@std@@@std@@QAEXABUIMPERIALPET_DATA@@@Z ENDP ; std::vector<IMPERIALPET_DATA,std::allocator<IMPERIALPET_DATA> >::push_back
_TEXT	ENDS
PUBLIC	?push_back@?$vector@UEXPCHAR_DATA@@V?$allocator@UEXPCHAR_DATA@@@std@@@std@@QAEXABUEXPCHAR_DATA@@@Z ; std::vector<EXPCHAR_DATA,std::allocator<EXPCHAR_DATA> >::push_back
; Function compile flags: /Ogtp
;	COMDAT ?push_back@?$vector@UEXPCHAR_DATA@@V?$allocator@UEXPCHAR_DATA@@@std@@@std@@QAEXABUEXPCHAR_DATA@@@Z
_TEXT	SEGMENT
__Val$ = 8						; size = 4
?push_back@?$vector@UEXPCHAR_DATA@@V?$allocator@UEXPCHAR_DATA@@@std@@@std@@QAEXABUEXPCHAR_DATA@@@Z PROC ; std::vector<EXPCHAR_DATA,std::allocator<EXPCHAR_DATA> >::push_back, COMDAT
; _this$ = ecx

; 976  : 		{	// insert element at end

  00000	55		 push	 ebp
  00001	8b ec		 mov	 ebp, esp
  00003	56		 push	 esi
  00004	8b f1		 mov	 esi, ecx

; 977  : 		if (_Inside(_STD addressof(_Val)))

  00006	8b 4e 04	 mov	 ecx, DWORD PTR [esi+4]
  00009	57		 push	 edi
  0000a	8b 7d 08	 mov	 edi, DWORD PTR __Val$[ebp]
  0000d	3b f9		 cmp	 edi, ecx
  0000f	73 52		 jae	 SHORT $LN4@push_back@2
  00011	8b 06		 mov	 eax, DWORD PTR [esi]
  00013	3b c7		 cmp	 eax, edi
  00015	77 4c		 ja	 SHORT $LN4@push_back@2

; 978  : 			{	// push back an element
; 979  : 			size_type _Idx = _STD addressof(_Val) - this->_Myfirst;

  00017	2b f8		 sub	 edi, eax
  00019	b8 93 24 49 92	 mov	 eax, -1840700269	; 92492493H
  0001e	f7 ef		 imul	 edi
  00020	03 d7		 add	 edx, edi
  00022	c1 fa 03	 sar	 edx, 3
  00025	8b fa		 mov	 edi, edx
  00027	c1 ef 1f	 shr	 edi, 31			; 0000001fH
  0002a	03 fa		 add	 edi, edx

; 980  : 			if (this->_Mylast == this->_Myend)

  0002c	3b 4e 08	 cmp	 ecx, DWORD PTR [esi+8]
  0002f	75 09		 jne	 SHORT $LN3@push_back@2

; 981  : 				_Reserve(1);

  00031	6a 01		 push	 1
  00033	8b ce		 mov	 ecx, esi
  00035	e8 00 00 00 00	 call	 ?_Reserve@?$vector@UEXPCHAR_DATA@@V?$allocator@UEXPCHAR_DATA@@@std@@@std@@IAEXI@Z ; std::vector<EXPCHAR_DATA,std::allocator<EXPCHAR_DATA> >::_Reserve
$LN3@push_back@2:

; 982  : 			_Orphan_range(this->_Mylast, this->_Mylast);
; 983  : 			_Cons_val(this->_Alval,
; 984  : 				this->_Mylast,
; 985  : 				this->_Myfirst[_Idx]);

  0003a	8b 0e		 mov	 ecx, DWORD PTR [esi]
  0003c	8d 04 fd 00 00
	00 00		 lea	 eax, DWORD PTR [edi*8]
  00043	2b c7		 sub	 eax, edi
  00045	8d 14 41	 lea	 edx, DWORD PTR [ecx+eax*2]
  00048	8b 46 04	 mov	 eax, DWORD PTR [esi+4]
  0004b	52		 push	 edx
  0004c	50		 push	 eax
  0004d	8d 4e 0c	 lea	 ecx, DWORD PTR [esi+12]
  00050	51		 push	 ecx
  00051	e8 00 00 00 00	 call	 ??$_Cons_val@V?$allocator@UEXPCHAR_DATA@@@std@@UEXPCHAR_DATA@@AAU3@@std@@YAXAAV?$allocator@UEXPCHAR_DATA@@@0@PAUEXPCHAR_DATA@@AAU2@@Z ; std::_Cons_val<std::allocator<EXPCHAR_DATA>,EXPCHAR_DATA,EXPCHAR_DATA &>

; 992  : 			_Orphan_range(this->_Mylast, this->_Mylast);
; 993  : 			_Cons_val(this->_Alval,
; 994  : 				this->_Mylast,
; 995  : 				_Val);

  00056	83 c4 0c	 add	 esp, 12			; 0000000cH

; 996  : 			++this->_Mylast;

  00059	83 46 04 0e	 add	 DWORD PTR [esi+4], 14	; 0000000eH
  0005d	5f		 pop	 edi
  0005e	5e		 pop	 esi

; 997  : 			}
; 998  : 		}

  0005f	5d		 pop	 ebp
  00060	c2 04 00	 ret	 4
$LN4@push_back@2:

; 986  : 			++this->_Mylast;
; 987  : 			}
; 988  : 		else
; 989  : 			{	// push back a non-element
; 990  : 			if (this->_Mylast == this->_Myend)

  00063	3b 4e 08	 cmp	 ecx, DWORD PTR [esi+8]
  00066	75 09		 jne	 SHORT $LN1@push_back@2

; 991  : 				_Reserve(1);

  00068	6a 01		 push	 1
  0006a	8b ce		 mov	 ecx, esi
  0006c	e8 00 00 00 00	 call	 ?_Reserve@?$vector@UEXPCHAR_DATA@@V?$allocator@UEXPCHAR_DATA@@@std@@@std@@IAEXI@Z ; std::vector<EXPCHAR_DATA,std::allocator<EXPCHAR_DATA> >::_Reserve
$LN1@push_back@2:

; 992  : 			_Orphan_range(this->_Mylast, this->_Mylast);
; 993  : 			_Cons_val(this->_Alval,
; 994  : 				this->_Mylast,
; 995  : 				_Val);

  00071	8b 56 04	 mov	 edx, DWORD PTR [esi+4]
  00074	57		 push	 edi
  00075	52		 push	 edx
  00076	8d 46 0c	 lea	 eax, DWORD PTR [esi+12]
  00079	50		 push	 eax
  0007a	e8 00 00 00 00	 call	 ??$_Cons_val@V?$allocator@UEXPCHAR_DATA@@@std@@UEXPCHAR_DATA@@ABU3@@std@@YAXAAV?$allocator@UEXPCHAR_DATA@@@0@PAUEXPCHAR_DATA@@ABU2@@Z ; std::_Cons_val<std::allocator<EXPCHAR_DATA>,EXPCHAR_DATA,EXPCHAR_DATA const &>
  0007f	83 c4 0c	 add	 esp, 12			; 0000000cH

; 996  : 			++this->_Mylast;

  00082	83 46 04 0e	 add	 DWORD PTR [esi+4], 14	; 0000000eH
  00086	5f		 pop	 edi
  00087	5e		 pop	 esi

; 997  : 			}
; 998  : 		}

  00088	5d		 pop	 ebp
  00089	c2 04 00	 ret	 4
?push_back@?$vector@UEXPCHAR_DATA@@V?$allocator@UEXPCHAR_DATA@@@std@@@std@@QAEXABUEXPCHAR_DATA@@@Z ENDP ; std::vector<EXPCHAR_DATA,std::allocator<EXPCHAR_DATA> >::push_back
_TEXT	ENDS
PUBLIC	??_C@_0O@CEHBAEMJ@?$CFs?5file?5load?$CB?$AA@	; `string'
PUBLIC	??_C@_03JBJLGPFL@end?$AA@			; `string'
PUBLIC	??_C@_0CD@FLHAKOEB@?$FLDonate?5Manager?$FN?5?$CFs?5file?5not?5fou@ ; `string'
PUBLIC	_filename$GSCopy$
PUBLIC	??_C@_01KDCPPGHE@r?$AA@				; `string'
PUBLIC	__$ArrayPad$
PUBLIC	?Read@CDonateManager@@QAEXPAD@Z			; CDonateManager::Read
EXTRN	?LogAdd@@3P6AXPADZZA:DWORD			; LogAdd
EXTRN	_fclose:PROC
EXTRN	?MsgBox@@YAXPADZZ:PROC				; MsgBox
EXTRN	_fopen:PROC
EXTRN	__ftol2_sse:PROC
;	COMDAT ??_C@_0O@CEHBAEMJ@?$CFs?5file?5load?$CB?$AA@
; File e:\work\tranet_version\gs\gameserver\donatemanager.cpp
CONST	SEGMENT
??_C@_0O@CEHBAEMJ@?$CFs?5file?5load?$CB?$AA@ DB '%s file load!', 00H ; `string'
CONST	ENDS
;	COMDAT ??_C@_03JBJLGPFL@end?$AA@
CONST	SEGMENT
??_C@_03JBJLGPFL@end?$AA@ DB 'end', 00H			; `string'
CONST	ENDS
;	COMDAT ??_C@_0CD@FLHAKOEB@?$FLDonate?5Manager?$FN?5?$CFs?5file?5not?5fou@
CONST	SEGMENT
??_C@_0CD@FLHAKOEB@?$FLDonate?5Manager?$FN?5?$CFs?5file?5not?5fou@ DB '[D'
	DB	'onate Manager] %s file not found', 00H	; `string'
CONST	ENDS
;	COMDAT ??_C@_01KDCPPGHE@r?$AA@
CONST	SEGMENT
??_C@_01KDCPPGHE@r?$AA@ DB 'r', 00H			; `string'
; Function compile flags: /Ogtp
CONST	ENDS
;	COMDAT ?Read@CDonateManager@@QAEXPAD@Z
_TEXT	SEGMENT
_iType$ = -44						; size = 4
_filename$GSCopy$ = -40					; size = 4
_list$209983 = -36					; size = 14
_list$209991 = -20					; size = 14
__$ArrayPad$ = -4					; size = 4
_filename$ = 8						; size = 4
?Read@CDonateManager@@QAEXPAD@Z PROC			; CDonateManager::Read, COMDAT
; _this$ = ecx

; 36   : {

  00000	55		 push	 ebp
  00001	8b ec		 mov	 ebp, esp
  00003	83 ec 2c	 sub	 esp, 44			; 0000002cH
  00006	a1 00 00 00 00	 mov	 eax, DWORD PTR ___security_cookie
  0000b	33 c5		 xor	 eax, ebp
  0000d	89 45 fc	 mov	 DWORD PTR __$ArrayPad$[ebp], eax
  00010	53		 push	 ebx
  00011	56		 push	 esi
  00012	8b 75 08	 mov	 esi, DWORD PTR _filename$[ebp]
  00015	57		 push	 edi

; 37   : 	SMDToken Token;
; 38   : 
; 39   : 	SMDFile = fopen(filename, "r");

  00016	68 00 00 00 00	 push	 OFFSET ??_C@_01KDCPPGHE@r?$AA@
  0001b	56		 push	 esi
  0001c	8b f9		 mov	 edi, ecx

; 44   : 		return;
; 45   : 	}
; 46   : 
; 47   : 	int iType = -1;
; 48   : 
; 49   : 	while(true)
; 50   : 	{
; 51   : 		Token = GetToken();

  0001e	89 75 d8	 mov	 DWORD PTR _filename$GSCopy$[ebp], esi
  00021	e8 00 00 00 00	 call	 _fopen
  00026	33 db		 xor	 ebx, ebx
  00028	83 c4 08	 add	 esp, 8
  0002b	a3 00 00 00 00	 mov	 DWORD PTR _SMDFile, eax
  00030	3b c3		 cmp	 eax, ebx
  00032	75 21		 jne	 SHORT $LN11@Read

; 40   : 
; 41   : 	if(!SMDFile)
; 42   : 	{
; 43   : 		MsgBox("[Donate Manager] %s file not found", filename);

  00034	56		 push	 esi
  00035	68 00 00 00 00	 push	 OFFSET ??_C@_0CD@FLHAKOEB@?$FLDonate?5Manager?$FN?5?$CFs?5file?5not?5fou@
  0003a	e8 00 00 00 00	 call	 ?MsgBox@@YAXPADZZ	; MsgBox
  0003f	83 c4 08	 add	 esp, 8
  00042	5f		 pop	 edi
  00043	5e		 pop	 esi
  00044	5b		 pop	 ebx

; 110  : }

  00045	8b 4d fc	 mov	 ecx, DWORD PTR __$ArrayPad$[ebp]
  00048	33 cd		 xor	 ecx, ebp
  0004a	e8 00 00 00 00	 call	 @__security_check_cookie@4
  0004f	8b e5		 mov	 esp, ebp
  00051	5d		 pop	 ebp
  00052	c2 04 00	 ret	 4
$LN11@Read:

; 44   : 		return;
; 45   : 	}
; 46   : 
; 47   : 	int iType = -1;
; 48   : 
; 49   : 	while(true)
; 50   : 	{
; 51   : 		Token = GetToken();

  00055	e8 00 00 00 00	 call	 ?GetToken@@YA?AW4SMDToken@@XZ ; GetToken

; 52   : 
; 53   : 		if( Token == END )

  0005a	83 f8 02	 cmp	 eax, 2
  0005d	0f 84 4f 01 00
	00		 je	 $LN20@Read
$LL10@Read:

; 54   : 		{
; 55   : 			break;
; 56   : 		}
; 57   : 
; 58   : 		iType = TokenNumber;

  00063	d9 05 00 00 00
	00		 fld	 DWORD PTR _TokenNumber
  00069	e8 00 00 00 00	 call	 __ftol2_sse
  0006e	8b f0		 mov	 esi, eax
  00070	89 75 d4	 mov	 DWORD PTR _iType$[ebp], esi
$LL7@Read:

; 59   : 
; 60   : 		while(true)
; 61   : 		{
; 62   : 			if(iType == 0)

  00073	3b f3		 cmp	 esi, ebx
  00075	0f 85 a1 00 00
	00		 jne	 $LN5@Read

; 63   : 			{
; 64   : 				Token = GetToken();

  0007b	e8 00 00 00 00	 call	 ?GetToken@@YA?AW4SMDToken@@XZ ; GetToken

; 65   : 
; 66   : 				if(strcmp("end", TokenString) == 0)

  00080	b9 00 00 00 00	 mov	 ecx, OFFSET _TokenString
  00085	b8 00 00 00 00	 mov	 eax, OFFSET ??_C@_03JBJLGPFL@end?$AA@
  0008a	8d 9b 00 00 00
	00		 npad	 6
$LL21@Read:
  00090	8a 10		 mov	 dl, BYTE PTR [eax]
  00092	3a 11		 cmp	 dl, BYTE PTR [ecx]
  00094	75 1a		 jne	 SHORT $LN22@Read
  00096	3a d3		 cmp	 dl, bl
  00098	74 12		 je	 SHORT $LN23@Read
  0009a	8a 50 01	 mov	 dl, BYTE PTR [eax+1]
  0009d	3a 51 01	 cmp	 dl, BYTE PTR [ecx+1]
  000a0	75 0e		 jne	 SHORT $LN22@Read
  000a2	83 c0 02	 add	 eax, 2
  000a5	83 c1 02	 add	 ecx, 2
  000a8	3a d3		 cmp	 dl, bl
  000aa	75 e4		 jne	 SHORT $LL21@Read
$LN23@Read:
  000ac	33 c0		 xor	 eax, eax
  000ae	eb 05		 jmp	 SHORT $LN24@Read
$LN22@Read:
  000b0	1b c0		 sbb	 eax, eax
  000b2	83 d8 ff	 sbb	 eax, -1
$LN24@Read:
  000b5	3b c3		 cmp	 eax, ebx
  000b7	0f 84 e4 00 00
	00		 je	 $LN18@Read

; 67   : 				{
; 68   : 					break;
; 69   : 				}
; 70   : 
; 71   : 				IMPERIALPET_DATA list;
; 72   : 
; 73   : 				list.Name[10] = 0;
; 74   : 				memcpy(list.Name, TokenString, 10);

  000bd	a1 00 00 00 00	 mov	 eax, DWORD PTR _TokenString
  000c2	8b 0d 04 00 00
	00		 mov	 ecx, DWORD PTR _TokenString+4
  000c8	66 8b 15 08 00
	00 00		 mov	 dx, WORD PTR _TokenString+8
  000cf	88 5d e6	 mov	 BYTE PTR _list$209983[ebp+10], bl
  000d2	89 45 dc	 mov	 DWORD PTR _list$209983[ebp], eax
  000d5	89 4d e0	 mov	 DWORD PTR _list$209983[ebp+4], ecx
  000d8	66 89 55 e4	 mov	 WORD PTR _list$209983[ebp+8], dx

; 75   : 
; 76   : 				Token = GetToken();

  000dc	e8 00 00 00 00	 call	 ?GetToken@@YA?AW4SMDToken@@XZ ; GetToken

; 77   : 				int iType = (short)TokenNumber;

  000e1	d9 05 00 00 00
	00		 fld	 DWORD PTR _TokenNumber
  000e7	e8 00 00 00 00	 call	 __ftol2_sse
  000ec	0f bf f0	 movsx	 esi, ax

; 78   : 
; 79   : 				Token = GetToken();

  000ef	e8 00 00 00 00	 call	 ?GetToken@@YA?AW4SMDToken@@XZ ; GetToken

; 80   : 				int iIndex = (short)TokenNumber;
; 81   : 
; 82   : 				list.Pet = ITEMGET(iType, iIndex);

  000f4	c1 e6 09	 shl	 esi, 9
  000f7	d9 05 00 00 00
	00		 fld	 DWORD PTR _TokenNumber
  000fd	e8 00 00 00 00	 call	 __ftol2_sse
  00102	66 03 f0	 add	 si, ax

; 83   : 
; 84   : 				this->m_PetData.push_back(list);

  00105	8d 45 dc	 lea	 eax, DWORD PTR _list$209983[ebp]
  00108	50		 push	 eax
  00109	8b cf		 mov	 ecx, edi
  0010b	66 89 75 e8	 mov	 WORD PTR _list$209983[ebp+12], si
  0010f	e8 00 00 00 00	 call	 ?push_back@?$vector@UIMPERIALPET_DATA@@V?$allocator@UIMPERIALPET_DATA@@@std@@@std@@QAEXABUIMPERIALPET_DATA@@@Z ; std::vector<IMPERIALPET_DATA,std::allocator<IMPERIALPET_DATA> >::push_back
  00114	8b 75 d4	 mov	 esi, DWORD PTR _iType$[ebp]
  00117	e9 57 ff ff ff	 jmp	 $LL7@Read
$LN5@Read:

; 85   : 			}
; 86   : 			else if(iType == 1)

  0011c	83 fe 01	 cmp	 esi, 1
  0011f	0f 85 4e ff ff
	ff		 jne	 $LL7@Read

; 87   : 			{
; 88   : 				Token = GetToken();

  00125	e8 00 00 00 00	 call	 ?GetToken@@YA?AW4SMDToken@@XZ ; GetToken

; 89   : 
; 90   : 				if(strcmp("end", TokenString) == 0)

  0012a	b9 00 00 00 00	 mov	 ecx, OFFSET _TokenString
  0012f	b8 00 00 00 00	 mov	 eax, OFFSET ??_C@_03JBJLGPFL@end?$AA@
$LL25@Read:
  00134	8a 10		 mov	 dl, BYTE PTR [eax]
  00136	3a 11		 cmp	 dl, BYTE PTR [ecx]
  00138	75 1a		 jne	 SHORT $LN26@Read
  0013a	3a d3		 cmp	 dl, bl
  0013c	74 12		 je	 SHORT $LN27@Read
  0013e	8a 50 01	 mov	 dl, BYTE PTR [eax+1]
  00141	3a 51 01	 cmp	 dl, BYTE PTR [ecx+1]
  00144	75 0e		 jne	 SHORT $LN26@Read
  00146	83 c0 02	 add	 eax, 2
  00149	83 c1 02	 add	 ecx, 2
  0014c	3a d3		 cmp	 dl, bl
  0014e	75 e4		 jne	 SHORT $LL25@Read
$LN27@Read:
  00150	33 c0		 xor	 eax, eax
  00152	eb 05		 jmp	 SHORT $LN28@Read
$LN26@Read:
  00154	1b c0		 sbb	 eax, eax
  00156	83 d8 ff	 sbb	 eax, -1
$LN28@Read:
  00159	3b c3		 cmp	 eax, ebx
  0015b	74 44		 je	 SHORT $LN18@Read

; 91   : 				{
; 92   : 					break;
; 93   : 				}
; 94   : 
; 95   : 				EXPCHAR_DATA list;
; 96   : 
; 97   : 				list.Name[10] = 0;
; 98   : 				memcpy(list.Name, TokenString, 10);

  0015d	8b 0d 00 00 00
	00		 mov	 ecx, DWORD PTR _TokenString
  00163	8b 15 04 00 00
	00		 mov	 edx, DWORD PTR _TokenString+4
  00169	66 a1 08 00 00
	00		 mov	 ax, WORD PTR _TokenString+8
  0016f	88 5d f6	 mov	 BYTE PTR _list$209991[ebp+10], bl
  00172	89 4d ec	 mov	 DWORD PTR _list$209991[ebp], ecx
  00175	89 55 f0	 mov	 DWORD PTR _list$209991[ebp+4], edx
  00178	66 89 45 f4	 mov	 WORD PTR _list$209991[ebp+8], ax

; 99   : 
; 100  : 				Token = GetToken();

  0017c	e8 00 00 00 00	 call	 ?GetToken@@YA?AW4SMDToken@@XZ ; GetToken

; 101  : 				list.PlusExpPercent = (short)TokenNumber;

  00181	d9 05 00 00 00
	00		 fld	 DWORD PTR _TokenNumber
  00187	e8 00 00 00 00	 call	 __ftol2_sse

; 102  : 
; 103  : 				this->m_ExpData.push_back(list);

  0018c	8d 4d ec	 lea	 ecx, DWORD PTR _list$209991[ebp]
  0018f	51		 push	 ecx
  00190	8d 4f 10	 lea	 ecx, DWORD PTR [edi+16]
  00193	66 89 45 f8	 mov	 WORD PTR _list$209991[ebp+12], ax
  00197	e8 00 00 00 00	 call	 ?push_back@?$vector@UEXPCHAR_DATA@@V?$allocator@UEXPCHAR_DATA@@@std@@@std@@QAEXABUEXPCHAR_DATA@@@Z ; std::vector<EXPCHAR_DATA,std::allocator<EXPCHAR_DATA> >::push_back

; 104  : 			}
; 105  : 		}	

  0019c	e9 d2 fe ff ff	 jmp	 $LL7@Read
$LN18@Read:

; 44   : 		return;
; 45   : 	}
; 46   : 
; 47   : 	int iType = -1;
; 48   : 
; 49   : 	while(true)
; 50   : 	{
; 51   : 		Token = GetToken();

  001a1	e8 00 00 00 00	 call	 ?GetToken@@YA?AW4SMDToken@@XZ ; GetToken

; 52   : 
; 53   : 		if( Token == END )

  001a6	83 f8 02	 cmp	 eax, 2
  001a9	0f 85 b4 fe ff
	ff		 jne	 $LL10@Read
  001af	8b 75 d8	 mov	 esi, DWORD PTR _filename$GSCopy$[ebp]
$LN20@Read:

; 106  : 	}
; 107  : 
; 108  : 	fclose(SMDFile);

  001b2	8b 15 00 00 00
	00		 mov	 edx, DWORD PTR _SMDFile
  001b8	52		 push	 edx
  001b9	e8 00 00 00 00	 call	 _fclose

; 109  : 	LogAdd("%s file load!", filename);

  001be	56		 push	 esi
  001bf	68 00 00 00 00	 push	 OFFSET ??_C@_0O@CEHBAEMJ@?$CFs?5file?5load?$CB?$AA@
  001c4	ff 15 00 00 00
	00		 call	 DWORD PTR ?LogAdd@@3P6AXPADZZA ; LogAdd

; 110  : }

  001ca	8b 4d fc	 mov	 ecx, DWORD PTR __$ArrayPad$[ebp]
  001cd	83 c4 0c	 add	 esp, 12			; 0000000cH
  001d0	5f		 pop	 edi
  001d1	5e		 pop	 esi
  001d2	33 cd		 xor	 ecx, ebp
  001d4	5b		 pop	 ebx
  001d5	e8 00 00 00 00	 call	 @__security_check_cookie@4
  001da	8b e5		 mov	 esp, ebp
  001dc	5d		 pop	 ebp
  001dd	c2 04 00	 ret	 4
?Read@CDonateManager@@QAEXPAD@Z ENDP			; CDonateManager::Read
_TEXT	ENDS
PUBLIC	??_C@_0BJ@CJPJKFBC@ZtData?2DonateManager?4dat?$AA@ ; `string'
PUBLIC	?Load@CDonateManager@@QAEXXZ			; CDonateManager::Load
EXTRN	?GetNewPath@CDirPath@@QAEPADPAD@Z:PROC		; CDirPath::GetNewPath
EXTRN	?gDirPath@@3VCDirPath@@A:BYTE			; gDirPath
EXTRN	?GetCustom@CZtLicense@@QAEHXZ:PROC		; CZtLicense::GetCustom
;	COMDAT ??_C@_0BJ@CJPJKFBC@ZtData?2DonateManager?4dat?$AA@
; File d:\program files (x86)\microsoft visual studio 10.0\vc\include\utility
CONST	SEGMENT
??_C@_0BJ@CJPJKFBC@ZtData?2DonateManager?4dat?$AA@ DB 'ZtData\DonateManag'
	DB	'er.dat', 00H				; `string'
; Function compile flags: /Ogtp
; File e:\work\tranet_version\gs\gameserver\donatemanager.cpp
CONST	ENDS
;	COMDAT ?Load@CDonateManager@@QAEXXZ
_TEXT	SEGMENT
?Load@CDonateManager@@QAEXXZ PROC			; CDonateManager::Load, COMDAT
; _this$ = ecx

; 23   : {

  00000	56		 push	 esi
  00001	8b f1		 mov	 esi, ecx

; 24   : 	if( g_ZtLicense.CheckUser(eZtUB::MU2Play) || 
; 25   : 		g_ZtLicense.CheckUser(eZtUB::Escalate) ||
; 26   : 		g_ZtLicense.CheckUser(eZtUB::eternalmu) || 
; 27   : 		g_ZtLicense.GetCustom())

  00003	6a 36		 push	 54			; 00000036H
  00005	b9 00 00 00 00	 mov	 ecx, OFFSET ?g_ZtLicense@@3VCZtLicense@@A ; g_ZtLicense
  0000a	e8 00 00 00 00	 call	 ?CheckUser@CZtLicense@@QAE_NH@Z ; CZtLicense::CheckUser
  0000f	84 c0		 test	 al, al
  00011	75 32		 jne	 SHORT $LN1@Load
  00013	6a 40		 push	 64			; 00000040H
  00015	b9 00 00 00 00	 mov	 ecx, OFFSET ?g_ZtLicense@@3VCZtLicense@@A ; g_ZtLicense
  0001a	e8 00 00 00 00	 call	 ?CheckUser@CZtLicense@@QAE_NH@Z ; CZtLicense::CheckUser
  0001f	84 c0		 test	 al, al
  00021	75 22		 jne	 SHORT $LN1@Load
  00023	6a 4f		 push	 79			; 0000004fH
  00025	b9 00 00 00 00	 mov	 ecx, OFFSET ?g_ZtLicense@@3VCZtLicense@@A ; g_ZtLicense
  0002a	e8 00 00 00 00	 call	 ?CheckUser@CZtLicense@@QAE_NH@Z ; CZtLicense::CheckUser
  0002f	84 c0		 test	 al, al
  00031	75 12		 jne	 SHORT $LN1@Load
  00033	b9 00 00 00 00	 mov	 ecx, OFFSET ?g_ZtLicense@@3VCZtLicense@@A ; g_ZtLicense
  00038	e8 00 00 00 00	 call	 ?GetCustom@CZtLicense@@QAEHXZ ; CZtLicense::GetCustom
  0003d	85 c0		 test	 eax, eax
  0003f	0f 84 88 00 00
	00		 je	 $LN2@Load
$LN1@Load:

; 28   : 	{
; 29   : 		this->m_PetData.clear();

  00045	8b 0e		 mov	 ecx, DWORD PTR [esi]
  00047	8b 56 04	 mov	 edx, DWORD PTR [esi+4]
  0004a	57		 push	 edi
  0004b	3b ca		 cmp	 ecx, edx
  0004d	74 2b		 je	 SHORT $LN23@Load
  0004f	8b c2		 mov	 eax, edx
  00051	3b d2		 cmp	 edx, edx
  00053	74 22		 je	 SHORT $LN52@Load
$LL54@Load:
  00055	8b 38		 mov	 edi, DWORD PTR [eax]
  00057	89 39		 mov	 DWORD PTR [ecx], edi
  00059	8b 78 04	 mov	 edi, DWORD PTR [eax+4]
  0005c	89 79 04	 mov	 DWORD PTR [ecx+4], edi
  0005f	8b 78 08	 mov	 edi, DWORD PTR [eax+8]
  00062	89 79 08	 mov	 DWORD PTR [ecx+8], edi
  00065	66 8b 78 0c	 mov	 di, WORD PTR [eax+12]
  00069	66 89 79 0c	 mov	 WORD PTR [ecx+12], di
  0006d	83 c0 0e	 add	 eax, 14			; 0000000eH
  00070	83 c1 0e	 add	 ecx, 14			; 0000000eH
  00073	3b c2		 cmp	 eax, edx
  00075	75 de		 jne	 SHORT $LL54@Load
$LN52@Load:
  00077	89 4e 04	 mov	 DWORD PTR [esi+4], ecx
$LN23@Load:

; 30   : 		this->m_ExpData.clear();

  0007a	8b 4e 10	 mov	 ecx, DWORD PTR [esi+16]
  0007d	8b 56 14	 mov	 edx, DWORD PTR [esi+20]
  00080	3b ca		 cmp	 ecx, edx
  00082	74 31		 je	 SHORT $LN77@Load
  00084	8b c2		 mov	 eax, edx
  00086	3b d2		 cmp	 edx, edx
  00088	74 28		 je	 SHORT $LN106@Load
  0008a	8d 9b 00 00 00
	00		 npad	 6
$LL108@Load:
  00090	8b 38		 mov	 edi, DWORD PTR [eax]
  00092	89 39		 mov	 DWORD PTR [ecx], edi
  00094	8b 78 04	 mov	 edi, DWORD PTR [eax+4]
  00097	89 79 04	 mov	 DWORD PTR [ecx+4], edi
  0009a	8b 78 08	 mov	 edi, DWORD PTR [eax+8]
  0009d	89 79 08	 mov	 DWORD PTR [ecx+8], edi
  000a0	66 8b 78 0c	 mov	 di, WORD PTR [eax+12]
  000a4	66 89 79 0c	 mov	 WORD PTR [ecx+12], di
  000a8	83 c0 0e	 add	 eax, 14			; 0000000eH
  000ab	83 c1 0e	 add	 ecx, 14			; 0000000eH
  000ae	3b c2		 cmp	 eax, edx
  000b0	75 de		 jne	 SHORT $LL108@Load
$LN106@Load:
  000b2	89 4e 14	 mov	 DWORD PTR [esi+20], ecx
$LN77@Load:

; 31   : 		this->Read(gDirPath.GetNewPath("ZtData\\DonateManager.dat"));

  000b5	68 00 00 00 00	 push	 OFFSET ??_C@_0BJ@CJPJKFBC@ZtData?2DonateManager?4dat?$AA@
  000ba	b9 00 00 00 00	 mov	 ecx, OFFSET ?gDirPath@@3VCDirPath@@A ; gDirPath
  000bf	e8 00 00 00 00	 call	 ?GetNewPath@CDirPath@@QAEPADPAD@Z ; CDirPath::GetNewPath
  000c4	50		 push	 eax
  000c5	8b ce		 mov	 ecx, esi
  000c7	e8 00 00 00 00	 call	 ?Read@CDonateManager@@QAEXPAD@Z ; CDonateManager::Read
  000cc	5f		 pop	 edi
$LN2@Load:
  000cd	5e		 pop	 esi

; 32   : 	}
; 33   : }

  000ce	c3		 ret	 0
?Load@CDonateManager@@QAEXXZ ENDP			; CDonateManager::Load
_TEXT	ENDS
EXTRN	_atexit:PROC
; Function compile flags: /Ogtp
;	COMDAT ??__Eg_DonateManager@@YAXXZ
text$yc	SEGMENT
??__Eg_DonateManager@@YAXXZ PROC			; `dynamic initializer for 'g_DonateManager'', COMDAT

; 10   : CDonateManager g_DonateManager;

  00000	b9 00 00 00 00	 mov	 ecx, OFFSET ?g_DonateManager@@3VCDonateManager@@A ; g_DonateManager
  00005	e8 00 00 00 00	 call	 ??0CDonateManager@@QAE@XZ ; CDonateManager::CDonateManager
  0000a	68 00 00 00 00	 push	 OFFSET ??__Fg_DonateManager@@YAXXZ ; `dynamic atexit destructor for 'g_DonateManager''
  0000f	e8 00 00 00 00	 call	 _atexit
  00014	59		 pop	 ecx
  00015	c3		 ret	 0
??__Eg_DonateManager@@YAXXZ ENDP			; `dynamic initializer for 'g_DonateManager''
; Function compile flags: /Ogtp
text$yc	ENDS
;	COMDAT ??__Fg_DonateManager@@YAXXZ
text$yd	SEGMENT
??__Fg_DonateManager@@YAXXZ PROC			; `dynamic atexit destructor for 'g_DonateManager'', COMDAT
  00000	b9 00 00 00 00	 mov	 ecx, OFFSET ?g_DonateManager@@3VCDonateManager@@A ; g_DonateManager
  00005	e9 00 00 00 00	 jmp	 ??1CDonateManager@@QAE@XZ ; CDonateManager::~CDonateManager
??__Fg_DonateManager@@YAXXZ ENDP			; `dynamic atexit destructor for 'g_DonateManager''
text$yd	ENDS
PUBLIC	?g_DonateManager@@3VCDonateManager@@A		; g_DonateManager
_BSS	SEGMENT
?g_DonateManager@@3VCDonateManager@@A DB 020H DUP (?)	; g_DonateManager
_BSS	ENDS
CRT$XCU	SEGMENT
_g_DonateManager$initializer$ DD FLAT:??__Eg_DonateManager@@YAXXZ
CRT$XCU	ENDS
END
