; Listing generated by Microsoft (R) Optimizing Compiler Version 16.00.30319.01 

	TITLE	E:\work\tranet_version\GS\GameServer\DSProtocol.cpp
	.686P
	.XMM
	include listing.inc
	.model	flat

INCLUDELIB LIBCMT
INCLUDELIB OLDNAMES

PUBLIC	?dwCrywolfSyncLogTickCount@@3KA			; dwCrywolfSyncLogTickCount
_BSS	SEGMENT
?dwCrywolfSyncLogTickCount@@3KA DD 01H DUP (?)		; dwCrywolfSyncLogTickCount
_BSS	ENDS
_DATA	SEGMENT
_g_iNpcUpDfLevel_CGATE DD 01H
	DD	02H
	DD	02dc6c0H
	DD	02H
	DD	03H
	DD	02dc6c0H
	DD	03H
	DD	04H
	DD	02dc6c0H
_g_iNpcUpDfLevel_CSTATUE DD 01H
	DD	03H
	DD	02dc6c0H
	DD	02H
	DD	05H
	DD	02dc6c0H
	DD	03H
	DD	07H
	DD	02dc6c0H
_g_iNpcUpMaxHP_CGATE DD 02625a0H
	DD	02H
	DD	0f4240H
	DD	03567e0H
	DD	03H
	DD	0f4240H
	DD	04f5880H
	DD	04H
	DD	0f4240H
_g_iNpcUpMaxHP_CSTATUE DD 02191c0H
	DD	03H
	DD	0f4240H
	DD	033e140H
	DD	05H
	DD	0f4240H
	DD	04c4b40H
	DD	07H
	DD	0f4240H
_g_iNpcUpRgLevel_CSTATUE DD 01H
	DD	03H
	DD	04c4b40H
	DD	02H
	DD	05H
	DD	04c4b40H
	DD	03H
	DD	07H
	DD	04c4b40H
_g_iCsUserReSpawnArea DD 023H
	DD	011H
	DD	090H
	DD	030H
	DD	04aH
	DD	090H
	DD	073H
	DD	09aH
	DD	023H
	DD	011H
	DD	090H
	DD	030H
_g_iNpcDefense_CGATE DD 064H
	DD	0b4H
	DD	012cH
	DD	0208H
_g_iNpcDefense_CSTATUE DD 050H
	DD	0b4H
	DD	0154H
	DD	0226H
_g_iCastleWallStepAxisY DD 071H
	DD	0a0H
	DD	0cbH
_g_sttBLOODCASTLE_LEVEL DD 0fH
	DD	050H
	DD	0aH
	DD	03cH
	DD	051H
	DD	082H
	DD	03dH
	DD	06eH
	DD	083H
	DD	0b4H
	DD	06fH
	DD	0a0H
	DD	0b5H
	DD	0e6H
	DD	0a1H
	DD	0d2H
	DD	0e7H
	DD	0118H
	DD	0d3H
	DD	0104H
	DD	0119H
	DD	014aH
	DD	0105H
	DD	0136H
	DD	014bH
	DD	03e8H
	DD	0137H
	DD	03e8H
	DD	0fH
	DD	04afH
	DD	0aH
	DD	04afH
_DATA	ENDS
PUBLIC	?set@PBMSG_HEAD@@QAEXPAEEE@Z			; PBMSG_HEAD::set
; Function compile flags: /Ogtp
; File e:\work\tranet_version\gs\include\prodef.h
;	COMDAT ?set@PBMSG_HEAD@@QAEXPAEEE@Z
_TEXT	SEGMENT
_lpBuf$ = 8						; size = 4
_head$ = 12						; size = 1
_size$ = 16						; size = 1
?set@PBMSG_HEAD@@QAEXPAEEE@Z PROC			; PBMSG_HEAD::set, COMDAT
; _this$ = ecx

; 80   : 	{

  00000	55		 push	 ebp
  00001	8b ec		 mov	 ebp, esp

; 81   : 		lpBuf[0] = 0xC1;

  00003	8b 45 08	 mov	 eax, DWORD PTR _lpBuf$[ebp]

; 82   : 		lpBuf[1] = size;

  00006	8a 4d 10	 mov	 cl, BYTE PTR _size$[ebp]

; 83   : 		lpBuf[2] = head;

  00009	8a 55 0c	 mov	 dl, BYTE PTR _head$[ebp]
  0000c	c6 00 c1	 mov	 BYTE PTR [eax], 193	; 000000c1H
  0000f	88 48 01	 mov	 BYTE PTR [eax+1], cl
  00012	88 50 02	 mov	 BYTE PTR [eax+2], dl

; 84   : 	};	// line : 22

  00015	5d		 pop	 ebp
  00016	c2 0c 00	 ret	 12			; 0000000cH
?set@PBMSG_HEAD@@QAEXPAEEE@Z ENDP			; PBMSG_HEAD::set
_TEXT	ENDS
PUBLIC	?set@PBMSG_HEAD2@@QAEXPAEEEE@Z			; PBMSG_HEAD2::set
; Function compile flags: /Ogtp
;	COMDAT ?set@PBMSG_HEAD2@@QAEXPAEEEE@Z
_TEXT	SEGMENT
_lpBuf$ = 8						; size = 4
_head$ = 12						; size = 1
_sub$ = 16						; size = 1
_size$ = 20						; size = 1
?set@PBMSG_HEAD2@@QAEXPAEEEE@Z PROC			; PBMSG_HEAD2::set, COMDAT
; _this$ = ecx

; 104  : 	{

  00000	55		 push	 ebp
  00001	8b ec		 mov	 ebp, esp

; 105  : 		lpBuf[0] = 0xC1;

  00003	8b 45 08	 mov	 eax, DWORD PTR _lpBuf$[ebp]

; 106  : 		lpBuf[1] = size;

  00006	8a 4d 14	 mov	 cl, BYTE PTR _size$[ebp]

; 107  : 		lpBuf[2] = head;

  00009	8a 55 0c	 mov	 dl, BYTE PTR _head$[ebp]
  0000c	88 48 01	 mov	 BYTE PTR [eax+1], cl

; 108  : 		lpBuf[3] = sub;

  0000f	8a 4d 10	 mov	 cl, BYTE PTR _sub$[ebp]
  00012	c6 00 c1	 mov	 BYTE PTR [eax], 193	; 000000c1H
  00015	88 50 02	 mov	 BYTE PTR [eax+2], dl
  00018	88 48 03	 mov	 BYTE PTR [eax+3], cl

; 109  : 	};

  0001b	5d		 pop	 ebp
  0001c	c2 10 00	 ret	 16			; 00000010H
?set@PBMSG_HEAD2@@QAEXPAEEEE@Z ENDP			; PBMSG_HEAD2::set
_TEXT	ENDS
PUBLIC	?set@PWMSG_HEAD@@QAEXPAEEH@Z			; PWMSG_HEAD::set
; Function compile flags: /Ogtp
;	COMDAT ?set@PWMSG_HEAD@@QAEXPAEEH@Z
_TEXT	SEGMENT
_lpBuf$ = 8						; size = 4
_head$ = 12						; size = 1
_size$ = 16						; size = 4
?set@PWMSG_HEAD@@QAEXPAEEH@Z PROC			; PWMSG_HEAD::set, COMDAT
; _this$ = ecx

; 122  : 	{

  00000	55		 push	 ebp
  00001	8b ec		 mov	 ebp, esp

; 123  : 		lpBuf[0] = 0xC2;

  00003	8b 45 08	 mov	 eax, DWORD PTR _lpBuf$[ebp]

; 124  : 		lpBuf[1] = SET_NUMBERH(size);

  00006	8b 4d 10	 mov	 ecx, DWORD PTR _size$[ebp]
  00009	8b d1		 mov	 edx, ecx

; 125  : 		lpBuf[2] = SET_NUMBERL(size);

  0000b	88 48 02	 mov	 BYTE PTR [eax+2], cl

; 126  : 		lpBuf[3] = head;

  0000e	8a 4d 0c	 mov	 cl, BYTE PTR _head$[ebp]
  00011	c1 ea 08	 shr	 edx, 8
  00014	c6 00 c2	 mov	 BYTE PTR [eax], 194	; 000000c2H
  00017	88 50 01	 mov	 BYTE PTR [eax+1], dl
  0001a	88 48 03	 mov	 BYTE PTR [eax+3], cl

; 127  : 	};

  0001d	5d		 pop	 ebp
  0001e	c2 0c 00	 ret	 12			; 0000000cH
?set@PWMSG_HEAD@@QAEXPAEEH@Z ENDP			; PWMSG_HEAD::set
_TEXT	ENDS
PUBLIC	??_H@YGXPAXIHP6EPAX0@Z@Z			; `vector constructor iterator'
; Function compile flags: /Ogtp
;	COMDAT ??_H@YGXPAXIHP6EPAX0@Z@Z
_TEXT	SEGMENT
___t$ = 8						; size = 4
___s$ = 12						; size = 4
___n$ = 16						; size = 4
___f$ = 20						; size = 4
??_H@YGXPAXIHP6EPAX0@Z@Z PROC				; `vector constructor iterator', COMDAT
  00000	55		 push	 ebp
  00001	8b ec		 mov	 ebp, esp
  00003	57		 push	 edi
  00004	8b 7d 10	 mov	 edi, DWORD PTR ___n$[ebp]
  00007	4f		 dec	 edi
  00008	78 14		 js	 SHORT $LN1@vector
  0000a	53		 push	 ebx
  0000b	8b 5d 14	 mov	 ebx, DWORD PTR ___f$[ebp]
  0000e	56		 push	 esi
  0000f	8b 75 08	 mov	 esi, DWORD PTR ___t$[ebp]
$LL2@vector:
  00012	8b ce		 mov	 ecx, esi
  00014	ff d3		 call	 ebx
  00016	03 75 0c	 add	 esi, DWORD PTR ___s$[ebp]
  00019	4f		 dec	 edi
  0001a	79 f6		 jns	 SHORT $LL2@vector
  0001c	5e		 pop	 esi
  0001d	5b		 pop	 ebx
$LN1@vector:
  0001e	5f		 pop	 edi
  0001f	5d		 pop	 ebp
  00020	c2 10 00	 ret	 16			; 00000010H
??_H@YGXPAXIHP6EPAX0@Z@Z ENDP				; `vector constructor iterator'
_TEXT	ENDS
PUBLIC	?GetDataLoadState@CCastleSiege@@QAEHXZ		; CCastleSiege::GetDataLoadState
; Function compile flags: /Ogtp
; File e:\work\tranet_version\gs\gameserver\castlesiege.h
;	COMDAT ?GetDataLoadState@CCastleSiege@@QAEHXZ
_TEXT	SEGMENT
?GetDataLoadState@CCastleSiege@@QAEHXZ PROC		; CCastleSiege::GetDataLoadState, COMDAT
; _this$ = ecx

; 282  : 	int GetDataLoadState(){return m_iCastleDataLoadState;}

  00000	8b 41 1c	 mov	 eax, DWORD PTR [ecx+28]
  00003	c3		 ret	 0
?GetDataLoadState@CCastleSiege@@QAEHXZ ENDP		; CCastleSiege::GetDataLoadState
_TEXT	ENDS
PUBLIC	?SetDataLoadState@CCastleSiege@@QAEXH@Z		; CCastleSiege::SetDataLoadState
; Function compile flags: /Ogtp
;	COMDAT ?SetDataLoadState@CCastleSiege@@QAEXH@Z
_TEXT	SEGMENT
_iDataLoadState$ = 8					; size = 4
?SetDataLoadState@CCastleSiege@@QAEXH@Z PROC		; CCastleSiege::SetDataLoadState, COMDAT
; _this$ = ecx

; 283  : 	void SetDataLoadState(int iDataLoadState){m_iCastleDataLoadState = iDataLoadState;}

  00000	55		 push	 ebp
  00001	8b ec		 mov	 ebp, esp
  00003	8b 45 08	 mov	 eax, DWORD PTR _iDataLoadState$[ebp]
  00006	89 41 1c	 mov	 DWORD PTR [ecx+28], eax
  00009	5d		 pop	 ebp
  0000a	c2 04 00	 ret	 4
?SetDataLoadState@CCastleSiege@@QAEXH@Z ENDP		; CCastleSiege::SetDataLoadState
_TEXT	ENDS
PUBLIC	?SetDbDataLoadOK@CCastleSiege@@QAEXH@Z		; CCastleSiege::SetDbDataLoadOK
; Function compile flags: /Ogtp
;	COMDAT ?SetDbDataLoadOK@CCastleSiege@@QAEXH@Z
_TEXT	SEGMENT
_bDbDataLoadOK$ = 8					; size = 4
?SetDbDataLoadOK@CCastleSiege@@QAEXH@Z PROC		; CCastleSiege::SetDbDataLoadOK, COMDAT
; _this$ = ecx

; 284  : 	void SetDbDataLoadOK(BOOL bDbDataLoadOK){m_bDbDataLoadOK = bDbDataLoadOK;}

  00000	55		 push	 ebp
  00001	8b ec		 mov	 ebp, esp
  00003	8b 45 08	 mov	 eax, DWORD PTR _bDbDataLoadOK$[ebp]
  00006	89 41 10	 mov	 DWORD PTR [ecx+16], eax
  00009	5d		 pop	 ebp
  0000a	c2 04 00	 ret	 4
?SetDbDataLoadOK@CCastleSiege@@QAEXH@Z ENDP		; CCastleSiege::SetDbDataLoadOK
_TEXT	ENDS
PUBLIC	?SetIsSiegeGuildList@CCastleSiege@@QAEXH@Z	; CCastleSiege::SetIsSiegeGuildList
; Function compile flags: /Ogtp
;	COMDAT ?SetIsSiegeGuildList@CCastleSiege@@QAEXH@Z
_TEXT	SEGMENT
_bIsSiegGuildList$ = 8					; size = 4
?SetIsSiegeGuildList@CCastleSiege@@QAEXH@Z PROC		; CCastleSiege::SetIsSiegeGuildList, COMDAT
; _this$ = ecx

; 357  : 	void SetIsSiegeGuildList(BOOL bIsSiegGuildList){m_btIsSiegeGuildList = bIsSiegGuildList;}

  00000	55		 push	 ebp
  00001	8b ec		 mov	 ebp, esp
  00003	8a 45 08	 mov	 al, BYTE PTR _bIsSiegGuildList$[ebp]
  00006	88 81 d4 00 00
	00		 mov	 BYTE PTR [ecx+212], al
  0000c	5d		 pop	 ebp
  0000d	c2 04 00	 ret	 4
?SetIsSiegeGuildList@CCastleSiege@@QAEXH@Z ENDP		; CCastleSiege::SetIsSiegeGuildList
_TEXT	ENDS
PUBLIC	?GetDbNpcCreated@CCastleSiege@@QAEHXZ		; CCastleSiege::GetDbNpcCreated
; Function compile flags: /Ogtp
;	COMDAT ?GetDbNpcCreated@CCastleSiege@@QAEHXZ
_TEXT	SEGMENT
?GetDbNpcCreated@CCastleSiege@@QAEHXZ PROC		; CCastleSiege::GetDbNpcCreated, COMDAT
; _this$ = ecx

; 359  : 	BOOL GetDbNpcCreated(){return m_bDbNpcCreated;}

  00000	8b 81 50 01 00
	00		 mov	 eax, DWORD PTR [ecx+336]
  00006	c3		 ret	 0
?GetDbNpcCreated@CCastleSiege@@QAEHXZ ENDP		; CCastleSiege::GetDbNpcCreated
_TEXT	ENDS
PUBLIC	?SetDbNpcCreated@CCastleSiege@@QAEXH@Z		; CCastleSiege::SetDbNpcCreated
; Function compile flags: /Ogtp
;	COMDAT ?SetDbNpcCreated@CCastleSiege@@QAEXH@Z
_TEXT	SEGMENT
_bDbNpcCreated$ = 8					; size = 4
?SetDbNpcCreated@CCastleSiege@@QAEXH@Z PROC		; CCastleSiege::SetDbNpcCreated, COMDAT
; _this$ = ecx

; 360  : 	void SetDbNpcCreated(BOOL bDbNpcCreated){m_bDbNpcCreated = bDbNpcCreated;}

  00000	55		 push	 ebp
  00001	8b ec		 mov	 ebp, esp
  00003	8b 45 08	 mov	 eax, DWORD PTR _bDbNpcCreated$[ebp]
  00006	89 81 50 01 00
	00		 mov	 DWORD PTR [ecx+336], eax
  0000c	5d		 pop	 ebp
  0000d	c2 04 00	 ret	 4
?SetDbNpcCreated@CCastleSiege@@QAEXH@Z ENDP		; CCastleSiege::SetDbNpcCreated
_TEXT	ENDS
PUBLIC	?GetMapSvrGroup@CMapServerManager@@QAEHXZ	; CMapServerManager::GetMapSvrGroup
; Function compile flags: /Ogtp
; File e:\work\tranet_version\gs\gameserver\mapservermanager.h
;	COMDAT ?GetMapSvrGroup@CMapServerManager@@QAEHXZ
_TEXT	SEGMENT
?GetMapSvrGroup@CMapServerManager@@QAEHXZ PROC		; CMapServerManager::GetMapSvrGroup, COMDAT
; _this$ = ecx

; 50   : 		if ( this->m_lpThisMapSvrData != NULL )

  00000	8b 81 c0 32 01
	00		 mov	 eax, DWORD PTR [ecx+78528]
  00006	85 c0		 test	 eax, eax
  00008	74 05		 je	 SHORT $LN1@GetMapSvrG

; 51   : 		{
; 52   : 			return m_lpThisMapSvrData->m_btMAPSVR_GROUP;

  0000a	0f b6 40 08	 movzx	 eax, BYTE PTR [eax+8]

; 55   : 	}

  0000e	c3		 ret	 0
$LN1@GetMapSvrG:

; 53   : 		}
; 54   : 		return -1;

  0000f	83 c8 ff	 or	 eax, -1

; 55   : 	}

  00012	c3		 ret	 0
?GetMapSvrGroup@CMapServerManager@@QAEHXZ ENDP		; CMapServerManager::GetMapSvrGroup
_TEXT	ENDS
PUBLIC	?SetCastleState@CCastleSiegeSync@@QAEXH@Z	; CCastleSiegeSync::SetCastleState
; Function compile flags: /Ogtp
; File e:\work\tranet_version\gs\gameserver\castlesiegesync.h
;	COMDAT ?SetCastleState@CCastleSiegeSync@@QAEXH@Z
_TEXT	SEGMENT
_iCastleState$ = 8					; size = 4
?SetCastleState@CCastleSiegeSync@@QAEXH@Z PROC		; CCastleSiegeSync::SetCastleState, COMDAT
; _this$ = ecx

; 30   : 	void SetCastleState(int iCastleState){this->m_iCurCastleState = iCastleState;};	// line : 56

  00000	55		 push	 ebp
  00001	8b ec		 mov	 ebp, esp
  00003	8b 45 08	 mov	 eax, DWORD PTR _iCastleState$[ebp]
  00006	89 41 04	 mov	 DWORD PTR [ecx+4], eax
  00009	5d		 pop	 ebp
  0000a	c2 04 00	 ret	 4
?SetCastleState@CCastleSiegeSync@@QAEXH@Z ENDP		; CCastleSiegeSync::SetCastleState
_TEXT	ENDS
PUBLIC	?SetTaxRateChaos@CCastleSiegeSync@@QAEXH@Z	; CCastleSiegeSync::SetTaxRateChaos
; Function compile flags: /Ogtp
;	COMDAT ?SetTaxRateChaos@CCastleSiegeSync@@QAEXH@Z
_TEXT	SEGMENT
_iTaxRate$ = 8						; size = 4
?SetTaxRateChaos@CCastleSiegeSync@@QAEXH@Z PROC		; CCastleSiegeSync::SetTaxRateChaos, COMDAT
; _this$ = ecx

; 31   : 	void SetTaxRateChaos(int iTaxRate){this->m_iCurTaxRateChaos = iTaxRate;};	// line : 59

  00000	55		 push	 ebp
  00001	8b ec		 mov	 ebp, esp
  00003	8b 45 08	 mov	 eax, DWORD PTR _iTaxRate$[ebp]
  00006	89 41 08	 mov	 DWORD PTR [ecx+8], eax
  00009	5d		 pop	 ebp
  0000a	c2 04 00	 ret	 4
?SetTaxRateChaos@CCastleSiegeSync@@QAEXH@Z ENDP		; CCastleSiegeSync::SetTaxRateChaos
_TEXT	ENDS
PUBLIC	?SetTaxRateStore@CCastleSiegeSync@@QAEXH@Z	; CCastleSiegeSync::SetTaxRateStore
; Function compile flags: /Ogtp
;	COMDAT ?SetTaxRateStore@CCastleSiegeSync@@QAEXH@Z
_TEXT	SEGMENT
_iTaxRate$ = 8						; size = 4
?SetTaxRateStore@CCastleSiegeSync@@QAEXH@Z PROC		; CCastleSiegeSync::SetTaxRateStore, COMDAT
; _this$ = ecx

; 32   : 	void SetTaxRateStore(int iTaxRate){this->m_iCurTaxRateStore = iTaxRate;};	// line : 62

  00000	55		 push	 ebp
  00001	8b ec		 mov	 ebp, esp
  00003	8b 45 08	 mov	 eax, DWORD PTR _iTaxRate$[ebp]
  00006	89 41 0c	 mov	 DWORD PTR [ecx+12], eax
  00009	5d		 pop	 ebp
  0000a	c2 04 00	 ret	 4
?SetTaxRateStore@CCastleSiegeSync@@QAEXH@Z ENDP		; CCastleSiegeSync::SetTaxRateStore
_TEXT	ENDS
PUBLIC	?SetTaxHuntZone@CCastleSiegeSync@@QAEXH@Z	; CCastleSiegeSync::SetTaxHuntZone
; Function compile flags: /Ogtp
;	COMDAT ?SetTaxHuntZone@CCastleSiegeSync@@QAEXH@Z
_TEXT	SEGMENT
_iTaxRate$ = 8						; size = 4
?SetTaxHuntZone@CCastleSiegeSync@@QAEXH@Z PROC		; CCastleSiegeSync::SetTaxHuntZone, COMDAT
; _this$ = ecx

; 33   : 	void SetTaxHuntZone(int iTaxRate){this->m_iCurTaxHuntZone = iTaxRate;};	// line : 65

  00000	55		 push	 ebp
  00001	8b ec		 mov	 ebp, esp
  00003	8b 45 08	 mov	 eax, DWORD PTR _iTaxRate$[ebp]
  00006	89 41 10	 mov	 DWORD PTR [ecx+16], eax
  00009	5d		 pop	 ebp
  0000a	c2 04 00	 ret	 4
?SetTaxHuntZone@CCastleSiegeSync@@QAEXH@Z ENDP		; CCastleSiegeSync::SetTaxHuntZone
_TEXT	ENDS
PUBLIC	?GetTributeMoney@CCastleSiegeSync@@QAEHXZ	; CCastleSiegeSync::GetTributeMoney
; Function compile flags: /Ogtp
;	COMDAT ?GetTributeMoney@CCastleSiegeSync@@QAEHXZ
_TEXT	SEGMENT
?GetTributeMoney@CCastleSiegeSync@@QAEHXZ PROC		; CCastleSiegeSync::GetTributeMoney, COMDAT
; _this$ = ecx

; 35   : 	int GetTributeMoney(){return this->m_lCastleTributeMoney;};	// line : 77

  00000	8b 41 14	 mov	 eax, DWORD PTR [ecx+20]
  00003	c3		 ret	 0
?GetTributeMoney@CCastleSiegeSync@@QAEHXZ ENDP		; CCastleSiegeSync::GetTributeMoney
_TEXT	ENDS
PUBLIC	?_ARGB@@YAKEEEE@Z				; _ARGB
; Function compile flags: /Ogtp
; File e:\work\tranet_version\gs\gameserver\tnotice.h
;	COMDAT ?_ARGB@@YAKEEEE@Z
_TEXT	SEGMENT
_a$ = 8							; size = 1
_r$ = 12						; size = 1
_g$ = 16						; size = 1
_b$ = 20						; size = 1
?_ARGB@@YAKEEEE@Z PROC					; _ARGB, COMDAT

; 9    : __inline DWORD _ARGB(BYTE a, BYTE r, BYTE g, BYTE b){ return a*16777216 + b*65536 + g*256 + r;}; // in tnotice.h : line 8

  00000	55		 push	 ebp
  00001	8b ec		 mov	 ebp, esp
  00003	0f b6 45 08	 movzx	 eax, BYTE PTR _a$[ebp]
  00007	0f b6 4d 14	 movzx	 ecx, BYTE PTR _b$[ebp]
  0000b	0f b6 55 10	 movzx	 edx, BYTE PTR _g$[ebp]
  0000f	c1 e0 08	 shl	 eax, 8
  00012	03 c1		 add	 eax, ecx
  00014	0f b6 4d 0c	 movzx	 ecx, BYTE PTR _r$[ebp]
  00018	c1 e0 08	 shl	 eax, 8
  0001b	03 c2		 add	 eax, edx
  0001d	c1 e0 08	 shl	 eax, 8
  00020	03 c1		 add	 eax, ecx
  00022	5d		 pop	 ebp
  00023	c3		 ret	 0
?_ARGB@@YAKEEEE@Z ENDP					; _ARGB
_TEXT	ENDS
PUBLIC	??_C@_0P@GMPEKMII@Test?5Data?5Send?$AA@		; `string'
PUBLIC	??_C@_02DKCKIIND@?$CFs?$AA@			; `string'
PUBLIC	??_C@_02DPKJAMEF@?$CFd?$AA@			; `string'
PUBLIC	__$ArrayPad$
PUBLIC	?TestDSSend@@YAXXZ				; TestDSSend
EXTRN	?Send@DBSockMng@@QAEHPADH@Z:PROC		; DBSockMng::Send
EXTRN	?cDBSMng@@3VDBSockMng@@A:BYTE			; cDBSMng
EXTRN	?LogAdd@@3P6AXPADZZA:DWORD			; LogAdd
EXTRN	__imp__wsprintfA:PROC
EXTRN	?iCount@@3HA:DWORD				; iCount
EXTRN	___security_cookie:DWORD
EXTRN	@__security_check_cookie@4:PROC
;	COMDAT ??_C@_0P@GMPEKMII@Test?5Data?5Send?$AA@
; File e:\work\tranet_version\gs\gameserver\dsprotocol.cpp
CONST	SEGMENT
??_C@_0P@GMPEKMII@Test?5Data?5Send?$AA@ DB 'Test Data Send', 00H ; `string'
CONST	ENDS
;	COMDAT ??_C@_02DKCKIIND@?$CFs?$AA@
CONST	SEGMENT
??_C@_02DKCKIIND@?$CFs?$AA@ DB '%s', 00H		; `string'
CONST	ENDS
;	COMDAT ??_C@_02DPKJAMEF@?$CFd?$AA@
CONST	SEGMENT
??_C@_02DPKJAMEF@?$CFd?$AA@ DB '%d', 00H		; `string'
; Function compile flags: /Ogtp
CONST	ENDS
;	COMDAT ?TestDSSend@@YAXXZ
_TEXT	SEGMENT
_pMsg$ = -2008						; size = 2004
__$ArrayPad$ = -4					; size = 4
?TestDSSend@@YAXXZ PROC					; TestDSSend, COMDAT

; 685  : {

  00000	55		 push	 ebp
  00001	8b ec		 mov	 ebp, esp
  00003	81 ec d8 07 00
	00		 sub	 esp, 2008		; 000007d8H
  00009	a1 00 00 00 00	 mov	 eax, DWORD PTR ___security_cookie
  0000e	33 c5		 xor	 eax, ebp
  00010	89 45 fc	 mov	 DWORD PTR __$ArrayPad$[ebp], eax

; 686  : 	PMSG_TEST pMsg;
; 687  : 	int size;
; 688  : 
; 689  : 	size = sizeof(PMSG_TEST);
; 690  : 	pMsg.h.c=0xC2;
; 691  : 	pMsg.h.headcode =0xFF;
; 692  : 	pMsg.h.sizeH = SET_NUMBERH(size);
; 693  : 	pMsg.h.sizeL = SET_NUMBERL(size);
; 694  : 
; 695  : 	wsprintf(pMsg.testbuf, "%d", iCount);

  00013	a1 00 00 00 00	 mov	 eax, DWORD PTR ?iCount@@3HA ; iCount
  00018	56		 push	 esi
  00019	8b 35 00 00 00
	00		 mov	 esi, DWORD PTR __imp__wsprintfA
  0001f	50		 push	 eax
  00020	8d 8d 2c f8 ff
	ff		 lea	 ecx, DWORD PTR _pMsg$[ebp+4]
  00026	68 00 00 00 00	 push	 OFFSET ??_C@_02DPKJAMEF@?$CFd?$AA@
  0002b	51		 push	 ecx
  0002c	c7 85 28 f8 ff
	ff c2 07 d4 ff	 mov	 DWORD PTR _pMsg$[ebp], -2881598 ; ffd407c2H
  00036	ff d6		 call	 esi

; 696  : 	LogAdd("%s", pMsg.testbuf );

  00038	8d 95 2c f8 ff
	ff		 lea	 edx, DWORD PTR _pMsg$[ebp+4]
  0003e	52		 push	 edx
  0003f	68 00 00 00 00	 push	 OFFSET ??_C@_02DKCKIIND@?$CFs?$AA@
  00044	ff 15 00 00 00
	00		 call	 DWORD PTR ?LogAdd@@3P6AXPADZZA ; LogAdd
  0004a	83 c4 14	 add	 esp, 20			; 00000014H

; 697  : 	cDBSMng.Send((char *)&pMsg, size);

  0004d	68 d4 07 00 00	 push	 2004			; 000007d4H
  00052	8d 85 28 f8 ff
	ff		 lea	 eax, DWORD PTR _pMsg$[ebp]
  00058	50		 push	 eax
  00059	b9 00 00 00 00	 mov	 ecx, OFFSET ?cDBSMng@@3VDBSockMng@@A ; cDBSMng
  0005e	e8 00 00 00 00	 call	 ?Send@DBSockMng@@QAEHPADH@Z ; DBSockMng::Send

; 698  : 	iCount++;

  00063	a1 00 00 00 00	 mov	 eax, DWORD PTR ?iCount@@3HA ; iCount
  00068	40		 inc	 eax

; 699  : 
; 700  : 	wsprintf(pMsg.testbuf, "%d", iCount);

  00069	50		 push	 eax
  0006a	8d 8d 2c f8 ff
	ff		 lea	 ecx, DWORD PTR _pMsg$[ebp+4]
  00070	68 00 00 00 00	 push	 OFFSET ??_C@_02DPKJAMEF@?$CFd?$AA@
  00075	51		 push	 ecx
  00076	a3 00 00 00 00	 mov	 DWORD PTR ?iCount@@3HA, eax ; iCount
  0007b	ff d6		 call	 esi

; 701  : 	LogAdd("%s", pMsg.testbuf);

  0007d	8d 95 2c f8 ff
	ff		 lea	 edx, DWORD PTR _pMsg$[ebp+4]
  00083	52		 push	 edx
  00084	68 00 00 00 00	 push	 OFFSET ??_C@_02DKCKIIND@?$CFs?$AA@
  00089	ff 15 00 00 00
	00		 call	 DWORD PTR ?LogAdd@@3P6AXPADZZA ; LogAdd
  0008f	83 c4 14	 add	 esp, 20			; 00000014H

; 702  : 	cDBSMng.Send((char *)&pMsg, size);

  00092	68 d4 07 00 00	 push	 2004			; 000007d4H
  00097	8d 85 28 f8 ff
	ff		 lea	 eax, DWORD PTR _pMsg$[ebp]
  0009d	50		 push	 eax
  0009e	b9 00 00 00 00	 mov	 ecx, OFFSET ?cDBSMng@@3VDBSockMng@@A ; cDBSMng
  000a3	e8 00 00 00 00	 call	 ?Send@DBSockMng@@QAEHPADH@Z ; DBSockMng::Send

; 703  : 	iCount++;

  000a8	a1 00 00 00 00	 mov	 eax, DWORD PTR ?iCount@@3HA ; iCount
  000ad	40		 inc	 eax

; 704  : 
; 705  : 	wsprintf(pMsg.testbuf, "%d", iCount);

  000ae	50		 push	 eax
  000af	8d 8d 2c f8 ff
	ff		 lea	 ecx, DWORD PTR _pMsg$[ebp+4]
  000b5	68 00 00 00 00	 push	 OFFSET ??_C@_02DPKJAMEF@?$CFd?$AA@
  000ba	51		 push	 ecx
  000bb	a3 00 00 00 00	 mov	 DWORD PTR ?iCount@@3HA, eax ; iCount
  000c0	ff d6		 call	 esi

; 706  : 	LogAdd("%s", pMsg.testbuf);

  000c2	8d 95 2c f8 ff
	ff		 lea	 edx, DWORD PTR _pMsg$[ebp+4]
  000c8	52		 push	 edx
  000c9	68 00 00 00 00	 push	 OFFSET ??_C@_02DKCKIIND@?$CFs?$AA@
  000ce	ff 15 00 00 00
	00		 call	 DWORD PTR ?LogAdd@@3P6AXPADZZA ; LogAdd
  000d4	83 c4 14	 add	 esp, 20			; 00000014H

; 707  : 	cDBSMng.Send((char *)&pMsg, size);

  000d7	68 d4 07 00 00	 push	 2004			; 000007d4H
  000dc	8d 85 28 f8 ff
	ff		 lea	 eax, DWORD PTR _pMsg$[ebp]
  000e2	50		 push	 eax
  000e3	b9 00 00 00 00	 mov	 ecx, OFFSET ?cDBSMng@@3VDBSockMng@@A ; cDBSMng
  000e8	e8 00 00 00 00	 call	 ?Send@DBSockMng@@QAEHPADH@Z ; DBSockMng::Send

; 708  : 	iCount++;

  000ed	a1 00 00 00 00	 mov	 eax, DWORD PTR ?iCount@@3HA ; iCount
  000f2	40		 inc	 eax

; 709  : 
; 710  : 	wsprintf(pMsg.testbuf, "%d", iCount);

  000f3	50		 push	 eax
  000f4	8d 8d 2c f8 ff
	ff		 lea	 ecx, DWORD PTR _pMsg$[ebp+4]
  000fa	68 00 00 00 00	 push	 OFFSET ??_C@_02DPKJAMEF@?$CFd?$AA@
  000ff	51		 push	 ecx
  00100	a3 00 00 00 00	 mov	 DWORD PTR ?iCount@@3HA, eax ; iCount
  00105	ff d6		 call	 esi

; 711  : 	LogAdd("%s", pMsg.testbuf);

  00107	8d 95 2c f8 ff
	ff		 lea	 edx, DWORD PTR _pMsg$[ebp+4]
  0010d	52		 push	 edx
  0010e	68 00 00 00 00	 push	 OFFSET ??_C@_02DKCKIIND@?$CFs?$AA@
  00113	ff 15 00 00 00
	00		 call	 DWORD PTR ?LogAdd@@3P6AXPADZZA ; LogAdd
  00119	83 c4 14	 add	 esp, 20			; 00000014H

; 712  : 	cDBSMng.Send((char *)&pMsg, size);

  0011c	68 d4 07 00 00	 push	 2004			; 000007d4H
  00121	8d 85 28 f8 ff
	ff		 lea	 eax, DWORD PTR _pMsg$[ebp]
  00127	50		 push	 eax
  00128	b9 00 00 00 00	 mov	 ecx, OFFSET ?cDBSMng@@3VDBSockMng@@A ; cDBSMng
  0012d	e8 00 00 00 00	 call	 ?Send@DBSockMng@@QAEHPADH@Z ; DBSockMng::Send

; 713  : 	iCount++;

  00132	a1 00 00 00 00	 mov	 eax, DWORD PTR ?iCount@@3HA ; iCount
  00137	40		 inc	 eax

; 714  : 
; 715  : 	wsprintf(pMsg.testbuf, "%d", iCount);

  00138	50		 push	 eax
  00139	8d 8d 2c f8 ff
	ff		 lea	 ecx, DWORD PTR _pMsg$[ebp+4]
  0013f	68 00 00 00 00	 push	 OFFSET ??_C@_02DPKJAMEF@?$CFd?$AA@
  00144	51		 push	 ecx
  00145	a3 00 00 00 00	 mov	 DWORD PTR ?iCount@@3HA, eax ; iCount
  0014a	ff d6		 call	 esi

; 716  : 	LogAdd("%s", pMsg.testbuf);

  0014c	8d 95 2c f8 ff
	ff		 lea	 edx, DWORD PTR _pMsg$[ebp+4]
  00152	52		 push	 edx
  00153	68 00 00 00 00	 push	 OFFSET ??_C@_02DKCKIIND@?$CFs?$AA@
  00158	ff 15 00 00 00
	00		 call	 DWORD PTR ?LogAdd@@3P6AXPADZZA ; LogAdd
  0015e	83 c4 14	 add	 esp, 20			; 00000014H

; 717  : 	cDBSMng.Send((char *)&pMsg, size);

  00161	68 d4 07 00 00	 push	 2004			; 000007d4H
  00166	8d 85 28 f8 ff
	ff		 lea	 eax, DWORD PTR _pMsg$[ebp]
  0016c	50		 push	 eax
  0016d	b9 00 00 00 00	 mov	 ecx, OFFSET ?cDBSMng@@3VDBSockMng@@A ; cDBSMng
  00172	e8 00 00 00 00	 call	 ?Send@DBSockMng@@QAEHPADH@Z ; DBSockMng::Send

; 718  : 	iCount++;

  00177	a1 00 00 00 00	 mov	 eax, DWORD PTR ?iCount@@3HA ; iCount
  0017c	40		 inc	 eax

; 719  : 
; 720  : 	wsprintf(pMsg.testbuf, "%d", iCount);

  0017d	50		 push	 eax
  0017e	8d 8d 2c f8 ff
	ff		 lea	 ecx, DWORD PTR _pMsg$[ebp+4]
  00184	68 00 00 00 00	 push	 OFFSET ??_C@_02DPKJAMEF@?$CFd?$AA@
  00189	51		 push	 ecx
  0018a	a3 00 00 00 00	 mov	 DWORD PTR ?iCount@@3HA, eax ; iCount
  0018f	ff d6		 call	 esi

; 721  : 	LogAdd("%s", pMsg.testbuf);

  00191	8d 95 2c f8 ff
	ff		 lea	 edx, DWORD PTR _pMsg$[ebp+4]
  00197	52		 push	 edx
  00198	68 00 00 00 00	 push	 OFFSET ??_C@_02DKCKIIND@?$CFs?$AA@
  0019d	ff 15 00 00 00
	00		 call	 DWORD PTR ?LogAdd@@3P6AXPADZZA ; LogAdd
  001a3	83 c4 14	 add	 esp, 20			; 00000014H

; 722  : 	cDBSMng.Send((char *)&pMsg, size);

  001a6	68 d4 07 00 00	 push	 2004			; 000007d4H
  001ab	8d 85 28 f8 ff
	ff		 lea	 eax, DWORD PTR _pMsg$[ebp]
  001b1	50		 push	 eax
  001b2	b9 00 00 00 00	 mov	 ecx, OFFSET ?cDBSMng@@3VDBSockMng@@A ; cDBSMng
  001b7	e8 00 00 00 00	 call	 ?Send@DBSockMng@@QAEHPADH@Z ; DBSockMng::Send

; 723  : 	iCount++;

  001bc	a1 00 00 00 00	 mov	 eax, DWORD PTR ?iCount@@3HA ; iCount
  001c1	40		 inc	 eax

; 724  : 
; 725  : 	wsprintf(pMsg.testbuf, "%d", iCount);

  001c2	50		 push	 eax
  001c3	8d 8d 2c f8 ff
	ff		 lea	 ecx, DWORD PTR _pMsg$[ebp+4]
  001c9	68 00 00 00 00	 push	 OFFSET ??_C@_02DPKJAMEF@?$CFd?$AA@
  001ce	51		 push	 ecx
  001cf	a3 00 00 00 00	 mov	 DWORD PTR ?iCount@@3HA, eax ; iCount
  001d4	ff d6		 call	 esi

; 726  : 	LogAdd("%s", pMsg.testbuf);

  001d6	8d 95 2c f8 ff
	ff		 lea	 edx, DWORD PTR _pMsg$[ebp+4]
  001dc	52		 push	 edx
  001dd	68 00 00 00 00	 push	 OFFSET ??_C@_02DKCKIIND@?$CFs?$AA@
  001e2	ff 15 00 00 00
	00		 call	 DWORD PTR ?LogAdd@@3P6AXPADZZA ; LogAdd
  001e8	83 c4 14	 add	 esp, 20			; 00000014H

; 727  : 	cDBSMng.Send((char *)&pMsg, size);

  001eb	68 d4 07 00 00	 push	 2004			; 000007d4H
  001f0	8d 85 28 f8 ff
	ff		 lea	 eax, DWORD PTR _pMsg$[ebp]
  001f6	50		 push	 eax
  001f7	b9 00 00 00 00	 mov	 ecx, OFFSET ?cDBSMng@@3VDBSockMng@@A ; cDBSMng
  001fc	e8 00 00 00 00	 call	 ?Send@DBSockMng@@QAEHPADH@Z ; DBSockMng::Send

; 728  : 	iCount++;

  00201	a1 00 00 00 00	 mov	 eax, DWORD PTR ?iCount@@3HA ; iCount
  00206	40		 inc	 eax

; 729  : 
; 730  : 	wsprintf(pMsg.testbuf, "%d", iCount);

  00207	50		 push	 eax
  00208	8d 8d 2c f8 ff
	ff		 lea	 ecx, DWORD PTR _pMsg$[ebp+4]
  0020e	68 00 00 00 00	 push	 OFFSET ??_C@_02DPKJAMEF@?$CFd?$AA@
  00213	51		 push	 ecx
  00214	a3 00 00 00 00	 mov	 DWORD PTR ?iCount@@3HA, eax ; iCount
  00219	ff d6		 call	 esi

; 731  : 	LogAdd("%s", pMsg.testbuf);

  0021b	8d 95 2c f8 ff
	ff		 lea	 edx, DWORD PTR _pMsg$[ebp+4]
  00221	52		 push	 edx
  00222	68 00 00 00 00	 push	 OFFSET ??_C@_02DKCKIIND@?$CFs?$AA@
  00227	ff 15 00 00 00
	00		 call	 DWORD PTR ?LogAdd@@3P6AXPADZZA ; LogAdd
  0022d	83 c4 14	 add	 esp, 20			; 00000014H

; 732  : 	cDBSMng.Send((char *)&pMsg, size);

  00230	68 d4 07 00 00	 push	 2004			; 000007d4H
  00235	8d 85 28 f8 ff
	ff		 lea	 eax, DWORD PTR _pMsg$[ebp]
  0023b	50		 push	 eax
  0023c	b9 00 00 00 00	 mov	 ecx, OFFSET ?cDBSMng@@3VDBSockMng@@A ; cDBSMng
  00241	e8 00 00 00 00	 call	 ?Send@DBSockMng@@QAEHPADH@Z ; DBSockMng::Send

; 733  : 	iCount++;

  00246	a1 00 00 00 00	 mov	 eax, DWORD PTR ?iCount@@3HA ; iCount
  0024b	40		 inc	 eax

; 734  : 
; 735  : 	wsprintf(pMsg.testbuf, "%d", iCount);

  0024c	50		 push	 eax
  0024d	8d 8d 2c f8 ff
	ff		 lea	 ecx, DWORD PTR _pMsg$[ebp+4]
  00253	68 00 00 00 00	 push	 OFFSET ??_C@_02DPKJAMEF@?$CFd?$AA@
  00258	51		 push	 ecx
  00259	a3 00 00 00 00	 mov	 DWORD PTR ?iCount@@3HA, eax ; iCount
  0025e	ff d6		 call	 esi

; 736  : 	LogAdd("%s", pMsg.testbuf);

  00260	8d 95 2c f8 ff
	ff		 lea	 edx, DWORD PTR _pMsg$[ebp+4]
  00266	52		 push	 edx
  00267	68 00 00 00 00	 push	 OFFSET ??_C@_02DKCKIIND@?$CFs?$AA@
  0026c	ff 15 00 00 00
	00		 call	 DWORD PTR ?LogAdd@@3P6AXPADZZA ; LogAdd
  00272	83 c4 14	 add	 esp, 20			; 00000014H

; 737  : 	cDBSMng.Send((char *)&pMsg, size);

  00275	68 d4 07 00 00	 push	 2004			; 000007d4H
  0027a	8d 85 28 f8 ff
	ff		 lea	 eax, DWORD PTR _pMsg$[ebp]
  00280	50		 push	 eax
  00281	b9 00 00 00 00	 mov	 ecx, OFFSET ?cDBSMng@@3VDBSockMng@@A ; cDBSMng
  00286	e8 00 00 00 00	 call	 ?Send@DBSockMng@@QAEHPADH@Z ; DBSockMng::Send

; 738  : 	iCount++;

  0028b	a1 00 00 00 00	 mov	 eax, DWORD PTR ?iCount@@3HA ; iCount
  00290	40		 inc	 eax

; 739  : 
; 740  : 	wsprintf(pMsg.testbuf, "%d", iCount);

  00291	50		 push	 eax
  00292	8d 8d 2c f8 ff
	ff		 lea	 ecx, DWORD PTR _pMsg$[ebp+4]
  00298	68 00 00 00 00	 push	 OFFSET ??_C@_02DPKJAMEF@?$CFd?$AA@
  0029d	51		 push	 ecx
  0029e	a3 00 00 00 00	 mov	 DWORD PTR ?iCount@@3HA, eax ; iCount
  002a3	ff d6		 call	 esi

; 741  : 	LogAdd("%s", pMsg.testbuf);

  002a5	8d 95 2c f8 ff
	ff		 lea	 edx, DWORD PTR _pMsg$[ebp+4]
  002ab	52		 push	 edx
  002ac	68 00 00 00 00	 push	 OFFSET ??_C@_02DKCKIIND@?$CFs?$AA@
  002b1	ff 15 00 00 00
	00		 call	 DWORD PTR ?LogAdd@@3P6AXPADZZA ; LogAdd
  002b7	83 c4 14	 add	 esp, 20			; 00000014H

; 742  : 	cDBSMng.Send((char *)&pMsg, size);

  002ba	68 d4 07 00 00	 push	 2004			; 000007d4H
  002bf	8d 85 28 f8 ff
	ff		 lea	 eax, DWORD PTR _pMsg$[ebp]
  002c5	50		 push	 eax
  002c6	b9 00 00 00 00	 mov	 ecx, OFFSET ?cDBSMng@@3VDBSockMng@@A ; cDBSMng
  002cb	e8 00 00 00 00	 call	 ?Send@DBSockMng@@QAEHPADH@Z ; DBSockMng::Send

; 743  : 	iCount++;

  002d0	a1 00 00 00 00	 mov	 eax, DWORD PTR ?iCount@@3HA ; iCount
  002d5	40		 inc	 eax

; 744  : 
; 745  : 	wsprintf(pMsg.testbuf, "%d", iCount);

  002d6	50		 push	 eax
  002d7	8d 8d 2c f8 ff
	ff		 lea	 ecx, DWORD PTR _pMsg$[ebp+4]
  002dd	68 00 00 00 00	 push	 OFFSET ??_C@_02DPKJAMEF@?$CFd?$AA@
  002e2	51		 push	 ecx
  002e3	a3 00 00 00 00	 mov	 DWORD PTR ?iCount@@3HA, eax ; iCount
  002e8	ff d6		 call	 esi

; 746  : 	LogAdd("%s", pMsg.testbuf);

  002ea	8d 95 2c f8 ff
	ff		 lea	 edx, DWORD PTR _pMsg$[ebp+4]
  002f0	52		 push	 edx
  002f1	68 00 00 00 00	 push	 OFFSET ??_C@_02DKCKIIND@?$CFs?$AA@
  002f6	ff 15 00 00 00
	00		 call	 DWORD PTR ?LogAdd@@3P6AXPADZZA ; LogAdd
  002fc	83 c4 14	 add	 esp, 20			; 00000014H

; 747  : 	cDBSMng.Send((char *)&pMsg, size);

  002ff	68 d4 07 00 00	 push	 2004			; 000007d4H
  00304	8d 85 28 f8 ff
	ff		 lea	 eax, DWORD PTR _pMsg$[ebp]
  0030a	50		 push	 eax
  0030b	b9 00 00 00 00	 mov	 ecx, OFFSET ?cDBSMng@@3VDBSockMng@@A ; cDBSMng
  00310	e8 00 00 00 00	 call	 ?Send@DBSockMng@@QAEHPADH@Z ; DBSockMng::Send

; 748  : 	iCount++;

  00315	a1 00 00 00 00	 mov	 eax, DWORD PTR ?iCount@@3HA ; iCount
  0031a	40		 inc	 eax

; 749  : 
; 750  : 	wsprintf(pMsg.testbuf, "%d", iCount);

  0031b	50		 push	 eax
  0031c	8d 8d 2c f8 ff
	ff		 lea	 ecx, DWORD PTR _pMsg$[ebp+4]
  00322	68 00 00 00 00	 push	 OFFSET ??_C@_02DPKJAMEF@?$CFd?$AA@
  00327	51		 push	 ecx
  00328	a3 00 00 00 00	 mov	 DWORD PTR ?iCount@@3HA, eax ; iCount
  0032d	ff d6		 call	 esi

; 751  : 	LogAdd("%s", pMsg.testbuf);

  0032f	8d 95 2c f8 ff
	ff		 lea	 edx, DWORD PTR _pMsg$[ebp+4]
  00335	52		 push	 edx
  00336	68 00 00 00 00	 push	 OFFSET ??_C@_02DKCKIIND@?$CFs?$AA@
  0033b	ff 15 00 00 00
	00		 call	 DWORD PTR ?LogAdd@@3P6AXPADZZA ; LogAdd
  00341	83 c4 14	 add	 esp, 20			; 00000014H

; 752  : 	cDBSMng.Send((char *)&pMsg, size);

  00344	68 d4 07 00 00	 push	 2004			; 000007d4H
  00349	8d 85 28 f8 ff
	ff		 lea	 eax, DWORD PTR _pMsg$[ebp]
  0034f	50		 push	 eax
  00350	b9 00 00 00 00	 mov	 ecx, OFFSET ?cDBSMng@@3VDBSockMng@@A ; cDBSMng
  00355	e8 00 00 00 00	 call	 ?Send@DBSockMng@@QAEHPADH@Z ; DBSockMng::Send

; 753  : 	iCount++;

  0035a	a1 00 00 00 00	 mov	 eax, DWORD PTR ?iCount@@3HA ; iCount
  0035f	40		 inc	 eax

; 754  : 
; 755  : 	wsprintf(pMsg.testbuf, "%d", iCount);

  00360	50		 push	 eax
  00361	8d 8d 2c f8 ff
	ff		 lea	 ecx, DWORD PTR _pMsg$[ebp+4]
  00367	68 00 00 00 00	 push	 OFFSET ??_C@_02DPKJAMEF@?$CFd?$AA@
  0036c	51		 push	 ecx
  0036d	a3 00 00 00 00	 mov	 DWORD PTR ?iCount@@3HA, eax ; iCount
  00372	ff d6		 call	 esi

; 756  : 	LogAdd("%s", pMsg.testbuf);

  00374	8d 95 2c f8 ff
	ff		 lea	 edx, DWORD PTR _pMsg$[ebp+4]
  0037a	52		 push	 edx
  0037b	68 00 00 00 00	 push	 OFFSET ??_C@_02DKCKIIND@?$CFs?$AA@
  00380	ff 15 00 00 00
	00		 call	 DWORD PTR ?LogAdd@@3P6AXPADZZA ; LogAdd
  00386	83 c4 14	 add	 esp, 20			; 00000014H

; 757  : 	cDBSMng.Send((char *)&pMsg, size);

  00389	68 d4 07 00 00	 push	 2004			; 000007d4H
  0038e	8d 85 28 f8 ff
	ff		 lea	 eax, DWORD PTR _pMsg$[ebp]
  00394	50		 push	 eax
  00395	b9 00 00 00 00	 mov	 ecx, OFFSET ?cDBSMng@@3VDBSockMng@@A ; cDBSMng
  0039a	e8 00 00 00 00	 call	 ?Send@DBSockMng@@QAEHPADH@Z ; DBSockMng::Send

; 758  : 	iCount++;

  0039f	a1 00 00 00 00	 mov	 eax, DWORD PTR ?iCount@@3HA ; iCount
  003a4	40		 inc	 eax

; 759  : 
; 760  : 	wsprintf(pMsg.testbuf, "%d", iCount);

  003a5	50		 push	 eax
  003a6	8d 8d 2c f8 ff
	ff		 lea	 ecx, DWORD PTR _pMsg$[ebp+4]
  003ac	68 00 00 00 00	 push	 OFFSET ??_C@_02DPKJAMEF@?$CFd?$AA@
  003b1	51		 push	 ecx
  003b2	a3 00 00 00 00	 mov	 DWORD PTR ?iCount@@3HA, eax ; iCount
  003b7	ff d6		 call	 esi

; 761  : 	LogAdd("%s", pMsg.testbuf);

  003b9	8d 95 2c f8 ff
	ff		 lea	 edx, DWORD PTR _pMsg$[ebp+4]
  003bf	52		 push	 edx
  003c0	68 00 00 00 00	 push	 OFFSET ??_C@_02DKCKIIND@?$CFs?$AA@
  003c5	ff 15 00 00 00
	00		 call	 DWORD PTR ?LogAdd@@3P6AXPADZZA ; LogAdd
  003cb	83 c4 14	 add	 esp, 20			; 00000014H

; 762  : 	cDBSMng.Send((char *)&pMsg, size);

  003ce	68 d4 07 00 00	 push	 2004			; 000007d4H
  003d3	8d 85 28 f8 ff
	ff		 lea	 eax, DWORD PTR _pMsg$[ebp]
  003d9	50		 push	 eax
  003da	b9 00 00 00 00	 mov	 ecx, OFFSET ?cDBSMng@@3VDBSockMng@@A ; cDBSMng
  003df	e8 00 00 00 00	 call	 ?Send@DBSockMng@@QAEHPADH@Z ; DBSockMng::Send

; 763  : 	iCount++;

  003e4	a1 00 00 00 00	 mov	 eax, DWORD PTR ?iCount@@3HA ; iCount
  003e9	40		 inc	 eax

; 764  : 
; 765  : 	wsprintf(pMsg.testbuf, "%d", iCount);

  003ea	50		 push	 eax
  003eb	8d 8d 2c f8 ff
	ff		 lea	 ecx, DWORD PTR _pMsg$[ebp+4]
  003f1	68 00 00 00 00	 push	 OFFSET ??_C@_02DPKJAMEF@?$CFd?$AA@
  003f6	51		 push	 ecx
  003f7	a3 00 00 00 00	 mov	 DWORD PTR ?iCount@@3HA, eax ; iCount
  003fc	ff d6		 call	 esi

; 766  : 	LogAdd("%s", pMsg.testbuf);

  003fe	8d 95 2c f8 ff
	ff		 lea	 edx, DWORD PTR _pMsg$[ebp+4]
  00404	52		 push	 edx
  00405	68 00 00 00 00	 push	 OFFSET ??_C@_02DKCKIIND@?$CFs?$AA@
  0040a	ff 15 00 00 00
	00		 call	 DWORD PTR ?LogAdd@@3P6AXPADZZA ; LogAdd
  00410	83 c4 14	 add	 esp, 20			; 00000014H

; 767  : 	cDBSMng.Send((char *)&pMsg, size);

  00413	68 d4 07 00 00	 push	 2004			; 000007d4H
  00418	8d 85 28 f8 ff
	ff		 lea	 eax, DWORD PTR _pMsg$[ebp]
  0041e	50		 push	 eax
  0041f	b9 00 00 00 00	 mov	 ecx, OFFSET ?cDBSMng@@3VDBSockMng@@A ; cDBSMng
  00424	e8 00 00 00 00	 call	 ?Send@DBSockMng@@QAEHPADH@Z ; DBSockMng::Send

; 768  : 	iCount++;

  00429	a1 00 00 00 00	 mov	 eax, DWORD PTR ?iCount@@3HA ; iCount
  0042e	40		 inc	 eax

; 769  : 
; 770  : 	wsprintf(pMsg.testbuf, "%d", iCount);

  0042f	50		 push	 eax
  00430	8d 8d 2c f8 ff
	ff		 lea	 ecx, DWORD PTR _pMsg$[ebp+4]
  00436	68 00 00 00 00	 push	 OFFSET ??_C@_02DPKJAMEF@?$CFd?$AA@
  0043b	51		 push	 ecx
  0043c	a3 00 00 00 00	 mov	 DWORD PTR ?iCount@@3HA, eax ; iCount
  00441	ff d6		 call	 esi

; 771  : 	LogAdd("%s", pMsg.testbuf);

  00443	8d 95 2c f8 ff
	ff		 lea	 edx, DWORD PTR _pMsg$[ebp+4]
  00449	52		 push	 edx
  0044a	68 00 00 00 00	 push	 OFFSET ??_C@_02DKCKIIND@?$CFs?$AA@
  0044f	ff 15 00 00 00
	00		 call	 DWORD PTR ?LogAdd@@3P6AXPADZZA ; LogAdd
  00455	83 c4 14	 add	 esp, 20			; 00000014H

; 772  : 	cDBSMng.Send((char *)&pMsg, size);

  00458	68 d4 07 00 00	 push	 2004			; 000007d4H
  0045d	8d 85 28 f8 ff
	ff		 lea	 eax, DWORD PTR _pMsg$[ebp]
  00463	50		 push	 eax
  00464	b9 00 00 00 00	 mov	 ecx, OFFSET ?cDBSMng@@3VDBSockMng@@A ; cDBSMng
  00469	e8 00 00 00 00	 call	 ?Send@DBSockMng@@QAEHPADH@Z ; DBSockMng::Send

; 773  : 	iCount++;

  0046e	a1 00 00 00 00	 mov	 eax, DWORD PTR ?iCount@@3HA ; iCount
  00473	40		 inc	 eax

; 774  : 
; 775  : 	wsprintf(pMsg.testbuf, "%d", iCount);

  00474	50		 push	 eax
  00475	8d 8d 2c f8 ff
	ff		 lea	 ecx, DWORD PTR _pMsg$[ebp+4]
  0047b	68 00 00 00 00	 push	 OFFSET ??_C@_02DPKJAMEF@?$CFd?$AA@
  00480	51		 push	 ecx
  00481	a3 00 00 00 00	 mov	 DWORD PTR ?iCount@@3HA, eax ; iCount
  00486	ff d6		 call	 esi

; 776  : 	LogAdd("%s", pMsg.testbuf);

  00488	8d 95 2c f8 ff
	ff		 lea	 edx, DWORD PTR _pMsg$[ebp+4]
  0048e	52		 push	 edx
  0048f	68 00 00 00 00	 push	 OFFSET ??_C@_02DKCKIIND@?$CFs?$AA@
  00494	ff 15 00 00 00
	00		 call	 DWORD PTR ?LogAdd@@3P6AXPADZZA ; LogAdd
  0049a	83 c4 14	 add	 esp, 20			; 00000014H

; 777  : 	cDBSMng.Send((char *)&pMsg, size);

  0049d	68 d4 07 00 00	 push	 2004			; 000007d4H
  004a2	8d 85 28 f8 ff
	ff		 lea	 eax, DWORD PTR _pMsg$[ebp]
  004a8	50		 push	 eax
  004a9	b9 00 00 00 00	 mov	 ecx, OFFSET ?cDBSMng@@3VDBSockMng@@A ; cDBSMng
  004ae	e8 00 00 00 00	 call	 ?Send@DBSockMng@@QAEHPADH@Z ; DBSockMng::Send

; 778  : 	iCount++;

  004b3	a1 00 00 00 00	 mov	 eax, DWORD PTR ?iCount@@3HA ; iCount
  004b8	40		 inc	 eax

; 779  : 
; 780  : 	wsprintf(pMsg.testbuf, "%d", iCount);

  004b9	50		 push	 eax
  004ba	8d 8d 2c f8 ff
	ff		 lea	 ecx, DWORD PTR _pMsg$[ebp+4]
  004c0	68 00 00 00 00	 push	 OFFSET ??_C@_02DPKJAMEF@?$CFd?$AA@
  004c5	51		 push	 ecx
  004c6	a3 00 00 00 00	 mov	 DWORD PTR ?iCount@@3HA, eax ; iCount
  004cb	ff d6		 call	 esi

; 781  : 	LogAdd("%s", pMsg.testbuf);

  004cd	8d 95 2c f8 ff
	ff		 lea	 edx, DWORD PTR _pMsg$[ebp+4]
  004d3	52		 push	 edx
  004d4	68 00 00 00 00	 push	 OFFSET ??_C@_02DKCKIIND@?$CFs?$AA@
  004d9	ff 15 00 00 00
	00		 call	 DWORD PTR ?LogAdd@@3P6AXPADZZA ; LogAdd
  004df	83 c4 14	 add	 esp, 20			; 00000014H

; 782  : 	cDBSMng.Send((char *)&pMsg, size);

  004e2	68 d4 07 00 00	 push	 2004			; 000007d4H
  004e7	8d 85 28 f8 ff
	ff		 lea	 eax, DWORD PTR _pMsg$[ebp]
  004ed	50		 push	 eax
  004ee	b9 00 00 00 00	 mov	 ecx, OFFSET ?cDBSMng@@3VDBSockMng@@A ; cDBSMng
  004f3	e8 00 00 00 00	 call	 ?Send@DBSockMng@@QAEHPADH@Z ; DBSockMng::Send

; 783  : 	iCount++;

  004f8	a1 00 00 00 00	 mov	 eax, DWORD PTR ?iCount@@3HA ; iCount
  004fd	40		 inc	 eax

; 784  : 
; 785  : 	wsprintf(pMsg.testbuf, "%d", iCount);

  004fe	50		 push	 eax
  004ff	8d 8d 2c f8 ff
	ff		 lea	 ecx, DWORD PTR _pMsg$[ebp+4]
  00505	68 00 00 00 00	 push	 OFFSET ??_C@_02DPKJAMEF@?$CFd?$AA@
  0050a	51		 push	 ecx
  0050b	a3 00 00 00 00	 mov	 DWORD PTR ?iCount@@3HA, eax ; iCount
  00510	ff d6		 call	 esi

; 786  : 	LogAdd("%s", pMsg.testbuf);

  00512	8d 95 2c f8 ff
	ff		 lea	 edx, DWORD PTR _pMsg$[ebp+4]
  00518	52		 push	 edx
  00519	68 00 00 00 00	 push	 OFFSET ??_C@_02DKCKIIND@?$CFs?$AA@
  0051e	ff 15 00 00 00
	00		 call	 DWORD PTR ?LogAdd@@3P6AXPADZZA ; LogAdd
  00524	83 c4 14	 add	 esp, 20			; 00000014H

; 787  : 	cDBSMng.Send((char *)&pMsg, size);

  00527	68 d4 07 00 00	 push	 2004			; 000007d4H
  0052c	8d 85 28 f8 ff
	ff		 lea	 eax, DWORD PTR _pMsg$[ebp]
  00532	50		 push	 eax
  00533	b9 00 00 00 00	 mov	 ecx, OFFSET ?cDBSMng@@3VDBSockMng@@A ; cDBSMng
  00538	e8 00 00 00 00	 call	 ?Send@DBSockMng@@QAEHPADH@Z ; DBSockMng::Send

; 788  : 	iCount++;

  0053d	a1 00 00 00 00	 mov	 eax, DWORD PTR ?iCount@@3HA ; iCount
  00542	40		 inc	 eax

; 789  : 
; 790  : 	wsprintf(pMsg.testbuf, "%d", iCount);

  00543	50		 push	 eax
  00544	8d 8d 2c f8 ff
	ff		 lea	 ecx, DWORD PTR _pMsg$[ebp+4]
  0054a	68 00 00 00 00	 push	 OFFSET ??_C@_02DPKJAMEF@?$CFd?$AA@
  0054f	51		 push	 ecx
  00550	a3 00 00 00 00	 mov	 DWORD PTR ?iCount@@3HA, eax ; iCount
  00555	ff d6		 call	 esi

; 791  : 	LogAdd("%s", pMsg.testbuf);

  00557	8d 95 2c f8 ff
	ff		 lea	 edx, DWORD PTR _pMsg$[ebp+4]
  0055d	52		 push	 edx
  0055e	68 00 00 00 00	 push	 OFFSET ??_C@_02DKCKIIND@?$CFs?$AA@
  00563	ff 15 00 00 00
	00		 call	 DWORD PTR ?LogAdd@@3P6AXPADZZA ; LogAdd
  00569	83 c4 14	 add	 esp, 20			; 00000014H

; 792  : 	cDBSMng.Send((char *)&pMsg, size);

  0056c	68 d4 07 00 00	 push	 2004			; 000007d4H
  00571	8d 85 28 f8 ff
	ff		 lea	 eax, DWORD PTR _pMsg$[ebp]
  00577	50		 push	 eax
  00578	b9 00 00 00 00	 mov	 ecx, OFFSET ?cDBSMng@@3VDBSockMng@@A ; cDBSMng
  0057d	e8 00 00 00 00	 call	 ?Send@DBSockMng@@QAEHPADH@Z ; DBSockMng::Send

; 793  : 	iCount++;

  00582	a1 00 00 00 00	 mov	 eax, DWORD PTR ?iCount@@3HA ; iCount
  00587	40		 inc	 eax

; 794  : 
; 795  : 	wsprintf(pMsg.testbuf, "%d", iCount);

  00588	50		 push	 eax
  00589	8d 8d 2c f8 ff
	ff		 lea	 ecx, DWORD PTR _pMsg$[ebp+4]
  0058f	68 00 00 00 00	 push	 OFFSET ??_C@_02DPKJAMEF@?$CFd?$AA@
  00594	51		 push	 ecx
  00595	a3 00 00 00 00	 mov	 DWORD PTR ?iCount@@3HA, eax ; iCount
  0059a	ff d6		 call	 esi

; 796  : 	LogAdd("%s", pMsg.testbuf);

  0059c	8d 95 2c f8 ff
	ff		 lea	 edx, DWORD PTR _pMsg$[ebp+4]
  005a2	52		 push	 edx
  005a3	68 00 00 00 00	 push	 OFFSET ??_C@_02DKCKIIND@?$CFs?$AA@
  005a8	ff 15 00 00 00
	00		 call	 DWORD PTR ?LogAdd@@3P6AXPADZZA ; LogAdd
  005ae	83 c4 14	 add	 esp, 20			; 00000014H

; 797  : 	cDBSMng.Send((char *)&pMsg, size);

  005b1	68 d4 07 00 00	 push	 2004			; 000007d4H
  005b6	8d 85 28 f8 ff
	ff		 lea	 eax, DWORD PTR _pMsg$[ebp]
  005bc	50		 push	 eax
  005bd	b9 00 00 00 00	 mov	 ecx, OFFSET ?cDBSMng@@3VDBSockMng@@A ; cDBSMng
  005c2	e8 00 00 00 00	 call	 ?Send@DBSockMng@@QAEHPADH@Z ; DBSockMng::Send

; 798  : 	iCount++;

  005c7	a1 00 00 00 00	 mov	 eax, DWORD PTR ?iCount@@3HA ; iCount
  005cc	40		 inc	 eax

; 799  : 
; 800  : 	wsprintf(pMsg.testbuf, "%d", iCount);

  005cd	50		 push	 eax
  005ce	8d 8d 2c f8 ff
	ff		 lea	 ecx, DWORD PTR _pMsg$[ebp+4]
  005d4	68 00 00 00 00	 push	 OFFSET ??_C@_02DPKJAMEF@?$CFd?$AA@
  005d9	51		 push	 ecx
  005da	a3 00 00 00 00	 mov	 DWORD PTR ?iCount@@3HA, eax ; iCount
  005df	ff d6		 call	 esi

; 801  : 	LogAdd("%s", pMsg.testbuf);

  005e1	8d 95 2c f8 ff
	ff		 lea	 edx, DWORD PTR _pMsg$[ebp+4]
  005e7	52		 push	 edx
  005e8	68 00 00 00 00	 push	 OFFSET ??_C@_02DKCKIIND@?$CFs?$AA@
  005ed	ff 15 00 00 00
	00		 call	 DWORD PTR ?LogAdd@@3P6AXPADZZA ; LogAdd
  005f3	83 c4 14	 add	 esp, 20			; 00000014H

; 802  : 	cDBSMng.Send((char *)&pMsg, size);

  005f6	68 d4 07 00 00	 push	 2004			; 000007d4H
  005fb	8d 85 28 f8 ff
	ff		 lea	 eax, DWORD PTR _pMsg$[ebp]
  00601	50		 push	 eax
  00602	b9 00 00 00 00	 mov	 ecx, OFFSET ?cDBSMng@@3VDBSockMng@@A ; cDBSMng
  00607	e8 00 00 00 00	 call	 ?Send@DBSockMng@@QAEHPADH@Z ; DBSockMng::Send

; 803  : 	iCount++;

  0060c	a1 00 00 00 00	 mov	 eax, DWORD PTR ?iCount@@3HA ; iCount
  00611	40		 inc	 eax

; 804  : 
; 805  : 	wsprintf(pMsg.testbuf, "%d", iCount);

  00612	50		 push	 eax
  00613	8d 8d 2c f8 ff
	ff		 lea	 ecx, DWORD PTR _pMsg$[ebp+4]
  00619	68 00 00 00 00	 push	 OFFSET ??_C@_02DPKJAMEF@?$CFd?$AA@
  0061e	51		 push	 ecx
  0061f	a3 00 00 00 00	 mov	 DWORD PTR ?iCount@@3HA, eax ; iCount
  00624	ff d6		 call	 esi

; 806  : 	LogAdd("%s", pMsg.testbuf);

  00626	8d 95 2c f8 ff
	ff		 lea	 edx, DWORD PTR _pMsg$[ebp+4]
  0062c	52		 push	 edx
  0062d	68 00 00 00 00	 push	 OFFSET ??_C@_02DKCKIIND@?$CFs?$AA@
  00632	ff 15 00 00 00
	00		 call	 DWORD PTR ?LogAdd@@3P6AXPADZZA ; LogAdd
  00638	83 c4 14	 add	 esp, 20			; 00000014H

; 807  : 	cDBSMng.Send((char *)&pMsg, size);

  0063b	68 d4 07 00 00	 push	 2004			; 000007d4H
  00640	8d 85 28 f8 ff
	ff		 lea	 eax, DWORD PTR _pMsg$[ebp]
  00646	50		 push	 eax
  00647	b9 00 00 00 00	 mov	 ecx, OFFSET ?cDBSMng@@3VDBSockMng@@A ; cDBSMng
  0064c	e8 00 00 00 00	 call	 ?Send@DBSockMng@@QAEHPADH@Z ; DBSockMng::Send

; 808  : 	iCount++;

  00651	ff 05 00 00 00
	00		 inc	 DWORD PTR ?iCount@@3HA	; iCount

; 809  : 
; 810  : 	LogAdd("Test Data Send");

  00657	68 00 00 00 00	 push	 OFFSET ??_C@_0P@GMPEKMII@Test?5Data?5Send?$AA@
  0065c	ff 15 00 00 00
	00		 call	 DWORD PTR ?LogAdd@@3P6AXPADZZA ; LogAdd

; 811  : }

  00662	8b 4d fc	 mov	 ecx, DWORD PTR __$ArrayPad$[ebp]
  00665	83 c4 04	 add	 esp, 4
  00668	33 cd		 xor	 ecx, ebp
  0066a	5e		 pop	 esi
  0066b	e8 00 00 00 00	 call	 @__security_check_cookie@4
  00670	8b e5		 mov	 esp, ebp
  00672	5d		 pop	 ebp
  00673	c3		 ret	 0
?TestDSSend@@YAXXZ ENDP					; TestDSSend
_TEXT	ENDS
PUBLIC	__$ArrayPad$
PUBLIC	?DataServerLogin@@YAXH@Z			; DataServerLogin
EXTRN	?GDLicenseUser@CZtLicense@@QAEXXZ:PROC		; CZtLicense::GDLicenseUser
EXTRN	?g_ZtLicense@@3VCZtLicense@@A:BYTE		; g_ZtLicense
EXTRN	?Send@DBSockMng@@QAEHHPADH@Z:PROC		; DBSockMng::Send
EXTRN	?szServerName@@3PADA:BYTE			; szServerName
EXTRN	?gGameServerCode@@3FA:WORD			; gGameServerCode
EXTRN	?GameServerPort@@3HA:DWORD			; GameServerPort
; Function compile flags: /Ogtp
;	COMDAT ?DataServerLogin@@YAXH@Z
_TEXT	SEGMENT
_pInfo$ = -64						; size = 58
__$ArrayPad$ = -4					; size = 4
_server$ = 8						; size = 4
?DataServerLogin@@YAXH@Z PROC				; DataServerLogin, COMDAT

; 815  : {

  00000	55		 push	 ebp
  00001	8b ec		 mov	 ebp, esp
  00003	83 ec 40	 sub	 esp, 64			; 00000040H
  00006	a1 00 00 00 00	 mov	 eax, DWORD PTR ___security_cookie
  0000b	33 c5		 xor	 eax, ebp
  0000d	89 45 fc	 mov	 DWORD PTR __$ArrayPad$[ebp], eax

; 816  : 	SDHP_SERVERINFO pInfo;
; 817  : 	pInfo.h.c =0xC1;
; 818  : 	pInfo.h.size = sizeof(SDHP_SERVERINFO);
; 819  : 	pInfo.h.headcode =0x00;
; 820  : 	pInfo.Port =(WORD)GameServerPort;

  00010	66 a1 00 00 00
	00		 mov	 ax, WORD PTR ?GameServerPort@@3HA

; 821  : 	pInfo.Type =1;
; 822  : 	pInfo.ServerCode =gGameServerCode;

  00016	66 8b 0d 00 00
	00 00		 mov	 cx, WORD PTR ?gGameServerCode@@3FA ; gGameServerCode
  0001d	66 89 45 c4	 mov	 WORD PTR _pInfo$[ebp+4], ax
  00021	c7 45 c0 c1 3a
	00 01		 mov	 DWORD PTR _pInfo$[ebp], 16792257 ; 01003ac1H
  00028	66 89 4d f8	 mov	 WORD PTR _pInfo$[ebp+56], cx

; 823  : 	strcpy( (char*)&pInfo.ServerName[0], (const char*)&szServerName[0] );

  0002c	33 c0		 xor	 eax, eax
  0002e	8b ff		 npad	 2
$LL3@DataServer:
  00030	8a 88 00 00 00
	00		 mov	 cl, BYTE PTR ?szServerName@@3PADA[eax]
  00036	88 4c 05 c6	 mov	 BYTE PTR _pInfo$[ebp+eax+6], cl
  0003a	40		 inc	 eax
  0003b	84 c9		 test	 cl, cl
  0003d	75 f1		 jne	 SHORT $LL3@DataServer

; 824  : 	cDBSMng.Send(server, (char*)&pInfo , pInfo.h.size  );	

  0003f	0f b6 55 c1	 movzx	 edx, BYTE PTR _pInfo$[ebp+1]
  00043	8b 4d 08	 mov	 ecx, DWORD PTR _server$[ebp]
  00046	52		 push	 edx
  00047	8d 45 c0	 lea	 eax, DWORD PTR _pInfo$[ebp]
  0004a	50		 push	 eax
  0004b	51		 push	 ecx
  0004c	b9 00 00 00 00	 mov	 ecx, OFFSET ?cDBSMng@@3VDBSockMng@@A ; cDBSMng
  00051	e8 00 00 00 00	 call	 ?Send@DBSockMng@@QAEHHPADH@Z ; DBSockMng::Send

; 825  : 
; 826  : 	g_ZtLicense.GDLicenseUser();

  00056	b9 00 00 00 00	 mov	 ecx, OFFSET ?g_ZtLicense@@3VCZtLicense@@A ; g_ZtLicense
  0005b	e8 00 00 00 00	 call	 ?GDLicenseUser@CZtLicense@@QAEXXZ ; CZtLicense::GDLicenseUser

; 827  : }

  00060	8b 4d fc	 mov	 ecx, DWORD PTR __$ArrayPad$[ebp]
  00063	33 cd		 xor	 ecx, ebp
  00065	e8 00 00 00 00	 call	 @__security_check_cookie@4
  0006a	8b e5		 mov	 esp, ebp
  0006c	5d		 pop	 ebp
  0006d	c3		 ret	 0
?DataServerLogin@@YAXH@Z ENDP				; DataServerLogin
_TEXT	ENDS
PUBLIC	?DataServerLoginResult@@YAXPAUSDHP_RESULT@@@Z	; DataServerLoginResult
EXTRN	?DSReqSelect@CBanSystem@@QAEXXZ:PROC		; CBanSystem::DSReqSelect
EXTRN	?g_BanSystem@@3VCBanSystem@@A:BYTE		; g_BanSystem
EXTRN	?GDReqRegSiegeList@CDungeonSiege@@QAEXXZ:PROC	; CDungeonSiege::GDReqRegSiegeList
EXTRN	?GDSiegeOwner@CDungeonSiege@@QAEXXZ:PROC	; CDungeonSiege::GDSiegeOwner
EXTRN	?g_DungeonSiege@@3VCDungeonSiege@@A:BYTE	; g_DungeonSiege
EXTRN	__imp__SendMessageA@16:PROC
EXTRN	?DataServerConnected@@3HA:DWORD			; DataServerConnected
EXTRN	?gServerReady@@3HA:DWORD			; gServerReady
EXTRN	?ghWnd@@3PAUHWND__@@A:DWORD			; ghWnd
EXTRN	?DB_Start@CZtGDManager@@QAEXXZ:PROC		; CZtGDManager::DB_Start
EXTRN	?gParty@@3VPartyClass@@A:BYTE			; gParty
EXTRN	?g_ZtGDManager@@3VCZtGDManager@@A:BYTE		; g_ZtGDManager
EXTRN	?LogAddC@@3P6AXEPADZZA:DWORD			; LogAddC
EXTRN	?Get@CMsg@@QAEPADH@Z:PROC			; CMsg::Get
EXTRN	?lMsg@@3VCMsg@@A:BYTE				; lMsg
; Function compile flags: /Ogtp
;	COMDAT ?DataServerLoginResult@@YAXPAUSDHP_RESULT@@@Z
_TEXT	SEGMENT
_lpMsg$ = 8						; size = 4
?DataServerLoginResult@@YAXPAUSDHP_RESULT@@@Z PROC	; DataServerLoginResult, COMDAT

; 831  : {

  00000	55		 push	 ebp
  00001	8b ec		 mov	 ebp, esp

; 832  : 	if (lpMsg->Result == false )

  00003	8b 45 08	 mov	 eax, DWORD PTR _lpMsg$[ebp]
  00006	80 78 03 00	 cmp	 BYTE PTR [eax+3], 0
  0000a	75 22		 jne	 SHORT $LN1@DataServer@2

; 833  : 	{
; 834  : #if(SWENG_FIX==TRUE)
; 835  : 		LogAddC(2, "%s", lMsg.Get(MSGGET(1, 210)));	//FIX_CRASH

  0000c	68 d2 01 00 00	 push	 466			; 000001d2H
  00011	b9 00 00 00 00	 mov	 ecx, OFFSET ?lMsg@@3VCMsg@@A ; lMsg
  00016	e8 00 00 00 00	 call	 ?Get@CMsg@@QAEPADH@Z	; CMsg::Get
  0001b	50		 push	 eax
  0001c	68 00 00 00 00	 push	 OFFSET ??_C@_02DKCKIIND@?$CFs?$AA@
  00021	6a 02		 push	 2
  00023	ff 15 00 00 00
	00		 call	 DWORD PTR ?LogAddC@@3P6AXEPADZZA ; LogAddC
  00029	83 c4 0c	 add	 esp, 12			; 0000000cH

; 859  : 	#endif
; 860  : }

  0002c	5d		 pop	 ebp
  0002d	c3		 ret	 0
$LN1@DataServer@2:

; 836  : #else
; 837  : 		MsgBox(lMsg.Get(MSGGET(1, 210)));	
; 838  : #endif
; 839  : 		return;
; 840  : 	}
; 841  : 	
; 842  : #if(CUSTOM_SAVE_PT==TRUE)
; 843  : 	gParty.DBIndex = lpMsg->PartyCount;

  0002e	8b 40 08	 mov	 eax, DWORD PTR [eax+8]

; 844  : #endif
; 845  : 
; 846  : 	g_ZtGDManager.DB_Start();

  00031	b9 00 00 00 00	 mov	 ecx, OFFSET ?g_ZtGDManager@@3VCZtGDManager@@A ; g_ZtGDManager
  00036	a3 c8 ce 17 00	 mov	 DWORD PTR ?gParty@@3VPartyClass@@A+1560264, eax
  0003b	e8 00 00 00 00	 call	 ?DB_Start@CZtGDManager@@QAEXXZ ; CZtGDManager::DB_Start

; 847  : 
; 848  : 	DataServerConnected = TRUE;
; 849  : 	gServerReady++;
; 850  : 	SendMessage(ghWnd, WM_START_SERVER, 0, 0); 

  00040	8b 0d 00 00 00
	00		 mov	 ecx, DWORD PTR ?ghWnd@@3PAUHWND__@@A ; ghWnd
  00046	6a 00		 push	 0
  00048	6a 00		 push	 0
  0004a	b8 01 00 00 00	 mov	 eax, 1
  0004f	01 05 00 00 00
	00		 add	 DWORD PTR ?gServerReady@@3HA, eax ; gServerReady
  00055	68 05 04 00 00	 push	 1029			; 00000405H
  0005a	51		 push	 ecx
  0005b	a3 00 00 00 00	 mov	 DWORD PTR ?DataServerConnected@@3HA, eax ; DataServerConnected
  00060	ff 15 00 00 00
	00		 call	 DWORD PTR __imp__SendMessageA@16

; 851  : 
; 852  : #if(EVENT_DUNGEON_SIEGE)
; 853  : 	g_DungeonSiege.GDSiegeOwner();

  00066	b9 00 00 00 00	 mov	 ecx, OFFSET ?g_DungeonSiege@@3VCDungeonSiege@@A ; g_DungeonSiege
  0006b	e8 00 00 00 00	 call	 ?GDSiegeOwner@CDungeonSiege@@QAEXXZ ; CDungeonSiege::GDSiegeOwner

; 854  : 	g_DungeonSiege.GDReqRegSiegeList();

  00070	b9 00 00 00 00	 mov	 ecx, OFFSET ?g_DungeonSiege@@3VCDungeonSiege@@A ; g_DungeonSiege
  00075	e8 00 00 00 00	 call	 ?GDReqRegSiegeList@CDungeonSiege@@QAEXXZ ; CDungeonSiege::GDReqRegSiegeList

; 855  : #endif
; 856  : 
; 857  : 	#if(DEV_BANSYSTEM)
; 858  : 	g_BanSystem.DSReqSelect();

  0007a	b9 00 00 00 00	 mov	 ecx, OFFSET ?g_BanSystem@@3VCBanSystem@@A ; g_BanSystem

; 859  : 	#endif
; 860  : }

  0007f	5d		 pop	 ebp

; 855  : #endif
; 856  : 
; 857  : 	#if(DEV_BANSYSTEM)
; 858  : 	g_BanSystem.DSReqSelect();

  00080	e9 00 00 00 00	 jmp	 ?DSReqSelect@CBanSystem@@QAEXXZ ; CBanSystem::DSReqSelect
?DataServerLoginResult@@YAXPAUSDHP_RESULT@@@Z ENDP	; DataServerLoginResult
_TEXT	ENDS
PUBLIC	??_C@_0DI@OHFHMHBN@Requested?5character?5list?5doesn?8t@ ; `string'
PUBLIC	__$ArrayPad$
PUBLIC	?JGPGetCharList@@YAXPAE@Z			; JGPGetCharList
EXTRN	?DataSend@@YAHHPAEK@Z:PROC			; DataSend
EXTRN	?ZtConfig@@3VcZtConfigs@@A:BYTE			; ZtConfig
EXTRN	?LevelSmallConvert@@YAEH@Z:PROC			; LevelSmallConvert
EXTRN	?IsPet@CPetZt@@QAE_NH@Z:PROC			; CPetZt::IsPet
EXTRN	?g_PetZt@@3VCPetZt@@A:BYTE			; g_PetZt
EXTRN	?Player@CBanSystem@@QAE_NH@Z:PROC		; CBanSystem::Player
EXTRN	?CheckUser@CZtLicense@@QAE_NH@Z:PROC		; CZtLicense::CheckUser
EXTRN	?CloseClient@@YAXH@Z:PROC			; CloseClient
EXTRN	?gObj@@3PAUOBJECTSTRUCT@@A:DWORD		; gObj
EXTRN	?gObjIsAccontConnect@@YAHHPAD@Z:PROC		; gObjIsAccontConnect
EXTRN	_memset:PROC
;	COMDAT ??_C@_0DI@OHFHMHBN@Requested?5character?5list?5doesn?8t@
; File e:\work\tranet_version\gs\include\prodef.h
CONST	SEGMENT
??_C@_0DI@OHFHMHBN@Requested?5character?5list?5doesn?8t@ DB 'Requested ch'
	DB	'aracter list doesn''t match the user. (%s)%s', 00H ; `string'
; Function compile flags: /Ogtp
; File e:\work\tranet_version\gs\gameserver\dsprotocol.cpp
CONST	ENDS
;	COMDAT ?JGPGetCharList@@YAXPAE@Z
_TEXT	SEGMENT
$T231225 = -388						; size = 4
_aIndex$ = -384						; size = 4
_n$227923 = -380					; size = 4
_lOfs$ = -376						; size = 4
_HightLevel$ = -372					; size = 4
tv2026 = -368						; size = 4
_pMsg$ = -364						; size = 5
_lsOfs$ = -356						; size = 4
_pCLCount$ = -352					; size = 8
_TempInventory$ = -344					; size = 24
tv2277 = -317						; size = 1
_levelindex$228030 = -316				; size = 4
_pCList$ = -312						; size = 34
_GenerableClass$ = -274					; size = 1
tv856 = -273						; size = 1
tv831 = -273						; size = 1
tv811 = -273						; size = 1
tv790 = -273						; size = 1
tv766 = -273						; size = 1
_index$ = -273						; size = 1
_sendbuf$ = -272					; size = 256
_szId$ = -16						; size = 11
__$ArrayPad$ = -4					; size = 4
_lpRecv$ = 8						; size = 4
?JGPGetCharList@@YAXPAE@Z PROC				; JGPGetCharList, COMDAT

; 886  : {

  00000	55		 push	 ebp
  00001	8b ec		 mov	 ebp, esp
  00003	81 ec 84 01 00
	00		 sub	 esp, 388		; 00000184H
  00009	a1 00 00 00 00	 mov	 eax, DWORD PTR ___security_cookie
  0000e	33 c5		 xor	 eax, ebp
  00010	89 45 fc	 mov	 DWORD PTR __$ArrayPad$[ebp], eax
  00013	53		 push	 ebx
  00014	8b 5d 08	 mov	 ebx, DWORD PTR _lpRecv$[ebp]

; 887  : 	SDHP_CHARLISTCOUNT * lpCount = (SDHP_CHARLISTCOUNT *)lpRecv;
; 888  : 	SDHP_CHARLIST * lpCL;
; 889  : 	char szId[MAX_ACCOUNT_LEN+1];
; 890  : 	BYTE sendbuf[256];
; 891  : 	int lOfs = 0;
; 892  : 	int lsOfs = sizeof(SDHP_CHARLISTCOUNT);
; 893  : 	int aIndex = lpCount->Number;
; 894  : 	BYTE index;
; 895  : 	PMSG_CHARLISTCOUNT pCLCount;	// Packet Char List Count 7
; 896  : 	PMSG_CHARLIST pCList;
; 897  : 	WORD TempInventory[12];
; 898  : 	BYTE btExcellentOption;
; 899  : 
; 900  : 	pCLCount.h.c		= 0xC1;
; 901  : 	pCLCount.h.headcode = 0xF3;
; 902  : 	pCLCount.subcode	= 0x00;
; 903  : 	pCLCount.Count		= lpCount->Count;
; 904  : 
; 905  : #if(DEBUG_CODE)
; 906  : 	LogAddC(2,"pCLCount.Count: %d",pCLCount.Count);
; 907  : #endif
; 908  : 
; 909  : 	szId[MAX_ACCOUNT_LEN] = 0;
; 910  : 	memcpy(szId, lpCount->AccountId, MAX_ACCOUNT_LEN);

  00017	8b 4b 0d	 mov	 ecx, DWORD PTR [ebx+13]
  0001a	8a 43 06	 mov	 al, BYTE PTR [ebx+6]
  0001d	8b 53 11	 mov	 edx, DWORD PTR [ebx+17]
  00020	56		 push	 esi
  00021	0f bf 73 04	 movsx	 esi, WORD PTR [ebx+4]
  00025	89 4d f0	 mov	 DWORD PTR _szId$[ebp], ecx

; 911  : 
; 912  : 	if(gObjIsAccontConnect(aIndex, szId) == FALSE)

  00028	8d 4d f0	 lea	 ecx, DWORD PTR _szId$[ebp]
  0002b	88 85 a6 fe ff
	ff		 mov	 BYTE PTR _pCLCount$[ebp+6], al
  00031	66 8b 43 15	 mov	 ax, WORD PTR [ebx+21]
  00035	51		 push	 ecx
  00036	56		 push	 esi
  00037	c7 85 9c fe ff
	ff 1c 00 00 00	 mov	 DWORD PTR _lsOfs$[ebp], 28 ; 0000001cH
  00041	89 b5 80 fe ff
	ff		 mov	 DWORD PTR _aIndex$[ebp], esi
  00047	c6 85 a0 fe ff
	ff c1		 mov	 BYTE PTR _pCLCount$[ebp], 193 ; 000000c1H
  0004e	66 c7 85 a2 fe
	ff ff f3 00	 mov	 WORD PTR _pCLCount$[ebp+2], 243 ; 000000f3H
  00057	c6 45 fa 00	 mov	 BYTE PTR _szId$[ebp+10], 0
  0005b	89 55 f4	 mov	 DWORD PTR _szId$[ebp+4], edx
  0005e	66 89 45 f8	 mov	 WORD PTR _szId$[ebp+8], ax
  00062	e8 00 00 00 00	 call	 ?gObjIsAccontConnect@@YAHHPAD@Z ; gObjIsAccontConnect

; 913  : 	{
; 914  : 		LogAddC(2, "Requested character list doesn't match the user. (%s)%s", gObj[aIndex].AccountID, szId);

  00067	8b 0d 00 00 00
	00		 mov	 ecx, DWORD PTR ?gObj@@3PAUOBJECTSTRUCT@@A ; gObj
  0006d	83 c4 08	 add	 esp, 8
  00070	85 c0		 test	 eax, eax
  00072	75 37		 jne	 SHORT $LN86@JGPGetChar
  00074	8b c6		 mov	 eax, esi
  00076	69 c0 50 2b 00
	00		 imul	 eax, 11088		; 00002b50H
  0007c	8d 55 f0	 lea	 edx, DWORD PTR _szId$[ebp]
  0007f	52		 push	 edx
  00080	8d 54 08 6c	 lea	 edx, DWORD PTR [eax+ecx+108]
  00084	52		 push	 edx
  00085	68 00 00 00 00	 push	 OFFSET ??_C@_0DI@OHFHMHBN@Requested?5character?5list?5doesn?8t@
  0008a	6a 02		 push	 2
  0008c	ff 15 00 00 00
	00		 call	 DWORD PTR ?LogAddC@@3P6AXEPADZZA ; LogAddC

; 915  : 		CloseClient(aIndex);

  00092	56		 push	 esi
  00093	e8 00 00 00 00	 call	 ?CloseClient@@YAXH@Z	; CloseClient
  00098	83 c4 14	 add	 esp, 20			; 00000014H
  0009b	5e		 pop	 esi
  0009c	5b		 pop	 ebx

; 1372 : 
; 1373 : 	//g_ZtUser.GCDataClient(aIndex);
; 1374 : #if(SYSTEM_ACHIEVEMENTS)
; 1375 : 	//g_Achievements.GCSettingsData(aIndex);
; 1376 : #endif
; 1377 : }

  0009d	8b 4d fc	 mov	 ecx, DWORD PTR __$ArrayPad$[ebp]
  000a0	33 cd		 xor	 ecx, ebp
  000a2	e8 00 00 00 00	 call	 @__security_check_cookie@4
  000a7	8b e5		 mov	 esp, ebp
  000a9	5d		 pop	 ebp
  000aa	c3		 ret	 0
$LN86@JGPGetChar:

; 916  : 		return;
; 917  : 	}
; 918  : 
; 919  : 	gObj[aIndex].Magumsa		= lpCount->Magumsa;

  000ab	0f b6 43 0c	 movzx	 eax, BYTE PTR [ebx+12]
  000af	69 f6 50 2b 00
	00		 imul	 esi, 11088		; 00002b50H
  000b5	88 44 0e 34	 mov	 BYTE PTR [esi+ecx+52], al

; 920  : 	pCLCount.MaxClass			= lpCount->Magumsa + 2;
; 921  : 	pCLCount.MaxClass			+= 1;
; 922  : 	pCLCount.MoveCnt			= lpCount->MoveCnt;

  000b9	0f b6 43 18	 movzx	 eax, BYTE PTR [ebx+24]
  000bd	8a 53 0c	 mov	 dl, BYTE PTR [ebx+12]
  000c0	80 c2 03	 add	 dl, 3
  000c3	88 85 a5 fe ff
	ff		 mov	 BYTE PTR _pCLCount$[ebp+5], al

; 923  : 	// ----
; 924  : #ifdef ZTPINV
; 925  : #ifdef DEBUG_CODE
; 926  : 	LogAddC(2, "lpCount->ZtpandedWarehouse: %d", lpCount->ZtpandedWarehouse);
; 927  : 	
; 928  : #endif
; 929  : 
; 930  : 	#if(!ZTTEAM_GAMECLIENT_DEV)
; 931  : 	pCLCount.ZtpandedWarehouse		= lpCount->ZtpandedWarehouse;

  000c9	8a 43 19	 mov	 al, BYTE PTR [ebx+25]
  000cc	84 c0		 test	 al, al
  000ce	0f 95 c1	 setne	 cl
  000d1	88 95 a4 fe ff
	ff		 mov	 BYTE PTR _pCLCount$[ebp+4], dl

; 932  : 	#endif
; 933  : 	gObj[aIndex].ZtpandedWarehouse	= lpCount->ZtpandedWarehouse;

  000d7	8b 15 00 00 00
	00		 mov	 edx, DWORD PTR ?gObj@@3PAUOBJECTSTRUCT@@A ; gObj
  000dd	88 8d a7 fe ff
	ff		 mov	 BYTE PTR _pCLCount$[ebp+7], cl

; 934  : #endif
; 935  : 
; 936  : 	if(g_ZtLicense.CheckUser(NSGames))

  000e3	6a 51		 push	 81			; 00000051H
  000e5	b9 00 00 00 00	 mov	 ecx, OFFSET ?g_ZtLicense@@3VCZtLicense@@A ; g_ZtLicense
  000ea	89 b5 90 fe ff
	ff		 mov	 DWORD PTR tv2026[ebp], esi
  000f0	88 84 16 25 26
	00 00		 mov	 BYTE PTR [esi+edx+9765], al
  000f7	e8 00 00 00 00	 call	 ?CheckUser@CZtLicense@@QAE_NH@Z ; CZtLicense::CheckUser
  000fc	84 c0		 test	 al, al
  000fe	74 0d		 je	 SHORT $LN85@JGPGetChar

; 937  : 	{
; 938  : 		gObj[aIndex].ZtpandedWarehouse = 1;

  00100	a1 00 00 00 00	 mov	 eax, DWORD PTR ?gObj@@3PAUOBJECTSTRUCT@@A ; gObj
  00105	c6 84 06 25 26
	00 00 01	 mov	 BYTE PTR [esi+eax+9765], 1
$LN85@JGPGetChar:

; 939  : 	}
; 940  : 
; 941  : 	memset(sendbuf, 0, sizeof(sendbuf));

  0010d	68 00 01 00 00	 push	 256			; 00000100H
  00112	8d 8d f0 fe ff
	ff		 lea	 ecx, DWORD PTR _sendbuf$[ebp]
  00118	6a 00		 push	 0
  0011a	51		 push	 ecx
  0011b	e8 00 00 00 00	 call	 _memset
  00120	83 c4 0c	 add	 esp, 12			; 0000000cH

; 942  : 	lOfs += sizeof(PMSG_CHARLISTCOUNT);
; 943  : 
; 944  : #ifdef CHARCREATE_TEMP
; 945  : 	int HightLevel		= 0;
; 946  : 	BYTE GenerableClass = 0;
; 947  : #endif
; 948  : 
; 949  : 	if( pCLCount.Count > 0 )

  00123	80 bd a6 fe ff
	ff 00		 cmp	 BYTE PTR _pCLCount$[ebp+6], 0
  0012a	c7 85 88 fe ff
	ff 08 00 00 00	 mov	 DWORD PTR _lOfs$[ebp], 8
  00134	c7 85 8c fe ff
	ff 00 00 00 00	 mov	 DWORD PTR _HightLevel$[ebp], 0
  0013e	c6 85 ee fe ff
	ff 00		 mov	 BYTE PTR _GenerableClass$[ebp], 0
  00145	0f 86 54 0b 00
	00		 jbe	 $LN81@JGPGetChar

; 950  : 	{
; 951  : 		for ( int n=0;n<pCLCount.Count ;n++)

  0014b	0f b6 85 a6 fe
	ff ff		 movzx	 eax, BYTE PTR _pCLCount$[ebp+6]
  00152	c7 85 84 fe ff
	ff 00 00 00 00	 mov	 DWORD PTR _n$227923[ebp], 0
  0015c	89 85 7c fe ff
	ff		 mov	 DWORD PTR $T231225[ebp], eax
  00162	85 c0		 test	 eax, eax
  00164	0f 8e 35 0b 00
	00		 jle	 $LN81@JGPGetChar
  0016a	57		 push	 edi
  0016b	eb 03 8d 49 00	 npad	 5
$LL83@JGPGetChar:

; 952  : 		{
; 953  : 			memset(&pCList, 0, sizeof(pCList));
; 954  : 			lpCL = (SDHP_CHARLIST *)&lpRecv[lsOfs];
; 955  : #ifdef CHARCREATE_TEMP
; 956  : 			if( lpCL->Level > HightLevel )

  00170	8b b5 9c fe ff
	ff		 mov	 esi, DWORD PTR _lsOfs$[ebp]
  00176	33 c0		 xor	 eax, eax
  00178	89 85 c8 fe ff
	ff		 mov	 DWORD PTR _pCList$[ebp], eax
  0017e	89 85 cc fe ff
	ff		 mov	 DWORD PTR _pCList$[ebp+4], eax
  00184	89 85 d0 fe ff
	ff		 mov	 DWORD PTR _pCList$[ebp+8], eax
  0018a	89 85 d4 fe ff
	ff		 mov	 DWORD PTR _pCList$[ebp+12], eax
  00190	89 85 d8 fe ff
	ff		 mov	 DWORD PTR _pCList$[ebp+16], eax
  00196	89 85 dc fe ff
	ff		 mov	 DWORD PTR _pCList$[ebp+20], eax
  0019c	89 85 e0 fe ff
	ff		 mov	 DWORD PTR _pCList$[ebp+24], eax
  001a2	89 85 e4 fe ff
	ff		 mov	 DWORD PTR _pCList$[ebp+28], eax
  001a8	66 89 85 e8 fe
	ff ff		 mov	 WORD PTR _pCList$[ebp+32], ax
  001af	0f b7 44 33 0c	 movzx	 eax, WORD PTR [ebx+esi+12]
  001b4	8b c8		 mov	 ecx, eax
  001b6	3b 8d 8c fe ff
	ff		 cmp	 ecx, DWORD PTR _HightLevel$[ebp]
  001bc	7e 06		 jle	 SHORT $LN80@JGPGetChar

; 957  : 			{
; 958  : 				HightLevel = lpCL->Level;

  001be	89 8d 8c fe ff
	ff		 mov	 DWORD PTR _HightLevel$[ebp], ecx
$LN80@JGPGetChar:

; 959  : 			}
; 960  : #endif
; 961  : 			pCList.Index = lpCL->Index;

  001c4	8a 14 33	 mov	 dl, BYTE PTR [ebx+esi]

; 962  : 			pCList.Level = lpCL->Level;
; 963  : 			pCList.CtlCode = lpCL->CtlCode;
; 964  : 			pCList.btGuildStatus = lpCL->btGuildStatus;

  001c7	8a 4c 33 41	 mov	 cl, BYTE PTR [ebx+esi+65]
  001cb	66 89 85 d4 fe
	ff ff		 mov	 WORD PTR _pCList$[ebp+12], ax
  001d2	8a 44 33 0f	 mov	 al, BYTE PTR [ebx+esi+15]
  001d6	88 95 c8 fe ff
	ff		 mov	 BYTE PTR _pCList$[ebp], dl

; 965  : 
; 966  : 			if ( gObj[aIndex].m_cAccountItemBlock != 0 )

  001dc	8b 15 00 00 00
	00		 mov	 edx, DWORD PTR ?gObj@@3PAUOBJECTSTRUCT@@A ; gObj
  001e2	88 85 d6 fe ff
	ff		 mov	 BYTE PTR _pCList$[ebp+14], al
  001e8	8b 85 90 fe ff
	ff		 mov	 eax, DWORD PTR tv2026[ebp]
  001ee	80 bc 02 14 02
	00 00 00	 cmp	 BYTE PTR [edx+eax+532], 0
  001f6	88 8d e9 fe ff
	ff		 mov	 BYTE PTR _pCList$[ebp+33], cl
  001fc	74 07		 je	 SHORT $LN79@JGPGetChar

; 967  : 				pCList.CtlCode |= 0x10;	// Set Block Item

  001fe	80 8d d6 fe ff
	ff 10		 or	 BYTE PTR _pCList$[ebp+14], 16 ; 00000010H
$LN79@JGPGetChar:

; 968  : 
; 969  : 			#if(DEV_BANSYSTEM)
; 970  : 			if(!g_BanSystem.Player(aIndex))

  00205	8b 8d 80 fe ff
	ff		 mov	 ecx, DWORD PTR _aIndex$[ebp]
  0020b	51		 push	 ecx
  0020c	b9 00 00 00 00	 mov	 ecx, OFFSET ?g_BanSystem@@3VCBanSystem@@A ; g_BanSystem
  00211	e8 00 00 00 00	 call	 ?Player@CBanSystem@@QAE_NH@Z ; CBanSystem::Player
  00216	84 c0		 test	 al, al
  00218	75 07		 jne	 SHORT $LN78@JGPGetChar

; 971  : 			{
; 972  : 				pCList.CtlCode = 0x01;

  0021a	c6 85 d6 fe ff
	ff 01		 mov	 BYTE PTR _pCList$[ebp+14], 1
$LN78@JGPGetChar:

; 973  : 			}
; 974  : 			#endif
; 975  : 
; 976  : 			memcpy(pCList.Name, lpCL->Name, MAX_ACCOUNT_LEN);

  00221	66 8b 4c 33 09	 mov	 cx, WORD PTR [ebx+esi+9]
  00226	8b 44 33 05	 mov	 eax, DWORD PTR [ebx+esi+5]
  0022a	8b 54 33 01	 mov	 edx, DWORD PTR [ebx+esi+1]
  0022e	89 85 cd fe ff
	ff		 mov	 DWORD PTR _pCList$[ebp+5], eax
  00234	66 89 8d d1 fe
	ff ff		 mov	 WORD PTR _pCList$[ebp+9], cx

; 977  : 
; 978  : 			pCList.CharSet[CS_CLASS] = CS_GET_CLASS(lpCL->Class);
; 979  : 			int changeup = CS_GET_CHANGEUP(lpCL->Class);

  0023b	8a 4c 33 0e	 mov	 cl, BYTE PTR [ebx+esi+14]
  0023f	89 95 c9 fe ff
	ff		 mov	 DWORD PTR _pCList$[ebp+1], edx
  00245	0f b6 c1	 movzx	 eax, cl
  00248	83 e0 07	 and	 eax, 7

; 980  : 			pCList.CharSet[CS_CLASS] |= CS_SET_CHANGEUP(changeup);
; 981  : 			pCList.CharSet[CS_CLASS] |= CS_GET_MASTERCLASS(changeup);

  0024b	8a d0		 mov	 dl, al
  0024d	80 e2 01	 and	 dl, 1
  00250	02 d2		 add	 dl, dl
  00252	02 d2		 add	 dl, dl
  00254	24 02		 and	 al, 2
  00256	0a d0		 or	 dl, al

; 982  : 
; 983  : 			pCList.CharSet[9] = 0;
; 984  : 
; 985  : 			if ( lpCL->dbInventory[0] == (BYTE)-1 && (lpCL->dbInventory[2] & 0x80) == 0x80 && (lpCL->dbInventory[3]& 0xF0) == 0xF0  )

  00258	8a 44 33 10	 mov	 al, BYTE PTR [ebx+esi+16]
  0025c	02 d2		 add	 dl, dl
  0025e	80 e1 f0	 and	 cl, 240			; 000000f0H
  00261	0a d1		 or	 dl, cl
  00263	02 d2		 add	 dl, dl
  00265	88 95 d7 fe ff
	ff		 mov	 BYTE PTR _pCList$[ebp+15], dl
  0026b	3c ff		 cmp	 al, 255			; 000000ffH
  0026d	75 21		 jne	 SHORT $LN77@JGPGetChar
  0026f	f6 44 33 12 80	 test	 BYTE PTR [ebx+esi+18], 128 ; 00000080H
  00274	74 1a		 je	 SHORT $LN77@JGPGetChar
  00276	8a 4c 33 13	 mov	 cl, BYTE PTR [ebx+esi+19]
  0027a	80 e1 f0	 and	 cl, 240			; 000000f0H
  0027d	80 f9 f0	 cmp	 cl, 240			; 000000f0H
  00280	75 0e		 jne	 SHORT $LN77@JGPGetChar

; 986  : 			{
; 987  : 				TempInventory[0] = -1;

  00282	ba ff ff 00 00	 mov	 edx, 65535		; 0000ffffH
  00287	66 89 95 a8 fe
	ff ff		 mov	 WORD PTR _TempInventory$[ebp], dx

; 988  : 			}
; 989  : 			else

  0028e	eb 2e		 jmp	 SHORT $LN76@JGPGetChar
$LN77@JGPGetChar:

; 990  : 			{
; 991  : 				TempInventory[0] = (lpCL->dbInventory[0] + (lpCL->dbInventory[2]&0x80)*2)+ (lpCL->dbInventory[3]&0xF0)*32;

  00290	8a 4c 33 13	 mov	 cl, BYTE PTR [ebx+esi+19]
  00294	80 e1 f0	 and	 cl, 240			; 000000f0H
  00297	0f b6 d1	 movzx	 edx, cl
  0029a	66 c1 e2 04	 shl	 dx, 4
  0029e	66 8b ca	 mov	 cx, dx
  002a1	8a 54 33 12	 mov	 dl, BYTE PTR [ebx+esi+18]
  002a5	80 e2 80	 and	 dl, 128			; 00000080H
  002a8	0f b6 d2	 movzx	 edx, dl
  002ab	66 03 ca	 add	 cx, dx
  002ae	0f b6 c0	 movzx	 eax, al
  002b1	66 03 c9	 add	 cx, cx
  002b4	66 03 c8	 add	 cx, ax
  002b7	66 89 8d a8 fe
	ff ff		 mov	 WORD PTR _TempInventory$[ebp], cx
$LN76@JGPGetChar:

; 992  : 			}
; 993  : 			if ( lpCL->dbInventory[4] == (BYTE)-1 && (lpCL->dbInventory[6]& 0x80) == 0x80 && (lpCL->dbInventory[7]& 0xF0) == 0xF0  )

  002be	8a 4c 33 14	 mov	 cl, BYTE PTR [ebx+esi+20]
  002c2	80 f9 ff	 cmp	 cl, 255			; 000000ffH
  002c5	75 1a		 jne	 SHORT $LN75@JGPGetChar
  002c7	f6 44 33 16 80	 test	 BYTE PTR [ebx+esi+22], 128 ; 00000080H
  002cc	74 13		 je	 SHORT $LN75@JGPGetChar
  002ce	8a 54 33 17	 mov	 dl, BYTE PTR [ebx+esi+23]
  002d2	80 e2 f0	 and	 dl, 240			; 000000f0H
  002d5	80 fa f0	 cmp	 dl, 240			; 000000f0H
  002d8	75 07		 jne	 SHORT $LN75@JGPGetChar

; 994  : 			{
; 995  : 				TempInventory[1] = -1;

  002da	b8 ff ff 00 00	 mov	 eax, 65535		; 0000ffffH

; 996  : 			}
; 997  : 			else

  002df	eb 26		 jmp	 SHORT $LN129@JGPGetChar
$LN75@JGPGetChar:

; 998  : 			{
; 999  : 				TempInventory[1] = (lpCL->dbInventory[4] + (lpCL->dbInventory[6]&0x80)*2)+ (lpCL->dbInventory[7]&0xF0)*32;

  002e1	0f b6 54 33 17	 movzx	 edx, BYTE PTR [ebx+esi+23]
  002e6	80 e2 f0	 and	 dl, 240			; 000000f0H
  002e9	0f b6 c2	 movzx	 eax, dl
  002ec	0f b6 54 33 16	 movzx	 edx, BYTE PTR [ebx+esi+22]
  002f1	80 e2 80	 and	 dl, 128			; 00000080H
  002f4	66 c1 e0 04	 shl	 ax, 4
  002f8	0f b6 d2	 movzx	 edx, dl
  002fb	66 03 c2	 add	 ax, dx
  002fe	0f b6 c9	 movzx	 ecx, cl
  00301	66 03 c0	 add	 ax, ax
  00304	66 03 c1	 add	 ax, cx
$LN129@JGPGetChar:
  00307	66 89 85 aa fe
	ff ff		 mov	 WORD PTR _TempInventory$[ebp+2], ax

; 1000 : 			}
; 1001 : 			if ( lpCL->dbInventory[8] == (BYTE)-1 && (lpCL->dbInventory[10]& 0x80) == 0x80 && (lpCL->dbInventory[11]& 0xF0) == 0xF0  )

  0030e	8a 44 33 18	 mov	 al, BYTE PTR [ebx+esi+24]
  00312	3c ff		 cmp	 al, 255			; 000000ffH
  00314	75 21		 jne	 SHORT $LN73@JGPGetChar
  00316	f6 44 33 1a 80	 test	 BYTE PTR [ebx+esi+26], 128 ; 00000080H
  0031b	74 1a		 je	 SHORT $LN73@JGPGetChar
  0031d	8a 54 33 1b	 mov	 dl, BYTE PTR [ebx+esi+27]
  00321	80 e2 f0	 and	 dl, 240			; 000000f0H
  00324	80 fa f0	 cmp	 dl, 240			; 000000f0H
  00327	75 0e		 jne	 SHORT $LN73@JGPGetChar

; 1002 : 			{
; 1003 : 				TempInventory[2] = 0x1FF;

  00329	b8 ff 01 00 00	 mov	 eax, 511		; 000001ffH
  0032e	66 89 85 ac fe
	ff ff		 mov	 WORD PTR _TempInventory$[ebp+4], ax

; 1004 : 			}
; 1005 : 			else

  00335	eb 38		 jmp	 SHORT $LN72@JGPGetChar
$LN73@JGPGetChar:

; 1006 : 			{
; 1007 : 				TempInventory[2] = ((lpCL->dbInventory[8] + (lpCL->dbInventory[10]&0x80)*2)+ (lpCL->dbInventory[11]&0xF0)*32)%MAX_SUBTYPE_ITEMS;

  00337	0f b6 4c 33 1b	 movzx	 ecx, BYTE PTR [ebx+esi+27]
  0033c	0f b6 54 33 1a	 movzx	 edx, BYTE PTR [ebx+esi+26]
  00341	81 e1 f0 00 00
	00		 and	 ecx, 240		; 000000f0H
  00347	c1 e1 04	 shl	 ecx, 4
  0034a	81 e2 80 00 00
	00		 and	 edx, 128		; 00000080H
  00350	0f b6 c0	 movzx	 eax, al
  00353	03 ca		 add	 ecx, edx
  00355	8d 0c 48	 lea	 ecx, DWORD PTR [eax+ecx*2]
  00358	81 e1 ff 01 00
	80		 and	 ecx, -2147483137	; 800001ffH
  0035e	79 08		 jns	 SHORT $LN120@JGPGetChar
  00360	49		 dec	 ecx
  00361	81 c9 00 fe ff
	ff		 or	 ecx, -512		; fffffe00H
  00367	41		 inc	 ecx
$LN120@JGPGetChar:
  00368	66 89 8d ac fe
	ff ff		 mov	 WORD PTR _TempInventory$[ebp+4], cx
$LN72@JGPGetChar:

; 1008 : 			}
; 1009 : 			if ( lpCL->dbInventory[12] == (BYTE)-1 && (lpCL->dbInventory[14]& 0x80) == 0x80 && (lpCL->dbInventory[15]& 0xF0) == 0xF0  )

  0036f	8a 44 33 1c	 mov	 al, BYTE PTR [ebx+esi+28]
  00373	3c ff		 cmp	 al, 255			; 000000ffH
  00375	75 21		 jne	 SHORT $LN71@JGPGetChar
  00377	f6 44 33 1e 80	 test	 BYTE PTR [ebx+esi+30], 128 ; 00000080H
  0037c	74 1a		 je	 SHORT $LN71@JGPGetChar
  0037e	8a 54 33 1f	 mov	 dl, BYTE PTR [ebx+esi+31]
  00382	80 e2 f0	 and	 dl, 240			; 000000f0H
  00385	80 fa f0	 cmp	 dl, 240			; 000000f0H
  00388	75 0e		 jne	 SHORT $LN71@JGPGetChar

; 1010 : 			{
; 1011 : 				TempInventory[3] = 0x1FF;

  0038a	b8 ff 01 00 00	 mov	 eax, 511		; 000001ffH
  0038f	66 89 85 ae fe
	ff ff		 mov	 WORD PTR _TempInventory$[ebp+6], ax

; 1012 : 			}
; 1013 : 			else

  00396	eb 38		 jmp	 SHORT $LN70@JGPGetChar
$LN71@JGPGetChar:

; 1014 : 			{
; 1015 : 				TempInventory[3] = ((lpCL->dbInventory[12] + (lpCL->dbInventory[14]&0x80)*2)+ (lpCL->dbInventory[15]&0xF0)*32)%MAX_SUBTYPE_ITEMS;

  00398	0f b6 4c 33 1f	 movzx	 ecx, BYTE PTR [ebx+esi+31]
  0039d	0f b6 54 33 1e	 movzx	 edx, BYTE PTR [ebx+esi+30]
  003a2	81 e1 f0 00 00
	00		 and	 ecx, 240		; 000000f0H
  003a8	c1 e1 04	 shl	 ecx, 4
  003ab	81 e2 80 00 00
	00		 and	 edx, 128		; 00000080H
  003b1	0f b6 c0	 movzx	 eax, al
  003b4	03 ca		 add	 ecx, edx
  003b6	8d 0c 48	 lea	 ecx, DWORD PTR [eax+ecx*2]
  003b9	81 e1 ff 01 00
	80		 and	 ecx, -2147483137	; 800001ffH
  003bf	79 08		 jns	 SHORT $LN121@JGPGetChar
  003c1	49		 dec	 ecx
  003c2	81 c9 00 fe ff
	ff		 or	 ecx, -512		; fffffe00H
  003c8	41		 inc	 ecx
$LN121@JGPGetChar:
  003c9	66 89 8d ae fe
	ff ff		 mov	 WORD PTR _TempInventory$[ebp+6], cx
$LN70@JGPGetChar:

; 1016 : 			}
; 1017 : 			if ( lpCL->dbInventory[16] == (BYTE)-1 && (lpCL->dbInventory[18]& 0x80) == 0x80 && (lpCL->dbInventory[19]& 0xF0) == 0xF0  )

  003d0	8a 44 33 20	 mov	 al, BYTE PTR [ebx+esi+32]
  003d4	3c ff		 cmp	 al, 255			; 000000ffH
  003d6	75 21		 jne	 SHORT $LN69@JGPGetChar
  003d8	f6 44 33 22 80	 test	 BYTE PTR [ebx+esi+34], 128 ; 00000080H
  003dd	74 1a		 je	 SHORT $LN69@JGPGetChar
  003df	8a 54 33 23	 mov	 dl, BYTE PTR [ebx+esi+35]
  003e3	80 e2 f0	 and	 dl, 240			; 000000f0H
  003e6	80 fa f0	 cmp	 dl, 240			; 000000f0H
  003e9	75 0e		 jne	 SHORT $LN69@JGPGetChar

; 1018 : 			{
; 1019 : 				TempInventory[4] = 0x1FF;

  003eb	b8 ff 01 00 00	 mov	 eax, 511		; 000001ffH
  003f0	66 89 85 b0 fe
	ff ff		 mov	 WORD PTR _TempInventory$[ebp+8], ax

; 1020 : 			}
; 1021 : 			else

  003f7	eb 38		 jmp	 SHORT $LN68@JGPGetChar
$LN69@JGPGetChar:

; 1022 : 			{
; 1023 : 				TempInventory[4] = ((lpCL->dbInventory[16] + (lpCL->dbInventory[18]&0x80)*2)+ (lpCL->dbInventory[19]&0xF0)*32)%MAX_SUBTYPE_ITEMS;

  003f9	0f b6 4c 33 23	 movzx	 ecx, BYTE PTR [ebx+esi+35]
  003fe	0f b6 54 33 22	 movzx	 edx, BYTE PTR [ebx+esi+34]
  00403	81 e1 f0 00 00
	00		 and	 ecx, 240		; 000000f0H
  00409	c1 e1 04	 shl	 ecx, 4
  0040c	81 e2 80 00 00
	00		 and	 edx, 128		; 00000080H
  00412	0f b6 c0	 movzx	 eax, al
  00415	03 ca		 add	 ecx, edx
  00417	8d 0c 48	 lea	 ecx, DWORD PTR [eax+ecx*2]
  0041a	81 e1 ff 01 00
	80		 and	 ecx, -2147483137	; 800001ffH
  00420	79 08		 jns	 SHORT $LN122@JGPGetChar
  00422	49		 dec	 ecx
  00423	81 c9 00 fe ff
	ff		 or	 ecx, -512		; fffffe00H
  00429	41		 inc	 ecx
$LN122@JGPGetChar:
  0042a	66 89 8d b0 fe
	ff ff		 mov	 WORD PTR _TempInventory$[ebp+8], cx
$LN68@JGPGetChar:

; 1024 : 			}
; 1025 : 			if ( lpCL->dbInventory[20] == (BYTE)-1 && (lpCL->dbInventory[22]& 0x80) == 0x80 && (lpCL->dbInventory[23]& 0xF0) == 0xF0  )

  00431	8a 44 33 24	 mov	 al, BYTE PTR [ebx+esi+36]
  00435	3c ff		 cmp	 al, 255			; 000000ffH
  00437	75 21		 jne	 SHORT $LN67@JGPGetChar
  00439	f6 44 33 26 80	 test	 BYTE PTR [ebx+esi+38], 128 ; 00000080H
  0043e	74 1a		 je	 SHORT $LN67@JGPGetChar
  00440	8a 54 33 27	 mov	 dl, BYTE PTR [ebx+esi+39]
  00444	80 e2 f0	 and	 dl, 240			; 000000f0H
  00447	80 fa f0	 cmp	 dl, 240			; 000000f0H
  0044a	75 0e		 jne	 SHORT $LN67@JGPGetChar

; 1026 : 			{
; 1027 : 				TempInventory[5] = 0x1FF;

  0044c	b8 ff 01 00 00	 mov	 eax, 511		; 000001ffH
  00451	66 89 85 b2 fe
	ff ff		 mov	 WORD PTR _TempInventory$[ebp+10], ax

; 1028 : 			}
; 1029 : 			else

  00458	eb 38		 jmp	 SHORT $LN66@JGPGetChar
$LN67@JGPGetChar:

; 1030 : 			{
; 1031 : 				TempInventory[5] = ((lpCL->dbInventory[20] + (lpCL->dbInventory[22]&0x80)*2)+ (lpCL->dbInventory[23]&0xF0)*32)%MAX_SUBTYPE_ITEMS;

  0045a	0f b6 4c 33 27	 movzx	 ecx, BYTE PTR [ebx+esi+39]
  0045f	0f b6 54 33 26	 movzx	 edx, BYTE PTR [ebx+esi+38]
  00464	81 e1 f0 00 00
	00		 and	 ecx, 240		; 000000f0H
  0046a	c1 e1 04	 shl	 ecx, 4
  0046d	81 e2 80 00 00
	00		 and	 edx, 128		; 00000080H
  00473	0f b6 c0	 movzx	 eax, al
  00476	03 ca		 add	 ecx, edx
  00478	8d 0c 48	 lea	 ecx, DWORD PTR [eax+ecx*2]
  0047b	81 e1 ff 01 00
	80		 and	 ecx, -2147483137	; 800001ffH
  00481	79 08		 jns	 SHORT $LN123@JGPGetChar
  00483	49		 dec	 ecx
  00484	81 c9 00 fe ff
	ff		 or	 ecx, -512		; fffffe00H
  0048a	41		 inc	 ecx
$LN123@JGPGetChar:
  0048b	66 89 8d b2 fe
	ff ff		 mov	 WORD PTR _TempInventory$[ebp+10], cx
$LN66@JGPGetChar:

; 1032 : 			}
; 1033 : 			if ( lpCL->dbInventory[24] == (BYTE)-1 && (lpCL->dbInventory[26]& 0x80) == 0x80 && (lpCL->dbInventory[27]& 0xF0) == 0xF0  )

  00492	8a 44 33 28	 mov	 al, BYTE PTR [ebx+esi+40]
  00496	3c ff		 cmp	 al, 255			; 000000ffH
  00498	75 21		 jne	 SHORT $LN65@JGPGetChar
  0049a	f6 44 33 2a 80	 test	 BYTE PTR [ebx+esi+42], 128 ; 00000080H
  0049f	74 1a		 je	 SHORT $LN65@JGPGetChar
  004a1	8a 54 33 2b	 mov	 dl, BYTE PTR [ebx+esi+43]
  004a5	80 e2 f0	 and	 dl, 240			; 000000f0H
  004a8	80 fa f0	 cmp	 dl, 240			; 000000f0H
  004ab	75 0e		 jne	 SHORT $LN65@JGPGetChar

; 1034 : 			{
; 1035 : 				TempInventory[6] = 0x1FF;

  004ad	b8 ff 01 00 00	 mov	 eax, 511		; 000001ffH
  004b2	66 89 85 b4 fe
	ff ff		 mov	 WORD PTR _TempInventory$[ebp+12], ax

; 1036 : 			}
; 1037 : 			else

  004b9	eb 38		 jmp	 SHORT $LN64@JGPGetChar
$LN65@JGPGetChar:

; 1038 : 			{
; 1039 : 				TempInventory[6] = ((lpCL->dbInventory[24] + (lpCL->dbInventory[26]&0x80)*2)+ (lpCL->dbInventory[27]&0xF0)*32)%MAX_SUBTYPE_ITEMS;

  004bb	0f b6 4c 33 2b	 movzx	 ecx, BYTE PTR [ebx+esi+43]
  004c0	0f b6 54 33 2a	 movzx	 edx, BYTE PTR [ebx+esi+42]
  004c5	81 e1 f0 00 00
	00		 and	 ecx, 240		; 000000f0H
  004cb	c1 e1 04	 shl	 ecx, 4
  004ce	81 e2 80 00 00
	00		 and	 edx, 128		; 00000080H
  004d4	0f b6 c0	 movzx	 eax, al
  004d7	03 ca		 add	 ecx, edx
  004d9	8d 0c 48	 lea	 ecx, DWORD PTR [eax+ecx*2]
  004dc	81 e1 ff 01 00
	80		 and	 ecx, -2147483137	; 800001ffH
  004e2	79 08		 jns	 SHORT $LN124@JGPGetChar
  004e4	49		 dec	 ecx
  004e5	81 c9 00 fe ff
	ff		 or	 ecx, -512		; fffffe00H
  004eb	41		 inc	 ecx
$LN124@JGPGetChar:
  004ec	66 89 8d b4 fe
	ff ff		 mov	 WORD PTR _TempInventory$[ebp+12], cx
$LN64@JGPGetChar:

; 1040 : 			}
; 1041 : 			if ( lpCL->dbInventory[28] == (BYTE)-1 && (lpCL->dbInventory[30]& 0x80) == 0x80 && (lpCL->dbInventory[31]& 0xF0) == 0xF0  )

  004f3	8a 44 33 2c	 mov	 al, BYTE PTR [ebx+esi+44]
  004f7	3c ff		 cmp	 al, 255			; 000000ffH
  004f9	75 1a		 jne	 SHORT $LN63@JGPGetChar
  004fb	f6 44 33 2e 80	 test	 BYTE PTR [ebx+esi+46], 128 ; 00000080H
  00500	74 13		 je	 SHORT $LN63@JGPGetChar
  00502	8a 54 33 2f	 mov	 dl, BYTE PTR [ebx+esi+47]
  00506	80 e2 f0	 and	 dl, 240			; 000000f0H
  00509	80 fa f0	 cmp	 dl, 240			; 000000f0H
  0050c	75 07		 jne	 SHORT $LN63@JGPGetChar

; 1042 : 			{
; 1043 : 				TempInventory[7] = 0x1FF;

  0050e	bf ff 01 00 00	 mov	 edi, 511		; 000001ffH

; 1044 : 			}
; 1045 : 			else

  00513	eb 33		 jmp	 SHORT $LN125@JGPGetChar
$LN63@JGPGetChar:

; 1046 : 			{
; 1047 : 				TempInventory[7] = ((lpCL->dbInventory[28] + (lpCL->dbInventory[30]&0x80)*2)+ (lpCL->dbInventory[31]&0xF0)*32)%MAX_SUBTYPE_ITEMS;

  00515	0f b6 4c 33 2f	 movzx	 ecx, BYTE PTR [ebx+esi+47]
  0051a	0f b6 54 33 2e	 movzx	 edx, BYTE PTR [ebx+esi+46]
  0051f	81 e1 f0 00 00
	00		 and	 ecx, 240		; 000000f0H
  00525	c1 e1 04	 shl	 ecx, 4
  00528	81 e2 80 00 00
	00		 and	 edx, 128		; 00000080H
  0052e	0f b6 c0	 movzx	 eax, al
  00531	03 ca		 add	 ecx, edx
  00533	8d 0c 48	 lea	 ecx, DWORD PTR [eax+ecx*2]
  00536	8b f9		 mov	 edi, ecx
  00538	81 e7 ff 01 00
	80		 and	 edi, -2147483137	; 800001ffH
  0053e	79 08		 jns	 SHORT $LN125@JGPGetChar
  00540	4f		 dec	 edi
  00541	81 cf 00 fe ff
	ff		 or	 edi, -512		; fffffe00H
  00547	47		 inc	 edi
$LN125@JGPGetChar:

; 1048 : 			}
; 1049 : 			if ( lpCL->dbInventory[32] == (BYTE)-1 && (lpCL->dbInventory[34]& 0x80) == 0x80 && (lpCL->dbInventory[35]& 0xF0) == 0xF0  )

  00548	8a 4c 33 30	 mov	 cl, BYTE PTR [ebx+esi+48]
  0054c	66 89 bd b6 fe
	ff ff		 mov	 WORD PTR _TempInventory$[ebp+14], di
  00553	80 f9 ff	 cmp	 cl, 255			; 000000ffH
  00556	75 28		 jne	 SHORT $LN61@JGPGetChar
  00558	8a 44 33 32	 mov	 al, BYTE PTR [ebx+esi+50]
  0055c	88 85 c3 fe ff
	ff		 mov	 BYTE PTR tv2277[ebp], al
  00562	84 c0		 test	 al, al
  00564	79 1a		 jns	 SHORT $LN61@JGPGetChar
  00566	8a 54 33 33	 mov	 dl, BYTE PTR [ebx+esi+51]
  0056a	80 e2 f0	 and	 dl, 240			; 000000f0H
  0056d	80 fa f0	 cmp	 dl, 240			; 000000f0H
  00570	75 0e		 jne	 SHORT $LN61@JGPGetChar

; 1050 : 			{
; 1051 : 				TempInventory[8] = 0x1FF;

  00572	b8 ff 01 00 00	 mov	 eax, 511		; 000001ffH
  00577	66 89 85 b8 fe
	ff ff		 mov	 WORD PTR _TempInventory$[ebp+16], ax

; 1052 : 			}
; 1053 : 			else

  0057e	eb 3f		 jmp	 SHORT $LN60@JGPGetChar
$LN61@JGPGetChar:

; 1054 : 			{
; 1055 : 				TempInventory[8] = ((lpCL->dbInventory[32] + (lpCL->dbInventory[34]&0x80)*2)+ (lpCL->dbInventory[35]&0xF0)*32)%MAX_SUBTYPE_ITEMS;

  00580	8a 44 33 32	 mov	 al, BYTE PTR [ebx+esi+50]
  00584	0f b6 54 33 33	 movzx	 edx, BYTE PTR [ebx+esi+51]
  00589	88 85 c3 fe ff
	ff		 mov	 BYTE PTR tv2277[ebp], al
  0058f	81 e2 f0 00 00
	00		 and	 edx, 240		; 000000f0H
  00595	0f b6 c0	 movzx	 eax, al
  00598	c1 e2 04	 shl	 edx, 4
  0059b	25 80 00 00 00	 and	 eax, 128		; 00000080H
  005a0	0f b6 c9	 movzx	 ecx, cl
  005a3	03 d0		 add	 edx, eax
  005a5	8d 14 51	 lea	 edx, DWORD PTR [ecx+edx*2]
  005a8	81 e2 ff 01 00
	80		 and	 edx, -2147483137	; 800001ffH
  005ae	79 08		 jns	 SHORT $LN126@JGPGetChar
  005b0	4a		 dec	 edx
  005b1	81 ca 00 fe ff
	ff		 or	 edx, -512		; fffffe00H
  005b7	42		 inc	 edx
$LN126@JGPGetChar:
  005b8	66 89 95 b8 fe
	ff ff		 mov	 WORD PTR _TempInventory$[ebp+16], dx
$LN60@JGPGetChar:

; 1056 : 			}
; 1057 : 
; 1058 : 			pCList.CharSet[12] |= DBI_GET_TYPE(TempInventory[0]);

  005bf	8b 85 a8 fe ff
	ff		 mov	 eax, DWORD PTR _TempInventory$[ebp]

; 1059 : 			pCList.CharSet[1] = TempInventory[0] % 256;

  005c5	0f b7 8d a8 fe
	ff ff		 movzx	 ecx, WORD PTR _TempInventory$[ebp]
  005cc	c1 e8 04	 shr	 eax, 4
  005cf	24 f0		 and	 al, 240			; 000000f0H
  005d1	08 85 e3 fe ff
	ff		 or	 BYTE PTR _pCList$[ebp+27], al
  005d7	81 e1 ff 00 00
	80		 and	 ecx, -2147483393	; 800000ffH
  005dd	79 08		 jns	 SHORT $LN127@JGPGetChar
  005df	49		 dec	 ecx
  005e0	81 c9 00 ff ff
	ff		 or	 ecx, -256		; ffffff00H
  005e6	41		 inc	 ecx
$LN127@JGPGetChar:

; 1060 : 
; 1061 : 			pCList.CharSet[13] |= DBI_GET_TYPE(TempInventory[1]);

  005e7	8b 95 aa fe ff
	ff		 mov	 edx, DWORD PTR _TempInventory$[ebp+2]
  005ed	8a 85 e4 fe ff
	ff		 mov	 al, BYTE PTR _pCList$[ebp+28]
  005f3	88 8d d8 fe ff
	ff		 mov	 BYTE PTR _pCList$[ebp+16], cl

; 1062 : 			pCList.CharSet[2] = TempInventory[1] % 256;

  005f9	0f b7 8d aa fe
	ff ff		 movzx	 ecx, WORD PTR _TempInventory$[ebp+2]
  00600	c1 ea 04	 shr	 edx, 4
  00603	80 e2 f0	 and	 dl, 240			; 000000f0H
  00606	0a c2		 or	 al, dl
  00608	81 e1 ff 00 00
	80		 and	 ecx, -2147483393	; 800000ffH
  0060e	79 08		 jns	 SHORT $LN128@JGPGetChar
  00610	49		 dec	 ecx
  00611	81 c9 00 ff ff
	ff		 or	 ecx, -256		; ffffff00H
  00617	41		 inc	 ecx
$LN128@JGPGetChar:

; 1063 : 
; 1064 : 			pCList.CharSet[13] |= (int)(TempInventory[2] & 0x1E0) >> 5;

  00618	8b 95 ac fe ff
	ff		 mov	 edx, DWORD PTR _TempInventory$[ebp+4]
  0061e	c1 ea 05	 shr	 edx, 5
  00621	80 e2 0f	 and	 dl, 15			; 0000000fH
  00624	0a c2		 or	 al, dl

; 1065 : 			pCList.CharSet[9] |= (int)(TempInventory[2] & 0x10) << 3;
; 1066 : 			pCList.CharSet[3] |= (int)(TempInventory[2] & 0x0F) << 4;
; 1067 : 
; 1068 : 			pCList.CharSet[14] |= (int)(TempInventory[3] & 0x1E0) >> 1;

  00626	8b 95 ae fe ff
	ff		 mov	 edx, DWORD PTR _TempInventory$[ebp+6]
  0062c	d1 ea		 shr	 edx, 1
  0062e	88 8d d9 fe ff
	ff		 mov	 BYTE PTR _pCList$[ebp+17], cl
  00634	8a 8d ac fe ff
	ff		 mov	 cl, BYTE PTR _TempInventory$[ebp+4]
  0063a	80 e2 f0	 and	 dl, 240			; 000000f0H
  0063d	08 95 e5 fe ff
	ff		 or	 BYTE PTR _pCList$[ebp+29], dl
  00643	88 85 e4 fe ff
	ff		 mov	 BYTE PTR _pCList$[ebp+28], al
  00649	8a c1		 mov	 al, cl
  0064b	c0 e1 04	 shl	 cl, 4
  0064e	0f b6 c9	 movzx	 ecx, cl
  00651	08 8d da fe ff
	ff		 or	 BYTE PTR _pCList$[ebp+18], cl

; 1069 : 			pCList.CharSet[9] |= (int)(TempInventory[3] & 0x10) << 2;

  00657	8a 8d ae fe ff
	ff		 mov	 cl, BYTE PTR _TempInventory$[ebp+6]
  0065d	8a d1		 mov	 dl, cl
  0065f	80 e2 10	 and	 dl, 16			; 00000010H
  00662	02 d2		 add	 dl, dl
  00664	02 d2		 add	 dl, dl
  00666	24 f0		 and	 al, 240			; 000000f0H
  00668	02 c0		 add	 al, al

; 1070 : 			pCList.CharSet[3] |= (int)(TempInventory[3] & 0x0F);

  0066a	80 e1 0f	 and	 cl, 15			; 0000000fH
  0066d	02 c0		 add	 al, al
  0066f	0f b6 c9	 movzx	 ecx, cl
  00672	08 8d da fe ff
	ff		 or	 BYTE PTR _pCList$[ebp+18], cl

; 1071 : 
; 1072 : 			pCList.CharSet[14] |= (int)(TempInventory[4] & 0x1E0) >> 5;
; 1073 : 			pCList.CharSet[9] |= (int)(TempInventory[4] & 0x10) << 1;

  00678	8a 8d b0 fe ff
	ff		 mov	 cl, BYTE PTR _TempInventory$[ebp+8]
  0067e	02 c0		 add	 al, al
  00680	0a c2		 or	 al, dl
  00682	8b 95 b0 fe ff
	ff		 mov	 edx, DWORD PTR _TempInventory$[ebp+8]
  00688	c1 ea 05	 shr	 edx, 5
  0068b	80 e2 0f	 and	 dl, 15			; 0000000fH
  0068e	08 95 e5 fe ff
	ff		 or	 BYTE PTR _pCList$[ebp+29], dl
  00694	8a d1		 mov	 dl, cl
  00696	80 e2 10	 and	 dl, 16			; 00000010H
  00699	02 d2		 add	 dl, dl
  0069b	0a c2		 or	 al, dl

; 1074 : 			pCList.CharSet[4] |= (int)(TempInventory[4] & 0x0F) << 4;
; 1075 : 
; 1076 : 			pCList.CharSet[15] |= (int)(TempInventory[5] & 0x1E0) >> 1;

  0069d	8b 95 b2 fe ff
	ff		 mov	 edx, DWORD PTR _TempInventory$[ebp+10]
  006a3	c0 e1 04	 shl	 cl, 4
  006a6	d1 ea		 shr	 edx, 1
  006a8	0f b6 c9	 movzx	 ecx, cl
  006ab	08 8d db fe ff
	ff		 or	 BYTE PTR _pCList$[ebp+19], cl

; 1077 : 			pCList.CharSet[9] |= (int)(TempInventory[5] & 0x10);

  006b1	8a 8d b2 fe ff
	ff		 mov	 cl, BYTE PTR _TempInventory$[ebp+10]
  006b7	80 e2 f0	 and	 dl, 240			; 000000f0H
  006ba	08 95 e6 fe ff
	ff		 or	 BYTE PTR _pCList$[ebp+30], dl
  006c0	8a d1		 mov	 dl, cl
  006c2	80 e2 10	 and	 dl, 16			; 00000010H
  006c5	0a c2		 or	 al, dl

; 1078 : 			pCList.CharSet[4] |= (int)(TempInventory[5] & 0x0F);
; 1079 : 
; 1080 : 			pCList.CharSet[15] |= (int)(TempInventory[6] & 0x1E0) >> 5;

  006c7	8b 95 b4 fe ff
	ff		 mov	 edx, DWORD PTR _TempInventory$[ebp+12]
  006cd	80 e1 0f	 and	 cl, 15			; 0000000fH
  006d0	0f b6 c9	 movzx	 ecx, cl
  006d3	08 8d db fe ff
	ff		 or	 BYTE PTR _pCList$[ebp+19], cl

; 1081 : 			pCList.CharSet[9] |= (int)(TempInventory[6] & 0x10) >> 1;

  006d9	8a 8d b4 fe ff
	ff		 mov	 cl, BYTE PTR _TempInventory$[ebp+12]
  006df	c1 ea 05	 shr	 edx, 5
  006e2	80 e2 0f	 and	 dl, 15			; 0000000fH
  006e5	08 95 e6 fe ff
	ff		 or	 BYTE PTR _pCList$[ebp+30], dl
  006eb	8a d1		 mov	 dl, cl
  006ed	d0 ea		 shr	 dl, 1

; 1082 : 			pCList.CharSet[5] |= (int)(TempInventory[6] & 0x0F) << 4;

  006ef	c0 e1 04	 shl	 cl, 4
  006f2	80 e2 08	 and	 dl, 8
  006f5	0f b6 c9	 movzx	 ecx, cl
  006f8	08 8d dc fe ff
	ff		 or	 BYTE PTR _pCList$[ebp+20], cl
  006fe	0a c2		 or	 al, dl

; 1083 : 
; 1084 : 			index = 0;
; 1085 : 
; 1086 : 			// Wings Set
; 1087 : 			switch (TempInventory[7])

  00700	0f b7 f7	 movzx	 esi, di
  00703	32 d2		 xor	 dl, dl
  00705	88 85 e0 fe ff
	ff		 mov	 BYTE PTR _pCList$[ebp+24], al
  0070b	88 95 ef fe ff
	ff		 mov	 BYTE PTR _index$[ebp], dl
  00711	81 fe ff 01 00
	00		 cmp	 esi, 511		; 000001ffH
  00717	0f 8f e0 01 00
	00		 jg	 $LN106@JGPGetChar
  0071d	0f 84 da 01 00
	00		 je	 $LN106@JGPGetChar
  00723	81 fe 87 00 00
	00		 cmp	 esi, 135		; 00000087H
  00729	0f 87 ce 01 00
	00		 ja	 $LN106@JGPGetChar
  0072f	0f b6 8e 00 00
	00 00		 movzx	 ecx, BYTE PTR $LN104@JGPGetChar[esi]
  00736	ff 24 8d 00 00
	00 00		 jmp	 DWORD PTR $LN130@JGPGetChar[ecx*4]
$LN56@JGPGetChar:

; 1088 : 			{
; 1089 : 			case 0x1FF: // No Wings
; 1090 : 				index |= 0;
; 1091 : 				break;
; 1092 : 			case 0: // Wings of Elf
; 1093 : 				pCList.CharSet[5] |= CS_SET_WING1(1);

  0073d	80 8d dc fe ff
	ff 04		 or	 BYTE PTR _pCList$[ebp+20], 4

; 1094 : 				pCList.CharSet[9] |= 1;

  00744	0c 01		 or	 al, 1
  00746	88 85 e0 fe ff
	ff		 mov	 BYTE PTR _pCList$[ebp+24], al

; 1095 : 				break;

  0074c	e9 ac 01 00 00	 jmp	 $LN106@JGPGetChar
$LN55@JGPGetChar:

; 1096 : 			case 1: // Wings of Heaven
; 1097 : 				pCList.CharSet[5] |= CS_SET_WING1(1);

  00751	80 8d dc fe ff
	ff 04		 or	 BYTE PTR _pCList$[ebp+20], 4

; 1098 : 				pCList.CharSet[9] |= 2;

  00758	0c 02		 or	 al, 2
  0075a	88 85 e0 fe ff
	ff		 mov	 BYTE PTR _pCList$[ebp+24], al

; 1099 : 				break;

  00760	e9 98 01 00 00	 jmp	 $LN106@JGPGetChar
$LN54@JGPGetChar:

; 1100 : 			case 2: // Wings of Satan
; 1101 : 				pCList.CharSet[5] |= CS_SET_WING1(1);

  00765	80 8d dc fe ff
	ff 04		 or	 BYTE PTR _pCList$[ebp+20], 4

; 1102 : 				pCList.CharSet[9] |= 3;

  0076c	0c 03		 or	 al, 3
  0076e	88 85 e0 fe ff
	ff		 mov	 BYTE PTR _pCList$[ebp+24], al

; 1103 : 				break;

  00774	e9 84 01 00 00	 jmp	 $LN106@JGPGetChar
$LN53@JGPGetChar:

; 1104 : 			case 41:
; 1105 : 				pCList.CharSet[5] |= CS_SET_WING1(1);

  00779	80 8d dc fe ff
	ff 04		 or	 BYTE PTR _pCList$[ebp+20], 4

; 1106 : 				pCList.CharSet[9] |= 4;

  00780	0c 04		 or	 al, 4
  00782	88 85 e0 fe ff
	ff		 mov	 BYTE PTR _pCList$[ebp+24], al

; 1107 : 				break;

  00788	e9 70 01 00 00	 jmp	 $LN106@JGPGetChar
$LN52@JGPGetChar:

; 1108 : 			case 3: // Muse Elf Wings
; 1109 : 				pCList.CharSet[5] |= CS_SET_WING1(2);

  0078d	80 8d dc fe ff
	ff 08		 or	 BYTE PTR _pCList$[ebp+20], 8

; 1110 : 				pCList.CharSet[9] |= 1;

  00794	0c 01		 or	 al, 1
  00796	88 85 e0 fe ff
	ff		 mov	 BYTE PTR _pCList$[ebp+24], al

; 1111 : 				break;

  0079c	e9 5c 01 00 00	 jmp	 $LN106@JGPGetChar
$LN51@JGPGetChar:

; 1112 : 			case 4: // Soul Master Wings
; 1113 : 				pCList.CharSet[5] |= CS_SET_WING1(2);

  007a1	80 8d dc fe ff
	ff 08		 or	 BYTE PTR _pCList$[ebp+20], 8

; 1114 : 				pCList.CharSet[9] |= 2;

  007a8	0c 02		 or	 al, 2
  007aa	88 85 e0 fe ff
	ff		 mov	 BYTE PTR _pCList$[ebp+24], al

; 1115 : 				break;

  007b0	e9 48 01 00 00	 jmp	 $LN106@JGPGetChar
$LN50@JGPGetChar:

; 1116 : 			case 5: // Blade Knight Wings
; 1117 : 				pCList.CharSet[5] |= CS_SET_WING1(2);

  007b5	80 8d dc fe ff
	ff 08		 or	 BYTE PTR _pCList$[ebp+20], 8

; 1118 : 				pCList.CharSet[9] |= 3;

  007bc	0c 03		 or	 al, 3
  007be	88 85 e0 fe ff
	ff		 mov	 BYTE PTR _pCList$[ebp+24], al

; 1119 : 				break;

  007c4	e9 34 01 00 00	 jmp	 $LN106@JGPGetChar
$LN49@JGPGetChar:

; 1120 : 			case 6: // Magic Gladiator Wings
; 1121 : 				pCList.CharSet[5] |= CS_SET_WING1(2);

  007c9	80 8d dc fe ff
	ff 08		 or	 BYTE PTR _pCList$[ebp+20], 8

; 1122 : 				pCList.CharSet[9] |= 4;

  007d0	0c 04		 or	 al, 4
  007d2	88 85 e0 fe ff
	ff		 mov	 BYTE PTR _pCList$[ebp+24], al

; 1123 : 				break;

  007d8	e9 20 01 00 00	 jmp	 $LN106@JGPGetChar
$LN48@JGPGetChar:

; 1124 : 			case 30: // Cape of Lord
; 1125 : 				pCList.CharSet[5] |= CS_SET_WING1(2);

  007dd	80 8d dc fe ff
	ff 08		 or	 BYTE PTR _pCList$[ebp+20], 8

; 1126 : 				pCList.CharSet[9] |= 5;

  007e4	0c 05		 or	 al, 5
  007e6	88 85 e0 fe ff
	ff		 mov	 BYTE PTR _pCList$[ebp+24], al

; 1127 : 				break;

  007ec	e9 0c 01 00 00	 jmp	 $LN106@JGPGetChar
$LN47@JGPGetChar:

; 1128 : 			case 42: // Bloody Summoner Wings
; 1129 : 				pCList.CharSet[5] |= CS_SET_WING1(2);

  007f1	80 8d dc fe ff
	ff 08		 or	 BYTE PTR _pCList$[ebp+20], 8

; 1130 : 				pCList.CharSet[9] |= 6;

  007f8	0c 06		 or	 al, 6
  007fa	88 85 e0 fe ff
	ff		 mov	 BYTE PTR _pCList$[ebp+24], al

; 1131 : 				break;

  00800	e9 f8 00 00 00	 jmp	 $LN106@JGPGetChar
$LN46@JGPGetChar:

; 1132 : 			case 49: // Cloak of Warrior
; 1133 : 				pCList.CharSet[5] |= CS_SET_WING1(2);

  00805	80 8d dc fe ff
	ff 08		 or	 BYTE PTR _pCList$[ebp+20], 8

; 1134 : 				pCList.CharSet[9] |= 7;

  0080c	0c 07		 or	 al, 7
  0080e	88 85 e0 fe ff
	ff		 mov	 BYTE PTR _pCList$[ebp+24], al

; 1135 : 				break;

  00814	e9 e4 00 00 00	 jmp	 $LN106@JGPGetChar
$LN45@JGPGetChar:

; 1136 : 			case 36: // Blade Master Wings
; 1137 : 				pCList.CharSet[5] |= CS_SET_WING1(-1);

  00819	80 8d dc fe ff
	ff 0c		 or	 BYTE PTR _pCList$[ebp+20], 12 ; 0000000cH

; 1138 : 				pCList.CharSet[9] |= 1;

  00820	0c 01		 or	 al, 1
  00822	88 85 e0 fe ff
	ff		 mov	 BYTE PTR _pCList$[ebp+24], al

; 1139 : 				break;

  00828	e9 d0 00 00 00	 jmp	 $LN106@JGPGetChar
$LN44@JGPGetChar:

; 1140 : 			case 37: // Grand Master Wings
; 1141 : 				pCList.CharSet[5] |= CS_SET_WING1(-1);

  0082d	80 8d dc fe ff
	ff 0c		 or	 BYTE PTR _pCList$[ebp+20], 12 ; 0000000cH

; 1142 : 				pCList.CharSet[9] |= 2;

  00834	0c 02		 or	 al, 2
  00836	88 85 e0 fe ff
	ff		 mov	 BYTE PTR _pCList$[ebp+24], al

; 1143 : 				break;

  0083c	e9 bc 00 00 00	 jmp	 $LN106@JGPGetChar
$LN43@JGPGetChar:

; 1144 : 			case 38: // High Elf Wings
; 1145 : 				pCList.CharSet[5] |= CS_SET_WING1(-1);

  00841	80 8d dc fe ff
	ff 0c		 or	 BYTE PTR _pCList$[ebp+20], 12 ; 0000000cH

; 1146 : 				pCList.CharSet[9] |= 3;

  00848	0c 03		 or	 al, 3
  0084a	88 85 e0 fe ff
	ff		 mov	 BYTE PTR _pCList$[ebp+24], al

; 1147 : 				break;

  00850	e9 a8 00 00 00	 jmp	 $LN106@JGPGetChar
$LN42@JGPGetChar:

; 1148 : 			case 39: // Duel Master Wings
; 1149 : 				pCList.CharSet[5] |= CS_SET_WING1(-1);

  00855	80 8d dc fe ff
	ff 0c		 or	 BYTE PTR _pCList$[ebp+20], 12 ; 0000000cH

; 1150 : 				pCList.CharSet[9] |= 4;

  0085c	0c 04		 or	 al, 4
  0085e	88 85 e0 fe ff
	ff		 mov	 BYTE PTR _pCList$[ebp+24], al

; 1151 : 				break;

  00864	e9 94 00 00 00	 jmp	 $LN106@JGPGetChar
$LN41@JGPGetChar:

; 1152 : 			case 40: // Lord Emperor Cape
; 1153 : 				pCList.CharSet[5] |= CS_SET_WING1(-1);

  00869	80 8d dc fe ff
	ff 0c		 or	 BYTE PTR _pCList$[ebp+20], 12 ; 0000000cH

; 1154 : 				pCList.CharSet[9] |= 5;

  00870	0c 05		 or	 al, 5
  00872	88 85 e0 fe ff
	ff		 mov	 BYTE PTR _pCList$[ebp+24], al

; 1155 : 				break;

  00878	e9 80 00 00 00	 jmp	 $LN106@JGPGetChar
$LN40@JGPGetChar:

; 1156 : 			case 43: // Dimension Master Wings
; 1157 : 				pCList.CharSet[5] |= CS_SET_WING1(-1);

  0087d	80 8d dc fe ff
	ff 0c		 or	 BYTE PTR _pCList$[ebp+20], 12 ; 0000000cH

; 1158 : 				pCList.CharSet[9] |= 6;

  00884	0c 06		 or	 al, 6
  00886	88 85 e0 fe ff
	ff		 mov	 BYTE PTR _pCList$[ebp+24], al

; 1159 : 				break;

  0088c	eb 6f		 jmp	 SHORT $LN106@JGPGetChar
$LN39@JGPGetChar:

; 1160 : 			case 50: // Fist Master Cloak
; 1161 : 				pCList.CharSet[5] |= CS_SET_WING1(-1);

  0088e	80 8d dc fe ff
	ff 0c		 or	 BYTE PTR _pCList$[ebp+20], 12 ; 0000000cH

; 1162 : 				pCList.CharSet[9] |= 7;

  00895	0c 07		 or	 al, 7
  00897	88 85 e0 fe ff
	ff		 mov	 BYTE PTR _pCList$[ebp+24], al

; 1163 : 				break;

  0089d	eb 5e		 jmp	 SHORT $LN106@JGPGetChar
$LN38@JGPGetChar:

; 1164 : 			case 130: // Small Cape of Lord
; 1165 : 				pCList.CharSet[5] |= CS_SET_WING1(3);

  0089f	80 8d dc fe ff
	ff 0c		 or	 BYTE PTR _pCList$[ebp+20], 12 ; 0000000cH

; 1166 : 				pCList.CharSet[17] |= 32;

  008a6	80 8d e8 fe ff
	ff 20		 or	 BYTE PTR _pCList$[ebp+32], 32 ; 00000020H

; 1167 : 				break;

  008ad	eb 4e		 jmp	 SHORT $LN106@JGPGetChar
$LN37@JGPGetChar:

; 1168 : 			case 131: // Small Wings of Misery
; 1169 : 				pCList.CharSet[5] |= CS_SET_WING1(3);

  008af	80 8d dc fe ff
	ff 0c		 or	 BYTE PTR _pCList$[ebp+20], 12 ; 0000000cH

; 1170 : 				pCList.CharSet[17] |= 64;

  008b6	80 8d e8 fe ff
	ff 40		 or	 BYTE PTR _pCList$[ebp+32], 64 ; 00000040H

; 1171 : 				break;

  008bd	eb 3e		 jmp	 SHORT $LN106@JGPGetChar
$LN36@JGPGetChar:

; 1172 : 			case 132: // Small Wings of Elf
; 1173 : 				pCList.CharSet[5] |= CS_SET_WING1(3);

  008bf	80 8d dc fe ff
	ff 0c		 or	 BYTE PTR _pCList$[ebp+20], 12 ; 0000000cH

; 1174 : 				pCList.CharSet[17] |= 96;

  008c6	80 8d e8 fe ff
	ff 60		 or	 BYTE PTR _pCList$[ebp+32], 96 ; 00000060H

; 1175 : 				break;

  008cd	eb 2e		 jmp	 SHORT $LN106@JGPGetChar
$LN35@JGPGetChar:

; 1176 : 			case 133: // Small Wings of Heaven
; 1177 : 				pCList.CharSet[5] |= CS_SET_WING1(3);

  008cf	80 8d dc fe ff
	ff 0c		 or	 BYTE PTR _pCList$[ebp+20], 12 ; 0000000cH

; 1178 : 				pCList.CharSet[17] |= 128;

  008d6	80 8d e8 fe ff
	ff 80		 or	 BYTE PTR _pCList$[ebp+32], 128 ; 00000080H

; 1179 : 				break;

  008dd	eb 1e		 jmp	 SHORT $LN106@JGPGetChar
$LN34@JGPGetChar:

; 1180 : 			case 134: // Small Wings of Satan
; 1181 : 				pCList.CharSet[5] |= CS_SET_WING1(3);

  008df	80 8d dc fe ff
	ff 0c		 or	 BYTE PTR _pCList$[ebp+20], 12 ; 0000000cH

; 1182 : 				pCList.CharSet[17] |= 160;

  008e6	80 8d e8 fe ff
	ff a0		 or	 BYTE PTR _pCList$[ebp+32], 160 ; 000000a0H

; 1183 : 				break;

  008ed	eb 0e		 jmp	 SHORT $LN106@JGPGetChar
$LN33@JGPGetChar:

; 1184 : 			case 135: // Small Cloak of Warrior
; 1185 : 				pCList.CharSet[5] |= CS_SET_WING1(3);

  008ef	80 8d dc fe ff
	ff 0c		 or	 BYTE PTR _pCList$[ebp+20], 12 ; 0000000cH

; 1186 : 				pCList.CharSet[17] |= 192;

  008f6	80 8d e8 fe ff
	ff c0		 or	 BYTE PTR _pCList$[ebp+32], 192 ; 000000c0H
$LN106@JGPGetChar:

; 1187 : 				break;
; 1188 : 			}
; 1189 : #ifdef NEWWINGS
; 1190 : 			if( IS_NEWWINGS(TempInventory[7]+ITEMGET(12, 0)) )
; 1191 : 			{
; 1192 : 				pCList.CharSet[5]	|= CS_SET_WING1(3);
; 1193 : 				pCList.CharSet[17]	|= (BYTE)(TempInventory[7] - 180 + 1) << 2;
; 1194 : 			}
; 1195 : #endif
; 1196 : #ifdef NEWWINGS_2_5
; 1197 : 			if( IS_NEWWINGS_2_5(TempInventory[7]+ITEMGET(12, 0)) )

  008fd	8a 85 b6 fe ff
	ff		 mov	 al, BYTE PTR _TempInventory$[ebp+14]
  00903	81 c6 00 18 00
	00		 add	 esi, 6144		; 00001800H
  00909	81 fe ba 18 00
	00		 cmp	 esi, 6330		; 000018baH
  0090f	7c 29		 jl	 SHORT $LN107@JGPGetChar
  00911	33 c9		 xor	 ecx, ecx
  00913	81 fe bc 18 00
	00		 cmp	 esi, 6332		; 000018bcH
  00919	0f 9e c1	 setle	 cl
  0091c	85 c9		 test	 ecx, ecx
  0091e	74 1a		 je	 SHORT $LN107@JGPGetChar

; 1198 : 			{
; 1199 : 				pCList.CharSet[5]	|= CS_SET_WING1(3);

  00920	80 8d dc fe ff
	ff 0c		 or	 BYTE PTR _pCList$[ebp+20], 12 ; 0000000cH

; 1200 : 				pCList.CharSet[17]	|= (BYTE)(TempInventory[7] - 180 + 1) << 2;

  00927	8d 50 0d	 lea	 edx, DWORD PTR [eax+13]
  0092a	02 d2		 add	 dl, dl
  0092c	02 d2		 add	 dl, dl
  0092e	08 95 e8 fe ff
	ff		 or	 BYTE PTR _pCList$[ebp+32], dl
  00934	8a 95 ef fe ff
	ff		 mov	 dl, BYTE PTR _index$[ebp]
$LN107@JGPGetChar:

; 1201 : 			}
; 1202 : #endif
; 1203 : #ifdef NEWWINGS_4
; 1204 : 			if( IS_NEWWINGS_4(TempInventory[7]+ITEMGET(12, 0)) )

  0093a	81 fe b4 18 00
	00		 cmp	 esi, 6324		; 000018b4H
  00940	7c 29		 jl	 SHORT $LN112@JGPGetChar
  00942	33 c9		 xor	 ecx, ecx
  00944	81 fe b9 18 00
	00		 cmp	 esi, 6329		; 000018b9H
  0094a	0f 9e c1	 setle	 cl
  0094d	85 c9		 test	 ecx, ecx
  0094f	74 1a		 je	 SHORT $LN112@JGPGetChar

; 1205 : 			{
; 1206 : 				pCList.CharSet[5]	|= CS_SET_WING1(3);

  00951	80 8d dc fe ff
	ff 0c		 or	 BYTE PTR _pCList$[ebp+20], 12 ; 0000000cH

; 1207 : 				pCList.CharSet[17]	|= (BYTE)(TempInventory[7] - 180 + 1) << 2;

  00958	8a 95 ef fe ff
	ff		 mov	 dl, BYTE PTR _index$[ebp]
  0095e	8d 48 0d	 lea	 ecx, DWORD PTR [eax+13]
  00961	02 c9		 add	 cl, cl
  00963	02 c9		 add	 cl, cl
  00965	08 8d e8 fe ff
	ff		 or	 BYTE PTR _pCList$[ebp+32], cl
$LN112@JGPGetChar:

; 1208 : 			}
; 1209 : #endif
; 1210 : #ifdef NEWWINGS_5
; 1211 : 			if( IS_NEWWINGS_5(TempInventory[7]+ITEMGET(12, 0)) )

  0096b	81 fe bd 18 00
	00		 cmp	 esi, 6333		; 000018bdH
  00971	7c 29		 jl	 SHORT $LN114@JGPGetChar
  00973	33 c9		 xor	 ecx, ecx
  00975	81 fe c2 18 00
	00		 cmp	 esi, 6338		; 000018c2H
  0097b	0f 9e c1	 setle	 cl
  0097e	85 c9		 test	 ecx, ecx
  00980	74 1a		 je	 SHORT $LN114@JGPGetChar

; 1212 : 			{
; 1213 : 				pCList.CharSet[5]	|= CS_SET_WING1(3);

  00982	80 8d dc fe ff
	ff 0c		 or	 BYTE PTR _pCList$[ebp+20], 12 ; 0000000cH

; 1214 : 				pCList.CharSet[17]	|= (BYTE)(TempInventory[7] - 180 + 1) << 2;

  00989	8d 50 0d	 lea	 edx, DWORD PTR [eax+13]
  0098c	02 d2		 add	 dl, dl
  0098e	02 d2		 add	 dl, dl
  00990	08 95 e8 fe ff
	ff		 or	 BYTE PTR _pCList$[ebp+32], dl
  00996	8a 95 ef fe ff
	ff		 mov	 dl, BYTE PTR _index$[ebp]
$LN114@JGPGetChar:

; 1215 : 			}
; 1216 : #endif
; 1217 : #ifdef NEWWINGS_6
; 1218 : 			if( IS_NEWWINGS_6(TempInventory[7]+ITEMGET(12, 0)) )

  0099c	81 fe c3 18 00
	00		 cmp	 esi, 6339		; 000018c3H
  009a2	7c 22		 jl	 SHORT $LN116@JGPGetChar
  009a4	33 c9		 xor	 ecx, ecx
  009a6	81 fe dc 18 00
	00		 cmp	 esi, 6364		; 000018dcH
  009ac	0f 9e c1	 setle	 cl
  009af	85 c9		 test	 ecx, ecx
  009b1	74 13		 je	 SHORT $LN116@JGPGetChar

; 1219 : 			{
; 1220 : 				//if(g_ZtLicense.CheckUser(eZtUB::PrideMuLocal || eZtUB::PrideMu || eZtUB::Local3 || eZtUB::Local2)){
; 1221 : 			
; 1222 : 				pCList.CharSet[5]	|= CS_SET_WING1(3);

  009b3	80 8d dc fe ff
	ff 0c		 or	 BYTE PTR _pCList$[ebp+20], 12 ; 0000000cH

; 1223 : 				pCList.CharSet[17]	|= (BYTE)(TempInventory[7] - 180 + 1) << 2;

  009ba	04 0d		 add	 al, 13			; 0000000dH
  009bc	02 c0		 add	 al, al
  009be	02 c0		 add	 al, al
  009c0	08 85 e8 fe ff
	ff		 or	 BYTE PTR _pCList$[ebp+32], al
$LN116@JGPGetChar:

; 1224 : 				//}
; 1225 : 			}
; 1226 : #endif
; 1227 : 			// Pets Set
; 1228 : 			switch (TempInventory[8])

  009c6	0f b7 8d b8 fe
	ff ff		 movzx	 ecx, WORD PTR _TempInventory$[ebp+16]
  009cd	8b c1		 mov	 eax, ecx
  009cf	83 f8 43	 cmp	 eax, 67			; 00000043H
  009d2	0f 8f ad 00 00
	00		 jg	 $LN98@JGPGetChar
  009d8	0f 84 9e 00 00
	00		 je	 $LN21@JGPGetChar
  009de	83 e8 03	 sub	 eax, 3
  009e1	83 f8 3e	 cmp	 eax, 62			; 0000003eH
  009e4	0f 87 ce 00 00
	00		 ja	 $LN13@JGPGetChar
  009ea	0f b6 80 00 00
	00 00		 movzx	 eax, BYTE PTR $LN105@JGPGetChar[eax]
  009f1	ff 24 85 00 00
	00 00		 jmp	 DWORD PTR $LN131@JGPGetChar[eax*4]
$LN25@JGPGetChar:

; 1232 : 				break;
; 1233 : 			case 4: // Dark Horse
; 1234 : 				index |= CS_SET_HELPER(-1);
; 1235 : 				pCList.CharSet[12] |= 0x01;

  009f8	80 8d e3 fe ff
	ff 01		 or	 BYTE PTR _pCList$[ebp+27], 1

; 1236 : 				break;

  009ff	e9 d9 00 00 00	 jmp	 $LN26@JGPGetChar
$LN24@JGPGetChar:

; 1237 : 			case 3: // Dinorant
; 1238 : 				pCList.CharSet[10] |= 0x01;

  00a04	80 8d e1 fe ff
	ff 01		 or	 BYTE PTR _pCList$[ebp+25], 1
$LN12@JGPGetChar:

; 1239 : 				index |= (TempInventory[8] ) & 0x03;

  00a0b	8a 95 b8 fe ff
	ff		 mov	 dl, BYTE PTR _TempInventory$[ebp+16]
  00a11	80 e2 03	 and	 dl, 3

; 1240 : 				break;

  00a14	e9 c6 00 00 00	 jmp	 $LN27@JGPGetChar
$LN20@JGPGetChar:

; 1250 : 			case 64: // Demon Pet
; 1251 : 				pCList.CharSet[16] |= 0x20;

  00a19	80 8d e7 fe ff
	ff 20		 or	 BYTE PTR _pCList$[ebp+31], 32 ; 00000020H

; 1252 : 				break;

  00a20	e9 ba 00 00 00	 jmp	 $LN27@JGPGetChar
$LN19@JGPGetChar:

; 1253 : 			case 65: // Spirit of Guardian Pet
; 1254 : 				pCList.CharSet[16] |= 0x40;

  00a25	80 8d e7 fe ff
	ff 40		 or	 BYTE PTR _pCList$[ebp+31], 64 ; 00000040H

; 1255 : 				break;

  00a2c	e9 ae 00 00 00	 jmp	 $LN27@JGPGetChar
$LN17@JGPGetChar:

; 1259 : 			case 37:
; 1260 : 				index |= CS_SET_HELPER(-1);
; 1261 : 				pCList.CharSet[10] &= 0xFE;
; 1262 : 				pCList.CharSet[12] &= 0xFE;

  00a31	8a 85 e3 fe ff
	ff		 mov	 al, BYTE PTR _pCList$[ebp+27]
  00a37	80 a5 e1 fe ff
	ff fe		 and	 BYTE PTR _pCList$[ebp+25], 254 ; 000000feH
  00a3e	24 fe		 and	 al, 254			; 000000feH

; 1263 : 				pCList.CharSet[12] |= 0x04;

  00a40	0c 04		 or	 al, 4
  00a42	88 85 e3 fe ff
	ff		 mov	 BYTE PTR _pCList$[ebp+27], al

; 1264 : 				pCList.CharSet[16] = 0;
; 1265 : 				btExcellentOption = lpCL->dbInventory[34] & 0x3F;

  00a48	8a 85 c3 fe ff
	ff		 mov	 al, BYTE PTR tv2277[ebp]
  00a4e	24 3f		 and	 al, 63			; 0000003fH
  00a50	b2 03		 mov	 dl, 3
  00a52	c6 85 e7 fe ff
	ff 00		 mov	 BYTE PTR _pCList$[ebp+31], 0

; 1266 : 
; 1267 : 				if ( (btExcellentOption&1) == 1 ) // Red Fenrir

  00a59	a8 01		 test	 al, 1
  00a5b	74 07		 je	 SHORT $LN16@JGPGetChar

; 1268 : 				{
; 1269 : 					pCList.CharSet[16] |= 0x01;

  00a5d	c6 85 e7 fe ff
	ff 01		 mov	 BYTE PTR _pCList$[ebp+31], 1
$LN16@JGPGetChar:

; 1270 : 				}
; 1271 : 				if ( (btExcellentOption&2) == 2 ) // Blue Fenrir

  00a64	a8 02		 test	 al, 2
  00a66	74 07		 je	 SHORT $LN15@JGPGetChar

; 1272 : 				{
; 1273 : 					pCList.CharSet[16] |= 0x02;

  00a68	80 8d e7 fe ff
	ff 02		 or	 BYTE PTR _pCList$[ebp+31], 2
$LN15@JGPGetChar:

; 1274 : 				}
; 1275 : 				if ( (btExcellentOption&4) == 4 ) // Gold Fenrir 

  00a6f	a8 04		 test	 al, 4
  00a71	74 6c		 je	 SHORT $LN27@JGPGetChar

; 1276 : 				{
; 1277 : 					pCList.CharSet[17] |= 0x01;

  00a73	80 8d e8 fe ff
	ff 01		 or	 BYTE PTR _pCList$[ebp+32], 1

; 1278 : 				}
; 1279 : 				break;

  00a7a	eb 63		 jmp	 SHORT $LN27@JGPGetChar
$LN21@JGPGetChar:

; 1247 : 			case 67: // Rudolf Pet
; 1248 : 				pCList.CharSet[16] |= 0x80;

  00a7c	80 8d e7 fe ff
	ff 80		 or	 BYTE PTR _pCList$[ebp+31], 128 ; 00000080H

; 1249 : 				break;

  00a83	eb 5a		 jmp	 SHORT $LN27@JGPGetChar
$LN98@JGPGetChar:

; 1224 : 				//}
; 1225 : 			}
; 1226 : #endif
; 1227 : 			// Pets Set
; 1228 : 			switch (TempInventory[8])

  00a85	83 f8 7b	 cmp	 eax, 123		; 0000007bH
  00a88	7f 27		 jg	 SHORT $LN99@JGPGetChar
  00a8a	74 1c		 je	 SHORT $LN23@JGPGetChar
  00a8c	83 f8 50	 cmp	 eax, 80			; 00000050H
  00a8f	74 0e		 je	 SHORT $LN22@JGPGetChar
  00a91	83 f8 6a	 cmp	 eax, 106		; 0000006aH
  00a94	75 22		 jne	 SHORT $LN13@JGPGetChar

; 1256 : 			case 106:	//JPN Unicorn
; 1257 : 				pCList.CharSet[16] |= 0xA0;

  00a96	80 8d e7 fe ff
	ff a0		 or	 BYTE PTR _pCList$[ebp+31], 160 ; 000000a0H

; 1258 : 				break;

  00a9d	eb 40		 jmp	 SHORT $LN27@JGPGetChar
$LN22@JGPGetChar:

; 1244 : 			case 80: // Panda Pet
; 1245 : 				pCList.CharSet[16] |= 224;

  00a9f	80 8d e7 fe ff
	ff e0		 or	 BYTE PTR _pCList$[ebp+31], 224 ; 000000e0H

; 1246 : 				break;

  00aa6	eb 37		 jmp	 SHORT $LN27@JGPGetChar
$LN23@JGPGetChar:

; 1241 : 			case 123: // Skeleton Pet
; 1242 : 				pCList.CharSet[16] |= 96;

  00aa8	80 8d e7 fe ff
	ff 60		 or	 BYTE PTR _pCList$[ebp+31], 96 ; 00000060H

; 1243 : 				break;

  00aaf	eb 2e		 jmp	 SHORT $LN27@JGPGetChar
$LN99@JGPGetChar:

; 1224 : 				//}
; 1225 : 			}
; 1226 : #endif
; 1227 : 			// Pets Set
; 1228 : 			switch (TempInventory[8])

  00ab1	3d ff 01 00 00	 cmp	 eax, 511		; 000001ffH
  00ab6	74 25		 je	 SHORT $LN26@JGPGetChar
$LN13@JGPGetChar:

; 1280 : 			default:
; 1281 : 				#if(ENABLE_PETZT)
; 1282 : 				if(g_PetZt.IsPet(ITEMGET(13, TempInventory[8])))

  00ab8	81 c1 00 1a 00
	00		 add	 ecx, 6656		; 00001a00H
  00abe	51		 push	 ecx
  00abf	b9 00 00 00 00	 mov	 ecx, OFFSET ?g_PetZt@@3VCPetZt@@A ; g_PetZt
  00ac4	e8 00 00 00 00	 call	 ?IsPet@CPetZt@@QAE_NH@Z	; CPetZt::IsPet
  00ac9	84 c0		 test	 al, al
  00acb	0f 84 3a ff ff
	ff		 je	 $LN12@JGPGetChar

; 1283 : 				{
; 1284 : 					index |= CS_SET_HELPER(3);
; 1285 : 					pCList.CharSet[16] |= TempInventory[8];

  00ad1	8a 8d b8 fe ff
	ff		 mov	 cl, BYTE PTR _TempInventory$[ebp+16]
  00ad7	08 8d e7 fe ff
	ff		 or	 BYTE PTR _pCList$[ebp+31], cl
$LN26@JGPGetChar:

; 1229 : 			{
; 1230 : 			case 0x1FF:
; 1231 : 				index |= 0x03;

  00add	b2 03		 mov	 dl, 3
$LN27@JGPGetChar:

; 1286 : 					break;
; 1287 : 				}
; 1288 : 				#endif
; 1289 : 				index |= (TempInventory[8] ) & 0x03;
; 1290 : 				break;
; 1291 : 			}
; 1292 : 
; 1293 : 			pCList.CharSet[5] |= index;

  00adf	08 95 dc fe ff
	ff		 or	 BYTE PTR _pCList$[ebp+20], dl

; 1294 : 
; 1295 : 			int levelindex = 0;
; 1296 : 
; 1297 : 			if ( TempInventory[0] != (WORD)-1 )
; 1298 : 			{
; 1299 : 				levelindex = LevelSmallConvert(DBI_GET_LEVEL(lpCL->dbInventory[1]));

  00ae5	8b b5 9c fe ff
	ff		 mov	 esi, DWORD PTR _lsOfs$[ebp]
  00aeb	ba ff ff 00 00	 mov	 edx, 65535		; 0000ffffH
  00af0	c7 85 c4 fe ff
	ff 00 00 00 00	 mov	 DWORD PTR _levelindex$228030[ebp], 0
  00afa	66 39 95 a8 fe
	ff ff		 cmp	 WORD PTR _TempInventory$[ebp], dx
  00b01	74 1d		 je	 SHORT $LN11@JGPGetChar
  00b03	0f b6 44 33 11	 movzx	 eax, BYTE PTR [ebx+esi+17]
  00b08	c1 e8 03	 shr	 eax, 3
  00b0b	83 e0 0f	 and	 eax, 15			; 0000000fH
  00b0e	50		 push	 eax
  00b0f	e8 00 00 00 00	 call	 ?LevelSmallConvert@@YAEH@Z ; LevelSmallConvert
  00b14	0f b6 c8	 movzx	 ecx, al
  00b17	83 c4 04	 add	 esp, 4
  00b1a	89 8d c4 fe ff
	ff		 mov	 DWORD PTR _levelindex$228030[ebp], ecx
$LN11@JGPGetChar:

; 1300 : 			}
; 1301 : 			if ( TempInventory[1] != (WORD)-1 )

  00b20	ba ff ff 00 00	 mov	 edx, 65535		; 0000ffffH
  00b25	66 39 95 aa fe
	ff ff		 cmp	 WORD PTR _TempInventory$[ebp+2], dx
  00b2c	74 23		 je	 SHORT $LN113@JGPGetChar

; 1302 : 			{
; 1303 : 				levelindex |= (int)LevelSmallConvert(DBI_GET_LEVEL(lpCL->dbInventory[5])) << 3;

  00b2e	0f b6 44 33 15	 movzx	 eax, BYTE PTR [ebx+esi+21]
  00b33	c1 e8 03	 shr	 eax, 3
  00b36	83 e0 0f	 and	 eax, 15			; 0000000fH
  00b39	50		 push	 eax
  00b3a	e8 00 00 00 00	 call	 ?LevelSmallConvert@@YAEH@Z ; LevelSmallConvert
  00b3f	0f b6 c8	 movzx	 ecx, al
  00b42	03 c9		 add	 ecx, ecx
  00b44	03 c9		 add	 ecx, ecx
  00b46	03 c9		 add	 ecx, ecx
  00b48	83 c4 04	 add	 esp, 4
  00b4b	09 8d c4 fe ff
	ff		 or	 DWORD PTR _levelindex$228030[ebp], ecx
$LN113@JGPGetChar:

; 1304 : 			}
; 1305 : 			if ( TempInventory[2] < 0x1FF )

  00b51	ba ff 01 00 00	 mov	 edx, 511		; 000001ffH
  00b56	66 39 95 ac fe
	ff ff		 cmp	 WORD PTR _TempInventory$[ebp+4], dx
  00b5d	73 20		 jae	 SHORT $LN115@JGPGetChar

; 1306 : 			{
; 1307 : 				levelindex |= (int)LevelSmallConvert(DBI_GET_LEVEL(lpCL->dbInventory[9])) << 6;

  00b5f	0f b6 44 33 19	 movzx	 eax, BYTE PTR [ebx+esi+25]
  00b64	c1 e8 03	 shr	 eax, 3
  00b67	83 e0 0f	 and	 eax, 15			; 0000000fH
  00b6a	50		 push	 eax
  00b6b	e8 00 00 00 00	 call	 ?LevelSmallConvert@@YAEH@Z ; LevelSmallConvert
  00b70	0f b6 c8	 movzx	 ecx, al
  00b73	c1 e1 06	 shl	 ecx, 6
  00b76	83 c4 04	 add	 esp, 4
  00b79	09 8d c4 fe ff
	ff		 or	 DWORD PTR _levelindex$228030[ebp], ecx
$LN115@JGPGetChar:

; 1308 : 			}
; 1309 : 			if ( TempInventory[3] < 0x1FF )

  00b7f	ba ff 01 00 00	 mov	 edx, 511		; 000001ffH
  00b84	66 39 95 ae fe
	ff ff		 cmp	 WORD PTR _TempInventory$[ebp+6], dx
  00b8b	73 20		 jae	 SHORT $LN117@JGPGetChar

; 1310 : 			{
; 1311 : 				levelindex |= (int)LevelSmallConvert(DBI_GET_LEVEL(lpCL->dbInventory[13])) << 9;

  00b8d	0f b6 44 33 1d	 movzx	 eax, BYTE PTR [ebx+esi+29]
  00b92	c1 e8 03	 shr	 eax, 3
  00b95	83 e0 0f	 and	 eax, 15			; 0000000fH
  00b98	50		 push	 eax
  00b99	e8 00 00 00 00	 call	 ?LevelSmallConvert@@YAEH@Z ; LevelSmallConvert
  00b9e	0f b6 c8	 movzx	 ecx, al
  00ba1	c1 e1 09	 shl	 ecx, 9
  00ba4	83 c4 04	 add	 esp, 4
  00ba7	09 8d c4 fe ff
	ff		 or	 DWORD PTR _levelindex$228030[ebp], ecx
$LN117@JGPGetChar:

; 1312 : 			}
; 1313 : 			if ( TempInventory[4] < 0x1FF )

  00bad	ba ff 01 00 00	 mov	 edx, 511		; 000001ffH
  00bb2	66 39 95 b0 fe
	ff ff		 cmp	 WORD PTR _TempInventory$[ebp+8], dx
  00bb9	73 20		 jae	 SHORT $LN118@JGPGetChar

; 1314 : 			{
; 1315 : 				levelindex |= (int)LevelSmallConvert(DBI_GET_LEVEL(lpCL->dbInventory[17])) << 12;

  00bbb	0f b6 44 33 21	 movzx	 eax, BYTE PTR [ebx+esi+33]
  00bc0	c1 e8 03	 shr	 eax, 3
  00bc3	83 e0 0f	 and	 eax, 15			; 0000000fH
  00bc6	50		 push	 eax
  00bc7	e8 00 00 00 00	 call	 ?LevelSmallConvert@@YAEH@Z ; LevelSmallConvert
  00bcc	0f b6 c8	 movzx	 ecx, al
  00bcf	c1 e1 0c	 shl	 ecx, 12			; 0000000cH
  00bd2	83 c4 04	 add	 esp, 4
  00bd5	09 8d c4 fe ff
	ff		 or	 DWORD PTR _levelindex$228030[ebp], ecx
$LN118@JGPGetChar:

; 1316 : 			}
; 1317 : 			if ( TempInventory[5] < 0x1FF )

  00bdb	ba ff 01 00 00	 mov	 edx, 511		; 000001ffH
  00be0	66 39 95 b2 fe
	ff ff		 cmp	 WORD PTR _TempInventory$[ebp+10], dx
  00be7	73 20		 jae	 SHORT $LN119@JGPGetChar

; 1318 : 			{
; 1319 : 				levelindex |= (int)LevelSmallConvert(DBI_GET_LEVEL(lpCL->dbInventory[21])) << 15;

  00be9	0f b6 44 33 25	 movzx	 eax, BYTE PTR [ebx+esi+37]
  00bee	c1 e8 03	 shr	 eax, 3
  00bf1	83 e0 0f	 and	 eax, 15			; 0000000fH
  00bf4	50		 push	 eax
  00bf5	e8 00 00 00 00	 call	 ?LevelSmallConvert@@YAEH@Z ; LevelSmallConvert
  00bfa	0f b6 c8	 movzx	 ecx, al
  00bfd	c1 e1 0f	 shl	 ecx, 15			; 0000000fH
  00c00	83 c4 04	 add	 esp, 4
  00c03	09 8d c4 fe ff
	ff		 or	 DWORD PTR _levelindex$228030[ebp], ecx
$LN119@JGPGetChar:

; 1320 : 			}
; 1321 : 			if ( TempInventory[6] < 0x1FF )

  00c09	ba ff 01 00 00	 mov	 edx, 511		; 000001ffH
  00c0e	66 39 95 b4 fe
	ff ff		 cmp	 WORD PTR _TempInventory$[ebp+12], dx
  00c15	73 20		 jae	 SHORT $LN5@JGPGetChar

; 1322 : 			{
; 1323 : 				levelindex |= (int)LevelSmallConvert(DBI_GET_LEVEL(lpCL->dbInventory[25])) << 18;

  00c17	0f b6 44 33 29	 movzx	 eax, BYTE PTR [ebx+esi+41]
  00c1c	c1 e8 03	 shr	 eax, 3
  00c1f	83 e0 0f	 and	 eax, 15			; 0000000fH
  00c22	50		 push	 eax
  00c23	e8 00 00 00 00	 call	 ?LevelSmallConvert@@YAEH@Z ; LevelSmallConvert
  00c28	0f b6 c8	 movzx	 ecx, al
  00c2b	c1 e1 12	 shl	 ecx, 18			; 00000012H
  00c2e	83 c4 04	 add	 esp, 4
  00c31	09 8d c4 fe ff
	ff		 or	 DWORD PTR _levelindex$228030[ebp], ecx
$LN5@JGPGetChar:

; 1324 : 			}
; 1325 : 
; 1326 : 			pCList.CharSet[6] = ((int)levelindex >> 0x10) & 0xFF;

  00c37	8b 85 c4 fe ff
	ff		 mov	 eax, DWORD PTR _levelindex$228030[ebp]

; 1327 : 			pCList.CharSet[7] = ((int)levelindex >> 0x08) & 0xFF;
; 1328 : 			pCList.CharSet[8] = ((int)levelindex) & 0xFF;
; 1329 : 
; 1330 : 			memcpy(&sendbuf[lOfs], &pCList, sizeof(pCList));
; 1331 : 			lsOfs += sizeof(SDHP_CHARLIST);

  00c3d	83 85 9c fe ff
	ff 42		 add	 DWORD PTR _lsOfs$[ebp], 66 ; 00000042H
  00c44	8b c8		 mov	 ecx, eax
  00c46	88 85 df fe ff
	ff		 mov	 BYTE PTR _pCList$[ebp+23], al
  00c4c	8b d0		 mov	 edx, eax
  00c4e	8b 85 88 fe ff
	ff		 mov	 eax, DWORD PTR _lOfs$[ebp]
  00c54	c1 f9 08	 sar	 ecx, 8
  00c57	88 8d de fe ff
	ff		 mov	 BYTE PTR _pCList$[ebp+22], cl
  00c5d	8d bc 05 f0 fe
	ff ff		 lea	 edi, DWORD PTR _sendbuf$[ebp+eax]
  00c64	c1 fa 10	 sar	 edx, 16			; 00000010H
  00c67	88 95 dd fe ff
	ff		 mov	 BYTE PTR _pCList$[ebp+21], dl
  00c6d	b9 08 00 00 00	 mov	 ecx, 8
  00c72	8d b5 c8 fe ff
	ff		 lea	 esi, DWORD PTR _pCList$[ebp]
  00c78	f3 a5		 rep movsd

; 1332 : 			lOfs += sizeof(pCList);

  00c7a	83 c0 22	 add	 eax, 34			; 00000022H
  00c7d	89 85 88 fe ff
	ff		 mov	 DWORD PTR _lOfs$[ebp], eax
  00c83	8b 85 84 fe ff
	ff		 mov	 eax, DWORD PTR _n$227923[ebp]
  00c89	40		 inc	 eax
  00c8a	66 a5		 movsw
  00c8c	89 85 84 fe ff
	ff		 mov	 DWORD PTR _n$227923[ebp], eax
  00c92	3b 85 7c fe ff
	ff		 cmp	 eax, DWORD PTR $T231225[ebp]
  00c98	0f 8c d2 f4 ff
	ff		 jl	 $LL83@JGPGetChar
  00c9e	5f		 pop	 edi
$LN81@JGPGetChar:

; 1333 : 		}
; 1334 : 		// ----
; 1335 : 	}
; 1336 : 
; 1337 : #ifdef CHARCREATE_TEMP
; 1338 : 		if( HightLevel >= ZtConfig.ZtCustom.CreateSUMLevel )  //gCreateSUMLevel

  00c9f	0f bf 15 12 00
	00 00		 movsx	 edx, WORD PTR ?ZtConfig@@3VcZtConfigs@@A+18
  00ca6	8b 85 8c fe ff
	ff		 mov	 eax, DWORD PTR _HightLevel$[ebp]
  00cac	3b c2		 cmp	 eax, edx
  00cae	7c 07		 jl	 SHORT $LN109@JGPGetChar

; 1339 : 		{
; 1340 : 			GenerableClass += 1;

  00cb0	c6 85 ee fe ff
	ff 01		 mov	 BYTE PTR _GenerableClass$[ebp], 1
$LN109@JGPGetChar:

; 1341 : 		}
; 1342 : 		// ----
; 1343 : 		if( HightLevel >= ZtConfig.ZtCustom.CreateMONKLevel ) //gCreateMONKLevel

  00cb7	0f bf 0d 14 00
	00 00		 movsx	 ecx, WORD PTR ?ZtConfig@@3VcZtConfigs@@A+20
  00cbe	3b c1		 cmp	 eax, ecx
  00cc0	7c 07		 jl	 SHORT $LN111@JGPGetChar

; 1344 : 		{
; 1345 : 			GenerableClass += 8;

  00cc2	80 85 ee fe ff
	ff 08		 add	 BYTE PTR _GenerableClass$[ebp], 8
$LN111@JGPGetChar:

; 1346 : 		}
; 1347 : 		// ----
; 1348 : 		if( HightLevel >= ZtConfig.ZtCustom.CreateMGLevel )	  //gCreateMGLevel

  00cc9	0f bf 15 0e 00
	00 00		 movsx	 edx, WORD PTR ?ZtConfig@@3VcZtConfigs@@A+14
  00cd0	3b c2		 cmp	 eax, edx
  00cd2	7c 18		 jl	 SHORT $LN110@JGPGetChar

; 1349 : 		{
; 1350 : 			GenerableClass += 4;
; 1351 : 			gObj[aIndex].Magumsa = 1;

  00cd4	8b 0d 00 00 00
	00		 mov	 ecx, DWORD PTR ?gObj@@3PAUOBJECTSTRUCT@@A ; gObj
  00cda	8b 95 90 fe ff
	ff		 mov	 edx, DWORD PTR tv2026[ebp]
  00ce0	80 85 ee fe ff
	ff 04		 add	 BYTE PTR _GenerableClass$[ebp], 4
  00ce7	c6 44 0a 34 01	 mov	 BYTE PTR [edx+ecx+52], 1
$LN110@JGPGetChar:

; 1352 : 		}
; 1353 : 		// ----
; 1354 : 		if( HightLevel >= ZtConfig.ZtCustom.CreateDLLevel )	  //gCreateDLLevel

  00cec	0f bf 0d 10 00
	00 00		 movsx	 ecx, WORD PTR ?ZtConfig@@3VcZtConfigs@@A+16
  00cf3	3b c1		 cmp	 eax, ecx
  00cf5	7c 18		 jl	 SHORT $LN1@JGPGetChar

; 1355 : 		{
; 1356 : 			GenerableClass += 2;
; 1357 : 			gObj[aIndex].Magumsa = 2;

  00cf7	8b 15 00 00 00
	00		 mov	 edx, DWORD PTR ?gObj@@3PAUOBJECTSTRUCT@@A ; gObj
  00cfd	8b 85 90 fe ff
	ff		 mov	 eax, DWORD PTR tv2026[ebp]
  00d03	80 85 ee fe ff
	ff 02		 add	 BYTE PTR _GenerableClass$[ebp], 2
  00d0a	c6 44 10 34 02	 mov	 BYTE PTR [eax+edx+52], 2
$LN1@JGPGetChar:

; 1358 : 		}
; 1359 : 		// ----
; 1360 : 		PMSG_UPD_SUMMONER_CREATE pMsg;
; 1361 : 		pMsg.h.set((LPBYTE)&pMsg, 0xDE, sizeof(pMsg));
; 1362 : 		pMsg.btResult = 0;
; 1363 : 		pMsg.IsSummonerEnable = GenerableClass;

  00d0f	8a 8d ee fe ff
	ff		 mov	 cl, BYTE PTR _GenerableClass$[ebp]

; 1364 : 		// ----
; 1365 : 		DataSend(aIndex, (LPBYTE)&pMsg, sizeof(pMsg));

  00d15	8b b5 80 fe ff
	ff		 mov	 esi, DWORD PTR _aIndex$[ebp]
  00d1b	6a 05		 push	 5
  00d1d	8d 95 94 fe ff
	ff		 lea	 edx, DWORD PTR _pMsg$[ebp]
  00d23	52		 push	 edx
  00d24	56		 push	 esi
  00d25	c7 85 94 fe ff
	ff c1 05 de 00	 mov	 DWORD PTR _pMsg$[ebp], 14550465 ; 00de05c1H
  00d2f	88 8d 98 fe ff
	ff		 mov	 BYTE PTR _pMsg$[ebp+4], cl
  00d35	e8 00 00 00 00	 call	 ?DataSend@@YAHHPAEK@Z	; DataSend

; 1366 : #endif
; 1367 : 
; 1368 : 	pCLCount.h.size = lOfs;

  00d3a	8b 85 88 fe ff
	ff		 mov	 eax, DWORD PTR _lOfs$[ebp]

; 1369 : 	memcpy(sendbuf, &pCLCount, sizeof(PMSG_CHARLISTCOUNT));	

  00d40	8b 95 a4 fe ff
	ff		 mov	 edx, DWORD PTR _pCLCount$[ebp+4]

; 1370 : 
; 1371 : 	DataSend(aIndex, sendbuf, lOfs);

  00d46	50		 push	 eax
  00d47	88 85 a1 fe ff
	ff		 mov	 BYTE PTR _pCLCount$[ebp+1], al
  00d4d	8b 8d a0 fe ff
	ff		 mov	 ecx, DWORD PTR _pCLCount$[ebp]
  00d53	8d 85 f0 fe ff
	ff		 lea	 eax, DWORD PTR _sendbuf$[ebp]
  00d59	50		 push	 eax
  00d5a	56		 push	 esi
  00d5b	89 8d f0 fe ff
	ff		 mov	 DWORD PTR _sendbuf$[ebp], ecx
  00d61	89 95 f4 fe ff
	ff		 mov	 DWORD PTR _sendbuf$[ebp+4], edx
  00d67	e8 00 00 00 00	 call	 ?DataSend@@YAHHPAEK@Z	; DataSend

; 1372 : 
; 1373 : 	//g_ZtUser.GCDataClient(aIndex);
; 1374 : #if(SYSTEM_ACHIEVEMENTS)
; 1375 : 	//g_Achievements.GCSettingsData(aIndex);
; 1376 : #endif
; 1377 : }

  00d6c	8b 4d fc	 mov	 ecx, DWORD PTR __$ArrayPad$[ebp]
  00d6f	83 c4 18	 add	 esp, 24			; 00000018H
  00d72	5e		 pop	 esi
  00d73	33 cd		 xor	 ecx, ebp
  00d75	5b		 pop	 ebx
  00d76	e8 00 00 00 00	 call	 @__security_check_cookie@4
  00d7b	8b e5		 mov	 esp, ebp
  00d7d	5d		 pop	 ebp
  00d7e	c3		 ret	 0
  00d7f	90		 npad	 1
$LN130@JGPGetChar:
  00d80	00 00 00 00	 DD	 $LN56@JGPGetChar
  00d84	00 00 00 00	 DD	 $LN55@JGPGetChar
  00d88	00 00 00 00	 DD	 $LN54@JGPGetChar
  00d8c	00 00 00 00	 DD	 $LN52@JGPGetChar
  00d90	00 00 00 00	 DD	 $LN51@JGPGetChar
  00d94	00 00 00 00	 DD	 $LN50@JGPGetChar
  00d98	00 00 00 00	 DD	 $LN49@JGPGetChar
  00d9c	00 00 00 00	 DD	 $LN48@JGPGetChar
  00da0	00 00 00 00	 DD	 $LN45@JGPGetChar
  00da4	00 00 00 00	 DD	 $LN44@JGPGetChar
  00da8	00 00 00 00	 DD	 $LN43@JGPGetChar
  00dac	00 00 00 00	 DD	 $LN42@JGPGetChar
  00db0	00 00 00 00	 DD	 $LN41@JGPGetChar
  00db4	00 00 00 00	 DD	 $LN53@JGPGetChar
  00db8	00 00 00 00	 DD	 $LN47@JGPGetChar
  00dbc	00 00 00 00	 DD	 $LN40@JGPGetChar
  00dc0	00 00 00 00	 DD	 $LN46@JGPGetChar
  00dc4	00 00 00 00	 DD	 $LN39@JGPGetChar
  00dc8	00 00 00 00	 DD	 $LN38@JGPGetChar
  00dcc	00 00 00 00	 DD	 $LN37@JGPGetChar
  00dd0	00 00 00 00	 DD	 $LN36@JGPGetChar
  00dd4	00 00 00 00	 DD	 $LN35@JGPGetChar
  00dd8	00 00 00 00	 DD	 $LN34@JGPGetChar
  00ddc	00 00 00 00	 DD	 $LN33@JGPGetChar
  00de0	00 00 00 00	 DD	 $LN106@JGPGetChar
$LN104@JGPGetChar:
  00de4	00		 DB	 0
  00de5	01		 DB	 1
  00de6	02		 DB	 2
  00de7	03		 DB	 3
  00de8	04		 DB	 4
  00de9	05		 DB	 5
  00dea	06		 DB	 6
  00deb	18		 DB	 24			; 00000018H
  00dec	18		 DB	 24			; 00000018H
  00ded	18		 DB	 24			; 00000018H
  00dee	18		 DB	 24			; 00000018H
  00def	18		 DB	 24			; 00000018H
  00df0	18		 DB	 24			; 00000018H
  00df1	18		 DB	 24			; 00000018H
  00df2	18		 DB	 24			; 00000018H
  00df3	18		 DB	 24			; 00000018H
  00df4	18		 DB	 24			; 00000018H
  00df5	18		 DB	 24			; 00000018H
  00df6	18		 DB	 24			; 00000018H
  00df7	18		 DB	 24			; 00000018H
  00df8	18		 DB	 24			; 00000018H
  00df9	18		 DB	 24			; 00000018H
  00dfa	18		 DB	 24			; 00000018H
  00dfb	18		 DB	 24			; 00000018H
  00dfc	18		 DB	 24			; 00000018H
  00dfd	18		 DB	 24			; 00000018H
  00dfe	18		 DB	 24			; 00000018H
  00dff	18		 DB	 24			; 00000018H
  00e00	18		 DB	 24			; 00000018H
  00e01	18		 DB	 24			; 00000018H
  00e02	07		 DB	 7
  00e03	18		 DB	 24			; 00000018H
  00e04	18		 DB	 24			; 00000018H
  00e05	18		 DB	 24			; 00000018H
  00e06	18		 DB	 24			; 00000018H
  00e07	18		 DB	 24			; 00000018H
  00e08	08		 DB	 8
  00e09	09		 DB	 9
  00e0a	0a		 DB	 10			; 0000000aH
  00e0b	0b		 DB	 11			; 0000000bH
  00e0c	0c		 DB	 12			; 0000000cH
  00e0d	0d		 DB	 13			; 0000000dH
  00e0e	0e		 DB	 14			; 0000000eH
  00e0f	0f		 DB	 15			; 0000000fH
  00e10	18		 DB	 24			; 00000018H
  00e11	18		 DB	 24			; 00000018H
  00e12	18		 DB	 24			; 00000018H
  00e13	18		 DB	 24			; 00000018H
  00e14	18		 DB	 24			; 00000018H
  00e15	10		 DB	 16			; 00000010H
  00e16	11		 DB	 17			; 00000011H
  00e17	18		 DB	 24			; 00000018H
  00e18	18		 DB	 24			; 00000018H
  00e19	18		 DB	 24			; 00000018H
  00e1a	18		 DB	 24			; 00000018H
  00e1b	18		 DB	 24			; 00000018H
  00e1c	18		 DB	 24			; 00000018H
  00e1d	18		 DB	 24			; 00000018H
  00e1e	18		 DB	 24			; 00000018H
  00e1f	18		 DB	 24			; 00000018H
  00e20	18		 DB	 24			; 00000018H
  00e21	18		 DB	 24			; 00000018H
  00e22	18		 DB	 24			; 00000018H
  00e23	18		 DB	 24			; 00000018H
  00e24	18		 DB	 24			; 00000018H
  00e25	18		 DB	 24			; 00000018H
  00e26	18		 DB	 24			; 00000018H
  00e27	18		 DB	 24			; 00000018H
  00e28	18		 DB	 24			; 00000018H
  00e29	18		 DB	 24			; 00000018H
  00e2a	18		 DB	 24			; 00000018H
  00e2b	18		 DB	 24			; 00000018H
  00e2c	18		 DB	 24			; 00000018H
  00e2d	18		 DB	 24			; 00000018H
  00e2e	18		 DB	 24			; 00000018H
  00e2f	18		 DB	 24			; 00000018H
  00e30	18		 DB	 24			; 00000018H
  00e31	18		 DB	 24			; 00000018H
  00e32	18		 DB	 24			; 00000018H
  00e33	18		 DB	 24			; 00000018H
  00e34	18		 DB	 24			; 00000018H
  00e35	18		 DB	 24			; 00000018H
  00e36	18		 DB	 24			; 00000018H
  00e37	18		 DB	 24			; 00000018H
  00e38	18		 DB	 24			; 00000018H
  00e39	18		 DB	 24			; 00000018H
  00e3a	18		 DB	 24			; 00000018H
  00e3b	18		 DB	 24			; 00000018H
  00e3c	18		 DB	 24			; 00000018H
  00e3d	18		 DB	 24			; 00000018H
  00e3e	18		 DB	 24			; 00000018H
  00e3f	18		 DB	 24			; 00000018H
  00e40	18		 DB	 24			; 00000018H
  00e41	18		 DB	 24			; 00000018H
  00e42	18		 DB	 24			; 00000018H
  00e43	18		 DB	 24			; 00000018H
  00e44	18		 DB	 24			; 00000018H
  00e45	18		 DB	 24			; 00000018H
  00e46	18		 DB	 24			; 00000018H
  00e47	18		 DB	 24			; 00000018H
  00e48	18		 DB	 24			; 00000018H
  00e49	18		 DB	 24			; 00000018H
  00e4a	18		 DB	 24			; 00000018H
  00e4b	18		 DB	 24			; 00000018H
  00e4c	18		 DB	 24			; 00000018H
  00e4d	18		 DB	 24			; 00000018H
  00e4e	18		 DB	 24			; 00000018H
  00e4f	18		 DB	 24			; 00000018H
  00e50	18		 DB	 24			; 00000018H
  00e51	18		 DB	 24			; 00000018H
  00e52	18		 DB	 24			; 00000018H
  00e53	18		 DB	 24			; 00000018H
  00e54	18		 DB	 24			; 00000018H
  00e55	18		 DB	 24			; 00000018H
  00e56	18		 DB	 24			; 00000018H
  00e57	18		 DB	 24			; 00000018H
  00e58	18		 DB	 24			; 00000018H
  00e59	18		 DB	 24			; 00000018H
  00e5a	18		 DB	 24			; 00000018H
  00e5b	18		 DB	 24			; 00000018H
  00e5c	18		 DB	 24			; 00000018H
  00e5d	18		 DB	 24			; 00000018H
  00e5e	18		 DB	 24			; 00000018H
  00e5f	18		 DB	 24			; 00000018H
  00e60	18		 DB	 24			; 00000018H
  00e61	18		 DB	 24			; 00000018H
  00e62	18		 DB	 24			; 00000018H
  00e63	18		 DB	 24			; 00000018H
  00e64	18		 DB	 24			; 00000018H
  00e65	18		 DB	 24			; 00000018H
  00e66	12		 DB	 18			; 00000012H
  00e67	13		 DB	 19			; 00000013H
  00e68	14		 DB	 20			; 00000014H
  00e69	15		 DB	 21			; 00000015H
  00e6a	16		 DB	 22			; 00000016H
  00e6b	17		 DB	 23			; 00000017H
$LN131@JGPGetChar:
  00e6c	00 00 00 00	 DD	 $LN24@JGPGetChar
  00e70	00 00 00 00	 DD	 $LN25@JGPGetChar
  00e74	00 00 00 00	 DD	 $LN17@JGPGetChar
  00e78	00 00 00 00	 DD	 $LN20@JGPGetChar
  00e7c	00 00 00 00	 DD	 $LN19@JGPGetChar
  00e80	00 00 00 00	 DD	 $LN13@JGPGetChar
$LN105@JGPGetChar:
  00e84	00		 DB	 0
  00e85	01		 DB	 1
  00e86	05		 DB	 5
  00e87	05		 DB	 5
  00e88	05		 DB	 5
  00e89	05		 DB	 5
  00e8a	05		 DB	 5
  00e8b	05		 DB	 5
  00e8c	05		 DB	 5
  00e8d	05		 DB	 5
  00e8e	05		 DB	 5
  00e8f	05		 DB	 5
  00e90	05		 DB	 5
  00e91	05		 DB	 5
  00e92	05		 DB	 5
  00e93	05		 DB	 5
  00e94	05		 DB	 5
  00e95	05		 DB	 5
  00e96	05		 DB	 5
  00e97	05		 DB	 5
  00e98	05		 DB	 5
  00e99	05		 DB	 5
  00e9a	05		 DB	 5
  00e9b	05		 DB	 5
  00e9c	05		 DB	 5
  00e9d	05		 DB	 5
  00e9e	05		 DB	 5
  00e9f	05		 DB	 5
  00ea0	05		 DB	 5
  00ea1	05		 DB	 5
  00ea2	05		 DB	 5
  00ea3	05		 DB	 5
  00ea4	05		 DB	 5
  00ea5	05		 DB	 5
  00ea6	02		 DB	 2
  00ea7	05		 DB	 5
  00ea8	05		 DB	 5
  00ea9	05		 DB	 5
  00eaa	05		 DB	 5
  00eab	05		 DB	 5
  00eac	05		 DB	 5
  00ead	05		 DB	 5
  00eae	05		 DB	 5
  00eaf	05		 DB	 5
  00eb0	05		 DB	 5
  00eb1	05		 DB	 5
  00eb2	05		 DB	 5
  00eb3	05		 DB	 5
  00eb4	05		 DB	 5
  00eb5	05		 DB	 5
  00eb6	05		 DB	 5
  00eb7	05		 DB	 5
  00eb8	05		 DB	 5
  00eb9	05		 DB	 5
  00eba	05		 DB	 5
  00ebb	05		 DB	 5
  00ebc	05		 DB	 5
  00ebd	05		 DB	 5
  00ebe	05		 DB	 5
  00ebf	05		 DB	 5
  00ec0	05		 DB	 5
  00ec1	03		 DB	 3
  00ec2	04		 DB	 4
?JGPGetCharList@@YAXPAE@Z ENDP				; JGPGetCharList
_TEXT	ENDS
PUBLIC	??_C@_0P@DNGOKBGI@DSProtocol?4cpp?$AA@		; `string'
PUBLIC	__$ArrayPad$
PUBLIC	?DataServerGetCharListRequest@@YAXF@Z		; DataServerGetCharListRequest
EXTRN	?gObjGetAccountId@@YAPADH@Z:PROC		; gObjGetAccountId
EXTRN	?GCLicenseUser@CZtLicense@@QAEXH@Z:PROC		; CZtLicense::GCLicenseUser
;	COMDAT ??_C@_0P@DNGOKBGI@DSProtocol?4cpp?$AA@
CONST	SEGMENT
??_C@_0P@DNGOKBGI@DSProtocol?4cpp?$AA@ DB 'DSProtocol.cpp', 00H ; `string'
; Function compile flags: /Ogtp
CONST	ENDS
;	COMDAT ?DataServerGetCharListRequest@@YAXF@Z
_TEXT	SEGMENT
_pMsg$ = -32						; size = 16
_TempId$ = -16						; size = 11
__$ArrayPad$ = -4					; size = 4
_aIndex$ = 8						; size = 2
?DataServerGetCharListRequest@@YAXF@Z PROC		; DataServerGetCharListRequest, COMDAT

; 1388 : {

  00000	55		 push	 ebp
  00001	8b ec		 mov	 ebp, esp
  00003	83 ec 20	 sub	 esp, 32			; 00000020H
  00006	a1 00 00 00 00	 mov	 eax, DWORD PTR ___security_cookie
  0000b	33 c5		 xor	 eax, ebp
  0000d	89 45 fc	 mov	 DWORD PTR __$ArrayPad$[ebp], eax
  00010	53		 push	 ebx
  00011	0f b7 5d 08	 movzx	 ebx, WORD PTR _aIndex$[ebp]
  00015	56		 push	 esi

; 1389 : 	g_ZtLicense.GCLicenseUser(aIndex);

  00016	0f bf f3	 movsx	 esi, bx
  00019	56		 push	 esi
  0001a	b9 00 00 00 00	 mov	 ecx, OFFSET ?g_ZtLicense@@3VCZtLicense@@A ; g_ZtLicense
  0001f	e8 00 00 00 00	 call	 ?GCLicenseUser@CZtLicense@@QAEXH@Z ; CZtLicense::GCLicenseUser

; 1390 : 
; 1391 : 	SDHP_GETCHARLIST pMsg;
; 1392 : 	char TempId[11];
; 1393 : 	char* AccountId;
; 1394 : 
; 1395 : 	memset(TempId, 0, sizeof(TempId));

  00024	33 c0		 xor	 eax, eax

; 1396 : 	AccountId = gObjGetAccountId(aIndex);

  00026	56		 push	 esi
  00027	89 45 f0	 mov	 DWORD PTR _TempId$[ebp], eax
  0002a	89 45 f4	 mov	 DWORD PTR _TempId$[ebp+4], eax
  0002d	66 89 45 f8	 mov	 WORD PTR _TempId$[ebp+8], ax
  00031	88 45 fa	 mov	 BYTE PTR _TempId$[ebp+10], al
  00034	e8 00 00 00 00	 call	 ?gObjGetAccountId@@YAPADH@Z ; gObjGetAccountId
  00039	83 c4 04	 add	 esp, 4

; 1397 : 
; 1398 : 	if ( AccountId == 0 )

  0003c	85 c0		 test	 eax, eax
  0003e	75 39		 jne	 SHORT $LN2@DataServer@3

; 1399 : 	{
; 1400 : 		LogAdd(lMsg.Get(MSGGET(1, 166)), __FILE__, __LINE__);

  00040	68 78 05 00 00	 push	 1400			; 00000578H
  00045	68 00 00 00 00	 push	 OFFSET ??_C@_0P@DNGOKBGI@DSProtocol?4cpp?$AA@
  0004a	68 a6 01 00 00	 push	 422			; 000001a6H
$LN8@DataServer@3:
  0004f	b9 00 00 00 00	 mov	 ecx, OFFSET ?lMsg@@3VCMsg@@A ; lMsg
  00054	e8 00 00 00 00	 call	 ?Get@CMsg@@QAEPADH@Z	; CMsg::Get
  00059	50		 push	 eax
  0005a	ff 15 00 00 00
	00		 call	 DWORD PTR ?LogAdd@@3P6AXPADZZA ; LogAdd

; 1401 : 		CloseClient(aIndex);

  00060	56		 push	 esi
  00061	e8 00 00 00 00	 call	 ?CloseClient@@YAXH@Z	; CloseClient
  00066	83 c4 10	 add	 esp, 16			; 00000010H
  00069	5e		 pop	 esi
  0006a	5b		 pop	 ebx

; 1424 : 	
; 1425 : }

  0006b	8b 4d fc	 mov	 ecx, DWORD PTR __$ArrayPad$[ebp]
  0006e	33 cd		 xor	 ecx, ebp
  00070	e8 00 00 00 00	 call	 @__security_check_cookie@4
  00075	8b e5		 mov	 esp, ebp
  00077	5d		 pop	 ebp
  00078	c3		 ret	 0
$LN2@DataServer@3:

; 1402 : 		return;
; 1403 : 	}
; 1404 : 
; 1405 : 	// When Len is Less than 1
; 1406 : 	if ( strlen(AccountId) < 1 )

  00079	8b c8		 mov	 ecx, eax
  0007b	57		 push	 edi
  0007c	8d 79 01	 lea	 edi, DWORD PTR [ecx+1]
  0007f	90		 npad	 1
$LL7@DataServer@3:
  00080	8a 11		 mov	 dl, BYTE PTR [ecx]
  00082	41		 inc	 ecx
  00083	84 d2		 test	 dl, dl
  00085	75 f9		 jne	 SHORT $LL7@DataServer@3
  00087	2b cf		 sub	 ecx, edi
  00089	5f		 pop	 edi
  0008a	83 f9 01	 cmp	 ecx, 1
  0008d	73 11		 jae	 SHORT $LN1@DataServer@3

; 1407 : 	{
; 1408 : 		// Error Message
; 1409 : 		//
; 1410 : 		LogAdd(lMsg.Get(MSGGET(1, 167)), __FILE__, __LINE__);

  0008f	68 82 05 00 00	 push	 1410			; 00000582H
  00094	68 00 00 00 00	 push	 OFFSET ??_C@_0P@DNGOKBGI@DSProtocol?4cpp?$AA@
  00099	68 a7 01 00 00	 push	 423			; 000001a7H

; 1411 : 		CloseClient(aIndex);
; 1412 : 		return;

  0009e	eb af		 jmp	 SHORT $LN8@DataServer@3
$LN1@DataServer@3:

; 1413 : 	}
; 1414 : 
; 1415 : 	strcpy((char*)TempId, AccountId);

  000a0	8d 55 f0	 lea	 edx, DWORD PTR _TempId$[ebp]
  000a3	2b d0		 sub	 edx, eax
$LL5@DataServer@3:
  000a5	8a 08		 mov	 cl, BYTE PTR [eax]
  000a7	88 0c 02	 mov	 BYTE PTR [edx+eax], cl
  000aa	40		 inc	 eax
  000ab	84 c9		 test	 cl, cl
  000ad	75 f6		 jne	 SHORT $LL5@DataServer@3

; 1416 : 
; 1417 : 	pMsg.h.c  = 0xC1;
; 1418 : 	pMsg.h.size  = sizeof(SDHP_GETCHARLIST);
; 1419 : 	pMsg.h.headcode = 0x01;
; 1420 : 	pMsg.Number = aIndex;
; 1421 : 	memcpy(pMsg.Id , TempId, sizeof(TempId)-1);

  000af	8b 45 f0	 mov	 eax, DWORD PTR _TempId$[ebp]
  000b2	8b 4d f4	 mov	 ecx, DWORD PTR _TempId$[ebp+4]
  000b5	66 8b 55 f8	 mov	 dx, WORD PTR _TempId$[ebp+8]
  000b9	89 45 e3	 mov	 DWORD PTR _pMsg$[ebp+3], eax

; 1422 : 
; 1423 : 	cDBSMng.Send((char*)&pMsg, pMsg.h.size);

  000bc	6a 10		 push	 16			; 00000010H
  000be	8d 45 e0	 lea	 eax, DWORD PTR _pMsg$[ebp]
  000c1	89 4d e7	 mov	 DWORD PTR _pMsg$[ebp+7], ecx
  000c4	50		 push	 eax
  000c5	b9 00 00 00 00	 mov	 ecx, OFFSET ?cDBSMng@@3VDBSockMng@@A ; cDBSMng
  000ca	66 c7 45 e0 c1
	10		 mov	 WORD PTR _pMsg$[ebp], 4289 ; 000010c1H
  000d0	c6 45 e2 01	 mov	 BYTE PTR _pMsg$[ebp+2], 1
  000d4	66 89 5d ee	 mov	 WORD PTR _pMsg$[ebp+14], bx
  000d8	66 89 55 eb	 mov	 WORD PTR _pMsg$[ebp+11], dx
  000dc	e8 00 00 00 00	 call	 ?Send@DBSockMng@@QAEHPADH@Z ; DBSockMng::Send

; 1424 : 	
; 1425 : }

  000e1	8b 4d fc	 mov	 ecx, DWORD PTR __$ArrayPad$[ebp]
  000e4	5e		 pop	 esi
  000e5	33 cd		 xor	 ecx, ebp
  000e7	5b		 pop	 ebx
  000e8	e8 00 00 00 00	 call	 @__security_check_cookie@4
  000ed	8b e5		 mov	 esp, ebp
  000ef	5d		 pop	 ebp
  000f0	c3		 ret	 0
?DataServerGetCharListRequest@@YAXF@Z ENDP		; DataServerGetCharListRequest
_TEXT	ENDS
PUBLIC	__$ArrayPad$
PUBLIC	?JGCharacterCreateRequest@@YAXPAUSDHP_CREATECHARRESULT@@@Z ; JGCharacterCreateRequest
; Function compile flags: /Ogtp
;	COMDAT ?JGCharacterCreateRequest@@YAXPAUSDHP_CREATECHARRESULT@@@Z
_TEXT	SEGMENT
_pResult$ = -60						; size = 44
_szAccountID$ = -16					; size = 11
__$ArrayPad$ = -4					; size = 4
_lpMsg$ = 8						; size = 4
?JGCharacterCreateRequest@@YAXPAUSDHP_CREATECHARRESULT@@@Z PROC ; JGCharacterCreateRequest, COMDAT

; 1441 : {

  00000	55		 push	 ebp
  00001	8b ec		 mov	 ebp, esp
  00003	83 ec 3c	 sub	 esp, 60			; 0000003cH
  00006	a1 00 00 00 00	 mov	 eax, DWORD PTR ___security_cookie
  0000b	33 c5		 xor	 eax, ebp
  0000d	89 45 fc	 mov	 DWORD PTR __$ArrayPad$[ebp], eax
  00010	56		 push	 esi
  00011	8b 75 08	 mov	 esi, DWORD PTR _lpMsg$[ebp]

; 1442 : 	PMSG_CHARCREATERESULT pResult;
; 1443 : 	char szAccountID[MAX_ACCOUNT_LEN+1];
; 1444 : 	int aIndex = lpMsg->Number;
; 1445 : 
; 1446 : 	szAccountID[MAX_ACCOUNT_LEN] = 0;
; 1447 : 	memcpy(szAccountID, lpMsg->AccountId, sizeof(lpMsg->AccountId));

  00014	8b 46 06	 mov	 eax, DWORD PTR [esi+6]
  00017	8b 4e 0a	 mov	 ecx, DWORD PTR [esi+10]
  0001a	66 8b 56 0e	 mov	 dx, WORD PTR [esi+14]
  0001e	57		 push	 edi
  0001f	0f bf 7e 04	 movsx	 edi, WORD PTR [esi+4]
  00023	89 45 f0	 mov	 DWORD PTR _szAccountID$[ebp], eax

; 1448 : 
; 1449 : 	if ( gObjIsAccontConnect(aIndex, szAccountID) == FALSE )

  00026	8d 45 f0	 lea	 eax, DWORD PTR _szAccountID$[ebp]
  00029	50		 push	 eax
  0002a	57		 push	 edi
  0002b	c6 45 fa 00	 mov	 BYTE PTR _szAccountID$[ebp+10], 0
  0002f	89 4d f4	 mov	 DWORD PTR _szAccountID$[ebp+4], ecx
  00032	66 89 55 f8	 mov	 WORD PTR _szAccountID$[ebp+8], dx
  00036	e8 00 00 00 00	 call	 ?gObjIsAccontConnect@@YAHHPAD@Z ; gObjIsAccontConnect
  0003b	83 c4 08	 add	 esp, 8
  0003e	85 c0		 test	 eax, eax
  00040	75 35		 jne	 SHORT $LN2@JGCharacte

; 1450 : 	{
; 1451 : 		LogAddC(2, lMsg.Get(MSGGET(1, 168)), szAccountID);

  00042	8d 4d f0	 lea	 ecx, DWORD PTR _szAccountID$[ebp]
  00045	51		 push	 ecx
  00046	68 a8 01 00 00	 push	 424			; 000001a8H
  0004b	b9 00 00 00 00	 mov	 ecx, OFFSET ?lMsg@@3VCMsg@@A ; lMsg
  00050	e8 00 00 00 00	 call	 ?Get@CMsg@@QAEPADH@Z	; CMsg::Get
  00055	50		 push	 eax
  00056	6a 02		 push	 2
  00058	ff 15 00 00 00
	00		 call	 DWORD PTR ?LogAddC@@3P6AXEPADZZA ; LogAddC

; 1452 : 		CloseClient(aIndex);

  0005e	57		 push	 edi
  0005f	e8 00 00 00 00	 call	 ?CloseClient@@YAXH@Z	; CloseClient
  00064	83 c4 10	 add	 esp, 16			; 00000010H
  00067	5f		 pop	 edi
  00068	5e		 pop	 esi

; 1475 : }

  00069	8b 4d fc	 mov	 ecx, DWORD PTR __$ArrayPad$[ebp]
  0006c	33 cd		 xor	 ecx, ebp
  0006e	e8 00 00 00 00	 call	 @__security_check_cookie@4
  00073	8b e5		 mov	 esp, ebp
  00075	5d		 pop	 ebp
  00076	c3		 ret	 0
$LN2@JGCharacte:

; 1453 : 		return;
; 1454 : 	}
; 1455 : 
; 1456 : 	pResult.h.c = 0xC1;
; 1457 : 	pResult.h.size = sizeof(PMSG_CHARCREATERESULT);
; 1458 : 	pResult.h.headcode = 0xF3;
; 1459 : 	pResult.subcode = 0x01;
; 1460 : 	pResult.Result = lpMsg->Result;
; 1461 : 	pResult.pos = lpMsg->Pos;
; 1462 : 	pResult.Class = (lpMsg->ClassSkin >> 4 << 5) & 0xE0;
; 1463 : 	int changeup = lpMsg->ClassSkin & 0x07; 

  00077	8a 4e 1b	 mov	 cl, BYTE PTR [esi+27]
  0007a	8a 46 1a	 mov	 al, BYTE PTR [esi+26]
  0007d	8a 56 03	 mov	 dl, BYTE PTR [esi+3]
  00080	88 45 d3	 mov	 BYTE PTR _pResult$[ebp+15], al
  00083	0f b6 c1	 movzx	 eax, cl
  00086	83 e0 07	 and	 eax, 7

; 1464 : 	pResult.Class |= (changeup << 4) & 0x10;
; 1465 : 	pResult.Class |= (changeup << 4) & 0x20; //Season 2.5 add-on

  00089	24 03		 and	 al, 3
  0008b	02 c0		 add	 al, al
  0008d	02 c0		 add	 al, al
  0008f	02 c0		 add	 al, al
  00091	80 e1 f0	 and	 cl, 240			; 000000f0H
  00094	0a c1		 or	 al, cl

; 1466 : 	pResult.Level = lpMsg->Level;

  00096	66 8b 4e 34	 mov	 cx, WORD PTR [esi+52]
  0009a	02 c0		 add	 al, al
  0009c	88 45 d6	 mov	 BYTE PTR _pResult$[ebp+18], al

; 1467 : 	memcpy(pResult.Name, lpMsg->Name, sizeof(pResult.Name));

  0009f	8b 46 10	 mov	 eax, DWORD PTR [esi+16]
  000a2	66 89 4d d4	 mov	 WORD PTR _pResult$[ebp+16], cx
  000a6	8b 4e 14	 mov	 ecx, DWORD PTR [esi+20]
  000a9	89 45 c9	 mov	 DWORD PTR _pResult$[ebp+5], eax
  000ac	66 8b 46 18	 mov	 ax, WORD PTR [esi+24]
  000b0	c7 45 c4 c1 2c
	f3 01		 mov	 DWORD PTR _pResult$[ebp], 32713921 ; 01f32cc1H
  000b7	88 55 c8	 mov	 BYTE PTR _pResult$[ebp+4], dl
  000ba	89 4d cd	 mov	 DWORD PTR _pResult$[ebp+9], ecx
  000bd	66 89 45 d1	 mov	 WORD PTR _pResult$[ebp+13], ax

; 1468 : 
; 1469 : 	if ( pResult.Result == 1 )

  000c1	80 fa 01	 cmp	 dl, 1
  000c4	75 24		 jne	 SHORT $LN1@JGCharacte

; 1470 : 	{
; 1471 : 		memcpy(pResult.Equipment, lpMsg->Equipment, sizeof(pResult.Equipment));

  000c6	8b 4e 1c	 mov	 ecx, DWORD PTR [esi+28]
  000c9	8b 56 20	 mov	 edx, DWORD PTR [esi+32]
  000cc	8b 46 24	 mov	 eax, DWORD PTR [esi+36]
  000cf	89 4d d7	 mov	 DWORD PTR _pResult$[ebp+19], ecx
  000d2	8b 4e 28	 mov	 ecx, DWORD PTR [esi+40]
  000d5	89 55 db	 mov	 DWORD PTR _pResult$[ebp+23], edx
  000d8	8b 56 2c	 mov	 edx, DWORD PTR [esi+44]
  000db	89 45 df	 mov	 DWORD PTR _pResult$[ebp+27], eax
  000de	8b 46 30	 mov	 eax, DWORD PTR [esi+48]
  000e1	89 4d e3	 mov	 DWORD PTR _pResult$[ebp+31], ecx
  000e4	89 55 e7	 mov	 DWORD PTR _pResult$[ebp+35], edx
  000e7	89 45 eb	 mov	 DWORD PTR _pResult$[ebp+39], eax
$LN1@JGCharacte:

; 1472 : 	}
; 1473 : 
; 1474 : 	DataSend(aIndex, (LPBYTE)&pResult, pResult.h.size);

  000ea	6a 2c		 push	 44			; 0000002cH
  000ec	8d 4d c4	 lea	 ecx, DWORD PTR _pResult$[ebp]
  000ef	51		 push	 ecx
  000f0	57		 push	 edi
  000f1	e8 00 00 00 00	 call	 ?DataSend@@YAHHPAEK@Z	; DataSend

; 1475 : }

  000f6	8b 4d fc	 mov	 ecx, DWORD PTR __$ArrayPad$[ebp]
  000f9	83 c4 0c	 add	 esp, 12			; 0000000cH
  000fc	5f		 pop	 edi
  000fd	33 cd		 xor	 ecx, ebp
  000ff	5e		 pop	 esi
  00100	e8 00 00 00 00	 call	 @__security_check_cookie@4
  00105	8b e5		 mov	 esp, ebp
  00107	5d		 pop	 ebp
  00108	c3		 ret	 0
?JGCharacterCreateRequest@@YAXPAUSDHP_CREATECHARRESULT@@@Z ENDP ; JGCharacterCreateRequest
_TEXT	ENDS
PUBLIC	__$ArrayPad$
PUBLIC	?JGCharacterCreateFailSend@@YAXHPAD@Z		; JGCharacterCreateFailSend
; Function compile flags: /Ogtp
;	COMDAT ?JGCharacterCreateFailSend@@YAXHPAD@Z
_TEXT	SEGMENT
_pResult$ = -48						; size = 44
__$ArrayPad$ = -4					; size = 4
_aIndex$ = 8						; size = 4
_id$ = 12						; size = 4
?JGCharacterCreateFailSend@@YAXHPAD@Z PROC		; JGCharacterCreateFailSend, COMDAT

; 1479 : {

  00000	55		 push	 ebp
  00001	8b ec		 mov	 ebp, esp
  00003	83 ec 30	 sub	 esp, 48			; 00000030H
  00006	a1 00 00 00 00	 mov	 eax, DWORD PTR ___security_cookie
  0000b	33 c5		 xor	 eax, ebp
  0000d	89 45 fc	 mov	 DWORD PTR __$ArrayPad$[ebp], eax
  00010	8b 45 0c	 mov	 eax, DWORD PTR _id$[ebp]

; 1480 : 	PMSG_CHARCREATERESULT  pResult;
; 1481 : 
; 1482 : 	pResult.h.c = 0xC1;
; 1483 : 	pResult.h.size = sizeof (PMSG_CHARCREATERESULT);
; 1484 : 	pResult.h.headcode = 0xF3;
; 1485 : 	pResult.subcode = 0x01;
; 1486 : 	pResult.Result = false;
; 1487 : 	pResult.pos = 0;
; 1488 : 	memcpy(pResult.Name, id, sizeof(pResult.Name));

  00013	8b 50 04	 mov	 edx, DWORD PTR [eax+4]
  00016	32 c9		 xor	 cl, cl
  00018	88 4d d4	 mov	 BYTE PTR _pResult$[ebp+4], cl
  0001b	88 4d df	 mov	 BYTE PTR _pResult$[ebp+15], cl
  0001e	8b 08		 mov	 ecx, DWORD PTR [eax]
  00020	66 8b 40 08	 mov	 ax, WORD PTR [eax+8]
  00024	89 4d d5	 mov	 DWORD PTR _pResult$[ebp+5], ecx

; 1489 : 
; 1490 : 	DataSend(aIndex, (UCHAR*)&pResult, pResult.h.size);

  00027	6a 2c		 push	 44			; 0000002cH
  00029	8d 4d d0	 lea	 ecx, DWORD PTR _pResult$[ebp]
  0002c	89 55 d9	 mov	 DWORD PTR _pResult$[ebp+9], edx
  0002f	8b 55 08	 mov	 edx, DWORD PTR _aIndex$[ebp]
  00032	51		 push	 ecx
  00033	52		 push	 edx
  00034	c7 45 d0 c1 2c
	f3 01		 mov	 DWORD PTR _pResult$[ebp], 32713921 ; 01f32cc1H
  0003b	66 89 45 dd	 mov	 WORD PTR _pResult$[ebp+13], ax
  0003f	e8 00 00 00 00	 call	 ?DataSend@@YAHHPAEK@Z	; DataSend

; 1491 : }

  00044	8b 4d fc	 mov	 ecx, DWORD PTR __$ArrayPad$[ebp]
  00047	33 cd		 xor	 ecx, ebp
  00049	83 c4 0c	 add	 esp, 12			; 0000000cH
  0004c	e8 00 00 00 00	 call	 @__security_check_cookie@4
  00051	8b e5		 mov	 esp, ebp
  00053	5d		 pop	 ebp
  00054	c3		 ret	 0
?JGCharacterCreateFailSend@@YAXHPAD@Z ENDP		; JGCharacterCreateFailSend
_TEXT	ENDS
PUBLIC	__$ArrayPad$
PUBLIC	?JGCharDelRequest@@YAXPAUSDHP_CHARDELETERESULT@@@Z ; JGCharDelRequest
; Function compile flags: /Ogtp
;	COMDAT ?JGCharDelRequest@@YAXPAUSDHP_CHARDELETERESULT@@@Z
_TEXT	SEGMENT
_pResult$ = -24						; size = 5
_szAccountId$ = -16					; size = 11
__$ArrayPad$ = -4					; size = 4
_lpMsg$ = 8						; size = 4
?JGCharDelRequest@@YAXPAUSDHP_CHARDELETERESULT@@@Z PROC	; JGCharDelRequest, COMDAT

; 1495 : {

  00000	55		 push	 ebp
  00001	8b ec		 mov	 ebp, esp
  00003	83 ec 18	 sub	 esp, 24			; 00000018H
  00006	a1 00 00 00 00	 mov	 eax, DWORD PTR ___security_cookie
  0000b	33 c5		 xor	 eax, ebp
  0000d	89 45 fc	 mov	 DWORD PTR __$ArrayPad$[ebp], eax
  00010	56		 push	 esi
  00011	8b 75 08	 mov	 esi, DWORD PTR _lpMsg$[ebp]

; 1496 : 	PMSG_RESULT pResult;
; 1497 : 	char szAccountId[MAX_ACCOUNT_LEN+1];
; 1498 : 	int aIndex = lpMsg->Number;
; 1499 : 	szAccountId[MAX_ACCOUNT_LEN] = 0;
; 1500 : 	memcpy(szAccountId, lpMsg->AccountID, sizeof(lpMsg->AccountID));

  00014	8b 46 06	 mov	 eax, DWORD PTR [esi+6]
  00017	8b 4e 0a	 mov	 ecx, DWORD PTR [esi+10]
  0001a	66 8b 56 0e	 mov	 dx, WORD PTR [esi+14]
  0001e	57		 push	 edi
  0001f	0f bf 7e 04	 movsx	 edi, WORD PTR [esi+4]
  00023	89 45 f0	 mov	 DWORD PTR _szAccountId$[ebp], eax

; 1501 : 
; 1502 : 	if ( ::gObjIsAccontConnect(aIndex, szAccountId) == FALSE )

  00026	8d 45 f0	 lea	 eax, DWORD PTR _szAccountId$[ebp]
  00029	50		 push	 eax
  0002a	57		 push	 edi
  0002b	c6 45 fa 00	 mov	 BYTE PTR _szAccountId$[ebp+10], 0
  0002f	89 4d f4	 mov	 DWORD PTR _szAccountId$[ebp+4], ecx
  00032	66 89 55 f8	 mov	 WORD PTR _szAccountId$[ebp+8], dx
  00036	e8 00 00 00 00	 call	 ?gObjIsAccontConnect@@YAHHPAD@Z ; gObjIsAccontConnect
  0003b	83 c4 08	 add	 esp, 8
  0003e	85 c0		 test	 eax, eax
  00040	75 35		 jne	 SHORT $LN1@JGCharDelR

; 1503 : 	{
; 1504 : 		LogAddC(2, lMsg.Get(MSGGET(1, 169)), szAccountId);

  00042	8d 4d f0	 lea	 ecx, DWORD PTR _szAccountId$[ebp]
  00045	51		 push	 ecx
  00046	68 a9 01 00 00	 push	 425			; 000001a9H
  0004b	b9 00 00 00 00	 mov	 ecx, OFFSET ?lMsg@@3VCMsg@@A ; lMsg
  00050	e8 00 00 00 00	 call	 ?Get@CMsg@@QAEPADH@Z	; CMsg::Get
  00055	50		 push	 eax
  00056	6a 02		 push	 2
  00058	ff 15 00 00 00
	00		 call	 DWORD PTR ?LogAddC@@3P6AXEPADZZA ; LogAddC

; 1505 : 		CloseClient(aIndex);

  0005e	57		 push	 edi
  0005f	e8 00 00 00 00	 call	 ?CloseClient@@YAXH@Z	; CloseClient
  00064	83 c4 10	 add	 esp, 16			; 00000010H
  00067	5f		 pop	 edi
  00068	5e		 pop	 esi

; 1517 : }

  00069	8b 4d fc	 mov	 ecx, DWORD PTR __$ArrayPad$[ebp]
  0006c	33 cd		 xor	 ecx, ebp
  0006e	e8 00 00 00 00	 call	 @__security_check_cookie@4
  00073	8b e5		 mov	 esp, ebp
  00075	5d		 pop	 ebp
  00076	c3		 ret	 0
$LN1@JGCharDelR:

; 1506 : 
; 1507 : 		return;
; 1508 : 	}
; 1509 : 
; 1510 : 	pResult.h.c = 0xC1;
; 1511 : 	pResult.h.size = sizeof(PMSG_RESULT);
; 1512 : 	pResult.h.headcode = 0xF3;
; 1513 : 	pResult.subcode = 0x02;
; 1514 : 	pResult.result = lpMsg->Result;
; 1515 : 
; 1516 : 	DataSend(lpMsg->Number, (UCHAR*)&pResult, pResult.h.size);

  00077	0f bf 4e 04	 movsx	 ecx, WORD PTR [esi+4]
  0007b	8a 56 03	 mov	 dl, BYTE PTR [esi+3]
  0007e	6a 05		 push	 5
  00080	8d 45 e8	 lea	 eax, DWORD PTR _pResult$[ebp]
  00083	50		 push	 eax
  00084	51		 push	 ecx
  00085	c7 45 e8 c1 05
	f3 02		 mov	 DWORD PTR _pResult$[ebp], 49481153 ; 02f305c1H
  0008c	88 55 ec	 mov	 BYTE PTR _pResult$[ebp+4], dl
  0008f	e8 00 00 00 00	 call	 ?DataSend@@YAHHPAEK@Z	; DataSend

; 1517 : }

  00094	8b 4d fc	 mov	 ecx, DWORD PTR __$ArrayPad$[ebp]
  00097	83 c4 0c	 add	 esp, 12			; 0000000cH
  0009a	5f		 pop	 edi
  0009b	33 cd		 xor	 ecx, ebp
  0009d	5e		 pop	 esi
  0009e	e8 00 00 00 00	 call	 @__security_check_cookie@4
  000a3	8b e5		 mov	 esp, ebp
  000a5	5d		 pop	 ebp
  000a6	c3		 ret	 0
?JGCharDelRequest@@YAXPAUSDHP_CHARDELETERESULT@@@Z ENDP	; JGCharDelRequest
_TEXT	ENDS
PUBLIC	_aIndex$GSCopy$
PUBLIC	__$ArrayPad$
PUBLIC	?GCItemListSend@@YAXH@Z				; GCItemListSend
EXTRN	?ItemByteConvert@@YAXPAEVCItem@@@Z:PROC		; ItemByteConvert
EXTRN	?IsItem@CItem@@QAEHXZ:PROC			; CItem::IsItem
EXTRN	__chkstk:PROC
; Function compile flags: /Ogtp
;	COMDAT ?GCItemListSend@@YAXH@Z
_TEXT	SEGMENT
_aIndex$GSCopy$ = -4140					; size = 4
_sOfs$ = -4136						; size = 4
_itemcount$ = -4132					; size = 4
_n$228455 = -4128					; size = 4
tv206 = -4124						; size = 4
_pMsgILC$ = -4124					; size = 6
_pMsgIL$ = -4116					; size = 13
_sendBuf$ = -4100					; size = 4096
__$ArrayPad$ = -4					; size = 4
_aIndex$ = 8						; size = 4
?GCItemListSend@@YAXH@Z PROC				; GCItemListSend, COMDAT

; 1976 : {

  00000	55		 push	 ebp
  00001	8b ec		 mov	 ebp, esp
  00003	b8 2c 10 00 00	 mov	 eax, 4140		; 0000102cH
  00008	e8 00 00 00 00	 call	 __chkstk
  0000d	a1 00 00 00 00	 mov	 eax, DWORD PTR ___security_cookie
  00012	33 c5		 xor	 eax, ebp
  00014	89 45 fc	 mov	 DWORD PTR __$ArrayPad$[ebp], eax
  00017	53		 push	 ebx
  00018	8b 5d 08	 mov	 ebx, DWORD PTR _aIndex$[ebp]

; 1977 : 	PMSG_INVENTORYLISTCOUNT pMsgILC;	// Packet Message Item List Count
; 1978 : 	PMSG_INVENTORYLIST pMsgIL;	// Packet Message Item List
; 1979 : 	int sOfs = sizeof(PMSG_INVENTORYLISTCOUNT);

  0001b	89 9d d4 ef ff
	ff		 mov	 DWORD PTR _aIndex$GSCopy$[ebp], ebx

; 1980 : 	int pMsgILSize = sizeof(PMSG_INVENTORYLIST);
; 1981 : 	BYTE sendBuf[WAREHOUSE_BUFF];
; 1982 : 	LPOBJ lpObj = &gObj[aIndex];

  00021	69 db 50 2b 00
	00		 imul	 ebx, 11088		; 00002b50H
  00027	03 1d 00 00 00
	00		 add	 ebx, DWORD PTR ?gObj@@3PAUOBJECTSTRUCT@@A ; gObj
  0002d	56		 push	 esi
  0002e	57		 push	 edi

; 1983 : 	int itemcount = 0;

  0002f	33 ff		 xor	 edi, edi
  00031	c7 85 d8 ef ff
	ff 06 00 00 00	 mov	 DWORD PTR _sOfs$[ebp], 6
  0003b	89 bd dc ef ff
	ff		 mov	 DWORD PTR _itemcount$[ebp], edi

; 1984 : 	
; 1985 : 	for ( int n=0;n<INVENTORY_SIZE;n++)

  00041	89 bd e0 ef ff
	ff		 mov	 DWORD PTR _n$228455[ebp], edi

; 2000 : 			sOfs += pMsgILSize;

  00047	89 bd e4 ef ff
	ff		 mov	 DWORD PTR tv206[ebp], edi
  0004d	8d 49 00	 npad	 3
$LL5@GCItemList:

; 1986 : 	{
; 1987 : 		if ( lpObj->pInventory[n].IsItem() == TRUE )

  00050	8b 8b 24 0e 00
	00		 mov	 ecx, DWORD PTR [ebx+3620]
  00056	03 cf		 add	 ecx, edi
  00058	e8 00 00 00 00	 call	 ?IsItem@CItem@@QAEHXZ	; CItem::IsItem
  0005d	83 f8 01	 cmp	 eax, 1
  00060	0f 85 98 00 00
	00		 jne	 $LN4@GCItemList

; 1988 : 		{
; 1989 : 			if ( lpObj->pInventory[n].m_bItemExist == false )

  00066	8b 83 24 0e 00
	00		 mov	 eax, DWORD PTR [ebx+3620]
  0006c	80 bc 38 88 00
	00 00 00	 cmp	 BYTE PTR [eax+edi+136], 0
  00074	0f 84 84 00 00
	00		 je	 $LN4@GCItemList

; 1990 : 			{
; 1991 : 				continue;
; 1992 : 			}
; 1993 : 
; 1994 : 			pMsgIL.Pos = n;

  0007a	8a 8d e0 ef ff
	ff		 mov	 cl, BYTE PTR _n$228455[ebp]
  00080	88 8d ec ef ff
	ff		 mov	 BYTE PTR _pMsgIL$[ebp], cl

; 1995 : 
; 1996 : 			ItemByteConvert(pMsgIL.ItemInfo,lpObj->pInventory[n]);

  00086	8b b3 24 0e 00
	00		 mov	 esi, DWORD PTR [ebx+3620]
  0008c	81 ec d4 00 00
	00		 sub	 esp, 212		; 000000d4H
  00092	03 f7		 add	 esi, edi
  00094	8d 95 ed ef ff
	ff		 lea	 edx, DWORD PTR _pMsgIL$[ebp+1]
  0009a	8b fc		 mov	 edi, esp
  0009c	b9 35 00 00 00	 mov	 ecx, 53			; 00000035H
  000a1	52		 push	 edx
  000a2	f3 a5		 rep movsd
  000a4	e8 00 00 00 00	 call	 ?ItemByteConvert@@YAXPAEVCItem@@@Z ; ItemByteConvert
  000a9	8b 85 d8 ef ff
	ff		 mov	 eax, DWORD PTR _sOfs$[ebp]

; 1997 : 
; 1998 : 			memcpy(&sendBuf[sOfs], &pMsgIL, pMsgILSize);

  000af	8b 8d ec ef ff
	ff		 mov	 ecx, DWORD PTR _pMsgIL$[ebp]
  000b5	8b 95 f0 ef ff
	ff		 mov	 edx, DWORD PTR _pMsgIL$[ebp+4]

; 1999 : 			itemcount++;

  000bb	ff 85 dc ef ff
	ff		 inc	 DWORD PTR _itemcount$[ebp]

; 2000 : 			sOfs += pMsgILSize;

  000c1	8b bd e4 ef ff
	ff		 mov	 edi, DWORD PTR tv206[ebp]
  000c7	89 8c 05 fc ef
	ff ff		 mov	 DWORD PTR _sendBuf$[ebp+eax], ecx
  000ce	8b 8d f4 ef ff
	ff		 mov	 ecx, DWORD PTR _pMsgIL$[ebp+8]
  000d4	89 94 05 00 f0
	ff ff		 mov	 DWORD PTR _sendBuf$[ebp+eax+4], edx
  000db	8a 95 f8 ef ff
	ff		 mov	 dl, BYTE PTR _pMsgIL$[ebp+12]
  000e1	89 8c 05 04 f0
	ff ff		 mov	 DWORD PTR _sendBuf$[ebp+eax+8], ecx
  000e8	81 c4 d8 00 00
	00		 add	 esp, 216		; 000000d8H
  000ee	88 94 05 08 f0
	ff ff		 mov	 BYTE PTR _sendBuf$[ebp+eax+12], dl
  000f5	83 c0 0d	 add	 eax, 13			; 0000000dH
  000f8	89 85 d8 ef ff
	ff		 mov	 DWORD PTR _sOfs$[ebp], eax
$LN4@GCItemList:

; 1984 : 	
; 1985 : 	for ( int n=0;n<INVENTORY_SIZE;n++)

  000fe	ff 85 e0 ef ff
	ff		 inc	 DWORD PTR _n$228455[ebp]
  00104	81 c7 d4 00 00
	00		 add	 edi, 212		; 000000d4H
  0010a	89 bd e4 ef ff
	ff		 mov	 DWORD PTR tv206[ebp], edi
  00110	81 ff 70 c3 00
	00		 cmp	 edi, 50032		; 0000c370H
  00116	0f 8c 34 ff ff
	ff		 jl	 $LL5@GCItemList

; 2001 : 		}
; 2002 : 	}
; 2003 : 
; 2004 : 	pMsgILC.h.c = 0xC4;
; 2005 : 	pMsgILC.h.headcode = 0xF3;
; 2006 : 	pMsgILC.subcode = 0x10;
; 2007 : 	pMsgILC.h.sizeH = SET_NUMBERH(sOfs);

  0011c	8b 85 d8 ef ff
	ff		 mov	 eax, DWORD PTR _sOfs$[ebp]

; 2008 : 	pMsgILC.h.sizeL = SET_NUMBERL(sOfs);
; 2009 : 	pMsgILC.Count = itemcount;

  00122	8a 95 dc ef ff
	ff		 mov	 dl, BYTE PTR _itemcount$[ebp]
  00128	8b c8		 mov	 ecx, eax
  0012a	c1 e9 08	 shr	 ecx, 8
  0012d	88 8d e5 ef ff
	ff		 mov	 BYTE PTR _pMsgILC$[ebp+1], cl
  00133	88 85 e6 ef ff
	ff		 mov	 BYTE PTR _pMsgILC$[ebp+2], al

; 2010 : 	memcpy(sendBuf, &pMsgILC, sizeof(PMSG_INVENTORYLISTCOUNT));
; 2011 : 
; 2012 : 	DataSend(aIndex, sendBuf, sOfs);

  00139	50		 push	 eax
  0013a	66 c7 85 e7 ef
	ff ff f3 10	 mov	 WORD PTR _pMsgILC$[ebp+3], 4339 ; 000010f3H
  00143	c6 85 e4 ef ff
	ff c4		 mov	 BYTE PTR _pMsgILC$[ebp], 196 ; 000000c4H
  0014a	8b 8d e4 ef ff
	ff		 mov	 ecx, DWORD PTR _pMsgILC$[ebp]
  00150	8d 85 fc ef ff
	ff		 lea	 eax, DWORD PTR _sendBuf$[ebp]
  00156	89 8d fc ef ff
	ff		 mov	 DWORD PTR _sendBuf$[ebp], ecx
  0015c	8b 8d d4 ef ff
	ff		 mov	 ecx, DWORD PTR _aIndex$GSCopy$[ebp]
  00162	88 95 e9 ef ff
	ff		 mov	 BYTE PTR _pMsgILC$[ebp+5], dl
  00168	66 8b 95 e8 ef
	ff ff		 mov	 dx, WORD PTR _pMsgILC$[ebp+4]
  0016f	50		 push	 eax
  00170	51		 push	 ecx
  00171	66 89 95 00 f0
	ff ff		 mov	 WORD PTR _sendBuf$[ebp+4], dx
  00178	e8 00 00 00 00	 call	 ?DataSend@@YAHHPAEK@Z	; DataSend

; 2013 : }

  0017d	8b 4d fc	 mov	 ecx, DWORD PTR __$ArrayPad$[ebp]
  00180	83 c4 0c	 add	 esp, 12			; 0000000cH
  00183	5f		 pop	 edi
  00184	5e		 pop	 esi
  00185	33 cd		 xor	 ecx, ebp
  00187	5b		 pop	 ebx
  00188	e8 00 00 00 00	 call	 @__security_check_cookie@4
  0018d	8b e5		 mov	 esp, ebp
  0018f	5d		 pop	 ebp
  00190	c3		 ret	 0
?GCItemListSend@@YAXH@Z ENDP				; GCItemListSend
_TEXT	ENDS
PUBLIC	__$ArrayPad$
PUBLIC	?GDGetWarehouseList@@YAXHPADH@Z			; GDGetWarehouseList
EXTRN	?ClearWarehouse@CGuildBank@@QAEXH@Z:PROC	; CGuildBank::ClearWarehouse
EXTRN	?g_GuildBank@@3VCGuildBank@@A:BYTE		; g_GuildBank
; Function compile flags: /Ogtp
;	COMDAT ?GDGetWarehouseList@@YAXHPADH@Z
_TEXT	SEGMENT
_pMsg$ = -24						; size = 20
__$ArrayPad$ = -4					; size = 4
_aIndex$ = 8						; size = 4
_AccountID$ = 12					; size = 4
_Number$ = 16						; size = 4
?GDGetWarehouseList@@YAXHPADH@Z PROC			; GDGetWarehouseList, COMDAT

; 2268 : {

  00000	55		 push	 ebp
  00001	8b ec		 mov	 ebp, esp
  00003	83 ec 18	 sub	 esp, 24			; 00000018H
  00006	a1 00 00 00 00	 mov	 eax, DWORD PTR ___security_cookie
  0000b	33 c5		 xor	 eax, ebp
  0000d	89 45 fc	 mov	 DWORD PTR __$ArrayPad$[ebp], eax
  00010	56		 push	 esi
  00011	8b 75 0c	 mov	 esi, DWORD PTR _AccountID$[ebp]

; 2269 : 	if ( strlen(AccountID) < 1 )

  00014	8b c6		 mov	 eax, esi
  00016	8d 50 01	 lea	 edx, DWORD PTR [eax+1]
  00019	8d a4 24 00 00
	00 00		 npad	 7
$LL4@GDGetWareh:
  00020	8a 08		 mov	 cl, BYTE PTR [eax]
  00022	40		 inc	 eax
  00023	84 c9		 test	 cl, cl
  00025	75 f9		 jne	 SHORT $LL4@GDGetWareh
  00027	2b c2		 sub	 eax, edx
  00029	83 f8 01	 cmp	 eax, 1
  0002c	72 47		 jb	 SHORT $LN2@GDGetWareh

; 2270 : 	{
; 2271 : 		return;
; 2272 : 	}
; 2273 : 
; 2274 : 	#if(DEV_GUILDBANK)
; 2275 : 	g_GuildBank.ClearWarehouse(aIndex);

  0002e	57		 push	 edi
  0002f	8b 7d 08	 mov	 edi, DWORD PTR _aIndex$[ebp]
  00032	57		 push	 edi
  00033	b9 00 00 00 00	 mov	 ecx, OFFSET ?g_GuildBank@@3VCGuildBank@@A ; g_GuildBank
  00038	e8 00 00 00 00	 call	 ?ClearWarehouse@CGuildBank@@QAEXH@Z ; CGuildBank::ClearWarehouse

; 2276 : 	#endif
; 2277 : 
; 2278 : 	SDHP_GETWAREHOUSEDB	pMsg;
; 2279 : 
; 2280 : 	pMsg.h.c = 0xC1;
; 2281 : 	pMsg.h.headcode = 0x08;
; 2282 : 	pMsg.h.size = sizeof(SDHP_GETWAREHOUSEDB);
; 2283 : 	pMsg.aIndex = aIndex;
; 2284 : 	memcpy(pMsg.AccountID, AccountID, sizeof(pMsg.AccountID));

  0003d	8b 4e 04	 mov	 ecx, DWORD PTR [esi+4]
  00040	8b 06		 mov	 eax, DWORD PTR [esi]
  00042	66 8b 56 08	 mov	 dx, WORD PTR [esi+8]
  00046	89 4d ef	 mov	 DWORD PTR _pMsg$[ebp+7], ecx

; 2285 : 	//LPOBJ lpObj = &gObj[aIndex];
; 2286 : 
; 2287 : 	pMsg.Number = Number;
; 2288 : 
; 2289 : 	cDBSMng.Send((char*)&pMsg, pMsg.h.size);

  00049	6a 14		 push	 20			; 00000014H
  0004b	8d 4d e8	 lea	 ecx, DWORD PTR _pMsg$[ebp]
  0004e	89 45 eb	 mov	 DWORD PTR _pMsg$[ebp+3], eax
  00051	8b 45 10	 mov	 eax, DWORD PTR _Number$[ebp]
  00054	51		 push	 ecx
  00055	b9 00 00 00 00	 mov	 ecx, OFFSET ?cDBSMng@@3VDBSockMng@@A ; cDBSMng
  0005a	c6 45 e8 c1	 mov	 BYTE PTR _pMsg$[ebp], 193 ; 000000c1H
  0005e	66 c7 45 e9 14
	08		 mov	 WORD PTR _pMsg$[ebp+1], 2068 ; 00000814H
  00064	66 89 7d f6	 mov	 WORD PTR _pMsg$[ebp+14], di
  00068	66 89 55 f3	 mov	 WORD PTR _pMsg$[ebp+11], dx
  0006c	89 45 f8	 mov	 DWORD PTR _pMsg$[ebp+16], eax
  0006f	e8 00 00 00 00	 call	 ?Send@DBSockMng@@QAEHPADH@Z ; DBSockMng::Send
  00074	5f		 pop	 edi
$LN2@GDGetWareh:

; 2290 : }

  00075	8b 4d fc	 mov	 ecx, DWORD PTR __$ArrayPad$[ebp]
  00078	33 cd		 xor	 ecx, ebp
  0007a	5e		 pop	 esi
  0007b	e8 00 00 00 00	 call	 @__security_check_cookie@4
  00080	8b e5		 mov	 esp, ebp
  00082	5d		 pop	 ebp
  00083	c3		 ret	 0
?GDGetWarehouseList@@YAXHPADH@Z ENDP			; GDGetWarehouseList
_TEXT	ENDS
PUBLIC	__$ArrayPad$
PUBLIC	?GDGetWarehouseNoItem@@YAXPAUSDHP_GETWAREHOUSEDB_RESULT@@@Z ; GDGetWarehouseNoItem
EXTRN	?PHeadSetB@@YAXPAEEH@Z:PROC			; PHeadSetB
; Function compile flags: /Ogtp
;	COMDAT ?GDGetWarehouseNoItem@@YAXPAUSDHP_GETWAREHOUSEDB_RESULT@@@Z
_TEXT	SEGMENT
_pResult$ = -40						; size = 11
_pMsg$228686 = -28					; size = 12
_szId$ = -16						; size = 11
__$ArrayPad$ = -4					; size = 4
_lpMsg$ = 8						; size = 4
?GDGetWarehouseNoItem@@YAXPAUSDHP_GETWAREHOUSEDB_RESULT@@@Z PROC ; GDGetWarehouseNoItem, COMDAT

; 2601 : {

  00000	55		 push	 ebp
  00001	8b ec		 mov	 ebp, esp
  00003	83 ec 28	 sub	 esp, 40			; 00000028H
  00006	a1 00 00 00 00	 mov	 eax, DWORD PTR ___security_cookie
  0000b	33 c5		 xor	 eax, ebp
  0000d	89 45 fc	 mov	 DWORD PTR __$ArrayPad$[ebp], eax
  00010	8b 45 08	 mov	 eax, DWORD PTR _lpMsg$[ebp]

; 2602 : 	char szId[11];
; 2603 : 	int aIndex = lpMsg->aIndex;
; 2604 : 	PMSG_TALKRESULT pResult;
; 2605 : 
; 2606 : 	szId[MAX_ACCOUNT_LEN] = 0;
; 2607 : 	memcpy(szId, lpMsg->AccountID, sizeof(lpMsg->AccountID));

  00013	8b 48 03	 mov	 ecx, DWORD PTR [eax+3]
  00016	8b 50 07	 mov	 edx, DWORD PTR [eax+7]
  00019	57		 push	 edi
  0001a	0f bf 78 0e	 movsx	 edi, WORD PTR [eax+14]
  0001e	66 8b 40 0b	 mov	 ax, WORD PTR [eax+11]
  00022	89 4d f0	 mov	 DWORD PTR _szId$[ebp], ecx

; 2608 : 
; 2609 : 	if ( !gObjIsAccontConnect(aIndex, szId) )

  00025	8d 4d f0	 lea	 ecx, DWORD PTR _szId$[ebp]
  00028	51		 push	 ecx
  00029	57		 push	 edi
  0002a	c6 45 fa 00	 mov	 BYTE PTR _szId$[ebp+10], 0
  0002e	89 55 f4	 mov	 DWORD PTR _szId$[ebp+4], edx
  00031	66 89 45 f8	 mov	 WORD PTR _szId$[ebp+8], ax
  00035	e8 00 00 00 00	 call	 ?gObjIsAccontConnect@@YAHHPAD@Z ; gObjIsAccontConnect
  0003a	83 c4 08	 add	 esp, 8
  0003d	85 c0		 test	 eax, eax
  0003f	75 2f		 jne	 SHORT $LN3@GDGetWareh@2

; 2610 : 	{
; 2611 : 		LogAddC(2, lMsg.Get(MSGGET(1, 175)), szId, aIndex);

  00041	57		 push	 edi
  00042	8d 55 f0	 lea	 edx, DWORD PTR _szId$[ebp]
  00045	52		 push	 edx
  00046	68 af 01 00 00	 push	 431			; 000001afH
  0004b	b9 00 00 00 00	 mov	 ecx, OFFSET ?lMsg@@3VCMsg@@A ; lMsg
  00050	e8 00 00 00 00	 call	 ?Get@CMsg@@QAEPADH@Z	; CMsg::Get
  00055	50		 push	 eax
  00056	6a 02		 push	 2
  00058	ff 15 00 00 00
	00		 call	 DWORD PTR ?LogAddC@@3P6AXEPADZZA ; LogAddC
  0005e	83 c4 10	 add	 esp, 16			; 00000010H
  00061	5f		 pop	 edi

; 2642 : 		}
; 2643 : 	}
; 2644 : 
; 2645 : 	lpObj->LoadWareHouseInfo = true;
; 2646 : 	lpObj->m_ReqWarehouseOpen = false;
; 2647 : 
; 2648 : 
; 2649 : 
; 2650 : }

  00062	8b 4d fc	 mov	 ecx, DWORD PTR __$ArrayPad$[ebp]
  00065	33 cd		 xor	 ecx, ebp
  00067	e8 00 00 00 00	 call	 @__security_check_cookie@4
  0006c	8b e5		 mov	 esp, ebp
  0006e	5d		 pop	 ebp
  0006f	c3		 ret	 0
$LN3@GDGetWareh@2:
  00070	56		 push	 esi

; 2612 : 		return;
; 2613 : 	}
; 2614 : 
; 2615 : 	LPOBJ lpObj = &gObj[aIndex];

  00071	8b f7		 mov	 esi, edi
  00073	69 f6 50 2b 00
	00		 imul	 esi, 11088		; 00002b50H
  00079	03 35 00 00 00
	00		 add	 esi, DWORD PTR ?gObj@@3PAUOBJECTSTRUCT@@A ; gObj

; 2616 : 
; 2617 : 	/* Guild Bank Fix */
; 2618 : 	g_GuildBank.ClearWarehouse(aIndex);

  0007f	57		 push	 edi
  00080	b9 00 00 00 00	 mov	 ecx, OFFSET ?g_GuildBank@@3VCGuildBank@@A ; g_GuildBank
  00085	e8 00 00 00 00	 call	 ?ClearWarehouse@CGuildBank@@QAEXH@Z ; CGuildBank::ClearWarehouse

; 2619 : 	
; 2620 : 	if ( lpObj->m_IfState.type == 6 )

  0008a	8b 86 1c 0e 00
	00		 mov	 eax, DWORD PTR [esi+3612]
  00090	8b c8		 mov	 ecx, eax
  00092	81 e1 c0 ff 00
	00		 and	 ecx, 65472		; 0000ffc0H
  00098	81 f9 80 01 00
	00		 cmp	 ecx, 384		; 00000180H
  0009e	0f 85 91 00 00
	00		 jne	 $LN1@GDGetWareh@2

; 2621 : 	{
; 2622 : 		if ( lpObj->m_IfState.state == 0 )

  000a4	a8 3c		 test	 al, 60			; 0000003cH
  000a6	0f 85 89 00 00
	00		 jne	 $LN1@GDGetWareh@2

; 2623 : 		{
; 2624 : 			lpObj->m_IfState.state = 1;

  000ac	83 e0 c7	 and	 eax, -57		; ffffffc7H
  000af	83 c8 04	 or	 eax, 4
  000b2	89 86 1c 0e 00
	00		 mov	 DWORD PTR [esi+3612], eax

; 2625 : 			lpObj->WarehouseSave = 1;

  000b8	c7 86 70 0e 00
	00 01 00 00 00	 mov	 DWORD PTR [esi+3696], 1

; 2626 : 			pResult.h.c = 0xC3;
; 2627 : 			pResult.h.headcode = 0x30;
; 2628 : 			pResult.h.size = sizeof(pResult);
; 2629 : 			pResult.result = 2;
; 2630 : 
; 2631 : 			DataSend(lpObj->m_Index, (LPBYTE)&pResult, pResult.h.size);

  000c2	6a 0b		 push	 11			; 0000000bH
  000c4	8d 55 d8	 lea	 edx, DWORD PTR _pResult$[ebp]
  000c7	c6 45 d8 c3	 mov	 BYTE PTR _pResult$[ebp], 195 ; 000000c3H
  000cb	66 c7 45 d9 0b
	30		 mov	 WORD PTR _pResult$[ebp+1], 12299 ; 0000300bH
  000d1	c6 45 db 02	 mov	 BYTE PTR _pResult$[ebp+3], 2
  000d5	8b 06		 mov	 eax, DWORD PTR [esi]
  000d7	52		 push	 edx
  000d8	50		 push	 eax
  000d9	e8 00 00 00 00	 call	 ?DataSend@@YAHHPAEK@Z	; DataSend
  000de	83 c4 0c	 add	 esp, 12			; 0000000cH

; 2632 : 			LogAddC(2, lMsg.Get(MSGGET(1, 176)), lpObj->Name);

  000e1	8d 4e 77	 lea	 ecx, DWORD PTR [esi+119]
  000e4	51		 push	 ecx
  000e5	68 b0 01 00 00	 push	 432			; 000001b0H
  000ea	b9 00 00 00 00	 mov	 ecx, OFFSET ?lMsg@@3VCMsg@@A ; lMsg
  000ef	e8 00 00 00 00	 call	 ?Get@CMsg@@QAEPADH@Z	; CMsg::Get
  000f4	50		 push	 eax
  000f5	6a 02		 push	 2
  000f7	ff 15 00 00 00
	00		 call	 DWORD PTR ?LogAddC@@3P6AXEPADZZA ; LogAddC

; 2633 : 		
; 2634 : 			PMSG_MONEY pMsg; // Season 4.5 fix
; 2635 : 
; 2636 : 			PHeadSetB((LPBYTE)&pMsg, 0x81, sizeof(pMsg));

  000fd	6a 0c		 push	 12			; 0000000cH
  000ff	8d 55 e4	 lea	 edx, DWORD PTR _pMsg$228686[ebp]
  00102	68 81 00 00 00	 push	 129			; 00000081H
  00107	52		 push	 edx
  00108	e8 00 00 00 00	 call	 ?PHeadSetB@@YAXPAEEH@Z	; PHeadSetB

; 2637 : 			pMsg.Result = 1;
; 2638 : 			pMsg.iMoney = lpObj->Money;

  0010d	8b 86 f0 00 00
	00		 mov	 eax, DWORD PTR [esi+240]

; 2639 : 			pMsg.wMoney = lpObj->WarehouseMoney;
; 2640 : 
; 2641 : 			DataSend(aIndex, (LPBYTE)&pMsg, pMsg.h.size);

  00113	0f b6 55 e5	 movzx	 edx, BYTE PTR _pMsg$228686[ebp+1]
  00117	8b 8e 6c 0e 00
	00		 mov	 ecx, DWORD PTR [esi+3692]
  0011d	89 45 ec	 mov	 DWORD PTR _pMsg$228686[ebp+8], eax
  00120	52		 push	 edx
  00121	8d 45 e4	 lea	 eax, DWORD PTR _pMsg$228686[ebp]
  00124	50		 push	 eax
  00125	57		 push	 edi
  00126	c6 45 e7 01	 mov	 BYTE PTR _pMsg$228686[ebp+3], 1
  0012a	89 4d e8	 mov	 DWORD PTR _pMsg$228686[ebp+4], ecx
  0012d	e8 00 00 00 00	 call	 ?DataSend@@YAHHPAEK@Z	; DataSend
  00132	83 c4 24	 add	 esp, 36			; 00000024H
$LN1@GDGetWareh@2:

; 2642 : 		}
; 2643 : 	}
; 2644 : 
; 2645 : 	lpObj->LoadWareHouseInfo = true;
; 2646 : 	lpObj->m_ReqWarehouseOpen = false;
; 2647 : 
; 2648 : 
; 2649 : 
; 2650 : }

  00135	8b 4d fc	 mov	 ecx, DWORD PTR __$ArrayPad$[ebp]
  00138	c6 86 54 10 00
	00 01		 mov	 BYTE PTR [esi+4180], 1
  0013f	c6 86 1c 11 00
	00 00		 mov	 BYTE PTR [esi+4380], 0
  00146	5e		 pop	 esi
  00147	33 cd		 xor	 ecx, ebp
  00149	5f		 pop	 edi
  0014a	e8 00 00 00 00	 call	 @__security_check_cookie@4
  0014f	8b e5		 mov	 esp, ebp
  00151	5d		 pop	 ebp
  00152	c3		 ret	 0
?GDGetWarehouseNoItem@@YAXPAUSDHP_GETWAREHOUSEDB_RESULT@@@Z ENDP ; GDGetWarehouseNoItem
_TEXT	ENDS
PUBLIC	__$ArrayPad$
PUBLIC	?GDUserItemSave@@YAXPAUOBJECTSTRUCT@@@Z		; GDUserItemSave
EXTRN	?ItemByteConvert16@@YAXPAEQAVCItem@@H@Z:PROC	; ItemByteConvert16
; Function compile flags: /Ogtp
;	COMDAT ?GDUserItemSave@@YAXPAUOBJECTSTRUCT@@@Z
_TEXT	SEGMENT
_pMsg$ = -3796						; size = 3790
__$ArrayPad$ = -4					; size = 4
_lpObj$ = 8						; size = 4
?GDUserItemSave@@YAXPAUOBJECTSTRUCT@@@Z PROC		; GDUserItemSave, COMDAT

; 2723 : {

  00000	55		 push	 ebp
  00001	8b ec		 mov	 ebp, esp
  00003	81 ec d4 0e 00
	00		 sub	 esp, 3796		; 00000ed4H
  00009	a1 00 00 00 00	 mov	 eax, DWORD PTR ___security_cookie
  0000e	33 c5		 xor	 eax, ebp
  00010	89 45 fc	 mov	 DWORD PTR __$ArrayPad$[ebp], eax
  00013	8b 45 08	 mov	 eax, DWORD PTR _lpObj$[ebp]

; 2724 : 	SDHP_DBCHAR_ITEMSAVE pMsg;
; 2725 : 
; 2726 : 	pMsg.h.c = 0xC2;
; 2727 : 	pMsg.h.headcode = 0x11;
; 2728 : 	pMsg.h.sizeH = HIBYTE(sizeof(pMsg));
; 2729 : 	pMsg.h.sizeL = LOBYTE(sizeof(pMsg));
; 2730 : 	memcpy(pMsg.Name, lpObj->Name, sizeof(pMsg.Name));

  00016	8b 50 7b	 mov	 edx, DWORD PTR [eax+123]
  00019	8b 48 77	 mov	 ecx, DWORD PTR [eax+119]
  0001c	89 95 34 f1 ff
	ff		 mov	 DWORD PTR _pMsg$[ebp+8], edx

; 2731 : 	ItemByteConvert16(pMsg.dbInventory, lpObj->pInventory, INVENTORY_SIZE);

  00022	8b 90 24 0e 00
	00		 mov	 edx, DWORD PTR [eax+3620]
  00028	89 8d 30 f1 ff
	ff		 mov	 DWORD PTR _pMsg$[ebp+4], ecx
  0002e	66 8b 48 7f	 mov	 cx, WORD PTR [eax+127]
  00032	68 ec 00 00 00	 push	 236			; 000000ecH
  00037	52		 push	 edx
  00038	8d 85 3a f1 ff
	ff		 lea	 eax, DWORD PTR _pMsg$[ebp+14]
  0003e	50		 push	 eax
  0003f	c7 85 2c f1 ff
	ff c2 0e ce 11	 mov	 DWORD PTR _pMsg$[ebp], 298716866 ; 11ce0ec2H
  00049	66 89 8d 38 f1
	ff ff		 mov	 WORD PTR _pMsg$[ebp+12], cx
  00050	e8 00 00 00 00	 call	 ?ItemByteConvert16@@YAXPAEQAVCItem@@H@Z ; ItemByteConvert16
  00055	83 c4 0c	 add	 esp, 12			; 0000000cH

; 2732 : 
; 2733 : 	cDBSMng.Send((char*)&pMsg, sizeof(pMsg));

  00058	68 ce 0e 00 00	 push	 3790			; 00000eceH
  0005d	8d 8d 2c f1 ff
	ff		 lea	 ecx, DWORD PTR _pMsg$[ebp]
  00063	51		 push	 ecx
  00064	b9 00 00 00 00	 mov	 ecx, OFFSET ?cDBSMng@@3VDBSockMng@@A ; cDBSMng
  00069	e8 00 00 00 00	 call	 ?Send@DBSockMng@@QAEHPADH@Z ; DBSockMng::Send

; 2734 : }

  0006e	8b 4d fc	 mov	 ecx, DWORD PTR __$ArrayPad$[ebp]
  00071	33 cd		 xor	 ecx, ebp
  00073	e8 00 00 00 00	 call	 @__security_check_cookie@4
  00078	8b e5		 mov	 esp, ebp
  0007a	5d		 pop	 ebp
  0007b	c3		 ret	 0
?GDUserItemSave@@YAXPAUOBJECTSTRUCT@@@Z ENDP		; GDUserItemSave
_TEXT	ENDS
PUBLIC	__$ArrayPad$
PUBLIC	?GDSetWarehouseMoney@@YAXH@Z			; GDSetWarehouseMoney
; Function compile flags: /Ogtp
;	COMDAT ?GDSetWarehouseMoney@@YAXH@Z
_TEXT	SEGMENT
_pMsg$ = -24						; size = 20
__$ArrayPad$ = -4					; size = 4
_aIndex$ = 8						; size = 4
?GDSetWarehouseMoney@@YAXH@Z PROC			; GDSetWarehouseMoney, COMDAT

; 2746 : {

  00000	55		 push	 ebp
  00001	8b ec		 mov	 ebp, esp
  00003	83 ec 18	 sub	 esp, 24			; 00000018H
  00006	a1 00 00 00 00	 mov	 eax, DWORD PTR ___security_cookie
  0000b	33 c5		 xor	 eax, ebp
  0000d	89 45 fc	 mov	 DWORD PTR __$ArrayPad$[ebp], eax
  00010	8b 4d 08	 mov	 ecx, DWORD PTR _aIndex$[ebp]

; 2747 : 	SDHP_WAREHOUSEMONEY_SAVE pMsg;
; 2748 : 
; 2749 : 	memcpy(pMsg.AccountID, gObj[aIndex].AccountID, sizeof(pMsg.AccountID));

  00013	8b c1		 mov	 eax, ecx
  00015	69 c0 50 2b 00
	00		 imul	 eax, 11088		; 00002b50H
  0001b	03 05 00 00 00
	00		 add	 eax, DWORD PTR ?gObj@@3PAUOBJECTSTRUCT@@A ; gObj

; 2750 : 	pMsg.aIndex = aIndex;
; 2751 : 	pMsg.h.c = 0xC1;
; 2752 : 	pMsg.h.headcode = 0x12;
; 2753 : 	pMsg.h.size = sizeof(pMsg);
; 2754 : 	pMsg.Money = gObj[aIndex].WarehouseMoney;
; 2755 : 
; 2756 : 	cDBSMng.Send((char*)&pMsg, sizeof(pMsg));

  00021	6a 14		 push	 20			; 00000014H
  00023	8b 50 6c	 mov	 edx, DWORD PTR [eax+108]
  00026	89 55 eb	 mov	 DWORD PTR _pMsg$[ebp+3], edx
  00029	8b 50 70	 mov	 edx, DWORD PTR [eax+112]
  0002c	89 55 ef	 mov	 DWORD PTR _pMsg$[ebp+7], edx
  0002f	66 8b 50 74	 mov	 dx, WORD PTR [eax+116]
  00033	66 89 4d f6	 mov	 WORD PTR _pMsg$[ebp+14], cx
  00037	8d 4d e8	 lea	 ecx, DWORD PTR _pMsg$[ebp]
  0003a	66 89 55 f3	 mov	 WORD PTR _pMsg$[ebp+11], dx
  0003e	c6 45 e8 c1	 mov	 BYTE PTR _pMsg$[ebp], 193 ; 000000c1H
  00042	66 c7 45 e9 14
	12		 mov	 WORD PTR _pMsg$[ebp+1], 4628 ; 00001214H
  00048	8b 80 6c 0e 00
	00		 mov	 eax, DWORD PTR [eax+3692]
  0004e	51		 push	 ecx
  0004f	b9 00 00 00 00	 mov	 ecx, OFFSET ?cDBSMng@@3VDBSockMng@@A ; cDBSMng
  00054	89 45 f8	 mov	 DWORD PTR _pMsg$[ebp+16], eax
  00057	e8 00 00 00 00	 call	 ?Send@DBSockMng@@QAEHPADH@Z ; DBSockMng::Send

; 2757 : }

  0005c	8b 4d fc	 mov	 ecx, DWORD PTR __$ArrayPad$[ebp]
  0005f	33 cd		 xor	 ecx, ebp
  00061	e8 00 00 00 00	 call	 @__security_check_cookie@4
  00066	8b e5		 mov	 esp, ebp
  00068	5d		 pop	 ebp
  00069	c3		 ret	 0
?GDSetWarehouseMoney@@YAXH@Z ENDP			; GDSetWarehouseMoney
_TEXT	ENDS
PUBLIC	?GDGameServerInfoSave@@YAXXZ			; GDGameServerInfoSave
; Function compile flags: /Ogtp
;	COMDAT ?GDGameServerInfoSave@@YAXXZ
_TEXT	SEGMENT
?GDGameServerInfoSave@@YAXXZ PROC			; GDGameServerInfoSave, COMDAT

; 2762 : 	return;
; 2763 : }

  00000	c3		 ret	 0
?GDGameServerInfoSave@@YAXXZ ENDP			; GDGameServerInfoSave
_TEXT	ENDS
PUBLIC	??_C@_0GG@PDKAJKAJ@Monster?5Item?5Drop?5Request?5?$FL?$CFs?$FN?5?$FL@ ; `string'
PUBLIC	??_C@_0CP@NAJCODAF@?$FLItemSerialCreateSend?$FN?5No?5Name?5I@ ; `string'
PUBLIC	__$ArrayPad$
PUBLIC	?ItemSerialCreateSend@@YAXHEEEHEEEEEHEE@Z	; ItemSerialCreateSend
EXTRN	?ItemAttribute@@3PAUITEM_ATTRIBUTE@@A:BYTE	; ItemAttribute
EXTRN	?ItemGetDurability@@YAHHHHH@Z:PROC		; ItemGetDurability
EXTRN	?LogAddTD@@3P6AXPADZZA:DWORD			; LogAddTD
EXTRN	?BlockItemDrop@CItemDropManager@@QAE_NHHH@Z:PROC ; CItemDropManager::BlockItemDrop
EXTRN	?gItemDropManager@@3VCItemDropManager@@A:BYTE	; gItemDropManager
;	COMDAT ??_C@_0GG@PDKAJKAJ@Monster?5Item?5Drop?5Request?5?$FL?$CFs?$FN?5?$FL@
CONST	SEGMENT
??_C@_0GG@PDKAJKAJ@Monster?5Item?5Drop?5Request?5?$FL?$CFs?$FN?5?$FL@ DB 'M'
	DB	'onster Item Drop Request [%s] [%d][%d][%d] : [%s][%d][%d][%d]'
	DB	'[%d] Ex:[%d,%d,%d,%d,%d,%d,%d] Set:[%d]', 00H ; `string'
CONST	ENDS
;	COMDAT ??_C@_0CP@NAJCODAF@?$FLItemSerialCreateSend?$FN?5No?5Name?5I@
CONST	SEGMENT
??_C@_0CP@NAJCODAF@?$FLItemSerialCreateSend?$FN?5No?5Name?5I@ DB '[ItemSe'
	DB	'rialCreateSend] No Name Item Drop Block', 00H ; `string'
; Function compile flags: /Ogtp
CONST	ENDS
;	COMDAT ?ItemSerialCreateSend@@YAXHEEEHEEEEEHEE@Z
_TEXT	SEGMENT
_pMsg$ = -44						; size = 32
_NewOption$228787 = -12					; size = 8
__$ArrayPad$ = -4					; size = 4
_aIndex$ = 8						; size = 4
_MapNumber$ = 12					; size = 1
_x$ = 16						; size = 1
_y$ = 20						; size = 1
_type$ = 24						; size = 4
_level$ = 28						; size = 1
_dur$ = 32						; size = 1
_Op1$ = 36						; size = 1
_Op2$ = 40						; size = 1
_Op3$ = 44						; size = 1
_LootIndex$ = 48					; size = 4
_NewOption$ = 52					; size = 1
_SetOption$ = 56					; size = 1
?ItemSerialCreateSend@@YAXHEEEHEEEEEHEE@Z PROC		; ItemSerialCreateSend, COMDAT

; 2790 : {

  00000	55		 push	 ebp
  00001	8b ec		 mov	 ebp, esp
  00003	83 ec 2c	 sub	 esp, 44			; 0000002cH
  00006	a1 00 00 00 00	 mov	 eax, DWORD PTR ___security_cookie
  0000b	33 c5		 xor	 eax, ebp
  0000d	89 45 fc	 mov	 DWORD PTR __$ArrayPad$[ebp], eax
  00010	53		 push	 ebx

; 2791 : 	if(MapNumber != 235 && MapNumber != 236)

  00011	8a 5d 0c	 mov	 bl, BYTE PTR _MapNumber$[ebp]
  00014	56		 push	 esi
  00015	8b 75 18	 mov	 esi, DWORD PTR _type$[ebp]
  00018	57		 push	 edi
  00019	8b 7d 08	 mov	 edi, DWORD PTR _aIndex$[ebp]
  0001c	80 fb eb	 cmp	 bl, 235			; 000000ebH
  0001f	74 1d		 je	 SHORT $LN17@ItemSerial
  00021	80 fb ec	 cmp	 bl, 236			; 000000ecH
  00024	74 18		 je	 SHORT $LN17@ItemSerial

; 2792 : 	{
; 2793 : 		if(!gItemDropManager.BlockItemDrop(aIndex,type,MapNumber)) return;

  00026	0f b6 c3	 movzx	 eax, bl
  00029	50		 push	 eax
  0002a	56		 push	 esi
  0002b	57		 push	 edi
  0002c	b9 00 00 00 00	 mov	 ecx, OFFSET ?gItemDropManager@@3VCItemDropManager@@A ; gItemDropManager
  00031	e8 00 00 00 00	 call	 ?BlockItemDrop@CItemDropManager@@QAE_NHHH@Z ; CItemDropManager::BlockItemDrop
  00036	84 c0		 test	 al, al
  00038	0f 84 a6 01 00
	00		 je	 $LN19@ItemSerial
$LN17@ItemSerial:

; 2794 : 	}
; 2795 : #ifdef DRYNEA_31_10
; 2796 : 	if(g_ZtLicense.CheckUser(eZtUB::drynea))

  0003e	6a 01		 push	 1
  00040	b9 00 00 00 00	 mov	 ecx, OFFSET ?g_ZtLicense@@3VCZtLicense@@A ; g_ZtLicense
  00045	e8 00 00 00 00	 call	 ?CheckUser@CZtLicense@@QAE_NH@Z ; CZtLicense::CheckUser
  0004a	84 c0		 test	 al, al
  0004c	74 11		 je	 SHORT $LN14@ItemSerial

; 2797 : 	{
; 2798 : 		if(MapNumber == 41)

  0004e	80 fb 29	 cmp	 bl, 41			; 00000029H
  00051	75 0c		 jne	 SHORT $LN14@ItemSerial

; 2799 : 		{
; 2800 : 			if(type != ITEMGET(14,209))

  00053	81 fe d1 1c 00
	00		 cmp	 esi, 7377		; 00001cd1H
  00059	0f 85 85 01 00
	00		 jne	 $LN19@ItemSerial
$LN14@ItemSerial:

; 2801 : 			{
; 2802 : 				return;
; 2803 : 			}
; 2804 : 		}
; 2805 : 	}
; 2806 : 
; 2807 : 	
; 2808 : #endif
; 2809 : 
; 2810 : #if(ITEM_NO_NAME_DROP_FIX==TRUE)
; 2811 : 	if(type == -1)

  0005f	83 fe ff	 cmp	 esi, -1
  00062	75 1f		 jne	 SHORT $LN13@ItemSerial

; 2812 : 	{
; 2813 : 		LogAddTD("[ItemSerialCreateSend] No Name Item Drop Block");

  00064	68 00 00 00 00	 push	 OFFSET ??_C@_0CP@NAJCODAF@?$FLItemSerialCreateSend?$FN?5No?5Name?5I@
  00069	ff 15 00 00 00
	00		 call	 DWORD PTR ?LogAddTD@@3P6AXPADZZA ; LogAddTD
  0006f	83 c4 04	 add	 esp, 4
  00072	5f		 pop	 edi
  00073	5e		 pop	 esi
  00074	5b		 pop	 ebx

; 2890 : }

  00075	8b 4d fc	 mov	 ecx, DWORD PTR __$ArrayPad$[ebp]
  00078	33 cd		 xor	 ecx, ebp
  0007a	e8 00 00 00 00	 call	 @__security_check_cookie@4
  0007f	8b e5		 mov	 esp, ebp
  00081	5d		 pop	 ebp
  00082	c3		 ret	 0
$LN13@ItemSerial:

; 2814 : 		return;
; 2815 : 	}
; 2816 : #endif
; 2817 : 
; 2818 : 	SDHP_ITEMCREATE  pMsg;
; 2819 : 
; 2820 : 	pMsg.h.c = 0xC1;
; 2821 : 	pMsg.h.headcode = 0x52;
; 2822 : 	pMsg.h.size = sizeof(pMsg);
; 2823 : 	pMsg.MapNumber = MapNumber;
; 2824 : 	pMsg.x = x;

  00083	8a 4d 10	 mov	 cl, BYTE PTR _x$[ebp]

; 2825 : 	pMsg.y = y;
; 2826 : 	pMsg.Type = type;
; 2827 : 	pMsg.Level = level;
; 2828 : 
; 2829 : 	if (dur == 0 )

  00086	8a 45 20	 mov	 al, BYTE PTR _dur$[ebp]
  00089	8a 55 14	 mov	 dl, BYTE PTR _y$[ebp]
  0008c	88 4d d7	 mov	 BYTE PTR _pMsg$[ebp+3], cl
  0008f	8a 4d 1c	 mov	 cl, BYTE PTR _level$[ebp]
  00092	c6 45 d4 c1	 mov	 BYTE PTR _pMsg$[ebp], 193 ; 000000c1H
  00096	66 c7 45 d5 20
	52		 mov	 WORD PTR _pMsg$[ebp+1], 21024 ; 00005220H
  0009c	88 5d d9	 mov	 BYTE PTR _pMsg$[ebp+5], bl
  0009f	88 55 d8	 mov	 BYTE PTR _pMsg$[ebp+4], dl
  000a2	66 89 75 da	 mov	 WORD PTR _pMsg$[ebp+6], si
  000a6	88 4d dc	 mov	 BYTE PTR _pMsg$[ebp+8], cl
  000a9	84 c0		 test	 al, al
  000ab	75 17		 jne	 SHORT $LN12@ItemSerial

; 2830 : 	{
; 2831 : 		dur = ItemGetDurability(type, level, NewOption, SetOption);

  000ad	0f b6 45 38	 movzx	 eax, BYTE PTR _SetOption$[ebp]
  000b1	0f b6 55 34	 movzx	 edx, BYTE PTR _NewOption$[ebp]
  000b5	50		 push	 eax
  000b6	0f b6 c1	 movzx	 eax, cl
  000b9	52		 push	 edx
  000ba	50		 push	 eax
  000bb	56		 push	 esi
  000bc	e8 00 00 00 00	 call	 ?ItemGetDurability@@YAHHHHH@Z ; ItemGetDurability
  000c1	83 c4 10	 add	 esp, 16			; 00000010H
$LN12@ItemSerial:

; 2832 : 	}
; 2833 : 
; 2834 : 	pMsg.Dur = dur;
; 2835 : 	pMsg.Op1 = Op1;

  000c4	8a 4d 24	 mov	 cl, BYTE PTR _Op1$[ebp]

; 2836 : 	pMsg.Op2 = Op2;

  000c7	8a 55 28	 mov	 dl, BYTE PTR _Op2$[ebp]
  000ca	88 45 dd	 mov	 BYTE PTR _pMsg$[ebp+9], al

; 2837 : 	pMsg.Op3 = Op3;

  000cd	8a 45 2c	 mov	 al, BYTE PTR _Op3$[ebp]
  000d0	88 4d de	 mov	 BYTE PTR _pMsg$[ebp+10], cl

; 2838 : 	pMsg.NewOption = NewOption;

  000d3	8a 4d 34	 mov	 cl, BYTE PTR _NewOption$[ebp]
  000d6	88 55 df	 mov	 BYTE PTR _pMsg$[ebp+11], dl

; 2839 : 	pMsg.aIndex = aIndex;
; 2840 : 	pMsg.lootindex = LootIndex;
; 2841 : 	pMsg.SetOption = SetOption;

  000d9	8a 55 38	 mov	 dl, BYTE PTR _SetOption$[ebp]
  000dc	88 45 e0	 mov	 BYTE PTR _pMsg$[ebp+12], al
  000df	8b 45 30	 mov	 eax, DWORD PTR _LootIndex$[ebp]
  000e2	88 4d e1	 mov	 BYTE PTR _pMsg$[ebp+13], cl
  000e5	89 7d e4	 mov	 DWORD PTR _pMsg$[ebp+16], edi
  000e8	66 89 45 e8	 mov	 WORD PTR _pMsg$[ebp+20], ax
  000ec	88 55 ea	 mov	 BYTE PTR _pMsg$[ebp+22], dl

; 2842 : 
; 2843 : #ifdef PERIOD
; 2844 : 	if( MapNumber == 236 )

  000ef	80 fb ec	 cmp	 bl, 236			; 000000ecH
  000f2	75 03		 jne	 SHORT $LN11@ItemSerial

; 2845 : 	{
; 2846 : 		pMsg.lDuration = LootIndex;

  000f4	89 45 ec	 mov	 DWORD PTR _pMsg$[ebp+24], eax
$LN11@ItemSerial:

; 2847 : 	}
; 2848 : #endif
; 2849 : 
; 2850 : 	if ( OBJMAX_RANGE(aIndex) != FALSE  && gObj[aIndex].Type != OBJ_USER )

  000f7	85 ff		 test	 edi, edi
  000f9	0f 88 d2 00 00
	00		 js	 $LN10@ItemSerial
  000ff	33 c0		 xor	 eax, eax
  00101	81 ff 97 3a 00
	00		 cmp	 edi, 14999		; 00003a97H
  00107	0f 9e c0	 setle	 al
  0010a	85 c0		 test	 eax, eax
  0010c	0f 84 bf 00 00
	00		 je	 $LN10@ItemSerial
  00112	69 ff 50 2b 00
	00		 imul	 edi, 11088		; 00002b50H
  00118	03 3d 00 00 00
	00		 add	 edi, DWORD PTR ?gObj@@3PAUOBJECTSTRUCT@@A ; gObj
  0011e	66 83 7f 68 01	 cmp	 WORD PTR [edi+104], 1
  00123	0f 84 a8 00 00
	00		 je	 $LN10@ItemSerial

; 2851 : 	{
; 2852 : 		BYTE NewOption[MAX_EXOPTION_SIZE];
; 2853 : 
; 2854 : 		for ( int i=0;i<MAX_EXOPTION_SIZE;i++)
; 2855 : 		{
; 2856 : 			NewOption[i] = 0;

  00129	33 c0		 xor	 eax, eax
  0012b	89 45 f4	 mov	 DWORD PTR _NewOption$228787[ebp], eax
  0012e	89 45 f8	 mov	 DWORD PTR _NewOption$228787[ebp+4], eax

; 2857 : 		}
; 2858 : 
; 2859 : 		if ( (pMsg.NewOption & 0x20) != 0 )

  00131	f6 c1 20	 test	 cl, 32			; 00000020H
  00134	74 04		 je	 SHORT $LN25@ItemSerial

; 2860 : 		{
; 2861 : 			NewOption[0] = TRUE;

  00136	c6 45 f4 01	 mov	 BYTE PTR _NewOption$228787[ebp], 1
$LN25@ItemSerial:

; 2862 : 		}
; 2863 : 		if ( (pMsg.NewOption & 0x10) != 0 )

  0013a	f6 c1 10	 test	 cl, 16			; 00000010H
  0013d	74 04		 je	 SHORT $LN26@ItemSerial

; 2864 : 		{
; 2865 : 			NewOption[1] = TRUE;

  0013f	c6 45 f5 01	 mov	 BYTE PTR _NewOption$228787[ebp+1], 1
$LN26@ItemSerial:

; 2866 : 		}
; 2867 : 
; 2868 : 		if ( (pMsg.NewOption & 0x8) != 0 )

  00143	f6 c1 08	 test	 cl, 8
  00146	74 04		 je	 SHORT $LN27@ItemSerial

; 2869 : 		{
; 2870 : 			NewOption[2] = TRUE;

  00148	c6 45 f6 01	 mov	 BYTE PTR _NewOption$228787[ebp+2], 1
$LN27@ItemSerial:

; 2871 : 		}
; 2872 : 		if ( (pMsg.NewOption & 0x4) != 0 )

  0014c	f6 c1 04	 test	 cl, 4
  0014f	74 04		 je	 SHORT $LN28@ItemSerial

; 2873 : 		{
; 2874 : 			NewOption[3] = TRUE;

  00151	c6 45 f7 01	 mov	 BYTE PTR _NewOption$228787[ebp+3], 1
$LN28@ItemSerial:

; 2875 : 		}
; 2876 : 
; 2877 : 		if ( (pMsg.NewOption & 0x2) != 0 )

  00155	f6 c1 02	 test	 cl, 2

; 2878 : 		{
; 2879 : 			NewOption[4] = TRUE;

  00158	b1 01		 mov	 cl, 1
  0015a	75 03		 jne	 SHORT $LN2@ItemSerial
  0015c	8a 4d f8	 mov	 cl, BYTE PTR _NewOption$228787[ebp+4]
$LN2@ItemSerial:

; 2880 : 		}
; 2881 : 		if ( (pMsg.NewOption & 0x1) != 0 )

  0015f	f6 45 34 01	 test	 BYTE PTR _NewOption$[ebp], 1

; 2882 : 		{
; 2883 : 			NewOption[5] = TRUE;

  00163	b0 01		 mov	 al, 1
  00165	75 03		 jne	 SHORT $LN1@ItemSerial
  00167	8a 45 f9	 mov	 al, BYTE PTR _NewOption$228787[ebp+5]
$LN1@ItemSerial:

; 2884 : 		}
; 2885 : 
; 2886 : 		LogAddTD("Monster Item Drop Request [%s] [%d][%d][%d] : [%s][%d][%d][%d][%d] Ex:[%d,%d,%d,%d,%d,%d,%d] Set:[%d]", gObj[aIndex].Name, MapNumber, pMsg.x, pMsg.y, ItemAttribute[pMsg.Type].Name, pMsg.Level, pMsg.Op1,pMsg.Op2, pMsg.Op3, NewOption[0], NewOption[1], NewOption[2], NewOption[3], NewOption[4],	NewOption[5], NewOption[6], pMsg.SetOption);

  0016a	0f b6 d2	 movzx	 edx, dl
  0016d	52		 push	 edx
  0016e	0f b6 55 fa	 movzx	 edx, BYTE PTR _NewOption$228787[ebp+6]
  00172	52		 push	 edx
  00173	0f b6 55 f7	 movzx	 edx, BYTE PTR _NewOption$228787[ebp+3]
  00177	0f b6 c0	 movzx	 eax, al
  0017a	50		 push	 eax
  0017b	0f b6 45 f6	 movzx	 eax, BYTE PTR _NewOption$228787[ebp+2]
  0017f	0f b6 c9	 movzx	 ecx, cl
  00182	51		 push	 ecx
  00183	0f b6 4d f5	 movzx	 ecx, BYTE PTR _NewOption$228787[ebp+1]
  00187	52		 push	 edx
  00188	0f b6 55 f4	 movzx	 edx, BYTE PTR _NewOption$228787[ebp]
  0018c	50		 push	 eax
  0018d	0f b6 45 2c	 movzx	 eax, BYTE PTR _Op3$[ebp]
  00191	51		 push	 ecx
  00192	0f b6 4d 28	 movzx	 ecx, BYTE PTR _Op2$[ebp]
  00196	52		 push	 edx
  00197	0f b6 55 24	 movzx	 edx, BYTE PTR _Op1$[ebp]
  0019b	50		 push	 eax
  0019c	0f b6 45 dc	 movzx	 eax, BYTE PTR _pMsg$[ebp+8]
  001a0	51		 push	 ecx
  001a1	0f bf 4d da	 movsx	 ecx, WORD PTR _pMsg$[ebp+6]
  001a5	6b c9 70	 imul	 ecx, 112		; 00000070H
  001a8	52		 push	 edx
  001a9	0f b6 55 d8	 movzx	 edx, BYTE PTR _pMsg$[ebp+4]
  001ad	50		 push	 eax
  001ae	0f b6 45 d7	 movzx	 eax, BYTE PTR _pMsg$[ebp+3]
  001b2	81 c1 00 00 00
	00		 add	 ecx, OFFSET ?ItemAttribute@@3PAUITEM_ATTRIBUTE@@A ; ItemAttribute
  001b8	51		 push	 ecx
  001b9	52		 push	 edx
  001ba	50		 push	 eax
  001bb	0f b6 cb	 movzx	 ecx, bl
  001be	51		 push	 ecx
  001bf	83 c7 77	 add	 edi, 119		; 00000077H
  001c2	57		 push	 edi
  001c3	68 00 00 00 00	 push	 OFFSET ??_C@_0GG@PDKAJKAJ@Monster?5Item?5Drop?5Request?5?$FL?$CFs?$FN?5?$FL@
  001c8	ff 15 00 00 00
	00		 call	 DWORD PTR ?LogAddTD@@3P6AXPADZZA ; LogAddTD
  001ce	83 c4 48	 add	 esp, 72			; 00000048H
$LN10@ItemSerial:

; 2887 : 	}
; 2888 : 
; 2889 : 	cDBSMng.Send( (char*)&pMsg, pMsg.h.size);

  001d1	0f b6 55 d5	 movzx	 edx, BYTE PTR _pMsg$[ebp+1]
  001d5	52		 push	 edx
  001d6	8d 45 d4	 lea	 eax, DWORD PTR _pMsg$[ebp]
  001d9	50		 push	 eax
  001da	b9 00 00 00 00	 mov	 ecx, OFFSET ?cDBSMng@@3VDBSockMng@@A ; cDBSMng
  001df	e8 00 00 00 00	 call	 ?Send@DBSockMng@@QAEHPADH@Z ; DBSockMng::Send
$LN19@ItemSerial:

; 2890 : }

  001e4	8b 4d fc	 mov	 ecx, DWORD PTR __$ArrayPad$[ebp]
  001e7	5f		 pop	 edi
  001e8	5e		 pop	 esi
  001e9	33 cd		 xor	 ecx, ebp
  001eb	5b		 pop	 ebx
  001ec	e8 00 00 00 00	 call	 @__security_check_cookie@4
  001f1	8b e5		 mov	 esp, ebp
  001f3	5d		 pop	 ebp
  001f4	c3		 ret	 0
?ItemSerialCreateSend@@YAXHEEEHEEEEEHEE@Z ENDP		; ItemSerialCreateSend
_TEXT	ENDS
PUBLIC	__$ArrayPad$
PUBLIC	?PetItemSerialCreateSend@@YAXHEEEHEEEEEHEE@Z	; PetItemSerialCreateSend
; Function compile flags: /Ogtp
;	COMDAT ?PetItemSerialCreateSend@@YAXHEEEHEEEEEHEE@Z
_TEXT	SEGMENT
_pMsg$ = -36						; size = 32
__$ArrayPad$ = -4					; size = 4
_aIndex$ = 8						; size = 4
_MapNumber$ = 12					; size = 1
_x$ = 16						; size = 1
_y$ = 20						; size = 1
_type$ = 24						; size = 4
_level$ = 28						; size = 1
_dur$ = 32						; size = 1
_Op1$ = 36						; size = 1
_Op2$ = 40						; size = 1
_Op3$ = 44						; size = 1
_LootIndex$ = 48					; size = 4
_NewOption$ = 52					; size = 1
_SetOption$ = 56					; size = 1
?PetItemSerialCreateSend@@YAXHEEEHEEEEEHEE@Z PROC	; PetItemSerialCreateSend, COMDAT

; 2894 : {

  00000	55		 push	 ebp
  00001	8b ec		 mov	 ebp, esp
  00003	83 ec 24	 sub	 esp, 36			; 00000024H
  00006	a1 00 00 00 00	 mov	 eax, DWORD PTR ___security_cookie
  0000b	33 c5		 xor	 eax, ebp
  0000d	89 45 fc	 mov	 DWORD PTR __$ArrayPad$[ebp], eax

; 2895 : 	SDHP_ITEMCREATE  pMsg;
; 2896 : 
; 2897 : 	pMsg.h.c = 0xC1;
; 2898 : 	pMsg.h.headcode = 0x55;
; 2899 : 	pMsg.h.size = sizeof(pMsg);
; 2900 : 	pMsg.MapNumber = MapNumber;

  00010	8a 45 0c	 mov	 al, BYTE PTR _MapNumber$[ebp]

; 2901 : 	pMsg.x = x;

  00013	8a 4d 10	 mov	 cl, BYTE PTR _x$[ebp]

; 2902 : 	pMsg.y = y;

  00016	8a 55 14	 mov	 dl, BYTE PTR _y$[ebp]
  00019	88 45 e1	 mov	 BYTE PTR _pMsg$[ebp+5], al

; 2903 : 	pMsg.Type = type;
; 2904 : 	pMsg.Level = level;
; 2905 : 
; 2906 : 	if (dur == 0 )

  0001c	8a 45 20	 mov	 al, BYTE PTR _dur$[ebp]
  0001f	88 4d df	 mov	 BYTE PTR _pMsg$[ebp+3], cl
  00022	8b 4d 18	 mov	 ecx, DWORD PTR _type$[ebp]
  00025	88 55 e0	 mov	 BYTE PTR _pMsg$[ebp+4], dl
  00028	8a 55 1c	 mov	 dl, BYTE PTR _level$[ebp]
  0002b	53		 push	 ebx
  0002c	8a 5d 38	 mov	 bl, BYTE PTR _SetOption$[ebp]
  0002f	c6 45 dc c1	 mov	 BYTE PTR _pMsg$[ebp], 193 ; 000000c1H
  00033	66 c7 45 dd 20
	55		 mov	 WORD PTR _pMsg$[ebp+1], 21792 ; 00005520H
  00039	66 89 4d e2	 mov	 WORD PTR _pMsg$[ebp+6], cx
  0003d	88 55 e4	 mov	 BYTE PTR _pMsg$[ebp+8], dl
  00040	84 c0		 test	 al, al
  00042	75 16		 jne	 SHORT $LN1@PetItemSer

; 2907 : 	{
; 2908 : 		dur = ItemGetDurability(type, level, NewOption, SetOption);

  00044	0f b6 c3	 movzx	 eax, bl
  00047	50		 push	 eax
  00048	0f b6 45 34	 movzx	 eax, BYTE PTR _NewOption$[ebp]
  0004c	0f b6 d2	 movzx	 edx, dl
  0004f	50		 push	 eax
  00050	52		 push	 edx
  00051	51		 push	 ecx
  00052	e8 00 00 00 00	 call	 ?ItemGetDurability@@YAHHHHH@Z ; ItemGetDurability
  00057	83 c4 10	 add	 esp, 16			; 00000010H
$LN1@PetItemSer:

; 2909 : 	}
; 2910 : 
; 2911 : 	pMsg.Dur = dur;
; 2912 : 	pMsg.Op1 = Op1;
; 2913 : 	pMsg.Op2 = Op2;

  0005a	8a 4d 28	 mov	 cl, BYTE PTR _Op2$[ebp]

; 2914 : 	pMsg.Op3 = Op3;

  0005d	8a 55 2c	 mov	 dl, BYTE PTR _Op3$[ebp]
  00060	88 45 e5	 mov	 BYTE PTR _pMsg$[ebp+9], al
  00063	8a 45 24	 mov	 al, BYTE PTR _Op1$[ebp]
  00066	88 45 e6	 mov	 BYTE PTR _pMsg$[ebp+10], al

; 2915 : 	pMsg.NewOption = NewOption;

  00069	8a 45 34	 mov	 al, BYTE PTR _NewOption$[ebp]
  0006c	88 4d e7	 mov	 BYTE PTR _pMsg$[ebp+11], cl

; 2916 : 	pMsg.aIndex = aIndex;

  0006f	8b 4d 08	 mov	 ecx, DWORD PTR _aIndex$[ebp]
  00072	88 45 e9	 mov	 BYTE PTR _pMsg$[ebp+13], al

; 2917 : 	pMsg.lootindex = LootIndex;
; 2918 : 	pMsg.SetOption = SetOption;
; 2919 : 
; 2920 : 	cDBSMng.Send( (char*)&pMsg, pMsg.h.size);

  00075	0f b6 45 dd	 movzx	 eax, BYTE PTR _pMsg$[ebp+1]
  00079	89 4d ec	 mov	 DWORD PTR _pMsg$[ebp+16], ecx
  0007c	50		 push	 eax
  0007d	8d 4d dc	 lea	 ecx, DWORD PTR _pMsg$[ebp]
  00080	88 55 e8	 mov	 BYTE PTR _pMsg$[ebp+12], dl
  00083	66 8b 55 30	 mov	 dx, WORD PTR _LootIndex$[ebp]
  00087	51		 push	 ecx
  00088	b9 00 00 00 00	 mov	 ecx, OFFSET ?cDBSMng@@3VDBSockMng@@A ; cDBSMng
  0008d	66 89 55 f0	 mov	 WORD PTR _pMsg$[ebp+20], dx
  00091	88 5d f2	 mov	 BYTE PTR _pMsg$[ebp+22], bl
  00094	e8 00 00 00 00	 call	 ?Send@DBSockMng@@QAEHPADH@Z ; DBSockMng::Send

; 2921 : }

  00099	8b 4d fc	 mov	 ecx, DWORD PTR __$ArrayPad$[ebp]
  0009c	33 cd		 xor	 ecx, ebp
  0009e	5b		 pop	 ebx
  0009f	e8 00 00 00 00	 call	 @__security_check_cookie@4
  000a4	8b e5		 mov	 esp, ebp
  000a6	5d		 pop	 ebp
  000a7	c3		 ret	 0
?PetItemSerialCreateSend@@YAXHEEEHEEEEEHEE@Z ENDP	; PetItemSerialCreateSend
_TEXT	ENDS
PUBLIC	??_C@_0GA@MJMGDDA@?$FL?$CFs?$FN?$FL?$CFs?$FN?5CBMix?5Item?5Create?5Item?3@ ; `string'
PUBLIC	??_C@_0BN@BDLDNMBN@error?9L2?3?5ChaosBox?5not?5used?4?$AA@ ; `string'
PUBLIC	??_C@_0CD@JBKACADO@error?9L2?3?5DarkTrainerBox?5not?5use@ ; `string'
PUBLIC	??_C@_0BC@OFCHNMFP@error?9L3?5?$FL?$CFs?$FN?$FL?$CFd?$FN?$AA@ ; `string'
PUBLIC	??_C@_0GD@IBNDEANJ@Monster?5Item?5Drop?5?$FL?$CFd?$FN?$FL?$CFd?$FN?$FL?$CFd?$FN?5?3@ ; `string'
PUBLIC	??_C@_0IG@JDKHCHPG@?$FLSocketItem?$FN?5Drop?5Socket?5Item?5?$CI?5@ ; `string'
PUBLIC	??_C@_0FC@JMDFINCJ@?$FLLuckyCoin?5Trade?$FN?5Error?5?3?5Failed@ ; `string'
PUBLIC	??_C@_0EL@KDEJKEEJ@?$FLCashShop?$FN?5Error?5?3?5Failed?5To?5Ins@ ; `string'
PUBLIC	__$ArrayPad$
PUBLIC	?ItemSerialCreateRecv@@YAXPAUSDHP_ITEMCREATERECV@@@Z ; ItemSerialCreateRecv
EXTRN	?GetName@CItem@@QAEPADXZ:PROC			; CItem::GetName
EXTRN	?ItemIsBufExOption@@YAXPAEPAVCItem@@@Z:PROC	; ItemIsBufExOption
EXTRN	?gObjChaosItemSet@@YAXHHE@Z:PROC		; gObjChaosItemSet
EXTRN	?gObjChaosBoxInsertItemPos@@YAEHVCItem@@HH@Z:PROC ; gObjChaosBoxInsertItemPos
EXTRN	?ChaosBoxInit@CMixSystem@@QAEHPAUOBJECTSTRUCT@@@Z:PROC ; CMixSystem::ChaosBoxInit
EXTRN	?g_MixSystem@@3VCMixSystem@@A:BYTE		; g_MixSystem
EXTRN	?SockeetItem@cGrandHero@@QAE_NH@Z:PROC		; cGrandHero::SockeetItem
EXTRN	?GrandHero@@3VcGrandHero@@A:BYTE		; GrandHero
EXTRN	?gObjIsConnectedGP@@YAHH@Z:PROC			; gObjIsConnectedGP
EXTRN	?GetBridgeIndex@CBloodCastle@@QAEHH@Z:PROC	; CBloodCastle::GetBridgeIndex
EXTRN	__imp__GetTickCount@0:PROC
EXTRN	?MonsterItemDrop@MapClass@@QAEHHHMHHEEEEEHKEQAEE@Z:PROC ; MapClass::MonsterItemDrop
EXTRN	?MapC@@3PAVMapClass@@A:BYTE			; MapC
EXTRN	?GetRandomSlotCount@CSocketOption@@QAEEH@Z:PROC	; CSocketOption::GetRandomSlotCount
EXTRN	?GetItemMapNumberSecond@CBloodCastle@@QAEHH@Z:PROC ; CBloodCastle::GetItemMapNumberSecond
EXTRN	?GetItemMapNumberFirst@CBloodCastle@@QAEHH@Z:PROC ; CBloodCastle::GetItemMapNumberFirst
EXTRN	?g_BloodCastle@@3VCBloodCastle@@A:BYTE		; g_BloodCastle
EXTRN	?GCSendLuckyCoinResult@@YAXHE@Z:PROC		; GCSendLuckyCoinResult
EXTRN	?SetPeriodItemInfo@CPeriodItemZt@@QAE_NPAUOBJECTSTRUCT@@GKK@Z:PROC ; CPeriodItemZt::SetPeriodItemInfo
EXTRN	?g_PeriodItemZt@@3VCPeriodItemZt@@A:BYTE	; g_PeriodItemZt
EXTRN	?GCInventoryItemOneSend@@YAXHH@Z:PROC		; GCInventoryItemOneSend
EXTRN	?gObjInventoryInsertItem@@YAEHVCItem@@@Z:PROC	; gObjInventoryInsertItem
EXTRN	?Convert@CItem@@QAEXHEEEEEEPAEEEE@Z:PROC	; CItem::Convert
EXTRN	?CheckItemType@CSocketOption@@QAEEH@Z:PROC	; CSocketOption::CheckItemType
EXTRN	?g_SocketOption@@3VCSocketOption@@A:BYTE	; g_SocketOption
EXTRN	??0CItem@@QAE@XZ:PROC				; CItem::CItem
EXTRN	__fltused:DWORD
;	COMDAT ??_C@_0GA@MJMGDDA@?$FL?$CFs?$FN?$FL?$CFs?$FN?5CBMix?5Item?5Create?5Item?3@
CONST	SEGMENT
??_C@_0GA@MJMGDDA@?$FL?$CFs?$FN?$FL?$CFs?$FN?5CBMix?5Item?5Create?5Item?3@ DB '['
	DB	'%s][%s] CBMix Item Create Item:%s [%u][%d] [%d][%d][%d][%d] E'
	DB	'x:[%d,%d,%d,%d,%d,%d,%d] Set:[%d]', 00H	; `string'
CONST	ENDS
;	COMDAT ??_C@_0BN@BDLDNMBN@error?9L2?3?5ChaosBox?5not?5used?4?$AA@
CONST	SEGMENT
??_C@_0BN@BDLDNMBN@error?9L2?3?5ChaosBox?5not?5used?4?$AA@ DB 'error-L2: '
	DB	'ChaosBox not used.', 00H			; `string'
CONST	ENDS
;	COMDAT ??_C@_0CD@JBKACADO@error?9L2?3?5DarkTrainerBox?5not?5use@
CONST	SEGMENT
??_C@_0CD@JBKACADO@error?9L2?3?5DarkTrainerBox?5not?5use@ DB 'error-L2: D'
	DB	'arkTrainerBox not used.', 00H		; `string'
CONST	ENDS
;	COMDAT ??_C@_0BC@OFCHNMFP@error?9L3?5?$FL?$CFs?$FN?$FL?$CFd?$FN?$AA@
CONST	SEGMENT
??_C@_0BC@OFCHNMFP@error?9L3?5?$FL?$CFs?$FN?$FL?$CFd?$FN?$AA@ DB 'error-L'
	DB	'3 [%s][%d]', 00H				; `string'
CONST	ENDS
;	COMDAT ??_C@_0GD@IBNDEANJ@Monster?5Item?5Drop?5?$FL?$CFd?$FN?$FL?$CFd?$FN?$FL?$CFd?$FN?5?3@
CONST	SEGMENT
??_C@_0GD@IBNDEANJ@Monster?5Item?5Drop?5?$FL?$CFd?$FN?$FL?$CFd?$FN?$FL?$CFd?$FN?5?3@ DB 'M'
	DB	'onster Item Drop [%d][%d][%d] : serial:%u [%s][%d][%d][%d][%d'
	DB	'] Ex:[%d,%d,%d,%d,%d,%d,%d] Set:[%d]', 00H	; `string'
CONST	ENDS
;	COMDAT ??_C@_0IG@JDKHCHPG@?$FLSocketItem?$FN?5Drop?5Socket?5Item?5?$CI?5@
CONST	SEGMENT
??_C@_0IG@JDKHCHPG@?$FLSocketItem?$FN?5Drop?5Socket?5Item?5?$CI?5@ DB '[S'
	DB	'ocketItem] Drop Socket Item ( Socket Slot : %d ) - %s, [%d,%d'
	DB	',%d,%d], Serial : %u, ItemCode : %d, Level : %d, MapNumber : '
	DB	'%d(%d/%d)', 00H				; `string'
CONST	ENDS
;	COMDAT ??_C@_0FC@JMDFINCJ@?$FLLuckyCoin?5Trade?$FN?5Error?5?3?5Failed@
CONST	SEGMENT
??_C@_0FC@JMDFINCJ@?$FLLuckyCoin?5Trade?$FN?5Error?5?3?5Failed@ DB '[Luck'
	DB	'yCoin Trade] Error : Failed To Insert Item Type:%d, TypeIndex'
	DB	':%d to [%s][%s]', 00H			; `string'
CONST	ENDS
;	COMDAT ??_C@_0EL@KDEJKEEJ@?$FLCashShop?$FN?5Error?5?3?5Failed?5To?5Ins@
CONST	SEGMENT
??_C@_0EL@KDEJKEEJ@?$FLCashShop?$FN?5Error?5?3?5Failed?5To?5Ins@ DB '[Cas'
	DB	'hShop] Error : Failed To Insert Item Type:%d, TypeIndex:%d to'
	DB	' [%s][%s]', 00H				; `string'
; Function compile flags: /Ogtp
CONST	ENDS
;	COMDAT ?ItemSerialCreateRecv@@YAXPAUSDHP_ITEMCREATERECV@@@Z
_TEXT	SEGMENT
_btItemPos$228901 = -269				; size = 1
tv1519 = -268						; size = 4
_iItemType$228913 = -268				; size = 4
_iItemType$228899 = -268				; size = 4
_iItemType$228882 = -268				; size = 4
_mapnumber$ = -268					; size = 4
_pCreateItem$228912 = -264				; size = 212
_pCreateItem$228898 = -264				; size = 212
_pCreateItem$228881 = -264				; size = 212
_NewItem$228848 = -264					; size = 212
_pMsg$228843 = -52					; size = 16
tv1415 = -36						; size = 4
_SocketOption$228925 = -36				; size = 5
_CS_Item$228885 = -36					; size = 5
_ExOption$228876 = -28					; size = 8
tv1571 = -24						; size = 4
tv1427 = -24						; size = 4
_lootindex$ = -24					; size = 4
_NewOption$228948 = -20					; size = 8
tv1723 = -16						; size = 4
tv1682 = -16						; size = 4
tv1649 = -16						; size = 4
_iRetMapNumber$228921 = -16				; size = 4
_lpObj$ = -16						; size = 4
tv1614 = -12						; size = 4
tv1572 = -12						; size = 4
tv1570 = -12						; size = 4
tv1569 = -12						; size = 4
_iItemCount$228940 = -12				; size = 4
_iItemIndex$228914 = -12				; size = 4
_iItemIndex$228900 = -12				; size = 4
_iItemIndex$228883 = -12				; size = 4
_Sockeet$228872 = -12					; size = 5
_Sockeet$228869 = -12					; size = 5
_Sockeet$228866 = -12					; size = 5
_Sockeet$228863 = -12					; size = 5
_Sockeet$228860 = -12					; size = 5
_Sockeet$228854 = -12					; size = 5
_SocketOptionIndex$228926 = -11				; size = 1
__$ArrayPad$ = -4					; size = 4
_lpMsg$ = 8						; size = 4
?ItemSerialCreateRecv@@YAXPAUSDHP_ITEMCREATERECV@@@Z PROC ; ItemSerialCreateRecv, COMDAT

; 2925 : {

  00000	55		 push	 ebp
  00001	8b ec		 mov	 ebp, esp
  00003	81 ec 10 01 00
	00		 sub	 esp, 272		; 00000110H
  00009	a1 00 00 00 00	 mov	 eax, DWORD PTR ___security_cookie
  0000e	33 c5		 xor	 eax, ebp
  00010	89 45 fc	 mov	 DWORD PTR __$ArrayPad$[ebp], eax
  00013	53		 push	 ebx
  00014	8b 5d 08	 mov	 ebx, DWORD PTR _lpMsg$[ebp]
  00017	56		 push	 esi
  00018	57		 push	 edi

; 2926 : #if(DANGER_FIX==TRUE)
; 2927 : 	if(!lpMsg)

  00019	85 db		 test	 ebx, ebx
  0001b	0f 84 ff 0b 00
	00		 je	 $LN28@ItemSerial@2

; 2928 : 	{
; 2929 : 		return;
; 2930 : 	}
; 2931 : #endif
; 2932 : 
; 2933 : 	LPOBJ lpObj;
; 2934 : 	int mapnumber = lpMsg->MapNumber;

  00021	8a 43 05	 mov	 al, BYTE PTR [ebx+5]

; 2935 : 	int aIndex = lpMsg->aIndex;
; 2936 : 	int lootindex = lpMsg->lootindex;

  00024	0f bf 4b 18	 movsx	 ecx, WORD PTR [ebx+24]
  00028	8b 7b 14	 mov	 edi, DWORD PTR [ebx+20]
  0002b	0f b6 f0	 movzx	 esi, al
  0002e	89 b5 f4 fe ff
	ff		 mov	 DWORD PTR _mapnumber$[ebp], esi
  00034	89 7d dc	 mov	 DWORD PTR tv1415[ebp], edi
  00037	89 4d e8	 mov	 DWORD PTR _lootindex$[ebp], ecx

; 2937 : 
; 2938 : 	if ( mapnumber != (BYTE)-1 )

  0003a	81 fe ff 00 00
	00		 cmp	 esi, 255		; 000000ffH
  00040	74 17		 je	 SHORT $LN82@ItemSerial@2

; 2939 : 	{
; 2940 : 		if ( mapnumber < 0 || (mapnumber > MAX_NUMBER_MAP-1 && mapnumber < 235) )

  00042	85 f6		 test	 esi, esi
  00044	0f 88 d6 0b 00
	00		 js	 $LN28@ItemSerial@2
  0004a	8d 56 ad	 lea	 edx, DWORD PTR [esi-83]
  0004d	81 fa 97 00 00
	00		 cmp	 edx, 151		; 00000097H

; 2941 : 		{
; 2942 : 			return;

  00053	0f 86 c7 0b 00
	00		 jbe	 $LN28@ItemSerial@2
$LN82@ItemSerial@2:

; 2943 : 		}
; 2944 : 	}
; 2945 : 
; 2946 : 	if ( lpMsg->MapNumber == (BYTE)-1 || lpMsg->MapNumber == (BYTE)-2 )

  00059	3c ff		 cmp	 al, 255			; 000000ffH
  0005b	0f 84 ac 07 00
	00		 je	 $LN79@ItemSerial@2
  00061	3c fe		 cmp	 al, 254			; 000000feH
  00063	0f 84 a4 07 00
	00		 je	 $LN79@ItemSerial@2

; 3075 : 		return;
; 3076 : 	}
; 3077 : 
; 3078 : 	if ( lpMsg->MapNumber == 235 )

  00069	3c eb		 cmp	 al, 235			; 000000ebH
  0006b	0f 85 90 01 00
	00		 jne	 $LN51@ItemSerial@2

; 3079 : 	{
; 3080 : 		//if ( gObj[lpMsg->aIndex].Connected > PLAYER_CONNECTED )
; 3081 : 		//{
; 3082 : 		//	int iType  = ITEM_GET_TYPE(lpMsg->Type);
; 3083 : 		//	int iTypeIndex = ITEM_GET_INDEX(lpMsg->Type);
; 3084 : 
; 3085 : 		//	BYTE iItemPos = gObjInventoryInsertItem(&gObj[lpMsg->aIndex], iType, iTypeIndex, lpMsg->Level, lpMsg->m_Number, lpMsg->Dur);
; 3086 : 
; 3087 : 		//	if ( iItemPos == (BYTE)-1 )
; 3088 : 		//	{
; 3089 : 		//		LogAddTD("[Mu_2Anv_Event] Error : Failed To Gift Item Type:%d, TypeIndex:%d to [%s][%s]", iType, iTypeIndex, gObj[lpMsg->aIndex].AccountID, gObj[lpMsg->aIndex].Name);
; 3090 : 		//	}
; 3091 : 		//	else
; 3092 : 		//	{
; 3093 : 		//		::GCInventoryItemOneSend(lpMsg->aIndex, iItemPos);
; 3094 : 		//	}
; 3095 : 		//}
; 3096 : 
; 3097 : 		if ( gObj[lpMsg->aIndex].Connected > PLAYER_CONNECTED )

  00071	a1 00 00 00 00	 mov	 eax, DWORD PTR ?gObj@@3PAUOBJECTSTRUCT@@A ; gObj
  00076	69 ff 50 2b 00
	00		 imul	 edi, 11088		; 00002b50H
  0007c	83 7c 07 04 01	 cmp	 DWORD PTR [edi+eax+4], 1
  00081	0f 8e 99 0b 00
	00		 jle	 $LN28@ItemSerial@2

; 3098 : 		{
; 3099 : 			CItem pCreateItem;

  00087	8d 8d f8 fe ff
	ff		 lea	 ecx, DWORD PTR _pCreateItem$228881[ebp]
  0008d	e8 00 00 00 00	 call	 ??0CItem@@QAE@XZ	; CItem::CItem

; 3100 : 			int iItemType = ITEM_GET_TYPE(lpMsg->Type);

  00092	0f bf 4b 0c	 movsx	 ecx, WORD PTR [ebx+12]
  00096	8b c1		 mov	 eax, ecx
  00098	99		 cdq
  00099	81 e2 ff 01 00
	00		 and	 edx, 511		; 000001ffH
  0009f	03 c2		 add	 eax, edx
  000a1	c1 f8 09	 sar	 eax, 9

; 3101 : 			int iItemIndex	= ITEM_GET_INDEX(lpMsg->Type);

  000a4	81 e1 ff 01 00
	80		 and	 ecx, -2147483137	; 800001ffH
  000aa	89 85 f4 fe ff
	ff		 mov	 DWORD PTR _iItemType$228882[ebp], eax
  000b0	79 08		 jns	 SHORT $LN103@ItemSerial@2
  000b2	49		 dec	 ecx
  000b3	81 c9 00 fe ff
	ff		 or	 ecx, -512		; fffffe00H
  000b9	41		 inc	 ecx
$LN103@ItemSerial@2:

; 3102 : #ifdef PERIOD
; 3103 : 			//if(lpMsg->x == 1 && lpMsg->y == 1)	//Credit   Himik bla
; 3104 : 			//{
; 3105 : 			//	pCreateItem.m_Number = 1;//lpMsg->m_Number;
; 3106 : 			//}
; 3107 : 			//else if(lpMsg->x == 2 && lpMsg->y == 2)
; 3108 : 			//{
; 3109 : 			//	pCreateItem.m_Number = 2;//lpMsg->m_Number;
; 3110 : 			//}
; 3111 : 			//else
; 3112 : 			{
; 3113 : 				pCreateItem.m_Number = lpMsg->m_Number;

  000ba	8b 53 08	 mov	 edx, DWORD PTR [ebx+8]
  000bd	89 95 f8 fe ff
	ff		 mov	 DWORD PTR _pCreateItem$228881[ebp], edx

; 3114 : 			}
; 3115 : #endif
; 3116 : 			pCreateItem.m_Level = lpMsg->Level;//Season 4.5 changed position

  000c3	0f b6 53 0e	 movzx	 edx, BYTE PTR [ebx+14]
  000c7	66 89 95 00 ff
	ff ff		 mov	 WORD PTR _pCreateItem$228881[ebp+8], dx

; 3117 : 			pCreateItem.m_Durability = lpMsg->Dur;//Season 4.5 changed positionhfm

  000ce	0f b6 53 0f	 movzx	 edx, BYTE PTR [ebx+15]
  000d2	89 55 f0	 mov	 DWORD PTR tv1723[ebp], edx

; 3118 : 
; 3119 : 			if ( g_SocketOption.CheckItemType(ITEMGET(iItemType, iItemIndex)) == 1 )

  000d5	c1 e0 09	 shl	 eax, 9
  000d8	db 45 f0	 fild	 DWORD PTR tv1723[ebp]
  000db	8d 34 08	 lea	 esi, DWORD PTR [eax+ecx]
  000de	89 4d f4	 mov	 DWORD PTR _iItemIndex$228883[ebp], ecx
  000e1	56		 push	 esi
  000e2	b9 00 00 00 00	 mov	 ecx, OFFSET ?g_SocketOption@@3VCSocketOption@@A ; g_SocketOption
  000e7	d9 9d 1c ff ff
	ff		 fstp	 DWORD PTR _pCreateItem$228881[ebp+36]
  000ed	e8 00 00 00 00	 call	 ?CheckItemType@CSocketOption@@QAEEH@Z ; CSocketOption::CheckItemType

; 3120 : 			{
; 3121 : 				BYTE CS_Item[5] = {0xFE,0xFE,0xFE,0xFE,0xFE};
; 3122 : 				pCreateItem.Convert(ITEMGET(iItemType, iItemIndex), lpMsg->Op1, lpMsg->Op2, lpMsg->Op3, lpMsg->NewOption, lpMsg->SetOption, 0, CS_Item, 0xFF, 0, 3);

  000f2	6a 03		 push	 3
  000f4	6a 00		 push	 0
  000f6	68 ff 00 00 00	 push	 255			; 000000ffH
  000fb	3c 01		 cmp	 al, 1
  000fd	75 2c		 jne	 SHORT $LN49@ItemSerial@2
  000ff	0f b6 4b 1a	 movzx	 ecx, BYTE PTR [ebx+26]
  00103	0f b6 53 13	 movzx	 edx, BYTE PTR [ebx+19]
  00107	8d 45 dc	 lea	 eax, DWORD PTR _CS_Item$228885[ebp]
  0010a	50		 push	 eax
  0010b	0f b6 43 12	 movzx	 eax, BYTE PTR [ebx+18]
  0010f	6a 00		 push	 0
  00111	51		 push	 ecx
  00112	0f b6 4b 11	 movzx	 ecx, BYTE PTR [ebx+17]
  00116	52		 push	 edx
  00117	0f b6 53 10	 movzx	 edx, BYTE PTR [ebx+16]
  0011b	50		 push	 eax
  0011c	51		 push	 ecx
  0011d	c7 45 dc fe fe
	fe fe		 mov	 DWORD PTR _CS_Item$228885[ebp], -16843010 ; fefefefeH
  00124	c6 45 e0 fe	 mov	 BYTE PTR _CS_Item$228885[ebp+4], 254 ; 000000feH
  00128	52		 push	 edx

; 3123 : 			}
; 3124 : 			else

  00129	eb 1d		 jmp	 SHORT $LN106@ItemSerial@2
$LN49@ItemSerial@2:

; 3125 : 			{
; 3126 : 				pCreateItem.Convert(ITEMGET(iItemType, iItemIndex), lpMsg->Op1, lpMsg->Op2, lpMsg->Op3, lpMsg->NewOption, lpMsg->SetOption, 0, NULL, 0xFF, 0, 3);

  0012b	0f b6 43 1a	 movzx	 eax, BYTE PTR [ebx+26]
  0012f	0f b6 4b 13	 movzx	 ecx, BYTE PTR [ebx+19]
  00133	0f b6 53 12	 movzx	 edx, BYTE PTR [ebx+18]
  00137	6a 00		 push	 0
  00139	6a 00		 push	 0
  0013b	50		 push	 eax
  0013c	0f b6 43 11	 movzx	 eax, BYTE PTR [ebx+17]
  00140	51		 push	 ecx
  00141	0f b6 4b 10	 movzx	 ecx, BYTE PTR [ebx+16]
  00145	52		 push	 edx
  00146	50		 push	 eax
  00147	51		 push	 ecx
$LN106@ItemSerial@2:
  00148	56		 push	 esi
  00149	8d 8d f8 fe ff
	ff		 lea	 ecx, DWORD PTR _pCreateItem$228881[ebp]
  0014f	e8 00 00 00 00	 call	 ?Convert@CItem@@QAEXHEEEEEEPAEEEE@Z ; CItem::Convert

; 3127 : 			}
; 3128 : 
; 3129 : 
; 3130 : 			BYTE btItemPos = gObjInventoryInsertItem(lpMsg->aIndex, pCreateItem);

  00154	8b 53 14	 mov	 edx, DWORD PTR [ebx+20]
  00157	81 ec d4 00 00
	00		 sub	 esp, 212		; 000000d4H
  0015d	8b fc		 mov	 edi, esp
  0015f	b9 35 00 00 00	 mov	 ecx, 53			; 00000035H
  00164	8d b5 f8 fe ff
	ff		 lea	 esi, DWORD PTR _pCreateItem$228881[ebp]
  0016a	52		 push	 edx
  0016b	f3 a5		 rep movsd
  0016d	e8 00 00 00 00	 call	 ?gObjInventoryInsertItem@@YAEHVCItem@@@Z ; gObjInventoryInsertItem
  00172	81 c4 d8 00 00
	00		 add	 esp, 216		; 000000d8H

; 3131 : 
; 3132 : 			if ( btItemPos == (BYTE)-1 )

  00178	3c ff		 cmp	 al, 255			; 000000ffH
  0017a	75 41		 jne	 SHORT $LN47@ItemSerial@2

; 3133 : 			{
; 3134 : 				LogAddTD("[CashShop] Error : Failed To Insert Item Type:%d, TypeIndex:%d to [%s][%s]", iItemType, iItemIndex, gObj[lpMsg->aIndex].AccountID, gObj[lpMsg->aIndex].Name);

  0017c	8b 43 14	 mov	 eax, DWORD PTR [ebx+20]
  0017f	8b 8d f4 fe ff
	ff		 mov	 ecx, DWORD PTR _iItemType$228882[ebp]
  00185	69 c0 50 2b 00
	00		 imul	 eax, 11088		; 00002b50H
  0018b	03 05 00 00 00
	00		 add	 eax, DWORD PTR ?gObj@@3PAUOBJECTSTRUCT@@A ; gObj
  00191	8d 50 77	 lea	 edx, DWORD PTR [eax+119]
  00194	52		 push	 edx
  00195	83 c0 6c	 add	 eax, 108		; 0000006cH
  00198	50		 push	 eax
  00199	8b 45 f4	 mov	 eax, DWORD PTR _iItemIndex$228883[ebp]
  0019c	50		 push	 eax
  0019d	51		 push	 ecx
  0019e	68 00 00 00 00	 push	 OFFSET ??_C@_0EL@KDEJKEEJ@?$FLCashShop?$FN?5Error?5?3?5Failed?5To?5Ins@
  001a3	ff 15 00 00 00
	00		 call	 DWORD PTR ?LogAddTD@@3P6AXPADZZA ; LogAddTD
  001a9	83 c4 14	 add	 esp, 20			; 00000014H

; 3416 : 	}
; 3417 : }

  001ac	5f		 pop	 edi
  001ad	5e		 pop	 esi
  001ae	5b		 pop	 ebx
  001af	8b 4d fc	 mov	 ecx, DWORD PTR __$ArrayPad$[ebp]
  001b2	33 cd		 xor	 ecx, ebp
  001b4	e8 00 00 00 00	 call	 @__security_check_cookie@4
  001b9	8b e5		 mov	 esp, ebp
  001bb	5d		 pop	 ebp
  001bc	c3		 ret	 0
$LN47@ItemSerial@2:

; 3135 : 			}
; 3136 : 			else if( pCreateItem.m_Type == ITEMGET(13, 4)
; 3137 : 				|| pCreateItem.m_Type == ITEMGET(13, 5) )

  001bd	66 8b 8d fe fe
	ff ff		 mov	 cx, WORD PTR _pCreateItem$228881[ebp+6]
  001c4	ba 04 1a 00 00	 mov	 edx, 6660		; 00001a04H
  001c9	66 3b ca	 cmp	 cx, dx
  001cc	0f 84 a3 01 00
	00		 je	 $LN36@ItemSerial@2
  001d2	ba 05 1a 00 00	 mov	 edx, 6661		; 00001a05H
  001d7	66 3b ca	 cmp	 cx, dx
  001da	0f 84 95 01 00
	00		 je	 $LN36@ItemSerial@2
$LN34@ItemSerial@2:

; 3138 : 			{
; 3139 : 				GCInventoryItemOneSend(lpMsg->aIndex, btItemPos);
; 3140 : 			}
; 3141 : 			else
; 3142 : 			{
; 3143 : //#ifdef PERIOD
; 3144 : //				if( lpMsg->lDuration > 0 )
; 3145 : //				{
; 3146 : //					g_PeriodItemZt.SetPeriodItemInfo(&gObj[lpMsg->aIndex], lpMsg->Type, lpMsg->m_Number, lpMsg->lDuration);
; 3147 : //				}
; 3148 : //#endif
; 3149 : 							//LogAdd("[CREDIT DONATE][%s] Type: %d, Index: %d, Level: %d, Skill: %d, Luck: %d, Opt: %d, Exellent: %d, Ancent: %d, Serial: %X",
; 3150 : 							//	lpObj->AccountID,iItemType,iItemIndex,lpMsg->Level,lpMsg->Op1,lpMsg->Op2,lpMsg->Op3,lpMsg->NewOption,lpMsg->SetOption,lpMsg->m_Number);
; 3151 : 				//ExLog(0,"[%s] Type: %d, Index: %d, Level: %d, Skill: %d, Luck: %d, Opt: %d, Exellent: %d, Ancent: %d, Serial: %d",
; 3152 : 				//	lpObj->AccountID,iItemType,iItemIndex,lpMsg->Level,lpMsg->Op1,lpMsg->Op2,lpMsg->Op3,lpMsg->NewOption,lpMsg->SetOption,lpMsg->m_Number);
; 3153 : 				//ExLog(0,"%s",lpObj->AccountID);
; 3154 : 				GCInventoryItemOneSend(lpMsg->aIndex, btItemPos);

  001e0	8b 4b 14	 mov	 ecx, DWORD PTR [ebx+20]
  001e3	0f b6 c0	 movzx	 eax, al
  001e6	50		 push	 eax
  001e7	51		 push	 ecx
  001e8	e8 00 00 00 00	 call	 ?GCInventoryItemOneSend@@YAXHH@Z ; GCInventoryItemOneSend
  001ed	83 c4 08	 add	 esp, 8

; 3416 : 	}
; 3417 : }

  001f0	5f		 pop	 edi
  001f1	5e		 pop	 esi
  001f2	5b		 pop	 ebx
  001f3	8b 4d fc	 mov	 ecx, DWORD PTR __$ArrayPad$[ebp]
  001f6	33 cd		 xor	 ecx, ebp
  001f8	e8 00 00 00 00	 call	 @__security_check_cookie@4
  001fd	8b e5		 mov	 esp, ebp
  001ff	5d		 pop	 ebp
  00200	c3		 ret	 0
$LN51@ItemSerial@2:

; 3155 : 				//GDUserItemSave(lpObj);
; 3156 : 			}
; 3157 : 		}
; 3158 : 
; 3159 : 	}
; 3160 : 	else if ( lpMsg->MapNumber == 236 )

  00201	3c ec		 cmp	 al, 236			; 000000ecH
  00203	0f 85 8d 01 00
	00		 jne	 $LN41@ItemSerial@2

; 3161 : 	{
; 3162 : 		if ( gObj[lpMsg->aIndex].Connected > PLAYER_CONNECTED )

  00209	8b 0d 00 00 00
	00		 mov	 ecx, DWORD PTR ?gObj@@3PAUOBJECTSTRUCT@@A ; gObj
  0020f	69 ff 50 2b 00
	00		 imul	 edi, 11088		; 00002b50H
  00215	83 7c 0f 04 01	 cmp	 DWORD PTR [edi+ecx+4], 1
  0021a	0f 8e 00 0a 00
	00		 jle	 $LN28@ItemSerial@2

; 3163 : 		{
; 3164 : 			CItem pCreateItem;

  00220	8d 8d f8 fe ff
	ff		 lea	 ecx, DWORD PTR _pCreateItem$228898[ebp]
  00226	e8 00 00 00 00	 call	 ??0CItem@@QAE@XZ	; CItem::CItem

; 3165 : 			int iItemType = ITEM_GET_TYPE(lpMsg->Type);

  0022b	0f bf 4b 0c	 movsx	 ecx, WORD PTR [ebx+12]
  0022f	8b c1		 mov	 eax, ecx
  00231	99		 cdq
  00232	81 e2 ff 01 00
	00		 and	 edx, 511		; 000001ffH
  00238	03 c2		 add	 eax, edx
  0023a	c1 f8 09	 sar	 eax, 9

; 3166 : 			int iItemIndex	= ITEM_GET_INDEX(lpMsg->Type);

  0023d	81 e1 ff 01 00
	80		 and	 ecx, -2147483137	; 800001ffH
  00243	89 85 f4 fe ff
	ff		 mov	 DWORD PTR _iItemType$228899[ebp], eax
  00249	79 08		 jns	 SHORT $LN104@ItemSerial@2
  0024b	49		 dec	 ecx
  0024c	81 c9 00 fe ff
	ff		 or	 ecx, -512		; fffffe00H
  00252	41		 inc	 ecx
$LN104@ItemSerial@2:

; 3167 : #ifdef PERIOD
; 3168 : 			pCreateItem.m_Number = lpMsg->m_Number;

  00253	8b 53 08	 mov	 edx, DWORD PTR [ebx+8]
  00256	89 95 f8 fe ff
	ff		 mov	 DWORD PTR _pCreateItem$228898[ebp], edx

; 3169 : #endif
; 3170 : 			pCreateItem.m_Level = lpMsg->Level;//Season 4.5 changed position

  0025c	0f b6 53 0e	 movzx	 edx, BYTE PTR [ebx+14]

; 3171 : 			pCreateItem.m_Durability = lpMsg->Dur;//Season 4.5 changed position
; 3172 : #if CASH_SHOP_ADDITIONAL == 1
; 3173 : 			if ( g_SocketOption.CheckItemType(ITEMGET(iItemType, iItemIndex)) == 1 )
; 3174 : 			{
; 3175 : 				BYTE CS_Item[5] = {0xFE,0xFE,0xFE,0xFE,0xFE};
; 3176 : 				pCreateItem.Convert(ITEMGET(iItemType, iItemIndex), lpMsg->Op1, lpMsg->Op2, lpMsg->Op3, lpMsg->NewOption, lpMsg->SetOption, 0, CS_Item, 0xFF, 0, 3);
; 3177 : 			}
; 3178 : 			else
; 3179 : 			{
; 3180 : 				pCreateItem.Convert(ITEMGET(iItemType, iItemIndex), lpMsg->Op1, lpMsg->Op2, lpMsg->Op3, lpMsg->NewOption, lpMsg->SetOption, 0, NULL, 0xFF, 0, 3);
; 3181 : 			}
; 3182 : 
; 3183 : #else
; 3184 : 			pCreateItem.Convert(ITEMGET(iItemType, iItemIndex), lpMsg->Op1, lpMsg->Op2, lpMsg->Op3, lpMsg->NewOption, lpMsg->SetOption, 0, NULL, 0xFF, 0, 3);

  00260	6a 03		 push	 3
  00262	6a 00		 push	 0
  00264	66 89 95 00 ff
	ff ff		 mov	 WORD PTR _pCreateItem$228898[ebp+8], dx
  0026b	0f b6 53 0f	 movzx	 edx, BYTE PTR [ebx+15]
  0026f	68 ff 00 00 00	 push	 255			; 000000ffH
  00274	89 55 f0	 mov	 DWORD PTR tv1682[ebp], edx
  00277	0f b6 53 1a	 movzx	 edx, BYTE PTR [ebx+26]
  0027b	db 45 f0	 fild	 DWORD PTR tv1682[ebp]
  0027e	6a 00		 push	 0
  00280	6a 00		 push	 0
  00282	d9 9d 1c ff ff
	ff		 fstp	 DWORD PTR _pCreateItem$228898[ebp+36]
  00288	52		 push	 edx
  00289	0f b6 53 13	 movzx	 edx, BYTE PTR [ebx+19]
  0028d	52		 push	 edx
  0028e	0f b6 53 12	 movzx	 edx, BYTE PTR [ebx+18]
  00292	52		 push	 edx
  00293	0f b6 53 11	 movzx	 edx, BYTE PTR [ebx+17]
  00297	52		 push	 edx
  00298	0f b6 53 10	 movzx	 edx, BYTE PTR [ebx+16]
  0029c	c1 e0 09	 shl	 eax, 9
  0029f	03 c1		 add	 eax, ecx
  002a1	52		 push	 edx
  002a2	89 4d f4	 mov	 DWORD PTR _iItemIndex$228900[ebp], ecx
  002a5	50		 push	 eax
  002a6	8d 8d f8 fe ff
	ff		 lea	 ecx, DWORD PTR _pCreateItem$228898[ebp]
  002ac	e8 00 00 00 00	 call	 ?Convert@CItem@@QAEXHEEEEEEPAEEEE@Z ; CItem::Convert

; 3185 : #endif
; 3186 : 			BYTE btItemPos = gObjInventoryInsertItem(lpMsg->aIndex, pCreateItem);

  002b1	8b 43 14	 mov	 eax, DWORD PTR [ebx+20]
  002b4	81 ec d4 00 00
	00		 sub	 esp, 212		; 000000d4H
  002ba	8b fc		 mov	 edi, esp
  002bc	b9 35 00 00 00	 mov	 ecx, 53			; 00000035H
  002c1	8d b5 f8 fe ff
	ff		 lea	 esi, DWORD PTR _pCreateItem$228898[ebp]
  002c7	50		 push	 eax
  002c8	f3 a5		 rep movsd
  002ca	e8 00 00 00 00	 call	 ?gObjInventoryInsertItem@@YAEHVCItem@@@Z ; gObjInventoryInsertItem
  002cf	81 c4 d8 00 00
	00		 add	 esp, 216		; 000000d8H
  002d5	88 85 f3 fe ff
	ff		 mov	 BYTE PTR _btItemPos$228901[ebp], al

; 3187 : 
; 3188 : 			if ( btItemPos == (BYTE)-1 )

  002db	3c ff		 cmp	 al, 255			; 000000ffH
  002dd	75 41		 jne	 SHORT $LN39@ItemSerial@2

; 3189 : 			{
; 3190 : 				LogAddTD("[CashShop] Error : Failed To Insert Item Type:%d, TypeIndex:%d to [%s][%s]", iItemType, iItemIndex, gObj[lpMsg->aIndex].AccountID, gObj[lpMsg->aIndex].Name);

  002df	8b 43 14	 mov	 eax, DWORD PTR [ebx+20]
  002e2	8b 55 f4	 mov	 edx, DWORD PTR _iItemIndex$228900[ebp]
  002e5	69 c0 50 2b 00
	00		 imul	 eax, 11088		; 00002b50H
  002eb	03 05 00 00 00
	00		 add	 eax, DWORD PTR ?gObj@@3PAUOBJECTSTRUCT@@A ; gObj
  002f1	8d 48 77	 lea	 ecx, DWORD PTR [eax+119]
  002f4	51		 push	 ecx
  002f5	83 c0 6c	 add	 eax, 108		; 0000006cH
  002f8	50		 push	 eax
  002f9	8b 85 f4 fe ff
	ff		 mov	 eax, DWORD PTR _iItemType$228899[ebp]
  002ff	52		 push	 edx
  00300	50		 push	 eax
  00301	68 00 00 00 00	 push	 OFFSET ??_C@_0EL@KDEJKEEJ@?$FLCashShop?$FN?5Error?5?3?5Failed?5To?5Ins@
  00306	ff 15 00 00 00
	00		 call	 DWORD PTR ?LogAddTD@@3P6AXPADZZA ; LogAddTD
  0030c	83 c4 14	 add	 esp, 20			; 00000014H

; 3416 : 	}
; 3417 : }

  0030f	5f		 pop	 edi
  00310	5e		 pop	 esi
  00311	5b		 pop	 ebx
  00312	8b 4d fc	 mov	 ecx, DWORD PTR __$ArrayPad$[ebp]
  00315	33 cd		 xor	 ecx, ebp
  00317	e8 00 00 00 00	 call	 @__security_check_cookie@4
  0031c	8b e5		 mov	 esp, ebp
  0031e	5d		 pop	 ebp
  0031f	c3		 ret	 0
$LN39@ItemSerial@2:

; 3191 : 			}
; 3192 : 			else if( pCreateItem.m_Type == ITEMGET(13, 4)
; 3193 : 				|| pCreateItem.m_Type == ITEMGET(13, 5) )

  00320	66 8b 8d fe fe
	ff ff		 mov	 cx, WORD PTR _pCreateItem$228898[ebp+6]
  00327	ba 04 1a 00 00	 mov	 edx, 6660		; 00001a04H
  0032c	66 3b ca	 cmp	 cx, dx
  0032f	74 44		 je	 SHORT $LN36@ItemSerial@2
  00331	ba 05 1a 00 00	 mov	 edx, 6661		; 00001a05H
  00336	66 3b ca	 cmp	 cx, dx
  00339	74 3a		 je	 SHORT $LN36@ItemSerial@2

; 3196 : 			}
; 3197 : 			else
; 3198 : 			{
; 3199 : #ifdef PERIOD
; 3200 : 				if( lpMsg->lDuration > 0 )

  0033b	8b 4b 1c	 mov	 ecx, DWORD PTR [ebx+28]
  0033e	85 c9		 test	 ecx, ecx
  00340	0f 8e 9a fe ff
	ff		 jle	 $LN34@ItemSerial@2

; 3201 : 				{
; 3202 : 					g_PeriodItemZt.SetPeriodItemInfo(&gObj[lpMsg->aIndex], lpMsg->Type, lpMsg->m_Number, lpMsg->lDuration);

  00346	8b 53 14	 mov	 edx, DWORD PTR [ebx+20]
  00349	8b 43 08	 mov	 eax, DWORD PTR [ebx+8]
  0034c	69 d2 50 2b 00
	00		 imul	 edx, 11088		; 00002b50H
  00352	03 15 00 00 00
	00		 add	 edx, DWORD PTR ?gObj@@3PAUOBJECTSTRUCT@@A ; gObj
  00358	51		 push	 ecx
  00359	0f b7 4b 0c	 movzx	 ecx, WORD PTR [ebx+12]
  0035d	50		 push	 eax
  0035e	51		 push	 ecx
  0035f	52		 push	 edx
  00360	b9 00 00 00 00	 mov	 ecx, OFFSET ?g_PeriodItemZt@@3VCPeriodItemZt@@A ; g_PeriodItemZt
  00365	e8 00 00 00 00	 call	 ?SetPeriodItemInfo@CPeriodItemZt@@QAE_NPAUOBJECTSTRUCT@@GKK@Z ; CPeriodItemZt::SetPeriodItemInfo
  0036a	8a 85 f3 fe ff
	ff		 mov	 al, BYTE PTR _btItemPos$228901[ebp]

; 3203 : 				}
; 3204 : #endif
; 3205 : 				GCInventoryItemOneSend(lpMsg->aIndex, btItemPos);

  00370	e9 6b fe ff ff	 jmp	 $LN34@ItemSerial@2
$LN36@ItemSerial@2:

; 3194 : 			{
; 3195 : 				GCInventoryItemOneSend(lpMsg->aIndex, btItemPos);

  00375	0f b6 d0	 movzx	 edx, al
  00378	8b 43 14	 mov	 eax, DWORD PTR [ebx+20]
  0037b	52		 push	 edx
  0037c	50		 push	 eax
  0037d	e8 00 00 00 00	 call	 ?GCInventoryItemOneSend@@YAXHH@Z ; GCInventoryItemOneSend
  00382	83 c4 08	 add	 esp, 8

; 3416 : 	}
; 3417 : }

  00385	5f		 pop	 edi
  00386	5e		 pop	 esi
  00387	5b		 pop	 ebx
  00388	8b 4d fc	 mov	 ecx, DWORD PTR __$ArrayPad$[ebp]
  0038b	33 cd		 xor	 ecx, ebp
  0038d	e8 00 00 00 00	 call	 @__security_check_cookie@4
  00392	8b e5		 mov	 esp, ebp
  00394	5d		 pop	 ebp
  00395	c3		 ret	 0
$LN41@ItemSerial@2:

; 3206 : 			}
; 3207 : 		}
; 3208 : 	}
; 3209 : 	else if ( lpMsg->MapNumber == 237 )//Season 4.5 lucky coin trade system addon

  00396	3c ed		 cmp	 al, 237			; 000000edH
  00398	0f 85 53 01 00
	00		 jne	 $LN32@ItemSerial@2

; 3210 : 	{
; 3211 : 		if ( gObj[lpMsg->aIndex].Connected > PLAYER_CONNECTED )

  0039e	8b 0d 00 00 00
	00		 mov	 ecx, DWORD PTR ?gObj@@3PAUOBJECTSTRUCT@@A ; gObj
  003a4	69 ff 50 2b 00
	00		 imul	 edi, 11088		; 00002b50H
  003aa	83 7c 0f 04 01	 cmp	 DWORD PTR [edi+ecx+4], 1
  003af	89 7d e8	 mov	 DWORD PTR tv1427[ebp], edi
  003b2	0f 8e 68 08 00
	00		 jle	 $LN28@ItemSerial@2

; 3212 : 		{
; 3213 : 			CItem pCreateItem;

  003b8	8d 8d f8 fe ff
	ff		 lea	 ecx, DWORD PTR _pCreateItem$228912[ebp]
  003be	e8 00 00 00 00	 call	 ??0CItem@@QAE@XZ	; CItem::CItem

; 3214 : 			
; 3215 : 			int iItemType = ITEM_GET_TYPE(lpMsg->Type);

  003c3	0f bf 4b 0c	 movsx	 ecx, WORD PTR [ebx+12]
  003c7	8b c1		 mov	 eax, ecx
  003c9	99		 cdq
  003ca	81 e2 ff 01 00
	00		 and	 edx, 511		; 000001ffH
  003d0	03 c2		 add	 eax, edx
  003d2	c1 f8 09	 sar	 eax, 9

; 3216 : 			int iItemIndex	= ITEM_GET_INDEX(lpMsg->Type);

  003d5	81 e1 ff 01 00
	80		 and	 ecx, -2147483137	; 800001ffH
  003db	89 85 f4 fe ff
	ff		 mov	 DWORD PTR _iItemType$228913[ebp], eax
  003e1	79 08		 jns	 SHORT $LN105@ItemSerial@2
  003e3	49		 dec	 ecx
  003e4	81 c9 00 fe ff
	ff		 or	 ecx, -512		; fffffe00H
  003ea	41		 inc	 ecx
$LN105@ItemSerial@2:

; 3217 : 
; 3218 : 			pCreateItem.m_Level = lpMsg->Level;

  003eb	0f b6 53 0e	 movzx	 edx, BYTE PTR [ebx+14]

; 3219 : 			pCreateItem.m_Durability = lpMsg->Dur;
; 3220 : 
; 3221 : 			pCreateItem.Convert(ITEMGET(iItemType, iItemIndex), lpMsg->Op1, lpMsg->Op2, lpMsg->Op3, lpMsg->NewOption, lpMsg->SetOption, 0, NULL, 0xFF, 0, 3);

  003ef	6a 03		 push	 3
  003f1	6a 00		 push	 0
  003f3	66 89 95 00 ff
	ff ff		 mov	 WORD PTR _pCreateItem$228912[ebp+8], dx
  003fa	0f b6 53 0f	 movzx	 edx, BYTE PTR [ebx+15]
  003fe	68 ff 00 00 00	 push	 255			; 000000ffH
  00403	89 55 f0	 mov	 DWORD PTR tv1649[ebp], edx
  00406	0f b6 53 1a	 movzx	 edx, BYTE PTR [ebx+26]
  0040a	db 45 f0	 fild	 DWORD PTR tv1649[ebp]
  0040d	6a 00		 push	 0
  0040f	6a 00		 push	 0
  00411	d9 9d 1c ff ff
	ff		 fstp	 DWORD PTR _pCreateItem$228912[ebp+36]
  00417	52		 push	 edx
  00418	0f b6 53 13	 movzx	 edx, BYTE PTR [ebx+19]
  0041c	52		 push	 edx
  0041d	0f b6 53 12	 movzx	 edx, BYTE PTR [ebx+18]
  00421	52		 push	 edx
  00422	0f b6 53 11	 movzx	 edx, BYTE PTR [ebx+17]
  00426	52		 push	 edx
  00427	0f b6 53 10	 movzx	 edx, BYTE PTR [ebx+16]
  0042b	c1 e0 09	 shl	 eax, 9
  0042e	03 c1		 add	 eax, ecx
  00430	52		 push	 edx
  00431	89 4d f4	 mov	 DWORD PTR _iItemIndex$228914[ebp], ecx
  00434	50		 push	 eax
  00435	8d 8d f8 fe ff
	ff		 lea	 ecx, DWORD PTR _pCreateItem$228912[ebp]
  0043b	e8 00 00 00 00	 call	 ?Convert@CItem@@QAEXHEEEEEEPAEEEE@Z ; CItem::Convert

; 3222 : 			pCreateItem.m_Level = lpMsg->Level;

  00440	0f b6 43 0e	 movzx	 eax, BYTE PTR [ebx+14]

; 3223 : 			
; 3224 : 			BYTE btItemPos = gObjInventoryInsertItem(lpMsg->aIndex, pCreateItem);

  00444	81 ec d4 00 00
	00		 sub	 esp, 212		; 000000d4H
  0044a	8b fc		 mov	 edi, esp
  0044c	66 89 85 00 ff
	ff ff		 mov	 WORD PTR _pCreateItem$228912[ebp+8], ax
  00453	b9 35 00 00 00	 mov	 ecx, 53			; 00000035H
  00458	8d b5 f8 fe ff
	ff		 lea	 esi, DWORD PTR _pCreateItem$228912[ebp]
  0045e	f3 a5		 rep movsd
  00460	8b 4b 14	 mov	 ecx, DWORD PTR [ebx+20]
  00463	51		 push	 ecx
  00464	e8 00 00 00 00	 call	 ?gObjInventoryInsertItem@@YAEHVCItem@@@Z ; gObjInventoryInsertItem
  00469	81 c4 d8 00 00
	00		 add	 esp, 216		; 000000d8H

; 3225 : 
; 3226 : 			if ( btItemPos == (BYTE)-1 )

  0046f	3c ff		 cmp	 al, 255			; 000000ffH
  00471	75 3e		 jne	 SHORT $LN30@ItemSerial@2

; 3227 : 			{
; 3228 : 				LogAddTD("[LuckyCoin Trade] Error : Failed To Insert Item Type:%d, TypeIndex:%d to [%s][%s]", iItemType, iItemIndex, gObj[lpMsg->aIndex].AccountID, gObj[lpMsg->aIndex].Name);

  00473	8b 53 14	 mov	 edx, DWORD PTR [ebx+20]
  00476	a1 00 00 00 00	 mov	 eax, DWORD PTR ?gObj@@3PAUOBJECTSTRUCT@@A ; gObj
  0047b	69 d2 50 2b 00
	00		 imul	 edx, 11088		; 00002b50H
  00481	03 c2		 add	 eax, edx
  00483	8b 55 f4	 mov	 edx, DWORD PTR _iItemIndex$228914[ebp]
  00486	8d 48 77	 lea	 ecx, DWORD PTR [eax+119]
  00489	51		 push	 ecx
  0048a	83 c0 6c	 add	 eax, 108		; 0000006cH
  0048d	50		 push	 eax
  0048e	8b 85 f4 fe ff
	ff		 mov	 eax, DWORD PTR _iItemType$228913[ebp]
  00494	52		 push	 edx
  00495	50		 push	 eax
  00496	68 00 00 00 00	 push	 OFFSET ??_C@_0FC@JMDFINCJ@?$FLLuckyCoin?5Trade?$FN?5Error?5?3?5Failed@
  0049b	ff 15 00 00 00
	00		 call	 DWORD PTR ?LogAddTD@@3P6AXPADZZA ; LogAddTD

; 3229 : 				GCSendLuckyCoinResult(lpMsg->aIndex, 2);

  004a1	8b 4b 14	 mov	 ecx, DWORD PTR [ebx+20]
  004a4	6a 02		 push	 2
  004a6	51		 push	 ecx
  004a7	e8 00 00 00 00	 call	 ?GCSendLuckyCoinResult@@YAXHE@Z ; GCSendLuckyCoinResult
  004ac	83 c4 1c	 add	 esp, 28			; 0000001cH

; 3230 : 			}
; 3231 : 			else

  004af	eb 1b		 jmp	 SHORT $LN29@ItemSerial@2
$LN30@ItemSerial@2:

; 3232 : 			{
; 3233 : 				GCInventoryItemOneSend(lpMsg->aIndex, btItemPos);

  004b1	0f b6 d0	 movzx	 edx, al
  004b4	8b 43 14	 mov	 eax, DWORD PTR [ebx+20]
  004b7	52		 push	 edx
  004b8	50		 push	 eax
  004b9	e8 00 00 00 00	 call	 ?GCInventoryItemOneSend@@YAXHH@Z ; GCInventoryItemOneSend

; 3234 : 				GCSendLuckyCoinResult(lpMsg->aIndex, 1);

  004be	8b 4b 14	 mov	 ecx, DWORD PTR [ebx+20]
  004c1	6a 01		 push	 1
  004c3	51		 push	 ecx
  004c4	e8 00 00 00 00	 call	 ?GCSendLuckyCoinResult@@YAXHE@Z ; GCSendLuckyCoinResult
  004c9	83 c4 10	 add	 esp, 16			; 00000010H
$LN29@ItemSerial@2:

; 3235 : 			}
; 3236 : 
; 3237 : 			gObj[aIndex].ChaosLock = false;

  004cc	8b 15 00 00 00
	00		 mov	 edx, DWORD PTR ?gObj@@3PAUOBJECTSTRUCT@@A ; gObj
  004d2	8b 45 e8	 mov	 eax, DWORD PTR tv1427[ebp]
  004d5	c7 84 10 88 0e
	00 00 00 00 00
	00		 mov	 DWORD PTR [eax+edx+3720], 0

; 3416 : 	}
; 3417 : }

  004e0	5f		 pop	 edi
  004e1	5e		 pop	 esi
  004e2	5b		 pop	 ebx
  004e3	8b 4d fc	 mov	 ecx, DWORD PTR __$ArrayPad$[ebp]
  004e6	33 cd		 xor	 ecx, ebp
  004e8	e8 00 00 00 00	 call	 @__security_check_cookie@4
  004ed	8b e5		 mov	 esp, ebp
  004ef	5d		 pop	 ebp
  004f0	c3		 ret	 0
$LN32@ItemSerial@2:

; 3238 : 		}
; 3239 : 	}
; 3240 : //	else if ( lpMsg->MapNumber == 238 )
; 3241 : //	{
; 3242 : //		if ( gObj[lpMsg->aIndex].Connected > PLAYER_CONNECTED )
; 3243 : //		{
; 3244 : //			CItem pCreateItem;
; 3245 : //			int iItemType = ITEM_GET_TYPE(lpMsg->Type);
; 3246 : //			int iItemIndex	= ITEM_GET_INDEX(lpMsg->Type);
; 3247 : ////#ifdef PERIOD
; 3248 : //			pCreateItem.m_Number = lpMsg->m_Number;
; 3249 : ////#endif
; 3250 : //			pCreateItem.m_Level = lpMsg->Level;//Season 4.5 changed position
; 3251 : //			pCreateItem.m_Durability = lpMsg->Dur;//Season 4.5 changed position
; 3252 : //
; 3253 : //			if ( g_SocketOption.CheckItemType(ITEMGET(iItemType, iItemIndex)) == 1 )
; 3254 : //			{
; 3255 : //				BYTE CS_Item[5] = {0xFE,0xFE,0xFE,0xFE,0xFE};
; 3256 : //				pCreateItem.Convert(ITEMGET(iItemType, iItemIndex), lpMsg->Op1, lpMsg->Op2, lpMsg->Op3, lpMsg->NewOption, lpMsg->SetOption, 0, CS_Item, 0xFF, 0, 3);
; 3257 : //			}
; 3258 : //			else
; 3259 : //			{
; 3260 : //				pCreateItem.Convert(ITEMGET(iItemType, iItemIndex), lpMsg->Op1, lpMsg->Op2, lpMsg->Op3, lpMsg->NewOption, lpMsg->SetOption, 0, NULL, 0xFF, 0, 3);
; 3261 : //			}
; 3262 : //
; 3263 : //
; 3264 : //			BYTE btItemPos = gObjInventoryInsertItem(lpMsg->aIndex, pCreateItem);
; 3265 : //
; 3266 : //			if ( btItemPos == (BYTE)-1 )
; 3267 : //			{
; 3268 : //				LogAddTD("[CashShop] Error : Failed To Insert Item Type:%d, TypeIndex:%d to [%s][%s]", iItemType, iItemIndex, gObj[lpMsg->aIndex].AccountID, gObj[lpMsg->aIndex].Name);
; 3269 : //			}
; 3270 : //			else if( pCreateItem.m_Type == ITEMGET(13, 4)
; 3271 : //				|| pCreateItem.m_Type == ITEMGET(13, 5) )
; 3272 : //			{
; 3273 : //				GCInventoryItemOneSend(lpMsg->aIndex, btItemPos);
; 3274 : //			}
; 3275 : //			else
; 3276 : //			{
; 3277 : ////#ifdef PERIOD
; 3278 : ////				if( lpMsg->lDuration > 0 )
; 3279 : ////				{
; 3280 : ////					g_PeriodItemZt.SetPeriodItemInfo(&gObj[lpMsg->aIndex], lpMsg->Type, lpMsg->m_Number, lpMsg->lDuration);
; 3281 : ////				}
; 3282 : ////#endif
; 3283 : //							//LogAdd("[CREDIT DONATE][%s] Type: %d, Index: %d, Level: %d, Skill: %d, Luck: %d, Opt: %d, Exellent: %d, Ancent: %d, Serial: %X",
; 3284 : //							//	lpObj->AccountID,iItemType,iItemIndex,lpMsg->Level,lpMsg->Op1,lpMsg->Op2,lpMsg->Op3,lpMsg->NewOption,lpMsg->SetOption,lpMsg->m_Number);
; 3285 : //				//ExLog(0,"[%s] Type: %d, Index: %d, Level: %d, Skill: %d, Luck: %d, Opt: %d, Exellent: %d, Ancent: %d, Serial: %d",
; 3286 : //				//	lpObj->AccountID,iItemType,iItemIndex,lpMsg->Level,lpMsg->Op1,lpMsg->Op2,lpMsg->Op3,lpMsg->NewOption,lpMsg->SetOption,lpMsg->m_Number);
; 3287 : //				ExLog(0,"%s",lpObj->AccountID);
; 3288 : //				GCInventoryItemOneSend(lpMsg->aIndex, btItemPos);
; 3289 : //			}
; 3290 : //		}
; 3291 : //	}
; 3292 : 	else
; 3293 : 	{
; 3294 : 		int iRetMapNumber = lpMsg->MapNumber; //loc106

  004f1	8a 4b 05	 mov	 cl, BYTE PTR [ebx+5]
  004f4	0f b6 f9	 movzx	 edi, cl
  004f7	89 7d f0	 mov	 DWORD PTR _iRetMapNumber$228921[ebp], edi

; 3295 : 
; 3296 : 		if ( lpMsg->MapNumber >= 238 && lpMsg->MapNumber <= 245 )

  004fa	80 f9 ee	 cmp	 cl, 238			; 000000eeH
  004fd	72 17		 jb	 SHORT $LN27@ItemSerial@2
  004ff	3c f5		 cmp	 al, 245			; 000000f5H
  00501	77 13		 ja	 SHORT $LN27@ItemSerial@2

; 3297 : 		{
; 3298 : 			mapnumber = g_BloodCastle.GetItemMapNumberFirst(iRetMapNumber);

  00503	57		 push	 edi
  00504	b9 00 00 00 00	 mov	 ecx, OFFSET ?g_BloodCastle@@3VCBloodCastle@@A ; g_BloodCastle
  00509	e8 00 00 00 00	 call	 ?GetItemMapNumberFirst@CBloodCastle@@QAEHH@Z ; CBloodCastle::GetItemMapNumberFirst
  0050e	8b f0		 mov	 esi, eax
  00510	89 85 f4 fe ff
	ff		 mov	 DWORD PTR _mapnumber$[ebp], eax
$LN27@ItemSerial@2:

; 3299 : 		}
; 3300 : 
; 3301 : 		if ( lpMsg->MapNumber >= 246 && lpMsg->MapNumber <= 253 )

  00516	8a 43 05	 mov	 al, BYTE PTR [ebx+5]
  00519	3c f6		 cmp	 al, 246			; 000000f6H
  0051b	72 17		 jb	 SHORT $LN26@ItemSerial@2
  0051d	3c fd		 cmp	 al, 253			; 000000fdH
  0051f	77 13		 ja	 SHORT $LN26@ItemSerial@2

; 3302 : 		{
; 3303 : 			mapnumber = g_BloodCastle.GetItemMapNumberSecond(iRetMapNumber);

  00521	57		 push	 edi
  00522	b9 00 00 00 00	 mov	 ecx, OFFSET ?g_BloodCastle@@3VCBloodCastle@@A ; g_BloodCastle
  00527	e8 00 00 00 00	 call	 ?GetItemMapNumberSecond@CBloodCastle@@QAEHH@Z ; CBloodCastle::GetItemMapNumberSecond
  0052c	8b f0		 mov	 esi, eax
  0052e	89 b5 f4 fe ff
	ff		 mov	 DWORD PTR _mapnumber$[ebp], esi
$LN26@ItemSerial@2:

; 3304 : 		}
; 3305 : 		
; 3306 : 		//Season 4.5 SocketSystem Addon Start
; 3307 : 		BYTE SocketSlotCount = 0;
; 3308 : 		BYTE SocketOption[5];
; 3309 : 		BYTE SocketOptionIndex = 0;
; 3310 : 
; 3311 : 		if ( g_SocketOption.CheckItemType(lpMsg->Type) == 1 )

  00534	0f bf 4b 0c	 movsx	 ecx, WORD PTR [ebx+12]
  00538	51		 push	 ecx
  00539	b9 00 00 00 00	 mov	 ecx, OFFSET ?g_SocketOption@@3VCSocketOption@@A ; g_SocketOption
  0053e	e8 00 00 00 00	 call	 ?CheckItemType@CSocketOption@@QAEEH@Z ; CSocketOption::CheckItemType
  00543	3c 01		 cmp	 al, 1
  00545	75 78		 jne	 SHORT $LN25@ItemSerial@2

; 3312 :         {
; 3313 : 			SocketSlotCount = g_SocketOption.GetRandomSlotCount(lpMsg->Type);

  00547	0f bf 53 0c	 movsx	 edx, WORD PTR [ebx+12]
  0054b	52		 push	 edx
  0054c	b9 00 00 00 00	 mov	 ecx, OFFSET ?g_SocketOption@@3VCSocketOption@@A ; g_SocketOption
  00551	e8 00 00 00 00	 call	 ?GetRandomSlotCount@CSocketOption@@QAEEH@Z ; CSocketOption::GetRandomSlotCount

; 3314 : 
; 3315 : 			LogAddTD("[SocketItem] Drop Socket Item ( Socket Slot : %d ) - %s, [%d,%d,%d,%d], Serial : %u, ItemCode : %d, Level : %d, MapNumber : %d(%d/%d)",SocketSlotCount,ItemAttribute[lpMsg->Type].Name,lpMsg->Level,lpMsg->Op1,lpMsg->Op2,lpMsg->Op3, lpMsg->m_Number,lpMsg->Type,lpMsg->Level,lpMsg->MapNumber,lpMsg->x,lpMsg->y);

  00556	0f b6 53 03	 movzx	 edx, BYTE PTR [ebx+3]
  0055a	0f b6 73 0e	 movzx	 esi, BYTE PTR [ebx+14]
  0055e	0f bf 4b 0c	 movsx	 ecx, WORD PTR [ebx+12]
  00562	0f b6 f8	 movzx	 edi, al
  00565	0f b6 43 04	 movzx	 eax, BYTE PTR [ebx+4]
  00569	50		 push	 eax
  0056a	0f b6 43 05	 movzx	 eax, BYTE PTR [ebx+5]
  0056e	52		 push	 edx
  0056f	8b 53 08	 mov	 edx, DWORD PTR [ebx+8]
  00572	50		 push	 eax
  00573	0f b6 43 12	 movzx	 eax, BYTE PTR [ebx+18]
  00577	56		 push	 esi
  00578	51		 push	 ecx
  00579	6b c9 70	 imul	 ecx, 112		; 00000070H
  0057c	52		 push	 edx
  0057d	0f b6 53 11	 movzx	 edx, BYTE PTR [ebx+17]
  00581	50		 push	 eax
  00582	0f b6 43 10	 movzx	 eax, BYTE PTR [ebx+16]
  00586	52		 push	 edx
  00587	50		 push	 eax
  00588	56		 push	 esi
  00589	81 c1 00 00 00
	00		 add	 ecx, OFFSET ?ItemAttribute@@3PAUITEM_ATTRIBUTE@@A ; ItemAttribute
  0058f	51		 push	 ecx
  00590	57		 push	 edi
  00591	68 00 00 00 00	 push	 OFFSET ??_C@_0IG@JDKHCHPG@?$FLSocketItem?$FN?5Drop?5Socket?5Item?5?$CI?5@
  00596	ff 15 00 00 00
	00		 call	 DWORD PTR ?LogAddTD@@3P6AXPADZZA ; LogAddTD
  0059c	83 c4 34	 add	 esp, 52			; 00000034H

; 3316 : 			
; 3317 : 			SocketOptionIndex = 0xFF;

  0059f	c6 45 f5 ff	 mov	 BYTE PTR _SocketOptionIndex$228926[ebp], 255 ; 000000ffH

; 3318 : 
; 3319 : 			for(int i = 0;i < 5; i++)

  005a3	33 c0		 xor	 eax, eax
$LL24@ItemSerial@2:

; 3320 : 			{
; 3321 : 				if(i < SocketSlotCount)

  005a5	3b c7		 cmp	 eax, edi
  005a7	0f 9d c1	 setge	 cl
  005aa	80 c1 fe	 add	 cl, 254			; 000000feH
  005ad	88 4c 05 dc	 mov	 BYTE PTR _SocketOption$228925[ebp+eax], cl
  005b1	40		 inc	 eax
  005b2	83 f8 05	 cmp	 eax, 5
  005b5	7c ee		 jl	 SHORT $LL24@ItemSerial@2

; 3322 : 				{
; 3323 : 					SocketOption[i] = 0xFE;
; 3324 : 				}
; 3325 : 				else
; 3326 : 				{
; 3327 : 					SocketOption[i] = 0xFF;
; 3328 : 				}
; 3329 : 			}
; 3330 : 
; 3331 : 		}
; 3332 : 		else

  005b7	8b b5 f4 fe ff
	ff		 mov	 esi, DWORD PTR _mapnumber$[ebp]
  005bd	eb 0d		 jmp	 SHORT $LN18@ItemSerial@2
$LN25@ItemSerial@2:

; 3333 : 		{
; 3334 : 			SocketOptionIndex = 0;
; 3335 : 
; 3336 : 			for(int i = 0; i < 5; i++)
; 3337 : 			{
; 3338 : 				SocketOption[i] = 0xFF;

  005bf	83 c8 ff	 or	 eax, -1
  005c2	c6 45 f5 00	 mov	 BYTE PTR _SocketOptionIndex$228926[ebp], 0
  005c6	89 45 dc	 mov	 DWORD PTR _SocketOption$228925[ebp], eax
  005c9	88 45 e0	 mov	 BYTE PTR _SocketOption$228925[ebp+4], al
$LN18@ItemSerial@2:

; 3339 : 			}
; 3340 : 		}
; 3341 : 
; 3342 : 		int iItemCount = MapC[mapnumber].MonsterItemDrop(lpMsg->Type, lpMsg->Level, lpMsg->Dur, lpMsg->x, lpMsg->y, lpMsg->Op1, lpMsg->Op2, lpMsg->Op3, lpMsg->NewOption, lpMsg->SetOption, lootindex, lpMsg->m_Number, 0,SocketOption,SocketOptionIndex);

  005cc	8b 55 f5	 mov	 edx, DWORD PTR _SocketOptionIndex$228926[ebp]
  005cf	69 f6 48 3d 05
	00		 imul	 esi, 343368		; 00053d48H
  005d5	8b 4b 08	 mov	 ecx, DWORD PTR [ebx+8]
  005d8	52		 push	 edx
  005d9	8b 55 e8	 mov	 edx, DWORD PTR _lootindex$[ebp]
  005dc	8d 45 dc	 lea	 eax, DWORD PTR _SocketOption$228925[ebp]
  005df	50		 push	 eax
  005e0	0f b6 43 1a	 movzx	 eax, BYTE PTR [ebx+26]
  005e4	6a 00		 push	 0
  005e6	51		 push	 ecx
  005e7	0f b6 4b 13	 movzx	 ecx, BYTE PTR [ebx+19]
  005eb	52		 push	 edx
  005ec	0f b6 53 12	 movzx	 edx, BYTE PTR [ebx+18]
  005f0	50		 push	 eax
  005f1	0f b6 43 11	 movzx	 eax, BYTE PTR [ebx+17]
  005f5	51		 push	 ecx
  005f6	0f b6 4b 10	 movzx	 ecx, BYTE PTR [ebx+16]
  005fa	52		 push	 edx
  005fb	0f b6 53 04	 movzx	 edx, BYTE PTR [ebx+4]
  005ff	50		 push	 eax
  00600	0f b6 43 03	 movzx	 eax, BYTE PTR [ebx+3]
  00604	51		 push	 ecx
  00605	0f b6 4b 0f	 movzx	 ecx, BYTE PTR [ebx+15]
  00609	52		 push	 edx
  0060a	0f b6 53 0e	 movzx	 edx, BYTE PTR [ebx+14]
  0060e	50		 push	 eax
  0060f	0f bf 43 0c	 movsx	 eax, WORD PTR [ebx+12]
  00613	89 4d f4	 mov	 DWORD PTR tv1614[ebp], ecx
  00616	51		 push	 ecx
  00617	db 45 f4	 fild	 DWORD PTR tv1614[ebp]
  0061a	8d 8e 00 00 00
	00		 lea	 ecx, DWORD PTR ?MapC@@3PAVMapClass@@A[esi]
  00620	d9 1c 24	 fstp	 DWORD PTR [esp]
  00623	52		 push	 edx
  00624	50		 push	 eax
  00625	e8 00 00 00 00	 call	 ?MonsterItemDrop@MapClass@@QAEHHHMHHEEEEEHKEQAEE@Z ; MapClass::MonsterItemDrop
  0062a	89 45 f4	 mov	 DWORD PTR _iItemCount$228940[ebp], eax

; 3343 : 		
; 3344 : 		//Season 4.5 SocketSystem Addon end
; 3345 : 
; 3346 : 		if ( iItemCount != -1 )

  0062d	83 f8 ff	 cmp	 eax, -1
  00630	0f 84 1e 01 00
	00		 je	 $LN101@ItemSerial@2

; 3347 : 		{
; 3348 : 			if ( iRetMapNumber >= 238 && iRetMapNumber <= 245)

  00636	8b 4d f0	 mov	 ecx, DWORD PTR _iRetMapNumber$228921[ebp]
  00639	8b 3d 00 00 00
	00		 mov	 edi, DWORD PTR __imp__GetTickCount@0
  0063f	81 c1 12 ff ff
	ff		 add	 ecx, -238		; ffffff12H
  00645	83 f9 07	 cmp	 ecx, 7
  00648	77 2d		 ja	 SHORT $LN14@ItemSerial@2

; 3349 : 			{
; 3350 : 				MapC[mapnumber].m_cItem[iItemCount].m_Time = GetTickCount() + 300000;

  0064a	8b d0		 mov	 edx, eax
  0064c	69 d2 74 04 00
	00		 imul	 edx, 1140		; 00000474H
  00652	03 d6		 add	 edx, esi
  00654	89 55 e8	 mov	 DWORD PTR tv1571[ebp], edx
  00657	ff d7		 call	 edi
  00659	8b 4d e8	 mov	 ecx, DWORD PTR tv1571[ebp]
  0065c	05 e0 93 04 00	 add	 eax, 300000		; 000493e0H
  00661	89 81 00 01 00
	00		 mov	 DWORD PTR ?MapC@@3PAVMapClass@@A[ecx+256], eax

; 3351 : 				MapC[mapnumber].m_cItem[iItemCount].m_LootTime = GetTickCount() + 20000;

  00667	ff d7		 call	 edi
  00669	8b 55 e8	 mov	 edx, DWORD PTR tv1571[ebp]
  0066c	05 20 4e 00 00	 add	 eax, 20000		; 00004e20H
  00671	89 82 08 01 00
	00		 mov	 DWORD PTR ?MapC@@3PAVMapClass@@A[edx+264], eax
$LN14@ItemSerial@2:

; 3352 : 
; 3353 : 			}
; 3354 : 
; 3355 : 			if ( iRetMapNumber >= 246 && iRetMapNumber <= 253)

  00677	8b 45 f0	 mov	 eax, DWORD PTR _iRetMapNumber$228921[ebp]
  0067a	05 0a ff ff ff	 add	 eax, -246		; ffffff0aH
  0067f	83 f8 07	 cmp	 eax, 7
  00682	77 4e		 ja	 SHORT $LN13@ItemSerial@2

; 3356 : 			{
; 3357 : 				MapC[mapnumber].m_cItem[iItemCount].m_Time = GetTickCount() + 900000;

  00684	8b 4d f4	 mov	 ecx, DWORD PTR _iItemCount$228940[ebp]
  00687	69 c9 74 04 00
	00		 imul	 ecx, 1140		; 00000474H
  0068d	03 ce		 add	 ecx, esi
  0068f	89 4d e8	 mov	 DWORD PTR tv1571[ebp], ecx
  00692	ff d7		 call	 edi
  00694	8b 55 e8	 mov	 edx, DWORD PTR tv1571[ebp]
  00697	05 a0 bb 0d 00	 add	 eax, 900000		; 000dbba0H
  0069c	89 82 00 01 00
	00		 mov	 DWORD PTR ?MapC@@3PAVMapClass@@A[edx+256], eax

; 3358 : 				MapC[mapnumber].m_cItem[iItemCount].m_LootTime = GetTickCount() + 10000;

  006a2	ff d7		 call	 edi
  006a4	8b 4d e8	 mov	 ecx, DWORD PTR tv1571[ebp]

; 3359 : 
; 3360 : 				int iBridgeIndex = g_BloodCastle.GetBridgeIndex(mapnumber); //s3 add-on (loc108)

  006a7	8b 95 f4 fe ff
	ff		 mov	 edx, DWORD PTR _mapnumber$[ebp]
  006ad	05 10 27 00 00	 add	 eax, 10000		; 00002710H
  006b2	89 81 08 01 00
	00		 mov	 DWORD PTR ?MapC@@3PAVMapClass@@A[ecx+264], eax
  006b8	52		 push	 edx
  006b9	b9 00 00 00 00	 mov	 ecx, OFFSET ?g_BloodCastle@@3VCBloodCastle@@A ; g_BloodCastle
  006be	e8 00 00 00 00	 call	 ?GetBridgeIndex@CBloodCastle@@QAEHH@Z ; CBloodCastle::GetBridgeIndex

; 3361 : 
; 3362 : 				g_BloodCastle.m_BridgeData[iBridgeIndex].m_nBC_QUESTITEM_SERIAL = lpMsg->m_Number;

  006c3	69 c0 60 04 00
	00		 imul	 eax, 1120		; 00000460H
  006c9	8b 4b 08	 mov	 ecx, DWORD PTR [ebx+8]
  006cc	89 88 e8 03 00
	00		 mov	 DWORD PTR ?g_BloodCastle@@3VCBloodCastle@@A[eax+1000], ecx
$LN13@ItemSerial@2:

; 3363 : 			}
; 3364 : 
; 3365 : 			if( ((mapnumber) < MAP_INDEX_ILLUSIONTEMPLE1)?FALSE:((mapnumber) > MAP_INDEX_ILLUSIONTEMPLE6 )?FALSE:TRUE) //Season 2.5 add-on

  006d2	8b 85 f4 fe ff
	ff		 mov	 eax, DWORD PTR _mapnumber$[ebp]
  006d8	83 f8 2d	 cmp	 eax, 45			; 0000002dH
  006db	7c 77		 jl	 SHORT $LN101@ItemSerial@2
  006dd	33 d2		 xor	 edx, edx
  006df	83 f8 32	 cmp	 eax, 50			; 00000032H
  006e2	0f 9e c2	 setle	 dl
  006e5	8b c2		 mov	 eax, edx
  006e7	85 c0		 test	 eax, eax
  006e9	74 69		 je	 SHORT $LN101@ItemSerial@2

; 3366 : 			{
; 3367 : 				if( lpMsg->Type == ITEMGET(14,64) )

  006eb	b8 40 1c 00 00	 mov	 eax, 7232		; 00001c40H
  006f0	66 39 43 0c	 cmp	 WORD PTR [ebx+12], ax
  006f4	75 2e		 jne	 SHORT $LN11@ItemSerial@2

; 3368 : 				{
; 3369 : 					MapC[mapnumber].m_cItem[iItemCount].m_Time = GetTickCount() + 15000;

  006f6	8b 4d f4	 mov	 ecx, DWORD PTR _iItemCount$228940[ebp]
  006f9	69 c9 74 04 00
	00		 imul	 ecx, 1140		; 00000474H
  006ff	03 ce		 add	 ecx, esi
  00701	89 4d e8	 mov	 DWORD PTR tv1571[ebp], ecx
  00704	ff d7		 call	 edi
  00706	8b 55 e8	 mov	 edx, DWORD PTR tv1571[ebp]
  00709	05 98 3a 00 00	 add	 eax, 15000		; 00003a98H
  0070e	89 82 00 01 00
	00		 mov	 DWORD PTR ?MapC@@3PAVMapClass@@A[edx+256], eax

; 3370 : 					MapC[mapnumber].m_cItem[iItemCount].m_LootTime = GetTickCount() + 5000;

  00714	ff d7		 call	 edi
  00716	8b 4d e8	 mov	 ecx, DWORD PTR tv1571[ebp]
  00719	05 88 13 00 00	 add	 eax, 5000		; 00001388H
  0071e	89 81 08 01 00
	00		 mov	 DWORD PTR ?MapC@@3PAVMapClass@@A[ecx+264], eax
$LN11@ItemSerial@2:

; 3371 : 				}
; 3372 : 
; 3373 : 				if( lpMsg->Type == ITEMGET(12,15) )

  00724	ba 0f 18 00 00	 mov	 edx, 6159		; 0000180fH
  00729	66 39 53 0c	 cmp	 WORD PTR [ebx+12], dx
  0072d	75 25		 jne	 SHORT $LN101@ItemSerial@2

; 3374 : 				{
; 3375 : 					MapC[mapnumber].m_cItem[iItemCount].m_Time = GetTickCount() + 300000;

  0072f	8b 45 f4	 mov	 eax, DWORD PTR _iItemCount$228940[ebp]
  00732	69 c0 74 04 00
	00		 imul	 eax, 1140		; 00000474H
  00738	03 f0		 add	 esi, eax
  0073a	ff d7		 call	 edi
  0073c	05 e0 93 04 00	 add	 eax, 300000		; 000493e0H
  00741	89 86 00 01 00
	00		 mov	 DWORD PTR ?MapC@@3PAVMapClass@@A[esi+256], eax

; 3376 : 					MapC[mapnumber].m_cItem[iItemCount].m_LootTime = GetTickCount() + 10000;

  00747	ff d7		 call	 edi
  00749	05 10 27 00 00	 add	 eax, 10000		; 00002710H
  0074e	89 86 08 01 00
	00		 mov	 DWORD PTR ?MapC@@3PAVMapClass@@A[esi+264], eax
$LN101@ItemSerial@2:

; 3377 : 				}
; 3378 : 			}
; 3379 : 		}
; 3380 : 
; 3381 : 		BYTE NewOption[MAX_EXOPTION_SIZE];
; 3382 : 
; 3383 : 		for ( int i=0;i<MAX_EXOPTION_SIZE;i++)
; 3384 : 		{
; 3385 : 			NewOption[i] = FALSE;

  00754	33 c0		 xor	 eax, eax
  00756	89 45 ec	 mov	 DWORD PTR _NewOption$228948[ebp], eax
  00759	89 45 f0	 mov	 DWORD PTR _NewOption$228948[ebp+4], eax

; 3386 : 		}
; 3387 : 
; 3388 : 		if ( (lpMsg->NewOption & 0x20) != 0 )

  0075c	8a 43 13	 mov	 al, BYTE PTR [ebx+19]
  0075f	a8 20		 test	 al, 32			; 00000020H
  00761	74 04		 je	 SHORT $LN95@ItemSerial@2

; 3389 : 		{
; 3390 : 			NewOption[0] = TRUE;

  00763	c6 45 ec 01	 mov	 BYTE PTR _NewOption$228948[ebp], 1
$LN95@ItemSerial@2:

; 3391 : 		}
; 3392 : 		if ( (lpMsg->NewOption & 0x10) != 0 )

  00767	a8 10		 test	 al, 16			; 00000010H
  00769	74 04		 je	 SHORT $LN96@ItemSerial@2

; 3393 : 		{
; 3394 : 			NewOption[1] = TRUE;

  0076b	c6 45 ed 01	 mov	 BYTE PTR _NewOption$228948[ebp+1], 1
$LN96@ItemSerial@2:

; 3395 : 		}
; 3396 : 
; 3397 : 		if ( (lpMsg->NewOption & 0x8) != 0 )

  0076f	a8 08		 test	 al, 8
  00771	74 04		 je	 SHORT $LN97@ItemSerial@2

; 3398 : 		{
; 3399 : 			NewOption[2] = TRUE;

  00773	c6 45 ee 01	 mov	 BYTE PTR _NewOption$228948[ebp+2], 1
$LN97@ItemSerial@2:

; 3400 : 		}
; 3401 : 		if ( (lpMsg->NewOption & 0x4) != 0 )
; 3402 : 		{
; 3403 : 			NewOption[3] = TRUE;

  00777	b2 01		 mov	 dl, 1
  00779	a8 04		 test	 al, 4
  0077b	75 03		 jne	 SHORT $LN3@ItemSerial@2
  0077d	8a 55 ef	 mov	 dl, BYTE PTR _NewOption$228948[ebp+3]
$LN3@ItemSerial@2:

; 3404 : 		}
; 3405 : 
; 3406 : 		if ( (lpMsg->NewOption & 0x2) != 0 )
; 3407 : 		{
; 3408 : 			NewOption[4] = TRUE;

  00780	b1 01		 mov	 cl, 1
  00782	a8 02		 test	 al, 2
  00784	75 03		 jne	 SHORT $LN2@ItemSerial@2
  00786	8a 4d f0	 mov	 cl, BYTE PTR _NewOption$228948[ebp+4]
$LN2@ItemSerial@2:

; 3409 : 		}
; 3410 : 		if ( (lpMsg->NewOption & 0x1) != 0 )

  00789	a8 01		 test	 al, 1

; 3411 : 		{
; 3412 : 			NewOption[5] = TRUE;

  0078b	b0 01		 mov	 al, 1
  0078d	75 03		 jne	 SHORT $LN1@ItemSerial@2
  0078f	8a 45 f1	 mov	 al, BYTE PTR _NewOption$228948[ebp+5]
$LN1@ItemSerial@2:

; 3413 : 		}
; 3414 : 
; 3415 : 		LogAddTD("Monster Item Drop [%d][%d][%d] : serial:%u [%s][%d][%d][%d][%d] Ex:[%d,%d,%d,%d,%d,%d,%d] Set:[%d]", mapnumber, lpMsg->x, lpMsg->y, lpMsg->m_Number, ItemAttribute[lpMsg->Type].Name, lpMsg->Level, lpMsg->Op1, lpMsg->Op2, lpMsg->Op3, NewOption[0],NewOption[1],NewOption[2],NewOption[3],NewOption[4],NewOption[5],NewOption[6], lpMsg->SetOption);	

  00792	0f b6 73 1a	 movzx	 esi, BYTE PTR [ebx+26]
  00796	56		 push	 esi
  00797	0f b6 75 f2	 movzx	 esi, BYTE PTR _NewOption$228948[ebp+6]
  0079b	56		 push	 esi
  0079c	0f b6 c0	 movzx	 eax, al
  0079f	50		 push	 eax
  007a0	0f b6 45 ee	 movzx	 eax, BYTE PTR _NewOption$228948[ebp+2]
  007a4	0f b6 c9	 movzx	 ecx, cl
  007a7	51		 push	 ecx
  007a8	0f b6 4d ed	 movzx	 ecx, BYTE PTR _NewOption$228948[ebp+1]
  007ac	0f b6 d2	 movzx	 edx, dl
  007af	52		 push	 edx
  007b0	0f b6 55 ec	 movzx	 edx, BYTE PTR _NewOption$228948[ebp]
  007b4	50		 push	 eax
  007b5	0f b6 43 12	 movzx	 eax, BYTE PTR [ebx+18]
  007b9	51		 push	 ecx
  007ba	0f b6 4b 11	 movzx	 ecx, BYTE PTR [ebx+17]
  007be	52		 push	 edx
  007bf	0f b6 53 10	 movzx	 edx, BYTE PTR [ebx+16]
  007c3	50		 push	 eax
  007c4	0f b6 43 0e	 movzx	 eax, BYTE PTR [ebx+14]
  007c8	51		 push	 ecx
  007c9	0f bf 4b 0c	 movsx	 ecx, WORD PTR [ebx+12]
  007cd	6b c9 70	 imul	 ecx, 112		; 00000070H
  007d0	52		 push	 edx
  007d1	8b 53 08	 mov	 edx, DWORD PTR [ebx+8]
  007d4	50		 push	 eax
  007d5	0f b6 43 04	 movzx	 eax, BYTE PTR [ebx+4]
  007d9	81 c1 00 00 00
	00		 add	 ecx, OFFSET ?ItemAttribute@@3PAUITEM_ATTRIBUTE@@A ; ItemAttribute
  007df	51		 push	 ecx
  007e0	0f b6 4b 03	 movzx	 ecx, BYTE PTR [ebx+3]
  007e4	52		 push	 edx
  007e5	8b 95 f4 fe ff
	ff		 mov	 edx, DWORD PTR _mapnumber$[ebp]
  007eb	50		 push	 eax
  007ec	51		 push	 ecx
  007ed	52		 push	 edx
  007ee	68 00 00 00 00	 push	 OFFSET ??_C@_0GD@IBNDEANJ@Monster?5Item?5Drop?5?$FL?$CFd?$FN?$FL?$CFd?$FN?$FL?$CFd?$FN?5?3@
  007f3	ff 15 00 00 00
	00		 call	 DWORD PTR ?LogAddTD@@3P6AXPADZZA ; LogAddTD
  007f9	83 c4 48	 add	 esp, 72			; 00000048H

; 3416 : 	}
; 3417 : }

  007fc	5f		 pop	 edi
  007fd	5e		 pop	 esi
  007fe	5b		 pop	 ebx
  007ff	8b 4d fc	 mov	 ecx, DWORD PTR __$ArrayPad$[ebp]
  00802	33 cd		 xor	 ecx, ebp
  00804	e8 00 00 00 00	 call	 @__security_check_cookie@4
  00809	8b e5		 mov	 esp, ebp
  0080b	5d		 pop	 ebp
  0080c	c3		 ret	 0
$LN79@ItemSerial@2:

; 2947 : 	{
; 2948 : 		if ( gObjIsConnectedGP(aIndex) == FALSE )

  0080d	57		 push	 edi
  0080e	e8 00 00 00 00	 call	 ?gObjIsConnectedGP@@YAHH@Z ; gObjIsConnectedGP
  00813	83 c4 04	 add	 esp, 4
  00816	85 c0		 test	 eax, eax
  00818	75 2b		 jne	 SHORT $LN78@ItemSerial@2

; 2949 : 		{
; 2950 : 			LogAddC(2, "error-L3 [%s][%d]", __FILE__, __LINE__);

  0081a	68 86 0b 00 00	 push	 2950			; 00000b86H
  0081f	68 00 00 00 00	 push	 OFFSET ??_C@_0P@DNGOKBGI@DSProtocol?4cpp?$AA@
  00824	68 00 00 00 00	 push	 OFFSET ??_C@_0BC@OFCHNMFP@error?9L3?5?$FL?$CFs?$FN?$FL?$CFd?$FN?$AA@
  00829	6a 02		 push	 2
  0082b	ff 15 00 00 00
	00		 call	 DWORD PTR ?LogAddC@@3P6AXEPADZZA ; LogAddC
  00831	83 c4 10	 add	 esp, 16			; 00000010H

; 3416 : 	}
; 3417 : }

  00834	5f		 pop	 edi
  00835	5e		 pop	 esi
  00836	5b		 pop	 ebx
  00837	8b 4d fc	 mov	 ecx, DWORD PTR __$ArrayPad$[ebp]
  0083a	33 cd		 xor	 ecx, ebp
  0083c	e8 00 00 00 00	 call	 @__security_check_cookie@4
  00841	8b e5		 mov	 esp, ebp
  00843	5d		 pop	 ebp
  00844	c3		 ret	 0
$LN78@ItemSerial@2:

; 2951 : 			return;
; 2952 : 		}
; 2953 : 		
; 2954 : 		lpObj = &gObj[aIndex];

  00845	8b 0d 00 00 00
	00		 mov	 ecx, DWORD PTR ?gObj@@3PAUOBJECTSTRUCT@@A ; gObj
  0084b	8b c7		 mov	 eax, edi
  0084d	69 c0 50 2b 00
	00		 imul	 eax, 11088		; 00002b50H
  00853	8d 34 08	 lea	 esi, DWORD PTR [eax+ecx]
  00856	89 85 f4 fe ff
	ff		 mov	 DWORD PTR tv1519[ebp], eax

; 2955 : 
; 2956 : 		if ( lpMsg->MapNumber == (BYTE)-2 )

  0085c	8a 43 05	 mov	 al, BYTE PTR [ebx+5]
  0085f	89 75 f0	 mov	 DWORD PTR _lpObj$[ebp], esi
  00862	3c fe		 cmp	 al, 254			; 000000feH
  00864	75 33		 jne	 SHORT $LN77@ItemSerial@2

; 2957 : 		{
; 2958 : 			if ( lpObj->m_IfState.type != 13 )

  00866	8b 96 1c 0e 00
	00		 mov	 edx, DWORD PTR [esi+3612]
  0086c	81 e2 c0 ff 00
	00		 and	 edx, 65472		; 0000ffc0H
  00872	81 fa 40 03 00
	00		 cmp	 edx, 832		; 00000340H
  00878	74 52		 je	 SHORT $LN74@ItemSerial@2

; 2959 : 			{
; 2960 : 				LogAdd("error-L2: DarkTrainerBox not used.");

  0087a	68 00 00 00 00	 push	 OFFSET ??_C@_0CD@JBKACADO@error?9L2?3?5DarkTrainerBox?5not?5use@
  0087f	ff 15 00 00 00
	00		 call	 DWORD PTR ?LogAdd@@3P6AXPADZZA ; LogAdd
  00885	83 c4 04	 add	 esp, 4

; 3416 : 	}
; 3417 : }

  00888	5f		 pop	 edi
  00889	5e		 pop	 esi
  0088a	5b		 pop	 ebx
  0088b	8b 4d fc	 mov	 ecx, DWORD PTR __$ArrayPad$[ebp]
  0088e	33 cd		 xor	 ecx, ebp
  00890	e8 00 00 00 00	 call	 @__security_check_cookie@4
  00895	8b e5		 mov	 esp, ebp
  00897	5d		 pop	 ebp
  00898	c3		 ret	 0
$LN77@ItemSerial@2:

; 2961 : 				return;
; 2962 : 			}
; 2963 : 		}
; 2964 : 		else if ( lpObj->m_IfState.type != 7 )

  00899	8b 8e 1c 0e 00
	00		 mov	 ecx, DWORD PTR [esi+3612]
  0089f	81 e1 c0 ff 00
	00		 and	 ecx, 65472		; 0000ffc0H
  008a5	81 f9 c0 01 00
	00		 cmp	 ecx, 448		; 000001c0H
  008ab	74 1f		 je	 SHORT $LN74@ItemSerial@2

; 2965 : 		{
; 2966 : 			LogAdd("error-L2: ChaosBox not used.");

  008ad	68 00 00 00 00	 push	 OFFSET ??_C@_0BN@BDLDNMBN@error?9L2?3?5ChaosBox?5not?5used?4?$AA@
  008b2	ff 15 00 00 00
	00		 call	 DWORD PTR ?LogAdd@@3P6AXPADZZA ; LogAdd
  008b8	83 c4 04	 add	 esp, 4

; 3416 : 	}
; 3417 : }

  008bb	5f		 pop	 edi
  008bc	5e		 pop	 esi
  008bd	5b		 pop	 ebx
  008be	8b 4d fc	 mov	 ecx, DWORD PTR __$ArrayPad$[ebp]
  008c1	33 cd		 xor	 ecx, ebp
  008c3	e8 00 00 00 00	 call	 @__security_check_cookie@4
  008c8	8b e5		 mov	 esp, ebp
  008ca	5d		 pop	 ebp
  008cb	c3		 ret	 0
$LN74@ItemSerial@2:

; 2967 : 			return;
; 2968 : 		}
; 2969 : 		
; 2970 : 		PMSG_CHAOSMIXRESULT pMsg;
; 2971 : 
; 2972 : 		pMsg.h.c = 0xC1;
; 2973 : 		pMsg.h.headcode = 0x86;
; 2974 : 		pMsg.h.size = sizeof(PMSG_CHAOSMIXRESULT);
; 2975 : 
; 2976 : 		if ( lpMsg->MapNumber == (BYTE)-2 )

  008cc	3c fe		 cmp	 al, 254			; 000000feH
  008ce	0f 95 c2	 setne	 dl
  008d1	fe ca		 dec	 dl
  008d3	80 e2 63	 and	 dl, 99			; 00000063H
  008d6	fe c2		 inc	 dl

; 2977 : 		{
; 2978 : 			pMsg.Result = 100;
; 2979 : 		}
; 2980 : 		else
; 2981 : 		{
; 2982 : 			pMsg.Result = 1;
; 2983 : 		}
; 2984 : 
; 2985 : 		CItem NewItem;

  008d8	8d 8d f8 fe ff
	ff		 lea	 ecx, DWORD PTR _NewItem$228848[ebp]
  008de	c6 45 cc c1	 mov	 BYTE PTR _pMsg$228843[ebp], 193 ; 000000c1H
  008e2	66 c7 45 cd 10
	86		 mov	 WORD PTR _pMsg$228843[ebp+1], 34320 ; 00008610H
  008e8	88 55 cf	 mov	 BYTE PTR _pMsg$228843[ebp+3], dl
  008eb	e8 00 00 00 00	 call	 ??0CItem@@QAE@XZ	; CItem::CItem

; 2986 : 
; 2987 : 		NewItem.m_Level = lpMsg->Level;

  008f0	8a 43 0e	 mov	 al, BYTE PTR [ebx+14]

; 2988 : 		NewItem.m_Durability = (float)ItemGetDurability(lpMsg->Type, lpMsg->Level, lpMsg->NewOption, lpMsg->SetOption);

  008f3	0f b6 53 1a	 movzx	 edx, BYTE PTR [ebx+26]
  008f7	0f b6 c8	 movzx	 ecx, al
  008fa	52		 push	 edx
  008fb	66 89 8d 00 ff
	ff ff		 mov	 WORD PTR _NewItem$228848[ebp+8], cx
  00902	0f b6 4b 13	 movzx	 ecx, BYTE PTR [ebx+19]
  00906	0f b6 d0	 movzx	 edx, al
  00909	0f bf 43 0c	 movsx	 eax, WORD PTR [ebx+12]
  0090d	51		 push	 ecx
  0090e	52		 push	 edx
  0090f	50		 push	 eax
  00910	e8 00 00 00 00	 call	 ?ItemGetDurability@@YAHHHHH@Z ; ItemGetDurability
  00915	89 45 f4	 mov	 DWORD PTR tv1572[ebp], eax

; 2989 : 
; 2990 : 		if ( lpMsg->Type == ITEMGET(14,7) ) // Siege Potion

  00918	0f b7 43 0c	 movzx	 eax, WORD PTR [ebx+12]
  0091c	db 45 f4	 fild	 DWORD PTR tv1572[ebp]
  0091f	b9 07 1c 00 00	 mov	 ecx, 7175		; 00001c07H
  00924	83 c4 10	 add	 esp, 16			; 00000010H
  00927	d9 9d 1c ff ff
	ff		 fstp	 DWORD PTR _NewItem$228848[ebp+36]
  0092d	66 3b c1	 cmp	 ax, cx
  00930	75 10		 jne	 SHORT $LN71@ItemSerial@2

; 2991 : 		{
; 2992 : 			NewItem.m_Durability = lpMsg->Dur;

  00932	0f b6 53 0f	 movzx	 edx, BYTE PTR [ebx+15]
  00936	89 55 f4	 mov	 DWORD PTR tv1570[ebp], edx
  00939	db 45 f4	 fild	 DWORD PTR tv1570[ebp]
  0093c	d9 9d 1c ff ff
	ff		 fstp	 DWORD PTR _NewItem$228848[ebp+36]
$LN71@ItemSerial@2:

; 2993 : 		}
; 2994 : 
; 2995 : 		if ( lpMsg->Type == ITEMGET(13,37) )

  00942	b9 25 1a 00 00	 mov	 ecx, 6693		; 00001a25H
  00947	66 3b c1	 cmp	 ax, cx
  0094a	75 10		 jne	 SHORT $LN70@ItemSerial@2

; 2996 : 		{
; 2997 : 			NewItem.m_Durability = lpMsg->Dur;// egfg

  0094c	0f b6 53 0f	 movzx	 edx, BYTE PTR [ebx+15]
  00950	89 55 f4	 mov	 DWORD PTR tv1569[ebp], edx
  00953	db 45 f4	 fild	 DWORD PTR tv1569[ebp]
  00956	d9 9d 1c ff ff
	ff		 fstp	 DWORD PTR _NewItem$228848[ebp+36]
$LN70@ItemSerial@2:

; 2998 : 		}
; 2999 : 
; 3000 : #ifdef PRIVATE_MODULE
; 3001 : 
; 3002 : #ifdef GRAND_HERO_DEV
; 3003 : 		if(g_ZtLicense.user.GrandHero)

  0095c	80 3d d2 00 00
	00 00		 cmp	 BYTE PTR ?g_ZtLicense@@3VCZtLicense@@A+210, 0
  00963	74 57		 je	 SHORT $LN102@ItemSerial@2

; 3004 : 		{
; 3005 : 			if(GrandHero.SockeetItem(lpMsg->Type) == TRUE)

  00965	98		 cwde
  00966	50		 push	 eax
  00967	b9 00 00 00 00	 mov	 ecx, OFFSET ?GrandHero@@3VcGrandHero@@A ; GrandHero
  0096c	e8 00 00 00 00	 call	 ?SockeetItem@cGrandHero@@QAE_NH@Z ; cGrandHero::SockeetItem

; 3006 : 			{
; 3007 : 				BYTE Sockeet[5] = {0xFE,0xFE,0xFE,0xFE,0xFE};
; 3008 : 				NewItem.Convert(lpMsg->Type,lpMsg->Op1, lpMsg->Op2, lpMsg->Op3,lpMsg->NewOption, lpMsg->SetOption,0, Sockeet, 0xFF, 0, CURRENT_DB_VERSION);

  00971	0f b6 53 1a	 movzx	 edx, BYTE PTR [ebx+26]
  00975	6a 03		 push	 3
  00977	6a 00		 push	 0
  00979	3c 01		 cmp	 al, 1
  0097b	0f b6 43 13	 movzx	 eax, BYTE PTR [ebx+19]
  0097f	68 ff 00 00 00	 push	 255			; 000000ffH
  00984	75 11		 jne	 SHORT $LN68@ItemSerial@2
  00986	8d 4d f4	 lea	 ecx, DWORD PTR _Sockeet$228854[ebp]
  00989	c7 45 f4 fe fe
	fe fe		 mov	 DWORD PTR _Sockeet$228854[ebp], -16843010 ; fefefefeH
  00990	c6 45 f8 fe	 mov	 BYTE PTR _Sockeet$228854[ebp+4], 254 ; 000000feH
  00994	51		 push	 ecx

; 3009 : 			}
; 3010 : 			else

  00995	eb 02		 jmp	 SHORT $LN107@ItemSerial@2
$LN68@ItemSerial@2:

; 3011 : 			{
; 3012 : 				NewItem.Convert(lpMsg->Type,lpMsg->Op1, lpMsg->Op2, lpMsg->Op3,lpMsg->NewOption, lpMsg->SetOption,0, 0, 0xFF, 0, CURRENT_DB_VERSION);

  00997	6a 00		 push	 0
$LN107@ItemSerial@2:
  00999	0f b6 4b 12	 movzx	 ecx, BYTE PTR [ebx+18]
  0099d	6a 00		 push	 0
  0099f	52		 push	 edx
  009a0	0f b6 53 11	 movzx	 edx, BYTE PTR [ebx+17]
  009a4	50		 push	 eax
  009a5	0f b6 43 10	 movzx	 eax, BYTE PTR [ebx+16]
  009a9	51		 push	 ecx
  009aa	0f bf 4b 0c	 movsx	 ecx, WORD PTR [ebx+12]
  009ae	52		 push	 edx
  009af	50		 push	 eax
  009b0	51		 push	 ecx
  009b1	8d 8d f8 fe ff
	ff		 lea	 ecx, DWORD PTR _NewItem$228848[ebp]
  009b7	e8 00 00 00 00	 call	 ?Convert@CItem@@QAEXHEEEEEEPAEEEE@Z ; CItem::Convert
$LN102@ItemSerial@2:

; 3013 : 			}
; 3014 : 		}
; 3015 : #endif
; 3016 : 		if(g_ZtLicense.CheckUser(eZtUB::drynea) || g_ZtLicense.CheckUser(eZtUB::MedoniAndrei))

  009bc	6a 01		 push	 1
  009be	b9 00 00 00 00	 mov	 ecx, OFFSET ?g_ZtLicense@@3VCZtLicense@@A ; g_ZtLicense
  009c3	e8 00 00 00 00	 call	 ?CheckUser@CZtLicense@@QAE_NH@Z ; CZtLicense::CheckUser
  009c8	84 c0		 test	 al, al
  009ca	75 14		 jne	 SHORT $LN65@ItemSerial@2
  009cc	6a 32		 push	 50			; 00000032H
  009ce	b9 00 00 00 00	 mov	 ecx, OFFSET ?g_ZtLicense@@3VCZtLicense@@A ; g_ZtLicense
  009d3	e8 00 00 00 00	 call	 ?CheckUser@CZtLicense@@QAE_NH@Z ; CZtLicense::CheckUser
  009d8	84 c0		 test	 al, al

; 3053 : 			}
; 3054 : 		}
; 3055 : 		else
; 3056 : 		{
; 3057 : 			NewItem.Convert(lpMsg->Type,lpMsg->Op1, lpMsg->Op2, lpMsg->Op3,lpMsg->NewOption, lpMsg->SetOption,0, NULL, 0xFF, 0, CURRENT_DB_VERSION);

  009da	0f 84 f7 00 00
	00		 je	 $LN64@ItemSerial@2
$LN65@ItemSerial@2:

; 3017 : 		{
; 3018 : 			if(g_SocketOption.CheckItemType(lpMsg->Type))

  009e0	0f bf 53 0c	 movsx	 edx, WORD PTR [ebx+12]
  009e4	52		 push	 edx
  009e5	b9 00 00 00 00	 mov	 ecx, OFFSET ?g_SocketOption@@3VCSocketOption@@A ; g_SocketOption
  009ea	e8 00 00 00 00	 call	 ?CheckItemType@CSocketOption@@QAEEH@Z ; CSocketOption::CheckItemType
  009ef	84 c0		 test	 al, al
  009f1	0f 84 e0 00 00
	00		 je	 $LN64@ItemSerial@2

; 3019 : 			{
; 3020 : 				if(lpObj->MixManagerSocket == 1)

  009f7	8a 86 1c 28 00
	00		 mov	 al, BYTE PTR [esi+10268]
  009fd	3c 01		 cmp	 al, 1
  009ff	75 3d		 jne	 SHORT $LN63@ItemSerial@2

; 3021 : 				{
; 3022 : 					BYTE Sockeet[5] = {0xFE,0xFF,0xFF,0xFF,0xFF};

  00a01	c7 45 f4 fe ff
	ff ff		 mov	 DWORD PTR _Sockeet$228860[ebp], -2 ; fffffffeH
$LN111@ItemSerial@2:

; 3023 : 					NewItem.Convert(lpMsg->Type,lpMsg->Op1, lpMsg->Op2, lpMsg->Op3,lpMsg->NewOption, lpMsg->SetOption,0, Sockeet, 0xFF, 0, CURRENT_DB_VERSION);

  00a08	0f b6 4b 1a	 movzx	 ecx, BYTE PTR [ebx+26]
  00a0c	0f b6 53 13	 movzx	 edx, BYTE PTR [ebx+19]
  00a10	6a 03		 push	 3
  00a12	6a 00		 push	 0
  00a14	68 ff 00 00 00	 push	 255			; 000000ffH
  00a19	8d 45 f4	 lea	 eax, DWORD PTR _Sockeet$228860[ebp]
  00a1c	50		 push	 eax
  00a1d	0f b6 43 12	 movzx	 eax, BYTE PTR [ebx+18]
  00a21	6a 00		 push	 0
  00a23	51		 push	 ecx
  00a24	0f b6 4b 11	 movzx	 ecx, BYTE PTR [ebx+17]
  00a28	52		 push	 edx
  00a29	0f b6 53 10	 movzx	 edx, BYTE PTR [ebx+16]
  00a2d	50		 push	 eax
  00a2e	0f bf 43 0c	 movsx	 eax, WORD PTR [ebx+12]
  00a32	51		 push	 ecx
  00a33	52		 push	 edx
  00a34	c6 45 f8 ff	 mov	 BYTE PTR _Sockeet$228860[ebp+4], 255 ; 000000ffH
  00a38	50		 push	 eax
  00a39	e9 c4 00 00 00	 jmp	 $LN108@ItemSerial@2
$LN63@ItemSerial@2:

; 3024 : 				}
; 3025 : 				else if(lpObj->MixManagerSocket == 2)

  00a3e	3c 02		 cmp	 al, 2
  00a40	75 1d		 jne	 SHORT $LN61@ItemSerial@2

; 3026 : 				{
; 3027 : 					BYTE Sockeet[5] = {0xFE,0xFE,0xFF,0xFF,0xFF};
; 3028 : 					NewItem.Convert(lpMsg->Type,lpMsg->Op1, lpMsg->Op2, lpMsg->Op3,lpMsg->NewOption, lpMsg->SetOption,0, Sockeet, 0xFF, 0, CURRENT_DB_VERSION);

  00a42	6a 03		 push	 3
  00a44	6a 00		 push	 0
  00a46	68 ff 00 00 00	 push	 255			; 000000ffH
  00a4b	8d 4d f4	 lea	 ecx, DWORD PTR _Sockeet$228863[ebp]
  00a4e	c7 45 f4 fe fe
	ff ff		 mov	 DWORD PTR _Sockeet$228863[ebp], -258 ; fffffefeH
  00a55	c6 45 f8 ff	 mov	 BYTE PTR _Sockeet$228863[ebp+4], 255 ; 000000ffH
  00a59	51		 push	 ecx
  00a5a	e9 83 00 00 00	 jmp	 $LN109@ItemSerial@2
$LN61@ItemSerial@2:

; 3029 : 				}
; 3030 : 				else if(lpObj->MixManagerSocket == 3)

  00a5f	3c 03		 cmp	 al, 3
  00a61	75 3a		 jne	 SHORT $LN59@ItemSerial@2

; 3031 : 				{
; 3032 : 					BYTE Sockeet[5] = {0xFE,0xFE,0xFE,0xFF,0xFF};
; 3033 : 					NewItem.Convert(lpMsg->Type,lpMsg->Op1, lpMsg->Op2, lpMsg->Op3,lpMsg->NewOption, lpMsg->SetOption,0, Sockeet, 0xFF, 0, CURRENT_DB_VERSION);

  00a63	0f b6 43 1a	 movzx	 eax, BYTE PTR [ebx+26]
  00a67	0f b6 4b 13	 movzx	 ecx, BYTE PTR [ebx+19]
  00a6b	6a 03		 push	 3
  00a6d	6a 00		 push	 0
  00a6f	68 ff 00 00 00	 push	 255			; 000000ffH
  00a74	8d 55 f4	 lea	 edx, DWORD PTR _Sockeet$228866[ebp]
  00a77	52		 push	 edx
  00a78	0f b6 53 12	 movzx	 edx, BYTE PTR [ebx+18]
  00a7c	6a 00		 push	 0
  00a7e	50		 push	 eax
  00a7f	0f b6 43 11	 movzx	 eax, BYTE PTR [ebx+17]
  00a83	51		 push	 ecx
  00a84	0f b6 4b 10	 movzx	 ecx, BYTE PTR [ebx+16]
  00a88	52		 push	 edx
  00a89	0f bf 53 0c	 movsx	 edx, WORD PTR [ebx+12]
  00a8d	50		 push	 eax
  00a8e	51		 push	 ecx
  00a8f	c7 45 f4 fe fe
	fe ff		 mov	 DWORD PTR _Sockeet$228866[ebp], -65794 ; fffefefeH
  00a96	c6 45 f8 ff	 mov	 BYTE PTR _Sockeet$228866[ebp+4], 255 ; 000000ffH
  00a9a	52		 push	 edx
  00a9b	eb 65		 jmp	 SHORT $LN108@ItemSerial@2
$LN59@ItemSerial@2:

; 3034 : 				}
; 3035 : 				else if(lpObj->MixManagerSocket == 4)

  00a9d	3c 04		 cmp	 al, 4
  00a9f	75 0c		 jne	 SHORT $LN57@ItemSerial@2

; 3036 : 				{
; 3037 : 					BYTE Sockeet[5] = {0xFE,0xFE,0xFE,0xFE,0xFF};

  00aa1	c7 45 f4 fe fe
	fe fe		 mov	 DWORD PTR _Sockeet$228869[ebp], -16843010 ; fefefefeH

; 3038 : 					NewItem.Convert(lpMsg->Type,lpMsg->Op1, lpMsg->Op2, lpMsg->Op3,lpMsg->NewOption, lpMsg->SetOption,0, Sockeet, 0xFF, 0, CURRENT_DB_VERSION);

  00aa8	e9 5b ff ff ff	 jmp	 $LN111@ItemSerial@2
$LN57@ItemSerial@2:

; 3039 : 				}
; 3040 : 				else if(lpObj->MixManagerSocket == 5)
; 3041 : 				{
; 3042 : 					BYTE Sockeet[5] = {0xFE,0xFE,0xFE,0xFE,0xFE};
; 3043 : 					NewItem.Convert(lpMsg->Type,lpMsg->Op1, lpMsg->Op2, lpMsg->Op3,lpMsg->NewOption, lpMsg->SetOption,0, Sockeet, 0xFF, 0, CURRENT_DB_VERSION);

  00aad	0f b6 53 1a	 movzx	 edx, BYTE PTR [ebx+26]
  00ab1	6a 03		 push	 3
  00ab3	6a 00		 push	 0
  00ab5	3c 05		 cmp	 al, 5
  00ab7	0f b6 43 13	 movzx	 eax, BYTE PTR [ebx+19]
  00abb	68 ff 00 00 00	 push	 255			; 000000ffH
  00ac0	75 11		 jne	 SHORT $LN55@ItemSerial@2
  00ac2	8d 4d f4	 lea	 ecx, DWORD PTR _Sockeet$228872[ebp]
  00ac5	c7 45 f4 fe fe
	fe fe		 mov	 DWORD PTR _Sockeet$228872[ebp], -16843010 ; fefefefeH
  00acc	c6 45 f8 fe	 mov	 BYTE PTR _Sockeet$228872[ebp+4], 254 ; 000000feH
  00ad0	51		 push	 ecx

; 3044 : 				}
; 3045 : 				else

  00ad1	eb 17		 jmp	 SHORT $LN110@ItemSerial@2
$LN55@ItemSerial@2:

; 3046 : 				{
; 3047 : 					NewItem.Convert(lpMsg->Type,lpMsg->Op1, lpMsg->Op2, lpMsg->Op3,lpMsg->NewOption, lpMsg->SetOption,0, NULL, 0xFF, 0, CURRENT_DB_VERSION);

  00ad3	6a 00		 push	 0

; 3048 : 				}
; 3049 : 			}
; 3050 : 			else

  00ad5	eb 13		 jmp	 SHORT $LN110@ItemSerial@2
$LN64@ItemSerial@2:

; 3051 : 			{
; 3052 : 				NewItem.Convert(lpMsg->Type,lpMsg->Op1, lpMsg->Op2, lpMsg->Op3,lpMsg->NewOption, lpMsg->SetOption,0, NULL, 0xFF, 0, CURRENT_DB_VERSION);

  00ad7	6a 03		 push	 3
  00ad9	6a 00		 push	 0
  00adb	68 ff 00 00 00	 push	 255			; 000000ffH
  00ae0	6a 00		 push	 0
$LN109@ItemSerial@2:
  00ae2	0f b6 53 1a	 movzx	 edx, BYTE PTR [ebx+26]
  00ae6	0f b6 43 13	 movzx	 eax, BYTE PTR [ebx+19]
$LN110@ItemSerial@2:
  00aea	0f b6 4b 12	 movzx	 ecx, BYTE PTR [ebx+18]
  00aee	6a 00		 push	 0
  00af0	52		 push	 edx
  00af1	0f b6 53 11	 movzx	 edx, BYTE PTR [ebx+17]
  00af5	50		 push	 eax
  00af6	0f b6 43 10	 movzx	 eax, BYTE PTR [ebx+16]
  00afa	51		 push	 ecx
  00afb	0f bf 4b 0c	 movsx	 ecx, WORD PTR [ebx+12]
  00aff	52		 push	 edx
  00b00	50		 push	 eax
  00b01	51		 push	 ecx
$LN108@ItemSerial@2:
  00b02	8d 8d f8 fe ff
	ff		 lea	 ecx, DWORD PTR _NewItem$228848[ebp]
  00b08	e8 00 00 00 00	 call	 ?Convert@CItem@@QAEXHEEEEEEPAEEEE@Z ; CItem::Convert

; 3058 : 		}
; 3059 : #else
; 3060 : 		NewItem.Convert(lpMsg->Type,lpMsg->Op1, lpMsg->Op2, lpMsg->Op3,lpMsg->NewOption, lpMsg->SetOption,0, NULL, 0xFF, 0, CURRENT_DB_VERSION);
; 3061 : #endif
; 3062 : 		ItemByteConvert(pMsg.ItemInfo, NewItem);

  00b0d	81 ec d4 00 00
	00		 sub	 esp, 212		; 000000d4H
  00b13	8d 55 d0	 lea	 edx, DWORD PTR _pMsg$228843[ebp+4]
  00b16	8b fc		 mov	 edi, esp
  00b18	b9 35 00 00 00	 mov	 ecx, 53			; 00000035H
  00b1d	8d b5 f8 fe ff
	ff		 lea	 esi, DWORD PTR _NewItem$228848[ebp]
  00b23	52		 push	 edx
  00b24	f3 a5		 rep movsd
  00b26	e8 00 00 00 00	 call	 ?ItemByteConvert@@YAXPAEVCItem@@@Z ; ItemByteConvert

; 3063 : 
; 3064 : 		NewItem.m_Number = lpMsg->m_Number;
; 3065 : 		g_MixSystem.ChaosBoxInit(lpObj);

  00b2b	8b 4d f0	 mov	 ecx, DWORD PTR _lpObj$[ebp]
  00b2e	8b 43 08	 mov	 eax, DWORD PTR [ebx+8]
  00b31	81 c4 d8 00 00
	00		 add	 esp, 216		; 000000d8H
  00b37	51		 push	 ecx
  00b38	b9 00 00 00 00	 mov	 ecx, OFFSET ?g_MixSystem@@3VCMixSystem@@A ; g_MixSystem
  00b3d	89 85 f8 fe ff
	ff		 mov	 DWORD PTR _NewItem$228848[ebp], eax
  00b43	e8 00 00 00 00	 call	 ?ChaosBoxInit@CMixSystem@@QAEHPAUOBJECTSTRUCT@@@Z ; CMixSystem::ChaosBoxInit

; 3066 : 		gObjChaosBoxInsertItemPos(aIndex, NewItem, 0, -1);

  00b48	6a ff		 push	 -1
  00b4a	6a 00		 push	 0
  00b4c	81 ec d4 00 00
	00		 sub	 esp, 212		; 000000d4H
  00b52	8b fc		 mov	 edi, esp
  00b54	b9 35 00 00 00	 mov	 ecx, 53			; 00000035H
  00b59	8d b5 f8 fe ff
	ff		 lea	 esi, DWORD PTR _NewItem$228848[ebp]
  00b5f	f3 a5		 rep movsd
  00b61	8b 75 dc	 mov	 esi, DWORD PTR tv1415[ebp]
  00b64	56		 push	 esi
  00b65	e8 00 00 00 00	 call	 ?gObjChaosBoxInsertItemPos@@YAEHVCItem@@HH@Z ; gObjChaosBoxInsertItemPos

; 3067 : 		gObjChaosItemSet(aIndex, 0, 1);

  00b6a	6a 01		 push	 1
  00b6c	6a 00		 push	 0
  00b6e	56		 push	 esi
  00b6f	e8 00 00 00 00	 call	 ?gObjChaosItemSet@@YAXHHE@Z ; gObjChaosItemSet
  00b74	81 c4 ec 00 00
	00		 add	 esp, 236		; 000000ecH

; 3068 : 		BYTE ExOption[MAX_EXOPTION_SIZE];
; 3069 : 		ItemIsBufExOption(ExOption, &NewItem);

  00b7a	8d 95 f8 fe ff
	ff		 lea	 edx, DWORD PTR _NewItem$228848[ebp]
  00b80	52		 push	 edx
  00b81	8d 45 e4	 lea	 eax, DWORD PTR _ExOption$228876[ebp]
  00b84	50		 push	 eax
  00b85	e8 00 00 00 00	 call	 ?ItemIsBufExOption@@YAXPAEPAVCItem@@@Z ; ItemIsBufExOption

; 3070 : 
; 3071 : 		LogAddTD("[%s][%s] CBMix Item Create Item:%s [%u][%d] [%d][%d][%d][%d] Ex:[%d,%d,%d,%d,%d,%d,%d] Set:[%d]",	lpObj->AccountID, lpObj->Name, NewItem.GetName(), lpMsg->m_Number, lpMsg->Dur, NewItem.m_Level, NewItem.m_Option1, NewItem.m_Option2, NewItem.m_Option3, ExOption[0], ExOption[1], ExOption[2], ExOption[3], ExOption[4], ExOption[5], ExOption[6], lpMsg->SetOption);

  00b8a	0f b6 4b 1a	 movzx	 ecx, BYTE PTR [ebx+26]
  00b8e	0f b6 55 ea	 movzx	 edx, BYTE PTR _ExOption$228876[ebp+6]
  00b92	0f b6 45 e9	 movzx	 eax, BYTE PTR _ExOption$228876[ebp+5]
  00b96	83 c4 08	 add	 esp, 8
  00b99	51		 push	 ecx
  00b9a	0f b6 4d e8	 movzx	 ecx, BYTE PTR _ExOption$228876[ebp+4]
  00b9e	52		 push	 edx
  00b9f	0f b6 55 e7	 movzx	 edx, BYTE PTR _ExOption$228876[ebp+3]
  00ba3	50		 push	 eax
  00ba4	0f b6 45 e6	 movzx	 eax, BYTE PTR _ExOption$228876[ebp+2]
  00ba8	51		 push	 ecx
  00ba9	0f b6 4d e5	 movzx	 ecx, BYTE PTR _ExOption$228876[ebp+1]
  00bad	52		 push	 edx
