; Listing generated by Microsoft (R) Optimizing Compiler Version 16.00.30319.01 

	TITLE	E:\work\tranet_version\GS\GameServer\DungeonSiege.cpp
	.686P
	.XMM
	include listing.inc
	.model	flat

INCLUDELIB LIBCMT
INCLUDELIB OLDNAMES

_DATA	SEGMENT
_g_iNpcUpDfLevel_CGATE DD 01H
	DD	02H
	DD	02dc6c0H
	DD	02H
	DD	03H
	DD	02dc6c0H
	DD	03H
	DD	04H
	DD	02dc6c0H
_g_iNpcUpDfLevel_CSTATUE DD 01H
	DD	03H
	DD	02dc6c0H
	DD	02H
	DD	05H
	DD	02dc6c0H
	DD	03H
	DD	07H
	DD	02dc6c0H
_g_iNpcUpMaxHP_CGATE DD 02625a0H
	DD	02H
	DD	0f4240H
	DD	03567e0H
	DD	03H
	DD	0f4240H
	DD	04f5880H
	DD	04H
	DD	0f4240H
_g_iNpcUpMaxHP_CSTATUE DD 02191c0H
	DD	03H
	DD	0f4240H
	DD	033e140H
	DD	05H
	DD	0f4240H
	DD	04c4b40H
	DD	07H
	DD	0f4240H
_g_iNpcUpRgLevel_CSTATUE DD 01H
	DD	03H
	DD	04c4b40H
	DD	02H
	DD	05H
	DD	04c4b40H
	DD	03H
	DD	07H
	DD	04c4b40H
_g_iCsUserReSpawnArea DD 023H
	DD	011H
	DD	090H
	DD	030H
	DD	04aH
	DD	090H
	DD	073H
	DD	09aH
	DD	023H
	DD	011H
	DD	090H
	DD	030H
_g_iNpcDefense_CGATE DD 064H
	DD	0b4H
	DD	012cH
	DD	0208H
_g_iNpcDefense_CSTATUE DD 050H
	DD	0b4H
	DD	0154H
	DD	0226H
_g_iCastleWallStepAxisY DD 071H
	DD	0a0H
	DD	0cbH
_g_sttBLOODCASTLE_LEVEL DD 0fH
	DD	050H
	DD	0aH
	DD	03cH
	DD	051H
	DD	082H
	DD	03dH
	DD	06eH
	DD	083H
	DD	0b4H
	DD	06fH
	DD	0a0H
	DD	0b5H
	DD	0e6H
	DD	0a1H
	DD	0d2H
	DD	0e7H
	DD	0118H
	DD	0d3H
	DD	0104H
	DD	0119H
	DD	014aH
	DD	0105H
	DD	0136H
	DD	014bH
	DD	03e8H
	DD	0137H
	DD	03e8H
	DD	0fH
	DD	04afH
	DD	0aH
	DD	04afH
_DATA	ENDS
PUBLIC	?set@PBMSG_HEAD2@@QAEXPAEEEE@Z			; PBMSG_HEAD2::set
; Function compile flags: /Ogtp
; File e:\work\tranet_version\gs\include\prodef.h
;	COMDAT ?set@PBMSG_HEAD2@@QAEXPAEEEE@Z
_TEXT	SEGMENT
_lpBuf$ = 8						; size = 4
_head$ = 12						; size = 1
_sub$ = 16						; size = 1
_size$ = 20						; size = 1
?set@PBMSG_HEAD2@@QAEXPAEEEE@Z PROC			; PBMSG_HEAD2::set, COMDAT
; _this$ = ecx

; 104  : 	{

  00000	55		 push	 ebp
  00001	8b ec		 mov	 ebp, esp

; 105  : 		lpBuf[0] = 0xC1;

  00003	8b 45 08	 mov	 eax, DWORD PTR _lpBuf$[ebp]

; 106  : 		lpBuf[1] = size;

  00006	8a 4d 14	 mov	 cl, BYTE PTR _size$[ebp]

; 107  : 		lpBuf[2] = head;

  00009	8a 55 0c	 mov	 dl, BYTE PTR _head$[ebp]
  0000c	88 48 01	 mov	 BYTE PTR [eax+1], cl

; 108  : 		lpBuf[3] = sub;

  0000f	8a 4d 10	 mov	 cl, BYTE PTR _sub$[ebp]
  00012	c6 00 c1	 mov	 BYTE PTR [eax], 193	; 000000c1H
  00015	88 50 02	 mov	 BYTE PTR [eax+2], dl
  00018	88 48 03	 mov	 BYTE PTR [eax+3], cl

; 109  : 	};

  0001b	5d		 pop	 ebp
  0001c	c2 10 00	 ret	 16			; 00000010H
?set@PBMSG_HEAD2@@QAEXPAEEEE@Z ENDP			; PBMSG_HEAD2::set
_TEXT	ENDS
PUBLIC	??_H@YGXPAXIHP6EPAX0@Z@Z			; `vector constructor iterator'
; Function compile flags: /Ogtp
;	COMDAT ??_H@YGXPAXIHP6EPAX0@Z@Z
_TEXT	SEGMENT
___t$ = 8						; size = 4
___s$ = 12						; size = 4
___n$ = 16						; size = 4
___f$ = 20						; size = 4
??_H@YGXPAXIHP6EPAX0@Z@Z PROC				; `vector constructor iterator', COMDAT
  00000	55		 push	 ebp
  00001	8b ec		 mov	 ebp, esp
  00003	57		 push	 edi
  00004	8b 7d 10	 mov	 edi, DWORD PTR ___n$[ebp]
  00007	4f		 dec	 edi
  00008	78 14		 js	 SHORT $LN1@vector
  0000a	53		 push	 ebx
  0000b	8b 5d 14	 mov	 ebx, DWORD PTR ___f$[ebp]
  0000e	56		 push	 esi
  0000f	8b 75 08	 mov	 esi, DWORD PTR ___t$[ebp]
$LL2@vector:
  00012	8b ce		 mov	 ecx, esi
  00014	ff d3		 call	 ebx
  00016	03 75 0c	 add	 esi, DWORD PTR ___s$[ebp]
  00019	4f		 dec	 edi
  0001a	79 f6		 jns	 SHORT $LL2@vector
  0001c	5e		 pop	 esi
  0001d	5b		 pop	 ebx
$LN1@vector:
  0001e	5f		 pop	 edi
  0001f	5d		 pop	 ebp
  00020	c2 10 00	 ret	 16			; 00000010H
??_H@YGXPAXIHP6EPAX0@Z@Z ENDP				; `vector constructor iterator'
_TEXT	ENDS
PUBLIC	??1CDungeonSiege@@QAE@XZ			; CDungeonSiege::~CDungeonSiege
; Function compile flags: /Ogtp
; File e:\work\tranet_version\gs\gameserver\dungeonsiege.cpp
;	COMDAT ??1CDungeonSiege@@QAE@XZ
_TEXT	SEGMENT
??1CDungeonSiege@@QAE@XZ PROC				; CDungeonSiege::~CDungeonSiege, COMDAT
; _this$ = ecx

; 24   : }

  00000	c3		 ret	 0
??1CDungeonSiege@@QAE@XZ ENDP				; CDungeonSiege::~CDungeonSiege
_TEXT	ENDS
PUBLIC	?Init@CDungeonSiege@@QAEXXZ			; CDungeonSiege::Init
EXTRN	_memset:PROC
; Function compile flags: /Ogtp
;	COMDAT ?Init@CDungeonSiege@@QAEXXZ
_TEXT	SEGMENT
?Init@CDungeonSiege@@QAEXXZ PROC			; CDungeonSiege::Init, COMDAT
; _this$ = ecx

; 27   : {

  00000	53		 push	 ebx
  00001	56		 push	 esi
  00002	8b f1		 mov	 esi, ecx

; 28   : 	this->iEventStatus = eEVENTDUNGEON_CLOSE;

  00004	33 db		 xor	 ebx, ebx

; 29   : 	this->bCaptured = false;
; 30   : 	memset(this->szLordGuild, 0, sizeof(this->szLordGuild));

  00006	33 c0		 xor	 eax, eax
  00008	89 1e		 mov	 DWORD PTR [esi], ebx
  0000a	88 5e 14	 mov	 BYTE PTR [esi+20], bl
  0000d	89 46 15	 mov	 DWORD PTR [esi+21], eax
  00010	89 46 19	 mov	 DWORD PTR [esi+25], eax
  00013	88 46 1d	 mov	 BYTE PTR [esi+29], al

; 31   : 	this->iRegCount = 0;
; 32   : 	memset(this->reg_list, 0, sizeof(this->reg_list));

  00016	6a 5a		 push	 90			; 0000005aH
  00018	8d 86 16 01 00
	00		 lea	 eax, DWORD PTR [esi+278]
  0001e	53		 push	 ebx
  0001f	50		 push	 eax
  00020	89 5e 20	 mov	 DWORD PTR [esi+32], ebx
  00023	e8 00 00 00 00	 call	 _memset

; 33   : 	this->iTickCount = 0;
; 34   : 	this->iTickRemain = 0;
; 35   : 	this->iTickWait = 0;
; 36   : 	this->iTickFinal1 = 0;
; 37   : 	this->iTickFinal2 = 0;
; 38   : 	this->aIndexFinal1 = -1;

  00028	83 c8 ff	 or	 eax, -1
  0002b	89 46 38	 mov	 DWORD PTR [esi+56], eax

; 39   : 	this->aIndexFinal2 = -1;

  0002e	89 46 3c	 mov	 DWORD PTR [esi+60], eax

; 40   : 	this->aGuildFinal1 = -1;

  00031	89 46 40	 mov	 DWORD PTR [esi+64], eax

; 41   : 	this->aGuildFinal2 = -1;

  00034	89 46 44	 mov	 DWORD PTR [esi+68], eax

; 42   : 	this->bEnable = 0;
; 43   : 	this->iNpcClass = 0;
; 44   : 	this->iNpcMap = 0;
; 45   : 	this->iNpcX = 0;
; 46   : 	this->iNpcY = 0;
; 47   : 	this->iEventStartDay = 0;
; 48   : 	this->iEventStartHour = 0;
; 49   : 	this->iEventeStartMinut = 0;
; 50   : 	this->iEventDurationStage1 = 0;
; 51   : 	this->iEventDurationStage2 = 0;
; 52   : 	this->iEventDurationWait1 = 0;
; 53   : 	this->iEventDurationWait2 = 0;
; 54   : 	this->m_EventMapNumber = 1;
; 55   : 	this->m_EventStage1WaitX = 0;
; 56   : 	this->m_EventStage1WaitY = 0;
; 57   : 	this->m_EventStage1KillX = 0;
; 58   : 	this->m_EventStage1KillY = 0;
; 59   : 	this->m_EventStage2WaitX = 0;
; 60   : 	this->m_EventStage2WaitY = 0;
; 61   : 	this->m_EventStage2KillX = 0;
; 62   : 	this->m_EventStage2KillY = 0;
; 63   : 	this->m_EventPlayerDieMap = 0;
; 64   : 	this->m_EventPlayerDieX = 0;
; 65   : 	this->m_EventPlayerDieY = 0;
; 66   : 	this->m_BuffEnable = 0;
; 67   : 	this->m_BuffPlusAttackPercent = 0;
; 68   : 	this->m_BuffPlusDefencePercent = 0;
; 69   : 	this->m_RewardEnable = 0;
; 70   : 	this->m_RewardItemEnable = 0;
; 71   : 	this->m_RewardItemType = 0;
; 72   : 	this->m_RewardItemIndex = 0;
; 73   : 	this->m_RewardItemLevel = 0;
; 74   : 	this->m_RewardWCoinC = 0;
; 75   : 	this->m_RewardWcoinP = 0;
; 76   : 	this->m_RewardWgoinG = 0;
; 77   : 	this->m_RewardCredit = 0;
; 78   : 	this->m_FinalScoreForVictory = 10;

  00037	b8 0a 00 00 00	 mov	 eax, 10			; 0000000aH

; 79   : 	this->m_MinPlayerGuildReg = 10;
; 80   : 	this->m_NpcTeleportMinusScore = 0;
; 81   : 	memset(this->m_EventName, 0, sizeof(this->m_EventName));

  0003c	6a 32		 push	 50			; 00000032H
  0003e	89 5e 24	 mov	 DWORD PTR [esi+36], ebx
  00041	89 5e 28	 mov	 DWORD PTR [esi+40], ebx
  00044	89 5e 2c	 mov	 DWORD PTR [esi+44], ebx
  00047	89 5e 30	 mov	 DWORD PTR [esi+48], ebx
  0004a	89 5e 34	 mov	 DWORD PTR [esi+52], ebx
  0004d	88 5e 48	 mov	 BYTE PTR [esi+72], bl
  00050	89 5e 4c	 mov	 DWORD PTR [esi+76], ebx
  00053	89 5e 50	 mov	 DWORD PTR [esi+80], ebx
  00056	89 5e 54	 mov	 DWORD PTR [esi+84], ebx
  00059	89 5e 58	 mov	 DWORD PTR [esi+88], ebx
  0005c	89 5e 5c	 mov	 DWORD PTR [esi+92], ebx
  0005f	89 5e 60	 mov	 DWORD PTR [esi+96], ebx
  00062	89 5e 64	 mov	 DWORD PTR [esi+100], ebx
  00065	89 5e 68	 mov	 DWORD PTR [esi+104], ebx
  00068	89 5e 6c	 mov	 DWORD PTR [esi+108], ebx
  0006b	89 5e 70	 mov	 DWORD PTR [esi+112], ebx
  0006e	89 5e 74	 mov	 DWORD PTR [esi+116], ebx
  00071	c7 46 78 01 00
	00 00		 mov	 DWORD PTR [esi+120], 1
  00078	89 5e 7c	 mov	 DWORD PTR [esi+124], ebx
  0007b	89 9e 80 00 00
	00		 mov	 DWORD PTR [esi+128], ebx
  00081	89 9e 84 00 00
	00		 mov	 DWORD PTR [esi+132], ebx
  00087	89 9e 88 00 00
	00		 mov	 DWORD PTR [esi+136], ebx
  0008d	89 9e 8c 00 00
	00		 mov	 DWORD PTR [esi+140], ebx
  00093	89 9e 90 00 00
	00		 mov	 DWORD PTR [esi+144], ebx
  00099	89 9e 94 00 00
	00		 mov	 DWORD PTR [esi+148], ebx
  0009f	89 9e 98 00 00
	00		 mov	 DWORD PTR [esi+152], ebx
  000a5	89 9e 9c 00 00
	00		 mov	 DWORD PTR [esi+156], ebx
  000ab	89 9e a0 00 00
	00		 mov	 DWORD PTR [esi+160], ebx
  000b1	89 9e a4 00 00
	00		 mov	 DWORD PTR [esi+164], ebx
  000b7	89 9e a8 00 00
	00		 mov	 DWORD PTR [esi+168], ebx
  000bd	89 9e ac 00 00
	00		 mov	 DWORD PTR [esi+172], ebx
  000c3	89 9e b0 00 00
	00		 mov	 DWORD PTR [esi+176], ebx
  000c9	89 9e b4 00 00
	00		 mov	 DWORD PTR [esi+180], ebx
  000cf	89 9e b8 00 00
	00		 mov	 DWORD PTR [esi+184], ebx
  000d5	89 9e bc 00 00
	00		 mov	 DWORD PTR [esi+188], ebx
  000db	89 9e c0 00 00
	00		 mov	 DWORD PTR [esi+192], ebx
  000e1	89 9e c4 00 00
	00		 mov	 DWORD PTR [esi+196], ebx
  000e7	89 9e c8 00 00
	00		 mov	 DWORD PTR [esi+200], ebx
  000ed	89 9e cc 00 00
	00		 mov	 DWORD PTR [esi+204], ebx
  000f3	89 9e d0 00 00
	00		 mov	 DWORD PTR [esi+208], ebx
  000f9	89 9e d4 00 00
	00		 mov	 DWORD PTR [esi+212], ebx
  000ff	89 86 d8 00 00
	00		 mov	 DWORD PTR [esi+216], eax
  00105	89 86 dc 00 00
	00		 mov	 DWORD PTR [esi+220], eax
  0010b	89 9e e0 00 00
	00		 mov	 DWORD PTR [esi+224], ebx
  00111	53		 push	 ebx
  00112	81 c6 e4 00 00
	00		 add	 esi, 228		; 000000e4H
  00118	56		 push	 esi
  00119	e8 00 00 00 00	 call	 _memset
  0011e	83 c4 18	 add	 esp, 24			; 00000018H
  00121	5e		 pop	 esi
  00122	5b		 pop	 ebx

; 82   : }

  00123	c3		 ret	 0
?Init@CDungeonSiege@@QAEXXZ ENDP			; CDungeonSiege::Init
_TEXT	ENDS
PUBLIC	??_C@_09ILCIGFN@EventName?$AA@			; `string'
PUBLIC	??_C@_0O@JABMCNKP@Dungeon?5Siege?$AA@		; `string'
PUBLIC	??_C@_0BG@CLMAJPKP@NpcTeleportMinusScore?$AA@	; `string'
PUBLIC	??_C@_0BC@BNBHNPLD@MinPlayerGuildReg?$AA@	; `string'
PUBLIC	??_C@_0BF@HNBECOLA@FinalScoreForVictory?$AA@	; `string'
PUBLIC	??_C@_0N@JAKOFKGJ@RewardCredit?$AA@		; `string'
PUBLIC	??_C@_0N@BJNKMCFF@RewardWgoinG?$AA@		; `string'
PUBLIC	??_C@_0N@IHMIAENF@RewardWcoinP?$AA@		; `string'
PUBLIC	??_C@_0N@OBILEAHB@RewardWCoinC?$AA@		; `string'
PUBLIC	??_C@_0BA@EHNJPAJ@RewardItemLevel?$AA@		; `string'
PUBLIC	??_C@_0BA@PHNOHHOK@RewardItemIndex?$AA@		; `string'
PUBLIC	??_C@_0P@KMGPHJCD@RewardItemType?$AA@		; `string'
PUBLIC	??_C@_0BB@NBBKJMOC@RewardItemEnable?$AA@	; `string'
PUBLIC	??_C@_0N@CJDLFFE@RewardEnable?$AA@		; `string'
PUBLIC	??_C@_0BH@FBPJBFPB@BuffPlusDefencePercent?$AA@	; `string'
PUBLIC	??_C@_0BG@GOKFFHHE@BuffPlusAttackPercent?$AA@	; `string'
PUBLIC	??_C@_0L@HLDGAJNE@BuffEnable?$AA@		; `string'
PUBLIC	??_C@_0BA@KCNMFMOB@EventPlayerDieY?$AA@		; `string'
PUBLIC	??_C@_0BA@LLMHGNKA@EventPlayerDieX?$AA@		; `string'
PUBLIC	??_C@_0BC@JMOJGFIH@EventPlayerDieMap?$AA@	; `string'
PUBLIC	??_C@_0BB@FBIKCJGP@EventStage2KillY?$AA@	; `string'
PUBLIC	??_C@_0BB@EIJBBICO@EventStage2KillX?$AA@	; `string'
PUBLIC	??_C@_0BB@DAAFKCLE@EventStage2WaitY?$AA@	; `string'
PUBLIC	??_C@_0BB@CJBOJDPF@EventStage2WaitX?$AA@	; `string'
PUBLIC	??_C@_0BB@GAGCDDPC@EventStage1KillY?$AA@	; `string'
PUBLIC	??_C@_0BB@HJHJACLD@EventStage1KillX?$AA@	; `string'
PUBLIC	??_C@_0BB@BONLICJ@EventStage1WaitY?$AA@		; `string'
PUBLIC	??_C@_0BB@BIPGIJGI@EventStage1WaitX?$AA@	; `string'
PUBLIC	??_C@_0P@DPPGLCMN@EventMapNumber?$AA@		; `string'
PUBLIC	??_C@_0BD@LFHDDMDE@EventDurationWait2?$AA@	; `string'
PUBLIC	??_C@_0BD@JOFOGPPH@EventDurationWait1?$AA@	; `string'
PUBLIC	??_C@_0BE@HAAKOPEG@EventDurationStage2?$AA@	; `string'
PUBLIC	??_C@_0BE@FLCHLMIF@EventDurationStage1?$AA@	; `string'
PUBLIC	??_C@_0BB@KJIMICAO@EventeStartMinut?$AA@	; `string'
PUBLIC	??_C@_0P@BDCFPCEH@EventStartHour?$AA@		; `string'
PUBLIC	??_C@_0O@BLJMNMLG@EventStartDay?$AA@		; `string'
PUBLIC	??_C@_04JEMJNNDC@NpcY?$AA@			; `string'
PUBLIC	??_C@_04INNCOMHD@NpcX?$AA@			; `string'
PUBLIC	??_C@_06KMEDHGPI@NpcMap?$AA@			; `string'
PUBLIC	??_C@_08BNJJHKPI@NpcClass?$AA@			; `string'
PUBLIC	??_C@_06CNKIADGI@ZtTeam?$AA@			; `string'
PUBLIC	??_C@_06CKGENIKG@Enable?$AA@			; `string'
PUBLIC	?Read@CDungeonSiege@@QAEXPAD@Z			; CDungeonSiege::Read
EXTRN	__imp__GetPrivateProfileStringA@24:PROC
EXTRN	__imp__GetPrivateProfileIntA@16:PROC
;	COMDAT ??_C@_09ILCIGFN@EventName?$AA@
CONST	SEGMENT
??_C@_09ILCIGFN@EventName?$AA@ DB 'EventName', 00H	; `string'
CONST	ENDS
;	COMDAT ??_C@_0O@JABMCNKP@Dungeon?5Siege?$AA@
CONST	SEGMENT
??_C@_0O@JABMCNKP@Dungeon?5Siege?$AA@ DB 'Dungeon Siege', 00H ; `string'
CONST	ENDS
;	COMDAT ??_C@_0BG@CLMAJPKP@NpcTeleportMinusScore?$AA@
CONST	SEGMENT
??_C@_0BG@CLMAJPKP@NpcTeleportMinusScore?$AA@ DB 'NpcTeleportMinusScore', 00H ; `string'
CONST	ENDS
;	COMDAT ??_C@_0BC@BNBHNPLD@MinPlayerGuildReg?$AA@
CONST	SEGMENT
??_C@_0BC@BNBHNPLD@MinPlayerGuildReg?$AA@ DB 'MinPlayerGuildReg', 00H ; `string'
CONST	ENDS
;	COMDAT ??_C@_0BF@HNBECOLA@FinalScoreForVictory?$AA@
CONST	SEGMENT
??_C@_0BF@HNBECOLA@FinalScoreForVictory?$AA@ DB 'FinalScoreForVictory', 00H ; `string'
CONST	ENDS
;	COMDAT ??_C@_0N@JAKOFKGJ@RewardCredit?$AA@
CONST	SEGMENT
??_C@_0N@JAKOFKGJ@RewardCredit?$AA@ DB 'RewardCredit', 00H ; `string'
CONST	ENDS
;	COMDAT ??_C@_0N@BJNKMCFF@RewardWgoinG?$AA@
CONST	SEGMENT
??_C@_0N@BJNKMCFF@RewardWgoinG?$AA@ DB 'RewardWgoinG', 00H ; `string'
CONST	ENDS
;	COMDAT ??_C@_0N@IHMIAENF@RewardWcoinP?$AA@
CONST	SEGMENT
??_C@_0N@IHMIAENF@RewardWcoinP?$AA@ DB 'RewardWcoinP', 00H ; `string'
CONST	ENDS
;	COMDAT ??_C@_0N@OBILEAHB@RewardWCoinC?$AA@
CONST	SEGMENT
??_C@_0N@OBILEAHB@RewardWCoinC?$AA@ DB 'RewardWCoinC', 00H ; `string'
CONST	ENDS
;	COMDAT ??_C@_0BA@EHNJPAJ@RewardItemLevel?$AA@
CONST	SEGMENT
??_C@_0BA@EHNJPAJ@RewardItemLevel?$AA@ DB 'RewardItemLevel', 00H ; `string'
CONST	ENDS
;	COMDAT ??_C@_0BA@PHNOHHOK@RewardItemIndex?$AA@
CONST	SEGMENT
??_C@_0BA@PHNOHHOK@RewardItemIndex?$AA@ DB 'RewardItemIndex', 00H ; `string'
CONST	ENDS
;	COMDAT ??_C@_0P@KMGPHJCD@RewardItemType?$AA@
CONST	SEGMENT
??_C@_0P@KMGPHJCD@RewardItemType?$AA@ DB 'RewardItemType', 00H ; `string'
CONST	ENDS
;	COMDAT ??_C@_0BB@NBBKJMOC@RewardItemEnable?$AA@
CONST	SEGMENT
??_C@_0BB@NBBKJMOC@RewardItemEnable?$AA@ DB 'RewardItemEnable', 00H ; `string'
CONST	ENDS
;	COMDAT ??_C@_0N@CJDLFFE@RewardEnable?$AA@
CONST	SEGMENT
??_C@_0N@CJDLFFE@RewardEnable?$AA@ DB 'RewardEnable', 00H ; `string'
CONST	ENDS
;	COMDAT ??_C@_0BH@FBPJBFPB@BuffPlusDefencePercent?$AA@
CONST	SEGMENT
??_C@_0BH@FBPJBFPB@BuffPlusDefencePercent?$AA@ DB 'BuffPlusDefencePercent'
	DB	00H						; `string'
CONST	ENDS
;	COMDAT ??_C@_0BG@GOKFFHHE@BuffPlusAttackPercent?$AA@
CONST	SEGMENT
??_C@_0BG@GOKFFHHE@BuffPlusAttackPercent?$AA@ DB 'BuffPlusAttackPercent', 00H ; `string'
CONST	ENDS
;	COMDAT ??_C@_0L@HLDGAJNE@BuffEnable?$AA@
CONST	SEGMENT
??_C@_0L@HLDGAJNE@BuffEnable?$AA@ DB 'BuffEnable', 00H	; `string'
CONST	ENDS
;	COMDAT ??_C@_0BA@KCNMFMOB@EventPlayerDieY?$AA@
CONST	SEGMENT
??_C@_0BA@KCNMFMOB@EventPlayerDieY?$AA@ DB 'EventPlayerDieY', 00H ; `string'
CONST	ENDS
;	COMDAT ??_C@_0BA@LLMHGNKA@EventPlayerDieX?$AA@
CONST	SEGMENT
??_C@_0BA@LLMHGNKA@EventPlayerDieX?$AA@ DB 'EventPlayerDieX', 00H ; `string'
CONST	ENDS
;	COMDAT ??_C@_0BC@JMOJGFIH@EventPlayerDieMap?$AA@
CONST	SEGMENT
??_C@_0BC@JMOJGFIH@EventPlayerDieMap?$AA@ DB 'EventPlayerDieMap', 00H ; `string'
CONST	ENDS
;	COMDAT ??_C@_0BB@FBIKCJGP@EventStage2KillY?$AA@
CONST	SEGMENT
??_C@_0BB@FBIKCJGP@EventStage2KillY?$AA@ DB 'EventStage2KillY', 00H ; `string'
CONST	ENDS
;	COMDAT ??_C@_0BB@EIJBBICO@EventStage2KillX?$AA@
CONST	SEGMENT
??_C@_0BB@EIJBBICO@EventStage2KillX?$AA@ DB 'EventStage2KillX', 00H ; `string'
CONST	ENDS
;	COMDAT ??_C@_0BB@DAAFKCLE@EventStage2WaitY?$AA@
CONST	SEGMENT
??_C@_0BB@DAAFKCLE@EventStage2WaitY?$AA@ DB 'EventStage2WaitY', 00H ; `string'
CONST	ENDS
;	COMDAT ??_C@_0BB@CJBOJDPF@EventStage2WaitX?$AA@
CONST	SEGMENT
??_C@_0BB@CJBOJDPF@EventStage2WaitX?$AA@ DB 'EventStage2WaitX', 00H ; `string'
CONST	ENDS
;	COMDAT ??_C@_0BB@GAGCDDPC@EventStage1KillY?$AA@
CONST	SEGMENT
??_C@_0BB@GAGCDDPC@EventStage1KillY?$AA@ DB 'EventStage1KillY', 00H ; `string'
CONST	ENDS
;	COMDAT ??_C@_0BB@HJHJACLD@EventStage1KillX?$AA@
CONST	SEGMENT
??_C@_0BB@HJHJACLD@EventStage1KillX?$AA@ DB 'EventStage1KillX', 00H ; `string'
CONST	ENDS
;	COMDAT ??_C@_0BB@BONLICJ@EventStage1WaitY?$AA@
CONST	SEGMENT
??_C@_0BB@BONLICJ@EventStage1WaitY?$AA@ DB 'EventStage1WaitY', 00H ; `string'
CONST	ENDS
;	COMDAT ??_C@_0BB@BIPGIJGI@EventStage1WaitX?$AA@
CONST	SEGMENT
??_C@_0BB@BIPGIJGI@EventStage1WaitX?$AA@ DB 'EventStage1WaitX', 00H ; `string'
CONST	ENDS
;	COMDAT ??_C@_0P@DPPGLCMN@EventMapNumber?$AA@
CONST	SEGMENT
??_C@_0P@DPPGLCMN@EventMapNumber?$AA@ DB 'EventMapNumber', 00H ; `string'
CONST	ENDS
;	COMDAT ??_C@_0BD@LFHDDMDE@EventDurationWait2?$AA@
CONST	SEGMENT
??_C@_0BD@LFHDDMDE@EventDurationWait2?$AA@ DB 'EventDurationWait2', 00H ; `string'
CONST	ENDS
;	COMDAT ??_C@_0BD@JOFOGPPH@EventDurationWait1?$AA@
CONST	SEGMENT
??_C@_0BD@JOFOGPPH@EventDurationWait1?$AA@ DB 'EventDurationWait1', 00H ; `string'
CONST	ENDS
;	COMDAT ??_C@_0BE@HAAKOPEG@EventDurationStage2?$AA@
CONST	SEGMENT
??_C@_0BE@HAAKOPEG@EventDurationStage2?$AA@ DB 'EventDurationStage2', 00H ; `string'
CONST	ENDS
;	COMDAT ??_C@_0BE@FLCHLMIF@EventDurationStage1?$AA@
CONST	SEGMENT
??_C@_0BE@FLCHLMIF@EventDurationStage1?$AA@ DB 'EventDurationStage1', 00H ; `string'
CONST	ENDS
;	COMDAT ??_C@_0BB@KJIMICAO@EventeStartMinut?$AA@
CONST	SEGMENT
??_C@_0BB@KJIMICAO@EventeStartMinut?$AA@ DB 'EventeStartMinut', 00H ; `string'
CONST	ENDS
;	COMDAT ??_C@_0P@BDCFPCEH@EventStartHour?$AA@
CONST	SEGMENT
??_C@_0P@BDCFPCEH@EventStartHour?$AA@ DB 'EventStartHour', 00H ; `string'
CONST	ENDS
;	COMDAT ??_C@_0O@BLJMNMLG@EventStartDay?$AA@
CONST	SEGMENT
??_C@_0O@BLJMNMLG@EventStartDay?$AA@ DB 'EventStartDay', 00H ; `string'
CONST	ENDS
;	COMDAT ??_C@_04JEMJNNDC@NpcY?$AA@
CONST	SEGMENT
??_C@_04JEMJNNDC@NpcY?$AA@ DB 'NpcY', 00H		; `string'
CONST	ENDS
;	COMDAT ??_C@_04INNCOMHD@NpcX?$AA@
CONST	SEGMENT
??_C@_04INNCOMHD@NpcX?$AA@ DB 'NpcX', 00H		; `string'
CONST	ENDS
;	COMDAT ??_C@_06KMEDHGPI@NpcMap?$AA@
CONST	SEGMENT
??_C@_06KMEDHGPI@NpcMap?$AA@ DB 'NpcMap', 00H		; `string'
CONST	ENDS
;	COMDAT ??_C@_08BNJJHKPI@NpcClass?$AA@
CONST	SEGMENT
??_C@_08BNJJHKPI@NpcClass?$AA@ DB 'NpcClass', 00H	; `string'
CONST	ENDS
;	COMDAT ??_C@_06CNKIADGI@ZtTeam?$AA@
CONST	SEGMENT
??_C@_06CNKIADGI@ZtTeam?$AA@ DB 'ZtTeam', 00H		; `string'
CONST	ENDS
;	COMDAT ??_C@_06CKGENIKG@Enable?$AA@
CONST	SEGMENT
??_C@_06CKGENIKG@Enable?$AA@ DB 'Enable', 00H		; `string'
; Function compile flags: /Ogtp
CONST	ENDS
;	COMDAT ?Read@CDungeonSiege@@QAEXPAD@Z
_TEXT	SEGMENT
_filename$ = 8						; size = 4
?Read@CDungeonSiege@@QAEXPAD@Z PROC			; CDungeonSiege::Read, COMDAT
; _this$ = ecx

; 107  : {

  00000	55		 push	 ebp
  00001	8b ec		 mov	 ebp, esp
  00003	53		 push	 ebx

; 108  : 	this->bEnable					= GetPrivateProfileInt("ZtTeam", "Enable", 0, filename);

  00004	8b 1d 00 00 00
	00		 mov	 ebx, DWORD PTR __imp__GetPrivateProfileIntA@16
  0000a	56		 push	 esi
  0000b	57		 push	 edi
  0000c	8b 7d 08	 mov	 edi, DWORD PTR _filename$[ebp]
  0000f	57		 push	 edi
  00010	6a 00		 push	 0
  00012	68 00 00 00 00	 push	 OFFSET ??_C@_06CKGENIKG@Enable?$AA@
  00017	68 00 00 00 00	 push	 OFFSET ??_C@_06CNKIADGI@ZtTeam?$AA@
  0001c	8b f1		 mov	 esi, ecx
  0001e	ff d3		 call	 ebx

; 109  : 	this->iNpcClass					= GetPrivateProfileInt("ZtTeam", "NpcClass", 0, filename);

  00020	57		 push	 edi
  00021	6a 00		 push	 0
  00023	85 c0		 test	 eax, eax
  00025	68 00 00 00 00	 push	 OFFSET ??_C@_08BNJJHKPI@NpcClass?$AA@
  0002a	0f 95 c0	 setne	 al
  0002d	68 00 00 00 00	 push	 OFFSET ??_C@_06CNKIADGI@ZtTeam?$AA@
  00032	88 46 48	 mov	 BYTE PTR [esi+72], al
  00035	ff d3		 call	 ebx

; 110  : 	this->iNpcMap					= GetPrivateProfileInt("ZtTeam", "NpcMap", 0, filename);

  00037	57		 push	 edi
  00038	6a 00		 push	 0
  0003a	68 00 00 00 00	 push	 OFFSET ??_C@_06KMEDHGPI@NpcMap?$AA@
  0003f	68 00 00 00 00	 push	 OFFSET ??_C@_06CNKIADGI@ZtTeam?$AA@
  00044	89 46 4c	 mov	 DWORD PTR [esi+76], eax
  00047	ff d3		 call	 ebx

; 111  : 	this->iNpcX						= GetPrivateProfileInt("ZtTeam", "NpcX", 0, filename);

  00049	57		 push	 edi
  0004a	6a 00		 push	 0
  0004c	68 00 00 00 00	 push	 OFFSET ??_C@_04INNCOMHD@NpcX?$AA@
  00051	68 00 00 00 00	 push	 OFFSET ??_C@_06CNKIADGI@ZtTeam?$AA@
  00056	89 46 50	 mov	 DWORD PTR [esi+80], eax
  00059	ff d3		 call	 ebx

; 112  : 	this->iNpcY						= GetPrivateProfileInt("ZtTeam", "NpcY", 0, filename);

  0005b	57		 push	 edi
  0005c	6a 00		 push	 0
  0005e	68 00 00 00 00	 push	 OFFSET ??_C@_04JEMJNNDC@NpcY?$AA@
  00063	68 00 00 00 00	 push	 OFFSET ??_C@_06CNKIADGI@ZtTeam?$AA@
  00068	89 46 54	 mov	 DWORD PTR [esi+84], eax
  0006b	ff d3		 call	 ebx

; 113  : 	this->iEventStartDay			= GetPrivateProfileInt("ZtTeam", "EventStartDay", 0, filename);

  0006d	57		 push	 edi
  0006e	6a 00		 push	 0
  00070	68 00 00 00 00	 push	 OFFSET ??_C@_0O@BLJMNMLG@EventStartDay?$AA@
  00075	68 00 00 00 00	 push	 OFFSET ??_C@_06CNKIADGI@ZtTeam?$AA@
  0007a	89 46 58	 mov	 DWORD PTR [esi+88], eax
  0007d	ff d3		 call	 ebx

; 114  : 	this->iEventStartHour			= GetPrivateProfileInt("ZtTeam", "EventStartHour", 0, filename);

  0007f	57		 push	 edi
  00080	6a 00		 push	 0
  00082	68 00 00 00 00	 push	 OFFSET ??_C@_0P@BDCFPCEH@EventStartHour?$AA@
  00087	68 00 00 00 00	 push	 OFFSET ??_C@_06CNKIADGI@ZtTeam?$AA@
  0008c	89 46 5c	 mov	 DWORD PTR [esi+92], eax
  0008f	ff d3		 call	 ebx

; 115  : 	this->iEventeStartMinut			= GetPrivateProfileInt("ZtTeam", "EventeStartMinut", 0, filename);

  00091	57		 push	 edi
  00092	6a 00		 push	 0
  00094	68 00 00 00 00	 push	 OFFSET ??_C@_0BB@KJIMICAO@EventeStartMinut?$AA@
  00099	68 00 00 00 00	 push	 OFFSET ??_C@_06CNKIADGI@ZtTeam?$AA@
  0009e	89 46 60	 mov	 DWORD PTR [esi+96], eax
  000a1	ff d3		 call	 ebx

; 116  : 	this->iEventDurationStage1		= GetPrivateProfileInt("ZtTeam", "EventDurationStage1", 0, filename);

  000a3	57		 push	 edi
  000a4	6a 00		 push	 0
  000a6	68 00 00 00 00	 push	 OFFSET ??_C@_0BE@FLCHLMIF@EventDurationStage1?$AA@
  000ab	68 00 00 00 00	 push	 OFFSET ??_C@_06CNKIADGI@ZtTeam?$AA@
  000b0	89 46 64	 mov	 DWORD PTR [esi+100], eax
  000b3	ff d3		 call	 ebx

; 117  : 	this->iEventDurationStage2		= GetPrivateProfileInt("ZtTeam", "EventDurationStage2", 0, filename);

  000b5	57		 push	 edi
  000b6	6a 00		 push	 0
  000b8	68 00 00 00 00	 push	 OFFSET ??_C@_0BE@HAAKOPEG@EventDurationStage2?$AA@
  000bd	68 00 00 00 00	 push	 OFFSET ??_C@_06CNKIADGI@ZtTeam?$AA@
  000c2	89 46 68	 mov	 DWORD PTR [esi+104], eax
  000c5	ff d3		 call	 ebx

; 118  : 	this->iEventDurationWait1		= GetPrivateProfileInt("ZtTeam", "EventDurationWait1", 0, filename);

  000c7	57		 push	 edi
  000c8	6a 00		 push	 0
  000ca	68 00 00 00 00	 push	 OFFSET ??_C@_0BD@JOFOGPPH@EventDurationWait1?$AA@
  000cf	68 00 00 00 00	 push	 OFFSET ??_C@_06CNKIADGI@ZtTeam?$AA@
  000d4	89 46 6c	 mov	 DWORD PTR [esi+108], eax
  000d7	ff d3		 call	 ebx

; 119  : 	this->iEventDurationWait2		= GetPrivateProfileInt("ZtTeam", "EventDurationWait2", 0, filename);

  000d9	57		 push	 edi
  000da	6a 00		 push	 0
  000dc	68 00 00 00 00	 push	 OFFSET ??_C@_0BD@LFHDDMDE@EventDurationWait2?$AA@
  000e1	68 00 00 00 00	 push	 OFFSET ??_C@_06CNKIADGI@ZtTeam?$AA@
  000e6	89 46 70	 mov	 DWORD PTR [esi+112], eax
  000e9	ff d3		 call	 ebx
  000eb	89 46 74	 mov	 DWORD PTR [esi+116], eax

; 120  : 	this->m_EventMapNumber			= GetPrivateProfileInt("ZtTeam", "EventMapNumber", 0, filename);

  000ee	57		 push	 edi
  000ef	6a 00		 push	 0
  000f1	68 00 00 00 00	 push	 OFFSET ??_C@_0P@DPPGLCMN@EventMapNumber?$AA@
  000f6	68 00 00 00 00	 push	 OFFSET ??_C@_06CNKIADGI@ZtTeam?$AA@
  000fb	ff d3		 call	 ebx

; 121  : 	this->m_EventStage1WaitX		= GetPrivateProfileInt("ZtTeam", "EventStage1WaitX", 0, filename);

  000fd	57		 push	 edi
  000fe	6a 00		 push	 0
  00100	68 00 00 00 00	 push	 OFFSET ??_C@_0BB@BIPGIJGI@EventStage1WaitX?$AA@
  00105	68 00 00 00 00	 push	 OFFSET ??_C@_06CNKIADGI@ZtTeam?$AA@
  0010a	89 46 78	 mov	 DWORD PTR [esi+120], eax
  0010d	ff d3		 call	 ebx

; 122  : 	this->m_EventStage1WaitY		= GetPrivateProfileInt("ZtTeam", "EventStage1WaitY", 0, filename);

  0010f	57		 push	 edi
  00110	6a 00		 push	 0
  00112	68 00 00 00 00	 push	 OFFSET ??_C@_0BB@BONLICJ@EventStage1WaitY?$AA@
  00117	68 00 00 00 00	 push	 OFFSET ??_C@_06CNKIADGI@ZtTeam?$AA@
  0011c	89 46 7c	 mov	 DWORD PTR [esi+124], eax
  0011f	ff d3		 call	 ebx

; 123  : 	this->m_EventStage1KillX		= GetPrivateProfileInt("ZtTeam", "EventStage1KillX", 0, filename);

  00121	57		 push	 edi
  00122	6a 00		 push	 0
  00124	68 00 00 00 00	 push	 OFFSET ??_C@_0BB@HJHJACLD@EventStage1KillX?$AA@
  00129	68 00 00 00 00	 push	 OFFSET ??_C@_06CNKIADGI@ZtTeam?$AA@
  0012e	89 86 80 00 00
	00		 mov	 DWORD PTR [esi+128], eax
  00134	ff d3		 call	 ebx

; 124  : 	this->m_EventStage1KillY		= GetPrivateProfileInt("ZtTeam", "EventStage1KillY", 0, filename);

  00136	57		 push	 edi
  00137	6a 00		 push	 0
  00139	68 00 00 00 00	 push	 OFFSET ??_C@_0BB@GAGCDDPC@EventStage1KillY?$AA@
  0013e	68 00 00 00 00	 push	 OFFSET ??_C@_06CNKIADGI@ZtTeam?$AA@
  00143	89 86 84 00 00
	00		 mov	 DWORD PTR [esi+132], eax
  00149	ff d3		 call	 ebx

; 125  : 	this->m_EventStage2WaitX		= GetPrivateProfileInt("ZtTeam", "EventStage2WaitX", 0, filename);

  0014b	57		 push	 edi
  0014c	6a 00		 push	 0
  0014e	68 00 00 00 00	 push	 OFFSET ??_C@_0BB@CJBOJDPF@EventStage2WaitX?$AA@
  00153	68 00 00 00 00	 push	 OFFSET ??_C@_06CNKIADGI@ZtTeam?$AA@
  00158	89 86 88 00 00
	00		 mov	 DWORD PTR [esi+136], eax
  0015e	ff d3		 call	 ebx

; 126  : 	this->m_EventStage2WaitY		= GetPrivateProfileInt("ZtTeam", "EventStage2WaitY", 0, filename);

  00160	57		 push	 edi
  00161	6a 00		 push	 0
  00163	68 00 00 00 00	 push	 OFFSET ??_C@_0BB@DAAFKCLE@EventStage2WaitY?$AA@
  00168	68 00 00 00 00	 push	 OFFSET ??_C@_06CNKIADGI@ZtTeam?$AA@
  0016d	89 86 8c 00 00
	00		 mov	 DWORD PTR [esi+140], eax
  00173	ff d3		 call	 ebx

; 127  : 	this->m_EventStage2KillX		= GetPrivateProfileInt("ZtTeam", "EventStage2KillX", 0, filename);

  00175	57		 push	 edi
  00176	6a 00		 push	 0
  00178	68 00 00 00 00	 push	 OFFSET ??_C@_0BB@EIJBBICO@EventStage2KillX?$AA@
  0017d	68 00 00 00 00	 push	 OFFSET ??_C@_06CNKIADGI@ZtTeam?$AA@
  00182	89 86 90 00 00
	00		 mov	 DWORD PTR [esi+144], eax
  00188	ff d3		 call	 ebx

; 128  : 	this->m_EventStage2KillY		= GetPrivateProfileInt("ZtTeam", "EventStage2KillY", 0, filename);

  0018a	57		 push	 edi
  0018b	6a 00		 push	 0
  0018d	68 00 00 00 00	 push	 OFFSET ??_C@_0BB@FBIKCJGP@EventStage2KillY?$AA@
  00192	68 00 00 00 00	 push	 OFFSET ??_C@_06CNKIADGI@ZtTeam?$AA@
  00197	89 86 94 00 00
	00		 mov	 DWORD PTR [esi+148], eax
  0019d	ff d3		 call	 ebx

; 129  : 	this->m_EventPlayerDieMap		= GetPrivateProfileInt("ZtTeam", "EventPlayerDieMap", 0, filename);

  0019f	57		 push	 edi
  001a0	6a 00		 push	 0
  001a2	68 00 00 00 00	 push	 OFFSET ??_C@_0BC@JMOJGFIH@EventPlayerDieMap?$AA@
  001a7	68 00 00 00 00	 push	 OFFSET ??_C@_06CNKIADGI@ZtTeam?$AA@
  001ac	89 86 98 00 00
	00		 mov	 DWORD PTR [esi+152], eax
  001b2	ff d3		 call	 ebx

; 130  : 	this->m_EventPlayerDieX			= GetPrivateProfileInt("ZtTeam", "EventPlayerDieX", 0, filename);

  001b4	57		 push	 edi
  001b5	6a 00		 push	 0
  001b7	68 00 00 00 00	 push	 OFFSET ??_C@_0BA@LLMHGNKA@EventPlayerDieX?$AA@
  001bc	68 00 00 00 00	 push	 OFFSET ??_C@_06CNKIADGI@ZtTeam?$AA@
  001c1	89 86 9c 00 00
	00		 mov	 DWORD PTR [esi+156], eax
  001c7	ff d3		 call	 ebx

; 131  : 	this->m_EventPlayerDieY			= GetPrivateProfileInt("ZtTeam", "EventPlayerDieY", 0, filename);

  001c9	57		 push	 edi
  001ca	6a 00		 push	 0
  001cc	68 00 00 00 00	 push	 OFFSET ??_C@_0BA@KCNMFMOB@EventPlayerDieY?$AA@
  001d1	68 00 00 00 00	 push	 OFFSET ??_C@_06CNKIADGI@ZtTeam?$AA@
  001d6	89 86 a0 00 00
	00		 mov	 DWORD PTR [esi+160], eax
  001dc	ff d3		 call	 ebx

; 132  : 	this->m_BuffEnable				= GetPrivateProfileInt("ZtTeam", "BuffEnable", 0, filename);

  001de	57		 push	 edi
  001df	6a 00		 push	 0
  001e1	68 00 00 00 00	 push	 OFFSET ??_C@_0L@HLDGAJNE@BuffEnable?$AA@
  001e6	68 00 00 00 00	 push	 OFFSET ??_C@_06CNKIADGI@ZtTeam?$AA@
  001eb	89 86 a4 00 00
	00		 mov	 DWORD PTR [esi+164], eax
  001f1	ff d3		 call	 ebx

; 133  : 	this->m_BuffPlusAttackPercent	= GetPrivateProfileInt("ZtTeam", "BuffPlusAttackPercent", 0, filename);

  001f3	57		 push	 edi
  001f4	6a 00		 push	 0
  001f6	68 00 00 00 00	 push	 OFFSET ??_C@_0BG@GOKFFHHE@BuffPlusAttackPercent?$AA@
  001fb	89 86 a8 00 00
	00		 mov	 DWORD PTR [esi+168], eax
  00201	68 00 00 00 00	 push	 OFFSET ??_C@_06CNKIADGI@ZtTeam?$AA@
  00206	ff d3		 call	 ebx

; 134  : 	this->m_BuffPlusDefencePercent	= GetPrivateProfileInt("ZtTeam", "BuffPlusDefencePercent", 0, filename);

  00208	57		 push	 edi
  00209	6a 00		 push	 0
  0020b	68 00 00 00 00	 push	 OFFSET ??_C@_0BH@FBPJBFPB@BuffPlusDefencePercent?$AA@
  00210	68 00 00 00 00	 push	 OFFSET ??_C@_06CNKIADGI@ZtTeam?$AA@
  00215	89 86 ac 00 00
	00		 mov	 DWORD PTR [esi+172], eax
  0021b	ff d3		 call	 ebx

; 135  : 	this->m_RewardEnable			= GetPrivateProfileInt("ZtTeam", "RewardEnable", 0, filename);

  0021d	57		 push	 edi
  0021e	6a 00		 push	 0
  00220	68 00 00 00 00	 push	 OFFSET ??_C@_0N@CJDLFFE@RewardEnable?$AA@
  00225	68 00 00 00 00	 push	 OFFSET ??_C@_06CNKIADGI@ZtTeam?$AA@
  0022a	89 86 b0 00 00
	00		 mov	 DWORD PTR [esi+176], eax
  00230	ff d3		 call	 ebx

; 136  : 	this->m_RewardItemEnable		= GetPrivateProfileInt("ZtTeam", "RewardItemEnable", 0, filename);

  00232	57		 push	 edi
  00233	6a 00		 push	 0
  00235	68 00 00 00 00	 push	 OFFSET ??_C@_0BB@NBBKJMOC@RewardItemEnable?$AA@
  0023a	68 00 00 00 00	 push	 OFFSET ??_C@_06CNKIADGI@ZtTeam?$AA@
  0023f	89 86 b4 00 00
	00		 mov	 DWORD PTR [esi+180], eax
  00245	ff d3		 call	 ebx

; 137  : 	this->m_RewardItemType			= GetPrivateProfileInt("ZtTeam", "RewardItemType", 0, filename);

  00247	57		 push	 edi
  00248	6a 00		 push	 0
  0024a	68 00 00 00 00	 push	 OFFSET ??_C@_0P@KMGPHJCD@RewardItemType?$AA@
  0024f	68 00 00 00 00	 push	 OFFSET ??_C@_06CNKIADGI@ZtTeam?$AA@
  00254	89 86 b8 00 00
	00		 mov	 DWORD PTR [esi+184], eax
  0025a	ff d3		 call	 ebx

; 138  : 	this->m_RewardItemIndex			= GetPrivateProfileInt("ZtTeam", "RewardItemIndex", 0, filename);

  0025c	57		 push	 edi
  0025d	6a 00		 push	 0
  0025f	68 00 00 00 00	 push	 OFFSET ??_C@_0BA@PHNOHHOK@RewardItemIndex?$AA@
  00264	68 00 00 00 00	 push	 OFFSET ??_C@_06CNKIADGI@ZtTeam?$AA@
  00269	89 86 bc 00 00
	00		 mov	 DWORD PTR [esi+188], eax
  0026f	ff d3		 call	 ebx

; 139  : 	this->m_RewardItemLevel			= GetPrivateProfileInt("ZtTeam", "RewardItemLevel", 0, filename);

  00271	57		 push	 edi
  00272	6a 00		 push	 0
  00274	68 00 00 00 00	 push	 OFFSET ??_C@_0BA@EHNJPAJ@RewardItemLevel?$AA@
  00279	68 00 00 00 00	 push	 OFFSET ??_C@_06CNKIADGI@ZtTeam?$AA@
  0027e	89 86 c0 00 00
	00		 mov	 DWORD PTR [esi+192], eax
  00284	ff d3		 call	 ebx

; 140  : 	this->m_RewardWCoinC			= GetPrivateProfileInt("ZtTeam", "RewardWCoinC", 0, filename);

  00286	57		 push	 edi
  00287	6a 00		 push	 0
  00289	68 00 00 00 00	 push	 OFFSET ??_C@_0N@OBILEAHB@RewardWCoinC?$AA@
  0028e	68 00 00 00 00	 push	 OFFSET ??_C@_06CNKIADGI@ZtTeam?$AA@
  00293	89 86 c4 00 00
	00		 mov	 DWORD PTR [esi+196], eax
  00299	ff d3		 call	 ebx

; 141  : 	this->m_RewardWcoinP			= GetPrivateProfileInt("ZtTeam", "RewardWcoinP", 0, filename);

  0029b	57		 push	 edi
  0029c	6a 00		 push	 0
  0029e	68 00 00 00 00	 push	 OFFSET ??_C@_0N@IHMIAENF@RewardWcoinP?$AA@
  002a3	68 00 00 00 00	 push	 OFFSET ??_C@_06CNKIADGI@ZtTeam?$AA@
  002a8	89 86 c8 00 00
	00		 mov	 DWORD PTR [esi+200], eax
  002ae	ff d3		 call	 ebx

; 142  : 	this->m_RewardWgoinG			= GetPrivateProfileInt("ZtTeam", "RewardWgoinG", 0, filename);

  002b0	57		 push	 edi
  002b1	6a 00		 push	 0
  002b3	68 00 00 00 00	 push	 OFFSET ??_C@_0N@BJNKMCFF@RewardWgoinG?$AA@
  002b8	68 00 00 00 00	 push	 OFFSET ??_C@_06CNKIADGI@ZtTeam?$AA@
  002bd	89 86 cc 00 00
	00		 mov	 DWORD PTR [esi+204], eax
  002c3	ff d3		 call	 ebx

; 143  : 	this->m_RewardCredit			= GetPrivateProfileInt("ZtTeam", "RewardCredit", 0, filename);

  002c5	57		 push	 edi
  002c6	6a 00		 push	 0
  002c8	68 00 00 00 00	 push	 OFFSET ??_C@_0N@JAKOFKGJ@RewardCredit?$AA@
  002cd	68 00 00 00 00	 push	 OFFSET ??_C@_06CNKIADGI@ZtTeam?$AA@
  002d2	89 86 d0 00 00
	00		 mov	 DWORD PTR [esi+208], eax
  002d8	ff d3		 call	 ebx

; 144  : 	this->m_FinalScoreForVictory	= GetPrivateProfileInt("ZtTeam", "FinalScoreForVictory", 0, filename);

  002da	57		 push	 edi
  002db	6a 00		 push	 0
  002dd	68 00 00 00 00	 push	 OFFSET ??_C@_0BF@HNBECOLA@FinalScoreForVictory?$AA@
  002e2	68 00 00 00 00	 push	 OFFSET ??_C@_06CNKIADGI@ZtTeam?$AA@
  002e7	89 86 d4 00 00
	00		 mov	 DWORD PTR [esi+212], eax
  002ed	ff d3		 call	 ebx

; 145  : 	this->m_MinPlayerGuildReg		= GetPrivateProfileInt("ZtTeam", "MinPlayerGuildReg", 0, filename);

  002ef	57		 push	 edi
  002f0	6a 00		 push	 0
  002f2	68 00 00 00 00	 push	 OFFSET ??_C@_0BC@BNBHNPLD@MinPlayerGuildReg?$AA@
  002f7	68 00 00 00 00	 push	 OFFSET ??_C@_06CNKIADGI@ZtTeam?$AA@
  002fc	89 86 d8 00 00
	00		 mov	 DWORD PTR [esi+216], eax
  00302	ff d3		 call	 ebx

; 146  : 	this->m_NpcTeleportMinusScore	= GetPrivateProfileInt("ZtTeam", "NpcTeleportMinusScore", 0, filename);

  00304	57		 push	 edi
  00305	6a 00		 push	 0
  00307	68 00 00 00 00	 push	 OFFSET ??_C@_0BG@CLMAJPKP@NpcTeleportMinusScore?$AA@
  0030c	68 00 00 00 00	 push	 OFFSET ??_C@_06CNKIADGI@ZtTeam?$AA@
  00311	89 86 dc 00 00
	00		 mov	 DWORD PTR [esi+220], eax
  00317	ff d3		 call	 ebx
  00319	89 86 e0 00 00
	00		 mov	 DWORD PTR [esi+224], eax

; 147  : 	GetPrivateProfileString("ZtTeam", "EventName", "Dungeon Siege", this->m_EventName, sizeof(this->m_EventName), filename);

  0031f	57		 push	 edi
  00320	6a 32		 push	 50			; 00000032H
  00322	81 c6 e4 00 00
	00		 add	 esi, 228		; 000000e4H
  00328	56		 push	 esi
  00329	68 00 00 00 00	 push	 OFFSET ??_C@_0O@JABMCNKP@Dungeon?5Siege?$AA@
  0032e	68 00 00 00 00	 push	 OFFSET ??_C@_09ILCIGFN@EventName?$AA@
  00333	68 00 00 00 00	 push	 OFFSET ??_C@_06CNKIADGI@ZtTeam?$AA@
  00338	ff 15 00 00 00
	00		 call	 DWORD PTR __imp__GetPrivateProfileStringA@24
  0033e	5f		 pop	 edi
  0033f	5e		 pop	 esi
  00340	5b		 pop	 ebx

; 148  : }

  00341	5d		 pop	 ebp
  00342	c2 04 00	 ret	 4
?Read@CDungeonSiege@@QAEXPAD@Z ENDP			; CDungeonSiege::Read
_TEXT	ENDS
PUBLIC	_aIndex$GSCopy$
PUBLIC	__$ArrayPad$
PUBLIC	?GCNpcNnfo@CDungeonSiege@@QAEXH@Z		; CDungeonSiege::GCNpcNnfo
EXTRN	?DataSend@@YAHHPAEK@Z:PROC			; DataSend
EXTRN	?gObj@@3PAUOBJECTSTRUCT@@A:DWORD		; gObj
EXTRN	___security_cookie:DWORD
EXTRN	@__security_check_cookie@4:PROC
; Function compile flags: /Ogtp
;	COMDAT ?GCNpcNnfo@CDungeonSiege@@QAEXH@Z
_TEXT	SEGMENT
_szGName$ = -144					; size = 9
_lpGuildUser$ = -132					; size = 4
_aIndex$GSCopy$ = -128					; size = 4
_pMsg$ = -124						; size = 120
__$ArrayPad$ = -4					; size = 4
_aIndex$ = 8						; size = 4
?GCNpcNnfo@CDungeonSiege@@QAEXH@Z PROC			; CDungeonSiege::GCNpcNnfo, COMDAT
; _this$ = ecx

; 202  : {

  00000	55		 push	 ebp
  00001	8b ec		 mov	 ebp, esp
  00003	81 ec 90 00 00
	00		 sub	 esp, 144		; 00000090H
  00009	a1 00 00 00 00	 mov	 eax, DWORD PTR ___security_cookie
  0000e	33 c5		 xor	 eax, ebp
  00010	89 45 fc	 mov	 DWORD PTR __$ArrayPad$[ebp], eax
  00013	53		 push	 ebx
  00014	8b 5d 08	 mov	 ebx, DWORD PTR _aIndex$[ebp]

; 203  : 	LPOBJ lpUser = &gObj[aIndex];

  00017	8b c3		 mov	 eax, ebx
  00019	69 c0 50 2b 00
	00		 imul	 eax, 11088		; 00002b50H
  0001f	03 05 00 00 00
	00		 add	 eax, DWORD PTR ?gObj@@3PAUOBJECTSTRUCT@@A ; gObj
  00025	8b d1		 mov	 edx, ecx

; 204  : 
; 205  : 	char szOwName[9];
; 206  : 	char szGName[9];
; 207  : 	PMSG_GC_DUNGEON_SIEGE_NPC pMsg;
; 208  : 	pMsg.h.set((LPBYTE)&pMsg, 0xFB, 0x44, sizeof(pMsg));
; 209  : 	pMsg.bResultReg = true;
; 210  : 	pMsg.iMsgCode = 0;
; 211  : 	pMsg.Captured = this->bCaptured;

  00027	8a 4a 14	 mov	 cl, BYTE PTR [edx+20]
  0002a	88 4d 90	 mov	 BYTE PTR _pMsg$[ebp+12], cl
  0002d	56		 push	 esi

; 212  : 
; 213  : 	szOwName[8] = 0;
; 214  : 	memcpy(szOwName, this->szLordGuild, 8);
; 215  : 	memcpy(pMsg.szGuildOwner, szOwName, 8);

  0002e	8b 72 15	 mov	 esi, DWORD PTR [edx+21]
  00031	8d 4a 15	 lea	 ecx, DWORD PTR [edx+21]
  00034	89 75 98	 mov	 DWORD PTR _pMsg$[ebp+20], esi
  00037	8b 71 04	 mov	 esi, DWORD PTR [ecx+4]
  0003a	57		 push	 edi
  0003b	c7 45 84 c1 78
	fb 44		 mov	 DWORD PTR _pMsg$[ebp], 1157331137 ; 44fb78c1H
  00042	c6 45 88 01	 mov	 BYTE PTR _pMsg$[ebp+4], 1
  00046	c7 45 8c 00 00
	00 00		 mov	 DWORD PTR _pMsg$[ebp+8], 0
  0004d	89 75 9c	 mov	 DWORD PTR _pMsg$[ebp+24], esi

; 216  : 
; 217  : 	_GUILD_INFO_STRUCT * lpGuildUser = lpUser->lpGuild;

  00050	8b b8 38 04 00
	00		 mov	 edi, DWORD PTR [eax+1080]
  00056	89 5d 80	 mov	 DWORD PTR _aIndex$GSCopy$[ebp], ebx
  00059	89 bd 7c ff ff
	ff		 mov	 DWORD PTR _lpGuildUser$[ebp], edi

; 218  : 
; 219  : 	if(!lpGuildUser)

  0005f	85 ff		 test	 edi, edi
  00061	75 09		 jne	 SHORT $LN15@GCNpcNnfo

; 220  : 	{
; 221  : 		pMsg.iMsgCode = 1;

  00063	c7 45 8c 01 00
	00 00		 mov	 DWORD PTR _pMsg$[ebp+8], 1
  0006a	eb 6e		 jmp	 SHORT $LN30@GCNpcNnfo
$LN15@GCNpcNnfo:

; 222  : 	}
; 223  : 	else if(lpUser->GuildStatus != GUILD_MASTER)

  0006c	81 b8 48 04 00
	00 80 00 00 00	 cmp	 DWORD PTR [eax+1096], 128 ; 00000080H
  00076	74 09		 je	 SHORT $LN13@GCNpcNnfo

; 224  : 	{
; 225  : 		pMsg.iMsgCode = 2;

  00078	c7 45 8c 02 00
	00 00		 mov	 DWORD PTR _pMsg$[ebp+8], 2
  0007f	eb 59		 jmp	 SHORT $LN30@GCNpcNnfo
$LN13@GCNpcNnfo:

; 226  : 	}
; 227  : 	else if(!strcmp(lpGuildUser->Name, this->szLordGuild))

  00081	8b f1		 mov	 esi, ecx
  00083	8d 47 04	 lea	 eax, DWORD PTR [edi+4]
$LL22@GCNpcNnfo:
  00086	8a 08		 mov	 cl, BYTE PTR [eax]
  00088	3a 0e		 cmp	 cl, BYTE PTR [esi]
  0008a	75 1a		 jne	 SHORT $LN23@GCNpcNnfo
  0008c	84 c9		 test	 cl, cl
  0008e	74 12		 je	 SHORT $LN24@GCNpcNnfo
  00090	8a 48 01	 mov	 cl, BYTE PTR [eax+1]
  00093	3a 4e 01	 cmp	 cl, BYTE PTR [esi+1]
  00096	75 0e		 jne	 SHORT $LN23@GCNpcNnfo
  00098	83 c0 02	 add	 eax, 2
  0009b	83 c6 02	 add	 esi, 2
  0009e	84 c9		 test	 cl, cl
  000a0	75 e4		 jne	 SHORT $LL22@GCNpcNnfo
$LN24@GCNpcNnfo:
  000a2	33 c0		 xor	 eax, eax
  000a4	eb 05		 jmp	 SHORT $LN25@GCNpcNnfo
$LN23@GCNpcNnfo:
  000a6	1b c0		 sbb	 eax, eax
  000a8	83 d8 ff	 sbb	 eax, -1
$LN25@GCNpcNnfo:
  000ab	85 c0		 test	 eax, eax
  000ad	75 09		 jne	 SHORT $LN11@GCNpcNnfo

; 228  : 	{
; 229  : 		pMsg.iMsgCode = 3;

  000af	c7 45 8c 03 00
	00 00		 mov	 DWORD PTR _pMsg$[ebp+8], 3
  000b6	eb 22		 jmp	 SHORT $LN30@GCNpcNnfo
$LN11@GCNpcNnfo:

; 230  : 	}
; 231  : 	else if(this->iRegCount >= 10)

  000b8	83 7a 20 0a	 cmp	 DWORD PTR [edx+32], 10	; 0000000aH
  000bc	7c 09		 jl	 SHORT $LN9@GCNpcNnfo

; 232  : 	{
; 233  : 		pMsg.iMsgCode = 4;

  000be	c7 45 8c 04 00
	00 00		 mov	 DWORD PTR _pMsg$[ebp+8], 4
  000c5	eb 13		 jmp	 SHORT $LN30@GCNpcNnfo
$LN9@GCNpcNnfo:

; 234  : 	}	
; 235  : 	else if(lpGuildUser->Count < this->m_MinPlayerGuildReg)

  000c7	0f b6 47 2d	 movzx	 eax, BYTE PTR [edi+45]
  000cb	3b 82 dc 00 00
	00		 cmp	 eax, DWORD PTR [edx+220]
  000d1	7d 07		 jge	 SHORT $LN30@GCNpcNnfo

; 236  : 	{
; 237  : 		pMsg.iMsgCode = 5;

  000d3	c7 45 8c 05 00
	00 00		 mov	 DWORD PTR _pMsg$[ebp+8], 5
$LN30@GCNpcNnfo:

; 238  : 	}
; 239  : 
; 240  : 	pMsg.iCountGuild = this->iRegCount;

  000da	8b 42 20	 mov	 eax, DWORD PTR [edx+32]
  000dd	89 45 94	 mov	 DWORD PTR _pMsg$[ebp+16], eax

; 241  : 
; 242  : 	for(int i = 0; i < this->iRegCount; i++)

  000e0	85 c0		 test	 eax, eax
  000e2	0f 8e 86 00 00
	00		 jle	 $LN4@GCNpcNnfo

; 243  : 	{
; 244  : 		szGName[8] = 0;

  000e8	c6 85 78 ff ff
	ff 00		 mov	 BYTE PTR _szGName$[ebp+8], 0
  000ef	8d 7d a1	 lea	 edi, DWORD PTR _pMsg$[ebp+29]
  000f2	8d b2 16 01 00
	00		 lea	 esi, DWORD PTR [edx+278]
  000f8	8b d8		 mov	 ebx, eax
  000fa	8d 9b 00 00 00
	00		 npad	 6
$LL6@GCNpcNnfo:

; 245  : 		memcpy(szGName, this->reg_list[i].szGuildName, 8);

  00100	8b 0e		 mov	 ecx, DWORD PTR [esi]
  00102	8b 56 04	 mov	 edx, DWORD PTR [esi+4]
  00105	89 8d 70 ff ff
	ff		 mov	 DWORD PTR _szGName$[ebp], ecx

; 246  : 
; 247  : 		if(lpGuildUser)

  0010b	8b 8d 7c ff ff
	ff		 mov	 ecx, DWORD PTR _lpGuildUser$[ebp]
  00111	89 95 74 ff ff
	ff		 mov	 DWORD PTR _szGName$[ebp+4], edx
  00117	85 c9		 test	 ecx, ecx
  00119	74 39		 je	 SHORT $LN31@GCNpcNnfo

; 248  : 		{
; 249  : 			if(!strcmp(szGName, lpGuildUser->Name))

  0011b	83 c1 04	 add	 ecx, 4
  0011e	8d 85 70 ff ff
	ff		 lea	 eax, DWORD PTR _szGName$[ebp]
$LL26@GCNpcNnfo:
  00124	8a 10		 mov	 dl, BYTE PTR [eax]
  00126	3a 11		 cmp	 dl, BYTE PTR [ecx]
  00128	75 1a		 jne	 SHORT $LN27@GCNpcNnfo
  0012a	84 d2		 test	 dl, dl
  0012c	74 12		 je	 SHORT $LN28@GCNpcNnfo
  0012e	8a 50 01	 mov	 dl, BYTE PTR [eax+1]
  00131	3a 51 01	 cmp	 dl, BYTE PTR [ecx+1]
  00134	75 0e		 jne	 SHORT $LN27@GCNpcNnfo
  00136	83 c0 02	 add	 eax, 2
  00139	83 c1 02	 add	 ecx, 2
  0013c	84 d2		 test	 dl, dl
  0013e	75 e4		 jne	 SHORT $LL26@GCNpcNnfo
$LN28@GCNpcNnfo:
  00140	33 c0		 xor	 eax, eax
  00142	eb 05		 jmp	 SHORT $LN29@GCNpcNnfo
$LN27@GCNpcNnfo:
  00144	1b c0		 sbb	 eax, eax
  00146	83 d8 ff	 sbb	 eax, -1
$LN29@GCNpcNnfo:
  00149	85 c0		 test	 eax, eax
  0014b	75 07		 jne	 SHORT $LN31@GCNpcNnfo

; 250  : 			{
; 251  : 				pMsg.iMsgCode = 6;

  0014d	c7 45 8c 06 00
	00 00		 mov	 DWORD PTR _pMsg$[ebp+8], 6
$LN31@GCNpcNnfo:

; 252  : 			}
; 253  : 		}
; 254  : 
; 255  : 		pMsg.szGuildName[i][8] = 0;
; 256  : 		memcpy(pMsg.szGuildName[i], szGName, 8);

  00154	8b 06		 mov	 eax, DWORD PTR [esi]
  00156	8b 4e 04	 mov	 ecx, DWORD PTR [esi+4]
  00159	c6 47 08 00	 mov	 BYTE PTR [edi+8], 0
  0015d	89 07		 mov	 DWORD PTR [edi], eax
  0015f	89 4f 04	 mov	 DWORD PTR [edi+4], ecx
  00162	83 c6 09	 add	 esi, 9
  00165	83 c7 09	 add	 edi, 9
  00168	4b		 dec	 ebx
  00169	75 95		 jne	 SHORT $LL6@GCNpcNnfo

; 241  : 
; 242  : 	for(int i = 0; i < this->iRegCount; i++)

  0016b	8b 5d 80	 mov	 ebx, DWORD PTR _aIndex$GSCopy$[ebp]
$LN4@GCNpcNnfo:

; 257  : 	}
; 258  : 
; 259  : 	if(pMsg.iMsgCode != 0)

  0016e	83 7d 8c 00	 cmp	 DWORD PTR _pMsg$[ebp+8], 0
  00172	74 04		 je	 SHORT $LN1@GCNpcNnfo

; 260  : 	{
; 261  : 		pMsg.bResultReg = false;

  00174	c6 45 88 00	 mov	 BYTE PTR _pMsg$[ebp+4], 0
$LN1@GCNpcNnfo:

; 262  : 	}
; 263  : 	
; 264  : 	DataSend(aIndex, (LPBYTE)&pMsg, sizeof(pMsg));

  00178	6a 78		 push	 120			; 00000078H
  0017a	8d 55 84	 lea	 edx, DWORD PTR _pMsg$[ebp]
  0017d	52		 push	 edx
  0017e	53		 push	 ebx
  0017f	e8 00 00 00 00	 call	 ?DataSend@@YAHHPAEK@Z	; DataSend

; 265  : }

  00184	8b 4d fc	 mov	 ecx, DWORD PTR __$ArrayPad$[ebp]
  00187	83 c4 0c	 add	 esp, 12			; 0000000cH
  0018a	5f		 pop	 edi
  0018b	5e		 pop	 esi
  0018c	33 cd		 xor	 ecx, ebp
  0018e	5b		 pop	 ebx
  0018f	e8 00 00 00 00	 call	 @__security_check_cookie@4
  00194	8b e5		 mov	 esp, ebp
  00196	5d		 pop	 ebp
  00197	c2 04 00	 ret	 4
?GCNpcNnfo@CDungeonSiege@@QAEXH@Z ENDP			; CDungeonSiege::GCNpcNnfo
_TEXT	ENDS
PUBLIC	?GDReqRegSiegeList@CDungeonSiege@@QAEXXZ	; CDungeonSiege::GDReqRegSiegeList
EXTRN	?Send@DBSockMng@@QAEHPADH@Z:PROC		; DBSockMng::Send
EXTRN	?cDBSMng@@3VDBSockMng@@A:BYTE			; cDBSMng
; Function compile flags: /Ogtp
;	COMDAT ?GDReqRegSiegeList@CDungeonSiege@@QAEXXZ
_TEXT	SEGMENT
_pMsg$ = -8						; size = 8
?GDReqRegSiegeList@CDungeonSiege@@QAEXXZ PROC		; CDungeonSiege::GDReqRegSiegeList, COMDAT
; _this$ = ecx

; 268  : {

  00000	55		 push	 ebp
  00001	8b ec		 mov	 ebp, esp
  00003	83 ec 08	 sub	 esp, 8

; 269  : 	if(!this->bEnable)

  00006	80 79 48 00	 cmp	 BYTE PTR [ecx+72], 0
  0000a	74 1e		 je	 SHORT $LN2@GDReqRegSi

; 270  : 	{
; 271  : 		return;
; 272  : 	}
; 273  : 
; 274  : 	PMSG_PROTOCOL_RESULT pMsg;
; 275  : 	pMsg.h.set((LPBYTE)&pMsg, 0xEB, 0x03, sizeof(pMsg));
; 276  : 	pMsg.Result = true;
; 277  : 	cDBSMng.Send((char*)&pMsg, pMsg.h.size);

  0000c	6a 08		 push	 8
  0000e	8d 45 f8	 lea	 eax, DWORD PTR _pMsg$[ebp]
  00011	50		 push	 eax
  00012	b9 00 00 00 00	 mov	 ecx, OFFSET ?cDBSMng@@3VDBSockMng@@A ; cDBSMng
  00017	c7 45 f8 c1 08
	eb 03		 mov	 DWORD PTR _pMsg$[ebp], 65734849 ; 03eb08c1H
  0001e	c7 45 fc 01 00
	00 00		 mov	 DWORD PTR _pMsg$[ebp+4], 1
  00025	e8 00 00 00 00	 call	 ?Send@DBSockMng@@QAEHPADH@Z ; DBSockMng::Send
$LN2@GDReqRegSi:

; 278  : }

  0002a	8b e5		 mov	 esp, ebp
  0002c	5d		 pop	 ebp
  0002d	c3		 ret	 0
?GDReqRegSiegeList@CDungeonSiege@@QAEXXZ ENDP		; CDungeonSiege::GDReqRegSiegeList
_TEXT	ENDS
PUBLIC	?DGRegSiegeList@CDungeonSiege@@QAEXPAUPMSG_DG_DUNGEON_SIEGE_REG_LIST@@@Z ; CDungeonSiege::DGRegSiegeList
; Function compile flags: /Ogtp
;	COMDAT ?DGRegSiegeList@CDungeonSiege@@QAEXPAUPMSG_DG_DUNGEON_SIEGE_REG_LIST@@@Z
_TEXT	SEGMENT
_lpMsg$ = 8						; size = 4
?DGRegSiegeList@CDungeonSiege@@QAEXPAUPMSG_DG_DUNGEON_SIEGE_REG_LIST@@@Z PROC ; CDungeonSiege::DGRegSiegeList, COMDAT
; _this$ = ecx

; 281  : {

  00000	55		 push	 ebp
  00001	8b ec		 mov	 ebp, esp
  00003	53		 push	 ebx
  00004	56		 push	 esi
  00005	57		 push	 edi
  00006	8b d9		 mov	 ebx, ecx

; 282  : 	memset(this->reg_list, 0, sizeof(this->reg_list));

  00008	6a 5a		 push	 90			; 0000005aH
  0000a	8d b3 16 01 00
	00		 lea	 esi, DWORD PTR [ebx+278]
  00010	6a 00		 push	 0
  00012	56		 push	 esi
  00013	e8 00 00 00 00	 call	 _memset

; 283  : 
; 284  : 	this->iRegCount = lpMsg->iCount;

  00018	8b 7d 08	 mov	 edi, DWORD PTR _lpMsg$[ebp]
  0001b	8b 47 04	 mov	 eax, DWORD PTR [edi+4]
  0001e	83 c4 0c	 add	 esp, 12			; 0000000cH

; 285  : 
; 286  : 	for(int i = 0; i < this->iRegCount; i++)

  00021	33 d2		 xor	 edx, edx
  00023	89 43 20	 mov	 DWORD PTR [ebx+32], eax
  00026	85 c0		 test	 eax, eax
  00028	7e 1c		 jle	 SHORT $LN7@DGRegSiege

; 282  : 	memset(this->reg_list, 0, sizeof(this->reg_list));

  0002a	8b ce		 mov	 ecx, esi
  0002c	8d 47 08	 lea	 eax, DWORD PTR [edi+8]
  0002f	90		 npad	 1
$LL9@DGRegSiege:

; 287  : 	{
; 288  : 		char szGName[9];
; 289  : 		szGName[8] = 0;
; 290  : 		memcpy(szGName, lpMsg->szGuildName[i], 8);

  00030	8b 30		 mov	 esi, DWORD PTR [eax]
  00032	8b 78 04	 mov	 edi, DWORD PTR [eax+4]

; 291  : 		memcpy(this->reg_list[i].szGuildName, szGName, 8);

  00035	89 31		 mov	 DWORD PTR [ecx], esi
  00037	89 79 04	 mov	 DWORD PTR [ecx+4], edi
  0003a	42		 inc	 edx
  0003b	83 c0 09	 add	 eax, 9
  0003e	83 c1 09	 add	 ecx, 9
  00041	3b 53 20	 cmp	 edx, DWORD PTR [ebx+32]
  00044	7c ea		 jl	 SHORT $LL9@DGRegSiege
$LN7@DGRegSiege:

; 292  : 	}
; 293  : 
; 294  : 	for(int aIndex = OBJ_STARTUSERINDZT; aIndex < OBJMAX; aIndex++)

  00046	a1 00 00 00 00	 mov	 eax, DWORD PTR ?gObj@@3PAUOBJECTSTRUCT@@A ; gObj
  0004b	bf b0 36 00 00	 mov	 edi, 14000		; 000036b0H
  00050	be 00 a7 40 09	 mov	 esi, 155232000		; 0940a700H
$LL6@DGRegSiege:

; 295  : 	{
; 296  : 		LPOBJ lpTempObj = &gObj[aIndex];
; 297  : 
; 298  : 		if(lpTempObj->Connected < PLAYER_PLAYING || 
; 299  : 		   lpTempObj->Type != OBJ_USER)

  00055	83 7c 06 04 03	 cmp	 DWORD PTR [esi+eax+4], 3
  0005a	7c 1f		 jl	 SHORT $LN5@DGRegSiege
  0005c	66 83 7c 06 68
	01		 cmp	 WORD PTR [esi+eax+104], 1
  00062	75 17		 jne	 SHORT $LN5@DGRegSiege

; 300  : 		{
; 301  : 			continue;
; 302  : 		}	
; 303  : 
; 304  : 		if(lpTempObj->DSiege.bNpcClick)

  00064	80 bc 06 fc 28
	00 00 00	 cmp	 BYTE PTR [esi+eax+10492], 0
  0006c	74 0d		 je	 SHORT $LN5@DGRegSiege

; 305  : 		{
; 306  : 			this->GCNpcNnfo(aIndex);

  0006e	57		 push	 edi
  0006f	8b cb		 mov	 ecx, ebx
  00071	e8 00 00 00 00	 call	 ?GCNpcNnfo@CDungeonSiege@@QAEXH@Z ; CDungeonSiege::GCNpcNnfo
  00076	a1 00 00 00 00	 mov	 eax, DWORD PTR ?gObj@@3PAUOBJECTSTRUCT@@A ; gObj
$LN5@DGRegSiege:

; 292  : 	}
; 293  : 
; 294  : 	for(int aIndex = OBJ_STARTUSERINDZT; aIndex < OBJMAX; aIndex++)

  0007b	81 c6 50 2b 00
	00		 add	 esi, 11088		; 00002b50H
  00081	47		 inc	 edi
  00082	81 fe 80 d7 e9
	09		 cmp	 esi, 166320000		; 09e9d780H
  00088	7c cb		 jl	 SHORT $LL6@DGRegSiege
  0008a	5f		 pop	 edi
  0008b	5e		 pop	 esi
  0008c	5b		 pop	 ebx

; 307  : 		}
; 308  : 	}
; 309  : }

  0008d	5d		 pop	 ebp
  0008e	c2 04 00	 ret	 4
?DGRegSiegeList@CDungeonSiege@@QAEXPAUPMSG_DG_DUNGEON_SIEGE_REG_LIST@@@Z ENDP ; CDungeonSiege::DGRegSiegeList
_TEXT	ENDS
PUBLIC	_aIndex$GSCopy$
PUBLIC	__$ArrayPad$
PUBLIC	?CGDRegSiege@CDungeonSiege@@QAEXH@Z		; CDungeonSiege::CGDRegSiege
; Function compile flags: /Ogtp
;	COMDAT ?CGDRegSiege@CDungeonSiege@@QAEXH@Z
_TEXT	SEGMENT
_aIndex$GSCopy$ = -36					; size = 4
tv167 = -32						; size = 4
_pMsg$ = -28						; size = 24
__$ArrayPad$ = -4					; size = 4
_aIndex$ = 8						; size = 4
?CGDRegSiege@CDungeonSiege@@QAEXH@Z PROC		; CDungeonSiege::CGDRegSiege, COMDAT
; _this$ = ecx

; 312  : {

  00000	55		 push	 ebp
  00001	8b ec		 mov	 ebp, esp
  00003	83 ec 24	 sub	 esp, 36			; 00000024H
  00006	a1 00 00 00 00	 mov	 eax, DWORD PTR ___security_cookie
  0000b	33 c5		 xor	 eax, ebp
  0000d	89 45 fc	 mov	 DWORD PTR __$ArrayPad$[ebp], eax
  00010	8b 45 08	 mov	 eax, DWORD PTR _aIndex$[ebp]

; 313  : 	LPOBJ lpUser = &gObj[aIndex];
; 314  : 
; 315  : 	_GUILD_INFO_STRUCT * lpGuildUser = lpUser->lpGuild;

  00013	8b 15 00 00 00
	00		 mov	 edx, DWORD PTR ?gObj@@3PAUOBJECTSTRUCT@@A ; gObj

; 330  : 	{
; 331  : 		return;
; 332  : 	}
; 333  : 
; 334  : 	for(int i = 0; i < this->iRegCount; i++)

  00019	89 45 dc	 mov	 DWORD PTR _aIndex$GSCopy$[ebp], eax
  0001c	69 c0 50 2b 00
	00		 imul	 eax, 11088		; 00002b50H
  00022	56		 push	 esi
  00023	8b b4 10 38 04
	00 00		 mov	 esi, DWORD PTR [eax+edx+1080]
  0002a	85 f6		 test	 esi, esi
  0002c	0f 84 c5 00 00
	00		 je	 $LN13@CGDRegSieg

; 316  : 
; 317  : 	if(!lpGuildUser)
; 318  : 	{
; 319  : 		return;
; 320  : 	}
; 321  : 	else if(!strcmp(lpGuildUser->Name, this->szLordGuild))

  00032	8d 46 04	 lea	 eax, DWORD PTR [esi+4]
  00035	89 45 e0	 mov	 DWORD PTR tv167[ebp], eax
  00038	8d 51 15	 lea	 edx, DWORD PTR [ecx+21]
  0003b	53		 push	 ebx
  0003c	8d 64 24 00	 npad	 4
$LL20@CGDRegSieg:
  00040	8a 18		 mov	 bl, BYTE PTR [eax]
  00042	3a 1a		 cmp	 bl, BYTE PTR [edx]
  00044	75 1a		 jne	 SHORT $LN21@CGDRegSieg
  00046	84 db		 test	 bl, bl
  00048	74 12		 je	 SHORT $LN22@CGDRegSieg
  0004a	8a 58 01	 mov	 bl, BYTE PTR [eax+1]
  0004d	3a 5a 01	 cmp	 bl, BYTE PTR [edx+1]
  00050	75 0e		 jne	 SHORT $LN21@CGDRegSieg
  00052	83 c0 02	 add	 eax, 2
  00055	83 c2 02	 add	 edx, 2
  00058	84 db		 test	 bl, bl
  0005a	75 e4		 jne	 SHORT $LL20@CGDRegSieg
$LN22@CGDRegSieg:
  0005c	33 c0		 xor	 eax, eax
  0005e	eb 05		 jmp	 SHORT $LN23@CGDRegSieg
$LN21@CGDRegSieg:
  00060	1b c0		 sbb	 eax, eax
  00062	83 d8 ff	 sbb	 eax, -1
$LN23@CGDRegSieg:
  00065	85 c0		 test	 eax, eax
  00067	0f 84 89 00 00
	00		 je	 $LN28@CGDRegSieg

; 322  : 	{
; 323  : 		return;
; 324  : 	}
; 325  : 	else if(this->iRegCount >= 10)

  0006d	57		 push	 edi
  0006e	8b 79 20	 mov	 edi, DWORD PTR [ecx+32]
  00071	83 ff 0a	 cmp	 edi, 10			; 0000000aH
  00074	7d 7f		 jge	 SHORT $LN29@CGDRegSieg

; 326  : 	{
; 327  : 		return;
; 328  : 	}	
; 329  : 	else if(lpGuildUser->Count < this->m_MinPlayerGuildReg)

  00076	0f b6 46 2d	 movzx	 eax, BYTE PTR [esi+45]
  0007a	3b 81 dc 00 00
	00		 cmp	 eax, DWORD PTR [ecx+220]
  00080	7c 73		 jl	 SHORT $LN29@CGDRegSieg

; 330  : 	{
; 331  : 		return;
; 332  : 	}
; 333  : 
; 334  : 	for(int i = 0; i < this->iRegCount; i++)

  00082	33 db		 xor	 ebx, ebx
  00084	85 ff		 test	 edi, edi
  00086	7e 3e		 jle	 SHORT $LN3@CGDRegSieg
  00088	8d b1 16 01 00
	00		 lea	 esi, DWORD PTR [ecx+278]
  0008e	8b ff		 npad	 2
$LL5@CGDRegSieg:

; 335  : 	{
; 336  : 		if(lpGuildUser)
; 337  : 		{
; 338  : 			if(!strcmp(this->reg_list[i].szGuildName, lpGuildUser->Name))

  00090	8b 4d e0	 mov	 ecx, DWORD PTR tv167[ebp]
  00093	8b c6		 mov	 eax, esi
$LL24@CGDRegSieg:
  00095	8a 10		 mov	 dl, BYTE PTR [eax]
  00097	3a 11		 cmp	 dl, BYTE PTR [ecx]
  00099	75 1a		 jne	 SHORT $LN25@CGDRegSieg
  0009b	84 d2		 test	 dl, dl
  0009d	74 12		 je	 SHORT $LN26@CGDRegSieg
  0009f	8a 50 01	 mov	 dl, BYTE PTR [eax+1]
  000a2	3a 51 01	 cmp	 dl, BYTE PTR [ecx+1]
  000a5	75 0e		 jne	 SHORT $LN25@CGDRegSieg
  000a7	83 c0 02	 add	 eax, 2
  000aa	83 c1 02	 add	 ecx, 2
  000ad	84 d2		 test	 dl, dl
  000af	75 e4		 jne	 SHORT $LL24@CGDRegSieg
$LN26@CGDRegSieg:
  000b1	33 c0		 xor	 eax, eax
  000b3	eb 05		 jmp	 SHORT $LN27@CGDRegSieg
$LN25@CGDRegSieg:
  000b5	1b c0		 sbb	 eax, eax
  000b7	83 d8 ff	 sbb	 eax, -1
$LN27@CGDRegSieg:
  000ba	85 c0		 test	 eax, eax
  000bc	74 37		 je	 SHORT $LN29@CGDRegSieg

; 330  : 	{
; 331  : 		return;
; 332  : 	}
; 333  : 
; 334  : 	for(int i = 0; i < this->iRegCount; i++)

  000be	43		 inc	 ebx
  000bf	83 c6 09	 add	 esi, 9
  000c2	3b df		 cmp	 ebx, edi
  000c4	7c ca		 jl	 SHORT $LL5@CGDRegSieg
$LN3@CGDRegSieg:

; 339  : 			{
; 340  : 				return;
; 341  : 			}
; 342  : 		}
; 343  : 	}
; 344  : 
; 345  : 	PMSG_GD_DUNGEON_SIEGE_GUILD_REG pMsg;
; 346  : 	pMsg.h.set((LPBYTE)&pMsg, 0xEB, 0x04, sizeof(pMsg));
; 347  : 	pMsg.aIndex = aIndex;

  000c6	8b 4d dc	 mov	 ecx, DWORD PTR _aIndex$GSCopy$[ebp]

; 348  : 	pMsg.szGuildName[8] = 0;
; 349  : 	memcpy(pMsg.szGuildName, lpGuildUser->Name, sizeof(pMsg.szGuildName)-1);

  000c9	8b 45 e0	 mov	 eax, DWORD PTR tv167[ebp]
  000cc	89 4d ec	 mov	 DWORD PTR _pMsg$[ebp+8], ecx
  000cf	c7 45 e4 c1 18
	eb 04		 mov	 DWORD PTR _pMsg$[ebp], 82516161 ; 04eb18c1H
  000d6	c6 45 f8 00	 mov	 BYTE PTR _pMsg$[ebp+20], 0
  000da	8b 10		 mov	 edx, DWORD PTR [eax]

; 350  : 	cDBSMng.Send((char*)&pMsg, pMsg.h.size);

  000dc	6a 18		 push	 24			; 00000018H
  000de	8d 4d e4	 lea	 ecx, DWORD PTR _pMsg$[ebp]
  000e1	89 55 f0	 mov	 DWORD PTR _pMsg$[ebp+12], edx
  000e4	8b 40 04	 mov	 eax, DWORD PTR [eax+4]
  000e7	51		 push	 ecx
  000e8	b9 00 00 00 00	 mov	 ecx, OFFSET ?cDBSMng@@3VDBSockMng@@A ; cDBSMng
  000ed	89 45 f4	 mov	 DWORD PTR _pMsg$[ebp+16], eax
  000f0	e8 00 00 00 00	 call	 ?Send@DBSockMng@@QAEHPADH@Z ; DBSockMng::Send
$LN29@CGDRegSieg:
  000f5	5f		 pop	 edi
$LN28@CGDRegSieg:
  000f6	5b		 pop	 ebx
$LN13@CGDRegSieg:

; 351  : }

  000f7	8b 4d fc	 mov	 ecx, DWORD PTR __$ArrayPad$[ebp]
  000fa	33 cd		 xor	 ecx, ebp
  000fc	5e		 pop	 esi
  000fd	e8 00 00 00 00	 call	 @__security_check_cookie@4
  00102	8b e5		 mov	 esp, ebp
  00104	5d		 pop	 ebp
  00105	c2 04 00	 ret	 4
?CGDRegSiege@CDungeonSiege@@QAEXH@Z ENDP		; CDungeonSiege::CGDRegSiege
_TEXT	ENDS
PUBLIC	?DGRegSiegeResult@CDungeonSiege@@QAEXPAUPMSG_GD_DUNGEON_SIEGE_GUILD_REG_RESULT@@@Z ; CDungeonSiege::DGRegSiegeResult
; Function compile flags: /Ogtp
;	COMDAT ?DGRegSiegeResult@CDungeonSiege@@QAEXPAUPMSG_GD_DUNGEON_SIEGE_GUILD_REG_RESULT@@@Z
_TEXT	SEGMENT
_lpMsg$ = 8						; size = 4
?DGRegSiegeResult@CDungeonSiege@@QAEXPAUPMSG_GD_DUNGEON_SIEGE_GUILD_REG_RESULT@@@Z PROC ; CDungeonSiege::DGRegSiegeResult, COMDAT
; _this$ = ecx

; 354  : {

  00000	55		 push	 ebp
  00001	8b ec		 mov	 ebp, esp

; 355  : 	if(!lpMsg->bResult)

  00003	8b 45 08	 mov	 eax, DWORD PTR _lpMsg$[ebp]
  00006	80 78 04 00	 cmp	 BYTE PTR [eax+4], 0
  0000a	74 2d		 je	 SHORT $LN4@DGRegSiege@2

; 356  : 	{
; 357  : 		return;
; 358  : 	}
; 359  : 
; 360  : 	int aIndex = lpMsg->aIndex;

  0000c	8b 40 08	 mov	 eax, DWORD PTR [eax+8]

; 361  : 
; 362  : 	if(!OBJMAX_RANGE(aIndex))

  0000f	85 c0		 test	 eax, eax
  00011	78 26		 js	 SHORT $LN4@DGRegSiege@2
  00013	33 d2		 xor	 edx, edx
  00015	3d 97 3a 00 00	 cmp	 eax, 14999		; 00003a97H
  0001a	0f 9e c2	 setle	 dl
  0001d	85 d2		 test	 edx, edx
  0001f	74 18		 je	 SHORT $LN4@DGRegSiege@2

; 363  : 	{
; 364  : 		return;
; 365  : 	}
; 366  : 
; 367  : 	LPOBJ lpUser = &gObj[aIndex];
; 368  : 
; 369  : 	if(lpUser->Connected < PLAYER_PLAYING)

  00021	8b 15 00 00 00
	00		 mov	 edx, DWORD PTR ?gObj@@3PAUOBJECTSTRUCT@@A ; gObj
  00027	69 c0 50 2b 00
	00		 imul	 eax, 11088		; 00002b50H
  0002d	83 7c 10 04 03	 cmp	 DWORD PTR [eax+edx+4], 3
  00032	7c 05		 jl	 SHORT $LN4@DGRegSiege@2

; 370  : 	{
; 371  : 		return;
; 372  : 	}
; 373  : 
; 374  : 	this->GDReqRegSiegeList();

  00034	e8 00 00 00 00	 call	 ?GDReqRegSiegeList@CDungeonSiege@@QAEXXZ ; CDungeonSiege::GDReqRegSiegeList
$LN4@DGRegSiege@2:

; 375  : }

  00039	5d		 pop	 ebp
  0003a	c2 04 00	 ret	 4
?DGRegSiegeResult@CDungeonSiege@@QAEXPAUPMSG_GD_DUNGEON_SIEGE_GUILD_REG_RESULT@@@Z ENDP ; CDungeonSiege::DGRegSiegeResult
_TEXT	ENDS
PUBLIC	?GDSiegeClearList@CDungeonSiege@@QAEXXZ		; CDungeonSiege::GDSiegeClearList
; Function compile flags: /Ogtp
;	COMDAT ?GDSiegeClearList@CDungeonSiege@@QAEXXZ
_TEXT	SEGMENT
_pMsg$ = -8						; size = 8
?GDSiegeClearList@CDungeonSiege@@QAEXXZ PROC		; CDungeonSiege::GDSiegeClearList, COMDAT
; _this$ = ecx

; 378  : {

  00000	55		 push	 ebp
  00001	8b ec		 mov	 ebp, esp
  00003	83 ec 08	 sub	 esp, 8
  00006	56		 push	 esi

; 379  : 	PMSG_PROTOCOL_RESULT pMsg;
; 380  : 	pMsg.h.set((LPBYTE)&pMsg, 0xEB, 0x05, sizeof(pMsg));
; 381  : 	pMsg.Result = true;
; 382  : 	cDBSMng.Send((char*)&pMsg, pMsg.h.size);

  00007	6a 08		 push	 8
  00009	8d 45 f8	 lea	 eax, DWORD PTR _pMsg$[ebp]
  0000c	8b f1		 mov	 esi, ecx
  0000e	50		 push	 eax
  0000f	b9 00 00 00 00	 mov	 ecx, OFFSET ?cDBSMng@@3VDBSockMng@@A ; cDBSMng
  00014	c7 45 f8 c1 08
	eb 05		 mov	 DWORD PTR _pMsg$[ebp], 99289281 ; 05eb08c1H
  0001b	c7 45 fc 01 00
	00 00		 mov	 DWORD PTR _pMsg$[ebp+4], 1
  00022	e8 00 00 00 00	 call	 ?Send@DBSockMng@@QAEHPADH@Z ; DBSockMng::Send

; 383  : 
; 384  : 	this->iRegCount = 0;
; 385  : 	memset(this->reg_list, 0, sizeof(this->reg_list));

  00027	6a 5a		 push	 90			; 0000005aH
  00029	c7 46 20 00 00
	00 00		 mov	 DWORD PTR [esi+32], 0
  00030	6a 00		 push	 0
  00032	81 c6 16 01 00
	00		 add	 esi, 278		; 00000116H
  00038	56		 push	 esi
  00039	e8 00 00 00 00	 call	 _memset
  0003e	83 c4 0c	 add	 esp, 12			; 0000000cH
  00041	5e		 pop	 esi

; 386  : }

  00042	8b e5		 mov	 esp, ebp
  00044	5d		 pop	 ebp
  00045	c3		 ret	 0
?GDSiegeClearList@CDungeonSiege@@QAEXXZ ENDP		; CDungeonSiege::GDSiegeClearList
_TEXT	ENDS
PUBLIC	?GDSiegeOwner@CDungeonSiege@@QAEXXZ		; CDungeonSiege::GDSiegeOwner
; Function compile flags: /Ogtp
;	COMDAT ?GDSiegeOwner@CDungeonSiege@@QAEXXZ
_TEXT	SEGMENT
_pMsg$ = -8						; size = 8
?GDSiegeOwner@CDungeonSiege@@QAEXXZ PROC		; CDungeonSiege::GDSiegeOwner, COMDAT
; _this$ = ecx

; 389  : {

  00000	55		 push	 ebp
  00001	8b ec		 mov	 ebp, esp
  00003	83 ec 08	 sub	 esp, 8

; 390  : 	if(!this->bEnable)

  00006	80 79 48 00	 cmp	 BYTE PTR [ecx+72], 0
  0000a	74 1e		 je	 SHORT $LN2@GDSiegeOwn

; 391  : 	{
; 392  : 		return;
; 393  : 	}
; 394  : 
; 395  : 	PMSG_PROTOCOL_RESULT pMsg;
; 396  : 	pMsg.h.set((LPBYTE)&pMsg, 0xEB, 0x06, sizeof(pMsg));
; 397  : 	pMsg.Result = true;
; 398  : 	cDBSMng.Send((char*)&pMsg, pMsg.h.size);

  0000c	6a 08		 push	 8
  0000e	8d 45 f8	 lea	 eax, DWORD PTR _pMsg$[ebp]
  00011	50		 push	 eax
  00012	b9 00 00 00 00	 mov	 ecx, OFFSET ?cDBSMng@@3VDBSockMng@@A ; cDBSMng
  00017	c7 45 f8 c1 08
	eb 06		 mov	 DWORD PTR _pMsg$[ebp], 116066497 ; 06eb08c1H
  0001e	c7 45 fc 01 00
	00 00		 mov	 DWORD PTR _pMsg$[ebp+4], 1
  00025	e8 00 00 00 00	 call	 ?Send@DBSockMng@@QAEHPADH@Z ; DBSockMng::Send
$LN2@GDSiegeOwn:

; 399  : }

  0002a	8b e5		 mov	 esp, ebp
  0002c	5d		 pop	 ebp
  0002d	c3		 ret	 0
?GDSiegeOwner@CDungeonSiege@@QAEXXZ ENDP		; CDungeonSiege::GDSiegeOwner
_TEXT	ENDS
PUBLIC	?DGSiegeOwner@CDungeonSiege@@QAEXPAUPMSG_DG_DUNGEON_SIEGE_SELECT_OENER@@@Z ; CDungeonSiege::DGSiegeOwner
; Function compile flags: /Ogtp
;	COMDAT ?DGSiegeOwner@CDungeonSiege@@QAEXPAUPMSG_DG_DUNGEON_SIEGE_SELECT_OENER@@@Z
_TEXT	SEGMENT
_lpMsg$ = 8						; size = 4
?DGSiegeOwner@CDungeonSiege@@QAEXPAUPMSG_DG_DUNGEON_SIEGE_SELECT_OENER@@@Z PROC ; CDungeonSiege::DGSiegeOwner, COMDAT
; _this$ = ecx

; 402  : {

  00000	55		 push	 ebp
  00001	8b ec		 mov	 ebp, esp

; 403  : 	if(!lpMsg->bResult)

  00003	8b 45 08	 mov	 eax, DWORD PTR _lpMsg$[ebp]
  00006	80 78 04 00	 cmp	 BYTE PTR [eax+4], 0
  0000a	75 13		 jne	 SHORT $LN1@DGSiegeOwn

; 404  : 	{
; 405  : 		this->bCaptured = false;
; 406  : 		memset(this->szLordGuild, 0, sizeof(this->szLordGuild));

  0000c	33 c0		 xor	 eax, eax
  0000e	c6 41 14 00	 mov	 BYTE PTR [ecx+20], 0
  00012	89 41 15	 mov	 DWORD PTR [ecx+21], eax
  00015	89 41 19	 mov	 DWORD PTR [ecx+25], eax
  00018	88 41 1d	 mov	 BYTE PTR [ecx+29], al

; 416  : }

  0001b	5d		 pop	 ebp
  0001c	c2 04 00	 ret	 4
$LN1@DGSiegeOwn:

; 407  : 		return;
; 408  : 	}
; 409  : 
; 410  : 	char szGName[9];
; 411  : 	szGName[8] = 0;
; 412  : 	memcpy(szGName, lpMsg->szGuildOwner, sizeof(szGName)-1);

  0001f	8b 50 05	 mov	 edx, DWORD PTR [eax+5]
  00022	8b 40 09	 mov	 eax, DWORD PTR [eax+9]

; 413  : 
; 414  : 	this->bCaptured = true;

  00025	c6 41 14 01	 mov	 BYTE PTR [ecx+20], 1

; 415  : 	memcpy(this->szLordGuild, szGName, sizeof(this->szLordGuild)-1);

  00029	89 51 15	 mov	 DWORD PTR [ecx+21], edx
  0002c	89 41 19	 mov	 DWORD PTR [ecx+25], eax

; 416  : }

  0002f	5d		 pop	 ebp
  00030	c2 04 00	 ret	 4
?DGSiegeOwner@CDungeonSiege@@QAEXPAUPMSG_DG_DUNGEON_SIEGE_SELECT_OENER@@@Z ENDP ; CDungeonSiege::DGSiegeOwner
_TEXT	ENDS
PUBLIC	__$ArrayPad$
PUBLIC	?GDSiegeOwnerUpdate@CDungeonSiege@@QAEXXZ	; CDungeonSiege::GDSiegeOwnerUpdate
; Function compile flags: /Ogtp
;	COMDAT ?GDSiegeOwnerUpdate@CDungeonSiege@@QAEXXZ
_TEXT	SEGMENT
_pMsg$ = -20						; size = 13
__$ArrayPad$ = -4					; size = 4
?GDSiegeOwnerUpdate@CDungeonSiege@@QAEXXZ PROC		; CDungeonSiege::GDSiegeOwnerUpdate, COMDAT
; _this$ = ecx

; 419  : {

  00000	55		 push	 ebp
  00001	8b ec		 mov	 ebp, esp
  00003	83 ec 14	 sub	 esp, 20			; 00000014H
  00006	a1 00 00 00 00	 mov	 eax, DWORD PTR ___security_cookie
  0000b	33 c5		 xor	 eax, ebp
  0000d	89 45 fc	 mov	 DWORD PTR __$ArrayPad$[ebp], eax
  00010	8b c1		 mov	 eax, ecx

; 420  : 	PMSG_GD_DUNGEON_SIEGE_UPDATE_OENER pMsg;
; 421  : 	pMsg.h.set((LPBYTE)&pMsg, 0xEB, 0x07, sizeof(pMsg));
; 422  : 	pMsg.szGuildOwner[8] = 0;
; 423  : 	memcpy(pMsg.szGuildOwner, this->szLordGuild, sizeof(this->szLordGuild)-1);

  00012	8b 48 15	 mov	 ecx, DWORD PTR [eax+21]
  00015	8b 50 19	 mov	 edx, DWORD PTR [eax+25]

; 424  : 	cDBSMng.Send((char*)&pMsg, pMsg.h.size);

  00018	6a 0d		 push	 13			; 0000000dH
  0001a	8d 45 ec	 lea	 eax, DWORD PTR _pMsg$[ebp]
  0001d	89 4d f0	 mov	 DWORD PTR _pMsg$[ebp+4], ecx
  00020	50		 push	 eax
  00021	b9 00 00 00 00	 mov	 ecx, OFFSET ?cDBSMng@@3VDBSockMng@@A ; cDBSMng
  00026	c7 45 ec c1 0d
	eb 07		 mov	 DWORD PTR _pMsg$[ebp], 132844993 ; 07eb0dc1H
  0002d	c6 45 f8 00	 mov	 BYTE PTR _pMsg$[ebp+12], 0
  00031	89 55 f4	 mov	 DWORD PTR _pMsg$[ebp+8], edx
  00034	e8 00 00 00 00	 call	 ?Send@DBSockMng@@QAEHPADH@Z ; DBSockMng::Send

; 425  : }

  00039	8b 4d fc	 mov	 ecx, DWORD PTR __$ArrayPad$[ebp]
  0003c	33 cd		 xor	 ecx, ebp
  0003e	e8 00 00 00 00	 call	 @__security_check_cookie@4
  00043	8b e5		 mov	 esp, ebp
  00045	5d		 pop	 ebp
  00046	c3		 ret	 0
?GDSiegeOwnerUpdate@CDungeonSiege@@QAEXXZ ENDP		; CDungeonSiege::GDSiegeOwnerUpdate
_TEXT	ENDS
PUBLIC	?CGHWID@CDungeonSiege@@QAEXPAUPMSG_CG_DUNBEON_SIEGE_HWID@@H@Z ; CDungeonSiege::CGHWID
; Function compile flags: /Ogtp
;	COMDAT ?CGHWID@CDungeonSiege@@QAEXPAUPMSG_CG_DUNBEON_SIEGE_HWID@@H@Z
_TEXT	SEGMENT
_lpMsg$ = 8						; size = 4
_aIndex$ = 12						; size = 4
?CGHWID@CDungeonSiege@@QAEXPAUPMSG_CG_DUNBEON_SIEGE_HWID@@H@Z PROC ; CDungeonSiege::CGHWID, COMDAT
; _this$ = ecx

; 428  : {

  00000	55		 push	 ebp
  00001	8b ec		 mov	 ebp, esp

; 429  : 	if(!OBJMAX_RANGE(aIndex))

  00003	8b 45 0c	 mov	 eax, DWORD PTR _aIndex$[ebp]
  00006	85 c0		 test	 eax, eax
  00008	78 27		 js	 SHORT $LN2@CGHWID
  0000a	33 c9		 xor	 ecx, ecx
  0000c	3d 97 3a 00 00	 cmp	 eax, 14999		; 00003a97H
  00011	0f 9e c1	 setle	 cl
  00014	85 c9		 test	 ecx, ecx
  00016	74 19		 je	 SHORT $LN2@CGHWID

; 430  : 	{
; 431  : 		return;
; 432  : 	}
; 433  : 
; 434  : 	LPOBJ lpUser = &gObj[aIndex];
; 435  : 	lpUser->DSiege.dwHWID = lpMsg->dwHWID;

  00018	8b 4d 08	 mov	 ecx, DWORD PTR _lpMsg$[ebp]
  0001b	69 c0 50 2b 00
	00		 imul	 eax, 11088		; 00002b50H
  00021	8b 51 04	 mov	 edx, DWORD PTR [ecx+4]
  00024	8b 0d 00 00 00
	00		 mov	 ecx, DWORD PTR ?gObj@@3PAUOBJECTSTRUCT@@A ; gObj
  0002a	89 94 08 00 29
	00 00		 mov	 DWORD PTR [eax+ecx+10496], edx
$LN2@CGHWID:

; 436  : }

  00031	5d		 pop	 ebp
  00032	c2 08 00	 ret	 8
?CGHWID@CDungeonSiege@@QAEXPAUPMSG_CG_DUNBEON_SIEGE_HWID@@H@Z ENDP ; CDungeonSiege::CGHWID
_TEXT	ENDS
PUBLIC	?CheckStatus@CDungeonSiege@@QAE_NH@Z		; CDungeonSiege::CheckStatus
; Function compile flags: /Ogtp
;	COMDAT ?CheckStatus@CDungeonSiege@@QAE_NH@Z
_TEXT	SEGMENT
_Status$ = 8						; size = 4
?CheckStatus@CDungeonSiege@@QAE_NH@Z PROC		; CDungeonSiege::CheckStatus, COMDAT
; _this$ = ecx

; 460  : {

  00000	55		 push	 ebp
  00001	8b ec		 mov	 ebp, esp

; 461  : 	if(this->iEventStatus == Status)

  00003	8b 01		 mov	 eax, DWORD PTR [ecx]
  00005	3b 45 08	 cmp	 eax, DWORD PTR _Status$[ebp]
  00008	0f 94 c0	 sete	 al

; 462  : 	{
; 463  : 		return true;
; 464  : 	}
; 465  : 
; 466  : 	return false;
; 467  : }

  0000b	5d		 pop	 ebp
  0000c	c2 04 00	 ret	 4
?CheckStatus@CDungeonSiege@@QAE_NH@Z ENDP		; CDungeonSiege::CheckStatus
_TEXT	ENDS
PUBLIC	??_C@_0BO@DLCNOEOD@?$FL?$CFs?$FN?5Second?5stage?5has?5started?$AA@ ; `string'
PUBLIC	__$ArrayPad$
PUBLIC	?StatusStartStage2@CDungeonSiege@@QAEXXZ	; CDungeonSiege::StatusStartStage2
EXTRN	__imp__GetTickCount@0:PROC
EXTRN	?AllSendServerMsg@@YAXPAD@Z:PROC		; AllSendServerMsg
EXTRN	_sprintf:PROC
;	COMDAT ??_C@_0BO@DLCNOEOD@?$FL?$CFs?$FN?5Second?5stage?5has?5started?$AA@
CONST	SEGMENT
??_C@_0BO@DLCNOEOD@?$FL?$CFs?$FN?5Second?5stage?5has?5started?$AA@ DB '[%'
	DB	's] Second stage has started', 00H		; `string'
; Function compile flags: /Ogtp
CONST	ENDS
;	COMDAT ?StatusStartStage2@CDungeonSiege@@QAEXXZ
_TEXT	SEGMENT
_szText$ = -260						; size = 256
__$ArrayPad$ = -4					; size = 4
?StatusStartStage2@CDungeonSiege@@QAEXXZ PROC		; CDungeonSiege::StatusStartStage2, COMDAT
; _this$ = ecx

; 526  : {

  00000	55		 push	 ebp
  00001	8b ec		 mov	 ebp, esp
  00003	81 ec 04 01 00
	00		 sub	 esp, 260		; 00000104H
  00009	a1 00 00 00 00	 mov	 eax, DWORD PTR ___security_cookie
  0000e	33 c5		 xor	 eax, ebp
  00010	89 45 fc	 mov	 DWORD PTR __$ArrayPad$[ebp], eax
  00013	56		 push	 esi
  00014	8b f1		 mov	 esi, ecx

; 527  : 	char szText[256];
; 528  : 	sprintf(szText, "[%s] Second stage has started", this->m_EventName);

  00016	8d 86 e4 00 00
	00		 lea	 eax, DWORD PTR [esi+228]
  0001c	50		 push	 eax
  0001d	8d 8d fc fe ff
	ff		 lea	 ecx, DWORD PTR _szText$[ebp]
  00023	68 00 00 00 00	 push	 OFFSET ??_C@_0BO@DLCNOEOD@?$FL?$CFs?$FN?5Second?5stage?5has?5started?$AA@
  00028	51		 push	 ecx
  00029	e8 00 00 00 00	 call	 _sprintf

; 529  : 	AllSendServerMsg(szText);

  0002e	8d 95 fc fe ff
	ff		 lea	 edx, DWORD PTR _szText$[ebp]
  00034	52		 push	 edx
  00035	e8 00 00 00 00	 call	 ?AllSendServerMsg@@YAXPAD@Z ; AllSendServerMsg
  0003a	83 c4 10	 add	 esp, 16			; 00000010H

; 530  : 	this->iTickCount = GetTickCount();

  0003d	ff 15 00 00 00
	00		 call	 DWORD PTR __imp__GetTickCount@0

; 531  : 	this->iTickRemain = 60000 * this->iEventDurationStage2;
; 532  : }

  00043	8b 4d fc	 mov	 ecx, DWORD PTR __$ArrayPad$[ebp]
  00046	89 46 24	 mov	 DWORD PTR [esi+36], eax
  00049	8b 46 6c	 mov	 eax, DWORD PTR [esi+108]
  0004c	69 c0 60 ea 00
	00		 imul	 eax, 60000		; 0000ea60H
  00052	89 46 28	 mov	 DWORD PTR [esi+40], eax
  00055	33 cd		 xor	 ecx, ebp
  00057	5e		 pop	 esi
  00058	e8 00 00 00 00	 call	 @__security_check_cookie@4
  0005d	8b e5		 mov	 esp, ebp
  0005f	5d		 pop	 ebp
  00060	c3		 ret	 0
?StatusStartStage2@CDungeonSiege@@QAEXXZ ENDP		; CDungeonSiege::StatusStartStage2
_TEXT	ENDS
PUBLIC	?ChangePkLevel@CDungeonSiege@@QAE_NHH@Z		; CDungeonSiege::ChangePkLevel
; Function compile flags: /Ogtp
;	COMDAT ?ChangePkLevel@CDungeonSiege@@QAE_NHH@Z
_TEXT	SEGMENT
_aIndex$ = 8						; size = 4
_aTargetIndex$ = 12					; size = 4
?ChangePkLevel@CDungeonSiege@@QAE_NHH@Z PROC		; CDungeonSiege::ChangePkLevel, COMDAT
; _this$ = ecx

; 761  : {

  00000	55		 push	 ebp
  00001	8b ec		 mov	 ebp, esp
  00003	57		 push	 edi
  00004	8b f9		 mov	 edi, ecx

; 762  : 	if(!this->bEnable)

  00006	80 7f 48 00	 cmp	 BYTE PTR [edi+72], 0
  0000a	75 07		 jne	 SHORT $LN8@ChangePkLe

; 763  : 	{
; 764  : 		return true;

  0000c	b0 01		 mov	 al, 1
  0000e	5f		 pop	 edi

; 786  : 	{
; 787  : 		return true;
; 788  : 	}
; 789  : 
; 790  : 	return false;
; 791  : }

  0000f	5d		 pop	 ebp
  00010	c2 08 00	 ret	 8
$LN8@ChangePkLe:

; 765  : 	}
; 766  : 
; 767  : 	if(!OBJMAX_RANGE(aIndex) || !OBJMAX_RANGE(aTargetIndex))

  00013	8b 45 08	 mov	 eax, DWORD PTR _aIndex$[ebp]
  00016	56		 push	 esi
  00017	85 c0		 test	 eax, eax
  00019	78 7c		 js	 SHORT $LN6@ChangePkLe
  0001b	33 d2		 xor	 edx, edx
  0001d	3d 97 3a 00 00	 cmp	 eax, 14999		; 00003a97H
  00022	0f 9e c2	 setle	 dl
  00025	85 d2		 test	 edx, edx
  00027	74 6e		 je	 SHORT $LN6@ChangePkLe
  00029	8b 55 0c	 mov	 edx, DWORD PTR _aTargetIndex$[ebp]
  0002c	85 d2		 test	 edx, edx
  0002e	78 67		 js	 SHORT $LN6@ChangePkLe
  00030	33 c9		 xor	 ecx, ecx
  00032	81 fa 97 3a 00
	00		 cmp	 edx, 14999		; 00003a97H
  00038	0f 9e c1	 setle	 cl
  0003b	8b f1		 mov	 esi, ecx
  0003d	85 f6		 test	 esi, esi
  0003f	74 56		 je	 SHORT $LN6@ChangePkLe

; 770  : 	}
; 771  : 
; 772  : 	LPOBJ lpUser = &gObj[aIndex];

  00041	8b 35 00 00 00
	00		 mov	 esi, DWORD PTR ?gObj@@3PAUOBJECTSTRUCT@@A ; gObj
  00047	69 c0 50 2b 00
	00		 imul	 eax, 11088		; 00002b50H
  0004d	03 c6		 add	 eax, esi

; 773  : 	LPOBJ lpTarget = &gObj[aTargetIndex];	
; 774  : 
; 775  : 	if(lpUser->Connected < PLAYER_PLAYING || lpTarget->Connected < PLAYER_PLAYING)

  0004f	83 78 04 03	 cmp	 DWORD PTR [eax+4], 3
  00053	7c 42		 jl	 SHORT $LN6@ChangePkLe
  00055	69 d2 50 2b 00
	00		 imul	 edx, 11088		; 00002b50H
  0005b	83 7c 32 04 03	 cmp	 DWORD PTR [edx+esi+4], 3
  00060	7c 35		 jl	 SHORT $LN6@ChangePkLe

; 776  : 	{
; 777  : 		return true;
; 778  : 	}
; 779  : 
; 780  : 	if(lpUser->MapNumber != this->m_EventMapNumber)

  00062	0f b6 90 49 01
	00 00		 movzx	 edx, BYTE PTR [eax+329]
  00069	3b 57 78	 cmp	 edx, DWORD PTR [edi+120]

; 781  : 	{
; 782  : 		return true;

  0006c	75 29		 jne	 SHORT $LN6@ChangePkLe

; 783  : 	}
; 784  : 
; 785  : 	if(this->CheckStatus(eEVENTDUNGEON_CLOSE) || this->CheckStatus(eEVENTDUNGEON_WAIT) || this->CheckStatus(eEVENTDUNGEON_WAIT_STAGE2))

  0006e	6a 00		 push	 0
  00070	8b cf		 mov	 ecx, edi
  00072	e8 00 00 00 00	 call	 ?CheckStatus@CDungeonSiege@@QAE_NH@Z ; CDungeonSiege::CheckStatus
  00077	84 c0		 test	 al, al
  00079	75 1c		 jne	 SHORT $LN6@ChangePkLe
  0007b	6a 01		 push	 1
  0007d	e8 00 00 00 00	 call	 ?CheckStatus@CDungeonSiege@@QAE_NH@Z ; CDungeonSiege::CheckStatus
  00082	84 c0		 test	 al, al
  00084	75 11		 jne	 SHORT $LN6@ChangePkLe
  00086	6a 03		 push	 3
  00088	e8 00 00 00 00	 call	 ?CheckStatus@CDungeonSiege@@QAE_NH@Z ; CDungeonSiege::CheckStatus
  0008d	84 c0		 test	 al, al
  0008f	75 06		 jne	 SHORT $LN6@ChangePkLe
  00091	5e		 pop	 esi
  00092	5f		 pop	 edi

; 786  : 	{
; 787  : 		return true;
; 788  : 	}
; 789  : 
; 790  : 	return false;
; 791  : }

  00093	5d		 pop	 ebp
  00094	c2 08 00	 ret	 8
$LN6@ChangePkLe:
  00097	5e		 pop	 esi

; 768  : 	{
; 769  : 		return true;

  00098	b0 01		 mov	 al, 1
  0009a	5f		 pop	 edi

; 786  : 	{
; 787  : 		return true;
; 788  : 	}
; 789  : 
; 790  : 	return false;
; 791  : }

  0009b	5d		 pop	 ebp
  0009c	c2 08 00	 ret	 8
?ChangePkLevel@CDungeonSiege@@QAE_NHH@Z ENDP		; CDungeonSiege::ChangePkLevel
_TEXT	ENDS
PUBLIC	?PlayerGuildRegCheck@CDungeonSiege@@QAE_NH@Z	; CDungeonSiege::PlayerGuildRegCheck
; Function compile flags: /Ogtp
;	COMDAT ?PlayerGuildRegCheck@CDungeonSiege@@QAE_NH@Z
_TEXT	SEGMENT
$T213425 = 8						; size = 4
_aIndex$ = 8						; size = 4
?PlayerGuildRegCheck@CDungeonSiege@@QAE_NH@Z PROC	; CDungeonSiege::PlayerGuildRegCheck, COMDAT
; _this$ = ecx

; 968  : {

  00000	55		 push	 ebp
  00001	8b ec		 mov	 ebp, esp

; 969  : 	if(!OBJMAX_RANGE(aIndex))

  00003	8b 45 08	 mov	 eax, DWORD PTR _aIndex$[ebp]
  00006	85 c0		 test	 eax, eax
  00008	78 0e		 js	 SHORT $LN16@PlayerGuil
  0000a	33 d2		 xor	 edx, edx
  0000c	3d 97 3a 00 00	 cmp	 eax, 14999		; 00003a97H
  00011	0f 9e c2	 setle	 dl
  00014	85 d2		 test	 edx, edx
  00016	75 06		 jne	 SHORT $LN8@PlayerGuil
$LN16@PlayerGuil:

; 970  : 	{
; 971  : 		return false;

  00018	32 c0		 xor	 al, al

; 998  : }

  0001a	5d		 pop	 ebp
  0001b	c2 04 00	 ret	 4
$LN8@PlayerGuil:

; 972  : 	}
; 973  : 
; 974  : 	LPOBJ lpUser = &gObj[aIndex];

  0001e	69 c0 50 2b 00
	00		 imul	 eax, 11088		; 00002b50H
  00024	03 05 00 00 00
	00		 add	 eax, DWORD PTR ?gObj@@3PAUOBJECTSTRUCT@@A ; gObj

; 975  : 
; 976  : 	if(lpUser->Connected < PLAYER_PLAYING)

  0002a	83 78 04 03	 cmp	 DWORD PTR [eax+4], 3

; 977  : 	{
; 978  : 		return false;

  0002e	7c e8		 jl	 SHORT $LN16@PlayerGuil

; 979  : 	}
; 980  : 
; 981  : 	if(lpUser->GuildNumber < 1)

  00030	83 b8 34 04 00
	00 01		 cmp	 DWORD PTR [eax+1076], 1

; 982  : 	{
; 983  : 		return false;

  00037	7c df		 jl	 SHORT $LN16@PlayerGuil

; 984  : 	}
; 985  : 
; 986  : 	for(int i = 0; i < this->iRegCount; i++)

  00039	8b 51 20	 mov	 edx, DWORD PTR [ecx+32]
  0003c	53		 push	 ebx
  0003d	56		 push	 esi
  0003e	57		 push	 edi
  0003f	33 ff		 xor	 edi, edi
  00041	89 55 08	 mov	 DWORD PTR $T213425[ebp], edx
  00044	85 d2		 test	 edx, edx
  00046	7e 4c		 jle	 SHORT $LN3@PlayerGuil
  00048	8d 98 3c 04 00
	00		 lea	 ebx, DWORD PTR [eax+1084]
  0004e	8d b1 16 01 00
	00		 lea	 esi, DWORD PTR [ecx+278]
$LL5@PlayerGuil:

; 987  : 	{
; 988  : 		if(lpUser->GuildName[0] == this->reg_list[i].szGuildName[0])

  00054	8a 03		 mov	 al, BYTE PTR [ebx]
  00056	3a 06		 cmp	 al, BYTE PTR [esi]
  00058	75 32		 jne	 SHORT $LN4@PlayerGuil

; 989  : 		{
; 990  : 			if(!strcmp(lpUser->GuildName, this->reg_list[i].szGuildName))

  0005a	8b ce		 mov	 ecx, esi
  0005c	8b c3		 mov	 eax, ebx
  0005e	8b ff		 npad	 2
$LL17@PlayerGuil:
  00060	8a 10		 mov	 dl, BYTE PTR [eax]
  00062	3a 11		 cmp	 dl, BYTE PTR [ecx]
  00064	75 1a		 jne	 SHORT $LN18@PlayerGuil
  00066	84 d2		 test	 dl, dl
  00068	74 12		 je	 SHORT $LN19@PlayerGuil
  0006a	8a 50 01	 mov	 dl, BYTE PTR [eax+1]
  0006d	3a 51 01	 cmp	 dl, BYTE PTR [ecx+1]
  00070	75 0e		 jne	 SHORT $LN18@PlayerGuil
  00072	83 c0 02	 add	 eax, 2
  00075	83 c1 02	 add	 ecx, 2
  00078	84 d2		 test	 dl, dl
  0007a	75 e4		 jne	 SHORT $LL17@PlayerGuil
$LN19@PlayerGuil:
  0007c	33 c0		 xor	 eax, eax
  0007e	eb 05		 jmp	 SHORT $LN20@PlayerGuil
$LN18@PlayerGuil:
  00080	1b c0		 sbb	 eax, eax
  00082	83 d8 ff	 sbb	 eax, -1
$LN20@PlayerGuil:
  00085	85 c0		 test	 eax, eax
  00087	74 14		 je	 SHORT $LN14@PlayerGuil
  00089	8b 55 08	 mov	 edx, DWORD PTR $T213425[ebp]
$LN4@PlayerGuil:

; 984  : 	}
; 985  : 
; 986  : 	for(int i = 0; i < this->iRegCount; i++)

  0008c	47		 inc	 edi
  0008d	83 c6 09	 add	 esi, 9
  00090	3b fa		 cmp	 edi, edx
  00092	7c c0		 jl	 SHORT $LL5@PlayerGuil
$LN3@PlayerGuil:
  00094	5f		 pop	 edi
  00095	5e		 pop	 esi

; 993  : 			}
; 994  : 		}
; 995  : 	}
; 996  : 
; 997  : 	return false;

  00096	32 c0		 xor	 al, al
  00098	5b		 pop	 ebx

; 998  : }

  00099	5d		 pop	 ebp
  0009a	c2 04 00	 ret	 4
$LN14@PlayerGuil:
  0009d	5f		 pop	 edi
  0009e	5e		 pop	 esi

; 991  : 			{
; 992  : 				return true;

  0009f	b0 01		 mov	 al, 1
  000a1	5b		 pop	 ebx

; 998  : }

  000a2	5d		 pop	 ebp
  000a3	c2 04 00	 ret	 4
?PlayerGuildRegCheck@CDungeonSiege@@QAE_NH@Z ENDP	; CDungeonSiege::PlayerGuildRegCheck
_TEXT	ENDS
PUBLIC	?MapKick@CDungeonSiege@@QAEXH@Z			; CDungeonSiege::MapKick
EXTRN	?gObjTeleport@@YAXHHHH@Z:PROC			; gObjTeleport
; Function compile flags: /Ogtp
;	COMDAT ?MapKick@CDungeonSiege@@QAEXH@Z
_TEXT	SEGMENT
_aIndex$ = 8						; size = 4
?MapKick@CDungeonSiege@@QAEXH@Z PROC			; CDungeonSiege::MapKick, COMDAT
; _this$ = ecx

; 1001 : {

  00000	55		 push	 ebp
  00001	8b ec		 mov	 ebp, esp

; 1002 : 	gObjTeleport(aIndex, this->m_EventPlayerDieMap, this->m_EventPlayerDieX, this->m_EventPlayerDieY);

  00003	8b 81 a4 00 00
	00		 mov	 eax, DWORD PTR [ecx+164]
  00009	8b 91 a0 00 00
	00		 mov	 edx, DWORD PTR [ecx+160]
  0000f	50		 push	 eax
  00010	8b 81 9c 00 00
	00		 mov	 eax, DWORD PTR [ecx+156]
  00016	8b 4d 08	 mov	 ecx, DWORD PTR _aIndex$[ebp]
  00019	52		 push	 edx
  0001a	50		 push	 eax
  0001b	51		 push	 ecx
  0001c	e8 00 00 00 00	 call	 ?gObjTeleport@@YAXHHHH@Z ; gObjTeleport
  00021	83 c4 10	 add	 esp, 16			; 00000010H

; 1003 : }

  00024	5d		 pop	 ebp
  00025	c2 04 00	 ret	 4
?MapKick@CDungeonSiege@@QAEXH@Z ENDP			; CDungeonSiege::MapKick
_TEXT	ENDS
PUBLIC	__$ArrayPad$
PUBLIC	?GCMapAttribute@CDungeonSiege@@QAEXHH@Z		; CDungeonSiege::GCMapAttribute
; Function compile flags: /Ogtp
;	COMDAT ?GCMapAttribute@CDungeonSiege@@QAEXHH@Z
_TEXT	SEGMENT
_pMsg$ = -272						; size = 7
_pBodyMsg$ = -264					; size = 2
_btPacket$ = -260					; size = 256
__$ArrayPad$ = -4					; size = 4
_aIndex$ = 8						; size = 4
_maptype$ = 12						; size = 4
?GCMapAttribute@CDungeonSiege@@QAEXHH@Z PROC		; CDungeonSiege::GCMapAttribute, COMDAT
; _this$ = ecx

; 1006 : {

  00000	55		 push	 ebp
  00001	8b ec		 mov	 ebp, esp
  00003	81 ec 10 01 00
	00		 sub	 esp, 272		; 00000110H
  00009	a1 00 00 00 00	 mov	 eax, DWORD PTR ___security_cookie
  0000e	33 c5		 xor	 eax, ebp
  00010	89 45 fc	 mov	 DWORD PTR __$ArrayPad$[ebp], eax

; 1007 : 	if(!OBJMAX_RANGE(aIndex))

  00013	8b 4d 08	 mov	 ecx, DWORD PTR _aIndex$[ebp]
  00016	33 d2		 xor	 edx, edx
  00018	3b ca		 cmp	 ecx, edx
  0001a	0f 8c 93 00 00
	00		 jl	 $LN2@GCMapAttri
  00020	33 c0		 xor	 eax, eax
  00022	81 f9 97 3a 00
	00		 cmp	 ecx, 14999		; 00003a97H
  00028	0f 9e c0	 setle	 al
  0002b	3b c2		 cmp	 eax, edx
  0002d	0f 84 80 00 00
	00		 je	 $LN2@GCMapAttri

; 1008 : 	{
; 1009 : 		return;
; 1010 : 	}
; 1011 : 
; 1012 : 	int iSizePacket = 0;
; 1013 : 	unsigned char btPacket[256];
; 1014 : 	
; 1015 : 	PMSG_SETMAPATTR_COUNT pMsg;
; 1016 : 	PMSG_SETMAPATTR pBodyMsg;
; 1017 : 
; 1018 : 	iSizePacket += sizeof(pMsg);
; 1019 : 
; 1020 : 	pMsg.btType = 0;
; 1021 : 	pMsg.btMapAttr = 1;
; 1022 : 	pMsg.btMapSetType = maptype;
; 1023 : 	pMsg.btCount = 1;
; 1024 : 
; 1025 : 	pBodyMsg.btX = 0;

  00033	66 89 95 f8 fe
	ff ff		 mov	 WORD PTR _pBodyMsg$[ebp], dx

; 1026 : 	pBodyMsg.btY = 0;
; 1027 : 	memcpy(&btPacket[iSizePacket], &pBodyMsg, sizeof(pBodyMsg));

  0003a	0f b7 d2	 movzx	 edx, dx
  0003d	66 89 95 03 ff
	ff ff		 mov	 WORD PTR _btPacket$[ebp+7], dx

; 1028 : 	iSizePacket += sizeof(pBodyMsg);
; 1029 : 	pBodyMsg.btX   = 255;

  00044	66 c7 85 f8 fe
	ff ff ff ff	 mov	 WORD PTR _pBodyMsg$[ebp], 65535 ; 0000ffffH

; 1030 : 	pBodyMsg.btY   = 255;
; 1031 : 	memcpy(&btPacket[iSizePacket], &pBodyMsg, sizeof(pBodyMsg));

  0004d	0f b7 95 f8 fe
	ff ff		 movzx	 edx, WORD PTR _pBodyMsg$[ebp]
  00054	53		 push	 ebx
  00055	8a 5d 0c	 mov	 bl, BYTE PTR _maptype$[ebp]
  00058	66 89 95 05 ff
	ff ff		 mov	 WORD PTR _btPacket$[ebp+9], dx
  0005f	b0 01		 mov	 al, 1
  00061	66 c7 85 f3 fe
	ff ff 00 01	 mov	 WORD PTR _pMsg$[ebp+3], 256 ; 00000100H

; 1032 : 	iSizePacket += sizeof(pBodyMsg);
; 1033 : 
; 1034 : 	pMsg.h.c = 0xC1;

  0006a	66 c7 85 f0 fe
	ff ff c1 0b	 mov	 WORD PTR _pMsg$[ebp], 3009 ; 00000bc1H

; 1035 : 	pMsg.h.size = iSizePacket;
; 1036 : 	pMsg.h.headcode = 0x46;

  00073	c6 85 f2 fe ff
	ff 46		 mov	 BYTE PTR _pMsg$[ebp+2], 70 ; 00000046H

; 1037 : 	memcpy(&btPacket, &pMsg, sizeof(pMsg));

  0007a	8b 95 f0 fe ff
	ff		 mov	 edx, DWORD PTR _pMsg$[ebp]
  00080	88 85 02 ff ff
	ff		 mov	 BYTE PTR _btPacket$[ebp+6], al
  00086	89 95 fc fe ff
	ff		 mov	 DWORD PTR _btPacket$[ebp], edx

; 1038 : 	
; 1039 : 	DataSend(aIndex, (LPBYTE)&btPacket, iSizePacket);

  0008c	6a 0b		 push	 11			; 0000000bH
  0008e	8d 85 fc fe ff
	ff		 lea	 eax, DWORD PTR _btPacket$[ebp]
  00094	88 9d f5 fe ff
	ff		 mov	 BYTE PTR _pMsg$[ebp+5], bl
  0009a	0f b7 95 f4 fe
	ff ff		 movzx	 edx, WORD PTR _pMsg$[ebp+4]
  000a1	50		 push	 eax
  000a2	51		 push	 ecx
  000a3	66 89 95 00 ff
	ff ff		 mov	 WORD PTR _btPacket$[ebp+4], dx
  000aa	e8 00 00 00 00	 call	 ?DataSend@@YAHHPAEK@Z	; DataSend
  000af	83 c4 0c	 add	 esp, 12			; 0000000cH
  000b2	5b		 pop	 ebx
$LN2@GCMapAttri:

; 1040 : }

  000b3	8b 4d fc	 mov	 ecx, DWORD PTR __$ArrayPad$[ebp]
  000b6	33 cd		 xor	 ecx, ebp
  000b8	e8 00 00 00 00	 call	 @__security_check_cookie@4
  000bd	8b e5		 mov	 esp, ebp
  000bf	5d		 pop	 ebp
  000c0	c2 08 00	 ret	 8
?GCMapAttribute@CDungeonSiege@@QAEXHH@Z ENDP		; CDungeonSiege::GCMapAttribute
_TEXT	ENDS
PUBLIC	??_C@_0CO@OFDODKNE@?$FL?$CFs?$FN?5?$CFs?5are?5new?5owners?5of?5the?5Du@ ; `string'
PUBLIC	??_C@_00CNPNBAHC@?$AA@				; `string'
PUBLIC	_this$GSCopy$
PUBLIC	__$ArrayPad$
PUBLIC	?TeleportInFinal@CDungeonSiege@@QAE_NXZ		; CDungeonSiege::TeleportInFinal
EXTRN	?SearchGuild_Number@CGuildClass@@QAEPAU_GUILD_INFO_STRUCT@@H@Z:PROC ; CGuildClass::SearchGuild_Number
EXTRN	?SearchGuild@CGuildClass@@QAEPAU_GUILD_INFO_STRUCT@@PAD@Z:PROC ; CGuildClass::SearchGuild
EXTRN	?Guild@@3VCGuildClass@@A:BYTE			; Guild
;	COMDAT ??_C@_0CO@OFDODKNE@?$FL?$CFs?$FN?5?$CFs?5are?5new?5owners?5of?5the?5Du@
CONST	SEGMENT
??_C@_0CO@OFDODKNE@?$FL?$CFs?$FN?5?$CFs?5are?5new?5owners?5of?5the?5Du@ DB '['
	DB	'%s] %s are new owners of the Dungeon Dungeon', 00H ; `string'
CONST	ENDS
;	COMDAT ??_C@_00CNPNBAHC@?$AA@
CONST	SEGMENT
??_C@_00CNPNBAHC@?$AA@ DB 00H				; `string'
; Function compile flags: /Ogtp
CONST	ENDS
;	COMDAT ?TeleportInFinal@CDungeonSiege@@QAE_NXZ
_TEXT	SEGMENT
_iGuildRegID2$ = -300					; size = 4
_iMaxScoreGuild2$ = -296				; size = 4
_iSiegeGuild2$ = -292					; size = 4
_iSiegeGuild1$ = -288					; size = 4
_aIndex1$ = -284					; size = 4
_aIndex2$ = -280					; size = 4
_this$GSCopy$ = -276					; size = 4
_iGuildRegID1$ = -272					; size = 4
_iMaxScorePlayer1$ = -268				; size = 4
_iMaxScorePlayer2$ = -264				; size = 4
_szTemp$212805 = -260					; size = 256
__$ArrayPad$ = -4					; size = 4
?TeleportInFinal@CDungeonSiege@@QAE_NXZ PROC		; CDungeonSiege::TeleportInFinal, COMDAT
; _this$ = ecx

; 1122 : {

  00000	55		 push	 ebp
  00001	8b ec		 mov	 ebp, esp
  00003	81 ec 2c 01 00
	00		 sub	 esp, 300		; 0000012cH
  00009	a1 00 00 00 00	 mov	 eax, DWORD PTR ___security_cookie
  0000e	33 c5		 xor	 eax, ebp
  00010	89 45 fc	 mov	 DWORD PTR __$ArrayPad$[ebp], eax
  00013	53		 push	 ebx

; 1123 : 	int iMaxScoreGuild1 = 0;
; 1124 : 	int iMaxScoreGuild2 = 0;
; 1125 : 	int iMaxScorePlayer1 = 0;
; 1126 : 	int iMaxScorePlayer2 = 0;
; 1127 : 	int iGuildRegID1 = -1;

  00014	83 c8 ff	 or	 eax, -1
  00017	56		 push	 esi
  00018	33 f6		 xor	 esi, esi
  0001a	57		 push	 edi
  0001b	33 ff		 xor	 edi, edi
  0001d	89 8d ec fe ff
	ff		 mov	 DWORD PTR _this$GSCopy$[ebp], ecx
  00023	89 b5 d8 fe ff
	ff		 mov	 DWORD PTR _iMaxScoreGuild2$[ebp], esi
  00029	89 b5 f4 fe ff
	ff		 mov	 DWORD PTR _iMaxScorePlayer1$[ebp], esi
  0002f	89 b5 f8 fe ff
	ff		 mov	 DWORD PTR _iMaxScorePlayer2$[ebp], esi
  00035	89 85 f0 fe ff
	ff		 mov	 DWORD PTR _iGuildRegID1$[ebp], eax

; 1128 : 	int iGuildRegID2 = -1;

  0003b	89 85 d4 fe ff
	ff		 mov	 DWORD PTR _iGuildRegID2$[ebp], eax

; 1129 : 	int aIndex1 = -1;

  00041	89 85 e4 fe ff
	ff		 mov	 DWORD PTR _aIndex1$[ebp], eax

; 1130 : 	int aIndex2 = -1;

  00047	89 85 e8 fe ff
	ff		 mov	 DWORD PTR _aIndex2$[ebp], eax

; 1131 : 	int iSiegeGuild1 = -1;

  0004d	89 85 e0 fe ff
	ff		 mov	 DWORD PTR _iSiegeGuild1$[ebp], eax

; 1132 : 	int iSiegeGuild2 = -1;

  00053	89 85 dc fe ff
	ff		 mov	 DWORD PTR _iSiegeGuild2$[ebp], eax

; 1133 : 
; 1134 : 	for(int i = 0; i < this->iRegCount; i++)

  00059	39 71 20	 cmp	 DWORD PTR [ecx+32], esi
  0005c	7e 47		 jle	 SHORT $LN44@TeleportIn

; 1135 : 	{
; 1136 : 		_GUILD_INFO_STRUCT* lpGuild1 = Guild.SearchGuild(this->reg_list[i].szGuildName);

  0005e	8d 99 16 01 00
	00		 lea	 ebx, DWORD PTR [ecx+278]
$LL26@TeleportIn:
  00064	53		 push	 ebx
  00065	b9 00 00 00 00	 mov	 ecx, OFFSET ?Guild@@3VCGuildClass@@A ; Guild
  0006a	e8 00 00 00 00	 call	 ?SearchGuild@CGuildClass@@QAEPAU_GUILD_INFO_STRUCT@@PAD@Z ; CGuildClass::SearchGuild

; 1137 : 
; 1138 : 		if(!lpGuild1)

  0006f	85 c0		 test	 eax, eax
  00071	74 1a		 je	 SHORT $LN25@TeleportIn

; 1139 : 		{
; 1140 : 			continue;
; 1141 : 		}
; 1142 : 
; 1143 : 		if(lpGuild1->DungeonSiege.iScore > iMaxScoreGuild1)

  00073	8b 88 48 07 00
	00		 mov	 ecx, DWORD PTR [eax+1864]
  00079	3b cf		 cmp	 ecx, edi
  0007b	7e 10		 jle	 SHORT $LN25@TeleportIn

; 1144 : 		{
; 1145 : 			iMaxScoreGuild1 = lpGuild1->DungeonSiege.iScore;
; 1146 : 			iGuildRegID1 = lpGuild1->Number;

  0007d	8b 00		 mov	 eax, DWORD PTR [eax]
  0007f	8b f9		 mov	 edi, ecx
  00081	89 85 f0 fe ff
	ff		 mov	 DWORD PTR _iGuildRegID1$[ebp], eax

; 1147 : 			iSiegeGuild1 = i;

  00087	89 b5 e0 fe ff
	ff		 mov	 DWORD PTR _iSiegeGuild1$[ebp], esi
$LN25@TeleportIn:

; 1133 : 
; 1134 : 	for(int i = 0; i < this->iRegCount; i++)

  0008d	8b 8d ec fe ff
	ff		 mov	 ecx, DWORD PTR _this$GSCopy$[ebp]
  00093	46		 inc	 esi
  00094	83 c3 09	 add	 ebx, 9
  00097	3b 71 20	 cmp	 esi, DWORD PTR [ecx+32]
  0009a	7c c8		 jl	 SHORT $LL26@TeleportIn

; 1148 : 		}
; 1149 : 	}
; 1150 : 
; 1151 : 	if(iGuildRegID1 == -1)

  0009c	83 bd f0 fe ff
	ff ff		 cmp	 DWORD PTR _iGuildRegID1$[ebp], -1
  000a3	75 28		 jne	 SHORT $LN21@TeleportIn
$LN44@TeleportIn:

; 1152 : 	{
; 1153 : 		this->bCaptured = false;

  000a5	c6 41 14 00	 mov	 BYTE PTR [ecx+20], 0

; 1154 : 		memcpy(this->szLordGuild, "", sizeof(this->szLordGuild)-1);

  000a9	8b 15 00 00 00
	00		 mov	 edx, DWORD PTR ??_C@_00CNPNBAHC@?$AA@
  000af	5f		 pop	 edi
  000b0	89 51 15	 mov	 DWORD PTR [ecx+21], edx
  000b3	a1 04 00 00 00	 mov	 eax, DWORD PTR ??_C@_00CNPNBAHC@?$AA@+4
  000b8	5e		 pop	 esi
  000b9	89 41 19	 mov	 DWORD PTR [ecx+25], eax

; 1155 : 		return false;

  000bc	32 c0		 xor	 al, al
  000be	5b		 pop	 ebx

; 1252 : 
; 1253 : 	return true;
; 1254 : }

  000bf	8b 4d fc	 mov	 ecx, DWORD PTR __$ArrayPad$[ebp]
  000c2	33 cd		 xor	 ecx, ebp
  000c4	e8 00 00 00 00	 call	 @__security_check_cookie@4
  000c9	8b e5		 mov	 esp, ebp
  000cb	5d		 pop	 ebp
  000cc	c3		 ret	 0
$LN21@TeleportIn:

; 1156 : 	}
; 1157 : 
; 1158 : 	for(int i = 0; i < this->iRegCount; i++)

  000cd	33 f6		 xor	 esi, esi
  000cf	8b d9		 mov	 ebx, ecx
  000d1	39 73 20	 cmp	 DWORD PTR [ebx+32], esi
  000d4	7e 5d		 jle	 SHORT $LN45@TeleportIn
  000d6	8d bb 16 01 00
	00		 lea	 edi, DWORD PTR [ebx+278]
  000dc	8d 64 24 00	 npad	 4
$LL20@TeleportIn:

; 1159 : 	{
; 1160 : 		_GUILD_INFO_STRUCT* lpGuild2 = Guild.SearchGuild(this->reg_list[i].szGuildName);

  000e0	57		 push	 edi
  000e1	b9 00 00 00 00	 mov	 ecx, OFFSET ?Guild@@3VCGuildClass@@A ; Guild
  000e6	e8 00 00 00 00	 call	 ?SearchGuild@CGuildClass@@QAEPAU_GUILD_INFO_STRUCT@@PAD@Z ; CGuildClass::SearchGuild

; 1161 : 
; 1162 : 		if(!lpGuild2)

  000eb	85 c0		 test	 eax, eax
  000ed	74 2a		 je	 SHORT $LN19@TeleportIn

; 1163 : 		{
; 1164 : 			continue;
; 1165 : 		}
; 1166 : 
; 1167 : 		if(iGuildRegID1 == lpGuild2->Number)

  000ef	8b 08		 mov	 ecx, DWORD PTR [eax]
  000f1	39 8d f0 fe ff
	ff		 cmp	 DWORD PTR _iGuildRegID1$[ebp], ecx
  000f7	74 20		 je	 SHORT $LN19@TeleportIn

; 1168 : 		{
; 1169 : 			continue;
; 1170 : 		}
; 1171 : 
; 1172 : 		if(lpGuild2->DungeonSiege.iScore > iMaxScoreGuild2)

  000f9	8b 80 48 07 00
	00		 mov	 eax, DWORD PTR [eax+1864]
  000ff	3b 85 d8 fe ff
	ff		 cmp	 eax, DWORD PTR _iMaxScoreGuild2$[ebp]
  00105	7e 12		 jle	 SHORT $LN19@TeleportIn

; 1173 : 		{
; 1174 : 			iMaxScoreGuild2 = lpGuild2->DungeonSiege.iScore;

  00107	89 85 d8 fe ff
	ff		 mov	 DWORD PTR _iMaxScoreGuild2$[ebp], eax

; 1175 : 			iGuildRegID2 = lpGuild2->Number;

  0010d	89 8d d4 fe ff
	ff		 mov	 DWORD PTR _iGuildRegID2$[ebp], ecx

; 1176 : 			iSiegeGuild2 = i;

  00113	89 b5 dc fe ff
	ff		 mov	 DWORD PTR _iSiegeGuild2$[ebp], esi
$LN19@TeleportIn:

; 1156 : 	}
; 1157 : 
; 1158 : 	for(int i = 0; i < this->iRegCount; i++)

  00119	46		 inc	 esi
  0011a	83 c7 09	 add	 edi, 9
  0011d	3b 73 20	 cmp	 esi, DWORD PTR [ebx+32]
  00120	7c be		 jl	 SHORT $LL20@TeleportIn

; 1177 : 		}
; 1178 : 	}
; 1179 : 
; 1180 : 	if(iGuildRegID2 == -1)

  00122	8b 9d d4 fe ff
	ff		 mov	 ebx, DWORD PTR _iGuildRegID2$[ebp]
  00128	83 fb ff	 cmp	 ebx, -1
  0012b	75 68		 jne	 SHORT $LN14@TeleportIn
  0012d	8b 9d ec fe ff
	ff		 mov	 ebx, DWORD PTR _this$GSCopy$[ebp]
$LN45@TeleportIn:

; 1181 : 	{
; 1182 : 		_GUILD_INFO_STRUCT* lpWinGuild = Guild.SearchGuild_Number(iGuildRegID1);

  00133	8b 8d f0 fe ff
	ff		 mov	 ecx, DWORD PTR _iGuildRegID1$[ebp]
  00139	51		 push	 ecx
  0013a	b9 00 00 00 00	 mov	 ecx, OFFSET ?Guild@@3VCGuildClass@@A ; Guild
  0013f	e8 00 00 00 00	 call	 ?SearchGuild_Number@CGuildClass@@QAEPAU_GUILD_INFO_STRUCT@@H@Z ; CGuildClass::SearchGuild_Number

; 1183 : 
; 1184 : 		if(lpWinGuild)

  00144	85 c0		 test	 eax, eax
  00146	74 3a		 je	 SHORT $LN13@TeleportIn

; 1185 : 		{
; 1186 : 			this->bCaptured = true;

  00148	c6 43 14 01	 mov	 BYTE PTR [ebx+20], 1

; 1187 : 			memcpy(this->szLordGuild, lpWinGuild->Name, sizeof(this->szLordGuild)-1);

  0014c	8b 50 04	 mov	 edx, DWORD PTR [eax+4]
  0014f	8d 4b 15	 lea	 ecx, DWORD PTR [ebx+21]

; 1188 : 
; 1189 : 			char szTemp[256];
; 1190 : 			sprintf(szTemp, "[%s] %s are new owners of the Dungeon Dungeon", this->m_EventName, this->szLordGuild);

  00152	51		 push	 ecx
  00153	89 11		 mov	 DWORD PTR [ecx], edx
  00155	8b 40 08	 mov	 eax, DWORD PTR [eax+8]
  00158	81 c3 e4 00 00
	00		 add	 ebx, 228		; 000000e4H
  0015e	53		 push	 ebx
  0015f	89 41 04	 mov	 DWORD PTR [ecx+4], eax
  00162	8d 8d fc fe ff
	ff		 lea	 ecx, DWORD PTR _szTemp$212805[ebp]
  00168	68 00 00 00 00	 push	 OFFSET ??_C@_0CO@OFDODKNE@?$FL?$CFs?$FN?5?$CFs?5are?5new?5owners?5of?5the?5Du@
  0016d	51		 push	 ecx
  0016e	e8 00 00 00 00	 call	 _sprintf

; 1191 : 			AllSendServerMsg(szTemp);

  00173	8d 95 fc fe ff
	ff		 lea	 edx, DWORD PTR _szTemp$212805[ebp]
  00179	52		 push	 edx
  0017a	e8 00 00 00 00	 call	 ?AllSendServerMsg@@YAXPAD@Z ; AllSendServerMsg
  0017f	83 c4 14	 add	 esp, 20			; 00000014H
$LN13@TeleportIn:

; 1192 : 		}
; 1193 : 
; 1194 : 		return false;

  00182	5f		 pop	 edi
  00183	5e		 pop	 esi
  00184	32 c0		 xor	 al, al
  00186	5b		 pop	 ebx

; 1252 : 
; 1253 : 	return true;
; 1254 : }

  00187	8b 4d fc	 mov	 ecx, DWORD PTR __$ArrayPad$[ebp]
  0018a	33 cd		 xor	 ecx, ebp
  0018c	e8 00 00 00 00	 call	 @__security_check_cookie@4
  00191	8b e5		 mov	 esp, ebp
  00193	5d		 pop	 ebp
  00194	c3		 ret	 0
$LN14@TeleportIn:

; 1195 : 	}
; 1196 : 
; 1197 : 	for(int n = OBJ_STARTUSERINDZT; n < OBJMAX; n++)

  00195	a1 00 00 00 00	 mov	 eax, DWORD PTR ?gObj@@3PAUOBJECTSTRUCT@@A ; gObj
  0019a	ba b2 36 00 00	 mov	 edx, 14002		; 000036b2H
  0019f	05 84 d6 40 09	 add	 eax, 155244164		; 0940d684H
  001a4	eb 0a 8d a4 24
	00 00 00 00 8d
	49 00		 npad	 12
$LL12@TeleportIn:

; 1198 : 	{
; 1199 : 		LPOBJ sObj = &gObj[n];
; 1200 : 
; 1201 : 		if(sObj->Connected < PLAYER_PLAYING || sObj->Type != OBJ_USER)

  001b0	83 b8 80 d0 ff
	ff 03		 cmp	 DWORD PTR [eax-12160], 3
  001b7	bf 01 00 00 00	 mov	 edi, 1
  001bc	7c 59		 jl	 SHORT $LN11@TeleportIn
  001be	66 39 b8 e4 d0
	ff ff		 cmp	 WORD PTR [eax-12060], di
  001c5	75 50		 jne	 SHORT $LN11@TeleportIn

; 1202 : 		{
; 1203 : 			continue;
; 1204 : 		}
; 1205 : 
; 1206 : 		if(sObj->GuildNumber < 1)

  001c7	8b b0 b0 d4 ff
	ff		 mov	 esi, DWORD PTR [eax-11088]
  001cd	3b f7		 cmp	 esi, edi
  001cf	7c 46		 jl	 SHORT $LN11@TeleportIn

; 1207 : 		{
; 1208 : 			continue;
; 1209 : 		}
; 1210 : 
; 1211 : 		if(iGuildRegID1 == sObj->GuildNumber)

  001d1	39 b5 f0 fe ff
	ff		 cmp	 DWORD PTR _iGuildRegID1$[ebp], esi
  001d7	75 1d		 jne	 SHORT $LN47@TeleportIn

; 1212 : 		{
; 1213 : 			if(sObj->DSiege.iScore > iMaxScorePlayer1)

  001d9	8b 88 80 f9 ff
	ff		 mov	 ecx, DWORD PTR [eax-1664]
  001df	3b 8d f4 fe ff
	ff		 cmp	 ecx, DWORD PTR _iMaxScorePlayer1$[ebp]
  001e5	7e 0f		 jle	 SHORT $LN47@TeleportIn

; 1214 : 			{
; 1215 : 				iMaxScorePlayer1 = sObj->DSiege.iScore;

  001e7	89 8d f4 fe ff
	ff		 mov	 DWORD PTR _iMaxScorePlayer1$[ebp], ecx

; 1216 : 				aIndex1 = n;

  001ed	8d 4a fe	 lea	 ecx, DWORD PTR [edx-2]
  001f0	89 8d e4 fe ff
	ff		 mov	 DWORD PTR _aIndex1$[ebp], ecx
$LN47@TeleportIn:

; 1217 : 			}
; 1218 : 		}
; 1219 : 
; 1220 : 		if(iGuildRegID2 == sObj->GuildNumber)

  001f6	3b de		 cmp	 ebx, esi
  001f8	75 1d		 jne	 SHORT $LN11@TeleportIn

; 1221 : 		{
; 1222 : 			if(sObj->DSiege.iScore > iMaxScorePlayer2)

  001fa	8b 88 80 f9 ff
	ff		 mov	 ecx, DWORD PTR [eax-1664]
  00200	3b 8d f8 fe ff
	ff		 cmp	 ecx, DWORD PTR _iMaxScorePlayer2$[ebp]
  00206	7e 0f		 jle	 SHORT $LN11@TeleportIn

; 1223 : 			{
; 1224 : 				iMaxScorePlayer2 = sObj->DSiege.iScore;

  00208	89 8d f8 fe ff
	ff		 mov	 DWORD PTR _iMaxScorePlayer2$[ebp], ecx

; 1225 : 				aIndex2 = n;

  0020e	8d 4a fe	 lea	 ecx, DWORD PTR [edx-2]
  00211	89 8d e8 fe ff
	ff		 mov	 DWORD PTR _aIndex2$[ebp], ecx
$LN11@TeleportIn:

; 1198 : 	{
; 1199 : 		LPOBJ sObj = &gObj[n];
; 1200 : 
; 1201 : 		if(sObj->Connected < PLAYER_PLAYING || sObj->Type != OBJ_USER)

  00217	83 b8 d0 fb ff
	ff 03		 cmp	 DWORD PTR [eax-1072], 3
  0021e	7c 55		 jl	 SHORT $LN57@TeleportIn
  00220	66 39 b8 34 fc
	ff ff		 cmp	 WORD PTR [eax-972], di
  00227	75 4c		 jne	 SHORT $LN57@TeleportIn

; 1202 : 		{
; 1203 : 			continue;
; 1204 : 		}
; 1205 : 
; 1206 : 		if(sObj->GuildNumber < 1)

  00229	8b 30		 mov	 esi, DWORD PTR [eax]
  0022b	3b f7		 cmp	 esi, edi
  0022d	7c 46		 jl	 SHORT $LN57@TeleportIn

; 1207 : 		{
; 1208 : 			continue;
; 1209 : 		}
; 1210 : 
; 1211 : 		if(iGuildRegID1 == sObj->GuildNumber)

  0022f	39 b5 f0 fe ff
	ff		 cmp	 DWORD PTR _iGuildRegID1$[ebp], esi
  00235	75 1d		 jne	 SHORT $LN52@TeleportIn

; 1212 : 		{
; 1213 : 			if(sObj->DSiege.iScore > iMaxScorePlayer1)

  00237	8b 88 d0 24 00
	00		 mov	 ecx, DWORD PTR [eax+9424]
  0023d	3b 8d f4 fe ff
	ff		 cmp	 ecx, DWORD PTR _iMaxScorePlayer1$[ebp]
  00243	7e 0f		 jle	 SHORT $LN52@TeleportIn

; 1214 : 			{
; 1215 : 				iMaxScorePlayer1 = sObj->DSiege.iScore;

  00245	89 8d f4 fe ff
	ff		 mov	 DWORD PTR _iMaxScorePlayer1$[ebp], ecx

; 1216 : 				aIndex1 = n;

  0024b	8d 4a ff	 lea	 ecx, DWORD PTR [edx-1]
  0024e	89 8d e4 fe ff
	ff		 mov	 DWORD PTR _aIndex1$[ebp], ecx
$LN52@TeleportIn:

; 1217 : 			}
; 1218 : 		}
; 1219 : 
; 1220 : 		if(iGuildRegID2 == sObj->GuildNumber)

  00254	3b de		 cmp	 ebx, esi
  00256	75 1d		 jne	 SHORT $LN57@TeleportIn

; 1221 : 		{
; 1222 : 			if(sObj->DSiege.iScore > iMaxScorePlayer2)

  00258	8b 88 d0 24 00
	00		 mov	 ecx, DWORD PTR [eax+9424]
  0025e	3b 8d f8 fe ff
	ff		 cmp	 ecx, DWORD PTR _iMaxScorePlayer2$[ebp]
  00264	7e 0f		 jle	 SHORT $LN57@TeleportIn

; 1223 : 			{
; 1224 : 				iMaxScorePlayer2 = sObj->DSiege.iScore;

  00266	89 8d f8 fe ff
	ff		 mov	 DWORD PTR _iMaxScorePlayer2$[ebp], ecx

; 1225 : 				aIndex2 = n;

  0026c	8d 4a ff	 lea	 ecx, DWORD PTR [edx-1]
  0026f	89 8d e8 fe ff
	ff		 mov	 DWORD PTR _aIndex2$[ebp], ecx
$LN57@TeleportIn:

; 1198 : 	{
; 1199 : 		LPOBJ sObj = &gObj[n];
; 1200 : 
; 1201 : 		if(sObj->Connected < PLAYER_PLAYING || sObj->Type != OBJ_USER)

  00275	83 b8 20 27 00
	00 03		 cmp	 DWORD PTR [eax+10016], 3
  0027c	7c 53		 jl	 SHORT $LN59@TeleportIn
  0027e	66 39 b8 84 27
	00 00		 cmp	 WORD PTR [eax+10116], di
  00285	75 4a		 jne	 SHORT $LN59@TeleportIn

; 1202 : 		{
; 1203 : 			continue;
; 1204 : 		}
; 1205 : 
; 1206 : 		if(sObj->GuildNumber < 1)

  00287	8b b0 50 2b 00
	00		 mov	 esi, DWORD PTR [eax+11088]
  0028d	3b f7		 cmp	 esi, edi
  0028f	7c 40		 jl	 SHORT $LN59@TeleportIn

; 1207 : 		{
; 1208 : 			continue;
; 1209 : 		}
; 1210 : 
; 1211 : 		if(iGuildRegID1 == sObj->GuildNumber)

  00291	39 b5 f0 fe ff
	ff		 cmp	 DWORD PTR _iGuildRegID1$[ebp], esi
  00297	75 1a		 jne	 SHORT $LN53@TeleportIn

; 1212 : 		{
; 1213 : 			if(sObj->DSiege.iScore > iMaxScorePlayer1)

  00299	8b 88 20 50 00
	00		 mov	 ecx, DWORD PTR [eax+20512]
  0029f	3b 8d f4 fe ff
	ff		 cmp	 ecx, DWORD PTR _iMaxScorePlayer1$[ebp]
  002a5	7e 0c		 jle	 SHORT $LN53@TeleportIn

; 1214 : 			{
; 1215 : 				iMaxScorePlayer1 = sObj->DSiege.iScore;

  002a7	89 8d f4 fe ff
	ff		 mov	 DWORD PTR _iMaxScorePlayer1$[ebp], ecx

; 1216 : 				aIndex1 = n;

  002ad	89 95 e4 fe ff
	ff		 mov	 DWORD PTR _aIndex1$[ebp], edx
$LN53@TeleportIn:

; 1217 : 			}
; 1218 : 		}
; 1219 : 
; 1220 : 		if(iGuildRegID2 == sObj->GuildNumber)

  002b3	3b de		 cmp	 ebx, esi
  002b5	75 1a		 jne	 SHORT $LN59@TeleportIn

; 1221 : 		{
; 1222 : 			if(sObj->DSiege.iScore > iMaxScorePlayer2)

  002b7	8b 88 20 50 00
	00		 mov	 ecx, DWORD PTR [eax+20512]
  002bd	3b 8d f8 fe ff
	ff		 cmp	 ecx, DWORD PTR _iMaxScorePlayer2$[ebp]
  002c3	7e 0c		 jle	 SHORT $LN59@TeleportIn

; 1223 : 			{
; 1224 : 				iMaxScorePlayer2 = sObj->DSiege.iScore;

  002c5	89 8d f8 fe ff
	ff		 mov	 DWORD PTR _iMaxScorePlayer2$[ebp], ecx

; 1225 : 				aIndex2 = n;

  002cb	89 95 e8 fe ff
	ff		 mov	 DWORD PTR _aIndex2$[ebp], edx
$LN59@TeleportIn:

; 1198 : 	{
; 1199 : 		LPOBJ sObj = &gObj[n];
; 1200 : 
; 1201 : 		if(sObj->Connected < PLAYER_PLAYING || sObj->Type != OBJ_USER)

  002d1	83 b8 70 52 00
	00 03		 cmp	 DWORD PTR [eax+21104], 3
  002d8	7c 59		 jl	 SHORT $LN61@TeleportIn
  002da	66 39 b8 d4 52
	00 00		 cmp	 WORD PTR [eax+21204], di
  002e1	75 50		 jne	 SHORT $LN61@TeleportIn

; 1202 : 		{
; 1203 : 			continue;
; 1204 : 		}
; 1205 : 
; 1206 : 		if(sObj->GuildNumber < 1)

  002e3	8b b0 a0 56 00
	00		 mov	 esi, DWORD PTR [eax+22176]
  002e9	3b f7		 cmp	 esi, edi
  002eb	7c 46		 jl	 SHORT $LN61@TeleportIn

; 1207 : 		{
; 1208 : 			continue;
; 1209 : 		}
; 1210 : 
; 1211 : 		if(iGuildRegID1 == sObj->GuildNumber)

  002ed	39 b5 f0 fe ff
	ff		 cmp	 DWORD PTR _iGuildRegID1$[ebp], esi
  002f3	75 1d		 jne	 SHORT $LN54@TeleportIn

; 1212 : 		{
; 1213 : 			if(sObj->DSiege.iScore > iMaxScorePlayer1)

  002f5	8b 88 70 7b 00
	00		 mov	 ecx, DWORD PTR [eax+31600]
  002fb	3b 8d f4 fe ff
	ff		 cmp	 ecx, DWORD PTR _iMaxScorePlayer1$[ebp]
  00301	7e 0f		 jle	 SHORT $LN54@TeleportIn

; 1214 : 			{
; 1215 : 				iMaxScorePlayer1 = sObj->DSiege.iScore;

  00303	89 8d f4 fe ff
	ff		 mov	 DWORD PTR _iMaxScorePlayer1$[ebp], ecx

; 1216 : 				aIndex1 = n;

  00309	8d 4a 01	 lea	 ecx, DWORD PTR [edx+1]
  0030c	89 8d e4 fe ff
	ff		 mov	 DWORD PTR _aIndex1$[ebp], ecx
$LN54@TeleportIn:

; 1217 : 			}
; 1218 : 		}
; 1219 : 
; 1220 : 		if(iGuildRegID2 == sObj->GuildNumber)

  00312	3b de		 cmp	 ebx, esi
  00314	75 1d		 jne	 SHORT $LN61@TeleportIn

; 1221 : 		{
; 1222 : 			if(sObj->DSiege.iScore > iMaxScorePlayer2)

  00316	8b 88 70 7b 00
	00		 mov	 ecx, DWORD PTR [eax+31600]
  0031c	3b 8d f8 fe ff
	ff		 cmp	 ecx, DWORD PTR _iMaxScorePlayer2$[ebp]
  00322	7e 0f		 jle	 SHORT $LN61@TeleportIn

; 1223 : 			{
; 1224 : 				iMaxScorePlayer2 = sObj->DSiege.iScore;

  00324	89 8d f8 fe ff
	ff		 mov	 DWORD PTR _iMaxScorePlayer2$[ebp], ecx

; 1225 : 				aIndex2 = n;

  0032a	8d 4a 01	 lea	 ecx, DWORD PTR [edx+1]
  0032d	89 8d e8 fe ff
	ff		 mov	 DWORD PTR _aIndex2$[ebp], ecx
$LN61@TeleportIn:

; 1198 : 	{
; 1199 : 		LPOBJ sObj = &gObj[n];
; 1200 : 
; 1201 : 		if(sObj->Connected < PLAYER_PLAYING || sObj->Type != OBJ_USER)

  00333	83 b8 c0 7d 00
	00 03		 cmp	 DWORD PTR [eax+32192], 3
  0033a	7c 59		 jl	 SHORT $LN64@TeleportIn
  0033c	66 39 b8 24 7e
	00 00		 cmp	 WORD PTR [eax+32292], di
  00343	75 50		 jne	 SHORT $LN64@TeleportIn

; 1202 : 		{
; 1203 : 			continue;
; 1204 : 		}
; 1205 : 
; 1206 : 		if(sObj->GuildNumber < 1)

  00345	8b b0 f0 81 00
	00		 mov	 esi, DWORD PTR [eax+33264]
  0034b	3b f7		 cmp	 esi, edi
  0034d	7c 46		 jl	 SHORT $LN64@TeleportIn

; 1207 : 		{
; 1208 : 			continue;
; 1209 : 		}
; 1210 : 
; 1211 : 		if(iGuildRegID1 == sObj->GuildNumber)

  0034f	39 b5 f0 fe ff
	ff		 cmp	 DWORD PTR _iGuildRegID1$[ebp], esi
  00355	75 1d		 jne	 SHORT $LN63@TeleportIn

; 1212 : 		{
; 1213 : 			if(sObj->DSiege.iScore > iMaxScorePlayer1)

  00357	8b 88 c0 a6 00
	00		 mov	 ecx, DWORD PTR [eax+42688]
  0035d	3b 8d f4 fe ff
	ff		 cmp	 ecx, DWORD PTR _iMaxScorePlayer1$[ebp]
  00363	7e 0f		 jle	 SHORT $LN63@TeleportIn

; 1214 : 			{
; 1215 : 				iMaxScorePlayer1 = sObj->DSiege.iScore;

  00365	89 8d f4 fe ff
	ff		 mov	 DWORD PTR _iMaxScorePlayer1$[ebp], ecx

; 1216 : 				aIndex1 = n;

  0036b	8d 4a 02	 lea	 ecx, DWORD PTR [edx+2]
  0036e	89 8d e4 fe ff
	ff		 mov	 DWORD PTR _aIndex1$[ebp], ecx
$LN63@TeleportIn:

; 1217 : 			}
; 1218 : 		}
; 1219 : 
; 1220 : 		if(iGuildRegID2 == sObj->GuildNumber)

  00374	3b de		 cmp	 ebx, esi
  00376	75 1d		 jne	 SHORT $LN64@TeleportIn

; 1221 : 		{
; 1222 : 			if(sObj->DSiege.iScore > iMaxScorePlayer2)

  00378	8b 88 c0 a6 00
	00		 mov	 ecx, DWORD PTR [eax+42688]
  0037e	3b 8d f8 fe ff
	ff		 cmp	 ecx, DWORD PTR _iMaxScorePlayer2$[ebp]
  00384	7e 0f		 jle	 SHORT $LN64@TeleportIn

; 1223 : 			{
; 1224 : 				iMaxScorePlayer2 = sObj->DSiege.iScore;

  00386	89 8d f8 fe ff
	ff		 mov	 DWORD PTR _iMaxScorePlayer2$[ebp], ecx

; 1225 : 				aIndex2 = n;

  0038c	8d 4a 02	 lea	 ecx, DWORD PTR [edx+2]
  0038f	89 8d e8 fe ff
	ff		 mov	 DWORD PTR _aIndex2$[ebp], ecx
$LN64@TeleportIn:

; 1195 : 	}
; 1196 : 
; 1197 : 	for(int n = OBJ_STARTUSERINDZT; n < OBJMAX; n++)

  00395	83 c2 05	 add	 edx, 5
  00398	8d 4a fe	 lea	 ecx, DWORD PTR [edx-2]
  0039b	05 90 d8 00 00	 add	 eax, 55440		; 0000d890H
  003a0	81 f9 98 3a 00
	00		 cmp	 ecx, 15000		; 00003a98H
  003a6	0f 8c 04 fe ff
	ff		 jl	 $LL12@TeleportIn

; 1226 : 			}
; 1227 : 		}
; 1228 : 	}
; 1229 : 
; 1230 : 	if(aIndex1 == -1)

  003ac	8b 85 e4 fe ff
	ff		 mov	 eax, DWORD PTR _aIndex1$[ebp]
  003b2	83 f8 ff	 cmp	 eax, -1
  003b5	75 2f		 jne	 SHORT $LN2@TeleportIn

; 1231 : 	{
; 1232 : 		this->bCaptured = false;

  003b7	8b 85 ec fe ff
	ff		 mov	 eax, DWORD PTR _this$GSCopy$[ebp]
  003bd	c6 40 14 00	 mov	 BYTE PTR [eax+20], 0

; 1233 : 		memcpy(this->szLordGuild, "", sizeof(this->szLordGuild)-1);

  003c1	8b 15 00 00 00
	00		 mov	 edx, DWORD PTR ??_C@_00CNPNBAHC@?$AA@
  003c7	89 50 15	 mov	 DWORD PTR [eax+21], edx
  003ca	8b 0d 04 00 00
	00		 mov	 ecx, DWORD PTR ??_C@_00CNPNBAHC@?$AA@+4
  003d0	5f		 pop	 edi
  003d1	5e		 pop	 esi
  003d2	89 48 19	 mov	 DWORD PTR [eax+25], ecx

; 1234 : 		return false;

  003d5	32 c0		 xor	 al, al
  003d7	5b		 pop	 ebx

; 1252 : 
; 1253 : 	return true;
; 1254 : }

  003d8	8b 4d fc	 mov	 ecx, DWORD PTR __$ArrayPad$[ebp]
  003db	33 cd		 xor	 ecx, ebp
  003dd	e8 00 00 00 00	 call	 @__security_check_cookie@4
  003e2	8b e5		 mov	 esp, ebp
  003e4	5d		 pop	 ebp
  003e5	c3		 ret	 0
$LN2@TeleportIn:

; 1235 : 	}
; 1236 : 
; 1237 : 	if(aIndex2 == -1)

  003e6	8b 8d e8 fe ff
	ff		 mov	 ecx, DWORD PTR _aIndex2$[ebp]

; 1238 : 	{
; 1239 : 		this->bCaptured = true;

  003ec	8b 95 ec fe ff
	ff		 mov	 edx, DWORD PTR _this$GSCopy$[ebp]
  003f2	83 f9 ff	 cmp	 ecx, -1
  003f5	75 37		 jne	 SHORT $LN1@TeleportIn

; 1240 : 		memcpy(this->szLordGuild, gObj[aIndex1].GuildName, sizeof(this->szLordGuild)-1);

  003f7	69 c0 50 2b 00
	00		 imul	 eax, 11088		; 00002b50H
  003fd	c6 42 14 01	 mov	 BYTE PTR [edx+20], 1
  00401	8b 0d 00 00 00
	00		 mov	 ecx, DWORD PTR ?gObj@@3PAUOBJECTSTRUCT@@A ; gObj
  00407	8b b4 08 3c 04
	00 00		 mov	 esi, DWORD PTR [eax+ecx+1084]
  0040e	89 72 15	 mov	 DWORD PTR [edx+21], esi
  00411	8b 84 08 40 04
	00 00		 mov	 eax, DWORD PTR [eax+ecx+1088]
  00418	5f		 pop	 edi
  00419	5e		 pop	 esi
  0041a	89 42 19	 mov	 DWORD PTR [edx+25], eax

; 1241 : 		return false;

  0041d	32 c0		 xor	 al, al
  0041f	5b		 pop	 ebx

; 1252 : 
; 1253 : 	return true;
; 1254 : }

  00420	8b 4d fc	 mov	 ecx, DWORD PTR __$ArrayPad$[ebp]
  00423	33 cd		 xor	 ecx, ebp
  00425	e8 00 00 00 00	 call	 @__security_check_cookie@4
  0042a	8b e5		 mov	 esp, ebp
  0042c	5d		 pop	 ebp
  0042d	c3		 ret	 0
$LN1@TeleportIn:

; 1242 : 	}
; 1243 : 
; 1244 : 	LPOBJ lpUserFinal1 = &gObj[aIndex1];
; 1245 : 	LPOBJ lpUserFinal2 = &gObj[aIndex2];
; 1246 : 
; 1247 : 	this->aIndexFinal1 = aIndex1;
; 1248 : 	this->aIndexFinal2 = aIndex2;

  0042e	89 4a 3c	 mov	 DWORD PTR [edx+60], ecx

; 1249 : 
; 1250 : 	this->aGuildFinal1 = iSiegeGuild1;

  00431	8b 8d e0 fe ff
	ff		 mov	 ecx, DWORD PTR _iSiegeGuild1$[ebp]
  00437	89 42 38	 mov	 DWORD PTR [edx+56], eax

; 1251 : 	this->aGuildFinal2 = iSiegeGuild2;

  0043a	8b 85 dc fe ff
	ff		 mov	 eax, DWORD PTR _iSiegeGuild2$[ebp]
  00440	89 4a 40	 mov	 DWORD PTR [edx+64], ecx

; 1252 : 
; 1253 : 	return true;
; 1254 : }

  00443	8b 4d fc	 mov	 ecx, DWORD PTR __$ArrayPad$[ebp]
  00446	5f		 pop	 edi
  00447	5e		 pop	 esi
  00448	89 42 44	 mov	 DWORD PTR [edx+68], eax
  0044b	33 cd		 xor	 ecx, ebp
  0044d	b0 01		 mov	 al, 1
  0044f	5b		 pop	 ebx
  00450	e8 00 00 00 00	 call	 @__security_check_cookie@4
  00455	8b e5		 mov	 esp, ebp
  00457	5d		 pop	 ebp
  00458	c3		 ret	 0
?TeleportInFinal@CDungeonSiege@@QAE_NXZ ENDP		; CDungeonSiege::TeleportInFinal
_TEXT	ENDS
PUBLIC	?PlayerWaitAttack@CDungeonSiege@@QAE_NHH@Z	; CDungeonSiege::PlayerWaitAttack
; Function compile flags: /Ogtp
;	COMDAT ?PlayerWaitAttack@CDungeonSiege@@QAE_NHH@Z
_TEXT	SEGMENT
_aIndex$ = 8						; size = 4
_aTargetIndex$ = 12					; size = 4
?PlayerWaitAttack@CDungeonSiege@@QAE_NHH@Z PROC		; CDungeonSiege::PlayerWaitAttack, COMDAT
; _this$ = ecx

; 1292 : {

  00000	55		 push	 ebp
  00001	8b ec		 mov	 ebp, esp
  00003	57		 push	 edi
  00004	8b f9		 mov	 edi, ecx

; 1293 : 	if(!this->bEnable)

  00006	80 7f 48 00	 cmp	 BYTE PTR [edi+72], 0
  0000a	75 07		 jne	 SHORT $LN10@PlayerWait

; 1294 : 	{
; 1295 : 		return true;

  0000c	b0 01		 mov	 al, 1
  0000e	5f		 pop	 edi

; 1321 : 		}
; 1322 : 	}
; 1323 : 
; 1324 : 	return true;
; 1325 : }

  0000f	5d		 pop	 ebp
  00010	c2 08 00	 ret	 8
$LN10@PlayerWait:

; 1296 : 	}
; 1297 : 
; 1298 : 	if(!OBJMAX_RANGE(aIndex) || !OBJMAX_RANGE(aTargetIndex))

  00013	8b 55 08	 mov	 edx, DWORD PTR _aIndex$[ebp]
  00016	56		 push	 esi
  00017	85 d2		 test	 edx, edx
  00019	0f 88 84 00 00
	00		 js	 $LN8@PlayerWait
  0001f	33 c0		 xor	 eax, eax
  00021	81 fa 97 3a 00
	00		 cmp	 edx, 14999		; 00003a97H
  00027	0f 9e c0	 setle	 al
  0002a	85 c0		 test	 eax, eax
  0002c	74 75		 je	 SHORT $LN8@PlayerWait
  0002e	8b 45 0c	 mov	 eax, DWORD PTR _aTargetIndex$[ebp]
  00031	85 c0		 test	 eax, eax
  00033	78 6e		 js	 SHORT $LN8@PlayerWait
  00035	33 c9		 xor	 ecx, ecx
  00037	3d 97 3a 00 00	 cmp	 eax, 14999		; 00003a97H
  0003c	0f 9e c1	 setle	 cl
  0003f	8b f1		 mov	 esi, ecx
  00041	85 f6		 test	 esi, esi
  00043	74 5e		 je	 SHORT $LN8@PlayerWait

; 1301 : 	}
; 1302 : 
; 1303 : 	LPOBJ lpUser = &gObj[aIndex];

  00045	8b 35 00 00 00
	00		 mov	 esi, DWORD PTR ?gObj@@3PAUOBJECTSTRUCT@@A ; gObj
  0004b	69 d2 50 2b 00
	00		 imul	 edx, 11088		; 00002b50H

; 1304 : 	LPOBJ lpTarget = &gObj[aTargetIndex];

  00051	69 c0 50 2b 00
	00		 imul	 eax, 11088		; 00002b50H
  00057	03 d6		 add	 edx, esi
  00059	03 c6		 add	 eax, esi

; 1305 : 
; 1306 : 	if(lpUser->Connected < PLAYER_PLAYING || lpTarget->Connected < PLAYER_PLAYING)

  0005b	be 03 00 00 00	 mov	 esi, 3
  00060	39 72 04	 cmp	 DWORD PTR [edx+4], esi
  00063	7c 3e		 jl	 SHORT $LN8@PlayerWait
  00065	39 70 04	 cmp	 DWORD PTR [eax+4], esi
  00068	7c 39		 jl	 SHORT $LN8@PlayerWait

; 1307 : 	{
; 1308 : 		return true;
; 1309 : 	}
; 1310 : 
; 1311 : 	if(lpUser->Type != OBJ_USER || lpTarget->Type != OBJ_USER)

  0006a	66 83 7a 68 01	 cmp	 WORD PTR [edx+104], 1
  0006f	75 32		 jne	 SHORT $LN8@PlayerWait
  00071	66 83 78 68 01	 cmp	 WORD PTR [eax+104], 1
  00076	75 2b		 jne	 SHORT $LN8@PlayerWait

; 1312 : 	{
; 1313 : 		return true;
; 1314 : 	}
; 1315 : 
; 1316 : 	if(this->CheckStatus(eEVENTDUNGEON_WAIT) || this->CheckStatus(eEVENTDUNGEON_WAIT_STAGE2))	

  00078	6a 01		 push	 1
  0007a	8b cf		 mov	 ecx, edi
  0007c	e8 00 00 00 00	 call	 ?CheckStatus@CDungeonSiege@@QAE_NH@Z ; CDungeonSiege::CheckStatus
  00081	84 c0		 test	 al, al
  00083	75 0a		 jne	 SHORT $LN2@PlayerWait
  00085	56		 push	 esi
  00086	e8 00 00 00 00	 call	 ?CheckStatus@CDungeonSiege@@QAE_NH@Z ; CDungeonSiege::CheckStatus
  0008b	84 c0		 test	 al, al
  0008d	74 14		 je	 SHORT $LN8@PlayerWait
$LN2@PlayerWait:

; 1317 : 	{
; 1318 : 		if(lpUser->MapNumber == this->m_EventMapNumber)

  0008f	0f b6 92 49 01
	00 00		 movzx	 edx, BYTE PTR [edx+329]
  00096	3b 57 78	 cmp	 edx, DWORD PTR [edi+120]
  00099	75 08		 jne	 SHORT $LN8@PlayerWait

; 1319 : 		{
; 1320 : 			return false;

  0009b	5e		 pop	 esi
  0009c	32 c0		 xor	 al, al
  0009e	5f		 pop	 edi

; 1321 : 		}
; 1322 : 	}
; 1323 : 
; 1324 : 	return true;
; 1325 : }

  0009f	5d		 pop	 ebp
  000a0	c2 08 00	 ret	 8
$LN8@PlayerWait:
  000a3	5e		 pop	 esi

; 1299 : 	{
; 1300 : 		return true;

  000a4	b0 01		 mov	 al, 1
  000a6	5f		 pop	 edi

; 1321 : 		}
; 1322 : 	}
; 1323 : 
; 1324 : 	return true;
; 1325 : }

  000a7	5d		 pop	 ebp
  000a8	c2 08 00	 ret	 8
?PlayerWaitAttack@CDungeonSiege@@QAE_NHH@Z ENDP		; CDungeonSiege::PlayerWaitAttack
_TEXT	ENDS
PUBLIC	?GuildBuff@CDungeonSiege@@QAEXH@Z		; CDungeonSiege::GuildBuff
EXTRN	?gObjRemoveBuffEffect@@YAEPAUOBJECTSTRUCT@@H@Z:PROC ; gObjRemoveBuffEffect
EXTRN	?gObjApplyBuffEffectDuration@@YAEPAUOBJECTSTRUCT@@HEHEHH@Z:PROC ; gObjApplyBuffEffectDuration
EXTRN	?gObjSearchActiveEffect@@YAEPAUOBJECTSTRUCT@@H@Z:PROC ; gObjSearchActiveEffect
; Function compile flags: /Ogtp
;	COMDAT ?GuildBuff@CDungeonSiege@@QAEXH@Z
_TEXT	SEGMENT
_aIndex$ = 8						; size = 4
?GuildBuff@CDungeonSiege@@QAEXH@Z PROC			; CDungeonSiege::GuildBuff, COMDAT
; _this$ = ecx

; 1328 : {

  00000	55		 push	 ebp
  00001	8b ec		 mov	 ebp, esp

; 1329 : 	if(!this->m_BuffEnable)

  00003	83 b9 a8 00 00
	00 00		 cmp	 DWORD PTR [ecx+168], 0
  0000a	0f 84 d4 00 00
	00		 je	 $LN1@GuildBuff

; 1330 : 	{
; 1331 : 		return;
; 1332 : 	}
; 1333 : 
; 1334 : 	if(!OBJMAX_RANGE(aIndex))

  00010	8b 45 08	 mov	 eax, DWORD PTR _aIndex$[ebp]
  00013	85 c0		 test	 eax, eax
  00015	0f 88 c9 00 00
	00		 js	 $LN1@GuildBuff
  0001b	33 d2		 xor	 edx, edx
  0001d	3d 97 3a 00 00	 cmp	 eax, 14999		; 00003a97H
  00022	0f 9e c2	 setle	 dl
  00025	85 d2		 test	 edx, edx
  00027	0f 84 b7 00 00
	00		 je	 $LN1@GuildBuff

; 1335 : 	{
; 1336 : 		return;
; 1337 : 	}
; 1338 : 
; 1339 : 	LPOBJ lpUser = &gObj[aIndex];

  0002d	69 c0 50 2b 00
	00		 imul	 eax, 11088		; 00002b50H
  00033	03 05 00 00 00
	00		 add	 eax, DWORD PTR ?gObj@@3PAUOBJECTSTRUCT@@A ; gObj
  00039	56		 push	 esi
  0003a	8b f0		 mov	 esi, eax

; 1340 : 
; 1341 : 	if(lpUser->Connected < PLAYER_PLAYING)

  0003c	83 7e 04 03	 cmp	 DWORD PTR [esi+4], 3
  00040	0f 8c 9d 00 00
	00		 jl	 $LN17@GuildBuff

; 1342 : 	{
; 1343 : 		return;
; 1344 : 	}
; 1345 : 
; 1346 : 	if(lpUser->GuildNumber > 0 && this->bCaptured)

  00046	83 be 34 04 00
	00 00		 cmp	 DWORD PTR [esi+1076], 0
  0004d	7e 74		 jle	 SHORT $LN3@GuildBuff
  0004f	80 79 14 00	 cmp	 BYTE PTR [ecx+20], 0
  00053	74 6e		 je	 SHORT $LN3@GuildBuff

; 1347 : 	{
; 1348 : 		if(lpUser->GuildName[0] == this->szLordGuild[0])

  00055	8a 96 3c 04 00
	00		 mov	 dl, BYTE PTR [esi+1084]
  0005b	8d 86 3c 04 00
	00		 lea	 eax, DWORD PTR [esi+1084]
  00061	83 c1 15	 add	 ecx, 21			; 00000015H
  00064	3a 11		 cmp	 dl, BYTE PTR [ecx]
  00066	75 5b		 jne	 SHORT $LN3@GuildBuff
$LL13@GuildBuff:

; 1349 : 		{
; 1350 : 			if(!strcmp(lpUser->GuildName, this->szLordGuild))

  00068	8a 10		 mov	 dl, BYTE PTR [eax]
  0006a	3a 11		 cmp	 dl, BYTE PTR [ecx]
  0006c	75 1a		 jne	 SHORT $LN14@GuildBuff
  0006e	84 d2		 test	 dl, dl
  00070	74 12		 je	 SHORT $LN15@GuildBuff
  00072	8a 50 01	 mov	 dl, BYTE PTR [eax+1]
  00075	3a 51 01	 cmp	 dl, BYTE PTR [ecx+1]
  00078	75 0e		 jne	 SHORT $LN14@GuildBuff
  0007a	83 c0 02	 add	 eax, 2
  0007d	83 c1 02	 add	 ecx, 2
  00080	84 d2		 test	 dl, dl
  00082	75 e4		 jne	 SHORT $LL13@GuildBuff
$LN15@GuildBuff:
  00084	33 c0		 xor	 eax, eax
  00086	eb 05		 jmp	 SHORT $LN16@GuildBuff
$LN14@GuildBuff:
  00088	1b c0		 sbb	 eax, eax
  0008a	83 d8 ff	 sbb	 eax, -1
$LN16@GuildBuff:
  0008d	85 c0		 test	 eax, eax
  0008f	75 32		 jne	 SHORT $LN3@GuildBuff

; 1351 : 			{
; 1352 : 				if(gObjSearchActiveEffect(lpUser,AT_DUNGEON_BUFF) == FALSE)

  00091	68 b8 00 00 00	 push	 184			; 000000b8H
  00096	56		 push	 esi
  00097	e8 00 00 00 00	 call	 ?gObjSearchActiveEffect@@YAEPAUOBJECTSTRUCT@@H@Z ; gObjSearchActiveEffect
  0009c	83 c4 08	 add	 esp, 8
  0009f	84 c0		 test	 al, al
  000a1	75 40		 jne	 SHORT $LN17@GuildBuff

; 1353 : 				{
; 1354 : 					gObjApplyBuffEffectDuration(lpUser,AT_DUNGEON_BUFF,0,0,0,0,600);

  000a3	68 58 02 00 00	 push	 600			; 00000258H
  000a8	6a 00		 push	 0
  000aa	6a 00		 push	 0
  000ac	6a 00		 push	 0
  000ae	6a 00		 push	 0
  000b0	68 b8 00 00 00	 push	 184			; 000000b8H
  000b5	56		 push	 esi
  000b6	e8 00 00 00 00	 call	 ?gObjApplyBuffEffectDuration@@YAEPAUOBJECTSTRUCT@@HEHEHH@Z ; gObjApplyBuffEffectDuration
  000bb	83 c4 1c	 add	 esp, 28			; 0000001cH
  000be	5e		 pop	 esi

; 1364 : 	}
; 1365 : }

  000bf	5d		 pop	 ebp
  000c0	c2 04 00	 ret	 4
$LN3@GuildBuff:

; 1355 : 				}
; 1356 : 				return;
; 1357 : 			}
; 1358 : 		}
; 1359 : 	}
; 1360 : 
; 1361 : 	if(gObjSearchActiveEffect(lpUser,AT_DUNGEON_BUFF) == TRUE)

  000c3	68 b8 00 00 00	 push	 184			; 000000b8H
  000c8	56		 push	 esi
  000c9	e8 00 00 00 00	 call	 ?gObjSearchActiveEffect@@YAEPAUOBJECTSTRUCT@@H@Z ; gObjSearchActiveEffect
  000ce	83 c4 08	 add	 esp, 8
  000d1	3c 01		 cmp	 al, 1
  000d3	75 0e		 jne	 SHORT $LN17@GuildBuff

; 1362 : 	{
; 1363 : 		gObjRemoveBuffEffect(lpUser,AT_DUNGEON_BUFF);

  000d5	68 b8 00 00 00	 push	 184			; 000000b8H
  000da	56		 push	 esi
  000db	e8 00 00 00 00	 call	 ?gObjRemoveBuffEffect@@YAEPAUOBJECTSTRUCT@@H@Z ; gObjRemoveBuffEffect
  000e0	83 c4 08	 add	 esp, 8
$LN17@GuildBuff:
  000e3	5e		 pop	 esi
$LN1@GuildBuff:

; 1364 : 	}
; 1365 : }

  000e4	5d		 pop	 ebp
  000e5	c2 04 00	 ret	 4
?GuildBuff@CDungeonSiege@@QAEXH@Z ENDP			; CDungeonSiege::GuildBuff
_TEXT	ENDS
PUBLIC	?CheckMoveGateSiege@CDungeonSiege@@QAE_NHH@Z	; CDungeonSiege::CheckMoveGateSiege
; Function compile flags: /Ogtp
;	COMDAT ?CheckMoveGateSiege@CDungeonSiege@@QAE_NHH@Z
_TEXT	SEGMENT
_this$ = -4						; size = 4
_aIndex$ = 8						; size = 4
_map$ = 12						; size = 4
?CheckMoveGateSiege@CDungeonSiege@@QAE_NHH@Z PROC	; CDungeonSiege::CheckMoveGateSiege, COMDAT
; _this$ = ecx

; 1368 : {

  00000	55		 push	 ebp
  00001	8b ec		 mov	 ebp, esp
  00003	51		 push	 ecx
  00004	56		 push	 esi
  00005	8b f1		 mov	 esi, ecx

; 1369 : 	if(!this->bEnable)

  00007	80 7e 48 00	 cmp	 BYTE PTR [esi+72], 0
  0000b	89 75 fc	 mov	 DWORD PTR _this$[ebp], esi
  0000e	75 09		 jne	 SHORT $LN25@CheckMoveG
$LN60@CheckMoveG:

; 1370 : 	{
; 1371 : 		return true;

  00010	b0 01		 mov	 al, 1
  00012	5e		 pop	 esi

; 1467 : 		}
; 1468 : 	}
; 1469 : 
; 1470 : 	return true;
; 1471 : }

  00013	8b e5		 mov	 esp, ebp
  00015	5d		 pop	 ebp
  00016	c2 08 00	 ret	 8
$LN25@CheckMoveG:

; 1372 : 	}
; 1373 : 
; 1374 : 	if(!OBJMAX_RANGE(aIndex))

  00019	8b 45 08	 mov	 eax, DWORD PTR _aIndex$[ebp]
  0001c	85 c0		 test	 eax, eax
  0001e	78 0e		 js	 SHORT $LN40@CheckMoveG
  00020	33 c9		 xor	 ecx, ecx
  00022	3d 97 3a 00 00	 cmp	 eax, 14999		; 00003a97H
  00027	0f 9e c1	 setle	 cl
  0002a	85 c9		 test	 ecx, ecx
  0002c	75 09		 jne	 SHORT $LN24@CheckMoveG
$LN40@CheckMoveG:

; 1375 : 	{
; 1376 : 		return false;

  0002e	32 c0		 xor	 al, al
  00030	5e		 pop	 esi

; 1467 : 		}
; 1468 : 	}
; 1469 : 
; 1470 : 	return true;
; 1471 : }

  00031	8b e5		 mov	 esp, ebp
  00033	5d		 pop	 ebp
  00034	c2 08 00	 ret	 8
$LN24@CheckMoveG:

; 1377 : 	}
; 1378 : 
; 1379 : 	LPOBJ lpUser = &gObj[aIndex];

  00037	69 c0 50 2b 00
	00		 imul	 eax, 11088		; 00002b50H
  0003d	03 05 00 00 00
	00		 add	 eax, DWORD PTR ?gObj@@3PAUOBJECTSTRUCT@@A ; gObj
  00043	8b d0		 mov	 edx, eax

; 1380 : 
; 1381 : 	lpUser->DSiege.bNpcClick = false;
; 1382 : 
; 1383 : 	if(map != this->m_EventMapNumber)

  00045	8b 45 0c	 mov	 eax, DWORD PTR _map$[ebp]
  00048	c6 82 fc 28 00
	00 00		 mov	 BYTE PTR [edx+10492], 0
  0004f	3b 46 78	 cmp	 eax, DWORD PTR [esi+120]

; 1384 : 	{
; 1385 : 		return true;

  00052	75 bc		 jne	 SHORT $LN60@CheckMoveG

; 1386 : 	}
; 1387 : 
; 1388 : 	if(lpUser->GuildNumber < 1)

  00054	83 ba 34 04 00
	00 01		 cmp	 DWORD PTR [edx+1076], 1

; 1389 : 	{
; 1390 : 		return false;

  0005b	7c d1		 jl	 SHORT $LN40@CheckMoveG

; 1391 : 	}
; 1392 : 
; 1393 : 	if(this->CheckStatus(eEVENTDUNGEON_CLOSE))

  0005d	6a 00		 push	 0
  0005f	8b ce		 mov	 ecx, esi
  00061	e8 00 00 00 00	 call	 ?CheckStatus@CDungeonSiege@@QAE_NH@Z ; CDungeonSiege::CheckStatus
  00066	84 c0		 test	 al, al
  00068	74 48		 je	 SHORT $LN21@CheckMoveG

; 1394 : 	{
; 1395 : 		if(bCaptured == false)

  0006a	80 7e 14 00	 cmp	 BYTE PTR [esi+20], 0

; 1396 : 		{
; 1397 : 			return false;

  0006e	74 be		 je	 SHORT $LN40@CheckMoveG

; 1398 : 		}
; 1399 : 
; 1400 : 		if(this->szLordGuild[0] == lpUser->GuildName[0])

  00070	8d 8a 3c 04 00
	00		 lea	 ecx, DWORD PTR [edx+1084]
  00076	8a 56 15	 mov	 dl, BYTE PTR [esi+21]
  00079	8d 46 15	 lea	 eax, DWORD PTR [esi+21]
  0007c	3a 11		 cmp	 dl, BYTE PTR [ecx]
  0007e	75 ae		 jne	 SHORT $LN40@CheckMoveG
$LL41@CheckMoveG:

; 1401 : 		{
; 1402 : 			if(!strcmp(this->szLordGuild, lpUser->GuildName))

  00080	8a 10		 mov	 dl, BYTE PTR [eax]
  00082	3a 11		 cmp	 dl, BYTE PTR [ecx]
  00084	75 1a		 jne	 SHORT $LN42@CheckMoveG
  00086	84 d2		 test	 dl, dl
  00088	74 12		 je	 SHORT $LN43@CheckMoveG
  0008a	8a 50 01	 mov	 dl, BYTE PTR [eax+1]
  0008d	3a 51 01	 cmp	 dl, BYTE PTR [ecx+1]
  00090	75 0e		 jne	 SHORT $LN42@CheckMoveG
  00092	83 c0 02	 add	 eax, 2
  00095	83 c1 02	 add	 ecx, 2
  00098	84 d2		 test	 dl, dl
  0009a	75 e4		 jne	 SHORT $LL41@CheckMoveG
$LN43@CheckMoveG:
  0009c	33 c0		 xor	 eax, eax
  0009e	eb 05		 jmp	 SHORT $LN44@CheckMoveG
$LN42@CheckMoveG:
  000a0	1b c0		 sbb	 eax, eax
  000a2	83 d8 ff	 sbb	 eax, -1
$LN44@CheckMoveG:
  000a5	85 c0		 test	 eax, eax
  000a7	75 85		 jne	 SHORT $LN40@CheckMoveG

; 1370 : 	{
; 1371 : 		return true;

  000a9	b0 01		 mov	 al, 1
  000ab	5e		 pop	 esi

; 1467 : 		}
; 1468 : 	}
; 1469 : 
; 1470 : 	return true;
; 1471 : }

  000ac	8b e5		 mov	 esp, ebp
  000ae	5d		 pop	 ebp
  000af	c2 08 00	 ret	 8
$LN21@CheckMoveG:

; 1403 : 			{
; 1404 : 				return true;
; 1405 : 			}
; 1406 : 		}
; 1407 : 
; 1408 : 		return false;
; 1409 : 	}
; 1410 : 	else // -> Wait & Start Battle 
; 1411 : 	{
; 1412 : 		if(map == this->m_EventMapNumber)
; 1413 : 		{
; 1414 : 			//CheckMultiWindow
; 1415 : 			int WindowCount = 0;

  000b2	a1 00 00 00 00	 mov	 eax, DWORD PTR ?gObj@@3PAUOBJECTSTRUCT@@A ; gObj
  000b7	57		 push	 edi
  000b8	33 c9		 xor	 ecx, ecx
  000ba	05 dc fa 40 09	 add	 eax, 155253468		; 0940fadcH
  000bf	bf c8 00 00 00	 mov	 edi, 200		; 000000c8H
  000c4	be 03 00 00 00	 mov	 esi, 3
  000c9	53		 push	 ebx
  000ca	8d 9b 00 00 00
	00		 npad	 6
$LL15@CheckMoveG:

; 1418 : 			{
; 1419 : 				LPOBJ lpTempObj = &gObj[n];
; 1420 : 
; 1421 : 				if(lpTempObj->Connected < PLAYER_PLAYING)

  000d0	39 b0 28 ac ff
	ff		 cmp	 DWORD PTR [eax-21464], esi
  000d6	7c 0f		 jl	 SHORT $LN14@CheckMoveG

; 1422 : 				{
; 1423 : 					continue;
; 1424 : 				}	
; 1425 : 
; 1426 : 				if(lpUser->hdd_id == lpTempObj->hdd_id)

  000d8	8b 9a 8c 28 00
	00		 mov	 ebx, DWORD PTR [edx+10380]
  000de	3b 98 b0 d4 ff
	ff		 cmp	 ebx, DWORD PTR [eax-11088]
  000e4	75 01		 jne	 SHORT $LN14@CheckMoveG

; 1427 : 				{
; 1428 : 					WindowCount++;

  000e6	41		 inc	 ecx
$LN14@CheckMoveG:

; 1418 : 			{
; 1419 : 				LPOBJ lpTempObj = &gObj[n];
; 1420 : 
; 1421 : 				if(lpTempObj->Connected < PLAYER_PLAYING)

  000e7	39 b0 78 d7 ff
	ff		 cmp	 DWORD PTR [eax-10376], esi
  000ed	7c 0b		 jl	 SHORT $LN54@CheckMoveG

; 1422 : 				{
; 1423 : 					continue;
; 1424 : 				}	
; 1425 : 
; 1426 : 				if(lpUser->hdd_id == lpTempObj->hdd_id)

  000ef	8b 9a 8c 28 00
	00		 mov	 ebx, DWORD PTR [edx+10380]
  000f5	3b 18		 cmp	 ebx, DWORD PTR [eax]
  000f7	75 01		 jne	 SHORT $LN54@CheckMoveG

; 1427 : 				{
; 1428 : 					WindowCount++;

  000f9	41		 inc	 ecx
$LN54@CheckMoveG:

; 1418 : 			{
; 1419 : 				LPOBJ lpTempObj = &gObj[n];
; 1420 : 
; 1421 : 				if(lpTempObj->Connected < PLAYER_PLAYING)

  000fa	39 b0 c8 02 00
	00		 cmp	 DWORD PTR [eax+712], esi
  00100	7c 0f		 jl	 SHORT $LN55@CheckMoveG

; 1422 : 				{
; 1423 : 					continue;
; 1424 : 				}	
; 1425 : 
; 1426 : 				if(lpUser->hdd_id == lpTempObj->hdd_id)

  00102	8b 9a 8c 28 00
	00		 mov	 ebx, DWORD PTR [edx+10380]
  00108	3b 98 50 2b 00
	00		 cmp	 ebx, DWORD PTR [eax+11088]
  0010e	75 01		 jne	 SHORT $LN55@CheckMoveG

; 1427 : 				{
; 1428 : 					WindowCount++;

  00110	41		 inc	 ecx
$LN55@CheckMoveG:

; 1418 : 			{
; 1419 : 				LPOBJ lpTempObj = &gObj[n];
; 1420 : 
; 1421 : 				if(lpTempObj->Connected < PLAYER_PLAYING)

  00111	39 b0 18 2e 00
	00		 cmp	 DWORD PTR [eax+11800], esi
  00117	7c 0f		 jl	 SHORT $LN56@CheckMoveG

; 1422 : 				{
; 1423 : 					continue;
; 1424 : 				}	
; 1425 : 
; 1426 : 				if(lpUser->hdd_id == lpTempObj->hdd_id)

  00119	8b 9a 8c 28 00
	00		 mov	 ebx, DWORD PTR [edx+10380]
  0011f	3b 98 a0 56 00
	00		 cmp	 ebx, DWORD PTR [eax+22176]
  00125	75 01		 jne	 SHORT $LN56@CheckMoveG

; 1427 : 				{
; 1428 : 					WindowCount++;

  00127	41		 inc	 ecx
$LN56@CheckMoveG:

; 1418 : 			{
; 1419 : 				LPOBJ lpTempObj = &gObj[n];
; 1420 : 
; 1421 : 				if(lpTempObj->Connected < PLAYER_PLAYING)

  00128	39 b0 68 59 00
	00		 cmp	 DWORD PTR [eax+22888], esi
  0012e	7c 0f		 jl	 SHORT $LN57@CheckMoveG

; 1422 : 				{
; 1423 : 					continue;
; 1424 : 				}	
; 1425 : 
; 1426 : 				if(lpUser->hdd_id == lpTempObj->hdd_id)

  00130	8b 9a 8c 28 00
	00		 mov	 ebx, DWORD PTR [edx+10380]
  00136	3b 98 f0 81 00
	00		 cmp	 ebx, DWORD PTR [eax+33264]
  0013c	75 01		 jne	 SHORT $LN57@CheckMoveG

; 1427 : 				{
; 1428 : 					WindowCount++;

  0013e	41		 inc	 ecx
$LN57@CheckMoveG:

; 1403 : 			{
; 1404 : 				return true;
; 1405 : 			}
; 1406 : 		}
; 1407 : 
; 1408 : 		return false;
; 1409 : 	}
; 1410 : 	else // -> Wait & Start Battle 
; 1411 : 	{
; 1412 : 		if(map == this->m_EventMapNumber)
; 1413 : 		{
; 1414 : 			//CheckMultiWindow
; 1415 : 			int WindowCount = 0;

  0013f	05 90 d8 00 00	 add	 eax, 55440		; 0000d890H

; 1416 : 
; 1417 : 			for(int n=OBJ_STARTUSERINDZT;n<OBJMAX;n++)

  00144	4f		 dec	 edi
  00145	75 89		 jne	 SHORT $LL15@CheckMoveG

; 1429 : 				}
; 1430 : 			}
; 1431 : 
; 1432 : 			if(WindowCount > 1)

  00147	83 f9 01	 cmp	 ecx, 1

; 1433 : 			{
; 1434 : 				return false;

  0014a	0f 8f a7 00 00
	00		 jg	 $LN3@CheckMoveG

; 1435 : 			}
; 1436 : 
; 1437 : 			//Check reg list guild teleport
; 1438 : 			if(bCaptured == true)

  00150	8b 5d fc	 mov	 ebx, DWORD PTR _this$[ebp]
  00153	80 7b 14 01	 cmp	 BYTE PTR [ebx+20], 1
  00157	75 4b		 jne	 SHORT $LN9@CheckMoveG

; 1439 : 			{
; 1440 : 				if(this->szLordGuild[0] == lpUser->GuildName[0])

  00159	8d 8a 3c 04 00
	00		 lea	 ecx, DWORD PTR [edx+1084]
  0015f	8a 53 15	 mov	 dl, BYTE PTR [ebx+21]
  00162	8d 43 15	 lea	 eax, DWORD PTR [ebx+21]
  00165	3a 11		 cmp	 dl, BYTE PTR [ecx]
  00167	0f 85 8a 00 00
	00		 jne	 $LN3@CheckMoveG
  0016d	8d 49 00	 npad	 3
$LL45@CheckMoveG:

; 1441 : 				{
; 1442 : 					if(!strcmp(this->szLordGuild, lpUser->GuildName))

  00170	8a 10		 mov	 dl, BYTE PTR [eax]
  00172	3a 11		 cmp	 dl, BYTE PTR [ecx]
  00174	75 1a		 jne	 SHORT $LN46@CheckMoveG
  00176	84 d2		 test	 dl, dl
  00178	74 12		 je	 SHORT $LN47@CheckMoveG
  0017a	8a 50 01	 mov	 dl, BYTE PTR [eax+1]
  0017d	3a 51 01	 cmp	 dl, BYTE PTR [ecx+1]
  00180	75 0e		 jne	 SHORT $LN46@CheckMoveG
  00182	83 c0 02	 add	 eax, 2
  00185	83 c1 02	 add	 ecx, 2
  00188	84 d2		 test	 dl, dl
  0018a	75 e4		 jne	 SHORT $LL45@CheckMoveG
$LN47@CheckMoveG:
  0018c	33 c0		 xor	 eax, eax
  0018e	eb 05		 jmp	 SHORT $LN48@CheckMoveG
$LN46@CheckMoveG:
  00190	1b c0		 sbb	 eax, eax
  00192	83 d8 ff	 sbb	 eax, -1
$LN48@CheckMoveG:
  00195	85 c0		 test	 eax, eax
  00197	75 5e		 jne	 SHORT $LN3@CheckMoveG
$LN32@CheckMoveG:
  00199	5b		 pop	 ebx
  0019a	5f		 pop	 edi

; 1443 : 					{
; 1444 : 						return true;

  0019b	b0 01		 mov	 al, 1
  0019d	5e		 pop	 esi

; 1467 : 		}
; 1468 : 	}
; 1469 : 
; 1470 : 	return true;
; 1471 : }

  0019e	8b e5		 mov	 esp, ebp
  001a0	5d		 pop	 ebp
  001a1	c2 08 00	 ret	 8
$LN9@CheckMoveG:

; 1445 : 					}
; 1446 : 				}
; 1447 : 			}
; 1448 : 			else
; 1449 : 			{
; 1450 : 				for(int i = 0; i < this->iRegCount; i++)

  001a4	33 ff		 xor	 edi, edi
  001a6	39 7b 20	 cmp	 DWORD PTR [ebx+32], edi
  001a9	7e 4c		 jle	 SHORT $LN3@CheckMoveG
  001ab	8d b3 16 01 00
	00		 lea	 esi, DWORD PTR [ebx+278]
$LL5@CheckMoveG:

; 1451 : 				{
; 1452 : 					_GUILD_INFO_STRUCT* lpGuild = Guild.SearchGuild(this->reg_list[i].szGuildName);

  001b1	56		 push	 esi
  001b2	b9 00 00 00 00	 mov	 ecx, OFFSET ?Guild@@3VCGuildClass@@A ; Guild
  001b7	e8 00 00 00 00	 call	 ?SearchGuild@CGuildClass@@QAEPAU_GUILD_INFO_STRUCT@@PAD@Z ; CGuildClass::SearchGuild

; 1453 : 
; 1454 : 					if(!lpGuild)

  001bc	85 c0		 test	 eax, eax
  001be	74 2e		 je	 SHORT $LN4@CheckMoveG

; 1455 : 					{
; 1456 : 						continue;
; 1457 : 					}
; 1458 : 
; 1459 : 					if(!strcmp(this->reg_list[i].szGuildName, lpGuild->Name))

  001c0	8d 48 04	 lea	 ecx, DWORD PTR [eax+4]
  001c3	8b c6		 mov	 eax, esi
$LL49@CheckMoveG:
  001c5	8a 10		 mov	 dl, BYTE PTR [eax]
  001c7	3a 11		 cmp	 dl, BYTE PTR [ecx]
  001c9	75 1a		 jne	 SHORT $LN50@CheckMoveG
  001cb	84 d2		 test	 dl, dl
  001cd	74 12		 je	 SHORT $LN51@CheckMoveG
  001cf	8a 50 01	 mov	 dl, BYTE PTR [eax+1]
  001d2	3a 51 01	 cmp	 dl, BYTE PTR [ecx+1]
  001d5	75 0e		 jne	 SHORT $LN50@CheckMoveG
  001d7	83 c0 02	 add	 eax, 2
  001da	83 c1 02	 add	 ecx, 2
  001dd	84 d2		 test	 dl, dl
  001df	75 e4		 jne	 SHORT $LL49@CheckMoveG
$LN51@CheckMoveG:
  001e1	33 c0		 xor	 eax, eax
  001e3	eb 05		 jmp	 SHORT $LN52@CheckMoveG
$LN50@CheckMoveG:
  001e5	1b c0		 sbb	 eax, eax
  001e7	83 d8 ff	 sbb	 eax, -1
$LN52@CheckMoveG:
  001ea	85 c0		 test	 eax, eax
  001ec	74 ab		 je	 SHORT $LN32@CheckMoveG
$LN4@CheckMoveG:

; 1445 : 					}
; 1446 : 				}
; 1447 : 			}
; 1448 : 			else
; 1449 : 			{
; 1450 : 				for(int i = 0; i < this->iRegCount; i++)

  001ee	47		 inc	 edi
  001ef	83 c6 09	 add	 esi, 9
  001f2	3b 7b 20	 cmp	 edi, DWORD PTR [ebx+32]
  001f5	7c ba		 jl	 SHORT $LL5@CheckMoveG
$LN3@CheckMoveG:
  001f7	5b		 pop	 ebx
  001f8	5f		 pop	 edi

; 1460 : 					{
; 1461 : 						return true;
; 1462 : 					}
; 1463 : 				}
; 1464 : 			}
; 1465 : 
; 1466 : 			return false;

  001f9	32 c0		 xor	 al, al
  001fb	5e		 pop	 esi

; 1467 : 		}
; 1468 : 	}
; 1469 : 
; 1470 : 	return true;
; 1471 : }

  001fc	8b e5		 mov	 esp, ebp
  001fe	5d		 pop	 ebp
  001ff	c2 08 00	 ret	 8
?CheckMoveGateSiege@CDungeonSiege@@QAE_NHH@Z ENDP	; CDungeonSiege::CheckMoveGateSiege
_TEXT	ENDS
PUBLIC	_aIndex$GSCopy$
PUBLIC	__$ArrayPad$
PUBLIC	?GCVieweSiege@CDungeonSiege@@QAEXH@Z		; CDungeonSiege::GCVieweSiege
EXTRN	?gObjCheckViewport@@YAHHHH@Z:PROC		; gObjCheckViewport
EXTRN	__chkstk:PROC
; Function compile flags: /Ogtp
;	COMDAT ?GCVieweSiege@CDungeonSiege@@QAEXH@Z
_TEXT	SEGMENT
_this$ = -5028						; size = 4
_lpObj$ = -5024						; size = 4
tv347 = -5020						; size = 4
_aIndex$GSCopy$ = -5016					; size = 4
_datasize$ = -5012					; size = 4
_icount$ = -5005					; size = 1
_SendBuff$ = -5004					; size = 5000
__$ArrayPad$ = -4					; size = 4
_aIndex$ = 8						; size = 4
?GCVieweSiege@CDungeonSiege@@QAEXH@Z PROC		; CDungeonSiege::GCVieweSiege, COMDAT
; _this$ = ecx

; 1474 : {

  00000	55		 push	 ebp
  00001	8b ec		 mov	 ebp, esp
  00003	b8 a4 13 00 00	 mov	 eax, 5028		; 000013a4H
  00008	e8 00 00 00 00	 call	 __chkstk
  0000d	a1 00 00 00 00	 mov	 eax, DWORD PTR ___security_cookie
  00012	33 c5		 xor	 eax, ebp
  00014	89 45 fc	 mov	 DWORD PTR __$ArrayPad$[ebp], eax
  00017	8b 55 08	 mov	 edx, DWORD PTR _aIndex$[ebp]
  0001a	56		 push	 esi
  0001b	8b f1		 mov	 esi, ecx

; 1475 : 	if(!this->bEnable)

  0001d	80 7e 48 00	 cmp	 BYTE PTR [esi+72], 0
  00021	89 b5 5c ec ff
	ff		 mov	 DWORD PTR _this$[ebp], esi

; 1514 : 	{
; 1515 : 		return;
; 1516 : 	}
; 1517 : 
; 1518 : 	for(int n = 0; n < OBJMAX; n++)

  00027	89 95 68 ec ff
	ff		 mov	 DWORD PTR _aIndex$GSCopy$[ebp], edx
  0002d	0f 84 bf 01 00
	00		 je	 $LN14@GCVieweSie

; 1476 : 	{
; 1477 : 		return;
; 1478 : 	}
; 1479 : 
; 1480 : 	if(this->CheckStatus(eEVENTDUNGEON_CLOSE))

  00033	6a 00		 push	 0
  00035	e8 00 00 00 00	 call	 ?CheckStatus@CDungeonSiege@@QAE_NH@Z ; CDungeonSiege::CheckStatus
  0003a	84 c0		 test	 al, al
  0003c	0f 85 b0 01 00
	00		 jne	 $LN14@GCVieweSie

; 1481 : 	{
; 1482 : 		return;
; 1483 : 	}
; 1484 : 
; 1485 : 	BYTE SendBuff[5000];
; 1486 : 	int datasize = 6;

  00042	c7 85 6c ec ff
	ff 06 00 00 00	 mov	 DWORD PTR _datasize$[ebp], 6

; 1487 : 	BYTE icount = 0;

  0004c	88 85 73 ec ff
	ff		 mov	 BYTE PTR _icount$[ebp], al

; 1488 : 
; 1489 : 	if(OBJMAX_RANGE(aIndex) == 0)

  00052	85 d2		 test	 edx, edx
  00054	0f 88 98 01 00
	00		 js	 $LN14@GCVieweSie
  0005a	33 c0		 xor	 eax, eax
  0005c	81 fa 97 3a 00
	00		 cmp	 edx, 14999		; 00003a97H
  00062	0f 9e c0	 setle	 al
  00065	85 c0		 test	 eax, eax
  00067	0f 84 85 01 00
	00		 je	 $LN14@GCVieweSie

; 1490 : 	{
; 1491 : 		return;
; 1492 : 	}
; 1493 : 
; 1494 : 	LPOBJ lpObj = &gObj[aIndex];

  0006d	8b ca		 mov	 ecx, edx
  0006f	69 c9 50 2b 00
	00		 imul	 ecx, 11088		; 00002b50H
  00075	03 0d 00 00 00
	00		 add	 ecx, DWORD PTR ?gObj@@3PAUOBJECTSTRUCT@@A ; gObj

; 1495 : 
; 1496 : 	if(lpObj->Connected < PLAYER_PLAYING)

  0007b	83 79 04 03	 cmp	 DWORD PTR [ecx+4], 3
  0007f	89 8d 60 ec ff
	ff		 mov	 DWORD PTR _lpObj$[ebp], ecx
  00085	0f 8c 67 01 00
	00		 jl	 $LN14@GCVieweSie

; 1497 : 	{
; 1498 : 		return;
; 1499 : 	}
; 1500 : 
; 1501 : 	if(lpObj->MapNumber != this->m_EventMapNumber)

  0008b	0f b6 81 49 01
	00 00		 movzx	 eax, BYTE PTR [ecx+329]
  00092	3b 46 78	 cmp	 eax, DWORD PTR [esi+120]
  00095	0f 85 57 01 00
	00		 jne	 $LN14@GCVieweSie

; 1502 : 	{
; 1503 : 		return;
; 1504 : 	}
; 1505 : 
; 1506 : #if(OFFLINE_MODE == TRUE)
; 1507 : 	if(lpObj->m_OfflineMode == true)

  0009b	80 b9 d4 28 00
	00 01		 cmp	 BYTE PTR [ecx+10452], 1
  000a2	0f 84 4a 01 00
	00		 je	 $LN14@GCVieweSie

; 1508 : 	{
; 1509 : 		return;
; 1510 : 	}
; 1511 : #endif
; 1512 : 
; 1513 : 	if(lpObj->OffExp != 0 || lpObj->OffTrade != 0)

  000a8	83 b9 98 22 00
	00 00		 cmp	 DWORD PTR [ecx+8856], 0
  000af	0f 85 3d 01 00
	00		 jne	 $LN14@GCVieweSie
  000b5	83 b9 ac 22 00
	00 00		 cmp	 DWORD PTR [ecx+8876], 0
  000bc	0f 85 30 01 00
	00		 jne	 $LN14@GCVieweSie

; 1514 : 	{
; 1515 : 		return;
; 1516 : 	}
; 1517 : 
; 1518 : 	for(int n = 0; n < OBJMAX; n++)

  000c2	53		 push	 ebx
  000c3	33 db		 xor	 ebx, ebx
  000c5	33 d2		 xor	 edx, edx
  000c7	57		 push	 edi
  000c8	8d bd 7a ec ff
	ff		 lea	 edi, DWORD PTR _SendBuff$[ebp+6]
  000ce	89 95 64 ec ff
	ff		 mov	 DWORD PTR tv347[ebp], edx
  000d4	eb 0a 8d a4 24
	00 00 00 00 8d
	49 00		 npad	 12
$LL33@GCVieweSie:

; 1519 : 	{
; 1520 : 		LPOBJ lpTempObj = &gObj[n];

  000e0	a1 00 00 00 00	 mov	 eax, DWORD PTR ?gObj@@3PAUOBJECTSTRUCT@@A ; gObj

; 1521 : 
; 1522 : 		if(lpTempObj->Connected == PLAYER_PLAYING)

  000e5	83 7c 02 04 03	 cmp	 DWORD PTR [edx+eax+4], 3
  000ea	8d 34 02	 lea	 esi, DWORD PTR [edx+eax]
  000ed	0f 85 96 00 00
	00		 jne	 $LN12@GCVieweSie

; 1523 : 		{
; 1524 : 			if(lpTempObj->m_State == 1 || lpTempObj->m_State == 2)

  000f3	8b 86 20 02 00
	00		 mov	 eax, DWORD PTR [esi+544]
  000f9	83 f8 01	 cmp	 eax, 1
  000fc	74 09		 je	 SHORT $LN8@GCVieweSie
  000fe	83 f8 02	 cmp	 eax, 2
  00101	0f 85 82 00 00
	00		 jne	 $LN12@GCVieweSie
$LN8@GCVieweSie:

; 1525 : 			{
; 1526 : 				if(lpObj->MapNumber == lpTempObj->MapNumber)

  00107	8a 81 49 01 00
	00		 mov	 al, BYTE PTR [ecx+329]
  0010d	3a 86 49 01 00
	00		 cmp	 al, BYTE PTR [esi+329]
  00113	75 74		 jne	 SHORT $LN12@GCVieweSie

; 1527 : 				{
; 1528 : 					if(gObjCheckViewport(aIndex,lpTempObj->X,lpTempObj->Y) == 1)

  00115	0f bf 8e 46 01
	00 00		 movsx	 ecx, WORD PTR [esi+326]
  0011c	0f bf 96 44 01
	00 00		 movsx	 edx, WORD PTR [esi+324]
  00123	8b 85 68 ec ff
	ff		 mov	 eax, DWORD PTR _aIndex$GSCopy$[ebp]
  00129	51		 push	 ecx
  0012a	52		 push	 edx
  0012b	50		 push	 eax
  0012c	e8 00 00 00 00	 call	 ?gObjCheckViewport@@YAHHHH@Z ; gObjCheckViewport
  00131	83 c4 0c	 add	 esp, 12			; 0000000cH
  00134	83 f8 01	 cmp	 eax, 1
  00137	75 44		 jne	 SHORT $LN29@GCVieweSie

; 1529 : 					{
; 1530 : 						if(lpTempObj->Type != OBJ_USER || lpTempObj->GuildNumber < 1) 

  00139	66 39 46 68	 cmp	 WORD PTR [esi+104], ax
  0013d	75 3e		 jne	 SHORT $LN29@GCVieweSie
  0013f	8b 86 34 04 00
	00		 mov	 eax, DWORD PTR [esi+1076]
  00145	83 f8 01	 cmp	 eax, 1
  00148	7c 33		 jl	 SHORT $LN29@GCVieweSie

; 1531 : 						{
; 1532 : 							continue;
; 1533 : 						}
; 1534 : 
; 1535 : 						if(lpTempObj->MapNumber != this->m_EventMapNumber)

  0014a	0f b6 8e 49 01
	00 00		 movzx	 ecx, BYTE PTR [esi+329]
  00151	8b 95 5c ec ff
	ff		 mov	 edx, DWORD PTR _this$[ebp]
  00157	3b 4a 78	 cmp	 ecx, DWORD PTR [edx+120]
  0015a	75 21		 jne	 SHORT $LN29@GCVieweSie

; 1536 : 						{
; 1537 : 							continue;
; 1538 : 						}
; 1539 : 
; 1540 : 						DUNGEON_VIEWE Vp;
; 1541 : 		
; 1542 : 						Vp.aIndex = n;
; 1543 : 						Vp.GuildNumber = lpTempObj->GuildNumber;
; 1544 : 
; 1545 : 						memcpy(&SendBuff[datasize],&Vp,sizeof(Vp));
; 1546 : 						datasize += sizeof(Vp);

  0015c	83 85 6c ec ff
	ff 08		 add	 DWORD PTR _datasize$[ebp], 8
  00163	89 47 04	 mov	 DWORD PTR [edi+4], eax

; 1547 : 
; 1548 : 						icount++;

  00166	8a 85 73 ec ff
	ff		 mov	 al, BYTE PTR _icount$[ebp]
  0016c	fe c0		 inc	 al
  0016e	89 1f		 mov	 DWORD PTR [edi], ebx
  00170	83 c7 08	 add	 edi, 8
  00173	88 85 73 ec ff
	ff		 mov	 BYTE PTR _icount$[ebp], al

; 1549 : 
; 1550 : 						if(icount == 75) 

  00179	3c 4b		 cmp	 al, 75			; 0000004bH
  0017b	74 25		 je	 SHORT $LN31@GCVieweSie
$LN29@GCVieweSie:
  0017d	8b 8d 60 ec ff
	ff		 mov	 ecx, DWORD PTR _lpObj$[ebp]
  00183	8b 95 64 ec ff
	ff		 mov	 edx, DWORD PTR tv347[ebp]
$LN12@GCVieweSie:

; 1514 : 	{
; 1515 : 		return;
; 1516 : 	}
; 1517 : 
; 1518 : 	for(int n = 0; n < OBJMAX; n++)

  00189	81 c2 50 2b 00
	00		 add	 edx, 11088		; 00002b50H
  0018f	43		 inc	 ebx
  00190	89 95 64 ec ff
	ff		 mov	 DWORD PTR tv347[ebp], edx
  00196	81 fa 80 d7 e9
	09		 cmp	 edx, 166320000		; 09e9d780H
  0019c	0f 8c 3e ff ff
	ff		 jl	 $LL33@GCVieweSie
$LN31@GCVieweSie:

; 1551 : 						{
; 1552 : 							break;
; 1553 : 						}
; 1554 : 					}
; 1555 : 				}
; 1556 : 			}
; 1557 : 		}
; 1558 : 	}
; 1559 : 
; 1560 : 	if(icount > 0)

  001a2	8a 8d 73 ec ff
	ff		 mov	 cl, BYTE PTR _icount$[ebp]
  001a8	5f		 pop	 edi
  001a9	5b		 pop	 ebx
  001aa	84 c9		 test	 cl, cl
  001ac	74 44		 je	 SHORT $LN14@GCVieweSie

; 1561 : 	{
; 1562 : 		SendBuff[0] = 0xC2;
; 1563 : 		SendBuff[1] = SET_NUMBERH(datasize);

  001ae	8b 85 6c ec ff
	ff		 mov	 eax, DWORD PTR _datasize$[ebp]

; 1564 : 		SendBuff[2] = SET_NUMBERL(datasize);
; 1565 : 		SendBuff[3] = 0xFA;
; 1566 : 		SendBuff[4] = 0x0C;
; 1567 : 		SendBuff[5] = icount;
; 1568 : 		DataSend(aIndex, SendBuff, datasize);

  001b4	50		 push	 eax
  001b5	8b d0		 mov	 edx, eax
  001b7	88 85 76 ec ff
	ff		 mov	 BYTE PTR _SendBuff$[ebp+2], al
  001bd	8d 85 74 ec ff
	ff		 lea	 eax, DWORD PTR _SendBuff$[ebp]
  001c3	88 8d 79 ec ff
	ff		 mov	 BYTE PTR _SendBuff$[ebp+5], cl
  001c9	8b 8d 68 ec ff
	ff		 mov	 ecx, DWORD PTR _aIndex$GSCopy$[ebp]
  001cf	50		 push	 eax
  001d0	c1 ea 08	 shr	 edx, 8
  001d3	51		 push	 ecx
  001d4	c6 85 74 ec ff
	ff c2		 mov	 BYTE PTR _SendBuff$[ebp], 194 ; 000000c2H
  001db	88 95 75 ec ff
	ff		 mov	 BYTE PTR _SendBuff$[ebp+1], dl
  001e1	66 c7 85 77 ec
	ff ff fa 0c	 mov	 WORD PTR _SendBuff$[ebp+3], 3322 ; 00000cfaH
  001ea	e8 00 00 00 00	 call	 ?DataSend@@YAHHPAEK@Z	; DataSend
  001ef	83 c4 0c	 add	 esp, 12			; 0000000cH
$LN14@GCVieweSie:

; 1569 : 	}
; 1570 : }

  001f2	8b 4d fc	 mov	 ecx, DWORD PTR __$ArrayPad$[ebp]
  001f5	33 cd		 xor	 ecx, ebp
  001f7	5e		 pop	 esi
  001f8	e8 00 00 00 00	 call	 @__security_check_cookie@4
  001fd	8b e5		 mov	 esp, ebp
  001ff	5d		 pop	 ebp
  00200	c2 04 00	 ret	 4
?GCVieweSiege@CDungeonSiege@@QAEXH@Z ENDP		; CDungeonSiege::GCVieweSiege
_TEXT	ENDS
PUBLIC	?GCEventState@CDungeonSiege@@QAEXXZ		; CDungeonSiege::GCEventState
; Function compile flags: /Ogtp
;	COMDAT ?GCEventState@CDungeonSiege@@QAEXXZ
_TEXT	SEGMENT
_pMsg$212987 = -8					; size = 8
?GCEventState@CDungeonSiege@@QAEXXZ PROC		; CDungeonSiege::GCEventState, COMDAT
; _this$ = ecx

; 1654 : {

  00000	55		 push	 ebp
  00001	8b ec		 mov	 ebp, esp

; 1655 : 	for(int n = OBJ_STARTUSERINDZT; n < OBJMAX; n++)

  00003	a1 00 00 00 00	 mov	 eax, DWORD PTR ?gObj@@3PAUOBJECTSTRUCT@@A ; gObj
  00008	83 ec 08	 sub	 esp, 8
  0000b	53		 push	 ebx
  0000c	56		 push	 esi
  0000d	57		 push	 edi
  0000e	8b d9		 mov	 ebx, ecx
  00010	bf b0 36 00 00	 mov	 edi, 14000		; 000036b0H
  00015	be 00 a7 40 09	 mov	 esi, 155232000		; 0940a700H
  0001a	8d 9b 00 00 00
	00		 npad	 6
$LL5@GCEventSta:

; 1656 : 	{
; 1657 : 		LPOBJ lpTempObj = &gObj[n];
; 1658 : 
; 1659 : 		if(lpTempObj->Connected < PLAYER_PLAYING || lpTempObj->Type != OBJ_USER)

  00020	83 7c 06 04 03	 cmp	 DWORD PTR [esi+eax+4], 3
  00025	7c 28		 jl	 SHORT $LN4@GCEventSta
  00027	66 83 7c 06 68
	01		 cmp	 WORD PTR [esi+eax+104], 1
  0002d	75 20		 jne	 SHORT $LN4@GCEventSta

; 1660 : 		{
; 1661 : 			continue;
; 1662 : 		}	
; 1663 : 
; 1664 : 		PMSG_DUNGEON_SIEGE_STATE pMsg;
; 1665 : 		pMsg.h.set((LPBYTE)&pMsg, 0xFB, 0x57, sizeof(pMsg));
; 1666 : 		pMsg.EventState = this->iEventStatus;

  0002f	8b 03		 mov	 eax, DWORD PTR [ebx]

; 1667 : 		DataSend(n, (LPBYTE)&pMsg, sizeof(pMsg));

  00031	6a 08		 push	 8
  00033	8d 4d f8	 lea	 ecx, DWORD PTR _pMsg$212987[ebp]
  00036	51		 push	 ecx
  00037	57		 push	 edi
  00038	c7 45 f8 c1 08
	fb 57		 mov	 DWORD PTR _pMsg$212987[ebp], 1476069569 ; 57fb08c1H
  0003f	89 45 fc	 mov	 DWORD PTR _pMsg$212987[ebp+4], eax
  00042	e8 00 00 00 00	 call	 ?DataSend@@YAHHPAEK@Z	; DataSend
  00047	a1 00 00 00 00	 mov	 eax, DWORD PTR ?gObj@@3PAUOBJECTSTRUCT@@A ; gObj
  0004c	83 c4 0c	 add	 esp, 12			; 0000000cH
$LN4@GCEventSta:

; 1655 : 	for(int n = OBJ_STARTUSERINDZT; n < OBJMAX; n++)

  0004f	81 c6 50 2b 00
	00		 add	 esi, 11088		; 00002b50H
  00055	47		 inc	 edi
  00056	81 fe 80 d7 e9
	09		 cmp	 esi, 166320000		; 09e9d780H
  0005c	7c c2		 jl	 SHORT $LL5@GCEventSta
  0005e	5f		 pop	 edi
  0005f	5e		 pop	 esi
  00060	5b		 pop	 ebx

; 1668 : 	}
; 1669 : }

  00061	8b e5		 mov	 esp, ebp
  00063	5d		 pop	 ebp
  00064	c3		 ret	 0
?GCEventState@CDungeonSiege@@QAEXXZ ENDP		; CDungeonSiege::GCEventState
_TEXT	ENDS
PUBLIC	?SiegeClearScore@CDungeonSiege@@QAEXXZ		; CDungeonSiege::SiegeClearScore
; Function compile flags: /Ogtp
;	COMDAT ?SiegeClearScore@CDungeonSiege@@QAEXXZ
_TEXT	SEGMENT
tv241 = -4						; size = 4
?SiegeClearScore@CDungeonSiege@@QAEXXZ PROC		; CDungeonSiege::SiegeClearScore, COMDAT
; _this$ = ecx

; 1672 : {

  00000	55		 push	 ebp
  00001	8b ec		 mov	 ebp, esp
  00003	51		 push	 ecx
  00004	53		 push	 ebx
  00005	8b d9		 mov	 ebx, ecx
  00007	56		 push	 esi

; 1673 : 	for(int n = OBJ_STARTUSERINDZT; n < OBJMAX; n++)

  00008	b9 00 a7 40 09	 mov	 ecx, 155232000		; 0940a700H
  0000d	57		 push	 edi
  0000e	89 4d fc	 mov	 DWORD PTR tv241[ebp], ecx
$LL9@SiegeClear:

; 1674 : 	{
; 1675 : 		LPOBJ lpTempObj = &gObj[n];

  00011	a1 00 00 00 00	 mov	 eax, DWORD PTR ?gObj@@3PAUOBJECTSTRUCT@@A ; gObj
  00016	03 c1		 add	 eax, ecx

; 1676 : 
; 1677 : 		if(lpTempObj->Connected < PLAYER_PLAYING || lpTempObj->Type != OBJ_USER)

  00018	83 78 04 03	 cmp	 DWORD PTR [eax+4], 3
  0001c	7c 47		 jl	 SHORT $LN8@SiegeClear
  0001e	66 83 78 68 01	 cmp	 WORD PTR [eax+104], 1
  00023	75 40		 jne	 SHORT $LN8@SiegeClear

; 1678 : 		{
; 1679 : 			continue;
; 1680 : 		}	
; 1681 : 
; 1682 : 		lpTempObj->DSiege.iScore = 0;

  00025	33 ff		 xor	 edi, edi
  00027	89 b8 04 29 00
	00		 mov	 DWORD PTR [eax+10500], edi

; 1683 : 		lpTempObj->DSiege.iScore2 = 0;

  0002d	89 b8 08 29 00
	00		 mov	 DWORD PTR [eax+10504], edi

; 1684 : 
; 1685 : 		for(int i = 0; i < this->iRegCount; i++)

  00033	39 7b 20	 cmp	 DWORD PTR [ebx+32], edi
  00036	7e 2d		 jle	 SHORT $LN8@SiegeClear

; 1678 : 		{
; 1679 : 			continue;
; 1680 : 		}	
; 1681 : 
; 1682 : 		lpTempObj->DSiege.iScore = 0;

  00038	8d b3 16 01 00
	00		 lea	 esi, DWORD PTR [ebx+278]
  0003e	8b ff		 npad	 2
$LL4@SiegeClear:

; 1686 : 		{
; 1687 : 			_GUILD_INFO_STRUCT* lpGuild = Guild.SearchGuild(this->reg_list[i].szGuildName);

  00040	56		 push	 esi
  00041	b9 00 00 00 00	 mov	 ecx, OFFSET ?Guild@@3VCGuildClass@@A ; Guild
  00046	e8 00 00 00 00	 call	 ?SearchGuild@CGuildClass@@QAEPAU_GUILD_INFO_STRUCT@@PAD@Z ; CGuildClass::SearchGuild

; 1688 : 
; 1689 : 			if(!lpGuild)

  0004b	85 c0		 test	 eax, eax
  0004d	74 0a		 je	 SHORT $LN3@SiegeClear

; 1690 : 			{
; 1691 : 				continue;
; 1692 : 			}
; 1693 : 
; 1694 : 			lpGuild->DungeonSiege.iScore = 0;

  0004f	c7 80 48 07 00
	00 00 00 00 00	 mov	 DWORD PTR [eax+1864], 0
$LN3@SiegeClear:

; 1684 : 
; 1685 : 		for(int i = 0; i < this->iRegCount; i++)

  00059	47		 inc	 edi
  0005a	83 c6 09	 add	 esi, 9
  0005d	3b 7b 20	 cmp	 edi, DWORD PTR [ebx+32]
  00060	7c de		 jl	 SHORT $LL4@SiegeClear
  00062	8b 4d fc	 mov	 ecx, DWORD PTR tv241[ebp]
$LN8@SiegeClear:

; 1673 : 	for(int n = OBJ_STARTUSERINDZT; n < OBJMAX; n++)

  00065	81 c1 50 2b 00
	00		 add	 ecx, 11088		; 00002b50H
  0006b	89 4d fc	 mov	 DWORD PTR tv241[ebp], ecx
  0006e	81 f9 80 d7 e9
	09		 cmp	 ecx, 166320000		; 09e9d780H
  00074	7c 9b		 jl	 SHORT $LL9@SiegeClear

; 1695 : 		}
; 1696 : 	}
; 1697 : 
; 1698 : 	this->aIndexFinal1 = -1;

  00076	83 c8 ff	 or	 eax, -1
  00079	5f		 pop	 edi
  0007a	5e		 pop	 esi
  0007b	89 43 38	 mov	 DWORD PTR [ebx+56], eax

; 1699 : 	this->aIndexFinal2 = -1;

  0007e	89 43 3c	 mov	 DWORD PTR [ebx+60], eax

; 1700 : 	this->aGuildFinal1 = -1;

  00081	89 43 40	 mov	 DWORD PTR [ebx+64], eax

; 1701 : 	this->aGuildFinal2 = -1;

  00084	89 43 44	 mov	 DWORD PTR [ebx+68], eax
  00087	5b		 pop	 ebx

; 1702 : }

  00088	8b e5		 mov	 esp, ebp
  0008a	5d		 pop	 ebp
  0008b	c3		 ret	 0
?SiegeClearScore@CDungeonSiege@@QAEXXZ ENDP		; CDungeonSiege::SiegeClearScore
_TEXT	ENDS
PUBLIC	?GuildBuffCharacter@CDungeonSiege@@QAEXH@Z	; CDungeonSiege::GuildBuffCharacter
; Function compile flags: /Ogtp
;	COMDAT ?GuildBuffCharacter@CDungeonSiege@@QAEXH@Z
_TEXT	SEGMENT
_aIndex$ = 8						; size = 4
?GuildBuffCharacter@CDungeonSiege@@QAEXH@Z PROC		; CDungeonSiege::GuildBuffCharacter, COMDAT
; _this$ = ecx

; 1705 : {

  00000	55		 push	 ebp
  00001	8b ec		 mov	 ebp, esp
  00003	53		 push	 ebx
  00004	8b d9		 mov	 ebx, ecx

; 1706 : 	if(!this->m_BuffEnable)

  00006	83 bb a8 00 00
	00 00		 cmp	 DWORD PTR [ebx+168], 0
  0000d	0f 84 7c 01 00
	00		 je	 $LN1@GuildBuffC

; 1707 : 	{
; 1708 : 		return;
; 1709 : 	}
; 1710 : 
; 1711 : 	if(!OBJMAX_RANGE(aIndex))

  00013	56		 push	 esi
  00014	8b 75 08	 mov	 esi, DWORD PTR _aIndex$[ebp]
  00017	85 f6		 test	 esi, esi
  00019	0f 88 6f 01 00
	00		 js	 $LN11@GuildBuffC
  0001f	33 c0		 xor	 eax, eax
  00021	81 fe 97 3a 00
	00		 cmp	 esi, 14999		; 00003a97H
  00027	0f 9e c0	 setle	 al
  0002a	85 c0		 test	 eax, eax
  0002c	0f 84 5c 01 00
	00		 je	 $LN11@GuildBuffC

; 1712 : 	{
; 1713 : 		return;
; 1714 : 	}
; 1715 : 
; 1716 : 	LPOBJ lpUser = &gObj[aIndex];

  00032	69 f6 50 2b 00
	00		 imul	 esi, 11088		; 00002b50H
  00038	03 35 00 00 00
	00		 add	 esi, DWORD PTR ?gObj@@3PAUOBJECTSTRUCT@@A ; gObj

; 1717 : 
; 1718 : 	if(lpUser->Connected < PLAYER_PLAYING)

  0003e	83 7e 04 03	 cmp	 DWORD PTR [esi+4], 3
  00042	0f 8c 46 01 00
	00		 jl	 $LN11@GuildBuffC

; 1719 : 	{
; 1720 : 		return;
; 1721 : 	}
; 1722 : 
; 1723 : 	if(gObjSearchActiveEffect(lpUser, AT_DUNGEON_BUFF) == FALSE)

  00048	68 b8 00 00 00	 push	 184			; 000000b8H
  0004d	56		 push	 esi
  0004e	e8 00 00 00 00	 call	 ?gObjSearchActiveEffect@@YAEPAUOBJECTSTRUCT@@H@Z ; gObjSearchActiveEffect
  00053	83 c4 08	 add	 esp, 8
  00056	84 c0		 test	 al, al
  00058	0f 84 30 01 00
	00		 je	 $LN11@GuildBuffC

; 1724 : 	{
; 1725 : 		return;
; 1726 : 	}
; 1727 : 
; 1728 : 	int AddProcentDamage = this->m_BuffPlusAttackPercent;

  0005e	8b 8b ac 00 00
	00		 mov	 ecx, DWORD PTR [ebx+172]
  00064	57		 push	 edi

; 1729 : 	
; 1730 : 	if(AddProcentDamage > 0)

  00065	85 c9		 test	 ecx, ecx
  00067	0f 8e ce 00 00
	00		 jle	 $LN2@GuildBuffC

; 1731 : 	{
; 1732 : 		lpUser->m_AttackDamageMaxLeft += ( lpUser->m_AttackDamageMaxLeft * AddProcentDamage ) / 100;

  0006d	8b be 78 04 00
	00		 mov	 edi, DWORD PTR [esi+1144]
  00073	8b d7		 mov	 edx, edi
  00075	0f af d1	 imul	 edx, ecx
  00078	b8 1f 85 eb 51	 mov	 eax, 1374389535		; 51eb851fH
  0007d	f7 ea		 imul	 edx
  0007f	c1 fa 05	 sar	 edx, 5
  00082	8b c2		 mov	 eax, edx
  00084	c1 e8 1f	 shr	 eax, 31			; 0000001fH
  00087	03 c2		 add	 eax, edx
  00089	03 c7		 add	 eax, edi

; 1733 : 		lpUser->m_AttackDamageMinLeft += ( lpUser->m_AttackDamageMinLeft * AddProcentDamage ) / 100;

  0008b	8b be 7c 04 00
	00		 mov	 edi, DWORD PTR [esi+1148]
  00091	89 86 78 04 00
	00		 mov	 DWORD PTR [esi+1144], eax
  00097	8b d7		 mov	 edx, edi
  00099	0f af d1	 imul	 edx, ecx
  0009c	b8 1f 85 eb 51	 mov	 eax, 1374389535		; 51eb851fH
  000a1	f7 ea		 imul	 edx
  000a3	c1 fa 05	 sar	 edx, 5
  000a6	8b c2		 mov	 eax, edx
  000a8	c1 e8 1f	 shr	 eax, 31			; 0000001fH
  000ab	03 c2		 add	 eax, edx
  000ad	03 c7		 add	 eax, edi

; 1734 : 		lpUser->m_AttackDamageMaxRight += ( lpUser->m_AttackDamageMaxRight * AddProcentDamage ) / 100;

  000af	8b be 80 04 00
	00		 mov	 edi, DWORD PTR [esi+1152]
  000b5	89 86 7c 04 00
	00		 mov	 DWORD PTR [esi+1148], eax
  000bb	8b d7		 mov	 edx, edi
  000bd	0f af d1	 imul	 edx, ecx
  000c0	b8 1f 85 eb 51	 mov	 eax, 1374389535		; 51eb851fH
  000c5	f7 ea		 imul	 edx
  000c7	c1 fa 05	 sar	 edx, 5
  000ca	8b c2		 mov	 eax, edx
  000cc	c1 e8 1f	 shr	 eax, 31			; 0000001fH
  000cf	03 c2		 add	 eax, edx
  000d1	03 c7		 add	 eax, edi

; 1735 : 		lpUser->m_AttackDamageMinRight += ( lpUser->m_AttackDamageMinRight * AddProcentDamage ) / 100;

  000d3	8b be 84 04 00
	00		 mov	 edi, DWORD PTR [esi+1156]
  000d9	89 86 80 04 00
	00		 mov	 DWORD PTR [esi+1152], eax
  000df	8b d7		 mov	 edx, edi
  000e1	0f af d1	 imul	 edx, ecx
  000e4	b8 1f 85 eb 51	 mov	 eax, 1374389535		; 51eb851fH
  000e9	f7 ea		 imul	 edx
  000eb	c1 fa 05	 sar	 edx, 5
  000ee	8b c2		 mov	 eax, edx
  000f0	c1 e8 1f	 shr	 eax, 31			; 0000001fH
  000f3	03 c2		 add	 eax, edx
  000f5	03 c7		 add	 eax, edi

; 1736 : 		lpUser->m_MagicDamageMin += ( lpUser->m_MagicDamageMin * AddProcentDamage ) / 100;

  000f7	8b be 68 04 00
	00		 mov	 edi, DWORD PTR [esi+1128]
  000fd	8b d7		 mov	 edx, edi
  000ff	0f af d1	 imul	 edx, ecx
  00102	89 86 84 04 00
	00		 mov	 DWORD PTR [esi+1156], eax
  00108	b8 1f 85 eb 51	 mov	 eax, 1374389535		; 51eb851fH
  0010d	f7 ea		 imul	 edx
  0010f	c1 fa 05	 sar	 edx, 5
  00112	8b c2		 mov	 eax, edx
  00114	c1 e8 1f	 shr	 eax, 31			; 0000001fH
  00117	03 c2		 add	 eax, edx
  00119	03 c7		 add	 eax, edi

; 1737 : 		lpUser->m_MagicDamageMax += ( lpUser->m_MagicDamageMin * AddProcentDamage ) / 100;

  0011b	0f af c8	 imul	 ecx, eax
  0011e	89 86 68 04 00
	00		 mov	 DWORD PTR [esi+1128], eax
  00124	b8 1f 85 eb 51	 mov	 eax, 1374389535		; 51eb851fH
  00129	f7 e9		 imul	 ecx
  0012b	c1 fa 05	 sar	 edx, 5
  0012e	8b ca		 mov	 ecx, edx
  00130	c1 e9 1f	 shr	 ecx, 31			; 0000001fH
  00133	03 ca		 add	 ecx, edx
  00135	01 8e 6c 04 00
	00		 add	 DWORD PTR [esi+1132], ecx
$LN2@GuildBuffC:

; 1738 : 	}
; 1739 : 
; 1740 : 	int AddProcentDefence = this->m_BuffPlusDefencePercent;

  0013b	8b 9b b0 00 00
	00		 mov	 ebx, DWORD PTR [ebx+176]

; 1741 : 
; 1742 : 	if(AddProcentDefence > 0)

  00141	85 db		 test	 ebx, ebx
  00143	7e 48		 jle	 SHORT $LN12@GuildBuffC

; 1743 : 	{
; 1744 : 		lpUser->m_Defense += ( lpUser->m_Defense * AddProcentDefence ) / 100;

  00145	8b be 94 04 00
	00		 mov	 edi, DWORD PTR [esi+1172]
  0014b	8b cf		 mov	 ecx, edi
  0014d	0f af cb	 imul	 ecx, ebx
  00150	b8 1f 85 eb 51	 mov	 eax, 1374389535		; 51eb851fH
  00155	f7 e9		 imul	 ecx
  00157	c1 fa 05	 sar	 edx, 5
  0015a	8b c2		 mov	 eax, edx
  0015c	c1 e8 1f	 shr	 eax, 31			; 0000001fH
  0015f	03 c2		 add	 eax, edx
  00161	03 c7		 add	 eax, edi

; 1745 : 		lpUser->m_MagicDefense += ( lpUser->m_MagicDefense * AddProcentDefence ) / 100;

  00163	8b be 98 04 00
	00		 mov	 edi, DWORD PTR [esi+1176]
  00169	8b cf		 mov	 ecx, edi
  0016b	0f af cb	 imul	 ecx, ebx
  0016e	89 86 94 04 00
	00		 mov	 DWORD PTR [esi+1172], eax
  00174	b8 1f 85 eb 51	 mov	 eax, 1374389535		; 51eb851fH
  00179	f7 e9		 imul	 ecx
  0017b	c1 fa 05	 sar	 edx, 5
  0017e	8b ca		 mov	 ecx, edx
  00180	c1 e9 1f	 shr	 ecx, 31			; 0000001fH
  00183	03 ca		 add	 ecx, edx
  00185	03 cf		 add	 ecx, edi
  00187	89 8e 98 04 00
	00		 mov	 DWORD PTR [esi+1176], ecx
$LN12@GuildBuffC:
  0018d	5f		 pop	 edi
$LN11@GuildBuffC:
  0018e	5e		 pop	 esi
$LN1@GuildBuffC:
  0018f	5b		 pop	 ebx

; 1746 : 	}
; 1747 : }

  00190	5d		 pop	 ebp
  00191	c2 04 00	 ret	 4
?GuildBuffCharacter@CDungeonSiege@@QAEXH@Z ENDP		; CDungeonSiege::GuildBuffCharacter
_TEXT	ENDS
PUBLIC	?RewardSiege@CDungeonSiege@@QAEXH@Z		; CDungeonSiege::RewardSiege
EXTRN	?ZtUserDataSend@@YAXH@Z:PROC			; ZtUserDataSend
EXTRN	?GDSaveUserInfo@GameShop@@QAEXH@Z:PROC		; GameShop::GDSaveUserInfo
EXTRN	?gGameShop@@3VGameShop@@A:BYTE			; gGameShop
EXTRN	?ItemSerialCreateSend@@YAXHEEEHEEEEEHEE@Z:PROC	; ItemSerialCreateSend
EXTRN	__fltused:DWORD
; Function compile flags: /Ogtp
;	COMDAT ?RewardSiege@CDungeonSiege@@QAEXH@Z
_TEXT	SEGMENT
tv292 = 8						; size = 4
tv281 = 8						; size = 4
tv272 = 8						; size = 4
tv263 = 8						; size = 4
_aIndex$ = 8						; size = 4
?RewardSiege@CDungeonSiege@@QAEXH@Z PROC		; CDungeonSiege::RewardSiege, COMDAT
; _this$ = ecx

; 1750 : {

  00000	55		 push	 ebp
  00001	8b ec		 mov	 ebp, esp
  00003	56		 push	 esi
  00004	8b f1		 mov	 esi, ecx

; 1751 : 	if(!this->m_RewardEnable)

  00006	83 be b4 00 00
	00 00		 cmp	 DWORD PTR [esi+180], 0
  0000d	0f 84 28 01 00
	00		 je	 $LN11@RewardSieg

; 1752 : 	{
; 1753 : 		return;
; 1754 : 	}
; 1755 : 
; 1756 : 	if(!OBJMAX_RANGE(aIndex))

  00013	53		 push	 ebx
  00014	8b 5d 08	 mov	 ebx, DWORD PTR _aIndex$[ebp]
  00017	85 db		 test	 ebx, ebx
  00019	0f 88 1b 01 00
	00		 js	 $LN15@RewardSieg
  0001f	33 c0		 xor	 eax, eax
  00021	81 fb 97 3a 00
	00		 cmp	 ebx, 14999		; 00003a97H
  00027	0f 9e c0	 setle	 al
  0002a	85 c0		 test	 eax, eax
  0002c	0f 84 08 01 00
	00		 je	 $LN15@RewardSieg

; 1757 : 	{
; 1758 : 		return;
; 1759 : 	}
; 1760 : 
; 1761 : 	LPOBJ lpUser = &gObj[aIndex];

  00032	57		 push	 edi
  00033	8b fb		 mov	 edi, ebx
  00035	69 ff 50 2b 00
	00		 imul	 edi, 11088		; 00002b50H
  0003b	03 3d 00 00 00
	00		 add	 edi, DWORD PTR ?gObj@@3PAUOBJECTSTRUCT@@A ; gObj

; 1762 : 
; 1763 : 	if(lpUser->Connected < PLAYER_PLAYING)

  00041	83 7f 04 03	 cmp	 DWORD PTR [edi+4], 3
  00045	0f 8c ee 00 00
	00		 jl	 $LN16@RewardSieg

; 1764 : 	{
; 1765 : 		return;
; 1766 : 	}
; 1767 : 
; 1768 : 	if(this->m_RewardItemEnable)

  0004b	83 be b8 00 00
	00 00		 cmp	 DWORD PTR [esi+184], 0
  00052	74 46		 je	 SHORT $LN7@RewardSieg

; 1769 : 	{
; 1770 : 		ItemSerialCreateSend(aIndex, lpUser->MapNumber, lpUser->X, lpUser->Y, ITEMGET(this->m_RewardItemType,this->m_RewardItemIndex), this->m_RewardItemLevel, 0, 0, 0, 0, aIndex, 0, 0);

  00054	0f b6 86 c4 00
	00 00		 movzx	 eax, BYTE PTR [esi+196]
  0005b	8b 8e bc 00 00
	00		 mov	 ecx, DWORD PTR [esi+188]
  00061	0f b6 97 46 01
	00 00		 movzx	 edx, BYTE PTR [edi+326]
  00068	6a 00		 push	 0
  0006a	6a 00		 push	 0
  0006c	53		 push	 ebx
  0006d	6a 00		 push	 0
  0006f	6a 00		 push	 0
  00071	6a 00		 push	 0
  00073	6a 00		 push	 0
  00075	50		 push	 eax
  00076	0f b6 87 44 01
	00 00		 movzx	 eax, BYTE PTR [edi+324]
  0007d	c1 e1 09	 shl	 ecx, 9
  00080	03 8e c0 00 00
	00		 add	 ecx, DWORD PTR [esi+192]
  00086	51		 push	 ecx
  00087	0f b6 8f 49 01
	00 00		 movzx	 ecx, BYTE PTR [edi+329]
  0008e	52		 push	 edx
  0008f	50		 push	 eax
  00090	51		 push	 ecx
  00091	53		 push	 ebx
  00092	e8 00 00 00 00	 call	 ?ItemSerialCreateSend@@YAXHEEEHEEEEEHEE@Z ; ItemSerialCreateSend
  00097	83 c4 34	 add	 esp, 52			; 00000034H
$LN7@RewardSieg:

; 1771 : 	}
; 1772 : 
; 1773 : 	if(this->m_RewardWCoinC > 0)

  0009a	8b 86 c8 00 00
	00		 mov	 eax, DWORD PTR [esi+200]
  000a0	89 45 08	 mov	 DWORD PTR tv263[ebp], eax
  000a3	85 c0		 test	 eax, eax
  000a5	7e 0f		 jle	 SHORT $LN6@RewardSieg

; 1774 : 	{
; 1775 : 		lpUser->GameShop.WCoinC += this->m_RewardWCoinC;

  000a7	db 45 08	 fild	 DWORD PTR tv263[ebp]
  000aa	dc 87 00 23 00
	00		 fadd	 QWORD PTR [edi+8960]
  000b0	dd 9f 00 23 00
	00		 fstp	 QWORD PTR [edi+8960]
$LN6@RewardSieg:

; 1776 : 	}
; 1777 : 	if(this->m_RewardWcoinP > 0)

  000b6	8b 86 cc 00 00
	00		 mov	 eax, DWORD PTR [esi+204]
  000bc	89 45 08	 mov	 DWORD PTR tv272[ebp], eax
  000bf	85 c0		 test	 eax, eax
  000c1	7e 0f		 jle	 SHORT $LN5@RewardSieg

; 1778 : 	{
; 1779 : 		lpUser->GameShop.WCoinP += this->m_RewardWcoinP;

  000c3	db 45 08	 fild	 DWORD PTR tv272[ebp]
  000c6	dc 87 f8 22 00
	00		 fadd	 QWORD PTR [edi+8952]
  000cc	dd 9f f8 22 00
	00		 fstp	 QWORD PTR [edi+8952]
$LN5@RewardSieg:

; 1780 : 	}
; 1781 : 	if(this->m_RewardWgoinG > 0)

  000d2	8b 86 d0 00 00
	00		 mov	 eax, DWORD PTR [esi+208]
  000d8	89 45 08	 mov	 DWORD PTR tv281[ebp], eax
  000db	85 c0		 test	 eax, eax
  000dd	7e 0f		 jle	 SHORT $LN4@RewardSieg

; 1782 : 	{
; 1783 : 		lpUser->GameShop.GoblinPoint += this->m_RewardWgoinG;

  000df	db 45 08	 fild	 DWORD PTR tv281[ebp]
  000e2	dc 87 08 23 00
	00		 fadd	 QWORD PTR [edi+8968]
  000e8	dd 9f 08 23 00
	00		 fstp	 QWORD PTR [edi+8968]
$LN4@RewardSieg:

; 1784 : 	}
; 1785 : 
; 1786 : 	if(this->m_RewardWCoinC > 0 || this->m_RewardWcoinP > 0 || this->m_RewardWgoinG > 0)

  000ee	83 be c8 00 00
	00 00		 cmp	 DWORD PTR [esi+200], 0
  000f5	7f 12		 jg	 SHORT $LN2@RewardSieg
  000f7	83 be cc 00 00
	00 00		 cmp	 DWORD PTR [esi+204], 0
  000fe	7f 09		 jg	 SHORT $LN2@RewardSieg
  00100	83 be d0 00 00
	00 00		 cmp	 DWORD PTR [esi+208], 0
  00107	7e 0b		 jle	 SHORT $LN3@RewardSieg
$LN2@RewardSieg:

; 1787 : 	{
; 1788 : 		gGameShop.GDSaveUserInfo(aIndex);

  00109	53		 push	 ebx
  0010a	b9 00 00 00 00	 mov	 ecx, OFFSET ?gGameShop@@3VGameShop@@A ; gGameShop
  0010f	e8 00 00 00 00	 call	 ?GDSaveUserInfo@GameShop@@QAEXH@Z ; GameShop::GDSaveUserInfo
$LN3@RewardSieg:

; 1789 : 	}	
; 1790 : 
; 1791 : 	if(this->m_RewardCredit > 0)

  00114	8b b6 d4 00 00
	00		 mov	 esi, DWORD PTR [esi+212]
  0011a	89 75 08	 mov	 DWORD PTR tv292[ebp], esi
  0011d	85 f6		 test	 esi, esi
  0011f	7e 0f		 jle	 SHORT $LN1@RewardSieg

; 1792 : 	{
; 1793 : 		lpUser->ZtCred += this->m_RewardCredit;

  00121	db 45 08	 fild	 DWORD PTR tv292[ebp]
  00124	d8 87 a8 22 00
	00		 fadd	 DWORD PTR [edi+8872]
  0012a	d9 9f a8 22 00
	00		 fstp	 DWORD PTR [edi+8872]
$LN1@RewardSieg:

; 1794 : 	}
; 1795 : 
; 1796 : 	ZtUserDataSend(aIndex);

  00130	53		 push	 ebx
  00131	e8 00 00 00 00	 call	 ?ZtUserDataSend@@YAXH@Z	; ZtUserDataSend
  00136	83 c4 04	 add	 esp, 4
$LN16@RewardSieg:
  00139	5f		 pop	 edi
$LN15@RewardSieg:
  0013a	5b		 pop	 ebx
$LN11@RewardSieg:
  0013b	5e		 pop	 esi

; 1797 : }

  0013c	5d		 pop	 ebp
  0013d	c2 04 00	 ret	 4
?RewardSiege@CDungeonSiege@@QAEXH@Z ENDP		; CDungeonSiege::RewardSiege
_TEXT	ENDS
PUBLIC	?SiegeDarkLordSummon@CDungeonSiege@@QAE_NH@Z	; CDungeonSiege::SiegeDarkLordSummon
; Function compile flags: /Ogtp
;	COMDAT ?SiegeDarkLordSummon@CDungeonSiege@@QAE_NH@Z
_TEXT	SEGMENT
_aIndex$ = 8						; size = 4
?SiegeDarkLordSummon@CDungeonSiege@@QAE_NH@Z PROC	; CDungeonSiege::SiegeDarkLordSummon, COMDAT
; _this$ = ecx

; 1800 : {

  00000	55		 push	 ebp
  00001	8b ec		 mov	 ebp, esp

; 1801 : 	if(!this->bEnable)

  00003	80 79 48 00	 cmp	 BYTE PTR [ecx+72], 0
  00007	75 06		 jne	 SHORT $LN5@SiegeDarkL
$LN10@SiegeDarkL:

; 1802 : 	{
; 1803 : 		return true;

  00009	b0 01		 mov	 al, 1

; 1824 : 	{
; 1825 : 		return false;
; 1826 : 	}
; 1827 : 
; 1828 : 	return true;
; 1829 : }

  0000b	5d		 pop	 ebp
  0000c	c2 04 00	 ret	 4
$LN5@SiegeDarkL:

; 1804 : 	}
; 1805 : 
; 1806 : 	if(!OBJMAX_RANGE(aIndex))

  0000f	8b 45 08	 mov	 eax, DWORD PTR _aIndex$[ebp]
  00012	85 c0		 test	 eax, eax
  00014	78 f3		 js	 SHORT $LN10@SiegeDarkL
  00016	33 d2		 xor	 edx, edx
  00018	3d 97 3a 00 00	 cmp	 eax, 14999		; 00003a97H
  0001d	0f 9e c2	 setle	 dl
  00020	85 d2		 test	 edx, edx

; 1807 : 	{
; 1808 : 		return true;

  00022	74 e5		 je	 SHORT $LN10@SiegeDarkL

; 1809 : 	}
; 1810 : 
; 1811 : 	LPOBJ lpUser = &gObj[aIndex];

  00024	69 c0 50 2b 00
	00		 imul	 eax, 11088		; 00002b50H
  0002a	03 05 00 00 00
	00		 add	 eax, DWORD PTR ?gObj@@3PAUOBJECTSTRUCT@@A ; gObj
  00030	8b d0		 mov	 edx, eax

; 1812 : 
; 1813 : 	if(lpUser->Connected < PLAYER_PLAYING)

  00032	83 7a 04 03	 cmp	 DWORD PTR [edx+4], 3

; 1814 : 	{
; 1815 : 		return true;

  00036	7c d1		 jl	 SHORT $LN10@SiegeDarkL

; 1816 : 	}
; 1817 : 
; 1818 : 	if(this->CheckStatus(eEVENTDUNGEON_CLOSE))

  00038	6a 00		 push	 0
  0003a	e8 00 00 00 00	 call	 ?CheckStatus@CDungeonSiege@@QAE_NH@Z ; CDungeonSiege::CheckStatus
  0003f	84 c0		 test	 al, al

; 1819 : 	{
; 1820 : 		return true;

  00041	75 c6		 jne	 SHORT $LN10@SiegeDarkL

; 1821 : 	}
; 1822 : 
; 1823 : 	if(lpUser->MapNumber == this->m_EventMapNumber)

  00043	0f b6 82 49 01
	00 00		 movzx	 eax, BYTE PTR [edx+329]
  0004a	3b 41 78	 cmp	 eax, DWORD PTR [ecx+120]
  0004d	0f 95 c0	 setne	 al

; 1824 : 	{
; 1825 : 		return false;
; 1826 : 	}
; 1827 : 
; 1828 : 	return true;
; 1829 : }

  00050	5d		 pop	 ebp
  00051	c2 04 00	 ret	 4
?SiegeDarkLordSummon@CDungeonSiege@@QAE_NH@Z ENDP	; CDungeonSiege::SiegeDarkLordSummon
_TEXT	ENDS
PUBLIC	?GCMapAttributeAll@CDungeonSiege@@QAEXH@Z	; CDungeonSiege::GCMapAttributeAll
; Function compile flags: /Ogtp
;	COMDAT ?GCMapAttributeAll@CDungeonSiege@@QAEXH@Z
_TEXT	SEGMENT
_type$ = 8						; size = 4
?GCMapAttributeAll@CDungeonSiege@@QAEXH@Z PROC		; CDungeonSiege::GCMapAttributeAll, COMDAT
; _this$ = ecx

; 1832 : {

  00000	55		 push	 ebp
  00001	8b ec		 mov	 ebp, esp

; 1833 : 	for(int n = OBJ_STARTUSERINDZT; n < OBJMAX; n++)

  00003	a1 00 00 00 00	 mov	 eax, DWORD PTR ?gObj@@3PAUOBJECTSTRUCT@@A ; gObj
  00008	53		 push	 ebx
  00009	56		 push	 esi
  0000a	57		 push	 edi
  0000b	8b d9		 mov	 ebx, ecx
  0000d	bf b0 36 00 00	 mov	 edi, 14000		; 000036b0H
  00012	be 00 a7 40 09	 mov	 esi, 155232000		; 0940a700H
$LL6@GCMapAttri@2:

; 1834 : 	{
; 1835 : 		LPOBJ lpTempObj = &gObj[n];
; 1836 : 
; 1837 : 		if(lpTempObj->Connected < PLAYER_PLAYING || lpTempObj->Type != OBJ_USER)

  00017	83 7c 06 04 03	 cmp	 DWORD PTR [esi+eax+4], 3
  0001c	7c 26		 jl	 SHORT $LN5@GCMapAttri@2
  0001e	66 83 7c 06 68
	01		 cmp	 WORD PTR [esi+eax+104], 1
  00024	75 1e		 jne	 SHORT $LN5@GCMapAttri@2

; 1838 : 		{
; 1839 : 			continue;
; 1840 : 		}	
; 1841 : 
; 1842 : 		if(lpTempObj->MapNumber != this->m_EventMapNumber)

  00026	0f b6 8c 06 49
	01 00 00	 movzx	 ecx, BYTE PTR [esi+eax+329]
  0002e	3b 4b 78	 cmp	 ecx, DWORD PTR [ebx+120]
  00031	75 11		 jne	 SHORT $LN5@GCMapAttri@2

; 1843 : 		{
; 1844 : 			continue;
; 1845 : 		}
; 1846 : 
; 1847 : 		this->GCMapAttribute(n, type);

  00033	8b 55 08	 mov	 edx, DWORD PTR _type$[ebp]
  00036	52		 push	 edx
  00037	57		 push	 edi
  00038	8b cb		 mov	 ecx, ebx
  0003a	e8 00 00 00 00	 call	 ?GCMapAttribute@CDungeonSiege@@QAEXHH@Z ; CDungeonSiege::GCMapAttribute
  0003f	a1 00 00 00 00	 mov	 eax, DWORD PTR ?gObj@@3PAUOBJECTSTRUCT@@A ; gObj
$LN5@GCMapAttri@2:

; 1833 : 	for(int n = OBJ_STARTUSERINDZT; n < OBJMAX; n++)

  00044	81 c6 50 2b 00
	00		 add	 esi, 11088		; 00002b50H
  0004a	47		 inc	 edi
  0004b	81 fe 80 d7 e9
	09		 cmp	 esi, 166320000		; 09e9d780H
  00051	7c c4		 jl	 SHORT $LL6@GCMapAttri@2
  00053	5f		 pop	 edi
  00054	5e		 pop	 esi
  00055	5b		 pop	 ebx

; 1848 : 	}
; 1849 : }

  00056	5d		 pop	 ebp
  00057	c2 04 00	 ret	 4
?GCMapAttributeAll@CDungeonSiege@@QAEXH@Z ENDP		; CDungeonSiege::GCMapAttributeAll
_TEXT	ENDS
PUBLIC	_aIndex$GSCopy$
PUBLIC	_this$GSCopy$
PUBLIC	__$ArrayPad$
PUBLIC	?GCPlayerScore@CDungeonSiege@@QAEXH@Z		; CDungeonSiege::GCPlayerScore
; Function compile flags: /Ogtp
;	COMDAT ?GCPlayerScore@CDungeonSiege@@QAEXH@Z
_TEXT	SEGMENT
_lpUser$ = -108						; size = 4
_aIndex$GSCopy$ = -104					; size = 4
_this$GSCopy$ = -100					; size = 4
_pMsg$ = -96						; size = 92
__$ArrayPad$ = -4					; size = 4
_aIndex$ = 8						; size = 4
?GCPlayerScore@CDungeonSiege@@QAEXH@Z PROC		; CDungeonSiege::GCPlayerScore, COMDAT
; _this$ = ecx

; 1852 : {

  00000	55		 push	 ebp
  00001	8b ec		 mov	 ebp, esp
  00003	83 ec 6c	 sub	 esp, 108		; 0000006cH
  00006	a1 00 00 00 00	 mov	 eax, DWORD PTR ___security_cookie
  0000b	33 c5		 xor	 eax, ebp
  0000d	89 45 fc	 mov	 DWORD PTR __$ArrayPad$[ebp], eax
  00010	53		 push	 ebx
  00011	8b d9		 mov	 ebx, ecx
  00013	8b 4d 08	 mov	 ecx, DWORD PTR _aIndex$[ebp]
  00016	57		 push	 edi

; 1853 : 	if(OBJMAX_RANGE(aIndex) == 0)

  00017	33 ff		 xor	 edi, edi

; 1922 : 				}
; 1923 : 			}
; 1924 : 		}
; 1925 : 
; 1926 : 		pMsg.GuildScore[i] = lpGuild->DungeonSiege.iScore;

  00019	89 5d 9c	 mov	 DWORD PTR _this$GSCopy$[ebp], ebx
  0001c	89 4d 98	 mov	 DWORD PTR _aIndex$GSCopy$[ebp], ecx
  0001f	3b cf		 cmp	 ecx, edi
  00021	0f 8c b6 01 00
	00		 jl	 $LN16@GCPlayerSc

; 1853 : 	if(OBJMAX_RANGE(aIndex) == 0)

  00027	33 c0		 xor	 eax, eax
  00029	81 f9 97 3a 00
	00		 cmp	 ecx, 14999		; 00003a97H
  0002f	0f 9e c0	 setle	 al
  00032	3b c7		 cmp	 eax, edi
  00034	0f 84 a3 01 00
	00		 je	 $LN16@GCPlayerSc

; 1854 : 	{
; 1855 : 		return;
; 1856 : 	}
; 1857 : 
; 1858 : 	LPOBJ lpUser = &gObj[aIndex];

  0003a	8b c1		 mov	 eax, ecx
  0003c	69 c0 50 2b 00
	00		 imul	 eax, 11088		; 00002b50H
  00042	56		 push	 esi
  00043	8b 35 00 00 00
	00		 mov	 esi, DWORD PTR ?gObj@@3PAUOBJECTSTRUCT@@A ; gObj
  00049	03 c6		 add	 eax, esi

; 1859 : 
; 1860 : 	if(lpUser->Connected < PLAYER_PLAYING)

  0004b	83 78 04 03	 cmp	 DWORD PTR [eax+4], 3
  0004f	89 45 94	 mov	 DWORD PTR _lpUser$[ebp], eax
  00052	0f 8c 84 01 00
	00		 jl	 $LN36@GCPlayerSc

; 1861 : 	{
; 1862 : 		return;
; 1863 : 	}
; 1864 : 
; 1865 : 	PMSG_DUNGEON_SIEGE_SCORE pMsg;
; 1866 : 	pMsg.h.set((LPBYTE)&pMsg, 0xFB, 0x55, sizeof(pMsg));
; 1867 : 	pMsg.MyScore = lpUser->DSiege.iScore;
; 1868 : 	pMsg.GuildCount = this->iRegCount;

  00058	8b 53 20	 mov	 edx, DWORD PTR [ebx+32]
  0005b	c7 45 a0 c1 5c
	fb 55		 mov	 DWORD PTR _pMsg$[ebp], 1442536641 ; 55fb5cc1H
  00062	8b 80 04 29 00
	00		 mov	 eax, DWORD PTR [eax+10500]
  00068	89 45 a4	 mov	 DWORD PTR _pMsg$[ebp+4], eax

; 1869 : 	pMsg.FinalGuildID1 = 0;
; 1870 : 	pMsg.FinalGuildID2 = 0;
; 1871 : 	pMsg.FinalScore1 = 0;
; 1872 : 	pMsg.FinalScore2 = 0;
; 1873 : 	pMsg.FinalGuildID1 = 0;
; 1874 : 	pMsg.FinalGuildID2 = 0;
; 1875 : 	pMsg.InSiege = false;
; 1876 : 
; 1877 : 	memset(pMsg.Name1, 0, sizeof(pMsg.Name1));

  0006b	33 c0		 xor	 eax, eax

; 1878 : 	memset(pMsg.Name2, 0, sizeof(pMsg.Name2));
; 1879 : 
; 1880 : 	if(this->CheckStatus(eEVENTDUNGEON_WAIT_STAGE2) || this->CheckStatus(eEVENTDUNGEON_START_STAGE2))	

  0006d	6a 03		 push	 3
  0006f	8b cb		 mov	 ecx, ebx
  00071	89 55 a8	 mov	 DWORD PTR _pMsg$[ebp+8], edx
  00074	89 7d dc	 mov	 DWORD PTR _pMsg$[ebp+60], edi
  00077	89 7d e0	 mov	 DWORD PTR _pMsg$[ebp+64], edi
  0007a	89 7d d4	 mov	 DWORD PTR _pMsg$[ebp+52], edi
  0007d	89 7d d8	 mov	 DWORD PTR _pMsg$[ebp+56], edi
  00080	89 45 e4	 mov	 DWORD PTR _pMsg$[ebp+68], eax
  00083	89 45 e8	 mov	 DWORD PTR _pMsg$[ebp+72], eax
  00086	66 89 45 ec	 mov	 WORD PTR _pMsg$[ebp+76], ax
  0008a	88 45 ee	 mov	 BYTE PTR _pMsg$[ebp+78], al
  0008d	89 45 ef	 mov	 DWORD PTR _pMsg$[ebp+79], eax
  00090	89 45 f3	 mov	 DWORD PTR _pMsg$[ebp+83], eax
  00093	89 45 f7	 mov	 DWORD PTR _pMsg$[ebp+87], eax
  00096	e8 00 00 00 00	 call	 ?CheckStatus@CDungeonSiege@@QAE_NH@Z ; CDungeonSiege::CheckStatus
  0009b	84 c0		 test	 al, al
  0009d	75 0f		 jne	 SHORT $LN12@GCPlayerSc
  0009f	6a 04		 push	 4
  000a1	e8 00 00 00 00	 call	 ?CheckStatus@CDungeonSiege@@QAE_NH@Z ; CDungeonSiege::CheckStatus
  000a6	84 c0		 test	 al, al
  000a8	0f 84 8e 00 00
	00		 je	 $LN8@GCPlayerSc
$LN12@GCPlayerSc:

; 1881 : 	{
; 1882 : 		if(OBJMAX_RANGE(this->aIndexFinal1))

  000ae	8b 43 38	 mov	 eax, DWORD PTR [ebx+56]
  000b1	3b c7		 cmp	 eax, edi
  000b3	7c 34		 jl	 SHORT $LN33@GCPlayerSc
  000b5	33 c9		 xor	 ecx, ecx
  000b7	3d 97 3a 00 00	 cmp	 eax, 14999		; 00003a97H
  000bc	0f 9e c1	 setle	 cl
  000bf	85 c9		 test	 ecx, ecx
  000c1	74 26		 je	 SHORT $LN33@GCPlayerSc

; 1883 : 		{
; 1884 : 			LPOBJ lpUser1 = &gObj[this->aIndexFinal1];

  000c3	69 c0 50 2b 00
	00		 imul	 eax, 11088		; 00002b50H

; 1885 : 			pMsg.FinalScore1 = lpUser1->DSiege.iScore2;

  000c9	8b 8c 30 08 29
	00 00		 mov	 ecx, DWORD PTR [eax+esi+10504]
  000d0	03 c6		 add	 eax, esi
  000d2	89 4d dc	 mov	 DWORD PTR _pMsg$[ebp+60], ecx

; 1886 : 			memcpy(pMsg.Name1, lpUser1->Name, sizeof(pMsg.Name1)-1);

  000d5	8b 48 77	 mov	 ecx, DWORD PTR [eax+119]
  000d8	89 4d e4	 mov	 DWORD PTR _pMsg$[ebp+68], ecx
  000db	8b 48 7b	 mov	 ecx, DWORD PTR [eax+123]
  000de	89 4d e8	 mov	 DWORD PTR _pMsg$[ebp+72], ecx
  000e1	66 8b 40 7f	 mov	 ax, WORD PTR [eax+127]
  000e5	66 89 45 ec	 mov	 WORD PTR _pMsg$[ebp+76], ax
$LN33@GCPlayerSc:

; 1887 : 		}
; 1888 : 		if(OBJMAX_RANGE(this->aIndexFinal2))

  000e9	8b 43 3c	 mov	 eax, DWORD PTR [ebx+60]
  000ec	85 c0		 test	 eax, eax
  000ee	78 34		 js	 SHORT $LN34@GCPlayerSc
  000f0	33 c9		 xor	 ecx, ecx
  000f2	3d 97 3a 00 00	 cmp	 eax, 14999		; 00003a97H
  000f7	0f 9e c1	 setle	 cl
  000fa	85 c9		 test	 ecx, ecx
  000fc	74 26		 je	 SHORT $LN34@GCPlayerSc

; 1889 : 		{
; 1890 : 			LPOBJ lpUser2 = &gObj[this->aIndexFinal2];

  000fe	69 c0 50 2b 00
	00		 imul	 eax, 11088		; 00002b50H

; 1891 : 			pMsg.FinalScore2 = lpUser2->DSiege.iScore2;

  00104	8b 8c 30 08 29
	00 00		 mov	 ecx, DWORD PTR [eax+esi+10504]
  0010b	03 c6		 add	 eax, esi
  0010d	89 4d e0	 mov	 DWORD PTR _pMsg$[ebp+64], ecx

; 1892 : 			memcpy(pMsg.Name2, lpUser2->Name, sizeof(pMsg.Name2)-1);

  00110	8b 48 77	 mov	 ecx, DWORD PTR [eax+119]
  00113	89 4d ef	 mov	 DWORD PTR _pMsg$[ebp+79], ecx
  00116	8b 48 7b	 mov	 ecx, DWORD PTR [eax+123]
  00119	89 4d f3	 mov	 DWORD PTR _pMsg$[ebp+83], ecx
  0011c	66 8b 40 7f	 mov	 ax, WORD PTR [eax+127]
  00120	66 89 45 f7	 mov	 WORD PTR _pMsg$[ebp+87], ax
$LN34@GCPlayerSc:

; 1893 : 		}
; 1894 : 		if(this->aGuildFinal1 != -1)

  00124	8b 43 40	 mov	 eax, DWORD PTR [ebx+64]
  00127	83 f8 ff	 cmp	 eax, -1
  0012a	74 03		 je	 SHORT $LN9@GCPlayerSc

; 1895 : 		{
; 1896 : 			pMsg.FinalGuildID1 = this->aGuildFinal1;

  0012c	89 45 d4	 mov	 DWORD PTR _pMsg$[ebp+52], eax
$LN9@GCPlayerSc:

; 1897 : 		}
; 1898 : 		if(this->aGuildFinal2 != -1)

  0012f	8b 43 44	 mov	 eax, DWORD PTR [ebx+68]

; 1899 : 		{
; 1900 : 			pMsg.FinalGuildID2 = this->aGuildFinal2;

  00132	33 ff		 xor	 edi, edi
  00134	83 f8 ff	 cmp	 eax, -1
  00137	74 03		 je	 SHORT $LN8@GCPlayerSc
  00139	89 45 d8	 mov	 DWORD PTR _pMsg$[ebp+56], eax
$LN8@GCPlayerSc:

; 1901 : 		}
; 1902 : 	}
; 1903 : 
; 1904 : 	for(int i = 0; i < this->iRegCount; i++)

  0013c	85 d2		 test	 edx, edx
  0013e	0f 8e 86 00 00
	00		 jle	 $LN5@GCPlayerSc
  00144	8d b3 16 01 00
	00		 lea	 esi, DWORD PTR [ebx+278]
  0014a	8d 9b 00 00 00
	00		 npad	 6
$LL32@GCPlayerSc:

; 1905 : 	{
; 1906 : 		pMsg.GuildScore[i] = 0;
; 1907 : 
; 1908 : 		_GUILD_INFO_STRUCT* lpGuild = Guild.SearchGuild(this->reg_list[i].szGuildName);

  00150	56		 push	 esi
  00151	b9 00 00 00 00	 mov	 ecx, OFFSET ?Guild@@3VCGuildClass@@A ; Guild
  00156	c7 44 bd ac 00
	00 00 00	 mov	 DWORD PTR _pMsg$[ebp+edi*4+12], 0
  0015e	e8 00 00 00 00	 call	 ?SearchGuild@CGuildClass@@QAEPAU_GUILD_INFO_STRUCT@@PAD@Z ; CGuildClass::SearchGuild
  00163	8b d8		 mov	 ebx, eax

; 1909 : 		
; 1910 : 		if(!lpGuild)

  00165	85 db		 test	 ebx, ebx
  00167	74 55		 je	 SHORT $LN6@GCPlayerSc

; 1911 : 		{		
; 1912 : 			continue;
; 1913 : 		}
; 1914 : 
; 1915 : 		if(lpUser->GuildNumber > 0)

  00169	8b 4d 94	 mov	 ecx, DWORD PTR _lpUser$[ebp]
  0016c	83 b9 34 04 00
	00 00		 cmp	 DWORD PTR [ecx+1076], 0
  00173	7e 3f		 jle	 SHORT $LN1@GCPlayerSc

; 1916 : 		{
; 1917 : 			if(lpUser->GuildName[0] == this->reg_list[i].szGuildName[0])

  00175	8a 91 3c 04 00
	00		 mov	 dl, BYTE PTR [ecx+1084]
  0017b	81 c1 3c 04 00
	00		 add	 ecx, 1084		; 0000043cH
  00181	3a 16		 cmp	 dl, BYTE PTR [esi]
  00183	75 2f		 jne	 SHORT $LN1@GCPlayerSc

; 1918 : 			{
; 1919 : 				if(!strcmp(lpUser->GuildName, this->reg_list[i].szGuildName))

  00185	8b d6		 mov	 edx, esi
$LL28@GCPlayerSc:
  00187	8a 01		 mov	 al, BYTE PTR [ecx]
  00189	3a 02		 cmp	 al, BYTE PTR [edx]
  0018b	75 1a		 jne	 SHORT $LN29@GCPlayerSc
  0018d	84 c0		 test	 al, al
  0018f	74 12		 je	 SHORT $LN30@GCPlayerSc
  00191	8a 41 01	 mov	 al, BYTE PTR [ecx+1]
  00194	3a 42 01	 cmp	 al, BYTE PTR [edx+1]
  00197	75 0e		 jne	 SHORT $LN29@GCPlayerSc
  00199	83 c1 02	 add	 ecx, 2
  0019c	83 c2 02	 add	 edx, 2
  0019f	84 c0		 test	 al, al
  001a1	75 e4		 jne	 SHORT $LL28@GCPlayerSc
$LN30@GCPlayerSc:
  001a3	33 c0		 xor	 eax, eax
  001a5	eb 05		 jmp	 SHORT $LN31@GCPlayerSc
$LN29@GCPlayerSc:
  001a7	1b c0		 sbb	 eax, eax
  001a9	83 d8 ff	 sbb	 eax, -1
$LN31@GCPlayerSc:
  001ac	85 c0		 test	 eax, eax
  001ae	75 04		 jne	 SHORT $LN1@GCPlayerSc

; 1920 : 				{
; 1921 : 					pMsg.InSiege = true;

  001b0	c6 45 fa 01	 mov	 BYTE PTR _pMsg$[ebp+90], 1
$LN1@GCPlayerSc:

; 1922 : 				}
; 1923 : 			}
; 1924 : 		}
; 1925 : 
; 1926 : 		pMsg.GuildScore[i] = lpGuild->DungeonSiege.iScore;

  001b4	8b 83 48 07 00
	00		 mov	 eax, DWORD PTR [ebx+1864]
  001ba	89 44 bd ac	 mov	 DWORD PTR _pMsg$[ebp+edi*4+12], eax
$LN6@GCPlayerSc:

; 1901 : 		}
; 1902 : 	}
; 1903 : 
; 1904 : 	for(int i = 0; i < this->iRegCount; i++)

  001be	8b 4d 9c	 mov	 ecx, DWORD PTR _this$GSCopy$[ebp]
  001c1	47		 inc	 edi
  001c2	83 c6 09	 add	 esi, 9
  001c5	3b 79 20	 cmp	 edi, DWORD PTR [ecx+32]
  001c8	7c 86		 jl	 SHORT $LL32@GCPlayerSc
$LN5@GCPlayerSc:

; 1927 : 	}
; 1928 : 
; 1929 : 	DataSend(aIndex, (LPBYTE)&pMsg, sizeof(pMsg));

  001ca	8b 45 98	 mov	 eax, DWORD PTR _aIndex$GSCopy$[ebp]
  001cd	6a 5c		 push	 92			; 0000005cH
  001cf	8d 55 a0	 lea	 edx, DWORD PTR _pMsg$[ebp]
  001d2	52		 push	 edx
  001d3	50		 push	 eax
  001d4	e8 00 00 00 00	 call	 ?DataSend@@YAHHPAEK@Z	; DataSend
  001d9	83 c4 0c	 add	 esp, 12			; 0000000cH
$LN36@GCPlayerSc:
  001dc	5e		 pop	 esi
$LN16@GCPlayerSc:

; 1930 : }

  001dd	8b 4d fc	 mov	 ecx, DWORD PTR __$ArrayPad$[ebp]
  001e0	5f		 pop	 edi
  001e1	33 cd		 xor	 ecx, ebp
  001e3	5b		 pop	 ebx
  001e4	e8 00 00 00 00	 call	 @__security_check_cookie@4
  001e9	8b e5		 mov	 esp, ebp
  001eb	5d		 pop	 ebp
  001ec	c2 04 00	 ret	 4
?GCPlayerScore@CDungeonSiege@@QAEXH@Z ENDP		; CDungeonSiege::GCPlayerScore
_TEXT	ENDS
PUBLIC	?MonsterEventDisable@CDungeonSiege@@QAEXXZ	; CDungeonSiege::MonsterEventDisable
; Function compile flags: /Ogtp
;	COMDAT ?MonsterEventDisable@CDungeonSiege@@QAEXXZ
_TEXT	SEGMENT
?MonsterEventDisable@CDungeonSiege@@QAEXXZ PROC		; CDungeonSiege::MonsterEventDisable, COMDAT
; _this$ = ecx

; 1934 : 	for(int n = 0; n < OBJ_MAXMONSTER ; n++)

  00000	8b 15 00 00 00
	00		 mov	 edx, DWORD PTR ?gObj@@3PAUOBJECTSTRUCT@@A ; gObj
  00006	53		 push	 ebx
  00007	33 db		 xor	 ebx, ebx
  00009	56		 push	 esi
  0000a	33 c0		 xor	 eax, eax
  0000c	8d 64 24 00	 npad	 4
$LL4@MonsterEve:

; 1935 : 	{
; 1936 : 		if(gObj[n].MapNumber == this->m_EventMapNumber)

  00010	0f b6 b4 10 49
	01 00 00	 movzx	 esi, BYTE PTR [eax+edx+329]
  00018	3b 71 78	 cmp	 esi, DWORD PTR [ecx+120]
  0001b	75 0a		 jne	 SHORT $LN3@MonsterEve

; 1937 : 		{
; 1938 : 			LPOBJ lpObj = &gObj[n];
; 1939 : 			lpObj->Live = false;

  0001d	88 5c 10 6a	 mov	 BYTE PTR [eax+edx+106], bl
  00021	8b 15 00 00 00
	00		 mov	 edx, DWORD PTR ?gObj@@3PAUOBJECTSTRUCT@@A ; gObj
$LN3@MonsterEve:

; 1935 : 	{
; 1936 : 		if(gObj[n].MapNumber == this->m_EventMapNumber)

  00027	0f b6 b4 10 99
	2c 00 00	 movzx	 esi, BYTE PTR [eax+edx+11417]
  0002f	3b 71 78	 cmp	 esi, DWORD PTR [ecx+120]
  00032	75 0d		 jne	 SHORT $LN10@MonsterEve

; 1937 : 		{
; 1938 : 			LPOBJ lpObj = &gObj[n];
; 1939 : 			lpObj->Live = false;

  00034	88 9c 10 ba 2b
	00 00		 mov	 BYTE PTR [eax+edx+11194], bl
  0003b	8b 15 00 00 00
	00		 mov	 edx, DWORD PTR ?gObj@@3PAUOBJECTSTRUCT@@A ; gObj
$LN10@MonsterEve:

; 1935 : 	{
; 1936 : 		if(gObj[n].MapNumber == this->m_EventMapNumber)

  00041	0f b6 b4 10 e9
	57 00 00	 movzx	 esi, BYTE PTR [eax+edx+22505]
  00049	3b 71 78	 cmp	 esi, DWORD PTR [ecx+120]
  0004c	75 0d		 jne	 SHORT $LN11@MonsterEve

; 1937 : 		{
; 1938 : 			LPOBJ lpObj = &gObj[n];
; 1939 : 			lpObj->Live = false;

  0004e	88 9c 10 0a 57
	00 00		 mov	 BYTE PTR [eax+edx+22282], bl
  00055	8b 15 00 00 00
	00		 mov	 edx, DWORD PTR ?gObj@@3PAUOBJECTSTRUCT@@A ; gObj
$LN11@MonsterEve:

; 1935 : 	{
; 1936 : 		if(gObj[n].MapNumber == this->m_EventMapNumber)

  0005b	0f b6 b4 10 39
	83 00 00	 movzx	 esi, BYTE PTR [eax+edx+33593]
  00063	3b 71 78	 cmp	 esi, DWORD PTR [ecx+120]
  00066	75 0d		 jne	 SHORT $LN12@MonsterEve

; 1937 : 		{
; 1938 : 			LPOBJ lpObj = &gObj[n];
; 1939 : 			lpObj->Live = false;

  00068	88 9c 10 5a 82
	00 00		 mov	 BYTE PTR [eax+edx+33370], bl
  0006f	8b 15 00 00 00
	00		 mov	 edx, DWORD PTR ?gObj@@3PAUOBJECTSTRUCT@@A ; gObj
$LN12@MonsterEve:

; 1935 : 	{
; 1936 : 		if(gObj[n].MapNumber == this->m_EventMapNumber)

  00075	0f b6 b4 10 89
	ae 00 00	 movzx	 esi, BYTE PTR [eax+edx+44681]
  0007d	3b 71 78	 cmp	 esi, DWORD PTR [ecx+120]
  00080	75 0d		 jne	 SHORT $LN13@MonsterEve

; 1937 : 		{
; 1938 : 			LPOBJ lpObj = &gObj[n];
; 1939 : 			lpObj->Live = false;

  00082	88 9c 10 aa ad
	00 00		 mov	 BYTE PTR [eax+edx+44458], bl
  00089	8b 15 00 00 00
	00		 mov	 edx, DWORD PTR ?gObj@@3PAUOBJECTSTRUCT@@A ; gObj
$LN13@MonsterEve:

; 1934 : 	for(int n = 0; n < OBJ_MAXMONSTER ; n++)

  0008f	05 90 d8 00 00	 add	 eax, 55440		; 0000d890H
  00094	3d 80 76 97 08	 cmp	 eax, 144144000		; 08977680H
  00099	0f 8c 71 ff ff
	ff		 jl	 $LL4@MonsterEve

; 1940 : 			//gObjViewportListProtocolDestroy(lpObj);
; 1941 : 			//gObjViewportClose(lpObj);
; 1942 : 		}
; 1943 : 	}
; 1944 : }

  0009f	5e		 pop	 esi
  000a0	5b		 pop	 ebx
  000a1	c3		 ret	 0
?MonsterEventDisable@CDungeonSiege@@QAEXXZ ENDP		; CDungeonSiege::MonsterEventDisable
_TEXT	ENDS
PUBLIC	?MonsterEventEnable@CDungeonSiege@@QAEXXZ	; CDungeonSiege::MonsterEventEnable
; Function compile flags: /Ogtp
;	COMDAT ?MonsterEventEnable@CDungeonSiege@@QAEXXZ
_TEXT	SEGMENT
?MonsterEventEnable@CDungeonSiege@@QAEXXZ PROC		; CDungeonSiege::MonsterEventEnable, COMDAT
; _this$ = ecx

; 1948 : 	for(int n = 0; n < OBJ_MAXMONSTER ; n++)

  00000	8b 15 00 00 00
	00		 mov	 edx, DWORD PTR ?gObj@@3PAUOBJECTSTRUCT@@A ; gObj
  00006	53		 push	 ebx
  00007	56		 push	 esi
  00008	33 c0		 xor	 eax, eax
  0000a	b3 01		 mov	 bl, 1
  0000c	8d 64 24 00	 npad	 4
$LL4@MonsterEve@2:

; 1949 : 	{
; 1950 : 		if(gObj[n].MapNumber == this->m_EventMapNumber)

  00010	0f b6 b4 10 49
	01 00 00	 movzx	 esi, BYTE PTR [eax+edx+329]
  00018	3b 71 78	 cmp	 esi, DWORD PTR [ecx+120]
  0001b	75 0a		 jne	 SHORT $LN3@MonsterEve@2

; 1951 : 		{
; 1952 : 			LPOBJ lpObj = &gObj[n];
; 1953 : 			lpObj->Live = true;

  0001d	88 5c 10 6a	 mov	 BYTE PTR [eax+edx+106], bl
  00021	8b 15 00 00 00
	00		 mov	 edx, DWORD PTR ?gObj@@3PAUOBJECTSTRUCT@@A ; gObj
$LN3@MonsterEve@2:

; 1949 : 	{
; 1950 : 		if(gObj[n].MapNumber == this->m_EventMapNumber)

  00027	0f b6 b4 10 99
	2c 00 00	 movzx	 esi, BYTE PTR [eax+edx+11417]
  0002f	3b 71 78	 cmp	 esi, DWORD PTR [ecx+120]
  00032	75 0d		 jne	 SHORT $LN10@MonsterEve@2

; 1951 : 		{
; 1952 : 			LPOBJ lpObj = &gObj[n];
; 1953 : 			lpObj->Live = true;

  00034	88 9c 10 ba 2b
	00 00		 mov	 BYTE PTR [eax+edx+11194], bl
  0003b	8b 15 00 00 00
	00		 mov	 edx, DWORD PTR ?gObj@@3PAUOBJECTSTRUCT@@A ; gObj
$LN10@MonsterEve@2:

; 1949 : 	{
; 1950 : 		if(gObj[n].MapNumber == this->m_EventMapNumber)

  00041	0f b6 b4 10 e9
	57 00 00	 movzx	 esi, BYTE PTR [eax+edx+22505]
  00049	3b 71 78	 cmp	 esi, DWORD PTR [ecx+120]
  0004c	75 0d		 jne	 SHORT $LN11@MonsterEve@2

; 1951 : 		{
; 1952 : 			LPOBJ lpObj = &gObj[n];
; 1953 : 			lpObj->Live = true;

  0004e	88 9c 10 0a 57
	00 00		 mov	 BYTE PTR [eax+edx+22282], bl
  00055	8b 15 00 00 00
	00		 mov	 edx, DWORD PTR ?gObj@@3PAUOBJECTSTRUCT@@A ; gObj
$LN11@MonsterEve@2:

; 1949 : 	{
; 1950 : 		if(gObj[n].MapNumber == this->m_EventMapNumber)

  0005b	0f b6 b4 10 39
	83 00 00	 movzx	 esi, BYTE PTR [eax+edx+33593]
  00063	3b 71 78	 cmp	 esi, DWORD PTR [ecx+120]
  00066	75 0d		 jne	 SHORT $LN12@MonsterEve@2

; 1951 : 		{
; 1952 : 			LPOBJ lpObj = &gObj[n];
; 1953 : 			lpObj->Live = true;

  00068	88 9c 10 5a 82
	00 00		 mov	 BYTE PTR [eax+edx+33370], bl
  0006f	8b 15 00 00 00
	00		 mov	 edx, DWORD PTR ?gObj@@3PAUOBJECTSTRUCT@@A ; gObj
$LN12@MonsterEve@2:

; 1949 : 	{
; 1950 : 		if(gObj[n].MapNumber == this->m_EventMapNumber)

  00075	0f b6 b4 10 89
	ae 00 00	 movzx	 esi, BYTE PTR [eax+edx+44681]
  0007d	3b 71 78	 cmp	 esi, DWORD PTR [ecx+120]
  00080	75 0d		 jne	 SHORT $LN13@MonsterEve@2

; 1951 : 		{
; 1952 : 			LPOBJ lpObj = &gObj[n];
; 1953 : 			lpObj->Live = true;

  00082	88 9c 10 aa ad
	00 00		 mov	 BYTE PTR [eax+edx+44458], bl
  00089	8b 15 00 00 00
	00		 mov	 edx, DWORD PTR ?gObj@@3PAUOBJECTSTRUCT@@A ; gObj
$LN13@MonsterEve@2:

; 1948 : 	for(int n = 0; n < OBJ_MAXMONSTER ; n++)

  0008f	05 90 d8 00 00	 add	 eax, 55440		; 0000d890H
  00094	3d 80 76 97 08	 cmp	 eax, 144144000		; 08977680H
  00099	0f 8c 71 ff ff
	ff		 jl	 $LL4@MonsterEve@2

; 1954 : 			//CreateFrustrum(lpObj->X, lpObj->Y, lpObj->m_Index);
; 1955 : 			//gObjClearViewport(lpObj);
; 1956 : 			//gObjViewportListCreate(lpObj->m_Index);
; 1957 : 			//gObjViewportListProtocolCreate(lpObj);
; 1958 : 		}
; 1959 : 	}
; 1960 : }

  0009f	5e		 pop	 esi
  000a0	5b		 pop	 ebx
  000a1	c3		 ret	 0
?MonsterEventEnable@CDungeonSiege@@QAEXXZ ENDP		; CDungeonSiege::MonsterEventEnable
_TEXT	ENDS
PUBLIC	?CheckEventStart@CDungeonSiege@@QAE_NH@Z	; CDungeonSiege::CheckEventStart
; Function compile flags: /Ogtp
;	COMDAT ?CheckEventStart@CDungeonSiege@@QAE_NH@Z
_TEXT	SEGMENT
_aIndex$ = 8						; size = 4
?CheckEventStart@CDungeonSiege@@QAE_NH@Z PROC		; CDungeonSiege::CheckEventStart, COMDAT
; _this$ = ecx

; 1963 : {

  00000	55		 push	 ebp
  00001	8b ec		 mov	 ebp, esp

; 1964 : 	if(OBJMAX_RANGE(aIndex) == 0)

  00003	8b 45 08	 mov	 eax, DWORD PTR _aIndex$[ebp]
  00006	85 c0		 test	 eax, eax
  00008	78 0e		 js	 SHORT $LN9@CheckEvent
  0000a	33 d2		 xor	 edx, edx
  0000c	3d 97 3a 00 00	 cmp	 eax, 14999		; 00003a97H
  00011	0f 9e c2	 setle	 dl
  00014	85 d2		 test	 edx, edx
  00016	75 06		 jne	 SHORT $LN4@CheckEvent
$LN9@CheckEvent:

; 1965 : 	{
; 1966 : 		return false;

  00018	32 c0		 xor	 al, al

; 1982 : 	{
; 1983 : 		return false;
; 1984 : 	}
; 1985 : 
; 1986 : 	return true;
; 1987 : }

  0001a	5d		 pop	 ebp
  0001b	c2 04 00	 ret	 4
$LN4@CheckEvent:

; 1967 : 	}
; 1968 : 
; 1969 : 	LPOBJ lpUser = &gObj[aIndex];

  0001e	69 c0 50 2b 00
	00		 imul	 eax, 11088		; 00002b50H
  00024	03 05 00 00 00
	00		 add	 eax, DWORD PTR ?gObj@@3PAUOBJECTSTRUCT@@A ; gObj
  0002a	8b d0		 mov	 edx, eax

; 1970 : 
; 1971 : 	if(lpUser->Connected < PLAYER_PLAYING)

  0002c	83 7a 04 03	 cmp	 DWORD PTR [edx+4], 3

; 1972 : 	{
; 1973 : 		return false;

  00030	7c e6		 jl	 SHORT $LN9@CheckEvent

; 1974 : 	}
; 1975 : 
; 1976 : 	if(this->CheckStatus(eEVENTDUNGEON_CLOSE))

  00032	6a 00		 push	 0
  00034	e8 00 00 00 00	 call	 ?CheckStatus@CDungeonSiege@@QAE_NH@Z ; CDungeonSiege::CheckStatus
  00039	84 c0		 test	 al, al
  0003b	74 06		 je	 SHORT $LN2@CheckEvent

; 1977 : 	{
; 1978 : 		return true;

  0003d	b0 01		 mov	 al, 1

; 1982 : 	{
; 1983 : 		return false;
; 1984 : 	}
; 1985 : 
; 1986 : 	return true;
; 1987 : }

  0003f	5d		 pop	 ebp
  00040	c2 04 00	 ret	 4
$LN2@CheckEvent:

; 1979 : 	}
; 1980 : 
; 1981 : 	if(lpUser->MapNumber == this->m_EventMapNumber)

  00043	0f b6 82 49 01
	00 00		 movzx	 eax, BYTE PTR [edx+329]
  0004a	3b 41 78	 cmp	 eax, DWORD PTR [ecx+120]
  0004d	0f 95 c0	 setne	 al

; 1982 : 	{
; 1983 : 		return false;
; 1984 : 	}
; 1985 : 
; 1986 : 	return true;
; 1987 : }

  00050	5d		 pop	 ebp
  00051	c2 04 00	 ret	 4
?CheckEventStart@CDungeonSiege@@QAE_NH@Z ENDP		; CDungeonSiege::CheckEventStart
_TEXT	ENDS
PUBLIC	??_C@_0CF@CDOBAPIF@?$FLDungeon?5Siege?$FN?5No?5delete?5guild?5@ ; `string'
PUBLIC	??_C@_0CL@MAALEAJL@?$FLDungeon?5Siege?$FN?5Owner?5No?5delete?5@ ; `string'
PUBLIC	?DeleteGuildUser@CDungeonSiege@@QAE_NH@Z	; CDungeonSiege::DeleteGuildUser
EXTRN	?MsgOutput@@YAXHPADZZ:PROC			; MsgOutput
;	COMDAT ??_C@_0CF@CDOBAPIF@?$FLDungeon?5Siege?$FN?5No?5delete?5guild?5@
CONST	SEGMENT
??_C@_0CF@CDOBAPIF@?$FLDungeon?5Siege?$FN?5No?5delete?5guild?5@ DB '[Dung'
	DB	'eon Siege] No delete guild user', 00H	; `string'
CONST	ENDS
;	COMDAT ??_C@_0CL@MAALEAJL@?$FLDungeon?5Siege?$FN?5Owner?5No?5delete?5@
CONST	SEGMENT
??_C@_0CL@MAALEAJL@?$FLDungeon?5Siege?$FN?5Owner?5No?5delete?5@ DB '[Dung'
	DB	'eon Siege] Owner No delete guild user', 00H	; `string'
; Function compile flags: /Ogtp
CONST	ENDS
;	COMDAT ?DeleteGuildUser@CDungeonSiege@@QAE_NH@Z
_TEXT	SEGMENT
_aIndex$ = 8						; size = 4
?DeleteGuildUser@CDungeonSiege@@QAE_NH@Z PROC		; CDungeonSiege::DeleteGuildUser, COMDAT
; _this$ = ecx

; 1990 : {

  00000	55		 push	 ebp
  00001	8b ec		 mov	 ebp, esp
  00003	56		 push	 esi
  00004	57		 push	 edi

; 1991 : 	if(OBJMAX_RANGE(aIndex) == 0)

  00005	8b 7d 08	 mov	 edi, DWORD PTR _aIndex$[ebp]
  00008	8b f1		 mov	 esi, ecx
  0000a	85 ff		 test	 edi, edi
  0000c	0f 88 b1 00 00
	00		 js	 $LN11@DeleteGuil
  00012	33 c0		 xor	 eax, eax
  00014	81 ff 97 3a 00
	00		 cmp	 edi, 14999		; 00003a97H
  0001a	0f 9e c0	 setle	 al
  0001d	85 c0		 test	 eax, eax

; 1992 : 	{
; 1993 : 		return false;

  0001f	0f 84 9e 00 00
	00		 je	 $LN11@DeleteGuil

; 1994 : 	}
; 1995 : 
; 1996 : 	LPOBJ lpUser = &gObj[aIndex];

  00025	8b c7		 mov	 eax, edi
  00027	69 c0 50 2b 00
	00		 imul	 eax, 11088		; 00002b50H
  0002d	03 05 00 00 00
	00		 add	 eax, DWORD PTR ?gObj@@3PAUOBJECTSTRUCT@@A ; gObj

; 1997 : 
; 1998 : 	if(lpUser->Connected < PLAYER_PLAYING)

  00033	83 78 04 03	 cmp	 DWORD PTR [eax+4], 3

; 1999 : 	{
; 2000 : 		return false;

  00037	0f 8c 86 00 00
	00		 jl	 $LN11@DeleteGuil

; 2001 : 	}
; 2002 : 
; 2003 : 	// ? 
; 2004 : 	if(lpUser->GuildNumber > 0 && this->bCaptured)

  0003d	83 b8 34 04 00
	00 00		 cmp	 DWORD PTR [eax+1076], 0
  00044	7e 5a		 jle	 SHORT $LN2@DeleteGuil
  00046	80 7e 14 00	 cmp	 BYTE PTR [esi+20], 0
  0004a	74 54		 je	 SHORT $LN2@DeleteGuil

; 2005 : 	{
; 2006 : 		if(lpUser->GuildName[0] == this->szLordGuild[0])

  0004c	8a 88 3c 04 00
	00		 mov	 cl, BYTE PTR [eax+1084]
  00052	05 3c 04 00 00	 add	 eax, 1084		; 0000043cH
  00057	3a 4e 15	 cmp	 cl, BYTE PTR [esi+21]
  0005a	8d 56 15	 lea	 edx, DWORD PTR [esi+21]
  0005d	75 41		 jne	 SHORT $LN2@DeleteGuil
  0005f	53		 push	 ebx
$LL12@DeleteGuil:

; 2007 : 		{
; 2008 : 			if(!strcmp(lpUser->GuildName, this->szLordGuild))

  00060	8a 18		 mov	 bl, BYTE PTR [eax]
  00062	3a 1a		 cmp	 bl, BYTE PTR [edx]
  00064	75 1a		 jne	 SHORT $LN13@DeleteGuil
  00066	84 db		 test	 bl, bl
  00068	74 12		 je	 SHORT $LN14@DeleteGuil
  0006a	8a 58 01	 mov	 bl, BYTE PTR [eax+1]
  0006d	3a 5a 01	 cmp	 bl, BYTE PTR [edx+1]
  00070	75 0e		 jne	 SHORT $LN13@DeleteGuil
  00072	83 c0 02	 add	 eax, 2
  00075	83 c2 02	 add	 edx, 2
  00078	84 db		 test	 bl, bl
  0007a	75 e4		 jne	 SHORT $LL12@DeleteGuil
$LN14@DeleteGuil:
  0007c	33 c0		 xor	 eax, eax
  0007e	eb 05		 jmp	 SHORT $LN15@DeleteGuil
$LN13@DeleteGuil:
  00080	1b c0		 sbb	 eax, eax
  00082	83 d8 ff	 sbb	 eax, -1
$LN15@DeleteGuil:
  00085	5b		 pop	 ebx
  00086	85 c0		 test	 eax, eax
  00088	75 16		 jne	 SHORT $LN2@DeleteGuil

; 2009 : 			{
; 2010 : 				MsgOutput(aIndex, "[Dungeon Siege] Owner No delete guild user");

  0008a	68 00 00 00 00	 push	 OFFSET ??_C@_0CL@MAALEAJL@?$FLDungeon?5Siege?$FN?5Owner?5No?5delete?5@

; 2019 : 	}
; 2020 : 
; 2021 : 	MsgOutput(aIndex, "[Dungeon Siege] No delete guild user");

  0008f	57		 push	 edi
  00090	e8 00 00 00 00	 call	 ?MsgOutput@@YAXHPADZZ	; MsgOutput
  00095	83 c4 08	 add	 esp, 8
  00098	5f		 pop	 edi

; 2022 : 
; 2023 : 	return false;

  00099	32 c0		 xor	 al, al
  0009b	5e		 pop	 esi

; 2024 : }

  0009c	5d		 pop	 ebp
  0009d	c2 04 00	 ret	 4
$LN2@DeleteGuil:

; 2011 : 				return false;
; 2012 : 			}
; 2013 : 		}
; 2014 : 	}
; 2015 : 
; 2016 : 	if(this->CheckStatus(eEVENTDUNGEON_CLOSE))

  000a0	6a 00		 push	 0
  000a2	8b ce		 mov	 ecx, esi
  000a4	e8 00 00 00 00	 call	 ?CheckStatus@CDungeonSiege@@QAE_NH@Z ; CDungeonSiege::CheckStatus
  000a9	84 c0		 test	 al, al
  000ab	74 08		 je	 SHORT $LN1@DeleteGuil

; 2017 : 	{
; 2018 : 		return true;

  000ad	5f		 pop	 edi
  000ae	b0 01		 mov	 al, 1
  000b0	5e		 pop	 esi

; 2024 : }

  000b1	5d		 pop	 ebp
  000b2	c2 04 00	 ret	 4
$LN1@DeleteGuil:

; 2019 : 	}
; 2020 : 
; 2021 : 	MsgOutput(aIndex, "[Dungeon Siege] No delete guild user");

  000b5	68 00 00 00 00	 push	 OFFSET ??_C@_0CF@CDOBAPIF@?$FLDungeon?5Siege?$FN?5No?5delete?5guild?5@
  000ba	57		 push	 edi
  000bb	e8 00 00 00 00	 call	 ?MsgOutput@@YAXHPADZZ	; MsgOutput
  000c0	83 c4 08	 add	 esp, 8
$LN11@DeleteGuil:

; 2022 : 
; 2023 : 	return false;

  000c3	5f		 pop	 edi
  000c4	32 c0		 xor	 al, al
  000c6	5e		 pop	 esi

; 2024 : }

  000c7	5d		 pop	 ebp
  000c8	c2 04 00	 ret	 4
?DeleteGuildUser@CDungeonSiege@@QAE_NH@Z ENDP		; CDungeonSiege::DeleteGuildUser
_TEXT	ENDS
PUBLIC	?ReturnPlayerRing@CDungeonSiege@@QAEXXZ		; CDungeonSiege::ReturnPlayerRing
; Function compile flags: /Ogtp
;	COMDAT ?ReturnPlayerRing@CDungeonSiege@@QAEXXZ
_TEXT	SEGMENT
?ReturnPlayerRing@CDungeonSiege@@QAEXXZ PROC		; CDungeonSiege::ReturnPlayerRing, COMDAT
; _this$ = ecx

; 2027 : {

  00000	56		 push	 esi

; 2028 : 	if(this->CheckStatus(eEVENTDUNGEON_WAIT_STAGE2) || this->CheckStatus(eEVENTDUNGEON_START_STAGE2))	

  00001	6a 03		 push	 3
  00003	8b f1		 mov	 esi, ecx
  00005	e8 00 00 00 00	 call	 ?CheckStatus@CDungeonSiege@@QAE_NH@Z ; CDungeonSiege::CheckStatus
  0000a	84 c0		 test	 al, al
  0000c	75 0f		 jne	 SHORT $LN10@ReturnPlay
  0000e	6a 04		 push	 4
  00010	e8 00 00 00 00	 call	 ?CheckStatus@CDungeonSiege@@QAE_NH@Z ; CDungeonSiege::CheckStatus
  00015	84 c0		 test	 al, al
  00017	0f 84 2a 01 00
	00		 je	 $LN2@ReturnPlay
$LN10@ReturnPlay:
  0001d	57		 push	 edi

; 2029 : 	{
; 2030 : 		if(OBJMAX_RANGE(this->aIndexFinal1) && OBJMAX_RANGE(this->aIndexFinal2))

  0001e	8b 7e 38	 mov	 edi, DWORD PTR [esi+56]
  00021	85 ff		 test	 edi, edi
  00023	0f 88 1d 01 00
	00		 js	 $LN19@ReturnPlay
  00029	33 c0		 xor	 eax, eax
  0002b	81 ff 97 3a 00
	00		 cmp	 edi, 14999		; 00003a97H
  00031	0f 9e c0	 setle	 al
  00034	85 c0		 test	 eax, eax
  00036	0f 84 0a 01 00
	00		 je	 $LN19@ReturnPlay
  0003c	8b 4e 3c	 mov	 ecx, DWORD PTR [esi+60]
  0003f	85 c9		 test	 ecx, ecx
  00041	0f 88 ff 00 00
	00		 js	 $LN19@ReturnPlay
  00047	33 c0		 xor	 eax, eax
  00049	81 f9 97 3a 00
	00		 cmp	 ecx, 14999		; 00003a97H
  0004f	0f 9e c0	 setle	 al
  00052	85 c0		 test	 eax, eax
  00054	0f 84 ec 00 00
	00		 je	 $LN19@ReturnPlay

; 2031 : 		{
; 2032 : 			LPOBJ lpUser1 = &gObj[this->aIndexFinal1];

  0005a	8b 15 00 00 00
	00		 mov	 edx, DWORD PTR ?gObj@@3PAUOBJECTSTRUCT@@A ; gObj

; 2033 : 			LPOBJ lpUser2 = &gObj[this->aIndexFinal2];

  00060	69 c9 50 2b 00
	00		 imul	 ecx, 11088		; 00002b50H
  00066	8b c7		 mov	 eax, edi
  00068	69 c0 50 2b 00
	00		 imul	 eax, 11088		; 00002b50H
  0006e	03 c2		 add	 eax, edx
  00070	53		 push	 ebx
  00071	8d 1c 0a	 lea	 ebx, DWORD PTR [edx+ecx]

; 2034 : 
; 2035 : 			if(!(lpUser1->MapNumber == this->m_EventMapNumber && lpUser1->X >= 9 && lpUser1->X <= 22 && lpUser1->Y >= 152 && lpUser1->Y <= 165))

  00074	0f b6 90 49 01
	00 00		 movzx	 edx, BYTE PTR [eax+329]
  0007b	8b 4e 78	 mov	 ecx, DWORD PTR [esi+120]
  0007e	3b d1		 cmp	 edx, ecx
  00080	75 2e		 jne	 SHORT $LN7@ReturnPlay
  00082	0f b7 90 44 01
	00 00		 movzx	 edx, WORD PTR [eax+324]
  00089	66 83 fa 09	 cmp	 dx, 9
  0008d	7c 21		 jl	 SHORT $LN7@ReturnPlay
  0008f	66 83 fa 16	 cmp	 dx, 22			; 00000016H
  00093	7f 1b		 jg	 SHORT $LN7@ReturnPlay
  00095	0f b7 80 46 01
	00 00		 movzx	 eax, WORD PTR [eax+326]
  0009c	ba 98 00 00 00	 mov	 edx, 152		; 00000098H
  000a1	66 3b c2	 cmp	 ax, dx
  000a4	7c 0a		 jl	 SHORT $LN7@ReturnPlay
  000a6	ba a5 00 00 00	 mov	 edx, 165		; 000000a5H
  000ab	66 3b c2	 cmp	 ax, dx

; 2044 : 				}
; 2045 : 			}
; 2046 : 			else
; 2047 : 			{
; 2048 : 				this->iTickFinal1 = 0;

  000ae	7e 24		 jle	 SHORT $LN21@ReturnPlay
$LN7@ReturnPlay:

; 2036 : 			{
; 2037 : 				this->iTickFinal1++;

  000b0	ff 46 30	 inc	 DWORD PTR [esi+48]

; 2038 : 
; 2039 : 				if(this->iTickFinal1 >= 10 * 20)

  000b3	81 7e 30 c8 00
	00 00		 cmp	 DWORD PTR [esi+48], 200	; 000000c8H
  000ba	7c 1f		 jl	 SHORT $LN18@ReturnPlay

; 2040 : 				{
; 2041 : 					gObjTeleport(this->aIndexFinal1, this->m_EventMapNumber, this->m_EventStage2KillX, this->m_EventStage2KillY);

  000bc	8b 86 98 00 00
	00		 mov	 eax, DWORD PTR [esi+152]
  000c2	8b 96 94 00 00
	00		 mov	 edx, DWORD PTR [esi+148]
  000c8	50		 push	 eax
  000c9	52		 push	 edx
  000ca	51		 push	 ecx
  000cb	57		 push	 edi
  000cc	e8 00 00 00 00	 call	 ?gObjTeleport@@YAXHHHH@Z ; gObjTeleport
  000d1	83 c4 10	 add	 esp, 16			; 00000010H
$LN21@ReturnPlay:

; 2042 : 
; 2043 : 					this->iTickFinal1 = 0;

  000d4	c7 46 30 00 00
	00 00		 mov	 DWORD PTR [esi+48], 0
$LN18@ReturnPlay:

; 2049 : 			}
; 2050 : 
; 2051 : 			if(!(lpUser2->MapNumber == this->m_EventMapNumber && lpUser2->X >= 9 && lpUser2->X <= 22 && lpUser2->Y >= 152 && lpUser2->Y <= 165))

  000db	0f b6 83 49 01
	00 00		 movzx	 eax, BYTE PTR [ebx+329]
  000e2	8b 4e 78	 mov	 ecx, DWORD PTR [esi+120]
  000e5	3b c1		 cmp	 eax, ecx
  000e7	75 2e		 jne	 SHORT $LN3@ReturnPlay
  000e9	0f b7 83 44 01
	00 00		 movzx	 eax, WORD PTR [ebx+324]
  000f0	66 83 f8 09	 cmp	 ax, 9
  000f4	7c 21		 jl	 SHORT $LN3@ReturnPlay
  000f6	66 83 f8 16	 cmp	 ax, 22			; 00000016H
  000fa	7f 1b		 jg	 SHORT $LN3@ReturnPlay
  000fc	0f b7 83 46 01
	00 00		 movzx	 eax, WORD PTR [ebx+326]
  00103	ba 98 00 00 00	 mov	 edx, 152		; 00000098H
  00108	66 3b c2	 cmp	 ax, dx
  0010b	7c 0a		 jl	 SHORT $LN3@ReturnPlay
  0010d	ba a5 00 00 00	 mov	 edx, 165		; 000000a5H
  00112	66 3b c2	 cmp	 ax, dx

; 2060 : 				}
; 2061 : 			}
; 2062 : 			else
; 2063 : 			{
; 2064 : 				this->iTickFinal2 = 0;

  00115	7e 27		 jle	 SHORT $LN22@ReturnPlay
$LN3@ReturnPlay:

; 2052 : 			{
; 2053 : 				this->iTickFinal2++;

  00117	ff 46 34	 inc	 DWORD PTR [esi+52]

; 2054 : 
; 2055 : 				if(this->iTickFinal2 >= 10 * 20)

  0011a	81 7e 34 c8 00
	00 00		 cmp	 DWORD PTR [esi+52], 200	; 000000c8H
  00121	7c 22		 jl	 SHORT $LN20@ReturnPlay

; 2056 : 				{
; 2057 : 					gObjTeleport(this->aIndexFinal2, this->m_EventMapNumber, this->m_EventStage2KillX, this->m_EventStage2KillY);

  00123	8b 86 98 00 00
	00		 mov	 eax, DWORD PTR [esi+152]
  00129	8b 96 94 00 00
	00		 mov	 edx, DWORD PTR [esi+148]
  0012f	50		 push	 eax
  00130	8b 46 3c	 mov	 eax, DWORD PTR [esi+60]
  00133	52		 push	 edx
  00134	51		 push	 ecx
  00135	50		 push	 eax
  00136	e8 00 00 00 00	 call	 ?gObjTeleport@@YAXHHHH@Z ; gObjTeleport
  0013b	83 c4 10	 add	 esp, 16			; 00000010H
$LN22@ReturnPlay:

; 2058 : 
; 2059 : 					this->iTickFinal2 = 0;

  0013e	c7 46 34 00 00
	00 00		 mov	 DWORD PTR [esi+52], 0
$LN20@ReturnPlay:
  00145	5b		 pop	 ebx
$LN19@ReturnPlay:
  00146	5f		 pop	 edi
$LN2@ReturnPlay:
  00147	5e		 pop	 esi

; 2065 : 			}
; 2066 : 		}
; 2067 : 	}
; 2068 : }

  00148	c3		 ret	 0
?ReturnPlayerRing@CDungeonSiege@@QAEXXZ ENDP		; CDungeonSiege::ReturnPlayerRing
_TEXT	ENDS
PUBLIC	??0CDungeonSiege@@QAE@XZ			; CDungeonSiege::CDungeonSiege
; Function compile flags: /Ogtp
;	COMDAT ??0CDungeonSiege@@QAE@XZ
_TEXT	SEGMENT
??0CDungeonSiege@@QAE@XZ PROC				; CDungeonSiege::CDungeonSiege, COMDAT
; _this$ = ecx

; 18   : {

  00000	56		 push	 esi
  00001	8b f1		 mov	 esi, ecx

; 19   : 	this->Init();

  00003	e8 00 00 00 00	 call	 ?Init@CDungeonSiege@@QAEXXZ ; CDungeonSiege::Init

; 20   : }

  00008	8b c6		 mov	 eax, esi
  0000a	5e		 pop	 esi
  0000b	c3		 ret	 0
??0CDungeonSiege@@QAE@XZ ENDP				; CDungeonSiege::CDungeonSiege
_TEXT	ENDS
PUBLIC	??_C@_0BP@INBGAHFA@ZtData?2Events?2DungeonSiege?4ini?$AA@ ; `string'
PUBLIC	?Load@CDungeonSiege@@QAEXXZ			; CDungeonSiege::Load
EXTRN	?GetNewPath@CDirPath@@QAEPADPAD@Z:PROC		; CDirPath::GetNewPath
EXTRN	?gDirPath@@3VCDirPath@@A:BYTE			; gDirPath
EXTRN	?GetCustom@CZtLicense@@QAEHXZ:PROC		; CZtLicense::GetCustom
EXTRN	?CheckUser@CZtLicense@@QAE_NH@Z:PROC		; CZtLicense::CheckUser
EXTRN	?g_ZtLicense@@3VCZtLicense@@A:BYTE		; g_ZtLicense
;	COMDAT ??_C@_0BP@INBGAHFA@ZtData?2Events?2DungeonSiege?4ini?$AA@
CONST	SEGMENT
??_C@_0BP@INBGAHFA@ZtData?2Events?2DungeonSiege?4ini?$AA@ DB 'ZtData\Even'
	DB	'ts\DungeonSiege.ini', 00H			; `string'
; Function compile flags: /Ogtp
CONST	ENDS
;	COMDAT ?Load@CDungeonSiege@@QAEXXZ
_TEXT	SEGMENT
?Load@CDungeonSiege@@QAEXXZ PROC			; CDungeonSiege::Load, COMDAT
; _this$ = ecx

; 85   : {

  00000	56		 push	 esi
  00001	8b f1		 mov	 esi, ecx

; 86   : 	if(g_ZtLicense.CheckUser(eZtUB::Local)		|| 
; 87   : 	   g_ZtLicense.CheckUser(eZtUB::Gredy)		|| 
; 88   : 	   g_ZtLicense.CheckUser(eZtUB::Gredy2)		|| 
; 89   : 	   g_ZtLicense.CheckUser(eZtUB::GredyLocal)	||
; 90   : 	   THINNAKORN_MAC == 1						||
; 91   : 	   g_ZtLicense.CheckUser(eZtUB::MedoniAndrei) ||
; 92   : 	   g_ZtLicense.CheckUser(eZtUB::ArcMu)		||
; 93   : 	   g_ZtLicense.CheckUser(eZtUB::ulasevich)	||
; 94   : 	   g_ZtLicense.CheckUser(eZtUB::ulasevich2) ||
; 95   : 	   g_ZtLicense.CheckUser(eZtUB::Escalate)	||
; 96   : 	   g_ZtLicense.CheckUser(eZtUB::mu4you)		||
; 97   : 	   g_ZtLicense.CheckUser(eZtUB::eternalmu)	|| 
; 98   : 	   g_ZtLicense.CheckUser(eZtUB::NSGames)	||
; 99   : 	   g_ZtLicense.GetCustom())

  00003	6a 00		 push	 0
  00005	b9 00 00 00 00	 mov	 ecx, OFFSET ?g_ZtLicense@@3VCZtLicense@@A ; g_ZtLicense
  0000a	e8 00 00 00 00	 call	 ?CheckUser@CZtLicense@@QAE_NH@Z ; CZtLicense::CheckUser
  0000f	84 c0		 test	 al, al
  00011	0f 85 ca 00 00
	00		 jne	 $LN1@Load
  00017	6a 20		 push	 32			; 00000020H
  00019	b9 00 00 00 00	 mov	 ecx, OFFSET ?g_ZtLicense@@3VCZtLicense@@A ; g_ZtLicense
  0001e	e8 00 00 00 00	 call	 ?CheckUser@CZtLicense@@QAE_NH@Z ; CZtLicense::CheckUser
  00023	84 c0		 test	 al, al
  00025	0f 85 b6 00 00
	00		 jne	 $LN1@Load
  0002b	6a 22		 push	 34			; 00000022H
  0002d	b9 00 00 00 00	 mov	 ecx, OFFSET ?g_ZtLicense@@3VCZtLicense@@A ; g_ZtLicense
  00032	e8 00 00 00 00	 call	 ?CheckUser@CZtLicense@@QAE_NH@Z ; CZtLicense::CheckUser
  00037	84 c0		 test	 al, al
  00039	0f 85 a2 00 00
	00		 jne	 $LN1@Load
  0003f	6a 21		 push	 33			; 00000021H
  00041	b9 00 00 00 00	 mov	 ecx, OFFSET ?g_ZtLicense@@3VCZtLicense@@A ; g_ZtLicense
  00046	e8 00 00 00 00	 call	 ?CheckUser@CZtLicense@@QAE_NH@Z ; CZtLicense::CheckUser
  0004b	84 c0		 test	 al, al
  0004d	0f 85 8e 00 00
	00		 jne	 $LN1@Load
  00053	6a 32		 push	 50			; 00000032H
  00055	b9 00 00 00 00	 mov	 ecx, OFFSET ?g_ZtLicense@@3VCZtLicense@@A ; g_ZtLicense
  0005a	e8 00 00 00 00	 call	 ?CheckUser@CZtLicense@@QAE_NH@Z ; CZtLicense::CheckUser
  0005f	84 c0		 test	 al, al
  00061	75 7e		 jne	 SHORT $LN1@Load
  00063	6a 48		 push	 72			; 00000048H
  00065	b9 00 00 00 00	 mov	 ecx, OFFSET ?g_ZtLicense@@3VCZtLicense@@A ; g_ZtLicense
  0006a	e8 00 00 00 00	 call	 ?CheckUser@CZtLicense@@QAE_NH@Z ; CZtLicense::CheckUser
  0006f	84 c0		 test	 al, al
  00071	75 6e		 jne	 SHORT $LN1@Load
  00073	6a 17		 push	 23			; 00000017H
  00075	b9 00 00 00 00	 mov	 ecx, OFFSET ?g_ZtLicense@@3VCZtLicense@@A ; g_ZtLicense
  0007a	e8 00 00 00 00	 call	 ?CheckUser@CZtLicense@@QAE_NH@Z ; CZtLicense::CheckUser
  0007f	84 c0		 test	 al, al
  00081	75 5e		 jne	 SHORT $LN1@Load
  00083	6a 24		 push	 36			; 00000024H
  00085	b9 00 00 00 00	 mov	 ecx, OFFSET ?g_ZtLicense@@3VCZtLicense@@A ; g_ZtLicense
  0008a	e8 00 00 00 00	 call	 ?CheckUser@CZtLicense@@QAE_NH@Z ; CZtLicense::CheckUser
  0008f	84 c0		 test	 al, al
  00091	75 4e		 jne	 SHORT $LN1@Load
  00093	6a 40		 push	 64			; 00000040H
  00095	b9 00 00 00 00	 mov	 ecx, OFFSET ?g_ZtLicense@@3VCZtLicense@@A ; g_ZtLicense
  0009a	e8 00 00 00 00	 call	 ?CheckUser@CZtLicense@@QAE_NH@Z ; CZtLicense::CheckUser
  0009f	84 c0		 test	 al, al
  000a1	75 3e		 jne	 SHORT $LN1@Load
  000a3	6a 4e		 push	 78			; 0000004eH
  000a5	b9 00 00 00 00	 mov	 ecx, OFFSET ?g_ZtLicense@@3VCZtLicense@@A ; g_ZtLicense
  000aa	e8 00 00 00 00	 call	 ?CheckUser@CZtLicense@@QAE_NH@Z ; CZtLicense::CheckUser
  000af	84 c0		 test	 al, al
  000b1	75 2e		 jne	 SHORT $LN1@Load
  000b3	6a 4f		 push	 79			; 0000004fH
  000b5	b9 00 00 00 00	 mov	 ecx, OFFSET ?g_ZtLicense@@3VCZtLicense@@A ; g_ZtLicense
  000ba	e8 00 00 00 00	 call	 ?CheckUser@CZtLicense@@QAE_NH@Z ; CZtLicense::CheckUser
  000bf	84 c0		 test	 al, al
  000c1	75 1e		 jne	 SHORT $LN1@Load
  000c3	6a 51		 push	 81			; 00000051H
  000c5	b9 00 00 00 00	 mov	 ecx, OFFSET ?g_ZtLicense@@3VCZtLicense@@A ; g_ZtLicense
  000ca	e8 00 00 00 00	 call	 ?CheckUser@CZtLicense@@QAE_NH@Z ; CZtLicense::CheckUser
  000cf	84 c0		 test	 al, al
  000d1	75 0e		 jne	 SHORT $LN1@Load
  000d3	b9 00 00 00 00	 mov	 ecx, OFFSET ?g_ZtLicense@@3VCZtLicense@@A ; g_ZtLicense
  000d8	e8 00 00 00 00	 call	 ?GetCustom@CZtLicense@@QAEHXZ ; CZtLicense::GetCustom
  000dd	85 c0		 test	 eax, eax
  000df	74 17		 je	 SHORT $LN2@Load
$LN1@Load:

; 100  : 	{
; 101  : 		this->Read(gDirPath.GetNewPath("ZtData\\Events\\DungeonSiege.ini"));

  000e1	68 00 00 00 00	 push	 OFFSET ??_C@_0BP@INBGAHFA@ZtData?2Events?2DungeonSiege?4ini?$AA@
  000e6	b9 00 00 00 00	 mov	 ecx, OFFSET ?gDirPath@@3VCDirPath@@A ; gDirPath
  000eb	e8 00 00 00 00	 call	 ?GetNewPath@CDirPath@@QAEPADPAD@Z ; CDirPath::GetNewPath
  000f0	50		 push	 eax
  000f1	8b ce		 mov	 ecx, esi
  000f3	e8 00 00 00 00	 call	 ?Read@CDungeonSiege@@QAEXPAD@Z ; CDungeonSiege::Read
$LN2@Load:
  000f8	5e		 pop	 esi

; 102  : 	}
; 103  : 
; 104  : }

  000f9	c3		 ret	 0
?Load@CDungeonSiege@@QAEXXZ ENDP			; CDungeonSiege::Load
_TEXT	ENDS
PUBLIC	??_C@_08BLCEEGNF@?$FL?$CFs?$FN?5End?$AA@	; `string'
PUBLIC	__$ArrayPad$
PUBLIC	?StatusClose@CDungeonSiege@@QAEXXZ		; CDungeonSiege::StatusClose
;	COMDAT ??_C@_08BLCEEGNF@?$FL?$CFs?$FN?5End?$AA@
CONST	SEGMENT
??_C@_08BLCEEGNF@?$FL?$CFs?$FN?5End?$AA@ DB '[%s] End', 00H ; `string'
; Function compile flags: /Ogtp
CONST	ENDS
;	COMDAT ?StatusClose@CDungeonSiege@@QAEXXZ
_TEXT	SEGMENT
_szText$ = -260						; size = 256
__$ArrayPad$ = -4					; size = 4
?StatusClose@CDungeonSiege@@QAEXXZ PROC			; CDungeonSiege::StatusClose, COMDAT
; _this$ = ecx

; 470  : {

  00000	55		 push	 ebp
  00001	8b ec		 mov	 ebp, esp
  00003	81 ec 04 01 00
	00		 sub	 esp, 260		; 00000104H
  00009	a1 00 00 00 00	 mov	 eax, DWORD PTR ___security_cookie
  0000e	33 c5		 xor	 eax, ebp
  00010	89 45 fc	 mov	 DWORD PTR __$ArrayPad$[ebp], eax
  00013	56		 push	 esi
  00014	8b f1		 mov	 esi, ecx

; 471  : 	this->GDSiegeOwnerUpdate();

  00016	e8 00 00 00 00	 call	 ?GDSiegeOwnerUpdate@CDungeonSiege@@QAEXXZ ; CDungeonSiege::GDSiegeOwnerUpdate

; 472  : 	this->GDSiegeClearList();

  0001b	8b ce		 mov	 ecx, esi
  0001d	e8 00 00 00 00	 call	 ?GDSiegeClearList@CDungeonSiege@@QAEXXZ ; CDungeonSiege::GDSiegeClearList

; 473  : 	this->SiegeClearScore();

  00022	8b ce		 mov	 ecx, esi
  00024	e8 00 00 00 00	 call	 ?SiegeClearScore@CDungeonSiege@@QAEXXZ ; CDungeonSiege::SiegeClearScore

; 474  : 
; 475  : 	char szText[256];
; 476  : 	sprintf(szText, "[%s] End", this->m_EventName);

  00029	8d 86 e4 00 00
	00		 lea	 eax, DWORD PTR [esi+228]
  0002f	50		 push	 eax
  00030	8d 8d fc fe ff
	ff		 lea	 ecx, DWORD PTR _szText$[ebp]
  00036	68 00 00 00 00	 push	 OFFSET ??_C@_08BLCEEGNF@?$FL?$CFs?$FN?5End?$AA@
  0003b	51		 push	 ecx
  0003c	e8 00 00 00 00	 call	 _sprintf

; 477  : 	AllSendServerMsg(szText);

  00041	8d 95 fc fe ff
	ff		 lea	 edx, DWORD PTR _szText$[ebp]
  00047	52		 push	 edx
  00048	e8 00 00 00 00	 call	 ?AllSendServerMsg@@YAXPAD@Z ; AllSendServerMsg
  0004d	83 c4 10	 add	 esp, 16			; 00000010H

; 478  : 
; 479  : 	this->MonsterEventEnable();

  00050	8b ce		 mov	 ecx, esi
  00052	e8 00 00 00 00	 call	 ?MonsterEventEnable@CDungeonSiege@@QAEXXZ ; CDungeonSiege::MonsterEventEnable

; 480  : }

  00057	8b 4d fc	 mov	 ecx, DWORD PTR __$ArrayPad$[ebp]
  0005a	33 cd		 xor	 ecx, ebp
  0005c	5e		 pop	 esi
  0005d	e8 00 00 00 00	 call	 @__security_check_cookie@4
  00062	8b e5		 mov	 esp, ebp
  00064	5d		 pop	 ebp
  00065	c3		 ret	 0
?StatusClose@CDungeonSiege@@QAEXXZ ENDP			; CDungeonSiege::StatusClose
_TEXT	ENDS
PUBLIC	??_C@_0BN@IACAKPDI@?$FL?$CFs?$FN?5First?5stage?5has?5started?$AA@ ; `string'
PUBLIC	__$ArrayPad$
PUBLIC	?StatusStartStage1@CDungeonSiege@@QAEXXZ	; CDungeonSiege::StatusStartStage1
;	COMDAT ??_C@_0BN@IACAKPDI@?$FL?$CFs?$FN?5First?5stage?5has?5started?$AA@
CONST	SEGMENT
??_C@_0BN@IACAKPDI@?$FL?$CFs?$FN?5First?5stage?5has?5started?$AA@ DB '[%s'
	DB	'] First stage has started', 00H		; `string'
; Function compile flags: /Ogtp
CONST	ENDS
;	COMDAT ?StatusStartStage1@CDungeonSiege@@QAEXXZ
_TEXT	SEGMENT
_szText$ = -260						; size = 256
__$ArrayPad$ = -4					; size = 4
?StatusStartStage1@CDungeonSiege@@QAEXXZ PROC		; CDungeonSiege::StatusStartStage1, COMDAT
; _this$ = ecx

; 491  : {

  00000	55		 push	 ebp
  00001	8b ec		 mov	 ebp, esp
  00003	81 ec 04 01 00
	00		 sub	 esp, 260		; 00000104H
  00009	a1 00 00 00 00	 mov	 eax, DWORD PTR ___security_cookie
  0000e	33 c5		 xor	 eax, ebp
  00010	89 45 fc	 mov	 DWORD PTR __$ArrayPad$[ebp], eax
  00013	53		 push	 ebx
  00014	56		 push	 esi
  00015	57		 push	 edi
  00016	8b f9		 mov	 edi, ecx

; 492  : 	char szText[256];
; 493  : 	sprintf(szText, "[%s] First stage has started", this->m_EventName);

  00018	8d 87 e4 00 00
	00		 lea	 eax, DWORD PTR [edi+228]
  0001e	50		 push	 eax
  0001f	8d 8d fc fe ff
	ff		 lea	 ecx, DWORD PTR _szText$[ebp]
  00025	68 00 00 00 00	 push	 OFFSET ??_C@_0BN@IACAKPDI@?$FL?$CFs?$FN?5First?5stage?5has?5started?$AA@
  0002a	51		 push	 ecx
  0002b	e8 00 00 00 00	 call	 _sprintf

; 494  : 	AllSendServerMsg(szText);

  00030	8d 95 fc fe ff
	ff		 lea	 edx, DWORD PTR _szText$[ebp]
  00036	52		 push	 edx
  00037	e8 00 00 00 00	 call	 ?AllSendServerMsg@@YAXPAD@Z ; AllSendServerMsg
  0003c	83 c4 10	 add	 esp, 16			; 00000010H

; 495  : 	this->iTickCount = GetTickCount();

  0003f	ff 15 00 00 00
	00		 call	 DWORD PTR __imp__GetTickCount@0
  00045	89 47 24	 mov	 DWORD PTR [edi+36], eax

; 496  : 	this->iTickRemain = 60000 * this->iEventDurationStage1;

  00048	8b 47 68	 mov	 eax, DWORD PTR [edi+104]
  0004b	69 c0 60 ea 00
	00		 imul	 eax, 60000		; 0000ea60H
  00051	89 47 28	 mov	 DWORD PTR [edi+40], eax

; 499  : 	{
; 500  : 		LPOBJ lpTempObj = &gObj[n];

  00054	a1 00 00 00 00	 mov	 eax, DWORD PTR ?gObj@@3PAUOBJECTSTRUCT@@A ; gObj
  00059	bb b0 36 00 00	 mov	 ebx, 14000		; 000036b0H
  0005e	be 00 a7 40 09	 mov	 esi, 155232000		; 0940a700H
$LL5@StatusStar:

; 501  : 
; 502  : 		if(lpTempObj->Connected < PLAYER_PLAYING || lpTempObj->Type != OBJ_USER || lpTempObj->MapNumber != this->m_EventMapNumber)

  00063	83 7c 06 04 03	 cmp	 DWORD PTR [esi+eax+4], 3
  00068	7c 24		 jl	 SHORT $LN4@StatusStar
  0006a	66 83 7c 06 68
	01		 cmp	 WORD PTR [esi+eax+104], 1
  00070	75 1c		 jne	 SHORT $LN4@StatusStar
  00072	0f b6 8c 06 49
	01 00 00	 movzx	 ecx, BYTE PTR [esi+eax+329]
  0007a	3b 4f 78	 cmp	 ecx, DWORD PTR [edi+120]
  0007d	75 0f		 jne	 SHORT $LN4@StatusStar

; 503  : 		{
; 504  : 			continue;
; 505  : 		}	
; 506  : 
; 507  : 		this->GCMapAttribute(n, 1);

  0007f	6a 01		 push	 1
  00081	53		 push	 ebx
  00082	8b cf		 mov	 ecx, edi
  00084	e8 00 00 00 00	 call	 ?GCMapAttribute@CDungeonSiege@@QAEXHH@Z ; CDungeonSiege::GCMapAttribute
  00089	a1 00 00 00 00	 mov	 eax, DWORD PTR ?gObj@@3PAUOBJECTSTRUCT@@A ; gObj
$LN4@StatusStar:

; 497  : 
; 498  : 	for(int n = OBJ_STARTUSERINDZT; n < OBJMAX; n++)

  0008e	81 c6 50 2b 00
	00		 add	 esi, 11088		; 00002b50H
  00094	43		 inc	 ebx
  00095	81 fe 80 d7 e9
	09		 cmp	 esi, 166320000		; 09e9d780H
  0009b	7c c6		 jl	 SHORT $LL5@StatusStar

; 508  : 	}
; 509  : }

  0009d	8b 4d fc	 mov	 ecx, DWORD PTR __$ArrayPad$[ebp]
  000a0	5f		 pop	 edi
  000a1	5e		 pop	 esi
  000a2	33 cd		 xor	 ecx, ebp
  000a4	5b		 pop	 ebx
  000a5	e8 00 00 00 00	 call	 @__security_check_cookie@4
  000aa	8b e5		 mov	 esp, ebp
  000ac	5d		 pop	 ebp
  000ad	c3		 ret	 0
?StatusStartStage1@CDungeonSiege@@QAEXXZ ENDP		; CDungeonSiege::StatusStartStage1
_TEXT	ENDS
PUBLIC	?PlayerCheck@CDungeonSiege@@QAEXH@Z		; CDungeonSiege::PlayerCheck
; Function compile flags: /Ogtp
;	COMDAT ?PlayerCheck@CDungeonSiege@@QAEXH@Z
_TEXT	SEGMENT
_lpUser$ = -8						; size = 4
_iHWIDCount$212703 = -4					; size = 4
_aIndex$ = 8						; size = 4
?PlayerCheck@CDungeonSiege@@QAEXH@Z PROC		; CDungeonSiege::PlayerCheck, COMDAT
; _this$ = ecx

; 859  : {

  00000	55		 push	 ebp
  00001	8b ec		 mov	 ebp, esp
  00003	83 ec 08	 sub	 esp, 8
  00006	53		 push	 ebx
  00007	8b d9		 mov	 ebx, ecx

; 860  : 	if(!this->bEnable)

  00009	80 7b 48 00	 cmp	 BYTE PTR [ebx+72], 0
  0000d	0f 84 88 01 00
	00		 je	 $LN1@PlayerChec

; 861  : 	{
; 862  : 		return;
; 863  : 	}
; 864  : 
; 865  : 	if(!OBJMAX_RANGE(aIndex))

  00013	57		 push	 edi
  00014	8b 7d 08	 mov	 edi, DWORD PTR _aIndex$[ebp]
  00017	85 ff		 test	 edi, edi
  00019	0f 88 7b 01 00
	00		 js	 $LN44@PlayerChec
  0001f	33 c0		 xor	 eax, eax
  00021	81 ff 97 3a 00
	00		 cmp	 edi, 14999		; 00003a97H
  00027	0f 9e c0	 setle	 al
  0002a	85 c0		 test	 eax, eax
  0002c	0f 84 68 01 00
	00		 je	 $LN44@PlayerChec

; 866  : 	{
; 867  : 		return;
; 868  : 	}
; 869  : 
; 870  : 	LPOBJ lpUser = &gObj[aIndex];

  00032	56		 push	 esi
  00033	8b f7		 mov	 esi, edi
  00035	69 f6 50 2b 00
	00		 imul	 esi, 11088		; 00002b50H
  0003b	03 35 00 00 00
	00		 add	 esi, DWORD PTR ?gObj@@3PAUOBJECTSTRUCT@@A ; gObj

; 871  : 
; 872  : 	if(lpUser->Connected < PLAYER_PLAYING)

  00041	83 7e 04 03	 cmp	 DWORD PTR [esi+4], 3
  00045	89 75 f8	 mov	 DWORD PTR _lpUser$[ebp], esi
  00048	0f 8c 4b 01 00
	00		 jl	 $LN45@PlayerChec

; 873  : 	{
; 874  : 		return;
; 875  : 	}
; 876  : 
; 877  : 	if(lpUser->X != lpUser->TX || lpUser->Y != lpUser->TY)

  0004e	66 8b 86 44 01
	00 00		 mov	 ax, WORD PTR [esi+324]
  00055	66 3b 86 7c 01
	00 00		 cmp	 ax, WORD PTR [esi+380]
  0005c	75 10		 jne	 SHORT $LN21@PlayerChec
  0005e	66 8b 8e 46 01
	00 00		 mov	 cx, WORD PTR [esi+326]
  00065	66 3b 8e 7e 01
	00 00		 cmp	 cx, WORD PTR [esi+382]
  0006c	74 07		 je	 SHORT $LN22@PlayerChec
$LN21@PlayerChec:

; 878  : 	{
; 879  : 		lpUser->DSiege.bNpcClick = false;

  0006e	c6 86 fc 28 00
	00 00		 mov	 BYTE PTR [esi+10492], 0
$LN22@PlayerChec:

; 880  : 	}
; 881  : 
; 882  : 	this->GuildBuff(aIndex);

  00075	57		 push	 edi
  00076	8b cb		 mov	 ecx, ebx
  00078	e8 00 00 00 00	 call	 ?GuildBuff@CDungeonSiege@@QAEXH@Z ; CDungeonSiege::GuildBuff

; 883  : 
; 884  : 	this->GCVieweSiege(aIndex);

  0007d	57		 push	 edi
  0007e	8b cb		 mov	 ecx, ebx
  00080	e8 00 00 00 00	 call	 ?GCVieweSiege@CDungeonSiege@@QAEXH@Z ; CDungeonSiege::GCVieweSiege

; 885  : 
; 886  : 	if(lpUser->MapNumber != this->m_EventMapNumber)

  00085	0f b6 96 49 01
	00 00		 movzx	 edx, BYTE PTR [esi+329]
  0008c	3b 53 78	 cmp	 edx, DWORD PTR [ebx+120]
  0008f	0f 85 04 01 00
	00		 jne	 $LN45@PlayerChec

; 887  : 	{
; 888  : 		return;
; 889  : 	}
; 890  : 
; 891  : 	if(lpUser->GuildNumber < 1)

  00095	83 be 34 04 00
	00 01		 cmp	 DWORD PTR [esi+1076], 1

; 892  : 	{
; 893  : 		this->MapKick(aIndex);

  0009c	8b cb		 mov	 ecx, ebx

; 894  : 		return;

  0009e	0f 8c ef 00 00
	00		 jl	 $LN46@PlayerChec

; 895  : 	}
; 896  : 	
; 897  : 	if(this->CheckStatus(eEVENTDUNGEON_CLOSE))	

  000a4	6a 00		 push	 0
  000a6	e8 00 00 00 00	 call	 ?CheckStatus@CDungeonSiege@@QAE_NH@Z ; CDungeonSiege::CheckStatus
  000ab	84 c0		 test	 al, al
  000ad	0f 84 ef 00 00
	00		 je	 $LN18@PlayerChec

; 898  : 	{
; 899  : 		if(!this->bCaptured)

  000b3	80 7b 14 00	 cmp	 BYTE PTR [ebx+20], 0

; 900  : 		{
; 901  : 			this->MapKick(aIndex);
; 902  : 			return;

  000b7	0f 84 d6 00 00
	00		 je	 $LN46@PlayerChec

; 903  : 		}
; 904  : 
; 905  : 		if(strcmp(lpUser->GuildName, this->szLordGuild))

  000bd	8d 4b 15	 lea	 ecx, DWORD PTR [ebx+21]
  000c0	8d 86 3c 04 00
	00		 lea	 eax, DWORD PTR [esi+1084]
$LL32@PlayerChec:
  000c6	8a 10		 mov	 dl, BYTE PTR [eax]
  000c8	3a 11		 cmp	 dl, BYTE PTR [ecx]
  000ca	75 1a		 jne	 SHORT $LN33@PlayerChec
  000cc	84 d2		 test	 dl, dl
  000ce	74 12		 je	 SHORT $LN34@PlayerChec
  000d0	8a 50 01	 mov	 dl, BYTE PTR [eax+1]
  000d3	3a 51 01	 cmp	 dl, BYTE PTR [ecx+1]
  000d6	75 0e		 jne	 SHORT $LN33@PlayerChec
  000d8	83 c0 02	 add	 eax, 2
  000db	83 c1 02	 add	 ecx, 2
  000de	84 d2		 test	 dl, dl
  000e0	75 e4		 jne	 SHORT $LL32@PlayerChec
$LN34@PlayerChec:
  000e2	33 c0		 xor	 eax, eax
  000e4	eb 05		 jmp	 SHORT $LN35@PlayerChec
$LN33@PlayerChec:
  000e6	1b c0		 sbb	 eax, eax
  000e8	83 d8 ff	 sbb	 eax, -1
$LN35@PlayerChec:
  000eb	85 c0		 test	 eax, eax
  000ed	0f 85 9e 00 00
	00		 jne	 $LN47@PlayerChec
$LN12@PlayerChec:

; 925  : 			return;
; 926  : 		}
; 927  : 	}
; 928  : 	
; 929  : 	if(!this->CheckStatus(eEVENTDUNGEON_CLOSE))	

  000f3	6a 00		 push	 0
  000f5	8b cb		 mov	 ecx, ebx
  000f7	e8 00 00 00 00	 call	 ?CheckStatus@CDungeonSiege@@QAE_NH@Z ; CDungeonSiege::CheckStatus
  000fc	84 c0		 test	 al, al
  000fe	75 6f		 jne	 SHORT $LN8@PlayerChec

; 930  : 	{
; 931  : 		int iHWIDCount = 0;

  00100	a1 00 00 00 00	 mov	 eax, DWORD PTR ?gObj@@3PAUOBJECTSTRUCT@@A ; gObj
  00105	c7 45 fc 00 00
	00 00		 mov	 DWORD PTR _iHWIDCount$212703[ebp], 0

; 932  : 
; 933  : 		for(int n = OBJ_STARTUSERINDZT; n < OBJMAX; n++)

  0010c	bf b0 36 00 00	 mov	 edi, 14000		; 000036b0H
  00111	be 00 a7 40 09	 mov	 esi, 155232000		; 0940a700H
$LL42@PlayerChec:

; 934  : 		{
; 935  : 			LPOBJ lpTempObj = &gObj[n];
; 936  : 
; 937  : 			if(lpTempObj->Connected < PLAYER_PLAYING || lpTempObj->Type != OBJ_USER || lpTempObj->MapNumber != this->m_EventMapNumber)

  00116	83 7c 06 04 03	 cmp	 DWORD PTR [esi+eax+4], 3
  0011b	7c 40		 jl	 SHORT $LN9@PlayerChec
  0011d	b9 01 00 00 00	 mov	 ecx, 1
  00122	66 39 4c 06 68	 cmp	 WORD PTR [esi+eax+104], cx
  00127	75 34		 jne	 SHORT $LN9@PlayerChec
  00129	0f b6 94 06 49
	01 00 00	 movzx	 edx, BYTE PTR [esi+eax+329]
  00131	3b 53 78	 cmp	 edx, DWORD PTR [ebx+120]
  00134	75 27		 jne	 SHORT $LN9@PlayerChec

; 938  : 			{
; 939  : 				continue;
; 940  : 			}	
; 941  : 
; 942  : 			if(lpUser->DSiege.dwHWID == lpTempObj->DSiege.dwHWID)

  00136	8b 55 f8	 mov	 edx, DWORD PTR _lpUser$[ebp]
  00139	8b 92 00 29 00
	00		 mov	 edx, DWORD PTR [edx+10496]
  0013f	3b 94 06 00 29
	00 00		 cmp	 edx, DWORD PTR [esi+eax+10496]
  00146	75 03		 jne	 SHORT $LN43@PlayerChec

; 943  : 			{
; 944  : 				iHWIDCount++;

  00148	01 4d fc	 add	 DWORD PTR _iHWIDCount$212703[ebp], ecx
$LN43@PlayerChec:

; 945  : 			}
; 946  : #if(DUNGEON_SIEGE_DEBUG)
; 947  : 			if(iHWIDCount > 1)

  0014b	39 4d fc	 cmp	 DWORD PTR _iHWIDCount$212703[ebp], ecx
  0014e	7e 0d		 jle	 SHORT $LN9@PlayerChec

; 948  : 			{
; 949  : 				this->MapKick(n);

  00150	57		 push	 edi
  00151	8b cb		 mov	 ecx, ebx
  00153	e8 00 00 00 00	 call	 ?MapKick@CDungeonSiege@@QAEXH@Z ; CDungeonSiege::MapKick
  00158	a1 00 00 00 00	 mov	 eax, DWORD PTR ?gObj@@3PAUOBJECTSTRUCT@@A ; gObj
$LN9@PlayerChec:

; 932  : 
; 933  : 		for(int n = OBJ_STARTUSERINDZT; n < OBJMAX; n++)

  0015d	81 c6 50 2b 00
	00		 add	 esi, 11088		; 00002b50H
  00163	47		 inc	 edi
  00164	81 fe 80 d7 e9
	09		 cmp	 esi, 166320000		; 09e9d780H
  0016a	7c aa		 jl	 SHORT $LL42@PlayerChec
  0016c	8b 7d 08	 mov	 edi, DWORD PTR _aIndex$[ebp]
$LN8@PlayerChec:

; 950  : 			}
; 951  : #endif
; 952  : 		}
; 953  : 	}
; 954  : 	
; 955  : 	if(this->CheckStatus(eEVENTDUNGEON_WAIT_STAGE2) || this->CheckStatus(eEVENTDUNGEON_START_STAGE2))	

  0016f	6a 03		 push	 3
  00171	8b cb		 mov	 ecx, ebx
  00173	e8 00 00 00 00	 call	 ?CheckStatus@CDungeonSiege@@QAE_NH@Z ; CDungeonSiege::CheckStatus
  00178	84 c0		 test	 al, al
  0017a	75 0b		 jne	 SHORT $LN2@PlayerChec
  0017c	6a 04		 push	 4
  0017e	e8 00 00 00 00	 call	 ?CheckStatus@CDungeonSiege@@QAE_NH@Z ; CDungeonSiege::CheckStatus
  00183	84 c0		 test	 al, al
  00185	74 12		 je	 SHORT $LN45@PlayerChec
$LN2@PlayerChec:

; 956  : 	{
; 957  : 		if(aIndex != this->aIndexFinal1 && aIndex != this->aIndexFinal2)

  00187	3b 7b 38	 cmp	 edi, DWORD PTR [ebx+56]
  0018a	74 0d		 je	 SHORT $LN45@PlayerChec
  0018c	3b 7b 3c	 cmp	 edi, DWORD PTR [ebx+60]
  0018f	74 08		 je	 SHORT $LN45@PlayerChec
$LN47@PlayerChec:

; 958  : 		{
; 959  : 			this->MapKick(aIndex);

  00191	8b cb		 mov	 ecx, ebx
$LN46@PlayerChec:
  00193	57		 push	 edi
  00194	e8 00 00 00 00	 call	 ?MapKick@CDungeonSiege@@QAEXH@Z ; CDungeonSiege::MapKick
$LN45@PlayerChec:
  00199	5e		 pop	 esi
$LN44@PlayerChec:
  0019a	5f		 pop	 edi
$LN1@PlayerChec:
  0019b	5b		 pop	 ebx

; 960  : 			return;
; 961  : 		}
; 962  : 	}
; 963  : 
; 964  : 
; 965  : }

  0019c	8b e5		 mov	 esp, ebp
  0019e	5d		 pop	 ebp
  0019f	c2 04 00	 ret	 4
$LN18@PlayerChec:

; 906  : 		{
; 907  : 			this->MapKick(aIndex);
; 908  : 			return;
; 909  : 		}
; 910  : 	}
; 911  : 	else
; 912  : 	{
; 913  : 		if(lpUser->GuildName[0] == this->szLordGuild[0])

  001a2	8a 96 3c 04 00
	00		 mov	 dl, BYTE PTR [esi+1084]
  001a8	8d 86 3c 04 00
	00		 lea	 eax, DWORD PTR [esi+1084]
  001ae	3a 53 15	 cmp	 dl, BYTE PTR [ebx+21]
  001b1	8d 4b 15	 lea	 ecx, DWORD PTR [ebx+21]
  001b4	75 3c		 jne	 SHORT $LN13@PlayerChec
$LL36@PlayerChec:

; 914  : 		{
; 915  : 			if(!strcmp(lpUser->GuildName, this->szLordGuild))

  001b6	8a 10		 mov	 dl, BYTE PTR [eax]
  001b8	3a 11		 cmp	 dl, BYTE PTR [ecx]
  001ba	75 1a		 jne	 SHORT $LN37@PlayerChec
  001bc	84 d2		 test	 dl, dl
  001be	74 12		 je	 SHORT $LN38@PlayerChec
  001c0	8a 50 01	 mov	 dl, BYTE PTR [eax+1]
  001c3	3a 51 01	 cmp	 dl, BYTE PTR [ecx+1]
  001c6	75 0e		 jne	 SHORT $LN37@PlayerChec
  001c8	83 c0 02	 add	 eax, 2
  001cb	83 c1 02	 add	 ecx, 2
  001ce	84 d2		 test	 dl, dl
  001d0	75 e4		 jne	 SHORT $LL36@PlayerChec
$LN38@PlayerChec:
  001d2	33 c0		 xor	 eax, eax
  001d4	eb 05		 jmp	 SHORT $LN39@PlayerChec
$LN37@PlayerChec:
  001d6	1b c0		 sbb	 eax, eax
  001d8	83 d8 ff	 sbb	 eax, -1
$LN39@PlayerChec:
  001db	85 c0		 test	 eax, eax
  001dd	75 13		 jne	 SHORT $LN13@PlayerChec

; 916  : 			{
; 917  : 				this->MapKick(aIndex);

  001df	8b c7		 mov	 eax, edi
  001e1	50		 push	 eax
  001e2	8b cb		 mov	 ecx, ebx

; 958  : 		{
; 959  : 			this->MapKick(aIndex);

  001e4	e8 00 00 00 00	 call	 ?MapKick@CDungeonSiege@@QAEXH@Z ; CDungeonSiege::MapKick
  001e9	5e		 pop	 esi
  001ea	5f		 pop	 edi
  001eb	5b		 pop	 ebx

; 960  : 			return;
; 961  : 		}
; 962  : 	}
; 963  : 
; 964  : 
; 965  : }

  001ec	8b e5		 mov	 esp, ebp
  001ee	5d		 pop	 ebp
  001ef	c2 04 00	 ret	 4
$LN13@PlayerChec:

; 918  : 				return;
; 919  : 			}
; 920  : 		}
; 921  : 
; 922  : 		if(!this->PlayerGuildRegCheck(aIndex))

  001f2	8b cf		 mov	 ecx, edi
  001f4	51		 push	 ecx
  001f5	8b cb		 mov	 ecx, ebx
  001f7	e8 00 00 00 00	 call	 ?PlayerGuildRegCheck@CDungeonSiege@@QAE_NH@Z ; CDungeonSiege::PlayerGuildRegCheck
  001fc	84 c0		 test	 al, al
  001fe	0f 85 ef fe ff
	ff		 jne	 $LN12@PlayerChec

; 923  : 		{
; 924  : 			this->MapKick(aIndex);

  00204	8b d7		 mov	 edx, edi
  00206	52		 push	 edx
  00207	8b cb		 mov	 ecx, ebx

; 958  : 		{
; 959  : 			this->MapKick(aIndex);

  00209	e8 00 00 00 00	 call	 ?MapKick@CDungeonSiege@@QAEXH@Z ; CDungeonSiege::MapKick
  0020e	5e		 pop	 esi
  0020f	5f		 pop	 edi
  00210	5b		 pop	 ebx

; 960  : 			return;
; 961  : 		}
; 962  : 	}
; 963  : 
; 964  : 
; 965  : }

  00211	8b e5		 mov	 esp, ebp
  00213	5d		 pop	 ebp
  00214	c2 04 00	 ret	 4
?PlayerCheck@CDungeonSiege@@QAEXH@Z ENDP		; CDungeonSiege::PlayerCheck
_TEXT	ENDS
PUBLIC	?GCGuildNumber@CDungeonSiege@@QAEXH@Z		; CDungeonSiege::GCGuildNumber
; Function compile flags: /Ogtp
;	COMDAT ?GCGuildNumber@CDungeonSiege@@QAEXH@Z
_TEXT	SEGMENT
_pMsg$ = -8						; size = 8
_aIndex$ = 8						; size = 4
?GCGuildNumber@CDungeonSiege@@QAEXH@Z PROC		; CDungeonSiege::GCGuildNumber, COMDAT
; _this$ = ecx

; 1573 : {

  00000	55		 push	 ebp
  00001	8b ec		 mov	 ebp, esp
  00003	83 ec 08	 sub	 esp, 8
  00006	56		 push	 esi

; 1574 : 	if(OBJMAX_RANGE(aIndex) == 0)

  00007	8b 75 08	 mov	 esi, DWORD PTR _aIndex$[ebp]
  0000a	57		 push	 edi
  0000b	8b f9		 mov	 edi, ecx
  0000d	85 f6		 test	 esi, esi
  0000f	78 55		 js	 SHORT $LN1@GCGuildNum
  00011	33 c0		 xor	 eax, eax
  00013	81 fe 97 3a 00
	00		 cmp	 esi, 14999		; 00003a97H
  00019	0f 9e c0	 setle	 al
  0001c	85 c0		 test	 eax, eax
  0001e	74 46		 je	 SHORT $LN1@GCGuildNum

; 1575 : 	{
; 1576 : 		return;
; 1577 : 	}
; 1578 : 
; 1579 : 	LPOBJ lpUser = &gObj[aIndex];

  00020	8b c6		 mov	 eax, esi
  00022	69 c0 50 2b 00
	00		 imul	 eax, 11088		; 00002b50H
  00028	03 05 00 00 00
	00		 add	 eax, DWORD PTR ?gObj@@3PAUOBJECTSTRUCT@@A ; gObj

; 1580 : 
; 1581 : 	if(lpUser->Connected < PLAYER_PLAYING)

  0002e	83 78 04 03	 cmp	 DWORD PTR [eax+4], 3
  00032	7c 32		 jl	 SHORT $LN1@GCGuildNum

; 1582 : 	{
; 1583 : 		return;
; 1584 : 	}
; 1585 : 
; 1586 : 	PMSG_GC_GUILD_INDEX pMsg;
; 1587 : 	pMsg.h.set((LPBYTE)&pMsg, 0xFB, 0x54, sizeof(pMsg));
; 1588 : 	pMsg.GuildNumber = lpUser->GuildNumber;
; 1589 : 	DataSend(aIndex, (LPBYTE)&pMsg, sizeof(pMsg));

  00034	6a 08		 push	 8
  00036	8d 4d f8	 lea	 ecx, DWORD PTR _pMsg$[ebp]
  00039	c7 45 f8 c1 08
	fb 54		 mov	 DWORD PTR _pMsg$[ebp], 1425737921 ; 54fb08c1H
  00040	8b 80 34 04 00
	00		 mov	 eax, DWORD PTR [eax+1076]
  00046	51		 push	 ecx
  00047	56		 push	 esi
  00048	89 45 fc	 mov	 DWORD PTR _pMsg$[ebp+4], eax
  0004b	e8 00 00 00 00	 call	 ?DataSend@@YAHHPAEK@Z	; DataSend
  00050	83 c4 0c	 add	 esp, 12			; 0000000cH

; 1590 : 
; 1591 : 	if(!this->CheckStatus(eEVENTDUNGEON_CLOSE))

  00053	6a 00		 push	 0
  00055	8b cf		 mov	 ecx, edi
  00057	e8 00 00 00 00	 call	 ?CheckStatus@CDungeonSiege@@QAE_NH@Z ; CDungeonSiege::CheckStatus
  0005c	84 c0		 test	 al, al
  0005e	75 06		 jne	 SHORT $LN1@GCGuildNum

; 1592 : 	{
; 1593 : 		this->GCPlayerScore(aIndex);

  00060	56		 push	 esi
  00061	e8 00 00 00 00	 call	 ?GCPlayerScore@CDungeonSiege@@QAEXH@Z ; CDungeonSiege::GCPlayerScore
$LN1@GCGuildNum:
  00066	5f		 pop	 edi
  00067	5e		 pop	 esi

; 1594 : 	}
; 1595 : }

  00068	8b e5		 mov	 esp, ebp
  0006a	5d		 pop	 ebp
  0006b	c2 04 00	 ret	 4
?GCGuildNumber@CDungeonSiege@@QAEXH@Z ENDP		; CDungeonSiege::GCGuildNumber
_TEXT	ENDS
PUBLIC	?GCSiegeScore@CDungeonSiege@@QAEXXZ		; CDungeonSiege::GCSiegeScore
; Function compile flags: /Ogtp
;	COMDAT ?GCSiegeScore@CDungeonSiege@@QAEXXZ
_TEXT	SEGMENT
_this$ = -4						; size = 4
?GCSiegeScore@CDungeonSiege@@QAEXXZ PROC		; CDungeonSiege::GCSiegeScore, COMDAT
; _this$ = ecx

; 1598 : {

  00000	55		 push	 ebp
  00001	8b ec		 mov	 ebp, esp
  00003	51		 push	 ecx

; 1599 : 	for(int n = OBJ_STARTUSERINDZT; n < OBJMAX; n++)

  00004	a1 00 00 00 00	 mov	 eax, DWORD PTR ?gObj@@3PAUOBJECTSTRUCT@@A ; gObj
  00009	56		 push	 esi
  0000a	57		 push	 edi
  0000b	89 4d fc	 mov	 DWORD PTR _this$[ebp], ecx
  0000e	bf b0 36 00 00	 mov	 edi, 14000		; 000036b0H
  00013	be 00 a7 40 09	 mov	 esi, 155232000		; 0940a700H
$LL10@GCSiegeSco:

; 1600 : 	{
; 1601 : 		LPOBJ lpTempObj = &gObj[n];
; 1602 : 
; 1603 : 		if(lpTempObj->Connected < PLAYER_PLAYING || lpTempObj->Type != OBJ_USER)

  00018	83 7c 06 04 03	 cmp	 DWORD PTR [esi+eax+4], 3
  0001d	7c 16		 jl	 SHORT $LN4@GCSiegeSco
  0001f	66 83 7c 06 68
	01		 cmp	 WORD PTR [esi+eax+104], 1
  00025	75 0e		 jne	 SHORT $LN4@GCSiegeSco

; 1604 : 		{
; 1605 : 			continue;
; 1606 : 		}	
; 1607 : 
; 1608 : 		this->GCPlayerScore(n);

  00027	8b 4d fc	 mov	 ecx, DWORD PTR _this$[ebp]
  0002a	57		 push	 edi
  0002b	e8 00 00 00 00	 call	 ?GCPlayerScore@CDungeonSiege@@QAEXH@Z ; CDungeonSiege::GCPlayerScore
  00030	a1 00 00 00 00	 mov	 eax, DWORD PTR ?gObj@@3PAUOBJECTSTRUCT@@A ; gObj
$LN4@GCSiegeSco:

; 1599 : 	for(int n = OBJ_STARTUSERINDZT; n < OBJMAX; n++)

  00035	81 c6 50 2b 00
	00		 add	 esi, 11088		; 00002b50H
  0003b	47		 inc	 edi
  0003c	81 fe 80 d7 e9
	09		 cmp	 esi, 166320000		; 09e9d780H
  00042	7c d4		 jl	 SHORT $LL10@GCSiegeSco
  00044	5f		 pop	 edi
  00045	5e		 pop	 esi

; 1609 : 	}
; 1610 : }

  00046	8b e5		 mov	 esp, ebp
  00048	5d		 pop	 ebp
  00049	c3		 ret	 0
?GCSiegeScore@CDungeonSiege@@QAEXXZ ENDP		; CDungeonSiege::GCSiegeScore
_TEXT	ENDS
PUBLIC	_aIndex$GSCopy$
PUBLIC	__$ArrayPad$
PUBLIC	?GCPlayerConnect@CDungeonSiege@@QAEXH@Z		; CDungeonSiege::GCPlayerConnect
; Function compile flags: /Ogtp
;	COMDAT ?GCPlayerConnect@CDungeonSiege@@QAEXH@Z
_TEXT	SEGMENT
_pMsg2$ = -172						; size = 8
_aIndex$GSCopy$ = -168					; size = 4
_pMsg$ = -164						; size = 160
__$ArrayPad$ = -4					; size = 4
_aIndex$ = 8						; size = 4
?GCPlayerConnect@CDungeonSiege@@QAEXH@Z PROC		; CDungeonSiege::GCPlayerConnect, COMDAT
; _this$ = ecx

; 1613 : {

  00000	55		 push	 ebp
  00001	8b ec		 mov	 ebp, esp
  00003	81 ec ac 00 00
	00		 sub	 esp, 172		; 000000acH
  00009	a1 00 00 00 00	 mov	 eax, DWORD PTR ___security_cookie
  0000e	33 c5		 xor	 eax, ebp
  00010	89 45 fc	 mov	 DWORD PTR __$ArrayPad$[ebp], eax
  00013	8b 45 08	 mov	 eax, DWORD PTR _aIndex$[ebp]
  00016	53		 push	 ebx
  00017	8b d9		 mov	 ebx, ecx

; 1647 : 	{
; 1648 : 		this->GCPlayerScore(aIndex);

  00019	89 85 58 ff ff
	ff		 mov	 DWORD PTR _aIndex$GSCopy$[ebp], eax
  0001f	85 c0		 test	 eax, eax
  00021	0f 88 d5 00 00
	00		 js	 $LN1@GCPlayerCo

; 1614 : 	if(OBJMAX_RANGE(aIndex) == 0)

  00027	33 c9		 xor	 ecx, ecx
  00029	3d 97 3a 00 00	 cmp	 eax, 14999		; 00003a97H
  0002e	0f 9e c1	 setle	 cl
  00031	8b c1		 mov	 eax, ecx
  00033	85 c0		 test	 eax, eax
  00035	0f 84 c1 00 00
	00		 je	 $LN1@GCPlayerCo

; 1626 : 	szOwName[8] = 0;
; 1627 : 	memcpy(szOwName, this->szLordGuild, 8);
; 1628 : 	memcpy(pMsg.szGuildOwner, szOwName, 8);

  0003b	8b 53 15	 mov	 edx, DWORD PTR [ebx+21]
  0003e	8b 43 19	 mov	 eax, DWORD PTR [ebx+25]
  00041	56		 push	 esi
  00042	57		 push	 edi

; 1629 : 	memset(pMsg.EventName, 0, sizeof(pMsg.EventName));

  00043	6a 32		 push	 50			; 00000032H
  00045	8d 4d ca	 lea	 ecx, DWORD PTR _pMsg$[ebp+110]
  00048	6a 00		 push	 0
  0004a	51		 push	 ecx
  0004b	c7 85 5c ff ff
	ff c1 a0 fb 56	 mov	 DWORD PTR _pMsg$[ebp], 1459331265 ; 56fba0c1H
  00055	89 95 61 ff ff
	ff		 mov	 DWORD PTR _pMsg$[ebp+5], edx
  0005b	89 85 65 ff ff
	ff		 mov	 DWORD PTR _pMsg$[ebp+9], eax
  00061	e8 00 00 00 00	 call	 _memset

; 1630 : 	memcpy(pMsg.EventName, this->m_EventName, sizeof(pMsg.EventName));
; 1631 : 	pMsg.iCountGuild = this->iRegCount;

  00066	8b 53 20	 mov	 edx, DWORD PTR [ebx+32]
  00069	8d b3 e4 00 00
	00		 lea	 esi, DWORD PTR [ebx+228]
  0006f	b9 0c 00 00 00	 mov	 ecx, 12			; 0000000cH
  00074	8d 7d ca	 lea	 edi, DWORD PTR _pMsg$[ebp+110]
  00077	f3 a5		 rep movsd
  00079	83 c4 0c	 add	 esp, 12			; 0000000cH
  0007c	66 a5		 movsw
  0007e	89 95 6c ff ff
	ff		 mov	 DWORD PTR _pMsg$[ebp+16], edx

; 1632 : 	for(int i = 0; i < this->iRegCount; i++)

  00084	85 d2		 test	 edx, edx
  00086	7e 23		 jle	 SHORT $LN2@GCPlayerCo

; 1615 : 	{
; 1616 : 		return;
; 1617 : 	}
; 1618 : 
; 1619 : 	LPOBJ lpUser = &gObj[aIndex];
; 1620 : 
; 1621 : 	char szOwName[9];
; 1622 : 	char szGName[9];
; 1623 : 
; 1624 : 	PMSG_DUNGEON_SIEGE_PLAYER_CONNECT pMsg;
; 1625 : 	pMsg.h.set((LPBYTE)&pMsg, 0xFB, 0x56, sizeof(pMsg));

  00088	8d 85 70 ff ff
	ff		 lea	 eax, DWORD PTR _pMsg$[ebp+20]
  0008e	8d 8b 16 01 00
	00		 lea	 ecx, DWORD PTR [ebx+278]
$LL4@GCPlayerCo:

; 1633 : 	{
; 1634 : 		szGName[8] = 0;
; 1635 : 		memcpy(szGName, this->reg_list[i].szGuildName, 8);
; 1636 : 		pMsg.szGuildName[i][8] = 0;
; 1637 : 		memcpy(pMsg.szGuildName[i], szGName, 8);

  00094	8b 31		 mov	 esi, DWORD PTR [ecx]
  00096	89 30		 mov	 DWORD PTR [eax], esi
  00098	8b 71 04	 mov	 esi, DWORD PTR [ecx+4]
  0009b	c6 40 08 00	 mov	 BYTE PTR [eax+8], 0
  0009f	89 70 04	 mov	 DWORD PTR [eax+4], esi
  000a2	83 c1 09	 add	 ecx, 9
  000a5	83 c0 09	 add	 eax, 9
  000a8	4a		 dec	 edx
  000a9	75 e9		 jne	 SHORT $LL4@GCPlayerCo
$LN2@GCPlayerCo:

; 1638 : 	}
; 1639 : 	DataSend(aIndex, (LPBYTE)&pMsg, sizeof(pMsg));

  000ab	8b b5 58 ff ff
	ff		 mov	 esi, DWORD PTR _aIndex$GSCopy$[ebp]
  000b1	68 a0 00 00 00	 push	 160			; 000000a0H
  000b6	8d 95 5c ff ff
	ff		 lea	 edx, DWORD PTR _pMsg$[ebp]
  000bc	52		 push	 edx
  000bd	56		 push	 esi
  000be	e8 00 00 00 00	 call	 ?DataSend@@YAHHPAEK@Z	; DataSend

; 1640 : 
; 1641 : 	PMSG_DUNGEON_SIEGE_STATE pMsg2;
; 1642 : 	pMsg2.h.set((LPBYTE)&pMsg2, 0xFB, 0x57, sizeof(pMsg2));
; 1643 : 	pMsg2.EventState = this->iEventStatus;

  000c3	8b 03		 mov	 eax, DWORD PTR [ebx]

; 1644 : 	DataSend(aIndex, (LPBYTE)&pMsg2, sizeof(pMsg2));

  000c5	6a 08		 push	 8
  000c7	8d 8d 54 ff ff
	ff		 lea	 ecx, DWORD PTR _pMsg2$[ebp]
  000cd	51		 push	 ecx
  000ce	56		 push	 esi
  000cf	c7 85 54 ff ff
	ff c1 08 fb 57	 mov	 DWORD PTR _pMsg2$[ebp], 1476069569 ; 57fb08c1H
  000d9	89 85 58 ff ff
	ff		 mov	 DWORD PTR _pMsg2$[ebp+4], eax
  000df	e8 00 00 00 00	 call	 ?DataSend@@YAHHPAEK@Z	; DataSend
  000e4	83 c4 18	 add	 esp, 24			; 00000018H

; 1645 : 
; 1646 : 	if(!this->CheckStatus(eEVENTDUNGEON_CLOSE))

  000e7	6a 00		 push	 0
  000e9	8b cb		 mov	 ecx, ebx
  000eb	e8 00 00 00 00	 call	 ?CheckStatus@CDungeonSiege@@QAE_NH@Z ; CDungeonSiege::CheckStatus
  000f0	84 c0		 test	 al, al
  000f2	75 06		 jne	 SHORT $LN16@GCPlayerCo

; 1647 : 	{
; 1648 : 		this->GCPlayerScore(aIndex);

  000f4	56		 push	 esi
  000f5	e8 00 00 00 00	 call	 ?GCPlayerScore@CDungeonSiege@@QAEXH@Z ; CDungeonSiege::GCPlayerScore
$LN16@GCPlayerCo:
  000fa	5f		 pop	 edi
  000fb	5e		 pop	 esi
$LN1@GCPlayerCo:

; 1649 : 		//this->MapKick(aIndex);
; 1650 : 	}
; 1651 : }

  000fc	8b 4d fc	 mov	 ecx, DWORD PTR __$ArrayPad$[ebp]
  000ff	33 cd		 xor	 ecx, ebp
  00101	5b		 pop	 ebx
  00102	e8 00 00 00 00	 call	 @__security_check_cookie@4
  00107	8b e5		 mov	 esp, ebp
  00109	5d		 pop	 ebp
  0010a	c2 04 00	 ret	 4
?GCPlayerConnect@CDungeonSiege@@QAEXH@Z ENDP		; CDungeonSiege::GCPlayerConnect
_TEXT	ENDS
PUBLIC	?StatusWait@CDungeonSiege@@QAEXXZ		; CDungeonSiege::StatusWait
; Function compile flags: /Ogtp
;	COMDAT ?StatusWait@CDungeonSiege@@QAEXXZ
_TEXT	SEGMENT
?StatusWait@CDungeonSiege@@QAEXXZ PROC			; CDungeonSiege::StatusWait, COMDAT
; _this$ = ecx

; 483  : {

  00000	56		 push	 esi
  00001	8b f1		 mov	 esi, ecx

; 484  : 	this->iTickCount = GetTickCount();

  00003	ff 15 00 00 00
	00		 call	 DWORD PTR __imp__GetTickCount@0
  00009	89 46 24	 mov	 DWORD PTR [esi+36], eax

; 485  : 	this->iTickRemain = 60000 * this->iEventDurationWait1;

  0000c	8b 46 70	 mov	 eax, DWORD PTR [esi+112]
  0000f	69 c0 60 ea 00
	00		 imul	 eax, 60000		; 0000ea60H

; 486  : 	this->MonsterEventDisable();

  00015	8b ce		 mov	 ecx, esi
  00017	89 46 28	 mov	 DWORD PTR [esi+40], eax
  0001a	e8 00 00 00 00	 call	 ?MonsterEventDisable@CDungeonSiege@@QAEXXZ ; CDungeonSiege::MonsterEventDisable
  0001f	5e		 pop	 esi

; 487  : 	this->GCSiegeScore();

  00020	e9 00 00 00 00	 jmp	 ?GCSiegeScore@CDungeonSiege@@QAEXXZ ; CDungeonSiege::GCSiegeScore
?StatusWait@CDungeonSiege@@QAEXXZ ENDP			; CDungeonSiege::StatusWait
_TEXT	ENDS
PUBLIC	?StatusWaitStage2@CDungeonSiege@@QAEXXZ		; CDungeonSiege::StatusWaitStage2
; Function compile flags: /Ogtp
;	COMDAT ?StatusWaitStage2@CDungeonSiege@@QAEXXZ
_TEXT	SEGMENT
?StatusWaitStage2@CDungeonSiege@@QAEXXZ PROC		; CDungeonSiege::StatusWaitStage2, COMDAT
; _this$ = ecx

; 512  : {

  00000	56		 push	 esi
  00001	8b f1		 mov	 esi, ecx

; 513  : 	this->iTickCount = GetTickCount();

  00003	ff 15 00 00 00
	00		 call	 DWORD PTR __imp__GetTickCount@0
  00009	89 46 24	 mov	 DWORD PTR [esi+36], eax

; 514  : 	this->iTickRemain = 60000 * this->iEventDurationWait2;

  0000c	8b 46 74	 mov	 eax, DWORD PTR [esi+116]
  0000f	69 c0 60 ea 00
	00		 imul	 eax, 60000		; 0000ea60H

; 515  : 
; 516  : 	this->GCSiegeScore();

  00015	8b ce		 mov	 ecx, esi
  00017	89 46 28	 mov	 DWORD PTR [esi+40], eax
  0001a	e8 00 00 00 00	 call	 ?GCSiegeScore@CDungeonSiege@@QAEXXZ ; CDungeonSiege::GCSiegeScore

; 517  : 
; 518  : 	gObjTeleport(this->aIndexFinal1, this->m_EventMapNumber, this->m_EventStage2WaitX, this->m_EventStage2WaitY);

  0001f	8b 8e 90 00 00
	00		 mov	 ecx, DWORD PTR [esi+144]
  00025	8b 96 8c 00 00
	00		 mov	 edx, DWORD PTR [esi+140]
  0002b	8b 46 78	 mov	 eax, DWORD PTR [esi+120]
  0002e	51		 push	 ecx
  0002f	8b 4e 38	 mov	 ecx, DWORD PTR [esi+56]
  00032	52		 push	 edx
  00033	50		 push	 eax
  00034	51		 push	 ecx
  00035	e8 00 00 00 00	 call	 ?gObjTeleport@@YAXHHHH@Z ; gObjTeleport

; 519  : 	gObjTeleport(this->aIndexFinal2, this->m_EventMapNumber, this->m_EventStage2WaitX, this->m_EventStage2WaitY);

  0003a	8b 96 90 00 00
	00		 mov	 edx, DWORD PTR [esi+144]
  00040	8b 86 8c 00 00
	00		 mov	 eax, DWORD PTR [esi+140]
  00046	8b 4e 78	 mov	 ecx, DWORD PTR [esi+120]
  00049	52		 push	 edx
  0004a	8b 56 3c	 mov	 edx, DWORD PTR [esi+60]
  0004d	50		 push	 eax
  0004e	51		 push	 ecx
  0004f	52		 push	 edx
  00050	e8 00 00 00 00	 call	 ?gObjTeleport@@YAXHHHH@Z ; gObjTeleport

; 520  : 
; 521  : 	this->GCMapAttribute(this->aIndexFinal1, 0);

  00055	8b 46 38	 mov	 eax, DWORD PTR [esi+56]
  00058	83 c4 20	 add	 esp, 32			; 00000020H
  0005b	6a 00		 push	 0
  0005d	50		 push	 eax
  0005e	8b ce		 mov	 ecx, esi
  00060	e8 00 00 00 00	 call	 ?GCMapAttribute@CDungeonSiege@@QAEXHH@Z ; CDungeonSiege::GCMapAttribute

; 522  : 	this->GCMapAttribute(this->aIndexFinal2, 0);

  00065	8b 4e 3c	 mov	 ecx, DWORD PTR [esi+60]
  00068	6a 00		 push	 0
  0006a	51		 push	 ecx
  0006b	8b ce		 mov	 ecx, esi
  0006d	e8 00 00 00 00	 call	 ?GCMapAttribute@CDungeonSiege@@QAEXHH@Z ; CDungeonSiege::GCMapAttribute
  00072	5e		 pop	 esi

; 523  : }	

  00073	c3		 ret	 0
?StatusWaitStage2@CDungeonSiege@@QAEXXZ ENDP		; CDungeonSiege::StatusWaitStage2
_TEXT	ENDS
PUBLIC	?TeleportInSiege@CDungeonSiege@@QAEXH@Z		; CDungeonSiege::TeleportInSiege
; Function compile flags: /Ogtp
;	COMDAT ?TeleportInSiege@CDungeonSiege@@QAEXH@Z
_TEXT	SEGMENT
_aIndex$ = 8						; size = 4
?TeleportInSiege@CDungeonSiege@@QAEXH@Z PROC		; CDungeonSiege::TeleportInSiege, COMDAT
; _this$ = ecx

; 1043 : {

  00000	55		 push	 ebp
  00001	8b ec		 mov	 ebp, esp

; 1044 : 	if(!OBJMAX_RANGE(aIndex))

  00003	8b 45 08	 mov	 eax, DWORD PTR _aIndex$[ebp]
  00006	56		 push	 esi
  00007	8b f1		 mov	 esi, ecx
  00009	85 c0		 test	 eax, eax
  0000b	0f 88 79 01 00
	00		 js	 $LN2@TeleportIn@2
  00011	33 c9		 xor	 ecx, ecx
  00013	3d 97 3a 00 00	 cmp	 eax, 14999		; 00003a97H
  00018	0f 9e c1	 setle	 cl
  0001b	85 c9		 test	 ecx, ecx
  0001d	0f 84 67 01 00
	00		 je	 $LN2@TeleportIn@2

; 1045 : 	{
; 1046 : 		return;
; 1047 : 	}
; 1048 : 
; 1049 : 	LPOBJ lpUser = &gObj[aIndex];

  00023	57		 push	 edi
  00024	8b f8		 mov	 edi, eax
  00026	69 ff 50 2b 00
	00		 imul	 edi, 11088		; 00002b50H
  0002c	03 3d 00 00 00
	00		 add	 edi, DWORD PTR ?gObj@@3PAUOBJECTSTRUCT@@A ; gObj

; 1050 : 
; 1051 : 	if(lpUser->Connected < PLAYER_PLAYING)

  00032	83 7f 04 03	 cmp	 DWORD PTR [edi+4], 3
  00036	0f 8c 4d 01 00
	00		 jl	 $LN27@TeleportIn@2

; 1052 : 	{
; 1053 : 		return;
; 1054 : 	}
; 1055 : 
; 1056 : 	_GUILD_INFO_STRUCT * lpGuildUser = lpUser->lpGuild;

  0003c	53		 push	 ebx
  0003d	8b 9f 38 04 00
	00		 mov	 ebx, DWORD PTR [edi+1080]

; 1057 : 
; 1058 : 	if(!lpGuildUser)

  00043	85 db		 test	 ebx, ebx
  00045	0f 84 3d 01 00
	00		 je	 $LN28@TeleportIn@2

; 1059 : 	{
; 1060 : 		return;
; 1061 : 	}
; 1062 : 
; 1063 : 	if(this->PlayerGuildRegCheck(aIndex))

  0004b	50		 push	 eax
  0004c	8b ce		 mov	 ecx, esi
  0004e	e8 00 00 00 00	 call	 ?PlayerGuildRegCheck@CDungeonSiege@@QAE_NH@Z ; CDungeonSiege::PlayerGuildRegCheck
  00053	84 c0		 test	 al, al
  00055	0f 84 2d 01 00
	00		 je	 $LN28@TeleportIn@2

; 1064 : 	{
; 1065 : 		if(this->CheckStatus(eEVENTDUNGEON_WAIT))

  0005b	6a 01		 push	 1
  0005d	8b ce		 mov	 ecx, esi
  0005f	e8 00 00 00 00	 call	 ?CheckStatus@CDungeonSiege@@QAE_NH@Z ; CDungeonSiege::CheckStatus
  00064	84 c0		 test	 al, al
  00066	74 19		 je	 SHORT $LN18@TeleportIn@2

; 1066 : 		{
; 1067 : 			this->GCSiegeScore();

  00068	e8 00 00 00 00	 call	 ?GCSiegeScore@CDungeonSiege@@QAEXXZ ; CDungeonSiege::GCSiegeScore

; 1068 : 			gObjTeleport(aIndex, this->m_EventMapNumber, this->m_EventStage1WaitX, this->m_EventStage1WaitY);

  0006d	8b 86 80 00 00
	00		 mov	 eax, DWORD PTR [esi+128]
  00073	8b 4e 7c	 mov	 ecx, DWORD PTR [esi+124]
  00076	8b 56 78	 mov	 edx, DWORD PTR [esi+120]
  00079	50		 push	 eax
  0007a	51		 push	 ecx
  0007b	52		 push	 edx

; 1069 : 			if(this->iTickRemain > 60000)
; 1070 : 			{
; 1071 : 				this->GCMapAttribute(aIndex, 0);
; 1072 : 			}
; 1073 : 		}

  0007c	e9 a7 00 00 00	 jmp	 $LN30@TeleportIn@2
$LN18@TeleportIn@2:

; 1074 : 		else if(this->CheckStatus(eEVENTDUNGEON_START_STAGE1))

  00081	6a 02		 push	 2
  00083	e8 00 00 00 00	 call	 ?CheckStatus@CDungeonSiege@@QAE_NH@Z ; CDungeonSiege::CheckStatus
  00088	84 c0		 test	 al, al
  0008a	74 6e		 je	 SHORT $LN15@TeleportIn@2

; 1075 : 		{
; 1076 : 			if(this->m_NpcTeleportMinusScore > 0)

  0008c	8b 8e e0 00 00
	00		 mov	 ecx, DWORD PTR [esi+224]
  00092	33 d2		 xor	 edx, edx
  00094	3b ca		 cmp	 ecx, edx
  00096	7e 3d		 jle	 SHORT $LN14@TeleportIn@2

; 1077 : 			{
; 1078 : 				if(lpUser->DSiege.iScore > this->m_NpcTeleportMinusScore)

  00098	8b 87 04 29 00
	00		 mov	 eax, DWORD PTR [edi+10500]
  0009e	3b c1		 cmp	 eax, ecx
  000a0	7e 0a		 jle	 SHORT $LN13@TeleportIn@2

; 1079 : 				{
; 1080 : 					lpUser->DSiege.iScore -= this->m_NpcTeleportMinusScore;

  000a2	2b c1		 sub	 eax, ecx
  000a4	89 87 04 29 00
	00		 mov	 DWORD PTR [edi+10500], eax

; 1081 : 				}
; 1082 : 				else

  000aa	eb 06		 jmp	 SHORT $LN12@TeleportIn@2
$LN13@TeleportIn@2:

; 1083 : 				{
; 1084 : 					lpUser->DSiege.iScore = 0;

  000ac	89 97 04 29 00
	00		 mov	 DWORD PTR [edi+10500], edx
$LN12@TeleportIn@2:

; 1085 : 				}
; 1086 : 				if(lpUser->lpGuild->DungeonSiege.iScore > this->m_NpcTeleportMinusScore)

  000b2	8b 86 e0 00 00
	00		 mov	 eax, DWORD PTR [esi+224]
  000b8	39 83 48 07 00
	00		 cmp	 DWORD PTR [ebx+1864], eax
  000be	7e 08		 jle	 SHORT $LN11@TeleportIn@2

; 1087 : 				{
; 1088 : 					lpUser->lpGuild->DungeonSiege.iScore -= this->m_NpcTeleportMinusScore;

  000c0	29 83 48 07 00
	00		 sub	 DWORD PTR [ebx+1864], eax

; 1089 : 				}
; 1090 : 				else

  000c6	eb 06		 jmp	 SHORT $LN10@TeleportIn@2
$LN11@TeleportIn@2:

; 1091 : 				{
; 1092 : 					lpUser->lpGuild->DungeonSiege.iScore = 0;

  000c8	89 93 48 07 00
	00		 mov	 DWORD PTR [ebx+1864], edx
$LN10@TeleportIn@2:

; 1093 : 				}
; 1094 : 				this->GCSiegeScore();

  000ce	8b ce		 mov	 ecx, esi
  000d0	e8 00 00 00 00	 call	 ?GCSiegeScore@CDungeonSiege@@QAEXXZ ; CDungeonSiege::GCSiegeScore
$LN14@TeleportIn@2:

; 1095 : 			}
; 1096 : 			gObjTeleport(aIndex, this->m_EventMapNumber, this->m_EventStage1KillX, this->m_EventStage1KillY);

  000d5	8b 86 88 00 00
	00		 mov	 eax, DWORD PTR [esi+136]
  000db	8b 8e 84 00 00
	00		 mov	 ecx, DWORD PTR [esi+132]
  000e1	8b 56 78	 mov	 edx, DWORD PTR [esi+120]
  000e4	50		 push	 eax
  000e5	8b 45 08	 mov	 eax, DWORD PTR _aIndex$[ebp]
  000e8	51		 push	 ecx
  000e9	52		 push	 edx
  000ea	50		 push	 eax

; 1115 : 				gObjTeleport(aIndex, this->m_EventMapNumber, this->m_EventStage2KillX, this->m_EventStage2KillY);

  000eb	e8 00 00 00 00	 call	 ?gObjTeleport@@YAXHHHH@Z ; gObjTeleport
  000f0	83 c4 10	 add	 esp, 16			; 00000010H
  000f3	5b		 pop	 ebx
  000f4	5f		 pop	 edi
  000f5	5e		 pop	 esi

; 1116 : 			}
; 1117 : 		}
; 1118 : 	}
; 1119 : }

  000f6	5d		 pop	 ebp
  000f7	c2 04 00	 ret	 4
$LN15@TeleportIn@2:

; 1097 : 		}
; 1098 : 		else if(this->CheckStatus(eEVENTDUNGEON_WAIT_STAGE2))

  000fa	6a 03		 push	 3
  000fc	e8 00 00 00 00	 call	 ?CheckStatus@CDungeonSiege@@QAE_NH@Z ; CDungeonSiege::CheckStatus
  00101	84 c0		 test	 al, al
  00103	74 49		 je	 SHORT $LN8@TeleportIn@2

; 1099 : 		{
; 1100 : 			if(lpUser->m_Index == this->aIndexFinal1 || lpUser->m_Index == this->aIndexFinal2)

  00105	8b 3f		 mov	 edi, DWORD PTR [edi]
  00107	3b 7e 38	 cmp	 edi, DWORD PTR [esi+56]
  0010a	74 05		 je	 SHORT $LN6@TeleportIn@2
  0010c	3b 7e 3c	 cmp	 edi, DWORD PTR [esi+60]
  0010f	75 77		 jne	 SHORT $LN28@TeleportIn@2
$LN6@TeleportIn@2:

; 1101 : 			{
; 1102 : 				this->GCSiegeScore();

  00111	e8 00 00 00 00	 call	 ?GCSiegeScore@CDungeonSiege@@QAEXXZ ; CDungeonSiege::GCSiegeScore

; 1103 : 				gObjTeleport(aIndex, this->m_EventMapNumber, this->m_EventStage2WaitX, this->m_EventStage2WaitY);

  00116	8b 8e 90 00 00
	00		 mov	 ecx, DWORD PTR [esi+144]
  0011c	8b 96 8c 00 00
	00		 mov	 edx, DWORD PTR [esi+140]
  00122	8b 46 78	 mov	 eax, DWORD PTR [esi+120]
  00125	51		 push	 ecx
  00126	52		 push	 edx
  00127	50		 push	 eax
$LN30@TeleportIn@2:
  00128	8b 7d 08	 mov	 edi, DWORD PTR _aIndex$[ebp]
  0012b	57		 push	 edi
  0012c	e8 00 00 00 00	 call	 ?gObjTeleport@@YAXHHHH@Z ; gObjTeleport
  00131	83 c4 10	 add	 esp, 16			; 00000010H

; 1104 : 				if(this->iTickRemain > 60000)

  00134	81 7e 28 60 ea
	00 00		 cmp	 DWORD PTR [esi+40], 60000 ; 0000ea60H
  0013b	7e 4b		 jle	 SHORT $LN28@TeleportIn@2

; 1105 : 				{
; 1106 : 					this->GCMapAttribute(aIndex, 0);

  0013d	6a 00		 push	 0
  0013f	57		 push	 edi
  00140	8b ce		 mov	 ecx, esi
  00142	e8 00 00 00 00	 call	 ?GCMapAttribute@CDungeonSiege@@QAEXHH@Z ; CDungeonSiege::GCMapAttribute
  00147	5b		 pop	 ebx
  00148	5f		 pop	 edi
  00149	5e		 pop	 esi

; 1116 : 			}
; 1117 : 		}
; 1118 : 	}
; 1119 : }

  0014a	5d		 pop	 ebp
  0014b	c2 04 00	 ret	 4
$LN8@TeleportIn@2:

; 1107 : 				}
; 1108 : 			}			
; 1109 : 		}
; 1110 : 		else if(this->CheckStatus(eEVENTDUNGEON_START_STAGE2))

  0014e	6a 04		 push	 4
  00150	e8 00 00 00 00	 call	 ?CheckStatus@CDungeonSiege@@QAE_NH@Z ; CDungeonSiege::CheckStatus
  00155	84 c0		 test	 al, al
  00157	74 2f		 je	 SHORT $LN28@TeleportIn@2

; 1111 : 		{
; 1112 : 			if(lpUser->m_Index == this->aIndexFinal1 || lpUser->m_Index == this->aIndexFinal2)

  00159	8b 3f		 mov	 edi, DWORD PTR [edi]
  0015b	3b 7e 38	 cmp	 edi, DWORD PTR [esi+56]
  0015e	74 05		 je	 SHORT $LN1@TeleportIn@2
  00160	3b 7e 3c	 cmp	 edi, DWORD PTR [esi+60]
  00163	75 23		 jne	 SHORT $LN28@TeleportIn@2
$LN1@TeleportIn@2:

; 1113 : 			{
; 1114 : 				this->GCSiegeScore();

  00165	e8 00 00 00 00	 call	 ?GCSiegeScore@CDungeonSiege@@QAEXXZ ; CDungeonSiege::GCSiegeScore

; 1115 : 				gObjTeleport(aIndex, this->m_EventMapNumber, this->m_EventStage2KillX, this->m_EventStage2KillY);

  0016a	8b 8e 98 00 00
	00		 mov	 ecx, DWORD PTR [esi+152]
  00170	8b 96 94 00 00
	00		 mov	 edx, DWORD PTR [esi+148]
  00176	8b 46 78	 mov	 eax, DWORD PTR [esi+120]
  00179	51		 push	 ecx
  0017a	8b 4d 08	 mov	 ecx, DWORD PTR _aIndex$[ebp]
  0017d	52		 push	 edx
  0017e	50		 push	 eax
  0017f	51		 push	 ecx
  00180	e8 00 00 00 00	 call	 ?gObjTeleport@@YAXHHHH@Z ; gObjTeleport
  00185	83 c4 10	 add	 esp, 16			; 00000010H
$LN28@TeleportIn@2:
  00188	5b		 pop	 ebx
$LN27@TeleportIn@2:
  00189	5f		 pop	 edi
$LN2@TeleportIn@2:
  0018a	5e		 pop	 esi

; 1116 : 			}
; 1117 : 		}
; 1118 : 	}
; 1119 : }

  0018b	5d		 pop	 ebp
  0018c	c2 04 00	 ret	 4
?TeleportInSiege@CDungeonSiege@@QAEXH@Z ENDP		; CDungeonSiege::TeleportInSiege
_TEXT	ENDS
PUBLIC	?NpcDialog@CDungeonSiege@@QAE_NHH@Z		; CDungeonSiege::NpcDialog
; Function compile flags: /Ogtp
;	COMDAT ?NpcDialog@CDungeonSiege@@QAE_NHH@Z
_TEXT	SEGMENT
_aIndex$ = 8						; size = 4
_aNpcIndex$ = 12					; size = 4
?NpcDialog@CDungeonSiege@@QAE_NHH@Z PROC		; CDungeonSiege::NpcDialog, COMDAT
; _this$ = ecx

; 151  : {

  00000	55		 push	 ebp
  00001	8b ec		 mov	 ebp, esp

; 152  : 	if(!this->bEnable)

  00003	80 79 48 00	 cmp	 BYTE PTR [ecx+72], 0
  00007	75 06		 jne	 SHORT $LN5@NpcDialog

; 153  : 	{
; 154  : 		return false;

  00009	32 c0		 xor	 al, al

; 178  : }

  0000b	5d		 pop	 ebp
  0000c	c2 08 00	 ret	 8
$LN5@NpcDialog:

; 155  : 	}
; 156  : 
; 157  : 	LPOBJ lpUser = &gObj[aIndex];
; 158  : 	LPOBJ lpNpc = &gObj[aNpcIndex];

  0000f	8b 45 0c	 mov	 eax, DWORD PTR _aNpcIndex$[ebp]
  00012	56		 push	 esi
  00013	69 c0 50 2b 00
	00		 imul	 eax, 11088		; 00002b50H
  00019	8b 35 00 00 00
	00		 mov	 esi, DWORD PTR ?gObj@@3PAUOBJECTSTRUCT@@A ; gObj
  0001f	57		 push	 edi
  00020	8b 7d 08	 mov	 edi, DWORD PTR _aIndex$[ebp]
  00023	8b d7		 mov	 edx, edi
  00025	69 d2 50 2b 00
	00		 imul	 edx, 11088		; 00002b50H
  0002b	03 c6		 add	 eax, esi
  0002d	03 d6		 add	 edx, esi

; 159  : 
; 160  : 	if(!(lpNpc->Class == this->iNpcClass && lpNpc->MapNumber == this->iNpcMap && lpNpc->X == this->iNpcX && lpNpc->Y == this->iNpcY))

  0002f	0f b7 b0 b8 00
	00 00		 movzx	 esi, WORD PTR [eax+184]
  00036	3b 71 4c	 cmp	 esi, DWORD PTR [ecx+76]
  00039	75 51		 jne	 SHORT $LN3@NpcDialog
  0003b	0f b6 b0 49 01
	00 00		 movzx	 esi, BYTE PTR [eax+329]
  00042	3b 71 50	 cmp	 esi, DWORD PTR [ecx+80]
  00045	75 45		 jne	 SHORT $LN3@NpcDialog
  00047	0f bf b0 44 01
	00 00		 movsx	 esi, WORD PTR [eax+324]
  0004e	3b 71 54	 cmp	 esi, DWORD PTR [ecx+84]
  00051	75 39		 jne	 SHORT $LN3@NpcDialog
  00053	0f bf 80 46 01
	00 00		 movsx	 eax, WORD PTR [eax+326]
  0005a	3b 41 58	 cmp	 eax, DWORD PTR [ecx+88]
  0005d	75 2d		 jne	 SHORT $LN3@NpcDialog

; 164  : 	}
; 165  : 
; 166  : 	lpUser->DSiege.bNpcClick = true;
; 167  : 
; 168  : 	if(this->CheckStatus(eEVENTDUNGEON_CLOSE))

  0005f	6a 00		 push	 0
  00061	c6 82 fc 28 00
	00 01		 mov	 BYTE PTR [edx+10492], 1
  00068	e8 00 00 00 00	 call	 ?CheckStatus@CDungeonSiege@@QAE_NH@Z ; CDungeonSiege::CheckStatus

; 169  : 	{
; 170  : 		this->GCNpcNnfo(aIndex);

  0006d	57		 push	 edi
  0006e	84 c0		 test	 al, al
  00070	74 0d		 je	 SHORT $LN2@NpcDialog
  00072	e8 00 00 00 00	 call	 ?GCNpcNnfo@CDungeonSiege@@QAEXH@Z ; CDungeonSiege::GCNpcNnfo
  00077	5f		 pop	 edi

; 175  : 	}
; 176  : 
; 177  : 	return true;

  00078	b0 01		 mov	 al, 1
  0007a	5e		 pop	 esi

; 178  : }

  0007b	5d		 pop	 ebp
  0007c	c2 08 00	 ret	 8
$LN2@NpcDialog:

; 171  : 	}
; 172  : 	else
; 173  : 	{
; 174  : 		this->TeleportInSiege(aIndex);

  0007f	e8 00 00 00 00	 call	 ?TeleportInSiege@CDungeonSiege@@QAEXH@Z ; CDungeonSiege::TeleportInSiege
  00084	5f		 pop	 edi

; 175  : 	}
; 176  : 
; 177  : 	return true;

  00085	b0 01		 mov	 al, 1
  00087	5e		 pop	 esi

; 178  : }

  00088	5d		 pop	 ebp
  00089	c2 08 00	 ret	 8
$LN3@NpcDialog:
  0008c	5f		 pop	 edi

; 161  : 	{
; 162  : 		lpUser->DSiege.bNpcClick = false;

  0008d	c6 82 fc 28 00
	00 00		 mov	 BYTE PTR [edx+10492], 0

; 163  : 		return false;

  00094	32 c0		 xor	 al, al
  00096	5e		 pop	 esi

; 178  : }

  00097	5d		 pop	 ebp
  00098	c2 08 00	 ret	 8
?NpcDialog@CDungeonSiege@@QAE_NHH@Z ENDP		; CDungeonSiege::NpcDialog
_TEXT	ENDS
PUBLIC	?SetStatus@CDungeonSiege@@QAEXH@Z		; CDungeonSiege::SetStatus
; Function compile flags: /Ogtp
;	COMDAT ?SetStatus@CDungeonSiege@@QAEXH@Z
_TEXT	SEGMENT
_States$ = 8						; size = 4
?SetStatus@CDungeonSiege@@QAEXH@Z PROC			; CDungeonSiege::SetStatus, COMDAT
; _this$ = ecx

; 439  : {

  00000	55		 push	 ebp
  00001	8b ec		 mov	 ebp, esp
  00003	56		 push	 esi
  00004	8b f1		 mov	 esi, ecx

; 440  : 	if(!this->bEnable)

  00006	80 7e 48 00	 cmp	 BYTE PTR [esi+72], 0
  0000a	74 61		 je	 SHORT $LN9@SetStatus

; 441  : 	{
; 442  : 		return;
; 443  : 	}
; 444  : 
; 445  : 	this->iEventStatus = States;

  0000c	8b 45 08	 mov	 eax, DWORD PTR _States$[ebp]
  0000f	89 06		 mov	 DWORD PTR [esi], eax

; 446  : 
; 447  : 	switch(this->iEventStatus)

  00011	83 f8 04	 cmp	 eax, 4
  00014	77 50		 ja	 SHORT $LN6@SetStatus
  00016	ff 24 85 00 00
	00 00		 jmp	 DWORD PTR $LN11@SetStatus[eax*4]
$LN5@SetStatus:

; 448  : 	{
; 449  : 		case eEVENTDUNGEON_CLOSE:			this->StatusClose();		break;

  0001d	e8 00 00 00 00	 call	 ?StatusClose@CDungeonSiege@@QAEXXZ ; CDungeonSiege::StatusClose

; 454  : 	}
; 455  : 
; 456  : 	this->GCEventState();

  00022	8b ce		 mov	 ecx, esi
  00024	e8 00 00 00 00	 call	 ?GCEventState@CDungeonSiege@@QAEXXZ ; CDungeonSiege::GCEventState
  00029	5e		 pop	 esi

; 457  : }

  0002a	5d		 pop	 ebp
  0002b	c2 04 00	 ret	 4
$LN4@SetStatus:

; 450  : 		case eEVENTDUNGEON_WAIT:			this->StatusWait();			break;

  0002e	e8 00 00 00 00	 call	 ?StatusWait@CDungeonSiege@@QAEXXZ ; CDungeonSiege::StatusWait

; 454  : 	}
; 455  : 
; 456  : 	this->GCEventState();

  00033	8b ce		 mov	 ecx, esi
  00035	e8 00 00 00 00	 call	 ?GCEventState@CDungeonSiege@@QAEXXZ ; CDungeonSiege::GCEventState
  0003a	5e		 pop	 esi

; 457  : }

  0003b	5d		 pop	 ebp
  0003c	c2 04 00	 ret	 4
$LN3@SetStatus:

; 451  : 		case eEVENTDUNGEON_START_STAGE1:	this->StatusStartStage1();	break;

  0003f	e8 00 00 00 00	 call	 ?StatusStartStage1@CDungeonSiege@@QAEXXZ ; CDungeonSiege::StatusStartStage1

; 454  : 	}
; 455  : 
; 456  : 	this->GCEventState();

  00044	8b ce		 mov	 ecx, esi
  00046	e8 00 00 00 00	 call	 ?GCEventState@CDungeonSiege@@QAEXXZ ; CDungeonSiege::GCEventState
  0004b	5e		 pop	 esi

; 457  : }

  0004c	5d		 pop	 ebp
  0004d	c2 04 00	 ret	 4
$LN2@SetStatus:

; 452  : 		case eEVENTDUNGEON_WAIT_STAGE2:		this->StatusWaitStage2();	break;

  00050	e8 00 00 00 00	 call	 ?StatusWaitStage2@CDungeonSiege@@QAEXXZ ; CDungeonSiege::StatusWaitStage2

; 454  : 	}
; 455  : 
; 456  : 	this->GCEventState();

  00055	8b ce		 mov	 ecx, esi
  00057	e8 00 00 00 00	 call	 ?GCEventState@CDungeonSiege@@QAEXXZ ; CDungeonSiege::GCEventState
  0005c	5e		 pop	 esi

; 457  : }

  0005d	5d		 pop	 ebp
  0005e	c2 04 00	 ret	 4
$LN1@SetStatus:

; 453  : 		case eEVENTDUNGEON_START_STAGE2:	this->StatusStartStage2();	break;

  00061	e8 00 00 00 00	 call	 ?StatusStartStage2@CDungeonSiege@@QAEXXZ ; CDungeonSiege::StatusStartStage2
$LN6@SetStatus:

; 454  : 	}
; 455  : 
; 456  : 	this->GCEventState();

  00066	8b ce		 mov	 ecx, esi
  00068	e8 00 00 00 00	 call	 ?GCEventState@CDungeonSiege@@QAEXXZ ; CDungeonSiege::GCEventState
$LN9@SetStatus:
  0006d	5e		 pop	 esi

; 457  : }

  0006e	5d		 pop	 ebp
  0006f	c2 04 00	 ret	 4
  00072	8b ff		 npad	 2
$LN11@SetStatus:
  00074	00 00 00 00	 DD	 $LN5@SetStatus
  00078	00 00 00 00	 DD	 $LN4@SetStatus
  0007c	00 00 00 00	 DD	 $LN3@SetStatus
  00080	00 00 00 00	 DD	 $LN2@SetStatus
  00084	00 00 00 00	 DD	 $LN1@SetStatus
?SetStatus@CDungeonSiege@@QAEXH@Z ENDP			; CDungeonSiege::SetStatus
_TEXT	ENDS
PUBLIC	??_C@_0CG@JALOJN@?$FL?$CFs?$FN?5?$CFs?5are?5new?5owners?5of?5the?5Du@ ; `string'
PUBLIC	__$ArrayPad$
PUBLIC	?ProcessStatusStart@CDungeonSiege@@QAEXXZ	; CDungeonSiege::ProcessStatusStart
;	COMDAT ??_C@_0CG@JALOJN@?$FL?$CFs?$FN?5?$CFs?5are?5new?5owners?5of?5the?5Du@
CONST	SEGMENT
??_C@_0CG@JALOJN@?$FL?$CFs?$FN?5?$CFs?5are?5new?5owners?5of?5the?5Du@ DB '['
	DB	'%s] %s are new owners of the Dungeon', 00H	; `string'
; Function compile flags: /Ogtp
CONST	ENDS
;	COMDAT ?ProcessStatusStart@CDungeonSiege@@QAEXXZ
_TEXT	SEGMENT
_szTemp$212594 = -260					; size = 256
__$ArrayPad$ = -4					; size = 4
?ProcessStatusStart@CDungeonSiege@@QAEXXZ PROC		; CDungeonSiege::ProcessStatusStart, COMDAT
; _this$ = ecx

; 576  : {

  00000	55		 push	 ebp
  00001	8b ec		 mov	 ebp, esp
  00003	81 ec 04 01 00
	00		 sub	 esp, 260		; 00000104H
  00009	a1 00 00 00 00	 mov	 eax, DWORD PTR ___security_cookie
  0000e	33 c5		 xor	 eax, ebp
  00010	89 45 fc	 mov	 DWORD PTR __$ArrayPad$[ebp], eax
  00013	56		 push	 esi
  00014	8b f1		 mov	 esi, ecx

; 577  : 	if(!this->bEnable)

  00016	80 7e 48 00	 cmp	 BYTE PTR [esi+72], 0
  0001a	0f 84 b0 00 00
	00		 je	 $LN1@ProcessSta

; 578  : 	{
; 579  : 		return;
; 580  : 	}
; 581  : 
; 582  : 	this->SiegeClearScore();

  00020	e8 00 00 00 00	 call	 ?SiegeClearScore@CDungeonSiege@@QAEXXZ ; CDungeonSiege::SiegeClearScore

; 583  : 
; 584  : 	if(this->iRegCount >= 2)

  00025	8b 46 20	 mov	 eax, DWORD PTR [esi+32]
  00028	83 f8 02	 cmp	 eax, 2
  0002b	7c 07		 jl	 SHORT $LN9@ProcessSta

; 585  : 	{
; 586  : 		this->SetStatus(eEVENTDUNGEON_WAIT);

  0002d	6a 01		 push	 1
  0002f	e9 95 00 00 00	 jmp	 $LN15@ProcessSta
$LN9@ProcessSta:

; 587  : 	}
; 588  : 	else if(this->iRegCount == 1)

  00034	83 f8 01	 cmp	 eax, 1
  00037	75 76		 jne	 SHORT $LN7@ProcessSta

; 589  : 	{
; 590  : 		for(int i = 0; i < this->iRegCount; i++)

  00039	53		 push	 ebx
  0003a	57		 push	 edi
  0003b	33 db		 xor	 ebx, ebx
  0003d	8d be 16 01 00
	00		 lea	 edi, DWORD PTR [esi+278]
$LL6@ProcessSta:

; 591  : 		{
; 592  : 			_GUILD_INFO_STRUCT* lpGuild1 = Guild.SearchGuild(this->reg_list[i].szGuildName);

  00043	57		 push	 edi
  00044	b9 00 00 00 00	 mov	 ecx, OFFSET ?Guild@@3VCGuildClass@@A ; Guild
  00049	e8 00 00 00 00	 call	 ?SearchGuild@CGuildClass@@QAEPAU_GUILD_INFO_STRUCT@@PAD@Z ; CGuildClass::SearchGuild

; 593  : 
; 594  : 			if(!lpGuild1)

  0004e	85 c0		 test	 eax, eax
  00050	74 43		 je	 SHORT $LN5@ProcessSta

; 595  : 			{
; 596  : 				continue;
; 597  : 			}
; 598  : 			char szTemp[256];
; 599  : 			this->bCaptured = true;

  00052	c6 46 14 01	 mov	 BYTE PTR [esi+20], 1

; 600  : 			memcpy(this->szLordGuild, lpGuild1->Name, sizeof(this->szLordGuild)-1);

  00056	8b 50 04	 mov	 edx, DWORD PTR [eax+4]
  00059	8d 4e 15	 lea	 ecx, DWORD PTR [esi+21]
  0005c	89 11		 mov	 DWORD PTR [ecx], edx
  0005e	8b 40 08	 mov	 eax, DWORD PTR [eax+8]

; 601  : 			sprintf(szTemp, "[%s] %s are new owners of the Dungeon", this->m_EventName, this->szLordGuild);

  00061	51		 push	 ecx
  00062	89 41 04	 mov	 DWORD PTR [ecx+4], eax
  00065	8d 8e e4 00 00
	00		 lea	 ecx, DWORD PTR [esi+228]
  0006b	51		 push	 ecx
  0006c	8d 95 fc fe ff
	ff		 lea	 edx, DWORD PTR _szTemp$212594[ebp]
  00072	68 00 00 00 00	 push	 OFFSET ??_C@_0CG@JALOJN@?$FL?$CFs?$FN?5?$CFs?5are?5new?5owners?5of?5the?5Du@
  00077	52		 push	 edx
  00078	e8 00 00 00 00	 call	 _sprintf

; 602  : 			AllSendServerMsg(szTemp);

  0007d	8d 85 fc fe ff
	ff		 lea	 eax, DWORD PTR _szTemp$212594[ebp]
  00083	50		 push	 eax
  00084	e8 00 00 00 00	 call	 ?AllSendServerMsg@@YAXPAD@Z ; AllSendServerMsg
  00089	83 c4 14	 add	 esp, 20			; 00000014H

; 603  : 			this->SetStatus(eEVENTDUNGEON_CLOSE);	

  0008c	6a 00		 push	 0
  0008e	8b ce		 mov	 ecx, esi
  00090	e8 00 00 00 00	 call	 ?SetStatus@CDungeonSiege@@QAEXH@Z ; CDungeonSiege::SetStatus
$LN5@ProcessSta:

; 589  : 	{
; 590  : 		for(int i = 0; i < this->iRegCount; i++)

  00095	43		 inc	 ebx
  00096	83 c7 09	 add	 edi, 9
  00099	3b 5e 20	 cmp	 ebx, DWORD PTR [esi+32]
  0009c	7c a5		 jl	 SHORT $LL6@ProcessSta
  0009e	5f		 pop	 edi
  0009f	5b		 pop	 ebx
  000a0	5e		 pop	 esi

; 611  : 	}
; 612  : }

  000a1	8b 4d fc	 mov	 ecx, DWORD PTR __$ArrayPad$[ebp]
  000a4	33 cd		 xor	 ecx, ebp
  000a6	e8 00 00 00 00	 call	 @__security_check_cookie@4
  000ab	8b e5		 mov	 esp, ebp
  000ad	5d		 pop	 ebp
  000ae	c3		 ret	 0
$LN7@ProcessSta:

; 604  : 		}
; 605  : 	}
; 606  : 	else if(this->iRegCount == 0)

  000af	85 c0		 test	 eax, eax
  000b1	75 1d		 jne	 SHORT $LN1@ProcessSta

; 607  : 	{
; 608  : 		this->bCaptured = false;

  000b3	88 46 14	 mov	 BYTE PTR [esi+20], al

; 609  : 		memcpy(this->szLordGuild, "", sizeof(this->szLordGuild)-1);

  000b6	8b 0d 00 00 00
	00		 mov	 ecx, DWORD PTR ??_C@_00CNPNBAHC@?$AA@
  000bc	89 4e 15	 mov	 DWORD PTR [esi+21], ecx
  000bf	8b 15 04 00 00
	00		 mov	 edx, DWORD PTR ??_C@_00CNPNBAHC@?$AA@+4
  000c5	89 56 19	 mov	 DWORD PTR [esi+25], edx

; 610  : 		this->SetStatus(eEVENTDUNGEON_CLOSE);	

  000c8	50		 push	 eax
$LN15@ProcessSta:
  000c9	8b ce		 mov	 ecx, esi
  000cb	e8 00 00 00 00	 call	 ?SetStatus@CDungeonSiege@@QAEXH@Z ; CDungeonSiege::SetStatus
$LN1@ProcessSta:

; 611  : 	}
; 612  : }

  000d0	8b 4d fc	 mov	 ecx, DWORD PTR __$ArrayPad$[ebp]
  000d3	33 cd		 xor	 ecx, ebp
  000d5	5e		 pop	 esi
  000d6	e8 00 00 00 00	 call	 @__security_check_cookie@4
  000db	8b e5		 mov	 esp, ebp
  000dd	5d		 pop	 ebp
  000de	c3		 ret	 0
?ProcessStatusStart@CDungeonSiege@@QAEXXZ ENDP		; CDungeonSiege::ProcessStatusStart
_TEXT	ENDS
PUBLIC	??_C@_0CP@DIHCGHFD@?$FL?$CFs?$FN?5First?5stage?5will?5start?5afte@ ; `string'
PUBLIC	__$ArrayPad$
PUBLIC	?PrecessStatusWait@CDungeonSiege@@QAEXXZ	; CDungeonSiege::PrecessStatusWait
;	COMDAT ??_C@_0CP@DIHCGHFD@?$FL?$CFs?$FN?5First?5stage?5will?5start?5afte@
CONST	SEGMENT
??_C@_0CP@DIHCGHFD@?$FL?$CFs?$FN?5First?5stage?5will?5start?5afte@ DB '[%'
	DB	's] First stage will start after %d minute(s)', 00H ; `string'
; Function compile flags: /Ogtp
CONST	ENDS
;	COMDAT ?PrecessStatusWait@CDungeonSiege@@QAEXXZ
_TEXT	SEGMENT
_szTemp$212606 = -260					; size = 256
__$ArrayPad$ = -4					; size = 4
?PrecessStatusWait@CDungeonSiege@@QAEXXZ PROC		; CDungeonSiege::PrecessStatusWait, COMDAT
; _this$ = ecx

; 615  : {

  00000	55		 push	 ebp
  00001	8b ec		 mov	 ebp, esp
  00003	81 ec 04 01 00
	00		 sub	 esp, 260		; 00000104H
  00009	a1 00 00 00 00	 mov	 eax, DWORD PTR ___security_cookie
  0000e	33 c5		 xor	 eax, ebp
  00010	89 45 fc	 mov	 DWORD PTR __$ArrayPad$[ebp], eax
  00013	53		 push	 ebx

; 616  : 	int iTickMsec = (GetTickCount() - this->iTickCount);

  00014	8b 1d 00 00 00
	00		 mov	 ebx, DWORD PTR __imp__GetTickCount@0
  0001a	56		 push	 esi
  0001b	8b f1		 mov	 esi, ecx
  0001d	ff d3		 call	 ebx
  0001f	2b 46 24	 sub	 eax, DWORD PTR [esi+36]

; 617  : 
; 618  : 	if(iTickMsec >= 1000)

  00022	3d e8 03 00 00	 cmp	 eax, 1000		; 000003e8H
  00027	7c 73		 jl	 SHORT $LN2@PrecessSta

; 619  : 	{
; 620  : 		this->iTickRemain -= iTickMsec;			

  00029	29 46 28	 sub	 DWORD PTR [esi+40], eax

; 621  : 		this->iTickCount = GetTickCount();

  0002c	ff d3		 call	 ebx
  0002e	89 46 24	 mov	 DWORD PTR [esi+36], eax

; 622  : 
; 623  : 		if(this->iTickRemain <= (60000 * this->iEventDurationWait1))

  00031	8b 46 70	 mov	 eax, DWORD PTR [esi+112]
  00034	69 c0 60 ea 00
	00		 imul	 eax, 60000		; 0000ea60H
  0003a	39 46 28	 cmp	 DWORD PTR [esi+40], eax
  0003d	7f 5d		 jg	 SHORT $LN2@PrecessSta

; 624  : 		{
; 625  : 			if((GetTickCount() - this->iTickWait) > 60000)

  0003f	ff d3		 call	 ebx
  00041	2b 46 2c	 sub	 eax, DWORD PTR [esi+44]
  00044	3d 60 ea 00 00	 cmp	 eax, 60000		; 0000ea60H
  00049	76 51		 jbe	 SHORT $LN2@PrecessSta

; 626  : 			{
; 627  : 				int iWaitMin = (this->iTickRemain/60000) + 1;

  0004b	b8 73 b2 e7 45	 mov	 eax, 1172812403		; 45e7b273H
  00050	f7 6e 28	 imul	 DWORD PTR [esi+40]
  00053	c1 fa 0e	 sar	 edx, 14			; 0000000eH
  00056	8b ca		 mov	 ecx, edx
  00058	57		 push	 edi
  00059	c1 e9 1f	 shr	 ecx, 31			; 0000001fH
  0005c	8d 7c 0a 01	 lea	 edi, DWORD PTR [edx+ecx+1]

; 628  : 				char szTemp[256];
; 629  : 				sprintf(szTemp, "[%s] First stage will start after %d minute(s)", this->m_EventName, iWaitMin);

  00060	57		 push	 edi
  00061	8d 96 e4 00 00
	00		 lea	 edx, DWORD PTR [esi+228]
  00067	52		 push	 edx
  00068	8d 85 fc fe ff
	ff		 lea	 eax, DWORD PTR _szTemp$212606[ebp]
  0006e	68 00 00 00 00	 push	 OFFSET ??_C@_0CP@DIHCGHFD@?$FL?$CFs?$FN?5First?5stage?5will?5start?5afte@
  00073	50		 push	 eax
  00074	e8 00 00 00 00	 call	 _sprintf

; 630  : 				AllSendServerMsg(szTemp);

  00079	8d 8d fc fe ff
	ff		 lea	 ecx, DWORD PTR _szTemp$212606[ebp]
  0007f	51		 push	 ecx
  00080	e8 00 00 00 00	 call	 ?AllSendServerMsg@@YAXPAD@Z ; AllSendServerMsg
  00085	83 c4 14	 add	 esp, 20			; 00000014H

; 631  : 				this->iTickWait = GetTickCount();

  00088	ff d3		 call	 ebx

; 632  : 				if(iWaitMin == 1)

  0008a	83 ff 01	 cmp	 edi, 1
  0008d	89 46 2c	 mov	 DWORD PTR [esi+44], eax
  00090	5f		 pop	 edi
  00091	75 09		 jne	 SHORT $LN2@PrecessSta

; 633  : 				{
; 634  : 					this->GCMapAttributeAll(1);

  00093	6a 01		 push	 1
  00095	8b ce		 mov	 ecx, esi
  00097	e8 00 00 00 00	 call	 ?GCMapAttributeAll@CDungeonSiege@@QAEXH@Z ; CDungeonSiege::GCMapAttributeAll
$LN2@PrecessSta:

; 635  : 				}
; 636  : 			}
; 637  : 		}		
; 638  : 	}
; 639  : 
; 640  : 	if(this->iTickRemain <= 0)

  0009c	83 7e 28 00	 cmp	 DWORD PTR [esi+40], 0
  000a0	7f 09		 jg	 SHORT $LN1@PrecessSta

; 641  : 	{
; 642  : 		this->SetStatus(eEVENTDUNGEON_START_STAGE1);

  000a2	6a 02		 push	 2
  000a4	8b ce		 mov	 ecx, esi
  000a6	e8 00 00 00 00	 call	 ?SetStatus@CDungeonSiege@@QAEXH@Z ; CDungeonSiege::SetStatus
$LN1@PrecessSta:

; 643  : 	}
; 644  : }

  000ab	8b 4d fc	 mov	 ecx, DWORD PTR __$ArrayPad$[ebp]
  000ae	5e		 pop	 esi
  000af	33 cd		 xor	 ecx, ebp
  000b1	5b		 pop	 ebx
  000b2	e8 00 00 00 00	 call	 @__security_check_cookie@4
  000b7	8b e5		 mov	 esp, ebp
  000b9	5d		 pop	 ebp
  000ba	c3		 ret	 0
?PrecessStatusWait@CDungeonSiege@@QAEXXZ ENDP		; CDungeonSiege::PrecessStatusWait
_TEXT	ENDS
PUBLIC	?ProcessStatusStartStage1@CDungeonSiege@@QAEXXZ	; CDungeonSiege::ProcessStatusStartStage1
; Function compile flags: /Ogtp
;	COMDAT ?ProcessStatusStartStage1@CDungeonSiege@@QAEXXZ
_TEXT	SEGMENT
?ProcessStatusStartStage1@CDungeonSiege@@QAEXXZ PROC	; CDungeonSiege::ProcessStatusStartStage1, COMDAT
; _this$ = ecx

; 647  : {

  00000	56		 push	 esi
  00001	57		 push	 edi

; 648  : 	int iTickMsec = (GetTickCount() - this->iTickCount);

  00002	8b 3d 00 00 00
	00		 mov	 edi, DWORD PTR __imp__GetTickCount@0
  00008	8b f1		 mov	 esi, ecx
  0000a	ff d7		 call	 edi
  0000c	2b 46 24	 sub	 eax, DWORD PTR [esi+36]

; 649  : 
; 650  : 	if(iTickMsec >= 1000)

  0000f	3d e8 03 00 00	 cmp	 eax, 1000		; 000003e8H
  00014	7c 08		 jl	 SHORT $LN3@ProcessSta@2

; 651  : 	{
; 652  : 		this->iTickRemain -= iTickMsec;			

  00016	29 46 28	 sub	 DWORD PTR [esi+40], eax

; 653  : 		this->iTickCount = GetTickCount();

  00019	ff d7		 call	 edi
  0001b	89 46 24	 mov	 DWORD PTR [esi+36], eax
$LN3@ProcessSta@2:

; 654  : 	}
; 655  : 
; 656  : 	if(this->iTickRemain <= 0)

  0001e	83 7e 28 00	 cmp	 DWORD PTR [esi+40], 0
  00022	7f 1e		 jg	 SHORT $LN2@ProcessSta@2

; 657  : 	{
; 658  : 		if(!this->TeleportInFinal())

  00024	8b ce		 mov	 ecx, esi
  00026	e8 00 00 00 00	 call	 ?TeleportInFinal@CDungeonSiege@@QAE_NXZ ; CDungeonSiege::TeleportInFinal

; 659  : 		{
; 660  : 			this->SetStatus(eEVENTDUNGEON_CLOSE);

  0002b	8b ce		 mov	 ecx, esi
  0002d	84 c0		 test	 al, al
  0002f	75 0a		 jne	 SHORT $LN1@ProcessSta@2
  00031	6a 00		 push	 0

; 661  : 			return;
; 662  : 		}
; 663  : 
; 664  : 		this->SetStatus(eEVENTDUNGEON_WAIT_STAGE2);

  00033	e8 00 00 00 00	 call	 ?SetStatus@CDungeonSiege@@QAEXH@Z ; CDungeonSiege::SetStatus
  00038	5f		 pop	 edi
  00039	5e		 pop	 esi

; 665  : 	}
; 666  : }

  0003a	c3		 ret	 0
$LN1@ProcessSta@2:

; 661  : 			return;
; 662  : 		}
; 663  : 
; 664  : 		this->SetStatus(eEVENTDUNGEON_WAIT_STAGE2);

  0003b	6a 03		 push	 3
  0003d	e8 00 00 00 00	 call	 ?SetStatus@CDungeonSiege@@QAEXH@Z ; CDungeonSiege::SetStatus
$LN2@ProcessSta@2:

; 665  : 	}
; 666  : }

  00042	5f		 pop	 edi
  00043	5e		 pop	 esi
  00044	c3		 ret	 0
?ProcessStatusStartStage1@CDungeonSiege@@QAEXXZ ENDP	; CDungeonSiege::ProcessStatusStartStage1
_TEXT	ENDS
PUBLIC	??_C@_0DA@ECLCBKOH@?$FL?$CFs?$FN?5Second?5stage?5will?5start?5aft@ ; `string'
PUBLIC	__$ArrayPad$
PUBLIC	?PrecessStatusWaitStage2@CDungeonSiege@@QAEXXZ	; CDungeonSiege::PrecessStatusWaitStage2
;	COMDAT ??_C@_0DA@ECLCBKOH@?$FL?$CFs?$FN?5Second?5stage?5will?5start?5aft@
CONST	SEGMENT
??_C@_0DA@ECLCBKOH@?$FL?$CFs?$FN?5Second?5stage?5will?5start?5aft@ DB '[%'
	DB	's] Second stage will start after %d minute(s)', 00H ; `string'
; Function compile flags: /Ogtp
CONST	ENDS
;	COMDAT ?PrecessStatusWaitStage2@CDungeonSiege@@QAEXXZ
_TEXT	SEGMENT
_szTemp$212625 = -260					; size = 256
__$ArrayPad$ = -4					; size = 4
?PrecessStatusWaitStage2@CDungeonSiege@@QAEXXZ PROC	; CDungeonSiege::PrecessStatusWaitStage2, COMDAT
; _this$ = ecx

; 669  : {

  00000	55		 push	 ebp
  00001	8b ec		 mov	 ebp, esp
  00003	81 ec 04 01 00
	00		 sub	 esp, 260		; 00000104H
  00009	a1 00 00 00 00	 mov	 eax, DWORD PTR ___security_cookie
  0000e	33 c5		 xor	 eax, ebp
  00010	89 45 fc	 mov	 DWORD PTR __$ArrayPad$[ebp], eax
  00013	53		 push	 ebx

; 670  : 	int iTickMsec = (GetTickCount() - this->iTickCount);

  00014	8b 1d 00 00 00
	00		 mov	 ebx, DWORD PTR __imp__GetTickCount@0
  0001a	56		 push	 esi
  0001b	8b f1		 mov	 esi, ecx
  0001d	ff d3		 call	 ebx
  0001f	2b 46 24	 sub	 eax, DWORD PTR [esi+36]

; 671  : 
; 672  : 	if(iTickMsec >= 1000)

  00022	3d e8 03 00 00	 cmp	 eax, 1000		; 000003e8H
  00027	7c 73		 jl	 SHORT $LN2@PrecessSta@2

; 673  : 	{
; 674  : 		this->iTickRemain -= iTickMsec;			

  00029	29 46 28	 sub	 DWORD PTR [esi+40], eax

; 675  : 		this->iTickCount = GetTickCount();

  0002c	ff d3		 call	 ebx
  0002e	89 46 24	 mov	 DWORD PTR [esi+36], eax

; 676  : 
; 677  : 		if(this->iTickRemain <= (60000 * this->iEventDurationWait2))

  00031	8b 46 74	 mov	 eax, DWORD PTR [esi+116]
  00034	69 c0 60 ea 00
	00		 imul	 eax, 60000		; 0000ea60H
  0003a	39 46 28	 cmp	 DWORD PTR [esi+40], eax
  0003d	7f 5d		 jg	 SHORT $LN2@PrecessSta@2

; 678  : 		{
; 679  : 			if((GetTickCount() - this->iTickWait) > 60000)

  0003f	ff d3		 call	 ebx
  00041	2b 46 2c	 sub	 eax, DWORD PTR [esi+44]
  00044	3d 60 ea 00 00	 cmp	 eax, 60000		; 0000ea60H
  00049	76 51		 jbe	 SHORT $LN2@PrecessSta@2

; 680  : 			{
; 681  : 				int iWaitMin = (this->iTickRemain/60000) + 1;

  0004b	b8 73 b2 e7 45	 mov	 eax, 1172812403		; 45e7b273H
  00050	f7 6e 28	 imul	 DWORD PTR [esi+40]
  00053	c1 fa 0e	 sar	 edx, 14			; 0000000eH
  00056	8b ca		 mov	 ecx, edx
  00058	57		 push	 edi
  00059	c1 e9 1f	 shr	 ecx, 31			; 0000001fH
  0005c	8d 7c 0a 01	 lea	 edi, DWORD PTR [edx+ecx+1]

; 682  : 				char szTemp[256];
; 683  : 				sprintf(szTemp, "[%s] Second stage will start after %d minute(s)", this->m_EventName, iWaitMin);

  00060	57		 push	 edi
  00061	8d 96 e4 00 00
	00		 lea	 edx, DWORD PTR [esi+228]
  00067	52		 push	 edx
  00068	8d 85 fc fe ff
	ff		 lea	 eax, DWORD PTR _szTemp$212625[ebp]
  0006e	68 00 00 00 00	 push	 OFFSET ??_C@_0DA@ECLCBKOH@?$FL?$CFs?$FN?5Second?5stage?5will?5start?5aft@
  00073	50		 push	 eax
  00074	e8 00 00 00 00	 call	 _sprintf

; 684  : 				AllSendServerMsg(szTemp);

  00079	8d 8d fc fe ff
	ff		 lea	 ecx, DWORD PTR _szTemp$212625[ebp]
  0007f	51		 push	 ecx
  00080	e8 00 00 00 00	 call	 ?AllSendServerMsg@@YAXPAD@Z ; AllSendServerMsg
  00085	83 c4 14	 add	 esp, 20			; 00000014H

; 685  : 				this->iTickWait = GetTickCount();

  00088	ff d3		 call	 ebx

; 686  : 				if(iWaitMin == 1)

  0008a	83 ff 01	 cmp	 edi, 1
  0008d	89 46 2c	 mov	 DWORD PTR [esi+44], eax
  00090	5f		 pop	 edi
  00091	75 09		 jne	 SHORT $LN2@PrecessSta@2

; 687  : 				{
; 688  : 					this->GCMapAttributeAll(1);

  00093	6a 01		 push	 1
  00095	8b ce		 mov	 ecx, esi
  00097	e8 00 00 00 00	 call	 ?GCMapAttributeAll@CDungeonSiege@@QAEXH@Z ; CDungeonSiege::GCMapAttributeAll
$LN2@PrecessSta@2:

; 689  : 				}
; 690  : 			}
; 691  : 		}		
; 692  : 	}
; 693  : 
; 694  : 	if(this->iTickRemain <= 0)

  0009c	83 7e 28 00	 cmp	 DWORD PTR [esi+40], 0
  000a0	7f 09		 jg	 SHORT $LN1@PrecessSta@2

; 695  : 	{
; 696  : 		this->SetStatus(eEVENTDUNGEON_START_STAGE2);

  000a2	6a 04		 push	 4
  000a4	8b ce		 mov	 ecx, esi
  000a6	e8 00 00 00 00	 call	 ?SetStatus@CDungeonSiege@@QAEXH@Z ; CDungeonSiege::SetStatus
$LN1@PrecessSta@2:

; 697  : 	}
; 698  : }

  000ab	8b 4d fc	 mov	 ecx, DWORD PTR __$ArrayPad$[ebp]
  000ae	5e		 pop	 esi
  000af	33 cd		 xor	 ecx, ebp
  000b1	5b		 pop	 ebx
  000b2	e8 00 00 00 00	 call	 @__security_check_cookie@4
  000b7	8b e5		 mov	 esp, ebp
  000b9	5d		 pop	 ebp
  000ba	c3		 ret	 0
?PrecessStatusWaitStage2@CDungeonSiege@@QAEXXZ ENDP	; CDungeonSiege::PrecessStatusWaitStage2
_TEXT	ENDS
PUBLIC	??_C@_0BJ@NCLPJDDN@?$FL?$CFs?$FN?5?$CFs?5hero?5of?5Dungeon?$CB?$AA@ ; `string'
PUBLIC	__$ArrayPad$
PUBLIC	?ProcessStatusStartStage2@CDungeonSiege@@QAEXXZ	; CDungeonSiege::ProcessStatusStartStage2
;	COMDAT ??_C@_0BJ@NCLPJDDN@?$FL?$CFs?$FN?5?$CFs?5hero?5of?5Dungeon?$CB?$AA@
CONST	SEGMENT
??_C@_0BJ@NCLPJDDN@?$FL?$CFs?$FN?5?$CFs?5hero?5of?5Dungeon?$CB?$AA@ DB '['
	DB	'%s] %s hero of Dungeon!', 00H		; `string'
; Function compile flags: /Ogtp
CONST	ENDS
;	COMDAT ?ProcessStatusStartStage2@CDungeonSiege@@QAEXXZ
_TEXT	SEGMENT
_szTemp$212643 = -260					; size = 256
_szTemp$212639 = -260					; size = 256
__$ArrayPad$ = -4					; size = 4
?ProcessStatusStartStage2@CDungeonSiege@@QAEXXZ PROC	; CDungeonSiege::ProcessStatusStartStage2, COMDAT
; _this$ = ecx

; 701  : {

  00000	55		 push	 ebp
  00001	8b ec		 mov	 ebp, esp
  00003	81 ec 04 01 00
	00		 sub	 esp, 260		; 00000104H
  00009	a1 00 00 00 00	 mov	 eax, DWORD PTR ___security_cookie
  0000e	33 c5		 xor	 eax, ebp
  00010	89 45 fc	 mov	 DWORD PTR __$ArrayPad$[ebp], eax
  00013	56		 push	 esi
  00014	57		 push	 edi

; 702  : 	int iTickMsec = (GetTickCount() - this->iTickCount);

  00015	8b 3d 00 00 00
	00		 mov	 edi, DWORD PTR __imp__GetTickCount@0
  0001b	8b f1		 mov	 esi, ecx
  0001d	ff d7		 call	 edi
  0001f	2b 46 24	 sub	 eax, DWORD PTR [esi+36]

; 703  : 
; 704  : 	if(iTickMsec >= 1000)

  00022	3d e8 03 00 00	 cmp	 eax, 1000		; 000003e8H
  00027	7c 08		 jl	 SHORT $LN7@ProcessSta@3

; 705  : 	{
; 706  : 		this->iTickRemain -= iTickMsec;			

  00029	29 46 28	 sub	 DWORD PTR [esi+40], eax

; 707  : 		this->iTickCount = GetTickCount();

  0002c	ff d7		 call	 edi
  0002e	89 46 24	 mov	 DWORD PTR [esi+36], eax
$LN7@ProcessSta@3:

; 708  : 	}
; 709  : 
; 710  : 	if(this->iTickRemain <= 0)

  00031	83 7e 28 00	 cmp	 DWORD PTR [esi+40], 0
  00035	0f 8f ed 00 00
	00		 jg	 $LN6@ProcessSta@3

; 711  : 	{
; 712  : 		if(OBJMAX_RANGE(this->aIndexFinal1) && OBJMAX_RANGE(this->aIndexFinal2))

  0003b	8b 7e 38	 mov	 edi, DWORD PTR [esi+56]
  0003e	53		 push	 ebx
  0003f	85 ff		 test	 edi, edi
  00041	0f 88 d7 00 00
	00		 js	 $LN1@ProcessSta@3
  00047	33 c0		 xor	 eax, eax
  00049	81 ff 97 3a 00
	00		 cmp	 edi, 14999		; 00003a97H
  0004f	0f 9e c0	 setle	 al
  00052	85 c0		 test	 eax, eax
  00054	0f 84 c4 00 00
	00		 je	 $LN1@ProcessSta@3
  0005a	8b 46 3c	 mov	 eax, DWORD PTR [esi+60]
  0005d	85 c0		 test	 eax, eax
  0005f	0f 88 b9 00 00
	00		 js	 $LN1@ProcessSta@3
  00065	33 c9		 xor	 ecx, ecx
  00067	3d 97 3a 00 00	 cmp	 eax, 14999		; 00003a97H
  0006c	0f 9e c1	 setle	 cl
  0006f	85 c9		 test	 ecx, ecx
  00071	0f 84 a7 00 00
	00		 je	 $LN1@ProcessSta@3

; 713  : 		{
; 714  : 			LPOBJ lpUser1 = &gObj[this->aIndexFinal1];

  00077	8b 0d 00 00 00
	00		 mov	 ecx, DWORD PTR ?gObj@@3PAUOBJECTSTRUCT@@A ; gObj

; 715  : 			LPOBJ lpUser2 = &gObj[this->aIndexFinal2];

  0007d	69 c0 50 2b 00
	00		 imul	 eax, 11088		; 00002b50H
  00083	69 ff 50 2b 00
	00		 imul	 edi, 11088		; 00002b50H
  00089	03 f9		 add	 edi, ecx
  0008b	8d 1c 01	 lea	 ebx, DWORD PTR [ecx+eax]

; 716  : 
; 717  : 			if(lpUser1->DSiege.iScore2 > lpUser2->DSiege.iScore2)

  0008e	8b 87 08 29 00
	00		 mov	 eax, DWORD PTR [edi+10504]
  00094	8b 8b 08 29 00
	00		 mov	 ecx, DWORD PTR [ebx+10504]
  0009a	3b c8		 cmp	 ecx, eax
  0009c	0f 8d 96 00 00
	00		 jge	 $LN15@ProcessSta@3

; 718  : 			{
; 719  : 				char szTemp[256];
; 720  : 				sprintf(szTemp, "[%s] %s hero of Dungeon!", this->m_EventName, lpUser1->Name);

  000a2	8d 4f 77	 lea	 ecx, DWORD PTR [edi+119]
  000a5	51		 push	 ecx
  000a6	8d 86 e4 00 00
	00		 lea	 eax, DWORD PTR [esi+228]
  000ac	50		 push	 eax
  000ad	8d 95 fc fe ff
	ff		 lea	 edx, DWORD PTR _szTemp$212639[ebp]
  000b3	68 00 00 00 00	 push	 OFFSET ??_C@_0BJ@NCLPJDDN@?$FL?$CFs?$FN?5?$CFs?5hero?5of?5Dungeon?$CB?$AA@
  000b8	52		 push	 edx
  000b9	e8 00 00 00 00	 call	 _sprintf

; 721  : 				AllSendServerMsg(szTemp);

  000be	8d 85 fc fe ff
	ff		 lea	 eax, DWORD PTR _szTemp$212639[ebp]
  000c4	50		 push	 eax
  000c5	e8 00 00 00 00	 call	 ?AllSendServerMsg@@YAXPAD@Z ; AllSendServerMsg

; 722  : 
; 723  : 				this->bCaptured = true;

  000ca	c6 46 14 01	 mov	 BYTE PTR [esi+20], 1

; 724  : 				memcpy(this->szLordGuild, lpUser1->GuildName, sizeof(this->szLordGuild)-1);

  000ce	8b 8f 3c 04 00
	00		 mov	 ecx, DWORD PTR [edi+1084]
  000d4	8d 46 15	 lea	 eax, DWORD PTR [esi+21]
  000d7	89 08		 mov	 DWORD PTR [eax], ecx
  000d9	8b 97 40 04 00
	00		 mov	 edx, DWORD PTR [edi+1088]

; 725  : 
; 726  : 				sprintf(szTemp, "[%s] %s are new owners of the Dungeon", this->m_EventName, this->szLordGuild);

  000df	50		 push	 eax
  000e0	89 50 04	 mov	 DWORD PTR [eax+4], edx
  000e3	8d 86 e4 00 00
	00		 lea	 eax, DWORD PTR [esi+228]
  000e9	50		 push	 eax
  000ea	8d 85 fc fe ff
	ff		 lea	 eax, DWORD PTR _szTemp$212639[ebp]
  000f0	68 00 00 00 00	 push	 OFFSET ??_C@_0CG@JALOJN@?$FL?$CFs?$FN?5?$CFs?5are?5new?5owners?5of?5the?5Du@
  000f5	50		 push	 eax
  000f6	e8 00 00 00 00	 call	 _sprintf

; 727  : 				AllSendServerMsg(szTemp);

  000fb	8d 8d fc fe ff
	ff		 lea	 ecx, DWORD PTR _szTemp$212639[ebp]
  00101	51		 push	 ecx
  00102	e8 00 00 00 00	 call	 ?AllSendServerMsg@@YAXPAD@Z ; AllSendServerMsg

; 728  : 
; 729  : 				this->MapKick(lpUser2->m_Index);

  00107	8b 13		 mov	 edx, DWORD PTR [ebx]
  00109	83 c4 28	 add	 esp, 40			; 00000028H
  0010c	52		 push	 edx
  0010d	8b ce		 mov	 ecx, esi
  0010f	e8 00 00 00 00	 call	 ?MapKick@CDungeonSiege@@QAEXH@Z ; CDungeonSiege::MapKick

; 730  : 
; 731  : 				this->RewardSiege(lpUser1->m_Index);

  00114	8b 07		 mov	 eax, DWORD PTR [edi]
$LN16@ProcessSta@3:
  00116	50		 push	 eax
  00117	8b ce		 mov	 ecx, esi
  00119	e8 00 00 00 00	 call	 ?RewardSiege@CDungeonSiege@@QAEXH@Z ; CDungeonSiege::RewardSiege
$LN1@ProcessSta@3:

; 750  : 			{
; 751  : 				this->iTickRemain = 60000;
; 752  : 				return;
; 753  : 			}
; 754  : 		}
; 755  : 
; 756  : 		this->SetStatus(eEVENTDUNGEON_CLOSE);

  0011e	6a 00		 push	 0
  00120	8b ce		 mov	 ecx, esi
  00122	e8 00 00 00 00	 call	 ?SetStatus@CDungeonSiege@@QAEXH@Z ; CDungeonSiege::SetStatus
  00127	5b		 pop	 ebx
$LN6@ProcessSta@3:
  00128	5f		 pop	 edi
  00129	5e		 pop	 esi

; 757  : 	}
; 758  : }

  0012a	8b 4d fc	 mov	 ecx, DWORD PTR __$ArrayPad$[ebp]
  0012d	33 cd		 xor	 ecx, ebp
  0012f	e8 00 00 00 00	 call	 @__security_check_cookie@4
  00134	8b e5		 mov	 esp, ebp
  00136	5d		 pop	 ebp
  00137	c3		 ret	 0
$LN15@ProcessSta@3:

; 732  : 			}
; 733  : 			else if(lpUser2->DSiege.iScore2 > lpUser1->DSiege.iScore2)

  00138	7e 79		 jle	 SHORT $LN2@ProcessSta@3

; 734  : 			{
; 735  : 				char szTemp[256];
; 736  : 				sprintf(szTemp, "[%s] %s hero of Dungeon!", this->m_EventName, lpUser2->Name);

  0013a	8d 4b 77	 lea	 ecx, DWORD PTR [ebx+119]
  0013d	51		 push	 ecx
  0013e	8d 86 e4 00 00
	00		 lea	 eax, DWORD PTR [esi+228]
  00144	50		 push	 eax
  00145	8d 95 fc fe ff
	ff		 lea	 edx, DWORD PTR _szTemp$212643[ebp]
  0014b	68 00 00 00 00	 push	 OFFSET ??_C@_0BJ@NCLPJDDN@?$FL?$CFs?$FN?5?$CFs?5hero?5of?5Dungeon?$CB?$AA@
  00150	52		 push	 edx
  00151	e8 00 00 00 00	 call	 _sprintf

; 737  : 				AllSendServerMsg(szTemp);

  00156	8d 85 fc fe ff
	ff		 lea	 eax, DWORD PTR _szTemp$212643[ebp]
  0015c	50		 push	 eax
  0015d	e8 00 00 00 00	 call	 ?AllSendServerMsg@@YAXPAD@Z ; AllSendServerMsg

; 738  : 
; 739  : 				this->bCaptured = true;

  00162	c6 46 14 01	 mov	 BYTE PTR [esi+20], 1

; 740  : 				memcpy(this->szLordGuild, lpUser1->GuildName, sizeof(this->szLordGuild)-1);

  00166	8b 8f 3c 04 00
	00		 mov	 ecx, DWORD PTR [edi+1084]
  0016c	8d 46 15	 lea	 eax, DWORD PTR [esi+21]
  0016f	89 08		 mov	 DWORD PTR [eax], ecx
  00171	8b 97 40 04 00
	00		 mov	 edx, DWORD PTR [edi+1088]

; 741  : 
; 742  : 				sprintf(szTemp, "[%s] %s are new owners of the Dungeon", this->m_EventName, this->szLordGuild);

  00177	50		 push	 eax
  00178	89 50 04	 mov	 DWORD PTR [eax+4], edx
  0017b	8d 86 e4 00 00
	00		 lea	 eax, DWORD PTR [esi+228]
  00181	50		 push	 eax
  00182	8d 85 fc fe ff
	ff		 lea	 eax, DWORD PTR _szTemp$212643[ebp]
  00188	68 00 00 00 00	 push	 OFFSET ??_C@_0CG@JALOJN@?$FL?$CFs?$FN?5?$CFs?5are?5new?5owners?5of?5the?5Du@
  0018d	50		 push	 eax
  0018e	e8 00 00 00 00	 call	 _sprintf

; 743  : 				AllSendServerMsg(szTemp);

  00193	8d 8d fc fe ff
	ff		 lea	 ecx, DWORD PTR _szTemp$212643[ebp]
  00199	51		 push	 ecx
  0019a	e8 00 00 00 00	 call	 ?AllSendServerMsg@@YAXPAD@Z ; AllSendServerMsg

; 744  : 
; 745  : 				this->MapKick(lpUser1->m_Index);

  0019f	8b 17		 mov	 edx, DWORD PTR [edi]
  001a1	83 c4 28	 add	 esp, 40			; 00000028H
  001a4	52		 push	 edx
  001a5	8b ce		 mov	 ecx, esi
  001a7	e8 00 00 00 00	 call	 ?MapKick@CDungeonSiege@@QAEXH@Z ; CDungeonSiege::MapKick

; 746  : 
; 747  : 				this->RewardSiege(lpUser2->m_Index);

  001ac	8b 03		 mov	 eax, DWORD PTR [ebx]

; 748  : 			}
; 749  : 			else

  001ae	e9 63 ff ff ff	 jmp	 $LN16@ProcessSta@3
$LN2@ProcessSta@3:

; 757  : 	}
; 758  : }

  001b3	8b 4d fc	 mov	 ecx, DWORD PTR __$ArrayPad$[ebp]
  001b6	5b		 pop	 ebx
  001b7	5f		 pop	 edi
  001b8	c7 46 28 60 ea
	00 00		 mov	 DWORD PTR [esi+40], 60000 ; 0000ea60H
  001bf	33 cd		 xor	 ecx, ebp
  001c1	5e		 pop	 esi
  001c2	e8 00 00 00 00	 call	 @__security_check_cookie@4
  001c7	8b e5		 mov	 esp, ebp
  001c9	5d		 pop	 ebp
  001ca	c3		 ret	 0
?ProcessStatusStartStage2@CDungeonSiege@@QAEXXZ ENDP	; CDungeonSiege::ProcessStatusStartStage2
_TEXT	ENDS
PUBLIC	??_C@_0BF@GIPAHBLN@?$FL?$CFs?$FN?5Guild?5Score?3?5?$CFd?$AA@ ; `string'
PUBLIC	??_C@_0P@HLIMCEHJ@?$FL?$CFs?$FN?5Score?3?5?$CFd?$AA@ ; `string'
PUBLIC	_aTargetIndex$GSCopy$
PUBLIC	__$ArrayPad$
PUBLIC	?PlayerScore@CDungeonSiege@@QAE_NHH@Z		; CDungeonSiege::PlayerScore
;	COMDAT ??_C@_0BF@GIPAHBLN@?$FL?$CFs?$FN?5Guild?5Score?3?5?$CFd?$AA@
CONST	SEGMENT
??_C@_0BF@GIPAHBLN@?$FL?$CFs?$FN?5Guild?5Score?3?5?$CFd?$AA@ DB '[%s] Gui'
	DB	'ld Score: %d', 00H				; `string'
CONST	ENDS
;	COMDAT ??_C@_0P@HLIMCEHJ@?$FL?$CFs?$FN?5Score?3?5?$CFd?$AA@
CONST	SEGMENT
??_C@_0P@HLIMCEHJ@?$FL?$CFs?$FN?5Score?3?5?$CFd?$AA@ DB '[%s] Score: %d', 00H ; `string'
; Function compile flags: /Ogtp
CONST	ENDS
;	COMDAT ?PlayerScore@CDungeonSiege@@QAE_NHH@Z
_TEXT	SEGMENT
_aTargetIndex$GSCopy$ = -268				; size = 4
_lpUser$ = -264						; size = 4
_szTemp$212682 = -260					; size = 256
__$ArrayPad$ = -4					; size = 4
_aIndex$ = 8						; size = 4
_aTargetIndex$ = 12					; size = 4
?PlayerScore@CDungeonSiege@@QAE_NHH@Z PROC		; CDungeonSiege::PlayerScore, COMDAT
; _this$ = ecx

; 794  : {

  00000	55		 push	 ebp
  00001	8b ec		 mov	 ebp, esp
  00003	81 ec 0c 01 00
	00		 sub	 esp, 268		; 0000010cH
  00009	a1 00 00 00 00	 mov	 eax, DWORD PTR ___security_cookie
  0000e	33 c5		 xor	 eax, ebp
  00010	89 45 fc	 mov	 DWORD PTR __$ArrayPad$[ebp], eax
  00013	8b 55 0c	 mov	 edx, DWORD PTR _aTargetIndex$[ebp]
  00016	57		 push	 edi
  00017	8b f9		 mov	 edi, ecx

; 795  : 	if(!this->bEnable)

  00019	80 7f 48 00	 cmp	 BYTE PTR [edi+72], 0

; 840  : 		{
; 841  : 			char szTemp[256];
; 842  : 			sprintf(szTemp, "[%s] %s hero of Dungeon!", this->m_EventName, lpTarget->Name);

  0001d	89 95 f4 fe ff
	ff		 mov	 DWORD PTR _aTargetIndex$GSCopy$[ebp], edx
  00023	75 13		 jne	 SHORT $LN13@PlayerScor
$LN11@PlayerScor:

; 796  : 	{
; 797  : 		return false;

  00025	32 c0		 xor	 al, al
  00027	5f		 pop	 edi

; 856  : }

  00028	8b 4d fc	 mov	 ecx, DWORD PTR __$ArrayPad$[ebp]
  0002b	33 cd		 xor	 ecx, ebp
  0002d	e8 00 00 00 00	 call	 @__security_check_cookie@4
  00032	8b e5		 mov	 esp, ebp
  00034	5d		 pop	 ebp
  00035	c2 08 00	 ret	 8
$LN13@PlayerScor:

; 798  : 	}
; 799  : 
; 800  : 	if(!OBJMAX_RANGE(aIndex) || !OBJMAX_RANGE(aTargetIndex))

  00038	8b 45 08	 mov	 eax, DWORD PTR _aIndex$[ebp]
  0003b	85 c0		 test	 eax, eax
  0003d	78 e6		 js	 SHORT $LN11@PlayerScor
  0003f	33 c9		 xor	 ecx, ecx
  00041	3d 97 3a 00 00	 cmp	 eax, 14999		; 00003a97H
  00046	0f 9e c1	 setle	 cl
  00049	85 c9		 test	 ecx, ecx
  0004b	74 d8		 je	 SHORT $LN11@PlayerScor
  0004d	85 d2		 test	 edx, edx
  0004f	78 d4		 js	 SHORT $LN11@PlayerScor
  00051	33 c9		 xor	 ecx, ecx
  00053	81 fa 97 3a 00
	00		 cmp	 edx, 14999		; 00003a97H
  00059	0f 9e c1	 setle	 cl
  0005c	85 c9		 test	 ecx, ecx
  0005e	74 c5		 je	 SHORT $LN11@PlayerScor

; 801  : 	{
; 802  : 		return false;
; 803  : 	}
; 804  : 
; 805  : 	LPOBJ lpUser = &gObj[aIndex];

  00060	8b 0d 00 00 00
	00		 mov	 ecx, DWORD PTR ?gObj@@3PAUOBJECTSTRUCT@@A ; gObj
  00066	69 c0 50 2b 00
	00		 imul	 eax, 11088		; 00002b50H
  0006c	53		 push	 ebx
  0006d	56		 push	 esi

; 806  : 	LPOBJ lpTarget = &gObj[aTargetIndex];	

  0006e	8b f2		 mov	 esi, edx
  00070	69 f6 50 2b 00
	00		 imul	 esi, 11088		; 00002b50H
  00076	8d 1c 01	 lea	 ebx, DWORD PTR [ecx+eax]

; 807  : 
; 808  : 	if(lpUser->Connected < PLAYER_PLAYING || lpTarget->Connected < PLAYER_PLAYING)

  00079	b8 03 00 00 00	 mov	 eax, 3
  0007e	03 f1		 add	 esi, ecx
  00080	89 9d f8 fe ff
	ff		 mov	 DWORD PTR _lpUser$[ebp], ebx
  00086	39 43 04	 cmp	 DWORD PTR [ebx+4], eax
  00089	0f 8c 9d 01 00
	00		 jl	 $LN9@PlayerScor
  0008f	39 46 04	 cmp	 DWORD PTR [esi+4], eax
  00092	0f 8c 94 01 00
	00		 jl	 $LN9@PlayerScor

; 809  : 	{
; 810  : 		return false;
; 811  : 	}
; 812  : 
; 813  : 	if(lpUser->Type != OBJ_USER || lpTarget->Type != OBJ_USER)

  00098	b8 01 00 00 00	 mov	 eax, 1
  0009d	66 39 43 68	 cmp	 WORD PTR [ebx+104], ax
  000a1	0f 85 85 01 00
	00		 jne	 $LN9@PlayerScor
  000a7	66 39 46 68	 cmp	 WORD PTR [esi+104], ax
  000ab	0f 85 7b 01 00
	00		 jne	 $LN9@PlayerScor

; 814  : 	{
; 815  : 		return false;
; 816  : 	}
; 817  : 
; 818  : 	if(lpUser->MapNumber != this->m_EventMapNumber)

  000b1	0f b6 83 49 01
	00 00		 movzx	 eax, BYTE PTR [ebx+329]
  000b8	3b 47 78	 cmp	 eax, DWORD PTR [edi+120]

; 819  : 	{
; 820  : 		return false;

  000bb	0f 85 6b 01 00
	00		 jne	 $LN9@PlayerScor

; 821  : 	}
; 822  : 
; 823  : 	if(this->CheckStatus(eEVENTDUNGEON_START_STAGE1))

  000c1	6a 02		 push	 2
  000c3	8b cf		 mov	 ecx, edi
  000c5	e8 00 00 00 00	 call	 ?CheckStatus@CDungeonSiege@@QAE_NH@Z ; CDungeonSiege::CheckStatus
  000ca	84 c0		 test	 al, al
  000cc	0f 84 80 00 00
	00		 je	 $LN5@PlayerScor

; 824  : 	{
; 825  : 		if(lpUser->GuildNumber != lpTarget->GuildNumber)

  000d2	8b 8b 34 04 00
	00		 mov	 ecx, DWORD PTR [ebx+1076]
  000d8	3b 8e 34 04 00
	00		 cmp	 ecx, DWORD PTR [esi+1076]
  000de	0f 84 33 01 00
	00		 je	 $LN2@PlayerScor

; 826  : 		{
; 827  : 			lpTarget->DSiege.iScore++;
; 828  : 			lpTarget->lpGuild->DungeonSiege.iScore++;

  000e4	8b 86 38 04 00
	00		 mov	 eax, DWORD PTR [esi+1080]
  000ea	b9 01 00 00 00	 mov	 ecx, 1
  000ef	01 8e 04 29 00
	00		 add	 DWORD PTR [esi+10500], ecx
  000f5	01 88 48 07 00
	00		 add	 DWORD PTR [eax+1864], ecx

; 829  : 			MsgOutput(aTargetIndex, "[%s] Score: %d", this->m_EventName, lpTarget->DSiege.iScore);

  000fb	8b 86 04 29 00
	00		 mov	 eax, DWORD PTR [esi+10500]
  00101	50		 push	 eax
  00102	8d 9f e4 00 00
	00		 lea	 ebx, DWORD PTR [edi+228]
  00108	53		 push	 ebx
  00109	68 00 00 00 00	 push	 OFFSET ??_C@_0P@HLIMCEHJ@?$FL?$CFs?$FN?5Score?3?5?$CFd?$AA@
  0010e	52		 push	 edx
  0010f	e8 00 00 00 00	 call	 ?MsgOutput@@YAXHPADZZ	; MsgOutput

; 830  : 			MsgOutput(aTargetIndex, "[%s] Guild Score: %d", this->m_EventName, lpTarget->lpGuild->DungeonSiege.iScore);

  00114	8b 8e 38 04 00
	00		 mov	 ecx, DWORD PTR [esi+1080]
  0011a	8b 91 48 07 00
	00		 mov	 edx, DWORD PTR [ecx+1864]
  00120	8b 85 f4 fe ff
	ff		 mov	 eax, DWORD PTR _aTargetIndex$GSCopy$[ebp]
  00126	52		 push	 edx
  00127	53		 push	 ebx
  00128	68 00 00 00 00	 push	 OFFSET ??_C@_0BF@GIPAHBLN@?$FL?$CFs?$FN?5Guild?5Score?3?5?$CFd?$AA@
  0012d	50		 push	 eax
  0012e	e8 00 00 00 00	 call	 ?MsgOutput@@YAXHPADZZ	; MsgOutput
  00133	83 c4 20	 add	 esp, 32			; 00000020H

; 851  : 		}
; 852  : 		this->GCSiegeScore();

  00136	8b cf		 mov	 ecx, edi
  00138	e8 00 00 00 00	 call	 ?GCSiegeScore@CDungeonSiege@@QAEXXZ ; CDungeonSiege::GCSiegeScore
  0013d	5e		 pop	 esi
  0013e	5b		 pop	 ebx

; 853  : 	}
; 854  : 
; 855  : 	return true;

  0013f	b0 01		 mov	 al, 1
  00141	5f		 pop	 edi

; 856  : }

  00142	8b 4d fc	 mov	 ecx, DWORD PTR __$ArrayPad$[ebp]
  00145	33 cd		 xor	 ecx, ebp
  00147	e8 00 00 00 00	 call	 @__security_check_cookie@4
  0014c	8b e5		 mov	 esp, ebp
  0014e	5d		 pop	 ebp
  0014f	c2 08 00	 ret	 8
$LN5@PlayerScor:

; 831  : 			this->GCSiegeScore();
; 832  : 		}
; 833  : 	}
; 834  : 	else if(this->CheckStatus(eEVENTDUNGEON_START_STAGE2))

  00152	6a 04		 push	 4
  00154	e8 00 00 00 00	 call	 ?CheckStatus@CDungeonSiege@@QAE_NH@Z ; CDungeonSiege::CheckStatus
  00159	84 c0		 test	 al, al
  0015b	0f 84 b6 00 00
	00		 je	 $LN2@PlayerScor

; 835  : 	{
; 836  : 		lpTarget->DSiege.iScore2++;

  00161	ff 86 08 29 00
	00		 inc	 DWORD PTR [esi+10504]
  00167	8b 86 08 29 00
	00		 mov	 eax, DWORD PTR [esi+10504]

; 837  : 		MsgOutput(aTargetIndex, "[%s] Score: %d", this->m_EventName, lpTarget->DSiege.iScore2);

  0016d	50		 push	 eax
  0016e	8d 9f e4 00 00
	00		 lea	 ebx, DWORD PTR [edi+228]
  00174	53		 push	 ebx
  00175	68 00 00 00 00	 push	 OFFSET ??_C@_0P@HLIMCEHJ@?$FL?$CFs?$FN?5Score?3?5?$CFd?$AA@
  0017a	52		 push	 edx
  0017b	e8 00 00 00 00	 call	 ?MsgOutput@@YAXHPADZZ	; MsgOutput

; 838  : 
; 839  : 		if(lpTarget->DSiege.iScore2 >= this->m_FinalScoreForVictory)

  00180	8b 8e 08 29 00
	00		 mov	 ecx, DWORD PTR [esi+10504]
  00186	83 c4 10	 add	 esp, 16			; 00000010H
  00189	3b 8f d8 00 00
	00		 cmp	 ecx, DWORD PTR [edi+216]
  0018f	7c 7f		 jl	 SHORT $LN1@PlayerScor

; 840  : 		{
; 841  : 			char szTemp[256];
; 842  : 			sprintf(szTemp, "[%s] %s hero of Dungeon!", this->m_EventName, lpTarget->Name);

  00191	8d 56 77	 lea	 edx, DWORD PTR [esi+119]
  00194	52		 push	 edx
  00195	53		 push	 ebx
  00196	8d 85 fc fe ff
	ff		 lea	 eax, DWORD PTR _szTemp$212682[ebp]
  0019c	68 00 00 00 00	 push	 OFFSET ??_C@_0BJ@NCLPJDDN@?$FL?$CFs?$FN?5?$CFs?5hero?5of?5Dungeon?$CB?$AA@
  001a1	50		 push	 eax
  001a2	e8 00 00 00 00	 call	 _sprintf

; 843  : 			AllSendServerMsg(szTemp);

  001a7	8d 8d fc fe ff
	ff		 lea	 ecx, DWORD PTR _szTemp$212682[ebp]
  001ad	51		 push	 ecx
  001ae	e8 00 00 00 00	 call	 ?AllSendServerMsg@@YAXPAD@Z ; AllSendServerMsg

; 844  : 			this->bCaptured = true;
; 845  : 			memcpy(this->szLordGuild, lpTarget->GuildName, sizeof(this->szLordGuild)-1);

  001b3	8d 47 15	 lea	 eax, DWORD PTR [edi+21]

; 846  : 			sprintf(szTemp, "[%s] %s are new owners of the Dungeon", this->m_EventName, this->szLordGuild);

  001b6	50		 push	 eax
  001b7	c6 47 14 01	 mov	 BYTE PTR [edi+20], 1
  001bb	8b 96 3c 04 00
	00		 mov	 edx, DWORD PTR [esi+1084]
  001c1	89 10		 mov	 DWORD PTR [eax], edx
  001c3	8b 8e 40 04 00
	00		 mov	 ecx, DWORD PTR [esi+1088]
  001c9	53		 push	 ebx
  001ca	8d 95 fc fe ff
	ff		 lea	 edx, DWORD PTR _szTemp$212682[ebp]
  001d0	68 00 00 00 00	 push	 OFFSET ??_C@_0CG@JALOJN@?$FL?$CFs?$FN?5?$CFs?5are?5new?5owners?5of?5the?5Du@
  001d5	52		 push	 edx
  001d6	89 48 04	 mov	 DWORD PTR [eax+4], ecx
  001d9	e8 00 00 00 00	 call	 _sprintf

; 847  : 			AllSendServerMsg(szTemp);

  001de	8d 85 fc fe ff
	ff		 lea	 eax, DWORD PTR _szTemp$212682[ebp]
  001e4	50		 push	 eax
  001e5	e8 00 00 00 00	 call	 ?AllSendServerMsg@@YAXPAD@Z ; AllSendServerMsg

; 848  : 			this->MapKick(lpUser->m_Index);

  001ea	8b 8d f8 fe ff
	ff		 mov	 ecx, DWORD PTR _lpUser$[ebp]
  001f0	8b 11		 mov	 edx, DWORD PTR [ecx]
  001f2	83 c4 28	 add	 esp, 40			; 00000028H
  001f5	52		 push	 edx
  001f6	8b cf		 mov	 ecx, edi
  001f8	e8 00 00 00 00	 call	 ?MapKick@CDungeonSiege@@QAEXH@Z ; CDungeonSiege::MapKick

; 849  : 			this->RewardSiege(lpTarget->m_Index);

  001fd	8b 06		 mov	 eax, DWORD PTR [esi]
  001ff	50		 push	 eax
  00200	8b cf		 mov	 ecx, edi
  00202	e8 00 00 00 00	 call	 ?RewardSiege@CDungeonSiege@@QAEXH@Z ; CDungeonSiege::RewardSiege

; 850  : 			this->SetStatus(eEVENTDUNGEON_CLOSE);

  00207	6a 00		 push	 0
  00209	8b cf		 mov	 ecx, edi
  0020b	e8 00 00 00 00	 call	 ?SetStatus@CDungeonSiege@@QAEXH@Z ; CDungeonSiege::SetStatus
$LN1@PlayerScor:

; 851  : 		}
; 852  : 		this->GCSiegeScore();

  00210	8b cf		 mov	 ecx, edi
  00212	e8 00 00 00 00	 call	 ?GCSiegeScore@CDungeonSiege@@QAEXXZ ; CDungeonSiege::GCSiegeScore
$LN2@PlayerScor:

; 853  : 	}
; 854  : 
; 855  : 	return true;

  00217	5e		 pop	 esi
  00218	5b		 pop	 ebx
  00219	b0 01		 mov	 al, 1
  0021b	5f		 pop	 edi

; 856  : }

  0021c	8b 4d fc	 mov	 ecx, DWORD PTR __$ArrayPad$[ebp]
  0021f	33 cd		 xor	 ecx, ebp
  00221	e8 00 00 00 00	 call	 @__security_check_cookie@4
  00226	8b e5		 mov	 esp, ebp
  00228	5d		 pop	 ebp
  00229	c2 08 00	 ret	 8
$LN9@PlayerScor:
  0022c	8b 4d fc	 mov	 ecx, DWORD PTR __$ArrayPad$[ebp]
  0022f	5e		 pop	 esi
  00230	5b		 pop	 ebx
  00231	33 cd		 xor	 ecx, ebp
  00233	32 c0		 xor	 al, al
  00235	5f		 pop	 edi
  00236	e8 00 00 00 00	 call	 @__security_check_cookie@4
  0023b	8b e5		 mov	 esp, ebp
  0023d	5d		 pop	 ebp
  0023e	c2 08 00	 ret	 8
?PlayerScore@CDungeonSiege@@QAE_NHH@Z ENDP		; CDungeonSiege::PlayerScore
_TEXT	ENDS
PUBLIC	__$ArrayPad$
PUBLIC	?PlayerGameClose@CDungeonSiege@@QAEXH@Z		; CDungeonSiege::PlayerGameClose
; Function compile flags: /Ogtp
;	COMDAT ?PlayerGameClose@CDungeonSiege@@QAEXH@Z
_TEXT	SEGMENT
_szTemp$ = -260						; size = 256
__$ArrayPad$ = -4					; size = 4
_aIndex$ = 8						; size = 4
?PlayerGameClose@CDungeonSiege@@QAEXH@Z PROC		; CDungeonSiege::PlayerGameClose, COMDAT
; _this$ = ecx

; 1257 : {

  00000	55		 push	 ebp
  00001	8b ec		 mov	 ebp, esp
  00003	81 ec 04 01 00
	00		 sub	 esp, 260		; 00000104H
  00009	a1 00 00 00 00	 mov	 eax, DWORD PTR ___security_cookie
  0000e	33 c5		 xor	 eax, ebp
  00010	89 45 fc	 mov	 DWORD PTR __$ArrayPad$[ebp], eax
  00013	56		 push	 esi

; 1258 : 	if(!this->CheckStatus(eEVENTDUNGEON_START_STAGE2))

  00014	6a 04		 push	 4
  00016	8b f1		 mov	 esi, ecx
  00018	e8 00 00 00 00	 call	 ?CheckStatus@CDungeonSiege@@QAE_NH@Z ; CDungeonSiege::CheckStatus
  0001d	84 c0		 test	 al, al
  0001f	0f 84 a7 00 00
	00		 je	 $LN5@PlayerGame

; 1259 : 	{
; 1260 : 		return;
; 1261 : 	}
; 1262 : 
; 1263 : 	int iWinIndex = -1;
; 1264 : 
; 1265 : 	if(aIndex == this->aIndexFinal1)

  00025	8b 4e 38	 mov	 ecx, DWORD PTR [esi+56]
  00028	8b 55 08	 mov	 edx, DWORD PTR _aIndex$[ebp]
  0002b	83 c8 ff	 or	 eax, -1
  0002e	3b d1		 cmp	 edx, ecx
  00030	75 03		 jne	 SHORT $LN3@PlayerGame

; 1266 : 	{
; 1267 : 		iWinIndex = this->aIndexFinal2;

  00032	8b 46 3c	 mov	 eax, DWORD PTR [esi+60]
$LN3@PlayerGame:

; 1268 : 	}
; 1269 : 	if(aIndex == this->aIndexFinal2)

  00035	3b 56 3c	 cmp	 edx, DWORD PTR [esi+60]
  00038	75 02		 jne	 SHORT $LN2@PlayerGame

; 1270 : 	{
; 1271 : 		iWinIndex = this->aIndexFinal1;

  0003a	8b c1		 mov	 eax, ecx
$LN2@PlayerGame:

; 1272 : 	}
; 1273 : 
; 1274 : 	if(iWinIndex == -1)

  0003c	83 f8 ff	 cmp	 eax, -1
  0003f	0f 84 87 00 00
	00		 je	 $LN5@PlayerGame

; 1275 : 	{
; 1276 : 		return;
; 1277 : 	}
; 1278 : 
; 1279 : 	LPOBJ lpUser = &gObj[iWinIndex];

  00045	69 c0 50 2b 00
	00		 imul	 eax, 11088		; 00002b50H
  0004b	03 05 00 00 00
	00		 add	 eax, DWORD PTR ?gObj@@3PAUOBJECTSTRUCT@@A ; gObj
  00051	53		 push	 ebx
  00052	57		 push	 edi
  00053	8b f8		 mov	 edi, eax

; 1280 : 	char szTemp[256];
; 1281 : 	sprintf(szTemp, "[%s] %s hero of Dungeon!", this->m_EventName, lpUser->Name);

  00055	8d 47 77	 lea	 eax, DWORD PTR [edi+119]
  00058	50		 push	 eax
  00059	8d 9e e4 00 00
	00		 lea	 ebx, DWORD PTR [esi+228]
  0005f	53		 push	 ebx
  00060	8d 8d fc fe ff
	ff		 lea	 ecx, DWORD PTR _szTemp$[ebp]
  00066	68 00 00 00 00	 push	 OFFSET ??_C@_0BJ@NCLPJDDN@?$FL?$CFs?$FN?5?$CFs?5hero?5of?5Dungeon?$CB?$AA@
  0006b	51		 push	 ecx
  0006c	e8 00 00 00 00	 call	 _sprintf

; 1282 : 	AllSendServerMsg(szTemp);

  00071	8d 95 fc fe ff
	ff		 lea	 edx, DWORD PTR _szTemp$[ebp]
  00077	52		 push	 edx
  00078	e8 00 00 00 00	 call	 ?AllSendServerMsg@@YAXPAD@Z ; AllSendServerMsg

; 1283 : 	this->bCaptured = true;

  0007d	c6 46 14 01	 mov	 BYTE PTR [esi+20], 1

; 1284 : 	memcpy(this->szLordGuild, lpUser->GuildName, sizeof(this->szLordGuild)-1);

  00081	8b 8f 3c 04 00
	00		 mov	 ecx, DWORD PTR [edi+1084]
  00087	8d 46 15	 lea	 eax, DWORD PTR [esi+21]

; 1285 : 	sprintf(szTemp, "[%s] %s are new owners of the Dungeon", this->m_EventName, this->szLordGuild);

  0008a	50		 push	 eax
  0008b	89 08		 mov	 DWORD PTR [eax], ecx
  0008d	8b 97 40 04 00
	00		 mov	 edx, DWORD PTR [edi+1088]
  00093	53		 push	 ebx
  00094	89 50 04	 mov	 DWORD PTR [eax+4], edx
  00097	8d 85 fc fe ff
	ff		 lea	 eax, DWORD PTR _szTemp$[ebp]
  0009d	68 00 00 00 00	 push	 OFFSET ??_C@_0CG@JALOJN@?$FL?$CFs?$FN?5?$CFs?5are?5new?5owners?5of?5the?5Du@
  000a2	50		 push	 eax
  000a3	e8 00 00 00 00	 call	 _sprintf

; 1286 : 	AllSendServerMsg(szTemp);

  000a8	8d 8d fc fe ff
	ff		 lea	 ecx, DWORD PTR _szTemp$[ebp]
  000ae	51		 push	 ecx
  000af	e8 00 00 00 00	 call	 ?AllSendServerMsg@@YAXPAD@Z ; AllSendServerMsg

; 1287 : 	this->RewardSiege(lpUser->m_Index);

  000b4	8b 17		 mov	 edx, DWORD PTR [edi]
  000b6	83 c4 28	 add	 esp, 40			; 00000028H
  000b9	52		 push	 edx
  000ba	8b ce		 mov	 ecx, esi
  000bc	e8 00 00 00 00	 call	 ?RewardSiege@CDungeonSiege@@QAEXH@Z ; CDungeonSiege::RewardSiege

; 1288 : 	this->SetStatus(eEVENTDUNGEON_CLOSE);

  000c1	6a 00		 push	 0
  000c3	8b ce		 mov	 ecx, esi
  000c5	e8 00 00 00 00	 call	 ?SetStatus@CDungeonSiege@@QAEXH@Z ; CDungeonSiege::SetStatus
  000ca	5f		 pop	 edi
  000cb	5b		 pop	 ebx
$LN5@PlayerGame:

; 1289 : }

  000cc	8b 4d fc	 mov	 ecx, DWORD PTR __$ArrayPad$[ebp]
  000cf	33 cd		 xor	 ecx, ebp
  000d1	5e		 pop	 esi
  000d2	e8 00 00 00 00	 call	 @__security_check_cookie@4
  000d7	8b e5		 mov	 esp, ebp
  000d9	5d		 pop	 ebp
  000da	c2 04 00	 ret	 4
?PlayerGameClose@CDungeonSiege@@QAEXH@Z ENDP		; CDungeonSiege::PlayerGameClose
_TEXT	ENDS
PUBLIC	?ProcessStatusClose@CDungeonSiege@@QAEXXZ	; CDungeonSiege::ProcessStatusClose
; Function compile flags: /Ogtp
;	COMDAT ?ProcessStatusClose@CDungeonSiege@@QAEXXZ
_TEXT	SEGMENT
?ProcessStatusClose@CDungeonSiege@@QAEXXZ PROC		; CDungeonSiege::ProcessStatusClose, COMDAT
; _this$ = ecx

; 536  : 	if(this->iEventStartDay == this->systime.wDayOfWeek	&&
; 537  : 	   this->iEventStartHour == this->systime.wHour		&& 
; 538  : 	   this->iEventeStartMinut == this->systime.wMinute	&&
; 539  : 	   this->systime.wSecond == 0)

  00000	0f b7 41 08	 movzx	 eax, WORD PTR [ecx+8]
  00004	39 41 5c	 cmp	 DWORD PTR [ecx+92], eax
  00007	75 1e		 jne	 SHORT $LN1@ProcessSta@4
  00009	0f b7 51 0c	 movzx	 edx, WORD PTR [ecx+12]
  0000d	39 51 60	 cmp	 DWORD PTR [ecx+96], edx
  00010	75 15		 jne	 SHORT $LN1@ProcessSta@4
  00012	0f b7 41 0e	 movzx	 eax, WORD PTR [ecx+14]
  00016	39 41 64	 cmp	 DWORD PTR [ecx+100], eax
  00019	75 0c		 jne	 SHORT $LN1@ProcessSta@4
  0001b	66 83 79 10 00	 cmp	 WORD PTR [ecx+16], 0
  00020	75 05		 jne	 SHORT $LN1@ProcessSta@4

; 540  : 	{
; 541  : 		this->ProcessStatusStart();

  00022	e9 00 00 00 00	 jmp	 ?ProcessStatusStart@CDungeonSiege@@QAEXXZ ; CDungeonSiege::ProcessStatusStart
$LN1@ProcessSta@4:

; 542  : 		/*
; 543  : 		if(this->iRegCount >= 2)
; 544  : 		{
; 545  : 			this->SetStatus(eEVENTDUNGEON_WAIT);
; 546  : 		}
; 547  : 		else if(this->iRegCount == 1)
; 548  : 		{
; 549  : 			for(int i = 0; i < this->iRegCount; i++)
; 550  : 			{
; 551  : 				_GUILD_INFO_STRUCT* lpGuild1 = Guild.SearchGuild(this->reg_list[i].szGuildName);
; 552  : 
; 553  : 				if(!lpGuild1)
; 554  : 				{
; 555  : 					continue;
; 556  : 				}
; 557  : 				char szTemp[256];
; 558  : 				this->bCaptured = true;
; 559  : 				memcpy(this->szLordGuild, lpGuild1->Name, sizeof(this->szLordGuild)-1);
; 560  : 				sprintf(szTemp, "[%s] %s are new owners of the Dungeon", this->m_EventName, this->szLordGuild);
; 561  : 				AllSendServerMsg(szTemp);
; 562  : 				this->SetStatus(eEVENTDUNGEON_CLOSE);	
; 563  : 			}
; 564  : 		}
; 565  : 		else if(this->iRegCount == 0)
; 566  : 		{
; 567  : 			this->bCaptured = false;
; 568  : 			memcpy(this->szLordGuild, "", sizeof(this->szLordGuild)-1);
; 569  : 			this->SetStatus(eEVENTDUNGEON_CLOSE);	
; 570  : 		}
; 571  : 		*/
; 572  : 	}
; 573  : }

  00027	c3		 ret	 0
?ProcessStatusClose@CDungeonSiege@@QAEXXZ ENDP		; CDungeonSiege::ProcessStatusClose
_TEXT	ENDS
PUBLIC	?Run@CDungeonSiege@@QAEXXZ			; CDungeonSiege::Run
EXTRN	__imp__GetLocalTime@4:PROC
; Function compile flags: /Ogtp
;	COMDAT ?Run@CDungeonSiege@@QAEXXZ
_TEXT	SEGMENT
?Run@CDungeonSiege@@QAEXXZ PROC				; CDungeonSiege::Run, COMDAT
; _this$ = ecx

; 181  : {

  00000	56		 push	 esi
  00001	8b f1		 mov	 esi, ecx

; 182  : 	if(!this->bEnable)

  00003	80 7e 48 00	 cmp	 BYTE PTR [esi+72], 0
  00007	74 63		 je	 SHORT $LN9@Run

; 183  : 	{
; 184  : 		return;
; 185  : 	}
; 186  : 
; 187  : 	GetLocalTime(&this->systime);

  00009	8d 46 04	 lea	 eax, DWORD PTR [esi+4]
  0000c	50		 push	 eax
  0000d	ff 15 00 00 00
	00		 call	 DWORD PTR __imp__GetLocalTime@4

; 188  : 
; 189  : 	switch(this->iEventStatus)

  00013	8b 06		 mov	 eax, DWORD PTR [esi]
  00015	83 f8 04	 cmp	 eax, 4
  00018	77 4a		 ja	 SHORT $LN6@Run
  0001a	ff 24 85 00 00
	00 00		 jmp	 DWORD PTR $LN13@Run[eax*4]
$LN5@Run:

; 190  : 	{
; 191  : 		case eEVENTDUNGEON_CLOSE:			this->ProcessStatusClose();			break;

  00021	8b ce		 mov	 ecx, esi
  00023	e8 00 00 00 00	 call	 ?ProcessStatusClose@CDungeonSiege@@QAEXXZ ; CDungeonSiege::ProcessStatusClose

; 196  : 	}
; 197  : 
; 198  : 	this->ReturnPlayerRing();

  00028	8b ce		 mov	 ecx, esi
  0002a	5e		 pop	 esi
  0002b	e9 00 00 00 00	 jmp	 ?ReturnPlayerRing@CDungeonSiege@@QAEXXZ ; CDungeonSiege::ReturnPlayerRing
$LN4@Run:

; 192  : 		case eEVENTDUNGEON_WAIT:			this->PrecessStatusWait();			break;

  00030	8b ce		 mov	 ecx, esi
  00032	e8 00 00 00 00	 call	 ?PrecessStatusWait@CDungeonSiege@@QAEXXZ ; CDungeonSiege::PrecessStatusWait

; 196  : 	}
; 197  : 
; 198  : 	this->ReturnPlayerRing();

  00037	8b ce		 mov	 ecx, esi
  00039	5e		 pop	 esi
  0003a	e9 00 00 00 00	 jmp	 ?ReturnPlayerRing@CDungeonSiege@@QAEXXZ ; CDungeonSiege::ReturnPlayerRing
$LN3@Run:

; 193  : 		case eEVENTDUNGEON_START_STAGE1:	this->ProcessStatusStartStage1();	break;

  0003f	8b ce		 mov	 ecx, esi
  00041	e8 00 00 00 00	 call	 ?ProcessStatusStartStage1@CDungeonSiege@@QAEXXZ ; CDungeonSiege::ProcessStatusStartStage1

; 196  : 	}
; 197  : 
; 198  : 	this->ReturnPlayerRing();

  00046	8b ce		 mov	 ecx, esi
  00048	5e		 pop	 esi
  00049	e9 00 00 00 00	 jmp	 ?ReturnPlayerRing@CDungeonSiege@@QAEXXZ ; CDungeonSiege::ReturnPlayerRing
$LN2@Run:

; 194  : 		case eEVENTDUNGEON_WAIT_STAGE2:		this->PrecessStatusWaitStage2();	break;

  0004e	8b ce		 mov	 ecx, esi
  00050	e8 00 00 00 00	 call	 ?PrecessStatusWaitStage2@CDungeonSiege@@QAEXXZ ; CDungeonSiege::PrecessStatusWaitStage2

; 196  : 	}
; 197  : 
; 198  : 	this->ReturnPlayerRing();

  00055	8b ce		 mov	 ecx, esi
  00057	5e		 pop	 esi
  00058	e9 00 00 00 00	 jmp	 ?ReturnPlayerRing@CDungeonSiege@@QAEXXZ ; CDungeonSiege::ReturnPlayerRing
$LN1@Run:

; 195  : 		case eEVENTDUNGEON_START_STAGE2:	this->ProcessStatusStartStage2();	break;

  0005d	8b ce		 mov	 ecx, esi
  0005f	e8 00 00 00 00	 call	 ?ProcessStatusStartStage2@CDungeonSiege@@QAEXXZ ; CDungeonSiege::ProcessStatusStartStage2
$LN6@Run:

; 196  : 	}
; 197  : 
; 198  : 	this->ReturnPlayerRing();

  00064	8b ce		 mov	 ecx, esi
  00066	5e		 pop	 esi
  00067	e9 00 00 00 00	 jmp	 ?ReturnPlayerRing@CDungeonSiege@@QAEXXZ ; CDungeonSiege::ReturnPlayerRing
$LN9@Run:
  0006c	5e		 pop	 esi

; 199  : }

  0006d	c3		 ret	 0
  0006e	8b ff		 npad	 2
$LN13@Run:
  00070	00 00 00 00	 DD	 $LN5@Run
  00074	00 00 00 00	 DD	 $LN4@Run
  00078	00 00 00 00	 DD	 $LN3@Run
  0007c	00 00 00 00	 DD	 $LN2@Run
  00080	00 00 00 00	 DD	 $LN1@Run
?Run@CDungeonSiege@@QAEXXZ ENDP				; CDungeonSiege::Run
_TEXT	ENDS
EXTRN	_atexit:PROC
; Function compile flags: /Ogtp
;	COMDAT ??__Eg_DungeonSiege@@YAXXZ
text$yc	SEGMENT
??__Eg_DungeonSiege@@YAXXZ PROC				; `dynamic initializer for 'g_DungeonSiege'', COMDAT

; 15   : CDungeonSiege g_DungeonSiege;

  00000	b9 00 00 00 00	 mov	 ecx, OFFSET ?g_DungeonSiege@@3VCDungeonSiege@@A ; g_DungeonSiege
  00005	e8 00 00 00 00	 call	 ??0CDungeonSiege@@QAE@XZ ; CDungeonSiege::CDungeonSiege
  0000a	68 00 00 00 00	 push	 OFFSET ??__Fg_DungeonSiege@@YAXXZ ; `dynamic atexit destructor for 'g_DungeonSiege''
  0000f	e8 00 00 00 00	 call	 _atexit
  00014	59		 pop	 ecx
  00015	c3		 ret	 0
??__Eg_DungeonSiege@@YAXXZ ENDP				; `dynamic initializer for 'g_DungeonSiege''
; Function compile flags: /Ogtp
text$yc	ENDS
;	COMDAT ??__Fg_DungeonSiege@@YAXXZ
text$yd	SEGMENT
??__Fg_DungeonSiege@@YAXXZ PROC				; `dynamic atexit destructor for 'g_DungeonSiege'', COMDAT
  00000	c3		 ret	 0
??__Fg_DungeonSiege@@YAXXZ ENDP				; `dynamic atexit destructor for 'g_DungeonSiege''
text$yd	ENDS
PUBLIC	?g_DungeonSiege@@3VCDungeonSiege@@A		; g_DungeonSiege
_BSS	SEGMENT
?g_DungeonSiege@@3VCDungeonSiege@@A DB 0170H DUP (?)	; g_DungeonSiege
_BSS	ENDS
CRT$XCU	SEGMENT
_g_DungeonSiege$initializer$ DD FLAT:??__Eg_DungeonSiege@@YAXXZ
CRT$XCU	ENDS
END
