; Listing generated by Microsoft (R) Optimizing Compiler Version 16.00.30319.01 

	TITLE	E:\work\tranet_version\GS\GameServer\EledoradoEvent.cpp
	.686P
	.XMM
	include listing.inc
	.model	flat

INCLUDELIB LIBCMT
INCLUDELIB OLDNAMES

_DATA	SEGMENT
_g_iNpcUpDfLevel_CGATE DD 01H
	DD	02H
	DD	02dc6c0H
	DD	02H
	DD	03H
	DD	02dc6c0H
	DD	03H
	DD	04H
	DD	02dc6c0H
_g_iNpcUpDfLevel_CSTATUE DD 01H
	DD	03H
	DD	02dc6c0H
	DD	02H
	DD	05H
	DD	02dc6c0H
	DD	03H
	DD	07H
	DD	02dc6c0H
_g_iNpcUpMaxHP_CGATE DD 02625a0H
	DD	02H
	DD	0f4240H
	DD	03567e0H
	DD	03H
	DD	0f4240H
	DD	04f5880H
	DD	04H
	DD	0f4240H
_g_iNpcUpMaxHP_CSTATUE DD 02191c0H
	DD	03H
	DD	0f4240H
	DD	033e140H
	DD	05H
	DD	0f4240H
	DD	04c4b40H
	DD	07H
	DD	0f4240H
_g_iNpcUpRgLevel_CSTATUE DD 01H
	DD	03H
	DD	04c4b40H
	DD	02H
	DD	05H
	DD	04c4b40H
	DD	03H
	DD	07H
	DD	04c4b40H
_g_iCsUserReSpawnArea DD 023H
	DD	011H
	DD	090H
	DD	030H
	DD	04aH
	DD	090H
	DD	073H
	DD	09aH
	DD	023H
	DD	011H
	DD	090H
	DD	030H
_g_iNpcDefense_CGATE DD 064H
	DD	0b4H
	DD	012cH
	DD	0208H
_g_iNpcDefense_CSTATUE DD 050H
	DD	0b4H
	DD	0154H
	DD	0226H
_g_iCastleWallStepAxisY DD 071H
	DD	0a0H
	DD	0cbH
_DATA	ENDS
PUBLIC	?SetMenualStart@CEledoradoEvent@@QAEXH@Z	; CEledoradoEvent::SetMenualStart
; Function compile flags: /Ogtp
; File e:\work\tranet_version\gs\gameserver\eledoradoevent.h
;	COMDAT ?SetMenualStart@CEledoradoEvent@@QAEXH@Z
_TEXT	SEGMENT
_bMenualStart$ = 8					; size = 4
?SetMenualStart@CEledoradoEvent@@QAEXH@Z PROC		; CEledoradoEvent::SetMenualStart, COMDAT
; _this$ = ecx

; 37   : 	void SetMenualStart(BOOL bMenualStart){this->m_bMenualStart = bMenualStart;}	// line : 57

  00000	55		 push	 ebp
  00001	8b ec		 mov	 ebp, esp
  00003	8b 45 08	 mov	 eax, DWORD PTR _bMenualStart$[ebp]
  00006	89 41 68	 mov	 DWORD PTR [ecx+104], eax
  00009	5d		 pop	 ebp
  0000a	c2 04 00	 ret	 4
?SetMenualStart@CEledoradoEvent@@QAEXH@Z ENDP		; CEledoradoEvent::SetMenualStart
_TEXT	ENDS
PUBLIC	??_H@YGXPAXIHP6EPAX0@Z@Z			; `vector constructor iterator'
; Function compile flags: /Ogtp
;	COMDAT ??_H@YGXPAXIHP6EPAX0@Z@Z
_TEXT	SEGMENT
___t$ = 8						; size = 4
___s$ = 12						; size = 4
___n$ = 16						; size = 4
___f$ = 20						; size = 4
??_H@YGXPAXIHP6EPAX0@Z@Z PROC				; `vector constructor iterator', COMDAT
  00000	55		 push	 ebp
  00001	8b ec		 mov	 ebp, esp
  00003	57		 push	 edi
  00004	8b 7d 10	 mov	 edi, DWORD PTR ___n$[ebp]
  00007	4f		 dec	 edi
  00008	78 14		 js	 SHORT $LN1@vector
  0000a	53		 push	 ebx
  0000b	8b 5d 14	 mov	 ebx, DWORD PTR ___f$[ebp]
  0000e	56		 push	 esi
  0000f	8b 75 08	 mov	 esi, DWORD PTR ___t$[ebp]
$LL2@vector:
  00012	8b ce		 mov	 ecx, esi
  00014	ff d3		 call	 ebx
  00016	03 75 0c	 add	 esi, DWORD PTR ___s$[ebp]
  00019	4f		 dec	 edi
  0001a	79 f6		 jns	 SHORT $LL2@vector
  0001c	5e		 pop	 esi
  0001d	5b		 pop	 ebx
$LN1@vector:
  0001e	5f		 pop	 edi
  0001f	5d		 pop	 ebp
  00020	c2 10 00	 ret	 16			; 00000010H
??_H@YGXPAXIHP6EPAX0@Z@Z ENDP				; `vector constructor iterator'
_TEXT	ENDS
EXTRN	__localtime64:PROC
; Function compile flags: /Ogtp
; File d:\program files (x86)\microsoft visual studio 10.0\vc\include\time.inl
;	COMDAT _localtime
_TEXT	SEGMENT
_localtime PROC						; COMDAT
; __Time$ = eax

; 114  : #pragma warning( push )
; 115  : #pragma warning( disable : 4996 )
; 116  :     return _localtime64(_Time);

  00000	50		 push	 eax
  00001	e8 00 00 00 00	 call	 __localtime64
  00006	83 c4 04	 add	 esp, 4

; 117  : #pragma warning( pop )
; 118  : }

  00009	c3		 ret	 0
_localtime ENDP
_TEXT	ENDS
EXTRN	__time64:PROC
; Function compile flags: /Ogtp
;	COMDAT _time
_TEXT	SEGMENT
_time	PROC						; COMDAT
; __Time$ = eax

; 133  :     return _time64(_Time);

  00000	50		 push	 eax
  00001	e8 00 00 00 00	 call	 __time64
  00006	83 c4 04	 add	 esp, 4

; 134  : }

  00009	c3		 ret	 0
_time	ENDP
_TEXT	ENDS
PUBLIC	??_7CEledoradoEvent@@6B@			; CEledoradoEvent::`vftable'
PUBLIC	??0CEledoradoEvent@@QAE@XZ			; CEledoradoEvent::CEledoradoEvent
PUBLIC	??_R4CEledoradoEvent@@6B@			; CEledoradoEvent::`RTTI Complete Object Locator'
PUBLIC	??_R0?AVCEledoradoEvent@@@8			; CEledoradoEvent `RTTI Type Descriptor'
PUBLIC	??_R3CEledoradoEvent@@8				; CEledoradoEvent::`RTTI Class Hierarchy Descriptor'
PUBLIC	??_R2CEledoradoEvent@@8				; CEledoradoEvent::`RTTI Base Class Array'
PUBLIC	??_R1A@?0A@EA@CEledoradoEvent@@8		; CEledoradoEvent::`RTTI Base Class Descriptor at (0,-1,0,64)'
EXTRN	??_7type_info@@6B@:QWORD			; type_info::`vftable'
EXTRN	??_ECEledoradoEvent@@UAEPAXI@Z:PROC		; CEledoradoEvent::`vector deleting destructor'
;	COMDAT ??_R1A@?0A@EA@CEledoradoEvent@@8
; File e:\work\tranet_version\gs\gameserver\eledoradoevent.cpp
rdata$r	SEGMENT
??_R1A@?0A@EA@CEledoradoEvent@@8 DD FLAT:??_R0?AVCEledoradoEvent@@@8 ; CEledoradoEvent::`RTTI Base Class Descriptor at (0,-1,0,64)'
	DD	00H
	DD	00H
	DD	0ffffffffH
	DD	00H
	DD	040H
	DD	FLAT:??_R3CEledoradoEvent@@8
rdata$r	ENDS
;	COMDAT ??_R2CEledoradoEvent@@8
rdata$r	SEGMENT
??_R2CEledoradoEvent@@8 DD FLAT:??_R1A@?0A@EA@CEledoradoEvent@@8 ; CEledoradoEvent::`RTTI Base Class Array'
rdata$r	ENDS
;	COMDAT ??_R3CEledoradoEvent@@8
rdata$r	SEGMENT
??_R3CEledoradoEvent@@8 DD 00H				; CEledoradoEvent::`RTTI Class Hierarchy Descriptor'
	DD	00H
	DD	01H
	DD	FLAT:??_R2CEledoradoEvent@@8
rdata$r	ENDS
;	COMDAT ??_R0?AVCEledoradoEvent@@@8
_DATA	SEGMENT
??_R0?AVCEledoradoEvent@@@8 DD FLAT:??_7type_info@@6B@	; CEledoradoEvent `RTTI Type Descriptor'
	DD	00H
	DB	'.?AVCEledoradoEvent@@', 00H
_DATA	ENDS
;	COMDAT ??_R4CEledoradoEvent@@6B@
rdata$r	SEGMENT
??_R4CEledoradoEvent@@6B@ DD 00H			; CEledoradoEvent::`RTTI Complete Object Locator'
	DD	00H
	DD	00H
	DD	FLAT:??_R0?AVCEledoradoEvent@@@8
	DD	FLAT:??_R3CEledoradoEvent@@8
rdata$r	ENDS
;	COMDAT ??_7CEledoradoEvent@@6B@
CONST	SEGMENT
??_7CEledoradoEvent@@6B@ DD FLAT:??_R4CEledoradoEvent@@6B@ ; CEledoradoEvent::`vftable'
	DD	FLAT:??_ECEledoradoEvent@@UAEPAXI@Z
; Function compile flags: /Ogtp
CONST	ENDS
;	COMDAT ??0CEledoradoEvent@@QAE@XZ
_TEXT	SEGMENT
??0CEledoradoEvent@@QAE@XZ PROC				; CEledoradoEvent::CEledoradoEvent, COMDAT
; _this$ = ecx

; 14   : {

  00000	8b c1		 mov	 eax, ecx

; 15   : 	this->GoldGoblenEventStartTime = 0;

  00002	33 c9		 xor	 ecx, ecx
  00004	89 48 08	 mov	 DWORD PTR [eax+8], ecx

; 16   : 	this->TitanEventStartTime = 0;

  00007	89 48 0c	 mov	 DWORD PTR [eax+12], ecx

; 17   : 	this->GoldDerconEventStartTime = 0;

  0000a	89 48 10	 mov	 DWORD PTR [eax+16], ecx

; 18   : 	this->DevilLizardKingEventStartTime = 0;

  0000d	89 48 14	 mov	 DWORD PTR [eax+20], ecx

; 19   : 	this->KanturEventStartTime = 0;

  00010	89 48 18	 mov	 DWORD PTR [eax+24], ecx

; 20   : 	//Season 4.5 addon start
; 21   : 	this->GoldenRabbitRegenTime = 0;

  00013	89 48 1c	 mov	 DWORD PTR [eax+28], ecx

; 22   : 	this->GoldenDarkKnightRegenTime = 0;

  00016	89 48 20	 mov	 DWORD PTR [eax+32], ecx

; 23   : 	this->GoldenDevilRegenTime = 0;

  00019	89 48 24	 mov	 DWORD PTR [eax+36], ecx

; 24   : 	this->GoldenMonsterRegenTime = 0;

  0001c	89 48 28	 mov	 DWORD PTR [eax+40], ecx

; 25   : 	this->GoldenCrustRegenTime = 0;

  0001f	89 48 2c	 mov	 DWORD PTR [eax+44], ecx

; 26   : 	this->GoldenSatirosRegenTime = 0;

  00022	89 48 30	 mov	 DWORD PTR [eax+48], ecx

; 27   : 	this->GoldenTwintailRegenTime = 0;

  00025	89 48 34	 mov	 DWORD PTR [eax+52], ecx

; 28   : 	this->GoldenIronKnightRegenTime = 0;

  00028	89 48 38	 mov	 DWORD PTR [eax+56], ecx

; 29   : 	this->GoldenNeipinRegenTime = 0;

  0002b	89 48 3c	 mov	 DWORD PTR [eax+60], ecx

; 30   : 	this->GoldenGreatDragonRegenTime = 0;

  0002e	89 48 40	 mov	 DWORD PTR [eax+64], ecx

; 31   : 	//Season 4.5 addon end
; 32   : 	this->m_BossGoldDerconMapNumber[0] = -1;

  00031	83 c9 ff	 or	 ecx, -1
  00034	c7 00 00 00 00
	00		 mov	 DWORD PTR [eax], OFFSET ??_7CEledoradoEvent@@6B@
  0003a	89 48 6c	 mov	 DWORD PTR [eax+108], ecx

; 33   : 	this->m_BossGoldDerconMapNumber[1] = -1;

  0003d	89 48 70	 mov	 DWORD PTR [eax+112], ecx

; 34   : 	this->m_BossGoldDerconMapNumber[2] = -1;

  00040	89 48 74	 mov	 DWORD PTR [eax+116], ecx

; 35   : }

  00043	c3		 ret	 0
??0CEledoradoEvent@@QAE@XZ ENDP				; CEledoradoEvent::CEledoradoEvent
_TEXT	ENDS
PUBLIC	??1CEledoradoEvent@@UAE@XZ			; CEledoradoEvent::~CEledoradoEvent
; Function compile flags: /Ogtp
;	COMDAT ??1CEledoradoEvent@@UAE@XZ
_TEXT	SEGMENT
??1CEledoradoEvent@@UAE@XZ PROC				; CEledoradoEvent::~CEledoradoEvent, COMDAT
; _this$ = ecx

; 38   : {

  00000	c7 01 00 00 00
	00		 mov	 DWORD PTR [ecx], OFFSET ??_7CEledoradoEvent@@6B@

; 39   : 	return;
; 40   : }

  00006	c3		 ret	 0
??1CEledoradoEvent@@UAE@XZ ENDP				; CEledoradoEvent::~CEledoradoEvent
_TEXT	ENDS
PUBLIC	?Init@CEledoradoEvent@@QAEXXZ			; CEledoradoEvent::Init
; Function compile flags: /Ogtp
;	COMDAT ?Init@CEledoradoEvent@@QAEXXZ
_TEXT	SEGMENT
?Init@CEledoradoEvent@@QAEXXZ PROC			; CEledoradoEvent::Init, COMDAT
; _this$ = ecx

; 44   : 	return;
; 45   : }

  00000	c3		 ret	 0
?Init@CEledoradoEvent@@QAEXXZ ENDP			; CEledoradoEvent::Init
_TEXT	ENDS
PUBLIC	?SetEventState@CEledoradoEvent@@QAEXH@Z		; CEledoradoEvent::SetEventState
; Function compile flags: /Ogtp
;	COMDAT ?SetEventState@CEledoradoEvent@@QAEXH@Z
_TEXT	SEGMENT
_State$ = 8						; size = 4
?SetEventState@CEledoradoEvent@@QAEXH@Z PROC		; CEledoradoEvent::SetEventState, COMDAT
; _this$ = ecx

; 48   : {

  00000	55		 push	 ebp
  00001	8b ec		 mov	 ebp, esp

; 49   : 	this->EventState = State;

  00003	8b 45 08	 mov	 eax, DWORD PTR _State$[ebp]
  00006	89 41 04	 mov	 DWORD PTR [ecx+4], eax

; 50   : }

  00009	5d		 pop	 ebp
  0000a	c2 04 00	 ret	 4
?SetEventState@CEledoradoEvent@@QAEXH@Z ENDP		; CEledoradoEvent::SetEventState
_TEXT	ENDS
PUBLIC	??_C@_0BM@CBOPIOL@Make?5GoldGoblen?5?3?5?$CFd?0?5?$CFd?0?$CFd?$AA@ ; `string'
PUBLIC	?RegenGoldGoblen@CEledoradoEvent@@QAEXXZ	; CEledoradoEvent::RegenGoldGoblen
EXTRN	?LogAddTD@@3P6AXPADZZA:DWORD			; LogAddTD
EXTRN	?GetBoxPosition@CMonsterSetBase@@QAEHHHHHHAAF0@Z:PROC ; CMonsterSetBase::GetBoxPosition
EXTRN	?gMSetBase@@3VCMonsterSetBase@@A:BYTE		; gMSetBase
EXTRN	?gObj@@3PAUOBJECTSTRUCT@@A:DWORD		; gObj
EXTRN	__fltused:DWORD
;	COMDAT ??_C@_0BM@CBOPIOL@Make?5GoldGoblen?5?3?5?$CFd?0?5?$CFd?0?$CFd?$AA@
CONST	SEGMENT
??_C@_0BM@CBOPIOL@Make?5GoldGoblen?5?3?5?$CFd?0?5?$CFd?0?$CFd?$AA@ DB 'Ma'
	DB	'ke GoldGoblen : %d, %d,%d', 00H		; `string'
; Function compile flags: /Ogtp
CONST	ENDS
;	COMDAT ?RegenGoldGoblen@CEledoradoEvent@@QAEXXZ
_TEXT	SEGMENT
?RegenGoldGoblen@CEledoradoEvent@@QAEXXZ PROC		; CEledoradoEvent::RegenGoldGoblen, COMDAT
; _this$ = ecx

; 226  : 	int n=0;
; 227  : 	int MapNumber;
; 228  : 
; 229  : 	for (n=0;n<OBJ_MAXMONSTER;n++)

  00000	a1 00 00 00 00	 mov	 eax, DWORD PTR ?gObj@@3PAUOBJECTSTRUCT@@A ; gObj
  00005	53		 push	 ebx
  00006	56		 push	 esi
  00007	33 f6		 xor	 esi, esi
  00009	8d 5e 01	 lea	 ebx, DWORD PTR [esi+1]
  0000c	8d 64 24 00	 npad	 4
$LL6@RegenGoldG:

; 230  : 	{
; 231  : 		if ( gObj[n].Class == 78 )

  00010	66 83 bc 06 b8
	00 00 00 4e	 cmp	 WORD PTR [esi+eax+184], 78 ; 0000004eH
  00019	0f 85 1a 01 00
	00		 jne	 $LN5@RegenGoldG

; 232  : 		{
; 233  : 			gObj[n].Live = TRUE;

  0001f	88 5c 06 6a	 mov	 BYTE PTR [esi+eax+106], bl

; 234  : 			MapNumber = 3;
; 235  : 			gObj[n].MapNumber = MapNumber;

  00023	a1 00 00 00 00	 mov	 eax, DWORD PTR ?gObj@@3PAUOBJECTSTRUCT@@A ; gObj
  00028	c6 84 06 49 01
	00 00 03	 mov	 BYTE PTR [esi+eax+329], 3
$LL2@RegenGoldG:

; 236  : 
; 237  : 			while ( gMSetBase.GetBoxPosition(MapNumber, 50, 50, 200, 200, gObj[n].X, gObj[n].Y) == 0 )

  00030	a1 00 00 00 00	 mov	 eax, DWORD PTR ?gObj@@3PAUOBJECTSTRUCT@@A ; gObj
  00035	8d 8c 06 46 01
	00 00		 lea	 ecx, DWORD PTR [esi+eax+326]
  0003c	51		 push	 ecx
  0003d	8d 94 06 44 01
	00 00		 lea	 edx, DWORD PTR [esi+eax+324]
  00044	52		 push	 edx
  00045	68 c8 00 00 00	 push	 200			; 000000c8H
  0004a	68 c8 00 00 00	 push	 200			; 000000c8H
  0004f	6a 32		 push	 50			; 00000032H
  00051	6a 32		 push	 50			; 00000032H
  00053	6a 03		 push	 3
  00055	b9 00 00 00 00	 mov	 ecx, OFFSET ?gMSetBase@@3VCMonsterSetBase@@A ; gMSetBase
  0005a	e8 00 00 00 00	 call	 ?GetBoxPosition@CMonsterSetBase@@QAEHHHHHHAAF0@Z ; CMonsterSetBase::GetBoxPosition
  0005f	85 c0		 test	 eax, eax
  00061	74 cd		 je	 SHORT $LL2@RegenGoldG

; 238  : 			{
; 239  : 
; 240  : 			}
; 241  : 
; 242  : 			gObj[n].Life = gObj[n].MaxLife;

  00063	a1 00 00 00 00	 mov	 eax, DWORD PTR ?gObj@@3PAUOBJECTSTRUCT@@A ; gObj
  00068	d9 84 06 00 01
	00 00		 fld	 DWORD PTR [esi+eax+256]
  0006f	d9 9c 06 fc 00
	00 00		 fstp	 DWORD PTR [esi+eax+252]

; 243  : 			gObj[n].TX = gObj[n].X;

  00076	a1 00 00 00 00	 mov	 eax, DWORD PTR ?gObj@@3PAUOBJECTSTRUCT@@A ; gObj
  0007b	0f b7 8c 06 44
	01 00 00	 movzx	 ecx, WORD PTR [esi+eax+324]
  00083	66 89 8c 06 7c
	01 00 00	 mov	 WORD PTR [esi+eax+380], cx

; 244  : 			gObj[n].TY = gObj[n].Y;

  0008b	a1 00 00 00 00	 mov	 eax, DWORD PTR ?gObj@@3PAUOBJECTSTRUCT@@A ; gObj
  00090	0f b7 94 06 46
	01 00 00	 movzx	 edx, WORD PTR [esi+eax+326]
  00098	66 89 94 06 7e
	01 00 00	 mov	 WORD PTR [esi+eax+382], dx

; 245  : 			gObj[n].MTX = gObj[n].X;

  000a0	a1 00 00 00 00	 mov	 eax, DWORD PTR ?gObj@@3PAUOBJECTSTRUCT@@A ; gObj
  000a5	0f b7 8c 06 44
	01 00 00	 movzx	 ecx, WORD PTR [esi+eax+324]
  000ad	66 89 8c 06 80
	01 00 00	 mov	 WORD PTR [esi+eax+384], cx

; 246  : 			gObj[n].MTY = gObj[n].Y;

  000b5	a1 00 00 00 00	 mov	 eax, DWORD PTR ?gObj@@3PAUOBJECTSTRUCT@@A ; gObj
  000ba	0f b7 94 06 46
	01 00 00	 movzx	 edx, WORD PTR [esi+eax+326]
  000c2	66 89 94 06 82
	01 00 00	 mov	 WORD PTR [esi+eax+386], dx

; 247  : 			gObj[n].StartX = gObj[n].X;

  000ca	a1 00 00 00 00	 mov	 eax, DWORD PTR ?gObj@@3PAUOBJECTSTRUCT@@A ; gObj
  000cf	8a 8c 06 44 01
	00 00		 mov	 cl, BYTE PTR [esi+eax+324]
  000d6	88 8c 06 76 01
	00 00		 mov	 BYTE PTR [esi+eax+374], cl

; 248  : 			gObj[n].StartY = gObj[n].Y;

  000dd	a1 00 00 00 00	 mov	 eax, DWORD PTR ?gObj@@3PAUOBJECTSTRUCT@@A ; gObj
  000e2	8a 94 06 46 01
	00 00		 mov	 dl, BYTE PTR [esi+eax+326]
  000e9	88 94 06 77 01
	00 00		 mov	 BYTE PTR [esi+eax+375], dl

; 249  : 			gObj[n].m_State = 1;

  000f0	a1 00 00 00 00	 mov	 eax, DWORD PTR ?gObj@@3PAUOBJECTSTRUCT@@A ; gObj
  000f5	89 9c 06 20 02
	00 00		 mov	 DWORD PTR [esi+eax+544], ebx

; 250  : 			gObj[n].PathCount = 0;

  000fc	8b 0d 00 00 00
	00		 mov	 ecx, DWORD PTR ?gObj@@3PAUOBJECTSTRUCT@@A ; gObj
  00102	c7 84 0e 84 01
	00 00 00 00 00
	00		 mov	 DWORD PTR [esi+ecx+388], 0

; 251  : 
; 252  : 			LogAddTD("Make GoldGoblen : %d, %d,%d",	MapNumber, gObj[n].X, gObj[n].Y);

  0010d	a1 00 00 00 00	 mov	 eax, DWORD PTR ?gObj@@3PAUOBJECTSTRUCT@@A ; gObj
  00112	0f bf 94 06 46
	01 00 00	 movsx	 edx, WORD PTR [esi+eax+326]
  0011a	0f bf 84 06 44
	01 00 00	 movsx	 eax, WORD PTR [esi+eax+324]
  00122	52		 push	 edx
  00123	50		 push	 eax
  00124	6a 03		 push	 3
  00126	68 00 00 00 00	 push	 OFFSET ??_C@_0BM@CBOPIOL@Make?5GoldGoblen?5?3?5?$CFd?0?5?$CFd?0?$CFd?$AA@
  0012b	ff 15 00 00 00
	00		 call	 DWORD PTR ?LogAddTD@@3P6AXPADZZA ; LogAddTD
  00131	a1 00 00 00 00	 mov	 eax, DWORD PTR ?gObj@@3PAUOBJECTSTRUCT@@A ; gObj
  00136	83 c4 10	 add	 esp, 16			; 00000010H
$LN5@RegenGoldG:

; 226  : 	int n=0;
; 227  : 	int MapNumber;
; 228  : 
; 229  : 	for (n=0;n<OBJ_MAXMONSTER;n++)

  00139	81 c6 50 2b 00
	00		 add	 esi, 11088		; 00002b50H
  0013f	81 fe 80 76 97
	08		 cmp	 esi, 144144000		; 08977680H
  00145	0f 8c c5 fe ff
	ff		 jl	 $LL6@RegenGoldG

; 253  : 		}
; 254  : 	}
; 255  : }

  0014b	5e		 pop	 esi
  0014c	5b		 pop	 ebx
  0014d	c3		 ret	 0
?RegenGoldGoblen@CEledoradoEvent@@QAEXXZ ENDP		; CEledoradoEvent::RegenGoldGoblen
_TEXT	ENDS
PUBLIC	??_C@_0BM@BOFIHGJ@Make?5GoldTaitan?5?3?5?$CFd?0?5?$CFd?0?$CFd?$AA@ ; `string'
PUBLIC	?RegenTitan@CEledoradoEvent@@QAEXXZ		; CEledoradoEvent::RegenTitan
;	COMDAT ??_C@_0BM@BOFIHGJ@Make?5GoldTaitan?5?3?5?$CFd?0?5?$CFd?0?$CFd?$AA@
CONST	SEGMENT
??_C@_0BM@BOFIHGJ@Make?5GoldTaitan?5?3?5?$CFd?0?5?$CFd?0?$CFd?$AA@ DB 'Ma'
	DB	'ke GoldTaitan : %d, %d,%d', 00H		; `string'
; Function compile flags: /Ogtp
CONST	ENDS
;	COMDAT ?RegenTitan@CEledoradoEvent@@QAEXXZ
_TEXT	SEGMENT
?RegenTitan@CEledoradoEvent@@QAEXXZ PROC		; CEledoradoEvent::RegenTitan, COMDAT
; _this$ = ecx

; 259  : 	int n=0;
; 260  : 	int MapNumber;
; 261  : 
; 262  : 	for (n=0;n<OBJ_MAXMONSTER;n++)

  00000	a1 00 00 00 00	 mov	 eax, DWORD PTR ?gObj@@3PAUOBJECTSTRUCT@@A ; gObj
  00005	53		 push	 ebx
  00006	56		 push	 esi
  00007	33 f6		 xor	 esi, esi
  00009	57		 push	 edi
  0000a	8b f9		 mov	 edi, ecx
  0000c	8d 5e 01	 lea	 ebx, DWORD PTR [esi+1]
  0000f	90		 npad	 1
$LL8@RegenTitan:

; 263  : 	{
; 264  : 		if ( gObj[n].Class == 53 )

  00010	0f b7 8c 06 b8
	00 00 00	 movzx	 ecx, WORD PTR [esi+eax+184]
  00018	83 f9 35	 cmp	 ecx, 53			; 00000035H
  0001b	0f 85 4c 01 00
	00		 jne	 $LN5@RegenTitan

; 265  : 		{
; 266  : 			gObj[n].Live = TRUE;

  00021	88 5c 06 6a	 mov	 BYTE PTR [esi+eax+106], bl

; 267  : 			MapNumber = 2;
; 268  : 			gObj[n].MapNumber = MapNumber;

  00025	a1 00 00 00 00	 mov	 eax, DWORD PTR ?gObj@@3PAUOBJECTSTRUCT@@A ; gObj
  0002a	c6 84 06 49 01
	00 00 02	 mov	 BYTE PTR [esi+eax+329], 2
$LL4@RegenTitan:

; 269  : 
; 270  : 			while ( gMSetBase.GetBoxPosition(MapNumber, 50, 50, 200, 200, gObj[n].X, gObj[n].Y) == 0 )

  00032	a1 00 00 00 00	 mov	 eax, DWORD PTR ?gObj@@3PAUOBJECTSTRUCT@@A ; gObj
  00037	8d 8c 06 46 01
	00 00		 lea	 ecx, DWORD PTR [esi+eax+326]
  0003e	51		 push	 ecx
  0003f	8d 94 06 44 01
	00 00		 lea	 edx, DWORD PTR [esi+eax+324]
  00046	52		 push	 edx
  00047	68 c8 00 00 00	 push	 200			; 000000c8H
  0004c	68 c8 00 00 00	 push	 200			; 000000c8H
  00051	6a 32		 push	 50			; 00000032H
  00053	6a 32		 push	 50			; 00000032H
  00055	6a 02		 push	 2
  00057	b9 00 00 00 00	 mov	 ecx, OFFSET ?gMSetBase@@3VCMonsterSetBase@@A ; gMSetBase
  0005c	e8 00 00 00 00	 call	 ?GetBoxPosition@CMonsterSetBase@@QAEHHHHHHAAF0@Z ; CMonsterSetBase::GetBoxPosition
  00061	85 c0		 test	 eax, eax
  00063	74 cd		 je	 SHORT $LL4@RegenTitan

; 271  : 			{
; 272  : 
; 273  : 			}
; 274  : 
; 275  : 			this->m_BossTitanMapNumber = gObj[n].MapNumber;

  00065	a1 00 00 00 00	 mov	 eax, DWORD PTR ?gObj@@3PAUOBJECTSTRUCT@@A ; gObj
  0006a	0f b6 8c 06 49
	01 00 00	 movzx	 ecx, BYTE PTR [esi+eax+329]
  00072	89 4f 44	 mov	 DWORD PTR [edi+68], ecx

; 276  : 			this->m_BossTitanMapX = gObj[n].X;

  00075	8b 15 00 00 00
	00		 mov	 edx, DWORD PTR ?gObj@@3PAUOBJECTSTRUCT@@A ; gObj
  0007b	0f bf 84 16 44
	01 00 00	 movsx	 eax, WORD PTR [esi+edx+324]
  00083	89 47 48	 mov	 DWORD PTR [edi+72], eax

; 277  : 			this->m_BossTitanMapY = gObj[n].Y;

  00086	8b 0d 00 00 00
	00		 mov	 ecx, DWORD PTR ?gObj@@3PAUOBJECTSTRUCT@@A ; gObj
  0008c	0f bf 94 0e 46
	01 00 00	 movsx	 edx, WORD PTR [esi+ecx+326]
  00094	89 57 4c	 mov	 DWORD PTR [edi+76], edx

; 278  : 
; 279  : 			gObj[n].Life = gObj[n].MaxLife;

  00097	a1 00 00 00 00	 mov	 eax, DWORD PTR ?gObj@@3PAUOBJECTSTRUCT@@A ; gObj
  0009c	d9 84 06 00 01
	00 00		 fld	 DWORD PTR [esi+eax+256]
  000a3	d9 9c 06 fc 00
	00 00		 fstp	 DWORD PTR [esi+eax+252]

; 280  : 			gObj[n].TX = gObj[n].X;

  000aa	a1 00 00 00 00	 mov	 eax, DWORD PTR ?gObj@@3PAUOBJECTSTRUCT@@A ; gObj
  000af	0f b7 8c 06 44
	01 00 00	 movzx	 ecx, WORD PTR [esi+eax+324]
  000b7	66 89 8c 06 7c
	01 00 00	 mov	 WORD PTR [esi+eax+380], cx

; 281  : 			gObj[n].TY = gObj[n].Y;

  000bf	a1 00 00 00 00	 mov	 eax, DWORD PTR ?gObj@@3PAUOBJECTSTRUCT@@A ; gObj
  000c4	0f b7 94 06 46
	01 00 00	 movzx	 edx, WORD PTR [esi+eax+326]
  000cc	66 89 94 06 7e
	01 00 00	 mov	 WORD PTR [esi+eax+382], dx

; 282  : 			gObj[n].MTX = gObj[n].X;

  000d4	a1 00 00 00 00	 mov	 eax, DWORD PTR ?gObj@@3PAUOBJECTSTRUCT@@A ; gObj
  000d9	0f b7 8c 06 44
	01 00 00	 movzx	 ecx, WORD PTR [esi+eax+324]
  000e1	66 89 8c 06 80
	01 00 00	 mov	 WORD PTR [esi+eax+384], cx

; 283  : 			gObj[n].MTY = gObj[n].Y;

  000e9	a1 00 00 00 00	 mov	 eax, DWORD PTR ?gObj@@3PAUOBJECTSTRUCT@@A ; gObj
  000ee	0f b7 94 06 46
	01 00 00	 movzx	 edx, WORD PTR [esi+eax+326]
  000f6	66 89 94 06 82
	01 00 00	 mov	 WORD PTR [esi+eax+386], dx

; 284  : 			gObj[n].StartX = gObj[n].X;

  000fe	a1 00 00 00 00	 mov	 eax, DWORD PTR ?gObj@@3PAUOBJECTSTRUCT@@A ; gObj
  00103	8a 8c 06 44 01
	00 00		 mov	 cl, BYTE PTR [esi+eax+324]
  0010a	88 8c 06 76 01
	00 00		 mov	 BYTE PTR [esi+eax+374], cl

; 285  : 			gObj[n].StartY = gObj[n].Y;

  00111	a1 00 00 00 00	 mov	 eax, DWORD PTR ?gObj@@3PAUOBJECTSTRUCT@@A ; gObj
  00116	8a 94 06 46 01
	00 00		 mov	 dl, BYTE PTR [esi+eax+326]
  0011d	88 94 06 77 01
	00 00		 mov	 BYTE PTR [esi+eax+375], dl

; 286  : 			gObj[n].m_State = 1;

  00124	a1 00 00 00 00	 mov	 eax, DWORD PTR ?gObj@@3PAUOBJECTSTRUCT@@A ; gObj
  00129	89 9c 06 20 02
	00 00		 mov	 DWORD PTR [esi+eax+544], ebx

; 287  : 			gObj[n].PathCount = 0;

  00130	8b 0d 00 00 00
	00		 mov	 ecx, DWORD PTR ?gObj@@3PAUOBJECTSTRUCT@@A ; gObj
  00136	c7 84 0e 84 01
	00 00 00 00 00
	00		 mov	 DWORD PTR [esi+ecx+388], 0

; 288  : 
; 289  : 			LogAddTD("Make GoldTaitan : %d, %d,%d",	MapNumber, gObj[n].X, gObj[n].Y);

  00141	a1 00 00 00 00	 mov	 eax, DWORD PTR ?gObj@@3PAUOBJECTSTRUCT@@A ; gObj
  00146	0f bf 94 06 46
	01 00 00	 movsx	 edx, WORD PTR [esi+eax+326]
  0014e	0f bf 84 06 44
	01 00 00	 movsx	 eax, WORD PTR [esi+eax+324]
  00156	52		 push	 edx
  00157	50		 push	 eax
  00158	6a 02		 push	 2
  0015a	68 00 00 00 00	 push	 OFFSET ??_C@_0BM@BOFIHGJ@Make?5GoldTaitan?5?3?5?$CFd?0?5?$CFd?0?$CFd?$AA@
  0015f	ff 15 00 00 00
	00		 call	 DWORD PTR ?LogAddTD@@3P6AXPADZZA ; LogAddTD
  00165	83 c4 10	 add	 esp, 16			; 00000010H
  00168	e9 09 01 00 00	 jmp	 $LN14@RegenTitan
$LN5@RegenTitan:

; 290  : 		}
; 291  : 		else if ( gObj[n].Class == 54 )

  0016d	83 f9 36	 cmp	 ecx, 54			; 00000036H
  00170	0f 85 05 01 00
	00		 jne	 $LN7@RegenTitan

; 292  : 		{
; 293  : 			gObj[n].Live = TRUE;

  00176	88 5c 06 6a	 mov	 BYTE PTR [esi+eax+106], bl

; 294  : 			MapNumber = this->m_BossTitanMapNumber;

  0017a	8b 47 44	 mov	 eax, DWORD PTR [edi+68]

; 295  : 			gObj[n].MapNumber = MapNumber;

  0017d	8b 0d 00 00 00
	00		 mov	 ecx, DWORD PTR ?gObj@@3PAUOBJECTSTRUCT@@A ; gObj
  00183	88 84 0e 49 01
	00 00		 mov	 BYTE PTR [esi+ecx+329], al

; 296  : 
; 297  : 			gMSetBase.GetBoxPosition(MapNumber, this->m_BossTitanMapX-4, this->m_BossTitanMapY-4,this->m_BossTitanMapX+4, this->m_BossTitanMapY+4, gObj[n].X, gObj[n].Y);

  0018a	8b 1d 00 00 00
	00		 mov	 ebx, DWORD PTR ?gObj@@3PAUOBJECTSTRUCT@@A ; gObj
  00190	8b 4f 4c	 mov	 ecx, DWORD PTR [edi+76]
  00193	8b 57 48	 mov	 edx, DWORD PTR [edi+72]
  00196	8d 9c 1e 46 01
	00 00		 lea	 ebx, DWORD PTR [esi+ebx+326]
  0019d	53		 push	 ebx
  0019e	8b 1d 00 00 00
	00		 mov	 ebx, DWORD PTR ?gObj@@3PAUOBJECTSTRUCT@@A ; gObj
  001a4	8d 9c 1e 44 01
	00 00		 lea	 ebx, DWORD PTR [esi+ebx+324]
  001ab	53		 push	 ebx
  001ac	8d 59 04	 lea	 ebx, DWORD PTR [ecx+4]
  001af	53		 push	 ebx
  001b0	8d 5a 04	 lea	 ebx, DWORD PTR [edx+4]
  001b3	53		 push	 ebx
  001b4	83 c1 fc	 add	 ecx, -4			; fffffffcH
  001b7	51		 push	 ecx
  001b8	83 c2 fc	 add	 edx, -4			; fffffffcH
  001bb	52		 push	 edx
  001bc	50		 push	 eax
  001bd	b9 00 00 00 00	 mov	 ecx, OFFSET ?gMSetBase@@3VCMonsterSetBase@@A ; gMSetBase
  001c2	e8 00 00 00 00	 call	 ?GetBoxPosition@CMonsterSetBase@@QAEHHHHHHAAF0@Z ; CMonsterSetBase::GetBoxPosition

; 298  : 
; 299  : 			gObj[n].Life = gObj[n].MaxLife;

  001c7	a1 00 00 00 00	 mov	 eax, DWORD PTR ?gObj@@3PAUOBJECTSTRUCT@@A ; gObj
  001cc	d9 84 06 00 01
	00 00		 fld	 DWORD PTR [esi+eax+256]

; 300  : 			gObj[n].TX = gObj[n].X;
; 301  : 			gObj[n].TY = gObj[n].Y;
; 302  : 			gObj[n].MTX = gObj[n].X;
; 303  : 			gObj[n].MTY = gObj[n].Y;
; 304  : 			gObj[n].StartX = gObj[n].X;
; 305  : 			gObj[n].StartY = gObj[n].Y;
; 306  : 			gObj[n].m_State = 1;

  001d3	bb 01 00 00 00	 mov	 ebx, 1
  001d8	d9 9c 06 fc 00
	00 00		 fstp	 DWORD PTR [esi+eax+252]
  001df	a1 00 00 00 00	 mov	 eax, DWORD PTR ?gObj@@3PAUOBJECTSTRUCT@@A ; gObj
  001e4	0f b7 94 06 44
	01 00 00	 movzx	 edx, WORD PTR [esi+eax+324]
  001ec	66 89 94 06 7c
	01 00 00	 mov	 WORD PTR [esi+eax+380], dx
  001f4	a1 00 00 00 00	 mov	 eax, DWORD PTR ?gObj@@3PAUOBJECTSTRUCT@@A ; gObj
  001f9	0f b7 8c 06 46
	01 00 00	 movzx	 ecx, WORD PTR [esi+eax+326]
  00201	66 89 8c 06 7e
	01 00 00	 mov	 WORD PTR [esi+eax+382], cx
  00209	a1 00 00 00 00	 mov	 eax, DWORD PTR ?gObj@@3PAUOBJECTSTRUCT@@A ; gObj
  0020e	0f b7 94 06 44
	01 00 00	 movzx	 edx, WORD PTR [esi+eax+324]
  00216	66 89 94 06 80
	01 00 00	 mov	 WORD PTR [esi+eax+384], dx
  0021e	a1 00 00 00 00	 mov	 eax, DWORD PTR ?gObj@@3PAUOBJECTSTRUCT@@A ; gObj
  00223	0f b7 8c 06 46
	01 00 00	 movzx	 ecx, WORD PTR [esi+eax+326]
  0022b	66 89 8c 06 82
	01 00 00	 mov	 WORD PTR [esi+eax+386], cx
  00233	a1 00 00 00 00	 mov	 eax, DWORD PTR ?gObj@@3PAUOBJECTSTRUCT@@A ; gObj
  00238	8a 94 06 44 01
	00 00		 mov	 dl, BYTE PTR [esi+eax+324]
  0023f	88 94 06 76 01
	00 00		 mov	 BYTE PTR [esi+eax+374], dl
  00246	a1 00 00 00 00	 mov	 eax, DWORD PTR ?gObj@@3PAUOBJECTSTRUCT@@A ; gObj
  0024b	8a 8c 06 46 01
	00 00		 mov	 cl, BYTE PTR [esi+eax+326]
  00252	88 8c 06 77 01
	00 00		 mov	 BYTE PTR [esi+eax+375], cl
  00259	8b 15 00 00 00
	00		 mov	 edx, DWORD PTR ?gObj@@3PAUOBJECTSTRUCT@@A ; gObj
  0025f	89 9c 16 20 02
	00 00		 mov	 DWORD PTR [esi+edx+544], ebx

; 307  : 			gObj[n].PathCount = 0;

  00266	a1 00 00 00 00	 mov	 eax, DWORD PTR ?gObj@@3PAUOBJECTSTRUCT@@A ; gObj
  0026b	c7 84 06 84 01
	00 00 00 00 00
	00		 mov	 DWORD PTR [esi+eax+388], 0
$LN14@RegenTitan:
  00276	a1 00 00 00 00	 mov	 eax, DWORD PTR ?gObj@@3PAUOBJECTSTRUCT@@A ; gObj
$LN7@RegenTitan:

; 259  : 	int n=0;
; 260  : 	int MapNumber;
; 261  : 
; 262  : 	for (n=0;n<OBJ_MAXMONSTER;n++)

  0027b	81 c6 50 2b 00
	00		 add	 esi, 11088		; 00002b50H
  00281	81 fe 80 76 97
	08		 cmp	 esi, 144144000		; 08977680H
  00287	0f 8c 83 fd ff
	ff		 jl	 $LL8@RegenTitan

; 308  : 		}
; 309  : 	}
; 310  : }

  0028d	5f		 pop	 edi
  0028e	5e		 pop	 esi
  0028f	5b		 pop	 ebx
  00290	c3		 ret	 0
?RegenTitan@CEledoradoEvent@@QAEXXZ ENDP		; CEledoradoEvent::RegenTitan
_TEXT	ENDS
PUBLIC	??_C@_0BP@HMGNFLDB@Make?5GoldLizarKing?5?3?5?$CFd?0?5?$CFd?0?$CFd?$AA@ ; `string'
PUBLIC	?RegenDevilLizardKing@CEledoradoEvent@@QAEXXZ	; CEledoradoEvent::RegenDevilLizardKing
;	COMDAT ??_C@_0BP@HMGNFLDB@Make?5GoldLizarKing?5?3?5?$CFd?0?5?$CFd?0?$CFd?$AA@
CONST	SEGMENT
??_C@_0BP@HMGNFLDB@Make?5GoldLizarKing?5?3?5?$CFd?0?5?$CFd?0?$CFd?$AA@ DB 'M'
	DB	'ake GoldLizarKing : %d, %d,%d', 00H		; `string'
; Function compile flags: /Ogtp
CONST	ENDS
;	COMDAT ?RegenDevilLizardKing@CEledoradoEvent@@QAEXXZ
_TEXT	SEGMENT
?RegenDevilLizardKing@CEledoradoEvent@@QAEXXZ PROC	; CEledoradoEvent::RegenDevilLizardKing, COMDAT
; _this$ = ecx

; 391  : 	int n=0;
; 392  : 	int MapNumber;
; 393  : 
; 394  : 	for (n=0;n<OBJ_MAXMONSTER;n++)

  00000	a1 00 00 00 00	 mov	 eax, DWORD PTR ?gObj@@3PAUOBJECTSTRUCT@@A ; gObj
  00005	53		 push	 ebx
  00006	56		 push	 esi
  00007	57		 push	 edi
  00008	8b f9		 mov	 edi, ecx
  0000a	33 f6		 xor	 esi, esi
  0000c	8d 64 24 00	 npad	 4
$LL10@RegenDevil:

; 395  : 	{
; 396  : 		MapNumber = 7;
; 397  : 
; 398  : 		if ( gObj[n].Class == 80 )

  00010	0f b7 8c 06 b8
	00 00 00	 movzx	 ecx, WORD PTR [esi+eax+184]
  00018	83 f9 50	 cmp	 ecx, 80			; 00000050H
  0001b	0f 85 51 01 00
	00		 jne	 $LN7@RegenDevil

; 399  : 		{
; 400  : 			gObj[n].Live = TRUE;

  00021	c6 44 06 6a 01	 mov	 BYTE PTR [esi+eax+106], 1

; 401  : 			gObj[n].MapNumber = MapNumber;

  00026	a1 00 00 00 00	 mov	 eax, DWORD PTR ?gObj@@3PAUOBJECTSTRUCT@@A ; gObj
  0002b	c6 84 06 49 01
	00 00 07	 mov	 BYTE PTR [esi+eax+329], 7
$LL6@RegenDevil:

; 402  : 
; 403  : 			while ( gMSetBase.GetBoxPosition(MapNumber, 50, 50, 200, 200, gObj[n].X, gObj[n].Y) == 0 )

  00033	a1 00 00 00 00	 mov	 eax, DWORD PTR ?gObj@@3PAUOBJECTSTRUCT@@A ; gObj
  00038	8d 8c 06 46 01
	00 00		 lea	 ecx, DWORD PTR [esi+eax+326]
  0003f	51		 push	 ecx
  00040	8d 94 06 44 01
	00 00		 lea	 edx, DWORD PTR [esi+eax+324]
  00047	52		 push	 edx
  00048	68 c8 00 00 00	 push	 200			; 000000c8H
  0004d	68 c8 00 00 00	 push	 200			; 000000c8H
  00052	6a 32		 push	 50			; 00000032H
  00054	6a 32		 push	 50			; 00000032H
  00056	6a 07		 push	 7
  00058	b9 00 00 00 00	 mov	 ecx, OFFSET ?gMSetBase@@3VCMonsterSetBase@@A ; gMSetBase
  0005d	e8 00 00 00 00	 call	 ?GetBoxPosition@CMonsterSetBase@@QAEHHHHHHAAF0@Z ; CMonsterSetBase::GetBoxPosition
  00062	85 c0		 test	 eax, eax
  00064	74 cd		 je	 SHORT $LL6@RegenDevil

; 404  : 			{
; 405  : 
; 406  : 			}
; 407  : 
; 408  : 			this->m_BossDevilLizardKingMapNumber = gObj[n].MapNumber;

  00066	a1 00 00 00 00	 mov	 eax, DWORD PTR ?gObj@@3PAUOBJECTSTRUCT@@A ; gObj
  0006b	0f b6 8c 06 49
	01 00 00	 movzx	 ecx, BYTE PTR [esi+eax+329]
  00073	89 4f 50	 mov	 DWORD PTR [edi+80], ecx

; 409  : 			this->m_BossDevilLizardKingMapX = gObj[n].X;

  00076	8b 15 00 00 00
	00		 mov	 edx, DWORD PTR ?gObj@@3PAUOBJECTSTRUCT@@A ; gObj
  0007c	0f bf 84 16 44
	01 00 00	 movsx	 eax, WORD PTR [esi+edx+324]
  00084	89 47 54	 mov	 DWORD PTR [edi+84], eax

; 410  : 			this->m_BossDevilLizardKingMapY = gObj[n].Y;

  00087	8b 0d 00 00 00
	00		 mov	 ecx, DWORD PTR ?gObj@@3PAUOBJECTSTRUCT@@A ; gObj
  0008d	0f bf 94 0e 46
	01 00 00	 movsx	 edx, WORD PTR [esi+ecx+326]
  00095	89 57 58	 mov	 DWORD PTR [edi+88], edx

; 411  : 
; 412  : 			gObj[n].Life = gObj[n].MaxLife;

  00098	a1 00 00 00 00	 mov	 eax, DWORD PTR ?gObj@@3PAUOBJECTSTRUCT@@A ; gObj
  0009d	d9 84 06 00 01
	00 00		 fld	 DWORD PTR [esi+eax+256]
  000a4	d9 9c 06 fc 00
	00 00		 fstp	 DWORD PTR [esi+eax+252]

; 413  : 			gObj[n].TX = gObj[n].X;

  000ab	a1 00 00 00 00	 mov	 eax, DWORD PTR ?gObj@@3PAUOBJECTSTRUCT@@A ; gObj
  000b0	0f b7 8c 06 44
	01 00 00	 movzx	 ecx, WORD PTR [esi+eax+324]
  000b8	66 89 8c 06 7c
	01 00 00	 mov	 WORD PTR [esi+eax+380], cx

; 414  : 			gObj[n].TY = gObj[n].Y;

  000c0	a1 00 00 00 00	 mov	 eax, DWORD PTR ?gObj@@3PAUOBJECTSTRUCT@@A ; gObj
  000c5	0f b7 94 06 46
	01 00 00	 movzx	 edx, WORD PTR [esi+eax+326]
  000cd	66 89 94 06 7e
	01 00 00	 mov	 WORD PTR [esi+eax+382], dx

; 415  : 			gObj[n].MTX = gObj[n].X;

  000d5	a1 00 00 00 00	 mov	 eax, DWORD PTR ?gObj@@3PAUOBJECTSTRUCT@@A ; gObj
  000da	0f b7 8c 06 44
	01 00 00	 movzx	 ecx, WORD PTR [esi+eax+324]
  000e2	66 89 8c 06 80
	01 00 00	 mov	 WORD PTR [esi+eax+384], cx

; 416  : 			gObj[n].MTY = gObj[n].Y;

  000ea	a1 00 00 00 00	 mov	 eax, DWORD PTR ?gObj@@3PAUOBJECTSTRUCT@@A ; gObj
  000ef	0f b7 94 06 46
	01 00 00	 movzx	 edx, WORD PTR [esi+eax+326]
  000f7	66 89 94 06 82
	01 00 00	 mov	 WORD PTR [esi+eax+386], dx

; 417  : 			gObj[n].StartX = gObj[n].X;

  000ff	a1 00 00 00 00	 mov	 eax, DWORD PTR ?gObj@@3PAUOBJECTSTRUCT@@A ; gObj
  00104	8a 8c 06 44 01
	00 00		 mov	 cl, BYTE PTR [esi+eax+324]
  0010b	88 8c 06 76 01
	00 00		 mov	 BYTE PTR [esi+eax+374], cl

; 418  : 			gObj[n].StartY = gObj[n].Y;

  00112	a1 00 00 00 00	 mov	 eax, DWORD PTR ?gObj@@3PAUOBJECTSTRUCT@@A ; gObj
  00117	8a 94 06 46 01
	00 00		 mov	 dl, BYTE PTR [esi+eax+326]
  0011e	88 94 06 77 01
	00 00		 mov	 BYTE PTR [esi+eax+375], dl

; 419  : 			gObj[n].m_State = 1;

  00125	a1 00 00 00 00	 mov	 eax, DWORD PTR ?gObj@@3PAUOBJECTSTRUCT@@A ; gObj
  0012a	c7 84 06 20 02
	00 00 01 00 00
	00		 mov	 DWORD PTR [esi+eax+544], 1

; 420  : 			gObj[n].PathCount = 0;

  00135	8b 0d 00 00 00
	00		 mov	 ecx, DWORD PTR ?gObj@@3PAUOBJECTSTRUCT@@A ; gObj
  0013b	c7 84 0e 84 01
	00 00 00 00 00
	00		 mov	 DWORD PTR [esi+ecx+388], 0

; 421  : 
; 422  : 			LogAddTD("Make GoldLizarKing : %d, %d,%d", MapNumber, gObj[n].X, gObj[n].Y);

  00146	a1 00 00 00 00	 mov	 eax, DWORD PTR ?gObj@@3PAUOBJECTSTRUCT@@A ; gObj
  0014b	0f bf 94 06 46
	01 00 00	 movsx	 edx, WORD PTR [esi+eax+326]
  00153	0f bf 84 06 44
	01 00 00	 movsx	 eax, WORD PTR [esi+eax+324]
  0015b	52		 push	 edx
  0015c	50		 push	 eax
  0015d	6a 07		 push	 7
  0015f	68 00 00 00 00	 push	 OFFSET ??_C@_0BP@HMGNFLDB@Make?5GoldLizarKing?5?3?5?$CFd?0?5?$CFd?0?$CFd?$AA@
  00164	ff 15 00 00 00
	00		 call	 DWORD PTR ?LogAddTD@@3P6AXPADZZA ; LogAddTD
  0016a	83 c4 10	 add	 esp, 16			; 00000010H
  0016d	e9 fe 00 00 00	 jmp	 $LN17@RegenDevil
$LN7@RegenDevil:

; 423  : 		}
; 424  : 		else if ( gObj[n].Class == 81 )

  00172	83 f9 51	 cmp	 ecx, 81			; 00000051H
  00175	0f 85 fa 00 00
	00		 jne	 $LN9@RegenDevil

; 425  : 		{
; 426  : 			gObj[n].Live = TRUE;

  0017b	c6 44 06 6a 01	 mov	 BYTE PTR [esi+eax+106], 1

; 427  : 			MapNumber = this->m_BossDevilLizardKingMapNumber;

  00180	8b 5f 50	 mov	 ebx, DWORD PTR [edi+80]

; 428  : 			gObj[n].MapNumber = MapNumber;

  00183	8b 0d 00 00 00
	00		 mov	 ecx, DWORD PTR ?gObj@@3PAUOBJECTSTRUCT@@A ; gObj
  00189	88 9c 0e 49 01
	00 00		 mov	 BYTE PTR [esi+ecx+329], bl
$LL2@RegenDevil:

; 429  : 
; 430  : 			while ( gMSetBase.GetBoxPosition(MapNumber, 15, 50, 250, 200, gObj[n].X, gObj[n].Y) == 0 )//NEW changed

  00190	a1 00 00 00 00	 mov	 eax, DWORD PTR ?gObj@@3PAUOBJECTSTRUCT@@A ; gObj
  00195	8d 94 06 46 01
	00 00		 lea	 edx, DWORD PTR [esi+eax+326]
  0019c	52		 push	 edx
  0019d	8d 84 06 44 01
	00 00		 lea	 eax, DWORD PTR [esi+eax+324]
  001a4	50		 push	 eax
  001a5	68 c8 00 00 00	 push	 200			; 000000c8H
  001aa	68 fa 00 00 00	 push	 250			; 000000faH
  001af	6a 32		 push	 50			; 00000032H
  001b1	6a 0f		 push	 15			; 0000000fH
  001b3	53		 push	 ebx
  001b4	b9 00 00 00 00	 mov	 ecx, OFFSET ?gMSetBase@@3VCMonsterSetBase@@A ; gMSetBase
  001b9	e8 00 00 00 00	 call	 ?GetBoxPosition@CMonsterSetBase@@QAEHHHHHHAAF0@Z ; CMonsterSetBase::GetBoxPosition
  001be	85 c0		 test	 eax, eax
  001c0	74 ce		 je	 SHORT $LL2@RegenDevil

; 431  : 			{
; 432  : 
; 433  : 			}
; 434  : 
; 435  : 			gObj[n].Life = gObj[n].MaxLife;

  001c2	a1 00 00 00 00	 mov	 eax, DWORD PTR ?gObj@@3PAUOBJECTSTRUCT@@A ; gObj
  001c7	d9 84 06 00 01
	00 00		 fld	 DWORD PTR [esi+eax+256]
  001ce	d9 9c 06 fc 00
	00 00		 fstp	 DWORD PTR [esi+eax+252]

; 436  : 			gObj[n].TX = gObj[n].X;

  001d5	a1 00 00 00 00	 mov	 eax, DWORD PTR ?gObj@@3PAUOBJECTSTRUCT@@A ; gObj
  001da	0f b7 8c 06 44
	01 00 00	 movzx	 ecx, WORD PTR [esi+eax+324]
  001e2	66 89 8c 06 7c
	01 00 00	 mov	 WORD PTR [esi+eax+380], cx

; 437  : 			gObj[n].TY = gObj[n].Y;

  001ea	a1 00 00 00 00	 mov	 eax, DWORD PTR ?gObj@@3PAUOBJECTSTRUCT@@A ; gObj
  001ef	0f b7 94 06 46
	01 00 00	 movzx	 edx, WORD PTR [esi+eax+326]
  001f7	66 89 94 06 7e
	01 00 00	 mov	 WORD PTR [esi+eax+382], dx

; 438  : 			gObj[n].MTX = gObj[n].X;

  001ff	a1 00 00 00 00	 mov	 eax, DWORD PTR ?gObj@@3PAUOBJECTSTRUCT@@A ; gObj
  00204	0f b7 8c 06 44
	01 00 00	 movzx	 ecx, WORD PTR [esi+eax+324]
  0020c	66 89 8c 06 80
	01 00 00	 mov	 WORD PTR [esi+eax+384], cx

; 439  : 			gObj[n].MTY = gObj[n].Y;

  00214	a1 00 00 00 00	 mov	 eax, DWORD PTR ?gObj@@3PAUOBJECTSTRUCT@@A ; gObj
  00219	0f b7 94 06 46
	01 00 00	 movzx	 edx, WORD PTR [esi+eax+326]
  00221	66 89 94 06 82
	01 00 00	 mov	 WORD PTR [esi+eax+386], dx

; 440  : 			gObj[n].StartX = gObj[n].X;

  00229	a1 00 00 00 00	 mov	 eax, DWORD PTR ?gObj@@3PAUOBJECTSTRUCT@@A ; gObj
  0022e	8a 8c 06 44 01
	00 00		 mov	 cl, BYTE PTR [esi+eax+324]
  00235	88 8c 06 76 01
	00 00		 mov	 BYTE PTR [esi+eax+374], cl

; 441  : 			gObj[n].StartY = gObj[n].Y;

  0023c	a1 00 00 00 00	 mov	 eax, DWORD PTR ?gObj@@3PAUOBJECTSTRUCT@@A ; gObj
  00241	8a 94 06 46 01
	00 00		 mov	 dl, BYTE PTR [esi+eax+326]
  00248	88 94 06 77 01
	00 00		 mov	 BYTE PTR [esi+eax+375], dl

; 442  : 			gObj[n].m_State = 1;

  0024f	a1 00 00 00 00	 mov	 eax, DWORD PTR ?gObj@@3PAUOBJECTSTRUCT@@A ; gObj
  00254	c7 84 06 20 02
	00 00 01 00 00
	00		 mov	 DWORD PTR [esi+eax+544], 1

; 443  : 			gObj[n].PathCount = 0;

  0025f	8b 0d 00 00 00
	00		 mov	 ecx, DWORD PTR ?gObj@@3PAUOBJECTSTRUCT@@A ; gObj
  00265	c7 84 0e 84 01
	00 00 00 00 00
	00		 mov	 DWORD PTR [esi+ecx+388], 0
$LN17@RegenDevil:
  00270	a1 00 00 00 00	 mov	 eax, DWORD PTR ?gObj@@3PAUOBJECTSTRUCT@@A ; gObj
$LN9@RegenDevil:

; 391  : 	int n=0;
; 392  : 	int MapNumber;
; 393  : 
; 394  : 	for (n=0;n<OBJ_MAXMONSTER;n++)

  00275	81 c6 50 2b 00
	00		 add	 esi, 11088		; 00002b50H
  0027b	81 fe 80 76 97
	08		 cmp	 esi, 144144000		; 08977680H
  00281	0f 8c 89 fd ff
	ff		 jl	 $LL10@RegenDevil

; 444  : 		}
; 445  : 	}
; 446  : }

  00287	5f		 pop	 edi
  00288	5e		 pop	 esi
  00289	5b		 pop	 ebx
  0028a	c3		 ret	 0
?RegenDevilLizardKing@CEledoradoEvent@@QAEXXZ ENDP	; CEledoradoEvent::RegenDevilLizardKing
_TEXT	ENDS
PUBLIC	??_C@_0BO@HFHPKCLG@Make?5GoldTantarus?5?3?5?$CFd?0?5?$CFd?0?$CFd?$AA@ ; `string'
PUBLIC	?RegenKantur@CEledoradoEvent@@QAEXXZ		; CEledoradoEvent::RegenKantur
EXTRN	?gObjClearStandardBuffEffect@@YAEPAUOBJECTSTRUCT@@H@Z:PROC ; gObjClearStandardBuffEffect
;	COMDAT ??_C@_0BO@HFHPKCLG@Make?5GoldTantarus?5?3?5?$CFd?0?5?$CFd?0?$CFd?$AA@
CONST	SEGMENT
??_C@_0BO@HFHPKCLG@Make?5GoldTantarus?5?3?5?$CFd?0?5?$CFd?0?$CFd?$AA@ DB 'M'
	DB	'ake GoldTantarus : %d, %d,%d', 00H		; `string'
; Function compile flags: /Ogtp
CONST	ENDS
;	COMDAT ?RegenKantur@CEledoradoEvent@@QAEXXZ
_TEXT	SEGMENT
?RegenKantur@CEledoradoEvent@@QAEXXZ PROC		; CEledoradoEvent::RegenKantur, COMDAT
; _this$ = ecx

; 450  : 	int n=0;
; 451  : 	int MapNumber;
; 452  : 
; 453  : 	for (n=0;n<OBJ_MAXMONSTER;n++)

  00000	a1 00 00 00 00	 mov	 eax, DWORD PTR ?gObj@@3PAUOBJECTSTRUCT@@A ; gObj
  00005	53		 push	 ebx
  00006	56		 push	 esi
  00007	33 f6		 xor	 esi, esi
  00009	57		 push	 edi
  0000a	8b f9		 mov	 edi, ecx
  0000c	8d 5e 01	 lea	 ebx, DWORD PTR [esi+1]
  0000f	90		 npad	 1
$LL8@RegenKantu:

; 454  : 	{
; 455  : 		if ( gObj[n].Class == 82 )

  00010	0f b7 8c 06 b8
	00 00 00	 movzx	 ecx, WORD PTR [esi+eax+184]
  00018	83 f9 52	 cmp	 ecx, 82			; 00000052H
  0001b	0f 85 77 01 00
	00		 jne	 $LN5@RegenKantu

; 456  : 		{
; 457  : 			gObj[n].Live = TRUE;

  00021	88 5c 06 6a	 mov	 BYTE PTR [esi+eax+106], bl

; 458  : 			MapNumber = 8;
; 459  : 			gObj[n].MapNumber = MapNumber;

  00025	a1 00 00 00 00	 mov	 eax, DWORD PTR ?gObj@@3PAUOBJECTSTRUCT@@A ; gObj
  0002a	c6 84 06 49 01
	00 00 08	 mov	 BYTE PTR [esi+eax+329], 8
$LL4@RegenKantu:

; 460  : 
; 461  : 			while ( gMSetBase.GetBoxPosition(MapNumber, 50, 50, 200, 200, gObj[n].X, gObj[n].Y) == 0 )

  00032	a1 00 00 00 00	 mov	 eax, DWORD PTR ?gObj@@3PAUOBJECTSTRUCT@@A ; gObj
  00037	8d 8c 06 46 01
	00 00		 lea	 ecx, DWORD PTR [esi+eax+326]
  0003e	51		 push	 ecx
  0003f	8d 94 06 44 01
	00 00		 lea	 edx, DWORD PTR [esi+eax+324]
  00046	52		 push	 edx
  00047	68 c8 00 00 00	 push	 200			; 000000c8H
  0004c	68 c8 00 00 00	 push	 200			; 000000c8H
  00051	6a 32		 push	 50			; 00000032H
  00053	6a 32		 push	 50			; 00000032H
  00055	6a 08		 push	 8
  00057	b9 00 00 00 00	 mov	 ecx, OFFSET ?gMSetBase@@3VCMonsterSetBase@@A ; gMSetBase
  0005c	e8 00 00 00 00	 call	 ?GetBoxPosition@CMonsterSetBase@@QAEHHHHHHAAF0@Z ; CMonsterSetBase::GetBoxPosition
  00061	85 c0		 test	 eax, eax
  00063	74 cd		 je	 SHORT $LL4@RegenKantu

; 462  : 			{
; 463  : 
; 464  : 			}
; 465  : 
; 466  : 			this->m_BossKanturMapNumber = gObj[n].MapNumber;

  00065	a1 00 00 00 00	 mov	 eax, DWORD PTR ?gObj@@3PAUOBJECTSTRUCT@@A ; gObj
  0006a	0f b6 8c 06 49
	01 00 00	 movzx	 ecx, BYTE PTR [esi+eax+329]
  00072	89 4f 5c	 mov	 DWORD PTR [edi+92], ecx

; 467  : 			this->m_BossKanturMapX = gObj[n].X;

  00075	8b 15 00 00 00
	00		 mov	 edx, DWORD PTR ?gObj@@3PAUOBJECTSTRUCT@@A ; gObj
  0007b	0f bf 84 16 44
	01 00 00	 movsx	 eax, WORD PTR [esi+edx+324]
  00083	89 47 60	 mov	 DWORD PTR [edi+96], eax

; 468  : 			this->m_BossKanturMapY = gObj[n].Y;

  00086	8b 0d 00 00 00
	00		 mov	 ecx, DWORD PTR ?gObj@@3PAUOBJECTSTRUCT@@A ; gObj
  0008c	0f bf 94 0e 46
	01 00 00	 movsx	 edx, WORD PTR [esi+ecx+326]
  00094	89 57 64	 mov	 DWORD PTR [edi+100], edx

; 469  : 
; 470  : 			gObj[n].Life = gObj[n].MaxLife;

  00097	a1 00 00 00 00	 mov	 eax, DWORD PTR ?gObj@@3PAUOBJECTSTRUCT@@A ; gObj

; 471  : 			gObj[n].TX = gObj[n].X;
; 472  : 			gObj[n].TY = gObj[n].Y;
; 473  : 			gObj[n].MTX = gObj[n].X;
; 474  : 			gObj[n].MTY = gObj[n].Y;
; 475  : 			gObj[n].StartX = gObj[n].X;
; 476  : 			gObj[n].StartY = gObj[n].Y;
; 477  : 
; 478  : 			gObjClearStandardBuffEffect(&gObj[n], AT_MONSTER_GENERAL);

  0009c	53		 push	 ebx
  0009d	d9 84 06 00 01
	00 00		 fld	 DWORD PTR [esi+eax+256]
  000a4	d9 9c 06 fc 00
	00 00		 fstp	 DWORD PTR [esi+eax+252]
  000ab	a1 00 00 00 00	 mov	 eax, DWORD PTR ?gObj@@3PAUOBJECTSTRUCT@@A ; gObj
  000b0	0f b7 8c 06 44
	01 00 00	 movzx	 ecx, WORD PTR [esi+eax+324]
  000b8	66 89 8c 06 7c
	01 00 00	 mov	 WORD PTR [esi+eax+380], cx
  000c0	a1 00 00 00 00	 mov	 eax, DWORD PTR ?gObj@@3PAUOBJECTSTRUCT@@A ; gObj
  000c5	0f b7 94 06 46
	01 00 00	 movzx	 edx, WORD PTR [esi+eax+326]
  000cd	66 89 94 06 7e
	01 00 00	 mov	 WORD PTR [esi+eax+382], dx
  000d5	a1 00 00 00 00	 mov	 eax, DWORD PTR ?gObj@@3PAUOBJECTSTRUCT@@A ; gObj
  000da	0f b7 8c 06 44
	01 00 00	 movzx	 ecx, WORD PTR [esi+eax+324]
  000e2	66 89 8c 06 80
	01 00 00	 mov	 WORD PTR [esi+eax+384], cx
  000ea	a1 00 00 00 00	 mov	 eax, DWORD PTR ?gObj@@3PAUOBJECTSTRUCT@@A ; gObj
  000ef	0f b7 94 06 46
	01 00 00	 movzx	 edx, WORD PTR [esi+eax+326]
  000f7	66 89 94 06 82
	01 00 00	 mov	 WORD PTR [esi+eax+386], dx
  000ff	a1 00 00 00 00	 mov	 eax, DWORD PTR ?gObj@@3PAUOBJECTSTRUCT@@A ; gObj
  00104	8a 8c 06 44 01
	00 00		 mov	 cl, BYTE PTR [esi+eax+324]
  0010b	88 8c 06 76 01
	00 00		 mov	 BYTE PTR [esi+eax+374], cl
  00112	a1 00 00 00 00	 mov	 eax, DWORD PTR ?gObj@@3PAUOBJECTSTRUCT@@A ; gObj
  00117	8a 94 06 46 01
	00 00		 mov	 dl, BYTE PTR [esi+eax+326]
  0011e	88 94 06 77 01
	00 00		 mov	 BYTE PTR [esi+eax+375], dl
  00125	a1 00 00 00 00	 mov	 eax, DWORD PTR ?gObj@@3PAUOBJECTSTRUCT@@A ; gObj
  0012a	8d 0c 06	 lea	 ecx, DWORD PTR [esi+eax]
  0012d	51		 push	 ecx
  0012e	e8 00 00 00 00	 call	 ?gObjClearStandardBuffEffect@@YAEPAUOBJECTSTRUCT@@H@Z ; gObjClearStandardBuffEffect

; 479  : 
; 480  : 			gObj[n].m_ViewState = 0;

  00133	8b 15 00 00 00
	00		 mov	 edx, DWORD PTR ?gObj@@3PAUOBJECTSTRUCT@@A ; gObj
  00139	c6 84 16 26 02
	00 00 00	 mov	 BYTE PTR [esi+edx+550], 0

; 481  : 			gObj[n].Teleport = 0;

  00141	a1 00 00 00 00	 mov	 eax, DWORD PTR ?gObj@@3PAUOBJECTSTRUCT@@A ; gObj
  00146	c6 84 06 a0 03
	00 00 00	 mov	 BYTE PTR [esi+eax+928], 0

; 482  : 			gObj[n].m_State = 1;

  0014e	8b 0d 00 00 00
	00		 mov	 ecx, DWORD PTR ?gObj@@3PAUOBJECTSTRUCT@@A ; gObj
  00154	89 9c 0e 20 02
	00 00		 mov	 DWORD PTR [esi+ecx+544], ebx

; 483  : 			gObj[n].PathCount = 0;

  0015b	8b 15 00 00 00
	00		 mov	 edx, DWORD PTR ?gObj@@3PAUOBJECTSTRUCT@@A ; gObj
  00161	c7 84 16 84 01
	00 00 00 00 00
	00		 mov	 DWORD PTR [esi+edx+388], 0

; 484  : 
; 485  : 			LogAddTD("Make GoldTantarus : %d, %d,%d", MapNumber, gObj[n].X, gObj[n].Y);

  0016c	a1 00 00 00 00	 mov	 eax, DWORD PTR ?gObj@@3PAUOBJECTSTRUCT@@A ; gObj
  00171	0f bf 8c 06 46
	01 00 00	 movsx	 ecx, WORD PTR [esi+eax+326]
  00179	0f bf 94 06 44
	01 00 00	 movsx	 edx, WORD PTR [esi+eax+324]
  00181	51		 push	 ecx
  00182	52		 push	 edx
  00183	6a 08		 push	 8
  00185	68 00 00 00 00	 push	 OFFSET ??_C@_0BO@HFHPKCLG@Make?5GoldTantarus?5?3?5?$CFd?0?5?$CFd?0?$CFd?$AA@
  0018a	ff 15 00 00 00
	00		 call	 DWORD PTR ?LogAddTD@@3P6AXPADZZA ; LogAddTD
  00190	83 c4 18	 add	 esp, 24			; 00000018H
  00193	e9 09 01 00 00	 jmp	 $LN14@RegenKantu
$LN5@RegenKantu:

; 486  : 		}
; 487  : 		else if ( gObj[n].Class == 83 )

  00198	83 f9 53	 cmp	 ecx, 83			; 00000053H
  0019b	0f 85 05 01 00
	00		 jne	 $LN7@RegenKantu

; 488  : 		{
; 489  : 			gObj[n].Live = TRUE;

  001a1	88 5c 06 6a	 mov	 BYTE PTR [esi+eax+106], bl

; 490  : 			MapNumber = this->m_BossKanturMapNumber;

  001a5	8b 47 5c	 mov	 eax, DWORD PTR [edi+92]

; 491  : 			gObj[n].MapNumber = MapNumber;

  001a8	8b 0d 00 00 00
	00		 mov	 ecx, DWORD PTR ?gObj@@3PAUOBJECTSTRUCT@@A ; gObj
  001ae	88 84 0e 49 01
	00 00		 mov	 BYTE PTR [esi+ecx+329], al

; 492  : 
; 493  : 			gMSetBase.GetBoxPosition(MapNumber, this->m_BossKanturMapX-10, this->m_BossKanturMapY-10, this->m_BossKanturMapX+10, this->m_BossKanturMapY+10, gObj[n].X, gObj[n].Y);

  001b5	8b 1d 00 00 00
	00		 mov	 ebx, DWORD PTR ?gObj@@3PAUOBJECTSTRUCT@@A ; gObj
  001bb	8b 4f 64	 mov	 ecx, DWORD PTR [edi+100]
  001be	8b 57 60	 mov	 edx, DWORD PTR [edi+96]
  001c1	8d 9c 1e 46 01
	00 00		 lea	 ebx, DWORD PTR [esi+ebx+326]
  001c8	53		 push	 ebx
  001c9	8b 1d 00 00 00
	00		 mov	 ebx, DWORD PTR ?gObj@@3PAUOBJECTSTRUCT@@A ; gObj
  001cf	8d 9c 1e 44 01
	00 00		 lea	 ebx, DWORD PTR [esi+ebx+324]
  001d6	53		 push	 ebx
  001d7	8d 59 0a	 lea	 ebx, DWORD PTR [ecx+10]
  001da	53		 push	 ebx
  001db	8d 5a 0a	 lea	 ebx, DWORD PTR [edx+10]
  001de	53		 push	 ebx
  001df	83 c1 f6	 add	 ecx, -10		; fffffff6H
  001e2	51		 push	 ecx
  001e3	83 c2 f6	 add	 edx, -10		; fffffff6H
  001e6	52		 push	 edx
  001e7	50		 push	 eax
  001e8	b9 00 00 00 00	 mov	 ecx, OFFSET ?gMSetBase@@3VCMonsterSetBase@@A ; gMSetBase
  001ed	e8 00 00 00 00	 call	 ?GetBoxPosition@CMonsterSetBase@@QAEHHHHHHAAF0@Z ; CMonsterSetBase::GetBoxPosition

; 494  : 
; 495  : 			gObj[n].Life = gObj[n].MaxLife;

  001f2	a1 00 00 00 00	 mov	 eax, DWORD PTR ?gObj@@3PAUOBJECTSTRUCT@@A ; gObj
  001f7	d9 84 06 00 01
	00 00		 fld	 DWORD PTR [esi+eax+256]

; 496  : 			gObj[n].TX = gObj[n].X;
; 497  : 			gObj[n].TY = gObj[n].Y;
; 498  : 			gObj[n].MTX = gObj[n].X;
; 499  : 			gObj[n].MTY = gObj[n].Y;
; 500  : 			gObj[n].StartX = gObj[n].X;
; 501  : 			gObj[n].StartY = gObj[n].Y;
; 502  : 			gObj[n].m_State = 1;

  001fe	bb 01 00 00 00	 mov	 ebx, 1
  00203	d9 9c 06 fc 00
	00 00		 fstp	 DWORD PTR [esi+eax+252]
  0020a	a1 00 00 00 00	 mov	 eax, DWORD PTR ?gObj@@3PAUOBJECTSTRUCT@@A ; gObj
  0020f	0f b7 94 06 44
	01 00 00	 movzx	 edx, WORD PTR [esi+eax+324]
  00217	66 89 94 06 7c
	01 00 00	 mov	 WORD PTR [esi+eax+380], dx
  0021f	a1 00 00 00 00	 mov	 eax, DWORD PTR ?gObj@@3PAUOBJECTSTRUCT@@A ; gObj
  00224	0f b7 8c 06 46
	01 00 00	 movzx	 ecx, WORD PTR [esi+eax+326]
  0022c	66 89 8c 06 7e
	01 00 00	 mov	 WORD PTR [esi+eax+382], cx
  00234	a1 00 00 00 00	 mov	 eax, DWORD PTR ?gObj@@3PAUOBJECTSTRUCT@@A ; gObj
  00239	0f b7 94 06 44
	01 00 00	 movzx	 edx, WORD PTR [esi+eax+324]
  00241	66 89 94 06 80
	01 00 00	 mov	 WORD PTR [esi+eax+384], dx
  00249	a1 00 00 00 00	 mov	 eax, DWORD PTR ?gObj@@3PAUOBJECTSTRUCT@@A ; gObj
  0024e	0f b7 8c 06 46
	01 00 00	 movzx	 ecx, WORD PTR [esi+eax+326]
  00256	66 89 8c 06 82
	01 00 00	 mov	 WORD PTR [esi+eax+386], cx
  0025e	a1 00 00 00 00	 mov	 eax, DWORD PTR ?gObj@@3PAUOBJECTSTRUCT@@A ; gObj
  00263	8a 94 06 44 01
	00 00		 mov	 dl, BYTE PTR [esi+eax+324]
  0026a	88 94 06 76 01
	00 00		 mov	 BYTE PTR [esi+eax+374], dl
  00271	a1 00 00 00 00	 mov	 eax, DWORD PTR ?gObj@@3PAUOBJECTSTRUCT@@A ; gObj
  00276	8a 8c 06 46 01
	00 00		 mov	 cl, BYTE PTR [esi+eax+326]
  0027d	88 8c 06 77 01
	00 00		 mov	 BYTE PTR [esi+eax+375], cl
  00284	8b 15 00 00 00
	00		 mov	 edx, DWORD PTR ?gObj@@3PAUOBJECTSTRUCT@@A ; gObj
  0028a	89 9c 16 20 02
	00 00		 mov	 DWORD PTR [esi+edx+544], ebx

; 503  : 			gObj[n].PathCount = 0;

  00291	a1 00 00 00 00	 mov	 eax, DWORD PTR ?gObj@@3PAUOBJECTSTRUCT@@A ; gObj
  00296	c7 84 06 84 01
	00 00 00 00 00
	00		 mov	 DWORD PTR [esi+eax+388], 0
$LN14@RegenKantu:
  002a1	a1 00 00 00 00	 mov	 eax, DWORD PTR ?gObj@@3PAUOBJECTSTRUCT@@A ; gObj
$LN7@RegenKantu:

; 450  : 	int n=0;
; 451  : 	int MapNumber;
; 452  : 
; 453  : 	for (n=0;n<OBJ_MAXMONSTER;n++)

  002a6	81 c6 50 2b 00
	00		 add	 esi, 11088		; 00002b50H
  002ac	81 fe 80 76 97
	08		 cmp	 esi, 144144000		; 08977680H
  002b2	0f 8c 58 fd ff
	ff		 jl	 $LL8@RegenKantu

; 504  : 		}
; 505  : 	}
; 506  : }

  002b8	5f		 pop	 edi
  002b9	5e		 pop	 esi
  002ba	5b		 pop	 ebx
  002bb	c3		 ret	 0
?RegenKantur@CEledoradoEvent@@QAEXXZ ENDP		; CEledoradoEvent::RegenKantur
_TEXT	ENDS
PUBLIC	?CheckGoldDercon@CEledoradoEvent@@QAEXH@Z	; CEledoradoEvent::CheckGoldDercon
EXTRN	?GCMapEventStateSend@@YAXHEE@Z:PROC		; GCMapEventStateSend
; Function compile flags: /Ogtp
;	COMDAT ?CheckGoldDercon@CEledoradoEvent@@QAEXH@Z
_TEXT	SEGMENT
_MapNumber$ = 8						; size = 4
?CheckGoldDercon@CEledoradoEvent@@QAEXH@Z PROC		; CEledoradoEvent::CheckGoldDercon, COMDAT
; _this$ = ecx

; 509  : {

  00000	55		 push	 ebp
  00001	8b ec		 mov	 ebp, esp

; 510  : 	if ( this->EventState == 0 )

  00003	83 79 04 00	 cmp	 DWORD PTR [ecx+4], 0
  00007	74 7c		 je	 SHORT $LN1@CheckGoldD

; 511  : 		return;
; 512  : 
; 513  : 	BOOL EventOn = FALSE;
; 514  : 	int EventClearMapNumber = -1;
; 515  : 
; 516  : 	for ( int i=0;i<3;i++)
; 517  : 	{
; 518  : 		if ( this->m_BossGoldDerconMapNumber[i] != -1 )

  00009	8b 41 6c	 mov	 eax, DWORD PTR [ecx+108]
  0000c	56		 push	 esi
  0000d	83 ca ff	 or	 edx, -1
  00010	33 f6		 xor	 esi, esi
  00012	57		 push	 edi
  00013	8b 7d 08	 mov	 edi, DWORD PTR _MapNumber$[ebp]
  00016	3b c2		 cmp	 eax, edx
  00018	74 0b		 je	 SHORT $LN8@CheckGoldD

; 519  : 		{
; 520  : 			if ( this->m_BossGoldDerconMapNumber[i] == MapNumber )

  0001a	3b c7		 cmp	 eax, edi
  0001c	75 05		 jne	 SHORT $LN5@CheckGoldD

; 521  : 			{
; 522  : 				EventOn = TRUE;

  0001e	8d 72 02	 lea	 esi, DWORD PTR [edx+2]

; 523  : 			}
; 524  : 			else

  00021	eb 02		 jmp	 SHORT $LN8@CheckGoldD
$LN5@CheckGoldD:

; 525  : 			{
; 526  : 				EventClearMapNumber = this->m_BossGoldDerconMapNumber[i];

  00023	8b d0		 mov	 edx, eax
$LN8@CheckGoldD:

; 511  : 		return;
; 512  : 
; 513  : 	BOOL EventOn = FALSE;
; 514  : 	int EventClearMapNumber = -1;
; 515  : 
; 516  : 	for ( int i=0;i<3;i++)
; 517  : 	{
; 518  : 		if ( this->m_BossGoldDerconMapNumber[i] != -1 )

  00025	8b 41 70	 mov	 eax, DWORD PTR [ecx+112]
  00028	83 f8 ff	 cmp	 eax, -1
  0002b	74 0d		 je	 SHORT $LN21@CheckGoldD

; 519  : 		{
; 520  : 			if ( this->m_BossGoldDerconMapNumber[i] == MapNumber )

  0002d	3b c7		 cmp	 eax, edi
  0002f	75 07		 jne	 SHORT $LN20@CheckGoldD

; 521  : 			{
; 522  : 				EventOn = TRUE;

  00031	be 01 00 00 00	 mov	 esi, 1

; 523  : 			}
; 524  : 			else

  00036	eb 02		 jmp	 SHORT $LN21@CheckGoldD
$LN20@CheckGoldD:

; 525  : 			{
; 526  : 				EventClearMapNumber = this->m_BossGoldDerconMapNumber[i];

  00038	8b d0		 mov	 edx, eax
$LN21@CheckGoldD:

; 511  : 		return;
; 512  : 
; 513  : 	BOOL EventOn = FALSE;
; 514  : 	int EventClearMapNumber = -1;
; 515  : 
; 516  : 	for ( int i=0;i<3;i++)
; 517  : 	{
; 518  : 		if ( this->m_BossGoldDerconMapNumber[i] != -1 )

  0003a	8b 49 74	 mov	 ecx, DWORD PTR [ecx+116]
  0003d	83 f9 ff	 cmp	 ecx, -1
  00040	74 0d		 je	 SHORT $LN24@CheckGoldD

; 519  : 		{
; 520  : 			if ( this->m_BossGoldDerconMapNumber[i] == MapNumber )

  00042	3b cf		 cmp	 ecx, edi
  00044	75 07		 jne	 SHORT $LN23@CheckGoldD

; 521  : 			{
; 522  : 				EventOn = TRUE;

  00046	be 01 00 00 00	 mov	 esi, 1

; 523  : 			}
; 524  : 			else

  0004b	eb 02		 jmp	 SHORT $LN24@CheckGoldD
$LN23@CheckGoldD:

; 525  : 			{
; 526  : 				EventClearMapNumber = this->m_BossGoldDerconMapNumber[i];

  0004d	8b d1		 mov	 edx, ecx
$LN24@CheckGoldD:

; 527  : 			}
; 528  : 		}
; 529  : 	}
; 530  : 
; 531  : 	if ( EventClearMapNumber != -1 )

  0004f	83 fa ff	 cmp	 edx, -1
  00052	74 0d		 je	 SHORT $LN3@CheckGoldD

; 532  : 	{
; 533  : 		GCMapEventStateSend(EventClearMapNumber, 0, 3);

  00054	6a 03		 push	 3
  00056	6a 00		 push	 0
  00058	52		 push	 edx
  00059	e8 00 00 00 00	 call	 ?GCMapEventStateSend@@YAXHEE@Z ; GCMapEventStateSend
  0005e	83 c4 0c	 add	 esp, 12			; 0000000cH
$LN3@CheckGoldD:

; 534  : 	}
; 535  : 
; 536  : 	if ( EventOn != FALSE )
; 537  : 	{
; 538  : 		GCMapEventStateSend(MapNumber, 1, 3);

  00061	6a 03		 push	 3
  00063	85 f6		 test	 esi, esi
  00065	74 11		 je	 SHORT $LN2@CheckGoldD
  00067	6a 01		 push	 1

; 539  : 	}
; 540  : 	else
; 541  : 	{
; 542  : 		GCMapEventStateSend(MapNumber, 0, 3);

  00069	57		 push	 edi
  0006a	e8 00 00 00 00	 call	 ?GCMapEventStateSend@@YAXHEE@Z ; GCMapEventStateSend
  0006f	83 c4 0c	 add	 esp, 12			; 0000000cH
  00072	5f		 pop	 edi
  00073	5e		 pop	 esi

; 543  : 	}
; 544  : }

  00074	5d		 pop	 ebp
  00075	c2 04 00	 ret	 4
$LN2@CheckGoldD:

; 539  : 	}
; 540  : 	else
; 541  : 	{
; 542  : 		GCMapEventStateSend(MapNumber, 0, 3);

  00078	6a 00		 push	 0
  0007a	57		 push	 edi
  0007b	e8 00 00 00 00	 call	 ?GCMapEventStateSend@@YAXHEE@Z ; GCMapEventStateSend
  00080	83 c4 0c	 add	 esp, 12			; 0000000cH
  00083	5f		 pop	 edi
  00084	5e		 pop	 esi
$LN1@CheckGoldD:

; 543  : 	}
; 544  : }

  00085	5d		 pop	 ebp
  00086	c2 04 00	 ret	 4
?CheckGoldDercon@CEledoradoEvent@@QAEXH@Z ENDP		; CEledoradoEvent::CheckGoldDercon
_TEXT	ENDS
PUBLIC	?End_Menual@CEledoradoEvent@@QAEXXZ		; CEledoradoEvent::End_Menual
; Function compile flags: /Ogtp
;	COMDAT ?End_Menual@CEledoradoEvent@@QAEXXZ
_TEXT	SEGMENT
?End_Menual@CEledoradoEvent@@QAEXXZ PROC		; CEledoradoEvent::End_Menual, COMDAT
; _this$ = ecx

; 603  : 	this->SetMenualStart(FALSE);

  00000	c7 41 68 00 00
	00 00		 mov	 DWORD PTR [ecx+104], 0

; 604  : }

  00007	c3		 ret	 0
?End_Menual@CEledoradoEvent@@QAEXXZ ENDP		; CEledoradoEvent::End_Menual
_TEXT	ENDS
PUBLIC	?RegenGoldenRabbit@CEledoradoEvent@@QAEXXZ	; CEledoradoEvent::RegenGoldenRabbit
; Function compile flags: /Ogtp
;	COMDAT ?RegenGoldenRabbit@CEledoradoEvent@@QAEXXZ
_TEXT	SEGMENT
?RegenGoldenRabbit@CEledoradoEvent@@QAEXXZ PROC		; CEledoradoEvent::RegenGoldenRabbit, COMDAT
; _this$ = ecx

; 609  : 	int n=0;
; 610  : 	int MapNumber;
; 611  : 
; 612  : 	//for (n=0;n<OBJ_MAXMONSTER;n++)
; 613  : 	//{
; 614  : 	//	if ( gObj[n].Class == 492 )	//502	1	"Golden Strange Rabbit"
; 615  : 	//	{
; 616  : 	//		gObj[n].Live = TRUE;
; 617  : 	//		MapNumber = MAP_INDEX_ELBELAND;
; 618  : 	//		gObj[n].MapNumber = MapNumber;
; 619  : 
; 620  : 	//		while ( gMSetBase.GetBoxPosition(MapNumber, 1, 1, 255, 255, gObj[n].X, gObj[n].Y) == 0 )
; 621  : 	//		{
; 622  : 
; 623  : 	//		}
; 624  : 
; 625  : 	//		gObj[n].Life = gObj[n].MaxLife;
; 626  : 	//		gObj[n].TX = gObj[n].X;
; 627  : 	//		gObj[n].TY = gObj[n].Y;
; 628  : 	//		gObj[n].MTX = gObj[n].X;
; 629  : 	//		gObj[n].MTY = gObj[n].Y;
; 630  : 	//		gObj[n].StartX = gObj[n].X;
; 631  : 	//		gObj[n].StartY = gObj[n].Y;
; 632  : 
; 633  : 
; 634  : 	//		gObj[n].m_State = 1;
; 635  : 	//		gObj[n].PathCount = 0;
; 636  : 
; 637  : 	//		LogAddTD("Make Golden rabbit : %d, %d,%d",
; 638  : 	//			MapNumber, gObj[n].X, gObj[n].Y);
; 639  : 	//	}
; 640  : 	//}
; 641  : }

  00000	c3		 ret	 0
?RegenGoldenRabbit@CEledoradoEvent@@QAEXXZ ENDP		; CEledoradoEvent::RegenGoldenRabbit
_TEXT	ENDS
PUBLIC	??_C@_0CD@LGNFBEEH@Make?5Golden?5DarkKnight?5?3?5?$CFd?0?5?$CFd?0@ ; `string'
PUBLIC	?RegenGoldenDarkKnight@CEledoradoEvent@@QAEXXZ	; CEledoradoEvent::RegenGoldenDarkKnight
;	COMDAT ??_C@_0CD@LGNFBEEH@Make?5Golden?5DarkKnight?5?3?5?$CFd?0?5?$CFd?0@
CONST	SEGMENT
??_C@_0CD@LGNFBEEH@Make?5Golden?5DarkKnight?5?3?5?$CFd?0?5?$CFd?0@ DB 'Ma'
	DB	'ke Golden DarkKnight : %d, %d,%d', 00H	; `string'
; Function compile flags: /Ogtp
CONST	ENDS
;	COMDAT ?RegenGoldenDarkKnight@CEledoradoEvent@@QAEXXZ
_TEXT	SEGMENT
?RegenGoldenDarkKnight@CEledoradoEvent@@QAEXXZ PROC	; CEledoradoEvent::RegenGoldenDarkKnight, COMDAT
; _this$ = ecx

; 645  : 	int n=0;
; 646  : 	int MapNumber;
; 647  : 
; 648  : 	for (n=0;n<OBJ_MAXMONSTER;n++)

  00000	a1 00 00 00 00	 mov	 eax, DWORD PTR ?gObj@@3PAUOBJECTSTRUCT@@A ; gObj
  00005	53		 push	 ebx
  00006	56		 push	 esi
  00007	33 f6		 xor	 esi, esi
  00009	8d 5e 01	 lea	 ebx, DWORD PTR [esi+1]
  0000c	8d 64 24 00	 npad	 4
$LL6@RegenGolde:

; 649  : 	{
; 650  : 		if ( gObj[n].Class == 493 )	// 

  00010	b9 ed 01 00 00	 mov	 ecx, 493		; 000001edH
  00015	66 39 8c 06 b8
	00 00 00	 cmp	 WORD PTR [esi+eax+184], cx
  0001d	0f 85 22 01 00
	00		 jne	 $LN5@RegenGolde

; 651  : 		{
; 652  : 			gObj[n].Live = TRUE;

  00023	88 5c 06 6a	 mov	 BYTE PTR [esi+eax+106], bl

; 653  : 			MapNumber = MAP_INDEX_DUNGEON;
; 654  : 			gObj[n].MapNumber = MapNumber;

  00027	8b 15 00 00 00
	00		 mov	 edx, DWORD PTR ?gObj@@3PAUOBJECTSTRUCT@@A ; gObj
  0002d	88 9c 16 49 01
	00 00		 mov	 BYTE PTR [esi+edx+329], bl
  00034	eb 0a 8d a4 24
	00 00 00 00 8d
	49 00		 npad	 12
$LL2@RegenGolde:

; 655  : 
; 656  : 			while ( gMSetBase.GetBoxPosition(MapNumber, 1, 1, 255, 255, gObj[n].X, gObj[n].Y) == 0 )

  00040	a1 00 00 00 00	 mov	 eax, DWORD PTR ?gObj@@3PAUOBJECTSTRUCT@@A ; gObj
  00045	8d 8c 06 46 01
	00 00		 lea	 ecx, DWORD PTR [esi+eax+326]
  0004c	51		 push	 ecx
  0004d	8d 94 06 44 01
	00 00		 lea	 edx, DWORD PTR [esi+eax+324]
  00054	52		 push	 edx
  00055	68 ff 00 00 00	 push	 255			; 000000ffH
  0005a	68 ff 00 00 00	 push	 255			; 000000ffH
  0005f	53		 push	 ebx
  00060	53		 push	 ebx
  00061	53		 push	 ebx
  00062	b9 00 00 00 00	 mov	 ecx, OFFSET ?gMSetBase@@3VCMonsterSetBase@@A ; gMSetBase
  00067	e8 00 00 00 00	 call	 ?GetBoxPosition@CMonsterSetBase@@QAEHHHHHHAAF0@Z ; CMonsterSetBase::GetBoxPosition
  0006c	85 c0		 test	 eax, eax
  0006e	74 d0		 je	 SHORT $LL2@RegenGolde

; 657  : 			{
; 658  : 
; 659  : 			}
; 660  : 
; 661  : 			gObj[n].Life = gObj[n].MaxLife;

  00070	a1 00 00 00 00	 mov	 eax, DWORD PTR ?gObj@@3PAUOBJECTSTRUCT@@A ; gObj
  00075	d9 84 06 00 01
	00 00		 fld	 DWORD PTR [esi+eax+256]
  0007c	d9 9c 06 fc 00
	00 00		 fstp	 DWORD PTR [esi+eax+252]

; 662  : 			gObj[n].TX = gObj[n].X;

  00083	a1 00 00 00 00	 mov	 eax, DWORD PTR ?gObj@@3PAUOBJECTSTRUCT@@A ; gObj
  00088	0f b7 8c 06 44
	01 00 00	 movzx	 ecx, WORD PTR [esi+eax+324]
  00090	66 89 8c 06 7c
	01 00 00	 mov	 WORD PTR [esi+eax+380], cx

; 663  : 			gObj[n].TY = gObj[n].Y;

  00098	a1 00 00 00 00	 mov	 eax, DWORD PTR ?gObj@@3PAUOBJECTSTRUCT@@A ; gObj
  0009d	0f b7 94 06 46
	01 00 00	 movzx	 edx, WORD PTR [esi+eax+326]
  000a5	66 89 94 06 7e
	01 00 00	 mov	 WORD PTR [esi+eax+382], dx

; 664  : 			gObj[n].MTX = gObj[n].X;

  000ad	a1 00 00 00 00	 mov	 eax, DWORD PTR ?gObj@@3PAUOBJECTSTRUCT@@A ; gObj
  000b2	0f b7 8c 06 44
	01 00 00	 movzx	 ecx, WORD PTR [esi+eax+324]
  000ba	66 89 8c 06 80
	01 00 00	 mov	 WORD PTR [esi+eax+384], cx

; 665  : 			gObj[n].MTY = gObj[n].Y;

  000c2	a1 00 00 00 00	 mov	 eax, DWORD PTR ?gObj@@3PAUOBJECTSTRUCT@@A ; gObj
  000c7	0f b7 94 06 46
	01 00 00	 movzx	 edx, WORD PTR [esi+eax+326]
  000cf	66 89 94 06 82
	01 00 00	 mov	 WORD PTR [esi+eax+386], dx

; 666  : 			gObj[n].StartX = gObj[n].X;

  000d7	a1 00 00 00 00	 mov	 eax, DWORD PTR ?gObj@@3PAUOBJECTSTRUCT@@A ; gObj
  000dc	8a 8c 06 44 01
	00 00		 mov	 cl, BYTE PTR [esi+eax+324]
  000e3	88 8c 06 76 01
	00 00		 mov	 BYTE PTR [esi+eax+374], cl

; 667  : 			gObj[n].StartY = gObj[n].Y;

  000ea	a1 00 00 00 00	 mov	 eax, DWORD PTR ?gObj@@3PAUOBJECTSTRUCT@@A ; gObj
  000ef	8a 94 06 46 01
	00 00		 mov	 dl, BYTE PTR [esi+eax+326]
  000f6	88 94 06 77 01
	00 00		 mov	 BYTE PTR [esi+eax+375], dl

; 668  : 
; 669  : 
; 670  : 			gObj[n].m_State = 1;

  000fd	a1 00 00 00 00	 mov	 eax, DWORD PTR ?gObj@@3PAUOBJECTSTRUCT@@A ; gObj
  00102	89 9c 06 20 02
	00 00		 mov	 DWORD PTR [esi+eax+544], ebx

; 671  : 			gObj[n].PathCount = 0;

  00109	8b 0d 00 00 00
	00		 mov	 ecx, DWORD PTR ?gObj@@3PAUOBJECTSTRUCT@@A ; gObj
  0010f	c7 84 0e 84 01
	00 00 00 00 00
	00		 mov	 DWORD PTR [esi+ecx+388], 0

; 672  : 
; 673  : 			LogAddTD("Make Golden DarkKnight : %d, %d,%d",
; 674  : 				MapNumber, gObj[n].X, gObj[n].Y);

  0011a	a1 00 00 00 00	 mov	 eax, DWORD PTR ?gObj@@3PAUOBJECTSTRUCT@@A ; gObj
  0011f	0f bf 94 06 46
	01 00 00	 movsx	 edx, WORD PTR [esi+eax+326]
  00127	0f bf 84 06 44
	01 00 00	 movsx	 eax, WORD PTR [esi+eax+324]
  0012f	52		 push	 edx
  00130	50		 push	 eax
  00131	53		 push	 ebx
  00132	68 00 00 00 00	 push	 OFFSET ??_C@_0CD@LGNFBEEH@Make?5Golden?5DarkKnight?5?3?5?$CFd?0?5?$CFd?0@
  00137	ff 15 00 00 00
	00		 call	 DWORD PTR ?LogAddTD@@3P6AXPADZZA ; LogAddTD
  0013d	a1 00 00 00 00	 mov	 eax, DWORD PTR ?gObj@@3PAUOBJECTSTRUCT@@A ; gObj
  00142	83 c4 10	 add	 esp, 16			; 00000010H
$LN5@RegenGolde:

; 645  : 	int n=0;
; 646  : 	int MapNumber;
; 647  : 
; 648  : 	for (n=0;n<OBJ_MAXMONSTER;n++)

  00145	81 c6 50 2b 00
	00		 add	 esi, 11088		; 00002b50H
  0014b	81 fe 80 76 97
	08		 cmp	 esi, 144144000		; 08977680H
  00151	0f 8c b9 fe ff
	ff		 jl	 $LL6@RegenGolde

; 675  : 		}
; 676  : 	}
; 677  : }

  00157	5e		 pop	 esi
  00158	5b		 pop	 ebx
  00159	c3		 ret	 0
?RegenGoldenDarkKnight@CEledoradoEvent@@QAEXXZ ENDP	; CEledoradoEvent::RegenGoldenDarkKnight
_TEXT	ENDS
PUBLIC	??_C@_0BO@HGAOKNNC@Make?5Golden?5Devil?5?3?5?$CFd?0?5?$CFd?0?$CFd?$AA@ ; `string'
PUBLIC	?RegenGoldenDevil@CEledoradoEvent@@QAEXXZ	; CEledoradoEvent::RegenGoldenDevil
;	COMDAT ??_C@_0BO@HGAOKNNC@Make?5Golden?5Devil?5?3?5?$CFd?0?5?$CFd?0?$CFd?$AA@
CONST	SEGMENT
??_C@_0BO@HGAOKNNC@Make?5Golden?5Devil?5?3?5?$CFd?0?5?$CFd?0?$CFd?$AA@ DB 'M'
	DB	'ake Golden Devil : %d, %d,%d', 00H		; `string'
; Function compile flags: /Ogtp
CONST	ENDS
;	COMDAT ?RegenGoldenDevil@CEledoradoEvent@@QAEXXZ
_TEXT	SEGMENT
?RegenGoldenDevil@CEledoradoEvent@@QAEXXZ PROC		; CEledoradoEvent::RegenGoldenDevil, COMDAT
; _this$ = ecx

; 681  : 	int n=0;
; 682  : 	int MapNumber;
; 683  : 
; 684  : 	for (n=0;n<OBJ_MAXMONSTER;n++)

  00000	a1 00 00 00 00	 mov	 eax, DWORD PTR ?gObj@@3PAUOBJECTSTRUCT@@A ; gObj
  00005	53		 push	 ebx
  00006	56		 push	 esi
  00007	33 f6		 xor	 esi, esi
  00009	8d 5e 01	 lea	 ebx, DWORD PTR [esi+1]
  0000c	8d 64 24 00	 npad	 4
$LL6@RegenGolde@2:

; 685  : 	{
; 686  : 		if ( gObj[n].Class == 494 )	// 

  00010	b9 ee 01 00 00	 mov	 ecx, 494		; 000001eeH
  00015	66 39 8c 06 b8
	00 00 00	 cmp	 WORD PTR [esi+eax+184], cx
  0001d	0f 85 24 01 00
	00		 jne	 $LN5@RegenGolde@2

; 687  : 		{
; 688  : 			gObj[n].Live = TRUE;

  00023	88 5c 06 6a	 mov	 BYTE PTR [esi+eax+106], bl

; 689  : 			MapNumber = MAP_INDEX_LOSTTOWER;
; 690  : 			gObj[n].MapNumber = MapNumber;

  00027	8b 15 00 00 00
	00		 mov	 edx, DWORD PTR ?gObj@@3PAUOBJECTSTRUCT@@A ; gObj
  0002d	c6 84 16 49 01
	00 00 04	 mov	 BYTE PTR [esi+edx+329], 4
  00035	eb 09 8d a4 24
	00 00 00 00 8b
	ff		 npad	 11
$LL2@RegenGolde@2:

; 691  : 
; 692  : 			while ( gMSetBase.GetBoxPosition(MapNumber, 1, 1, 255, 255, gObj[n].X, gObj[n].Y) == 0 )

  00040	a1 00 00 00 00	 mov	 eax, DWORD PTR ?gObj@@3PAUOBJECTSTRUCT@@A ; gObj
  00045	8d 8c 06 46 01
	00 00		 lea	 ecx, DWORD PTR [esi+eax+326]
  0004c	51		 push	 ecx
  0004d	8d 94 06 44 01
	00 00		 lea	 edx, DWORD PTR [esi+eax+324]
  00054	52		 push	 edx
  00055	68 ff 00 00 00	 push	 255			; 000000ffH
  0005a	68 ff 00 00 00	 push	 255			; 000000ffH
  0005f	53		 push	 ebx
  00060	53		 push	 ebx
  00061	6a 04		 push	 4
  00063	b9 00 00 00 00	 mov	 ecx, OFFSET ?gMSetBase@@3VCMonsterSetBase@@A ; gMSetBase
  00068	e8 00 00 00 00	 call	 ?GetBoxPosition@CMonsterSetBase@@QAEHHHHHHAAF0@Z ; CMonsterSetBase::GetBoxPosition
  0006d	85 c0		 test	 eax, eax
  0006f	74 cf		 je	 SHORT $LL2@RegenGolde@2

; 693  : 			{
; 694  : 
; 695  : 			}
; 696  : 
; 697  : 			gObj[n].Life = gObj[n].MaxLife;

  00071	a1 00 00 00 00	 mov	 eax, DWORD PTR ?gObj@@3PAUOBJECTSTRUCT@@A ; gObj
  00076	d9 84 06 00 01
	00 00		 fld	 DWORD PTR [esi+eax+256]
  0007d	d9 9c 06 fc 00
	00 00		 fstp	 DWORD PTR [esi+eax+252]

; 698  : 			gObj[n].TX = gObj[n].X;

  00084	a1 00 00 00 00	 mov	 eax, DWORD PTR ?gObj@@3PAUOBJECTSTRUCT@@A ; gObj
  00089	0f b7 8c 06 44
	01 00 00	 movzx	 ecx, WORD PTR [esi+eax+324]
  00091	66 89 8c 06 7c
	01 00 00	 mov	 WORD PTR [esi+eax+380], cx

; 699  : 			gObj[n].TY = gObj[n].Y;

  00099	a1 00 00 00 00	 mov	 eax, DWORD PTR ?gObj@@3PAUOBJECTSTRUCT@@A ; gObj
  0009e	0f b7 94 06 46
	01 00 00	 movzx	 edx, WORD PTR [esi+eax+326]
  000a6	66 89 94 06 7e
	01 00 00	 mov	 WORD PTR [esi+eax+382], dx

; 700  : 			gObj[n].MTX = gObj[n].X;

  000ae	a1 00 00 00 00	 mov	 eax, DWORD PTR ?gObj@@3PAUOBJECTSTRUCT@@A ; gObj
  000b3	0f b7 8c 06 44
	01 00 00	 movzx	 ecx, WORD PTR [esi+eax+324]
  000bb	66 89 8c 06 80
	01 00 00	 mov	 WORD PTR [esi+eax+384], cx

; 701  : 			gObj[n].MTY = gObj[n].Y;

  000c3	a1 00 00 00 00	 mov	 eax, DWORD PTR ?gObj@@3PAUOBJECTSTRUCT@@A ; gObj
  000c8	0f b7 94 06 46
	01 00 00	 movzx	 edx, WORD PTR [esi+eax+326]
  000d0	66 89 94 06 82
	01 00 00	 mov	 WORD PTR [esi+eax+386], dx

; 702  : 			gObj[n].StartX = gObj[n].X;

  000d8	a1 00 00 00 00	 mov	 eax, DWORD PTR ?gObj@@3PAUOBJECTSTRUCT@@A ; gObj
  000dd	8a 8c 06 44 01
	00 00		 mov	 cl, BYTE PTR [esi+eax+324]
  000e4	88 8c 06 76 01
	00 00		 mov	 BYTE PTR [esi+eax+374], cl

; 703  : 			gObj[n].StartY = gObj[n].Y;

  000eb	a1 00 00 00 00	 mov	 eax, DWORD PTR ?gObj@@3PAUOBJECTSTRUCT@@A ; gObj
  000f0	8a 94 06 46 01
	00 00		 mov	 dl, BYTE PTR [esi+eax+326]
  000f7	88 94 06 77 01
	00 00		 mov	 BYTE PTR [esi+eax+375], dl

; 704  : 
; 705  : 
; 706  : 			gObj[n].m_State = 1;

  000fe	a1 00 00 00 00	 mov	 eax, DWORD PTR ?gObj@@3PAUOBJECTSTRUCT@@A ; gObj
  00103	89 9c 06 20 02
	00 00		 mov	 DWORD PTR [esi+eax+544], ebx

; 707  : 			gObj[n].PathCount = 0;

  0010a	8b 0d 00 00 00
	00		 mov	 ecx, DWORD PTR ?gObj@@3PAUOBJECTSTRUCT@@A ; gObj
  00110	c7 84 0e 84 01
	00 00 00 00 00
	00		 mov	 DWORD PTR [esi+ecx+388], 0

; 708  : 
; 709  : 			LogAddTD("Make Golden Devil : %d, %d,%d",
; 710  : 				MapNumber, gObj[n].X, gObj[n].Y);

  0011b	a1 00 00 00 00	 mov	 eax, DWORD PTR ?gObj@@3PAUOBJECTSTRUCT@@A ; gObj
  00120	0f bf 94 06 46
	01 00 00	 movsx	 edx, WORD PTR [esi+eax+326]
  00128	0f bf 84 06 44
	01 00 00	 movsx	 eax, WORD PTR [esi+eax+324]
  00130	52		 push	 edx
  00131	50		 push	 eax
  00132	6a 04		 push	 4
  00134	68 00 00 00 00	 push	 OFFSET ??_C@_0BO@HGAOKNNC@Make?5Golden?5Devil?5?3?5?$CFd?0?5?$CFd?0?$CFd?$AA@
  00139	ff 15 00 00 00
	00		 call	 DWORD PTR ?LogAddTD@@3P6AXPADZZA ; LogAddTD
  0013f	a1 00 00 00 00	 mov	 eax, DWORD PTR ?gObj@@3PAUOBJECTSTRUCT@@A ; gObj
  00144	83 c4 10	 add	 esp, 16			; 00000010H
$LN5@RegenGolde@2:

; 681  : 	int n=0;
; 682  : 	int MapNumber;
; 683  : 
; 684  : 	for (n=0;n<OBJ_MAXMONSTER;n++)

  00147	81 c6 50 2b 00
	00		 add	 esi, 11088		; 00002b50H
  0014d	81 fe 80 76 97
	08		 cmp	 esi, 144144000		; 08977680H
  00153	0f 8c b7 fe ff
	ff		 jl	 $LL6@RegenGolde@2

; 711  : 		}
; 712  : 	}
; 713  : }

  00159	5e		 pop	 esi
  0015a	5b		 pop	 ebx
  0015b	c3		 ret	 0
?RegenGoldenDevil@CEledoradoEvent@@QAEXXZ ENDP		; CEledoradoEvent::RegenGoldenDevil
_TEXT	ENDS
PUBLIC	?RegenGoldenMonster@CEledoradoEvent@@QAEXXZ	; CEledoradoEvent::RegenGoldenMonster
; Function compile flags: /Ogtp
;	COMDAT ?RegenGoldenMonster@CEledoradoEvent@@QAEXXZ
_TEXT	SEGMENT
?RegenGoldenMonster@CEledoradoEvent@@QAEXXZ PROC	; CEledoradoEvent::RegenGoldenMonster, COMDAT
; _this$ = ecx

; 717  : 	int n=0;
; 718  : 	int MapNumber;
; 719  : 
; 720  : 	for (n=0;n<OBJ_MAXMONSTER;n++)

  00000	a1 00 00 00 00	 mov	 eax, DWORD PTR ?gObj@@3PAUOBJECTSTRUCT@@A ; gObj
  00005	53		 push	 ebx
  00006	56		 push	 esi
  00007	33 f6		 xor	 esi, esi
  00009	8d 5e 01	 lea	 ebx, DWORD PTR [esi+1]
  0000c	8d 64 24 00	 npad	 4
$LL6@RegenGolde@3:

; 721  : 	{
; 722  : 		if ( gObj[n].Class == 495 )	// 

  00010	b9 ef 01 00 00	 mov	 ecx, 495		; 000001efH
  00015	66 39 8c 06 b8
	00 00 00	 cmp	 WORD PTR [esi+eax+184], cx
  0001d	0f 85 24 01 00
	00		 jne	 $LN5@RegenGolde@3

; 723  : 		{
; 724  : 			gObj[n].Live = TRUE;

  00023	88 5c 06 6a	 mov	 BYTE PTR [esi+eax+106], bl

; 725  : 			MapNumber = MAP_INDEX_AIDA;
; 726  : 			gObj[n].MapNumber = MapNumber;

  00027	8b 15 00 00 00
	00		 mov	 edx, DWORD PTR ?gObj@@3PAUOBJECTSTRUCT@@A ; gObj
  0002d	c6 84 16 49 01
	00 00 21	 mov	 BYTE PTR [esi+edx+329], 33 ; 00000021H
  00035	eb 09 8d a4 24
	00 00 00 00 8b
	ff		 npad	 11
$LL2@RegenGolde@3:

; 727  : 
; 728  : 			while ( gMSetBase.GetBoxPosition(MapNumber, 1, 1, 255, 255, gObj[n].X, gObj[n].Y) == 0 )

  00040	a1 00 00 00 00	 mov	 eax, DWORD PTR ?gObj@@3PAUOBJECTSTRUCT@@A ; gObj
  00045	8d 8c 06 46 01
	00 00		 lea	 ecx, DWORD PTR [esi+eax+326]
  0004c	51		 push	 ecx
  0004d	8d 94 06 44 01
	00 00		 lea	 edx, DWORD PTR [esi+eax+324]
  00054	52		 push	 edx
  00055	68 ff 00 00 00	 push	 255			; 000000ffH
  0005a	68 ff 00 00 00	 push	 255			; 000000ffH
  0005f	53		 push	 ebx
  00060	53		 push	 ebx
  00061	6a 21		 push	 33			; 00000021H
  00063	b9 00 00 00 00	 mov	 ecx, OFFSET ?gMSetBase@@3VCMonsterSetBase@@A ; gMSetBase
  00068	e8 00 00 00 00	 call	 ?GetBoxPosition@CMonsterSetBase@@QAEHHHHHHAAF0@Z ; CMonsterSetBase::GetBoxPosition
  0006d	85 c0		 test	 eax, eax
  0006f	74 cf		 je	 SHORT $LL2@RegenGolde@3

; 729  : 			{
; 730  : 
; 731  : 			}
; 732  : 
; 733  : 			gObj[n].Life = gObj[n].MaxLife;

  00071	a1 00 00 00 00	 mov	 eax, DWORD PTR ?gObj@@3PAUOBJECTSTRUCT@@A ; gObj
  00076	d9 84 06 00 01
	00 00		 fld	 DWORD PTR [esi+eax+256]
  0007d	d9 9c 06 fc 00
	00 00		 fstp	 DWORD PTR [esi+eax+252]

; 734  : 			gObj[n].TX = gObj[n].X;

  00084	a1 00 00 00 00	 mov	 eax, DWORD PTR ?gObj@@3PAUOBJECTSTRUCT@@A ; gObj
  00089	0f b7 8c 06 44
	01 00 00	 movzx	 ecx, WORD PTR [esi+eax+324]
  00091	66 89 8c 06 7c
	01 00 00	 mov	 WORD PTR [esi+eax+380], cx

; 735  : 			gObj[n].TY = gObj[n].Y;

  00099	a1 00 00 00 00	 mov	 eax, DWORD PTR ?gObj@@3PAUOBJECTSTRUCT@@A ; gObj
  0009e	0f b7 94 06 46
	01 00 00	 movzx	 edx, WORD PTR [esi+eax+326]
  000a6	66 89 94 06 7e
	01 00 00	 mov	 WORD PTR [esi+eax+382], dx

; 736  : 			gObj[n].MTX = gObj[n].X;

  000ae	a1 00 00 00 00	 mov	 eax, DWORD PTR ?gObj@@3PAUOBJECTSTRUCT@@A ; gObj
  000b3	0f b7 8c 06 44
	01 00 00	 movzx	 ecx, WORD PTR [esi+eax+324]
  000bb	66 89 8c 06 80
	01 00 00	 mov	 WORD PTR [esi+eax+384], cx

; 737  : 			gObj[n].MTY = gObj[n].Y;

  000c3	a1 00 00 00 00	 mov	 eax, DWORD PTR ?gObj@@3PAUOBJECTSTRUCT@@A ; gObj
  000c8	0f b7 94 06 46
	01 00 00	 movzx	 edx, WORD PTR [esi+eax+326]
  000d0	66 89 94 06 82
	01 00 00	 mov	 WORD PTR [esi+eax+386], dx

; 738  : 			gObj[n].StartX = gObj[n].X;

  000d8	a1 00 00 00 00	 mov	 eax, DWORD PTR ?gObj@@3PAUOBJECTSTRUCT@@A ; gObj
  000dd	8a 8c 06 44 01
	00 00		 mov	 cl, BYTE PTR [esi+eax+324]
  000e4	88 8c 06 76 01
	00 00		 mov	 BYTE PTR [esi+eax+374], cl

; 739  : 			gObj[n].StartY = gObj[n].Y;

  000eb	a1 00 00 00 00	 mov	 eax, DWORD PTR ?gObj@@3PAUOBJECTSTRUCT@@A ; gObj
  000f0	8a 94 06 46 01
	00 00		 mov	 dl, BYTE PTR [esi+eax+326]
  000f7	88 94 06 77 01
	00 00		 mov	 BYTE PTR [esi+eax+375], dl

; 740  : 
; 741  : 
; 742  : 			gObj[n].m_State = 1;

  000fe	a1 00 00 00 00	 mov	 eax, DWORD PTR ?gObj@@3PAUOBJECTSTRUCT@@A ; gObj
  00103	89 9c 06 20 02
	00 00		 mov	 DWORD PTR [esi+eax+544], ebx

; 743  : 			gObj[n].PathCount = 0;

  0010a	8b 0d 00 00 00
	00		 mov	 ecx, DWORD PTR ?gObj@@3PAUOBJECTSTRUCT@@A ; gObj
  00110	c7 84 0e 84 01
	00 00 00 00 00
	00		 mov	 DWORD PTR [esi+ecx+388], 0

; 744  : 
; 745  : 			LogAddTD("Make Golden DarkKnight : %d, %d,%d",
; 746  : 				MapNumber, gObj[n].X, gObj[n].Y);

  0011b	a1 00 00 00 00	 mov	 eax, DWORD PTR ?gObj@@3PAUOBJECTSTRUCT@@A ; gObj
  00120	0f bf 94 06 46
	01 00 00	 movsx	 edx, WORD PTR [esi+eax+326]
  00128	0f bf 84 06 44
	01 00 00	 movsx	 eax, WORD PTR [esi+eax+324]
  00130	52		 push	 edx
  00131	50		 push	 eax
  00132	6a 21		 push	 33			; 00000021H
  00134	68 00 00 00 00	 push	 OFFSET ??_C@_0CD@LGNFBEEH@Make?5Golden?5DarkKnight?5?3?5?$CFd?0?5?$CFd?0@
  00139	ff 15 00 00 00
	00		 call	 DWORD PTR ?LogAddTD@@3P6AXPADZZA ; LogAddTD
  0013f	a1 00 00 00 00	 mov	 eax, DWORD PTR ?gObj@@3PAUOBJECTSTRUCT@@A ; gObj
  00144	83 c4 10	 add	 esp, 16			; 00000010H
$LN5@RegenGolde@3:

; 717  : 	int n=0;
; 718  : 	int MapNumber;
; 719  : 
; 720  : 	for (n=0;n<OBJ_MAXMONSTER;n++)

  00147	81 c6 50 2b 00
	00		 add	 esi, 11088		; 00002b50H
  0014d	81 fe 80 76 97
	08		 cmp	 esi, 144144000		; 08977680H
  00153	0f 8c b7 fe ff
	ff		 jl	 $LL6@RegenGolde@3

; 747  : 		}
; 748  : 	}
; 749  : }

  00159	5e		 pop	 esi
  0015a	5b		 pop	 ebx
  0015b	c3		 ret	 0
?RegenGoldenMonster@CEledoradoEvent@@QAEXXZ ENDP	; CEledoradoEvent::RegenGoldenMonster
_TEXT	ENDS
PUBLIC	??_C@_0BO@PPKNDGHB@Make?5Golden?5Crust?5?3?5?$CFd?0?5?$CFd?0?$CFd?$AA@ ; `string'
PUBLIC	?RegenGoldenCrust@CEledoradoEvent@@QAEXXZ	; CEledoradoEvent::RegenGoldenCrust
;	COMDAT ??_C@_0BO@PPKNDGHB@Make?5Golden?5Crust?5?3?5?$CFd?0?5?$CFd?0?$CFd?$AA@
CONST	SEGMENT
??_C@_0BO@PPKNDGHB@Make?5Golden?5Crust?5?3?5?$CFd?0?5?$CFd?0?$CFd?$AA@ DB 'M'
	DB	'ake Golden Crust : %d, %d,%d', 00H		; `string'
; Function compile flags: /Ogtp
CONST	ENDS
;	COMDAT ?RegenGoldenCrust@CEledoradoEvent@@QAEXXZ
_TEXT	SEGMENT
?RegenGoldenCrust@CEledoradoEvent@@QAEXXZ PROC		; CEledoradoEvent::RegenGoldenCrust, COMDAT
; _this$ = ecx

; 753  : 	int n=0;
; 754  : 	int MapNumber;
; 755  : 
; 756  : 	for (n=0;n<OBJ_MAXMONSTER;n++)

  00000	a1 00 00 00 00	 mov	 eax, DWORD PTR ?gObj@@3PAUOBJECTSTRUCT@@A ; gObj
  00005	53		 push	 ebx
  00006	56		 push	 esi
  00007	33 f6		 xor	 esi, esi
  00009	8d 5e 01	 lea	 ebx, DWORD PTR [esi+1]
  0000c	8d 64 24 00	 npad	 4
$LL6@RegenGolde@4:

; 757  : 	{
; 758  : 		if ( gObj[n].Class == 496 )	// 

  00010	b9 f0 01 00 00	 mov	 ecx, 496		; 000001f0H
  00015	66 39 8c 06 b8
	00 00 00	 cmp	 WORD PTR [esi+eax+184], cx
  0001d	0f 85 24 01 00
	00		 jne	 $LN5@RegenGolde@4

; 759  : 		{
; 760  : 			gObj[n].Live = TRUE;

  00023	88 5c 06 6a	 mov	 BYTE PTR [esi+eax+106], bl

; 761  : 			MapNumber = MAP_INDEX_ICARUS;
; 762  : 			gObj[n].MapNumber = MapNumber;

  00027	8b 15 00 00 00
	00		 mov	 edx, DWORD PTR ?gObj@@3PAUOBJECTSTRUCT@@A ; gObj
  0002d	c6 84 16 49 01
	00 00 0a	 mov	 BYTE PTR [esi+edx+329], 10 ; 0000000aH
  00035	eb 09 8d a4 24
	00 00 00 00 8b
	ff		 npad	 11
$LL2@RegenGolde@4:

; 763  : 
; 764  : 			while ( gMSetBase.GetBoxPosition(MapNumber, 1, 1, 255, 255, gObj[n].X, gObj[n].Y) == 0 )

  00040	a1 00 00 00 00	 mov	 eax, DWORD PTR ?gObj@@3PAUOBJECTSTRUCT@@A ; gObj
  00045	8d 8c 06 46 01
	00 00		 lea	 ecx, DWORD PTR [esi+eax+326]
  0004c	51		 push	 ecx
  0004d	8d 94 06 44 01
	00 00		 lea	 edx, DWORD PTR [esi+eax+324]
  00054	52		 push	 edx
  00055	68 ff 00 00 00	 push	 255			; 000000ffH
  0005a	68 ff 00 00 00	 push	 255			; 000000ffH
  0005f	53		 push	 ebx
  00060	53		 push	 ebx
  00061	6a 0a		 push	 10			; 0000000aH
  00063	b9 00 00 00 00	 mov	 ecx, OFFSET ?gMSetBase@@3VCMonsterSetBase@@A ; gMSetBase
  00068	e8 00 00 00 00	 call	 ?GetBoxPosition@CMonsterSetBase@@QAEHHHHHHAAF0@Z ; CMonsterSetBase::GetBoxPosition
  0006d	85 c0		 test	 eax, eax
  0006f	74 cf		 je	 SHORT $LL2@RegenGolde@4

; 765  : 			{
; 766  : 
; 767  : 			}
; 768  : 
; 769  : 			gObj[n].Life = gObj[n].MaxLife;

  00071	a1 00 00 00 00	 mov	 eax, DWORD PTR ?gObj@@3PAUOBJECTSTRUCT@@A ; gObj
  00076	d9 84 06 00 01
	00 00		 fld	 DWORD PTR [esi+eax+256]
  0007d	d9 9c 06 fc 00
	00 00		 fstp	 DWORD PTR [esi+eax+252]

; 770  : 			gObj[n].TX = gObj[n].X;

  00084	a1 00 00 00 00	 mov	 eax, DWORD PTR ?gObj@@3PAUOBJECTSTRUCT@@A ; gObj
  00089	0f b7 8c 06 44
	01 00 00	 movzx	 ecx, WORD PTR [esi+eax+324]
  00091	66 89 8c 06 7c
	01 00 00	 mov	 WORD PTR [esi+eax+380], cx

; 771  : 			gObj[n].TY = gObj[n].Y;

  00099	a1 00 00 00 00	 mov	 eax, DWORD PTR ?gObj@@3PAUOBJECTSTRUCT@@A ; gObj
  0009e	0f b7 94 06 46
	01 00 00	 movzx	 edx, WORD PTR [esi+eax+326]
  000a6	66 89 94 06 7e
	01 00 00	 mov	 WORD PTR [esi+eax+382], dx

; 772  : 			gObj[n].MTX = gObj[n].X;

  000ae	a1 00 00 00 00	 mov	 eax, DWORD PTR ?gObj@@3PAUOBJECTSTRUCT@@A ; gObj
  000b3	0f b7 8c 06 44
	01 00 00	 movzx	 ecx, WORD PTR [esi+eax+324]
  000bb	66 89 8c 06 80
	01 00 00	 mov	 WORD PTR [esi+eax+384], cx

; 773  : 			gObj[n].MTY = gObj[n].Y;

  000c3	a1 00 00 00 00	 mov	 eax, DWORD PTR ?gObj@@3PAUOBJECTSTRUCT@@A ; gObj
  000c8	0f b7 94 06 46
	01 00 00	 movzx	 edx, WORD PTR [esi+eax+326]
  000d0	66 89 94 06 82
	01 00 00	 mov	 WORD PTR [esi+eax+386], dx

; 774  : 			gObj[n].StartX = gObj[n].X;

  000d8	a1 00 00 00 00	 mov	 eax, DWORD PTR ?gObj@@3PAUOBJECTSTRUCT@@A ; gObj
  000dd	8a 8c 06 44 01
	00 00		 mov	 cl, BYTE PTR [esi+eax+324]
  000e4	88 8c 06 76 01
	00 00		 mov	 BYTE PTR [esi+eax+374], cl

; 775  : 			gObj[n].StartY = gObj[n].Y;

  000eb	a1 00 00 00 00	 mov	 eax, DWORD PTR ?gObj@@3PAUOBJECTSTRUCT@@A ; gObj
  000f0	8a 94 06 46 01
	00 00		 mov	 dl, BYTE PTR [esi+eax+326]
  000f7	88 94 06 77 01
	00 00		 mov	 BYTE PTR [esi+eax+375], dl

; 776  : 
; 777  : 
; 778  : 			gObj[n].m_State = 1;

  000fe	a1 00 00 00 00	 mov	 eax, DWORD PTR ?gObj@@3PAUOBJECTSTRUCT@@A ; gObj
  00103	89 9c 06 20 02
	00 00		 mov	 DWORD PTR [esi+eax+544], ebx

; 779  : 			gObj[n].PathCount = 0;

  0010a	8b 0d 00 00 00
	00		 mov	 ecx, DWORD PTR ?gObj@@3PAUOBJECTSTRUCT@@A ; gObj
  00110	c7 84 0e 84 01
	00 00 00 00 00
	00		 mov	 DWORD PTR [esi+ecx+388], 0

; 780  : 
; 781  : 			LogAddTD("Make Golden Crust : %d, %d,%d",
; 782  : 				MapNumber, gObj[n].X, gObj[n].Y);

  0011b	a1 00 00 00 00	 mov	 eax, DWORD PTR ?gObj@@3PAUOBJECTSTRUCT@@A ; gObj
  00120	0f bf 94 06 46
	01 00 00	 movsx	 edx, WORD PTR [esi+eax+326]
  00128	0f bf 84 06 44
	01 00 00	 movsx	 eax, WORD PTR [esi+eax+324]
  00130	52		 push	 edx
  00131	50		 push	 eax
  00132	6a 0a		 push	 10			; 0000000aH
  00134	68 00 00 00 00	 push	 OFFSET ??_C@_0BO@PPKNDGHB@Make?5Golden?5Crust?5?3?5?$CFd?0?5?$CFd?0?$CFd?$AA@
  00139	ff 15 00 00 00
	00		 call	 DWORD PTR ?LogAddTD@@3P6AXPADZZA ; LogAddTD
  0013f	a1 00 00 00 00	 mov	 eax, DWORD PTR ?gObj@@3PAUOBJECTSTRUCT@@A ; gObj
  00144	83 c4 10	 add	 esp, 16			; 00000010H
$LN5@RegenGolde@4:

; 753  : 	int n=0;
; 754  : 	int MapNumber;
; 755  : 
; 756  : 	for (n=0;n<OBJ_MAXMONSTER;n++)

  00147	81 c6 50 2b 00
	00		 add	 esi, 11088		; 00002b50H
  0014d	81 fe 80 76 97
	08		 cmp	 esi, 144144000		; 08977680H
  00153	0f 8c b7 fe ff
	ff		 jl	 $LL6@RegenGolde@4

; 783  : 		}
; 784  : 	}
; 785  : }

  00159	5e		 pop	 esi
  0015a	5b		 pop	 ebx
  0015b	c3		 ret	 0
?RegenGoldenCrust@CEledoradoEvent@@QAEXXZ ENDP		; CEledoradoEvent::RegenGoldenCrust
_TEXT	ENDS
PUBLIC	??_C@_0CA@KKDIEMFO@Make?5Golden?5Satiros?5?3?5?$CFd?0?5?$CFd?0?$CFd?$AA@ ; `string'
PUBLIC	?RegenGoldenSatiros@CEledoradoEvent@@QAEXXZ	; CEledoradoEvent::RegenGoldenSatiros
;	COMDAT ??_C@_0CA@KKDIEMFO@Make?5Golden?5Satiros?5?3?5?$CFd?0?5?$CFd?0?$CFd?$AA@
CONST	SEGMENT
??_C@_0CA@KKDIEMFO@Make?5Golden?5Satiros?5?3?5?$CFd?0?5?$CFd?0?$CFd?$AA@ DB 'M'
	DB	'ake Golden Satiros : %d, %d,%d', 00H	; `string'
; Function compile flags: /Ogtp
CONST	ENDS
;	COMDAT ?RegenGoldenSatiros@CEledoradoEvent@@QAEXXZ
_TEXT	SEGMENT
?RegenGoldenSatiros@CEledoradoEvent@@QAEXXZ PROC	; CEledoradoEvent::RegenGoldenSatiros, COMDAT
; _this$ = ecx

; 789  : 	int n=0;
; 790  : 	int MapNumber;
; 791  : 
; 792  : 	for (n=0;n<OBJ_MAXMONSTER;n++)

  00000	a1 00 00 00 00	 mov	 eax, DWORD PTR ?gObj@@3PAUOBJECTSTRUCT@@A ; gObj
  00005	53		 push	 ebx
  00006	56		 push	 esi
  00007	33 f6		 xor	 esi, esi
  00009	8d 5e 01	 lea	 ebx, DWORD PTR [esi+1]
  0000c	8d 64 24 00	 npad	 4
$LL6@RegenGolde@5:

; 793  : 	{
; 794  : 		if ( gObj[n].Class == 497 )	// 

  00010	b9 f1 01 00 00	 mov	 ecx, 497		; 000001f1H
  00015	66 39 8c 06 b8
	00 00 00	 cmp	 WORD PTR [esi+eax+184], cx
  0001d	0f 85 24 01 00
	00		 jne	 $LN5@RegenGolde@5

; 795  : 		{
; 796  : 			gObj[n].Live = TRUE;

  00023	88 5c 06 6a	 mov	 BYTE PTR [esi+eax+106], bl

; 797  : 			MapNumber = MAP_INDEX_KANTURU1;
; 798  : 			gObj[n].MapNumber = MapNumber;

  00027	8b 15 00 00 00
	00		 mov	 edx, DWORD PTR ?gObj@@3PAUOBJECTSTRUCT@@A ; gObj
  0002d	c6 84 16 49 01
	00 00 25	 mov	 BYTE PTR [esi+edx+329], 37 ; 00000025H
  00035	eb 09 8d a4 24
	00 00 00 00 8b
	ff		 npad	 11
$LL2@RegenGolde@5:

; 799  : 
; 800  : 			while ( gMSetBase.GetBoxPosition(MapNumber, 1, 1, 255, 255, gObj[n].X, gObj[n].Y) == 0 )

  00040	a1 00 00 00 00	 mov	 eax, DWORD PTR ?gObj@@3PAUOBJECTSTRUCT@@A ; gObj
  00045	8d 8c 06 46 01
	00 00		 lea	 ecx, DWORD PTR [esi+eax+326]
  0004c	51		 push	 ecx
  0004d	8d 94 06 44 01
	00 00		 lea	 edx, DWORD PTR [esi+eax+324]
  00054	52		 push	 edx
  00055	68 ff 00 00 00	 push	 255			; 000000ffH
  0005a	68 ff 00 00 00	 push	 255			; 000000ffH
  0005f	53		 push	 ebx
  00060	53		 push	 ebx
  00061	6a 25		 push	 37			; 00000025H
  00063	b9 00 00 00 00	 mov	 ecx, OFFSET ?gMSetBase@@3VCMonsterSetBase@@A ; gMSetBase
  00068	e8 00 00 00 00	 call	 ?GetBoxPosition@CMonsterSetBase@@QAEHHHHHHAAF0@Z ; CMonsterSetBase::GetBoxPosition
  0006d	85 c0		 test	 eax, eax
  0006f	74 cf		 je	 SHORT $LL2@RegenGolde@5

; 801  : 			{
; 802  : 
; 803  : 			}
; 804  : 
; 805  : 			gObj[n].Life = gObj[n].MaxLife;

  00071	a1 00 00 00 00	 mov	 eax, DWORD PTR ?gObj@@3PAUOBJECTSTRUCT@@A ; gObj
  00076	d9 84 06 00 01
	00 00		 fld	 DWORD PTR [esi+eax+256]
  0007d	d9 9c 06 fc 00
	00 00		 fstp	 DWORD PTR [esi+eax+252]

; 806  : 			gObj[n].TX = gObj[n].X;

  00084	a1 00 00 00 00	 mov	 eax, DWORD PTR ?gObj@@3PAUOBJECTSTRUCT@@A ; gObj
  00089	0f b7 8c 06 44
	01 00 00	 movzx	 ecx, WORD PTR [esi+eax+324]
  00091	66 89 8c 06 7c
	01 00 00	 mov	 WORD PTR [esi+eax+380], cx

; 807  : 			gObj[n].TY = gObj[n].Y;

  00099	a1 00 00 00 00	 mov	 eax, DWORD PTR ?gObj@@3PAUOBJECTSTRUCT@@A ; gObj
  0009e	0f b7 94 06 46
	01 00 00	 movzx	 edx, WORD PTR [esi+eax+326]
  000a6	66 89 94 06 7e
	01 00 00	 mov	 WORD PTR [esi+eax+382], dx

; 808  : 			gObj[n].MTX = gObj[n].X;

  000ae	a1 00 00 00 00	 mov	 eax, DWORD PTR ?gObj@@3PAUOBJECTSTRUCT@@A ; gObj
  000b3	0f b7 8c 06 44
	01 00 00	 movzx	 ecx, WORD PTR [esi+eax+324]
  000bb	66 89 8c 06 80
	01 00 00	 mov	 WORD PTR [esi+eax+384], cx

; 809  : 			gObj[n].MTY = gObj[n].Y;

  000c3	a1 00 00 00 00	 mov	 eax, DWORD PTR ?gObj@@3PAUOBJECTSTRUCT@@A ; gObj
  000c8	0f b7 94 06 46
	01 00 00	 movzx	 edx, WORD PTR [esi+eax+326]
  000d0	66 89 94 06 82
	01 00 00	 mov	 WORD PTR [esi+eax+386], dx

; 810  : 			gObj[n].StartX = gObj[n].X;

  000d8	a1 00 00 00 00	 mov	 eax, DWORD PTR ?gObj@@3PAUOBJECTSTRUCT@@A ; gObj
  000dd	8a 8c 06 44 01
	00 00		 mov	 cl, BYTE PTR [esi+eax+324]
  000e4	88 8c 06 76 01
	00 00		 mov	 BYTE PTR [esi+eax+374], cl

; 811  : 			gObj[n].StartY = gObj[n].Y;

  000eb	a1 00 00 00 00	 mov	 eax, DWORD PTR ?gObj@@3PAUOBJECTSTRUCT@@A ; gObj
  000f0	8a 94 06 46 01
	00 00		 mov	 dl, BYTE PTR [esi+eax+326]
  000f7	88 94 06 77 01
	00 00		 mov	 BYTE PTR [esi+eax+375], dl

; 812  : 
; 813  : 
; 814  : 			gObj[n].m_State = 1;

  000fe	a1 00 00 00 00	 mov	 eax, DWORD PTR ?gObj@@3PAUOBJECTSTRUCT@@A ; gObj
  00103	89 9c 06 20 02
	00 00		 mov	 DWORD PTR [esi+eax+544], ebx

; 815  : 			gObj[n].PathCount = 0;

  0010a	8b 0d 00 00 00
	00		 mov	 ecx, DWORD PTR ?gObj@@3PAUOBJECTSTRUCT@@A ; gObj
  00110	c7 84 0e 84 01
	00 00 00 00 00
	00		 mov	 DWORD PTR [esi+ecx+388], 0

; 816  : 
; 817  : 			LogAddTD("Make Golden Satiros : %d, %d,%d",
; 818  : 				MapNumber, gObj[n].X, gObj[n].Y);

  0011b	a1 00 00 00 00	 mov	 eax, DWORD PTR ?gObj@@3PAUOBJECTSTRUCT@@A ; gObj
  00120	0f bf 94 06 46
	01 00 00	 movsx	 edx, WORD PTR [esi+eax+326]
  00128	0f bf 84 06 44
	01 00 00	 movsx	 eax, WORD PTR [esi+eax+324]
  00130	52		 push	 edx
  00131	50		 push	 eax
  00132	6a 25		 push	 37			; 00000025H
  00134	68 00 00 00 00	 push	 OFFSET ??_C@_0CA@KKDIEMFO@Make?5Golden?5Satiros?5?3?5?$CFd?0?5?$CFd?0?$CFd?$AA@
  00139	ff 15 00 00 00
	00		 call	 DWORD PTR ?LogAddTD@@3P6AXPADZZA ; LogAddTD
  0013f	a1 00 00 00 00	 mov	 eax, DWORD PTR ?gObj@@3PAUOBJECTSTRUCT@@A ; gObj
  00144	83 c4 10	 add	 esp, 16			; 00000010H
$LN5@RegenGolde@5:

; 789  : 	int n=0;
; 790  : 	int MapNumber;
; 791  : 
; 792  : 	for (n=0;n<OBJ_MAXMONSTER;n++)

  00147	81 c6 50 2b 00
	00		 add	 esi, 11088		; 00002b50H
  0014d	81 fe 80 76 97
	08		 cmp	 esi, 144144000		; 08977680H
  00153	0f 8c b7 fe ff
	ff		 jl	 $LL6@RegenGolde@5

; 819  : 		}
; 820  : 	}
; 821  : }

  00159	5e		 pop	 esi
  0015a	5b		 pop	 ebx
  0015b	c3		 ret	 0
?RegenGoldenSatiros@CEledoradoEvent@@QAEXXZ ENDP	; CEledoradoEvent::RegenGoldenSatiros
_TEXT	ENDS
PUBLIC	??_C@_0CB@CCGIMCLF@Make?5Golden?5Twintail?5?3?5?$CFd?0?5?$CFd?0?$CFd@ ; `string'
PUBLIC	?RegenGoldenTwintail@CEledoradoEvent@@QAEXXZ	; CEledoradoEvent::RegenGoldenTwintail
;	COMDAT ??_C@_0CB@CCGIMCLF@Make?5Golden?5Twintail?5?3?5?$CFd?0?5?$CFd?0?$CFd@
CONST	SEGMENT
??_C@_0CB@CCGIMCLF@Make?5Golden?5Twintail?5?3?5?$CFd?0?5?$CFd?0?$CFd@ DB 'M'
	DB	'ake Golden Twintail : %d, %d,%d', 00H	; `string'
; Function compile flags: /Ogtp
CONST	ENDS
;	COMDAT ?RegenGoldenTwintail@CEledoradoEvent@@QAEXXZ
_TEXT	SEGMENT
?RegenGoldenTwintail@CEledoradoEvent@@QAEXXZ PROC	; CEledoradoEvent::RegenGoldenTwintail, COMDAT
; _this$ = ecx

; 825  : 	int n=0;
; 826  : 	int MapNumber;
; 827  : 
; 828  : 	for (n=0;n<OBJ_MAXMONSTER;n++)

  00000	a1 00 00 00 00	 mov	 eax, DWORD PTR ?gObj@@3PAUOBJECTSTRUCT@@A ; gObj
  00005	53		 push	 ebx
  00006	56		 push	 esi
  00007	33 f6		 xor	 esi, esi
  00009	8d 5e 01	 lea	 ebx, DWORD PTR [esi+1]
  0000c	8d 64 24 00	 npad	 4
$LL6@RegenGolde@6:

; 829  : 	{
; 830  : 		if ( gObj[n].Class == 498 )	// 

  00010	b9 f2 01 00 00	 mov	 ecx, 498		; 000001f2H
  00015	66 39 8c 06 b8
	00 00 00	 cmp	 WORD PTR [esi+eax+184], cx
  0001d	0f 85 24 01 00
	00		 jne	 $LN5@RegenGolde@6

; 831  : 		{
; 832  : 			gObj[n].Live = TRUE;

  00023	88 5c 06 6a	 mov	 BYTE PTR [esi+eax+106], bl

; 833  : 			MapNumber = MAP_INDEX_KANTURU2;
; 834  : 			gObj[n].MapNumber = MapNumber;

  00027	8b 15 00 00 00
	00		 mov	 edx, DWORD PTR ?gObj@@3PAUOBJECTSTRUCT@@A ; gObj
  0002d	c6 84 16 49 01
	00 00 26	 mov	 BYTE PTR [esi+edx+329], 38 ; 00000026H
  00035	eb 09 8d a4 24
	00 00 00 00 8b
	ff		 npad	 11
$LL2@RegenGolde@6:

; 835  : 
; 836  : 			while ( gMSetBase.GetBoxPosition(MapNumber, 1, 1, 255, 255, gObj[n].X, gObj[n].Y) == 0 )

  00040	a1 00 00 00 00	 mov	 eax, DWORD PTR ?gObj@@3PAUOBJECTSTRUCT@@A ; gObj
  00045	8d 8c 06 46 01
	00 00		 lea	 ecx, DWORD PTR [esi+eax+326]
  0004c	51		 push	 ecx
  0004d	8d 94 06 44 01
	00 00		 lea	 edx, DWORD PTR [esi+eax+324]
  00054	52		 push	 edx
  00055	68 ff 00 00 00	 push	 255			; 000000ffH
  0005a	68 ff 00 00 00	 push	 255			; 000000ffH
  0005f	53		 push	 ebx
  00060	53		 push	 ebx
  00061	6a 26		 push	 38			; 00000026H
  00063	b9 00 00 00 00	 mov	 ecx, OFFSET ?gMSetBase@@3VCMonsterSetBase@@A ; gMSetBase
  00068	e8 00 00 00 00	 call	 ?GetBoxPosition@CMonsterSetBase@@QAEHHHHHHAAF0@Z ; CMonsterSetBase::GetBoxPosition
  0006d	85 c0		 test	 eax, eax
  0006f	74 cf		 je	 SHORT $LL2@RegenGolde@6

; 837  : 			{
; 838  : 
; 839  : 			}
; 840  : 
; 841  : 			gObj[n].Life = gObj[n].MaxLife;

  00071	a1 00 00 00 00	 mov	 eax, DWORD PTR ?gObj@@3PAUOBJECTSTRUCT@@A ; gObj
  00076	d9 84 06 00 01
	00 00		 fld	 DWORD PTR [esi+eax+256]
  0007d	d9 9c 06 fc 00
	00 00		 fstp	 DWORD PTR [esi+eax+252]

; 842  : 			gObj[n].TX = gObj[n].X;

  00084	a1 00 00 00 00	 mov	 eax, DWORD PTR ?gObj@@3PAUOBJECTSTRUCT@@A ; gObj
  00089	0f b7 8c 06 44
	01 00 00	 movzx	 ecx, WORD PTR [esi+eax+324]
  00091	66 89 8c 06 7c
	01 00 00	 mov	 WORD PTR [esi+eax+380], cx

; 843  : 			gObj[n].TY = gObj[n].Y;

  00099	a1 00 00 00 00	 mov	 eax, DWORD PTR ?gObj@@3PAUOBJECTSTRUCT@@A ; gObj
  0009e	0f b7 94 06 46
	01 00 00	 movzx	 edx, WORD PTR [esi+eax+326]
  000a6	66 89 94 06 7e
	01 00 00	 mov	 WORD PTR [esi+eax+382], dx

; 844  : 			gObj[n].MTX = gObj[n].X;

  000ae	a1 00 00 00 00	 mov	 eax, DWORD PTR ?gObj@@3PAUOBJECTSTRUCT@@A ; gObj
  000b3	0f b7 8c 06 44
	01 00 00	 movzx	 ecx, WORD PTR [esi+eax+324]
  000bb	66 89 8c 06 80
	01 00 00	 mov	 WORD PTR [esi+eax+384], cx

; 845  : 			gObj[n].MTY = gObj[n].Y;

  000c3	a1 00 00 00 00	 mov	 eax, DWORD PTR ?gObj@@3PAUOBJECTSTRUCT@@A ; gObj
  000c8	0f b7 94 06 46
	01 00 00	 movzx	 edx, WORD PTR [esi+eax+326]
  000d0	66 89 94 06 82
	01 00 00	 mov	 WORD PTR [esi+eax+386], dx

; 846  : 			gObj[n].StartX = gObj[n].X;

  000d8	a1 00 00 00 00	 mov	 eax, DWORD PTR ?gObj@@3PAUOBJECTSTRUCT@@A ; gObj
  000dd	8a 8c 06 44 01
	00 00		 mov	 cl, BYTE PTR [esi+eax+324]
  000e4	88 8c 06 76 01
	00 00		 mov	 BYTE PTR [esi+eax+374], cl

; 847  : 			gObj[n].StartY = gObj[n].Y;

  000eb	a1 00 00 00 00	 mov	 eax, DWORD PTR ?gObj@@3PAUOBJECTSTRUCT@@A ; gObj
  000f0	8a 94 06 46 01
	00 00		 mov	 dl, BYTE PTR [esi+eax+326]
  000f7	88 94 06 77 01
	00 00		 mov	 BYTE PTR [esi+eax+375], dl

; 848  : 
; 849  : 
; 850  : 			gObj[n].m_State = 1;

  000fe	a1 00 00 00 00	 mov	 eax, DWORD PTR ?gObj@@3PAUOBJECTSTRUCT@@A ; gObj
  00103	89 9c 06 20 02
	00 00		 mov	 DWORD PTR [esi+eax+544], ebx

; 851  : 			gObj[n].PathCount = 0;

  0010a	8b 0d 00 00 00
	00		 mov	 ecx, DWORD PTR ?gObj@@3PAUOBJECTSTRUCT@@A ; gObj
  00110	c7 84 0e 84 01
	00 00 00 00 00
	00		 mov	 DWORD PTR [esi+ecx+388], 0

; 852  : 
; 853  : 			LogAddTD("Make Golden Twintail : %d, %d,%d",
; 854  : 				MapNumber, gObj[n].X, gObj[n].Y);

  0011b	a1 00 00 00 00	 mov	 eax, DWORD PTR ?gObj@@3PAUOBJECTSTRUCT@@A ; gObj
  00120	0f bf 94 06 46
	01 00 00	 movsx	 edx, WORD PTR [esi+eax+326]
  00128	0f bf 84 06 44
	01 00 00	 movsx	 eax, WORD PTR [esi+eax+324]
  00130	52		 push	 edx
  00131	50		 push	 eax
  00132	6a 26		 push	 38			; 00000026H
  00134	68 00 00 00 00	 push	 OFFSET ??_C@_0CB@CCGIMCLF@Make?5Golden?5Twintail?5?3?5?$CFd?0?5?$CFd?0?$CFd@
  00139	ff 15 00 00 00
	00		 call	 DWORD PTR ?LogAddTD@@3P6AXPADZZA ; LogAddTD
  0013f	a1 00 00 00 00	 mov	 eax, DWORD PTR ?gObj@@3PAUOBJECTSTRUCT@@A ; gObj
  00144	83 c4 10	 add	 esp, 16			; 00000010H
$LN5@RegenGolde@6:

; 825  : 	int n=0;
; 826  : 	int MapNumber;
; 827  : 
; 828  : 	for (n=0;n<OBJ_MAXMONSTER;n++)

  00147	81 c6 50 2b 00
	00		 add	 esi, 11088		; 00002b50H
  0014d	81 fe 80 76 97
	08		 cmp	 esi, 144144000		; 08977680H
  00153	0f 8c b7 fe ff
	ff		 jl	 $LL6@RegenGolde@6

; 855  : 		}
; 856  : 	}
; 857  : }

  00159	5e		 pop	 esi
  0015a	5b		 pop	 ebx
  0015b	c3		 ret	 0
?RegenGoldenTwintail@CEledoradoEvent@@QAEXXZ ENDP	; CEledoradoEvent::RegenGoldenTwintail
_TEXT	ENDS
PUBLIC	??_C@_0CD@HFHDLHIH@Make?5Golden?5IronKnight?5?3?5?$CFd?0?5?$CFd?0@ ; `string'
PUBLIC	?RegenGoldenIronKnight@CEledoradoEvent@@QAEXXZ	; CEledoradoEvent::RegenGoldenIronKnight
;	COMDAT ??_C@_0CD@HFHDLHIH@Make?5Golden?5IronKnight?5?3?5?$CFd?0?5?$CFd?0@
CONST	SEGMENT
??_C@_0CD@HFHDLHIH@Make?5Golden?5IronKnight?5?3?5?$CFd?0?5?$CFd?0@ DB 'Ma'
	DB	'ke Golden IronKnight : %d, %d,%d', 00H	; `string'
; Function compile flags: /Ogtp
CONST	ENDS
;	COMDAT ?RegenGoldenIronKnight@CEledoradoEvent@@QAEXXZ
_TEXT	SEGMENT
?RegenGoldenIronKnight@CEledoradoEvent@@QAEXXZ PROC	; CEledoradoEvent::RegenGoldenIronKnight, COMDAT
; _this$ = ecx

; 861  : 	int n=0;
; 862  : 	int MapNumber;
; 863  : 
; 864  : 	for (n=0;n<OBJ_MAXMONSTER;n++)

  00000	a1 00 00 00 00	 mov	 eax, DWORD PTR ?gObj@@3PAUOBJECTSTRUCT@@A ; gObj
  00005	53		 push	 ebx
  00006	56		 push	 esi
  00007	33 f6		 xor	 esi, esi
  00009	8d 5e 01	 lea	 ebx, DWORD PTR [esi+1]
  0000c	8d 64 24 00	 npad	 4
$LL6@RegenGolde@7:

; 865  : 	{
; 866  : 		if ( gObj[n].Class == 499 )	// 

  00010	b9 f3 01 00 00	 mov	 ecx, 499		; 000001f3H
  00015	66 39 8c 06 b8
	00 00 00	 cmp	 WORD PTR [esi+eax+184], cx
  0001d	0f 85 24 01 00
	00		 jne	 $LN5@RegenGolde@7

; 867  : 		{
; 868  : 			gObj[n].Live = TRUE;

  00023	88 5c 06 6a	 mov	 BYTE PTR [esi+eax+106], bl

; 869  : 			MapNumber = MAP_INDEX_RAKLION;
; 870  : 			gObj[n].MapNumber = MapNumber;

  00027	8b 15 00 00 00
	00		 mov	 edx, DWORD PTR ?gObj@@3PAUOBJECTSTRUCT@@A ; gObj
  0002d	c6 84 16 49 01
	00 00 39	 mov	 BYTE PTR [esi+edx+329], 57 ; 00000039H
  00035	eb 09 8d a4 24
	00 00 00 00 8b
	ff		 npad	 11
$LL2@RegenGolde@7:

; 871  : 
; 872  : 			while ( gMSetBase.GetBoxPosition(MapNumber, 1, 1, 255, 255, gObj[n].X, gObj[n].Y) == 0 )

  00040	a1 00 00 00 00	 mov	 eax, DWORD PTR ?gObj@@3PAUOBJECTSTRUCT@@A ; gObj
  00045	8d 8c 06 46 01
	00 00		 lea	 ecx, DWORD PTR [esi+eax+326]
  0004c	51		 push	 ecx
  0004d	8d 94 06 44 01
	00 00		 lea	 edx, DWORD PTR [esi+eax+324]
  00054	52		 push	 edx
  00055	68 ff 00 00 00	 push	 255			; 000000ffH
  0005a	68 ff 00 00 00	 push	 255			; 000000ffH
  0005f	53		 push	 ebx
  00060	53		 push	 ebx
  00061	6a 39		 push	 57			; 00000039H
  00063	b9 00 00 00 00	 mov	 ecx, OFFSET ?gMSetBase@@3VCMonsterSetBase@@A ; gMSetBase
  00068	e8 00 00 00 00	 call	 ?GetBoxPosition@CMonsterSetBase@@QAEHHHHHHAAF0@Z ; CMonsterSetBase::GetBoxPosition
  0006d	85 c0		 test	 eax, eax
  0006f	74 cf		 je	 SHORT $LL2@RegenGolde@7

; 873  : 			{
; 874  : 
; 875  : 			}
; 876  : 
; 877  : 			gObj[n].Life = gObj[n].MaxLife;

  00071	a1 00 00 00 00	 mov	 eax, DWORD PTR ?gObj@@3PAUOBJECTSTRUCT@@A ; gObj
  00076	d9 84 06 00 01
	00 00		 fld	 DWORD PTR [esi+eax+256]
  0007d	d9 9c 06 fc 00
	00 00		 fstp	 DWORD PTR [esi+eax+252]

; 878  : 			gObj[n].TX = gObj[n].X;

  00084	a1 00 00 00 00	 mov	 eax, DWORD PTR ?gObj@@3PAUOBJECTSTRUCT@@A ; gObj
  00089	0f b7 8c 06 44
	01 00 00	 movzx	 ecx, WORD PTR [esi+eax+324]
  00091	66 89 8c 06 7c
	01 00 00	 mov	 WORD PTR [esi+eax+380], cx

; 879  : 			gObj[n].TY = gObj[n].Y;

  00099	a1 00 00 00 00	 mov	 eax, DWORD PTR ?gObj@@3PAUOBJECTSTRUCT@@A ; gObj
  0009e	0f b7 94 06 46
	01 00 00	 movzx	 edx, WORD PTR [esi+eax+326]
  000a6	66 89 94 06 7e
	01 00 00	 mov	 WORD PTR [esi+eax+382], dx

; 880  : 			gObj[n].MTX = gObj[n].X;

  000ae	a1 00 00 00 00	 mov	 eax, DWORD PTR ?gObj@@3PAUOBJECTSTRUCT@@A ; gObj
  000b3	0f b7 8c 06 44
	01 00 00	 movzx	 ecx, WORD PTR [esi+eax+324]
  000bb	66 89 8c 06 80
	01 00 00	 mov	 WORD PTR [esi+eax+384], cx

; 881  : 			gObj[n].MTY = gObj[n].Y;

  000c3	a1 00 00 00 00	 mov	 eax, DWORD PTR ?gObj@@3PAUOBJECTSTRUCT@@A ; gObj
  000c8	0f b7 94 06 46
	01 00 00	 movzx	 edx, WORD PTR [esi+eax+326]
  000d0	66 89 94 06 82
	01 00 00	 mov	 WORD PTR [esi+eax+386], dx

; 882  : 			gObj[n].StartX = gObj[n].X;

  000d8	a1 00 00 00 00	 mov	 eax, DWORD PTR ?gObj@@3PAUOBJECTSTRUCT@@A ; gObj
  000dd	8a 8c 06 44 01
	00 00		 mov	 cl, BYTE PTR [esi+eax+324]
  000e4	88 8c 06 76 01
	00 00		 mov	 BYTE PTR [esi+eax+374], cl

; 883  : 			gObj[n].StartY = gObj[n].Y;

  000eb	a1 00 00 00 00	 mov	 eax, DWORD PTR ?gObj@@3PAUOBJECTSTRUCT@@A ; gObj
  000f0	8a 94 06 46 01
	00 00		 mov	 dl, BYTE PTR [esi+eax+326]
  000f7	88 94 06 77 01
	00 00		 mov	 BYTE PTR [esi+eax+375], dl

; 884  : 
; 885  : 
; 886  : 			gObj[n].m_State = 1;

  000fe	a1 00 00 00 00	 mov	 eax, DWORD PTR ?gObj@@3PAUOBJECTSTRUCT@@A ; gObj
  00103	89 9c 06 20 02
	00 00		 mov	 DWORD PTR [esi+eax+544], ebx

; 887  : 			gObj[n].PathCount = 0;

  0010a	8b 0d 00 00 00
	00		 mov	 ecx, DWORD PTR ?gObj@@3PAUOBJECTSTRUCT@@A ; gObj
  00110	c7 84 0e 84 01
	00 00 00 00 00
	00		 mov	 DWORD PTR [esi+ecx+388], 0

; 888  : 
; 889  : 			LogAddTD("Make Golden IronKnight : %d, %d,%d",
; 890  : 				MapNumber, gObj[n].X, gObj[n].Y);

  0011b	a1 00 00 00 00	 mov	 eax, DWORD PTR ?gObj@@3PAUOBJECTSTRUCT@@A ; gObj
  00120	0f bf 94 06 46
	01 00 00	 movsx	 edx, WORD PTR [esi+eax+326]
  00128	0f bf 84 06 44
	01 00 00	 movsx	 eax, WORD PTR [esi+eax+324]
  00130	52		 push	 edx
  00131	50		 push	 eax
  00132	6a 39		 push	 57			; 00000039H
  00134	68 00 00 00 00	 push	 OFFSET ??_C@_0CD@HFHDLHIH@Make?5Golden?5IronKnight?5?3?5?$CFd?0?5?$CFd?0@
  00139	ff 15 00 00 00
	00		 call	 DWORD PTR ?LogAddTD@@3P6AXPADZZA ; LogAddTD
  0013f	a1 00 00 00 00	 mov	 eax, DWORD PTR ?gObj@@3PAUOBJECTSTRUCT@@A ; gObj
  00144	83 c4 10	 add	 esp, 16			; 00000010H
$LN5@RegenGolde@7:

; 861  : 	int n=0;
; 862  : 	int MapNumber;
; 863  : 
; 864  : 	for (n=0;n<OBJ_MAXMONSTER;n++)

  00147	81 c6 50 2b 00
	00		 add	 esi, 11088		; 00002b50H
  0014d	81 fe 80 76 97
	08		 cmp	 esi, 144144000		; 08977680H
  00153	0f 8c b7 fe ff
	ff		 jl	 $LL6@RegenGolde@7

; 891  : 		}
; 892  : 	}
; 893  : }

  00159	5e		 pop	 esi
  0015a	5b		 pop	 ebx
  0015b	c3		 ret	 0
?RegenGoldenIronKnight@CEledoradoEvent@@QAEXXZ ENDP	; CEledoradoEvent::RegenGoldenIronKnight
_TEXT	ENDS
PUBLIC	??_C@_0BP@OPFHHCOG@Make?5Golden?5Neipin?5?3?5?$CFd?0?5?$CFd?0?$CFd?$AA@ ; `string'
PUBLIC	?RegenGoldenNeipin@CEledoradoEvent@@QAEXXZ	; CEledoradoEvent::RegenGoldenNeipin
;	COMDAT ??_C@_0BP@OPFHHCOG@Make?5Golden?5Neipin?5?3?5?$CFd?0?5?$CFd?0?$CFd?$AA@
CONST	SEGMENT
??_C@_0BP@OPFHHCOG@Make?5Golden?5Neipin?5?3?5?$CFd?0?5?$CFd?0?$CFd?$AA@ DB 'M'
	DB	'ake Golden Neipin : %d, %d,%d', 00H		; `string'
; Function compile flags: /Ogtp
CONST	ENDS
;	COMDAT ?RegenGoldenNeipin@CEledoradoEvent@@QAEXXZ
_TEXT	SEGMENT
?RegenGoldenNeipin@CEledoradoEvent@@QAEXXZ PROC		; CEledoradoEvent::RegenGoldenNeipin, COMDAT
; _this$ = ecx

; 897  : 	int n=0;
; 898  : 	int MapNumber;
; 899  : 
; 900  : 	for (n=0;n<OBJ_MAXMONSTER;n++)

  00000	a1 00 00 00 00	 mov	 eax, DWORD PTR ?gObj@@3PAUOBJECTSTRUCT@@A ; gObj
  00005	53		 push	 ebx
  00006	56		 push	 esi
  00007	33 f6		 xor	 esi, esi
  00009	8d 5e 01	 lea	 ebx, DWORD PTR [esi+1]
  0000c	8d 64 24 00	 npad	 4
$LL6@RegenGolde@8:

; 901  : 	{
; 902  : 		if ( gObj[n].Class == 500 )	// 

  00010	b9 f4 01 00 00	 mov	 ecx, 500		; 000001f4H
  00015	66 39 8c 06 b8
	00 00 00	 cmp	 WORD PTR [esi+eax+184], cx
  0001d	0f 85 24 01 00
	00		 jne	 $LN5@RegenGolde@8

; 903  : 		{
; 904  : 			gObj[n].Live = TRUE;

  00023	88 5c 06 6a	 mov	 BYTE PTR [esi+eax+106], bl

; 905  : 			MapNumber = MAP_INDEX_SWAMPOFCALMNESS;
; 906  : 			gObj[n].MapNumber = MapNumber;

  00027	8b 15 00 00 00
	00		 mov	 edx, DWORD PTR ?gObj@@3PAUOBJECTSTRUCT@@A ; gObj
  0002d	c6 84 16 49 01
	00 00 38	 mov	 BYTE PTR [esi+edx+329], 56 ; 00000038H
  00035	eb 09 8d a4 24
	00 00 00 00 8b
	ff		 npad	 11
$LL2@RegenGolde@8:

; 907  : 
; 908  : 			while ( gMSetBase.GetBoxPosition(MapNumber, 1, 1, 255, 255, gObj[n].X, gObj[n].Y) == 0 )

  00040	a1 00 00 00 00	 mov	 eax, DWORD PTR ?gObj@@3PAUOBJECTSTRUCT@@A ; gObj
  00045	8d 8c 06 46 01
	00 00		 lea	 ecx, DWORD PTR [esi+eax+326]
  0004c	51		 push	 ecx
  0004d	8d 94 06 44 01
	00 00		 lea	 edx, DWORD PTR [esi+eax+324]
  00054	52		 push	 edx
  00055	68 ff 00 00 00	 push	 255			; 000000ffH
  0005a	68 ff 00 00 00	 push	 255			; 000000ffH
  0005f	53		 push	 ebx
  00060	53		 push	 ebx
  00061	6a 38		 push	 56			; 00000038H
  00063	b9 00 00 00 00	 mov	 ecx, OFFSET ?gMSetBase@@3VCMonsterSetBase@@A ; gMSetBase
  00068	e8 00 00 00 00	 call	 ?GetBoxPosition@CMonsterSetBase@@QAEHHHHHHAAF0@Z ; CMonsterSetBase::GetBoxPosition
  0006d	85 c0		 test	 eax, eax
  0006f	74 cf		 je	 SHORT $LL2@RegenGolde@8

; 909  : 			{
; 910  : 
; 911  : 			}
; 912  : 
; 913  : 			gObj[n].Life = gObj[n].MaxLife;

  00071	a1 00 00 00 00	 mov	 eax, DWORD PTR ?gObj@@3PAUOBJECTSTRUCT@@A ; gObj
  00076	d9 84 06 00 01
	00 00		 fld	 DWORD PTR [esi+eax+256]
  0007d	d9 9c 06 fc 00
	00 00		 fstp	 DWORD PTR [esi+eax+252]

; 914  : 			gObj[n].TX = gObj[n].X;

  00084	a1 00 00 00 00	 mov	 eax, DWORD PTR ?gObj@@3PAUOBJECTSTRUCT@@A ; gObj
  00089	0f b7 8c 06 44
	01 00 00	 movzx	 ecx, WORD PTR [esi+eax+324]
  00091	66 89 8c 06 7c
	01 00 00	 mov	 WORD PTR [esi+eax+380], cx

; 915  : 			gObj[n].TY = gObj[n].Y;

  00099	a1 00 00 00 00	 mov	 eax, DWORD PTR ?gObj@@3PAUOBJECTSTRUCT@@A ; gObj
  0009e	0f b7 94 06 46
	01 00 00	 movzx	 edx, WORD PTR [esi+eax+326]
  000a6	66 89 94 06 7e
	01 00 00	 mov	 WORD PTR [esi+eax+382], dx

; 916  : 			gObj[n].MTX = gObj[n].X;

  000ae	a1 00 00 00 00	 mov	 eax, DWORD PTR ?gObj@@3PAUOBJECTSTRUCT@@A ; gObj
  000b3	0f b7 8c 06 44
	01 00 00	 movzx	 ecx, WORD PTR [esi+eax+324]
  000bb	66 89 8c 06 80
	01 00 00	 mov	 WORD PTR [esi+eax+384], cx

; 917  : 			gObj[n].MTY = gObj[n].Y;

  000c3	a1 00 00 00 00	 mov	 eax, DWORD PTR ?gObj@@3PAUOBJECTSTRUCT@@A ; gObj
  000c8	0f b7 94 06 46
	01 00 00	 movzx	 edx, WORD PTR [esi+eax+326]
  000d0	66 89 94 06 82
	01 00 00	 mov	 WORD PTR [esi+eax+386], dx

; 918  : 			gObj[n].StartX = gObj[n].X;

  000d8	a1 00 00 00 00	 mov	 eax, DWORD PTR ?gObj@@3PAUOBJECTSTRUCT@@A ; gObj
  000dd	8a 8c 06 44 01
	00 00		 mov	 cl, BYTE PTR [esi+eax+324]
  000e4	88 8c 06 76 01
	00 00		 mov	 BYTE PTR [esi+eax+374], cl

; 919  : 			gObj[n].StartY = gObj[n].Y;

  000eb	a1 00 00 00 00	 mov	 eax, DWORD PTR ?gObj@@3PAUOBJECTSTRUCT@@A ; gObj
  000f0	8a 94 06 46 01
	00 00		 mov	 dl, BYTE PTR [esi+eax+326]
  000f7	88 94 06 77 01
	00 00		 mov	 BYTE PTR [esi+eax+375], dl

; 920  : 
; 921  : 
; 922  : 			gObj[n].m_State = 1;

  000fe	a1 00 00 00 00	 mov	 eax, DWORD PTR ?gObj@@3PAUOBJECTSTRUCT@@A ; gObj
  00103	89 9c 06 20 02
	00 00		 mov	 DWORD PTR [esi+eax+544], ebx

; 923  : 			gObj[n].PathCount = 0;

  0010a	8b 0d 00 00 00
	00		 mov	 ecx, DWORD PTR ?gObj@@3PAUOBJECTSTRUCT@@A ; gObj
  00110	c7 84 0e 84 01
	00 00 00 00 00
	00		 mov	 DWORD PTR [esi+ecx+388], 0

; 924  : 
; 925  : 			LogAddTD("Make Golden Neipin : %d, %d,%d",
; 926  : 				MapNumber, gObj[n].X, gObj[n].Y);

  0011b	a1 00 00 00 00	 mov	 eax, DWORD PTR ?gObj@@3PAUOBJECTSTRUCT@@A ; gObj
  00120	0f bf 94 06 46
	01 00 00	 movsx	 edx, WORD PTR [esi+eax+326]
  00128	0f bf 84 06 44
	01 00 00	 movsx	 eax, WORD PTR [esi+eax+324]
  00130	52		 push	 edx
  00131	50		 push	 eax
  00132	6a 38		 push	 56			; 00000038H
  00134	68 00 00 00 00	 push	 OFFSET ??_C@_0BP@OPFHHCOG@Make?5Golden?5Neipin?5?3?5?$CFd?0?5?$CFd?0?$CFd?$AA@
  00139	ff 15 00 00 00
	00		 call	 DWORD PTR ?LogAddTD@@3P6AXPADZZA ; LogAddTD
  0013f	a1 00 00 00 00	 mov	 eax, DWORD PTR ?gObj@@3PAUOBJECTSTRUCT@@A ; gObj
  00144	83 c4 10	 add	 esp, 16			; 00000010H
$LN5@RegenGolde@8:

; 897  : 	int n=0;
; 898  : 	int MapNumber;
; 899  : 
; 900  : 	for (n=0;n<OBJ_MAXMONSTER;n++)

  00147	81 c6 50 2b 00
	00		 add	 esi, 11088		; 00002b50H
  0014d	81 fe 80 76 97
	08		 cmp	 esi, 144144000		; 08977680H
  00153	0f 8c b7 fe ff
	ff		 jl	 $LL6@RegenGolde@8

; 927  : 		}
; 928  : 	}
; 929  : }

  00159	5e		 pop	 esi
  0015a	5b		 pop	 ebx
  0015b	c3		 ret	 0
?RegenGoldenNeipin@CEledoradoEvent@@QAEXXZ ENDP		; CEledoradoEvent::RegenGoldenNeipin
_TEXT	ENDS
PUBLIC	??_C@_0CF@NFLGABAN@Make?5Golden?5Great?5Dragon?5?3?5?$CFd?0?5?$CF@ ; `string'
PUBLIC	?RegenGoldenGreatDragon@CEledoradoEvent@@QAEXXZ	; CEledoradoEvent::RegenGoldenGreatDragon
EXTRN	_rand:PROC
;	COMDAT ??_C@_0CF@NFLGABAN@Make?5Golden?5Great?5Dragon?5?3?5?$CFd?0?5?$CF@
CONST	SEGMENT
??_C@_0CF@NFLGABAN@Make?5Golden?5Great?5Dragon?5?3?5?$CFd?0?5?$CF@ DB 'Ma'
	DB	'ke Golden Great Dragon : %d, %d,%d', 00H	; `string'
; Function compile flags: /Ogtp
CONST	ENDS
;	COMDAT ?RegenGoldenGreatDragon@CEledoradoEvent@@QAEXXZ
_TEXT	SEGMENT
_Map$ = -8						; size = 8
?RegenGoldenGreatDragon@CEledoradoEvent@@QAEXXZ PROC	; CEledoradoEvent::RegenGoldenGreatDragon, COMDAT
; _this$ = ecx

; 932  : {

  00000	55		 push	 ebp
  00001	8b ec		 mov	 ebp, esp
  00003	83 ec 08	 sub	 esp, 8

; 933  : 	int n=0;
; 934  : 	int MapNumber;
; 935  : 	int Map[2] = {MAP_INDEX_KANTURU1,MAP_INDEX_RAKLION};

  00006	a1 00 00 00 00	 mov	 eax, DWORD PTR ?gObj@@3PAUOBJECTSTRUCT@@A ; gObj
  0000b	53		 push	 ebx
  0000c	56		 push	 esi
  0000d	c7 45 f8 25 00
	00 00		 mov	 DWORD PTR _Map$[ebp], 37 ; 00000025H
  00014	c7 45 fc 39 00
	00 00		 mov	 DWORD PTR _Map$[ebp+4], 57 ; 00000039H
  0001b	33 f6		 xor	 esi, esi
  0001d	8d 49 00	 npad	 3
$LL6@RegenGolde@9:

; 938  : 	{
; 939  : 		if ( gObj[n].Class == 501 )	// 

  00020	b9 f5 01 00 00	 mov	 ecx, 501		; 000001f5H
  00025	66 39 8c 06 b8
	00 00 00	 cmp	 WORD PTR [esi+eax+184], cx
  0002d	0f 85 38 01 00
	00		 jne	 $LN5@RegenGolde@9

; 940  : 		{
; 941  : 			gObj[n].Live = TRUE;

  00033	c6 44 06 6a 01	 mov	 BYTE PTR [esi+eax+106], 1

; 942  : 			MapNumber = Map[rand()%2];

  00038	e8 00 00 00 00	 call	 _rand
  0003d	25 01 00 00 80	 and	 eax, -2147483647	; 80000001H
  00042	79 05		 jns	 SHORT $LN12@RegenGolde@9
  00044	48		 dec	 eax
  00045	83 c8 fe	 or	 eax, -2			; fffffffeH
  00048	40		 inc	 eax
$LN12@RegenGolde@9:
  00049	8b 5c 85 f8	 mov	 ebx, DWORD PTR _Map$[ebp+eax*4]

; 943  : 			gObj[n].MapNumber = MapNumber;

  0004d	8b 15 00 00 00
	00		 mov	 edx, DWORD PTR ?gObj@@3PAUOBJECTSTRUCT@@A ; gObj
  00053	88 9c 16 49 01
	00 00		 mov	 BYTE PTR [esi+edx+329], bl
  0005a	8d 9b 00 00 00
	00		 npad	 6
$LL2@RegenGolde@9:

; 944  : 
; 945  : 			while ( gMSetBase.GetBoxPosition(MapNumber, 1, 1, 255, 255, gObj[n].X, gObj[n].Y) == 0 )

  00060	a1 00 00 00 00	 mov	 eax, DWORD PTR ?gObj@@3PAUOBJECTSTRUCT@@A ; gObj
  00065	8d 8c 06 46 01
	00 00		 lea	 ecx, DWORD PTR [esi+eax+326]
  0006c	51		 push	 ecx
  0006d	8d 94 06 44 01
	00 00		 lea	 edx, DWORD PTR [esi+eax+324]
  00074	52		 push	 edx
  00075	68 ff 00 00 00	 push	 255			; 000000ffH
  0007a	68 ff 00 00 00	 push	 255			; 000000ffH
  0007f	6a 01		 push	 1
  00081	6a 01		 push	 1
  00083	53		 push	 ebx
  00084	b9 00 00 00 00	 mov	 ecx, OFFSET ?gMSetBase@@3VCMonsterSetBase@@A ; gMSetBase
  00089	e8 00 00 00 00	 call	 ?GetBoxPosition@CMonsterSetBase@@QAEHHHHHHAAF0@Z ; CMonsterSetBase::GetBoxPosition
  0008e	85 c0		 test	 eax, eax
  00090	74 ce		 je	 SHORT $LL2@RegenGolde@9

; 946  : 			{
; 947  : 
; 948  : 			}
; 949  : 
; 950  : 			gObj[n].Life = gObj[n].MaxLife;

  00092	a1 00 00 00 00	 mov	 eax, DWORD PTR ?gObj@@3PAUOBJECTSTRUCT@@A ; gObj
  00097	d9 84 06 00 01
	00 00		 fld	 DWORD PTR [esi+eax+256]
  0009e	d9 9c 06 fc 00
	00 00		 fstp	 DWORD PTR [esi+eax+252]

; 951  : 			gObj[n].TX = gObj[n].X;

  000a5	a1 00 00 00 00	 mov	 eax, DWORD PTR ?gObj@@3PAUOBJECTSTRUCT@@A ; gObj
  000aa	0f b7 8c 06 44
	01 00 00	 movzx	 ecx, WORD PTR [esi+eax+324]
  000b2	66 89 8c 06 7c
	01 00 00	 mov	 WORD PTR [esi+eax+380], cx

; 952  : 			gObj[n].TY = gObj[n].Y;

  000ba	a1 00 00 00 00	 mov	 eax, DWORD PTR ?gObj@@3PAUOBJECTSTRUCT@@A ; gObj
  000bf	0f b7 94 06 46
	01 00 00	 movzx	 edx, WORD PTR [esi+eax+326]
  000c7	66 89 94 06 7e
	01 00 00	 mov	 WORD PTR [esi+eax+382], dx

; 953  : 			gObj[n].MTX = gObj[n].X;

  000cf	a1 00 00 00 00	 mov	 eax, DWORD PTR ?gObj@@3PAUOBJECTSTRUCT@@A ; gObj
  000d4	0f b7 8c 06 44
	01 00 00	 movzx	 ecx, WORD PTR [esi+eax+324]
  000dc	66 89 8c 06 80
	01 00 00	 mov	 WORD PTR [esi+eax+384], cx

; 954  : 			gObj[n].MTY = gObj[n].Y;

  000e4	a1 00 00 00 00	 mov	 eax, DWORD PTR ?gObj@@3PAUOBJECTSTRUCT@@A ; gObj
  000e9	0f b7 94 06 46
	01 00 00	 movzx	 edx, WORD PTR [esi+eax+326]
  000f1	66 89 94 06 82
	01 00 00	 mov	 WORD PTR [esi+eax+386], dx

; 955  : 			gObj[n].StartX = gObj[n].X;

  000f9	a1 00 00 00 00	 mov	 eax, DWORD PTR ?gObj@@3PAUOBJECTSTRUCT@@A ; gObj
  000fe	8a 8c 06 44 01
	00 00		 mov	 cl, BYTE PTR [esi+eax+324]
  00105	88 8c 06 76 01
	00 00		 mov	 BYTE PTR [esi+eax+374], cl

; 956  : 			gObj[n].StartY = gObj[n].Y;

  0010c	a1 00 00 00 00	 mov	 eax, DWORD PTR ?gObj@@3PAUOBJECTSTRUCT@@A ; gObj
  00111	8a 94 06 46 01
	00 00		 mov	 dl, BYTE PTR [esi+eax+326]
  00118	88 94 06 77 01
	00 00		 mov	 BYTE PTR [esi+eax+375], dl

; 957  : 
; 958  : 
; 959  : 			gObj[n].m_State = 1;

  0011f	a1 00 00 00 00	 mov	 eax, DWORD PTR ?gObj@@3PAUOBJECTSTRUCT@@A ; gObj
  00124	c7 84 06 20 02
	00 00 01 00 00
	00		 mov	 DWORD PTR [esi+eax+544], 1

; 960  : 			gObj[n].PathCount = 0;

  0012f	8b 0d 00 00 00
	00		 mov	 ecx, DWORD PTR ?gObj@@3PAUOBJECTSTRUCT@@A ; gObj
  00135	c7 84 0e 84 01
	00 00 00 00 00
	00		 mov	 DWORD PTR [esi+ecx+388], 0

; 961  : 
; 962  : 			LogAddTD("Make Golden Great Dragon : %d, %d,%d",
; 963  : 				MapNumber, gObj[n].X, gObj[n].Y);

  00140	a1 00 00 00 00	 mov	 eax, DWORD PTR ?gObj@@3PAUOBJECTSTRUCT@@A ; gObj
  00145	0f bf 94 06 46
	01 00 00	 movsx	 edx, WORD PTR [esi+eax+326]
  0014d	0f bf 84 06 44
	01 00 00	 movsx	 eax, WORD PTR [esi+eax+324]
  00155	52		 push	 edx
  00156	50		 push	 eax
  00157	53		 push	 ebx
  00158	68 00 00 00 00	 push	 OFFSET ??_C@_0CF@NFLGABAN@Make?5Golden?5Great?5Dragon?5?3?5?$CFd?0?5?$CF@
  0015d	ff 15 00 00 00
	00		 call	 DWORD PTR ?LogAddTD@@3P6AXPADZZA ; LogAddTD
  00163	a1 00 00 00 00	 mov	 eax, DWORD PTR ?gObj@@3PAUOBJECTSTRUCT@@A ; gObj
  00168	83 c4 10	 add	 esp, 16			; 00000010H
$LN5@RegenGolde@9:

; 936  : 
; 937  : 	for (n=0;n<OBJ_MAXMONSTER;n++)

  0016b	81 c6 50 2b 00
	00		 add	 esi, 11088		; 00002b50H
  00171	81 fe 80 76 97
	08		 cmp	 esi, 144144000		; 08977680H
  00177	0f 8c a3 fe ff
	ff		 jl	 $LL6@RegenGolde@9
  0017d	5e		 pop	 esi
  0017e	5b		 pop	 ebx

; 964  : 		}
; 965  : 	}
; 966  : }

  0017f	8b e5		 mov	 esp, ebp
  00181	5d		 pop	 ebp
  00182	c3		 ret	 0
?RegenGoldenGreatDragon@CEledoradoEvent@@QAEXXZ ENDP	; CEledoradoEvent::RegenGoldenGreatDragon
_TEXT	ENDS
EXTRN	??3@YAXPAX@Z:PROC				; operator delete
; Function compile flags: /Ogtp
;	COMDAT ??_GCEledoradoEvent@@UAEPAXI@Z
_TEXT	SEGMENT
___flags$ = 8						; size = 4
??_GCEledoradoEvent@@UAEPAXI@Z PROC			; CEledoradoEvent::`scalar deleting destructor', COMDAT
; _this$ = ecx
  00000	55		 push	 ebp
  00001	8b ec		 mov	 ebp, esp
  00003	56		 push	 esi
  00004	8b f1		 mov	 esi, ecx
  00006	e8 00 00 00 00	 call	 ??1CEledoradoEvent@@UAE@XZ ; CEledoradoEvent::~CEledoradoEvent
  0000b	f6 45 08 01	 test	 BYTE PTR ___flags$[ebp], 1
  0000f	74 09		 je	 SHORT $LN4@scalar
  00011	56		 push	 esi
  00012	e8 00 00 00 00	 call	 ??3@YAXPAX@Z		; operator delete
  00017	83 c4 04	 add	 esp, 4
$LN4@scalar:
  0001a	8b c6		 mov	 eax, esi
  0001c	5e		 pop	 esi
  0001d	5d		 pop	 ebp
  0001e	c2 04 00	 ret	 4
??_GCEledoradoEvent@@UAEPAXI@Z ENDP			; CEledoradoEvent::`scalar deleting destructor'
_TEXT	ENDS
PUBLIC	??_C@_0BM@ENHJDIJM@Make?5GoldDercon?5?3?5?$CFd?0?5?$CFd?0?$CFd?$AA@ ; `string'
PUBLIC	_this$GSCopy$
PUBLIC	__$ArrayPad$
PUBLIC	?RegenGoldDercon@CEledoradoEvent@@QAEXXZ	; CEledoradoEvent::RegenGoldDercon
EXTRN	?Get@CMsg@@QAEPADH@Z:PROC			; CMsg::Get
EXTRN	?lMsg@@3VCMsg@@A:BYTE				; lMsg
EXTRN	___security_cookie:DWORD
EXTRN	@__security_check_cookie@4:PROC
;	COMDAT ??_C@_0BM@ENHJDIJM@Make?5GoldDercon?5?3?5?$CFd?0?5?$CFd?0?$CFd?$AA@
CONST	SEGMENT
??_C@_0BM@ENHJDIJM@Make?5GoldDercon?5?3?5?$CFd?0?5?$CFd?0?$CFd?$AA@ DB 'M'
	DB	'ake GoldDercon : %d, %d,%d', 00H		; `string'
; Function compile flags: /Ogtp
CONST	ENDS
;	COMDAT ?RegenGoldDercon@CEledoradoEvent@@QAEXXZ
_TEXT	SEGMENT
_Map$ = -284						; size = 8
_this$GSCopy$ = -276					; size = 4
_count$ = -272						; size = 4
tv507 = -268						; size = 4
_MapNumber$ = -264					; size = 4
_szTemp$209608 = -260					; size = 256
__$ArrayPad$ = -4					; size = 4
?RegenGoldDercon@CEledoradoEvent@@QAEXXZ PROC		; CEledoradoEvent::RegenGoldDercon, COMDAT
; _this$ = ecx

; 313  : {

  00000	55		 push	 ebp
  00001	8b ec		 mov	 ebp, esp
  00003	81 ec 1c 01 00
	00		 sub	 esp, 284		; 0000011cH
  00009	a1 00 00 00 00	 mov	 eax, DWORD PTR ___security_cookie
  0000e	33 c5		 xor	 eax, ebp
  00010	89 45 fc	 mov	 DWORD PTR __$ArrayPad$[ebp], eax
  00013	53		 push	 ebx
  00014	56		 push	 esi
  00015	57		 push	 edi

; 314  : 	int n=0;
; 315  : 	int MapNumber=-1;

  00016	83 ce ff	 or	 esi, -1

; 316  : 	int Map[2]={0,4};

  00019	33 ff		 xor	 edi, edi

; 317  : 	int SelMap = -1;
; 318  : 	int count = 0;
; 319  : 
; 320  : 	this->CheckGoldDercon(MapNumber);

  0001b	56		 push	 esi
  0001c	89 8d ec fe ff
	ff		 mov	 DWORD PTR _this$GSCopy$[ebp], ecx
  00022	89 b5 f8 fe ff
	ff		 mov	 DWORD PTR _MapNumber$[ebp], esi
  00028	89 bd e4 fe ff
	ff		 mov	 DWORD PTR _Map$[ebp], edi
  0002e	c7 85 e8 fe ff
	ff 04 00 00 00	 mov	 DWORD PTR _Map$[ebp+4], 4
  00038	89 bd f0 fe ff
	ff		 mov	 DWORD PTR _count$[ebp], edi
  0003e	e8 00 00 00 00	 call	 ?CheckGoldDercon@CEledoradoEvent@@QAEXH@Z ; CEledoradoEvent::CheckGoldDercon

; 375  : 			}
; 376  : 
; 377  : 			this->m_BossGoldDerconMapNumber[count] = MapNumber;

  00043	8b 85 ec fe ff
	ff		 mov	 eax, DWORD PTR _this$GSCopy$[ebp]
  00049	33 db		 xor	 ebx, ebx
  0004b	83 c0 6c	 add	 eax, 108		; 0000006cH
  0004e	89 85 f4 fe ff
	ff		 mov	 DWORD PTR tv507[ebp], eax
  00054	a1 00 00 00 00	 mov	 eax, DWORD PTR ?gObj@@3PAUOBJECTSTRUCT@@A ; gObj
  00059	8d a4 24 00 00
	00 00		 npad	 7
$LL14@RegenGoldD:

; 323  : 	{
; 324  : 		if ( gObj[n].Class == 79 )

  00060	66 83 bc 03 b8
	00 00 00 4f	 cmp	 WORD PTR [ebx+eax+184], 79 ; 0000004fH
  00069	0f 85 86 02 00
	00		 jne	 $LN13@RegenGoldD

; 325  : 		{
; 326  : 			gObj[n].Live = TRUE;

  0006f	c6 44 03 6a 01	 mov	 BYTE PTR [ebx+eax+106], 1

; 327  : 
; 328  : 			if ( SelMap == -1 )	

  00074	83 fe ff	 cmp	 esi, -1
  00077	75 20		 jne	 SHORT $LN10@RegenGoldD

; 329  : 			{
; 330  : 				MapNumber = Map[rand()%2];

  00079	e8 00 00 00 00	 call	 _rand
  0007e	25 01 00 00 80	 and	 eax, -2147483647	; 80000001H
  00083	79 05		 jns	 SHORT $LN29@RegenGoldD
  00085	48		 dec	 eax
  00086	83 c8 fe	 or	 eax, -2			; fffffffeH
  00089	40		 inc	 eax
$LN29@RegenGoldD:
  0008a	8b 8c 85 e4 fe
	ff ff		 mov	 ecx, DWORD PTR _Map$[ebp+eax*4]
  00091	89 8d f8 fe ff
	ff		 mov	 DWORD PTR _MapNumber$[ebp], ecx

; 331  : 			}
; 332  : 			else

  00097	eb 06		 jmp	 SHORT $LN9@RegenGoldD
$LN10@RegenGoldD:

; 333  : 			{
; 334  : 				MapNumber = SelMap;

  00099	89 b5 f8 fe ff
	ff		 mov	 DWORD PTR _MapNumber$[ebp], esi
$LN9@RegenGoldD:

; 335  : 			}
; 336  : 
; 337  : 			gObj[n].MapNumber = MapNumber;

  0009f	8b 15 00 00 00
	00		 mov	 edx, DWORD PTR ?gObj@@3PAUOBJECTSTRUCT@@A ; gObj
  000a5	8a 85 f8 fe ff
	ff		 mov	 al, BYTE PTR _MapNumber$[ebp]
  000ab	88 84 13 49 01
	00 00		 mov	 BYTE PTR [ebx+edx+329], al
$LL8@RegenGoldD:

; 338  : 
; 339  : 			while ( gMSetBase.GetBoxPosition(MapNumber, 80, 80, 170, 170, gObj[n].X, gObj[n].Y) == 0 )

  000b2	a1 00 00 00 00	 mov	 eax, DWORD PTR ?gObj@@3PAUOBJECTSTRUCT@@A ; gObj
  000b7	8d 8c 03 46 01
	00 00		 lea	 ecx, DWORD PTR [ebx+eax+326]
  000be	51		 push	 ecx
  000bf	8d 94 03 44 01
	00 00		 lea	 edx, DWORD PTR [ebx+eax+324]
  000c6	8b 85 f8 fe ff
	ff		 mov	 eax, DWORD PTR _MapNumber$[ebp]
  000cc	52		 push	 edx
  000cd	68 aa 00 00 00	 push	 170			; 000000aaH
  000d2	68 aa 00 00 00	 push	 170			; 000000aaH
  000d7	6a 50		 push	 80			; 00000050H
  000d9	6a 50		 push	 80			; 00000050H
  000db	50		 push	 eax
  000dc	b9 00 00 00 00	 mov	 ecx, OFFSET ?gMSetBase@@3VCMonsterSetBase@@A ; gMSetBase
  000e1	e8 00 00 00 00	 call	 ?GetBoxPosition@CMonsterSetBase@@QAEHHHHHHAAF0@Z ; CMonsterSetBase::GetBoxPosition
  000e6	85 c0		 test	 eax, eax
  000e8	74 c8		 je	 SHORT $LL8@RegenGoldD

; 340  : 			{
; 341  : 
; 342  : 			}
; 343  : 
; 344  : 			gObj[n].Life = gObj[n].MaxLife;

  000ea	a1 00 00 00 00	 mov	 eax, DWORD PTR ?gObj@@3PAUOBJECTSTRUCT@@A ; gObj
  000ef	d9 84 03 00 01
	00 00		 fld	 DWORD PTR [ebx+eax+256]
  000f6	d9 9c 03 fc 00
	00 00		 fstp	 DWORD PTR [ebx+eax+252]

; 345  : 			gObj[n].TX = gObj[n].X;

  000fd	a1 00 00 00 00	 mov	 eax, DWORD PTR ?gObj@@3PAUOBJECTSTRUCT@@A ; gObj
  00102	0f b7 8c 03 44
	01 00 00	 movzx	 ecx, WORD PTR [ebx+eax+324]
  0010a	66 89 8c 03 7c
	01 00 00	 mov	 WORD PTR [ebx+eax+380], cx

; 346  : 			gObj[n].TY = gObj[n].Y;

  00112	a1 00 00 00 00	 mov	 eax, DWORD PTR ?gObj@@3PAUOBJECTSTRUCT@@A ; gObj
  00117	0f b7 94 03 46
	01 00 00	 movzx	 edx, WORD PTR [ebx+eax+326]
  0011f	66 89 94 03 7e
	01 00 00	 mov	 WORD PTR [ebx+eax+382], dx

; 347  : 			gObj[n].MTX = gObj[n].X;

  00127	a1 00 00 00 00	 mov	 eax, DWORD PTR ?gObj@@3PAUOBJECTSTRUCT@@A ; gObj
  0012c	0f b7 8c 03 44
	01 00 00	 movzx	 ecx, WORD PTR [ebx+eax+324]
  00134	66 89 8c 03 80
	01 00 00	 mov	 WORD PTR [ebx+eax+384], cx

; 348  : 			gObj[n].MTY = gObj[n].Y;

  0013c	a1 00 00 00 00	 mov	 eax, DWORD PTR ?gObj@@3PAUOBJECTSTRUCT@@A ; gObj
  00141	0f b7 94 03 46
	01 00 00	 movzx	 edx, WORD PTR [ebx+eax+326]
  00149	66 89 94 03 82
	01 00 00	 mov	 WORD PTR [ebx+eax+386], dx

; 349  : 			gObj[n].StartX = gObj[n].X;

  00151	a1 00 00 00 00	 mov	 eax, DWORD PTR ?gObj@@3PAUOBJECTSTRUCT@@A ; gObj
  00156	8a 8c 03 44 01
	00 00		 mov	 cl, BYTE PTR [ebx+eax+324]
  0015d	88 8c 03 76 01
	00 00		 mov	 BYTE PTR [ebx+eax+374], cl

; 350  : 			gObj[n].StartY = gObj[n].Y;

  00164	a1 00 00 00 00	 mov	 eax, DWORD PTR ?gObj@@3PAUOBJECTSTRUCT@@A ; gObj
  00169	8a 94 03 46 01
	00 00		 mov	 dl, BYTE PTR [ebx+eax+326]
  00170	88 94 03 77 01
	00 00		 mov	 BYTE PTR [ebx+eax+375], dl

; 351  : 			gObj[n].m_State = 1;

  00177	a1 00 00 00 00	 mov	 eax, DWORD PTR ?gObj@@3PAUOBJECTSTRUCT@@A ; gObj
  0017c	c7 84 03 20 02
	00 00 01 00 00
	00		 mov	 DWORD PTR [ebx+eax+544], 1

; 352  : 			gObj[n].PathCount = 0;

  00187	8b 0d 00 00 00
	00		 mov	 ecx, DWORD PTR ?gObj@@3PAUOBJECTSTRUCT@@A ; gObj
  0018d	89 bc 0b 84 01
	00 00		 mov	 DWORD PTR [ebx+ecx+388], edi

; 353  : 
; 354  : 			LogAddTD("Make GoldDercon : %d, %d,%d",	MapNumber, gObj[n].X, gObj[n].Y);

  00194	a1 00 00 00 00	 mov	 eax, DWORD PTR ?gObj@@3PAUOBJECTSTRUCT@@A ; gObj
  00199	0f bf 94 03 46
	01 00 00	 movsx	 edx, WORD PTR [ebx+eax+326]
  001a1	0f bf 84 03 44
	01 00 00	 movsx	 eax, WORD PTR [ebx+eax+324]
  001a9	8b 8d f8 fe ff
	ff		 mov	 ecx, DWORD PTR _MapNumber$[ebp]
  001af	52		 push	 edx
  001b0	50		 push	 eax
  001b1	51		 push	 ecx
  001b2	68 00 00 00 00	 push	 OFFSET ??_C@_0BM@ENHJDIJM@Make?5GoldDercon?5?3?5?$CFd?0?5?$CFd?0?$CFd?$AA@
  001b7	ff 15 00 00 00
	00		 call	 DWORD PTR ?LogAddTD@@3P6AXPADZZA ; LogAddTD
  001bd	83 c4 10	 add	 esp, 16			; 00000010H

; 355  : 
; 356  : 			if ( SelMap == -1 )

  001c0	83 fe ff	 cmp	 esi, -1
  001c3	0f 85 f6 00 00
	00		 jne	 $LN6@RegenGoldD

; 357  : 			{
; 358  : 				char szTemp[256];
; 359  : 				strcpy(szTemp, " ");
; 360  : 
; 361  : 				switch ( MapNumber )

  001c9	8b 85 f8 fe ff
	ff		 mov	 eax, DWORD PTR _MapNumber$[ebp]
  001cf	2b c7		 sub	 eax, edi
  001d1	ba 20 00 00 00	 mov	 edx, 32			; 00000020H
  001d6	66 89 95 fc fe
	ff ff		 mov	 WORD PTR _szTemp$209608[ebp], dx
  001dd	74 6b		 je	 SHORT $LN3@RegenGoldD
  001df	83 e8 02	 sub	 eax, 2
  001e2	74 36		 je	 SHORT $LN2@RegenGoldD
  001e4	48		 dec	 eax
  001e5	0f 85 9b 00 00
	00		 jne	 $LN4@RegenGoldD

; 369  : 					case 3:
; 370  : 						strcat(szTemp, lMsg.Get(MSGGET(7, 211)));

  001eb	68 d3 07 00 00	 push	 2003			; 000007d3H
  001f0	b9 00 00 00 00	 mov	 ecx, OFFSET ?lMsg@@3VCMsg@@A ; lMsg
  001f5	e8 00 00 00 00	 call	 ?Get@CMsg@@QAEPADH@Z	; CMsg::Get
  001fa	8b f0		 mov	 esi, eax
  001fc	8d 64 24 00	 npad	 4
$LL20@RegenGoldD:
  00200	8a 08		 mov	 cl, BYTE PTR [eax]
  00202	40		 inc	 eax
  00203	84 c9		 test	 cl, cl
  00205	75 f9		 jne	 SHORT $LL20@RegenGoldD
  00207	8d bd fc fe ff
	ff		 lea	 edi, DWORD PTR _szTemp$209608[ebp]
  0020d	2b c6		 sub	 eax, esi
  0020f	4f		 dec	 edi
$LL21@RegenGoldD:
  00210	8a 4f 01	 mov	 cl, BYTE PTR [edi+1]
  00213	47		 inc	 edi
  00214	84 c9		 test	 cl, cl
  00216	75 f8		 jne	 SHORT $LL21@RegenGoldD

; 371  : 						break;

  00218	eb 5e		 jmp	 SHORT $LN30@RegenGoldD
$LN2@RegenGoldD:

; 365  : 						break;
; 366  : 					case 2:
; 367  : 						strcat(szTemp, lMsg.Get(MSGGET(7, 210)));

  0021a	68 d2 07 00 00	 push	 2002			; 000007d2H
  0021f	b9 00 00 00 00	 mov	 ecx, OFFSET ?lMsg@@3VCMsg@@A ; lMsg
  00224	e8 00 00 00 00	 call	 ?Get@CMsg@@QAEPADH@Z	; CMsg::Get
  00229	8b f0		 mov	 esi, eax
  0022b	eb 03 8d 49 00	 npad	 5
$LL22@RegenGoldD:
  00230	8a 08		 mov	 cl, BYTE PTR [eax]
  00232	40		 inc	 eax
  00233	84 c9		 test	 cl, cl
  00235	75 f9		 jne	 SHORT $LL22@RegenGoldD
  00237	8d bd fc fe ff
	ff		 lea	 edi, DWORD PTR _szTemp$209608[ebp]
  0023d	2b c6		 sub	 eax, esi
  0023f	4f		 dec	 edi
$LL23@RegenGoldD:
  00240	8a 4f 01	 mov	 cl, BYTE PTR [edi+1]
  00243	47		 inc	 edi
  00244	84 c9		 test	 cl, cl
  00246	75 f8		 jne	 SHORT $LL23@RegenGoldD

; 368  : 						break;

  00248	eb 2e		 jmp	 SHORT $LN30@RegenGoldD
$LN3@RegenGoldD:

; 362  : 				{
; 363  : 					case 0:
; 364  : 						strcat(szTemp, lMsg.Get(MSGGET(7, 208)));

  0024a	68 d0 07 00 00	 push	 2000			; 000007d0H
  0024f	b9 00 00 00 00	 mov	 ecx, OFFSET ?lMsg@@3VCMsg@@A ; lMsg
  00254	e8 00 00 00 00	 call	 ?Get@CMsg@@QAEPADH@Z	; CMsg::Get
  00259	8b f0		 mov	 esi, eax
  0025b	eb 03 8d 49 00	 npad	 5
$LL24@RegenGoldD:
  00260	8a 08		 mov	 cl, BYTE PTR [eax]
  00262	40		 inc	 eax
  00263	84 c9		 test	 cl, cl
  00265	75 f9		 jne	 SHORT $LL24@RegenGoldD
  00267	8d bd fc fe ff
	ff		 lea	 edi, DWORD PTR _szTemp$209608[ebp]
  0026d	2b c6		 sub	 eax, esi
  0026f	4f		 dec	 edi
$LL25@RegenGoldD:
  00270	8a 4f 01	 mov	 cl, BYTE PTR [edi+1]
  00273	47		 inc	 edi
  00274	84 c9		 test	 cl, cl
  00276	75 f8		 jne	 SHORT $LL25@RegenGoldD
$LN30@RegenGoldD:
  00278	8b c8		 mov	 ecx, eax
  0027a	c1 e9 02	 shr	 ecx, 2
  0027d	f3 a5		 rep movsd
  0027f	8b c8		 mov	 ecx, eax
  00281	83 e1 03	 and	 ecx, 3
  00284	f3 a4		 rep movsb
$LN4@RegenGoldD:

; 372  : 				}
; 373  : 
; 374  : 				strcat(szTemp, lMsg.Get(MSGGET(4, 134)));

  00286	68 86 04 00 00	 push	 1158			; 00000486H
  0028b	b9 00 00 00 00	 mov	 ecx, OFFSET ?lMsg@@3VCMsg@@A ; lMsg
  00290	e8 00 00 00 00	 call	 ?Get@CMsg@@QAEPADH@Z	; CMsg::Get
  00295	8b f0		 mov	 esi, eax
$LL26@RegenGoldD:
  00297	8a 08		 mov	 cl, BYTE PTR [eax]
  00299	40		 inc	 eax
  0029a	84 c9		 test	 cl, cl
  0029c	75 f9		 jne	 SHORT $LL26@RegenGoldD
  0029e	8d bd fc fe ff
	ff		 lea	 edi, DWORD PTR _szTemp$209608[ebp]
  002a4	2b c6		 sub	 eax, esi
  002a6	4f		 dec	 edi
$LL27@RegenGoldD:
  002a7	8a 4f 01	 mov	 cl, BYTE PTR [edi+1]
  002aa	47		 inc	 edi
  002ab	84 c9		 test	 cl, cl
  002ad	75 f8		 jne	 SHORT $LL27@RegenGoldD
  002af	8b c8		 mov	 ecx, eax
  002b1	c1 e9 02	 shr	 ecx, 2
  002b4	f3 a5		 rep movsd
  002b6	8b c8		 mov	 ecx, eax
  002b8	83 e1 03	 and	 ecx, 3
  002bb	f3 a4		 rep movsb
  002bd	33 ff		 xor	 edi, edi
$LN6@RegenGoldD:

; 375  : 			}
; 376  : 
; 377  : 			this->m_BossGoldDerconMapNumber[count] = MapNumber;

  002bf	8b 8d f4 fe ff
	ff		 mov	 ecx, DWORD PTR tv507[ebp]
  002c5	8b b5 f8 fe ff
	ff		 mov	 esi, DWORD PTR _MapNumber$[ebp]

; 378  : 			gObj[n].m_BossGoldDerconMapNumber = count;

  002cb	8b 85 f0 fe ff
	ff		 mov	 eax, DWORD PTR _count$[ebp]
  002d1	89 31		 mov	 DWORD PTR [ecx], esi
  002d3	8b 15 00 00 00
	00		 mov	 edx, DWORD PTR ?gObj@@3PAUOBJECTSTRUCT@@A ; gObj
  002d9	88 84 13 e4 10
	00 00		 mov	 BYTE PTR [ebx+edx+4324], al

; 379  : 			count++;

  002e0	40		 inc	 eax
  002e1	83 c1 04	 add	 ecx, 4
  002e4	89 85 f0 fe ff
	ff		 mov	 DWORD PTR _count$[ebp], eax

; 380  : 			SelMap = MapNumber;

  002ea	a1 00 00 00 00	 mov	 eax, DWORD PTR ?gObj@@3PAUOBJECTSTRUCT@@A ; gObj
  002ef	89 8d f4 fe ff
	ff		 mov	 DWORD PTR tv507[ebp], ecx
$LN13@RegenGoldD:

; 321  : 
; 322  : 	for (n=0;n<OBJ_MAXMONSTER;n++)

  002f5	81 c3 50 2b 00
	00		 add	 ebx, 11088		; 00002b50H
  002fb	81 fb 80 76 97
	08		 cmp	 ebx, 144144000		; 08977680H
  00301	0f 8c 59 fd ff
	ff		 jl	 $LL14@RegenGoldD

; 381  : 		}
; 382  : 	}
; 383  : 
; 384  : 	this->CheckGoldDercon(MapNumber);

  00307	8b 85 f8 fe ff
	ff		 mov	 eax, DWORD PTR _MapNumber$[ebp]
  0030d	8b 8d ec fe ff
	ff		 mov	 ecx, DWORD PTR _this$GSCopy$[ebp]
  00313	50		 push	 eax
  00314	e8 00 00 00 00	 call	 ?CheckGoldDercon@CEledoradoEvent@@QAEXH@Z ; CEledoradoEvent::CheckGoldDercon

; 385  : }

  00319	8b 4d fc	 mov	 ecx, DWORD PTR __$ArrayPad$[ebp]
  0031c	5f		 pop	 edi
  0031d	5e		 pop	 esi
  0031e	33 cd		 xor	 ecx, ebp
  00320	5b		 pop	 ebx
  00321	e8 00 00 00 00	 call	 @__security_check_cookie@4
  00326	8b e5		 mov	 esp, ebp
  00328	5d		 pop	 ebp
  00329	c3		 ret	 0
?RegenGoldDercon@CEledoradoEvent@@QAEXXZ ENDP		; CEledoradoEvent::RegenGoldDercon
_TEXT	ENDS
PUBLIC	??_C@_0DF@GIAPPI@?$KB?$NL?$KB?$NM?$FLEvent?5Management?$FN?5?$FLStart?$FN?5E@ ; `string'
PUBLIC	??_C@_0BH@EKPIIKHD@Golden?5Dragon?5Invasion?$AA@ ; `string'
PUBLIC	?Start_Menual@CEledoradoEvent@@QAEXXZ		; CEledoradoEvent::Start_Menual
EXTRN	__imp__GetTickCount@0:PROC
EXTRN	?MessaageAllGlobal@@YAXPADZZ:PROC		; MessaageAllGlobal
;	COMDAT ??_C@_0DF@GIAPPI@?$KB?$NL?$KB?$NM?$FLEvent?5Management?$FN?5?$FLStart?$FN?5E@
; File e:\work\tranet_version\gs\gameserver\eledoradoevent.h
CONST	SEGMENT
??_C@_0DF@GIAPPI@?$KB?$NL?$KB?$NM?$FLEvent?5Management?$FN?5?$FLStart?$FN?5E@ DB 0a1H
	DB	0dbH, 0a1H, 0dcH, '[Event Management] [Start] EledoradoEvent E'
	DB	'vent!', 00H					; `string'
CONST	ENDS
;	COMDAT ??_C@_0BH@EKPIIKHD@Golden?5Dragon?5Invasion?$AA@
CONST	SEGMENT
??_C@_0BH@EKPIIKHD@Golden?5Dragon?5Invasion?$AA@ DB 'Golden Dragon Invasi'
	DB	'on', 00H					; `string'
; Function compile flags: /Ogtp
; File e:\work\tranet_version\gs\gameserver\eledoradoevent.cpp
CONST	ENDS
;	COMDAT ?Start_Menual@CEledoradoEvent@@QAEXXZ
_TEXT	SEGMENT
?Start_Menual@CEledoradoEvent@@QAEXXZ PROC		; CEledoradoEvent::Start_Menual, COMDAT
; _this$ = ecx

; 547  : {

  00000	56		 push	 esi
  00001	57		 push	 edi
  00002	8b f1		 mov	 esi, ecx

; 548  : 	this->SetMenualStart(TRUE);
; 549  : 	MessaageAllGlobal("Golden Dragon Invasion");

  00004	68 00 00 00 00	 push	 OFFSET ??_C@_0BH@EKPIIKHD@Golden?5Dragon?5Invasion?$AA@
  00009	c7 46 68 01 00
	00 00		 mov	 DWORD PTR [esi+104], 1
  00010	e8 00 00 00 00	 call	 ?MessaageAllGlobal@@YAXPADZZ ; MessaageAllGlobal

; 550  : 	LogAddTD("[Event Management] [Start] EledoradoEvent Event!");

  00015	68 00 00 00 00	 push	 OFFSET ??_C@_0DF@GIAPPI@?$KB?$NL?$KB?$NM?$FLEvent?5Management?$FN?5?$FLStart?$FN?5E@
  0001a	ff 15 00 00 00
	00		 call	 DWORD PTR ?LogAddTD@@3P6AXPADZZA ; LogAddTD
  00020	83 c4 08	 add	 esp, 8

; 551  : 
; 552  : 	DWORD TickCount = GetTickCount();

  00023	ff 15 00 00 00
	00		 call	 DWORD PTR __imp__GetTickCount@0
  00029	8b f8		 mov	 edi, eax

; 553  : 
; 554  : 	this->GoldGoblenEventStartTime = TickCount;
; 555  : 	this->RegenGoldGoblen();

  0002b	8b ce		 mov	 ecx, esi
  0002d	89 7e 08	 mov	 DWORD PTR [esi+8], edi
  00030	e8 00 00 00 00	 call	 ?RegenGoldGoblen@CEledoradoEvent@@QAEXXZ ; CEledoradoEvent::RegenGoldGoblen

; 556  : 
; 557  : 	this->TitanEventStartTime = TickCount;
; 558  : 	this->RegenTitan();

  00035	8b ce		 mov	 ecx, esi
  00037	89 7e 0c	 mov	 DWORD PTR [esi+12], edi
  0003a	e8 00 00 00 00	 call	 ?RegenTitan@CEledoradoEvent@@QAEXXZ ; CEledoradoEvent::RegenTitan

; 559  : 
; 560  : 	this->GoldDerconEventStartTime = TickCount;
; 561  : 	this->RegenGoldDercon();

  0003f	8b ce		 mov	 ecx, esi
  00041	89 7e 10	 mov	 DWORD PTR [esi+16], edi
  00044	e8 00 00 00 00	 call	 ?RegenGoldDercon@CEledoradoEvent@@QAEXXZ ; CEledoradoEvent::RegenGoldDercon

; 562  : 
; 563  : 	this->DevilLizardKingEventStartTime = TickCount;
; 564  : 	this->RegenDevilLizardKing();

  00049	8b ce		 mov	 ecx, esi
  0004b	89 7e 14	 mov	 DWORD PTR [esi+20], edi
  0004e	e8 00 00 00 00	 call	 ?RegenDevilLizardKing@CEledoradoEvent@@QAEXXZ ; CEledoradoEvent::RegenDevilLizardKing

; 565  : 
; 566  : 	this->KanturEventStartTime = TickCount;
; 567  : 	this->RegenKantur();

  00053	8b ce		 mov	 ecx, esi
  00055	89 7e 18	 mov	 DWORD PTR [esi+24], edi
  00058	e8 00 00 00 00	 call	 ?RegenKantur@CEledoradoEvent@@QAEXXZ ; CEledoradoEvent::RegenKantur

; 568  : 
; 569  : 	//Season 4.5 addon start
; 570  : 	this->GoldenRabbitRegenTime = TickCount;
; 571  : 	this->RegenGoldenRabbit();
; 572  : 
; 573  : 	this->GoldenDarkKnightRegenTime = TickCount;
; 574  : 	this->RegenGoldenDarkKnight();

  0005d	8b ce		 mov	 ecx, esi
  0005f	89 7e 1c	 mov	 DWORD PTR [esi+28], edi
  00062	89 7e 20	 mov	 DWORD PTR [esi+32], edi
  00065	e8 00 00 00 00	 call	 ?RegenGoldenDarkKnight@CEledoradoEvent@@QAEXXZ ; CEledoradoEvent::RegenGoldenDarkKnight

; 575  : 
; 576  : 	this->GoldenDevilRegenTime = TickCount;
; 577  : 	this->RegenGoldenDevil();

  0006a	8b ce		 mov	 ecx, esi
  0006c	89 7e 24	 mov	 DWORD PTR [esi+36], edi
  0006f	e8 00 00 00 00	 call	 ?RegenGoldenDevil@CEledoradoEvent@@QAEXXZ ; CEledoradoEvent::RegenGoldenDevil

; 578  : 
; 579  : 	this->GoldenMonsterRegenTime = TickCount;
; 580  : 	this->RegenGoldenMonster();

  00074	8b ce		 mov	 ecx, esi
  00076	89 7e 28	 mov	 DWORD PTR [esi+40], edi
  00079	e8 00 00 00 00	 call	 ?RegenGoldenMonster@CEledoradoEvent@@QAEXXZ ; CEledoradoEvent::RegenGoldenMonster

; 581  : 
; 582  : 	this->GoldenCrustRegenTime = TickCount;
; 583  : 	this->RegenGoldenCrust();

  0007e	8b ce		 mov	 ecx, esi
  00080	89 7e 2c	 mov	 DWORD PTR [esi+44], edi
  00083	e8 00 00 00 00	 call	 ?RegenGoldenCrust@CEledoradoEvent@@QAEXXZ ; CEledoradoEvent::RegenGoldenCrust

; 584  : 
; 585  : 	this->GoldenSatirosRegenTime = TickCount;
; 586  : 	this->RegenGoldenSatiros();

  00088	8b ce		 mov	 ecx, esi
  0008a	89 7e 30	 mov	 DWORD PTR [esi+48], edi
  0008d	e8 00 00 00 00	 call	 ?RegenGoldenSatiros@CEledoradoEvent@@QAEXXZ ; CEledoradoEvent::RegenGoldenSatiros

; 587  : 
; 588  : 	this->GoldenTwintailRegenTime = TickCount;
; 589  : 	this->RegenGoldenTwintail();

  00092	8b ce		 mov	 ecx, esi
  00094	89 7e 34	 mov	 DWORD PTR [esi+52], edi
  00097	e8 00 00 00 00	 call	 ?RegenGoldenTwintail@CEledoradoEvent@@QAEXXZ ; CEledoradoEvent::RegenGoldenTwintail

; 590  : 
; 591  : 	this->GoldenIronKnightRegenTime = TickCount;
; 592  : 	this->RegenGoldenIronKnight();

  0009c	8b ce		 mov	 ecx, esi
  0009e	89 7e 38	 mov	 DWORD PTR [esi+56], edi
  000a1	e8 00 00 00 00	 call	 ?RegenGoldenIronKnight@CEledoradoEvent@@QAEXXZ ; CEledoradoEvent::RegenGoldenIronKnight

; 593  : 
; 594  : 	this->GoldenNeipinRegenTime = TickCount;
; 595  : 	this->RegenGoldenNeipin();

  000a6	8b ce		 mov	 ecx, esi
  000a8	89 7e 3c	 mov	 DWORD PTR [esi+60], edi
  000ab	e8 00 00 00 00	 call	 ?RegenGoldenNeipin@CEledoradoEvent@@QAEXXZ ; CEledoradoEvent::RegenGoldenNeipin

; 596  : 
; 597  : 	this->GoldenGreatDragonRegenTime = TickCount;

  000b0	89 7e 40	 mov	 DWORD PTR [esi+64], edi
  000b3	5f		 pop	 edi

; 598  : 	this->RegenGoldenGreatDragon();

  000b4	8b ce		 mov	 ecx, esi
  000b6	5e		 pop	 esi
  000b7	e9 00 00 00 00	 jmp	 ?RegenGoldenGreatDragon@CEledoradoEvent@@QAEXXZ ; CEledoradoEvent::RegenGoldenGreatDragon
?Start_Menual@CEledoradoEvent@@QAEXXZ ENDP		; CEledoradoEvent::Start_Menual
_TEXT	ENDS
PUBLIC	?Run@CEledoradoEvent@@QAEXXZ			; CEledoradoEvent::Run
EXTRN	?gEledoradoGoldenGreatDragonRegenTime@@3HA:DWORD ; gEledoradoGoldenGreatDragonRegenTime
EXTRN	?gEledoradoGoldenNeipinRegenTime@@3HA:DWORD	; gEledoradoGoldenNeipinRegenTime
EXTRN	?gEledoradoGoldenIronKnightRegenTime@@3HA:DWORD	; gEledoradoGoldenIronKnightRegenTime
EXTRN	?gEledoradoGoldenTwintailRegenTime@@3HA:DWORD	; gEledoradoGoldenTwintailRegenTime
EXTRN	?gEledoradoGoldenSatirosRegenTime@@3HA:DWORD	; gEledoradoGoldenSatirosRegenTime
EXTRN	?gEledoradoGoldenCrustRegenTime@@3HA:DWORD	; gEledoradoGoldenCrustRegenTime
EXTRN	?gEledoradoGoldenMonsterRegenTime@@3HA:DWORD	; gEledoradoGoldenMonsterRegenTime
EXTRN	?gEledoradoGoldenDevilRegenTime@@3HA:DWORD	; gEledoradoGoldenDevilRegenTime
EXTRN	?gEledoradoGoldenDarkKnightRegenTime@@3HA:DWORD	; gEledoradoGoldenDarkKnightRegenTime
EXTRN	?gEledoradoGoldenRabbitRegenTime@@3HA:DWORD	; gEledoradoGoldenRabbitRegenTime
EXTRN	?gEledoradoDevilTantarosRegenTime@@3KA:DWORD	; gEledoradoDevilTantarosRegenTime
EXTRN	?gEledoradoDevilLizardKingRegenTime@@3KA:DWORD	; gEledoradoDevilLizardKingRegenTime
EXTRN	?gEledoradoGoldDerconRegenTime@@3KA:DWORD	; gEledoradoGoldDerconRegenTime
EXTRN	?gEledoradoTitanRegenTime@@3KA:DWORD		; gEledoradoTitanRegenTime
EXTRN	?gEledoradoGoldGoblenRegenTime@@3KA:DWORD	; gEledoradoGoldGoblenRegenTime
; Function compile flags: /Ogtp
;	COMDAT ?Run@CEledoradoEvent@@QAEXXZ
_TEXT	SEGMENT
_ltime$209541 = -8					; size = 8
?Run@CEledoradoEvent@@QAEXXZ PROC			; CEledoradoEvent::Run, COMDAT
; _this$ = ecx

; 53   : {

  00000	55		 push	 ebp
  00001	8b ec		 mov	 ebp, esp
  00003	83 ec 08	 sub	 esp, 8
  00006	56		 push	 esi
  00007	8b f1		 mov	 esi, ecx

; 54   : 	if ( this->m_bMenualStart != FALSE )

  00009	83 7e 68 00	 cmp	 DWORD PTR [esi+104], 0
  0000d	0f 85 aa 02 00
	00		 jne	 $LN1@Run

; 55   : 	{
; 56   : 		return;
; 57   : 	}
; 58   : 
; 59   : 	if ( this->EventState == 0 )

  00013	83 7e 04 00	 cmp	 DWORD PTR [esi+4], 0
  00017	0f 84 a0 02 00
	00		 je	 $LN1@Run

; 60   : 	{
; 61   : 		return;
; 62   : 	}
; 63   : 
; 64   : 	if ( this->GoldGoblenEventStartTime == 0 )

  0001d	83 7e 08 00	 cmp	 DWORD PTR [esi+8], 0
  00021	57		 push	 edi
  00022	0f 85 c7 00 00
	00		 jne	 $LN18@Run

; 65   : 	{
; 66   : 		tm * today;
; 67   : 		time_t ltime;
; 68   : 
; 69   : 		time(&ltime);

  00028	8d 45 f8	 lea	 eax, DWORD PTR _ltime$209541[ebp]
  0002b	50		 push	 eax
  0002c	e8 00 00 00 00	 call	 __time64

; 70   : 		today = localtime(&ltime);

  00031	8d 4d f8	 lea	 ecx, DWORD PTR _ltime$209541[ebp]
  00034	51		 push	 ecx
  00035	e8 00 00 00 00	 call	 __localtime64

; 71   : 
; 72   : 		if ( today->tm_min >= 30 && today->tm_min  <= 35 )

  0003a	8b 40 04	 mov	 eax, DWORD PTR [eax+4]
  0003d	83 c4 08	 add	 esp, 8
  00040	83 f8 1e	 cmp	 eax, 30			; 0000001eH
  00043	0f 8c 73 02 00
	00		 jl	 $LN27@Run
  00049	83 f8 23	 cmp	 eax, 35			; 00000023H
  0004c	0f 8f 6a 02 00
	00		 jg	 $LN27@Run

; 73   : 		{
; 74   : 			int Time = GetTickCount();

  00052	ff 15 00 00 00
	00		 call	 DWORD PTR __imp__GetTickCount@0
  00058	8b f8		 mov	 edi, eax

; 75   : 
; 76   : 			this->GoldGoblenEventStartTime = Time;
; 77   : 			this->RegenGoldGoblen();

  0005a	8b ce		 mov	 ecx, esi
  0005c	89 7e 08	 mov	 DWORD PTR [esi+8], edi
  0005f	e8 00 00 00 00	 call	 ?RegenGoldGoblen@CEledoradoEvent@@QAEXXZ ; CEledoradoEvent::RegenGoldGoblen

; 78   : 
; 79   : 			this->TitanEventStartTime = Time;
; 80   : 			this->RegenTitan();

  00064	8b ce		 mov	 ecx, esi
  00066	89 7e 0c	 mov	 DWORD PTR [esi+12], edi
  00069	e8 00 00 00 00	 call	 ?RegenTitan@CEledoradoEvent@@QAEXXZ ; CEledoradoEvent::RegenTitan

; 81   : 
; 82   : 			this->GoldDerconEventStartTime = Time;
; 83   : 			this->RegenGoldDercon();

  0006e	8b ce		 mov	 ecx, esi
  00070	89 7e 10	 mov	 DWORD PTR [esi+16], edi
  00073	e8 00 00 00 00	 call	 ?RegenGoldDercon@CEledoradoEvent@@QAEXXZ ; CEledoradoEvent::RegenGoldDercon

; 84   : 
; 85   : 			this->DevilLizardKingEventStartTime = Time;
; 86   : 			this->RegenDevilLizardKing();

  00078	8b ce		 mov	 ecx, esi
  0007a	89 7e 14	 mov	 DWORD PTR [esi+20], edi
  0007d	e8 00 00 00 00	 call	 ?RegenDevilLizardKing@CEledoradoEvent@@QAEXXZ ; CEledoradoEvent::RegenDevilLizardKing

; 87   : 
; 88   : 			this->KanturEventStartTime = Time;
; 89   : 			this->RegenKantur();

  00082	8b ce		 mov	 ecx, esi
  00084	89 7e 18	 mov	 DWORD PTR [esi+24], edi
  00087	e8 00 00 00 00	 call	 ?RegenKantur@CEledoradoEvent@@QAEXXZ ; CEledoradoEvent::RegenKantur

; 90   : 
; 91   : 			//Season 4.5 addon start
; 92   : 			this->GoldenRabbitRegenTime = Time;
; 93   : 			this->RegenGoldenRabbit();
; 94   : 
; 95   : 			this->GoldenDarkKnightRegenTime = Time;
; 96   : 			this->RegenGoldenDarkKnight();

  0008c	8b ce		 mov	 ecx, esi
  0008e	89 7e 1c	 mov	 DWORD PTR [esi+28], edi
  00091	89 7e 20	 mov	 DWORD PTR [esi+32], edi
  00094	e8 00 00 00 00	 call	 ?RegenGoldenDarkKnight@CEledoradoEvent@@QAEXXZ ; CEledoradoEvent::RegenGoldenDarkKnight

; 97   : 
; 98   : 			this->GoldenDevilRegenTime = Time;
; 99   : 			this->RegenGoldenDevil();

  00099	8b ce		 mov	 ecx, esi
  0009b	89 7e 24	 mov	 DWORD PTR [esi+36], edi
  0009e	e8 00 00 00 00	 call	 ?RegenGoldenDevil@CEledoradoEvent@@QAEXXZ ; CEledoradoEvent::RegenGoldenDevil

; 100  : 
; 101  : 			this->GoldenMonsterRegenTime = Time;
; 102  : 			this->RegenGoldenMonster();

  000a3	8b ce		 mov	 ecx, esi
  000a5	89 7e 28	 mov	 DWORD PTR [esi+40], edi
  000a8	e8 00 00 00 00	 call	 ?RegenGoldenMonster@CEledoradoEvent@@QAEXXZ ; CEledoradoEvent::RegenGoldenMonster

; 103  : 
; 104  : 			this->GoldenCrustRegenTime = Time;
; 105  : 			this->RegenGoldenCrust();

  000ad	8b ce		 mov	 ecx, esi
  000af	89 7e 2c	 mov	 DWORD PTR [esi+44], edi
  000b2	e8 00 00 00 00	 call	 ?RegenGoldenCrust@CEledoradoEvent@@QAEXXZ ; CEledoradoEvent::RegenGoldenCrust

; 106  : 
; 107  : 			this->GoldenSatirosRegenTime = Time;
; 108  : 			this->RegenGoldenSatiros();

  000b7	8b ce		 mov	 ecx, esi
  000b9	89 7e 30	 mov	 DWORD PTR [esi+48], edi
  000bc	e8 00 00 00 00	 call	 ?RegenGoldenSatiros@CEledoradoEvent@@QAEXXZ ; CEledoradoEvent::RegenGoldenSatiros

; 109  : 
; 110  : 			this->GoldenTwintailRegenTime = Time;
; 111  : 			this->RegenGoldenTwintail();

  000c1	8b ce		 mov	 ecx, esi
  000c3	89 7e 34	 mov	 DWORD PTR [esi+52], edi
  000c6	e8 00 00 00 00	 call	 ?RegenGoldenTwintail@CEledoradoEvent@@QAEXXZ ; CEledoradoEvent::RegenGoldenTwintail

; 112  : 
; 113  : 			this->GoldenIronKnightRegenTime = Time;
; 114  : 			this->RegenGoldenIronKnight();

  000cb	8b ce		 mov	 ecx, esi
  000cd	89 7e 38	 mov	 DWORD PTR [esi+56], edi
  000d0	e8 00 00 00 00	 call	 ?RegenGoldenIronKnight@CEledoradoEvent@@QAEXXZ ; CEledoradoEvent::RegenGoldenIronKnight

; 115  : 
; 116  : 			this->GoldenNeipinRegenTime = Time;
; 117  : 			this->RegenGoldenNeipin();

  000d5	8b ce		 mov	 ecx, esi
  000d7	89 7e 3c	 mov	 DWORD PTR [esi+60], edi
  000da	e8 00 00 00 00	 call	 ?RegenGoldenNeipin@CEledoradoEvent@@QAEXXZ ; CEledoradoEvent::RegenGoldenNeipin

; 215  : 		{
; 216  : 			this->GoldenGreatDragonRegenTime = Time;
; 217  : 			this->RegenGoldenGreatDragon();

  000df	8b ce		 mov	 ecx, esi
  000e1	89 7e 40	 mov	 DWORD PTR [esi+64], edi
  000e4	e8 00 00 00 00	 call	 ?RegenGoldenGreatDragon@CEledoradoEvent@@QAEXXZ ; CEledoradoEvent::RegenGoldenGreatDragon
  000e9	5f		 pop	 edi
  000ea	5e		 pop	 esi

; 218  : 		}
; 219  : 
; 220  : 		//Season 4.5 addon end
; 221  : 	}
; 222  : }

  000eb	8b e5		 mov	 esp, ebp
  000ed	5d		 pop	 ebp
  000ee	c3		 ret	 0
$LN18@Run:

; 118  : 
; 119  : 			this->GoldenGreatDragonRegenTime = Time;
; 120  : 			this->RegenGoldenGreatDragon();
; 121  : 
; 122  : 			//Season 4.5 addon end
; 123  : 		}
; 124  : 	}
; 125  : 	else
; 126  : 	{
; 127  : 		DWORD Time = GetTickCount();

  000ef	ff 15 00 00 00
	00		 call	 DWORD PTR __imp__GetTickCount@0
  000f5	8b f8		 mov	 edi, eax

; 128  : 
; 129  : 		if ( ( Time - this->GoldGoblenEventStartTime ) > gEledoradoGoldGoblenRegenTime * 60000 )

  000f7	a1 00 00 00 00	 mov	 eax, DWORD PTR ?gEledoradoGoldGoblenRegenTime@@3KA ; gEledoradoGoldGoblenRegenTime
  000fc	69 c0 60 ea 00
	00		 imul	 eax, 60000		; 0000ea60H
  00102	8b d7		 mov	 edx, edi
  00104	2b 56 08	 sub	 edx, DWORD PTR [esi+8]
  00107	3b d0		 cmp	 edx, eax
  00109	76 0a		 jbe	 SHORT $LN15@Run

; 130  : 		{
; 131  : 			this->GoldGoblenEventStartTime = Time;
; 132  : 			this->RegenGoldGoblen();

  0010b	8b ce		 mov	 ecx, esi
  0010d	89 7e 08	 mov	 DWORD PTR [esi+8], edi
  00110	e8 00 00 00 00	 call	 ?RegenGoldGoblen@CEledoradoEvent@@QAEXXZ ; CEledoradoEvent::RegenGoldGoblen
$LN15@Run:

; 133  : 		}
; 134  : 
; 135  : 		if ( ( Time - this->TitanEventStartTime ) > gEledoradoTitanRegenTime * 60000 )

  00115	8b 15 00 00 00
	00		 mov	 edx, DWORD PTR ?gEledoradoTitanRegenTime@@3KA ; gEledoradoTitanRegenTime
  0011b	69 d2 60 ea 00
	00		 imul	 edx, 60000		; 0000ea60H
  00121	8b cf		 mov	 ecx, edi
  00123	2b 4e 0c	 sub	 ecx, DWORD PTR [esi+12]
  00126	3b ca		 cmp	 ecx, edx
  00128	76 0a		 jbe	 SHORT $LN14@Run

; 136  : 		{
; 137  : 			this->TitanEventStartTime = Time;
; 138  : 			this->RegenTitan();

  0012a	8b ce		 mov	 ecx, esi
  0012c	89 7e 0c	 mov	 DWORD PTR [esi+12], edi
  0012f	e8 00 00 00 00	 call	 ?RegenTitan@CEledoradoEvent@@QAEXXZ ; CEledoradoEvent::RegenTitan
$LN14@Run:

; 139  : 		}
; 140  : 
; 141  : 		if ( ( Time - this->GoldDerconEventStartTime ) > gEledoradoGoldDerconRegenTime * 60000 )

  00134	8b 0d 00 00 00
	00		 mov	 ecx, DWORD PTR ?gEledoradoGoldDerconRegenTime@@3KA ; gEledoradoGoldDerconRegenTime
  0013a	69 c9 60 ea 00
	00		 imul	 ecx, 60000		; 0000ea60H
  00140	8b c7		 mov	 eax, edi
  00142	2b 46 10	 sub	 eax, DWORD PTR [esi+16]
  00145	3b c1		 cmp	 eax, ecx
  00147	76 0a		 jbe	 SHORT $LN13@Run

; 142  : 		{
; 143  : 			this->GoldDerconEventStartTime = Time;
; 144  : 			this->RegenGoldDercon();

  00149	8b ce		 mov	 ecx, esi
  0014b	89 7e 10	 mov	 DWORD PTR [esi+16], edi
  0014e	e8 00 00 00 00	 call	 ?RegenGoldDercon@CEledoradoEvent@@QAEXXZ ; CEledoradoEvent::RegenGoldDercon
$LN13@Run:

; 145  : 		}
; 146  : 
; 147  : 		if ( ( Time - this->DevilLizardKingEventStartTime ) > gEledoradoDevilLizardKingRegenTime * 60000 )

  00153	a1 00 00 00 00	 mov	 eax, DWORD PTR ?gEledoradoDevilLizardKingRegenTime@@3KA ; gEledoradoDevilLizardKingRegenTime
  00158	69 c0 60 ea 00
	00		 imul	 eax, 60000		; 0000ea60H
  0015e	8b d7		 mov	 edx, edi
  00160	2b 56 14	 sub	 edx, DWORD PTR [esi+20]
  00163	3b d0		 cmp	 edx, eax
  00165	76 0a		 jbe	 SHORT $LN12@Run

; 148  : 		{
; 149  : 			this->DevilLizardKingEventStartTime = Time;
; 150  : 			this->RegenDevilLizardKing();

  00167	8b ce		 mov	 ecx, esi
  00169	89 7e 14	 mov	 DWORD PTR [esi+20], edi
  0016c	e8 00 00 00 00	 call	 ?RegenDevilLizardKing@CEledoradoEvent@@QAEXXZ ; CEledoradoEvent::RegenDevilLizardKing
$LN12@Run:

; 151  : 		}
; 152  : 
; 153  : 		if ( ( Time - this->KanturEventStartTime ) > gEledoradoDevilTantarosRegenTime * 60000 )

  00171	8b 15 00 00 00
	00		 mov	 edx, DWORD PTR ?gEledoradoDevilTantarosRegenTime@@3KA ; gEledoradoDevilTantarosRegenTime
  00177	69 d2 60 ea 00
	00		 imul	 edx, 60000		; 0000ea60H
  0017d	8b cf		 mov	 ecx, edi
  0017f	2b 4e 18	 sub	 ecx, DWORD PTR [esi+24]
  00182	3b ca		 cmp	 ecx, edx
  00184	76 0a		 jbe	 SHORT $LN11@Run

; 154  : 		{
; 155  : 			this->KanturEventStartTime = Time;
; 156  : 			this->RegenKantur();

  00186	8b ce		 mov	 ecx, esi
  00188	89 7e 18	 mov	 DWORD PTR [esi+24], edi
  0018b	e8 00 00 00 00	 call	 ?RegenKantur@CEledoradoEvent@@QAEXXZ ; CEledoradoEvent::RegenKantur
$LN11@Run:

; 157  : 		}
; 158  : 
; 159  : 		//Season 4.5 addon start
; 160  : 		if ( ( Time - this->GoldenRabbitRegenTime ) > gEledoradoGoldenRabbitRegenTime * 60000 )

  00190	8b 0d 00 00 00
	00		 mov	 ecx, DWORD PTR ?gEledoradoGoldenRabbitRegenTime@@3HA ; gEledoradoGoldenRabbitRegenTime
  00196	69 c9 60 ea 00
	00		 imul	 ecx, 60000		; 0000ea60H
  0019c	8b c7		 mov	 eax, edi
  0019e	2b 46 1c	 sub	 eax, DWORD PTR [esi+28]
  001a1	3b c1		 cmp	 eax, ecx
  001a3	76 03		 jbe	 SHORT $LN10@Run

; 161  : 		{
; 162  : 			this->GoldenRabbitRegenTime = Time;

  001a5	89 7e 1c	 mov	 DWORD PTR [esi+28], edi
$LN10@Run:

; 163  : 			this->RegenGoldenRabbit();
; 164  : 		}
; 165  : 
; 166  : 		if ( ( Time - this->GoldenDarkKnightRegenTime ) > gEledoradoGoldenDarkKnightRegenTime * 60000 )

  001a8	a1 00 00 00 00	 mov	 eax, DWORD PTR ?gEledoradoGoldenDarkKnightRegenTime@@3HA ; gEledoradoGoldenDarkKnightRegenTime
  001ad	69 c0 60 ea 00
	00		 imul	 eax, 60000		; 0000ea60H
  001b3	8b d7		 mov	 edx, edi
  001b5	2b 56 20	 sub	 edx, DWORD PTR [esi+32]
  001b8	3b d0		 cmp	 edx, eax
  001ba	76 0a		 jbe	 SHORT $LN9@Run

; 167  : 		{
; 168  : 			this->GoldenDarkKnightRegenTime = Time;
; 169  : 			this->RegenGoldenDarkKnight();

  001bc	8b ce		 mov	 ecx, esi
  001be	89 7e 20	 mov	 DWORD PTR [esi+32], edi
  001c1	e8 00 00 00 00	 call	 ?RegenGoldenDarkKnight@CEledoradoEvent@@QAEXXZ ; CEledoradoEvent::RegenGoldenDarkKnight
$LN9@Run:

; 170  : 		}
; 171  : 
; 172  : 		if ( ( Time - this->GoldenDevilRegenTime ) > gEledoradoGoldenDevilRegenTime * 60000 )

  001c6	8b 15 00 00 00
	00		 mov	 edx, DWORD PTR ?gEledoradoGoldenDevilRegenTime@@3HA ; gEledoradoGoldenDevilRegenTime
  001cc	69 d2 60 ea 00
	00		 imul	 edx, 60000		; 0000ea60H
  001d2	8b cf		 mov	 ecx, edi
  001d4	2b 4e 24	 sub	 ecx, DWORD PTR [esi+36]
  001d7	3b ca		 cmp	 ecx, edx
  001d9	76 0a		 jbe	 SHORT $LN8@Run

; 173  : 		{
; 174  : 			this->GoldenDevilRegenTime = Time;
; 175  : 			this->RegenGoldenDevil();

  001db	8b ce		 mov	 ecx, esi
  001dd	89 7e 24	 mov	 DWORD PTR [esi+36], edi
  001e0	e8 00 00 00 00	 call	 ?RegenGoldenDevil@CEledoradoEvent@@QAEXXZ ; CEledoradoEvent::RegenGoldenDevil
$LN8@Run:

; 176  : 		}
; 177  : 
; 178  : 		if ( ( Time - this->GoldenMonsterRegenTime ) > gEledoradoGoldenMonsterRegenTime * 60000 )

  001e5	8b 0d 00 00 00
	00		 mov	 ecx, DWORD PTR ?gEledoradoGoldenMonsterRegenTime@@3HA ; gEledoradoGoldenMonsterRegenTime
  001eb	69 c9 60 ea 00
	00		 imul	 ecx, 60000		; 0000ea60H
  001f1	8b c7		 mov	 eax, edi
  001f3	2b 46 28	 sub	 eax, DWORD PTR [esi+40]
  001f6	3b c1		 cmp	 eax, ecx
  001f8	76 0a		 jbe	 SHORT $LN7@Run

; 179  : 		{
; 180  : 			this->GoldenMonsterRegenTime = Time;
; 181  : 			this->RegenGoldenMonster();

  001fa	8b ce		 mov	 ecx, esi
  001fc	89 7e 28	 mov	 DWORD PTR [esi+40], edi
  001ff	e8 00 00 00 00	 call	 ?RegenGoldenMonster@CEledoradoEvent@@QAEXXZ ; CEledoradoEvent::RegenGoldenMonster
$LN7@Run:

; 182  : 		}
; 183  : 
; 184  : 		if ( ( Time - this->GoldenCrustRegenTime ) > gEledoradoGoldenCrustRegenTime * 60000 )

  00204	a1 00 00 00 00	 mov	 eax, DWORD PTR ?gEledoradoGoldenCrustRegenTime@@3HA ; gEledoradoGoldenCrustRegenTime
  00209	69 c0 60 ea 00
	00		 imul	 eax, 60000		; 0000ea60H
  0020f	8b d7		 mov	 edx, edi
  00211	2b 56 2c	 sub	 edx, DWORD PTR [esi+44]
  00214	3b d0		 cmp	 edx, eax
  00216	76 0a		 jbe	 SHORT $LN6@Run

; 185  : 		{
; 186  : 			this->GoldenCrustRegenTime = Time;
; 187  : 			this->RegenGoldenCrust();

  00218	8b ce		 mov	 ecx, esi
  0021a	89 7e 2c	 mov	 DWORD PTR [esi+44], edi
  0021d	e8 00 00 00 00	 call	 ?RegenGoldenCrust@CEledoradoEvent@@QAEXXZ ; CEledoradoEvent::RegenGoldenCrust
$LN6@Run:

; 188  : 		}
; 189  : 
; 190  : 		if ( ( Time - this->GoldenSatirosRegenTime ) > gEledoradoGoldenSatirosRegenTime * 60000 )

  00222	8b 15 00 00 00
	00		 mov	 edx, DWORD PTR ?gEledoradoGoldenSatirosRegenTime@@3HA ; gEledoradoGoldenSatirosRegenTime
  00228	69 d2 60 ea 00
	00		 imul	 edx, 60000		; 0000ea60H
  0022e	8b cf		 mov	 ecx, edi
  00230	2b 4e 30	 sub	 ecx, DWORD PTR [esi+48]
  00233	3b ca		 cmp	 ecx, edx
  00235	76 0a		 jbe	 SHORT $LN5@Run

; 191  : 		{
; 192  : 			this->GoldenSatirosRegenTime = Time;
; 193  : 			this->RegenGoldenSatiros();

  00237	8b ce		 mov	 ecx, esi
  00239	89 7e 30	 mov	 DWORD PTR [esi+48], edi
  0023c	e8 00 00 00 00	 call	 ?RegenGoldenSatiros@CEledoradoEvent@@QAEXXZ ; CEledoradoEvent::RegenGoldenSatiros
$LN5@Run:

; 194  : 		}
; 195  : 
; 196  : 		if ( ( Time - this->GoldenTwintailRegenTime ) > gEledoradoGoldenTwintailRegenTime * 60000 )

  00241	8b 0d 00 00 00
	00		 mov	 ecx, DWORD PTR ?gEledoradoGoldenTwintailRegenTime@@3HA ; gEledoradoGoldenTwintailRegenTime
  00247	69 c9 60 ea 00
	00		 imul	 ecx, 60000		; 0000ea60H
  0024d	8b c7		 mov	 eax, edi
  0024f	2b 46 34	 sub	 eax, DWORD PTR [esi+52]
  00252	3b c1		 cmp	 eax, ecx
  00254	76 0a		 jbe	 SHORT $LN4@Run

; 197  : 		{
; 198  : 			this->GoldenTwintailRegenTime = Time;
; 199  : 			this->RegenGoldenTwintail();

  00256	8b ce		 mov	 ecx, esi
  00258	89 7e 34	 mov	 DWORD PTR [esi+52], edi
  0025b	e8 00 00 00 00	 call	 ?RegenGoldenTwintail@CEledoradoEvent@@QAEXXZ ; CEledoradoEvent::RegenGoldenTwintail
$LN4@Run:

; 200  : 		}
; 201  : 
; 202  : 		if ( ( Time - this->GoldenIronKnightRegenTime ) > gEledoradoGoldenIronKnightRegenTime * 60000 )

  00260	a1 00 00 00 00	 mov	 eax, DWORD PTR ?gEledoradoGoldenIronKnightRegenTime@@3HA ; gEledoradoGoldenIronKnightRegenTime
  00265	69 c0 60 ea 00
	00		 imul	 eax, 60000		; 0000ea60H
  0026b	8b d7		 mov	 edx, edi
  0026d	2b 56 38	 sub	 edx, DWORD PTR [esi+56]
  00270	3b d0		 cmp	 edx, eax
  00272	76 0a		 jbe	 SHORT $LN3@Run

; 203  : 		{
; 204  : 			this->GoldenIronKnightRegenTime = Time;
; 205  : 			this->RegenGoldenIronKnight();

  00274	8b ce		 mov	 ecx, esi
  00276	89 7e 38	 mov	 DWORD PTR [esi+56], edi
  00279	e8 00 00 00 00	 call	 ?RegenGoldenIronKnight@CEledoradoEvent@@QAEXXZ ; CEledoradoEvent::RegenGoldenIronKnight
$LN3@Run:

; 206  : 		}
; 207  : 
; 208  : 		if ( ( Time - this->GoldenNeipinRegenTime ) > gEledoradoGoldenNeipinRegenTime * 60000 )

  0027e	8b 15 00 00 00
	00		 mov	 edx, DWORD PTR ?gEledoradoGoldenNeipinRegenTime@@3HA ; gEledoradoGoldenNeipinRegenTime
  00284	69 d2 60 ea 00
	00		 imul	 edx, 60000		; 0000ea60H
  0028a	8b cf		 mov	 ecx, edi
  0028c	2b 4e 3c	 sub	 ecx, DWORD PTR [esi+60]
  0028f	3b ca		 cmp	 ecx, edx
  00291	76 0a		 jbe	 SHORT $LN2@Run

; 209  : 		{
; 210  : 			this->GoldenNeipinRegenTime = Time;
; 211  : 			this->RegenGoldenNeipin();

  00293	8b ce		 mov	 ecx, esi
  00295	89 7e 3c	 mov	 DWORD PTR [esi+60], edi
  00298	e8 00 00 00 00	 call	 ?RegenGoldenNeipin@CEledoradoEvent@@QAEXXZ ; CEledoradoEvent::RegenGoldenNeipin
$LN2@Run:

; 212  : 		}
; 213  : 
; 214  : 		if ( ( Time - this->GoldenGreatDragonRegenTime ) > gEledoradoGoldenGreatDragonRegenTime * 60000 )

  0029d	8b 0d 00 00 00
	00		 mov	 ecx, DWORD PTR ?gEledoradoGoldenGreatDragonRegenTime@@3HA ; gEledoradoGoldenGreatDragonRegenTime
  002a3	69 c9 60 ea 00
	00		 imul	 ecx, 60000		; 0000ea60H
  002a9	8b c7		 mov	 eax, edi
  002ab	2b 46 40	 sub	 eax, DWORD PTR [esi+64]
  002ae	3b c1		 cmp	 eax, ecx
  002b0	76 0a		 jbe	 SHORT $LN27@Run

; 215  : 		{
; 216  : 			this->GoldenGreatDragonRegenTime = Time;
; 217  : 			this->RegenGoldenGreatDragon();

  002b2	8b ce		 mov	 ecx, esi
  002b4	89 7e 40	 mov	 DWORD PTR [esi+64], edi
  002b7	e8 00 00 00 00	 call	 ?RegenGoldenGreatDragon@CEledoradoEvent@@QAEXXZ ; CEledoradoEvent::RegenGoldenGreatDragon
$LN27@Run:
  002bc	5f		 pop	 edi
$LN1@Run:
  002bd	5e		 pop	 esi

; 218  : 		}
; 219  : 
; 220  : 		//Season 4.5 addon end
; 221  : 	}
; 222  : }

  002be	8b e5		 mov	 esp, ebp
  002c0	5d		 pop	 ebp
  002c1	c3		 ret	 0
?Run@CEledoradoEvent@@QAEXXZ ENDP			; CEledoradoEvent::Run
_TEXT	ENDS
EXTRN	_atexit:PROC
; Function compile flags: /Ogtp
;	COMDAT ??__EgEledoradoEvent@@YAXXZ
text$yc	SEGMENT
??__EgEledoradoEvent@@YAXXZ PROC			; `dynamic initializer for 'gEledoradoEvent'', COMDAT

; 11   : CEledoradoEvent gEledoradoEvent;

  00000	b9 00 00 00 00	 mov	 ecx, OFFSET ?gEledoradoEvent@@3VCEledoradoEvent@@A ; gEledoradoEvent
  00005	e8 00 00 00 00	 call	 ??0CEledoradoEvent@@QAE@XZ ; CEledoradoEvent::CEledoradoEvent
  0000a	68 00 00 00 00	 push	 OFFSET ??__FgEledoradoEvent@@YAXXZ ; `dynamic atexit destructor for 'gEledoradoEvent''
  0000f	e8 00 00 00 00	 call	 _atexit
  00014	59		 pop	 ecx
  00015	c3		 ret	 0
??__EgEledoradoEvent@@YAXXZ ENDP			; `dynamic initializer for 'gEledoradoEvent''
; Function compile flags: /Ogtp
text$yc	ENDS
;	COMDAT ??__FgEledoradoEvent@@YAXXZ
text$yd	SEGMENT
??__FgEledoradoEvent@@YAXXZ PROC			; `dynamic atexit destructor for 'gEledoradoEvent'', COMDAT
  00000	b9 00 00 00 00	 mov	 ecx, OFFSET ?gEledoradoEvent@@3VCEledoradoEvent@@A ; gEledoradoEvent
  00005	e9 00 00 00 00	 jmp	 ??1CEledoradoEvent@@UAE@XZ ; CEledoradoEvent::~CEledoradoEvent
??__FgEledoradoEvent@@YAXXZ ENDP			; `dynamic atexit destructor for 'gEledoradoEvent''
text$yd	ENDS
PUBLIC	?gEledoradoEvent@@3VCEledoradoEvent@@A		; gEledoradoEvent
_BSS	SEGMENT
?gEledoradoEvent@@3VCEledoradoEvent@@A DB 078H DUP (?)	; gEledoradoEvent
_BSS	ENDS
CRT$XCU	SEGMENT
_gEledoradoEvent$initializer$ DD FLAT:??__EgEledoradoEvent@@YAXXZ
CRT$XCU	ENDS
END
