; Listing generated by Microsoft (R) Optimizing Compiler Version 16.00.30319.01 

	TITLE	E:\work\tranet_version\GS\GameServer\Event.cpp
	.686P
	.XMM
	include listing.inc
	.model	flat

INCLUDELIB LIBCMT
INCLUDELIB OLDNAMES

PUBLIC	?pEventObj@@3PAUOBJECTSTRUCT@@A			; pEventObj
PUBLIC	?g_sz2ANV_GIFT_NAME@@3PAY0EA@DA			; g_sz2ANV_GIFT_NAME
PUBLIC	?g_bRingEventItemTextLoad@@3HA			; g_bRingEventItemTextLoad
_BSS	SEGMENT
?pEventObj@@3PAUOBJECTSTRUCT@@A DD 01H DUP (?)		; pEventObj
?g_sz2ANV_GIFT_NAME@@3PAY0EA@DA DB 0c80H DUP (?)	; g_sz2ANV_GIFT_NAME
?g_bRingEventItemTextLoad@@3HA DD 01H DUP (?)		; g_bRingEventItemTextLoad
_BSS	ENDS
CONST	SEGMENT
_g_szRingEventOfflineGift DB '100', 0b5H, 0b7H, ' ', 0b9H, 0c2H, 0b9H, 0ddH
	DB	0c1H, 0f6H, 00H
	ORG $+19
	DB	'10', 0b5H, 0b7H, ' ', 0b9H, 0c2H, 0b9H, 0ddH, 0c1H, 0f6H
	DB	00H
	ORG $+20
	DB	'5', 0b5H, 0b7H, ' ', 0b9H, 0c2H, 0b9H, 0ddH, 0c1H, 0f6H, 00H
	ORG $+21
	DB	'2', 0b5H, 0b7H, ' ', 0b9H, 0c2H, 0b9H, 0ddH, 0c1H, 0f6H, 00H
	ORG $+21
CONST	ENDS
_DATA	SEGMENT
_g_iNpcUpDfLevel_CGATE DD 01H
	DD	02H
	DD	02dc6c0H
	DD	02H
	DD	03H
	DD	02dc6c0H
	DD	03H
	DD	04H
	DD	02dc6c0H
_g_iNpcUpDfLevel_CSTATUE DD 01H
	DD	03H
	DD	02dc6c0H
	DD	02H
	DD	05H
	DD	02dc6c0H
	DD	03H
	DD	07H
	DD	02dc6c0H
_g_iNpcUpMaxHP_CGATE DD 02625a0H
	DD	02H
	DD	0f4240H
	DD	03567e0H
	DD	03H
	DD	0f4240H
	DD	04f5880H
	DD	04H
	DD	0f4240H
_g_iNpcUpMaxHP_CSTATUE DD 02191c0H
	DD	03H
	DD	0f4240H
	DD	033e140H
	DD	05H
	DD	0f4240H
	DD	04c4b40H
	DD	07H
	DD	0f4240H
_g_iNpcUpRgLevel_CSTATUE DD 01H
	DD	03H
	DD	04c4b40H
	DD	02H
	DD	05H
	DD	04c4b40H
	DD	03H
	DD	07H
	DD	04c4b40H
_g_iCsUserReSpawnArea DD 023H
	DD	011H
	DD	090H
	DD	030H
	DD	04aH
	DD	090H
	DD	073H
	DD	09aH
	DD	023H
	DD	011H
	DD	090H
	DD	030H
_g_iNpcDefense_CGATE DD 064H
	DD	0b4H
	DD	012cH
	DD	0208H
_g_iNpcDefense_CSTATUE DD 050H
	DD	0b4H
	DD	0154H
	DD	0226H
_g_iCastleWallStepAxisY DD 071H
	DD	0a0H
	DD	0cbH
_DATA	ENDS
PUBLIC	??_H@YGXPAXIHP6EPAX0@Z@Z			; `vector constructor iterator'
; Function compile flags: /Ogtp
;	COMDAT ??_H@YGXPAXIHP6EPAX0@Z@Z
_TEXT	SEGMENT
___t$ = 8						; size = 4
___s$ = 12						; size = 4
___n$ = 16						; size = 4
___f$ = 20						; size = 4
??_H@YGXPAXIHP6EPAX0@Z@Z PROC				; `vector constructor iterator', COMDAT
  00000	55		 push	 ebp
  00001	8b ec		 mov	 ebp, esp
  00003	57		 push	 edi
  00004	8b 7d 10	 mov	 edi, DWORD PTR ___n$[ebp]
  00007	4f		 dec	 edi
  00008	78 14		 js	 SHORT $LN1@vector
  0000a	53		 push	 ebx
  0000b	8b 5d 14	 mov	 ebx, DWORD PTR ___f$[ebp]
  0000e	56		 push	 esi
  0000f	8b 75 08	 mov	 esi, DWORD PTR ___t$[ebp]
$LL2@vector:
  00012	8b ce		 mov	 ecx, esi
  00014	ff d3		 call	 ebx
  00016	03 75 0c	 add	 esi, DWORD PTR ___s$[ebp]
  00019	4f		 dec	 edi
  0001a	79 f6		 jns	 SHORT $LL2@vector
  0001c	5e		 pop	 esi
  0001d	5b		 pop	 ebx
$LN1@vector:
  0001e	5f		 pop	 edi
  0001f	5d		 pop	 ebp
  00020	c2 10 00	 ret	 16			; 00000010H
??_H@YGXPAXIHP6EPAX0@Z@Z ENDP				; `vector constructor iterator'
_TEXT	ENDS
PUBLIC	?GetBagCount@CItemBag@@QAEHXZ			; CItemBag::GetBagCount
; Function compile flags: /Ogtp
; File e:\work\tranet_version\gs\gameserver\itembag.h
;	COMDAT ?GetBagCount@CItemBag@@QAEHXZ
_TEXT	SEGMENT
?GetBagCount@CItemBag@@QAEHXZ PROC			; CItemBag::GetBagCount, COMDAT
; _this$ = ecx

; 49   : 		return this->BagObjectCount;

  00000	8b 81 88 03 00
	00		 mov	 eax, DWORD PTR [ecx+904]

; 50   : 	};	// line : 64

  00006	c3		 ret	 0
?GetBagCount@CItemBag@@QAEHXZ ENDP			; CItemBag::GetBagCount
_TEXT	ENDS
PUBLIC	??_C@_0CB@JKOKDAGE@Can?5not?5connect?5EventChip?5Server@ ; `string'
PUBLIC	?DataSendEventChip@@YAXPADH@Z			; DataSendEventChip
EXTRN	?DataSend@wsJoinServerCli@@QAEHPADH@Z:PROC	; wsJoinServerCli::DataSend
EXTRN	?LogAddTD@@3P6AXPADZZA:DWORD			; LogAddTD
EXTRN	?GMEventChipServerConnect@@YAHPADK@Z:PROC	; GMEventChipServerConnect
EXTRN	?gEventChipServerIp@@3PADA:BYTE			; gEventChipServerIp
EXTRN	?CreateSocket@MyWinsockBase@@QAEHPAUHWND__@@@Z:PROC ; MyWinsockBase::CreateSocket
EXTRN	?ghWnd@@3PAUHWND__@@A:DWORD			; ghWnd
EXTRN	?Close@MyWinsockBase@@QAEHXZ:PROC		; MyWinsockBase::Close
EXTRN	?wsEvenChipServerCli@@3VwsJoinServerCli@@A:BYTE	; wsEvenChipServerCli
EXTRN	?EventChipServerConnect@@3HA:DWORD		; EventChipServerConnect
EXTRN	?IsEventChipServerConnected@@3HA:DWORD		; IsEventChipServerConnected
;	COMDAT ??_C@_0CB@JKOKDAGE@Can?5not?5connect?5EventChip?5Server@
; File e:\work\tranet_version\gs\gameserver\event.cpp
CONST	SEGMENT
??_C@_0CB@JKOKDAGE@Can?5not?5connect?5EventChip?5Server@ DB 'Can not conn'
	DB	'ect EventChip Server', 00H			; `string'
; Function compile flags: /Ogtp
CONST	ENDS
;	COMDAT ?DataSendEventChip@@YAXPADH@Z
_TEXT	SEGMENT
_pMsg$ = 8						; size = 4
_size$ = 12						; size = 4
?DataSendEventChip@@YAXPADH@Z PROC			; DataSendEventChip, COMDAT

; 96   : {

  00000	55		 push	 ebp
  00001	8b ec		 mov	 ebp, esp

; 97   : 	if ( IsEventChipServerConnected == FALSE && ::EventChipServerConnect != FALSE )

  00003	83 3d 00 00 00
	00 00		 cmp	 DWORD PTR ?IsEventChipServerConnected@@3HA, 0 ; IsEventChipServerConnected
  0000a	75 58		 jne	 SHORT $LN6@DataSendEv
  0000c	83 3d 00 00 00
	00 00		 cmp	 DWORD PTR ?EventChipServerConnect@@3HA, 0 ; EventChipServerConnect
  00013	74 6a		 je	 SHORT $LN1@DataSendEv

; 98   : 	{
; 99   : 		wsEvenChipServerCli.Close();

  00015	b9 04 00 00 00	 mov	 ecx, OFFSET ?wsEvenChipServerCli@@3VwsJoinServerCli@@A+4
  0001a	e8 00 00 00 00	 call	 ?Close@MyWinsockBase@@QAEHXZ ; MyWinsockBase::Close

; 100  : 		wsEvenChipServerCli.CreateSocket(ghWnd);

  0001f	a1 00 00 00 00	 mov	 eax, DWORD PTR ?ghWnd@@3PAUHWND__@@A ; ghWnd
  00024	50		 push	 eax
  00025	b9 04 00 00 00	 mov	 ecx, OFFSET ?wsEvenChipServerCli@@3VwsJoinServerCli@@A+4
  0002a	e8 00 00 00 00	 call	 ?CreateSocket@MyWinsockBase@@QAEHPAUHWND__@@@Z ; MyWinsockBase::CreateSocket

; 101  : 		if ( GMEventChipServerConnect(::gEventChipServerIp, WM_GM_EVENTCHIP_CLIENT_MSG_PROC) == FALSE )

  0002f	68 0d 04 00 00	 push	 1037			; 0000040dH
  00034	68 00 00 00 00	 push	 OFFSET ?gEventChipServerIp@@3PADA ; gEventChipServerIp
  00039	e8 00 00 00 00	 call	 ?GMEventChipServerConnect@@YAHPADK@Z ; GMEventChipServerConnect
  0003e	83 c4 08	 add	 esp, 8
  00041	85 c0		 test	 eax, eax
  00043	75 15		 jne	 SHORT $LN2@DataSendEv

; 102  : 		{
; 103  : 			IsEventChipServerConnected = FALSE;
; 104  : 			LogAddTD("Can not connect EventChip Server");

  00045	68 00 00 00 00	 push	 OFFSET ??_C@_0CB@JKOKDAGE@Can?5not?5connect?5EventChip?5Server@
  0004a	a3 00 00 00 00	 mov	 DWORD PTR ?IsEventChipServerConnected@@3HA, eax ; IsEventChipServerConnected
  0004f	ff 15 00 00 00
	00		 call	 DWORD PTR ?LogAddTD@@3P6AXPADZZA ; LogAddTD
  00055	83 c4 04	 add	 esp, 4

; 116  : 	}
; 117  : }

  00058	5d		 pop	 ebp
  00059	c3		 ret	 0
$LN2@DataSendEv:

; 105  : 
; 106  : 			return;
; 107  : 		}
; 108  : 
; 109  : 		::IsEventChipServerConnected = TRUE;

  0005a	c7 05 00 00 00
	00 01 00 00 00	 mov	 DWORD PTR ?IsEventChipServerConnected@@3HA, 1 ; IsEventChipServerConnected
$LN6@DataSendEv:

; 110  : 
; 111  : 	}
; 112  : 
; 113  : 	if ( ::IsEventChipServerConnected != FALSE && ::EventChipServerConnect != FALSE )

  00064	83 3d 00 00 00
	00 00		 cmp	 DWORD PTR ?EventChipServerConnect@@3HA, 0 ; EventChipServerConnect
  0006b	74 12		 je	 SHORT $LN1@DataSendEv

; 114  : 	{
; 115  : 		::wsEvenChipServerCli.DataSend((char *)pMsg, size);

  0006d	8b 4d 0c	 mov	 ecx, DWORD PTR _size$[ebp]
  00070	8b 55 08	 mov	 edx, DWORD PTR _pMsg$[ebp]
  00073	51		 push	 ecx
  00074	52		 push	 edx
  00075	b9 00 00 00 00	 mov	 ecx, OFFSET ?wsEvenChipServerCli@@3VwsJoinServerCli@@A ; wsEvenChipServerCli
  0007a	e8 00 00 00 00	 call	 ?DataSend@wsJoinServerCli@@QAEHPADH@Z ; wsJoinServerCli::DataSend
$LN1@DataSendEv:

; 116  : 	}
; 117  : }

  0007f	5d		 pop	 ebp
  00080	c3		 ret	 0
?DataSendEventChip@@YAXPADH@Z ENDP			; DataSendEventChip
_TEXT	ENDS
PUBLIC	?EledoradoBoxOpenEven@@YAXPAUOBJECTSTRUCT@@HHH@Z ; EledoradoBoxOpenEven
EXTRN	?DropItem@CProbabilityItemBag@@QAEHHEEE@Z:PROC	; CProbabilityItemBag::DropItem
EXTRN	?KanturItemBag@@3PAVCProbabilityItemBag@@A:DWORD ; KanturItemBag
EXTRN	?DevilLizardKingItemBag@@3PAVCProbabilityItemBag@@A:DWORD ; DevilLizardKingItemBag
EXTRN	?GoldDerconItemBag@@3PAVCProbabilityItemBag@@A:DWORD ; GoldDerconItemBag
EXTRN	?TitanItemBag@@3PAVCProbabilityItemBag@@A:DWORD	; TitanItemBag
EXTRN	?GoldGoblenItemBag@@3PAVCProbabilityItemBag@@A:DWORD ; GoldGoblenItemBag
; Function compile flags: /Ogtp
;	COMDAT ?EledoradoBoxOpenEven@@YAXPAUOBJECTSTRUCT@@HHH@Z
_TEXT	SEGMENT
_lpObj$ = 8						; size = 4
_boxtype$ = 12						; size = 4
_addlevel$ = 16						; size = 4
_money$ = 20						; size = 4
?EledoradoBoxOpenEven@@YAXPAUOBJECTSTRUCT@@HHH@Z PROC	; EledoradoBoxOpenEven, COMDAT

; 120  : {

  00000	55		 push	 ebp
  00001	8b ec		 mov	 ebp, esp

; 121  : 	CProbabilityItemBag * EledoradoBox = NULL;
; 122  : 
; 123  : 	switch ( boxtype )

  00003	8b 45 0c	 mov	 eax, DWORD PTR _boxtype$[ebp]
  00006	83 c0 f8	 add	 eax, -8			; fffffff8H
  00009	83 f8 04	 cmp	 eax, 4
  0000c	77 54		 ja	 SHORT $LN9@EledoradoB
  0000e	ff 24 85 00 00
	00 00		 jmp	 DWORD PTR $LN11@EledoradoB[eax*4]
$LN6@EledoradoB:

; 124  : 	{
; 125  : 		case 8:
; 126  : 			EledoradoBox = ::GoldGoblenItemBag;

  00015	8b 0d 00 00 00
	00		 mov	 ecx, DWORD PTR ?GoldGoblenItemBag@@3PAVCProbabilityItemBag@@A ; GoldGoblenItemBag

; 127  : 			break;

  0001b	eb 1e		 jmp	 SHORT $LN7@EledoradoB
$LN5@EledoradoB:

; 128  : 		case 9:
; 129  : 			EledoradoBox = ::TitanItemBag;

  0001d	8b 0d 00 00 00
	00		 mov	 ecx, DWORD PTR ?TitanItemBag@@3PAVCProbabilityItemBag@@A ; TitanItemBag

; 130  : 			break;

  00023	eb 16		 jmp	 SHORT $LN7@EledoradoB
$LN4@EledoradoB:

; 131  : 		case 10:
; 132  : 			EledoradoBox = ::GoldDerconItemBag;

  00025	8b 0d 00 00 00
	00		 mov	 ecx, DWORD PTR ?GoldDerconItemBag@@3PAVCProbabilityItemBag@@A ; GoldDerconItemBag

; 133  : 			break;

  0002b	eb 0e		 jmp	 SHORT $LN7@EledoradoB
$LN3@EledoradoB:

; 134  : 		case 11:
; 135  : 			EledoradoBox = ::DevilLizardKingItemBag;

  0002d	8b 0d 00 00 00
	00		 mov	 ecx, DWORD PTR ?DevilLizardKingItemBag@@3PAVCProbabilityItemBag@@A ; DevilLizardKingItemBag

; 136  : 			break;

  00033	eb 06		 jmp	 SHORT $LN7@EledoradoB
$LN2@EledoradoB:

; 137  : 		case 12:
; 138  : 			EledoradoBox = ::KanturItemBag;

  00035	8b 0d 00 00 00
	00		 mov	 ecx, DWORD PTR ?KanturItemBag@@3PAVCProbabilityItemBag@@A ; KanturItemBag
$LN7@EledoradoB:

; 139  : 			break;
; 140  : 	}
; 141  : 
; 142  : 	if ( EledoradoBox == NULL )

  0003b	85 c9		 test	 ecx, ecx
  0003d	74 23		 je	 SHORT $LN9@EledoradoB

; 143  : 	{
; 144  : 		return;
; 145  : 	}
; 146  : 
; 147  : 	EledoradoBox->DropItem(lpObj->m_Index,lpObj->MapNumber,lpObj->X, lpObj->Y);

  0003f	8b 45 08	 mov	 eax, DWORD PTR _lpObj$[ebp]
  00042	0f b6 90 46 01
	00 00		 movzx	 edx, BYTE PTR [eax+326]
  00049	52		 push	 edx
  0004a	0f b6 90 44 01
	00 00		 movzx	 edx, BYTE PTR [eax+324]
  00051	52		 push	 edx
  00052	0f b6 90 49 01
	00 00		 movzx	 edx, BYTE PTR [eax+329]
  00059	8b 00		 mov	 eax, DWORD PTR [eax]
  0005b	52		 push	 edx
  0005c	50		 push	 eax
  0005d	e8 00 00 00 00	 call	 ?DropItem@CProbabilityItemBag@@QAEHHEEE@Z ; CProbabilityItemBag::DropItem
$LN9@EledoradoB:

; 148  : }

  00062	5d		 pop	 ebp
  00063	c3		 ret	 0
$LN11@EledoradoB:
  00064	00 00 00 00	 DD	 $LN6@EledoradoB
  00068	00 00 00 00	 DD	 $LN5@EledoradoB
  0006c	00 00 00 00	 DD	 $LN4@EledoradoB
  00070	00 00 00 00	 DD	 $LN3@EledoradoB
  00074	00 00 00 00	 DD	 $LN2@EledoradoB
?EledoradoBoxOpenEven@@YAXPAUOBJECTSTRUCT@@HHH@Z ENDP	; EledoradoBoxOpenEven
_TEXT	ENDS
PUBLIC	??_C@_0GG@LLIIPLAL@?$FL?$CFs?$FN?$FL?$CFs?$FN?$FLLucky?5Box?5Item?5Drop?$FN?$FLEv@ ; `string'
PUBLIC	??_C@_0BO@CCIJBOCK@EventChip?5Event?5ItemDrop?5Rena?$AA@ ; `string'
PUBLIC	__$ArrayPad$
PUBLIC	?EventChipOpenEven@@YAXPAUOBJECTSTRUCT@@@Z	; EventChipOpenEven
EXTRN	?MoneyItemDrop@MapClass@@QAEHHHH@Z:PROC		; MapClass::MoneyItemDrop
EXTRN	?MapC@@3PAVMapClass@@A:BYTE			; MapC
EXTRN	?GetName@CItem@@QAEPADXZ:PROC			; CItem::GetName
EXTRN	?Convert@CItem@@QAEXHEEEEEEPAEEEE@Z:PROC	; CItem::Convert
EXTRN	??0CItem@@QAE@XZ:PROC				; CItem::CItem
EXTRN	?DataSend@@YAHHPAEK@Z:PROC			; DataSend
EXTRN	?MsgSendV2@@YAXPAUOBJECTSTRUCT@@PAEH@Z:PROC	; MsgSendV2
EXTRN	?PHeadSubSetB@@YAXPAEEEH@Z:PROC			; PHeadSubSetB
EXTRN	?GetType@CItemBag@@QAEEH@Z:PROC			; CItemBag::GetType
EXTRN	?GetIndex@CItemBag@@QAEEH@Z:PROC		; CItemBag::GetIndex
EXTRN	?GetLevel@CItemBag@@QAEEH@Z:PROC		; CItemBag::GetLevel
EXTRN	?g_ItemDropRateForBoxOfGold@@3HA:DWORD		; g_ItemDropRateForBoxOfGold
EXTRN	?LuckboxItemBag@@3PAVCItemBag@@A:DWORD		; LuckboxItemBag
EXTRN	?LogAdd@@3P6AXPADZZA:DWORD			; LogAdd
EXTRN	?ItemSerialCreateSend@@YAXHEEEHEEEEEHEE@Z:PROC	; ItemSerialCreateSend
EXTRN	?ItemGetNumberMake@@YAHHH@Z:PROC		; ItemGetNumberMake
EXTRN	?g_EventChipDropRateForBoxOfGold@@3HA:DWORD	; g_EventChipDropRateForBoxOfGold
EXTRN	_rand:PROC
EXTRN	___security_cookie:DWORD
EXTRN	__fltused:DWORD
EXTRN	@__security_check_cookie@4:PROC
;	COMDAT ??_C@_0GG@LLIIPLAL@?$FL?$CFs?$FN?$FL?$CFs?$FN?$FLLucky?5Box?5Item?5Drop?$FN?$FLEv@
; File e:\work\tranet_version\gs\gameserver\itembag.h
CONST	SEGMENT
??_C@_0GG@LLIIPLAL@?$FL?$CFs?$FN?$FL?$CFs?$FN?$FLLucky?5Box?5Item?5Drop?$FN?$FLEv@ DB '['
	DB	'%s][%s][Lucky Box Item Drop][Event Chip] : (%d)(X:%d/Y:%d) It'
	DB	'em:%s(%d) Level:%d Op1:%d Op2:%d Op3:%d', 00H ; `string'
CONST	ENDS
;	COMDAT ??_C@_0BO@CCIJBOCK@EventChip?5Event?5ItemDrop?5Rena?$AA@
CONST	SEGMENT
??_C@_0BO@CCIJBOCK@EventChip?5Event?5ItemDrop?5Rena?$AA@ DB 'EventChip Ev'
	DB	'ent ItemDrop Rena', 00H			; `string'
; Function compile flags: /Ogtp
; File e:\work\tranet_version\gs\gameserver\event.cpp
CONST	ENDS
;	COMDAT ?EventChipOpenEven@@YAXPAUOBJECTSTRUCT@@@Z
_TEXT	SEGMENT
_DropItemNum$ = -248					; size = 4
_y$ = -244						; size = 4
_x$ = -240						; size = 4
_pMsg$215241 = -236					; size = 7
_Option1$ = -228					; size = 4
_Option3$ = -224					; size = 4
tv551 = -220						; size = 4
_Option2$ = -220					; size = 4
_NewItem$215245 = -216					; size = 212
__$ArrayPad$ = -4					; size = 4
_lpObj$ = 8						; size = 4
?EventChipOpenEven@@YAXPAUOBJECTSTRUCT@@@Z PROC		; EventChipOpenEven, COMDAT

; 151  : {

  00000	55		 push	 ebp
  00001	8b ec		 mov	 ebp, esp
  00003	81 ec f8 00 00
	00		 sub	 esp, 248		; 000000f8H
  00009	a1 00 00 00 00	 mov	 eax, DWORD PTR ___security_cookie
  0000e	33 c5		 xor	 eax, ebp
  00010	89 45 fc	 mov	 DWORD PTR __$ArrayPad$[ebp], eax
  00013	53		 push	 ebx
  00014	56		 push	 esi
  00015	8b 75 08	 mov	 esi, DWORD PTR _lpObj$[ebp]
  00018	57		 push	 edi

; 152  : 	float dur;
; 153  : 	int type;
; 154  : 	int level;
; 155  : 	int x;
; 156  : 	int y;
; 157  : 	int Option1 = 0;
; 158  : 	int Option2 = 0;
; 159  : 	int Option3 = 0;

  00019	c7 85 20 ff ff
	ff 00 00 00 00	 mov	 DWORD PTR _Option3$[ebp], 0

; 160  : 	int DropItemNum;
; 161  : 	int ExOption = 0;
; 162  : 
; 163  : 	if ( (rand()%100) < ::g_EventChipDropRateForBoxOfGold )

  00023	e8 00 00 00 00	 call	 _rand
  00028	99		 cdq
  00029	b9 64 00 00 00	 mov	 ecx, 100		; 00000064H
  0002e	f7 f9		 idiv	 ecx
  00030	3b 15 00 00 00
	00		 cmp	 edx, DWORD PTR ?g_EventChipDropRateForBoxOfGold@@3HA ; g_EventChipDropRateForBoxOfGold
  00036	7d 5b		 jge	 SHORT $LN14@EventChipO

; 164  : 	{
; 165  : 		dur = 255.0f;
; 166  : 		x = lpObj->X;

  00038	0f bf be 44 01
	00 00		 movsx	 edi, WORD PTR [esi+324]

; 167  : 		y = lpObj->Y;

  0003f	0f bf 9e 46 01
	00 00		 movsx	 ebx, WORD PTR [esi+326]

; 168  : 		level = 0;
; 169  : 		type = ItemGetNumberMake(14, 21);

  00046	6a 15		 push	 21			; 00000015H
  00048	6a 0e		 push	 14			; 0000000eH
  0004a	e8 00 00 00 00	 call	 ?ItemGetNumberMake@@YAHHH@Z ; ItemGetNumberMake

; 170  : 		::ItemSerialCreateSend(lpObj->m_Index, (BYTE)lpObj->MapNumber, (BYTE)x, (BYTE)y, type, (BYTE)level, (BYTE)dur, (BYTE)Option1, (BYTE)Option2, (BYTE)Option3, lpObj->m_Index, 0, 0);

  0004f	8b 0e		 mov	 ecx, DWORD PTR [esi]
  00051	0f b6 96 49 01
	00 00		 movzx	 edx, BYTE PTR [esi+329]
  00058	6a 00		 push	 0
  0005a	6a 00		 push	 0
  0005c	51		 push	 ecx
  0005d	6a 00		 push	 0
  0005f	6a 00		 push	 0
  00061	6a 00		 push	 0
  00063	68 ff 00 00 00	 push	 255			; 000000ffH
  00068	6a 00		 push	 0
  0006a	50		 push	 eax
  0006b	53		 push	 ebx
  0006c	57		 push	 edi
  0006d	52		 push	 edx
  0006e	51		 push	 ecx
  0006f	e8 00 00 00 00	 call	 ?ItemSerialCreateSend@@YAXHEEEHEEEEEHEE@Z ; ItemSerialCreateSend

; 171  : 		LogAdd("EventChip Event ItemDrop Rena");

  00074	68 00 00 00 00	 push	 OFFSET ??_C@_0BO@CCIJBOCK@EventChip?5Event?5ItemDrop?5Rena?$AA@
  00079	ff 15 00 00 00
	00		 call	 DWORD PTR ?LogAdd@@3P6AXPADZZA ; LogAdd
  0007f	83 c4 40	 add	 esp, 64			; 00000040H
  00082	5f		 pop	 edi
  00083	5e		 pop	 esi
  00084	5b		 pop	 ebx

; 294  : }

  00085	8b 4d fc	 mov	 ecx, DWORD PTR __$ArrayPad$[ebp]
  00088	33 cd		 xor	 ecx, ebp
  0008a	e8 00 00 00 00	 call	 @__security_check_cookie@4
  0008f	8b e5		 mov	 esp, ebp
  00091	5d		 pop	 ebp
  00092	c3		 ret	 0
$LN14@EventChipO:

; 172  : 
; 173  : 		return;
; 174  : 	}
; 175  : 
; 176  : 	if ( LuckboxItemBag == NULL )

  00093	a1 00 00 00 00	 mov	 eax, DWORD PTR ?LuckboxItemBag@@3PAVCItemBag@@A ; LuckboxItemBag
  00098	85 c0		 test	 eax, eax
  0009a	0f 84 ec 03 00
	00		 je	 $LN15@EventChipO

; 177  : 	{
; 178  : 		return;
; 179  : 	}
; 180  : 
; 181  : 	if ( LuckboxItemBag->GetBagCount() > 0 )

  000a0	83 b8 88 03 00
	00 00		 cmp	 DWORD PTR [eax+904], 0
  000a7	0f 8e b2 03 00
	00		 jle	 $LN11@EventChipO

; 182  : 	{
; 183  : 		if ( (rand()%20) < ::g_ItemDropRateForBoxOfGold )

  000ad	e8 00 00 00 00	 call	 _rand
  000b2	99		 cdq
  000b3	b9 14 00 00 00	 mov	 ecx, 20			; 00000014H
  000b8	f7 f9		 idiv	 ecx
  000ba	3b 15 00 00 00
	00		 cmp	 edx, DWORD PTR ?g_ItemDropRateForBoxOfGold@@3HA ; g_ItemDropRateForBoxOfGold
  000c0	0f 8d 99 03 00
	00		 jge	 $LN11@EventChipO

; 184  : 		{
; 185  : 			DropItemNum = rand() % LuckboxItemBag->GetBagCount();

  000c6	8b 15 00 00 00
	00		 mov	 edx, DWORD PTR ?LuckboxItemBag@@3PAVCItemBag@@A ; LuckboxItemBag
  000cc	8b ba 88 03 00
	00		 mov	 edi, DWORD PTR [edx+904]
  000d2	e8 00 00 00 00	 call	 _rand
  000d7	99		 cdq
  000d8	f7 ff		 idiv	 edi

; 186  : 			dur = 0;
; 187  : 			x = lpObj->X;
; 188  : 			y = lpObj->Y;

  000da	0f bf 8e 46 01
	00 00		 movsx	 ecx, WORD PTR [esi+326]
  000e1	0f bf 86 44 01
	00 00		 movsx	 eax, WORD PTR [esi+324]
  000e8	89 8d 0c ff ff
	ff		 mov	 DWORD PTR _y$[ebp], ecx

; 189  : 			level = LuckboxItemBag->GetLevel(DropItemNum) + rand() % 2;

  000ee	8b 0d 00 00 00
	00		 mov	 ecx, DWORD PTR ?LuckboxItemBag@@3PAVCItemBag@@A ; LuckboxItemBag
  000f4	89 85 10 ff ff
	ff		 mov	 DWORD PTR _x$[ebp], eax
  000fa	8b da		 mov	 ebx, edx
  000fc	53		 push	 ebx
  000fd	89 9d 08 ff ff
	ff		 mov	 DWORD PTR _DropItemNum$[ebp], ebx
  00103	e8 00 00 00 00	 call	 ?GetLevel@CItemBag@@QAEEH@Z ; CItemBag::GetLevel
  00108	0f b6 d0	 movzx	 edx, al
  0010b	89 95 24 ff ff
	ff		 mov	 DWORD PTR tv551[ebp], edx
  00111	e8 00 00 00 00	 call	 _rand
  00116	8b f8		 mov	 edi, eax
  00118	81 e7 01 00 00
	80		 and	 edi, -2147483647	; 80000001H
  0011e	79 05		 jns	 SHORT $LN23@EventChipO
  00120	4f		 dec	 edi
  00121	83 cf fe	 or	 edi, -2			; fffffffeH
  00124	47		 inc	 edi
$LN23@EventChipO:

; 190  : 
; 191  : 			type = ItemGetNumberMake(LuckboxItemBag->GetType(DropItemNum), LuckboxItemBag->GetIndex(DropItemNum));

  00125	8b 0d 00 00 00
	00		 mov	 ecx, DWORD PTR ?LuckboxItemBag@@3PAVCItemBag@@A ; LuckboxItemBag
  0012b	03 bd 24 ff ff
	ff		 add	 edi, DWORD PTR tv551[ebp]
  00131	53		 push	 ebx
  00132	e8 00 00 00 00	 call	 ?GetIndex@CItemBag@@QAEEH@Z ; CItemBag::GetIndex
  00137	8b 0d 00 00 00
	00		 mov	 ecx, DWORD PTR ?LuckboxItemBag@@3PAVCItemBag@@A ; LuckboxItemBag
  0013d	0f b6 c0	 movzx	 eax, al
  00140	50		 push	 eax
  00141	53		 push	 ebx
  00142	e8 00 00 00 00	 call	 ?GetType@CItemBag@@QAEEH@Z ; CItemBag::GetType
  00147	0f b6 c8	 movzx	 ecx, al
  0014a	51		 push	 ecx
  0014b	e8 00 00 00 00	 call	 ?ItemGetNumberMake@@YAHHH@Z ; ItemGetNumberMake
  00150	83 c4 08	 add	 esp, 8
  00153	8b d8		 mov	 ebx, eax

; 192  : 
; 193  : 			Option1 = rand() % 2;

  00155	e8 00 00 00 00	 call	 _rand
  0015a	25 01 00 00 80	 and	 eax, -2147483647	; 80000001H
  0015f	79 05		 jns	 SHORT $LN24@EventChipO
  00161	48		 dec	 eax
  00162	83 c8 fe	 or	 eax, -2			; fffffffeH
  00165	40		 inc	 eax
$LN24@EventChipO:
  00166	89 85 1c ff ff
	ff		 mov	 DWORD PTR _Option1$[ebp], eax

; 194  : 			Option2 = rand() % 2;

  0016c	e8 00 00 00 00	 call	 _rand
  00171	25 01 00 00 80	 and	 eax, -2147483647	; 80000001H
  00176	79 05		 jns	 SHORT $LN25@EventChipO
  00178	48		 dec	 eax
  00179	83 c8 fe	 or	 eax, -2			; fffffffeH
  0017c	40		 inc	 eax
$LN25@EventChipO:
  0017d	89 85 24 ff ff
	ff		 mov	 DWORD PTR _Option2$[ebp], eax

; 195  : 
; 196  : 			if ( Option2 == 0 || Option1  == 0 )

  00183	74 0a		 je	 SHORT $LN9@EventChipO
  00185	33 c9		 xor	 ecx, ecx
  00187	39 8d 1c ff ff
	ff		 cmp	 DWORD PTR _Option1$[ebp], ecx
  0018d	75 33		 jne	 SHORT $LN22@EventChipO
$LN9@EventChipO:

; 197  : 			{
; 198  : 				if ( (rand() % 5 ) < 1 )

  0018f	e8 00 00 00 00	 call	 _rand
  00194	99		 cdq
  00195	b9 05 00 00 00	 mov	 ecx, 5
  0019a	f7 f9		 idiv	 ecx
  0019c	83 fa 01	 cmp	 edx, 1
  0019f	7d 0c		 jge	 SHORT $LN8@EventChipO

; 199  : 				{
; 200  : 					Option3 = 3;

  001a1	c7 85 20 ff ff
	ff 03 00 00 00	 mov	 DWORD PTR _Option3$[ebp], 3

; 201  : 				}
; 202  : 				else

  001ab	eb 13		 jmp	 SHORT $LN26@EventChipO
$LN8@EventChipO:

; 203  : 				{
; 204  : 					Option3 = rand() % 3;

  001ad	e8 00 00 00 00	 call	 _rand
  001b2	99		 cdq
  001b3	b9 03 00 00 00	 mov	 ecx, 3
  001b8	f7 f9		 idiv	 ecx
  001ba	89 95 20 ff ff
	ff		 mov	 DWORD PTR _Option3$[ebp], edx
$LN26@EventChipO:
  001c0	33 c9		 xor	 ecx, ecx
$LN22@EventChipO:

; 205  : 				}
; 206  : 			}
; 207  : 
; 208  : 			if ( type == ITEMGET(12,15) ||
; 209  : 				 type == ITEMGET(14,13) ||
; 210  : 				 type == ITEMGET(14,14) ||
; 211  : 				 type == ITEMGET(14,14) ||
; 212  : 				 type == ITEMGET(14,16)	||
; 213  : 				 type == ITEMGET(14,22)	||
; 214  : 				 type == ITEMGET(14,31)	||
; 215  : 				 type == ITEMGET(14,41)	||
; 216  : 				 type == ITEMGET(14,42)	||
; 217  : 				 type == ITEMGET(14,180)||
; 218  : 				 type == ITEMGET(14,181)||
; 219  : 				 type == ITEMGET(14,182)||
; 220  : 				 type == ITEMGET(14,183)||
; 221  : 				 type == ITEMGET(14,184)||
; 222  : 				 type == ITEMGET(14,185)||
; 223  : 				 type == ITEMGET(14,186)||
; 224  : 				 type == ITEMGET(14,187)||
; 225  : 				 type == ITEMGET(14,190)||
; 226  : 				 type == ITEMGET(14,43) ||
; 227  : 				 type == ITEMGET(14,44) )

  001c2	81 fb 0f 18 00
	00		 cmp	 ebx, 6159		; 0000180fH
  001c8	0f 84 98 00 00
	00		 je	 $LN5@EventChipO
  001ce	81 fb 0d 1c 00
	00		 cmp	 ebx, 7181		; 00001c0dH
  001d4	0f 84 8c 00 00
	00		 je	 $LN5@EventChipO
  001da	81 fb 0e 1c 00
	00		 cmp	 ebx, 7182		; 00001c0eH
  001e0	0f 84 80 00 00
	00		 je	 $LN5@EventChipO
  001e6	81 fb 10 1c 00
	00		 cmp	 ebx, 7184		; 00001c10H
  001ec	74 78		 je	 SHORT $LN5@EventChipO
  001ee	81 fb 16 1c 00
	00		 cmp	 ebx, 7190		; 00001c16H
  001f4	74 70		 je	 SHORT $LN5@EventChipO
  001f6	81 fb 1f 1c 00
	00		 cmp	 ebx, 7199		; 00001c1fH
  001fc	74 68		 je	 SHORT $LN5@EventChipO
  001fe	81 fb 29 1c 00
	00		 cmp	 ebx, 7209		; 00001c29H
  00204	74 60		 je	 SHORT $LN5@EventChipO
  00206	81 fb 2a 1c 00
	00		 cmp	 ebx, 7210		; 00001c2aH
  0020c	74 58		 je	 SHORT $LN5@EventChipO
  0020e	81 fb b4 1c 00
	00		 cmp	 ebx, 7348		; 00001cb4H
  00214	74 50		 je	 SHORT $LN5@EventChipO
  00216	81 fb b5 1c 00
	00		 cmp	 ebx, 7349		; 00001cb5H
  0021c	74 48		 je	 SHORT $LN5@EventChipO
  0021e	81 fb b6 1c 00
	00		 cmp	 ebx, 7350		; 00001cb6H
  00224	74 40		 je	 SHORT $LN5@EventChipO
  00226	81 fb b7 1c 00
	00		 cmp	 ebx, 7351		; 00001cb7H
  0022c	74 38		 je	 SHORT $LN5@EventChipO
  0022e	81 fb b8 1c 00
	00		 cmp	 ebx, 7352		; 00001cb8H
  00234	74 30		 je	 SHORT $LN5@EventChipO
  00236	81 fb b9 1c 00
	00		 cmp	 ebx, 7353		; 00001cb9H
  0023c	74 28		 je	 SHORT $LN5@EventChipO
  0023e	81 fb ba 1c 00
	00		 cmp	 ebx, 7354		; 00001cbaH
  00244	74 20		 je	 SHORT $LN5@EventChipO
  00246	81 fb bb 1c 00
	00		 cmp	 ebx, 7355		; 00001cbbH
  0024c	74 18		 je	 SHORT $LN5@EventChipO
  0024e	81 fb be 1c 00
	00		 cmp	 ebx, 7358		; 00001cbeH
  00254	74 10		 je	 SHORT $LN5@EventChipO
  00256	81 fb 2b 1c 00
	00		 cmp	 ebx, 7211		; 00001c2bH
  0025c	74 08		 je	 SHORT $LN5@EventChipO
  0025e	81 fb 2c 1c 00
	00		 cmp	 ebx, 7212		; 00001c2cH
  00264	75 14		 jne	 SHORT $LN6@EventChipO
$LN5@EventChipO:

; 228  : 			{
; 229  : 				Option1 = 0;

  00266	89 8d 1c ff ff
	ff		 mov	 DWORD PTR _Option1$[ebp], ecx

; 230  : 				Option2 = 0;

  0026c	89 8d 24 ff ff
	ff		 mov	 DWORD PTR _Option2$[ebp], ecx

; 231  : 				Option3 = 0;

  00272	89 8d 20 ff ff
	ff		 mov	 DWORD PTR _Option3$[ebp], ecx

; 232  : 				level = 0;

  00278	33 ff		 xor	 edi, edi
$LN6@EventChipO:

; 233  : 				ExOption = 0;
; 234  : 			}
; 235  : 
; 236  : 			if ( type == ITEMGET(12,30)	||
; 237  : 				 type == ITEMGET(12,31)	||
; 238  : 				 type == ITEMGET(12,136)||
; 239  : 				 type == ITEMGET(12,137)||
; 240  : 				 type == ITEMGET(12,138)||
; 241  : 				 type == ITEMGET(12,139)||
; 242  : 				 type == ITEMGET(12,140)||
; 243  : 				 type == ITEMGET(12,141)||
; 244  : 				 type == ITEMGET(12,142)||
; 245  : 				 type == ITEMGET(12,143))

  0027a	81 fb 1e 18 00
	00		 cmp	 ebx, 6174		; 0000181eH
  00280	74 48		 je	 SHORT $LN3@EventChipO
  00282	81 fb 1f 18 00
	00		 cmp	 ebx, 6175		; 0000181fH
  00288	74 40		 je	 SHORT $LN3@EventChipO
  0028a	81 fb 88 18 00
	00		 cmp	 ebx, 6280		; 00001888H
  00290	74 38		 je	 SHORT $LN3@EventChipO
  00292	81 fb 89 18 00
	00		 cmp	 ebx, 6281		; 00001889H
  00298	74 30		 je	 SHORT $LN3@EventChipO
  0029a	81 fb 8a 18 00
	00		 cmp	 ebx, 6282		; 0000188aH
  002a0	74 28		 je	 SHORT $LN3@EventChipO
  002a2	81 fb 8b 18 00
	00		 cmp	 ebx, 6283		; 0000188bH
  002a8	74 20		 je	 SHORT $LN3@EventChipO
  002aa	81 fb 8c 18 00
	00		 cmp	 ebx, 6284		; 0000188cH
  002b0	74 18		 je	 SHORT $LN3@EventChipO
  002b2	81 fb 8d 18 00
	00		 cmp	 ebx, 6285		; 0000188dH
  002b8	74 10		 je	 SHORT $LN3@EventChipO
  002ba	81 fb 8e 18 00
	00		 cmp	 ebx, 6286		; 0000188eH
  002c0	74 08		 je	 SHORT $LN3@EventChipO
  002c2	81 fb 8f 18 00
	00		 cmp	 ebx, 6287		; 0000188fH
  002c8	75 29		 jne	 SHORT $LN4@EventChipO
$LN3@EventChipO:

; 246  : 			{
; 247  : 				Option1 = 0;
; 248  : 				Option2 = 0;
; 249  : 				Option3 = 0;
; 250  : 				level = LuckboxItemBag->GetLevel(DropItemNum);

  002ca	8b 95 08 ff ff
	ff		 mov	 edx, DWORD PTR _DropItemNum$[ebp]
  002d0	89 8d 1c ff ff
	ff		 mov	 DWORD PTR _Option1$[ebp], ecx
  002d6	89 8d 24 ff ff
	ff		 mov	 DWORD PTR _Option2$[ebp], ecx
  002dc	89 8d 20 ff ff
	ff		 mov	 DWORD PTR _Option3$[ebp], ecx
  002e2	8b 0d 00 00 00
	00		 mov	 ecx, DWORD PTR ?LuckboxItemBag@@3PAVCItemBag@@A ; LuckboxItemBag
  002e8	52		 push	 edx
  002e9	e8 00 00 00 00	 call	 ?GetLevel@CItemBag@@QAEEH@Z ; CItemBag::GetLevel
  002ee	0f b6 f8	 movzx	 edi, al
  002f1	33 c9		 xor	 ecx, ecx
$LN4@EventChipO:

; 251  : 				ExOption = 0;
; 252  : 			}
; 253  : 
; 254  : 			if ( type == ITEMGET(13,0) ||
; 255  : 				 type == ITEMGET(13,1) ||
; 256  : 				 type == ITEMGET(13,2) ||
; 257  : 				 type == ITEMGET(13,8) ||
; 258  : 				 type == ITEMGET(13,9) ||
; 259  : 				 type == ITEMGET(13,12) ||
; 260  : 				 type == ITEMGET(13,13) )

  002f3	81 fb 00 1a 00
	00		 cmp	 ebx, 6656		; 00001a00H
  002f9	74 30		 je	 SHORT $LN1@EventChipO
  002fb	81 fb 01 1a 00
	00		 cmp	 ebx, 6657		; 00001a01H
  00301	74 28		 je	 SHORT $LN1@EventChipO
  00303	81 fb 02 1a 00
	00		 cmp	 ebx, 6658		; 00001a02H
  00309	74 20		 je	 SHORT $LN1@EventChipO
  0030b	81 fb 08 1a 00
	00		 cmp	 ebx, 6664		; 00001a08H
  00311	74 18		 je	 SHORT $LN1@EventChipO
  00313	81 fb 09 1a 00
	00		 cmp	 ebx, 6665		; 00001a09H
  00319	74 10		 je	 SHORT $LN1@EventChipO
  0031b	81 fb 0c 1a 00
	00		 cmp	 ebx, 6668		; 00001a0cH
  00321	74 08		 je	 SHORT $LN1@EventChipO
  00323	81 fb 0d 1a 00
	00		 cmp	 ebx, 6669		; 00001a0dH
  00329	75 02		 jne	 SHORT $LN2@EventChipO
$LN1@EventChipO:

; 261  : 			{
; 262  : 				level = 0;

  0032b	33 ff		 xor	 edi, edi
$LN2@EventChipO:

; 263  : 			}
; 264  : 
; 265  : 			ItemSerialCreateSend(lpObj->m_Index, (BYTE)lpObj->MapNumber, (BYTE)x, (BYTE)y,
; 266  : 				type, (BYTE)level, (BYTE)dur, (BYTE)Option1, (BYTE)Option2, (BYTE)Option3, lpObj->m_Index, (BYTE)ExOption, 0);

  0032d	8b 06		 mov	 eax, DWORD PTR [esi]
  0032f	8b 95 20 ff ff
	ff		 mov	 edx, DWORD PTR _Option3$[ebp]
  00335	51		 push	 ecx
  00336	51		 push	 ecx
  00337	50		 push	 eax
  00338	52		 push	 edx
  00339	8b 95 24 ff ff
	ff		 mov	 edx, DWORD PTR _Option2$[ebp]
  0033f	52		 push	 edx
  00340	8b 95 1c ff ff
	ff		 mov	 edx, DWORD PTR _Option1$[ebp]
  00346	52		 push	 edx
  00347	8b 95 10 ff ff
	ff		 mov	 edx, DWORD PTR _x$[ebp]
  0034d	51		 push	 ecx
  0034e	8b 8d 0c ff ff
	ff		 mov	 ecx, DWORD PTR _y$[ebp]
  00354	57		 push	 edi
  00355	53		 push	 ebx
  00356	51		 push	 ecx
  00357	0f b6 8e 49 01
	00 00		 movzx	 ecx, BYTE PTR [esi+329]
  0035e	52		 push	 edx
  0035f	51		 push	 ecx
  00360	50		 push	 eax
  00361	e8 00 00 00 00	 call	 ?ItemSerialCreateSend@@YAXHEEEHEEEEEHEE@Z ; ItemSerialCreateSend

; 267  : 
; 268  : 			PMSG_SERVERCMD pMsg;
; 269  : 
; 270  : 			PHeadSubSetB((LPBYTE)&pMsg, 0xF3, 0x40, sizeof(pMsg));

  00366	6a 07		 push	 7
  00368	6a 40		 push	 64			; 00000040H
  0036a	8d 95 14 ff ff
	ff		 lea	 edx, DWORD PTR _pMsg$215241[ebp]
  00370	68 f3 00 00 00	 push	 243			; 000000f3H
  00375	52		 push	 edx
  00376	e8 00 00 00 00	 call	 ?PHeadSubSetB@@YAXPAEEEH@Z ; PHeadSubSetB

; 271  : 			pMsg.CmdType = 2;
; 272  : 			pMsg.X = x;

  0037b	8a 85 10 ff ff
	ff		 mov	 al, BYTE PTR _x$[ebp]

; 273  : 			pMsg.Y = y;

  00381	8a 8d 0c ff ff
	ff		 mov	 cl, BYTE PTR _y$[ebp]
  00387	83 c4 44	 add	 esp, 68			; 00000044H

; 274  : 
; 275  : 			MsgSendV2(lpObj, (LPBYTE)&pMsg, sizeof(pMsg));

  0038a	6a 07		 push	 7
  0038c	8d 95 14 ff ff
	ff		 lea	 edx, DWORD PTR _pMsg$215241[ebp]
  00392	52		 push	 edx
  00393	56		 push	 esi
  00394	c6 85 18 ff ff
	ff 02		 mov	 BYTE PTR _pMsg$215241[ebp+4], 2
  0039b	88 85 19 ff ff
	ff		 mov	 BYTE PTR _pMsg$215241[ebp+5], al
  003a1	88 8d 1a ff ff
	ff		 mov	 BYTE PTR _pMsg$215241[ebp+6], cl
  003a7	e8 00 00 00 00	 call	 ?MsgSendV2@@YAXPAUOBJECTSTRUCT@@PAEH@Z ; MsgSendV2

; 276  : 			DataSend(lpObj->m_Index, (LPBYTE)&pMsg, sizeof(pMsg));

  003ac	8b 0e		 mov	 ecx, DWORD PTR [esi]
  003ae	6a 07		 push	 7
  003b0	8d 85 14 ff ff
	ff		 lea	 eax, DWORD PTR _pMsg$215241[ebp]
  003b6	50		 push	 eax
  003b7	51		 push	 ecx
  003b8	e8 00 00 00 00	 call	 ?DataSend@@YAHHPAEK@Z	; DataSend
  003bd	83 c4 18	 add	 esp, 24			; 00000018H

; 277  : 
; 278  : 			CItem NewItem;

  003c0	8d 8d 28 ff ff
	ff		 lea	 ecx, DWORD PTR _NewItem$215245[ebp]
  003c6	e8 00 00 00 00	 call	 ??0CItem@@QAE@XZ	; CItem::CItem

; 279  : 			NewItem.Convert(type, Option1, Option2, Option3, 0, 1, 0, NULL, 0xFF, 0, CURRENT_DB_VERSION);

  003cb	8b 95 20 ff ff
	ff		 mov	 edx, DWORD PTR _Option3$[ebp]
  003d1	8b 85 24 ff ff
	ff		 mov	 eax, DWORD PTR _Option2$[ebp]
  003d7	8b 8d 1c ff ff
	ff		 mov	 ecx, DWORD PTR _Option1$[ebp]
  003dd	6a 03		 push	 3
  003df	6a 00		 push	 0
  003e1	68 ff 00 00 00	 push	 255			; 000000ffH
  003e6	6a 00		 push	 0
  003e8	6a 00		 push	 0
  003ea	6a 01		 push	 1
  003ec	6a 00		 push	 0
  003ee	52		 push	 edx
  003ef	50		 push	 eax
  003f0	51		 push	 ecx
  003f1	53		 push	 ebx
  003f2	8d 8d 28 ff ff
	ff		 lea	 ecx, DWORD PTR _NewItem$215245[ebp]
  003f8	e8 00 00 00 00	 call	 ?Convert@CItem@@QAEXHEEEEEEPAEEEE@Z ; CItem::Convert

; 280  : 
; 281  : 			LogAddTD("[%s][%s][Lucky Box Item Drop][Event Chip] : (%d)(X:%d/Y:%d) Item:%s(%d) Level:%d Op1:%d Op2:%d Op3:%d",
; 282  : 				lpObj->AccountID, lpObj->Name, lpObj->MapNumber, lpObj->X, lpObj->Y, NewItem.GetName(),
; 283  : 				type, level, Option1, Option2, Option3);

  003fd	8b 95 20 ff ff
	ff		 mov	 edx, DWORD PTR _Option3$[ebp]
  00403	8b 85 24 ff ff
	ff		 mov	 eax, DWORD PTR _Option2$[ebp]
  00409	8b 8d 1c ff ff
	ff		 mov	 ecx, DWORD PTR _Option1$[ebp]
  0040f	52		 push	 edx
  00410	50		 push	 eax
  00411	51		 push	 ecx
  00412	57		 push	 edi
  00413	53		 push	 ebx
  00414	8d 8d 28 ff ff
	ff		 lea	 ecx, DWORD PTR _NewItem$215245[ebp]
  0041a	e8 00 00 00 00	 call	 ?GetName@CItem@@QAEPADXZ ; CItem::GetName
  0041f	0f bf 96 46 01
	00 00		 movsx	 edx, WORD PTR [esi+326]
  00426	0f b6 8e 49 01
	00 00		 movzx	 ecx, BYTE PTR [esi+329]
  0042d	50		 push	 eax
  0042e	0f bf 86 44 01
	00 00		 movsx	 eax, WORD PTR [esi+324]
  00435	52		 push	 edx
  00436	50		 push	 eax
  00437	51		 push	 ecx
  00438	8d 56 77	 lea	 edx, DWORD PTR [esi+119]
  0043b	52		 push	 edx
  0043c	83 c6 6c	 add	 esi, 108		; 0000006cH
  0043f	56		 push	 esi
  00440	68 00 00 00 00	 push	 OFFSET ??_C@_0GG@LLIIPLAL@?$FL?$CFs?$FN?$FL?$CFs?$FN?$FLLucky?5Box?5Item?5Drop?$FN?$FLEv@
  00445	ff 15 00 00 00
	00		 call	 DWORD PTR ?LogAddTD@@3P6AXPADZZA ; LogAddTD
  0044b	83 c4 30	 add	 esp, 48			; 00000030H
  0044e	5f		 pop	 edi
  0044f	5e		 pop	 esi
  00450	5b		 pop	 ebx

; 294  : }

  00451	8b 4d fc	 mov	 ecx, DWORD PTR __$ArrayPad$[ebp]
  00454	33 cd		 xor	 ecx, ebp
  00456	e8 00 00 00 00	 call	 @__security_check_cookie@4
  0045b	8b e5		 mov	 esp, ebp
  0045d	5d		 pop	 ebp
  0045e	c3		 ret	 0
$LN11@EventChipO:

; 284  : 
; 285  : 			return;
; 286  : 
; 287  : 
; 288  : 		}
; 289  : 	}
; 290  : 
; 291  : 	x = lpObj->X;
; 292  : 	y = lpObj->Y;
; 293  : 	MapC[lpObj->MapNumber].MoneyItemDrop(1000, x, y);

  0045f	0f bf 86 46 01
	00 00		 movsx	 eax, WORD PTR [esi+326]
  00466	0f bf 8e 44 01
	00 00		 movsx	 ecx, WORD PTR [esi+324]
  0046d	50		 push	 eax
  0046e	51		 push	 ecx
  0046f	0f b6 8e 49 01
	00 00		 movzx	 ecx, BYTE PTR [esi+329]
  00476	69 c9 48 3d 05
	00		 imul	 ecx, 343368		; 00053d48H
  0047c	68 e8 03 00 00	 push	 1000			; 000003e8H
  00481	81 c1 00 00 00
	00		 add	 ecx, OFFSET ?MapC@@3PAVMapClass@@A ; MapC
  00487	e8 00 00 00 00	 call	 ?MoneyItemDrop@MapClass@@QAEHHHH@Z ; MapClass::MoneyItemDrop
$LN15@EventChipO:

; 294  : }

  0048c	8b 4d fc	 mov	 ecx, DWORD PTR __$ArrayPad$[ebp]
  0048f	5f		 pop	 edi
  00490	5e		 pop	 esi
  00491	33 cd		 xor	 ecx, ebp
  00493	5b		 pop	 ebx
  00494	e8 00 00 00 00	 call	 @__security_check_cookie@4
  00499	8b e5		 mov	 esp, ebp
  0049b	5d		 pop	 ebp
  0049c	c3		 ret	 0
?EventChipOpenEven@@YAXPAUOBJECTSTRUCT@@@Z ENDP		; EventChipOpenEven
_TEXT	ENDS
PUBLIC	??_C@_0GG@JMHMGOHL@?$FL?$CFs?$FN?$FL?$CFs?$FN?$FLLucky?5Box?5Item?5Drop?$FN?$FLGo@ ; `string'
PUBLIC	__$ArrayPad$
PUBLIC	?GoldMedalOpenEven@@YAXPAUOBJECTSTRUCT@@@Z	; GoldMedalOpenEven
EXTRN	?g_ItemDropRateForGoldMedal@@3HA:DWORD		; g_ItemDropRateForGoldMedal
EXTRN	?GoldMedalItemBag@@3PAVCItemBag@@A:DWORD	; GoldMedalItemBag
;	COMDAT ??_C@_0GG@JMHMGOHL@?$FL?$CFs?$FN?$FL?$CFs?$FN?$FLLucky?5Box?5Item?5Drop?$FN?$FLGo@
; File e:\work\tranet_version\gs\gameserver\itembag.h
CONST	SEGMENT
??_C@_0GG@JMHMGOHL@?$FL?$CFs?$FN?$FL?$CFs?$FN?$FLLucky?5Box?5Item?5Drop?$FN?$FLGo@ DB '['
	DB	'%s][%s][Lucky Box Item Drop][Gold Medal] : (%d)(X:%d/Y:%d) It'
	DB	'em:%s(%d) Level:%d Op1:%d Op2:%d Op3:%d', 00H ; `string'
; Function compile flags: /Ogtp
; File e:\work\tranet_version\gs\gameserver\event.cpp
CONST	ENDS
;	COMDAT ?GoldMedalOpenEven@@YAXPAUOBJECTSTRUCT@@@Z
_TEXT	SEGMENT
_DropItemNum$ = -248					; size = 4
_y$ = -244						; size = 4
_x$ = -240						; size = 4
_ServerCmd$215282 = -236				; size = 7
_Option1$ = -228					; size = 4
_Option3$ = -224					; size = 4
tv529 = -220						; size = 4
_Option2$ = -220					; size = 4
_EventItem$215286 = -216				; size = 212
__$ArrayPad$ = -4					; size = 4
_lpObj$ = 8						; size = 4
?GoldMedalOpenEven@@YAXPAUOBJECTSTRUCT@@@Z PROC		; GoldMedalOpenEven, COMDAT

; 297  : {

  00000	55		 push	 ebp
  00001	8b ec		 mov	 ebp, esp
  00003	81 ec f8 00 00
	00		 sub	 esp, 248		; 000000f8H
  00009	a1 00 00 00 00	 mov	 eax, DWORD PTR ___security_cookie
  0000e	33 c5		 xor	 eax, ebp
  00010	89 45 fc	 mov	 DWORD PTR __$ArrayPad$[ebp], eax

; 298  : 	float dur;
; 299  : 	int type;
; 300  : 	int level;
; 301  : 	int x;
; 302  : 	int y;
; 303  : 	int Option1=0;
; 304  : 	int Option2=0;
; 305  : 	int Option3=0;
; 306  : 	int DropItemNum;
; 307  : 	int ExOption=0;
; 308  : 
; 309  : 	if ( !GoldMedalItemBag )

  00013	a1 00 00 00 00	 mov	 eax, DWORD PTR ?GoldMedalItemBag@@3PAVCItemBag@@A ; GoldMedalItemBag
  00018	56		 push	 esi
  00019	8b 75 08	 mov	 esi, DWORD PTR _lpObj$[ebp]
  0001c	c7 85 20 ff ff
	ff 00 00 00 00	 mov	 DWORD PTR _Option3$[ebp], 0
  00026	85 c0		 test	 eax, eax
  00028	0f 84 ee 03 00
	00		 je	 $LN14@GoldMedalO

; 310  : 		return;
; 311  : 
; 312  : 	if ( GoldMedalItemBag->GetBagCount() > 0 )

  0002e	83 b8 88 03 00
	00 00		 cmp	 DWORD PTR [eax+904], 0
  00035	0f 8e b4 03 00
	00		 jle	 $LN11@GoldMedalO

; 313  : 	{
; 314  : 		if ( (rand()%20) < g_ItemDropRateForGoldMedal )

  0003b	e8 00 00 00 00	 call	 _rand
  00040	99		 cdq
  00041	b9 14 00 00 00	 mov	 ecx, 20			; 00000014H
  00046	f7 f9		 idiv	 ecx
  00048	3b 15 00 00 00
	00		 cmp	 edx, DWORD PTR ?g_ItemDropRateForGoldMedal@@3HA ; g_ItemDropRateForGoldMedal
  0004e	0f 8d 9b 03 00
	00		 jge	 $LN11@GoldMedalO

; 315  : 		{
; 316  : 			DropItemNum = rand()%GoldMedalItemBag->GetBagCount();

  00054	8b 15 00 00 00
	00		 mov	 edx, DWORD PTR ?GoldMedalItemBag@@3PAVCItemBag@@A ; GoldMedalItemBag
  0005a	53		 push	 ebx
  0005b	57		 push	 edi
  0005c	8b ba 88 03 00
	00		 mov	 edi, DWORD PTR [edx+904]
  00062	e8 00 00 00 00	 call	 _rand
  00067	99		 cdq
  00068	f7 ff		 idiv	 edi

; 317  : 			dur=0;
; 318  : 			x = lpObj->X;
; 319  : 			y = lpObj->Y;

  0006a	0f bf 8e 46 01
	00 00		 movsx	 ecx, WORD PTR [esi+326]
  00071	0f bf 86 44 01
	00 00		 movsx	 eax, WORD PTR [esi+324]
  00078	89 8d 0c ff ff
	ff		 mov	 DWORD PTR _y$[ebp], ecx

; 320  : 			level = GoldMedalItemBag->GetLevel(DropItemNum) + rand()%4;

  0007e	8b 0d 00 00 00
	00		 mov	 ecx, DWORD PTR ?GoldMedalItemBag@@3PAVCItemBag@@A ; GoldMedalItemBag
  00084	89 85 10 ff ff
	ff		 mov	 DWORD PTR _x$[ebp], eax
  0008a	8b da		 mov	 ebx, edx
  0008c	53		 push	 ebx
  0008d	89 9d 08 ff ff
	ff		 mov	 DWORD PTR _DropItemNum$[ebp], ebx
  00093	e8 00 00 00 00	 call	 ?GetLevel@CItemBag@@QAEEH@Z ; CItemBag::GetLevel
  00098	0f b6 d0	 movzx	 edx, al
  0009b	89 95 24 ff ff
	ff		 mov	 DWORD PTR tv529[ebp], edx
  000a1	e8 00 00 00 00	 call	 _rand
  000a6	8b f8		 mov	 edi, eax
  000a8	81 e7 03 00 00
	80		 and	 edi, -2147483645	; 80000003H
  000ae	79 05		 jns	 SHORT $LN22@GoldMedalO
  000b0	4f		 dec	 edi
  000b1	83 cf fc	 or	 edi, -4			; fffffffcH
  000b4	47		 inc	 edi
$LN22@GoldMedalO:

; 321  : 			type = ItemGetNumberMake(GoldMedalItemBag->GetType(DropItemNum), GoldMedalItemBag->GetIndex(DropItemNum));

  000b5	8b 0d 00 00 00
	00		 mov	 ecx, DWORD PTR ?GoldMedalItemBag@@3PAVCItemBag@@A ; GoldMedalItemBag
  000bb	03 bd 24 ff ff
	ff		 add	 edi, DWORD PTR tv529[ebp]
  000c1	53		 push	 ebx
  000c2	e8 00 00 00 00	 call	 ?GetIndex@CItemBag@@QAEEH@Z ; CItemBag::GetIndex
  000c7	8b 0d 00 00 00
	00		 mov	 ecx, DWORD PTR ?GoldMedalItemBag@@3PAVCItemBag@@A ; GoldMedalItemBag
  000cd	0f b6 c0	 movzx	 eax, al
  000d0	50		 push	 eax
  000d1	53		 push	 ebx
  000d2	e8 00 00 00 00	 call	 ?GetType@CItemBag@@QAEEH@Z ; CItemBag::GetType
  000d7	0f b6 c8	 movzx	 ecx, al
  000da	51		 push	 ecx
  000db	e8 00 00 00 00	 call	 ?ItemGetNumberMake@@YAHHH@Z ; ItemGetNumberMake
  000e0	83 c4 08	 add	 esp, 8
  000e3	8b d8		 mov	 ebx, eax

; 322  : 			Option1 = rand()%2;

  000e5	e8 00 00 00 00	 call	 _rand
  000ea	25 01 00 00 80	 and	 eax, -2147483647	; 80000001H
  000ef	79 05		 jns	 SHORT $LN23@GoldMedalO
  000f1	48		 dec	 eax
  000f2	83 c8 fe	 or	 eax, -2			; fffffffeH
  000f5	40		 inc	 eax
$LN23@GoldMedalO:
  000f6	89 85 1c ff ff
	ff		 mov	 DWORD PTR _Option1$[ebp], eax

; 323  : 			Option2 = rand()%2;

  000fc	e8 00 00 00 00	 call	 _rand
  00101	25 01 00 00 80	 and	 eax, -2147483647	; 80000001H
  00106	79 05		 jns	 SHORT $LN24@GoldMedalO
  00108	48		 dec	 eax
  00109	83 c8 fe	 or	 eax, -2			; fffffffeH
  0010c	40		 inc	 eax
$LN24@GoldMedalO:
  0010d	89 85 24 ff ff
	ff		 mov	 DWORD PTR _Option2$[ebp], eax

; 324  : 
; 325  : 			if ( !Option2 || !Option1 )

  00113	74 0a		 je	 SHORT $LN9@GoldMedalO
  00115	33 c9		 xor	 ecx, ecx
  00117	39 8d 1c ff ff
	ff		 cmp	 DWORD PTR _Option1$[ebp], ecx
  0011d	75 33		 jne	 SHORT $LN21@GoldMedalO
$LN9@GoldMedalO:

; 326  : 			{
; 327  : 				if ( (rand()%5) <1 )

  0011f	e8 00 00 00 00	 call	 _rand
  00124	99		 cdq
  00125	b9 05 00 00 00	 mov	 ecx, 5
  0012a	f7 f9		 idiv	 ecx
  0012c	83 fa 01	 cmp	 edx, 1
  0012f	7d 0c		 jge	 SHORT $LN8@GoldMedalO

; 328  : 					Option3 = 3;

  00131	c7 85 20 ff ff
	ff 03 00 00 00	 mov	 DWORD PTR _Option3$[ebp], 3

; 329  : 				else

  0013b	eb 13		 jmp	 SHORT $LN25@GoldMedalO
$LN8@GoldMedalO:

; 330  : 					Option3 = rand()%3;

  0013d	e8 00 00 00 00	 call	 _rand
  00142	99		 cdq
  00143	b9 03 00 00 00	 mov	 ecx, 3
  00148	f7 f9		 idiv	 ecx
  0014a	89 95 20 ff ff
	ff		 mov	 DWORD PTR _Option3$[ebp], edx
$LN25@GoldMedalO:
  00150	33 c9		 xor	 ecx, ecx
$LN21@GoldMedalO:

; 331  : 			}
; 332  : 
; 333  : 			if ( type == ITEMGET(12,15) ||
; 334  : 				 type == ITEMGET(14,13) ||
; 335  : 				 type == ITEMGET(14,14) ||
; 336  : 				 type == ITEMGET(14,14) ||
; 337  : 				 type == ITEMGET(14,16)	||
; 338  : 				 type == ITEMGET(14,22)	||
; 339  : 				 type == ITEMGET(14,31)	||
; 340  : 				 type == ITEMGET(14,41)	||
; 341  : 				 type == ITEMGET(14,42)	||
; 342  : 				 type == ITEMGET(14,180)||
; 343  : 				 type == ITEMGET(14,181)||
; 344  : 				 type == ITEMGET(14,182)||
; 345  : 				 type == ITEMGET(14,183)||
; 346  : 				 type == ITEMGET(14,184)||
; 347  : 				 type == ITEMGET(14,185)||
; 348  : 				 type == ITEMGET(14,186)||
; 349  : 				 type == ITEMGET(14,187)||
; 350  : 				 type == ITEMGET(14,190)||
; 351  : 				 type == ITEMGET(14,43) ||
; 352  : 				 type == ITEMGET(14,44) )

  00152	81 fb 0f 18 00
	00		 cmp	 ebx, 6159		; 0000180fH
  00158	0f 84 98 00 00
	00		 je	 $LN5@GoldMedalO
  0015e	81 fb 0d 1c 00
	00		 cmp	 ebx, 7181		; 00001c0dH
  00164	0f 84 8c 00 00
	00		 je	 $LN5@GoldMedalO
  0016a	81 fb 0e 1c 00
	00		 cmp	 ebx, 7182		; 00001c0eH
  00170	0f 84 80 00 00
	00		 je	 $LN5@GoldMedalO
  00176	81 fb 10 1c 00
	00		 cmp	 ebx, 7184		; 00001c10H
  0017c	74 78		 je	 SHORT $LN5@GoldMedalO
  0017e	81 fb 16 1c 00
	00		 cmp	 ebx, 7190		; 00001c16H
  00184	74 70		 je	 SHORT $LN5@GoldMedalO
  00186	81 fb 1f 1c 00
	00		 cmp	 ebx, 7199		; 00001c1fH
  0018c	74 68		 je	 SHORT $LN5@GoldMedalO
  0018e	81 fb 29 1c 00
	00		 cmp	 ebx, 7209		; 00001c29H
  00194	74 60		 je	 SHORT $LN5@GoldMedalO
  00196	81 fb 2a 1c 00
	00		 cmp	 ebx, 7210		; 00001c2aH
  0019c	74 58		 je	 SHORT $LN5@GoldMedalO
  0019e	81 fb b4 1c 00
	00		 cmp	 ebx, 7348		; 00001cb4H
  001a4	74 50		 je	 SHORT $LN5@GoldMedalO
  001a6	81 fb b5 1c 00
	00		 cmp	 ebx, 7349		; 00001cb5H
  001ac	74 48		 je	 SHORT $LN5@GoldMedalO
  001ae	81 fb b6 1c 00
	00		 cmp	 ebx, 7350		; 00001cb6H
  001b4	74 40		 je	 SHORT $LN5@GoldMedalO
  001b6	81 fb b7 1c 00
	00		 cmp	 ebx, 7351		; 00001cb7H
  001bc	74 38		 je	 SHORT $LN5@GoldMedalO
  001be	81 fb b8 1c 00
	00		 cmp	 ebx, 7352		; 00001cb8H
  001c4	74 30		 je	 SHORT $LN5@GoldMedalO
  001c6	81 fb b9 1c 00
	00		 cmp	 ebx, 7353		; 00001cb9H
  001cc	74 28		 je	 SHORT $LN5@GoldMedalO
  001ce	81 fb ba 1c 00
	00		 cmp	 ebx, 7354		; 00001cbaH
  001d4	74 20		 je	 SHORT $LN5@GoldMedalO
  001d6	81 fb bb 1c 00
	00		 cmp	 ebx, 7355		; 00001cbbH
  001dc	74 18		 je	 SHORT $LN5@GoldMedalO
  001de	81 fb be 1c 00
	00		 cmp	 ebx, 7358		; 00001cbeH
  001e4	74 10		 je	 SHORT $LN5@GoldMedalO
  001e6	81 fb 2b 1c 00
	00		 cmp	 ebx, 7211		; 00001c2bH
  001ec	74 08		 je	 SHORT $LN5@GoldMedalO
  001ee	81 fb 2c 1c 00
	00		 cmp	 ebx, 7212		; 00001c2cH
  001f4	75 14		 jne	 SHORT $LN6@GoldMedalO
$LN5@GoldMedalO:

; 353  : 			{
; 354  : 				Option1 = 0;

  001f6	89 8d 1c ff ff
	ff		 mov	 DWORD PTR _Option1$[ebp], ecx

; 355  : 				Option2 = 0;

  001fc	89 8d 24 ff ff
	ff		 mov	 DWORD PTR _Option2$[ebp], ecx

; 356  : 				Option3 = 0;

  00202	89 8d 20 ff ff
	ff		 mov	 DWORD PTR _Option3$[ebp], ecx

; 357  : 				level = 0;

  00208	33 ff		 xor	 edi, edi
$LN6@GoldMedalO:

; 358  : 				ExOption = 0;
; 359  : 			}
; 360  : 
; 361  : 			if ( type == ITEMGET(12,30)	||
; 362  : 				 type == ITEMGET(12,31)	||
; 363  : 				 type == ITEMGET(12,136)||
; 364  : 				 type == ITEMGET(12,137)||
; 365  : 				 type == ITEMGET(12,138)||
; 366  : 				 type == ITEMGET(12,139)||
; 367  : 				 type == ITEMGET(12,140)||
; 368  : 				 type == ITEMGET(12,141)||
; 369  : 				 type == ITEMGET(12,142)||
; 370  : 				 type == ITEMGET(12,143))

  0020a	81 fb 1e 18 00
	00		 cmp	 ebx, 6174		; 0000181eH
  00210	74 48		 je	 SHORT $LN3@GoldMedalO
  00212	81 fb 1f 18 00
	00		 cmp	 ebx, 6175		; 0000181fH
  00218	74 40		 je	 SHORT $LN3@GoldMedalO
  0021a	81 fb 88 18 00
	00		 cmp	 ebx, 6280		; 00001888H
  00220	74 38		 je	 SHORT $LN3@GoldMedalO
  00222	81 fb 89 18 00
	00		 cmp	 ebx, 6281		; 00001889H
  00228	74 30		 je	 SHORT $LN3@GoldMedalO
  0022a	81 fb 8a 18 00
	00		 cmp	 ebx, 6282		; 0000188aH
  00230	74 28		 je	 SHORT $LN3@GoldMedalO
  00232	81 fb 8b 18 00
	00		 cmp	 ebx, 6283		; 0000188bH
  00238	74 20		 je	 SHORT $LN3@GoldMedalO
  0023a	81 fb 8c 18 00
	00		 cmp	 ebx, 6284		; 0000188cH
  00240	74 18		 je	 SHORT $LN3@GoldMedalO
  00242	81 fb 8d 18 00
	00		 cmp	 ebx, 6285		; 0000188dH
  00248	74 10		 je	 SHORT $LN3@GoldMedalO
  0024a	81 fb 8e 18 00
	00		 cmp	 ebx, 6286		; 0000188eH
  00250	74 08		 je	 SHORT $LN3@GoldMedalO
  00252	81 fb 8f 18 00
	00		 cmp	 ebx, 6287		; 0000188fH
  00258	75 29		 jne	 SHORT $LN4@GoldMedalO
$LN3@GoldMedalO:

; 371  : 			{
; 372  : 				Option1 = 0;
; 373  : 				Option2 = 0;
; 374  : 				Option3 = 0;
; 375  : 				level = GoldMedalItemBag->GetLevel(DropItemNum);

  0025a	8b 95 08 ff ff
	ff		 mov	 edx, DWORD PTR _DropItemNum$[ebp]
  00260	89 8d 1c ff ff
	ff		 mov	 DWORD PTR _Option1$[ebp], ecx
  00266	89 8d 24 ff ff
	ff		 mov	 DWORD PTR _Option2$[ebp], ecx
  0026c	89 8d 20 ff ff
	ff		 mov	 DWORD PTR _Option3$[ebp], ecx
  00272	8b 0d 00 00 00
	00		 mov	 ecx, DWORD PTR ?GoldMedalItemBag@@3PAVCItemBag@@A ; GoldMedalItemBag
  00278	52		 push	 edx
  00279	e8 00 00 00 00	 call	 ?GetLevel@CItemBag@@QAEEH@Z ; CItemBag::GetLevel
  0027e	0f b6 f8	 movzx	 edi, al
  00281	33 c9		 xor	 ecx, ecx
$LN4@GoldMedalO:

; 376  : 				ExOption = 0;
; 377  : 			}
; 378  : 
; 379  : 			if ( type == ITEMGET(13,0) ||
; 380  : 				 type == ITEMGET(13,1) ||
; 381  : 				 type == ITEMGET(13,2) ||
; 382  : 				 type == ITEMGET(13,8) ||
; 383  : 				 type == ITEMGET(13,9) ||
; 384  : 				 type == ITEMGET(13,12) ||
; 385  : 				 type == ITEMGET(13,13) )

  00283	81 fb 00 1a 00
	00		 cmp	 ebx, 6656		; 00001a00H
  00289	74 30		 je	 SHORT $LN1@GoldMedalO
  0028b	81 fb 01 1a 00
	00		 cmp	 ebx, 6657		; 00001a01H
  00291	74 28		 je	 SHORT $LN1@GoldMedalO
  00293	81 fb 02 1a 00
	00		 cmp	 ebx, 6658		; 00001a02H
  00299	74 20		 je	 SHORT $LN1@GoldMedalO
  0029b	81 fb 08 1a 00
	00		 cmp	 ebx, 6664		; 00001a08H
  002a1	74 18		 je	 SHORT $LN1@GoldMedalO
  002a3	81 fb 09 1a 00
	00		 cmp	 ebx, 6665		; 00001a09H
  002a9	74 10		 je	 SHORT $LN1@GoldMedalO
  002ab	81 fb 0c 1a 00
	00		 cmp	 ebx, 6668		; 00001a0cH
  002b1	74 08		 je	 SHORT $LN1@GoldMedalO
  002b3	81 fb 0d 1a 00
	00		 cmp	 ebx, 6669		; 00001a0dH
  002b9	75 02		 jne	 SHORT $LN2@GoldMedalO
$LN1@GoldMedalO:

; 386  : 			{
; 387  : 				level = 0;

  002bb	33 ff		 xor	 edi, edi
$LN2@GoldMedalO:

; 388  : 			}
; 389  : 
; 390  : 			ItemSerialCreateSend(lpObj->m_Index, (BYTE)lpObj->MapNumber, (BYTE)x, (BYTE)y, type, (BYTE)level, (BYTE)dur,
; 391  : 				(BYTE)Option1, (BYTE)Option2, (BYTE)Option3, lpObj->m_Index, (BYTE)ExOption, 0);

  002bd	8b 06		 mov	 eax, DWORD PTR [esi]
  002bf	8b 95 20 ff ff
	ff		 mov	 edx, DWORD PTR _Option3$[ebp]
  002c5	51		 push	 ecx
  002c6	51		 push	 ecx
  002c7	50		 push	 eax
  002c8	52		 push	 edx
  002c9	8b 95 24 ff ff
	ff		 mov	 edx, DWORD PTR _Option2$[ebp]
  002cf	52		 push	 edx
  002d0	8b 95 1c ff ff
	ff		 mov	 edx, DWORD PTR _Option1$[ebp]
  002d6	52		 push	 edx
  002d7	8b 95 10 ff ff
	ff		 mov	 edx, DWORD PTR _x$[ebp]
  002dd	51		 push	 ecx
  002de	8b 8d 0c ff ff
	ff		 mov	 ecx, DWORD PTR _y$[ebp]
  002e4	57		 push	 edi
  002e5	53		 push	 ebx
  002e6	51		 push	 ecx
  002e7	0f b6 8e 49 01
	00 00		 movzx	 ecx, BYTE PTR [esi+329]
  002ee	52		 push	 edx
  002ef	51		 push	 ecx
  002f0	50		 push	 eax
  002f1	e8 00 00 00 00	 call	 ?ItemSerialCreateSend@@YAXHEEEHEEEEEHEE@Z ; ItemSerialCreateSend

; 392  : 
; 393  : 			PMSG_SERVERCMD ServerCmd;
; 394  : 
; 395  : 			PHeadSubSetB((LPBYTE)&ServerCmd, 0xF3, 0x40, sizeof(ServerCmd));

  002f6	6a 07		 push	 7
  002f8	6a 40		 push	 64			; 00000040H
  002fa	8d 95 14 ff ff
	ff		 lea	 edx, DWORD PTR _ServerCmd$215282[ebp]
  00300	68 f3 00 00 00	 push	 243			; 000000f3H
  00305	52		 push	 edx
  00306	e8 00 00 00 00	 call	 ?PHeadSubSetB@@YAXPAEEEH@Z ; PHeadSubSetB

; 396  : 			ServerCmd.CmdType = 2;
; 397  : 			ServerCmd.X = x;

  0030b	8a 85 10 ff ff
	ff		 mov	 al, BYTE PTR _x$[ebp]

; 398  : 			ServerCmd.Y = y;

  00311	8a 8d 0c ff ff
	ff		 mov	 cl, BYTE PTR _y$[ebp]
  00317	83 c4 44	 add	 esp, 68			; 00000044H

; 399  : 
; 400  : 			MsgSendV2(lpObj, (LPBYTE)&ServerCmd, sizeof(ServerCmd));

  0031a	6a 07		 push	 7
  0031c	8d 95 14 ff ff
	ff		 lea	 edx, DWORD PTR _ServerCmd$215282[ebp]
  00322	52		 push	 edx
  00323	56		 push	 esi
  00324	c6 85 18 ff ff
	ff 02		 mov	 BYTE PTR _ServerCmd$215282[ebp+4], 2
  0032b	88 85 19 ff ff
	ff		 mov	 BYTE PTR _ServerCmd$215282[ebp+5], al
  00331	88 8d 1a ff ff
	ff		 mov	 BYTE PTR _ServerCmd$215282[ebp+6], cl
  00337	e8 00 00 00 00	 call	 ?MsgSendV2@@YAXPAUOBJECTSTRUCT@@PAEH@Z ; MsgSendV2

; 401  : 			DataSend(lpObj->m_Index, (LPBYTE)&ServerCmd, sizeof(ServerCmd));

  0033c	8b 0e		 mov	 ecx, DWORD PTR [esi]
  0033e	6a 07		 push	 7
  00340	8d 85 14 ff ff
	ff		 lea	 eax, DWORD PTR _ServerCmd$215282[ebp]
  00346	50		 push	 eax
  00347	51		 push	 ecx
  00348	e8 00 00 00 00	 call	 ?DataSend@@YAHHPAEK@Z	; DataSend
  0034d	83 c4 18	 add	 esp, 24			; 00000018H

; 402  : 
; 403  : 			CItem EventItem;

  00350	8d 8d 28 ff ff
	ff		 lea	 ecx, DWORD PTR _EventItem$215286[ebp]
  00356	e8 00 00 00 00	 call	 ??0CItem@@QAE@XZ	; CItem::CItem

; 404  : 
; 405  : 			EventItem.Convert(type, Option1, Option2, Option3, 0, 1, 0, NULL, 0xFF, 0, 3);

  0035b	8b 95 20 ff ff
	ff		 mov	 edx, DWORD PTR _Option3$[ebp]
  00361	8b 85 24 ff ff
	ff		 mov	 eax, DWORD PTR _Option2$[ebp]
  00367	8b 8d 1c ff ff
	ff		 mov	 ecx, DWORD PTR _Option1$[ebp]
  0036d	6a 03		 push	 3
  0036f	6a 00		 push	 0
  00371	68 ff 00 00 00	 push	 255			; 000000ffH
  00376	6a 00		 push	 0
  00378	6a 00		 push	 0
  0037a	6a 01		 push	 1
  0037c	6a 00		 push	 0
  0037e	52		 push	 edx
  0037f	50		 push	 eax
  00380	51		 push	 ecx
  00381	53		 push	 ebx
  00382	8d 8d 28 ff ff
	ff		 lea	 ecx, DWORD PTR _EventItem$215286[ebp]
  00388	e8 00 00 00 00	 call	 ?Convert@CItem@@QAEXHEEEEEEPAEEEE@Z ; CItem::Convert

; 406  : 
; 407  : 			LogAddTD("[%s][%s][Lucky Box Item Drop][Gold Medal] : (%d)(X:%d/Y:%d) Item:%s(%d) Level:%d Op1:%d Op2:%d Op3:%d",
; 408  : 				lpObj->AccountID, lpObj->Name, lpObj->MapNumber, lpObj->X, lpObj->Y, EventItem.GetName(),
; 409  : 				type, level, Option1, Option2, Option3);

  0038d	8b 95 20 ff ff
	ff		 mov	 edx, DWORD PTR _Option3$[ebp]
  00393	8b 85 24 ff ff
	ff		 mov	 eax, DWORD PTR _Option2$[ebp]
  00399	8b 8d 1c ff ff
	ff		 mov	 ecx, DWORD PTR _Option1$[ebp]
  0039f	52		 push	 edx
  003a0	50		 push	 eax
  003a1	51		 push	 ecx
  003a2	57		 push	 edi
  003a3	53		 push	 ebx
  003a4	8d 8d 28 ff ff
	ff		 lea	 ecx, DWORD PTR _EventItem$215286[ebp]
  003aa	e8 00 00 00 00	 call	 ?GetName@CItem@@QAEPADXZ ; CItem::GetName
  003af	0f bf 96 46 01
	00 00		 movsx	 edx, WORD PTR [esi+326]
  003b6	0f b6 8e 49 01
	00 00		 movzx	 ecx, BYTE PTR [esi+329]
  003bd	50		 push	 eax
  003be	0f bf 86 44 01
	00 00		 movsx	 eax, WORD PTR [esi+324]
  003c5	52		 push	 edx
  003c6	50		 push	 eax
  003c7	51		 push	 ecx
  003c8	8d 56 77	 lea	 edx, DWORD PTR [esi+119]
  003cb	52		 push	 edx
  003cc	83 c6 6c	 add	 esi, 108		; 0000006cH
  003cf	56		 push	 esi
  003d0	68 00 00 00 00	 push	 OFFSET ??_C@_0GG@JMHMGOHL@?$FL?$CFs?$FN?$FL?$CFs?$FN?$FLLucky?5Box?5Item?5Drop?$FN?$FLGo@
  003d5	ff 15 00 00 00
	00		 call	 DWORD PTR ?LogAddTD@@3P6AXPADZZA ; LogAddTD
  003db	83 c4 30	 add	 esp, 48			; 00000030H
  003de	5f		 pop	 edi
  003df	5b		 pop	 ebx
  003e0	5e		 pop	 esi

; 418  : }

  003e1	8b 4d fc	 mov	 ecx, DWORD PTR __$ArrayPad$[ebp]
  003e4	33 cd		 xor	 ecx, ebp
  003e6	e8 00 00 00 00	 call	 @__security_check_cookie@4
  003eb	8b e5		 mov	 esp, ebp
  003ed	5d		 pop	 ebp
  003ee	c3		 ret	 0
$LN11@GoldMedalO:

; 410  : 
; 411  : 			return;
; 412  : 		}
; 413  : 	}
; 414  : 
; 415  : 	x = lpObj->X;
; 416  : 	y = lpObj->Y;
; 417  : 	MapC[lpObj->MapNumber].MoneyItemDrop(100000, x, y);

  003ef	0f bf 86 46 01
	00 00		 movsx	 eax, WORD PTR [esi+326]
  003f6	0f bf 8e 44 01
	00 00		 movsx	 ecx, WORD PTR [esi+324]
  003fd	50		 push	 eax
  003fe	51		 push	 ecx
  003ff	0f b6 8e 49 01
	00 00		 movzx	 ecx, BYTE PTR [esi+329]
  00406	69 c9 48 3d 05
	00		 imul	 ecx, 343368		; 00053d48H
  0040c	68 a0 86 01 00	 push	 100000			; 000186a0H
  00411	81 c1 00 00 00
	00		 add	 ecx, OFFSET ?MapC@@3PAVMapClass@@A ; MapC
  00417	e8 00 00 00 00	 call	 ?MoneyItemDrop@MapClass@@QAEHHHH@Z ; MapClass::MoneyItemDrop
$LN14@GoldMedalO:

; 418  : }

  0041c	8b 4d fc	 mov	 ecx, DWORD PTR __$ArrayPad$[ebp]
  0041f	33 cd		 xor	 ecx, ebp
  00421	5e		 pop	 esi
  00422	e8 00 00 00 00	 call	 @__security_check_cookie@4
  00427	8b e5		 mov	 esp, ebp
  00429	5d		 pop	 ebp
  0042a	c3		 ret	 0
?GoldMedalOpenEven@@YAXPAUOBJECTSTRUCT@@@Z ENDP		; GoldMedalOpenEven
_TEXT	ENDS
PUBLIC	??_C@_0GI@IEKACMEE@?$FL?$CFs?$FN?$FL?$CFs?$FN?$FLLucky?5Box?5Item?5Drop?$FN?$FLSi@ ; `string'
PUBLIC	__$ArrayPad$
PUBLIC	?SilverMedalOpenEven@@YAXPAUOBJECTSTRUCT@@@Z	; SilverMedalOpenEven
EXTRN	?g_ItemDropRateForSilverMedal@@3HA:DWORD	; g_ItemDropRateForSilverMedal
EXTRN	?SilverMedalItemBag@@3PAVCItemBag@@A:DWORD	; SilverMedalItemBag
;	COMDAT ??_C@_0GI@IEKACMEE@?$FL?$CFs?$FN?$FL?$CFs?$FN?$FLLucky?5Box?5Item?5Drop?$FN?$FLSi@
; File e:\work\tranet_version\gs\gameserver\itembag.h
CONST	SEGMENT
??_C@_0GI@IEKACMEE@?$FL?$CFs?$FN?$FL?$CFs?$FN?$FLLucky?5Box?5Item?5Drop?$FN?$FLSi@ DB '['
	DB	'%s][%s][Lucky Box Item Drop][Silver Medal] : (%d)(X:%d/Y:%d) '
	DB	'Item:%s(%d) Level:%d Op1:%d Op2:%d Op3:%d', 00H ; `string'
; Function compile flags: /Ogtp
; File e:\work\tranet_version\gs\gameserver\event.cpp
CONST	ENDS
;	COMDAT ?SilverMedalOpenEven@@YAXPAUOBJECTSTRUCT@@@Z
_TEXT	SEGMENT
_DropItemNum$ = -248					; size = 4
_y$ = -244						; size = 4
_x$ = -240						; size = 4
_ServerCmd$215322 = -236				; size = 7
_Option1$ = -228					; size = 4
_Option3$ = -224					; size = 4
tv529 = -220						; size = 4
_Option2$ = -220					; size = 4
_EventItem$215326 = -216				; size = 212
__$ArrayPad$ = -4					; size = 4
_lpObj$ = 8						; size = 4
?SilverMedalOpenEven@@YAXPAUOBJECTSTRUCT@@@Z PROC	; SilverMedalOpenEven, COMDAT

; 421  : {

  00000	55		 push	 ebp
  00001	8b ec		 mov	 ebp, esp
  00003	81 ec f8 00 00
	00		 sub	 esp, 248		; 000000f8H
  00009	a1 00 00 00 00	 mov	 eax, DWORD PTR ___security_cookie
  0000e	33 c5		 xor	 eax, ebp
  00010	89 45 fc	 mov	 DWORD PTR __$ArrayPad$[ebp], eax

; 422  : 	float dur;
; 423  : 	int type;
; 424  : 	int level;
; 425  : 	int x;
; 426  : 	int y;
; 427  : 	int Option1=0;
; 428  : 	int Option2=0;
; 429  : 	int Option3=0;
; 430  : 	int DropItemNum;
; 431  : 	int ExOption=0;
; 432  : 
; 433  : 	if ( !SilverMedalItemBag )

  00013	a1 00 00 00 00	 mov	 eax, DWORD PTR ?SilverMedalItemBag@@3PAVCItemBag@@A ; SilverMedalItemBag
  00018	56		 push	 esi
  00019	8b 75 08	 mov	 esi, DWORD PTR _lpObj$[ebp]
  0001c	c7 85 20 ff ff
	ff 00 00 00 00	 mov	 DWORD PTR _Option3$[ebp], 0
  00026	85 c0		 test	 eax, eax
  00028	0f 84 ee 03 00
	00		 je	 $LN14@SilverMeda

; 434  : 		return;
; 435  : 
; 436  : 	if ( SilverMedalItemBag->GetBagCount() > 0 )

  0002e	83 b8 88 03 00
	00 00		 cmp	 DWORD PTR [eax+904], 0
  00035	0f 8e b4 03 00
	00		 jle	 $LN11@SilverMeda

; 437  : 	{
; 438  : 		if ( (rand()%20) < g_ItemDropRateForSilverMedal )

  0003b	e8 00 00 00 00	 call	 _rand
  00040	99		 cdq
  00041	b9 14 00 00 00	 mov	 ecx, 20			; 00000014H
  00046	f7 f9		 idiv	 ecx
  00048	3b 15 00 00 00
	00		 cmp	 edx, DWORD PTR ?g_ItemDropRateForSilverMedal@@3HA ; g_ItemDropRateForSilverMedal
  0004e	0f 8d 9b 03 00
	00		 jge	 $LN11@SilverMeda

; 439  : 		{
; 440  : 			DropItemNum = rand()%SilverMedalItemBag->GetBagCount();

  00054	8b 15 00 00 00
	00		 mov	 edx, DWORD PTR ?SilverMedalItemBag@@3PAVCItemBag@@A ; SilverMedalItemBag
  0005a	53		 push	 ebx
  0005b	57		 push	 edi
  0005c	8b ba 88 03 00
	00		 mov	 edi, DWORD PTR [edx+904]
  00062	e8 00 00 00 00	 call	 _rand
  00067	99		 cdq
  00068	f7 ff		 idiv	 edi

; 441  : 			dur=0;
; 442  : 			x = lpObj->X;
; 443  : 			y = lpObj->Y;

  0006a	0f bf 8e 46 01
	00 00		 movsx	 ecx, WORD PTR [esi+326]
  00071	0f bf 86 44 01
	00 00		 movsx	 eax, WORD PTR [esi+324]
  00078	89 8d 0c ff ff
	ff		 mov	 DWORD PTR _y$[ebp], ecx

; 444  : 			level = SilverMedalItemBag->GetLevel(DropItemNum) + rand()%4;

  0007e	8b 0d 00 00 00
	00		 mov	 ecx, DWORD PTR ?SilverMedalItemBag@@3PAVCItemBag@@A ; SilverMedalItemBag
  00084	89 85 10 ff ff
	ff		 mov	 DWORD PTR _x$[ebp], eax
  0008a	8b da		 mov	 ebx, edx
  0008c	53		 push	 ebx
  0008d	89 9d 08 ff ff
	ff		 mov	 DWORD PTR _DropItemNum$[ebp], ebx
  00093	e8 00 00 00 00	 call	 ?GetLevel@CItemBag@@QAEEH@Z ; CItemBag::GetLevel
  00098	0f b6 d0	 movzx	 edx, al
  0009b	89 95 24 ff ff
	ff		 mov	 DWORD PTR tv529[ebp], edx
  000a1	e8 00 00 00 00	 call	 _rand
  000a6	8b f8		 mov	 edi, eax
  000a8	81 e7 03 00 00
	80		 and	 edi, -2147483645	; 80000003H
  000ae	79 05		 jns	 SHORT $LN22@SilverMeda
  000b0	4f		 dec	 edi
  000b1	83 cf fc	 or	 edi, -4			; fffffffcH
  000b4	47		 inc	 edi
$LN22@SilverMeda:

; 445  : 			type = ItemGetNumberMake(SilverMedalItemBag->GetType(DropItemNum), SilverMedalItemBag->GetIndex(DropItemNum));

  000b5	8b 0d 00 00 00
	00		 mov	 ecx, DWORD PTR ?SilverMedalItemBag@@3PAVCItemBag@@A ; SilverMedalItemBag
  000bb	03 bd 24 ff ff
	ff		 add	 edi, DWORD PTR tv529[ebp]
  000c1	53		 push	 ebx
  000c2	e8 00 00 00 00	 call	 ?GetIndex@CItemBag@@QAEEH@Z ; CItemBag::GetIndex
  000c7	8b 0d 00 00 00
	00		 mov	 ecx, DWORD PTR ?SilverMedalItemBag@@3PAVCItemBag@@A ; SilverMedalItemBag
  000cd	0f b6 c0	 movzx	 eax, al
  000d0	50		 push	 eax
  000d1	53		 push	 ebx
  000d2	e8 00 00 00 00	 call	 ?GetType@CItemBag@@QAEEH@Z ; CItemBag::GetType
  000d7	0f b6 c8	 movzx	 ecx, al
  000da	51		 push	 ecx
  000db	e8 00 00 00 00	 call	 ?ItemGetNumberMake@@YAHHH@Z ; ItemGetNumberMake
  000e0	83 c4 08	 add	 esp, 8
  000e3	8b d8		 mov	 ebx, eax

; 446  : 			Option1 = rand()%2;

  000e5	e8 00 00 00 00	 call	 _rand
  000ea	25 01 00 00 80	 and	 eax, -2147483647	; 80000001H
  000ef	79 05		 jns	 SHORT $LN23@SilverMeda
  000f1	48		 dec	 eax
  000f2	83 c8 fe	 or	 eax, -2			; fffffffeH
  000f5	40		 inc	 eax
$LN23@SilverMeda:
  000f6	89 85 1c ff ff
	ff		 mov	 DWORD PTR _Option1$[ebp], eax

; 447  : 			Option2 = rand()%2;

  000fc	e8 00 00 00 00	 call	 _rand
  00101	25 01 00 00 80	 and	 eax, -2147483647	; 80000001H
  00106	79 05		 jns	 SHORT $LN24@SilverMeda
  00108	48		 dec	 eax
  00109	83 c8 fe	 or	 eax, -2			; fffffffeH
  0010c	40		 inc	 eax
$LN24@SilverMeda:
  0010d	89 85 24 ff ff
	ff		 mov	 DWORD PTR _Option2$[ebp], eax

; 448  : 
; 449  : 			if ( !Option2 || !Option1 )

  00113	74 0a		 je	 SHORT $LN9@SilverMeda
  00115	33 c9		 xor	 ecx, ecx
  00117	39 8d 1c ff ff
	ff		 cmp	 DWORD PTR _Option1$[ebp], ecx
  0011d	75 33		 jne	 SHORT $LN21@SilverMeda
$LN9@SilverMeda:

; 450  : 			{
; 451  : 				if ( (rand()%5) <1 )

  0011f	e8 00 00 00 00	 call	 _rand
  00124	99		 cdq
  00125	b9 05 00 00 00	 mov	 ecx, 5
  0012a	f7 f9		 idiv	 ecx
  0012c	83 fa 01	 cmp	 edx, 1
  0012f	7d 0c		 jge	 SHORT $LN8@SilverMeda

; 452  : 					Option3 = 3;

  00131	c7 85 20 ff ff
	ff 03 00 00 00	 mov	 DWORD PTR _Option3$[ebp], 3

; 453  : 				else

  0013b	eb 13		 jmp	 SHORT $LN25@SilverMeda
$LN8@SilverMeda:

; 454  : 					Option3 = rand()%3;

  0013d	e8 00 00 00 00	 call	 _rand
  00142	99		 cdq
  00143	b9 03 00 00 00	 mov	 ecx, 3
  00148	f7 f9		 idiv	 ecx
  0014a	89 95 20 ff ff
	ff		 mov	 DWORD PTR _Option3$[ebp], edx
$LN25@SilverMeda:
  00150	33 c9		 xor	 ecx, ecx
$LN21@SilverMeda:

; 455  : 			}
; 456  : 
; 457  : 			if ( type == ITEMGET(12,15) ||
; 458  : 				 type == ITEMGET(14,13) ||
; 459  : 				 type == ITEMGET(14,14) ||
; 460  : 				 type == ITEMGET(14,14) ||
; 461  : 				 type == ITEMGET(14,16)	||
; 462  : 				 type == ITEMGET(14,22)	||
; 463  : 				 type == ITEMGET(14,31)	||
; 464  : 				 type == ITEMGET(14,41)	||
; 465  : 				 type == ITEMGET(14,42)	||
; 466  : 				 type == ITEMGET(14,180)||
; 467  : 				 type == ITEMGET(14,181)||
; 468  : 				 type == ITEMGET(14,182)||
; 469  : 				 type == ITEMGET(14,183)||
; 470  : 				 type == ITEMGET(14,184)||
; 471  : 				 type == ITEMGET(14,185)||
; 472  : 				 type == ITEMGET(14,186)||
; 473  : 				 type == ITEMGET(14,187)||
; 474  : 				 type == ITEMGET(14,190)||
; 475  : 				 type == ITEMGET(14,43) ||
; 476  : 				 type == ITEMGET(14,44) )

  00152	81 fb 0f 18 00
	00		 cmp	 ebx, 6159		; 0000180fH
  00158	0f 84 98 00 00
	00		 je	 $LN5@SilverMeda
  0015e	81 fb 0d 1c 00
	00		 cmp	 ebx, 7181		; 00001c0dH
  00164	0f 84 8c 00 00
	00		 je	 $LN5@SilverMeda
  0016a	81 fb 0e 1c 00
	00		 cmp	 ebx, 7182		; 00001c0eH
  00170	0f 84 80 00 00
	00		 je	 $LN5@SilverMeda
  00176	81 fb 10 1c 00
	00		 cmp	 ebx, 7184		; 00001c10H
  0017c	74 78		 je	 SHORT $LN5@SilverMeda
  0017e	81 fb 16 1c 00
	00		 cmp	 ebx, 7190		; 00001c16H
  00184	74 70		 je	 SHORT $LN5@SilverMeda
  00186	81 fb 1f 1c 00
	00		 cmp	 ebx, 7199		; 00001c1fH
  0018c	74 68		 je	 SHORT $LN5@SilverMeda
  0018e	81 fb 29 1c 00
	00		 cmp	 ebx, 7209		; 00001c29H
  00194	74 60		 je	 SHORT $LN5@SilverMeda
  00196	81 fb 2a 1c 00
	00		 cmp	 ebx, 7210		; 00001c2aH
  0019c	74 58		 je	 SHORT $LN5@SilverMeda
  0019e	81 fb b4 1c 00
	00		 cmp	 ebx, 7348		; 00001cb4H
  001a4	74 50		 je	 SHORT $LN5@SilverMeda
  001a6	81 fb b5 1c 00
	00		 cmp	 ebx, 7349		; 00001cb5H
  001ac	74 48		 je	 SHORT $LN5@SilverMeda
  001ae	81 fb b6 1c 00
	00		 cmp	 ebx, 7350		; 00001cb6H
  001b4	74 40		 je	 SHORT $LN5@SilverMeda
  001b6	81 fb b7 1c 00
	00		 cmp	 ebx, 7351		; 00001cb7H
  001bc	74 38		 je	 SHORT $LN5@SilverMeda
  001be	81 fb b8 1c 00
	00		 cmp	 ebx, 7352		; 00001cb8H
  001c4	74 30		 je	 SHORT $LN5@SilverMeda
  001c6	81 fb b9 1c 00
	00		 cmp	 ebx, 7353		; 00001cb9H
  001cc	74 28		 je	 SHORT $LN5@SilverMeda
  001ce	81 fb ba 1c 00
	00		 cmp	 ebx, 7354		; 00001cbaH
  001d4	74 20		 je	 SHORT $LN5@SilverMeda
  001d6	81 fb bb 1c 00
	00		 cmp	 ebx, 7355		; 00001cbbH
  001dc	74 18		 je	 SHORT $LN5@SilverMeda
  001de	81 fb be 1c 00
	00		 cmp	 ebx, 7358		; 00001cbeH
  001e4	74 10		 je	 SHORT $LN5@SilverMeda
  001e6	81 fb 2b 1c 00
	00		 cmp	 ebx, 7211		; 00001c2bH
  001ec	74 08		 je	 SHORT $LN5@SilverMeda
  001ee	81 fb 2c 1c 00
	00		 cmp	 ebx, 7212		; 00001c2cH
  001f4	75 14		 jne	 SHORT $LN6@SilverMeda
$LN5@SilverMeda:

; 477  : 			{
; 478  : 				Option1 = 0;

  001f6	89 8d 1c ff ff
	ff		 mov	 DWORD PTR _Option1$[ebp], ecx

; 479  : 				Option2 = 0;

  001fc	89 8d 24 ff ff
	ff		 mov	 DWORD PTR _Option2$[ebp], ecx

; 480  : 				Option3 = 0;

  00202	89 8d 20 ff ff
	ff		 mov	 DWORD PTR _Option3$[ebp], ecx

; 481  : 				level = 0;

  00208	33 ff		 xor	 edi, edi
$LN6@SilverMeda:

; 482  : 				ExOption = 0;
; 483  : 			}
; 484  : 
; 485  : 			if ( type == ITEMGET(12,30)	||
; 486  : 				 type == ITEMGET(12,31)	||
; 487  : 				 type == ITEMGET(12,136)||
; 488  : 				 type == ITEMGET(12,137)||
; 489  : 				 type == ITEMGET(12,138)||
; 490  : 				 type == ITEMGET(12,139)||
; 491  : 				 type == ITEMGET(12,140)||
; 492  : 				 type == ITEMGET(12,141)||
; 493  : 				 type == ITEMGET(12,142)||
; 494  : 				 type == ITEMGET(12,143))

  0020a	81 fb 1e 18 00
	00		 cmp	 ebx, 6174		; 0000181eH
  00210	74 48		 je	 SHORT $LN3@SilverMeda
  00212	81 fb 1f 18 00
	00		 cmp	 ebx, 6175		; 0000181fH
  00218	74 40		 je	 SHORT $LN3@SilverMeda
  0021a	81 fb 88 18 00
	00		 cmp	 ebx, 6280		; 00001888H
  00220	74 38		 je	 SHORT $LN3@SilverMeda
  00222	81 fb 89 18 00
	00		 cmp	 ebx, 6281		; 00001889H
  00228	74 30		 je	 SHORT $LN3@SilverMeda
  0022a	81 fb 8a 18 00
	00		 cmp	 ebx, 6282		; 0000188aH
  00230	74 28		 je	 SHORT $LN3@SilverMeda
  00232	81 fb 8b 18 00
	00		 cmp	 ebx, 6283		; 0000188bH
  00238	74 20		 je	 SHORT $LN3@SilverMeda
  0023a	81 fb 8c 18 00
	00		 cmp	 ebx, 6284		; 0000188cH
  00240	74 18		 je	 SHORT $LN3@SilverMeda
  00242	81 fb 8d 18 00
	00		 cmp	 ebx, 6285		; 0000188dH
  00248	74 10		 je	 SHORT $LN3@SilverMeda
  0024a	81 fb 8e 18 00
	00		 cmp	 ebx, 6286		; 0000188eH
  00250	74 08		 je	 SHORT $LN3@SilverMeda
  00252	81 fb 8f 18 00
	00		 cmp	 ebx, 6287		; 0000188fH
  00258	75 29		 jne	 SHORT $LN4@SilverMeda
$LN3@SilverMeda:

; 495  : 			{
; 496  : 				Option1 = 0;
; 497  : 				Option2 = 0;
; 498  : 				Option3 = 0;
; 499  : 				level = SilverMedalItemBag->GetLevel(DropItemNum);

  0025a	8b 95 08 ff ff
	ff		 mov	 edx, DWORD PTR _DropItemNum$[ebp]
  00260	89 8d 1c ff ff
	ff		 mov	 DWORD PTR _Option1$[ebp], ecx
  00266	89 8d 24 ff ff
	ff		 mov	 DWORD PTR _Option2$[ebp], ecx
  0026c	89 8d 20 ff ff
	ff		 mov	 DWORD PTR _Option3$[ebp], ecx
  00272	8b 0d 00 00 00
	00		 mov	 ecx, DWORD PTR ?SilverMedalItemBag@@3PAVCItemBag@@A ; SilverMedalItemBag
  00278	52		 push	 edx
  00279	e8 00 00 00 00	 call	 ?GetLevel@CItemBag@@QAEEH@Z ; CItemBag::GetLevel
  0027e	0f b6 f8	 movzx	 edi, al
  00281	33 c9		 xor	 ecx, ecx
$LN4@SilverMeda:

; 500  : 				ExOption = 0;
; 501  : 			}
; 502  : 
; 503  : 			if ( type == ITEMGET(13,0) ||
; 504  : 				 type == ITEMGET(13,1) ||
; 505  : 				 type == ITEMGET(13,2) ||
; 506  : 				 type == ITEMGET(13,8) ||
; 507  : 				 type == ITEMGET(13,9) ||
; 508  : 				 type == ITEMGET(13,12) ||
; 509  : 				 type == ITEMGET(13,13) )

  00283	81 fb 00 1a 00
	00		 cmp	 ebx, 6656		; 00001a00H
  00289	74 30		 je	 SHORT $LN1@SilverMeda
  0028b	81 fb 01 1a 00
	00		 cmp	 ebx, 6657		; 00001a01H
  00291	74 28		 je	 SHORT $LN1@SilverMeda
  00293	81 fb 02 1a 00
	00		 cmp	 ebx, 6658		; 00001a02H
  00299	74 20		 je	 SHORT $LN1@SilverMeda
  0029b	81 fb 08 1a 00
	00		 cmp	 ebx, 6664		; 00001a08H
  002a1	74 18		 je	 SHORT $LN1@SilverMeda
  002a3	81 fb 09 1a 00
	00		 cmp	 ebx, 6665		; 00001a09H
  002a9	74 10		 je	 SHORT $LN1@SilverMeda
  002ab	81 fb 0c 1a 00
	00		 cmp	 ebx, 6668		; 00001a0cH
  002b1	74 08		 je	 SHORT $LN1@SilverMeda
  002b3	81 fb 0d 1a 00
	00		 cmp	 ebx, 6669		; 00001a0dH
  002b9	75 02		 jne	 SHORT $LN2@SilverMeda
$LN1@SilverMeda:

; 510  : 			{
; 511  : 				level = 0;

  002bb	33 ff		 xor	 edi, edi
$LN2@SilverMeda:

; 512  : 			}
; 513  : 
; 514  : 			ItemSerialCreateSend(lpObj->m_Index, (BYTE)lpObj->MapNumber, (BYTE)x, (BYTE)y, type, (BYTE)level, (BYTE)dur,
; 515  : 				(BYTE)Option1, (BYTE)Option2, (BYTE)Option3, lpObj->m_Index, 0, 0);

  002bd	8b 06		 mov	 eax, DWORD PTR [esi]
  002bf	8b 95 20 ff ff
	ff		 mov	 edx, DWORD PTR _Option3$[ebp]
  002c5	51		 push	 ecx
  002c6	51		 push	 ecx
  002c7	50		 push	 eax
  002c8	52		 push	 edx
  002c9	8b 95 24 ff ff
	ff		 mov	 edx, DWORD PTR _Option2$[ebp]
  002cf	52		 push	 edx
  002d0	8b 95 1c ff ff
	ff		 mov	 edx, DWORD PTR _Option1$[ebp]
  002d6	52		 push	 edx
  002d7	8b 95 10 ff ff
	ff		 mov	 edx, DWORD PTR _x$[ebp]
  002dd	51		 push	 ecx
  002de	8b 8d 0c ff ff
	ff		 mov	 ecx, DWORD PTR _y$[ebp]
  002e4	57		 push	 edi
  002e5	53		 push	 ebx
  002e6	51		 push	 ecx
  002e7	0f b6 8e 49 01
	00 00		 movzx	 ecx, BYTE PTR [esi+329]
  002ee	52		 push	 edx
  002ef	51		 push	 ecx
  002f0	50		 push	 eax
  002f1	e8 00 00 00 00	 call	 ?ItemSerialCreateSend@@YAXHEEEHEEEEEHEE@Z ; ItemSerialCreateSend

; 516  : 
; 517  : 			PMSG_SERVERCMD ServerCmd;
; 518  : 
; 519  : 			PHeadSubSetB((LPBYTE)&ServerCmd, 0xF3, 0x40, sizeof(ServerCmd));

  002f6	6a 07		 push	 7
  002f8	6a 40		 push	 64			; 00000040H
  002fa	8d 95 14 ff ff
	ff		 lea	 edx, DWORD PTR _ServerCmd$215322[ebp]
  00300	68 f3 00 00 00	 push	 243			; 000000f3H
  00305	52		 push	 edx
  00306	e8 00 00 00 00	 call	 ?PHeadSubSetB@@YAXPAEEEH@Z ; PHeadSubSetB

; 520  : 			ServerCmd.CmdType = 2;
; 521  : 			ServerCmd.X = x;

  0030b	8a 85 10 ff ff
	ff		 mov	 al, BYTE PTR _x$[ebp]

; 522  : 			ServerCmd.Y = y;

  00311	8a 8d 0c ff ff
	ff		 mov	 cl, BYTE PTR _y$[ebp]
  00317	83 c4 44	 add	 esp, 68			; 00000044H

; 523  : 
; 524  : 			MsgSendV2(lpObj, (LPBYTE)&ServerCmd, sizeof(ServerCmd));

  0031a	6a 07		 push	 7
  0031c	8d 95 14 ff ff
	ff		 lea	 edx, DWORD PTR _ServerCmd$215322[ebp]
  00322	52		 push	 edx
  00323	56		 push	 esi
  00324	c6 85 18 ff ff
	ff 02		 mov	 BYTE PTR _ServerCmd$215322[ebp+4], 2
  0032b	88 85 19 ff ff
	ff		 mov	 BYTE PTR _ServerCmd$215322[ebp+5], al
  00331	88 8d 1a ff ff
	ff		 mov	 BYTE PTR _ServerCmd$215322[ebp+6], cl
  00337	e8 00 00 00 00	 call	 ?MsgSendV2@@YAXPAUOBJECTSTRUCT@@PAEH@Z ; MsgSendV2

; 525  : 			DataSend(lpObj->m_Index, (LPBYTE)&ServerCmd, sizeof(ServerCmd));

  0033c	8b 0e		 mov	 ecx, DWORD PTR [esi]
  0033e	6a 07		 push	 7
  00340	8d 85 14 ff ff
	ff		 lea	 eax, DWORD PTR _ServerCmd$215322[ebp]
  00346	50		 push	 eax
  00347	51		 push	 ecx
  00348	e8 00 00 00 00	 call	 ?DataSend@@YAHHPAEK@Z	; DataSend
  0034d	83 c4 18	 add	 esp, 24			; 00000018H

; 526  : 
; 527  : 			CItem EventItem;

  00350	8d 8d 28 ff ff
	ff		 lea	 ecx, DWORD PTR _EventItem$215326[ebp]
  00356	e8 00 00 00 00	 call	 ??0CItem@@QAE@XZ	; CItem::CItem

; 528  : 
; 529  : 			EventItem.Convert(type, Option1, Option2, Option3, 0, 1, 0, NULL, 0xFF, 0, 3);

  0035b	8b 95 20 ff ff
	ff		 mov	 edx, DWORD PTR _Option3$[ebp]
  00361	8b 85 24 ff ff
	ff		 mov	 eax, DWORD PTR _Option2$[ebp]
  00367	8b 8d 1c ff ff
	ff		 mov	 ecx, DWORD PTR _Option1$[ebp]
  0036d	6a 03		 push	 3
  0036f	6a 00		 push	 0
  00371	68 ff 00 00 00	 push	 255			; 000000ffH
  00376	6a 00		 push	 0
  00378	6a 00		 push	 0
  0037a	6a 01		 push	 1
  0037c	6a 00		 push	 0
  0037e	52		 push	 edx
  0037f	50		 push	 eax
  00380	51		 push	 ecx
  00381	53		 push	 ebx
  00382	8d 8d 28 ff ff
	ff		 lea	 ecx, DWORD PTR _EventItem$215326[ebp]
  00388	e8 00 00 00 00	 call	 ?Convert@CItem@@QAEXHEEEEEEPAEEEE@Z ; CItem::Convert

; 530  : 
; 531  : 			LogAddTD("[%s][%s][Lucky Box Item Drop][Silver Medal] : (%d)(X:%d/Y:%d) Item:%s(%d) Level:%d Op1:%d Op2:%d Op3:%d",
; 532  : 				lpObj->AccountID, lpObj->Name, lpObj->MapNumber, lpObj->X, lpObj->Y, EventItem.GetName(),
; 533  : 				type, level, Option1, Option2, Option3);

  0038d	8b 95 20 ff ff
	ff		 mov	 edx, DWORD PTR _Option3$[ebp]
  00393	8b 85 24 ff ff
	ff		 mov	 eax, DWORD PTR _Option2$[ebp]
  00399	8b 8d 1c ff ff
	ff		 mov	 ecx, DWORD PTR _Option1$[ebp]
  0039f	52		 push	 edx
  003a0	50		 push	 eax
  003a1	51		 push	 ecx
  003a2	57		 push	 edi
  003a3	53		 push	 ebx
  003a4	8d 8d 28 ff ff
	ff		 lea	 ecx, DWORD PTR _EventItem$215326[ebp]
  003aa	e8 00 00 00 00	 call	 ?GetName@CItem@@QAEPADXZ ; CItem::GetName
  003af	0f bf 96 46 01
	00 00		 movsx	 edx, WORD PTR [esi+326]
  003b6	0f b6 8e 49 01
	00 00		 movzx	 ecx, BYTE PTR [esi+329]
  003bd	50		 push	 eax
  003be	0f bf 86 44 01
	00 00		 movsx	 eax, WORD PTR [esi+324]
  003c5	52		 push	 edx
  003c6	50		 push	 eax
  003c7	51		 push	 ecx
  003c8	8d 56 77	 lea	 edx, DWORD PTR [esi+119]
  003cb	52		 push	 edx
  003cc	83 c6 6c	 add	 esi, 108		; 0000006cH
  003cf	56		 push	 esi
  003d0	68 00 00 00 00	 push	 OFFSET ??_C@_0GI@IEKACMEE@?$FL?$CFs?$FN?$FL?$CFs?$FN?$FLLucky?5Box?5Item?5Drop?$FN?$FLSi@
  003d5	ff 15 00 00 00
	00		 call	 DWORD PTR ?LogAddTD@@3P6AXPADZZA ; LogAddTD
  003db	83 c4 30	 add	 esp, 48			; 00000030H
  003de	5f		 pop	 edi
  003df	5b		 pop	 ebx
  003e0	5e		 pop	 esi

; 542  : }

  003e1	8b 4d fc	 mov	 ecx, DWORD PTR __$ArrayPad$[ebp]
  003e4	33 cd		 xor	 ecx, ebp
  003e6	e8 00 00 00 00	 call	 @__security_check_cookie@4
  003eb	8b e5		 mov	 esp, ebp
  003ed	5d		 pop	 ebp
  003ee	c3		 ret	 0
$LN11@SilverMeda:

; 534  : 
; 535  : 			return;
; 536  : 		}
; 537  : 	}
; 538  : 
; 539  : 	x = lpObj->X;
; 540  : 	y = lpObj->Y;
; 541  : 	MapC[lpObj->MapNumber].MoneyItemDrop(100000, x, y);

  003ef	0f bf 86 46 01
	00 00		 movsx	 eax, WORD PTR [esi+326]
  003f6	0f bf 8e 44 01
	00 00		 movsx	 ecx, WORD PTR [esi+324]
  003fd	50		 push	 eax
  003fe	51		 push	 ecx
  003ff	0f b6 8e 49 01
	00 00		 movzx	 ecx, BYTE PTR [esi+329]
  00406	69 c9 48 3d 05
	00		 imul	 ecx, 343368		; 00053d48H
  0040c	68 a0 86 01 00	 push	 100000			; 000186a0H
  00411	81 c1 00 00 00
	00		 add	 ecx, OFFSET ?MapC@@3PAVMapClass@@A ; MapC
  00417	e8 00 00 00 00	 call	 ?MoneyItemDrop@MapClass@@QAEHHHH@Z ; MapClass::MoneyItemDrop
$LN14@SilverMeda:

; 542  : }

  0041c	8b 4d fc	 mov	 ecx, DWORD PTR __$ArrayPad$[ebp]
  0041f	33 cd		 xor	 ecx, ebp
  00421	5e		 pop	 esi
  00422	e8 00 00 00 00	 call	 @__security_check_cookie@4
  00427	8b e5		 mov	 esp, ebp
  00429	5d		 pop	 ebp
  0042a	c3		 ret	 0
?SilverMedalOpenEven@@YAXPAUOBJECTSTRUCT@@@Z ENDP	; SilverMedalOpenEven
_TEXT	ENDS
PUBLIC	??_C@_0GJ@EIOJOOBH@?$FL?$CFs?$FN?$FL?$CFs?$FN?$FLLucky?5Box?5Item?5Drop?$FN?$FLHe@ ; `string'
PUBLIC	__$ArrayPad$
PUBLIC	?HeartOfLoveOpenEven@@YAXPAUOBJECTSTRUCT@@@Z	; HeartOfLoveOpenEven
EXTRN	?gLanguage@@3HA:DWORD				; gLanguage
EXTRN	?g_ItemDropRateForgHeartOfLove@@3HA:DWORD	; g_ItemDropRateForgHeartOfLove
EXTRN	?HeartOfLoveItemBag@@3PAVCItemBag@@A:DWORD	; HeartOfLoveItemBag
;	COMDAT ??_C@_0GJ@EIOJOOBH@?$FL?$CFs?$FN?$FL?$CFs?$FN?$FLLucky?5Box?5Item?5Drop?$FN?$FLHe@
; File e:\work\tranet_version\gs\gameserver\itembag.h
CONST	SEGMENT
??_C@_0GJ@EIOJOOBH@?$FL?$CFs?$FN?$FL?$CFs?$FN?$FLLucky?5Box?5Item?5Drop?$FN?$FLHe@ DB '['
	DB	'%s][%s][Lucky Box Item Drop][Heart Of Love] : (%d)(X:%d/Y:%d)'
	DB	' Item:%s(%d) Level:%d Op1:%d Op2:%d Op3:%d', 00H ; `string'
; Function compile flags: /Ogtp
; File e:\work\tranet_version\gs\gameserver\event.cpp
CONST	ENDS
;	COMDAT ?HeartOfLoveOpenEven@@YAXPAUOBJECTSTRUCT@@@Z
_TEXT	SEGMENT
_DropItemNum$ = -248					; size = 4
_y$ = -244						; size = 4
_x$ = -240						; size = 4
_ServerCmd$215363 = -236				; size = 7
_Option2$ = -228					; size = 4
_level$ = -224						; size = 4
_Option3$ = -220					; size = 4
_EventItem$215367 = -216				; size = 212
__$ArrayPad$ = -4					; size = 4
_lpObj$ = 8						; size = 4
?HeartOfLoveOpenEven@@YAXPAUOBJECTSTRUCT@@@Z PROC	; HeartOfLoveOpenEven, COMDAT

; 548  : {

  00000	55		 push	 ebp
  00001	8b ec		 mov	 ebp, esp
  00003	81 ec f8 00 00
	00		 sub	 esp, 248		; 000000f8H
  00009	a1 00 00 00 00	 mov	 eax, DWORD PTR ___security_cookie
  0000e	33 c5		 xor	 eax, ebp
  00010	89 45 fc	 mov	 DWORD PTR __$ArrayPad$[ebp], eax

; 549  : 	float dur;
; 550  : 	int type;
; 551  : 	int level;
; 552  : 	int x;
; 553  : 	int y;
; 554  : 	int Option1=0;
; 555  : 	int Option2=0;
; 556  : 	int Option3=0;
; 557  : 	int DropItemNum;
; 558  : 
; 559  : 	if ( !HeartOfLoveItemBag )

  00013	a1 00 00 00 00	 mov	 eax, DWORD PTR ?HeartOfLoveItemBag@@3PAVCItemBag@@A ; HeartOfLoveItemBag
  00018	56		 push	 esi
  00019	8b 75 08	 mov	 esi, DWORD PTR _lpObj$[ebp]
  0001c	c7 85 24 ff ff
	ff 00 00 00 00	 mov	 DWORD PTR _Option3$[ebp], 0
  00026	85 c0		 test	 eax, eax
  00028	0f 84 08 04 00
	00		 je	 $LN16@HeartOfLov

; 560  : 		return;
; 561  : 
; 562  : 	if ( HeartOfLoveItemBag->GetBagCount() > 0 )

  0002e	83 b8 88 03 00
	00 00		 cmp	 DWORD PTR [eax+904], 0
  00035	0f 8e ce 03 00
	00		 jle	 $LN13@HeartOfLov

; 563  : 	{
; 564  : 		if ( (rand()%20) < g_ItemDropRateForgHeartOfLove )

  0003b	e8 00 00 00 00	 call	 _rand
  00040	99		 cdq
  00041	b9 14 00 00 00	 mov	 ecx, 20			; 00000014H
  00046	f7 f9		 idiv	 ecx
  00048	3b 15 00 00 00
	00		 cmp	 edx, DWORD PTR ?g_ItemDropRateForgHeartOfLove@@3HA ; g_ItemDropRateForgHeartOfLove
  0004e	0f 8d b5 03 00
	00		 jge	 $LN13@HeartOfLov

; 565  : 		{
; 566  : 			DropItemNum = rand()%HeartOfLoveItemBag->GetBagCount();

  00054	8b 15 00 00 00
	00		 mov	 edx, DWORD PTR ?HeartOfLoveItemBag@@3PAVCItemBag@@A ; HeartOfLoveItemBag
  0005a	53		 push	 ebx
  0005b	57		 push	 edi
  0005c	8b ba 88 03 00
	00		 mov	 edi, DWORD PTR [edx+904]
  00062	e8 00 00 00 00	 call	 _rand
  00067	99		 cdq
  00068	f7 ff		 idiv	 edi

; 567  : 			dur=0;
; 568  : 			x = lpObj->X;
; 569  : 			y = lpObj->Y;
; 570  : 
; 571  : 			if ( gLanguage == 0 )

  0006a	83 3d 00 00 00
	00 00		 cmp	 DWORD PTR ?gLanguage@@3HA, 0 ; gLanguage
  00071	0f bf 8e 46 01
	00 00		 movsx	 ecx, WORD PTR [esi+326]
  00078	0f bf 86 44 01
	00 00		 movsx	 eax, WORD PTR [esi+324]
  0007f	89 8d 0c ff ff
	ff		 mov	 DWORD PTR _y$[ebp], ecx

; 572  : 			{
; 573  : 				level = HeartOfLoveItemBag->GetLevel(DropItemNum) + rand()%2;

  00085	8b 0d 00 00 00
	00		 mov	 ecx, DWORD PTR ?HeartOfLoveItemBag@@3PAVCItemBag@@A ; HeartOfLoveItemBag
  0008b	89 85 10 ff ff
	ff		 mov	 DWORD PTR _x$[ebp], eax
  00091	8b fa		 mov	 edi, edx
  00093	89 bd 08 ff ff
	ff		 mov	 DWORD PTR _DropItemNum$[ebp], edi
  00099	57		 push	 edi
  0009a	75 23		 jne	 SHORT $LN12@HeartOfLov
  0009c	e8 00 00 00 00	 call	 ?GetLevel@CItemBag@@QAEEH@Z ; CItemBag::GetLevel
  000a1	0f b6 d8	 movzx	 ebx, al
  000a4	e8 00 00 00 00	 call	 _rand
  000a9	25 01 00 00 80	 and	 eax, -2147483647	; 80000001H
  000ae	79 05		 jns	 SHORT $LN25@HeartOfLov
  000b0	48		 dec	 eax
  000b1	83 c8 fe	 or	 eax, -2			; fffffffeH
  000b4	40		 inc	 eax
$LN25@HeartOfLov:
  000b5	03 c3		 add	 eax, ebx
  000b7	89 85 20 ff ff
	ff		 mov	 DWORD PTR _level$[ebp], eax

; 574  : 			}
; 575  : 			else

  000bd	eb 1d		 jmp	 SHORT $LN11@HeartOfLov
$LN12@HeartOfLov:

; 576  : 			{
; 577  : 				level = HeartOfLoveItemBag->GetLevel(DropItemNum) + rand()%5;

  000bf	e8 00 00 00 00	 call	 ?GetLevel@CItemBag@@QAEEH@Z ; CItemBag::GetLevel
  000c4	0f b6 d8	 movzx	 ebx, al
  000c7	e8 00 00 00 00	 call	 _rand
  000cc	99		 cdq
  000cd	b9 05 00 00 00	 mov	 ecx, 5
  000d2	f7 f9		 idiv	 ecx
  000d4	03 d3		 add	 edx, ebx
  000d6	89 95 20 ff ff
	ff		 mov	 DWORD PTR _level$[ebp], edx
$LN11@HeartOfLov:

; 578  : 			}
; 579  : 
; 580  : 			type = ItemGetNumberMake(HeartOfLoveItemBag->GetType(DropItemNum), HeartOfLoveItemBag->GetIndex(DropItemNum));

  000dc	8b 0d 00 00 00
	00		 mov	 ecx, DWORD PTR ?HeartOfLoveItemBag@@3PAVCItemBag@@A ; HeartOfLoveItemBag
  000e2	57		 push	 edi
  000e3	e8 00 00 00 00	 call	 ?GetIndex@CItemBag@@QAEEH@Z ; CItemBag::GetIndex
  000e8	8b 0d 00 00 00
	00		 mov	 ecx, DWORD PTR ?HeartOfLoveItemBag@@3PAVCItemBag@@A ; HeartOfLoveItemBag
  000ee	0f b6 d0	 movzx	 edx, al
  000f1	52		 push	 edx
  000f2	57		 push	 edi
  000f3	e8 00 00 00 00	 call	 ?GetType@CItemBag@@QAEEH@Z ; CItemBag::GetType
  000f8	0f b6 c0	 movzx	 eax, al
  000fb	50		 push	 eax
  000fc	e8 00 00 00 00	 call	 ?ItemGetNumberMake@@YAHHH@Z ; ItemGetNumberMake
  00101	83 c4 08	 add	 esp, 8
  00104	8b f8		 mov	 edi, eax

; 581  : 			Option1 = rand()%2;

  00106	e8 00 00 00 00	 call	 _rand
  0010b	8b d8		 mov	 ebx, eax
  0010d	81 e3 01 00 00
	80		 and	 ebx, -2147483647	; 80000001H
  00113	79 05		 jns	 SHORT $LN26@HeartOfLov
  00115	4b		 dec	 ebx
  00116	83 cb fe	 or	 ebx, -2			; fffffffeH
  00119	43		 inc	 ebx
$LN26@HeartOfLov:

; 582  : 			Option2 = rand()%2;

  0011a	e8 00 00 00 00	 call	 _rand
  0011f	25 01 00 00 80	 and	 eax, -2147483647	; 80000001H
  00124	79 05		 jns	 SHORT $LN27@HeartOfLov
  00126	48		 dec	 eax
  00127	83 c8 fe	 or	 eax, -2			; fffffffeH
  0012a	40		 inc	 eax
$LN27@HeartOfLov:
  0012b	89 85 1c ff ff
	ff		 mov	 DWORD PTR _Option2$[ebp], eax

; 583  : 
; 584  : 			if ( !Option2 || !Option1 )

  00131	74 06		 je	 SHORT $LN9@HeartOfLov
  00133	33 c9		 xor	 ecx, ecx
  00135	3b d9		 cmp	 ebx, ecx
  00137	75 33		 jne	 SHORT $LN23@HeartOfLov
$LN9@HeartOfLov:

; 585  : 			{
; 586  : 				if ( (rand()%5) <1 )

  00139	e8 00 00 00 00	 call	 _rand
  0013e	99		 cdq
  0013f	b9 05 00 00 00	 mov	 ecx, 5
  00144	f7 f9		 idiv	 ecx
  00146	83 fa 01	 cmp	 edx, 1
  00149	7d 0c		 jge	 SHORT $LN8@HeartOfLov

; 587  : 					Option3 = 3;

  0014b	c7 85 24 ff ff
	ff 03 00 00 00	 mov	 DWORD PTR _Option3$[ebp], 3

; 588  : 				else

  00155	eb 13		 jmp	 SHORT $LN28@HeartOfLov
$LN8@HeartOfLov:

; 589  : 					Option3 = rand()%3;

  00157	e8 00 00 00 00	 call	 _rand
  0015c	99		 cdq
  0015d	b9 03 00 00 00	 mov	 ecx, 3
  00162	f7 f9		 idiv	 ecx
  00164	89 95 24 ff ff
	ff		 mov	 DWORD PTR _Option3$[ebp], edx
$LN28@HeartOfLov:
  0016a	33 c9		 xor	 ecx, ecx
$LN23@HeartOfLov:

; 590  : 			}
; 591  : 
; 592  : 			if ( type == ITEMGET(12,15) ||
; 593  : 				 type == ITEMGET(14,13) ||
; 594  : 				 type == ITEMGET(14,14) ||
; 595  : 				 type == ITEMGET(14,14) ||
; 596  : 				 type == ITEMGET(14,16)	||
; 597  : 				 type == ITEMGET(14,22)	||
; 598  : 				 type == ITEMGET(14,31)	||
; 599  : 				 type == ITEMGET(14,41)	||
; 600  : 				 type == ITEMGET(14,42)	||
; 601  : 				 type == ITEMGET(14,180)||
; 602  : 				 type == ITEMGET(14,181)||
; 603  : 				 type == ITEMGET(14,182)||
; 604  : 				 type == ITEMGET(14,183)||
; 605  : 				 type == ITEMGET(14,184)||
; 606  : 				 type == ITEMGET(14,185)||
; 607  : 				 type == ITEMGET(14,186)||
; 608  : 				 type == ITEMGET(14,187)||
; 609  : 				 type == ITEMGET(14,190)||
; 610  : 				 type == ITEMGET(14,43) ||
; 611  : 				 type == ITEMGET(14,44) )

  0016c	81 ff 0f 18 00
	00		 cmp	 edi, 6159		; 0000180fH
  00172	0f 84 98 00 00
	00		 je	 $LN5@HeartOfLov
  00178	81 ff 0d 1c 00
	00		 cmp	 edi, 7181		; 00001c0dH
  0017e	0f 84 8c 00 00
	00		 je	 $LN5@HeartOfLov
  00184	81 ff 0e 1c 00
	00		 cmp	 edi, 7182		; 00001c0eH
  0018a	0f 84 80 00 00
	00		 je	 $LN5@HeartOfLov
  00190	81 ff 10 1c 00
	00		 cmp	 edi, 7184		; 00001c10H
  00196	74 78		 je	 SHORT $LN5@HeartOfLov
  00198	81 ff 16 1c 00
	00		 cmp	 edi, 7190		; 00001c16H
  0019e	74 70		 je	 SHORT $LN5@HeartOfLov
  001a0	81 ff 1f 1c 00
	00		 cmp	 edi, 7199		; 00001c1fH
  001a6	74 68		 je	 SHORT $LN5@HeartOfLov
  001a8	81 ff 29 1c 00
	00		 cmp	 edi, 7209		; 00001c29H
  001ae	74 60		 je	 SHORT $LN5@HeartOfLov
  001b0	81 ff 2a 1c 00
	00		 cmp	 edi, 7210		; 00001c2aH
  001b6	74 58		 je	 SHORT $LN5@HeartOfLov
  001b8	81 ff b4 1c 00
	00		 cmp	 edi, 7348		; 00001cb4H
  001be	74 50		 je	 SHORT $LN5@HeartOfLov
  001c0	81 ff b5 1c 00
	00		 cmp	 edi, 7349		; 00001cb5H
  001c6	74 48		 je	 SHORT $LN5@HeartOfLov
  001c8	81 ff b6 1c 00
	00		 cmp	 edi, 7350		; 00001cb6H
  001ce	74 40		 je	 SHORT $LN5@HeartOfLov
  001d0	81 ff b7 1c 00
	00		 cmp	 edi, 7351		; 00001cb7H
  001d6	74 38		 je	 SHORT $LN5@HeartOfLov
  001d8	81 ff b8 1c 00
	00		 cmp	 edi, 7352		; 00001cb8H
  001de	74 30		 je	 SHORT $LN5@HeartOfLov
  001e0	81 ff b9 1c 00
	00		 cmp	 edi, 7353		; 00001cb9H
  001e6	74 28		 je	 SHORT $LN5@HeartOfLov
  001e8	81 ff ba 1c 00
	00		 cmp	 edi, 7354		; 00001cbaH
  001ee	74 20		 je	 SHORT $LN5@HeartOfLov
  001f0	81 ff bb 1c 00
	00		 cmp	 edi, 7355		; 00001cbbH
  001f6	74 18		 je	 SHORT $LN5@HeartOfLov
  001f8	81 ff be 1c 00
	00		 cmp	 edi, 7358		; 00001cbeH
  001fe	74 10		 je	 SHORT $LN5@HeartOfLov
  00200	81 ff 2b 1c 00
	00		 cmp	 edi, 7211		; 00001c2bH
  00206	74 08		 je	 SHORT $LN5@HeartOfLov
  00208	81 ff 2c 1c 00
	00		 cmp	 edi, 7212		; 00001c2cH
  0020e	75 14		 jne	 SHORT $LN24@HeartOfLov
$LN5@HeartOfLov:

; 612  : 			{
; 613  : 				Option1 = 0;

  00210	33 db		 xor	 ebx, ebx

; 614  : 				Option2 = 0;

  00212	89 8d 1c ff ff
	ff		 mov	 DWORD PTR _Option2$[ebp], ecx

; 615  : 				Option3 = 0;

  00218	89 8d 24 ff ff
	ff		 mov	 DWORD PTR _Option3$[ebp], ecx

; 616  : 				level = 0;

  0021e	89 8d 20 ff ff
	ff		 mov	 DWORD PTR _level$[ebp], ecx
$LN24@HeartOfLov:

; 617  : 			}
; 618  : 
; 619  : 			if ( type == ITEMGET(12,30)	||
; 620  : 				 type == ITEMGET(12,31)	||
; 621  : 				 type == ITEMGET(12,136)||
; 622  : 				 type == ITEMGET(12,137)||
; 623  : 				 type == ITEMGET(12,138)||
; 624  : 				 type == ITEMGET(12,139)||
; 625  : 				 type == ITEMGET(12,140)||
; 626  : 				 type == ITEMGET(12,141)||
; 627  : 				 type == ITEMGET(12,142)||
; 628  : 				 type == ITEMGET(12,143))

  00224	81 ff 1e 18 00
	00		 cmp	 edi, 6174		; 0000181eH
  0022a	74 48		 je	 SHORT $LN3@HeartOfLov
  0022c	81 ff 1f 18 00
	00		 cmp	 edi, 6175		; 0000181fH
  00232	74 40		 je	 SHORT $LN3@HeartOfLov
  00234	81 ff 88 18 00
	00		 cmp	 edi, 6280		; 00001888H
  0023a	74 38		 je	 SHORT $LN3@HeartOfLov
  0023c	81 ff 89 18 00
	00		 cmp	 edi, 6281		; 00001889H
  00242	74 30		 je	 SHORT $LN3@HeartOfLov
  00244	81 ff 8a 18 00
	00		 cmp	 edi, 6282		; 0000188aH
  0024a	74 28		 je	 SHORT $LN3@HeartOfLov
  0024c	81 ff 8b 18 00
	00		 cmp	 edi, 6283		; 0000188bH
  00252	74 20		 je	 SHORT $LN3@HeartOfLov
  00254	81 ff 8c 18 00
	00		 cmp	 edi, 6284		; 0000188cH
  0025a	74 18		 je	 SHORT $LN3@HeartOfLov
  0025c	81 ff 8d 18 00
	00		 cmp	 edi, 6285		; 0000188dH
  00262	74 10		 je	 SHORT $LN3@HeartOfLov
  00264	81 ff 8e 18 00
	00		 cmp	 edi, 6286		; 0000188eH
  0026a	74 08		 je	 SHORT $LN3@HeartOfLov
  0026c	81 ff 8f 18 00
	00		 cmp	 edi, 6287		; 0000188fH
  00272	75 2b		 jne	 SHORT $LN4@HeartOfLov
$LN3@HeartOfLov:

; 629  : 			{
; 630  : 				Option1 = 0;
; 631  : 				Option2 = 0;
; 632  : 				Option3 = 0;
; 633  : 				level = HeartOfLoveItemBag->GetLevel(DropItemNum);

  00274	8b 95 08 ff ff
	ff		 mov	 edx, DWORD PTR _DropItemNum$[ebp]
  0027a	89 8d 1c ff ff
	ff		 mov	 DWORD PTR _Option2$[ebp], ecx
  00280	89 8d 24 ff ff
	ff		 mov	 DWORD PTR _Option3$[ebp], ecx
  00286	8b 0d 00 00 00
	00		 mov	 ecx, DWORD PTR ?HeartOfLoveItemBag@@3PAVCItemBag@@A ; HeartOfLoveItemBag
  0028c	52		 push	 edx
  0028d	33 db		 xor	 ebx, ebx
  0028f	e8 00 00 00 00	 call	 ?GetLevel@CItemBag@@QAEEH@Z ; CItemBag::GetLevel
  00294	0f b6 c0	 movzx	 eax, al
  00297	89 85 20 ff ff
	ff		 mov	 DWORD PTR _level$[ebp], eax
  0029d	33 c9		 xor	 ecx, ecx
$LN4@HeartOfLov:

; 634  : 			}
; 635  : 
; 636  : 			if ( type == ITEMGET(13,0) ||
; 637  : 				 type == ITEMGET(13,1) ||
; 638  : 				 type == ITEMGET(13,2) ||
; 639  : 				 type == ITEMGET(13,8) ||
; 640  : 				 type == ITEMGET(13,9) ||
; 641  : 				 type == ITEMGET(13,12) ||
; 642  : 				 type == ITEMGET(13,13) )

  0029f	81 ff 00 1a 00
	00		 cmp	 edi, 6656		; 00001a00H
  002a5	74 30		 je	 SHORT $LN1@HeartOfLov
  002a7	81 ff 01 1a 00
	00		 cmp	 edi, 6657		; 00001a01H
  002ad	74 28		 je	 SHORT $LN1@HeartOfLov
  002af	81 ff 02 1a 00
	00		 cmp	 edi, 6658		; 00001a02H
  002b5	74 20		 je	 SHORT $LN1@HeartOfLov
  002b7	81 ff 08 1a 00
	00		 cmp	 edi, 6664		; 00001a08H
  002bd	74 18		 je	 SHORT $LN1@HeartOfLov
  002bf	81 ff 09 1a 00
	00		 cmp	 edi, 6665		; 00001a09H
  002c5	74 10		 je	 SHORT $LN1@HeartOfLov
  002c7	81 ff 0c 1a 00
	00		 cmp	 edi, 6668		; 00001a0cH
  002cd	74 08		 je	 SHORT $LN1@HeartOfLov
  002cf	81 ff 0d 1a 00
	00		 cmp	 edi, 6669		; 00001a0dH
  002d5	75 06		 jne	 SHORT $LN2@HeartOfLov
$LN1@HeartOfLov:

; 643  : 			{
; 644  : 				level = 0;

  002d7	89 8d 20 ff ff
	ff		 mov	 DWORD PTR _level$[ebp], ecx
$LN2@HeartOfLov:

; 645  : 			}
; 646  : 
; 647  : 			ItemSerialCreateSend(lpObj->m_Index, (BYTE)lpObj->MapNumber, (BYTE)x, (BYTE)y, type, (BYTE)level, (BYTE)dur,
; 648  : 				(BYTE)Option1, (BYTE)Option2, (BYTE)Option3, lpObj->m_Index, 0, 0);

  002dd	8b 06		 mov	 eax, DWORD PTR [esi]
  002df	8b 95 24 ff ff
	ff		 mov	 edx, DWORD PTR _Option3$[ebp]
  002e5	51		 push	 ecx
  002e6	51		 push	 ecx
  002e7	50		 push	 eax
  002e8	52		 push	 edx
  002e9	8b 95 1c ff ff
	ff		 mov	 edx, DWORD PTR _Option2$[ebp]
  002ef	52		 push	 edx
  002f0	8b 95 0c ff ff
	ff		 mov	 edx, DWORD PTR _y$[ebp]
  002f6	53		 push	 ebx
  002f7	51		 push	 ecx
  002f8	8b 8d 20 ff ff
	ff		 mov	 ecx, DWORD PTR _level$[ebp]
  002fe	51		 push	 ecx
  002ff	8b 8d 10 ff ff
	ff		 mov	 ecx, DWORD PTR _x$[ebp]
  00305	57		 push	 edi
  00306	52		 push	 edx
  00307	0f b6 96 49 01
	00 00		 movzx	 edx, BYTE PTR [esi+329]
  0030e	51		 push	 ecx
  0030f	52		 push	 edx
  00310	50		 push	 eax
  00311	e8 00 00 00 00	 call	 ?ItemSerialCreateSend@@YAXHEEEHEEEEEHEE@Z ; ItemSerialCreateSend

; 649  : 
; 650  : 			PMSG_SERVERCMD ServerCmd;
; 651  : 
; 652  : 			PHeadSubSetB((LPBYTE)&ServerCmd, 0xF3, 0x40, sizeof(ServerCmd));

  00316	6a 07		 push	 7
  00318	6a 40		 push	 64			; 00000040H
  0031a	8d 85 14 ff ff
	ff		 lea	 eax, DWORD PTR _ServerCmd$215363[ebp]
  00320	68 f3 00 00 00	 push	 243			; 000000f3H
  00325	50		 push	 eax
  00326	e8 00 00 00 00	 call	 ?PHeadSubSetB@@YAXPAEEEH@Z ; PHeadSubSetB

; 653  : 			ServerCmd.CmdType = 0;
; 654  : 			ServerCmd.X = x;

  0032b	8a 8d 10 ff ff
	ff		 mov	 cl, BYTE PTR _x$[ebp]

; 655  : 			ServerCmd.Y = y;

  00331	8a 95 0c ff ff
	ff		 mov	 dl, BYTE PTR _y$[ebp]
  00337	83 c4 44	 add	 esp, 68			; 00000044H

; 656  : 
; 657  : 			MsgSendV2(lpObj, (LPBYTE)&ServerCmd, sizeof(ServerCmd));

  0033a	6a 07		 push	 7
  0033c	8d 85 14 ff ff
	ff		 lea	 eax, DWORD PTR _ServerCmd$215363[ebp]
  00342	50		 push	 eax
  00343	56		 push	 esi
  00344	c6 85 18 ff ff
	ff 00		 mov	 BYTE PTR _ServerCmd$215363[ebp+4], 0
  0034b	88 8d 19 ff ff
	ff		 mov	 BYTE PTR _ServerCmd$215363[ebp+5], cl
  00351	88 95 1a ff ff
	ff		 mov	 BYTE PTR _ServerCmd$215363[ebp+6], dl
  00357	e8 00 00 00 00	 call	 ?MsgSendV2@@YAXPAUOBJECTSTRUCT@@PAEH@Z ; MsgSendV2

; 658  : 			DataSend(lpObj->m_Index, (LPBYTE)&ServerCmd, sizeof(ServerCmd));

  0035c	8b 16		 mov	 edx, DWORD PTR [esi]
  0035e	6a 07		 push	 7
  00360	8d 8d 14 ff ff
	ff		 lea	 ecx, DWORD PTR _ServerCmd$215363[ebp]
  00366	51		 push	 ecx
  00367	52		 push	 edx
  00368	e8 00 00 00 00	 call	 ?DataSend@@YAHHPAEK@Z	; DataSend
  0036d	83 c4 18	 add	 esp, 24			; 00000018H

; 659  : 
; 660  : 			CItem EventItem;

  00370	8d 8d 28 ff ff
	ff		 lea	 ecx, DWORD PTR _EventItem$215367[ebp]
  00376	e8 00 00 00 00	 call	 ??0CItem@@QAE@XZ	; CItem::CItem

; 661  : 
; 662  : 			EventItem.Convert(type, Option1, Option2, Option3, 0, 1, 0, NULL, 0xFF, 0, 3);

  0037b	8b 85 24 ff ff
	ff		 mov	 eax, DWORD PTR _Option3$[ebp]
  00381	8b 8d 1c ff ff
	ff		 mov	 ecx, DWORD PTR _Option2$[ebp]
  00387	6a 03		 push	 3
  00389	6a 00		 push	 0
  0038b	68 ff 00 00 00	 push	 255			; 000000ffH
  00390	6a 00		 push	 0
  00392	6a 00		 push	 0
  00394	6a 01		 push	 1
  00396	6a 00		 push	 0
  00398	50		 push	 eax
  00399	51		 push	 ecx
  0039a	53		 push	 ebx
  0039b	57		 push	 edi
  0039c	8d 8d 28 ff ff
	ff		 lea	 ecx, DWORD PTR _EventItem$215367[ebp]
  003a2	e8 00 00 00 00	 call	 ?Convert@CItem@@QAEXHEEEEEEPAEEEE@Z ; CItem::Convert

; 663  : 
; 664  : 			LogAddTD("[%s][%s][Lucky Box Item Drop][Heart Of Love] : (%d)(X:%d/Y:%d) Item:%s(%d) Level:%d Op1:%d Op2:%d Op3:%d",
; 665  : 				lpObj->AccountID, lpObj->Name, lpObj->MapNumber, lpObj->X, lpObj->Y, EventItem.GetName(),
; 666  : 				type, level, Option1, Option2, Option3);

  003a7	8b 95 24 ff ff
	ff		 mov	 edx, DWORD PTR _Option3$[ebp]
  003ad	8b 85 1c ff ff
	ff		 mov	 eax, DWORD PTR _Option2$[ebp]
  003b3	8b 8d 20 ff ff
	ff		 mov	 ecx, DWORD PTR _level$[ebp]
  003b9	52		 push	 edx
  003ba	50		 push	 eax
  003bb	53		 push	 ebx
  003bc	51		 push	 ecx
  003bd	57		 push	 edi
  003be	8d 8d 28 ff ff
	ff		 lea	 ecx, DWORD PTR _EventItem$215367[ebp]
  003c4	e8 00 00 00 00	 call	 ?GetName@CItem@@QAEPADXZ ; CItem::GetName
  003c9	0f bf 96 46 01
	00 00		 movsx	 edx, WORD PTR [esi+326]
  003d0	0f b6 8e 49 01
	00 00		 movzx	 ecx, BYTE PTR [esi+329]
  003d7	50		 push	 eax
  003d8	0f bf 86 44 01
	00 00		 movsx	 eax, WORD PTR [esi+324]
  003df	52		 push	 edx
  003e0	50		 push	 eax
  003e1	51		 push	 ecx
  003e2	8d 56 77	 lea	 edx, DWORD PTR [esi+119]
  003e5	52		 push	 edx
  003e6	83 c6 6c	 add	 esi, 108		; 0000006cH
  003e9	56		 push	 esi
  003ea	68 00 00 00 00	 push	 OFFSET ??_C@_0GJ@EIOJOOBH@?$FL?$CFs?$FN?$FL?$CFs?$FN?$FLLucky?5Box?5Item?5Drop?$FN?$FLHe@
  003ef	ff 15 00 00 00
	00		 call	 DWORD PTR ?LogAddTD@@3P6AXPADZZA ; LogAddTD
  003f5	83 c4 30	 add	 esp, 48			; 00000030H
  003f8	5f		 pop	 edi
  003f9	5b		 pop	 ebx
  003fa	5e		 pop	 esi

; 675  : }

  003fb	8b 4d fc	 mov	 ecx, DWORD PTR __$ArrayPad$[ebp]
  003fe	33 cd		 xor	 ecx, ebp
  00400	e8 00 00 00 00	 call	 @__security_check_cookie@4
  00405	8b e5		 mov	 esp, ebp
  00407	5d		 pop	 ebp
  00408	c3		 ret	 0
$LN13@HeartOfLov:

; 667  : 
; 668  : 			return;
; 669  : 		}
; 670  : 	}
; 671  : 
; 672  : 	x = lpObj->X;
; 673  : 	y = lpObj->Y;
; 674  : 	MapC[lpObj->MapNumber].MoneyItemDrop(1004, x, y);

  00409	0f bf 86 46 01
	00 00		 movsx	 eax, WORD PTR [esi+326]
  00410	0f bf 8e 44 01
	00 00		 movsx	 ecx, WORD PTR [esi+324]
  00417	50		 push	 eax
  00418	51		 push	 ecx
  00419	0f b6 8e 49 01
	00 00		 movzx	 ecx, BYTE PTR [esi+329]
  00420	69 c9 48 3d 05
	00		 imul	 ecx, 343368		; 00053d48H
  00426	68 ec 03 00 00	 push	 1004			; 000003ecH
  0042b	81 c1 00 00 00
	00		 add	 ecx, OFFSET ?MapC@@3PAVMapClass@@A ; MapC
  00431	e8 00 00 00 00	 call	 ?MoneyItemDrop@MapClass@@QAEHHHH@Z ; MapClass::MoneyItemDrop
$LN16@HeartOfLov:

; 675  : }

  00436	8b 4d fc	 mov	 ecx, DWORD PTR __$ArrayPad$[ebp]
  00439	33 cd		 xor	 ecx, ebp
  0043b	5e		 pop	 esi
  0043c	e8 00 00 00 00	 call	 @__security_check_cookie@4
  00441	8b e5		 mov	 esp, ebp
  00443	5d		 pop	 ebp
  00444	c3		 ret	 0
?HeartOfLoveOpenEven@@YAXPAUOBJECTSTRUCT@@@Z ENDP	; HeartOfLoveOpenEven
_TEXT	ENDS
PUBLIC	??_C@_0GI@FPPGAGOE@?$FL?$CFs?$FN?$FL?$CFs?$FN?$FLLucky?5Box?5Item?5Drop?$FN?$FLFi@ ; `string'
PUBLIC	__$ArrayPad$
PUBLIC	?FireCrackerOpenEven@@YAXPAUOBJECTSTRUCT@@@Z	; FireCrackerOpenEven
EXTRN	?g_ItemDropRateForgFireCracker@@3HA:DWORD	; g_ItemDropRateForgFireCracker
EXTRN	?FireCrackerItemBag@@3PAVCItemBag@@A:DWORD	; FireCrackerItemBag
EXTRN	?gOnlyFireCrackerEffectUse@@3HA:DWORD		; gOnlyFireCrackerEffectUse
;	COMDAT ??_C@_0GI@FPPGAGOE@?$FL?$CFs?$FN?$FL?$CFs?$FN?$FLLucky?5Box?5Item?5Drop?$FN?$FLFi@
; File e:\work\tranet_version\gs\gameserver\itembag.h
CONST	SEGMENT
??_C@_0GI@FPPGAGOE@?$FL?$CFs?$FN?$FL?$CFs?$FN?$FLLucky?5Box?5Item?5Drop?$FN?$FLFi@ DB '['
	DB	'%s][%s][Lucky Box Item Drop][Fire Cracker] : (%d)(X:%d/Y:%d) '
	DB	'Item:%s(%d) Level:%d Op1:%d Op2:%d Op3:%d', 00H ; `string'
; Function compile flags: /Ogtp
; File e:\work\tranet_version\gs\gameserver\event.cpp
CONST	ENDS
;	COMDAT ?FireCrackerOpenEven@@YAXPAUOBJECTSTRUCT@@@Z
_TEXT	SEGMENT
_y$ = -252						; size = 4
_x$ = -248						; size = 4
_ServerCmd$215409 = -244				; size = 7
_DropItemNum$ = -236					; size = 4
_ServerCmd$215382 = -236				; size = 7
_Option2$ = -228					; size = 4
_level$ = -224						; size = 4
_Option3$ = -220					; size = 4
_EventItem$215413 = -216				; size = 212
__$ArrayPad$ = -4					; size = 4
_lpObj$ = 8						; size = 4
?FireCrackerOpenEven@@YAXPAUOBJECTSTRUCT@@@Z PROC	; FireCrackerOpenEven, COMDAT

; 678  : {

  00000	55		 push	 ebp
  00001	8b ec		 mov	 ebp, esp
  00003	81 ec fc 00 00
	00		 sub	 esp, 252		; 000000fcH
  00009	a1 00 00 00 00	 mov	 eax, DWORD PTR ___security_cookie
  0000e	33 c5		 xor	 eax, ebp
  00010	89 45 fc	 mov	 DWORD PTR __$ArrayPad$[ebp], eax

; 679  : 	float dur;
; 680  : 	int type;
; 681  : 	int level;
; 682  : 	int x;
; 683  : 	int y;
; 684  : 	int Option1=0;
; 685  : 	int Option2=0;
; 686  : 	int Option3=0;
; 687  : 	int DropItemNum;
; 688  : 
; 689  : 	if ( gOnlyFireCrackerEffectUse )

  00013	83 3d 00 00 00
	00 00		 cmp	 DWORD PTR ?gOnlyFireCrackerEffectUse@@3HA, 0 ; gOnlyFireCrackerEffectUse
  0001a	56		 push	 esi
  0001b	8b 75 08	 mov	 esi, DWORD PTR _lpObj$[ebp]
  0001e	c7 85 24 ff ff
	ff 00 00 00 00	 mov	 DWORD PTR _Option3$[ebp], 0
  00028	74 66		 je	 SHORT $LN16@FireCracke

; 690  : 	{
; 691  : 		PMSG_SERVERCMD ServerCmd;
; 692  : 
; 693  : 		PHeadSubSetB((LPBYTE)&ServerCmd, 0xF3, 0x40, sizeof(ServerCmd));

  0002a	6a 07		 push	 7
  0002c	6a 40		 push	 64			; 00000040H
  0002e	8d 85 14 ff ff
	ff		 lea	 eax, DWORD PTR _ServerCmd$215382[ebp]
  00034	68 f3 00 00 00	 push	 243			; 000000f3H
  00039	50		 push	 eax
  0003a	e8 00 00 00 00	 call	 ?PHeadSubSetB@@YAXPAEEEH@Z ; PHeadSubSetB

; 694  : 		ServerCmd.CmdType = 0;
; 695  : 		ServerCmd.X = lpObj->X;

  0003f	8a 8e 44 01 00
	00		 mov	 cl, BYTE PTR [esi+324]

; 696  : 		ServerCmd.Y = lpObj->Y;

  00045	8a 96 46 01 00
	00		 mov	 dl, BYTE PTR [esi+326]

; 697  : 
; 698  : 		MsgSendV2(lpObj, (LPBYTE)&ServerCmd, sizeof(ServerCmd));

  0004b	6a 07		 push	 7
  0004d	8d 85 14 ff ff
	ff		 lea	 eax, DWORD PTR _ServerCmd$215382[ebp]
  00053	50		 push	 eax
  00054	56		 push	 esi
  00055	c6 85 18 ff ff
	ff 00		 mov	 BYTE PTR _ServerCmd$215382[ebp+4], 0
  0005c	88 8d 19 ff ff
	ff		 mov	 BYTE PTR _ServerCmd$215382[ebp+5], cl
  00062	88 95 1a ff ff
	ff		 mov	 BYTE PTR _ServerCmd$215382[ebp+6], dl
  00068	e8 00 00 00 00	 call	 ?MsgSendV2@@YAXPAUOBJECTSTRUCT@@PAEH@Z ; MsgSendV2

; 699  : 		DataSend(lpObj->m_Index, (LPBYTE)&ServerCmd, sizeof(ServerCmd));

  0006d	8b 16		 mov	 edx, DWORD PTR [esi]
  0006f	6a 07		 push	 7
  00071	8d 8d 14 ff ff
	ff		 lea	 ecx, DWORD PTR _ServerCmd$215382[ebp]
  00077	51		 push	 ecx
  00078	52		 push	 edx
  00079	e8 00 00 00 00	 call	 ?DataSend@@YAHHPAEK@Z	; DataSend
  0007e	83 c4 28	 add	 esp, 40			; 00000028H
  00081	5e		 pop	 esi

; 820  : }

  00082	8b 4d fc	 mov	 ecx, DWORD PTR __$ArrayPad$[ebp]
  00085	33 cd		 xor	 ecx, ebp
  00087	e8 00 00 00 00	 call	 @__security_check_cookie@4
  0008c	8b e5		 mov	 esp, ebp
  0008e	5d		 pop	 ebp
  0008f	c3		 ret	 0
$LN16@FireCracke:

; 700  : 
; 701  : 		return;
; 702  : 	}
; 703  : 
; 704  : 	if ( !FireCrackerItemBag )

  00090	a1 00 00 00 00	 mov	 eax, DWORD PTR ?FireCrackerItemBag@@3PAVCItemBag@@A ; FireCrackerItemBag
  00095	85 c0		 test	 eax, eax
  00097	0f 84 08 04 00
	00		 je	 $LN17@FireCracke

; 705  : 		return;
; 706  : 
; 707  : 	if ( FireCrackerItemBag->GetBagCount() > 0 )

  0009d	83 b8 88 03 00
	00 00		 cmp	 DWORD PTR [eax+904], 0
  000a4	0f 8e ce 03 00
	00		 jle	 $LN13@FireCracke

; 708  : 	{
; 709  : 		if ( (rand()%10) < g_ItemDropRateForgFireCracker )

  000aa	e8 00 00 00 00	 call	 _rand
  000af	99		 cdq
  000b0	b9 0a 00 00 00	 mov	 ecx, 10			; 0000000aH
  000b5	f7 f9		 idiv	 ecx
  000b7	3b 15 00 00 00
	00		 cmp	 edx, DWORD PTR ?g_ItemDropRateForgFireCracker@@3HA ; g_ItemDropRateForgFireCracker
  000bd	0f 8d b5 03 00
	00		 jge	 $LN13@FireCracke

; 710  : 		{
; 711  : 			DropItemNum = rand()%FireCrackerItemBag->GetBagCount();

  000c3	8b 15 00 00 00
	00		 mov	 edx, DWORD PTR ?FireCrackerItemBag@@3PAVCItemBag@@A ; FireCrackerItemBag
  000c9	53		 push	 ebx
  000ca	57		 push	 edi
  000cb	8b ba 88 03 00
	00		 mov	 edi, DWORD PTR [edx+904]
  000d1	e8 00 00 00 00	 call	 _rand
  000d6	99		 cdq
  000d7	f7 ff		 idiv	 edi

; 712  : 			dur=0;
; 713  : 			x = lpObj->X;
; 714  : 			y = lpObj->Y;
; 715  : 			
; 716  : 			if ( gLanguage == 0 )

  000d9	83 3d 00 00 00
	00 00		 cmp	 DWORD PTR ?gLanguage@@3HA, 0 ; gLanguage
  000e0	0f bf 8e 46 01
	00 00		 movsx	 ecx, WORD PTR [esi+326]
  000e7	0f bf 86 44 01
	00 00		 movsx	 eax, WORD PTR [esi+324]
  000ee	89 8d 04 ff ff
	ff		 mov	 DWORD PTR _y$[ebp], ecx

; 717  : 			{
; 718  : 				level = FireCrackerItemBag->GetLevel(DropItemNum) + rand()%2;

  000f4	8b 0d 00 00 00
	00		 mov	 ecx, DWORD PTR ?FireCrackerItemBag@@3PAVCItemBag@@A ; FireCrackerItemBag
  000fa	89 85 08 ff ff
	ff		 mov	 DWORD PTR _x$[ebp], eax
  00100	8b fa		 mov	 edi, edx
  00102	89 bd 14 ff ff
	ff		 mov	 DWORD PTR _DropItemNum$[ebp], edi
  00108	57		 push	 edi
  00109	75 23		 jne	 SHORT $LN12@FireCracke
  0010b	e8 00 00 00 00	 call	 ?GetLevel@CItemBag@@QAEEH@Z ; CItemBag::GetLevel
  00110	0f b6 d8	 movzx	 ebx, al
  00113	e8 00 00 00 00	 call	 _rand
  00118	25 01 00 00 80	 and	 eax, -2147483647	; 80000001H
  0011d	79 05		 jns	 SHORT $LN26@FireCracke
  0011f	48		 dec	 eax
  00120	83 c8 fe	 or	 eax, -2			; fffffffeH
  00123	40		 inc	 eax
$LN26@FireCracke:
  00124	03 c3		 add	 eax, ebx
  00126	89 85 20 ff ff
	ff		 mov	 DWORD PTR _level$[ebp], eax

; 719  : 			}
; 720  : 			else

  0012c	eb 1d		 jmp	 SHORT $LN11@FireCracke
$LN12@FireCracke:

; 721  : 			{
; 722  : 				level = FireCrackerItemBag->GetLevel(DropItemNum) + rand()%5;

  0012e	e8 00 00 00 00	 call	 ?GetLevel@CItemBag@@QAEEH@Z ; CItemBag::GetLevel
  00133	0f b6 d8	 movzx	 ebx, al
  00136	e8 00 00 00 00	 call	 _rand
  0013b	99		 cdq
  0013c	b9 05 00 00 00	 mov	 ecx, 5
  00141	f7 f9		 idiv	 ecx
  00143	03 d3		 add	 edx, ebx
  00145	89 95 20 ff ff
	ff		 mov	 DWORD PTR _level$[ebp], edx
$LN11@FireCracke:

; 723  : 			}
; 724  : 			
; 725  : 			type = ItemGetNumberMake(FireCrackerItemBag->GetType(DropItemNum), FireCrackerItemBag->GetIndex(DropItemNum));

  0014b	8b 0d 00 00 00
	00		 mov	 ecx, DWORD PTR ?FireCrackerItemBag@@3PAVCItemBag@@A ; FireCrackerItemBag
  00151	57		 push	 edi
  00152	e8 00 00 00 00	 call	 ?GetIndex@CItemBag@@QAEEH@Z ; CItemBag::GetIndex
  00157	8b 0d 00 00 00
	00		 mov	 ecx, DWORD PTR ?FireCrackerItemBag@@3PAVCItemBag@@A ; FireCrackerItemBag
  0015d	0f b6 d0	 movzx	 edx, al
  00160	52		 push	 edx
  00161	57		 push	 edi
  00162	e8 00 00 00 00	 call	 ?GetType@CItemBag@@QAEEH@Z ; CItemBag::GetType
  00167	0f b6 c0	 movzx	 eax, al
  0016a	50		 push	 eax
  0016b	e8 00 00 00 00	 call	 ?ItemGetNumberMake@@YAHHH@Z ; ItemGetNumberMake
  00170	83 c4 08	 add	 esp, 8
  00173	8b f8		 mov	 edi, eax

; 726  : 			Option1 = rand()%2;

  00175	e8 00 00 00 00	 call	 _rand
  0017a	8b d8		 mov	 ebx, eax
  0017c	81 e3 01 00 00
	80		 and	 ebx, -2147483647	; 80000001H
  00182	79 05		 jns	 SHORT $LN27@FireCracke
  00184	4b		 dec	 ebx
  00185	83 cb fe	 or	 ebx, -2			; fffffffeH
  00188	43		 inc	 ebx
$LN27@FireCracke:

; 727  : 			Option2 = rand()%2;

  00189	e8 00 00 00 00	 call	 _rand
  0018e	25 01 00 00 80	 and	 eax, -2147483647	; 80000001H
  00193	79 05		 jns	 SHORT $LN28@FireCracke
  00195	48		 dec	 eax
  00196	83 c8 fe	 or	 eax, -2			; fffffffeH
  00199	40		 inc	 eax
$LN28@FireCracke:
  0019a	89 85 1c ff ff
	ff		 mov	 DWORD PTR _Option2$[ebp], eax

; 728  : 
; 729  : 			if ( !Option2 || !Option1 )

  001a0	74 06		 je	 SHORT $LN9@FireCracke
  001a2	33 c9		 xor	 ecx, ecx
  001a4	3b d9		 cmp	 ebx, ecx
  001a6	75 33		 jne	 SHORT $LN24@FireCracke
$LN9@FireCracke:

; 730  : 			{
; 731  : 				if ( (rand()%5) <1 )

  001a8	e8 00 00 00 00	 call	 _rand
  001ad	99		 cdq
  001ae	b9 05 00 00 00	 mov	 ecx, 5
  001b3	f7 f9		 idiv	 ecx
  001b5	83 fa 01	 cmp	 edx, 1
  001b8	7d 0c		 jge	 SHORT $LN8@FireCracke

; 732  : 					Option3 = 3;

  001ba	c7 85 24 ff ff
	ff 03 00 00 00	 mov	 DWORD PTR _Option3$[ebp], 3

; 733  : 				else

  001c4	eb 13		 jmp	 SHORT $LN29@FireCracke
$LN8@FireCracke:

; 734  : 					Option3 = rand()%3;

  001c6	e8 00 00 00 00	 call	 _rand
  001cb	99		 cdq
  001cc	b9 03 00 00 00	 mov	 ecx, 3
  001d1	f7 f9		 idiv	 ecx
  001d3	89 95 24 ff ff
	ff		 mov	 DWORD PTR _Option3$[ebp], edx
$LN29@FireCracke:
  001d9	33 c9		 xor	 ecx, ecx
$LN24@FireCracke:

; 735  : 			}
; 736  : 
; 737  : 			if ( type == ITEMGET(12,15) ||
; 738  : 				 type == ITEMGET(14,13) ||
; 739  : 				 type == ITEMGET(14,14) ||
; 740  : 				 type == ITEMGET(14,14) ||
; 741  : 				 type == ITEMGET(14,16)	||
; 742  : 				 type == ITEMGET(14,22)	||
; 743  : 				 type == ITEMGET(14,31)	||
; 744  : 				 type == ITEMGET(14,41)	||
; 745  : 				 type == ITEMGET(14,42)	||
; 746  : 				 type == ITEMGET(14,180)||
; 747  : 				 type == ITEMGET(14,181)||
; 748  : 				 type == ITEMGET(14,182)||
; 749  : 				 type == ITEMGET(14,183)||
; 750  : 				 type == ITEMGET(14,184)||
; 751  : 				 type == ITEMGET(14,185)||
; 752  : 				 type == ITEMGET(14,186)||
; 753  : 				 type == ITEMGET(14,187)||
; 754  : 				 type == ITEMGET(14,190)||
; 755  : 				 type == ITEMGET(14,43) ||
; 756  : 				 type == ITEMGET(14,44) )

  001db	81 ff 0f 18 00
	00		 cmp	 edi, 6159		; 0000180fH
  001e1	0f 84 98 00 00
	00		 je	 $LN5@FireCracke
  001e7	81 ff 0d 1c 00
	00		 cmp	 edi, 7181		; 00001c0dH
  001ed	0f 84 8c 00 00
	00		 je	 $LN5@FireCracke
  001f3	81 ff 0e 1c 00
	00		 cmp	 edi, 7182		; 00001c0eH
  001f9	0f 84 80 00 00
	00		 je	 $LN5@FireCracke
  001ff	81 ff 10 1c 00
	00		 cmp	 edi, 7184		; 00001c10H
  00205	74 78		 je	 SHORT $LN5@FireCracke
  00207	81 ff 16 1c 00
	00		 cmp	 edi, 7190		; 00001c16H
  0020d	74 70		 je	 SHORT $LN5@FireCracke
  0020f	81 ff 1f 1c 00
	00		 cmp	 edi, 7199		; 00001c1fH
  00215	74 68		 je	 SHORT $LN5@FireCracke
  00217	81 ff 29 1c 00
	00		 cmp	 edi, 7209		; 00001c29H
  0021d	74 60		 je	 SHORT $LN5@FireCracke
  0021f	81 ff 2a 1c 00
	00		 cmp	 edi, 7210		; 00001c2aH
  00225	74 58		 je	 SHORT $LN5@FireCracke
  00227	81 ff b4 1c 00
	00		 cmp	 edi, 7348		; 00001cb4H
  0022d	74 50		 je	 SHORT $LN5@FireCracke
  0022f	81 ff b5 1c 00
	00		 cmp	 edi, 7349		; 00001cb5H
  00235	74 48		 je	 SHORT $LN5@FireCracke
  00237	81 ff b6 1c 00
	00		 cmp	 edi, 7350		; 00001cb6H
  0023d	74 40		 je	 SHORT $LN5@FireCracke
  0023f	81 ff b7 1c 00
	00		 cmp	 edi, 7351		; 00001cb7H
  00245	74 38		 je	 SHORT $LN5@FireCracke
  00247	81 ff b8 1c 00
	00		 cmp	 edi, 7352		; 00001cb8H
  0024d	74 30		 je	 SHORT $LN5@FireCracke
  0024f	81 ff b9 1c 00
	00		 cmp	 edi, 7353		; 00001cb9H
  00255	74 28		 je	 SHORT $LN5@FireCracke
  00257	81 ff ba 1c 00
	00		 cmp	 edi, 7354		; 00001cbaH
  0025d	74 20		 je	 SHORT $LN5@FireCracke
  0025f	81 ff bb 1c 00
	00		 cmp	 edi, 7355		; 00001cbbH
  00265	74 18		 je	 SHORT $LN5@FireCracke
  00267	81 ff be 1c 00
	00		 cmp	 edi, 7358		; 00001cbeH
  0026d	74 10		 je	 SHORT $LN5@FireCracke
  0026f	81 ff 2b 1c 00
	00		 cmp	 edi, 7211		; 00001c2bH
  00275	74 08		 je	 SHORT $LN5@FireCracke
  00277	81 ff 2c 1c 00
	00		 cmp	 edi, 7212		; 00001c2cH
  0027d	75 14		 jne	 SHORT $LN25@FireCracke
$LN5@FireCracke:

; 757  : 			{
; 758  : 				Option1 = 0;

  0027f	33 db		 xor	 ebx, ebx

; 759  : 				Option2 = 0;

  00281	89 8d 1c ff ff
	ff		 mov	 DWORD PTR _Option2$[ebp], ecx

; 760  : 				Option3 = 0;

  00287	89 8d 24 ff ff
	ff		 mov	 DWORD PTR _Option3$[ebp], ecx

; 761  : 				level = 0;

  0028d	89 8d 20 ff ff
	ff		 mov	 DWORD PTR _level$[ebp], ecx
$LN25@FireCracke:

; 762  : 			}
; 763  : 
; 764  : 			if ( type == ITEMGET(12,30)	||
; 765  : 				 type == ITEMGET(12,31)	||
; 766  : 				 type == ITEMGET(12,136)||
; 767  : 				 type == ITEMGET(12,137)||
; 768  : 				 type == ITEMGET(12,138)||
; 769  : 				 type == ITEMGET(12,139)||
; 770  : 				 type == ITEMGET(12,140)||
; 771  : 				 type == ITEMGET(12,141)||
; 772  : 				 type == ITEMGET(12,142)||
; 773  : 				 type == ITEMGET(12,143))

  00293	81 ff 1e 18 00
	00		 cmp	 edi, 6174		; 0000181eH
  00299	74 48		 je	 SHORT $LN3@FireCracke
  0029b	81 ff 1f 18 00
	00		 cmp	 edi, 6175		; 0000181fH
  002a1	74 40		 je	 SHORT $LN3@FireCracke
  002a3	81 ff 88 18 00
	00		 cmp	 edi, 6280		; 00001888H
  002a9	74 38		 je	 SHORT $LN3@FireCracke
  002ab	81 ff 89 18 00
	00		 cmp	 edi, 6281		; 00001889H
  002b1	74 30		 je	 SHORT $LN3@FireCracke
  002b3	81 ff 8a 18 00
	00		 cmp	 edi, 6282		; 0000188aH
  002b9	74 28		 je	 SHORT $LN3@FireCracke
  002bb	81 ff 8b 18 00
	00		 cmp	 edi, 6283		; 0000188bH
  002c1	74 20		 je	 SHORT $LN3@FireCracke
  002c3	81 ff 8c 18 00
	00		 cmp	 edi, 6284		; 0000188cH
  002c9	74 18		 je	 SHORT $LN3@FireCracke
  002cb	81 ff 8d 18 00
	00		 cmp	 edi, 6285		; 0000188dH
  002d1	74 10		 je	 SHORT $LN3@FireCracke
  002d3	81 ff 8e 18 00
	00		 cmp	 edi, 6286		; 0000188eH
  002d9	74 08		 je	 SHORT $LN3@FireCracke
  002db	81 ff 8f 18 00
	00		 cmp	 edi, 6287		; 0000188fH
  002e1	75 2b		 jne	 SHORT $LN4@FireCracke
$LN3@FireCracke:

; 774  : 			{
; 775  : 				Option1 = 0;
; 776  : 				Option2 = 0;
; 777  : 				Option3 = 0;
; 778  : 				level = FireCrackerItemBag->GetLevel(DropItemNum);

  002e3	8b 95 14 ff ff
	ff		 mov	 edx, DWORD PTR _DropItemNum$[ebp]
  002e9	89 8d 1c ff ff
	ff		 mov	 DWORD PTR _Option2$[ebp], ecx
  002ef	89 8d 24 ff ff
	ff		 mov	 DWORD PTR _Option3$[ebp], ecx
  002f5	8b 0d 00 00 00
	00		 mov	 ecx, DWORD PTR ?FireCrackerItemBag@@3PAVCItemBag@@A ; FireCrackerItemBag
  002fb	52		 push	 edx
  002fc	33 db		 xor	 ebx, ebx
  002fe	e8 00 00 00 00	 call	 ?GetLevel@CItemBag@@QAEEH@Z ; CItemBag::GetLevel
  00303	0f b6 c0	 movzx	 eax, al
  00306	89 85 20 ff ff
	ff		 mov	 DWORD PTR _level$[ebp], eax
  0030c	33 c9		 xor	 ecx, ecx
$LN4@FireCracke:

; 779  : 			}
; 780  : 
; 781  : 			if ( type == ITEMGET(13,0) ||
; 782  : 				 type == ITEMGET(13,1) ||
; 783  : 				 type == ITEMGET(13,2) ||
; 784  : 				 type == ITEMGET(13,8) ||
; 785  : 				 type == ITEMGET(13,9) ||
; 786  : 				 type == ITEMGET(13,12) ||
; 787  : 				 type == ITEMGET(13,13) )

  0030e	81 ff 00 1a 00
	00		 cmp	 edi, 6656		; 00001a00H
  00314	74 30		 je	 SHORT $LN1@FireCracke
  00316	81 ff 01 1a 00
	00		 cmp	 edi, 6657		; 00001a01H
  0031c	74 28		 je	 SHORT $LN1@FireCracke
  0031e	81 ff 02 1a 00
	00		 cmp	 edi, 6658		; 00001a02H
  00324	74 20		 je	 SHORT $LN1@FireCracke
  00326	81 ff 08 1a 00
	00		 cmp	 edi, 6664		; 00001a08H
  0032c	74 18		 je	 SHORT $LN1@FireCracke
  0032e	81 ff 09 1a 00
	00		 cmp	 edi, 6665		; 00001a09H
  00334	74 10		 je	 SHORT $LN1@FireCracke
  00336	81 ff 0c 1a 00
	00		 cmp	 edi, 6668		; 00001a0cH
  0033c	74 08		 je	 SHORT $LN1@FireCracke
  0033e	81 ff 0d 1a 00
	00		 cmp	 edi, 6669		; 00001a0dH
  00344	75 06		 jne	 SHORT $LN2@FireCracke
$LN1@FireCracke:

; 788  : 			{
; 789  : 				level = 0;

  00346	89 8d 20 ff ff
	ff		 mov	 DWORD PTR _level$[ebp], ecx
$LN2@FireCracke:

; 790  : 			}
; 791  : 
; 792  : 			ItemSerialCreateSend(lpObj->m_Index, (BYTE)lpObj->MapNumber, (BYTE)x, (BYTE)y, type, (BYTE)level, (BYTE)dur,
; 793  : 				(BYTE)Option1, (BYTE)Option2, (BYTE)Option3, lpObj->m_Index, 0, 0);

  0034c	8b 06		 mov	 eax, DWORD PTR [esi]
  0034e	8b 95 24 ff ff
	ff		 mov	 edx, DWORD PTR _Option3$[ebp]
  00354	51		 push	 ecx
  00355	51		 push	 ecx
  00356	50		 push	 eax
  00357	52		 push	 edx
  00358	8b 95 1c ff ff
	ff		 mov	 edx, DWORD PTR _Option2$[ebp]
  0035e	52		 push	 edx
  0035f	8b 95 04 ff ff
	ff		 mov	 edx, DWORD PTR _y$[ebp]
  00365	53		 push	 ebx
  00366	51		 push	 ecx
  00367	8b 8d 20 ff ff
	ff		 mov	 ecx, DWORD PTR _level$[ebp]
  0036d	51		 push	 ecx
  0036e	8b 8d 08 ff ff
	ff		 mov	 ecx, DWORD PTR _x$[ebp]
  00374	57		 push	 edi
  00375	52		 push	 edx
  00376	0f b6 96 49 01
	00 00		 movzx	 edx, BYTE PTR [esi+329]
  0037d	51		 push	 ecx
  0037e	52		 push	 edx
  0037f	50		 push	 eax
  00380	e8 00 00 00 00	 call	 ?ItemSerialCreateSend@@YAXHEEEHEEEEEHEE@Z ; ItemSerialCreateSend

; 794  : 
; 795  : 			PMSG_SERVERCMD ServerCmd;
; 796  : 
; 797  : 			PHeadSubSetB((LPBYTE)&ServerCmd, 0xF3, 0x40, sizeof(ServerCmd));

  00385	6a 07		 push	 7
  00387	6a 40		 push	 64			; 00000040H
  00389	8d 85 0c ff ff
	ff		 lea	 eax, DWORD PTR _ServerCmd$215409[ebp]
  0038f	68 f3 00 00 00	 push	 243			; 000000f3H
  00394	50		 push	 eax
  00395	e8 00 00 00 00	 call	 ?PHeadSubSetB@@YAXPAEEEH@Z ; PHeadSubSetB

; 798  : 			ServerCmd.CmdType = 0;
; 799  : 			ServerCmd.X = x;

  0039a	8a 8d 08 ff ff
	ff		 mov	 cl, BYTE PTR _x$[ebp]

; 800  : 			ServerCmd.Y = y;

  003a0	8a 95 04 ff ff
	ff		 mov	 dl, BYTE PTR _y$[ebp]
  003a6	83 c4 44	 add	 esp, 68			; 00000044H

; 801  : 
; 802  : 			MsgSendV2(lpObj, (LPBYTE)&ServerCmd, sizeof(ServerCmd));

  003a9	6a 07		 push	 7
  003ab	8d 85 0c ff ff
	ff		 lea	 eax, DWORD PTR _ServerCmd$215409[ebp]
  003b1	50		 push	 eax
  003b2	56		 push	 esi
  003b3	c6 85 10 ff ff
	ff 00		 mov	 BYTE PTR _ServerCmd$215409[ebp+4], 0
  003ba	88 8d 11 ff ff
	ff		 mov	 BYTE PTR _ServerCmd$215409[ebp+5], cl
  003c0	88 95 12 ff ff
	ff		 mov	 BYTE PTR _ServerCmd$215409[ebp+6], dl
  003c6	e8 00 00 00 00	 call	 ?MsgSendV2@@YAXPAUOBJECTSTRUCT@@PAEH@Z ; MsgSendV2

; 803  : 			DataSend(lpObj->m_Index, (LPBYTE)&ServerCmd, sizeof(ServerCmd));

  003cb	8b 16		 mov	 edx, DWORD PTR [esi]
  003cd	6a 07		 push	 7
  003cf	8d 8d 0c ff ff
	ff		 lea	 ecx, DWORD PTR _ServerCmd$215409[ebp]
  003d5	51		 push	 ecx
  003d6	52		 push	 edx
  003d7	e8 00 00 00 00	 call	 ?DataSend@@YAHHPAEK@Z	; DataSend
  003dc	83 c4 18	 add	 esp, 24			; 00000018H

; 804  : 
; 805  : 			CItem EventItem;

  003df	8d 8d 28 ff ff
	ff		 lea	 ecx, DWORD PTR _EventItem$215413[ebp]
  003e5	e8 00 00 00 00	 call	 ??0CItem@@QAE@XZ	; CItem::CItem

; 806  : 
; 807  : 			EventItem.Convert(type, Option1, Option2, Option3, 0, 1, 0, NULL, 0xFF, 0, 3);

  003ea	8b 85 24 ff ff
	ff		 mov	 eax, DWORD PTR _Option3$[ebp]
  003f0	8b 8d 1c ff ff
	ff		 mov	 ecx, DWORD PTR _Option2$[ebp]
  003f6	6a 03		 push	 3
  003f8	6a 00		 push	 0
  003fa	68 ff 00 00 00	 push	 255			; 000000ffH
  003ff	6a 00		 push	 0
  00401	6a 00		 push	 0
  00403	6a 01		 push	 1
  00405	6a 00		 push	 0
  00407	50		 push	 eax
  00408	51		 push	 ecx
  00409	53		 push	 ebx
  0040a	57		 push	 edi
  0040b	8d 8d 28 ff ff
	ff		 lea	 ecx, DWORD PTR _EventItem$215413[ebp]
  00411	e8 00 00 00 00	 call	 ?Convert@CItem@@QAEXHEEEEEEPAEEEE@Z ; CItem::Convert

; 808  : 
; 809  : 			LogAddTD("[%s][%s][Lucky Box Item Drop][Fire Cracker] : (%d)(X:%d/Y:%d) Item:%s(%d) Level:%d Op1:%d Op2:%d Op3:%d",
; 810  : 				lpObj->AccountID, lpObj->Name, lpObj->MapNumber, lpObj->X, lpObj->Y, EventItem.GetName(),
; 811  : 				type, level, Option1, Option2, Option3);

  00416	8b 95 24 ff ff
	ff		 mov	 edx, DWORD PTR _Option3$[ebp]
  0041c	8b 85 1c ff ff
	ff		 mov	 eax, DWORD PTR _Option2$[ebp]
  00422	8b 8d 20 ff ff
	ff		 mov	 ecx, DWORD PTR _level$[ebp]
  00428	52		 push	 edx
  00429	50		 push	 eax
  0042a	53		 push	 ebx
  0042b	51		 push	 ecx
  0042c	57		 push	 edi
  0042d	8d 8d 28 ff ff
	ff		 lea	 ecx, DWORD PTR _EventItem$215413[ebp]
  00433	e8 00 00 00 00	 call	 ?GetName@CItem@@QAEPADXZ ; CItem::GetName
  00438	0f bf 96 46 01
	00 00		 movsx	 edx, WORD PTR [esi+326]
  0043f	0f b6 8e 49 01
	00 00		 movzx	 ecx, BYTE PTR [esi+329]
  00446	50		 push	 eax
  00447	0f bf 86 44 01
	00 00		 movsx	 eax, WORD PTR [esi+324]
  0044e	52		 push	 edx
  0044f	50		 push	 eax
  00450	51		 push	 ecx
  00451	8d 56 77	 lea	 edx, DWORD PTR [esi+119]
  00454	52		 push	 edx
  00455	83 c6 6c	 add	 esi, 108		; 0000006cH
  00458	56		 push	 esi
  00459	68 00 00 00 00	 push	 OFFSET ??_C@_0GI@FPPGAGOE@?$FL?$CFs?$FN?$FL?$CFs?$FN?$FLLucky?5Box?5Item?5Drop?$FN?$FLFi@
  0045e	ff 15 00 00 00
	00		 call	 DWORD PTR ?LogAddTD@@3P6AXPADZZA ; LogAddTD
  00464	83 c4 30	 add	 esp, 48			; 00000030H
  00467	5f		 pop	 edi
  00468	5b		 pop	 ebx
  00469	5e		 pop	 esi

; 820  : }

  0046a	8b 4d fc	 mov	 ecx, DWORD PTR __$ArrayPad$[ebp]
  0046d	33 cd		 xor	 ecx, ebp
  0046f	e8 00 00 00 00	 call	 @__security_check_cookie@4
  00474	8b e5		 mov	 esp, ebp
  00476	5d		 pop	 ebp
  00477	c3		 ret	 0
$LN13@FireCracke:

; 812  : 
; 813  : 			return;
; 814  : 		}
; 815  : 	}
; 816  : 
; 817  : 	x = lpObj->X;
; 818  : 	y = lpObj->Y;
; 819  : 	MapC[lpObj->MapNumber].MoneyItemDrop(2004, x, y);

  00478	0f bf 86 46 01
	00 00		 movsx	 eax, WORD PTR [esi+326]
  0047f	0f bf 8e 44 01
	00 00		 movsx	 ecx, WORD PTR [esi+324]
  00486	50		 push	 eax
  00487	51		 push	 ecx
  00488	0f b6 8e 49 01
	00 00		 movzx	 ecx, BYTE PTR [esi+329]
  0048f	69 c9 48 3d 05
	00		 imul	 ecx, 343368		; 00053d48H
  00495	68 d4 07 00 00	 push	 2004			; 000007d4H
  0049a	81 c1 00 00 00
	00		 add	 ecx, OFFSET ?MapC@@3PAVMapClass@@A ; MapC
  004a0	e8 00 00 00 00	 call	 ?MoneyItemDrop@MapClass@@QAEHHHH@Z ; MapClass::MoneyItemDrop
$LN17@FireCracke:

; 820  : }

  004a5	8b 4d fc	 mov	 ecx, DWORD PTR __$ArrayPad$[ebp]
  004a8	33 cd		 xor	 ecx, ebp
  004aa	5e		 pop	 esi
  004ab	e8 00 00 00 00	 call	 @__security_check_cookie@4
  004b0	8b e5		 mov	 esp, ebp
  004b2	5d		 pop	 ebp
  004b3	c3		 ret	 0
?FireCrackerOpenEven@@YAXPAUOBJECTSTRUCT@@@Z ENDP	; FireCrackerOpenEven
_TEXT	ENDS
PUBLIC	?StarOfXMasOpenEven@@YAXPAUOBJECTSTRUCT@@@Z	; StarOfXMasOpenEven
EXTRN	?DropItem@CItemBagZt@@QAEHH@Z:PROC		; CItemBagZt::DropItem
EXTRN	?StarOfXMasItemBag@@3PAVCItemBagZt@@A:DWORD	; StarOfXMasItemBag
; Function compile flags: /Ogtp
;	COMDAT ?StarOfXMasOpenEven@@YAXPAUOBJECTSTRUCT@@@Z
_TEXT	SEGMENT
_lpObj$ = 8						; size = 4
?StarOfXMasOpenEven@@YAXPAUOBJECTSTRUCT@@@Z PROC	; StarOfXMasOpenEven, COMDAT

; 823  : {

  00000	55		 push	 ebp
  00001	8b ec		 mov	 ebp, esp

; 824  : 	StarOfXMasItemBag->DropItem(lpObj->m_Index);

  00003	8b 45 08	 mov	 eax, DWORD PTR _lpObj$[ebp]
  00006	8b 08		 mov	 ecx, DWORD PTR [eax]
  00008	51		 push	 ecx
  00009	8b 0d 00 00 00
	00		 mov	 ecx, DWORD PTR ?StarOfXMasItemBag@@3PAVCItemBagZt@@A ; StarOfXMasItemBag
  0000f	e8 00 00 00 00	 call	 ?DropItem@CItemBagZt@@QAEHH@Z ; CItemBagZt::DropItem

; 825  : }

  00014	5d		 pop	 ebp
  00015	c3		 ret	 0
?StarOfXMasOpenEven@@YAXPAUOBJECTSTRUCT@@@Z ENDP	; StarOfXMasOpenEven
_TEXT	ENDS
PUBLIC	??_C@_0FD@OFINJAAJ@?$FL?$CFs?$FN?$FL?$CFs?$FN?$FLRing?5Event?$FN?$CI?$CFd?0?$CFd?0?$CFd?$CJ?5I@ ; `string'
PUBLIC	__$ArrayPad$
PUBLIC	?RingEventItemBoxOpen@@YAXPAUOBJECTSTRUCT@@@Z	; RingEventItemBoxOpen
EXTRN	?RingEventItemBag@@3PAVCItemBag@@A:DWORD	; RingEventItemBag
;	COMDAT ??_C@_0FD@OFINJAAJ@?$FL?$CFs?$FN?$FL?$CFs?$FN?$FLRing?5Event?$FN?$CI?$CFd?0?$CFd?0?$CFd?$CJ?5I@
; File e:\work\tranet_version\gs\gameserver\itembag.h
CONST	SEGMENT
??_C@_0FD@OFINJAAJ@?$FL?$CFs?$FN?$FL?$CFs?$FN?$FLRing?5Event?$FN?$CI?$CFd?0?$CFd?0?$CFd?$CJ?5I@ DB '['
	DB	'%s][%s][Ring Event](%d,%d,%d) ItemDrop : Item:%s %d Level:%d '
	DB	'op1:%d op2:%d op3:%d', 00H			; `string'
; Function compile flags: /Ogtp
; File e:\work\tranet_version\gs\gameserver\event.cpp
CONST	ENDS
;	COMDAT ?RingEventItemBoxOpen@@YAXPAUOBJECTSTRUCT@@@Z
_TEXT	SEGMENT
_y$ = -240						; size = 4
_x$ = -236						; size = 4
_DropItemNum$ = -232					; size = 4
_Option1$ = -228					; size = 4
_Option3$ = -224					; size = 4
_level$ = -220						; size = 4
_EventItem$215455 = -216				; size = 212
__$ArrayPad$ = -4					; size = 4
_lpObj$ = 8						; size = 4
?RingEventItemBoxOpen@@YAXPAUOBJECTSTRUCT@@@Z PROC	; RingEventItemBoxOpen, COMDAT

; 828  : {

  00000	55		 push	 ebp
  00001	8b ec		 mov	 ebp, esp
  00003	81 ec f0 00 00
	00		 sub	 esp, 240		; 000000f0H
  00009	a1 00 00 00 00	 mov	 eax, DWORD PTR ___security_cookie
  0000e	33 c5		 xor	 eax, ebp
  00010	89 45 fc	 mov	 DWORD PTR __$ArrayPad$[ebp], eax

; 829  : 	float dur;
; 830  : 	int type;
; 831  : 	int level;
; 832  : 	int x;
; 833  : 	int y;
; 834  : 	int Option1=0;
; 835  : 	int Option2=0;
; 836  : 	int Option3=0;
; 837  : 	int DropItemNum;
; 838  : 
; 839  : 	if ( RingEventItemBag->GetBagCount() > 0 )

  00013	a1 00 00 00 00	 mov	 eax, DWORD PTR ?RingEventItemBag@@3PAVCItemBag@@A ; RingEventItemBag
  00018	83 b8 88 03 00
	00 00		 cmp	 DWORD PTR [eax+904], 0
  0001f	56		 push	 esi
  00020	8b 75 08	 mov	 esi, DWORD PTR _lpObj$[ebp]
  00023	0f 8e 53 03 00
	00		 jle	 $LN15@RingEventI

; 840  : 	{
; 841  : 		if ( (rand()%10) < 9 )

  00029	e8 00 00 00 00	 call	 _rand
  0002e	99		 cdq
  0002f	b9 0a 00 00 00	 mov	 ecx, 10			; 0000000aH
  00034	f7 f9		 idiv	 ecx
  00036	83 fa 09	 cmp	 edx, 9
  00039	0f 8d 3d 03 00
	00		 jge	 $LN15@RingEventI

; 842  : 		{
; 843  : 			DropItemNum = rand()%RingEventItemBag->GetBagCount();

  0003f	8b 15 00 00 00
	00		 mov	 edx, DWORD PTR ?RingEventItemBag@@3PAVCItemBag@@A ; RingEventItemBag
  00045	53		 push	 ebx
  00046	57		 push	 edi
  00047	8b ba 88 03 00
	00		 mov	 edi, DWORD PTR [edx+904]
  0004d	e8 00 00 00 00	 call	 _rand
  00052	99		 cdq
  00053	f7 ff		 idiv	 edi

; 844  : 			dur=0;
; 845  : 			x = lpObj->X;

  00055	0f bf 86 44 01
	00 00		 movsx	 eax, WORD PTR [esi+324]

; 846  : 			y = lpObj->Y;

  0005c	0f bf 8e 46 01
	00 00		 movsx	 ecx, WORD PTR [esi+326]
  00063	89 85 14 ff ff
	ff		 mov	 DWORD PTR _x$[ebp], eax
  00069	89 8d 10 ff ff
	ff		 mov	 DWORD PTR _y$[ebp], ecx
  0006f	8b fa		 mov	 edi, edx
  00071	89 bd 18 ff ff
	ff		 mov	 DWORD PTR _DropItemNum$[ebp], edi

; 847  : 
; 848  : 			int rnd = rand() % 100;

  00077	e8 00 00 00 00	 call	 _rand
  0007c	99		 cdq
  0007d	b9 64 00 00 00	 mov	 ecx, 100		; 00000064H
  00082	f7 f9		 idiv	 ecx

; 849  : 
; 850  : 			if ( rnd < 5 )

  00084	83 fa 05	 cmp	 edx, 5
  00087	7d 0c		 jge	 SHORT $LN14@RingEventI

; 851  : 				level = 9;

  00089	c7 85 24 ff ff
	ff 09 00 00 00	 mov	 DWORD PTR _level$[ebp], 9
  00093	eb 22		 jmp	 SHORT $LN10@RingEventI
$LN14@RingEventI:

; 852  : 			else if ( rnd < 20 )

  00095	83 fa 14	 cmp	 edx, 20			; 00000014H
  00098	7d 0c		 jge	 SHORT $LN12@RingEventI

; 853  : 				level = 8;

  0009a	c7 85 24 ff ff
	ff 08 00 00 00	 mov	 DWORD PTR _level$[ebp], 8
  000a4	eb 11		 jmp	 SHORT $LN10@RingEventI
$LN12@RingEventI:

; 854  : 			else if ( rnd < 50 )

  000a6	33 c0		 xor	 eax, eax
  000a8	83 fa 32	 cmp	 edx, 50			; 00000032H
  000ab	0f 9c c0	 setl	 al
  000ae	83 c0 06	 add	 eax, 6
  000b1	89 85 24 ff ff
	ff		 mov	 DWORD PTR _level$[ebp], eax
$LN10@RingEventI:

; 855  : 				level = 7;
; 856  : 			else 
; 857  : 				level = 6;
; 858  : 
; 859  : 			type = ItemGetNumberMake(RingEventItemBag->GetType(DropItemNum), RingEventItemBag->GetIndex(DropItemNum));

  000b7	8b 0d 00 00 00
	00		 mov	 ecx, DWORD PTR ?RingEventItemBag@@3PAVCItemBag@@A ; RingEventItemBag
  000bd	57		 push	 edi
  000be	e8 00 00 00 00	 call	 ?GetIndex@CItemBag@@QAEEH@Z ; CItemBag::GetIndex
  000c3	0f b6 c8	 movzx	 ecx, al
  000c6	51		 push	 ecx
  000c7	8b 0d 00 00 00
	00		 mov	 ecx, DWORD PTR ?RingEventItemBag@@3PAVCItemBag@@A ; RingEventItemBag
  000cd	57		 push	 edi
  000ce	e8 00 00 00 00	 call	 ?GetType@CItemBag@@QAEEH@Z ; CItemBag::GetType
  000d3	0f b6 d0	 movzx	 edx, al
  000d6	52		 push	 edx
  000d7	e8 00 00 00 00	 call	 ?ItemGetNumberMake@@YAHHH@Z ; ItemGetNumberMake
  000dc	83 c4 08	 add	 esp, 8
  000df	8b f8		 mov	 edi, eax

; 860  : 			Option1 = 1;

  000e1	c7 85 1c ff ff
	ff 01 00 00 00	 mov	 DWORD PTR _Option1$[ebp], 1

; 861  : 			Option2 = rand()%2;

  000eb	e8 00 00 00 00	 call	 _rand
  000f0	8b d8		 mov	 ebx, eax
  000f2	81 e3 01 00 00
	80		 and	 ebx, -2147483647	; 80000001H
  000f8	79 05		 jns	 SHORT $LN25@RingEventI
  000fa	4b		 dec	 ebx
  000fb	83 cb fe	 or	 ebx, -2			; fffffffeH
  000fe	43		 inc	 ebx
$LN25@RingEventI:

; 862  : 
; 863  : 			if ( (rand()%5) <1 )

  000ff	e8 00 00 00 00	 call	 _rand
  00104	99		 cdq
  00105	b9 05 00 00 00	 mov	 ecx, 5
  0010a	f7 f9		 idiv	 ecx
  0010c	83 fa 01	 cmp	 edx, 1
  0010f	7d 0c		 jge	 SHORT $LN8@RingEventI

; 864  : 				Option3 = 3;

  00111	c7 85 20 ff ff
	ff 03 00 00 00	 mov	 DWORD PTR _Option3$[ebp], 3

; 865  : 			else

  0011b	eb 13		 jmp	 SHORT $LN7@RingEventI
$LN8@RingEventI:

; 866  : 				Option3 = rand()%3;

  0011d	e8 00 00 00 00	 call	 _rand
  00122	99		 cdq
  00123	b9 03 00 00 00	 mov	 ecx, 3
  00128	f7 f9		 idiv	 ecx
  0012a	89 95 20 ff ff
	ff		 mov	 DWORD PTR _Option3$[ebp], edx
$LN7@RingEventI:

; 867  : 
; 868  : 			if ( type == ITEMGET(12,15) ||
; 869  : 				 type == ITEMGET(14,13) ||
; 870  : 				 type == ITEMGET(14,14) ||
; 871  : 				 type == ITEMGET(14,14) ||
; 872  : 				 type == ITEMGET(14,16)	||
; 873  : 				 type == ITEMGET(14,22)	||
; 874  : 				 type == ITEMGET(14,31)	||
; 875  : 				 type == ITEMGET(14,41)	||
; 876  : 				 type == ITEMGET(14,42)	||
; 877  : 				 type == ITEMGET(14,180)||
; 878  : 				 type == ITEMGET(14,181)||
; 879  : 				 type == ITEMGET(14,182)||
; 880  : 				 type == ITEMGET(14,183)||
; 881  : 				 type == ITEMGET(14,184)||
; 882  : 				 type == ITEMGET(14,185)||
; 883  : 				 type == ITEMGET(14,186)||
; 884  : 				 type == ITEMGET(14,187)||
; 885  : 				 type == ITEMGET(14,190)||
; 886  : 				 type == ITEMGET(14,43) ||
; 887  : 				 type == ITEMGET(14,44) )

  00130	81 ff 0f 18 00
	00		 cmp	 edi, 6159		; 0000180fH
  00136	0f 84 98 00 00
	00		 je	 $LN5@RingEventI
  0013c	81 ff 0d 1c 00
	00		 cmp	 edi, 7181		; 00001c0dH
  00142	0f 84 8c 00 00
	00		 je	 $LN5@RingEventI
  00148	81 ff 0e 1c 00
	00		 cmp	 edi, 7182		; 00001c0eH
  0014e	0f 84 80 00 00
	00		 je	 $LN5@RingEventI
  00154	81 ff 10 1c 00
	00		 cmp	 edi, 7184		; 00001c10H
  0015a	74 78		 je	 SHORT $LN5@RingEventI
  0015c	81 ff 16 1c 00
	00		 cmp	 edi, 7190		; 00001c16H
  00162	74 70		 je	 SHORT $LN5@RingEventI
  00164	81 ff 1f 1c 00
	00		 cmp	 edi, 7199		; 00001c1fH
  0016a	74 68		 je	 SHORT $LN5@RingEventI
  0016c	81 ff 29 1c 00
	00		 cmp	 edi, 7209		; 00001c29H
  00172	74 60		 je	 SHORT $LN5@RingEventI
  00174	81 ff 2a 1c 00
	00		 cmp	 edi, 7210		; 00001c2aH
  0017a	74 58		 je	 SHORT $LN5@RingEventI
  0017c	81 ff b4 1c 00
	00		 cmp	 edi, 7348		; 00001cb4H
  00182	74 50		 je	 SHORT $LN5@RingEventI
  00184	81 ff b5 1c 00
	00		 cmp	 edi, 7349		; 00001cb5H
  0018a	74 48		 je	 SHORT $LN5@RingEventI
  0018c	81 ff b6 1c 00
	00		 cmp	 edi, 7350		; 00001cb6H
  00192	74 40		 je	 SHORT $LN5@RingEventI
  00194	81 ff b7 1c 00
	00		 cmp	 edi, 7351		; 00001cb7H
  0019a	74 38		 je	 SHORT $LN5@RingEventI
  0019c	81 ff b8 1c 00
	00		 cmp	 edi, 7352		; 00001cb8H
  001a2	74 30		 je	 SHORT $LN5@RingEventI
  001a4	81 ff b9 1c 00
	00		 cmp	 edi, 7353		; 00001cb9H
  001aa	74 28		 je	 SHORT $LN5@RingEventI
  001ac	81 ff ba 1c 00
	00		 cmp	 edi, 7354		; 00001cbaH
  001b2	74 20		 je	 SHORT $LN5@RingEventI
  001b4	81 ff bb 1c 00
	00		 cmp	 edi, 7355		; 00001cbbH
  001ba	74 18		 je	 SHORT $LN5@RingEventI
  001bc	81 ff be 1c 00
	00		 cmp	 edi, 7358		; 00001cbeH
  001c2	74 10		 je	 SHORT $LN5@RingEventI
  001c4	81 ff 2b 1c 00
	00		 cmp	 edi, 7211		; 00001c2bH
  001ca	74 08		 je	 SHORT $LN5@RingEventI
  001cc	81 ff 2c 1c 00
	00		 cmp	 edi, 7212		; 00001c2cH
  001d2	75 18		 jne	 SHORT $LN24@RingEventI
$LN5@RingEventI:

; 888  : 			{
; 889  : 				Option1 = 0;

  001d4	33 c9		 xor	 ecx, ecx
  001d6	89 8d 1c ff ff
	ff		 mov	 DWORD PTR _Option1$[ebp], ecx

; 890  : 				Option2 = 0;

  001dc	33 db		 xor	 ebx, ebx

; 891  : 				Option3 = 0;

  001de	89 8d 20 ff ff
	ff		 mov	 DWORD PTR _Option3$[ebp], ecx

; 892  : 				level = 0;

  001e4	89 8d 24 ff ff
	ff		 mov	 DWORD PTR _level$[ebp], ecx
  001ea	eb 02		 jmp	 SHORT $LN6@RingEventI
$LN24@RingEventI:
  001ec	33 c9		 xor	 ecx, ecx
$LN6@RingEventI:

; 893  : 			}
; 894  : 
; 895  : 			if ( type == ITEMGET(12,30)	||
; 896  : 				 type == ITEMGET(12,31)	||
; 897  : 				 type == ITEMGET(12,136)||
; 898  : 				 type == ITEMGET(12,137)||
; 899  : 				 type == ITEMGET(12,138)||
; 900  : 				 type == ITEMGET(12,139)||
; 901  : 				 type == ITEMGET(12,140)||
; 902  : 				 type == ITEMGET(12,141)||
; 903  : 				 type == ITEMGET(12,142)||
; 904  : 				 type == ITEMGET(12,143))

  001ee	81 ff 1e 18 00
	00		 cmp	 edi, 6174		; 0000181eH
  001f4	74 48		 je	 SHORT $LN3@RingEventI
  001f6	81 ff 1f 18 00
	00		 cmp	 edi, 6175		; 0000181fH
  001fc	74 40		 je	 SHORT $LN3@RingEventI
  001fe	81 ff 88 18 00
	00		 cmp	 edi, 6280		; 00001888H
  00204	74 38		 je	 SHORT $LN3@RingEventI
  00206	81 ff 89 18 00
	00		 cmp	 edi, 6281		; 00001889H
  0020c	74 30		 je	 SHORT $LN3@RingEventI
  0020e	81 ff 8a 18 00
	00		 cmp	 edi, 6282		; 0000188aH
  00214	74 28		 je	 SHORT $LN3@RingEventI
  00216	81 ff 8b 18 00
	00		 cmp	 edi, 6283		; 0000188bH
  0021c	74 20		 je	 SHORT $LN3@RingEventI
  0021e	81 ff 8c 18 00
	00		 cmp	 edi, 6284		; 0000188cH
  00224	74 18		 je	 SHORT $LN3@RingEventI
  00226	81 ff 8d 18 00
	00		 cmp	 edi, 6285		; 0000188dH
  0022c	74 10		 je	 SHORT $LN3@RingEventI
  0022e	81 ff 8e 18 00
	00		 cmp	 edi, 6286		; 0000188eH
  00234	74 08		 je	 SHORT $LN3@RingEventI
  00236	81 ff 8f 18 00
	00		 cmp	 edi, 6287		; 0000188fH
  0023c	75 2b		 jne	 SHORT $LN4@RingEventI
$LN3@RingEventI:

; 905  : 			{
; 906  : 				Option1 = 0;
; 907  : 				Option2 = 0;
; 908  : 				Option3 = 0;
; 909  : 				level = RingEventItemBag->GetLevel(DropItemNum);

  0023e	8b 95 18 ff ff
	ff		 mov	 edx, DWORD PTR _DropItemNum$[ebp]
  00244	89 8d 1c ff ff
	ff		 mov	 DWORD PTR _Option1$[ebp], ecx
  0024a	89 8d 20 ff ff
	ff		 mov	 DWORD PTR _Option3$[ebp], ecx
  00250	8b 0d 00 00 00
	00		 mov	 ecx, DWORD PTR ?RingEventItemBag@@3PAVCItemBag@@A ; RingEventItemBag
  00256	52		 push	 edx
  00257	33 db		 xor	 ebx, ebx
  00259	e8 00 00 00 00	 call	 ?GetLevel@CItemBag@@QAEEH@Z ; CItemBag::GetLevel
  0025e	0f b6 c0	 movzx	 eax, al
  00261	89 85 24 ff ff
	ff		 mov	 DWORD PTR _level$[ebp], eax
  00267	33 c9		 xor	 ecx, ecx
$LN4@RingEventI:

; 910  : 			}
; 911  : 
; 912  : 			if ( type == ITEMGET(13,0) ||
; 913  : 				 type == ITEMGET(13,1) ||
; 914  : 				 type == ITEMGET(13,2) ||
; 915  : 				 type == ITEMGET(13,8) ||
; 916  : 				 type == ITEMGET(13,9) ||
; 917  : 				 type == ITEMGET(13,12) ||
; 918  : 				 type == ITEMGET(13,13) )

  00269	81 ff 00 1a 00
	00		 cmp	 edi, 6656		; 00001a00H
  0026f	74 30		 je	 SHORT $LN1@RingEventI
  00271	81 ff 01 1a 00
	00		 cmp	 edi, 6657		; 00001a01H
  00277	74 28		 je	 SHORT $LN1@RingEventI
  00279	81 ff 02 1a 00
	00		 cmp	 edi, 6658		; 00001a02H
  0027f	74 20		 je	 SHORT $LN1@RingEventI
  00281	81 ff 08 1a 00
	00		 cmp	 edi, 6664		; 00001a08H
  00287	74 18		 je	 SHORT $LN1@RingEventI
  00289	81 ff 09 1a 00
	00		 cmp	 edi, 6665		; 00001a09H
  0028f	74 10		 je	 SHORT $LN1@RingEventI
  00291	81 ff 0c 1a 00
	00		 cmp	 edi, 6668		; 00001a0cH
  00297	74 08		 je	 SHORT $LN1@RingEventI
  00299	81 ff 0d 1a 00
	00		 cmp	 edi, 6669		; 00001a0dH
  0029f	75 06		 jne	 SHORT $LN2@RingEventI
$LN1@RingEventI:

; 919  : 			{
; 920  : 				level = 0;

  002a1	89 8d 24 ff ff
	ff		 mov	 DWORD PTR _level$[ebp], ecx
$LN2@RingEventI:

; 921  : 			}
; 922  : 
; 923  : 			ItemSerialCreateSend(lpObj->m_Index, (BYTE)lpObj->MapNumber, (BYTE)x, (BYTE)y, type, (BYTE)level, (BYTE)dur,
; 924  : 				(BYTE)Option1, (BYTE)Option2, (BYTE)Option3, lpObj->m_Index, 0, 0);

  002a7	8b 06		 mov	 eax, DWORD PTR [esi]
  002a9	8b 95 20 ff ff
	ff		 mov	 edx, DWORD PTR _Option3$[ebp]
  002af	51		 push	 ecx
  002b0	51		 push	 ecx
  002b1	50		 push	 eax
  002b2	52		 push	 edx
  002b3	8b 95 1c ff ff
	ff		 mov	 edx, DWORD PTR _Option1$[ebp]
  002b9	53		 push	 ebx
  002ba	52		 push	 edx
  002bb	8b 95 10 ff ff
	ff		 mov	 edx, DWORD PTR _y$[ebp]
  002c1	51		 push	 ecx
  002c2	8b 8d 24 ff ff
	ff		 mov	 ecx, DWORD PTR _level$[ebp]
  002c8	51		 push	 ecx
  002c9	8b 8d 14 ff ff
	ff		 mov	 ecx, DWORD PTR _x$[ebp]
  002cf	57		 push	 edi
  002d0	52		 push	 edx
  002d1	0f b6 96 49 01
	00 00		 movzx	 edx, BYTE PTR [esi+329]
  002d8	51		 push	 ecx
  002d9	52		 push	 edx
  002da	50		 push	 eax
  002db	e8 00 00 00 00	 call	 ?ItemSerialCreateSend@@YAXHEEEHEEEEEHEE@Z ; ItemSerialCreateSend
  002e0	83 c4 34	 add	 esp, 52			; 00000034H

; 925  : 
; 926  : 			CItem EventItem;

  002e3	8d 8d 28 ff ff
	ff		 lea	 ecx, DWORD PTR _EventItem$215455[ebp]
  002e9	e8 00 00 00 00	 call	 ??0CItem@@QAE@XZ	; CItem::CItem

; 927  : 
; 928  : 			EventItem.Convert(type, Option1, Option2, Option3, 0, 1, 0, NULL, 0xFF, 0, 3);

  002ee	8b 85 20 ff ff
	ff		 mov	 eax, DWORD PTR _Option3$[ebp]
  002f4	8b 8d 1c ff ff
	ff		 mov	 ecx, DWORD PTR _Option1$[ebp]
  002fa	6a 03		 push	 3
  002fc	6a 00		 push	 0
  002fe	68 ff 00 00 00	 push	 255			; 000000ffH
  00303	6a 00		 push	 0
  00305	6a 00		 push	 0
  00307	6a 01		 push	 1
  00309	6a 00		 push	 0
  0030b	50		 push	 eax
  0030c	53		 push	 ebx
  0030d	51		 push	 ecx
  0030e	57		 push	 edi
  0030f	8d 8d 28 ff ff
	ff		 lea	 ecx, DWORD PTR _EventItem$215455[ebp]
  00315	e8 00 00 00 00	 call	 ?Convert@CItem@@QAEXHEEEEEEPAEEEE@Z ; CItem::Convert

; 929  : 
; 930  : 			LogAddTD("[%s][%s][Ring Event](%d,%d,%d) ItemDrop : Item:%s %d Level:%d op1:%d op2:%d op3:%d",
; 931  : 				lpObj->AccountID, lpObj->Name, lpObj->MapNumber, lpObj->X, lpObj->Y, EventItem.GetName(),
; 932  : 				type, level, Option1, Option2, Option3);

  0031a	8b 95 20 ff ff
	ff		 mov	 edx, DWORD PTR _Option3$[ebp]
  00320	8b 85 1c ff ff
	ff		 mov	 eax, DWORD PTR _Option1$[ebp]
  00326	8b 8d 24 ff ff
	ff		 mov	 ecx, DWORD PTR _level$[ebp]
  0032c	52		 push	 edx
  0032d	53		 push	 ebx
  0032e	50		 push	 eax
  0032f	51		 push	 ecx
  00330	57		 push	 edi
  00331	8d 8d 28 ff ff
	ff		 lea	 ecx, DWORD PTR _EventItem$215455[ebp]
  00337	e8 00 00 00 00	 call	 ?GetName@CItem@@QAEPADXZ ; CItem::GetName
  0033c	0f bf 96 46 01
	00 00		 movsx	 edx, WORD PTR [esi+326]
  00343	0f b6 8e 49 01
	00 00		 movzx	 ecx, BYTE PTR [esi+329]
  0034a	50		 push	 eax
  0034b	0f bf 86 44 01
	00 00		 movsx	 eax, WORD PTR [esi+324]
  00352	52		 push	 edx
  00353	50		 push	 eax
  00354	51		 push	 ecx
  00355	8d 56 77	 lea	 edx, DWORD PTR [esi+119]
  00358	52		 push	 edx
  00359	83 c6 6c	 add	 esi, 108		; 0000006cH
  0035c	56		 push	 esi
  0035d	68 00 00 00 00	 push	 OFFSET ??_C@_0FD@OFINJAAJ@?$FL?$CFs?$FN?$FL?$CFs?$FN?$FLRing?5Event?$FN?$CI?$CFd?0?$CFd?0?$CFd?$CJ?5I@
  00362	ff 15 00 00 00
	00		 call	 DWORD PTR ?LogAddTD@@3P6AXPADZZA ; LogAddTD
  00368	83 c4 30	 add	 esp, 48			; 00000030H
  0036b	5f		 pop	 edi
  0036c	5b		 pop	 ebx
  0036d	5e		 pop	 esi

; 941  : }

  0036e	8b 4d fc	 mov	 ecx, DWORD PTR __$ArrayPad$[ebp]
  00371	33 cd		 xor	 ecx, ebp
  00373	e8 00 00 00 00	 call	 @__security_check_cookie@4
  00378	8b e5		 mov	 esp, ebp
  0037a	5d		 pop	 ebp
  0037b	c3		 ret	 0
$LN15@RingEventI:

; 933  : 
; 934  : 			return;
; 935  : 		}
; 936  : 	}
; 937  : 
; 938  : 	x = lpObj->X;
; 939  : 	y = lpObj->Y;
; 940  : 	MapC[lpObj->MapNumber].MoneyItemDrop(100000, x, y);

  0037c	0f bf 86 46 01
	00 00		 movsx	 eax, WORD PTR [esi+326]
  00383	0f bf 8e 44 01
	00 00		 movsx	 ecx, WORD PTR [esi+324]
  0038a	50		 push	 eax
  0038b	51		 push	 ecx
  0038c	0f b6 8e 49 01
	00 00		 movzx	 ecx, BYTE PTR [esi+329]
  00393	69 c9 48 3d 05
	00		 imul	 ecx, 343368		; 00053d48H
  00399	68 a0 86 01 00	 push	 100000			; 000186a0H
  0039e	81 c1 00 00 00
	00		 add	 ecx, OFFSET ?MapC@@3PAVMapClass@@A ; MapC
  003a4	e8 00 00 00 00	 call	 ?MoneyItemDrop@MapClass@@QAEHHHH@Z ; MapClass::MoneyItemDrop

; 941  : }

  003a9	8b 4d fc	 mov	 ecx, DWORD PTR __$ArrayPad$[ebp]
  003ac	33 cd		 xor	 ecx, ebp
  003ae	5e		 pop	 esi
  003af	e8 00 00 00 00	 call	 @__security_check_cookie@4
  003b4	8b e5		 mov	 esp, ebp
  003b6	5d		 pop	 ebp
  003b7	c3		 ret	 0
?RingEventItemBoxOpen@@YAXPAUOBJECTSTRUCT@@@Z ENDP	; RingEventItemBoxOpen
_TEXT	ENDS
PUBLIC	??_C@_0FO@DJNJBHEF@?$FL?$CFs?$FN?$FL?$CFs?$FN?$FLFriendShip?5Ring?5Event?$FN?$CI@ ; `string'
PUBLIC	__$ArrayPad$
PUBLIC	?FriendShipItemBoxOpen@@YAXPAUOBJECTSTRUCT@@@Z	; FriendShipItemBoxOpen
EXTRN	?FriendShipItemBag@@3PAVCItemBag@@A:DWORD	; FriendShipItemBag
;	COMDAT ??_C@_0FO@DJNJBHEF@?$FL?$CFs?$FN?$FL?$CFs?$FN?$FLFriendShip?5Ring?5Event?$FN?$CI@
; File e:\work\tranet_version\gs\gameserver\itembag.h
CONST	SEGMENT
??_C@_0FO@DJNJBHEF@?$FL?$CFs?$FN?$FL?$CFs?$FN?$FLFriendShip?5Ring?5Event?$FN?$CI@ DB '['
	DB	'%s][%s][FriendShip Ring Event](%d,%d,%d) ItemDrop : Item:%s %'
	DB	'd Level:%d op1:%d op2:%d op3:%d', 00H	; `string'
; Function compile flags: /Ogtp
; File e:\work\tranet_version\gs\gameserver\event.cpp
CONST	ENDS
;	COMDAT ?FriendShipItemBoxOpen@@YAXPAUOBJECTSTRUCT@@@Z
_TEXT	SEGMENT
_y$ = -240						; size = 4
_x$ = -236						; size = 4
_DropItemNum$ = -232					; size = 4
_level$ = -228						; size = 4
_Option1$ = -224					; size = 4
_Option3$ = -220					; size = 4
_EventItem$215487 = -216				; size = 212
__$ArrayPad$ = -4					; size = 4
_lpObj$ = 8						; size = 4
?FriendShipItemBoxOpen@@YAXPAUOBJECTSTRUCT@@@Z PROC	; FriendShipItemBoxOpen, COMDAT

; 944  : {

  00000	55		 push	 ebp
  00001	8b ec		 mov	 ebp, esp
  00003	81 ec f0 00 00
	00		 sub	 esp, 240		; 000000f0H
  00009	a1 00 00 00 00	 mov	 eax, DWORD PTR ___security_cookie
  0000e	33 c5		 xor	 eax, ebp
  00010	89 45 fc	 mov	 DWORD PTR __$ArrayPad$[ebp], eax

; 945  : 	float dur;
; 946  : 	int type;
; 947  : 	int level;
; 948  : 	int x;
; 949  : 	int y;
; 950  : 	int Option1=0;
; 951  : 	int Option2=0;
; 952  : 	int Option3=0;
; 953  : 	int DropItemNum;
; 954  : 
; 955  : 	if ( FriendShipItemBag->GetBagCount() > 0 ) //season 3.0 fixed

  00013	a1 00 00 00 00	 mov	 eax, DWORD PTR ?FriendShipItemBag@@3PAVCItemBag@@A ; FriendShipItemBag
  00018	83 b8 88 03 00
	00 00		 cmp	 DWORD PTR [eax+904], 0
  0001f	56		 push	 esi
  00020	8b 75 08	 mov	 esi, DWORD PTR _lpObj$[ebp]
  00023	0f 8e 0c 03 00
	00		 jle	 $LN9@FriendShip

; 956  : 	{
; 957  : 		if ( true )
; 958  : 		{
; 959  : 			DropItemNum = rand()%FriendShipItemBag->GetBagCount(); //season 3.0 fixed

  00029	53		 push	 ebx
  0002a	57		 push	 edi
  0002b	8b b8 88 03 00
	00		 mov	 edi, DWORD PTR [eax+904]
  00031	e8 00 00 00 00	 call	 _rand
  00036	99		 cdq
  00037	f7 ff		 idiv	 edi

; 960  : 			dur=0;
; 961  : 			x = lpObj->X;
; 962  : 			y = lpObj->Y;

  00039	0f bf 8e 46 01
	00 00		 movsx	 ecx, WORD PTR [esi+326]
  00040	0f bf 86 44 01
	00 00		 movsx	 eax, WORD PTR [esi+324]
  00047	89 8d 10 ff ff
	ff		 mov	 DWORD PTR _y$[ebp], ecx

; 963  : 
; 964  : 			level = FriendShipItemBag->GetLevel(DropItemNum) + rand()%3; //season 3.0 fixed and changed

  0004d	8b 0d 00 00 00
	00		 mov	 ecx, DWORD PTR ?FriendShipItemBag@@3PAVCItemBag@@A ; FriendShipItemBag
  00053	89 85 14 ff ff
	ff		 mov	 DWORD PTR _x$[ebp], eax
  00059	8b fa		 mov	 edi, edx
  0005b	57		 push	 edi
  0005c	89 bd 18 ff ff
	ff		 mov	 DWORD PTR _DropItemNum$[ebp], edi
  00062	e8 00 00 00 00	 call	 ?GetLevel@CItemBag@@QAEEH@Z ; CItemBag::GetLevel
  00067	0f b6 d8	 movzx	 ebx, al
  0006a	e8 00 00 00 00	 call	 _rand
  0006f	99		 cdq
  00070	b9 03 00 00 00	 mov	 ecx, 3
  00075	f7 f9		 idiv	 ecx

; 965  : 
; 966  : 			type = ItemGetNumberMake(FriendShipItemBag->GetType(DropItemNum), FriendShipItemBag->GetIndex(DropItemNum)); //season 3.0 fixed

  00077	8b 0d 00 00 00
	00		 mov	 ecx, DWORD PTR ?FriendShipItemBag@@3PAVCItemBag@@A ; FriendShipItemBag
  0007d	57		 push	 edi
  0007e	03 d3		 add	 edx, ebx
  00080	89 95 1c ff ff
	ff		 mov	 DWORD PTR _level$[ebp], edx
  00086	e8 00 00 00 00	 call	 ?GetIndex@CItemBag@@QAEEH@Z ; CItemBag::GetIndex
  0008b	8b 0d 00 00 00
	00		 mov	 ecx, DWORD PTR ?FriendShipItemBag@@3PAVCItemBag@@A ; FriendShipItemBag
  00091	0f b6 d0	 movzx	 edx, al
  00094	52		 push	 edx
  00095	57		 push	 edi
  00096	e8 00 00 00 00	 call	 ?GetType@CItemBag@@QAEEH@Z ; CItemBag::GetType
  0009b	0f b6 c0	 movzx	 eax, al
  0009e	50		 push	 eax
  0009f	e8 00 00 00 00	 call	 ?ItemGetNumberMake@@YAHHH@Z ; ItemGetNumberMake
  000a4	83 c4 08	 add	 esp, 8
  000a7	8b f8		 mov	 edi, eax

; 967  : 			Option1 = 1;

  000a9	c7 85 20 ff ff
	ff 01 00 00 00	 mov	 DWORD PTR _Option1$[ebp], 1

; 968  : 			Option2 = rand()%2;

  000b3	e8 00 00 00 00	 call	 _rand
  000b8	8b d8		 mov	 ebx, eax
  000ba	81 e3 01 00 00
	80		 and	 ebx, -2147483647	; 80000001H
  000c0	79 05		 jns	 SHORT $LN19@FriendShip
  000c2	4b		 dec	 ebx
  000c3	83 cb fe	 or	 ebx, -2			; fffffffeH
  000c6	43		 inc	 ebx
$LN19@FriendShip:

; 969  : 
; 970  : 			if ( (rand()%5) <1 )

  000c7	e8 00 00 00 00	 call	 _rand
  000cc	99		 cdq
  000cd	b9 05 00 00 00	 mov	 ecx, 5
  000d2	f7 f9		 idiv	 ecx
  000d4	83 fa 01	 cmp	 edx, 1
  000d7	7d 0c		 jge	 SHORT $LN8@FriendShip

; 971  : 				Option3 = 3;

  000d9	c7 85 24 ff ff
	ff 03 00 00 00	 mov	 DWORD PTR _Option3$[ebp], 3

; 972  : 			else

  000e3	eb 13		 jmp	 SHORT $LN7@FriendShip
$LN8@FriendShip:

; 973  : 				Option3 = rand()%3;

  000e5	e8 00 00 00 00	 call	 _rand
  000ea	99		 cdq
  000eb	b9 03 00 00 00	 mov	 ecx, 3
  000f0	f7 f9		 idiv	 ecx
  000f2	89 95 24 ff ff
	ff		 mov	 DWORD PTR _Option3$[ebp], edx
$LN7@FriendShip:

; 974  : 
; 975  : 			if ( type == ITEMGET(12,15) ||
; 976  : 				 type == ITEMGET(14,13) ||
; 977  : 				 type == ITEMGET(14,14) ||
; 978  : 				 type == ITEMGET(14,14) ||
; 979  : 				 type == ITEMGET(14,16)	||
; 980  : 				 type == ITEMGET(14,22)	||
; 981  : 				 type == ITEMGET(14,31)	||
; 982  : 				 type == ITEMGET(14,41)	||
; 983  : 				 type == ITEMGET(14,42)	||
; 984  : 				 type == ITEMGET(14,180)||
; 985  : 				 type == ITEMGET(14,181)||
; 986  : 				 type == ITEMGET(14,182)||
; 987  : 				 type == ITEMGET(14,183)||
; 988  : 				 type == ITEMGET(14,184)||
; 989  : 				 type == ITEMGET(14,185)||
; 990  : 				 type == ITEMGET(14,186)||
; 991  : 				 type == ITEMGET(14,187)||
; 992  : 				 type == ITEMGET(14,190)||
; 993  : 				 type == ITEMGET(14,43) ||
; 994  : 				 type == ITEMGET(14,44) )

  000f8	81 ff 0f 18 00
	00		 cmp	 edi, 6159		; 0000180fH
  000fe	0f 84 98 00 00
	00		 je	 $LN5@FriendShip
  00104	81 ff 0d 1c 00
	00		 cmp	 edi, 7181		; 00001c0dH
  0010a	0f 84 8c 00 00
	00		 je	 $LN5@FriendShip
  00110	81 ff 0e 1c 00
	00		 cmp	 edi, 7182		; 00001c0eH
  00116	0f 84 80 00 00
	00		 je	 $LN5@FriendShip
  0011c	81 ff 10 1c 00
	00		 cmp	 edi, 7184		; 00001c10H
  00122	74 78		 je	 SHORT $LN5@FriendShip
  00124	81 ff 16 1c 00
	00		 cmp	 edi, 7190		; 00001c16H
  0012a	74 70		 je	 SHORT $LN5@FriendShip
  0012c	81 ff 1f 1c 00
	00		 cmp	 edi, 7199		; 00001c1fH
  00132	74 68		 je	 SHORT $LN5@FriendShip
  00134	81 ff 29 1c 00
	00		 cmp	 edi, 7209		; 00001c29H
  0013a	74 60		 je	 SHORT $LN5@FriendShip
  0013c	81 ff 2a 1c 00
	00		 cmp	 edi, 7210		; 00001c2aH
  00142	74 58		 je	 SHORT $LN5@FriendShip
  00144	81 ff b4 1c 00
	00		 cmp	 edi, 7348		; 00001cb4H
  0014a	74 50		 je	 SHORT $LN5@FriendShip
  0014c	81 ff b5 1c 00
	00		 cmp	 edi, 7349		; 00001cb5H
  00152	74 48		 je	 SHORT $LN5@FriendShip
  00154	81 ff b6 1c 00
	00		 cmp	 edi, 7350		; 00001cb6H
  0015a	74 40		 je	 SHORT $LN5@FriendShip
  0015c	81 ff b7 1c 00
	00		 cmp	 edi, 7351		; 00001cb7H
  00162	74 38		 je	 SHORT $LN5@FriendShip
  00164	81 ff b8 1c 00
	00		 cmp	 edi, 7352		; 00001cb8H
  0016a	74 30		 je	 SHORT $LN5@FriendShip
  0016c	81 ff b9 1c 00
	00		 cmp	 edi, 7353		; 00001cb9H
  00172	74 28		 je	 SHORT $LN5@FriendShip
  00174	81 ff ba 1c 00
	00		 cmp	 edi, 7354		; 00001cbaH
  0017a	74 20		 je	 SHORT $LN5@FriendShip
  0017c	81 ff bb 1c 00
	00		 cmp	 edi, 7355		; 00001cbbH
  00182	74 18		 je	 SHORT $LN5@FriendShip
  00184	81 ff be 1c 00
	00		 cmp	 edi, 7358		; 00001cbeH
  0018a	74 10		 je	 SHORT $LN5@FriendShip
  0018c	81 ff 2b 1c 00
	00		 cmp	 edi, 7211		; 00001c2bH
  00192	74 08		 je	 SHORT $LN5@FriendShip
  00194	81 ff 2c 1c 00
	00		 cmp	 edi, 7212		; 00001c2cH
  0019a	75 18		 jne	 SHORT $LN18@FriendShip
$LN5@FriendShip:

; 995  : 			{
; 996  : 				Option1 = 0;

  0019c	33 c9		 xor	 ecx, ecx
  0019e	89 8d 20 ff ff
	ff		 mov	 DWORD PTR _Option1$[ebp], ecx

; 997  : 				Option2 = 0;

  001a4	33 db		 xor	 ebx, ebx

; 998  : 				Option3 = 0;

  001a6	89 8d 24 ff ff
	ff		 mov	 DWORD PTR _Option3$[ebp], ecx

; 999  : 				level = 0;

  001ac	89 8d 1c ff ff
	ff		 mov	 DWORD PTR _level$[ebp], ecx
  001b2	eb 02		 jmp	 SHORT $LN6@FriendShip
$LN18@FriendShip:
  001b4	33 c9		 xor	 ecx, ecx
$LN6@FriendShip:

; 1000 : 			}
; 1001 : 
; 1002 : 			if ( type == ITEMGET(12,30)	||
; 1003 : 				 type == ITEMGET(12,31)	||
; 1004 : 				 type == ITEMGET(12,136)||
; 1005 : 				 type == ITEMGET(12,137)||
; 1006 : 				 type == ITEMGET(12,138)||
; 1007 : 				 type == ITEMGET(12,139)||
; 1008 : 				 type == ITEMGET(12,140)||
; 1009 : 				 type == ITEMGET(12,141)||
; 1010 : 				 type == ITEMGET(12,142)||
; 1011 : 				 type == ITEMGET(12,143))

  001b6	81 ff 1e 18 00
	00		 cmp	 edi, 6174		; 0000181eH
  001bc	74 48		 je	 SHORT $LN3@FriendShip
  001be	81 ff 1f 18 00
	00		 cmp	 edi, 6175		; 0000181fH
  001c4	74 40		 je	 SHORT $LN3@FriendShip
  001c6	81 ff 88 18 00
	00		 cmp	 edi, 6280		; 00001888H
  001cc	74 38		 je	 SHORT $LN3@FriendShip
  001ce	81 ff 89 18 00
	00		 cmp	 edi, 6281		; 00001889H
  001d4	74 30		 je	 SHORT $LN3@FriendShip
  001d6	81 ff 8a 18 00
	00		 cmp	 edi, 6282		; 0000188aH
  001dc	74 28		 je	 SHORT $LN3@FriendShip
  001de	81 ff 8b 18 00
	00		 cmp	 edi, 6283		; 0000188bH
  001e4	74 20		 je	 SHORT $LN3@FriendShip
  001e6	81 ff 8c 18 00
	00		 cmp	 edi, 6284		; 0000188cH
  001ec	74 18		 je	 SHORT $LN3@FriendShip
  001ee	81 ff 8d 18 00
	00		 cmp	 edi, 6285		; 0000188dH
  001f4	74 10		 je	 SHORT $LN3@FriendShip
  001f6	81 ff 8e 18 00
	00		 cmp	 edi, 6286		; 0000188eH
  001fc	74 08		 je	 SHORT $LN3@FriendShip
  001fe	81 ff 8f 18 00
	00		 cmp	 edi, 6287		; 0000188fH
  00204	75 2b		 jne	 SHORT $LN4@FriendShip
$LN3@FriendShip:

; 1012 : 			{
; 1013 : 				Option1 = 0;
; 1014 : 				Option2 = 0;
; 1015 : 				Option3 = 0;
; 1016 : 				level = FriendShipItemBag->GetLevel(DropItemNum);

  00206	8b 95 18 ff ff
	ff		 mov	 edx, DWORD PTR _DropItemNum$[ebp]
  0020c	89 8d 20 ff ff
	ff		 mov	 DWORD PTR _Option1$[ebp], ecx
  00212	89 8d 24 ff ff
	ff		 mov	 DWORD PTR _Option3$[ebp], ecx
  00218	8b 0d 00 00 00
	00		 mov	 ecx, DWORD PTR ?FriendShipItemBag@@3PAVCItemBag@@A ; FriendShipItemBag
  0021e	52		 push	 edx
  0021f	33 db		 xor	 ebx, ebx
  00221	e8 00 00 00 00	 call	 ?GetLevel@CItemBag@@QAEEH@Z ; CItemBag::GetLevel
  00226	0f b6 c0	 movzx	 eax, al
  00229	89 85 1c ff ff
	ff		 mov	 DWORD PTR _level$[ebp], eax
  0022f	33 c9		 xor	 ecx, ecx
$LN4@FriendShip:

; 1017 : 			}
; 1018 : 
; 1019 : 			if ( type == ITEMGET(13,0) ||
; 1020 : 				 type == ITEMGET(13,1) ||
; 1021 : 				 type == ITEMGET(13,2) ||
; 1022 : 				 type == ITEMGET(13,8) ||
; 1023 : 				 type == ITEMGET(13,9) ||
; 1024 : 				 type == ITEMGET(13,12) ||
; 1025 : 				 type == ITEMGET(13,13) )

  00231	81 ff 00 1a 00
	00		 cmp	 edi, 6656		; 00001a00H
  00237	74 30		 je	 SHORT $LN1@FriendShip
  00239	81 ff 01 1a 00
	00		 cmp	 edi, 6657		; 00001a01H
  0023f	74 28		 je	 SHORT $LN1@FriendShip
  00241	81 ff 02 1a 00
	00		 cmp	 edi, 6658		; 00001a02H
  00247	74 20		 je	 SHORT $LN1@FriendShip
  00249	81 ff 08 1a 00
	00		 cmp	 edi, 6664		; 00001a08H
  0024f	74 18		 je	 SHORT $LN1@FriendShip
  00251	81 ff 09 1a 00
	00		 cmp	 edi, 6665		; 00001a09H
  00257	74 10		 je	 SHORT $LN1@FriendShip
  00259	81 ff 0c 1a 00
	00		 cmp	 edi, 6668		; 00001a0cH
  0025f	74 08		 je	 SHORT $LN1@FriendShip
  00261	81 ff 0d 1a 00
	00		 cmp	 edi, 6669		; 00001a0dH
  00267	75 06		 jne	 SHORT $LN2@FriendShip
$LN1@FriendShip:

; 1026 : 			{
; 1027 : 				level = 0;

  00269	89 8d 1c ff ff
	ff		 mov	 DWORD PTR _level$[ebp], ecx
$LN2@FriendShip:

; 1028 : 			}
; 1029 : 
; 1030 : 			ItemSerialCreateSend(lpObj->m_Index, (BYTE)lpObj->MapNumber, (BYTE)x, (BYTE)y, type, (BYTE)level, (BYTE)dur, (BYTE)Option1, (BYTE)Option2, (BYTE)Option3, lpObj->m_Index, 0, 0);

  0026f	8b 06		 mov	 eax, DWORD PTR [esi]
  00271	8b 95 24 ff ff
	ff		 mov	 edx, DWORD PTR _Option3$[ebp]
  00277	51		 push	 ecx
  00278	51		 push	 ecx
  00279	50		 push	 eax
  0027a	52		 push	 edx
  0027b	8b 95 20 ff ff
	ff		 mov	 edx, DWORD PTR _Option1$[ebp]
  00281	53		 push	 ebx
  00282	52		 push	 edx
  00283	8b 95 10 ff ff
	ff		 mov	 edx, DWORD PTR _y$[ebp]
  00289	51		 push	 ecx
  0028a	8b 8d 1c ff ff
	ff		 mov	 ecx, DWORD PTR _level$[ebp]
  00290	51		 push	 ecx
  00291	8b 8d 14 ff ff
	ff		 mov	 ecx, DWORD PTR _x$[ebp]
  00297	57		 push	 edi
  00298	52		 push	 edx
  00299	0f b6 96 49 01
	00 00		 movzx	 edx, BYTE PTR [esi+329]
  002a0	51		 push	 ecx
  002a1	52		 push	 edx
  002a2	50		 push	 eax
  002a3	e8 00 00 00 00	 call	 ?ItemSerialCreateSend@@YAXHEEEHEEEEEHEE@Z ; ItemSerialCreateSend
  002a8	83 c4 34	 add	 esp, 52			; 00000034H

; 1031 : 
; 1032 : 			CItem EventItem;

  002ab	8d 8d 28 ff ff
	ff		 lea	 ecx, DWORD PTR _EventItem$215487[ebp]
  002b1	e8 00 00 00 00	 call	 ??0CItem@@QAE@XZ	; CItem::CItem

; 1033 : 
; 1034 : 			EventItem.Convert(type, Option1, Option2, Option3, 0, 1, 0, NULL, 0xFF, 0, 3);

  002b6	8b 85 24 ff ff
	ff		 mov	 eax, DWORD PTR _Option3$[ebp]
  002bc	8b 8d 20 ff ff
	ff		 mov	 ecx, DWORD PTR _Option1$[ebp]
  002c2	6a 03		 push	 3
  002c4	6a 00		 push	 0
  002c6	68 ff 00 00 00	 push	 255			; 000000ffH
  002cb	6a 00		 push	 0
  002cd	6a 00		 push	 0
  002cf	6a 01		 push	 1
  002d1	6a 00		 push	 0
  002d3	50		 push	 eax
  002d4	53		 push	 ebx
  002d5	51		 push	 ecx
  002d6	57		 push	 edi
  002d7	8d 8d 28 ff ff
	ff		 lea	 ecx, DWORD PTR _EventItem$215487[ebp]
  002dd	e8 00 00 00 00	 call	 ?Convert@CItem@@QAEXHEEEEEEPAEEEE@Z ; CItem::Convert

; 1035 : 
; 1036 : 			LogAddTD("[%s][%s][FriendShip Ring Event](%d,%d,%d) ItemDrop : Item:%s %d Level:%d op1:%d op2:%d op3:%d", lpObj->AccountID, lpObj->Name, lpObj->MapNumber, lpObj->X, lpObj->Y, EventItem.GetName(), type, level, Option1, Option2, Option3);

  002e2	8b 95 24 ff ff
	ff		 mov	 edx, DWORD PTR _Option3$[ebp]
  002e8	8b 85 20 ff ff
	ff		 mov	 eax, DWORD PTR _Option1$[ebp]
  002ee	8b 8d 1c ff ff
	ff		 mov	 ecx, DWORD PTR _level$[ebp]
  002f4	52		 push	 edx
  002f5	53		 push	 ebx
  002f6	50		 push	 eax
  002f7	51		 push	 ecx
  002f8	57		 push	 edi
  002f9	8d 8d 28 ff ff
	ff		 lea	 ecx, DWORD PTR _EventItem$215487[ebp]
  002ff	e8 00 00 00 00	 call	 ?GetName@CItem@@QAEPADXZ ; CItem::GetName
  00304	0f bf 96 46 01
	00 00		 movsx	 edx, WORD PTR [esi+326]
  0030b	0f b6 8e 49 01
	00 00		 movzx	 ecx, BYTE PTR [esi+329]
  00312	50		 push	 eax
  00313	0f bf 86 44 01
	00 00		 movsx	 eax, WORD PTR [esi+324]
  0031a	52		 push	 edx
  0031b	50		 push	 eax
  0031c	51		 push	 ecx
  0031d	8d 56 77	 lea	 edx, DWORD PTR [esi+119]
  00320	52		 push	 edx
  00321	83 c6 6c	 add	 esi, 108		; 0000006cH
  00324	56		 push	 esi
  00325	68 00 00 00 00	 push	 OFFSET ??_C@_0FO@DJNJBHEF@?$FL?$CFs?$FN?$FL?$CFs?$FN?$FLFriendShip?5Ring?5Event?$FN?$CI@
  0032a	ff 15 00 00 00
	00		 call	 DWORD PTR ?LogAddTD@@3P6AXPADZZA ; LogAddTD
  00330	83 c4 30	 add	 esp, 48			; 00000030H
  00333	5f		 pop	 edi
  00334	5b		 pop	 ebx
$LN9@FriendShip:

; 1037 : 			return;
; 1038 : 		}
; 1039 : 	}
; 1040 : }

  00335	8b 4d fc	 mov	 ecx, DWORD PTR __$ArrayPad$[ebp]
  00338	33 cd		 xor	 ecx, ebp
  0033a	5e		 pop	 esi
  0033b	e8 00 00 00 00	 call	 @__security_check_cookie@4
  00340	8b e5		 mov	 esp, ebp
  00342	5d		 pop	 ebp
  00343	c3		 ret	 0
?FriendShipItemBoxOpen@@YAXPAUOBJECTSTRUCT@@@Z ENDP	; FriendShipItemBoxOpen
_TEXT	ENDS
PUBLIC	??_C@_0EF@GOCIBGLO@?$FLHidden?5TreasureBox?5Event?$FN?5?$FL?$CFs?$FN?$FL@ ; `string'
PUBLIC	??_C@_0IE@EJGNIEKI@?$FLHidden?5TreasureBox?5Event?$FN?5?$FL?$CFs?$FN?$FL@ ; `string'
PUBLIC	??_C@_0EC@IBKHHAK@?$FLHidden?5TreasureBox?5Event?$FN?5?$FL?$CFs?$FN?$FL@ ; `string'
PUBLIC	__$ArrayPad$
PUBLIC	?HiddenTreasureBoxItemBoxOpen@@YAXPAUOBJECTSTRUCT@@@Z ; HiddenTreasureBoxItemBoxOpen
EXTRN	?ItemAttribute@@3PAUITEM_ATTRIBUTE@@A:BYTE	; ItemAttribute
EXTRN	?ItemIsBufExOption@@YAXPAEPAVCItem@@@Z:PROC	; ItemIsBufExOption
EXTRN	?NewOptionRand@@YAEH@Z:PROC			; NewOptionRand
EXTRN	?GetMinLevel@CItemBagZt@@QAEEH@Z:PROC		; CItemBagZt::GetMinLevel
EXTRN	?PickItem@CItemBagZt@@QAEHAAVCItem@@AAH@Z:PROC	; CItemBagZt::PickItem
EXTRN	?HiddenTreasureBoxItemBag@@3PAVCItemBagZt@@A:DWORD ; HiddenTreasureBoxItemBag
;	COMDAT ??_C@_0EF@GOCIBGLO@?$FLHidden?5TreasureBox?5Event?$FN?5?$FL?$CFs?$FN?$FL@
CONST	SEGMENT
??_C@_0EF@GOCIBGLO@?$FLHidden?5TreasureBox?5Event?$FN?5?$FL?$CFs?$FN?$FL@ DB '['
	DB	'Hidden TreasureBox Event] [%s][%s] Event ZenDrop : %d : (%d)('
	DB	'%d/%d)', 00H				; `string'
CONST	ENDS
;	COMDAT ??_C@_0IE@EJGNIEKI@?$FLHidden?5TreasureBox?5Event?$FN?5?$FL?$CFs?$FN?$FL@
CONST	SEGMENT
??_C@_0IE@EJGNIEKI@?$FLHidden?5TreasureBox?5Event?$FN?5?$FL?$CFs?$FN?$FL@ DB '['
	DB	'Hidden TreasureBox Event] [%s][%s] Event ItemDrop : (%d)(%d/%'
	DB	'd) Item:(%s)%d Level:%d op1:%d op2:%d op3:%d exop:[%d,%d,%d,%'
	DB	'd,%d,%d]', 00H				; `string'
CONST	ENDS
;	COMDAT ??_C@_0EC@IBKHHAK@?$FLHidden?5TreasureBox?5Event?$FN?5?$FL?$CFs?$FN?$FL@
CONST	SEGMENT
??_C@_0EC@IBKHHAK@?$FLHidden?5TreasureBox?5Event?$FN?5?$FL?$CFs?$FN?$FL@ DB '['
	DB	'Hidden TreasureBox Event] [%s][%s] Item Pick Failed - Data Er'
	DB	'ror', 00H					; `string'
; Function compile flags: /Ogtp
CONST	ENDS
;	COMDAT ?HiddenTreasureBoxItemBoxOpen@@YAXPAUOBJECTSTRUCT@@@Z
_TEXT	SEGMENT
_nItemIndex$ = -236					; size = 4
tv259 = -232						; size = 4
tv257 = -232						; size = 4
tv288 = -226						; size = 2
_objTempItem$ = -224					; size = 212
_NewOption$215555 = -12					; size = 8
__$ArrayPad$ = -4					; size = 4
_lpObj$ = 8						; size = 4
?HiddenTreasureBoxItemBoxOpen@@YAXPAUOBJECTSTRUCT@@@Z PROC ; HiddenTreasureBoxItemBoxOpen, COMDAT

; 1171 : {

  00000	55		 push	 ebp
  00001	8b ec		 mov	 ebp, esp
  00003	81 ec ec 00 00
	00		 sub	 esp, 236		; 000000ecH
  00009	a1 00 00 00 00	 mov	 eax, DWORD PTR ___security_cookie
  0000e	33 c5		 xor	 eax, ebp
  00010	89 45 fc	 mov	 DWORD PTR __$ArrayPad$[ebp], eax
  00013	56		 push	 esi
  00014	8b 75 08	 mov	 esi, DWORD PTR _lpObj$[ebp]

; 1172 : 	CItem objTempItem;

  00017	8d 8d 20 ff ff
	ff		 lea	 ecx, DWORD PTR _objTempItem$[ebp]
  0001d	e8 00 00 00 00	 call	 ??0CItem@@QAE@XZ	; CItem::CItem

; 1173 : 	int nItemIndex;
; 1174 : 
; 1175 : 	if ( HiddenTreasureBoxItemBag->PickItem(objTempItem, nItemIndex) == FALSE )

  00022	8d 85 14 ff ff
	ff		 lea	 eax, DWORD PTR _nItemIndex$[ebp]
  00028	50		 push	 eax
  00029	8d 8d 20 ff ff
	ff		 lea	 ecx, DWORD PTR _objTempItem$[ebp]
  0002f	51		 push	 ecx
  00030	8b 0d 00 00 00
	00		 mov	 ecx, DWORD PTR ?HiddenTreasureBoxItemBag@@3PAVCItemBagZt@@A ; HiddenTreasureBoxItemBag
  00036	e8 00 00 00 00	 call	 ?PickItem@CItemBagZt@@QAEHAAVCItem@@AAH@Z ; CItemBagZt::PickItem
  0003b	85 c0		 test	 eax, eax
  0003d	75 52		 jne	 SHORT $LN9@HiddenTrea

; 1176 : 	{
; 1177 : 		LogAddTD("[Hidden TreasureBox Event] [%s][%s] Item Pick Failed - Data Error",
; 1178 : 			lpObj->AccountID, lpObj->Name);

  0003f	8d 56 77	 lea	 edx, DWORD PTR [esi+119]
  00042	52		 push	 edx
  00043	8d 46 6c	 lea	 eax, DWORD PTR [esi+108]
  00046	50		 push	 eax
  00047	68 00 00 00 00	 push	 OFFSET ??_C@_0EC@IBKHHAK@?$FLHidden?5TreasureBox?5Event?$FN?5?$FL?$CFs?$FN?$FL@
  0004c	ff 15 00 00 00
	00		 call	 DWORD PTR ?LogAddTD@@3P6AXPADZZA ; LogAddTD

; 1179 : 
; 1180 : 		MapC[lpObj->MapNumber].MoneyItemDrop(200000, lpObj->X, lpObj->Y);

  00052	0f bf 8e 46 01
	00 00		 movsx	 ecx, WORD PTR [esi+326]
  00059	0f bf 96 44 01
	00 00		 movsx	 edx, WORD PTR [esi+324]
  00060	83 c4 0c	 add	 esp, 12			; 0000000cH
  00063	51		 push	 ecx
  00064	0f b6 8e 49 01
	00 00		 movzx	 ecx, BYTE PTR [esi+329]
  0006b	69 c9 48 3d 05
	00		 imul	 ecx, 343368		; 00053d48H
  00071	52		 push	 edx
  00072	68 40 0d 03 00	 push	 200000			; 00030d40H
  00077	81 c1 00 00 00
	00		 add	 ecx, OFFSET ?MapC@@3PAVMapClass@@A ; MapC
  0007d	e8 00 00 00 00	 call	 ?MoneyItemDrop@MapClass@@QAEHHHH@Z ; MapClass::MoneyItemDrop
  00082	5e		 pop	 esi

; 1229 : 	}
; 1230 : }

  00083	8b 4d fc	 mov	 ecx, DWORD PTR __$ArrayPad$[ebp]
  00086	33 cd		 xor	 ecx, ebp
  00088	e8 00 00 00 00	 call	 @__security_check_cookie@4
  0008d	8b e5		 mov	 esp, ebp
  0008f	5d		 pop	 ebp
  00090	c3		 ret	 0
$LN9@HiddenTrea:

; 1181 : 		return;
; 1182 : 	}
; 1183 : 
; 1184 : 	int iItemSuccessRate = HiddenTreasureBoxItemBag->GetMinLevel(nItemIndex);

  00091	8b 85 14 ff ff
	ff		 mov	 eax, DWORD PTR _nItemIndex$[ebp]
  00097	8b 0d 00 00 00
	00		 mov	 ecx, DWORD PTR ?HiddenTreasureBoxItemBag@@3PAVCItemBagZt@@A ; HiddenTreasureBoxItemBag
  0009d	57		 push	 edi
  0009e	50		 push	 eax
  0009f	e8 00 00 00 00	 call	 ?GetMinLevel@CItemBagZt@@QAEEH@Z ; CItemBagZt::GetMinLevel
  000a4	0f b6 f8	 movzx	 edi, al

; 1185 : 
; 1186 : 	if ( (rand()%100) < iItemSuccessRate )

  000a7	e8 00 00 00 00	 call	 _rand
  000ac	99		 cdq
  000ad	b9 64 00 00 00	 mov	 ecx, 100		; 00000064H
  000b2	f7 f9		 idiv	 ecx
  000b4	3b d7		 cmp	 edx, edi
  000b6	5f		 pop	 edi
  000b7	0f 8d 9b 01 00
	00		 jge	 $LN8@HiddenTrea

; 1187 : 	{
; 1188 : 		objTempItem.m_Level = 0;

  000bd	33 d2		 xor	 edx, edx
  000bf	66 89 95 28 ff
	ff ff		 mov	 WORD PTR _objTempItem$[ebp+8], dx

; 1189 : 
; 1190 : 		if ( objTempItem.m_Option1 )

  000c6	38 55 b4	 cmp	 BYTE PTR _objTempItem$[ebp+148], dl
  000c9	74 14		 je	 SHORT $LN7@HiddenTrea

; 1191 : 			objTempItem.m_Option1 = rand()%2;

  000cb	e8 00 00 00 00	 call	 _rand
  000d0	25 01 00 00 80	 and	 eax, -2147483647	; 80000001H
  000d5	79 05		 jns	 SHORT $LN12@HiddenTrea
  000d7	48		 dec	 eax
  000d8	83 c8 fe	 or	 eax, -2			; fffffffeH
  000db	40		 inc	 eax
$LN12@HiddenTrea:
  000dc	88 45 b4	 mov	 BYTE PTR _objTempItem$[ebp+148], al
$LN7@HiddenTrea:

; 1192 : 
; 1193 : 		if ( objTempItem.m_Option2 )

  000df	80 7d b5 00	 cmp	 BYTE PTR _objTempItem$[ebp+149], 0
  000e3	74 14		 je	 SHORT $LN6@HiddenTrea

; 1194 : 			objTempItem.m_Option2 = rand()%2;

  000e5	e8 00 00 00 00	 call	 _rand
  000ea	25 01 00 00 80	 and	 eax, -2147483647	; 80000001H
  000ef	79 05		 jns	 SHORT $LN13@HiddenTrea
  000f1	48		 dec	 eax
  000f2	83 c8 fe	 or	 eax, -2			; fffffffeH
  000f5	40		 inc	 eax
$LN13@HiddenTrea:
  000f6	88 45 b5	 mov	 BYTE PTR _objTempItem$[ebp+149], al
$LN6@HiddenTrea:

; 1195 : 
; 1196 : 		if ( objTempItem.m_Option3 )

  000f9	80 7d b6 00	 cmp	 BYTE PTR _objTempItem$[ebp+150], 0
  000fd	74 28		 je	 SHORT $LN3@HiddenTrea

; 1197 : 			if ( (rand()%5) <1 )

  000ff	e8 00 00 00 00	 call	 _rand
  00104	99		 cdq
  00105	b9 05 00 00 00	 mov	 ecx, 5
  0010a	f7 f9		 idiv	 ecx
  0010c	83 fa 01	 cmp	 edx, 1
  0010f	7d 06		 jge	 SHORT $LN4@HiddenTrea

; 1198 : 				objTempItem.m_Option3 = 3;

  00111	c6 45 b6 03	 mov	 BYTE PTR _objTempItem$[ebp+150], 3

; 1199 : 			else

  00115	eb 10		 jmp	 SHORT $LN3@HiddenTrea
$LN4@HiddenTrea:

; 1200 : 				objTempItem.m_Option3 = rand()%3;

  00117	e8 00 00 00 00	 call	 _rand
  0011c	99		 cdq
  0011d	b9 03 00 00 00	 mov	 ecx, 3
  00122	f7 f9		 idiv	 ecx
  00124	88 55 b6	 mov	 BYTE PTR _objTempItem$[ebp+150], dl
$LN3@HiddenTrea:

; 1201 : 
; 1202 : 		if ( objTempItem.m_NewOption )

  00127	80 7d b7 00	 cmp	 BYTE PTR _objTempItem$[ebp+151], 0
  0012b	74 19		 je	 SHORT $LN2@HiddenTrea

; 1203 : 		{
; 1204 : 			objTempItem.m_NewOption = NewOptionRand(objTempItem.m_Level);

  0012d	0f bf 95 28 ff
	ff ff		 movsx	 edx, WORD PTR _objTempItem$[ebp+8]
  00134	52		 push	 edx
  00135	e8 00 00 00 00	 call	 ?NewOptionRand@@YAEH@Z	; NewOptionRand
  0013a	83 c4 04	 add	 esp, 4
  0013d	88 45 b7	 mov	 BYTE PTR _objTempItem$[ebp+151], al

; 1205 : 			objTempItem.m_Option1 = 1;

  00140	66 c7 45 b4 01
	00		 mov	 WORD PTR _objTempItem$[ebp+148], 1
$LN2@HiddenTrea:

; 1206 : 			objTempItem.m_Option2 = 0;
; 1207 : 		}
; 1208 : 
; 1209 : 
; 1210 : 		ItemSerialCreateSend(lpObj->m_Index, (BYTE)lpObj->MapNumber, (BYTE)lpObj->X, (BYTE)lpObj->Y, objTempItem.m_Type, (BYTE)objTempItem.m_Level, (BYTE)objTempItem.m_Durability,
; 1211 : 			(BYTE)objTempItem.m_Option1, (BYTE)objTempItem.m_Option2, (BYTE)objTempItem.m_Option3, lpObj->m_Index, (BYTE)objTempItem.m_NewOption, 0);

  00146	8b 45 b7	 mov	 eax, DWORD PTR _objTempItem$[ebp+151]
  00149	d9 85 44 ff ff
	ff		 fld	 DWORD PTR _objTempItem$[ebp+36]
  0014f	8b 0e		 mov	 ecx, DWORD PTR [esi]
  00151	d9 bd 1e ff ff
	ff		 fnstcw	 WORD PTR tv288[ebp]
  00157	8b 55 b6	 mov	 edx, DWORD PTR _objTempItem$[ebp+150]
  0015a	6a 00		 push	 0
  0015c	50		 push	 eax
  0015d	8b 45 b5	 mov	 eax, DWORD PTR _objTempItem$[ebp+149]
  00160	51		 push	 ecx
  00161	52		 push	 edx
  00162	8b 55 b4	 mov	 edx, DWORD PTR _objTempItem$[ebp+148]
  00165	50		 push	 eax
  00166	0f b7 85 1e ff
	ff ff		 movzx	 eax, WORD PTR tv288[ebp]
  0016d	0d 00 0c 00 00	 or	 eax, 3072		; 00000c00H
  00172	89 85 18 ff ff
	ff		 mov	 DWORD PTR tv259[ebp], eax
  00178	52		 push	 edx
  00179	d9 ad 18 ff ff
	ff		 fldcw	 WORD PTR tv259[ebp]
  0017f	db 9d 18 ff ff
	ff		 fistp	 DWORD PTR tv257[ebp]
  00185	8a 85 18 ff ff
	ff		 mov	 al, BYTE PTR tv257[ebp]
  0018b	0f b6 d0	 movzx	 edx, al
  0018e	8b 85 28 ff ff
	ff		 mov	 eax, DWORD PTR _objTempItem$[ebp+8]
  00194	d9 ad 1e ff ff
	ff		 fldcw	 WORD PTR tv288[ebp]
  0019a	52		 push	 edx
  0019b	0f bf 95 26 ff
	ff ff		 movsx	 edx, WORD PTR _objTempItem$[ebp+6]
  001a2	50		 push	 eax
  001a3	0f b6 86 46 01
	00 00		 movzx	 eax, BYTE PTR [esi+326]
  001aa	52		 push	 edx
  001ab	0f b6 96 44 01
	00 00		 movzx	 edx, BYTE PTR [esi+324]
  001b2	50		 push	 eax
  001b3	0f b6 86 49 01
	00 00		 movzx	 eax, BYTE PTR [esi+329]
  001ba	52		 push	 edx
  001bb	50		 push	 eax
  001bc	51		 push	 ecx
  001bd	e8 00 00 00 00	 call	 ?ItemSerialCreateSend@@YAXHEEEHEEEEEHEE@Z ; ItemSerialCreateSend

; 1212 : 
; 1213 : 		BYTE NewOption[MAX_EXOPTION_SIZE];
; 1214 : 		ItemIsBufExOption(NewOption, &objTempItem);

  001c2	8d 8d 20 ff ff
	ff		 lea	 ecx, DWORD PTR _objTempItem$[ebp]
  001c8	51		 push	 ecx
  001c9	8d 55 f4	 lea	 edx, DWORD PTR _NewOption$215555[ebp]
  001cc	52		 push	 edx
  001cd	e8 00 00 00 00	 call	 ?ItemIsBufExOption@@YAXPAEPAVCItem@@@Z ; ItemIsBufExOption

; 1215 : 
; 1216 : 		LogAddTD("[Hidden TreasureBox Event] [%s][%s] Event ItemDrop : (%d)(%d/%d) Item:(%s)%d Level:%d op1:%d op2:%d op3:%d exop:[%d,%d,%d,%d,%d,%d]",
; 1217 : 			lpObj->AccountID, lpObj->Name, lpObj->MapNumber, lpObj->X, lpObj->Y,
; 1218 : 			ItemAttribute[objTempItem.m_Type].Name, objTempItem.m_Type,
; 1219 : 			objTempItem.m_Level, objTempItem.m_Option1, objTempItem.m_Option2,
; 1220 : 			objTempItem.m_Option3, NewOption[0], NewOption[1], NewOption[2], NewOption[3], NewOption[4], NewOption[5]);

  001d2	0f b6 4d f9	 movzx	 ecx, BYTE PTR _NewOption$215555[ebp+5]
  001d6	0f b6 55 f8	 movzx	 edx, BYTE PTR _NewOption$215555[ebp+4]
  001da	51		 push	 ecx
  001db	0f b6 4d f7	 movzx	 ecx, BYTE PTR _NewOption$215555[ebp+3]
  001df	52		 push	 edx
  001e0	0f b6 55 f6	 movzx	 edx, BYTE PTR _NewOption$215555[ebp+2]
  001e4	0f bf 85 26 ff
	ff ff		 movsx	 eax, WORD PTR _objTempItem$[ebp+6]
  001eb	51		 push	 ecx
  001ec	0f b6 4d f5	 movzx	 ecx, BYTE PTR _NewOption$215555[ebp+1]
  001f0	52		 push	 edx
  001f1	0f b6 55 f4	 movzx	 edx, BYTE PTR _NewOption$215555[ebp]
  001f5	51		 push	 ecx
  001f6	0f b6 4d b6	 movzx	 ecx, BYTE PTR _objTempItem$[ebp+150]
  001fa	52		 push	 edx
  001fb	0f b6 55 b5	 movzx	 edx, BYTE PTR _objTempItem$[ebp+149]
  001ff	51		 push	 ecx
  00200	0f b6 4d b4	 movzx	 ecx, BYTE PTR _objTempItem$[ebp+148]
  00204	52		 push	 edx
  00205	0f bf 95 28 ff
	ff ff		 movsx	 edx, WORD PTR _objTempItem$[ebp+8]
  0020c	51		 push	 ecx
  0020d	0f bf 8e 44 01
	00 00		 movsx	 ecx, WORD PTR [esi+324]
  00214	52		 push	 edx
  00215	0f b6 96 49 01
	00 00		 movzx	 edx, BYTE PTR [esi+329]
  0021c	50		 push	 eax
  0021d	6b c0 70	 imul	 eax, 112		; 00000070H
  00220	05 00 00 00 00	 add	 eax, OFFSET ?ItemAttribute@@3PAUITEM_ATTRIBUTE@@A ; ItemAttribute
  00225	50		 push	 eax
  00226	0f bf 86 46 01
	00 00		 movsx	 eax, WORD PTR [esi+326]
  0022d	50		 push	 eax
  0022e	51		 push	 ecx
  0022f	52		 push	 edx
  00230	8d 46 77	 lea	 eax, DWORD PTR [esi+119]
  00233	50		 push	 eax
  00234	83 c6 6c	 add	 esi, 108		; 0000006cH
  00237	56		 push	 esi
  00238	68 00 00 00 00	 push	 OFFSET ??_C@_0IE@EJGNIEKI@?$FLHidden?5TreasureBox?5Event?$FN?5?$FL?$CFs?$FN?$FL@
  0023d	ff 15 00 00 00
	00		 call	 DWORD PTR ?LogAddTD@@3P6AXPADZZA ; LogAddTD
  00243	81 c4 84 00 00
	00		 add	 esp, 132		; 00000084H
  00249	5e		 pop	 esi

; 1229 : 	}
; 1230 : }

  0024a	8b 4d fc	 mov	 ecx, DWORD PTR __$ArrayPad$[ebp]
  0024d	33 cd		 xor	 ecx, ebp
  0024f	e8 00 00 00 00	 call	 @__security_check_cookie@4
  00254	8b e5		 mov	 esp, ebp
  00256	5d		 pop	 ebp
  00257	c3		 ret	 0
$LN8@HiddenTrea:

; 1221 : 	}
; 1222 : 	else
; 1223 : 	{
; 1224 : 		int money = 200000;
; 1225 : 		MapC[lpObj->MapNumber].MoneyItemDrop(money, lpObj->X, lpObj->Y);

  00258	0f bf 8e 46 01
	00 00		 movsx	 ecx, WORD PTR [esi+326]
  0025f	0f bf 96 44 01
	00 00		 movsx	 edx, WORD PTR [esi+324]
  00266	51		 push	 ecx
  00267	0f b6 8e 49 01
	00 00		 movzx	 ecx, BYTE PTR [esi+329]
  0026e	69 c9 48 3d 05
	00		 imul	 ecx, 343368		; 00053d48H
  00274	52		 push	 edx
  00275	68 40 0d 03 00	 push	 200000			; 00030d40H
  0027a	81 c1 00 00 00
	00		 add	 ecx, OFFSET ?MapC@@3PAVMapClass@@A ; MapC
  00280	e8 00 00 00 00	 call	 ?MoneyItemDrop@MapClass@@QAEHHHH@Z ; MapClass::MoneyItemDrop

; 1226 : 
; 1227 : 		LogAddTD("[Hidden TreasureBox Event] [%s][%s] Event ZenDrop : %d : (%d)(%d/%d)",
; 1228 : 			lpObj->AccountID, lpObj->Name, money, lpObj->MapNumber, lpObj->X, lpObj->Y);

  00285	0f bf 86 46 01
	00 00		 movsx	 eax, WORD PTR [esi+326]
  0028c	0f bf 8e 44 01
	00 00		 movsx	 ecx, WORD PTR [esi+324]
  00293	0f b6 96 49 01
	00 00		 movzx	 edx, BYTE PTR [esi+329]
  0029a	50		 push	 eax
  0029b	51		 push	 ecx
  0029c	52		 push	 edx
  0029d	68 40 0d 03 00	 push	 200000			; 00030d40H
  002a2	8d 46 77	 lea	 eax, DWORD PTR [esi+119]
  002a5	50		 push	 eax
  002a6	83 c6 6c	 add	 esi, 108		; 0000006cH
  002a9	56		 push	 esi
  002aa	68 00 00 00 00	 push	 OFFSET ??_C@_0EF@GOCIBGLO@?$FLHidden?5TreasureBox?5Event?$FN?5?$FL?$CFs?$FN?$FL@
  002af	ff 15 00 00 00
	00		 call	 DWORD PTR ?LogAddTD@@3P6AXPADZZA ; LogAddTD

; 1229 : 	}
; 1230 : }

  002b5	8b 4d fc	 mov	 ecx, DWORD PTR __$ArrayPad$[ebp]
  002b8	83 c4 1c	 add	 esp, 28			; 0000001cH
  002bb	33 cd		 xor	 ecx, ebp
  002bd	5e		 pop	 esi
  002be	e8 00 00 00 00	 call	 @__security_check_cookie@4
  002c3	8b e5		 mov	 esp, ebp
  002c5	5d		 pop	 ebp
  002c6	c3		 ret	 0
?HiddenTreasureBoxItemBoxOpen@@YAXPAUOBJECTSTRUCT@@@Z ENDP ; HiddenTreasureBoxItemBoxOpen
_TEXT	ENDS
PUBLIC	?RedRibbonBoxOpen@@YAXPAUOBJECTSTRUCT@@@Z	; RedRibbonBoxOpen
EXTRN	?DropRedRibbonBoxEventItem@CItemBagZt@@QAEHH@Z:PROC ; CItemBagZt::DropRedRibbonBoxEventItem
EXTRN	?RedRibbonBoxEventItemBag@@3PAVCItemBagZt@@A:DWORD ; RedRibbonBoxEventItemBag
; Function compile flags: /Ogtp
;	COMDAT ?RedRibbonBoxOpen@@YAXPAUOBJECTSTRUCT@@@Z
_TEXT	SEGMENT
_lpObj$ = 8						; size = 4
?RedRibbonBoxOpen@@YAXPAUOBJECTSTRUCT@@@Z PROC		; RedRibbonBoxOpen, COMDAT

; 1234 : {

  00000	55		 push	 ebp
  00001	8b ec		 mov	 ebp, esp

; 1235 : 	RedRibbonBoxEventItemBag->DropRedRibbonBoxEventItem(lpObj->m_Index);

  00003	8b 45 08	 mov	 eax, DWORD PTR _lpObj$[ebp]
  00006	8b 08		 mov	 ecx, DWORD PTR [eax]
  00008	51		 push	 ecx
  00009	8b 0d 00 00 00
	00		 mov	 ecx, DWORD PTR ?RedRibbonBoxEventItemBag@@3PAVCItemBagZt@@A ; RedRibbonBoxEventItemBag
  0000f	e8 00 00 00 00	 call	 ?DropRedRibbonBoxEventItem@CItemBagZt@@QAEHH@Z ; CItemBagZt::DropRedRibbonBoxEventItem

; 1236 : }

  00014	5d		 pop	 ebp
  00015	c3		 ret	 0
?RedRibbonBoxOpen@@YAXPAUOBJECTSTRUCT@@@Z ENDP		; RedRibbonBoxOpen
_TEXT	ENDS
PUBLIC	?GreenRibbonBoxOpen@@YAXPAUOBJECTSTRUCT@@@Z	; GreenRibbonBoxOpen
EXTRN	?DropGreenRibbonBoxEventItem@CItemBagZt@@QAEHH@Z:PROC ; CItemBagZt::DropGreenRibbonBoxEventItem
EXTRN	?GreenRibbonBoxEventItemBag@@3PAVCItemBagZt@@A:DWORD ; GreenRibbonBoxEventItemBag
; Function compile flags: /Ogtp
;	COMDAT ?GreenRibbonBoxOpen@@YAXPAUOBJECTSTRUCT@@@Z
_TEXT	SEGMENT
_lpObj$ = 8						; size = 4
?GreenRibbonBoxOpen@@YAXPAUOBJECTSTRUCT@@@Z PROC	; GreenRibbonBoxOpen, COMDAT

; 1240 : {

  00000	55		 push	 ebp
  00001	8b ec		 mov	 ebp, esp

; 1241 : 	GreenRibbonBoxEventItemBag->DropGreenRibbonBoxEventItem(lpObj->m_Index);

  00003	8b 45 08	 mov	 eax, DWORD PTR _lpObj$[ebp]
  00006	8b 08		 mov	 ecx, DWORD PTR [eax]
  00008	51		 push	 ecx
  00009	8b 0d 00 00 00
	00		 mov	 ecx, DWORD PTR ?GreenRibbonBoxEventItemBag@@3PAVCItemBagZt@@A ; GreenRibbonBoxEventItemBag
  0000f	e8 00 00 00 00	 call	 ?DropGreenRibbonBoxEventItem@CItemBagZt@@QAEHH@Z ; CItemBagZt::DropGreenRibbonBoxEventItem

; 1242 : }

  00014	5d		 pop	 ebp
  00015	c3		 ret	 0
?GreenRibbonBoxOpen@@YAXPAUOBJECTSTRUCT@@@Z ENDP	; GreenRibbonBoxOpen
_TEXT	ENDS
PUBLIC	?BlueRibbonBoxOpen@@YAXPAUOBJECTSTRUCT@@@Z	; BlueRibbonBoxOpen
EXTRN	?DropBlueRibbonBoxEventItem@CItemBagZt@@QAEHH@Z:PROC ; CItemBagZt::DropBlueRibbonBoxEventItem
EXTRN	?BlueRibbonBoxEventItemBag@@3PAVCItemBagZt@@A:DWORD ; BlueRibbonBoxEventItemBag
; Function compile flags: /Ogtp
;	COMDAT ?BlueRibbonBoxOpen@@YAXPAUOBJECTSTRUCT@@@Z
_TEXT	SEGMENT
_lpObj$ = 8						; size = 4
?BlueRibbonBoxOpen@@YAXPAUOBJECTSTRUCT@@@Z PROC		; BlueRibbonBoxOpen, COMDAT

; 1246 : {

  00000	55		 push	 ebp
  00001	8b ec		 mov	 ebp, esp

; 1247 : 	BlueRibbonBoxEventItemBag->DropBlueRibbonBoxEventItem(lpObj->m_Index);

  00003	8b 45 08	 mov	 eax, DWORD PTR _lpObj$[ebp]
  00006	8b 08		 mov	 ecx, DWORD PTR [eax]
  00008	51		 push	 ecx
  00009	8b 0d 00 00 00
	00		 mov	 ecx, DWORD PTR ?BlueRibbonBoxEventItemBag@@3PAVCItemBagZt@@A ; BlueRibbonBoxEventItemBag
  0000f	e8 00 00 00 00	 call	 ?DropBlueRibbonBoxEventItem@CItemBagZt@@QAEHH@Z ; CItemBagZt::DropBlueRibbonBoxEventItem

; 1248 : }

  00014	5d		 pop	 ebp
  00015	c3		 ret	 0
?BlueRibbonBoxOpen@@YAXPAUOBJECTSTRUCT@@@Z ENDP		; BlueRibbonBoxOpen
_TEXT	ENDS
PUBLIC	?PinkChocolateBoxOpen@@YAXPAUOBJECTSTRUCT@@@Z	; PinkChocolateBoxOpen
EXTRN	?DropPinkChocolateBoxEventItem@CItemBagZt@@QAEHH@Z:PROC ; CItemBagZt::DropPinkChocolateBoxEventItem
EXTRN	?PinkChocolateBoxEventItemBag@@3PAVCItemBagZt@@A:DWORD ; PinkChocolateBoxEventItemBag
; Function compile flags: /Ogtp
;	COMDAT ?PinkChocolateBoxOpen@@YAXPAUOBJECTSTRUCT@@@Z
_TEXT	SEGMENT
_lpObj$ = 8						; size = 4
?PinkChocolateBoxOpen@@YAXPAUOBJECTSTRUCT@@@Z PROC	; PinkChocolateBoxOpen, COMDAT

; 1252 : {

  00000	55		 push	 ebp
  00001	8b ec		 mov	 ebp, esp

; 1253 : 	PinkChocolateBoxEventItemBag->DropPinkChocolateBoxEventItem(lpObj->m_Index);

  00003	8b 45 08	 mov	 eax, DWORD PTR _lpObj$[ebp]
  00006	8b 08		 mov	 ecx, DWORD PTR [eax]
  00008	51		 push	 ecx
  00009	8b 0d 00 00 00
	00		 mov	 ecx, DWORD PTR ?PinkChocolateBoxEventItemBag@@3PAVCItemBagZt@@A ; PinkChocolateBoxEventItemBag
  0000f	e8 00 00 00 00	 call	 ?DropPinkChocolateBoxEventItem@CItemBagZt@@QAEHH@Z ; CItemBagZt::DropPinkChocolateBoxEventItem

; 1254 : }

  00014	5d		 pop	 ebp
  00015	c3		 ret	 0
?PinkChocolateBoxOpen@@YAXPAUOBJECTSTRUCT@@@Z ENDP	; PinkChocolateBoxOpen
_TEXT	ENDS
PUBLIC	?RedChocolateBoxOpen@@YAXPAUOBJECTSTRUCT@@@Z	; RedChocolateBoxOpen
EXTRN	?DropRedChocolateBoxEventItem@CItemBagZt@@QAEHH@Z:PROC ; CItemBagZt::DropRedChocolateBoxEventItem
EXTRN	?RedChocolateBoxEventItemBag@@3PAVCItemBagZt@@A:DWORD ; RedChocolateBoxEventItemBag
; Function compile flags: /Ogtp
;	COMDAT ?RedChocolateBoxOpen@@YAXPAUOBJECTSTRUCT@@@Z
_TEXT	SEGMENT
_lpObj$ = 8						; size = 4
?RedChocolateBoxOpen@@YAXPAUOBJECTSTRUCT@@@Z PROC	; RedChocolateBoxOpen, COMDAT

; 1258 : {

  00000	55		 push	 ebp
  00001	8b ec		 mov	 ebp, esp

; 1259 : 	RedChocolateBoxEventItemBag->DropRedChocolateBoxEventItem(lpObj->m_Index);

  00003	8b 45 08	 mov	 eax, DWORD PTR _lpObj$[ebp]
  00006	8b 08		 mov	 ecx, DWORD PTR [eax]
  00008	51		 push	 ecx
  00009	8b 0d 00 00 00
	00		 mov	 ecx, DWORD PTR ?RedChocolateBoxEventItemBag@@3PAVCItemBagZt@@A ; RedChocolateBoxEventItemBag
  0000f	e8 00 00 00 00	 call	 ?DropRedChocolateBoxEventItem@CItemBagZt@@QAEHH@Z ; CItemBagZt::DropRedChocolateBoxEventItem

; 1260 : }

  00014	5d		 pop	 ebp
  00015	c3		 ret	 0
?RedChocolateBoxOpen@@YAXPAUOBJECTSTRUCT@@@Z ENDP	; RedChocolateBoxOpen
_TEXT	ENDS
PUBLIC	?BlueChocolateBoxOpen@@YAXPAUOBJECTSTRUCT@@@Z	; BlueChocolateBoxOpen
EXTRN	?DropBlueChocolateBoxEventItem@CItemBagZt@@QAEHH@Z:PROC ; CItemBagZt::DropBlueChocolateBoxEventItem
EXTRN	?BlueChocolateBoxEventItemBag@@3PAVCItemBagZt@@A:DWORD ; BlueChocolateBoxEventItemBag
; Function compile flags: /Ogtp
;	COMDAT ?BlueChocolateBoxOpen@@YAXPAUOBJECTSTRUCT@@@Z
_TEXT	SEGMENT
_lpObj$ = 8						; size = 4
?BlueChocolateBoxOpen@@YAXPAUOBJECTSTRUCT@@@Z PROC	; BlueChocolateBoxOpen, COMDAT

; 1264 : {

  00000	55		 push	 ebp
  00001	8b ec		 mov	 ebp, esp

; 1265 : 	BlueChocolateBoxEventItemBag->DropBlueChocolateBoxEventItem(lpObj->m_Index);

  00003	8b 45 08	 mov	 eax, DWORD PTR _lpObj$[ebp]
  00006	8b 08		 mov	 ecx, DWORD PTR [eax]
  00008	51		 push	 ecx
  00009	8b 0d 00 00 00
	00		 mov	 ecx, DWORD PTR ?BlueChocolateBoxEventItemBag@@3PAVCItemBagZt@@A ; BlueChocolateBoxEventItemBag
  0000f	e8 00 00 00 00	 call	 ?DropBlueChocolateBoxEventItem@CItemBagZt@@QAEHH@Z ; CItemBagZt::DropBlueChocolateBoxEventItem

; 1266 : }

  00014	5d		 pop	 ebp
  00015	c3		 ret	 0
?BlueChocolateBoxOpen@@YAXPAUOBJECTSTRUCT@@@Z ENDP	; BlueChocolateBoxOpen
_TEXT	ENDS
PUBLIC	?LightPurpleCandyBoxOpen@@YAXPAUOBJECTSTRUCT@@@Z ; LightPurpleCandyBoxOpen
EXTRN	?DropLightPurpleCandyBoxEventItem@CItemBagZt@@QAEHH@Z:PROC ; CItemBagZt::DropLightPurpleCandyBoxEventItem
EXTRN	?LightPurpleCandyBoxEventItemBag@@3PAVCItemBagZt@@A:DWORD ; LightPurpleCandyBoxEventItemBag
; Function compile flags: /Ogtp
;	COMDAT ?LightPurpleCandyBoxOpen@@YAXPAUOBJECTSTRUCT@@@Z
_TEXT	SEGMENT
_lpObj$ = 8						; size = 4
?LightPurpleCandyBoxOpen@@YAXPAUOBJECTSTRUCT@@@Z PROC	; LightPurpleCandyBoxOpen, COMDAT

; 1270 : {

  00000	55		 push	 ebp
  00001	8b ec		 mov	 ebp, esp

; 1271 : 	LightPurpleCandyBoxEventItemBag->DropLightPurpleCandyBoxEventItem(lpObj->m_Index);

  00003	8b 45 08	 mov	 eax, DWORD PTR _lpObj$[ebp]
  00006	8b 08		 mov	 ecx, DWORD PTR [eax]
  00008	51		 push	 ecx
  00009	8b 0d 00 00 00
	00		 mov	 ecx, DWORD PTR ?LightPurpleCandyBoxEventItemBag@@3PAVCItemBagZt@@A ; LightPurpleCandyBoxEventItemBag
  0000f	e8 00 00 00 00	 call	 ?DropLightPurpleCandyBoxEventItem@CItemBagZt@@QAEHH@Z ; CItemBagZt::DropLightPurpleCandyBoxEventItem

; 1272 : }

  00014	5d		 pop	 ebp
  00015	c3		 ret	 0
?LightPurpleCandyBoxOpen@@YAXPAUOBJECTSTRUCT@@@Z ENDP	; LightPurpleCandyBoxOpen
_TEXT	ENDS
PUBLIC	?VermilionCandyBoxOpen@@YAXPAUOBJECTSTRUCT@@@Z	; VermilionCandyBoxOpen
EXTRN	?DropVermilionCandyBoxEventItem@CItemBagZt@@QAEHH@Z:PROC ; CItemBagZt::DropVermilionCandyBoxEventItem
EXTRN	?VermilionCandyBoxEventItemBag@@3PAVCItemBagZt@@A:DWORD ; VermilionCandyBoxEventItemBag
; Function compile flags: /Ogtp
;	COMDAT ?VermilionCandyBoxOpen@@YAXPAUOBJECTSTRUCT@@@Z
_TEXT	SEGMENT
_lpObj$ = 8						; size = 4
?VermilionCandyBoxOpen@@YAXPAUOBJECTSTRUCT@@@Z PROC	; VermilionCandyBoxOpen, COMDAT

; 1276 : {

  00000	55		 push	 ebp
  00001	8b ec		 mov	 ebp, esp

; 1277 : 	VermilionCandyBoxEventItemBag->DropVermilionCandyBoxEventItem(lpObj->m_Index);

  00003	8b 45 08	 mov	 eax, DWORD PTR _lpObj$[ebp]
  00006	8b 08		 mov	 ecx, DWORD PTR [eax]
  00008	51		 push	 ecx
  00009	8b 0d 00 00 00
	00		 mov	 ecx, DWORD PTR ?VermilionCandyBoxEventItemBag@@3PAVCItemBagZt@@A ; VermilionCandyBoxEventItemBag
  0000f	e8 00 00 00 00	 call	 ?DropVermilionCandyBoxEventItem@CItemBagZt@@QAEHH@Z ; CItemBagZt::DropVermilionCandyBoxEventItem

; 1278 : }

  00014	5d		 pop	 ebp
  00015	c3		 ret	 0
?VermilionCandyBoxOpen@@YAXPAUOBJECTSTRUCT@@@Z ENDP	; VermilionCandyBoxOpen
_TEXT	ENDS
PUBLIC	?DeepBlueCandyBoxOpen@@YAXPAUOBJECTSTRUCT@@@Z	; DeepBlueCandyBoxOpen
EXTRN	?DropDeepBlueCandyBoxEventItem@CItemBagZt@@QAEHH@Z:PROC ; CItemBagZt::DropDeepBlueCandyBoxEventItem
EXTRN	?DeepBlueCandyBoxEventItemBag@@3PAVCItemBagZt@@A:DWORD ; DeepBlueCandyBoxEventItemBag
; Function compile flags: /Ogtp
;	COMDAT ?DeepBlueCandyBoxOpen@@YAXPAUOBJECTSTRUCT@@@Z
_TEXT	SEGMENT
_lpObj$ = 8						; size = 4
?DeepBlueCandyBoxOpen@@YAXPAUOBJECTSTRUCT@@@Z PROC	; DeepBlueCandyBoxOpen, COMDAT

; 1282 : {

  00000	55		 push	 ebp
  00001	8b ec		 mov	 ebp, esp

; 1283 : 	DeepBlueCandyBoxEventItemBag->DropDeepBlueCandyBoxEventItem(lpObj->m_Index);

  00003	8b 45 08	 mov	 eax, DWORD PTR _lpObj$[ebp]
  00006	8b 08		 mov	 ecx, DWORD PTR [eax]
  00008	51		 push	 ecx
  00009	8b 0d 00 00 00
	00		 mov	 ecx, DWORD PTR ?DeepBlueCandyBoxEventItemBag@@3PAVCItemBagZt@@A ; DeepBlueCandyBoxEventItemBag
  0000f	e8 00 00 00 00	 call	 ?DropDeepBlueCandyBoxEventItem@CItemBagZt@@QAEHH@Z ; CItemBagZt::DropDeepBlueCandyBoxEventItem

; 1284 : }

  00014	5d		 pop	 ebp
  00015	c3		 ret	 0
?DeepBlueCandyBoxOpen@@YAXPAUOBJECTSTRUCT@@@Z ENDP	; DeepBlueCandyBoxOpen
_TEXT	ENDS
PUBLIC	?KundunEventItemBoxOpen@@YAXPAUOBJECTSTRUCT@@EEE@Z ; KundunEventItemBoxOpen
EXTRN	?DropKundunEventItem@CItemBagZt@@QAEHHEEE@Z:PROC ; CItemBagZt::DropKundunEventItem
EXTRN	?KundunEventItemBag@@3PAVCItemBagZt@@A:DWORD	; KundunEventItemBag
; Function compile flags: /Ogtp
;	COMDAT ?KundunEventItemBoxOpen@@YAXPAUOBJECTSTRUCT@@EEE@Z
_TEXT	SEGMENT
_lpObj$ = 8						; size = 4
_btMapNumber$ = 12					; size = 1
_cX$ = 16						; size = 1
_cY$ = 20						; size = 1
?KundunEventItemBoxOpen@@YAXPAUOBJECTSTRUCT@@EEE@Z PROC	; KundunEventItemBoxOpen, COMDAT

; 1288 : {

  00000	55		 push	 ebp
  00001	8b ec		 mov	 ebp, esp

; 1289 : 	KundunEventItemBag->DropKundunEventItem(lpObj->m_Index, btMapNumber, cX, cY);

  00003	8b 45 14	 mov	 eax, DWORD PTR _cY$[ebp]
  00006	8b 4d 10	 mov	 ecx, DWORD PTR _cX$[ebp]
  00009	8b 55 0c	 mov	 edx, DWORD PTR _btMapNumber$[ebp]
  0000c	50		 push	 eax
  0000d	8b 45 08	 mov	 eax, DWORD PTR _lpObj$[ebp]
  00010	51		 push	 ecx
  00011	8b 08		 mov	 ecx, DWORD PTR [eax]
  00013	52		 push	 edx
  00014	51		 push	 ecx
  00015	8b 0d 00 00 00
	00		 mov	 ecx, DWORD PTR ?KundunEventItemBag@@3PAVCItemBagZt@@A ; KundunEventItemBag
  0001b	e8 00 00 00 00	 call	 ?DropKundunEventItem@CItemBagZt@@QAEHHEEE@Z ; CItemBagZt::DropKundunEventItem

; 1290 : }

  00020	5d		 pop	 ebp
  00021	c3		 ret	 0
?KundunEventItemBoxOpen@@YAXPAUOBJECTSTRUCT@@EEE@Z ENDP	; KundunEventItemBoxOpen
_TEXT	ENDS
PUBLIC	?HallowinDayEventItemBoxOpen@@YAXPAUOBJECTSTRUCT@@@Z ; HallowinDayEventItemBoxOpen
EXTRN	?DropHallowinEventItem@CItemBagZt@@QAEHPAUOBJECTSTRUCT@@@Z:PROC ; CItemBagZt::DropHallowinEventItem
EXTRN	?HallowinDayEventItemBag@@3PAVCItemBagZt@@A:DWORD ; HallowinDayEventItemBag
; Function compile flags: /Ogtp
;	COMDAT ?HallowinDayEventItemBoxOpen@@YAXPAUOBJECTSTRUCT@@@Z
_TEXT	SEGMENT
_lpObj$ = 8						; size = 4
?HallowinDayEventItemBoxOpen@@YAXPAUOBJECTSTRUCT@@@Z PROC ; HallowinDayEventItemBoxOpen, COMDAT

; 1294 : {

  00000	55		 push	 ebp
  00001	8b ec		 mov	 ebp, esp

; 1295 : 	HallowinDayEventItemBag->DropHallowinEventItem(lpObj);

  00003	8b 45 08	 mov	 eax, DWORD PTR _lpObj$[ebp]
  00006	8b 0d 00 00 00
	00		 mov	 ecx, DWORD PTR ?HallowinDayEventItemBag@@3PAVCItemBagZt@@A ; HallowinDayEventItemBag
  0000c	50		 push	 eax
  0000d	e8 00 00 00 00	 call	 ?DropHallowinEventItem@CItemBagZt@@QAEHPAUOBJECTSTRUCT@@@Z ; CItemBagZt::DropHallowinEventItem

; 1296 : }

  00012	5d		 pop	 ebp
  00013	c3		 ret	 0
?HallowinDayEventItemBoxOpen@@YAXPAUOBJECTSTRUCT@@@Z ENDP ; HallowinDayEventItemBoxOpen
_TEXT	ENDS
PUBLIC	?ChristmasStarDrop@@YAXPAUOBJECTSTRUCT@@@Z	; ChristmasStarDrop
; Function compile flags: /Ogtp
;	COMDAT ?ChristmasStarDrop@@YAXPAUOBJECTSTRUCT@@@Z
_TEXT	SEGMENT
_ServerCmd$ = -8					; size = 7
_lpObj$ = 8						; size = 4
?ChristmasStarDrop@@YAXPAUOBJECTSTRUCT@@@Z PROC		; ChristmasStarDrop, COMDAT

; 1300 : {

  00000	55		 push	 ebp
  00001	8b ec		 mov	 ebp, esp
  00003	83 ec 08	 sub	 esp, 8
  00006	56		 push	 esi

; 1301 : 	PMSG_SERVERCMD ServerCmd;
; 1302 : 
; 1303 : 	PHeadSubSetB((LPBYTE)&ServerCmd, 0xF3, 0x40, sizeof(ServerCmd));

  00007	6a 07		 push	 7
  00009	6a 40		 push	 64			; 00000040H
  0000b	8d 45 f8	 lea	 eax, DWORD PTR _ServerCmd$[ebp]
  0000e	68 f3 00 00 00	 push	 243			; 000000f3H
  00013	50		 push	 eax
  00014	e8 00 00 00 00	 call	 ?PHeadSubSetB@@YAXPAEEEH@Z ; PHeadSubSetB

; 1304 : 	ServerCmd.CmdType = 0;
; 1305 : 	ServerCmd.X = lpObj->X;

  00019	8b 75 08	 mov	 esi, DWORD PTR _lpObj$[ebp]
  0001c	8a 8e 44 01 00
	00		 mov	 cl, BYTE PTR [esi+324]

; 1306 : 	ServerCmd.Y = lpObj->Y;

  00022	8a 96 46 01 00
	00		 mov	 dl, BYTE PTR [esi+326]

; 1307 : 	MsgSendV2(lpObj, (LPBYTE)&ServerCmd, sizeof(ServerCmd));

  00028	6a 07		 push	 7
  0002a	8d 45 f8	 lea	 eax, DWORD PTR _ServerCmd$[ebp]
  0002d	50		 push	 eax
  0002e	56		 push	 esi
  0002f	c6 45 fc 00	 mov	 BYTE PTR _ServerCmd$[ebp+4], 0
  00033	88 4d fd	 mov	 BYTE PTR _ServerCmd$[ebp+5], cl
  00036	88 55 fe	 mov	 BYTE PTR _ServerCmd$[ebp+6], dl
  00039	e8 00 00 00 00	 call	 ?MsgSendV2@@YAXPAUOBJECTSTRUCT@@PAEH@Z ; MsgSendV2

; 1308 : 	DataSend(lpObj->m_Index, (LPBYTE)&ServerCmd, sizeof(ServerCmd));

  0003e	8b 16		 mov	 edx, DWORD PTR [esi]
  00040	6a 07		 push	 7
  00042	8d 4d f8	 lea	 ecx, DWORD PTR _ServerCmd$[ebp]
  00045	51		 push	 ecx
  00046	52		 push	 edx
  00047	e8 00 00 00 00	 call	 ?DataSend@@YAHHPAEK@Z	; DataSend
  0004c	83 c4 28	 add	 esp, 40			; 00000028H
  0004f	5e		 pop	 esi

; 1309 : }

  00050	8b e5		 mov	 esp, ebp
  00052	5d		 pop	 ebp
  00053	c3		 ret	 0
?ChristmasStarDrop@@YAXPAUOBJECTSTRUCT@@@Z ENDP		; ChristmasStarDrop
_TEXT	ENDS
PUBLIC	?ChristmasFireCrackDrop@@YAXPAUOBJECTSTRUCT@@@Z	; ChristmasFireCrackDrop
; Function compile flags: /Ogtp
;	COMDAT ?ChristmasFireCrackDrop@@YAXPAUOBJECTSTRUCT@@@Z
_TEXT	SEGMENT
_ServerCmd$ = -8					; size = 7
_lpObj$ = 8						; size = 4
?ChristmasFireCrackDrop@@YAXPAUOBJECTSTRUCT@@@Z PROC	; ChristmasFireCrackDrop, COMDAT

; 1312 : {

  00000	55		 push	 ebp
  00001	8b ec		 mov	 ebp, esp
  00003	83 ec 08	 sub	 esp, 8
  00006	56		 push	 esi

; 1313 : 	PMSG_SERVERCMD ServerCmd;
; 1314 : 
; 1315 : 	PHeadSubSetB((LPBYTE)&ServerCmd, 0xF3, 0x40, sizeof(ServerCmd));

  00007	6a 07		 push	 7
  00009	6a 40		 push	 64			; 00000040H
  0000b	8d 45 f8	 lea	 eax, DWORD PTR _ServerCmd$[ebp]
  0000e	68 f3 00 00 00	 push	 243			; 000000f3H
  00013	50		 push	 eax
  00014	e8 00 00 00 00	 call	 ?PHeadSubSetB@@YAXPAEEEH@Z ; PHeadSubSetB

; 1316 : 	ServerCmd.CmdType = 59;
; 1317 : 	ServerCmd.X = lpObj->X;

  00019	8b 75 08	 mov	 esi, DWORD PTR _lpObj$[ebp]
  0001c	8a 8e 44 01 00
	00		 mov	 cl, BYTE PTR [esi+324]

; 1318 : 	ServerCmd.Y = lpObj->Y;

  00022	8a 96 46 01 00
	00		 mov	 dl, BYTE PTR [esi+326]

; 1319 : 	MsgSendV2(lpObj, (LPBYTE)&ServerCmd, sizeof(ServerCmd));

  00028	6a 07		 push	 7
  0002a	8d 45 f8	 lea	 eax, DWORD PTR _ServerCmd$[ebp]
  0002d	50		 push	 eax
  0002e	56		 push	 esi
  0002f	c6 45 fc 3b	 mov	 BYTE PTR _ServerCmd$[ebp+4], 59 ; 0000003bH
  00033	88 4d fd	 mov	 BYTE PTR _ServerCmd$[ebp+5], cl
  00036	88 55 fe	 mov	 BYTE PTR _ServerCmd$[ebp+6], dl
  00039	e8 00 00 00 00	 call	 ?MsgSendV2@@YAXPAUOBJECTSTRUCT@@PAEH@Z ; MsgSendV2

; 1320 : 	DataSend(lpObj->m_Index, (LPBYTE)&ServerCmd, sizeof(ServerCmd));

  0003e	8b 16		 mov	 edx, DWORD PTR [esi]
  00040	6a 07		 push	 7
  00042	8d 4d f8	 lea	 ecx, DWORD PTR _ServerCmd$[ebp]
  00045	51		 push	 ecx
  00046	52		 push	 edx
  00047	e8 00 00 00 00	 call	 ?DataSend@@YAHHPAEK@Z	; DataSend
  0004c	83 c4 28	 add	 esp, 40			; 00000028H
  0004f	5e		 pop	 esi

; 1321 : }

  00050	8b e5		 mov	 esp, ebp
  00052	5d		 pop	 ebp
  00053	c3		 ret	 0
?ChristmasFireCrackDrop@@YAXPAUOBJECTSTRUCT@@@Z ENDP	; ChristmasFireCrackDrop
_TEXT	ENDS
PUBLIC	?CherryBlossomEventItemBoxOpen@@YAXPAUOBJECTSTRUCT@@EEE@Z ; CherryBlossomEventItemBoxOpen
EXTRN	?DropItem@CProbabilityItemBag@@QAEHHEEEPAH@Z:PROC ; CProbabilityItemBag::DropItem
EXTRN	?CherryBlossom1@@3PAVCProbabilityItemBag@@A:DWORD ; CherryBlossom1
; Function compile flags: /Ogtp
;	COMDAT ?CherryBlossomEventItemBoxOpen@@YAXPAUOBJECTSTRUCT@@EEE@Z
_TEXT	SEGMENT
_ServerCmd$215617 = -8					; size = 7
_lpObj$ = 8						; size = 4
_btMapNumber$ = 12					; size = 1
_cX$ = 16						; size = 1
_cY$ = 20						; size = 1
?CherryBlossomEventItemBoxOpen@@YAXPAUOBJECTSTRUCT@@EEE@Z PROC ; CherryBlossomEventItemBoxOpen, COMDAT

; 1324 : {

  00000	55		 push	 ebp
  00001	8b ec		 mov	 ebp, esp

; 1325 : 	if(CherryBlossom1->DropItem(lpObj->m_Index, btMapNumber, cX, cY, 0) != 0)

  00003	8b 45 14	 mov	 eax, DWORD PTR _cY$[ebp]
  00006	8b 4d 10	 mov	 ecx, DWORD PTR _cX$[ebp]
  00009	8b 55 0c	 mov	 edx, DWORD PTR _btMapNumber$[ebp]
  0000c	83 ec 08	 sub	 esp, 8
  0000f	56		 push	 esi
  00010	8b 75 08	 mov	 esi, DWORD PTR _lpObj$[ebp]
  00013	6a 00		 push	 0
  00015	50		 push	 eax
  00016	8b 06		 mov	 eax, DWORD PTR [esi]
  00018	51		 push	 ecx
  00019	8b 0d 00 00 00
	00		 mov	 ecx, DWORD PTR ?CherryBlossom1@@3PAVCProbabilityItemBag@@A ; CherryBlossom1
  0001f	52		 push	 edx
  00020	50		 push	 eax
  00021	e8 00 00 00 00	 call	 ?DropItem@CProbabilityItemBag@@QAEHHEEEPAH@Z ; CProbabilityItemBag::DropItem
  00026	85 c0		 test	 eax, eax
  00028	74 40		 je	 SHORT $LN1@CherryBlos

; 1326 : 	{
; 1327 : 		PMSG_SERVERCMD ServerCmd;
; 1328 : 
; 1329 : 		PHeadSubSetB((LPBYTE)&ServerCmd, 0xF3, 0x40, sizeof(ServerCmd));

  0002a	6a 07		 push	 7
  0002c	6a 40		 push	 64			; 00000040H
  0002e	8d 4d f8	 lea	 ecx, DWORD PTR _ServerCmd$215617[ebp]
  00031	68 f3 00 00 00	 push	 243			; 000000f3H
  00036	51		 push	 ecx
  00037	e8 00 00 00 00	 call	 ?PHeadSubSetB@@YAXPAEEEH@Z ; PHeadSubSetB

; 1330 : 		ServerCmd.CmdType = 58;
; 1331 : 		ServerCmd.X = SET_NUMBERH(lpObj->m_Index);

  0003c	8b 16		 mov	 edx, DWORD PTR [esi]

; 1332 : 		ServerCmd.Y = SET_NUMBERL(lpObj->m_Index);

  0003e	8a 06		 mov	 al, BYTE PTR [esi]

; 1333 : 		MsgSendV2(lpObj, (LPBYTE)&ServerCmd, sizeof(ServerCmd));

  00040	6a 07		 push	 7
  00042	8d 4d f8	 lea	 ecx, DWORD PTR _ServerCmd$215617[ebp]
  00045	51		 push	 ecx
  00046	c1 ea 08	 shr	 edx, 8
  00049	56		 push	 esi
  0004a	c6 45 fc 3a	 mov	 BYTE PTR _ServerCmd$215617[ebp+4], 58 ; 0000003aH
  0004e	88 55 fd	 mov	 BYTE PTR _ServerCmd$215617[ebp+5], dl
  00051	88 45 fe	 mov	 BYTE PTR _ServerCmd$215617[ebp+6], al
  00054	e8 00 00 00 00	 call	 ?MsgSendV2@@YAXPAUOBJECTSTRUCT@@PAEH@Z ; MsgSendV2

; 1334 : 		DataSend(lpObj->m_Index, (LPBYTE)&ServerCmd, sizeof(ServerCmd));

  00059	8b 06		 mov	 eax, DWORD PTR [esi]
  0005b	6a 07		 push	 7
  0005d	8d 55 f8	 lea	 edx, DWORD PTR _ServerCmd$215617[ebp]
  00060	52		 push	 edx
  00061	50		 push	 eax
  00062	e8 00 00 00 00	 call	 ?DataSend@@YAHHPAEK@Z	; DataSend
  00067	83 c4 28	 add	 esp, 40			; 00000028H
$LN1@CherryBlos:
  0006a	5e		 pop	 esi

; 1335 : 	}
; 1336 : }

  0006b	8b e5		 mov	 esp, ebp
  0006d	5d		 pop	 ebp
  0006e	c3		 ret	 0
?CherryBlossomEventItemBoxOpen@@YAXPAUOBJECTSTRUCT@@EEE@Z ENDP ; CherryBlossomEventItemBoxOpen
_TEXT	ENDS
PUBLIC	?CherryBlossomEventItemBoxAOpen@@YAHPAUOBJECTSTRUCT@@EEEPAH@Z ; CherryBlossomEventItemBoxAOpen
EXTRN	?CherryBlossom2@@3PAVCProbabilityItemBag@@A:DWORD ; CherryBlossom2
; Function compile flags: /Ogtp
;	COMDAT ?CherryBlossomEventItemBoxAOpen@@YAHPAUOBJECTSTRUCT@@EEEPAH@Z
_TEXT	SEGMENT
_lpObj$ = 8						; size = 4
_btMapNumber$ = 12					; size = 1
_cX$ = 16						; size = 1
_cY$ = 20						; size = 1
_iDropZen$ = 24						; size = 4
?CherryBlossomEventItemBoxAOpen@@YAHPAUOBJECTSTRUCT@@EEEPAH@Z PROC ; CherryBlossomEventItemBoxAOpen, COMDAT

; 1339 : {

  00000	55		 push	 ebp
  00001	8b ec		 mov	 ebp, esp

; 1340 : 	return CherryBlossom2->DropItem(lpObj->m_Index, btMapNumber, cX, cY, iDropZen);

  00003	8b 45 18	 mov	 eax, DWORD PTR _iDropZen$[ebp]
  00006	8b 4d 14	 mov	 ecx, DWORD PTR _cY$[ebp]
  00009	8b 55 10	 mov	 edx, DWORD PTR _cX$[ebp]
  0000c	50		 push	 eax
  0000d	8b 45 0c	 mov	 eax, DWORD PTR _btMapNumber$[ebp]
  00010	51		 push	 ecx
  00011	8b 4d 08	 mov	 ecx, DWORD PTR _lpObj$[ebp]
  00014	52		 push	 edx
  00015	8b 11		 mov	 edx, DWORD PTR [ecx]
  00017	8b 0d 00 00 00
	00		 mov	 ecx, DWORD PTR ?CherryBlossom2@@3PAVCProbabilityItemBag@@A ; CherryBlossom2
  0001d	50		 push	 eax
  0001e	52		 push	 edx
  0001f	e8 00 00 00 00	 call	 ?DropItem@CProbabilityItemBag@@QAEHHEEEPAH@Z ; CProbabilityItemBag::DropItem

; 1341 : }

  00024	5d		 pop	 ebp
  00025	c3		 ret	 0
?CherryBlossomEventItemBoxAOpen@@YAHPAUOBJECTSTRUCT@@EEEPAH@Z ENDP ; CherryBlossomEventItemBoxAOpen
_TEXT	ENDS
PUBLIC	?CherryBlossomEventItemBoxBOpen@@YAHPAUOBJECTSTRUCT@@EEEPAH@Z ; CherryBlossomEventItemBoxBOpen
EXTRN	?CherryBlossom3@@3PAVCProbabilityItemBag@@A:DWORD ; CherryBlossom3
; Function compile flags: /Ogtp
;	COMDAT ?CherryBlossomEventItemBoxBOpen@@YAHPAUOBJECTSTRUCT@@EEEPAH@Z
_TEXT	SEGMENT
_lpObj$ = 8						; size = 4
_btMapNumber$ = 12					; size = 1
_cX$ = 16						; size = 1
_cY$ = 20						; size = 1
_iDropZen$ = 24						; size = 4
?CherryBlossomEventItemBoxBOpen@@YAHPAUOBJECTSTRUCT@@EEEPAH@Z PROC ; CherryBlossomEventItemBoxBOpen, COMDAT

; 1344 : {

  00000	55		 push	 ebp
  00001	8b ec		 mov	 ebp, esp

; 1345 : 	return CherryBlossom3->DropItem(lpObj->m_Index, btMapNumber, cX, cY, iDropZen);

  00003	8b 45 18	 mov	 eax, DWORD PTR _iDropZen$[ebp]
  00006	8b 4d 14	 mov	 ecx, DWORD PTR _cY$[ebp]
  00009	8b 55 10	 mov	 edx, DWORD PTR _cX$[ebp]
  0000c	50		 push	 eax
  0000d	8b 45 0c	 mov	 eax, DWORD PTR _btMapNumber$[ebp]
  00010	51		 push	 ecx
  00011	8b 4d 08	 mov	 ecx, DWORD PTR _lpObj$[ebp]
  00014	52		 push	 edx
  00015	8b 11		 mov	 edx, DWORD PTR [ecx]
  00017	8b 0d 00 00 00
	00		 mov	 ecx, DWORD PTR ?CherryBlossom3@@3PAVCProbabilityItemBag@@A ; CherryBlossom3
  0001d	50		 push	 eax
  0001e	52		 push	 edx
  0001f	e8 00 00 00 00	 call	 ?DropItem@CProbabilityItemBag@@QAEHHEEEPAH@Z ; CProbabilityItemBag::DropItem

; 1346 : }

  00024	5d		 pop	 ebp
  00025	c3		 ret	 0
?CherryBlossomEventItemBoxBOpen@@YAHPAUOBJECTSTRUCT@@EEEPAH@Z ENDP ; CherryBlossomEventItemBoxBOpen
_TEXT	ENDS
PUBLIC	?CherryBlossomEventItemBoxCOpen@@YAHPAUOBJECTSTRUCT@@EEEPAH@Z ; CherryBlossomEventItemBoxCOpen
EXTRN	?CherryBlossom4@@3PAVCProbabilityItemBag@@A:DWORD ; CherryBlossom4
; Function compile flags: /Ogtp
;	COMDAT ?CherryBlossomEventItemBoxCOpen@@YAHPAUOBJECTSTRUCT@@EEEPAH@Z
_TEXT	SEGMENT
_lpObj$ = 8						; size = 4
_btMapNumber$ = 12					; size = 1
_cX$ = 16						; size = 1
_cY$ = 20						; size = 1
_iDropZen$ = 24						; size = 4
?CherryBlossomEventItemBoxCOpen@@YAHPAUOBJECTSTRUCT@@EEEPAH@Z PROC ; CherryBlossomEventItemBoxCOpen, COMDAT

; 1349 : {

  00000	55		 push	 ebp
  00001	8b ec		 mov	 ebp, esp

; 1350 : 	return CherryBlossom4->DropItem(lpObj->m_Index, btMapNumber, cX, cY, iDropZen);

  00003	8b 45 18	 mov	 eax, DWORD PTR _iDropZen$[ebp]
  00006	8b 4d 14	 mov	 ecx, DWORD PTR _cY$[ebp]
  00009	8b 55 10	 mov	 edx, DWORD PTR _cX$[ebp]
  0000c	50		 push	 eax
  0000d	8b 45 0c	 mov	 eax, DWORD PTR _btMapNumber$[ebp]
  00010	51		 push	 ecx
  00011	8b 4d 08	 mov	 ecx, DWORD PTR _lpObj$[ebp]
  00014	52		 push	 edx
  00015	8b 11		 mov	 edx, DWORD PTR [ecx]
  00017	8b 0d 00 00 00
	00		 mov	 ecx, DWORD PTR ?CherryBlossom4@@3PAVCProbabilityItemBag@@A ; CherryBlossom4
  0001d	50		 push	 eax
  0001e	52		 push	 edx
  0001f	e8 00 00 00 00	 call	 ?DropItem@CProbabilityItemBag@@QAEHHEEEPAH@Z ; CProbabilityItemBag::DropItem

; 1351 : }

  00024	5d		 pop	 ebp
  00025	c3		 ret	 0
?CherryBlossomEventItemBoxCOpen@@YAHPAUOBJECTSTRUCT@@EEEPAH@Z ENDP ; CherryBlossomEventItemBoxCOpen
_TEXT	ENDS
PUBLIC	?CastleHuntZoneBossRewardOpen@@YAXPAUOBJECTSTRUCT@@EEE@Z ; CastleHuntZoneBossRewardOpen
EXTRN	?DropCastleHuntZoneBossReward@CItemBagZt@@QAEHHEEE@Z:PROC ; CItemBagZt::DropCastleHuntZoneBossReward
EXTRN	?CastleHuntZoneBossItemBag@@3PAVCItemBagZt@@A:DWORD ; CastleHuntZoneBossItemBag
; Function compile flags: /Ogtp
;	COMDAT ?CastleHuntZoneBossRewardOpen@@YAXPAUOBJECTSTRUCT@@EEE@Z
_TEXT	SEGMENT
_lpObj$ = 8						; size = 4
_btMapNumber$ = 12					; size = 1
_cX$ = 16						; size = 1
_cY$ = 20						; size = 1
?CastleHuntZoneBossRewardOpen@@YAXPAUOBJECTSTRUCT@@EEE@Z PROC ; CastleHuntZoneBossRewardOpen, COMDAT

; 1355 : {

  00000	55		 push	 ebp
  00001	8b ec		 mov	 ebp, esp

; 1356 : 	CastleHuntZoneBossItemBag->DropCastleHuntZoneBossReward(lpObj->m_Index, btMapNumber, cX, cY);

  00003	8b 45 14	 mov	 eax, DWORD PTR _cY$[ebp]
  00006	8b 4d 10	 mov	 ecx, DWORD PTR _cX$[ebp]
  00009	8b 55 0c	 mov	 edx, DWORD PTR _btMapNumber$[ebp]
  0000c	50		 push	 eax
  0000d	8b 45 08	 mov	 eax, DWORD PTR _lpObj$[ebp]
  00010	51		 push	 ecx
  00011	8b 08		 mov	 ecx, DWORD PTR [eax]
  00013	52		 push	 edx
  00014	51		 push	 ecx
  00015	8b 0d 00 00 00
	00		 mov	 ecx, DWORD PTR ?CastleHuntZoneBossItemBag@@3PAVCItemBagZt@@A ; CastleHuntZoneBossItemBag
  0001b	e8 00 00 00 00	 call	 ?DropCastleHuntZoneBossReward@CItemBagZt@@QAEHHEEE@Z ; CItemBagZt::DropCastleHuntZoneBossReward

; 1357 : }

  00020	5d		 pop	 ebp
  00021	c3		 ret	 0
?CastleHuntZoneBossRewardOpen@@YAXPAUOBJECTSTRUCT@@EEE@Z ENDP ; CastleHuntZoneBossRewardOpen
_TEXT	ENDS
PUBLIC	?CrywolfDarkElfItemBagOpen@@YAXPAUOBJECTSTRUCT@@EEE@Z ; CrywolfDarkElfItemBagOpen
EXTRN	?DropCrywolfDarkElfItem@CItemBagZt@@QAEHHEEE@Z:PROC ; CItemBagZt::DropCrywolfDarkElfItem
EXTRN	?CrywolfDarkElfItemBag@@3PAVCItemBagZt@@A:DWORD	; CrywolfDarkElfItemBag
; Function compile flags: /Ogtp
;	COMDAT ?CrywolfDarkElfItemBagOpen@@YAXPAUOBJECTSTRUCT@@EEE@Z
_TEXT	SEGMENT
_lpObj$ = 8						; size = 4
_btMapNumber$ = 12					; size = 1
_cX$ = 16						; size = 1
_cY$ = 20						; size = 1
?CrywolfDarkElfItemBagOpen@@YAXPAUOBJECTSTRUCT@@EEE@Z PROC ; CrywolfDarkElfItemBagOpen, COMDAT

; 1361 : {

  00000	55		 push	 ebp
  00001	8b ec		 mov	 ebp, esp

; 1362 : 	CrywolfDarkElfItemBag->DropCrywolfDarkElfItem(lpObj->m_Index, btMapNumber, cX, cY);

  00003	8b 45 14	 mov	 eax, DWORD PTR _cY$[ebp]
  00006	8b 4d 10	 mov	 ecx, DWORD PTR _cX$[ebp]
  00009	8b 55 0c	 mov	 edx, DWORD PTR _btMapNumber$[ebp]
  0000c	50		 push	 eax
  0000d	8b 45 08	 mov	 eax, DWORD PTR _lpObj$[ebp]
  00010	51		 push	 ecx
  00011	8b 08		 mov	 ecx, DWORD PTR [eax]
  00013	52		 push	 edx
  00014	51		 push	 ecx
  00015	8b 0d 00 00 00
	00		 mov	 ecx, DWORD PTR ?CrywolfDarkElfItemBag@@3PAVCItemBagZt@@A ; CrywolfDarkElfItemBag
  0001b	e8 00 00 00 00	 call	 ?DropCrywolfDarkElfItem@CItemBagZt@@QAEHHEEE@Z ; CItemBagZt::DropCrywolfDarkElfItem

; 1363 : }

  00020	5d		 pop	 ebp
  00021	c3		 ret	 0
?CrywolfDarkElfItemBagOpen@@YAXPAUOBJECTSTRUCT@@EEE@Z ENDP ; CrywolfDarkElfItemBagOpen
_TEXT	ENDS
PUBLIC	?CrywolfBossMonsterItemBagOpen@@YAXPAUOBJECTSTRUCT@@EEE@Z ; CrywolfBossMonsterItemBagOpen
EXTRN	?DropCrywolfBossMonsterItem@CItemBagZt@@QAEHHEEE@Z:PROC ; CItemBagZt::DropCrywolfBossMonsterItem
EXTRN	?CrywolfBossMonsterItemBag@@3PAVCItemBagZt@@A:DWORD ; CrywolfBossMonsterItemBag
EXTRN	?CheckUser@CZtLicense@@QAE_NH@Z:PROC		; CZtLicense::CheckUser
EXTRN	?g_ZtLicense@@3VCZtLicense@@A:BYTE		; g_ZtLicense
; Function compile flags: /Ogtp
;	COMDAT ?CrywolfBossMonsterItemBagOpen@@YAXPAUOBJECTSTRUCT@@EEE@Z
_TEXT	SEGMENT
tv162 = -4						; size = 4
_lpObj$ = 8						; size = 4
_btMapNumber$ = 12					; size = 1
_cX$ = 16						; size = 1
_cY$ = 20						; size = 1
?CrywolfBossMonsterItemBagOpen@@YAXPAUOBJECTSTRUCT@@EEE@Z PROC ; CrywolfBossMonsterItemBagOpen, COMDAT

; 1366 : {

  00000	55		 push	 ebp
  00001	8b ec		 mov	 ebp, esp
  00003	51		 push	 ecx

; 1367 : 	if(g_ZtLicense.CheckUser(eZtUB::NSGames))

  00004	6a 51		 push	 81			; 00000051H
  00006	b9 00 00 00 00	 mov	 ecx, OFFSET ?g_ZtLicense@@3VCZtLicense@@A ; g_ZtLicense
  0000b	e8 00 00 00 00	 call	 ?CheckUser@CZtLicense@@QAE_NH@Z ; CZtLicense::CheckUser
  00010	84 c0		 test	 al, al
  00012	74 33		 je	 SHORT $LN5@CrywolfBos

; 1368 : 	{
; 1369 : 		for(int i = 0; i < 3; i++)

  00014	53		 push	 ebx
  00015	8b 5d 10	 mov	 ebx, DWORD PTR _cX$[ebp]
  00018	56		 push	 esi
  00019	8b 75 08	 mov	 esi, DWORD PTR _lpObj$[ebp]
  0001c	57		 push	 edi
  0001d	8b 7d 0c	 mov	 edi, DWORD PTR _btMapNumber$[ebp]
  00020	c7 45 fc 03 00
	00 00		 mov	 DWORD PTR tv162[ebp], 3
$LL4@CrywolfBos:

; 1370 : 		{
; 1371 : 			CrywolfBossMonsterItemBag->DropCrywolfBossMonsterItem(lpObj->m_Index, btMapNumber, cX, cY);

  00027	8b 45 14	 mov	 eax, DWORD PTR _cY$[ebp]
  0002a	8b 0e		 mov	 ecx, DWORD PTR [esi]
  0002c	50		 push	 eax
  0002d	53		 push	 ebx
  0002e	57		 push	 edi
  0002f	51		 push	 ecx
  00030	8b 0d 00 00 00
	00		 mov	 ecx, DWORD PTR ?CrywolfBossMonsterItemBag@@3PAVCItemBagZt@@A ; CrywolfBossMonsterItemBag
  00036	e8 00 00 00 00	 call	 ?DropCrywolfBossMonsterItem@CItemBagZt@@QAEHHEEE@Z ; CItemBagZt::DropCrywolfBossMonsterItem
  0003b	ff 4d fc	 dec	 DWORD PTR tv162[ebp]
  0003e	75 e7		 jne	 SHORT $LL4@CrywolfBos
  00040	5f		 pop	 edi
  00041	5e		 pop	 esi
  00042	5b		 pop	 ebx

; 1377 : 	}	
; 1378 : }

  00043	8b e5		 mov	 esp, ebp
  00045	5d		 pop	 ebp
  00046	c3		 ret	 0
$LN5@CrywolfBos:

; 1372 : 		}
; 1373 : 	}
; 1374 : 	else
; 1375 : 	{
; 1376 : 		CrywolfBossMonsterItemBag->DropCrywolfBossMonsterItem(lpObj->m_Index, btMapNumber, cX, cY);

  00047	8b 55 14	 mov	 edx, DWORD PTR _cY$[ebp]
  0004a	8b 45 10	 mov	 eax, DWORD PTR _cX$[ebp]
  0004d	8b 4d 0c	 mov	 ecx, DWORD PTR _btMapNumber$[ebp]
  00050	52		 push	 edx
  00051	8b 55 08	 mov	 edx, DWORD PTR _lpObj$[ebp]
  00054	50		 push	 eax
  00055	8b 02		 mov	 eax, DWORD PTR [edx]
  00057	51		 push	 ecx
  00058	8b 0d 00 00 00
	00		 mov	 ecx, DWORD PTR ?CrywolfBossMonsterItemBag@@3PAVCItemBagZt@@A ; CrywolfBossMonsterItemBag
  0005e	50		 push	 eax
  0005f	e8 00 00 00 00	 call	 ?DropCrywolfBossMonsterItem@CItemBagZt@@QAEHHEEE@Z ; CItemBagZt::DropCrywolfBossMonsterItem

; 1377 : 	}	
; 1378 : }

  00064	8b e5		 mov	 esp, ebp
  00066	5d		 pop	 ebp
  00067	c3		 ret	 0
?CrywolfBossMonsterItemBagOpen@@YAXPAUOBJECTSTRUCT@@EEE@Z ENDP ; CrywolfBossMonsterItemBagOpen
_TEXT	ENDS
PUBLIC	?RaklionBossMonsterItemBagOpen@@YAXPAUOBJECTSTRUCT@@EEE@Z ; RaklionBossMonsterItemBagOpen
EXTRN	?DropRaklionSelupanMonsterReward@CProbabilityItemBag@@QAEHHEEE@Z:PROC ; CProbabilityItemBag::DropRaklionSelupanMonsterReward
EXTRN	?RaklionSelupanItemBag@@3PAVCProbabilityItemBag@@A:DWORD ; RaklionSelupanItemBag
; Function compile flags: /Ogtp
;	COMDAT ?RaklionBossMonsterItemBagOpen@@YAXPAUOBJECTSTRUCT@@EEE@Z
_TEXT	SEGMENT
_lpObj$ = 8						; size = 4
_btMapNumber$ = 12					; size = 1
_cX$ = 16						; size = 1
_cY$ = 20						; size = 1
?RaklionBossMonsterItemBagOpen@@YAXPAUOBJECTSTRUCT@@EEE@Z PROC ; RaklionBossMonsterItemBagOpen, COMDAT

; 1382 : {

  00000	55		 push	 ebp
  00001	8b ec		 mov	 ebp, esp

; 1383 : 	RaklionSelupanItemBag->DropRaklionSelupanMonsterReward(lpObj->m_Index, btMapNumber, cX, cY);

  00003	8b 45 14	 mov	 eax, DWORD PTR _cY$[ebp]
  00006	8b 4d 10	 mov	 ecx, DWORD PTR _cX$[ebp]
  00009	8b 55 0c	 mov	 edx, DWORD PTR _btMapNumber$[ebp]
  0000c	50		 push	 eax
  0000d	8b 45 08	 mov	 eax, DWORD PTR _lpObj$[ebp]
  00010	51		 push	 ecx
  00011	8b 08		 mov	 ecx, DWORD PTR [eax]
  00013	52		 push	 edx
  00014	51		 push	 ecx
  00015	8b 0d 00 00 00
	00		 mov	 ecx, DWORD PTR ?RaklionSelupanItemBag@@3PAVCProbabilityItemBag@@A ; RaklionSelupanItemBag
  0001b	e8 00 00 00 00	 call	 ?DropRaklionSelupanMonsterReward@CProbabilityItemBag@@QAEHHEEE@Z ; CProbabilityItemBag::DropRaklionSelupanMonsterReward

; 1384 : }

  00020	5d		 pop	 ebp
  00021	c3		 ret	 0
?RaklionBossMonsterItemBagOpen@@YAXPAUOBJECTSTRUCT@@EEE@Z ENDP ; RaklionBossMonsterItemBagOpen
_TEXT	ENDS
PUBLIC	?LuckyCoint10ItemBagOpen@@YAXPAUOBJECTSTRUCT@@EEE@Z ; LuckyCoint10ItemBagOpen
EXTRN	?LuckyCoin10@@3PAVCProbabilityItemBag@@A:DWORD	; LuckyCoin10
; Function compile flags: /Ogtp
;	COMDAT ?LuckyCoint10ItemBagOpen@@YAXPAUOBJECTSTRUCT@@EEE@Z
_TEXT	SEGMENT
_lpObj$ = 8						; size = 4
_btMapNumber$ = 12					; size = 1
_cX$ = 16						; size = 1
_cY$ = 20						; size = 1
?LuckyCoint10ItemBagOpen@@YAXPAUOBJECTSTRUCT@@EEE@Z PROC ; LuckyCoint10ItemBagOpen, COMDAT

; 1388 : {

  00000	55		 push	 ebp
  00001	8b ec		 mov	 ebp, esp

; 1389 : 	LuckyCoin10->DropItem(lpObj->m_Index, btMapNumber, cX, cY);

  00003	8b 45 14	 mov	 eax, DWORD PTR _cY$[ebp]
  00006	8b 4d 10	 mov	 ecx, DWORD PTR _cX$[ebp]
  00009	8b 55 0c	 mov	 edx, DWORD PTR _btMapNumber$[ebp]
  0000c	50		 push	 eax
  0000d	8b 45 08	 mov	 eax, DWORD PTR _lpObj$[ebp]
  00010	51		 push	 ecx
  00011	8b 08		 mov	 ecx, DWORD PTR [eax]
  00013	52		 push	 edx
  00014	51		 push	 ecx
  00015	8b 0d 00 00 00
	00		 mov	 ecx, DWORD PTR ?LuckyCoin10@@3PAVCProbabilityItemBag@@A ; LuckyCoin10
  0001b	e8 00 00 00 00	 call	 ?DropItem@CProbabilityItemBag@@QAEHHEEE@Z ; CProbabilityItemBag::DropItem

; 1390 : }

  00020	5d		 pop	 ebp
  00021	c3		 ret	 0
?LuckyCoint10ItemBagOpen@@YAXPAUOBJECTSTRUCT@@EEE@Z ENDP ; LuckyCoint10ItemBagOpen
_TEXT	ENDS
PUBLIC	?LuckyCoint20ItemBagOpen@@YAXPAUOBJECTSTRUCT@@EEE@Z ; LuckyCoint20ItemBagOpen
EXTRN	?LuckyCoin20@@3PAVCProbabilityItemBag@@A:DWORD	; LuckyCoin20
; Function compile flags: /Ogtp
;	COMDAT ?LuckyCoint20ItemBagOpen@@YAXPAUOBJECTSTRUCT@@EEE@Z
_TEXT	SEGMENT
_lpObj$ = 8						; size = 4
_btMapNumber$ = 12					; size = 1
_cX$ = 16						; size = 1
_cY$ = 20						; size = 1
?LuckyCoint20ItemBagOpen@@YAXPAUOBJECTSTRUCT@@EEE@Z PROC ; LuckyCoint20ItemBagOpen, COMDAT

; 1394 : {

  00000	55		 push	 ebp
  00001	8b ec		 mov	 ebp, esp

; 1395 : 	LuckyCoin20->DropItem(lpObj->m_Index, btMapNumber, cX, cY);

  00003	8b 45 14	 mov	 eax, DWORD PTR _cY$[ebp]
  00006	8b 4d 10	 mov	 ecx, DWORD PTR _cX$[ebp]
  00009	8b 55 0c	 mov	 edx, DWORD PTR _btMapNumber$[ebp]
  0000c	50		 push	 eax
  0000d	8b 45 08	 mov	 eax, DWORD PTR _lpObj$[ebp]
  00010	51		 push	 ecx
  00011	8b 08		 mov	 ecx, DWORD PTR [eax]
  00013	52		 push	 edx
  00014	51		 push	 ecx
  00015	8b 0d 00 00 00
	00		 mov	 ecx, DWORD PTR ?LuckyCoin20@@3PAVCProbabilityItemBag@@A ; LuckyCoin20
  0001b	e8 00 00 00 00	 call	 ?DropItem@CProbabilityItemBag@@QAEHHEEE@Z ; CProbabilityItemBag::DropItem

; 1396 : }

  00020	5d		 pop	 ebp
  00021	c3		 ret	 0
?LuckyCoint20ItemBagOpen@@YAXPAUOBJECTSTRUCT@@EEE@Z ENDP ; LuckyCoint20ItemBagOpen
_TEXT	ENDS
PUBLIC	?LuckyCoint30ItemBagOpen@@YAXPAUOBJECTSTRUCT@@EEE@Z ; LuckyCoint30ItemBagOpen
EXTRN	?LuckyCoin30@@3PAVCProbabilityItemBag@@A:DWORD	; LuckyCoin30
; Function compile flags: /Ogtp
;	COMDAT ?LuckyCoint30ItemBagOpen@@YAXPAUOBJECTSTRUCT@@EEE@Z
_TEXT	SEGMENT
_lpObj$ = 8						; size = 4
_btMapNumber$ = 12					; size = 1
_cX$ = 16						; size = 1
_cY$ = 20						; size = 1
?LuckyCoint30ItemBagOpen@@YAXPAUOBJECTSTRUCT@@EEE@Z PROC ; LuckyCoint30ItemBagOpen, COMDAT

; 1400 : {

  00000	55		 push	 ebp
  00001	8b ec		 mov	 ebp, esp

; 1401 : 	LuckyCoin30->DropItem(lpObj->m_Index, btMapNumber, cX, cY);

  00003	8b 45 14	 mov	 eax, DWORD PTR _cY$[ebp]
  00006	8b 4d 10	 mov	 ecx, DWORD PTR _cX$[ebp]
  00009	8b 55 0c	 mov	 edx, DWORD PTR _btMapNumber$[ebp]
  0000c	50		 push	 eax
  0000d	8b 45 08	 mov	 eax, DWORD PTR _lpObj$[ebp]
  00010	51		 push	 ecx
  00011	8b 08		 mov	 ecx, DWORD PTR [eax]
  00013	52		 push	 edx
  00014	51		 push	 ecx
  00015	8b 0d 00 00 00
	00		 mov	 ecx, DWORD PTR ?LuckyCoin30@@3PAVCProbabilityItemBag@@A ; LuckyCoin30
  0001b	e8 00 00 00 00	 call	 ?DropItem@CProbabilityItemBag@@QAEHHEEE@Z ; CProbabilityItemBag::DropItem

; 1402 : }

  00020	5d		 pop	 ebp
  00021	c3		 ret	 0
?LuckyCoint30ItemBagOpen@@YAXPAUOBJECTSTRUCT@@EEE@Z ENDP ; LuckyCoint30ItemBagOpen
_TEXT	ENDS
PUBLIC	?KanturuMayaHandItemBagOpen@@YAXPAUOBJECTSTRUCT@@EEE@Z ; KanturuMayaHandItemBagOpen
EXTRN	?DropKanturuMayaHandItem@CItemBagZt@@QAEHHEEE@Z:PROC ; CItemBagZt::DropKanturuMayaHandItem
EXTRN	?KanturuMayaHandItemBag@@3PAVCItemBagZt@@A:DWORD ; KanturuMayaHandItemBag
; Function compile flags: /Ogtp
;	COMDAT ?KanturuMayaHandItemBagOpen@@YAXPAUOBJECTSTRUCT@@EEE@Z
_TEXT	SEGMENT
_lpObj$ = 8						; size = 4
_btMapNumber$ = 12					; size = 1
_cX$ = 16						; size = 1
_cY$ = 20						; size = 1
?KanturuMayaHandItemBagOpen@@YAXPAUOBJECTSTRUCT@@EEE@Z PROC ; KanturuMayaHandItemBagOpen, COMDAT

; 1406 : {

  00000	55		 push	 ebp
  00001	8b ec		 mov	 ebp, esp

; 1407 : 	KanturuMayaHandItemBag->DropKanturuMayaHandItem(lpObj->m_Index, btMapNumber, cX, cY);

  00003	8b 45 14	 mov	 eax, DWORD PTR _cY$[ebp]
  00006	8b 4d 10	 mov	 ecx, DWORD PTR _cX$[ebp]
  00009	8b 55 0c	 mov	 edx, DWORD PTR _btMapNumber$[ebp]
  0000c	50		 push	 eax
  0000d	8b 45 08	 mov	 eax, DWORD PTR _lpObj$[ebp]
  00010	51		 push	 ecx
  00011	8b 08		 mov	 ecx, DWORD PTR [eax]
  00013	52		 push	 edx
  00014	51		 push	 ecx
  00015	8b 0d 00 00 00
	00		 mov	 ecx, DWORD PTR ?KanturuMayaHandItemBag@@3PAVCItemBagZt@@A ; KanturuMayaHandItemBag
  0001b	e8 00 00 00 00	 call	 ?DropKanturuMayaHandItem@CItemBagZt@@QAEHHEEE@Z ; CItemBagZt::DropKanturuMayaHandItem

; 1408 : }

  00020	5d		 pop	 ebp
  00021	c3		 ret	 0
?KanturuMayaHandItemBagOpen@@YAXPAUOBJECTSTRUCT@@EEE@Z ENDP ; KanturuMayaHandItemBagOpen
_TEXT	ENDS
PUBLIC	?KanturuNightmareItemBagOpen@@YAXPAUOBJECTSTRUCT@@EEE@Z ; KanturuNightmareItemBagOpen
EXTRN	?DropKanturuNightmareItem@CItemBagZt@@QAEHHEEE@Z:PROC ; CItemBagZt::DropKanturuNightmareItem
EXTRN	?KanturuNightmareItemBag@@3PAVCItemBagZt@@A:DWORD ; KanturuNightmareItemBag
; Function compile flags: /Ogtp
;	COMDAT ?KanturuNightmareItemBagOpen@@YAXPAUOBJECTSTRUCT@@EEE@Z
_TEXT	SEGMENT
_lpObj$ = 8						; size = 4
_btMapNumber$ = 12					; size = 1
_cX$ = 16						; size = 1
_cY$ = 20						; size = 1
?KanturuNightmareItemBagOpen@@YAXPAUOBJECTSTRUCT@@EEE@Z PROC ; KanturuNightmareItemBagOpen, COMDAT

; 1412 : {

  00000	55		 push	 ebp
  00001	8b ec		 mov	 ebp, esp

; 1413 : 	KanturuNightmareItemBag->DropKanturuNightmareItem(lpObj->m_Index, btMapNumber, cX, cY);

  00003	8b 45 14	 mov	 eax, DWORD PTR _cY$[ebp]
  00006	8b 4d 10	 mov	 ecx, DWORD PTR _cX$[ebp]
  00009	8b 55 0c	 mov	 edx, DWORD PTR _btMapNumber$[ebp]
  0000c	50		 push	 eax
  0000d	8b 45 08	 mov	 eax, DWORD PTR _lpObj$[ebp]
  00010	51		 push	 ecx
  00011	8b 08		 mov	 ecx, DWORD PTR [eax]
  00013	52		 push	 edx
  00014	51		 push	 ecx
  00015	8b 0d 00 00 00
	00		 mov	 ecx, DWORD PTR ?KanturuNightmareItemBag@@3PAVCItemBagZt@@A ; KanturuNightmareItemBag
  0001b	e8 00 00 00 00	 call	 ?DropKanturuNightmareItem@CItemBagZt@@QAEHHEEE@Z ; CItemBagZt::DropKanturuNightmareItem

; 1414 : }

  00020	5d		 pop	 ebp
  00021	c3		 ret	 0
?KanturuNightmareItemBagOpen@@YAXPAUOBJECTSTRUCT@@EEE@Z ENDP ; KanturuNightmareItemBagOpen
_TEXT	ENDS
PUBLIC	??_C@_0FK@KOHFDIAF@?$FL?$CFs?$FN?$FL?$CFs?$FN?$FLLucky?5Box?5Item?5Drop?$FN?5?3?5@ ; `string'
PUBLIC	__$ArrayPad$
PUBLIC	?LuckyBoxOpenEven@@YAXPAUOBJECTSTRUCT@@@Z	; LuckyBoxOpenEven
;	COMDAT ??_C@_0FK@KOHFDIAF@?$FL?$CFs?$FN?$FL?$CFs?$FN?$FLLucky?5Box?5Item?5Drop?$FN?5?3?5@
; File e:\work\tranet_version\gs\gameserver\itembag.h
CONST	SEGMENT
??_C@_0FK@KOHFDIAF@?$FL?$CFs?$FN?$FL?$CFs?$FN?$FLLucky?5Box?5Item?5Drop?$FN?5?3?5@ DB '['
	DB	'%s][%s][Lucky Box Item Drop] : (%d)(X:%d/Y:%d) Item:%s(%d) Le'
	DB	'vel:%d Op1:%d Op2:%d Op3:%d', 00H		; `string'
; Function compile flags: /Ogtp
; File e:\work\tranet_version\gs\gameserver\event.cpp
CONST	ENDS
;	COMDAT ?LuckyBoxOpenEven@@YAXPAUOBJECTSTRUCT@@@Z
_TEXT	SEGMENT
_y$ = -240						; size = 4
_x$ = -236						; size = 4
_DropItemNum$ = -232					; size = 4
_Option2$ = -228					; size = 4
_Option3$ = -224					; size = 4
tv555 = -220						; size = 4
_n$215740 = -220					; size = 4
_Option1$ = -220					; size = 4
_EventItem$215738 = -216				; size = 212
__$ArrayPad$ = -4					; size = 4
_lpObj$ = 8						; size = 4
?LuckyBoxOpenEven@@YAXPAUOBJECTSTRUCT@@@Z PROC		; LuckyBoxOpenEven, COMDAT

; 1422 : {

  00000	55		 push	 ebp
  00001	8b ec		 mov	 ebp, esp
  00003	81 ec f0 00 00
	00		 sub	 esp, 240		; 000000f0H
  00009	a1 00 00 00 00	 mov	 eax, DWORD PTR ___security_cookie
  0000e	33 c5		 xor	 eax, ebp
  00010	89 45 fc	 mov	 DWORD PTR __$ArrayPad$[ebp], eax

; 1423 : 	float dur;
; 1424 : 	int type;
; 1425 : 	int level;
; 1426 : 	int x;
; 1427 : 	int y;
; 1428 : 	int Option1=0;
; 1429 : 	int Option2=0;
; 1430 : 	int Option3=0;
; 1431 : 	int DropItemNum;
; 1432 : 
; 1433 : 
; 1434 : 	if ( !LuckboxItemBag )

  00013	a1 00 00 00 00	 mov	 eax, DWORD PTR ?LuckboxItemBag@@3PAVCItemBag@@A ; LuckboxItemBag
  00018	56		 push	 esi
  00019	8b 75 08	 mov	 esi, DWORD PTR _lpObj$[ebp]
  0001c	85 c0		 test	 eax, eax
  0001e	0f 84 04 04 00
	00		 je	 $LN1@LuckyBoxOp

; 1435 : 		return;
; 1436 : 
; 1437 : 	if ( LuckboxItemBag->GetBagCount() > 0 )

  00024	83 b8 88 03 00
	00 00		 cmp	 DWORD PTR [eax+904], 0
  0002b	53		 push	 ebx
  0002c	57		 push	 edi
  0002d	0f 8e 55 03 00
	00		 jle	 $LN24@LuckyBoxOp

; 1438 : 	{
; 1439 : 		if ( (rand()%10)<2 )

  00033	e8 00 00 00 00	 call	 _rand
  00038	99		 cdq
  00039	b9 0a 00 00 00	 mov	 ecx, 10			; 0000000aH
  0003e	f7 f9		 idiv	 ecx
  00040	83 fa 02	 cmp	 edx, 2
  00043	0f 8d 3f 03 00
	00		 jge	 $LN24@LuckyBoxOp

; 1440 : 		{
; 1441 : 			DropItemNum = rand()%LuckboxItemBag->GetBagCount();

  00049	8b 15 00 00 00
	00		 mov	 edx, DWORD PTR ?LuckboxItemBag@@3PAVCItemBag@@A ; LuckboxItemBag
  0004f	8b ba 88 03 00
	00		 mov	 edi, DWORD PTR [edx+904]
  00055	e8 00 00 00 00	 call	 _rand
  0005a	99		 cdq
  0005b	f7 ff		 idiv	 edi

; 1442 : 			dur=0;
; 1443 : 			x = lpObj->X;
; 1444 : 			y = lpObj->Y;

  0005d	0f bf 8e 46 01
	00 00		 movsx	 ecx, WORD PTR [esi+326]
  00064	0f bf 86 44 01
	00 00		 movsx	 eax, WORD PTR [esi+324]
  0006b	89 8d 10 ff ff
	ff		 mov	 DWORD PTR _y$[ebp], ecx

; 1445 : 			level = LuckboxItemBag->GetLevel(DropItemNum) + rand()%2;

  00071	8b 0d 00 00 00
	00		 mov	 ecx, DWORD PTR ?LuckboxItemBag@@3PAVCItemBag@@A ; LuckboxItemBag
  00077	89 85 14 ff ff
	ff		 mov	 DWORD PTR _x$[ebp], eax
  0007d	8b da		 mov	 ebx, edx
  0007f	53		 push	 ebx
  00080	89 9d 18 ff ff
	ff		 mov	 DWORD PTR _DropItemNum$[ebp], ebx
  00086	e8 00 00 00 00	 call	 ?GetLevel@CItemBag@@QAEEH@Z ; CItemBag::GetLevel
  0008b	0f b6 d0	 movzx	 edx, al
  0008e	89 95 24 ff ff
	ff		 mov	 DWORD PTR tv555[ebp], edx
  00094	e8 00 00 00 00	 call	 _rand
  00099	8b f8		 mov	 edi, eax
  0009b	81 e7 01 00 00
	80		 and	 edi, -2147483647	; 80000001H
  000a1	79 05		 jns	 SHORT $LN29@LuckyBoxOp
  000a3	4f		 dec	 edi
  000a4	83 cf fe	 or	 edi, -2			; fffffffeH
  000a7	47		 inc	 edi
$LN29@LuckyBoxOp:

; 1446 : 			type = ItemGetNumberMake(LuckboxItemBag->GetType(DropItemNum), LuckboxItemBag->GetIndex(DropItemNum));

  000a8	8b 0d 00 00 00
	00		 mov	 ecx, DWORD PTR ?LuckboxItemBag@@3PAVCItemBag@@A ; LuckboxItemBag
  000ae	03 bd 24 ff ff
	ff		 add	 edi, DWORD PTR tv555[ebp]
  000b4	53		 push	 ebx
  000b5	e8 00 00 00 00	 call	 ?GetIndex@CItemBag@@QAEEH@Z ; CItemBag::GetIndex
  000ba	8b 0d 00 00 00
	00		 mov	 ecx, DWORD PTR ?LuckboxItemBag@@3PAVCItemBag@@A ; LuckboxItemBag
  000c0	0f b6 c0	 movzx	 eax, al
  000c3	50		 push	 eax
  000c4	53		 push	 ebx
  000c5	e8 00 00 00 00	 call	 ?GetType@CItemBag@@QAEEH@Z ; CItemBag::GetType
  000ca	0f b6 c8	 movzx	 ecx, al
  000cd	51		 push	 ecx
  000ce	e8 00 00 00 00	 call	 ?ItemGetNumberMake@@YAHHH@Z ; ItemGetNumberMake
  000d3	83 c4 08	 add	 esp, 8
  000d6	8b d8		 mov	 ebx, eax

; 1447 : 			Option1 = rand()%2;

  000d8	e8 00 00 00 00	 call	 _rand
  000dd	25 01 00 00 80	 and	 eax, -2147483647	; 80000001H
  000e2	79 05		 jns	 SHORT $LN30@LuckyBoxOp
  000e4	48		 dec	 eax
  000e5	83 c8 fe	 or	 eax, -2			; fffffffeH
  000e8	40		 inc	 eax
$LN30@LuckyBoxOp:
  000e9	89 85 24 ff ff
	ff		 mov	 DWORD PTR _Option1$[ebp], eax

; 1448 : 			Option2 = rand()%2;

  000ef	e8 00 00 00 00	 call	 _rand
  000f4	25 01 00 00 80	 and	 eax, -2147483647	; 80000001H
  000f9	79 05		 jns	 SHORT $LN31@LuckyBoxOp
  000fb	48		 dec	 eax
  000fc	83 c8 fe	 or	 eax, -2			; fffffffeH
  000ff	40		 inc	 eax
$LN31@LuckyBoxOp:
  00100	89 85 1c ff ff
	ff		 mov	 DWORD PTR _Option2$[ebp], eax

; 1449 : 
; 1450 : 			if ( (rand()%5) <1 )

  00106	e8 00 00 00 00	 call	 _rand
  0010b	99		 cdq
  0010c	b9 05 00 00 00	 mov	 ecx, 5
  00111	f7 f9		 idiv	 ecx
  00113	83 fa 01	 cmp	 edx, 1
  00116	7d 0c		 jge	 SHORT $LN11@LuckyBoxOp

; 1451 : 				Option3 = 3;

  00118	c7 85 20 ff ff
	ff 03 00 00 00	 mov	 DWORD PTR _Option3$[ebp], 3

; 1452 : 			else

  00122	eb 18		 jmp	 SHORT $LN10@LuckyBoxOp
$LN11@LuckyBoxOp:

; 1453 : 				Option3 = rand()%2+1;

  00124	e8 00 00 00 00	 call	 _rand
  00129	25 01 00 00 80	 and	 eax, -2147483647	; 80000001H
  0012e	79 05		 jns	 SHORT $LN32@LuckyBoxOp
  00130	48		 dec	 eax
  00131	83 c8 fe	 or	 eax, -2			; fffffffeH
  00134	40		 inc	 eax
$LN32@LuckyBoxOp:
  00135	40		 inc	 eax
  00136	89 85 20 ff ff
	ff		 mov	 DWORD PTR _Option3$[ebp], eax
$LN10@LuckyBoxOp:

; 1454 : 
; 1455 : 			if ( type == ITEMGET(12,15) ||
; 1456 : 				 type == ITEMGET(14,13) ||
; 1457 : 				 type == ITEMGET(14,14) ||
; 1458 : 				 type == ITEMGET(14,14) ||
; 1459 : 				 type == ITEMGET(14,16)	||
; 1460 : 				 type == ITEMGET(14,22)	||
; 1461 : 				 type == ITEMGET(14,31)	||
; 1462 : 				 type == ITEMGET(14,41)	||
; 1463 : 				 type == ITEMGET(14,42)	||
; 1464 : 				 type == ITEMGET(14,180)||
; 1465 : 				 type == ITEMGET(14,181)||
; 1466 : 				 type == ITEMGET(14,182)||
; 1467 : 				 type == ITEMGET(14,183)||
; 1468 : 				 type == ITEMGET(14,184)||
; 1469 : 				 type == ITEMGET(14,185)||
; 1470 : 				 type == ITEMGET(14,186)||
; 1471 : 				 type == ITEMGET(14,187)||
; 1472 : 				 type == ITEMGET(14,190)||
; 1473 : 				 type == ITEMGET(14,43) ||
; 1474 : 				 type == ITEMGET(14,44) )

  0013c	81 fb 0f 18 00
	00		 cmp	 ebx, 6159		; 0000180fH
  00142	0f 84 98 00 00
	00		 je	 $LN8@LuckyBoxOp
  00148	81 fb 0d 1c 00
	00		 cmp	 ebx, 7181		; 00001c0dH
  0014e	0f 84 8c 00 00
	00		 je	 $LN8@LuckyBoxOp
  00154	81 fb 0e 1c 00
	00		 cmp	 ebx, 7182		; 00001c0eH
  0015a	0f 84 80 00 00
	00		 je	 $LN8@LuckyBoxOp
  00160	81 fb 10 1c 00
	00		 cmp	 ebx, 7184		; 00001c10H
  00166	74 78		 je	 SHORT $LN8@LuckyBoxOp
  00168	81 fb 16 1c 00
	00		 cmp	 ebx, 7190		; 00001c16H
  0016e	74 70		 je	 SHORT $LN8@LuckyBoxOp
  00170	81 fb 1f 1c 00
	00		 cmp	 ebx, 7199		; 00001c1fH
  00176	74 68		 je	 SHORT $LN8@LuckyBoxOp
  00178	81 fb 29 1c 00
	00		 cmp	 ebx, 7209		; 00001c29H
  0017e	74 60		 je	 SHORT $LN8@LuckyBoxOp
  00180	81 fb 2a 1c 00
	00		 cmp	 ebx, 7210		; 00001c2aH
  00186	74 58		 je	 SHORT $LN8@LuckyBoxOp
  00188	81 fb b4 1c 00
	00		 cmp	 ebx, 7348		; 00001cb4H
  0018e	74 50		 je	 SHORT $LN8@LuckyBoxOp
  00190	81 fb b5 1c 00
	00		 cmp	 ebx, 7349		; 00001cb5H
  00196	74 48		 je	 SHORT $LN8@LuckyBoxOp
  00198	81 fb b6 1c 00
	00		 cmp	 ebx, 7350		; 00001cb6H
  0019e	74 40		 je	 SHORT $LN8@LuckyBoxOp
  001a0	81 fb b7 1c 00
	00		 cmp	 ebx, 7351		; 00001cb7H
  001a6	74 38		 je	 SHORT $LN8@LuckyBoxOp
  001a8	81 fb b8 1c 00
	00		 cmp	 ebx, 7352		; 00001cb8H
  001ae	74 30		 je	 SHORT $LN8@LuckyBoxOp
  001b0	81 fb b9 1c 00
	00		 cmp	 ebx, 7353		; 00001cb9H
  001b6	74 28		 je	 SHORT $LN8@LuckyBoxOp
  001b8	81 fb ba 1c 00
	00		 cmp	 ebx, 7354		; 00001cbaH
  001be	74 20		 je	 SHORT $LN8@LuckyBoxOp
  001c0	81 fb bb 1c 00
	00		 cmp	 ebx, 7355		; 00001cbbH
  001c6	74 18		 je	 SHORT $LN8@LuckyBoxOp
  001c8	81 fb be 1c 00
	00		 cmp	 ebx, 7358		; 00001cbeH
  001ce	74 10		 je	 SHORT $LN8@LuckyBoxOp
  001d0	81 fb 2b 1c 00
	00		 cmp	 ebx, 7211		; 00001c2bH
  001d6	74 08		 je	 SHORT $LN8@LuckyBoxOp
  001d8	81 fb 2c 1c 00
	00		 cmp	 ebx, 7212		; 00001c2cH
  001de	75 18		 jne	 SHORT $LN26@LuckyBoxOp
$LN8@LuckyBoxOp:

; 1475 : 			{
; 1476 : 				Option1 = 0;

  001e0	33 c9		 xor	 ecx, ecx
  001e2	89 8d 24 ff ff
	ff		 mov	 DWORD PTR _Option1$[ebp], ecx

; 1477 : 				Option2 = 0;

  001e8	89 8d 1c ff ff
	ff		 mov	 DWORD PTR _Option2$[ebp], ecx

; 1478 : 				Option3 = 0;

  001ee	89 8d 20 ff ff
	ff		 mov	 DWORD PTR _Option3$[ebp], ecx

; 1479 : 				level = 0;

  001f4	33 ff		 xor	 edi, edi
  001f6	eb 02		 jmp	 SHORT $LN9@LuckyBoxOp
$LN26@LuckyBoxOp:
  001f8	33 c9		 xor	 ecx, ecx
$LN9@LuckyBoxOp:

; 1480 : 			}
; 1481 : 
; 1482 : 			if ( type == ITEMGET(12,30)	||
; 1483 : 				 type == ITEMGET(12,31)	||
; 1484 : 				 type == ITEMGET(12,136)||
; 1485 : 				 type == ITEMGET(12,137)||
; 1486 : 				 type == ITEMGET(12,138)||
; 1487 : 				 type == ITEMGET(12,139)||
; 1488 : 				 type == ITEMGET(12,140)||
; 1489 : 				 type == ITEMGET(12,141)||
; 1490 : 				 type == ITEMGET(12,142)||
; 1491 : 				 type == ITEMGET(12,143))

  001fa	81 fb 1e 18 00
	00		 cmp	 ebx, 6174		; 0000181eH
  00200	74 48		 je	 SHORT $LN6@LuckyBoxOp
  00202	81 fb 1f 18 00
	00		 cmp	 ebx, 6175		; 0000181fH
  00208	74 40		 je	 SHORT $LN6@LuckyBoxOp
  0020a	81 fb 88 18 00
	00		 cmp	 ebx, 6280		; 00001888H
  00210	74 38		 je	 SHORT $LN6@LuckyBoxOp
  00212	81 fb 89 18 00
	00		 cmp	 ebx, 6281		; 00001889H
  00218	74 30		 je	 SHORT $LN6@LuckyBoxOp
  0021a	81 fb 8a 18 00
	00		 cmp	 ebx, 6282		; 0000188aH
  00220	74 28		 je	 SHORT $LN6@LuckyBoxOp
  00222	81 fb 8b 18 00
	00		 cmp	 ebx, 6283		; 0000188bH
  00228	74 20		 je	 SHORT $LN6@LuckyBoxOp
  0022a	81 fb 8c 18 00
	00		 cmp	 ebx, 6284		; 0000188cH
  00230	74 18		 je	 SHORT $LN6@LuckyBoxOp
  00232	81 fb 8d 18 00
	00		 cmp	 ebx, 6285		; 0000188dH
  00238	74 10		 je	 SHORT $LN6@LuckyBoxOp
  0023a	81 fb 8e 18 00
	00		 cmp	 ebx, 6286		; 0000188eH
  00240	74 08		 je	 SHORT $LN6@LuckyBoxOp
  00242	81 fb 8f 18 00
	00		 cmp	 ebx, 6287		; 0000188fH
  00248	75 29		 jne	 SHORT $LN7@LuckyBoxOp
$LN6@LuckyBoxOp:

; 1492 : 			{
; 1493 : 				Option1 = 0;
; 1494 : 				Option2 = 0;
; 1495 : 				Option3 = 0;
; 1496 : 				level = LuckboxItemBag->GetLevel(DropItemNum);

  0024a	8b 95 18 ff ff
	ff		 mov	 edx, DWORD PTR _DropItemNum$[ebp]
  00250	89 8d 24 ff ff
	ff		 mov	 DWORD PTR _Option1$[ebp], ecx
  00256	89 8d 1c ff ff
	ff		 mov	 DWORD PTR _Option2$[ebp], ecx
  0025c	89 8d 20 ff ff
	ff		 mov	 DWORD PTR _Option3$[ebp], ecx
  00262	8b 0d 00 00 00
	00		 mov	 ecx, DWORD PTR ?LuckboxItemBag@@3PAVCItemBag@@A ; LuckboxItemBag
  00268	52		 push	 edx
  00269	e8 00 00 00 00	 call	 ?GetLevel@CItemBag@@QAEEH@Z ; CItemBag::GetLevel
  0026e	0f b6 f8	 movzx	 edi, al
  00271	33 c9		 xor	 ecx, ecx
$LN7@LuckyBoxOp:

; 1497 : 			}
; 1498 : 
; 1499 : 			if ( type == ITEMGET(13,0) ||
; 1500 : 				 type == ITEMGET(13,1) ||
; 1501 : 				 type == ITEMGET(13,2) ||
; 1502 : 				 type == ITEMGET(13,8) ||
; 1503 : 				 type == ITEMGET(13,9) ||
; 1504 : 				 type == ITEMGET(13,12) ||
; 1505 : 				 type == ITEMGET(13,13) )

  00273	81 fb 00 1a 00
	00		 cmp	 ebx, 6656		; 00001a00H
  00279	74 30		 je	 SHORT $LN4@LuckyBoxOp
  0027b	81 fb 01 1a 00
	00		 cmp	 ebx, 6657		; 00001a01H
  00281	74 28		 je	 SHORT $LN4@LuckyBoxOp
  00283	81 fb 02 1a 00
	00		 cmp	 ebx, 6658		; 00001a02H
  00289	74 20		 je	 SHORT $LN4@LuckyBoxOp
  0028b	81 fb 08 1a 00
	00		 cmp	 ebx, 6664		; 00001a08H
  00291	74 18		 je	 SHORT $LN4@LuckyBoxOp
  00293	81 fb 09 1a 00
	00		 cmp	 ebx, 6665		; 00001a09H
  00299	74 10		 je	 SHORT $LN4@LuckyBoxOp
  0029b	81 fb 0c 1a 00
	00		 cmp	 ebx, 6668		; 00001a0cH
  002a1	74 08		 je	 SHORT $LN4@LuckyBoxOp
  002a3	81 fb 0d 1a 00
	00		 cmp	 ebx, 6669		; 00001a0dH
  002a9	75 02		 jne	 SHORT $LN5@LuckyBoxOp
$LN4@LuckyBoxOp:

; 1506 : 			{
; 1507 : 				level = 0;

  002ab	33 ff		 xor	 edi, edi
$LN5@LuckyBoxOp:

; 1508 : 			}
; 1509 : 
; 1510 : 			ItemSerialCreateSend(lpObj->m_Index, (BYTE)lpObj->MapNumber, (BYTE)x, (BYTE)y, type, (BYTE)level, (BYTE)dur,
; 1511 : 				(BYTE)Option1, (BYTE)Option2, (BYTE)Option3, lpObj->m_Index, 0, 0);

  002ad	8b 06		 mov	 eax, DWORD PTR [esi]
  002af	8b 95 20 ff ff
	ff		 mov	 edx, DWORD PTR _Option3$[ebp]
  002b5	51		 push	 ecx
  002b6	51		 push	 ecx
  002b7	50		 push	 eax
  002b8	52		 push	 edx
  002b9	8b 95 1c ff ff
	ff		 mov	 edx, DWORD PTR _Option2$[ebp]
  002bf	52		 push	 edx
  002c0	8b 95 24 ff ff
	ff		 mov	 edx, DWORD PTR _Option1$[ebp]
  002c6	52		 push	 edx
  002c7	8b 95 14 ff ff
	ff		 mov	 edx, DWORD PTR _x$[ebp]
  002cd	51		 push	 ecx
  002ce	8b 8d 10 ff ff
	ff		 mov	 ecx, DWORD PTR _y$[ebp]
  002d4	57		 push	 edi
  002d5	53		 push	 ebx
  002d6	51		 push	 ecx
  002d7	0f b6 8e 49 01
	00 00		 movzx	 ecx, BYTE PTR [esi+329]
  002de	52		 push	 edx
  002df	51		 push	 ecx
  002e0	50		 push	 eax
  002e1	e8 00 00 00 00	 call	 ?ItemSerialCreateSend@@YAXHEEEHEEEEEHEE@Z ; ItemSerialCreateSend
  002e6	83 c4 34	 add	 esp, 52			; 00000034H

; 1512 : 
; 1513 : 			CItem EventItem;

  002e9	8d 8d 28 ff ff
	ff		 lea	 ecx, DWORD PTR _EventItem$215738[ebp]
  002ef	e8 00 00 00 00	 call	 ??0CItem@@QAE@XZ	; CItem::CItem

; 1514 : 
; 1515 : 			EventItem.Convert(type, Option1, Option2, Option3, 0, 1, 0, NULL, 0xFF, 0, 3);

  002f4	8b 95 20 ff ff
	ff		 mov	 edx, DWORD PTR _Option3$[ebp]
  002fa	8b 85 1c ff ff
	ff		 mov	 eax, DWORD PTR _Option2$[ebp]
  00300	8b 8d 24 ff ff
	ff		 mov	 ecx, DWORD PTR _Option1$[ebp]
  00306	6a 03		 push	 3
  00308	6a 00		 push	 0
  0030a	68 ff 00 00 00	 push	 255			; 000000ffH
  0030f	6a 00		 push	 0
  00311	6a 00		 push	 0
  00313	6a 01		 push	 1
  00315	6a 00		 push	 0
  00317	52		 push	 edx
  00318	50		 push	 eax
  00319	51		 push	 ecx
  0031a	53		 push	 ebx
  0031b	8d 8d 28 ff ff
	ff		 lea	 ecx, DWORD PTR _EventItem$215738[ebp]
  00321	e8 00 00 00 00	 call	 ?Convert@CItem@@QAEXHEEEEEEPAEEEE@Z ; CItem::Convert

; 1516 : 
; 1517 : 			LogAddTD("[%s][%s][Lucky Box Item Drop] : (%d)(X:%d/Y:%d) Item:%s(%d) Level:%d Op1:%d Op2:%d Op3:%d",
; 1518 : 				lpObj->AccountID, lpObj->Name, lpObj->MapNumber, lpObj->X, lpObj->Y, EventItem.GetName(),
; 1519 : 				type, level, Option1, Option2, Option3);

  00326	8b 95 20 ff ff
	ff		 mov	 edx, DWORD PTR _Option3$[ebp]
  0032c	8b 85 1c ff ff
	ff		 mov	 eax, DWORD PTR _Option2$[ebp]
  00332	8b 8d 24 ff ff
	ff		 mov	 ecx, DWORD PTR _Option1$[ebp]
  00338	52		 push	 edx
  00339	50		 push	 eax
  0033a	51		 push	 ecx
  0033b	57		 push	 edi
  0033c	53		 push	 ebx
  0033d	8d 8d 28 ff ff
	ff		 lea	 ecx, DWORD PTR _EventItem$215738[ebp]
  00343	e8 00 00 00 00	 call	 ?GetName@CItem@@QAEPADXZ ; CItem::GetName
  00348	0f bf 96 46 01
	00 00		 movsx	 edx, WORD PTR [esi+326]
  0034f	0f b6 8e 49 01
	00 00		 movzx	 ecx, BYTE PTR [esi+329]
  00356	50		 push	 eax
  00357	0f bf 86 44 01
	00 00		 movsx	 eax, WORD PTR [esi+324]
  0035e	52		 push	 edx
  0035f	50		 push	 eax
  00360	51		 push	 ecx
  00361	8d 56 77	 lea	 edx, DWORD PTR [esi+119]
  00364	52		 push	 edx
  00365	83 c6 6c	 add	 esi, 108		; 0000006cH
  00368	56		 push	 esi
  00369	68 00 00 00 00	 push	 OFFSET ??_C@_0FK@KOHFDIAF@?$FL?$CFs?$FN?$FL?$CFs?$FN?$FLLucky?5Box?5Item?5Drop?$FN?5?3?5@
  0036e	ff 15 00 00 00
	00		 call	 DWORD PTR ?LogAddTD@@3P6AXPADZZA ; LogAddTD
  00374	83 c4 30	 add	 esp, 48			; 00000030H
  00377	5f		 pop	 edi
  00378	5b		 pop	 ebx
  00379	5e		 pop	 esi

; 1532 : 	}
; 1533 : }

  0037a	8b 4d fc	 mov	 ecx, DWORD PTR __$ArrayPad$[ebp]
  0037d	33 cd		 xor	 ecx, ebp
  0037f	e8 00 00 00 00	 call	 @__security_check_cookie@4
  00384	8b e5		 mov	 esp, ebp
  00386	5d		 pop	 ebp
  00387	c3		 ret	 0
$LN24@LuckyBoxOp:

; 1520 : 
; 1521 : 			return;
; 1522 : 		}	
; 1523 : 	}
; 1524 : 
; 1525 : 	for(int n=0;n<(rand()%4+3);n++)

  00388	c7 85 24 ff ff
	ff 00 00 00 00	 mov	 DWORD PTR _n$215740[ebp], 0
  00392	e8 00 00 00 00	 call	 _rand
  00397	25 03 00 00 80	 and	 eax, -2147483645	; 80000003H
  0039c	79 05		 jns	 SHORT $LN33@LuckyBoxOp
  0039e	48		 dec	 eax
  0039f	83 c8 fc	 or	 eax, -4			; fffffffcH
  003a2	40		 inc	 eax
$LN33@LuckyBoxOp:
  003a3	83 c0 03	 add	 eax, 3
  003a6	85 c0		 test	 eax, eax
  003a8	7e 7c		 jle	 SHORT $LN27@LuckyBoxOp
  003aa	8d 9b 00 00 00
	00		 npad	 6
$LL25@LuckyBoxOp:

; 1526 : 	{
; 1527 : 		x = lpObj->X-2;

  003b0	0f bf be 44 01
	00 00		 movsx	 edi, WORD PTR [esi+324]

; 1528 : 		y = lpObj->Y-2;

  003b7	0f bf 9e 46 01
	00 00		 movsx	 ebx, WORD PTR [esi+326]
  003be	83 ef 02	 sub	 edi, 2
  003c1	83 eb 02	 sub	 ebx, 2

; 1529 : 		x+= rand()%3;

  003c4	e8 00 00 00 00	 call	 _rand
  003c9	99		 cdq
  003ca	b9 03 00 00 00	 mov	 ecx, 3
  003cf	f7 f9		 idiv	 ecx
  003d1	03 fa		 add	 edi, edx

; 1530 : 		y+= rand()%3;

  003d3	e8 00 00 00 00	 call	 _rand
  003d8	99		 cdq
  003d9	b9 03 00 00 00	 mov	 ecx, 3
  003de	f7 f9		 idiv	 ecx

; 1531 : 		MapC[lpObj->MapNumber].MoneyItemDrop(1000, x, y);

  003e0	0f b6 8e 49 01
	00 00		 movzx	 ecx, BYTE PTR [esi+329]
  003e7	69 c9 48 3d 05
	00		 imul	 ecx, 343368		; 00053d48H
  003ed	81 c1 00 00 00
	00		 add	 ecx, OFFSET ?MapC@@3PAVMapClass@@A ; MapC
  003f3	03 da		 add	 ebx, edx
  003f5	53		 push	 ebx
  003f6	57		 push	 edi
  003f7	68 e8 03 00 00	 push	 1000			; 000003e8H
  003fc	e8 00 00 00 00	 call	 ?MoneyItemDrop@MapClass@@QAEHHHH@Z ; MapClass::MoneyItemDrop
  00401	8b bd 24 ff ff
	ff		 mov	 edi, DWORD PTR _n$215740[ebp]
  00407	47		 inc	 edi
  00408	89 bd 24 ff ff
	ff		 mov	 DWORD PTR _n$215740[ebp], edi
  0040e	e8 00 00 00 00	 call	 _rand
  00413	25 03 00 00 80	 and	 eax, -2147483645	; 80000003H
  00418	79 05		 jns	 SHORT $LN34@LuckyBoxOp

; 1520 : 
; 1521 : 			return;
; 1522 : 		}	
; 1523 : 	}
; 1524 : 
; 1525 : 	for(int n=0;n<(rand()%4+3);n++)

  0041a	48		 dec	 eax
  0041b	83 c8 fc	 or	 eax, -4			; fffffffcH
  0041e	40		 inc	 eax
$LN34@LuckyBoxOp:
  0041f	83 c0 03	 add	 eax, 3
  00422	3b f8		 cmp	 edi, eax
  00424	7c 8a		 jl	 SHORT $LL25@LuckyBoxOp
$LN27@LuckyBoxOp:
  00426	5f		 pop	 edi
  00427	5b		 pop	 ebx
$LN1@LuckyBoxOp:

; 1532 : 	}
; 1533 : }

  00428	8b 4d fc	 mov	 ecx, DWORD PTR __$ArrayPad$[ebp]
  0042b	33 cd		 xor	 ecx, ebp
  0042d	5e		 pop	 esi
  0042e	e8 00 00 00 00	 call	 @__security_check_cookie@4
  00433	8b e5		 mov	 esp, ebp
  00435	5d		 pop	 ebp
  00436	c3		 ret	 0
?LuckyBoxOpenEven@@YAXPAUOBJECTSTRUCT@@@Z ENDP		; LuckyBoxOpenEven
_TEXT	ENDS
PUBLIC	??_C@_0DL@KCOPLAHJ@Event?5ItemDrop?$CI53?$CJ?5?3?5Item?3?$CFd?5Lev@ ; `string'
PUBLIC	?AttackEvent53BagOpen@@YAHPAUOBJECTSTRUCT@@@Z	; AttackEvent53BagOpen
EXTRN	?gObjMonsterTopHitDamageUser@@YAHPAUOBJECTSTRUCT@@@Z:PROC ; gObjMonsterTopHitDamageUser
EXTRN	?Mon53@@3PAVCItemBag@@A:DWORD			; Mon53
;	COMDAT ??_C@_0DL@KCOPLAHJ@Event?5ItemDrop?$CI53?$CJ?5?3?5Item?3?$CFd?5Lev@
; File e:\work\tranet_version\gs\gameserver\itembag.h
CONST	SEGMENT
??_C@_0DL@KCOPLAHJ@Event?5ItemDrop?$CI53?$CJ?5?3?5Item?3?$CFd?5Lev@ DB 'E'
	DB	'vent ItemDrop(53) : Item:%d Level:%d op1:%d op2:%d op3:%d', 00H ; `string'
; Function compile flags: /Ogtp
; File e:\work\tranet_version\gs\gameserver\event.cpp
CONST	ENDS
;	COMDAT ?AttackEvent53BagOpen@@YAHPAUOBJECTSTRUCT@@@Z
_TEXT	SEGMENT
_x$ = -24						; size = 4
_y$ = -20						; size = 4
_rnd2$215761 = -16					; size = 4
_Option1$ = -12						; size = 4
_Option2$ = -8						; size = 4
_Option3$ = -4						; size = 4
_lpObj$ = 8						; size = 4
?AttackEvent53BagOpen@@YAHPAUOBJECTSTRUCT@@@Z PROC	; AttackEvent53BagOpen, COMDAT

; 1538 : {

  00000	55		 push	 ebp
  00001	8b ec		 mov	 ebp, esp
  00003	83 ec 18	 sub	 esp, 24			; 00000018H

; 1539 : 	float dur;
; 1540 : 	int type;
; 1541 : 	int level;
; 1542 : 	int x;
; 1543 : 	int y;
; 1544 : 	int Option1=0;
; 1545 : 	int Option2=0;
; 1546 : 	int Option3=0;
; 1547 : 	int DropItemNum;
; 1548 : 
; 1549 : 
; 1550 : 	if ( !Mon53 )

  00006	a1 00 00 00 00	 mov	 eax, DWORD PTR ?Mon53@@3PAVCItemBag@@A ; Mon53
  0000b	33 c9		 xor	 ecx, ecx
  0000d	89 4d f4	 mov	 DWORD PTR _Option1$[ebp], ecx
  00010	89 4d f8	 mov	 DWORD PTR _Option2$[ebp], ecx
  00013	89 4d fc	 mov	 DWORD PTR _Option3$[ebp], ecx
  00016	3b c1		 cmp	 eax, ecx
  00018	75 06		 jne	 SHORT $LN16@AttackEven

; 1551 : 		return FALSE;

  0001a	33 c0		 xor	 eax, eax

; 1622 : }

  0001c	8b e5		 mov	 esp, ebp
  0001e	5d		 pop	 ebp
  0001f	c3		 ret	 0
$LN16@AttackEven:
  00020	56		 push	 esi

; 1552 : 
; 1553 : 	if ( Mon53->GetBagCount() > 0 )

  00021	8b b0 88 03 00
	00		 mov	 esi, DWORD PTR [eax+904]
  00027	3b f1		 cmp	 esi, ecx
  00029	0f 8e 9a 01 00
	00		 jle	 $LN15@AttackEven

; 1554 : 	{
; 1555 : 	
; 1556 : 		DropItemNum = rand()%Mon53->GetBagCount();

  0002f	53		 push	 ebx
  00030	57		 push	 edi
  00031	e8 00 00 00 00	 call	 _rand
  00036	99		 cdq
  00037	f7 fe		 idiv	 esi

; 1557 : 		dur=0;
; 1558 : 		x = lpObj->X;

  00039	8b 7d 08	 mov	 edi, DWORD PTR _lpObj$[ebp]

; 1559 : 		y = lpObj->Y;

  0003c	0f bf 8f 46 01
	00 00		 movsx	 ecx, WORD PTR [edi+326]
  00043	0f bf 87 44 01
	00 00		 movsx	 eax, WORD PTR [edi+324]
  0004a	89 4d ec	 mov	 DWORD PTR _y$[ebp], ecx

; 1560 : 		level = Mon53->GetLevel(DropItemNum);

  0004d	8b 0d 00 00 00
	00		 mov	 ecx, DWORD PTR ?Mon53@@3PAVCItemBag@@A ; Mon53
  00053	89 45 e8	 mov	 DWORD PTR _x$[ebp], eax
  00056	8b f2		 mov	 esi, edx
  00058	56		 push	 esi
  00059	e8 00 00 00 00	 call	 ?GetLevel@CItemBag@@QAEEH@Z ; CItemBag::GetLevel

; 1561 : 		type = ItemGetNumberMake(Mon53->GetType(DropItemNum), Mon53->GetIndex(DropItemNum));

  0005e	8b 0d 00 00 00
	00		 mov	 ecx, DWORD PTR ?Mon53@@3PAVCItemBag@@A ; Mon53
  00064	56		 push	 esi
  00065	0f b6 d8	 movzx	 ebx, al
  00068	e8 00 00 00 00	 call	 ?GetIndex@CItemBag@@QAEEH@Z ; CItemBag::GetIndex
  0006d	8b 0d 00 00 00
	00		 mov	 ecx, DWORD PTR ?Mon53@@3PAVCItemBag@@A ; Mon53
  00073	0f b6 d0	 movzx	 edx, al
  00076	52		 push	 edx
  00077	56		 push	 esi
  00078	e8 00 00 00 00	 call	 ?GetType@CItemBag@@QAEEH@Z ; CItemBag::GetType
  0007d	0f b6 c0	 movzx	 eax, al
  00080	50		 push	 eax
  00081	e8 00 00 00 00	 call	 ?ItemGetNumberMake@@YAHHH@Z ; ItemGetNumberMake
  00086	83 c4 08	 add	 esp, 8
  00089	8b f0		 mov	 esi, eax

; 1562 : 
; 1563 : 		if ( (rand()%100)<6)

  0008b	e8 00 00 00 00	 call	 _rand
  00090	99		 cdq
  00091	b9 64 00 00 00	 mov	 ecx, 100		; 00000064H
  00096	f7 f9		 idiv	 ecx
  00098	83 fa 06	 cmp	 edx, 6
  0009b	7d 07		 jge	 SHORT $LN14@AttackEven

; 1564 : 			Option1 = 1;

  0009d	c7 45 f4 01 00
	00 00		 mov	 DWORD PTR _Option1$[ebp], 1
$LN14@AttackEven:

; 1565 : 		
; 1566 : 		if ( (rand()%100)<4)

  000a4	e8 00 00 00 00	 call	 _rand
  000a9	99		 cdq
  000aa	b9 64 00 00 00	 mov	 ecx, 100		; 00000064H
  000af	f7 f9		 idiv	 ecx
  000b1	83 fa 04	 cmp	 edx, 4
  000b4	7d 07		 jge	 SHORT $LN13@AttackEven

; 1567 : 			Option2 = 1;

  000b6	c7 45 f8 01 00
	00 00		 mov	 DWORD PTR _Option2$[ebp], 1
$LN13@AttackEven:

; 1568 : 
; 1569 : 		int rnd1;
; 1570 : 		int rnd2 = rand() % 3;

  000bd	e8 00 00 00 00	 call	 _rand
  000c2	99		 cdq
  000c3	b9 03 00 00 00	 mov	 ecx, 3
  000c8	f7 f9		 idiv	 ecx
  000ca	89 55 f0	 mov	 DWORD PTR _rnd2$215761[ebp], edx

; 1571 : 		rnd1 = rand() % 100;

  000cd	e8 00 00 00 00	 call	 _rand
  000d2	99		 cdq
  000d3	b9 64 00 00 00	 mov	 ecx, 100		; 00000064H
  000d8	f7 f9		 idiv	 ecx

; 1572 : 
; 1573 : 		switch ( rnd2 )

  000da	8b 45 f0	 mov	 eax, DWORD PTR _rnd2$215761[ebp]
  000dd	33 c9		 xor	 ecx, ecx
  000df	2b c1		 sub	 eax, ecx
  000e1	74 22		 je	 SHORT $LN10@AttackEven
  000e3	48		 dec	 eax
  000e4	74 11		 je	 SHORT $LN8@AttackEven
  000e6	48		 dec	 eax
  000e7	75 28		 jne	 SHORT $LN9@AttackEven

; 1583 : 			case 2:
; 1584 : 				if ( rnd1 < 12 )

  000e9	83 fa 0c	 cmp	 edx, 12			; 0000000cH
  000ec	7d 23		 jge	 SHORT $LN9@AttackEven

; 1585 : 					Option3 = 1;

  000ee	c7 45 fc 01 00
	00 00		 mov	 DWORD PTR _Option3$[ebp], 1

; 1586 : 				break;

  000f5	eb 1a		 jmp	 SHORT $LN9@AttackEven
$LN8@AttackEven:

; 1578 : 				break;
; 1579 : 			case 1:
; 1580 : 				if ( rnd1 < 8 )

  000f7	83 fa 08	 cmp	 edx, 8
  000fa	7d 15		 jge	 SHORT $LN9@AttackEven

; 1581 : 					Option3 = 2;

  000fc	c7 45 fc 02 00
	00 00		 mov	 DWORD PTR _Option3$[ebp], 2

; 1582 : 				break;

  00103	eb 0c		 jmp	 SHORT $LN9@AttackEven
$LN10@AttackEven:

; 1574 : 		{
; 1575 : 			case 0:
; 1576 : 				if ( rnd1 < 4 )

  00105	83 fa 04	 cmp	 edx, 4
  00108	7d 07		 jge	 SHORT $LN9@AttackEven

; 1577 : 					Option3 = 3;

  0010a	c7 45 fc 03 00
	00 00		 mov	 DWORD PTR _Option3$[ebp], 3
$LN9@AttackEven:

; 1587 : 		}
; 1588 : 
; 1589 : 		if ( type == ITEMGET(12,15) ||
; 1590 : 			 type == ITEMGET(14,13) ||
; 1591 : 			 type == ITEMGET(14,14) )

  00111	81 fe 0f 18 00
	00		 cmp	 esi, 6159		; 0000180fH
  00117	74 10		 je	 SHORT $LN3@AttackEven
  00119	81 fe 0d 1c 00
	00		 cmp	 esi, 7181		; 00001c0dH
  0011f	74 08		 je	 SHORT $LN3@AttackEven
  00121	81 fe 0e 1c 00
	00		 cmp	 esi, 7182		; 00001c0eH
  00127	75 0b		 jne	 SHORT $LN4@AttackEven
$LN3@AttackEven:

; 1592 : 		{
; 1593 : 			Option1=0;

  00129	89 4d f4	 mov	 DWORD PTR _Option1$[ebp], ecx

; 1594 : 			Option2=0;

  0012c	89 4d f8	 mov	 DWORD PTR _Option2$[ebp], ecx

; 1595 : 			Option3=0;

  0012f	89 4d fc	 mov	 DWORD PTR _Option3$[ebp], ecx

; 1596 : 			level = 0;

  00132	33 db		 xor	 ebx, ebx
$LN4@AttackEven:

; 1597 : 		}
; 1598 : 
; 1599 : 		if ( type == ITEMGET(13,0) ||
; 1600 : 			 type == ITEMGET(13,1) ||
; 1601 : 			 type == ITEMGET(13,2) ||
; 1602 : 			 type == ITEMGET(13,8) ||
; 1603 : 			 type == ITEMGET(13,9) ||
; 1604 : 			 type == ITEMGET(13,12) ||
; 1605 : 			 type == ITEMGET(13,13) )

  00134	81 fe 00 1a 00
	00		 cmp	 esi, 6656		; 00001a00H
  0013a	74 30		 je	 SHORT $LN1@AttackEven
  0013c	81 fe 01 1a 00
	00		 cmp	 esi, 6657		; 00001a01H
  00142	74 28		 je	 SHORT $LN1@AttackEven
  00144	81 fe 02 1a 00
	00		 cmp	 esi, 6658		; 00001a02H
  0014a	74 20		 je	 SHORT $LN1@AttackEven
  0014c	81 fe 08 1a 00
	00		 cmp	 esi, 6664		; 00001a08H
  00152	74 18		 je	 SHORT $LN1@AttackEven
  00154	81 fe 09 1a 00
	00		 cmp	 esi, 6665		; 00001a09H
  0015a	74 10		 je	 SHORT $LN1@AttackEven
  0015c	81 fe 0c 1a 00
	00		 cmp	 esi, 6668		; 00001a0cH
  00162	74 08		 je	 SHORT $LN1@AttackEven
  00164	81 fe 0d 1a 00
	00		 cmp	 esi, 6669		; 00001a0dH
  0016a	75 02		 jne	 SHORT $LN2@AttackEven
$LN1@AttackEven:

; 1606 : 		{
; 1607 : 			level = 0;

  0016c	33 db		 xor	 ebx, ebx
$LN2@AttackEven:

; 1608 : 		}
; 1609 : 
; 1610 : 		int iMaxHitIndex = gObjMonsterTopHitDamageUser(lpObj);

  0016e	57		 push	 edi
  0016f	e8 00 00 00 00	 call	 ?gObjMonsterTopHitDamageUser@@YAHPAUOBJECTSTRUCT@@@Z ; gObjMonsterTopHitDamageUser

; 1611 : 
; 1612 : 		ItemSerialCreateSend(lpObj->m_Index, (BYTE)lpObj->MapNumber, (BYTE)x, (BYTE)y, type, (BYTE)level, (BYTE)dur,
; 1613 : 			(BYTE)Option1, (BYTE)Option2, (BYTE)Option3, iMaxHitIndex, 0, 0);

  00174	8b 55 fc	 mov	 edx, DWORD PTR _Option3$[ebp]
  00177	8b 4d f4	 mov	 ecx, DWORD PTR _Option1$[ebp]
  0017a	6a 00		 push	 0
  0017c	6a 00		 push	 0
  0017e	50		 push	 eax
  0017f	8b 45 f8	 mov	 eax, DWORD PTR _Option2$[ebp]
  00182	52		 push	 edx
  00183	8b 55 ec	 mov	 edx, DWORD PTR _y$[ebp]
  00186	50		 push	 eax
  00187	8b 45 e8	 mov	 eax, DWORD PTR _x$[ebp]
  0018a	51		 push	 ecx
  0018b	0f b6 8f 49 01
	00 00		 movzx	 ecx, BYTE PTR [edi+329]
  00192	6a 00		 push	 0
  00194	53		 push	 ebx
  00195	56		 push	 esi
  00196	52		 push	 edx
  00197	8b 17		 mov	 edx, DWORD PTR [edi]
  00199	50		 push	 eax
  0019a	51		 push	 ecx
  0019b	52		 push	 edx
  0019c	e8 00 00 00 00	 call	 ?ItemSerialCreateSend@@YAXHEEEHEEEEEHEE@Z ; ItemSerialCreateSend

; 1614 : 
; 1615 : 		LogAdd("Event ItemDrop(53) : Item:%d Level:%d op1:%d op2:%d op3:%d",
; 1616 : 			type, level, Option1, Option2, Option3);

  001a1	8b 45 fc	 mov	 eax, DWORD PTR _Option3$[ebp]
  001a4	8b 4d f8	 mov	 ecx, DWORD PTR _Option2$[ebp]
  001a7	8b 55 f4	 mov	 edx, DWORD PTR _Option1$[ebp]
  001aa	50		 push	 eax
  001ab	51		 push	 ecx
  001ac	52		 push	 edx
  001ad	53		 push	 ebx
  001ae	56		 push	 esi
  001af	68 00 00 00 00	 push	 OFFSET ??_C@_0DL@KCOPLAHJ@Event?5ItemDrop?$CI53?$CJ?5?3?5Item?3?$CFd?5Lev@
  001b4	ff 15 00 00 00
	00		 call	 DWORD PTR ?LogAdd@@3P6AXPADZZA ; LogAdd
  001ba	83 c4 50	 add	 esp, 80			; 00000050H
  001bd	5f		 pop	 edi
  001be	5b		 pop	 ebx

; 1617 : 
; 1618 : 		return TRUE;

  001bf	b8 01 00 00 00	 mov	 eax, 1
  001c4	5e		 pop	 esi

; 1622 : }

  001c5	8b e5		 mov	 esp, ebp
  001c7	5d		 pop	 ebp
  001c8	c3		 ret	 0
$LN15@AttackEven:

; 1619 : 	}
; 1620 : 
; 1621 : 	return FALSE;

  001c9	33 c0		 xor	 eax, eax
  001cb	5e		 pop	 esi

; 1622 : }

  001cc	8b e5		 mov	 esp, ebp
  001ce	5d		 pop	 ebp
  001cf	c3		 ret	 0
?AttackEvent53BagOpen@@YAHPAUOBJECTSTRUCT@@@Z ENDP	; AttackEvent53BagOpen
_TEXT	ENDS
PUBLIC	??_C@_0DL@OLPGIACC@Event?5ItemDrop?$CI55?$CJ?5?3?5Item?3?$CFd?5Lev@ ; `string'
PUBLIC	?AttackEvent55BagOpen@@YAHPAUOBJECTSTRUCT@@@Z	; AttackEvent55BagOpen
EXTRN	?Mon55@@3PAVCItemBag@@A:DWORD			; Mon55
;	COMDAT ??_C@_0DL@OLPGIACC@Event?5ItemDrop?$CI55?$CJ?5?3?5Item?3?$CFd?5Lev@
; File e:\work\tranet_version\gs\gameserver\itembag.h
CONST	SEGMENT
??_C@_0DL@OLPGIACC@Event?5ItemDrop?$CI55?$CJ?5?3?5Item?3?$CFd?5Lev@ DB 'E'
	DB	'vent ItemDrop(55) : Item:%d Level:%d op1:%d op2:%d op3:%d', 00H ; `string'
; Function compile flags: /Ogtp
; File e:\work\tranet_version\gs\gameserver\event.cpp
CONST	ENDS
;	COMDAT ?AttackEvent55BagOpen@@YAHPAUOBJECTSTRUCT@@@Z
_TEXT	SEGMENT
_x$ = -24						; size = 4
_y$ = -20						; size = 4
_rnd2$215803 = -16					; size = 4
_Option1$ = -12						; size = 4
_Option2$ = -8						; size = 4
_Option3$ = -4						; size = 4
_lpObj$ = 8						; size = 4
?AttackEvent55BagOpen@@YAHPAUOBJECTSTRUCT@@@Z PROC	; AttackEvent55BagOpen, COMDAT

; 1627 : {

  00000	55		 push	 ebp
  00001	8b ec		 mov	 ebp, esp
  00003	83 ec 18	 sub	 esp, 24			; 00000018H

; 1628 : 	float dur;
; 1629 : 	int type;
; 1630 : 	int level;
; 1631 : 	int x;
; 1632 : 	int y;
; 1633 : 	int Option1=0;
; 1634 : 	int Option2=0;
; 1635 : 	int Option3=0;
; 1636 : 	int DropItemNum;
; 1637 : 
; 1638 : 
; 1639 : 	if ( !Mon55 )

  00006	a1 00 00 00 00	 mov	 eax, DWORD PTR ?Mon55@@3PAVCItemBag@@A ; Mon55
  0000b	33 c9		 xor	 ecx, ecx
  0000d	89 4d f4	 mov	 DWORD PTR _Option1$[ebp], ecx
  00010	89 4d f8	 mov	 DWORD PTR _Option2$[ebp], ecx
  00013	89 4d fc	 mov	 DWORD PTR _Option3$[ebp], ecx
  00016	3b c1		 cmp	 eax, ecx
  00018	75 06		 jne	 SHORT $LN18@AttackEven@2

; 1640 : 		return FALSE;

  0001a	33 c0		 xor	 eax, eax

; 1745 : }

  0001c	8b e5		 mov	 esp, ebp
  0001e	5d		 pop	 ebp
  0001f	c3		 ret	 0
$LN18@AttackEven@2:
  00020	56		 push	 esi

; 1641 : 
; 1642 : 	if ( Mon55->GetBagCount() > 0 )

  00021	8b b0 88 03 00
	00		 mov	 esi, DWORD PTR [eax+904]
  00027	3b f1		 cmp	 esi, ecx
  00029	0f 8e a9 02 00
	00		 jle	 $LN17@AttackEven@2

; 1643 : 	{
; 1644 : 	
; 1645 : 		DropItemNum = rand()%Mon55->GetBagCount();

  0002f	53		 push	 ebx
  00030	57		 push	 edi
  00031	e8 00 00 00 00	 call	 _rand
  00036	99		 cdq
  00037	f7 fe		 idiv	 esi

; 1646 : 		dur=0;
; 1647 : 		x = lpObj->X;

  00039	8b 45 08	 mov	 eax, DWORD PTR _lpObj$[ebp]
  0003c	0f bf 88 44 01
	00 00		 movsx	 ecx, WORD PTR [eax+324]
  00043	89 4d e8	 mov	 DWORD PTR _x$[ebp], ecx

; 1648 : 		y = lpObj->Y;
; 1649 : 		level = Mon55->GetLevel(DropItemNum) + rand() % 2;

  00046	8b 0d 00 00 00
	00		 mov	 ecx, DWORD PTR ?Mon55@@3PAVCItemBag@@A ; Mon55
  0004c	8b da		 mov	 ebx, edx
  0004e	0f bf 90 46 01
	00 00		 movsx	 edx, WORD PTR [eax+326]
  00055	53		 push	 ebx
  00056	89 55 ec	 mov	 DWORD PTR _y$[ebp], edx
  00059	e8 00 00 00 00	 call	 ?GetLevel@CItemBag@@QAEEH@Z ; CItemBag::GetLevel
  0005e	0f b6 f8	 movzx	 edi, al
  00061	e8 00 00 00 00	 call	 _rand
  00066	8b f0		 mov	 esi, eax
  00068	81 e6 01 00 00
	80		 and	 esi, -2147483647	; 80000001H
  0006e	79 05		 jns	 SHORT $LN27@AttackEven@2
  00070	4e		 dec	 esi
  00071	83 ce fe	 or	 esi, -2			; fffffffeH
  00074	46		 inc	 esi
$LN27@AttackEven@2:

; 1650 : 		type = ItemGetNumberMake(Mon55->GetType(DropItemNum), Mon55->GetIndex(DropItemNum));

  00075	8b 0d 00 00 00
	00		 mov	 ecx, DWORD PTR ?Mon55@@3PAVCItemBag@@A ; Mon55
  0007b	53		 push	 ebx
  0007c	03 f7		 add	 esi, edi
  0007e	e8 00 00 00 00	 call	 ?GetIndex@CItemBag@@QAEEH@Z ; CItemBag::GetIndex
  00083	8b 0d 00 00 00
	00		 mov	 ecx, DWORD PTR ?Mon55@@3PAVCItemBag@@A ; Mon55
  00089	0f b6 c0	 movzx	 eax, al
  0008c	50		 push	 eax
  0008d	53		 push	 ebx
  0008e	e8 00 00 00 00	 call	 ?GetType@CItemBag@@QAEEH@Z ; CItemBag::GetType
  00093	0f b6 c8	 movzx	 ecx, al
  00096	51		 push	 ecx
  00097	e8 00 00 00 00	 call	 ?ItemGetNumberMake@@YAHHH@Z ; ItemGetNumberMake
  0009c	83 c4 08	 add	 esp, 8
  0009f	8b f8		 mov	 edi, eax

; 1651 : 
; 1652 : 		if ( (rand()%100)<6)

  000a1	e8 00 00 00 00	 call	 _rand
  000a6	99		 cdq
  000a7	b9 64 00 00 00	 mov	 ecx, 100		; 00000064H
  000ac	f7 f9		 idiv	 ecx
  000ae	83 fa 06	 cmp	 edx, 6
  000b1	7d 07		 jge	 SHORT $LN16@AttackEven@2

; 1653 : 			Option1 = 1;

  000b3	c7 45 f4 01 00
	00 00		 mov	 DWORD PTR _Option1$[ebp], 1
$LN16@AttackEven@2:

; 1654 : 		
; 1655 : 		if ( (rand()%100)<4)

  000ba	e8 00 00 00 00	 call	 _rand
  000bf	99		 cdq
  000c0	b9 64 00 00 00	 mov	 ecx, 100		; 00000064H
  000c5	f7 f9		 idiv	 ecx
  000c7	83 fa 04	 cmp	 edx, 4
  000ca	7d 07		 jge	 SHORT $LN15@AttackEven@2

; 1656 : 			Option2 = 1;

  000cc	c7 45 f8 01 00
	00 00		 mov	 DWORD PTR _Option2$[ebp], 1
$LN15@AttackEven@2:

; 1657 : 
; 1658 : 		int rnd1;
; 1659 : 		int rnd2 = rand() % 3;

  000d3	e8 00 00 00 00	 call	 _rand
  000d8	99		 cdq
  000d9	b9 03 00 00 00	 mov	 ecx, 3
  000de	f7 f9		 idiv	 ecx
  000e0	89 55 f0	 mov	 DWORD PTR _rnd2$215803[ebp], edx

; 1660 : 		rnd1 = rand() % 100;

  000e3	e8 00 00 00 00	 call	 _rand
  000e8	99		 cdq
  000e9	b9 64 00 00 00	 mov	 ecx, 100		; 00000064H
  000ee	f7 f9		 idiv	 ecx

; 1661 : 
; 1662 : 		switch ( rnd2 )

  000f0	8b 45 f0	 mov	 eax, DWORD PTR _rnd2$215803[ebp]
  000f3	33 c9		 xor	 ecx, ecx
  000f5	2b c1		 sub	 eax, ecx
  000f7	74 22		 je	 SHORT $LN12@AttackEven@2
  000f9	48		 dec	 eax
  000fa	74 11		 je	 SHORT $LN10@AttackEven@2
  000fc	48		 dec	 eax
  000fd	75 28		 jne	 SHORT $LN11@AttackEven@2

; 1672 : 			case 2:
; 1673 : 				if ( rnd1 < 12 )

  000ff	83 fa 0c	 cmp	 edx, 12			; 0000000cH
  00102	7d 23		 jge	 SHORT $LN11@AttackEven@2

; 1674 : 					Option3 = 1;

  00104	c7 45 fc 01 00
	00 00		 mov	 DWORD PTR _Option3$[ebp], 1

; 1675 : 				break;

  0010b	eb 1a		 jmp	 SHORT $LN11@AttackEven@2
$LN10@AttackEven@2:

; 1667 : 				break;
; 1668 : 			case 1:
; 1669 : 				if ( rnd1 < 8 )

  0010d	83 fa 08	 cmp	 edx, 8
  00110	7d 15		 jge	 SHORT $LN11@AttackEven@2

; 1670 : 					Option3 = 2;

  00112	c7 45 fc 02 00
	00 00		 mov	 DWORD PTR _Option3$[ebp], 2

; 1671 : 				break;

  00119	eb 0c		 jmp	 SHORT $LN11@AttackEven@2
$LN12@AttackEven@2:

; 1663 : 		{
; 1664 : 			case 0:
; 1665 : 				if ( rnd1 < 4 )

  0011b	83 fa 04	 cmp	 edx, 4
  0011e	7d 07		 jge	 SHORT $LN11@AttackEven@2

; 1666 : 					Option3 = 3;

  00120	c7 45 fc 03 00
	00 00		 mov	 DWORD PTR _Option3$[ebp], 3
$LN11@AttackEven@2:

; 1676 : 		}
; 1677 : 
; 1678 : 		if ( type == ITEMGET(12,15) ||
; 1679 : 				type == ITEMGET(14,13) ||
; 1680 : 				type == ITEMGET(14,14) ||
; 1681 : 				type == ITEMGET(14,14) ||
; 1682 : 				type == ITEMGET(14,16)	||
; 1683 : 				type == ITEMGET(14,22)	||
; 1684 : 				type == ITEMGET(14,31)	||
; 1685 : 				type == ITEMGET(14,41)	||
; 1686 : 				type == ITEMGET(14,42)	||
; 1687 : 				type == ITEMGET(14,180)||
; 1688 : 				type == ITEMGET(14,181)||
; 1689 : 				type == ITEMGET(14,182)||
; 1690 : 				type == ITEMGET(14,183)||
; 1691 : 				type == ITEMGET(14,184)||
; 1692 : 				type == ITEMGET(14,185)||
; 1693 : 				type == ITEMGET(14,186)||
; 1694 : 				type == ITEMGET(14,187)||
; 1695 : 				type == ITEMGET(14,190)||
; 1696 : 				type == ITEMGET(14,43) ||
; 1697 : 				type == ITEMGET(14,44) )

  00127	81 ff 0f 18 00
	00		 cmp	 edi, 6159		; 0000180fH
  0012d	0f 84 98 00 00
	00		 je	 $LN5@AttackEven@2
  00133	81 ff 0d 1c 00
	00		 cmp	 edi, 7181		; 00001c0dH
  00139	0f 84 8c 00 00
	00		 je	 $LN5@AttackEven@2
  0013f	81 ff 0e 1c 00
	00		 cmp	 edi, 7182		; 00001c0eH
  00145	0f 84 80 00 00
	00		 je	 $LN5@AttackEven@2
  0014b	81 ff 10 1c 00
	00		 cmp	 edi, 7184		; 00001c10H
  00151	74 78		 je	 SHORT $LN5@AttackEven@2
  00153	81 ff 16 1c 00
	00		 cmp	 edi, 7190		; 00001c16H
  00159	74 70		 je	 SHORT $LN5@AttackEven@2
  0015b	81 ff 1f 1c 00
	00		 cmp	 edi, 7199		; 00001c1fH
  00161	74 68		 je	 SHORT $LN5@AttackEven@2
  00163	81 ff 29 1c 00
	00		 cmp	 edi, 7209		; 00001c29H
  00169	74 60		 je	 SHORT $LN5@AttackEven@2
  0016b	81 ff 2a 1c 00
	00		 cmp	 edi, 7210		; 00001c2aH
  00171	74 58		 je	 SHORT $LN5@AttackEven@2
  00173	81 ff b4 1c 00
	00		 cmp	 edi, 7348		; 00001cb4H
  00179	74 50		 je	 SHORT $LN5@AttackEven@2
  0017b	81 ff b5 1c 00
	00		 cmp	 edi, 7349		; 00001cb5H
  00181	74 48		 je	 SHORT $LN5@AttackEven@2
  00183	81 ff b6 1c 00
	00		 cmp	 edi, 7350		; 00001cb6H
  00189	74 40		 je	 SHORT $LN5@AttackEven@2
  0018b	81 ff b7 1c 00
	00		 cmp	 edi, 7351		; 00001cb7H
  00191	74 38		 je	 SHORT $LN5@AttackEven@2
  00193	81 ff b8 1c 00
	00		 cmp	 edi, 7352		; 00001cb8H
  00199	74 30		 je	 SHORT $LN5@AttackEven@2
  0019b	81 ff b9 1c 00
	00		 cmp	 edi, 7353		; 00001cb9H
  001a1	74 28		 je	 SHORT $LN5@AttackEven@2
  001a3	81 ff ba 1c 00
	00		 cmp	 edi, 7354		; 00001cbaH
  001a9	74 20		 je	 SHORT $LN5@AttackEven@2
  001ab	81 ff bb 1c 00
	00		 cmp	 edi, 7355		; 00001cbbH
  001b1	74 18		 je	 SHORT $LN5@AttackEven@2
  001b3	81 ff be 1c 00
	00		 cmp	 edi, 7358		; 00001cbeH
  001b9	74 10		 je	 SHORT $LN5@AttackEven@2
  001bb	81 ff 2b 1c 00
	00		 cmp	 edi, 7211		; 00001c2bH
  001c1	74 08		 je	 SHORT $LN5@AttackEven@2
  001c3	81 ff 2c 1c 00
	00		 cmp	 edi, 7212		; 00001c2cH
  001c9	75 0b		 jne	 SHORT $LN6@AttackEven@2
$LN5@AttackEven@2:

; 1698 : 		{
; 1699 : 			Option1 = 0;

  001cb	89 4d f4	 mov	 DWORD PTR _Option1$[ebp], ecx

; 1700 : 			Option2 = 0;

  001ce	89 4d f8	 mov	 DWORD PTR _Option2$[ebp], ecx

; 1701 : 			Option3 = 0;

  001d1	89 4d fc	 mov	 DWORD PTR _Option3$[ebp], ecx

; 1702 : 			level = 0;

  001d4	33 f6		 xor	 esi, esi
$LN6@AttackEven@2:

; 1703 : 		}
; 1704 : 
; 1705 : 		if ( type == ITEMGET(12,30)	||
; 1706 : 				type == ITEMGET(12,31)	||
; 1707 : 				type == ITEMGET(12,136)||
; 1708 : 				type == ITEMGET(12,137)||
; 1709 : 				type == ITEMGET(12,138)||
; 1710 : 				type == ITEMGET(12,139)||
; 1711 : 				type == ITEMGET(12,140)||
; 1712 : 				type == ITEMGET(12,141)||
; 1713 : 				type == ITEMGET(12,142)||
; 1714 : 				type == ITEMGET(12,143))

  001d6	81 ff 1e 18 00
	00		 cmp	 edi, 6174		; 0000181eH
  001dc	74 48		 je	 SHORT $LN3@AttackEven@2
  001de	81 ff 1f 18 00
	00		 cmp	 edi, 6175		; 0000181fH
  001e4	74 40		 je	 SHORT $LN3@AttackEven@2
  001e6	81 ff 88 18 00
	00		 cmp	 edi, 6280		; 00001888H
  001ec	74 38		 je	 SHORT $LN3@AttackEven@2
  001ee	81 ff 89 18 00
	00		 cmp	 edi, 6281		; 00001889H
  001f4	74 30		 je	 SHORT $LN3@AttackEven@2
  001f6	81 ff 8a 18 00
	00		 cmp	 edi, 6282		; 0000188aH
  001fc	74 28		 je	 SHORT $LN3@AttackEven@2
  001fe	81 ff 8b 18 00
	00		 cmp	 edi, 6283		; 0000188bH
  00204	74 20		 je	 SHORT $LN3@AttackEven@2
  00206	81 ff 8c 18 00
	00		 cmp	 edi, 6284		; 0000188cH
  0020c	74 18		 je	 SHORT $LN3@AttackEven@2
  0020e	81 ff 8d 18 00
	00		 cmp	 edi, 6285		; 0000188dH
  00214	74 10		 je	 SHORT $LN3@AttackEven@2
  00216	81 ff 8e 18 00
	00		 cmp	 edi, 6286		; 0000188eH
  0021c	74 08		 je	 SHORT $LN3@AttackEven@2
  0021e	81 ff 8f 18 00
	00		 cmp	 edi, 6287		; 0000188fH
  00224	75 1a		 jne	 SHORT $LN4@AttackEven@2
$LN3@AttackEven@2:

; 1715 : 		{
; 1716 : 			Option1 = 0;

  00226	89 4d f4	 mov	 DWORD PTR _Option1$[ebp], ecx

; 1717 : 			Option2 = 0;

  00229	89 4d f8	 mov	 DWORD PTR _Option2$[ebp], ecx

; 1718 : 			Option3 = 0;

  0022c	89 4d fc	 mov	 DWORD PTR _Option3$[ebp], ecx

; 1719 : 			level = Mon55->GetLevel(DropItemNum);

  0022f	8b 0d 00 00 00
	00		 mov	 ecx, DWORD PTR ?Mon55@@3PAVCItemBag@@A ; Mon55
  00235	53		 push	 ebx
  00236	e8 00 00 00 00	 call	 ?GetLevel@CItemBag@@QAEEH@Z ; CItemBag::GetLevel
  0023b	0f b6 f0	 movzx	 esi, al
  0023e	33 c9		 xor	 ecx, ecx
$LN4@AttackEven@2:

; 1720 : 		}
; 1721 : 
; 1722 : 		if ( type == ITEMGET(13,0) ||
; 1723 : 			 type == ITEMGET(13,1) ||
; 1724 : 			 type == ITEMGET(13,2) ||
; 1725 : 			 type == ITEMGET(13,8) ||
; 1726 : 			 type == ITEMGET(13,9) ||
; 1727 : 			 type == ITEMGET(13,12) ||
; 1728 : 			 type == ITEMGET(13,13) )

  00240	81 ff 00 1a 00
	00		 cmp	 edi, 6656		; 00001a00H
  00246	74 30		 je	 SHORT $LN1@AttackEven@2
  00248	81 ff 01 1a 00
	00		 cmp	 edi, 6657		; 00001a01H
  0024e	74 28		 je	 SHORT $LN1@AttackEven@2
  00250	81 ff 02 1a 00
	00		 cmp	 edi, 6658		; 00001a02H
  00256	74 20		 je	 SHORT $LN1@AttackEven@2
  00258	81 ff 08 1a 00
	00		 cmp	 edi, 6664		; 00001a08H
  0025e	74 18		 je	 SHORT $LN1@AttackEven@2
  00260	81 ff 09 1a 00
	00		 cmp	 edi, 6665		; 00001a09H
  00266	74 10		 je	 SHORT $LN1@AttackEven@2
  00268	81 ff 0c 1a 00
	00		 cmp	 edi, 6668		; 00001a0cH
  0026e	74 08		 je	 SHORT $LN1@AttackEven@2
  00270	81 ff 0d 1a 00
	00		 cmp	 edi, 6669		; 00001a0dH
  00276	75 02		 jne	 SHORT $LN2@AttackEven@2
$LN1@AttackEven@2:

; 1729 : 		{
; 1730 : 			level = 0;

  00278	33 f6		 xor	 esi, esi
$LN2@AttackEven@2:

; 1731 : 		}
; 1732 : 
; 1733 : 		int iMaxHitIndex = gObjMonsterTopHitDamageUser(lpObj);

  0027a	8b 5d 08	 mov	 ebx, DWORD PTR _lpObj$[ebp]
  0027d	53		 push	 ebx
  0027e	e8 00 00 00 00	 call	 ?gObjMonsterTopHitDamageUser@@YAHPAUOBJECTSTRUCT@@@Z ; gObjMonsterTopHitDamageUser

; 1734 : 
; 1735 : 		ItemSerialCreateSend(lpObj->m_Index, (BYTE)lpObj->MapNumber, (BYTE)x, (BYTE)y, type, (BYTE)level, (BYTE)dur,
; 1736 : 			(BYTE)Option1, (BYTE)Option2, (BYTE)Option3, iMaxHitIndex, 0, 0);

  00283	8b 55 fc	 mov	 edx, DWORD PTR _Option3$[ebp]
  00286	8b 4d f4	 mov	 ecx, DWORD PTR _Option1$[ebp]
  00289	6a 00		 push	 0
  0028b	6a 00		 push	 0
  0028d	50		 push	 eax
  0028e	8b 45 f8	 mov	 eax, DWORD PTR _Option2$[ebp]
  00291	52		 push	 edx
  00292	8b 55 ec	 mov	 edx, DWORD PTR _y$[ebp]
  00295	50		 push	 eax
  00296	8b 45 e8	 mov	 eax, DWORD PTR _x$[ebp]
  00299	51		 push	 ecx
  0029a	0f b6 8b 49 01
	00 00		 movzx	 ecx, BYTE PTR [ebx+329]
  002a1	6a 00		 push	 0
  002a3	56		 push	 esi
  002a4	57		 push	 edi
  002a5	52		 push	 edx
  002a6	8b 13		 mov	 edx, DWORD PTR [ebx]
  002a8	50		 push	 eax
  002a9	51		 push	 ecx
  002aa	52		 push	 edx
  002ab	e8 00 00 00 00	 call	 ?ItemSerialCreateSend@@YAXHEEEHEEEEEHEE@Z ; ItemSerialCreateSend

; 1737 : 
; 1738 : 		LogAdd("Event ItemDrop(55) : Item:%d Level:%d op1:%d op2:%d op3:%d",
; 1739 : 			type, level, Option1, Option2, Option3);

  002b0	8b 45 fc	 mov	 eax, DWORD PTR _Option3$[ebp]
  002b3	8b 4d f8	 mov	 ecx, DWORD PTR _Option2$[ebp]
  002b6	8b 55 f4	 mov	 edx, DWORD PTR _Option1$[ebp]
  002b9	50		 push	 eax
  002ba	51		 push	 ecx
  002bb	52		 push	 edx
  002bc	56		 push	 esi
  002bd	57		 push	 edi
  002be	68 00 00 00 00	 push	 OFFSET ??_C@_0DL@OLPGIACC@Event?5ItemDrop?$CI55?$CJ?5?3?5Item?3?$CFd?5Lev@
  002c3	ff 15 00 00 00
	00		 call	 DWORD PTR ?LogAdd@@3P6AXPADZZA ; LogAdd
  002c9	83 c4 50	 add	 esp, 80			; 00000050H
  002cc	5f		 pop	 edi
  002cd	5b		 pop	 ebx

; 1740 : 
; 1741 : 		return TRUE;

  002ce	b8 01 00 00 00	 mov	 eax, 1
  002d3	5e		 pop	 esi

; 1745 : }

  002d4	8b e5		 mov	 esp, ebp
  002d6	5d		 pop	 ebp
  002d7	c3		 ret	 0
$LN17@AttackEven@2:

; 1742 : 	}
; 1743 : 
; 1744 : 	return FALSE;

  002d8	33 c0		 xor	 eax, eax
  002da	5e		 pop	 esi

; 1745 : }

  002db	8b e5		 mov	 esp, ebp
  002dd	5d		 pop	 ebp
  002de	c3		 ret	 0
?AttackEvent55BagOpen@@YAHPAUOBJECTSTRUCT@@@Z ENDP	; AttackEvent55BagOpen
_TEXT	ENDS
PUBLIC	__$ArrayPad$
PUBLIC	?EGRecvEventChipInfo@@YAXPAUPMSG_ANS_VIEW_EC_MN@@@Z ; EGRecvEventChipInfo
EXTRN	?PHeadSetB@@YAXPAEEH@Z:PROC			; PHeadSetB
EXTRN	?gObj@@3PAUOBJECTSTRUCT@@A:DWORD		; gObj
; Function compile flags: /Ogtp
;	COMDAT ?EGRecvEventChipInfo@@YAXPAUPMSG_ANS_VIEW_EC_MN@@@Z
_TEXT	SEGMENT
_eventchipeventinfo$ = -20				; size = 16
__$ArrayPad$ = -4					; size = 4
_aRecv$ = 8						; size = 4
?EGRecvEventChipInfo@@YAXPAUPMSG_ANS_VIEW_EC_MN@@@Z PROC ; EGRecvEventChipInfo, COMDAT

; 1749 : {

  00000	55		 push	 ebp
  00001	8b ec		 mov	 ebp, esp
  00003	83 ec 14	 sub	 esp, 20			; 00000014H
  00006	a1 00 00 00 00	 mov	 eax, DWORD PTR ___security_cookie
  0000b	33 c5		 xor	 eax, ebp
  0000d	89 45 fc	 mov	 DWORD PTR __$ArrayPad$[ebp], eax
  00010	56		 push	 esi
  00011	57		 push	 edi
  00012	8b 7d 08	 mov	 edi, DWORD PTR _aRecv$[ebp]

; 1750 : 	LPOBJ lpObj = &gObj[aRecv->iINDEX];

  00015	8b 77 04	 mov	 esi, DWORD PTR [edi+4]
  00018	69 f6 50 2b 00
	00		 imul	 esi, 11088		; 00002b50H
  0001e	03 35 00 00 00
	00		 add	 esi, DWORD PTR ?gObj@@3PAUOBJECTSTRUCT@@A ; gObj

; 1751 : 
; 1752 : 	PMSG_EVENTCHIPINFO eventchipeventinfo;
; 1753 : 	char msg[255];
; 1754 : 
; 1755 : 	PHeadSetB((LPBYTE)&eventchipeventinfo, 0x94, sizeof(eventchipeventinfo));

  00024	6a 10		 push	 16			; 00000010H
  00026	8d 45 ec	 lea	 eax, DWORD PTR _eventchipeventinfo$[ebp]
  00029	68 94 00 00 00	 push	 148			; 00000094H
  0002e	50		 push	 eax
  0002f	e8 00 00 00 00	 call	 ?PHeadSetB@@YAXPAEEH@Z	; PHeadSetB

; 1756 : 	eventchipeventinfo.Type = 0;
; 1757 : 	eventchipeventinfo.ChipCount = aRecv->nEVENT_CHIPS;

  00034	8b 4f 14	 mov	 ecx, DWORD PTR [edi+20]
  00037	89 4d f0	 mov	 DWORD PTR _eventchipeventinfo$[ebp+4], ecx

; 1758 : 	lpObj->EventChipCount = aRecv->nEVENT_CHIPS;

  0003a	66 8b d1	 mov	 dx, cx
  0003d	c6 45 ef 00	 mov	 BYTE PTR _eventchipeventinfo$[ebp+3], 0
  00041	66 89 96 48 10
	00 00		 mov	 WORD PTR [esi+4168], dx

; 1759 : 	lpObj->MutoNumber = aRecv->iMUTO_NUM;

  00048	8b 47 18	 mov	 eax, DWORD PTR [edi+24]
  0004b	89 86 4c 10 00
	00		 mov	 DWORD PTR [esi+4172], eax

; 1760 : 
; 1761 : 	DataSend(lpObj->m_Index, (LPBYTE)&eventchipeventinfo, eventchipeventinfo.h.size);

  00051	0f b6 4d ed	 movzx	 ecx, BYTE PTR _eventchipeventinfo$[ebp+1]
  00055	8b 06		 mov	 eax, DWORD PTR [esi]
  00057	51		 push	 ecx
  00058	8d 55 ec	 lea	 edx, DWORD PTR _eventchipeventinfo$[ebp]
  0005b	52		 push	 edx
  0005c	50		 push	 eax
  0005d	e8 00 00 00 00	 call	 ?DataSend@@YAHHPAEK@Z	; DataSend

; 1762 : 
; 1763 : 	lpObj->UseEventServer = FALSE;
; 1764 : }

  00062	8b 4d fc	 mov	 ecx, DWORD PTR __$ArrayPad$[ebp]
  00065	83 c4 18	 add	 esp, 24			; 00000018H
  00068	5f		 pop	 edi
  00069	c7 86 50 10 00
	00 00 00 00 00	 mov	 DWORD PTR [esi+4176], 0
  00073	33 cd		 xor	 ecx, ebp
  00075	5e		 pop	 esi
  00076	e8 00 00 00 00	 call	 @__security_check_cookie@4
  0007b	8b e5		 mov	 esp, ebp
  0007d	5d		 pop	 ebp
  0007e	c3		 ret	 0
?EGRecvEventChipInfo@@YAXPAUPMSG_ANS_VIEW_EC_MN@@@Z ENDP ; EGRecvEventChipInfo
_TEXT	ENDS
