; Listing generated by Microsoft (R) Optimizing Compiler Version 16.00.30319.01 

	TITLE	E:\work\tranet_version\GS\GameServer\GameServerZt.cpp
	.686P
	.XMM
	include listing.inc
	.model	flat

INCLUDELIB LIBCMT
INCLUDELIB OLDNAMES

PUBLIC	??0CGameServerZt@@QAE@XZ			; CGameServerZt::CGameServerZt
; Function compile flags: /Ogtp
; File e:\work\tranet_version\gs\gameserver\gameserverzt.cpp
;	COMDAT ??0CGameServerZt@@QAE@XZ
_TEXT	SEGMENT
??0CGameServerZt@@QAE@XZ PROC				; CGameServerZt::CGameServerZt, COMDAT
; _this$ = ecx

; 9    : {

  00000	8b c1		 mov	 eax, ecx

; 10   : 
; 11   : }

  00002	c3		 ret	 0
??0CGameServerZt@@QAE@XZ ENDP				; CGameServerZt::CGameServerZt
_TEXT	ENDS
PUBLIC	??1CGameServerZt@@QAE@XZ			; CGameServerZt::~CGameServerZt
; Function compile flags: /Ogtp
;	COMDAT ??1CGameServerZt@@QAE@XZ
_TEXT	SEGMENT
??1CGameServerZt@@QAE@XZ PROC				; CGameServerZt::~CGameServerZt, COMDAT
; _this$ = ecx

; 15   : 
; 16   : }

  00000	c3		 ret	 0
??1CGameServerZt@@QAE@XZ ENDP				; CGameServerZt::~CGameServerZt
_TEXT	ENDS
PUBLIC	?Load@CGameServerZt@@QAEXXZ			; CGameServerZt::Load
; Function compile flags: /Ogtp
;	COMDAT ?Load@CGameServerZt@@QAEXXZ
_TEXT	SEGMENT
?Load@CGameServerZt@@QAEXXZ PROC			; CGameServerZt::Load, COMDAT
; _this$ = ecx

; 20   : 	
; 21   : 
; 22   : }

  00000	c3		 ret	 0
?Load@CGameServerZt@@QAEXXZ ENDP			; CGameServerZt::Load
_TEXT	ENDS
PUBLIC	?TimerSecond@CGameServerZt@@QAEXXZ		; CGameServerZt::TimerSecond
; Function compile flags: /Ogtp
;	COMDAT ?TimerSecond@CGameServerZt@@QAEXXZ
_TEXT	SEGMENT
?TimerSecond@CGameServerZt@@QAEXXZ PROC			; CGameServerZt::TimerSecond, COMDAT
; _this$ = ecx

; 26   : 
; 27   : 
; 28   : }

  00000	c3		 ret	 0
?TimerSecond@CGameServerZt@@QAEXXZ ENDP			; CGameServerZt::TimerSecond
_TEXT	ENDS
EXTRN	_atexit:PROC
; Function compile flags: /Ogtp
;	COMDAT ??__Eg_GameServerZt@@YAXXZ
text$yc	SEGMENT
??__Eg_GameServerZt@@YAXXZ PROC				; `dynamic initializer for 'g_GameServerZt'', COMDAT

; 6    : CGameServerZt g_GameServerZt;

  00000	68 00 00 00 00	 push	 OFFSET ??__Fg_GameServerZt@@YAXXZ ; `dynamic atexit destructor for 'g_GameServerZt''
  00005	e8 00 00 00 00	 call	 _atexit
  0000a	59		 pop	 ecx
  0000b	c3		 ret	 0
??__Eg_GameServerZt@@YAXXZ ENDP				; `dynamic initializer for 'g_GameServerZt''
; Function compile flags: /Ogtp
text$yc	ENDS
;	COMDAT ??__Fg_GameServerZt@@YAXXZ
text$yd	SEGMENT
??__Fg_GameServerZt@@YAXXZ PROC				; `dynamic atexit destructor for 'g_GameServerZt'', COMDAT
  00000	c3		 ret	 0
??__Fg_GameServerZt@@YAXXZ ENDP				; `dynamic atexit destructor for 'g_GameServerZt''
text$yd	ENDS
PUBLIC	?g_GameServerZt@@3VCGameServerZt@@A		; g_GameServerZt
_BSS	SEGMENT
?g_GameServerZt@@3VCGameServerZt@@A DB 01H DUP (?)	; g_GameServerZt
_BSS	ENDS
CRT$XCU	SEGMENT
_g_GameServerZt$initializer$ DD FLAT:??__Eg_GameServerZt@@YAXXZ
CRT$XCU	ENDS
END
