; Listing generated by Microsoft (R) Optimizing Compiler Version 16.00.30319.01 

	TITLE	E:\work\tranet_version\GS\GameServer\GameShop.cpp
	.686P
	.XMM
	include listing.inc
	.model	flat

INCLUDELIB LIBCMT
INCLUDELIB OLDNAMES

_DATA	SEGMENT
_g_iNpcUpDfLevel_CGATE DD 01H
	DD	02H
	DD	02dc6c0H
	DD	02H
	DD	03H
	DD	02dc6c0H
	DD	03H
	DD	04H
	DD	02dc6c0H
_g_iNpcUpDfLevel_CSTATUE DD 01H
	DD	03H
	DD	02dc6c0H
	DD	02H
	DD	05H
	DD	02dc6c0H
	DD	03H
	DD	07H
	DD	02dc6c0H
_g_iNpcUpMaxHP_CGATE DD 02625a0H
	DD	02H
	DD	0f4240H
	DD	03567e0H
	DD	03H
	DD	0f4240H
	DD	04f5880H
	DD	04H
	DD	0f4240H
_g_iNpcUpMaxHP_CSTATUE DD 02191c0H
	DD	03H
	DD	0f4240H
	DD	033e140H
	DD	05H
	DD	0f4240H
	DD	04c4b40H
	DD	07H
	DD	0f4240H
_g_iNpcUpRgLevel_CSTATUE DD 01H
	DD	03H
	DD	04c4b40H
	DD	02H
	DD	05H
	DD	04c4b40H
	DD	03H
	DD	07H
	DD	04c4b40H
_g_iCsUserReSpawnArea DD 023H
	DD	011H
	DD	090H
	DD	030H
	DD	04aH
	DD	090H
	DD	073H
	DD	09aH
	DD	023H
	DD	011H
	DD	090H
	DD	030H
_g_iNpcDefense_CGATE DD 064H
	DD	0b4H
	DD	012cH
	DD	0208H
_g_iNpcDefense_CSTATUE DD 050H
	DD	0b4H
	DD	0154H
	DD	0226H
_g_iCastleWallStepAxisY DD 071H
	DD	0a0H
	DD	0cbH
_DATA	ENDS
PUBLIC	?set@PBMSG_HEAD2@@QAEXPAEEEE@Z			; PBMSG_HEAD2::set
; Function compile flags: /Ogtp
; File e:\work\tranet_version\gs\include\prodef.h
;	COMDAT ?set@PBMSG_HEAD2@@QAEXPAEEEE@Z
_TEXT	SEGMENT
_lpBuf$ = 8						; size = 4
_head$ = 12						; size = 1
_sub$ = 16						; size = 1
_size$ = 20						; size = 1
?set@PBMSG_HEAD2@@QAEXPAEEEE@Z PROC			; PBMSG_HEAD2::set, COMDAT
; _this$ = ecx

; 104  : 	{

  00000	55		 push	 ebp
  00001	8b ec		 mov	 ebp, esp

; 105  : 		lpBuf[0] = 0xC1;

  00003	8b 45 08	 mov	 eax, DWORD PTR _lpBuf$[ebp]

; 106  : 		lpBuf[1] = size;

  00006	8a 4d 14	 mov	 cl, BYTE PTR _size$[ebp]

; 107  : 		lpBuf[2] = head;

  00009	8a 55 0c	 mov	 dl, BYTE PTR _head$[ebp]
  0000c	88 48 01	 mov	 BYTE PTR [eax+1], cl

; 108  : 		lpBuf[3] = sub;

  0000f	8a 4d 10	 mov	 cl, BYTE PTR _sub$[ebp]
  00012	c6 00 c1	 mov	 BYTE PTR [eax], 193	; 000000c1H
  00015	88 50 02	 mov	 BYTE PTR [eax+2], dl
  00018	88 48 03	 mov	 BYTE PTR [eax+3], cl

; 109  : 	};

  0001b	5d		 pop	 ebp
  0001c	c2 10 00	 ret	 16			; 00000010H
?set@PBMSG_HEAD2@@QAEXPAEEEE@Z ENDP			; PBMSG_HEAD2::set
_TEXT	ENDS
PUBLIC	??2@YAPAXIPAX@Z					; operator new
; Function compile flags: /Ogtp
; File d:\program files (x86)\microsoft visual studio 10.0\vc\include\new.h
;	COMDAT ??2@YAPAXIPAX@Z
_TEXT	SEGMENT
___formal$ = 8						; size = 4
__Where$ = 12						; size = 4
??2@YAPAXIPAX@Z PROC					; operator new, COMDAT

; 81   :         {return (_Where); }

  00000	55		 push	 ebp
  00001	8b ec		 mov	 ebp, esp
  00003	8b 45 0c	 mov	 eax, DWORD PTR __Where$[ebp]
  00006	5d		 pop	 ebp
  00007	c3		 ret	 0
??2@YAPAXIPAX@Z ENDP					; operator new
_TEXT	ENDS
PUBLIC	??3@YAXPAX0@Z					; operator delete
; Function compile flags: /Ogtp
;	COMDAT ??3@YAXPAX0@Z
_TEXT	SEGMENT
___formal$ = 8						; size = 4
___formal$ = 12						; size = 4
??3@YAXPAX0@Z PROC					; operator delete, COMDAT

; 83   :         {return; }

  00000	c3		 ret	 0
??3@YAXPAX0@Z ENDP					; operator delete
_TEXT	ENDS
PUBLIC	??0GAMESHOP_ITEM_DATA@@QAE@XZ			; GAMESHOP_ITEM_DATA::GAMESHOP_ITEM_DATA
; Function compile flags: /Ogtp
; File e:\work\tranet_version\gs\gameserver\gameshop.h
;	COMDAT ??0GAMESHOP_ITEM_DATA@@QAE@XZ
_TEXT	SEGMENT
??0GAMESHOP_ITEM_DATA@@QAE@XZ PROC			; GAMESHOP_ITEM_DATA::GAMESHOP_ITEM_DATA, COMDAT
; _this$ = ecx

; 298  : 	{

  00000	8b c1		 mov	 eax, ecx

; 299  : 		this->PackageID		= -1;

  00002	83 c9 ff	 or	 ecx, -1

; 300  : 		this->ItemID		= -1;

  00005	0b d1		 or	 edx, ecx
  00007	66 89 08	 mov	 WORD PTR [eax], cx

; 301  : 		this->X				= -1;
; 302  : 		this->Y				= -1;
; 303  : 		this->Level			= 0;

  0000a	33 c9		 xor	 ecx, ecx
  0000c	66 89 50 02	 mov	 WORD PTR [eax+2], dx
  00010	b2 ff		 mov	 dl, 255			; 000000ffH
  00012	c7 40 04 ff ff
	00 ff		 mov	 DWORD PTR [eax+4], -16711681 ; ff00ffffH

; 304  : 		this->Durability	= -1;
; 305  : 		this->Skill			= 0;

  00019	89 48 08	 mov	 DWORD PTR [eax+8], ecx

; 306  : 		this->Luck			= 0;
; 307  : 		this->Option		= 0;
; 308  : 		this->Excellent		= 0;
; 309  : 		this->Duration		= 0;

  0001c	89 48 0c	 mov	 DWORD PTR [eax+12], ecx

; 310  : 		this->Price			= 0;

  0001f	89 48 10	 mov	 DWORD PTR [eax+16], ecx

; 311  : 		this->PointType		= -1;

  00022	88 50 14	 mov	 BYTE PTR [eax+20], dl

; 312  : 		this->GPBonus		= 0;

  00025	89 48 18	 mov	 DWORD PTR [eax+24], ecx

; 313  : 		this->IBSID			= 0;

  00028	89 48 1c	 mov	 DWORD PTR [eax+28], ecx

; 314  : 		this->IBSCategory	= 0;

  0002b	89 48 20	 mov	 DWORD PTR [eax+32], ecx

; 315  : 		this->IBSIndex		= 0;

  0002e	89 48 24	 mov	 DWORD PTR [eax+36], ecx

; 316  : 	};

  00031	c3		 ret	 0
??0GAMESHOP_ITEM_DATA@@QAE@XZ ENDP			; GAMESHOP_ITEM_DATA::GAMESHOP_ITEM_DATA
_TEXT	ENDS
PUBLIC	??_H@YGXPAXIHP6EPAX0@Z@Z			; `vector constructor iterator'
; Function compile flags: /Ogtp
;	COMDAT ??_H@YGXPAXIHP6EPAX0@Z@Z
_TEXT	SEGMENT
___t$ = 8						; size = 4
___s$ = 12						; size = 4
___n$ = 16						; size = 4
___f$ = 20						; size = 4
??_H@YGXPAXIHP6EPAX0@Z@Z PROC				; `vector constructor iterator', COMDAT
  00000	55		 push	 ebp
  00001	8b ec		 mov	 ebp, esp
  00003	57		 push	 edi
  00004	8b 7d 10	 mov	 edi, DWORD PTR ___n$[ebp]
  00007	4f		 dec	 edi
  00008	78 14		 js	 SHORT $LN1@vector
  0000a	53		 push	 ebx
  0000b	8b 5d 14	 mov	 ebx, DWORD PTR ___f$[ebp]
  0000e	56		 push	 esi
  0000f	8b 75 08	 mov	 esi, DWORD PTR ___t$[ebp]
$LL2@vector:
  00012	8b ce		 mov	 ecx, esi
  00014	ff d3		 call	 ebx
  00016	03 75 0c	 add	 esi, DWORD PTR ___s$[ebp]
  00019	4f		 dec	 edi
  0001a	79 f6		 jns	 SHORT $LL2@vector
  0001c	5e		 pop	 esi
  0001d	5b		 pop	 ebx
$LN1@vector:
  0001e	5f		 pop	 edi
  0001f	5d		 pop	 ebp
  00020	c2 10 00	 ret	 16			; 00000010H
??_H@YGXPAXIHP6EPAX0@Z@Z ENDP				; `vector constructor iterator'
_TEXT	ENDS
PUBLIC	__$ArrayPad$
EXTRN	_isalnum:PROC
EXTRN	_isalpha:PROC
EXTRN	_atof:PROC
EXTRN	_isdigit:PROC
EXTRN	_getc:PROC
EXTRN	_ungetc:PROC
EXTRN	_isspace:PROC
EXTRN	_fgetc:PROC
EXTRN	___security_cookie:DWORD
EXTRN	__fltused:DWORD
EXTRN	@__security_check_cookie@4:PROC
_BSS	SEGMENT
_CurrentToken DD 01H DUP (?)
_TokenNumber DD	01H DUP (?)
_SMDFile DD	01H DUP (?)
_TokenString DB	064H DUP (?)
; Function compile flags: /Ogtp
; File e:\work\tranet_version\gs\include\readscript.h
_BSS	ENDS
;	COMDAT ?GetToken@@YA?AW4SMDToken@@XZ
_TEXT	SEGMENT
_TempString$ = -104					; size = 100
__$ArrayPad$ = -4					; size = 4
?GetToken@@YA?AW4SMDToken@@XZ PROC			; GetToken, COMDAT

; 24   : {

  00000	55		 push	 ebp
  00001	8b ec		 mov	 ebp, esp
  00003	83 ec 68	 sub	 esp, 104		; 00000068H
  00006	a1 00 00 00 00	 mov	 eax, DWORD PTR ___security_cookie
  0000b	33 c5		 xor	 eax, ebp
  0000d	89 45 fc	 mov	 DWORD PTR __$ArrayPad$[ebp], eax

; 25   : 	char ch;
; 26   : 	char* p;
; 27   : 	char TempString[100];
; 28   : 
; 29   : 	TokenString[0]=0;

  00010	c6 05 00 00 00
	00 00		 mov	 BYTE PTR _TokenString, 0
  00017	53		 push	 ebx
  00018	eb 06 8d 9b 00
	00 00 00	 npad	 8
$LL31@GetToken:

; 30   : 
; 31   : 	do
; 32   : 	{
; 33   : 		if ((ch=fgetc(SMDFile)) == -1)

  00020	a1 00 00 00 00	 mov	 eax, DWORD PTR _SMDFile
  00025	50		 push	 eax
  00026	e8 00 00 00 00	 call	 _fgetc
  0002b	8a d8		 mov	 bl, al
  0002d	83 c4 04	 add	 esp, 4
  00030	80 fb ff	 cmp	 bl, -1
  00033	74 64		 je	 SHORT $LN39@GetToken

; 36   : 		}
; 37   : 		else
; 38   : 		{	
; 39   : 			if (ch=='/')		// this is /

  00035	80 fb 2f	 cmp	 bl, 47			; 0000002fH
  00038	75 31		 jne	 SHORT $LN30@GetToken

; 40   : 			{
; 41   : 				if((ch=fgetc(SMDFile)) == '/')

  0003a	8b 0d 00 00 00
	00		 mov	 ecx, DWORD PTR _SMDFile
  00040	51		 push	 ecx
  00041	e8 00 00 00 00	 call	 _fgetc
  00046	8a d8		 mov	 bl, al
  00048	83 c4 04	 add	 esp, 4
  0004b	80 fb 2f	 cmp	 bl, 47			; 0000002fH
  0004e	75 1b		 jne	 SHORT $LN30@GetToken
$LL24@GetToken:

; 42   : 				{
; 43   : 					while ((ch != '\n') && (ch != -1))	// End of Line (EOL)

  00050	80 fb ff	 cmp	 bl, -1
  00053	74 44		 je	 SHORT $LN39@GetToken

; 44   : 					{
; 45   : 						ch=fgetc(SMDFile);

  00055	8b 15 00 00 00
	00		 mov	 edx, DWORD PTR _SMDFile
  0005b	52		 push	 edx
  0005c	e8 00 00 00 00	 call	 _fgetc
  00061	8a d8		 mov	 bl, al
  00063	83 c4 04	 add	 esp, 4
  00066	80 fb 0a	 cmp	 bl, 10			; 0000000aH
  00069	75 e5		 jne	 SHORT $LL24@GetToken
$LN30@GetToken:

; 46   : 					}
; 47   : 	
; 48   : 					if (ch == -1)
; 49   : 					{
; 50   : 						return END;	// End of FILE
; 51   : 					}
; 52   : 				}
; 53   : 			}
; 54   : 		}
; 55   : 	}
; 56   : 	while (isspace(ch) != 0);

  0006b	0f be c3	 movsx	 eax, bl
  0006e	50		 push	 eax
  0006f	e8 00 00 00 00	 call	 _isspace
  00074	83 c4 04	 add	 esp, 4
  00077	85 c0		 test	 eax, eax
  00079	75 a5		 jne	 SHORT $LL31@GetToken

; 57   : 
; 58   : 	
; 59   : 	switch(ch)

  0007b	0f be c3	 movsx	 eax, bl
  0007e	8d 48 de	 lea	 ecx, DWORD PTR [eax-34]
  00081	56		 push	 esi
  00082	83 f9 5b	 cmp	 ecx, 91			; 0000005bH
  00085	0f 87 2b 01 00
	00		 ja	 $LN6@GetToken
  0008b	0f b6 89 00 00
	00 00		 movzx	 ecx, BYTE PTR $LN46@GetToken[ecx]
  00092	ff 24 8d 00 00
	00 00		 jmp	 DWORD PTR $LN50@GetToken[ecx*4]
$LN39@GetToken:

; 34   : 		{
; 35   : 			return END;	// End of FILE (EOF)

  00099	b8 02 00 00 00	 mov	 eax, 2
  0009e	5b		 pop	 ebx

; 147  : 		}
; 148  : 		break;
; 149  : 
; 150  : 	}
; 151  : 
; 152  : 	return NAME;
; 153  : }

  0009f	8b 4d fc	 mov	 ecx, DWORD PTR __$ArrayPad$[ebp]
  000a2	33 cd		 xor	 ecx, ebp
  000a4	e8 00 00 00 00	 call	 @__security_check_cookie@4
  000a9	8b e5		 mov	 esp, ebp
  000ab	5d		 pop	 ebp
  000ac	c3		 ret	 0
$LN19@GetToken:

; 60   : 	{
; 61   : 
; 62   : 	case 0x23:	// #
; 63   : 		return CurrentToken=COMMAND;

  000ad	b8 23 00 00 00	 mov	 eax, 35			; 00000023H
  000b2	e9 99 01 00 00	 jmp	 $LN48@GetToken
$LN18@GetToken:

; 64   : 		break;
; 65   : 	
; 66   : 	case 0x3B:	// ;
; 67   : 		return CurrentToken=SEMICOLON;

  000b7	b8 3b 00 00 00	 mov	 eax, 59			; 0000003bH
  000bc	e9 8f 01 00 00	 jmp	 $LN48@GetToken
$LN17@GetToken:

; 68   : 		break;
; 69   : 	
; 70   : 	case 0x2C:	// ,
; 71   : 
; 72   : 		return CurrentToken=COMMA;

  000c1	b8 2c 00 00 00	 mov	 eax, 44			; 0000002cH
  000c6	e9 85 01 00 00	 jmp	 $LN48@GetToken
$LN16@GetToken:

; 73   : 		break;
; 74   : 	
; 75   : 	case 0x7B:	// {
; 76   : 		return CurrentToken = LP;

  000cb	b8 7b 00 00 00	 mov	 eax, 123		; 0000007bH
  000d0	e9 7b 01 00 00	 jmp	 $LN48@GetToken
$LN15@GetToken:

; 77   : 		break;
; 78   : 
; 79   : 	case 0x7D:	// }
; 80   : 		return CurrentToken = RP;

  000d5	b8 7d 00 00 00	 mov	 eax, 125		; 0000007dH
  000da	e9 71 01 00 00	 jmp	 $LN48@GetToken
$LN14@GetToken:

; 81   : 		break;
; 82   : 	// Nice Index Table :)	by Deathway
; 83   : 	// Numbers Case
; 84   : 	case 0x2D:	//-
; 85   : 	case 0x2E:	//.
; 86   : 	case '0':	//0
; 87   : 	case '1':	//1
; 88   : 	case '2':	//2
; 89   : 	case '3':	//3
; 90   : 	case '4':	//4		
; 91   : 	case '5':	//5
; 92   : 	case '6':	//6
; 93   : 	case '7':	//7
; 94   : 	case '8':	//8
; 95   : 	case '9':	//9
; 96   : 		ungetc(ch, SMDFile);

  000df	8b 15 00 00 00
	00		 mov	 edx, DWORD PTR _SMDFile
  000e5	52		 push	 edx
  000e6	50		 push	 eax
  000e7	e8 00 00 00 00	 call	 _ungetc

; 97   : 		p = TempString;
; 98   : 		
; 99   : 		while (((ch=getc(SMDFile)) != -1) && ((ch == 0x2E) || (isdigit(ch) != 0) || (ch == 0x2D)))  // 2e '.'  2D '-'

  000ec	a1 00 00 00 00	 mov	 eax, DWORD PTR _SMDFile
  000f1	50		 push	 eax
  000f2	8d 75 98	 lea	 esi, DWORD PTR _TempString$[ebp]
  000f5	e8 00 00 00 00	 call	 _getc
  000fa	8a d8		 mov	 bl, al
  000fc	83 c4 0c	 add	 esp, 12			; 0000000cH
  000ff	80 fb ff	 cmp	 bl, -1
  00102	74 33		 je	 SHORT $LN12@GetToken
$LL13@GetToken:
  00104	80 fb 2e	 cmp	 bl, 46			; 0000002eH
  00107	74 15		 je	 SHORT $LN11@GetToken
  00109	0f be cb	 movsx	 ecx, bl
  0010c	51		 push	 ecx
  0010d	e8 00 00 00 00	 call	 _isdigit
  00112	83 c4 04	 add	 esp, 4
  00115	85 c0		 test	 eax, eax
  00117	75 05		 jne	 SHORT $LN11@GetToken
  00119	80 fb 2d	 cmp	 bl, 45			; 0000002dH
  0011c	75 19		 jne	 SHORT $LN12@GetToken
$LN11@GetToken:
  0011e	8b 15 00 00 00
	00		 mov	 edx, DWORD PTR _SMDFile

; 100  : 		{
; 101  : 			*p = ch;	// Construct a String

  00124	88 1e		 mov	 BYTE PTR [esi], bl
  00126	52		 push	 edx

; 102  : 			p++;

  00127	46		 inc	 esi
  00128	e8 00 00 00 00	 call	 _getc
  0012d	8a d8		 mov	 bl, al
  0012f	83 c4 04	 add	 esp, 4
  00132	80 fb ff	 cmp	 bl, -1
  00135	75 cd		 jne	 SHORT $LL13@GetToken
$LN12@GetToken:

; 103  : 		}		
; 104  : 		*p = 0;
; 105  : 		TokenNumber = atof( TempString);	// Select the first Byte as Main ID

  00137	8d 45 98	 lea	 eax, DWORD PTR _TempString$[ebp]
  0013a	50		 push	 eax
  0013b	c6 06 00	 mov	 BYTE PTR [esi], 0
  0013e	e8 00 00 00 00	 call	 _atof
  00143	d9 1d 00 00 00
	00		 fstp	 DWORD PTR _TokenNumber
  00149	83 c4 04	 add	 esp, 4
  0014c	5e		 pop	 esi

; 106  : 		return CurrentToken  = NUMBER ;

  0014d	c7 05 00 00 00
	00 01 00 00 00	 mov	 DWORD PTR _CurrentToken, 1
  00157	b8 01 00 00 00	 mov	 eax, 1
  0015c	5b		 pop	 ebx

; 147  : 		}
; 148  : 		break;
; 149  : 
; 150  : 	}
; 151  : 
; 152  : 	return NAME;
; 153  : }

  0015d	8b 4d fc	 mov	 ecx, DWORD PTR __$ArrayPad$[ebp]
  00160	33 cd		 xor	 ecx, ebp
  00162	e8 00 00 00 00	 call	 @__security_check_cookie@4
  00167	8b e5		 mov	 esp, ebp
  00169	5d		 pop	 ebp
  0016a	c3		 ret	 0
$LN10@GetToken:

; 107  : 		break;
; 108  : 
; 109  : 	case '\"':	// "	String Case
; 110  : 		p=&TokenString[0];
; 111  : 		
; 112  : 		while (((ch=getc(SMDFile)) != -1 ) && (ch != 0x22))	// nice

  0016b	8b 0d 00 00 00
	00		 mov	 ecx, DWORD PTR _SMDFile
  00171	51		 push	 ecx
  00172	be 00 00 00 00	 mov	 esi, OFFSET _TokenString
  00177	e8 00 00 00 00	 call	 _getc
  0017c	83 c4 04	 add	 esp, 4
  0017f	3c ff		 cmp	 al, -1
  00181	74 1e		 je	 SHORT $LN8@GetToken
$LL9@GetToken:
  00183	3c 22		 cmp	 al, 34			; 00000022H
  00185	0f 84 a1 00 00
	00		 je	 $LN7@GetToken
  0018b	8b 15 00 00 00
	00		 mov	 edx, DWORD PTR _SMDFile

; 113  : 		{
; 114  : 			*p = ch;

  00191	88 06		 mov	 BYTE PTR [esi], al
  00193	52		 push	 edx

; 115  : 			p++;

  00194	46		 inc	 esi
  00195	e8 00 00 00 00	 call	 _getc
  0019a	83 c4 04	 add	 esp, 4
  0019d	3c ff		 cmp	 al, -1
  0019f	75 e2		 jne	 SHORT $LL9@GetToken
$LN8@GetToken:

; 116  : 		}
; 117  : 		if (ch != 0x22 )

  001a1	3c 22		 cmp	 al, 34			; 00000022H
  001a3	0f 84 83 00 00
	00		 je	 $LN7@GetToken

; 118  : 		{
; 119  : 			ungetc(ch, SMDFile);

  001a9	8b 0d 00 00 00
	00		 mov	 ecx, DWORD PTR _SMDFile
  001af	0f be d0	 movsx	 edx, al
  001b2	51		 push	 ecx
  001b3	52		 push	 edx

; 120  : 		}
; 121  : 		*p = 0;
; 122  : 		return CurrentToken = NAME;

  001b4	eb 6e		 jmp	 SHORT $LN49@GetToken
$LN6@GetToken:

; 123  : 		break;
; 124  : 
; 125  : 	default:	// Others
; 126  : 		if (isalpha(ch))

  001b6	50		 push	 eax
  001b7	e8 00 00 00 00	 call	 _isalpha
  001bc	83 c4 04	 add	 esp, 4
  001bf	85 c0		 test	 eax, eax
  001c1	0f 84 84 00 00
	00		 je	 $LN5@GetToken

; 127  : 		{
; 128  : 			p=&TokenString[0];
; 129  : 			*p=ch;
; 130  : 			p++;
; 131  : 
; 132  : 			while ( ((ch=getc(SMDFile)) != -1) && ( (ch == 0x2E) || (ch == 0x5F) || (isalnum(ch) != 0) ) )

  001c7	a1 00 00 00 00	 mov	 eax, DWORD PTR _SMDFile
  001cc	50		 push	 eax
  001cd	88 1d 00 00 00
	00		 mov	 BYTE PTR _TokenString, bl
  001d3	be 01 00 00 00	 mov	 esi, OFFSET _TokenString+1
  001d8	e8 00 00 00 00	 call	 _getc
  001dd	8a d8		 mov	 bl, al
  001df	83 c4 04	 add	 esp, 4
  001e2	80 fb ff	 cmp	 bl, -1
  001e5	74 33		 je	 SHORT $LN3@GetToken
$LL4@GetToken:
  001e7	80 fb 2e	 cmp	 bl, 46			; 0000002eH
  001ea	74 15		 je	 SHORT $LN2@GetToken
  001ec	80 fb 5f	 cmp	 bl, 95			; 0000005fH
  001ef	74 10		 je	 SHORT $LN2@GetToken
  001f1	0f be cb	 movsx	 ecx, bl
  001f4	51		 push	 ecx
  001f5	e8 00 00 00 00	 call	 _isalnum
  001fa	83 c4 04	 add	 esp, 4
  001fd	85 c0		 test	 eax, eax
  001ff	74 19		 je	 SHORT $LN3@GetToken
$LN2@GetToken:
  00201	8b 15 00 00 00
	00		 mov	 edx, DWORD PTR _SMDFile

; 133  : 			{
; 134  : 				*p=ch;

  00207	88 1e		 mov	 BYTE PTR [esi], bl
  00209	52		 push	 edx

; 135  : 				p++;

  0020a	46		 inc	 esi
  0020b	e8 00 00 00 00	 call	 _getc
  00210	8a d8		 mov	 bl, al
  00212	83 c4 04	 add	 esp, 4
  00215	80 fb ff	 cmp	 bl, -1
  00218	75 cd		 jne	 SHORT $LL4@GetToken
$LN3@GetToken:

; 136  : 				
; 137  : 			}
; 138  : 
; 139  : 			ungetc(ch, SMDFile);

  0021a	a1 00 00 00 00	 mov	 eax, DWORD PTR _SMDFile
  0021f	0f be cb	 movsx	 ecx, bl
  00222	50		 push	 eax
  00223	51		 push	 ecx
$LN49@GetToken:
  00224	e8 00 00 00 00	 call	 _ungetc
  00229	83 c4 08	 add	 esp, 8
$LN7@GetToken:

; 140  : 			*p=0;

  0022c	c6 06 00	 mov	 BYTE PTR [esi], 0
  0022f	5e		 pop	 esi

; 141  : 			CurrentToken=NAME;

  00230	c7 05 00 00 00
	00 00 00 00 00	 mov	 DWORD PTR _CurrentToken, 0

; 142  : 			return CurrentToken;

  0023a	33 c0		 xor	 eax, eax
  0023c	5b		 pop	 ebx

; 147  : 		}
; 148  : 		break;
; 149  : 
; 150  : 	}
; 151  : 
; 152  : 	return NAME;
; 153  : }

  0023d	8b 4d fc	 mov	 ecx, DWORD PTR __$ArrayPad$[ebp]
  00240	33 cd		 xor	 ecx, ebp
  00242	e8 00 00 00 00	 call	 @__security_check_cookie@4
  00247	8b e5		 mov	 esp, ebp
  00249	5d		 pop	 ebp
  0024a	c3		 ret	 0
$LN5@GetToken:

; 143  : 		}
; 144  : 		else
; 145  : 		{
; 146  : 			return CurrentToken = SMD_ERROR; // '<'

  0024b	b8 3c 00 00 00	 mov	 eax, 60			; 0000003cH
$LN48@GetToken:

; 147  : 		}
; 148  : 		break;
; 149  : 
; 150  : 	}
; 151  : 
; 152  : 	return NAME;
; 153  : }

  00250	8b 4d fc	 mov	 ecx, DWORD PTR __$ArrayPad$[ebp]
  00253	5e		 pop	 esi
  00254	33 cd		 xor	 ecx, ebp
  00256	a3 00 00 00 00	 mov	 DWORD PTR _CurrentToken, eax
  0025b	5b		 pop	 ebx
  0025c	e8 00 00 00 00	 call	 @__security_check_cookie@4
  00261	8b e5		 mov	 esp, ebp
  00263	5d		 pop	 ebp
  00264	c3		 ret	 0
  00265	8d 49 00	 npad	 3
$LN50@GetToken:
  00268	00 00 00 00	 DD	 $LN10@GetToken
  0026c	00 00 00 00	 DD	 $LN19@GetToken
  00270	00 00 00 00	 DD	 $LN17@GetToken
  00274	00 00 00 00	 DD	 $LN14@GetToken
  00278	00 00 00 00	 DD	 $LN18@GetToken
  0027c	00 00 00 00	 DD	 $LN16@GetToken
  00280	00 00 00 00	 DD	 $LN15@GetToken
  00284	00 00 00 00	 DD	 $LN6@GetToken
$LN46@GetToken:
  00288	00		 DB	 0
  00289	01		 DB	 1
  0028a	07		 DB	 7
  0028b	07		 DB	 7
  0028c	07		 DB	 7
  0028d	07		 DB	 7
  0028e	07		 DB	 7
  0028f	07		 DB	 7
  00290	07		 DB	 7
  00291	07		 DB	 7
  00292	02		 DB	 2
  00293	03		 DB	 3
  00294	03		 DB	 3
  00295	07		 DB	 7
  00296	03		 DB	 3
  00297	03		 DB	 3
  00298	03		 DB	 3
  00299	03		 DB	 3
  0029a	03		 DB	 3
  0029b	03		 DB	 3
  0029c	03		 DB	 3
  0029d	03		 DB	 3
  0029e	03		 DB	 3
  0029f	03		 DB	 3
  002a0	07		 DB	 7
  002a1	04		 DB	 4
  002a2	07		 DB	 7
  002a3	07		 DB	 7
  002a4	07		 DB	 7
  002a5	07		 DB	 7
  002a6	07		 DB	 7
  002a7	07		 DB	 7
  002a8	07		 DB	 7
  002a9	07		 DB	 7
  002aa	07		 DB	 7
  002ab	07		 DB	 7
  002ac	07		 DB	 7
  002ad	07		 DB	 7
  002ae	07		 DB	 7
  002af	07		 DB	 7
  002b0	07		 DB	 7
  002b1	07		 DB	 7
  002b2	07		 DB	 7
  002b3	07		 DB	 7
  002b4	07		 DB	 7
  002b5	07		 DB	 7
  002b6	07		 DB	 7
  002b7	07		 DB	 7
  002b8	07		 DB	 7
  002b9	07		 DB	 7
  002ba	07		 DB	 7
  002bb	07		 DB	 7
  002bc	07		 DB	 7
  002bd	07		 DB	 7
  002be	07		 DB	 7
  002bf	07		 DB	 7
  002c0	07		 DB	 7
  002c1	07		 DB	 7
  002c2	07		 DB	 7
  002c3	07		 DB	 7
  002c4	07		 DB	 7
  002c5	07		 DB	 7
  002c6	07		 DB	 7
  002c7	07		 DB	 7
  002c8	07		 DB	 7
  002c9	07		 DB	 7
  002ca	07		 DB	 7
  002cb	07		 DB	 7
  002cc	07		 DB	 7
  002cd	07		 DB	 7
  002ce	07		 DB	 7
  002cf	07		 DB	 7
  002d0	07		 DB	 7
  002d1	07		 DB	 7
  002d2	07		 DB	 7
  002d3	07		 DB	 7
  002d4	07		 DB	 7
  002d5	07		 DB	 7
  002d6	07		 DB	 7
  002d7	07		 DB	 7
  002d8	07		 DB	 7
  002d9	07		 DB	 7
  002da	07		 DB	 7
  002db	07		 DB	 7
  002dc	07		 DB	 7
  002dd	07		 DB	 7
  002de	07		 DB	 7
  002df	07		 DB	 7
  002e0	07		 DB	 7
  002e1	05		 DB	 5
  002e2	07		 DB	 7
  002e3	06		 DB	 6
?GetToken@@YA?AW4SMDToken@@XZ ENDP			; GetToken
_TEXT	ENDS
PUBLIC	??_C@_0BN@OLDNPDNG@?$FLGameShop?$FN?5?$CFs?5file?5is?5loaded?$AA@ ; `string'
PUBLIC	??_C@_03JBJLGPFL@end?$AA@			; `string'
PUBLIC	??_C@_0BN@GNBNILEJ@?$FLGameShop?$FN?5?$CFs?5file?5not?5found?$AA@ ; `string'
PUBLIC	??_C@_01KDCPPGHE@r?$AA@				; `string'
PUBLIC	?ReadCategoryList@GameShop@@QAEXPAD@Z		; GameShop::ReadCategoryList
EXTRN	?LogAddTD@@3P6AXPADZZA:DWORD			; LogAddTD
EXTRN	_fclose:PROC
EXTRN	?MsgBox@@YAXPADZZ:PROC				; MsgBox
EXTRN	_fopen:PROC
EXTRN	__ftol2_sse:PROC
;	COMDAT ??_C@_0BN@OLDNPDNG@?$FLGameShop?$FN?5?$CFs?5file?5is?5loaded?$AA@
; File e:\work\tranet_version\gs\gameserver\gameshop.cpp
CONST	SEGMENT
??_C@_0BN@OLDNPDNG@?$FLGameShop?$FN?5?$CFs?5file?5is?5loaded?$AA@ DB '[Ga'
	DB	'meShop] %s file is loaded', 00H		; `string'
CONST	ENDS
;	COMDAT ??_C@_03JBJLGPFL@end?$AA@
CONST	SEGMENT
??_C@_03JBJLGPFL@end?$AA@ DB 'end', 00H			; `string'
CONST	ENDS
;	COMDAT ??_C@_0BN@GNBNILEJ@?$FLGameShop?$FN?5?$CFs?5file?5not?5found?$AA@
CONST	SEGMENT
??_C@_0BN@GNBNILEJ@?$FLGameShop?$FN?5?$CFs?5file?5not?5found?$AA@ DB '[Ga'
	DB	'meShop] %s file not found', 00H		; `string'
CONST	ENDS
;	COMDAT ??_C@_01KDCPPGHE@r?$AA@
CONST	SEGMENT
??_C@_01KDCPPGHE@r?$AA@ DB 'r', 00H			; `string'
; Function compile flags: /Ogtp
CONST	ENDS
;	COMDAT ?ReadCategoryList@GameShop@@QAEXPAD@Z
_TEXT	SEGMENT
tv242 = -8						; size = 4
tv240 = -8						; size = 4
tv216 = -8						; size = 4
tv214 = -8						; size = 4
tv165 = -8						; size = 4
tv161 = -8						; size = 4
tv245 = -4						; size = 2
tv219 = -4						; size = 2
tv192 = -4						; size = 2
_WCoinPCounter$ = -2					; size = 1
_WCoinCCounter$ = -1					; size = 1
_File$ = 8						; size = 4
?ReadCategoryList@GameShop@@QAEXPAD@Z PROC		; GameShop::ReadCategoryList, COMDAT
; _this$ = ecx

; 276  : {

  00000	55		 push	 ebp
  00001	8b ec		 mov	 ebp, esp
  00003	83 ec 08	 sub	 esp, 8
  00006	56		 push	 esi
  00007	57		 push	 edi

; 277  : 	SMDToken Token;
; 278  : 	SMDFile = fopen(File, "r");

  00008	8b 7d 08	 mov	 edi, DWORD PTR _File$[ebp]
  0000b	68 00 00 00 00	 push	 OFFSET ??_C@_01KDCPPGHE@r?$AA@
  00010	57		 push	 edi
  00011	8b f1		 mov	 esi, ecx
  00013	e8 00 00 00 00	 call	 _fopen
  00018	83 c4 08	 add	 esp, 8
  0001b	a3 00 00 00 00	 mov	 DWORD PTR _SMDFile, eax

; 279  : 	// ----
; 280  : 	if( !SMDFile )

  00020	85 c0		 test	 eax, eax
  00022	75 16		 jne	 SHORT $LN14@ReadCatego

; 281  : 	{
; 282  : 		MsgBox("[GameShop] %s file not found", File);

  00024	57		 push	 edi
  00025	68 00 00 00 00	 push	 OFFSET ??_C@_0BN@GNBNILEJ@?$FLGameShop?$FN?5?$CFs?5file?5not?5found?$AA@
  0002a	e8 00 00 00 00	 call	 ?MsgBox@@YAXPADZZ	; MsgBox
  0002f	83 c4 08	 add	 esp, 8
  00032	5f		 pop	 edi
  00033	5e		 pop	 esi

; 343  : }

  00034	8b e5		 mov	 esp, ebp
  00036	5d		 pop	 ebp
  00037	c2 04 00	 ret	 4
$LN14@ReadCatego:
  0003a	53		 push	 ebx

; 283  : 		return;
; 284  : 	}
; 285  : 	// ----
; 286  : 	BYTE WCoinCCounter = 0, WCoinPCounter = 0, GPCounter = 0;

  0003b	c6 45 ff 00	 mov	 BYTE PTR _WCoinCCounter$[ebp], 0
  0003f	c6 45 fe 00	 mov	 BYTE PTR _WCoinPCounter$[ebp], 0
  00043	32 db		 xor	 bl, bl

; 287  : 	int Category = -1;
; 288  : 	// ----
; 289  : 	while(true)
; 290  : 	{
; 291  : 		Token = GetToken();

  00045	e8 00 00 00 00	 call	 ?GetToken@@YA?AW4SMDToken@@XZ ; GetToken

; 292  : 		// ----
; 293  : 		if( Token == END )

  0004a	83 f8 02	 cmp	 eax, 2
  0004d	0f 84 79 01 00
	00		 je	 $LN24@ReadCatego
$LL13@ReadCatego:

; 294  : 		{
; 295  : 			break;
; 296  : 		}
; 297  : 		// ----
; 298  : 		Category = TokenNumber;

  00053	d9 05 00 00 00
	00		 fld	 DWORD PTR _TokenNumber
  00059	e8 00 00 00 00	 call	 __ftol2_sse
  0005e	8b f8		 mov	 edi, eax
$LL10@ReadCatego:

; 299  : 		// ----
; 300  : 		while(true)
; 301  : 		{
; 302  : 			if( Category == 0 )	//-> WCoinC

  00060	85 ff		 test	 edi, edi
  00062	75 6e		 jne	 SHORT $LN8@ReadCatego

; 303  : 			{
; 304  : 				Token = GetToken();

  00064	e8 00 00 00 00	 call	 ?GetToken@@YA?AW4SMDToken@@XZ ; GetToken

; 305  : 				// ----
; 306  : 				if( !strcmp("end", TokenString) )

  00069	b9 00 00 00 00	 mov	 ecx, OFFSET _TokenString
  0006e	b8 00 00 00 00	 mov	 eax, OFFSET ??_C@_03JBJLGPFL@end?$AA@
$LL25@ReadCatego:
  00073	8a 10		 mov	 dl, BYTE PTR [eax]
  00075	3a 11		 cmp	 dl, BYTE PTR [ecx]
  00077	75 1a		 jne	 SHORT $LN26@ReadCatego
  00079	84 d2		 test	 dl, dl
  0007b	74 12		 je	 SHORT $LN27@ReadCatego
  0007d	8a 50 01	 mov	 dl, BYTE PTR [eax+1]
  00080	3a 51 01	 cmp	 dl, BYTE PTR [ecx+1]
  00083	75 0e		 jne	 SHORT $LN26@ReadCatego
  00085	83 c0 02	 add	 eax, 2
  00088	83 c1 02	 add	 ecx, 2
  0008b	84 d2		 test	 dl, dl
  0008d	75 e4		 jne	 SHORT $LL25@ReadCatego
$LN27@ReadCatego:
  0008f	33 c0		 xor	 eax, eax
  00091	eb 05		 jmp	 SHORT $LN28@ReadCatego
$LN26@ReadCatego:
  00093	1b c0		 sbb	 eax, eax
  00095	83 d8 ff	 sbb	 eax, -1
$LN28@ReadCatego:
  00098	85 c0		 test	 eax, eax
  0009a	0f 84 1b 01 00
	00		 je	 $LN21@ReadCatego

; 307  : 				{
; 308  : 					break;
; 309  : 				}
; 310  : 				// ----
; 311  : 				this->PointCategory[Category][WCoinCCounter] = (int)TokenNumber;

  000a0	d9 05 00 00 00
	00		 fld	 DWORD PTR _TokenNumber
  000a6	d9 7d fc	 fnstcw	 WORD PTR tv245[ebp]
  000a9	0f b7 45 fc	 movzx	 eax, WORD PTR tv245[ebp]
  000ad	0d 00 0c 00 00	 or	 eax, 3072		; 00000c00H
  000b2	89 45 f8	 mov	 DWORD PTR tv242[ebp], eax
  000b5	8a 45 ff	 mov	 al, BYTE PTR _WCoinCCounter$[ebp]
  000b8	0f b6 d0	 movzx	 edx, al
  000bb	d9 6d f8	 fldcw	 WORD PTR tv242[ebp]

; 312  : 				WCoinCCounter++;

  000be	fe c0		 inc	 al
  000c0	88 45 ff	 mov	 BYTE PTR _WCoinCCounter$[ebp], al
  000c3	db 5d f8	 fistp	 DWORD PTR tv240[ebp]
  000c6	8a 4d f8	 mov	 cl, BYTE PTR tv240[ebp]
  000c9	88 4c 32 44	 mov	 BYTE PTR [edx+esi+68], cl
  000cd	d9 6d fc	 fldcw	 WORD PTR tv245[ebp]
  000d0	eb 8e		 jmp	 SHORT $LL10@ReadCatego
$LN8@ReadCatego:

; 313  : 			}
; 314  : 			else if( Category == 1 )

  000d2	83 ff 01	 cmp	 edi, 1
  000d5	75 71		 jne	 SHORT $LN5@ReadCatego

; 315  : 			{
; 316  : 				Token = GetToken();

  000d7	e8 00 00 00 00	 call	 ?GetToken@@YA?AW4SMDToken@@XZ ; GetToken

; 317  : 				// ----
; 318  : 				if( !strcmp("end", TokenString) )

  000dc	b9 00 00 00 00	 mov	 ecx, OFFSET _TokenString
  000e1	b8 00 00 00 00	 mov	 eax, OFFSET ??_C@_03JBJLGPFL@end?$AA@
$LL29@ReadCatego:
  000e6	8a 10		 mov	 dl, BYTE PTR [eax]
  000e8	3a 11		 cmp	 dl, BYTE PTR [ecx]
  000ea	75 1a		 jne	 SHORT $LN30@ReadCatego
  000ec	84 d2		 test	 dl, dl
  000ee	74 12		 je	 SHORT $LN31@ReadCatego
  000f0	8a 50 01	 mov	 dl, BYTE PTR [eax+1]
  000f3	3a 51 01	 cmp	 dl, BYTE PTR [ecx+1]
  000f6	75 0e		 jne	 SHORT $LN30@ReadCatego
  000f8	83 c0 02	 add	 eax, 2
  000fb	83 c1 02	 add	 ecx, 2
  000fe	84 d2		 test	 dl, dl
  00100	75 e4		 jne	 SHORT $LL29@ReadCatego
$LN31@ReadCatego:
  00102	33 c0		 xor	 eax, eax
  00104	eb 05		 jmp	 SHORT $LN32@ReadCatego
$LN30@ReadCatego:
  00106	1b c0		 sbb	 eax, eax
  00108	83 d8 ff	 sbb	 eax, -1
$LN32@ReadCatego:
  0010b	85 c0		 test	 eax, eax
  0010d	0f 84 a8 00 00
	00		 je	 $LN21@ReadCatego

; 319  : 				{
; 320  : 					break;
; 321  : 				}
; 322  : 				// ----
; 323  : 				this->PointCategory[Category][WCoinPCounter] = (int)TokenNumber;

  00113	d9 05 00 00 00
	00		 fld	 DWORD PTR _TokenNumber
  00119	d9 7d fc	 fnstcw	 WORD PTR tv219[ebp]
  0011c	0f b7 45 fc	 movzx	 eax, WORD PTR tv219[ebp]
  00120	0d 00 0c 00 00	 or	 eax, 3072		; 00000c00H
  00125	89 45 f8	 mov	 DWORD PTR tv216[ebp], eax
  00128	8a 45 fe	 mov	 al, BYTE PTR _WCoinPCounter$[ebp]
  0012b	0f b6 d0	 movzx	 edx, al
  0012e	d9 6d f8	 fldcw	 WORD PTR tv216[ebp]

; 324  : 				WCoinPCounter++;

  00131	fe c0		 inc	 al
  00133	88 45 fe	 mov	 BYTE PTR _WCoinPCounter$[ebp], al
  00136	db 5d f8	 fistp	 DWORD PTR tv214[ebp]
  00139	8a 4d f8	 mov	 cl, BYTE PTR tv214[ebp]
  0013c	88 4c 32 76	 mov	 BYTE PTR [edx+esi+118], cl
  00140	d9 6d fc	 fldcw	 WORD PTR tv219[ebp]
  00143	e9 18 ff ff ff	 jmp	 $LL10@ReadCatego
$LN5@ReadCatego:

; 325  : 			}
; 326  : 			else if( Category == 2 )

  00148	83 ff 02	 cmp	 edi, 2
  0014b	0f 85 0f ff ff
	ff		 jne	 $LL10@ReadCatego

; 327  : 			{
; 328  : 				Token = GetToken();

  00151	e8 00 00 00 00	 call	 ?GetToken@@YA?AW4SMDToken@@XZ ; GetToken

; 329  : 				// ----
; 330  : 				if( !strcmp("end", TokenString) )

  00156	b9 00 00 00 00	 mov	 ecx, OFFSET _TokenString
  0015b	b8 00 00 00 00	 mov	 eax, OFFSET ??_C@_03JBJLGPFL@end?$AA@
$LL33@ReadCatego:
  00160	8a 10		 mov	 dl, BYTE PTR [eax]
  00162	3a 11		 cmp	 dl, BYTE PTR [ecx]
  00164	75 1a		 jne	 SHORT $LN34@ReadCatego
  00166	84 d2		 test	 dl, dl
  00168	74 12		 je	 SHORT $LN35@ReadCatego
  0016a	8a 50 01	 mov	 dl, BYTE PTR [eax+1]
  0016d	3a 51 01	 cmp	 dl, BYTE PTR [ecx+1]
  00170	75 0e		 jne	 SHORT $LN34@ReadCatego
  00172	83 c0 02	 add	 eax, 2
  00175	83 c1 02	 add	 ecx, 2
  00178	84 d2		 test	 dl, dl
  0017a	75 e4		 jne	 SHORT $LL33@ReadCatego
$LN35@ReadCatego:
  0017c	33 c0		 xor	 eax, eax
  0017e	eb 05		 jmp	 SHORT $LN36@ReadCatego
$LN34@ReadCatego:
  00180	1b c0		 sbb	 eax, eax
  00182	83 d8 ff	 sbb	 eax, -1
$LN36@ReadCatego:
  00185	85 c0		 test	 eax, eax
  00187	74 32		 je	 SHORT $LN21@ReadCatego

; 331  : 				{
; 332  : 					break;
; 333  : 				}
; 334  : 				// ----
; 335  : 				this->PointCategory[Category][GPCounter] = (int)TokenNumber;

  00189	d9 05 00 00 00
	00		 fld	 DWORD PTR _TokenNumber
  0018f	0f b6 cb	 movzx	 ecx, bl
  00192	d9 7d fc	 fnstcw	 WORD PTR tv192[ebp]
  00195	0f b7 45 fc	 movzx	 eax, WORD PTR tv192[ebp]
  00199	0d 00 0c 00 00	 or	 eax, 3072		; 00000c00H
  0019e	89 45 f8	 mov	 DWORD PTR tv165[ebp], eax

; 336  : 				GPCounter++;

  001a1	fe c3		 inc	 bl
  001a3	d9 6d f8	 fldcw	 WORD PTR tv165[ebp]
  001a6	db 5d f8	 fistp	 DWORD PTR tv161[ebp]
  001a9	8a 45 f8	 mov	 al, BYTE PTR tv161[ebp]
  001ac	88 84 31 a8 00
	00 00		 mov	 BYTE PTR [ecx+esi+168], al
  001b3	d9 6d fc	 fldcw	 WORD PTR tv192[ebp]

; 337  : 			}
; 338  : 		}

  001b6	e9 a5 fe ff ff	 jmp	 $LL10@ReadCatego
$LN21@ReadCatego:

; 287  : 	int Category = -1;
; 288  : 	// ----
; 289  : 	while(true)
; 290  : 	{
; 291  : 		Token = GetToken();

  001bb	e8 00 00 00 00	 call	 ?GetToken@@YA?AW4SMDToken@@XZ ; GetToken

; 292  : 		// ----
; 293  : 		if( Token == END )

  001c0	83 f8 02	 cmp	 eax, 2
  001c3	0f 85 8a fe ff
	ff		 jne	 $LL13@ReadCatego
  001c9	8b 7d 08	 mov	 edi, DWORD PTR _File$[ebp]
$LN24@ReadCatego:

; 339  : 	}
; 340  : 	// ----
; 341  : 	fclose(SMDFile);

  001cc	8b 15 00 00 00
	00		 mov	 edx, DWORD PTR _SMDFile
  001d2	52		 push	 edx
  001d3	e8 00 00 00 00	 call	 _fclose

; 342  : 	LogAddTD("[GameShop] %s file is loaded", File);

  001d8	57		 push	 edi
  001d9	68 00 00 00 00	 push	 OFFSET ??_C@_0BN@OLDNPDNG@?$FLGameShop?$FN?5?$CFs?5file?5is?5loaded?$AA@
  001de	ff 15 00 00 00
	00		 call	 DWORD PTR ?LogAddTD@@3P6AXPADZZA ; LogAddTD
  001e4	83 c4 0c	 add	 esp, 12			; 0000000cH
  001e7	5b		 pop	 ebx
  001e8	5f		 pop	 edi
  001e9	5e		 pop	 esi

; 343  : }

  001ea	8b e5		 mov	 esp, ebp
  001ec	5d		 pop	 ebp
  001ed	c2 04 00	 ret	 4
?ReadCategoryList@GameShop@@QAEXPAD@Z ENDP		; GameShop::ReadCategoryList
_TEXT	ENDS
PUBLIC	__$ArrayPad$
PUBLIC	?SendVersion@GameShop@@QAEXH@Z			; GameShop::SendVersion
EXTRN	?DataSend@@YAHHPAEK@Z:PROC			; DataSend
EXTRN	?PHeadSubSetB@@YAXPAEEEH@Z:PROC			; PHeadSubSetB
; Function compile flags: /Ogtp
;	COMDAT ?SendVersion@GameShop@@QAEXH@Z
_TEXT	SEGMENT
_pBanner$ = -28						; size = 10
_pScript$ = -16						; size = 10
__$ArrayPad$ = -4					; size = 4
_aIndex$ = 8						; size = 4
?SendVersion@GameShop@@QAEXH@Z PROC			; GameShop::SendVersion, COMDAT
; _this$ = ecx

; 392  : {

  00000	55		 push	 ebp
  00001	8b ec		 mov	 ebp, esp
  00003	83 ec 1c	 sub	 esp, 28			; 0000001cH
  00006	a1 00 00 00 00	 mov	 eax, DWORD PTR ___security_cookie
  0000b	33 c5		 xor	 eax, ebp
  0000d	89 45 fc	 mov	 DWORD PTR __$ArrayPad$[ebp], eax
  00010	56		 push	 esi

; 393  : 	GAMESHOP_INFO_VERSION pScript;
; 394  : 	GAMESHOP_INFO_VERSION pBanner;
; 395  : 	// ----
; 396  : 	PHeadSubSetB((LPBYTE)&pScript, 0xD2, cScriptVer, sizeof(pScript));

  00011	6a 0a		 push	 10			; 0000000aH
  00013	6a 0c		 push	 12			; 0000000cH
  00015	8d 45 f0	 lea	 eax, DWORD PTR _pScript$[ebp]
  00018	68 d2 00 00 00	 push	 210			; 000000d2H
  0001d	50		 push	 eax
  0001e	8b f1		 mov	 esi, ecx
  00020	e8 00 00 00 00	 call	 ?PHeadSubSetB@@YAXPAEEEH@Z ; PHeadSubSetB

; 397  : 	PHeadSubSetB((LPBYTE)&pBanner, 0xD2, cBannerVer, sizeof(pBanner));

  00025	6a 0a		 push	 10			; 0000000aH
  00027	6a 15		 push	 21			; 00000015H
  00029	8d 4d e4	 lea	 ecx, DWORD PTR _pBanner$[ebp]
  0002c	68 d2 00 00 00	 push	 210			; 000000d2H
  00031	51		 push	 ecx
  00032	e8 00 00 00 00	 call	 ?PHeadSubSetB@@YAXPAEEEH@Z ; PHeadSubSetB

; 398  : 	// ----
; 399  : 	pScript.Major		= this->OptionData.ScriptMajor;

  00037	0f b7 56 06	 movzx	 edx, WORD PTR [esi+6]

; 400  : 	pScript.Minor		= this->OptionData.ScriptMinor;

  0003b	0f b7 46 08	 movzx	 eax, WORD PTR [esi+8]

; 401  : 	pScript.Revision	= this->OptionData.ScriptRevision;

  0003f	0f b7 4e 0a	 movzx	 ecx, WORD PTR [esi+10]
  00043	66 89 55 f4	 mov	 WORD PTR _pScript$[ebp+4], dx

; 402  : 	// ----
; 403  : 	pBanner.Major		= this->OptionData.BannerMajor;

  00047	0f b7 56 0c	 movzx	 edx, WORD PTR [esi+12]
  0004b	66 89 55 e8	 mov	 WORD PTR _pBanner$[ebp+4], dx
  0004f	66 89 45 f6	 mov	 WORD PTR _pScript$[ebp+6], ax

; 404  : 	pBanner.Minor		= this->OptionData.BannerMinor;

  00053	0f b7 46 0e	 movzx	 eax, WORD PTR [esi+14]
  00057	66 89 4d f8	 mov	 WORD PTR _pScript$[ebp+8], cx

; 405  : 	pBanner.Revision	= this->OptionData.BannerRevision;

  0005b	0f b7 4e 10	 movzx	 ecx, WORD PTR [esi+16]

; 406  : 	// -----
; 407  : 	DataSend(aIndex, (LPBYTE)&pScript, sizeof(pScript));

  0005f	8b 75 08	 mov	 esi, DWORD PTR _aIndex$[ebp]
  00062	6a 0a		 push	 10			; 0000000aH
  00064	8d 55 f0	 lea	 edx, DWORD PTR _pScript$[ebp]
  00067	52		 push	 edx
  00068	56		 push	 esi
  00069	66 89 45 ea	 mov	 WORD PTR _pBanner$[ebp+6], ax
  0006d	66 89 4d ec	 mov	 WORD PTR _pBanner$[ebp+8], cx
  00071	e8 00 00 00 00	 call	 ?DataSend@@YAHHPAEK@Z	; DataSend

; 408  : 	DataSend(aIndex, (LPBYTE)&pBanner, sizeof(pBanner));

  00076	6a 0a		 push	 10			; 0000000aH
  00078	8d 45 e4	 lea	 eax, DWORD PTR _pBanner$[ebp]
  0007b	50		 push	 eax
  0007c	56		 push	 esi
  0007d	e8 00 00 00 00	 call	 ?DataSend@@YAHHPAEK@Z	; DataSend

; 409  : }

  00082	8b 4d fc	 mov	 ecx, DWORD PTR __$ArrayPad$[ebp]
  00085	83 c4 38	 add	 esp, 56			; 00000038H
  00088	33 cd		 xor	 ecx, ebp
  0008a	5e		 pop	 esi
  0008b	e8 00 00 00 00	 call	 @__security_check_cookie@4
  00090	8b e5		 mov	 esp, ebp
  00092	5d		 pop	 ebp
  00093	c2 04 00	 ret	 4
?SendVersion@GameShop@@QAEXH@Z ENDP			; GameShop::SendVersion
_TEXT	ENDS
PUBLIC	__real@0000000000000000
PUBLIC	?InitUser@GameShop@@QAEXH@Z			; GameShop::InitUser
EXTRN	?gObj@@3PAUOBJECTSTRUCT@@A:DWORD		; gObj
;	COMDAT __real@0000000000000000
CONST	SEGMENT
__real@0000000000000000 DQ 00000000000000000r	; 0
; Function compile flags: /Ogtp
CONST	ENDS
;	COMDAT ?InitUser@GameShop@@QAEXH@Z
_TEXT	SEGMENT
_aIndex$ = 8						; size = 4
?InitUser@GameShop@@QAEXH@Z PROC			; GameShop::InitUser, COMDAT
; _this$ = ecx

; 447  : {

  00000	55		 push	 ebp
  00001	8b ec		 mov	 ebp, esp

; 448  : 	gObj[aIndex].GameShop.WCoinP		= 0;

  00003	8b 45 08	 mov	 eax, DWORD PTR _aIndex$[ebp]
  00006	d9 ee		 fldz
  00008	8b 0d 00 00 00
	00		 mov	 ecx, DWORD PTR ?gObj@@3PAUOBJECTSTRUCT@@A ; gObj
  0000e	69 c0 50 2b 00
	00		 imul	 eax, 11088		; 00002b50H
  00014	56		 push	 esi
  00015	dd 94 08 f8 22
	00 00		 fst	 QWORD PTR [eax+ecx+8952]

; 449  : 	gObj[aIndex].GameShop.WCoinC		= 0;

  0001c	8b 15 00 00 00
	00		 mov	 edx, DWORD PTR ?gObj@@3PAUOBJECTSTRUCT@@A ; gObj
  00022	57		 push	 edi
  00023	dd 94 10 00 23
	00 00		 fst	 QWORD PTR [eax+edx+8960]

; 450  : 	gObj[aIndex].GameShop.GoblinPoint	= 0;

  0002a	8b 0d 00 00 00
	00		 mov	 ecx, DWORD PTR ?gObj@@3PAUOBJECTSTRUCT@@A ; gObj
  00030	ba 1e 00 00 00	 mov	 edx, 30			; 0000001eH
  00035	dd 9c 08 08 23
	00 00		 fstp	 QWORD PTR [eax+ecx+8968]
  0003c	33 c9		 xor	 ecx, ecx
  0003e	8b ff		 npad	 2
$LL3@InitUser:

; 451  : 	// ----
; 452  : 	for( int i = 0; i < MAX_STORAGE_ITEM; i++ )
; 453  : 	{
; 454  : 		gObj[aIndex].GameShop.MainStorage[i].AuthID			= 0;

  00040	8b 35 00 00 00
	00		 mov	 esi, DWORD PTR ?gObj@@3PAUOBJECTSTRUCT@@A ; gObj
  00046	89 8c 30 14 23
	00 00		 mov	 DWORD PTR [eax+esi+8980], ecx

; 455  : 		gObj[aIndex].GameShop.MainStorage[i].AuthIndex		= 0;

  0004d	8b 35 00 00 00
	00		 mov	 esi, DWORD PTR ?gObj@@3PAUOBJECTSTRUCT@@A ; gObj
  00053	89 8c 30 10 23
	00 00		 mov	 DWORD PTR [eax+esi+8976], ecx

; 456  : 		gObj[aIndex].GameShop.MainStorage[i].IBSCategory	= 0;

  0005a	8b 35 00 00 00
	00		 mov	 esi, DWORD PTR ?gObj@@3PAUOBJECTSTRUCT@@A ; gObj
  00060	89 8c 30 1e 23
	00 00		 mov	 DWORD PTR [eax+esi+8990], ecx

; 457  : 		gObj[aIndex].GameShop.MainStorage[i].IBSID			= 0;

  00067	8b 35 00 00 00
	00		 mov	 esi, DWORD PTR ?gObj@@3PAUOBJECTSTRUCT@@A ; gObj
  0006d	89 8c 30 1a 23
	00 00		 mov	 DWORD PTR [eax+esi+8986], ecx

; 458  : 		gObj[aIndex].GameShop.MainStorage[i].IBSIndex		= 0;

  00074	8b 35 00 00 00
	00		 mov	 esi, DWORD PTR ?gObj@@3PAUOBJECTSTRUCT@@A ; gObj
  0007a	89 8c 30 22 23
	00 00		 mov	 DWORD PTR [eax+esi+8994], ecx

; 459  : 		gObj[aIndex].GameShop.MainStorage[i].ItemID			= 0;

  00081	8b 3d 00 00 00
	00		 mov	 edi, DWORD PTR ?gObj@@3PAUOBJECTSTRUCT@@A ; gObj
  00087	33 f6		 xor	 esi, esi
  00089	66 89 b4 38 18
	23 00 00	 mov	 WORD PTR [eax+edi+8984], si

; 460  : 		gObj[aIndex].GameShop.MainStorage[i].PackageID		= 0;

  00091	8b 35 00 00 00
	00		 mov	 esi, DWORD PTR ?gObj@@3PAUOBJECTSTRUCT@@A ; gObj
  00097	89 8c 30 26 23
	00 00		 mov	 DWORD PTR [eax+esi+8998], ecx
  0009e	83 c0 1a	 add	 eax, 26			; 0000001aH
  000a1	4a		 dec	 edx
  000a2	75 9c		 jne	 SHORT $LL3@InitUser
  000a4	5f		 pop	 edi
  000a5	5e		 pop	 esi

; 461  : 	}
; 462  : }

  000a6	5d		 pop	 ebp
  000a7	c2 04 00	 ret	 4
?InitUser@GameShop@@QAEXH@Z ENDP			; GameShop::InitUser
_TEXT	ENDS
PUBLIC	?GetPointType@GameShop@@QAEEH@Z			; GameShop::GetPointType
; Function compile flags: /Ogtp
;	COMDAT ?GetPointType@GameShop@@QAEEH@Z
_TEXT	SEGMENT
_IBSCategory$ = 8					; size = 4
?GetPointType@GameShop@@QAEEH@Z PROC			; GameShop::GetPointType, COMDAT
; _this$ = ecx

; 1084 : {

  00000	55		 push	 ebp
  00001	8b ec		 mov	 ebp, esp

; 1085 : 	//LogAdd("IBSCategory: %d",IBSCategory);
; 1086 : 	for( int i = 0; i < 30; i++ )

  00003	8b 55 08	 mov	 edx, DWORD PTR _IBSCategory$[ebp]
  00006	33 c0		 xor	 eax, eax
  00008	56		 push	 esi
  00009	8d a4 24 00 00
	00 00		 npad	 7
$LL6@GetPointTy:

; 1087 : 	{
; 1088 : 		if( this->PointCategory[0][i] == IBSCategory )

  00010	0f b6 74 01 44	 movzx	 esi, BYTE PTR [ecx+eax+68]
  00015	3b f2		 cmp	 esi, edx
  00017	74 22		 je	 SHORT $LN10@GetPointTy

; 1091 : 		}
; 1092 : 		// ----
; 1093 : 		if( this->PointCategory[1][i] == IBSCategory )

  00019	0f b6 74 08 76	 movzx	 esi, BYTE PTR [eax+ecx+118]
  0001e	3b f2		 cmp	 esi, edx
  00020	74 20		 je	 SHORT $LN11@GetPointTy

; 1096 : 		}
; 1097 : 		// ----
; 1098 : 		if( this->PointCategory[2][i] == IBSCategory )

  00022	0f b6 b4 08 a8
	00 00 00	 movzx	 esi, BYTE PTR [eax+ecx+168]
  0002a	3b f2		 cmp	 esi, edx
  0002c	74 1b		 je	 SHORT $LN12@GetPointTy

; 1085 : 	//LogAdd("IBSCategory: %d",IBSCategory);
; 1086 : 	for( int i = 0; i < 30; i++ )

  0002e	40		 inc	 eax
  0002f	83 f8 1e	 cmp	 eax, 30			; 0000001eH
  00032	7c dc		 jl	 SHORT $LL6@GetPointTy

; 1101 : 		}
; 1102 : 	}
; 1103 : 	// ----
; 1104 : 
; 1105 : 	//switch(IBSCategory)
; 1106 : 	//{
; 1107 : 	//case 10: case 13: case 14:
; 1108 : 	//case 22: case 23: case 24:
; 1109 : 	//case 25: case 26:
; 1110 : 	//	return 0;
; 1111 : 	//	break;
; 1112 : 	//	// --
; 1113 : 	//case 11: case 27: case 28:
; 1114 : 	//case 29: case 30: case 31:
; 1115 : 	//case 32: case 46:
; 1116 : 	//	return 1;
; 1117 : 	//	break;
; 1118 : 	//	// --
; 1119 : 	//case 57: case 56: case 34:
; 1120 : 	//case 45:
; 1121 : 	//	return 2;
; 1122 : 	//	break;
; 1123 : 	//}
; 1124 : 	// ----
; 1125 : 	return -1;

  00034	0c ff		 or	 al, 255			; 000000ffH
  00036	5e		 pop	 esi

; 1126 : }

  00037	5d		 pop	 ebp
  00038	c2 04 00	 ret	 4
$LN10@GetPointTy:

; 1089 : 		{
; 1090 : 			return 0;

  0003b	32 c0		 xor	 al, al
  0003d	5e		 pop	 esi

; 1126 : }

  0003e	5d		 pop	 ebp
  0003f	c2 04 00	 ret	 4
$LN11@GetPointTy:

; 1094 : 		{
; 1095 : 			return 1;

  00042	b0 01		 mov	 al, 1
  00044	5e		 pop	 esi

; 1126 : }

  00045	5d		 pop	 ebp
  00046	c2 04 00	 ret	 4
$LN12@GetPointTy:

; 1099 : 		{
; 1100 : 			return 2;

  00049	b0 02		 mov	 al, 2
  0004b	5e		 pop	 esi

; 1126 : }

  0004c	5d		 pop	 ebp
  0004d	c2 04 00	 ret	 4
?GetPointType@GameShop@@QAEEH@Z ENDP			; GameShop::GetPointType
_TEXT	ENDS
PUBLIC	?GetItemCountInStorage@GameShop@@QAEHHH@Z	; GameShop::GetItemCountInStorage
; Function compile flags: /Ogtp
;	COMDAT ?GetItemCountInStorage@GameShop@@QAEHHH@Z
_TEXT	SEGMENT
_aIndex$ = 8						; size = 4
_ClientStorageType$ = 12				; size = 4
?GetItemCountInStorage@GameShop@@QAEHHH@Z PROC		; GameShop::GetItemCountInStorage, COMDAT
; _this$ = ecx

; 1228 : {

  00000	55		 push	 ebp
  00001	8b ec		 mov	 ebp, esp

; 1230 : 	LPOBJ lpUser	= &gObj[aIndex];

  00003	8b 4d 08	 mov	 ecx, DWORD PTR _aIndex$[ebp]
  00006	69 c9 50 2b 00
	00		 imul	 ecx, 11088		; 00002b50H
  0000c	03 0d 00 00 00
	00		 add	 ecx, DWORD PTR ?gObj@@3PAUOBJECTSTRUCT@@A ; gObj
  00012	33 c0		 xor	 eax, eax
  00014	56		 push	 esi
  00015	8b 75 0c	 mov	 esi, DWORD PTR _ClientStorageType$[ebp]
  00018	81 c1 14 23 00
	00		 add	 ecx, 8980		; 00002314H
  0001e	8d 50 05	 lea	 edx, DWORD PTR [eax+5]
$LL7@GetItemCou:

; 1233 : 	{
; 1234 : 		if( ClientStorageType == 0x53 )

  00021	83 fe 53	 cmp	 esi, 83			; 00000053H
  00024	75 50		 jne	 SHORT $LN17@GetItemCou

; 1235 : 		{
; 1236 : 			if( lpUser->GameShop.MainStorage[i].AuthIndex != 0 && lpUser->GameShop.MainStorage[i].AuthID != 0 )

  00026	83 79 fc 00	 cmp	 DWORD PTR [ecx-4], 0
  0002a	74 06		 je	 SHORT $LN18@GetItemCou
  0002c	83 39 00	 cmp	 DWORD PTR [ecx], 0
  0002f	74 01		 je	 SHORT $LN18@GetItemCou

; 1237 : 			{
; 1238 : 				Count++;

  00031	40		 inc	 eax
$LN18@GetItemCou:

; 1235 : 		{
; 1236 : 			if( lpUser->GameShop.MainStorage[i].AuthIndex != 0 && lpUser->GameShop.MainStorage[i].AuthID != 0 )

  00032	83 79 16 00	 cmp	 DWORD PTR [ecx+22], 0
  00036	74 07		 je	 SHORT $LN19@GetItemCou
  00038	83 79 1a 00	 cmp	 DWORD PTR [ecx+26], 0
  0003c	74 01		 je	 SHORT $LN19@GetItemCou

; 1237 : 			{
; 1238 : 				Count++;

  0003e	40		 inc	 eax
$LN19@GetItemCou:

; 1235 : 		{
; 1236 : 			if( lpUser->GameShop.MainStorage[i].AuthIndex != 0 && lpUser->GameShop.MainStorage[i].AuthID != 0 )

  0003f	83 79 30 00	 cmp	 DWORD PTR [ecx+48], 0
  00043	74 07		 je	 SHORT $LN20@GetItemCou
  00045	83 79 34 00	 cmp	 DWORD PTR [ecx+52], 0
  00049	74 01		 je	 SHORT $LN20@GetItemCou

; 1237 : 			{
; 1238 : 				Count++;

  0004b	40		 inc	 eax
$LN20@GetItemCou:

; 1235 : 		{
; 1236 : 			if( lpUser->GameShop.MainStorage[i].AuthIndex != 0 && lpUser->GameShop.MainStorage[i].AuthID != 0 )

  0004c	83 79 4a 00	 cmp	 DWORD PTR [ecx+74], 0
  00050	74 07		 je	 SHORT $LN21@GetItemCou
  00052	83 79 4e 00	 cmp	 DWORD PTR [ecx+78], 0
  00056	74 01		 je	 SHORT $LN21@GetItemCou

; 1237 : 			{
; 1238 : 				Count++;

  00058	40		 inc	 eax
$LN21@GetItemCou:

; 1235 : 		{
; 1236 : 			if( lpUser->GameShop.MainStorage[i].AuthIndex != 0 && lpUser->GameShop.MainStorage[i].AuthID != 0 )

  00059	83 79 64 00	 cmp	 DWORD PTR [ecx+100], 0
  0005d	74 07		 je	 SHORT $LN22@GetItemCou
  0005f	83 79 68 00	 cmp	 DWORD PTR [ecx+104], 0
  00063	74 01		 je	 SHORT $LN22@GetItemCou

; 1237 : 			{
; 1238 : 				Count++;

  00065	40		 inc	 eax
$LN22@GetItemCou:

; 1235 : 		{
; 1236 : 			if( lpUser->GameShop.MainStorage[i].AuthIndex != 0 && lpUser->GameShop.MainStorage[i].AuthID != 0 )

  00066	83 79 7e 00	 cmp	 DWORD PTR [ecx+126], 0
  0006a	74 0a		 je	 SHORT $LN17@GetItemCou
  0006c	83 b9 82 00 00
	00 00		 cmp	 DWORD PTR [ecx+130], 0
  00073	74 01		 je	 SHORT $LN17@GetItemCou

; 1237 : 			{
; 1238 : 				Count++;

  00075	40		 inc	 eax
$LN17@GetItemCou:

; 1229 : 	int Count		= 0;

  00076	81 c1 9c 00 00
	00		 add	 ecx, 156		; 0000009cH

; 1231 : 	// ----
; 1232 : 	for( int i = 0; i < MAX_STORAGE_ITEM; i++ )

  0007c	4a		 dec	 edx
  0007d	75 a2		 jne	 SHORT $LL7@GetItemCou
  0007f	5e		 pop	 esi

; 1239 : 			}
; 1240 : 		}
; 1241 : 		else if( ClientStorageType == 0x47 )
; 1242 : 		{
; 1243 : 			//if( lpUser->GameShop.GiftStorage[i].AuthIndex != 0 && lpUser->GameShop.GiftStorage[i].AuthID != 0 )
; 1244 : 			//{
; 1245 : 			//	Count++;
; 1246 : 			//}
; 1247 : 		}
; 1248 : 	}
; 1249 : 	// ----
; 1250 : 	return Count;
; 1251 : }

  00080	5d		 pop	 ebp
  00081	c2 08 00	 ret	 8
?GetItemCountInStorage@GameShop@@QAEHHH@Z ENDP		; GameShop::GetItemCountInStorage
_TEXT	ENDS
PUBLIC	?IsInventoryBuff@GameShop@@QAE_NF@Z		; GameShop::IsInventoryBuff
; Function compile flags: /Ogtp
;	COMDAT ?IsInventoryBuff@GameShop@@QAE_NF@Z
_TEXT	SEGMENT
_ItemID$ = 8						; size = 2
?IsInventoryBuff@GameShop@@QAE_NF@Z PROC		; GameShop::IsInventoryBuff, COMDAT
; _this$ = ecx

; 1283 : {

  00000	55		 push	 ebp
  00001	8b ec		 mov	 ebp, esp

; 1284 : 	if( ItemID >= ITEMGET(13, 128) && ItemID <= ITEMGET(13, 134) )

  00003	8b 45 08	 mov	 eax, DWORD PTR _ItemID$[ebp]
  00006	05 80 e5 ff ff	 add	 eax, -6784		; ffffe580H
  0000b	66 83 f8 06	 cmp	 ax, 6
  0000f	0f 96 c0	 setbe	 al

; 1285 : 	{
; 1286 : 		return true;
; 1287 : 	}
; 1288 : 	// ----
; 1289 : 	return false;
; 1290 : }

  00012	5d		 pop	 ebp
  00013	c2 04 00	 ret	 4
?IsInventoryBuff@GameShop@@QAE_NF@Z ENDP		; GameShop::IsInventoryBuff
_TEXT	ENDS
PUBLIC	??_C@_0CH@KOCOODEN@You?5need?53rd?5class?5to?5buy?5master@ ; `string'
PUBLIC	??_C@_0CA@MNBFMHMO@Your?5GameShop?5inventory?5is?5full?$AA@ ; `string'
PUBLIC	?CanBeBuy@GameShop@@QAE_NHF@Z			; GameShop::CanBeBuy
EXTRN	?GCServerMsgStringSend@@YAXPADHE@Z:PROC		; GCServerMsgStringSend
;	COMDAT ??_C@_0CH@KOCOODEN@You?5need?53rd?5class?5to?5buy?5master@
CONST	SEGMENT
??_C@_0CH@KOCOODEN@You?5need?53rd?5class?5to?5buy?5master@ DB 'You need 3'
	DB	'rd class to buy master items', 00H		; `string'
CONST	ENDS
;	COMDAT ??_C@_0CA@MNBFMHMO@Your?5GameShop?5inventory?5is?5full?$AA@
CONST	SEGMENT
??_C@_0CA@MNBFMHMO@Your?5GameShop?5inventory?5is?5full?$AA@ DB 'Your Game'
	DB	'Shop inventory is full', 00H		; `string'
; Function compile flags: /Ogtp
CONST	ENDS
;	COMDAT ?CanBeBuy@GameShop@@QAE_NHF@Z
_TEXT	SEGMENT
_aIndex$ = 8						; size = 4
_ItemID$ = 12						; size = 2
?CanBeBuy@GameShop@@QAE_NHF@Z PROC			; GameShop::CanBeBuy, COMDAT
; _this$ = ecx

; 1294 : {

  00000	55		 push	 ebp
  00001	8b ec		 mov	 ebp, esp
  00003	56		 push	 esi
  00004	57		 push	 edi

; 1295 : 	LPOBJ lpUser = &gObj[aIndex];

  00005	8b 7d 08	 mov	 edi, DWORD PTR _aIndex$[ebp]
  00008	8b f7		 mov	 esi, edi
  0000a	69 f6 50 2b 00
	00		 imul	 esi, 11088		; 00002b50H
  00010	03 35 00 00 00
	00		 add	 esi, DWORD PTR ?gObj@@3PAUOBJECTSTRUCT@@A ; gObj

; 1296 : 	// ----
; 1297 : 	if( GetItemCountInStorage(aIndex, 0x53) >= MAX_STORAGE_ITEM - 1 )

  00016	6a 53		 push	 83			; 00000053H
  00018	57		 push	 edi
  00019	e8 00 00 00 00	 call	 ?GetItemCountInStorage@GameShop@@QAEHHH@Z ; GameShop::GetItemCountInStorage
  0001e	83 f8 1d	 cmp	 eax, 29			; 0000001dH
  00021	7c 18		 jl	 SHORT $LN4@CanBeBuy

; 1298 : 	{
; 1299 : 		GCServerMsgStringSend("Your GameShop inventory is full", aIndex, 1);

  00023	6a 01		 push	 1
  00025	57		 push	 edi
  00026	68 00 00 00 00	 push	 OFFSET ??_C@_0CA@MNBFMHMO@Your?5GameShop?5inventory?5is?5full?$AA@
  0002b	e8 00 00 00 00	 call	 ?GCServerMsgStringSend@@YAXPADHE@Z ; GCServerMsgStringSend
  00030	83 c4 0c	 add	 esp, 12			; 0000000cH
  00033	5f		 pop	 edi

; 1300 : 		return false;

  00034	32 c0		 xor	 al, al
  00036	5e		 pop	 esi

; 1337 : }

  00037	5d		 pop	 ebp
  00038	c2 08 00	 ret	 8
$LN4@CanBeBuy:

; 1301 : 	}
; 1302 : 	// ----
; 1303 : 	if( ItemID == ITEMGET(13, 93) || ItemID == ITEMGET(13, 94) || ItemID == ITEMGET(14, 114) )

  0003b	66 8b 45 0c	 mov	 ax, WORD PTR _ItemID$[ebp]
  0003f	b9 5d 1a 00 00	 mov	 ecx, 6749		; 00001a5dH
  00044	66 3b c1	 cmp	 ax, cx
  00047	74 14		 je	 SHORT $LN2@CanBeBuy
  00049	ba 5e 1a 00 00	 mov	 edx, 6750		; 00001a5eH
  0004e	66 3b c2	 cmp	 ax, dx
  00051	74 0a		 je	 SHORT $LN2@CanBeBuy
  00053	b9 72 1c 00 00	 mov	 ecx, 7282		; 00001c72H
  00058	66 3b c1	 cmp	 ax, cx
  0005b	75 21		 jne	 SHORT $LN1@CanBeBuy
$LN2@CanBeBuy:

; 1304 : 	{
; 1305 : 		if( !lpUser->ChangeUP3rd  )//ChangeUP3rd

  0005d	80 be bc 00 00
	00 00		 cmp	 BYTE PTR [esi+188], 0
  00064	75 18		 jne	 SHORT $LN1@CanBeBuy

; 1306 : 		{
; 1307 : 			GCServerMsgStringSend("You need 3rd class to buy master items", aIndex, 1);

  00066	6a 01		 push	 1
  00068	57		 push	 edi
  00069	68 00 00 00 00	 push	 OFFSET ??_C@_0CH@KOCOODEN@You?5need?53rd?5class?5to?5buy?5master@
  0006e	e8 00 00 00 00	 call	 ?GCServerMsgStringSend@@YAXPADHE@Z ; GCServerMsgStringSend
  00073	83 c4 0c	 add	 esp, 12			; 0000000cH
  00076	5f		 pop	 edi

; 1308 : 			return false;

  00077	32 c0		 xor	 al, al
  00079	5e		 pop	 esi

; 1337 : }

  0007a	5d		 pop	 ebp
  0007b	c2 08 00	 ret	 8
$LN1@CanBeBuy:
  0007e	5f		 pop	 edi

; 1309 : 		}
; 1310 : 	}
; 1311 : 	//else if( ItemID == ITEMGET(13, 138) || ItemID == ITEMGET(13, 143) )
; 1312 : 	//{
; 1313 : 	//	if( lpUser->Class == CLASS_MONK )
; 1314 : 	//	{
; 1315 : 	//		GCServerMsgStringSend("This ticket not have items for you", aIndex, 1);
; 1316 : 	//		return false;
; 1317 : 	//	}
; 1318 : 	//}
; 1319 : 	//else if( ItemID == ITEMGET(14, 162) )
; 1320 : 	//{
; 1321 : 	//	if( lpUser->ExpandedInventory >= 2 )
; 1322 : 	//	{
; 1323 : 	//		GCServerMsgStringSend("Your inventory expanded to maximum", aIndex, 1);
; 1324 : 	//		return false;
; 1325 : 	//	}
; 1326 : 	//}
; 1327 : 	//else if( ItemID == ITEMGET(14, 163) )
; 1328 : 	//{
; 1329 : 	//	if( lpUser->ZtpandedWarehouse >= 1 )
; 1330 : 	//	{
; 1331 : 	//		GCServerMsgStringSend("Your warehouse expanded to maximum", aIndex, 1);
; 1332 : 	//		return false;
; 1333 : 	//	}
; 1334 : 	//}
; 1335 : 	// ----
; 1336 : 	return true;

  0007f	b0 01		 mov	 al, 1
  00081	5e		 pop	 esi

; 1337 : }

  00082	5d		 pop	 ebp
  00083	c2 08 00	 ret	 8
?CanBeBuy@GameShop@@QAE_NHF@Z ENDP			; GameShop::CanBeBuy
_TEXT	ENDS
PUBLIC	_aIndex$GSCopy$
PUBLIC	__$ArrayPad$
PUBLIC	?GDSaveStorageItem@GameShop@@QAEXHUGAMESHOP_USER_STORAGE@@@Z ; GameShop::GDSaveStorageItem
EXTRN	?Send@DBSockMng@@QAEHPADH@Z:PROC		; DBSockMng::Send
EXTRN	?cDBSMng@@3VDBSockMng@@A:BYTE			; cDBSMng
EXTRN	?PHeadSubSetW@@YAXPAEEEH@Z:PROC			; PHeadSubSetW
EXTRN	?gObjIsConnected@@YAHH@Z:PROC			; gObjIsConnected
; Function compile flags: /Ogtp
;	COMDAT ?GDSaveStorageItem@GameShop@@QAEXHUGAMESHOP_USER_STORAGE@@@Z
_TEXT	SEGMENT
_aIndex$GSCopy$ = -52					; size = 4
_pRequest$ = -48					; size = 44
__$ArrayPad$ = -4					; size = 4
_aIndex$ = 8						; size = 4
_Item$ = 12						; size = 26
?GDSaveStorageItem@GameShop@@QAEXHUGAMESHOP_USER_STORAGE@@@Z PROC ; GameShop::GDSaveStorageItem, COMDAT
; _this$ = ecx

; 1446 : {

  00000	55		 push	 ebp
  00001	8b ec		 mov	 ebp, esp
  00003	83 ec 34	 sub	 esp, 52			; 00000034H
  00006	a1 00 00 00 00	 mov	 eax, DWORD PTR ___security_cookie
  0000b	33 c5		 xor	 eax, ebp
  0000d	89 45 fc	 mov	 DWORD PTR __$ArrayPad$[ebp], eax
  00010	53		 push	 ebx
  00011	8b 5d 08	 mov	 ebx, DWORD PTR _aIndex$[ebp]

; 1447 : 	if( !gObjIsConnected(aIndex) )

  00014	53		 push	 ebx

; 1448 : 	{
; 1449 : 		return;
; 1450 : 	}
; 1451 : 	// ----
; 1452 : 	LPOBJ lpUser = &gObj[aIndex];

  00015	89 5d cc	 mov	 DWORD PTR _aIndex$GSCopy$[ebp], ebx
  00018	e8 00 00 00 00	 call	 ?gObjIsConnected@@YAHH@Z ; gObjIsConnected
  0001d	83 c4 04	 add	 esp, 4
  00020	85 c0		 test	 eax, eax
  00022	74 60		 je	 SHORT $LN2@GDSaveStor
  00024	56		 push	 esi
  00025	69 db 50 2b 00
	00		 imul	 ebx, 11088		; 00002b50H
  0002b	03 1d 00 00 00
	00		 add	 ebx, DWORD PTR ?gObj@@3PAUOBJECTSTRUCT@@A ; gObj
  00031	57		 push	 edi

; 1453 : 	// ----
; 1454 : 	GAMESHOP_GD_SAVE_STORAGEITEM pRequest;
; 1455 : 	PHeadSubSetW((LPBYTE)&pRequest, 0xD3, 1, sizeof(GAMESHOP_GD_SAVE_STORAGEITEM));

  00032	6a 2c		 push	 44			; 0000002cH
  00034	6a 01		 push	 1
  00036	8d 45 d0	 lea	 eax, DWORD PTR _pRequest$[ebp]
  00039	68 d3 00 00 00	 push	 211			; 000000d3H
  0003e	50		 push	 eax
  0003f	e8 00 00 00 00	 call	 ?PHeadSubSetW@@YAXPAEEEH@Z ; PHeadSubSetW

; 1456 : 	memcpy(&pRequest.Item, &Item, sizeof(pRequest.Item));

  00044	b9 06 00 00 00	 mov	 ecx, 6
  00049	8d 75 0c	 lea	 esi, DWORD PTR _Item$[ebp]
  0004c	8d 7d e2	 lea	 edi, DWORD PTR _pRequest$[ebp+18]
  0004f	f3 a5		 rep movsd
  00051	66 a5		 movsw

; 1457 : 	memcpy(pRequest.AccountID, lpUser->AccountID, MAX_IDSTRING);

  00053	8b 4b 6c	 mov	 ecx, DWORD PTR [ebx+108]
  00056	89 4d d7	 mov	 DWORD PTR _pRequest$[ebp+7], ecx
  00059	8b 53 70	 mov	 edx, DWORD PTR [ebx+112]

; 1458 : 	//pRequest.AccountID[10] = 0;
; 1459 : 	pRequest.UserIndex = aIndex;

  0005c	66 8b 4d cc	 mov	 cx, WORD PTR _aIndex$GSCopy$[ebp]
  00060	83 c4 10	 add	 esp, 16			; 00000010H
  00063	89 55 db	 mov	 DWORD PTR _pRequest$[ebp+11], edx
  00066	66 8b 43 74	 mov	 ax, WORD PTR [ebx+116]

; 1460 : 	cDBSMng.Send((char*)&pRequest, sizeof(GAMESHOP_GD_SAVE_STORAGEITEM));

  0006a	6a 2c		 push	 44			; 0000002cH
  0006c	8d 55 d0	 lea	 edx, DWORD PTR _pRequest$[ebp]
  0006f	66 89 4d d5	 mov	 WORD PTR _pRequest$[ebp+5], cx
  00073	52		 push	 edx
  00074	b9 00 00 00 00	 mov	 ecx, OFFSET ?cDBSMng@@3VDBSockMng@@A ; cDBSMng
  00079	66 89 45 df	 mov	 WORD PTR _pRequest$[ebp+15], ax
  0007d	e8 00 00 00 00	 call	 ?Send@DBSockMng@@QAEHPADH@Z ; DBSockMng::Send
  00082	5f		 pop	 edi
  00083	5e		 pop	 esi
$LN2@GDSaveStor:

; 1461 : }

  00084	8b 4d fc	 mov	 ecx, DWORD PTR __$ArrayPad$[ebp]
  00087	33 cd		 xor	 ecx, ebp
  00089	5b		 pop	 ebx
  0008a	e8 00 00 00 00	 call	 @__security_check_cookie@4
  0008f	8b e5		 mov	 esp, ebp
  00091	5d		 pop	 ebp
  00092	c2 20 00	 ret	 32			; 00000020H
?GDSaveStorageItem@GameShop@@QAEXHUGAMESHOP_USER_STORAGE@@@Z ENDP ; GameShop::GDSaveStorageItem
_TEXT	ENDS
PUBLIC	_aIndex$GSCopy$
PUBLIC	__$ArrayPad$
PUBLIC	?GDDeleteStorageItem@GameShop@@QAEXHUGAMESHOP_USER_STORAGE@@@Z ; GameShop::GDDeleteStorageItem
; Function compile flags: /Ogtp
;	COMDAT ?GDDeleteStorageItem@GameShop@@QAEXHUGAMESHOP_USER_STORAGE@@@Z
_TEXT	SEGMENT
_aIndex$GSCopy$ = -52					; size = 4
_pRequest$ = -48					; size = 44
__$ArrayPad$ = -4					; size = 4
_aIndex$ = 8						; size = 4
_Item$ = 12						; size = 26
?GDDeleteStorageItem@GameShop@@QAEXHUGAMESHOP_USER_STORAGE@@@Z PROC ; GameShop::GDDeleteStorageItem, COMDAT
; _this$ = ecx

; 1465 : {

  00000	55		 push	 ebp
  00001	8b ec		 mov	 ebp, esp
  00003	83 ec 34	 sub	 esp, 52			; 00000034H
  00006	a1 00 00 00 00	 mov	 eax, DWORD PTR ___security_cookie
  0000b	33 c5		 xor	 eax, ebp
  0000d	89 45 fc	 mov	 DWORD PTR __$ArrayPad$[ebp], eax
  00010	53		 push	 ebx
  00011	8b 5d 08	 mov	 ebx, DWORD PTR _aIndex$[ebp]

; 1466 : 	if( !gObjIsConnected(aIndex) )

  00014	53		 push	 ebx

; 1467 : 	{
; 1468 : 		return;
; 1469 : 	}
; 1470 : 	// ----
; 1471 : 	LPOBJ lpUser = &gObj[aIndex];

  00015	89 5d cc	 mov	 DWORD PTR _aIndex$GSCopy$[ebp], ebx
  00018	e8 00 00 00 00	 call	 ?gObjIsConnected@@YAHH@Z ; gObjIsConnected
  0001d	83 c4 04	 add	 esp, 4
  00020	85 c0		 test	 eax, eax
  00022	74 60		 je	 SHORT $LN2@GDDeleteSt
  00024	56		 push	 esi
  00025	69 db 50 2b 00
	00		 imul	 ebx, 11088		; 00002b50H
  0002b	03 1d 00 00 00
	00		 add	 ebx, DWORD PTR ?gObj@@3PAUOBJECTSTRUCT@@A ; gObj
  00031	57		 push	 edi

; 1472 : 	// ----
; 1473 : 	GAMESHOP_GD_DEL_STORAGEITEM pRequest;
; 1474 : 	PHeadSubSetW((LPBYTE)&pRequest, 0xD3, 2, sizeof(GAMESHOP_GD_SAVE_STORAGEITEM));

  00032	6a 2c		 push	 44			; 0000002cH
  00034	6a 02		 push	 2
  00036	8d 45 d0	 lea	 eax, DWORD PTR _pRequest$[ebp]
  00039	68 d3 00 00 00	 push	 211			; 000000d3H
  0003e	50		 push	 eax
  0003f	e8 00 00 00 00	 call	 ?PHeadSubSetW@@YAXPAEEEH@Z ; PHeadSubSetW

; 1475 : 	memcpy(&pRequest.Item, &Item, sizeof(pRequest.Item));

  00044	b9 06 00 00 00	 mov	 ecx, 6
  00049	8d 75 0c	 lea	 esi, DWORD PTR _Item$[ebp]
  0004c	8d 7d e2	 lea	 edi, DWORD PTR _pRequest$[ebp+18]
  0004f	f3 a5		 rep movsd
  00051	66 a5		 movsw

; 1476 : 	memcpy(pRequest.AccountID, lpUser->AccountID, MAX_IDSTRING);

  00053	8b 4b 6c	 mov	 ecx, DWORD PTR [ebx+108]
  00056	89 4d d7	 mov	 DWORD PTR _pRequest$[ebp+7], ecx
  00059	8b 53 70	 mov	 edx, DWORD PTR [ebx+112]

; 1477 : 	//pRequest.AccountID[10] = 0;
; 1478 : 	pRequest.UserIndex = aIndex;

  0005c	66 8b 4d cc	 mov	 cx, WORD PTR _aIndex$GSCopy$[ebp]
  00060	83 c4 10	 add	 esp, 16			; 00000010H
  00063	89 55 db	 mov	 DWORD PTR _pRequest$[ebp+11], edx
  00066	66 8b 43 74	 mov	 ax, WORD PTR [ebx+116]

; 1479 : 	cDBSMng.Send((char*)&pRequest, sizeof(GAMESHOP_GD_SAVE_STORAGEITEM));

  0006a	6a 2c		 push	 44			; 0000002cH
  0006c	8d 55 d0	 lea	 edx, DWORD PTR _pRequest$[ebp]
  0006f	66 89 4d d5	 mov	 WORD PTR _pRequest$[ebp+5], cx
  00073	52		 push	 edx
  00074	b9 00 00 00 00	 mov	 ecx, OFFSET ?cDBSMng@@3VDBSockMng@@A ; cDBSMng
  00079	66 89 45 df	 mov	 WORD PTR _pRequest$[ebp+15], ax
  0007d	e8 00 00 00 00	 call	 ?Send@DBSockMng@@QAEHPADH@Z ; DBSockMng::Send
  00082	5f		 pop	 edi
  00083	5e		 pop	 esi
$LN2@GDDeleteSt:

; 1480 : }

  00084	8b 4d fc	 mov	 ecx, DWORD PTR __$ArrayPad$[ebp]
  00087	33 cd		 xor	 ecx, ebp
  00089	5b		 pop	 ebx
  0008a	e8 00 00 00 00	 call	 @__security_check_cookie@4
  0008f	8b e5		 mov	 esp, ebp
  00091	5d		 pop	 ebp
  00092	c2 20 00	 ret	 32			; 00000020H
?GDDeleteStorageItem@GameShop@@QAEXHUGAMESHOP_USER_STORAGE@@@Z ENDP ; GameShop::GDDeleteStorageItem
_TEXT	ENDS
PUBLIC	__$ArrayPad$
PUBLIC	?GDReqStorage@GameShop@@QAEXH@Z			; GameShop::GDReqStorage
; Function compile flags: /Ogtp
;	COMDAT ?GDReqStorage@GameShop@@QAEXH@Z
_TEXT	SEGMENT
_pRequest$ = -808					; size = 802
__$ArrayPad$ = -4					; size = 4
_aIndex$ = 8						; size = 4
?GDReqStorage@GameShop@@QAEXH@Z PROC			; GameShop::GDReqStorage, COMDAT
; _this$ = ecx

; 1484 : {

  00000	55		 push	 ebp
  00001	8b ec		 mov	 ebp, esp
  00003	81 ec 28 03 00
	00		 sub	 esp, 808		; 00000328H
  00009	a1 00 00 00 00	 mov	 eax, DWORD PTR ___security_cookie
  0000e	33 c5		 xor	 eax, ebp
  00010	89 45 fc	 mov	 DWORD PTR __$ArrayPad$[ebp], eax
  00013	57		 push	 edi
  00014	8b 7d 08	 mov	 edi, DWORD PTR _aIndex$[ebp]

; 1485 : 	if( !gObjIsConnected(aIndex) )

  00017	57		 push	 edi
  00018	e8 00 00 00 00	 call	 ?gObjIsConnected@@YAHH@Z ; gObjIsConnected
  0001d	83 c4 04	 add	 esp, 4
  00020	85 c0		 test	 eax, eax
  00022	74 65		 je	 SHORT $LN2@GDReqStora

; 1486 : 	{
; 1487 : 		return;
; 1488 : 	}
; 1489 : 	// ----
; 1490 : 	LPOBJ lpUser = &gObj[aIndex];

  00024	56		 push	 esi
  00025	8b f7		 mov	 esi, edi
  00027	69 f6 50 2b 00
	00		 imul	 esi, 11088		; 00002b50H
  0002d	03 35 00 00 00
	00		 add	 esi, DWORD PTR ?gObj@@3PAUOBJECTSTRUCT@@A ; gObj

; 1491 : 	// ----
; 1492 : 	GAMESHOP_GD_STORAGE pRequest;
; 1493 : 	PHeadSubSetW((LPBYTE)&pRequest, 0xD3, 3, sizeof(GAMESHOP_GD_STORAGE));

  00033	68 22 03 00 00	 push	 802			; 00000322H
  00038	6a 03		 push	 3
  0003a	8d 85 d8 fc ff
	ff		 lea	 eax, DWORD PTR _pRequest$[ebp]
  00040	68 d3 00 00 00	 push	 211			; 000000d3H
  00045	50		 push	 eax
  00046	e8 00 00 00 00	 call	 ?PHeadSubSetW@@YAXPAEEEH@Z ; PHeadSubSetW

; 1494 : 	memcpy(pRequest.AccountID, lpUser->AccountID, MAX_IDSTRING);

  0004b	8b 4e 6c	 mov	 ecx, DWORD PTR [esi+108]
  0004e	89 8d df fc ff
	ff		 mov	 DWORD PTR _pRequest$[ebp+7], ecx
  00054	8b 56 70	 mov	 edx, DWORD PTR [esi+112]
  00057	83 c4 10	 add	 esp, 16			; 00000010H

; 1495 : 	//pRequest.AccountID[10] = 0;
; 1496 : 	pRequest.UserIndex = aIndex;
; 1497 : 	cDBSMng.Send((char*)&pRequest, sizeof(GAMESHOP_GD_STORAGE));

  0005a	68 22 03 00 00	 push	 802			; 00000322H
  0005f	8d 8d d8 fc ff
	ff		 lea	 ecx, DWORD PTR _pRequest$[ebp]
  00065	89 95 e3 fc ff
	ff		 mov	 DWORD PTR _pRequest$[ebp+11], edx
  0006b	66 8b 46 74	 mov	 ax, WORD PTR [esi+116]
  0006f	51		 push	 ecx
  00070	b9 00 00 00 00	 mov	 ecx, OFFSET ?cDBSMng@@3VDBSockMng@@A ; cDBSMng
  00075	66 89 85 e7 fc
	ff ff		 mov	 WORD PTR _pRequest$[ebp+15], ax
  0007c	66 89 bd dd fc
	ff ff		 mov	 WORD PTR _pRequest$[ebp+5], di
  00083	e8 00 00 00 00	 call	 ?Send@DBSockMng@@QAEHPADH@Z ; DBSockMng::Send
  00088	5e		 pop	 esi
$LN2@GDReqStora:

; 1498 : }

  00089	8b 4d fc	 mov	 ecx, DWORD PTR __$ArrayPad$[ebp]
  0008c	33 cd		 xor	 ecx, ebp
  0008e	5f		 pop	 edi
  0008f	e8 00 00 00 00	 call	 @__security_check_cookie@4
  00094	8b e5		 mov	 esp, ebp
  00096	5d		 pop	 ebp
  00097	c2 04 00	 ret	 4
?GDReqStorage@GameShop@@QAEXH@Z ENDP			; GameShop::GDReqStorage
_TEXT	ENDS
PUBLIC	?DGGetStorage@GameShop@@QAEXPAUGAMESHOP_GD_STORAGE@@@Z ; GameShop::DGGetStorage
; Function compile flags: /Ogtp
;	COMDAT ?DGGetStorage@GameShop@@QAEXPAUGAMESHOP_GD_STORAGE@@@Z
_TEXT	SEGMENT
_aRecv$ = 8						; size = 4
?DGGetStorage@GameShop@@QAEXPAUGAMESHOP_GD_STORAGE@@@Z PROC ; GameShop::DGGetStorage, COMDAT
; _this$ = ecx

; 1502 : {

  00000	55		 push	 ebp
  00001	8b ec		 mov	 ebp, esp
  00003	56		 push	 esi

; 1503 : 	if( !gObjIsConnected(aRecv->UserIndex) )

  00004	8b 75 08	 mov	 esi, DWORD PTR _aRecv$[ebp]
  00007	0f b7 46 05	 movzx	 eax, WORD PTR [esi+5]
  0000b	50		 push	 eax
  0000c	e8 00 00 00 00	 call	 ?gObjIsConnected@@YAHH@Z ; gObjIsConnected
  00011	83 c4 04	 add	 esp, 4
  00014	85 c0		 test	 eax, eax
  00016	74 5f		 je	 SHORT $LN1@DGGetStora

; 1504 : 	{
; 1505 : 		return;
; 1506 : 	}
; 1507 : 	// ----
; 1508 : 	LPOBJ lpUser = &gObj[aRecv->UserIndex];

  00018	0f b7 46 05	 movzx	 eax, WORD PTR [esi+5]
  0001c	69 c0 50 2b 00
	00		 imul	 eax, 11088		; 00002b50H
  00022	03 05 00 00 00
	00		 add	 eax, DWORD PTR ?gObj@@3PAUOBJECTSTRUCT@@A ; gObj

; 1509 : 	// ----
; 1510 : 	for( int i = 0; i < aRecv->ItemCount; i++ )

  00028	33 d2		 xor	 edx, edx
  0002a	39 56 12	 cmp	 DWORD PTR [esi+18], edx
  0002d	7e 48		 jle	 SHORT $LN1@DGGetStora

; 1504 : 	{
; 1505 : 		return;
; 1506 : 	}
; 1507 : 	// ----
; 1508 : 	LPOBJ lpUser = &gObj[aRecv->UserIndex];

  0002f	8d 88 14 23 00
	00		 lea	 ecx, DWORD PTR [eax+8980]
  00035	8d 46 1a	 lea	 eax, DWORD PTR [esi+26]
  00038	57		 push	 edi
  00039	8d a4 24 00 00
	00 00		 npad	 7
$LL3@DGGetStora:

; 1511 : 	{
; 1512 : 		lpUser->GameShop.MainStorage[i].AuthIndex = aRecv->Storage[i].AuthIndex;

  00040	8b 78 fc	 mov	 edi, DWORD PTR [eax-4]
  00043	89 79 fc	 mov	 DWORD PTR [ecx-4], edi

; 1513 : 		lpUser->GameShop.MainStorage[i].AuthID = aRecv->Storage[i].AuthID;

  00046	8b 38		 mov	 edi, DWORD PTR [eax]
  00048	89 39		 mov	 DWORD PTR [ecx], edi

; 1514 : 		lpUser->GameShop.MainStorage[i].ItemID = aRecv->Storage[i].ItemID;

  0004a	66 8b 78 04	 mov	 di, WORD PTR [eax+4]
  0004e	66 89 79 04	 mov	 WORD PTR [ecx+4], di

; 1515 : 		lpUser->GameShop.MainStorage[i].IBSCategory = aRecv->Storage[i].IBSCategory;

  00052	8b 78 0a	 mov	 edi, DWORD PTR [eax+10]
  00055	89 79 0a	 mov	 DWORD PTR [ecx+10], edi

; 1516 : 		lpUser->GameShop.MainStorage[i].IBSID = aRecv->Storage[i].IBSID;

  00058	8b 78 06	 mov	 edi, DWORD PTR [eax+6]
  0005b	89 79 06	 mov	 DWORD PTR [ecx+6], edi

; 1517 : 		lpUser->GameShop.MainStorage[i].IBSIndex = aRecv->Storage[i].IBSIndex;

  0005e	8b 78 0e	 mov	 edi, DWORD PTR [eax+14]
  00061	89 79 0e	 mov	 DWORD PTR [ecx+14], edi

; 1518 : 		lpUser->GameShop.MainStorage[i].PackageID = aRecv->Storage[i].PackageID;

  00064	8b 78 12	 mov	 edi, DWORD PTR [eax+18]
  00067	89 79 12	 mov	 DWORD PTR [ecx+18], edi
  0006a	42		 inc	 edx
  0006b	83 c0 1a	 add	 eax, 26			; 0000001aH
  0006e	83 c1 1a	 add	 ecx, 26			; 0000001aH
  00071	3b 56 12	 cmp	 edx, DWORD PTR [esi+18]
  00074	7c ca		 jl	 SHORT $LL3@DGGetStora
  00076	5f		 pop	 edi
$LN1@DGGetStora:
  00077	5e		 pop	 esi

; 1519 : 	}
; 1520 : }

  00078	5d		 pop	 ebp
  00079	c2 04 00	 ret	 4
?DGGetStorage@GameShop@@QAEXPAUGAMESHOP_GD_STORAGE@@@Z ENDP ; GameShop::DGGetStorage
_TEXT	ENDS
PUBLIC	__$ArrayPad$
PUBLIC	?GDSavePoint@GameShop@@QAEXH@Z			; GameShop::GDSavePoint
; Function compile flags: /Ogtp
;	COMDAT ?GDSavePoint@GameShop@@QAEXH@Z
_TEXT	SEGMENT
_pRequest$ = -36					; size = 29
__$ArrayPad$ = -4					; size = 4
_aIndex$ = 8						; size = 4
?GDSavePoint@GameShop@@QAEXH@Z PROC			; GameShop::GDSavePoint, COMDAT
; _this$ = ecx

; 1524 : {

  00000	55		 push	 ebp
  00001	8b ec		 mov	 ebp, esp
  00003	83 ec 24	 sub	 esp, 36			; 00000024H
  00006	a1 00 00 00 00	 mov	 eax, DWORD PTR ___security_cookie
  0000b	33 c5		 xor	 eax, ebp
  0000d	89 45 fc	 mov	 DWORD PTR __$ArrayPad$[ebp], eax
  00010	57		 push	 edi
  00011	8b 7d 08	 mov	 edi, DWORD PTR _aIndex$[ebp]

; 1525 : 	if( !gObjIsConnected(aIndex) )

  00014	57		 push	 edi
  00015	e8 00 00 00 00	 call	 ?gObjIsConnected@@YAHH@Z ; gObjIsConnected
  0001a	83 c4 04	 add	 esp, 4
  0001d	85 c0		 test	 eax, eax
  0001f	74 6f		 je	 SHORT $LN2@GDSavePoin

; 1526 : 	{
; 1527 : 		return;
; 1528 : 	}
; 1529 : 	// ----
; 1530 : 	LPOBJ lpUser = &gObj[aIndex];

  00021	56		 push	 esi
  00022	8b f7		 mov	 esi, edi
  00024	69 f6 50 2b 00
	00		 imul	 esi, 11088		; 00002b50H
  0002a	03 35 00 00 00
	00		 add	 esi, DWORD PTR ?gObj@@3PAUOBJECTSTRUCT@@A ; gObj

; 1531 : 	// ----
; 1532 : 	GAMESHOP_GD_SAVE_POINT pRequest;
; 1533 : 	pRequest.h.set((LPBYTE)&pRequest, 0xD2, 0x3, sizeof(pRequest));

  00030	c7 45 dc c1 1d
	d2 03		 mov	 DWORD PTR _pRequest$[ebp], 64101825 ; 03d21dc1H

; 1534 : 	memcpy(pRequest.AccountID, lpUser->AccountID, 11);

  00037	8b 46 6c	 mov	 eax, DWORD PTR [esi+108]
  0003a	89 45 e2	 mov	 DWORD PTR _pRequest$[ebp+6], eax
  0003d	8b 4e 70	 mov	 ecx, DWORD PTR [esi+112]
  00040	89 4d e6	 mov	 DWORD PTR _pRequest$[ebp+10], ecx
  00043	66 8b 56 74	 mov	 dx, WORD PTR [esi+116]
  00047	66 89 55 ea	 mov	 WORD PTR _pRequest$[ebp+14], dx
  0004b	8a 46 76	 mov	 al, BYTE PTR [esi+118]
  0004e	88 45 ec	 mov	 BYTE PTR _pRequest$[ebp+16], al

; 1535 : 	pRequest.UserIndex		= aIndex;

  00051	66 89 7d e0	 mov	 WORD PTR _pRequest$[ebp+4], di

; 1536 : 	pRequest.WCoinC			= lpUser->GameShop.WCoinC;

  00055	dd 86 00 23 00
	00		 fld	 QWORD PTR [esi+8960]
  0005b	e8 00 00 00 00	 call	 __ftol2_sse
  00060	89 45 f1	 mov	 DWORD PTR _pRequest$[ebp+21], eax

; 1537 : 	pRequest.WCoinP			= lpUser->GameShop.WCoinP;

  00063	dd 86 f8 22 00
	00		 fld	 QWORD PTR [esi+8952]
  00069	e8 00 00 00 00	 call	 __ftol2_sse
  0006e	89 45 ed	 mov	 DWORD PTR _pRequest$[ebp+17], eax

; 1538 : 	pRequest.GoblinPoint	= lpUser->GameShop.GoblinPoint;

  00071	dd 86 08 23 00
	00		 fld	 QWORD PTR [esi+8968]
  00077	e8 00 00 00 00	 call	 __ftol2_sse

; 1539 : 
; 1540 : 	cDBSMng.Send((char*)&pRequest, pRequest.h.size);

  0007c	6a 1d		 push	 29			; 0000001dH
  0007e	8d 4d dc	 lea	 ecx, DWORD PTR _pRequest$[ebp]
  00081	51		 push	 ecx
  00082	b9 00 00 00 00	 mov	 ecx, OFFSET ?cDBSMng@@3VDBSockMng@@A ; cDBSMng
  00087	89 45 f5	 mov	 DWORD PTR _pRequest$[ebp+25], eax
  0008a	e8 00 00 00 00	 call	 ?Send@DBSockMng@@QAEHPADH@Z ; DBSockMng::Send
  0008f	5e		 pop	 esi
$LN2@GDSavePoin:

; 1541 : 
; 1542 : }

  00090	8b 4d fc	 mov	 ecx, DWORD PTR __$ArrayPad$[ebp]
  00093	33 cd		 xor	 ecx, ebp
  00095	5f		 pop	 edi
  00096	e8 00 00 00 00	 call	 @__security_check_cookie@4
  0009b	8b e5		 mov	 esp, ebp
  0009d	5d		 pop	 ebp
  0009e	c2 04 00	 ret	 4
?GDSavePoint@GameShop@@QAEXH@Z ENDP			; GameShop::GDSavePoint
_TEXT	ENDS
PUBLIC	__$ArrayPad$
PUBLIC	?GDReqPoint@GameShop@@QAEXH@Z			; GameShop::GDReqPoint
; Function compile flags: /Ogtp
;	COMDAT ?GDReqPoint@GameShop@@QAEXH@Z
_TEXT	SEGMENT
_pRequest$ = -24					; size = 17
__$ArrayPad$ = -4					; size = 4
_aIndex$ = 8						; size = 4
?GDReqPoint@GameShop@@QAEXH@Z PROC			; GameShop::GDReqPoint, COMDAT
; _this$ = ecx

; 1546 : {

  00000	55		 push	 ebp
  00001	8b ec		 mov	 ebp, esp
  00003	83 ec 18	 sub	 esp, 24			; 00000018H
  00006	a1 00 00 00 00	 mov	 eax, DWORD PTR ___security_cookie
  0000b	33 c5		 xor	 eax, ebp
  0000d	89 45 fc	 mov	 DWORD PTR __$ArrayPad$[ebp], eax
  00010	56		 push	 esi
  00011	8b 75 08	 mov	 esi, DWORD PTR _aIndex$[ebp]

; 1547 : 	if( !gObjIsConnected(aIndex) )

  00014	56		 push	 esi
  00015	e8 00 00 00 00	 call	 ?gObjIsConnected@@YAHH@Z ; gObjIsConnected
  0001a	83 c4 04	 add	 esp, 4
  0001d	85 c0		 test	 eax, eax
  0001f	74 43		 je	 SHORT $LN2@GDReqPoint

; 1548 : 	{
; 1549 : 		return;
; 1550 : 	}
; 1551 : 	// ----
; 1552 : 	LPOBJ lpUser = &gObj[aIndex];

  00021	8b c6		 mov	 eax, esi
  00023	69 c0 50 2b 00
	00		 imul	 eax, 11088		; 00002b50H
  00029	03 05 00 00 00
	00		 add	 eax, DWORD PTR ?gObj@@3PAUOBJECTSTRUCT@@A ; gObj

; 1553 : 	// ----
; 1554 : 	GAMESHOP_GD_REQ_POINT pRequest;
; 1555 : 	pRequest.h.set((LPBYTE)&pRequest, 0xD2, 0x4, sizeof(pRequest));

  0002f	c7 45 e8 c1 11
	d2 04		 mov	 DWORD PTR _pRequest$[ebp], 80875969 ; 04d211c1H

; 1556 : 	memcpy(pRequest.AccountID, lpUser->AccountID, 11);

  00036	8b 48 6c	 mov	 ecx, DWORD PTR [eax+108]
  00039	89 4d ee	 mov	 DWORD PTR _pRequest$[ebp+6], ecx
  0003c	8b 50 70	 mov	 edx, DWORD PTR [eax+112]
  0003f	89 55 f2	 mov	 DWORD PTR _pRequest$[ebp+10], edx
  00042	66 8b 48 74	 mov	 cx, WORD PTR [eax+116]
  00046	66 89 4d f6	 mov	 WORD PTR _pRequest$[ebp+14], cx
  0004a	8a 50 76	 mov	 dl, BYTE PTR [eax+118]

; 1557 : 	pRequest.UserIndex = aIndex;
; 1558 : 	cDBSMng.Send((char*)&pRequest, pRequest.h.size);

  0004d	6a 11		 push	 17			; 00000011H
  0004f	8d 45 e8	 lea	 eax, DWORD PTR _pRequest$[ebp]
  00052	50		 push	 eax
  00053	b9 00 00 00 00	 mov	 ecx, OFFSET ?cDBSMng@@3VDBSockMng@@A ; cDBSMng
  00058	88 55 f8	 mov	 BYTE PTR _pRequest$[ebp+16], dl
  0005b	66 89 75 ec	 mov	 WORD PTR _pRequest$[ebp+4], si
  0005f	e8 00 00 00 00	 call	 ?Send@DBSockMng@@QAEHPADH@Z ; DBSockMng::Send
$LN2@GDReqPoint:

; 1559 : }

  00064	8b 4d fc	 mov	 ecx, DWORD PTR __$ArrayPad$[ebp]
  00067	33 cd		 xor	 ecx, ebp
  00069	5e		 pop	 esi
  0006a	e8 00 00 00 00	 call	 @__security_check_cookie@4
  0006f	8b e5		 mov	 esp, ebp
  00071	5d		 pop	 ebp
  00072	c2 04 00	 ret	 4
?GDReqPoint@GameShop@@QAEXH@Z ENDP			; GameShop::GDReqPoint
_TEXT	ENDS
PUBLIC	??_C@_0O@LGDAFGIN@?$FLCredits?$FN?3?5?$CFd?$AA@	; `string'
PUBLIC	??_C@_0BD@PJHLJANC@?$FLGoblin?5Point?$FN?3?5?$CFd?$AA@ ; `string'
PUBLIC	??_C@_0N@LNILHGDF@?$FLWCoinC?$FN?3?5?$CFd?$AA@	; `string'
PUBLIC	??_C@_0BF@HDMMMCAO@?$FLGameShop?$FN?$FL?$CFs?$FN?5Error?$AA@ ; `string'
PUBLIC	??_C@_0BF@CCMGAEAH@GameShop?3?3DGGetPoint?$AA@	; `string'
PUBLIC	?DGGetPoint@GameShop@@QAEXPAUGAMESHOP_DG_GET_POINT@@@Z ; GameShop::DGGetPoint
EXTRN	?MsgNormal@@YAXHPADZZ:PROC			; MsgNormal
EXTRN	?ZtConfig@@3VcZtConfigs@@A:BYTE			; ZtConfig
EXTRN	?CheckUser@CZtLicense@@QAE_NH@Z:PROC		; CZtLicense::CheckUser
EXTRN	?g_ZtLicense@@3VCZtLicense@@A:BYTE		; g_ZtLicense
EXTRN	?ZtUserDataSend@@YAXH@Z:PROC			; ZtUserDataSend
EXTRN	?LogAddC@@3P6AXEPADZZA:DWORD			; LogAddC
;	COMDAT ??_C@_0O@LGDAFGIN@?$FLCredits?$FN?3?5?$CFd?$AA@
CONST	SEGMENT
??_C@_0O@LGDAFGIN@?$FLCredits?$FN?3?5?$CFd?$AA@ DB '[Credits]: %d', 00H ; `string'
CONST	ENDS
;	COMDAT ??_C@_0BD@PJHLJANC@?$FLGoblin?5Point?$FN?3?5?$CFd?$AA@
CONST	SEGMENT
??_C@_0BD@PJHLJANC@?$FLGoblin?5Point?$FN?3?5?$CFd?$AA@ DB '[Goblin Point]'
	DB	': %d', 00H					; `string'
CONST	ENDS
;	COMDAT ??_C@_0N@LNILHGDF@?$FLWCoinC?$FN?3?5?$CFd?$AA@
CONST	SEGMENT
??_C@_0N@LNILHGDF@?$FLWCoinC?$FN?3?5?$CFd?$AA@ DB '[WCoinC]: %d', 00H ; `string'
CONST	ENDS
;	COMDAT ??_C@_0BF@HDMMMCAO@?$FLGameShop?$FN?$FL?$CFs?$FN?5Error?$AA@
CONST	SEGMENT
??_C@_0BF@HDMMMCAO@?$FLGameShop?$FN?$FL?$CFs?$FN?5Error?$AA@ DB '[GameSho'
	DB	'p][%s] Error', 00H				; `string'
CONST	ENDS
;	COMDAT ??_C@_0BF@CCMGAEAH@GameShop?3?3DGGetPoint?$AA@
CONST	SEGMENT
??_C@_0BF@CCMGAEAH@GameShop?3?3DGGetPoint?$AA@ DB 'GameShop::DGGetPoint', 00H ; `string'
; Function compile flags: /Ogtp
CONST	ENDS
;	COMDAT ?DGGetPoint@GameShop@@QAEXPAUGAMESHOP_DG_GET_POINT@@@Z
_TEXT	SEGMENT
_aRecv$ = 8						; size = 4
?DGGetPoint@GameShop@@QAEXPAUGAMESHOP_DG_GET_POINT@@@Z PROC ; GameShop::DGGetPoint, COMDAT
; _this$ = ecx

; 1563 : {

  00000	55		 push	 ebp
  00001	8b ec		 mov	 ebp, esp
  00003	57		 push	 edi

; 1564 : 	if( !gObjIsConnected(aRecv->UserIndex) )

  00004	8b 7d 08	 mov	 edi, DWORD PTR _aRecv$[ebp]
  00007	0f b7 47 04	 movzx	 eax, WORD PTR [edi+4]
  0000b	50		 push	 eax
  0000c	e8 00 00 00 00	 call	 ?gObjIsConnected@@YAHH@Z ; gObjIsConnected
  00011	83 c4 04	 add	 esp, 4
  00014	85 c0		 test	 eax, eax
  00016	75 1a		 jne	 SHORT $LN12@DGGetPoint

; 1565 : 	{
; 1566 : 		LogAddC(2, "[GameShop][%s] Error", __FUNCTION__);

  00018	68 00 00 00 00	 push	 OFFSET ??_C@_0BF@CCMGAEAH@GameShop?3?3DGGetPoint?$AA@
  0001d	68 00 00 00 00	 push	 OFFSET ??_C@_0BF@HDMMMCAO@?$FLGameShop?$FN?$FL?$CFs?$FN?5Error?$AA@
  00022	6a 02		 push	 2
  00024	ff 15 00 00 00
	00		 call	 DWORD PTR ?LogAddC@@3P6AXEPADZZA ; LogAddC
  0002a	83 c4 0c	 add	 esp, 12			; 0000000cH
  0002d	5f		 pop	 edi

; 1608 : 			}
; 1609 : 		}
; 1610 : 	}
; 1611 : }

  0002e	5d		 pop	 ebp
  0002f	c2 04 00	 ret	 4
$LN12@DGGetPoint:
  00032	56		 push	 esi

; 1567 : 		return;
; 1568 : 	}
; 1569 : 	// ----
; 1570 : 	LPOBJ lpUser = &gObj[aRecv->UserIndex];

  00033	0f b7 77 04	 movzx	 esi, WORD PTR [edi+4]
  00037	69 f6 50 2b 00
	00		 imul	 esi, 11088		; 00002b50H
  0003d	03 35 00 00 00
	00		 add	 esi, DWORD PTR ?gObj@@3PAUOBJECTSTRUCT@@A ; gObj

; 1571 : 	// ----
; 1572 : 	if( aRecv->WCoinC < 0 )

  00043	83 7f 0a 00	 cmp	 DWORD PTR [edi+10], 0
  00047	7d 09		 jge	 SHORT $LN11@DGGetPoint

; 1573 : 	{
; 1574 : 		aRecv->WCoinC = 0;

  00049	c7 47 0a 00 00
	00 00		 mov	 DWORD PTR [edi+10], 0
  00050	eb 1c		 jmp	 SHORT $LN7@DGGetPoint
$LN11@DGGetPoint:

; 1575 : 	}
; 1576 : 	else if( aRecv->WCoinP < 0 )

  00052	83 7f 06 00	 cmp	 DWORD PTR [edi+6], 0
  00056	7d 09		 jge	 SHORT $LN9@DGGetPoint

; 1577 : 	{
; 1578 : 		aRecv->WCoinP = 0;

  00058	c7 47 06 00 00
	00 00		 mov	 DWORD PTR [edi+6], 0
  0005f	eb 0d		 jmp	 SHORT $LN7@DGGetPoint
$LN9@DGGetPoint:

; 1579 : 	}
; 1580 : 	else if( aRecv->GoblinPoint < 0 )

  00061	83 7f 0e 00	 cmp	 DWORD PTR [edi+14], 0
  00065	7d 07		 jge	 SHORT $LN7@DGGetPoint

; 1581 : 	{
; 1582 : 		aRecv->GoblinPoint = 0;

  00067	c7 47 0e 00 00
	00 00		 mov	 DWORD PTR [edi+14], 0
$LN7@DGGetPoint:

; 1583 : 	}
; 1584 : 	// ----
; 1585 : 	lpUser->GameShop.WCoinC		= (double)aRecv->WCoinC;

  0006e	db 47 0a	 fild	 DWORD PTR [edi+10]
  00071	dd 9e 00 23 00
	00		 fstp	 QWORD PTR [esi+8960]

; 1586 : 	lpUser->GameShop.WCoinP		= (double)aRecv->WCoinP;

  00077	db 47 06	 fild	 DWORD PTR [edi+6]
  0007a	dd 9e f8 22 00
	00		 fstp	 QWORD PTR [esi+8952]

; 1587 : 	lpUser->GameShop.GoblinPoint	= (double)aRecv->GoblinPoint;

  00080	db 47 0e	 fild	 DWORD PTR [edi+14]
  00083	dd 9e 08 23 00
	00		 fstp	 QWORD PTR [esi+8968]

; 1588 : 
; 1589 : 	//-> Send Client
; 1590 : 	ZtUserDataSend(aRecv->UserIndex);

  00089	0f b7 4f 04	 movzx	 ecx, WORD PTR [edi+4]
  0008d	51		 push	 ecx
  0008e	e8 00 00 00 00	 call	 ?ZtUserDataSend@@YAXH@Z	; ZtUserDataSend
  00093	83 c4 04	 add	 esp, 4

; 1591 : 
; 1592 : 	if(!lpUser->WaitWcoinConnect)

  00096	80 be fa 28 00
	00 00		 cmp	 BYTE PTR [esi+10490], 0
  0009d	0f 85 96 00 00
	00		 jne	 $LN15@DGGetPoint

; 1593 : 	{
; 1594 : 		lpUser->WaitWcoinConnect = true;
; 1595 : 		if(g_ZtLicense.CheckUser(eZtUB::MedoniAndrei) || g_ZtLicense.CheckUser(eZtUB::absolute))

  000a3	6a 32		 push	 50			; 00000032H
  000a5	b9 00 00 00 00	 mov	 ecx, OFFSET ?g_ZtLicense@@3VCZtLicense@@A ; g_ZtLicense
  000aa	c6 86 fa 28 00
	00 01		 mov	 BYTE PTR [esi+10490], 1
  000b1	e8 00 00 00 00	 call	 ?CheckUser@CZtLicense@@QAE_NH@Z ; CZtLicense::CheckUser
  000b6	84 c0		 test	 al, al
  000b8	75 10		 jne	 SHORT $LN4@DGGetPoint
  000ba	6a 2e		 push	 46			; 0000002eH
  000bc	b9 00 00 00 00	 mov	 ecx, OFFSET ?g_ZtLicense@@3VCZtLicense@@A ; g_ZtLicense
  000c1	e8 00 00 00 00	 call	 ?CheckUser@CZtLicense@@QAE_NH@Z ; CZtLicense::CheckUser
  000c6	84 c0		 test	 al, al
  000c8	74 6f		 je	 SHORT $LN15@DGGetPoint
$LN4@DGGetPoint:

; 1596 : 		{
; 1597 : 			if(ZtConfig.PlayerConnect.ShowWcoinC)

  000ca	83 3d 5c 0a 00
	00 00		 cmp	 DWORD PTR ?ZtConfig@@3VcZtConfigs@@A+2652, 0
  000d1	74 1c		 je	 SHORT $LN3@DGGetPoint

; 1598 : 			{
; 1599 : 				MsgNormal(lpUser->m_Index,"[WCoinC]: %d",(int)lpUser->GameShop.WCoinC);

  000d3	dd 86 00 23 00
	00		 fld	 QWORD PTR [esi+8960]
  000d9	e8 00 00 00 00	 call	 __ftol2_sse
  000de	8b 16		 mov	 edx, DWORD PTR [esi]
  000e0	50		 push	 eax
  000e1	68 00 00 00 00	 push	 OFFSET ??_C@_0N@LNILHGDF@?$FLWCoinC?$FN?3?5?$CFd?$AA@
  000e6	52		 push	 edx
  000e7	e8 00 00 00 00	 call	 ?MsgNormal@@YAXHPADZZ	; MsgNormal
  000ec	83 c4 0c	 add	 esp, 12			; 0000000cH
$LN3@DGGetPoint:

; 1600 : 			}
; 1601 : 			if(ZtConfig.PlayerConnect.ShowGP)

  000ef	83 3d 60 0a 00
	00 00		 cmp	 DWORD PTR ?ZtConfig@@3VcZtConfigs@@A+2656, 0
  000f6	74 1c		 je	 SHORT $LN2@DGGetPoint

; 1602 : 			{
; 1603 : 				MsgNormal(lpUser->m_Index,"[Goblin Point]: %d",(int)lpUser->GameShop.GoblinPoint);

  000f8	dd 86 08 23 00
	00		 fld	 QWORD PTR [esi+8968]
  000fe	e8 00 00 00 00	 call	 __ftol2_sse
  00103	50		 push	 eax
  00104	8b 06		 mov	 eax, DWORD PTR [esi]
  00106	68 00 00 00 00	 push	 OFFSET ??_C@_0BD@PJHLJANC@?$FLGoblin?5Point?$FN?3?5?$CFd?$AA@
  0010b	50		 push	 eax
  0010c	e8 00 00 00 00	 call	 ?MsgNormal@@YAXHPADZZ	; MsgNormal
  00111	83 c4 0c	 add	 esp, 12			; 0000000cH
$LN2@DGGetPoint:

; 1604 : 			}
; 1605 : 			if(ZtConfig.PlayerConnect.ShowZtCredit)

  00114	83 3d 64 0a 00
	00 00		 cmp	 DWORD PTR ?ZtConfig@@3VcZtConfigs@@A+2660, 0
  0011b	74 1c		 je	 SHORT $LN15@DGGetPoint

; 1606 : 			{
; 1607 : 				MsgNormal(lpUser->m_Index,"[Credits]: %d",(int)lpUser->ZtCred);

  0011d	d9 86 a8 22 00
	00		 fld	 DWORD PTR [esi+8872]
  00123	e8 00 00 00 00	 call	 __ftol2_sse
  00128	8b 0e		 mov	 ecx, DWORD PTR [esi]
  0012a	50		 push	 eax
  0012b	68 00 00 00 00	 push	 OFFSET ??_C@_0O@LGDAFGIN@?$FLCredits?$FN?3?5?$CFd?$AA@
  00130	51		 push	 ecx
  00131	e8 00 00 00 00	 call	 ?MsgNormal@@YAXHPADZZ	; MsgNormal
  00136	83 c4 0c	 add	 esp, 12			; 0000000cH
$LN15@DGGetPoint:
  00139	5e		 pop	 esi
  0013a	5f		 pop	 edi

; 1608 : 			}
; 1609 : 		}
; 1610 : 	}
; 1611 : }

  0013b	5d		 pop	 ebp
  0013c	c2 04 00	 ret	 4
?DGGetPoint@GameShop@@QAEXPAUGAMESHOP_DG_GET_POINT@@@Z ENDP ; GameShop::DGGetPoint
_TEXT	ENDS
PUBLIC	?GDSaveUserInfo@GameShop@@QAEXH@Z		; GameShop::GDSaveUserInfo
; Function compile flags: /Ogtp
;	COMDAT ?GDSaveUserInfo@GameShop@@QAEXH@Z
_TEXT	SEGMENT
_aIndex$ = 8						; size = 4
?GDSaveUserInfo@GameShop@@QAEXH@Z PROC			; GameShop::GDSaveUserInfo, COMDAT
; _this$ = ecx

; 1615 : {

  00000	55		 push	 ebp
  00001	8b ec		 mov	 ebp, esp
  00003	56		 push	 esi
  00004	57		 push	 edi

; 1616 : 	if( !gObjIsConnected(aIndex) )

  00005	8b 7d 08	 mov	 edi, DWORD PTR _aIndex$[ebp]
  00008	57		 push	 edi
  00009	8b f1		 mov	 esi, ecx
  0000b	e8 00 00 00 00	 call	 ?gObjIsConnected@@YAHH@Z ; gObjIsConnected
  00010	83 c4 04	 add	 esp, 4
  00013	85 c0		 test	 eax, eax
  00015	74 08		 je	 SHORT $LN2@GDSaveUser

; 1617 : 	{
; 1618 : 		return;
; 1619 : 	}
; 1620 : 	// ----
; 1621 : 	this->GDSavePoint(aIndex);

  00017	57		 push	 edi
  00018	8b ce		 mov	 ecx, esi
  0001a	e8 00 00 00 00	 call	 ?GDSavePoint@GameShop@@QAEXH@Z ; GameShop::GDSavePoint
$LN2@GDSaveUser:
  0001f	5f		 pop	 edi
  00020	5e		 pop	 esi

; 1622 : }

  00021	5d		 pop	 ebp
  00022	c2 04 00	 ret	 4
?GDSaveUserInfo@GameShop@@QAEXH@Z ENDP			; GameShop::GDSaveUserInfo
_TEXT	ENDS
PUBLIC	?GDReqUserInfo@GameShop@@QAEXH@Z		; GameShop::GDReqUserInfo
; Function compile flags: /Ogtp
;	COMDAT ?GDReqUserInfo@GameShop@@QAEXH@Z
_TEXT	SEGMENT
_aIndex$ = 8						; size = 4
?GDReqUserInfo@GameShop@@QAEXH@Z PROC			; GameShop::GDReqUserInfo, COMDAT
; _this$ = ecx

; 1626 : {

  00000	55		 push	 ebp
  00001	8b ec		 mov	 ebp, esp
  00003	56		 push	 esi
  00004	57		 push	 edi

; 1627 : 	if( !gObjIsConnected(aIndex) )

  00005	8b 7d 08	 mov	 edi, DWORD PTR _aIndex$[ebp]
  00008	57		 push	 edi
  00009	8b f1		 mov	 esi, ecx
  0000b	e8 00 00 00 00	 call	 ?gObjIsConnected@@YAHH@Z ; gObjIsConnected
  00010	83 c4 04	 add	 esp, 4
  00013	85 c0		 test	 eax, eax
  00015	74 08		 je	 SHORT $LN2@GDReqUserI

; 1628 : 	{
; 1629 : 		return;
; 1630 : 	}
; 1631 : 	// ----
; 1632 : 	this->GDReqPoint(aIndex);

  00017	57		 push	 edi
  00018	8b ce		 mov	 ecx, esi
  0001a	e8 00 00 00 00	 call	 ?GDReqPoint@GameShop@@QAEXH@Z ; GameShop::GDReqPoint
$LN2@GDReqUserI:
  0001f	5f		 pop	 edi
  00020	5e		 pop	 esi

; 1633 : }

  00021	5d		 pop	 ebp
  00022	c2 04 00	 ret	 4
?GDReqUserInfo@GameShop@@QAEXH@Z ENDP			; GameShop::GDReqUserInfo
_TEXT	ENDS
PUBLIC	??R?$less@H@std@@QBE_NABH0@Z			; std::less<int>::operator()
; Function compile flags: /Ogtp
; File d:\program files (x86)\microsoft visual studio 10.0\vc\include\xfunctional
;	COMDAT ??R?$less@H@std@@QBE_NABH0@Z
_TEXT	SEGMENT
__Left$ = 8						; size = 4
__Right$ = 12						; size = 4
??R?$less@H@std@@QBE_NABH0@Z PROC			; std::less<int>::operator(), COMDAT
; _this$ = ecx

; 124  : 		{	// apply operator< to operands

  00000	55		 push	 ebp
  00001	8b ec		 mov	 ebp, esp

; 125  : 		return (_Left < _Right);

  00003	8b 45 08	 mov	 eax, DWORD PTR __Left$[ebp]
  00006	8b 08		 mov	 ecx, DWORD PTR [eax]
  00008	8b 55 0c	 mov	 edx, DWORD PTR __Right$[ebp]
  0000b	33 c0		 xor	 eax, eax
  0000d	3b 0a		 cmp	 ecx, DWORD PTR [edx]
  0000f	0f 9c c0	 setl	 al

; 126  : 		}

  00012	5d		 pop	 ebp
  00013	c2 08 00	 ret	 8
??R?$less@H@std@@QBE_NABH0@Z ENDP			; std::less<int>::operator()
_TEXT	ENDS
PUBLIC	??0?$allocator@U?$pair@$$CBHPAUGAMESHOP_ITEM_DATA@@@std@@@std@@QAE@XZ ; std::allocator<std::pair<int const ,GAMESHOP_ITEM_DATA *> >::allocator<std::pair<int const ,GAMESHOP_ITEM_DATA *> >
; Function compile flags: /Ogtp
; File d:\program files (x86)\microsoft visual studio 10.0\vc\include\xmemory
;	COMDAT ??0?$allocator@U?$pair@$$CBHPAUGAMESHOP_ITEM_DATA@@@std@@@std@@QAE@XZ
_TEXT	SEGMENT
??0?$allocator@U?$pair@$$CBHPAUGAMESHOP_ITEM_DATA@@@std@@@std@@QAE@XZ PROC ; std::allocator<std::pair<int const ,GAMESHOP_ITEM_DATA *> >::allocator<std::pair<int const ,GAMESHOP_ITEM_DATA *> >, COMDAT
; _this$ = ecx

; 161  : 	_ALLOCATOR() _THROW0()

  00000	8b c1		 mov	 eax, ecx

; 162  : 		{	// construct default allocator (do nothing)
; 163  : 		}

  00002	c3		 ret	 0
??0?$allocator@U?$pair@$$CBHPAUGAMESHOP_ITEM_DATA@@@std@@@std@@QAE@XZ ENDP ; std::allocator<std::pair<int const ,GAMESHOP_ITEM_DATA *> >::allocator<std::pair<int const ,GAMESHOP_ITEM_DATA *> >
_TEXT	ENDS
PUBLIC	??0?$allocator@U?$pair@$$CBHPAUGAMESHOP_PACKAGE_DATA@@@std@@@std@@QAE@XZ ; std::allocator<std::pair<int const ,GAMESHOP_PACKAGE_DATA *> >::allocator<std::pair<int const ,GAMESHOP_PACKAGE_DATA *> >
; Function compile flags: /Ogtp
;	COMDAT ??0?$allocator@U?$pair@$$CBHPAUGAMESHOP_PACKAGE_DATA@@@std@@@std@@QAE@XZ
_TEXT	SEGMENT
??0?$allocator@U?$pair@$$CBHPAUGAMESHOP_PACKAGE_DATA@@@std@@@std@@QAE@XZ PROC ; std::allocator<std::pair<int const ,GAMESHOP_PACKAGE_DATA *> >::allocator<std::pair<int const ,GAMESHOP_PACKAGE_DATA *> >, COMDAT
; _this$ = ecx

; 161  : 	_ALLOCATOR() _THROW0()

  00000	8b c1		 mov	 eax, ecx

; 162  : 		{	// construct default allocator (do nothing)
; 163  : 		}

  00002	c3		 ret	 0
??0?$allocator@U?$pair@$$CBHPAUGAMESHOP_PACKAGE_DATA@@@std@@@std@@QAE@XZ ENDP ; std::allocator<std::pair<int const ,GAMESHOP_PACKAGE_DATA *> >::allocator<std::pair<int const ,GAMESHOP_PACKAGE_DATA *> >
_TEXT	ENDS
PUBLIC	??8?$_Tree_const_iterator@V?$_Tree_val@V?$_Tmap_traits@HPAUGAMESHOP_ITEM_DATA@@U?$less@H@std@@V?$allocator@U?$pair@$$CBHPAUGAMESHOP_ITEM_DATA@@@std@@@3@$0A@@std@@@std@@@std@@QBE_NABV01@@Z ; std::_Tree_const_iterator<std::_Tree_val<std::_Tmap_traits<int,GAMESHOP_ITEM_DATA *,std::less<int>,std::allocator<std::pair<int const ,GAMESHOP_ITEM_DATA *> >,0> > >::operator==
; Function compile flags: /Ogtp
; File d:\program files (x86)\microsoft visual studio 10.0\vc\include\xtree
;	COMDAT ??8?$_Tree_const_iterator@V?$_Tree_val@V?$_Tmap_traits@HPAUGAMESHOP_ITEM_DATA@@U?$less@H@std@@V?$allocator@U?$pair@$$CBHPAUGAMESHOP_ITEM_DATA@@@std@@@3@$0A@@std@@@std@@@std@@QBE_NABV01@@Z
_TEXT	SEGMENT
__Right$ = 8						; size = 4
??8?$_Tree_const_iterator@V?$_Tree_val@V?$_Tmap_traits@HPAUGAMESHOP_ITEM_DATA@@U?$less@H@std@@V?$allocator@U?$pair@$$CBHPAUGAMESHOP_ITEM_DATA@@@std@@@3@$0A@@std@@@std@@@std@@QBE_NABV01@@Z PROC ; std::_Tree_const_iterator<std::_Tree_val<std::_Tmap_traits<int,GAMESHOP_ITEM_DATA *,std::less<int>,std::allocator<std::pair<int const ,GAMESHOP_ITEM_DATA *> >,0> > >::operator==, COMDAT
; _this$ = ecx

; 316  : 		{	// test for iterator equality

  00000	55		 push	 ebp
  00001	8b ec		 mov	 ebp, esp

; 317  :  #if _ITERATOR_DEBUG_LEVEL == 2
; 318  : 		if (this->_Getcont() == 0
; 319  : 			|| this->_Getcont() != _Right._Getcont())
; 320  : 			{	// report error
; 321  : 			_DEBUG_ERROR("map/set iterators incompatible");
; 322  : 			_SCL_SECURE_INVALID_ARGUMENT;
; 323  : 			}
; 324  : 
; 325  :  #elif _ITERATOR_DEBUG_LEVEL == 1
; 326  : 		_SCL_SECURE_VALIDATE(this->_Getcont() != 0
; 327  : 			&& this->_Getcont() == _Right._Getcont());
; 328  :  #endif /* _ITERATOR_DEBUG_LEVEL */
; 329  : 
; 330  : 		return (this->_Ptr == _Right._Ptr);

  00003	8b 01		 mov	 eax, DWORD PTR [ecx]
  00005	8b 55 08	 mov	 edx, DWORD PTR __Right$[ebp]
  00008	33 c9		 xor	 ecx, ecx
  0000a	3b 02		 cmp	 eax, DWORD PTR [edx]
  0000c	0f 94 c0	 sete	 al

; 331  : 		}

  0000f	5d		 pop	 ebp
  00010	c2 04 00	 ret	 4
??8?$_Tree_const_iterator@V?$_Tree_val@V?$_Tmap_traits@HPAUGAMESHOP_ITEM_DATA@@U?$less@H@std@@V?$allocator@U?$pair@$$CBHPAUGAMESHOP_ITEM_DATA@@@std@@@3@$0A@@std@@@std@@@std@@QBE_NABV01@@Z ENDP ; std::_Tree_const_iterator<std::_Tree_val<std::_Tmap_traits<int,GAMESHOP_ITEM_DATA *,std::less<int>,std::allocator<std::pair<int const ,GAMESHOP_ITEM_DATA *> >,0> > >::operator==
_TEXT	ENDS
PUBLIC	??8?$_Tree_const_iterator@V?$_Tree_val@V?$_Tmap_traits@HPAUGAMESHOP_PACKAGE_DATA@@U?$less@H@std@@V?$allocator@U?$pair@$$CBHPAUGAMESHOP_PACKAGE_DATA@@@std@@@3@$0A@@std@@@std@@@std@@QBE_NABV01@@Z ; std::_Tree_const_iterator<std::_Tree_val<std::_Tmap_traits<int,GAMESHOP_PACKAGE_DATA *,std::less<int>,std::allocator<std::pair<int const ,GAMESHOP_PACKAGE_DATA *> >,0> > >::operator==
; Function compile flags: /Ogtp
;	COMDAT ??8?$_Tree_const_iterator@V?$_Tree_val@V?$_Tmap_traits@HPAUGAMESHOP_PACKAGE_DATA@@U?$less@H@std@@V?$allocator@U?$pair@$$CBHPAUGAMESHOP_PACKAGE_DATA@@@std@@@3@$0A@@std@@@std@@@std@@QBE_NABV01@@Z
_TEXT	SEGMENT
__Right$ = 8						; size = 4
??8?$_Tree_const_iterator@V?$_Tree_val@V?$_Tmap_traits@HPAUGAMESHOP_PACKAGE_DATA@@U?$less@H@std@@V?$allocator@U?$pair@$$CBHPAUGAMESHOP_PACKAGE_DATA@@@std@@@3@$0A@@std@@@std@@@std@@QBE_NABV01@@Z PROC ; std::_Tree_const_iterator<std::_Tree_val<std::_Tmap_traits<int,GAMESHOP_PACKAGE_DATA *,std::less<int>,std::allocator<std::pair<int const ,GAMESHOP_PACKAGE_DATA *> >,0> > >::operator==, COMDAT
; _this$ = ecx

; 316  : 		{	// test for iterator equality

  00000	55		 push	 ebp
  00001	8b ec		 mov	 ebp, esp

; 317  :  #if _ITERATOR_DEBUG_LEVEL == 2
; 318  : 		if (this->_Getcont() == 0
; 319  : 			|| this->_Getcont() != _Right._Getcont())
; 320  : 			{	// report error
; 321  : 			_DEBUG_ERROR("map/set iterators incompatible");
; 322  : 			_SCL_SECURE_INVALID_ARGUMENT;
; 323  : 			}
; 324  : 
; 325  :  #elif _ITERATOR_DEBUG_LEVEL == 1
; 326  : 		_SCL_SECURE_VALIDATE(this->_Getcont() != 0
; 327  : 			&& this->_Getcont() == _Right._Getcont());
; 328  :  #endif /* _ITERATOR_DEBUG_LEVEL */
; 329  : 
; 330  : 		return (this->_Ptr == _Right._Ptr);

  00003	8b 01		 mov	 eax, DWORD PTR [ecx]
  00005	8b 55 08	 mov	 edx, DWORD PTR __Right$[ebp]
  00008	33 c9		 xor	 ecx, ecx
  0000a	3b 02		 cmp	 eax, DWORD PTR [edx]
  0000c	0f 94 c0	 sete	 al

; 331  : 		}

  0000f	5d		 pop	 ebp
  00010	c2 04 00	 ret	 4
??8?$_Tree_const_iterator@V?$_Tree_val@V?$_Tmap_traits@HPAUGAMESHOP_PACKAGE_DATA@@U?$less@H@std@@V?$allocator@U?$pair@$$CBHPAUGAMESHOP_PACKAGE_DATA@@@std@@@3@$0A@@std@@@std@@@std@@QBE_NABV01@@Z ENDP ; std::_Tree_const_iterator<std::_Tree_val<std::_Tmap_traits<int,GAMESHOP_PACKAGE_DATA *,std::less<int>,std::allocator<std::pair<int const ,GAMESHOP_PACKAGE_DATA *> >,0> > >::operator==
_TEXT	ENDS
PUBLIC	?_Mynode@?$_Tree_unchecked_const_iterator@V?$_Tree_val@V?$_Tmap_traits@HPAUGAMESHOP_PACKAGE_DATA@@U?$less@H@std@@V?$allocator@U?$pair@$$CBHPAUGAMESHOP_PACKAGE_DATA@@@std@@@3@$0A@@std@@@std@@U_Iterator_base0@2@@std@@QBEPAU_Node@?$_Tree_nod@V?$_Tmap_traits@HPAUGAMESHOP_PACKAGE_DATA@@U?$less@H@std@@V?$allocator@U?$pair@$$CBHPAUGAMESHOP_PACKAGE_DATA@@@std@@@3@$0A@@std@@@2@XZ ; std::_Tree_unchecked_const_iterator<std::_Tree_val<std::_Tmap_traits<int,GAMESHOP_PACKAGE_DATA *,std::less<int>,std::allocator<std::pair<int const ,GAMESHOP_PACKAGE_DATA *> >,0> >,std::_Iterator_base0>::_Mynode
; Function compile flags: /Ogtp
;	COMDAT ?_Mynode@?$_Tree_unchecked_const_iterator@V?$_Tree_val@V?$_Tmap_traits@HPAUGAMESHOP_PACKAGE_DATA@@U?$less@H@std@@V?$allocator@U?$pair@$$CBHPAUGAMESHOP_PACKAGE_DATA@@@std@@@3@$0A@@std@@@std@@U_Iterator_base0@2@@std@@QBEPAU_Node@?$_Tree_nod@V?$_Tmap_traits@HPAUGAMESHOP_PACKAGE_DATA@@U?$less@H@std@@V?$allocator@U?$pair@$$CBHPAUGAMESHOP_PACKAGE_DATA@@@std@@@3@$0A@@std@@@2@XZ
_TEXT	SEGMENT
?_Mynode@?$_Tree_unchecked_const_iterator@V?$_Tree_val@V?$_Tmap_traits@HPAUGAMESHOP_PACKAGE_DATA@@U?$less@H@std@@V?$allocator@U?$pair@$$CBHPAUGAMESHOP_PACKAGE_DATA@@@std@@@3@$0A@@std@@@std@@U_Iterator_base0@2@@std@@QBEPAU_Node@?$_Tree_nod@V?$_Tmap_traits@HPAUGAMESHOP_PACKAGE_DATA@@U?$less@H@std@@V?$allocator@U?$pair@$$CBHPAUGAMESHOP_PACKAGE_DATA@@@std@@@3@$0A@@std@@@2@XZ PROC ; std::_Tree_unchecked_const_iterator<std::_Tree_val<std::_Tmap_traits<int,GAMESHOP_PACKAGE_DATA *,std::less<int>,std::allocator<std::pair<int const ,GAMESHOP_PACKAGE_DATA *> >,0> >,std::_Iterator_base0>::_Mynode, COMDAT
; _this$ = ecx

; 122  : 		return (_Ptr);

  00000	8b 01		 mov	 eax, DWORD PTR [ecx]

; 123  : 		}

  00002	c3		 ret	 0
?_Mynode@?$_Tree_unchecked_const_iterator@V?$_Tree_val@V?$_Tmap_traits@HPAUGAMESHOP_PACKAGE_DATA@@U?$less@H@std@@V?$allocator@U?$pair@$$CBHPAUGAMESHOP_PACKAGE_DATA@@@std@@@3@$0A@@std@@@std@@U_Iterator_base0@2@@std@@QBEPAU_Node@?$_Tree_nod@V?$_Tmap_traits@HPAUGAMESHOP_PACKAGE_DATA@@U?$less@H@std@@V?$allocator@U?$pair@$$CBHPAUGAMESHOP_PACKAGE_DATA@@@std@@@3@$0A@@std@@@2@XZ ENDP ; std::_Tree_unchecked_const_iterator<std::_Tree_val<std::_Tmap_traits<int,GAMESHOP_PACKAGE_DATA *,std::less<int>,std::allocator<std::pair<int const ,GAMESHOP_PACKAGE_DATA *> >,0> >,std::_Iterator_base0>::_Mynode
_TEXT	ENDS
PUBLIC	?_Isnil@?$_Tree_val@V?$_Tmap_traits@HPAUGAMESHOP_ITEM_DATA@@U?$less@H@std@@V?$allocator@U?$pair@$$CBHPAUGAMESHOP_ITEM_DATA@@@std@@@3@$0A@@std@@@std@@SAAADPAU_Node@?$_Tree_nod@V?$_Tmap_traits@HPAUGAMESHOP_ITEM_DATA@@U?$less@H@std@@V?$allocator@U?$pair@$$CBHPAUGAMESHOP_ITEM_DATA@@@std@@@3@$0A@@std@@@2@@Z ; std::_Tree_val<std::_Tmap_traits<int,GAMESHOP_ITEM_DATA *,std::less<int>,std::allocator<std::pair<int const ,GAMESHOP_ITEM_DATA *> >,0> >::_Isnil
; Function compile flags: /Ogtp
;	COMDAT ?_Isnil@?$_Tree_val@V?$_Tmap_traits@HPAUGAMESHOP_ITEM_DATA@@U?$less@H@std@@V?$allocator@U?$pair@$$CBHPAUGAMESHOP_ITEM_DATA@@@std@@@3@$0A@@std@@@std@@SAAADPAU_Node@?$_Tree_nod@V?$_Tmap_traits@HPAUGAMESHOP_ITEM_DATA@@U?$less@H@std@@V?$allocator@U?$pair@$$CBHPAUGAMESHOP_ITEM_DATA@@@std@@@3@$0A@@std@@@2@@Z
_TEXT	SEGMENT
__Pnode$ = 8						; size = 4
?_Isnil@?$_Tree_val@V?$_Tmap_traits@HPAUGAMESHOP_ITEM_DATA@@U?$less@H@std@@V?$allocator@U?$pair@$$CBHPAUGAMESHOP_ITEM_DATA@@@std@@@3@$0A@@std@@@std@@SAAADPAU_Node@?$_Tree_nod@V?$_Tmap_traits@HPAUGAMESHOP_ITEM_DATA@@U?$less@H@std@@V?$allocator@U?$pair@$$CBHPAUGAMESHOP_ITEM_DATA@@@std@@@3@$0A@@std@@@2@@Z PROC ; std::_Tree_val<std::_Tmap_traits<int,GAMESHOP_ITEM_DATA *,std::less<int>,std::allocator<std::pair<int const ,GAMESHOP_ITEM_DATA *> >,0> >::_Isnil, COMDAT

; 611  : 		{	// return reference to nil flag in node

  00000	55		 push	 ebp
  00001	8b ec		 mov	 ebp, esp

; 612  : 		return ((char&)(*_Pnode)._Isnil);

  00003	8b 45 08	 mov	 eax, DWORD PTR __Pnode$[ebp]
  00006	83 c0 15	 add	 eax, 21			; 00000015H

; 613  : 		}

  00009	5d		 pop	 ebp
  0000a	c3		 ret	 0
?_Isnil@?$_Tree_val@V?$_Tmap_traits@HPAUGAMESHOP_ITEM_DATA@@U?$less@H@std@@V?$allocator@U?$pair@$$CBHPAUGAMESHOP_ITEM_DATA@@@std@@@3@$0A@@std@@@std@@SAAADPAU_Node@?$_Tree_nod@V?$_Tmap_traits@HPAUGAMESHOP_ITEM_DATA@@U?$less@H@std@@V?$allocator@U?$pair@$$CBHPAUGAMESHOP_ITEM_DATA@@@std@@@3@$0A@@std@@@2@@Z ENDP ; std::_Tree_val<std::_Tmap_traits<int,GAMESHOP_ITEM_DATA *,std::less<int>,std::allocator<std::pair<int const ,GAMESHOP_ITEM_DATA *> >,0> >::_Isnil
_TEXT	ENDS
PUBLIC	?_Left@?$_Tree_val@V?$_Tmap_traits@HPAUGAMESHOP_ITEM_DATA@@U?$less@H@std@@V?$allocator@U?$pair@$$CBHPAUGAMESHOP_ITEM_DATA@@@std@@@3@$0A@@std@@@std@@SAAAPAU_Node@?$_Tree_nod@V?$_Tmap_traits@HPAUGAMESHOP_ITEM_DATA@@U?$less@H@std@@V?$allocator@U?$pair@$$CBHPAUGAMESHOP_ITEM_DATA@@@std@@@3@$0A@@std@@@2@PAU342@@Z ; std::_Tree_val<std::_Tmap_traits<int,GAMESHOP_ITEM_DATA *,std::less<int>,std::allocator<std::pair<int const ,GAMESHOP_ITEM_DATA *> >,0> >::_Left
; Function compile flags: /Ogtp
;	COMDAT ?_Left@?$_Tree_val@V?$_Tmap_traits@HPAUGAMESHOP_ITEM_DATA@@U?$less@H@std@@V?$allocator@U?$pair@$$CBHPAUGAMESHOP_ITEM_DATA@@@std@@@3@$0A@@std@@@std@@SAAAPAU_Node@?$_Tree_nod@V?$_Tmap_traits@HPAUGAMESHOP_ITEM_DATA@@U?$less@H@std@@V?$allocator@U?$pair@$$CBHPAUGAMESHOP_ITEM_DATA@@@std@@@3@$0A@@std@@@2@PAU342@@Z
_TEXT	SEGMENT
__Pnode$ = 8						; size = 4
?_Left@?$_Tree_val@V?$_Tmap_traits@HPAUGAMESHOP_ITEM_DATA@@U?$less@H@std@@V?$allocator@U?$pair@$$CBHPAUGAMESHOP_ITEM_DATA@@@std@@@3@$0A@@std@@@std@@SAAAPAU_Node@?$_Tree_nod@V?$_Tmap_traits@HPAUGAMESHOP_ITEM_DATA@@U?$less@H@std@@V?$allocator@U?$pair@$$CBHPAUGAMESHOP_ITEM_DATA@@@std@@@3@$0A@@std@@@2@PAU342@@Z PROC ; std::_Tree_val<std::_Tmap_traits<int,GAMESHOP_ITEM_DATA *,std::less<int>,std::allocator<std::pair<int const ,GAMESHOP_ITEM_DATA *> >,0> >::_Left, COMDAT

; 621  : 		{	// return reference to left pointer in node

  00000	55		 push	 ebp
  00001	8b ec		 mov	 ebp, esp

; 622  : 		return ((_Nodepref)(*_Pnode)._Left);

  00003	8b 45 08	 mov	 eax, DWORD PTR __Pnode$[ebp]

; 623  : 		}

  00006	5d		 pop	 ebp
  00007	c3		 ret	 0
?_Left@?$_Tree_val@V?$_Tmap_traits@HPAUGAMESHOP_ITEM_DATA@@U?$less@H@std@@V?$allocator@U?$pair@$$CBHPAUGAMESHOP_ITEM_DATA@@@std@@@3@$0A@@std@@@std@@SAAAPAU_Node@?$_Tree_nod@V?$_Tmap_traits@HPAUGAMESHOP_ITEM_DATA@@U?$less@H@std@@V?$allocator@U?$pair@$$CBHPAUGAMESHOP_ITEM_DATA@@@std@@@3@$0A@@std@@@2@PAU342@@Z ENDP ; std::_Tree_val<std::_Tmap_traits<int,GAMESHOP_ITEM_DATA *,std::less<int>,std::allocator<std::pair<int const ,GAMESHOP_ITEM_DATA *> >,0> >::_Left
_TEXT	ENDS
PUBLIC	?_Parent@?$_Tree_val@V?$_Tmap_traits@HPAUGAMESHOP_ITEM_DATA@@U?$less@H@std@@V?$allocator@U?$pair@$$CBHPAUGAMESHOP_ITEM_DATA@@@std@@@3@$0A@@std@@@std@@SAAAPAU_Node@?$_Tree_nod@V?$_Tmap_traits@HPAUGAMESHOP_ITEM_DATA@@U?$less@H@std@@V?$allocator@U?$pair@$$CBHPAUGAMESHOP_ITEM_DATA@@@std@@@3@$0A@@std@@@2@PAU342@@Z ; std::_Tree_val<std::_Tmap_traits<int,GAMESHOP_ITEM_DATA *,std::less<int>,std::allocator<std::pair<int const ,GAMESHOP_ITEM_DATA *> >,0> >::_Parent
; Function compile flags: /Ogtp
;	COMDAT ?_Parent@?$_Tree_val@V?$_Tmap_traits@HPAUGAMESHOP_ITEM_DATA@@U?$less@H@std@@V?$allocator@U?$pair@$$CBHPAUGAMESHOP_ITEM_DATA@@@std@@@3@$0A@@std@@@std@@SAAAPAU_Node@?$_Tree_nod@V?$_Tmap_traits@HPAUGAMESHOP_ITEM_DATA@@U?$less@H@std@@V?$allocator@U?$pair@$$CBHPAUGAMESHOP_ITEM_DATA@@@std@@@3@$0A@@std@@@2@PAU342@@Z
_TEXT	SEGMENT
__Pnode$ = 8						; size = 4
?_Parent@?$_Tree_val@V?$_Tmap_traits@HPAUGAMESHOP_ITEM_DATA@@U?$less@H@std@@V?$allocator@U?$pair@$$CBHPAUGAMESHOP_ITEM_DATA@@@std@@@3@$0A@@std@@@std@@SAAAPAU_Node@?$_Tree_nod@V?$_Tmap_traits@HPAUGAMESHOP_ITEM_DATA@@U?$less@H@std@@V?$allocator@U?$pair@$$CBHPAUGAMESHOP_ITEM_DATA@@@std@@@3@$0A@@std@@@2@PAU342@@Z PROC ; std::_Tree_val<std::_Tmap_traits<int,GAMESHOP_ITEM_DATA *,std::less<int>,std::allocator<std::pair<int const ,GAMESHOP_ITEM_DATA *> >,0> >::_Parent, COMDAT

; 626  : 		{	// return reference to parent pointer in node

  00000	55		 push	 ebp
  00001	8b ec		 mov	 ebp, esp

; 627  : 		return ((_Nodepref)(*_Pnode)._Parent);

  00003	8b 45 08	 mov	 eax, DWORD PTR __Pnode$[ebp]
  00006	83 c0 04	 add	 eax, 4

; 628  : 		}

  00009	5d		 pop	 ebp
  0000a	c3		 ret	 0
?_Parent@?$_Tree_val@V?$_Tmap_traits@HPAUGAMESHOP_ITEM_DATA@@U?$less@H@std@@V?$allocator@U?$pair@$$CBHPAUGAMESHOP_ITEM_DATA@@@std@@@3@$0A@@std@@@std@@SAAAPAU_Node@?$_Tree_nod@V?$_Tmap_traits@HPAUGAMESHOP_ITEM_DATA@@U?$less@H@std@@V?$allocator@U?$pair@$$CBHPAUGAMESHOP_ITEM_DATA@@@std@@@3@$0A@@std@@@2@PAU342@@Z ENDP ; std::_Tree_val<std::_Tmap_traits<int,GAMESHOP_ITEM_DATA *,std::less<int>,std::allocator<std::pair<int const ,GAMESHOP_ITEM_DATA *> >,0> >::_Parent
_TEXT	ENDS
PUBLIC	?_Right@?$_Tree_val@V?$_Tmap_traits@HPAUGAMESHOP_ITEM_DATA@@U?$less@H@std@@V?$allocator@U?$pair@$$CBHPAUGAMESHOP_ITEM_DATA@@@std@@@3@$0A@@std@@@std@@SAAAPAU_Node@?$_Tree_nod@V?$_Tmap_traits@HPAUGAMESHOP_ITEM_DATA@@U?$less@H@std@@V?$allocator@U?$pair@$$CBHPAUGAMESHOP_ITEM_DATA@@@std@@@3@$0A@@std@@@2@PAU342@@Z ; std::_Tree_val<std::_Tmap_traits<int,GAMESHOP_ITEM_DATA *,std::less<int>,std::allocator<std::pair<int const ,GAMESHOP_ITEM_DATA *> >,0> >::_Right
; Function compile flags: /Ogtp
;	COMDAT ?_Right@?$_Tree_val@V?$_Tmap_traits@HPAUGAMESHOP_ITEM_DATA@@U?$less@H@std@@V?$allocator@U?$pair@$$CBHPAUGAMESHOP_ITEM_DATA@@@std@@@3@$0A@@std@@@std@@SAAAPAU_Node@?$_Tree_nod@V?$_Tmap_traits@HPAUGAMESHOP_ITEM_DATA@@U?$less@H@std@@V?$allocator@U?$pair@$$CBHPAUGAMESHOP_ITEM_DATA@@@std@@@3@$0A@@std@@@2@PAU342@@Z
_TEXT	SEGMENT
__Pnode$ = 8						; size = 4
?_Right@?$_Tree_val@V?$_Tmap_traits@HPAUGAMESHOP_ITEM_DATA@@U?$less@H@std@@V?$allocator@U?$pair@$$CBHPAUGAMESHOP_ITEM_DATA@@@std@@@3@$0A@@std@@@std@@SAAAPAU_Node@?$_Tree_nod@V?$_Tmap_traits@HPAUGAMESHOP_ITEM_DATA@@U?$less@H@std@@V?$allocator@U?$pair@$$CBHPAUGAMESHOP_ITEM_DATA@@@std@@@3@$0A@@std@@@2@PAU342@@Z PROC ; std::_Tree_val<std::_Tmap_traits<int,GAMESHOP_ITEM_DATA *,std::less<int>,std::allocator<std::pair<int const ,GAMESHOP_ITEM_DATA *> >,0> >::_Right, COMDAT

; 631  : 		{	// return reference to right pointer in node

  00000	55		 push	 ebp
  00001	8b ec		 mov	 ebp, esp

; 632  : 		return ((_Nodepref)(*_Pnode)._Right);

  00003	8b 45 08	 mov	 eax, DWORD PTR __Pnode$[ebp]
  00006	83 c0 08	 add	 eax, 8

; 633  : 		}

  00009	5d		 pop	 ebp
  0000a	c3		 ret	 0
?_Right@?$_Tree_val@V?$_Tmap_traits@HPAUGAMESHOP_ITEM_DATA@@U?$less@H@std@@V?$allocator@U?$pair@$$CBHPAUGAMESHOP_ITEM_DATA@@@std@@@3@$0A@@std@@@std@@SAAAPAU_Node@?$_Tree_nod@V?$_Tmap_traits@HPAUGAMESHOP_ITEM_DATA@@U?$less@H@std@@V?$allocator@U?$pair@$$CBHPAUGAMESHOP_ITEM_DATA@@@std@@@3@$0A@@std@@@2@PAU342@@Z ENDP ; std::_Tree_val<std::_Tmap_traits<int,GAMESHOP_ITEM_DATA *,std::less<int>,std::allocator<std::pair<int const ,GAMESHOP_ITEM_DATA *> >,0> >::_Right
_TEXT	ENDS
PUBLIC	?_Myval@?$_Tree_val@V?$_Tmap_traits@HPAUGAMESHOP_ITEM_DATA@@U?$less@H@std@@V?$allocator@U?$pair@$$CBHPAUGAMESHOP_ITEM_DATA@@@std@@@3@$0A@@std@@@std@@SAAAU?$pair@$$CBHPAUGAMESHOP_ITEM_DATA@@@2@PAU_Node@?$_Tree_nod@V?$_Tmap_traits@HPAUGAMESHOP_ITEM_DATA@@U?$less@H@std@@V?$allocator@U?$pair@$$CBHPAUGAMESHOP_ITEM_DATA@@@std@@@3@$0A@@std@@@2@@Z ; std::_Tree_val<std::_Tmap_traits<int,GAMESHOP_ITEM_DATA *,std::less<int>,std::allocator<std::pair<int const ,GAMESHOP_ITEM_DATA *> >,0> >::_Myval
; Function compile flags: /Ogtp
;	COMDAT ?_Myval@?$_Tree_val@V?$_Tmap_traits@HPAUGAMESHOP_ITEM_DATA@@U?$less@H@std@@V?$allocator@U?$pair@$$CBHPAUGAMESHOP_ITEM_DATA@@@std@@@3@$0A@@std@@@std@@SAAAU?$pair@$$CBHPAUGAMESHOP_ITEM_DATA@@@2@PAU_Node@?$_Tree_nod@V?$_Tmap_traits@HPAUGAMESHOP_ITEM_DATA@@U?$less@H@std@@V?$allocator@U?$pair@$$CBHPAUGAMESHOP_ITEM_DATA@@@std@@@3@$0A@@std@@@2@@Z
_TEXT	SEGMENT
__Pnode$ = 8						; size = 4
?_Myval@?$_Tree_val@V?$_Tmap_traits@HPAUGAMESHOP_ITEM_DATA@@U?$less@H@std@@V?$allocator@U?$pair@$$CBHPAUGAMESHOP_ITEM_DATA@@@std@@@3@$0A@@std@@@std@@SAAAU?$pair@$$CBHPAUGAMESHOP_ITEM_DATA@@@2@PAU_Node@?$_Tree_nod@V?$_Tmap_traits@HPAUGAMESHOP_ITEM_DATA@@U?$less@H@std@@V?$allocator@U?$pair@$$CBHPAUGAMESHOP_ITEM_DATA@@@std@@@3@$0A@@std@@@2@@Z PROC ; std::_Tree_val<std::_Tmap_traits<int,GAMESHOP_ITEM_DATA *,std::less<int>,std::allocator<std::pair<int const ,GAMESHOP_ITEM_DATA *> >,0> >::_Myval, COMDAT

; 636  : 		{	// return reference to value in node

  00000	55		 push	 ebp
  00001	8b ec		 mov	 ebp, esp

; 637  : 		return ((reference)(*_Pnode)._Myval);

  00003	8b 45 08	 mov	 eax, DWORD PTR __Pnode$[ebp]
  00006	83 c0 0c	 add	 eax, 12			; 0000000cH

; 638  : 		}

  00009	5d		 pop	 ebp
  0000a	c3		 ret	 0
?_Myval@?$_Tree_val@V?$_Tmap_traits@HPAUGAMESHOP_ITEM_DATA@@U?$less@H@std@@V?$allocator@U?$pair@$$CBHPAUGAMESHOP_ITEM_DATA@@@std@@@3@$0A@@std@@@std@@SAAAU?$pair@$$CBHPAUGAMESHOP_ITEM_DATA@@@2@PAU_Node@?$_Tree_nod@V?$_Tmap_traits@HPAUGAMESHOP_ITEM_DATA@@U?$less@H@std@@V?$allocator@U?$pair@$$CBHPAUGAMESHOP_ITEM_DATA@@@std@@@3@$0A@@std@@@2@@Z ENDP ; std::_Tree_val<std::_Tmap_traits<int,GAMESHOP_ITEM_DATA *,std::less<int>,std::allocator<std::pair<int const ,GAMESHOP_ITEM_DATA *> >,0> >::_Myval
_TEXT	ENDS
PUBLIC	??0?$allocator@U?$pair@$$CBHPAUGAMESHOP_ITEM_DATA@@@std@@@std@@QAE@ABV01@@Z ; std::allocator<std::pair<int const ,GAMESHOP_ITEM_DATA *> >::allocator<std::pair<int const ,GAMESHOP_ITEM_DATA *> >
; Function compile flags: /Ogtp
; File d:\program files (x86)\microsoft visual studio 10.0\vc\include\xmemory
;	COMDAT ??0?$allocator@U?$pair@$$CBHPAUGAMESHOP_ITEM_DATA@@@std@@@std@@QAE@ABV01@@Z
_TEXT	SEGMENT
___formal$ = 8						; size = 4
??0?$allocator@U?$pair@$$CBHPAUGAMESHOP_ITEM_DATA@@@std@@@std@@QAE@ABV01@@Z PROC ; std::allocator<std::pair<int const ,GAMESHOP_ITEM_DATA *> >::allocator<std::pair<int const ,GAMESHOP_ITEM_DATA *> >, COMDAT
; _this$ = ecx

; 165  : 	_ALLOCATOR(const _ALLOCATOR<_Ty>&) _THROW0()

  00000	8b c1		 mov	 eax, ecx

; 166  : 		{	// construct by copying (do nothing)
; 167  : 		}

  00002	c2 04 00	 ret	 4
??0?$allocator@U?$pair@$$CBHPAUGAMESHOP_ITEM_DATA@@@std@@@std@@QAE@ABV01@@Z ENDP ; std::allocator<std::pair<int const ,GAMESHOP_ITEM_DATA *> >::allocator<std::pair<int const ,GAMESHOP_ITEM_DATA *> >
_TEXT	ENDS
PUBLIC	?deallocate@?$allocator@U_Node@?$_Tree_nod@V?$_Tmap_traits@HPAUGAMESHOP_ITEM_DATA@@U?$less@H@std@@V?$allocator@U?$pair@$$CBHPAUGAMESHOP_ITEM_DATA@@@std@@@3@$0A@@std@@@std@@@std@@QAEXPAU_Node@?$_Tree_nod@V?$_Tmap_traits@HPAUGAMESHOP_ITEM_DATA@@U?$less@H@std@@V?$allocator@U?$pair@$$CBHPAUGAMESHOP_ITEM_DATA@@@std@@@3@$0A@@std@@@2@I@Z ; std::allocator<std::_Tree_nod<std::_Tmap_traits<int,GAMESHOP_ITEM_DATA *,std::less<int>,std::allocator<std::pair<int const ,GAMESHOP_ITEM_DATA *> >,0> >::_Node>::deallocate
EXTRN	??3@YAXPAX@Z:PROC				; operator delete
; Function compile flags: /Ogtp
;	COMDAT ?deallocate@?$allocator@U_Node@?$_Tree_nod@V?$_Tmap_traits@HPAUGAMESHOP_ITEM_DATA@@U?$less@H@std@@V?$allocator@U?$pair@$$CBHPAUGAMESHOP_ITEM_DATA@@@std@@@3@$0A@@std@@@std@@@std@@QAEXPAU_Node@?$_Tree_nod@V?$_Tmap_traits@HPAUGAMESHOP_ITEM_DATA@@U?$less@H@std@@V?$allocator@U?$pair@$$CBHPAUGAMESHOP_ITEM_DATA@@@std@@@3@$0A@@std@@@2@I@Z
_TEXT	SEGMENT
__Ptr$ = 8						; size = 4
___formal$ = 12						; size = 4
?deallocate@?$allocator@U_Node@?$_Tree_nod@V?$_Tmap_traits@HPAUGAMESHOP_ITEM_DATA@@U?$less@H@std@@V?$allocator@U?$pair@$$CBHPAUGAMESHOP_ITEM_DATA@@@std@@@3@$0A@@std@@@std@@@std@@QAEXPAU_Node@?$_Tree_nod@V?$_Tmap_traits@HPAUGAMESHOP_ITEM_DATA@@U?$less@H@std@@V?$allocator@U?$pair@$$CBHPAUGAMESHOP_ITEM_DATA@@@std@@@3@$0A@@std@@@2@I@Z PROC ; std::allocator<std::_Tree_nod<std::_Tmap_traits<int,GAMESHOP_ITEM_DATA *,std::less<int>,std::allocator<std::pair<int const ,GAMESHOP_ITEM_DATA *> >,0> >::_Node>::deallocate, COMDAT
; _this$ = ecx

; 181  : 		{	// deallocate object at _Ptr, ignore size

  00000	55		 push	 ebp
  00001	8b ec		 mov	 ebp, esp

; 182  : 		::operator delete(_Ptr);

  00003	8b 45 08	 mov	 eax, DWORD PTR __Ptr$[ebp]
  00006	50		 push	 eax
  00007	e8 00 00 00 00	 call	 ??3@YAXPAX@Z		; operator delete
  0000c	83 c4 04	 add	 esp, 4

; 183  : 		}

  0000f	5d		 pop	 ebp
  00010	c2 08 00	 ret	 8
?deallocate@?$allocator@U_Node@?$_Tree_nod@V?$_Tmap_traits@HPAUGAMESHOP_ITEM_DATA@@U?$less@H@std@@V?$allocator@U?$pair@$$CBHPAUGAMESHOP_ITEM_DATA@@@std@@@3@$0A@@std@@@std@@@std@@QAEXPAU_Node@?$_Tree_nod@V?$_Tmap_traits@HPAUGAMESHOP_ITEM_DATA@@U?$less@H@std@@V?$allocator@U?$pair@$$CBHPAUGAMESHOP_ITEM_DATA@@@std@@@3@$0A@@std@@@2@I@Z ENDP ; std::allocator<std::_Tree_nod<std::_Tmap_traits<int,GAMESHOP_ITEM_DATA *,std::less<int>,std::allocator<std::pair<int const ,GAMESHOP_ITEM_DATA *> >,0> >::_Node>::deallocate
_TEXT	ENDS
PUBLIC	?_Isnil@?$_Tree_val@V?$_Tmap_traits@HPAUGAMESHOP_PACKAGE_DATA@@U?$less@H@std@@V?$allocator@U?$pair@$$CBHPAUGAMESHOP_PACKAGE_DATA@@@std@@@3@$0A@@std@@@std@@SAAADPAU_Node@?$_Tree_nod@V?$_Tmap_traits@HPAUGAMESHOP_PACKAGE_DATA@@U?$less@H@std@@V?$allocator@U?$pair@$$CBHPAUGAMESHOP_PACKAGE_DATA@@@std@@@3@$0A@@std@@@2@@Z ; std::_Tree_val<std::_Tmap_traits<int,GAMESHOP_PACKAGE_DATA *,std::less<int>,std::allocator<std::pair<int const ,GAMESHOP_PACKAGE_DATA *> >,0> >::_Isnil
; Function compile flags: /Ogtp
; File d:\program files (x86)\microsoft visual studio 10.0\vc\include\xtree
;	COMDAT ?_Isnil@?$_Tree_val@V?$_Tmap_traits@HPAUGAMESHOP_PACKAGE_DATA@@U?$less@H@std@@V?$allocator@U?$pair@$$CBHPAUGAMESHOP_PACKAGE_DATA@@@std@@@3@$0A@@std@@@std@@SAAADPAU_Node@?$_Tree_nod@V?$_Tmap_traits@HPAUGAMESHOP_PACKAGE_DATA@@U?$less@H@std@@V?$allocator@U?$pair@$$CBHPAUGAMESHOP_PACKAGE_DATA@@@std@@@3@$0A@@std@@@2@@Z
_TEXT	SEGMENT
__Pnode$ = 8						; size = 4
?_Isnil@?$_Tree_val@V?$_Tmap_traits@HPAUGAMESHOP_PACKAGE_DATA@@U?$less@H@std@@V?$allocator@U?$pair@$$CBHPAUGAMESHOP_PACKAGE_DATA@@@std@@@3@$0A@@std@@@std@@SAAADPAU_Node@?$_Tree_nod@V?$_Tmap_traits@HPAUGAMESHOP_PACKAGE_DATA@@U?$less@H@std@@V?$allocator@U?$pair@$$CBHPAUGAMESHOP_PACKAGE_DATA@@@std@@@3@$0A@@std@@@2@@Z PROC ; std::_Tree_val<std::_Tmap_traits<int,GAMESHOP_PACKAGE_DATA *,std::less<int>,std::allocator<std::pair<int const ,GAMESHOP_PACKAGE_DATA *> >,0> >::_Isnil, COMDAT

; 611  : 		{	// return reference to nil flag in node

  00000	55		 push	 ebp
  00001	8b ec		 mov	 ebp, esp

; 612  : 		return ((char&)(*_Pnode)._Isnil);

  00003	8b 45 08	 mov	 eax, DWORD PTR __Pnode$[ebp]
  00006	83 c0 15	 add	 eax, 21			; 00000015H

; 613  : 		}

  00009	5d		 pop	 ebp
  0000a	c3		 ret	 0
?_Isnil@?$_Tree_val@V?$_Tmap_traits@HPAUGAMESHOP_PACKAGE_DATA@@U?$less@H@std@@V?$allocator@U?$pair@$$CBHPAUGAMESHOP_PACKAGE_DATA@@@std@@@3@$0A@@std@@@std@@SAAADPAU_Node@?$_Tree_nod@V?$_Tmap_traits@HPAUGAMESHOP_PACKAGE_DATA@@U?$less@H@std@@V?$allocator@U?$pair@$$CBHPAUGAMESHOP_PACKAGE_DATA@@@std@@@3@$0A@@std@@@2@@Z ENDP ; std::_Tree_val<std::_Tmap_traits<int,GAMESHOP_PACKAGE_DATA *,std::less<int>,std::allocator<std::pair<int const ,GAMESHOP_PACKAGE_DATA *> >,0> >::_Isnil
_TEXT	ENDS
PUBLIC	?_Left@?$_Tree_val@V?$_Tmap_traits@HPAUGAMESHOP_PACKAGE_DATA@@U?$less@H@std@@V?$allocator@U?$pair@$$CBHPAUGAMESHOP_PACKAGE_DATA@@@std@@@3@$0A@@std@@@std@@SAAAPAU_Node@?$_Tree_nod@V?$_Tmap_traits@HPAUGAMESHOP_PACKAGE_DATA@@U?$less@H@std@@V?$allocator@U?$pair@$$CBHPAUGAMESHOP_PACKAGE_DATA@@@std@@@3@$0A@@std@@@2@PAU342@@Z ; std::_Tree_val<std::_Tmap_traits<int,GAMESHOP_PACKAGE_DATA *,std::less<int>,std::allocator<std::pair<int const ,GAMESHOP_PACKAGE_DATA *> >,0> >::_Left
; Function compile flags: /Ogtp
;	COMDAT ?_Left@?$_Tree_val@V?$_Tmap_traits@HPAUGAMESHOP_PACKAGE_DATA@@U?$less@H@std@@V?$allocator@U?$pair@$$CBHPAUGAMESHOP_PACKAGE_DATA@@@std@@@3@$0A@@std@@@std@@SAAAPAU_Node@?$_Tree_nod@V?$_Tmap_traits@HPAUGAMESHOP_PACKAGE_DATA@@U?$less@H@std@@V?$allocator@U?$pair@$$CBHPAUGAMESHOP_PACKAGE_DATA@@@std@@@3@$0A@@std@@@2@PAU342@@Z
_TEXT	SEGMENT
__Pnode$ = 8						; size = 4
?_Left@?$_Tree_val@V?$_Tmap_traits@HPAUGAMESHOP_PACKAGE_DATA@@U?$less@H@std@@V?$allocator@U?$pair@$$CBHPAUGAMESHOP_PACKAGE_DATA@@@std@@@3@$0A@@std@@@std@@SAAAPAU_Node@?$_Tree_nod@V?$_Tmap_traits@HPAUGAMESHOP_PACKAGE_DATA@@U?$less@H@std@@V?$allocator@U?$pair@$$CBHPAUGAMESHOP_PACKAGE_DATA@@@std@@@3@$0A@@std@@@2@PAU342@@Z PROC ; std::_Tree_val<std::_Tmap_traits<int,GAMESHOP_PACKAGE_DATA *,std::less<int>,std::allocator<std::pair<int const ,GAMESHOP_PACKAGE_DATA *> >,0> >::_Left, COMDAT

; 621  : 		{	// return reference to left pointer in node

  00000	55		 push	 ebp
  00001	8b ec		 mov	 ebp, esp

; 622  : 		return ((_Nodepref)(*_Pnode)._Left);

  00003	8b 45 08	 mov	 eax, DWORD PTR __Pnode$[ebp]

; 623  : 		}

  00006	5d		 pop	 ebp
  00007	c3		 ret	 0
?_Left@?$_Tree_val@V?$_Tmap_traits@HPAUGAMESHOP_PACKAGE_DATA@@U?$less@H@std@@V?$allocator@U?$pair@$$CBHPAUGAMESHOP_PACKAGE_DATA@@@std@@@3@$0A@@std@@@std@@SAAAPAU_Node@?$_Tree_nod@V?$_Tmap_traits@HPAUGAMESHOP_PACKAGE_DATA@@U?$less@H@std@@V?$allocator@U?$pair@$$CBHPAUGAMESHOP_PACKAGE_DATA@@@std@@@3@$0A@@std@@@2@PAU342@@Z ENDP ; std::_Tree_val<std::_Tmap_traits<int,GAMESHOP_PACKAGE_DATA *,std::less<int>,std::allocator<std::pair<int const ,GAMESHOP_PACKAGE_DATA *> >,0> >::_Left
_TEXT	ENDS
PUBLIC	?_Parent@?$_Tree_val@V?$_Tmap_traits@HPAUGAMESHOP_PACKAGE_DATA@@U?$less@H@std@@V?$allocator@U?$pair@$$CBHPAUGAMESHOP_PACKAGE_DATA@@@std@@@3@$0A@@std@@@std@@SAAAPAU_Node@?$_Tree_nod@V?$_Tmap_traits@HPAUGAMESHOP_PACKAGE_DATA@@U?$less@H@std@@V?$allocator@U?$pair@$$CBHPAUGAMESHOP_PACKAGE_DATA@@@std@@@3@$0A@@std@@@2@PAU342@@Z ; std::_Tree_val<std::_Tmap_traits<int,GAMESHOP_PACKAGE_DATA *,std::less<int>,std::allocator<std::pair<int const ,GAMESHOP_PACKAGE_DATA *> >,0> >::_Parent
; Function compile flags: /Ogtp
;	COMDAT ?_Parent@?$_Tree_val@V?$_Tmap_traits@HPAUGAMESHOP_PACKAGE_DATA@@U?$less@H@std@@V?$allocator@U?$pair@$$CBHPAUGAMESHOP_PACKAGE_DATA@@@std@@@3@$0A@@std@@@std@@SAAAPAU_Node@?$_Tree_nod@V?$_Tmap_traits@HPAUGAMESHOP_PACKAGE_DATA@@U?$less@H@std@@V?$allocator@U?$pair@$$CBHPAUGAMESHOP_PACKAGE_DATA@@@std@@@3@$0A@@std@@@2@PAU342@@Z
_TEXT	SEGMENT
__Pnode$ = 8						; size = 4
?_Parent@?$_Tree_val@V?$_Tmap_traits@HPAUGAMESHOP_PACKAGE_DATA@@U?$less@H@std@@V?$allocator@U?$pair@$$CBHPAUGAMESHOP_PACKAGE_DATA@@@std@@@3@$0A@@std@@@std@@SAAAPAU_Node@?$_Tree_nod@V?$_Tmap_traits@HPAUGAMESHOP_PACKAGE_DATA@@U?$less@H@std@@V?$allocator@U?$pair@$$CBHPAUGAMESHOP_PACKAGE_DATA@@@std@@@3@$0A@@std@@@2@PAU342@@Z PROC ; std::_Tree_val<std::_Tmap_traits<int,GAMESHOP_PACKAGE_DATA *,std::less<int>,std::allocator<std::pair<int const ,GAMESHOP_PACKAGE_DATA *> >,0> >::_Parent, COMDAT

; 626  : 		{	// return reference to parent pointer in node

  00000	55		 push	 ebp
  00001	8b ec		 mov	 ebp, esp

; 627  : 		return ((_Nodepref)(*_Pnode)._Parent);

  00003	8b 45 08	 mov	 eax, DWORD PTR __Pnode$[ebp]
  00006	83 c0 04	 add	 eax, 4

; 628  : 		}

  00009	5d		 pop	 ebp
  0000a	c3		 ret	 0
?_Parent@?$_Tree_val@V?$_Tmap_traits@HPAUGAMESHOP_PACKAGE_DATA@@U?$less@H@std@@V?$allocator@U?$pair@$$CBHPAUGAMESHOP_PACKAGE_DATA@@@std@@@3@$0A@@std@@@std@@SAAAPAU_Node@?$_Tree_nod@V?$_Tmap_traits@HPAUGAMESHOP_PACKAGE_DATA@@U?$less@H@std@@V?$allocator@U?$pair@$$CBHPAUGAMESHOP_PACKAGE_DATA@@@std@@@3@$0A@@std@@@2@PAU342@@Z ENDP ; std::_Tree_val<std::_Tmap_traits<int,GAMESHOP_PACKAGE_DATA *,std::less<int>,std::allocator<std::pair<int const ,GAMESHOP_PACKAGE_DATA *> >,0> >::_Parent
_TEXT	ENDS
PUBLIC	?_Right@?$_Tree_val@V?$_Tmap_traits@HPAUGAMESHOP_PACKAGE_DATA@@U?$less@H@std@@V?$allocator@U?$pair@$$CBHPAUGAMESHOP_PACKAGE_DATA@@@std@@@3@$0A@@std@@@std@@SAAAPAU_Node@?$_Tree_nod@V?$_Tmap_traits@HPAUGAMESHOP_PACKAGE_DATA@@U?$less@H@std@@V?$allocator@U?$pair@$$CBHPAUGAMESHOP_PACKAGE_DATA@@@std@@@3@$0A@@std@@@2@PAU342@@Z ; std::_Tree_val<std::_Tmap_traits<int,GAMESHOP_PACKAGE_DATA *,std::less<int>,std::allocator<std::pair<int const ,GAMESHOP_PACKAGE_DATA *> >,0> >::_Right
; Function compile flags: /Ogtp
;	COMDAT ?_Right@?$_Tree_val@V?$_Tmap_traits@HPAUGAMESHOP_PACKAGE_DATA@@U?$less@H@std@@V?$allocator@U?$pair@$$CBHPAUGAMESHOP_PACKAGE_DATA@@@std@@@3@$0A@@std@@@std@@SAAAPAU_Node@?$_Tree_nod@V?$_Tmap_traits@HPAUGAMESHOP_PACKAGE_DATA@@U?$less@H@std@@V?$allocator@U?$pair@$$CBHPAUGAMESHOP_PACKAGE_DATA@@@std@@@3@$0A@@std@@@2@PAU342@@Z
_TEXT	SEGMENT
__Pnode$ = 8						; size = 4
?_Right@?$_Tree_val@V?$_Tmap_traits@HPAUGAMESHOP_PACKAGE_DATA@@U?$less@H@std@@V?$allocator@U?$pair@$$CBHPAUGAMESHOP_PACKAGE_DATA@@@std@@@3@$0A@@std@@@std@@SAAAPAU_Node@?$_Tree_nod@V?$_Tmap_traits@HPAUGAMESHOP_PACKAGE_DATA@@U?$less@H@std@@V?$allocator@U?$pair@$$CBHPAUGAMESHOP_PACKAGE_DATA@@@std@@@3@$0A@@std@@@2@PAU342@@Z PROC ; std::_Tree_val<std::_Tmap_traits<int,GAMESHOP_PACKAGE_DATA *,std::less<int>,std::allocator<std::pair<int const ,GAMESHOP_PACKAGE_DATA *> >,0> >::_Right, COMDAT

; 631  : 		{	// return reference to right pointer in node

  00000	55		 push	 ebp
  00001	8b ec		 mov	 ebp, esp

; 632  : 		return ((_Nodepref)(*_Pnode)._Right);

  00003	8b 45 08	 mov	 eax, DWORD PTR __Pnode$[ebp]
  00006	83 c0 08	 add	 eax, 8

; 633  : 		}

  00009	5d		 pop	 ebp
  0000a	c3		 ret	 0
?_Right@?$_Tree_val@V?$_Tmap_traits@HPAUGAMESHOP_PACKAGE_DATA@@U?$less@H@std@@V?$allocator@U?$pair@$$CBHPAUGAMESHOP_PACKAGE_DATA@@@std@@@3@$0A@@std@@@std@@SAAAPAU_Node@?$_Tree_nod@V?$_Tmap_traits@HPAUGAMESHOP_PACKAGE_DATA@@U?$less@H@std@@V?$allocator@U?$pair@$$CBHPAUGAMESHOP_PACKAGE_DATA@@@std@@@3@$0A@@std@@@2@PAU342@@Z ENDP ; std::_Tree_val<std::_Tmap_traits<int,GAMESHOP_PACKAGE_DATA *,std::less<int>,std::allocator<std::pair<int const ,GAMESHOP_PACKAGE_DATA *> >,0> >::_Right
_TEXT	ENDS
PUBLIC	?_Myval@?$_Tree_val@V?$_Tmap_traits@HPAUGAMESHOP_PACKAGE_DATA@@U?$less@H@std@@V?$allocator@U?$pair@$$CBHPAUGAMESHOP_PACKAGE_DATA@@@std@@@3@$0A@@std@@@std@@SAAAU?$pair@$$CBHPAUGAMESHOP_PACKAGE_DATA@@@2@PAU_Node@?$_Tree_nod@V?$_Tmap_traits@HPAUGAMESHOP_PACKAGE_DATA@@U?$less@H@std@@V?$allocator@U?$pair@$$CBHPAUGAMESHOP_PACKAGE_DATA@@@std@@@3@$0A@@std@@@2@@Z ; std::_Tree_val<std::_Tmap_traits<int,GAMESHOP_PACKAGE_DATA *,std::less<int>,std::allocator<std::pair<int const ,GAMESHOP_PACKAGE_DATA *> >,0> >::_Myval
; Function compile flags: /Ogtp
;	COMDAT ?_Myval@?$_Tree_val@V?$_Tmap_traits@HPAUGAMESHOP_PACKAGE_DATA@@U?$less@H@std@@V?$allocator@U?$pair@$$CBHPAUGAMESHOP_PACKAGE_DATA@@@std@@@3@$0A@@std@@@std@@SAAAU?$pair@$$CBHPAUGAMESHOP_PACKAGE_DATA@@@2@PAU_Node@?$_Tree_nod@V?$_Tmap_traits@HPAUGAMESHOP_PACKAGE_DATA@@U?$less@H@std@@V?$allocator@U?$pair@$$CBHPAUGAMESHOP_PACKAGE_DATA@@@std@@@3@$0A@@std@@@2@@Z
_TEXT	SEGMENT
__Pnode$ = 8						; size = 4
?_Myval@?$_Tree_val@V?$_Tmap_traits@HPAUGAMESHOP_PACKAGE_DATA@@U?$less@H@std@@V?$allocator@U?$pair@$$CBHPAUGAMESHOP_PACKAGE_DATA@@@std@@@3@$0A@@std@@@std@@SAAAU?$pair@$$CBHPAUGAMESHOP_PACKAGE_DATA@@@2@PAU_Node@?$_Tree_nod@V?$_Tmap_traits@HPAUGAMESHOP_PACKAGE_DATA@@U?$less@H@std@@V?$allocator@U?$pair@$$CBHPAUGAMESHOP_PACKAGE_DATA@@@std@@@3@$0A@@std@@@2@@Z PROC ; std::_Tree_val<std::_Tmap_traits<int,GAMESHOP_PACKAGE_DATA *,std::less<int>,std::allocator<std::pair<int const ,GAMESHOP_PACKAGE_DATA *> >,0> >::_Myval, COMDAT

; 636  : 		{	// return reference to value in node

  00000	55		 push	 ebp
  00001	8b ec		 mov	 ebp, esp

; 637  : 		return ((reference)(*_Pnode)._Myval);

  00003	8b 45 08	 mov	 eax, DWORD PTR __Pnode$[ebp]
  00006	83 c0 0c	 add	 eax, 12			; 0000000cH

; 638  : 		}

  00009	5d		 pop	 ebp
  0000a	c3		 ret	 0
?_Myval@?$_Tree_val@V?$_Tmap_traits@HPAUGAMESHOP_PACKAGE_DATA@@U?$less@H@std@@V?$allocator@U?$pair@$$CBHPAUGAMESHOP_PACKAGE_DATA@@@std@@@3@$0A@@std@@@std@@SAAAU?$pair@$$CBHPAUGAMESHOP_PACKAGE_DATA@@@2@PAU_Node@?$_Tree_nod@V?$_Tmap_traits@HPAUGAMESHOP_PACKAGE_DATA@@U?$less@H@std@@V?$allocator@U?$pair@$$CBHPAUGAMESHOP_PACKAGE_DATA@@@std@@@3@$0A@@std@@@2@@Z ENDP ; std::_Tree_val<std::_Tmap_traits<int,GAMESHOP_PACKAGE_DATA *,std::less<int>,std::allocator<std::pair<int const ,GAMESHOP_PACKAGE_DATA *> >,0> >::_Myval
_TEXT	ENDS
PUBLIC	??0?$allocator@U?$pair@$$CBHPAUGAMESHOP_PACKAGE_DATA@@@std@@@std@@QAE@ABV01@@Z ; std::allocator<std::pair<int const ,GAMESHOP_PACKAGE_DATA *> >::allocator<std::pair<int const ,GAMESHOP_PACKAGE_DATA *> >
; Function compile flags: /Ogtp
; File d:\program files (x86)\microsoft visual studio 10.0\vc\include\xmemory
;	COMDAT ??0?$allocator@U?$pair@$$CBHPAUGAMESHOP_PACKAGE_DATA@@@std@@@std@@QAE@ABV01@@Z
_TEXT	SEGMENT
___formal$ = 8						; size = 4
??0?$allocator@U?$pair@$$CBHPAUGAMESHOP_PACKAGE_DATA@@@std@@@std@@QAE@ABV01@@Z PROC ; std::allocator<std::pair<int const ,GAMESHOP_PACKAGE_DATA *> >::allocator<std::pair<int const ,GAMESHOP_PACKAGE_DATA *> >, COMDAT
; _this$ = ecx

; 165  : 	_ALLOCATOR(const _ALLOCATOR<_Ty>&) _THROW0()

  00000	8b c1		 mov	 eax, ecx

; 166  : 		{	// construct by copying (do nothing)
; 167  : 		}

  00002	c2 04 00	 ret	 4
??0?$allocator@U?$pair@$$CBHPAUGAMESHOP_PACKAGE_DATA@@@std@@@std@@QAE@ABV01@@Z ENDP ; std::allocator<std::pair<int const ,GAMESHOP_PACKAGE_DATA *> >::allocator<std::pair<int const ,GAMESHOP_PACKAGE_DATA *> >
_TEXT	ENDS
PUBLIC	?deallocate@?$allocator@U_Node@?$_Tree_nod@V?$_Tmap_traits@HPAUGAMESHOP_PACKAGE_DATA@@U?$less@H@std@@V?$allocator@U?$pair@$$CBHPAUGAMESHOP_PACKAGE_DATA@@@std@@@3@$0A@@std@@@std@@@std@@QAEXPAU_Node@?$_Tree_nod@V?$_Tmap_traits@HPAUGAMESHOP_PACKAGE_DATA@@U?$less@H@std@@V?$allocator@U?$pair@$$CBHPAUGAMESHOP_PACKAGE_DATA@@@std@@@3@$0A@@std@@@2@I@Z ; std::allocator<std::_Tree_nod<std::_Tmap_traits<int,GAMESHOP_PACKAGE_DATA *,std::less<int>,std::allocator<std::pair<int const ,GAMESHOP_PACKAGE_DATA *> >,0> >::_Node>::deallocate
; Function compile flags: /Ogtp
;	COMDAT ?deallocate@?$allocator@U_Node@?$_Tree_nod@V?$_Tmap_traits@HPAUGAMESHOP_PACKAGE_DATA@@U?$less@H@std@@V?$allocator@U?$pair@$$CBHPAUGAMESHOP_PACKAGE_DATA@@@std@@@3@$0A@@std@@@std@@@std@@QAEXPAU_Node@?$_Tree_nod@V?$_Tmap_traits@HPAUGAMESHOP_PACKAGE_DATA@@U?$less@H@std@@V?$allocator@U?$pair@$$CBHPAUGAMESHOP_PACKAGE_DATA@@@std@@@3@$0A@@std@@@2@I@Z
_TEXT	SEGMENT
__Ptr$ = 8						; size = 4
___formal$ = 12						; size = 4
?deallocate@?$allocator@U_Node@?$_Tree_nod@V?$_Tmap_traits@HPAUGAMESHOP_PACKAGE_DATA@@U?$less@H@std@@V?$allocator@U?$pair@$$CBHPAUGAMESHOP_PACKAGE_DATA@@@std@@@3@$0A@@std@@@std@@@std@@QAEXPAU_Node@?$_Tree_nod@V?$_Tmap_traits@HPAUGAMESHOP_PACKAGE_DATA@@U?$less@H@std@@V?$allocator@U?$pair@$$CBHPAUGAMESHOP_PACKAGE_DATA@@@std@@@3@$0A@@std@@@2@I@Z PROC ; std::allocator<std::_Tree_nod<std::_Tmap_traits<int,GAMESHOP_PACKAGE_DATA *,std::less<int>,std::allocator<std::pair<int const ,GAMESHOP_PACKAGE_DATA *> >,0> >::_Node>::deallocate, COMDAT
; _this$ = ecx

; 181  : 		{	// deallocate object at _Ptr, ignore size

  00000	55		 push	 ebp
  00001	8b ec		 mov	 ebp, esp

; 182  : 		::operator delete(_Ptr);

  00003	8b 45 08	 mov	 eax, DWORD PTR __Ptr$[ebp]
  00006	50		 push	 eax
  00007	e8 00 00 00 00	 call	 ??3@YAXPAX@Z		; operator delete
  0000c	83 c4 04	 add	 esp, 4

; 183  : 		}

  0000f	5d		 pop	 ebp
  00010	c2 08 00	 ret	 8
?deallocate@?$allocator@U_Node@?$_Tree_nod@V?$_Tmap_traits@HPAUGAMESHOP_PACKAGE_DATA@@U?$less@H@std@@V?$allocator@U?$pair@$$CBHPAUGAMESHOP_PACKAGE_DATA@@@std@@@3@$0A@@std@@@std@@@std@@QAEXPAU_Node@?$_Tree_nod@V?$_Tmap_traits@HPAUGAMESHOP_PACKAGE_DATA@@U?$less@H@std@@V?$allocator@U?$pair@$$CBHPAUGAMESHOP_PACKAGE_DATA@@@std@@@3@$0A@@std@@@2@I@Z ENDP ; std::allocator<std::_Tree_nod<std::_Tmap_traits<int,GAMESHOP_PACKAGE_DATA *,std::less<int>,std::allocator<std::pair<int const ,GAMESHOP_PACKAGE_DATA *> >,0> >::_Node>::deallocate
_TEXT	ENDS
PUBLIC	??D?$_Tree_const_iterator@V?$_Tree_val@V?$_Tmap_traits@HPAUGAMESHOP_ITEM_DATA@@U?$less@H@std@@V?$allocator@U?$pair@$$CBHPAUGAMESHOP_ITEM_DATA@@@std@@@3@$0A@@std@@@std@@@std@@QBEABU?$pair@$$CBHPAUGAMESHOP_ITEM_DATA@@@1@XZ ; std::_Tree_const_iterator<std::_Tree_val<std::_Tmap_traits<int,GAMESHOP_ITEM_DATA *,std::less<int>,std::allocator<std::pair<int const ,GAMESHOP_ITEM_DATA *> >,0> > >::operator*
; Function compile flags: /Ogtp
; File d:\program files (x86)\microsoft visual studio 10.0\vc\include\xtree
;	COMDAT ??D?$_Tree_const_iterator@V?$_Tree_val@V?$_Tmap_traits@HPAUGAMESHOP_ITEM_DATA@@U?$less@H@std@@V?$allocator@U?$pair@$$CBHPAUGAMESHOP_ITEM_DATA@@@std@@@3@$0A@@std@@@std@@@std@@QBEABU?$pair@$$CBHPAUGAMESHOP_ITEM_DATA@@@1@XZ
_TEXT	SEGMENT
??D?$_Tree_const_iterator@V?$_Tree_val@V?$_Tmap_traits@HPAUGAMESHOP_ITEM_DATA@@U?$less@H@std@@V?$allocator@U?$pair@$$CBHPAUGAMESHOP_ITEM_DATA@@@std@@@3@$0A@@std@@@std@@@std@@QBEABU?$pair@$$CBHPAUGAMESHOP_ITEM_DATA@@@1@XZ PROC ; std::_Tree_const_iterator<std::_Tree_val<std::_Tmap_traits<int,GAMESHOP_ITEM_DATA *,std::less<int>,std::allocator<std::pair<int const ,GAMESHOP_ITEM_DATA *> >,0> > >::operator*, COMDAT
; _this$ = ecx

; 231  :  #if _ITERATOR_DEBUG_LEVEL == 2
; 232  : 		if (this->_Getcont() == 0
; 233  : 			|| this->_Ptr == 0
; 234  : 			|| this->_Ptr == ((_Mytree *)this->_Getcont())->_Myhead)
; 235  : 			{	// report error
; 236  : 			_DEBUG_ERROR("map/set iterator not dereferencable");
; 237  : 			_SCL_SECURE_OUT_OF_RANGE;
; 238  : 			}
; 239  : 
; 240  :  #elif _ITERATOR_DEBUG_LEVEL == 1
; 241  : 		_SCL_SECURE_VALIDATE(this->_Getcont() != 0 && this->_Ptr != 0);
; 242  : 		_SCL_SECURE_VALIDATE_RANGE(this->_Ptr !=
; 243  : 			((_Mytree *)this->_Getcont())->_Myhead);
; 244  :  #endif /* _ITERATOR_DEBUG_LEVEL */
; 245  : 
; 246  : 		return (_Mytree::_Myval(this->_Ptr));

  00000	8b 01		 mov	 eax, DWORD PTR [ecx]
  00002	83 c0 0c	 add	 eax, 12			; 0000000cH

; 247  : 		}

  00005	c3		 ret	 0
??D?$_Tree_const_iterator@V?$_Tree_val@V?$_Tmap_traits@HPAUGAMESHOP_ITEM_DATA@@U?$less@H@std@@V?$allocator@U?$pair@$$CBHPAUGAMESHOP_ITEM_DATA@@@std@@@3@$0A@@std@@@std@@@std@@QBEABU?$pair@$$CBHPAUGAMESHOP_ITEM_DATA@@@1@XZ ENDP ; std::_Tree_const_iterator<std::_Tree_val<std::_Tmap_traits<int,GAMESHOP_ITEM_DATA *,std::less<int>,std::allocator<std::pair<int const ,GAMESHOP_ITEM_DATA *> >,0> > >::operator*
_TEXT	ENDS
PUBLIC	??0?$_Tree_unchecked_const_iterator@V?$_Tree_val@V?$_Tmap_traits@HPAUGAMESHOP_ITEM_DATA@@U?$less@H@std@@V?$allocator@U?$pair@$$CBHPAUGAMESHOP_ITEM_DATA@@@std@@@3@$0A@@std@@@std@@U_Iterator_base0@2@@std@@QAE@XZ ; std::_Tree_unchecked_const_iterator<std::_Tree_val<std::_Tmap_traits<int,GAMESHOP_ITEM_DATA *,std::less<int>,std::allocator<std::pair<int const ,GAMESHOP_ITEM_DATA *> >,0> >,std::_Iterator_base0>::_Tree_unchecked_const_iterator<std::_Tree_val<std::_Tmap_traits<int,GAMESHOP_ITEM_DATA *,std::less<int>,std::allocator<std::pair<int const ,GAMESHOP_ITEM_DATA *> >,0> >,std::_Iterator_base0>
; Function compile flags: /Ogtp
;	COMDAT ??0?$_Tree_unchecked_const_iterator@V?$_Tree_val@V?$_Tmap_traits@HPAUGAMESHOP_ITEM_DATA@@U?$less@H@std@@V?$allocator@U?$pair@$$CBHPAUGAMESHOP_ITEM_DATA@@@std@@@3@$0A@@std@@@std@@U_Iterator_base0@2@@std@@QAE@XZ
_TEXT	SEGMENT
??0?$_Tree_unchecked_const_iterator@V?$_Tree_val@V?$_Tmap_traits@HPAUGAMESHOP_ITEM_DATA@@U?$less@H@std@@V?$allocator@U?$pair@$$CBHPAUGAMESHOP_ITEM_DATA@@@std@@@3@$0A@@std@@@std@@U_Iterator_base0@2@@std@@QAE@XZ PROC ; std::_Tree_unchecked_const_iterator<std::_Tree_val<std::_Tmap_traits<int,GAMESHOP_ITEM_DATA *,std::less<int>,std::allocator<std::pair<int const ,GAMESHOP_ITEM_DATA *> >,0> >,std::_Iterator_base0>::_Tree_unchecked_const_iterator<std::_Tree_val<std::_Tmap_traits<int,GAMESHOP_ITEM_DATA *,std::less<int>,std::allocator<std::pair<int const ,GAMESHOP_ITEM_DATA *> >,0> >,std::_Iterator_base0>, COMDAT
; _this$ = ecx

; 38   : 		{	// construct with null node pointer

  00000	8b c1		 mov	 eax, ecx
  00002	c7 00 00 00 00
	00		 mov	 DWORD PTR [eax], 0

; 39   : 		}

  00008	c3		 ret	 0
??0?$_Tree_unchecked_const_iterator@V?$_Tree_val@V?$_Tmap_traits@HPAUGAMESHOP_ITEM_DATA@@U?$less@H@std@@V?$allocator@U?$pair@$$CBHPAUGAMESHOP_ITEM_DATA@@@std@@@3@$0A@@std@@@std@@U_Iterator_base0@2@@std@@QAE@XZ ENDP ; std::_Tree_unchecked_const_iterator<std::_Tree_val<std::_Tmap_traits<int,GAMESHOP_ITEM_DATA *,std::less<int>,std::allocator<std::pair<int const ,GAMESHOP_ITEM_DATA *> >,0> >,std::_Iterator_base0>::_Tree_unchecked_const_iterator<std::_Tree_val<std::_Tmap_traits<int,GAMESHOP_ITEM_DATA *,std::less<int>,std::allocator<std::pair<int const ,GAMESHOP_ITEM_DATA *> >,0> >,std::_Iterator_base0>
_TEXT	ENDS
PUBLIC	??D?$_Tree_const_iterator@V?$_Tree_val@V?$_Tmap_traits@HPAUGAMESHOP_PACKAGE_DATA@@U?$less@H@std@@V?$allocator@U?$pair@$$CBHPAUGAMESHOP_PACKAGE_DATA@@@std@@@3@$0A@@std@@@std@@@std@@QBEABU?$pair@$$CBHPAUGAMESHOP_PACKAGE_DATA@@@1@XZ ; std::_Tree_const_iterator<std::_Tree_val<std::_Tmap_traits<int,GAMESHOP_PACKAGE_DATA *,std::less<int>,std::allocator<std::pair<int const ,GAMESHOP_PACKAGE_DATA *> >,0> > >::operator*
; Function compile flags: /Ogtp
;	COMDAT ??D?$_Tree_const_iterator@V?$_Tree_val@V?$_Tmap_traits@HPAUGAMESHOP_PACKAGE_DATA@@U?$less@H@std@@V?$allocator@U?$pair@$$CBHPAUGAMESHOP_PACKAGE_DATA@@@std@@@3@$0A@@std@@@std@@@std@@QBEABU?$pair@$$CBHPAUGAMESHOP_PACKAGE_DATA@@@1@XZ
_TEXT	SEGMENT
??D?$_Tree_const_iterator@V?$_Tree_val@V?$_Tmap_traits@HPAUGAMESHOP_PACKAGE_DATA@@U?$less@H@std@@V?$allocator@U?$pair@$$CBHPAUGAMESHOP_PACKAGE_DATA@@@std@@@3@$0A@@std@@@std@@@std@@QBEABU?$pair@$$CBHPAUGAMESHOP_PACKAGE_DATA@@@1@XZ PROC ; std::_Tree_const_iterator<std::_Tree_val<std::_Tmap_traits<int,GAMESHOP_PACKAGE_DATA *,std::less<int>,std::allocator<std::pair<int const ,GAMESHOP_PACKAGE_DATA *> >,0> > >::operator*, COMDAT
; _this$ = ecx

; 231  :  #if _ITERATOR_DEBUG_LEVEL == 2
; 232  : 		if (this->_Getcont() == 0
; 233  : 			|| this->_Ptr == 0
; 234  : 			|| this->_Ptr == ((_Mytree *)this->_Getcont())->_Myhead)
; 235  : 			{	// report error
; 236  : 			_DEBUG_ERROR("map/set iterator not dereferencable");
; 237  : 			_SCL_SECURE_OUT_OF_RANGE;
; 238  : 			}
; 239  : 
; 240  :  #elif _ITERATOR_DEBUG_LEVEL == 1
; 241  : 		_SCL_SECURE_VALIDATE(this->_Getcont() != 0 && this->_Ptr != 0);
; 242  : 		_SCL_SECURE_VALIDATE_RANGE(this->_Ptr !=
; 243  : 			((_Mytree *)this->_Getcont())->_Myhead);
; 244  :  #endif /* _ITERATOR_DEBUG_LEVEL */
; 245  : 
; 246  : 		return (_Mytree::_Myval(this->_Ptr));

  00000	8b 01		 mov	 eax, DWORD PTR [ecx]
  00002	83 c0 0c	 add	 eax, 12			; 0000000cH

; 247  : 		}

  00005	c3		 ret	 0
??D?$_Tree_const_iterator@V?$_Tree_val@V?$_Tmap_traits@HPAUGAMESHOP_PACKAGE_DATA@@U?$less@H@std@@V?$allocator@U?$pair@$$CBHPAUGAMESHOP_PACKAGE_DATA@@@std@@@3@$0A@@std@@@std@@@std@@QBEABU?$pair@$$CBHPAUGAMESHOP_PACKAGE_DATA@@@1@XZ ENDP ; std::_Tree_const_iterator<std::_Tree_val<std::_Tmap_traits<int,GAMESHOP_PACKAGE_DATA *,std::less<int>,std::allocator<std::pair<int const ,GAMESHOP_PACKAGE_DATA *> >,0> > >::operator*
_TEXT	ENDS
PUBLIC	??0?$_Tree_unchecked_const_iterator@V?$_Tree_val@V?$_Tmap_traits@HPAUGAMESHOP_PACKAGE_DATA@@U?$less@H@std@@V?$allocator@U?$pair@$$CBHPAUGAMESHOP_PACKAGE_DATA@@@std@@@3@$0A@@std@@@std@@U_Iterator_base0@2@@std@@QAE@XZ ; std::_Tree_unchecked_const_iterator<std::_Tree_val<std::_Tmap_traits<int,GAMESHOP_PACKAGE_DATA *,std::less<int>,std::allocator<std::pair<int const ,GAMESHOP_PACKAGE_DATA *> >,0> >,std::_Iterator_base0>::_Tree_unchecked_const_iterator<std::_Tree_val<std::_Tmap_traits<int,GAMESHOP_PACKAGE_DATA *,std::less<int>,std::allocator<std::pair<int const ,GAMESHOP_PACKAGE_DATA *> >,0> >,std::_Iterator_base0>
; Function compile flags: /Ogtp
;	COMDAT ??0?$_Tree_unchecked_const_iterator@V?$_Tree_val@V?$_Tmap_traits@HPAUGAMESHOP_PACKAGE_DATA@@U?$less@H@std@@V?$allocator@U?$pair@$$CBHPAUGAMESHOP_PACKAGE_DATA@@@std@@@3@$0A@@std@@@std@@U_Iterator_base0@2@@std@@QAE@XZ
_TEXT	SEGMENT
??0?$_Tree_unchecked_const_iterator@V?$_Tree_val@V?$_Tmap_traits@HPAUGAMESHOP_PACKAGE_DATA@@U?$less@H@std@@V?$allocator@U?$pair@$$CBHPAUGAMESHOP_PACKAGE_DATA@@@std@@@3@$0A@@std@@@std@@U_Iterator_base0@2@@std@@QAE@XZ PROC ; std::_Tree_unchecked_const_iterator<std::_Tree_val<std::_Tmap_traits<int,GAMESHOP_PACKAGE_DATA *,std::less<int>,std::allocator<std::pair<int const ,GAMESHOP_PACKAGE_DATA *> >,0> >,std::_Iterator_base0>::_Tree_unchecked_const_iterator<std::_Tree_val<std::_Tmap_traits<int,GAMESHOP_PACKAGE_DATA *,std::less<int>,std::allocator<std::pair<int const ,GAMESHOP_PACKAGE_DATA *> >,0> >,std::_Iterator_base0>, COMDAT
; _this$ = ecx

; 38   : 		{	// construct with null node pointer

  00000	8b c1		 mov	 eax, ecx
  00002	c7 00 00 00 00
	00		 mov	 DWORD PTR [eax], 0

; 39   : 		}

  00008	c3		 ret	 0
??0?$_Tree_unchecked_const_iterator@V?$_Tree_val@V?$_Tmap_traits@HPAUGAMESHOP_PACKAGE_DATA@@U?$less@H@std@@V?$allocator@U?$pair@$$CBHPAUGAMESHOP_PACKAGE_DATA@@@std@@@3@$0A@@std@@@std@@U_Iterator_base0@2@@std@@QAE@XZ ENDP ; std::_Tree_unchecked_const_iterator<std::_Tree_val<std::_Tmap_traits<int,GAMESHOP_PACKAGE_DATA *,std::less<int>,std::allocator<std::pair<int const ,GAMESHOP_PACKAGE_DATA *> >,0> >,std::_Iterator_base0>::_Tree_unchecked_const_iterator<std::_Tree_val<std::_Tmap_traits<int,GAMESHOP_PACKAGE_DATA *,std::less<int>,std::allocator<std::pair<int const ,GAMESHOP_PACKAGE_DATA *> >,0> >,std::_Iterator_base0>
_TEXT	ENDS
PUBLIC	?_Color@?$_Tree_val@V?$_Tmap_traits@HPAUGAMESHOP_ITEM_DATA@@U?$less@H@std@@V?$allocator@U?$pair@$$CBHPAUGAMESHOP_ITEM_DATA@@@std@@@3@$0A@@std@@@std@@SAAADPAU_Node@?$_Tree_nod@V?$_Tmap_traits@HPAUGAMESHOP_ITEM_DATA@@U?$less@H@std@@V?$allocator@U?$pair@$$CBHPAUGAMESHOP_ITEM_DATA@@@std@@@3@$0A@@std@@@2@@Z ; std::_Tree_val<std::_Tmap_traits<int,GAMESHOP_ITEM_DATA *,std::less<int>,std::allocator<std::pair<int const ,GAMESHOP_ITEM_DATA *> >,0> >::_Color
; Function compile flags: /Ogtp
;	COMDAT ?_Color@?$_Tree_val@V?$_Tmap_traits@HPAUGAMESHOP_ITEM_DATA@@U?$less@H@std@@V?$allocator@U?$pair@$$CBHPAUGAMESHOP_ITEM_DATA@@@std@@@3@$0A@@std@@@std@@SAAADPAU_Node@?$_Tree_nod@V?$_Tmap_traits@HPAUGAMESHOP_ITEM_DATA@@U?$less@H@std@@V?$allocator@U?$pair@$$CBHPAUGAMESHOP_ITEM_DATA@@@std@@@3@$0A@@std@@@2@@Z
_TEXT	SEGMENT
__Pnode$ = 8						; size = 4
?_Color@?$_Tree_val@V?$_Tmap_traits@HPAUGAMESHOP_ITEM_DATA@@U?$less@H@std@@V?$allocator@U?$pair@$$CBHPAUGAMESHOP_ITEM_DATA@@@std@@@3@$0A@@std@@@std@@SAAADPAU_Node@?$_Tree_nod@V?$_Tmap_traits@HPAUGAMESHOP_ITEM_DATA@@U?$less@H@std@@V?$allocator@U?$pair@$$CBHPAUGAMESHOP_ITEM_DATA@@@std@@@3@$0A@@std@@@2@@Z PROC ; std::_Tree_val<std::_Tmap_traits<int,GAMESHOP_ITEM_DATA *,std::less<int>,std::allocator<std::pair<int const ,GAMESHOP_ITEM_DATA *> >,0> >::_Color, COMDAT

; 606  : 		{	// return reference to color in node

  00000	55		 push	 ebp
  00001	8b ec		 mov	 ebp, esp

; 607  : 		return ((char&)(*_Pnode)._Color);

  00003	8b 45 08	 mov	 eax, DWORD PTR __Pnode$[ebp]
  00006	83 c0 14	 add	 eax, 20			; 00000014H

; 608  : 		}

  00009	5d		 pop	 ebp
  0000a	c3		 ret	 0
?_Color@?$_Tree_val@V?$_Tmap_traits@HPAUGAMESHOP_ITEM_DATA@@U?$less@H@std@@V?$allocator@U?$pair@$$CBHPAUGAMESHOP_ITEM_DATA@@@std@@@3@$0A@@std@@@std@@SAAADPAU_Node@?$_Tree_nod@V?$_Tmap_traits@HPAUGAMESHOP_ITEM_DATA@@U?$less@H@std@@V?$allocator@U?$pair@$$CBHPAUGAMESHOP_ITEM_DATA@@@std@@@3@$0A@@std@@@2@@Z ENDP ; std::_Tree_val<std::_Tmap_traits<int,GAMESHOP_ITEM_DATA *,std::less<int>,std::allocator<std::pair<int const ,GAMESHOP_ITEM_DATA *> >,0> >::_Color
_TEXT	ENDS
PUBLIC	?_Color@?$_Tree_val@V?$_Tmap_traits@HPAUGAMESHOP_PACKAGE_DATA@@U?$less@H@std@@V?$allocator@U?$pair@$$CBHPAUGAMESHOP_PACKAGE_DATA@@@std@@@3@$0A@@std@@@std@@SAAADPAU_Node@?$_Tree_nod@V?$_Tmap_traits@HPAUGAMESHOP_PACKAGE_DATA@@U?$less@H@std@@V?$allocator@U?$pair@$$CBHPAUGAMESHOP_PACKAGE_DATA@@@std@@@3@$0A@@std@@@2@@Z ; std::_Tree_val<std::_Tmap_traits<int,GAMESHOP_PACKAGE_DATA *,std::less<int>,std::allocator<std::pair<int const ,GAMESHOP_PACKAGE_DATA *> >,0> >::_Color
; Function compile flags: /Ogtp
;	COMDAT ?_Color@?$_Tree_val@V?$_Tmap_traits@HPAUGAMESHOP_PACKAGE_DATA@@U?$less@H@std@@V?$allocator@U?$pair@$$CBHPAUGAMESHOP_PACKAGE_DATA@@@std@@@3@$0A@@std@@@std@@SAAADPAU_Node@?$_Tree_nod@V?$_Tmap_traits@HPAUGAMESHOP_PACKAGE_DATA@@U?$less@H@std@@V?$allocator@U?$pair@$$CBHPAUGAMESHOP_PACKAGE_DATA@@@std@@@3@$0A@@std@@@2@@Z
_TEXT	SEGMENT
__Pnode$ = 8						; size = 4
?_Color@?$_Tree_val@V?$_Tmap_traits@HPAUGAMESHOP_PACKAGE_DATA@@U?$less@H@std@@V?$allocator@U?$pair@$$CBHPAUGAMESHOP_PACKAGE_DATA@@@std@@@3@$0A@@std@@@std@@SAAADPAU_Node@?$_Tree_nod@V?$_Tmap_traits@HPAUGAMESHOP_PACKAGE_DATA@@U?$less@H@std@@V?$allocator@U?$pair@$$CBHPAUGAMESHOP_PACKAGE_DATA@@@std@@@3@$0A@@std@@@2@@Z PROC ; std::_Tree_val<std::_Tmap_traits<int,GAMESHOP_PACKAGE_DATA *,std::less<int>,std::allocator<std::pair<int const ,GAMESHOP_PACKAGE_DATA *> >,0> >::_Color, COMDAT

; 606  : 		{	// return reference to color in node

  00000	55		 push	 ebp
  00001	8b ec		 mov	 ebp, esp

; 607  : 		return ((char&)(*_Pnode)._Color);

  00003	8b 45 08	 mov	 eax, DWORD PTR __Pnode$[ebp]
  00006	83 c0 14	 add	 eax, 20			; 00000014H

; 608  : 		}

  00009	5d		 pop	 ebp
  0000a	c3		 ret	 0
?_Color@?$_Tree_val@V?$_Tmap_traits@HPAUGAMESHOP_PACKAGE_DATA@@U?$less@H@std@@V?$allocator@U?$pair@$$CBHPAUGAMESHOP_PACKAGE_DATA@@@std@@@3@$0A@@std@@@std@@SAAADPAU_Node@?$_Tree_nod@V?$_Tmap_traits@HPAUGAMESHOP_PACKAGE_DATA@@U?$less@H@std@@V?$allocator@U?$pair@$$CBHPAUGAMESHOP_PACKAGE_DATA@@@std@@@3@$0A@@std@@@2@@Z ENDP ; std::_Tree_val<std::_Tmap_traits<int,GAMESHOP_PACKAGE_DATA *,std::less<int>,std::allocator<std::pair<int const ,GAMESHOP_PACKAGE_DATA *> >,0> >::_Color
_TEXT	ENDS
PUBLIC	?_Max@?$_Tree_val@V?$_Tmap_traits@HPAUGAMESHOP_ITEM_DATA@@U?$less@H@std@@V?$allocator@U?$pair@$$CBHPAUGAMESHOP_ITEM_DATA@@@std@@@3@$0A@@std@@@std@@SAPAU_Node@?$_Tree_nod@V?$_Tmap_traits@HPAUGAMESHOP_ITEM_DATA@@U?$less@H@std@@V?$allocator@U?$pair@$$CBHPAUGAMESHOP_ITEM_DATA@@@std@@@3@$0A@@std@@@2@PAU342@@Z ; std::_Tree_val<std::_Tmap_traits<int,GAMESHOP_ITEM_DATA *,std::less<int>,std::allocator<std::pair<int const ,GAMESHOP_ITEM_DATA *> >,0> >::_Max
; Function compile flags: /Ogtp
;	COMDAT ?_Max@?$_Tree_val@V?$_Tmap_traits@HPAUGAMESHOP_ITEM_DATA@@U?$less@H@std@@V?$allocator@U?$pair@$$CBHPAUGAMESHOP_ITEM_DATA@@@std@@@3@$0A@@std@@@std@@SAPAU_Node@?$_Tree_nod@V?$_Tmap_traits@HPAUGAMESHOP_ITEM_DATA@@U?$less@H@std@@V?$allocator@U?$pair@$$CBHPAUGAMESHOP_ITEM_DATA@@@std@@@3@$0A@@std@@@2@PAU342@@Z
_TEXT	SEGMENT
__Pnode$ = 8						; size = 4
?_Max@?$_Tree_val@V?$_Tmap_traits@HPAUGAMESHOP_ITEM_DATA@@U?$less@H@std@@V?$allocator@U?$pair@$$CBHPAUGAMESHOP_ITEM_DATA@@@std@@@3@$0A@@std@@@std@@SAPAU_Node@?$_Tree_nod@V?$_Tmap_traits@HPAUGAMESHOP_ITEM_DATA@@U?$less@H@std@@V?$allocator@U?$pair@$$CBHPAUGAMESHOP_ITEM_DATA@@@std@@@3@$0A@@std@@@2@PAU342@@Z PROC ; std::_Tree_val<std::_Tmap_traits<int,GAMESHOP_ITEM_DATA *,std::less<int>,std::allocator<std::pair<int const ,GAMESHOP_ITEM_DATA *> >,0> >::_Max, COMDAT

; 641  : 		{	// return rightmost node in subtree at _Pnode

  00000	55		 push	 ebp
  00001	8b ec		 mov	 ebp, esp

; 642  : 		while (!_Isnil(_Right(_Pnode)))

  00003	8b 45 08	 mov	 eax, DWORD PTR __Pnode$[ebp]
  00006	8b 48 08	 mov	 ecx, DWORD PTR [eax+8]
  00009	80 79 15 00	 cmp	 BYTE PTR [ecx+21], 0
  0000d	75 0c		 jne	 SHORT $LN1@Max
  0000f	90		 npad	 1
$LL2@Max:

; 643  : 			_Pnode = _Right(_Pnode);

  00010	8b c1		 mov	 eax, ecx
  00012	8b 48 08	 mov	 ecx, DWORD PTR [eax+8]
  00015	80 79 15 00	 cmp	 BYTE PTR [ecx+21], 0
  00019	74 f5		 je	 SHORT $LL2@Max
$LN1@Max:

; 644  : 		return (_Pnode);
; 645  : 		}

  0001b	5d		 pop	 ebp
  0001c	c3		 ret	 0
?_Max@?$_Tree_val@V?$_Tmap_traits@HPAUGAMESHOP_ITEM_DATA@@U?$less@H@std@@V?$allocator@U?$pair@$$CBHPAUGAMESHOP_ITEM_DATA@@@std@@@3@$0A@@std@@@std@@SAPAU_Node@?$_Tree_nod@V?$_Tmap_traits@HPAUGAMESHOP_ITEM_DATA@@U?$less@H@std@@V?$allocator@U?$pair@$$CBHPAUGAMESHOP_ITEM_DATA@@@std@@@3@$0A@@std@@@2@PAU342@@Z ENDP ; std::_Tree_val<std::_Tmap_traits<int,GAMESHOP_ITEM_DATA *,std::less<int>,std::allocator<std::pair<int const ,GAMESHOP_ITEM_DATA *> >,0> >::_Max
_TEXT	ENDS
PUBLIC	?_Min@?$_Tree_val@V?$_Tmap_traits@HPAUGAMESHOP_ITEM_DATA@@U?$less@H@std@@V?$allocator@U?$pair@$$CBHPAUGAMESHOP_ITEM_DATA@@@std@@@3@$0A@@std@@@std@@SAPAU_Node@?$_Tree_nod@V?$_Tmap_traits@HPAUGAMESHOP_ITEM_DATA@@U?$less@H@std@@V?$allocator@U?$pair@$$CBHPAUGAMESHOP_ITEM_DATA@@@std@@@3@$0A@@std@@@2@PAU342@@Z ; std::_Tree_val<std::_Tmap_traits<int,GAMESHOP_ITEM_DATA *,std::less<int>,std::allocator<std::pair<int const ,GAMESHOP_ITEM_DATA *> >,0> >::_Min
; Function compile flags: /Ogtp
;	COMDAT ?_Min@?$_Tree_val@V?$_Tmap_traits@HPAUGAMESHOP_ITEM_DATA@@U?$less@H@std@@V?$allocator@U?$pair@$$CBHPAUGAMESHOP_ITEM_DATA@@@std@@@3@$0A@@std@@@std@@SAPAU_Node@?$_Tree_nod@V?$_Tmap_traits@HPAUGAMESHOP_ITEM_DATA@@U?$less@H@std@@V?$allocator@U?$pair@$$CBHPAUGAMESHOP_ITEM_DATA@@@std@@@3@$0A@@std@@@2@PAU342@@Z
_TEXT	SEGMENT
__Pnode$ = 8						; size = 4
?_Min@?$_Tree_val@V?$_Tmap_traits@HPAUGAMESHOP_ITEM_DATA@@U?$less@H@std@@V?$allocator@U?$pair@$$CBHPAUGAMESHOP_ITEM_DATA@@@std@@@3@$0A@@std@@@std@@SAPAU_Node@?$_Tree_nod@V?$_Tmap_traits@HPAUGAMESHOP_ITEM_DATA@@U?$less@H@std@@V?$allocator@U?$pair@$$CBHPAUGAMESHOP_ITEM_DATA@@@std@@@3@$0A@@std@@@2@PAU342@@Z PROC ; std::_Tree_val<std::_Tmap_traits<int,GAMESHOP_ITEM_DATA *,std::less<int>,std::allocator<std::pair<int const ,GAMESHOP_ITEM_DATA *> >,0> >::_Min, COMDAT

; 648  : 		{	// return leftmost node in subtree at _Pnode

  00000	55		 push	 ebp
  00001	8b ec		 mov	 ebp, esp

; 649  : 		while (!_Isnil(_Left(_Pnode)))

  00003	8b 45 08	 mov	 eax, DWORD PTR __Pnode$[ebp]
  00006	8b 08		 mov	 ecx, DWORD PTR [eax]
  00008	80 79 15 00	 cmp	 BYTE PTR [ecx+21], 0
  0000c	75 0c		 jne	 SHORT $LN1@Min
  0000e	8b ff		 npad	 2
$LL2@Min:

; 650  : 			_Pnode = _Left(_Pnode);

  00010	8b c1		 mov	 eax, ecx
  00012	8b 08		 mov	 ecx, DWORD PTR [eax]
  00014	80 79 15 00	 cmp	 BYTE PTR [ecx+21], 0
  00018	74 f6		 je	 SHORT $LL2@Min
$LN1@Min:

; 651  : 		return (_Pnode);
; 652  : 		}

  0001a	5d		 pop	 ebp
  0001b	c3		 ret	 0
?_Min@?$_Tree_val@V?$_Tmap_traits@HPAUGAMESHOP_ITEM_DATA@@U?$less@H@std@@V?$allocator@U?$pair@$$CBHPAUGAMESHOP_ITEM_DATA@@@std@@@3@$0A@@std@@@std@@SAPAU_Node@?$_Tree_nod@V?$_Tmap_traits@HPAUGAMESHOP_ITEM_DATA@@U?$less@H@std@@V?$allocator@U?$pair@$$CBHPAUGAMESHOP_ITEM_DATA@@@std@@@3@$0A@@std@@@2@PAU342@@Z ENDP ; std::_Tree_val<std::_Tmap_traits<int,GAMESHOP_ITEM_DATA *,std::less<int>,std::allocator<std::pair<int const ,GAMESHOP_ITEM_DATA *> >,0> >::_Min
_TEXT	ENDS
PUBLIC	??0?$_Tmap_traits@HPAUGAMESHOP_ITEM_DATA@@U?$less@H@std@@V?$allocator@U?$pair@$$CBHPAUGAMESHOP_ITEM_DATA@@@std@@@3@$0A@@std@@QAE@U?$less@H@1@@Z ; std::_Tmap_traits<int,GAMESHOP_ITEM_DATA *,std::less<int>,std::allocator<std::pair<int const ,GAMESHOP_ITEM_DATA *> >,0>::_Tmap_traits<int,GAMESHOP_ITEM_DATA *,std::less<int>,std::allocator<std::pair<int const ,GAMESHOP_ITEM_DATA *> >,0>
; Function compile flags: /Ogtp
; File d:\program files (x86)\microsoft visual studio 10.0\vc\include\map
;	COMDAT ??0?$_Tmap_traits@HPAUGAMESHOP_ITEM_DATA@@U?$less@H@std@@V?$allocator@U?$pair@$$CBHPAUGAMESHOP_ITEM_DATA@@@std@@@3@$0A@@std@@QAE@U?$less@H@1@@Z
_TEXT	SEGMENT
__Parg$ = 8						; size = 1
??0?$_Tmap_traits@HPAUGAMESHOP_ITEM_DATA@@U?$less@H@std@@V?$allocator@U?$pair@$$CBHPAUGAMESHOP_ITEM_DATA@@@std@@@3@$0A@@std@@QAE@U?$less@H@1@@Z PROC ; std::_Tmap_traits<int,GAMESHOP_ITEM_DATA *,std::less<int>,std::allocator<std::pair<int const ,GAMESHOP_ITEM_DATA *> >,0>::_Tmap_traits<int,GAMESHOP_ITEM_DATA *,std::less<int>,std::allocator<std::pair<int const ,GAMESHOP_ITEM_DATA *> >,0>, COMDAT
; _this$ = ecx

; 40   : 		{	// construct with specified comparator

  00000	8b c1		 mov	 eax, ecx

; 41   : 		}

  00002	c2 04 00	 ret	 4
??0?$_Tmap_traits@HPAUGAMESHOP_ITEM_DATA@@U?$less@H@std@@V?$allocator@U?$pair@$$CBHPAUGAMESHOP_ITEM_DATA@@@std@@@3@$0A@@std@@QAE@U?$less@H@1@@Z ENDP ; std::_Tmap_traits<int,GAMESHOP_ITEM_DATA *,std::less<int>,std::allocator<std::pair<int const ,GAMESHOP_ITEM_DATA *> >,0>::_Tmap_traits<int,GAMESHOP_ITEM_DATA *,std::less<int>,std::allocator<std::pair<int const ,GAMESHOP_ITEM_DATA *> >,0>
_TEXT	ENDS
PUBLIC	?_Max@?$_Tree_val@V?$_Tmap_traits@HPAUGAMESHOP_PACKAGE_DATA@@U?$less@H@std@@V?$allocator@U?$pair@$$CBHPAUGAMESHOP_PACKAGE_DATA@@@std@@@3@$0A@@std@@@std@@SAPAU_Node@?$_Tree_nod@V?$_Tmap_traits@HPAUGAMESHOP_PACKAGE_DATA@@U?$less@H@std@@V?$allocator@U?$pair@$$CBHPAUGAMESHOP_PACKAGE_DATA@@@std@@@3@$0A@@std@@@2@PAU342@@Z ; std::_Tree_val<std::_Tmap_traits<int,GAMESHOP_PACKAGE_DATA *,std::less<int>,std::allocator<std::pair<int const ,GAMESHOP_PACKAGE_DATA *> >,0> >::_Max
; Function compile flags: /Ogtp
; File d:\program files (x86)\microsoft visual studio 10.0\vc\include\xtree
;	COMDAT ?_Max@?$_Tree_val@V?$_Tmap_traits@HPAUGAMESHOP_PACKAGE_DATA@@U?$less@H@std@@V?$allocator@U?$pair@$$CBHPAUGAMESHOP_PACKAGE_DATA@@@std@@@3@$0A@@std@@@std@@SAPAU_Node@?$_Tree_nod@V?$_Tmap_traits@HPAUGAMESHOP_PACKAGE_DATA@@U?$less@H@std@@V?$allocator@U?$pair@$$CBHPAUGAMESHOP_PACKAGE_DATA@@@std@@@3@$0A@@std@@@2@PAU342@@Z
_TEXT	SEGMENT
__Pnode$ = 8						; size = 4
?_Max@?$_Tree_val@V?$_Tmap_traits@HPAUGAMESHOP_PACKAGE_DATA@@U?$less@H@std@@V?$allocator@U?$pair@$$CBHPAUGAMESHOP_PACKAGE_DATA@@@std@@@3@$0A@@std@@@std@@SAPAU_Node@?$_Tree_nod@V?$_Tmap_traits@HPAUGAMESHOP_PACKAGE_DATA@@U?$less@H@std@@V?$allocator@U?$pair@$$CBHPAUGAMESHOP_PACKAGE_DATA@@@std@@@3@$0A@@std@@@2@PAU342@@Z PROC ; std::_Tree_val<std::_Tmap_traits<int,GAMESHOP_PACKAGE_DATA *,std::less<int>,std::allocator<std::pair<int const ,GAMESHOP_PACKAGE_DATA *> >,0> >::_Max, COMDAT

; 641  : 		{	// return rightmost node in subtree at _Pnode

  00000	55		 push	 ebp
  00001	8b ec		 mov	 ebp, esp

; 642  : 		while (!_Isnil(_Right(_Pnode)))

  00003	8b 45 08	 mov	 eax, DWORD PTR __Pnode$[ebp]
  00006	8b 48 08	 mov	 ecx, DWORD PTR [eax+8]
  00009	80 79 15 00	 cmp	 BYTE PTR [ecx+21], 0
  0000d	75 0c		 jne	 SHORT $LN1@Max@2
  0000f	90		 npad	 1
$LL2@Max@2:

; 643  : 			_Pnode = _Right(_Pnode);

  00010	8b c1		 mov	 eax, ecx
  00012	8b 48 08	 mov	 ecx, DWORD PTR [eax+8]
  00015	80 79 15 00	 cmp	 BYTE PTR [ecx+21], 0
  00019	74 f5		 je	 SHORT $LL2@Max@2
$LN1@Max@2:

; 644  : 		return (_Pnode);
; 645  : 		}

  0001b	5d		 pop	 ebp
  0001c	c3		 ret	 0
?_Max@?$_Tree_val@V?$_Tmap_traits@HPAUGAMESHOP_PACKAGE_DATA@@U?$less@H@std@@V?$allocator@U?$pair@$$CBHPAUGAMESHOP_PACKAGE_DATA@@@std@@@3@$0A@@std@@@std@@SAPAU_Node@?$_Tree_nod@V?$_Tmap_traits@HPAUGAMESHOP_PACKAGE_DATA@@U?$less@H@std@@V?$allocator@U?$pair@$$CBHPAUGAMESHOP_PACKAGE_DATA@@@std@@@3@$0A@@std@@@2@PAU342@@Z ENDP ; std::_Tree_val<std::_Tmap_traits<int,GAMESHOP_PACKAGE_DATA *,std::less<int>,std::allocator<std::pair<int const ,GAMESHOP_PACKAGE_DATA *> >,0> >::_Max
_TEXT	ENDS
PUBLIC	?_Min@?$_Tree_val@V?$_Tmap_traits@HPAUGAMESHOP_PACKAGE_DATA@@U?$less@H@std@@V?$allocator@U?$pair@$$CBHPAUGAMESHOP_PACKAGE_DATA@@@std@@@3@$0A@@std@@@std@@SAPAU_Node@?$_Tree_nod@V?$_Tmap_traits@HPAUGAMESHOP_PACKAGE_DATA@@U?$less@H@std@@V?$allocator@U?$pair@$$CBHPAUGAMESHOP_PACKAGE_DATA@@@std@@@3@$0A@@std@@@2@PAU342@@Z ; std::_Tree_val<std::_Tmap_traits<int,GAMESHOP_PACKAGE_DATA *,std::less<int>,std::allocator<std::pair<int const ,GAMESHOP_PACKAGE_DATA *> >,0> >::_Min
; Function compile flags: /Ogtp
;	COMDAT ?_Min@?$_Tree_val@V?$_Tmap_traits@HPAUGAMESHOP_PACKAGE_DATA@@U?$less@H@std@@V?$allocator@U?$pair@$$CBHPAUGAMESHOP_PACKAGE_DATA@@@std@@@3@$0A@@std@@@std@@SAPAU_Node@?$_Tree_nod@V?$_Tmap_traits@HPAUGAMESHOP_PACKAGE_DATA@@U?$less@H@std@@V?$allocator@U?$pair@$$CBHPAUGAMESHOP_PACKAGE_DATA@@@std@@@3@$0A@@std@@@2@PAU342@@Z
_TEXT	SEGMENT
__Pnode$ = 8						; size = 4
?_Min@?$_Tree_val@V?$_Tmap_traits@HPAUGAMESHOP_PACKAGE_DATA@@U?$less@H@std@@V?$allocator@U?$pair@$$CBHPAUGAMESHOP_PACKAGE_DATA@@@std@@@3@$0A@@std@@@std@@SAPAU_Node@?$_Tree_nod@V?$_Tmap_traits@HPAUGAMESHOP_PACKAGE_DATA@@U?$less@H@std@@V?$allocator@U?$pair@$$CBHPAUGAMESHOP_PACKAGE_DATA@@@std@@@3@$0A@@std@@@2@PAU342@@Z PROC ; std::_Tree_val<std::_Tmap_traits<int,GAMESHOP_PACKAGE_DATA *,std::less<int>,std::allocator<std::pair<int const ,GAMESHOP_PACKAGE_DATA *> >,0> >::_Min, COMDAT

; 648  : 		{	// return leftmost node in subtree at _Pnode

  00000	55		 push	 ebp
  00001	8b ec		 mov	 ebp, esp

; 649  : 		while (!_Isnil(_Left(_Pnode)))

  00003	8b 45 08	 mov	 eax, DWORD PTR __Pnode$[ebp]
  00006	8b 08		 mov	 ecx, DWORD PTR [eax]
  00008	80 79 15 00	 cmp	 BYTE PTR [ecx+21], 0
  0000c	75 0c		 jne	 SHORT $LN1@Min@2
  0000e	8b ff		 npad	 2
$LL2@Min@2:

; 650  : 			_Pnode = _Left(_Pnode);

  00010	8b c1		 mov	 eax, ecx
  00012	8b 08		 mov	 ecx, DWORD PTR [eax]
  00014	80 79 15 00	 cmp	 BYTE PTR [ecx+21], 0
  00018	74 f6		 je	 SHORT $LL2@Min@2
$LN1@Min@2:

; 651  : 		return (_Pnode);
; 652  : 		}

  0001a	5d		 pop	 ebp
  0001b	c3		 ret	 0
?_Min@?$_Tree_val@V?$_Tmap_traits@HPAUGAMESHOP_PACKAGE_DATA@@U?$less@H@std@@V?$allocator@U?$pair@$$CBHPAUGAMESHOP_PACKAGE_DATA@@@std@@@3@$0A@@std@@@std@@SAPAU_Node@?$_Tree_nod@V?$_Tmap_traits@HPAUGAMESHOP_PACKAGE_DATA@@U?$less@H@std@@V?$allocator@U?$pair@$$CBHPAUGAMESHOP_PACKAGE_DATA@@@std@@@3@$0A@@std@@@2@PAU342@@Z ENDP ; std::_Tree_val<std::_Tmap_traits<int,GAMESHOP_PACKAGE_DATA *,std::less<int>,std::allocator<std::pair<int const ,GAMESHOP_PACKAGE_DATA *> >,0> >::_Min
_TEXT	ENDS
PUBLIC	??0?$_Tmap_traits@HPAUGAMESHOP_PACKAGE_DATA@@U?$less@H@std@@V?$allocator@U?$pair@$$CBHPAUGAMESHOP_PACKAGE_DATA@@@std@@@3@$0A@@std@@QAE@U?$less@H@1@@Z ; std::_Tmap_traits<int,GAMESHOP_PACKAGE_DATA *,std::less<int>,std::allocator<std::pair<int const ,GAMESHOP_PACKAGE_DATA *> >,0>::_Tmap_traits<int,GAMESHOP_PACKAGE_DATA *,std::less<int>,std::allocator<std::pair<int const ,GAMESHOP_PACKAGE_DATA *> >,0>
; Function compile flags: /Ogtp
; File d:\program files (x86)\microsoft visual studio 10.0\vc\include\map
;	COMDAT ??0?$_Tmap_traits@HPAUGAMESHOP_PACKAGE_DATA@@U?$less@H@std@@V?$allocator@U?$pair@$$CBHPAUGAMESHOP_PACKAGE_DATA@@@std@@@3@$0A@@std@@QAE@U?$less@H@1@@Z
_TEXT	SEGMENT
__Parg$ = 8						; size = 1
??0?$_Tmap_traits@HPAUGAMESHOP_PACKAGE_DATA@@U?$less@H@std@@V?$allocator@U?$pair@$$CBHPAUGAMESHOP_PACKAGE_DATA@@@std@@@3@$0A@@std@@QAE@U?$less@H@1@@Z PROC ; std::_Tmap_traits<int,GAMESHOP_PACKAGE_DATA *,std::less<int>,std::allocator<std::pair<int const ,GAMESHOP_PACKAGE_DATA *> >,0>::_Tmap_traits<int,GAMESHOP_PACKAGE_DATA *,std::less<int>,std::allocator<std::pair<int const ,GAMESHOP_PACKAGE_DATA *> >,0>, COMDAT
; _this$ = ecx

; 40   : 		{	// construct with specified comparator

  00000	8b c1		 mov	 eax, ecx

; 41   : 		}

  00002	c2 04 00	 ret	 4
??0?$_Tmap_traits@HPAUGAMESHOP_PACKAGE_DATA@@U?$less@H@std@@V?$allocator@U?$pair@$$CBHPAUGAMESHOP_PACKAGE_DATA@@@std@@@3@$0A@@std@@QAE@U?$less@H@1@@Z ENDP ; std::_Tmap_traits<int,GAMESHOP_PACKAGE_DATA *,std::less<int>,std::allocator<std::pair<int const ,GAMESHOP_PACKAGE_DATA *> >,0>::_Tmap_traits<int,GAMESHOP_PACKAGE_DATA *,std::less<int>,std::allocator<std::pair<int const ,GAMESHOP_PACKAGE_DATA *> >,0>
_TEXT	ENDS
PUBLIC	?_Mynode@?$_Tree_unchecked_const_iterator@V?$_Tree_val@V?$_Tmap_traits@HPAUGAMESHOP_ITEM_DATA@@U?$less@H@std@@V?$allocator@U?$pair@$$CBHPAUGAMESHOP_ITEM_DATA@@@std@@@3@$0A@@std@@@std@@U_Iterator_base0@2@@std@@QBEPAU_Node@?$_Tree_nod@V?$_Tmap_traits@HPAUGAMESHOP_ITEM_DATA@@U?$less@H@std@@V?$allocator@U?$pair@$$CBHPAUGAMESHOP_ITEM_DATA@@@std@@@3@$0A@@std@@@2@XZ ; std::_Tree_unchecked_const_iterator<std::_Tree_val<std::_Tmap_traits<int,GAMESHOP_ITEM_DATA *,std::less<int>,std::allocator<std::pair<int const ,GAMESHOP_ITEM_DATA *> >,0> >,std::_Iterator_base0>::_Mynode
; Function compile flags: /Ogtp
; File d:\program files (x86)\microsoft visual studio 10.0\vc\include\xtree
;	COMDAT ?_Mynode@?$_Tree_unchecked_const_iterator@V?$_Tree_val@V?$_Tmap_traits@HPAUGAMESHOP_ITEM_DATA@@U?$less@H@std@@V?$allocator@U?$pair@$$CBHPAUGAMESHOP_ITEM_DATA@@@std@@@3@$0A@@std@@@std@@U_Iterator_base0@2@@std@@QBEPAU_Node@?$_Tree_nod@V?$_Tmap_traits@HPAUGAMESHOP_ITEM_DATA@@U?$less@H@std@@V?$allocator@U?$pair@$$CBHPAUGAMESHOP_ITEM_DATA@@@std@@@3@$0A@@std@@@2@XZ
_TEXT	SEGMENT
?_Mynode@?$_Tree_unchecked_const_iterator@V?$_Tree_val@V?$_Tmap_traits@HPAUGAMESHOP_ITEM_DATA@@U?$less@H@std@@V?$allocator@U?$pair@$$CBHPAUGAMESHOP_ITEM_DATA@@@std@@@3@$0A@@std@@@std@@U_Iterator_base0@2@@std@@QBEPAU_Node@?$_Tree_nod@V?$_Tmap_traits@HPAUGAMESHOP_ITEM_DATA@@U?$less@H@std@@V?$allocator@U?$pair@$$CBHPAUGAMESHOP_ITEM_DATA@@@std@@@3@$0A@@std@@@2@XZ PROC ; std::_Tree_unchecked_const_iterator<std::_Tree_val<std::_Tmap_traits<int,GAMESHOP_ITEM_DATA *,std::less<int>,std::allocator<std::pair<int const ,GAMESHOP_ITEM_DATA *> >,0> >,std::_Iterator_base0>::_Mynode, COMDAT
; _this$ = ecx

; 122  : 		return (_Ptr);

  00000	8b 01		 mov	 eax, DWORD PTR [ecx]

; 123  : 		}

  00002	c3		 ret	 0
?_Mynode@?$_Tree_unchecked_const_iterator@V?$_Tree_val@V?$_Tmap_traits@HPAUGAMESHOP_ITEM_DATA@@U?$less@H@std@@V?$allocator@U?$pair@$$CBHPAUGAMESHOP_ITEM_DATA@@@std@@@3@$0A@@std@@@std@@U_Iterator_base0@2@@std@@QBEPAU_Node@?$_Tree_nod@V?$_Tmap_traits@HPAUGAMESHOP_ITEM_DATA@@U?$less@H@std@@V?$allocator@U?$pair@$$CBHPAUGAMESHOP_ITEM_DATA@@@std@@@3@$0A@@std@@@2@XZ ENDP ; std::_Tree_unchecked_const_iterator<std::_Tree_val<std::_Tmap_traits<int,GAMESHOP_ITEM_DATA *,std::less<int>,std::allocator<std::pair<int const ,GAMESHOP_ITEM_DATA *> >,0> >,std::_Iterator_base0>::_Mynode
_TEXT	ENDS
PUBLIC	??$addressof@U?$pair@$$CBHPAUGAMESHOP_ITEM_DATA@@@std@@@std@@YAPAU?$pair@$$CBHPAUGAMESHOP_ITEM_DATA@@@0@AAU10@@Z ; std::addressof<std::pair<int const ,GAMESHOP_ITEM_DATA *> >
; Function compile flags: /Ogtp
; File d:\program files (x86)\microsoft visual studio 10.0\vc\include\xmemory
;	COMDAT ??$addressof@U?$pair@$$CBHPAUGAMESHOP_ITEM_DATA@@@std@@@std@@YAPAU?$pair@$$CBHPAUGAMESHOP_ITEM_DATA@@@0@AAU10@@Z
_TEXT	SEGMENT
__Val$ = 8						; size = 4
??$addressof@U?$pair@$$CBHPAUGAMESHOP_ITEM_DATA@@@std@@@std@@YAPAU?$pair@$$CBHPAUGAMESHOP_ITEM_DATA@@@0@AAU10@@Z PROC ; std::addressof<std::pair<int const ,GAMESHOP_ITEM_DATA *> >, COMDAT

; 110  : 	{	// return address of _Val

  00000	55		 push	 ebp
  00001	8b ec		 mov	 ebp, esp

; 111  : 	return ((_Ty *) &(char&)_Val);

  00003	8b 45 08	 mov	 eax, DWORD PTR __Val$[ebp]

; 112  : 	}

  00006	5d		 pop	 ebp
  00007	c3		 ret	 0
??$addressof@U?$pair@$$CBHPAUGAMESHOP_ITEM_DATA@@@std@@@std@@YAPAU?$pair@$$CBHPAUGAMESHOP_ITEM_DATA@@@0@AAU10@@Z ENDP ; std::addressof<std::pair<int const ,GAMESHOP_ITEM_DATA *> >
_TEXT	ENDS
PUBLIC	??$addressof@U?$pair@$$CBHPAUGAMESHOP_PACKAGE_DATA@@@std@@@std@@YAPAU?$pair@$$CBHPAUGAMESHOP_PACKAGE_DATA@@@0@AAU10@@Z ; std::addressof<std::pair<int const ,GAMESHOP_PACKAGE_DATA *> >
; Function compile flags: /Ogtp
;	COMDAT ??$addressof@U?$pair@$$CBHPAUGAMESHOP_PACKAGE_DATA@@@std@@@std@@YAPAU?$pair@$$CBHPAUGAMESHOP_PACKAGE_DATA@@@0@AAU10@@Z
_TEXT	SEGMENT
__Val$ = 8						; size = 4
??$addressof@U?$pair@$$CBHPAUGAMESHOP_PACKAGE_DATA@@@std@@@std@@YAPAU?$pair@$$CBHPAUGAMESHOP_PACKAGE_DATA@@@0@AAU10@@Z PROC ; std::addressof<std::pair<int const ,GAMESHOP_PACKAGE_DATA *> >, COMDAT

; 110  : 	{	// return address of _Val

  00000	55		 push	 ebp
  00001	8b ec		 mov	 ebp, esp

; 111  : 	return ((_Ty *) &(char&)_Val);

  00003	8b 45 08	 mov	 eax, DWORD PTR __Val$[ebp]

; 112  : 	}

  00006	5d		 pop	 ebp
  00007	c3		 ret	 0
??$addressof@U?$pair@$$CBHPAUGAMESHOP_PACKAGE_DATA@@@std@@@std@@YAPAU?$pair@$$CBHPAUGAMESHOP_PACKAGE_DATA@@@0@AAU10@@Z ENDP ; std::addressof<std::pair<int const ,GAMESHOP_PACKAGE_DATA *> >
_TEXT	ENDS
PUBLIC	??$_Kfn@$$CBHPAUGAMESHOP_PACKAGE_DATA@@@?$_Tmap_traits@HPAUGAMESHOP_PACKAGE_DATA@@U?$less@H@std@@V?$allocator@U?$pair@$$CBHPAUGAMESHOP_PACKAGE_DATA@@@std@@@3@$0A@@std@@SAABHABU?$pair@$$CBHPAUGAMESHOP_PACKAGE_DATA@@@1@@Z ; std::_Tmap_traits<int,GAMESHOP_PACKAGE_DATA *,std::less<int>,std::allocator<std::pair<int const ,GAMESHOP_PACKAGE_DATA *> >,0>::_Kfn<int const ,GAMESHOP_PACKAGE_DATA *>
; Function compile flags: /Ogtp
; File d:\program files (x86)\microsoft visual studio 10.0\vc\include\map
;	COMDAT ??$_Kfn@$$CBHPAUGAMESHOP_PACKAGE_DATA@@@?$_Tmap_traits@HPAUGAMESHOP_PACKAGE_DATA@@U?$less@H@std@@V?$allocator@U?$pair@$$CBHPAUGAMESHOP_PACKAGE_DATA@@@std@@@3@$0A@@std@@SAABHABU?$pair@$$CBHPAUGAMESHOP_PACKAGE_DATA@@@1@@Z
_TEXT	SEGMENT
__Val$ = 8						; size = 4
??$_Kfn@$$CBHPAUGAMESHOP_PACKAGE_DATA@@@?$_Tmap_traits@HPAUGAMESHOP_PACKAGE_DATA@@U?$less@H@std@@V?$allocator@U?$pair@$$CBHPAUGAMESHOP_PACKAGE_DATA@@@std@@@3@$0A@@std@@SAABHABU?$pair@$$CBHPAUGAMESHOP_PACKAGE_DATA@@@1@@Z PROC ; std::_Tmap_traits<int,GAMESHOP_PACKAGE_DATA *,std::less<int>,std::allocator<std::pair<int const ,GAMESHOP_PACKAGE_DATA *> >,0>::_Kfn<int const ,GAMESHOP_PACKAGE_DATA *>, COMDAT

; 66   : 		static const _Kty& _Kfn(const _STD pair<_Ty1, _Ty2>& _Val)

  00000	55		 push	 ebp
  00001	8b ec		 mov	 ebp, esp

; 67   : 		{	// extract key from element value
; 68   : 		return (_Val.first);

  00003	8b 45 08	 mov	 eax, DWORD PTR __Val$[ebp]

; 69   : 		}

  00006	5d		 pop	 ebp
  00007	c3		 ret	 0
??$_Kfn@$$CBHPAUGAMESHOP_PACKAGE_DATA@@@?$_Tmap_traits@HPAUGAMESHOP_PACKAGE_DATA@@U?$less@H@std@@V?$allocator@U?$pair@$$CBHPAUGAMESHOP_PACKAGE_DATA@@@std@@@3@$0A@@std@@SAABHABU?$pair@$$CBHPAUGAMESHOP_PACKAGE_DATA@@@1@@Z ENDP ; std::_Tmap_traits<int,GAMESHOP_PACKAGE_DATA *,std::less<int>,std::allocator<std::pair<int const ,GAMESHOP_PACKAGE_DATA *> >,0>::_Kfn<int const ,GAMESHOP_PACKAGE_DATA *>
_TEXT	ENDS
PUBLIC	??$move@AAPAUGAMESHOP_PACKAGE_DATA@@@std@@YA$$QAPAUGAMESHOP_PACKAGE_DATA@@AAPAU1@@Z ; std::move<GAMESHOP_PACKAGE_DATA * &>
; Function compile flags: /Ogtp
; File d:\program files (x86)\microsoft visual studio 10.0\vc\include\utility
;	COMDAT ??$move@AAPAUGAMESHOP_PACKAGE_DATA@@@std@@YA$$QAPAUGAMESHOP_PACKAGE_DATA@@AAPAU1@@Z
_TEXT	SEGMENT
__Arg$ = 8						; size = 4
??$move@AAPAUGAMESHOP_PACKAGE_DATA@@@std@@YA$$QAPAUGAMESHOP_PACKAGE_DATA@@AAPAU1@@Z PROC ; std::move<GAMESHOP_PACKAGE_DATA * &>, COMDAT

; 86   : 	{	// forward _Arg as movable

  00000	55		 push	 ebp
  00001	8b ec		 mov	 ebp, esp

; 87   : 	return ((typename tr1::_Remove_reference<_Ty>::_Type&&)_Arg);

  00003	8b 45 08	 mov	 eax, DWORD PTR __Arg$[ebp]

; 88   : 	}

  00006	5d		 pop	 ebp
  00007	c3		 ret	 0
??$move@AAPAUGAMESHOP_PACKAGE_DATA@@@std@@YA$$QAPAUGAMESHOP_PACKAGE_DATA@@AAPAU1@@Z ENDP ; std::move<GAMESHOP_PACKAGE_DATA * &>
_TEXT	ENDS
PUBLIC	??$?0U?$pair@$$CBHPAUGAMESHOP_ITEM_DATA@@@std@@@?$allocator@U_Node@?$_Tree_nod@V?$_Tmap_traits@HPAUGAMESHOP_ITEM_DATA@@U?$less@H@std@@V?$allocator@U?$pair@$$CBHPAUGAMESHOP_ITEM_DATA@@@std@@@3@$0A@@std@@@std@@@std@@QAE@ABV?$allocator@U?$pair@$$CBHPAUGAMESHOP_ITEM_DATA@@@std@@@1@@Z ; std::allocator<std::_Tree_nod<std::_Tmap_traits<int,GAMESHOP_ITEM_DATA *,std::less<int>,std::allocator<std::pair<int const ,GAMESHOP_ITEM_DATA *> >,0> >::_Node>::allocator<std::_Tree_nod<std::_Tmap_traits<int,GAMESHOP_ITEM_DATA *,std::less<int>,std::allocator<std::pair<int const ,GAMESHOP_ITEM_DATA *> >,0> >::_Node><std::pair<int const ,GAMESHOP_ITEM_DATA *> >
; Function compile flags: /Ogtp
; File d:\program files (x86)\microsoft visual studio 10.0\vc\include\xmemory
;	COMDAT ??$?0U?$pair@$$CBHPAUGAMESHOP_ITEM_DATA@@@std@@@?$allocator@U_Node@?$_Tree_nod@V?$_Tmap_traits@HPAUGAMESHOP_ITEM_DATA@@U?$less@H@std@@V?$allocator@U?$pair@$$CBHPAUGAMESHOP_ITEM_DATA@@@std@@@3@$0A@@std@@@std@@@std@@QAE@ABV?$allocator@U?$pair@$$CBHPAUGAMESHOP_ITEM_DATA@@@std@@@1@@Z
_TEXT	SEGMENT
___formal$ = 8						; size = 4
??$?0U?$pair@$$CBHPAUGAMESHOP_ITEM_DATA@@@std@@@?$allocator@U_Node@?$_Tree_nod@V?$_Tmap_traits@HPAUGAMESHOP_ITEM_DATA@@U?$less@H@std@@V?$allocator@U?$pair@$$CBHPAUGAMESHOP_ITEM_DATA@@@std@@@3@$0A@@std@@@std@@@std@@QAE@ABV?$allocator@U?$pair@$$CBHPAUGAMESHOP_ITEM_DATA@@@std@@@1@@Z PROC ; std::allocator<std::_Tree_nod<std::_Tmap_traits<int,GAMESHOP_ITEM_DATA *,std::less<int>,std::allocator<std::pair<int const ,GAMESHOP_ITEM_DATA *> >,0> >::_Node>::allocator<std::_Tree_nod<std::_Tmap_traits<int,GAMESHOP_ITEM_DATA *,std::less<int>,std::allocator<std::pair<int const ,GAMESHOP_ITEM_DATA *> >,0> >::_Node><std::pair<int const ,GAMESHOP_ITEM_DATA *> >, COMDAT
; _this$ = ecx

; 170  : 		_ALLOCATOR(const _ALLOCATOR<_Other>&) _THROW0()

  00000	8b c1		 mov	 eax, ecx

; 171  : 		{	// construct from a related allocator (do nothing)
; 172  : 		}

  00002	c2 04 00	 ret	 4
??$?0U?$pair@$$CBHPAUGAMESHOP_ITEM_DATA@@@std@@@?$allocator@U_Node@?$_Tree_nod@V?$_Tmap_traits@HPAUGAMESHOP_ITEM_DATA@@U?$less@H@std@@V?$allocator@U?$pair@$$CBHPAUGAMESHOP_ITEM_DATA@@@std@@@3@$0A@@std@@@std@@@std@@QAE@ABV?$allocator@U?$pair@$$CBHPAUGAMESHOP_ITEM_DATA@@@std@@@1@@Z ENDP ; std::allocator<std::_Tree_nod<std::_Tmap_traits<int,GAMESHOP_ITEM_DATA *,std::less<int>,std::allocator<std::pair<int const ,GAMESHOP_ITEM_DATA *> >,0> >::_Node>::allocator<std::_Tree_nod<std::_Tmap_traits<int,GAMESHOP_ITEM_DATA *,std::less<int>,std::allocator<std::pair<int const ,GAMESHOP_ITEM_DATA *> >,0> >::_Node><std::pair<int const ,GAMESHOP_ITEM_DATA *> >
_TEXT	ENDS
PUBLIC	??$?0U?$pair@$$CBHPAUGAMESHOP_PACKAGE_DATA@@@std@@@?$allocator@U_Node@?$_Tree_nod@V?$_Tmap_traits@HPAUGAMESHOP_PACKAGE_DATA@@U?$less@H@std@@V?$allocator@U?$pair@$$CBHPAUGAMESHOP_PACKAGE_DATA@@@std@@@3@$0A@@std@@@std@@@std@@QAE@ABV?$allocator@U?$pair@$$CBHPAUGAMESHOP_PACKAGE_DATA@@@std@@@1@@Z ; std::allocator<std::_Tree_nod<std::_Tmap_traits<int,GAMESHOP_PACKAGE_DATA *,std::less<int>,std::allocator<std::pair<int const ,GAMESHOP_PACKAGE_DATA *> >,0> >::_Node>::allocator<std::_Tree_nod<std::_Tmap_traits<int,GAMESHOP_PACKAGE_DATA *,std::less<int>,std::allocator<std::pair<int const ,GAMESHOP_PACKAGE_DATA *> >,0> >::_Node><std::pair<int const ,GAMESHOP_PACKAGE_DATA *> >
; Function compile flags: /Ogtp
;	COMDAT ??$?0U?$pair@$$CBHPAUGAMESHOP_PACKAGE_DATA@@@std@@@?$allocator@U_Node@?$_Tree_nod@V?$_Tmap_traits@HPAUGAMESHOP_PACKAGE_DATA@@U?$less@H@std@@V?$allocator@U?$pair@$$CBHPAUGAMESHOP_PACKAGE_DATA@@@std@@@3@$0A@@std@@@std@@@std@@QAE@ABV?$allocator@U?$pair@$$CBHPAUGAMESHOP_PACKAGE_DATA@@@std@@@1@@Z
_TEXT	SEGMENT
___formal$ = 8						; size = 4
??$?0U?$pair@$$CBHPAUGAMESHOP_PACKAGE_DATA@@@std@@@?$allocator@U_Node@?$_Tree_nod@V?$_Tmap_traits@HPAUGAMESHOP_PACKAGE_DATA@@U?$less@H@std@@V?$allocator@U?$pair@$$CBHPAUGAMESHOP_PACKAGE_DATA@@@std@@@3@$0A@@std@@@std@@@std@@QAE@ABV?$allocator@U?$pair@$$CBHPAUGAMESHOP_PACKAGE_DATA@@@std@@@1@@Z PROC ; std::allocator<std::_Tree_nod<std::_Tmap_traits<int,GAMESHOP_PACKAGE_DATA *,std::less<int>,std::allocator<std::pair<int const ,GAMESHOP_PACKAGE_DATA *> >,0> >::_Node>::allocator<std::_Tree_nod<std::_Tmap_traits<int,GAMESHOP_PACKAGE_DATA *,std::less<int>,std::allocator<std::pair<int const ,GAMESHOP_PACKAGE_DATA *> >,0> >::_Node><std::pair<int const ,GAMESHOP_PACKAGE_DATA *> >, COMDAT
; _this$ = ecx

; 170  : 		_ALLOCATOR(const _ALLOCATOR<_Other>&) _THROW0()

  00000	8b c1		 mov	 eax, ecx

; 171  : 		{	// construct from a related allocator (do nothing)
; 172  : 		}

  00002	c2 04 00	 ret	 4
??$?0U?$pair@$$CBHPAUGAMESHOP_PACKAGE_DATA@@@std@@@?$allocator@U_Node@?$_Tree_nod@V?$_Tmap_traits@HPAUGAMESHOP_PACKAGE_DATA@@U?$less@H@std@@V?$allocator@U?$pair@$$CBHPAUGAMESHOP_PACKAGE_DATA@@@std@@@3@$0A@@std@@@std@@@std@@QAE@ABV?$allocator@U?$pair@$$CBHPAUGAMESHOP_PACKAGE_DATA@@@std@@@1@@Z ENDP ; std::allocator<std::_Tree_nod<std::_Tmap_traits<int,GAMESHOP_PACKAGE_DATA *,std::less<int>,std::allocator<std::pair<int const ,GAMESHOP_PACKAGE_DATA *> >,0> >::_Node>::allocator<std::_Tree_nod<std::_Tmap_traits<int,GAMESHOP_PACKAGE_DATA *,std::less<int>,std::allocator<std::pair<int const ,GAMESHOP_PACKAGE_DATA *> >,0> >::_Node><std::pair<int const ,GAMESHOP_PACKAGE_DATA *> >
_TEXT	ENDS
PUBLIC	?size@?$_Tree@V?$_Tmap_traits@HPAUGAMESHOP_PACKAGE_DATA@@U?$less@H@std@@V?$allocator@U?$pair@$$CBHPAUGAMESHOP_PACKAGE_DATA@@@std@@@3@$0A@@std@@@std@@QBEIXZ ; std::_Tree<std::_Tmap_traits<int,GAMESHOP_PACKAGE_DATA *,std::less<int>,std::allocator<std::pair<int const ,GAMESHOP_PACKAGE_DATA *> >,0> >::size
; Function compile flags: /Ogtp
; File d:\program files (x86)\microsoft visual studio 10.0\vc\include\xtree
;	COMDAT ?size@?$_Tree@V?$_Tmap_traits@HPAUGAMESHOP_PACKAGE_DATA@@U?$less@H@std@@V?$allocator@U?$pair@$$CBHPAUGAMESHOP_PACKAGE_DATA@@@std@@@3@$0A@@std@@@std@@QBEIXZ
_TEXT	SEGMENT
?size@?$_Tree@V?$_Tmap_traits@HPAUGAMESHOP_PACKAGE_DATA@@U?$less@H@std@@V?$allocator@U?$pair@$$CBHPAUGAMESHOP_PACKAGE_DATA@@@std@@@3@$0A@@std@@@std@@QBEIXZ PROC ; std::_Tree<std::_Tmap_traits<int,GAMESHOP_PACKAGE_DATA *,std::less<int>,std::allocator<std::pair<int const ,GAMESHOP_PACKAGE_DATA *> >,0> >::size, COMDAT
; _this$ = ecx

; 869  : 		return (this->_Mysize);

  00000	8b 41 08	 mov	 eax, DWORD PTR [ecx+8]

; 870  : 		}

  00003	c3		 ret	 0
?size@?$_Tree@V?$_Tmap_traits@HPAUGAMESHOP_PACKAGE_DATA@@U?$less@H@std@@V?$allocator@U?$pair@$$CBHPAUGAMESHOP_PACKAGE_DATA@@@std@@@3@$0A@@std@@@std@@QBEIXZ ENDP ; std::_Tree<std::_Tmap_traits<int,GAMESHOP_PACKAGE_DATA *,std::less<int>,std::allocator<std::pair<int const ,GAMESHOP_PACKAGE_DATA *> >,0> >::size
_TEXT	ENDS
PUBLIC	??F?$_Tree_unchecked_const_iterator@V?$_Tree_val@V?$_Tmap_traits@HPAUGAMESHOP_PACKAGE_DATA@@U?$less@H@std@@V?$allocator@U?$pair@$$CBHPAUGAMESHOP_PACKAGE_DATA@@@std@@@3@$0A@@std@@@std@@U_Iterator_base0@2@@std@@QAEAAV01@XZ ; std::_Tree_unchecked_const_iterator<std::_Tree_val<std::_Tmap_traits<int,GAMESHOP_PACKAGE_DATA *,std::less<int>,std::allocator<std::pair<int const ,GAMESHOP_PACKAGE_DATA *> >,0> >,std::_Iterator_base0>::operator--
; Function compile flags: /Ogtp
;	COMDAT ??F?$_Tree_unchecked_const_iterator@V?$_Tree_val@V?$_Tmap_traits@HPAUGAMESHOP_PACKAGE_DATA@@U?$less@H@std@@V?$allocator@U?$pair@$$CBHPAUGAMESHOP_PACKAGE_DATA@@@std@@@3@$0A@@std@@@std@@U_Iterator_base0@2@@std@@QAEAAV01@XZ
_TEXT	SEGMENT
??F?$_Tree_unchecked_const_iterator@V?$_Tree_val@V?$_Tmap_traits@HPAUGAMESHOP_PACKAGE_DATA@@U?$less@H@std@@V?$allocator@U?$pair@$$CBHPAUGAMESHOP_PACKAGE_DATA@@@std@@@3@$0A@@std@@@std@@U_Iterator_base0@2@@std@@QAEAAV01@XZ PROC ; std::_Tree_unchecked_const_iterator<std::_Tree_val<std::_Tmap_traits<int,GAMESHOP_PACKAGE_DATA *,std::less<int>,std::allocator<std::pair<int const ,GAMESHOP_PACKAGE_DATA *> >,0> >,std::_Iterator_base0>::operator--, COMDAT
; _this$ = ecx

; 83   : 		{	// predecrement

  00000	8b c1		 mov	 eax, ecx

; 84   : 		if (_Mytree::_Isnil(_Ptr))

  00002	8b 08		 mov	 ecx, DWORD PTR [eax]
  00004	80 79 15 00	 cmp	 BYTE PTR [ecx+21], 0
  00008	74 06		 je	 SHORT $LN8@operator

; 85   : 			_Ptr = _Mytree::_Right(_Ptr);	// end() ==> rightmost

  0000a	8b 49 08	 mov	 ecx, DWORD PTR [ecx+8]
  0000d	89 08		 mov	 DWORD PTR [eax], ecx

; 99   : 			}
; 100  : 		return (*this);
; 101  : 		}

  0000f	c3		 ret	 0
$LN8@operator:

; 86   : 		else if (!_Mytree::_Isnil(_Mytree::_Left(_Ptr)))

  00010	8b 11		 mov	 edx, DWORD PTR [ecx]
  00012	80 7a 15 00	 cmp	 BYTE PTR [edx+21], 0
  00016	75 17		 jne	 SHORT $LN40@operator

; 87   : 			_Ptr = _Mytree::_Max(
; 88   : 				_Mytree::_Left(_Ptr));	// ==> largest of left subtree

  00018	8b 4a 08	 mov	 ecx, DWORD PTR [edx+8]
  0001b	80 79 15 00	 cmp	 BYTE PTR [ecx+21], 0
  0001f	75 30		 jne	 SHORT $LN21@operator
$LL22@operator:
  00021	8b d1		 mov	 edx, ecx
  00023	8b 4a 08	 mov	 ecx, DWORD PTR [edx+8]
  00026	80 79 15 00	 cmp	 BYTE PTR [ecx+21], 0
  0002a	74 f5		 je	 SHORT $LL22@operator

; 96   : 				;	// begin() shouldn't be decremented, don't move
; 97   : 			else
; 98   : 				_Ptr = _Pnode;	// ==> parent if not head

  0002c	89 10		 mov	 DWORD PTR [eax], edx

; 99   : 			}
; 100  : 		return (*this);
; 101  : 		}

  0002e	c3		 ret	 0
$LN40@operator:

; 89   : 		else
; 90   : 			{	// climb looking for left subtree
; 91   : 			_Nodeptr _Pnode;
; 92   : 			while (!_Mytree::_Isnil(_Pnode = _Mytree::_Parent(_Ptr))
; 93   : 				&& _Ptr == _Mytree::_Left(_Pnode))

  0002f	8b 51 04	 mov	 edx, DWORD PTR [ecx+4]
  00032	80 7a 15 00	 cmp	 BYTE PTR [edx+21], 0
  00036	75 11		 jne	 SHORT $LN3@operator
$LL4@operator:
  00038	8b 08		 mov	 ecx, DWORD PTR [eax]
  0003a	3b 0a		 cmp	 ecx, DWORD PTR [edx]
  0003c	75 0b		 jne	 SHORT $LN3@operator

; 94   : 				_Ptr = _Pnode;	// ==> parent while left subtree

  0003e	89 10		 mov	 DWORD PTR [eax], edx
  00040	8b 52 04	 mov	 edx, DWORD PTR [edx+4]
  00043	80 7a 15 00	 cmp	 BYTE PTR [edx+21], 0
  00047	74 ef		 je	 SHORT $LL4@operator
$LN3@operator:

; 95   : 			if (_Mytree::_Isnil(_Ptr))

  00049	8b 08		 mov	 ecx, DWORD PTR [eax]
  0004b	80 79 15 00	 cmp	 BYTE PTR [ecx+21], 0
  0004f	75 02		 jne	 SHORT $LN1@operator

; 87   : 			_Ptr = _Mytree::_Max(
; 88   : 				_Mytree::_Left(_Ptr));	// ==> largest of left subtree

$LN21@operator:

; 96   : 				;	// begin() shouldn't be decremented, don't move
; 97   : 			else
; 98   : 				_Ptr = _Pnode;	// ==> parent if not head

  00051	89 10		 mov	 DWORD PTR [eax], edx
$LN1@operator:

; 99   : 			}
; 100  : 		return (*this);
; 101  : 		}

  00053	c3		 ret	 0
??F?$_Tree_unchecked_const_iterator@V?$_Tree_val@V?$_Tmap_traits@HPAUGAMESHOP_PACKAGE_DATA@@U?$less@H@std@@V?$allocator@U?$pair@$$CBHPAUGAMESHOP_PACKAGE_DATA@@@std@@@3@$0A@@std@@@std@@U_Iterator_base0@2@@std@@QAEAAV01@XZ ENDP ; std::_Tree_unchecked_const_iterator<std::_Tree_val<std::_Tmap_traits<int,GAMESHOP_PACKAGE_DATA *,std::less<int>,std::allocator<std::pair<int const ,GAMESHOP_PACKAGE_DATA *> >,0> >,std::_Iterator_base0>::operator--
_TEXT	ENDS
PUBLIC	?max_size@?$allocator@U?$pair@$$CBHPAUGAMESHOP_ITEM_DATA@@@std@@@std@@QBEIXZ ; std::allocator<std::pair<int const ,GAMESHOP_ITEM_DATA *> >::max_size
; Function compile flags: /Ogtp
; File d:\program files (x86)\microsoft visual studio 10.0\vc\include\xmemory
;	COMDAT ?max_size@?$allocator@U?$pair@$$CBHPAUGAMESHOP_ITEM_DATA@@@std@@@std@@QBEIXZ
_TEXT	SEGMENT
?max_size@?$allocator@U?$pair@$$CBHPAUGAMESHOP_ITEM_DATA@@@std@@@std@@QBEIXZ PROC ; std::allocator<std::pair<int const ,GAMESHOP_ITEM_DATA *> >::max_size, COMDAT
; _this$ = ecx

; 218  : 		_SIZT _Count = (_SIZT)(-1) / sizeof (_Ty);
; 219  : 		return (0 < _Count ? _Count : 1);

  00000	b8 ff ff ff 1f	 mov	 eax, 536870911		; 1fffffffH

; 220  : 		}

  00005	c3		 ret	 0
?max_size@?$allocator@U?$pair@$$CBHPAUGAMESHOP_ITEM_DATA@@@std@@@std@@QBEIXZ ENDP ; std::allocator<std::pair<int const ,GAMESHOP_ITEM_DATA *> >::max_size
_TEXT	ENDS
PUBLIC	?max_size@?$allocator@U?$pair@$$CBHPAUGAMESHOP_PACKAGE_DATA@@@std@@@std@@QBEIXZ ; std::allocator<std::pair<int const ,GAMESHOP_PACKAGE_DATA *> >::max_size
; Function compile flags: /Ogtp
;	COMDAT ?max_size@?$allocator@U?$pair@$$CBHPAUGAMESHOP_PACKAGE_DATA@@@std@@@std@@QBEIXZ
_TEXT	SEGMENT
?max_size@?$allocator@U?$pair@$$CBHPAUGAMESHOP_PACKAGE_DATA@@@std@@@std@@QBEIXZ PROC ; std::allocator<std::pair<int const ,GAMESHOP_PACKAGE_DATA *> >::max_size, COMDAT
; _this$ = ecx

; 218  : 		_SIZT _Count = (_SIZT)(-1) / sizeof (_Ty);
; 219  : 		return (0 < _Count ? _Count : 1);

  00000	b8 ff ff ff 1f	 mov	 eax, 536870911		; 1fffffffH

; 220  : 		}

  00005	c3		 ret	 0
?max_size@?$allocator@U?$pair@$$CBHPAUGAMESHOP_PACKAGE_DATA@@@std@@@std@@QBEIXZ ENDP ; std::allocator<std::pair<int const ,GAMESHOP_PACKAGE_DATA *> >::max_size
_TEXT	ENDS
PUBLIC	??F?$_Tree_unchecked_const_iterator@V?$_Tree_val@V?$_Tmap_traits@HPAUGAMESHOP_ITEM_DATA@@U?$less@H@std@@V?$allocator@U?$pair@$$CBHPAUGAMESHOP_ITEM_DATA@@@std@@@3@$0A@@std@@@std@@U_Iterator_base0@2@@std@@QAEAAV01@XZ ; std::_Tree_unchecked_const_iterator<std::_Tree_val<std::_Tmap_traits<int,GAMESHOP_ITEM_DATA *,std::less<int>,std::allocator<std::pair<int const ,GAMESHOP_ITEM_DATA *> >,0> >,std::_Iterator_base0>::operator--
; Function compile flags: /Ogtp
; File d:\program files (x86)\microsoft visual studio 10.0\vc\include\xtree
;	COMDAT ??F?$_Tree_unchecked_const_iterator@V?$_Tree_val@V?$_Tmap_traits@HPAUGAMESHOP_ITEM_DATA@@U?$less@H@std@@V?$allocator@U?$pair@$$CBHPAUGAMESHOP_ITEM_DATA@@@std@@@3@$0A@@std@@@std@@U_Iterator_base0@2@@std@@QAEAAV01@XZ
_TEXT	SEGMENT
??F?$_Tree_unchecked_const_iterator@V?$_Tree_val@V?$_Tmap_traits@HPAUGAMESHOP_ITEM_DATA@@U?$less@H@std@@V?$allocator@U?$pair@$$CBHPAUGAMESHOP_ITEM_DATA@@@std@@@3@$0A@@std@@@std@@U_Iterator_base0@2@@std@@QAEAAV01@XZ PROC ; std::_Tree_unchecked_const_iterator<std::_Tree_val<std::_Tmap_traits<int,GAMESHOP_ITEM_DATA *,std::less<int>,std::allocator<std::pair<int const ,GAMESHOP_ITEM_DATA *> >,0> >,std::_Iterator_base0>::operator--, COMDAT
; _this$ = ecx

; 83   : 		{	// predecrement

  00000	8b c1		 mov	 eax, ecx

; 84   : 		if (_Mytree::_Isnil(_Ptr))

  00002	8b 08		 mov	 ecx, DWORD PTR [eax]
  00004	80 79 15 00	 cmp	 BYTE PTR [ecx+21], 0
  00008	74 06		 je	 SHORT $LN8@operator@2

; 85   : 			_Ptr = _Mytree::_Right(_Ptr);	// end() ==> rightmost

  0000a	8b 49 08	 mov	 ecx, DWORD PTR [ecx+8]
  0000d	89 08		 mov	 DWORD PTR [eax], ecx

; 99   : 			}
; 100  : 		return (*this);
; 101  : 		}

  0000f	c3		 ret	 0
$LN8@operator@2:

; 86   : 		else if (!_Mytree::_Isnil(_Mytree::_Left(_Ptr)))

  00010	8b 11		 mov	 edx, DWORD PTR [ecx]
  00012	80 7a 15 00	 cmp	 BYTE PTR [edx+21], 0
  00016	75 17		 jne	 SHORT $LN40@operator@2

; 87   : 			_Ptr = _Mytree::_Max(
; 88   : 				_Mytree::_Left(_Ptr));	// ==> largest of left subtree

  00018	8b 4a 08	 mov	 ecx, DWORD PTR [edx+8]
  0001b	80 79 15 00	 cmp	 BYTE PTR [ecx+21], 0
  0001f	75 30		 jne	 SHORT $LN21@operator@2
$LL22@operator@2:
  00021	8b d1		 mov	 edx, ecx
  00023	8b 4a 08	 mov	 ecx, DWORD PTR [edx+8]
  00026	80 79 15 00	 cmp	 BYTE PTR [ecx+21], 0
  0002a	74 f5		 je	 SHORT $LL22@operator@2

; 96   : 				;	// begin() shouldn't be decremented, don't move
; 97   : 			else
; 98   : 				_Ptr = _Pnode;	// ==> parent if not head

  0002c	89 10		 mov	 DWORD PTR [eax], edx

; 99   : 			}
; 100  : 		return (*this);
; 101  : 		}

  0002e	c3		 ret	 0
$LN40@operator@2:

; 89   : 		else
; 90   : 			{	// climb looking for left subtree
; 91   : 			_Nodeptr _Pnode;
; 92   : 			while (!_Mytree::_Isnil(_Pnode = _Mytree::_Parent(_Ptr))
; 93   : 				&& _Ptr == _Mytree::_Left(_Pnode))

  0002f	8b 51 04	 mov	 edx, DWORD PTR [ecx+4]
  00032	80 7a 15 00	 cmp	 BYTE PTR [edx+21], 0
  00036	75 11		 jne	 SHORT $LN3@operator@2
$LL4@operator@2:
  00038	8b 08		 mov	 ecx, DWORD PTR [eax]
  0003a	3b 0a		 cmp	 ecx, DWORD PTR [edx]
  0003c	75 0b		 jne	 SHORT $LN3@operator@2

; 94   : 				_Ptr = _Pnode;	// ==> parent while left subtree

  0003e	89 10		 mov	 DWORD PTR [eax], edx
  00040	8b 52 04	 mov	 edx, DWORD PTR [edx+4]
  00043	80 7a 15 00	 cmp	 BYTE PTR [edx+21], 0
  00047	74 ef		 je	 SHORT $LL4@operator@2
$LN3@operator@2:

; 95   : 			if (_Mytree::_Isnil(_Ptr))

  00049	8b 08		 mov	 ecx, DWORD PTR [eax]
  0004b	80 79 15 00	 cmp	 BYTE PTR [ecx+21], 0
  0004f	75 02		 jne	 SHORT $LN1@operator@2

; 87   : 			_Ptr = _Mytree::_Max(
; 88   : 				_Mytree::_Left(_Ptr));	// ==> largest of left subtree

$LN21@operator@2:

; 96   : 				;	// begin() shouldn't be decremented, don't move
; 97   : 			else
; 98   : 				_Ptr = _Pnode;	// ==> parent if not head

  00051	89 10		 mov	 DWORD PTR [eax], edx
$LN1@operator@2:

; 99   : 			}
; 100  : 		return (*this);
; 101  : 		}

  00053	c3		 ret	 0
??F?$_Tree_unchecked_const_iterator@V?$_Tree_val@V?$_Tmap_traits@HPAUGAMESHOP_ITEM_DATA@@U?$less@H@std@@V?$allocator@U?$pair@$$CBHPAUGAMESHOP_ITEM_DATA@@@std@@@3@$0A@@std@@@std@@U_Iterator_base0@2@@std@@QAEAAV01@XZ ENDP ; std::_Tree_unchecked_const_iterator<std::_Tree_val<std::_Tmap_traits<int,GAMESHOP_ITEM_DATA *,std::less<int>,std::allocator<std::pair<int const ,GAMESHOP_ITEM_DATA *> >,0> >,std::_Iterator_base0>::operator--
_TEXT	ENDS
PUBLIC	??$forward@AAH@std@@YAAAHAAH@Z			; std::forward<int &>
; Function compile flags: /Ogtp
; File d:\program files (x86)\microsoft visual studio 10.0\vc\include\utility
;	COMDAT ??$forward@AAH@std@@YAAAHAAH@Z
_TEXT	SEGMENT
__Arg$ = 8						; size = 4
??$forward@AAH@std@@YAAAHAAH@Z PROC			; std::forward<int &>, COMDAT

; 78   : 	{	// forward _Arg, given explicitly specified type parameter

  00000	55		 push	 ebp
  00001	8b ec		 mov	 ebp, esp

; 79   : 	return ((_Ty&&)_Arg);

  00003	8b 45 08	 mov	 eax, DWORD PTR __Arg$[ebp]

; 80   : 	}

  00006	5d		 pop	 ebp
  00007	c3		 ret	 0
??$forward@AAH@std@@YAAAHAAH@Z ENDP			; std::forward<int &>
_TEXT	ENDS
PUBLIC	??$forward@AAPAUGAMESHOP_ITEM_DATA@@@std@@YAAAPAUGAMESHOP_ITEM_DATA@@AAPAU1@@Z ; std::forward<GAMESHOP_ITEM_DATA * &>
; Function compile flags: /Ogtp
;	COMDAT ??$forward@AAPAUGAMESHOP_ITEM_DATA@@@std@@YAAAPAUGAMESHOP_ITEM_DATA@@AAPAU1@@Z
_TEXT	SEGMENT
__Arg$ = 8						; size = 4
??$forward@AAPAUGAMESHOP_ITEM_DATA@@@std@@YAAAPAUGAMESHOP_ITEM_DATA@@AAPAU1@@Z PROC ; std::forward<GAMESHOP_ITEM_DATA * &>, COMDAT

; 78   : 	{	// forward _Arg, given explicitly specified type parameter

  00000	55		 push	 ebp
  00001	8b ec		 mov	 ebp, esp

; 79   : 	return ((_Ty&&)_Arg);

  00003	8b 45 08	 mov	 eax, DWORD PTR __Arg$[ebp]

; 80   : 	}

  00006	5d		 pop	 ebp
  00007	c3		 ret	 0
??$forward@AAPAUGAMESHOP_ITEM_DATA@@@std@@YAAAPAUGAMESHOP_ITEM_DATA@@AAPAU1@@Z ENDP ; std::forward<GAMESHOP_ITEM_DATA * &>
_TEXT	ENDS
PUBLIC	??$?0AAHAAPAUGAMESHOP_ITEM_DATA@@@?$_Pair_base@HPAUGAMESHOP_ITEM_DATA@@@std@@QAE@AAHAAPAUGAMESHOP_ITEM_DATA@@@Z ; std::_Pair_base<int,GAMESHOP_ITEM_DATA *>::_Pair_base<int,GAMESHOP_ITEM_DATA *><int &,GAMESHOP_ITEM_DATA * &>
; Function compile flags: /Ogtp
;	COMDAT ??$?0AAHAAPAUGAMESHOP_ITEM_DATA@@@?$_Pair_base@HPAUGAMESHOP_ITEM_DATA@@@std@@QAE@AAHAAPAUGAMESHOP_ITEM_DATA@@@Z
_TEXT	SEGMENT
__Val1$ = 8						; size = 4
__Val2$ = 12						; size = 4
??$?0AAHAAPAUGAMESHOP_ITEM_DATA@@@?$_Pair_base@HPAUGAMESHOP_ITEM_DATA@@@std@@QAE@AAHAAPAUGAMESHOP_ITEM_DATA@@@Z PROC ; std::_Pair_base<int,GAMESHOP_ITEM_DATA *>::_Pair_base<int,GAMESHOP_ITEM_DATA *><int &,GAMESHOP_ITEM_DATA * &>, COMDAT
; _this$ = ecx

; 163  : 		{	// construct from moved values

  00000	55		 push	 ebp
  00001	8b ec		 mov	 ebp, esp
  00003	8b c1		 mov	 eax, ecx
  00005	8b 4d 08	 mov	 ecx, DWORD PTR __Val1$[ebp]
  00008	8b 11		 mov	 edx, DWORD PTR [ecx]
  0000a	8b 4d 0c	 mov	 ecx, DWORD PTR __Val2$[ebp]
  0000d	89 10		 mov	 DWORD PTR [eax], edx
  0000f	8b 11		 mov	 edx, DWORD PTR [ecx]
  00011	89 50 04	 mov	 DWORD PTR [eax+4], edx

; 164  : 		}

  00014	5d		 pop	 ebp
  00015	c2 08 00	 ret	 8
??$?0AAHAAPAUGAMESHOP_ITEM_DATA@@@?$_Pair_base@HPAUGAMESHOP_ITEM_DATA@@@std@@QAE@AAHAAPAUGAMESHOP_ITEM_DATA@@@Z ENDP ; std::_Pair_base<int,GAMESHOP_ITEM_DATA *>::_Pair_base<int,GAMESHOP_ITEM_DATA *><int &,GAMESHOP_ITEM_DATA * &>
_TEXT	ENDS
PUBLIC	??$forward@U?$pair@HPAUGAMESHOP_ITEM_DATA@@@std@@@std@@YA$$QAU?$pair@HPAUGAMESHOP_ITEM_DATA@@@0@AAU10@@Z ; std::forward<std::pair<int,GAMESHOP_ITEM_DATA *> >
; Function compile flags: /Ogtp
;	COMDAT ??$forward@U?$pair@HPAUGAMESHOP_ITEM_DATA@@@std@@@std@@YA$$QAU?$pair@HPAUGAMESHOP_ITEM_DATA@@@0@AAU10@@Z
_TEXT	SEGMENT
__Arg$ = 8						; size = 4
??$forward@U?$pair@HPAUGAMESHOP_ITEM_DATA@@@std@@@std@@YA$$QAU?$pair@HPAUGAMESHOP_ITEM_DATA@@@0@AAU10@@Z PROC ; std::forward<std::pair<int,GAMESHOP_ITEM_DATA *> >, COMDAT

; 78   : 	{	// forward _Arg, given explicitly specified type parameter

  00000	55		 push	 ebp
  00001	8b ec		 mov	 ebp, esp

; 79   : 	return ((_Ty&&)_Arg);

  00003	8b 45 08	 mov	 eax, DWORD PTR __Arg$[ebp]

; 80   : 	}

  00006	5d		 pop	 ebp
  00007	c3		 ret	 0
??$forward@U?$pair@HPAUGAMESHOP_ITEM_DATA@@@std@@@std@@YA$$QAU?$pair@HPAUGAMESHOP_ITEM_DATA@@@0@AAU10@@Z ENDP ; std::forward<std::pair<int,GAMESHOP_ITEM_DATA *> >
_TEXT	ENDS
PUBLIC	??$forward@AAPAUGAMESHOP_PACKAGE_DATA@@@std@@YAAAPAUGAMESHOP_PACKAGE_DATA@@AAPAU1@@Z ; std::forward<GAMESHOP_PACKAGE_DATA * &>
; Function compile flags: /Ogtp
;	COMDAT ??$forward@AAPAUGAMESHOP_PACKAGE_DATA@@@std@@YAAAPAUGAMESHOP_PACKAGE_DATA@@AAPAU1@@Z
_TEXT	SEGMENT
__Arg$ = 8						; size = 4
??$forward@AAPAUGAMESHOP_PACKAGE_DATA@@@std@@YAAAPAUGAMESHOP_PACKAGE_DATA@@AAPAU1@@Z PROC ; std::forward<GAMESHOP_PACKAGE_DATA * &>, COMDAT

; 78   : 	{	// forward _Arg, given explicitly specified type parameter

  00000	55		 push	 ebp
  00001	8b ec		 mov	 ebp, esp

; 79   : 	return ((_Ty&&)_Arg);

  00003	8b 45 08	 mov	 eax, DWORD PTR __Arg$[ebp]

; 80   : 	}

  00006	5d		 pop	 ebp
  00007	c3		 ret	 0
??$forward@AAPAUGAMESHOP_PACKAGE_DATA@@@std@@YAAAPAUGAMESHOP_PACKAGE_DATA@@AAPAU1@@Z ENDP ; std::forward<GAMESHOP_PACKAGE_DATA * &>
_TEXT	ENDS
PUBLIC	??$?0AAHAAPAUGAMESHOP_PACKAGE_DATA@@@?$_Pair_base@HPAUGAMESHOP_PACKAGE_DATA@@@std@@QAE@AAHAAPAUGAMESHOP_PACKAGE_DATA@@@Z ; std::_Pair_base<int,GAMESHOP_PACKAGE_DATA *>::_Pair_base<int,GAMESHOP_PACKAGE_DATA *><int &,GAMESHOP_PACKAGE_DATA * &>
; Function compile flags: /Ogtp
;	COMDAT ??$?0AAHAAPAUGAMESHOP_PACKAGE_DATA@@@?$_Pair_base@HPAUGAMESHOP_PACKAGE_DATA@@@std@@QAE@AAHAAPAUGAMESHOP_PACKAGE_DATA@@@Z
_TEXT	SEGMENT
__Val1$ = 8						; size = 4
__Val2$ = 12						; size = 4
??$?0AAHAAPAUGAMESHOP_PACKAGE_DATA@@@?$_Pair_base@HPAUGAMESHOP_PACKAGE_DATA@@@std@@QAE@AAHAAPAUGAMESHOP_PACKAGE_DATA@@@Z PROC ; std::_Pair_base<int,GAMESHOP_PACKAGE_DATA *>::_Pair_base<int,GAMESHOP_PACKAGE_DATA *><int &,GAMESHOP_PACKAGE_DATA * &>, COMDAT
; _this$ = ecx

; 163  : 		{	// construct from moved values

  00000	55		 push	 ebp
  00001	8b ec		 mov	 ebp, esp
  00003	8b c1		 mov	 eax, ecx
  00005	8b 4d 08	 mov	 ecx, DWORD PTR __Val1$[ebp]
  00008	8b 11		 mov	 edx, DWORD PTR [ecx]
  0000a	8b 4d 0c	 mov	 ecx, DWORD PTR __Val2$[ebp]
  0000d	89 10		 mov	 DWORD PTR [eax], edx
  0000f	8b 11		 mov	 edx, DWORD PTR [ecx]
  00011	89 50 04	 mov	 DWORD PTR [eax+4], edx

; 164  : 		}

  00014	5d		 pop	 ebp
  00015	c2 08 00	 ret	 8
??$?0AAHAAPAUGAMESHOP_PACKAGE_DATA@@@?$_Pair_base@HPAUGAMESHOP_PACKAGE_DATA@@@std@@QAE@AAHAAPAUGAMESHOP_PACKAGE_DATA@@@Z ENDP ; std::_Pair_base<int,GAMESHOP_PACKAGE_DATA *>::_Pair_base<int,GAMESHOP_PACKAGE_DATA *><int &,GAMESHOP_PACKAGE_DATA * &>
_TEXT	ENDS
PUBLIC	??$forward@U?$pair@HPAUGAMESHOP_PACKAGE_DATA@@@std@@@std@@YA$$QAU?$pair@HPAUGAMESHOP_PACKAGE_DATA@@@0@AAU10@@Z ; std::forward<std::pair<int,GAMESHOP_PACKAGE_DATA *> >
; Function compile flags: /Ogtp
;	COMDAT ??$forward@U?$pair@HPAUGAMESHOP_PACKAGE_DATA@@@std@@@std@@YA$$QAU?$pair@HPAUGAMESHOP_PACKAGE_DATA@@@0@AAU10@@Z
_TEXT	SEGMENT
__Arg$ = 8						; size = 4
??$forward@U?$pair@HPAUGAMESHOP_PACKAGE_DATA@@@std@@@std@@YA$$QAU?$pair@HPAUGAMESHOP_PACKAGE_DATA@@@0@AAU10@@Z PROC ; std::forward<std::pair<int,GAMESHOP_PACKAGE_DATA *> >, COMDAT

; 78   : 	{	// forward _Arg, given explicitly specified type parameter

  00000	55		 push	 ebp
  00001	8b ec		 mov	 ebp, esp

; 79   : 	return ((_Ty&&)_Arg);

  00003	8b 45 08	 mov	 eax, DWORD PTR __Arg$[ebp]

; 80   : 	}

  00006	5d		 pop	 ebp
  00007	c3		 ret	 0
??$forward@U?$pair@HPAUGAMESHOP_PACKAGE_DATA@@@std@@@std@@YA$$QAU?$pair@HPAUGAMESHOP_PACKAGE_DATA@@@0@AAU10@@Z ENDP ; std::forward<std::pair<int,GAMESHOP_PACKAGE_DATA *> >
_TEXT	ENDS
PUBLIC	??$forward@U?$pair@$$CBHPAUGAMESHOP_PACKAGE_DATA@@@std@@@std@@YA$$QAU?$pair@$$CBHPAUGAMESHOP_PACKAGE_DATA@@@0@AAU10@@Z ; std::forward<std::pair<int const ,GAMESHOP_PACKAGE_DATA *> >
; Function compile flags: /Ogtp
;	COMDAT ??$forward@U?$pair@$$CBHPAUGAMESHOP_PACKAGE_DATA@@@std@@@std@@YA$$QAU?$pair@$$CBHPAUGAMESHOP_PACKAGE_DATA@@@0@AAU10@@Z
_TEXT	SEGMENT
__Arg$ = 8						; size = 4
??$forward@U?$pair@$$CBHPAUGAMESHOP_PACKAGE_DATA@@@std@@@std@@YA$$QAU?$pair@$$CBHPAUGAMESHOP_PACKAGE_DATA@@@0@AAU10@@Z PROC ; std::forward<std::pair<int const ,GAMESHOP_PACKAGE_DATA *> >, COMDAT

; 78   : 	{	// forward _Arg, given explicitly specified type parameter

  00000	55		 push	 ebp
  00001	8b ec		 mov	 ebp, esp

; 79   : 	return ((_Ty&&)_Arg);

  00003	8b 45 08	 mov	 eax, DWORD PTR __Arg$[ebp]

; 80   : 	}

  00006	5d		 pop	 ebp
  00007	c3		 ret	 0
??$forward@U?$pair@$$CBHPAUGAMESHOP_PACKAGE_DATA@@@std@@@std@@YA$$QAU?$pair@$$CBHPAUGAMESHOP_PACKAGE_DATA@@@0@AAU10@@Z ENDP ; std::forward<std::pair<int const ,GAMESHOP_PACKAGE_DATA *> >
_TEXT	ENDS
PUBLIC	??$_Move@AAD@std@@YA$$QADAAD@Z			; std::_Move<char &>
; Function compile flags: /Ogtp
;	COMDAT ??$_Move@AAD@std@@YA$$QADAAD@Z
_TEXT	SEGMENT
__Arg$ = 8						; size = 4
??$_Move@AAD@std@@YA$$QADAAD@Z PROC			; std::_Move<char &>, COMDAT

; 94   : 	{	// forward _Arg as movable

  00000	55		 push	 ebp
  00001	8b ec		 mov	 ebp, esp

; 95   : 	return ((typename tr1::_Remove_reference<_Ty>::_Type&&)_Arg);

  00003	8b 45 08	 mov	 eax, DWORD PTR __Arg$[ebp]

; 96   : 	}

  00006	5d		 pop	 ebp
  00007	c3		 ret	 0
??$_Move@AAD@std@@YA$$QADAAD@Z ENDP			; std::_Move<char &>
_TEXT	ENDS
PUBLIC	??$_Kfn@$$CBHPAUGAMESHOP_ITEM_DATA@@@?$_Tmap_traits@HPAUGAMESHOP_ITEM_DATA@@U?$less@H@std@@V?$allocator@U?$pair@$$CBHPAUGAMESHOP_ITEM_DATA@@@std@@@3@$0A@@std@@SAABHABU?$pair@$$CBHPAUGAMESHOP_ITEM_DATA@@@1@@Z ; std::_Tmap_traits<int,GAMESHOP_ITEM_DATA *,std::less<int>,std::allocator<std::pair<int const ,GAMESHOP_ITEM_DATA *> >,0>::_Kfn<int const ,GAMESHOP_ITEM_DATA *>
; Function compile flags: /Ogtp
; File d:\program files (x86)\microsoft visual studio 10.0\vc\include\map
;	COMDAT ??$_Kfn@$$CBHPAUGAMESHOP_ITEM_DATA@@@?$_Tmap_traits@HPAUGAMESHOP_ITEM_DATA@@U?$less@H@std@@V?$allocator@U?$pair@$$CBHPAUGAMESHOP_ITEM_DATA@@@std@@@3@$0A@@std@@SAABHABU?$pair@$$CBHPAUGAMESHOP_ITEM_DATA@@@1@@Z
_TEXT	SEGMENT
__Val$ = 8						; size = 4
??$_Kfn@$$CBHPAUGAMESHOP_ITEM_DATA@@@?$_Tmap_traits@HPAUGAMESHOP_ITEM_DATA@@U?$less@H@std@@V?$allocator@U?$pair@$$CBHPAUGAMESHOP_ITEM_DATA@@@std@@@3@$0A@@std@@SAABHABU?$pair@$$CBHPAUGAMESHOP_ITEM_DATA@@@1@@Z PROC ; std::_Tmap_traits<int,GAMESHOP_ITEM_DATA *,std::less<int>,std::allocator<std::pair<int const ,GAMESHOP_ITEM_DATA *> >,0>::_Kfn<int const ,GAMESHOP_ITEM_DATA *>, COMDAT

; 66   : 		static const _Kty& _Kfn(const _STD pair<_Ty1, _Ty2>& _Val)

  00000	55		 push	 ebp
  00001	8b ec		 mov	 ebp, esp

; 67   : 		{	// extract key from element value
; 68   : 		return (_Val.first);

  00003	8b 45 08	 mov	 eax, DWORD PTR __Val$[ebp]

; 69   : 		}

  00006	5d		 pop	 ebp
  00007	c3		 ret	 0
??$_Kfn@$$CBHPAUGAMESHOP_ITEM_DATA@@@?$_Tmap_traits@HPAUGAMESHOP_ITEM_DATA@@U?$less@H@std@@V?$allocator@U?$pair@$$CBHPAUGAMESHOP_ITEM_DATA@@@std@@@3@$0A@@std@@SAABHABU?$pair@$$CBHPAUGAMESHOP_ITEM_DATA@@@1@@Z ENDP ; std::_Tmap_traits<int,GAMESHOP_ITEM_DATA *,std::less<int>,std::allocator<std::pair<int const ,GAMESHOP_ITEM_DATA *> >,0>::_Kfn<int const ,GAMESHOP_ITEM_DATA *>
_TEXT	ENDS
PUBLIC	??$_Destroy@U?$pair@$$CBHPAUGAMESHOP_ITEM_DATA@@@std@@@std@@YAXPAU?$pair@$$CBHPAUGAMESHOP_ITEM_DATA@@@0@@Z ; std::_Destroy<std::pair<int const ,GAMESHOP_ITEM_DATA *> >
; Function compile flags: /Ogtp
; File d:\program files (x86)\microsoft visual studio 10.0\vc\include\xmemory
;	COMDAT ??$_Destroy@U?$pair@$$CBHPAUGAMESHOP_ITEM_DATA@@@std@@@std@@YAXPAU?$pair@$$CBHPAUGAMESHOP_ITEM_DATA@@@0@@Z
_TEXT	SEGMENT
__Ptr$ = 8						; size = 4
??$_Destroy@U?$pair@$$CBHPAUGAMESHOP_ITEM_DATA@@@std@@@std@@YAXPAU?$pair@$$CBHPAUGAMESHOP_ITEM_DATA@@@0@@Z PROC ; std::_Destroy<std::pair<int const ,GAMESHOP_ITEM_DATA *> >, COMDAT

; 63   : 	_Ptr->~_Ty();
; 64   : 	}

  00000	c3		 ret	 0
??$_Destroy@U?$pair@$$CBHPAUGAMESHOP_ITEM_DATA@@@std@@@std@@YAXPAU?$pair@$$CBHPAUGAMESHOP_ITEM_DATA@@@0@@Z ENDP ; std::_Destroy<std::pair<int const ,GAMESHOP_ITEM_DATA *> >
_TEXT	ENDS
PUBLIC	??$_Destroy@U?$pair@$$CBHPAUGAMESHOP_PACKAGE_DATA@@@std@@@std@@YAXPAU?$pair@$$CBHPAUGAMESHOP_PACKAGE_DATA@@@0@@Z ; std::_Destroy<std::pair<int const ,GAMESHOP_PACKAGE_DATA *> >
; Function compile flags: /Ogtp
;	COMDAT ??$_Destroy@U?$pair@$$CBHPAUGAMESHOP_PACKAGE_DATA@@@std@@@std@@YAXPAU?$pair@$$CBHPAUGAMESHOP_PACKAGE_DATA@@@0@@Z
_TEXT	SEGMENT
__Ptr$ = 8						; size = 4
??$_Destroy@U?$pair@$$CBHPAUGAMESHOP_PACKAGE_DATA@@@std@@@std@@YAXPAU?$pair@$$CBHPAUGAMESHOP_PACKAGE_DATA@@@0@@Z PROC ; std::_Destroy<std::pair<int const ,GAMESHOP_PACKAGE_DATA *> >, COMDAT

; 63   : 	_Ptr->~_Ty();
; 64   : 	}

  00000	c3		 ret	 0
??$_Destroy@U?$pair@$$CBHPAUGAMESHOP_PACKAGE_DATA@@@std@@@std@@YAXPAU?$pair@$$CBHPAUGAMESHOP_PACKAGE_DATA@@@0@@Z ENDP ; std::_Destroy<std::pair<int const ,GAMESHOP_PACKAGE_DATA *> >
_TEXT	ENDS
PUBLIC	??$move@AAV?$_Tree_iterator@V?$_Tree_val@V?$_Tmap_traits@HPAUGAMESHOP_ITEM_DATA@@U?$less@H@std@@V?$allocator@U?$pair@$$CBHPAUGAMESHOP_ITEM_DATA@@@std@@@3@$0A@@std@@@std@@@std@@@std@@YA$$QAV?$_Tree_iterator@V?$_Tree_val@V?$_Tmap_traits@HPAUGAMESHOP_ITEM_DATA@@U?$less@H@std@@V?$allocator@U?$pair@$$CBHPAUGAMESHOP_ITEM_DATA@@@std@@@3@$0A@@std@@@std@@@0@AAV10@@Z ; std::move<std::_Tree_iterator<std::_Tree_val<std::_Tmap_traits<int,GAMESHOP_ITEM_DATA *,std::less<int>,std::allocator<std::pair<int const ,GAMESHOP_ITEM_DATA *> >,0> > > &>
; Function compile flags: /Ogtp
; File d:\program files (x86)\microsoft visual studio 10.0\vc\include\utility
;	COMDAT ??$move@AAV?$_Tree_iterator@V?$_Tree_val@V?$_Tmap_traits@HPAUGAMESHOP_ITEM_DATA@@U?$less@H@std@@V?$allocator@U?$pair@$$CBHPAUGAMESHOP_ITEM_DATA@@@std@@@3@$0A@@std@@@std@@@std@@@std@@YA$$QAV?$_Tree_iterator@V?$_Tree_val@V?$_Tmap_traits@HPAUGAMESHOP_ITEM_DATA@@U?$less@H@std@@V?$allocator@U?$pair@$$CBHPAUGAMESHOP_ITEM_DATA@@@std@@@3@$0A@@std@@@std@@@0@AAV10@@Z
_TEXT	SEGMENT
__Arg$ = 8						; size = 4
??$move@AAV?$_Tree_iterator@V?$_Tree_val@V?$_Tmap_traits@HPAUGAMESHOP_ITEM_DATA@@U?$less@H@std@@V?$allocator@U?$pair@$$CBHPAUGAMESHOP_ITEM_DATA@@@std@@@3@$0A@@std@@@std@@@std@@@std@@YA$$QAV?$_Tree_iterator@V?$_Tree_val@V?$_Tmap_traits@HPAUGAMESHOP_ITEM_DATA@@U?$less@H@std@@V?$allocator@U?$pair@$$CBHPAUGAMESHOP_ITEM_DATA@@@std@@@3@$0A@@std@@@std@@@0@AAV10@@Z PROC ; std::move<std::_Tree_iterator<std::_Tree_val<std::_Tmap_traits<int,GAMESHOP_ITEM_DATA *,std::less<int>,std::allocator<std::pair<int const ,GAMESHOP_ITEM_DATA *> >,0> > > &>, COMDAT

; 86   : 	{	// forward _Arg as movable

  00000	55		 push	 ebp
  00001	8b ec		 mov	 ebp, esp

; 87   : 	return ((typename tr1::_Remove_reference<_Ty>::_Type&&)_Arg);

  00003	8b 45 08	 mov	 eax, DWORD PTR __Arg$[ebp]

; 88   : 	}

  00006	5d		 pop	 ebp
  00007	c3		 ret	 0
??$move@AAV?$_Tree_iterator@V?$_Tree_val@V?$_Tmap_traits@HPAUGAMESHOP_ITEM_DATA@@U?$less@H@std@@V?$allocator@U?$pair@$$CBHPAUGAMESHOP_ITEM_DATA@@@std@@@3@$0A@@std@@@std@@@std@@@std@@YA$$QAV?$_Tree_iterator@V?$_Tree_val@V?$_Tmap_traits@HPAUGAMESHOP_ITEM_DATA@@U?$less@H@std@@V?$allocator@U?$pair@$$CBHPAUGAMESHOP_ITEM_DATA@@@std@@@3@$0A@@std@@@std@@@0@AAV10@@Z ENDP ; std::move<std::_Tree_iterator<std::_Tree_val<std::_Tmap_traits<int,GAMESHOP_ITEM_DATA *,std::less<int>,std::allocator<std::pair<int const ,GAMESHOP_ITEM_DATA *> >,0> > > &>
_TEXT	ENDS
PUBLIC	??$move@AA_N@std@@YA$$QA_NAA_N@Z		; std::move<bool &>
; Function compile flags: /Ogtp
;	COMDAT ??$move@AA_N@std@@YA$$QA_NAA_N@Z
_TEXT	SEGMENT
__Arg$ = 8						; size = 4
??$move@AA_N@std@@YA$$QA_NAA_N@Z PROC			; std::move<bool &>, COMDAT

; 86   : 	{	// forward _Arg as movable

  00000	55		 push	 ebp
  00001	8b ec		 mov	 ebp, esp

; 87   : 	return ((typename tr1::_Remove_reference<_Ty>::_Type&&)_Arg);

  00003	8b 45 08	 mov	 eax, DWORD PTR __Arg$[ebp]

; 88   : 	}

  00006	5d		 pop	 ebp
  00007	c3		 ret	 0
??$move@AA_N@std@@YA$$QA_NAA_N@Z ENDP			; std::move<bool &>
_TEXT	ENDS
PUBLIC	??$move@AAV?$_Tree_iterator@V?$_Tree_val@V?$_Tmap_traits@HPAUGAMESHOP_PACKAGE_DATA@@U?$less@H@std@@V?$allocator@U?$pair@$$CBHPAUGAMESHOP_PACKAGE_DATA@@@std@@@3@$0A@@std@@@std@@@std@@@std@@YA$$QAV?$_Tree_iterator@V?$_Tree_val@V?$_Tmap_traits@HPAUGAMESHOP_PACKAGE_DATA@@U?$less@H@std@@V?$allocator@U?$pair@$$CBHPAUGAMESHOP_PACKAGE_DATA@@@std@@@3@$0A@@std@@@std@@@0@AAV10@@Z ; std::move<std::_Tree_iterator<std::_Tree_val<std::_Tmap_traits<int,GAMESHOP_PACKAGE_DATA *,std::less<int>,std::allocator<std::pair<int const ,GAMESHOP_PACKAGE_DATA *> >,0> > > &>
; Function compile flags: /Ogtp
;	COMDAT ??$move@AAV?$_Tree_iterator@V?$_Tree_val@V?$_Tmap_traits@HPAUGAMESHOP_PACKAGE_DATA@@U?$less@H@std@@V?$allocator@U?$pair@$$CBHPAUGAMESHOP_PACKAGE_DATA@@@std@@@3@$0A@@std@@@std@@@std@@@std@@YA$$QAV?$_Tree_iterator@V?$_Tree_val@V?$_Tmap_traits@HPAUGAMESHOP_PACKAGE_DATA@@U?$less@H@std@@V?$allocator@U?$pair@$$CBHPAUGAMESHOP_PACKAGE_DATA@@@std@@@3@$0A@@std@@@std@@@0@AAV10@@Z
_TEXT	SEGMENT
__Arg$ = 8						; size = 4
??$move@AAV?$_Tree_iterator@V?$_Tree_val@V?$_Tmap_traits@HPAUGAMESHOP_PACKAGE_DATA@@U?$less@H@std@@V?$allocator@U?$pair@$$CBHPAUGAMESHOP_PACKAGE_DATA@@@std@@@3@$0A@@std@@@std@@@std@@@std@@YA$$QAV?$_Tree_iterator@V?$_Tree_val@V?$_Tmap_traits@HPAUGAMESHOP_PACKAGE_DATA@@U?$less@H@std@@V?$allocator@U?$pair@$$CBHPAUGAMESHOP_PACKAGE_DATA@@@std@@@3@$0A@@std@@@std@@@0@AAV10@@Z PROC ; std::move<std::_Tree_iterator<std::_Tree_val<std::_Tmap_traits<int,GAMESHOP_PACKAGE_DATA *,std::less<int>,std::allocator<std::pair<int const ,GAMESHOP_PACKAGE_DATA *> >,0> > > &>, COMDAT

; 86   : 	{	// forward _Arg as movable

  00000	55		 push	 ebp
  00001	8b ec		 mov	 ebp, esp

; 87   : 	return ((typename tr1::_Remove_reference<_Ty>::_Type&&)_Arg);

  00003	8b 45 08	 mov	 eax, DWORD PTR __Arg$[ebp]

; 88   : 	}

  00006	5d		 pop	 ebp
  00007	c3		 ret	 0
??$move@AAV?$_Tree_iterator@V?$_Tree_val@V?$_Tmap_traits@HPAUGAMESHOP_PACKAGE_DATA@@U?$less@H@std@@V?$allocator@U?$pair@$$CBHPAUGAMESHOP_PACKAGE_DATA@@@std@@@3@$0A@@std@@@std@@@std@@@std@@YA$$QAV?$_Tree_iterator@V?$_Tree_val@V?$_Tmap_traits@HPAUGAMESHOP_PACKAGE_DATA@@U?$less@H@std@@V?$allocator@U?$pair@$$CBHPAUGAMESHOP_PACKAGE_DATA@@@std@@@3@$0A@@std@@@std@@@0@AAV10@@Z ENDP ; std::move<std::_Tree_iterator<std::_Tree_val<std::_Tmap_traits<int,GAMESHOP_PACKAGE_DATA *,std::less<int>,std::allocator<std::pair<int const ,GAMESHOP_PACKAGE_DATA *> >,0> > > &>
_TEXT	ENDS
PUBLIC	??$forward@AAV?$_Tree_iterator@V?$_Tree_val@V?$_Tmap_traits@HPAUGAMESHOP_ITEM_DATA@@U?$less@H@std@@V?$allocator@U?$pair@$$CBHPAUGAMESHOP_ITEM_DATA@@@std@@@3@$0A@@std@@@std@@@std@@@std@@YAAAV?$_Tree_iterator@V?$_Tree_val@V?$_Tmap_traits@HPAUGAMESHOP_ITEM_DATA@@U?$less@H@std@@V?$allocator@U?$pair@$$CBHPAUGAMESHOP_ITEM_DATA@@@std@@@3@$0A@@std@@@std@@@0@AAV10@@Z ; std::forward<std::_Tree_iterator<std::_Tree_val<std::_Tmap_traits<int,GAMESHOP_ITEM_DATA *,std::less<int>,std::allocator<std::pair<int const ,GAMESHOP_ITEM_DATA *> >,0> > > &>
; Function compile flags: /Ogtp
;	COMDAT ??$forward@AAV?$_Tree_iterator@V?$_Tree_val@V?$_Tmap_traits@HPAUGAMESHOP_ITEM_DATA@@U?$less@H@std@@V?$allocator@U?$pair@$$CBHPAUGAMESHOP_ITEM_DATA@@@std@@@3@$0A@@std@@@std@@@std@@@std@@YAAAV?$_Tree_iterator@V?$_Tree_val@V?$_Tmap_traits@HPAUGAMESHOP_ITEM_DATA@@U?$less@H@std@@V?$allocator@U?$pair@$$CBHPAUGAMESHOP_ITEM_DATA@@@std@@@3@$0A@@std@@@std@@@0@AAV10@@Z
_TEXT	SEGMENT
__Arg$ = 8						; size = 4
??$forward@AAV?$_Tree_iterator@V?$_Tree_val@V?$_Tmap_traits@HPAUGAMESHOP_ITEM_DATA@@U?$less@H@std@@V?$allocator@U?$pair@$$CBHPAUGAMESHOP_ITEM_DATA@@@std@@@3@$0A@@std@@@std@@@std@@@std@@YAAAV?$_Tree_iterator@V?$_Tree_val@V?$_Tmap_traits@HPAUGAMESHOP_ITEM_DATA@@U?$less@H@std@@V?$allocator@U?$pair@$$CBHPAUGAMESHOP_ITEM_DATA@@@std@@@3@$0A@@std@@@std@@@0@AAV10@@Z PROC ; std::forward<std::_Tree_iterator<std::_Tree_val<std::_Tmap_traits<int,GAMESHOP_ITEM_DATA *,std::less<int>,std::allocator<std::pair<int const ,GAMESHOP_ITEM_DATA *> >,0> > > &>, COMDAT

; 78   : 	{	// forward _Arg, given explicitly specified type parameter

  00000	55		 push	 ebp
  00001	8b ec		 mov	 ebp, esp

; 79   : 	return ((_Ty&&)_Arg);

  00003	8b 45 08	 mov	 eax, DWORD PTR __Arg$[ebp]

; 80   : 	}

  00006	5d		 pop	 ebp
  00007	c3		 ret	 0
??$forward@AAV?$_Tree_iterator@V?$_Tree_val@V?$_Tmap_traits@HPAUGAMESHOP_ITEM_DATA@@U?$less@H@std@@V?$allocator@U?$pair@$$CBHPAUGAMESHOP_ITEM_DATA@@@std@@@3@$0A@@std@@@std@@@std@@@std@@YAAAV?$_Tree_iterator@V?$_Tree_val@V?$_Tmap_traits@HPAUGAMESHOP_ITEM_DATA@@U?$less@H@std@@V?$allocator@U?$pair@$$CBHPAUGAMESHOP_ITEM_DATA@@@std@@@3@$0A@@std@@@std@@@0@AAV10@@Z ENDP ; std::forward<std::_Tree_iterator<std::_Tree_val<std::_Tmap_traits<int,GAMESHOP_ITEM_DATA *,std::less<int>,std::allocator<std::pair<int const ,GAMESHOP_ITEM_DATA *> >,0> > > &>
_TEXT	ENDS
PUBLIC	??$forward@_N@std@@YA$$QA_NAA_N@Z		; std::forward<bool>
; Function compile flags: /Ogtp
;	COMDAT ??$forward@_N@std@@YA$$QA_NAA_N@Z
_TEXT	SEGMENT
__Arg$ = 8						; size = 4
??$forward@_N@std@@YA$$QA_NAA_N@Z PROC			; std::forward<bool>, COMDAT

; 78   : 	{	// forward _Arg, given explicitly specified type parameter

  00000	55		 push	 ebp
  00001	8b ec		 mov	 ebp, esp

; 79   : 	return ((_Ty&&)_Arg);

  00003	8b 45 08	 mov	 eax, DWORD PTR __Arg$[ebp]

; 80   : 	}

  00006	5d		 pop	 ebp
  00007	c3		 ret	 0
??$forward@_N@std@@YA$$QA_NAA_N@Z ENDP			; std::forward<bool>
_TEXT	ENDS
PUBLIC	??$?0AAV?$_Tree_iterator@V?$_Tree_val@V?$_Tmap_traits@HPAUGAMESHOP_ITEM_DATA@@U?$less@H@std@@V?$allocator@U?$pair@$$CBHPAUGAMESHOP_ITEM_DATA@@@std@@@3@$0A@@std@@@std@@@std@@_N@?$_Pair_base@V?$_Tree_iterator@V?$_Tree_val@V?$_Tmap_traits@HPAUGAMESHOP_ITEM_DATA@@U?$less@H@std@@V?$allocator@U?$pair@$$CBHPAUGAMESHOP_ITEM_DATA@@@std@@@3@$0A@@std@@@std@@@std@@_N@std@@QAE@AAV?$_Tree_iterator@V?$_Tree_val@V?$_Tmap_traits@HPAUGAMESHOP_ITEM_DATA@@U?$less@H@std@@V?$allocator@U?$pair@$$CBHPAUGAMESHOP_ITEM_DATA@@@std@@@3@$0A@@std@@@std@@@1@$$QA_N@Z ; std::_Pair_base<std::_Tree_iterator<std::_Tree_val<std::_Tmap_traits<int,GAMESHOP_ITEM_DATA *,std::less<int>,std::allocator<std::pair<int const ,GAMESHOP_ITEM_DATA *> >,0> > >,bool>::_Pair_base<std::_Tree_iterator<std::_Tree_val<std::_Tmap_traits<int,GAMESHOP_ITEM_DATA *,std::less<int>,std::allocator<std::pair<int const ,GAMESHOP_ITEM_DATA *> >,0> > >,bool><std::_Tree_iterator<std::_Tree_val<std::_Tmap_traits<int,GAMESHOP_ITEM_DATA *,std::less<int>,std::allocator<std::pair<int const ,GAMESHOP_ITEM_DATA *> >,0> > > &,bool>
; Function compile flags: /Ogtp
;	COMDAT ??$?0AAV?$_Tree_iterator@V?$_Tree_val@V?$_Tmap_traits@HPAUGAMESHOP_ITEM_DATA@@U?$less@H@std@@V?$allocator@U?$pair@$$CBHPAUGAMESHOP_ITEM_DATA@@@std@@@3@$0A@@std@@@std@@@std@@_N@?$_Pair_base@V?$_Tree_iterator@V?$_Tree_val@V?$_Tmap_traits@HPAUGAMESHOP_ITEM_DATA@@U?$less@H@std@@V?$allocator@U?$pair@$$CBHPAUGAMESHOP_ITEM_DATA@@@std@@@3@$0A@@std@@@std@@@std@@_N@std@@QAE@AAV?$_Tree_iterator@V?$_Tree_val@V?$_Tmap_traits@HPAUGAMESHOP_ITEM_DATA@@U?$less@H@std@@V?$allocator@U?$pair@$$CBHPAUGAMESHOP_ITEM_DATA@@@std@@@3@$0A@@std@@@std@@@1@$$QA_N@Z
_TEXT	SEGMENT
__Val1$ = 8						; size = 4
__Val2$ = 12						; size = 4
??$?0AAV?$_Tree_iterator@V?$_Tree_val@V?$_Tmap_traits@HPAUGAMESHOP_ITEM_DATA@@U?$less@H@std@@V?$allocator@U?$pair@$$CBHPAUGAMESHOP_ITEM_DATA@@@std@@@3@$0A@@std@@@std@@@std@@_N@?$_Pair_base@V?$_Tree_iterator@V?$_Tree_val@V?$_Tmap_traits@HPAUGAMESHOP_ITEM_DATA@@U?$less@H@std@@V?$allocator@U?$pair@$$CBHPAUGAMESHOP_ITEM_DATA@@@std@@@3@$0A@@std@@@std@@@std@@_N@std@@QAE@AAV?$_Tree_iterator@V?$_Tree_val@V?$_Tmap_traits@HPAUGAMESHOP_ITEM_DATA@@U?$less@H@std@@V?$allocator@U?$pair@$$CBHPAUGAMESHOP_ITEM_DATA@@@std@@@3@$0A@@std@@@std@@@1@$$QA_N@Z PROC ; std::_Pair_base<std::_Tree_iterator<std::_Tree_val<std::_Tmap_traits<int,GAMESHOP_ITEM_DATA *,std::less<int>,std::allocator<std::pair<int const ,GAMESHOP_ITEM_DATA *> >,0> > >,bool>::_Pair_base<std::_Tree_iterator<std::_Tree_val<std::_Tmap_traits<int,GAMESHOP_ITEM_DATA *,std::less<int>,std::allocator<std::pair<int const ,GAMESHOP_ITEM_DATA *> >,0> > >,bool><std::_Tree_iterator<std::_Tree_val<std::_Tmap_traits<int,GAMESHOP_ITEM_DATA *,std::less<int>,std::allocator<std::pair<int const ,GAMESHOP_ITEM_DATA *> >,0> > > &,bool>, COMDAT
; _this$ = ecx

; 163  : 		{	// construct from moved values

  00000	55		 push	 ebp
  00001	8b ec		 mov	 ebp, esp
  00003	8b c1		 mov	 eax, ecx
  00005	8b 4d 08	 mov	 ecx, DWORD PTR __Val1$[ebp]
  00008	8b 11		 mov	 edx, DWORD PTR [ecx]
  0000a	8b 4d 0c	 mov	 ecx, DWORD PTR __Val2$[ebp]
  0000d	89 10		 mov	 DWORD PTR [eax], edx
  0000f	8a 11		 mov	 dl, BYTE PTR [ecx]
  00011	88 50 04	 mov	 BYTE PTR [eax+4], dl

; 164  : 		}

  00014	5d		 pop	 ebp
  00015	c2 08 00	 ret	 8
??$?0AAV?$_Tree_iterator@V?$_Tree_val@V?$_Tmap_traits@HPAUGAMESHOP_ITEM_DATA@@U?$less@H@std@@V?$allocator@U?$pair@$$CBHPAUGAMESHOP_ITEM_DATA@@@std@@@3@$0A@@std@@@std@@@std@@_N@?$_Pair_base@V?$_Tree_iterator@V?$_Tree_val@V?$_Tmap_traits@HPAUGAMESHOP_ITEM_DATA@@U?$less@H@std@@V?$allocator@U?$pair@$$CBHPAUGAMESHOP_ITEM_DATA@@@std@@@3@$0A@@std@@@std@@@std@@_N@std@@QAE@AAV?$_Tree_iterator@V?$_Tree_val@V?$_Tmap_traits@HPAUGAMESHOP_ITEM_DATA@@U?$less@H@std@@V?$allocator@U?$pair@$$CBHPAUGAMESHOP_ITEM_DATA@@@std@@@3@$0A@@std@@@std@@@1@$$QA_N@Z ENDP ; std::_Pair_base<std::_Tree_iterator<std::_Tree_val<std::_Tmap_traits<int,GAMESHOP_ITEM_DATA *,std::less<int>,std::allocator<std::pair<int const ,GAMESHOP_ITEM_DATA *> >,0> > >,bool>::_Pair_base<std::_Tree_iterator<std::_Tree_val<std::_Tmap_traits<int,GAMESHOP_ITEM_DATA *,std::less<int>,std::allocator<std::pair<int const ,GAMESHOP_ITEM_DATA *> >,0> > >,bool><std::_Tree_iterator<std::_Tree_val<std::_Tmap_traits<int,GAMESHOP_ITEM_DATA *,std::less<int>,std::allocator<std::pair<int const ,GAMESHOP_ITEM_DATA *> >,0> > > &,bool>
_TEXT	ENDS
PUBLIC	??$forward@AAV?$_Tree_iterator@V?$_Tree_val@V?$_Tmap_traits@HPAUGAMESHOP_PACKAGE_DATA@@U?$less@H@std@@V?$allocator@U?$pair@$$CBHPAUGAMESHOP_PACKAGE_DATA@@@std@@@3@$0A@@std@@@std@@@std@@@std@@YAAAV?$_Tree_iterator@V?$_Tree_val@V?$_Tmap_traits@HPAUGAMESHOP_PACKAGE_DATA@@U?$less@H@std@@V?$allocator@U?$pair@$$CBHPAUGAMESHOP_PACKAGE_DATA@@@std@@@3@$0A@@std@@@std@@@0@AAV10@@Z ; std::forward<std::_Tree_iterator<std::_Tree_val<std::_Tmap_traits<int,GAMESHOP_PACKAGE_DATA *,std::less<int>,std::allocator<std::pair<int const ,GAMESHOP_PACKAGE_DATA *> >,0> > > &>
; Function compile flags: /Ogtp
;	COMDAT ??$forward@AAV?$_Tree_iterator@V?$_Tree_val@V?$_Tmap_traits@HPAUGAMESHOP_PACKAGE_DATA@@U?$less@H@std@@V?$allocator@U?$pair@$$CBHPAUGAMESHOP_PACKAGE_DATA@@@std@@@3@$0A@@std@@@std@@@std@@@std@@YAAAV?$_Tree_iterator@V?$_Tree_val@V?$_Tmap_traits@HPAUGAMESHOP_PACKAGE_DATA@@U?$less@H@std@@V?$allocator@U?$pair@$$CBHPAUGAMESHOP_PACKAGE_DATA@@@std@@@3@$0A@@std@@@std@@@0@AAV10@@Z
_TEXT	SEGMENT
__Arg$ = 8						; size = 4
??$forward@AAV?$_Tree_iterator@V?$_Tree_val@V?$_Tmap_traits@HPAUGAMESHOP_PACKAGE_DATA@@U?$less@H@std@@V?$allocator@U?$pair@$$CBHPAUGAMESHOP_PACKAGE_DATA@@@std@@@3@$0A@@std@@@std@@@std@@@std@@YAAAV?$_Tree_iterator@V?$_Tree_val@V?$_Tmap_traits@HPAUGAMESHOP_PACKAGE_DATA@@U?$less@H@std@@V?$allocator@U?$pair@$$CBHPAUGAMESHOP_PACKAGE_DATA@@@std@@@3@$0A@@std@@@std@@@0@AAV10@@Z PROC ; std::forward<std::_Tree_iterator<std::_Tree_val<std::_Tmap_traits<int,GAMESHOP_PACKAGE_DATA *,std::less<int>,std::allocator<std::pair<int const ,GAMESHOP_PACKAGE_DATA *> >,0> > > &>, COMDAT

; 78   : 	{	// forward _Arg, given explicitly specified type parameter

  00000	55		 push	 ebp
  00001	8b ec		 mov	 ebp, esp

; 79   : 	return ((_Ty&&)_Arg);

  00003	8b 45 08	 mov	 eax, DWORD PTR __Arg$[ebp]

; 80   : 	}

  00006	5d		 pop	 ebp
  00007	c3		 ret	 0
??$forward@AAV?$_Tree_iterator@V?$_Tree_val@V?$_Tmap_traits@HPAUGAMESHOP_PACKAGE_DATA@@U?$less@H@std@@V?$allocator@U?$pair@$$CBHPAUGAMESHOP_PACKAGE_DATA@@@std@@@3@$0A@@std@@@std@@@std@@@std@@YAAAV?$_Tree_iterator@V?$_Tree_val@V?$_Tmap_traits@HPAUGAMESHOP_PACKAGE_DATA@@U?$less@H@std@@V?$allocator@U?$pair@$$CBHPAUGAMESHOP_PACKAGE_DATA@@@std@@@3@$0A@@std@@@std@@@0@AAV10@@Z ENDP ; std::forward<std::_Tree_iterator<std::_Tree_val<std::_Tmap_traits<int,GAMESHOP_PACKAGE_DATA *,std::less<int>,std::allocator<std::pair<int const ,GAMESHOP_PACKAGE_DATA *> >,0> > > &>
_TEXT	ENDS
PUBLIC	??$?0AAV?$_Tree_iterator@V?$_Tree_val@V?$_Tmap_traits@HPAUGAMESHOP_PACKAGE_DATA@@U?$less@H@std@@V?$allocator@U?$pair@$$CBHPAUGAMESHOP_PACKAGE_DATA@@@std@@@3@$0A@@std@@@std@@@std@@_N@?$_Pair_base@V?$_Tree_iterator@V?$_Tree_val@V?$_Tmap_traits@HPAUGAMESHOP_PACKAGE_DATA@@U?$less@H@std@@V?$allocator@U?$pair@$$CBHPAUGAMESHOP_PACKAGE_DATA@@@std@@@3@$0A@@std@@@std@@@std@@_N@std@@QAE@AAV?$_Tree_iterator@V?$_Tree_val@V?$_Tmap_traits@HPAUGAMESHOP_PACKAGE_DATA@@U?$less@H@std@@V?$allocator@U?$pair@$$CBHPAUGAMESHOP_PACKAGE_DATA@@@std@@@3@$0A@@std@@@std@@@1@$$QA_N@Z ; std::_Pair_base<std::_Tree_iterator<std::_Tree_val<std::_Tmap_traits<int,GAMESHOP_PACKAGE_DATA *,std::less<int>,std::allocator<std::pair<int const ,GAMESHOP_PACKAGE_DATA *> >,0> > >,bool>::_Pair_base<std::_Tree_iterator<std::_Tree_val<std::_Tmap_traits<int,GAMESHOP_PACKAGE_DATA *,std::less<int>,std::allocator<std::pair<int const ,GAMESHOP_PACKAGE_DATA *> >,0> > >,bool><std::_Tree_iterator<std::_Tree_val<std::_Tmap_traits<int,GAMESHOP_PACKAGE_DATA *,std::less<int>,std::allocator<std::pair<int const ,GAMESHOP_PACKAGE_DATA *> >,0> > > &,bool>
; Function compile flags: /Ogtp
;	COMDAT ??$?0AAV?$_Tree_iterator@V?$_Tree_val@V?$_Tmap_traits@HPAUGAMESHOP_PACKAGE_DATA@@U?$less@H@std@@V?$allocator@U?$pair@$$CBHPAUGAMESHOP_PACKAGE_DATA@@@std@@@3@$0A@@std@@@std@@@std@@_N@?$_Pair_base@V?$_Tree_iterator@V?$_Tree_val@V?$_Tmap_traits@HPAUGAMESHOP_PACKAGE_DATA@@U?$less@H@std@@V?$allocator@U?$pair@$$CBHPAUGAMESHOP_PACKAGE_DATA@@@std@@@3@$0A@@std@@@std@@@std@@_N@std@@QAE@AAV?$_Tree_iterator@V?$_Tree_val@V?$_Tmap_traits@HPAUGAMESHOP_PACKAGE_DATA@@U?$less@H@std@@V?$allocator@U?$pair@$$CBHPAUGAMESHOP_PACKAGE_DATA@@@std@@@3@$0A@@std@@@std@@@1@$$QA_N@Z
_TEXT	SEGMENT
__Val1$ = 8						; size = 4
__Val2$ = 12						; size = 4
??$?0AAV?$_Tree_iterator@V?$_Tree_val@V?$_Tmap_traits@HPAUGAMESHOP_PACKAGE_DATA@@U?$less@H@std@@V?$allocator@U?$pair@$$CBHPAUGAMESHOP_PACKAGE_DATA@@@std@@@3@$0A@@std@@@std@@@std@@_N@?$_Pair_base@V?$_Tree_iterator@V?$_Tree_val@V?$_Tmap_traits@HPAUGAMESHOP_PACKAGE_DATA@@U?$less@H@std@@V?$allocator@U?$pair@$$CBHPAUGAMESHOP_PACKAGE_DATA@@@std@@@3@$0A@@std@@@std@@@std@@_N@std@@QAE@AAV?$_Tree_iterator@V?$_Tree_val@V?$_Tmap_traits@HPAUGAMESHOP_PACKAGE_DATA@@U?$less@H@std@@V?$allocator@U?$pair@$$CBHPAUGAMESHOP_PACKAGE_DATA@@@std@@@3@$0A@@std@@@std@@@1@$$QA_N@Z PROC ; std::_Pair_base<std::_Tree_iterator<std::_Tree_val<std::_Tmap_traits<int,GAMESHOP_PACKAGE_DATA *,std::less<int>,std::allocator<std::pair<int const ,GAMESHOP_PACKAGE_DATA *> >,0> > >,bool>::_Pair_base<std::_Tree_iterator<std::_Tree_val<std::_Tmap_traits<int,GAMESHOP_PACKAGE_DATA *,std::less<int>,std::allocator<std::pair<int const ,GAMESHOP_PACKAGE_DATA *> >,0> > >,bool><std::_Tree_iterator<std::_Tree_val<std::_Tmap_traits<int,GAMESHOP_PACKAGE_DATA *,std::less<int>,std::allocator<std::pair<int const ,GAMESHOP_PACKAGE_DATA *> >,0> > > &,bool>, COMDAT
; _this$ = ecx

; 163  : 		{	// construct from moved values

  00000	55		 push	 ebp
  00001	8b ec		 mov	 ebp, esp
  00003	8b c1		 mov	 eax, ecx
  00005	8b 4d 08	 mov	 ecx, DWORD PTR __Val1$[ebp]
  00008	8b 11		 mov	 edx, DWORD PTR [ecx]
  0000a	8b 4d 0c	 mov	 ecx, DWORD PTR __Val2$[ebp]
  0000d	89 10		 mov	 DWORD PTR [eax], edx
  0000f	8a 11		 mov	 dl, BYTE PTR [ecx]
  00011	88 50 04	 mov	 BYTE PTR [eax+4], dl

; 164  : 		}

  00014	5d		 pop	 ebp
  00015	c2 08 00	 ret	 8
??$?0AAV?$_Tree_iterator@V?$_Tree_val@V?$_Tmap_traits@HPAUGAMESHOP_PACKAGE_DATA@@U?$less@H@std@@V?$allocator@U?$pair@$$CBHPAUGAMESHOP_PACKAGE_DATA@@@std@@@3@$0A@@std@@@std@@@std@@_N@?$_Pair_base@V?$_Tree_iterator@V?$_Tree_val@V?$_Tmap_traits@HPAUGAMESHOP_PACKAGE_DATA@@U?$less@H@std@@V?$allocator@U?$pair@$$CBHPAUGAMESHOP_PACKAGE_DATA@@@std@@@3@$0A@@std@@@std@@@std@@_N@std@@QAE@AAV?$_Tree_iterator@V?$_Tree_val@V?$_Tmap_traits@HPAUGAMESHOP_PACKAGE_DATA@@U?$less@H@std@@V?$allocator@U?$pair@$$CBHPAUGAMESHOP_PACKAGE_DATA@@@std@@@3@$0A@@std@@@std@@@1@$$QA_N@Z ENDP ; std::_Pair_base<std::_Tree_iterator<std::_Tree_val<std::_Tmap_traits<int,GAMESHOP_PACKAGE_DATA *,std::less<int>,std::allocator<std::pair<int const ,GAMESHOP_PACKAGE_DATA *> >,0> > >,bool>::_Pair_base<std::_Tree_iterator<std::_Tree_val<std::_Tmap_traits<int,GAMESHOP_PACKAGE_DATA *,std::less<int>,std::allocator<std::pair<int const ,GAMESHOP_PACKAGE_DATA *> >,0> > >,bool><std::_Tree_iterator<std::_Tree_val<std::_Tmap_traits<int,GAMESHOP_PACKAGE_DATA *,std::less<int>,std::allocator<std::pair<int const ,GAMESHOP_PACKAGE_DATA *> >,0> > > &,bool>
_TEXT	ENDS
PUBLIC	??$forward@$$CBH@std@@YA$$QBHABH@Z		; std::forward<int const >
; Function compile flags: /Ogtp
;	COMDAT ??$forward@$$CBH@std@@YA$$QBHABH@Z
_TEXT	SEGMENT
__Arg$ = 8						; size = 4
??$forward@$$CBH@std@@YA$$QBHABH@Z PROC			; std::forward<int const >, COMDAT

; 78   : 	{	// forward _Arg, given explicitly specified type parameter

  00000	55		 push	 ebp
  00001	8b ec		 mov	 ebp, esp

; 79   : 	return ((_Ty&&)_Arg);

  00003	8b 45 08	 mov	 eax, DWORD PTR __Arg$[ebp]

; 80   : 	}

  00006	5d		 pop	 ebp
  00007	c3		 ret	 0
??$forward@$$CBH@std@@YA$$QBHABH@Z ENDP			; std::forward<int const >
_TEXT	ENDS
PUBLIC	??$forward@PAUGAMESHOP_PACKAGE_DATA@@@std@@YA$$QAPAUGAMESHOP_PACKAGE_DATA@@AAPAU1@@Z ; std::forward<GAMESHOP_PACKAGE_DATA *>
; Function compile flags: /Ogtp
;	COMDAT ??$forward@PAUGAMESHOP_PACKAGE_DATA@@@std@@YA$$QAPAUGAMESHOP_PACKAGE_DATA@@AAPAU1@@Z
_TEXT	SEGMENT
__Arg$ = 8						; size = 4
??$forward@PAUGAMESHOP_PACKAGE_DATA@@@std@@YA$$QAPAUGAMESHOP_PACKAGE_DATA@@AAPAU1@@Z PROC ; std::forward<GAMESHOP_PACKAGE_DATA *>, COMDAT

; 78   : 	{	// forward _Arg, given explicitly specified type parameter

  00000	55		 push	 ebp
  00001	8b ec		 mov	 ebp, esp

; 79   : 	return ((_Ty&&)_Arg);

  00003	8b 45 08	 mov	 eax, DWORD PTR __Arg$[ebp]

; 80   : 	}

  00006	5d		 pop	 ebp
  00007	c3		 ret	 0
??$forward@PAUGAMESHOP_PACKAGE_DATA@@@std@@YA$$QAPAUGAMESHOP_PACKAGE_DATA@@AAPAU1@@Z ENDP ; std::forward<GAMESHOP_PACKAGE_DATA *>
_TEXT	ENDS
PUBLIC	??$move@ABH@std@@YA$$QBHABH@Z			; std::move<int const &>
; Function compile flags: /Ogtp
;	COMDAT ??$move@ABH@std@@YA$$QBHABH@Z
_TEXT	SEGMENT
__Arg$ = 8						; size = 4
??$move@ABH@std@@YA$$QBHABH@Z PROC			; std::move<int const &>, COMDAT

; 86   : 	{	// forward _Arg as movable

  00000	55		 push	 ebp
  00001	8b ec		 mov	 ebp, esp

; 87   : 	return ((typename tr1::_Remove_reference<_Ty>::_Type&&)_Arg);

  00003	8b 45 08	 mov	 eax, DWORD PTR __Arg$[ebp]

; 88   : 	}

  00006	5d		 pop	 ebp
  00007	c3		 ret	 0
??$move@ABH@std@@YA$$QBHABH@Z ENDP			; std::move<int const &>
_TEXT	ENDS
PUBLIC	??$forward@H@std@@YA$$QAHAAH@Z			; std::forward<int>
; Function compile flags: /Ogtp
;	COMDAT ??$forward@H@std@@YA$$QAHAAH@Z
_TEXT	SEGMENT
__Arg$ = 8						; size = 4
??$forward@H@std@@YA$$QAHAAH@Z PROC			; std::forward<int>, COMDAT

; 78   : 	{	// forward _Arg, given explicitly specified type parameter

  00000	55		 push	 ebp
  00001	8b ec		 mov	 ebp, esp

; 79   : 	return ((_Ty&&)_Arg);

  00003	8b 45 08	 mov	 eax, DWORD PTR __Arg$[ebp]

; 80   : 	}

  00006	5d		 pop	 ebp
  00007	c3		 ret	 0
??$forward@H@std@@YA$$QAHAAH@Z ENDP			; std::forward<int>
_TEXT	ENDS
PUBLIC	??$forward@PAUGAMESHOP_ITEM_DATA@@@std@@YA$$QAPAUGAMESHOP_ITEM_DATA@@AAPAU1@@Z ; std::forward<GAMESHOP_ITEM_DATA *>
; Function compile flags: /Ogtp
;	COMDAT ??$forward@PAUGAMESHOP_ITEM_DATA@@@std@@YA$$QAPAUGAMESHOP_ITEM_DATA@@AAPAU1@@Z
_TEXT	SEGMENT
__Arg$ = 8						; size = 4
??$forward@PAUGAMESHOP_ITEM_DATA@@@std@@YA$$QAPAUGAMESHOP_ITEM_DATA@@AAPAU1@@Z PROC ; std::forward<GAMESHOP_ITEM_DATA *>, COMDAT

; 78   : 	{	// forward _Arg, given explicitly specified type parameter

  00000	55		 push	 ebp
  00001	8b ec		 mov	 ebp, esp

; 79   : 	return ((_Ty&&)_Arg);

  00003	8b 45 08	 mov	 eax, DWORD PTR __Arg$[ebp]

; 80   : 	}

  00006	5d		 pop	 ebp
  00007	c3		 ret	 0
??$forward@PAUGAMESHOP_ITEM_DATA@@@std@@YA$$QAPAUGAMESHOP_ITEM_DATA@@AAPAU1@@Z ENDP ; std::forward<GAMESHOP_ITEM_DATA *>
_TEXT	ENDS
PUBLIC	??$?0HPAUGAMESHOP_ITEM_DATA@@@?$_Pair_base@$$CBHPAUGAMESHOP_ITEM_DATA@@@std@@QAE@$$QAH$$QAPAUGAMESHOP_ITEM_DATA@@@Z ; std::_Pair_base<int const ,GAMESHOP_ITEM_DATA *>::_Pair_base<int const ,GAMESHOP_ITEM_DATA *><int,GAMESHOP_ITEM_DATA *>
; Function compile flags: /Ogtp
;	COMDAT ??$?0HPAUGAMESHOP_ITEM_DATA@@@?$_Pair_base@$$CBHPAUGAMESHOP_ITEM_DATA@@@std@@QAE@$$QAH$$QAPAUGAMESHOP_ITEM_DATA@@@Z
_TEXT	SEGMENT
__Val1$ = 8						; size = 4
__Val2$ = 12						; size = 4
??$?0HPAUGAMESHOP_ITEM_DATA@@@?$_Pair_base@$$CBHPAUGAMESHOP_ITEM_DATA@@@std@@QAE@$$QAH$$QAPAUGAMESHOP_ITEM_DATA@@@Z PROC ; std::_Pair_base<int const ,GAMESHOP_ITEM_DATA *>::_Pair_base<int const ,GAMESHOP_ITEM_DATA *><int,GAMESHOP_ITEM_DATA *>, COMDAT
; _this$ = ecx

; 163  : 		{	// construct from moved values

  00000	55		 push	 ebp
  00001	8b ec		 mov	 ebp, esp
  00003	8b c1		 mov	 eax, ecx
  00005	8b 4d 08	 mov	 ecx, DWORD PTR __Val1$[ebp]
  00008	8b 11		 mov	 edx, DWORD PTR [ecx]
  0000a	8b 4d 0c	 mov	 ecx, DWORD PTR __Val2$[ebp]
  0000d	89 10		 mov	 DWORD PTR [eax], edx
  0000f	8b 11		 mov	 edx, DWORD PTR [ecx]
  00011	89 50 04	 mov	 DWORD PTR [eax+4], edx

; 164  : 		}

  00014	5d		 pop	 ebp
  00015	c2 08 00	 ret	 8
??$?0HPAUGAMESHOP_ITEM_DATA@@@?$_Pair_base@$$CBHPAUGAMESHOP_ITEM_DATA@@@std@@QAE@$$QAH$$QAPAUGAMESHOP_ITEM_DATA@@@Z ENDP ; std::_Pair_base<int const ,GAMESHOP_ITEM_DATA *>::_Pair_base<int const ,GAMESHOP_ITEM_DATA *><int,GAMESHOP_ITEM_DATA *>
_TEXT	ENDS
PUBLIC	??$?0HPAUGAMESHOP_PACKAGE_DATA@@@?$_Pair_base@$$CBHPAUGAMESHOP_PACKAGE_DATA@@@std@@QAE@$$QAH$$QAPAUGAMESHOP_PACKAGE_DATA@@@Z ; std::_Pair_base<int const ,GAMESHOP_PACKAGE_DATA *>::_Pair_base<int const ,GAMESHOP_PACKAGE_DATA *><int,GAMESHOP_PACKAGE_DATA *>
; Function compile flags: /Ogtp
;	COMDAT ??$?0HPAUGAMESHOP_PACKAGE_DATA@@@?$_Pair_base@$$CBHPAUGAMESHOP_PACKAGE_DATA@@@std@@QAE@$$QAH$$QAPAUGAMESHOP_PACKAGE_DATA@@@Z
_TEXT	SEGMENT
__Val1$ = 8						; size = 4
__Val2$ = 12						; size = 4
??$?0HPAUGAMESHOP_PACKAGE_DATA@@@?$_Pair_base@$$CBHPAUGAMESHOP_PACKAGE_DATA@@@std@@QAE@$$QAH$$QAPAUGAMESHOP_PACKAGE_DATA@@@Z PROC ; std::_Pair_base<int const ,GAMESHOP_PACKAGE_DATA *>::_Pair_base<int const ,GAMESHOP_PACKAGE_DATA *><int,GAMESHOP_PACKAGE_DATA *>, COMDAT
; _this$ = ecx

; 163  : 		{	// construct from moved values

  00000	55		 push	 ebp
  00001	8b ec		 mov	 ebp, esp
  00003	8b c1		 mov	 eax, ecx
  00005	8b 4d 08	 mov	 ecx, DWORD PTR __Val1$[ebp]
  00008	8b 11		 mov	 edx, DWORD PTR [ecx]
  0000a	8b 4d 0c	 mov	 ecx, DWORD PTR __Val2$[ebp]
  0000d	89 10		 mov	 DWORD PTR [eax], edx
  0000f	8b 11		 mov	 edx, DWORD PTR [ecx]
  00011	89 50 04	 mov	 DWORD PTR [eax+4], edx

; 164  : 		}

  00014	5d		 pop	 ebp
  00015	c2 08 00	 ret	 8
??$?0HPAUGAMESHOP_PACKAGE_DATA@@@?$_Pair_base@$$CBHPAUGAMESHOP_PACKAGE_DATA@@@std@@QAE@$$QAH$$QAPAUGAMESHOP_PACKAGE_DATA@@@Z ENDP ; std::_Pair_base<int const ,GAMESHOP_PACKAGE_DATA *>::_Pair_base<int const ,GAMESHOP_PACKAGE_DATA *><int,GAMESHOP_PACKAGE_DATA *>
_TEXT	ENDS
PUBLIC	??_7bad_alloc@std@@6B@				; std::bad_alloc::`vftable'
PUBLIC	??0bad_alloc@std@@QAE@PBD@Z			; std::bad_alloc::bad_alloc
PUBLIC	??_R4bad_alloc@std@@6B@				; std::bad_alloc::`RTTI Complete Object Locator'
PUBLIC	??_R0?AVbad_alloc@std@@@8			; std::bad_alloc `RTTI Type Descriptor'
PUBLIC	??_R3bad_alloc@std@@8				; std::bad_alloc::`RTTI Class Hierarchy Descriptor'
PUBLIC	??_R2bad_alloc@std@@8				; std::bad_alloc::`RTTI Base Class Array'
PUBLIC	??_R1A@?0A@EA@bad_alloc@std@@8			; std::bad_alloc::`RTTI Base Class Descriptor at (0,-1,0,64)'
PUBLIC	??_R1A@?0A@EA@exception@std@@8			; std::exception::`RTTI Base Class Descriptor at (0,-1,0,64)'
PUBLIC	??_R0?AVexception@std@@@8			; std::exception `RTTI Type Descriptor'
PUBLIC	??_R3exception@std@@8				; std::exception::`RTTI Class Hierarchy Descriptor'
PUBLIC	??_R2exception@std@@8				; std::exception::`RTTI Base Class Array'
EXTRN	??0exception@std@@QAE@ABQBD@Z:PROC		; std::exception::exception
EXTRN	??_7type_info@@6B@:QWORD			; type_info::`vftable'
EXTRN	??_Ebad_alloc@std@@UAEPAXI@Z:PROC		; std::bad_alloc::`vector deleting destructor'
EXTRN	?what@exception@std@@UBEPBDXZ:PROC		; std::exception::what
;	COMDAT ??_R2exception@std@@8
; File d:\program files (x86)\microsoft visual studio 10.0\vc\include\exception
rdata$r	SEGMENT
??_R2exception@std@@8 DD FLAT:??_R1A@?0A@EA@exception@std@@8 ; std::exception::`RTTI Base Class Array'
rdata$r	ENDS
;	COMDAT ??_R3exception@std@@8
rdata$r	SEGMENT
??_R3exception@std@@8 DD 00H				; std::exception::`RTTI Class Hierarchy Descriptor'
	DD	00H
	DD	01H
	DD	FLAT:??_R2exception@std@@8
rdata$r	ENDS
;	COMDAT ??_R0?AVexception@std@@@8
_DATA	SEGMENT
??_R0?AVexception@std@@@8 DD FLAT:??_7type_info@@6B@	; std::exception `RTTI Type Descriptor'
	DD	00H
	DB	'.?AVexception@std@@', 00H
_DATA	ENDS
;	COMDAT ??_R1A@?0A@EA@exception@std@@8
rdata$r	SEGMENT
??_R1A@?0A@EA@exception@std@@8 DD FLAT:??_R0?AVexception@std@@@8 ; std::exception::`RTTI Base Class Descriptor at (0,-1,0,64)'
	DD	00H
	DD	00H
	DD	0ffffffffH
	DD	00H
	DD	040H
	DD	FLAT:??_R3exception@std@@8
rdata$r	ENDS
;	COMDAT ??_R1A@?0A@EA@bad_alloc@std@@8
rdata$r	SEGMENT
??_R1A@?0A@EA@bad_alloc@std@@8 DD FLAT:??_R0?AVbad_alloc@std@@@8 ; std::bad_alloc::`RTTI Base Class Descriptor at (0,-1,0,64)'
	DD	01H
	DD	00H
	DD	0ffffffffH
	DD	00H
	DD	040H
	DD	FLAT:??_R3bad_alloc@std@@8
rdata$r	ENDS
;	COMDAT ??_R2bad_alloc@std@@8
rdata$r	SEGMENT
??_R2bad_alloc@std@@8 DD FLAT:??_R1A@?0A@EA@bad_alloc@std@@8 ; std::bad_alloc::`RTTI Base Class Array'
	DD	FLAT:??_R1A@?0A@EA@exception@std@@8
rdata$r	ENDS
;	COMDAT ??_R3bad_alloc@std@@8
rdata$r	SEGMENT
??_R3bad_alloc@std@@8 DD 00H				; std::bad_alloc::`RTTI Class Hierarchy Descriptor'
	DD	00H
	DD	02H
	DD	FLAT:??_R2bad_alloc@std@@8
rdata$r	ENDS
;	COMDAT ??_R0?AVbad_alloc@std@@@8
_DATA	SEGMENT
??_R0?AVbad_alloc@std@@@8 DD FLAT:??_7type_info@@6B@	; std::bad_alloc `RTTI Type Descriptor'
	DD	00H
	DB	'.?AVbad_alloc@std@@', 00H
_DATA	ENDS
;	COMDAT ??_R4bad_alloc@std@@6B@
rdata$r	SEGMENT
??_R4bad_alloc@std@@6B@ DD 00H				; std::bad_alloc::`RTTI Complete Object Locator'
	DD	00H
	DD	00H
	DD	FLAT:??_R0?AVbad_alloc@std@@@8
	DD	FLAT:??_R3bad_alloc@std@@8
rdata$r	ENDS
;	COMDAT ??_7bad_alloc@std@@6B@
CONST	SEGMENT
??_7bad_alloc@std@@6B@ DD FLAT:??_R4bad_alloc@std@@6B@	; std::bad_alloc::`vftable'
	DD	FLAT:??_Ebad_alloc@std@@UAEPAXI@Z
	DD	FLAT:?what@exception@std@@UBEPBDXZ
; Function compile flags: /Ogtp
CONST	ENDS
;	COMDAT ??0bad_alloc@std@@QAE@PBD@Z
_TEXT	SEGMENT
__Message$ = 8						; size = 4
??0bad_alloc@std@@QAE@PBD@Z PROC			; std::bad_alloc::bad_alloc, COMDAT
; _this$ = ecx

; 345  : 		{	// construct from message string

  00000	55		 push	 ebp
  00001	8b ec		 mov	 ebp, esp
  00003	56		 push	 esi
  00004	8d 45 08	 lea	 eax, DWORD PTR __Message$[ebp]
  00007	50		 push	 eax
  00008	8b f1		 mov	 esi, ecx
  0000a	e8 00 00 00 00	 call	 ??0exception@std@@QAE@ABQBD@Z ; std::exception::exception
  0000f	c7 06 00 00 00
	00		 mov	 DWORD PTR [esi], OFFSET ??_7bad_alloc@std@@6B@

; 346  : 		}

  00015	8b c6		 mov	 eax, esi
  00017	5e		 pop	 esi
  00018	5d		 pop	 ebp
  00019	c2 04 00	 ret	 4
??0bad_alloc@std@@QAE@PBD@Z ENDP			; std::bad_alloc::bad_alloc
_TEXT	ENDS
PUBLIC	??1bad_alloc@std@@UAE@XZ			; std::bad_alloc::~bad_alloc
EXTRN	??1exception@std@@UAE@XZ:PROC			; std::exception::~exception
; Function compile flags: /Ogtp
;	COMDAT ??1bad_alloc@std@@UAE@XZ
_TEXT	SEGMENT
??1bad_alloc@std@@UAE@XZ PROC				; std::bad_alloc::~bad_alloc, COMDAT
; _this$ = ecx

; 354  : 		{	// destroy the object

  00000	c7 01 00 00 00
	00		 mov	 DWORD PTR [ecx], OFFSET ??_7bad_alloc@std@@6B@

; 355  : 		}

  00006	e9 00 00 00 00	 jmp	 ??1exception@std@@UAE@XZ ; std::exception::~exception
??1bad_alloc@std@@UAE@XZ ENDP				; std::bad_alloc::~bad_alloc
; Function compile flags: /Ogtp
_TEXT	ENDS
;	COMDAT ??_Gbad_alloc@std@@UAEPAXI@Z
_TEXT	SEGMENT
___flags$ = 8						; size = 4
??_Gbad_alloc@std@@UAEPAXI@Z PROC			; std::bad_alloc::`scalar deleting destructor', COMDAT
; _this$ = ecx
  00000	55		 push	 ebp
  00001	8b ec		 mov	 ebp, esp
  00003	56		 push	 esi
  00004	8b f1		 mov	 esi, ecx
  00006	c7 06 00 00 00
	00		 mov	 DWORD PTR [esi], OFFSET ??_7bad_alloc@std@@6B@
  0000c	e8 00 00 00 00	 call	 ??1exception@std@@UAE@XZ ; std::exception::~exception
  00011	f6 45 08 01	 test	 BYTE PTR ___flags$[ebp], 1
  00015	74 09		 je	 SHORT $LN6@scalar
  00017	56		 push	 esi
  00018	e8 00 00 00 00	 call	 ??3@YAXPAX@Z		; operator delete
  0001d	83 c4 04	 add	 esp, 4
$LN6@scalar:
  00020	8b c6		 mov	 eax, esi
  00022	5e		 pop	 esi
  00023	5d		 pop	 ebp
  00024	c2 04 00	 ret	 4
??_Gbad_alloc@std@@UAEPAXI@Z ENDP			; std::bad_alloc::`scalar deleting destructor'
_TEXT	ENDS
PUBLIC	?_Adopt@_Iterator_base0@std@@QAEXPBX@Z		; std::_Iterator_base0::_Adopt
; Function compile flags: /Ogtp
; File d:\program files (x86)\microsoft visual studio 10.0\vc\include\xutility
;	COMDAT ?_Adopt@_Iterator_base0@std@@QAEXPBX@Z
_TEXT	SEGMENT
___formal$ = 8						; size = 4
?_Adopt@_Iterator_base0@std@@QAEXPBX@Z PROC		; std::_Iterator_base0::_Adopt, COMDAT
; _this$ = ecx

; 49   : 		}

  00000	c2 04 00	 ret	 4
?_Adopt@_Iterator_base0@std@@QAEXPBX@Z ENDP		; std::_Iterator_base0::_Adopt
_TEXT	ENDS
PUBLIC	??0GAMESHOP_PACKAGE_DATA@@QAE@XZ		; GAMESHOP_PACKAGE_DATA::GAMESHOP_PACKAGE_DATA
; Function compile flags: /Ogtp
; File e:\work\tranet_version\gs\gameserver\gameshop.h
;	COMDAT ??0GAMESHOP_PACKAGE_DATA@@QAE@XZ
_TEXT	SEGMENT
??0GAMESHOP_PACKAGE_DATA@@QAE@XZ PROC			; GAMESHOP_PACKAGE_DATA::GAMESHOP_PACKAGE_DATA, COMDAT
; _this$ = ecx

; 332  : 	{

  00000	53		 push	 ebx
  00001	56		 push	 esi
  00002	57		 push	 edi
  00003	8d 51 18	 lea	 edx, DWORD PTR [ecx+24]
  00006	be 13 00 00 00	 mov	 esi, 19			; 00000013H
  0000b	b0 ff		 mov	 al, 255			; 000000ffH
  0000d	33 db		 xor	 ebx, ebx
  0000f	90		 npad	 1
$LL4@GAMESHOP_P:
  00010	83 cf ff	 or	 edi, -1
  00013	66 89 3a	 mov	 WORD PTR [edx], di
  00016	0b ff		 or	 edi, edi
  00018	66 89 7a 02	 mov	 WORD PTR [edx+2], di
  0001c	88 42 04	 mov	 BYTE PTR [edx+4], al
  0001f	88 42 05	 mov	 BYTE PTR [edx+5], al
  00022	88 5a 06	 mov	 BYTE PTR [edx+6], bl
  00025	88 42 07	 mov	 BYTE PTR [edx+7], al
  00028	89 5a 08	 mov	 DWORD PTR [edx+8], ebx
  0002b	89 5a 0c	 mov	 DWORD PTR [edx+12], ebx
  0002e	89 5a 10	 mov	 DWORD PTR [edx+16], ebx
  00031	88 42 14	 mov	 BYTE PTR [edx+20], al
  00034	89 5a 18	 mov	 DWORD PTR [edx+24], ebx
  00037	89 5a 1c	 mov	 DWORD PTR [edx+28], ebx
  0003a	89 5a 20	 mov	 DWORD PTR [edx+32], ebx
  0003d	89 5a 24	 mov	 DWORD PTR [edx+36], ebx
  00040	83 c2 28	 add	 edx, 40			; 00000028H
  00043	4e		 dec	 esi
  00044	79 ca		 jns	 SHORT $LL4@GAMESHOP_P

; 333  : 		this->PackageID		= -1;

  00046	5f		 pop	 edi
  00047	83 ca ff	 or	 edx, -1
  0004a	5e		 pop	 esi

; 334  : 		this->IBSCategory	= -1;
; 335  : 		this->Price			= 0;

  0004b	89 59 08	 mov	 DWORD PTR [ecx+8], ebx

; 336  : 		this->PointType		= -1;

  0004e	88 41 0c	 mov	 BYTE PTR [ecx+12], al

; 337  : 		this->GPBonus		= 0;

  00051	89 59 10	 mov	 DWORD PTR [ecx+16], ebx

; 338  : 		this->ItemCount		= 0;

  00054	88 59 14	 mov	 BYTE PTR [ecx+20], bl
  00057	66 89 11	 mov	 WORD PTR [ecx], dx
  0005a	89 51 04	 mov	 DWORD PTR [ecx+4], edx

; 339  : 	}

  0005d	8b c1		 mov	 eax, ecx
  0005f	5b		 pop	 ebx
  00060	c3		 ret	 0
??0GAMESHOP_PACKAGE_DATA@@QAE@XZ ENDP			; GAMESHOP_PACKAGE_DATA::GAMESHOP_PACKAGE_DATA
_TEXT	ENDS
PUBLIC	__$ArrayPad$
PUBLIC	?RequestPoint@GameShop@@QAEXH@Z			; GameShop::RequestPoint
; Function compile flags: /Ogtp
; File e:\work\tranet_version\gs\gameserver\gameshop.cpp
;	COMDAT ?RequestPoint@GameShop@@QAEXH@Z
_TEXT	SEGMENT
_pPoint$ = -52						; size = 45
__$ArrayPad$ = -4					; size = 4
_aIndex$ = 8						; size = 4
?RequestPoint@GameShop@@QAEXH@Z PROC			; GameShop::RequestPoint, COMDAT
; _this$ = ecx

; 466  : {

  00000	55		 push	 ebp
  00001	8b ec		 mov	 ebp, esp
  00003	83 ec 34	 sub	 esp, 52			; 00000034H
  00006	a1 00 00 00 00	 mov	 eax, DWORD PTR ___security_cookie
  0000b	33 c5		 xor	 eax, ebp
  0000d	89 45 fc	 mov	 DWORD PTR __$ArrayPad$[ebp], eax
  00010	56		 push	 esi
  00011	57		 push	 edi
  00012	8b 7d 08	 mov	 edi, DWORD PTR _aIndex$[ebp]

; 467  : #if( GAMESHOP_DEBUG == 1 )
; 468  : 	LogAddC(2, "[DEBUG] [%s] [%s] [%s]", __FUNCTION__, &gObj[aIndex].AccountID, &gObj[aIndex].Name);
; 469  : #endif
; 470  : 	// ----
; 471  : 	if( !gObjIsConnected(aIndex) )

  00015	57		 push	 edi
  00016	8b f1		 mov	 esi, ecx
  00018	e8 00 00 00 00	 call	 ?gObjIsConnected@@YAHH@Z ; gObjIsConnected
  0001d	83 c4 04	 add	 esp, 4
  00020	85 c0		 test	 eax, eax
  00022	0f 84 c4 00 00
	00		 je	 $LN2@RequestPoi

; 472  : 	{
; 473  : 		return;
; 474  : 	}
; 475  : 	// ----
; 476  : #ifndef FIX_DS_CRASH
; 477  : #endif
; 478  : 	this->GDReqUserInfo(aIndex);

  00028	57		 push	 edi
  00029	8b ce		 mov	 ecx, esi
  0002b	e8 00 00 00 00	 call	 ?GDReqUserInfo@GameShop@@QAEXH@Z ; GameShop::GDReqUserInfo

; 479  : 
; 480  : 	LPOBJ lpUser = &gObj[aIndex];

  00030	8b f7		 mov	 esi, edi
  00032	69 f6 50 2b 00
	00		 imul	 esi, 11088		; 00002b50H
  00038	03 35 00 00 00
	00		 add	 esi, DWORD PTR ?gObj@@3PAUOBJECTSTRUCT@@A ; gObj

; 481  : 	// ----
; 482  : 	GAMESHOP_ANS_POINT pPoint;
; 483  : 	PHeadSubSetB((LPBYTE)&pPoint, 0xD2, cPoint, sizeof(GAMESHOP_ANS_POINT));

  0003e	6a 2d		 push	 45			; 0000002dH
  00040	6a 01		 push	 1
  00042	8d 45 cc	 lea	 eax, DWORD PTR _pPoint$[ebp]
  00045	68 d2 00 00 00	 push	 210			; 000000d2H
  0004a	50		 push	 eax
  0004b	e8 00 00 00 00	 call	 ?PHeadSubSetB@@YAXPAEEEH@Z ; PHeadSubSetB
  00050	83 c4 10	 add	 esp, 16			; 00000010H

; 484  : 	// ----
; 485  : 
; 486  : #ifdef PRIVATE_MODULE
; 487  : 	if(g_ZtLicense.CheckUser(SILVER1) || g_ZtLicense.CheckUser(SILVER2))

  00053	6a 07		 push	 7
  00055	b9 00 00 00 00	 mov	 ecx, OFFSET ?g_ZtLicense@@3VCZtLicense@@A ; g_ZtLicense
  0005a	e8 00 00 00 00	 call	 ?CheckUser@CZtLicense@@QAE_NH@Z ; CZtLicense::CheckUser
  0005f	84 c0		 test	 al, al
  00061	75 21		 jne	 SHORT $LN4@RequestPoi
  00063	6a 08		 push	 8
  00065	b9 00 00 00 00	 mov	 ecx, OFFSET ?g_ZtLicense@@3VCZtLicense@@A ; g_ZtLicense
  0006a	e8 00 00 00 00	 call	 ?CheckUser@CZtLicense@@QAE_NH@Z ; CZtLicense::CheckUser
  0006f	84 c0		 test	 al, al
  00071	75 11		 jne	 SHORT $LN4@RequestPoi

; 491  : 	}
; 492  : 	else
; 493  : 	{
; 494  : 		pPoint.WCoinC[0]	= lpUser->GameShop.WCoinC;

  00073	dd 86 00 23 00
	00		 fld	 QWORD PTR [esi+8960]
  00079	dd 5d d1	 fstp	 QWORD PTR _pPoint$[ebp+5]

; 495  : 		pPoint.WCoinC[1]	= lpUser->GameShop.WCoinC;

  0007c	dd 86 00 23 00
	00		 fld	 QWORD PTR [esi+8960]
  00082	eb 0f		 jmp	 SHORT $LN9@RequestPoi
$LN4@RequestPoi:

; 488  : 	{
; 489  : 		pPoint.WCoinC[0]	= (double)lpUser->ZtCred;

  00084	d9 86 a8 22 00
	00		 fld	 DWORD PTR [esi+8872]
  0008a	dd 5d d1	 fstp	 QWORD PTR _pPoint$[ebp+5]

; 490  : 		pPoint.WCoinC[1]	= (double)lpUser->ZtCred;

  0008d	d9 86 a8 22 00
	00		 fld	 DWORD PTR [esi+8872]
$LN9@RequestPoi:

; 496  : 	}
; 497  : #else
; 498  : 	pPoint.WCoinC[0]	= lpUser->GameShop.WCoinC;
; 499  : 	pPoint.WCoinC[1]	= lpUser->GameShop.WCoinC;
; 500  : #endif
; 501  : 	pPoint.WCoinP[0]	= lpUser->GameShop.WCoinP;
; 502  : 	pPoint.WCoinP[1]	= lpUser->GameShop.WCoinP;
; 503  : 	pPoint.GoblinPoint	= lpUser->GameShop.GoblinPoint;
; 504  : 	// ----
; 505  : 	DataSend(aIndex, (LPBYTE)&pPoint, pPoint.h.size);

  00093	0f b6 4d cd	 movzx	 ecx, BYTE PTR _pPoint$[ebp+1]
  00097	dd 5d d9	 fstp	 QWORD PTR _pPoint$[ebp+13]
  0009a	dd 86 f8 22 00
	00		 fld	 QWORD PTR [esi+8952]
  000a0	51		 push	 ecx
  000a1	dd 5d e1	 fstp	 QWORD PTR _pPoint$[ebp+21]
  000a4	8d 55 cc	 lea	 edx, DWORD PTR _pPoint$[ebp]
  000a7	dd 86 f8 22 00
	00		 fld	 QWORD PTR [esi+8952]
  000ad	52		 push	 edx
  000ae	dd 5d e9	 fstp	 QWORD PTR _pPoint$[ebp+29]
  000b1	57		 push	 edi
  000b2	dd 86 08 23 00
	00		 fld	 QWORD PTR [esi+8968]
  000b8	dd 5d f1	 fstp	 QWORD PTR _pPoint$[ebp+37]
  000bb	e8 00 00 00 00	 call	 ?DataSend@@YAHHPAEK@Z	; DataSend
  000c0	83 c4 0c	 add	 esp, 12			; 0000000cH

; 506  : 
; 507  : #ifdef PRIVATE_MODULE
; 508  : 	if(g_ZtLicense.CheckUser(SILVER1) || g_ZtLicense.CheckUser(SILVER2))

  000c3	6a 07		 push	 7
  000c5	b9 00 00 00 00	 mov	 ecx, OFFSET ?g_ZtLicense@@3VCZtLicense@@A ; g_ZtLicense
  000ca	e8 00 00 00 00	 call	 ?CheckUser@CZtLicense@@QAE_NH@Z ; CZtLicense::CheckUser
  000cf	84 c0		 test	 al, al
  000d1	75 10		 jne	 SHORT $LN1@RequestPoi
  000d3	6a 08		 push	 8
  000d5	b9 00 00 00 00	 mov	 ecx, OFFSET ?g_ZtLicense@@3VCZtLicense@@A ; g_ZtLicense
  000da	e8 00 00 00 00	 call	 ?CheckUser@CZtLicense@@QAE_NH@Z ; CZtLicense::CheckUser
  000df	84 c0		 test	 al, al
  000e1	74 09		 je	 SHORT $LN2@RequestPoi
$LN1@RequestPoi:

; 509  : 	{ 
; 510  : 		ZtUserDataSend(aIndex);

  000e3	57		 push	 edi
  000e4	e8 00 00 00 00	 call	 ?ZtUserDataSend@@YAXH@Z	; ZtUserDataSend
  000e9	83 c4 04	 add	 esp, 4
$LN2@RequestPoi:

; 511  : 	}
; 512  : 	
; 513  : #endif
; 514  : }

  000ec	8b 4d fc	 mov	 ecx, DWORD PTR __$ArrayPad$[ebp]
  000ef	5f		 pop	 edi
  000f0	33 cd		 xor	 ecx, ebp
  000f2	5e		 pop	 esi
  000f3	e8 00 00 00 00	 call	 @__security_check_cookie@4
  000f8	8b e5		 mov	 esp, ebp
  000fa	5d		 pop	 ebp
  000fb	c2 04 00	 ret	 4
?RequestPoint@GameShop@@QAEXH@Z ENDP			; GameShop::RequestPoint
_TEXT	ENDS
PUBLIC	?RequestOpenShop@GameShop@@QAEXHPAUGAMESHOP_REQ_OPEN@@@Z ; GameShop::RequestOpenShop
; Function compile flags: /Ogtp
;	COMDAT ?RequestOpenShop@GameShop@@QAEXHPAUGAMESHOP_REQ_OPEN@@@Z
_TEXT	SEGMENT
_pOpenShop$ = -8					; size = 5
_aIndex$ = 8						; size = 4
_lpRequest$ = 12					; size = 4
?RequestOpenShop@GameShop@@QAEXHPAUGAMESHOP_REQ_OPEN@@@Z PROC ; GameShop::RequestOpenShop, COMDAT
; _this$ = ecx

; 518  : {

  00000	55		 push	 ebp
  00001	8b ec		 mov	 ebp, esp
  00003	83 ec 08	 sub	 esp, 8
  00006	53		 push	 ebx

; 519  : #if( GAMESHOP_DEBUG == 1 )
; 520  : 	LogAddC(2, "[DEBUG] [%s] [%s] [%s]", __FUNCTION__, &gObj[aIndex].AccountID, &gObj[aIndex].Name);
; 521  : #endif
; 522  : 	// ----
; 523  : 	if( !gObjIsConnected(aIndex) )

  00007	8b 5d 08	 mov	 ebx, DWORD PTR _aIndex$[ebp]
  0000a	57		 push	 edi
  0000b	53		 push	 ebx
  0000c	8b f9		 mov	 edi, ecx
  0000e	e8 00 00 00 00	 call	 ?gObjIsConnected@@YAHH@Z ; gObjIsConnected
  00013	83 c4 04	 add	 esp, 4
  00016	85 c0		 test	 eax, eax
  00018	0f 84 92 00 00
	00		 je	 $LN8@RequestOpe

; 524  : 	{
; 525  : 		return;
; 526  : 	}
; 527  : 	// ----
; 528  : 	LPOBJ lpUser = &gObj[aIndex];

  0001e	56		 push	 esi
  0001f	8b f3		 mov	 esi, ebx
  00021	69 f6 50 2b 00
	00		 imul	 esi, 11088		; 00002b50H
  00027	03 35 00 00 00
	00		 add	 esi, DWORD PTR ?gObj@@3PAUOBJECTSTRUCT@@A ; gObj

; 529  : 	// ----
; 530  : 	GAMESHOP_REQ_OPEN pOpenShop;
; 531  : 	PHeadSubSetB((LPBYTE)&pOpenShop, 0xD2, cShopOpen, sizeof(pOpenShop));

  0002d	6a 05		 push	 5
  0002f	6a 02		 push	 2
  00031	8d 45 f8	 lea	 eax, DWORD PTR _pOpenShop$[ebp]
  00034	68 d2 00 00 00	 push	 210			; 000000d2H
  00039	50		 push	 eax
  0003a	e8 00 00 00 00	 call	 ?PHeadSubSetB@@YAXPAEEEH@Z ; PHeadSubSetB
  0003f	83 c4 10	 add	 esp, 16			; 00000010H

; 532  : 	// ----
; 533  : 	pOpenShop.Result = 0;
; 534  : 	// ----
; 535  : 	if( !this->OptionData.ActiveGameShop )

  00042	80 7f 04 00	 cmp	 BYTE PTR [edi+4], 0
  00046	c6 45 fc 00	 mov	 BYTE PTR _pOpenShop$[ebp+4], 0
  0004a	75 04		 jne	 SHORT $LN6@RequestOpe

; 536  : 	{
; 537  : 		pOpenShop.Result = 1;

  0004c	c6 45 fc 01	 mov	 BYTE PTR _pOpenShop$[ebp+4], 1
$LN6@RequestOpe:

; 538  : 	}
; 539  : 	// ----
; 540  : 	if( lpRequest->Result == 0 )

  00050	8b 4d 0c	 mov	 ecx, DWORD PTR _lpRequest$[ebp]
  00053	8a 41 04	 mov	 al, BYTE PTR [ecx+4]
  00056	84 c0		 test	 al, al
  00058	75 34		 jne	 SHORT $LN5@RequestOpe

; 541  : 	{
; 542  : #ifndef FIX_DS_CRASH
; 543  : #endif
; 544  : 		this->GDReqUserInfo(aIndex);

  0005a	53		 push	 ebx
  0005b	8b cf		 mov	 ecx, edi
  0005d	e8 00 00 00 00	 call	 ?GDReqUserInfo@GameShop@@QAEXH@Z ; GameShop::GDReqUserInfo

; 545  : 
; 546  : 		// ----
; 547  : 		if( lpUser->m_IfState.use > 0 )

  00062	8b 86 1c 0e 00
	00		 mov	 eax, DWORD PTR [esi+3612]
  00068	a8 03		 test	 al, 3
  0006a	76 06		 jbe	 SHORT $LN4@RequestOpe

; 548  : 		{
; 549  : 			pOpenShop.Result = 8;

  0006c	c6 45 fc 08	 mov	 BYTE PTR _pOpenShop$[ebp+4], 8

; 550  : 		}
; 551  : 		// ----
; 552  : 		if( pOpenShop.Result == 0 )

  00070	eb 2e		 jmp	 SHORT $LN1@RequestOpe
$LN4@RequestOpe:
  00072	80 7d fc 00	 cmp	 BYTE PTR _pOpenShop$[ebp+4], 0
  00076	75 28		 jne	 SHORT $LN1@RequestOpe

; 553  : 		{
; 554  : 			lpUser->m_IfState.use	= 1;
; 555  : 			lpUser->m_IfState.type	= 18;
; 556  : 			lpUser->m_IfState.state	= 1;

  00078	25 85 04 ff ff	 and	 eax, -64379		; ffff0485H
  0007d	0d 85 04 00 00	 or	 eax, 1157		; 00000485H
  00082	89 86 1c 0e 00
	00		 mov	 DWORD PTR [esi+3612], eax

; 557  : 			pOpenShop.Result		= 1;

  00088	c6 45 fc 01	 mov	 BYTE PTR _pOpenShop$[ebp+4], 1

; 558  : 		}
; 559  : 	}

  0008c	eb 12		 jmp	 SHORT $LN1@RequestOpe
$LN5@RequestOpe:

; 560  : 	else if( lpRequest->Result == 1 )

  0008e	3c 01		 cmp	 al, 1
  00090	75 0e		 jne	 SHORT $LN1@RequestOpe

; 561  : 	{
; 562  : 		lpUser->m_IfState.use		= 0;
; 563  : 		lpUser->m_IfState.type		= 0;
; 564  : 		lpUser->m_IfState.state		= 0;

  00092	81 a6 1c 0e 00
	00 00 00 ff ff	 and	 DWORD PTR [esi+3612], -65536 ; ffff0000H

; 565  : 		pOpenShop.Result			= 0;

  0009c	c6 45 fc 00	 mov	 BYTE PTR _pOpenShop$[ebp+4], 0
$LN1@RequestOpe:

; 566  : 	}
; 567  : 	// ----
; 568  : 	DataSend(aIndex, (LPBYTE)&pOpenShop, sizeof(pOpenShop));

  000a0	6a 05		 push	 5
  000a2	8d 55 f8	 lea	 edx, DWORD PTR _pOpenShop$[ebp]
  000a5	52		 push	 edx
  000a6	53		 push	 ebx
  000a7	e8 00 00 00 00	 call	 ?DataSend@@YAHHPAEK@Z	; DataSend
  000ac	83 c4 0c	 add	 esp, 12			; 0000000cH
  000af	5e		 pop	 esi
$LN8@RequestOpe:
  000b0	5f		 pop	 edi
  000b1	5b		 pop	 ebx

; 569  : }

  000b2	8b e5		 mov	 esp, ebp
  000b4	5d		 pop	 ebp
  000b5	c2 08 00	 ret	 8
?RequestOpenShop@GameShop@@QAEXHPAUGAMESHOP_REQ_OPEN@@@Z ENDP ; GameShop::RequestOpenShop
_TEXT	ENDS
PUBLIC	_lpRequest$GSCopy$
PUBLIC	__$ArrayPad$
PUBLIC	?RequestStorage@GameShop@@QAEXHPAUGAMESHOP_REQ_STORAGE@@@Z ; GameShop::RequestStorage
; Function compile flags: /Ogtp
;	COMDAT ?RequestStorage@GameShop@@QAEXHPAUGAMESHOP_REQ_STORAGE@@@Z
_TEXT	SEGMENT
_ItemCount$ = -64					; size = 4
_lpRequest$GSCopy$ = -60				; size = 4
_Counter$ = -56						; size = 4
_pStorageItem$ = -52					; size = 33
_pStorageCount$ = -16					; size = 12
__$ArrayPad$ = -4					; size = 4
_aIndex$ = 8						; size = 4
_lpRequest$ = 12					; size = 4
?RequestStorage@GameShop@@QAEXHPAUGAMESHOP_REQ_STORAGE@@@Z PROC ; GameShop::RequestStorage, COMDAT
; _this$ = ecx

; 904  : {

  00000	55		 push	 ebp
  00001	8b ec		 mov	 ebp, esp
  00003	83 ec 40	 sub	 esp, 64			; 00000040H
  00006	a1 00 00 00 00	 mov	 eax, DWORD PTR ___security_cookie
  0000b	33 c5		 xor	 eax, ebp
  0000d	89 45 fc	 mov	 DWORD PTR __$ArrayPad$[ebp], eax

; 929  : 		pStorageCount.GiftStorage[1] = 1;
; 930  : 	}
; 931  : 	// ----
; 932  : 	DataSend(aIndex, (LPBYTE)&pStorageCount, pStorageCount.h.size);

  00010	8b 45 0c	 mov	 eax, DWORD PTR _lpRequest$[ebp]
  00013	53		 push	 ebx
  00014	56		 push	 esi
  00015	57		 push	 edi
  00016	8b 7d 08	 mov	 edi, DWORD PTR _aIndex$[ebp]
  00019	8b f7		 mov	 esi, edi
  0001b	69 f6 50 2b 00
	00		 imul	 esi, 11088		; 00002b50H
  00021	03 35 00 00 00
	00		 add	 esi, DWORD PTR ?gObj@@3PAUOBJECTSTRUCT@@A ; gObj
  00027	57		 push	 edi
  00028	8b d9		 mov	 ebx, ecx
  0002a	89 45 c4	 mov	 DWORD PTR _lpRequest$GSCopy$[ebp], eax
  0002d	e8 00 00 00 00	 call	 ?gObjIsConnected@@YAHH@Z ; gObjIsConnected
  00032	83 c4 04	 add	 esp, 4
  00035	85 c0		 test	 eax, eax
  00037	0f 84 da 00 00
	00		 je	 $LN12@RequestSto

; 905  : #if( GAMESHOP_DEBUG == 1 )
; 906  : 	LogAddC(2, "[DEBUG] [%s] [%s] [%s]", __FUNCTION__, &gObj[aIndex].AccountID, &gObj[aIndex].Name);
; 907  : #endif
; 908  : 	// ----
; 909  : 	LPOBJ lpUser = &gObj[aIndex];
; 910  : 	// ----
; 911  : 	if( !gObjIsConnected(aIndex) )
; 912  : 	{
; 913  : 		return;
; 914  : 	}
; 915  : 	// ----
; 916  : 	GAMESHOP_ANS_STORAGE_COUNT	pStorageCount = { 0 };

  0003d	6a 0c		 push	 12			; 0000000cH
  0003f	33 c0		 xor	 eax, eax

; 917  : 	GAMESHOP_ANS_STORAGE_ITEM	pStorageItem;
; 918  : 	// ----
; 919  : 	PHeadSubSetB((LPBYTE)&pStorageCount, 0xD2, cStorageCount, sizeof(pStorageCount));

  00041	6a 06		 push	 6
  00043	8d 4d f0	 lea	 ecx, DWORD PTR _pStorageCount$[ebp]
  00046	68 d2 00 00 00	 push	 210			; 000000d2H
  0004b	51		 push	 ecx
  0004c	c6 45 f0 00	 mov	 BYTE PTR _pStorageCount$[ebp], 0
  00050	89 45 f1	 mov	 DWORD PTR _pStorageCount$[ebp+1], eax
  00053	89 45 f5	 mov	 DWORD PTR _pStorageCount$[ebp+5], eax
  00056	66 89 45 f9	 mov	 WORD PTR _pStorageCount$[ebp+9], ax
  0005a	88 45 fb	 mov	 BYTE PTR _pStorageCount$[ebp+11], al
  0005d	e8 00 00 00 00	 call	 ?PHeadSubSetB@@YAXPAEEEH@Z ; PHeadSubSetB

; 920  : 	PHeadSubSetB((LPBYTE)&pStorageItem, 0xD2, cStorageItem, sizeof(pStorageItem));

  00062	6a 21		 push	 33			; 00000021H
  00064	6a 0d		 push	 13			; 0000000dH
  00066	8d 55 cc	 lea	 edx, DWORD PTR _pStorageItem$[ebp]
  00069	68 d2 00 00 00	 push	 210			; 000000d2H
  0006e	52		 push	 edx
  0006f	e8 00 00 00 00	 call	 ?PHeadSubSetB@@YAXPAEEEH@Z ; PHeadSubSetB

; 921  : 	// ----
; 922  : 	int ItemCount = this->GetItemCountInStorage(aIndex, lpRequest->StorageType);

  00074	8b 45 c4	 mov	 eax, DWORD PTR _lpRequest$GSCopy$[ebp]
  00077	0f b6 48 08	 movzx	 ecx, BYTE PTR [eax+8]
  0007b	83 c4 20	 add	 esp, 32			; 00000020H
  0007e	51		 push	 ecx
  0007f	57		 push	 edi
  00080	8b cb		 mov	 ecx, ebx
  00082	e8 00 00 00 00	 call	 ?GetItemCountInStorage@GameShop@@QAEHHH@Z ; GameShop::GetItemCountInStorage

; 923  : 	// ----
; 924  : 	if( ItemCount )

  00087	33 db		 xor	 ebx, ebx
  00089	89 45 c0	 mov	 DWORD PTR _ItemCount$[ebp], eax
  0008c	3b c3		 cmp	 eax, ebx
  0008e	74 10		 je	 SHORT $LN7@RequestSto

; 925  : 	{
; 926  : 		pStorageCount.MainStorage[0] = ItemCount+1;

  00090	40		 inc	 eax
  00091	66 89 45 f4	 mov	 WORD PTR _pStorageCount$[ebp+4], ax

; 927  : 		pStorageCount.MainStorage[1] = ItemCount+1;

  00095	66 89 45 f6	 mov	 WORD PTR _pStorageCount$[ebp+6], ax

; 928  : 		pStorageCount.GiftStorage[0] = 1;

  00099	c7 45 f8 01 00
	01 00		 mov	 DWORD PTR _pStorageCount$[ebp+8], 65537 ; 00010001H
$LN7@RequestSto:

; 929  : 		pStorageCount.GiftStorage[1] = 1;
; 930  : 	}
; 931  : 	// ----
; 932  : 	DataSend(aIndex, (LPBYTE)&pStorageCount, pStorageCount.h.size);

  000a0	0f b6 4d f1	 movzx	 ecx, BYTE PTR _pStorageCount$[ebp+1]
  000a4	51		 push	 ecx
  000a5	8d 55 f0	 lea	 edx, DWORD PTR _pStorageCount$[ebp]
  000a8	52		 push	 edx
  000a9	57		 push	 edi
  000aa	e8 00 00 00 00	 call	 ?DataSend@@YAHHPAEK@Z	; DataSend
  000af	83 c4 0c	 add	 esp, 12			; 0000000cH

; 933  : 	// ----
; 934  : 	pStorageItem.Unk3		= 0x50;

  000b2	c6 45 ec 50	 mov	 BYTE PTR _pStorageItem$[ebp+32], 80 ; 00000050H

; 935  : 	pStorageItem.IBSUnknown	= 673;

  000b6	c7 45 d8 a1 02
	00 00		 mov	 DWORD PTR _pStorageItem$[ebp+12], 673 ; 000002a1H

; 936  : 	// ----
; 937  : 	int Counter = 0;

  000bd	89 5d c8	 mov	 DWORD PTR _Counter$[ebp], ebx
  000c0	81 c6 14 23 00
	00		 add	 esi, 8980		; 00002314H
$LL14@RequestSto:

; 940  : 	{
; 941  : 		if( lpRequest->StorageType == 0x53 && lpUser->GameShop.MainStorage[i].AuthIndex != 0 && lpUser->GameShop.MainStorage[i].AuthID != 0 )

  000c6	8b 45 c4	 mov	 eax, DWORD PTR _lpRequest$GSCopy$[ebp]
  000c9	80 78 08 53	 cmp	 BYTE PTR [eax+8], 83	; 00000053H
  000cd	75 3f		 jne	 SHORT $LN5@RequestSto
  000cf	83 7e fc 00	 cmp	 DWORD PTR [esi-4], 0
  000d3	74 39		 je	 SHORT $LN5@RequestSto
  000d5	83 3e 00	 cmp	 DWORD PTR [esi], 0
  000d8	74 34		 je	 SHORT $LN5@RequestSto

; 942  : 		{
; 943  : 			pStorageItem.AuthIndex	= lpUser->GameShop.MainStorage[i].AuthIndex;

  000da	8b 4e fc	 mov	 ecx, DWORD PTR [esi-4]

; 944  : 			pStorageItem.AuthID		= lpUser->GameShop.MainStorage[i].AuthID;
; 945  : 			pStorageItem.IBSID		= lpUser->GameShop.MainStorage[i].IBSID;
; 946  : 			pStorageItem.IBSIndex	= lpUser->GameShop.MainStorage[i].IBSIndex;
; 947  : 			Counter++;

  000dd	ff 45 c8	 inc	 DWORD PTR _Counter$[ebp]
  000e0	89 4d d0	 mov	 DWORD PTR _pStorageItem$[ebp+4], ecx
  000e3	8b 16		 mov	 edx, DWORD PTR [esi]
  000e5	89 55 d4	 mov	 DWORD PTR _pStorageItem$[ebp+8], edx
  000e8	8b 46 06	 mov	 eax, DWORD PTR [esi+6]

; 948  : 		}
; 949  : 		/*else if( lpRequest->StorageType == 0x47 && lpUser->GameShop.GiftStorage[i].AuthIndex != 0 && lpUser->GameShop.GiftStorage[i].AuthID != 0 )
; 950  : 		{
; 951  : 			pStorageItem.AuthIndex	= lpUser->GameShop.GiftStorage[i].AuthIndex;
; 952  : 			pStorageItem.AuthID		= lpUser->GameShop.GiftStorage[i].AuthID;
; 953  : 			pStorageItem.IBSID		= lpUser->GameShop.GiftStorage[i].IBSID;
; 954  : 			pStorageItem.IBSIndex	= lpUser->GameShop.GiftStorage[i].IBSIndex;
; 955  : 			Counter++;
; 956  : 		}*/
; 957  : 		else
; 958  : 		{
; 959  : 			continue;
; 960  : 		}
; 961  : 		// ----
; 962  : 		DataSend(aIndex, (LPBYTE)&pStorageItem, pStorageItem.h.size);

  000eb	0f b6 55 cd	 movzx	 edx, BYTE PTR _pStorageItem$[ebp+1]
  000ef	89 45 dc	 mov	 DWORD PTR _pStorageItem$[ebp+16], eax
  000f2	8b 4e 0e	 mov	 ecx, DWORD PTR [esi+14]
  000f5	52		 push	 edx
  000f6	8d 45 cc	 lea	 eax, DWORD PTR _pStorageItem$[ebp]
  000f9	50		 push	 eax
  000fa	57		 push	 edi
  000fb	89 4d e0	 mov	 DWORD PTR _pStorageItem$[ebp+20], ecx
  000fe	e8 00 00 00 00	 call	 ?DataSend@@YAHHPAEK@Z	; DataSend

; 963  : 		// ----
; 964  : 		if( Counter >= ItemCount )

  00103	8b 4d c0	 mov	 ecx, DWORD PTR _ItemCount$[ebp]
  00106	83 c4 0c	 add	 esp, 12			; 0000000cH
  00109	39 4d c8	 cmp	 DWORD PTR _Counter$[ebp], ecx
  0010c	7d 09		 jge	 SHORT $LN12@RequestSto
$LN5@RequestSto:

; 938  : 	// ----
; 939  : 	for( int i = 0; i < MAX_STORAGE_ITEM; i++ )

  0010e	43		 inc	 ebx
  0010f	83 c6 1a	 add	 esi, 26			; 0000001aH
  00112	83 fb 1e	 cmp	 ebx, 30			; 0000001eH
  00115	7c af		 jl	 SHORT $LL14@RequestSto
$LN12@RequestSto:

; 965  : 		{
; 966  : 			break;
; 967  : 		}
; 968  : 	}
; 969  : }

  00117	8b 4d fc	 mov	 ecx, DWORD PTR __$ArrayPad$[ebp]
  0011a	5f		 pop	 edi
  0011b	5e		 pop	 esi
  0011c	33 cd		 xor	 ecx, ebp
  0011e	5b		 pop	 ebx
  0011f	e8 00 00 00 00	 call	 @__security_check_cookie@4
  00124	8b e5		 mov	 esp, ebp
  00126	5d		 pop	 ebp
  00127	c2 08 00	 ret	 8
?RequestStorage@GameShop@@QAEXHPAUGAMESHOP_REQ_STORAGE@@@Z ENDP ; GameShop::RequestStorage
_TEXT	ENDS
PUBLIC	?AddItemInStorage@GameShop@@QAE_NHPAUGAMESHOP_ITEM_DATA@@E@Z ; GameShop::AddItemInStorage
EXTRN	_rand:PROC
; Function compile flags: /Ogtp
;	COMDAT ?AddItemInStorage@GameShop@@QAE_NHPAUGAMESHOP_ITEM_DATA@@E@Z
_TEXT	SEGMENT
_aIndex$ = 8						; size = 4
_lpItem$ = 12						; size = 4
_Type$ = 16						; size = 1
?AddItemInStorage@GameShop@@QAE_NHPAUGAMESHOP_ITEM_DATA@@E@Z PROC ; GameShop::AddItemInStorage, COMDAT
; _this$ = ecx

; 1130 : {

  00000	55		 push	 ebp
  00001	8b ec		 mov	 ebp, esp
  00003	53		 push	 ebx
  00004	8b d9		 mov	 ebx, ecx

; 1131 : #if( GAMESHOP_DEBUG == 1 )
; 1132 : 	LogAddC(2, "[DEBUG] [%s] [%s] [%s]", __FUNCTION__, &gObj[aIndex].AccountID, &gObj[aIndex].Name);
; 1133 : #endif
; 1134 : 	// ----
; 1135 : 	LPOBJ lpUser = &gObj[aIndex];

  00006	8b 4d 08	 mov	 ecx, DWORD PTR _aIndex$[ebp]
  00009	69 c9 50 2b 00
	00		 imul	 ecx, 11088		; 00002b50H
  0000f	03 0d 00 00 00
	00		 add	 ecx, DWORD PTR ?gObj@@3PAUOBJECTSTRUCT@@A ; gObj

; 1136 : 	// ----
; 1137 : 	if( Type == 0 )	//-> Main Storage

  00015	80 7d 10 00	 cmp	 BYTE PTR _Type$[ebp], 0
  00019	56		 push	 esi
  0001a	57		 push	 edi
  0001b	75 1c		 jne	 SHORT $LN2@AddItemInS

; 1138 : 	{
; 1139 : 		for( int i = 0; i < MAX_STORAGE_ITEM; i++ )

  0001d	33 c0		 xor	 eax, eax
  0001f	8d 91 14 23 00
	00		 lea	 edx, DWORD PTR [ecx+8980]
$LL4@AddItemInS:

; 1140 : 		{
; 1141 : 			if( lpUser->GameShop.MainStorage[i].AuthIndex == 0 && lpUser->GameShop.MainStorage[i].AuthID == 0 )

  00025	83 7a fc 00	 cmp	 DWORD PTR [edx-4], 0
  00029	75 05		 jne	 SHORT $LN3@AddItemInS
  0002b	83 3a 00	 cmp	 DWORD PTR [edx], 0
  0002e	74 12		 je	 SHORT $LN9@AddItemInS
$LN3@AddItemInS:

; 1138 : 	{
; 1139 : 		for( int i = 0; i < MAX_STORAGE_ITEM; i++ )

  00030	40		 inc	 eax
  00031	83 c2 1a	 add	 edx, 26			; 0000001aH
  00034	83 f8 1e	 cmp	 eax, 30			; 0000001eH
  00037	7c ec		 jl	 SHORT $LL4@AddItemInS
$LN2@AddItemInS:

; 1150 : 				// ----
; 1151 : 				return true;
; 1152 : 			}
; 1153 : 		}
; 1154 : 	}
; 1155 : 	/*else if( Type == 1 )	//-> Gift Storage
; 1156 : 	{
; 1157 : 		for( int i = 0; i < MAX_STORAGE_ITEM; i++ )
; 1158 : 		{
; 1159 : 			if( lpUser->GameShop.GiftStorage[i].AuthIndex == 0 && lpUser->GameShop.GiftStorage[i].AuthID == 0 )
; 1160 : 			{
; 1161 : 				lpUser->GameShop.GiftStorage[i].AuthIndex	= rand()%10000+4400/200;
; 1162 : 				lpUser->GameShop.GiftStorage[i].AuthID		= rand()%250000+1700/12;
; 1163 : 				lpUser->GameShop.GiftStorage[i].ItemID		= lpItem->ItemID;
; 1164 : 				lpUser->GameShop.GiftStorage[i].IBSID		= lpItem->IBSID;
; 1165 : 				lpUser->GameShop.GiftStorage[i].IBSCategory	= lpItem->IBSCategory;
; 1166 : 				lpUser->GameShop.GiftStorage[i].IBSIndex	= lpItem->IBSIndex;
; 1167 : 				// ----
; 1168 : 				return true;
; 1169 : 			}
; 1170 : 		}
; 1171 : 	}*/
; 1172 : 	// ----
; 1173 : 	return false;

  00039	32 c0		 xor	 al, al

; 1174 : }

  0003b	5f		 pop	 edi
  0003c	5e		 pop	 esi
  0003d	5b		 pop	 ebx
  0003e	5d		 pop	 ebp
  0003f	c2 0c 00	 ret	 12			; 0000000cH
$LN9@AddItemInS:

; 1142 : 			{
; 1143 : 				lpUser->GameShop.MainStorage[i].AuthIndex	= rand()%10000+4400/200;

  00042	6b c0 1a	 imul	 eax, 26			; 0000001aH
  00045	8d 3c 08	 lea	 edi, DWORD PTR [eax+ecx]
  00048	8d b7 10 23 00
	00		 lea	 esi, DWORD PTR [edi+8976]
  0004e	e8 00 00 00 00	 call	 _rand
  00053	99		 cdq
  00054	b9 10 27 00 00	 mov	 ecx, 10000		; 00002710H
  00059	f7 f9		 idiv	 ecx
  0005b	83 c2 16	 add	 edx, 22			; 00000016H
  0005e	89 16		 mov	 DWORD PTR [esi], edx

; 1144 : 				lpUser->GameShop.MainStorage[i].AuthID		= rand()%250000+1700/12;

  00060	e8 00 00 00 00	 call	 _rand
  00065	99		 cdq
  00066	b9 90 d0 03 00	 mov	 ecx, 250000		; 0003d090H
  0006b	f7 f9		 idiv	 ecx

; 1145 : 				lpUser->GameShop.MainStorage[i].ItemID		= lpItem->ItemID;

  0006d	8b 45 0c	 mov	 eax, DWORD PTR _lpItem$[ebp]

; 1146 : 				lpUser->GameShop.MainStorage[i].IBSID		= lpItem->IBSID;
; 1147 : 				lpUser->GameShop.MainStorage[i].IBSCategory	= lpItem->IBSCategory;
; 1148 : 				lpUser->GameShop.MainStorage[i].IBSIndex	= lpItem->IBSIndex;
; 1149 : 				GDSaveStorageItem(aIndex, lpUser->GameShop.MainStorage[i]);

  00070	83 ec 1c	 sub	 esp, 28			; 0000001cH
  00073	81 c2 8d 00 00
	00		 add	 edx, 141		; 0000008dH
  00079	89 97 14 23 00
	00		 mov	 DWORD PTR [edi+8980], edx
  0007f	66 8b 50 02	 mov	 dx, WORD PTR [eax+2]
  00083	66 89 97 18 23
	00 00		 mov	 WORD PTR [edi+8984], dx
  0008a	8b 48 1c	 mov	 ecx, DWORD PTR [eax+28]
  0008d	89 8f 1a 23 00
	00		 mov	 DWORD PTR [edi+8986], ecx
  00093	8b 50 20	 mov	 edx, DWORD PTR [eax+32]
  00096	89 97 1e 23 00
	00		 mov	 DWORD PTR [edi+8990], edx
  0009c	8b 40 24	 mov	 eax, DWORD PTR [eax+36]
  0009f	89 87 22 23 00
	00		 mov	 DWORD PTR [edi+8994], eax
  000a5	8b fc		 mov	 edi, esp
  000a7	b9 06 00 00 00	 mov	 ecx, 6
  000ac	f3 a5		 rep movsd
  000ae	8b 4d 08	 mov	 ecx, DWORD PTR _aIndex$[ebp]
  000b1	51		 push	 ecx
  000b2	8b cb		 mov	 ecx, ebx
  000b4	66 a5		 movsw
  000b6	e8 00 00 00 00	 call	 ?GDSaveStorageItem@GameShop@@QAEXHUGAMESHOP_USER_STORAGE@@@Z ; GameShop::GDSaveStorageItem

; 1174 : }

  000bb	5f		 pop	 edi
  000bc	5e		 pop	 esi
  000bd	b0 01		 mov	 al, 1
  000bf	5b		 pop	 ebx
  000c0	5d		 pop	 ebp
  000c1	c2 0c 00	 ret	 12			; 0000000cH
?AddItemInStorage@GameShop@@QAE_NHPAUGAMESHOP_ITEM_DATA@@E@Z ENDP ; GameShop::AddItemInStorage
_TEXT	ENDS
PUBLIC	?AddPackageInStorage@GameShop@@QAE_NHPAUGAMESHOP_ITEM_DATA@@E@Z ; GameShop::AddPackageInStorage
; Function compile flags: /Ogtp
;	COMDAT ?AddPackageInStorage@GameShop@@QAE_NHPAUGAMESHOP_ITEM_DATA@@E@Z
_TEXT	SEGMENT
_this$ = -4						; size = 4
_aIndex$ = 8						; size = 4
_lpItem$ = 12						; size = 4
_Type$ = 16						; size = 1
?AddPackageInStorage@GameShop@@QAE_NHPAUGAMESHOP_ITEM_DATA@@E@Z PROC ; GameShop::AddPackageInStorage, COMDAT
; _this$ = ecx

; 1178 : {

  00000	55		 push	 ebp
  00001	8b ec		 mov	 ebp, esp
  00003	51		 push	 ecx
  00004	89 4d fc	 mov	 DWORD PTR _this$[ebp], ecx

; 1179 : #if( GAMESHOP_DEBUG == 1 )
; 1180 : 	LogAddC(2, "[DEBUG] [%s] [%s] [%s]", __FUNCTION__, &gObj[aIndex].AccountID, &gObj[aIndex].Name);
; 1181 : #endif
; 1182 : 	// ----
; 1183 : 	LPOBJ lpUser = &gObj[aIndex];

  00007	8b 4d 08	 mov	 ecx, DWORD PTR _aIndex$[ebp]
  0000a	69 c9 50 2b 00
	00		 imul	 ecx, 11088		; 00002b50H
  00010	03 0d 00 00 00
	00		 add	 ecx, DWORD PTR ?gObj@@3PAUOBJECTSTRUCT@@A ; gObj

; 1184 : 	// ----
; 1185 : 	if( Type == 0 )	//-> Main Storage

  00016	80 7d 10 00	 cmp	 BYTE PTR _Type$[ebp], 0
  0001a	56		 push	 esi
  0001b	57		 push	 edi
  0001c	75 1c		 jne	 SHORT $LN2@AddPackage

; 1186 : 	{
; 1187 : 		for( int i = 0; i < MAX_STORAGE_ITEM; i++ )

  0001e	33 c0		 xor	 eax, eax
  00020	8d 91 14 23 00
	00		 lea	 edx, DWORD PTR [ecx+8980]
$LL4@AddPackage:

; 1188 : 		{
; 1189 : 			if( lpUser->GameShop.MainStorage[i].AuthIndex == 0 && lpUser->GameShop.MainStorage[i].AuthID == 0 )

  00026	83 7a fc 00	 cmp	 DWORD PTR [edx-4], 0
  0002a	75 05		 jne	 SHORT $LN3@AddPackage
  0002c	83 3a 00	 cmp	 DWORD PTR [edx], 0
  0002f	74 13		 je	 SHORT $LN9@AddPackage
$LN3@AddPackage:

; 1186 : 	{
; 1187 : 		for( int i = 0; i < MAX_STORAGE_ITEM; i++ )

  00031	40		 inc	 eax
  00032	83 c2 1a	 add	 edx, 26			; 0000001aH
  00035	83 f8 1e	 cmp	 eax, 30			; 0000001eH
  00038	7c ec		 jl	 SHORT $LL4@AddPackage
$LN2@AddPackage:

; 1199 : 				// ----
; 1200 : 				return true;
; 1201 : 			}
; 1202 : 		}
; 1203 : 	}
; 1204 : 	/*else if( Type == 1 )	//-> Gift Storage
; 1205 : 	{
; 1206 : 		for( int i = 0; i < MAX_STORAGE_ITEM; i++ )
; 1207 : 		{
; 1208 : 			if( lpUser->GameShop.GiftStorage[i].AuthIndex == 0 && lpUser->GameShop.GiftStorage[i].AuthID == 0 )
; 1209 : 			{
; 1210 : 				lpUser->GameShop.GiftStorage[i].AuthIndex	= rand()%10000+4400/200;
; 1211 : 				lpUser->GameShop.GiftStorage[i].AuthID		= rand()%250000+1700/12;
; 1212 : 				lpUser->GameShop.GiftStorage[i].ItemID		= lpItem->ItemID;
; 1213 : 				lpUser->GameShop.GiftStorage[i].IBSID		= lpItem->IBSID;
; 1214 : 				lpUser->GameShop.GiftStorage[i].IBSCategory	= 0;
; 1215 : 				lpUser->GameShop.GiftStorage[i].IBSIndex	= 0;
; 1216 : 				lpUser->GameShop.GiftStorage[i].PackageID	= lpItem->PackageID;
; 1217 : 				// ----
; 1218 : 				return true;
; 1219 : 			}
; 1220 : 		}
; 1221 : 	}*/
; 1222 : 	// ----
; 1223 : 	return false;

  0003a	32 c0		 xor	 al, al

; 1224 : }

  0003c	5f		 pop	 edi
  0003d	5e		 pop	 esi
  0003e	8b e5		 mov	 esp, ebp
  00040	5d		 pop	 ebp
  00041	c2 0c 00	 ret	 12			; 0000000cH
$LN9@AddPackage:

; 1190 : 			{
; 1191 : 				lpUser->GameShop.MainStorage[i].AuthIndex	= rand()%10000+4400/200;

  00044	6b c0 1a	 imul	 eax, 26			; 0000001aH
  00047	8d 3c 08	 lea	 edi, DWORD PTR [eax+ecx]
  0004a	8d b7 10 23 00
	00		 lea	 esi, DWORD PTR [edi+8976]
  00050	e8 00 00 00 00	 call	 _rand
  00055	99		 cdq
  00056	b9 10 27 00 00	 mov	 ecx, 10000		; 00002710H
  0005b	f7 f9		 idiv	 ecx
  0005d	83 c2 16	 add	 edx, 22			; 00000016H
  00060	89 16		 mov	 DWORD PTR [esi], edx

; 1192 : 				lpUser->GameShop.MainStorage[i].AuthID		= rand()%250000+1700/12;

  00062	e8 00 00 00 00	 call	 _rand
  00067	99		 cdq
  00068	b9 90 d0 03 00	 mov	 ecx, 250000		; 0003d090H
  0006d	f7 f9		 idiv	 ecx

; 1193 : 				lpUser->GameShop.MainStorage[i].ItemID		= lpItem->ItemID;

  0006f	8b 45 0c	 mov	 eax, DWORD PTR _lpItem$[ebp]

; 1194 : 				lpUser->GameShop.MainStorage[i].IBSID		= lpItem->IBSID;
; 1195 : 				lpUser->GameShop.MainStorage[i].IBSCategory	= 0;
; 1196 : 				lpUser->GameShop.MainStorage[i].IBSIndex	= 0;
; 1197 : 				lpUser->GameShop.MainStorage[i].PackageID	= lpItem->PackageID;
; 1198 : 				GDSaveStorageItem(aIndex, lpUser->GameShop.MainStorage[i]);

  00072	83 ec 1c	 sub	 esp, 28			; 0000001cH
  00075	81 c2 8d 00 00
	00		 add	 edx, 141		; 0000008dH
  0007b	89 97 14 23 00
	00		 mov	 DWORD PTR [edi+8980], edx
  00081	66 8b 50 02	 mov	 dx, WORD PTR [eax+2]
  00085	66 89 97 18 23
	00 00		 mov	 WORD PTR [edi+8984], dx
  0008c	8b 48 1c	 mov	 ecx, DWORD PTR [eax+28]
  0008f	89 8f 1a 23 00
	00		 mov	 DWORD PTR [edi+8986], ecx
  00095	c7 87 1e 23 00
	00 00 00 00 00	 mov	 DWORD PTR [edi+8990], 0
  0009f	c7 87 22 23 00
	00 00 00 00 00	 mov	 DWORD PTR [edi+8994], 0
  000a9	0f bf 10	 movsx	 edx, WORD PTR [eax]
  000ac	8b 45 08	 mov	 eax, DWORD PTR _aIndex$[ebp]
  000af	89 97 26 23 00
	00		 mov	 DWORD PTR [edi+8998], edx
  000b5	8b fc		 mov	 edi, esp
  000b7	b9 06 00 00 00	 mov	 ecx, 6
  000bc	f3 a5		 rep movsd
  000be	8b 4d fc	 mov	 ecx, DWORD PTR _this$[ebp]
  000c1	50		 push	 eax
  000c2	66 a5		 movsw
  000c4	e8 00 00 00 00	 call	 ?GDSaveStorageItem@GameShop@@QAEXHUGAMESHOP_USER_STORAGE@@@Z ; GameShop::GDSaveStorageItem

; 1224 : }

  000c9	5f		 pop	 edi
  000ca	b0 01		 mov	 al, 1
  000cc	5e		 pop	 esi
  000cd	8b e5		 mov	 esp, ebp
  000cf	5d		 pop	 ebp
  000d0	c2 0c 00	 ret	 12			; 0000000cH
?AddPackageInStorage@GameShop@@QAE_NHPAUGAMESHOP_ITEM_DATA@@E@Z ENDP ; GameShop::AddPackageInStorage
_TEXT	ENDS
PUBLIC	?DeleteItemInStorage@GameShop@@QAE_NHHH@Z	; GameShop::DeleteItemInStorage
; Function compile flags: /Ogtp
;	COMDAT ?DeleteItemInStorage@GameShop@@QAE_NHHH@Z
_TEXT	SEGMENT
_pUpdate$ = -16						; size = 10
_this$ = -4						; size = 4
_aIndex$ = 8						; size = 4
_AuthIndex$ = 12					; size = 4
_AuthID$ = 16						; size = 4
?DeleteItemInStorage@GameShop@@QAE_NHHH@Z PROC		; GameShop::DeleteItemInStorage, COMDAT
; _this$ = ecx

; 1255 : {

  00000	55		 push	 ebp
  00001	8b ec		 mov	 ebp, esp
  00003	83 ec 10	 sub	 esp, 16			; 00000010H

; 1256 : 	GAMESHOP_REQ_STORAGE pUpdate = { 0 };

  00006	33 c0		 xor	 eax, eax
  00008	89 45 f1	 mov	 DWORD PTR _pUpdate$[ebp+1], eax
  0000b	89 45 f5	 mov	 DWORD PTR _pUpdate$[ebp+5], eax
  0000e	88 45 f9	 mov	 BYTE PTR _pUpdate$[ebp+9], al

; 1257 : 	LPOBJ lpUser = &gObj[aIndex];

  00011	8b 45 08	 mov	 eax, DWORD PTR _aIndex$[ebp]
  00014	69 c0 50 2b 00
	00		 imul	 eax, 11088		; 00002b50H
  0001a	03 05 00 00 00
	00		 add	 eax, DWORD PTR ?gObj@@3PAUOBJECTSTRUCT@@A ; gObj
  00020	53		 push	 ebx
  00021	56		 push	 esi
  00022	8b 75 10	 mov	 esi, DWORD PTR _AuthID$[ebp]
  00025	8b d1		 mov	 edx, ecx
  00027	57		 push	 edi
  00028	8b 7d 0c	 mov	 edi, DWORD PTR _AuthIndex$[ebp]
  0002b	89 55 fc	 mov	 DWORD PTR _this$[ebp], edx
  0002e	c6 45 f0 00	 mov	 BYTE PTR _pUpdate$[ebp], 0

; 1258 : 	// ----
; 1259 : 	for( int i = 0; i < MAX_STORAGE_ITEM; i++ )

  00032	33 db		 xor	 ebx, ebx
  00034	8d 88 14 23 00
	00		 lea	 ecx, DWORD PTR [eax+8980]
  0003a	8d 9b 00 00 00
	00		 npad	 6
$LL4@DeleteItem:

; 1260 : 	{
; 1261 : 		if( lpUser->GameShop.MainStorage[i].AuthIndex == AuthIndex && lpUser->GameShop.MainStorage[i].AuthID == AuthID )

  00040	39 79 fc	 cmp	 DWORD PTR [ecx-4], edi
  00043	75 04		 jne	 SHORT $LN3@DeleteItem
  00045	39 31		 cmp	 DWORD PTR [ecx], esi
  00047	74 14		 je	 SHORT $LN8@DeleteItem
$LN3@DeleteItem:

; 1258 : 	// ----
; 1259 : 	for( int i = 0; i < MAX_STORAGE_ITEM; i++ )

  00049	43		 inc	 ebx
  0004a	83 c1 1a	 add	 ecx, 26			; 0000001aH
  0004d	83 fb 1e	 cmp	 ebx, 30			; 0000001eH
  00050	7c ee		 jl	 SHORT $LL4@DeleteItem

; 1267 : 			return true;
; 1268 : 		}
; 1269 : 		//else if( lpUser->GameShop.GiftStorage[i].AuthIndex == AuthIndex && lpUser->GameShop.GiftStorage[i].AuthID == AuthID )
; 1270 : 		//{
; 1271 : 		//	pUpdate.StorageType = 0x47;
; 1272 : 		//	ZeroMemory(&lpUser->GameShop.GiftStorage[i], sizeof(lpUser->GameShop.GiftStorage[i]));
; 1273 : 		//	this->RequestStorage(aIndex, &pUpdate);
; 1274 : 		//	return true;
; 1275 : 		//}
; 1276 : 	}
; 1277 : 	// ----
; 1278 : 	return false;

  00052	32 c0		 xor	 al, al

; 1279 : }

  00054	5f		 pop	 edi
  00055	5e		 pop	 esi
  00056	5b		 pop	 ebx
  00057	8b e5		 mov	 esp, ebp
  00059	5d		 pop	 ebp
  0005a	c2 0c 00	 ret	 12			; 0000000cH
$LN8@DeleteItem:

; 1262 : 		{
; 1263 : 			pUpdate.StorageType = 0x53;
; 1264 : 			GDDeleteStorageItem(aIndex, lpUser->GameShop.MainStorage[i]);

  0005d	6b db 1a	 imul	 ebx, 26			; 0000001aH
  00060	8d 9c 03 10 23
	00 00		 lea	 ebx, DWORD PTR [ebx+eax+8976]
  00067	8b 45 08	 mov	 eax, DWORD PTR _aIndex$[ebp]
  0006a	83 ec 1c	 sub	 esp, 28			; 0000001cH
  0006d	8b fc		 mov	 edi, esp
  0006f	b9 06 00 00 00	 mov	 ecx, 6
  00074	8b f3		 mov	 esi, ebx
  00076	f3 a5		 rep movsd
  00078	50		 push	 eax
  00079	8b ca		 mov	 ecx, edx
  0007b	c6 45 f8 53	 mov	 BYTE PTR _pUpdate$[ebp+8], 83 ; 00000053H
  0007f	66 a5		 movsw
  00081	e8 00 00 00 00	 call	 ?GDDeleteStorageItem@GameShop@@QAEXHUGAMESHOP_USER_STORAGE@@@Z ; GameShop::GDDeleteStorageItem

; 1265 : 			ZeroMemory(&lpUser->GameShop.MainStorage[i], sizeof(lpUser->GameShop.MainStorage[i]));
; 1266 : 			this->RequestStorage(aIndex, &pUpdate);

  00086	8b 55 08	 mov	 edx, DWORD PTR _aIndex$[ebp]
  00089	33 c0		 xor	 eax, eax
  0008b	89 03		 mov	 DWORD PTR [ebx], eax
  0008d	89 43 04	 mov	 DWORD PTR [ebx+4], eax
  00090	89 43 08	 mov	 DWORD PTR [ebx+8], eax
  00093	89 43 0c	 mov	 DWORD PTR [ebx+12], eax
  00096	8d 4d f0	 lea	 ecx, DWORD PTR _pUpdate$[ebp]
  00099	51		 push	 ecx
  0009a	8b 4d fc	 mov	 ecx, DWORD PTR _this$[ebp]
  0009d	89 43 10	 mov	 DWORD PTR [ebx+16], eax
  000a0	89 43 14	 mov	 DWORD PTR [ebx+20], eax
  000a3	52		 push	 edx
  000a4	66 89 43 18	 mov	 WORD PTR [ebx+24], ax
  000a8	e8 00 00 00 00	 call	 ?RequestStorage@GameShop@@QAEXHPAUGAMESHOP_REQ_STORAGE@@@Z ; GameShop::RequestStorage

; 1279 : }

  000ad	5f		 pop	 edi
  000ae	5e		 pop	 esi
  000af	b0 01		 mov	 al, 1
  000b1	5b		 pop	 ebx
  000b2	8b e5		 mov	 esp, ebp
  000b4	5d		 pop	 ebp
  000b5	c2 0c 00	 ret	 12			; 0000000cH
?DeleteItemInStorage@GameShop@@QAE_NHHH@Z ENDP		; GameShop::DeleteItemInStorage
_TEXT	ENDS
PUBLIC	??9?$_Tree_const_iterator@V?$_Tree_val@V?$_Tmap_traits@HPAUGAMESHOP_ITEM_DATA@@U?$less@H@std@@V?$allocator@U?$pair@$$CBHPAUGAMESHOP_ITEM_DATA@@@std@@@3@$0A@@std@@@std@@@std@@QBE_NABV01@@Z ; std::_Tree_const_iterator<std::_Tree_val<std::_Tmap_traits<int,GAMESHOP_ITEM_DATA *,std::less<int>,std::allocator<std::pair<int const ,GAMESHOP_ITEM_DATA *> >,0> > >::operator!=
; Function compile flags: /Ogtp
; File d:\program files (x86)\microsoft visual studio 10.0\vc\include\xtree
;	COMDAT ??9?$_Tree_const_iterator@V?$_Tree_val@V?$_Tmap_traits@HPAUGAMESHOP_ITEM_DATA@@U?$less@H@std@@V?$allocator@U?$pair@$$CBHPAUGAMESHOP_ITEM_DATA@@@std@@@3@$0A@@std@@@std@@@std@@QBE_NABV01@@Z
_TEXT	SEGMENT
__Right$ = 8						; size = 4
??9?$_Tree_const_iterator@V?$_Tree_val@V?$_Tmap_traits@HPAUGAMESHOP_ITEM_DATA@@U?$less@H@std@@V?$allocator@U?$pair@$$CBHPAUGAMESHOP_ITEM_DATA@@@std@@@3@$0A@@std@@@std@@@std@@QBE_NABV01@@Z PROC ; std::_Tree_const_iterator<std::_Tree_val<std::_Tmap_traits<int,GAMESHOP_ITEM_DATA *,std::less<int>,std::allocator<std::pair<int const ,GAMESHOP_ITEM_DATA *> >,0> > >::operator!=, COMDAT
; _this$ = ecx

; 334  : 		{	// test for iterator inequality

  00000	55		 push	 ebp
  00001	8b ec		 mov	 ebp, esp

; 335  : 		return (!(*this == _Right));

  00003	8b 01		 mov	 eax, DWORD PTR [ecx]
  00005	8b 55 08	 mov	 edx, DWORD PTR __Right$[ebp]
  00008	33 c9		 xor	 ecx, ecx
  0000a	3b 02		 cmp	 eax, DWORD PTR [edx]
  0000c	0f 95 c0	 setne	 al

; 336  : 		}

  0000f	5d		 pop	 ebp
  00010	c2 04 00	 ret	 4
??9?$_Tree_const_iterator@V?$_Tree_val@V?$_Tmap_traits@HPAUGAMESHOP_ITEM_DATA@@U?$less@H@std@@V?$allocator@U?$pair@$$CBHPAUGAMESHOP_ITEM_DATA@@@std@@@3@$0A@@std@@@std@@@std@@QBE_NABV01@@Z ENDP ; std::_Tree_const_iterator<std::_Tree_val<std::_Tmap_traits<int,GAMESHOP_ITEM_DATA *,std::less<int>,std::allocator<std::pair<int const ,GAMESHOP_ITEM_DATA *> >,0> > >::operator!=
_TEXT	ENDS
PUBLIC	??9?$_Tree_const_iterator@V?$_Tree_val@V?$_Tmap_traits@HPAUGAMESHOP_PACKAGE_DATA@@U?$less@H@std@@V?$allocator@U?$pair@$$CBHPAUGAMESHOP_PACKAGE_DATA@@@std@@@3@$0A@@std@@@std@@@std@@QBE_NABV01@@Z ; std::_Tree_const_iterator<std::_Tree_val<std::_Tmap_traits<int,GAMESHOP_PACKAGE_DATA *,std::less<int>,std::allocator<std::pair<int const ,GAMESHOP_PACKAGE_DATA *> >,0> > >::operator!=
; Function compile flags: /Ogtp
;	COMDAT ??9?$_Tree_const_iterator@V?$_Tree_val@V?$_Tmap_traits@HPAUGAMESHOP_PACKAGE_DATA@@U?$less@H@std@@V?$allocator@U?$pair@$$CBHPAUGAMESHOP_PACKAGE_DATA@@@std@@@3@$0A@@std@@@std@@@std@@QBE_NABV01@@Z
_TEXT	SEGMENT
__Right$ = 8						; size = 4
??9?$_Tree_const_iterator@V?$_Tree_val@V?$_Tmap_traits@HPAUGAMESHOP_PACKAGE_DATA@@U?$less@H@std@@V?$allocator@U?$pair@$$CBHPAUGAMESHOP_PACKAGE_DATA@@@std@@@3@$0A@@std@@@std@@@std@@QBE_NABV01@@Z PROC ; std::_Tree_const_iterator<std::_Tree_val<std::_Tmap_traits<int,GAMESHOP_PACKAGE_DATA *,std::less<int>,std::allocator<std::pair<int const ,GAMESHOP_PACKAGE_DATA *> >,0> > >::operator!=, COMDAT
; _this$ = ecx

; 334  : 		{	// test for iterator inequality

  00000	55		 push	 ebp
  00001	8b ec		 mov	 ebp, esp

; 335  : 		return (!(*this == _Right));

  00003	8b 01		 mov	 eax, DWORD PTR [ecx]
  00005	8b 55 08	 mov	 edx, DWORD PTR __Right$[ebp]
  00008	33 c9		 xor	 ecx, ecx
  0000a	3b 02		 cmp	 eax, DWORD PTR [edx]
  0000c	0f 95 c0	 setne	 al

; 336  : 		}

  0000f	5d		 pop	 ebp
  00010	c2 04 00	 ret	 4
??9?$_Tree_const_iterator@V?$_Tree_val@V?$_Tmap_traits@HPAUGAMESHOP_PACKAGE_DATA@@U?$less@H@std@@V?$allocator@U?$pair@$$CBHPAUGAMESHOP_PACKAGE_DATA@@@std@@@3@$0A@@std@@@std@@@std@@QBE_NABV01@@Z ENDP ; std::_Tree_const_iterator<std::_Tree_val<std::_Tmap_traits<int,GAMESHOP_PACKAGE_DATA *,std::less<int>,std::allocator<std::pair<int const ,GAMESHOP_PACKAGE_DATA *> >,0> > >::operator!=
_TEXT	ENDS
PUBLIC	?_Lmost@?$_Tree@V?$_Tmap_traits@HPAUGAMESHOP_ITEM_DATA@@U?$less@H@std@@V?$allocator@U?$pair@$$CBHPAUGAMESHOP_ITEM_DATA@@@std@@@3@$0A@@std@@@std@@IBEAAPAU_Node@?$_Tree_nod@V?$_Tmap_traits@HPAUGAMESHOP_ITEM_DATA@@U?$less@H@std@@V?$allocator@U?$pair@$$CBHPAUGAMESHOP_ITEM_DATA@@@std@@@3@$0A@@std@@@2@XZ ; std::_Tree<std::_Tmap_traits<int,GAMESHOP_ITEM_DATA *,std::less<int>,std::allocator<std::pair<int const ,GAMESHOP_ITEM_DATA *> >,0> >::_Lmost
; Function compile flags: /Ogtp
;	COMDAT ?_Lmost@?$_Tree@V?$_Tmap_traits@HPAUGAMESHOP_ITEM_DATA@@U?$less@H@std@@V?$allocator@U?$pair@$$CBHPAUGAMESHOP_ITEM_DATA@@@std@@@3@$0A@@std@@@std@@IBEAAPAU_Node@?$_Tree_nod@V?$_Tmap_traits@HPAUGAMESHOP_ITEM_DATA@@U?$less@H@std@@V?$allocator@U?$pair@$$CBHPAUGAMESHOP_ITEM_DATA@@@std@@@3@$0A@@std@@@2@XZ
_TEXT	SEGMENT
?_Lmost@?$_Tree@V?$_Tmap_traits@HPAUGAMESHOP_ITEM_DATA@@U?$less@H@std@@V?$allocator@U?$pair@$$CBHPAUGAMESHOP_ITEM_DATA@@@std@@@3@$0A@@std@@@std@@IBEAAPAU_Node@?$_Tree_nod@V?$_Tmap_traits@HPAUGAMESHOP_ITEM_DATA@@U?$less@H@std@@V?$allocator@U?$pair@$$CBHPAUGAMESHOP_ITEM_DATA@@@std@@@3@$0A@@std@@@2@XZ PROC ; std::_Tree<std::_Tmap_traits<int,GAMESHOP_ITEM_DATA *,std::less<int>,std::allocator<std::pair<int const ,GAMESHOP_ITEM_DATA *> >,0> >::_Lmost, COMDAT
; _this$ = ecx

; 1759 : 		return (this->_Left(this->_Myhead));

  00000	8b 41 04	 mov	 eax, DWORD PTR [ecx+4]

; 1760 : 		}

  00003	c3		 ret	 0
?_Lmost@?$_Tree@V?$_Tmap_traits@HPAUGAMESHOP_ITEM_DATA@@U?$less@H@std@@V?$allocator@U?$pair@$$CBHPAUGAMESHOP_ITEM_DATA@@@std@@@3@$0A@@std@@@std@@IBEAAPAU_Node@?$_Tree_nod@V?$_Tmap_traits@HPAUGAMESHOP_ITEM_DATA@@U?$less@H@std@@V?$allocator@U?$pair@$$CBHPAUGAMESHOP_ITEM_DATA@@@std@@@3@$0A@@std@@@2@XZ ENDP ; std::_Tree<std::_Tmap_traits<int,GAMESHOP_ITEM_DATA *,std::less<int>,std::allocator<std::pair<int const ,GAMESHOP_ITEM_DATA *> >,0> >::_Lmost
_TEXT	ENDS
PUBLIC	?_Rmost@?$_Tree@V?$_Tmap_traits@HPAUGAMESHOP_ITEM_DATA@@U?$less@H@std@@V?$allocator@U?$pair@$$CBHPAUGAMESHOP_ITEM_DATA@@@std@@@3@$0A@@std@@@std@@IBEAAPAU_Node@?$_Tree_nod@V?$_Tmap_traits@HPAUGAMESHOP_ITEM_DATA@@U?$less@H@std@@V?$allocator@U?$pair@$$CBHPAUGAMESHOP_ITEM_DATA@@@std@@@3@$0A@@std@@@2@XZ ; std::_Tree<std::_Tmap_traits<int,GAMESHOP_ITEM_DATA *,std::less<int>,std::allocator<std::pair<int const ,GAMESHOP_ITEM_DATA *> >,0> >::_Rmost
; Function compile flags: /Ogtp
;	COMDAT ?_Rmost@?$_Tree@V?$_Tmap_traits@HPAUGAMESHOP_ITEM_DATA@@U?$less@H@std@@V?$allocator@U?$pair@$$CBHPAUGAMESHOP_ITEM_DATA@@@std@@@3@$0A@@std@@@std@@IBEAAPAU_Node@?$_Tree_nod@V?$_Tmap_traits@HPAUGAMESHOP_ITEM_DATA@@U?$less@H@std@@V?$allocator@U?$pair@$$CBHPAUGAMESHOP_ITEM_DATA@@@std@@@3@$0A@@std@@@2@XZ
_TEXT	SEGMENT
?_Rmost@?$_Tree@V?$_Tmap_traits@HPAUGAMESHOP_ITEM_DATA@@U?$less@H@std@@V?$allocator@U?$pair@$$CBHPAUGAMESHOP_ITEM_DATA@@@std@@@3@$0A@@std@@@std@@IBEAAPAU_Node@?$_Tree_nod@V?$_Tmap_traits@HPAUGAMESHOP_ITEM_DATA@@U?$less@H@std@@V?$allocator@U?$pair@$$CBHPAUGAMESHOP_ITEM_DATA@@@std@@@3@$0A@@std@@@2@XZ PROC ; std::_Tree<std::_Tmap_traits<int,GAMESHOP_ITEM_DATA *,std::less<int>,std::allocator<std::pair<int const ,GAMESHOP_ITEM_DATA *> >,0> >::_Rmost, COMDAT
; _this$ = ecx

; 1784 : 		return (this->_Right(this->_Myhead));

  00000	8b 41 04	 mov	 eax, DWORD PTR [ecx+4]
  00003	83 c0 08	 add	 eax, 8

; 1785 : 		}

  00006	c3		 ret	 0
?_Rmost@?$_Tree@V?$_Tmap_traits@HPAUGAMESHOP_ITEM_DATA@@U?$less@H@std@@V?$allocator@U?$pair@$$CBHPAUGAMESHOP_ITEM_DATA@@@std@@@3@$0A@@std@@@std@@IBEAAPAU_Node@?$_Tree_nod@V?$_Tmap_traits@HPAUGAMESHOP_ITEM_DATA@@U?$less@H@std@@V?$allocator@U?$pair@$$CBHPAUGAMESHOP_ITEM_DATA@@@std@@@3@$0A@@std@@@2@XZ ENDP ; std::_Tree<std::_Tmap_traits<int,GAMESHOP_ITEM_DATA *,std::less<int>,std::allocator<std::pair<int const ,GAMESHOP_ITEM_DATA *> >,0> >::_Rmost
_TEXT	ENDS
PUBLIC	?_Root@?$_Tree@V?$_Tmap_traits@HPAUGAMESHOP_ITEM_DATA@@U?$less@H@std@@V?$allocator@U?$pair@$$CBHPAUGAMESHOP_ITEM_DATA@@@std@@@3@$0A@@std@@@std@@IBEAAPAU_Node@?$_Tree_nod@V?$_Tmap_traits@HPAUGAMESHOP_ITEM_DATA@@U?$less@H@std@@V?$allocator@U?$pair@$$CBHPAUGAMESHOP_ITEM_DATA@@@std@@@3@$0A@@std@@@2@XZ ; std::_Tree<std::_Tmap_traits<int,GAMESHOP_ITEM_DATA *,std::less<int>,std::allocator<std::pair<int const ,GAMESHOP_ITEM_DATA *> >,0> >::_Root
; Function compile flags: /Ogtp
;	COMDAT ?_Root@?$_Tree@V?$_Tmap_traits@HPAUGAMESHOP_ITEM_DATA@@U?$less@H@std@@V?$allocator@U?$pair@$$CBHPAUGAMESHOP_ITEM_DATA@@@std@@@3@$0A@@std@@@std@@IBEAAPAU_Node@?$_Tree_nod@V?$_Tmap_traits@HPAUGAMESHOP_ITEM_DATA@@U?$less@H@std@@V?$allocator@U?$pair@$$CBHPAUGAMESHOP_ITEM_DATA@@@std@@@3@$0A@@std@@@2@XZ
_TEXT	SEGMENT
?_Root@?$_Tree@V?$_Tmap_traits@HPAUGAMESHOP_ITEM_DATA@@U?$less@H@std@@V?$allocator@U?$pair@$$CBHPAUGAMESHOP_ITEM_DATA@@@std@@@3@$0A@@std@@@std@@IBEAAPAU_Node@?$_Tree_nod@V?$_Tmap_traits@HPAUGAMESHOP_ITEM_DATA@@U?$less@H@std@@V?$allocator@U?$pair@$$CBHPAUGAMESHOP_ITEM_DATA@@@std@@@3@$0A@@std@@@2@XZ PROC ; std::_Tree<std::_Tmap_traits<int,GAMESHOP_ITEM_DATA *,std::less<int>,std::allocator<std::pair<int const ,GAMESHOP_ITEM_DATA *> >,0> >::_Root, COMDAT
; _this$ = ecx

; 1789 : 		return (this->_Parent(this->_Myhead));

  00000	8b 41 04	 mov	 eax, DWORD PTR [ecx+4]
  00003	83 c0 04	 add	 eax, 4

; 1790 : 		}

  00006	c3		 ret	 0
?_Root@?$_Tree@V?$_Tmap_traits@HPAUGAMESHOP_ITEM_DATA@@U?$less@H@std@@V?$allocator@U?$pair@$$CBHPAUGAMESHOP_ITEM_DATA@@@std@@@3@$0A@@std@@@std@@IBEAAPAU_Node@?$_Tree_nod@V?$_Tmap_traits@HPAUGAMESHOP_ITEM_DATA@@U?$less@H@std@@V?$allocator@U?$pair@$$CBHPAUGAMESHOP_ITEM_DATA@@@std@@@3@$0A@@std@@@2@XZ ENDP ; std::_Tree<std::_Tmap_traits<int,GAMESHOP_ITEM_DATA *,std::less<int>,std::allocator<std::pair<int const ,GAMESHOP_ITEM_DATA *> >,0> >::_Root
_TEXT	ENDS
PUBLIC	??1?$_Tree_val@V?$_Tmap_traits@HPAUGAMESHOP_ITEM_DATA@@U?$less@H@std@@V?$allocator@U?$pair@$$CBHPAUGAMESHOP_ITEM_DATA@@@std@@@3@$0A@@std@@@std@@QAE@XZ ; std::_Tree_val<std::_Tmap_traits<int,GAMESHOP_ITEM_DATA *,std::less<int>,std::allocator<std::pair<int const ,GAMESHOP_ITEM_DATA *> >,0> >::~_Tree_val<std::_Tmap_traits<int,GAMESHOP_ITEM_DATA *,std::less<int>,std::allocator<std::pair<int const ,GAMESHOP_ITEM_DATA *> >,0> >
; Function compile flags: /Ogtp
;	COMDAT ??1?$_Tree_val@V?$_Tmap_traits@HPAUGAMESHOP_ITEM_DATA@@U?$less@H@std@@V?$allocator@U?$pair@$$CBHPAUGAMESHOP_ITEM_DATA@@@std@@@3@$0A@@std@@@std@@QAE@XZ
_TEXT	SEGMENT
??1?$_Tree_val@V?$_Tmap_traits@HPAUGAMESHOP_ITEM_DATA@@U?$less@H@std@@V?$allocator@U?$pair@$$CBHPAUGAMESHOP_ITEM_DATA@@@std@@@3@$0A@@std@@@std@@QAE@XZ PROC ; std::_Tree_val<std::_Tmap_traits<int,GAMESHOP_ITEM_DATA *,std::less<int>,std::allocator<std::pair<int const ,GAMESHOP_ITEM_DATA *> >,0> >::~_Tree_val<std::_Tmap_traits<int,GAMESHOP_ITEM_DATA *,std::less<int>,std::allocator<std::pair<int const ,GAMESHOP_ITEM_DATA *> >,0> >, COMDAT
; _this$ = ecx

; 555  : 		this->_Alnod.deallocate(this->_Myhead, 1);

  00000	8b 41 04	 mov	 eax, DWORD PTR [ecx+4]
  00003	50		 push	 eax
  00004	e8 00 00 00 00	 call	 ??3@YAXPAX@Z		; operator delete
  00009	59		 pop	 ecx

; 556  : 		}

  0000a	c3		 ret	 0
??1?$_Tree_val@V?$_Tmap_traits@HPAUGAMESHOP_ITEM_DATA@@U?$less@H@std@@V?$allocator@U?$pair@$$CBHPAUGAMESHOP_ITEM_DATA@@@std@@@3@$0A@@std@@@std@@QAE@XZ ENDP ; std::_Tree_val<std::_Tmap_traits<int,GAMESHOP_ITEM_DATA *,std::less<int>,std::allocator<std::pair<int const ,GAMESHOP_ITEM_DATA *> >,0> >::~_Tree_val<std::_Tmap_traits<int,GAMESHOP_ITEM_DATA *,std::less<int>,std::allocator<std::pair<int const ,GAMESHOP_ITEM_DATA *> >,0> >
_TEXT	ENDS
PUBLIC	?_Lmost@?$_Tree@V?$_Tmap_traits@HPAUGAMESHOP_PACKAGE_DATA@@U?$less@H@std@@V?$allocator@U?$pair@$$CBHPAUGAMESHOP_PACKAGE_DATA@@@std@@@3@$0A@@std@@@std@@IBEAAPAU_Node@?$_Tree_nod@V?$_Tmap_traits@HPAUGAMESHOP_PACKAGE_DATA@@U?$less@H@std@@V?$allocator@U?$pair@$$CBHPAUGAMESHOP_PACKAGE_DATA@@@std@@@3@$0A@@std@@@2@XZ ; std::_Tree<std::_Tmap_traits<int,GAMESHOP_PACKAGE_DATA *,std::less<int>,std::allocator<std::pair<int const ,GAMESHOP_PACKAGE_DATA *> >,0> >::_Lmost
; Function compile flags: /Ogtp
;	COMDAT ?_Lmost@?$_Tree@V?$_Tmap_traits@HPAUGAMESHOP_PACKAGE_DATA@@U?$less@H@std@@V?$allocator@U?$pair@$$CBHPAUGAMESHOP_PACKAGE_DATA@@@std@@@3@$0A@@std@@@std@@IBEAAPAU_Node@?$_Tree_nod@V?$_Tmap_traits@HPAUGAMESHOP_PACKAGE_DATA@@U?$less@H@std@@V?$allocator@U?$pair@$$CBHPAUGAMESHOP_PACKAGE_DATA@@@std@@@3@$0A@@std@@@2@XZ
_TEXT	SEGMENT
?_Lmost@?$_Tree@V?$_Tmap_traits@HPAUGAMESHOP_PACKAGE_DATA@@U?$less@H@std@@V?$allocator@U?$pair@$$CBHPAUGAMESHOP_PACKAGE_DATA@@@std@@@3@$0A@@std@@@std@@IBEAAPAU_Node@?$_Tree_nod@V?$_Tmap_traits@HPAUGAMESHOP_PACKAGE_DATA@@U?$less@H@std@@V?$allocator@U?$pair@$$CBHPAUGAMESHOP_PACKAGE_DATA@@@std@@@3@$0A@@std@@@2@XZ PROC ; std::_Tree<std::_Tmap_traits<int,GAMESHOP_PACKAGE_DATA *,std::less<int>,std::allocator<std::pair<int const ,GAMESHOP_PACKAGE_DATA *> >,0> >::_Lmost, COMDAT
; _this$ = ecx

; 1759 : 		return (this->_Left(this->_Myhead));

  00000	8b 41 04	 mov	 eax, DWORD PTR [ecx+4]

; 1760 : 		}

  00003	c3		 ret	 0
?_Lmost@?$_Tree@V?$_Tmap_traits@HPAUGAMESHOP_PACKAGE_DATA@@U?$less@H@std@@V?$allocator@U?$pair@$$CBHPAUGAMESHOP_PACKAGE_DATA@@@std@@@3@$0A@@std@@@std@@IBEAAPAU_Node@?$_Tree_nod@V?$_Tmap_traits@HPAUGAMESHOP_PACKAGE_DATA@@U?$less@H@std@@V?$allocator@U?$pair@$$CBHPAUGAMESHOP_PACKAGE_DATA@@@std@@@3@$0A@@std@@@2@XZ ENDP ; std::_Tree<std::_Tmap_traits<int,GAMESHOP_PACKAGE_DATA *,std::less<int>,std::allocator<std::pair<int const ,GAMESHOP_PACKAGE_DATA *> >,0> >::_Lmost
_TEXT	ENDS
PUBLIC	?_Rmost@?$_Tree@V?$_Tmap_traits@HPAUGAMESHOP_PACKAGE_DATA@@U?$less@H@std@@V?$allocator@U?$pair@$$CBHPAUGAMESHOP_PACKAGE_DATA@@@std@@@3@$0A@@std@@@std@@IBEAAPAU_Node@?$_Tree_nod@V?$_Tmap_traits@HPAUGAMESHOP_PACKAGE_DATA@@U?$less@H@std@@V?$allocator@U?$pair@$$CBHPAUGAMESHOP_PACKAGE_DATA@@@std@@@3@$0A@@std@@@2@XZ ; std::_Tree<std::_Tmap_traits<int,GAMESHOP_PACKAGE_DATA *,std::less<int>,std::allocator<std::pair<int const ,GAMESHOP_PACKAGE_DATA *> >,0> >::_Rmost
; Function compile flags: /Ogtp
;	COMDAT ?_Rmost@?$_Tree@V?$_Tmap_traits@HPAUGAMESHOP_PACKAGE_DATA@@U?$less@H@std@@V?$allocator@U?$pair@$$CBHPAUGAMESHOP_PACKAGE_DATA@@@std@@@3@$0A@@std@@@std@@IBEAAPAU_Node@?$_Tree_nod@V?$_Tmap_traits@HPAUGAMESHOP_PACKAGE_DATA@@U?$less@H@std@@V?$allocator@U?$pair@$$CBHPAUGAMESHOP_PACKAGE_DATA@@@std@@@3@$0A@@std@@@2@XZ
_TEXT	SEGMENT
?_Rmost@?$_Tree@V?$_Tmap_traits@HPAUGAMESHOP_PACKAGE_DATA@@U?$less@H@std@@V?$allocator@U?$pair@$$CBHPAUGAMESHOP_PACKAGE_DATA@@@std@@@3@$0A@@std@@@std@@IBEAAPAU_Node@?$_Tree_nod@V?$_Tmap_traits@HPAUGAMESHOP_PACKAGE_DATA@@U?$less@H@std@@V?$allocator@U?$pair@$$CBHPAUGAMESHOP_PACKAGE_DATA@@@std@@@3@$0A@@std@@@2@XZ PROC ; std::_Tree<std::_Tmap_traits<int,GAMESHOP_PACKAGE_DATA *,std::less<int>,std::allocator<std::pair<int const ,GAMESHOP_PACKAGE_DATA *> >,0> >::_Rmost, COMDAT
; _this$ = ecx

; 1784 : 		return (this->_Right(this->_Myhead));

  00000	8b 41 04	 mov	 eax, DWORD PTR [ecx+4]
  00003	83 c0 08	 add	 eax, 8

; 1785 : 		}

  00006	c3		 ret	 0
?_Rmost@?$_Tree@V?$_Tmap_traits@HPAUGAMESHOP_PACKAGE_DATA@@U?$less@H@std@@V?$allocator@U?$pair@$$CBHPAUGAMESHOP_PACKAGE_DATA@@@std@@@3@$0A@@std@@@std@@IBEAAPAU_Node@?$_Tree_nod@V?$_Tmap_traits@HPAUGAMESHOP_PACKAGE_DATA@@U?$less@H@std@@V?$allocator@U?$pair@$$CBHPAUGAMESHOP_PACKAGE_DATA@@@std@@@3@$0A@@std@@@2@XZ ENDP ; std::_Tree<std::_Tmap_traits<int,GAMESHOP_PACKAGE_DATA *,std::less<int>,std::allocator<std::pair<int const ,GAMESHOP_PACKAGE_DATA *> >,0> >::_Rmost
_TEXT	ENDS
PUBLIC	?_Root@?$_Tree@V?$_Tmap_traits@HPAUGAMESHOP_PACKAGE_DATA@@U?$less@H@std@@V?$allocator@U?$pair@$$CBHPAUGAMESHOP_PACKAGE_DATA@@@std@@@3@$0A@@std@@@std@@IBEAAPAU_Node@?$_Tree_nod@V?$_Tmap_traits@HPAUGAMESHOP_PACKAGE_DATA@@U?$less@H@std@@V?$allocator@U?$pair@$$CBHPAUGAMESHOP_PACKAGE_DATA@@@std@@@3@$0A@@std@@@2@XZ ; std::_Tree<std::_Tmap_traits<int,GAMESHOP_PACKAGE_DATA *,std::less<int>,std::allocator<std::pair<int const ,GAMESHOP_PACKAGE_DATA *> >,0> >::_Root
; Function compile flags: /Ogtp
;	COMDAT ?_Root@?$_Tree@V?$_Tmap_traits@HPAUGAMESHOP_PACKAGE_DATA@@U?$less@H@std@@V?$allocator@U?$pair@$$CBHPAUGAMESHOP_PACKAGE_DATA@@@std@@@3@$0A@@std@@@std@@IBEAAPAU_Node@?$_Tree_nod@V?$_Tmap_traits@HPAUGAMESHOP_PACKAGE_DATA@@U?$less@H@std@@V?$allocator@U?$pair@$$CBHPAUGAMESHOP_PACKAGE_DATA@@@std@@@3@$0A@@std@@@2@XZ
_TEXT	SEGMENT
?_Root@?$_Tree@V?$_Tmap_traits@HPAUGAMESHOP_PACKAGE_DATA@@U?$less@H@std@@V?$allocator@U?$pair@$$CBHPAUGAMESHOP_PACKAGE_DATA@@@std@@@3@$0A@@std@@@std@@IBEAAPAU_Node@?$_Tree_nod@V?$_Tmap_traits@HPAUGAMESHOP_PACKAGE_DATA@@U?$less@H@std@@V?$allocator@U?$pair@$$CBHPAUGAMESHOP_PACKAGE_DATA@@@std@@@3@$0A@@std@@@2@XZ PROC ; std::_Tree<std::_Tmap_traits<int,GAMESHOP_PACKAGE_DATA *,std::less<int>,std::allocator<std::pair<int const ,GAMESHOP_PACKAGE_DATA *> >,0> >::_Root, COMDAT
; _this$ = ecx

; 1789 : 		return (this->_Parent(this->_Myhead));

  00000	8b 41 04	 mov	 eax, DWORD PTR [ecx+4]
  00003	83 c0 04	 add	 eax, 4

; 1790 : 		}

  00006	c3		 ret	 0
?_Root@?$_Tree@V?$_Tmap_traits@HPAUGAMESHOP_PACKAGE_DATA@@U?$less@H@std@@V?$allocator@U?$pair@$$CBHPAUGAMESHOP_PACKAGE_DATA@@@std@@@3@$0A@@std@@@std@@IBEAAPAU_Node@?$_Tree_nod@V?$_Tmap_traits@HPAUGAMESHOP_PACKAGE_DATA@@U?$less@H@std@@V?$allocator@U?$pair@$$CBHPAUGAMESHOP_PACKAGE_DATA@@@std@@@3@$0A@@std@@@2@XZ ENDP ; std::_Tree<std::_Tmap_traits<int,GAMESHOP_PACKAGE_DATA *,std::less<int>,std::allocator<std::pair<int const ,GAMESHOP_PACKAGE_DATA *> >,0> >::_Root
_TEXT	ENDS
PUBLIC	??1?$_Tree_val@V?$_Tmap_traits@HPAUGAMESHOP_PACKAGE_DATA@@U?$less@H@std@@V?$allocator@U?$pair@$$CBHPAUGAMESHOP_PACKAGE_DATA@@@std@@@3@$0A@@std@@@std@@QAE@XZ ; std::_Tree_val<std::_Tmap_traits<int,GAMESHOP_PACKAGE_DATA *,std::less<int>,std::allocator<std::pair<int const ,GAMESHOP_PACKAGE_DATA *> >,0> >::~_Tree_val<std::_Tmap_traits<int,GAMESHOP_PACKAGE_DATA *,std::less<int>,std::allocator<std::pair<int const ,GAMESHOP_PACKAGE_DATA *> >,0> >
; Function compile flags: /Ogtp
;	COMDAT ??1?$_Tree_val@V?$_Tmap_traits@HPAUGAMESHOP_PACKAGE_DATA@@U?$less@H@std@@V?$allocator@U?$pair@$$CBHPAUGAMESHOP_PACKAGE_DATA@@@std@@@3@$0A@@std@@@std@@QAE@XZ
_TEXT	SEGMENT
??1?$_Tree_val@V?$_Tmap_traits@HPAUGAMESHOP_PACKAGE_DATA@@U?$less@H@std@@V?$allocator@U?$pair@$$CBHPAUGAMESHOP_PACKAGE_DATA@@@std@@@3@$0A@@std@@@std@@QAE@XZ PROC ; std::_Tree_val<std::_Tmap_traits<int,GAMESHOP_PACKAGE_DATA *,std::less<int>,std::allocator<std::pair<int const ,GAMESHOP_PACKAGE_DATA *> >,0> >::~_Tree_val<std::_Tmap_traits<int,GAMESHOP_PACKAGE_DATA *,std::less<int>,std::allocator<std::pair<int const ,GAMESHOP_PACKAGE_DATA *> >,0> >, COMDAT
; _this$ = ecx

; 555  : 		this->_Alnod.deallocate(this->_Myhead, 1);

  00000	8b 41 04	 mov	 eax, DWORD PTR [ecx+4]
  00003	50		 push	 eax
  00004	e8 00 00 00 00	 call	 ??3@YAXPAX@Z		; operator delete
  00009	59		 pop	 ecx

; 556  : 		}

  0000a	c3		 ret	 0
??1?$_Tree_val@V?$_Tmap_traits@HPAUGAMESHOP_PACKAGE_DATA@@U?$less@H@std@@V?$allocator@U?$pair@$$CBHPAUGAMESHOP_PACKAGE_DATA@@@std@@@3@$0A@@std@@@std@@QAE@XZ ENDP ; std::_Tree_val<std::_Tmap_traits<int,GAMESHOP_PACKAGE_DATA *,std::less<int>,std::allocator<std::pair<int const ,GAMESHOP_PACKAGE_DATA *> >,0> >::~_Tree_val<std::_Tmap_traits<int,GAMESHOP_PACKAGE_DATA *,std::less<int>,std::allocator<std::pair<int const ,GAMESHOP_PACKAGE_DATA *> >,0> >
_TEXT	ENDS
PUBLIC	?_Key@?$_Tree_val@V?$_Tmap_traits@HPAUGAMESHOP_PACKAGE_DATA@@U?$less@H@std@@V?$allocator@U?$pair@$$CBHPAUGAMESHOP_PACKAGE_DATA@@@std@@@3@$0A@@std@@@std@@SAAAHPAU_Node@?$_Tree_nod@V?$_Tmap_traits@HPAUGAMESHOP_PACKAGE_DATA@@U?$less@H@std@@V?$allocator@U?$pair@$$CBHPAUGAMESHOP_PACKAGE_DATA@@@std@@@3@$0A@@std@@@2@@Z ; std::_Tree_val<std::_Tmap_traits<int,GAMESHOP_PACKAGE_DATA *,std::less<int>,std::allocator<std::pair<int const ,GAMESHOP_PACKAGE_DATA *> >,0> >::_Key
; Function compile flags: /Ogtp
;	COMDAT ?_Key@?$_Tree_val@V?$_Tmap_traits@HPAUGAMESHOP_PACKAGE_DATA@@U?$less@H@std@@V?$allocator@U?$pair@$$CBHPAUGAMESHOP_PACKAGE_DATA@@@std@@@3@$0A@@std@@@std@@SAAAHPAU_Node@?$_Tree_nod@V?$_Tmap_traits@HPAUGAMESHOP_PACKAGE_DATA@@U?$less@H@std@@V?$allocator@U?$pair@$$CBHPAUGAMESHOP_PACKAGE_DATA@@@std@@@3@$0A@@std@@@2@@Z
_TEXT	SEGMENT
__Pnode$ = 8						; size = 4
?_Key@?$_Tree_val@V?$_Tmap_traits@HPAUGAMESHOP_PACKAGE_DATA@@U?$less@H@std@@V?$allocator@U?$pair@$$CBHPAUGAMESHOP_PACKAGE_DATA@@@std@@@3@$0A@@std@@@std@@SAAAHPAU_Node@?$_Tree_nod@V?$_Tmap_traits@HPAUGAMESHOP_PACKAGE_DATA@@U?$less@H@std@@V?$allocator@U?$pair@$$CBHPAUGAMESHOP_PACKAGE_DATA@@@std@@@3@$0A@@std@@@2@@Z PROC ; std::_Tree_val<std::_Tmap_traits<int,GAMESHOP_PACKAGE_DATA *,std::less<int>,std::allocator<std::pair<int const ,GAMESHOP_PACKAGE_DATA *> >,0> >::_Key, COMDAT

; 616  : 		{	// return reference to key in node

  00000	55		 push	 ebp
  00001	8b ec		 mov	 ebp, esp

; 617  : 		return ((key_type&)_Traits::_Kfn(_Myval(_Pnode)));

  00003	8b 45 08	 mov	 eax, DWORD PTR __Pnode$[ebp]
  00006	83 c0 0c	 add	 eax, 12			; 0000000cH

; 618  : 		}

  00009	5d		 pop	 ebp
  0000a	c3		 ret	 0
?_Key@?$_Tree_val@V?$_Tmap_traits@HPAUGAMESHOP_PACKAGE_DATA@@U?$less@H@std@@V?$allocator@U?$pair@$$CBHPAUGAMESHOP_PACKAGE_DATA@@@std@@@3@$0A@@std@@@std@@SAAAHPAU_Node@?$_Tree_nod@V?$_Tmap_traits@HPAUGAMESHOP_PACKAGE_DATA@@U?$less@H@std@@V?$allocator@U?$pair@$$CBHPAUGAMESHOP_PACKAGE_DATA@@@std@@@3@$0A@@std@@@2@@Z ENDP ; std::_Tree_val<std::_Tmap_traits<int,GAMESHOP_PACKAGE_DATA *,std::less<int>,std::allocator<std::pair<int const ,GAMESHOP_PACKAGE_DATA *> >,0> >::_Key
_TEXT	ENDS
PUBLIC	??D?$_Tree_iterator@V?$_Tree_val@V?$_Tmap_traits@HPAUGAMESHOP_ITEM_DATA@@U?$less@H@std@@V?$allocator@U?$pair@$$CBHPAUGAMESHOP_ITEM_DATA@@@std@@@3@$0A@@std@@@std@@@std@@QBEAAU?$pair@$$CBHPAUGAMESHOP_ITEM_DATA@@@1@XZ ; std::_Tree_iterator<std::_Tree_val<std::_Tmap_traits<int,GAMESHOP_ITEM_DATA *,std::less<int>,std::allocator<std::pair<int const ,GAMESHOP_ITEM_DATA *> >,0> > >::operator*
; Function compile flags: /Ogtp
;	COMDAT ??D?$_Tree_iterator@V?$_Tree_val@V?$_Tmap_traits@HPAUGAMESHOP_ITEM_DATA@@U?$less@H@std@@V?$allocator@U?$pair@$$CBHPAUGAMESHOP_ITEM_DATA@@@std@@@3@$0A@@std@@@std@@@std@@QBEAAU?$pair@$$CBHPAUGAMESHOP_ITEM_DATA@@@1@XZ
_TEXT	SEGMENT
??D?$_Tree_iterator@V?$_Tree_val@V?$_Tmap_traits@HPAUGAMESHOP_ITEM_DATA@@U?$less@H@std@@V?$allocator@U?$pair@$$CBHPAUGAMESHOP_ITEM_DATA@@@std@@@3@$0A@@std@@@std@@@std@@QBEAAU?$pair@$$CBHPAUGAMESHOP_ITEM_DATA@@@1@XZ PROC ; std::_Tree_iterator<std::_Tree_val<std::_Tmap_traits<int,GAMESHOP_ITEM_DATA *,std::less<int>,std::allocator<std::pair<int const ,GAMESHOP_ITEM_DATA *> >,0> > >::operator*, COMDAT
; _this$ = ecx

; 396  : 		return ((reference)**(_Mybase *)this);

  00000	8b 01		 mov	 eax, DWORD PTR [ecx]
  00002	83 c0 0c	 add	 eax, 12			; 0000000cH

; 397  : 		}

  00005	c3		 ret	 0
??D?$_Tree_iterator@V?$_Tree_val@V?$_Tmap_traits@HPAUGAMESHOP_ITEM_DATA@@U?$less@H@std@@V?$allocator@U?$pair@$$CBHPAUGAMESHOP_ITEM_DATA@@@std@@@3@$0A@@std@@@std@@@std@@QBEAAU?$pair@$$CBHPAUGAMESHOP_ITEM_DATA@@@1@XZ ENDP ; std::_Tree_iterator<std::_Tree_val<std::_Tmap_traits<int,GAMESHOP_ITEM_DATA *,std::less<int>,std::allocator<std::pair<int const ,GAMESHOP_ITEM_DATA *> >,0> > >::operator*
_TEXT	ENDS
PUBLIC	??0?$_Tree_const_iterator@V?$_Tree_val@V?$_Tmap_traits@HPAUGAMESHOP_ITEM_DATA@@U?$less@H@std@@V?$allocator@U?$pair@$$CBHPAUGAMESHOP_ITEM_DATA@@@std@@@3@$0A@@std@@@std@@@std@@QAE@XZ ; std::_Tree_const_iterator<std::_Tree_val<std::_Tmap_traits<int,GAMESHOP_ITEM_DATA *,std::less<int>,std::allocator<std::pair<int const ,GAMESHOP_ITEM_DATA *> >,0> > >::_Tree_const_iterator<std::_Tree_val<std::_Tmap_traits<int,GAMESHOP_ITEM_DATA *,std::less<int>,std::allocator<std::pair<int const ,GAMESHOP_ITEM_DATA *> >,0> > >
; Function compile flags: /Ogtp
;	COMDAT ??0?$_Tree_const_iterator@V?$_Tree_val@V?$_Tmap_traits@HPAUGAMESHOP_ITEM_DATA@@U?$less@H@std@@V?$allocator@U?$pair@$$CBHPAUGAMESHOP_ITEM_DATA@@@std@@@3@$0A@@std@@@std@@@std@@QAE@XZ
_TEXT	SEGMENT
??0?$_Tree_const_iterator@V?$_Tree_val@V?$_Tmap_traits@HPAUGAMESHOP_ITEM_DATA@@U?$less@H@std@@V?$allocator@U?$pair@$$CBHPAUGAMESHOP_ITEM_DATA@@@std@@@3@$0A@@std@@@std@@@std@@QAE@XZ PROC ; std::_Tree_const_iterator<std::_Tree_val<std::_Tmap_traits<int,GAMESHOP_ITEM_DATA *,std::less<int>,std::allocator<std::pair<int const ,GAMESHOP_ITEM_DATA *> >,0> > >::_Tree_const_iterator<std::_Tree_val<std::_Tmap_traits<int,GAMESHOP_ITEM_DATA *,std::less<int>,std::allocator<std::pair<int const ,GAMESHOP_ITEM_DATA *> >,0> > >, COMDAT
; _this$ = ecx

; 208  : 		{	// construct with null node pointer

  00000	8b c1		 mov	 eax, ecx
  00002	c7 00 00 00 00
	00		 mov	 DWORD PTR [eax], 0

; 209  : 		}

  00008	c3		 ret	 0
??0?$_Tree_const_iterator@V?$_Tree_val@V?$_Tmap_traits@HPAUGAMESHOP_ITEM_DATA@@U?$less@H@std@@V?$allocator@U?$pair@$$CBHPAUGAMESHOP_ITEM_DATA@@@std@@@3@$0A@@std@@@std@@@std@@QAE@XZ ENDP ; std::_Tree_const_iterator<std::_Tree_val<std::_Tmap_traits<int,GAMESHOP_ITEM_DATA *,std::less<int>,std::allocator<std::pair<int const ,GAMESHOP_ITEM_DATA *> >,0> > >::_Tree_const_iterator<std::_Tree_val<std::_Tmap_traits<int,GAMESHOP_ITEM_DATA *,std::less<int>,std::allocator<std::pair<int const ,GAMESHOP_ITEM_DATA *> >,0> > >
_TEXT	ENDS
PUBLIC	??D?$_Tree_iterator@V?$_Tree_val@V?$_Tmap_traits@HPAUGAMESHOP_PACKAGE_DATA@@U?$less@H@std@@V?$allocator@U?$pair@$$CBHPAUGAMESHOP_PACKAGE_DATA@@@std@@@3@$0A@@std@@@std@@@std@@QBEAAU?$pair@$$CBHPAUGAMESHOP_PACKAGE_DATA@@@1@XZ ; std::_Tree_iterator<std::_Tree_val<std::_Tmap_traits<int,GAMESHOP_PACKAGE_DATA *,std::less<int>,std::allocator<std::pair<int const ,GAMESHOP_PACKAGE_DATA *> >,0> > >::operator*
; Function compile flags: /Ogtp
;	COMDAT ??D?$_Tree_iterator@V?$_Tree_val@V?$_Tmap_traits@HPAUGAMESHOP_PACKAGE_DATA@@U?$less@H@std@@V?$allocator@U?$pair@$$CBHPAUGAMESHOP_PACKAGE_DATA@@@std@@@3@$0A@@std@@@std@@@std@@QBEAAU?$pair@$$CBHPAUGAMESHOP_PACKAGE_DATA@@@1@XZ
_TEXT	SEGMENT
??D?$_Tree_iterator@V?$_Tree_val@V?$_Tmap_traits@HPAUGAMESHOP_PACKAGE_DATA@@U?$less@H@std@@V?$allocator@U?$pair@$$CBHPAUGAMESHOP_PACKAGE_DATA@@@std@@@3@$0A@@std@@@std@@@std@@QBEAAU?$pair@$$CBHPAUGAMESHOP_PACKAGE_DATA@@@1@XZ PROC ; std::_Tree_iterator<std::_Tree_val<std::_Tmap_traits<int,GAMESHOP_PACKAGE_DATA *,std::less<int>,std::allocator<std::pair<int const ,GAMESHOP_PACKAGE_DATA *> >,0> > >::operator*, COMDAT
; _this$ = ecx

; 396  : 		return ((reference)**(_Mybase *)this);

  00000	8b 01		 mov	 eax, DWORD PTR [ecx]
  00002	83 c0 0c	 add	 eax, 12			; 0000000cH

; 397  : 		}

  00005	c3		 ret	 0
??D?$_Tree_iterator@V?$_Tree_val@V?$_Tmap_traits@HPAUGAMESHOP_PACKAGE_DATA@@U?$less@H@std@@V?$allocator@U?$pair@$$CBHPAUGAMESHOP_PACKAGE_DATA@@@std@@@3@$0A@@std@@@std@@@std@@QBEAAU?$pair@$$CBHPAUGAMESHOP_PACKAGE_DATA@@@1@XZ ENDP ; std::_Tree_iterator<std::_Tree_val<std::_Tmap_traits<int,GAMESHOP_PACKAGE_DATA *,std::less<int>,std::allocator<std::pair<int const ,GAMESHOP_PACKAGE_DATA *> >,0> > >::operator*
_TEXT	ENDS
PUBLIC	??0?$_Tree_const_iterator@V?$_Tree_val@V?$_Tmap_traits@HPAUGAMESHOP_PACKAGE_DATA@@U?$less@H@std@@V?$allocator@U?$pair@$$CBHPAUGAMESHOP_PACKAGE_DATA@@@std@@@3@$0A@@std@@@std@@@std@@QAE@XZ ; std::_Tree_const_iterator<std::_Tree_val<std::_Tmap_traits<int,GAMESHOP_PACKAGE_DATA *,std::less<int>,std::allocator<std::pair<int const ,GAMESHOP_PACKAGE_DATA *> >,0> > >::_Tree_const_iterator<std::_Tree_val<std::_Tmap_traits<int,GAMESHOP_PACKAGE_DATA *,std::less<int>,std::allocator<std::pair<int const ,GAMESHOP_PACKAGE_DATA *> >,0> > >
; Function compile flags: /Ogtp
;	COMDAT ??0?$_Tree_const_iterator@V?$_Tree_val@V?$_Tmap_traits@HPAUGAMESHOP_PACKAGE_DATA@@U?$less@H@std@@V?$allocator@U?$pair@$$CBHPAUGAMESHOP_PACKAGE_DATA@@@std@@@3@$0A@@std@@@std@@@std@@QAE@XZ
_TEXT	SEGMENT
??0?$_Tree_const_iterator@V?$_Tree_val@V?$_Tmap_traits@HPAUGAMESHOP_PACKAGE_DATA@@U?$less@H@std@@V?$allocator@U?$pair@$$CBHPAUGAMESHOP_PACKAGE_DATA@@@std@@@3@$0A@@std@@@std@@@std@@QAE@XZ PROC ; std::_Tree_const_iterator<std::_Tree_val<std::_Tmap_traits<int,GAMESHOP_PACKAGE_DATA *,std::less<int>,std::allocator<std::pair<int const ,GAMESHOP_PACKAGE_DATA *> >,0> > >::_Tree_const_iterator<std::_Tree_val<std::_Tmap_traits<int,GAMESHOP_PACKAGE_DATA *,std::less<int>,std::allocator<std::pair<int const ,GAMESHOP_PACKAGE_DATA *> >,0> > >, COMDAT
; _this$ = ecx

; 208  : 		{	// construct with null node pointer

  00000	8b c1		 mov	 eax, ecx
  00002	c7 00 00 00 00
	00		 mov	 DWORD PTR [eax], 0

; 209  : 		}

  00008	c3		 ret	 0
??0?$_Tree_const_iterator@V?$_Tree_val@V?$_Tmap_traits@HPAUGAMESHOP_PACKAGE_DATA@@U?$less@H@std@@V?$allocator@U?$pair@$$CBHPAUGAMESHOP_PACKAGE_DATA@@@std@@@3@$0A@@std@@@std@@@std@@QAE@XZ ENDP ; std::_Tree_const_iterator<std::_Tree_val<std::_Tmap_traits<int,GAMESHOP_PACKAGE_DATA *,std::less<int>,std::allocator<std::pair<int const ,GAMESHOP_PACKAGE_DATA *> >,0> > >::_Tree_const_iterator<std::_Tree_val<std::_Tmap_traits<int,GAMESHOP_PACKAGE_DATA *,std::less<int>,std::allocator<std::pair<int const ,GAMESHOP_PACKAGE_DATA *> >,0> > >
_TEXT	ENDS
PUBLIC	?_Lbound@?$_Tree@V?$_Tmap_traits@HPAUGAMESHOP_PACKAGE_DATA@@U?$less@H@std@@V?$allocator@U?$pair@$$CBHPAUGAMESHOP_PACKAGE_DATA@@@std@@@3@$0A@@std@@@std@@IAEPAU_Node@?$_Tree_nod@V?$_Tmap_traits@HPAUGAMESHOP_PACKAGE_DATA@@U?$less@H@std@@V?$allocator@U?$pair@$$CBHPAUGAMESHOP_PACKAGE_DATA@@@std@@@3@$0A@@std@@@2@ABH@Z ; std::_Tree<std::_Tmap_traits<int,GAMESHOP_PACKAGE_DATA *,std::less<int>,std::allocator<std::pair<int const ,GAMESHOP_PACKAGE_DATA *> >,0> >::_Lbound
; Function compile flags: /Ogtp
;	COMDAT ?_Lbound@?$_Tree@V?$_Tmap_traits@HPAUGAMESHOP_PACKAGE_DATA@@U?$less@H@std@@V?$allocator@U?$pair@$$CBHPAUGAMESHOP_PACKAGE_DATA@@@std@@@3@$0A@@std@@@std@@IAEPAU_Node@?$_Tree_nod@V?$_Tmap_traits@HPAUGAMESHOP_PACKAGE_DATA@@U?$less@H@std@@V?$allocator@U?$pair@$$CBHPAUGAMESHOP_PACKAGE_DATA@@@std@@@3@$0A@@std@@@2@ABH@Z
_TEXT	SEGMENT
__Keyval$ = 8						; size = 4
?_Lbound@?$_Tree@V?$_Tmap_traits@HPAUGAMESHOP_PACKAGE_DATA@@U?$less@H@std@@V?$allocator@U?$pair@$$CBHPAUGAMESHOP_PACKAGE_DATA@@@std@@@3@$0A@@std@@@std@@IAEPAU_Node@?$_Tree_nod@V?$_Tmap_traits@HPAUGAMESHOP_PACKAGE_DATA@@U?$less@H@std@@V?$allocator@U?$pair@$$CBHPAUGAMESHOP_PACKAGE_DATA@@@std@@@3@$0A@@std@@@2@ABH@Z PROC ; std::_Tree<std::_Tmap_traits<int,GAMESHOP_PACKAGE_DATA *,std::less<int>,std::allocator<std::pair<int const ,GAMESHOP_PACKAGE_DATA *> >,0> >::_Lbound, COMDAT
; _this$ = ecx

; 1741 : 		{	// find leftmost node not less than _Keyval

  00000	55		 push	 ebp
  00001	8b ec		 mov	 ebp, esp

; 1742 : 		_Nodeptr _Pnode = _Root();

  00003	8b 41 04	 mov	 eax, DWORD PTR [ecx+4]
  00006	8b 48 04	 mov	 ecx, DWORD PTR [eax+4]

; 1743 : 		_Nodeptr _Wherenode = this->_Myhead;	// end() if search fails
; 1744 : 
; 1745 : 		while (!this->_Isnil(_Pnode))

  00009	80 79 15 00	 cmp	 BYTE PTR [ecx+21], 0
  0000d	75 19		 jne	 SHORT $LN3@Lbound
  0000f	8b 55 08	 mov	 edx, DWORD PTR __Keyval$[ebp]
  00012	8b 12		 mov	 edx, DWORD PTR [edx]
$LL4@Lbound:

; 1746 : 			if (_DEBUG_LT_PRED(this->comp, this->_Key(_Pnode), _Keyval))

  00014	39 51 0c	 cmp	 DWORD PTR [ecx+12], edx
  00017	7d 05		 jge	 SHORT $LN2@Lbound

; 1747 : 				_Pnode = this->_Right(_Pnode);	// descend right subtree

  00019	8b 49 08	 mov	 ecx, DWORD PTR [ecx+8]

; 1748 : 			else

  0001c	eb 04		 jmp	 SHORT $LN1@Lbound
$LN2@Lbound:

; 1749 : 				{	// _Pnode not less than _Keyval, remember it
; 1750 : 				_Wherenode = _Pnode;

  0001e	8b c1		 mov	 eax, ecx

; 1751 : 				_Pnode = this->_Left(_Pnode);	// descend left subtree

  00020	8b 09		 mov	 ecx, DWORD PTR [ecx]
$LN1@Lbound:

; 1743 : 		_Nodeptr _Wherenode = this->_Myhead;	// end() if search fails
; 1744 : 
; 1745 : 		while (!this->_Isnil(_Pnode))

  00022	80 79 15 00	 cmp	 BYTE PTR [ecx+21], 0
  00026	74 ec		 je	 SHORT $LL4@Lbound
$LN3@Lbound:

; 1752 : 				}
; 1753 : 
; 1754 : 		return (_Wherenode);	// return best remembered candidate
; 1755 : 		}

  00028	5d		 pop	 ebp
  00029	c2 04 00	 ret	 4
?_Lbound@?$_Tree@V?$_Tmap_traits@HPAUGAMESHOP_PACKAGE_DATA@@U?$less@H@std@@V?$allocator@U?$pair@$$CBHPAUGAMESHOP_PACKAGE_DATA@@@std@@@3@$0A@@std@@@std@@IAEPAU_Node@?$_Tree_nod@V?$_Tmap_traits@HPAUGAMESHOP_PACKAGE_DATA@@U?$less@H@std@@V?$allocator@U?$pair@$$CBHPAUGAMESHOP_PACKAGE_DATA@@@std@@@3@$0A@@std@@@2@ABH@Z ENDP ; std::_Tree<std::_Tmap_traits<int,GAMESHOP_PACKAGE_DATA *,std::less<int>,std::allocator<std::pair<int const ,GAMESHOP_PACKAGE_DATA *> >,0> >::_Lbound
_TEXT	ENDS
PUBLIC	??0?$_Pair_base@$$CBHPAUGAMESHOP_PACKAGE_DATA@@@std@@QAE@ABH$$QAPAUGAMESHOP_PACKAGE_DATA@@@Z ; std::_Pair_base<int const ,GAMESHOP_PACKAGE_DATA *>::_Pair_base<int const ,GAMESHOP_PACKAGE_DATA *>
; Function compile flags: /Ogtp
; File d:\program files (x86)\microsoft visual studio 10.0\vc\include\utility
;	COMDAT ??0?$_Pair_base@$$CBHPAUGAMESHOP_PACKAGE_DATA@@@std@@QAE@ABH$$QAPAUGAMESHOP_PACKAGE_DATA@@@Z
_TEXT	SEGMENT
__Val1$ = 8						; size = 4
__Val2$ = 12						; size = 4
??0?$_Pair_base@$$CBHPAUGAMESHOP_PACKAGE_DATA@@@std@@QAE@ABH$$QAPAUGAMESHOP_PACKAGE_DATA@@@Z PROC ; std::_Pair_base<int const ,GAMESHOP_PACKAGE_DATA *>::_Pair_base<int const ,GAMESHOP_PACKAGE_DATA *>, COMDAT
; _this$ = ecx

; 150  : 		{	// construct from specified values

  00000	55		 push	 ebp
  00001	8b ec		 mov	 ebp, esp
  00003	8b c1		 mov	 eax, ecx
  00005	8b 4d 08	 mov	 ecx, DWORD PTR __Val1$[ebp]
  00008	8b 11		 mov	 edx, DWORD PTR [ecx]
  0000a	8b 4d 0c	 mov	 ecx, DWORD PTR __Val2$[ebp]
  0000d	89 10		 mov	 DWORD PTR [eax], edx
  0000f	8b 11		 mov	 edx, DWORD PTR [ecx]
  00011	89 50 04	 mov	 DWORD PTR [eax+4], edx

; 151  : 		}

  00014	5d		 pop	 ebp
  00015	c2 08 00	 ret	 8
??0?$_Pair_base@$$CBHPAUGAMESHOP_PACKAGE_DATA@@@std@@QAE@ABH$$QAPAUGAMESHOP_PACKAGE_DATA@@@Z ENDP ; std::_Pair_base<int const ,GAMESHOP_PACKAGE_DATA *>::_Pair_base<int const ,GAMESHOP_PACKAGE_DATA *>
_TEXT	ENDS
PUBLIC	??0?$_Tree_nod@V?$_Tmap_traits@HPAUGAMESHOP_ITEM_DATA@@U?$less@H@std@@V?$allocator@U?$pair@$$CBHPAUGAMESHOP_ITEM_DATA@@@std@@@3@$0A@@std@@@std@@QAE@ABU?$less@H@1@V?$allocator@U?$pair@$$CBHPAUGAMESHOP_ITEM_DATA@@@std@@@1@@Z ; std::_Tree_nod<std::_Tmap_traits<int,GAMESHOP_ITEM_DATA *,std::less<int>,std::allocator<std::pair<int const ,GAMESHOP_ITEM_DATA *> >,0> >::_Tree_nod<std::_Tmap_traits<int,GAMESHOP_ITEM_DATA *,std::less<int>,std::allocator<std::pair<int const ,GAMESHOP_ITEM_DATA *> >,0> >
; Function compile flags: /Ogtp
; File d:\program files (x86)\microsoft visual studio 10.0\vc\include\xtree
;	COMDAT ??0?$_Tree_nod@V?$_Tmap_traits@HPAUGAMESHOP_ITEM_DATA@@U?$less@H@std@@V?$allocator@U?$pair@$$CBHPAUGAMESHOP_ITEM_DATA@@@std@@@3@$0A@@std@@@std@@QAE@ABU?$less@H@1@V?$allocator@U?$pair@$$CBHPAUGAMESHOP_ITEM_DATA@@@std@@@1@@Z
_TEXT	SEGMENT
__Parg$ = 8						; size = 4
__Al$ = 12						; size = 1
??0?$_Tree_nod@V?$_Tmap_traits@HPAUGAMESHOP_ITEM_DATA@@U?$less@H@std@@V?$allocator@U?$pair@$$CBHPAUGAMESHOP_ITEM_DATA@@@std@@@3@$0A@@std@@@std@@QAE@ABU?$less@H@1@V?$allocator@U?$pair@$$CBHPAUGAMESHOP_ITEM_DATA@@@std@@@1@@Z PROC ; std::_Tree_nod<std::_Tmap_traits<int,GAMESHOP_ITEM_DATA *,std::less<int>,std::allocator<std::pair<int const ,GAMESHOP_ITEM_DATA *> >,0> >::_Tree_nod<std::_Tmap_traits<int,GAMESHOP_ITEM_DATA *,std::less<int>,std::allocator<std::pair<int const ,GAMESHOP_ITEM_DATA *> >,0> >, COMDAT
; _this$ = ecx

; 482  : 		{	// construct traits from _Parg and allocators from _Al

  00000	8b c1		 mov	 eax, ecx

; 483  : 		}

  00002	c2 08 00	 ret	 8
??0?$_Tree_nod@V?$_Tmap_traits@HPAUGAMESHOP_ITEM_DATA@@U?$less@H@std@@V?$allocator@U?$pair@$$CBHPAUGAMESHOP_ITEM_DATA@@@std@@@3@$0A@@std@@@std@@QAE@ABU?$less@H@1@V?$allocator@U?$pair@$$CBHPAUGAMESHOP_ITEM_DATA@@@std@@@1@@Z ENDP ; std::_Tree_nod<std::_Tmap_traits<int,GAMESHOP_ITEM_DATA *,std::less<int>,std::allocator<std::pair<int const ,GAMESHOP_ITEM_DATA *> >,0> >::_Tree_nod<std::_Tmap_traits<int,GAMESHOP_ITEM_DATA *,std::less<int>,std::allocator<std::pair<int const ,GAMESHOP_ITEM_DATA *> >,0> >
_TEXT	ENDS
PUBLIC	??0?$_Tree_nod@V?$_Tmap_traits@HPAUGAMESHOP_PACKAGE_DATA@@U?$less@H@std@@V?$allocator@U?$pair@$$CBHPAUGAMESHOP_PACKAGE_DATA@@@std@@@3@$0A@@std@@@std@@QAE@ABU?$less@H@1@V?$allocator@U?$pair@$$CBHPAUGAMESHOP_PACKAGE_DATA@@@std@@@1@@Z ; std::_Tree_nod<std::_Tmap_traits<int,GAMESHOP_PACKAGE_DATA *,std::less<int>,std::allocator<std::pair<int const ,GAMESHOP_PACKAGE_DATA *> >,0> >::_Tree_nod<std::_Tmap_traits<int,GAMESHOP_PACKAGE_DATA *,std::less<int>,std::allocator<std::pair<int const ,GAMESHOP_PACKAGE_DATA *> >,0> >
; Function compile flags: /Ogtp
;	COMDAT ??0?$_Tree_nod@V?$_Tmap_traits@HPAUGAMESHOP_PACKAGE_DATA@@U?$less@H@std@@V?$allocator@U?$pair@$$CBHPAUGAMESHOP_PACKAGE_DATA@@@std@@@3@$0A@@std@@@std@@QAE@ABU?$less@H@1@V?$allocator@U?$pair@$$CBHPAUGAMESHOP_PACKAGE_DATA@@@std@@@1@@Z
_TEXT	SEGMENT
__Parg$ = 8						; size = 4
__Al$ = 12						; size = 1
??0?$_Tree_nod@V?$_Tmap_traits@HPAUGAMESHOP_PACKAGE_DATA@@U?$less@H@std@@V?$allocator@U?$pair@$$CBHPAUGAMESHOP_PACKAGE_DATA@@@std@@@3@$0A@@std@@@std@@QAE@ABU?$less@H@1@V?$allocator@U?$pair@$$CBHPAUGAMESHOP_PACKAGE_DATA@@@std@@@1@@Z PROC ; std::_Tree_nod<std::_Tmap_traits<int,GAMESHOP_PACKAGE_DATA *,std::less<int>,std::allocator<std::pair<int const ,GAMESHOP_PACKAGE_DATA *> >,0> >::_Tree_nod<std::_Tmap_traits<int,GAMESHOP_PACKAGE_DATA *,std::less<int>,std::allocator<std::pair<int const ,GAMESHOP_PACKAGE_DATA *> >,0> >, COMDAT
; _this$ = ecx

; 482  : 		{	// construct traits from _Parg and allocators from _Al

  00000	8b c1		 mov	 eax, ecx

; 483  : 		}

  00002	c2 08 00	 ret	 8
??0?$_Tree_nod@V?$_Tmap_traits@HPAUGAMESHOP_PACKAGE_DATA@@U?$less@H@std@@V?$allocator@U?$pair@$$CBHPAUGAMESHOP_PACKAGE_DATA@@@std@@@3@$0A@@std@@@std@@QAE@ABU?$less@H@1@V?$allocator@U?$pair@$$CBHPAUGAMESHOP_PACKAGE_DATA@@@std@@@1@@Z ENDP ; std::_Tree_nod<std::_Tmap_traits<int,GAMESHOP_PACKAGE_DATA *,std::less<int>,std::allocator<std::pair<int const ,GAMESHOP_PACKAGE_DATA *> >,0> >::_Tree_nod<std::_Tmap_traits<int,GAMESHOP_PACKAGE_DATA *,std::less<int>,std::allocator<std::pair<int const ,GAMESHOP_PACKAGE_DATA *> >,0> >
_TEXT	ENDS
PUBLIC	??0?$_Tree_unchecked_const_iterator@V?$_Tree_val@V?$_Tmap_traits@HPAUGAMESHOP_ITEM_DATA@@U?$less@H@std@@V?$allocator@U?$pair@$$CBHPAUGAMESHOP_ITEM_DATA@@@std@@@3@$0A@@std@@@std@@U_Iterator_base0@2@@std@@QAE@PAU_Node@?$_Tree_nod@V?$_Tmap_traits@HPAUGAMESHOP_ITEM_DATA@@U?$less@H@std@@V?$allocator@U?$pair@$$CBHPAUGAMESHOP_ITEM_DATA@@@std@@@3@$0A@@std@@@1@PBV?$_Tree_val@V?$_Tmap_traits@HPAUGAMESHOP_ITEM_DATA@@U?$less@H@std@@V?$allocator@U?$pair@$$CBHPAUGAMESHOP_ITEM_DATA@@@std@@@3@$0A@@std@@@1@@Z ; std::_Tree_unchecked_const_iterator<std::_Tree_val<std::_Tmap_traits<int,GAMESHOP_ITEM_DATA *,std::less<int>,std::allocator<std::pair<int const ,GAMESHOP_ITEM_DATA *> >,0> >,std::_Iterator_base0>::_Tree_unchecked_const_iterator<std::_Tree_val<std::_Tmap_traits<int,GAMESHOP_ITEM_DATA *,std::less<int>,std::allocator<std::pair<int const ,GAMESHOP_ITEM_DATA *> >,0> >,std::_Iterator_base0>
; Function compile flags: /Ogtp
;	COMDAT ??0?$_Tree_unchecked_const_iterator@V?$_Tree_val@V?$_Tmap_traits@HPAUGAMESHOP_ITEM_DATA@@U?$less@H@std@@V?$allocator@U?$pair@$$CBHPAUGAMESHOP_ITEM_DATA@@@std@@@3@$0A@@std@@@std@@U_Iterator_base0@2@@std@@QAE@PAU_Node@?$_Tree_nod@V?$_Tmap_traits@HPAUGAMESHOP_ITEM_DATA@@U?$less@H@std@@V?$allocator@U?$pair@$$CBHPAUGAMESHOP_ITEM_DATA@@@std@@@3@$0A@@std@@@1@PBV?$_Tree_val@V?$_Tmap_traits@HPAUGAMESHOP_ITEM_DATA@@U?$less@H@std@@V?$allocator@U?$pair@$$CBHPAUGAMESHOP_ITEM_DATA@@@std@@@3@$0A@@std@@@1@@Z
_TEXT	SEGMENT
__Pnode$ = 8						; size = 4
__Plist$ = 12						; size = 4
??0?$_Tree_unchecked_const_iterator@V?$_Tree_val@V?$_Tmap_traits@HPAUGAMESHOP_ITEM_DATA@@U?$less@H@std@@V?$allocator@U?$pair@$$CBHPAUGAMESHOP_ITEM_DATA@@@std@@@3@$0A@@std@@@std@@U_Iterator_base0@2@@std@@QAE@PAU_Node@?$_Tree_nod@V?$_Tmap_traits@HPAUGAMESHOP_ITEM_DATA@@U?$less@H@std@@V?$allocator@U?$pair@$$CBHPAUGAMESHOP_ITEM_DATA@@@std@@@3@$0A@@std@@@1@PBV?$_Tree_val@V?$_Tmap_traits@HPAUGAMESHOP_ITEM_DATA@@U?$less@H@std@@V?$allocator@U?$pair@$$CBHPAUGAMESHOP_ITEM_DATA@@@std@@@3@$0A@@std@@@1@@Z PROC ; std::_Tree_unchecked_const_iterator<std::_Tree_val<std::_Tmap_traits<int,GAMESHOP_ITEM_DATA *,std::less<int>,std::allocator<std::pair<int const ,GAMESHOP_ITEM_DATA *> >,0> >,std::_Iterator_base0>::_Tree_unchecked_const_iterator<std::_Tree_val<std::_Tmap_traits<int,GAMESHOP_ITEM_DATA *,std::less<int>,std::allocator<std::pair<int const ,GAMESHOP_ITEM_DATA *> >,0> >,std::_Iterator_base0>, COMDAT
; _this$ = ecx

; 43   : 		{	// construct with node pointer _Pnode

  00000	55		 push	 ebp
  00001	8b ec		 mov	 ebp, esp
  00003	8b c1		 mov	 eax, ecx
  00005	8b 4d 08	 mov	 ecx, DWORD PTR __Pnode$[ebp]
  00008	89 08		 mov	 DWORD PTR [eax], ecx

; 44   : 		this->_Adopt(_Plist);
; 45   : 		}

  0000a	5d		 pop	 ebp
  0000b	c2 08 00	 ret	 8
??0?$_Tree_unchecked_const_iterator@V?$_Tree_val@V?$_Tmap_traits@HPAUGAMESHOP_ITEM_DATA@@U?$less@H@std@@V?$allocator@U?$pair@$$CBHPAUGAMESHOP_ITEM_DATA@@@std@@@3@$0A@@std@@@std@@U_Iterator_base0@2@@std@@QAE@PAU_Node@?$_Tree_nod@V?$_Tmap_traits@HPAUGAMESHOP_ITEM_DATA@@U?$less@H@std@@V?$allocator@U?$pair@$$CBHPAUGAMESHOP_ITEM_DATA@@@std@@@3@$0A@@std@@@1@PBV?$_Tree_val@V?$_Tmap_traits@HPAUGAMESHOP_ITEM_DATA@@U?$less@H@std@@V?$allocator@U?$pair@$$CBHPAUGAMESHOP_ITEM_DATA@@@std@@@3@$0A@@std@@@1@@Z ENDP ; std::_Tree_unchecked_const_iterator<std::_Tree_val<std::_Tmap_traits<int,GAMESHOP_ITEM_DATA *,std::less<int>,std::allocator<std::pair<int const ,GAMESHOP_ITEM_DATA *> >,0> >,std::_Iterator_base0>::_Tree_unchecked_const_iterator<std::_Tree_val<std::_Tmap_traits<int,GAMESHOP_ITEM_DATA *,std::less<int>,std::allocator<std::pair<int const ,GAMESHOP_ITEM_DATA *> >,0> >,std::_Iterator_base0>
_TEXT	ENDS
PUBLIC	??E?$_Tree_unchecked_const_iterator@V?$_Tree_val@V?$_Tmap_traits@HPAUGAMESHOP_ITEM_DATA@@U?$less@H@std@@V?$allocator@U?$pair@$$CBHPAUGAMESHOP_ITEM_DATA@@@std@@@3@$0A@@std@@@std@@U_Iterator_base0@2@@std@@QAEAAV01@XZ ; std::_Tree_unchecked_const_iterator<std::_Tree_val<std::_Tmap_traits<int,GAMESHOP_ITEM_DATA *,std::less<int>,std::allocator<std::pair<int const ,GAMESHOP_ITEM_DATA *> >,0> >,std::_Iterator_base0>::operator++
; Function compile flags: /Ogtp
;	COMDAT ??E?$_Tree_unchecked_const_iterator@V?$_Tree_val@V?$_Tmap_traits@HPAUGAMESHOP_ITEM_DATA@@U?$less@H@std@@V?$allocator@U?$pair@$$CBHPAUGAMESHOP_ITEM_DATA@@@std@@@3@$0A@@std@@@std@@U_Iterator_base0@2@@std@@QAEAAV01@XZ
_TEXT	SEGMENT
??E?$_Tree_unchecked_const_iterator@V?$_Tree_val@V?$_Tmap_traits@HPAUGAMESHOP_ITEM_DATA@@U?$less@H@std@@V?$allocator@U?$pair@$$CBHPAUGAMESHOP_ITEM_DATA@@@std@@@3@$0A@@std@@@std@@U_Iterator_base0@2@@std@@QAEAAV01@XZ PROC ; std::_Tree_unchecked_const_iterator<std::_Tree_val<std::_Tmap_traits<int,GAMESHOP_ITEM_DATA *,std::less<int>,std::allocator<std::pair<int const ,GAMESHOP_ITEM_DATA *> >,0> >,std::_Iterator_base0>::operator++, COMDAT
; _this$ = ecx

; 58   : 		{	// preincrement

  00000	8b c1		 mov	 eax, ecx

; 59   : 		if (_Mytree::_Isnil(_Ptr))

  00002	8b 10		 mov	 edx, DWORD PTR [eax]
  00004	80 7a 15 00	 cmp	 BYTE PTR [edx+21], 0
  00008	75 40		 jne	 SHORT $LN3@operator@3

; 60   : 			;	// end() shouldn't be incremented, don't move
; 61   : 		else if (!_Mytree::_Isnil(_Mytree::_Right(_Ptr)))

  0000a	8b 4a 08	 mov	 ecx, DWORD PTR [edx+8]
  0000d	80 79 15 00	 cmp	 BYTE PTR [ecx+21], 0
  00011	75 1a		 jne	 SHORT $LN34@operator@3

; 62   : 			_Ptr = _Mytree::_Min(
; 63   : 				_Mytree::_Right(_Ptr));	// ==> smallest of right subtree

  00013	8b 11		 mov	 edx, DWORD PTR [ecx]
  00015	80 7a 15 00	 cmp	 BYTE PTR [edx+21], 0
  00019	75 0f		 jne	 SHORT $LN17@operator@3
  0001b	eb 03 8d 49 00	 npad	 5
$LL18@operator@3:
  00020	8b ca		 mov	 ecx, edx
  00022	8b 11		 mov	 edx, DWORD PTR [ecx]
  00024	80 7a 15 00	 cmp	 BYTE PTR [edx+21], 0
  00028	74 f6		 je	 SHORT $LL18@operator@3
$LN17@operator@3:
  0002a	89 08		 mov	 DWORD PTR [eax], ecx

; 71   : 			}
; 72   : 		return (*this);
; 73   : 		}

  0002c	c3		 ret	 0
$LN34@operator@3:

; 64   : 		else
; 65   : 			{	// climb looking for right subtree
; 66   : 			_Nodeptr _Pnode;
; 67   : 			while (!_Mytree::_Isnil(_Pnode = _Mytree::_Parent(_Ptr))
; 68   : 				&& _Ptr == _Mytree::_Right(_Pnode))

  0002d	8b 52 04	 mov	 edx, DWORD PTR [edx+4]
  00030	80 7a 15 00	 cmp	 BYTE PTR [edx+21], 0
  00034	75 12		 jne	 SHORT $LN1@operator@3
$LL2@operator@3:
  00036	8b 08		 mov	 ecx, DWORD PTR [eax]
  00038	3b 4a 08	 cmp	 ecx, DWORD PTR [edx+8]
  0003b	75 0b		 jne	 SHORT $LN1@operator@3

; 69   : 				_Ptr = _Pnode;	// ==> parent while right subtree

  0003d	89 10		 mov	 DWORD PTR [eax], edx
  0003f	8b 52 04	 mov	 edx, DWORD PTR [edx+4]
  00042	80 7a 15 00	 cmp	 BYTE PTR [edx+21], 0
  00046	74 ee		 je	 SHORT $LL2@operator@3
$LN1@operator@3:

; 70   : 			_Ptr = _Pnode;	// ==> parent (head if end())

  00048	89 10		 mov	 DWORD PTR [eax], edx
$LN3@operator@3:

; 71   : 			}
; 72   : 		return (*this);
; 73   : 		}

  0004a	c3		 ret	 0
??E?$_Tree_unchecked_const_iterator@V?$_Tree_val@V?$_Tmap_traits@HPAUGAMESHOP_ITEM_DATA@@U?$less@H@std@@V?$allocator@U?$pair@$$CBHPAUGAMESHOP_ITEM_DATA@@@std@@@3@$0A@@std@@@std@@U_Iterator_base0@2@@std@@QAEAAV01@XZ ENDP ; std::_Tree_unchecked_const_iterator<std::_Tree_val<std::_Tmap_traits<int,GAMESHOP_ITEM_DATA *,std::less<int>,std::allocator<std::pair<int const ,GAMESHOP_ITEM_DATA *> >,0> >,std::_Iterator_base0>::operator++
_TEXT	ENDS
PUBLIC	??0?$_Tree_unchecked_const_iterator@V?$_Tree_val@V?$_Tmap_traits@HPAUGAMESHOP_PACKAGE_DATA@@U?$less@H@std@@V?$allocator@U?$pair@$$CBHPAUGAMESHOP_PACKAGE_DATA@@@std@@@3@$0A@@std@@@std@@U_Iterator_base0@2@@std@@QAE@PAU_Node@?$_Tree_nod@V?$_Tmap_traits@HPAUGAMESHOP_PACKAGE_DATA@@U?$less@H@std@@V?$allocator@U?$pair@$$CBHPAUGAMESHOP_PACKAGE_DATA@@@std@@@3@$0A@@std@@@1@PBV?$_Tree_val@V?$_Tmap_traits@HPAUGAMESHOP_PACKAGE_DATA@@U?$less@H@std@@V?$allocator@U?$pair@$$CBHPAUGAMESHOP_PACKAGE_DATA@@@std@@@3@$0A@@std@@@1@@Z ; std::_Tree_unchecked_const_iterator<std::_Tree_val<std::_Tmap_traits<int,GAMESHOP_PACKAGE_DATA *,std::less<int>,std::allocator<std::pair<int const ,GAMESHOP_PACKAGE_DATA *> >,0> >,std::_Iterator_base0>::_Tree_unchecked_const_iterator<std::_Tree_val<std::_Tmap_traits<int,GAMESHOP_PACKAGE_DATA *,std::less<int>,std::allocator<std::pair<int const ,GAMESHOP_PACKAGE_DATA *> >,0> >,std::_Iterator_base0>
; Function compile flags: /Ogtp
;	COMDAT ??0?$_Tree_unchecked_const_iterator@V?$_Tree_val@V?$_Tmap_traits@HPAUGAMESHOP_PACKAGE_DATA@@U?$less@H@std@@V?$allocator@U?$pair@$$CBHPAUGAMESHOP_PACKAGE_DATA@@@std@@@3@$0A@@std@@@std@@U_Iterator_base0@2@@std@@QAE@PAU_Node@?$_Tree_nod@V?$_Tmap_traits@HPAUGAMESHOP_PACKAGE_DATA@@U?$less@H@std@@V?$allocator@U?$pair@$$CBHPAUGAMESHOP_PACKAGE_DATA@@@std@@@3@$0A@@std@@@1@PBV?$_Tree_val@V?$_Tmap_traits@HPAUGAMESHOP_PACKAGE_DATA@@U?$less@H@std@@V?$allocator@U?$pair@$$CBHPAUGAMESHOP_PACKAGE_DATA@@@std@@@3@$0A@@std@@@1@@Z
_TEXT	SEGMENT
__Pnode$ = 8						; size = 4
__Plist$ = 12						; size = 4
??0?$_Tree_unchecked_const_iterator@V?$_Tree_val@V?$_Tmap_traits@HPAUGAMESHOP_PACKAGE_DATA@@U?$less@H@std@@V?$allocator@U?$pair@$$CBHPAUGAMESHOP_PACKAGE_DATA@@@std@@@3@$0A@@std@@@std@@U_Iterator_base0@2@@std@@QAE@PAU_Node@?$_Tree_nod@V?$_Tmap_traits@HPAUGAMESHOP_PACKAGE_DATA@@U?$less@H@std@@V?$allocator@U?$pair@$$CBHPAUGAMESHOP_PACKAGE_DATA@@@std@@@3@$0A@@std@@@1@PBV?$_Tree_val@V?$_Tmap_traits@HPAUGAMESHOP_PACKAGE_DATA@@U?$less@H@std@@V?$allocator@U?$pair@$$CBHPAUGAMESHOP_PACKAGE_DATA@@@std@@@3@$0A@@std@@@1@@Z PROC ; std::_Tree_unchecked_const_iterator<std::_Tree_val<std::_Tmap_traits<int,GAMESHOP_PACKAGE_DATA *,std::less<int>,std::allocator<std::pair<int const ,GAMESHOP_PACKAGE_DATA *> >,0> >,std::_Iterator_base0>::_Tree_unchecked_const_iterator<std::_Tree_val<std::_Tmap_traits<int,GAMESHOP_PACKAGE_DATA *,std::less<int>,std::allocator<std::pair<int const ,GAMESHOP_PACKAGE_DATA *> >,0> >,std::_Iterator_base0>, COMDAT
; _this$ = ecx

; 43   : 		{	// construct with node pointer _Pnode

  00000	55		 push	 ebp
  00001	8b ec		 mov	 ebp, esp
  00003	8b c1		 mov	 eax, ecx
  00005	8b 4d 08	 mov	 ecx, DWORD PTR __Pnode$[ebp]
  00008	89 08		 mov	 DWORD PTR [eax], ecx

; 44   : 		this->_Adopt(_Plist);
; 45   : 		}

  0000a	5d		 pop	 ebp
  0000b	c2 08 00	 ret	 8
??0?$_Tree_unchecked_const_iterator@V?$_Tree_val@V?$_Tmap_traits@HPAUGAMESHOP_PACKAGE_DATA@@U?$less@H@std@@V?$allocator@U?$pair@$$CBHPAUGAMESHOP_PACKAGE_DATA@@@std@@@3@$0A@@std@@@std@@U_Iterator_base0@2@@std@@QAE@PAU_Node@?$_Tree_nod@V?$_Tmap_traits@HPAUGAMESHOP_PACKAGE_DATA@@U?$less@H@std@@V?$allocator@U?$pair@$$CBHPAUGAMESHOP_PACKAGE_DATA@@@std@@@3@$0A@@std@@@1@PBV?$_Tree_val@V?$_Tmap_traits@HPAUGAMESHOP_PACKAGE_DATA@@U?$less@H@std@@V?$allocator@U?$pair@$$CBHPAUGAMESHOP_PACKAGE_DATA@@@std@@@3@$0A@@std@@@1@@Z ENDP ; std::_Tree_unchecked_const_iterator<std::_Tree_val<std::_Tmap_traits<int,GAMESHOP_PACKAGE_DATA *,std::less<int>,std::allocator<std::pair<int const ,GAMESHOP_PACKAGE_DATA *> >,0> >,std::_Iterator_base0>::_Tree_unchecked_const_iterator<std::_Tree_val<std::_Tmap_traits<int,GAMESHOP_PACKAGE_DATA *,std::less<int>,std::allocator<std::pair<int const ,GAMESHOP_PACKAGE_DATA *> >,0> >,std::_Iterator_base0>
_TEXT	ENDS
PUBLIC	??E?$_Tree_unchecked_const_iterator@V?$_Tree_val@V?$_Tmap_traits@HPAUGAMESHOP_PACKAGE_DATA@@U?$less@H@std@@V?$allocator@U?$pair@$$CBHPAUGAMESHOP_PACKAGE_DATA@@@std@@@3@$0A@@std@@@std@@U_Iterator_base0@2@@std@@QAEAAV01@XZ ; std::_Tree_unchecked_const_iterator<std::_Tree_val<std::_Tmap_traits<int,GAMESHOP_PACKAGE_DATA *,std::less<int>,std::allocator<std::pair<int const ,GAMESHOP_PACKAGE_DATA *> >,0> >,std::_Iterator_base0>::operator++
; Function compile flags: /Ogtp
;	COMDAT ??E?$_Tree_unchecked_const_iterator@V?$_Tree_val@V?$_Tmap_traits@HPAUGAMESHOP_PACKAGE_DATA@@U?$less@H@std@@V?$allocator@U?$pair@$$CBHPAUGAMESHOP_PACKAGE_DATA@@@std@@@3@$0A@@std@@@std@@U_Iterator_base0@2@@std@@QAEAAV01@XZ
_TEXT	SEGMENT
??E?$_Tree_unchecked_const_iterator@V?$_Tree_val@V?$_Tmap_traits@HPAUGAMESHOP_PACKAGE_DATA@@U?$less@H@std@@V?$allocator@U?$pair@$$CBHPAUGAMESHOP_PACKAGE_DATA@@@std@@@3@$0A@@std@@@std@@U_Iterator_base0@2@@std@@QAEAAV01@XZ PROC ; std::_Tree_unchecked_const_iterator<std::_Tree_val<std::_Tmap_traits<int,GAMESHOP_PACKAGE_DATA *,std::less<int>,std::allocator<std::pair<int const ,GAMESHOP_PACKAGE_DATA *> >,0> >,std::_Iterator_base0>::operator++, COMDAT
; _this$ = ecx

; 58   : 		{	// preincrement

  00000	8b c1		 mov	 eax, ecx

; 59   : 		if (_Mytree::_Isnil(_Ptr))

  00002	8b 10		 mov	 edx, DWORD PTR [eax]
  00004	80 7a 15 00	 cmp	 BYTE PTR [edx+21], 0
  00008	75 40		 jne	 SHORT $LN3@operator@4

; 60   : 			;	// end() shouldn't be incremented, don't move
; 61   : 		else if (!_Mytree::_Isnil(_Mytree::_Right(_Ptr)))

  0000a	8b 4a 08	 mov	 ecx, DWORD PTR [edx+8]
  0000d	80 79 15 00	 cmp	 BYTE PTR [ecx+21], 0
  00011	75 1a		 jne	 SHORT $LN34@operator@4

; 62   : 			_Ptr = _Mytree::_Min(
; 63   : 				_Mytree::_Right(_Ptr));	// ==> smallest of right subtree

  00013	8b 11		 mov	 edx, DWORD PTR [ecx]
  00015	80 7a 15 00	 cmp	 BYTE PTR [edx+21], 0
  00019	75 0f		 jne	 SHORT $LN17@operator@4
  0001b	eb 03 8d 49 00	 npad	 5
$LL18@operator@4:
  00020	8b ca		 mov	 ecx, edx
  00022	8b 11		 mov	 edx, DWORD PTR [ecx]
  00024	80 7a 15 00	 cmp	 BYTE PTR [edx+21], 0
  00028	74 f6		 je	 SHORT $LL18@operator@4
$LN17@operator@4:
  0002a	89 08		 mov	 DWORD PTR [eax], ecx

; 71   : 			}
; 72   : 		return (*this);
; 73   : 		}

  0002c	c3		 ret	 0
$LN34@operator@4:

; 64   : 		else
; 65   : 			{	// climb looking for right subtree
; 66   : 			_Nodeptr _Pnode;
; 67   : 			while (!_Mytree::_Isnil(_Pnode = _Mytree::_Parent(_Ptr))
; 68   : 				&& _Ptr == _Mytree::_Right(_Pnode))

  0002d	8b 52 04	 mov	 edx, DWORD PTR [edx+4]
  00030	80 7a 15 00	 cmp	 BYTE PTR [edx+21], 0
  00034	75 12		 jne	 SHORT $LN1@operator@4
$LL2@operator@4:
  00036	8b 08		 mov	 ecx, DWORD PTR [eax]
  00038	3b 4a 08	 cmp	 ecx, DWORD PTR [edx+8]
  0003b	75 0b		 jne	 SHORT $LN1@operator@4

; 69   : 				_Ptr = _Pnode;	// ==> parent while right subtree

  0003d	89 10		 mov	 DWORD PTR [eax], edx
  0003f	8b 52 04	 mov	 edx, DWORD PTR [edx+4]
  00042	80 7a 15 00	 cmp	 BYTE PTR [edx+21], 0
  00046	74 ee		 je	 SHORT $LL2@operator@4
$LN1@operator@4:

; 70   : 			_Ptr = _Pnode;	// ==> parent (head if end())

  00048	89 10		 mov	 DWORD PTR [eax], edx
$LN3@operator@4:

; 71   : 			}
; 72   : 		return (*this);
; 73   : 		}

  0004a	c3		 ret	 0
??E?$_Tree_unchecked_const_iterator@V?$_Tree_val@V?$_Tmap_traits@HPAUGAMESHOP_PACKAGE_DATA@@U?$less@H@std@@V?$allocator@U?$pair@$$CBHPAUGAMESHOP_PACKAGE_DATA@@@std@@@3@$0A@@std@@@std@@U_Iterator_base0@2@@std@@QAEAAV01@XZ ENDP ; std::_Tree_unchecked_const_iterator<std::_Tree_val<std::_Tmap_traits<int,GAMESHOP_PACKAGE_DATA *,std::less<int>,std::allocator<std::pair<int const ,GAMESHOP_PACKAGE_DATA *> >,0> >,std::_Iterator_base0>::operator++
_TEXT	ENDS
PUBLIC	?_Lrotate@?$_Tree@V?$_Tmap_traits@HPAUGAMESHOP_ITEM_DATA@@U?$less@H@std@@V?$allocator@U?$pair@$$CBHPAUGAMESHOP_ITEM_DATA@@@std@@@3@$0A@@std@@@std@@IAEXPAU_Node@?$_Tree_nod@V?$_Tmap_traits@HPAUGAMESHOP_ITEM_DATA@@U?$less@H@std@@V?$allocator@U?$pair@$$CBHPAUGAMESHOP_ITEM_DATA@@@std@@@3@$0A@@std@@@2@@Z ; std::_Tree<std::_Tmap_traits<int,GAMESHOP_ITEM_DATA *,std::less<int>,std::allocator<std::pair<int const ,GAMESHOP_ITEM_DATA *> >,0> >::_Lrotate
; Function compile flags: /Ogtp
;	COMDAT ?_Lrotate@?$_Tree@V?$_Tmap_traits@HPAUGAMESHOP_ITEM_DATA@@U?$less@H@std@@V?$allocator@U?$pair@$$CBHPAUGAMESHOP_ITEM_DATA@@@std@@@3@$0A@@std@@@std@@IAEXPAU_Node@?$_Tree_nod@V?$_Tmap_traits@HPAUGAMESHOP_ITEM_DATA@@U?$less@H@std@@V?$allocator@U?$pair@$$CBHPAUGAMESHOP_ITEM_DATA@@@std@@@3@$0A@@std@@@2@@Z
_TEXT	SEGMENT
__Wherenode$ = 8					; size = 4
?_Lrotate@?$_Tree@V?$_Tmap_traits@HPAUGAMESHOP_ITEM_DATA@@U?$less@H@std@@V?$allocator@U?$pair@$$CBHPAUGAMESHOP_ITEM_DATA@@@std@@@3@$0A@@std@@@std@@IAEXPAU_Node@?$_Tree_nod@V?$_Tmap_traits@HPAUGAMESHOP_ITEM_DATA@@U?$less@H@std@@V?$allocator@U?$pair@$$CBHPAUGAMESHOP_ITEM_DATA@@@std@@@3@$0A@@std@@@2@@Z PROC ; std::_Tree<std::_Tmap_traits<int,GAMESHOP_ITEM_DATA *,std::less<int>,std::allocator<std::pair<int const ,GAMESHOP_ITEM_DATA *> >,0> >::_Lrotate, COMDAT
; _this$ = ecx

; 1763 : 		{	// promote right node to root of subtree

  00000	55		 push	 ebp
  00001	8b ec		 mov	 ebp, esp

; 1764 : 		_Nodeptr _Pnode = this->_Right(_Wherenode);

  00003	8b 55 08	 mov	 edx, DWORD PTR __Wherenode$[ebp]
  00006	8b 42 08	 mov	 eax, DWORD PTR [edx+8]
  00009	56		 push	 esi

; 1765 : 		this->_Right(_Wherenode) = this->_Left(_Pnode);

  0000a	8b 30		 mov	 esi, DWORD PTR [eax]
  0000c	89 72 08	 mov	 DWORD PTR [edx+8], esi

; 1766 : 
; 1767 : 		if (!this->_Isnil(this->_Left(_Pnode)))

  0000f	8b 30		 mov	 esi, DWORD PTR [eax]
  00011	80 7e 15 00	 cmp	 BYTE PTR [esi+21], 0
  00015	75 03		 jne	 SHORT $LN5@Lrotate

; 1768 : 			this->_Parent(this->_Left(_Pnode)) = _Wherenode;

  00017	89 56 04	 mov	 DWORD PTR [esi+4], edx
$LN5@Lrotate:

; 1769 : 		this->_Parent(_Pnode) = this->_Parent(_Wherenode);

  0001a	8b 72 04	 mov	 esi, DWORD PTR [edx+4]
  0001d	89 70 04	 mov	 DWORD PTR [eax+4], esi

; 1770 : 
; 1771 : 		if (_Wherenode == _Root())

  00020	8b 49 04	 mov	 ecx, DWORD PTR [ecx+4]
  00023	5e		 pop	 esi
  00024	3b 51 04	 cmp	 edx, DWORD PTR [ecx+4]
  00027	75 0c		 jne	 SHORT $LN4@Lrotate

; 1772 : 			_Root() = _Pnode;

  00029	89 41 04	 mov	 DWORD PTR [ecx+4], eax

; 1777 : 
; 1778 : 		this->_Left(_Pnode) = _Wherenode;

  0002c	89 10		 mov	 DWORD PTR [eax], edx

; 1779 : 		this->_Parent(_Wherenode) = _Pnode;

  0002e	89 42 04	 mov	 DWORD PTR [edx+4], eax

; 1780 : 		}

  00031	5d		 pop	 ebp
  00032	c2 04 00	 ret	 4
$LN4@Lrotate:

; 1773 : 		else if (_Wherenode == this->_Left(this->_Parent(_Wherenode)))

  00035	8b 4a 04	 mov	 ecx, DWORD PTR [edx+4]
  00038	3b 11		 cmp	 edx, DWORD PTR [ecx]
  0003a	75 0b		 jne	 SHORT $LN2@Lrotate

; 1774 : 			this->_Left(this->_Parent(_Wherenode)) = _Pnode;

  0003c	89 01		 mov	 DWORD PTR [ecx], eax

; 1777 : 
; 1778 : 		this->_Left(_Pnode) = _Wherenode;

  0003e	89 10		 mov	 DWORD PTR [eax], edx

; 1779 : 		this->_Parent(_Wherenode) = _Pnode;

  00040	89 42 04	 mov	 DWORD PTR [edx+4], eax

; 1780 : 		}

  00043	5d		 pop	 ebp
  00044	c2 04 00	 ret	 4
$LN2@Lrotate:

; 1775 : 		else
; 1776 : 			this->_Right(this->_Parent(_Wherenode)) = _Pnode;

  00047	89 41 08	 mov	 DWORD PTR [ecx+8], eax

; 1777 : 
; 1778 : 		this->_Left(_Pnode) = _Wherenode;

  0004a	89 10		 mov	 DWORD PTR [eax], edx

; 1779 : 		this->_Parent(_Wherenode) = _Pnode;

  0004c	89 42 04	 mov	 DWORD PTR [edx+4], eax

; 1780 : 		}

  0004f	5d		 pop	 ebp
  00050	c2 04 00	 ret	 4
?_Lrotate@?$_Tree@V?$_Tmap_traits@HPAUGAMESHOP_ITEM_DATA@@U?$less@H@std@@V?$allocator@U?$pair@$$CBHPAUGAMESHOP_ITEM_DATA@@@std@@@3@$0A@@std@@@std@@IAEXPAU_Node@?$_Tree_nod@V?$_Tmap_traits@HPAUGAMESHOP_ITEM_DATA@@U?$less@H@std@@V?$allocator@U?$pair@$$CBHPAUGAMESHOP_ITEM_DATA@@@std@@@3@$0A@@std@@@2@@Z ENDP ; std::_Tree<std::_Tmap_traits<int,GAMESHOP_ITEM_DATA *,std::less<int>,std::allocator<std::pair<int const ,GAMESHOP_ITEM_DATA *> >,0> >::_Lrotate
_TEXT	ENDS
PUBLIC	?_Rrotate@?$_Tree@V?$_Tmap_traits@HPAUGAMESHOP_ITEM_DATA@@U?$less@H@std@@V?$allocator@U?$pair@$$CBHPAUGAMESHOP_ITEM_DATA@@@std@@@3@$0A@@std@@@std@@IAEXPAU_Node@?$_Tree_nod@V?$_Tmap_traits@HPAUGAMESHOP_ITEM_DATA@@U?$less@H@std@@V?$allocator@U?$pair@$$CBHPAUGAMESHOP_ITEM_DATA@@@std@@@3@$0A@@std@@@2@@Z ; std::_Tree<std::_Tmap_traits<int,GAMESHOP_ITEM_DATA *,std::less<int>,std::allocator<std::pair<int const ,GAMESHOP_ITEM_DATA *> >,0> >::_Rrotate
; Function compile flags: /Ogtp
;	COMDAT ?_Rrotate@?$_Tree@V?$_Tmap_traits@HPAUGAMESHOP_ITEM_DATA@@U?$less@H@std@@V?$allocator@U?$pair@$$CBHPAUGAMESHOP_ITEM_DATA@@@std@@@3@$0A@@std@@@std@@IAEXPAU_Node@?$_Tree_nod@V?$_Tmap_traits@HPAUGAMESHOP_ITEM_DATA@@U?$less@H@std@@V?$allocator@U?$pair@$$CBHPAUGAMESHOP_ITEM_DATA@@@std@@@3@$0A@@std@@@2@@Z
_TEXT	SEGMENT
__Wherenode$ = 8					; size = 4
?_Rrotate@?$_Tree@V?$_Tmap_traits@HPAUGAMESHOP_ITEM_DATA@@U?$less@H@std@@V?$allocator@U?$pair@$$CBHPAUGAMESHOP_ITEM_DATA@@@std@@@3@$0A@@std@@@std@@IAEXPAU_Node@?$_Tree_nod@V?$_Tmap_traits@HPAUGAMESHOP_ITEM_DATA@@U?$less@H@std@@V?$allocator@U?$pair@$$CBHPAUGAMESHOP_ITEM_DATA@@@std@@@3@$0A@@std@@@2@@Z PROC ; std::_Tree<std::_Tmap_traits<int,GAMESHOP_ITEM_DATA *,std::less<int>,std::allocator<std::pair<int const ,GAMESHOP_ITEM_DATA *> >,0> >::_Rrotate, COMDAT
; _this$ = ecx

; 1793 : 		{	// promote left node to root of subtree

  00000	55		 push	 ebp
  00001	8b ec		 mov	 ebp, esp

; 1794 : 		_Nodeptr _Pnode = this->_Left(_Wherenode);

  00003	8b 55 08	 mov	 edx, DWORD PTR __Wherenode$[ebp]
  00006	8b 02		 mov	 eax, DWORD PTR [edx]
  00008	56		 push	 esi

; 1795 : 		this->_Left(_Wherenode) = this->_Right(_Pnode);

  00009	8b 70 08	 mov	 esi, DWORD PTR [eax+8]
  0000c	89 32		 mov	 DWORD PTR [edx], esi

; 1796 : 
; 1797 : 		if (!this->_Isnil(this->_Right(_Pnode)))

  0000e	8b 70 08	 mov	 esi, DWORD PTR [eax+8]
  00011	80 7e 15 00	 cmp	 BYTE PTR [esi+21], 0
  00015	75 03		 jne	 SHORT $LN5@Rrotate

; 1798 : 			this->_Parent(this->_Right(_Pnode)) = _Wherenode;

  00017	89 56 04	 mov	 DWORD PTR [esi+4], edx
$LN5@Rrotate:

; 1799 : 		this->_Parent(_Pnode) = this->_Parent(_Wherenode);

  0001a	8b 72 04	 mov	 esi, DWORD PTR [edx+4]
  0001d	89 70 04	 mov	 DWORD PTR [eax+4], esi

; 1800 : 
; 1801 : 		if (_Wherenode == _Root())

  00020	8b 49 04	 mov	 ecx, DWORD PTR [ecx+4]
  00023	5e		 pop	 esi
  00024	3b 51 04	 cmp	 edx, DWORD PTR [ecx+4]
  00027	75 0d		 jne	 SHORT $LN4@Rrotate

; 1802 : 			_Root() = _Pnode;

  00029	89 41 04	 mov	 DWORD PTR [ecx+4], eax

; 1807 : 
; 1808 : 		this->_Right(_Pnode) = _Wherenode;

  0002c	89 50 08	 mov	 DWORD PTR [eax+8], edx

; 1809 : 		this->_Parent(_Wherenode) = _Pnode;

  0002f	89 42 04	 mov	 DWORD PTR [edx+4], eax

; 1810 : 		}

  00032	5d		 pop	 ebp
  00033	c2 04 00	 ret	 4
$LN4@Rrotate:

; 1803 : 		else if (_Wherenode == this->_Right(this->_Parent(_Wherenode)))

  00036	8b 4a 04	 mov	 ecx, DWORD PTR [edx+4]
  00039	3b 51 08	 cmp	 edx, DWORD PTR [ecx+8]
  0003c	75 0d		 jne	 SHORT $LN2@Rrotate

; 1804 : 			this->_Right(this->_Parent(_Wherenode)) = _Pnode;

  0003e	89 41 08	 mov	 DWORD PTR [ecx+8], eax

; 1807 : 
; 1808 : 		this->_Right(_Pnode) = _Wherenode;

  00041	89 50 08	 mov	 DWORD PTR [eax+8], edx

; 1809 : 		this->_Parent(_Wherenode) = _Pnode;

  00044	89 42 04	 mov	 DWORD PTR [edx+4], eax

; 1810 : 		}

  00047	5d		 pop	 ebp
  00048	c2 04 00	 ret	 4
$LN2@Rrotate:

; 1805 : 		else
; 1806 : 			this->_Left(this->_Parent(_Wherenode)) = _Pnode;

  0004b	89 01		 mov	 DWORD PTR [ecx], eax

; 1807 : 
; 1808 : 		this->_Right(_Pnode) = _Wherenode;

  0004d	89 50 08	 mov	 DWORD PTR [eax+8], edx

; 1809 : 		this->_Parent(_Wherenode) = _Pnode;

  00050	89 42 04	 mov	 DWORD PTR [edx+4], eax

; 1810 : 		}

  00053	5d		 pop	 ebp
  00054	c2 04 00	 ret	 4
?_Rrotate@?$_Tree@V?$_Tmap_traits@HPAUGAMESHOP_ITEM_DATA@@U?$less@H@std@@V?$allocator@U?$pair@$$CBHPAUGAMESHOP_ITEM_DATA@@@std@@@3@$0A@@std@@@std@@IAEXPAU_Node@?$_Tree_nod@V?$_Tmap_traits@HPAUGAMESHOP_ITEM_DATA@@U?$less@H@std@@V?$allocator@U?$pair@$$CBHPAUGAMESHOP_ITEM_DATA@@@std@@@3@$0A@@std@@@2@@Z ENDP ; std::_Tree<std::_Tmap_traits<int,GAMESHOP_ITEM_DATA *,std::less<int>,std::allocator<std::pair<int const ,GAMESHOP_ITEM_DATA *> >,0> >::_Rrotate
_TEXT	ENDS
PUBLIC	?_Lrotate@?$_Tree@V?$_Tmap_traits@HPAUGAMESHOP_PACKAGE_DATA@@U?$less@H@std@@V?$allocator@U?$pair@$$CBHPAUGAMESHOP_PACKAGE_DATA@@@std@@@3@$0A@@std@@@std@@IAEXPAU_Node@?$_Tree_nod@V?$_Tmap_traits@HPAUGAMESHOP_PACKAGE_DATA@@U?$less@H@std@@V?$allocator@U?$pair@$$CBHPAUGAMESHOP_PACKAGE_DATA@@@std@@@3@$0A@@std@@@2@@Z ; std::_Tree<std::_Tmap_traits<int,GAMESHOP_PACKAGE_DATA *,std::less<int>,std::allocator<std::pair<int const ,GAMESHOP_PACKAGE_DATA *> >,0> >::_Lrotate
; Function compile flags: /Ogtp
;	COMDAT ?_Lrotate@?$_Tree@V?$_Tmap_traits@HPAUGAMESHOP_PACKAGE_DATA@@U?$less@H@std@@V?$allocator@U?$pair@$$CBHPAUGAMESHOP_PACKAGE_DATA@@@std@@@3@$0A@@std@@@std@@IAEXPAU_Node@?$_Tree_nod@V?$_Tmap_traits@HPAUGAMESHOP_PACKAGE_DATA@@U?$less@H@std@@V?$allocator@U?$pair@$$CBHPAUGAMESHOP_PACKAGE_DATA@@@std@@@3@$0A@@std@@@2@@Z
_TEXT	SEGMENT
__Wherenode$ = 8					; size = 4
?_Lrotate@?$_Tree@V?$_Tmap_traits@HPAUGAMESHOP_PACKAGE_DATA@@U?$less@H@std@@V?$allocator@U?$pair@$$CBHPAUGAMESHOP_PACKAGE_DATA@@@std@@@3@$0A@@std@@@std@@IAEXPAU_Node@?$_Tree_nod@V?$_Tmap_traits@HPAUGAMESHOP_PACKAGE_DATA@@U?$less@H@std@@V?$allocator@U?$pair@$$CBHPAUGAMESHOP_PACKAGE_DATA@@@std@@@3@$0A@@std@@@2@@Z PROC ; std::_Tree<std::_Tmap_traits<int,GAMESHOP_PACKAGE_DATA *,std::less<int>,std::allocator<std::pair<int const ,GAMESHOP_PACKAGE_DATA *> >,0> >::_Lrotate, COMDAT
; _this$ = ecx

; 1763 : 		{	// promote right node to root of subtree

  00000	55		 push	 ebp
  00001	8b ec		 mov	 ebp, esp

; 1764 : 		_Nodeptr _Pnode = this->_Right(_Wherenode);

  00003	8b 55 08	 mov	 edx, DWORD PTR __Wherenode$[ebp]
  00006	8b 42 08	 mov	 eax, DWORD PTR [edx+8]
  00009	56		 push	 esi

; 1765 : 		this->_Right(_Wherenode) = this->_Left(_Pnode);

  0000a	8b 30		 mov	 esi, DWORD PTR [eax]
  0000c	89 72 08	 mov	 DWORD PTR [edx+8], esi

; 1766 : 
; 1767 : 		if (!this->_Isnil(this->_Left(_Pnode)))

  0000f	8b 30		 mov	 esi, DWORD PTR [eax]
  00011	80 7e 15 00	 cmp	 BYTE PTR [esi+21], 0
  00015	75 03		 jne	 SHORT $LN5@Lrotate@2

; 1768 : 			this->_Parent(this->_Left(_Pnode)) = _Wherenode;

  00017	89 56 04	 mov	 DWORD PTR [esi+4], edx
$LN5@Lrotate@2:

; 1769 : 		this->_Parent(_Pnode) = this->_Parent(_Wherenode);

  0001a	8b 72 04	 mov	 esi, DWORD PTR [edx+4]
  0001d	89 70 04	 mov	 DWORD PTR [eax+4], esi

; 1770 : 
; 1771 : 		if (_Wherenode == _Root())

  00020	8b 49 04	 mov	 ecx, DWORD PTR [ecx+4]
  00023	5e		 pop	 esi
  00024	3b 51 04	 cmp	 edx, DWORD PTR [ecx+4]
  00027	75 0c		 jne	 SHORT $LN4@Lrotate@2

; 1772 : 			_Root() = _Pnode;

  00029	89 41 04	 mov	 DWORD PTR [ecx+4], eax

; 1777 : 
; 1778 : 		this->_Left(_Pnode) = _Wherenode;

  0002c	89 10		 mov	 DWORD PTR [eax], edx

; 1779 : 		this->_Parent(_Wherenode) = _Pnode;

  0002e	89 42 04	 mov	 DWORD PTR [edx+4], eax

; 1780 : 		}

  00031	5d		 pop	 ebp
  00032	c2 04 00	 ret	 4
$LN4@Lrotate@2:

; 1773 : 		else if (_Wherenode == this->_Left(this->_Parent(_Wherenode)))

  00035	8b 4a 04	 mov	 ecx, DWORD PTR [edx+4]
  00038	3b 11		 cmp	 edx, DWORD PTR [ecx]
  0003a	75 0b		 jne	 SHORT $LN2@Lrotate@2

; 1774 : 			this->_Left(this->_Parent(_Wherenode)) = _Pnode;

  0003c	89 01		 mov	 DWORD PTR [ecx], eax

; 1777 : 
; 1778 : 		this->_Left(_Pnode) = _Wherenode;

  0003e	89 10		 mov	 DWORD PTR [eax], edx

; 1779 : 		this->_Parent(_Wherenode) = _Pnode;

  00040	89 42 04	 mov	 DWORD PTR [edx+4], eax

; 1780 : 		}

  00043	5d		 pop	 ebp
  00044	c2 04 00	 ret	 4
$LN2@Lrotate@2:

; 1775 : 		else
; 1776 : 			this->_Right(this->_Parent(_Wherenode)) = _Pnode;

  00047	89 41 08	 mov	 DWORD PTR [ecx+8], eax

; 1777 : 
; 1778 : 		this->_Left(_Pnode) = _Wherenode;

  0004a	89 10		 mov	 DWORD PTR [eax], edx

; 1779 : 		this->_Parent(_Wherenode) = _Pnode;

  0004c	89 42 04	 mov	 DWORD PTR [edx+4], eax

; 1780 : 		}

  0004f	5d		 pop	 ebp
  00050	c2 04 00	 ret	 4
?_Lrotate@?$_Tree@V?$_Tmap_traits@HPAUGAMESHOP_PACKAGE_DATA@@U?$less@H@std@@V?$allocator@U?$pair@$$CBHPAUGAMESHOP_PACKAGE_DATA@@@std@@@3@$0A@@std@@@std@@IAEXPAU_Node@?$_Tree_nod@V?$_Tmap_traits@HPAUGAMESHOP_PACKAGE_DATA@@U?$less@H@std@@V?$allocator@U?$pair@$$CBHPAUGAMESHOP_PACKAGE_DATA@@@std@@@3@$0A@@std@@@2@@Z ENDP ; std::_Tree<std::_Tmap_traits<int,GAMESHOP_PACKAGE_DATA *,std::less<int>,std::allocator<std::pair<int const ,GAMESHOP_PACKAGE_DATA *> >,0> >::_Lrotate
_TEXT	ENDS
PUBLIC	?_Rrotate@?$_Tree@V?$_Tmap_traits@HPAUGAMESHOP_PACKAGE_DATA@@U?$less@H@std@@V?$allocator@U?$pair@$$CBHPAUGAMESHOP_PACKAGE_DATA@@@std@@@3@$0A@@std@@@std@@IAEXPAU_Node@?$_Tree_nod@V?$_Tmap_traits@HPAUGAMESHOP_PACKAGE_DATA@@U?$less@H@std@@V?$allocator@U?$pair@$$CBHPAUGAMESHOP_PACKAGE_DATA@@@std@@@3@$0A@@std@@@2@@Z ; std::_Tree<std::_Tmap_traits<int,GAMESHOP_PACKAGE_DATA *,std::less<int>,std::allocator<std::pair<int const ,GAMESHOP_PACKAGE_DATA *> >,0> >::_Rrotate
; Function compile flags: /Ogtp
;	COMDAT ?_Rrotate@?$_Tree@V?$_Tmap_traits@HPAUGAMESHOP_PACKAGE_DATA@@U?$less@H@std@@V?$allocator@U?$pair@$$CBHPAUGAMESHOP_PACKAGE_DATA@@@std@@@3@$0A@@std@@@std@@IAEXPAU_Node@?$_Tree_nod@V?$_Tmap_traits@HPAUGAMESHOP_PACKAGE_DATA@@U?$less@H@std@@V?$allocator@U?$pair@$$CBHPAUGAMESHOP_PACKAGE_DATA@@@std@@@3@$0A@@std@@@2@@Z
_TEXT	SEGMENT
__Wherenode$ = 8					; size = 4
?_Rrotate@?$_Tree@V?$_Tmap_traits@HPAUGAMESHOP_PACKAGE_DATA@@U?$less@H@std@@V?$allocator@U?$pair@$$CBHPAUGAMESHOP_PACKAGE_DATA@@@std@@@3@$0A@@std@@@std@@IAEXPAU_Node@?$_Tree_nod@V?$_Tmap_traits@HPAUGAMESHOP_PACKAGE_DATA@@U?$less@H@std@@V?$allocator@U?$pair@$$CBHPAUGAMESHOP_PACKAGE_DATA@@@std@@@3@$0A@@std@@@2@@Z PROC ; std::_Tree<std::_Tmap_traits<int,GAMESHOP_PACKAGE_DATA *,std::less<int>,std::allocator<std::pair<int const ,GAMESHOP_PACKAGE_DATA *> >,0> >::_Rrotate, COMDAT
; _this$ = ecx

; 1793 : 		{	// promote left node to root of subtree

  00000	55		 push	 ebp
  00001	8b ec		 mov	 ebp, esp

; 1794 : 		_Nodeptr _Pnode = this->_Left(_Wherenode);

  00003	8b 55 08	 mov	 edx, DWORD PTR __Wherenode$[ebp]
  00006	8b 02		 mov	 eax, DWORD PTR [edx]
  00008	56		 push	 esi

; 1795 : 		this->_Left(_Wherenode) = this->_Right(_Pnode);

  00009	8b 70 08	 mov	 esi, DWORD PTR [eax+8]
  0000c	89 32		 mov	 DWORD PTR [edx], esi

; 1796 : 
; 1797 : 		if (!this->_Isnil(this->_Right(_Pnode)))

  0000e	8b 70 08	 mov	 esi, DWORD PTR [eax+8]
  00011	80 7e 15 00	 cmp	 BYTE PTR [esi+21], 0
  00015	75 03		 jne	 SHORT $LN5@Rrotate@2

; 1798 : 			this->_Parent(this->_Right(_Pnode)) = _Wherenode;

  00017	89 56 04	 mov	 DWORD PTR [esi+4], edx
$LN5@Rrotate@2:

; 1799 : 		this->_Parent(_Pnode) = this->_Parent(_Wherenode);

  0001a	8b 72 04	 mov	 esi, DWORD PTR [edx+4]
  0001d	89 70 04	 mov	 DWORD PTR [eax+4], esi

; 1800 : 
; 1801 : 		if (_Wherenode == _Root())

  00020	8b 49 04	 mov	 ecx, DWORD PTR [ecx+4]
  00023	5e		 pop	 esi
  00024	3b 51 04	 cmp	 edx, DWORD PTR [ecx+4]
  00027	75 0d		 jne	 SHORT $LN4@Rrotate@2

; 1802 : 			_Root() = _Pnode;

  00029	89 41 04	 mov	 DWORD PTR [ecx+4], eax

; 1807 : 
; 1808 : 		this->_Right(_Pnode) = _Wherenode;

  0002c	89 50 08	 mov	 DWORD PTR [eax+8], edx

; 1809 : 		this->_Parent(_Wherenode) = _Pnode;

  0002f	89 42 04	 mov	 DWORD PTR [edx+4], eax

; 1810 : 		}

  00032	5d		 pop	 ebp
  00033	c2 04 00	 ret	 4
$LN4@Rrotate@2:

; 1803 : 		else if (_Wherenode == this->_Right(this->_Parent(_Wherenode)))

  00036	8b 4a 04	 mov	 ecx, DWORD PTR [edx+4]
  00039	3b 51 08	 cmp	 edx, DWORD PTR [ecx+8]
  0003c	75 0d		 jne	 SHORT $LN2@Rrotate@2

; 1804 : 			this->_Right(this->_Parent(_Wherenode)) = _Pnode;

  0003e	89 41 08	 mov	 DWORD PTR [ecx+8], eax

; 1807 : 
; 1808 : 		this->_Right(_Pnode) = _Wherenode;

  00041	89 50 08	 mov	 DWORD PTR [eax+8], edx

; 1809 : 		this->_Parent(_Wherenode) = _Pnode;

  00044	89 42 04	 mov	 DWORD PTR [edx+4], eax

; 1810 : 		}

  00047	5d		 pop	 ebp
  00048	c2 04 00	 ret	 4
$LN2@Rrotate@2:

; 1805 : 		else
; 1806 : 			this->_Left(this->_Parent(_Wherenode)) = _Pnode;

  0004b	89 01		 mov	 DWORD PTR [ecx], eax

; 1807 : 
; 1808 : 		this->_Right(_Pnode) = _Wherenode;

  0004d	89 50 08	 mov	 DWORD PTR [eax+8], edx

; 1809 : 		this->_Parent(_Wherenode) = _Pnode;

  00050	89 42 04	 mov	 DWORD PTR [edx+4], eax

; 1810 : 		}

  00053	5d		 pop	 ebp
  00054	c2 04 00	 ret	 4
?_Rrotate@?$_Tree@V?$_Tmap_traits@HPAUGAMESHOP_PACKAGE_DATA@@U?$less@H@std@@V?$allocator@U?$pair@$$CBHPAUGAMESHOP_PACKAGE_DATA@@@std@@@3@$0A@@std@@@std@@IAEXPAU_Node@?$_Tree_nod@V?$_Tmap_traits@HPAUGAMESHOP_PACKAGE_DATA@@U?$less@H@std@@V?$allocator@U?$pair@$$CBHPAUGAMESHOP_PACKAGE_DATA@@@std@@@3@$0A@@std@@@2@@Z ENDP ; std::_Tree<std::_Tmap_traits<int,GAMESHOP_PACKAGE_DATA *,std::less<int>,std::allocator<std::pair<int const ,GAMESHOP_PACKAGE_DATA *> >,0> >::_Rrotate
_TEXT	ENDS
PUBLIC	??$?0AAHAAPAUGAMESHOP_ITEM_DATA@@@?$pair@HPAUGAMESHOP_ITEM_DATA@@@std@@QAE@AAHAAPAUGAMESHOP_ITEM_DATA@@@Z ; std::pair<int,GAMESHOP_ITEM_DATA *>::pair<int,GAMESHOP_ITEM_DATA *><int &,GAMESHOP_ITEM_DATA * &>
; Function compile flags: /Ogtp
; File d:\program files (x86)\microsoft visual studio 10.0\vc\include\utility
;	COMDAT ??$?0AAHAAPAUGAMESHOP_ITEM_DATA@@@?$pair@HPAUGAMESHOP_ITEM_DATA@@@std@@QAE@AAHAAPAUGAMESHOP_ITEM_DATA@@@Z
_TEXT	SEGMENT
__Val1$ = 8						; size = 4
__Val2$ = 12						; size = 4
??$?0AAHAAPAUGAMESHOP_ITEM_DATA@@@?$pair@HPAUGAMESHOP_ITEM_DATA@@@std@@QAE@AAHAAPAUGAMESHOP_ITEM_DATA@@@Z PROC ; std::pair<int,GAMESHOP_ITEM_DATA *>::pair<int,GAMESHOP_ITEM_DATA *><int &,GAMESHOP_ITEM_DATA * &>, COMDAT
; _this$ = ecx

; 247  : 		{	// construct from moved values

  00000	55		 push	 ebp
  00001	8b ec		 mov	 ebp, esp
  00003	8b c1		 mov	 eax, ecx
  00005	8b 4d 08	 mov	 ecx, DWORD PTR __Val1$[ebp]
  00008	8b 11		 mov	 edx, DWORD PTR [ecx]
  0000a	8b 4d 0c	 mov	 ecx, DWORD PTR __Val2$[ebp]
  0000d	89 10		 mov	 DWORD PTR [eax], edx
  0000f	8b 11		 mov	 edx, DWORD PTR [ecx]
  00011	89 50 04	 mov	 DWORD PTR [eax+4], edx

; 248  : 		}

  00014	5d		 pop	 ebp
  00015	c2 08 00	 ret	 8
??$?0AAHAAPAUGAMESHOP_ITEM_DATA@@@?$pair@HPAUGAMESHOP_ITEM_DATA@@@std@@QAE@AAHAAPAUGAMESHOP_ITEM_DATA@@@Z ENDP ; std::pair<int,GAMESHOP_ITEM_DATA *>::pair<int,GAMESHOP_ITEM_DATA *><int &,GAMESHOP_ITEM_DATA * &>
_TEXT	ENDS
PUBLIC	??$?0AAHAAPAUGAMESHOP_PACKAGE_DATA@@@?$pair@HPAUGAMESHOP_PACKAGE_DATA@@@std@@QAE@AAHAAPAUGAMESHOP_PACKAGE_DATA@@@Z ; std::pair<int,GAMESHOP_PACKAGE_DATA *>::pair<int,GAMESHOP_PACKAGE_DATA *><int &,GAMESHOP_PACKAGE_DATA * &>
; Function compile flags: /Ogtp
;	COMDAT ??$?0AAHAAPAUGAMESHOP_PACKAGE_DATA@@@?$pair@HPAUGAMESHOP_PACKAGE_DATA@@@std@@QAE@AAHAAPAUGAMESHOP_PACKAGE_DATA@@@Z
_TEXT	SEGMENT
__Val1$ = 8						; size = 4
__Val2$ = 12						; size = 4
??$?0AAHAAPAUGAMESHOP_PACKAGE_DATA@@@?$pair@HPAUGAMESHOP_PACKAGE_DATA@@@std@@QAE@AAHAAPAUGAMESHOP_PACKAGE_DATA@@@Z PROC ; std::pair<int,GAMESHOP_PACKAGE_DATA *>::pair<int,GAMESHOP_PACKAGE_DATA *><int &,GAMESHOP_PACKAGE_DATA * &>, COMDAT
; _this$ = ecx

; 247  : 		{	// construct from moved values

  00000	55		 push	 ebp
  00001	8b ec		 mov	 ebp, esp
  00003	8b c1		 mov	 eax, ecx
  00005	8b 4d 08	 mov	 ecx, DWORD PTR __Val1$[ebp]
  00008	8b 11		 mov	 edx, DWORD PTR [ecx]
  0000a	8b 4d 0c	 mov	 ecx, DWORD PTR __Val2$[ebp]
  0000d	89 10		 mov	 DWORD PTR [eax], edx
  0000f	8b 11		 mov	 edx, DWORD PTR [ecx]
  00011	89 50 04	 mov	 DWORD PTR [eax+4], edx

; 248  : 		}

  00014	5d		 pop	 ebp
  00015	c2 08 00	 ret	 8
??$?0AAHAAPAUGAMESHOP_PACKAGE_DATA@@@?$pair@HPAUGAMESHOP_PACKAGE_DATA@@@std@@QAE@AAHAAPAUGAMESHOP_PACKAGE_DATA@@@Z ENDP ; std::pair<int,GAMESHOP_PACKAGE_DATA *>::pair<int,GAMESHOP_PACKAGE_DATA *><int &,GAMESHOP_PACKAGE_DATA * &>
_TEXT	ENDS
PUBLIC	??$swap@D@std@@YAXAAD0@Z			; std::swap<char>
; Function compile flags: /Ogtp
;	COMDAT ??$swap@D@std@@YAXAAD0@Z
_TEXT	SEGMENT
__Left$ = 8						; size = 4
__Right$ = 12						; size = 4
??$swap@D@std@@YAXAAD0@Z PROC				; std::swap<char>, COMDAT

; 101  : 	{	// exchange values stored at _Left and _Right

  00000	55		 push	 ebp
  00001	8b ec		 mov	 ebp, esp

; 102  : 	_Ty _Tmp = _Move(_Left);

  00003	8b 45 08	 mov	 eax, DWORD PTR __Left$[ebp]
  00006	8a 08		 mov	 cl, BYTE PTR [eax]
  00008	56		 push	 esi

; 103  : 	_Left = _Move(_Right);

  00009	8b 75 0c	 mov	 esi, DWORD PTR __Right$[ebp]
  0000c	8a 16		 mov	 dl, BYTE PTR [esi]
  0000e	88 10		 mov	 BYTE PTR [eax], dl

; 104  : 	_Right = _Move(_Tmp);

  00010	88 0e		 mov	 BYTE PTR [esi], cl
  00012	5e		 pop	 esi

; 105  : 	}

  00013	5d		 pop	 ebp
  00014	c3		 ret	 0
??$swap@D@std@@YAXAAD0@Z ENDP				; std::swap<char>
_TEXT	ENDS
PUBLIC	__TI2?AVbad_alloc@std@@
PUBLIC	??$_Allocate@U_Node@?$_Tree_nod@V?$_Tmap_traits@HPAUGAMESHOP_ITEM_DATA@@U?$less@H@std@@V?$allocator@U?$pair@$$CBHPAUGAMESHOP_ITEM_DATA@@@std@@@3@$0A@@std@@@std@@@std@@YAPAU_Node@?$_Tree_nod@V?$_Tmap_traits@HPAUGAMESHOP_ITEM_DATA@@U?$less@H@std@@V?$allocator@U?$pair@$$CBHPAUGAMESHOP_ITEM_DATA@@@std@@@3@$0A@@std@@@0@IPAU120@@Z ; std::_Allocate<std::_Tree_nod<std::_Tmap_traits<int,GAMESHOP_ITEM_DATA *,std::less<int>,std::allocator<std::pair<int const ,GAMESHOP_ITEM_DATA *> >,0> >::_Node>
PUBLIC	__CTA2?AVbad_alloc@std@@
PUBLIC	__CT??_R0?AVbad_alloc@std@@@8??0bad_alloc@std@@QAE@ABV01@@Z12
PUBLIC	??0bad_alloc@std@@QAE@ABV01@@Z			; std::bad_alloc::bad_alloc
PUBLIC	__CT??_R0?AVexception@std@@@8??0exception@std@@QAE@ABV01@@Z12
EXTRN	??2@YAPAXI@Z:PROC				; operator new
EXTRN	__CxxThrowException@8:PROC
EXTRN	??0exception@std@@QAE@ABV01@@Z:PROC		; std::exception::exception
;	COMDAT __CT??_R0?AVexception@std@@@8??0exception@std@@QAE@ABV01@@Z12
; File d:\program files (x86)\microsoft visual studio 10.0\vc\include\exception
xdata$x	SEGMENT
__CT??_R0?AVexception@std@@@8??0exception@std@@QAE@ABV01@@Z12 DD 00H
	DD	FLAT:??_R0?AVexception@std@@@8
	DD	00H
	DD	0ffffffffH
	ORG $+4
	DD	0cH
	DD	FLAT:??0exception@std@@QAE@ABV01@@Z
xdata$x	ENDS
;	COMDAT __CT??_R0?AVbad_alloc@std@@@8??0bad_alloc@std@@QAE@ABV01@@Z12
xdata$x	SEGMENT
__CT??_R0?AVbad_alloc@std@@@8??0bad_alloc@std@@QAE@ABV01@@Z12 DD 00H
	DD	FLAT:??_R0?AVbad_alloc@std@@@8
	DD	00H
	DD	0ffffffffH
	ORG $+4
	DD	0cH
	DD	FLAT:??0bad_alloc@std@@QAE@ABV01@@Z
xdata$x	ENDS
;	COMDAT __CTA2?AVbad_alloc@std@@
xdata$x	SEGMENT
__CTA2?AVbad_alloc@std@@ DD 02H
	DD	FLAT:__CT??_R0?AVbad_alloc@std@@@8??0bad_alloc@std@@QAE@ABV01@@Z12
	DD	FLAT:__CT??_R0?AVexception@std@@@8??0exception@std@@QAE@ABV01@@Z12
xdata$x	ENDS
;	COMDAT __TI2?AVbad_alloc@std@@
xdata$x	SEGMENT
__TI2?AVbad_alloc@std@@ DD 00H
	DD	FLAT:??1bad_alloc@std@@UAE@XZ
	DD	00H
	DD	FLAT:__CTA2?AVbad_alloc@std@@
; Function compile flags: /Ogtp
; File d:\program files (x86)\microsoft visual studio 10.0\vc\include\xmemory
xdata$x	ENDS
;	COMDAT ??$_Allocate@U_Node@?$_Tree_nod@V?$_Tmap_traits@HPAUGAMESHOP_ITEM_DATA@@U?$less@H@std@@V?$allocator@U?$pair@$$CBHPAUGAMESHOP_ITEM_DATA@@@std@@@3@$0A@@std@@@std@@@std@@YAPAU_Node@?$_Tree_nod@V?$_Tmap_traits@HPAUGAMESHOP_ITEM_DATA@@U?$less@H@std@@V?$allocator@U?$pair@$$CBHPAUGAMESHOP_ITEM_DATA@@@std@@@3@$0A@@std@@@0@IPAU120@@Z
_TEXT	SEGMENT
$T216213 = -12						; size = 12
$T216218 = 8						; size = 4
__Count$ = 8						; size = 4
___formal$ = 12						; size = 4
??$_Allocate@U_Node@?$_Tree_nod@V?$_Tmap_traits@HPAUGAMESHOP_ITEM_DATA@@U?$less@H@std@@V?$allocator@U?$pair@$$CBHPAUGAMESHOP_ITEM_DATA@@@std@@@3@$0A@@std@@@std@@@std@@YAPAU_Node@?$_Tree_nod@V?$_Tmap_traits@HPAUGAMESHOP_ITEM_DATA@@U?$less@H@std@@V?$allocator@U?$pair@$$CBHPAUGAMESHOP_ITEM_DATA@@@std@@@3@$0A@@std@@@0@IPAU120@@Z PROC ; std::_Allocate<std::_Tree_nod<std::_Tmap_traits<int,GAMESHOP_ITEM_DATA *,std::less<int>,std::allocator<std::pair<int const ,GAMESHOP_ITEM_DATA *> >,0> >::_Node>, COMDAT

; 30   : 	{	// allocate storage for _Count elements of type _Ty

  00000	55		 push	 ebp
  00001	8b ec		 mov	 ebp, esp

; 31   : 	void *_Ptr = 0;
; 32   : 
; 33   : 	if (_Count <= 0)

  00003	8b 4d 08	 mov	 ecx, DWORD PTR __Count$[ebp]
  00006	83 ec 0c	 sub	 esp, 12			; 0000000cH
  00009	33 c0		 xor	 eax, eax
  0000b	85 c9		 test	 ecx, ecx

; 34   : 		_Count = 0;
; 35   : 	else if (((_SIZT)(-1) / sizeof (_Ty) < _Count)

  0000d	74 46		 je	 SHORT $LN5@Allocate

; 36   : 		|| (_Ptr = ::operator new(_Count * sizeof (_Ty))) == 0)

  0000f	81 f9 aa aa aa
	0a		 cmp	 ecx, 178956970		; 0aaaaaaaH
  00015	77 16		 ja	 SHORT $LN1@Allocate
  00017	8d 04 49	 lea	 eax, DWORD PTR [ecx+ecx*2]
  0001a	03 c0		 add	 eax, eax
  0001c	03 c0		 add	 eax, eax
  0001e	03 c0		 add	 eax, eax
  00020	50		 push	 eax
  00021	e8 00 00 00 00	 call	 ??2@YAPAXI@Z		; operator new
  00026	83 c4 04	 add	 esp, 4
  00029	85 c0		 test	 eax, eax

; 38   : 
; 39   : 	return ((_Ty _FARQ *)_Ptr);

  0002b	75 28		 jne	 SHORT $LN5@Allocate
$LN1@Allocate:

; 37   : 		_THROW_NCEE(bad_alloc, 0);

  0002d	8d 4d 08	 lea	 ecx, DWORD PTR $T216218[ebp]
  00030	51		 push	 ecx
  00031	8d 4d f4	 lea	 ecx, DWORD PTR $T216213[ebp]
  00034	c7 45 08 00 00
	00 00		 mov	 DWORD PTR $T216218[ebp], 0
  0003b	e8 00 00 00 00	 call	 ??0exception@std@@QAE@ABQBD@Z ; std::exception::exception
  00040	68 00 00 00 00	 push	 OFFSET __TI2?AVbad_alloc@std@@
  00045	8d 55 f4	 lea	 edx, DWORD PTR $T216213[ebp]
  00048	52		 push	 edx
  00049	c7 45 f4 00 00
	00 00		 mov	 DWORD PTR $T216213[ebp], OFFSET ??_7bad_alloc@std@@6B@
  00050	e8 00 00 00 00	 call	 __CxxThrowException@8
$LN10@Allocate:
$LN5@Allocate:

; 40   : 	}

  00055	8b e5		 mov	 esp, ebp
  00057	5d		 pop	 ebp
  00058	c3		 ret	 0
$LN9@Allocate:
??$_Allocate@U_Node@?$_Tree_nod@V?$_Tmap_traits@HPAUGAMESHOP_ITEM_DATA@@U?$less@H@std@@V?$allocator@U?$pair@$$CBHPAUGAMESHOP_ITEM_DATA@@@std@@@3@$0A@@std@@@std@@@std@@YAPAU_Node@?$_Tree_nod@V?$_Tmap_traits@HPAUGAMESHOP_ITEM_DATA@@U?$less@H@std@@V?$allocator@U?$pair@$$CBHPAUGAMESHOP_ITEM_DATA@@@std@@@3@$0A@@std@@@0@IPAU120@@Z ENDP ; std::_Allocate<std::_Tree_nod<std::_Tmap_traits<int,GAMESHOP_ITEM_DATA *,std::less<int>,std::allocator<std::pair<int const ,GAMESHOP_ITEM_DATA *> >,0> >::_Node>
; Function compile flags: /Ogtp
_TEXT	ENDS
;	COMDAT ??0bad_alloc@std@@QAE@ABV01@@Z
_TEXT	SEGMENT
___that$ = 8						; size = 4
??0bad_alloc@std@@QAE@ABV01@@Z PROC			; std::bad_alloc::bad_alloc, COMDAT
; _this$ = ecx
  00000	55		 push	 ebp
  00001	8b ec		 mov	 ebp, esp
  00003	8b 45 08	 mov	 eax, DWORD PTR ___that$[ebp]
  00006	56		 push	 esi
  00007	50		 push	 eax
  00008	8b f1		 mov	 esi, ecx
  0000a	e8 00 00 00 00	 call	 ??0exception@std@@QAE@ABV01@@Z ; std::exception::exception
  0000f	c7 06 00 00 00
	00		 mov	 DWORD PTR [esi], OFFSET ??_7bad_alloc@std@@6B@
  00015	8b c6		 mov	 eax, esi
  00017	5e		 pop	 esi
  00018	5d		 pop	 ebp
  00019	c2 04 00	 ret	 4
??0bad_alloc@std@@QAE@ABV01@@Z ENDP			; std::bad_alloc::bad_alloc
_TEXT	ENDS
PUBLIC	??$_Allocate@U_Node@?$_Tree_nod@V?$_Tmap_traits@HPAUGAMESHOP_PACKAGE_DATA@@U?$less@H@std@@V?$allocator@U?$pair@$$CBHPAUGAMESHOP_PACKAGE_DATA@@@std@@@3@$0A@@std@@@std@@@std@@YAPAU_Node@?$_Tree_nod@V?$_Tmap_traits@HPAUGAMESHOP_PACKAGE_DATA@@U?$less@H@std@@V?$allocator@U?$pair@$$CBHPAUGAMESHOP_PACKAGE_DATA@@@std@@@3@$0A@@std@@@0@IPAU120@@Z ; std::_Allocate<std::_Tree_nod<std::_Tmap_traits<int,GAMESHOP_PACKAGE_DATA *,std::less<int>,std::allocator<std::pair<int const ,GAMESHOP_PACKAGE_DATA *> >,0> >::_Node>
; Function compile flags: /Ogtp
;	COMDAT ??$_Allocate@U_Node@?$_Tree_nod@V?$_Tmap_traits@HPAUGAMESHOP_PACKAGE_DATA@@U?$less@H@std@@V?$allocator@U?$pair@$$CBHPAUGAMESHOP_PACKAGE_DATA@@@std@@@3@$0A@@std@@@std@@@std@@YAPAU_Node@?$_Tree_nod@V?$_Tmap_traits@HPAUGAMESHOP_PACKAGE_DATA@@U?$less@H@std@@V?$allocator@U?$pair@$$CBHPAUGAMESHOP_PACKAGE_DATA@@@std@@@3@$0A@@std@@@0@IPAU120@@Z
_TEXT	SEGMENT
$T216226 = -12						; size = 12
$T216230 = 8						; size = 4
__Count$ = 8						; size = 4
___formal$ = 12						; size = 4
??$_Allocate@U_Node@?$_Tree_nod@V?$_Tmap_traits@HPAUGAMESHOP_PACKAGE_DATA@@U?$less@H@std@@V?$allocator@U?$pair@$$CBHPAUGAMESHOP_PACKAGE_DATA@@@std@@@3@$0A@@std@@@std@@@std@@YAPAU_Node@?$_Tree_nod@V?$_Tmap_traits@HPAUGAMESHOP_PACKAGE_DATA@@U?$less@H@std@@V?$allocator@U?$pair@$$CBHPAUGAMESHOP_PACKAGE_DATA@@@std@@@3@$0A@@std@@@0@IPAU120@@Z PROC ; std::_Allocate<std::_Tree_nod<std::_Tmap_traits<int,GAMESHOP_PACKAGE_DATA *,std::less<int>,std::allocator<std::pair<int const ,GAMESHOP_PACKAGE_DATA *> >,0> >::_Node>, COMDAT

; 30   : 	{	// allocate storage for _Count elements of type _Ty

  00000	55		 push	 ebp
  00001	8b ec		 mov	 ebp, esp

; 31   : 	void *_Ptr = 0;
; 32   : 
; 33   : 	if (_Count <= 0)

  00003	8b 4d 08	 mov	 ecx, DWORD PTR __Count$[ebp]
  00006	83 ec 0c	 sub	 esp, 12			; 0000000cH
  00009	33 c0		 xor	 eax, eax
  0000b	85 c9		 test	 ecx, ecx

; 34   : 		_Count = 0;
; 35   : 	else if (((_SIZT)(-1) / sizeof (_Ty) < _Count)

  0000d	74 46		 je	 SHORT $LN5@Allocate@2

; 36   : 		|| (_Ptr = ::operator new(_Count * sizeof (_Ty))) == 0)

  0000f	81 f9 aa aa aa
	0a		 cmp	 ecx, 178956970		; 0aaaaaaaH
  00015	77 16		 ja	 SHORT $LN1@Allocate@2
  00017	8d 04 49	 lea	 eax, DWORD PTR [ecx+ecx*2]
  0001a	03 c0		 add	 eax, eax
  0001c	03 c0		 add	 eax, eax
  0001e	03 c0		 add	 eax, eax
  00020	50		 push	 eax
  00021	e8 00 00 00 00	 call	 ??2@YAPAXI@Z		; operator new
  00026	83 c4 04	 add	 esp, 4
  00029	85 c0		 test	 eax, eax

; 38   : 
; 39   : 	return ((_Ty _FARQ *)_Ptr);

  0002b	75 28		 jne	 SHORT $LN5@Allocate@2
$LN1@Allocate@2:

; 37   : 		_THROW_NCEE(bad_alloc, 0);

  0002d	8d 4d 08	 lea	 ecx, DWORD PTR $T216230[ebp]
  00030	51		 push	 ecx
  00031	8d 4d f4	 lea	 ecx, DWORD PTR $T216226[ebp]
  00034	c7 45 08 00 00
	00 00		 mov	 DWORD PTR $T216230[ebp], 0
  0003b	e8 00 00 00 00	 call	 ??0exception@std@@QAE@ABQBD@Z ; std::exception::exception
  00040	68 00 00 00 00	 push	 OFFSET __TI2?AVbad_alloc@std@@
  00045	8d 55 f4	 lea	 edx, DWORD PTR $T216226[ebp]
  00048	52		 push	 edx
  00049	c7 45 f4 00 00
	00 00		 mov	 DWORD PTR $T216226[ebp], OFFSET ??_7bad_alloc@std@@6B@
  00050	e8 00 00 00 00	 call	 __CxxThrowException@8
$LN10@Allocate@2:
$LN5@Allocate@2:

; 40   : 	}

  00055	8b e5		 mov	 esp, ebp
  00057	5d		 pop	 ebp
  00058	c3		 ret	 0
$LN9@Allocate@2:
??$_Allocate@U_Node@?$_Tree_nod@V?$_Tmap_traits@HPAUGAMESHOP_PACKAGE_DATA@@U?$less@H@std@@V?$allocator@U?$pair@$$CBHPAUGAMESHOP_PACKAGE_DATA@@@std@@@3@$0A@@std@@@std@@@std@@YAPAU_Node@?$_Tree_nod@V?$_Tmap_traits@HPAUGAMESHOP_PACKAGE_DATA@@U?$less@H@std@@V?$allocator@U?$pair@$$CBHPAUGAMESHOP_PACKAGE_DATA@@@std@@@3@$0A@@std@@@0@IPAU120@@Z ENDP ; std::_Allocate<std::_Tree_nod<std::_Tmap_traits<int,GAMESHOP_PACKAGE_DATA *,std::less<int>,std::allocator<std::pair<int const ,GAMESHOP_PACKAGE_DATA *> >,0> >::_Node>
_TEXT	ENDS
PUBLIC	?destroy@?$allocator@U?$pair@$$CBHPAUGAMESHOP_ITEM_DATA@@@std@@@std@@QAEXPAU?$pair@$$CBHPAUGAMESHOP_ITEM_DATA@@@2@@Z ; std::allocator<std::pair<int const ,GAMESHOP_ITEM_DATA *> >::destroy
; Function compile flags: /Ogtp
;	COMDAT ?destroy@?$allocator@U?$pair@$$CBHPAUGAMESHOP_ITEM_DATA@@@std@@@std@@QAEXPAU?$pair@$$CBHPAUGAMESHOP_ITEM_DATA@@@2@@Z
_TEXT	SEGMENT
__Ptr$ = 8						; size = 4
?destroy@?$allocator@U?$pair@$$CBHPAUGAMESHOP_ITEM_DATA@@@std@@@std@@QAEXPAU?$pair@$$CBHPAUGAMESHOP_ITEM_DATA@@@2@@Z PROC ; std::allocator<std::pair<int const ,GAMESHOP_ITEM_DATA *> >::destroy, COMDAT
; _this$ = ecx

; 213  : 		_Destroy(_Ptr);
; 214  : 		}

  00000	c2 04 00	 ret	 4
?destroy@?$allocator@U?$pair@$$CBHPAUGAMESHOP_ITEM_DATA@@@std@@@std@@QAEXPAU?$pair@$$CBHPAUGAMESHOP_ITEM_DATA@@@2@@Z ENDP ; std::allocator<std::pair<int const ,GAMESHOP_ITEM_DATA *> >::destroy
_TEXT	ENDS
PUBLIC	?destroy@?$allocator@U?$pair@$$CBHPAUGAMESHOP_PACKAGE_DATA@@@std@@@std@@QAEXPAU?$pair@$$CBHPAUGAMESHOP_PACKAGE_DATA@@@2@@Z ; std::allocator<std::pair<int const ,GAMESHOP_PACKAGE_DATA *> >::destroy
; Function compile flags: /Ogtp
;	COMDAT ?destroy@?$allocator@U?$pair@$$CBHPAUGAMESHOP_PACKAGE_DATA@@@std@@@std@@QAEXPAU?$pair@$$CBHPAUGAMESHOP_PACKAGE_DATA@@@2@@Z
_TEXT	SEGMENT
__Ptr$ = 8						; size = 4
?destroy@?$allocator@U?$pair@$$CBHPAUGAMESHOP_PACKAGE_DATA@@@std@@@std@@QAEXPAU?$pair@$$CBHPAUGAMESHOP_PACKAGE_DATA@@@2@@Z PROC ; std::allocator<std::pair<int const ,GAMESHOP_PACKAGE_DATA *> >::destroy, COMDAT
; _this$ = ecx

; 213  : 		_Destroy(_Ptr);
; 214  : 		}

  00000	c2 04 00	 ret	 4
?destroy@?$allocator@U?$pair@$$CBHPAUGAMESHOP_PACKAGE_DATA@@@std@@@std@@QAEXPAU?$pair@$$CBHPAUGAMESHOP_PACKAGE_DATA@@@2@@Z ENDP ; std::allocator<std::pair<int const ,GAMESHOP_PACKAGE_DATA *> >::destroy
_TEXT	ENDS
PUBLIC	?_Key@?$_Tree_val@V?$_Tmap_traits@HPAUGAMESHOP_ITEM_DATA@@U?$less@H@std@@V?$allocator@U?$pair@$$CBHPAUGAMESHOP_ITEM_DATA@@@std@@@3@$0A@@std@@@std@@SAAAHPAU_Node@?$_Tree_nod@V?$_Tmap_traits@HPAUGAMESHOP_ITEM_DATA@@U?$less@H@std@@V?$allocator@U?$pair@$$CBHPAUGAMESHOP_ITEM_DATA@@@std@@@3@$0A@@std@@@2@@Z ; std::_Tree_val<std::_Tmap_traits<int,GAMESHOP_ITEM_DATA *,std::less<int>,std::allocator<std::pair<int const ,GAMESHOP_ITEM_DATA *> >,0> >::_Key
; Function compile flags: /Ogtp
; File d:\program files (x86)\microsoft visual studio 10.0\vc\include\xtree
;	COMDAT ?_Key@?$_Tree_val@V?$_Tmap_traits@HPAUGAMESHOP_ITEM_DATA@@U?$less@H@std@@V?$allocator@U?$pair@$$CBHPAUGAMESHOP_ITEM_DATA@@@std@@@3@$0A@@std@@@std@@SAAAHPAU_Node@?$_Tree_nod@V?$_Tmap_traits@HPAUGAMESHOP_ITEM_DATA@@U?$less@H@std@@V?$allocator@U?$pair@$$CBHPAUGAMESHOP_ITEM_DATA@@@std@@@3@$0A@@std@@@2@@Z
_TEXT	SEGMENT
__Pnode$ = 8						; size = 4
?_Key@?$_Tree_val@V?$_Tmap_traits@HPAUGAMESHOP_ITEM_DATA@@U?$less@H@std@@V?$allocator@U?$pair@$$CBHPAUGAMESHOP_ITEM_DATA@@@std@@@3@$0A@@std@@@std@@SAAAHPAU_Node@?$_Tree_nod@V?$_Tmap_traits@HPAUGAMESHOP_ITEM_DATA@@U?$less@H@std@@V?$allocator@U?$pair@$$CBHPAUGAMESHOP_ITEM_DATA@@@std@@@3@$0A@@std@@@2@@Z PROC ; std::_Tree_val<std::_Tmap_traits<int,GAMESHOP_ITEM_DATA *,std::less<int>,std::allocator<std::pair<int const ,GAMESHOP_ITEM_DATA *> >,0> >::_Key, COMDAT

; 616  : 		{	// return reference to key in node

  00000	55		 push	 ebp
  00001	8b ec		 mov	 ebp, esp

; 617  : 		return ((key_type&)_Traits::_Kfn(_Myval(_Pnode)));

  00003	8b 45 08	 mov	 eax, DWORD PTR __Pnode$[ebp]
  00006	83 c0 0c	 add	 eax, 12			; 0000000cH

; 618  : 		}

  00009	5d		 pop	 ebp
  0000a	c3		 ret	 0
?_Key@?$_Tree_val@V?$_Tmap_traits@HPAUGAMESHOP_ITEM_DATA@@U?$less@H@std@@V?$allocator@U?$pair@$$CBHPAUGAMESHOP_ITEM_DATA@@@std@@@3@$0A@@std@@@std@@SAAAHPAU_Node@?$_Tree_nod@V?$_Tmap_traits@HPAUGAMESHOP_ITEM_DATA@@U?$less@H@std@@V?$allocator@U?$pair@$$CBHPAUGAMESHOP_ITEM_DATA@@@std@@@3@$0A@@std@@@2@@Z ENDP ; std::_Tree_val<std::_Tmap_traits<int,GAMESHOP_ITEM_DATA *,std::less<int>,std::allocator<std::pair<int const ,GAMESHOP_ITEM_DATA *> >,0> >::_Key
_TEXT	ENDS
PUBLIC	??F?$_Tree_const_iterator@V?$_Tree_val@V?$_Tmap_traits@HPAUGAMESHOP_PACKAGE_DATA@@U?$less@H@std@@V?$allocator@U?$pair@$$CBHPAUGAMESHOP_PACKAGE_DATA@@@std@@@3@$0A@@std@@@std@@@std@@QAEAAV01@XZ ; std::_Tree_const_iterator<std::_Tree_val<std::_Tmap_traits<int,GAMESHOP_PACKAGE_DATA *,std::less<int>,std::allocator<std::pair<int const ,GAMESHOP_PACKAGE_DATA *> >,0> > >::operator--
; Function compile flags: /Ogtp
;	COMDAT ??F?$_Tree_const_iterator@V?$_Tree_val@V?$_Tmap_traits@HPAUGAMESHOP_PACKAGE_DATA@@U?$less@H@std@@V?$allocator@U?$pair@$$CBHPAUGAMESHOP_PACKAGE_DATA@@@std@@@3@$0A@@std@@@std@@@std@@QAEAAV01@XZ
_TEXT	SEGMENT
??F?$_Tree_const_iterator@V?$_Tree_val@V?$_Tmap_traits@HPAUGAMESHOP_PACKAGE_DATA@@U?$less@H@std@@V?$allocator@U?$pair@$$CBHPAUGAMESHOP_PACKAGE_DATA@@@std@@@3@$0A@@std@@@std@@@std@@QAEAAV01@XZ PROC ; std::_Tree_const_iterator<std::_Tree_val<std::_Tmap_traits<int,GAMESHOP_PACKAGE_DATA *,std::less<int>,std::allocator<std::pair<int const ,GAMESHOP_PACKAGE_DATA *> >,0> > >::operator--, COMDAT
; _this$ = ecx

; 277  : 		{	// predecrement

  00000	56		 push	 esi
  00001	8b f1		 mov	 esi, ecx

; 278  :  #if _ITERATOR_DEBUG_LEVEL == 2
; 279  : 		if (this->_Getcont() == 0
; 280  : 			|| this->_Ptr == 0)
; 281  : 			{	// report error
; 282  : 			_DEBUG_ERROR("map/set iterator not decrementable");
; 283  : 			_SCL_SECURE_OUT_OF_RANGE;
; 284  : 			}
; 285  : 
; 286  : 		_Nodeptr _Ptrsav = this->_Ptr;
; 287  : 		--(*(_Mybase *)this);
; 288  : 		if (_Ptrsav == this->_Ptr)
; 289  : 			{	// report error
; 290  : 			_DEBUG_ERROR("map/set iterator not decrementable");
; 291  : 			_SCL_SECURE_OUT_OF_RANGE;
; 292  : 			}
; 293  : 
; 294  :  #elif _ITERATOR_DEBUG_LEVEL == 1
; 295  : 		_SCL_SECURE_VALIDATE(this->_Getcont() != 0 && this->_Ptr != 0);
; 296  : 
; 297  : 		_Nodeptr _Ptrsav = this->_Ptr;
; 298  : 		--(*(_Mybase *)this);
; 299  : 		_SCL_SECURE_VALIDATE(_Ptrsav != this->_Ptr);
; 300  : 
; 301  :  #else /* _ITERATOR_DEBUG_LEVEL == 0 */
; 302  : 		--(*(_Mybase *)this);

  00003	e8 00 00 00 00	 call	 ??F?$_Tree_unchecked_const_iterator@V?$_Tree_val@V?$_Tmap_traits@HPAUGAMESHOP_PACKAGE_DATA@@U?$less@H@std@@V?$allocator@U?$pair@$$CBHPAUGAMESHOP_PACKAGE_DATA@@@std@@@3@$0A@@std@@@std@@U_Iterator_base0@2@@std@@QAEAAV01@XZ ; std::_Tree_unchecked_const_iterator<std::_Tree_val<std::_Tmap_traits<int,GAMESHOP_PACKAGE_DATA *,std::less<int>,std::allocator<std::pair<int const ,GAMESHOP_PACKAGE_DATA *> >,0> >,std::_Iterator_base0>::operator--

; 303  :  #endif /* _ITERATOR_DEBUG_LEVEL */
; 304  : 
; 305  : 		return (*this);

  00008	8b c6		 mov	 eax, esi
  0000a	5e		 pop	 esi

; 306  : 		}

  0000b	c3		 ret	 0
??F?$_Tree_const_iterator@V?$_Tree_val@V?$_Tmap_traits@HPAUGAMESHOP_PACKAGE_DATA@@U?$less@H@std@@V?$allocator@U?$pair@$$CBHPAUGAMESHOP_PACKAGE_DATA@@@std@@@3@$0A@@std@@@std@@@std@@QAEAAV01@XZ ENDP ; std::_Tree_const_iterator<std::_Tree_val<std::_Tmap_traits<int,GAMESHOP_PACKAGE_DATA *,std::less<int>,std::allocator<std::pair<int const ,GAMESHOP_PACKAGE_DATA *> >,0> > >::operator--
_TEXT	ENDS
PUBLIC	?max_size@?$_Tree@V?$_Tmap_traits@HPAUGAMESHOP_ITEM_DATA@@U?$less@H@std@@V?$allocator@U?$pair@$$CBHPAUGAMESHOP_ITEM_DATA@@@std@@@3@$0A@@std@@@std@@QBEIXZ ; std::_Tree<std::_Tmap_traits<int,GAMESHOP_ITEM_DATA *,std::less<int>,std::allocator<std::pair<int const ,GAMESHOP_ITEM_DATA *> >,0> >::max_size
; Function compile flags: /Ogtp
;	COMDAT ?max_size@?$_Tree@V?$_Tmap_traits@HPAUGAMESHOP_ITEM_DATA@@U?$less@H@std@@V?$allocator@U?$pair@$$CBHPAUGAMESHOP_ITEM_DATA@@@std@@@3@$0A@@std@@@std@@QBEIXZ
_TEXT	SEGMENT
?max_size@?$_Tree@V?$_Tmap_traits@HPAUGAMESHOP_ITEM_DATA@@U?$less@H@std@@V?$allocator@U?$pair@$$CBHPAUGAMESHOP_ITEM_DATA@@@std@@@3@$0A@@std@@@std@@QBEIXZ PROC ; std::_Tree<std::_Tmap_traits<int,GAMESHOP_ITEM_DATA *,std::less<int>,std::allocator<std::pair<int const ,GAMESHOP_ITEM_DATA *> >,0> >::max_size, COMDAT
; _this$ = ecx

; 874  : 		return (this->_Alval.max_size());

  00000	b8 ff ff ff 1f	 mov	 eax, 536870911		; 1fffffffH

; 875  : 		}

  00005	c3		 ret	 0
?max_size@?$_Tree@V?$_Tmap_traits@HPAUGAMESHOP_ITEM_DATA@@U?$less@H@std@@V?$allocator@U?$pair@$$CBHPAUGAMESHOP_ITEM_DATA@@@std@@@3@$0A@@std@@@std@@QBEIXZ ENDP ; std::_Tree<std::_Tmap_traits<int,GAMESHOP_ITEM_DATA *,std::less<int>,std::allocator<std::pair<int const ,GAMESHOP_ITEM_DATA *> >,0> >::max_size
_TEXT	ENDS
PUBLIC	?max_size@?$_Tree@V?$_Tmap_traits@HPAUGAMESHOP_PACKAGE_DATA@@U?$less@H@std@@V?$allocator@U?$pair@$$CBHPAUGAMESHOP_PACKAGE_DATA@@@std@@@3@$0A@@std@@@std@@QBEIXZ ; std::_Tree<std::_Tmap_traits<int,GAMESHOP_PACKAGE_DATA *,std::less<int>,std::allocator<std::pair<int const ,GAMESHOP_PACKAGE_DATA *> >,0> >::max_size
; Function compile flags: /Ogtp
;	COMDAT ?max_size@?$_Tree@V?$_Tmap_traits@HPAUGAMESHOP_PACKAGE_DATA@@U?$less@H@std@@V?$allocator@U?$pair@$$CBHPAUGAMESHOP_PACKAGE_DATA@@@std@@@3@$0A@@std@@@std@@QBEIXZ
_TEXT	SEGMENT
?max_size@?$_Tree@V?$_Tmap_traits@HPAUGAMESHOP_PACKAGE_DATA@@U?$less@H@std@@V?$allocator@U?$pair@$$CBHPAUGAMESHOP_PACKAGE_DATA@@@std@@@3@$0A@@std@@@std@@QBEIXZ PROC ; std::_Tree<std::_Tmap_traits<int,GAMESHOP_PACKAGE_DATA *,std::less<int>,std::allocator<std::pair<int const ,GAMESHOP_PACKAGE_DATA *> >,0> >::max_size, COMDAT
; _this$ = ecx

; 874  : 		return (this->_Alval.max_size());

  00000	b8 ff ff ff 1f	 mov	 eax, 536870911		; 1fffffffH

; 875  : 		}

  00005	c3		 ret	 0
?max_size@?$_Tree@V?$_Tmap_traits@HPAUGAMESHOP_PACKAGE_DATA@@U?$less@H@std@@V?$allocator@U?$pair@$$CBHPAUGAMESHOP_PACKAGE_DATA@@@std@@@3@$0A@@std@@@std@@QBEIXZ ENDP ; std::_Tree<std::_Tmap_traits<int,GAMESHOP_PACKAGE_DATA *,std::less<int>,std::allocator<std::pair<int const ,GAMESHOP_PACKAGE_DATA *> >,0> >::max_size
_TEXT	ENDS
PUBLIC	??0?$_Pair_base@V?$_Tree_iterator@V?$_Tree_val@V?$_Tmap_traits@HPAUGAMESHOP_ITEM_DATA@@U?$less@H@std@@V?$allocator@U?$pair@$$CBHPAUGAMESHOP_ITEM_DATA@@@std@@@3@$0A@@std@@@std@@@std@@_N@std@@QAE@$$QAV?$_Tree_iterator@V?$_Tree_val@V?$_Tmap_traits@HPAUGAMESHOP_ITEM_DATA@@U?$less@H@std@@V?$allocator@U?$pair@$$CBHPAUGAMESHOP_ITEM_DATA@@@std@@@3@$0A@@std@@@std@@@1@$$QA_N@Z ; std::_Pair_base<std::_Tree_iterator<std::_Tree_val<std::_Tmap_traits<int,GAMESHOP_ITEM_DATA *,std::less<int>,std::allocator<std::pair<int const ,GAMESHOP_ITEM_DATA *> >,0> > >,bool>::_Pair_base<std::_Tree_iterator<std::_Tree_val<std::_Tmap_traits<int,GAMESHOP_ITEM_DATA *,std::less<int>,std::allocator<std::pair<int const ,GAMESHOP_ITEM_DATA *> >,0> > >,bool>
; Function compile flags: /Ogtp
; File d:\program files (x86)\microsoft visual studio 10.0\vc\include\utility
;	COMDAT ??0?$_Pair_base@V?$_Tree_iterator@V?$_Tree_val@V?$_Tmap_traits@HPAUGAMESHOP_ITEM_DATA@@U?$less@H@std@@V?$allocator@U?$pair@$$CBHPAUGAMESHOP_ITEM_DATA@@@std@@@3@$0A@@std@@@std@@@std@@_N@std@@QAE@$$QAV?$_Tree_iterator@V?$_Tree_val@V?$_Tmap_traits@HPAUGAMESHOP_ITEM_DATA@@U?$less@H@std@@V?$allocator@U?$pair@$$CBHPAUGAMESHOP_ITEM_DATA@@@std@@@3@$0A@@std@@@std@@@1@$$QA_N@Z
_TEXT	SEGMENT
__Val1$ = 8						; size = 4
__Val2$ = 12						; size = 4
??0?$_Pair_base@V?$_Tree_iterator@V?$_Tree_val@V?$_Tmap_traits@HPAUGAMESHOP_ITEM_DATA@@U?$less@H@std@@V?$allocator@U?$pair@$$CBHPAUGAMESHOP_ITEM_DATA@@@std@@@3@$0A@@std@@@std@@@std@@_N@std@@QAE@$$QAV?$_Tree_iterator@V?$_Tree_val@V?$_Tmap_traits@HPAUGAMESHOP_ITEM_DATA@@U?$less@H@std@@V?$allocator@U?$pair@$$CBHPAUGAMESHOP_ITEM_DATA@@@std@@@3@$0A@@std@@@std@@@1@$$QA_N@Z PROC ; std::_Pair_base<std::_Tree_iterator<std::_Tree_val<std::_Tmap_traits<int,GAMESHOP_ITEM_DATA *,std::less<int>,std::allocator<std::pair<int const ,GAMESHOP_ITEM_DATA *> >,0> > >,bool>::_Pair_base<std::_Tree_iterator<std::_Tree_val<std::_Tmap_traits<int,GAMESHOP_ITEM_DATA *,std::less<int>,std::allocator<std::pair<int const ,GAMESHOP_ITEM_DATA *> >,0> > >,bool>, COMDAT
; _this$ = ecx

; 145  : 		{	// construct from specified values

  00000	55		 push	 ebp
  00001	8b ec		 mov	 ebp, esp
  00003	8b c1		 mov	 eax, ecx
  00005	8b 4d 08	 mov	 ecx, DWORD PTR __Val1$[ebp]
  00008	8b 11		 mov	 edx, DWORD PTR [ecx]
  0000a	8b 4d 0c	 mov	 ecx, DWORD PTR __Val2$[ebp]
  0000d	89 10		 mov	 DWORD PTR [eax], edx
  0000f	8a 11		 mov	 dl, BYTE PTR [ecx]
  00011	88 50 04	 mov	 BYTE PTR [eax+4], dl

; 146  : 		}

  00014	5d		 pop	 ebp
  00015	c2 08 00	 ret	 8
??0?$_Pair_base@V?$_Tree_iterator@V?$_Tree_val@V?$_Tmap_traits@HPAUGAMESHOP_ITEM_DATA@@U?$less@H@std@@V?$allocator@U?$pair@$$CBHPAUGAMESHOP_ITEM_DATA@@@std@@@3@$0A@@std@@@std@@@std@@_N@std@@QAE@$$QAV?$_Tree_iterator@V?$_Tree_val@V?$_Tmap_traits@HPAUGAMESHOP_ITEM_DATA@@U?$less@H@std@@V?$allocator@U?$pair@$$CBHPAUGAMESHOP_ITEM_DATA@@@std@@@3@$0A@@std@@@std@@@1@$$QA_N@Z ENDP ; std::_Pair_base<std::_Tree_iterator<std::_Tree_val<std::_Tmap_traits<int,GAMESHOP_ITEM_DATA *,std::less<int>,std::allocator<std::pair<int const ,GAMESHOP_ITEM_DATA *> >,0> > >,bool>::_Pair_base<std::_Tree_iterator<std::_Tree_val<std::_Tmap_traits<int,GAMESHOP_ITEM_DATA *,std::less<int>,std::allocator<std::pair<int const ,GAMESHOP_ITEM_DATA *> >,0> > >,bool>
_TEXT	ENDS
PUBLIC	??F?$_Tree_const_iterator@V?$_Tree_val@V?$_Tmap_traits@HPAUGAMESHOP_ITEM_DATA@@U?$less@H@std@@V?$allocator@U?$pair@$$CBHPAUGAMESHOP_ITEM_DATA@@@std@@@3@$0A@@std@@@std@@@std@@QAEAAV01@XZ ; std::_Tree_const_iterator<std::_Tree_val<std::_Tmap_traits<int,GAMESHOP_ITEM_DATA *,std::less<int>,std::allocator<std::pair<int const ,GAMESHOP_ITEM_DATA *> >,0> > >::operator--
; Function compile flags: /Ogtp
; File d:\program files (x86)\microsoft visual studio 10.0\vc\include\xtree
;	COMDAT ??F?$_Tree_const_iterator@V?$_Tree_val@V?$_Tmap_traits@HPAUGAMESHOP_ITEM_DATA@@U?$less@H@std@@V?$allocator@U?$pair@$$CBHPAUGAMESHOP_ITEM_DATA@@@std@@@3@$0A@@std@@@std@@@std@@QAEAAV01@XZ
_TEXT	SEGMENT
??F?$_Tree_const_iterator@V?$_Tree_val@V?$_Tmap_traits@HPAUGAMESHOP_ITEM_DATA@@U?$less@H@std@@V?$allocator@U?$pair@$$CBHPAUGAMESHOP_ITEM_DATA@@@std@@@3@$0A@@std@@@std@@@std@@QAEAAV01@XZ PROC ; std::_Tree_const_iterator<std::_Tree_val<std::_Tmap_traits<int,GAMESHOP_ITEM_DATA *,std::less<int>,std::allocator<std::pair<int const ,GAMESHOP_ITEM_DATA *> >,0> > >::operator--, COMDAT
; _this$ = ecx

; 277  : 		{	// predecrement

  00000	56		 push	 esi
  00001	8b f1		 mov	 esi, ecx

; 278  :  #if _ITERATOR_DEBUG_LEVEL == 2
; 279  : 		if (this->_Getcont() == 0
; 280  : 			|| this->_Ptr == 0)
; 281  : 			{	// report error
; 282  : 			_DEBUG_ERROR("map/set iterator not decrementable");
; 283  : 			_SCL_SECURE_OUT_OF_RANGE;
; 284  : 			}
; 285  : 
; 286  : 		_Nodeptr _Ptrsav = this->_Ptr;
; 287  : 		--(*(_Mybase *)this);
; 288  : 		if (_Ptrsav == this->_Ptr)
; 289  : 			{	// report error
; 290  : 			_DEBUG_ERROR("map/set iterator not decrementable");
; 291  : 			_SCL_SECURE_OUT_OF_RANGE;
; 292  : 			}
; 293  : 
; 294  :  #elif _ITERATOR_DEBUG_LEVEL == 1
; 295  : 		_SCL_SECURE_VALIDATE(this->_Getcont() != 0 && this->_Ptr != 0);
; 296  : 
; 297  : 		_Nodeptr _Ptrsav = this->_Ptr;
; 298  : 		--(*(_Mybase *)this);
; 299  : 		_SCL_SECURE_VALIDATE(_Ptrsav != this->_Ptr);
; 300  : 
; 301  :  #else /* _ITERATOR_DEBUG_LEVEL == 0 */
; 302  : 		--(*(_Mybase *)this);

  00003	e8 00 00 00 00	 call	 ??F?$_Tree_unchecked_const_iterator@V?$_Tree_val@V?$_Tmap_traits@HPAUGAMESHOP_ITEM_DATA@@U?$less@H@std@@V?$allocator@U?$pair@$$CBHPAUGAMESHOP_ITEM_DATA@@@std@@@3@$0A@@std@@@std@@U_Iterator_base0@2@@std@@QAEAAV01@XZ ; std::_Tree_unchecked_const_iterator<std::_Tree_val<std::_Tmap_traits<int,GAMESHOP_ITEM_DATA *,std::less<int>,std::allocator<std::pair<int const ,GAMESHOP_ITEM_DATA *> >,0> >,std::_Iterator_base0>::operator--

; 303  :  #endif /* _ITERATOR_DEBUG_LEVEL */
; 304  : 
; 305  : 		return (*this);

  00008	8b c6		 mov	 eax, esi
  0000a	5e		 pop	 esi

; 306  : 		}

  0000b	c3		 ret	 0
??F?$_Tree_const_iterator@V?$_Tree_val@V?$_Tmap_traits@HPAUGAMESHOP_ITEM_DATA@@U?$less@H@std@@V?$allocator@U?$pair@$$CBHPAUGAMESHOP_ITEM_DATA@@@std@@@3@$0A@@std@@@std@@@std@@QAEAAV01@XZ ENDP ; std::_Tree_const_iterator<std::_Tree_val<std::_Tmap_traits<int,GAMESHOP_ITEM_DATA *,std::less<int>,std::allocator<std::pair<int const ,GAMESHOP_ITEM_DATA *> >,0> > >::operator--
_TEXT	ENDS
PUBLIC	??0?$_Pair_base@V?$_Tree_iterator@V?$_Tree_val@V?$_Tmap_traits@HPAUGAMESHOP_PACKAGE_DATA@@U?$less@H@std@@V?$allocator@U?$pair@$$CBHPAUGAMESHOP_PACKAGE_DATA@@@std@@@3@$0A@@std@@@std@@@std@@_N@std@@QAE@$$QAV?$_Tree_iterator@V?$_Tree_val@V?$_Tmap_traits@HPAUGAMESHOP_PACKAGE_DATA@@U?$less@H@std@@V?$allocator@U?$pair@$$CBHPAUGAMESHOP_PACKAGE_DATA@@@std@@@3@$0A@@std@@@std@@@1@$$QA_N@Z ; std::_Pair_base<std::_Tree_iterator<std::_Tree_val<std::_Tmap_traits<int,GAMESHOP_PACKAGE_DATA *,std::less<int>,std::allocator<std::pair<int const ,GAMESHOP_PACKAGE_DATA *> >,0> > >,bool>::_Pair_base<std::_Tree_iterator<std::_Tree_val<std::_Tmap_traits<int,GAMESHOP_PACKAGE_DATA *,std::less<int>,std::allocator<std::pair<int const ,GAMESHOP_PACKAGE_DATA *> >,0> > >,bool>
; Function compile flags: /Ogtp
; File d:\program files (x86)\microsoft visual studio 10.0\vc\include\utility
;	COMDAT ??0?$_Pair_base@V?$_Tree_iterator@V?$_Tree_val@V?$_Tmap_traits@HPAUGAMESHOP_PACKAGE_DATA@@U?$less@H@std@@V?$allocator@U?$pair@$$CBHPAUGAMESHOP_PACKAGE_DATA@@@std@@@3@$0A@@std@@@std@@@std@@_N@std@@QAE@$$QAV?$_Tree_iterator@V?$_Tree_val@V?$_Tmap_traits@HPAUGAMESHOP_PACKAGE_DATA@@U?$less@H@std@@V?$allocator@U?$pair@$$CBHPAUGAMESHOP_PACKAGE_DATA@@@std@@@3@$0A@@std@@@std@@@1@$$QA_N@Z
_TEXT	SEGMENT
__Val1$ = 8						; size = 4
__Val2$ = 12						; size = 4
??0?$_Pair_base@V?$_Tree_iterator@V?$_Tree_val@V?$_Tmap_traits@HPAUGAMESHOP_PACKAGE_DATA@@U?$less@H@std@@V?$allocator@U?$pair@$$CBHPAUGAMESHOP_PACKAGE_DATA@@@std@@@3@$0A@@std@@@std@@@std@@_N@std@@QAE@$$QAV?$_Tree_iterator@V?$_Tree_val@V?$_Tmap_traits@HPAUGAMESHOP_PACKAGE_DATA@@U?$less@H@std@@V?$allocator@U?$pair@$$CBHPAUGAMESHOP_PACKAGE_DATA@@@std@@@3@$0A@@std@@@std@@@1@$$QA_N@Z PROC ; std::_Pair_base<std::_Tree_iterator<std::_Tree_val<std::_Tmap_traits<int,GAMESHOP_PACKAGE_DATA *,std::less<int>,std::allocator<std::pair<int const ,GAMESHOP_PACKAGE_DATA *> >,0> > >,bool>::_Pair_base<std::_Tree_iterator<std::_Tree_val<std::_Tmap_traits<int,GAMESHOP_PACKAGE_DATA *,std::less<int>,std::allocator<std::pair<int const ,GAMESHOP_PACKAGE_DATA *> >,0> > >,bool>, COMDAT
; _this$ = ecx

; 145  : 		{	// construct from specified values

  00000	55		 push	 ebp
  00001	8b ec		 mov	 ebp, esp
  00003	8b c1		 mov	 eax, ecx
  00005	8b 4d 08	 mov	 ecx, DWORD PTR __Val1$[ebp]
  00008	8b 11		 mov	 edx, DWORD PTR [ecx]
  0000a	8b 4d 0c	 mov	 ecx, DWORD PTR __Val2$[ebp]
  0000d	89 10		 mov	 DWORD PTR [eax], edx
  0000f	8a 11		 mov	 dl, BYTE PTR [ecx]
  00011	88 50 04	 mov	 BYTE PTR [eax+4], dl

; 146  : 		}

  00014	5d		 pop	 ebp
  00015	c2 08 00	 ret	 8
??0?$_Pair_base@V?$_Tree_iterator@V?$_Tree_val@V?$_Tmap_traits@HPAUGAMESHOP_PACKAGE_DATA@@U?$less@H@std@@V?$allocator@U?$pair@$$CBHPAUGAMESHOP_PACKAGE_DATA@@@std@@@3@$0A@@std@@@std@@@std@@_N@std@@QAE@$$QAV?$_Tree_iterator@V?$_Tree_val@V?$_Tmap_traits@HPAUGAMESHOP_PACKAGE_DATA@@U?$less@H@std@@V?$allocator@U?$pair@$$CBHPAUGAMESHOP_PACKAGE_DATA@@@std@@@3@$0A@@std@@@std@@@1@$$QA_N@Z ENDP ; std::_Pair_base<std::_Tree_iterator<std::_Tree_val<std::_Tmap_traits<int,GAMESHOP_PACKAGE_DATA *,std::less<int>,std::allocator<std::pair<int const ,GAMESHOP_PACKAGE_DATA *> >,0> > >,bool>::_Pair_base<std::_Tree_iterator<std::_Tree_val<std::_Tmap_traits<int,GAMESHOP_PACKAGE_DATA *,std::less<int>,std::allocator<std::pair<int const ,GAMESHOP_PACKAGE_DATA *> >,0> > >,bool>
_TEXT	ENDS
PUBLIC	??$?0AAV?$_Tree_iterator@V?$_Tree_val@V?$_Tmap_traits@HPAUGAMESHOP_ITEM_DATA@@U?$less@H@std@@V?$allocator@U?$pair@$$CBHPAUGAMESHOP_ITEM_DATA@@@std@@@3@$0A@@std@@@std@@@std@@_N@?$pair@V?$_Tree_iterator@V?$_Tree_val@V?$_Tmap_traits@HPAUGAMESHOP_ITEM_DATA@@U?$less@H@std@@V?$allocator@U?$pair@$$CBHPAUGAMESHOP_ITEM_DATA@@@std@@@3@$0A@@std@@@std@@@std@@_N@std@@QAE@AAV?$_Tree_iterator@V?$_Tree_val@V?$_Tmap_traits@HPAUGAMESHOP_ITEM_DATA@@U?$less@H@std@@V?$allocator@U?$pair@$$CBHPAUGAMESHOP_ITEM_DATA@@@std@@@3@$0A@@std@@@std@@@1@$$QA_N@Z ; std::pair<std::_Tree_iterator<std::_Tree_val<std::_Tmap_traits<int,GAMESHOP_ITEM_DATA *,std::less<int>,std::allocator<std::pair<int const ,GAMESHOP_ITEM_DATA *> >,0> > >,bool>::pair<std::_Tree_iterator<std::_Tree_val<std::_Tmap_traits<int,GAMESHOP_ITEM_DATA *,std::less<int>,std::allocator<std::pair<int const ,GAMESHOP_ITEM_DATA *> >,0> > >,bool><std::_Tree_iterator<std::_Tree_val<std::_Tmap_traits<int,GAMESHOP_ITEM_DATA *,std::less<int>,std::allocator<std::pair<int const ,GAMESHOP_ITEM_DATA *> >,0> > > &,bool>
; Function compile flags: /Ogtp
;	COMDAT ??$?0AAV?$_Tree_iterator@V?$_Tree_val@V?$_Tmap_traits@HPAUGAMESHOP_ITEM_DATA@@U?$less@H@std@@V?$allocator@U?$pair@$$CBHPAUGAMESHOP_ITEM_DATA@@@std@@@3@$0A@@std@@@std@@@std@@_N@?$pair@V?$_Tree_iterator@V?$_Tree_val@V?$_Tmap_traits@HPAUGAMESHOP_ITEM_DATA@@U?$less@H@std@@V?$allocator@U?$pair@$$CBHPAUGAMESHOP_ITEM_DATA@@@std@@@3@$0A@@std@@@std@@@std@@_N@std@@QAE@AAV?$_Tree_iterator@V?$_Tree_val@V?$_Tmap_traits@HPAUGAMESHOP_ITEM_DATA@@U?$less@H@std@@V?$allocator@U?$pair@$$CBHPAUGAMESHOP_ITEM_DATA@@@std@@@3@$0A@@std@@@std@@@1@$$QA_N@Z
_TEXT	SEGMENT
__Val1$ = 8						; size = 4
__Val2$ = 12						; size = 4
??$?0AAV?$_Tree_iterator@V?$_Tree_val@V?$_Tmap_traits@HPAUGAMESHOP_ITEM_DATA@@U?$less@H@std@@V?$allocator@U?$pair@$$CBHPAUGAMESHOP_ITEM_DATA@@@std@@@3@$0A@@std@@@std@@@std@@_N@?$pair@V?$_Tree_iterator@V?$_Tree_val@V?$_Tmap_traits@HPAUGAMESHOP_ITEM_DATA@@U?$less@H@std@@V?$allocator@U?$pair@$$CBHPAUGAMESHOP_ITEM_DATA@@@std@@@3@$0A@@std@@@std@@@std@@_N@std@@QAE@AAV?$_Tree_iterator@V?$_Tree_val@V?$_Tmap_traits@HPAUGAMESHOP_ITEM_DATA@@U?$less@H@std@@V?$allocator@U?$pair@$$CBHPAUGAMESHOP_ITEM_DATA@@@std@@@3@$0A@@std@@@std@@@1@$$QA_N@Z PROC ; std::pair<std::_Tree_iterator<std::_Tree_val<std::_Tmap_traits<int,GAMESHOP_ITEM_DATA *,std::less<int>,std::allocator<std::pair<int const ,GAMESHOP_ITEM_DATA *> >,0> > >,bool>::pair<std::_Tree_iterator<std::_Tree_val<std::_Tmap_traits<int,GAMESHOP_ITEM_DATA *,std::less<int>,std::allocator<std::pair<int const ,GAMESHOP_ITEM_DATA *> >,0> > >,bool><std::_Tree_iterator<std::_Tree_val<std::_Tmap_traits<int,GAMESHOP_ITEM_DATA *,std::less<int>,std::allocator<std::pair<int const ,GAMESHOP_ITEM_DATA *> >,0> > > &,bool>, COMDAT
; _this$ = ecx

; 247  : 		{	// construct from moved values

  00000	55		 push	 ebp
  00001	8b ec		 mov	 ebp, esp
  00003	8b c1		 mov	 eax, ecx
  00005	8b 4d 08	 mov	 ecx, DWORD PTR __Val1$[ebp]
  00008	8b 11		 mov	 edx, DWORD PTR [ecx]
  0000a	8b 4d 0c	 mov	 ecx, DWORD PTR __Val2$[ebp]
  0000d	89 10		 mov	 DWORD PTR [eax], edx
  0000f	8a 11		 mov	 dl, BYTE PTR [ecx]
  00011	88 50 04	 mov	 BYTE PTR [eax+4], dl

; 248  : 		}

  00014	5d		 pop	 ebp
  00015	c2 08 00	 ret	 8
??$?0AAV?$_Tree_iterator@V?$_Tree_val@V?$_Tmap_traits@HPAUGAMESHOP_ITEM_DATA@@U?$less@H@std@@V?$allocator@U?$pair@$$CBHPAUGAMESHOP_ITEM_DATA@@@std@@@3@$0A@@std@@@std@@@std@@_N@?$pair@V?$_Tree_iterator@V?$_Tree_val@V?$_Tmap_traits@HPAUGAMESHOP_ITEM_DATA@@U?$less@H@std@@V?$allocator@U?$pair@$$CBHPAUGAMESHOP_ITEM_DATA@@@std@@@3@$0A@@std@@@std@@@std@@_N@std@@QAE@AAV?$_Tree_iterator@V?$_Tree_val@V?$_Tmap_traits@HPAUGAMESHOP_ITEM_DATA@@U?$less@H@std@@V?$allocator@U?$pair@$$CBHPAUGAMESHOP_ITEM_DATA@@@std@@@3@$0A@@std@@@std@@@1@$$QA_N@Z ENDP ; std::pair<std::_Tree_iterator<std::_Tree_val<std::_Tmap_traits<int,GAMESHOP_ITEM_DATA *,std::less<int>,std::allocator<std::pair<int const ,GAMESHOP_ITEM_DATA *> >,0> > >,bool>::pair<std::_Tree_iterator<std::_Tree_val<std::_Tmap_traits<int,GAMESHOP_ITEM_DATA *,std::less<int>,std::allocator<std::pair<int const ,GAMESHOP_ITEM_DATA *> >,0> > >,bool><std::_Tree_iterator<std::_Tree_val<std::_Tmap_traits<int,GAMESHOP_ITEM_DATA *,std::less<int>,std::allocator<std::pair<int const ,GAMESHOP_ITEM_DATA *> >,0> > > &,bool>
_TEXT	ENDS
PUBLIC	??$?0AAV?$_Tree_iterator@V?$_Tree_val@V?$_Tmap_traits@HPAUGAMESHOP_PACKAGE_DATA@@U?$less@H@std@@V?$allocator@U?$pair@$$CBHPAUGAMESHOP_PACKAGE_DATA@@@std@@@3@$0A@@std@@@std@@@std@@_N@?$pair@V?$_Tree_iterator@V?$_Tree_val@V?$_Tmap_traits@HPAUGAMESHOP_PACKAGE_DATA@@U?$less@H@std@@V?$allocator@U?$pair@$$CBHPAUGAMESHOP_PACKAGE_DATA@@@std@@@3@$0A@@std@@@std@@@std@@_N@std@@QAE@AAV?$_Tree_iterator@V?$_Tree_val@V?$_Tmap_traits@HPAUGAMESHOP_PACKAGE_DATA@@U?$less@H@std@@V?$allocator@U?$pair@$$CBHPAUGAMESHOP_PACKAGE_DATA@@@std@@@3@$0A@@std@@@std@@@1@$$QA_N@Z ; std::pair<std::_Tree_iterator<std::_Tree_val<std::_Tmap_traits<int,GAMESHOP_PACKAGE_DATA *,std::less<int>,std::allocator<std::pair<int const ,GAMESHOP_PACKAGE_DATA *> >,0> > >,bool>::pair<std::_Tree_iterator<std::_Tree_val<std::_Tmap_traits<int,GAMESHOP_PACKAGE_DATA *,std::less<int>,std::allocator<std::pair<int const ,GAMESHOP_PACKAGE_DATA *> >,0> > >,bool><std::_Tree_iterator<std::_Tree_val<std::_Tmap_traits<int,GAMESHOP_PACKAGE_DATA *,std::less<int>,std::allocator<std::pair<int const ,GAMESHOP_PACKAGE_DATA *> >,0> > > &,bool>
; Function compile flags: /Ogtp
;	COMDAT ??$?0AAV?$_Tree_iterator@V?$_Tree_val@V?$_Tmap_traits@HPAUGAMESHOP_PACKAGE_DATA@@U?$less@H@std@@V?$allocator@U?$pair@$$CBHPAUGAMESHOP_PACKAGE_DATA@@@std@@@3@$0A@@std@@@std@@@std@@_N@?$pair@V?$_Tree_iterator@V?$_Tree_val@V?$_Tmap_traits@HPAUGAMESHOP_PACKAGE_DATA@@U?$less@H@std@@V?$allocator@U?$pair@$$CBHPAUGAMESHOP_PACKAGE_DATA@@@std@@@3@$0A@@std@@@std@@@std@@_N@std@@QAE@AAV?$_Tree_iterator@V?$_Tree_val@V?$_Tmap_traits@HPAUGAMESHOP_PACKAGE_DATA@@U?$less@H@std@@V?$allocator@U?$pair@$$CBHPAUGAMESHOP_PACKAGE_DATA@@@std@@@3@$0A@@std@@@std@@@1@$$QA_N@Z
_TEXT	SEGMENT
__Val1$ = 8						; size = 4
__Val2$ = 12						; size = 4
??$?0AAV?$_Tree_iterator@V?$_Tree_val@V?$_Tmap_traits@HPAUGAMESHOP_PACKAGE_DATA@@U?$less@H@std@@V?$allocator@U?$pair@$$CBHPAUGAMESHOP_PACKAGE_DATA@@@std@@@3@$0A@@std@@@std@@@std@@_N@?$pair@V?$_Tree_iterator@V?$_Tree_val@V?$_Tmap_traits@HPAUGAMESHOP_PACKAGE_DATA@@U?$less@H@std@@V?$allocator@U?$pair@$$CBHPAUGAMESHOP_PACKAGE_DATA@@@std@@@3@$0A@@std@@@std@@@std@@_N@std@@QAE@AAV?$_Tree_iterator@V?$_Tree_val@V?$_Tmap_traits@HPAUGAMESHOP_PACKAGE_DATA@@U?$less@H@std@@V?$allocator@U?$pair@$$CBHPAUGAMESHOP_PACKAGE_DATA@@@std@@@3@$0A@@std@@@std@@@1@$$QA_N@Z PROC ; std::pair<std::_Tree_iterator<std::_Tree_val<std::_Tmap_traits<int,GAMESHOP_PACKAGE_DATA *,std::less<int>,std::allocator<std::pair<int const ,GAMESHOP_PACKAGE_DATA *> >,0> > >,bool>::pair<std::_Tree_iterator<std::_Tree_val<std::_Tmap_traits<int,GAMESHOP_PACKAGE_DATA *,std::less<int>,std::allocator<std::pair<int const ,GAMESHOP_PACKAGE_DATA *> >,0> > >,bool><std::_Tree_iterator<std::_Tree_val<std::_Tmap_traits<int,GAMESHOP_PACKAGE_DATA *,std::less<int>,std::allocator<std::pair<int const ,GAMESHOP_PACKAGE_DATA *> >,0> > > &,bool>, COMDAT
; _this$ = ecx

; 247  : 		{	// construct from moved values

  00000	55		 push	 ebp
  00001	8b ec		 mov	 ebp, esp
  00003	8b c1		 mov	 eax, ecx
  00005	8b 4d 08	 mov	 ecx, DWORD PTR __Val1$[ebp]
  00008	8b 11		 mov	 edx, DWORD PTR [ecx]
  0000a	8b 4d 0c	 mov	 ecx, DWORD PTR __Val2$[ebp]
  0000d	89 10		 mov	 DWORD PTR [eax], edx
  0000f	8a 11		 mov	 dl, BYTE PTR [ecx]
  00011	88 50 04	 mov	 BYTE PTR [eax+4], dl

; 248  : 		}

  00014	5d		 pop	 ebp
  00015	c2 08 00	 ret	 8
??$?0AAV?$_Tree_iterator@V?$_Tree_val@V?$_Tmap_traits@HPAUGAMESHOP_PACKAGE_DATA@@U?$less@H@std@@V?$allocator@U?$pair@$$CBHPAUGAMESHOP_PACKAGE_DATA@@@std@@@3@$0A@@std@@@std@@@std@@_N@?$pair@V?$_Tree_iterator@V?$_Tree_val@V?$_Tmap_traits@HPAUGAMESHOP_PACKAGE_DATA@@U?$less@H@std@@V?$allocator@U?$pair@$$CBHPAUGAMESHOP_PACKAGE_DATA@@@std@@@3@$0A@@std@@@std@@@std@@_N@std@@QAE@AAV?$_Tree_iterator@V?$_Tree_val@V?$_Tmap_traits@HPAUGAMESHOP_PACKAGE_DATA@@U?$less@H@std@@V?$allocator@U?$pair@$$CBHPAUGAMESHOP_PACKAGE_DATA@@@std@@@3@$0A@@std@@@std@@@1@$$QA_N@Z ENDP ; std::pair<std::_Tree_iterator<std::_Tree_val<std::_Tmap_traits<int,GAMESHOP_PACKAGE_DATA *,std::less<int>,std::allocator<std::pair<int const ,GAMESHOP_PACKAGE_DATA *> >,0> > >,bool>::pair<std::_Tree_iterator<std::_Tree_val<std::_Tmap_traits<int,GAMESHOP_PACKAGE_DATA *,std::less<int>,std::allocator<std::pair<int const ,GAMESHOP_PACKAGE_DATA *> >,0> > >,bool><std::_Tree_iterator<std::_Tree_val<std::_Tmap_traits<int,GAMESHOP_PACKAGE_DATA *,std::less<int>,std::allocator<std::pair<int const ,GAMESHOP_PACKAGE_DATA *> >,0> > > &,bool>
_TEXT	ENDS
PUBLIC	??0?$_Pair_base@$$CBHPAUGAMESHOP_PACKAGE_DATA@@@std@@QAE@$$QBH$$QAPAUGAMESHOP_PACKAGE_DATA@@@Z ; std::_Pair_base<int const ,GAMESHOP_PACKAGE_DATA *>::_Pair_base<int const ,GAMESHOP_PACKAGE_DATA *>
; Function compile flags: /Ogtp
;	COMDAT ??0?$_Pair_base@$$CBHPAUGAMESHOP_PACKAGE_DATA@@@std@@QAE@$$QBH$$QAPAUGAMESHOP_PACKAGE_DATA@@@Z
_TEXT	SEGMENT
__Val1$ = 8						; size = 4
__Val2$ = 12						; size = 4
??0?$_Pair_base@$$CBHPAUGAMESHOP_PACKAGE_DATA@@@std@@QAE@$$QBH$$QAPAUGAMESHOP_PACKAGE_DATA@@@Z PROC ; std::_Pair_base<int const ,GAMESHOP_PACKAGE_DATA *>::_Pair_base<int const ,GAMESHOP_PACKAGE_DATA *>, COMDAT
; _this$ = ecx

; 145  : 		{	// construct from specified values

  00000	55		 push	 ebp
  00001	8b ec		 mov	 ebp, esp
  00003	8b c1		 mov	 eax, ecx
  00005	8b 4d 08	 mov	 ecx, DWORD PTR __Val1$[ebp]
  00008	8b 11		 mov	 edx, DWORD PTR [ecx]
  0000a	8b 4d 0c	 mov	 ecx, DWORD PTR __Val2$[ebp]
  0000d	89 10		 mov	 DWORD PTR [eax], edx
  0000f	8b 11		 mov	 edx, DWORD PTR [ecx]
  00011	89 50 04	 mov	 DWORD PTR [eax+4], edx

; 146  : 		}

  00014	5d		 pop	 ebp
  00015	c2 08 00	 ret	 8
??0?$_Pair_base@$$CBHPAUGAMESHOP_PACKAGE_DATA@@@std@@QAE@$$QBH$$QAPAUGAMESHOP_PACKAGE_DATA@@@Z ENDP ; std::_Pair_base<int const ,GAMESHOP_PACKAGE_DATA *>::_Pair_base<int const ,GAMESHOP_PACKAGE_DATA *>
_TEXT	ENDS
PUBLIC	??$?0HPAUGAMESHOP_ITEM_DATA@@@?$pair@$$CBHPAUGAMESHOP_ITEM_DATA@@@std@@QAE@$$QAU?$pair@HPAUGAMESHOP_ITEM_DATA@@@1@@Z ; std::pair<int const ,GAMESHOP_ITEM_DATA *>::pair<int const ,GAMESHOP_ITEM_DATA *><int,GAMESHOP_ITEM_DATA *>
; Function compile flags: /Ogtp
;	COMDAT ??$?0HPAUGAMESHOP_ITEM_DATA@@@?$pair@$$CBHPAUGAMESHOP_ITEM_DATA@@@std@@QAE@$$QAU?$pair@HPAUGAMESHOP_ITEM_DATA@@@1@@Z
_TEXT	SEGMENT
__Right$ = 8						; size = 4
??$?0HPAUGAMESHOP_ITEM_DATA@@@?$pair@$$CBHPAUGAMESHOP_ITEM_DATA@@@std@@QAE@$$QAU?$pair@HPAUGAMESHOP_ITEM_DATA@@@1@@Z PROC ; std::pair<int const ,GAMESHOP_ITEM_DATA *>::pair<int const ,GAMESHOP_ITEM_DATA *><int,GAMESHOP_ITEM_DATA *>, COMDAT
; _this$ = ecx

; 255  : 		{	// construct from moved compatible pair

  00000	55		 push	 ebp
  00001	8b ec		 mov	 ebp, esp
  00003	8b c1		 mov	 eax, ecx
  00005	8b 4d 08	 mov	 ecx, DWORD PTR __Right$[ebp]
  00008	8b 11		 mov	 edx, DWORD PTR [ecx]
  0000a	89 10		 mov	 DWORD PTR [eax], edx
  0000c	8b 49 04	 mov	 ecx, DWORD PTR [ecx+4]
  0000f	89 48 04	 mov	 DWORD PTR [eax+4], ecx

; 256  : 		}

  00012	5d		 pop	 ebp
  00013	c2 04 00	 ret	 4
??$?0HPAUGAMESHOP_ITEM_DATA@@@?$pair@$$CBHPAUGAMESHOP_ITEM_DATA@@@std@@QAE@$$QAU?$pair@HPAUGAMESHOP_ITEM_DATA@@@1@@Z ENDP ; std::pair<int const ,GAMESHOP_ITEM_DATA *>::pair<int const ,GAMESHOP_ITEM_DATA *><int,GAMESHOP_ITEM_DATA *>
_TEXT	ENDS
PUBLIC	??$?0HPAUGAMESHOP_PACKAGE_DATA@@@?$pair@$$CBHPAUGAMESHOP_PACKAGE_DATA@@@std@@QAE@$$QAU?$pair@HPAUGAMESHOP_PACKAGE_DATA@@@1@@Z ; std::pair<int const ,GAMESHOP_PACKAGE_DATA *>::pair<int const ,GAMESHOP_PACKAGE_DATA *><int,GAMESHOP_PACKAGE_DATA *>
; Function compile flags: /Ogtp
;	COMDAT ??$?0HPAUGAMESHOP_PACKAGE_DATA@@@?$pair@$$CBHPAUGAMESHOP_PACKAGE_DATA@@@std@@QAE@$$QAU?$pair@HPAUGAMESHOP_PACKAGE_DATA@@@1@@Z
_TEXT	SEGMENT
__Right$ = 8						; size = 4
??$?0HPAUGAMESHOP_PACKAGE_DATA@@@?$pair@$$CBHPAUGAMESHOP_PACKAGE_DATA@@@std@@QAE@$$QAU?$pair@HPAUGAMESHOP_PACKAGE_DATA@@@1@@Z PROC ; std::pair<int const ,GAMESHOP_PACKAGE_DATA *>::pair<int const ,GAMESHOP_PACKAGE_DATA *><int,GAMESHOP_PACKAGE_DATA *>, COMDAT
; _this$ = ecx

; 255  : 		{	// construct from moved compatible pair

  00000	55		 push	 ebp
  00001	8b ec		 mov	 ebp, esp
  00003	8b c1		 mov	 eax, ecx
  00005	8b 4d 08	 mov	 ecx, DWORD PTR __Right$[ebp]
  00008	8b 11		 mov	 edx, DWORD PTR [ecx]
  0000a	89 10		 mov	 DWORD PTR [eax], edx
  0000c	8b 49 04	 mov	 ecx, DWORD PTR [ecx+4]
  0000f	89 48 04	 mov	 DWORD PTR [eax+4], ecx

; 256  : 		}

  00012	5d		 pop	 ebp
  00013	c2 04 00	 ret	 4
??$?0HPAUGAMESHOP_PACKAGE_DATA@@@?$pair@$$CBHPAUGAMESHOP_PACKAGE_DATA@@@std@@QAE@$$QAU?$pair@HPAUGAMESHOP_PACKAGE_DATA@@@1@@Z ENDP ; std::pair<int const ,GAMESHOP_PACKAGE_DATA *>::pair<int const ,GAMESHOP_PACKAGE_DATA *><int,GAMESHOP_PACKAGE_DATA *>
_TEXT	ENDS
PUBLIC	?AddUser@GameShop@@QAEXH@Z			; GameShop::AddUser
; Function compile flags: /Ogtp
; File e:\work\tranet_version\gs\gameserver\gameshop.cpp
;	COMDAT ?AddUser@GameShop@@QAEXH@Z
_TEXT	SEGMENT
_aIndex$ = 8						; size = 4
?AddUser@GameShop@@QAEXH@Z PROC				; GameShop::AddUser, COMDAT
; _this$ = ecx

; 413  : {

  00000	55		 push	 ebp
  00001	8b ec		 mov	 ebp, esp
  00003	56		 push	 esi
  00004	8b f1		 mov	 esi, ecx

; 414  : #if( GAMESHOP_DEBUG == 1 )
; 415  : 	LogAddC(2, "[DEBUG] [%s] [%s] [%s]", __FUNCTION__, &gObj[aIndex].AccountID, &gObj[aIndex].Name);
; 416  : #endif
; 417  : 	// ----
; 418  : 	if( !this->OptionData.ActiveGameShop )

  00006	80 7e 04 00	 cmp	 BYTE PTR [esi+4], 0
  0000a	74 32		 je	 SHORT $LN3@AddUser

; 419  : 	{
; 420  : 		return;
; 421  : 	}
; 422  : 	// ----
; 423  : 	if( !gObjIsConnected(aIndex) )

  0000c	57		 push	 edi
  0000d	8b 7d 08	 mov	 edi, DWORD PTR _aIndex$[ebp]
  00010	57		 push	 edi
  00011	e8 00 00 00 00	 call	 ?gObjIsConnected@@YAHH@Z ; gObjIsConnected
  00016	83 c4 04	 add	 esp, 4
  00019	85 c0		 test	 eax, eax
  0001b	74 20		 je	 SHORT $LN5@AddUser

; 424  : 	{
; 425  : 		return;
; 426  : 	}
; 427  : 	// ----
; 428  : 	/*if( this->UserCount >= OBJMAXUSER || this->GetUserSlot(aIndex) >= 0 )
; 429  : 	{
; 430  : 		this->UserCount = OBJMAXUSER;
; 431  : 		return;
; 432  : 	}
; 433  : 	// ----
; 434  : 	this->UserCount++;
; 435  : 	// ----
; 436  : 	ZeroMemory(&this->UserData[this->UserCount], sizeof(&this->UserData[this->UserCount]));
; 437  : 	this->UserData[this->UserCount].aIndex = aIndex;*/
; 438  : 	// ----
; 439  : 	this->SendVersion(aIndex);

  0001d	57		 push	 edi
  0001e	8b ce		 mov	 ecx, esi
  00020	e8 00 00 00 00	 call	 ?SendVersion@GameShop@@QAEXH@Z ; GameShop::SendVersion

; 440  : 	this->GDReqUserInfo(aIndex);

  00025	57		 push	 edi
  00026	8b ce		 mov	 ecx, esi
  00028	e8 00 00 00 00	 call	 ?GDReqUserInfo@GameShop@@QAEXH@Z ; GameShop::GDReqUserInfo

; 441  : 	this->GDReqStorage(aIndex);

  0002d	57		 push	 edi
  0002e	8b ce		 mov	 ecx, esi
  00030	e8 00 00 00 00	 call	 ?GDReqStorage@GameShop@@QAEXH@Z ; GameShop::GDReqStorage

; 442  : 	this->RequestPoint(aIndex);

  00035	57		 push	 edi
  00036	8b ce		 mov	 ecx, esi
  00038	e8 00 00 00 00	 call	 ?RequestPoint@GameShop@@QAEXH@Z ; GameShop::RequestPoint
$LN5@AddUser:
  0003d	5f		 pop	 edi
$LN3@AddUser:
  0003e	5e		 pop	 esi

; 443  : }

  0003f	5d		 pop	 ebp
  00040	c2 04 00	 ret	 4
?AddUser@GameShop@@QAEXH@Z ENDP				; GameShop::AddUser
_TEXT	ENDS
PUBLIC	??0?$_Tree_iterator@V?$_Tree_val@V?$_Tmap_traits@HPAUGAMESHOP_ITEM_DATA@@U?$less@H@std@@V?$allocator@U?$pair@$$CBHPAUGAMESHOP_ITEM_DATA@@@std@@@3@$0A@@std@@@std@@@std@@QAE@XZ ; std::_Tree_iterator<std::_Tree_val<std::_Tmap_traits<int,GAMESHOP_ITEM_DATA *,std::less<int>,std::allocator<std::pair<int const ,GAMESHOP_ITEM_DATA *> >,0> > >::_Tree_iterator<std::_Tree_val<std::_Tmap_traits<int,GAMESHOP_ITEM_DATA *,std::less<int>,std::allocator<std::pair<int const ,GAMESHOP_ITEM_DATA *> >,0> > >
; Function compile flags: /Ogtp
; File d:\program files (x86)\microsoft visual studio 10.0\vc\include\xtree
;	COMDAT ??0?$_Tree_iterator@V?$_Tree_val@V?$_Tmap_traits@HPAUGAMESHOP_ITEM_DATA@@U?$less@H@std@@V?$allocator@U?$pair@$$CBHPAUGAMESHOP_ITEM_DATA@@@std@@@3@$0A@@std@@@std@@@std@@QAE@XZ
_TEXT	SEGMENT
??0?$_Tree_iterator@V?$_Tree_val@V?$_Tmap_traits@HPAUGAMESHOP_ITEM_DATA@@U?$less@H@std@@V?$allocator@U?$pair@$$CBHPAUGAMESHOP_ITEM_DATA@@@std@@@3@$0A@@std@@@std@@@std@@QAE@XZ PROC ; std::_Tree_iterator<std::_Tree_val<std::_Tmap_traits<int,GAMESHOP_ITEM_DATA *,std::less<int>,std::allocator<std::pair<int const ,GAMESHOP_ITEM_DATA *> >,0> > >::_Tree_iterator<std::_Tree_val<std::_Tmap_traits<int,GAMESHOP_ITEM_DATA *,std::less<int>,std::allocator<std::pair<int const ,GAMESHOP_ITEM_DATA *> >,0> > >, COMDAT
; _this$ = ecx

; 372  : 	_Tree_iterator()

  00000	8b c1		 mov	 eax, ecx
  00002	c7 00 00 00 00
	00		 mov	 DWORD PTR [eax], 0

; 373  : 		{	// construct with null node
; 374  : 		}

  00008	c3		 ret	 0
??0?$_Tree_iterator@V?$_Tree_val@V?$_Tmap_traits@HPAUGAMESHOP_ITEM_DATA@@U?$less@H@std@@V?$allocator@U?$pair@$$CBHPAUGAMESHOP_ITEM_DATA@@@std@@@3@$0A@@std@@@std@@@std@@QAE@XZ ENDP ; std::_Tree_iterator<std::_Tree_val<std::_Tmap_traits<int,GAMESHOP_ITEM_DATA *,std::less<int>,std::allocator<std::pair<int const ,GAMESHOP_ITEM_DATA *> >,0> > >::_Tree_iterator<std::_Tree_val<std::_Tmap_traits<int,GAMESHOP_ITEM_DATA *,std::less<int>,std::allocator<std::pair<int const ,GAMESHOP_ITEM_DATA *> >,0> > >
_TEXT	ENDS
PUBLIC	??C?$_Tree_iterator@V?$_Tree_val@V?$_Tmap_traits@HPAUGAMESHOP_ITEM_DATA@@U?$less@H@std@@V?$allocator@U?$pair@$$CBHPAUGAMESHOP_ITEM_DATA@@@std@@@3@$0A@@std@@@std@@@std@@QBEPAU?$pair@$$CBHPAUGAMESHOP_ITEM_DATA@@@1@XZ ; std::_Tree_iterator<std::_Tree_val<std::_Tmap_traits<int,GAMESHOP_ITEM_DATA *,std::less<int>,std::allocator<std::pair<int const ,GAMESHOP_ITEM_DATA *> >,0> > >::operator->
; Function compile flags: /Ogtp
;	COMDAT ??C?$_Tree_iterator@V?$_Tree_val@V?$_Tmap_traits@HPAUGAMESHOP_ITEM_DATA@@U?$less@H@std@@V?$allocator@U?$pair@$$CBHPAUGAMESHOP_ITEM_DATA@@@std@@@3@$0A@@std@@@std@@@std@@QBEPAU?$pair@$$CBHPAUGAMESHOP_ITEM_DATA@@@1@XZ
_TEXT	SEGMENT
??C?$_Tree_iterator@V?$_Tree_val@V?$_Tmap_traits@HPAUGAMESHOP_ITEM_DATA@@U?$less@H@std@@V?$allocator@U?$pair@$$CBHPAUGAMESHOP_ITEM_DATA@@@std@@@3@$0A@@std@@@std@@@std@@QBEPAU?$pair@$$CBHPAUGAMESHOP_ITEM_DATA@@@1@XZ PROC ; std::_Tree_iterator<std::_Tree_val<std::_Tmap_traits<int,GAMESHOP_ITEM_DATA *,std::less<int>,std::allocator<std::pair<int const ,GAMESHOP_ITEM_DATA *> >,0> > >::operator->, COMDAT
; _this$ = ecx

; 401  : 		return (&**this);

  00000	8b 01		 mov	 eax, DWORD PTR [ecx]
  00002	83 c0 0c	 add	 eax, 12			; 0000000cH

; 402  : 		}

  00005	c3		 ret	 0
??C?$_Tree_iterator@V?$_Tree_val@V?$_Tmap_traits@HPAUGAMESHOP_ITEM_DATA@@U?$less@H@std@@V?$allocator@U?$pair@$$CBHPAUGAMESHOP_ITEM_DATA@@@std@@@3@$0A@@std@@@std@@@std@@QBEPAU?$pair@$$CBHPAUGAMESHOP_ITEM_DATA@@@1@XZ ENDP ; std::_Tree_iterator<std::_Tree_val<std::_Tmap_traits<int,GAMESHOP_ITEM_DATA *,std::less<int>,std::allocator<std::pair<int const ,GAMESHOP_ITEM_DATA *> >,0> > >::operator->
_TEXT	ENDS
PUBLIC	??0?$_Tree_iterator@V?$_Tree_val@V?$_Tmap_traits@HPAUGAMESHOP_PACKAGE_DATA@@U?$less@H@std@@V?$allocator@U?$pair@$$CBHPAUGAMESHOP_PACKAGE_DATA@@@std@@@3@$0A@@std@@@std@@@std@@QAE@XZ ; std::_Tree_iterator<std::_Tree_val<std::_Tmap_traits<int,GAMESHOP_PACKAGE_DATA *,std::less<int>,std::allocator<std::pair<int const ,GAMESHOP_PACKAGE_DATA *> >,0> > >::_Tree_iterator<std::_Tree_val<std::_Tmap_traits<int,GAMESHOP_PACKAGE_DATA *,std::less<int>,std::allocator<std::pair<int const ,GAMESHOP_PACKAGE_DATA *> >,0> > >
; Function compile flags: /Ogtp
;	COMDAT ??0?$_Tree_iterator@V?$_Tree_val@V?$_Tmap_traits@HPAUGAMESHOP_PACKAGE_DATA@@U?$less@H@std@@V?$allocator@U?$pair@$$CBHPAUGAMESHOP_PACKAGE_DATA@@@std@@@3@$0A@@std@@@std@@@std@@QAE@XZ
_TEXT	SEGMENT
??0?$_Tree_iterator@V?$_Tree_val@V?$_Tmap_traits@HPAUGAMESHOP_PACKAGE_DATA@@U?$less@H@std@@V?$allocator@U?$pair@$$CBHPAUGAMESHOP_PACKAGE_DATA@@@std@@@3@$0A@@std@@@std@@@std@@QAE@XZ PROC ; std::_Tree_iterator<std::_Tree_val<std::_Tmap_traits<int,GAMESHOP_PACKAGE_DATA *,std::less<int>,std::allocator<std::pair<int const ,GAMESHOP_PACKAGE_DATA *> >,0> > >::_Tree_iterator<std::_Tree_val<std::_Tmap_traits<int,GAMESHOP_PACKAGE_DATA *,std::less<int>,std::allocator<std::pair<int const ,GAMESHOP_PACKAGE_DATA *> >,0> > >, COMDAT
; _this$ = ecx

; 372  : 	_Tree_iterator()

  00000	8b c1		 mov	 eax, ecx
  00002	c7 00 00 00 00
	00		 mov	 DWORD PTR [eax], 0

; 373  : 		{	// construct with null node
; 374  : 		}

  00008	c3		 ret	 0
??0?$_Tree_iterator@V?$_Tree_val@V?$_Tmap_traits@HPAUGAMESHOP_PACKAGE_DATA@@U?$less@H@std@@V?$allocator@U?$pair@$$CBHPAUGAMESHOP_PACKAGE_DATA@@@std@@@3@$0A@@std@@@std@@@std@@QAE@XZ ENDP ; std::_Tree_iterator<std::_Tree_val<std::_Tmap_traits<int,GAMESHOP_PACKAGE_DATA *,std::less<int>,std::allocator<std::pair<int const ,GAMESHOP_PACKAGE_DATA *> >,0> > >::_Tree_iterator<std::_Tree_val<std::_Tmap_traits<int,GAMESHOP_PACKAGE_DATA *,std::less<int>,std::allocator<std::pair<int const ,GAMESHOP_PACKAGE_DATA *> >,0> > >
_TEXT	ENDS
PUBLIC	??C?$_Tree_iterator@V?$_Tree_val@V?$_Tmap_traits@HPAUGAMESHOP_PACKAGE_DATA@@U?$less@H@std@@V?$allocator@U?$pair@$$CBHPAUGAMESHOP_PACKAGE_DATA@@@std@@@3@$0A@@std@@@std@@@std@@QBEPAU?$pair@$$CBHPAUGAMESHOP_PACKAGE_DATA@@@1@XZ ; std::_Tree_iterator<std::_Tree_val<std::_Tmap_traits<int,GAMESHOP_PACKAGE_DATA *,std::less<int>,std::allocator<std::pair<int const ,GAMESHOP_PACKAGE_DATA *> >,0> > >::operator->
; Function compile flags: /Ogtp
;	COMDAT ??C?$_Tree_iterator@V?$_Tree_val@V?$_Tmap_traits@HPAUGAMESHOP_PACKAGE_DATA@@U?$less@H@std@@V?$allocator@U?$pair@$$CBHPAUGAMESHOP_PACKAGE_DATA@@@std@@@3@$0A@@std@@@std@@@std@@QBEPAU?$pair@$$CBHPAUGAMESHOP_PACKAGE_DATA@@@1@XZ
_TEXT	SEGMENT
??C?$_Tree_iterator@V?$_Tree_val@V?$_Tmap_traits@HPAUGAMESHOP_PACKAGE_DATA@@U?$less@H@std@@V?$allocator@U?$pair@$$CBHPAUGAMESHOP_PACKAGE_DATA@@@std@@@3@$0A@@std@@@std@@@std@@QBEPAU?$pair@$$CBHPAUGAMESHOP_PACKAGE_DATA@@@1@XZ PROC ; std::_Tree_iterator<std::_Tree_val<std::_Tmap_traits<int,GAMESHOP_PACKAGE_DATA *,std::less<int>,std::allocator<std::pair<int const ,GAMESHOP_PACKAGE_DATA *> >,0> > >::operator->, COMDAT
; _this$ = ecx

; 401  : 		return (&**this);

  00000	8b 01		 mov	 eax, DWORD PTR [ecx]
  00002	83 c0 0c	 add	 eax, 12			; 0000000cH

; 402  : 		}

  00005	c3		 ret	 0
??C?$_Tree_iterator@V?$_Tree_val@V?$_Tmap_traits@HPAUGAMESHOP_PACKAGE_DATA@@U?$less@H@std@@V?$allocator@U?$pair@$$CBHPAUGAMESHOP_PACKAGE_DATA@@@std@@@3@$0A@@std@@@std@@@std@@QBEPAU?$pair@$$CBHPAUGAMESHOP_PACKAGE_DATA@@@1@XZ ENDP ; std::_Tree_iterator<std::_Tree_val<std::_Tmap_traits<int,GAMESHOP_PACKAGE_DATA *,std::less<int>,std::allocator<std::pair<int const ,GAMESHOP_PACKAGE_DATA *> >,0> > >::operator->
_TEXT	ENDS
PUBLIC	??0?$pair@$$CBHPAUGAMESHOP_PACKAGE_DATA@@@std@@QAE@ABH$$QAPAUGAMESHOP_PACKAGE_DATA@@@Z ; std::pair<int const ,GAMESHOP_PACKAGE_DATA *>::pair<int const ,GAMESHOP_PACKAGE_DATA *>
; Function compile flags: /Ogtp
; File d:\program files (x86)\microsoft visual studio 10.0\vc\include\utility
;	COMDAT ??0?$pair@$$CBHPAUGAMESHOP_PACKAGE_DATA@@@std@@QAE@ABH$$QAPAUGAMESHOP_PACKAGE_DATA@@@Z
_TEXT	SEGMENT
__Val1$ = 8						; size = 4
__Val2$ = 12						; size = 4
??0?$pair@$$CBHPAUGAMESHOP_PACKAGE_DATA@@@std@@QAE@ABH$$QAPAUGAMESHOP_PACKAGE_DATA@@@Z PROC ; std::pair<int const ,GAMESHOP_PACKAGE_DATA *>::pair<int const ,GAMESHOP_PACKAGE_DATA *>, COMDAT
; _this$ = ecx

; 233  : 		{	// construct from specified values

  00000	55		 push	 ebp
  00001	8b ec		 mov	 ebp, esp
  00003	8b c1		 mov	 eax, ecx
  00005	8b 4d 08	 mov	 ecx, DWORD PTR __Val1$[ebp]
  00008	8b 11		 mov	 edx, DWORD PTR [ecx]
  0000a	8b 4d 0c	 mov	 ecx, DWORD PTR __Val2$[ebp]
  0000d	89 10		 mov	 DWORD PTR [eax], edx
  0000f	8b 11		 mov	 edx, DWORD PTR [ecx]
  00011	89 50 04	 mov	 DWORD PTR [eax+4], edx

; 234  : 		}

  00014	5d		 pop	 ebp
  00015	c2 08 00	 ret	 8
??0?$pair@$$CBHPAUGAMESHOP_PACKAGE_DATA@@@std@@QAE@ABH$$QAPAUGAMESHOP_PACKAGE_DATA@@@Z ENDP ; std::pair<int const ,GAMESHOP_PACKAGE_DATA *>::pair<int const ,GAMESHOP_PACKAGE_DATA *>
_TEXT	ENDS
PUBLIC	??0?$_Tree_const_iterator@V?$_Tree_val@V?$_Tmap_traits@HPAUGAMESHOP_ITEM_DATA@@U?$less@H@std@@V?$allocator@U?$pair@$$CBHPAUGAMESHOP_ITEM_DATA@@@std@@@3@$0A@@std@@@std@@@std@@QAE@PAU_Node@?$_Tree_nod@V?$_Tmap_traits@HPAUGAMESHOP_ITEM_DATA@@U?$less@H@std@@V?$allocator@U?$pair@$$CBHPAUGAMESHOP_ITEM_DATA@@@std@@@3@$0A@@std@@@1@PBV?$_Tree_val@V?$_Tmap_traits@HPAUGAMESHOP_ITEM_DATA@@U?$less@H@std@@V?$allocator@U?$pair@$$CBHPAUGAMESHOP_ITEM_DATA@@@std@@@3@$0A@@std@@@1@@Z ; std::_Tree_const_iterator<std::_Tree_val<std::_Tmap_traits<int,GAMESHOP_ITEM_DATA *,std::less<int>,std::allocator<std::pair<int const ,GAMESHOP_ITEM_DATA *> >,0> > >::_Tree_const_iterator<std::_Tree_val<std::_Tmap_traits<int,GAMESHOP_ITEM_DATA *,std::less<int>,std::allocator<std::pair<int const ,GAMESHOP_ITEM_DATA *> >,0> > >
; Function compile flags: /Ogtp
; File d:\program files (x86)\microsoft visual studio 10.0\vc\include\xtree
;	COMDAT ??0?$_Tree_const_iterator@V?$_Tree_val@V?$_Tmap_traits@HPAUGAMESHOP_ITEM_DATA@@U?$less@H@std@@V?$allocator@U?$pair@$$CBHPAUGAMESHOP_ITEM_DATA@@@std@@@3@$0A@@std@@@std@@@std@@QAE@PAU_Node@?$_Tree_nod@V?$_Tmap_traits@HPAUGAMESHOP_ITEM_DATA@@U?$less@H@std@@V?$allocator@U?$pair@$$CBHPAUGAMESHOP_ITEM_DATA@@@std@@@3@$0A@@std@@@1@PBV?$_Tree_val@V?$_Tmap_traits@HPAUGAMESHOP_ITEM_DATA@@U?$less@H@std@@V?$allocator@U?$pair@$$CBHPAUGAMESHOP_ITEM_DATA@@@std@@@3@$0A@@std@@@1@@Z
_TEXT	SEGMENT
__Pnode$ = 8						; size = 4
__Plist$ = 12						; size = 4
??0?$_Tree_const_iterator@V?$_Tree_val@V?$_Tmap_traits@HPAUGAMESHOP_ITEM_DATA@@U?$less@H@std@@V?$allocator@U?$pair@$$CBHPAUGAMESHOP_ITEM_DATA@@@std@@@3@$0A@@std@@@std@@@std@@QAE@PAU_Node@?$_Tree_nod@V?$_Tmap_traits@HPAUGAMESHOP_ITEM_DATA@@U?$less@H@std@@V?$allocator@U?$pair@$$CBHPAUGAMESHOP_ITEM_DATA@@@std@@@3@$0A@@std@@@1@PBV?$_Tree_val@V?$_Tmap_traits@HPAUGAMESHOP_ITEM_DATA@@U?$less@H@std@@V?$allocator@U?$pair@$$CBHPAUGAMESHOP_ITEM_DATA@@@std@@@3@$0A@@std@@@1@@Z PROC ; std::_Tree_const_iterator<std::_Tree_val<std::_Tmap_traits<int,GAMESHOP_ITEM_DATA *,std::less<int>,std::allocator<std::pair<int const ,GAMESHOP_ITEM_DATA *> >,0> > >::_Tree_const_iterator<std::_Tree_val<std::_Tmap_traits<int,GAMESHOP_ITEM_DATA *,std::less<int>,std::allocator<std::pair<int const ,GAMESHOP_ITEM_DATA *> >,0> > >, COMDAT
; _this$ = ecx

; 213  : 		{	// construct with node pointer _Pnode

  00000	55		 push	 ebp
  00001	8b ec		 mov	 ebp, esp
  00003	8b c1		 mov	 eax, ecx
  00005	8b 4d 08	 mov	 ecx, DWORD PTR __Pnode$[ebp]
  00008	89 08		 mov	 DWORD PTR [eax], ecx

; 214  : 		}

  0000a	5d		 pop	 ebp
  0000b	c2 08 00	 ret	 8
??0?$_Tree_const_iterator@V?$_Tree_val@V?$_Tmap_traits@HPAUGAMESHOP_ITEM_DATA@@U?$less@H@std@@V?$allocator@U?$pair@$$CBHPAUGAMESHOP_ITEM_DATA@@@std@@@3@$0A@@std@@@std@@@std@@QAE@PAU_Node@?$_Tree_nod@V?$_Tmap_traits@HPAUGAMESHOP_ITEM_DATA@@U?$less@H@std@@V?$allocator@U?$pair@$$CBHPAUGAMESHOP_ITEM_DATA@@@std@@@3@$0A@@std@@@1@PBV?$_Tree_val@V?$_Tmap_traits@HPAUGAMESHOP_ITEM_DATA@@U?$less@H@std@@V?$allocator@U?$pair@$$CBHPAUGAMESHOP_ITEM_DATA@@@std@@@3@$0A@@std@@@1@@Z ENDP ; std::_Tree_const_iterator<std::_Tree_val<std::_Tmap_traits<int,GAMESHOP_ITEM_DATA *,std::less<int>,std::allocator<std::pair<int const ,GAMESHOP_ITEM_DATA *> >,0> > >::_Tree_const_iterator<std::_Tree_val<std::_Tmap_traits<int,GAMESHOP_ITEM_DATA *,std::less<int>,std::allocator<std::pair<int const ,GAMESHOP_ITEM_DATA *> >,0> > >
_TEXT	ENDS
PUBLIC	??E?$_Tree_const_iterator@V?$_Tree_val@V?$_Tmap_traits@HPAUGAMESHOP_ITEM_DATA@@U?$less@H@std@@V?$allocator@U?$pair@$$CBHPAUGAMESHOP_ITEM_DATA@@@std@@@3@$0A@@std@@@std@@@std@@QAEAAV01@XZ ; std::_Tree_const_iterator<std::_Tree_val<std::_Tmap_traits<int,GAMESHOP_ITEM_DATA *,std::less<int>,std::allocator<std::pair<int const ,GAMESHOP_ITEM_DATA *> >,0> > >::operator++
; Function compile flags: /Ogtp
;	COMDAT ??E?$_Tree_const_iterator@V?$_Tree_val@V?$_Tmap_traits@HPAUGAMESHOP_ITEM_DATA@@U?$less@H@std@@V?$allocator@U?$pair@$$CBHPAUGAMESHOP_ITEM_DATA@@@std@@@3@$0A@@std@@@std@@@std@@QAEAAV01@XZ
_TEXT	SEGMENT
??E?$_Tree_const_iterator@V?$_Tree_val@V?$_Tmap_traits@HPAUGAMESHOP_ITEM_DATA@@U?$less@H@std@@V?$allocator@U?$pair@$$CBHPAUGAMESHOP_ITEM_DATA@@@std@@@3@$0A@@std@@@std@@@std@@QAEAAV01@XZ PROC ; std::_Tree_const_iterator<std::_Tree_val<std::_Tmap_traits<int,GAMESHOP_ITEM_DATA *,std::less<int>,std::allocator<std::pair<int const ,GAMESHOP_ITEM_DATA *> >,0> > >::operator++, COMDAT
; _this$ = ecx

; 250  : 		{	// preincrement

  00000	56		 push	 esi
  00001	8b f1		 mov	 esi, ecx

; 251  :  #if _ITERATOR_DEBUG_LEVEL == 2
; 252  : 		if (this->_Getcont() == 0
; 253  : 			|| this->_Ptr == 0
; 254  : 			|| _Mytree::_Isnil(this->_Ptr))
; 255  : 			{	// report error
; 256  : 			_DEBUG_ERROR("map/set iterator not incrementable");
; 257  : 			_SCL_SECURE_OUT_OF_RANGE;
; 258  : 			}
; 259  : 
; 260  :  #elif _ITERATOR_DEBUG_LEVEL == 1
; 261  : 		_SCL_SECURE_VALIDATE(this->_Getcont() != 0 && this->_Ptr != 0);
; 262  : 		_SCL_SECURE_VALIDATE_RANGE(!_Mytree::_Isnil(this->_Ptr));
; 263  :  #endif /* _ITERATOR_DEBUG_LEVEL */
; 264  : 
; 265  : 		++(*(_Mybase *)this);

  00003	e8 00 00 00 00	 call	 ??E?$_Tree_unchecked_const_iterator@V?$_Tree_val@V?$_Tmap_traits@HPAUGAMESHOP_ITEM_DATA@@U?$less@H@std@@V?$allocator@U?$pair@$$CBHPAUGAMESHOP_ITEM_DATA@@@std@@@3@$0A@@std@@@std@@U_Iterator_base0@2@@std@@QAEAAV01@XZ ; std::_Tree_unchecked_const_iterator<std::_Tree_val<std::_Tmap_traits<int,GAMESHOP_ITEM_DATA *,std::less<int>,std::allocator<std::pair<int const ,GAMESHOP_ITEM_DATA *> >,0> >,std::_Iterator_base0>::operator++

; 266  : 		return (*this);

  00008	8b c6		 mov	 eax, esi
  0000a	5e		 pop	 esi

; 267  : 		}

  0000b	c3		 ret	 0
??E?$_Tree_const_iterator@V?$_Tree_val@V?$_Tmap_traits@HPAUGAMESHOP_ITEM_DATA@@U?$less@H@std@@V?$allocator@U?$pair@$$CBHPAUGAMESHOP_ITEM_DATA@@@std@@@3@$0A@@std@@@std@@@std@@QAEAAV01@XZ ENDP ; std::_Tree_const_iterator<std::_Tree_val<std::_Tmap_traits<int,GAMESHOP_ITEM_DATA *,std::less<int>,std::allocator<std::pair<int const ,GAMESHOP_ITEM_DATA *> >,0> > >::operator++
_TEXT	ENDS
PUBLIC	??0?$_Tree_const_iterator@V?$_Tree_val@V?$_Tmap_traits@HPAUGAMESHOP_PACKAGE_DATA@@U?$less@H@std@@V?$allocator@U?$pair@$$CBHPAUGAMESHOP_PACKAGE_DATA@@@std@@@3@$0A@@std@@@std@@@std@@QAE@PAU_Node@?$_Tree_nod@V?$_Tmap_traits@HPAUGAMESHOP_PACKAGE_DATA@@U?$less@H@std@@V?$allocator@U?$pair@$$CBHPAUGAMESHOP_PACKAGE_DATA@@@std@@@3@$0A@@std@@@1@PBV?$_Tree_val@V?$_Tmap_traits@HPAUGAMESHOP_PACKAGE_DATA@@U?$less@H@std@@V?$allocator@U?$pair@$$CBHPAUGAMESHOP_PACKAGE_DATA@@@std@@@3@$0A@@std@@@1@@Z ; std::_Tree_const_iterator<std::_Tree_val<std::_Tmap_traits<int,GAMESHOP_PACKAGE_DATA *,std::less<int>,std::allocator<std::pair<int const ,GAMESHOP_PACKAGE_DATA *> >,0> > >::_Tree_const_iterator<std::_Tree_val<std::_Tmap_traits<int,GAMESHOP_PACKAGE_DATA *,std::less<int>,std::allocator<std::pair<int const ,GAMESHOP_PACKAGE_DATA *> >,0> > >
; Function compile flags: /Ogtp
;	COMDAT ??0?$_Tree_const_iterator@V?$_Tree_val@V?$_Tmap_traits@HPAUGAMESHOP_PACKAGE_DATA@@U?$less@H@std@@V?$allocator@U?$pair@$$CBHPAUGAMESHOP_PACKAGE_DATA@@@std@@@3@$0A@@std@@@std@@@std@@QAE@PAU_Node@?$_Tree_nod@V?$_Tmap_traits@HPAUGAMESHOP_PACKAGE_DATA@@U?$less@H@std@@V?$allocator@U?$pair@$$CBHPAUGAMESHOP_PACKAGE_DATA@@@std@@@3@$0A@@std@@@1@PBV?$_Tree_val@V?$_Tmap_traits@HPAUGAMESHOP_PACKAGE_DATA@@U?$less@H@std@@V?$allocator@U?$pair@$$CBHPAUGAMESHOP_PACKAGE_DATA@@@std@@@3@$0A@@std@@@1@@Z
_TEXT	SEGMENT
__Pnode$ = 8						; size = 4
__Plist$ = 12						; size = 4
??0?$_Tree_const_iterator@V?$_Tree_val@V?$_Tmap_traits@HPAUGAMESHOP_PACKAGE_DATA@@U?$less@H@std@@V?$allocator@U?$pair@$$CBHPAUGAMESHOP_PACKAGE_DATA@@@std@@@3@$0A@@std@@@std@@@std@@QAE@PAU_Node@?$_Tree_nod@V?$_Tmap_traits@HPAUGAMESHOP_PACKAGE_DATA@@U?$less@H@std@@V?$allocator@U?$pair@$$CBHPAUGAMESHOP_PACKAGE_DATA@@@std@@@3@$0A@@std@@@1@PBV?$_Tree_val@V?$_Tmap_traits@HPAUGAMESHOP_PACKAGE_DATA@@U?$less@H@std@@V?$allocator@U?$pair@$$CBHPAUGAMESHOP_PACKAGE_DATA@@@std@@@3@$0A@@std@@@1@@Z PROC ; std::_Tree_const_iterator<std::_Tree_val<std::_Tmap_traits<int,GAMESHOP_PACKAGE_DATA *,std::less<int>,std::allocator<std::pair<int const ,GAMESHOP_PACKAGE_DATA *> >,0> > >::_Tree_const_iterator<std::_Tree_val<std::_Tmap_traits<int,GAMESHOP_PACKAGE_DATA *,std::less<int>,std::allocator<std::pair<int const ,GAMESHOP_PACKAGE_DATA *> >,0> > >, COMDAT
; _this$ = ecx

; 213  : 		{	// construct with node pointer _Pnode

  00000	55		 push	 ebp
  00001	8b ec		 mov	 ebp, esp
  00003	8b c1		 mov	 eax, ecx
  00005	8b 4d 08	 mov	 ecx, DWORD PTR __Pnode$[ebp]
  00008	89 08		 mov	 DWORD PTR [eax], ecx

; 214  : 		}

  0000a	5d		 pop	 ebp
  0000b	c2 08 00	 ret	 8
??0?$_Tree_const_iterator@V?$_Tree_val@V?$_Tmap_traits@HPAUGAMESHOP_PACKAGE_DATA@@U?$less@H@std@@V?$allocator@U?$pair@$$CBHPAUGAMESHOP_PACKAGE_DATA@@@std@@@3@$0A@@std@@@std@@@std@@QAE@PAU_Node@?$_Tree_nod@V?$_Tmap_traits@HPAUGAMESHOP_PACKAGE_DATA@@U?$less@H@std@@V?$allocator@U?$pair@$$CBHPAUGAMESHOP_PACKAGE_DATA@@@std@@@3@$0A@@std@@@1@PBV?$_Tree_val@V?$_Tmap_traits@HPAUGAMESHOP_PACKAGE_DATA@@U?$less@H@std@@V?$allocator@U?$pair@$$CBHPAUGAMESHOP_PACKAGE_DATA@@@std@@@3@$0A@@std@@@1@@Z ENDP ; std::_Tree_const_iterator<std::_Tree_val<std::_Tmap_traits<int,GAMESHOP_PACKAGE_DATA *,std::less<int>,std::allocator<std::pair<int const ,GAMESHOP_PACKAGE_DATA *> >,0> > >::_Tree_const_iterator<std::_Tree_val<std::_Tmap_traits<int,GAMESHOP_PACKAGE_DATA *,std::less<int>,std::allocator<std::pair<int const ,GAMESHOP_PACKAGE_DATA *> >,0> > >
_TEXT	ENDS
PUBLIC	??E?$_Tree_const_iterator@V?$_Tree_val@V?$_Tmap_traits@HPAUGAMESHOP_PACKAGE_DATA@@U?$less@H@std@@V?$allocator@U?$pair@$$CBHPAUGAMESHOP_PACKAGE_DATA@@@std@@@3@$0A@@std@@@std@@@std@@QAEAAV01@XZ ; std::_Tree_const_iterator<std::_Tree_val<std::_Tmap_traits<int,GAMESHOP_PACKAGE_DATA *,std::less<int>,std::allocator<std::pair<int const ,GAMESHOP_PACKAGE_DATA *> >,0> > >::operator++
; Function compile flags: /Ogtp
;	COMDAT ??E?$_Tree_const_iterator@V?$_Tree_val@V?$_Tmap_traits@HPAUGAMESHOP_PACKAGE_DATA@@U?$less@H@std@@V?$allocator@U?$pair@$$CBHPAUGAMESHOP_PACKAGE_DATA@@@std@@@3@$0A@@std@@@std@@@std@@QAEAAV01@XZ
_TEXT	SEGMENT
??E?$_Tree_const_iterator@V?$_Tree_val@V?$_Tmap_traits@HPAUGAMESHOP_PACKAGE_DATA@@U?$less@H@std@@V?$allocator@U?$pair@$$CBHPAUGAMESHOP_PACKAGE_DATA@@@std@@@3@$0A@@std@@@std@@@std@@QAEAAV01@XZ PROC ; std::_Tree_const_iterator<std::_Tree_val<std::_Tmap_traits<int,GAMESHOP_PACKAGE_DATA *,std::less<int>,std::allocator<std::pair<int const ,GAMESHOP_PACKAGE_DATA *> >,0> > >::operator++, COMDAT
; _this$ = ecx

; 250  : 		{	// preincrement

  00000	56		 push	 esi
  00001	8b f1		 mov	 esi, ecx

; 251  :  #if _ITERATOR_DEBUG_LEVEL == 2
; 252  : 		if (this->_Getcont() == 0
; 253  : 			|| this->_Ptr == 0
; 254  : 			|| _Mytree::_Isnil(this->_Ptr))
; 255  : 			{	// report error
; 256  : 			_DEBUG_ERROR("map/set iterator not incrementable");
; 257  : 			_SCL_SECURE_OUT_OF_RANGE;
; 258  : 			}
; 259  : 
; 260  :  #elif _ITERATOR_DEBUG_LEVEL == 1
; 261  : 		_SCL_SECURE_VALIDATE(this->_Getcont() != 0 && this->_Ptr != 0);
; 262  : 		_SCL_SECURE_VALIDATE_RANGE(!_Mytree::_Isnil(this->_Ptr));
; 263  :  #endif /* _ITERATOR_DEBUG_LEVEL */
; 264  : 
; 265  : 		++(*(_Mybase *)this);

  00003	e8 00 00 00 00	 call	 ??E?$_Tree_unchecked_const_iterator@V?$_Tree_val@V?$_Tmap_traits@HPAUGAMESHOP_PACKAGE_DATA@@U?$less@H@std@@V?$allocator@U?$pair@$$CBHPAUGAMESHOP_PACKAGE_DATA@@@std@@@3@$0A@@std@@@std@@U_Iterator_base0@2@@std@@QAEAAV01@XZ ; std::_Tree_unchecked_const_iterator<std::_Tree_val<std::_Tmap_traits<int,GAMESHOP_PACKAGE_DATA *,std::less<int>,std::allocator<std::pair<int const ,GAMESHOP_PACKAGE_DATA *> >,0> >,std::_Iterator_base0>::operator++

; 266  : 		return (*this);

  00008	8b c6		 mov	 eax, esi
  0000a	5e		 pop	 esi

; 267  : 		}

  0000b	c3		 ret	 0
??E?$_Tree_const_iterator@V?$_Tree_val@V?$_Tmap_traits@HPAUGAMESHOP_PACKAGE_DATA@@U?$less@H@std@@V?$allocator@U?$pair@$$CBHPAUGAMESHOP_PACKAGE_DATA@@@std@@@3@$0A@@std@@@std@@@std@@QAEAAV01@XZ ENDP ; std::_Tree_const_iterator<std::_Tree_val<std::_Tmap_traits<int,GAMESHOP_PACKAGE_DATA *,std::less<int>,std::allocator<std::pair<int const ,GAMESHOP_PACKAGE_DATA *> >,0> > >::operator++
_TEXT	ENDS
PUBLIC	?allocate@?$allocator@U_Node@?$_Tree_nod@V?$_Tmap_traits@HPAUGAMESHOP_ITEM_DATA@@U?$less@H@std@@V?$allocator@U?$pair@$$CBHPAUGAMESHOP_ITEM_DATA@@@std@@@3@$0A@@std@@@std@@@std@@QAEPAU_Node@?$_Tree_nod@V?$_Tmap_traits@HPAUGAMESHOP_ITEM_DATA@@U?$less@H@std@@V?$allocator@U?$pair@$$CBHPAUGAMESHOP_ITEM_DATA@@@std@@@3@$0A@@std@@@2@I@Z ; std::allocator<std::_Tree_nod<std::_Tmap_traits<int,GAMESHOP_ITEM_DATA *,std::less<int>,std::allocator<std::pair<int const ,GAMESHOP_ITEM_DATA *> >,0> >::_Node>::allocate
; Function compile flags: /Ogtp
; File d:\program files (x86)\microsoft visual studio 10.0\vc\include\xmemory
;	COMDAT ?allocate@?$allocator@U_Node@?$_Tree_nod@V?$_Tmap_traits@HPAUGAMESHOP_ITEM_DATA@@U?$less@H@std@@V?$allocator@U?$pair@$$CBHPAUGAMESHOP_ITEM_DATA@@@std@@@3@$0A@@std@@@std@@@std@@QAEPAU_Node@?$_Tree_nod@V?$_Tmap_traits@HPAUGAMESHOP_ITEM_DATA@@U?$less@H@std@@V?$allocator@U?$pair@$$CBHPAUGAMESHOP_ITEM_DATA@@@std@@@3@$0A@@std@@@2@I@Z
_TEXT	SEGMENT
$T216498 = -12						; size = 12
$T216496 = 8						; size = 4
__Count$ = 8						; size = 4
?allocate@?$allocator@U_Node@?$_Tree_nod@V?$_Tmap_traits@HPAUGAMESHOP_ITEM_DATA@@U?$less@H@std@@V?$allocator@U?$pair@$$CBHPAUGAMESHOP_ITEM_DATA@@@std@@@3@$0A@@std@@@std@@@std@@QAEPAU_Node@?$_Tree_nod@V?$_Tmap_traits@HPAUGAMESHOP_ITEM_DATA@@U?$less@H@std@@V?$allocator@U?$pair@$$CBHPAUGAMESHOP_ITEM_DATA@@@std@@@3@$0A@@std@@@2@I@Z PROC ; std::allocator<std::_Tree_nod<std::_Tmap_traits<int,GAMESHOP_ITEM_DATA *,std::less<int>,std::allocator<std::pair<int const ,GAMESHOP_ITEM_DATA *> >,0> >::_Node>::allocate, COMDAT
; _this$ = ecx

; 186  : 		{	// allocate array of _Count elements

  00000	55		 push	 ebp
  00001	8b ec		 mov	 ebp, esp

; 187  : 		return (_Allocate(_Count, (pointer)0));

  00003	8b 4d 08	 mov	 ecx, DWORD PTR __Count$[ebp]
  00006	83 ec 0c	 sub	 esp, 12			; 0000000cH
  00009	33 c0		 xor	 eax, eax
  0000b	85 c9		 test	 ecx, ecx
  0000d	74 46		 je	 SHORT $LN1@allocate
  0000f	81 f9 aa aa aa
	0a		 cmp	 ecx, 178956970		; 0aaaaaaaH
  00015	77 16		 ja	 SHORT $LN3@allocate
  00017	8d 04 49	 lea	 eax, DWORD PTR [ecx+ecx*2]
  0001a	03 c0		 add	 eax, eax
  0001c	03 c0		 add	 eax, eax
  0001e	03 c0		 add	 eax, eax
  00020	50		 push	 eax
  00021	e8 00 00 00 00	 call	 ??2@YAPAXI@Z		; operator new
  00026	83 c4 04	 add	 esp, 4
  00029	85 c0		 test	 eax, eax
  0002b	75 28		 jne	 SHORT $LN1@allocate
$LN3@allocate:
  0002d	8d 4d 08	 lea	 ecx, DWORD PTR $T216496[ebp]
  00030	51		 push	 ecx
  00031	8d 4d f4	 lea	 ecx, DWORD PTR $T216498[ebp]
  00034	c7 45 08 00 00
	00 00		 mov	 DWORD PTR $T216496[ebp], 0
  0003b	e8 00 00 00 00	 call	 ??0exception@std@@QAE@ABQBD@Z ; std::exception::exception
  00040	68 00 00 00 00	 push	 OFFSET __TI2?AVbad_alloc@std@@
  00045	8d 55 f4	 lea	 edx, DWORD PTR $T216498[ebp]
  00048	52		 push	 edx
  00049	c7 45 f4 00 00
	00 00		 mov	 DWORD PTR $T216498[ebp], OFFSET ??_7bad_alloc@std@@6B@
  00050	e8 00 00 00 00	 call	 __CxxThrowException@8
$LN13@allocate:
$LN1@allocate:

; 188  : 		}

  00055	8b e5		 mov	 esp, ebp
  00057	5d		 pop	 ebp
  00058	c2 04 00	 ret	 4
$LN12@allocate:
?allocate@?$allocator@U_Node@?$_Tree_nod@V?$_Tmap_traits@HPAUGAMESHOP_ITEM_DATA@@U?$less@H@std@@V?$allocator@U?$pair@$$CBHPAUGAMESHOP_ITEM_DATA@@@std@@@3@$0A@@std@@@std@@@std@@QAEPAU_Node@?$_Tree_nod@V?$_Tmap_traits@HPAUGAMESHOP_ITEM_DATA@@U?$less@H@std@@V?$allocator@U?$pair@$$CBHPAUGAMESHOP_ITEM_DATA@@@std@@@3@$0A@@std@@@2@I@Z ENDP ; std::allocator<std::_Tree_nod<std::_Tmap_traits<int,GAMESHOP_ITEM_DATA *,std::less<int>,std::allocator<std::pair<int const ,GAMESHOP_ITEM_DATA *> >,0> >::_Node>::allocate
_TEXT	ENDS
PUBLIC	?allocate@?$allocator@U_Node@?$_Tree_nod@V?$_Tmap_traits@HPAUGAMESHOP_PACKAGE_DATA@@U?$less@H@std@@V?$allocator@U?$pair@$$CBHPAUGAMESHOP_PACKAGE_DATA@@@std@@@3@$0A@@std@@@std@@@std@@QAEPAU_Node@?$_Tree_nod@V?$_Tmap_traits@HPAUGAMESHOP_PACKAGE_DATA@@U?$less@H@std@@V?$allocator@U?$pair@$$CBHPAUGAMESHOP_PACKAGE_DATA@@@std@@@3@$0A@@std@@@2@I@Z ; std::allocator<std::_Tree_nod<std::_Tmap_traits<int,GAMESHOP_PACKAGE_DATA *,std::less<int>,std::allocator<std::pair<int const ,GAMESHOP_PACKAGE_DATA *> >,0> >::_Node>::allocate
; Function compile flags: /Ogtp
;	COMDAT ?allocate@?$allocator@U_Node@?$_Tree_nod@V?$_Tmap_traits@HPAUGAMESHOP_PACKAGE_DATA@@U?$less@H@std@@V?$allocator@U?$pair@$$CBHPAUGAMESHOP_PACKAGE_DATA@@@std@@@3@$0A@@std@@@std@@@std@@QAEPAU_Node@?$_Tree_nod@V?$_Tmap_traits@HPAUGAMESHOP_PACKAGE_DATA@@U?$less@H@std@@V?$allocator@U?$pair@$$CBHPAUGAMESHOP_PACKAGE_DATA@@@std@@@3@$0A@@std@@@2@I@Z
_TEXT	SEGMENT
$T216521 = -12						; size = 12
$T216519 = 8						; size = 4
__Count$ = 8						; size = 4
?allocate@?$allocator@U_Node@?$_Tree_nod@V?$_Tmap_traits@HPAUGAMESHOP_PACKAGE_DATA@@U?$less@H@std@@V?$allocator@U?$pair@$$CBHPAUGAMESHOP_PACKAGE_DATA@@@std@@@3@$0A@@std@@@std@@@std@@QAEPAU_Node@?$_Tree_nod@V?$_Tmap_traits@HPAUGAMESHOP_PACKAGE_DATA@@U?$less@H@std@@V?$allocator@U?$pair@$$CBHPAUGAMESHOP_PACKAGE_DATA@@@std@@@3@$0A@@std@@@2@I@Z PROC ; std::allocator<std::_Tree_nod<std::_Tmap_traits<int,GAMESHOP_PACKAGE_DATA *,std::less<int>,std::allocator<std::pair<int const ,GAMESHOP_PACKAGE_DATA *> >,0> >::_Node>::allocate, COMDAT
; _this$ = ecx

; 186  : 		{	// allocate array of _Count elements

  00000	55		 push	 ebp
  00001	8b ec		 mov	 ebp, esp

; 187  : 		return (_Allocate(_Count, (pointer)0));

  00003	8b 4d 08	 mov	 ecx, DWORD PTR __Count$[ebp]
  00006	83 ec 0c	 sub	 esp, 12			; 0000000cH
  00009	33 c0		 xor	 eax, eax
  0000b	85 c9		 test	 ecx, ecx
  0000d	74 46		 je	 SHORT $LN1@allocate@2
  0000f	81 f9 aa aa aa
	0a		 cmp	 ecx, 178956970		; 0aaaaaaaH
  00015	77 16		 ja	 SHORT $LN3@allocate@2
  00017	8d 04 49	 lea	 eax, DWORD PTR [ecx+ecx*2]
  0001a	03 c0		 add	 eax, eax
  0001c	03 c0		 add	 eax, eax
  0001e	03 c0		 add	 eax, eax
  00020	50		 push	 eax
  00021	e8 00 00 00 00	 call	 ??2@YAPAXI@Z		; operator new
  00026	83 c4 04	 add	 esp, 4
  00029	85 c0		 test	 eax, eax
  0002b	75 28		 jne	 SHORT $LN1@allocate@2
$LN3@allocate@2:
  0002d	8d 4d 08	 lea	 ecx, DWORD PTR $T216519[ebp]
  00030	51		 push	 ecx
  00031	8d 4d f4	 lea	 ecx, DWORD PTR $T216521[ebp]
  00034	c7 45 08 00 00
	00 00		 mov	 DWORD PTR $T216519[ebp], 0
  0003b	e8 00 00 00 00	 call	 ??0exception@std@@QAE@ABQBD@Z ; std::exception::exception
  00040	68 00 00 00 00	 push	 OFFSET __TI2?AVbad_alloc@std@@
  00045	8d 55 f4	 lea	 edx, DWORD PTR $T216521[ebp]
  00048	52		 push	 edx
  00049	c7 45 f4 00 00
	00 00		 mov	 DWORD PTR $T216521[ebp], OFFSET ??_7bad_alloc@std@@6B@
  00050	e8 00 00 00 00	 call	 __CxxThrowException@8
$LN13@allocate@2:
$LN1@allocate@2:

; 188  : 		}

  00055	8b e5		 mov	 esp, ebp
  00057	5d		 pop	 ebp
  00058	c2 04 00	 ret	 4
$LN12@allocate@2:
?allocate@?$allocator@U_Node@?$_Tree_nod@V?$_Tmap_traits@HPAUGAMESHOP_PACKAGE_DATA@@U?$less@H@std@@V?$allocator@U?$pair@$$CBHPAUGAMESHOP_PACKAGE_DATA@@@std@@@3@$0A@@std@@@std@@@std@@QAEPAU_Node@?$_Tree_nod@V?$_Tmap_traits@HPAUGAMESHOP_PACKAGE_DATA@@U?$less@H@std@@V?$allocator@U?$pair@$$CBHPAUGAMESHOP_PACKAGE_DATA@@@std@@@3@$0A@@std@@@2@I@Z ENDP ; std::allocator<std::_Tree_nod<std::_Tmap_traits<int,GAMESHOP_PACKAGE_DATA *,std::less<int>,std::allocator<std::pair<int const ,GAMESHOP_PACKAGE_DATA *> >,0> >::_Node>::allocate
_TEXT	ENDS
PUBLIC	??E?$_Tree_const_iterator@V?$_Tree_val@V?$_Tmap_traits@HPAUGAMESHOP_ITEM_DATA@@U?$less@H@std@@V?$allocator@U?$pair@$$CBHPAUGAMESHOP_ITEM_DATA@@@std@@@3@$0A@@std@@@std@@@std@@QAE?AV01@H@Z ; std::_Tree_const_iterator<std::_Tree_val<std::_Tmap_traits<int,GAMESHOP_ITEM_DATA *,std::less<int>,std::allocator<std::pair<int const ,GAMESHOP_ITEM_DATA *> >,0> > >::operator++
; Function compile flags: /Ogtp
; File d:\program files (x86)\microsoft visual studio 10.0\vc\include\xtree
;	COMDAT ??E?$_Tree_const_iterator@V?$_Tree_val@V?$_Tmap_traits@HPAUGAMESHOP_ITEM_DATA@@U?$less@H@std@@V?$allocator@U?$pair@$$CBHPAUGAMESHOP_ITEM_DATA@@@std@@@3@$0A@@std@@@std@@@std@@QAE?AV01@H@Z
_TEXT	SEGMENT
___$ReturnUdt$ = 8					; size = 4
___formal$ = 12						; size = 4
??E?$_Tree_const_iterator@V?$_Tree_val@V?$_Tmap_traits@HPAUGAMESHOP_ITEM_DATA@@U?$less@H@std@@V?$allocator@U?$pair@$$CBHPAUGAMESHOP_ITEM_DATA@@@std@@@3@$0A@@std@@@std@@@std@@QAE?AV01@H@Z PROC ; std::_Tree_const_iterator<std::_Tree_val<std::_Tmap_traits<int,GAMESHOP_ITEM_DATA *,std::less<int>,std::allocator<std::pair<int const ,GAMESHOP_ITEM_DATA *> >,0> > >::operator++, COMDAT
; _this$ = ecx

; 270  : 		{	// postincrement

  00000	55		 push	 ebp
  00001	8b ec		 mov	 ebp, esp

; 271  : 		_Myiter _Tmp = *this;

  00003	8b 01		 mov	 eax, DWORD PTR [ecx]
  00005	56		 push	 esi
  00006	8b 75 08	 mov	 esi, DWORD PTR ___$ReturnUdt$[ebp]
  00009	89 06		 mov	 DWORD PTR [esi], eax

; 272  : 		++*this;

  0000b	e8 00 00 00 00	 call	 ??E?$_Tree_unchecked_const_iterator@V?$_Tree_val@V?$_Tmap_traits@HPAUGAMESHOP_ITEM_DATA@@U?$less@H@std@@V?$allocator@U?$pair@$$CBHPAUGAMESHOP_ITEM_DATA@@@std@@@3@$0A@@std@@@std@@U_Iterator_base0@2@@std@@QAEAAV01@XZ ; std::_Tree_unchecked_const_iterator<std::_Tree_val<std::_Tmap_traits<int,GAMESHOP_ITEM_DATA *,std::less<int>,std::allocator<std::pair<int const ,GAMESHOP_ITEM_DATA *> >,0> >,std::_Iterator_base0>::operator++

; 273  : 		return (_Tmp);

  00010	8b c6		 mov	 eax, esi
  00012	5e		 pop	 esi

; 274  : 		}

  00013	5d		 pop	 ebp
  00014	c2 08 00	 ret	 8
??E?$_Tree_const_iterator@V?$_Tree_val@V?$_Tmap_traits@HPAUGAMESHOP_ITEM_DATA@@U?$less@H@std@@V?$allocator@U?$pair@$$CBHPAUGAMESHOP_ITEM_DATA@@@std@@@3@$0A@@std@@@std@@@std@@QAE?AV01@H@Z ENDP ; std::_Tree_const_iterator<std::_Tree_val<std::_Tmap_traits<int,GAMESHOP_ITEM_DATA *,std::less<int>,std::allocator<std::pair<int const ,GAMESHOP_ITEM_DATA *> >,0> > >::operator++
_TEXT	ENDS
PUBLIC	??E?$_Tree_const_iterator@V?$_Tree_val@V?$_Tmap_traits@HPAUGAMESHOP_PACKAGE_DATA@@U?$less@H@std@@V?$allocator@U?$pair@$$CBHPAUGAMESHOP_PACKAGE_DATA@@@std@@@3@$0A@@std@@@std@@@std@@QAE?AV01@H@Z ; std::_Tree_const_iterator<std::_Tree_val<std::_Tmap_traits<int,GAMESHOP_PACKAGE_DATA *,std::less<int>,std::allocator<std::pair<int const ,GAMESHOP_PACKAGE_DATA *> >,0> > >::operator++
; Function compile flags: /Ogtp
;	COMDAT ??E?$_Tree_const_iterator@V?$_Tree_val@V?$_Tmap_traits@HPAUGAMESHOP_PACKAGE_DATA@@U?$less@H@std@@V?$allocator@U?$pair@$$CBHPAUGAMESHOP_PACKAGE_DATA@@@std@@@3@$0A@@std@@@std@@@std@@QAE?AV01@H@Z
_TEXT	SEGMENT
___$ReturnUdt$ = 8					; size = 4
___formal$ = 12						; size = 4
??E?$_Tree_const_iterator@V?$_Tree_val@V?$_Tmap_traits@HPAUGAMESHOP_PACKAGE_DATA@@U?$less@H@std@@V?$allocator@U?$pair@$$CBHPAUGAMESHOP_PACKAGE_DATA@@@std@@@3@$0A@@std@@@std@@@std@@QAE?AV01@H@Z PROC ; std::_Tree_const_iterator<std::_Tree_val<std::_Tmap_traits<int,GAMESHOP_PACKAGE_DATA *,std::less<int>,std::allocator<std::pair<int const ,GAMESHOP_PACKAGE_DATA *> >,0> > >::operator++, COMDAT
; _this$ = ecx

; 270  : 		{	// postincrement

  00000	55		 push	 ebp
  00001	8b ec		 mov	 ebp, esp

; 271  : 		_Myiter _Tmp = *this;

  00003	8b 01		 mov	 eax, DWORD PTR [ecx]
  00005	56		 push	 esi
  00006	8b 75 08	 mov	 esi, DWORD PTR ___$ReturnUdt$[ebp]
  00009	89 06		 mov	 DWORD PTR [esi], eax

; 272  : 		++*this;

  0000b	e8 00 00 00 00	 call	 ??E?$_Tree_unchecked_const_iterator@V?$_Tree_val@V?$_Tmap_traits@HPAUGAMESHOP_PACKAGE_DATA@@U?$less@H@std@@V?$allocator@U?$pair@$$CBHPAUGAMESHOP_PACKAGE_DATA@@@std@@@3@$0A@@std@@@std@@U_Iterator_base0@2@@std@@QAEAAV01@XZ ; std::_Tree_unchecked_const_iterator<std::_Tree_val<std::_Tmap_traits<int,GAMESHOP_PACKAGE_DATA *,std::less<int>,std::allocator<std::pair<int const ,GAMESHOP_PACKAGE_DATA *> >,0> >,std::_Iterator_base0>::operator++

; 273  : 		return (_Tmp);

  00010	8b c6		 mov	 eax, esi
  00012	5e		 pop	 esi

; 274  : 		}

  00013	5d		 pop	 ebp
  00014	c2 08 00	 ret	 8
??E?$_Tree_const_iterator@V?$_Tree_val@V?$_Tmap_traits@HPAUGAMESHOP_PACKAGE_DATA@@U?$less@H@std@@V?$allocator@U?$pair@$$CBHPAUGAMESHOP_PACKAGE_DATA@@@std@@@3@$0A@@std@@@std@@@std@@QAE?AV01@H@Z ENDP ; std::_Tree_const_iterator<std::_Tree_val<std::_Tmap_traits<int,GAMESHOP_PACKAGE_DATA *,std::less<int>,std::allocator<std::pair<int const ,GAMESHOP_PACKAGE_DATA *> >,0> > >::operator++
_TEXT	ENDS
PUBLIC	??$_Dest_val@V?$allocator@U?$pair@$$CBHPAUGAMESHOP_ITEM_DATA@@@std@@@std@@U?$pair@$$CBHPAUGAMESHOP_ITEM_DATA@@@2@@std@@YAXAAV?$allocator@U?$pair@$$CBHPAUGAMESHOP_ITEM_DATA@@@std@@@0@PAU?$pair@$$CBHPAUGAMESHOP_ITEM_DATA@@@0@@Z ; std::_Dest_val<std::allocator<std::pair<int const ,GAMESHOP_ITEM_DATA *> >,std::pair<int const ,GAMESHOP_ITEM_DATA *> >
; Function compile flags: /Ogtp
; File d:\program files (x86)\microsoft visual studio 10.0\vc\include\xmemory
;	COMDAT ??$_Dest_val@V?$allocator@U?$pair@$$CBHPAUGAMESHOP_ITEM_DATA@@@std@@@std@@U?$pair@$$CBHPAUGAMESHOP_ITEM_DATA@@@2@@std@@YAXAAV?$allocator@U?$pair@$$CBHPAUGAMESHOP_ITEM_DATA@@@std@@@0@PAU?$pair@$$CBHPAUGAMESHOP_ITEM_DATA@@@0@@Z
_TEXT	SEGMENT
__Alval$ = 8						; size = 4
__Pdest$ = 12						; size = 4
??$_Dest_val@V?$allocator@U?$pair@$$CBHPAUGAMESHOP_ITEM_DATA@@@std@@@std@@U?$pair@$$CBHPAUGAMESHOP_ITEM_DATA@@@2@@std@@YAXAAV?$allocator@U?$pair@$$CBHPAUGAMESHOP_ITEM_DATA@@@std@@@0@PAU?$pair@$$CBHPAUGAMESHOP_ITEM_DATA@@@0@@Z PROC ; std::_Dest_val<std::allocator<std::pair<int const ,GAMESHOP_ITEM_DATA *> >,std::pair<int const ,GAMESHOP_ITEM_DATA *> >, COMDAT

; 287  : 	_Alval.destroy(_Pdest);
; 288  : 	}

  00000	c3		 ret	 0
??$_Dest_val@V?$allocator@U?$pair@$$CBHPAUGAMESHOP_ITEM_DATA@@@std@@@std@@U?$pair@$$CBHPAUGAMESHOP_ITEM_DATA@@@2@@std@@YAXAAV?$allocator@U?$pair@$$CBHPAUGAMESHOP_ITEM_DATA@@@std@@@0@PAU?$pair@$$CBHPAUGAMESHOP_ITEM_DATA@@@0@@Z ENDP ; std::_Dest_val<std::allocator<std::pair<int const ,GAMESHOP_ITEM_DATA *> >,std::pair<int const ,GAMESHOP_ITEM_DATA *> >
_TEXT	ENDS
PUBLIC	??$_Dest_val@V?$allocator@U?$pair@$$CBHPAUGAMESHOP_PACKAGE_DATA@@@std@@@std@@U?$pair@$$CBHPAUGAMESHOP_PACKAGE_DATA@@@2@@std@@YAXAAV?$allocator@U?$pair@$$CBHPAUGAMESHOP_PACKAGE_DATA@@@std@@@0@PAU?$pair@$$CBHPAUGAMESHOP_PACKAGE_DATA@@@0@@Z ; std::_Dest_val<std::allocator<std::pair<int const ,GAMESHOP_PACKAGE_DATA *> >,std::pair<int const ,GAMESHOP_PACKAGE_DATA *> >
; Function compile flags: /Ogtp
;	COMDAT ??$_Dest_val@V?$allocator@U?$pair@$$CBHPAUGAMESHOP_PACKAGE_DATA@@@std@@@std@@U?$pair@$$CBHPAUGAMESHOP_PACKAGE_DATA@@@2@@std@@YAXAAV?$allocator@U?$pair@$$CBHPAUGAMESHOP_PACKAGE_DATA@@@std@@@0@PAU?$pair@$$CBHPAUGAMESHOP_PACKAGE_DATA@@@0@@Z
_TEXT	SEGMENT
__Alval$ = 8						; size = 4
__Pdest$ = 12						; size = 4
??$_Dest_val@V?$allocator@U?$pair@$$CBHPAUGAMESHOP_PACKAGE_DATA@@@std@@@std@@U?$pair@$$CBHPAUGAMESHOP_PACKAGE_DATA@@@2@@std@@YAXAAV?$allocator@U?$pair@$$CBHPAUGAMESHOP_PACKAGE_DATA@@@std@@@0@PAU?$pair@$$CBHPAUGAMESHOP_PACKAGE_DATA@@@0@@Z PROC ; std::_Dest_val<std::allocator<std::pair<int const ,GAMESHOP_PACKAGE_DATA *> >,std::pair<int const ,GAMESHOP_PACKAGE_DATA *> >, COMDAT

; 287  : 	_Alval.destroy(_Pdest);
; 288  : 	}

  00000	c3		 ret	 0
??$_Dest_val@V?$allocator@U?$pair@$$CBHPAUGAMESHOP_PACKAGE_DATA@@@std@@@std@@U?$pair@$$CBHPAUGAMESHOP_PACKAGE_DATA@@@2@@std@@YAXAAV?$allocator@U?$pair@$$CBHPAUGAMESHOP_PACKAGE_DATA@@@std@@@0@PAU?$pair@$$CBHPAUGAMESHOP_PACKAGE_DATA@@@0@@Z ENDP ; std::_Dest_val<std::allocator<std::pair<int const ,GAMESHOP_PACKAGE_DATA *> >,std::pair<int const ,GAMESHOP_PACKAGE_DATA *> >
_TEXT	ENDS
PUBLIC	??0?$pair@V?$_Tree_iterator@V?$_Tree_val@V?$_Tmap_traits@HPAUGAMESHOP_ITEM_DATA@@U?$less@H@std@@V?$allocator@U?$pair@$$CBHPAUGAMESHOP_ITEM_DATA@@@std@@@3@$0A@@std@@@std@@@std@@_N@std@@QAE@$$QAV?$_Tree_iterator@V?$_Tree_val@V?$_Tmap_traits@HPAUGAMESHOP_ITEM_DATA@@U?$less@H@std@@V?$allocator@U?$pair@$$CBHPAUGAMESHOP_ITEM_DATA@@@std@@@3@$0A@@std@@@std@@@1@$$QA_N@Z ; std::pair<std::_Tree_iterator<std::_Tree_val<std::_Tmap_traits<int,GAMESHOP_ITEM_DATA *,std::less<int>,std::allocator<std::pair<int const ,GAMESHOP_ITEM_DATA *> >,0> > >,bool>::pair<std::_Tree_iterator<std::_Tree_val<std::_Tmap_traits<int,GAMESHOP_ITEM_DATA *,std::less<int>,std::allocator<std::pair<int const ,GAMESHOP_ITEM_DATA *> >,0> > >,bool>
; Function compile flags: /Ogtp
; File d:\program files (x86)\microsoft visual studio 10.0\vc\include\utility
;	COMDAT ??0?$pair@V?$_Tree_iterator@V?$_Tree_val@V?$_Tmap_traits@HPAUGAMESHOP_ITEM_DATA@@U?$less@H@std@@V?$allocator@U?$pair@$$CBHPAUGAMESHOP_ITEM_DATA@@@std@@@3@$0A@@std@@@std@@@std@@_N@std@@QAE@$$QAV?$_Tree_iterator@V?$_Tree_val@V?$_Tmap_traits@HPAUGAMESHOP_ITEM_DATA@@U?$less@H@std@@V?$allocator@U?$pair@$$CBHPAUGAMESHOP_ITEM_DATA@@@std@@@3@$0A@@std@@@std@@@1@$$QA_N@Z
_TEXT	SEGMENT
__Val1$ = 8						; size = 4
__Val2$ = 12						; size = 4
??0?$pair@V?$_Tree_iterator@V?$_Tree_val@V?$_Tmap_traits@HPAUGAMESHOP_ITEM_DATA@@U?$less@H@std@@V?$allocator@U?$pair@$$CBHPAUGAMESHOP_ITEM_DATA@@@std@@@3@$0A@@std@@@std@@@std@@_N@std@@QAE@$$QAV?$_Tree_iterator@V?$_Tree_val@V?$_Tmap_traits@HPAUGAMESHOP_ITEM_DATA@@U?$less@H@std@@V?$allocator@U?$pair@$$CBHPAUGAMESHOP_ITEM_DATA@@@std@@@3@$0A@@std@@@std@@@1@$$QA_N@Z PROC ; std::pair<std::_Tree_iterator<std::_Tree_val<std::_Tmap_traits<int,GAMESHOP_ITEM_DATA *,std::less<int>,std::allocator<std::pair<int const ,GAMESHOP_ITEM_DATA *> >,0> > >,bool>::pair<std::_Tree_iterator<std::_Tree_val<std::_Tmap_traits<int,GAMESHOP_ITEM_DATA *,std::less<int>,std::allocator<std::pair<int const ,GAMESHOP_ITEM_DATA *> >,0> > >,bool>, COMDAT
; _this$ = ecx

; 227  : 		{	// construct from specified values

  00000	55		 push	 ebp
  00001	8b ec		 mov	 ebp, esp
  00003	8b c1		 mov	 eax, ecx
  00005	8b 4d 08	 mov	 ecx, DWORD PTR __Val1$[ebp]
  00008	8b 11		 mov	 edx, DWORD PTR [ecx]
  0000a	8b 4d 0c	 mov	 ecx, DWORD PTR __Val2$[ebp]
  0000d	89 10		 mov	 DWORD PTR [eax], edx
  0000f	8a 11		 mov	 dl, BYTE PTR [ecx]
  00011	88 50 04	 mov	 BYTE PTR [eax+4], dl

; 228  : 		}

  00014	5d		 pop	 ebp
  00015	c2 08 00	 ret	 8
??0?$pair@V?$_Tree_iterator@V?$_Tree_val@V?$_Tmap_traits@HPAUGAMESHOP_ITEM_DATA@@U?$less@H@std@@V?$allocator@U?$pair@$$CBHPAUGAMESHOP_ITEM_DATA@@@std@@@3@$0A@@std@@@std@@@std@@_N@std@@QAE@$$QAV?$_Tree_iterator@V?$_Tree_val@V?$_Tmap_traits@HPAUGAMESHOP_ITEM_DATA@@U?$less@H@std@@V?$allocator@U?$pair@$$CBHPAUGAMESHOP_ITEM_DATA@@@std@@@3@$0A@@std@@@std@@@1@$$QA_N@Z ENDP ; std::pair<std::_Tree_iterator<std::_Tree_val<std::_Tmap_traits<int,GAMESHOP_ITEM_DATA *,std::less<int>,std::allocator<std::pair<int const ,GAMESHOP_ITEM_DATA *> >,0> > >,bool>::pair<std::_Tree_iterator<std::_Tree_val<std::_Tmap_traits<int,GAMESHOP_ITEM_DATA *,std::less<int>,std::allocator<std::pair<int const ,GAMESHOP_ITEM_DATA *> >,0> > >,bool>
_TEXT	ENDS
PUBLIC	??F?$_Tree_iterator@V?$_Tree_val@V?$_Tmap_traits@HPAUGAMESHOP_ITEM_DATA@@U?$less@H@std@@V?$allocator@U?$pair@$$CBHPAUGAMESHOP_ITEM_DATA@@@std@@@3@$0A@@std@@@std@@@std@@QAEAAV01@XZ ; std::_Tree_iterator<std::_Tree_val<std::_Tmap_traits<int,GAMESHOP_ITEM_DATA *,std::less<int>,std::allocator<std::pair<int const ,GAMESHOP_ITEM_DATA *> >,0> > >::operator--
; Function compile flags: /Ogtp
; File d:\program files (x86)\microsoft visual studio 10.0\vc\include\xtree
;	COMDAT ??F?$_Tree_iterator@V?$_Tree_val@V?$_Tmap_traits@HPAUGAMESHOP_ITEM_DATA@@U?$less@H@std@@V?$allocator@U?$pair@$$CBHPAUGAMESHOP_ITEM_DATA@@@std@@@3@$0A@@std@@@std@@@std@@QAEAAV01@XZ
_TEXT	SEGMENT
??F?$_Tree_iterator@V?$_Tree_val@V?$_Tmap_traits@HPAUGAMESHOP_ITEM_DATA@@U?$less@H@std@@V?$allocator@U?$pair@$$CBHPAUGAMESHOP_ITEM_DATA@@@std@@@3@$0A@@std@@@std@@@std@@QAEAAV01@XZ PROC ; std::_Tree_iterator<std::_Tree_val<std::_Tmap_traits<int,GAMESHOP_ITEM_DATA *,std::less<int>,std::allocator<std::pair<int const ,GAMESHOP_ITEM_DATA *> >,0> > >::operator--, COMDAT
; _this$ = ecx

; 418  : 		{	// predecrement

  00000	56		 push	 esi
  00001	8b f1		 mov	 esi, ecx

; 419  : 		--(*(_Mybase *)this);

  00003	e8 00 00 00 00	 call	 ??F?$_Tree_unchecked_const_iterator@V?$_Tree_val@V?$_Tmap_traits@HPAUGAMESHOP_ITEM_DATA@@U?$less@H@std@@V?$allocator@U?$pair@$$CBHPAUGAMESHOP_ITEM_DATA@@@std@@@3@$0A@@std@@@std@@U_Iterator_base0@2@@std@@QAEAAV01@XZ ; std::_Tree_unchecked_const_iterator<std::_Tree_val<std::_Tmap_traits<int,GAMESHOP_ITEM_DATA *,std::less<int>,std::allocator<std::pair<int const ,GAMESHOP_ITEM_DATA *> >,0> >,std::_Iterator_base0>::operator--

; 420  : 		return (*this);

  00008	8b c6		 mov	 eax, esi
  0000a	5e		 pop	 esi

; 421  : 		}

  0000b	c3		 ret	 0
??F?$_Tree_iterator@V?$_Tree_val@V?$_Tmap_traits@HPAUGAMESHOP_ITEM_DATA@@U?$less@H@std@@V?$allocator@U?$pair@$$CBHPAUGAMESHOP_ITEM_DATA@@@std@@@3@$0A@@std@@@std@@@std@@QAEAAV01@XZ ENDP ; std::_Tree_iterator<std::_Tree_val<std::_Tmap_traits<int,GAMESHOP_ITEM_DATA *,std::less<int>,std::allocator<std::pair<int const ,GAMESHOP_ITEM_DATA *> >,0> > >::operator--
_TEXT	ENDS
PUBLIC	??0?$pair@V?$_Tree_iterator@V?$_Tree_val@V?$_Tmap_traits@HPAUGAMESHOP_PACKAGE_DATA@@U?$less@H@std@@V?$allocator@U?$pair@$$CBHPAUGAMESHOP_PACKAGE_DATA@@@std@@@3@$0A@@std@@@std@@@std@@_N@std@@QAE@$$QAV?$_Tree_iterator@V?$_Tree_val@V?$_Tmap_traits@HPAUGAMESHOP_PACKAGE_DATA@@U?$less@H@std@@V?$allocator@U?$pair@$$CBHPAUGAMESHOP_PACKAGE_DATA@@@std@@@3@$0A@@std@@@std@@@1@$$QA_N@Z ; std::pair<std::_Tree_iterator<std::_Tree_val<std::_Tmap_traits<int,GAMESHOP_PACKAGE_DATA *,std::less<int>,std::allocator<std::pair<int const ,GAMESHOP_PACKAGE_DATA *> >,0> > >,bool>::pair<std::_Tree_iterator<std::_Tree_val<std::_Tmap_traits<int,GAMESHOP_PACKAGE_DATA *,std::less<int>,std::allocator<std::pair<int const ,GAMESHOP_PACKAGE_DATA *> >,0> > >,bool>
; Function compile flags: /Ogtp
; File d:\program files (x86)\microsoft visual studio 10.0\vc\include\utility
;	COMDAT ??0?$pair@V?$_Tree_iterator@V?$_Tree_val@V?$_Tmap_traits@HPAUGAMESHOP_PACKAGE_DATA@@U?$less@H@std@@V?$allocator@U?$pair@$$CBHPAUGAMESHOP_PACKAGE_DATA@@@std@@@3@$0A@@std@@@std@@@std@@_N@std@@QAE@$$QAV?$_Tree_iterator@V?$_Tree_val@V?$_Tmap_traits@HPAUGAMESHOP_PACKAGE_DATA@@U?$less@H@std@@V?$allocator@U?$pair@$$CBHPAUGAMESHOP_PACKAGE_DATA@@@std@@@3@$0A@@std@@@std@@@1@$$QA_N@Z
_TEXT	SEGMENT
__Val1$ = 8						; size = 4
__Val2$ = 12						; size = 4
??0?$pair@V?$_Tree_iterator@V?$_Tree_val@V?$_Tmap_traits@HPAUGAMESHOP_PACKAGE_DATA@@U?$less@H@std@@V?$allocator@U?$pair@$$CBHPAUGAMESHOP_PACKAGE_DATA@@@std@@@3@$0A@@std@@@std@@@std@@_N@std@@QAE@$$QAV?$_Tree_iterator@V?$_Tree_val@V?$_Tmap_traits@HPAUGAMESHOP_PACKAGE_DATA@@U?$less@H@std@@V?$allocator@U?$pair@$$CBHPAUGAMESHOP_PACKAGE_DATA@@@std@@@3@$0A@@std@@@std@@@1@$$QA_N@Z PROC ; std::pair<std::_Tree_iterator<std::_Tree_val<std::_Tmap_traits<int,GAMESHOP_PACKAGE_DATA *,std::less<int>,std::allocator<std::pair<int const ,GAMESHOP_PACKAGE_DATA *> >,0> > >,bool>::pair<std::_Tree_iterator<std::_Tree_val<std::_Tmap_traits<int,GAMESHOP_PACKAGE_DATA *,std::less<int>,std::allocator<std::pair<int const ,GAMESHOP_PACKAGE_DATA *> >,0> > >,bool>, COMDAT
; _this$ = ecx

; 227  : 		{	// construct from specified values

  00000	55		 push	 ebp
  00001	8b ec		 mov	 ebp, esp
  00003	8b c1		 mov	 eax, ecx
  00005	8b 4d 08	 mov	 ecx, DWORD PTR __Val1$[ebp]
  00008	8b 11		 mov	 edx, DWORD PTR [ecx]
  0000a	8b 4d 0c	 mov	 ecx, DWORD PTR __Val2$[ebp]
  0000d	89 10		 mov	 DWORD PTR [eax], edx
  0000f	8a 11		 mov	 dl, BYTE PTR [ecx]
  00011	88 50 04	 mov	 BYTE PTR [eax+4], dl

; 228  : 		}

  00014	5d		 pop	 ebp
  00015	c2 08 00	 ret	 8
??0?$pair@V?$_Tree_iterator@V?$_Tree_val@V?$_Tmap_traits@HPAUGAMESHOP_PACKAGE_DATA@@U?$less@H@std@@V?$allocator@U?$pair@$$CBHPAUGAMESHOP_PACKAGE_DATA@@@std@@@3@$0A@@std@@@std@@@std@@_N@std@@QAE@$$QAV?$_Tree_iterator@V?$_Tree_val@V?$_Tmap_traits@HPAUGAMESHOP_PACKAGE_DATA@@U?$less@H@std@@V?$allocator@U?$pair@$$CBHPAUGAMESHOP_PACKAGE_DATA@@@std@@@3@$0A@@std@@@std@@@1@$$QA_N@Z ENDP ; std::pair<std::_Tree_iterator<std::_Tree_val<std::_Tmap_traits<int,GAMESHOP_PACKAGE_DATA *,std::less<int>,std::allocator<std::pair<int const ,GAMESHOP_PACKAGE_DATA *> >,0> > >,bool>::pair<std::_Tree_iterator<std::_Tree_val<std::_Tmap_traits<int,GAMESHOP_PACKAGE_DATA *,std::less<int>,std::allocator<std::pair<int const ,GAMESHOP_PACKAGE_DATA *> >,0> > >,bool>
_TEXT	ENDS
PUBLIC	??F?$_Tree_iterator@V?$_Tree_val@V?$_Tmap_traits@HPAUGAMESHOP_PACKAGE_DATA@@U?$less@H@std@@V?$allocator@U?$pair@$$CBHPAUGAMESHOP_PACKAGE_DATA@@@std@@@3@$0A@@std@@@std@@@std@@QAEAAV01@XZ ; std::_Tree_iterator<std::_Tree_val<std::_Tmap_traits<int,GAMESHOP_PACKAGE_DATA *,std::less<int>,std::allocator<std::pair<int const ,GAMESHOP_PACKAGE_DATA *> >,0> > >::operator--
; Function compile flags: /Ogtp
; File d:\program files (x86)\microsoft visual studio 10.0\vc\include\xtree
;	COMDAT ??F?$_Tree_iterator@V?$_Tree_val@V?$_Tmap_traits@HPAUGAMESHOP_PACKAGE_DATA@@U?$less@H@std@@V?$allocator@U?$pair@$$CBHPAUGAMESHOP_PACKAGE_DATA@@@std@@@3@$0A@@std@@@std@@@std@@QAEAAV01@XZ
_TEXT	SEGMENT
??F?$_Tree_iterator@V?$_Tree_val@V?$_Tmap_traits@HPAUGAMESHOP_PACKAGE_DATA@@U?$less@H@std@@V?$allocator@U?$pair@$$CBHPAUGAMESHOP_PACKAGE_DATA@@@std@@@3@$0A@@std@@@std@@@std@@QAEAAV01@XZ PROC ; std::_Tree_iterator<std::_Tree_val<std::_Tmap_traits<int,GAMESHOP_PACKAGE_DATA *,std::less<int>,std::allocator<std::pair<int const ,GAMESHOP_PACKAGE_DATA *> >,0> > >::operator--, COMDAT
; _this$ = ecx

; 418  : 		{	// predecrement

  00000	56		 push	 esi
  00001	8b f1		 mov	 esi, ecx

; 419  : 		--(*(_Mybase *)this);

  00003	e8 00 00 00 00	 call	 ??F?$_Tree_unchecked_const_iterator@V?$_Tree_val@V?$_Tmap_traits@HPAUGAMESHOP_PACKAGE_DATA@@U?$less@H@std@@V?$allocator@U?$pair@$$CBHPAUGAMESHOP_PACKAGE_DATA@@@std@@@3@$0A@@std@@@std@@U_Iterator_base0@2@@std@@QAEAAV01@XZ ; std::_Tree_unchecked_const_iterator<std::_Tree_val<std::_Tmap_traits<int,GAMESHOP_PACKAGE_DATA *,std::less<int>,std::allocator<std::pair<int const ,GAMESHOP_PACKAGE_DATA *> >,0> >,std::_Iterator_base0>::operator--

; 420  : 		return (*this);

  00008	8b c6		 mov	 eax, esi
  0000a	5e		 pop	 esi

; 421  : 		}

  0000b	c3		 ret	 0
??F?$_Tree_iterator@V?$_Tree_val@V?$_Tmap_traits@HPAUGAMESHOP_PACKAGE_DATA@@U?$less@H@std@@V?$allocator@U?$pair@$$CBHPAUGAMESHOP_PACKAGE_DATA@@@std@@@3@$0A@@std@@@std@@@std@@QAEAAV01@XZ ENDP ; std::_Tree_iterator<std::_Tree_val<std::_Tmap_traits<int,GAMESHOP_PACKAGE_DATA *,std::less<int>,std::allocator<std::pair<int const ,GAMESHOP_PACKAGE_DATA *> >,0> > >::operator--
_TEXT	ENDS
PUBLIC	?_Buynode@?$_Tree_val@V?$_Tmap_traits@HPAUGAMESHOP_ITEM_DATA@@U?$less@H@std@@V?$allocator@U?$pair@$$CBHPAUGAMESHOP_ITEM_DATA@@@std@@@3@$0A@@std@@@std@@QAEPAU_Node@?$_Tree_nod@V?$_Tmap_traits@HPAUGAMESHOP_ITEM_DATA@@U?$less@H@std@@V?$allocator@U?$pair@$$CBHPAUGAMESHOP_ITEM_DATA@@@std@@@3@$0A@@std@@@2@XZ ; std::_Tree_val<std::_Tmap_traits<int,GAMESHOP_ITEM_DATA *,std::less<int>,std::allocator<std::pair<int const ,GAMESHOP_ITEM_DATA *> >,0> >::_Buynode
; Function compile flags: /Ogtp
;	COMDAT ?_Buynode@?$_Tree_val@V?$_Tmap_traits@HPAUGAMESHOP_ITEM_DATA@@U?$less@H@std@@V?$allocator@U?$pair@$$CBHPAUGAMESHOP_ITEM_DATA@@@std@@@3@$0A@@std@@@std@@QAEPAU_Node@?$_Tree_nod@V?$_Tmap_traits@HPAUGAMESHOP_ITEM_DATA@@U?$less@H@std@@V?$allocator@U?$pair@$$CBHPAUGAMESHOP_ITEM_DATA@@@std@@@3@$0A@@std@@@2@XZ
_TEXT	SEGMENT
$T216629 = -16						; size = 12
$T216613 = -4						; size = 4
?_Buynode@?$_Tree_val@V?$_Tmap_traits@HPAUGAMESHOP_ITEM_DATA@@U?$less@H@std@@V?$allocator@U?$pair@$$CBHPAUGAMESHOP_ITEM_DATA@@@std@@@3@$0A@@std@@@std@@QAEPAU_Node@?$_Tree_nod@V?$_Tmap_traits@HPAUGAMESHOP_ITEM_DATA@@U?$less@H@std@@V?$allocator@U?$pair@$$CBHPAUGAMESHOP_ITEM_DATA@@@std@@@3@$0A@@std@@@2@XZ PROC ; std::_Tree_val<std::_Tmap_traits<int,GAMESHOP_ITEM_DATA *,std::less<int>,std::allocator<std::pair<int const ,GAMESHOP_ITEM_DATA *> >,0> >::_Buynode, COMDAT
; _this$ = ecx

; 559  : 		{	// allocate a node

  00000	55		 push	 ebp
  00001	8b ec		 mov	 ebp, esp
  00003	83 ec 10	 sub	 esp, 16			; 00000010H
  00006	56		 push	 esi

; 560  : 		_Nodeptr _Wherenode = this->_Alnod.allocate(1);

  00007	6a 18		 push	 24			; 00000018H
  00009	8b f1		 mov	 esi, ecx
  0000b	e8 00 00 00 00	 call	 ??2@YAPAXI@Z		; operator new
  00010	33 c9		 xor	 ecx, ecx
  00012	83 c4 04	 add	 esp, 4
  00015	3b c1		 cmp	 eax, ecx
  00017	74 1a		 je	 SHORT $LN5@Buynode

; 561  : 
; 562  : 		this->_Left(_Wherenode) = this->_Myhead;

  00019	8b 56 04	 mov	 edx, DWORD PTR [esi+4]
  0001c	89 10		 mov	 DWORD PTR [eax], edx

; 563  : 		this->_Parent(_Wherenode) = this->_Myhead;

  0001e	8b 56 04	 mov	 edx, DWORD PTR [esi+4]
  00021	89 50 04	 mov	 DWORD PTR [eax+4], edx

; 564  : 		this->_Right(_Wherenode) = this->_Myhead;

  00024	8b 56 04	 mov	 edx, DWORD PTR [esi+4]
  00027	89 50 08	 mov	 DWORD PTR [eax+8], edx

; 565  : 		this->_Color(_Wherenode) = this->_Red;

  0002a	66 89 48 14	 mov	 WORD PTR [eax+20], cx
  0002e	5e		 pop	 esi

; 566  : 		this->_Isnil(_Wherenode) = false;
; 567  : 		return (_Wherenode);
; 568  : 		}

  0002f	8b e5		 mov	 esp, ebp
  00031	5d		 pop	 ebp
  00032	c3		 ret	 0

; 560  : 		_Nodeptr _Wherenode = this->_Alnod.allocate(1);

$LN5@Buynode:
  00033	8d 45 fc	 lea	 eax, DWORD PTR $T216613[ebp]
  00036	89 4d fc	 mov	 DWORD PTR $T216613[ebp], ecx
  00039	50		 push	 eax
  0003a	8d 4d f0	 lea	 ecx, DWORD PTR $T216629[ebp]
  0003d	e8 00 00 00 00	 call	 ??0exception@std@@QAE@ABQBD@Z ; std::exception::exception
  00042	68 00 00 00 00	 push	 OFFSET __TI2?AVbad_alloc@std@@
  00047	8d 4d f0	 lea	 ecx, DWORD PTR $T216629[ebp]
  0004a	51		 push	 ecx
  0004b	c7 45 f0 00 00
	00 00		 mov	 DWORD PTR $T216629[ebp], OFFSET ??_7bad_alloc@std@@6B@
  00052	e8 00 00 00 00	 call	 __CxxThrowException@8
$LN27@Buynode:
$LN26@Buynode:
  00057	cc		 int	 3
?_Buynode@?$_Tree_val@V?$_Tmap_traits@HPAUGAMESHOP_ITEM_DATA@@U?$less@H@std@@V?$allocator@U?$pair@$$CBHPAUGAMESHOP_ITEM_DATA@@@std@@@3@$0A@@std@@@std@@QAEPAU_Node@?$_Tree_nod@V?$_Tmap_traits@HPAUGAMESHOP_ITEM_DATA@@U?$less@H@std@@V?$allocator@U?$pair@$$CBHPAUGAMESHOP_ITEM_DATA@@@std@@@3@$0A@@std@@@2@XZ ENDP ; std::_Tree_val<std::_Tmap_traits<int,GAMESHOP_ITEM_DATA *,std::less<int>,std::allocator<std::pair<int const ,GAMESHOP_ITEM_DATA *> >,0> >::_Buynode
_TEXT	ENDS
PUBLIC	?_Buynode@?$_Tree_val@V?$_Tmap_traits@HPAUGAMESHOP_PACKAGE_DATA@@U?$less@H@std@@V?$allocator@U?$pair@$$CBHPAUGAMESHOP_PACKAGE_DATA@@@std@@@3@$0A@@std@@@std@@QAEPAU_Node@?$_Tree_nod@V?$_Tmap_traits@HPAUGAMESHOP_PACKAGE_DATA@@U?$less@H@std@@V?$allocator@U?$pair@$$CBHPAUGAMESHOP_PACKAGE_DATA@@@std@@@3@$0A@@std@@@2@XZ ; std::_Tree_val<std::_Tmap_traits<int,GAMESHOP_PACKAGE_DATA *,std::less<int>,std::allocator<std::pair<int const ,GAMESHOP_PACKAGE_DATA *> >,0> >::_Buynode
; Function compile flags: /Ogtp
;	COMDAT ?_Buynode@?$_Tree_val@V?$_Tmap_traits@HPAUGAMESHOP_PACKAGE_DATA@@U?$less@H@std@@V?$allocator@U?$pair@$$CBHPAUGAMESHOP_PACKAGE_DATA@@@std@@@3@$0A@@std@@@std@@QAEPAU_Node@?$_Tree_nod@V?$_Tmap_traits@HPAUGAMESHOP_PACKAGE_DATA@@U?$less@H@std@@V?$allocator@U?$pair@$$CBHPAUGAMESHOP_PACKAGE_DATA@@@std@@@3@$0A@@std@@@2@XZ
_TEXT	SEGMENT
$T216682 = -16						; size = 12
$T216666 = -4						; size = 4
?_Buynode@?$_Tree_val@V?$_Tmap_traits@HPAUGAMESHOP_PACKAGE_DATA@@U?$less@H@std@@V?$allocator@U?$pair@$$CBHPAUGAMESHOP_PACKAGE_DATA@@@std@@@3@$0A@@std@@@std@@QAEPAU_Node@?$_Tree_nod@V?$_Tmap_traits@HPAUGAMESHOP_PACKAGE_DATA@@U?$less@H@std@@V?$allocator@U?$pair@$$CBHPAUGAMESHOP_PACKAGE_DATA@@@std@@@3@$0A@@std@@@2@XZ PROC ; std::_Tree_val<std::_Tmap_traits<int,GAMESHOP_PACKAGE_DATA *,std::less<int>,std::allocator<std::pair<int const ,GAMESHOP_PACKAGE_DATA *> >,0> >::_Buynode, COMDAT
; _this$ = ecx

; 559  : 		{	// allocate a node

  00000	55		 push	 ebp
  00001	8b ec		 mov	 ebp, esp
  00003	83 ec 10	 sub	 esp, 16			; 00000010H
  00006	56		 push	 esi

; 560  : 		_Nodeptr _Wherenode = this->_Alnod.allocate(1);

  00007	6a 18		 push	 24			; 00000018H
  00009	8b f1		 mov	 esi, ecx
  0000b	e8 00 00 00 00	 call	 ??2@YAPAXI@Z		; operator new
  00010	33 c9		 xor	 ecx, ecx
  00012	83 c4 04	 add	 esp, 4
  00015	3b c1		 cmp	 eax, ecx
  00017	74 1a		 je	 SHORT $LN5@Buynode@2

; 561  : 
; 562  : 		this->_Left(_Wherenode) = this->_Myhead;

  00019	8b 56 04	 mov	 edx, DWORD PTR [esi+4]
  0001c	89 10		 mov	 DWORD PTR [eax], edx

; 563  : 		this->_Parent(_Wherenode) = this->_Myhead;

  0001e	8b 56 04	 mov	 edx, DWORD PTR [esi+4]
  00021	89 50 04	 mov	 DWORD PTR [eax+4], edx

; 564  : 		this->_Right(_Wherenode) = this->_Myhead;

  00024	8b 56 04	 mov	 edx, DWORD PTR [esi+4]
  00027	89 50 08	 mov	 DWORD PTR [eax+8], edx

; 565  : 		this->_Color(_Wherenode) = this->_Red;

  0002a	66 89 48 14	 mov	 WORD PTR [eax+20], cx
  0002e	5e		 pop	 esi

; 566  : 		this->_Isnil(_Wherenode) = false;
; 567  : 		return (_Wherenode);
; 568  : 		}

  0002f	8b e5		 mov	 esp, ebp
  00031	5d		 pop	 ebp
  00032	c3		 ret	 0

; 560  : 		_Nodeptr _Wherenode = this->_Alnod.allocate(1);

$LN5@Buynode@2:
  00033	8d 45 fc	 lea	 eax, DWORD PTR $T216666[ebp]
  00036	89 4d fc	 mov	 DWORD PTR $T216666[ebp], ecx
  00039	50		 push	 eax
  0003a	8d 4d f0	 lea	 ecx, DWORD PTR $T216682[ebp]
  0003d	e8 00 00 00 00	 call	 ??0exception@std@@QAE@ABQBD@Z ; std::exception::exception
  00042	68 00 00 00 00	 push	 OFFSET __TI2?AVbad_alloc@std@@
  00047	8d 4d f0	 lea	 ecx, DWORD PTR $T216682[ebp]
  0004a	51		 push	 ecx
  0004b	c7 45 f0 00 00
	00 00		 mov	 DWORD PTR $T216682[ebp], OFFSET ??_7bad_alloc@std@@6B@
  00052	e8 00 00 00 00	 call	 __CxxThrowException@8
$LN27@Buynode@2:
$LN26@Buynode@2:
  00057	cc		 int	 3
?_Buynode@?$_Tree_val@V?$_Tmap_traits@HPAUGAMESHOP_PACKAGE_DATA@@U?$less@H@std@@V?$allocator@U?$pair@$$CBHPAUGAMESHOP_PACKAGE_DATA@@@std@@@3@$0A@@std@@@std@@QAEPAU_Node@?$_Tree_nod@V?$_Tmap_traits@HPAUGAMESHOP_PACKAGE_DATA@@U?$less@H@std@@V?$allocator@U?$pair@$$CBHPAUGAMESHOP_PACKAGE_DATA@@@std@@@3@$0A@@std@@@2@XZ ENDP ; std::_Tree_val<std::_Tmap_traits<int,GAMESHOP_PACKAGE_DATA *,std::less<int>,std::allocator<std::pair<int const ,GAMESHOP_PACKAGE_DATA *> >,0> >::_Buynode
_TEXT	ENDS
PUBLIC	??$construct@U?$pair@HPAUGAMESHOP_ITEM_DATA@@@std@@@?$allocator@U?$pair@$$CBHPAUGAMESHOP_ITEM_DATA@@@std@@@std@@QAEXPAU?$pair@$$CBHPAUGAMESHOP_ITEM_DATA@@@1@$$QAU?$pair@HPAUGAMESHOP_ITEM_DATA@@@1@@Z ; std::allocator<std::pair<int const ,GAMESHOP_ITEM_DATA *> >::construct<std::pair<int,GAMESHOP_ITEM_DATA *> >
; Function compile flags: /Ogtp
; File d:\program files (x86)\microsoft visual studio 10.0\vc\include\xmemory
;	COMDAT ??$construct@U?$pair@HPAUGAMESHOP_ITEM_DATA@@@std@@@?$allocator@U?$pair@$$CBHPAUGAMESHOP_ITEM_DATA@@@std@@@std@@QAEXPAU?$pair@$$CBHPAUGAMESHOP_ITEM_DATA@@@1@$$QAU?$pair@HPAUGAMESHOP_ITEM_DATA@@@1@@Z
_TEXT	SEGMENT
__Ptr$ = 8						; size = 4
__Val$ = 12						; size = 4
??$construct@U?$pair@HPAUGAMESHOP_ITEM_DATA@@@std@@@?$allocator@U?$pair@$$CBHPAUGAMESHOP_ITEM_DATA@@@std@@@std@@QAEXPAU?$pair@$$CBHPAUGAMESHOP_ITEM_DATA@@@1@$$QAU?$pair@HPAUGAMESHOP_ITEM_DATA@@@1@@Z PROC ; std::allocator<std::pair<int const ,GAMESHOP_ITEM_DATA *> >::construct<std::pair<int,GAMESHOP_ITEM_DATA *> >, COMDAT
; _this$ = ecx

; 206  : 		void construct(pointer _Ptr, _Other&& _Val)

  00000	55		 push	 ebp
  00001	8b ec		 mov	 ebp, esp

; 207  : 		{	// construct object at _Ptr with value _Val
; 208  : 		::new ((void _FARQ *)_Ptr) _Ty(_STD forward<_Other>(_Val));

  00003	8b 45 08	 mov	 eax, DWORD PTR __Ptr$[ebp]
  00006	85 c0		 test	 eax, eax
  00008	74 0d		 je	 SHORT $LN3@construct
  0000a	8b 4d 0c	 mov	 ecx, DWORD PTR __Val$[ebp]
  0000d	8b 11		 mov	 edx, DWORD PTR [ecx]
  0000f	89 10		 mov	 DWORD PTR [eax], edx
  00011	8b 49 04	 mov	 ecx, DWORD PTR [ecx+4]
  00014	89 48 04	 mov	 DWORD PTR [eax+4], ecx
$LN3@construct:

; 209  : 		}

  00017	5d		 pop	 ebp
  00018	c2 08 00	 ret	 8
??$construct@U?$pair@HPAUGAMESHOP_ITEM_DATA@@@std@@@?$allocator@U?$pair@$$CBHPAUGAMESHOP_ITEM_DATA@@@std@@@std@@QAEXPAU?$pair@$$CBHPAUGAMESHOP_ITEM_DATA@@@1@$$QAU?$pair@HPAUGAMESHOP_ITEM_DATA@@@1@@Z ENDP ; std::allocator<std::pair<int const ,GAMESHOP_ITEM_DATA *> >::construct<std::pair<int,GAMESHOP_ITEM_DATA *> >
_TEXT	ENDS
PUBLIC	??$construct@U?$pair@HPAUGAMESHOP_PACKAGE_DATA@@@std@@@?$allocator@U?$pair@$$CBHPAUGAMESHOP_PACKAGE_DATA@@@std@@@std@@QAEXPAU?$pair@$$CBHPAUGAMESHOP_PACKAGE_DATA@@@1@$$QAU?$pair@HPAUGAMESHOP_PACKAGE_DATA@@@1@@Z ; std::allocator<std::pair<int const ,GAMESHOP_PACKAGE_DATA *> >::construct<std::pair<int,GAMESHOP_PACKAGE_DATA *> >
; Function compile flags: /Ogtp
;	COMDAT ??$construct@U?$pair@HPAUGAMESHOP_PACKAGE_DATA@@@std@@@?$allocator@U?$pair@$$CBHPAUGAMESHOP_PACKAGE_DATA@@@std@@@std@@QAEXPAU?$pair@$$CBHPAUGAMESHOP_PACKAGE_DATA@@@1@$$QAU?$pair@HPAUGAMESHOP_PACKAGE_DATA@@@1@@Z
_TEXT	SEGMENT
__Ptr$ = 8						; size = 4
__Val$ = 12						; size = 4
??$construct@U?$pair@HPAUGAMESHOP_PACKAGE_DATA@@@std@@@?$allocator@U?$pair@$$CBHPAUGAMESHOP_PACKAGE_DATA@@@std@@@std@@QAEXPAU?$pair@$$CBHPAUGAMESHOP_PACKAGE_DATA@@@1@$$QAU?$pair@HPAUGAMESHOP_PACKAGE_DATA@@@1@@Z PROC ; std::allocator<std::pair<int const ,GAMESHOP_PACKAGE_DATA *> >::construct<std::pair<int,GAMESHOP_PACKAGE_DATA *> >, COMDAT
; _this$ = ecx

; 206  : 		void construct(pointer _Ptr, _Other&& _Val)

  00000	55		 push	 ebp
  00001	8b ec		 mov	 ebp, esp

; 207  : 		{	// construct object at _Ptr with value _Val
; 208  : 		::new ((void _FARQ *)_Ptr) _Ty(_STD forward<_Other>(_Val));

  00003	8b 45 08	 mov	 eax, DWORD PTR __Ptr$[ebp]
  00006	85 c0		 test	 eax, eax
  00008	74 0d		 je	 SHORT $LN3@construct@2
  0000a	8b 4d 0c	 mov	 ecx, DWORD PTR __Val$[ebp]
  0000d	8b 11		 mov	 edx, DWORD PTR [ecx]
  0000f	89 10		 mov	 DWORD PTR [eax], edx
  00011	8b 49 04	 mov	 ecx, DWORD PTR [ecx+4]
  00014	89 48 04	 mov	 DWORD PTR [eax+4], ecx
$LN3@construct@2:

; 209  : 		}

  00017	5d		 pop	 ebp
  00018	c2 08 00	 ret	 8
??$construct@U?$pair@HPAUGAMESHOP_PACKAGE_DATA@@@std@@@?$allocator@U?$pair@$$CBHPAUGAMESHOP_PACKAGE_DATA@@@std@@@std@@QAEXPAU?$pair@$$CBHPAUGAMESHOP_PACKAGE_DATA@@@1@$$QAU?$pair@HPAUGAMESHOP_PACKAGE_DATA@@@1@@Z ENDP ; std::allocator<std::pair<int const ,GAMESHOP_PACKAGE_DATA *> >::construct<std::pair<int,GAMESHOP_PACKAGE_DATA *> >
_TEXT	ENDS
PUBLIC	??$?0$$CBHPAUGAMESHOP_PACKAGE_DATA@@@?$pair@$$CBHPAUGAMESHOP_PACKAGE_DATA@@@std@@QAE@$$QAU01@@Z ; std::pair<int const ,GAMESHOP_PACKAGE_DATA *>::pair<int const ,GAMESHOP_PACKAGE_DATA *><int const ,GAMESHOP_PACKAGE_DATA *>
; Function compile flags: /Ogtp
; File d:\program files (x86)\microsoft visual studio 10.0\vc\include\utility
;	COMDAT ??$?0$$CBHPAUGAMESHOP_PACKAGE_DATA@@@?$pair@$$CBHPAUGAMESHOP_PACKAGE_DATA@@@std@@QAE@$$QAU01@@Z
_TEXT	SEGMENT
__Right$ = 8						; size = 4
??$?0$$CBHPAUGAMESHOP_PACKAGE_DATA@@@?$pair@$$CBHPAUGAMESHOP_PACKAGE_DATA@@@std@@QAE@$$QAU01@@Z PROC ; std::pair<int const ,GAMESHOP_PACKAGE_DATA *>::pair<int const ,GAMESHOP_PACKAGE_DATA *><int const ,GAMESHOP_PACKAGE_DATA *>, COMDAT
; _this$ = ecx

; 255  : 		{	// construct from moved compatible pair

  00000	55		 push	 ebp
  00001	8b ec		 mov	 ebp, esp
  00003	8b c1		 mov	 eax, ecx
  00005	8b 4d 08	 mov	 ecx, DWORD PTR __Right$[ebp]
  00008	8b 11		 mov	 edx, DWORD PTR [ecx]
  0000a	89 10		 mov	 DWORD PTR [eax], edx
  0000c	8b 49 04	 mov	 ecx, DWORD PTR [ecx+4]
  0000f	89 48 04	 mov	 DWORD PTR [eax+4], ecx

; 256  : 		}

  00012	5d		 pop	 ebp
  00013	c2 04 00	 ret	 4
??$?0$$CBHPAUGAMESHOP_PACKAGE_DATA@@@?$pair@$$CBHPAUGAMESHOP_PACKAGE_DATA@@@std@@QAE@$$QAU01@@Z ENDP ; std::pair<int const ,GAMESHOP_PACKAGE_DATA *>::pair<int const ,GAMESHOP_PACKAGE_DATA *><int const ,GAMESHOP_PACKAGE_DATA *>
_TEXT	ENDS
PUBLIC	?_Erase@?$_Tree@V?$_Tmap_traits@HPAUGAMESHOP_ITEM_DATA@@U?$less@H@std@@V?$allocator@U?$pair@$$CBHPAUGAMESHOP_ITEM_DATA@@@std@@@3@$0A@@std@@@std@@IAEXPAU_Node@?$_Tree_nod@V?$_Tmap_traits@HPAUGAMESHOP_ITEM_DATA@@U?$less@H@std@@V?$allocator@U?$pair@$$CBHPAUGAMESHOP_ITEM_DATA@@@std@@@3@$0A@@std@@@2@@Z ; std::_Tree<std::_Tmap_traits<int,GAMESHOP_ITEM_DATA *,std::less<int>,std::allocator<std::pair<int const ,GAMESHOP_ITEM_DATA *> >,0> >::_Erase
; Function compile flags: /Ogtp
; File d:\program files (x86)\microsoft visual studio 10.0\vc\include\xtree
;	COMDAT ?_Erase@?$_Tree@V?$_Tmap_traits@HPAUGAMESHOP_ITEM_DATA@@U?$less@H@std@@V?$allocator@U?$pair@$$CBHPAUGAMESHOP_ITEM_DATA@@@std@@@3@$0A@@std@@@std@@IAEXPAU_Node@?$_Tree_nod@V?$_Tmap_traits@HPAUGAMESHOP_ITEM_DATA@@U?$less@H@std@@V?$allocator@U?$pair@$$CBHPAUGAMESHOP_ITEM_DATA@@@std@@@3@$0A@@std@@@2@@Z
_TEXT	SEGMENT
__Rootnode$ = 8						; size = 4
?_Erase@?$_Tree@V?$_Tmap_traits@HPAUGAMESHOP_ITEM_DATA@@U?$less@H@std@@V?$allocator@U?$pair@$$CBHPAUGAMESHOP_ITEM_DATA@@@std@@@3@$0A@@std@@@std@@IAEXPAU_Node@?$_Tree_nod@V?$_Tmap_traits@HPAUGAMESHOP_ITEM_DATA@@U?$less@H@std@@V?$allocator@U?$pair@$$CBHPAUGAMESHOP_ITEM_DATA@@@std@@@3@$0A@@std@@@2@@Z PROC ; std::_Tree<std::_Tmap_traits<int,GAMESHOP_ITEM_DATA *,std::less<int>,std::allocator<std::pair<int const ,GAMESHOP_ITEM_DATA *> >,0> >::_Erase, COMDAT
; _this$ = ecx

; 1610 : 		{	// free entire subtree, recursively

  00000	55		 push	 ebp
  00001	8b ec		 mov	 ebp, esp
  00003	53		 push	 ebx
  00004	56		 push	 esi
  00005	57		 push	 edi

; 1611 : 		for (_Nodeptr _Pnode = _Rootnode;

  00006	8b 7d 08	 mov	 edi, DWORD PTR __Rootnode$[ebp]

; 1612 : 			!this->_Isnil(_Pnode); _Rootnode = _Pnode)

  00009	80 7f 15 00	 cmp	 BYTE PTR [edi+21], 0
  0000d	8b d9		 mov	 ebx, ecx
  0000f	8b f7		 mov	 esi, edi
  00011	75 1e		 jne	 SHORT $LN1@Erase
$LL3@Erase:

; 1613 : 			{	// free subtrees, then node
; 1614 : 			_Erase(this->_Right(_Pnode));

  00013	8b 46 08	 mov	 eax, DWORD PTR [esi+8]
  00016	50		 push	 eax
  00017	8b cb		 mov	 ecx, ebx
  00019	e8 00 00 00 00	 call	 ?_Erase@?$_Tree@V?$_Tmap_traits@HPAUGAMESHOP_ITEM_DATA@@U?$less@H@std@@V?$allocator@U?$pair@$$CBHPAUGAMESHOP_ITEM_DATA@@@std@@@3@$0A@@std@@@std@@IAEXPAU_Node@?$_Tree_nod@V?$_Tmap_traits@HPAUGAMESHOP_ITEM_DATA@@U?$less@H@std@@V?$allocator@U?$pair@$$CBHPAUGAMESHOP_ITEM_DATA@@@std@@@3@$0A@@std@@@2@@Z ; std::_Tree<std::_Tmap_traits<int,GAMESHOP_ITEM_DATA *,std::less<int>,std::allocator<std::pair<int const ,GAMESHOP_ITEM_DATA *> >,0> >::_Erase

; 1615 : 			_Pnode = this->_Left(_Pnode);

  0001e	8b 36		 mov	 esi, DWORD PTR [esi]

; 1616 : 			_Dest_val(this->_Alval,
; 1617 : 				_STD addressof(this->_Myval(_Rootnode)));
; 1618 : 
; 1619 : 			this->_Alnod.deallocate(_Rootnode, 1);

  00020	57		 push	 edi
  00021	e8 00 00 00 00	 call	 ??3@YAXPAX@Z		; operator delete
  00026	83 c4 04	 add	 esp, 4
  00029	80 7e 15 00	 cmp	 BYTE PTR [esi+21], 0
  0002d	8b fe		 mov	 edi, esi
  0002f	74 e2		 je	 SHORT $LL3@Erase
$LN1@Erase:
  00031	5f		 pop	 edi
  00032	5e		 pop	 esi
  00033	5b		 pop	 ebx

; 1620 : 			}
; 1621 : 		}

  00034	5d		 pop	 ebp
  00035	c2 04 00	 ret	 4
?_Erase@?$_Tree@V?$_Tmap_traits@HPAUGAMESHOP_ITEM_DATA@@U?$less@H@std@@V?$allocator@U?$pair@$$CBHPAUGAMESHOP_ITEM_DATA@@@std@@@3@$0A@@std@@@std@@IAEXPAU_Node@?$_Tree_nod@V?$_Tmap_traits@HPAUGAMESHOP_ITEM_DATA@@U?$less@H@std@@V?$allocator@U?$pair@$$CBHPAUGAMESHOP_ITEM_DATA@@@std@@@3@$0A@@std@@@2@@Z ENDP ; std::_Tree<std::_Tmap_traits<int,GAMESHOP_ITEM_DATA *,std::less<int>,std::allocator<std::pair<int const ,GAMESHOP_ITEM_DATA *> >,0> >::_Erase
_TEXT	ENDS
PUBLIC	?_Erase@?$_Tree@V?$_Tmap_traits@HPAUGAMESHOP_PACKAGE_DATA@@U?$less@H@std@@V?$allocator@U?$pair@$$CBHPAUGAMESHOP_PACKAGE_DATA@@@std@@@3@$0A@@std@@@std@@IAEXPAU_Node@?$_Tree_nod@V?$_Tmap_traits@HPAUGAMESHOP_PACKAGE_DATA@@U?$less@H@std@@V?$allocator@U?$pair@$$CBHPAUGAMESHOP_PACKAGE_DATA@@@std@@@3@$0A@@std@@@2@@Z ; std::_Tree<std::_Tmap_traits<int,GAMESHOP_PACKAGE_DATA *,std::less<int>,std::allocator<std::pair<int const ,GAMESHOP_PACKAGE_DATA *> >,0> >::_Erase
; Function compile flags: /Ogtp
;	COMDAT ?_Erase@?$_Tree@V?$_Tmap_traits@HPAUGAMESHOP_PACKAGE_DATA@@U?$less@H@std@@V?$allocator@U?$pair@$$CBHPAUGAMESHOP_PACKAGE_DATA@@@std@@@3@$0A@@std@@@std@@IAEXPAU_Node@?$_Tree_nod@V?$_Tmap_traits@HPAUGAMESHOP_PACKAGE_DATA@@U?$less@H@std@@V?$allocator@U?$pair@$$CBHPAUGAMESHOP_PACKAGE_DATA@@@std@@@3@$0A@@std@@@2@@Z
_TEXT	SEGMENT
__Rootnode$ = 8						; size = 4
?_Erase@?$_Tree@V?$_Tmap_traits@HPAUGAMESHOP_PACKAGE_DATA@@U?$less@H@std@@V?$allocator@U?$pair@$$CBHPAUGAMESHOP_PACKAGE_DATA@@@std@@@3@$0A@@std@@@std@@IAEXPAU_Node@?$_Tree_nod@V?$_Tmap_traits@HPAUGAMESHOP_PACKAGE_DATA@@U?$less@H@std@@V?$allocator@U?$pair@$$CBHPAUGAMESHOP_PACKAGE_DATA@@@std@@@3@$0A@@std@@@2@@Z PROC ; std::_Tree<std::_Tmap_traits<int,GAMESHOP_PACKAGE_DATA *,std::less<int>,std::allocator<std::pair<int const ,GAMESHOP_PACKAGE_DATA *> >,0> >::_Erase, COMDAT
; _this$ = ecx

; 1610 : 		{	// free entire subtree, recursively

  00000	55		 push	 ebp
  00001	8b ec		 mov	 ebp, esp
  00003	53		 push	 ebx
  00004	56		 push	 esi
  00005	57		 push	 edi

; 1611 : 		for (_Nodeptr _Pnode = _Rootnode;

  00006	8b 7d 08	 mov	 edi, DWORD PTR __Rootnode$[ebp]

; 1612 : 			!this->_Isnil(_Pnode); _Rootnode = _Pnode)

  00009	80 7f 15 00	 cmp	 BYTE PTR [edi+21], 0
  0000d	8b d9		 mov	 ebx, ecx
  0000f	8b f7		 mov	 esi, edi
  00011	75 1e		 jne	 SHORT $LN1@Erase@2
$LL3@Erase@2:

; 1613 : 			{	// free subtrees, then node
; 1614 : 			_Erase(this->_Right(_Pnode));

  00013	8b 46 08	 mov	 eax, DWORD PTR [esi+8]
  00016	50		 push	 eax
  00017	8b cb		 mov	 ecx, ebx
  00019	e8 00 00 00 00	 call	 ?_Erase@?$_Tree@V?$_Tmap_traits@HPAUGAMESHOP_PACKAGE_DATA@@U?$less@H@std@@V?$allocator@U?$pair@$$CBHPAUGAMESHOP_PACKAGE_DATA@@@std@@@3@$0A@@std@@@std@@IAEXPAU_Node@?$_Tree_nod@V?$_Tmap_traits@HPAUGAMESHOP_PACKAGE_DATA@@U?$less@H@std@@V?$allocator@U?$pair@$$CBHPAUGAMESHOP_PACKAGE_DATA@@@std@@@3@$0A@@std@@@2@@Z ; std::_Tree<std::_Tmap_traits<int,GAMESHOP_PACKAGE_DATA *,std::less<int>,std::allocator<std::pair<int const ,GAMESHOP_PACKAGE_DATA *> >,0> >::_Erase

; 1615 : 			_Pnode = this->_Left(_Pnode);

  0001e	8b 36		 mov	 esi, DWORD PTR [esi]

; 1616 : 			_Dest_val(this->_Alval,
; 1617 : 				_STD addressof(this->_Myval(_Rootnode)));
; 1618 : 
; 1619 : 			this->_Alnod.deallocate(_Rootnode, 1);

  00020	57		 push	 edi
  00021	e8 00 00 00 00	 call	 ??3@YAXPAX@Z		; operator delete
  00026	83 c4 04	 add	 esp, 4
  00029	80 7e 15 00	 cmp	 BYTE PTR [esi+21], 0
  0002d	8b fe		 mov	 edi, esi
  0002f	74 e2		 je	 SHORT $LL3@Erase@2
$LN1@Erase@2:
  00031	5f		 pop	 edi
  00032	5e		 pop	 esi
  00033	5b		 pop	 ebx

; 1620 : 			}
; 1621 : 		}

  00034	5d		 pop	 ebp
  00035	c2 04 00	 ret	 4
?_Erase@?$_Tree@V?$_Tmap_traits@HPAUGAMESHOP_PACKAGE_DATA@@U?$less@H@std@@V?$allocator@U?$pair@$$CBHPAUGAMESHOP_PACKAGE_DATA@@@std@@@3@$0A@@std@@@std@@IAEXPAU_Node@?$_Tree_nod@V?$_Tmap_traits@HPAUGAMESHOP_PACKAGE_DATA@@U?$less@H@std@@V?$allocator@U?$pair@$$CBHPAUGAMESHOP_PACKAGE_DATA@@@std@@@3@$0A@@std@@@2@@Z ENDP ; std::_Tree<std::_Tmap_traits<int,GAMESHOP_PACKAGE_DATA *,std::less<int>,std::allocator<std::pair<int const ,GAMESHOP_PACKAGE_DATA *> >,0> >::_Erase
_TEXT	ENDS
PUBLIC	??0?$_Tree_iterator@V?$_Tree_val@V?$_Tmap_traits@HPAUGAMESHOP_ITEM_DATA@@U?$less@H@std@@V?$allocator@U?$pair@$$CBHPAUGAMESHOP_ITEM_DATA@@@std@@@3@$0A@@std@@@std@@@std@@QAE@PAU_Node@?$_Tree_nod@V?$_Tmap_traits@HPAUGAMESHOP_ITEM_DATA@@U?$less@H@std@@V?$allocator@U?$pair@$$CBHPAUGAMESHOP_ITEM_DATA@@@std@@@3@$0A@@std@@@1@PBV?$_Tree_val@V?$_Tmap_traits@HPAUGAMESHOP_ITEM_DATA@@U?$less@H@std@@V?$allocator@U?$pair@$$CBHPAUGAMESHOP_ITEM_DATA@@@std@@@3@$0A@@std@@@1@@Z ; std::_Tree_iterator<std::_Tree_val<std::_Tmap_traits<int,GAMESHOP_ITEM_DATA *,std::less<int>,std::allocator<std::pair<int const ,GAMESHOP_ITEM_DATA *> >,0> > >::_Tree_iterator<std::_Tree_val<std::_Tmap_traits<int,GAMESHOP_ITEM_DATA *,std::less<int>,std::allocator<std::pair<int const ,GAMESHOP_ITEM_DATA *> >,0> > >
; Function compile flags: /Ogtp
;	COMDAT ??0?$_Tree_iterator@V?$_Tree_val@V?$_Tmap_traits@HPAUGAMESHOP_ITEM_DATA@@U?$less@H@std@@V?$allocator@U?$pair@$$CBHPAUGAMESHOP_ITEM_DATA@@@std@@@3@$0A@@std@@@std@@@std@@QAE@PAU_Node@?$_Tree_nod@V?$_Tmap_traits@HPAUGAMESHOP_ITEM_DATA@@U?$less@H@std@@V?$allocator@U?$pair@$$CBHPAUGAMESHOP_ITEM_DATA@@@std@@@3@$0A@@std@@@1@PBV?$_Tree_val@V?$_Tmap_traits@HPAUGAMESHOP_ITEM_DATA@@U?$less@H@std@@V?$allocator@U?$pair@$$CBHPAUGAMESHOP_ITEM_DATA@@@std@@@3@$0A@@std@@@1@@Z
_TEXT	SEGMENT
__Pnode$ = 8						; size = 4
__Plist$ = 12						; size = 4
??0?$_Tree_iterator@V?$_Tree_val@V?$_Tmap_traits@HPAUGAMESHOP_ITEM_DATA@@U?$less@H@std@@V?$allocator@U?$pair@$$CBHPAUGAMESHOP_ITEM_DATA@@@std@@@3@$0A@@std@@@std@@@std@@QAE@PAU_Node@?$_Tree_nod@V?$_Tmap_traits@HPAUGAMESHOP_ITEM_DATA@@U?$less@H@std@@V?$allocator@U?$pair@$$CBHPAUGAMESHOP_ITEM_DATA@@@std@@@3@$0A@@std@@@1@PBV?$_Tree_val@V?$_Tmap_traits@HPAUGAMESHOP_ITEM_DATA@@U?$less@H@std@@V?$allocator@U?$pair@$$CBHPAUGAMESHOP_ITEM_DATA@@@std@@@3@$0A@@std@@@1@@Z PROC ; std::_Tree_iterator<std::_Tree_val<std::_Tmap_traits<int,GAMESHOP_ITEM_DATA *,std::less<int>,std::allocator<std::pair<int const ,GAMESHOP_ITEM_DATA *> >,0> > >::_Tree_iterator<std::_Tree_val<std::_Tmap_traits<int,GAMESHOP_ITEM_DATA *,std::less<int>,std::allocator<std::pair<int const ,GAMESHOP_ITEM_DATA *> >,0> > >, COMDAT
; _this$ = ecx

; 378  : 		{	// construct with node pointer _Pnode

  00000	55		 push	 ebp
  00001	8b ec		 mov	 ebp, esp
  00003	8b c1		 mov	 eax, ecx
  00005	8b 4d 08	 mov	 ecx, DWORD PTR __Pnode$[ebp]
  00008	89 08		 mov	 DWORD PTR [eax], ecx

; 379  : 		}

  0000a	5d		 pop	 ebp
  0000b	c2 08 00	 ret	 8
??0?$_Tree_iterator@V?$_Tree_val@V?$_Tmap_traits@HPAUGAMESHOP_ITEM_DATA@@U?$less@H@std@@V?$allocator@U?$pair@$$CBHPAUGAMESHOP_ITEM_DATA@@@std@@@3@$0A@@std@@@std@@@std@@QAE@PAU_Node@?$_Tree_nod@V?$_Tmap_traits@HPAUGAMESHOP_ITEM_DATA@@U?$less@H@std@@V?$allocator@U?$pair@$$CBHPAUGAMESHOP_ITEM_DATA@@@std@@@3@$0A@@std@@@1@PBV?$_Tree_val@V?$_Tmap_traits@HPAUGAMESHOP_ITEM_DATA@@U?$less@H@std@@V?$allocator@U?$pair@$$CBHPAUGAMESHOP_ITEM_DATA@@@std@@@3@$0A@@std@@@1@@Z ENDP ; std::_Tree_iterator<std::_Tree_val<std::_Tmap_traits<int,GAMESHOP_ITEM_DATA *,std::less<int>,std::allocator<std::pair<int const ,GAMESHOP_ITEM_DATA *> >,0> > >::_Tree_iterator<std::_Tree_val<std::_Tmap_traits<int,GAMESHOP_ITEM_DATA *,std::less<int>,std::allocator<std::pair<int const ,GAMESHOP_ITEM_DATA *> >,0> > >
_TEXT	ENDS
PUBLIC	??E?$_Tree_iterator@V?$_Tree_val@V?$_Tmap_traits@HPAUGAMESHOP_ITEM_DATA@@U?$less@H@std@@V?$allocator@U?$pair@$$CBHPAUGAMESHOP_ITEM_DATA@@@std@@@3@$0A@@std@@@std@@@std@@QAEAAV01@XZ ; std::_Tree_iterator<std::_Tree_val<std::_Tmap_traits<int,GAMESHOP_ITEM_DATA *,std::less<int>,std::allocator<std::pair<int const ,GAMESHOP_ITEM_DATA *> >,0> > >::operator++
; Function compile flags: /Ogtp
;	COMDAT ??E?$_Tree_iterator@V?$_Tree_val@V?$_Tmap_traits@HPAUGAMESHOP_ITEM_DATA@@U?$less@H@std@@V?$allocator@U?$pair@$$CBHPAUGAMESHOP_ITEM_DATA@@@std@@@3@$0A@@std@@@std@@@std@@QAEAAV01@XZ
_TEXT	SEGMENT
??E?$_Tree_iterator@V?$_Tree_val@V?$_Tmap_traits@HPAUGAMESHOP_ITEM_DATA@@U?$less@H@std@@V?$allocator@U?$pair@$$CBHPAUGAMESHOP_ITEM_DATA@@@std@@@3@$0A@@std@@@std@@@std@@QAEAAV01@XZ PROC ; std::_Tree_iterator<std::_Tree_val<std::_Tmap_traits<int,GAMESHOP_ITEM_DATA *,std::less<int>,std::allocator<std::pair<int const ,GAMESHOP_ITEM_DATA *> >,0> > >::operator++, COMDAT
; _this$ = ecx

; 405  : 		{	// preincrement

  00000	56		 push	 esi
  00001	8b f1		 mov	 esi, ecx

; 406  : 		++(*(_Mybase *)this);

  00003	e8 00 00 00 00	 call	 ??E?$_Tree_unchecked_const_iterator@V?$_Tree_val@V?$_Tmap_traits@HPAUGAMESHOP_ITEM_DATA@@U?$less@H@std@@V?$allocator@U?$pair@$$CBHPAUGAMESHOP_ITEM_DATA@@@std@@@3@$0A@@std@@@std@@U_Iterator_base0@2@@std@@QAEAAV01@XZ ; std::_Tree_unchecked_const_iterator<std::_Tree_val<std::_Tmap_traits<int,GAMESHOP_ITEM_DATA *,std::less<int>,std::allocator<std::pair<int const ,GAMESHOP_ITEM_DATA *> >,0> >,std::_Iterator_base0>::operator++

; 407  : 		return (*this);

  00008	8b c6		 mov	 eax, esi
  0000a	5e		 pop	 esi

; 408  : 		}

  0000b	c3		 ret	 0
??E?$_Tree_iterator@V?$_Tree_val@V?$_Tmap_traits@HPAUGAMESHOP_ITEM_DATA@@U?$less@H@std@@V?$allocator@U?$pair@$$CBHPAUGAMESHOP_ITEM_DATA@@@std@@@3@$0A@@std@@@std@@@std@@QAEAAV01@XZ ENDP ; std::_Tree_iterator<std::_Tree_val<std::_Tmap_traits<int,GAMESHOP_ITEM_DATA *,std::less<int>,std::allocator<std::pair<int const ,GAMESHOP_ITEM_DATA *> >,0> > >::operator++
_TEXT	ENDS
PUBLIC	??0?$_Tree_iterator@V?$_Tree_val@V?$_Tmap_traits@HPAUGAMESHOP_PACKAGE_DATA@@U?$less@H@std@@V?$allocator@U?$pair@$$CBHPAUGAMESHOP_PACKAGE_DATA@@@std@@@3@$0A@@std@@@std@@@std@@QAE@PAU_Node@?$_Tree_nod@V?$_Tmap_traits@HPAUGAMESHOP_PACKAGE_DATA@@U?$less@H@std@@V?$allocator@U?$pair@$$CBHPAUGAMESHOP_PACKAGE_DATA@@@std@@@3@$0A@@std@@@1@PBV?$_Tree_val@V?$_Tmap_traits@HPAUGAMESHOP_PACKAGE_DATA@@U?$less@H@std@@V?$allocator@U?$pair@$$CBHPAUGAMESHOP_PACKAGE_DATA@@@std@@@3@$0A@@std@@@1@@Z ; std::_Tree_iterator<std::_Tree_val<std::_Tmap_traits<int,GAMESHOP_PACKAGE_DATA *,std::less<int>,std::allocator<std::pair<int const ,GAMESHOP_PACKAGE_DATA *> >,0> > >::_Tree_iterator<std::_Tree_val<std::_Tmap_traits<int,GAMESHOP_PACKAGE_DATA *,std::less<int>,std::allocator<std::pair<int const ,GAMESHOP_PACKAGE_DATA *> >,0> > >
; Function compile flags: /Ogtp
;	COMDAT ??0?$_Tree_iterator@V?$_Tree_val@V?$_Tmap_traits@HPAUGAMESHOP_PACKAGE_DATA@@U?$less@H@std@@V?$allocator@U?$pair@$$CBHPAUGAMESHOP_PACKAGE_DATA@@@std@@@3@$0A@@std@@@std@@@std@@QAE@PAU_Node@?$_Tree_nod@V?$_Tmap_traits@HPAUGAMESHOP_PACKAGE_DATA@@U?$less@H@std@@V?$allocator@U?$pair@$$CBHPAUGAMESHOP_PACKAGE_DATA@@@std@@@3@$0A@@std@@@1@PBV?$_Tree_val@V?$_Tmap_traits@HPAUGAMESHOP_PACKAGE_DATA@@U?$less@H@std@@V?$allocator@U?$pair@$$CBHPAUGAMESHOP_PACKAGE_DATA@@@std@@@3@$0A@@std@@@1@@Z
_TEXT	SEGMENT
__Pnode$ = 8						; size = 4
__Plist$ = 12						; size = 4
??0?$_Tree_iterator@V?$_Tree_val@V?$_Tmap_traits@HPAUGAMESHOP_PACKAGE_DATA@@U?$less@H@std@@V?$allocator@U?$pair@$$CBHPAUGAMESHOP_PACKAGE_DATA@@@std@@@3@$0A@@std@@@std@@@std@@QAE@PAU_Node@?$_Tree_nod@V?$_Tmap_traits@HPAUGAMESHOP_PACKAGE_DATA@@U?$less@H@std@@V?$allocator@U?$pair@$$CBHPAUGAMESHOP_PACKAGE_DATA@@@std@@@3@$0A@@std@@@1@PBV?$_Tree_val@V?$_Tmap_traits@HPAUGAMESHOP_PACKAGE_DATA@@U?$less@H@std@@V?$allocator@U?$pair@$$CBHPAUGAMESHOP_PACKAGE_DATA@@@std@@@3@$0A@@std@@@1@@Z PROC ; std::_Tree_iterator<std::_Tree_val<std::_Tmap_traits<int,GAMESHOP_PACKAGE_DATA *,std::less<int>,std::allocator<std::pair<int const ,GAMESHOP_PACKAGE_DATA *> >,0> > >::_Tree_iterator<std::_Tree_val<std::_Tmap_traits<int,GAMESHOP_PACKAGE_DATA *,std::less<int>,std::allocator<std::pair<int const ,GAMESHOP_PACKAGE_DATA *> >,0> > >, COMDAT
; _this$ = ecx

; 378  : 		{	// construct with node pointer _Pnode

  00000	55		 push	 ebp
  00001	8b ec		 mov	 ebp, esp
  00003	8b c1		 mov	 eax, ecx
  00005	8b 4d 08	 mov	 ecx, DWORD PTR __Pnode$[ebp]
  00008	89 08		 mov	 DWORD PTR [eax], ecx

; 379  : 		}

  0000a	5d		 pop	 ebp
  0000b	c2 08 00	 ret	 8
??0?$_Tree_iterator@V?$_Tree_val@V?$_Tmap_traits@HPAUGAMESHOP_PACKAGE_DATA@@U?$less@H@std@@V?$allocator@U?$pair@$$CBHPAUGAMESHOP_PACKAGE_DATA@@@std@@@3@$0A@@std@@@std@@@std@@QAE@PAU_Node@?$_Tree_nod@V?$_Tmap_traits@HPAUGAMESHOP_PACKAGE_DATA@@U?$less@H@std@@V?$allocator@U?$pair@$$CBHPAUGAMESHOP_PACKAGE_DATA@@@std@@@3@$0A@@std@@@1@PBV?$_Tree_val@V?$_Tmap_traits@HPAUGAMESHOP_PACKAGE_DATA@@U?$less@H@std@@V?$allocator@U?$pair@$$CBHPAUGAMESHOP_PACKAGE_DATA@@@std@@@3@$0A@@std@@@1@@Z ENDP ; std::_Tree_iterator<std::_Tree_val<std::_Tmap_traits<int,GAMESHOP_PACKAGE_DATA *,std::less<int>,std::allocator<std::pair<int const ,GAMESHOP_PACKAGE_DATA *> >,0> > >::_Tree_iterator<std::_Tree_val<std::_Tmap_traits<int,GAMESHOP_PACKAGE_DATA *,std::less<int>,std::allocator<std::pair<int const ,GAMESHOP_PACKAGE_DATA *> >,0> > >
_TEXT	ENDS
PUBLIC	??E?$_Tree_iterator@V?$_Tree_val@V?$_Tmap_traits@HPAUGAMESHOP_PACKAGE_DATA@@U?$less@H@std@@V?$allocator@U?$pair@$$CBHPAUGAMESHOP_PACKAGE_DATA@@@std@@@3@$0A@@std@@@std@@@std@@QAEAAV01@XZ ; std::_Tree_iterator<std::_Tree_val<std::_Tmap_traits<int,GAMESHOP_PACKAGE_DATA *,std::less<int>,std::allocator<std::pair<int const ,GAMESHOP_PACKAGE_DATA *> >,0> > >::operator++
; Function compile flags: /Ogtp
;	COMDAT ??E?$_Tree_iterator@V?$_Tree_val@V?$_Tmap_traits@HPAUGAMESHOP_PACKAGE_DATA@@U?$less@H@std@@V?$allocator@U?$pair@$$CBHPAUGAMESHOP_PACKAGE_DATA@@@std@@@3@$0A@@std@@@std@@@std@@QAEAAV01@XZ
_TEXT	SEGMENT
??E?$_Tree_iterator@V?$_Tree_val@V?$_Tmap_traits@HPAUGAMESHOP_PACKAGE_DATA@@U?$less@H@std@@V?$allocator@U?$pair@$$CBHPAUGAMESHOP_PACKAGE_DATA@@@std@@@3@$0A@@std@@@std@@@std@@QAEAAV01@XZ PROC ; std::_Tree_iterator<std::_Tree_val<std::_Tmap_traits<int,GAMESHOP_PACKAGE_DATA *,std::less<int>,std::allocator<std::pair<int const ,GAMESHOP_PACKAGE_DATA *> >,0> > >::operator++, COMDAT
; _this$ = ecx

; 405  : 		{	// preincrement

  00000	56		 push	 esi
  00001	8b f1		 mov	 esi, ecx

; 406  : 		++(*(_Mybase *)this);

  00003	e8 00 00 00 00	 call	 ??E?$_Tree_unchecked_const_iterator@V?$_Tree_val@V?$_Tmap_traits@HPAUGAMESHOP_PACKAGE_DATA@@U?$less@H@std@@V?$allocator@U?$pair@$$CBHPAUGAMESHOP_PACKAGE_DATA@@@std@@@3@$0A@@std@@@std@@U_Iterator_base0@2@@std@@QAEAAV01@XZ ; std::_Tree_unchecked_const_iterator<std::_Tree_val<std::_Tmap_traits<int,GAMESHOP_PACKAGE_DATA *,std::less<int>,std::allocator<std::pair<int const ,GAMESHOP_PACKAGE_DATA *> >,0> >,std::_Iterator_base0>::operator++

; 407  : 		return (*this);

  00008	8b c6		 mov	 eax, esi
  0000a	5e		 pop	 esi

; 408  : 		}

  0000b	c3		 ret	 0
??E?$_Tree_iterator@V?$_Tree_val@V?$_Tmap_traits@HPAUGAMESHOP_PACKAGE_DATA@@U?$less@H@std@@V?$allocator@U?$pair@$$CBHPAUGAMESHOP_PACKAGE_DATA@@@std@@@3@$0A@@std@@@std@@@std@@QAEAAV01@XZ ENDP ; std::_Tree_iterator<std::_Tree_val<std::_Tmap_traits<int,GAMESHOP_PACKAGE_DATA *,std::less<int>,std::allocator<std::pair<int const ,GAMESHOP_PACKAGE_DATA *> >,0> > >::operator++
_TEXT	ENDS
PUBLIC	??0?$_Tree_val@V?$_Tmap_traits@HPAUGAMESHOP_ITEM_DATA@@U?$less@H@std@@V?$allocator@U?$pair@$$CBHPAUGAMESHOP_ITEM_DATA@@@std@@@3@$0A@@std@@@std@@QAE@ABU?$less@H@1@V?$allocator@U?$pair@$$CBHPAUGAMESHOP_ITEM_DATA@@@std@@@1@@Z ; std::_Tree_val<std::_Tmap_traits<int,GAMESHOP_ITEM_DATA *,std::less<int>,std::allocator<std::pair<int const ,GAMESHOP_ITEM_DATA *> >,0> >::_Tree_val<std::_Tmap_traits<int,GAMESHOP_ITEM_DATA *,std::less<int>,std::allocator<std::pair<int const ,GAMESHOP_ITEM_DATA *> >,0> >
; Function compile flags: /Ogtp
;	COMDAT ??0?$_Tree_val@V?$_Tmap_traits@HPAUGAMESHOP_ITEM_DATA@@U?$less@H@std@@V?$allocator@U?$pair@$$CBHPAUGAMESHOP_ITEM_DATA@@@std@@@3@$0A@@std@@@std@@QAE@ABU?$less@H@1@V?$allocator@U?$pair@$$CBHPAUGAMESHOP_ITEM_DATA@@@std@@@1@@Z
_TEXT	SEGMENT
$T216961 = -16						; size = 12
$T216944 = -4						; size = 4
__Parg$ = 8						; size = 4
__Al$ = 12						; size = 1
??0?$_Tree_val@V?$_Tmap_traits@HPAUGAMESHOP_ITEM_DATA@@U?$less@H@std@@V?$allocator@U?$pair@$$CBHPAUGAMESHOP_ITEM_DATA@@@std@@@3@$0A@@std@@@std@@QAE@ABU?$less@H@1@V?$allocator@U?$pair@$$CBHPAUGAMESHOP_ITEM_DATA@@@std@@@1@@Z PROC ; std::_Tree_val<std::_Tmap_traits<int,GAMESHOP_ITEM_DATA *,std::less<int>,std::allocator<std::pair<int const ,GAMESHOP_ITEM_DATA *> >,0> >::_Tree_val<std::_Tmap_traits<int,GAMESHOP_ITEM_DATA *,std::less<int>,std::allocator<std::pair<int const ,GAMESHOP_ITEM_DATA *> >,0> >, COMDAT
; _this$ = ecx

; 542  : 		{	// construct base, and allocator from _Al

  00000	55		 push	 ebp
  00001	8b ec		 mov	 ebp, esp
  00003	83 ec 10	 sub	 esp, 16			; 00000010H
  00006	56		 push	 esi
  00007	8b f1		 mov	 esi, ecx

; 543  : 		this->_Mysize = 0;
; 544  : 		this->_Myhead = this->_Alnod.allocate(1);

  00009	6a 18		 push	 24			; 00000018H
  0000b	c7 46 08 00 00
	00 00		 mov	 DWORD PTR [esi+8], 0
  00012	e8 00 00 00 00	 call	 ??2@YAPAXI@Z		; operator new
  00017	83 c4 04	 add	 esp, 4
  0001a	85 c0		 test	 eax, eax
  0001c	74 28		 je	 SHORT $LN15@Tree_val
  0001e	89 46 04	 mov	 DWORD PTR [esi+4], eax

; 545  : 
; 546  : 		this->_Left(this->_Myhead) = this->_Myhead;

  00021	89 00		 mov	 DWORD PTR [eax], eax

; 547  : 		this->_Parent(this->_Myhead) = this->_Myhead;

  00023	8b 46 04	 mov	 eax, DWORD PTR [esi+4]
  00026	89 40 04	 mov	 DWORD PTR [eax+4], eax

; 548  : 		this->_Right(this->_Myhead) = this->_Myhead;

  00029	8b 46 04	 mov	 eax, DWORD PTR [esi+4]
  0002c	89 40 08	 mov	 DWORD PTR [eax+8], eax

; 549  : 		this->_Color(this->_Myhead) = this->_Black;

  0002f	8b 4e 04	 mov	 ecx, DWORD PTR [esi+4]
  00032	b0 01		 mov	 al, 1
  00034	88 41 14	 mov	 BYTE PTR [ecx+20], al

; 550  : 		this->_Isnil(this->_Myhead) = true;

  00037	8b 56 04	 mov	 edx, DWORD PTR [esi+4]
  0003a	88 42 15	 mov	 BYTE PTR [edx+21], al

; 551  : 		}

  0003d	8b c6		 mov	 eax, esi
  0003f	5e		 pop	 esi
  00040	8b e5		 mov	 esp, ebp
  00042	5d		 pop	 ebp
  00043	c2 08 00	 ret	 8

; 543  : 		this->_Mysize = 0;
; 544  : 		this->_Myhead = this->_Alnod.allocate(1);

$LN15@Tree_val:
  00046	8d 45 fc	 lea	 eax, DWORD PTR $T216944[ebp]
  00049	50		 push	 eax
  0004a	8d 4d f0	 lea	 ecx, DWORD PTR $T216961[ebp]
  0004d	c7 45 fc 00 00
	00 00		 mov	 DWORD PTR $T216944[ebp], 0
  00054	e8 00 00 00 00	 call	 ??0exception@std@@QAE@ABQBD@Z ; std::exception::exception
  00059	68 00 00 00 00	 push	 OFFSET __TI2?AVbad_alloc@std@@
  0005e	8d 4d f0	 lea	 ecx, DWORD PTR $T216961[ebp]
  00061	51		 push	 ecx
  00062	c7 45 f0 00 00
	00 00		 mov	 DWORD PTR $T216961[ebp], OFFSET ??_7bad_alloc@std@@6B@
  00069	e8 00 00 00 00	 call	 __CxxThrowException@8
$LN37@Tree_val:
$LN36@Tree_val:
  0006e	cc		 int	 3
??0?$_Tree_val@V?$_Tmap_traits@HPAUGAMESHOP_ITEM_DATA@@U?$less@H@std@@V?$allocator@U?$pair@$$CBHPAUGAMESHOP_ITEM_DATA@@@std@@@3@$0A@@std@@@std@@QAE@ABU?$less@H@1@V?$allocator@U?$pair@$$CBHPAUGAMESHOP_ITEM_DATA@@@std@@@1@@Z ENDP ; std::_Tree_val<std::_Tmap_traits<int,GAMESHOP_ITEM_DATA *,std::less<int>,std::allocator<std::pair<int const ,GAMESHOP_ITEM_DATA *> >,0> >::_Tree_val<std::_Tmap_traits<int,GAMESHOP_ITEM_DATA *,std::less<int>,std::allocator<std::pair<int const ,GAMESHOP_ITEM_DATA *> >,0> >
_TEXT	ENDS
PUBLIC	??0?$_Tree_val@V?$_Tmap_traits@HPAUGAMESHOP_PACKAGE_DATA@@U?$less@H@std@@V?$allocator@U?$pair@$$CBHPAUGAMESHOP_PACKAGE_DATA@@@std@@@3@$0A@@std@@@std@@QAE@ABU?$less@H@1@V?$allocator@U?$pair@$$CBHPAUGAMESHOP_PACKAGE_DATA@@@std@@@1@@Z ; std::_Tree_val<std::_Tmap_traits<int,GAMESHOP_PACKAGE_DATA *,std::less<int>,std::allocator<std::pair<int const ,GAMESHOP_PACKAGE_DATA *> >,0> >::_Tree_val<std::_Tmap_traits<int,GAMESHOP_PACKAGE_DATA *,std::less<int>,std::allocator<std::pair<int const ,GAMESHOP_PACKAGE_DATA *> >,0> >
; Function compile flags: /Ogtp
;	COMDAT ??0?$_Tree_val@V?$_Tmap_traits@HPAUGAMESHOP_PACKAGE_DATA@@U?$less@H@std@@V?$allocator@U?$pair@$$CBHPAUGAMESHOP_PACKAGE_DATA@@@std@@@3@$0A@@std@@@std@@QAE@ABU?$less@H@1@V?$allocator@U?$pair@$$CBHPAUGAMESHOP_PACKAGE_DATA@@@std@@@1@@Z
_TEXT	SEGMENT
$T217040 = -16						; size = 12
$T217023 = -4						; size = 4
__Parg$ = 8						; size = 4
__Al$ = 12						; size = 1
??0?$_Tree_val@V?$_Tmap_traits@HPAUGAMESHOP_PACKAGE_DATA@@U?$less@H@std@@V?$allocator@U?$pair@$$CBHPAUGAMESHOP_PACKAGE_DATA@@@std@@@3@$0A@@std@@@std@@QAE@ABU?$less@H@1@V?$allocator@U?$pair@$$CBHPAUGAMESHOP_PACKAGE_DATA@@@std@@@1@@Z PROC ; std::_Tree_val<std::_Tmap_traits<int,GAMESHOP_PACKAGE_DATA *,std::less<int>,std::allocator<std::pair<int const ,GAMESHOP_PACKAGE_DATA *> >,0> >::_Tree_val<std::_Tmap_traits<int,GAMESHOP_PACKAGE_DATA *,std::less<int>,std::allocator<std::pair<int const ,GAMESHOP_PACKAGE_DATA *> >,0> >, COMDAT
; _this$ = ecx

; 542  : 		{	// construct base, and allocator from _Al

  00000	55		 push	 ebp
  00001	8b ec		 mov	 ebp, esp
  00003	83 ec 10	 sub	 esp, 16			; 00000010H
  00006	56		 push	 esi
  00007	8b f1		 mov	 esi, ecx

; 543  : 		this->_Mysize = 0;
; 544  : 		this->_Myhead = this->_Alnod.allocate(1);

  00009	6a 18		 push	 24			; 00000018H
  0000b	c7 46 08 00 00
	00 00		 mov	 DWORD PTR [esi+8], 0
  00012	e8 00 00 00 00	 call	 ??2@YAPAXI@Z		; operator new
  00017	83 c4 04	 add	 esp, 4
  0001a	85 c0		 test	 eax, eax
  0001c	74 28		 je	 SHORT $LN15@Tree_val@2
  0001e	89 46 04	 mov	 DWORD PTR [esi+4], eax

; 545  : 
; 546  : 		this->_Left(this->_Myhead) = this->_Myhead;

  00021	89 00		 mov	 DWORD PTR [eax], eax

; 547  : 		this->_Parent(this->_Myhead) = this->_Myhead;

  00023	8b 46 04	 mov	 eax, DWORD PTR [esi+4]
  00026	89 40 04	 mov	 DWORD PTR [eax+4], eax

; 548  : 		this->_Right(this->_Myhead) = this->_Myhead;

  00029	8b 46 04	 mov	 eax, DWORD PTR [esi+4]
  0002c	89 40 08	 mov	 DWORD PTR [eax+8], eax

; 549  : 		this->_Color(this->_Myhead) = this->_Black;

  0002f	8b 4e 04	 mov	 ecx, DWORD PTR [esi+4]
  00032	b0 01		 mov	 al, 1
  00034	88 41 14	 mov	 BYTE PTR [ecx+20], al

; 550  : 		this->_Isnil(this->_Myhead) = true;

  00037	8b 56 04	 mov	 edx, DWORD PTR [esi+4]
  0003a	88 42 15	 mov	 BYTE PTR [edx+21], al

; 551  : 		}

  0003d	8b c6		 mov	 eax, esi
  0003f	5e		 pop	 esi
  00040	8b e5		 mov	 esp, ebp
  00042	5d		 pop	 ebp
  00043	c2 08 00	 ret	 8

; 543  : 		this->_Mysize = 0;
; 544  : 		this->_Myhead = this->_Alnod.allocate(1);

$LN15@Tree_val@2:
  00046	8d 45 fc	 lea	 eax, DWORD PTR $T217023[ebp]
  00049	50		 push	 eax
  0004a	8d 4d f0	 lea	 ecx, DWORD PTR $T217040[ebp]
  0004d	c7 45 fc 00 00
	00 00		 mov	 DWORD PTR $T217023[ebp], 0
  00054	e8 00 00 00 00	 call	 ??0exception@std@@QAE@ABQBD@Z ; std::exception::exception
  00059	68 00 00 00 00	 push	 OFFSET __TI2?AVbad_alloc@std@@
  0005e	8d 4d f0	 lea	 ecx, DWORD PTR $T217040[ebp]
  00061	51		 push	 ecx
  00062	c7 45 f0 00 00
	00 00		 mov	 DWORD PTR $T217040[ebp], OFFSET ??_7bad_alloc@std@@6B@
  00069	e8 00 00 00 00	 call	 __CxxThrowException@8
$LN37@Tree_val@2:
$LN36@Tree_val@2:
  0006e	cc		 int	 3
??0?$_Tree_val@V?$_Tmap_traits@HPAUGAMESHOP_PACKAGE_DATA@@U?$less@H@std@@V?$allocator@U?$pair@$$CBHPAUGAMESHOP_PACKAGE_DATA@@@std@@@3@$0A@@std@@@std@@QAE@ABU?$less@H@1@V?$allocator@U?$pair@$$CBHPAUGAMESHOP_PACKAGE_DATA@@@std@@@1@@Z ENDP ; std::_Tree_val<std::_Tmap_traits<int,GAMESHOP_PACKAGE_DATA *,std::less<int>,std::allocator<std::pair<int const ,GAMESHOP_PACKAGE_DATA *> >,0> >::_Tree_val<std::_Tmap_traits<int,GAMESHOP_PACKAGE_DATA *,std::less<int>,std::allocator<std::pair<int const ,GAMESHOP_PACKAGE_DATA *> >,0> >
_TEXT	ENDS
PUBLIC	??_C@_0BM@PAPJHAGI@invalid?5map?1set?$DMT?$DO?5iterator?$AA@ ; `string'
PUBLIC	?erase@?$_Tree@V?$_Tmap_traits@HPAUGAMESHOP_ITEM_DATA@@U?$less@H@std@@V?$allocator@U?$pair@$$CBHPAUGAMESHOP_ITEM_DATA@@@std@@@3@$0A@@std@@@std@@QAE?AV?$_Tree_iterator@V?$_Tree_val@V?$_Tmap_traits@HPAUGAMESHOP_ITEM_DATA@@U?$less@H@std@@V?$allocator@U?$pair@$$CBHPAUGAMESHOP_ITEM_DATA@@@std@@@3@$0A@@std@@@std@@@2@V?$_Tree_const_iterator@V?$_Tree_val@V?$_Tmap_traits@HPAUGAMESHOP_ITEM_DATA@@U?$less@H@std@@V?$allocator@U?$pair@$$CBHPAUGAMESHOP_ITEM_DATA@@@std@@@3@$0A@@std@@@std@@@2@@Z ; std::_Tree<std::_Tmap_traits<int,GAMESHOP_ITEM_DATA *,std::less<int>,std::allocator<std::pair<int const ,GAMESHOP_ITEM_DATA *> >,0> >::erase
EXTRN	?_Xout_of_range@std@@YAXPBD@Z:PROC		; std::_Xout_of_range
;	COMDAT ??_C@_0BM@PAPJHAGI@invalid?5map?1set?$DMT?$DO?5iterator?$AA@
; File d:\program files (x86)\microsoft visual studio 10.0\vc\include\xutility
CONST	SEGMENT
??_C@_0BM@PAPJHAGI@invalid?5map?1set?$DMT?$DO?5iterator?$AA@ DB 'invalid '
	DB	'map/set<T> iterator', 00H			; `string'
; Function compile flags: /Ogtp
; File d:\program files (x86)\microsoft visual studio 10.0\vc\include\xtree
CONST	ENDS
;	COMDAT ?erase@?$_Tree@V?$_Tmap_traits@HPAUGAMESHOP_ITEM_DATA@@U?$less@H@std@@V?$allocator@U?$pair@$$CBHPAUGAMESHOP_ITEM_DATA@@@std@@@3@$0A@@std@@@std@@QAE?AV?$_Tree_iterator@V?$_Tree_val@V?$_Tmap_traits@HPAUGAMESHOP_ITEM_DATA@@U?$less@H@std@@V?$allocator@U?$pair@$$CBHPAUGAMESHOP_ITEM_DATA@@@std@@@3@$0A@@std@@@std@@@2@V?$_Tree_const_iterator@V?$_Tree_val@V?$_Tmap_traits@HPAUGAMESHOP_ITEM_DATA@@U?$less@H@std@@V?$allocator@U?$pair@$$CBHPAUGAMESHOP_ITEM_DATA@@@std@@@3@$0A@@std@@@std@@@2@@Z
_TEXT	SEGMENT
tv795 = -12						; size = 4
__Erasednode$ = -8					; size = 4
_this$ = -4						; size = 4
___$ReturnUdt$ = 8					; size = 4
__Where$ = 12						; size = 4
?erase@?$_Tree@V?$_Tmap_traits@HPAUGAMESHOP_ITEM_DATA@@U?$less@H@std@@V?$allocator@U?$pair@$$CBHPAUGAMESHOP_ITEM_DATA@@@std@@@3@$0A@@std@@@std@@QAE?AV?$_Tree_iterator@V?$_Tree_val@V?$_Tmap_traits@HPAUGAMESHOP_ITEM_DATA@@U?$less@H@std@@V?$allocator@U?$pair@$$CBHPAUGAMESHOP_ITEM_DATA@@@std@@@3@$0A@@std@@@std@@@2@V?$_Tree_const_iterator@V?$_Tree_val@V?$_Tmap_traits@HPAUGAMESHOP_ITEM_DATA@@U?$less@H@std@@V?$allocator@U?$pair@$$CBHPAUGAMESHOP_ITEM_DATA@@@std@@@3@$0A@@std@@@std@@@2@@Z PROC ; std::_Tree<std::_Tmap_traits<int,GAMESHOP_ITEM_DATA *,std::less<int>,std::allocator<std::pair<int const ,GAMESHOP_ITEM_DATA *> >,0> >::erase, COMDAT
; _this$ = ecx

; 1195 : 		{	// erase element at _Where

  00000	55		 push	 ebp
  00001	8b ec		 mov	 ebp, esp
  00003	83 ec 0c	 sub	 esp, 12			; 0000000cH
  00006	53		 push	 ebx

; 1196 :  #if _ITERATOR_DEBUG_LEVEL == 2
; 1197 : 		if (_Where._Getcont() != this || this->_Isnil(_Where._Mynode()))
; 1198 : 			_DEBUG_ERROR("map/set erase iterator outside range");
; 1199 : 		_Nodeptr _Erasednode = _Where._Mynode();	// node to erase
; 1200 : 		++_Where;	// save successor iterator for return
; 1201 : 		_Orphan_ptr(*this, _Erasednode);
; 1202 : 
; 1203 :  #else /* _ITERATOR_DEBUG_LEVEL == 2 */
; 1204 : 		if (this->_Isnil(_Where._Mynode()))

  00007	8b 5d 0c	 mov	 ebx, DWORD PTR __Where$[ebp]
  0000a	80 7b 15 00	 cmp	 BYTE PTR [ebx+21], 0
  0000e	56		 push	 esi
  0000f	57		 push	 edi
  00010	89 4d fc	 mov	 DWORD PTR _this$[ebp], ecx
  00013	74 0a		 je	 SHORT $LN40@erase

; 1205 : 			_Xout_of_range("invalid map/set<T> iterator");

  00015	68 00 00 00 00	 push	 OFFSET ??_C@_0BM@PAPJHAGI@invalid?5map?1set?$DMT?$DO?5iterator?$AA@
  0001a	e8 00 00 00 00	 call	 ?_Xout_of_range@std@@YAXPBD@Z ; std::_Xout_of_range
$LN295@erase:
$LN40@erase:

; 1206 : 		_Nodeptr _Erasednode = _Where._Mynode();	// node to erase
; 1207 : 		++_Where;	// save successor iterator for return

  0001f	8d 4d 0c	 lea	 ecx, DWORD PTR __Where$[ebp]
  00022	89 5d f8	 mov	 DWORD PTR __Erasednode$[ebp], ebx
  00025	e8 00 00 00 00	 call	 ??E?$_Tree_unchecked_const_iterator@V?$_Tree_val@V?$_Tmap_traits@HPAUGAMESHOP_ITEM_DATA@@U?$less@H@std@@V?$allocator@U?$pair@$$CBHPAUGAMESHOP_ITEM_DATA@@@std@@@3@$0A@@std@@@std@@U_Iterator_base0@2@@std@@QAEAAV01@XZ ; std::_Tree_unchecked_const_iterator<std::_Tree_val<std::_Tmap_traits<int,GAMESHOP_ITEM_DATA *,std::less<int>,std::allocator<std::pair<int const ,GAMESHOP_ITEM_DATA *> >,0> >,std::_Iterator_base0>::operator++

; 1208 :  #endif /* _ITERATOR_DEBUG_LEVEL == 2 */
; 1209 : 
; 1210 : 		_Nodeptr _Fixnode;	// the node to recolor as needed
; 1211 : 		_Nodeptr _Fixnodeparent;	// parent of _Fixnode (which may be nil)
; 1212 : 		_Nodeptr _Pnode = _Erasednode;
; 1213 : 
; 1214 : 		if (this->_Isnil(this->_Left(_Pnode)))

  0002a	8b 0b		 mov	 ecx, DWORD PTR [ebx]
  0002c	80 79 15 00	 cmp	 BYTE PTR [ecx+21], 0
  00030	74 05		 je	 SHORT $LN39@erase

; 1215 : 			_Fixnode = this->_Right(_Pnode);	// stitch up right subtree

  00032	8b 7b 08	 mov	 edi, DWORD PTR [ebx+8]

; 1216 : 		else if (this->_Isnil(this->_Right(_Pnode)))

  00035	eb 17		 jmp	 SHORT $LN291@erase
$LN39@erase:
  00037	8b 43 08	 mov	 eax, DWORD PTR [ebx+8]
  0003a	80 78 15 00	 cmp	 BYTE PTR [eax+21], 0
  0003e	74 04		 je	 SHORT $LN37@erase

; 1217 : 			_Fixnode = this->_Left(_Pnode);	// stitch up left subtree

  00040	8b f9		 mov	 edi, ecx

; 1218 : 		else

  00042	eb 0a		 jmp	 SHORT $LN291@erase
$LN37@erase:

; 1219 : 			{	// two subtrees, must lift successor node to replace erased
; 1220 : 			_Pnode = _Where._Mynode();	// _Pnode is successor node

  00044	8b 45 0c	 mov	 eax, DWORD PTR __Where$[ebp]

; 1221 : 			_Fixnode = this->_Right(_Pnode);	// _Fixnode is only subtree

  00047	8b 78 08	 mov	 edi, DWORD PTR [eax+8]

; 1222 : 			}
; 1223 : 
; 1224 : 		if (_Pnode == _Erasednode)

  0004a	3b c3		 cmp	 eax, ebx
  0004c	75 72		 jne	 SHORT $LN35@erase
$LN291@erase:

; 1225 : 			{	// at most one subtree, relink it
; 1226 : 			_Fixnodeparent = this->_Parent(_Erasednode);
; 1227 : 			if (!this->_Isnil(_Fixnode))

  0004e	80 7f 15 00	 cmp	 BYTE PTR [edi+21], 0
  00052	8b 73 04	 mov	 esi, DWORD PTR [ebx+4]
  00055	75 03		 jne	 SHORT $LN34@erase

; 1228 : 				this->_Parent(_Fixnode) = _Fixnodeparent;	// link up

  00057	89 77 04	 mov	 DWORD PTR [edi+4], esi
$LN34@erase:

; 1229 : 
; 1230 : 			if (_Root() == _Erasednode)

  0005a	8b 4d fc	 mov	 ecx, DWORD PTR _this$[ebp]
  0005d	8b 41 04	 mov	 eax, DWORD PTR [ecx+4]
  00060	39 58 04	 cmp	 DWORD PTR [eax+4], ebx
  00063	75 05		 jne	 SHORT $LN33@erase

; 1231 : 				_Root() = _Fixnode;	// link down from root

  00065	89 78 04	 mov	 DWORD PTR [eax+4], edi

; 1232 : 			else if (this->_Left(_Fixnodeparent) == _Erasednode)

  00068	eb 0b		 jmp	 SHORT $LN30@erase
$LN33@erase:
  0006a	39 1e		 cmp	 DWORD PTR [esi], ebx
  0006c	75 04		 jne	 SHORT $LN31@erase

; 1233 : 				this->_Left(_Fixnodeparent) = _Fixnode;	// link down to left

  0006e	89 3e		 mov	 DWORD PTR [esi], edi

; 1234 : 			else

  00070	eb 03		 jmp	 SHORT $LN30@erase
$LN31@erase:

; 1235 : 				this->_Right(_Fixnodeparent) =
; 1236 : 					_Fixnode;	// link down to right

  00072	89 7e 08	 mov	 DWORD PTR [esi+8], edi
$LN30@erase:

; 1237 : 
; 1238 : 			if (_Lmost() == _Erasednode)

  00075	8b 41 04	 mov	 eax, DWORD PTR [ecx+4]
  00078	39 18		 cmp	 DWORD PTR [eax], ebx
  0007a	75 1b		 jne	 SHORT $LN29@erase

; 1239 : 				_Lmost() = this->_Isnil(_Fixnode)
; 1240 : 					? _Fixnodeparent	// smallest is parent of erased node
; 1241 : 					: this->_Min(_Fixnode);	// smallest in relinked subtree

  0007c	80 7f 15 00	 cmp	 BYTE PTR [edi+21], 0
  00080	74 04		 je	 SHORT $LN43@erase
  00082	8b c6		 mov	 eax, esi
  00084	eb 0c		 jmp	 SHORT $LN44@erase
$LN43@erase:
  00086	57		 push	 edi
  00087	e8 00 00 00 00	 call	 ?_Min@?$_Tree_val@V?$_Tmap_traits@HPAUGAMESHOP_ITEM_DATA@@U?$less@H@std@@V?$allocator@U?$pair@$$CBHPAUGAMESHOP_ITEM_DATA@@@std@@@3@$0A@@std@@@std@@SAPAU_Node@?$_Tree_nod@V?$_Tmap_traits@HPAUGAMESHOP_ITEM_DATA@@U?$less@H@std@@V?$allocator@U?$pair@$$CBHPAUGAMESHOP_ITEM_DATA@@@std@@@3@$0A@@std@@@2@PAU342@@Z ; std::_Tree_val<std::_Tmap_traits<int,GAMESHOP_ITEM_DATA *,std::less<int>,std::allocator<std::pair<int const ,GAMESHOP_ITEM_DATA *> >,0> >::_Min
  0008c	8b 4d fc	 mov	 ecx, DWORD PTR _this$[ebp]
  0008f	83 c4 04	 add	 esp, 4
$LN44@erase:
  00092	8b 51 04	 mov	 edx, DWORD PTR [ecx+4]
  00095	89 02		 mov	 DWORD PTR [edx], eax
$LN29@erase:

; 1242 : 
; 1243 : 			if (_Rmost() == _Erasednode)

  00097	8b 49 04	 mov	 ecx, DWORD PTR [ecx+4]
  0009a	89 4d f4	 mov	 DWORD PTR tv795[ebp], ecx
  0009d	39 59 08	 cmp	 DWORD PTR [ecx+8], ebx
  000a0	75 78		 jne	 SHORT $LN165@erase

; 1244 : 				_Rmost() = this->_Isnil(_Fixnode)
; 1245 : 					? _Fixnodeparent	// largest is parent of erased node
; 1246 : 					: this->_Max(_Fixnode);	// largest in relinked subtree

  000a2	80 7f 15 00	 cmp	 BYTE PTR [edi+21], 0
  000a6	74 07		 je	 SHORT $LN45@erase
  000a8	8b c6		 mov	 eax, esi
  000aa	89 41 08	 mov	 DWORD PTR [ecx+8], eax

; 1247 : 			}
; 1248 : 		else

  000ad	eb 6b		 jmp	 SHORT $LN165@erase
$LN45@erase:

; 1244 : 				_Rmost() = this->_Isnil(_Fixnode)
; 1245 : 					? _Fixnodeparent	// largest is parent of erased node
; 1246 : 					: this->_Max(_Fixnode);	// largest in relinked subtree

  000af	57		 push	 edi
  000b0	e8 00 00 00 00	 call	 ?_Max@?$_Tree_val@V?$_Tmap_traits@HPAUGAMESHOP_ITEM_DATA@@U?$less@H@std@@V?$allocator@U?$pair@$$CBHPAUGAMESHOP_ITEM_DATA@@@std@@@3@$0A@@std@@@std@@SAPAU_Node@?$_Tree_nod@V?$_Tmap_traits@HPAUGAMESHOP_ITEM_DATA@@U?$less@H@std@@V?$allocator@U?$pair@$$CBHPAUGAMESHOP_ITEM_DATA@@@std@@@3@$0A@@std@@@2@PAU342@@Z ; std::_Tree_val<std::_Tmap_traits<int,GAMESHOP_ITEM_DATA *,std::less<int>,std::allocator<std::pair<int const ,GAMESHOP_ITEM_DATA *> >,0> >::_Max
  000b5	8b 4d f4	 mov	 ecx, DWORD PTR tv795[ebp]
  000b8	83 c4 04	 add	 esp, 4
  000bb	89 41 08	 mov	 DWORD PTR [ecx+8], eax

; 1247 : 			}
; 1248 : 		else

  000be	eb 5a		 jmp	 SHORT $LN165@erase
$LN35@erase:

; 1249 : 			{	// erased has two subtrees, _Pnode is successor to erased
; 1250 : 			this->_Parent(this->_Left(_Erasednode)) =
; 1251 : 				_Pnode;	// link left up

  000c0	89 41 04	 mov	 DWORD PTR [ecx+4], eax

; 1252 : 			this->_Left(_Pnode) =
; 1253 : 				this->_Left(_Erasednode);	// link successor down

  000c3	8b 0b		 mov	 ecx, DWORD PTR [ebx]
  000c5	89 08		 mov	 DWORD PTR [eax], ecx

; 1254 : 
; 1255 : 			if (_Pnode == this->_Right(_Erasednode))

  000c7	3b 43 08	 cmp	 eax, DWORD PTR [ebx+8]
  000ca	75 04		 jne	 SHORT $LN26@erase

; 1256 : 				_Fixnodeparent = _Pnode;	// successor is next to erased

  000cc	8b f0		 mov	 esi, eax

; 1257 : 			else

  000ce	eb 1a		 jmp	 SHORT $LN25@erase
$LN26@erase:

; 1258 : 				{	// successor further down, link in place of erased
; 1259 : 				_Fixnodeparent =
; 1260 : 					this->_Parent(_Pnode);	// parent is successor's
; 1261 : 				if (!this->_Isnil(_Fixnode))

  000d0	80 7f 15 00	 cmp	 BYTE PTR [edi+21], 0
  000d4	8b 70 04	 mov	 esi, DWORD PTR [eax+4]
  000d7	75 03		 jne	 SHORT $LN24@erase

; 1262 : 					this->_Parent(_Fixnode) = _Fixnodeparent;	// link fix up

  000d9	89 77 04	 mov	 DWORD PTR [edi+4], esi
$LN24@erase:

; 1263 : 				this->_Left(_Fixnodeparent) = _Fixnode;	// link fix down

  000dc	89 3e		 mov	 DWORD PTR [esi], edi

; 1264 : 				this->_Right(_Pnode) =
; 1265 : 					this->_Right(_Erasednode);	// link next down

  000de	8b 4b 08	 mov	 ecx, DWORD PTR [ebx+8]
  000e1	89 48 08	 mov	 DWORD PTR [eax+8], ecx

; 1266 : 				this->_Parent(this->_Right(_Erasednode)) =
; 1267 : 					_Pnode;	// right up

  000e4	8b 53 08	 mov	 edx, DWORD PTR [ebx+8]
  000e7	89 42 04	 mov	 DWORD PTR [edx+4], eax
$LN25@erase:

; 1268 : 				}
; 1269 : 
; 1270 : 			if (_Root() == _Erasednode)

  000ea	8b 4d fc	 mov	 ecx, DWORD PTR _this$[ebp]
  000ed	8b 49 04	 mov	 ecx, DWORD PTR [ecx+4]
  000f0	39 59 04	 cmp	 DWORD PTR [ecx+4], ebx
  000f3	75 05		 jne	 SHORT $LN23@erase

; 1271 : 				_Root() = _Pnode;	// link down from root

  000f5	89 41 04	 mov	 DWORD PTR [ecx+4], eax

; 1272 : 			else if (this->_Left(this->_Parent(_Erasednode)) == _Erasednode)

  000f8	eb 0e		 jmp	 SHORT $LN20@erase
$LN23@erase:
  000fa	8b 4b 04	 mov	 ecx, DWORD PTR [ebx+4]
  000fd	39 19		 cmp	 DWORD PTR [ecx], ebx
  000ff	75 04		 jne	 SHORT $LN21@erase

; 1273 : 				this->_Left(this->_Parent(_Erasednode)) =
; 1274 : 					_Pnode;	// link down to left

  00101	89 01		 mov	 DWORD PTR [ecx], eax

; 1275 : 			else

  00103	eb 03		 jmp	 SHORT $LN20@erase
$LN21@erase:

; 1276 : 				this->_Right(this->_Parent(_Erasednode)) =
; 1277 : 					_Pnode;	// link down to right

  00105	89 41 08	 mov	 DWORD PTR [ecx+8], eax
$LN20@erase:

; 1278 : 
; 1279 : 			this->_Parent(_Pnode) =
; 1280 : 				this->_Parent(_Erasednode);	// link successor up

  00108	8b 53 04	 mov	 edx, DWORD PTR [ebx+4]
  0010b	89 50 04	 mov	 DWORD PTR [eax+4], edx

; 1281 : 			_STD swap(this->_Color(_Pnode),
; 1282 : 				this->_Color(_Erasednode));	// recolor it

  0010e	8a 53 14	 mov	 dl, BYTE PTR [ebx+20]
  00111	8a 48 14	 mov	 cl, BYTE PTR [eax+20]
  00114	88 50 14	 mov	 BYTE PTR [eax+20], dl
  00117	88 4b 14	 mov	 BYTE PTR [ebx+20], cl
$LN165@erase:

; 1283 : 			}
; 1284 : 
; 1285 : 		if (this->_Color(_Erasednode) == this->_Black)

  0011a	8b 45 f8	 mov	 eax, DWORD PTR __Erasednode$[ebp]
  0011d	b3 01		 mov	 bl, 1
  0011f	38 58 14	 cmp	 BYTE PTR [eax+20], bl
  00122	0f 85 fa 00 00
	00		 jne	 $LN19@erase

; 1286 : 			{	// erasing black link, must recolor/rebalance tree
; 1287 : 			for (; _Fixnode != _Root()
; 1288 : 				&& this->_Color(_Fixnode) == this->_Black;
; 1289 : 				_Fixnodeparent = this->_Parent(_Fixnode))

  00128	8b 4d fc	 mov	 ecx, DWORD PTR _this$[ebp]
  0012b	8b 51 04	 mov	 edx, DWORD PTR [ecx+4]
  0012e	3b 7a 04	 cmp	 edi, DWORD PTR [edx+4]
  00131	0f 84 e8 00 00
	00		 je	 $LN16@erase
$LL18@erase:
  00137	38 5f 14	 cmp	 BYTE PTR [edi+20], bl
  0013a	0f 85 df 00 00
	00		 jne	 $LN16@erase

; 1290 : 				if (_Fixnode == this->_Left(_Fixnodeparent))

  00140	8b 06		 mov	 eax, DWORD PTR [esi]
  00142	3b f8		 cmp	 edi, eax
  00144	75 65		 jne	 SHORT $LN15@erase

; 1291 : 					{	// fixup left subtree
; 1292 : 					_Pnode = this->_Right(_Fixnodeparent);

  00146	8b 46 08	 mov	 eax, DWORD PTR [esi+8]

; 1293 : 					if (this->_Color(_Pnode) == this->_Red)

  00149	80 78 14 00	 cmp	 BYTE PTR [eax+20], 0
  0014d	75 13		 jne	 SHORT $LN14@erase

; 1294 : 						{	// rotate red up from right subtree
; 1295 : 						this->_Color(_Pnode) = this->_Black;

  0014f	88 58 14	 mov	 BYTE PTR [eax+20], bl

; 1296 : 						this->_Color(_Fixnodeparent) = this->_Red;
; 1297 : 						_Lrotate(_Fixnodeparent);

  00152	56		 push	 esi
  00153	c6 46 14 00	 mov	 BYTE PTR [esi+20], 0
  00157	e8 00 00 00 00	 call	 ?_Lrotate@?$_Tree@V?$_Tmap_traits@HPAUGAMESHOP_ITEM_DATA@@U?$less@H@std@@V?$allocator@U?$pair@$$CBHPAUGAMESHOP_ITEM_DATA@@@std@@@3@$0A@@std@@@std@@IAEXPAU_Node@?$_Tree_nod@V?$_Tmap_traits@HPAUGAMESHOP_ITEM_DATA@@U?$less@H@std@@V?$allocator@U?$pair@$$CBHPAUGAMESHOP_ITEM_DATA@@@std@@@3@$0A@@std@@@2@@Z ; std::_Tree<std::_Tmap_traits<int,GAMESHOP_ITEM_DATA *,std::less<int>,std::allocator<std::pair<int const ,GAMESHOP_ITEM_DATA *> >,0> >::_Lrotate

; 1298 : 						_Pnode = this->_Right(_Fixnodeparent);

  0015c	8b 46 08	 mov	 eax, DWORD PTR [esi+8]
  0015f	8b 4d fc	 mov	 ecx, DWORD PTR _this$[ebp]
$LN14@erase:

; 1299 : 						}
; 1300 : 
; 1301 : 					if (this->_Isnil(_Pnode))

  00162	80 78 15 00	 cmp	 BYTE PTR [eax+21], 0

; 1302 : 						_Fixnode = _Fixnodeparent;	// shouldn't happen
; 1303 : 					else if (this->_Color(this->_Left(_Pnode)) == this->_Black

  00166	75 74		 jne	 SHORT $LN293@erase

; 1304 : 						&& this->_Color(this->_Right(_Pnode)) == this->_Black)

  00168	8b 10		 mov	 edx, DWORD PTR [eax]
  0016a	38 5a 14	 cmp	 BYTE PTR [edx+20], bl
  0016d	75 08		 jne	 SHORT $LN11@erase
  0016f	8b 50 08	 mov	 edx, DWORD PTR [eax+8]
  00172	38 5a 14	 cmp	 BYTE PTR [edx+20], bl
  00175	74 61		 je	 SHORT $LN294@erase
$LN11@erase:

; 1305 : 						{	// redden right subtree with black children
; 1306 : 						this->_Color(_Pnode) = this->_Red;
; 1307 : 						_Fixnode = _Fixnodeparent;
; 1308 : 						}
; 1309 : 					else
; 1310 : 						{	// must rearrange right subtree
; 1311 : 						if (this->_Color(this->_Right(_Pnode))
; 1312 : 							== this->_Black)

  00177	8b 50 08	 mov	 edx, DWORD PTR [eax+8]
  0017a	38 5a 14	 cmp	 BYTE PTR [edx+20], bl
  0017d	75 15		 jne	 SHORT $LN9@erase

; 1313 : 							{	// rotate red up from left sub-subtree
; 1314 : 							this->_Color(this->_Left(_Pnode)) = this->_Black;

  0017f	8b 10		 mov	 edx, DWORD PTR [eax]
  00181	88 5a 14	 mov	 BYTE PTR [edx+20], bl

; 1315 : 							this->_Color(_Pnode) = this->_Red;
; 1316 : 							_Rrotate(_Pnode);

  00184	50		 push	 eax
  00185	c6 40 14 00	 mov	 BYTE PTR [eax+20], 0
  00189	e8 00 00 00 00	 call	 ?_Rrotate@?$_Tree@V?$_Tmap_traits@HPAUGAMESHOP_ITEM_DATA@@U?$less@H@std@@V?$allocator@U?$pair@$$CBHPAUGAMESHOP_ITEM_DATA@@@std@@@3@$0A@@std@@@std@@IAEXPAU_Node@?$_Tree_nod@V?$_Tmap_traits@HPAUGAMESHOP_ITEM_DATA@@U?$less@H@std@@V?$allocator@U?$pair@$$CBHPAUGAMESHOP_ITEM_DATA@@@std@@@3@$0A@@std@@@2@@Z ; std::_Tree<std::_Tmap_traits<int,GAMESHOP_ITEM_DATA *,std::less<int>,std::allocator<std::pair<int const ,GAMESHOP_ITEM_DATA *> >,0> >::_Rrotate

; 1317 : 							_Pnode = this->_Right(_Fixnodeparent);

  0018e	8b 46 08	 mov	 eax, DWORD PTR [esi+8]
  00191	8b 4d fc	 mov	 ecx, DWORD PTR _this$[ebp]
$LN9@erase:

; 1318 : 							}
; 1319 : 
; 1320 : 						this->_Color(_Pnode) = this->_Color(_Fixnodeparent);

  00194	8a 56 14	 mov	 dl, BYTE PTR [esi+20]
  00197	88 50 14	 mov	 BYTE PTR [eax+20], dl

; 1321 : 						this->_Color(_Fixnodeparent) = this->_Black;

  0019a	88 5e 14	 mov	 BYTE PTR [esi+20], bl

; 1322 : 						this->_Color(this->_Right(_Pnode)) = this->_Black;

  0019d	8b 40 08	 mov	 eax, DWORD PTR [eax+8]

; 1323 : 						_Lrotate(_Fixnodeparent);

  001a0	56		 push	 esi
  001a1	88 58 14	 mov	 BYTE PTR [eax+20], bl
  001a4	e8 00 00 00 00	 call	 ?_Lrotate@?$_Tree@V?$_Tmap_traits@HPAUGAMESHOP_ITEM_DATA@@U?$less@H@std@@V?$allocator@U?$pair@$$CBHPAUGAMESHOP_ITEM_DATA@@@std@@@3@$0A@@std@@@std@@IAEXPAU_Node@?$_Tree_nod@V?$_Tmap_traits@HPAUGAMESHOP_ITEM_DATA@@U?$less@H@std@@V?$allocator@U?$pair@$$CBHPAUGAMESHOP_ITEM_DATA@@@std@@@3@$0A@@std@@@2@@Z ; std::_Tree<std::_Tmap_traits<int,GAMESHOP_ITEM_DATA *,std::less<int>,std::allocator<std::pair<int const ,GAMESHOP_ITEM_DATA *> >,0> >::_Lrotate

; 1324 : 						break;	// tree now recolored/rebalanced

  001a9	eb 74		 jmp	 SHORT $LN16@erase
$LN15@erase:

; 1325 : 						}
; 1326 : 					}
; 1327 : 				else
; 1328 : 					{	// fixup right subtree
; 1329 : 					_Pnode = this->_Left(_Fixnodeparent);
; 1330 : 					if (this->_Color(_Pnode) == this->_Red)

  001ab	80 78 14 00	 cmp	 BYTE PTR [eax+20], 0
  001af	75 12		 jne	 SHORT $LN7@erase

; 1331 : 						{	// rotate red up from left subtree
; 1332 : 						this->_Color(_Pnode) = this->_Black;

  001b1	88 58 14	 mov	 BYTE PTR [eax+20], bl

; 1333 : 						this->_Color(_Fixnodeparent) = this->_Red;
; 1334 : 						_Rrotate(_Fixnodeparent);

  001b4	56		 push	 esi
  001b5	c6 46 14 00	 mov	 BYTE PTR [esi+20], 0
  001b9	e8 00 00 00 00	 call	 ?_Rrotate@?$_Tree@V?$_Tmap_traits@HPAUGAMESHOP_ITEM_DATA@@U?$less@H@std@@V?$allocator@U?$pair@$$CBHPAUGAMESHOP_ITEM_DATA@@@std@@@3@$0A@@std@@@std@@IAEXPAU_Node@?$_Tree_nod@V?$_Tmap_traits@HPAUGAMESHOP_ITEM_DATA@@U?$less@H@std@@V?$allocator@U?$pair@$$CBHPAUGAMESHOP_ITEM_DATA@@@std@@@3@$0A@@std@@@2@@Z ; std::_Tree<std::_Tmap_traits<int,GAMESHOP_ITEM_DATA *,std::less<int>,std::allocator<std::pair<int const ,GAMESHOP_ITEM_DATA *> >,0> >::_Rrotate

; 1335 : 						_Pnode = this->_Left(_Fixnodeparent);

  001be	8b 06		 mov	 eax, DWORD PTR [esi]
  001c0	8b 4d fc	 mov	 ecx, DWORD PTR _this$[ebp]
$LN7@erase:

; 1336 : 						}
; 1337 : 					if (this->_Isnil(_Pnode))

  001c3	80 78 15 00	 cmp	 BYTE PTR [eax+21], 0

; 1338 : 						_Fixnode = _Fixnodeparent;	// shouldn't happen
; 1339 : 					else if (this->_Color(this->_Right(_Pnode)) ==

  001c7	75 13		 jne	 SHORT $LN293@erase

; 1340 : 						this->_Black
; 1341 : 						&& this->_Color(this->_Left(_Pnode)) == this->_Black)

  001c9	8b 50 08	 mov	 edx, DWORD PTR [eax+8]
  001cc	38 5a 14	 cmp	 BYTE PTR [edx+20], bl
  001cf	75 1e		 jne	 SHORT $LN4@erase
  001d1	8b 10		 mov	 edx, DWORD PTR [eax]
  001d3	38 5a 14	 cmp	 BYTE PTR [edx+20], bl
  001d6	75 17		 jne	 SHORT $LN4@erase
$LN294@erase:

; 1342 : 						{	// redden left subtree with black children
; 1343 : 						this->_Color(_Pnode) = this->_Red;

  001d8	c6 40 14 00	 mov	 BYTE PTR [eax+20], 0
$LN293@erase:

; 1286 : 			{	// erasing black link, must recolor/rebalance tree
; 1287 : 			for (; _Fixnode != _Root()
; 1288 : 				&& this->_Color(_Fixnode) == this->_Black;
; 1289 : 				_Fixnodeparent = this->_Parent(_Fixnode))

  001dc	8b 41 04	 mov	 eax, DWORD PTR [ecx+4]

; 1344 : 						_Fixnode = _Fixnodeparent;

  001df	8b fe		 mov	 edi, esi
  001e1	8b 76 04	 mov	 esi, DWORD PTR [esi+4]
  001e4	3b 78 04	 cmp	 edi, DWORD PTR [eax+4]
  001e7	0f 85 4a ff ff
	ff		 jne	 $LL18@erase

; 1286 : 			{	// erasing black link, must recolor/rebalance tree
; 1287 : 			for (; _Fixnode != _Root()
; 1288 : 				&& this->_Color(_Fixnode) == this->_Black;
; 1289 : 				_Fixnodeparent = this->_Parent(_Fixnode))

  001ed	eb 30		 jmp	 SHORT $LN16@erase
$LN4@erase:

; 1345 : 						}
; 1346 : 					else
; 1347 : 						{	// must rearrange left subtree
; 1348 : 						if (this->_Color(this->_Left(_Pnode)) == this->_Black)

  001ef	8b 10		 mov	 edx, DWORD PTR [eax]
  001f1	38 5a 14	 cmp	 BYTE PTR [edx+20], bl
  001f4	75 15		 jne	 SHORT $LN2@erase

; 1349 : 							{	// rotate red up from right sub-subtree
; 1350 : 							this->_Color(this->_Right(_Pnode)) = this->_Black;

  001f6	8b 50 08	 mov	 edx, DWORD PTR [eax+8]
  001f9	88 5a 14	 mov	 BYTE PTR [edx+20], bl

; 1351 : 							this->_Color(_Pnode) = this->_Red;
; 1352 : 							_Lrotate(_Pnode);

  001fc	50		 push	 eax
  001fd	c6 40 14 00	 mov	 BYTE PTR [eax+20], 0
  00201	e8 00 00 00 00	 call	 ?_Lrotate@?$_Tree@V?$_Tmap_traits@HPAUGAMESHOP_ITEM_DATA@@U?$less@H@std@@V?$allocator@U?$pair@$$CBHPAUGAMESHOP_ITEM_DATA@@@std@@@3@$0A@@std@@@std@@IAEXPAU_Node@?$_Tree_nod@V?$_Tmap_traits@HPAUGAMESHOP_ITEM_DATA@@U?$less@H@std@@V?$allocator@U?$pair@$$CBHPAUGAMESHOP_ITEM_DATA@@@std@@@3@$0A@@std@@@2@@Z ; std::_Tree<std::_Tmap_traits<int,GAMESHOP_ITEM_DATA *,std::less<int>,std::allocator<std::pair<int const ,GAMESHOP_ITEM_DATA *> >,0> >::_Lrotate

; 1353 : 							_Pnode = this->_Left(_Fixnodeparent);

  00206	8b 06		 mov	 eax, DWORD PTR [esi]
  00208	8b 4d fc	 mov	 ecx, DWORD PTR _this$[ebp]
$LN2@erase:

; 1354 : 							}
; 1355 : 
; 1356 : 						this->_Color(_Pnode) = this->_Color(_Fixnodeparent);

  0020b	8a 56 14	 mov	 dl, BYTE PTR [esi+20]
  0020e	88 50 14	 mov	 BYTE PTR [eax+20], dl

; 1357 : 						this->_Color(_Fixnodeparent) = this->_Black;

  00211	88 5e 14	 mov	 BYTE PTR [esi+20], bl

; 1358 : 						this->_Color(this->_Left(_Pnode)) = this->_Black;

  00214	8b 00		 mov	 eax, DWORD PTR [eax]

; 1359 : 						_Rrotate(_Fixnodeparent);

  00216	56		 push	 esi
  00217	88 58 14	 mov	 BYTE PTR [eax+20], bl
  0021a	e8 00 00 00 00	 call	 ?_Rrotate@?$_Tree@V?$_Tmap_traits@HPAUGAMESHOP_ITEM_DATA@@U?$less@H@std@@V?$allocator@U?$pair@$$CBHPAUGAMESHOP_ITEM_DATA@@@std@@@3@$0A@@std@@@std@@IAEXPAU_Node@?$_Tree_nod@V?$_Tmap_traits@HPAUGAMESHOP_ITEM_DATA@@U?$less@H@std@@V?$allocator@U?$pair@$$CBHPAUGAMESHOP_ITEM_DATA@@@std@@@3@$0A@@std@@@2@@Z ; std::_Tree<std::_Tmap_traits<int,GAMESHOP_ITEM_DATA *,std::less<int>,std::allocator<std::pair<int const ,GAMESHOP_ITEM_DATA *> >,0> >::_Rrotate
$LN16@erase:

; 1360 : 						break;	// tree now recolored/rebalanced
; 1361 : 						}
; 1362 : 					}
; 1363 : 
; 1364 : 			this->_Color(_Fixnode) = this->_Black;	// stopping node is black

  0021f	88 5f 14	 mov	 BYTE PTR [edi+20], bl
$LN19@erase:

; 1365 : 			}
; 1366 : 
; 1367 : 		_Dest_val(this->_Alval,
; 1368 : 			_STD addressof(this->_Myval(_Erasednode)));	// delete erased node
; 1369 : 
; 1370 : 		this->_Alnod.deallocate(_Erasednode, 1);

  00222	8b 4d f8	 mov	 ecx, DWORD PTR __Erasednode$[ebp]
  00225	51		 push	 ecx
  00226	e8 00 00 00 00	 call	 ??3@YAXPAX@Z		; operator delete

; 1371 : 
; 1372 : 		if (0 < this->_Mysize)

  0022b	8b 4d fc	 mov	 ecx, DWORD PTR _this$[ebp]
  0022e	8b 41 08	 mov	 eax, DWORD PTR [ecx+8]
  00231	83 c4 04	 add	 esp, 4
  00234	5f		 pop	 edi
  00235	5e		 pop	 esi
  00236	5b		 pop	 ebx
  00237	85 c0		 test	 eax, eax
  00239	74 04		 je	 SHORT $LN1@erase

; 1373 : 			--this->_Mysize;

  0023b	48		 dec	 eax
  0023c	89 41 08	 mov	 DWORD PTR [ecx+8], eax
$LN1@erase:

; 1374 : 
; 1375 : 		return (iterator(_Where._Ptr, this));	// return successor iterator

  0023f	8b 45 08	 mov	 eax, DWORD PTR ___$ReturnUdt$[ebp]
  00242	8b 55 0c	 mov	 edx, DWORD PTR __Where$[ebp]
  00245	89 10		 mov	 DWORD PTR [eax], edx

; 1376 : 		}

  00247	8b e5		 mov	 esp, ebp
  00249	5d		 pop	 ebp
  0024a	c2 08 00	 ret	 8
$LN292@erase:
?erase@?$_Tree@V?$_Tmap_traits@HPAUGAMESHOP_ITEM_DATA@@U?$less@H@std@@V?$allocator@U?$pair@$$CBHPAUGAMESHOP_ITEM_DATA@@@std@@@3@$0A@@std@@@std@@QAE?AV?$_Tree_iterator@V?$_Tree_val@V?$_Tmap_traits@HPAUGAMESHOP_ITEM_DATA@@U?$less@H@std@@V?$allocator@U?$pair@$$CBHPAUGAMESHOP_ITEM_DATA@@@std@@@3@$0A@@std@@@std@@@2@V?$_Tree_const_iterator@V?$_Tree_val@V?$_Tmap_traits@HPAUGAMESHOP_ITEM_DATA@@U?$less@H@std@@V?$allocator@U?$pair@$$CBHPAUGAMESHOP_ITEM_DATA@@@std@@@3@$0A@@std@@@std@@@2@@Z ENDP ; std::_Tree<std::_Tmap_traits<int,GAMESHOP_ITEM_DATA *,std::less<int>,std::allocator<std::pair<int const ,GAMESHOP_ITEM_DATA *> >,0> >::erase
_TEXT	ENDS
PUBLIC	?erase@?$_Tree@V?$_Tmap_traits@HPAUGAMESHOP_PACKAGE_DATA@@U?$less@H@std@@V?$allocator@U?$pair@$$CBHPAUGAMESHOP_PACKAGE_DATA@@@std@@@3@$0A@@std@@@std@@QAE?AV?$_Tree_iterator@V?$_Tree_val@V?$_Tmap_traits@HPAUGAMESHOP_PACKAGE_DATA@@U?$less@H@std@@V?$allocator@U?$pair@$$CBHPAUGAMESHOP_PACKAGE_DATA@@@std@@@3@$0A@@std@@@std@@@2@V?$_Tree_const_iterator@V?$_Tree_val@V?$_Tmap_traits@HPAUGAMESHOP_PACKAGE_DATA@@U?$less@H@std@@V?$allocator@U?$pair@$$CBHPAUGAMESHOP_PACKAGE_DATA@@@std@@@3@$0A@@std@@@std@@@2@@Z ; std::_Tree<std::_Tmap_traits<int,GAMESHOP_PACKAGE_DATA *,std::less<int>,std::allocator<std::pair<int const ,GAMESHOP_PACKAGE_DATA *> >,0> >::erase
; Function compile flags: /Ogtp
;	COMDAT ?erase@?$_Tree@V?$_Tmap_traits@HPAUGAMESHOP_PACKAGE_DATA@@U?$less@H@std@@V?$allocator@U?$pair@$$CBHPAUGAMESHOP_PACKAGE_DATA@@@std@@@3@$0A@@std@@@std@@QAE?AV?$_Tree_iterator@V?$_Tree_val@V?$_Tmap_traits@HPAUGAMESHOP_PACKAGE_DATA@@U?$less@H@std@@V?$allocator@U?$pair@$$CBHPAUGAMESHOP_PACKAGE_DATA@@@std@@@3@$0A@@std@@@std@@@2@V?$_Tree_const_iterator@V?$_Tree_val@V?$_Tmap_traits@HPAUGAMESHOP_PACKAGE_DATA@@U?$less@H@std@@V?$allocator@U?$pair@$$CBHPAUGAMESHOP_PACKAGE_DATA@@@std@@@3@$0A@@std@@@std@@@2@@Z
_TEXT	SEGMENT
tv795 = -12						; size = 4
__Erasednode$ = -8					; size = 4
_this$ = -4						; size = 4
___$ReturnUdt$ = 8					; size = 4
__Where$ = 12						; size = 4
?erase@?$_Tree@V?$_Tmap_traits@HPAUGAMESHOP_PACKAGE_DATA@@U?$less@H@std@@V?$allocator@U?$pair@$$CBHPAUGAMESHOP_PACKAGE_DATA@@@std@@@3@$0A@@std@@@std@@QAE?AV?$_Tree_iterator@V?$_Tree_val@V?$_Tmap_traits@HPAUGAMESHOP_PACKAGE_DATA@@U?$less@H@std@@V?$allocator@U?$pair@$$CBHPAUGAMESHOP_PACKAGE_DATA@@@std@@@3@$0A@@std@@@std@@@2@V?$_Tree_const_iterator@V?$_Tree_val@V?$_Tmap_traits@HPAUGAMESHOP_PACKAGE_DATA@@U?$less@H@std@@V?$allocator@U?$pair@$$CBHPAUGAMESHOP_PACKAGE_DATA@@@std@@@3@$0A@@std@@@std@@@2@@Z PROC ; std::_Tree<std::_Tmap_traits<int,GAMESHOP_PACKAGE_DATA *,std::less<int>,std::allocator<std::pair<int const ,GAMESHOP_PACKAGE_DATA *> >,0> >::erase, COMDAT
; _this$ = ecx

; 1195 : 		{	// erase element at _Where

  00000	55		 push	 ebp
  00001	8b ec		 mov	 ebp, esp
  00003	83 ec 0c	 sub	 esp, 12			; 0000000cH
  00006	53		 push	 ebx

; 1196 :  #if _ITERATOR_DEBUG_LEVEL == 2
; 1197 : 		if (_Where._Getcont() != this || this->_Isnil(_Where._Mynode()))
; 1198 : 			_DEBUG_ERROR("map/set erase iterator outside range");
; 1199 : 		_Nodeptr _Erasednode = _Where._Mynode();	// node to erase
; 1200 : 		++_Where;	// save successor iterator for return
; 1201 : 		_Orphan_ptr(*this, _Erasednode);
; 1202 : 
; 1203 :  #else /* _ITERATOR_DEBUG_LEVEL == 2 */
; 1204 : 		if (this->_Isnil(_Where._Mynode()))

  00007	8b 5d 0c	 mov	 ebx, DWORD PTR __Where$[ebp]
  0000a	80 7b 15 00	 cmp	 BYTE PTR [ebx+21], 0
  0000e	56		 push	 esi
  0000f	57		 push	 edi
  00010	89 4d fc	 mov	 DWORD PTR _this$[ebp], ecx
  00013	74 0a		 je	 SHORT $LN40@erase@2

; 1205 : 			_Xout_of_range("invalid map/set<T> iterator");

  00015	68 00 00 00 00	 push	 OFFSET ??_C@_0BM@PAPJHAGI@invalid?5map?1set?$DMT?$DO?5iterator?$AA@
  0001a	e8 00 00 00 00	 call	 ?_Xout_of_range@std@@YAXPBD@Z ; std::_Xout_of_range
$LN295@erase@2:
$LN40@erase@2:

; 1206 : 		_Nodeptr _Erasednode = _Where._Mynode();	// node to erase
; 1207 : 		++_Where;	// save successor iterator for return

  0001f	8d 4d 0c	 lea	 ecx, DWORD PTR __Where$[ebp]
  00022	89 5d f8	 mov	 DWORD PTR __Erasednode$[ebp], ebx
  00025	e8 00 00 00 00	 call	 ??E?$_Tree_unchecked_const_iterator@V?$_Tree_val@V?$_Tmap_traits@HPAUGAMESHOP_PACKAGE_DATA@@U?$less@H@std@@V?$allocator@U?$pair@$$CBHPAUGAMESHOP_PACKAGE_DATA@@@std@@@3@$0A@@std@@@std@@U_Iterator_base0@2@@std@@QAEAAV01@XZ ; std::_Tree_unchecked_const_iterator<std::_Tree_val<std::_Tmap_traits<int,GAMESHOP_PACKAGE_DATA *,std::less<int>,std::allocator<std::pair<int const ,GAMESHOP_PACKAGE_DATA *> >,0> >,std::_Iterator_base0>::operator++

; 1208 :  #endif /* _ITERATOR_DEBUG_LEVEL == 2 */
; 1209 : 
; 1210 : 		_Nodeptr _Fixnode;	// the node to recolor as needed
; 1211 : 		_Nodeptr _Fixnodeparent;	// parent of _Fixnode (which may be nil)
; 1212 : 		_Nodeptr _Pnode = _Erasednode;
; 1213 : 
; 1214 : 		if (this->_Isnil(this->_Left(_Pnode)))

  0002a	8b 0b		 mov	 ecx, DWORD PTR [ebx]
  0002c	80 79 15 00	 cmp	 BYTE PTR [ecx+21], 0
  00030	74 05		 je	 SHORT $LN39@erase@2

; 1215 : 			_Fixnode = this->_Right(_Pnode);	// stitch up right subtree

  00032	8b 7b 08	 mov	 edi, DWORD PTR [ebx+8]

; 1216 : 		else if (this->_Isnil(this->_Right(_Pnode)))

  00035	eb 17		 jmp	 SHORT $LN291@erase@2
$LN39@erase@2:
  00037	8b 43 08	 mov	 eax, DWORD PTR [ebx+8]
  0003a	80 78 15 00	 cmp	 BYTE PTR [eax+21], 0
  0003e	74 04		 je	 SHORT $LN37@erase@2

; 1217 : 			_Fixnode = this->_Left(_Pnode);	// stitch up left subtree

  00040	8b f9		 mov	 edi, ecx

; 1218 : 		else

  00042	eb 0a		 jmp	 SHORT $LN291@erase@2
$LN37@erase@2:

; 1219 : 			{	// two subtrees, must lift successor node to replace erased
; 1220 : 			_Pnode = _Where._Mynode();	// _Pnode is successor node

  00044	8b 45 0c	 mov	 eax, DWORD PTR __Where$[ebp]

; 1221 : 			_Fixnode = this->_Right(_Pnode);	// _Fixnode is only subtree

  00047	8b 78 08	 mov	 edi, DWORD PTR [eax+8]

; 1222 : 			}
; 1223 : 
; 1224 : 		if (_Pnode == _Erasednode)

  0004a	3b c3		 cmp	 eax, ebx
  0004c	75 72		 jne	 SHORT $LN35@erase@2
$LN291@erase@2:

; 1225 : 			{	// at most one subtree, relink it
; 1226 : 			_Fixnodeparent = this->_Parent(_Erasednode);
; 1227 : 			if (!this->_Isnil(_Fixnode))

  0004e	80 7f 15 00	 cmp	 BYTE PTR [edi+21], 0
  00052	8b 73 04	 mov	 esi, DWORD PTR [ebx+4]
  00055	75 03		 jne	 SHORT $LN34@erase@2

; 1228 : 				this->_Parent(_Fixnode) = _Fixnodeparent;	// link up

  00057	89 77 04	 mov	 DWORD PTR [edi+4], esi
$LN34@erase@2:

; 1229 : 
; 1230 : 			if (_Root() == _Erasednode)

  0005a	8b 4d fc	 mov	 ecx, DWORD PTR _this$[ebp]
  0005d	8b 41 04	 mov	 eax, DWORD PTR [ecx+4]
  00060	39 58 04	 cmp	 DWORD PTR [eax+4], ebx
  00063	75 05		 jne	 SHORT $LN33@erase@2

; 1231 : 				_Root() = _Fixnode;	// link down from root

  00065	89 78 04	 mov	 DWORD PTR [eax+4], edi

; 1232 : 			else if (this->_Left(_Fixnodeparent) == _Erasednode)

  00068	eb 0b		 jmp	 SHORT $LN30@erase@2
$LN33@erase@2:
  0006a	39 1e		 cmp	 DWORD PTR [esi], ebx
  0006c	75 04		 jne	 SHORT $LN31@erase@2

; 1233 : 				this->_Left(_Fixnodeparent) = _Fixnode;	// link down to left

  0006e	89 3e		 mov	 DWORD PTR [esi], edi

; 1234 : 			else

  00070	eb 03		 jmp	 SHORT $LN30@erase@2
$LN31@erase@2:

; 1235 : 				this->_Right(_Fixnodeparent) =
; 1236 : 					_Fixnode;	// link down to right

  00072	89 7e 08	 mov	 DWORD PTR [esi+8], edi
$LN30@erase@2:

; 1237 : 
; 1238 : 			if (_Lmost() == _Erasednode)

  00075	8b 41 04	 mov	 eax, DWORD PTR [ecx+4]
  00078	39 18		 cmp	 DWORD PTR [eax], ebx
  0007a	75 1b		 jne	 SHORT $LN29@erase@2

; 1239 : 				_Lmost() = this->_Isnil(_Fixnode)
; 1240 : 					? _Fixnodeparent	// smallest is parent of erased node
; 1241 : 					: this->_Min(_Fixnode);	// smallest in relinked subtree

  0007c	80 7f 15 00	 cmp	 BYTE PTR [edi+21], 0
  00080	74 04		 je	 SHORT $LN43@erase@2
  00082	8b c6		 mov	 eax, esi
  00084	eb 0c		 jmp	 SHORT $LN44@erase@2
$LN43@erase@2:
  00086	57		 push	 edi
  00087	e8 00 00 00 00	 call	 ?_Min@?$_Tree_val@V?$_Tmap_traits@HPAUGAMESHOP_PACKAGE_DATA@@U?$less@H@std@@V?$allocator@U?$pair@$$CBHPAUGAMESHOP_PACKAGE_DATA@@@std@@@3@$0A@@std@@@std@@SAPAU_Node@?$_Tree_nod@V?$_Tmap_traits@HPAUGAMESHOP_PACKAGE_DATA@@U?$less@H@std@@V?$allocator@U?$pair@$$CBHPAUGAMESHOP_PACKAGE_DATA@@@std@@@3@$0A@@std@@@2@PAU342@@Z ; std::_Tree_val<std::_Tmap_traits<int,GAMESHOP_PACKAGE_DATA *,std::less<int>,std::allocator<std::pair<int const ,GAMESHOP_PACKAGE_DATA *> >,0> >::_Min
  0008c	8b 4d fc	 mov	 ecx, DWORD PTR _this$[ebp]
  0008f	83 c4 04	 add	 esp, 4
$LN44@erase@2:
  00092	8b 51 04	 mov	 edx, DWORD PTR [ecx+4]
  00095	89 02		 mov	 DWORD PTR [edx], eax
$LN29@erase@2:

; 1242 : 
; 1243 : 			if (_Rmost() == _Erasednode)

  00097	8b 49 04	 mov	 ecx, DWORD PTR [ecx+4]
  0009a	89 4d f4	 mov	 DWORD PTR tv795[ebp], ecx
  0009d	39 59 08	 cmp	 DWORD PTR [ecx+8], ebx
  000a0	75 78		 jne	 SHORT $LN165@erase@2

; 1244 : 				_Rmost() = this->_Isnil(_Fixnode)
; 1245 : 					? _Fixnodeparent	// largest is parent of erased node
; 1246 : 					: this->_Max(_Fixnode);	// largest in relinked subtree

  000a2	80 7f 15 00	 cmp	 BYTE PTR [edi+21], 0
  000a6	74 07		 je	 SHORT $LN45@erase@2
  000a8	8b c6		 mov	 eax, esi
  000aa	89 41 08	 mov	 DWORD PTR [ecx+8], eax

; 1247 : 			}
; 1248 : 		else

  000ad	eb 6b		 jmp	 SHORT $LN165@erase@2
$LN45@erase@2:

; 1244 : 				_Rmost() = this->_Isnil(_Fixnode)
; 1245 : 					? _Fixnodeparent	// largest is parent of erased node
; 1246 : 					: this->_Max(_Fixnode);	// largest in relinked subtree

  000af	57		 push	 edi
  000b0	e8 00 00 00 00	 call	 ?_Max@?$_Tree_val@V?$_Tmap_traits@HPAUGAMESHOP_PACKAGE_DATA@@U?$less@H@std@@V?$allocator@U?$pair@$$CBHPAUGAMESHOP_PACKAGE_DATA@@@std@@@3@$0A@@std@@@std@@SAPAU_Node@?$_Tree_nod@V?$_Tmap_traits@HPAUGAMESHOP_PACKAGE_DATA@@U?$less@H@std@@V?$allocator@U?$pair@$$CBHPAUGAMESHOP_PACKAGE_DATA@@@std@@@3@$0A@@std@@@2@PAU342@@Z ; std::_Tree_val<std::_Tmap_traits<int,GAMESHOP_PACKAGE_DATA *,std::less<int>,std::allocator<std::pair<int const ,GAMESHOP_PACKAGE_DATA *> >,0> >::_Max
  000b5	8b 4d f4	 mov	 ecx, DWORD PTR tv795[ebp]
  000b8	83 c4 04	 add	 esp, 4
  000bb	89 41 08	 mov	 DWORD PTR [ecx+8], eax

; 1247 : 			}
; 1248 : 		else

  000be	eb 5a		 jmp	 SHORT $LN165@erase@2
$LN35@erase@2:

; 1249 : 			{	// erased has two subtrees, _Pnode is successor to erased
; 1250 : 			this->_Parent(this->_Left(_Erasednode)) =
; 1251 : 				_Pnode;	// link left up

  000c0	89 41 04	 mov	 DWORD PTR [ecx+4], eax

; 1252 : 			this->_Left(_Pnode) =
; 1253 : 				this->_Left(_Erasednode);	// link successor down

  000c3	8b 0b		 mov	 ecx, DWORD PTR [ebx]
  000c5	89 08		 mov	 DWORD PTR [eax], ecx

; 1254 : 
; 1255 : 			if (_Pnode == this->_Right(_Erasednode))

  000c7	3b 43 08	 cmp	 eax, DWORD PTR [ebx+8]
  000ca	75 04		 jne	 SHORT $LN26@erase@2

; 1256 : 				_Fixnodeparent = _Pnode;	// successor is next to erased

  000cc	8b f0		 mov	 esi, eax

; 1257 : 			else

  000ce	eb 1a		 jmp	 SHORT $LN25@erase@2
$LN26@erase@2:

; 1258 : 				{	// successor further down, link in place of erased
; 1259 : 				_Fixnodeparent =
; 1260 : 					this->_Parent(_Pnode);	// parent is successor's
; 1261 : 				if (!this->_Isnil(_Fixnode))

  000d0	80 7f 15 00	 cmp	 BYTE PTR [edi+21], 0
  000d4	8b 70 04	 mov	 esi, DWORD PTR [eax+4]
  000d7	75 03		 jne	 SHORT $LN24@erase@2

; 1262 : 					this->_Parent(_Fixnode) = _Fixnodeparent;	// link fix up

  000d9	89 77 04	 mov	 DWORD PTR [edi+4], esi
$LN24@erase@2:

; 1263 : 				this->_Left(_Fixnodeparent) = _Fixnode;	// link fix down

  000dc	89 3e		 mov	 DWORD PTR [esi], edi

; 1264 : 				this->_Right(_Pnode) =
; 1265 : 					this->_Right(_Erasednode);	// link next down

  000de	8b 4b 08	 mov	 ecx, DWORD PTR [ebx+8]
  000e1	89 48 08	 mov	 DWORD PTR [eax+8], ecx

; 1266 : 				this->_Parent(this->_Right(_Erasednode)) =
; 1267 : 					_Pnode;	// right up

  000e4	8b 53 08	 mov	 edx, DWORD PTR [ebx+8]
  000e7	89 42 04	 mov	 DWORD PTR [edx+4], eax
$LN25@erase@2:

; 1268 : 				}
; 1269 : 
; 1270 : 			if (_Root() == _Erasednode)

  000ea	8b 4d fc	 mov	 ecx, DWORD PTR _this$[ebp]
  000ed	8b 49 04	 mov	 ecx, DWORD PTR [ecx+4]
  000f0	39 59 04	 cmp	 DWORD PTR [ecx+4], ebx
  000f3	75 05		 jne	 SHORT $LN23@erase@2

; 1271 : 				_Root() = _Pnode;	// link down from root

  000f5	89 41 04	 mov	 DWORD PTR [ecx+4], eax

; 1272 : 			else if (this->_Left(this->_Parent(_Erasednode)) == _Erasednode)

  000f8	eb 0e		 jmp	 SHORT $LN20@erase@2
$LN23@erase@2:
  000fa	8b 4b 04	 mov	 ecx, DWORD PTR [ebx+4]
  000fd	39 19		 cmp	 DWORD PTR [ecx], ebx
  000ff	75 04		 jne	 SHORT $LN21@erase@2

; 1273 : 				this->_Left(this->_Parent(_Erasednode)) =
; 1274 : 					_Pnode;	// link down to left

  00101	89 01		 mov	 DWORD PTR [ecx], eax

; 1275 : 			else

  00103	eb 03		 jmp	 SHORT $LN20@erase@2
$LN21@erase@2:

; 1276 : 				this->_Right(this->_Parent(_Erasednode)) =
; 1277 : 					_Pnode;	// link down to right

  00105	89 41 08	 mov	 DWORD PTR [ecx+8], eax
$LN20@erase@2:

; 1278 : 
; 1279 : 			this->_Parent(_Pnode) =
; 1280 : 				this->_Parent(_Erasednode);	// link successor up

  00108	8b 53 04	 mov	 edx, DWORD PTR [ebx+4]
  0010b	89 50 04	 mov	 DWORD PTR [eax+4], edx

; 1281 : 			_STD swap(this->_Color(_Pnode),
; 1282 : 				this->_Color(_Erasednode));	// recolor it

  0010e	8a 53 14	 mov	 dl, BYTE PTR [ebx+20]
  00111	8a 48 14	 mov	 cl, BYTE PTR [eax+20]
  00114	88 50 14	 mov	 BYTE PTR [eax+20], dl
  00117	88 4b 14	 mov	 BYTE PTR [ebx+20], cl
$LN165@erase@2:

; 1283 : 			}
; 1284 : 
; 1285 : 		if (this->_Color(_Erasednode) == this->_Black)

  0011a	8b 45 f8	 mov	 eax, DWORD PTR __Erasednode$[ebp]
  0011d	b3 01		 mov	 bl, 1
  0011f	38 58 14	 cmp	 BYTE PTR [eax+20], bl
  00122	0f 85 fa 00 00
	00		 jne	 $LN19@erase@2

; 1286 : 			{	// erasing black link, must recolor/rebalance tree
; 1287 : 			for (; _Fixnode != _Root()
; 1288 : 				&& this->_Color(_Fixnode) == this->_Black;
; 1289 : 				_Fixnodeparent = this->_Parent(_Fixnode))

  00128	8b 4d fc	 mov	 ecx, DWORD PTR _this$[ebp]
  0012b	8b 51 04	 mov	 edx, DWORD PTR [ecx+4]
  0012e	3b 7a 04	 cmp	 edi, DWORD PTR [edx+4]
  00131	0f 84 e8 00 00
	00		 je	 $LN16@erase@2
$LL18@erase@2:
  00137	38 5f 14	 cmp	 BYTE PTR [edi+20], bl
  0013a	0f 85 df 00 00
	00		 jne	 $LN16@erase@2

; 1290 : 				if (_Fixnode == this->_Left(_Fixnodeparent))

  00140	8b 06		 mov	 eax, DWORD PTR [esi]
  00142	3b f8		 cmp	 edi, eax
  00144	75 65		 jne	 SHORT $LN15@erase@2

; 1291 : 					{	// fixup left subtree
; 1292 : 					_Pnode = this->_Right(_Fixnodeparent);

  00146	8b 46 08	 mov	 eax, DWORD PTR [esi+8]

; 1293 : 					if (this->_Color(_Pnode) == this->_Red)

  00149	80 78 14 00	 cmp	 BYTE PTR [eax+20], 0
  0014d	75 13		 jne	 SHORT $LN14@erase@2

; 1294 : 						{	// rotate red up from right subtree
; 1295 : 						this->_Color(_Pnode) = this->_Black;

  0014f	88 58 14	 mov	 BYTE PTR [eax+20], bl

; 1296 : 						this->_Color(_Fixnodeparent) = this->_Red;
; 1297 : 						_Lrotate(_Fixnodeparent);

  00152	56		 push	 esi
  00153	c6 46 14 00	 mov	 BYTE PTR [esi+20], 0
  00157	e8 00 00 00 00	 call	 ?_Lrotate@?$_Tree@V?$_Tmap_traits@HPAUGAMESHOP_PACKAGE_DATA@@U?$less@H@std@@V?$allocator@U?$pair@$$CBHPAUGAMESHOP_PACKAGE_DATA@@@std@@@3@$0A@@std@@@std@@IAEXPAU_Node@?$_Tree_nod@V?$_Tmap_traits@HPAUGAMESHOP_PACKAGE_DATA@@U?$less@H@std@@V?$allocator@U?$pair@$$CBHPAUGAMESHOP_PACKAGE_DATA@@@std@@@3@$0A@@std@@@2@@Z ; std::_Tree<std::_Tmap_traits<int,GAMESHOP_PACKAGE_DATA *,std::less<int>,std::allocator<std::pair<int const ,GAMESHOP_PACKAGE_DATA *> >,0> >::_Lrotate

; 1298 : 						_Pnode = this->_Right(_Fixnodeparent);

  0015c	8b 46 08	 mov	 eax, DWORD PTR [esi+8]
  0015f	8b 4d fc	 mov	 ecx, DWORD PTR _this$[ebp]
$LN14@erase@2:

; 1299 : 						}
; 1300 : 
; 1301 : 					if (this->_Isnil(_Pnode))

  00162	80 78 15 00	 cmp	 BYTE PTR [eax+21], 0

; 1302 : 						_Fixnode = _Fixnodeparent;	// shouldn't happen
; 1303 : 					else if (this->_Color(this->_Left(_Pnode)) == this->_Black

  00166	75 74		 jne	 SHORT $LN293@erase@2

; 1304 : 						&& this->_Color(this->_Right(_Pnode)) == this->_Black)

  00168	8b 10		 mov	 edx, DWORD PTR [eax]
  0016a	38 5a 14	 cmp	 BYTE PTR [edx+20], bl
  0016d	75 08		 jne	 SHORT $LN11@erase@2
  0016f	8b 50 08	 mov	 edx, DWORD PTR [eax+8]
  00172	38 5a 14	 cmp	 BYTE PTR [edx+20], bl
  00175	74 61		 je	 SHORT $LN294@erase@2
$LN11@erase@2:

; 1305 : 						{	// redden right subtree with black children
; 1306 : 						this->_Color(_Pnode) = this->_Red;
; 1307 : 						_Fixnode = _Fixnodeparent;
; 1308 : 						}
; 1309 : 					else
; 1310 : 						{	// must rearrange right subtree
; 1311 : 						if (this->_Color(this->_Right(_Pnode))
; 1312 : 							== this->_Black)

  00177	8b 50 08	 mov	 edx, DWORD PTR [eax+8]
  0017a	38 5a 14	 cmp	 BYTE PTR [edx+20], bl
  0017d	75 15		 jne	 SHORT $LN9@erase@2

; 1313 : 							{	// rotate red up from left sub-subtree
; 1314 : 							this->_Color(this->_Left(_Pnode)) = this->_Black;

  0017f	8b 10		 mov	 edx, DWORD PTR [eax]
  00181	88 5a 14	 mov	 BYTE PTR [edx+20], bl

; 1315 : 							this->_Color(_Pnode) = this->_Red;
; 1316 : 							_Rrotate(_Pnode);

  00184	50		 push	 eax
  00185	c6 40 14 00	 mov	 BYTE PTR [eax+20], 0
  00189	e8 00 00 00 00	 call	 ?_Rrotate@?$_Tree@V?$_Tmap_traits@HPAUGAMESHOP_PACKAGE_DATA@@U?$less@H@std@@V?$allocator@U?$pair@$$CBHPAUGAMESHOP_PACKAGE_DATA@@@std@@@3@$0A@@std@@@std@@IAEXPAU_Node@?$_Tree_nod@V?$_Tmap_traits@HPAUGAMESHOP_PACKAGE_DATA@@U?$less@H@std@@V?$allocator@U?$pair@$$CBHPAUGAMESHOP_PACKAGE_DATA@@@std@@@3@$0A@@std@@@2@@Z ; std::_Tree<std::_Tmap_traits<int,GAMESHOP_PACKAGE_DATA *,std::less<int>,std::allocator<std::pair<int const ,GAMESHOP_PACKAGE_DATA *> >,0> >::_Rrotate

; 1317 : 							_Pnode = this->_Right(_Fixnodeparent);

  0018e	8b 46 08	 mov	 eax, DWORD PTR [esi+8]
  00191	8b 4d fc	 mov	 ecx, DWORD PTR _this$[ebp]
$LN9@erase@2:

; 1318 : 							}
; 1319 : 
; 1320 : 						this->_Color(_Pnode) = this->_Color(_Fixnodeparent);

  00194	8a 56 14	 mov	 dl, BYTE PTR [esi+20]
  00197	88 50 14	 mov	 BYTE PTR [eax+20], dl

; 1321 : 						this->_Color(_Fixnodeparent) = this->_Black;

  0019a	88 5e 14	 mov	 BYTE PTR [esi+20], bl

; 1322 : 						this->_Color(this->_Right(_Pnode)) = this->_Black;

  0019d	8b 40 08	 mov	 eax, DWORD PTR [eax+8]

; 1323 : 						_Lrotate(_Fixnodeparent);

  001a0	56		 push	 esi
  001a1	88 58 14	 mov	 BYTE PTR [eax+20], bl
  001a4	e8 00 00 00 00	 call	 ?_Lrotate@?$_Tree@V?$_Tmap_traits@HPAUGAMESHOP_PACKAGE_DATA@@U?$less@H@std@@V?$allocator@U?$pair@$$CBHPAUGAMESHOP_PACKAGE_DATA@@@std@@@3@$0A@@std@@@std@@IAEXPAU_Node@?$_Tree_nod@V?$_Tmap_traits@HPAUGAMESHOP_PACKAGE_DATA@@U?$less@H@std@@V?$allocator@U?$pair@$$CBHPAUGAMESHOP_PACKAGE_DATA@@@std@@@3@$0A@@std@@@2@@Z ; std::_Tree<std::_Tmap_traits<int,GAMESHOP_PACKAGE_DATA *,std::less<int>,std::allocator<std::pair<int const ,GAMESHOP_PACKAGE_DATA *> >,0> >::_Lrotate

; 1324 : 						break;	// tree now recolored/rebalanced

  001a9	eb 74		 jmp	 SHORT $LN16@erase@2
$LN15@erase@2:

; 1325 : 						}
; 1326 : 					}
; 1327 : 				else
; 1328 : 					{	// fixup right subtree
; 1329 : 					_Pnode = this->_Left(_Fixnodeparent);
; 1330 : 					if (this->_Color(_Pnode) == this->_Red)

  001ab	80 78 14 00	 cmp	 BYTE PTR [eax+20], 0
  001af	75 12		 jne	 SHORT $LN7@erase@2

; 1331 : 						{	// rotate red up from left subtree
; 1332 : 						this->_Color(_Pnode) = this->_Black;

  001b1	88 58 14	 mov	 BYTE PTR [eax+20], bl

; 1333 : 						this->_Color(_Fixnodeparent) = this->_Red;
; 1334 : 						_Rrotate(_Fixnodeparent);

  001b4	56		 push	 esi
  001b5	c6 46 14 00	 mov	 BYTE PTR [esi+20], 0
  001b9	e8 00 00 00 00	 call	 ?_Rrotate@?$_Tree@V?$_Tmap_traits@HPAUGAMESHOP_PACKAGE_DATA@@U?$less@H@std@@V?$allocator@U?$pair@$$CBHPAUGAMESHOP_PACKAGE_DATA@@@std@@@3@$0A@@std@@@std@@IAEXPAU_Node@?$_Tree_nod@V?$_Tmap_traits@HPAUGAMESHOP_PACKAGE_DATA@@U?$less@H@std@@V?$allocator@U?$pair@$$CBHPAUGAMESHOP_PACKAGE_DATA@@@std@@@3@$0A@@std@@@2@@Z ; std::_Tree<std::_Tmap_traits<int,GAMESHOP_PACKAGE_DATA *,std::less<int>,std::allocator<std::pair<int const ,GAMESHOP_PACKAGE_DATA *> >,0> >::_Rrotate

; 1335 : 						_Pnode = this->_Left(_Fixnodeparent);

  001be	8b 06		 mov	 eax, DWORD PTR [esi]
  001c0	8b 4d fc	 mov	 ecx, DWORD PTR _this$[ebp]
$LN7@erase@2:

; 1336 : 						}
; 1337 : 					if (this->_Isnil(_Pnode))

  001c3	80 78 15 00	 cmp	 BYTE PTR [eax+21], 0

; 1338 : 						_Fixnode = _Fixnodeparent;	// shouldn't happen
; 1339 : 					else if (this->_Color(this->_Right(_Pnode)) ==

  001c7	75 13		 jne	 SHORT $LN293@erase@2

; 1340 : 						this->_Black
; 1341 : 						&& this->_Color(this->_Left(_Pnode)) == this->_Black)

  001c9	8b 50 08	 mov	 edx, DWORD PTR [eax+8]
  001cc	38 5a 14	 cmp	 BYTE PTR [edx+20], bl
  001cf	75 1e		 jne	 SHORT $LN4@erase@2
  001d1	8b 10		 mov	 edx, DWORD PTR [eax]
  001d3	38 5a 14	 cmp	 BYTE PTR [edx+20], bl
  001d6	75 17		 jne	 SHORT $LN4@erase@2
$LN294@erase@2:

; 1342 : 						{	// redden left subtree with black children
; 1343 : 						this->_Color(_Pnode) = this->_Red;

  001d8	c6 40 14 00	 mov	 BYTE PTR [eax+20], 0
$LN293@erase@2:

; 1286 : 			{	// erasing black link, must recolor/rebalance tree
; 1287 : 			for (; _Fixnode != _Root()
; 1288 : 				&& this->_Color(_Fixnode) == this->_Black;
; 1289 : 				_Fixnodeparent = this->_Parent(_Fixnode))

  001dc	8b 41 04	 mov	 eax, DWORD PTR [ecx+4]

; 1344 : 						_Fixnode = _Fixnodeparent;

  001df	8b fe		 mov	 edi, esi
  001e1	8b 76 04	 mov	 esi, DWORD PTR [esi+4]
  001e4	3b 78 04	 cmp	 edi, DWORD PTR [eax+4]
  001e7	0f 85 4a ff ff
	ff		 jne	 $LL18@erase@2

; 1286 : 			{	// erasing black link, must recolor/rebalance tree
; 1287 : 			for (; _Fixnode != _Root()
; 1288 : 				&& this->_Color(_Fixnode) == this->_Black;
; 1289 : 				_Fixnodeparent = this->_Parent(_Fixnode))

  001ed	eb 30		 jmp	 SHORT $LN16@erase@2
$LN4@erase@2:

; 1345 : 						}
; 1346 : 					else
; 1347 : 						{	// must rearrange left subtree
; 1348 : 						if (this->_Color(this->_Left(_Pnode)) == this->_Black)

  001ef	8b 10		 mov	 edx, DWORD PTR [eax]
  001f1	38 5a 14	 cmp	 BYTE PTR [edx+20], bl
  001f4	75 15		 jne	 SHORT $LN2@erase@2

; 1349 : 							{	// rotate red up from right sub-subtree
; 1350 : 							this->_Color(this->_Right(_Pnode)) = this->_Black;

  001f6	8b 50 08	 mov	 edx, DWORD PTR [eax+8]
  001f9	88 5a 14	 mov	 BYTE PTR [edx+20], bl

; 1351 : 							this->_Color(_Pnode) = this->_Red;
; 1352 : 							_Lrotate(_Pnode);

  001fc	50		 push	 eax
  001fd	c6 40 14 00	 mov	 BYTE PTR [eax+20], 0
  00201	e8 00 00 00 00	 call	 ?_Lrotate@?$_Tree@V?$_Tmap_traits@HPAUGAMESHOP_PACKAGE_DATA@@U?$less@H@std@@V?$allocator@U?$pair@$$CBHPAUGAMESHOP_PACKAGE_DATA@@@std@@@3@$0A@@std@@@std@@IAEXPAU_Node@?$_Tree_nod@V?$_Tmap_traits@HPAUGAMESHOP_PACKAGE_DATA@@U?$less@H@std@@V?$allocator@U?$pair@$$CBHPAUGAMESHOP_PACKAGE_DATA@@@std@@@3@$0A@@std@@@2@@Z ; std::_Tree<std::_Tmap_traits<int,GAMESHOP_PACKAGE_DATA *,std::less<int>,std::allocator<std::pair<int const ,GAMESHOP_PACKAGE_DATA *> >,0> >::_Lrotate

; 1353 : 							_Pnode = this->_Left(_Fixnodeparent);

  00206	8b 06		 mov	 eax, DWORD PTR [esi]
  00208	8b 4d fc	 mov	 ecx, DWORD PTR _this$[ebp]
$LN2@erase@2:

; 1354 : 							}
; 1355 : 
; 1356 : 						this->_Color(_Pnode) = this->_Color(_Fixnodeparent);

  0020b	8a 56 14	 mov	 dl, BYTE PTR [esi+20]
  0020e	88 50 14	 mov	 BYTE PTR [eax+20], dl

; 1357 : 						this->_Color(_Fixnodeparent) = this->_Black;

  00211	88 5e 14	 mov	 BYTE PTR [esi+20], bl

; 1358 : 						this->_Color(this->_Left(_Pnode)) = this->_Black;

  00214	8b 00		 mov	 eax, DWORD PTR [eax]

; 1359 : 						_Rrotate(_Fixnodeparent);

  00216	56		 push	 esi
  00217	88 58 14	 mov	 BYTE PTR [eax+20], bl
  0021a	e8 00 00 00 00	 call	 ?_Rrotate@?$_Tree@V?$_Tmap_traits@HPAUGAMESHOP_PACKAGE_DATA@@U?$less@H@std@@V?$allocator@U?$pair@$$CBHPAUGAMESHOP_PACKAGE_DATA@@@std@@@3@$0A@@std@@@std@@IAEXPAU_Node@?$_Tree_nod@V?$_Tmap_traits@HPAUGAMESHOP_PACKAGE_DATA@@U?$less@H@std@@V?$allocator@U?$pair@$$CBHPAUGAMESHOP_PACKAGE_DATA@@@std@@@3@$0A@@std@@@2@@Z ; std::_Tree<std::_Tmap_traits<int,GAMESHOP_PACKAGE_DATA *,std::less<int>,std::allocator<std::pair<int const ,GAMESHOP_PACKAGE_DATA *> >,0> >::_Rrotate
$LN16@erase@2:

; 1360 : 						break;	// tree now recolored/rebalanced
; 1361 : 						}
; 1362 : 					}
; 1363 : 
; 1364 : 			this->_Color(_Fixnode) = this->_Black;	// stopping node is black

  0021f	88 5f 14	 mov	 BYTE PTR [edi+20], bl
$LN19@erase@2:

; 1365 : 			}
; 1366 : 
; 1367 : 		_Dest_val(this->_Alval,
; 1368 : 			_STD addressof(this->_Myval(_Erasednode)));	// delete erased node
; 1369 : 
; 1370 : 		this->_Alnod.deallocate(_Erasednode, 1);

  00222	8b 4d f8	 mov	 ecx, DWORD PTR __Erasednode$[ebp]
  00225	51		 push	 ecx
  00226	e8 00 00 00 00	 call	 ??3@YAXPAX@Z		; operator delete

; 1371 : 
; 1372 : 		if (0 < this->_Mysize)

  0022b	8b 4d fc	 mov	 ecx, DWORD PTR _this$[ebp]
  0022e	8b 41 08	 mov	 eax, DWORD PTR [ecx+8]
  00231	83 c4 04	 add	 esp, 4
  00234	5f		 pop	 edi
  00235	5e		 pop	 esi
  00236	5b		 pop	 ebx
  00237	85 c0		 test	 eax, eax
  00239	74 04		 je	 SHORT $LN1@erase@2

; 1373 : 			--this->_Mysize;

  0023b	48		 dec	 eax
  0023c	89 41 08	 mov	 DWORD PTR [ecx+8], eax
$LN1@erase@2:

; 1374 : 
; 1375 : 		return (iterator(_Where._Ptr, this));	// return successor iterator

  0023f	8b 45 08	 mov	 eax, DWORD PTR ___$ReturnUdt$[ebp]
  00242	8b 55 0c	 mov	 edx, DWORD PTR __Where$[ebp]
  00245	89 10		 mov	 DWORD PTR [eax], edx

; 1376 : 		}

  00247	8b e5		 mov	 esp, ebp
  00249	5d		 pop	 ebp
  0024a	c2 08 00	 ret	 8
$LN292@erase@2:
?erase@?$_Tree@V?$_Tmap_traits@HPAUGAMESHOP_PACKAGE_DATA@@U?$less@H@std@@V?$allocator@U?$pair@$$CBHPAUGAMESHOP_PACKAGE_DATA@@@std@@@3@$0A@@std@@@std@@QAE?AV?$_Tree_iterator@V?$_Tree_val@V?$_Tmap_traits@HPAUGAMESHOP_PACKAGE_DATA@@U?$less@H@std@@V?$allocator@U?$pair@$$CBHPAUGAMESHOP_PACKAGE_DATA@@@std@@@3@$0A@@std@@@std@@@2@V?$_Tree_const_iterator@V?$_Tree_val@V?$_Tmap_traits@HPAUGAMESHOP_PACKAGE_DATA@@U?$less@H@std@@V?$allocator@U?$pair@$$CBHPAUGAMESHOP_PACKAGE_DATA@@@std@@@3@$0A@@std@@@std@@@2@@Z ENDP ; std::_Tree<std::_Tmap_traits<int,GAMESHOP_PACKAGE_DATA *,std::less<int>,std::allocator<std::pair<int const ,GAMESHOP_PACKAGE_DATA *> >,0> >::erase
_TEXT	ENDS
PUBLIC	??_C@_0BE@JONHPENG@map?1set?$DMT?$DO?5too?5long?$AA@ ; `string'
PUBLIC	?_Insert@?$_Tree@V?$_Tmap_traits@HPAUGAMESHOP_ITEM_DATA@@U?$less@H@std@@V?$allocator@U?$pair@$$CBHPAUGAMESHOP_ITEM_DATA@@@std@@@3@$0A@@std@@@std@@IAE?AV?$_Tree_iterator@V?$_Tree_val@V?$_Tmap_traits@HPAUGAMESHOP_ITEM_DATA@@U?$less@H@std@@V?$allocator@U?$pair@$$CBHPAUGAMESHOP_ITEM_DATA@@@std@@@3@$0A@@std@@@std@@@2@_NPAU_Node@?$_Tree_nod@V?$_Tmap_traits@HPAUGAMESHOP_ITEM_DATA@@U?$less@H@std@@V?$allocator@U?$pair@$$CBHPAUGAMESHOP_ITEM_DATA@@@std@@@3@$0A@@std@@@2@1@Z ; std::_Tree<std::_Tmap_traits<int,GAMESHOP_ITEM_DATA *,std::less<int>,std::allocator<std::pair<int const ,GAMESHOP_ITEM_DATA *> >,0> >::_Insert
EXTRN	?_Xlength_error@std@@YAXPBD@Z:PROC		; std::_Xlength_error
;	COMDAT ??_C@_0BE@JONHPENG@map?1set?$DMT?$DO?5too?5long?$AA@
; File d:\program files (x86)\microsoft visual studio 10.0\vc\include\xutility
CONST	SEGMENT
??_C@_0BE@JONHPENG@map?1set?$DMT?$DO?5too?5long?$AA@ DB 'map/set<T> too l'
	DB	'ong', 00H					; `string'
; Function compile flags: /Ogtp
; File d:\program files (x86)\microsoft visual studio 10.0\vc\include\xtree
CONST	ENDS
;	COMDAT ?_Insert@?$_Tree@V?$_Tmap_traits@HPAUGAMESHOP_ITEM_DATA@@U?$less@H@std@@V?$allocator@U?$pair@$$CBHPAUGAMESHOP_ITEM_DATA@@@std@@@3@$0A@@std@@@std@@IAE?AV?$_Tree_iterator@V?$_Tree_val@V?$_Tmap_traits@HPAUGAMESHOP_ITEM_DATA@@U?$less@H@std@@V?$allocator@U?$pair@$$CBHPAUGAMESHOP_ITEM_DATA@@@std@@@3@$0A@@std@@@std@@@2@_NPAU_Node@?$_Tree_nod@V?$_Tmap_traits@HPAUGAMESHOP_ITEM_DATA@@U?$less@H@std@@V?$allocator@U?$pair@$$CBHPAUGAMESHOP_ITEM_DATA@@@std@@@3@$0A@@std@@@2@1@Z
_TEXT	SEGMENT
___$ReturnUdt$ = 8					; size = 4
__Addleft$ = 12						; size = 1
__Wherenode$ = 16					; size = 4
__Newnode$ = 20						; size = 4
?_Insert@?$_Tree@V?$_Tmap_traits@HPAUGAMESHOP_ITEM_DATA@@U?$less@H@std@@V?$allocator@U?$pair@$$CBHPAUGAMESHOP_ITEM_DATA@@@std@@@3@$0A@@std@@@std@@IAE?AV?$_Tree_iterator@V?$_Tree_val@V?$_Tmap_traits@HPAUGAMESHOP_ITEM_DATA@@U?$less@H@std@@V?$allocator@U?$pair@$$CBHPAUGAMESHOP_ITEM_DATA@@@std@@@3@$0A@@std@@@std@@@2@_NPAU_Node@?$_Tree_nod@V?$_Tmap_traits@HPAUGAMESHOP_ITEM_DATA@@U?$less@H@std@@V?$allocator@U?$pair@$$CBHPAUGAMESHOP_ITEM_DATA@@@std@@@3@$0A@@std@@@2@1@Z PROC ; std::_Tree<std::_Tmap_traits<int,GAMESHOP_ITEM_DATA *,std::less<int>,std::allocator<std::pair<int const ,GAMESHOP_ITEM_DATA *> >,0> >::_Insert, COMDAT
; _this$ = ecx

; 1631 : 		{	// add node with value next to _Wherenode, to left if _Addleft

  00000	55		 push	 ebp
  00001	8b ec		 mov	 ebp, esp

; 1632 : 		if (max_size() - 1 <= this->_Mysize)

  00003	8b 41 08	 mov	 eax, DWORD PTR [ecx+8]
  00006	3d fe ff ff 1f	 cmp	 eax, 536870910		; 1ffffffeH
  0000b	72 16		 jb	 SHORT $LN17@Insert

; 1633 : 			{	// tree would get too big, fail
; 1634 : 			_Dest_val(this->_Alval,
; 1635 : 				_STD addressof(this->_Myval(_Newnode)));
; 1636 : 
; 1637 : 			this->_Alnod.deallocate(_Newnode, 1);

  0000d	8b 45 14	 mov	 eax, DWORD PTR __Newnode$[ebp]
  00010	50		 push	 eax
  00011	e8 00 00 00 00	 call	 ??3@YAXPAX@Z		; operator delete
  00016	83 c4 04	 add	 esp, 4

; 1638 : 
; 1639 : 			_Xlength_error("map/set<T> too long");

  00019	68 00 00 00 00	 push	 OFFSET ??_C@_0BE@JONHPENG@map?1set?$DMT?$DO?5too?5long?$AA@
  0001e	e8 00 00 00 00	 call	 ?_Xlength_error@std@@YAXPBD@Z ; std::_Xlength_error
$LN377@Insert:
$LN17@Insert:

; 1640 : 			}
; 1641 : 		++this->_Mysize;

  00023	40		 inc	 eax
  00024	53		 push	 ebx
  00025	89 41 08	 mov	 DWORD PTR [ecx+8], eax

; 1642 : 		_Newnode->_Parent = _Wherenode;

  00028	8b 45 10	 mov	 eax, DWORD PTR __Wherenode$[ebp]
  0002b	57		 push	 edi
  0002c	8b 7d 14	 mov	 edi, DWORD PTR __Newnode$[ebp]
  0002f	89 47 04	 mov	 DWORD PTR [edi+4], eax

; 1643 : 
; 1644 : 		if (_Wherenode == this->_Myhead)

  00032	8b 51 04	 mov	 edx, DWORD PTR [ecx+4]
  00035	32 db		 xor	 bl, bl
  00037	3b c2		 cmp	 eax, edx
  00039	75 10		 jne	 SHORT $LN16@Insert

; 1645 : 			{	// first node in tree, just set head values
; 1646 : 			_Root() = _Newnode;

  0003b	89 7a 04	 mov	 DWORD PTR [edx+4], edi

; 1647 : 			_Lmost() = _Newnode;

  0003e	8b 51 04	 mov	 edx, DWORD PTR [ecx+4]
  00041	89 3a		 mov	 DWORD PTR [edx], edi

; 1648 : 			_Rmost() = _Newnode;

  00043	8b 41 04	 mov	 eax, DWORD PTR [ecx+4]
  00046	89 78 08	 mov	 DWORD PTR [eax+8], edi
  00049	eb 20		 jmp	 SHORT $LN11@Insert
$LN16@Insert:

; 1649 : 			}
; 1650 : 		else if (_Addleft)

  0004b	38 5d 0c	 cmp	 BYTE PTR __Addleft$[ebp], bl
  0004e	74 0d		 je	 SHORT $LN14@Insert

; 1651 : 			{	// add to left of _Wherenode
; 1652 : 			this->_Left(_Wherenode) = _Newnode;

  00050	89 38		 mov	 DWORD PTR [eax], edi

; 1653 : 			if (_Wherenode == _Lmost())

  00052	8b 51 04	 mov	 edx, DWORD PTR [ecx+4]
  00055	3b 02		 cmp	 eax, DWORD PTR [edx]
  00057	75 12		 jne	 SHORT $LN11@Insert

; 1654 : 				_Lmost() = _Newnode;

  00059	89 3a		 mov	 DWORD PTR [edx], edi

; 1655 : 			}
; 1656 : 		else

  0005b	eb 0e		 jmp	 SHORT $LN11@Insert
$LN14@Insert:

; 1657 : 			{	// add to right of _Wherenode
; 1658 : 			this->_Right(_Wherenode) = _Newnode;

  0005d	89 78 08	 mov	 DWORD PTR [eax+8], edi

; 1659 : 			if (_Wherenode == _Rmost())

  00060	8b 51 04	 mov	 edx, DWORD PTR [ecx+4]
  00063	3b 42 08	 cmp	 eax, DWORD PTR [edx+8]
  00066	75 03		 jne	 SHORT $LN11@Insert

; 1660 : 				_Rmost() = _Newnode;

  00068	89 7a 08	 mov	 DWORD PTR [edx+8], edi
$LN11@Insert:

; 1661 : 			}
; 1662 : 
; 1663 : 		for (_Nodeptr _Pnode = _Newnode;
; 1664 : 			this->_Color(this->_Parent(_Pnode)) == this->_Red; )

  0006b	8b 57 04	 mov	 edx, DWORD PTR [edi+4]
  0006e	8b c7		 mov	 eax, edi
  00070	38 5a 14	 cmp	 BYTE PTR [edx+20], bl
  00073	0f 85 97 01 00
	00		 jne	 $LN9@Insert
  00079	56		 push	 esi
  0007a	8d 9b 00 00 00
	00		 npad	 6
$LL10@Insert:

; 1665 : 			if (this->_Parent(_Pnode)
; 1666 : 				== this->_Left(this->_Parent(this->_Parent(_Pnode))))

  00080	8b 50 04	 mov	 edx, DWORD PTR [eax+4]
  00083	8b 72 04	 mov	 esi, DWORD PTR [edx+4]
  00086	3b 16		 cmp	 edx, DWORD PTR [esi]
  00088	0f 85 c1 00 00
	00		 jne	 $LN8@Insert

; 1667 : 				{	// fixup red-red in left subtree
; 1668 : 				_Wherenode =
; 1669 : 					this->_Right(this->_Parent(this->_Parent(_Pnode)));

  0008e	8b 76 08	 mov	 esi, DWORD PTR [esi+8]

; 1670 : 				if (this->_Color(_Wherenode) == this->_Red)

  00091	38 5e 14	 cmp	 BYTE PTR [esi+20], bl
  00094	75 1c		 jne	 SHORT $LN7@Insert

; 1671 : 					{	// parent has two red children, blacken both
; 1672 : 					this->_Color(this->_Parent(_Pnode)) = this->_Black;

  00096	c6 42 14 01	 mov	 BYTE PTR [edx+20], 1

; 1673 : 					this->_Color(_Wherenode) = this->_Black;

  0009a	c6 46 14 01	 mov	 BYTE PTR [esi+20], 1

; 1674 : 					this->_Color(this->_Parent(this->_Parent(_Pnode)))
; 1675 : 						= this->_Red;

  0009e	8b 50 04	 mov	 edx, DWORD PTR [eax+4]
  000a1	8b 52 04	 mov	 edx, DWORD PTR [edx+4]
  000a4	88 5a 14	 mov	 BYTE PTR [edx+20], bl

; 1676 : 					_Pnode = this->_Parent(this->_Parent(_Pnode));

  000a7	8b 40 04	 mov	 eax, DWORD PTR [eax+4]
  000aa	8b 40 04	 mov	 eax, DWORD PTR [eax+4]

; 1677 : 					}
; 1678 : 				else

  000ad	e9 51 01 00 00	 jmp	 $LN316@Insert
$LN7@Insert:

; 1679 : 					{	// parent has red and black children
; 1680 : 					if (_Pnode == this->_Right(this->_Parent(_Pnode)))

  000b2	3b 42 08	 cmp	 eax, DWORD PTR [edx+8]
  000b5	75 3a		 jne	 SHORT $LN111@Insert

; 1681 : 						{	// rotate right child to left
; 1682 : 						_Pnode = this->_Parent(_Pnode);

  000b7	8b c2		 mov	 eax, edx

; 1683 : 						_Lrotate(_Pnode);

  000b9	8b 50 08	 mov	 edx, DWORD PTR [eax+8]
  000bc	8b 32		 mov	 esi, DWORD PTR [edx]
  000be	89 70 08	 mov	 DWORD PTR [eax+8], esi
  000c1	8b 32		 mov	 esi, DWORD PTR [edx]
  000c3	38 5e 15	 cmp	 BYTE PTR [esi+21], bl
  000c6	75 03		 jne	 SHORT $LN110@Insert
  000c8	89 46 04	 mov	 DWORD PTR [esi+4], eax
$LN110@Insert:
  000cb	8b 70 04	 mov	 esi, DWORD PTR [eax+4]
  000ce	89 72 04	 mov	 DWORD PTR [edx+4], esi
  000d1	8b 71 04	 mov	 esi, DWORD PTR [ecx+4]
  000d4	3b 46 04	 cmp	 eax, DWORD PTR [esi+4]
  000d7	75 05		 jne	 SHORT $LN109@Insert
  000d9	89 56 04	 mov	 DWORD PTR [esi+4], edx
  000dc	eb 0e		 jmp	 SHORT $LN106@Insert
$LN109@Insert:
  000de	8b 70 04	 mov	 esi, DWORD PTR [eax+4]
  000e1	3b 06		 cmp	 eax, DWORD PTR [esi]
  000e3	75 04		 jne	 SHORT $LN107@Insert
  000e5	89 16		 mov	 DWORD PTR [esi], edx
  000e7	eb 03		 jmp	 SHORT $LN106@Insert
$LN107@Insert:
  000e9	89 56 08	 mov	 DWORD PTR [esi+8], edx
$LN106@Insert:
  000ec	89 02		 mov	 DWORD PTR [edx], eax
  000ee	89 50 04	 mov	 DWORD PTR [eax+4], edx
$LN111@Insert:

; 1684 : 						}
; 1685 : 					this->_Color(this->_Parent(_Pnode)) =
; 1686 : 						this->_Black;	// propagate red up

  000f1	8b 50 04	 mov	 edx, DWORD PTR [eax+4]
  000f4	c6 42 14 01	 mov	 BYTE PTR [edx+20], 1

; 1687 : 					this->_Color(this->_Parent(this->_Parent(_Pnode))) =
; 1688 : 						this->_Red;

  000f8	8b 50 04	 mov	 edx, DWORD PTR [eax+4]
  000fb	8b 52 04	 mov	 edx, DWORD PTR [edx+4]
  000fe	88 5a 14	 mov	 BYTE PTR [edx+20], bl

; 1689 : 					_Rrotate(this->_Parent(this->_Parent(_Pnode)));

  00101	8b 50 04	 mov	 edx, DWORD PTR [eax+4]
  00104	8b 52 04	 mov	 edx, DWORD PTR [edx+4]
  00107	8b 32		 mov	 esi, DWORD PTR [edx]
  00109	8b 7e 08	 mov	 edi, DWORD PTR [esi+8]
  0010c	89 3a		 mov	 DWORD PTR [edx], edi
  0010e	8b 7e 08	 mov	 edi, DWORD PTR [esi+8]
  00111	38 5f 15	 cmp	 BYTE PTR [edi+21], bl
  00114	75 03		 jne	 SHORT $LN173@Insert
  00116	89 57 04	 mov	 DWORD PTR [edi+4], edx
$LN173@Insert:
  00119	8b 7a 04	 mov	 edi, DWORD PTR [edx+4]
  0011c	89 7e 04	 mov	 DWORD PTR [esi+4], edi
  0011f	8b 79 04	 mov	 edi, DWORD PTR [ecx+4]
  00122	3b 57 04	 cmp	 edx, DWORD PTR [edi+4]
  00125	75 0b		 jne	 SHORT $LN172@Insert
  00127	89 77 04	 mov	 DWORD PTR [edi+4], esi
  0012a	89 56 08	 mov	 DWORD PTR [esi+8], edx

; 1690 : 					}
; 1691 : 				}
; 1692 : 			else

  0012d	e9 cb 00 00 00	 jmp	 $LN376@Insert

; 1689 : 					_Rrotate(this->_Parent(this->_Parent(_Pnode)));

$LN172@Insert:
  00132	8b 7a 04	 mov	 edi, DWORD PTR [edx+4]
  00135	3b 57 08	 cmp	 edx, DWORD PTR [edi+8]
  00138	75 0b		 jne	 SHORT $LN170@Insert
  0013a	89 77 08	 mov	 DWORD PTR [edi+8], esi
  0013d	89 56 08	 mov	 DWORD PTR [esi+8], edx

; 1690 : 					}
; 1691 : 				}
; 1692 : 			else

  00140	e9 b8 00 00 00	 jmp	 $LN376@Insert

; 1689 : 					_Rrotate(this->_Parent(this->_Parent(_Pnode)));

$LN170@Insert:
  00145	89 37		 mov	 DWORD PTR [edi], esi
  00147	89 56 08	 mov	 DWORD PTR [esi+8], edx

; 1690 : 					}
; 1691 : 				}
; 1692 : 			else

  0014a	e9 ae 00 00 00	 jmp	 $LN376@Insert
$LN8@Insert:

; 1693 : 				{	// fixup red-red in right subtree
; 1694 : 				_Wherenode =
; 1695 : 					this->_Left(this->_Parent(this->_Parent(_Pnode)));

  0014f	8b 36		 mov	 esi, DWORD PTR [esi]

; 1696 : 				if (this->_Color(_Wherenode) == this->_Red)

  00151	38 5e 14	 cmp	 BYTE PTR [esi+20], bl
  00154	75 1c		 jne	 SHORT $LN3@Insert

; 1697 : 					{	// parent has two red children, blacken both
; 1698 : 					this->_Color(this->_Parent(_Pnode)) = this->_Black;

  00156	c6 42 14 01	 mov	 BYTE PTR [edx+20], 1

; 1699 : 					this->_Color(_Wherenode) = this->_Black;

  0015a	c6 46 14 01	 mov	 BYTE PTR [esi+20], 1

; 1700 : 					this->_Color(this->_Parent(this->_Parent(_Pnode))) =
; 1701 : 						this->_Red;

  0015e	8b 50 04	 mov	 edx, DWORD PTR [eax+4]
  00161	8b 52 04	 mov	 edx, DWORD PTR [edx+4]
  00164	88 5a 14	 mov	 BYTE PTR [edx+20], bl

; 1702 : 					_Pnode = this->_Parent(this->_Parent(_Pnode));

  00167	8b 40 04	 mov	 eax, DWORD PTR [eax+4]
  0016a	8b 40 04	 mov	 eax, DWORD PTR [eax+4]

; 1703 : 					}
; 1704 : 				else

  0016d	e9 91 00 00 00	 jmp	 $LN316@Insert
$LN3@Insert:

; 1705 : 					{	// parent has red and black children
; 1706 : 					if (_Pnode == this->_Left(this->_Parent(_Pnode)))

  00172	3b 02		 cmp	 eax, DWORD PTR [edx]
  00174	75 3c		 jne	 SHORT $LN253@Insert

; 1707 : 						{	// rotate left child to right
; 1708 : 						_Pnode = this->_Parent(_Pnode);

  00176	8b c2		 mov	 eax, edx

; 1709 : 						_Rrotate(_Pnode);

  00178	8b 10		 mov	 edx, DWORD PTR [eax]
  0017a	8b 72 08	 mov	 esi, DWORD PTR [edx+8]
  0017d	89 30		 mov	 DWORD PTR [eax], esi
  0017f	8b 72 08	 mov	 esi, DWORD PTR [edx+8]
  00182	38 5e 15	 cmp	 BYTE PTR [esi+21], bl
  00185	75 03		 jne	 SHORT $LN252@Insert
  00187	89 46 04	 mov	 DWORD PTR [esi+4], eax
$LN252@Insert:
  0018a	8b 70 04	 mov	 esi, DWORD PTR [eax+4]
  0018d	89 72 04	 mov	 DWORD PTR [edx+4], esi
  00190	8b 71 04	 mov	 esi, DWORD PTR [ecx+4]
  00193	3b 46 04	 cmp	 eax, DWORD PTR [esi+4]
  00196	75 05		 jne	 SHORT $LN251@Insert
  00198	89 56 04	 mov	 DWORD PTR [esi+4], edx
  0019b	eb 0f		 jmp	 SHORT $LN248@Insert
$LN251@Insert:
  0019d	8b 70 04	 mov	 esi, DWORD PTR [eax+4]
  001a0	3b 46 08	 cmp	 eax, DWORD PTR [esi+8]
  001a3	75 05		 jne	 SHORT $LN249@Insert
  001a5	89 56 08	 mov	 DWORD PTR [esi+8], edx
  001a8	eb 02		 jmp	 SHORT $LN248@Insert
$LN249@Insert:
  001aa	89 16		 mov	 DWORD PTR [esi], edx
$LN248@Insert:
  001ac	89 42 08	 mov	 DWORD PTR [edx+8], eax
  001af	89 50 04	 mov	 DWORD PTR [eax+4], edx
$LN253@Insert:

; 1710 : 						}
; 1711 : 					this->_Color(this->_Parent(_Pnode)) =
; 1712 : 						this->_Black;	// propagate red up

  001b2	8b 50 04	 mov	 edx, DWORD PTR [eax+4]
  001b5	c6 42 14 01	 mov	 BYTE PTR [edx+20], 1

; 1713 : 					this->_Color(this->_Parent(this->_Parent(_Pnode))) =
; 1714 : 						this->_Red;

  001b9	8b 50 04	 mov	 edx, DWORD PTR [eax+4]
  001bc	8b 52 04	 mov	 edx, DWORD PTR [edx+4]
  001bf	88 5a 14	 mov	 BYTE PTR [edx+20], bl

; 1715 : 					_Lrotate(this->_Parent(this->_Parent(_Pnode)));

  001c2	8b 50 04	 mov	 edx, DWORD PTR [eax+4]
  001c5	8b 52 04	 mov	 edx, DWORD PTR [edx+4]
  001c8	8b 72 08	 mov	 esi, DWORD PTR [edx+8]
  001cb	8b 3e		 mov	 edi, DWORD PTR [esi]
  001cd	89 7a 08	 mov	 DWORD PTR [edx+8], edi
  001d0	8b 3e		 mov	 edi, DWORD PTR [esi]
  001d2	38 5f 15	 cmp	 BYTE PTR [edi+21], bl
  001d5	75 03		 jne	 SHORT $LN315@Insert
  001d7	89 57 04	 mov	 DWORD PTR [edi+4], edx
$LN315@Insert:
  001da	8b 7a 04	 mov	 edi, DWORD PTR [edx+4]
  001dd	89 7e 04	 mov	 DWORD PTR [esi+4], edi
  001e0	8b 79 04	 mov	 edi, DWORD PTR [ecx+4]
  001e3	3b 57 04	 cmp	 edx, DWORD PTR [edi+4]
  001e6	75 05		 jne	 SHORT $LN314@Insert
  001e8	89 77 04	 mov	 DWORD PTR [edi+4], esi
  001eb	eb 0e		 jmp	 SHORT $LN311@Insert
$LN314@Insert:
  001ed	8b 7a 04	 mov	 edi, DWORD PTR [edx+4]
  001f0	3b 17		 cmp	 edx, DWORD PTR [edi]
  001f2	75 04		 jne	 SHORT $LN312@Insert
  001f4	89 37		 mov	 DWORD PTR [edi], esi
  001f6	eb 03		 jmp	 SHORT $LN311@Insert
$LN312@Insert:
  001f8	89 77 08	 mov	 DWORD PTR [edi+8], esi
$LN311@Insert:
  001fb	89 16		 mov	 DWORD PTR [esi], edx
$LN376@Insert:
  001fd	8b 7d 14	 mov	 edi, DWORD PTR __Newnode$[ebp]
  00200	89 72 04	 mov	 DWORD PTR [edx+4], esi
$LN316@Insert:

; 1661 : 			}
; 1662 : 
; 1663 : 		for (_Nodeptr _Pnode = _Newnode;
; 1664 : 			this->_Color(this->_Parent(_Pnode)) == this->_Red; )

  00203	8b 50 04	 mov	 edx, DWORD PTR [eax+4]
  00206	38 5a 14	 cmp	 BYTE PTR [edx+20], bl
  00209	0f 84 71 fe ff
	ff		 je	 $LL10@Insert
  0020f	5e		 pop	 esi
$LN9@Insert:

; 1716 : 					}
; 1717 : 				}
; 1718 : 
; 1719 : 		this->_Color(_Root()) = this->_Black;	// root is always black

  00210	8b 41 04	 mov	 eax, DWORD PTR [ecx+4]
  00213	8b 48 04	 mov	 ecx, DWORD PTR [eax+4]

; 1720 : 		return (iterator(_Newnode, this));

  00216	8b 45 08	 mov	 eax, DWORD PTR ___$ReturnUdt$[ebp]
  00219	89 38		 mov	 DWORD PTR [eax], edi
  0021b	5f		 pop	 edi
  0021c	c6 41 14 01	 mov	 BYTE PTR [ecx+20], 1
  00220	5b		 pop	 ebx

; 1721 : 		}

  00221	5d		 pop	 ebp
  00222	c2 10 00	 ret	 16			; 00000010H
$LN375@Insert:
?_Insert@?$_Tree@V?$_Tmap_traits@HPAUGAMESHOP_ITEM_DATA@@U?$less@H@std@@V?$allocator@U?$pair@$$CBHPAUGAMESHOP_ITEM_DATA@@@std@@@3@$0A@@std@@@std@@IAE?AV?$_Tree_iterator@V?$_Tree_val@V?$_Tmap_traits@HPAUGAMESHOP_ITEM_DATA@@U?$less@H@std@@V?$allocator@U?$pair@$$CBHPAUGAMESHOP_ITEM_DATA@@@std@@@3@$0A@@std@@@std@@@2@_NPAU_Node@?$_Tree_nod@V?$_Tmap_traits@HPAUGAMESHOP_ITEM_DATA@@U?$less@H@std@@V?$allocator@U?$pair@$$CBHPAUGAMESHOP_ITEM_DATA@@@std@@@3@$0A@@std@@@2@1@Z ENDP ; std::_Tree<std::_Tmap_traits<int,GAMESHOP_ITEM_DATA *,std::less<int>,std::allocator<std::pair<int const ,GAMESHOP_ITEM_DATA *> >,0> >::_Insert
_TEXT	ENDS
PUBLIC	?_Insert@?$_Tree@V?$_Tmap_traits@HPAUGAMESHOP_PACKAGE_DATA@@U?$less@H@std@@V?$allocator@U?$pair@$$CBHPAUGAMESHOP_PACKAGE_DATA@@@std@@@3@$0A@@std@@@std@@IAE?AV?$_Tree_iterator@V?$_Tree_val@V?$_Tmap_traits@HPAUGAMESHOP_PACKAGE_DATA@@U?$less@H@std@@V?$allocator@U?$pair@$$CBHPAUGAMESHOP_PACKAGE_DATA@@@std@@@3@$0A@@std@@@std@@@2@_NPAU_Node@?$_Tree_nod@V?$_Tmap_traits@HPAUGAMESHOP_PACKAGE_DATA@@U?$less@H@std@@V?$allocator@U?$pair@$$CBHPAUGAMESHOP_PACKAGE_DATA@@@std@@@3@$0A@@std@@@2@1@Z ; std::_Tree<std::_Tmap_traits<int,GAMESHOP_PACKAGE_DATA *,std::less<int>,std::allocator<std::pair<int const ,GAMESHOP_PACKAGE_DATA *> >,0> >::_Insert
; Function compile flags: /Ogtp
;	COMDAT ?_Insert@?$_Tree@V?$_Tmap_traits@HPAUGAMESHOP_PACKAGE_DATA@@U?$less@H@std@@V?$allocator@U?$pair@$$CBHPAUGAMESHOP_PACKAGE_DATA@@@std@@@3@$0A@@std@@@std@@IAE?AV?$_Tree_iterator@V?$_Tree_val@V?$_Tmap_traits@HPAUGAMESHOP_PACKAGE_DATA@@U?$less@H@std@@V?$allocator@U?$pair@$$CBHPAUGAMESHOP_PACKAGE_DATA@@@std@@@3@$0A@@std@@@std@@@2@_NPAU_Node@?$_Tree_nod@V?$_Tmap_traits@HPAUGAMESHOP_PACKAGE_DATA@@U?$less@H@std@@V?$allocator@U?$pair@$$CBHPAUGAMESHOP_PACKAGE_DATA@@@std@@@3@$0A@@std@@@2@1@Z
_TEXT	SEGMENT
___$ReturnUdt$ = 8					; size = 4
__Addleft$ = 12						; size = 1
__Wherenode$ = 16					; size = 4
__Newnode$ = 20						; size = 4
?_Insert@?$_Tree@V?$_Tmap_traits@HPAUGAMESHOP_PACKAGE_DATA@@U?$less@H@std@@V?$allocator@U?$pair@$$CBHPAUGAMESHOP_PACKAGE_DATA@@@std@@@3@$0A@@std@@@std@@IAE?AV?$_Tree_iterator@V?$_Tree_val@V?$_Tmap_traits@HPAUGAMESHOP_PACKAGE_DATA@@U?$less@H@std@@V?$allocator@U?$pair@$$CBHPAUGAMESHOP_PACKAGE_DATA@@@std@@@3@$0A@@std@@@std@@@2@_NPAU_Node@?$_Tree_nod@V?$_Tmap_traits@HPAUGAMESHOP_PACKAGE_DATA@@U?$less@H@std@@V?$allocator@U?$pair@$$CBHPAUGAMESHOP_PACKAGE_DATA@@@std@@@3@$0A@@std@@@2@1@Z PROC ; std::_Tree<std::_Tmap_traits<int,GAMESHOP_PACKAGE_DATA *,std::less<int>,std::allocator<std::pair<int const ,GAMESHOP_PACKAGE_DATA *> >,0> >::_Insert, COMDAT
; _this$ = ecx

; 1631 : 		{	// add node with value next to _Wherenode, to left if _Addleft

  00000	55		 push	 ebp
  00001	8b ec		 mov	 ebp, esp

; 1632 : 		if (max_size() - 1 <= this->_Mysize)

  00003	8b 41 08	 mov	 eax, DWORD PTR [ecx+8]
  00006	3d fe ff ff 1f	 cmp	 eax, 536870910		; 1ffffffeH
  0000b	72 16		 jb	 SHORT $LN17@Insert@2

; 1633 : 			{	// tree would get too big, fail
; 1634 : 			_Dest_val(this->_Alval,
; 1635 : 				_STD addressof(this->_Myval(_Newnode)));
; 1636 : 
; 1637 : 			this->_Alnod.deallocate(_Newnode, 1);

  0000d	8b 45 14	 mov	 eax, DWORD PTR __Newnode$[ebp]
  00010	50		 push	 eax
  00011	e8 00 00 00 00	 call	 ??3@YAXPAX@Z		; operator delete
  00016	83 c4 04	 add	 esp, 4

; 1638 : 
; 1639 : 			_Xlength_error("map/set<T> too long");

  00019	68 00 00 00 00	 push	 OFFSET ??_C@_0BE@JONHPENG@map?1set?$DMT?$DO?5too?5long?$AA@
  0001e	e8 00 00 00 00	 call	 ?_Xlength_error@std@@YAXPBD@Z ; std::_Xlength_error
$LN377@Insert@2:
$LN17@Insert@2:

; 1640 : 			}
; 1641 : 		++this->_Mysize;

  00023	40		 inc	 eax
  00024	53		 push	 ebx
  00025	89 41 08	 mov	 DWORD PTR [ecx+8], eax

; 1642 : 		_Newnode->_Parent = _Wherenode;

  00028	8b 45 10	 mov	 eax, DWORD PTR __Wherenode$[ebp]
  0002b	57		 push	 edi
  0002c	8b 7d 14	 mov	 edi, DWORD PTR __Newnode$[ebp]
  0002f	89 47 04	 mov	 DWORD PTR [edi+4], eax

; 1643 : 
; 1644 : 		if (_Wherenode == this->_Myhead)

  00032	8b 51 04	 mov	 edx, DWORD PTR [ecx+4]
  00035	32 db		 xor	 bl, bl
  00037	3b c2		 cmp	 eax, edx
  00039	75 10		 jne	 SHORT $LN16@Insert@2

; 1645 : 			{	// first node in tree, just set head values
; 1646 : 			_Root() = _Newnode;

  0003b	89 7a 04	 mov	 DWORD PTR [edx+4], edi

; 1647 : 			_Lmost() = _Newnode;

  0003e	8b 51 04	 mov	 edx, DWORD PTR [ecx+4]
  00041	89 3a		 mov	 DWORD PTR [edx], edi

; 1648 : 			_Rmost() = _Newnode;

  00043	8b 41 04	 mov	 eax, DWORD PTR [ecx+4]
  00046	89 78 08	 mov	 DWORD PTR [eax+8], edi
  00049	eb 20		 jmp	 SHORT $LN11@Insert@2
$LN16@Insert@2:

; 1649 : 			}
; 1650 : 		else if (_Addleft)

  0004b	38 5d 0c	 cmp	 BYTE PTR __Addleft$[ebp], bl
  0004e	74 0d		 je	 SHORT $LN14@Insert@2

; 1651 : 			{	// add to left of _Wherenode
; 1652 : 			this->_Left(_Wherenode) = _Newnode;

  00050	89 38		 mov	 DWORD PTR [eax], edi

; 1653 : 			if (_Wherenode == _Lmost())

  00052	8b 51 04	 mov	 edx, DWORD PTR [ecx+4]
  00055	3b 02		 cmp	 eax, DWORD PTR [edx]
  00057	75 12		 jne	 SHORT $LN11@Insert@2

; 1654 : 				_Lmost() = _Newnode;

  00059	89 3a		 mov	 DWORD PTR [edx], edi

; 1655 : 			}
; 1656 : 		else

  0005b	eb 0e		 jmp	 SHORT $LN11@Insert@2
$LN14@Insert@2:

; 1657 : 			{	// add to right of _Wherenode
; 1658 : 			this->_Right(_Wherenode) = _Newnode;

  0005d	89 78 08	 mov	 DWORD PTR [eax+8], edi

; 1659 : 			if (_Wherenode == _Rmost())

  00060	8b 51 04	 mov	 edx, DWORD PTR [ecx+4]
  00063	3b 42 08	 cmp	 eax, DWORD PTR [edx+8]
  00066	75 03		 jne	 SHORT $LN11@Insert@2

; 1660 : 				_Rmost() = _Newnode;

  00068	89 7a 08	 mov	 DWORD PTR [edx+8], edi
$LN11@Insert@2:

; 1661 : 			}
; 1662 : 
; 1663 : 		for (_Nodeptr _Pnode = _Newnode;
; 1664 : 			this->_Color(this->_Parent(_Pnode)) == this->_Red; )

  0006b	8b 57 04	 mov	 edx, DWORD PTR [edi+4]
  0006e	8b c7		 mov	 eax, edi
  00070	38 5a 14	 cmp	 BYTE PTR [edx+20], bl
  00073	0f 85 97 01 00
	00		 jne	 $LN9@Insert@2
  00079	56		 push	 esi
  0007a	8d 9b 00 00 00
	00		 npad	 6
$LL10@Insert@2:

; 1665 : 			if (this->_Parent(_Pnode)
; 1666 : 				== this->_Left(this->_Parent(this->_Parent(_Pnode))))

  00080	8b 50 04	 mov	 edx, DWORD PTR [eax+4]
  00083	8b 72 04	 mov	 esi, DWORD PTR [edx+4]
  00086	3b 16		 cmp	 edx, DWORD PTR [esi]
  00088	0f 85 c1 00 00
	00		 jne	 $LN8@Insert@2

; 1667 : 				{	// fixup red-red in left subtree
; 1668 : 				_Wherenode =
; 1669 : 					this->_Right(this->_Parent(this->_Parent(_Pnode)));

  0008e	8b 76 08	 mov	 esi, DWORD PTR [esi+8]

; 1670 : 				if (this->_Color(_Wherenode) == this->_Red)

  00091	38 5e 14	 cmp	 BYTE PTR [esi+20], bl
  00094	75 1c		 jne	 SHORT $LN7@Insert@2

; 1671 : 					{	// parent has two red children, blacken both
; 1672 : 					this->_Color(this->_Parent(_Pnode)) = this->_Black;

  00096	c6 42 14 01	 mov	 BYTE PTR [edx+20], 1

; 1673 : 					this->_Color(_Wherenode) = this->_Black;

  0009a	c6 46 14 01	 mov	 BYTE PTR [esi+20], 1

; 1674 : 					this->_Color(this->_Parent(this->_Parent(_Pnode)))
; 1675 : 						= this->_Red;

  0009e	8b 50 04	 mov	 edx, DWORD PTR [eax+4]
  000a1	8b 52 04	 mov	 edx, DWORD PTR [edx+4]
  000a4	88 5a 14	 mov	 BYTE PTR [edx+20], bl

; 1676 : 					_Pnode = this->_Parent(this->_Parent(_Pnode));

  000a7	8b 40 04	 mov	 eax, DWORD PTR [eax+4]
  000aa	8b 40 04	 mov	 eax, DWORD PTR [eax+4]

; 1677 : 					}
; 1678 : 				else

  000ad	e9 51 01 00 00	 jmp	 $LN316@Insert@2
$LN7@Insert@2:

; 1679 : 					{	// parent has red and black children
; 1680 : 					if (_Pnode == this->_Right(this->_Parent(_Pnode)))

  000b2	3b 42 08	 cmp	 eax, DWORD PTR [edx+8]
  000b5	75 3a		 jne	 SHORT $LN111@Insert@2

; 1681 : 						{	// rotate right child to left
; 1682 : 						_Pnode = this->_Parent(_Pnode);

  000b7	8b c2		 mov	 eax, edx

; 1683 : 						_Lrotate(_Pnode);

  000b9	8b 50 08	 mov	 edx, DWORD PTR [eax+8]
  000bc	8b 32		 mov	 esi, DWORD PTR [edx]
  000be	89 70 08	 mov	 DWORD PTR [eax+8], esi
  000c1	8b 32		 mov	 esi, DWORD PTR [edx]
  000c3	38 5e 15	 cmp	 BYTE PTR [esi+21], bl
  000c6	75 03		 jne	 SHORT $LN110@Insert@2
  000c8	89 46 04	 mov	 DWORD PTR [esi+4], eax
$LN110@Insert@2:
  000cb	8b 70 04	 mov	 esi, DWORD PTR [eax+4]
  000ce	89 72 04	 mov	 DWORD PTR [edx+4], esi
  000d1	8b 71 04	 mov	 esi, DWORD PTR [ecx+4]
  000d4	3b 46 04	 cmp	 eax, DWORD PTR [esi+4]
  000d7	75 05		 jne	 SHORT $LN109@Insert@2
  000d9	89 56 04	 mov	 DWORD PTR [esi+4], edx
  000dc	eb 0e		 jmp	 SHORT $LN106@Insert@2
$LN109@Insert@2:
  000de	8b 70 04	 mov	 esi, DWORD PTR [eax+4]
  000e1	3b 06		 cmp	 eax, DWORD PTR [esi]
  000e3	75 04		 jne	 SHORT $LN107@Insert@2
  000e5	89 16		 mov	 DWORD PTR [esi], edx
  000e7	eb 03		 jmp	 SHORT $LN106@Insert@2
$LN107@Insert@2:
  000e9	89 56 08	 mov	 DWORD PTR [esi+8], edx
$LN106@Insert@2:
  000ec	89 02		 mov	 DWORD PTR [edx], eax
  000ee	89 50 04	 mov	 DWORD PTR [eax+4], edx
$LN111@Insert@2:

; 1684 : 						}
; 1685 : 					this->_Color(this->_Parent(_Pnode)) =
; 1686 : 						this->_Black;	// propagate red up

  000f1	8b 50 04	 mov	 edx, DWORD PTR [eax+4]
  000f4	c6 42 14 01	 mov	 BYTE PTR [edx+20], 1

; 1687 : 					this->_Color(this->_Parent(this->_Parent(_Pnode))) =
; 1688 : 						this->_Red;

  000f8	8b 50 04	 mov	 edx, DWORD PTR [eax+4]
  000fb	8b 52 04	 mov	 edx, DWORD PTR [edx+4]
  000fe	88 5a 14	 mov	 BYTE PTR [edx+20], bl

; 1689 : 					_Rrotate(this->_Parent(this->_Parent(_Pnode)));

  00101	8b 50 04	 mov	 edx, DWORD PTR [eax+4]
  00104	8b 52 04	 mov	 edx, DWORD PTR [edx+4]
  00107	8b 32		 mov	 esi, DWORD PTR [edx]
  00109	8b 7e 08	 mov	 edi, DWORD PTR [esi+8]
  0010c	89 3a		 mov	 DWORD PTR [edx], edi
  0010e	8b 7e 08	 mov	 edi, DWORD PTR [esi+8]
  00111	38 5f 15	 cmp	 BYTE PTR [edi+21], bl
  00114	75 03		 jne	 SHORT $LN173@Insert@2
  00116	89 57 04	 mov	 DWORD PTR [edi+4], edx
$LN173@Insert@2:
  00119	8b 7a 04	 mov	 edi, DWORD PTR [edx+4]
  0011c	89 7e 04	 mov	 DWORD PTR [esi+4], edi
  0011f	8b 79 04	 mov	 edi, DWORD PTR [ecx+4]
  00122	3b 57 04	 cmp	 edx, DWORD PTR [edi+4]
  00125	75 0b		 jne	 SHORT $LN172@Insert@2
  00127	89 77 04	 mov	 DWORD PTR [edi+4], esi
  0012a	89 56 08	 mov	 DWORD PTR [esi+8], edx

; 1690 : 					}
; 1691 : 				}
; 1692 : 			else

  0012d	e9 cb 00 00 00	 jmp	 $LN376@Insert@2

; 1689 : 					_Rrotate(this->_Parent(this->_Parent(_Pnode)));

$LN172@Insert@2:
  00132	8b 7a 04	 mov	 edi, DWORD PTR [edx+4]
  00135	3b 57 08	 cmp	 edx, DWORD PTR [edi+8]
  00138	75 0b		 jne	 SHORT $LN170@Insert@2
  0013a	89 77 08	 mov	 DWORD PTR [edi+8], esi
  0013d	89 56 08	 mov	 DWORD PTR [esi+8], edx

; 1690 : 					}
; 1691 : 				}
; 1692 : 			else

  00140	e9 b8 00 00 00	 jmp	 $LN376@Insert@2

; 1689 : 					_Rrotate(this->_Parent(this->_Parent(_Pnode)));

$LN170@Insert@2:
  00145	89 37		 mov	 DWORD PTR [edi], esi
  00147	89 56 08	 mov	 DWORD PTR [esi+8], edx

; 1690 : 					}
; 1691 : 				}
; 1692 : 			else

  0014a	e9 ae 00 00 00	 jmp	 $LN376@Insert@2
$LN8@Insert@2:

; 1693 : 				{	// fixup red-red in right subtree
; 1694 : 				_Wherenode =
; 1695 : 					this->_Left(this->_Parent(this->_Parent(_Pnode)));

  0014f	8b 36		 mov	 esi, DWORD PTR [esi]

; 1696 : 				if (this->_Color(_Wherenode) == this->_Red)

  00151	38 5e 14	 cmp	 BYTE PTR [esi+20], bl
  00154	75 1c		 jne	 SHORT $LN3@Insert@2

; 1697 : 					{	// parent has two red children, blacken both
; 1698 : 					this->_Color(this->_Parent(_Pnode)) = this->_Black;

  00156	c6 42 14 01	 mov	 BYTE PTR [edx+20], 1

; 1699 : 					this->_Color(_Wherenode) = this->_Black;

  0015a	c6 46 14 01	 mov	 BYTE PTR [esi+20], 1

; 1700 : 					this->_Color(this->_Parent(this->_Parent(_Pnode))) =
; 1701 : 						this->_Red;

  0015e	8b 50 04	 mov	 edx, DWORD PTR [eax+4]
  00161	8b 52 04	 mov	 edx, DWORD PTR [edx+4]
  00164	88 5a 14	 mov	 BYTE PTR [edx+20], bl

; 1702 : 					_Pnode = this->_Parent(this->_Parent(_Pnode));

  00167	8b 40 04	 mov	 eax, DWORD PTR [eax+4]
  0016a	8b 40 04	 mov	 eax, DWORD PTR [eax+4]

; 1703 : 					}
; 1704 : 				else

  0016d	e9 91 00 00 00	 jmp	 $LN316@Insert@2
$LN3@Insert@2:

; 1705 : 					{	// parent has red and black children
; 1706 : 					if (_Pnode == this->_Left(this->_Parent(_Pnode)))

  00172	3b 02		 cmp	 eax, DWORD PTR [edx]
  00174	75 3c		 jne	 SHORT $LN253@Insert@2

; 1707 : 						{	// rotate left child to right
; 1708 : 						_Pnode = this->_Parent(_Pnode);

  00176	8b c2		 mov	 eax, edx

; 1709 : 						_Rrotate(_Pnode);

  00178	8b 10		 mov	 edx, DWORD PTR [eax]
  0017a	8b 72 08	 mov	 esi, DWORD PTR [edx+8]
  0017d	89 30		 mov	 DWORD PTR [eax], esi
  0017f	8b 72 08	 mov	 esi, DWORD PTR [edx+8]
  00182	38 5e 15	 cmp	 BYTE PTR [esi+21], bl
  00185	75 03		 jne	 SHORT $LN252@Insert@2
  00187	89 46 04	 mov	 DWORD PTR [esi+4], eax
$LN252@Insert@2:
  0018a	8b 70 04	 mov	 esi, DWORD PTR [eax+4]
  0018d	89 72 04	 mov	 DWORD PTR [edx+4], esi
  00190	8b 71 04	 mov	 esi, DWORD PTR [ecx+4]
  00193	3b 46 04	 cmp	 eax, DWORD PTR [esi+4]
  00196	75 05		 jne	 SHORT $LN251@Insert@2
  00198	89 56 04	 mov	 DWORD PTR [esi+4], edx
  0019b	eb 0f		 jmp	 SHORT $LN248@Insert@2
$LN251@Insert@2:
  0019d	8b 70 04	 mov	 esi, DWORD PTR [eax+4]
  001a0	3b 46 08	 cmp	 eax, DWORD PTR [esi+8]
  001a3	75 05		 jne	 SHORT $LN249@Insert@2
  001a5	89 56 08	 mov	 DWORD PTR [esi+8], edx
  001a8	eb 02		 jmp	 SHORT $LN248@Insert@2
$LN249@Insert@2:
  001aa	89 16		 mov	 DWORD PTR [esi], edx
$LN248@Insert@2:
  001ac	89 42 08	 mov	 DWORD PTR [edx+8], eax
  001af	89 50 04	 mov	 DWORD PTR [eax+4], edx
$LN253@Insert@2:

; 1710 : 						}
; 1711 : 					this->_Color(this->_Parent(_Pnode)) =
; 1712 : 						this->_Black;	// propagate red up

  001b2	8b 50 04	 mov	 edx, DWORD PTR [eax+4]
  001b5	c6 42 14 01	 mov	 BYTE PTR [edx+20], 1

; 1713 : 					this->_Color(this->_Parent(this->_Parent(_Pnode))) =
; 1714 : 						this->_Red;

  001b9	8b 50 04	 mov	 edx, DWORD PTR [eax+4]
  001bc	8b 52 04	 mov	 edx, DWORD PTR [edx+4]
  001bf	88 5a 14	 mov	 BYTE PTR [edx+20], bl

; 1715 : 					_Lrotate(this->_Parent(this->_Parent(_Pnode)));

  001c2	8b 50 04	 mov	 edx, DWORD PTR [eax+4]
  001c5	8b 52 04	 mov	 edx, DWORD PTR [edx+4]
  001c8	8b 72 08	 mov	 esi, DWORD PTR [edx+8]
  001cb	8b 3e		 mov	 edi, DWORD PTR [esi]
  001cd	89 7a 08	 mov	 DWORD PTR [edx+8], edi
  001d0	8b 3e		 mov	 edi, DWORD PTR [esi]
  001d2	38 5f 15	 cmp	 BYTE PTR [edi+21], bl
  001d5	75 03		 jne	 SHORT $LN315@Insert@2
  001d7	89 57 04	 mov	 DWORD PTR [edi+4], edx
$LN315@Insert@2:
  001da	8b 7a 04	 mov	 edi, DWORD PTR [edx+4]
  001dd	89 7e 04	 mov	 DWORD PTR [esi+4], edi
  001e0	8b 79 04	 mov	 edi, DWORD PTR [ecx+4]
  001e3	3b 57 04	 cmp	 edx, DWORD PTR [edi+4]
  001e6	75 05		 jne	 SHORT $LN314@Insert@2
  001e8	89 77 04	 mov	 DWORD PTR [edi+4], esi
  001eb	eb 0e		 jmp	 SHORT $LN311@Insert@2
$LN314@Insert@2:
  001ed	8b 7a 04	 mov	 edi, DWORD PTR [edx+4]
  001f0	3b 17		 cmp	 edx, DWORD PTR [edi]
  001f2	75 04		 jne	 SHORT $LN312@Insert@2
  001f4	89 37		 mov	 DWORD PTR [edi], esi
  001f6	eb 03		 jmp	 SHORT $LN311@Insert@2
$LN312@Insert@2:
  001f8	89 77 08	 mov	 DWORD PTR [edi+8], esi
$LN311@Insert@2:
  001fb	89 16		 mov	 DWORD PTR [esi], edx
$LN376@Insert@2:
  001fd	8b 7d 14	 mov	 edi, DWORD PTR __Newnode$[ebp]
  00200	89 72 04	 mov	 DWORD PTR [edx+4], esi
$LN316@Insert@2:

; 1661 : 			}
; 1662 : 
; 1663 : 		for (_Nodeptr _Pnode = _Newnode;
; 1664 : 			this->_Color(this->_Parent(_Pnode)) == this->_Red; )

  00203	8b 50 04	 mov	 edx, DWORD PTR [eax+4]
  00206	38 5a 14	 cmp	 BYTE PTR [edx+20], bl
  00209	0f 84 71 fe ff
	ff		 je	 $LL10@Insert@2
  0020f	5e		 pop	 esi
$LN9@Insert@2:

; 1716 : 					}
; 1717 : 				}
; 1718 : 
; 1719 : 		this->_Color(_Root()) = this->_Black;	// root is always black

  00210	8b 41 04	 mov	 eax, DWORD PTR [ecx+4]
  00213	8b 48 04	 mov	 ecx, DWORD PTR [eax+4]

; 1720 : 		return (iterator(_Newnode, this));

  00216	8b 45 08	 mov	 eax, DWORD PTR ___$ReturnUdt$[ebp]
  00219	89 38		 mov	 DWORD PTR [eax], edi
  0021b	5f		 pop	 edi
  0021c	c6 41 14 01	 mov	 BYTE PTR [ecx+20], 1
  00220	5b		 pop	 ebx

; 1721 : 		}

  00221	5d		 pop	 ebp
  00222	c2 10 00	 ret	 16			; 00000010H
$LN375@Insert@2:
?_Insert@?$_Tree@V?$_Tmap_traits@HPAUGAMESHOP_PACKAGE_DATA@@U?$less@H@std@@V?$allocator@U?$pair@$$CBHPAUGAMESHOP_PACKAGE_DATA@@@std@@@3@$0A@@std@@@std@@IAE?AV?$_Tree_iterator@V?$_Tree_val@V?$_Tmap_traits@HPAUGAMESHOP_PACKAGE_DATA@@U?$less@H@std@@V?$allocator@U?$pair@$$CBHPAUGAMESHOP_PACKAGE_DATA@@@std@@@3@$0A@@std@@@std@@@2@_NPAU_Node@?$_Tree_nod@V?$_Tmap_traits@HPAUGAMESHOP_PACKAGE_DATA@@U?$less@H@std@@V?$allocator@U?$pair@$$CBHPAUGAMESHOP_PACKAGE_DATA@@@std@@@3@$0A@@std@@@2@1@Z ENDP ; std::_Tree<std::_Tmap_traits<int,GAMESHOP_PACKAGE_DATA *,std::less<int>,std::allocator<std::pair<int const ,GAMESHOP_PACKAGE_DATA *> >,0> >::_Insert
_TEXT	ENDS
PUBLIC	??$_Cons_val@V?$allocator@U?$pair@$$CBHPAUGAMESHOP_ITEM_DATA@@@std@@@std@@U?$pair@$$CBHPAUGAMESHOP_ITEM_DATA@@@2@U?$pair@HPAUGAMESHOP_ITEM_DATA@@@2@@std@@YAXAAV?$allocator@U?$pair@$$CBHPAUGAMESHOP_ITEM_DATA@@@std@@@0@PAU?$pair@$$CBHPAUGAMESHOP_ITEM_DATA@@@0@$$QAU?$pair@HPAUGAMESHOP_ITEM_DATA@@@0@@Z ; std::_Cons_val<std::allocator<std::pair<int const ,GAMESHOP_ITEM_DATA *> >,std::pair<int const ,GAMESHOP_ITEM_DATA *>,std::pair<int,GAMESHOP_ITEM_DATA *> >
; Function compile flags: /Ogtp
; File d:\program files (x86)\microsoft visual studio 10.0\vc\include\xmemory
;	COMDAT ??$_Cons_val@V?$allocator@U?$pair@$$CBHPAUGAMESHOP_ITEM_DATA@@@std@@@std@@U?$pair@$$CBHPAUGAMESHOP_ITEM_DATA@@@2@U?$pair@HPAUGAMESHOP_ITEM_DATA@@@2@@std@@YAXAAV?$allocator@U?$pair@$$CBHPAUGAMESHOP_ITEM_DATA@@@std@@@0@PAU?$pair@$$CBHPAUGAMESHOP_ITEM_DATA@@@0@$$QAU?$pair@HPAUGAMESHOP_ITEM_DATA@@@0@@Z
_TEXT	SEGMENT
__Alval$ = 8						; size = 4
__Pdest$ = 12						; size = 4
__Src$ = 16						; size = 4
??$_Cons_val@V?$allocator@U?$pair@$$CBHPAUGAMESHOP_ITEM_DATA@@@std@@@std@@U?$pair@$$CBHPAUGAMESHOP_ITEM_DATA@@@2@U?$pair@HPAUGAMESHOP_ITEM_DATA@@@2@@std@@YAXAAV?$allocator@U?$pair@$$CBHPAUGAMESHOP_ITEM_DATA@@@std@@@0@PAU?$pair@$$CBHPAUGAMESHOP_ITEM_DATA@@@0@$$QAU?$pair@HPAUGAMESHOP_ITEM_DATA@@@0@@Z PROC ; std::_Cons_val<std::allocator<std::pair<int const ,GAMESHOP_ITEM_DATA *> >,std::pair<int const ,GAMESHOP_ITEM_DATA *>,std::pair<int,GAMESHOP_ITEM_DATA *> >, COMDAT

; 279  : 	{	// construct using allocator

  00000	55		 push	 ebp
  00001	8b ec		 mov	 ebp, esp

; 280  : 	_Alval.construct(_Pdest, _STD forward<_Ty2>(_Src));

  00003	8b 45 0c	 mov	 eax, DWORD PTR __Pdest$[ebp]
  00006	85 c0		 test	 eax, eax
  00008	74 0d		 je	 SHORT $LN7@Cons_val
  0000a	8b 4d 10	 mov	 ecx, DWORD PTR __Src$[ebp]
  0000d	8b 11		 mov	 edx, DWORD PTR [ecx]
  0000f	89 10		 mov	 DWORD PTR [eax], edx
  00011	8b 49 04	 mov	 ecx, DWORD PTR [ecx+4]
  00014	89 48 04	 mov	 DWORD PTR [eax+4], ecx
$LN7@Cons_val:

; 281  : 	}

  00017	5d		 pop	 ebp
  00018	c3		 ret	 0
??$_Cons_val@V?$allocator@U?$pair@$$CBHPAUGAMESHOP_ITEM_DATA@@@std@@@std@@U?$pair@$$CBHPAUGAMESHOP_ITEM_DATA@@@2@U?$pair@HPAUGAMESHOP_ITEM_DATA@@@2@@std@@YAXAAV?$allocator@U?$pair@$$CBHPAUGAMESHOP_ITEM_DATA@@@std@@@0@PAU?$pair@$$CBHPAUGAMESHOP_ITEM_DATA@@@0@$$QAU?$pair@HPAUGAMESHOP_ITEM_DATA@@@0@@Z ENDP ; std::_Cons_val<std::allocator<std::pair<int const ,GAMESHOP_ITEM_DATA *> >,std::pair<int const ,GAMESHOP_ITEM_DATA *>,std::pair<int,GAMESHOP_ITEM_DATA *> >
_TEXT	ENDS
PUBLIC	??$_Cons_val@V?$allocator@U?$pair@$$CBHPAUGAMESHOP_PACKAGE_DATA@@@std@@@std@@U?$pair@$$CBHPAUGAMESHOP_PACKAGE_DATA@@@2@U?$pair@HPAUGAMESHOP_PACKAGE_DATA@@@2@@std@@YAXAAV?$allocator@U?$pair@$$CBHPAUGAMESHOP_PACKAGE_DATA@@@std@@@0@PAU?$pair@$$CBHPAUGAMESHOP_PACKAGE_DATA@@@0@$$QAU?$pair@HPAUGAMESHOP_PACKAGE_DATA@@@0@@Z ; std::_Cons_val<std::allocator<std::pair<int const ,GAMESHOP_PACKAGE_DATA *> >,std::pair<int const ,GAMESHOP_PACKAGE_DATA *>,std::pair<int,GAMESHOP_PACKAGE_DATA *> >
; Function compile flags: /Ogtp
;	COMDAT ??$_Cons_val@V?$allocator@U?$pair@$$CBHPAUGAMESHOP_PACKAGE_DATA@@@std@@@std@@U?$pair@$$CBHPAUGAMESHOP_PACKAGE_DATA@@@2@U?$pair@HPAUGAMESHOP_PACKAGE_DATA@@@2@@std@@YAXAAV?$allocator@U?$pair@$$CBHPAUGAMESHOP_PACKAGE_DATA@@@std@@@0@PAU?$pair@$$CBHPAUGAMESHOP_PACKAGE_DATA@@@0@$$QAU?$pair@HPAUGAMESHOP_PACKAGE_DATA@@@0@@Z
_TEXT	SEGMENT
__Alval$ = 8						; size = 4
__Pdest$ = 12						; size = 4
__Src$ = 16						; size = 4
??$_Cons_val@V?$allocator@U?$pair@$$CBHPAUGAMESHOP_PACKAGE_DATA@@@std@@@std@@U?$pair@$$CBHPAUGAMESHOP_PACKAGE_DATA@@@2@U?$pair@HPAUGAMESHOP_PACKAGE_DATA@@@2@@std@@YAXAAV?$allocator@U?$pair@$$CBHPAUGAMESHOP_PACKAGE_DATA@@@std@@@0@PAU?$pair@$$CBHPAUGAMESHOP_PACKAGE_DATA@@@0@$$QAU?$pair@HPAUGAMESHOP_PACKAGE_DATA@@@0@@Z PROC ; std::_Cons_val<std::allocator<std::pair<int const ,GAMESHOP_PACKAGE_DATA *> >,std::pair<int const ,GAMESHOP_PACKAGE_DATA *>,std::pair<int,GAMESHOP_PACKAGE_DATA *> >, COMDAT

; 279  : 	{	// construct using allocator

  00000	55		 push	 ebp
  00001	8b ec		 mov	 ebp, esp

; 280  : 	_Alval.construct(_Pdest, _STD forward<_Ty2>(_Src));

  00003	8b 45 0c	 mov	 eax, DWORD PTR __Pdest$[ebp]
  00006	85 c0		 test	 eax, eax
  00008	74 0d		 je	 SHORT $LN7@Cons_val@2
  0000a	8b 4d 10	 mov	 ecx, DWORD PTR __Src$[ebp]
  0000d	8b 11		 mov	 edx, DWORD PTR [ecx]
  0000f	89 10		 mov	 DWORD PTR [eax], edx
  00011	8b 49 04	 mov	 ecx, DWORD PTR [ecx+4]
  00014	89 48 04	 mov	 DWORD PTR [eax+4], ecx
$LN7@Cons_val@2:

; 281  : 	}

  00017	5d		 pop	 ebp
  00018	c3		 ret	 0
??$_Cons_val@V?$allocator@U?$pair@$$CBHPAUGAMESHOP_PACKAGE_DATA@@@std@@@std@@U?$pair@$$CBHPAUGAMESHOP_PACKAGE_DATA@@@2@U?$pair@HPAUGAMESHOP_PACKAGE_DATA@@@2@@std@@YAXAAV?$allocator@U?$pair@$$CBHPAUGAMESHOP_PACKAGE_DATA@@@std@@@0@PAU?$pair@$$CBHPAUGAMESHOP_PACKAGE_DATA@@@0@$$QAU?$pair@HPAUGAMESHOP_PACKAGE_DATA@@@0@@Z ENDP ; std::_Cons_val<std::allocator<std::pair<int const ,GAMESHOP_PACKAGE_DATA *> >,std::pair<int const ,GAMESHOP_PACKAGE_DATA *>,std::pair<int,GAMESHOP_PACKAGE_DATA *> >
_TEXT	ENDS
PUBLIC	?construct@?$allocator@U?$pair@$$CBHPAUGAMESHOP_PACKAGE_DATA@@@std@@@std@@QAEXPAU?$pair@$$CBHPAUGAMESHOP_PACKAGE_DATA@@@2@$$QAU32@@Z ; std::allocator<std::pair<int const ,GAMESHOP_PACKAGE_DATA *> >::construct
; Function compile flags: /Ogtp
;	COMDAT ?construct@?$allocator@U?$pair@$$CBHPAUGAMESHOP_PACKAGE_DATA@@@std@@@std@@QAEXPAU?$pair@$$CBHPAUGAMESHOP_PACKAGE_DATA@@@2@$$QAU32@@Z
_TEXT	SEGMENT
__Ptr$ = 8						; size = 4
__Val$ = 12						; size = 4
?construct@?$allocator@U?$pair@$$CBHPAUGAMESHOP_PACKAGE_DATA@@@std@@@std@@QAEXPAU?$pair@$$CBHPAUGAMESHOP_PACKAGE_DATA@@@2@$$QAU32@@Z PROC ; std::allocator<std::pair<int const ,GAMESHOP_PACKAGE_DATA *> >::construct, COMDAT
; _this$ = ecx

; 201  : 		{	// construct object at _Ptr with value _Val

  00000	55		 push	 ebp
  00001	8b ec		 mov	 ebp, esp

; 202  : 		::new ((void _FARQ *)_Ptr) _Ty(_STD forward<_Ty>(_Val));

  00003	8b 45 08	 mov	 eax, DWORD PTR __Ptr$[ebp]
  00006	85 c0		 test	 eax, eax
  00008	74 0d		 je	 SHORT $LN3@construct@3
  0000a	8b 4d 0c	 mov	 ecx, DWORD PTR __Val$[ebp]
  0000d	8b 11		 mov	 edx, DWORD PTR [ecx]
  0000f	89 10		 mov	 DWORD PTR [eax], edx
  00011	8b 49 04	 mov	 ecx, DWORD PTR [ecx+4]
  00014	89 48 04	 mov	 DWORD PTR [eax+4], ecx
$LN3@construct@3:

; 203  : 		}

  00017	5d		 pop	 ebp
  00018	c2 08 00	 ret	 8
?construct@?$allocator@U?$pair@$$CBHPAUGAMESHOP_PACKAGE_DATA@@@std@@@std@@QAEXPAU?$pair@$$CBHPAUGAMESHOP_PACKAGE_DATA@@@2@$$QAU32@@Z ENDP ; std::allocator<std::pair<int const ,GAMESHOP_PACKAGE_DATA *> >::construct
_TEXT	ENDS
PUBLIC	?begin@?$_Tree@V?$_Tmap_traits@HPAUGAMESHOP_ITEM_DATA@@U?$less@H@std@@V?$allocator@U?$pair@$$CBHPAUGAMESHOP_ITEM_DATA@@@std@@@3@$0A@@std@@@std@@QAE?AV?$_Tree_iterator@V?$_Tree_val@V?$_Tmap_traits@HPAUGAMESHOP_ITEM_DATA@@U?$less@H@std@@V?$allocator@U?$pair@$$CBHPAUGAMESHOP_ITEM_DATA@@@std@@@3@$0A@@std@@@std@@@2@XZ ; std::_Tree<std::_Tmap_traits<int,GAMESHOP_ITEM_DATA *,std::less<int>,std::allocator<std::pair<int const ,GAMESHOP_ITEM_DATA *> >,0> >::begin
; Function compile flags: /Ogtp
; File d:\program files (x86)\microsoft visual studio 10.0\vc\include\xtree
;	COMDAT ?begin@?$_Tree@V?$_Tmap_traits@HPAUGAMESHOP_ITEM_DATA@@U?$less@H@std@@V?$allocator@U?$pair@$$CBHPAUGAMESHOP_ITEM_DATA@@@std@@@3@$0A@@std@@@std@@QAE?AV?$_Tree_iterator@V?$_Tree_val@V?$_Tmap_traits@HPAUGAMESHOP_ITEM_DATA@@U?$less@H@std@@V?$allocator@U?$pair@$$CBHPAUGAMESHOP_ITEM_DATA@@@std@@@3@$0A@@std@@@std@@@2@XZ
_TEXT	SEGMENT
___$ReturnUdt$ = 8					; size = 4
?begin@?$_Tree@V?$_Tmap_traits@HPAUGAMESHOP_ITEM_DATA@@U?$less@H@std@@V?$allocator@U?$pair@$$CBHPAUGAMESHOP_ITEM_DATA@@@std@@@3@$0A@@std@@@std@@QAE?AV?$_Tree_iterator@V?$_Tree_val@V?$_Tmap_traits@HPAUGAMESHOP_ITEM_DATA@@U?$less@H@std@@V?$allocator@U?$pair@$$CBHPAUGAMESHOP_ITEM_DATA@@@std@@@3@$0A@@std@@@std@@@2@XZ PROC ; std::_Tree<std::_Tmap_traits<int,GAMESHOP_ITEM_DATA *,std::less<int>,std::allocator<std::pair<int const ,GAMESHOP_ITEM_DATA *> >,0> >::begin, COMDAT
; _this$ = ecx

; 806  : 		{	// return iterator for beginning of mutable sequence

  00000	55		 push	 ebp
  00001	8b ec		 mov	 ebp, esp

; 807  : 		return (iterator(_Lmost(), this));

  00003	8b 41 04	 mov	 eax, DWORD PTR [ecx+4]
  00006	8b 08		 mov	 ecx, DWORD PTR [eax]
  00008	8b 45 08	 mov	 eax, DWORD PTR ___$ReturnUdt$[ebp]
  0000b	89 08		 mov	 DWORD PTR [eax], ecx

; 808  : 		}

  0000d	5d		 pop	 ebp
  0000e	c2 04 00	 ret	 4
?begin@?$_Tree@V?$_Tmap_traits@HPAUGAMESHOP_ITEM_DATA@@U?$less@H@std@@V?$allocator@U?$pair@$$CBHPAUGAMESHOP_ITEM_DATA@@@std@@@3@$0A@@std@@@std@@QAE?AV?$_Tree_iterator@V?$_Tree_val@V?$_Tmap_traits@HPAUGAMESHOP_ITEM_DATA@@U?$less@H@std@@V?$allocator@U?$pair@$$CBHPAUGAMESHOP_ITEM_DATA@@@std@@@3@$0A@@std@@@std@@@2@XZ ENDP ; std::_Tree<std::_Tmap_traits<int,GAMESHOP_ITEM_DATA *,std::less<int>,std::allocator<std::pair<int const ,GAMESHOP_ITEM_DATA *> >,0> >::begin
_TEXT	ENDS
PUBLIC	?end@?$_Tree@V?$_Tmap_traits@HPAUGAMESHOP_ITEM_DATA@@U?$less@H@std@@V?$allocator@U?$pair@$$CBHPAUGAMESHOP_ITEM_DATA@@@std@@@3@$0A@@std@@@std@@QAE?AV?$_Tree_iterator@V?$_Tree_val@V?$_Tmap_traits@HPAUGAMESHOP_ITEM_DATA@@U?$less@H@std@@V?$allocator@U?$pair@$$CBHPAUGAMESHOP_ITEM_DATA@@@std@@@3@$0A@@std@@@std@@@2@XZ ; std::_Tree<std::_Tmap_traits<int,GAMESHOP_ITEM_DATA *,std::less<int>,std::allocator<std::pair<int const ,GAMESHOP_ITEM_DATA *> >,0> >::end
; Function compile flags: /Ogtp
;	COMDAT ?end@?$_Tree@V?$_Tmap_traits@HPAUGAMESHOP_ITEM_DATA@@U?$less@H@std@@V?$allocator@U?$pair@$$CBHPAUGAMESHOP_ITEM_DATA@@@std@@@3@$0A@@std@@@std@@QAE?AV?$_Tree_iterator@V?$_Tree_val@V?$_Tmap_traits@HPAUGAMESHOP_ITEM_DATA@@U?$less@H@std@@V?$allocator@U?$pair@$$CBHPAUGAMESHOP_ITEM_DATA@@@std@@@3@$0A@@std@@@std@@@2@XZ
_TEXT	SEGMENT
___$ReturnUdt$ = 8					; size = 4
?end@?$_Tree@V?$_Tmap_traits@HPAUGAMESHOP_ITEM_DATA@@U?$less@H@std@@V?$allocator@U?$pair@$$CBHPAUGAMESHOP_ITEM_DATA@@@std@@@3@$0A@@std@@@std@@QAE?AV?$_Tree_iterator@V?$_Tree_val@V?$_Tmap_traits@HPAUGAMESHOP_ITEM_DATA@@U?$less@H@std@@V?$allocator@U?$pair@$$CBHPAUGAMESHOP_ITEM_DATA@@@std@@@3@$0A@@std@@@std@@@2@XZ PROC ; std::_Tree<std::_Tmap_traits<int,GAMESHOP_ITEM_DATA *,std::less<int>,std::allocator<std::pair<int const ,GAMESHOP_ITEM_DATA *> >,0> >::end, COMDAT
; _this$ = ecx

; 816  : 		{	// return iterator for end of mutable sequence

  00000	55		 push	 ebp
  00001	8b ec		 mov	 ebp, esp

; 817  : 		return (iterator(this->_Myhead, this));

  00003	8b 49 04	 mov	 ecx, DWORD PTR [ecx+4]
  00006	8b 45 08	 mov	 eax, DWORD PTR ___$ReturnUdt$[ebp]
  00009	89 08		 mov	 DWORD PTR [eax], ecx

; 818  : 		}

  0000b	5d		 pop	 ebp
  0000c	c2 04 00	 ret	 4
?end@?$_Tree@V?$_Tmap_traits@HPAUGAMESHOP_ITEM_DATA@@U?$less@H@std@@V?$allocator@U?$pair@$$CBHPAUGAMESHOP_ITEM_DATA@@@std@@@3@$0A@@std@@@std@@QAE?AV?$_Tree_iterator@V?$_Tree_val@V?$_Tmap_traits@HPAUGAMESHOP_ITEM_DATA@@U?$less@H@std@@V?$allocator@U?$pair@$$CBHPAUGAMESHOP_ITEM_DATA@@@std@@@3@$0A@@std@@@std@@@2@XZ ENDP ; std::_Tree<std::_Tmap_traits<int,GAMESHOP_ITEM_DATA *,std::less<int>,std::allocator<std::pair<int const ,GAMESHOP_ITEM_DATA *> >,0> >::end
_TEXT	ENDS
PUBLIC	?clear@?$_Tree@V?$_Tmap_traits@HPAUGAMESHOP_ITEM_DATA@@U?$less@H@std@@V?$allocator@U?$pair@$$CBHPAUGAMESHOP_ITEM_DATA@@@std@@@3@$0A@@std@@@std@@QAEXXZ ; std::_Tree<std::_Tmap_traits<int,GAMESHOP_ITEM_DATA *,std::less<int>,std::allocator<std::pair<int const ,GAMESHOP_ITEM_DATA *> >,0> >::clear
; Function compile flags: /Ogtp
;	COMDAT ?clear@?$_Tree@V?$_Tmap_traits@HPAUGAMESHOP_ITEM_DATA@@U?$less@H@std@@V?$allocator@U?$pair@$$CBHPAUGAMESHOP_ITEM_DATA@@@std@@@3@$0A@@std@@@std@@QAEXXZ
_TEXT	SEGMENT
?clear@?$_Tree@V?$_Tmap_traits@HPAUGAMESHOP_ITEM_DATA@@U?$less@H@std@@V?$allocator@U?$pair@$$CBHPAUGAMESHOP_ITEM_DATA@@@std@@@3@$0A@@std@@@std@@QAEXXZ PROC ; std::_Tree<std::_Tmap_traits<int,GAMESHOP_ITEM_DATA *,std::less<int>,std::allocator<std::pair<int const ,GAMESHOP_ITEM_DATA *> >,0> >::clear, COMDAT
; _this$ = ecx

; 1410 : 		{	// erase all

  00000	53		 push	 ebx
  00001	56		 push	 esi
  00002	57		 push	 edi
  00003	8b f9		 mov	 edi, ecx

; 1411 :  #if _ITERATOR_DEBUG_LEVEL == 2
; 1412 : 		this->_Orphan_ptr(*this, 0);
; 1413 :  #endif /* _ITERATOR_DEBUG_LEVEL == 2 */
; 1414 : 
; 1415 : 		_Erase(_Root());

  00005	8b 47 04	 mov	 eax, DWORD PTR [edi+4]
  00008	8b 58 04	 mov	 ebx, DWORD PTR [eax+4]
  0000b	80 7b 15 00	 cmp	 BYTE PTR [ebx+21], 0
  0000f	8b f3		 mov	 esi, ebx
  00011	75 1e		 jne	 SHORT $LN7@clear
$LL9@clear:
  00013	8b 4e 08	 mov	 ecx, DWORD PTR [esi+8]
  00016	51		 push	 ecx
  00017	8b cf		 mov	 ecx, edi
  00019	e8 00 00 00 00	 call	 ?_Erase@?$_Tree@V?$_Tmap_traits@HPAUGAMESHOP_ITEM_DATA@@U?$less@H@std@@V?$allocator@U?$pair@$$CBHPAUGAMESHOP_ITEM_DATA@@@std@@@3@$0A@@std@@@std@@IAEXPAU_Node@?$_Tree_nod@V?$_Tmap_traits@HPAUGAMESHOP_ITEM_DATA@@U?$less@H@std@@V?$allocator@U?$pair@$$CBHPAUGAMESHOP_ITEM_DATA@@@std@@@3@$0A@@std@@@2@@Z ; std::_Tree<std::_Tmap_traits<int,GAMESHOP_ITEM_DATA *,std::less<int>,std::allocator<std::pair<int const ,GAMESHOP_ITEM_DATA *> >,0> >::_Erase
  0001e	8b 36		 mov	 esi, DWORD PTR [esi]
  00020	53		 push	 ebx
  00021	e8 00 00 00 00	 call	 ??3@YAXPAX@Z		; operator delete
  00026	83 c4 04	 add	 esp, 4
  00029	80 7e 15 00	 cmp	 BYTE PTR [esi+21], 0
  0002d	8b de		 mov	 ebx, esi
  0002f	74 e2		 je	 SHORT $LL9@clear
$LN7@clear:

; 1416 : 		_Root() = this->_Myhead;

  00031	8b 47 04	 mov	 eax, DWORD PTR [edi+4]
  00034	89 40 04	 mov	 DWORD PTR [eax+4], eax

; 1417 : 		_Lmost() = this->_Myhead;

  00037	8b 47 04	 mov	 eax, DWORD PTR [edi+4]
  0003a	89 00		 mov	 DWORD PTR [eax], eax

; 1418 : 		_Rmost() = this->_Myhead;

  0003c	8b 47 04	 mov	 eax, DWORD PTR [edi+4]
  0003f	89 40 08	 mov	 DWORD PTR [eax+8], eax

; 1419 : 		this->_Mysize = 0;

  00042	c7 47 08 00 00
	00 00		 mov	 DWORD PTR [edi+8], 0
  00049	5f		 pop	 edi
  0004a	5e		 pop	 esi
  0004b	5b		 pop	 ebx

; 1420 : 		}

  0004c	c3		 ret	 0
?clear@?$_Tree@V?$_Tmap_traits@HPAUGAMESHOP_ITEM_DATA@@U?$less@H@std@@V?$allocator@U?$pair@$$CBHPAUGAMESHOP_ITEM_DATA@@@std@@@3@$0A@@std@@@std@@QAEXXZ ENDP ; std::_Tree<std::_Tmap_traits<int,GAMESHOP_ITEM_DATA *,std::less<int>,std::allocator<std::pair<int const ,GAMESHOP_ITEM_DATA *> >,0> >::clear
_TEXT	ENDS
PUBLIC	?begin@?$_Tree@V?$_Tmap_traits@HPAUGAMESHOP_PACKAGE_DATA@@U?$less@H@std@@V?$allocator@U?$pair@$$CBHPAUGAMESHOP_PACKAGE_DATA@@@std@@@3@$0A@@std@@@std@@QAE?AV?$_Tree_iterator@V?$_Tree_val@V?$_Tmap_traits@HPAUGAMESHOP_PACKAGE_DATA@@U?$less@H@std@@V?$allocator@U?$pair@$$CBHPAUGAMESHOP_PACKAGE_DATA@@@std@@@3@$0A@@std@@@std@@@2@XZ ; std::_Tree<std::_Tmap_traits<int,GAMESHOP_PACKAGE_DATA *,std::less<int>,std::allocator<std::pair<int const ,GAMESHOP_PACKAGE_DATA *> >,0> >::begin
; Function compile flags: /Ogtp
;	COMDAT ?begin@?$_Tree@V?$_Tmap_traits@HPAUGAMESHOP_PACKAGE_DATA@@U?$less@H@std@@V?$allocator@U?$pair@$$CBHPAUGAMESHOP_PACKAGE_DATA@@@std@@@3@$0A@@std@@@std@@QAE?AV?$_Tree_iterator@V?$_Tree_val@V?$_Tmap_traits@HPAUGAMESHOP_PACKAGE_DATA@@U?$less@H@std@@V?$allocator@U?$pair@$$CBHPAUGAMESHOP_PACKAGE_DATA@@@std@@@3@$0A@@std@@@std@@@2@XZ
_TEXT	SEGMENT
___$ReturnUdt$ = 8					; size = 4
?begin@?$_Tree@V?$_Tmap_traits@HPAUGAMESHOP_PACKAGE_DATA@@U?$less@H@std@@V?$allocator@U?$pair@$$CBHPAUGAMESHOP_PACKAGE_DATA@@@std@@@3@$0A@@std@@@std@@QAE?AV?$_Tree_iterator@V?$_Tree_val@V?$_Tmap_traits@HPAUGAMESHOP_PACKAGE_DATA@@U?$less@H@std@@V?$allocator@U?$pair@$$CBHPAUGAMESHOP_PACKAGE_DATA@@@std@@@3@$0A@@std@@@std@@@2@XZ PROC ; std::_Tree<std::_Tmap_traits<int,GAMESHOP_PACKAGE_DATA *,std::less<int>,std::allocator<std::pair<int const ,GAMESHOP_PACKAGE_DATA *> >,0> >::begin, COMDAT
; _this$ = ecx

; 806  : 		{	// return iterator for beginning of mutable sequence

  00000	55		 push	 ebp
  00001	8b ec		 mov	 ebp, esp

; 807  : 		return (iterator(_Lmost(), this));

  00003	8b 41 04	 mov	 eax, DWORD PTR [ecx+4]
  00006	8b 08		 mov	 ecx, DWORD PTR [eax]
  00008	8b 45 08	 mov	 eax, DWORD PTR ___$ReturnUdt$[ebp]
  0000b	89 08		 mov	 DWORD PTR [eax], ecx

; 808  : 		}

  0000d	5d		 pop	 ebp
  0000e	c2 04 00	 ret	 4
?begin@?$_Tree@V?$_Tmap_traits@HPAUGAMESHOP_PACKAGE_DATA@@U?$less@H@std@@V?$allocator@U?$pair@$$CBHPAUGAMESHOP_PACKAGE_DATA@@@std@@@3@$0A@@std@@@std@@QAE?AV?$_Tree_iterator@V?$_Tree_val@V?$_Tmap_traits@HPAUGAMESHOP_PACKAGE_DATA@@U?$less@H@std@@V?$allocator@U?$pair@$$CBHPAUGAMESHOP_PACKAGE_DATA@@@std@@@3@$0A@@std@@@std@@@2@XZ ENDP ; std::_Tree<std::_Tmap_traits<int,GAMESHOP_PACKAGE_DATA *,std::less<int>,std::allocator<std::pair<int const ,GAMESHOP_PACKAGE_DATA *> >,0> >::begin
_TEXT	ENDS
PUBLIC	?end@?$_Tree@V?$_Tmap_traits@HPAUGAMESHOP_PACKAGE_DATA@@U?$less@H@std@@V?$allocator@U?$pair@$$CBHPAUGAMESHOP_PACKAGE_DATA@@@std@@@3@$0A@@std@@@std@@QAE?AV?$_Tree_iterator@V?$_Tree_val@V?$_Tmap_traits@HPAUGAMESHOP_PACKAGE_DATA@@U?$less@H@std@@V?$allocator@U?$pair@$$CBHPAUGAMESHOP_PACKAGE_DATA@@@std@@@3@$0A@@std@@@std@@@2@XZ ; std::_Tree<std::_Tmap_traits<int,GAMESHOP_PACKAGE_DATA *,std::less<int>,std::allocator<std::pair<int const ,GAMESHOP_PACKAGE_DATA *> >,0> >::end
; Function compile flags: /Ogtp
;	COMDAT ?end@?$_Tree@V?$_Tmap_traits@HPAUGAMESHOP_PACKAGE_DATA@@U?$less@H@std@@V?$allocator@U?$pair@$$CBHPAUGAMESHOP_PACKAGE_DATA@@@std@@@3@$0A@@std@@@std@@QAE?AV?$_Tree_iterator@V?$_Tree_val@V?$_Tmap_traits@HPAUGAMESHOP_PACKAGE_DATA@@U?$less@H@std@@V?$allocator@U?$pair@$$CBHPAUGAMESHOP_PACKAGE_DATA@@@std@@@3@$0A@@std@@@std@@@2@XZ
_TEXT	SEGMENT
___$ReturnUdt$ = 8					; size = 4
?end@?$_Tree@V?$_Tmap_traits@HPAUGAMESHOP_PACKAGE_DATA@@U?$less@H@std@@V?$allocator@U?$pair@$$CBHPAUGAMESHOP_PACKAGE_DATA@@@std@@@3@$0A@@std@@@std@@QAE?AV?$_Tree_iterator@V?$_Tree_val@V?$_Tmap_traits@HPAUGAMESHOP_PACKAGE_DATA@@U?$less@H@std@@V?$allocator@U?$pair@$$CBHPAUGAMESHOP_PACKAGE_DATA@@@std@@@3@$0A@@std@@@std@@@2@XZ PROC ; std::_Tree<std::_Tmap_traits<int,GAMESHOP_PACKAGE_DATA *,std::less<int>,std::allocator<std::pair<int const ,GAMESHOP_PACKAGE_DATA *> >,0> >::end, COMDAT
; _this$ = ecx

; 816  : 		{	// return iterator for end of mutable sequence

  00000	55		 push	 ebp
  00001	8b ec		 mov	 ebp, esp

; 817  : 		return (iterator(this->_Myhead, this));

  00003	8b 49 04	 mov	 ecx, DWORD PTR [ecx+4]
  00006	8b 45 08	 mov	 eax, DWORD PTR ___$ReturnUdt$[ebp]
  00009	89 08		 mov	 DWORD PTR [eax], ecx

; 818  : 		}

  0000b	5d		 pop	 ebp
  0000c	c2 04 00	 ret	 4
?end@?$_Tree@V?$_Tmap_traits@HPAUGAMESHOP_PACKAGE_DATA@@U?$less@H@std@@V?$allocator@U?$pair@$$CBHPAUGAMESHOP_PACKAGE_DATA@@@std@@@3@$0A@@std@@@std@@QAE?AV?$_Tree_iterator@V?$_Tree_val@V?$_Tmap_traits@HPAUGAMESHOP_PACKAGE_DATA@@U?$less@H@std@@V?$allocator@U?$pair@$$CBHPAUGAMESHOP_PACKAGE_DATA@@@std@@@3@$0A@@std@@@std@@@2@XZ ENDP ; std::_Tree<std::_Tmap_traits<int,GAMESHOP_PACKAGE_DATA *,std::less<int>,std::allocator<std::pair<int const ,GAMESHOP_PACKAGE_DATA *> >,0> >::end
_TEXT	ENDS
PUBLIC	?clear@?$_Tree@V?$_Tmap_traits@HPAUGAMESHOP_PACKAGE_DATA@@U?$less@H@std@@V?$allocator@U?$pair@$$CBHPAUGAMESHOP_PACKAGE_DATA@@@std@@@3@$0A@@std@@@std@@QAEXXZ ; std::_Tree<std::_Tmap_traits<int,GAMESHOP_PACKAGE_DATA *,std::less<int>,std::allocator<std::pair<int const ,GAMESHOP_PACKAGE_DATA *> >,0> >::clear
; Function compile flags: /Ogtp
;	COMDAT ?clear@?$_Tree@V?$_Tmap_traits@HPAUGAMESHOP_PACKAGE_DATA@@U?$less@H@std@@V?$allocator@U?$pair@$$CBHPAUGAMESHOP_PACKAGE_DATA@@@std@@@3@$0A@@std@@@std@@QAEXXZ
_TEXT	SEGMENT
?clear@?$_Tree@V?$_Tmap_traits@HPAUGAMESHOP_PACKAGE_DATA@@U?$less@H@std@@V?$allocator@U?$pair@$$CBHPAUGAMESHOP_PACKAGE_DATA@@@std@@@3@$0A@@std@@@std@@QAEXXZ PROC ; std::_Tree<std::_Tmap_traits<int,GAMESHOP_PACKAGE_DATA *,std::less<int>,std::allocator<std::pair<int const ,GAMESHOP_PACKAGE_DATA *> >,0> >::clear, COMDAT
; _this$ = ecx

; 1410 : 		{	// erase all

  00000	53		 push	 ebx
  00001	56		 push	 esi
  00002	57		 push	 edi
  00003	8b f9		 mov	 edi, ecx

; 1411 :  #if _ITERATOR_DEBUG_LEVEL == 2
; 1412 : 		this->_Orphan_ptr(*this, 0);
; 1413 :  #endif /* _ITERATOR_DEBUG_LEVEL == 2 */
; 1414 : 
; 1415 : 		_Erase(_Root());

  00005	8b 47 04	 mov	 eax, DWORD PTR [edi+4]
  00008	8b 58 04	 mov	 ebx, DWORD PTR [eax+4]
  0000b	80 7b 15 00	 cmp	 BYTE PTR [ebx+21], 0
  0000f	8b f3		 mov	 esi, ebx
  00011	75 1e		 jne	 SHORT $LN7@clear@2
$LL9@clear@2:
  00013	8b 4e 08	 mov	 ecx, DWORD PTR [esi+8]
  00016	51		 push	 ecx
  00017	8b cf		 mov	 ecx, edi
  00019	e8 00 00 00 00	 call	 ?_Erase@?$_Tree@V?$_Tmap_traits@HPAUGAMESHOP_PACKAGE_DATA@@U?$less@H@std@@V?$allocator@U?$pair@$$CBHPAUGAMESHOP_PACKAGE_DATA@@@std@@@3@$0A@@std@@@std@@IAEXPAU_Node@?$_Tree_nod@V?$_Tmap_traits@HPAUGAMESHOP_PACKAGE_DATA@@U?$less@H@std@@V?$allocator@U?$pair@$$CBHPAUGAMESHOP_PACKAGE_DATA@@@std@@@3@$0A@@std@@@2@@Z ; std::_Tree<std::_Tmap_traits<int,GAMESHOP_PACKAGE_DATA *,std::less<int>,std::allocator<std::pair<int const ,GAMESHOP_PACKAGE_DATA *> >,0> >::_Erase
  0001e	8b 36		 mov	 esi, DWORD PTR [esi]
  00020	53		 push	 ebx
  00021	e8 00 00 00 00	 call	 ??3@YAXPAX@Z		; operator delete
  00026	83 c4 04	 add	 esp, 4
  00029	80 7e 15 00	 cmp	 BYTE PTR [esi+21], 0
  0002d	8b de		 mov	 ebx, esi
  0002f	74 e2		 je	 SHORT $LL9@clear@2
$LN7@clear@2:

; 1416 : 		_Root() = this->_Myhead;

  00031	8b 47 04	 mov	 eax, DWORD PTR [edi+4]
  00034	89 40 04	 mov	 DWORD PTR [eax+4], eax

; 1417 : 		_Lmost() = this->_Myhead;

  00037	8b 47 04	 mov	 eax, DWORD PTR [edi+4]
  0003a	89 00		 mov	 DWORD PTR [eax], eax

; 1418 : 		_Rmost() = this->_Myhead;

  0003c	8b 47 04	 mov	 eax, DWORD PTR [edi+4]
  0003f	89 40 08	 mov	 DWORD PTR [eax+8], eax

; 1419 : 		this->_Mysize = 0;

  00042	c7 47 08 00 00
	00 00		 mov	 DWORD PTR [edi+8], 0
  00049	5f		 pop	 edi
  0004a	5e		 pop	 esi
  0004b	5b		 pop	 ebx

; 1420 : 		}

  0004c	c3		 ret	 0
?clear@?$_Tree@V?$_Tmap_traits@HPAUGAMESHOP_PACKAGE_DATA@@U?$less@H@std@@V?$allocator@U?$pair@$$CBHPAUGAMESHOP_PACKAGE_DATA@@@std@@@3@$0A@@std@@@std@@QAEXXZ ENDP ; std::_Tree<std::_Tmap_traits<int,GAMESHOP_PACKAGE_DATA *,std::less<int>,std::allocator<std::pair<int const ,GAMESHOP_PACKAGE_DATA *> >,0> >::clear
_TEXT	ENDS
PUBLIC	??E?$_Tree_iterator@V?$_Tree_val@V?$_Tmap_traits@HPAUGAMESHOP_ITEM_DATA@@U?$less@H@std@@V?$allocator@U?$pair@$$CBHPAUGAMESHOP_ITEM_DATA@@@std@@@3@$0A@@std@@@std@@@std@@QAE?AV01@H@Z ; std::_Tree_iterator<std::_Tree_val<std::_Tmap_traits<int,GAMESHOP_ITEM_DATA *,std::less<int>,std::allocator<std::pair<int const ,GAMESHOP_ITEM_DATA *> >,0> > >::operator++
; Function compile flags: /Ogtp
;	COMDAT ??E?$_Tree_iterator@V?$_Tree_val@V?$_Tmap_traits@HPAUGAMESHOP_ITEM_DATA@@U?$less@H@std@@V?$allocator@U?$pair@$$CBHPAUGAMESHOP_ITEM_DATA@@@std@@@3@$0A@@std@@@std@@@std@@QAE?AV01@H@Z
_TEXT	SEGMENT
___$ReturnUdt$ = 8					; size = 4
___formal$ = 12						; size = 4
??E?$_Tree_iterator@V?$_Tree_val@V?$_Tmap_traits@HPAUGAMESHOP_ITEM_DATA@@U?$less@H@std@@V?$allocator@U?$pair@$$CBHPAUGAMESHOP_ITEM_DATA@@@std@@@3@$0A@@std@@@std@@@std@@QAE?AV01@H@Z PROC ; std::_Tree_iterator<std::_Tree_val<std::_Tmap_traits<int,GAMESHOP_ITEM_DATA *,std::less<int>,std::allocator<std::pair<int const ,GAMESHOP_ITEM_DATA *> >,0> > >::operator++, COMDAT
; _this$ = ecx

; 411  : 		{	// postincrement

  00000	55		 push	 ebp
  00001	8b ec		 mov	 ebp, esp

; 412  : 		_Myiter _Tmp = *this;

  00003	8b 01		 mov	 eax, DWORD PTR [ecx]
  00005	56		 push	 esi
  00006	8b 75 08	 mov	 esi, DWORD PTR ___$ReturnUdt$[ebp]
  00009	89 06		 mov	 DWORD PTR [esi], eax

; 413  : 		++*this;

  0000b	e8 00 00 00 00	 call	 ??E?$_Tree_unchecked_const_iterator@V?$_Tree_val@V?$_Tmap_traits@HPAUGAMESHOP_ITEM_DATA@@U?$less@H@std@@V?$allocator@U?$pair@$$CBHPAUGAMESHOP_ITEM_DATA@@@std@@@3@$0A@@std@@@std@@U_Iterator_base0@2@@std@@QAEAAV01@XZ ; std::_Tree_unchecked_const_iterator<std::_Tree_val<std::_Tmap_traits<int,GAMESHOP_ITEM_DATA *,std::less<int>,std::allocator<std::pair<int const ,GAMESHOP_ITEM_DATA *> >,0> >,std::_Iterator_base0>::operator++

; 414  : 		return (_Tmp);

  00010	8b c6		 mov	 eax, esi
  00012	5e		 pop	 esi

; 415  : 		}

  00013	5d		 pop	 ebp
  00014	c2 08 00	 ret	 8
??E?$_Tree_iterator@V?$_Tree_val@V?$_Tmap_traits@HPAUGAMESHOP_ITEM_DATA@@U?$less@H@std@@V?$allocator@U?$pair@$$CBHPAUGAMESHOP_ITEM_DATA@@@std@@@3@$0A@@std@@@std@@@std@@QAE?AV01@H@Z ENDP ; std::_Tree_iterator<std::_Tree_val<std::_Tmap_traits<int,GAMESHOP_ITEM_DATA *,std::less<int>,std::allocator<std::pair<int const ,GAMESHOP_ITEM_DATA *> >,0> > >::operator++
_TEXT	ENDS
PUBLIC	??E?$_Tree_iterator@V?$_Tree_val@V?$_Tmap_traits@HPAUGAMESHOP_PACKAGE_DATA@@U?$less@H@std@@V?$allocator@U?$pair@$$CBHPAUGAMESHOP_PACKAGE_DATA@@@std@@@3@$0A@@std@@@std@@@std@@QAE?AV01@H@Z ; std::_Tree_iterator<std::_Tree_val<std::_Tmap_traits<int,GAMESHOP_PACKAGE_DATA *,std::less<int>,std::allocator<std::pair<int const ,GAMESHOP_PACKAGE_DATA *> >,0> > >::operator++
; Function compile flags: /Ogtp
;	COMDAT ??E?$_Tree_iterator@V?$_Tree_val@V?$_Tmap_traits@HPAUGAMESHOP_PACKAGE_DATA@@U?$less@H@std@@V?$allocator@U?$pair@$$CBHPAUGAMESHOP_PACKAGE_DATA@@@std@@@3@$0A@@std@@@std@@@std@@QAE?AV01@H@Z
_TEXT	SEGMENT
___$ReturnUdt$ = 8					; size = 4
___formal$ = 12						; size = 4
??E?$_Tree_iterator@V?$_Tree_val@V?$_Tmap_traits@HPAUGAMESHOP_PACKAGE_DATA@@U?$less@H@std@@V?$allocator@U?$pair@$$CBHPAUGAMESHOP_PACKAGE_DATA@@@std@@@3@$0A@@std@@@std@@@std@@QAE?AV01@H@Z PROC ; std::_Tree_iterator<std::_Tree_val<std::_Tmap_traits<int,GAMESHOP_PACKAGE_DATA *,std::less<int>,std::allocator<std::pair<int const ,GAMESHOP_PACKAGE_DATA *> >,0> > >::operator++, COMDAT
; _this$ = ecx

; 411  : 		{	// postincrement

  00000	55		 push	 ebp
  00001	8b ec		 mov	 ebp, esp

; 412  : 		_Myiter _Tmp = *this;

  00003	8b 01		 mov	 eax, DWORD PTR [ecx]
  00005	56		 push	 esi
  00006	8b 75 08	 mov	 esi, DWORD PTR ___$ReturnUdt$[ebp]
  00009	89 06		 mov	 DWORD PTR [esi], eax

; 413  : 		++*this;

  0000b	e8 00 00 00 00	 call	 ??E?$_Tree_unchecked_const_iterator@V?$_Tree_val@V?$_Tmap_traits@HPAUGAMESHOP_PACKAGE_DATA@@U?$less@H@std@@V?$allocator@U?$pair@$$CBHPAUGAMESHOP_PACKAGE_DATA@@@std@@@3@$0A@@std@@@std@@U_Iterator_base0@2@@std@@QAEAAV01@XZ ; std::_Tree_unchecked_const_iterator<std::_Tree_val<std::_Tmap_traits<int,GAMESHOP_PACKAGE_DATA *,std::less<int>,std::allocator<std::pair<int const ,GAMESHOP_PACKAGE_DATA *> >,0> >,std::_Iterator_base0>::operator++

; 414  : 		return (_Tmp);

  00010	8b c6		 mov	 eax, esi
  00012	5e		 pop	 esi

; 415  : 		}

  00013	5d		 pop	 ebp
  00014	c2 08 00	 ret	 8
??E?$_Tree_iterator@V?$_Tree_val@V?$_Tmap_traits@HPAUGAMESHOP_PACKAGE_DATA@@U?$less@H@std@@V?$allocator@U?$pair@$$CBHPAUGAMESHOP_PACKAGE_DATA@@@std@@@3@$0A@@std@@@std@@@std@@QAE?AV01@H@Z ENDP ; std::_Tree_iterator<std::_Tree_val<std::_Tmap_traits<int,GAMESHOP_PACKAGE_DATA *,std::less<int>,std::allocator<std::pair<int const ,GAMESHOP_PACKAGE_DATA *> >,0> > >::operator++
_TEXT	ENDS
PUBLIC	??0?$_Tree@V?$_Tmap_traits@HPAUGAMESHOP_ITEM_DATA@@U?$less@H@std@@V?$allocator@U?$pair@$$CBHPAUGAMESHOP_ITEM_DATA@@@std@@@3@$0A@@std@@@std@@QAE@ABU?$less@H@1@ABV?$allocator@U?$pair@$$CBHPAUGAMESHOP_ITEM_DATA@@@std@@@1@@Z ; std::_Tree<std::_Tmap_traits<int,GAMESHOP_ITEM_DATA *,std::less<int>,std::allocator<std::pair<int const ,GAMESHOP_ITEM_DATA *> >,0> >::_Tree<std::_Tmap_traits<int,GAMESHOP_ITEM_DATA *,std::less<int>,std::allocator<std::pair<int const ,GAMESHOP_ITEM_DATA *> >,0> >
; Function compile flags: /Ogtp
;	COMDAT ??0?$_Tree@V?$_Tmap_traits@HPAUGAMESHOP_ITEM_DATA@@U?$less@H@std@@V?$allocator@U?$pair@$$CBHPAUGAMESHOP_ITEM_DATA@@@std@@@3@$0A@@std@@@std@@QAE@ABU?$less@H@1@ABV?$allocator@U?$pair@$$CBHPAUGAMESHOP_ITEM_DATA@@@std@@@1@@Z
_TEXT	SEGMENT
$T220020 = -16						; size = 12
$T219960 = -4						; size = 4
__Parg$ = 8						; size = 4
__Al$ = 12						; size = 4
??0?$_Tree@V?$_Tmap_traits@HPAUGAMESHOP_ITEM_DATA@@U?$less@H@std@@V?$allocator@U?$pair@$$CBHPAUGAMESHOP_ITEM_DATA@@@std@@@3@$0A@@std@@@std@@QAE@ABU?$less@H@1@ABV?$allocator@U?$pair@$$CBHPAUGAMESHOP_ITEM_DATA@@@std@@@1@@Z PROC ; std::_Tree<std::_Tmap_traits<int,GAMESHOP_ITEM_DATA *,std::less<int>,std::allocator<std::pair<int const ,GAMESHOP_ITEM_DATA *> >,0> >::_Tree<std::_Tmap_traits<int,GAMESHOP_ITEM_DATA *,std::less<int>,std::allocator<std::pair<int const ,GAMESHOP_ITEM_DATA *> >,0> >, COMDAT
; _this$ = ecx

; 698  : 		{	// construct empty tree

  00000	55		 push	 ebp
  00001	8b ec		 mov	 ebp, esp
  00003	83 ec 10	 sub	 esp, 16			; 00000010H
  00006	56		 push	 esi
  00007	8b f1		 mov	 esi, ecx
  00009	6a 18		 push	 24			; 00000018H
  0000b	c7 46 08 00 00
	00 00		 mov	 DWORD PTR [esi+8], 0
  00012	e8 00 00 00 00	 call	 ??2@YAPAXI@Z		; operator new
  00017	83 c4 04	 add	 esp, 4
  0001a	85 c0		 test	 eax, eax
  0001c	74 28		 je	 SHORT $LN20@Tree
  0001e	89 46 04	 mov	 DWORD PTR [esi+4], eax
  00021	89 00		 mov	 DWORD PTR [eax], eax
  00023	8b 46 04	 mov	 eax, DWORD PTR [esi+4]
  00026	89 40 04	 mov	 DWORD PTR [eax+4], eax
  00029	8b 46 04	 mov	 eax, DWORD PTR [esi+4]
  0002c	89 40 08	 mov	 DWORD PTR [eax+8], eax
  0002f	8b 4e 04	 mov	 ecx, DWORD PTR [esi+4]
  00032	b0 01		 mov	 al, 1
  00034	88 41 14	 mov	 BYTE PTR [ecx+20], al
  00037	8b 56 04	 mov	 edx, DWORD PTR [esi+4]
  0003a	88 42 15	 mov	 BYTE PTR [edx+21], al

; 699  : 		}

  0003d	8b c6		 mov	 eax, esi
  0003f	5e		 pop	 esi
  00040	8b e5		 mov	 esp, ebp
  00042	5d		 pop	 ebp
  00043	c2 08 00	 ret	 8

; 698  : 		{	// construct empty tree

$LN20@Tree:
  00046	8d 45 fc	 lea	 eax, DWORD PTR $T219960[ebp]
  00049	50		 push	 eax
  0004a	8d 4d f0	 lea	 ecx, DWORD PTR $T220020[ebp]
  0004d	c7 45 fc 00 00
	00 00		 mov	 DWORD PTR $T219960[ebp], 0
  00054	e8 00 00 00 00	 call	 ??0exception@std@@QAE@ABQBD@Z ; std::exception::exception
  00059	68 00 00 00 00	 push	 OFFSET __TI2?AVbad_alloc@std@@
  0005e	8d 4d f0	 lea	 ecx, DWORD PTR $T220020[ebp]
  00061	51		 push	 ecx
  00062	c7 45 f0 00 00
	00 00		 mov	 DWORD PTR $T220020[ebp], OFFSET ??_7bad_alloc@std@@6B@
  00069	e8 00 00 00 00	 call	 __CxxThrowException@8
$LN43@Tree:
$LN42@Tree:
  0006e	cc		 int	 3
??0?$_Tree@V?$_Tmap_traits@HPAUGAMESHOP_ITEM_DATA@@U?$less@H@std@@V?$allocator@U?$pair@$$CBHPAUGAMESHOP_ITEM_DATA@@@std@@@3@$0A@@std@@@std@@QAE@ABU?$less@H@1@ABV?$allocator@U?$pair@$$CBHPAUGAMESHOP_ITEM_DATA@@@std@@@1@@Z ENDP ; std::_Tree<std::_Tmap_traits<int,GAMESHOP_ITEM_DATA *,std::less<int>,std::allocator<std::pair<int const ,GAMESHOP_ITEM_DATA *> >,0> >::_Tree<std::_Tmap_traits<int,GAMESHOP_ITEM_DATA *,std::less<int>,std::allocator<std::pair<int const ,GAMESHOP_ITEM_DATA *> >,0> >
_TEXT	ENDS
PUBLIC	??0?$_Tree@V?$_Tmap_traits@HPAUGAMESHOP_PACKAGE_DATA@@U?$less@H@std@@V?$allocator@U?$pair@$$CBHPAUGAMESHOP_PACKAGE_DATA@@@std@@@3@$0A@@std@@@std@@QAE@ABU?$less@H@1@ABV?$allocator@U?$pair@$$CBHPAUGAMESHOP_PACKAGE_DATA@@@std@@@1@@Z ; std::_Tree<std::_Tmap_traits<int,GAMESHOP_PACKAGE_DATA *,std::less<int>,std::allocator<std::pair<int const ,GAMESHOP_PACKAGE_DATA *> >,0> >::_Tree<std::_Tmap_traits<int,GAMESHOP_PACKAGE_DATA *,std::less<int>,std::allocator<std::pair<int const ,GAMESHOP_PACKAGE_DATA *> >,0> >
; Function compile flags: /Ogtp
;	COMDAT ??0?$_Tree@V?$_Tmap_traits@HPAUGAMESHOP_PACKAGE_DATA@@U?$less@H@std@@V?$allocator@U?$pair@$$CBHPAUGAMESHOP_PACKAGE_DATA@@@std@@@3@$0A@@std@@@std@@QAE@ABU?$less@H@1@ABV?$allocator@U?$pair@$$CBHPAUGAMESHOP_PACKAGE_DATA@@@std@@@1@@Z
_TEXT	SEGMENT
$T220143 = -16						; size = 12
$T220083 = -4						; size = 4
__Parg$ = 8						; size = 4
__Al$ = 12						; size = 4
??0?$_Tree@V?$_Tmap_traits@HPAUGAMESHOP_PACKAGE_DATA@@U?$less@H@std@@V?$allocator@U?$pair@$$CBHPAUGAMESHOP_PACKAGE_DATA@@@std@@@3@$0A@@std@@@std@@QAE@ABU?$less@H@1@ABV?$allocator@U?$pair@$$CBHPAUGAMESHOP_PACKAGE_DATA@@@std@@@1@@Z PROC ; std::_Tree<std::_Tmap_traits<int,GAMESHOP_PACKAGE_DATA *,std::less<int>,std::allocator<std::pair<int const ,GAMESHOP_PACKAGE_DATA *> >,0> >::_Tree<std::_Tmap_traits<int,GAMESHOP_PACKAGE_DATA *,std::less<int>,std::allocator<std::pair<int const ,GAMESHOP_PACKAGE_DATA *> >,0> >, COMDAT
; _this$ = ecx

; 698  : 		{	// construct empty tree

  00000	55		 push	 ebp
  00001	8b ec		 mov	 ebp, esp
  00003	83 ec 10	 sub	 esp, 16			; 00000010H
  00006	56		 push	 esi
  00007	8b f1		 mov	 esi, ecx
  00009	6a 18		 push	 24			; 00000018H
  0000b	c7 46 08 00 00
	00 00		 mov	 DWORD PTR [esi+8], 0
  00012	e8 00 00 00 00	 call	 ??2@YAPAXI@Z		; operator new
  00017	83 c4 04	 add	 esp, 4
  0001a	85 c0		 test	 eax, eax
  0001c	74 28		 je	 SHORT $LN20@Tree@2
  0001e	89 46 04	 mov	 DWORD PTR [esi+4], eax
  00021	89 00		 mov	 DWORD PTR [eax], eax
  00023	8b 46 04	 mov	 eax, DWORD PTR [esi+4]
  00026	89 40 04	 mov	 DWORD PTR [eax+4], eax
  00029	8b 46 04	 mov	 eax, DWORD PTR [esi+4]
  0002c	89 40 08	 mov	 DWORD PTR [eax+8], eax
  0002f	8b 4e 04	 mov	 ecx, DWORD PTR [esi+4]
  00032	b0 01		 mov	 al, 1
  00034	88 41 14	 mov	 BYTE PTR [ecx+20], al
  00037	8b 56 04	 mov	 edx, DWORD PTR [esi+4]
  0003a	88 42 15	 mov	 BYTE PTR [edx+21], al

; 699  : 		}

  0003d	8b c6		 mov	 eax, esi
  0003f	5e		 pop	 esi
  00040	8b e5		 mov	 esp, ebp
  00042	5d		 pop	 ebp
  00043	c2 08 00	 ret	 8

; 698  : 		{	// construct empty tree

$LN20@Tree@2:
  00046	8d 45 fc	 lea	 eax, DWORD PTR $T220083[ebp]
  00049	50		 push	 eax
  0004a	8d 4d f0	 lea	 ecx, DWORD PTR $T220143[ebp]
  0004d	c7 45 fc 00 00
	00 00		 mov	 DWORD PTR $T220083[ebp], 0
  00054	e8 00 00 00 00	 call	 ??0exception@std@@QAE@ABQBD@Z ; std::exception::exception
  00059	68 00 00 00 00	 push	 OFFSET __TI2?AVbad_alloc@std@@
  0005e	8d 4d f0	 lea	 ecx, DWORD PTR $T220143[ebp]
  00061	51		 push	 ecx
  00062	c7 45 f0 00 00
	00 00		 mov	 DWORD PTR $T220143[ebp], OFFSET ??_7bad_alloc@std@@6B@
  00069	e8 00 00 00 00	 call	 __CxxThrowException@8
$LN43@Tree@2:
$LN42@Tree@2:
  0006e	cc		 int	 3
??0?$_Tree@V?$_Tmap_traits@HPAUGAMESHOP_PACKAGE_DATA@@U?$less@H@std@@V?$allocator@U?$pair@$$CBHPAUGAMESHOP_PACKAGE_DATA@@@std@@@3@$0A@@std@@@std@@QAE@ABU?$less@H@1@ABV?$allocator@U?$pair@$$CBHPAUGAMESHOP_PACKAGE_DATA@@@std@@@1@@Z ENDP ; std::_Tree<std::_Tmap_traits<int,GAMESHOP_PACKAGE_DATA *,std::less<int>,std::allocator<std::pair<int const ,GAMESHOP_PACKAGE_DATA *> >,0> >::_Tree<std::_Tmap_traits<int,GAMESHOP_PACKAGE_DATA *,std::less<int>,std::allocator<std::pair<int const ,GAMESHOP_PACKAGE_DATA *> >,0> >
_TEXT	ENDS
PUBLIC	?lower_bound@?$_Tree@V?$_Tmap_traits@HPAUGAMESHOP_PACKAGE_DATA@@U?$less@H@std@@V?$allocator@U?$pair@$$CBHPAUGAMESHOP_PACKAGE_DATA@@@std@@@3@$0A@@std@@@std@@QAE?AV?$_Tree_iterator@V?$_Tree_val@V?$_Tmap_traits@HPAUGAMESHOP_PACKAGE_DATA@@U?$less@H@std@@V?$allocator@U?$pair@$$CBHPAUGAMESHOP_PACKAGE_DATA@@@std@@@3@$0A@@std@@@std@@@2@ABH@Z ; std::_Tree<std::_Tmap_traits<int,GAMESHOP_PACKAGE_DATA *,std::less<int>,std::allocator<std::pair<int const ,GAMESHOP_PACKAGE_DATA *> >,0> >::lower_bound
; Function compile flags: /Ogtp
;	COMDAT ?lower_bound@?$_Tree@V?$_Tmap_traits@HPAUGAMESHOP_PACKAGE_DATA@@U?$less@H@std@@V?$allocator@U?$pair@$$CBHPAUGAMESHOP_PACKAGE_DATA@@@std@@@3@$0A@@std@@@std@@QAE?AV?$_Tree_iterator@V?$_Tree_val@V?$_Tmap_traits@HPAUGAMESHOP_PACKAGE_DATA@@U?$less@H@std@@V?$allocator@U?$pair@$$CBHPAUGAMESHOP_PACKAGE_DATA@@@std@@@3@$0A@@std@@@std@@@2@ABH@Z
_TEXT	SEGMENT
___$ReturnUdt$ = 8					; size = 4
__Keyval$ = 12						; size = 4
?lower_bound@?$_Tree@V?$_Tmap_traits@HPAUGAMESHOP_PACKAGE_DATA@@U?$less@H@std@@V?$allocator@U?$pair@$$CBHPAUGAMESHOP_PACKAGE_DATA@@@std@@@3@$0A@@std@@@std@@QAE?AV?$_Tree_iterator@V?$_Tree_val@V?$_Tmap_traits@HPAUGAMESHOP_PACKAGE_DATA@@U?$less@H@std@@V?$allocator@U?$pair@$$CBHPAUGAMESHOP_PACKAGE_DATA@@@std@@@3@$0A@@std@@@std@@@2@ABH@Z PROC ; std::_Tree<std::_Tmap_traits<int,GAMESHOP_PACKAGE_DATA *,std::less<int>,std::allocator<std::pair<int const ,GAMESHOP_PACKAGE_DATA *> >,0> >::lower_bound, COMDAT
; _this$ = ecx

; 1449 : 		{	// find leftmost node not less than _Keyval in mutable tree

  00000	55		 push	 ebp
  00001	8b ec		 mov	 ebp, esp

; 1450 : 		return (iterator(_Lbound(_Keyval), this));

  00003	8b 49 04	 mov	 ecx, DWORD PTR [ecx+4]
  00006	8b 41 04	 mov	 eax, DWORD PTR [ecx+4]
  00009	80 78 15 00	 cmp	 BYTE PTR [eax+21], 0
  0000d	75 19		 jne	 SHORT $LN36@lower_boun
  0000f	8b 55 0c	 mov	 edx, DWORD PTR __Keyval$[ebp]
  00012	8b 12		 mov	 edx, DWORD PTR [edx]
$LL6@lower_boun:
  00014	39 50 0c	 cmp	 DWORD PTR [eax+12], edx
  00017	7d 05		 jge	 SHORT $LN4@lower_boun
  00019	8b 40 08	 mov	 eax, DWORD PTR [eax+8]
  0001c	eb 04		 jmp	 SHORT $LN3@lower_boun
$LN4@lower_boun:
  0001e	8b c8		 mov	 ecx, eax
  00020	8b 00		 mov	 eax, DWORD PTR [eax]
$LN3@lower_boun:
  00022	80 78 15 00	 cmp	 BYTE PTR [eax+21], 0
  00026	74 ec		 je	 SHORT $LL6@lower_boun
$LN36@lower_boun:
  00028	8b 45 08	 mov	 eax, DWORD PTR ___$ReturnUdt$[ebp]
  0002b	89 08		 mov	 DWORD PTR [eax], ecx

; 1451 : 		}

  0002d	5d		 pop	 ebp
  0002e	c2 08 00	 ret	 8
?lower_bound@?$_Tree@V?$_Tmap_traits@HPAUGAMESHOP_PACKAGE_DATA@@U?$less@H@std@@V?$allocator@U?$pair@$$CBHPAUGAMESHOP_PACKAGE_DATA@@@std@@@3@$0A@@std@@@std@@QAE?AV?$_Tree_iterator@V?$_Tree_val@V?$_Tmap_traits@HPAUGAMESHOP_PACKAGE_DATA@@U?$less@H@std@@V?$allocator@U?$pair@$$CBHPAUGAMESHOP_PACKAGE_DATA@@@std@@@3@$0A@@std@@@std@@@2@ABH@Z ENDP ; std::_Tree<std::_Tmap_traits<int,GAMESHOP_PACKAGE_DATA *,std::less<int>,std::allocator<std::pair<int const ,GAMESHOP_PACKAGE_DATA *> >,0> >::lower_bound
_TEXT	ENDS
PUBLIC	?erase@?$_Tree@V?$_Tmap_traits@HPAUGAMESHOP_ITEM_DATA@@U?$less@H@std@@V?$allocator@U?$pair@$$CBHPAUGAMESHOP_ITEM_DATA@@@std@@@3@$0A@@std@@@std@@QAE?AV?$_Tree_iterator@V?$_Tree_val@V?$_Tmap_traits@HPAUGAMESHOP_ITEM_DATA@@U?$less@H@std@@V?$allocator@U?$pair@$$CBHPAUGAMESHOP_ITEM_DATA@@@std@@@3@$0A@@std@@@std@@@2@V?$_Tree_const_iterator@V?$_Tree_val@V?$_Tmap_traits@HPAUGAMESHOP_ITEM_DATA@@U?$less@H@std@@V?$allocator@U?$pair@$$CBHPAUGAMESHOP_ITEM_DATA@@@std@@@3@$0A@@std@@@std@@@2@0@Z ; std::_Tree<std::_Tmap_traits<int,GAMESHOP_ITEM_DATA *,std::less<int>,std::allocator<std::pair<int const ,GAMESHOP_ITEM_DATA *> >,0> >::erase
; Function compile flags: /Ogtp
;	COMDAT ?erase@?$_Tree@V?$_Tmap_traits@HPAUGAMESHOP_ITEM_DATA@@U?$less@H@std@@V?$allocator@U?$pair@$$CBHPAUGAMESHOP_ITEM_DATA@@@std@@@3@$0A@@std@@@std@@QAE?AV?$_Tree_iterator@V?$_Tree_val@V?$_Tmap_traits@HPAUGAMESHOP_ITEM_DATA@@U?$less@H@std@@V?$allocator@U?$pair@$$CBHPAUGAMESHOP_ITEM_DATA@@@std@@@3@$0A@@std@@@std@@@2@V?$_Tree_const_iterator@V?$_Tree_val@V?$_Tmap_traits@HPAUGAMESHOP_ITEM_DATA@@U?$less@H@std@@V?$allocator@U?$pair@$$CBHPAUGAMESHOP_ITEM_DATA@@@std@@@3@$0A@@std@@@std@@@2@0@Z
_TEXT	SEGMENT
$T220260 = -4						; size = 4
___$ReturnUdt$ = 8					; size = 4
__First$ = 12						; size = 4
__Last$ = 16						; size = 4
?erase@?$_Tree@V?$_Tmap_traits@HPAUGAMESHOP_ITEM_DATA@@U?$less@H@std@@V?$allocator@U?$pair@$$CBHPAUGAMESHOP_ITEM_DATA@@@std@@@3@$0A@@std@@@std@@QAE?AV?$_Tree_iterator@V?$_Tree_val@V?$_Tmap_traits@HPAUGAMESHOP_ITEM_DATA@@U?$less@H@std@@V?$allocator@U?$pair@$$CBHPAUGAMESHOP_ITEM_DATA@@@std@@@3@$0A@@std@@@std@@@2@V?$_Tree_const_iterator@V?$_Tree_val@V?$_Tmap_traits@HPAUGAMESHOP_ITEM_DATA@@U?$less@H@std@@V?$allocator@U?$pair@$$CBHPAUGAMESHOP_ITEM_DATA@@@std@@@3@$0A@@std@@@std@@@2@0@Z PROC ; std::_Tree<std::_Tmap_traits<int,GAMESHOP_ITEM_DATA *,std::less<int>,std::allocator<std::pair<int const ,GAMESHOP_ITEM_DATA *> >,0> >::erase, COMDAT
; _this$ = ecx

; 1379 : 		{	// erase [_First, _Last)

  00000	55		 push	 ebp
  00001	8b ec		 mov	 ebp, esp
  00003	51		 push	 ecx

; 1380 : 		if (_First == begin() && _Last == end())

  00004	8b 55 10	 mov	 edx, DWORD PTR __Last$[ebp]
  00007	56		 push	 esi
  00008	8b f1		 mov	 esi, ecx
  0000a	8b 46 04	 mov	 eax, DWORD PTR [esi+4]
  0000d	8b 4d 0c	 mov	 ecx, DWORD PTR __First$[ebp]
  00010	3b 08		 cmp	 ecx, DWORD PTR [eax]
  00012	75 1c		 jne	 SHORT $LN97@erase@3
  00014	3b d0		 cmp	 edx, eax
  00016	75 18		 jne	 SHORT $LN97@erase@3

; 1381 : 			{	// erase all
; 1382 : 			clear();

  00018	8b ce		 mov	 ecx, esi
  0001a	e8 00 00 00 00	 call	 ?clear@?$_Tree@V?$_Tmap_traits@HPAUGAMESHOP_ITEM_DATA@@U?$less@H@std@@V?$allocator@U?$pair@$$CBHPAUGAMESHOP_ITEM_DATA@@@std@@@3@$0A@@std@@@std@@QAEXXZ ; std::_Tree<std::_Tmap_traits<int,GAMESHOP_ITEM_DATA *,std::less<int>,std::allocator<std::pair<int const ,GAMESHOP_ITEM_DATA *> >,0> >::clear

; 1383 : 			return (begin());

  0001f	8b 46 04	 mov	 eax, DWORD PTR [esi+4]
  00022	8b 08		 mov	 ecx, DWORD PTR [eax]

; 1389 : 			return (iterator(_First._Ptr, this));

  00024	8b 45 08	 mov	 eax, DWORD PTR ___$ReturnUdt$[ebp]
  00027	89 08		 mov	 DWORD PTR [eax], ecx
  00029	5e		 pop	 esi

; 1390 : 			}
; 1391 : 		}

  0002a	8b e5		 mov	 esp, ebp
  0002c	5d		 pop	 ebp
  0002d	c2 0c 00	 ret	 12			; 0000000cH
$LN97@erase@3:

; 1384 : 			}
; 1385 : 		else
; 1386 : 			{	// partial erase, one at a time
; 1387 : 			while (_First != _Last)

  00030	3b ca		 cmp	 ecx, edx
  00032	74 5e		 je	 SHORT $LN1@erase@3
$LL2@erase@3:

; 1388 : 				erase(_First++);

  00034	80 79 15 00	 cmp	 BYTE PTR [ecx+21], 0
  00038	8b d1		 mov	 edx, ecx
  0003a	75 42		 jne	 SHORT $LN59@erase@3
  0003c	8b 41 08	 mov	 eax, DWORD PTR [ecx+8]
  0003f	80 78 15 00	 cmp	 BYTE PTR [eax+21], 0
  00043	75 1a		 jne	 SHORT $LN99@erase@3
  00045	8b c8		 mov	 ecx, eax
  00047	8b 01		 mov	 eax, DWORD PTR [ecx]
  00049	80 78 15 00	 cmp	 BYTE PTR [eax+21], 0
  0004d	75 0b		 jne	 SHORT $LN73@erase@3
  0004f	90		 npad	 1
$LL74@erase@3:
  00050	8b c8		 mov	 ecx, eax
  00052	8b 01		 mov	 eax, DWORD PTR [ecx]
  00054	80 78 15 00	 cmp	 BYTE PTR [eax+21], 0
  00058	74 f6		 je	 SHORT $LL74@erase@3
$LN73@erase@3:
  0005a	89 4d 0c	 mov	 DWORD PTR __First$[ebp], ecx
  0005d	eb 1f		 jmp	 SHORT $LN59@erase@3
$LN99@erase@3:
  0005f	8b 41 04	 mov	 eax, DWORD PTR [ecx+4]
  00062	80 78 15 00	 cmp	 BYTE PTR [eax+21], 0
  00066	75 13		 jne	 SHORT $LN57@erase@3
$LL58@erase@3:
  00068	3b 48 08	 cmp	 ecx, DWORD PTR [eax+8]
  0006b	75 0e		 jne	 SHORT $LN57@erase@3
  0006d	8b c8		 mov	 ecx, eax
  0006f	89 4d 0c	 mov	 DWORD PTR __First$[ebp], ecx
  00072	8b 40 04	 mov	 eax, DWORD PTR [eax+4]
  00075	80 78 15 00	 cmp	 BYTE PTR [eax+21], 0
  00079	74 ed		 je	 SHORT $LL58@erase@3
$LN57@erase@3:
  0007b	89 45 0c	 mov	 DWORD PTR __First$[ebp], eax
$LN59@erase@3:
  0007e	52		 push	 edx
  0007f	8d 55 fc	 lea	 edx, DWORD PTR $T220260[ebp]
  00082	52		 push	 edx
  00083	8b ce		 mov	 ecx, esi
  00085	e8 00 00 00 00	 call	 ?erase@?$_Tree@V?$_Tmap_traits@HPAUGAMESHOP_ITEM_DATA@@U?$less@H@std@@V?$allocator@U?$pair@$$CBHPAUGAMESHOP_ITEM_DATA@@@std@@@3@$0A@@std@@@std@@QAE?AV?$_Tree_iterator@V?$_Tree_val@V?$_Tmap_traits@HPAUGAMESHOP_ITEM_DATA@@U?$less@H@std@@V?$allocator@U?$pair@$$CBHPAUGAMESHOP_ITEM_DATA@@@std@@@3@$0A@@std@@@std@@@2@V?$_Tree_const_iterator@V?$_Tree_val@V?$_Tmap_traits@HPAUGAMESHOP_ITEM_DATA@@U?$less@H@std@@V?$allocator@U?$pair@$$CBHPAUGAMESHOP_ITEM_DATA@@@std@@@3@$0A@@std@@@std@@@2@@Z ; std::_Tree<std::_Tmap_traits<int,GAMESHOP_ITEM_DATA *,std::less<int>,std::allocator<std::pair<int const ,GAMESHOP_ITEM_DATA *> >,0> >::erase
  0008a	8b 4d 0c	 mov	 ecx, DWORD PTR __First$[ebp]
  0008d	3b 4d 10	 cmp	 ecx, DWORD PTR __Last$[ebp]
  00090	75 a2		 jne	 SHORT $LL2@erase@3
$LN1@erase@3:

; 1389 : 			return (iterator(_First._Ptr, this));

  00092	8b 45 08	 mov	 eax, DWORD PTR ___$ReturnUdt$[ebp]
  00095	89 08		 mov	 DWORD PTR [eax], ecx
  00097	5e		 pop	 esi

; 1390 : 			}
; 1391 : 		}

  00098	8b e5		 mov	 esp, ebp
  0009a	5d		 pop	 ebp
  0009b	c2 0c 00	 ret	 12			; 0000000cH
?erase@?$_Tree@V?$_Tmap_traits@HPAUGAMESHOP_ITEM_DATA@@U?$less@H@std@@V?$allocator@U?$pair@$$CBHPAUGAMESHOP_ITEM_DATA@@@std@@@3@$0A@@std@@@std@@QAE?AV?$_Tree_iterator@V?$_Tree_val@V?$_Tmap_traits@HPAUGAMESHOP_ITEM_DATA@@U?$less@H@std@@V?$allocator@U?$pair@$$CBHPAUGAMESHOP_ITEM_DATA@@@std@@@3@$0A@@std@@@std@@@2@V?$_Tree_const_iterator@V?$_Tree_val@V?$_Tmap_traits@HPAUGAMESHOP_ITEM_DATA@@U?$less@H@std@@V?$allocator@U?$pair@$$CBHPAUGAMESHOP_ITEM_DATA@@@std@@@3@$0A@@std@@@std@@@2@0@Z ENDP ; std::_Tree<std::_Tmap_traits<int,GAMESHOP_ITEM_DATA *,std::less<int>,std::allocator<std::pair<int const ,GAMESHOP_ITEM_DATA *> >,0> >::erase
_TEXT	ENDS
PUBLIC	?erase@?$_Tree@V?$_Tmap_traits@HPAUGAMESHOP_PACKAGE_DATA@@U?$less@H@std@@V?$allocator@U?$pair@$$CBHPAUGAMESHOP_PACKAGE_DATA@@@std@@@3@$0A@@std@@@std@@QAE?AV?$_Tree_iterator@V?$_Tree_val@V?$_Tmap_traits@HPAUGAMESHOP_PACKAGE_DATA@@U?$less@H@std@@V?$allocator@U?$pair@$$CBHPAUGAMESHOP_PACKAGE_DATA@@@std@@@3@$0A@@std@@@std@@@2@V?$_Tree_const_iterator@V?$_Tree_val@V?$_Tmap_traits@HPAUGAMESHOP_PACKAGE_DATA@@U?$less@H@std@@V?$allocator@U?$pair@$$CBHPAUGAMESHOP_PACKAGE_DATA@@@std@@@3@$0A@@std@@@std@@@2@0@Z ; std::_Tree<std::_Tmap_traits<int,GAMESHOP_PACKAGE_DATA *,std::less<int>,std::allocator<std::pair<int const ,GAMESHOP_PACKAGE_DATA *> >,0> >::erase
; Function compile flags: /Ogtp
;	COMDAT ?erase@?$_Tree@V?$_Tmap_traits@HPAUGAMESHOP_PACKAGE_DATA@@U?$less@H@std@@V?$allocator@U?$pair@$$CBHPAUGAMESHOP_PACKAGE_DATA@@@std@@@3@$0A@@std@@@std@@QAE?AV?$_Tree_iterator@V?$_Tree_val@V?$_Tmap_traits@HPAUGAMESHOP_PACKAGE_DATA@@U?$less@H@std@@V?$allocator@U?$pair@$$CBHPAUGAMESHOP_PACKAGE_DATA@@@std@@@3@$0A@@std@@@std@@@2@V?$_Tree_const_iterator@V?$_Tree_val@V?$_Tmap_traits@HPAUGAMESHOP_PACKAGE_DATA@@U?$less@H@std@@V?$allocator@U?$pair@$$CBHPAUGAMESHOP_PACKAGE_DATA@@@std@@@3@$0A@@std@@@std@@@2@0@Z
_TEXT	SEGMENT
$T220596 = -4						; size = 4
___$ReturnUdt$ = 8					; size = 4
__First$ = 12						; size = 4
__Last$ = 16						; size = 4
?erase@?$_Tree@V?$_Tmap_traits@HPAUGAMESHOP_PACKAGE_DATA@@U?$less@H@std@@V?$allocator@U?$pair@$$CBHPAUGAMESHOP_PACKAGE_DATA@@@std@@@3@$0A@@std@@@std@@QAE?AV?$_Tree_iterator@V?$_Tree_val@V?$_Tmap_traits@HPAUGAMESHOP_PACKAGE_DATA@@U?$less@H@std@@V?$allocator@U?$pair@$$CBHPAUGAMESHOP_PACKAGE_DATA@@@std@@@3@$0A@@std@@@std@@@2@V?$_Tree_const_iterator@V?$_Tree_val@V?$_Tmap_traits@HPAUGAMESHOP_PACKAGE_DATA@@U?$less@H@std@@V?$allocator@U?$pair@$$CBHPAUGAMESHOP_PACKAGE_DATA@@@std@@@3@$0A@@std@@@std@@@2@0@Z PROC ; std::_Tree<std::_Tmap_traits<int,GAMESHOP_PACKAGE_DATA *,std::less<int>,std::allocator<std::pair<int const ,GAMESHOP_PACKAGE_DATA *> >,0> >::erase, COMDAT
; _this$ = ecx

; 1379 : 		{	// erase [_First, _Last)

  00000	55		 push	 ebp
  00001	8b ec		 mov	 ebp, esp
  00003	51		 push	 ecx

; 1380 : 		if (_First == begin() && _Last == end())

  00004	8b 55 10	 mov	 edx, DWORD PTR __Last$[ebp]
  00007	56		 push	 esi
  00008	8b f1		 mov	 esi, ecx
  0000a	8b 46 04	 mov	 eax, DWORD PTR [esi+4]
  0000d	8b 4d 0c	 mov	 ecx, DWORD PTR __First$[ebp]
  00010	3b 08		 cmp	 ecx, DWORD PTR [eax]
  00012	75 1c		 jne	 SHORT $LN97@erase@4
  00014	3b d0		 cmp	 edx, eax
  00016	75 18		 jne	 SHORT $LN97@erase@4

; 1381 : 			{	// erase all
; 1382 : 			clear();

  00018	8b ce		 mov	 ecx, esi
  0001a	e8 00 00 00 00	 call	 ?clear@?$_Tree@V?$_Tmap_traits@HPAUGAMESHOP_PACKAGE_DATA@@U?$less@H@std@@V?$allocator@U?$pair@$$CBHPAUGAMESHOP_PACKAGE_DATA@@@std@@@3@$0A@@std@@@std@@QAEXXZ ; std::_Tree<std::_Tmap_traits<int,GAMESHOP_PACKAGE_DATA *,std::less<int>,std::allocator<std::pair<int const ,GAMESHOP_PACKAGE_DATA *> >,0> >::clear

; 1383 : 			return (begin());

  0001f	8b 46 04	 mov	 eax, DWORD PTR [esi+4]
  00022	8b 08		 mov	 ecx, DWORD PTR [eax]

; 1389 : 			return (iterator(_First._Ptr, this));

  00024	8b 45 08	 mov	 eax, DWORD PTR ___$ReturnUdt$[ebp]
  00027	89 08		 mov	 DWORD PTR [eax], ecx
  00029	5e		 pop	 esi

; 1390 : 			}
; 1391 : 		}

  0002a	8b e5		 mov	 esp, ebp
  0002c	5d		 pop	 ebp
  0002d	c2 0c 00	 ret	 12			; 0000000cH
$LN97@erase@4:

; 1384 : 			}
; 1385 : 		else
; 1386 : 			{	// partial erase, one at a time
; 1387 : 			while (_First != _Last)

  00030	3b ca		 cmp	 ecx, edx
  00032	74 5e		 je	 SHORT $LN1@erase@4
$LL2@erase@4:

; 1388 : 				erase(_First++);

  00034	80 79 15 00	 cmp	 BYTE PTR [ecx+21], 0
  00038	8b d1		 mov	 edx, ecx
  0003a	75 42		 jne	 SHORT $LN59@erase@4
  0003c	8b 41 08	 mov	 eax, DWORD PTR [ecx+8]
  0003f	80 78 15 00	 cmp	 BYTE PTR [eax+21], 0
  00043	75 1a		 jne	 SHORT $LN99@erase@4
  00045	8b c8		 mov	 ecx, eax
  00047	8b 01		 mov	 eax, DWORD PTR [ecx]
  00049	80 78 15 00	 cmp	 BYTE PTR [eax+21], 0
  0004d	75 0b		 jne	 SHORT $LN73@erase@4
  0004f	90		 npad	 1
$LL74@erase@4:
  00050	8b c8		 mov	 ecx, eax
  00052	8b 01		 mov	 eax, DWORD PTR [ecx]
  00054	80 78 15 00	 cmp	 BYTE PTR [eax+21], 0
  00058	74 f6		 je	 SHORT $LL74@erase@4
$LN73@erase@4:
  0005a	89 4d 0c	 mov	 DWORD PTR __First$[ebp], ecx
  0005d	eb 1f		 jmp	 SHORT $LN59@erase@4
$LN99@erase@4:
  0005f	8b 41 04	 mov	 eax, DWORD PTR [ecx+4]
  00062	80 78 15 00	 cmp	 BYTE PTR [eax+21], 0
  00066	75 13		 jne	 SHORT $LN57@erase@4
$LL58@erase@4:
  00068	3b 48 08	 cmp	 ecx, DWORD PTR [eax+8]
  0006b	75 0e		 jne	 SHORT $LN57@erase@4
  0006d	8b c8		 mov	 ecx, eax
  0006f	89 4d 0c	 mov	 DWORD PTR __First$[ebp], ecx
  00072	8b 40 04	 mov	 eax, DWORD PTR [eax+4]
  00075	80 78 15 00	 cmp	 BYTE PTR [eax+21], 0
  00079	74 ed		 je	 SHORT $LL58@erase@4
$LN57@erase@4:
  0007b	89 45 0c	 mov	 DWORD PTR __First$[ebp], eax
$LN59@erase@4:
  0007e	52		 push	 edx
  0007f	8d 55 fc	 lea	 edx, DWORD PTR $T220596[ebp]
  00082	52		 push	 edx
  00083	8b ce		 mov	 ecx, esi
  00085	e8 00 00 00 00	 call	 ?erase@?$_Tree@V?$_Tmap_traits@HPAUGAMESHOP_PACKAGE_DATA@@U?$less@H@std@@V?$allocator@U?$pair@$$CBHPAUGAMESHOP_PACKAGE_DATA@@@std@@@3@$0A@@std@@@std@@QAE?AV?$_Tree_iterator@V?$_Tree_val@V?$_Tmap_traits@HPAUGAMESHOP_PACKAGE_DATA@@U?$less@H@std@@V?$allocator@U?$pair@$$CBHPAUGAMESHOP_PACKAGE_DATA@@@std@@@3@$0A@@std@@@std@@@2@V?$_Tree_const_iterator@V?$_Tree_val@V?$_Tmap_traits@HPAUGAMESHOP_PACKAGE_DATA@@U?$less@H@std@@V?$allocator@U?$pair@$$CBHPAUGAMESHOP_PACKAGE_DATA@@@std@@@3@$0A@@std@@@std@@@2@@Z ; std::_Tree<std::_Tmap_traits<int,GAMESHOP_PACKAGE_DATA *,std::less<int>,std::allocator<std::pair<int const ,GAMESHOP_PACKAGE_DATA *> >,0> >::erase
  0008a	8b 4d 0c	 mov	 ecx, DWORD PTR __First$[ebp]
  0008d	3b 4d 10	 cmp	 ecx, DWORD PTR __Last$[ebp]
  00090	75 a2		 jne	 SHORT $LL2@erase@4
$LN1@erase@4:

; 1389 : 			return (iterator(_First._Ptr, this));

  00092	8b 45 08	 mov	 eax, DWORD PTR ___$ReturnUdt$[ebp]
  00095	89 08		 mov	 DWORD PTR [eax], ecx
  00097	5e		 pop	 esi

; 1390 : 			}
; 1391 : 		}

  00098	8b e5		 mov	 esp, ebp
  0009a	5d		 pop	 ebp
  0009b	c2 0c 00	 ret	 12			; 0000000cH
?erase@?$_Tree@V?$_Tmap_traits@HPAUGAMESHOP_PACKAGE_DATA@@U?$less@H@std@@V?$allocator@U?$pair@$$CBHPAUGAMESHOP_PACKAGE_DATA@@@std@@@3@$0A@@std@@@std@@QAE?AV?$_Tree_iterator@V?$_Tree_val@V?$_Tmap_traits@HPAUGAMESHOP_PACKAGE_DATA@@U?$less@H@std@@V?$allocator@U?$pair@$$CBHPAUGAMESHOP_PACKAGE_DATA@@@std@@@3@$0A@@std@@@std@@@2@V?$_Tree_const_iterator@V?$_Tree_val@V?$_Tmap_traits@HPAUGAMESHOP_PACKAGE_DATA@@U?$less@H@std@@V?$allocator@U?$pair@$$CBHPAUGAMESHOP_PACKAGE_DATA@@@std@@@3@$0A@@std@@@std@@@2@0@Z ENDP ; std::_Tree<std::_Tmap_traits<int,GAMESHOP_PACKAGE_DATA *,std::less<int>,std::allocator<std::pair<int const ,GAMESHOP_PACKAGE_DATA *> >,0> >::erase
_TEXT	ENDS
PUBLIC	?_Linsert@?$_Tree@V?$_Tmap_traits@HPAUGAMESHOP_ITEM_DATA@@U?$less@H@std@@V?$allocator@U?$pair@$$CBHPAUGAMESHOP_ITEM_DATA@@@std@@@3@$0A@@std@@@std@@QAE?AU?$pair@V?$_Tree_iterator@V?$_Tree_val@V?$_Tmap_traits@HPAUGAMESHOP_ITEM_DATA@@U?$less@H@std@@V?$allocator@U?$pair@$$CBHPAUGAMESHOP_ITEM_DATA@@@std@@@3@$0A@@std@@@std@@@std@@_N@2@PAU_Node@?$_Tree_nod@V?$_Tmap_traits@HPAUGAMESHOP_ITEM_DATA@@U?$less@H@std@@V?$allocator@U?$pair@$$CBHPAUGAMESHOP_ITEM_DATA@@@std@@@3@$0A@@std@@@2@_N@Z ; std::_Tree<std::_Tmap_traits<int,GAMESHOP_ITEM_DATA *,std::less<int>,std::allocator<std::pair<int const ,GAMESHOP_ITEM_DATA *> >,0> >::_Linsert
; Function compile flags: /Ogtp
;	COMDAT ?_Linsert@?$_Tree@V?$_Tmap_traits@HPAUGAMESHOP_ITEM_DATA@@U?$less@H@std@@V?$allocator@U?$pair@$$CBHPAUGAMESHOP_ITEM_DATA@@@std@@@3@$0A@@std@@@std@@QAE?AU?$pair@V?$_Tree_iterator@V?$_Tree_val@V?$_Tmap_traits@HPAUGAMESHOP_ITEM_DATA@@U?$less@H@std@@V?$allocator@U?$pair@$$CBHPAUGAMESHOP_ITEM_DATA@@@std@@@3@$0A@@std@@@std@@@std@@_N@2@PAU_Node@?$_Tree_nod@V?$_Tmap_traits@HPAUGAMESHOP_ITEM_DATA@@U?$less@H@std@@V?$allocator@U?$pair@$$CBHPAUGAMESHOP_ITEM_DATA@@@std@@@3@$0A@@std@@@2@_N@Z
_TEXT	SEGMENT
__Addleft$ = -4						; size = 1
___$ReturnUdt$ = 8					; size = 4
__Node$ = 12						; size = 4
$T220937 = 16						; size = 4
$T220935 = 16						; size = 4
__Where$214027 = 16					; size = 4
__Leftish$ = 16						; size = 1
?_Linsert@?$_Tree@V?$_Tmap_traits@HPAUGAMESHOP_ITEM_DATA@@U?$less@H@std@@V?$allocator@U?$pair@$$CBHPAUGAMESHOP_ITEM_DATA@@@std@@@3@$0A@@std@@@std@@QAE?AU?$pair@V?$_Tree_iterator@V?$_Tree_val@V?$_Tmap_traits@HPAUGAMESHOP_ITEM_DATA@@U?$less@H@std@@V?$allocator@U?$pair@$$CBHPAUGAMESHOP_ITEM_DATA@@@std@@@3@$0A@@std@@@std@@@std@@_N@2@PAU_Node@?$_Tree_nod@V?$_Tmap_traits@HPAUGAMESHOP_ITEM_DATA@@U?$less@H@std@@V?$allocator@U?$pair@$$CBHPAUGAMESHOP_ITEM_DATA@@@std@@@3@$0A@@std@@@2@_N@Z PROC ; std::_Tree<std::_Tmap_traits<int,GAMESHOP_ITEM_DATA *,std::less<int>,std::allocator<std::pair<int const ,GAMESHOP_ITEM_DATA *> >,0> >::_Linsert, COMDAT
; _this$ = ecx

; 944  : 		{	// try to insert node at _Node, on left if _Leftish

  00000	55		 push	 ebp
  00001	8b ec		 mov	 ebp, esp
  00003	51		 push	 ecx

; 945  : 		const value_type& _Val = this->_Myval(_Node);
; 946  : 
; 947  : 		_Nodeptr _Trynode = _Root();
; 948  : 		_Nodeptr _Wherenode = this->_Myhead;
; 949  : 		bool _Addleft = true;	// add to left of head if tree empty
; 950  : 		while (!this->_Isnil(_Trynode))

  00004	8b 55 0c	 mov	 edx, DWORD PTR __Node$[ebp]
  00007	53		 push	 ebx
  00008	8b d9		 mov	 ebx, ecx
  0000a	8b 4b 04	 mov	 ecx, DWORD PTR [ebx+4]
  0000d	8b 41 04	 mov	 eax, DWORD PTR [ecx+4]
  00010	80 78 15 00	 cmp	 BYTE PTR [eax+21], 0
  00014	56		 push	 esi
  00015	8b f1		 mov	 esi, ecx
  00017	b1 01		 mov	 cl, 1
  00019	57		 push	 edi
  0001a	88 4d fc	 mov	 BYTE PTR __Addleft$[ebp], cl
  0001d	75 2d		 jne	 SHORT $LN11@Linsert
  0001f	8b 7a 0c	 mov	 edi, DWORD PTR [edx+12]
$LL12@Linsert:

; 951  : 			{	// look for leaf to insert before (_Addleft) or after
; 952  : 			_Wherenode = _Trynode;
; 953  : 			if (_Leftish)

  00022	80 7d 10 00	 cmp	 BYTE PTR __Leftish$[ebp], 0
  00026	8b f0		 mov	 esi, eax
  00028	74 08		 je	 SHORT $LN10@Linsert

; 954  : 				_Addleft = !_DEBUG_LT_PRED(this->comp,

  0002a	39 78 0c	 cmp	 DWORD PTR [eax+12], edi
  0002d	0f 9d c1	 setge	 cl

; 955  : 					this->_Key(_Trynode),
; 956  : 					this->_Kfn(_Val));	// favor left end
; 957  : 			else

  00030	eb 06		 jmp	 SHORT $LN146@Linsert
$LN10@Linsert:

; 958  : 				_Addleft = _DEBUG_LT_PRED(this->comp,

  00032	3b 78 0c	 cmp	 edi, DWORD PTR [eax+12]
  00035	0f 9c c1	 setl	 cl
$LN146@Linsert:
  00038	88 4d fc	 mov	 BYTE PTR __Addleft$[ebp], cl

; 959  : 					this->_Kfn(_Val),
; 960  : 					this->_Key(_Trynode));	// favor right end
; 961  : 			_Trynode = _Addleft ? this->_Left(_Trynode)
; 962  : 				: this->_Right(_Trynode);

  0003b	84 c9		 test	 cl, cl
  0003d	74 04		 je	 SHORT $LN15@Linsert
  0003f	8b 00		 mov	 eax, DWORD PTR [eax]
  00041	eb 03		 jmp	 SHORT $LN16@Linsert
$LN15@Linsert:
  00043	8b 40 08	 mov	 eax, DWORD PTR [eax+8]
$LN16@Linsert:

; 945  : 		const value_type& _Val = this->_Myval(_Node);
; 946  : 
; 947  : 		_Nodeptr _Trynode = _Root();
; 948  : 		_Nodeptr _Wherenode = this->_Myhead;
; 949  : 		bool _Addleft = true;	// add to left of head if tree empty
; 950  : 		while (!this->_Isnil(_Trynode))

  00046	80 78 15 00	 cmp	 BYTE PTR [eax+21], 0
  0004a	74 d6		 je	 SHORT $LL12@Linsert
$LN11@Linsert:

; 963  : 			}
; 964  : 
; 965  : 		if (this->_Multi)
; 966  : 			return (_Pairib(_Insert(_Addleft, _Wherenode, _Node), true));
; 967  : 		else
; 968  : 			{	// insert only if unique
; 969  : 			iterator _Where = iterator(_Wherenode, this);

  0004c	8b fe		 mov	 edi, esi
  0004e	89 7d 10	 mov	 DWORD PTR __Where$214027[ebp], edi

; 970  : 			if (!_Addleft)

  00051	84 c9		 test	 cl, cl
  00053	74 35		 je	 SHORT $LN99@Linsert

; 971  : 				;	// need to test if insert after is okay
; 972  : 			else if (_Where == begin())

  00055	8b 43 04	 mov	 eax, DWORD PTR [ebx+4]

; 973  : 				return (_Pairib(_Insert(true, _Wherenode, _Node), true));

  00058	8d 4d 10	 lea	 ecx, DWORD PTR $T220935[ebp]
  0005b	3b 30		 cmp	 esi, DWORD PTR [eax]
  0005d	75 20		 jne	 SHORT $LN4@Linsert
  0005f	52		 push	 edx
  00060	56		 push	 esi
  00061	6a 01		 push	 1
  00063	51		 push	 ecx
  00064	8b cb		 mov	 ecx, ebx
  00066	e8 00 00 00 00	 call	 ?_Insert@?$_Tree@V?$_Tmap_traits@HPAUGAMESHOP_ITEM_DATA@@U?$less@H@std@@V?$allocator@U?$pair@$$CBHPAUGAMESHOP_ITEM_DATA@@@std@@@3@$0A@@std@@@std@@IAE?AV?$_Tree_iterator@V?$_Tree_val@V?$_Tmap_traits@HPAUGAMESHOP_ITEM_DATA@@U?$less@H@std@@V?$allocator@U?$pair@$$CBHPAUGAMESHOP_ITEM_DATA@@@std@@@3@$0A@@std@@@std@@@2@_NPAU_Node@?$_Tree_nod@V?$_Tmap_traits@HPAUGAMESHOP_ITEM_DATA@@U?$less@H@std@@V?$allocator@U?$pair@$$CBHPAUGAMESHOP_ITEM_DATA@@@std@@@3@$0A@@std@@@2@1@Z ; std::_Tree<std::_Tmap_traits<int,GAMESHOP_ITEM_DATA *,std::less<int>,std::allocator<std::pair<int const ,GAMESHOP_ITEM_DATA *> >,0> >::_Insert
  0006b	8b 10		 mov	 edx, DWORD PTR [eax]
  0006d	8b 45 08	 mov	 eax, DWORD PTR ___$ReturnUdt$[ebp]
  00070	5f		 pop	 edi
  00071	5e		 pop	 esi
  00072	89 10		 mov	 DWORD PTR [eax], edx
  00074	c6 40 04 01	 mov	 BYTE PTR [eax+4], 1
  00078	5b		 pop	 ebx

; 989  : 				}
; 990  : 			}
; 991  : 		}

  00079	8b e5		 mov	 esp, ebp
  0007b	5d		 pop	 ebp
  0007c	c2 0c 00	 ret	 12			; 0000000cH
$LN4@Linsert:

; 974  : 			else
; 975  : 				--_Where;	// need to test if insert before is okay

  0007f	e8 00 00 00 00	 call	 ??F?$_Tree_unchecked_const_iterator@V?$_Tree_val@V?$_Tmap_traits@HPAUGAMESHOP_ITEM_DATA@@U?$less@H@std@@V?$allocator@U?$pair@$$CBHPAUGAMESHOP_ITEM_DATA@@@std@@@3@$0A@@std@@@std@@U_Iterator_base0@2@@std@@QAEAAV01@XZ ; std::_Tree_unchecked_const_iterator<std::_Tree_val<std::_Tmap_traits<int,GAMESHOP_ITEM_DATA *,std::less<int>,std::allocator<std::pair<int const ,GAMESHOP_ITEM_DATA *> >,0> >,std::_Iterator_base0>::operator--
  00084	8b 7d 10	 mov	 edi, DWORD PTR __Where$214027[ebp]
  00087	8b 55 0c	 mov	 edx, DWORD PTR __Node$[ebp]
$LN99@Linsert:

; 976  : 
; 977  : 			if (_DEBUG_LT_PRED(this->comp,

  0008a	8b 47 0c	 mov	 eax, DWORD PTR [edi+12]

; 978  : 				this->_Key(_Where._Mynode()),
; 979  : 				this->_Kfn(_Val)))
; 980  : 				return (_Pairib(_Insert(_Addleft, _Wherenode, _Node), true));

  0008d	52		 push	 edx
  0008e	3b 42 0c	 cmp	 eax, DWORD PTR [edx+12]
  00091	7d 24		 jge	 SHORT $LN2@Linsert
  00093	8b 4d fc	 mov	 ecx, DWORD PTR __Addleft$[ebp]
  00096	56		 push	 esi
  00097	51		 push	 ecx
  00098	8d 55 10	 lea	 edx, DWORD PTR $T220937[ebp]
  0009b	52		 push	 edx
  0009c	8b cb		 mov	 ecx, ebx
  0009e	e8 00 00 00 00	 call	 ?_Insert@?$_Tree@V?$_Tmap_traits@HPAUGAMESHOP_ITEM_DATA@@U?$less@H@std@@V?$allocator@U?$pair@$$CBHPAUGAMESHOP_ITEM_DATA@@@std@@@3@$0A@@std@@@std@@IAE?AV?$_Tree_iterator@V?$_Tree_val@V?$_Tmap_traits@HPAUGAMESHOP_ITEM_DATA@@U?$less@H@std@@V?$allocator@U?$pair@$$CBHPAUGAMESHOP_ITEM_DATA@@@std@@@3@$0A@@std@@@std@@@2@_NPAU_Node@?$_Tree_nod@V?$_Tmap_traits@HPAUGAMESHOP_ITEM_DATA@@U?$less@H@std@@V?$allocator@U?$pair@$$CBHPAUGAMESHOP_ITEM_DATA@@@std@@@3@$0A@@std@@@2@1@Z ; std::_Tree<std::_Tmap_traits<int,GAMESHOP_ITEM_DATA *,std::less<int>,std::allocator<std::pair<int const ,GAMESHOP_ITEM_DATA *> >,0> >::_Insert
  000a3	8b 08		 mov	 ecx, DWORD PTR [eax]
  000a5	8b 45 08	 mov	 eax, DWORD PTR ___$ReturnUdt$[ebp]
  000a8	5f		 pop	 edi
  000a9	5e		 pop	 esi
  000aa	89 08		 mov	 DWORD PTR [eax], ecx
  000ac	c6 40 04 01	 mov	 BYTE PTR [eax+4], 1
  000b0	5b		 pop	 ebx

; 989  : 				}
; 990  : 			}
; 991  : 		}

  000b1	8b e5		 mov	 esp, ebp
  000b3	5d		 pop	 ebp
  000b4	c2 0c 00	 ret	 12			; 0000000cH
$LN2@Linsert:

; 981  : 			else
; 982  : 				{	// duplicate, don't insert
; 983  : 				_Dest_val(this->_Alval,
; 984  : 					_STD addressof(this->_Myval(_Node)));
; 985  : 
; 986  : 				this->_Alnod.deallocate(_Node, 1);

  000b7	e8 00 00 00 00	 call	 ??3@YAXPAX@Z		; operator delete

; 987  : 
; 988  : 				return (_Pairib(_Where, false));

  000bc	8b 45 08	 mov	 eax, DWORD PTR ___$ReturnUdt$[ebp]
  000bf	83 c4 04	 add	 esp, 4
  000c2	89 38		 mov	 DWORD PTR [eax], edi
  000c4	5f		 pop	 edi
  000c5	5e		 pop	 esi
  000c6	c6 40 04 00	 mov	 BYTE PTR [eax+4], 0
  000ca	5b		 pop	 ebx

; 989  : 				}
; 990  : 			}
; 991  : 		}

  000cb	8b e5		 mov	 esp, ebp
  000cd	5d		 pop	 ebp
  000ce	c2 0c 00	 ret	 12			; 0000000cH
?_Linsert@?$_Tree@V?$_Tmap_traits@HPAUGAMESHOP_ITEM_DATA@@U?$less@H@std@@V?$allocator@U?$pair@$$CBHPAUGAMESHOP_ITEM_DATA@@@std@@@3@$0A@@std@@@std@@QAE?AU?$pair@V?$_Tree_iterator@V?$_Tree_val@V?$_Tmap_traits@HPAUGAMESHOP_ITEM_DATA@@U?$less@H@std@@V?$allocator@U?$pair@$$CBHPAUGAMESHOP_ITEM_DATA@@@std@@@3@$0A@@std@@@std@@@std@@_N@2@PAU_Node@?$_Tree_nod@V?$_Tmap_traits@HPAUGAMESHOP_ITEM_DATA@@U?$less@H@std@@V?$allocator@U?$pair@$$CBHPAUGAMESHOP_ITEM_DATA@@@std@@@3@$0A@@std@@@2@_N@Z ENDP ; std::_Tree<std::_Tmap_traits<int,GAMESHOP_ITEM_DATA *,std::less<int>,std::allocator<std::pair<int const ,GAMESHOP_ITEM_DATA *> >,0> >::_Linsert
_TEXT	ENDS
PUBLIC	?_Linsert@?$_Tree@V?$_Tmap_traits@HPAUGAMESHOP_PACKAGE_DATA@@U?$less@H@std@@V?$allocator@U?$pair@$$CBHPAUGAMESHOP_PACKAGE_DATA@@@std@@@3@$0A@@std@@@std@@QAE?AU?$pair@V?$_Tree_iterator@V?$_Tree_val@V?$_Tmap_traits@HPAUGAMESHOP_PACKAGE_DATA@@U?$less@H@std@@V?$allocator@U?$pair@$$CBHPAUGAMESHOP_PACKAGE_DATA@@@std@@@3@$0A@@std@@@std@@@std@@_N@2@PAU_Node@?$_Tree_nod@V?$_Tmap_traits@HPAUGAMESHOP_PACKAGE_DATA@@U?$less@H@std@@V?$allocator@U?$pair@$$CBHPAUGAMESHOP_PACKAGE_DATA@@@std@@@3@$0A@@std@@@2@_N@Z ; std::_Tree<std::_Tmap_traits<int,GAMESHOP_PACKAGE_DATA *,std::less<int>,std::allocator<std::pair<int const ,GAMESHOP_PACKAGE_DATA *> >,0> >::_Linsert
; Function compile flags: /Ogtp
;	COMDAT ?_Linsert@?$_Tree@V?$_Tmap_traits@HPAUGAMESHOP_PACKAGE_DATA@@U?$less@H@std@@V?$allocator@U?$pair@$$CBHPAUGAMESHOP_PACKAGE_DATA@@@std@@@3@$0A@@std@@@std@@QAE?AU?$pair@V?$_Tree_iterator@V?$_Tree_val@V?$_Tmap_traits@HPAUGAMESHOP_PACKAGE_DATA@@U?$less@H@std@@V?$allocator@U?$pair@$$CBHPAUGAMESHOP_PACKAGE_DATA@@@std@@@3@$0A@@std@@@std@@@std@@_N@2@PAU_Node@?$_Tree_nod@V?$_Tmap_traits@HPAUGAMESHOP_PACKAGE_DATA@@U?$less@H@std@@V?$allocator@U?$pair@$$CBHPAUGAMESHOP_PACKAGE_DATA@@@std@@@3@$0A@@std@@@2@_N@Z
_TEXT	SEGMENT
__Addleft$ = -4						; size = 1
___$ReturnUdt$ = 8					; size = 4
__Node$ = 12						; size = 4
$T221257 = 16						; size = 4
$T221255 = 16						; size = 4
__Where$214077 = 16					; size = 4
__Leftish$ = 16						; size = 1
?_Linsert@?$_Tree@V?$_Tmap_traits@HPAUGAMESHOP_PACKAGE_DATA@@U?$less@H@std@@V?$allocator@U?$pair@$$CBHPAUGAMESHOP_PACKAGE_DATA@@@std@@@3@$0A@@std@@@std@@QAE?AU?$pair@V?$_Tree_iterator@V?$_Tree_val@V?$_Tmap_traits@HPAUGAMESHOP_PACKAGE_DATA@@U?$less@H@std@@V?$allocator@U?$pair@$$CBHPAUGAMESHOP_PACKAGE_DATA@@@std@@@3@$0A@@std@@@std@@@std@@_N@2@PAU_Node@?$_Tree_nod@V?$_Tmap_traits@HPAUGAMESHOP_PACKAGE_DATA@@U?$less@H@std@@V?$allocator@U?$pair@$$CBHPAUGAMESHOP_PACKAGE_DATA@@@std@@@3@$0A@@std@@@2@_N@Z PROC ; std::_Tree<std::_Tmap_traits<int,GAMESHOP_PACKAGE_DATA *,std::less<int>,std::allocator<std::pair<int const ,GAMESHOP_PACKAGE_DATA *> >,0> >::_Linsert, COMDAT
; _this$ = ecx

; 944  : 		{	// try to insert node at _Node, on left if _Leftish

  00000	55		 push	 ebp
  00001	8b ec		 mov	 ebp, esp
  00003	51		 push	 ecx

; 945  : 		const value_type& _Val = this->_Myval(_Node);
; 946  : 
; 947  : 		_Nodeptr _Trynode = _Root();
; 948  : 		_Nodeptr _Wherenode = this->_Myhead;
; 949  : 		bool _Addleft = true;	// add to left of head if tree empty
; 950  : 		while (!this->_Isnil(_Trynode))

  00004	8b 55 0c	 mov	 edx, DWORD PTR __Node$[ebp]
  00007	53		 push	 ebx
  00008	8b d9		 mov	 ebx, ecx
  0000a	8b 4b 04	 mov	 ecx, DWORD PTR [ebx+4]
  0000d	8b 41 04	 mov	 eax, DWORD PTR [ecx+4]
  00010	80 78 15 00	 cmp	 BYTE PTR [eax+21], 0
  00014	56		 push	 esi
  00015	8b f1		 mov	 esi, ecx
  00017	b1 01		 mov	 cl, 1
  00019	57		 push	 edi
  0001a	88 4d fc	 mov	 BYTE PTR __Addleft$[ebp], cl
  0001d	75 2d		 jne	 SHORT $LN11@Linsert@2
  0001f	8b 7a 0c	 mov	 edi, DWORD PTR [edx+12]
$LL12@Linsert@2:

; 951  : 			{	// look for leaf to insert before (_Addleft) or after
; 952  : 			_Wherenode = _Trynode;
; 953  : 			if (_Leftish)

  00022	80 7d 10 00	 cmp	 BYTE PTR __Leftish$[ebp], 0
  00026	8b f0		 mov	 esi, eax
  00028	74 08		 je	 SHORT $LN10@Linsert@2

; 954  : 				_Addleft = !_DEBUG_LT_PRED(this->comp,

  0002a	39 78 0c	 cmp	 DWORD PTR [eax+12], edi
  0002d	0f 9d c1	 setge	 cl

; 955  : 					this->_Key(_Trynode),
; 956  : 					this->_Kfn(_Val));	// favor left end
; 957  : 			else

  00030	eb 06		 jmp	 SHORT $LN146@Linsert@2
$LN10@Linsert@2:

; 958  : 				_Addleft = _DEBUG_LT_PRED(this->comp,

  00032	3b 78 0c	 cmp	 edi, DWORD PTR [eax+12]
  00035	0f 9c c1	 setl	 cl
$LN146@Linsert@2:
  00038	88 4d fc	 mov	 BYTE PTR __Addleft$[ebp], cl

; 959  : 					this->_Kfn(_Val),
; 960  : 					this->_Key(_Trynode));	// favor right end
; 961  : 			_Trynode = _Addleft ? this->_Left(_Trynode)
; 962  : 				: this->_Right(_Trynode);

  0003b	84 c9		 test	 cl, cl
  0003d	74 04		 je	 SHORT $LN15@Linsert@2
  0003f	8b 00		 mov	 eax, DWORD PTR [eax]
  00041	eb 03		 jmp	 SHORT $LN16@Linsert@2
$LN15@Linsert@2:
  00043	8b 40 08	 mov	 eax, DWORD PTR [eax+8]
$LN16@Linsert@2:

; 945  : 		const value_type& _Val = this->_Myval(_Node);
; 946  : 
; 947  : 		_Nodeptr _Trynode = _Root();
; 948  : 		_Nodeptr _Wherenode = this->_Myhead;
; 949  : 		bool _Addleft = true;	// add to left of head if tree empty
; 950  : 		while (!this->_Isnil(_Trynode))

  00046	80 78 15 00	 cmp	 BYTE PTR [eax+21], 0
  0004a	74 d6		 je	 SHORT $LL12@Linsert@2
$LN11@Linsert@2:

; 963  : 			}
; 964  : 
; 965  : 		if (this->_Multi)
; 966  : 			return (_Pairib(_Insert(_Addleft, _Wherenode, _Node), true));
; 967  : 		else
; 968  : 			{	// insert only if unique
; 969  : 			iterator _Where = iterator(_Wherenode, this);

  0004c	8b fe		 mov	 edi, esi
  0004e	89 7d 10	 mov	 DWORD PTR __Where$214077[ebp], edi

; 970  : 			if (!_Addleft)

  00051	84 c9		 test	 cl, cl
  00053	74 35		 je	 SHORT $LN99@Linsert@2

; 971  : 				;	// need to test if insert after is okay
; 972  : 			else if (_Where == begin())

  00055	8b 43 04	 mov	 eax, DWORD PTR [ebx+4]

; 973  : 				return (_Pairib(_Insert(true, _Wherenode, _Node), true));

  00058	8d 4d 10	 lea	 ecx, DWORD PTR $T221255[ebp]
  0005b	3b 30		 cmp	 esi, DWORD PTR [eax]
  0005d	75 20		 jne	 SHORT $LN4@Linsert@2
  0005f	52		 push	 edx
  00060	56		 push	 esi
  00061	6a 01		 push	 1
  00063	51		 push	 ecx
  00064	8b cb		 mov	 ecx, ebx
  00066	e8 00 00 00 00	 call	 ?_Insert@?$_Tree@V?$_Tmap_traits@HPAUGAMESHOP_PACKAGE_DATA@@U?$less@H@std@@V?$allocator@U?$pair@$$CBHPAUGAMESHOP_PACKAGE_DATA@@@std@@@3@$0A@@std@@@std@@IAE?AV?$_Tree_iterator@V?$_Tree_val@V?$_Tmap_traits@HPAUGAMESHOP_PACKAGE_DATA@@U?$less@H@std@@V?$allocator@U?$pair@$$CBHPAUGAMESHOP_PACKAGE_DATA@@@std@@@3@$0A@@std@@@std@@@2@_NPAU_Node@?$_Tree_nod@V?$_Tmap_traits@HPAUGAMESHOP_PACKAGE_DATA@@U?$less@H@std@@V?$allocator@U?$pair@$$CBHPAUGAMESHOP_PACKAGE_DATA@@@std@@@3@$0A@@std@@@2@1@Z ; std::_Tree<std::_Tmap_traits<int,GAMESHOP_PACKAGE_DATA *,std::less<int>,std::allocator<std::pair<int const ,GAMESHOP_PACKAGE_DATA *> >,0> >::_Insert
  0006b	8b 10		 mov	 edx, DWORD PTR [eax]
  0006d	8b 45 08	 mov	 eax, DWORD PTR ___$ReturnUdt$[ebp]
  00070	5f		 pop	 edi
  00071	5e		 pop	 esi
  00072	89 10		 mov	 DWORD PTR [eax], edx
  00074	c6 40 04 01	 mov	 BYTE PTR [eax+4], 1
  00078	5b		 pop	 ebx

; 989  : 				}
; 990  : 			}
; 991  : 		}

  00079	8b e5		 mov	 esp, ebp
  0007b	5d		 pop	 ebp
  0007c	c2 0c 00	 ret	 12			; 0000000cH
$LN4@Linsert@2:

; 974  : 			else
; 975  : 				--_Where;	// need to test if insert before is okay

  0007f	e8 00 00 00 00	 call	 ??F?$_Tree_unchecked_const_iterator@V?$_Tree_val@V?$_Tmap_traits@HPAUGAMESHOP_PACKAGE_DATA@@U?$less@H@std@@V?$allocator@U?$pair@$$CBHPAUGAMESHOP_PACKAGE_DATA@@@std@@@3@$0A@@std@@@std@@U_Iterator_base0@2@@std@@QAEAAV01@XZ ; std::_Tree_unchecked_const_iterator<std::_Tree_val<std::_Tmap_traits<int,GAMESHOP_PACKAGE_DATA *,std::less<int>,std::allocator<std::pair<int const ,GAMESHOP_PACKAGE_DATA *> >,0> >,std::_Iterator_base0>::operator--
  00084	8b 7d 10	 mov	 edi, DWORD PTR __Where$214077[ebp]
  00087	8b 55 0c	 mov	 edx, DWORD PTR __Node$[ebp]
$LN99@Linsert@2:

; 976  : 
; 977  : 			if (_DEBUG_LT_PRED(this->comp,

  0008a	8b 47 0c	 mov	 eax, DWORD PTR [edi+12]

; 978  : 				this->_Key(_Where._Mynode()),
; 979  : 				this->_Kfn(_Val)))
; 980  : 				return (_Pairib(_Insert(_Addleft, _Wherenode, _Node), true));

  0008d	52		 push	 edx
  0008e	3b 42 0c	 cmp	 eax, DWORD PTR [edx+12]
  00091	7d 24		 jge	 SHORT $LN2@Linsert@2
  00093	8b 4d fc	 mov	 ecx, DWORD PTR __Addleft$[ebp]
  00096	56		 push	 esi
  00097	51		 push	 ecx
  00098	8d 55 10	 lea	 edx, DWORD PTR $T221257[ebp]
  0009b	52		 push	 edx
  0009c	8b cb		 mov	 ecx, ebx
  0009e	e8 00 00 00 00	 call	 ?_Insert@?$_Tree@V?$_Tmap_traits@HPAUGAMESHOP_PACKAGE_DATA@@U?$less@H@std@@V?$allocator@U?$pair@$$CBHPAUGAMESHOP_PACKAGE_DATA@@@std@@@3@$0A@@std@@@std@@IAE?AV?$_Tree_iterator@V?$_Tree_val@V?$_Tmap_traits@HPAUGAMESHOP_PACKAGE_DATA@@U?$less@H@std@@V?$allocator@U?$pair@$$CBHPAUGAMESHOP_PACKAGE_DATA@@@std@@@3@$0A@@std@@@std@@@2@_NPAU_Node@?$_Tree_nod@V?$_Tmap_traits@HPAUGAMESHOP_PACKAGE_DATA@@U?$less@H@std@@V?$allocator@U?$pair@$$CBHPAUGAMESHOP_PACKAGE_DATA@@@std@@@3@$0A@@std@@@2@1@Z ; std::_Tree<std::_Tmap_traits<int,GAMESHOP_PACKAGE_DATA *,std::less<int>,std::allocator<std::pair<int const ,GAMESHOP_PACKAGE_DATA *> >,0> >::_Insert
  000a3	8b 08		 mov	 ecx, DWORD PTR [eax]
  000a5	8b 45 08	 mov	 eax, DWORD PTR ___$ReturnUdt$[ebp]
  000a8	5f		 pop	 edi
  000a9	5e		 pop	 esi
  000aa	89 08		 mov	 DWORD PTR [eax], ecx
  000ac	c6 40 04 01	 mov	 BYTE PTR [eax+4], 1
  000b0	5b		 pop	 ebx

; 989  : 				}
; 990  : 			}
; 991  : 		}

  000b1	8b e5		 mov	 esp, ebp
  000b3	5d		 pop	 ebp
  000b4	c2 0c 00	 ret	 12			; 0000000cH
$LN2@Linsert@2:

; 981  : 			else
; 982  : 				{	// duplicate, don't insert
; 983  : 				_Dest_val(this->_Alval,
; 984  : 					_STD addressof(this->_Myval(_Node)));
; 985  : 
; 986  : 				this->_Alnod.deallocate(_Node, 1);

  000b7	e8 00 00 00 00	 call	 ??3@YAXPAX@Z		; operator delete

; 987  : 
; 988  : 				return (_Pairib(_Where, false));

  000bc	8b 45 08	 mov	 eax, DWORD PTR ___$ReturnUdt$[ebp]
  000bf	83 c4 04	 add	 esp, 4
  000c2	89 38		 mov	 DWORD PTR [eax], edi
  000c4	5f		 pop	 edi
  000c5	5e		 pop	 esi
  000c6	c6 40 04 00	 mov	 BYTE PTR [eax+4], 0
  000ca	5b		 pop	 ebx

; 989  : 				}
; 990  : 			}
; 991  : 		}

  000cb	8b e5		 mov	 esp, ebp
  000cd	5d		 pop	 ebp
  000ce	c2 0c 00	 ret	 12			; 0000000cH
?_Linsert@?$_Tree@V?$_Tmap_traits@HPAUGAMESHOP_PACKAGE_DATA@@U?$less@H@std@@V?$allocator@U?$pair@$$CBHPAUGAMESHOP_PACKAGE_DATA@@@std@@@3@$0A@@std@@@std@@QAE?AU?$pair@V?$_Tree_iterator@V?$_Tree_val@V?$_Tmap_traits@HPAUGAMESHOP_PACKAGE_DATA@@U?$less@H@std@@V?$allocator@U?$pair@$$CBHPAUGAMESHOP_PACKAGE_DATA@@@std@@@3@$0A@@std@@@std@@@std@@_N@2@PAU_Node@?$_Tree_nod@V?$_Tmap_traits@HPAUGAMESHOP_PACKAGE_DATA@@U?$less@H@std@@V?$allocator@U?$pair@$$CBHPAUGAMESHOP_PACKAGE_DATA@@@std@@@3@$0A@@std@@@2@_N@Z ENDP ; std::_Tree<std::_Tmap_traits<int,GAMESHOP_PACKAGE_DATA *,std::less<int>,std::allocator<std::pair<int const ,GAMESHOP_PACKAGE_DATA *> >,0> >::_Linsert
_TEXT	ENDS
PUBLIC	?_Insert@?$_Tree@V?$_Tmap_traits@HPAUGAMESHOP_PACKAGE_DATA@@U?$less@H@std@@V?$allocator@U?$pair@$$CBHPAUGAMESHOP_PACKAGE_DATA@@@std@@@3@$0A@@std@@@std@@QAE?AV?$_Tree_iterator@V?$_Tree_val@V?$_Tmap_traits@HPAUGAMESHOP_PACKAGE_DATA@@U?$less@H@std@@V?$allocator@U?$pair@$$CBHPAUGAMESHOP_PACKAGE_DATA@@@std@@@3@$0A@@std@@@std@@@2@V?$_Tree_const_iterator@V?$_Tree_val@V?$_Tmap_traits@HPAUGAMESHOP_PACKAGE_DATA@@U?$less@H@std@@V?$allocator@U?$pair@$$CBHPAUGAMESHOP_PACKAGE_DATA@@@std@@@3@$0A@@std@@@std@@@2@PAU_Node@?$_Tree_nod@V?$_Tmap_traits@HPAUGAMESHOP_PACKAGE_DATA@@U?$less@H@std@@V?$allocator@U?$pair@$$CBHPAUGAMESHOP_PACKAGE_DATA@@@std@@@3@$0A@@std@@@2@@Z ; std::_Tree<std::_Tmap_traits<int,GAMESHOP_PACKAGE_DATA *,std::less<int>,std::allocator<std::pair<int const ,GAMESHOP_PACKAGE_DATA *> >,0> >::_Insert
; Function compile flags: /Ogtp
;	COMDAT ?_Insert@?$_Tree@V?$_Tmap_traits@HPAUGAMESHOP_PACKAGE_DATA@@U?$less@H@std@@V?$allocator@U?$pair@$$CBHPAUGAMESHOP_PACKAGE_DATA@@@std@@@3@$0A@@std@@@std@@QAE?AV?$_Tree_iterator@V?$_Tree_val@V?$_Tmap_traits@HPAUGAMESHOP_PACKAGE_DATA@@U?$less@H@std@@V?$allocator@U?$pair@$$CBHPAUGAMESHOP_PACKAGE_DATA@@@std@@@3@$0A@@std@@@std@@@2@V?$_Tree_const_iterator@V?$_Tree_val@V?$_Tmap_traits@HPAUGAMESHOP_PACKAGE_DATA@@U?$less@H@std@@V?$allocator@U?$pair@$$CBHPAUGAMESHOP_PACKAGE_DATA@@@std@@@3@$0A@@std@@@std@@@2@PAU_Node@?$_Tree_nod@V?$_Tmap_traits@HPAUGAMESHOP_PACKAGE_DATA@@U?$less@H@std@@V?$allocator@U?$pair@$$CBHPAUGAMESHOP_PACKAGE_DATA@@@std@@@3@$0A@@std@@@2@@Z
_TEXT	SEGMENT
$T221575 = -8						; size = 8
___$ReturnUdt$ = 8					; size = 4
__Where$ = 12						; size = 4
__Next$ = 16						; size = 4
__Node$ = 16						; size = 4
?_Insert@?$_Tree@V?$_Tmap_traits@HPAUGAMESHOP_PACKAGE_DATA@@U?$less@H@std@@V?$allocator@U?$pair@$$CBHPAUGAMESHOP_PACKAGE_DATA@@@std@@@3@$0A@@std@@@std@@QAE?AV?$_Tree_iterator@V?$_Tree_val@V?$_Tmap_traits@HPAUGAMESHOP_PACKAGE_DATA@@U?$less@H@std@@V?$allocator@U?$pair@$$CBHPAUGAMESHOP_PACKAGE_DATA@@@std@@@3@$0A@@std@@@std@@@2@V?$_Tree_const_iterator@V?$_Tree_val@V?$_Tmap_traits@HPAUGAMESHOP_PACKAGE_DATA@@U?$less@H@std@@V?$allocator@U?$pair@$$CBHPAUGAMESHOP_PACKAGE_DATA@@@std@@@3@$0A@@std@@@std@@@2@PAU_Node@?$_Tree_nod@V?$_Tmap_traits@HPAUGAMESHOP_PACKAGE_DATA@@U?$less@H@std@@V?$allocator@U?$pair@$$CBHPAUGAMESHOP_PACKAGE_DATA@@@std@@@3@$0A@@std@@@2@@Z PROC ; std::_Tree<std::_Tmap_traits<int,GAMESHOP_PACKAGE_DATA *,std::less<int>,std::allocator<std::pair<int const ,GAMESHOP_PACKAGE_DATA *> >,0> >::_Insert, COMDAT
; _this$ = ecx

; 1089 : 		{	// try to insert node at _Node using _Where as a hint

  00000	55		 push	 ebp
  00001	8b ec		 mov	 ebp, esp
  00003	83 ec 08	 sub	 esp, 8
  00006	56		 push	 esi
  00007	8b f1		 mov	 esi, ecx

; 1090 :  #if _ITERATOR_DEBUG_LEVEL == 2
; 1091 : 		if (_Where._Getcont() != this)
; 1092 : 			_DEBUG_ERROR("map/set insert iterator outside range");
; 1093 :  #endif /* _ITERATOR_DEBUG_LEVEL == 2 */
; 1094 : 
; 1095 : 		const value_type& _Val = this->_Myval(_Node);
; 1096 : 
; 1097 : 		const_iterator _Next;
; 1098 : 		bool _Leftish = false;	// assume nearest point is end of sequence
; 1099 : 
; 1100 : 		if (size() == 0)

  00009	83 7e 08 00	 cmp	 DWORD PTR [esi+8], 0

; 1101 : 			return (_Insert(true, this->_Myhead, _Node));	// empty tree

  0000d	8b 46 04	 mov	 eax, DWORD PTR [esi+4]
  00010	57		 push	 edi
  00011	8b 7d 10	 mov	 edi, DWORD PTR __Node$[ebp]
  00014	75 17		 jne	 SHORT $LN33@Insert@3
  00016	57		 push	 edi
  00017	8b 7d 08	 mov	 edi, DWORD PTR ___$ReturnUdt$[ebp]
  0001a	50		 push	 eax
  0001b	6a 01		 push	 1
  0001d	57		 push	 edi
  0001e	e8 00 00 00 00	 call	 ?_Insert@?$_Tree@V?$_Tmap_traits@HPAUGAMESHOP_PACKAGE_DATA@@U?$less@H@std@@V?$allocator@U?$pair@$$CBHPAUGAMESHOP_PACKAGE_DATA@@@std@@@3@$0A@@std@@@std@@IAE?AV?$_Tree_iterator@V?$_Tree_val@V?$_Tmap_traits@HPAUGAMESHOP_PACKAGE_DATA@@U?$less@H@std@@V?$allocator@U?$pair@$$CBHPAUGAMESHOP_PACKAGE_DATA@@@std@@@3@$0A@@std@@@std@@@2@_NPAU_Node@?$_Tree_nod@V?$_Tmap_traits@HPAUGAMESHOP_PACKAGE_DATA@@U?$less@H@std@@V?$allocator@U?$pair@$$CBHPAUGAMESHOP_PACKAGE_DATA@@@std@@@3@$0A@@std@@@2@1@Z ; std::_Tree<std::_Tmap_traits<int,GAMESHOP_PACKAGE_DATA *,std::less<int>,std::allocator<std::pair<int const ,GAMESHOP_PACKAGE_DATA *> >,0> >::_Insert
  00023	8b c7		 mov	 eax, edi
  00025	5f		 pop	 edi
  00026	5e		 pop	 esi

; 1181 : 		}

  00027	8b e5		 mov	 esp, ebp
  00029	5d		 pop	 ebp
  0002a	c2 0c 00	 ret	 12			; 0000000cH
$LN33@Insert@3:
  0002d	53		 push	 ebx

; 1102 : 		else if (this->_Multi)
; 1103 : 			{	// insert even if duplicate
; 1104 : 			if (_Where == begin())
; 1105 : 				{	// insert at beginning if before first element
; 1106 : 				if (!_DEBUG_LT_PRED(this->comp,
; 1107 : 					this->_Key(_Where._Mynode()), this->_Kfn(_Val)))
; 1108 : 					return (_Insert(true, _Where._Mynode(), _Node));
; 1109 : 				_Leftish = true;	// nearest point is beginning of sequence
; 1110 : 				}
; 1111 : 			else if (_Where == end())
; 1112 : 				{	// insert at end if after last element
; 1113 : 				if (!_DEBUG_LT_PRED(this->comp,
; 1114 : 					this->_Kfn(_Val), this->_Key(_Rmost())))
; 1115 : 					return (_Insert(false, _Rmost(), _Node));
; 1116 : 				}
; 1117 : 			else if (!_DEBUG_LT_PRED(this->comp,
; 1118 : 				this->_Key(_Where._Mynode()), this->_Kfn(_Val))
; 1119 : 				&& !_DEBUG_LT_PRED(this->comp,
; 1120 : 					this->_Kfn(_Val),
; 1121 : 					this->_Key((--(_Next = _Where))._Mynode())))
; 1122 : 				{	// insert before _Where
; 1123 : 				if (this->_Isnil(this->_Right(_Next._Mynode())))
; 1124 : 					return (_Insert(false, _Next._Mynode(), _Node));
; 1125 : 				else
; 1126 : 					return (_Insert(true, _Where._Mynode(), _Node));
; 1127 : 				}
; 1128 : 			else if (!_DEBUG_LT_PRED(this->comp,
; 1129 : 				this->_Kfn(_Val), this->_Key(_Where._Mynode()))
; 1130 : 				&& (++(_Next = _Where) == end()
; 1131 : 					|| !_DEBUG_LT_PRED(this->comp,
; 1132 : 						this->_Key(_Next._Mynode()), this->_Kfn(_Val))))
; 1133 : 				{	// insert after _Where
; 1134 : 				if (this->_Isnil(this->_Right(_Where._Mynode())))
; 1135 : 					return (_Insert(false, _Where._Mynode(), _Node));
; 1136 : 				else
; 1137 : 					return (_Insert(true, _Next._Mynode(), _Node));
; 1138 : 				}
; 1139 : 			else
; 1140 : 				_Leftish = true;	// nearest point is beginning of sequence
; 1141 : 			}
; 1142 : 		else
; 1143 : 			{	// insert only if unique
; 1144 : 			if (_Where == begin())

  0002e	8b 5d 0c	 mov	 ebx, DWORD PTR __Where$[ebp]
  00031	3b 18		 cmp	 ebx, DWORD PTR [eax]
  00033	75 26		 jne	 SHORT $LN14@Insert@3

; 1145 : 				{	// insert at beginning if before first element
; 1146 : 				if (_DEBUG_LT_PRED(this->comp,

  00035	8b 4f 0c	 mov	 ecx, DWORD PTR [edi+12]
  00038	3b 4b 0c	 cmp	 ecx, DWORD PTR [ebx+12]
  0003b	0f 8d f4 00 00
	00		 jge	 $LN333@Insert@3

; 1147 : 					this->_Kfn(_Val), this->_Key(_Where._Mynode())))
; 1148 : 					return (_Insert(true, _Where._Mynode(), _Node));

  00041	57		 push	 edi
  00042	8b 7d 08	 mov	 edi, DWORD PTR ___$ReturnUdt$[ebp]
  00045	53		 push	 ebx
  00046	6a 01		 push	 1
  00048	57		 push	 edi
  00049	8b ce		 mov	 ecx, esi
  0004b	e8 00 00 00 00	 call	 ?_Insert@?$_Tree@V?$_Tmap_traits@HPAUGAMESHOP_PACKAGE_DATA@@U?$less@H@std@@V?$allocator@U?$pair@$$CBHPAUGAMESHOP_PACKAGE_DATA@@@std@@@3@$0A@@std@@@std@@IAE?AV?$_Tree_iterator@V?$_Tree_val@V?$_Tmap_traits@HPAUGAMESHOP_PACKAGE_DATA@@U?$less@H@std@@V?$allocator@U?$pair@$$CBHPAUGAMESHOP_PACKAGE_DATA@@@std@@@3@$0A@@std@@@std@@@2@_NPAU_Node@?$_Tree_nod@V?$_Tmap_traits@HPAUGAMESHOP_PACKAGE_DATA@@U?$less@H@std@@V?$allocator@U?$pair@$$CBHPAUGAMESHOP_PACKAGE_DATA@@@std@@@3@$0A@@std@@@2@1@Z ; std::_Tree<std::_Tmap_traits<int,GAMESHOP_PACKAGE_DATA *,std::less<int>,std::allocator<std::pair<int const ,GAMESHOP_PACKAGE_DATA *> >,0> >::_Insert
  00050	5b		 pop	 ebx
  00051	8b c7		 mov	 eax, edi
  00053	5f		 pop	 edi
  00054	5e		 pop	 esi

; 1181 : 		}

  00055	8b e5		 mov	 esp, ebp
  00057	5d		 pop	 ebp
  00058	c2 0c 00	 ret	 12			; 0000000cH
$LN14@Insert@3:

; 1149 : 				}
; 1150 : 			else if (_Where == end())

  0005b	3b d8		 cmp	 ebx, eax
  0005d	75 27		 jne	 SHORT $LN11@Insert@3

; 1151 : 				{	// insert at end if after last element
; 1152 : 				if (_DEBUG_LT_PRED(this->comp,

  0005f	8b 40 08	 mov	 eax, DWORD PTR [eax+8]
  00062	8b 50 0c	 mov	 edx, DWORD PTR [eax+12]
  00065	3b 57 0c	 cmp	 edx, DWORD PTR [edi+12]
  00068	0f 8d c7 00 00
	00		 jge	 $LN333@Insert@3

; 1153 : 					this->_Key(_Rmost()), this->_Kfn(_Val)))
; 1154 : 					return (_Insert(false, _Rmost(), _Node));

  0006e	57		 push	 edi
  0006f	8b 7d 08	 mov	 edi, DWORD PTR ___$ReturnUdt$[ebp]
  00072	50		 push	 eax
  00073	6a 00		 push	 0
  00075	57		 push	 edi
  00076	e8 00 00 00 00	 call	 ?_Insert@?$_Tree@V?$_Tmap_traits@HPAUGAMESHOP_PACKAGE_DATA@@U?$less@H@std@@V?$allocator@U?$pair@$$CBHPAUGAMESHOP_PACKAGE_DATA@@@std@@@3@$0A@@std@@@std@@IAE?AV?$_Tree_iterator@V?$_Tree_val@V?$_Tmap_traits@HPAUGAMESHOP_PACKAGE_DATA@@U?$less@H@std@@V?$allocator@U?$pair@$$CBHPAUGAMESHOP_PACKAGE_DATA@@@std@@@3@$0A@@std@@@std@@@2@_NPAU_Node@?$_Tree_nod@V?$_Tmap_traits@HPAUGAMESHOP_PACKAGE_DATA@@U?$less@H@std@@V?$allocator@U?$pair@$$CBHPAUGAMESHOP_PACKAGE_DATA@@@std@@@3@$0A@@std@@@2@1@Z ; std::_Tree<std::_Tmap_traits<int,GAMESHOP_PACKAGE_DATA *,std::less<int>,std::allocator<std::pair<int const ,GAMESHOP_PACKAGE_DATA *> >,0> >::_Insert
  0007b	5b		 pop	 ebx
  0007c	8b c7		 mov	 eax, edi
  0007e	5f		 pop	 edi
  0007f	5e		 pop	 esi

; 1181 : 		}

  00080	8b e5		 mov	 esp, ebp
  00082	5d		 pop	 ebp
  00083	c2 0c 00	 ret	 12			; 0000000cH
$LN11@Insert@3:

; 1155 : 				}
; 1156 : 			else if (_DEBUG_LT_PRED(this->comp,
; 1157 : 				this->_Kfn(_Val), this->_Key(_Where._Mynode()))
; 1158 : 				&& _DEBUG_LT_PRED(this->comp,

  00086	8b 47 0c	 mov	 eax, DWORD PTR [edi+12]
  00089	3b 43 0c	 cmp	 eax, DWORD PTR [ebx+12]
  0008c	7d 4d		 jge	 SHORT $LN332@Insert@3
  0008e	8d 4d 10	 lea	 ecx, DWORD PTR __Next$[ebp]
  00091	89 5d 10	 mov	 DWORD PTR __Next$[ebp], ebx
  00094	e8 00 00 00 00	 call	 ??F?$_Tree_unchecked_const_iterator@V?$_Tree_val@V?$_Tmap_traits@HPAUGAMESHOP_PACKAGE_DATA@@U?$less@H@std@@V?$allocator@U?$pair@$$CBHPAUGAMESHOP_PACKAGE_DATA@@@std@@@3@$0A@@std@@@std@@U_Iterator_base0@2@@std@@QAEAAV01@XZ ; std::_Tree_unchecked_const_iterator<std::_Tree_val<std::_Tmap_traits<int,GAMESHOP_PACKAGE_DATA *,std::less<int>,std::allocator<std::pair<int const ,GAMESHOP_PACKAGE_DATA *> >,0> >,std::_Iterator_base0>::operator--
  00099	8b 45 10	 mov	 eax, DWORD PTR __Next$[ebp]
  0009c	8b 4f 0c	 mov	 ecx, DWORD PTR [edi+12]
  0009f	39 48 0c	 cmp	 DWORD PTR [eax+12], ecx
  000a2	7d 37		 jge	 SHORT $LN332@Insert@3

; 1159 : 					this->_Key((--(_Next = _Where))._Mynode()),
; 1160 : 					this->_Kfn(_Val)))
; 1161 : 				{	// insert before _Where
; 1162 : 				if (this->_Isnil(this->_Right(_Next._Mynode())))

  000a4	8b 48 08	 mov	 ecx, DWORD PTR [eax+8]
  000a7	80 79 15 00	 cmp	 BYTE PTR [ecx+21], 0

; 1163 : 					return (_Insert(false, _Next._Mynode(), _Node));

  000ab	57		 push	 edi
  000ac	8b 7d 08	 mov	 edi, DWORD PTR ___$ReturnUdt$[ebp]
  000af	8b ce		 mov	 ecx, esi
  000b1	74 14		 je	 SHORT $LN7@Insert@3
  000b3	50		 push	 eax
  000b4	6a 00		 push	 0
  000b6	57		 push	 edi
  000b7	e8 00 00 00 00	 call	 ?_Insert@?$_Tree@V?$_Tmap_traits@HPAUGAMESHOP_PACKAGE_DATA@@U?$less@H@std@@V?$allocator@U?$pair@$$CBHPAUGAMESHOP_PACKAGE_DATA@@@std@@@3@$0A@@std@@@std@@IAE?AV?$_Tree_iterator@V?$_Tree_val@V?$_Tmap_traits@HPAUGAMESHOP_PACKAGE_DATA@@U?$less@H@std@@V?$allocator@U?$pair@$$CBHPAUGAMESHOP_PACKAGE_DATA@@@std@@@3@$0A@@std@@@std@@@2@_NPAU_Node@?$_Tree_nod@V?$_Tmap_traits@HPAUGAMESHOP_PACKAGE_DATA@@U?$less@H@std@@V?$allocator@U?$pair@$$CBHPAUGAMESHOP_PACKAGE_DATA@@@std@@@3@$0A@@std@@@2@1@Z ; std::_Tree<std::_Tmap_traits<int,GAMESHOP_PACKAGE_DATA *,std::less<int>,std::allocator<std::pair<int const ,GAMESHOP_PACKAGE_DATA *> >,0> >::_Insert
  000bc	5b		 pop	 ebx
  000bd	8b c7		 mov	 eax, edi
  000bf	5f		 pop	 edi
  000c0	5e		 pop	 esi

; 1181 : 		}

  000c1	8b e5		 mov	 esp, ebp
  000c3	5d		 pop	 ebp
  000c4	c2 0c 00	 ret	 12			; 0000000cH
$LN7@Insert@3:

; 1164 : 				else
; 1165 : 					return (_Insert(true, _Where._Mynode(), _Node));

  000c7	53		 push	 ebx
  000c8	6a 01		 push	 1
  000ca	57		 push	 edi
  000cb	e8 00 00 00 00	 call	 ?_Insert@?$_Tree@V?$_Tmap_traits@HPAUGAMESHOP_PACKAGE_DATA@@U?$less@H@std@@V?$allocator@U?$pair@$$CBHPAUGAMESHOP_PACKAGE_DATA@@@std@@@3@$0A@@std@@@std@@IAE?AV?$_Tree_iterator@V?$_Tree_val@V?$_Tmap_traits@HPAUGAMESHOP_PACKAGE_DATA@@U?$less@H@std@@V?$allocator@U?$pair@$$CBHPAUGAMESHOP_PACKAGE_DATA@@@std@@@3@$0A@@std@@@std@@@2@_NPAU_Node@?$_Tree_nod@V?$_Tmap_traits@HPAUGAMESHOP_PACKAGE_DATA@@U?$less@H@std@@V?$allocator@U?$pair@$$CBHPAUGAMESHOP_PACKAGE_DATA@@@std@@@3@$0A@@std@@@2@1@Z ; std::_Tree<std::_Tmap_traits<int,GAMESHOP_PACKAGE_DATA *,std::less<int>,std::allocator<std::pair<int const ,GAMESHOP_PACKAGE_DATA *> >,0> >::_Insert
  000d0	5b		 pop	 ebx
  000d1	8b c7		 mov	 eax, edi
  000d3	5f		 pop	 edi
  000d4	5e		 pop	 esi

; 1181 : 		}

  000d5	8b e5		 mov	 esp, ebp
  000d7	5d		 pop	 ebp
  000d8	c2 0c 00	 ret	 12			; 0000000cH
$LN332@Insert@3:

; 1166 : 				}
; 1167 : 			else if (_DEBUG_LT_PRED(this->comp,
; 1168 : 				this->_Key(_Where._Mynode()), this->_Kfn(_Val))
; 1169 : 				&& (++(_Next = _Where) == end()
; 1170 : 					|| _DEBUG_LT_PRED(this->comp,

  000db	8b 47 0c	 mov	 eax, DWORD PTR [edi+12]
  000de	39 43 0c	 cmp	 DWORD PTR [ebx+12], eax
  000e1	7d 52		 jge	 SHORT $LN333@Insert@3
  000e3	8d 4d 10	 lea	 ecx, DWORD PTR __Next$[ebp]
  000e6	89 5d 10	 mov	 DWORD PTR __Next$[ebp], ebx
  000e9	e8 00 00 00 00	 call	 ??E?$_Tree_unchecked_const_iterator@V?$_Tree_val@V?$_Tmap_traits@HPAUGAMESHOP_PACKAGE_DATA@@U?$less@H@std@@V?$allocator@U?$pair@$$CBHPAUGAMESHOP_PACKAGE_DATA@@@std@@@3@$0A@@std@@@std@@U_Iterator_base0@2@@std@@QAEAAV01@XZ ; std::_Tree_unchecked_const_iterator<std::_Tree_val<std::_Tmap_traits<int,GAMESHOP_PACKAGE_DATA *,std::less<int>,std::allocator<std::pair<int const ,GAMESHOP_PACKAGE_DATA *> >,0> >,std::_Iterator_base0>::operator++
  000ee	8b 45 10	 mov	 eax, DWORD PTR __Next$[ebp]
  000f1	3b 46 04	 cmp	 eax, DWORD PTR [esi+4]
  000f4	74 08		 je	 SHORT $LN3@Insert@3
  000f6	8b 4f 0c	 mov	 ecx, DWORD PTR [edi+12]
  000f9	3b 48 0c	 cmp	 ecx, DWORD PTR [eax+12]
  000fc	7d 37		 jge	 SHORT $LN333@Insert@3
$LN3@Insert@3:

; 1171 : 						this->_Kfn(_Val), this->_Key(_Next._Mynode()))))
; 1172 : 				{	// insert after _Where
; 1173 : 				if (this->_Isnil(this->_Right(_Where._Mynode())))

  000fe	8b 53 08	 mov	 edx, DWORD PTR [ebx+8]
  00101	80 7a 15 00	 cmp	 BYTE PTR [edx+21], 0

; 1174 : 					return (_Insert(false, _Where._Mynode(), _Node));

  00105	57		 push	 edi
  00106	8b 7d 08	 mov	 edi, DWORD PTR ___$ReturnUdt$[ebp]
  00109	8b ce		 mov	 ecx, esi
  0010b	74 14		 je	 SHORT $LN2@Insert@3
  0010d	53		 push	 ebx
  0010e	6a 00		 push	 0
  00110	57		 push	 edi
  00111	e8 00 00 00 00	 call	 ?_Insert@?$_Tree@V?$_Tmap_traits@HPAUGAMESHOP_PACKAGE_DATA@@U?$less@H@std@@V?$allocator@U?$pair@$$CBHPAUGAMESHOP_PACKAGE_DATA@@@std@@@3@$0A@@std@@@std@@IAE?AV?$_Tree_iterator@V?$_Tree_val@V?$_Tmap_traits@HPAUGAMESHOP_PACKAGE_DATA@@U?$less@H@std@@V?$allocator@U?$pair@$$CBHPAUGAMESHOP_PACKAGE_DATA@@@std@@@3@$0A@@std@@@std@@@2@_NPAU_Node@?$_Tree_nod@V?$_Tmap_traits@HPAUGAMESHOP_PACKAGE_DATA@@U?$less@H@std@@V?$allocator@U?$pair@$$CBHPAUGAMESHOP_PACKAGE_DATA@@@std@@@3@$0A@@std@@@2@1@Z ; std::_Tree<std::_Tmap_traits<int,GAMESHOP_PACKAGE_DATA *,std::less<int>,std::allocator<std::pair<int const ,GAMESHOP_PACKAGE_DATA *> >,0> >::_Insert
  00116	5b		 pop	 ebx
  00117	8b c7		 mov	 eax, edi
  00119	5f		 pop	 edi
  0011a	5e		 pop	 esi

; 1181 : 		}

  0011b	8b e5		 mov	 esp, ebp
  0011d	5d		 pop	 ebp
  0011e	c2 0c 00	 ret	 12			; 0000000cH
$LN2@Insert@3:

; 1175 : 				else
; 1176 : 					return (_Insert(true, _Next._Mynode(), _Node));

  00121	50		 push	 eax
  00122	6a 01		 push	 1
  00124	57		 push	 edi
  00125	e8 00 00 00 00	 call	 ?_Insert@?$_Tree@V?$_Tmap_traits@HPAUGAMESHOP_PACKAGE_DATA@@U?$less@H@std@@V?$allocator@U?$pair@$$CBHPAUGAMESHOP_PACKAGE_DATA@@@std@@@3@$0A@@std@@@std@@IAE?AV?$_Tree_iterator@V?$_Tree_val@V?$_Tmap_traits@HPAUGAMESHOP_PACKAGE_DATA@@U?$less@H@std@@V?$allocator@U?$pair@$$CBHPAUGAMESHOP_PACKAGE_DATA@@@std@@@3@$0A@@std@@@std@@@2@_NPAU_Node@?$_Tree_nod@V?$_Tmap_traits@HPAUGAMESHOP_PACKAGE_DATA@@U?$less@H@std@@V?$allocator@U?$pair@$$CBHPAUGAMESHOP_PACKAGE_DATA@@@std@@@3@$0A@@std@@@2@1@Z ; std::_Tree<std::_Tmap_traits<int,GAMESHOP_PACKAGE_DATA *,std::less<int>,std::allocator<std::pair<int const ,GAMESHOP_PACKAGE_DATA *> >,0> >::_Insert
  0012a	5b		 pop	 ebx
  0012b	8b c7		 mov	 eax, edi
  0012d	5f		 pop	 edi
  0012e	5e		 pop	 esi

; 1181 : 		}

  0012f	8b e5		 mov	 esp, ebp
  00131	5d		 pop	 ebp
  00132	c2 0c 00	 ret	 12			; 0000000cH
$LN333@Insert@3:

; 1177 : 				}
; 1178 : 			}
; 1179 : 
; 1180 : 		return (_Linsert(_Node, _Leftish).first);	// try usual insert

  00135	6a 00		 push	 0
  00137	57		 push	 edi
  00138	8d 45 f8	 lea	 eax, DWORD PTR $T221575[ebp]
  0013b	50		 push	 eax
  0013c	8b ce		 mov	 ecx, esi
  0013e	e8 00 00 00 00	 call	 ?_Linsert@?$_Tree@V?$_Tmap_traits@HPAUGAMESHOP_PACKAGE_DATA@@U?$less@H@std@@V?$allocator@U?$pair@$$CBHPAUGAMESHOP_PACKAGE_DATA@@@std@@@3@$0A@@std@@@std@@QAE?AU?$pair@V?$_Tree_iterator@V?$_Tree_val@V?$_Tmap_traits@HPAUGAMESHOP_PACKAGE_DATA@@U?$less@H@std@@V?$allocator@U?$pair@$$CBHPAUGAMESHOP_PACKAGE_DATA@@@std@@@3@$0A@@std@@@std@@@std@@_N@2@PAU_Node@?$_Tree_nod@V?$_Tmap_traits@HPAUGAMESHOP_PACKAGE_DATA@@U?$less@H@std@@V?$allocator@U?$pair@$$CBHPAUGAMESHOP_PACKAGE_DATA@@@std@@@3@$0A@@std@@@2@_N@Z ; std::_Tree<std::_Tmap_traits<int,GAMESHOP_PACKAGE_DATA *,std::less<int>,std::allocator<std::pair<int const ,GAMESHOP_PACKAGE_DATA *> >,0> >::_Linsert
  00143	8b 08		 mov	 ecx, DWORD PTR [eax]
  00145	8b 45 08	 mov	 eax, DWORD PTR ___$ReturnUdt$[ebp]
  00148	5b		 pop	 ebx
  00149	5f		 pop	 edi
  0014a	89 08		 mov	 DWORD PTR [eax], ecx
  0014c	5e		 pop	 esi

; 1181 : 		}

  0014d	8b e5		 mov	 esp, ebp
  0014f	5d		 pop	 ebp
  00150	c2 0c 00	 ret	 12			; 0000000cH
?_Insert@?$_Tree@V?$_Tmap_traits@HPAUGAMESHOP_PACKAGE_DATA@@U?$less@H@std@@V?$allocator@U?$pair@$$CBHPAUGAMESHOP_PACKAGE_DATA@@@std@@@3@$0A@@std@@@std@@QAE?AV?$_Tree_iterator@V?$_Tree_val@V?$_Tmap_traits@HPAUGAMESHOP_PACKAGE_DATA@@U?$less@H@std@@V?$allocator@U?$pair@$$CBHPAUGAMESHOP_PACKAGE_DATA@@@std@@@3@$0A@@std@@@std@@@2@V?$_Tree_const_iterator@V?$_Tree_val@V?$_Tmap_traits@HPAUGAMESHOP_PACKAGE_DATA@@U?$less@H@std@@V?$allocator@U?$pair@$$CBHPAUGAMESHOP_PACKAGE_DATA@@@std@@@3@$0A@@std@@@std@@@2@PAU_Node@?$_Tree_nod@V?$_Tmap_traits@HPAUGAMESHOP_PACKAGE_DATA@@U?$less@H@std@@V?$allocator@U?$pair@$$CBHPAUGAMESHOP_PACKAGE_DATA@@@std@@@3@$0A@@std@@@2@@Z ENDP ; std::_Tree<std::_Tmap_traits<int,GAMESHOP_PACKAGE_DATA *,std::less<int>,std::allocator<std::pair<int const ,GAMESHOP_PACKAGE_DATA *> >,0> >::_Insert
_TEXT	ENDS
PUBLIC	??$_Buynode@U?$pair@HPAUGAMESHOP_ITEM_DATA@@@std@@@?$_Tree_val@V?$_Tmap_traits@HPAUGAMESHOP_ITEM_DATA@@U?$less@H@std@@V?$allocator@U?$pair@$$CBHPAUGAMESHOP_ITEM_DATA@@@std@@@3@$0A@@std@@@std@@QAEPAU_Node@?$_Tree_nod@V?$_Tmap_traits@HPAUGAMESHOP_ITEM_DATA@@U?$less@H@std@@V?$allocator@U?$pair@$$CBHPAUGAMESHOP_ITEM_DATA@@@std@@@3@$0A@@std@@@1@$$QAU?$pair@HPAUGAMESHOP_ITEM_DATA@@@1@@Z ; std::_Tree_val<std::_Tmap_traits<int,GAMESHOP_ITEM_DATA *,std::less<int>,std::allocator<std::pair<int const ,GAMESHOP_ITEM_DATA *> >,0> >::_Buynode<std::pair<int,GAMESHOP_ITEM_DATA *> >
; Function compile flags: /Ogtp
;	COMDAT ??$_Buynode@U?$pair@HPAUGAMESHOP_ITEM_DATA@@@std@@@?$_Tree_val@V?$_Tmap_traits@HPAUGAMESHOP_ITEM_DATA@@U?$less@H@std@@V?$allocator@U?$pair@$$CBHPAUGAMESHOP_ITEM_DATA@@@std@@@3@$0A@@std@@@std@@QAEPAU_Node@?$_Tree_nod@V?$_Tmap_traits@HPAUGAMESHOP_ITEM_DATA@@U?$less@H@std@@V?$allocator@U?$pair@$$CBHPAUGAMESHOP_ITEM_DATA@@@std@@@3@$0A@@std@@@1@$$QAU?$pair@HPAUGAMESHOP_ITEM_DATA@@@1@@Z
_TEXT	SEGMENT
$T222280 = -12						; size = 12
$T222235 = 8						; size = 4
__Val$ = 8						; size = 4
??$_Buynode@U?$pair@HPAUGAMESHOP_ITEM_DATA@@@std@@@?$_Tree_val@V?$_Tmap_traits@HPAUGAMESHOP_ITEM_DATA@@U?$less@H@std@@V?$allocator@U?$pair@$$CBHPAUGAMESHOP_ITEM_DATA@@@std@@@3@$0A@@std@@@std@@QAEPAU_Node@?$_Tree_nod@V?$_Tmap_traits@HPAUGAMESHOP_ITEM_DATA@@U?$less@H@std@@V?$allocator@U?$pair@$$CBHPAUGAMESHOP_ITEM_DATA@@@std@@@3@$0A@@std@@@1@$$QAU?$pair@HPAUGAMESHOP_ITEM_DATA@@@1@@Z PROC ; std::_Tree_val<std::_Tmap_traits<int,GAMESHOP_ITEM_DATA *,std::less<int>,std::allocator<std::pair<int const ,GAMESHOP_ITEM_DATA *> >,0> >::_Buynode<std::pair<int,GAMESHOP_ITEM_DATA *> >, COMDAT
; _this$ = ecx

; 586  : 		_Nodeptr _Buynode(_Valty&& _Val)

  00000	55		 push	 ebp
  00001	8b ec		 mov	 ebp, esp
  00003	83 ec 0c	 sub	 esp, 12			; 0000000cH
  00006	56		 push	 esi
  00007	57		 push	 edi

; 587  : 		{	// allocate a node with defaults
; 588  : 		_Nodeptr _Wherenode = _Buynode();

  00008	6a 18		 push	 24			; 00000018H
  0000a	8b f9		 mov	 edi, ecx
  0000c	e8 00 00 00 00	 call	 ??2@YAPAXI@Z		; operator new
  00011	8b f0		 mov	 esi, eax
  00013	33 c0		 xor	 eax, eax
  00015	83 c4 04	 add	 esp, 4
  00018	3b f0		 cmp	 esi, eax
  0001a	74 33		 je	 SHORT $LN12@Buynode@3
  0001c	8b 4f 04	 mov	 ecx, DWORD PTR [edi+4]
  0001f	89 0e		 mov	 DWORD PTR [esi], ecx
  00021	8b 57 04	 mov	 edx, DWORD PTR [edi+4]
  00024	89 56 04	 mov	 DWORD PTR [esi+4], edx
  00027	8b 4f 04	 mov	 ecx, DWORD PTR [edi+4]

; 589  : 
; 590  : 		_TRY_BEGIN
; 591  : 		_Cons_val(this->_Alval, _STD addressof(this->_Myval(_Wherenode)),
; 592  : 			_STD forward<_Valty>(_Val));

  0002a	8b 55 08	 mov	 edx, DWORD PTR __Val$[ebp]
  0002d	66 89 46 14	 mov	 WORD PTR [esi+20], ax
  00031	52		 push	 edx
  00032	8d 46 0c	 lea	 eax, DWORD PTR [esi+12]
  00035	50		 push	 eax
  00036	83 c7 0d	 add	 edi, 13			; 0000000dH
  00039	57		 push	 edi
  0003a	89 4e 08	 mov	 DWORD PTR [esi+8], ecx
  0003d	e8 00 00 00 00	 call	 ??$_Cons_val@V?$allocator@U?$pair@$$CBHPAUGAMESHOP_ITEM_DATA@@@std@@@std@@U?$pair@$$CBHPAUGAMESHOP_ITEM_DATA@@@2@U?$pair@HPAUGAMESHOP_ITEM_DATA@@@2@@std@@YAXAAV?$allocator@U?$pair@$$CBHPAUGAMESHOP_ITEM_DATA@@@std@@@0@PAU?$pair@$$CBHPAUGAMESHOP_ITEM_DATA@@@0@$$QAU?$pair@HPAUGAMESHOP_ITEM_DATA@@@0@@Z ; std::_Cons_val<std::allocator<std::pair<int const ,GAMESHOP_ITEM_DATA *> >,std::pair<int const ,GAMESHOP_ITEM_DATA *>,std::pair<int,GAMESHOP_ITEM_DATA *> >
  00042	83 c4 0c	 add	 esp, 12			; 0000000cH
  00045	5f		 pop	 edi

; 593  : 		_CATCH_ALL
; 594  : 		this->_Alnod.deallocate(_Wherenode, 1);
; 595  : 		_RERAISE;
; 596  : 		_CATCH_END
; 597  : 
; 598  : 		return (_Wherenode);

  00046	8b c6		 mov	 eax, esi
  00048	5e		 pop	 esi

; 599  : 		}

  00049	8b e5		 mov	 esp, ebp
  0004b	5d		 pop	 ebp
  0004c	c2 04 00	 ret	 4

; 587  : 		{	// allocate a node with defaults
; 588  : 		_Nodeptr _Wherenode = _Buynode();

$LN12@Buynode@3:
  0004f	8d 4d 08	 lea	 ecx, DWORD PTR $T222235[ebp]
  00052	51		 push	 ecx
  00053	8d 4d f4	 lea	 ecx, DWORD PTR $T222280[ebp]
  00056	89 45 08	 mov	 DWORD PTR $T222235[ebp], eax
  00059	e8 00 00 00 00	 call	 ??0exception@std@@QAE@ABQBD@Z ; std::exception::exception
  0005e	68 00 00 00 00	 push	 OFFSET __TI2?AVbad_alloc@std@@
  00063	8d 55 f4	 lea	 edx, DWORD PTR $T222280[ebp]
  00066	52		 push	 edx
  00067	c7 45 f4 00 00
	00 00		 mov	 DWORD PTR $T222280[ebp], OFFSET ??_7bad_alloc@std@@6B@
  0006e	e8 00 00 00 00	 call	 __CxxThrowException@8
$LN44@Buynode@3:
$LN43@Buynode@3:
  00073	cc		 int	 3
??$_Buynode@U?$pair@HPAUGAMESHOP_ITEM_DATA@@@std@@@?$_Tree_val@V?$_Tmap_traits@HPAUGAMESHOP_ITEM_DATA@@U?$less@H@std@@V?$allocator@U?$pair@$$CBHPAUGAMESHOP_ITEM_DATA@@@std@@@3@$0A@@std@@@std@@QAEPAU_Node@?$_Tree_nod@V?$_Tmap_traits@HPAUGAMESHOP_ITEM_DATA@@U?$less@H@std@@V?$allocator@U?$pair@$$CBHPAUGAMESHOP_ITEM_DATA@@@std@@@3@$0A@@std@@@1@$$QAU?$pair@HPAUGAMESHOP_ITEM_DATA@@@1@@Z ENDP ; std::_Tree_val<std::_Tmap_traits<int,GAMESHOP_ITEM_DATA *,std::less<int>,std::allocator<std::pair<int const ,GAMESHOP_ITEM_DATA *> >,0> >::_Buynode<std::pair<int,GAMESHOP_ITEM_DATA *> >
_TEXT	ENDS
PUBLIC	??$_Buynode@U?$pair@HPAUGAMESHOP_PACKAGE_DATA@@@std@@@?$_Tree_val@V?$_Tmap_traits@HPAUGAMESHOP_PACKAGE_DATA@@U?$less@H@std@@V?$allocator@U?$pair@$$CBHPAUGAMESHOP_PACKAGE_DATA@@@std@@@3@$0A@@std@@@std@@QAEPAU_Node@?$_Tree_nod@V?$_Tmap_traits@HPAUGAMESHOP_PACKAGE_DATA@@U?$less@H@std@@V?$allocator@U?$pair@$$CBHPAUGAMESHOP_PACKAGE_DATA@@@std@@@3@$0A@@std@@@1@$$QAU?$pair@HPAUGAMESHOP_PACKAGE_DATA@@@1@@Z ; std::_Tree_val<std::_Tmap_traits<int,GAMESHOP_PACKAGE_DATA *,std::less<int>,std::allocator<std::pair<int const ,GAMESHOP_PACKAGE_DATA *> >,0> >::_Buynode<std::pair<int,GAMESHOP_PACKAGE_DATA *> >
; Function compile flags: /Ogtp
;	COMDAT ??$_Buynode@U?$pair@HPAUGAMESHOP_PACKAGE_DATA@@@std@@@?$_Tree_val@V?$_Tmap_traits@HPAUGAMESHOP_PACKAGE_DATA@@U?$less@H@std@@V?$allocator@U?$pair@$$CBHPAUGAMESHOP_PACKAGE_DATA@@@std@@@3@$0A@@std@@@std@@QAEPAU_Node@?$_Tree_nod@V?$_Tmap_traits@HPAUGAMESHOP_PACKAGE_DATA@@U?$less@H@std@@V?$allocator@U?$pair@$$CBHPAUGAMESHOP_PACKAGE_DATA@@@std@@@3@$0A@@std@@@1@$$QAU?$pair@HPAUGAMESHOP_PACKAGE_DATA@@@1@@Z
_TEXT	SEGMENT
$T222381 = -12						; size = 12
$T222336 = 8						; size = 4
__Val$ = 8						; size = 4
??$_Buynode@U?$pair@HPAUGAMESHOP_PACKAGE_DATA@@@std@@@?$_Tree_val@V?$_Tmap_traits@HPAUGAMESHOP_PACKAGE_DATA@@U?$less@H@std@@V?$allocator@U?$pair@$$CBHPAUGAMESHOP_PACKAGE_DATA@@@std@@@3@$0A@@std@@@std@@QAEPAU_Node@?$_Tree_nod@V?$_Tmap_traits@HPAUGAMESHOP_PACKAGE_DATA@@U?$less@H@std@@V?$allocator@U?$pair@$$CBHPAUGAMESHOP_PACKAGE_DATA@@@std@@@3@$0A@@std@@@1@$$QAU?$pair@HPAUGAMESHOP_PACKAGE_DATA@@@1@@Z PROC ; std::_Tree_val<std::_Tmap_traits<int,GAMESHOP_PACKAGE_DATA *,std::less<int>,std::allocator<std::pair<int const ,GAMESHOP_PACKAGE_DATA *> >,0> >::_Buynode<std::pair<int,GAMESHOP_PACKAGE_DATA *> >, COMDAT
; _this$ = ecx

; 586  : 		_Nodeptr _Buynode(_Valty&& _Val)

  00000	55		 push	 ebp
  00001	8b ec		 mov	 ebp, esp
  00003	83 ec 0c	 sub	 esp, 12			; 0000000cH
  00006	56		 push	 esi
  00007	57		 push	 edi

; 587  : 		{	// allocate a node with defaults
; 588  : 		_Nodeptr _Wherenode = _Buynode();

  00008	6a 18		 push	 24			; 00000018H
  0000a	8b f9		 mov	 edi, ecx
  0000c	e8 00 00 00 00	 call	 ??2@YAPAXI@Z		; operator new
  00011	8b f0		 mov	 esi, eax
  00013	33 c0		 xor	 eax, eax
  00015	83 c4 04	 add	 esp, 4
  00018	3b f0		 cmp	 esi, eax
  0001a	74 33		 je	 SHORT $LN12@Buynode@4
  0001c	8b 4f 04	 mov	 ecx, DWORD PTR [edi+4]
  0001f	89 0e		 mov	 DWORD PTR [esi], ecx
  00021	8b 57 04	 mov	 edx, DWORD PTR [edi+4]
  00024	89 56 04	 mov	 DWORD PTR [esi+4], edx
  00027	8b 4f 04	 mov	 ecx, DWORD PTR [edi+4]

; 589  : 
; 590  : 		_TRY_BEGIN
; 591  : 		_Cons_val(this->_Alval, _STD addressof(this->_Myval(_Wherenode)),
; 592  : 			_STD forward<_Valty>(_Val));

  0002a	8b 55 08	 mov	 edx, DWORD PTR __Val$[ebp]
  0002d	66 89 46 14	 mov	 WORD PTR [esi+20], ax
  00031	52		 push	 edx
  00032	8d 46 0c	 lea	 eax, DWORD PTR [esi+12]
  00035	50		 push	 eax
  00036	83 c7 0d	 add	 edi, 13			; 0000000dH
  00039	57		 push	 edi
  0003a	89 4e 08	 mov	 DWORD PTR [esi+8], ecx
  0003d	e8 00 00 00 00	 call	 ??$_Cons_val@V?$allocator@U?$pair@$$CBHPAUGAMESHOP_PACKAGE_DATA@@@std@@@std@@U?$pair@$$CBHPAUGAMESHOP_PACKAGE_DATA@@@2@U?$pair@HPAUGAMESHOP_PACKAGE_DATA@@@2@@std@@YAXAAV?$allocator@U?$pair@$$CBHPAUGAMESHOP_PACKAGE_DATA@@@std@@@0@PAU?$pair@$$CBHPAUGAMESHOP_PACKAGE_DATA@@@0@$$QAU?$pair@HPAUGAMESHOP_PACKAGE_DATA@@@0@@Z ; std::_Cons_val<std::allocator<std::pair<int const ,GAMESHOP_PACKAGE_DATA *> >,std::pair<int const ,GAMESHOP_PACKAGE_DATA *>,std::pair<int,GAMESHOP_PACKAGE_DATA *> >
  00042	83 c4 0c	 add	 esp, 12			; 0000000cH
  00045	5f		 pop	 edi

; 593  : 		_CATCH_ALL
; 594  : 		this->_Alnod.deallocate(_Wherenode, 1);
; 595  : 		_RERAISE;
; 596  : 		_CATCH_END
; 597  : 
; 598  : 		return (_Wherenode);

  00046	8b c6		 mov	 eax, esi
  00048	5e		 pop	 esi

; 599  : 		}

  00049	8b e5		 mov	 esp, ebp
  0004b	5d		 pop	 ebp
  0004c	c2 04 00	 ret	 4

; 587  : 		{	// allocate a node with defaults
; 588  : 		_Nodeptr _Wherenode = _Buynode();

$LN12@Buynode@4:
  0004f	8d 4d 08	 lea	 ecx, DWORD PTR $T222336[ebp]
  00052	51		 push	 ecx
  00053	8d 4d f4	 lea	 ecx, DWORD PTR $T222381[ebp]
  00056	89 45 08	 mov	 DWORD PTR $T222336[ebp], eax
  00059	e8 00 00 00 00	 call	 ??0exception@std@@QAE@ABQBD@Z ; std::exception::exception
  0005e	68 00 00 00 00	 push	 OFFSET __TI2?AVbad_alloc@std@@
  00063	8d 55 f4	 lea	 edx, DWORD PTR $T222381[ebp]
  00066	52		 push	 edx
  00067	c7 45 f4 00 00
	00 00		 mov	 DWORD PTR $T222381[ebp], OFFSET ??_7bad_alloc@std@@6B@
  0006e	e8 00 00 00 00	 call	 __CxxThrowException@8
$LN44@Buynode@4:
$LN43@Buynode@4:
  00073	cc		 int	 3
??$_Buynode@U?$pair@HPAUGAMESHOP_PACKAGE_DATA@@@std@@@?$_Tree_val@V?$_Tmap_traits@HPAUGAMESHOP_PACKAGE_DATA@@U?$less@H@std@@V?$allocator@U?$pair@$$CBHPAUGAMESHOP_PACKAGE_DATA@@@std@@@3@$0A@@std@@@std@@QAEPAU_Node@?$_Tree_nod@V?$_Tmap_traits@HPAUGAMESHOP_PACKAGE_DATA@@U?$less@H@std@@V?$allocator@U?$pair@$$CBHPAUGAMESHOP_PACKAGE_DATA@@@std@@@3@$0A@@std@@@1@$$QAU?$pair@HPAUGAMESHOP_PACKAGE_DATA@@@1@@Z ENDP ; std::_Tree_val<std::_Tmap_traits<int,GAMESHOP_PACKAGE_DATA *,std::less<int>,std::allocator<std::pair<int const ,GAMESHOP_PACKAGE_DATA *> >,0> >::_Buynode<std::pair<int,GAMESHOP_PACKAGE_DATA *> >
_TEXT	ENDS
PUBLIC	??$_Cons_val@V?$allocator@U?$pair@$$CBHPAUGAMESHOP_PACKAGE_DATA@@@std@@@std@@U?$pair@$$CBHPAUGAMESHOP_PACKAGE_DATA@@@2@U32@@std@@YAXAAV?$allocator@U?$pair@$$CBHPAUGAMESHOP_PACKAGE_DATA@@@std@@@0@PAU?$pair@$$CBHPAUGAMESHOP_PACKAGE_DATA@@@0@$$QAU20@@Z ; std::_Cons_val<std::allocator<std::pair<int const ,GAMESHOP_PACKAGE_DATA *> >,std::pair<int const ,GAMESHOP_PACKAGE_DATA *>,std::pair<int const ,GAMESHOP_PACKAGE_DATA *> >
; Function compile flags: /Ogtp
; File d:\program files (x86)\microsoft visual studio 10.0\vc\include\xmemory
;	COMDAT ??$_Cons_val@V?$allocator@U?$pair@$$CBHPAUGAMESHOP_PACKAGE_DATA@@@std@@@std@@U?$pair@$$CBHPAUGAMESHOP_PACKAGE_DATA@@@2@U32@@std@@YAXAAV?$allocator@U?$pair@$$CBHPAUGAMESHOP_PACKAGE_DATA@@@std@@@0@PAU?$pair@$$CBHPAUGAMESHOP_PACKAGE_DATA@@@0@$$QAU20@@Z
_TEXT	SEGMENT
__Alval$ = 8						; size = 4
__Pdest$ = 12						; size = 4
__Src$ = 16						; size = 4
??$_Cons_val@V?$allocator@U?$pair@$$CBHPAUGAMESHOP_PACKAGE_DATA@@@std@@@std@@U?$pair@$$CBHPAUGAMESHOP_PACKAGE_DATA@@@2@U32@@std@@YAXAAV?$allocator@U?$pair@$$CBHPAUGAMESHOP_PACKAGE_DATA@@@std@@@0@PAU?$pair@$$CBHPAUGAMESHOP_PACKAGE_DATA@@@0@$$QAU20@@Z PROC ; std::_Cons_val<std::allocator<std::pair<int const ,GAMESHOP_PACKAGE_DATA *> >,std::pair<int const ,GAMESHOP_PACKAGE_DATA *>,std::pair<int const ,GAMESHOP_PACKAGE_DATA *> >, COMDAT

; 279  : 	{	// construct using allocator

  00000	55		 push	 ebp
  00001	8b ec		 mov	 ebp, esp

; 280  : 	_Alval.construct(_Pdest, _STD forward<_Ty2>(_Src));

  00003	8b 45 0c	 mov	 eax, DWORD PTR __Pdest$[ebp]
  00006	85 c0		 test	 eax, eax
  00008	74 0d		 je	 SHORT $LN7@Cons_val@3
  0000a	8b 4d 10	 mov	 ecx, DWORD PTR __Src$[ebp]
  0000d	8b 11		 mov	 edx, DWORD PTR [ecx]
  0000f	89 10		 mov	 DWORD PTR [eax], edx
  00011	8b 49 04	 mov	 ecx, DWORD PTR [ecx+4]
  00014	89 48 04	 mov	 DWORD PTR [eax+4], ecx
$LN7@Cons_val@3:

; 281  : 	}

  00017	5d		 pop	 ebp
  00018	c3		 ret	 0
??$_Cons_val@V?$allocator@U?$pair@$$CBHPAUGAMESHOP_PACKAGE_DATA@@@std@@@std@@U?$pair@$$CBHPAUGAMESHOP_PACKAGE_DATA@@@2@U32@@std@@YAXAAV?$allocator@U?$pair@$$CBHPAUGAMESHOP_PACKAGE_DATA@@@std@@@0@PAU?$pair@$$CBHPAUGAMESHOP_PACKAGE_DATA@@@0@$$QAU20@@Z ENDP ; std::_Cons_val<std::allocator<std::pair<int const ,GAMESHOP_PACKAGE_DATA *> >,std::pair<int const ,GAMESHOP_PACKAGE_DATA *>,std::pair<int const ,GAMESHOP_PACKAGE_DATA *> >
_TEXT	ENDS
PUBLIC	?GetPackage@GameShop@@QAEPAUGAMESHOP_PACKAGE_DATA@@H@Z ; GameShop::GetPackage
; Function compile flags: /Ogtp
; File e:\work\tranet_version\gs\gameserver\gameshop.cpp
;	COMDAT ?GetPackage@GameShop@@QAEPAUGAMESHOP_PACKAGE_DATA@@H@Z
_TEXT	SEGMENT
_PackageID$ = 8						; size = 4
?GetPackage@GameShop@@QAEPAUGAMESHOP_PACKAGE_DATA@@H@Z PROC ; GameShop::GetPackage, COMDAT
; _this$ = ecx

; 1407 : {

  00000	55		 push	 ebp
  00001	8b ec		 mov	 ebp, esp
  00003	56		 push	 esi

; 1408 : 	GAMESHOP_PACKAGE_DATA * lpPackage = NULL;
; 1409 : 	std::map<int, GAMESHOP_PACKAGE_DATA *>::iterator Iter;
; 1410 : 	// ----
; 1411 : 	for( Iter = this->PackageList.begin(); Iter != this->PackageList.end(); Iter++ )

  00004	8b 71 2c	 mov	 esi, DWORD PTR [ecx+44]
  00007	8b 16		 mov	 edx, DWORD PTR [esi]
  00009	33 c0		 xor	 eax, eax
  0000b	3b d6		 cmp	 edx, esi
  0000d	74 4f		 je	 SHORT $LN91@GetPackage
  0000f	57		 push	 edi
  00010	8b 7d 08	 mov	 edi, DWORD PTR _PackageID$[ebp]
$LL36@GetPackage:

; 1412 : 	{
; 1413 : 		lpPackage = Iter->second;

  00013	8b 42 10	 mov	 eax, DWORD PTR [edx+16]

; 1414 : 		// ----
; 1415 : 		if( PackageID == lpPackage->PackageID )

  00016	0f bf 08	 movsx	 ecx, WORD PTR [eax]
  00019	3b f9		 cmp	 edi, ecx
  0001b	74 40		 je	 SHORT $LN97@GetPackage

; 1416 : 		{
; 1417 : 			break;
; 1418 : 		}
; 1419 : 		else
; 1420 : 		{
; 1421 : 			lpPackage = NULL;

  0001d	33 c0		 xor	 eax, eax
  0001f	38 42 15	 cmp	 BYTE PTR [edx+21], al
  00022	75 35		 jne	 SHORT $LN94@GetPackage

; 1408 : 	GAMESHOP_PACKAGE_DATA * lpPackage = NULL;
; 1409 : 	std::map<int, GAMESHOP_PACKAGE_DATA *>::iterator Iter;
; 1410 : 	// ----
; 1411 : 	for( Iter = this->PackageList.begin(); Iter != this->PackageList.end(); Iter++ )

  00024	8b 4a 08	 mov	 ecx, DWORD PTR [edx+8]
  00027	38 41 15	 cmp	 BYTE PTR [ecx+21], al
  0002a	75 14		 jne	 SHORT $LN90@GetPackage
  0002c	8b d1		 mov	 edx, ecx
  0002e	8b 0a		 mov	 ecx, DWORD PTR [edx]
  00030	38 41 15	 cmp	 BYTE PTR [ecx+21], al
  00033	75 24		 jne	 SHORT $LN94@GetPackage
$LL51@GetPackage:
  00035	8b d1		 mov	 edx, ecx
  00037	8b 0a		 mov	 ecx, DWORD PTR [edx]
  00039	38 41 15	 cmp	 BYTE PTR [ecx+21], al
  0003c	74 f7		 je	 SHORT $LL51@GetPackage
  0003e	eb 19		 jmp	 SHORT $LN94@GetPackage
$LN90@GetPackage:
  00040	8b 4a 04	 mov	 ecx, DWORD PTR [edx+4]
  00043	38 41 15	 cmp	 BYTE PTR [ecx+21], al
  00046	75 0f		 jne	 SHORT $LN34@GetPackage
$LL35@GetPackage:
  00048	3b 51 08	 cmp	 edx, DWORD PTR [ecx+8]
  0004b	75 0a		 jne	 SHORT $LN34@GetPackage
  0004d	8b d1		 mov	 edx, ecx
  0004f	8b 49 04	 mov	 ecx, DWORD PTR [ecx+4]
  00052	38 41 15	 cmp	 BYTE PTR [ecx+21], al
  00055	74 f1		 je	 SHORT $LL35@GetPackage
$LN34@GetPackage:
  00057	8b d1		 mov	 edx, ecx
$LN94@GetPackage:
  00059	3b d6		 cmp	 edx, esi
  0005b	75 b6		 jne	 SHORT $LL36@GetPackage
$LN97@GetPackage:
  0005d	5f		 pop	 edi
$LN91@GetPackage:
  0005e	5e		 pop	 esi

; 1422 : 			continue;
; 1423 : 		}
; 1424 : 	}
; 1425 : 	// ----
; 1426 : 	return lpPackage;
; 1427 : }

  0005f	5d		 pop	 ebp
  00060	c2 04 00	 ret	 4
?GetPackage@GameShop@@QAEPAUGAMESHOP_PACKAGE_DATA@@H@Z ENDP ; GameShop::GetPackage
_TEXT	ENDS
PUBLIC	??_C@_0BG@BBKNOMOH@invalid?5map?$DMK?0?5T?$DO?5key?$AA@ ; `string'
PUBLIC	?at@?$map@HPAUGAMESHOP_PACKAGE_DATA@@U?$less@H@std@@V?$allocator@U?$pair@$$CBHPAUGAMESHOP_PACKAGE_DATA@@@std@@@3@@std@@QAEAAPAUGAMESHOP_PACKAGE_DATA@@ABH@Z ; std::map<int,GAMESHOP_PACKAGE_DATA *,std::less<int>,std::allocator<std::pair<int const ,GAMESHOP_PACKAGE_DATA *> > >::at
;	COMDAT ??_C@_0BG@BBKNOMOH@invalid?5map?$DMK?0?5T?$DO?5key?$AA@
; File d:\program files (x86)\microsoft visual studio 10.0\vc\include\xtree
CONST	SEGMENT
??_C@_0BG@BBKNOMOH@invalid?5map?$DMK?0?5T?$DO?5key?$AA@ DB 'invalid map<K'
	DB	', T> key', 00H				; `string'
; Function compile flags: /Ogtp
; File d:\program files (x86)\microsoft visual studio 10.0\vc\include\map
CONST	ENDS
;	COMDAT ?at@?$map@HPAUGAMESHOP_PACKAGE_DATA@@U?$less@H@std@@V?$allocator@U?$pair@$$CBHPAUGAMESHOP_PACKAGE_DATA@@@std@@@3@@std@@QAEAAPAUGAMESHOP_PACKAGE_DATA@@ABH@Z
_TEXT	SEGMENT
__Keyval$ = 8						; size = 4
?at@?$map@HPAUGAMESHOP_PACKAGE_DATA@@U?$less@H@std@@V?$allocator@U?$pair@$$CBHPAUGAMESHOP_PACKAGE_DATA@@@std@@@3@@std@@QAEAAPAUGAMESHOP_PACKAGE_DATA@@ABH@Z PROC ; std::map<int,GAMESHOP_PACKAGE_DATA *,std::less<int>,std::allocator<std::pair<int const ,GAMESHOP_PACKAGE_DATA *> > >::at, COMDAT
; _this$ = ecx

; 221  : 		{	// find element matching _Keyval

  00000	55		 push	 ebp
  00001	8b ec		 mov	 ebp, esp

; 222  : 		iterator _Where = this->lower_bound(_Keyval);

  00003	8b 51 04	 mov	 edx, DWORD PTR [ecx+4]
  00006	8b 42 04	 mov	 eax, DWORD PTR [edx+4]
  00009	80 78 15 00	 cmp	 BYTE PTR [eax+21], 0
  0000d	57		 push	 edi
  0000e	8b 7d 08	 mov	 edi, DWORD PTR __Keyval$[ebp]
  00011	75 18		 jne	 SHORT $LN9@at
  00013	56		 push	 esi
  00014	8b 37		 mov	 esi, DWORD PTR [edi]
$LL10@at:
  00016	39 70 0c	 cmp	 DWORD PTR [eax+12], esi
  00019	7d 05		 jge	 SHORT $LN8@at
  0001b	8b 40 08	 mov	 eax, DWORD PTR [eax+8]
  0001e	eb 04		 jmp	 SHORT $LN7@at
$LN8@at:
  00020	8b d0		 mov	 edx, eax
  00022	8b 00		 mov	 eax, DWORD PTR [eax]
$LN7@at:
  00024	80 78 15 00	 cmp	 BYTE PTR [eax+21], 0
  00028	74 ec		 je	 SHORT $LL10@at
  0002a	5e		 pop	 esi
$LN9@at:

; 223  : 		if (_Where == this->end()
; 224  : 			|| this->comp(_Keyval, this->_Key(_Where._Mynode())))

  0002b	3b 51 04	 cmp	 edx, DWORD PTR [ecx+4]
  0002e	74 0f		 je	 SHORT $LN1@at
  00030	8b 07		 mov	 eax, DWORD PTR [edi]
  00032	5f		 pop	 edi
  00033	3b 42 0c	 cmp	 eax, DWORD PTR [edx+12]
  00036	7c 07		 jl	 SHORT $LN1@at

; 226  : 		return ((*_Where).second);

  00038	8d 42 10	 lea	 eax, DWORD PTR [edx+16]

; 227  : 		}

  0003b	5d		 pop	 ebp
  0003c	c2 04 00	 ret	 4
$LN1@at:

; 225  : 			_Xout_of_range("invalid map<K, T> key");

  0003f	68 00 00 00 00	 push	 OFFSET ??_C@_0BG@BBKNOMOH@invalid?5map?$DMK?0?5T?$DO?5key?$AA@
  00044	e8 00 00 00 00	 call	 ?_Xout_of_range@std@@YAXPBD@Z ; std::_Xout_of_range
$LN69@at:
$LN68@at:
  00049	cc		 int	 3
?at@?$map@HPAUGAMESHOP_PACKAGE_DATA@@U?$less@H@std@@V?$allocator@U?$pair@$$CBHPAUGAMESHOP_PACKAGE_DATA@@@std@@@3@@std@@QAEAAPAUGAMESHOP_PACKAGE_DATA@@ABH@Z ENDP ; std::map<int,GAMESHOP_PACKAGE_DATA *,std::less<int>,std::allocator<std::pair<int const ,GAMESHOP_PACKAGE_DATA *> > >::at
_TEXT	ENDS
PUBLIC	?_Tidy@?$_Tree@V?$_Tmap_traits@HPAUGAMESHOP_ITEM_DATA@@U?$less@H@std@@V?$allocator@U?$pair@$$CBHPAUGAMESHOP_ITEM_DATA@@@std@@@3@$0A@@std@@@std@@IAEXXZ ; std::_Tree<std::_Tmap_traits<int,GAMESHOP_ITEM_DATA *,std::less<int>,std::allocator<std::pair<int const ,GAMESHOP_ITEM_DATA *> >,0> >::_Tidy
; Function compile flags: /Ogtp
; File d:\program files (x86)\microsoft visual studio 10.0\vc\include\xtree
;	COMDAT ?_Tidy@?$_Tree@V?$_Tmap_traits@HPAUGAMESHOP_ITEM_DATA@@U?$less@H@std@@V?$allocator@U?$pair@$$CBHPAUGAMESHOP_ITEM_DATA@@@std@@@3@$0A@@std@@@std@@IAEXXZ
_TEXT	SEGMENT
$T223037 = -4						; size = 4
?_Tidy@?$_Tree@V?$_Tmap_traits@HPAUGAMESHOP_ITEM_DATA@@U?$less@H@std@@V?$allocator@U?$pair@$$CBHPAUGAMESHOP_ITEM_DATA@@@std@@@3@$0A@@std@@@std@@IAEXXZ PROC ; std::_Tree<std::_Tmap_traits<int,GAMESHOP_ITEM_DATA *,std::less<int>,std::allocator<std::pair<int const ,GAMESHOP_ITEM_DATA *> >,0> >::_Tidy, COMDAT
; _this$ = ecx

; 1865 : 		{	// free all storage

  00000	55		 push	 ebp
  00001	8b ec		 mov	 ebp, esp
  00003	51		 push	 ecx

; 1866 : 		erase(begin(), end());

  00004	8b 41 04	 mov	 eax, DWORD PTR [ecx+4]
  00007	8b 10		 mov	 edx, DWORD PTR [eax]
  00009	50		 push	 eax
  0000a	52		 push	 edx
  0000b	8d 45 fc	 lea	 eax, DWORD PTR $T223037[ebp]
  0000e	50		 push	 eax
  0000f	e8 00 00 00 00	 call	 ?erase@?$_Tree@V?$_Tmap_traits@HPAUGAMESHOP_ITEM_DATA@@U?$less@H@std@@V?$allocator@U?$pair@$$CBHPAUGAMESHOP_ITEM_DATA@@@std@@@3@$0A@@std@@@std@@QAE?AV?$_Tree_iterator@V?$_Tree_val@V?$_Tmap_traits@HPAUGAMESHOP_ITEM_DATA@@U?$less@H@std@@V?$allocator@U?$pair@$$CBHPAUGAMESHOP_ITEM_DATA@@@std@@@3@$0A@@std@@@std@@@2@V?$_Tree_const_iterator@V?$_Tree_val@V?$_Tmap_traits@HPAUGAMESHOP_ITEM_DATA@@U?$less@H@std@@V?$allocator@U?$pair@$$CBHPAUGAMESHOP_ITEM_DATA@@@std@@@3@$0A@@std@@@std@@@2@0@Z ; std::_Tree<std::_Tmap_traits<int,GAMESHOP_ITEM_DATA *,std::less<int>,std::allocator<std::pair<int const ,GAMESHOP_ITEM_DATA *> >,0> >::erase

; 1867 : 		}

  00014	8b e5		 mov	 esp, ebp
  00016	5d		 pop	 ebp
  00017	c3		 ret	 0
?_Tidy@?$_Tree@V?$_Tmap_traits@HPAUGAMESHOP_ITEM_DATA@@U?$less@H@std@@V?$allocator@U?$pair@$$CBHPAUGAMESHOP_ITEM_DATA@@@std@@@3@$0A@@std@@@std@@IAEXXZ ENDP ; std::_Tree<std::_Tmap_traits<int,GAMESHOP_ITEM_DATA *,std::less<int>,std::allocator<std::pair<int const ,GAMESHOP_ITEM_DATA *> >,0> >::_Tidy
_TEXT	ENDS
PUBLIC	?_Tidy@?$_Tree@V?$_Tmap_traits@HPAUGAMESHOP_PACKAGE_DATA@@U?$less@H@std@@V?$allocator@U?$pair@$$CBHPAUGAMESHOP_PACKAGE_DATA@@@std@@@3@$0A@@std@@@std@@IAEXXZ ; std::_Tree<std::_Tmap_traits<int,GAMESHOP_PACKAGE_DATA *,std::less<int>,std::allocator<std::pair<int const ,GAMESHOP_PACKAGE_DATA *> >,0> >::_Tidy
; Function compile flags: /Ogtp
;	COMDAT ?_Tidy@?$_Tree@V?$_Tmap_traits@HPAUGAMESHOP_PACKAGE_DATA@@U?$less@H@std@@V?$allocator@U?$pair@$$CBHPAUGAMESHOP_PACKAGE_DATA@@@std@@@3@$0A@@std@@@std@@IAEXXZ
_TEXT	SEGMENT
$T223129 = -4						; size = 4
?_Tidy@?$_Tree@V?$_Tmap_traits@HPAUGAMESHOP_PACKAGE_DATA@@U?$less@H@std@@V?$allocator@U?$pair@$$CBHPAUGAMESHOP_PACKAGE_DATA@@@std@@@3@$0A@@std@@@std@@IAEXXZ PROC ; std::_Tree<std::_Tmap_traits<int,GAMESHOP_PACKAGE_DATA *,std::less<int>,std::allocator<std::pair<int const ,GAMESHOP_PACKAGE_DATA *> >,0> >::_Tidy, COMDAT
; _this$ = ecx

; 1865 : 		{	// free all storage

  00000	55		 push	 ebp
  00001	8b ec		 mov	 ebp, esp
  00003	51		 push	 ecx

; 1866 : 		erase(begin(), end());

  00004	8b 41 04	 mov	 eax, DWORD PTR [ecx+4]
  00007	8b 10		 mov	 edx, DWORD PTR [eax]
  00009	50		 push	 eax
  0000a	52		 push	 edx
  0000b	8d 45 fc	 lea	 eax, DWORD PTR $T223129[ebp]
  0000e	50		 push	 eax
  0000f	e8 00 00 00 00	 call	 ?erase@?$_Tree@V?$_Tmap_traits@HPAUGAMESHOP_PACKAGE_DATA@@U?$less@H@std@@V?$allocator@U?$pair@$$CBHPAUGAMESHOP_PACKAGE_DATA@@@std@@@3@$0A@@std@@@std@@QAE?AV?$_Tree_iterator@V?$_Tree_val@V?$_Tmap_traits@HPAUGAMESHOP_PACKAGE_DATA@@U?$less@H@std@@V?$allocator@U?$pair@$$CBHPAUGAMESHOP_PACKAGE_DATA@@@std@@@3@$0A@@std@@@std@@@2@V?$_Tree_const_iterator@V?$_Tree_val@V?$_Tmap_traits@HPAUGAMESHOP_PACKAGE_DATA@@U?$less@H@std@@V?$allocator@U?$pair@$$CBHPAUGAMESHOP_PACKAGE_DATA@@@std@@@3@$0A@@std@@@std@@@2@0@Z ; std::_Tree<std::_Tmap_traits<int,GAMESHOP_PACKAGE_DATA *,std::less<int>,std::allocator<std::pair<int const ,GAMESHOP_PACKAGE_DATA *> >,0> >::erase

; 1867 : 		}

  00014	8b e5		 mov	 esp, ebp
  00016	5d		 pop	 ebp
  00017	c3		 ret	 0
?_Tidy@?$_Tree@V?$_Tmap_traits@HPAUGAMESHOP_PACKAGE_DATA@@U?$less@H@std@@V?$allocator@U?$pair@$$CBHPAUGAMESHOP_PACKAGE_DATA@@@std@@@3@$0A@@std@@@std@@IAEXXZ ENDP ; std::_Tree<std::_Tmap_traits<int,GAMESHOP_PACKAGE_DATA *,std::less<int>,std::allocator<std::pair<int const ,GAMESHOP_PACKAGE_DATA *> >,0> >::_Tidy
_TEXT	ENDS
PUBLIC	??$insert@U?$pair@HPAUGAMESHOP_ITEM_DATA@@@std@@@?$_Tree@V?$_Tmap_traits@HPAUGAMESHOP_ITEM_DATA@@U?$less@H@std@@V?$allocator@U?$pair@$$CBHPAUGAMESHOP_ITEM_DATA@@@std@@@3@$0A@@std@@@std@@QAE?AU?$pair@V?$_Tree_iterator@V?$_Tree_val@V?$_Tmap_traits@HPAUGAMESHOP_ITEM_DATA@@U?$less@H@std@@V?$allocator@U?$pair@$$CBHPAUGAMESHOP_ITEM_DATA@@@std@@@3@$0A@@std@@@std@@@std@@_N@1@$$QAU?$pair@HPAUGAMESHOP_ITEM_DATA@@@1@@Z ; std::_Tree<std::_Tmap_traits<int,GAMESHOP_ITEM_DATA *,std::less<int>,std::allocator<std::pair<int const ,GAMESHOP_ITEM_DATA *> >,0> >::insert<std::pair<int,GAMESHOP_ITEM_DATA *> >
; Function compile flags: /Ogtp
;	COMDAT ??$insert@U?$pair@HPAUGAMESHOP_ITEM_DATA@@@std@@@?$_Tree@V?$_Tmap_traits@HPAUGAMESHOP_ITEM_DATA@@U?$less@H@std@@V?$allocator@U?$pair@$$CBHPAUGAMESHOP_ITEM_DATA@@@std@@@3@$0A@@std@@@std@@QAE?AU?$pair@V?$_Tree_iterator@V?$_Tree_val@V?$_Tmap_traits@HPAUGAMESHOP_ITEM_DATA@@U?$less@H@std@@V?$allocator@U?$pair@$$CBHPAUGAMESHOP_ITEM_DATA@@@std@@@3@$0A@@std@@@std@@@std@@_N@1@$$QAU?$pair@HPAUGAMESHOP_ITEM_DATA@@@1@@Z
_TEXT	SEGMENT
___$ReturnUdt$ = 8					; size = 4
__Val$ = 12						; size = 4
??$insert@U?$pair@HPAUGAMESHOP_ITEM_DATA@@@std@@@?$_Tree@V?$_Tmap_traits@HPAUGAMESHOP_ITEM_DATA@@U?$less@H@std@@V?$allocator@U?$pair@$$CBHPAUGAMESHOP_ITEM_DATA@@@std@@@3@$0A@@std@@@std@@QAE?AU?$pair@V?$_Tree_iterator@V?$_Tree_val@V?$_Tmap_traits@HPAUGAMESHOP_ITEM_DATA@@U?$less@H@std@@V?$allocator@U?$pair@$$CBHPAUGAMESHOP_ITEM_DATA@@@std@@@3@$0A@@std@@@std@@@std@@_N@1@$$QAU?$pair@HPAUGAMESHOP_ITEM_DATA@@@1@@Z PROC ; std::_Tree<std::_Tmap_traits<int,GAMESHOP_ITEM_DATA *,std::less<int>,std::allocator<std::pair<int const ,GAMESHOP_ITEM_DATA *> >,0> >::insert<std::pair<int,GAMESHOP_ITEM_DATA *> >, COMDAT
; _this$ = ecx

; 753  : 		_Pairib insert(_Valty&& _Val)

  00000	55		 push	 ebp
  00001	8b ec		 mov	 ebp, esp

; 754  : 		{	// try to insert node with value _Val, favoring right side
; 755  : 		return (_Linsert(this->_Buynode(_STD forward<_Valty>(_Val)),
; 756  : 			false));

  00003	8b 45 0c	 mov	 eax, DWORD PTR __Val$[ebp]
  00006	56		 push	 esi
  00007	57		 push	 edi
  00008	6a 00		 push	 0
  0000a	50		 push	 eax
  0000b	8b f1		 mov	 esi, ecx
  0000d	e8 00 00 00 00	 call	 ??$_Buynode@U?$pair@HPAUGAMESHOP_ITEM_DATA@@@std@@@?$_Tree_val@V?$_Tmap_traits@HPAUGAMESHOP_ITEM_DATA@@U?$less@H@std@@V?$allocator@U?$pair@$$CBHPAUGAMESHOP_ITEM_DATA@@@std@@@3@$0A@@std@@@std@@QAEPAU_Node@?$_Tree_nod@V?$_Tmap_traits@HPAUGAMESHOP_ITEM_DATA@@U?$less@H@std@@V?$allocator@U?$pair@$$CBHPAUGAMESHOP_ITEM_DATA@@@std@@@3@$0A@@std@@@1@$$QAU?$pair@HPAUGAMESHOP_ITEM_DATA@@@1@@Z ; std::_Tree_val<std::_Tmap_traits<int,GAMESHOP_ITEM_DATA *,std::less<int>,std::allocator<std::pair<int const ,GAMESHOP_ITEM_DATA *> >,0> >::_Buynode<std::pair<int,GAMESHOP_ITEM_DATA *> >
  00012	8b 7d 08	 mov	 edi, DWORD PTR ___$ReturnUdt$[ebp]
  00015	50		 push	 eax
  00016	57		 push	 edi
  00017	8b ce		 mov	 ecx, esi
  00019	e8 00 00 00 00	 call	 ?_Linsert@?$_Tree@V?$_Tmap_traits@HPAUGAMESHOP_ITEM_DATA@@U?$less@H@std@@V?$allocator@U?$pair@$$CBHPAUGAMESHOP_ITEM_DATA@@@std@@@3@$0A@@std@@@std@@QAE?AU?$pair@V?$_Tree_iterator@V?$_Tree_val@V?$_Tmap_traits@HPAUGAMESHOP_ITEM_DATA@@U?$less@H@std@@V?$allocator@U?$pair@$$CBHPAUGAMESHOP_ITEM_DATA@@@std@@@3@$0A@@std@@@std@@@std@@_N@2@PAU_Node@?$_Tree_nod@V?$_Tmap_traits@HPAUGAMESHOP_ITEM_DATA@@U?$less@H@std@@V?$allocator@U?$pair@$$CBHPAUGAMESHOP_ITEM_DATA@@@std@@@3@$0A@@std@@@2@_N@Z ; std::_Tree<std::_Tmap_traits<int,GAMESHOP_ITEM_DATA *,std::less<int>,std::allocator<std::pair<int const ,GAMESHOP_ITEM_DATA *> >,0> >::_Linsert
  0001e	8b c7		 mov	 eax, edi
  00020	5f		 pop	 edi
  00021	5e		 pop	 esi

; 757  : 		}

  00022	5d		 pop	 ebp
  00023	c2 08 00	 ret	 8
??$insert@U?$pair@HPAUGAMESHOP_ITEM_DATA@@@std@@@?$_Tree@V?$_Tmap_traits@HPAUGAMESHOP_ITEM_DATA@@U?$less@H@std@@V?$allocator@U?$pair@$$CBHPAUGAMESHOP_ITEM_DATA@@@std@@@3@$0A@@std@@@std@@QAE?AU?$pair@V?$_Tree_iterator@V?$_Tree_val@V?$_Tmap_traits@HPAUGAMESHOP_ITEM_DATA@@U?$less@H@std@@V?$allocator@U?$pair@$$CBHPAUGAMESHOP_ITEM_DATA@@@std@@@3@$0A@@std@@@std@@@std@@_N@1@$$QAU?$pair@HPAUGAMESHOP_ITEM_DATA@@@1@@Z ENDP ; std::_Tree<std::_Tmap_traits<int,GAMESHOP_ITEM_DATA *,std::less<int>,std::allocator<std::pair<int const ,GAMESHOP_ITEM_DATA *> >,0> >::insert<std::pair<int,GAMESHOP_ITEM_DATA *> >
_TEXT	ENDS
PUBLIC	??$insert@U?$pair@HPAUGAMESHOP_PACKAGE_DATA@@@std@@@?$_Tree@V?$_Tmap_traits@HPAUGAMESHOP_PACKAGE_DATA@@U?$less@H@std@@V?$allocator@U?$pair@$$CBHPAUGAMESHOP_PACKAGE_DATA@@@std@@@3@$0A@@std@@@std@@QAE?AU?$pair@V?$_Tree_iterator@V?$_Tree_val@V?$_Tmap_traits@HPAUGAMESHOP_PACKAGE_DATA@@U?$less@H@std@@V?$allocator@U?$pair@$$CBHPAUGAMESHOP_PACKAGE_DATA@@@std@@@3@$0A@@std@@@std@@@std@@_N@1@$$QAU?$pair@HPAUGAMESHOP_PACKAGE_DATA@@@1@@Z ; std::_Tree<std::_Tmap_traits<int,GAMESHOP_PACKAGE_DATA *,std::less<int>,std::allocator<std::pair<int const ,GAMESHOP_PACKAGE_DATA *> >,0> >::insert<std::pair<int,GAMESHOP_PACKAGE_DATA *> >
; Function compile flags: /Ogtp
;	COMDAT ??$insert@U?$pair@HPAUGAMESHOP_PACKAGE_DATA@@@std@@@?$_Tree@V?$_Tmap_traits@HPAUGAMESHOP_PACKAGE_DATA@@U?$less@H@std@@V?$allocator@U?$pair@$$CBHPAUGAMESHOP_PACKAGE_DATA@@@std@@@3@$0A@@std@@@std@@QAE?AU?$pair@V?$_Tree_iterator@V?$_Tree_val@V?$_Tmap_traits@HPAUGAMESHOP_PACKAGE_DATA@@U?$less@H@std@@V?$allocator@U?$pair@$$CBHPAUGAMESHOP_PACKAGE_DATA@@@std@@@3@$0A@@std@@@std@@@std@@_N@1@$$QAU?$pair@HPAUGAMESHOP_PACKAGE_DATA@@@1@@Z
_TEXT	SEGMENT
___$ReturnUdt$ = 8					; size = 4
__Val$ = 12						; size = 4
??$insert@U?$pair@HPAUGAMESHOP_PACKAGE_DATA@@@std@@@?$_Tree@V?$_Tmap_traits@HPAUGAMESHOP_PACKAGE_DATA@@U?$less@H@std@@V?$allocator@U?$pair@$$CBHPAUGAMESHOP_PACKAGE_DATA@@@std@@@3@$0A@@std@@@std@@QAE?AU?$pair@V?$_Tree_iterator@V?$_Tree_val@V?$_Tmap_traits@HPAUGAMESHOP_PACKAGE_DATA@@U?$less@H@std@@V?$allocator@U?$pair@$$CBHPAUGAMESHOP_PACKAGE_DATA@@@std@@@3@$0A@@std@@@std@@@std@@_N@1@$$QAU?$pair@HPAUGAMESHOP_PACKAGE_DATA@@@1@@Z PROC ; std::_Tree<std::_Tmap_traits<int,GAMESHOP_PACKAGE_DATA *,std::less<int>,std::allocator<std::pair<int const ,GAMESHOP_PACKAGE_DATA *> >,0> >::insert<std::pair<int,GAMESHOP_PACKAGE_DATA *> >, COMDAT
; _this$ = ecx

; 753  : 		_Pairib insert(_Valty&& _Val)

  00000	55		 push	 ebp
  00001	8b ec		 mov	 ebp, esp

; 754  : 		{	// try to insert node with value _Val, favoring right side
; 755  : 		return (_Linsert(this->_Buynode(_STD forward<_Valty>(_Val)),
; 756  : 			false));

  00003	8b 45 0c	 mov	 eax, DWORD PTR __Val$[ebp]
  00006	56		 push	 esi
  00007	57		 push	 edi
  00008	6a 00		 push	 0
  0000a	50		 push	 eax
  0000b	8b f1		 mov	 esi, ecx
  0000d	e8 00 00 00 00	 call	 ??$_Buynode@U?$pair@HPAUGAMESHOP_PACKAGE_DATA@@@std@@@?$_Tree_val@V?$_Tmap_traits@HPAUGAMESHOP_PACKAGE_DATA@@U?$less@H@std@@V?$allocator@U?$pair@$$CBHPAUGAMESHOP_PACKAGE_DATA@@@std@@@3@$0A@@std@@@std@@QAEPAU_Node@?$_Tree_nod@V?$_Tmap_traits@HPAUGAMESHOP_PACKAGE_DATA@@U?$less@H@std@@V?$allocator@U?$pair@$$CBHPAUGAMESHOP_PACKAGE_DATA@@@std@@@3@$0A@@std@@@1@$$QAU?$pair@HPAUGAMESHOP_PACKAGE_DATA@@@1@@Z ; std::_Tree_val<std::_Tmap_traits<int,GAMESHOP_PACKAGE_DATA *,std::less<int>,std::allocator<std::pair<int const ,GAMESHOP_PACKAGE_DATA *> >,0> >::_Buynode<std::pair<int,GAMESHOP_PACKAGE_DATA *> >
  00012	8b 7d 08	 mov	 edi, DWORD PTR ___$ReturnUdt$[ebp]
  00015	50		 push	 eax
  00016	57		 push	 edi
  00017	8b ce		 mov	 ecx, esi
  00019	e8 00 00 00 00	 call	 ?_Linsert@?$_Tree@V?$_Tmap_traits@HPAUGAMESHOP_PACKAGE_DATA@@U?$less@H@std@@V?$allocator@U?$pair@$$CBHPAUGAMESHOP_PACKAGE_DATA@@@std@@@3@$0A@@std@@@std@@QAE?AU?$pair@V?$_Tree_iterator@V?$_Tree_val@V?$_Tmap_traits@HPAUGAMESHOP_PACKAGE_DATA@@U?$less@H@std@@V?$allocator@U?$pair@$$CBHPAUGAMESHOP_PACKAGE_DATA@@@std@@@3@$0A@@std@@@std@@@std@@_N@2@PAU_Node@?$_Tree_nod@V?$_Tmap_traits@HPAUGAMESHOP_PACKAGE_DATA@@U?$less@H@std@@V?$allocator@U?$pair@$$CBHPAUGAMESHOP_PACKAGE_DATA@@@std@@@3@$0A@@std@@@2@_N@Z ; std::_Tree<std::_Tmap_traits<int,GAMESHOP_PACKAGE_DATA *,std::less<int>,std::allocator<std::pair<int const ,GAMESHOP_PACKAGE_DATA *> >,0> >::_Linsert
  0001e	8b c7		 mov	 eax, edi
  00020	5f		 pop	 edi
  00021	5e		 pop	 esi

; 757  : 		}

  00022	5d		 pop	 ebp
  00023	c2 08 00	 ret	 8
??$insert@U?$pair@HPAUGAMESHOP_PACKAGE_DATA@@@std@@@?$_Tree@V?$_Tmap_traits@HPAUGAMESHOP_PACKAGE_DATA@@U?$less@H@std@@V?$allocator@U?$pair@$$CBHPAUGAMESHOP_PACKAGE_DATA@@@std@@@3@$0A@@std@@@std@@QAE?AU?$pair@V?$_Tree_iterator@V?$_Tree_val@V?$_Tmap_traits@HPAUGAMESHOP_PACKAGE_DATA@@U?$less@H@std@@V?$allocator@U?$pair@$$CBHPAUGAMESHOP_PACKAGE_DATA@@@std@@@3@$0A@@std@@@std@@@std@@_N@1@$$QAU?$pair@HPAUGAMESHOP_PACKAGE_DATA@@@1@@Z ENDP ; std::_Tree<std::_Tmap_traits<int,GAMESHOP_PACKAGE_DATA *,std::less<int>,std::allocator<std::pair<int const ,GAMESHOP_PACKAGE_DATA *> >,0> >::insert<std::pair<int,GAMESHOP_PACKAGE_DATA *> >
_TEXT	ENDS
PUBLIC	??$_Buynode@U?$pair@$$CBHPAUGAMESHOP_PACKAGE_DATA@@@std@@@?$_Tree_val@V?$_Tmap_traits@HPAUGAMESHOP_PACKAGE_DATA@@U?$less@H@std@@V?$allocator@U?$pair@$$CBHPAUGAMESHOP_PACKAGE_DATA@@@std@@@3@$0A@@std@@@std@@QAEPAU_Node@?$_Tree_nod@V?$_Tmap_traits@HPAUGAMESHOP_PACKAGE_DATA@@U?$less@H@std@@V?$allocator@U?$pair@$$CBHPAUGAMESHOP_PACKAGE_DATA@@@std@@@3@$0A@@std@@@1@$$QAU?$pair@$$CBHPAUGAMESHOP_PACKAGE_DATA@@@1@@Z ; std::_Tree_val<std::_Tmap_traits<int,GAMESHOP_PACKAGE_DATA *,std::less<int>,std::allocator<std::pair<int const ,GAMESHOP_PACKAGE_DATA *> >,0> >::_Buynode<std::pair<int const ,GAMESHOP_PACKAGE_DATA *> >
; Function compile flags: /Ogtp
;	COMDAT ??$_Buynode@U?$pair@$$CBHPAUGAMESHOP_PACKAGE_DATA@@@std@@@?$_Tree_val@V?$_Tmap_traits@HPAUGAMESHOP_PACKAGE_DATA@@U?$less@H@std@@V?$allocator@U?$pair@$$CBHPAUGAMESHOP_PACKAGE_DATA@@@std@@@3@$0A@@std@@@std@@QAEPAU_Node@?$_Tree_nod@V?$_Tmap_traits@HPAUGAMESHOP_PACKAGE_DATA@@U?$less@H@std@@V?$allocator@U?$pair@$$CBHPAUGAMESHOP_PACKAGE_DATA@@@std@@@3@$0A@@std@@@1@$$QAU?$pair@$$CBHPAUGAMESHOP_PACKAGE_DATA@@@1@@Z
_TEXT	SEGMENT
$T223282 = -12						; size = 12
$T223238 = 8						; size = 4
__Val$ = 8						; size = 4
??$_Buynode@U?$pair@$$CBHPAUGAMESHOP_PACKAGE_DATA@@@std@@@?$_Tree_val@V?$_Tmap_traits@HPAUGAMESHOP_PACKAGE_DATA@@U?$less@H@std@@V?$allocator@U?$pair@$$CBHPAUGAMESHOP_PACKAGE_DATA@@@std@@@3@$0A@@std@@@std@@QAEPAU_Node@?$_Tree_nod@V?$_Tmap_traits@HPAUGAMESHOP_PACKAGE_DATA@@U?$less@H@std@@V?$allocator@U?$pair@$$CBHPAUGAMESHOP_PACKAGE_DATA@@@std@@@3@$0A@@std@@@1@$$QAU?$pair@$$CBHPAUGAMESHOP_PACKAGE_DATA@@@1@@Z PROC ; std::_Tree_val<std::_Tmap_traits<int,GAMESHOP_PACKAGE_DATA *,std::less<int>,std::allocator<std::pair<int const ,GAMESHOP_PACKAGE_DATA *> >,0> >::_Buynode<std::pair<int const ,GAMESHOP_PACKAGE_DATA *> >, COMDAT
; _this$ = ecx

; 586  : 		_Nodeptr _Buynode(_Valty&& _Val)

  00000	55		 push	 ebp
  00001	8b ec		 mov	 ebp, esp
  00003	83 ec 0c	 sub	 esp, 12			; 0000000cH
  00006	56		 push	 esi
  00007	57		 push	 edi

; 587  : 		{	// allocate a node with defaults
; 588  : 		_Nodeptr _Wherenode = _Buynode();

  00008	6a 18		 push	 24			; 00000018H
  0000a	8b f9		 mov	 edi, ecx
  0000c	e8 00 00 00 00	 call	 ??2@YAPAXI@Z		; operator new
  00011	8b f0		 mov	 esi, eax
  00013	33 c0		 xor	 eax, eax
  00015	83 c4 04	 add	 esp, 4
  00018	3b f0		 cmp	 esi, eax
  0001a	74 33		 je	 SHORT $LN12@Buynode@5
  0001c	8b 4f 04	 mov	 ecx, DWORD PTR [edi+4]
  0001f	89 0e		 mov	 DWORD PTR [esi], ecx
  00021	8b 57 04	 mov	 edx, DWORD PTR [edi+4]
  00024	89 56 04	 mov	 DWORD PTR [esi+4], edx
  00027	8b 4f 04	 mov	 ecx, DWORD PTR [edi+4]

; 589  : 
; 590  : 		_TRY_BEGIN
; 591  : 		_Cons_val(this->_Alval, _STD addressof(this->_Myval(_Wherenode)),
; 592  : 			_STD forward<_Valty>(_Val));

  0002a	8b 55 08	 mov	 edx, DWORD PTR __Val$[ebp]
  0002d	66 89 46 14	 mov	 WORD PTR [esi+20], ax
  00031	52		 push	 edx
  00032	8d 46 0c	 lea	 eax, DWORD PTR [esi+12]
  00035	50		 push	 eax
  00036	83 c7 0d	 add	 edi, 13			; 0000000dH
  00039	57		 push	 edi
  0003a	89 4e 08	 mov	 DWORD PTR [esi+8], ecx
  0003d	e8 00 00 00 00	 call	 ??$_Cons_val@V?$allocator@U?$pair@$$CBHPAUGAMESHOP_PACKAGE_DATA@@@std@@@std@@U?$pair@$$CBHPAUGAMESHOP_PACKAGE_DATA@@@2@U32@@std@@YAXAAV?$allocator@U?$pair@$$CBHPAUGAMESHOP_PACKAGE_DATA@@@std@@@0@PAU?$pair@$$CBHPAUGAMESHOP_PACKAGE_DATA@@@0@$$QAU20@@Z ; std::_Cons_val<std::allocator<std::pair<int const ,GAMESHOP_PACKAGE_DATA *> >,std::pair<int const ,GAMESHOP_PACKAGE_DATA *>,std::pair<int const ,GAMESHOP_PACKAGE_DATA *> >
  00042	83 c4 0c	 add	 esp, 12			; 0000000cH
  00045	5f		 pop	 edi

; 593  : 		_CATCH_ALL
; 594  : 		this->_Alnod.deallocate(_Wherenode, 1);
; 595  : 		_RERAISE;
; 596  : 		_CATCH_END
; 597  : 
; 598  : 		return (_Wherenode);

  00046	8b c6		 mov	 eax, esi
  00048	5e		 pop	 esi

; 599  : 		}

  00049	8b e5		 mov	 esp, ebp
  0004b	5d		 pop	 ebp
  0004c	c2 04 00	 ret	 4

; 587  : 		{	// allocate a node with defaults
; 588  : 		_Nodeptr _Wherenode = _Buynode();

$LN12@Buynode@5:
  0004f	8d 4d 08	 lea	 ecx, DWORD PTR $T223238[ebp]
  00052	51		 push	 ecx
  00053	8d 4d f4	 lea	 ecx, DWORD PTR $T223282[ebp]
  00056	89 45 08	 mov	 DWORD PTR $T223238[ebp], eax
  00059	e8 00 00 00 00	 call	 ??0exception@std@@QAE@ABQBD@Z ; std::exception::exception
  0005e	68 00 00 00 00	 push	 OFFSET __TI2?AVbad_alloc@std@@
  00063	8d 55 f4	 lea	 edx, DWORD PTR $T223282[ebp]
  00066	52		 push	 edx
  00067	c7 45 f4 00 00
	00 00		 mov	 DWORD PTR $T223282[ebp], OFFSET ??_7bad_alloc@std@@6B@
  0006e	e8 00 00 00 00	 call	 __CxxThrowException@8
$LN44@Buynode@5:
$LN43@Buynode@5:
  00073	cc		 int	 3
??$_Buynode@U?$pair@$$CBHPAUGAMESHOP_PACKAGE_DATA@@@std@@@?$_Tree_val@V?$_Tmap_traits@HPAUGAMESHOP_PACKAGE_DATA@@U?$less@H@std@@V?$allocator@U?$pair@$$CBHPAUGAMESHOP_PACKAGE_DATA@@@std@@@3@$0A@@std@@@std@@QAEPAU_Node@?$_Tree_nod@V?$_Tmap_traits@HPAUGAMESHOP_PACKAGE_DATA@@U?$less@H@std@@V?$allocator@U?$pair@$$CBHPAUGAMESHOP_PACKAGE_DATA@@@std@@@3@$0A@@std@@@1@$$QAU?$pair@$$CBHPAUGAMESHOP_PACKAGE_DATA@@@1@@Z ENDP ; std::_Tree_val<std::_Tmap_traits<int,GAMESHOP_PACKAGE_DATA *,std::less<int>,std::allocator<std::pair<int const ,GAMESHOP_PACKAGE_DATA *> >,0> >::_Buynode<std::pair<int const ,GAMESHOP_PACKAGE_DATA *> >
_TEXT	ENDS
PUBLIC	?InsertItem@GameShop@@QAEXPAUGAMESHOP_ITEM_DATA@@H@Z ; GameShop::InsertItem
; Function compile flags: /Ogtp
; File e:\work\tranet_version\gs\gameserver\gameshop.cpp
;	COMDAT ?InsertItem@GameShop@@QAEXPAUGAMESHOP_ITEM_DATA@@H@Z
_TEXT	SEGMENT
$T223331 = -8						; size = 8
$T223330 = -8						; size = 8
_lpItem$ = 8						; size = 4
_Index$ = 12						; size = 4
?InsertItem@GameShop@@QAEXPAUGAMESHOP_ITEM_DATA@@H@Z PROC ; GameShop::InsertItem, COMDAT
; _this$ = ecx

; 347  : {

  00000	55		 push	 ebp
  00001	8b ec		 mov	 ebp, esp
  00003	83 ec 08	 sub	 esp, 8
  00006	53		 push	 ebx
  00007	56		 push	 esi
  00008	57		 push	 edi

; 348  : 	GAMESHOP_ITEM_DATA * lpTempItem = new GAMESHOP_ITEM_DATA;

  00009	6a 28		 push	 40			; 00000028H
  0000b	8b d9		 mov	 ebx, ecx
  0000d	e8 00 00 00 00	 call	 ??2@YAPAXI@Z		; operator new
  00012	33 d2		 xor	 edx, edx
  00014	83 c4 04	 add	 esp, 4
  00017	3b c2		 cmp	 eax, edx
  00019	74 2f		 je	 SHORT $LN3@InsertItem
  0001b	83 c9 ff	 or	 ecx, -1
  0001e	66 89 08	 mov	 WORD PTR [eax], cx
  00021	0b c9		 or	 ecx, ecx
  00023	66 89 48 02	 mov	 WORD PTR [eax+2], cx
  00027	b1 ff		 mov	 cl, 255			; 000000ffH
  00029	c7 40 04 ff ff
	00 ff		 mov	 DWORD PTR [eax+4], -16711681 ; ff00ffffH
  00030	89 50 08	 mov	 DWORD PTR [eax+8], edx
  00033	89 50 0c	 mov	 DWORD PTR [eax+12], edx
  00036	89 50 10	 mov	 DWORD PTR [eax+16], edx
  00039	88 48 14	 mov	 BYTE PTR [eax+20], cl
  0003c	89 50 18	 mov	 DWORD PTR [eax+24], edx
  0003f	89 50 1c	 mov	 DWORD PTR [eax+28], edx
  00042	89 50 20	 mov	 DWORD PTR [eax+32], edx
  00045	89 50 24	 mov	 DWORD PTR [eax+36], edx
  00048	eb 02		 jmp	 SHORT $LN4@InsertItem
$LN3@InsertItem:
  0004a	33 c0		 xor	 eax, eax
$LN4@InsertItem:

; 349  : 	memcpy(lpTempItem, lpItem, sizeof(GAMESHOP_ITEM_DATA));

  0004c	8b 75 08	 mov	 esi, DWORD PTR _lpItem$[ebp]
  0004f	8b f8		 mov	 edi, eax
  00051	b9 0a 00 00 00	 mov	 ecx, 10			; 0000000aH
  00056	f3 a5		 rep movsd

; 350  : 	this->ItemList.insert(std::pair<int, GAMESHOP_ITEM_DATA *>(Index, lpTempItem));

  00058	8b 4d 0c	 mov	 ecx, DWORD PTR _Index$[ebp]
  0005b	52		 push	 edx
  0005c	8d 55 f8	 lea	 edx, DWORD PTR $T223330[ebp]
  0005f	89 4d f8	 mov	 DWORD PTR $T223330[ebp], ecx
  00062	52		 push	 edx
  00063	8d 4b 18	 lea	 ecx, DWORD PTR [ebx+24]
  00066	89 45 fc	 mov	 DWORD PTR $T223330[ebp+4], eax
  00069	e8 00 00 00 00	 call	 ??$_Buynode@U?$pair@HPAUGAMESHOP_ITEM_DATA@@@std@@@?$_Tree_val@V?$_Tmap_traits@HPAUGAMESHOP_ITEM_DATA@@U?$less@H@std@@V?$allocator@U?$pair@$$CBHPAUGAMESHOP_ITEM_DATA@@@std@@@3@$0A@@std@@@std@@QAEPAU_Node@?$_Tree_nod@V?$_Tmap_traits@HPAUGAMESHOP_ITEM_DATA@@U?$less@H@std@@V?$allocator@U?$pair@$$CBHPAUGAMESHOP_ITEM_DATA@@@std@@@3@$0A@@std@@@1@$$QAU?$pair@HPAUGAMESHOP_ITEM_DATA@@@1@@Z ; std::_Tree_val<std::_Tmap_traits<int,GAMESHOP_ITEM_DATA *,std::less<int>,std::allocator<std::pair<int const ,GAMESHOP_ITEM_DATA *> >,0> >::_Buynode<std::pair<int,GAMESHOP_ITEM_DATA *> >
  0006e	50		 push	 eax
  0006f	8d 45 f8	 lea	 eax, DWORD PTR $T223331[ebp]
  00072	50		 push	 eax
  00073	8d 4b 18	 lea	 ecx, DWORD PTR [ebx+24]
  00076	e8 00 00 00 00	 call	 ?_Linsert@?$_Tree@V?$_Tmap_traits@HPAUGAMESHOP_ITEM_DATA@@U?$less@H@std@@V?$allocator@U?$pair@$$CBHPAUGAMESHOP_ITEM_DATA@@@std@@@3@$0A@@std@@@std@@QAE?AU?$pair@V?$_Tree_iterator@V?$_Tree_val@V?$_Tmap_traits@HPAUGAMESHOP_ITEM_DATA@@U?$less@H@std@@V?$allocator@U?$pair@$$CBHPAUGAMESHOP_ITEM_DATA@@@std@@@3@$0A@@std@@@std@@@std@@_N@2@PAU_Node@?$_Tree_nod@V?$_Tmap_traits@HPAUGAMESHOP_ITEM_DATA@@U?$less@H@std@@V?$allocator@U?$pair@$$CBHPAUGAMESHOP_ITEM_DATA@@@std@@@3@$0A@@std@@@2@_N@Z ; std::_Tree<std::_Tmap_traits<int,GAMESHOP_ITEM_DATA *,std::less<int>,std::allocator<std::pair<int const ,GAMESHOP_ITEM_DATA *> >,0> >::_Linsert
  0007b	5f		 pop	 edi
  0007c	5e		 pop	 esi
  0007d	5b		 pop	 ebx

; 351  : }

  0007e	8b e5		 mov	 esp, ebp
  00080	5d		 pop	 ebp
  00081	c2 08 00	 ret	 8
?InsertItem@GameShop@@QAEXPAUGAMESHOP_ITEM_DATA@@H@Z ENDP ; GameShop::InsertItem
_TEXT	ENDS
PUBLIC	?InsertPackage@GameShop@@QAEXPAUGAMESHOP_PACKAGE_DATA@@H@Z ; GameShop::InsertPackage
; Function compile flags: /Ogtp
;	COMDAT ?InsertPackage@GameShop@@QAEXPAUGAMESHOP_PACKAGE_DATA@@H@Z
_TEXT	SEGMENT
$T223384 = -8						; size = 8
$T223383 = -8						; size = 8
_lpPackage$ = 8						; size = 4
_Index$ = 12						; size = 4
?InsertPackage@GameShop@@QAEXPAUGAMESHOP_PACKAGE_DATA@@H@Z PROC ; GameShop::InsertPackage, COMDAT
; _this$ = ecx

; 355  : {

  00000	55		 push	 ebp
  00001	8b ec		 mov	 ebp, esp
  00003	83 ec 08	 sub	 esp, 8
  00006	53		 push	 ebx
  00007	56		 push	 esi
  00008	57		 push	 edi

; 356  : 	GAMESHOP_PACKAGE_DATA * lpTempPackage = new GAMESHOP_PACKAGE_DATA;

  00009	68 38 03 00 00	 push	 824			; 00000338H
  0000e	8b d9		 mov	 ebx, ecx
  00010	e8 00 00 00 00	 call	 ??2@YAPAXI@Z		; operator new
  00015	83 c4 04	 add	 esp, 4
  00018	85 c0		 test	 eax, eax
  0001a	74 09		 je	 SHORT $LN3@InsertPack
  0001c	8b c8		 mov	 ecx, eax
  0001e	e8 00 00 00 00	 call	 ??0GAMESHOP_PACKAGE_DATA@@QAE@XZ ; GAMESHOP_PACKAGE_DATA::GAMESHOP_PACKAGE_DATA
  00023	eb 02		 jmp	 SHORT $LN4@InsertPack
$LN3@InsertPack:
  00025	33 c0		 xor	 eax, eax
$LN4@InsertPack:

; 357  : 	memcpy(lpTempPackage, lpPackage, sizeof(GAMESHOP_PACKAGE_DATA));

  00027	8b 75 08	 mov	 esi, DWORD PTR _lpPackage$[ebp]
  0002a	8b f8		 mov	 edi, eax
  0002c	b9 ce 00 00 00	 mov	 ecx, 206		; 000000ceH
  00031	f3 a5		 rep movsd

; 358  : 	this->PackageList.insert(std::pair<int, GAMESHOP_PACKAGE_DATA *>(Index, lpTempPackage));

  00033	8b 4d 0c	 mov	 ecx, DWORD PTR _Index$[ebp]
  00036	6a 00		 push	 0
  00038	8d 55 f8	 lea	 edx, DWORD PTR $T223383[ebp]
  0003b	89 4d f8	 mov	 DWORD PTR $T223383[ebp], ecx
  0003e	52		 push	 edx
  0003f	8d 4b 28	 lea	 ecx, DWORD PTR [ebx+40]
  00042	89 45 fc	 mov	 DWORD PTR $T223383[ebp+4], eax
  00045	e8 00 00 00 00	 call	 ??$_Buynode@U?$pair@HPAUGAMESHOP_PACKAGE_DATA@@@std@@@?$_Tree_val@V?$_Tmap_traits@HPAUGAMESHOP_PACKAGE_DATA@@U?$less@H@std@@V?$allocator@U?$pair@$$CBHPAUGAMESHOP_PACKAGE_DATA@@@std@@@3@$0A@@std@@@std@@QAEPAU_Node@?$_Tree_nod@V?$_Tmap_traits@HPAUGAMESHOP_PACKAGE_DATA@@U?$less@H@std@@V?$allocator@U?$pair@$$CBHPAUGAMESHOP_PACKAGE_DATA@@@std@@@3@$0A@@std@@@1@$$QAU?$pair@HPAUGAMESHOP_PACKAGE_DATA@@@1@@Z ; std::_Tree_val<std::_Tmap_traits<int,GAMESHOP_PACKAGE_DATA *,std::less<int>,std::allocator<std::pair<int const ,GAMESHOP_PACKAGE_DATA *> >,0> >::_Buynode<std::pair<int,GAMESHOP_PACKAGE_DATA *> >
  0004a	50		 push	 eax
  0004b	8d 45 f8	 lea	 eax, DWORD PTR $T223384[ebp]
  0004e	50		 push	 eax
  0004f	8d 4b 28	 lea	 ecx, DWORD PTR [ebx+40]
  00052	e8 00 00 00 00	 call	 ?_Linsert@?$_Tree@V?$_Tmap_traits@HPAUGAMESHOP_PACKAGE_DATA@@U?$less@H@std@@V?$allocator@U?$pair@$$CBHPAUGAMESHOP_PACKAGE_DATA@@@std@@@3@$0A@@std@@@std@@QAE?AU?$pair@V?$_Tree_iterator@V?$_Tree_val@V?$_Tmap_traits@HPAUGAMESHOP_PACKAGE_DATA@@U?$less@H@std@@V?$allocator@U?$pair@$$CBHPAUGAMESHOP_PACKAGE_DATA@@@std@@@3@$0A@@std@@@std@@@std@@_N@2@PAU_Node@?$_Tree_nod@V?$_Tmap_traits@HPAUGAMESHOP_PACKAGE_DATA@@U?$less@H@std@@V?$allocator@U?$pair@$$CBHPAUGAMESHOP_PACKAGE_DATA@@@std@@@3@$0A@@std@@@2@_N@Z ; std::_Tree<std::_Tmap_traits<int,GAMESHOP_PACKAGE_DATA *,std::less<int>,std::allocator<std::pair<int const ,GAMESHOP_PACKAGE_DATA *> >,0> >::_Linsert
  00057	5f		 pop	 edi
  00058	5e		 pop	 esi
  00059	5b		 pop	 ebx

; 359  : }

  0005a	8b e5		 mov	 esp, ebp
  0005c	5d		 pop	 ebp
  0005d	c2 08 00	 ret	 8
?InsertPackage@GameShop@@QAEXPAUGAMESHOP_PACKAGE_DATA@@H@Z ENDP ; GameShop::InsertPackage
_TEXT	ENDS
PUBLIC	_aIndex$GSCopy$
PUBLIC	_this$GSCopy$
PUBLIC	__$ArrayPad$
PUBLIC	?RequestPackageBuy@GameShop@@QAE_NHPAUGAMESHOP_REQ_BUY@@@Z ; GameShop::RequestPackageBuy
; Function compile flags: /Ogtp
;	COMDAT ?RequestPackageBuy@GameShop@@QAE_NHPAUGAMESHOP_REQ_BUY@@@Z
_TEXT	SEGMENT
_pUpdate$212757 = -40					; size = 10
_aIndex$GSCopy$ = -28					; size = 4
tv388 = -24						; size = 4
_this$GSCopy$ = -24					; size = 4
tv441 = -20						; size = 4
tv382 = -20						; size = 4
tv350 = -20						; size = 4
_pBuy$ = -16						; size = 9
__$ArrayPad$ = -4					; size = 4
_aIndex$ = 8						; size = 4
_lpRequest$ = 12					; size = 4
?RequestPackageBuy@GameShop@@QAE_NHPAUGAMESHOP_REQ_BUY@@@Z PROC ; GameShop::RequestPackageBuy, COMDAT
; _this$ = ecx

; 749  : {

  00000	55		 push	 ebp
  00001	8b ec		 mov	 ebp, esp
  00003	83 ec 28	 sub	 esp, 40			; 00000028H
  00006	a1 00 00 00 00	 mov	 eax, DWORD PTR ___security_cookie
  0000b	33 c5		 xor	 eax, ebp
  0000d	89 45 fc	 mov	 DWORD PTR __$ArrayPad$[ebp], eax
  00010	53		 push	 ebx
  00011	8b 5d 08	 mov	 ebx, DWORD PTR _aIndex$[ebp]
  00014	56		 push	 esi

; 750  : #if( GAMESHOP_DEBUG == 1 )
; 751  : 	LogAddC(3, "[DEBUG] [%s] %d %d %d [%d %d]", __FUNCTION__, 
; 752  : 		lpRequest->ItemID, lpRequest->IBSCategory, lpRequest->IBSIndex, lpRequest->IBSPackageID, lpRequest->Unknown18);
; 753  : #endif
; 754  : 	// ----
; 755  : 	LPOBJ lpUser = &gObj[aIndex];

  00015	8b f3		 mov	 esi, ebx
  00017	69 f6 50 2b 00
	00		 imul	 esi, 11088		; 00002b50H
  0001d	03 35 00 00 00
	00		 add	 esi, DWORD PTR ?gObj@@3PAUOBJECTSTRUCT@@A ; gObj
  00023	57		 push	 edi
  00024	8b f9		 mov	 edi, ecx

; 756  : 	// ----
; 757  : 	if( !gObjIsConnected(aIndex) || lpUser->Connected != PLAYER_PLAYING )

  00026	53		 push	 ebx

; 877  : 		{
; 878  : 			this->AddPackageInStorage(aIndex, &lpPackage->Item[i], 0);

  00027	89 7d e8	 mov	 DWORD PTR _this$GSCopy$[ebp], edi
  0002a	89 5d e4	 mov	 DWORD PTR _aIndex$GSCopy$[ebp], ebx
  0002d	e8 00 00 00 00	 call	 ?gObjIsConnected@@YAHH@Z ; gObjIsConnected
  00032	83 c4 04	 add	 esp, 4
  00035	85 c0		 test	 eax, eax
  00037	0f 84 0d 02 00
	00		 je	 $LN29@RequestPac

; 756  : 	// ----
; 757  : 	if( !gObjIsConnected(aIndex) || lpUser->Connected != PLAYER_PLAYING )

  0003d	83 7e 04 03	 cmp	 DWORD PTR [esi+4], 3
  00041	0f 85 03 02 00
	00		 jne	 $LN29@RequestPac

; 758  : 	{
; 759  : 		return false;
; 760  : 	}
; 761  : 	// ----
; 762  : 	GAMESHOP_PACKAGE_DATA * lpPackage = this->GetPackage(lpRequest->IBSPackageID);

  00047	8b 45 0c	 mov	 eax, DWORD PTR _lpRequest$[ebp]
  0004a	8b 48 04	 mov	 ecx, DWORD PTR [eax+4]
  0004d	51		 push	 ecx
  0004e	8b cf		 mov	 ecx, edi
  00050	e8 00 00 00 00	 call	 ?GetPackage@GameShop@@QAEPAUGAMESHOP_PACKAGE_DATA@@H@Z ; GameShop::GetPackage
  00055	8b f8		 mov	 edi, eax

; 763  : 	// ----
; 764  : 	if( !lpPackage )

  00057	85 ff		 test	 edi, edi

; 765  : 	{
; 766  : #if( GAMESHOP_DEBUG == 1 )
; 767  : 	LogAddC(2, "[DEBUG] [%s] Invalid package", __FUNCTION__);
; 768  : #endif
; 769  : 		return false;

  00059	0f 84 eb 01 00
	00		 je	 $LN29@RequestPac

; 770  : 	}
; 771  : 	// ----
; 772  : 	GAMESHOP_ANS_BUY pBuy;
; 773  : 	PHeadSubSetB((LPBYTE)&pBuy, 0xD2, cBuy, sizeof(pBuy));

  0005f	6a 09		 push	 9
  00061	6a 03		 push	 3
  00063	8d 55 f0	 lea	 edx, DWORD PTR _pBuy$[ebp]
  00066	68 d2 00 00 00	 push	 210			; 000000d2H
  0006b	52		 push	 edx
  0006c	e8 00 00 00 00	 call	 ?PHeadSubSetB@@YAXPAEEEH@Z ; PHeadSubSetB

; 774  : 	// ----
; 775  : 	pBuy.Result = true;

  00071	c6 45 f4 01	 mov	 BYTE PTR _pBuy$[ebp+4], 1

; 776  : 	// ----
; 777  : 	switch(lpPackage->PointType)

  00075	0f b6 47 0c	 movzx	 eax, BYTE PTR [edi+12]
  00079	83 c4 10	 add	 esp, 16			; 00000010H
  0007c	83 e8 00	 sub	 eax, 0
  0007f	0f 84 cc 00 00
	00		 je	 $LN25@RequestPac
  00085	48		 dec	 eax
  00086	0f 84 83 00 00
	00		 je	 $LN19@RequestPac
  0008c	48		 dec	 eax
  0008d	0f 85 90 01 00
	00		 jne	 $LN7@RequestPac

; 827  : 				}
; 828  : 			}
; 829  : #else
; 830  : 			if( lpUser->GameShop.WCoinP >= lpPackage->Price )
; 831  : 			{
; 832  : 				lpUser->GameShop.WCoinP	-= lpPackage->Price;
; 833  : 				pBuy.Result = false;
; 834  : 			}
; 835  : #endif
; 836  : 
; 837  : 
; 838  : 		}
; 839  : 		break;
; 840  : 		// --
; 841  : 	case 2:	//-> GoblinPoint
; 842  : 		{
; 843  : 
; 844  : #ifdef PRIVATE_MODULE
; 845  : 			if(g_ZtLicense.CheckUser(SILVER1) || g_ZtLicense.CheckUser(SILVER2))

  00093	6a 07		 push	 7
  00095	b9 00 00 00 00	 mov	 ecx, OFFSET ?g_ZtLicense@@3VCZtLicense@@A ; g_ZtLicense
  0009a	e8 00 00 00 00	 call	 ?CheckUser@CZtLicense@@QAE_NH@Z ; CZtLicense::CheckUser
  0009f	84 c0		 test	 al, al
  000a1	75 39		 jne	 SHORT $LN11@RequestPac
  000a3	6a 08		 push	 8
  000a5	b9 00 00 00 00	 mov	 ecx, OFFSET ?g_ZtLicense@@3VCZtLicense@@A ; g_ZtLicense
  000aa	e8 00 00 00 00	 call	 ?CheckUser@CZtLicense@@QAE_NH@Z ; CZtLicense::CheckUser
  000af	84 c0		 test	 al, al
  000b1	75 29		 jne	 SHORT $LN11@RequestPac

; 851  : 				}
; 852  : 			}
; 853  : 			else
; 854  : 			{
; 855  : 				if( lpUser->GameShop.GoblinPoint >= lpPackage->Price )

  000b3	db 47 08	 fild	 DWORD PTR [edi+8]
  000b6	dc 96 08 23 00
	00		 fcom	 QWORD PTR [esi+8968]
  000bc	df e0		 fnstsw	 ax
  000be	f6 c4 41	 test	 ah, 65			; 00000041H
  000c1	0f 8a d4 00 00
	00		 jp	 $LN53@RequestPac

; 856  : 				{
; 857  : 					lpUser->GameShop.GoblinPoint -= lpPackage->Price;

  000c7	dc ae 08 23 00
	00		 fsubr	 QWORD PTR [esi+8968]
  000cd	dd 9e 08 23 00
	00		 fstp	 QWORD PTR [esi+8968]

; 858  : 					pBuy.Result = false;

  000d3	c6 45 f4 00	 mov	 BYTE PTR _pBuy$[ebp+4], 0
  000d7	e9 cb 00 00 00	 jmp	 $LN35@RequestPac
$LN11@RequestPac:

; 846  : 			{
; 847  : 				if( lpUser->ZtCred >= lpPackage->Price )

  000dc	db 47 08	 fild	 DWORD PTR [edi+8]
  000df	d9 5d ec	 fstp	 DWORD PTR tv350[ebp]
  000e2	d9 86 a8 22 00
	00		 fld	 DWORD PTR [esi+8872]
  000e8	d9 45 ec	 fld	 DWORD PTR tv350[ebp]
  000eb	d8 d1		 fcom	 ST(1)
  000ed	df e0		 fnstsw	 ax
  000ef	dd d9		 fstp	 ST(1)
  000f1	f6 c4 41	 test	 ah, 65			; 00000041H
  000f4	0f 8a a1 00 00
	00		 jp	 $LN53@RequestPac

; 848  : 				{
; 849  : 					lpUser->ZtCred	-= lpPackage->Price;

  000fa	d8 ae a8 22 00
	00		 fsubr	 DWORD PTR [esi+8872]
  00100	d9 9e a8 22 00
	00		 fstp	 DWORD PTR [esi+8872]

; 850  : 					pBuy.Result = false;

  00106	c6 45 f4 00	 mov	 BYTE PTR _pBuy$[ebp+4], 0

; 859  : 				}
; 860  : 			}
; 861  : #else
; 862  : 			if( lpUser->GameShop.GoblinPoint >= lpPackage->Price )
; 863  : 			{
; 864  : 				lpUser->GameShop.GoblinPoint -= lpPackage->Price;
; 865  : 				pBuy.Result = false;
; 866  : 			}
; 867  : #endif
; 868  : 
; 869  : 
; 870  : 		}
; 871  : 		break;

  0010a	e9 98 00 00 00	 jmp	 $LN35@RequestPac
$LN19@RequestPac:

; 797  : 				}
; 798  : 			}
; 799  : #else
; 800  : 			if( lpUser->GameShop.WCoinC >= lpPackage->Price )
; 801  : 			{
; 802  : 				lpUser->GameShop.WCoinC	-= lpPackage->Price;
; 803  : 				pBuy.Result = false;
; 804  : 			}
; 805  : #endif
; 806  : 
; 807  : 		}
; 808  : 		break;
; 809  : 		// --
; 810  : 	case 1:	//-> WCoinP
; 811  : 		{
; 812  : #ifdef PRIVATE_MODULE
; 813  : 		if(g_ZtLicense.CheckUser(SILVER1) || g_ZtLicense.CheckUser(SILVER2))

  0010f	6a 07		 push	 7
  00111	b9 00 00 00 00	 mov	 ecx, OFFSET ?g_ZtLicense@@3VCZtLicense@@A ; g_ZtLicense
  00116	e8 00 00 00 00	 call	 ?CheckUser@CZtLicense@@QAE_NH@Z ; CZtLicense::CheckUser
  0011b	84 c0		 test	 al, al
  0011d	75 bd		 jne	 SHORT $LN11@RequestPac
  0011f	6a 08		 push	 8
  00121	b9 00 00 00 00	 mov	 ecx, OFFSET ?g_ZtLicense@@3VCZtLicense@@A ; g_ZtLicense
  00126	e8 00 00 00 00	 call	 ?CheckUser@CZtLicense@@QAE_NH@Z ; CZtLicense::CheckUser
  0012b	84 c0		 test	 al, al
  0012d	75 ad		 jne	 SHORT $LN11@RequestPac

; 814  : 			{
; 815  : 				if( lpUser->ZtCred >= lpPackage->Price )
; 816  : 				{
; 817  : 					lpUser->ZtCred	-= lpPackage->Price;
; 818  : 					pBuy.Result = false;
; 819  : 				}
; 820  : 			}
; 821  : 			else
; 822  : 			{
; 823  : 				if( lpUser->GameShop.WCoinP >= lpPackage->Price )

  0012f	db 47 08	 fild	 DWORD PTR [edi+8]
  00132	dc 96 f8 22 00
	00		 fcom	 QWORD PTR [esi+8952]
  00138	df e0		 fnstsw	 ax
  0013a	f6 c4 41	 test	 ah, 65			; 00000041H
  0013d	7a 5c		 jp	 SHORT $LN53@RequestPac

; 824  : 				{
; 825  : 					lpUser->GameShop.WCoinP	-= lpPackage->Price;

  0013f	dc ae f8 22 00
	00		 fsubr	 QWORD PTR [esi+8952]
  00145	dd 9e f8 22 00
	00		 fstp	 QWORD PTR [esi+8952]

; 826  : 					pBuy.Result = false;

  0014b	c6 45 f4 00	 mov	 BYTE PTR _pBuy$[ebp+4], 0
  0014f	eb 56		 jmp	 SHORT $LN35@RequestPac
$LN25@RequestPac:

; 778  : 	{
; 779  : 	case 0:	//-> WCoinC
; 780  : 		{
; 781  : 
; 782  : #ifdef PRIVATE_MODULE
; 783  : 			if(g_ZtLicense.CheckUser(SILVER1) || g_ZtLicense.CheckUser(SILVER2))

  00151	6a 07		 push	 7
  00153	b9 00 00 00 00	 mov	 ecx, OFFSET ?g_ZtLicense@@3VCZtLicense@@A ; g_ZtLicense
  00158	e8 00 00 00 00	 call	 ?CheckUser@CZtLicense@@QAE_NH@Z ; CZtLicense::CheckUser
  0015d	84 c0		 test	 al, al
  0015f	0f 85 77 ff ff
	ff		 jne	 $LN11@RequestPac
  00165	6a 08		 push	 8
  00167	b9 00 00 00 00	 mov	 ecx, OFFSET ?g_ZtLicense@@3VCZtLicense@@A ; g_ZtLicense
  0016c	e8 00 00 00 00	 call	 ?CheckUser@CZtLicense@@QAE_NH@Z ; CZtLicense::CheckUser
  00171	84 c0		 test	 al, al
  00173	0f 85 63 ff ff
	ff		 jne	 $LN11@RequestPac

; 784  : 			{
; 785  : 				if( lpUser->ZtCred >= lpPackage->Price )
; 786  : 				{
; 787  : 					lpUser->ZtCred	-= lpPackage->Price;
; 788  : 					pBuy.Result = false;
; 789  : 				}
; 790  : 			}
; 791  : 			else
; 792  : 			{
; 793  : 				if( lpUser->GameShop.WCoinC >= lpPackage->Price )

  00179	db 47 08	 fild	 DWORD PTR [edi+8]
  0017c	dc 96 00 23 00
	00		 fcom	 QWORD PTR [esi+8960]
  00182	df e0		 fnstsw	 ax
  00184	f6 c4 41	 test	 ah, 65			; 00000041H
  00187	7a 12		 jp	 SHORT $LN53@RequestPac

; 794  : 				{
; 795  : 					lpUser->GameShop.WCoinC	-= lpPackage->Price;

  00189	dc ae 00 23 00
	00		 fsubr	 QWORD PTR [esi+8960]
  0018f	dd 9e 00 23 00
	00		 fstp	 QWORD PTR [esi+8960]

; 796  : 					pBuy.Result = false;

  00195	c6 45 f4 00	 mov	 BYTE PTR _pBuy$[ebp+4], 0
  00199	eb 0c		 jmp	 SHORT $LN35@RequestPac
$LN53@RequestPac:

; 872  : 	}
; 873  : 	// ----
; 874  : 	if( !pBuy.Result )

  0019b	80 7d f4 00	 cmp	 BYTE PTR _pBuy$[ebp+4], 0
  0019f	dd d8		 fstp	 ST(0)
  001a1	0f 85 7c 00 00
	00		 jne	 $LN7@RequestPac
$LN35@RequestPac:

; 875  : 	{
; 876  : 		for( int i = 0; i < lpPackage->ItemCount; i++ )

  001a7	33 db		 xor	 ebx, ebx
  001a9	38 5f 14	 cmp	 BYTE PTR [edi+20], bl
  001ac	76 25		 jbe	 SHORT $LN4@RequestPac
  001ae	8d 47 18	 lea	 eax, DWORD PTR [edi+24]
  001b1	89 45 ec	 mov	 DWORD PTR tv441[ebp], eax
$LL36@RequestPac:

; 877  : 		{
; 878  : 			this->AddPackageInStorage(aIndex, &lpPackage->Item[i], 0);

  001b4	8b 4d ec	 mov	 ecx, DWORD PTR tv441[ebp]
  001b7	8b 55 e4	 mov	 edx, DWORD PTR _aIndex$GSCopy$[ebp]
  001ba	6a 00		 push	 0
  001bc	51		 push	 ecx
  001bd	8b 4d e8	 mov	 ecx, DWORD PTR _this$GSCopy$[ebp]
  001c0	52		 push	 edx
  001c1	e8 00 00 00 00	 call	 ?AddPackageInStorage@GameShop@@QAE_NHPAUGAMESHOP_ITEM_DATA@@E@Z ; GameShop::AddPackageInStorage
  001c6	0f b6 47 14	 movzx	 eax, BYTE PTR [edi+20]
  001ca	83 45 ec 28	 add	 DWORD PTR tv441[ebp], 40 ; 00000028H
  001ce	43		 inc	 ebx
  001cf	3b d8		 cmp	 ebx, eax
  001d1	7c e1		 jl	 SHORT $LL36@RequestPac
$LN4@RequestPac:

; 879  : 		}
; 880  : 		// ----
; 881  : 		if( lpPackage->GPBonus )

  001d3	8b 7f 10	 mov	 edi, DWORD PTR [edi+16]
  001d6	89 7d ec	 mov	 DWORD PTR tv382[ebp], edi
  001d9	85 ff		 test	 edi, edi

; 882  : 		{
; 883  : 			lpUser->GameShop.GoblinPoint += lpPackage->GPBonus;

  001db	8b 7d e8	 mov	 edi, DWORD PTR _this$GSCopy$[ebp]
  001de	74 05		 je	 SHORT $LN3@RequestPac
  001e0	db 45 ec	 fild	 DWORD PTR tv382[ebp]
  001e3	eb 0d		 jmp	 SHORT $LN55@RequestPac
$LN3@RequestPac:

; 884  : 		}
; 885  : 		else if( this->OptionData.AddGPBonus )

  001e5	8b 47 14	 mov	 eax, DWORD PTR [edi+20]
  001e8	89 45 e8	 mov	 DWORD PTR tv388[ebp], eax
  001eb	85 c0		 test	 eax, eax
  001ed	74 0f		 je	 SHORT $LN1@RequestPac

; 886  : 		{
; 887  : 			lpUser->GameShop.GoblinPoint += this->OptionData.AddGPBonus;

  001ef	db 45 e8	 fild	 DWORD PTR tv388[ebp]
$LN55@RequestPac:
  001f2	dc 86 08 23 00
	00		 fadd	 QWORD PTR [esi+8968]
  001f8	dd 9e 08 23 00
	00		 fstp	 QWORD PTR [esi+8968]
$LN1@RequestPac:

; 888  : 		}
; 889  : 		// ----
; 890  : 		GAMESHOP_REQ_STORAGE pUpdate;
; 891  : 		pUpdate.StorageType = 0x53;
; 892  : 		// ----
; 893  : 		this->GDSaveUserInfo(aIndex);

  001fe	8b 75 e4	 mov	 esi, DWORD PTR _aIndex$GSCopy$[ebp]
  00201	56		 push	 esi
  00202	8b cf		 mov	 ecx, edi
  00204	c6 45 e0 53	 mov	 BYTE PTR _pUpdate$212757[ebp+8], 83 ; 00000053H
  00208	e8 00 00 00 00	 call	 ?GDSaveUserInfo@GameShop@@QAEXH@Z ; GameShop::GDSaveUserInfo

; 894  : 		this->RequestStorage(aIndex, &pUpdate);

  0020d	8d 4d d8	 lea	 ecx, DWORD PTR _pUpdate$212757[ebp]
  00210	51		 push	 ecx
  00211	56		 push	 esi
  00212	8b cf		 mov	 ecx, edi
  00214	e8 00 00 00 00	 call	 ?RequestStorage@GameShop@@QAEXHPAUGAMESHOP_REQ_STORAGE@@@Z ; GameShop::RequestStorage

; 895  : 		this->RequestPoint(aIndex);

  00219	56		 push	 esi
  0021a	8b cf		 mov	 ecx, edi
  0021c	e8 00 00 00 00	 call	 ?RequestPoint@GameShop@@QAEXH@Z ; GameShop::RequestPoint
  00221	8b de		 mov	 ebx, esi
$LN7@RequestPac:

; 896  : 	}
; 897  : 	// ----
; 898  : 	DataSend(aIndex, (LPBYTE)&pBuy, pBuy.h.size);

  00223	0f b6 55 f1	 movzx	 edx, BYTE PTR _pBuy$[ebp+1]
  00227	52		 push	 edx
  00228	8d 45 f0	 lea	 eax, DWORD PTR _pBuy$[ebp]
  0022b	50		 push	 eax
  0022c	53		 push	 ebx
  0022d	e8 00 00 00 00	 call	 ?DataSend@@YAHHPAEK@Z	; DataSend
  00232	83 c4 0c	 add	 esp, 12			; 0000000cH
  00235	5f		 pop	 edi
  00236	5e		 pop	 esi

; 899  : 	return true;

  00237	b0 01		 mov	 al, 1
  00239	5b		 pop	 ebx

; 900  : }

  0023a	8b 4d fc	 mov	 ecx, DWORD PTR __$ArrayPad$[ebp]
  0023d	33 cd		 xor	 ecx, ebp
  0023f	e8 00 00 00 00	 call	 @__security_check_cookie@4
  00244	8b e5		 mov	 esp, ebp
  00246	5d		 pop	 ebp
  00247	c2 08 00	 ret	 8
$LN29@RequestPac:
  0024a	8b 4d fc	 mov	 ecx, DWORD PTR __$ArrayPad$[ebp]
  0024d	5f		 pop	 edi
  0024e	5e		 pop	 esi
  0024f	33 cd		 xor	 ecx, ebp
  00251	32 c0		 xor	 al, al
  00253	5b		 pop	 ebx
  00254	e8 00 00 00 00	 call	 @__security_check_cookie@4
  00259	8b e5		 mov	 esp, ebp
  0025b	5d		 pop	 ebp
  0025c	c2 08 00	 ret	 8
?RequestPackageBuy@GameShop@@QAE_NHPAUGAMESHOP_REQ_BUY@@@Z ENDP ; GameShop::RequestPackageBuy
_TEXT	ENDS
PUBLIC	?GetItem@GameShop@@QAEPAUGAMESHOP_ITEM_DATA@@FHHH@Z ; GameShop::GetItem
; Function compile flags: /Ogtp
;	COMDAT ?GetItem@GameShop@@QAEPAUGAMESHOP_ITEM_DATA@@FHHH@Z
_TEXT	SEGMENT
_lpItem$ = -4						; size = 4
_ItemID$ = 8						; size = 2
_IBSCategory$ = 12					; size = 4
_IBSIndex$ = 16						; size = 4
_PackageID$ = 20					; size = 4
?GetItem@GameShop@@QAEPAUGAMESHOP_ITEM_DATA@@FHHH@Z PROC ; GameShop::GetItem, COMDAT
; _this$ = ecx

; 1341 : {

  00000	55		 push	 ebp
  00001	8b ec		 mov	 ebp, esp
  00003	51		 push	 ecx
  00004	53		 push	 ebx

; 1342 : 	GAMESHOP_ITEM_DATA * lpItem = NULL;

  00005	33 db		 xor	 ebx, ebx
  00007	56		 push	 esi
  00008	57		 push	 edi
  00009	8b f9		 mov	 edi, ecx
  0000b	89 5d fc	 mov	 DWORD PTR _lpItem$[ebp], ebx

; 1343 : 	std::map<int, GAMESHOP_ITEM_DATA *>::iterator Iter;
; 1344 : 	// ----
; 1345 : 	if( IBSCategory == 0 && PackageID > 0 )

  0000e	39 5d 0c	 cmp	 DWORD PTR _IBSCategory$[ebp], ebx
  00011	75 32		 jne	 SHORT $LN104@GetItem
  00013	8b 45 14	 mov	 eax, DWORD PTR _PackageID$[ebp]
  00016	85 c0		 test	 eax, eax
  00018	7e 2b		 jle	 SHORT $LN104@GetItem

; 1346 : 	{
; 1347 : 		GAMESHOP_PACKAGE_DATA * Package = GetPackage(PackageID);

  0001a	50		 push	 eax
  0001b	e8 00 00 00 00	 call	 ?GetPackage@GameShop@@QAEPAUGAMESHOP_PACKAGE_DATA@@H@Z ; GameShop::GetPackage

; 1348 : 		// ----
; 1349 : 		if( Package )

  00020	85 c0		 test	 eax, eax
  00022	74 21		 je	 SHORT $LN104@GetItem

; 1350 : 		{
; 1351 : 			for( int i = 0; i < Package->ItemCount; i++ )

  00024	0f b6 70 14	 movzx	 esi, BYTE PTR [eax+20]
  00028	33 c9		 xor	 ecx, ecx
  0002a	85 f6		 test	 esi, esi
  0002c	7e 17		 jle	 SHORT $LN104@GetItem
  0002e	8d 50 1a	 lea	 edx, DWORD PTR [eax+26]
$LL9@GetItem:

; 1352 : 			{
; 1353 : 				if( Package->Item[i].ItemID == ItemID )

  00031	66 8b 5d 08	 mov	 bx, WORD PTR _ItemID$[ebp]
  00035	66 39 1a	 cmp	 WORD PTR [edx], bx
  00038	74 54		 je	 SHORT $LN98@GetItem

; 1350 : 		{
; 1351 : 			for( int i = 0; i < Package->ItemCount; i++ )

  0003a	41		 inc	 ecx
  0003b	83 c2 28	 add	 edx, 40			; 00000028H
  0003e	3b ce		 cmp	 ecx, esi
  00040	7c ef		 jl	 SHORT $LL9@GetItem

; 1365 : 		// ----
; 1366 : 		if( ItemID == lpItem->ItemID && IBSCategory == lpItem->IBSCategory && IBSIndex == lpItem->IBSIndex )

  00042	8b 5d fc	 mov	 ebx, DWORD PTR _lpItem$[ebp]
$LN104@GetItem:

; 1356 : 					return lpItem;
; 1357 : 				}
; 1358 : 			}
; 1359 : 		}
; 1360 : 	}
; 1361 : 	// ----
; 1362 : 	for( Iter = this->ItemList.begin(); Iter != this->ItemList.end(); Iter++ )

  00045	8b 7f 1c	 mov	 edi, DWORD PTR [edi+28]
  00048	8b 0f		 mov	 ecx, DWORD PTR [edi]
  0004a	3b cf		 cmp	 ecx, edi
  0004c	74 6d		 je	 SHORT $LN99@GetItem
  0004e	8b 55 10	 mov	 edx, DWORD PTR _IBSIndex$[ebp]
  00051	8b 75 0c	 mov	 esi, DWORD PTR _IBSCategory$[ebp]
$LL42@GetItem:

; 1363 : 	{
; 1364 : 		lpItem = Iter->second;

  00054	8b 59 10	 mov	 ebx, DWORD PTR [ecx+16]

; 1365 : 		// ----
; 1366 : 		if( ItemID == lpItem->ItemID && IBSCategory == lpItem->IBSCategory && IBSIndex == lpItem->IBSIndex )

  00057	66 8b 45 08	 mov	 ax, WORD PTR _ItemID$[ebp]
  0005b	66 3b 43 02	 cmp	 ax, WORD PTR [ebx+2]
  0005f	75 0a		 jne	 SHORT $LN2@GetItem
  00061	3b 73 20	 cmp	 esi, DWORD PTR [ebx+32]
  00064	75 05		 jne	 SHORT $LN2@GetItem
  00066	3b 53 24	 cmp	 edx, DWORD PTR [ebx+36]
  00069	74 50		 je	 SHORT $LN99@GetItem
$LN2@GetItem:

; 1367 : 		{
; 1368 : 			break;
; 1369 : 		}
; 1370 : 		else
; 1371 : 		{
; 1372 : 			lpItem = NULL;

  0006b	33 db		 xor	 ebx, ebx
  0006d	38 59 15	 cmp	 BYTE PTR [ecx+21], bl
  00070	75 45		 jne	 SHORT $LN103@GetItem

; 1356 : 					return lpItem;
; 1357 : 				}
; 1358 : 			}
; 1359 : 		}
; 1360 : 	}
; 1361 : 	// ----
; 1362 : 	for( Iter = this->ItemList.begin(); Iter != this->ItemList.end(); Iter++ )

  00072	8b 41 08	 mov	 eax, DWORD PTR [ecx+8]
  00075	38 58 15	 cmp	 BYTE PTR [eax+21], bl
  00078	75 24		 jne	 SHORT $LN97@GetItem
  0007a	8b c8		 mov	 ecx, eax
  0007c	8b 01		 mov	 eax, DWORD PTR [ecx]
  0007e	38 58 15	 cmp	 BYTE PTR [eax+21], bl
  00081	75 34		 jne	 SHORT $LN103@GetItem
$LL57@GetItem:
  00083	8b c8		 mov	 ecx, eax
  00085	8b 01		 mov	 eax, DWORD PTR [ecx]
  00087	38 58 15	 cmp	 BYTE PTR [eax+21], bl
  0008a	74 f7		 je	 SHORT $LL57@GetItem
  0008c	eb 29		 jmp	 SHORT $LN103@GetItem
$LN98@GetItem:
  0008e	5f		 pop	 edi

; 1354 : 				{
; 1355 : 					lpItem = &Package->Item[i];

  0008f	8d 0c 89	 lea	 ecx, DWORD PTR [ecx+ecx*4]
  00092	5e		 pop	 esi
  00093	8d 44 c8 18	 lea	 eax, DWORD PTR [eax+ecx*8+24]
  00097	5b		 pop	 ebx

; 1378 : }

  00098	8b e5		 mov	 esp, ebp
  0009a	5d		 pop	 ebp
  0009b	c2 10 00	 ret	 16			; 00000010H
$LN97@GetItem:

; 1356 : 					return lpItem;
; 1357 : 				}
; 1358 : 			}
; 1359 : 		}
; 1360 : 	}
; 1361 : 	// ----
; 1362 : 	for( Iter = this->ItemList.begin(); Iter != this->ItemList.end(); Iter++ )

  0009e	8b 41 04	 mov	 eax, DWORD PTR [ecx+4]
  000a1	38 58 15	 cmp	 BYTE PTR [eax+21], bl
  000a4	75 0f		 jne	 SHORT $LN40@GetItem
$LL41@GetItem:
  000a6	3b 48 08	 cmp	 ecx, DWORD PTR [eax+8]
  000a9	75 0a		 jne	 SHORT $LN40@GetItem
  000ab	8b c8		 mov	 ecx, eax
  000ad	8b 40 04	 mov	 eax, DWORD PTR [eax+4]
  000b0	38 58 15	 cmp	 BYTE PTR [eax+21], bl
  000b3	74 f1		 je	 SHORT $LL41@GetItem
$LN40@GetItem:
  000b5	8b c8		 mov	 ecx, eax
$LN103@GetItem:
  000b7	3b cf		 cmp	 ecx, edi
  000b9	75 99		 jne	 SHORT $LL42@GetItem
$LN99@GetItem:
  000bb	5f		 pop	 edi
  000bc	5e		 pop	 esi

; 1373 : 			continue;
; 1374 : 		}
; 1375 : 	}
; 1376 : 	// ----
; 1377 : 	return lpItem;

  000bd	8b c3		 mov	 eax, ebx
  000bf	5b		 pop	 ebx

; 1378 : }

  000c0	8b e5		 mov	 esp, ebp
  000c2	5d		 pop	 ebp
  000c3	c2 10 00	 ret	 16			; 00000010H
?GetItem@GameShop@@QAEPAUGAMESHOP_ITEM_DATA@@FHHH@Z ENDP ; GameShop::GetItem
_TEXT	ENDS
PUBLIC	?GetStorageItem@GameShop@@QAEPAUGAMESHOP_ITEM_DATA@@HHH@Z ; GameShop::GetStorageItem
; Function compile flags: /Ogtp
;	COMDAT ?GetStorageItem@GameShop@@QAEPAUGAMESHOP_ITEM_DATA@@HHH@Z
_TEXT	SEGMENT
_aIndex$ = 8						; size = 4
_AuthIndex$ = 12					; size = 4
_AuthID$ = 16						; size = 4
?GetStorageItem@GameShop@@QAEPAUGAMESHOP_ITEM_DATA@@HHH@Z PROC ; GameShop::GetStorageItem, COMDAT
; _this$ = ecx

; 1382 : {

  00000	55		 push	 ebp
  00001	8b ec		 mov	 ebp, esp

; 1383 : 	GAMESHOP_ITEM_DATA * lpItem = NULL;

  00003	8b 45 0c	 mov	 eax, DWORD PTR _AuthIndex$[ebp]
  00006	53		 push	 ebx
  00007	8b 5d 10	 mov	 ebx, DWORD PTR _AuthID$[ebp]
  0000a	56		 push	 esi

; 1384 : 	LPOBJ lpUser				= &gObj[aIndex];

  0000b	8b 75 08	 mov	 esi, DWORD PTR _aIndex$[ebp]
  0000e	69 f6 50 2b 00
	00		 imul	 esi, 11088		; 00002b50H
  00014	03 35 00 00 00
	00		 add	 esi, DWORD PTR ?gObj@@3PAUOBJECTSTRUCT@@A ; gObj
  0001a	57		 push	 edi

; 1385 : 	// ----
; 1386 : 	for( int i = 0; i < MAX_STORAGE_ITEM; i++ )

  0001b	33 d2		 xor	 edx, edx
  0001d	8d be 14 23 00
	00		 lea	 edi, DWORD PTR [esi+8980]
$LL4@GetStorage:

; 1387 : 	{
; 1388 : 		if( lpUser->GameShop.MainStorage[i].AuthIndex == AuthIndex && lpUser->GameShop.MainStorage[i].AuthID == AuthID)

  00023	39 47 fc	 cmp	 DWORD PTR [edi-4], eax
  00026	75 04		 jne	 SHORT $LN3@GetStorage
  00028	39 1f		 cmp	 DWORD PTR [edi], ebx
  0002a	74 12		 je	 SHORT $LN8@GetStorage
$LN3@GetStorage:

; 1385 : 	// ----
; 1386 : 	for( int i = 0; i < MAX_STORAGE_ITEM; i++ )

  0002c	42		 inc	 edx
  0002d	83 c7 1a	 add	 edi, 26			; 0000001aH
  00030	83 fa 1e	 cmp	 edx, 30			; 0000001eH
  00033	7c ee		 jl	 SHORT $LL4@GetStorage

; 1392 : 			break;
; 1393 : 		}
; 1394 : /*		else if( lpUser->GameShop.GiftStorage[i].AuthIndex == AuthIndex && lpUser->GameShop.GiftStorage[i].AuthID == AuthID)
; 1395 : 		{
; 1396 : 			lpItem = this->GetItem(lpUser->GameShop.GiftStorage[i].ItemID, lpUser->GameShop.GiftStorage[i].IBSCategory, 
; 1397 : 				lpUser->GameShop.GiftStorage[i].IBSIndex, lpUser->GameShop.GiftStorage[i].PackageID);
; 1398 : 			break;
; 1399 : 		}*/
; 1400 : 	}
; 1401 : 	// ----
; 1402 : 	return lpItem;

  00035	5f		 pop	 edi
  00036	5e		 pop	 esi
  00037	33 c0		 xor	 eax, eax
  00039	5b		 pop	 ebx

; 1403 : }

  0003a	5d		 pop	 ebp
  0003b	c2 0c 00	 ret	 12			; 0000000cH
$LN8@GetStorage:

; 1389 : 		{
; 1390 : 			lpItem = this->GetItem(lpUser->GameShop.MainStorage[i].ItemID, lpUser->GameShop.MainStorage[i].IBSCategory, 
; 1391 : 				lpUser->GameShop.MainStorage[i].IBSIndex, lpUser->GameShop.MainStorage[i].PackageID);

  0003e	6b d2 1a	 imul	 edx, 26			; 0000001aH
  00041	8d 04 32	 lea	 eax, DWORD PTR [edx+esi]
  00044	8b 90 26 23 00
	00		 mov	 edx, DWORD PTR [eax+8998]
  0004a	52		 push	 edx
  0004b	8b 90 22 23 00
	00		 mov	 edx, DWORD PTR [eax+8994]
  00051	52		 push	 edx
  00052	8b 90 1e 23 00
	00		 mov	 edx, DWORD PTR [eax+8990]
  00058	0f b7 80 18 23
	00 00		 movzx	 eax, WORD PTR [eax+8984]
  0005f	52		 push	 edx
  00060	50		 push	 eax
  00061	e8 00 00 00 00	 call	 ?GetItem@GameShop@@QAEPAUGAMESHOP_ITEM_DATA@@FHHH@Z ; GameShop::GetItem
  00066	5f		 pop	 edi
  00067	5e		 pop	 esi
  00068	5b		 pop	 ebx

; 1403 : }

  00069	5d		 pop	 ebp
  0006a	c2 0c 00	 ret	 12			; 0000000cH
?GetStorageItem@GameShop@@QAEPAUGAMESHOP_ITEM_DATA@@HHH@Z ENDP ; GameShop::GetStorageItem
_TEXT	ENDS
PUBLIC	??1?$_Tree@V?$_Tmap_traits@HPAUGAMESHOP_ITEM_DATA@@U?$less@H@std@@V?$allocator@U?$pair@$$CBHPAUGAMESHOP_ITEM_DATA@@@std@@@3@$0A@@std@@@std@@QAE@XZ ; std::_Tree<std::_Tmap_traits<int,GAMESHOP_ITEM_DATA *,std::less<int>,std::allocator<std::pair<int const ,GAMESHOP_ITEM_DATA *> >,0> >::~_Tree<std::_Tmap_traits<int,GAMESHOP_ITEM_DATA *,std::less<int>,std::allocator<std::pair<int const ,GAMESHOP_ITEM_DATA *> >,0> >
EXTRN	___CxxFrameHandler3:PROC
;	COMDAT xdata$x
; File d:\program files (x86)\microsoft visual studio 10.0\vc\include\xmemory
xdata$x	SEGMENT
__unwindtable$??1?$_Tree@V?$_Tmap_traits@HPAUGAMESHOP_ITEM_DATA@@U?$less@H@std@@V?$allocator@U?$pair@$$CBHPAUGAMESHOP_ITEM_DATA@@@std@@@3@$0A@@std@@@std@@QAE@XZ DD 0ffffffffH
	DD	FLAT:__unwindfunclet$??1?$_Tree@V?$_Tmap_traits@HPAUGAMESHOP_ITEM_DATA@@U?$less@H@std@@V?$allocator@U?$pair@$$CBHPAUGAMESHOP_ITEM_DATA@@@std@@@3@$0A@@std@@@std@@QAE@XZ$0
__ehfuncinfo$??1?$_Tree@V?$_Tmap_traits@HPAUGAMESHOP_ITEM_DATA@@U?$less@H@std@@V?$allocator@U?$pair@$$CBHPAUGAMESHOP_ITEM_DATA@@@std@@@3@$0A@@std@@@std@@QAE@XZ DD 019930522H
	DD	01H
	DD	FLAT:__unwindtable$??1?$_Tree@V?$_Tmap_traits@HPAUGAMESHOP_ITEM_DATA@@U?$less@H@std@@V?$allocator@U?$pair@$$CBHPAUGAMESHOP_ITEM_DATA@@@std@@@3@$0A@@std@@@std@@QAE@XZ
	DD	2 DUP(00H)
	DD	2 DUP(00H)
	DD	00H
	DD	01H
; Function compile flags: /Ogtp
; File d:\program files (x86)\microsoft visual studio 10.0\vc\include\xtree
xdata$x	ENDS
;	COMDAT ??1?$_Tree@V?$_Tmap_traits@HPAUGAMESHOP_ITEM_DATA@@U?$less@H@std@@V?$allocator@U?$pair@$$CBHPAUGAMESHOP_ITEM_DATA@@@std@@@3@$0A@@std@@@std@@QAE@XZ
_TEXT	SEGMENT
$T223901 = -20						; size = 4
_this$ = -16						; size = 4
__$EHRec$ = -12						; size = 12
??1?$_Tree@V?$_Tmap_traits@HPAUGAMESHOP_ITEM_DATA@@U?$less@H@std@@V?$allocator@U?$pair@$$CBHPAUGAMESHOP_ITEM_DATA@@@std@@@3@$0A@@std@@@std@@QAE@XZ PROC ; std::_Tree<std::_Tmap_traits<int,GAMESHOP_ITEM_DATA *,std::less<int>,std::allocator<std::pair<int const ,GAMESHOP_ITEM_DATA *> >,0> >::~_Tree<std::_Tmap_traits<int,GAMESHOP_ITEM_DATA *,std::less<int>,std::allocator<std::pair<int const ,GAMESHOP_ITEM_DATA *> >,0> >, COMDAT
; _this$ = ecx

; 790  : 		{	// destroy tree

  00000	55		 push	 ebp
  00001	8b ec		 mov	 ebp, esp
  00003	6a ff		 push	 -1
  00005	68 00 00 00 00	 push	 __ehhandler$??1?$_Tree@V?$_Tmap_traits@HPAUGAMESHOP_ITEM_DATA@@U?$less@H@std@@V?$allocator@U?$pair@$$CBHPAUGAMESHOP_ITEM_DATA@@@std@@@3@$0A@@std@@@std@@QAE@XZ
  0000a	64 a1 00 00 00
	00		 mov	 eax, DWORD PTR fs:0
  00010	50		 push	 eax
  00011	83 ec 08	 sub	 esp, 8
  00014	56		 push	 esi
  00015	a1 00 00 00 00	 mov	 eax, DWORD PTR ___security_cookie
  0001a	33 c5		 xor	 eax, ebp
  0001c	50		 push	 eax
  0001d	8d 45 f4	 lea	 eax, DWORD PTR __$EHRec$[ebp]
  00020	64 a3 00 00 00
	00		 mov	 DWORD PTR fs:0, eax
  00026	8b f1		 mov	 esi, ecx
  00028	89 75 f0	 mov	 DWORD PTR _this$[ebp], esi

; 791  : 		_Tidy();

  0002b	8b 46 04	 mov	 eax, DWORD PTR [esi+4]
  0002e	8b 08		 mov	 ecx, DWORD PTR [eax]
  00030	50		 push	 eax
  00031	51		 push	 ecx
  00032	8d 45 ec	 lea	 eax, DWORD PTR $T223901[ebp]
  00035	50		 push	 eax
  00036	8b ce		 mov	 ecx, esi
  00038	c7 45 fc 00 00
	00 00		 mov	 DWORD PTR __$EHRec$[ebp+8], 0
  0003f	e8 00 00 00 00	 call	 ?erase@?$_Tree@V?$_Tmap_traits@HPAUGAMESHOP_ITEM_DATA@@U?$less@H@std@@V?$allocator@U?$pair@$$CBHPAUGAMESHOP_ITEM_DATA@@@std@@@3@$0A@@std@@@std@@QAE?AV?$_Tree_iterator@V?$_Tree_val@V?$_Tmap_traits@HPAUGAMESHOP_ITEM_DATA@@U?$less@H@std@@V?$allocator@U?$pair@$$CBHPAUGAMESHOP_ITEM_DATA@@@std@@@3@$0A@@std@@@std@@@2@V?$_Tree_const_iterator@V?$_Tree_val@V?$_Tmap_traits@HPAUGAMESHOP_ITEM_DATA@@U?$less@H@std@@V?$allocator@U?$pair@$$CBHPAUGAMESHOP_ITEM_DATA@@@std@@@3@$0A@@std@@@std@@@2@0@Z ; std::_Tree<std::_Tmap_traits<int,GAMESHOP_ITEM_DATA *,std::less<int>,std::allocator<std::pair<int const ,GAMESHOP_ITEM_DATA *> >,0> >::erase

; 792  : 		}

  00044	8b 4e 04	 mov	 ecx, DWORD PTR [esi+4]
  00047	51		 push	 ecx
  00048	e8 00 00 00 00	 call	 ??3@YAXPAX@Z		; operator delete
  0004d	83 c4 04	 add	 esp, 4
  00050	8b 4d f4	 mov	 ecx, DWORD PTR __$EHRec$[ebp]
  00053	64 89 0d 00 00
	00 00		 mov	 DWORD PTR fs:0, ecx
  0005a	59		 pop	 ecx
  0005b	5e		 pop	 esi
  0005c	8b e5		 mov	 esp, ebp
  0005e	5d		 pop	 ebp
  0005f	c3		 ret	 0
_TEXT	ENDS
;	COMDAT text$x
text$x	SEGMENT
__unwindfunclet$??1?$_Tree@V?$_Tmap_traits@HPAUGAMESHOP_ITEM_DATA@@U?$less@H@std@@V?$allocator@U?$pair@$$CBHPAUGAMESHOP_ITEM_DATA@@@std@@@3@$0A@@std@@@std@@QAE@XZ$0:
  00000	8b 4d f0	 mov	 ecx, DWORD PTR _this$[ebp]
  00003	e9 00 00 00 00	 jmp	 ??1?$_Tree_val@V?$_Tmap_traits@HPAUGAMESHOP_ITEM_DATA@@U?$less@H@std@@V?$allocator@U?$pair@$$CBHPAUGAMESHOP_ITEM_DATA@@@std@@@3@$0A@@std@@@std@@QAE@XZ ; std::_Tree_val<std::_Tmap_traits<int,GAMESHOP_ITEM_DATA *,std::less<int>,std::allocator<std::pair<int const ,GAMESHOP_ITEM_DATA *> >,0> >::~_Tree_val<std::_Tmap_traits<int,GAMESHOP_ITEM_DATA *,std::less<int>,std::allocator<std::pair<int const ,GAMESHOP_ITEM_DATA *> >,0> >
__ehhandler$??1?$_Tree@V?$_Tmap_traits@HPAUGAMESHOP_ITEM_DATA@@U?$less@H@std@@V?$allocator@U?$pair@$$CBHPAUGAMESHOP_ITEM_DATA@@@std@@@3@$0A@@std@@@std@@QAE@XZ:
  00008	8b 54 24 08	 mov	 edx, DWORD PTR [esp+8]
  0000c	8d 42 0c	 lea	 eax, DWORD PTR [edx+12]
  0000f	8b 4a f0	 mov	 ecx, DWORD PTR [edx-16]
  00012	33 c8		 xor	 ecx, eax
  00014	e8 00 00 00 00	 call	 @__security_check_cookie@4
  00019	b8 00 00 00 00	 mov	 eax, OFFSET __ehfuncinfo$??1?$_Tree@V?$_Tmap_traits@HPAUGAMESHOP_ITEM_DATA@@U?$less@H@std@@V?$allocator@U?$pair@$$CBHPAUGAMESHOP_ITEM_DATA@@@std@@@3@$0A@@std@@@std@@QAE@XZ
  0001e	e9 00 00 00 00	 jmp	 ___CxxFrameHandler3
text$x	ENDS
??1?$_Tree@V?$_Tmap_traits@HPAUGAMESHOP_ITEM_DATA@@U?$less@H@std@@V?$allocator@U?$pair@$$CBHPAUGAMESHOP_ITEM_DATA@@@std@@@3@$0A@@std@@@std@@QAE@XZ ENDP ; std::_Tree<std::_Tmap_traits<int,GAMESHOP_ITEM_DATA *,std::less<int>,std::allocator<std::pair<int const ,GAMESHOP_ITEM_DATA *> >,0> >::~_Tree<std::_Tmap_traits<int,GAMESHOP_ITEM_DATA *,std::less<int>,std::allocator<std::pair<int const ,GAMESHOP_ITEM_DATA *> >,0> >
PUBLIC	??1?$_Tree@V?$_Tmap_traits@HPAUGAMESHOP_PACKAGE_DATA@@U?$less@H@std@@V?$allocator@U?$pair@$$CBHPAUGAMESHOP_PACKAGE_DATA@@@std@@@3@$0A@@std@@@std@@QAE@XZ ; std::_Tree<std::_Tmap_traits<int,GAMESHOP_PACKAGE_DATA *,std::less<int>,std::allocator<std::pair<int const ,GAMESHOP_PACKAGE_DATA *> >,0> >::~_Tree<std::_Tmap_traits<int,GAMESHOP_PACKAGE_DATA *,std::less<int>,std::allocator<std::pair<int const ,GAMESHOP_PACKAGE_DATA *> >,0> >
;	COMDAT xdata$x
; File d:\program files (x86)\microsoft visual studio 10.0\vc\include\xmemory
xdata$x	SEGMENT
__unwindtable$??1?$_Tree@V?$_Tmap_traits@HPAUGAMESHOP_PACKAGE_DATA@@U?$less@H@std@@V?$allocator@U?$pair@$$CBHPAUGAMESHOP_PACKAGE_DATA@@@std@@@3@$0A@@std@@@std@@QAE@XZ DD 0ffffffffH
	DD	FLAT:__unwindfunclet$??1?$_Tree@V?$_Tmap_traits@HPAUGAMESHOP_PACKAGE_DATA@@U?$less@H@std@@V?$allocator@U?$pair@$$CBHPAUGAMESHOP_PACKAGE_DATA@@@std@@@3@$0A@@std@@@std@@QAE@XZ$0
__ehfuncinfo$??1?$_Tree@V?$_Tmap_traits@HPAUGAMESHOP_PACKAGE_DATA@@U?$less@H@std@@V?$allocator@U?$pair@$$CBHPAUGAMESHOP_PACKAGE_DATA@@@std@@@3@$0A@@std@@@std@@QAE@XZ DD 019930522H
	DD	01H
	DD	FLAT:__unwindtable$??1?$_Tree@V?$_Tmap_traits@HPAUGAMESHOP_PACKAGE_DATA@@U?$less@H@std@@V?$allocator@U?$pair@$$CBHPAUGAMESHOP_PACKAGE_DATA@@@std@@@3@$0A@@std@@@std@@QAE@XZ
	DD	2 DUP(00H)
	DD	2 DUP(00H)
	DD	00H
	DD	01H
; Function compile flags: /Ogtp
; File d:\program files (x86)\microsoft visual studio 10.0\vc\include\xtree
xdata$x	ENDS
;	COMDAT ??1?$_Tree@V?$_Tmap_traits@HPAUGAMESHOP_PACKAGE_DATA@@U?$less@H@std@@V?$allocator@U?$pair@$$CBHPAUGAMESHOP_PACKAGE_DATA@@@std@@@3@$0A@@std@@@std@@QAE@XZ
_TEXT	SEGMENT
$T224042 = -20						; size = 4
_this$ = -16						; size = 4
__$EHRec$ = -12						; size = 12
??1?$_Tree@V?$_Tmap_traits@HPAUGAMESHOP_PACKAGE_DATA@@U?$less@H@std@@V?$allocator@U?$pair@$$CBHPAUGAMESHOP_PACKAGE_DATA@@@std@@@3@$0A@@std@@@std@@QAE@XZ PROC ; std::_Tree<std::_Tmap_traits<int,GAMESHOP_PACKAGE_DATA *,std::less<int>,std::allocator<std::pair<int const ,GAMESHOP_PACKAGE_DATA *> >,0> >::~_Tree<std::_Tmap_traits<int,GAMESHOP_PACKAGE_DATA *,std::less<int>,std::allocator<std::pair<int const ,GAMESHOP_PACKAGE_DATA *> >,0> >, COMDAT
; _this$ = ecx

; 790  : 		{	// destroy tree

  00000	55		 push	 ebp
  00001	8b ec		 mov	 ebp, esp
  00003	6a ff		 push	 -1
  00005	68 00 00 00 00	 push	 __ehhandler$??1?$_Tree@V?$_Tmap_traits@HPAUGAMESHOP_PACKAGE_DATA@@U?$less@H@std@@V?$allocator@U?$pair@$$CBHPAUGAMESHOP_PACKAGE_DATA@@@std@@@3@$0A@@std@@@std@@QAE@XZ
  0000a	64 a1 00 00 00
	00		 mov	 eax, DWORD PTR fs:0
  00010	50		 push	 eax
  00011	83 ec 08	 sub	 esp, 8
  00014	56		 push	 esi
  00015	a1 00 00 00 00	 mov	 eax, DWORD PTR ___security_cookie
  0001a	33 c5		 xor	 eax, ebp
  0001c	50		 push	 eax
  0001d	8d 45 f4	 lea	 eax, DWORD PTR __$EHRec$[ebp]
  00020	64 a3 00 00 00
	00		 mov	 DWORD PTR fs:0, eax
  00026	8b f1		 mov	 esi, ecx
  00028	89 75 f0	 mov	 DWORD PTR _this$[ebp], esi

; 791  : 		_Tidy();

  0002b	8b 46 04	 mov	 eax, DWORD PTR [esi+4]
  0002e	8b 08		 mov	 ecx, DWORD PTR [eax]
  00030	50		 push	 eax
  00031	51		 push	 ecx
  00032	8d 45 ec	 lea	 eax, DWORD PTR $T224042[ebp]
  00035	50		 push	 eax
  00036	8b ce		 mov	 ecx, esi
  00038	c7 45 fc 00 00
	00 00		 mov	 DWORD PTR __$EHRec$[ebp+8], 0
  0003f	e8 00 00 00 00	 call	 ?erase@?$_Tree@V?$_Tmap_traits@HPAUGAMESHOP_PACKAGE_DATA@@U?$less@H@std@@V?$allocator@U?$pair@$$CBHPAUGAMESHOP_PACKAGE_DATA@@@std@@@3@$0A@@std@@@std@@QAE?AV?$_Tree_iterator@V?$_Tree_val@V?$_Tmap_traits@HPAUGAMESHOP_PACKAGE_DATA@@U?$less@H@std@@V?$allocator@U?$pair@$$CBHPAUGAMESHOP_PACKAGE_DATA@@@std@@@3@$0A@@std@@@std@@@2@V?$_Tree_const_iterator@V?$_Tree_val@V?$_Tmap_traits@HPAUGAMESHOP_PACKAGE_DATA@@U?$less@H@std@@V?$allocator@U?$pair@$$CBHPAUGAMESHOP_PACKAGE_DATA@@@std@@@3@$0A@@std@@@std@@@2@0@Z ; std::_Tree<std::_Tmap_traits<int,GAMESHOP_PACKAGE_DATA *,std::less<int>,std::allocator<std::pair<int const ,GAMESHOP_PACKAGE_DATA *> >,0> >::erase

; 792  : 		}

  00044	8b 4e 04	 mov	 ecx, DWORD PTR [esi+4]
  00047	51		 push	 ecx
  00048	e8 00 00 00 00	 call	 ??3@YAXPAX@Z		; operator delete
  0004d	83 c4 04	 add	 esp, 4
  00050	8b 4d f4	 mov	 ecx, DWORD PTR __$EHRec$[ebp]
  00053	64 89 0d 00 00
	00 00		 mov	 DWORD PTR fs:0, ecx
  0005a	59		 pop	 ecx
  0005b	5e		 pop	 esi
  0005c	8b e5		 mov	 esp, ebp
  0005e	5d		 pop	 ebp
  0005f	c3		 ret	 0
_TEXT	ENDS
;	COMDAT text$x
text$x	SEGMENT
__unwindfunclet$??1?$_Tree@V?$_Tmap_traits@HPAUGAMESHOP_PACKAGE_DATA@@U?$less@H@std@@V?$allocator@U?$pair@$$CBHPAUGAMESHOP_PACKAGE_DATA@@@std@@@3@$0A@@std@@@std@@QAE@XZ$0:
  00000	8b 4d f0	 mov	 ecx, DWORD PTR _this$[ebp]
  00003	e9 00 00 00 00	 jmp	 ??1?$_Tree_val@V?$_Tmap_traits@HPAUGAMESHOP_PACKAGE_DATA@@U?$less@H@std@@V?$allocator@U?$pair@$$CBHPAUGAMESHOP_PACKAGE_DATA@@@std@@@3@$0A@@std@@@std@@QAE@XZ ; std::_Tree_val<std::_Tmap_traits<int,GAMESHOP_PACKAGE_DATA *,std::less<int>,std::allocator<std::pair<int const ,GAMESHOP_PACKAGE_DATA *> >,0> >::~_Tree_val<std::_Tmap_traits<int,GAMESHOP_PACKAGE_DATA *,std::less<int>,std::allocator<std::pair<int const ,GAMESHOP_PACKAGE_DATA *> >,0> >
__ehhandler$??1?$_Tree@V?$_Tmap_traits@HPAUGAMESHOP_PACKAGE_DATA@@U?$less@H@std@@V?$allocator@U?$pair@$$CBHPAUGAMESHOP_PACKAGE_DATA@@@std@@@3@$0A@@std@@@std@@QAE@XZ:
  00008	8b 54 24 08	 mov	 edx, DWORD PTR [esp+8]
  0000c	8d 42 0c	 lea	 eax, DWORD PTR [edx+12]
  0000f	8b 4a f0	 mov	 ecx, DWORD PTR [edx-16]
  00012	33 c8		 xor	 ecx, eax
  00014	e8 00 00 00 00	 call	 @__security_check_cookie@4
  00019	b8 00 00 00 00	 mov	 eax, OFFSET __ehfuncinfo$??1?$_Tree@V?$_Tmap_traits@HPAUGAMESHOP_PACKAGE_DATA@@U?$less@H@std@@V?$allocator@U?$pair@$$CBHPAUGAMESHOP_PACKAGE_DATA@@@std@@@3@$0A@@std@@@std@@QAE@XZ
  0001e	e9 00 00 00 00	 jmp	 ___CxxFrameHandler3
text$x	ENDS
??1?$_Tree@V?$_Tmap_traits@HPAUGAMESHOP_PACKAGE_DATA@@U?$less@H@std@@V?$allocator@U?$pair@$$CBHPAUGAMESHOP_PACKAGE_DATA@@@std@@@3@$0A@@std@@@std@@QAE@XZ ENDP ; std::_Tree<std::_Tmap_traits<int,GAMESHOP_PACKAGE_DATA *,std::less<int>,std::allocator<std::pair<int const ,GAMESHOP_PACKAGE_DATA *> >,0> >::~_Tree<std::_Tmap_traits<int,GAMESHOP_PACKAGE_DATA *,std::less<int>,std::allocator<std::pair<int const ,GAMESHOP_PACKAGE_DATA *> >,0> >
PUBLIC	??$insert@U?$pair@$$CBHPAUGAMESHOP_PACKAGE_DATA@@@std@@@?$_Tree@V?$_Tmap_traits@HPAUGAMESHOP_PACKAGE_DATA@@U?$less@H@std@@V?$allocator@U?$pair@$$CBHPAUGAMESHOP_PACKAGE_DATA@@@std@@@3@$0A@@std@@@std@@QAE?AV?$_Tree_iterator@V?$_Tree_val@V?$_Tmap_traits@HPAUGAMESHOP_PACKAGE_DATA@@U?$less@H@std@@V?$allocator@U?$pair@$$CBHPAUGAMESHOP_PACKAGE_DATA@@@std@@@3@$0A@@std@@@std@@@1@V?$_Tree_const_iterator@V?$_Tree_val@V?$_Tmap_traits@HPAUGAMESHOP_PACKAGE_DATA@@U?$less@H@std@@V?$allocator@U?$pair@$$CBHPAUGAMESHOP_PACKAGE_DATA@@@std@@@3@$0A@@std@@@std@@@1@$$QAU?$pair@$$CBHPAUGAMESHOP_PACKAGE_DATA@@@1@@Z ; std::_Tree<std::_Tmap_traits<int,GAMESHOP_PACKAGE_DATA *,std::less<int>,std::allocator<std::pair<int const ,GAMESHOP_PACKAGE_DATA *> >,0> >::insert<std::pair<int const ,GAMESHOP_PACKAGE_DATA *> >
; Function compile flags: /Ogtp
;	COMDAT ??$insert@U?$pair@$$CBHPAUGAMESHOP_PACKAGE_DATA@@@std@@@?$_Tree@V?$_Tmap_traits@HPAUGAMESHOP_PACKAGE_DATA@@U?$less@H@std@@V?$allocator@U?$pair@$$CBHPAUGAMESHOP_PACKAGE_DATA@@@std@@@3@$0A@@std@@@std@@QAE?AV?$_Tree_iterator@V?$_Tree_val@V?$_Tmap_traits@HPAUGAMESHOP_PACKAGE_DATA@@U?$less@H@std@@V?$allocator@U?$pair@$$CBHPAUGAMESHOP_PACKAGE_DATA@@@std@@@3@$0A@@std@@@std@@@1@V?$_Tree_const_iterator@V?$_Tree_val@V?$_Tmap_traits@HPAUGAMESHOP_PACKAGE_DATA@@U?$less@H@std@@V?$allocator@U?$pair@$$CBHPAUGAMESHOP_PACKAGE_DATA@@@std@@@3@$0A@@std@@@std@@@1@$$QAU?$pair@$$CBHPAUGAMESHOP_PACKAGE_DATA@@@1@@Z
_TEXT	SEGMENT
___$ReturnUdt$ = 8					; size = 4
__Where$ = 12						; size = 4
__Val$ = 16						; size = 4
??$insert@U?$pair@$$CBHPAUGAMESHOP_PACKAGE_DATA@@@std@@@?$_Tree@V?$_Tmap_traits@HPAUGAMESHOP_PACKAGE_DATA@@U?$less@H@std@@V?$allocator@U?$pair@$$CBHPAUGAMESHOP_PACKAGE_DATA@@@std@@@3@$0A@@std@@@std@@QAE?AV?$_Tree_iterator@V?$_Tree_val@V?$_Tmap_traits@HPAUGAMESHOP_PACKAGE_DATA@@U?$less@H@std@@V?$allocator@U?$pair@$$CBHPAUGAMESHOP_PACKAGE_DATA@@@std@@@3@$0A@@std@@@std@@@1@V?$_Tree_const_iterator@V?$_Tree_val@V?$_Tmap_traits@HPAUGAMESHOP_PACKAGE_DATA@@U?$less@H@std@@V?$allocator@U?$pair@$$CBHPAUGAMESHOP_PACKAGE_DATA@@@std@@@3@$0A@@std@@@std@@@1@$$QAU?$pair@$$CBHPAUGAMESHOP_PACKAGE_DATA@@@1@@Z PROC ; std::_Tree<std::_Tmap_traits<int,GAMESHOP_PACKAGE_DATA *,std::less<int>,std::allocator<std::pair<int const ,GAMESHOP_PACKAGE_DATA *> >,0> >::insert<std::pair<int const ,GAMESHOP_PACKAGE_DATA *> >, COMDAT
; _this$ = ecx

; 760  : 		typename _STD tr1::enable_if<!_STD tr1::is_same<const_iterator,

  00000	55		 push	 ebp
  00001	8b ec		 mov	 ebp, esp

; 761  : 			typename _STD tr1::remove_reference<_Valty>::type>::value,
; 762  : 				iterator>::type
; 763  : 		insert(const_iterator _Where,
; 764  : 			_Valty&& _Val)
; 765  : 		{	// try to insert node with value _Val using _Where as a hint
; 766  : 		return (_Insert(_Where,
; 767  : 			this->_Buynode(_STD forward<_Valty>(_Val))));

  00003	8b 45 10	 mov	 eax, DWORD PTR __Val$[ebp]
  00006	56		 push	 esi
  00007	57		 push	 edi
  00008	50		 push	 eax
  00009	8b f1		 mov	 esi, ecx
  0000b	e8 00 00 00 00	 call	 ??$_Buynode@U?$pair@$$CBHPAUGAMESHOP_PACKAGE_DATA@@@std@@@?$_Tree_val@V?$_Tmap_traits@HPAUGAMESHOP_PACKAGE_DATA@@U?$less@H@std@@V?$allocator@U?$pair@$$CBHPAUGAMESHOP_PACKAGE_DATA@@@std@@@3@$0A@@std@@@std@@QAEPAU_Node@?$_Tree_nod@V?$_Tmap_traits@HPAUGAMESHOP_PACKAGE_DATA@@U?$less@H@std@@V?$allocator@U?$pair@$$CBHPAUGAMESHOP_PACKAGE_DATA@@@std@@@3@$0A@@std@@@1@$$QAU?$pair@$$CBHPAUGAMESHOP_PACKAGE_DATA@@@1@@Z ; std::_Tree_val<std::_Tmap_traits<int,GAMESHOP_PACKAGE_DATA *,std::less<int>,std::allocator<std::pair<int const ,GAMESHOP_PACKAGE_DATA *> >,0> >::_Buynode<std::pair<int const ,GAMESHOP_PACKAGE_DATA *> >
  00010	8b 4d 0c	 mov	 ecx, DWORD PTR __Where$[ebp]
  00013	8b 7d 08	 mov	 edi, DWORD PTR ___$ReturnUdt$[ebp]
  00016	50		 push	 eax
  00017	51		 push	 ecx
  00018	57		 push	 edi
  00019	8b ce		 mov	 ecx, esi
  0001b	e8 00 00 00 00	 call	 ?_Insert@?$_Tree@V?$_Tmap_traits@HPAUGAMESHOP_PACKAGE_DATA@@U?$less@H@std@@V?$allocator@U?$pair@$$CBHPAUGAMESHOP_PACKAGE_DATA@@@std@@@3@$0A@@std@@@std@@QAE?AV?$_Tree_iterator@V?$_Tree_val@V?$_Tmap_traits@HPAUGAMESHOP_PACKAGE_DATA@@U?$less@H@std@@V?$allocator@U?$pair@$$CBHPAUGAMESHOP_PACKAGE_DATA@@@std@@@3@$0A@@std@@@std@@@2@V?$_Tree_const_iterator@V?$_Tree_val@V?$_Tmap_traits@HPAUGAMESHOP_PACKAGE_DATA@@U?$less@H@std@@V?$allocator@U?$pair@$$CBHPAUGAMESHOP_PACKAGE_DATA@@@std@@@3@$0A@@std@@@std@@@2@PAU_Node@?$_Tree_nod@V?$_Tmap_traits@HPAUGAMESHOP_PACKAGE_DATA@@U?$less@H@std@@V?$allocator@U?$pair@$$CBHPAUGAMESHOP_PACKAGE_DATA@@@std@@@3@$0A@@std@@@2@@Z ; std::_Tree<std::_Tmap_traits<int,GAMESHOP_PACKAGE_DATA *,std::less<int>,std::allocator<std::pair<int const ,GAMESHOP_PACKAGE_DATA *> >,0> >::_Insert
  00020	8b c7		 mov	 eax, edi
  00022	5f		 pop	 edi
  00023	5e		 pop	 esi

; 768  : 		}

  00024	5d		 pop	 ebp
  00025	c2 0c 00	 ret	 12			; 0000000cH
??$insert@U?$pair@$$CBHPAUGAMESHOP_PACKAGE_DATA@@@std@@@?$_Tree@V?$_Tmap_traits@HPAUGAMESHOP_PACKAGE_DATA@@U?$less@H@std@@V?$allocator@U?$pair@$$CBHPAUGAMESHOP_PACKAGE_DATA@@@std@@@3@$0A@@std@@@std@@QAE?AV?$_Tree_iterator@V?$_Tree_val@V?$_Tmap_traits@HPAUGAMESHOP_PACKAGE_DATA@@U?$less@H@std@@V?$allocator@U?$pair@$$CBHPAUGAMESHOP_PACKAGE_DATA@@@std@@@3@$0A@@std@@@std@@@1@V?$_Tree_const_iterator@V?$_Tree_val@V?$_Tmap_traits@HPAUGAMESHOP_PACKAGE_DATA@@U?$less@H@std@@V?$allocator@U?$pair@$$CBHPAUGAMESHOP_PACKAGE_DATA@@@std@@@3@$0A@@std@@@std@@@1@$$QAU?$pair@$$CBHPAUGAMESHOP_PACKAGE_DATA@@@1@@Z ENDP ; std::_Tree<std::_Tmap_traits<int,GAMESHOP_PACKAGE_DATA *,std::less<int>,std::allocator<std::pair<int const ,GAMESHOP_PACKAGE_DATA *> >,0> >::insert<std::pair<int const ,GAMESHOP_PACKAGE_DATA *> >
_TEXT	ENDS
PUBLIC	??1?$map@HPAUGAMESHOP_ITEM_DATA@@U?$less@H@std@@V?$allocator@U?$pair@$$CBHPAUGAMESHOP_ITEM_DATA@@@std@@@3@@std@@QAE@XZ ; std::map<int,GAMESHOP_ITEM_DATA *,std::less<int>,std::allocator<std::pair<int const ,GAMESHOP_ITEM_DATA *> > >::~map<int,GAMESHOP_ITEM_DATA *,std::less<int>,std::allocator<std::pair<int const ,GAMESHOP_ITEM_DATA *> > >
;	COMDAT xdata$x
xdata$x	SEGMENT
__unwindtable$??1?$map@HPAUGAMESHOP_ITEM_DATA@@U?$less@H@std@@V?$allocator@U?$pair@$$CBHPAUGAMESHOP_ITEM_DATA@@@std@@@3@@std@@QAE@XZ DD 0ffffffffH
	DD	FLAT:__unwindfunclet$??1?$map@HPAUGAMESHOP_ITEM_DATA@@U?$less@H@std@@V?$allocator@U?$pair@$$CBHPAUGAMESHOP_ITEM_DATA@@@std@@@3@@std@@QAE@XZ$1
__ehfuncinfo$??1?$map@HPAUGAMESHOP_ITEM_DATA@@U?$less@H@std@@V?$allocator@U?$pair@$$CBHPAUGAMESHOP_ITEM_DATA@@@std@@@3@@std@@QAE@XZ DD 019930522H
	DD	01H
	DD	FLAT:__unwindtable$??1?$map@HPAUGAMESHOP_ITEM_DATA@@U?$less@H@std@@V?$allocator@U?$pair@$$CBHPAUGAMESHOP_ITEM_DATA@@@std@@@3@@std@@QAE@XZ
	DD	2 DUP(00H)
	DD	2 DUP(00H)
	DD	00H
	DD	01H
; Function compile flags: /Ogtp
xdata$x	ENDS
;	COMDAT ??1?$map@HPAUGAMESHOP_ITEM_DATA@@U?$less@H@std@@V?$allocator@U?$pair@$$CBHPAUGAMESHOP_ITEM_DATA@@@std@@@3@@std@@QAE@XZ
_TEXT	SEGMENT
$T224231 = -20						; size = 4
_this$ = -16						; size = 4
__$EHRec$ = -12						; size = 12
??1?$map@HPAUGAMESHOP_ITEM_DATA@@U?$less@H@std@@V?$allocator@U?$pair@$$CBHPAUGAMESHOP_ITEM_DATA@@@std@@@3@@std@@QAE@XZ PROC ; std::map<int,GAMESHOP_ITEM_DATA *,std::less<int>,std::allocator<std::pair<int const ,GAMESHOP_ITEM_DATA *> > >::~map<int,GAMESHOP_ITEM_DATA *,std::less<int>,std::allocator<std::pair<int const ,GAMESHOP_ITEM_DATA *> > >, COMDAT
; _this$ = ecx
  00000	55		 push	 ebp
  00001	8b ec		 mov	 ebp, esp
  00003	6a ff		 push	 -1
  00005	68 00 00 00 00	 push	 __ehhandler$??1?$map@HPAUGAMESHOP_ITEM_DATA@@U?$less@H@std@@V?$allocator@U?$pair@$$CBHPAUGAMESHOP_ITEM_DATA@@@std@@@3@@std@@QAE@XZ
  0000a	64 a1 00 00 00
	00		 mov	 eax, DWORD PTR fs:0
  00010	50		 push	 eax
  00011	83 ec 08	 sub	 esp, 8
  00014	56		 push	 esi
  00015	a1 00 00 00 00	 mov	 eax, DWORD PTR ___security_cookie
  0001a	33 c5		 xor	 eax, ebp
  0001c	50		 push	 eax
  0001d	8d 45 f4	 lea	 eax, DWORD PTR __$EHRec$[ebp]
  00020	64 a3 00 00 00
	00		 mov	 DWORD PTR fs:0, eax
  00026	8b f1		 mov	 esi, ecx
  00028	89 75 f0	 mov	 DWORD PTR _this$[ebp], esi
  0002b	8b 46 04	 mov	 eax, DWORD PTR [esi+4]
  0002e	8b 08		 mov	 ecx, DWORD PTR [eax]
  00030	50		 push	 eax
  00031	51		 push	 ecx
  00032	8d 45 ec	 lea	 eax, DWORD PTR $T224231[ebp]
  00035	50		 push	 eax
  00036	8b ce		 mov	 ecx, esi
  00038	c7 45 fc 00 00
	00 00		 mov	 DWORD PTR __$EHRec$[ebp+8], 0
  0003f	e8 00 00 00 00	 call	 ?erase@?$_Tree@V?$_Tmap_traits@HPAUGAMESHOP_ITEM_DATA@@U?$less@H@std@@V?$allocator@U?$pair@$$CBHPAUGAMESHOP_ITEM_DATA@@@std@@@3@$0A@@std@@@std@@QAE?AV?$_Tree_iterator@V?$_Tree_val@V?$_Tmap_traits@HPAUGAMESHOP_ITEM_DATA@@U?$less@H@std@@V?$allocator@U?$pair@$$CBHPAUGAMESHOP_ITEM_DATA@@@std@@@3@$0A@@std@@@std@@@2@V?$_Tree_const_iterator@V?$_Tree_val@V?$_Tmap_traits@HPAUGAMESHOP_ITEM_DATA@@U?$less@H@std@@V?$allocator@U?$pair@$$CBHPAUGAMESHOP_ITEM_DATA@@@std@@@3@$0A@@std@@@std@@@2@0@Z ; std::_Tree<std::_Tmap_traits<int,GAMESHOP_ITEM_DATA *,std::less<int>,std::allocator<std::pair<int const ,GAMESHOP_ITEM_DATA *> >,0> >::erase
  00044	8b 4e 04	 mov	 ecx, DWORD PTR [esi+4]
  00047	51		 push	 ecx
  00048	e8 00 00 00 00	 call	 ??3@YAXPAX@Z		; operator delete
  0004d	83 c4 04	 add	 esp, 4
  00050	8b 4d f4	 mov	 ecx, DWORD PTR __$EHRec$[ebp]
  00053	64 89 0d 00 00
	00 00		 mov	 DWORD PTR fs:0, ecx
  0005a	59		 pop	 ecx
  0005b	5e		 pop	 esi
  0005c	8b e5		 mov	 esp, ebp
  0005e	5d		 pop	 ebp
  0005f	c3		 ret	 0
_TEXT	ENDS
;	COMDAT text$x
text$x	SEGMENT
__unwindfunclet$??1?$map@HPAUGAMESHOP_ITEM_DATA@@U?$less@H@std@@V?$allocator@U?$pair@$$CBHPAUGAMESHOP_ITEM_DATA@@@std@@@3@@std@@QAE@XZ$1:
  00000	8b 4d f0	 mov	 ecx, DWORD PTR _this$[ebp]
  00003	e9 00 00 00 00	 jmp	 ??1?$_Tree_val@V?$_Tmap_traits@HPAUGAMESHOP_ITEM_DATA@@U?$less@H@std@@V?$allocator@U?$pair@$$CBHPAUGAMESHOP_ITEM_DATA@@@std@@@3@$0A@@std@@@std@@QAE@XZ ; std::_Tree_val<std::_Tmap_traits<int,GAMESHOP_ITEM_DATA *,std::less<int>,std::allocator<std::pair<int const ,GAMESHOP_ITEM_DATA *> >,0> >::~_Tree_val<std::_Tmap_traits<int,GAMESHOP_ITEM_DATA *,std::less<int>,std::allocator<std::pair<int const ,GAMESHOP_ITEM_DATA *> >,0> >
__ehhandler$??1?$map@HPAUGAMESHOP_ITEM_DATA@@U?$less@H@std@@V?$allocator@U?$pair@$$CBHPAUGAMESHOP_ITEM_DATA@@@std@@@3@@std@@QAE@XZ:
  00008	8b 54 24 08	 mov	 edx, DWORD PTR [esp+8]
  0000c	8d 42 0c	 lea	 eax, DWORD PTR [edx+12]
  0000f	8b 4a f0	 mov	 ecx, DWORD PTR [edx-16]
  00012	33 c8		 xor	 ecx, eax
  00014	e8 00 00 00 00	 call	 @__security_check_cookie@4
  00019	b8 00 00 00 00	 mov	 eax, OFFSET __ehfuncinfo$??1?$map@HPAUGAMESHOP_ITEM_DATA@@U?$less@H@std@@V?$allocator@U?$pair@$$CBHPAUGAMESHOP_ITEM_DATA@@@std@@@3@@std@@QAE@XZ
  0001e	e9 00 00 00 00	 jmp	 ___CxxFrameHandler3
text$x	ENDS
??1?$map@HPAUGAMESHOP_ITEM_DATA@@U?$less@H@std@@V?$allocator@U?$pair@$$CBHPAUGAMESHOP_ITEM_DATA@@@std@@@3@@std@@QAE@XZ ENDP ; std::map<int,GAMESHOP_ITEM_DATA *,std::less<int>,std::allocator<std::pair<int const ,GAMESHOP_ITEM_DATA *> > >::~map<int,GAMESHOP_ITEM_DATA *,std::less<int>,std::allocator<std::pair<int const ,GAMESHOP_ITEM_DATA *> > >
PUBLIC	??1?$map@HPAUGAMESHOP_PACKAGE_DATA@@U?$less@H@std@@V?$allocator@U?$pair@$$CBHPAUGAMESHOP_PACKAGE_DATA@@@std@@@3@@std@@QAE@XZ ; std::map<int,GAMESHOP_PACKAGE_DATA *,std::less<int>,std::allocator<std::pair<int const ,GAMESHOP_PACKAGE_DATA *> > >::~map<int,GAMESHOP_PACKAGE_DATA *,std::less<int>,std::allocator<std::pair<int const ,GAMESHOP_PACKAGE_DATA *> > >
;	COMDAT xdata$x
xdata$x	SEGMENT
__unwindtable$??1?$map@HPAUGAMESHOP_PACKAGE_DATA@@U?$less@H@std@@V?$allocator@U?$pair@$$CBHPAUGAMESHOP_PACKAGE_DATA@@@std@@@3@@std@@QAE@XZ DD 0ffffffffH
	DD	FLAT:__unwindfunclet$??1?$map@HPAUGAMESHOP_PACKAGE_DATA@@U?$less@H@std@@V?$allocator@U?$pair@$$CBHPAUGAMESHOP_PACKAGE_DATA@@@std@@@3@@std@@QAE@XZ$1
__ehfuncinfo$??1?$map@HPAUGAMESHOP_PACKAGE_DATA@@U?$less@H@std@@V?$allocator@U?$pair@$$CBHPAUGAMESHOP_PACKAGE_DATA@@@std@@@3@@std@@QAE@XZ DD 019930522H
	DD	01H
	DD	FLAT:__unwindtable$??1?$map@HPAUGAMESHOP_PACKAGE_DATA@@U?$less@H@std@@V?$allocator@U?$pair@$$CBHPAUGAMESHOP_PACKAGE_DATA@@@std@@@3@@std@@QAE@XZ
	DD	2 DUP(00H)
	DD	2 DUP(00H)
	DD	00H
	DD	01H
; Function compile flags: /Ogtp
xdata$x	ENDS
;	COMDAT ??1?$map@HPAUGAMESHOP_PACKAGE_DATA@@U?$less@H@std@@V?$allocator@U?$pair@$$CBHPAUGAMESHOP_PACKAGE_DATA@@@std@@@3@@std@@QAE@XZ
_TEXT	SEGMENT
$T224408 = -20						; size = 4
_this$ = -16						; size = 4
__$EHRec$ = -12						; size = 12
??1?$map@HPAUGAMESHOP_PACKAGE_DATA@@U?$less@H@std@@V?$allocator@U?$pair@$$CBHPAUGAMESHOP_PACKAGE_DATA@@@std@@@3@@std@@QAE@XZ PROC ; std::map<int,GAMESHOP_PACKAGE_DATA *,std::less<int>,std::allocator<std::pair<int const ,GAMESHOP_PACKAGE_DATA *> > >::~map<int,GAMESHOP_PACKAGE_DATA *,std::less<int>,std::allocator<std::pair<int const ,GAMESHOP_PACKAGE_DATA *> > >, COMDAT
; _this$ = ecx
  00000	55		 push	 ebp
  00001	8b ec		 mov	 ebp, esp
  00003	6a ff		 push	 -1
  00005	68 00 00 00 00	 push	 __ehhandler$??1?$map@HPAUGAMESHOP_PACKAGE_DATA@@U?$less@H@std@@V?$allocator@U?$pair@$$CBHPAUGAMESHOP_PACKAGE_DATA@@@std@@@3@@std@@QAE@XZ
  0000a	64 a1 00 00 00
	00		 mov	 eax, DWORD PTR fs:0
  00010	50		 push	 eax
  00011	83 ec 08	 sub	 esp, 8
  00014	56		 push	 esi
  00015	a1 00 00 00 00	 mov	 eax, DWORD PTR ___security_cookie
  0001a	33 c5		 xor	 eax, ebp
  0001c	50		 push	 eax
  0001d	8d 45 f4	 lea	 eax, DWORD PTR __$EHRec$[ebp]
  00020	64 a3 00 00 00
	00		 mov	 DWORD PTR fs:0, eax
  00026	8b f1		 mov	 esi, ecx
  00028	89 75 f0	 mov	 DWORD PTR _this$[ebp], esi
  0002b	8b 46 04	 mov	 eax, DWORD PTR [esi+4]
  0002e	8b 08		 mov	 ecx, DWORD PTR [eax]
  00030	50		 push	 eax
  00031	51		 push	 ecx
  00032	8d 45 ec	 lea	 eax, DWORD PTR $T224408[ebp]
  00035	50		 push	 eax
  00036	8b ce		 mov	 ecx, esi
  00038	c7 45 fc 00 00
	00 00		 mov	 DWORD PTR __$EHRec$[ebp+8], 0
  0003f	e8 00 00 00 00	 call	 ?erase@?$_Tree@V?$_Tmap_traits@HPAUGAMESHOP_PACKAGE_DATA@@U?$less@H@std@@V?$allocator@U?$pair@$$CBHPAUGAMESHOP_PACKAGE_DATA@@@std@@@3@$0A@@std@@@std@@QAE?AV?$_Tree_iterator@V?$_Tree_val@V?$_Tmap_traits@HPAUGAMESHOP_PACKAGE_DATA@@U?$less@H@std@@V?$allocator@U?$pair@$$CBHPAUGAMESHOP_PACKAGE_DATA@@@std@@@3@$0A@@std@@@std@@@2@V?$_Tree_const_iterator@V?$_Tree_val@V?$_Tmap_traits@HPAUGAMESHOP_PACKAGE_DATA@@U?$less@H@std@@V?$allocator@U?$pair@$$CBHPAUGAMESHOP_PACKAGE_DATA@@@std@@@3@$0A@@std@@@std@@@2@0@Z ; std::_Tree<std::_Tmap_traits<int,GAMESHOP_PACKAGE_DATA *,std::less<int>,std::allocator<std::pair<int const ,GAMESHOP_PACKAGE_DATA *> >,0> >::erase
  00044	8b 4e 04	 mov	 ecx, DWORD PTR [esi+4]
  00047	51		 push	 ecx
  00048	e8 00 00 00 00	 call	 ??3@YAXPAX@Z		; operator delete
  0004d	83 c4 04	 add	 esp, 4
  00050	8b 4d f4	 mov	 ecx, DWORD PTR __$EHRec$[ebp]
  00053	64 89 0d 00 00
	00 00		 mov	 DWORD PTR fs:0, ecx
  0005a	59		 pop	 ecx
  0005b	5e		 pop	 esi
  0005c	8b e5		 mov	 esp, ebp
  0005e	5d		 pop	 ebp
  0005f	c3		 ret	 0
_TEXT	ENDS
;	COMDAT text$x
text$x	SEGMENT
__unwindfunclet$??1?$map@HPAUGAMESHOP_PACKAGE_DATA@@U?$less@H@std@@V?$allocator@U?$pair@$$CBHPAUGAMESHOP_PACKAGE_DATA@@@std@@@3@@std@@QAE@XZ$1:
  00000	8b 4d f0	 mov	 ecx, DWORD PTR _this$[ebp]
  00003	e9 00 00 00 00	 jmp	 ??1?$_Tree_val@V?$_Tmap_traits@HPAUGAMESHOP_PACKAGE_DATA@@U?$less@H@std@@V?$allocator@U?$pair@$$CBHPAUGAMESHOP_PACKAGE_DATA@@@std@@@3@$0A@@std@@@std@@QAE@XZ ; std::_Tree_val<std::_Tmap_traits<int,GAMESHOP_PACKAGE_DATA *,std::less<int>,std::allocator<std::pair<int const ,GAMESHOP_PACKAGE_DATA *> >,0> >::~_Tree_val<std::_Tmap_traits<int,GAMESHOP_PACKAGE_DATA *,std::less<int>,std::allocator<std::pair<int const ,GAMESHOP_PACKAGE_DATA *> >,0> >
__ehhandler$??1?$map@HPAUGAMESHOP_PACKAGE_DATA@@U?$less@H@std@@V?$allocator@U?$pair@$$CBHPAUGAMESHOP_PACKAGE_DATA@@@std@@@3@@std@@QAE@XZ:
  00008	8b 54 24 08	 mov	 edx, DWORD PTR [esp+8]
  0000c	8d 42 0c	 lea	 eax, DWORD PTR [edx+12]
  0000f	8b 4a f0	 mov	 ecx, DWORD PTR [edx-16]
  00012	33 c8		 xor	 ecx, eax
  00014	e8 00 00 00 00	 call	 @__security_check_cookie@4
  00019	b8 00 00 00 00	 mov	 eax, OFFSET __ehfuncinfo$??1?$map@HPAUGAMESHOP_PACKAGE_DATA@@U?$less@H@std@@V?$allocator@U?$pair@$$CBHPAUGAMESHOP_PACKAGE_DATA@@@std@@@3@@std@@QAE@XZ
  0001e	e9 00 00 00 00	 jmp	 ___CxxFrameHandler3
text$x	ENDS
??1?$map@HPAUGAMESHOP_PACKAGE_DATA@@U?$less@H@std@@V?$allocator@U?$pair@$$CBHPAUGAMESHOP_PACKAGE_DATA@@@std@@@3@@std@@QAE@XZ ENDP ; std::map<int,GAMESHOP_PACKAGE_DATA *,std::less<int>,std::allocator<std::pair<int const ,GAMESHOP_PACKAGE_DATA *> > >::~map<int,GAMESHOP_PACKAGE_DATA *,std::less<int>,std::allocator<std::pair<int const ,GAMESHOP_PACKAGE_DATA *> > >
PUBLIC	??_7GameShop@@6B@				; GameShop::`vftable'
PUBLIC	??1GameShop@@UAE@XZ				; GameShop::~GameShop
PUBLIC	??_R4GameShop@@6B@				; GameShop::`RTTI Complete Object Locator'
PUBLIC	??_R0?AVGameShop@@@8				; GameShop `RTTI Type Descriptor'
PUBLIC	??_R3GameShop@@8				; GameShop::`RTTI Class Hierarchy Descriptor'
PUBLIC	??_R2GameShop@@8				; GameShop::`RTTI Base Class Array'
PUBLIC	??_R1A@?0A@EA@GameShop@@8			; GameShop::`RTTI Base Class Descriptor at (0,-1,0,64)'
EXTRN	??_EGameShop@@UAEPAXI@Z:PROC			; GameShop::`vector deleting destructor'
;	COMDAT ??_R1A@?0A@EA@GameShop@@8
; File d:\program files (x86)\microsoft visual studio 10.0\vc\include\xmemory
rdata$r	SEGMENT
??_R1A@?0A@EA@GameShop@@8 DD FLAT:??_R0?AVGameShop@@@8	; GameShop::`RTTI Base Class Descriptor at (0,-1,0,64)'
	DD	00H
	DD	00H
	DD	0ffffffffH
	DD	00H
	DD	040H
	DD	FLAT:??_R3GameShop@@8
rdata$r	ENDS
;	COMDAT ??_R2GameShop@@8
rdata$r	SEGMENT
??_R2GameShop@@8 DD FLAT:??_R1A@?0A@EA@GameShop@@8	; GameShop::`RTTI Base Class Array'
rdata$r	ENDS
;	COMDAT ??_R3GameShop@@8
rdata$r	SEGMENT
??_R3GameShop@@8 DD 00H					; GameShop::`RTTI Class Hierarchy Descriptor'
	DD	00H
	DD	01H
	DD	FLAT:??_R2GameShop@@8
rdata$r	ENDS
;	COMDAT ??_R0?AVGameShop@@@8
_DATA	SEGMENT
??_R0?AVGameShop@@@8 DD FLAT:??_7type_info@@6B@		; GameShop `RTTI Type Descriptor'
	DD	00H
	DB	'.?AVGameShop@@', 00H
_DATA	ENDS
;	COMDAT ??_R4GameShop@@6B@
rdata$r	SEGMENT
??_R4GameShop@@6B@ DD 00H				; GameShop::`RTTI Complete Object Locator'
	DD	00H
	DD	00H
	DD	FLAT:??_R0?AVGameShop@@@8
	DD	FLAT:??_R3GameShop@@8
rdata$r	ENDS
;	COMDAT ??_7GameShop@@6B@
CONST	SEGMENT
??_7GameShop@@6B@ DD FLAT:??_R4GameShop@@6B@		; GameShop::`vftable'
	DD	FLAT:??_EGameShop@@UAEPAXI@Z
CONST	ENDS
;	COMDAT xdata$x
xdata$x	SEGMENT
__unwindtable$??1GameShop@@UAE@XZ DD 0ffffffffH
	DD	FLAT:__unwindfunclet$??1GameShop@@UAE@XZ$0
	DD	00H
	DD	FLAT:__unwindfunclet$??1GameShop@@UAE@XZ$3
	DD	0ffffffffH
	DD	FLAT:__unwindfunclet$??1GameShop@@UAE@XZ$5
__ehfuncinfo$??1GameShop@@UAE@XZ DD 019930522H
	DD	03H
	DD	FLAT:__unwindtable$??1GameShop@@UAE@XZ
	DD	2 DUP(00H)
	DD	2 DUP(00H)
	DD	00H
	DD	01H
; Function compile flags: /Ogtp
; File e:\work\tranet_version\gs\gameserver\gameshop.cpp
xdata$x	ENDS
;	COMDAT ??1GameShop@@UAE@XZ
_TEXT	SEGMENT
$T224629 = -24						; size = 4
$T224872 = -24						; size = 4
$T224843 = -20						; size = 4
$T224660 = -20						; size = 4
_this$ = -16						; size = 4
__$EHRec$ = -12						; size = 12
??1GameShop@@UAE@XZ PROC				; GameShop::~GameShop, COMDAT
; _this$ = ecx

; 44   : {

  00000	55		 push	 ebp
  00001	8b ec		 mov	 ebp, esp
  00003	6a ff		 push	 -1
  00005	68 00 00 00 00	 push	 __ehhandler$??1GameShop@@UAE@XZ
  0000a	64 a1 00 00 00
	00		 mov	 eax, DWORD PTR fs:0
  00010	50		 push	 eax
  00011	83 ec 0c	 sub	 esp, 12			; 0000000cH
  00014	56		 push	 esi
  00015	57		 push	 edi
  00016	a1 00 00 00 00	 mov	 eax, DWORD PTR ___security_cookie
  0001b	33 c5		 xor	 eax, ebp
  0001d	50		 push	 eax
  0001e	8d 45 f4	 lea	 eax, DWORD PTR __$EHRec$[ebp]
  00021	64 a3 00 00 00
	00		 mov	 DWORD PTR fs:0, eax
  00027	8b f1		 mov	 esi, ecx
  00029	89 75 f0	 mov	 DWORD PTR _this$[ebp], esi
  0002c	c7 06 00 00 00
	00		 mov	 DWORD PTR [esi], OFFSET ??_7GameShop@@6B@

; 45   : 
; 46   : }

  00032	8d 7e 28	 lea	 edi, DWORD PTR [esi+40]
  00035	c7 45 fc 00 00
	00 00		 mov	 DWORD PTR __$EHRec$[ebp+8], 0
  0003c	89 7d ec	 mov	 DWORD PTR $T224660[ebp], edi
  0003f	8b 47 04	 mov	 eax, DWORD PTR [edi+4]
  00042	8b 08		 mov	 ecx, DWORD PTR [eax]
  00044	50		 push	 eax
  00045	51		 push	 ecx
  00046	8d 45 e8	 lea	 eax, DWORD PTR $T224629[ebp]
  00049	50		 push	 eax
  0004a	8b cf		 mov	 ecx, edi
  0004c	c6 45 fc 01	 mov	 BYTE PTR __$EHRec$[ebp+8], 1
  00050	e8 00 00 00 00	 call	 ?erase@?$_Tree@V?$_Tmap_traits@HPAUGAMESHOP_PACKAGE_DATA@@U?$less@H@std@@V?$allocator@U?$pair@$$CBHPAUGAMESHOP_PACKAGE_DATA@@@std@@@3@$0A@@std@@@std@@QAE?AV?$_Tree_iterator@V?$_Tree_val@V?$_Tmap_traits@HPAUGAMESHOP_PACKAGE_DATA@@U?$less@H@std@@V?$allocator@U?$pair@$$CBHPAUGAMESHOP_PACKAGE_DATA@@@std@@@3@$0A@@std@@@std@@@2@V?$_Tree_const_iterator@V?$_Tree_val@V?$_Tmap_traits@HPAUGAMESHOP_PACKAGE_DATA@@U?$less@H@std@@V?$allocator@U?$pair@$$CBHPAUGAMESHOP_PACKAGE_DATA@@@std@@@3@$0A@@std@@@std@@@2@0@Z ; std::_Tree<std::_Tmap_traits<int,GAMESHOP_PACKAGE_DATA *,std::less<int>,std::allocator<std::pair<int const ,GAMESHOP_PACKAGE_DATA *> >,0> >::erase
  00055	8b 7f 04	 mov	 edi, DWORD PTR [edi+4]
  00058	57		 push	 edi
  00059	e8 00 00 00 00	 call	 ??3@YAXPAX@Z		; operator delete
  0005e	83 c6 18	 add	 esi, 24			; 00000018H
  00061	83 c4 04	 add	 esp, 4
  00064	89 75 e8	 mov	 DWORD PTR $T224872[ebp], esi
  00067	8b 46 04	 mov	 eax, DWORD PTR [esi+4]
  0006a	8b 08		 mov	 ecx, DWORD PTR [eax]
  0006c	50		 push	 eax
  0006d	51		 push	 ecx
  0006e	8d 4d ec	 lea	 ecx, DWORD PTR $T224843[ebp]
  00071	51		 push	 ecx
  00072	8b ce		 mov	 ecx, esi
  00074	c7 45 fc 02 00
	00 00		 mov	 DWORD PTR __$EHRec$[ebp+8], 2
  0007b	e8 00 00 00 00	 call	 ?erase@?$_Tree@V?$_Tmap_traits@HPAUGAMESHOP_ITEM_DATA@@U?$less@H@std@@V?$allocator@U?$pair@$$CBHPAUGAMESHOP_ITEM_DATA@@@std@@@3@$0A@@std@@@std@@QAE?AV?$_Tree_iterator@V?$_Tree_val@V?$_Tmap_traits@HPAUGAMESHOP_ITEM_DATA@@U?$less@H@std@@V?$allocator@U?$pair@$$CBHPAUGAMESHOP_ITEM_DATA@@@std@@@3@$0A@@std@@@std@@@2@V?$_Tree_const_iterator@V?$_Tree_val@V?$_Tmap_traits@HPAUGAMESHOP_ITEM_DATA@@U?$less@H@std@@V?$allocator@U?$pair@$$CBHPAUGAMESHOP_ITEM_DATA@@@std@@@3@$0A@@std@@@std@@@2@0@Z ; std::_Tree<std::_Tmap_traits<int,GAMESHOP_ITEM_DATA *,std::less<int>,std::allocator<std::pair<int const ,GAMESHOP_ITEM_DATA *> >,0> >::erase
  00080	8b 56 04	 mov	 edx, DWORD PTR [esi+4]
  00083	52		 push	 edx
  00084	e8 00 00 00 00	 call	 ??3@YAXPAX@Z		; operator delete
  00089	83 c4 04	 add	 esp, 4
  0008c	8b 4d f4	 mov	 ecx, DWORD PTR __$EHRec$[ebp]
  0008f	64 89 0d 00 00
	00 00		 mov	 DWORD PTR fs:0, ecx
  00096	59		 pop	 ecx
  00097	5f		 pop	 edi
  00098	5e		 pop	 esi
  00099	8b e5		 mov	 esp, ebp
  0009b	5d		 pop	 ebp
  0009c	c3		 ret	 0
_TEXT	ENDS
;	COMDAT text$x
text$x	SEGMENT
__unwindfunclet$??1GameShop@@UAE@XZ$0:
  00000	8b 4d f0	 mov	 ecx, DWORD PTR _this$[ebp]
  00003	83 c1 18	 add	 ecx, 24			; 00000018H
  00006	e9 00 00 00 00	 jmp	 ??1?$map@HPAUGAMESHOP_ITEM_DATA@@U?$less@H@std@@V?$allocator@U?$pair@$$CBHPAUGAMESHOP_ITEM_DATA@@@std@@@3@@std@@QAE@XZ
__unwindfunclet$??1GameShop@@UAE@XZ$3:
  0000b	8b 4d ec	 mov	 ecx, DWORD PTR $T224660[ebp]
  0000e	e9 00 00 00 00	 jmp	 ??1?$_Tree_val@V?$_Tmap_traits@HPAUGAMESHOP_PACKAGE_DATA@@U?$less@H@std@@V?$allocator@U?$pair@$$CBHPAUGAMESHOP_PACKAGE_DATA@@@std@@@3@$0A@@std@@@std@@QAE@XZ ; std::_Tree_val<std::_Tmap_traits<int,GAMESHOP_PACKAGE_DATA *,std::less<int>,std::allocator<std::pair<int const ,GAMESHOP_PACKAGE_DATA *> >,0> >::~_Tree_val<std::_Tmap_traits<int,GAMESHOP_PACKAGE_DATA *,std::less<int>,std::allocator<std::pair<int const ,GAMESHOP_PACKAGE_DATA *> >,0> >
__unwindfunclet$??1GameShop@@UAE@XZ$5:
  00013	8b 4d e8	 mov	 ecx, DWORD PTR $T224872[ebp]
  00016	e9 00 00 00 00	 jmp	 ??1?$_Tree_val@V?$_Tmap_traits@HPAUGAMESHOP_ITEM_DATA@@U?$less@H@std@@V?$allocator@U?$pair@$$CBHPAUGAMESHOP_ITEM_DATA@@@std@@@3@$0A@@std@@@std@@QAE@XZ ; std::_Tree_val<std::_Tmap_traits<int,GAMESHOP_ITEM_DATA *,std::less<int>,std::allocator<std::pair<int const ,GAMESHOP_ITEM_DATA *> >,0> >::~_Tree_val<std::_Tmap_traits<int,GAMESHOP_ITEM_DATA *,std::less<int>,std::allocator<std::pair<int const ,GAMESHOP_ITEM_DATA *> >,0> >
__ehhandler$??1GameShop@@UAE@XZ:
  0001b	8b 54 24 08	 mov	 edx, DWORD PTR [esp+8]
  0001f	8d 42 0c	 lea	 eax, DWORD PTR [edx+12]
  00022	8b 4a e8	 mov	 ecx, DWORD PTR [edx-24]
  00025	33 c8		 xor	 ecx, eax
  00027	e8 00 00 00 00	 call	 @__security_check_cookie@4
  0002c	b8 00 00 00 00	 mov	 eax, OFFSET __ehfuncinfo$??1GameShop@@UAE@XZ
  00031	e9 00 00 00 00	 jmp	 ___CxxFrameHandler3
text$x	ENDS
??1GameShop@@UAE@XZ ENDP				; GameShop::~GameShop
PUBLIC	??_C@_0CI@JMNCCABF@?$FLGameShop?$FN?5?$CFs?5file?5is?5loaded?5?$FL?$CFd@ ; `string'
PUBLIC	?ReadItemList@GameShop@@QAEXPAD@Z		; GameShop::ReadItemList
EXTRN	?ItemAttribute@@3PAUITEM_ATTRIBUTE@@A:BYTE	; ItemAttribute
;	COMDAT ??_C@_0CI@JMNCCABF@?$FLGameShop?$FN?5?$CFs?5file?5is?5loaded?5?$FL?$CFd@
; File e:\work\tranet_version\gs\gameserver\gameshop.h
CONST	SEGMENT
??_C@_0CI@JMNCCABF@?$FLGameShop?$FN?5?$CFs?5file?5is?5loaded?5?$FL?$CFd@ DB '['
	DB	'GameShop] %s file is loaded [%d] items', 00H ; `string'
; Function compile flags: /Ogtp
; File e:\work\tranet_version\gs\gameserver\gameshop.cpp
CONST	ENDS
;	COMDAT ?ReadItemList@GameShop@@QAEXPAD@Z
_TEXT	SEGMENT
_pItem$ = -52						; size = 40
tv269 = -12						; size = 4
tv267 = -12						; size = 4
tv259 = -12						; size = 4
tv256 = -12						; size = 4
tv223 = -12						; size = 4
tv221 = -12						; size = 4
tv137 = -12						; size = 4
tv133 = -12						; size = 4
tv89 = -12						; size = 4
tv88 = -12						; size = 4
tv78 = -12						; size = 4
tv71 = -12						; size = 4
_Category$ = -8						; size = 4
tv272 = -2						; size = 2
tv263 = -2						; size = 2
tv159 = -2						; size = 2
tv143 = -2						; size = 2
tv95 = -2						; size = 2
tv84 = -2						; size = 2
_File$ = 8						; size = 4
?ReadItemList@GameShop@@QAEXPAD@Z PROC			; GameShop::ReadItemList, COMDAT
; _this$ = ecx

; 80   : {

  00000	55		 push	 ebp
  00001	8b ec		 mov	 ebp, esp
  00003	83 ec 34	 sub	 esp, 52			; 00000034H
  00006	53		 push	 ebx
  00007	56		 push	 esi
  00008	57		 push	 edi

; 81   : 	SMDToken Token;
; 82   : 	SMDFile = fopen(File, "r");	//ok

  00009	8b 7d 08	 mov	 edi, DWORD PTR _File$[ebp]
  0000c	68 00 00 00 00	 push	 OFFSET ??_C@_01KDCPPGHE@r?$AA@
  00011	57		 push	 edi
  00012	8b f1		 mov	 esi, ecx
  00014	e8 00 00 00 00	 call	 _fopen

; 83   : 	// ----
; 84   : 	if( !SMDFile )

  00019	33 db		 xor	 ebx, ebx
  0001b	83 c4 08	 add	 esp, 8
  0001e	a3 00 00 00 00	 mov	 DWORD PTR _SMDFile, eax
  00023	3b c3		 cmp	 eax, ebx
  00025	75 17		 jne	 SHORT $LN8@ReadItemLi

; 85   : 	{
; 86   : 		MsgBox("[GameShop] %s file not found", File);

  00027	57		 push	 edi
  00028	68 00 00 00 00	 push	 OFFSET ??_C@_0BN@GNBNILEJ@?$FLGameShop?$FN?5?$CFs?5file?5not?5found?$AA@
  0002d	e8 00 00 00 00	 call	 ?MsgBox@@YAXPADZZ	; MsgBox
  00032	83 c4 08	 add	 esp, 8
  00035	5f		 pop	 edi
  00036	5e		 pop	 esi
  00037	5b		 pop	 ebx

; 167  : }

  00038	8b e5		 mov	 esp, ebp
  0003a	5d		 pop	 ebp
  0003b	c2 04 00	 ret	 4
$LN8@ReadItemLi:

; 87   : 		return;
; 88   : 	}
; 89   : 	// ----
; 90   : 	GAMESHOP_ITEM_DATA		pItem;

  0003e	83 c8 ff	 or	 eax, -1
  00041	0b c8		 or	 ecx, eax
  00043	66 89 45 cc	 mov	 WORD PTR _pItem$[ebp], ax
  00047	b0 ff		 mov	 al, 255			; 000000ffH
  00049	66 89 4d ce	 mov	 WORD PTR _pItem$[ebp+2], cx
  0004d	c7 45 d0 ff ff
	00 ff		 mov	 DWORD PTR _pItem$[ebp+4], -16711681 ; ff00ffffH
  00054	89 5d d4	 mov	 DWORD PTR _pItem$[ebp+8], ebx
  00057	89 5d d8	 mov	 DWORD PTR _pItem$[ebp+12], ebx
  0005a	89 5d dc	 mov	 DWORD PTR _pItem$[ebp+16], ebx
  0005d	88 45 e0	 mov	 BYTE PTR _pItem$[ebp+20], al
  00060	89 5d e4	 mov	 DWORD PTR _pItem$[ebp+24], ebx
  00063	89 5d e8	 mov	 DWORD PTR _pItem$[ebp+28], ebx
  00066	89 5d ec	 mov	 DWORD PTR _pItem$[ebp+32], ebx
  00069	89 5d f0	 mov	 DWORD PTR _pItem$[ebp+36], ebx

; 91   : 	this->ItemCount			= 0;

  0006c	89 5e 3c	 mov	 DWORD PTR [esi+60], ebx

; 92   : 	int Category			= -1;
; 93   : 	// ----
; 94   : 	while(true)
; 95   : 	{
; 96   : 		Token = GetToken();

  0006f	e8 00 00 00 00	 call	 ?GetToken@@YA?AW4SMDToken@@XZ ; GetToken

; 97   : 		// ----
; 98   : 		if( Token == END )

  00074	83 f8 02	 cmp	 eax, 2
  00077	0f 84 1c 02 00
	00		 je	 $LN18@ReadItemLi
  0007d	bf 01 00 00 00	 mov	 edi, 1
$LL7@ReadItemLi:

; 99   : 		{
; 100  : 			break;
; 101  : 		}
; 102  : 		// ----
; 103  : 		Category = TokenNumber;

  00082	d9 05 00 00 00
	00		 fld	 DWORD PTR _TokenNumber
  00088	e8 00 00 00 00	 call	 __ftol2_sse
  0008d	89 45 f8	 mov	 DWORD PTR _Category$[ebp], eax
$LL4@ReadItemLi:

; 104  : 		// ----
; 105  : 		while(true)
; 106  : 		{
; 107  : 			if( Category == 0 )	//-> Item list

  00090	39 5d f8	 cmp	 DWORD PTR _Category$[ebp], ebx
  00093	75 fb		 jne	 SHORT $LL4@ReadItemLi

; 108  : 			{
; 109  : 				Token = GetToken();

  00095	e8 00 00 00 00	 call	 ?GetToken@@YA?AW4SMDToken@@XZ ; GetToken

; 110  : 				// ----
; 111  : 				if( !strcmp("end", TokenString) )

  0009a	b9 00 00 00 00	 mov	 ecx, OFFSET _TokenString
  0009f	b8 00 00 00 00	 mov	 eax, OFFSET ??_C@_03JBJLGPFL@end?$AA@
$LL19@ReadItemLi:
  000a4	8a 10		 mov	 dl, BYTE PTR [eax]
  000a6	3a 11		 cmp	 dl, BYTE PTR [ecx]
  000a8	75 1a		 jne	 SHORT $LN20@ReadItemLi
  000aa	3a d3		 cmp	 dl, bl
  000ac	74 12		 je	 SHORT $LN21@ReadItemLi
  000ae	8a 50 01	 mov	 dl, BYTE PTR [eax+1]
  000b1	3a 51 01	 cmp	 dl, BYTE PTR [ecx+1]
  000b4	75 0e		 jne	 SHORT $LN20@ReadItemLi
  000b6	83 c0 02	 add	 eax, 2
  000b9	83 c1 02	 add	 ecx, 2
  000bc	3a d3		 cmp	 dl, bl
  000be	75 e4		 jne	 SHORT $LL19@ReadItemLi
$LN21@ReadItemLi:
  000c0	33 c0		 xor	 eax, eax
  000c2	eb 05		 jmp	 SHORT $LN22@ReadItemLi
$LN20@ReadItemLi:
  000c4	1b c0		 sbb	 eax, eax
  000c6	83 d8 ff	 sbb	 eax, -1
$LN22@ReadItemLi:
  000c9	3b c3		 cmp	 eax, ebx
  000cb	0f 84 b7 01 00
	00		 je	 $LN17@ReadItemLi

; 112  : 				{
; 113  : 					break;
; 114  : 				}
; 115  : 				// ----
; 116  : 				pItem.ItemID		= TokenNumber;

  000d1	d9 05 00 00 00
	00		 fld	 DWORD PTR _TokenNumber
  000d7	e8 00 00 00 00	 call	 __ftol2_sse
  000dc	66 89 45 ce	 mov	 WORD PTR _pItem$[ebp+2], ax

; 117  : 				// ----
; 118  : 				pItem.X				= ItemAttribute[pItem.ItemID].Width;

  000e0	98		 cwde
  000e1	6b c0 70	 imul	 eax, 112		; 00000070H
  000e4	0f b6 90 23 00
	00 00		 movzx	 edx, BYTE PTR ?ItemAttribute@@3PAUITEM_ATTRIBUTE@@A[eax+35]

; 119  : 				pItem.Y				= ItemAttribute[pItem.ItemID].Height;

  000eb	0f b6 80 24 00
	00 00		 movzx	 eax, BYTE PTR ?ItemAttribute@@3PAUITEM_ATTRIBUTE@@A[eax+36]
  000f2	88 55 d0	 mov	 BYTE PTR _pItem$[ebp+4], dl
  000f5	88 45 d1	 mov	 BYTE PTR _pItem$[ebp+5], al

; 120  : 				// ----
; 121  : 				Token				= GetToken();

  000f8	e8 00 00 00 00	 call	 ?GetToken@@YA?AW4SMDToken@@XZ ; GetToken

; 122  : 				pItem.Level			= TokenNumber;

  000fd	d9 05 00 00 00
	00		 fld	 DWORD PTR _TokenNumber
  00103	d9 7d fe	 fnstcw	 WORD PTR tv272[ebp]
  00106	0f b7 45 fe	 movzx	 eax, WORD PTR tv272[ebp]
  0010a	0d 00 0c 00 00	 or	 eax, 3072		; 00000c00H
  0010f	89 45 f4	 mov	 DWORD PTR tv269[ebp], eax
  00112	d9 6d f4	 fldcw	 WORD PTR tv269[ebp]
  00115	db 5d f4	 fistp	 DWORD PTR tv267[ebp]
  00118	0f b6 4d f4	 movzx	 ecx, BYTE PTR tv267[ebp]
  0011c	88 4d d2	 mov	 BYTE PTR _pItem$[ebp+6], cl
  0011f	d9 6d fe	 fldcw	 WORD PTR tv272[ebp]

; 123  : 				// ----
; 124  : 				Token				= GetToken();

  00122	e8 00 00 00 00	 call	 ?GetToken@@YA?AW4SMDToken@@XZ ; GetToken

; 125  : 				pItem.Durability	= TokenNumber;

  00127	d9 05 00 00 00
	00		 fld	 DWORD PTR _TokenNumber
  0012d	d9 7d fe	 fnstcw	 WORD PTR tv263[ebp]
  00130	0f b7 45 fe	 movzx	 eax, WORD PTR tv263[ebp]
  00134	0d 00 0c 00 00	 or	 eax, 3072		; 00000c00H
  00139	89 45 f4	 mov	 DWORD PTR tv259[ebp], eax
  0013c	d9 6d f4	 fldcw	 WORD PTR tv259[ebp]
  0013f	db 5d f4	 fistp	 DWORD PTR tv256[ebp]
  00142	0f b6 55 f4	 movzx	 edx, BYTE PTR tv256[ebp]
  00146	88 55 d3	 mov	 BYTE PTR _pItem$[ebp+7], dl
  00149	d9 6d fe	 fldcw	 WORD PTR tv263[ebp]

; 126  : 				// ----
; 127  : 				Token				= GetToken();

  0014c	e8 00 00 00 00	 call	 ?GetToken@@YA?AW4SMDToken@@XZ ; GetToken

; 128  : 				pItem.Skill			= TokenNumber;

  00151	d9 05 00 00 00
	00		 fld	 DWORD PTR _TokenNumber
  00157	d9 7d fe	 fnstcw	 WORD PTR tv143[ebp]
  0015a	0f b7 45 fe	 movzx	 eax, WORD PTR tv143[ebp]
  0015e	0d 00 0c 00 00	 or	 eax, 3072		; 00000c00H
  00163	89 45 f4	 mov	 DWORD PTR tv137[ebp], eax
  00166	d9 6d f4	 fldcw	 WORD PTR tv137[ebp]
  00169	db 5d f4	 fistp	 DWORD PTR tv133[ebp]
  0016c	0f b6 45 f4	 movzx	 eax, BYTE PTR tv133[ebp]
  00170	88 45 d4	 mov	 BYTE PTR _pItem$[ebp+8], al
  00173	d9 6d fe	 fldcw	 WORD PTR tv143[ebp]

; 129  : 				// ----
; 130  : 				Token				= GetToken();

  00176	e8 00 00 00 00	 call	 ?GetToken@@YA?AW4SMDToken@@XZ ; GetToken

; 131  : 				pItem.Luck			= TokenNumber;

  0017b	d9 05 00 00 00
	00		 fld	 DWORD PTR _TokenNumber
  00181	d9 7d fe	 fnstcw	 WORD PTR tv95[ebp]
  00184	0f b7 45 fe	 movzx	 eax, WORD PTR tv95[ebp]
  00188	0d 00 0c 00 00	 or	 eax, 3072		; 00000c00H
  0018d	89 45 f4	 mov	 DWORD PTR tv78[ebp], eax
  00190	d9 6d f4	 fldcw	 WORD PTR tv78[ebp]
  00193	db 5d f4	 fistp	 DWORD PTR tv71[ebp]
  00196	0f b6 4d f4	 movzx	 ecx, BYTE PTR tv71[ebp]
  0019a	88 4d d5	 mov	 BYTE PTR _pItem$[ebp+9], cl
  0019d	d9 6d fe	 fldcw	 WORD PTR tv95[ebp]

; 132  : 				// ----
; 133  : 				Token				= GetToken();

  001a0	e8 00 00 00 00	 call	 ?GetToken@@YA?AW4SMDToken@@XZ ; GetToken

; 134  : 				pItem.Option		= TokenNumber;

  001a5	d9 05 00 00 00
	00		 fld	 DWORD PTR _TokenNumber
  001ab	d9 7d fe	 fnstcw	 WORD PTR tv159[ebp]
  001ae	0f b7 45 fe	 movzx	 eax, WORD PTR tv159[ebp]
  001b2	0d 00 0c 00 00	 or	 eax, 3072		; 00000c00H
  001b7	89 45 f4	 mov	 DWORD PTR tv89[ebp], eax
  001ba	d9 6d f4	 fldcw	 WORD PTR tv89[ebp]
  001bd	db 5d f4	 fistp	 DWORD PTR tv88[ebp]
  001c0	0f b6 55 f4	 movzx	 edx, BYTE PTR tv88[ebp]
  001c4	88 55 d6	 mov	 BYTE PTR _pItem$[ebp+10], dl
  001c7	d9 6d fe	 fldcw	 WORD PTR tv159[ebp]

; 135  : 				// ----
; 136  : 				Token				= GetToken();

  001ca	e8 00 00 00 00	 call	 ?GetToken@@YA?AW4SMDToken@@XZ ; GetToken

; 137  : 				pItem.Excellent		= TokenNumber;

  001cf	d9 05 00 00 00
	00		 fld	 DWORD PTR _TokenNumber
  001d5	d9 7d fe	 fnstcw	 WORD PTR tv84[ebp]
  001d8	0f b7 45 fe	 movzx	 eax, WORD PTR tv84[ebp]
  001dc	0d 00 0c 00 00	 or	 eax, 3072		; 00000c00H
  001e1	89 45 f4	 mov	 DWORD PTR tv223[ebp], eax
  001e4	d9 6d f4	 fldcw	 WORD PTR tv223[ebp]
  001e7	db 5d f4	 fistp	 DWORD PTR tv221[ebp]
  001ea	0f b6 45 f4	 movzx	 eax, BYTE PTR tv221[ebp]
  001ee	88 45 d7	 mov	 BYTE PTR _pItem$[ebp+11], al
  001f1	d9 6d fe	 fldcw	 WORD PTR tv84[ebp]

; 138  : 				// ----
; 139  : 				Token				= GetToken();

  001f4	e8 00 00 00 00	 call	 ?GetToken@@YA?AW4SMDToken@@XZ ; GetToken

; 140  : 				pItem.Duration		= TokenNumber;

  001f9	d9 05 00 00 00
	00		 fld	 DWORD PTR _TokenNumber
  001ff	e8 00 00 00 00	 call	 __ftol2_sse
  00204	89 45 d8	 mov	 DWORD PTR _pItem$[ebp+12], eax

; 141  : 				// ----
; 142  : 				Token				= GetToken();

  00207	e8 00 00 00 00	 call	 ?GetToken@@YA?AW4SMDToken@@XZ ; GetToken

; 143  : 				pItem.Price			= TokenNumber;

  0020c	d9 05 00 00 00
	00		 fld	 DWORD PTR _TokenNumber
  00212	e8 00 00 00 00	 call	 __ftol2_sse
  00217	89 45 dc	 mov	 DWORD PTR _pItem$[ebp+16], eax

; 144  : 				// ----
; 145  : 				Token				= GetToken();

  0021a	e8 00 00 00 00	 call	 ?GetToken@@YA?AW4SMDToken@@XZ ; GetToken

; 146  : 				pItem.GPBonus		= TokenNumber;

  0021f	d9 05 00 00 00
	00		 fld	 DWORD PTR _TokenNumber
  00225	e8 00 00 00 00	 call	 __ftol2_sse
  0022a	89 45 e4	 mov	 DWORD PTR _pItem$[ebp+24], eax

; 147  : 				// ----
; 148  : 				Token				= GetToken();

  0022d	e8 00 00 00 00	 call	 ?GetToken@@YA?AW4SMDToken@@XZ ; GetToken

; 149  : 				pItem.IBSID			= TokenNumber;

  00232	d9 05 00 00 00
	00		 fld	 DWORD PTR _TokenNumber
  00238	e8 00 00 00 00	 call	 __ftol2_sse
  0023d	89 45 e8	 mov	 DWORD PTR _pItem$[ebp+28], eax

; 150  : 				// ----
; 151  : 				Token				= GetToken();

  00240	e8 00 00 00 00	 call	 ?GetToken@@YA?AW4SMDToken@@XZ ; GetToken

; 152  : 				pItem.IBSCategory	= TokenNumber;

  00245	d9 05 00 00 00
	00		 fld	 DWORD PTR _TokenNumber
  0024b	e8 00 00 00 00	 call	 __ftol2_sse

; 153  : 				// ----
; 154  : 				pItem.PointType		= this->GetPointType(pItem.IBSCategory);

  00250	50		 push	 eax
  00251	8b ce		 mov	 ecx, esi
  00253	89 45 ec	 mov	 DWORD PTR _pItem$[ebp+32], eax
  00256	e8 00 00 00 00	 call	 ?GetPointType@GameShop@@QAEEH@Z ; GameShop::GetPointType
  0025b	88 45 e0	 mov	 BYTE PTR _pItem$[ebp+20], al

; 155  : 				// ----
; 156  : 				Token				= GetToken();

  0025e	e8 00 00 00 00	 call	 ?GetToken@@YA?AW4SMDToken@@XZ ; GetToken

; 157  : 				pItem.IBSIndex		= TokenNumber;

  00263	d9 05 00 00 00
	00		 fld	 DWORD PTR _TokenNumber
  00269	e8 00 00 00 00	 call	 __ftol2_sse

; 158  : 				// ----
; 159  : 				this->InsertItem(&pItem, this->ItemCount);

  0026e	8b 4e 3c	 mov	 ecx, DWORD PTR [esi+60]
  00271	51		 push	 ecx
  00272	8d 55 cc	 lea	 edx, DWORD PTR _pItem$[ebp]
  00275	52		 push	 edx
  00276	8b ce		 mov	 ecx, esi
  00278	89 45 f0	 mov	 DWORD PTR _pItem$[ebp+36], eax
  0027b	e8 00 00 00 00	 call	 ?InsertItem@GameShop@@QAEXPAUGAMESHOP_ITEM_DATA@@H@Z ; GameShop::InsertItem

; 160  : 				this->ItemCount++;

  00280	01 7e 3c	 add	 DWORD PTR [esi+60], edi

; 161  : 			}
; 162  : 		}

  00283	e9 08 fe ff ff	 jmp	 $LL4@ReadItemLi
$LN17@ReadItemLi:

; 92   : 	int Category			= -1;
; 93   : 	// ----
; 94   : 	while(true)
; 95   : 	{
; 96   : 		Token = GetToken();

  00288	e8 00 00 00 00	 call	 ?GetToken@@YA?AW4SMDToken@@XZ ; GetToken

; 97   : 		// ----
; 98   : 		if( Token == END )

  0028d	83 f8 02	 cmp	 eax, 2
  00290	0f 85 ec fd ff
	ff		 jne	 $LL7@ReadItemLi
  00296	8b 7d 08	 mov	 edi, DWORD PTR _File$[ebp]
$LN18@ReadItemLi:

; 163  : 	}
; 164  : 	// ----
; 165  : 	fclose(SMDFile);

  00299	a1 00 00 00 00	 mov	 eax, DWORD PTR _SMDFile
  0029e	50		 push	 eax
  0029f	e8 00 00 00 00	 call	 _fclose

; 166  : 	LogAddTD("[GameShop] %s file is loaded [%d] items", File, this->ItemCount);

  002a4	8b 4e 3c	 mov	 ecx, DWORD PTR [esi+60]
  002a7	51		 push	 ecx
  002a8	57		 push	 edi
  002a9	68 00 00 00 00	 push	 OFFSET ??_C@_0CI@JMNCCABF@?$FLGameShop?$FN?5?$CFs?5file?5is?5loaded?5?$FL?$CFd@
  002ae	ff 15 00 00 00
	00		 call	 DWORD PTR ?LogAddTD@@3P6AXPADZZA ; LogAddTD
  002b4	83 c4 10	 add	 esp, 16			; 00000010H
  002b7	5f		 pop	 edi
  002b8	5e		 pop	 esi
  002b9	5b		 pop	 ebx

; 167  : }

  002ba	8b e5		 mov	 esp, ebp
  002bc	5d		 pop	 ebp
  002bd	c2 04 00	 ret	 4
?ReadItemList@GameShop@@QAEXPAD@Z ENDP			; GameShop::ReadItemList
_TEXT	ENDS
PUBLIC	??_C@_0DF@KPCANCNG@?$FLGameShop?$FN?5?$FLRequestItemBuy?$FN?5?$FLADD@ ; `string'
PUBLIC	??_C@_0CL@BIDAJMOJ@?$FLGameShop?$FN?5?$FLRequestItemBuy?$FN?5?$FL?$CFs?$FN@ ; `string'
PUBLIC	??_C@_0DC@OIDMHEMG@?$FLGameShop?$FN?5?$FLRequestItemBuy?$FN?5?$FL?$CFs?$FN@ ; `string'
PUBLIC	_this$GSCopy$
PUBLIC	__$ArrayPad$
PUBLIC	?RequestItemBuy@GameShop@@QAEXHPAUGAMESHOP_REQ_BUY@@@Z ; GameShop::RequestItemBuy
EXTRN	?BuyDonateShopItem@CAchievements@@QAEXHH@Z:PROC	; CAchievements::BuyDonateShopItem
EXTRN	?g_Achievements@@3VCAchievements@@A:BYTE	; g_Achievements
;	COMDAT ??_C@_0DF@KPCANCNG@?$FLGameShop?$FN?5?$FLRequestItemBuy?$FN?5?$FLADD@
CONST	SEGMENT
??_C@_0DF@KPCANCNG@?$FLGameShop?$FN?5?$FLRequestItemBuy?$FN?5?$FLADD@ DB '['
	DB	'GameShop] [RequestItemBuy] [ADD] [%s] (%d) %d %d %d', 00H ; `string'
CONST	ENDS
;	COMDAT ??_C@_0CL@BIDAJMOJ@?$FLGameShop?$FN?5?$FLRequestItemBuy?$FN?5?$FL?$CFs?$FN@
CONST	SEGMENT
??_C@_0CL@BIDAJMOJ@?$FLGameShop?$FN?5?$FLRequestItemBuy?$FN?5?$FL?$CFs?$FN@ DB '['
	DB	'GameShop] [RequestItemBuy] [%s] !CanBeBuy', 00H ; `string'
CONST	ENDS
;	COMDAT ??_C@_0DC@OIDMHEMG@?$FLGameShop?$FN?5?$FLRequestItemBuy?$FN?5?$FL?$CFs?$FN@
CONST	SEGMENT
??_C@_0DC@OIDMHEMG@?$FLGameShop?$FN?5?$FLRequestItemBuy?$FN?5?$FL?$CFs?$FN@ DB '['
	DB	'GameShop] [RequestItemBuy] [%s] %d %d %d [%d %d]', 00H ; `string'
; Function compile flags: /Ogtp
CONST	ENDS
;	COMDAT ?RequestItemBuy@GameShop@@QAEXHPAUGAMESHOP_REQ_BUY@@@Z
_TEXT	SEGMENT
_pUpdate$212713 = -36					; size = 10
_this$GSCopy$ = -24					; size = 4
tv489 = -20						; size = 4
tv483 = -20						; size = 4
tv384 = -20						; size = 4
_pBuy$ = -16						; size = 9
__$ArrayPad$ = -4					; size = 4
_aIndex$ = 8						; size = 4
_lpRequest$ = 12					; size = 4
?RequestItemBuy@GameShop@@QAEXHPAUGAMESHOP_REQ_BUY@@@Z PROC ; GameShop::RequestItemBuy, COMDAT
; _this$ = ecx

; 573  : {

  00000	55		 push	 ebp
  00001	8b ec		 mov	 ebp, esp
  00003	83 ec 24	 sub	 esp, 36			; 00000024H
  00006	a1 00 00 00 00	 mov	 eax, DWORD PTR ___security_cookie
  0000b	33 c5		 xor	 eax, ebp
  0000d	89 45 fc	 mov	 DWORD PTR __$ArrayPad$[ebp], eax
  00010	53		 push	 ebx
  00011	8b 5d 08	 mov	 ebx, DWORD PTR _aIndex$[ebp]
  00014	56		 push	 esi
  00015	8b 75 0c	 mov	 esi, DWORD PTR _lpRequest$[ebp]
  00018	57		 push	 edi

; 574  : #if( GAMESHOP_DEBUG == 1 )
; 575  : 	LogAddC(3, "[DEBUG] [%s] %d %d %d [%d %d]", __FUNCTION__, 
; 576  : 		lpRequest->ItemID, lpRequest->IBSCategory, lpRequest->IBSIndex, lpRequest->IBSPackageID, lpRequest->Unknown18);
; 577  : #endif
; 578  : 	// ----
; 579  : 	LPOBJ lpUser = &gObj[aIndex];

  00019	8b fb		 mov	 edi, ebx
  0001b	69 ff 50 2b 00
	00		 imul	 edi, 11088		; 00002b50H

; 580  : 	// ----
; 581  : 	GAMESHOP_ANS_BUY pBuy;
; 582  : 	PHeadSubSetB((LPBYTE)&pBuy, 0xD2, cBuy, sizeof(pBuy));

  00021	6a 09		 push	 9
  00023	6a 03		 push	 3
  00025	89 4d e8	 mov	 DWORD PTR _this$GSCopy$[ebp], ecx
  00028	8d 4d f0	 lea	 ecx, DWORD PTR _pBuy$[ebp]
  0002b	68 d2 00 00 00	 push	 210			; 000000d2H
  00030	89 7d ec	 mov	 DWORD PTR tv384[ebp], edi
  00033	03 3d 00 00 00
	00		 add	 edi, DWORD PTR ?gObj@@3PAUOBJECTSTRUCT@@A ; gObj
  00039	51		 push	 ecx
  0003a	e8 00 00 00 00	 call	 ?PHeadSubSetB@@YAXPAEEEH@Z ; PHeadSubSetB

; 583  : 	// ----
; 584  : 	if( !gObjIsConnected(aIndex) || lpUser->Connected != PLAYER_PLAYING )

  0003f	53		 push	 ebx
  00040	e8 00 00 00 00	 call	 ?gObjIsConnected@@YAHH@Z ; gObjIsConnected
  00045	83 c4 14	 add	 esp, 20			; 00000014H
  00048	85 c0		 test	 eax, eax
  0004a	0f 84 08 03 00
	00		 je	 $LN29@RequestIte
  00050	83 7f 04 03	 cmp	 DWORD PTR [edi+4], 3
  00054	0f 85 fe 02 00
	00		 jne	 $LN29@RequestIte

; 585  : 	{
; 586  : 		return;
; 587  : 	}
; 588  : 	// ----
; 589  : 	LogAddTD("[GameShop] [RequestItemBuy] [%s] %d %d %d [%d %d]",
; 590  : 		&gObj[aIndex].AccountID, lpRequest->ItemID, 
; 591  : 		lpRequest->IBSCategory, lpRequest->IBSIndex, 
; 592  : 		lpRequest->IBSPackageID, lpRequest->Unknown18);

  0005a	8b 56 12	 mov	 edx, DWORD PTR [esi+18]
  0005d	8b 46 04	 mov	 eax, DWORD PTR [esi+4]
  00060	8b 4e 0c	 mov	 ecx, DWORD PTR [esi+12]
  00063	52		 push	 edx
  00064	8b 56 08	 mov	 edx, DWORD PTR [esi+8]
  00067	50		 push	 eax
  00068	0f bf 46 10	 movsx	 eax, WORD PTR [esi+16]
  0006c	51		 push	 ecx
  0006d	8b 0d 00 00 00
	00		 mov	 ecx, DWORD PTR ?gObj@@3PAUOBJECTSTRUCT@@A ; gObj
  00073	52		 push	 edx
  00074	8b 55 ec	 mov	 edx, DWORD PTR tv384[ebp]
  00077	50		 push	 eax
  00078	8d 44 0a 6c	 lea	 eax, DWORD PTR [edx+ecx+108]
  0007c	50		 push	 eax
  0007d	68 00 00 00 00	 push	 OFFSET ??_C@_0DC@OIDMHEMG@?$FLGameShop?$FN?5?$FLRequestItemBuy?$FN?5?$FL?$CFs?$FN@
  00082	ff 15 00 00 00
	00		 call	 DWORD PTR ?LogAddTD@@3P6AXPADZZA ; LogAddTD

; 593  : 	// ----
; 594  : 	if( !CanBeBuy(aIndex, lpRequest->ItemID) )

  00088	0f b7 4e 10	 movzx	 ecx, WORD PTR [esi+16]
  0008c	83 c4 1c	 add	 esp, 28			; 0000001cH
  0008f	51		 push	 ecx
  00090	8b 4d e8	 mov	 ecx, DWORD PTR _this$GSCopy$[ebp]
  00093	53		 push	 ebx
  00094	e8 00 00 00 00	 call	 ?CanBeBuy@GameShop@@QAE_NHF@Z ; GameShop::CanBeBuy
  00099	84 c0		 test	 al, al
  0009b	75 42		 jne	 SHORT $LN28@RequestIte

; 595  : 	{
; 596  : 		LogAddTD("[GameShop] [RequestItemBuy] [%s] !CanBeBuy", &gObj[aIndex].AccountID);

  0009d	8b 15 00 00 00
	00		 mov	 edx, DWORD PTR ?gObj@@3PAUOBJECTSTRUCT@@A ; gObj
  000a3	8b 45 ec	 mov	 eax, DWORD PTR tv384[ebp]
  000a6	8d 4c 10 6c	 lea	 ecx, DWORD PTR [eax+edx+108]
  000aa	51		 push	 ecx
  000ab	68 00 00 00 00	 push	 OFFSET ??_C@_0CL@BIDAJMOJ@?$FLGameShop?$FN?5?$FLRequestItemBuy?$FN?5?$FL?$CFs?$FN@
  000b0	ff 15 00 00 00
	00		 call	 DWORD PTR ?LogAddTD@@3P6AXPADZZA ; LogAddTD

; 597  : 		pBuy.Result = true;
; 598  : 		DataSend(aIndex, (LPBYTE)&pBuy, pBuy.h.size);

  000b6	0f b6 55 f1	 movzx	 edx, BYTE PTR _pBuy$[ebp+1]
  000ba	52		 push	 edx
  000bb	8d 45 f0	 lea	 eax, DWORD PTR _pBuy$[ebp]
  000be	50		 push	 eax
  000bf	53		 push	 ebx
  000c0	c6 45 f4 01	 mov	 BYTE PTR _pBuy$[ebp+4], 1
  000c4	e8 00 00 00 00	 call	 ?DataSend@@YAHHPAEK@Z	; DataSend
  000c9	83 c4 14	 add	 esp, 20			; 00000014H
  000cc	5f		 pop	 edi
  000cd	5e		 pop	 esi
  000ce	5b		 pop	 ebx

; 745  : }

  000cf	8b 4d fc	 mov	 ecx, DWORD PTR __$ArrayPad$[ebp]
  000d2	33 cd		 xor	 ecx, ebp
  000d4	e8 00 00 00 00	 call	 @__security_check_cookie@4
  000d9	8b e5		 mov	 esp, ebp
  000db	5d		 pop	 ebp
  000dc	c2 08 00	 ret	 8
$LN28@RequestIte:

; 599  : 		return;
; 600  : 	}
; 601  : 	// ----
; 602  : 	if( this->RequestPackageBuy(aIndex, lpRequest) )

  000df	8b 4d e8	 mov	 ecx, DWORD PTR _this$GSCopy$[ebp]
  000e2	56		 push	 esi
  000e3	53		 push	 ebx
  000e4	e8 00 00 00 00	 call	 ?RequestPackageBuy@GameShop@@QAE_NHPAUGAMESHOP_REQ_BUY@@@Z ; GameShop::RequestPackageBuy
  000e9	84 c0		 test	 al, al
  000eb	0f 85 67 02 00
	00		 jne	 $LN29@RequestIte

; 603  : 	{
; 604  : 		return;
; 605  : 	}
; 606  : 	// ----
; 607  : 	GAMESHOP_ITEM_DATA * lpItem = this->GetItem(lpRequest->ItemID, lpRequest->IBSCategory, lpRequest->IBSIndex, 0);

  000f1	8b 4e 0c	 mov	 ecx, DWORD PTR [esi+12]
  000f4	8b 56 08	 mov	 edx, DWORD PTR [esi+8]
  000f7	0f b7 46 10	 movzx	 eax, WORD PTR [esi+16]
  000fb	6a 00		 push	 0
  000fd	51		 push	 ecx
  000fe	8b 4d e8	 mov	 ecx, DWORD PTR _this$GSCopy$[ebp]
  00101	52		 push	 edx
  00102	50		 push	 eax
  00103	e8 00 00 00 00	 call	 ?GetItem@GameShop@@QAEPAUGAMESHOP_ITEM_DATA@@FHHH@Z ; GameShop::GetItem
  00108	8b f0		 mov	 esi, eax

; 608  : 	// ----
; 609  : 	if( !lpItem )

  0010a	85 f6		 test	 esi, esi
  0010c	0f 84 46 02 00
	00		 je	 $LN29@RequestIte

; 610  : 	{
; 611  : 		return;
; 612  : 	}
; 613  : 	// ----
; 614  : 	pBuy.Result = true;

  00112	c6 45 f4 01	 mov	 BYTE PTR _pBuy$[ebp+4], 1

; 615  : 	// ----
; 616  : 	switch(lpItem->PointType)

  00116	0f b6 46 14	 movzx	 eax, BYTE PTR [esi+20]
  0011a	83 e8 00	 sub	 eax, 0
  0011d	0f 84 17 01 00
	00		 je	 $LN23@RequestIte
  00123	48		 dec	 eax
  00124	0f 84 8d 00 00
	00		 je	 $LN17@RequestIte
  0012a	48		 dec	 eax
  0012b	0f 85 15 02 00
	00		 jne	 $LN5@RequestIte

; 682  : 		// --
; 683  : 	case 2:	//-> GoblinPoint
; 684  : 		{
; 685  : #ifdef PRIVATE_MODULE
; 686  : 			if( g_ZtLicense.CheckUser(SILVER1) || g_ZtLicense.CheckUser(SILVER2))

  00131	6a 07		 push	 7
  00133	b9 00 00 00 00	 mov	 ecx, OFFSET ?g_ZtLicense@@3VCZtLicense@@A ; g_ZtLicense
  00138	e8 00 00 00 00	 call	 ?CheckUser@CZtLicense@@QAE_NH@Z ; CZtLicense::CheckUser
  0013d	84 c0		 test	 al, al
  0013f	75 39		 jne	 SHORT $LN9@RequestIte
  00141	6a 08		 push	 8
  00143	b9 00 00 00 00	 mov	 ecx, OFFSET ?g_ZtLicense@@3VCZtLicense@@A ; g_ZtLicense
  00148	e8 00 00 00 00	 call	 ?CheckUser@CZtLicense@@QAE_NH@Z ; CZtLicense::CheckUser
  0014d	84 c0		 test	 al, al
  0014f	75 29		 jne	 SHORT $LN9@RequestIte

; 694  : #endif
; 695  : 				}
; 696  : 			}
; 697  : 			else
; 698  : 			{
; 699  : 				if( lpUser->GameShop.GoblinPoint >= lpItem->Price )

  00151	db 46 10	 fild	 DWORD PTR [esi+16]
  00154	dc 97 08 23 00
	00		 fcom	 QWORD PTR [edi+8968]
  0015a	df e0		 fnstsw	 ax
  0015c	f6 c4 41	 test	 ah, 65			; 00000041H
  0015f	0f 8a 4d 01 00
	00		 jp	 $LN41@RequestIte

; 700  : 				{
; 701  : 					lpUser->GameShop.GoblinPoint -= lpItem->Price;

  00165	dc af 08 23 00
	00		 fsubr	 QWORD PTR [edi+8968]
  0016b	dd 9f 08 23 00
	00		 fstp	 QWORD PTR [edi+8968]

; 702  : 					pBuy.Result = false;

  00171	c6 45 f4 00	 mov	 BYTE PTR _pBuy$[ebp+4], 0
  00175	e9 44 01 00 00	 jmp	 $LN33@RequestIte
$LN9@RequestIte:

; 687  : 			{
; 688  : 				if( lpUser->ZtCred >= lpItem->Price )

  0017a	d9 87 a8 22 00
	00		 fld	 DWORD PTR [edi+8872]
  00180	db 46 10	 fild	 DWORD PTR [esi+16]
  00183	de d9		 fcompp
  00185	df e0		 fnstsw	 ax
  00187	f6 c4 41	 test	 ah, 65			; 00000041H
  0018a	0f 8a 24 01 00
	00		 jp	 $LN20@RequestIte

; 689  : 				{
; 690  : 					lpUser->ZtCred	-= lpItem->Price;

  00190	d9 87 a8 22 00
	00		 fld	 DWORD PTR [edi+8872]
  00196	da 66 10	 fisub	 DWORD PTR [esi+16]
  00199	d9 9f a8 22 00
	00		 fstp	 DWORD PTR [edi+8872]

; 691  : 					pBuy.Result = false;

  0019f	c6 45 f4 00	 mov	 BYTE PTR _pBuy$[ebp+4], 0

; 692  : #if(SYSTEM_ACHIEVEMENTS)
; 693  : 					g_Achievements.BuyDonateShopItem(aIndex, lpItem->Price);

  001a3	8b 4e 10	 mov	 ecx, DWORD PTR [esi+16]
  001a6	51		 push	 ecx
  001a7	53		 push	 ebx
  001a8	b9 00 00 00 00	 mov	 ecx, OFFSET ?g_Achievements@@3VCAchievements@@A ; g_Achievements
  001ad	e8 00 00 00 00	 call	 ?BuyDonateShopItem@CAchievements@@QAEXHH@Z ; CAchievements::BuyDonateShopItem

; 703  : 				}
; 704  : 			}
; 705  : #else
; 706  : 			if( lpUser->GameShop.GoblinPoint >= lpItem->Price )
; 707  : 			{
; 708  : 				lpUser->GameShop.GoblinPoint -= lpItem->Price;
; 709  : 				pBuy.Result = false;
; 710  : 			}
; 711  : #endif
; 712  : 
; 713  : 		}
; 714  : 		break;

  001b2	e9 fd 00 00 00	 jmp	 $LN20@RequestIte
$LN17@RequestIte:

; 638  : 				}
; 639  : 			}
; 640  : #else
; 641  : 			if( lpUser->GameShop.WCoinC >= lpItem->Price )
; 642  : 			{
; 643  : 				lpUser->GameShop.WCoinC	-= lpItem->Price;
; 644  : 				pBuy.Result = false;
; 645  : 			}
; 646  : #endif
; 647  : 		}
; 648  : 		break;
; 649  : 		// --
; 650  : 	case 1:	//-> WCoinP
; 651  : 		{
; 652  : #ifdef PRIVATE_MODULE
; 653  : 			if(g_ZtLicense.CheckUser(SILVER1) || g_ZtLicense.CheckUser(SILVER2))

  001b7	6a 07		 push	 7
  001b9	b9 00 00 00 00	 mov	 ecx, OFFSET ?g_ZtLicense@@3VCZtLicense@@A ; g_ZtLicense
  001be	e8 00 00 00 00	 call	 ?CheckUser@CZtLicense@@QAE_NH@Z ; CZtLicense::CheckUser
  001c3	84 c0		 test	 al, al
  001c5	75 39		 jne	 SHORT $LN15@RequestIte
  001c7	6a 08		 push	 8
  001c9	b9 00 00 00 00	 mov	 ecx, OFFSET ?g_ZtLicense@@3VCZtLicense@@A ; g_ZtLicense
  001ce	e8 00 00 00 00	 call	 ?CheckUser@CZtLicense@@QAE_NH@Z ; CZtLicense::CheckUser
  001d3	84 c0		 test	 al, al
  001d5	75 29		 jne	 SHORT $LN15@RequestIte

; 661  : #endif
; 662  : 				}
; 663  : 			}
; 664  : 			else
; 665  : 			{
; 666  : 				if( lpUser->GameShop.WCoinP >= lpItem->Price )

  001d7	db 46 10	 fild	 DWORD PTR [esi+16]
  001da	dc 97 f8 22 00
	00		 fcom	 QWORD PTR [edi+8952]
  001e0	df e0		 fnstsw	 ax
  001e2	f6 c4 41	 test	 ah, 65			; 00000041H
  001e5	0f 8a c7 00 00
	00		 jp	 $LN41@RequestIte

; 667  : 				{
; 668  : 					lpUser->GameShop.WCoinP	-= lpItem->Price;

  001eb	dc af f8 22 00
	00		 fsubr	 QWORD PTR [edi+8952]
  001f1	dd 9f f8 22 00
	00		 fstp	 QWORD PTR [edi+8952]

; 669  : 					pBuy.Result = false;

  001f7	c6 45 f4 00	 mov	 BYTE PTR _pBuy$[ebp+4], 0
  001fb	e9 be 00 00 00	 jmp	 $LN33@RequestIte
$LN15@RequestIte:

; 654  : 			{
; 655  : 				if( lpUser->ZtCred >= lpItem->Price )

  00200	d9 87 a8 22 00
	00		 fld	 DWORD PTR [edi+8872]
  00206	db 46 10	 fild	 DWORD PTR [esi+16]
  00209	de d9		 fcompp
  0020b	df e0		 fnstsw	 ax
  0020d	f6 c4 41	 test	 ah, 65			; 00000041H
  00210	0f 8a 9e 00 00
	00		 jp	 $LN20@RequestIte

; 656  : 				{
; 657  : 					lpUser->ZtCred	-= lpItem->Price;

  00216	d9 87 a8 22 00
	00		 fld	 DWORD PTR [edi+8872]

; 658  : 					pBuy.Result = false;
; 659  : #if(SYSTEM_ACHIEVEMENTS)
; 660  : 					g_Achievements.BuyDonateShopItem(aIndex, lpItem->Price);

  0021c	b9 00 00 00 00	 mov	 ecx, OFFSET ?g_Achievements@@3VCAchievements@@A ; g_Achievements
  00221	da 66 10	 fisub	 DWORD PTR [esi+16]
  00224	d9 9f a8 22 00
	00		 fstp	 DWORD PTR [edi+8872]
  0022a	c6 45 f4 00	 mov	 BYTE PTR _pBuy$[ebp+4], 0
  0022e	8b 56 10	 mov	 edx, DWORD PTR [esi+16]
  00231	52		 push	 edx
  00232	53		 push	 ebx
  00233	e8 00 00 00 00	 call	 ?BuyDonateShopItem@CAchievements@@QAEXHH@Z ; CAchievements::BuyDonateShopItem

; 670  : 				}
; 671  : 			}
; 672  : #else
; 673  : 			if( lpUser->GameShop.WCoinP >= lpItem->Price )
; 674  : 			{
; 675  : 				lpUser->GameShop.WCoinP	-= lpItem->Price;
; 676  : 				pBuy.Result = false;
; 677  : 			}
; 678  : #endif
; 679  : 
; 680  : 		}
; 681  : 		break;

  00238	eb 7a		 jmp	 SHORT $LN20@RequestIte
$LN23@RequestIte:

; 617  : 	{
; 618  : 	case 0:	//-> WCoinC
; 619  : 		{
; 620  : #ifdef PRIVATE_MODULE
; 621  : 			if( g_ZtLicense.CheckUser(SILVER1) || g_ZtLicense.CheckUser(SILVER2))

  0023a	6a 07		 push	 7
  0023c	b9 00 00 00 00	 mov	 ecx, OFFSET ?g_ZtLicense@@3VCZtLicense@@A ; g_ZtLicense
  00241	e8 00 00 00 00	 call	 ?CheckUser@CZtLicense@@QAE_NH@Z ; CZtLicense::CheckUser
  00246	84 c0		 test	 al, al
  00248	75 32		 jne	 SHORT $LN21@RequestIte
  0024a	6a 08		 push	 8
  0024c	b9 00 00 00 00	 mov	 ecx, OFFSET ?g_ZtLicense@@3VCZtLicense@@A ; g_ZtLicense
  00251	e8 00 00 00 00	 call	 ?CheckUser@CZtLicense@@QAE_NH@Z ; CZtLicense::CheckUser
  00256	84 c0		 test	 al, al
  00258	75 22		 jne	 SHORT $LN21@RequestIte

; 629  : #endif
; 630  : 				}
; 631  : 			}
; 632  : 			else
; 633  : 			{
; 634  : 				if( lpUser->GameShop.WCoinC >= lpItem->Price )

  0025a	db 46 10	 fild	 DWORD PTR [esi+16]
  0025d	dc 97 00 23 00
	00		 fcom	 QWORD PTR [edi+8960]
  00263	df e0		 fnstsw	 ax
  00265	f6 c4 41	 test	 ah, 65			; 00000041H
  00268	7a 48		 jp	 SHORT $LN41@RequestIte

; 635  : 				{
; 636  : 					lpUser->GameShop.WCoinC	-= lpItem->Price;

  0026a	dc af 00 23 00
	00		 fsubr	 QWORD PTR [edi+8960]
  00270	dd 9f 00 23 00
	00		 fstp	 QWORD PTR [edi+8960]

; 637  : 					pBuy.Result = false;

  00276	c6 45 f4 00	 mov	 BYTE PTR _pBuy$[ebp+4], 0
  0027a	eb 42		 jmp	 SHORT $LN33@RequestIte
$LN21@RequestIte:

; 622  : 			{
; 623  : 				if( lpUser->ZtCred >= lpItem->Price )

  0027c	d9 87 a8 22 00
	00		 fld	 DWORD PTR [edi+8872]
  00282	db 46 10	 fild	 DWORD PTR [esi+16]
  00285	de d9		 fcompp
  00287	df e0		 fnstsw	 ax
  00289	f6 c4 41	 test	 ah, 65			; 00000041H
  0028c	7a 26		 jp	 SHORT $LN20@RequestIte

; 624  : 				{
; 625  : 					lpUser->ZtCred	-= lpItem->Price;

  0028e	d9 87 a8 22 00
	00		 fld	 DWORD PTR [edi+8872]

; 626  : 					pBuy.Result = false;
; 627  : #if(SYSTEM_ACHIEVEMENTS)
; 628  : 					g_Achievements.BuyDonateShopItem(aIndex, lpItem->Price);

  00294	b9 00 00 00 00	 mov	 ecx, OFFSET ?g_Achievements@@3VCAchievements@@A ; g_Achievements
  00299	da 66 10	 fisub	 DWORD PTR [esi+16]
  0029c	d9 9f a8 22 00
	00		 fstp	 DWORD PTR [edi+8872]
  002a2	c6 45 f4 00	 mov	 BYTE PTR _pBuy$[ebp+4], 0
  002a6	8b 46 10	 mov	 eax, DWORD PTR [esi+16]
  002a9	50		 push	 eax
  002aa	53		 push	 ebx
  002ab	e8 00 00 00 00	 call	 ?BuyDonateShopItem@CAchievements@@QAEXHH@Z ; CAchievements::BuyDonateShopItem

; 694  : #endif
; 695  : 				}
; 696  : 			}
; 697  : 			else
; 698  : 			{
; 699  : 				if( lpUser->GameShop.GoblinPoint >= lpItem->Price )

  002b0	eb 02		 jmp	 SHORT $LN20@RequestIte
$LN41@RequestIte:

; 629  : #endif
; 630  : 				}
; 631  : 			}
; 632  : 			else
; 633  : 			{
; 634  : 				if( lpUser->GameShop.WCoinC >= lpItem->Price )

  002b2	dd d8		 fstp	 ST(0)
$LN20@RequestIte:

; 715  : 	}
; 716  : 	// ----
; 717  : 	if( !pBuy.Result )

  002b4	80 7d f4 00	 cmp	 BYTE PTR _pBuy$[ebp+4], 0
  002b8	0f 85 88 00 00
	00		 jne	 $LN5@RequestIte
$LN33@RequestIte:

; 718  : 	{
; 719  : 		if( this->AddItemInStorage(aIndex, lpItem, 0) )

  002be	8b 4d e8	 mov	 ecx, DWORD PTR _this$GSCopy$[ebp]
  002c1	6a 00		 push	 0
  002c3	56		 push	 esi
  002c4	53		 push	 ebx
  002c5	e8 00 00 00 00	 call	 ?AddItemInStorage@GameShop@@QAE_NHPAUGAMESHOP_ITEM_DATA@@E@Z ; GameShop::AddItemInStorage
  002ca	84 c0		 test	 al, al
  002cc	74 2d		 je	 SHORT $LN4@RequestIte

; 720  : 		{
; 721  : 			LogAddTD("[GameShop] [RequestItemBuy] [ADD] [%s] (%d) %d %d %d",
; 722  : 				&gObj[aIndex].AccountID, lpItem->ItemID, 
; 723  : 				lpItem->IBSCategory, lpItem->IBSIndex, 
; 724  : 				lpItem->IBSID);

  002ce	8b 4e 1c	 mov	 ecx, DWORD PTR [esi+28]
  002d1	8b 56 24	 mov	 edx, DWORD PTR [esi+36]
  002d4	8b 46 20	 mov	 eax, DWORD PTR [esi+32]
  002d7	51		 push	 ecx
  002d8	0f bf 4e 02	 movsx	 ecx, WORD PTR [esi+2]
  002dc	52		 push	 edx
  002dd	8b 15 00 00 00
	00		 mov	 edx, DWORD PTR ?gObj@@3PAUOBJECTSTRUCT@@A ; gObj
  002e3	50		 push	 eax
  002e4	8b 45 ec	 mov	 eax, DWORD PTR tv384[ebp]
  002e7	51		 push	 ecx
  002e8	8d 4c 10 6c	 lea	 ecx, DWORD PTR [eax+edx+108]
  002ec	51		 push	 ecx
  002ed	68 00 00 00 00	 push	 OFFSET ??_C@_0DF@KPCANCNG@?$FLGameShop?$FN?5?$FLRequestItemBuy?$FN?5?$FLADD@
  002f2	ff 15 00 00 00
	00		 call	 DWORD PTR ?LogAddTD@@3P6AXPADZZA ; LogAddTD
  002f8	83 c4 18	 add	 esp, 24			; 00000018H
$LN4@RequestIte:

; 725  : 		}
; 726  : 		// ----
; 727  : 		if( lpItem->GPBonus )

  002fb	8b 76 18	 mov	 esi, DWORD PTR [esi+24]
  002fe	89 75 ec	 mov	 DWORD PTR tv483[ebp], esi
  00301	85 f6		 test	 esi, esi

; 728  : 		{
; 729  : 			lpUser->GameShop.GoblinPoint += lpItem->GPBonus;

  00303	8b 75 e8	 mov	 esi, DWORD PTR _this$GSCopy$[ebp]
  00306	74 05		 je	 SHORT $LN3@RequestIte
  00308	db 45 ec	 fild	 DWORD PTR tv483[ebp]
  0030b	eb 0d		 jmp	 SHORT $LN44@RequestIte
$LN3@RequestIte:

; 730  : 		}
; 731  : 		else if( this->OptionData.AddGPBonus )

  0030d	8b 46 14	 mov	 eax, DWORD PTR [esi+20]
  00310	89 45 ec	 mov	 DWORD PTR tv489[ebp], eax
  00313	85 c0		 test	 eax, eax
  00315	74 0f		 je	 SHORT $LN1@RequestIte

; 732  : 		{
; 733  : 			lpUser->GameShop.GoblinPoint += this->OptionData.AddGPBonus;

  00317	db 45 ec	 fild	 DWORD PTR tv489[ebp]
$LN44@RequestIte:
  0031a	dc 87 08 23 00
	00		 fadd	 QWORD PTR [edi+8968]
  00320	dd 9f 08 23 00
	00		 fstp	 QWORD PTR [edi+8968]
$LN1@RequestIte:

; 734  : 		}
; 735  : 		// ----
; 736  : 		GAMESHOP_REQ_STORAGE pUpdate;
; 737  : 		pUpdate.StorageType = 0x53;
; 738  : 		// ----
; 739  : 		this->GDSaveUserInfo(aIndex);

  00326	53		 push	 ebx
  00327	8b ce		 mov	 ecx, esi
  00329	c6 45 e4 53	 mov	 BYTE PTR _pUpdate$212713[ebp+8], 83 ; 00000053H
  0032d	e8 00 00 00 00	 call	 ?GDSaveUserInfo@GameShop@@QAEXH@Z ; GameShop::GDSaveUserInfo

; 740  : 		this->RequestStorage(aIndex, &pUpdate);

  00332	8d 55 dc	 lea	 edx, DWORD PTR _pUpdate$212713[ebp]
  00335	52		 push	 edx
  00336	53		 push	 ebx
  00337	8b ce		 mov	 ecx, esi
  00339	e8 00 00 00 00	 call	 ?RequestStorage@GameShop@@QAEXHPAUGAMESHOP_REQ_STORAGE@@@Z ; GameShop::RequestStorage

; 741  : 		this->RequestPoint(aIndex);

  0033e	53		 push	 ebx
  0033f	8b ce		 mov	 ecx, esi
  00341	e8 00 00 00 00	 call	 ?RequestPoint@GameShop@@QAEXH@Z ; GameShop::RequestPoint
$LN5@RequestIte:

; 742  : 	}
; 743  : 	// ----
; 744  : 	DataSend(aIndex, (LPBYTE)&pBuy, pBuy.h.size);

  00346	0f b6 45 f1	 movzx	 eax, BYTE PTR _pBuy$[ebp+1]
  0034a	50		 push	 eax
  0034b	8d 4d f0	 lea	 ecx, DWORD PTR _pBuy$[ebp]
  0034e	51		 push	 ecx
  0034f	53		 push	 ebx
  00350	e8 00 00 00 00	 call	 ?DataSend@@YAHHPAEK@Z	; DataSend
  00355	83 c4 0c	 add	 esp, 12			; 0000000cH
$LN29@RequestIte:

; 745  : }

  00358	8b 4d fc	 mov	 ecx, DWORD PTR __$ArrayPad$[ebp]
  0035b	5f		 pop	 edi
  0035c	5e		 pop	 esi
  0035d	33 cd		 xor	 ecx, ebp
  0035f	5b		 pop	 ebx
  00360	e8 00 00 00 00	 call	 @__security_check_cookie@4
  00365	8b e5		 mov	 esp, ebp
  00367	5d		 pop	 ebp
  00368	c2 08 00	 ret	 8
?RequestItemBuy@GameShop@@QAEXHPAUGAMESHOP_REQ_BUY@@@Z ENDP ; GameShop::RequestItemBuy
_TEXT	ENDS
PUBLIC	??_C@_0O@PIFLKMEL@?$FLGameShop?$FN?5?$CFd?$AA@	; `string'
PUBLIC	?RequestStorageItemUse@GameShop@@QAEXHPAUGAMESHOP_REQ_STORAGEITEMUSE@@@Z ; GameShop::RequestStorageItemUse
EXTRN	?ItemSerialCreateSend@@YAXHEEEHEEEEEHEE@Z:PROC	; ItemSerialCreateSend
EXTRN	?GDReqPeriodItemInsert@CCashItemPeriodSystem@@QAEXPAUOBJECTSTRUCT@@HH@Z:PROC ; CCashItemPeriodSystem::GDReqPeriodItemInsert
EXTRN	?SearchAndDeleteItemPeriodEffect@CCashItemPeriodSystem@@QAE_NPAUOBJECTSTRUCT@@H@Z:PROC ; CCashItemPeriodSystem::SearchAndDeleteItemPeriodEffect
EXTRN	?g_CashItemPeriodSystem@@3VCCashItemPeriodSystem@@A:BYTE ; g_CashItemPeriodSystem
EXTRN	?GetBuffDataFromItemCode@CBuffEffect@@QAEPAUBUFF_EFFECT_DATA@@G@Z:PROC ; CBuffEffect::GetBuffDataFromItemCode
EXTRN	?g_BuffEffect@@3VCBuffEffect@@A:BYTE		; g_BuffEffect
EXTRN	?CheckInventoryEmptySpace@@YAHPAUOBJECTSTRUCT@@HH@Z:PROC ; CheckInventoryEmptySpace
;	COMDAT ??_C@_0O@PIFLKMEL@?$FLGameShop?$FN?5?$CFd?$AA@
CONST	SEGMENT
??_C@_0O@PIFLKMEL@?$FLGameShop?$FN?5?$CFd?$AA@ DB '[GameShop] %d', 00H ; `string'
; Function compile flags: /Ogtp
CONST	ENDS
;	COMDAT ?RequestStorageItemUse@GameShop@@QAEXHPAUGAMESHOP_REQ_STORAGEITEMUSE@@@Z
_TEXT	SEGMENT
_pAnswer$ = -12						; size = 5
_this$ = -4						; size = 4
_aIndex$ = 8						; size = 4
_lpRequest$ = 12					; size = 4
?RequestStorageItemUse@GameShop@@QAEXHPAUGAMESHOP_REQ_STORAGEITEMUSE@@@Z PROC ; GameShop::RequestStorageItemUse, COMDAT
; _this$ = ecx

; 973  : {

  00000	55		 push	 ebp
  00001	8b ec		 mov	 ebp, esp
  00003	83 ec 0c	 sub	 esp, 12			; 0000000cH
  00006	53		 push	 ebx
  00007	56		 push	 esi
  00008	57		 push	 edi

; 974  : #if( GAMESHOP_DEBUG == 1 )
; 975  : 	LogAddC(2, "[DEBUG] [%s] [%s] [%s]", __FUNCTION__, &gObj[aIndex].AccountID, &gObj[aIndex].Name);
; 976  : #endif
; 977  : 	// ----
; 978  : 	LPOBJ lpUser = &gObj[aIndex];

  00009	8b 7d 08	 mov	 edi, DWORD PTR _aIndex$[ebp]
  0000c	8b df		 mov	 ebx, edi
  0000e	69 db 50 2b 00
	00		 imul	 ebx, 11088		; 00002b50H
  00014	03 1d 00 00 00
	00		 add	 ebx, DWORD PTR ?gObj@@3PAUOBJECTSTRUCT@@A ; gObj
  0001a	8b f1		 mov	 esi, ecx

; 979  : 	// ----
; 980  : 	if( !gObjIsConnected(aIndex) || lpUser->Connected != PLAYER_PLAYING )

  0001c	57		 push	 edi
  0001d	89 75 fc	 mov	 DWORD PTR _this$[ebp], esi
  00020	e8 00 00 00 00	 call	 ?gObjIsConnected@@YAHH@Z ; gObjIsConnected
  00025	83 c4 04	 add	 esp, 4
  00028	85 c0		 test	 eax, eax
  0002a	0f 84 9a 01 00
	00		 je	 $LN8@RequestSto@2
  00030	83 7b 04 03	 cmp	 DWORD PTR [ebx+4], 3
  00034	0f 85 90 01 00
	00		 jne	 $LN8@RequestSto@2

; 981  : 	{
; 982  : 		return;
; 983  : 	}
; 984  : 	// ----
; 985  : 	GAMESHOP_ANS_STORAGE_ITEM_USE pAnswer;
; 986  : 	PHeadSubSetB((LPBYTE)&pAnswer, 0xD2, cStorageItemUse, sizeof(pAnswer));

  0003a	6a 05		 push	 5
  0003c	6a 0b		 push	 11			; 0000000bH
  0003e	8d 45 f4	 lea	 eax, DWORD PTR _pAnswer$[ebp]
  00041	68 d2 00 00 00	 push	 210			; 000000d2H
  00046	50		 push	 eax
  00047	e8 00 00 00 00	 call	 ?PHeadSubSetB@@YAXPAEEEH@Z ; PHeadSubSetB

; 987  : 	// ----
; 988  : 	GAMESHOP_ITEM_DATA * lpItem = this->GetStorageItem(aIndex, lpRequest->AuthIndex, lpRequest->AuthID);

  0004c	8b 45 0c	 mov	 eax, DWORD PTR _lpRequest$[ebp]
  0004f	8b 48 08	 mov	 ecx, DWORD PTR [eax+8]
  00052	8b 50 04	 mov	 edx, DWORD PTR [eax+4]
  00055	83 c4 10	 add	 esp, 16			; 00000010H
  00058	51		 push	 ecx
  00059	52		 push	 edx
  0005a	57		 push	 edi
  0005b	8b ce		 mov	 ecx, esi
  0005d	e8 00 00 00 00	 call	 ?GetStorageItem@GameShop@@QAEPAUGAMESHOP_ITEM_DATA@@HHH@Z ; GameShop::GetStorageItem
  00062	8b f0		 mov	 esi, eax

; 989  : 	// ----
; 990  : 	if( !lpItem || !CheckInventoryEmptySpace(lpUser, lpItem->X, lpItem->Y) )

  00064	85 f6		 test	 esi, esi
  00066	0f 84 36 01 00
	00		 je	 $LN6@RequestSto@2
  0006c	0f b6 46 05	 movzx	 eax, BYTE PTR [esi+5]
  00070	0f b6 4e 04	 movzx	 ecx, BYTE PTR [esi+4]
  00074	50		 push	 eax
  00075	51		 push	 ecx
  00076	53		 push	 ebx
  00077	e8 00 00 00 00	 call	 ?CheckInventoryEmptySpace@@YAHPAUOBJECTSTRUCT@@HH@Z ; CheckInventoryEmptySpace
  0007c	83 c4 0c	 add	 esp, 12			; 0000000cH
  0007f	85 c0		 test	 eax, eax
  00081	0f 84 1b 01 00
	00		 je	 $LN6@RequestSto@2

; 995  : 		return;
; 996  : 	}
; 997  : 
; 998  : 	//ZtTeam Code
; 999  : 	//if ( g_CashItemPeriodSystem.CheckBuffUser(lpUser,lpItem->ItemID) == TRUE )
; 1000 : 	//{
; 1001 : 	//	pAnswer.Result = 1;	//true
; 1002 : 	//	DataSend(aIndex, (LPBYTE)&pAnswer, pAnswer.h.size);
; 1003 : 	//	LogAddC(3, "[GameShop] %d", __LINE__);
; 1004 : 	//	return;
; 1005 : 	//}
; 1006 : 
; 1007 : 	// ----
; 1008 : 	if( !DeleteItemInStorage(aIndex, lpRequest->AuthIndex, lpRequest->AuthID) )

  00087	8b 45 0c	 mov	 eax, DWORD PTR _lpRequest$[ebp]
  0008a	8b 50 08	 mov	 edx, DWORD PTR [eax+8]
  0008d	8b 40 04	 mov	 eax, DWORD PTR [eax+4]
  00090	8b 4d fc	 mov	 ecx, DWORD PTR _this$[ebp]
  00093	52		 push	 edx
  00094	50		 push	 eax
  00095	57		 push	 edi
  00096	e8 00 00 00 00	 call	 ?DeleteItemInStorage@GameShop@@QAE_NHHH@Z ; GameShop::DeleteItemInStorage
  0009b	84 c0		 test	 al, al
  0009d	75 1e		 jne	 SHORT $LN5@RequestSto@2

; 1009 : 	{
; 1010 : 		LogAddC(3, "[GameShop] %d", __LINE__);

  0009f	68 f2 03 00 00	 push	 1010			; 000003f2H
  000a4	68 00 00 00 00	 push	 OFFSET ??_C@_0O@PIFLKMEL@?$FLGameShop?$FN?5?$CFd?$AA@
  000a9	6a 03		 push	 3
  000ab	ff 15 00 00 00
	00		 call	 DWORD PTR ?LogAddC@@3P6AXEPADZZA ; LogAddC
  000b1	83 c4 0c	 add	 esp, 12			; 0000000cH
  000b4	5f		 pop	 edi
  000b5	5e		 pop	 esi
  000b6	5b		 pop	 ebx

; 1080 : }

  000b7	8b e5		 mov	 esp, ebp
  000b9	5d		 pop	 ebp
  000ba	c2 08 00	 ret	 8
$LN5@RequestSto@2:

; 1011 : 		return;
; 1012 : 	}
; 1013 : 
; 1014 : 
; 1015 : 
; 1016 : 	// ----
; 1017 : 	//ZTeam
; 1018 : 	//if(g_CashShop.IsGetAmountFromShopItem(lpItem->ItemID) && !this->IsInventoryBuff(lpItem->ItemID))
; 1019 : 	//{
; 1020 : 	//	g_CashItemPeriodSystem.SearchAndDeleteItemPeriodEffect(lpUser, lpItem->ItemID);	//fix
; 1021 : 	//	g_CashItemPeriodSystem.GDReqPeriodItemInsert(lpUser, lpItem->ItemID, lpItem->Duration);
; 1022 : 	//}
; 1023 : 	//if( g_BuffScript.GetBuffDataFromItemCode(lpItem->ItemID) //-> Buff
; 1024 : 	//	&& !this->IsInventoryBuff(lpItem->ItemID) )	
; 1025 : 	//{
; 1026 : 	//	g_CashItemPeriodSystem.SearchAndDeleteItemPeriodEffect(lpUser, lpItem->ItemID);	//fix
; 1027 : 	//	g_CashItemPeriodSystem.GDReqPeriodItemInsert(lpUser, lpItem->ItemID, lpItem->Duration);
; 1028 : 	//}
; 1029 : 
; 1030 : 	
; 1031 : 	//if( g_CashShop.CheckPeriodItem(lpItem->ItemID) //-> Buff
; 1032 : 	//	&& !this->IsInventoryBuff(lpItem->ItemID) )	
; 1033 : 	//{
; 1034 : 	//	g_CashItemPeriodSystem.SearchAndDeleteItemPeriodEffect(lpUser, lpItem->ItemID);	//fix
; 1035 : 	//	g_CashItemPeriodSystem.GDReqPeriodItemInsert(lpUser, lpItem->ItemID, lpItem->Duration);
; 1036 : 	//}
; 1037 : 
; 1038 : 
; 1039 : 
; 1040 : 	//ZtTeam
; 1041 : 	if( g_BuffEffect.GetBuffDataFromItemCode(lpItem->ItemID) //-> Buff
; 1042 : 		&& !this->IsInventoryBuff(lpItem->ItemID) )	

  000bd	0f b7 4e 02	 movzx	 ecx, WORD PTR [esi+2]
  000c1	51		 push	 ecx
  000c2	b9 00 00 00 00	 mov	 ecx, OFFSET ?g_BuffEffect@@3VCBuffEffect@@A ; g_BuffEffect
  000c7	e8 00 00 00 00	 call	 ?GetBuffDataFromItemCode@CBuffEffect@@QAEPAUBUFF_EFFECT_DATA@@G@Z ; CBuffEffect::GetBuffDataFromItemCode
  000cc	85 c0		 test	 eax, eax
  000ce	74 36		 je	 SHORT $LN4@RequestSto@2
  000d0	0f b7 56 02	 movzx	 edx, WORD PTR [esi+2]
  000d4	8b 4d fc	 mov	 ecx, DWORD PTR _this$[ebp]
  000d7	52		 push	 edx
  000d8	e8 00 00 00 00	 call	 ?IsInventoryBuff@GameShop@@QAE_NF@Z ; GameShop::IsInventoryBuff
  000dd	84 c0		 test	 al, al
  000df	75 25		 jne	 SHORT $LN4@RequestSto@2

; 1043 : 	{
; 1044 : 		g_CashItemPeriodSystem.SearchAndDeleteItemPeriodEffect(lpUser, lpItem->ItemID);	//fix

  000e1	0f bf d2	 movsx	 edx, dx
  000e4	52		 push	 edx
  000e5	53		 push	 ebx
  000e6	b9 00 00 00 00	 mov	 ecx, OFFSET ?g_CashItemPeriodSystem@@3VCCashItemPeriodSystem@@A ; g_CashItemPeriodSystem
  000eb	e8 00 00 00 00	 call	 ?SearchAndDeleteItemPeriodEffect@CCashItemPeriodSystem@@QAE_NPAUOBJECTSTRUCT@@H@Z ; CCashItemPeriodSystem::SearchAndDeleteItemPeriodEffect

; 1045 : 		g_CashItemPeriodSystem.GDReqPeriodItemInsert(lpUser, lpItem->ItemID, lpItem->Duration);

  000f0	0f bf 4e 02	 movsx	 ecx, WORD PTR [esi+2]
  000f4	8b 46 0c	 mov	 eax, DWORD PTR [esi+12]
  000f7	50		 push	 eax
  000f8	51		 push	 ecx
  000f9	53		 push	 ebx
  000fa	b9 00 00 00 00	 mov	 ecx, OFFSET ?g_CashItemPeriodSystem@@3VCCashItemPeriodSystem@@A ; g_CashItemPeriodSystem
  000ff	e8 00 00 00 00	 call	 ?GDReqPeriodItemInsert@CCashItemPeriodSystem@@QAEXPAUOBJECTSTRUCT@@HH@Z ; CCashItemPeriodSystem::GDReqPeriodItemInsert
  00104	eb 74		 jmp	 SHORT $LN1@RequestSto@2
$LN4@RequestSto@2:

; 1046 : 	}
; 1047 : 	else if( lpItem->Duration > 0 )	//-> Period item
; 1048 : 	{
; 1049 : 		ItemSerialCreateSend(aIndex, 236, 0, 0, lpItem->ItemID, lpItem->Level, lpItem->Durability, 
; 1050 : 			lpItem->Skill, lpItem->Luck, lpItem->Option, lpItem->Duration * 60, lpItem->Excellent, 0);

  00106	0f b6 56 0b	 movzx	 edx, BYTE PTR [esi+11]
  0010a	8b 46 0c	 mov	 eax, DWORD PTR [esi+12]
  0010d	6a 00		 push	 0
  0010f	52		 push	 edx
  00110	85 c0		 test	 eax, eax
  00112	7e 35		 jle	 SHORT $LN2@RequestSto@2
  00114	0f b6 56 0a	 movzx	 edx, BYTE PTR [esi+10]
  00118	8b c8		 mov	 ecx, eax
  0011a	c1 e1 04	 shl	 ecx, 4
  0011d	2b c8		 sub	 ecx, eax
  0011f	0f b6 46 09	 movzx	 eax, BYTE PTR [esi+9]
  00123	03 c9		 add	 ecx, ecx
  00125	03 c9		 add	 ecx, ecx
  00127	51		 push	 ecx
  00128	0f b6 4e 08	 movzx	 ecx, BYTE PTR [esi+8]
  0012c	52		 push	 edx
  0012d	0f b6 56 07	 movzx	 edx, BYTE PTR [esi+7]
  00131	50		 push	 eax
  00132	0f b6 46 06	 movzx	 eax, BYTE PTR [esi+6]
  00136	51		 push	 ecx
  00137	0f bf 4e 02	 movsx	 ecx, WORD PTR [esi+2]
  0013b	52		 push	 edx
  0013c	50		 push	 eax
  0013d	51		 push	 ecx
  0013e	6a 00		 push	 0
  00140	6a 00		 push	 0
  00142	68 ec 00 00 00	 push	 236			; 000000ecH

; 1051 : 	}
; 1052 : 	else	//-> Simply item

  00147	eb 28		 jmp	 SHORT $LN12@RequestSto@2
$LN2@RequestSto@2:

; 1053 : 	{
; 1054 : 		ItemSerialCreateSend(aIndex, 235, 0, 0, lpItem->ItemID, lpItem->Level, lpItem->Durability, 
; 1055 : 			lpItem->Skill, lpItem->Luck, lpItem->Option, aIndex, lpItem->Excellent, 0);

  00149	0f b6 46 0a	 movzx	 eax, BYTE PTR [esi+10]
  0014d	0f b6 4e 09	 movzx	 ecx, BYTE PTR [esi+9]
  00151	0f b6 56 08	 movzx	 edx, BYTE PTR [esi+8]
  00155	57		 push	 edi
  00156	50		 push	 eax
  00157	0f b6 46 07	 movzx	 eax, BYTE PTR [esi+7]
  0015b	51		 push	 ecx
  0015c	0f b6 4e 06	 movzx	 ecx, BYTE PTR [esi+6]
  00160	52		 push	 edx
  00161	0f bf 56 02	 movsx	 edx, WORD PTR [esi+2]
  00165	50		 push	 eax
  00166	51		 push	 ecx
  00167	52		 push	 edx
  00168	6a 00		 push	 0
  0016a	6a 00		 push	 0
  0016c	68 eb 00 00 00	 push	 235			; 000000ebH
$LN12@RequestSto@2:
  00171	57		 push	 edi
  00172	e8 00 00 00 00	 call	 ?ItemSerialCreateSend@@YAXHEEEHEEEEEHEE@Z ; ItemSerialCreateSend
  00177	83 c4 34	 add	 esp, 52			; 00000034H
$LN1@RequestSto@2:

; 1056 : 	}
; 1057 : 	// ----
; 1058 : 
; 1059 : 	//if( g_CashShop.CheckPeriodItem(lpUser, lpItem->ItemID) //-> Buff
; 1060 : 	//	&& !this->IsInventoryBuff(lpItem->ItemID) )	
; 1061 : 	//{
; 1062 : 	//	g_CashItemPeriodSystem.SearchAndDeleteItemPeriodEffect(lpUser, lpItem->ItemID);	//fix
; 1063 : 	//	g_CashItemPeriodSystem.GDReqPeriodItemInsert(lpUser, lpItem->ItemID, lpItem->Duration);
; 1064 : 	//}
; 1065 : 	//else if( lpItem->Duration > 0 )	//-> Period item
; 1066 : 	//{
; 1067 : 	//	ItemSerialCreateSend(aIndex, 236, 0, 0, lpItem->ItemID, lpItem->Level, lpItem->Durability, 
; 1068 : 	//		lpItem->Skill, lpItem->Luck, lpItem->Option, lpItem->Duration * 60, lpItem->Excellent, 0);
; 1069 : 	//}
; 1070 : 	//else	//-> Simply item
; 1071 : 	//{
; 1072 : 	//	ItemSerialCreateSend(aIndex, 235, 0, 0, lpItem->ItemID, lpItem->Level, lpItem->Durability, 
; 1073 : 	//		lpItem->Skill, lpItem->Luck, lpItem->Option, aIndex, lpItem->Excellent, 0);
; 1074 : 	//}
; 1075 : 
; 1076 : 	pAnswer.Result = false;
; 1077 : 	DataSend(aIndex, (LPBYTE)&pAnswer, pAnswer.h.size);

  0017a	0f b6 45 f5	 movzx	 eax, BYTE PTR _pAnswer$[ebp+1]
  0017e	50		 push	 eax
  0017f	8d 4d f4	 lea	 ecx, DWORD PTR _pAnswer$[ebp]
  00182	51		 push	 ecx
  00183	57		 push	 edi
  00184	c6 45 f8 00	 mov	 BYTE PTR _pAnswer$[ebp+4], 0
  00188	e8 00 00 00 00	 call	 ?DataSend@@YAHHPAEK@Z	; DataSend

; 1078 : 	// ----
; 1079 : 	this->GDSaveUserInfo(aIndex);

  0018d	8b 4d fc	 mov	 ecx, DWORD PTR _this$[ebp]
  00190	83 c4 0c	 add	 esp, 12			; 0000000cH
  00193	57		 push	 edi
  00194	e8 00 00 00 00	 call	 ?GDSaveUserInfo@GameShop@@QAEXH@Z ; GameShop::GDSaveUserInfo
  00199	5f		 pop	 edi
  0019a	5e		 pop	 esi
  0019b	5b		 pop	 ebx

; 1080 : }

  0019c	8b e5		 mov	 esp, ebp
  0019e	5d		 pop	 ebp
  0019f	c2 08 00	 ret	 8
$LN6@RequestSto@2:

; 991  : 	{
; 992  : 		pAnswer.Result = 1;	//true
; 993  : 		DataSend(aIndex, (LPBYTE)&pAnswer, pAnswer.h.size);

  001a2	0f b6 55 f5	 movzx	 edx, BYTE PTR _pAnswer$[ebp+1]
  001a6	52		 push	 edx
  001a7	8d 45 f4	 lea	 eax, DWORD PTR _pAnswer$[ebp]
  001aa	50		 push	 eax
  001ab	57		 push	 edi
  001ac	c6 45 f8 01	 mov	 BYTE PTR _pAnswer$[ebp+4], 1
  001b0	e8 00 00 00 00	 call	 ?DataSend@@YAHHPAEK@Z	; DataSend

; 994  : 		LogAddC(3, "[GameShop] %d", __LINE__);

  001b5	68 e2 03 00 00	 push	 994			; 000003e2H
  001ba	68 00 00 00 00	 push	 OFFSET ??_C@_0O@PIFLKMEL@?$FLGameShop?$FN?5?$CFd?$AA@
  001bf	6a 03		 push	 3
  001c1	ff 15 00 00 00
	00		 call	 DWORD PTR ?LogAddC@@3P6AXEPADZZA ; LogAddC
  001c7	83 c4 18	 add	 esp, 24			; 00000018H
$LN8@RequestSto@2:
  001ca	5f		 pop	 edi
  001cb	5e		 pop	 esi
  001cc	5b		 pop	 ebx

; 1080 : }

  001cd	8b e5		 mov	 esp, ebp
  001cf	5d		 pop	 ebp
  001d0	c2 08 00	 ret	 8
?RequestStorageItemUse@GameShop@@QAEXHPAUGAMESHOP_REQ_STORAGEITEMUSE@@@Z ENDP ; GameShop::RequestStorageItemUse
_TEXT	ENDS
PUBLIC	??0?$map@HPAUGAMESHOP_ITEM_DATA@@U?$less@H@std@@V?$allocator@U?$pair@$$CBHPAUGAMESHOP_ITEM_DATA@@@std@@@3@@std@@QAE@XZ ; std::map<int,GAMESHOP_ITEM_DATA *,std::less<int>,std::allocator<std::pair<int const ,GAMESHOP_ITEM_DATA *> > >::map<int,GAMESHOP_ITEM_DATA *,std::less<int>,std::allocator<std::pair<int const ,GAMESHOP_ITEM_DATA *> > >
; Function compile flags: /Ogtp
; File d:\program files (x86)\microsoft visual studio 10.0\vc\include\map
;	COMDAT ??0?$map@HPAUGAMESHOP_ITEM_DATA@@U?$less@H@std@@V?$allocator@U?$pair@$$CBHPAUGAMESHOP_ITEM_DATA@@@std@@@3@@std@@QAE@XZ
_TEXT	SEGMENT
$T225063 = -16						; size = 12
$T224961 = -4						; size = 4
??0?$map@HPAUGAMESHOP_ITEM_DATA@@U?$less@H@std@@V?$allocator@U?$pair@$$CBHPAUGAMESHOP_ITEM_DATA@@@std@@@3@@std@@QAE@XZ PROC ; std::map<int,GAMESHOP_ITEM_DATA *,std::less<int>,std::allocator<std::pair<int const ,GAMESHOP_ITEM_DATA *> > >::map<int,GAMESHOP_ITEM_DATA *,std::less<int>,std::allocator<std::pair<int const ,GAMESHOP_ITEM_DATA *> > >, COMDAT
; _this$ = ecx

; 106  : 		{	// construct empty map from defaults

  00000	55		 push	 ebp
  00001	8b ec		 mov	 ebp, esp
  00003	83 ec 10	 sub	 esp, 16			; 00000010H
  00006	56		 push	 esi
  00007	8b f1		 mov	 esi, ecx
  00009	6a 18		 push	 24			; 00000018H
  0000b	c7 46 08 00 00
	00 00		 mov	 DWORD PTR [esi+8], 0
  00012	e8 00 00 00 00	 call	 ??2@YAPAXI@Z		; operator new
  00017	83 c4 04	 add	 esp, 4
  0001a	85 c0		 test	 eax, eax
  0001c	74 26		 je	 SHORT $LN25@map
  0001e	89 46 04	 mov	 DWORD PTR [esi+4], eax
  00021	89 00		 mov	 DWORD PTR [eax], eax
  00023	8b 46 04	 mov	 eax, DWORD PTR [esi+4]
  00026	89 40 04	 mov	 DWORD PTR [eax+4], eax
  00029	8b 46 04	 mov	 eax, DWORD PTR [esi+4]
  0002c	89 40 08	 mov	 DWORD PTR [eax+8], eax
  0002f	8b 4e 04	 mov	 ecx, DWORD PTR [esi+4]
  00032	b0 01		 mov	 al, 1
  00034	88 41 14	 mov	 BYTE PTR [ecx+20], al
  00037	8b 56 04	 mov	 edx, DWORD PTR [esi+4]
  0003a	88 42 15	 mov	 BYTE PTR [edx+21], al

; 107  : 		}

  0003d	8b c6		 mov	 eax, esi
  0003f	5e		 pop	 esi
  00040	8b e5		 mov	 esp, ebp
  00042	5d		 pop	 ebp
  00043	c3		 ret	 0

; 106  : 		{	// construct empty map from defaults

$LN25@map:
  00044	8d 45 fc	 lea	 eax, DWORD PTR $T224961[ebp]
  00047	50		 push	 eax
  00048	8d 4d f0	 lea	 ecx, DWORD PTR $T225063[ebp]
  0004b	c7 45 fc 00 00
	00 00		 mov	 DWORD PTR $T224961[ebp], 0
  00052	e8 00 00 00 00	 call	 ??0exception@std@@QAE@ABQBD@Z ; std::exception::exception
  00057	68 00 00 00 00	 push	 OFFSET __TI2?AVbad_alloc@std@@
  0005c	8d 4d f0	 lea	 ecx, DWORD PTR $T225063[ebp]
  0005f	51		 push	 ecx
  00060	c7 45 f0 00 00
	00 00		 mov	 DWORD PTR $T225063[ebp], OFFSET ??_7bad_alloc@std@@6B@
  00067	e8 00 00 00 00	 call	 __CxxThrowException@8
$LN49@map:
$LN48@map:
  0006c	cc		 int	 3
??0?$map@HPAUGAMESHOP_ITEM_DATA@@U?$less@H@std@@V?$allocator@U?$pair@$$CBHPAUGAMESHOP_ITEM_DATA@@@std@@@3@@std@@QAE@XZ ENDP ; std::map<int,GAMESHOP_ITEM_DATA *,std::less<int>,std::allocator<std::pair<int const ,GAMESHOP_ITEM_DATA *> > >::map<int,GAMESHOP_ITEM_DATA *,std::less<int>,std::allocator<std::pair<int const ,GAMESHOP_ITEM_DATA *> > >
_TEXT	ENDS
PUBLIC	??0?$map@HPAUGAMESHOP_PACKAGE_DATA@@U?$less@H@std@@V?$allocator@U?$pair@$$CBHPAUGAMESHOP_PACKAGE_DATA@@@std@@@3@@std@@QAE@XZ ; std::map<int,GAMESHOP_PACKAGE_DATA *,std::less<int>,std::allocator<std::pair<int const ,GAMESHOP_PACKAGE_DATA *> > >::map<int,GAMESHOP_PACKAGE_DATA *,std::less<int>,std::allocator<std::pair<int const ,GAMESHOP_PACKAGE_DATA *> > >
; Function compile flags: /Ogtp
;	COMDAT ??0?$map@HPAUGAMESHOP_PACKAGE_DATA@@U?$less@H@std@@V?$allocator@U?$pair@$$CBHPAUGAMESHOP_PACKAGE_DATA@@@std@@@3@@std@@QAE@XZ
_TEXT	SEGMENT
$T225234 = -16						; size = 12
$T225132 = -4						; size = 4
??0?$map@HPAUGAMESHOP_PACKAGE_DATA@@U?$less@H@std@@V?$allocator@U?$pair@$$CBHPAUGAMESHOP_PACKAGE_DATA@@@std@@@3@@std@@QAE@XZ PROC ; std::map<int,GAMESHOP_PACKAGE_DATA *,std::less<int>,std::allocator<std::pair<int const ,GAMESHOP_PACKAGE_DATA *> > >::map<int,GAMESHOP_PACKAGE_DATA *,std::less<int>,std::allocator<std::pair<int const ,GAMESHOP_PACKAGE_DATA *> > >, COMDAT
; _this$ = ecx

; 106  : 		{	// construct empty map from defaults

  00000	55		 push	 ebp
  00001	8b ec		 mov	 ebp, esp
  00003	83 ec 10	 sub	 esp, 16			; 00000010H
  00006	56		 push	 esi
  00007	8b f1		 mov	 esi, ecx
  00009	6a 18		 push	 24			; 00000018H
  0000b	c7 46 08 00 00
	00 00		 mov	 DWORD PTR [esi+8], 0
  00012	e8 00 00 00 00	 call	 ??2@YAPAXI@Z		; operator new
  00017	83 c4 04	 add	 esp, 4
  0001a	85 c0		 test	 eax, eax
  0001c	74 26		 je	 SHORT $LN25@map@2
  0001e	89 46 04	 mov	 DWORD PTR [esi+4], eax
  00021	89 00		 mov	 DWORD PTR [eax], eax
  00023	8b 46 04	 mov	 eax, DWORD PTR [esi+4]
  00026	89 40 04	 mov	 DWORD PTR [eax+4], eax
  00029	8b 46 04	 mov	 eax, DWORD PTR [esi+4]
  0002c	89 40 08	 mov	 DWORD PTR [eax+8], eax
  0002f	8b 4e 04	 mov	 ecx, DWORD PTR [esi+4]
  00032	b0 01		 mov	 al, 1
  00034	88 41 14	 mov	 BYTE PTR [ecx+20], al
  00037	8b 56 04	 mov	 edx, DWORD PTR [esi+4]
  0003a	88 42 15	 mov	 BYTE PTR [edx+21], al

; 107  : 		}

  0003d	8b c6		 mov	 eax, esi
  0003f	5e		 pop	 esi
  00040	8b e5		 mov	 esp, ebp
  00042	5d		 pop	 ebp
  00043	c3		 ret	 0

; 106  : 		{	// construct empty map from defaults

$LN25@map@2:
  00044	8d 45 fc	 lea	 eax, DWORD PTR $T225132[ebp]
  00047	50		 push	 eax
  00048	8d 4d f0	 lea	 ecx, DWORD PTR $T225234[ebp]
  0004b	c7 45 fc 00 00
	00 00		 mov	 DWORD PTR $T225132[ebp], 0
  00052	e8 00 00 00 00	 call	 ??0exception@std@@QAE@ABQBD@Z ; std::exception::exception
  00057	68 00 00 00 00	 push	 OFFSET __TI2?AVbad_alloc@std@@
  0005c	8d 4d f0	 lea	 ecx, DWORD PTR $T225234[ebp]
  0005f	51		 push	 ecx
  00060	c7 45 f0 00 00
	00 00		 mov	 DWORD PTR $T225234[ebp], OFFSET ??_7bad_alloc@std@@6B@
  00067	e8 00 00 00 00	 call	 __CxxThrowException@8
$LN49@map@2:
$LN48@map@2:
  0006c	cc		 int	 3
??0?$map@HPAUGAMESHOP_PACKAGE_DATA@@U?$less@H@std@@V?$allocator@U?$pair@$$CBHPAUGAMESHOP_PACKAGE_DATA@@@std@@@3@@std@@QAE@XZ ENDP ; std::map<int,GAMESHOP_PACKAGE_DATA *,std::less<int>,std::allocator<std::pair<int const ,GAMESHOP_PACKAGE_DATA *> > >::map<int,GAMESHOP_PACKAGE_DATA *,std::less<int>,std::allocator<std::pair<int const ,GAMESHOP_PACKAGE_DATA *> > >
_TEXT	ENDS
PUBLIC	??A?$map@HPAUGAMESHOP_PACKAGE_DATA@@U?$less@H@std@@V?$allocator@U?$pair@$$CBHPAUGAMESHOP_PACKAGE_DATA@@@std@@@3@@std@@QAEAAPAUGAMESHOP_PACKAGE_DATA@@ABH@Z ; std::map<int,GAMESHOP_PACKAGE_DATA *,std::less<int>,std::allocator<std::pair<int const ,GAMESHOP_PACKAGE_DATA *> > >::operator[]
; Function compile flags: /Ogtp
;	COMDAT ??A?$map@HPAUGAMESHOP_PACKAGE_DATA@@U?$less@H@std@@V?$allocator@U?$pair@$$CBHPAUGAMESHOP_PACKAGE_DATA@@@std@@@3@@std@@QAEAAPAUGAMESHOP_PACKAGE_DATA@@ABH@Z
_TEXT	SEGMENT
$T225260 = -8						; size = 8
$T225263 = 8						; size = 4
__Keyval$ = 8						; size = 4
??A?$map@HPAUGAMESHOP_PACKAGE_DATA@@U?$less@H@std@@V?$allocator@U?$pair@$$CBHPAUGAMESHOP_PACKAGE_DATA@@@std@@@3@@std@@QAEAAPAUGAMESHOP_PACKAGE_DATA@@ABH@Z PROC ; std::map<int,GAMESHOP_PACKAGE_DATA *,std::less<int>,std::allocator<std::pair<int const ,GAMESHOP_PACKAGE_DATA *> > >::operator[], COMDAT
; _this$ = ecx

; 210  : 		{	// find element matching _Keyval or insert with default mapped

  00000	55		 push	 ebp
  00001	8b ec		 mov	 ebp, esp

; 211  : 		iterator _Where = this->lower_bound(_Keyval);

  00003	8b 55 08	 mov	 edx, DWORD PTR __Keyval$[ebp]
  00006	83 ec 08	 sub	 esp, 8
  00009	56		 push	 esi
  0000a	8b f1		 mov	 esi, ecx
  0000c	8b 4e 04	 mov	 ecx, DWORD PTR [esi+4]
  0000f	8b 41 04	 mov	 eax, DWORD PTR [ecx+4]
  00012	80 78 15 00	 cmp	 BYTE PTR [eax+21], 0
  00016	57		 push	 edi
  00017	8b f9		 mov	 edi, ecx
  00019	75 19		 jne	 SHORT $LN9@operator@5
  0001b	8b 0a		 mov	 ecx, DWORD PTR [edx]
  0001d	8d 49 00	 npad	 3
$LL10@operator@5:
  00020	39 48 0c	 cmp	 DWORD PTR [eax+12], ecx
  00023	7d 05		 jge	 SHORT $LN8@operator@5
  00025	8b 40 08	 mov	 eax, DWORD PTR [eax+8]
  00028	eb 04		 jmp	 SHORT $LN7@operator@5
$LN8@operator@5:
  0002a	8b f8		 mov	 edi, eax
  0002c	8b 00		 mov	 eax, DWORD PTR [eax]
$LN7@operator@5:
  0002e	80 78 15 00	 cmp	 BYTE PTR [eax+21], 0
  00032	74 ec		 je	 SHORT $LL10@operator@5
$LN9@operator@5:

; 212  : 		if (_Where == this->end()
; 213  : 			|| this->comp(_Keyval, this->_Key(_Where._Mynode())))

  00034	3b 7e 04	 cmp	 edi, DWORD PTR [esi+4]
  00037	74 07		 je	 SHORT $LN1@operator@5
  00039	8b 02		 mov	 eax, DWORD PTR [edx]
  0003b	3b 47 0c	 cmp	 eax, DWORD PTR [edi+12]
  0003e	7d 32		 jge	 SHORT $LN80@operator@5
$LN1@operator@5:

; 214  : 			_Where = this->insert(_Where,
; 215  : 				value_type(_Keyval, mapped_type()));

  00040	8b 0a		 mov	 ecx, DWORD PTR [edx]
  00042	8d 55 f8	 lea	 edx, DWORD PTR $T225260[ebp]
  00045	89 4d f8	 mov	 DWORD PTR $T225260[ebp], ecx
  00048	52		 push	 edx
  00049	8b ce		 mov	 ecx, esi
  0004b	c7 45 fc 00 00
	00 00		 mov	 DWORD PTR $T225260[ebp+4], 0
  00052	e8 00 00 00 00	 call	 ??$_Buynode@U?$pair@$$CBHPAUGAMESHOP_PACKAGE_DATA@@@std@@@?$_Tree_val@V?$_Tmap_traits@HPAUGAMESHOP_PACKAGE_DATA@@U?$less@H@std@@V?$allocator@U?$pair@$$CBHPAUGAMESHOP_PACKAGE_DATA@@@std@@@3@$0A@@std@@@std@@QAEPAU_Node@?$_Tree_nod@V?$_Tmap_traits@HPAUGAMESHOP_PACKAGE_DATA@@U?$less@H@std@@V?$allocator@U?$pair@$$CBHPAUGAMESHOP_PACKAGE_DATA@@@std@@@3@$0A@@std@@@1@$$QAU?$pair@$$CBHPAUGAMESHOP_PACKAGE_DATA@@@1@@Z ; std::_Tree_val<std::_Tmap_traits<int,GAMESHOP_PACKAGE_DATA *,std::less<int>,std::allocator<std::pair<int const ,GAMESHOP_PACKAGE_DATA *> >,0> >::_Buynode<std::pair<int const ,GAMESHOP_PACKAGE_DATA *> >
  00057	50		 push	 eax
  00058	57		 push	 edi
  00059	8d 45 08	 lea	 eax, DWORD PTR $T225263[ebp]
  0005c	50		 push	 eax
  0005d	8b ce		 mov	 ecx, esi
  0005f	e8 00 00 00 00	 call	 ?_Insert@?$_Tree@V?$_Tmap_traits@HPAUGAMESHOP_PACKAGE_DATA@@U?$less@H@std@@V?$allocator@U?$pair@$$CBHPAUGAMESHOP_PACKAGE_DATA@@@std@@@3@$0A@@std@@@std@@QAE?AV?$_Tree_iterator@V?$_Tree_val@V?$_Tmap_traits@HPAUGAMESHOP_PACKAGE_DATA@@U?$less@H@std@@V?$allocator@U?$pair@$$CBHPAUGAMESHOP_PACKAGE_DATA@@@std@@@3@$0A@@std@@@std@@@2@V?$_Tree_const_iterator@V?$_Tree_val@V?$_Tmap_traits@HPAUGAMESHOP_PACKAGE_DATA@@U?$less@H@std@@V?$allocator@U?$pair@$$CBHPAUGAMESHOP_PACKAGE_DATA@@@std@@@3@$0A@@std@@@std@@@2@PAU_Node@?$_Tree_nod@V?$_Tmap_traits@HPAUGAMESHOP_PACKAGE_DATA@@U?$less@H@std@@V?$allocator@U?$pair@$$CBHPAUGAMESHOP_PACKAGE_DATA@@@std@@@3@$0A@@std@@@2@@Z ; std::_Tree<std::_Tmap_traits<int,GAMESHOP_PACKAGE_DATA *,std::less<int>,std::allocator<std::pair<int const ,GAMESHOP_PACKAGE_DATA *> >,0> >::_Insert
  00064	8b 45 08	 mov	 eax, DWORD PTR $T225263[ebp]
  00067	5f		 pop	 edi

; 216  : 		return ((*_Where).second);

  00068	83 c0 10	 add	 eax, 16			; 00000010H
  0006b	5e		 pop	 esi

; 217  : 		}

  0006c	8b e5		 mov	 esp, ebp
  0006e	5d		 pop	 ebp
  0006f	c2 04 00	 ret	 4
$LN80@operator@5:

; 216  : 		return ((*_Where).second);

  00072	8d 47 10	 lea	 eax, DWORD PTR [edi+16]
  00075	5f		 pop	 edi
  00076	5e		 pop	 esi

; 217  : 		}

  00077	8b e5		 mov	 esp, ebp
  00079	5d		 pop	 ebp
  0007a	c2 04 00	 ret	 4
??A?$map@HPAUGAMESHOP_PACKAGE_DATA@@U?$less@H@std@@V?$allocator@U?$pair@$$CBHPAUGAMESHOP_PACKAGE_DATA@@@std@@@3@@std@@QAEAAPAUGAMESHOP_PACKAGE_DATA@@ABH@Z ENDP ; std::map<int,GAMESHOP_PACKAGE_DATA *,std::less<int>,std::allocator<std::pair<int const ,GAMESHOP_PACKAGE_DATA *> > >::operator[]
_TEXT	ENDS
PUBLIC	??0GameShop@@QAE@XZ				; GameShop::GameShop
EXTRN	_memset:PROC
;	COMDAT xdata$x
; File d:\program files (x86)\microsoft visual studio 10.0\vc\include\xtree
xdata$x	SEGMENT
__unwindtable$??0GameShop@@QAE@XZ DD 0ffffffffH
	DD	FLAT:__unwindfunclet$??0GameShop@@QAE@XZ$0
__ehfuncinfo$??0GameShop@@QAE@XZ DD 019930522H
	DD	01H
	DD	FLAT:__unwindtable$??0GameShop@@QAE@XZ
	DD	2 DUP(00H)
	DD	2 DUP(00H)
	DD	00H
	DD	01H
; Function compile flags: /Ogtp
; File e:\work\tranet_version\gs\gameserver\gameshop.cpp
xdata$x	ENDS
;	COMDAT ??0GameShop@@QAE@XZ
_TEXT	SEGMENT
$T225684 = -48						; size = 12
$T225900 = -36						; size = 12
_this$ = -24						; size = 4
$T225537 = -20						; size = 4
$T225752 = -16						; size = 4
__$EHRec$ = -12						; size = 12
??0GameShop@@QAE@XZ PROC				; GameShop::GameShop, COMDAT
; _this$ = ecx

; 26   : {

  00000	55		 push	 ebp
  00001	8b ec		 mov	 ebp, esp
  00003	6a ff		 push	 -1
  00005	68 00 00 00 00	 push	 __ehhandler$??0GameShop@@QAE@XZ
  0000a	64 a1 00 00 00
	00		 mov	 eax, DWORD PTR fs:0
  00010	50		 push	 eax
  00011	83 ec 24	 sub	 esp, 36			; 00000024H
  00014	53		 push	 ebx
  00015	56		 push	 esi
  00016	57		 push	 edi
  00017	a1 00 00 00 00	 mov	 eax, DWORD PTR ___security_cookie
  0001c	33 c5		 xor	 eax, ebp
  0001e	50		 push	 eax
  0001f	8d 45 f4	 lea	 eax, DWORD PTR __$EHRec$[ebp]
  00022	64 a3 00 00 00
	00		 mov	 DWORD PTR fs:0, eax
  00028	8b f1		 mov	 esi, ecx
  0002a	89 75 e8	 mov	 DWORD PTR _this$[ebp], esi
  0002d	c7 06 00 00 00
	00		 mov	 DWORD PTR [esi], OFFSET ??_7GameShop@@6B@
  00033	33 ff		 xor	 edi, edi
  00035	6a 18		 push	 24			; 00000018H
  00037	89 7e 20	 mov	 DWORD PTR [esi+32], edi
  0003a	e8 00 00 00 00	 call	 ??2@YAPAXI@Z		; operator new
  0003f	83 c4 04	 add	 esp, 4
  00042	3b c7		 cmp	 eax, edi
  00044	0f 84 b2 00 00
	00		 je	 $LN29@GameShop
  0004a	89 46 1c	 mov	 DWORD PTR [esi+28], eax
  0004d	89 00		 mov	 DWORD PTR [eax], eax
  0004f	8b 46 1c	 mov	 eax, DWORD PTR [esi+28]
  00052	89 40 04	 mov	 DWORD PTR [eax+4], eax
  00055	8b 46 1c	 mov	 eax, DWORD PTR [esi+28]
  00058	89 40 08	 mov	 DWORD PTR [eax+8], eax
  0005b	8b 46 1c	 mov	 eax, DWORD PTR [esi+28]
  0005e	b3 01		 mov	 bl, 1
  00060	88 58 14	 mov	 BYTE PTR [eax+20], bl
  00063	8b 4e 1c	 mov	 ecx, DWORD PTR [esi+28]
  00066	88 59 15	 mov	 BYTE PTR [ecx+21], bl
  00069	6a 18		 push	 24			; 00000018H
  0006b	89 7d fc	 mov	 DWORD PTR __$EHRec$[ebp+8], edi
  0006e	89 7e 30	 mov	 DWORD PTR [esi+48], edi
  00071	e8 00 00 00 00	 call	 ??2@YAPAXI@Z		; operator new
  00076	83 c4 04	 add	 esp, 4
  00079	3b c7		 cmp	 eax, edi
  0007b	74 5b		 je	 SHORT $LN76@GameShop
  0007d	89 46 2c	 mov	 DWORD PTR [esi+44], eax
  00080	89 00		 mov	 DWORD PTR [eax], eax
  00082	8b 46 2c	 mov	 eax, DWORD PTR [esi+44]
  00085	89 40 04	 mov	 DWORD PTR [eax+4], eax
  00088	8b 46 2c	 mov	 eax, DWORD PTR [esi+44]
  0008b	89 40 08	 mov	 DWORD PTR [eax+8], eax
  0008e	8b 56 2c	 mov	 edx, DWORD PTR [esi+44]
  00091	88 5a 14	 mov	 BYTE PTR [edx+20], bl
  00094	8b 46 2c	 mov	 eax, DWORD PTR [esi+44]
  00097	88 58 15	 mov	 BYTE PTR [eax+21], bl

; 27   : 	this->OptionData.ActiveGameShop	= 1;
; 28   : 	this->OptionData.AddGPBonus		= 0;
; 29   : 	// ----
; 30   : 	this->OptionData.ScriptMajor	= 0;

  0009a	33 c9		 xor	 ecx, ecx

; 31   : 	this->OptionData.ScriptMinor	= 0;
; 32   : 	this->OptionData.ScriptRevision	= 0;
; 33   : 	this->OptionData.BannerMajor	= 0;
; 34   : 	this->OptionData.BannerMinor	= 0;
; 35   : 	this->OptionData.BannerRevision	= 0;
; 36   : 	// ----
; 37   : 	this->UserCount					= 0;
; 38   : 	// ----
; 39   : 	ZeroMemory(this->PointCategory, sizeof(this->PointCategory));

  0009c	68 96 00 00 00	 push	 150			; 00000096H
  000a1	89 4e 06	 mov	 DWORD PTR [esi+6], ecx
  000a4	8d 4e 44	 lea	 ecx, DWORD PTR [esi+68]
  000a7	33 c0		 xor	 eax, eax
  000a9	33 d2		 xor	 edx, edx
  000ab	57		 push	 edi
  000ac	51		 push	 ecx
  000ad	88 5e 04	 mov	 BYTE PTR [esi+4], bl
  000b0	89 7e 14	 mov	 DWORD PTR [esi+20], edi
  000b3	89 46 0a	 mov	 DWORD PTR [esi+10], eax
  000b6	89 56 0e	 mov	 DWORD PTR [esi+14], edx
  000b9	89 7e 38	 mov	 DWORD PTR [esi+56], edi
  000bc	e8 00 00 00 00	 call	 _memset
  000c1	83 c4 0c	 add	 esp, 12			; 0000000cH

; 40   : }

  000c4	8b c6		 mov	 eax, esi
  000c6	8b 4d f4	 mov	 ecx, DWORD PTR __$EHRec$[ebp]
  000c9	64 89 0d 00 00
	00 00		 mov	 DWORD PTR fs:0, ecx
  000d0	59		 pop	 ecx
  000d1	5f		 pop	 edi
  000d2	5e		 pop	 esi
  000d3	5b		 pop	 ebx
  000d4	8b e5		 mov	 esp, ebp
  000d6	5d		 pop	 ebp
  000d7	c3		 ret	 0

; 26   : {

$LN76@GameShop:
  000d8	8d 55 f0	 lea	 edx, DWORD PTR $T225752[ebp]
  000db	52		 push	 edx
  000dc	8d 4d dc	 lea	 ecx, DWORD PTR $T225900[ebp]
  000df	89 7d f0	 mov	 DWORD PTR $T225752[ebp], edi
  000e2	e8 00 00 00 00	 call	 ??0exception@std@@QAE@ABQBD@Z ; std::exception::exception
  000e7	68 00 00 00 00	 push	 OFFSET __TI2?AVbad_alloc@std@@
  000ec	8d 45 dc	 lea	 eax, DWORD PTR $T225900[ebp]
  000ef	50		 push	 eax
  000f0	c7 45 dc 00 00
	00 00		 mov	 DWORD PTR $T225900[ebp], OFFSET ??_7bad_alloc@std@@6B@
  000f7	e8 00 00 00 00	 call	 __CxxThrowException@8
$LN102@GameShop:
$LN29@GameShop:
  000fc	8d 4d ec	 lea	 ecx, DWORD PTR $T225537[ebp]
  000ff	51		 push	 ecx
  00100	8d 4d d0	 lea	 ecx, DWORD PTR $T225684[ebp]
  00103	89 7d ec	 mov	 DWORD PTR $T225537[ebp], edi
  00106	e8 00 00 00 00	 call	 ??0exception@std@@QAE@ABQBD@Z ; std::exception::exception
  0010b	68 00 00 00 00	 push	 OFFSET __TI2?AVbad_alloc@std@@
  00110	8d 55 d0	 lea	 edx, DWORD PTR $T225684[ebp]
  00113	52		 push	 edx
  00114	c7 45 d0 00 00
	00 00		 mov	 DWORD PTR $T225684[ebp], OFFSET ??_7bad_alloc@std@@6B@
  0011b	e8 00 00 00 00	 call	 __CxxThrowException@8
$LN103@GameShop:
$LN101@GameShop:
  00120	cc		 int	 3
_TEXT	ENDS
;	COMDAT text$x
text$x	SEGMENT
__unwindfunclet$??0GameShop@@QAE@XZ$0:
  00000	8b 4d e8	 mov	 ecx, DWORD PTR _this$[ebp]
  00003	83 c1 18	 add	 ecx, 24			; 00000018H
  00006	e9 00 00 00 00	 jmp	 ??1?$map@HPAUGAMESHOP_ITEM_DATA@@U?$less@H@std@@V?$allocator@U?$pair@$$CBHPAUGAMESHOP_ITEM_DATA@@@std@@@3@@std@@QAE@XZ
__ehhandler$??0GameShop@@QAE@XZ:
  0000b	8b 54 24 08	 mov	 edx, DWORD PTR [esp+8]
  0000f	8d 42 0c	 lea	 eax, DWORD PTR [edx+12]
  00012	8b 4a cc	 mov	 ecx, DWORD PTR [edx-52]
  00015	33 c8		 xor	 ecx, eax
  00017	e8 00 00 00 00	 call	 @__security_check_cookie@4
  0001c	b8 00 00 00 00	 mov	 eax, OFFSET __ehfuncinfo$??0GameShop@@QAE@XZ
  00021	e9 00 00 00 00	 jmp	 ___CxxFrameHandler3
text$x	ENDS
??0GameShop@@QAE@XZ ENDP				; GameShop::GameShop
; Function compile flags: /Ogtp
;	COMDAT ??_GGameShop@@UAEPAXI@Z
_TEXT	SEGMENT
___flags$ = 8						; size = 4
??_GGameShop@@UAEPAXI@Z PROC				; GameShop::`scalar deleting destructor', COMDAT
; _this$ = ecx
  00000	55		 push	 ebp
  00001	8b ec		 mov	 ebp, esp
  00003	56		 push	 esi
  00004	8b f1		 mov	 esi, ecx
  00006	e8 00 00 00 00	 call	 ??1GameShop@@UAE@XZ	; GameShop::~GameShop
  0000b	f6 45 08 01	 test	 BYTE PTR ___flags$[ebp], 1
  0000f	74 09		 je	 SHORT $LN4@scalar@2
  00011	56		 push	 esi
  00012	e8 00 00 00 00	 call	 ??3@YAXPAX@Z		; operator delete
  00017	83 c4 04	 add	 esp, 4
$LN4@scalar@2:
  0001a	8b c6		 mov	 eax, esi
  0001c	5e		 pop	 esi
  0001d	5d		 pop	 ebp
  0001e	c2 04 00	 ret	 4
??_GGameShop@@UAEPAXI@Z ENDP				; GameShop::`scalar deleting destructor'
_TEXT	ENDS
PUBLIC	?GetPackageIndex@GameShop@@QAEHH@Z		; GameShop::GetPackageIndex
; Function compile flags: /Ogtp
;	COMDAT ?GetPackageIndex@GameShop@@QAEHH@Z
_TEXT	SEGMENT
$T226172 = -16						; size = 8
_this$ = -8						; size = 4
$T226175 = -4						; size = 4
_PackageID$ = 8						; size = 4
?GetPackageIndex@GameShop@@QAEHH@Z PROC			; GameShop::GetPackageIndex, COMDAT
; _this$ = ecx

; 1431 : {

  00000	55		 push	 ebp
  00001	8b ec		 mov	 ebp, esp
  00003	83 ec 10	 sub	 esp, 16			; 00000010H
  00006	53		 push	 ebx
  00007	56		 push	 esi
  00008	57		 push	 edi

; 1432 : 	for( int i = 0; i < this->PackageCount; i++ )

  00009	33 ff		 xor	 edi, edi
  0000b	89 4d f8	 mov	 DWORD PTR _this$[ebp], ecx
  0000e	39 79 40	 cmp	 DWORD PTR [ecx+64], edi
  00011	7e 68		 jle	 SHORT $LN2@GetPackage@2
  00013	8d 59 28	 lea	 ebx, DWORD PTR [ecx+40]
$LL89@GetPackage@2:

; 1433 : 	{
; 1434 : 		if( this->PackageList[i]->PackageID == PackageID )

  00016	8b 73 04	 mov	 esi, DWORD PTR [ebx+4]
  00019	8b 46 04	 mov	 eax, DWORD PTR [esi+4]
  0001c	80 78 15 00	 cmp	 BYTE PTR [eax+21], 0
  00020	75 14		 jne	 SHORT $LN15@GetPackage@2
$LL16@GetPackage@2:
  00022	39 78 0c	 cmp	 DWORD PTR [eax+12], edi
  00025	7d 05		 jge	 SHORT $LN14@GetPackage@2
  00027	8b 40 08	 mov	 eax, DWORD PTR [eax+8]
  0002a	eb 04		 jmp	 SHORT $LN13@GetPackage@2
$LN14@GetPackage@2:
  0002c	8b f0		 mov	 esi, eax
  0002e	8b 00		 mov	 eax, DWORD PTR [eax]
$LN13@GetPackage@2:
  00030	80 78 15 00	 cmp	 BYTE PTR [eax+21], 0
  00034	74 ec		 je	 SHORT $LL16@GetPackage@2
$LN15@GetPackage@2:
  00036	8b c6		 mov	 eax, esi
  00038	3b 73 04	 cmp	 esi, DWORD PTR [ebx+4]
  0003b	74 05		 je	 SHORT $LN7@GetPackage@2
  0003d	3b 7e 0c	 cmp	 edi, DWORD PTR [esi+12]
  00040	7d 28		 jge	 SHORT $LN8@GetPackage@2
$LN7@GetPackage@2:
  00042	8d 45 f0	 lea	 eax, DWORD PTR $T226172[ebp]
  00045	50		 push	 eax
  00046	8b cb		 mov	 ecx, ebx
  00048	89 7d f0	 mov	 DWORD PTR $T226172[ebp], edi
  0004b	c7 45 f4 00 00
	00 00		 mov	 DWORD PTR $T226172[ebp+4], 0
  00052	e8 00 00 00 00	 call	 ??$_Buynode@U?$pair@$$CBHPAUGAMESHOP_PACKAGE_DATA@@@std@@@?$_Tree_val@V?$_Tmap_traits@HPAUGAMESHOP_PACKAGE_DATA@@U?$less@H@std@@V?$allocator@U?$pair@$$CBHPAUGAMESHOP_PACKAGE_DATA@@@std@@@3@$0A@@std@@@std@@QAEPAU_Node@?$_Tree_nod@V?$_Tmap_traits@HPAUGAMESHOP_PACKAGE_DATA@@U?$less@H@std@@V?$allocator@U?$pair@$$CBHPAUGAMESHOP_PACKAGE_DATA@@@std@@@3@$0A@@std@@@1@$$QAU?$pair@$$CBHPAUGAMESHOP_PACKAGE_DATA@@@1@@Z ; std::_Tree_val<std::_Tmap_traits<int,GAMESHOP_PACKAGE_DATA *,std::less<int>,std::allocator<std::pair<int const ,GAMESHOP_PACKAGE_DATA *> >,0> >::_Buynode<std::pair<int const ,GAMESHOP_PACKAGE_DATA *> >
  00057	50		 push	 eax
  00058	56		 push	 esi
  00059	8d 4d fc	 lea	 ecx, DWORD PTR $T226175[ebp]
  0005c	51		 push	 ecx
  0005d	8b cb		 mov	 ecx, ebx
  0005f	e8 00 00 00 00	 call	 ?_Insert@?$_Tree@V?$_Tmap_traits@HPAUGAMESHOP_PACKAGE_DATA@@U?$less@H@std@@V?$allocator@U?$pair@$$CBHPAUGAMESHOP_PACKAGE_DATA@@@std@@@3@$0A@@std@@@std@@QAE?AV?$_Tree_iterator@V?$_Tree_val@V?$_Tmap_traits@HPAUGAMESHOP_PACKAGE_DATA@@U?$less@H@std@@V?$allocator@U?$pair@$$CBHPAUGAMESHOP_PACKAGE_DATA@@@std@@@3@$0A@@std@@@std@@@2@V?$_Tree_const_iterator@V?$_Tree_val@V?$_Tmap_traits@HPAUGAMESHOP_PACKAGE_DATA@@U?$less@H@std@@V?$allocator@U?$pair@$$CBHPAUGAMESHOP_PACKAGE_DATA@@@std@@@3@$0A@@std@@@std@@@2@PAU_Node@?$_Tree_nod@V?$_Tmap_traits@HPAUGAMESHOP_PACKAGE_DATA@@U?$less@H@std@@V?$allocator@U?$pair@$$CBHPAUGAMESHOP_PACKAGE_DATA@@@std@@@3@$0A@@std@@@2@@Z ; std::_Tree<std::_Tmap_traits<int,GAMESHOP_PACKAGE_DATA *,std::less<int>,std::allocator<std::pair<int const ,GAMESHOP_PACKAGE_DATA *> >,0> >::_Insert
  00064	8b 45 fc	 mov	 eax, DWORD PTR $T226175[ebp]
  00067	8b 4d f8	 mov	 ecx, DWORD PTR _this$[ebp]
$LN8@GetPackage@2:
  0006a	8b 50 10	 mov	 edx, DWORD PTR [eax+16]
  0006d	0f bf 02	 movsx	 eax, WORD PTR [edx]
  00070	3b 45 08	 cmp	 eax, DWORD PTR _PackageID$[ebp]
  00073	74 12		 je	 SHORT $LN87@GetPackage@2

; 1432 : 	for( int i = 0; i < this->PackageCount; i++ )

  00075	47		 inc	 edi
  00076	3b 79 40	 cmp	 edi, DWORD PTR [ecx+64]
  00079	7c 9b		 jl	 SHORT $LL89@GetPackage@2
$LN2@GetPackage@2:
  0007b	5f		 pop	 edi
  0007c	5e		 pop	 esi

; 1437 : 			break;
; 1438 : 		}
; 1439 : 	}
; 1440 : 	// ----
; 1441 : 	return -1;

  0007d	83 c8 ff	 or	 eax, -1
  00080	5b		 pop	 ebx

; 1442 : }

  00081	8b e5		 mov	 esp, ebp
  00083	5d		 pop	 ebp
  00084	c2 04 00	 ret	 4
$LN87@GetPackage@2:

; 1435 : 		{
; 1436 : 			return i;

  00087	8b c7		 mov	 eax, edi
  00089	5f		 pop	 edi
  0008a	5e		 pop	 esi
  0008b	5b		 pop	 ebx

; 1442 : }

  0008c	8b e5		 mov	 esp, ebp
  0008e	5d		 pop	 ebp
  0008f	c2 04 00	 ret	 4
?GetPackageIndex@GameShop@@QAEHH@Z ENDP			; GameShop::GetPackageIndex
_TEXT	ENDS
PUBLIC	??_C@_0BG@LLPCGDMB@?$FLGameShop?$FN?5?$FL?$CFs?$FN?5error?$AA@ ; `string'
PUBLIC	??_C@_0BM@NHPFEBMN@GameShop?3?3InsertPackagePart?$AA@ ; `string'
PUBLIC	?InsertPackagePart@GameShop@@QAEXPAUGAMESHOP_ITEM_DATA@@@Z ; GameShop::InsertPackagePart
;	COMDAT ??_C@_0BG@LLPCGDMB@?$FLGameShop?$FN?5?$FL?$CFs?$FN?5error?$AA@
; File d:\program files (x86)\microsoft visual studio 10.0\vc\include\xtree
CONST	SEGMENT
??_C@_0BG@LLPCGDMB@?$FLGameShop?$FN?5?$FL?$CFs?$FN?5error?$AA@ DB '[GameS'
	DB	'hop] [%s] error', 00H			; `string'
CONST	ENDS
;	COMDAT ??_C@_0BM@NHPFEBMN@GameShop?3?3InsertPackagePart?$AA@
CONST	SEGMENT
??_C@_0BM@NHPFEBMN@GameShop?3?3InsertPackagePart?$AA@ DB 'GameShop::Inser'
	DB	'tPackagePart', 00H				; `string'
; Function compile flags: /Ogtp
; File e:\work\tranet_version\gs\gameserver\gameshop.cpp
CONST	ENDS
;	COMDAT ?InsertPackagePart@GameShop@@QAEXPAUGAMESHOP_ITEM_DATA@@@Z
_TEXT	SEGMENT
_Index$ = 8						; size = 4
_lpItem$ = 8						; size = 4
?InsertPackagePart@GameShop@@QAEXPAUGAMESHOP_ITEM_DATA@@@Z PROC ; GameShop::InsertPackagePart, COMDAT
; _this$ = ecx

; 363  : {

  00000	55		 push	 ebp
  00001	8b ec		 mov	 ebp, esp
  00003	53		 push	 ebx
  00004	56		 push	 esi
  00005	57		 push	 edi

; 364  : 	int Index = this->GetPackageIndex(lpItem->PackageID);

  00006	8b 7d 08	 mov	 edi, DWORD PTR _lpItem$[ebp]
  00009	0f bf 07	 movsx	 eax, WORD PTR [edi]
  0000c	50		 push	 eax
  0000d	8b f1		 mov	 esi, ecx
  0000f	e8 00 00 00 00	 call	 ?GetPackageIndex@GameShop@@QAEHH@Z ; GameShop::GetPackageIndex
  00014	8b d8		 mov	 ebx, eax
  00016	89 5d 08	 mov	 DWORD PTR _Index$[ebp], ebx

; 365  : 	// ----
; 366  : 	if( Index == -1 )

  00019	83 fb ff	 cmp	 ebx, -1
  0001c	75 1c		 jne	 SHORT $LN1@InsertPack@2

; 367  : 	{
; 368  : 		LogAddC(3, "[GameShop] [%s] error", __FUNCTION__);

  0001e	68 00 00 00 00	 push	 OFFSET ??_C@_0BM@NHPFEBMN@GameShop?3?3InsertPackagePart?$AA@
  00023	68 00 00 00 00	 push	 OFFSET ??_C@_0BG@LLPCGDMB@?$FLGameShop?$FN?5?$FL?$CFs?$FN?5error?$AA@
  00028	6a 03		 push	 3
  0002a	ff 15 00 00 00
	00		 call	 DWORD PTR ?LogAddC@@3P6AXEPADZZA ; LogAddC
  00030	83 c4 0c	 add	 esp, 12			; 0000000cH
  00033	5f		 pop	 edi
  00034	5e		 pop	 esi
  00035	5b		 pop	 ebx

; 388  : }

  00036	5d		 pop	 ebp
  00037	c2 04 00	 ret	 4
$LN1@InsertPack@2:

; 369  : 		return;
; 370  : 	}
; 371  : 	// ----
; 372  : 	int ItemPos = this->PackageList[Index]->ItemCount;

  0003a	8d 4d 08	 lea	 ecx, DWORD PTR _Index$[ebp]
  0003d	51		 push	 ecx
  0003e	8d 4e 28	 lea	 ecx, DWORD PTR [esi+40]
  00041	e8 00 00 00 00	 call	 ??A?$map@HPAUGAMESHOP_PACKAGE_DATA@@U?$less@H@std@@V?$allocator@U?$pair@$$CBHPAUGAMESHOP_PACKAGE_DATA@@@std@@@3@@std@@QAEAAPAUGAMESHOP_PACKAGE_DATA@@ABH@Z ; std::map<int,GAMESHOP_PACKAGE_DATA *,std::less<int>,std::allocator<std::pair<int const ,GAMESHOP_PACKAGE_DATA *> > >::operator[]
  00046	8b 10		 mov	 edx, DWORD PTR [eax]

; 373  : 	// ----
; 374  : 	PackageList.at(Index)->Item[ItemPos].PackageID		= lpItem->PackageID;

  00048	8b 4e 2c	 mov	 ecx, DWORD PTR [esi+44]
  0004b	8b 41 04	 mov	 eax, DWORD PTR [ecx+4]
  0004e	80 78 15 00	 cmp	 BYTE PTR [eax+21], 0
  00052	0f b6 52 14	 movzx	 edx, BYTE PTR [edx+20]
  00056	75 14		 jne	 SHORT $LN12@InsertPack@2
$LL13@InsertPack@2:
  00058	39 58 0c	 cmp	 DWORD PTR [eax+12], ebx
  0005b	7d 05		 jge	 SHORT $LN11@InsertPack@2
  0005d	8b 40 08	 mov	 eax, DWORD PTR [eax+8]
  00060	eb 04		 jmp	 SHORT $LN10@InsertPack@2
$LN11@InsertPack@2:
  00062	8b c8		 mov	 ecx, eax
  00064	8b 00		 mov	 eax, DWORD PTR [eax]
$LN10@InsertPack@2:
  00066	80 78 15 00	 cmp	 BYTE PTR [eax+21], 0
  0006a	74 ec		 je	 SHORT $LL13@InsertPack@2
$LN12@InsertPack@2:
  0006c	3b 4e 2c	 cmp	 ecx, DWORD PTR [esi+44]
  0006f	0f 84 fe 02 00
	00		 je	 $LN797@InsertPack@2
  00075	3b 59 0c	 cmp	 ebx, DWORD PTR [ecx+12]
  00078	0f 8c f5 02 00
	00		 jl	 $LN797@InsertPack@2
  0007e	8b 41 10	 mov	 eax, DWORD PTR [ecx+16]
  00081	66 8b 0f	 mov	 cx, WORD PTR [edi]
  00084	8d 14 92	 lea	 edx, DWORD PTR [edx+edx*4]
  00087	03 d2		 add	 edx, edx
  00089	03 d2		 add	 edx, edx
  0008b	03 d2		 add	 edx, edx
  0008d	66 89 4c 10 18	 mov	 WORD PTR [eax+edx+24], cx

; 375  : 	PackageList.at(Index)->Item[ItemPos].ItemID			= lpItem->ItemID;

  00092	8b 4e 2c	 mov	 ecx, DWORD PTR [esi+44]
  00095	8b 41 04	 mov	 eax, DWORD PTR [ecx+4]
  00098	80 78 15 00	 cmp	 BYTE PTR [eax+21], 0
  0009c	75 16		 jne	 SHORT $LN79@InsertPack@2
  0009e	8b ff		 npad	 2
$LL80@InsertPack@2:
  000a0	39 58 0c	 cmp	 DWORD PTR [eax+12], ebx
  000a3	7d 05		 jge	 SHORT $LN78@InsertPack@2
  000a5	8b 40 08	 mov	 eax, DWORD PTR [eax+8]
  000a8	eb 04		 jmp	 SHORT $LN77@InsertPack@2
$LN78@InsertPack@2:
  000aa	8b c8		 mov	 ecx, eax
  000ac	8b 00		 mov	 eax, DWORD PTR [eax]
$LN77@InsertPack@2:
  000ae	80 78 15 00	 cmp	 BYTE PTR [eax+21], 0
  000b2	74 ec		 je	 SHORT $LL80@InsertPack@2
$LN79@InsertPack@2:
  000b4	3b 4e 2c	 cmp	 ecx, DWORD PTR [esi+44]
  000b7	0f 84 b6 02 00
	00		 je	 $LN797@InsertPack@2
  000bd	3b 59 0c	 cmp	 ebx, DWORD PTR [ecx+12]
  000c0	0f 8c ad 02 00
	00		 jl	 $LN797@InsertPack@2
  000c6	8b 41 10	 mov	 eax, DWORD PTR [ecx+16]
  000c9	66 8b 4f 02	 mov	 cx, WORD PTR [edi+2]
  000cd	66 89 4c 10 1a	 mov	 WORD PTR [eax+edx+26], cx

; 376  : 	PackageList.at(Index)->Item[ItemPos].X				= lpItem->X;

  000d2	8b 4e 2c	 mov	 ecx, DWORD PTR [esi+44]
  000d5	8b 41 04	 mov	 eax, DWORD PTR [ecx+4]
  000d8	80 78 15 00	 cmp	 BYTE PTR [eax+21], 0
  000dc	75 16		 jne	 SHORT $LN145@InsertPack@2
  000de	8b ff		 npad	 2
$LL146@InsertPack@2:
  000e0	39 58 0c	 cmp	 DWORD PTR [eax+12], ebx
  000e3	7d 05		 jge	 SHORT $LN144@InsertPack@2
  000e5	8b 40 08	 mov	 eax, DWORD PTR [eax+8]
  000e8	eb 04		 jmp	 SHORT $LN143@InsertPack@2
$LN144@InsertPack@2:
  000ea	8b c8		 mov	 ecx, eax
  000ec	8b 00		 mov	 eax, DWORD PTR [eax]
$LN143@InsertPack@2:
  000ee	80 78 15 00	 cmp	 BYTE PTR [eax+21], 0
  000f2	74 ec		 je	 SHORT $LL146@InsertPack@2
$LN145@InsertPack@2:
  000f4	3b 4e 2c	 cmp	 ecx, DWORD PTR [esi+44]
  000f7	0f 84 76 02 00
	00		 je	 $LN797@InsertPack@2
  000fd	3b 59 0c	 cmp	 ebx, DWORD PTR [ecx+12]
  00100	0f 8c 6d 02 00
	00		 jl	 $LN797@InsertPack@2
  00106	8b 41 10	 mov	 eax, DWORD PTR [ecx+16]
  00109	8a 4f 04	 mov	 cl, BYTE PTR [edi+4]
  0010c	88 4c 10 1c	 mov	 BYTE PTR [eax+edx+28], cl

; 377  : 	PackageList.at(Index)->Item[ItemPos].Y				= lpItem->Y;

  00110	8b 4e 2c	 mov	 ecx, DWORD PTR [esi+44]
  00113	8b 41 04	 mov	 eax, DWORD PTR [ecx+4]
  00116	80 78 15 00	 cmp	 BYTE PTR [eax+21], 0
  0011a	75 18		 jne	 SHORT $LN211@InsertPack@2
  0011c	8d 64 24 00	 npad	 4
$LL212@InsertPack@2:
  00120	39 58 0c	 cmp	 DWORD PTR [eax+12], ebx
  00123	7d 05		 jge	 SHORT $LN210@InsertPack@2
  00125	8b 40 08	 mov	 eax, DWORD PTR [eax+8]
  00128	eb 04		 jmp	 SHORT $LN209@InsertPack@2
$LN210@InsertPack@2:
  0012a	8b c8		 mov	 ecx, eax
  0012c	8b 00		 mov	 eax, DWORD PTR [eax]
$LN209@InsertPack@2:
  0012e	80 78 15 00	 cmp	 BYTE PTR [eax+21], 0
  00132	74 ec		 je	 SHORT $LL212@InsertPack@2
$LN211@InsertPack@2:
  00134	3b 4e 2c	 cmp	 ecx, DWORD PTR [esi+44]
  00137	0f 84 36 02 00
	00		 je	 $LN797@InsertPack@2
  0013d	3b 59 0c	 cmp	 ebx, DWORD PTR [ecx+12]
  00140	0f 8c 2d 02 00
	00		 jl	 $LN797@InsertPack@2
  00146	8b 41 10	 mov	 eax, DWORD PTR [ecx+16]
  00149	8a 4f 05	 mov	 cl, BYTE PTR [edi+5]
  0014c	88 4c 10 1d	 mov	 BYTE PTR [eax+edx+29], cl

; 378  : 	PackageList.at(Index)->Item[ItemPos].Level			= lpItem->Level;

  00150	8b 4e 2c	 mov	 ecx, DWORD PTR [esi+44]
  00153	8b 41 04	 mov	 eax, DWORD PTR [ecx+4]
  00156	80 78 15 00	 cmp	 BYTE PTR [eax+21], 0
  0015a	75 18		 jne	 SHORT $LN277@InsertPack@2
  0015c	8d 64 24 00	 npad	 4
$LL278@InsertPack@2:
  00160	39 58 0c	 cmp	 DWORD PTR [eax+12], ebx
  00163	7d 05		 jge	 SHORT $LN276@InsertPack@2
  00165	8b 40 08	 mov	 eax, DWORD PTR [eax+8]
  00168	eb 04		 jmp	 SHORT $LN275@InsertPack@2
$LN276@InsertPack@2:
  0016a	8b c8		 mov	 ecx, eax
  0016c	8b 00		 mov	 eax, DWORD PTR [eax]
$LN275@InsertPack@2:
  0016e	80 78 15 00	 cmp	 BYTE PTR [eax+21], 0
  00172	74 ec		 je	 SHORT $LL278@InsertPack@2
$LN277@InsertPack@2:
  00174	3b 4e 2c	 cmp	 ecx, DWORD PTR [esi+44]
  00177	0f 84 f6 01 00
	00		 je	 $LN797@InsertPack@2
  0017d	3b 59 0c	 cmp	 ebx, DWORD PTR [ecx+12]
  00180	0f 8c ed 01 00
	00		 jl	 $LN797@InsertPack@2
  00186	8b 41 10	 mov	 eax, DWORD PTR [ecx+16]
  00189	8a 4f 06	 mov	 cl, BYTE PTR [edi+6]
  0018c	88 4c 10 1e	 mov	 BYTE PTR [eax+edx+30], cl

; 379  : 	PackageList.at(Index)->Item[ItemPos].Durability		= lpItem->Durability;

  00190	8b 4e 2c	 mov	 ecx, DWORD PTR [esi+44]
  00193	8b 41 04	 mov	 eax, DWORD PTR [ecx+4]
  00196	80 78 15 00	 cmp	 BYTE PTR [eax+21], 0
  0019a	75 18		 jne	 SHORT $LN343@InsertPack@2
  0019c	8d 64 24 00	 npad	 4
$LL344@InsertPack@2:
  001a0	39 58 0c	 cmp	 DWORD PTR [eax+12], ebx
  001a3	7d 05		 jge	 SHORT $LN342@InsertPack@2
  001a5	8b 40 08	 mov	 eax, DWORD PTR [eax+8]
  001a8	eb 04		 jmp	 SHORT $LN341@InsertPack@2
$LN342@InsertPack@2:
  001aa	8b c8		 mov	 ecx, eax
  001ac	8b 00		 mov	 eax, DWORD PTR [eax]
$LN341@InsertPack@2:
  001ae	80 78 15 00	 cmp	 BYTE PTR [eax+21], 0
  001b2	74 ec		 je	 SHORT $LL344@InsertPack@2
$LN343@InsertPack@2:
  001b4	3b 4e 2c	 cmp	 ecx, DWORD PTR [esi+44]
  001b7	0f 84 b6 01 00
	00		 je	 $LN797@InsertPack@2
  001bd	3b 59 0c	 cmp	 ebx, DWORD PTR [ecx+12]
  001c0	0f 8c ad 01 00
	00		 jl	 $LN797@InsertPack@2
  001c6	8b 41 10	 mov	 eax, DWORD PTR [ecx+16]
  001c9	8a 4f 07	 mov	 cl, BYTE PTR [edi+7]
  001cc	88 4c 10 1f	 mov	 BYTE PTR [eax+edx+31], cl

; 380  : 	PackageList.at(Index)->Item[ItemPos].Skill			= lpItem->Skill;

  001d0	8b 4e 2c	 mov	 ecx, DWORD PTR [esi+44]
  001d3	8b 41 04	 mov	 eax, DWORD PTR [ecx+4]
  001d6	80 78 15 00	 cmp	 BYTE PTR [eax+21], 0
  001da	75 18		 jne	 SHORT $LN409@InsertPack@2
  001dc	8d 64 24 00	 npad	 4
$LL410@InsertPack@2:
  001e0	39 58 0c	 cmp	 DWORD PTR [eax+12], ebx
  001e3	7d 05		 jge	 SHORT $LN408@InsertPack@2
  001e5	8b 40 08	 mov	 eax, DWORD PTR [eax+8]
  001e8	eb 04		 jmp	 SHORT $LN407@InsertPack@2
$LN408@InsertPack@2:
  001ea	8b c8		 mov	 ecx, eax
  001ec	8b 00		 mov	 eax, DWORD PTR [eax]
$LN407@InsertPack@2:
  001ee	80 78 15 00	 cmp	 BYTE PTR [eax+21], 0
  001f2	74 ec		 je	 SHORT $LL410@InsertPack@2
$LN409@InsertPack@2:
  001f4	3b 4e 2c	 cmp	 ecx, DWORD PTR [esi+44]
  001f7	0f 84 76 01 00
	00		 je	 $LN797@InsertPack@2
  001fd	3b 59 0c	 cmp	 ebx, DWORD PTR [ecx+12]
  00200	0f 8c 6d 01 00
	00		 jl	 $LN797@InsertPack@2
  00206	8b 41 10	 mov	 eax, DWORD PTR [ecx+16]
  00209	8a 4f 08	 mov	 cl, BYTE PTR [edi+8]
  0020c	88 4c 10 20	 mov	 BYTE PTR [eax+edx+32], cl

; 381  : 	PackageList.at(Index)->Item[ItemPos].Luck			= lpItem->Luck;

  00210	8b 4e 2c	 mov	 ecx, DWORD PTR [esi+44]
  00213	8b 41 04	 mov	 eax, DWORD PTR [ecx+4]
  00216	80 78 15 00	 cmp	 BYTE PTR [eax+21], 0
  0021a	75 18		 jne	 SHORT $LN475@InsertPack@2
  0021c	8d 64 24 00	 npad	 4
$LL476@InsertPack@2:
  00220	39 58 0c	 cmp	 DWORD PTR [eax+12], ebx
  00223	7d 05		 jge	 SHORT $LN474@InsertPack@2
  00225	8b 40 08	 mov	 eax, DWORD PTR [eax+8]
  00228	eb 04		 jmp	 SHORT $LN473@InsertPack@2
$LN474@InsertPack@2:
  0022a	8b c8		 mov	 ecx, eax
  0022c	8b 00		 mov	 eax, DWORD PTR [eax]
$LN473@InsertPack@2:
  0022e	80 78 15 00	 cmp	 BYTE PTR [eax+21], 0
  00232	74 ec		 je	 SHORT $LL476@InsertPack@2
$LN475@InsertPack@2:
  00234	3b 4e 2c	 cmp	 ecx, DWORD PTR [esi+44]
  00237	0f 84 36 01 00
	00		 je	 $LN797@InsertPack@2
  0023d	3b 59 0c	 cmp	 ebx, DWORD PTR [ecx+12]
  00240	0f 8c 2d 01 00
	00		 jl	 $LN797@InsertPack@2
  00246	8b 41 10	 mov	 eax, DWORD PTR [ecx+16]
  00249	8a 4f 09	 mov	 cl, BYTE PTR [edi+9]
  0024c	88 4c 10 21	 mov	 BYTE PTR [eax+edx+33], cl

; 382  : 	PackageList.at(Index)->Item[ItemPos].Option			= lpItem->Option;

  00250	8b 4e 2c	 mov	 ecx, DWORD PTR [esi+44]
  00253	8b 41 04	 mov	 eax, DWORD PTR [ecx+4]
  00256	80 78 15 00	 cmp	 BYTE PTR [eax+21], 0
  0025a	75 18		 jne	 SHORT $LN541@InsertPack@2
  0025c	8d 64 24 00	 npad	 4
$LL542@InsertPack@2:
  00260	39 58 0c	 cmp	 DWORD PTR [eax+12], ebx
  00263	7d 05		 jge	 SHORT $LN540@InsertPack@2
  00265	8b 40 08	 mov	 eax, DWORD PTR [eax+8]
  00268	eb 04		 jmp	 SHORT $LN539@InsertPack@2
$LN540@InsertPack@2:
  0026a	8b c8		 mov	 ecx, eax
  0026c	8b 00		 mov	 eax, DWORD PTR [eax]
$LN539@InsertPack@2:
  0026e	80 78 15 00	 cmp	 BYTE PTR [eax+21], 0
  00272	74 ec		 je	 SHORT $LL542@InsertPack@2
$LN541@InsertPack@2:
  00274	3b 4e 2c	 cmp	 ecx, DWORD PTR [esi+44]
  00277	0f 84 f6 00 00
	00		 je	 $LN797@InsertPack@2
  0027d	3b 59 0c	 cmp	 ebx, DWORD PTR [ecx+12]
  00280	0f 8c ed 00 00
	00		 jl	 $LN797@InsertPack@2
  00286	8b 41 10	 mov	 eax, DWORD PTR [ecx+16]
  00289	8a 4f 0a	 mov	 cl, BYTE PTR [edi+10]
  0028c	88 4c 10 22	 mov	 BYTE PTR [eax+edx+34], cl

; 383  : 	PackageList.at(Index)->Item[ItemPos].Excellent		= lpItem->Excellent;

  00290	8b 4e 2c	 mov	 ecx, DWORD PTR [esi+44]
  00293	8b 41 04	 mov	 eax, DWORD PTR [ecx+4]
  00296	80 78 15 00	 cmp	 BYTE PTR [eax+21], 0
  0029a	75 18		 jne	 SHORT $LN607@InsertPack@2
  0029c	8d 64 24 00	 npad	 4
$LL608@InsertPack@2:
  002a0	39 58 0c	 cmp	 DWORD PTR [eax+12], ebx
  002a3	7d 05		 jge	 SHORT $LN606@InsertPack@2
  002a5	8b 40 08	 mov	 eax, DWORD PTR [eax+8]
  002a8	eb 04		 jmp	 SHORT $LN605@InsertPack@2
$LN606@InsertPack@2:
  002aa	8b c8		 mov	 ecx, eax
  002ac	8b 00		 mov	 eax, DWORD PTR [eax]
$LN605@InsertPack@2:
  002ae	80 78 15 00	 cmp	 BYTE PTR [eax+21], 0
  002b2	74 ec		 je	 SHORT $LL608@InsertPack@2
$LN607@InsertPack@2:
  002b4	3b 4e 2c	 cmp	 ecx, DWORD PTR [esi+44]
  002b7	0f 84 b6 00 00
	00		 je	 $LN797@InsertPack@2
  002bd	3b 59 0c	 cmp	 ebx, DWORD PTR [ecx+12]
  002c0	0f 8c ad 00 00
	00		 jl	 $LN797@InsertPack@2
  002c6	8b 41 10	 mov	 eax, DWORD PTR [ecx+16]
  002c9	8a 4f 0b	 mov	 cl, BYTE PTR [edi+11]
  002cc	88 4c 10 23	 mov	 BYTE PTR [eax+edx+35], cl

; 384  : 	PackageList.at(Index)->Item[ItemPos].Duration		= lpItem->Duration;

  002d0	8b 4e 2c	 mov	 ecx, DWORD PTR [esi+44]
  002d3	8b 41 04	 mov	 eax, DWORD PTR [ecx+4]
  002d6	80 78 15 00	 cmp	 BYTE PTR [eax+21], 0
  002da	75 18		 jne	 SHORT $LN673@InsertPack@2
  002dc	8d 64 24 00	 npad	 4
$LL674@InsertPack@2:
  002e0	39 58 0c	 cmp	 DWORD PTR [eax+12], ebx
  002e3	7d 05		 jge	 SHORT $LN672@InsertPack@2
  002e5	8b 40 08	 mov	 eax, DWORD PTR [eax+8]
  002e8	eb 04		 jmp	 SHORT $LN671@InsertPack@2
$LN672@InsertPack@2:
  002ea	8b c8		 mov	 ecx, eax
  002ec	8b 00		 mov	 eax, DWORD PTR [eax]
$LN671@InsertPack@2:
  002ee	80 78 15 00	 cmp	 BYTE PTR [eax+21], 0
  002f2	74 ec		 je	 SHORT $LL674@InsertPack@2
$LN673@InsertPack@2:
  002f4	3b 4e 2c	 cmp	 ecx, DWORD PTR [esi+44]
  002f7	74 7a		 je	 SHORT $LN797@InsertPack@2
  002f9	3b 59 0c	 cmp	 ebx, DWORD PTR [ecx+12]
  002fc	7c 75		 jl	 SHORT $LN797@InsertPack@2
  002fe	8b 41 10	 mov	 eax, DWORD PTR [ecx+16]
  00301	8b 4f 0c	 mov	 ecx, DWORD PTR [edi+12]
  00304	89 4c 10 24	 mov	 DWORD PTR [eax+edx+36], ecx

; 385  : 	PackageList.at(Index)->Item[ItemPos].IBSID			= lpItem->IBSID;

  00308	8b 4e 2c	 mov	 ecx, DWORD PTR [esi+44]
  0030b	8b 41 04	 mov	 eax, DWORD PTR [ecx+4]
  0030e	80 78 15 00	 cmp	 BYTE PTR [eax+21], 0
  00312	75 14		 jne	 SHORT $LN739@InsertPack@2
$LL740@InsertPack@2:
  00314	39 58 0c	 cmp	 DWORD PTR [eax+12], ebx
  00317	7d 05		 jge	 SHORT $LN738@InsertPack@2
  00319	8b 40 08	 mov	 eax, DWORD PTR [eax+8]
  0031c	eb 04		 jmp	 SHORT $LN737@InsertPack@2
$LN738@InsertPack@2:
  0031e	8b c8		 mov	 ecx, eax
  00320	8b 00		 mov	 eax, DWORD PTR [eax]
$LN737@InsertPack@2:
  00322	80 78 15 00	 cmp	 BYTE PTR [eax+21], 0
  00326	74 ec		 je	 SHORT $LL740@InsertPack@2
$LN739@InsertPack@2:
  00328	3b 4e 2c	 cmp	 ecx, DWORD PTR [esi+44]
  0032b	74 46		 je	 SHORT $LN797@InsertPack@2
  0032d	3b 59 0c	 cmp	 ebx, DWORD PTR [ecx+12]
  00330	7c 41		 jl	 SHORT $LN797@InsertPack@2
  00332	8b 41 10	 mov	 eax, DWORD PTR [ecx+16]
  00335	8b 4f 1c	 mov	 ecx, DWORD PTR [edi+28]
  00338	89 4c 10 34	 mov	 DWORD PTR [eax+edx+52], ecx

; 386  : 	// ----
; 387  : 	this->PackageList.at(Index)->ItemCount++;

  0033c	8b 4e 2c	 mov	 ecx, DWORD PTR [esi+44]
  0033f	8b 41 04	 mov	 eax, DWORD PTR [ecx+4]
  00342	80 78 15 00	 cmp	 BYTE PTR [eax+21], 0
  00346	75 14		 jne	 SHORT $LN805@InsertPack@2
$LL806@InsertPack@2:
  00348	39 58 0c	 cmp	 DWORD PTR [eax+12], ebx
  0034b	7d 05		 jge	 SHORT $LN804@InsertPack@2
  0034d	8b 40 08	 mov	 eax, DWORD PTR [eax+8]
  00350	eb 04		 jmp	 SHORT $LN803@InsertPack@2
$LN804@InsertPack@2:
  00352	8b c8		 mov	 ecx, eax
  00354	8b 00		 mov	 eax, DWORD PTR [eax]
$LN803@InsertPack@2:
  00356	80 78 15 00	 cmp	 BYTE PTR [eax+21], 0
  0035a	74 ec		 je	 SHORT $LL806@InsertPack@2
$LN805@InsertPack@2:
  0035c	3b 4e 2c	 cmp	 ecx, DWORD PTR [esi+44]
  0035f	74 12		 je	 SHORT $LN797@InsertPack@2
  00361	3b 59 0c	 cmp	 ebx, DWORD PTR [ecx+12]
  00364	7c 0d		 jl	 SHORT $LN797@InsertPack@2
  00366	8b 49 10	 mov	 ecx, DWORD PTR [ecx+16]
  00369	fe 41 14	 inc	 BYTE PTR [ecx+20]
  0036c	5f		 pop	 edi
  0036d	5e		 pop	 esi
  0036e	5b		 pop	 ebx

; 388  : }

  0036f	5d		 pop	 ebp
  00370	c2 04 00	 ret	 4

; 386  : 	// ----
; 387  : 	this->PackageList.at(Index)->ItemCount++;

$LN797@InsertPack@2:
  00373	68 00 00 00 00	 push	 OFFSET ??_C@_0BG@BBKNOMOH@invalid?5map?$DMK?0?5T?$DO?5key?$AA@
  00378	e8 00 00 00 00	 call	 ?_Xout_of_range@std@@YAXPBD@Z ; std::_Xout_of_range
$LN877@InsertPack@2:
$LN876@InsertPack@2:
  0037d	cc		 int	 3
?InsertPackagePart@GameShop@@QAEXPAUGAMESHOP_ITEM_DATA@@@Z ENDP ; GameShop::InsertPackagePart
_TEXT	ENDS
PUBLIC	??_C@_0CL@JANKMDLJ@?$FLGameShop?$FN?5?$CFs?5file?5is?5loaded?5?$FL?$CFd@ ; `string'
PUBLIC	_File$GSCopy$
PUBLIC	__$ArrayPad$
PUBLIC	?ReadPackageList@GameShop@@QAEXPAD@Z		; GameShop::ReadPackageList
;	COMDAT ??_C@_0CL@JANKMDLJ@?$FLGameShop?$FN?5?$CFs?5file?5is?5loaded?5?$FL?$CFd@
; File e:\work\tranet_version\gs\gameserver\gameshop.h
CONST	SEGMENT
??_C@_0CL@JANKMDLJ@?$FLGameShop?$FN?5?$CFs?5file?5is?5loaded?5?$FL?$CFd@ DB '['
	DB	'GameShop] %s file is loaded [%d] packages', 00H ; `string'
; Function compile flags: /Ogtp
; File e:\work\tranet_version\gs\gameserver\gameshop.cpp
CONST	ENDS
;	COMDAT ?ReadPackageList@GameShop@@QAEXPAD@Z
_TEXT	SEGMENT
_Category$ = -884					; size = 4
_File$GSCopy$ = -880					; size = 4
_pPart$ = -876						; size = 40
tv229 = -836						; size = 4
tv227 = -836						; size = 4
tv219 = -836						; size = 4
tv217 = -836						; size = 4
tv211 = -836						; size = 4
tv209 = -836						; size = 4
tv148 = -836						; size = 4
tv134 = -836						; size = 4
tv132 = -836						; size = 4
tv131 = -836						; size = 4
tv88 = -836						; size = 4
tv77 = -836						; size = 4
tv222 = -830						; size = 2
tv214 = -830						; size = 2
tv150 = -830						; size = 2
tv141 = -830						; size = 2
tv79 = -830						; size = 2
tv72 = -830						; size = 2
_pPackage$ = -828					; size = 824
__$ArrayPad$ = -4					; size = 4
_File$ = 8						; size = 4
?ReadPackageList@GameShop@@QAEXPAD@Z PROC		; GameShop::ReadPackageList, COMDAT
; _this$ = ecx

; 171  : {

  00000	55		 push	 ebp
  00001	8b ec		 mov	 ebp, esp
  00003	81 ec 74 03 00
	00		 sub	 esp, 884		; 00000374H
  00009	a1 00 00 00 00	 mov	 eax, DWORD PTR ___security_cookie
  0000e	33 c5		 xor	 eax, ebp
  00010	89 45 fc	 mov	 DWORD PTR __$ArrayPad$[ebp], eax
  00013	53		 push	 ebx
  00014	56		 push	 esi
  00015	8b 75 08	 mov	 esi, DWORD PTR _File$[ebp]
  00018	57		 push	 edi

; 172  : 	SMDToken Token;
; 173  : 	SMDFile = fopen(File, "r");	//ok

  00019	68 00 00 00 00	 push	 OFFSET ??_C@_01KDCPPGHE@r?$AA@
  0001e	56		 push	 esi
  0001f	8b f9		 mov	 edi, ecx

; 184  : 	int Category			= -1;
; 185  : 	// ----
; 186  : 	while(true)
; 187  : 	{
; 188  : 		Token = GetToken();

  00021	89 b5 90 fc ff
	ff		 mov	 DWORD PTR _File$GSCopy$[ebp], esi
  00027	e8 00 00 00 00	 call	 _fopen
  0002c	33 db		 xor	 ebx, ebx
  0002e	83 c4 08	 add	 esp, 8
  00031	a3 00 00 00 00	 mov	 DWORD PTR _SMDFile, eax
  00036	3b c3		 cmp	 eax, ebx
  00038	75 21		 jne	 SHORT $LN11@ReadPackag

; 174  : 	// ----
; 175  : 	if( !SMDFile )
; 176  : 	{
; 177  : 		MsgBox("[GameShop] %s file not found", File);

  0003a	56		 push	 esi
  0003b	68 00 00 00 00	 push	 OFFSET ??_C@_0BN@GNBNILEJ@?$FLGameShop?$FN?5?$CFs?5file?5not?5found?$AA@
  00040	e8 00 00 00 00	 call	 ?MsgBox@@YAXPADZZ	; MsgBox
  00045	83 c4 08	 add	 esp, 8
  00048	5f		 pop	 edi
  00049	5e		 pop	 esi
  0004a	5b		 pop	 ebx

; 272  : }

  0004b	8b 4d fc	 mov	 ecx, DWORD PTR __$ArrayPad$[ebp]
  0004e	33 cd		 xor	 ecx, ebp
  00050	e8 00 00 00 00	 call	 @__security_check_cookie@4
  00055	8b e5		 mov	 esp, ebp
  00057	5d		 pop	 ebp
  00058	c2 04 00	 ret	 4
$LN11@ReadPackag:

; 178  : 		return;
; 179  : 	}
; 180  : 	// ----
; 181  : 	GAMESHOP_PACKAGE_DATA	pPackage;

  0005b	8d 8d c4 fc ff
	ff		 lea	 ecx, DWORD PTR _pPackage$[ebp]
  00061	e8 00 00 00 00	 call	 ??0GAMESHOP_PACKAGE_DATA@@QAE@XZ ; GAMESHOP_PACKAGE_DATA::GAMESHOP_PACKAGE_DATA

; 182  : 	GAMESHOP_ITEM_DATA		pPart;

  00066	83 c8 ff	 or	 eax, -1
  00069	0b c8		 or	 ecx, eax
  0006b	66 89 85 94 fc
	ff ff		 mov	 WORD PTR _pPart$[ebp], ax
  00072	b0 ff		 mov	 al, 255			; 000000ffH
  00074	66 89 8d 96 fc
	ff ff		 mov	 WORD PTR _pPart$[ebp+2], cx
  0007b	c7 85 98 fc ff
	ff ff ff 00 ff	 mov	 DWORD PTR _pPart$[ebp+4], -16711681 ; ff00ffffH
  00085	89 9d 9c fc ff
	ff		 mov	 DWORD PTR _pPart$[ebp+8], ebx
  0008b	89 9d a0 fc ff
	ff		 mov	 DWORD PTR _pPart$[ebp+12], ebx
  00091	89 9d a4 fc ff
	ff		 mov	 DWORD PTR _pPart$[ebp+16], ebx
  00097	88 85 a8 fc ff
	ff		 mov	 BYTE PTR _pPart$[ebp+20], al
  0009d	89 9d ac fc ff
	ff		 mov	 DWORD PTR _pPart$[ebp+24], ebx
  000a3	89 9d b0 fc ff
	ff		 mov	 DWORD PTR _pPart$[ebp+28], ebx
  000a9	89 9d b4 fc ff
	ff		 mov	 DWORD PTR _pPart$[ebp+32], ebx
  000af	89 9d b8 fc ff
	ff		 mov	 DWORD PTR _pPart$[ebp+36], ebx

; 183  : 	this->PackageCount		= 0;

  000b5	89 5f 40	 mov	 DWORD PTR [edi+64], ebx

; 184  : 	int Category			= -1;
; 185  : 	// ----
; 186  : 	while(true)
; 187  : 	{
; 188  : 		Token = GetToken();

  000b8	e8 00 00 00 00	 call	 ?GetToken@@YA?AW4SMDToken@@XZ ; GetToken

; 189  : 		// ----
; 190  : 		if( Token == END )

  000bd	83 f8 02	 cmp	 eax, 2
  000c0	0f 84 4d 03 00
	00		 je	 $LN22@ReadPackag
  000c6	eb 08 8d a4 24
	00 00 00 00 90	 npad	 10
$LL10@ReadPackag:

; 191  : 		{
; 192  : 			break;
; 193  : 		}
; 194  : 		// ----
; 195  : 		Category = TokenNumber;

  000d0	d9 05 00 00 00
	00		 fld	 DWORD PTR _TokenNumber
  000d6	e8 00 00 00 00	 call	 __ftol2_sse
  000db	8b f0		 mov	 esi, eax
  000dd	89 b5 8c fc ff
	ff		 mov	 DWORD PTR _Category$[ebp], esi
$LL7@ReadPackag:

; 196  : 		// ----
; 197  : 		while(true)
; 198  : 		{
; 199  : 			if( Category == 0 )	//-> Package list

  000e3	3b f3		 cmp	 esi, ebx
  000e5	0f 85 c6 00 00
	00		 jne	 $LN5@ReadPackag

; 200  : 			{
; 201  : 				Token = GetToken();

  000eb	e8 00 00 00 00	 call	 ?GetToken@@YA?AW4SMDToken@@XZ ; GetToken

; 202  : 				// ----
; 203  : 				if( !strcmp("end", TokenString) )

  000f0	b9 00 00 00 00	 mov	 ecx, OFFSET _TokenString
  000f5	b8 00 00 00 00	 mov	 eax, OFFSET ??_C@_03JBJLGPFL@end?$AA@
  000fa	8d 9b 00 00 00
	00		 npad	 6
$LL23@ReadPackag:
  00100	8a 10		 mov	 dl, BYTE PTR [eax]
  00102	3a 11		 cmp	 dl, BYTE PTR [ecx]
  00104	75 1a		 jne	 SHORT $LN24@ReadPackag
  00106	3a d3		 cmp	 dl, bl
  00108	74 12		 je	 SHORT $LN25@ReadPackag
  0010a	8a 50 01	 mov	 dl, BYTE PTR [eax+1]
  0010d	3a 51 01	 cmp	 dl, BYTE PTR [ecx+1]
  00110	75 0e		 jne	 SHORT $LN24@ReadPackag
  00112	83 c0 02	 add	 eax, 2
  00115	83 c1 02	 add	 ecx, 2
  00118	3a d3		 cmp	 dl, bl
  0011a	75 e4		 jne	 SHORT $LL23@ReadPackag
$LN25@ReadPackag:
  0011c	33 c0		 xor	 eax, eax
  0011e	eb 05		 jmp	 SHORT $LN26@ReadPackag
$LN24@ReadPackag:
  00120	1b c0		 sbb	 eax, eax
  00122	83 d8 ff	 sbb	 eax, -1
$LN26@ReadPackag:
  00125	3b c3		 cmp	 eax, ebx
  00127	0f 84 d2 02 00
	00		 je	 $LN20@ReadPackag

; 204  : 				{
; 205  : 					break;
; 206  : 				}
; 207  : 				// ----
; 208  : 				pPackage.PackageID		= TokenNumber;

  0012d	d9 05 00 00 00
	00		 fld	 DWORD PTR _TokenNumber
  00133	e8 00 00 00 00	 call	 __ftol2_sse
  00138	66 89 85 c4 fc
	ff ff		 mov	 WORD PTR _pPackage$[ebp], ax

; 209  : 				// ----
; 210  : 				Token = GetToken();

  0013f	e8 00 00 00 00	 call	 ?GetToken@@YA?AW4SMDToken@@XZ ; GetToken

; 211  : 				pPackage.IBSCategory	= TokenNumber;

  00144	d9 05 00 00 00
	00		 fld	 DWORD PTR _TokenNumber
  0014a	e8 00 00 00 00	 call	 __ftol2_sse
  0014f	8b f0		 mov	 esi, eax
  00151	89 b5 c8 fc ff
	ff		 mov	 DWORD PTR _pPackage$[ebp+4], esi

; 212  : 				// ----
; 213  : 				Token = GetToken();

  00157	e8 00 00 00 00	 call	 ?GetToken@@YA?AW4SMDToken@@XZ ; GetToken

; 214  : 				pPackage.Price			= TokenNumber;

  0015c	d9 05 00 00 00
	00		 fld	 DWORD PTR _TokenNumber
  00162	e8 00 00 00 00	 call	 __ftol2_sse

; 215  : 				// ----
; 216  : 				pPackage.PointType		= this->GetPointType(pPackage.IBSCategory);

  00167	56		 push	 esi
  00168	8b cf		 mov	 ecx, edi
  0016a	89 85 cc fc ff
	ff		 mov	 DWORD PTR _pPackage$[ebp+8], eax
  00170	e8 00 00 00 00	 call	 ?GetPointType@GameShop@@QAEEH@Z ; GameShop::GetPointType
  00175	88 85 d0 fc ff
	ff		 mov	 BYTE PTR _pPackage$[ebp+12], al

; 217  : 				// ----
; 218  : 				Token = GetToken();

  0017b	e8 00 00 00 00	 call	 ?GetToken@@YA?AW4SMDToken@@XZ ; GetToken

; 219  : 				pPackage.GPBonus		= TokenNumber;

  00180	d9 05 00 00 00
	00		 fld	 DWORD PTR _TokenNumber
  00186	e8 00 00 00 00	 call	 __ftol2_sse

; 220  : 				// ----
; 221  : 				this->InsertPackage(&pPackage, this->PackageCount);

  0018b	8b 57 40	 mov	 edx, DWORD PTR [edi+64]
  0018e	89 85 d4 fc ff
	ff		 mov	 DWORD PTR _pPackage$[ebp+16], eax
  00194	52		 push	 edx
  00195	8d 85 c4 fc ff
	ff		 lea	 eax, DWORD PTR _pPackage$[ebp]
  0019b	50		 push	 eax
  0019c	8b cf		 mov	 ecx, edi
  0019e	e8 00 00 00 00	 call	 ?InsertPackage@GameShop@@QAEXPAUGAMESHOP_PACKAGE_DATA@@H@Z ; GameShop::InsertPackage

; 222  : 				// ----
; 223  : 				this->PackageCount++;

  001a3	ff 47 40	 inc	 DWORD PTR [edi+64]
  001a6	8b b5 8c fc ff
	ff		 mov	 esi, DWORD PTR _Category$[ebp]
  001ac	e9 32 ff ff ff	 jmp	 $LL7@ReadPackag
$LN5@ReadPackag:

; 224  : 			}
; 225  : 			else if( Category > 0 && Category < 1000 )

  001b1	8d 4e ff	 lea	 ecx, DWORD PTR [esi-1]
  001b4	81 f9 e6 03 00
	00		 cmp	 ecx, 998		; 000003e6H
  001ba	0f 87 23 ff ff
	ff		 ja	 $LL7@ReadPackag

; 226  : 			{
; 227  : 				Token = GetToken();

  001c0	e8 00 00 00 00	 call	 ?GetToken@@YA?AW4SMDToken@@XZ ; GetToken

; 228  : 				// ----
; 229  : 				if( !strcmp("end", TokenString) )

  001c5	b9 00 00 00 00	 mov	 ecx, OFFSET _TokenString
  001ca	b8 00 00 00 00	 mov	 eax, OFFSET ??_C@_03JBJLGPFL@end?$AA@
  001cf	90		 npad	 1
$LL27@ReadPackag:
  001d0	8a 10		 mov	 dl, BYTE PTR [eax]
  001d2	3a 11		 cmp	 dl, BYTE PTR [ecx]
  001d4	75 1a		 jne	 SHORT $LN28@ReadPackag
  001d6	3a d3		 cmp	 dl, bl
  001d8	74 12		 je	 SHORT $LN29@ReadPackag
  001da	8a 50 01	 mov	 dl, BYTE PTR [eax+1]
  001dd	3a 51 01	 cmp	 dl, BYTE PTR [ecx+1]
  001e0	75 0e		 jne	 SHORT $LN28@ReadPackag
  001e2	83 c0 02	 add	 eax, 2
  001e5	83 c1 02	 add	 ecx, 2
  001e8	3a d3		 cmp	 dl, bl
  001ea	75 e4		 jne	 SHORT $LL27@ReadPackag
$LN29@ReadPackag:
  001ec	33 c0		 xor	 eax, eax
  001ee	eb 05		 jmp	 SHORT $LN30@ReadPackag
$LN28@ReadPackag:
  001f0	1b c0		 sbb	 eax, eax
  001f2	83 d8 ff	 sbb	 eax, -1
$LN30@ReadPackag:
  001f5	3b c3		 cmp	 eax, ebx
  001f7	0f 84 02 02 00
	00		 je	 $LN20@ReadPackag

; 230  : 				{
; 231  : 					break;
; 232  : 				}
; 233  : 				// ----
; 234  : 				pPart.PackageID		= Category;
; 235  : 				// ----
; 236  : 				pPart.ItemID		= TokenNumber;

  001fd	d9 05 00 00 00
	00		 fld	 DWORD PTR _TokenNumber
  00203	66 89 b5 94 fc
	ff ff		 mov	 WORD PTR _pPart$[ebp], si
  0020a	e8 00 00 00 00	 call	 __ftol2_sse
  0020f	66 89 85 96 fc
	ff ff		 mov	 WORD PTR _pPart$[ebp+2], ax

; 237  : 				// ----
; 238  : 				pPart.X				= ItemAttribute[pPart.ItemID].Width;

  00216	98		 cwde
  00217	6b c0 70	 imul	 eax, 112		; 00000070H
  0021a	0f b6 90 23 00
	00 00		 movzx	 edx, BYTE PTR ?ItemAttribute@@3PAUITEM_ATTRIBUTE@@A[eax+35]

; 239  : 				pPart.Y				= ItemAttribute[pPart.ItemID].Height;

  00221	0f b6 80 24 00
	00 00		 movzx	 eax, BYTE PTR ?ItemAttribute@@3PAUITEM_ATTRIBUTE@@A[eax+36]
  00228	88 95 98 fc ff
	ff		 mov	 BYTE PTR _pPart$[ebp+4], dl
  0022e	88 85 99 fc ff
	ff		 mov	 BYTE PTR _pPart$[ebp+5], al

; 240  : 				// ----
; 241  : 				Token = GetToken();

  00234	e8 00 00 00 00	 call	 ?GetToken@@YA?AW4SMDToken@@XZ ; GetToken

; 242  : 				pPart.Level			= TokenNumber;

  00239	d9 05 00 00 00
	00		 fld	 DWORD PTR _TokenNumber
  0023f	d9 bd c2 fc ff
	ff		 fnstcw	 WORD PTR tv141[ebp]
  00245	0f b7 85 c2 fc
	ff ff		 movzx	 eax, WORD PTR tv141[ebp]
  0024c	0d 00 0c 00 00	 or	 eax, 3072		; 00000c00H
  00251	89 85 bc fc ff
	ff		 mov	 DWORD PTR tv132[ebp], eax
  00257	d9 ad bc fc ff
	ff		 fldcw	 WORD PTR tv132[ebp]
  0025d	db 9d bc fc ff
	ff		 fistp	 DWORD PTR tv88[ebp]
  00263	0f b6 8d bc fc
	ff ff		 movzx	 ecx, BYTE PTR tv88[ebp]
  0026a	88 8d 9a fc ff
	ff		 mov	 BYTE PTR _pPart$[ebp+6], cl
  00270	d9 ad c2 fc ff
	ff		 fldcw	 WORD PTR tv141[ebp]

; 243  : 				// ----
; 244  : 				Token = GetToken();

  00276	e8 00 00 00 00	 call	 ?GetToken@@YA?AW4SMDToken@@XZ ; GetToken

; 245  : 				pPart.Durability	= TokenNumber;

  0027b	d9 05 00 00 00
	00		 fld	 DWORD PTR _TokenNumber
  00281	d9 bd c2 fc ff
	ff		 fnstcw	 WORD PTR tv79[ebp]
  00287	0f b7 85 c2 fc
	ff ff		 movzx	 eax, WORD PTR tv79[ebp]
  0028e	0d 00 0c 00 00	 or	 eax, 3072		; 00000c00H
  00293	89 85 bc fc ff
	ff		 mov	 DWORD PTR tv148[ebp], eax
  00299	d9 ad bc fc ff
	ff		 fldcw	 WORD PTR tv148[ebp]
  0029f	db 9d bc fc ff
	ff		 fistp	 DWORD PTR tv134[ebp]
  002a5	0f b6 95 bc fc
	ff ff		 movzx	 edx, BYTE PTR tv134[ebp]
  002ac	88 95 9b fc ff
	ff		 mov	 BYTE PTR _pPart$[ebp+7], dl
  002b2	d9 ad c2 fc ff
	ff		 fldcw	 WORD PTR tv79[ebp]

; 246  : 				// ----
; 247  : 				Token = GetToken();

  002b8	e8 00 00 00 00	 call	 ?GetToken@@YA?AW4SMDToken@@XZ ; GetToken

; 248  : 				pPart.Skill			= TokenNumber;

  002bd	d9 05 00 00 00
	00		 fld	 DWORD PTR _TokenNumber
  002c3	d9 bd c2 fc ff
	ff		 fnstcw	 WORD PTR tv72[ebp]
  002c9	0f b7 85 c2 fc
	ff ff		 movzx	 eax, WORD PTR tv72[ebp]
  002d0	0d 00 0c 00 00	 or	 eax, 3072		; 00000c00H
  002d5	89 85 bc fc ff
	ff		 mov	 DWORD PTR tv229[ebp], eax
  002db	d9 ad bc fc ff
	ff		 fldcw	 WORD PTR tv229[ebp]
  002e1	db 9d bc fc ff
	ff		 fistp	 DWORD PTR tv227[ebp]
  002e7	0f b6 85 bc fc
	ff ff		 movzx	 eax, BYTE PTR tv227[ebp]
  002ee	88 85 9c fc ff
	ff		 mov	 BYTE PTR _pPart$[ebp+8], al
  002f4	d9 ad c2 fc ff
	ff		 fldcw	 WORD PTR tv72[ebp]

; 249  : 				// ----
; 250  : 				Token = GetToken();

  002fa	e8 00 00 00 00	 call	 ?GetToken@@YA?AW4SMDToken@@XZ ; GetToken

; 251  : 				pPart.Luck			= TokenNumber;

  002ff	d9 05 00 00 00
	00		 fld	 DWORD PTR _TokenNumber
  00305	d9 bd c2 fc ff
	ff		 fnstcw	 WORD PTR tv222[ebp]
  0030b	0f b7 85 c2 fc
	ff ff		 movzx	 eax, WORD PTR tv222[ebp]
  00312	0d 00 0c 00 00	 or	 eax, 3072		; 00000c00H
  00317	89 85 bc fc ff
	ff		 mov	 DWORD PTR tv219[ebp], eax
  0031d	d9 ad bc fc ff
	ff		 fldcw	 WORD PTR tv219[ebp]
  00323	db 9d bc fc ff
	ff		 fistp	 DWORD PTR tv217[ebp]
  00329	0f b6 8d bc fc
	ff ff		 movzx	 ecx, BYTE PTR tv217[ebp]
  00330	88 8d 9d fc ff
	ff		 mov	 BYTE PTR _pPart$[ebp+9], cl
  00336	d9 ad c2 fc ff
	ff		 fldcw	 WORD PTR tv222[ebp]

; 252  : 				// ----
; 253  : 				Token = GetToken();

  0033c	e8 00 00 00 00	 call	 ?GetToken@@YA?AW4SMDToken@@XZ ; GetToken

; 254  : 				pPart.Option		= TokenNumber;

  00341	d9 05 00 00 00
	00		 fld	 DWORD PTR _TokenNumber
  00347	d9 bd c2 fc ff
	ff		 fnstcw	 WORD PTR tv214[ebp]
  0034d	0f b7 85 c2 fc
	ff ff		 movzx	 eax, WORD PTR tv214[ebp]
  00354	0d 00 0c 00 00	 or	 eax, 3072		; 00000c00H
  00359	89 85 bc fc ff
	ff		 mov	 DWORD PTR tv211[ebp], eax
  0035f	d9 ad bc fc ff
	ff		 fldcw	 WORD PTR tv211[ebp]
  00365	db 9d bc fc ff
	ff		 fistp	 DWORD PTR tv209[ebp]
  0036b	0f b6 95 bc fc
	ff ff		 movzx	 edx, BYTE PTR tv209[ebp]
  00372	88 95 9e fc ff
	ff		 mov	 BYTE PTR _pPart$[ebp+10], dl
  00378	d9 ad c2 fc ff
	ff		 fldcw	 WORD PTR tv214[ebp]

; 255  : 				// ----
; 256  : 				Token = GetToken();

  0037e	e8 00 00 00 00	 call	 ?GetToken@@YA?AW4SMDToken@@XZ ; GetToken

; 257  : 				pPart.Excellent		= TokenNumber;

  00383	d9 05 00 00 00
	00		 fld	 DWORD PTR _TokenNumber
  00389	d9 bd c2 fc ff
	ff		 fnstcw	 WORD PTR tv150[ebp]
  0038f	0f b7 85 c2 fc
	ff ff		 movzx	 eax, WORD PTR tv150[ebp]
  00396	0d 00 0c 00 00	 or	 eax, 3072		; 00000c00H
  0039b	89 85 bc fc ff
	ff		 mov	 DWORD PTR tv131[ebp], eax
  003a1	d9 ad bc fc ff
	ff		 fldcw	 WORD PTR tv131[ebp]
  003a7	db 9d bc fc ff
	ff		 fistp	 DWORD PTR tv77[ebp]
  003ad	0f b6 85 bc fc
	ff ff		 movzx	 eax, BYTE PTR tv77[ebp]
  003b4	88 85 9f fc ff
	ff		 mov	 BYTE PTR _pPart$[ebp+11], al
  003ba	d9 ad c2 fc ff
	ff		 fldcw	 WORD PTR tv150[ebp]

; 258  : 				// ----
; 259  : 				Token = GetToken();

  003c0	e8 00 00 00 00	 call	 ?GetToken@@YA?AW4SMDToken@@XZ ; GetToken

; 260  : 				pPart.Duration		= TokenNumber;

  003c5	d9 05 00 00 00
	00		 fld	 DWORD PTR _TokenNumber
  003cb	e8 00 00 00 00	 call	 __ftol2_sse
  003d0	89 85 a0 fc ff
	ff		 mov	 DWORD PTR _pPart$[ebp+12], eax

; 261  : 				// ----
; 262  : 				Token = GetToken();

  003d6	e8 00 00 00 00	 call	 ?GetToken@@YA?AW4SMDToken@@XZ ; GetToken

; 263  : 				pPart.IBSID			= TokenNumber;

  003db	d9 05 00 00 00
	00		 fld	 DWORD PTR _TokenNumber
  003e1	e8 00 00 00 00	 call	 __ftol2_sse

; 264  : 				// ----
; 265  : 				this->InsertPackagePart(&pPart);

  003e6	8d 8d 94 fc ff
	ff		 lea	 ecx, DWORD PTR _pPart$[ebp]
  003ec	51		 push	 ecx
  003ed	8b cf		 mov	 ecx, edi
  003ef	89 85 b0 fc ff
	ff		 mov	 DWORD PTR _pPart$[ebp+28], eax
  003f5	e8 00 00 00 00	 call	 ?InsertPackagePart@GameShop@@QAEXPAUGAMESHOP_ITEM_DATA@@@Z ; GameShop::InsertPackagePart

; 266  : 			}
; 267  : 		}

  003fa	e9 e4 fc ff ff	 jmp	 $LL7@ReadPackag
$LN20@ReadPackag:

; 184  : 	int Category			= -1;
; 185  : 	// ----
; 186  : 	while(true)
; 187  : 	{
; 188  : 		Token = GetToken();

  003ff	e8 00 00 00 00	 call	 ?GetToken@@YA?AW4SMDToken@@XZ ; GetToken

; 189  : 		// ----
; 190  : 		if( Token == END )

  00404	83 f8 02	 cmp	 eax, 2
  00407	0f 85 c3 fc ff
	ff		 jne	 $LL10@ReadPackag
  0040d	8b b5 90 fc ff
	ff		 mov	 esi, DWORD PTR _File$GSCopy$[ebp]
$LN22@ReadPackag:

; 268  : 	}
; 269  : 	// ----
; 270  : 	fclose(SMDFile);

  00413	8b 15 00 00 00
	00		 mov	 edx, DWORD PTR _SMDFile
  00419	52		 push	 edx
  0041a	e8 00 00 00 00	 call	 _fclose

; 271  : 	LogAddTD("[GameShop] %s file is loaded [%d] packages", File, this->PackageCount);

  0041f	8b 47 40	 mov	 eax, DWORD PTR [edi+64]
  00422	50		 push	 eax
  00423	56		 push	 esi
  00424	68 00 00 00 00	 push	 OFFSET ??_C@_0CL@JANKMDLJ@?$FLGameShop?$FN?5?$CFs?5file?5is?5loaded?5?$FL?$CFd@
  00429	ff 15 00 00 00
	00		 call	 DWORD PTR ?LogAddTD@@3P6AXPADZZA ; LogAddTD

; 272  : }

  0042f	8b 4d fc	 mov	 ecx, DWORD PTR __$ArrayPad$[ebp]
  00432	83 c4 10	 add	 esp, 16			; 00000010H
  00435	5f		 pop	 edi
  00436	5e		 pop	 esi
  00437	33 cd		 xor	 ecx, ebp
  00439	5b		 pop	 ebx
  0043a	e8 00 00 00 00	 call	 @__security_check_cookie@4
  0043f	8b e5		 mov	 esp, ebp
  00441	5d		 pop	 ebp
  00442	c2 04 00	 ret	 4
?ReadPackageList@GameShop@@QAEXPAD@Z ENDP		; GameShop::ReadPackageList
_TEXT	ENDS
PUBLIC	??_C@_0BN@IOIMDDDI@GameShop?2GameShopPackage?4txt?$AA@ ; `string'
PUBLIC	??_C@_0BK@GMCEFHIN@GameShop?2GameShopItem?4txt?$AA@ ; `string'
PUBLIC	??_C@_0BO@NBHEMKDG@GameShop?2GameShopCategory?4txt?$AA@ ; `string'
PUBLIC	??_C@_0CA@CMNOJBME@?$FLGameShop?$FN?5GameShop?5is?5disabled?$AA@ ; `string'
PUBLIC	??_C@_0O@DLCIENJL@BannerVersion?$AA@		; `string'
PUBLIC	??_C@_08DNLDHPFP@Revision?$AA@			; `string'
PUBLIC	??_C@_05OMKCEFIL@Minor?$AA@			; `string'
PUBLIC	??_C@_0O@DCHNKDBC@ScriptVersion?$AA@		; `string'
PUBLIC	??_C@_05FDLAJJBN@Major?$AA@			; `string'
PUBLIC	??_C@_0BB@FJANMAEE@GoblinPointBonus?$AA@	; `string'
PUBLIC	??_C@_08CPGEHBOH@AddBonus?$AA@			; `string'
PUBLIC	??_C@_04KGFMLCPK@Main?$AA@			; `string'
PUBLIC	??_C@_06MAFFGDO@Active?$AA@			; `string'
PUBLIC	??_C@_0BG@LAJGJBPF@GameShop?2GameShop?4ini?$AA@	; `string'
PUBLIC	?Load@GameShop@@QAEXXZ				; GameShop::Load
EXTRN	?LogAdd@@3P6AXPADZZA:DWORD			; LogAdd
EXTRN	__imp__GetPrivateProfileIntA@16:PROC
EXTRN	?GetNewPath@CDirPath@@QAEPADPAD@Z:PROC		; CDirPath::GetNewPath
EXTRN	?gDirPath@@3VCDirPath@@A:BYTE			; gDirPath
;	COMDAT ??_C@_0BN@IOIMDDDI@GameShop?2GameShopPackage?4txt?$AA@
CONST	SEGMENT
??_C@_0BN@IOIMDDDI@GameShop?2GameShopPackage?4txt?$AA@ DB 'GameShop\GameS'
	DB	'hopPackage.txt', 00H			; `string'
CONST	ENDS
;	COMDAT ??_C@_0BK@GMCEFHIN@GameShop?2GameShopItem?4txt?$AA@
CONST	SEGMENT
??_C@_0BK@GMCEFHIN@GameShop?2GameShopItem?4txt?$AA@ DB 'GameShop\GameShop'
	DB	'Item.txt', 00H				; `string'
CONST	ENDS
;	COMDAT ??_C@_0BO@NBHEMKDG@GameShop?2GameShopCategory?4txt?$AA@
CONST	SEGMENT
??_C@_0BO@NBHEMKDG@GameShop?2GameShopCategory?4txt?$AA@ DB 'GameShop\Game'
	DB	'ShopCategory.txt', 00H			; `string'
CONST	ENDS
;	COMDAT ??_C@_0CA@CMNOJBME@?$FLGameShop?$FN?5GameShop?5is?5disabled?$AA@
CONST	SEGMENT
??_C@_0CA@CMNOJBME@?$FLGameShop?$FN?5GameShop?5is?5disabled?$AA@ DB '[Gam'
	DB	'eShop] GameShop is disabled', 00H		; `string'
CONST	ENDS
;	COMDAT ??_C@_0O@DLCIENJL@BannerVersion?$AA@
CONST	SEGMENT
??_C@_0O@DLCIENJL@BannerVersion?$AA@ DB 'BannerVersion', 00H ; `string'
CONST	ENDS
;	COMDAT ??_C@_08DNLDHPFP@Revision?$AA@
CONST	SEGMENT
??_C@_08DNLDHPFP@Revision?$AA@ DB 'Revision', 00H	; `string'
CONST	ENDS
;	COMDAT ??_C@_05OMKCEFIL@Minor?$AA@
CONST	SEGMENT
??_C@_05OMKCEFIL@Minor?$AA@ DB 'Minor', 00H		; `string'
CONST	ENDS
;	COMDAT ??_C@_0O@DCHNKDBC@ScriptVersion?$AA@
CONST	SEGMENT
??_C@_0O@DCHNKDBC@ScriptVersion?$AA@ DB 'ScriptVersion', 00H ; `string'
CONST	ENDS
;	COMDAT ??_C@_05FDLAJJBN@Major?$AA@
CONST	SEGMENT
??_C@_05FDLAJJBN@Major?$AA@ DB 'Major', 00H		; `string'
CONST	ENDS
;	COMDAT ??_C@_0BB@FJANMAEE@GoblinPointBonus?$AA@
CONST	SEGMENT
??_C@_0BB@FJANMAEE@GoblinPointBonus?$AA@ DB 'GoblinPointBonus', 00H ; `string'
CONST	ENDS
;	COMDAT ??_C@_08CPGEHBOH@AddBonus?$AA@
CONST	SEGMENT
??_C@_08CPGEHBOH@AddBonus?$AA@ DB 'AddBonus', 00H	; `string'
CONST	ENDS
;	COMDAT ??_C@_04KGFMLCPK@Main?$AA@
CONST	SEGMENT
??_C@_04KGFMLCPK@Main?$AA@ DB 'Main', 00H		; `string'
CONST	ENDS
;	COMDAT ??_C@_06MAFFGDO@Active?$AA@
CONST	SEGMENT
??_C@_06MAFFGDO@Active?$AA@ DB 'Active', 00H		; `string'
CONST	ENDS
;	COMDAT ??_C@_0BG@LAJGJBPF@GameShop?2GameShop?4ini?$AA@
CONST	SEGMENT
??_C@_0BG@LAJGJBPF@GameShop?2GameShop?4ini?$AA@ DB 'GameShop\GameShop.ini'
	DB	00H						; `string'
; Function compile flags: /Ogtp
CONST	ENDS
;	COMDAT ?Load@GameShop@@QAEXXZ
_TEXT	SEGMENT
?Load@GameShop@@QAEXXZ PROC				; GameShop::Load, COMDAT
; _this$ = ecx

; 50   : {

  00000	53		 push	 ebx
  00001	56		 push	 esi
  00002	57		 push	 edi
  00003	8b f1		 mov	 esi, ecx

; 51   : 	char * OptionFile	= gDirPath.GetNewPath("GameShop\\GameShop.ini");

  00005	68 00 00 00 00	 push	 OFFSET ??_C@_0BG@LAJGJBPF@GameShop?2GameShop?4ini?$AA@
  0000a	b9 00 00 00 00	 mov	 ecx, OFFSET ?gDirPath@@3VCDirPath@@A ; gDirPath
  0000f	e8 00 00 00 00	 call	 ?GetNewPath@CDirPath@@QAEPADPAD@Z ; CDirPath::GetNewPath

; 52   : 	// ----
; 53   : 	this->OptionData.ActiveGameShop	= GetPrivateProfileIntA("Main", "Active", 1, OptionFile);

  00014	8b 1d 00 00 00
	00		 mov	 ebx, DWORD PTR __imp__GetPrivateProfileIntA@16
  0001a	8b f8		 mov	 edi, eax
  0001c	57		 push	 edi
  0001d	6a 01		 push	 1
  0001f	68 00 00 00 00	 push	 OFFSET ??_C@_06MAFFGDO@Active?$AA@
  00024	68 00 00 00 00	 push	 OFFSET ??_C@_04KGFMLCPK@Main?$AA@
  00029	ff d3		 call	 ebx

; 54   : 	this->OptionData.AddGPBonus		= GetPrivateProfileIntA("GoblinPointBonus", "AddBonus", 0, OptionFile);

  0002b	57		 push	 edi
  0002c	6a 00		 push	 0
  0002e	85 c0		 test	 eax, eax
  00030	68 00 00 00 00	 push	 OFFSET ??_C@_08CPGEHBOH@AddBonus?$AA@
  00035	0f 95 c0	 setne	 al
  00038	68 00 00 00 00	 push	 OFFSET ??_C@_0BB@FJANMAEE@GoblinPointBonus?$AA@
  0003d	88 46 04	 mov	 BYTE PTR [esi+4], al
  00040	ff d3		 call	 ebx

; 55   : 	// ----
; 56   : 	this->OptionData.ScriptMajor	= GetPrivateProfileIntA("ScriptVersion", "Major", 512, OptionFile);

  00042	57		 push	 edi
  00043	68 00 02 00 00	 push	 512			; 00000200H
  00048	68 00 00 00 00	 push	 OFFSET ??_C@_05FDLAJJBN@Major?$AA@
  0004d	68 00 00 00 00	 push	 OFFSET ??_C@_0O@DCHNKDBC@ScriptVersion?$AA@
  00052	89 46 14	 mov	 DWORD PTR [esi+20], eax
  00055	ff d3		 call	 ebx

; 57   : 	this->OptionData.ScriptMinor	= GetPrivateProfileIntA("ScriptVersion", "Minor", 2012, OptionFile);

  00057	57		 push	 edi
  00058	68 dc 07 00 00	 push	 2012			; 000007dcH
  0005d	68 00 00 00 00	 push	 OFFSET ??_C@_05OMKCEFIL@Minor?$AA@
  00062	68 00 00 00 00	 push	 OFFSET ??_C@_0O@DCHNKDBC@ScriptVersion?$AA@
  00067	66 89 46 06	 mov	 WORD PTR [esi+6], ax
  0006b	ff d3		 call	 ebx

; 58   : 	this->OptionData.ScriptRevision	= GetPrivateProfileIntA("ScriptVersion", "Revision", 10, OptionFile);

  0006d	57		 push	 edi
  0006e	6a 0a		 push	 10			; 0000000aH
  00070	68 00 00 00 00	 push	 OFFSET ??_C@_08DNLDHPFP@Revision?$AA@
  00075	68 00 00 00 00	 push	 OFFSET ??_C@_0O@DCHNKDBC@ScriptVersion?$AA@
  0007a	66 89 46 08	 mov	 WORD PTR [esi+8], ax
  0007e	ff d3		 call	 ebx

; 59   : 	this->OptionData.BannerMajor	= GetPrivateProfileIntA("BannerVersion", "Major", 512, OptionFile);

  00080	57		 push	 edi
  00081	68 00 02 00 00	 push	 512			; 00000200H
  00086	68 00 00 00 00	 push	 OFFSET ??_C@_05FDLAJJBN@Major?$AA@
  0008b	68 00 00 00 00	 push	 OFFSET ??_C@_0O@DLCIENJL@BannerVersion?$AA@
  00090	66 89 46 0a	 mov	 WORD PTR [esi+10], ax
  00094	ff d3		 call	 ebx

; 60   : 	this->OptionData.BannerMinor	= GetPrivateProfileIntA("BannerVersion", "Minor", 2010, OptionFile);

  00096	57		 push	 edi
  00097	68 da 07 00 00	 push	 2010			; 000007daH
  0009c	68 00 00 00 00	 push	 OFFSET ??_C@_05OMKCEFIL@Minor?$AA@
  000a1	68 00 00 00 00	 push	 OFFSET ??_C@_0O@DLCIENJL@BannerVersion?$AA@
  000a6	66 89 46 0c	 mov	 WORD PTR [esi+12], ax
  000aa	ff d3		 call	 ebx

; 61   : 	this->OptionData.BannerRevision	= GetPrivateProfileIntA("BannerVersion", "Revision", 5, OptionFile);

  000ac	57		 push	 edi
  000ad	6a 05		 push	 5
  000af	68 00 00 00 00	 push	 OFFSET ??_C@_08DNLDHPFP@Revision?$AA@
  000b4	68 00 00 00 00	 push	 OFFSET ??_C@_0O@DLCIENJL@BannerVersion?$AA@
  000b9	66 89 46 0e	 mov	 WORD PTR [esi+14], ax
  000bd	ff d3		 call	 ebx

; 62   : 	// ----
; 63   : 	if( !this->OptionData.ActiveGameShop )

  000bf	80 7e 04 00	 cmp	 BYTE PTR [esi+4], 0
  000c3	66 89 46 10	 mov	 WORD PTR [esi+16], ax
  000c7	75 12		 jne	 SHORT $LN1@Load

; 64   : 	{
; 65   : 		LogAdd("[GameShop] GameShop is disabled");

  000c9	68 00 00 00 00	 push	 OFFSET ??_C@_0CA@CMNOJBME@?$FLGameShop?$FN?5GameShop?5is?5disabled?$AA@
  000ce	ff 15 00 00 00
	00		 call	 DWORD PTR ?LogAdd@@3P6AXPADZZA ; LogAdd
  000d4	83 c4 04	 add	 esp, 4
  000d7	5f		 pop	 edi
  000d8	5e		 pop	 esi
  000d9	5b		 pop	 ebx

; 76   : }

  000da	c3		 ret	 0
$LN1@Load:

; 66   : 		return;
; 67   : 	}
; 68   : 	// ----
; 69   : 	this->ItemList.clear();

  000db	8d 4e 18	 lea	 ecx, DWORD PTR [esi+24]
  000de	e8 00 00 00 00	 call	 ?clear@?$_Tree@V?$_Tmap_traits@HPAUGAMESHOP_ITEM_DATA@@U?$less@H@std@@V?$allocator@U?$pair@$$CBHPAUGAMESHOP_ITEM_DATA@@@std@@@3@$0A@@std@@@std@@QAEXXZ ; std::_Tree<std::_Tmap_traits<int,GAMESHOP_ITEM_DATA *,std::less<int>,std::allocator<std::pair<int const ,GAMESHOP_ITEM_DATA *> >,0> >::clear

; 70   : 	this->PackageList.clear();

  000e3	8d 4e 28	 lea	 ecx, DWORD PTR [esi+40]
  000e6	e8 00 00 00 00	 call	 ?clear@?$_Tree@V?$_Tmap_traits@HPAUGAMESHOP_PACKAGE_DATA@@U?$less@H@std@@V?$allocator@U?$pair@$$CBHPAUGAMESHOP_PACKAGE_DATA@@@std@@@3@$0A@@std@@@std@@QAEXXZ ; std::_Tree<std::_Tmap_traits<int,GAMESHOP_PACKAGE_DATA *,std::less<int>,std::allocator<std::pair<int const ,GAMESHOP_PACKAGE_DATA *> >,0> >::clear

; 71   : 	ZeroMemory(this->PointCategory, sizeof(this->PointCategory));

  000eb	68 96 00 00 00	 push	 150			; 00000096H
  000f0	8d 4e 44	 lea	 ecx, DWORD PTR [esi+68]
  000f3	6a 00		 push	 0
  000f5	51		 push	 ecx
  000f6	e8 00 00 00 00	 call	 _memset
  000fb	83 c4 0c	 add	 esp, 12			; 0000000cH

; 72   : 	// ----
; 73   : 	this->ReadCategoryList(gDirPath.GetNewPath("GameShop\\GameShopCategory.txt"));

  000fe	68 00 00 00 00	 push	 OFFSET ??_C@_0BO@NBHEMKDG@GameShop?2GameShopCategory?4txt?$AA@
  00103	b9 00 00 00 00	 mov	 ecx, OFFSET ?gDirPath@@3VCDirPath@@A ; gDirPath
  00108	e8 00 00 00 00	 call	 ?GetNewPath@CDirPath@@QAEPADPAD@Z ; CDirPath::GetNewPath
  0010d	50		 push	 eax
  0010e	8b ce		 mov	 ecx, esi
  00110	e8 00 00 00 00	 call	 ?ReadCategoryList@GameShop@@QAEXPAD@Z ; GameShop::ReadCategoryList

; 74   : 	this->ReadItemList(gDirPath.GetNewPath("GameShop\\GameShopItem.txt"));

  00115	68 00 00 00 00	 push	 OFFSET ??_C@_0BK@GMCEFHIN@GameShop?2GameShopItem?4txt?$AA@
  0011a	b9 00 00 00 00	 mov	 ecx, OFFSET ?gDirPath@@3VCDirPath@@A ; gDirPath
  0011f	e8 00 00 00 00	 call	 ?GetNewPath@CDirPath@@QAEPADPAD@Z ; CDirPath::GetNewPath
  00124	50		 push	 eax
  00125	8b ce		 mov	 ecx, esi
  00127	e8 00 00 00 00	 call	 ?ReadItemList@GameShop@@QAEXPAD@Z ; GameShop::ReadItemList

; 75   : 	this->ReadPackageList(gDirPath.GetNewPath("GameShop\\GameShopPackage.txt"));

  0012c	68 00 00 00 00	 push	 OFFSET ??_C@_0BN@IOIMDDDI@GameShop?2GameShopPackage?4txt?$AA@
  00131	b9 00 00 00 00	 mov	 ecx, OFFSET ?gDirPath@@3VCDirPath@@A ; gDirPath
  00136	e8 00 00 00 00	 call	 ?GetNewPath@CDirPath@@QAEPADPAD@Z ; CDirPath::GetNewPath
  0013b	50		 push	 eax
  0013c	8b ce		 mov	 ecx, esi
  0013e	e8 00 00 00 00	 call	 ?ReadPackageList@GameShop@@QAEXPAD@Z ; GameShop::ReadPackageList
  00143	5f		 pop	 edi
  00144	5e		 pop	 esi
  00145	5b		 pop	 ebx

; 76   : }

  00146	c3		 ret	 0
?Load@GameShop@@QAEXXZ ENDP				; GameShop::Load
_TEXT	ENDS
EXTRN	_atexit:PROC
; Function compile flags: /Ogtp
;	COMDAT ??__EgGameShop@@YAXXZ
text$yc	SEGMENT
??__EgGameShop@@YAXXZ PROC				; `dynamic initializer for 'gGameShop'', COMDAT

; 22   : GameShop	gGameShop;

  00000	b9 00 00 00 00	 mov	 ecx, OFFSET ?gGameShop@@3VGameShop@@A ; gGameShop
  00005	e8 00 00 00 00	 call	 ??0GameShop@@QAE@XZ	; GameShop::GameShop
  0000a	68 00 00 00 00	 push	 OFFSET ??__FgGameShop@@YAXXZ ; `dynamic atexit destructor for 'gGameShop''
  0000f	e8 00 00 00 00	 call	 _atexit
  00014	59		 pop	 ecx
  00015	c3		 ret	 0
??__EgGameShop@@YAXXZ ENDP				; `dynamic initializer for 'gGameShop''
; Function compile flags: /Ogtp
text$yc	ENDS
;	COMDAT ??__FgGameShop@@YAXXZ
text$yd	SEGMENT
??__FgGameShop@@YAXXZ PROC				; `dynamic atexit destructor for 'gGameShop'', COMDAT
  00000	b9 00 00 00 00	 mov	 ecx, OFFSET ?gGameShop@@3VGameShop@@A ; gGameShop
  00005	e9 00 00 00 00	 jmp	 ??1GameShop@@UAE@XZ	; GameShop::~GameShop
??__FgGameShop@@YAXXZ ENDP				; `dynamic atexit destructor for 'gGameShop''
text$yd	ENDS
PUBLIC	?gGameShop@@3VGameShop@@A			; gGameShop
_BSS	SEGMENT
?gGameShop@@3VGameShop@@A DB 0dcH DUP (?)		; gGameShop
_BSS	ENDS
CRT$XCU	SEGMENT
_gGameShop$initializer$ DD FLAT:??__EgGameShop@@YAXXZ
CRT$XCU	ENDS
END
