; Listing generated by Microsoft (R) Optimizing Compiler Version 16.00.30319.01 

	TITLE	E:\work\tranet_version\GS\GameServer\GameMain.cpp
	.686P
	.XMM
	include listing.inc
	.model	flat

INCLUDELIB LIBCMT
INCLUDELIB OLDNAMES

PUBLIC	?JoinServerConnected@@3HA			; JoinServerConnected
PUBLIC	?DataServerConnected@@3HA			; DataServerConnected
PUBLIC	?GameServerCreated@@3HA				; GameServerCreated
PUBLIC	?DevilSquareEventConnect@@3HA			; DevilSquareEventConnect
PUBLIC	?IsDevilSquareEventConnected@@3HA		; IsDevilSquareEventConnected
PUBLIC	?EventChipServerConnect@@3HA			; EventChipServerConnect
PUBLIC	?IsEventChipServerConnected@@3HA		; IsEventChipServerConnected
PUBLIC	?DragonEvent@@3PAVCDragonEvent@@A		; DragonEvent
PUBLIC	?AttackEvent@@3PAVCAttackEvent@@A		; AttackEvent
PUBLIC	?LuckboxItemBag@@3PAVCItemBag@@A		; LuckboxItemBag
PUBLIC	?Mon55@@3PAVCItemBag@@A				; Mon55
PUBLIC	?Mon53@@3PAVCItemBag@@A				; Mon53
PUBLIC	?StarOfXMasItemBag@@3PAVCItemBagZt@@A		; StarOfXMasItemBag
PUBLIC	?FireCrackerItemBag@@3PAVCItemBag@@A		; FireCrackerItemBag
PUBLIC	?HeartOfLoveItemBag@@3PAVCItemBag@@A		; HeartOfLoveItemBag
PUBLIC	?GoldMedalItemBag@@3PAVCItemBag@@A		; GoldMedalItemBag
PUBLIC	?SilverMedalItemBag@@3PAVCItemBag@@A		; SilverMedalItemBag
PUBLIC	?EventChipItemBag@@3PAVCItemBag@@A		; EventChipItemBag
PUBLIC	?GoldGoblenItemBag@@3PAVCProbabilityItemBag@@A	; GoldGoblenItemBag
PUBLIC	?TitanItemBag@@3PAVCProbabilityItemBag@@A	; TitanItemBag
PUBLIC	?GoldDerconItemBag@@3PAVCProbabilityItemBag@@A	; GoldDerconItemBag
PUBLIC	?DevilLizardKingItemBag@@3PAVCProbabilityItemBag@@A ; DevilLizardKingItemBag
PUBLIC	?KanturItemBag@@3PAVCProbabilityItemBag@@A	; KanturItemBag
PUBLIC	?RingEventItemBag@@3PAVCItemBag@@A		; RingEventItemBag
PUBLIC	?FriendShipItemBag@@3PAVCItemBag@@A		; FriendShipItemBag
PUBLIC	?DarkLordHeartItemBag@@3PAVCItemBag@@A		; DarkLordHeartItemBag
PUBLIC	?KundunEventItemBag@@3PAVCItemBagZt@@A		; KundunEventItemBag
PUBLIC	?HiddenTreasureBoxItemBag@@3PAVCItemBagZt@@A	; HiddenTreasureBoxItemBag
PUBLIC	?RedRibbonBoxEventItemBag@@3PAVCItemBagZt@@A	; RedRibbonBoxEventItemBag
PUBLIC	?GreenRibbonBoxEventItemBag@@3PAVCItemBagZt@@A	; GreenRibbonBoxEventItemBag
PUBLIC	?BlueRibbonBoxEventItemBag@@3PAVCItemBagZt@@A	; BlueRibbonBoxEventItemBag
PUBLIC	?PinkChocolateBoxEventItemBag@@3PAVCItemBagZt@@A ; PinkChocolateBoxEventItemBag
PUBLIC	?RedChocolateBoxEventItemBag@@3PAVCItemBagZt@@A	; RedChocolateBoxEventItemBag
PUBLIC	?BlueChocolateBoxEventItemBag@@3PAVCItemBagZt@@A ; BlueChocolateBoxEventItemBag
PUBLIC	?LightPurpleCandyBoxEventItemBag@@3PAVCItemBagZt@@A ; LightPurpleCandyBoxEventItemBag
PUBLIC	?VermilionCandyBoxEventItemBag@@3PAVCItemBagZt@@A ; VermilionCandyBoxEventItemBag
PUBLIC	?DeepBlueCandyBoxEventItemBag@@3PAVCItemBagZt@@A ; DeepBlueCandyBoxEventItemBag
PUBLIC	?CrywolfDarkElfItemBag@@3PAVCItemBagZt@@A	; CrywolfDarkElfItemBag
PUBLIC	?CrywolfBossMonsterItemBag@@3PAVCItemBagZt@@A	; CrywolfBossMonsterItemBag
PUBLIC	?KanturuMayaHandItemBag@@3PAVCItemBagZt@@A	; KanturuMayaHandItemBag
PUBLIC	?KanturuNightmareItemBag@@3PAVCItemBagZt@@A	; KanturuNightmareItemBag
PUBLIC	?SilverChestItemBag@@3PAVCItemBagZt@@A		; SilverChestItemBag
PUBLIC	?GoldenChestItemBag@@3PAVCItemBagZt@@A		; GoldenChestItemBag
PUBLIC	?HallowinDayEventItemBag@@3PAVCItemBagZt@@A	; HallowinDayEventItemBag
PUBLIC	?RingOfHeroBoxItemBag@@3PAVCItemBag@@A		; RingOfHeroBoxItemBag
PUBLIC	?NewYearLuckyPouchItemBag@@3PAVCProbabilityItemBag@@A ; NewYearLuckyPouchItemBag
PUBLIC	?GMPresentBoxItemBag@@3PAVCProbabilityItemBag@@A ; GMPresentBoxItemBag
PUBLIC	?IllusionTemple1ItemBag@@3PAVCProbabilityItemBag@@A ; IllusionTemple1ItemBag
PUBLIC	?IllusionTemple2ItemBag@@3PAVCProbabilityItemBag@@A ; IllusionTemple2ItemBag
PUBLIC	?IllusionTemple3ItemBag@@3PAVCProbabilityItemBag@@A ; IllusionTemple3ItemBag
PUBLIC	?MoonHarvestItemBag@@3PAVCProbabilityItemBag@@A	; MoonHarvestItemBag
PUBLIC	?MoonHarvestItemBag2@@3PAVCProbabilityItemBag@@A ; MoonHarvestItemBag2
PUBLIC	?CherryBlossom1@@3PAVCProbabilityItemBag@@A	; CherryBlossom1
PUBLIC	?CherryBlossom2@@3PAVCProbabilityItemBag@@A	; CherryBlossom2
PUBLIC	?CherryBlossom3@@3PAVCProbabilityItemBag@@A	; CherryBlossom3
PUBLIC	?CherryBlossom4@@3PAVCProbabilityItemBag@@A	; CherryBlossom4
PUBLIC	?PCBangGageGreenBox@@3PAVCProbabilityItemBag@@A	; PCBangGageGreenBox
PUBLIC	?PCBangGageRedBox@@3PAVCProbabilityItemBag@@A	; PCBangGageRedBox
PUBLIC	?PCBangGagePurpleBox@@3PAVCProbabilityItemBag@@A ; PCBangGagePurpleBox
PUBLIC	?ReservedBox@@3PAVCProbabilityItemBag@@A	; ReservedBox
PUBLIC	?RaklionSelupanItemBag@@3PAVCProbabilityItemBag@@A ; RaklionSelupanItemBag
PUBLIC	?XMasEventA@@3PAVCProbabilityItemBag@@A		; XMasEventA
PUBLIC	?XMasEventB@@3PAVCProbabilityItemBag@@A		; XMasEventB
PUBLIC	?XMasEventC@@3PAVCProbabilityItemBag@@A		; XMasEventC
PUBLIC	?LuckyCoin10@@3PAVCProbabilityItemBag@@A	; LuckyCoin10
PUBLIC	?LuckyCoin20@@3PAVCProbabilityItemBag@@A	; LuckyCoin20
PUBLIC	?LuckyCoin30@@3PAVCProbabilityItemBag@@A	; LuckyCoin30
PUBLIC	?GoldenBoxItemBag@@3PAVCProbabilityItemBag@@A	; GoldenBoxItemBag
PUBLIC	?SilverBoxItemBag@@3PAVCProbabilityItemBag@@A	; SilverBoxItemBag
PUBLIC	?ShineJewelleryCaseItemBag@@3PAVCProbabilityItemBag@@A ; ShineJewelleryCaseItemBag
PUBLIC	?RefinedJewelleryCaseItemBag@@3PAVCProbabilityItemBag@@A ; RefinedJewelleryCaseItemBag
PUBLIC	?IronJewelleryCaseItemBag@@3PAVCProbabilityItemBag@@A ; IronJewelleryCaseItemBag
PUBLIC	?OldJewelleryCaseItemBag@@3PAVCProbabilityItemBag@@A ; OldJewelleryCaseItemBag
PUBLIC	?NewMonsterItemBag@@3PAVCProbabilityItemBag@@A	; NewMonsterItemBag
PUBLIC	?BoxOfGreenColorItemBag@@3PAVCProbabilityItemBag@@A ; BoxOfGreenColorItemBag
PUBLIC	?BoxOfRedColorItemBag@@3PAVCProbabilityItemBag@@A ; BoxOfRedColorItemBag
PUBLIC	?BoxOfPurpleColorItemBag@@3PAVCProbabilityItemBag@@A ; BoxOfPurpleColorItemBag
PUBLIC	?SpeedHackPlayerBlock@@3HA			; SpeedHackPlayerBlock
PUBLIC	?bCanConnectMember@@3HA				; bCanConnectMember
PUBLIC	?bCanChangeCharacterName@@3HA			; bCanChangeCharacterName
PUBLIC	?gServerType@@3HA				; gServerType
PUBLIC	?gPartition@@3HA				; gPartition
PUBLIC	?gApplyHeroSystem@@3HA				; gApplyHeroSystem
PUBLIC	?gSpeedHackPenalty@@3HA				; gSpeedHackPenalty
PUBLIC	?gEnableEventNPCTalk@@3HA			; gEnableEventNPCTalk
PUBLIC	?gEnableServerDivision@@3HA			; gEnableServerDivision
PUBLIC	?gEvent1@@3HA					; gEvent1
PUBLIC	?gMonsterHp@@3HA				; gMonsterHp
PUBLIC	?gMerryXMasNpcEvent@@3HA			; gMerryXMasNpcEvent
PUBLIC	?gHappyNewYearNpcEvent@@3HA			; gHappyNewYearNpcEvent
PUBLIC	?gEvent1ItemDropTodayCount@@3HA			; gEvent1ItemDropTodayCount
PUBLIC	?gLanguage@@3HA					; gLanguage
PUBLIC	?gChaosEvent@@3HA				; gChaosEvent
PUBLIC	?gChaosEventServerIp@@3PADA			; gChaosEventServerIp
PUBLIC	?gDevilSquareEventServerIp@@3PADA		; gDevilSquareEventServerIp
PUBLIC	?gHackLogServerIp@@3PADA			; gHackLogServerIp
PUBLIC	?gEventChipServerIp@@3PADA			; gEventChipServerIp
PUBLIC	?gNonPK@@3HA					; gNonPK
PUBLIC	?gPkLimitFree@@3HA				; gPkLimitFree
PUBLIC	?gXMasEvent@@3HA				; gXMasEvent
PUBLIC	?gFireCrackerEvent@@3HA				; gFireCrackerEvent
PUBLIC	?gHeartOfLoveEvent@@3HA				; gHeartOfLoveEvent
PUBLIC	?gMedalEvent@@3HA				; gMedalEvent
PUBLIC	?gEventChipEvent@@3HA				; gEventChipEvent
PUBLIC	?gDevilSquareEvent@@3HA				; gDevilSquareEvent
PUBLIC	?gWriteSkillLog@@3HA				; gWriteSkillLog
PUBLIC	?g_bStoneItemDrop@@3HA				; g_bStoneItemDrop
PUBLIC	?g_bDoXMasAttackEvent@@3HA			; g_bDoXMasAttackEvent
PUBLIC	?g_bDoRingEvent@@3HA				; g_bDoRingEvent
PUBLIC	?g_bEventManagerOn@@3HA				; g_bEventManagerOn
PUBLIC	?g_iKundunMarkDropRate@@3HA			; g_iKundunMarkDropRate
PUBLIC	?g_iMarkOfTheLord@@3HA				; g_iMarkOfTheLord
PUBLIC	?g_iJapan1StAnivItemDropRate@@3HA		; g_iJapan1StAnivItemDropRate
PUBLIC	?g_iDarkLordHeartDropRate@@3HA			; g_iDarkLordHeartDropRate
PUBLIC	?g_iDarkLordHeartOffEventRate@@3HA		; g_iDarkLordHeartOffEventRate
PUBLIC	?g_iMysteriousBeadDropRate1@@3HA		; g_iMysteriousBeadDropRate1
PUBLIC	?g_iMysteriousBeadDropRate2@@3HA		; g_iMysteriousBeadDropRate2
PUBLIC	?g_iHiddenTreasureBoxOfflineRate@@3HA		; g_iHiddenTreasureBoxOfflineRate
PUBLIC	?bIsIgnorePacketSpeedHackDetect@@3HA		; bIsIgnorePacketSpeedHackDetect
PUBLIC	?gIsKickDetecHackCountLimit@@3HA		; gIsKickDetecHackCountLimit
PUBLIC	?gTamaJJangEvent@@3HA				; gTamaJJangEvent
PUBLIC	?gAppearTamaJJang@@3HA				; gAppearTamaJJang
PUBLIC	?gTamaJJangTime@@3HA				; gTamaJJangTime
PUBLIC	?gIsItemDropRingOfTransform@@3HA		; gIsItemDropRingOfTransform
PUBLIC	?gIsEledoradoEvent@@3HA				; gIsEledoradoEvent
PUBLIC	?gDoPShopOpen@@3HA				; gDoPShopOpen
PUBLIC	?gWriteChatLog@@3HA				; gWriteChatLog
PUBLIC	?gDisconnectHackUser@@3HA			; gDisconnectHackUser
PUBLIC	?g_iBlockKanturuMapEnter@@3HA			; g_iBlockKanturuMapEnter
PUBLIC	?g_iBlockCastleSiegeMapEnter@@3HA		; g_iBlockCastleSiegeMapEnter
PUBLIC	?g_iBlockRaklionMapEnter@@3HA			; g_iBlockRaklionMapEnter
PUBLIC	?GSInfoSendFlag@@3HA				; GSInfoSendFlag
PUBLIC	?GameServerPort@@3HA				; GameServerPort
PUBLIC	?JoinServerPort@@3HA				; JoinServerPort
PUBLIC	?DataServerPort@@3HA				; DataServerPort
PUBLIC	?DataServerPort2@@3HA				; DataServerPort2
PUBLIC	?ZtDbPort@@3HA					; ZtDbPort
PUBLIC	?RankingPort@@3HA				; RankingPort
PUBLIC	?EventPort@@3HA					; EventPort
PUBLIC	?gNewServer@@3HA				; gNewServer
PUBLIC	?gEventOff@@3HA					; gEventOff
PUBLIC	?gLevelExperience@@3PAKA			; gLevelExperience
PUBLIC	?szGameServerExeSerial@@3PADA			; szGameServerExeSerial
PUBLIC	?szServerName@@3PADA				; szServerName
PUBLIC	?szKorItemTextFileName@@3PADA			; szKorItemTextFileName
PUBLIC	?szKorSkillTextFileName@@3PADA			; szKorSkillTextFileName
PUBLIC	?szItemTextFileName@@3PADA			; szItemTextFileName
PUBLIC	?szSkillTextFileName@@3PADA			; szSkillTextFileName
PUBLIC	?szQuestTextFileName@@3PADA			; szQuestTextFileName
PUBLIC	?szMoveReqFileName@@3PADA			; szMoveReqFileName
PUBLIC	?szCommonlocIniFileName@@3PADA			; szCommonlocIniFileName
PUBLIC	?szAuthKey@@3PADA				; szAuthKey
PUBLIC	?gIsDropDarkLordItem@@3HA			; gIsDropDarkLordItem
PUBLIC	?gSleeveOfLordDropRate@@3HA			; gSleeveOfLordDropRate
PUBLIC	?gSleeveOfLordDropLevel@@3HA			; gSleeveOfLordDropLevel
PUBLIC	?gSoulOfDarkHorseDropRate@@3HA			; gSoulOfDarkHorseDropRate
PUBLIC	?gSoulOfDarkHorseropLevel@@3HA			; gSoulOfDarkHorseropLevel
PUBLIC	?gSoulOfDarkSpiritDropRate@@3HA			; gSoulOfDarkSpiritDropRate
PUBLIC	?gSoulOfDarkSpiritDropLevel@@3HA		; gSoulOfDarkSpiritDropLevel
PUBLIC	?gDarkSpiritAddExperience@@3MA			; gDarkSpiritAddExperience
PUBLIC	?gIsDropGemOfDefend@@3HA			; gIsDropGemOfDefend
PUBLIC	?gGemOfDefendDropRate@@3HA			; gGemOfDefendDropRate
PUBLIC	?gGemOfDefendDropLevel@@3HA			; gGemOfDefendDropLevel
PUBLIC	?g_iUseCharacterAutoRecuperationSystem@@3HA	; g_iUseCharacterAutoRecuperationSystem
PUBLIC	?g_iCharacterRecuperationMaxLevel@@3HA		; g_iCharacterRecuperationMaxLevel
PUBLIC	?g_iServerGroupGuildChatting@@3HA		; g_iServerGroupGuildChatting
PUBLIC	?g_iServerGroupUnionChatting@@3HA		; g_iServerGroupUnionChatting
PUBLIC	?g_bRibbonBoxEvent@@3HA				; g_bRibbonBoxEvent
PUBLIC	?g_iRedRibbonBoxDropLevelMin@@3HA		; g_iRedRibbonBoxDropLevelMin
PUBLIC	?g_iRedRibbonBoxDropLevelMax@@3HA		; g_iRedRibbonBoxDropLevelMax
PUBLIC	?g_iRedRibbonBoxDropRate@@3HA			; g_iRedRibbonBoxDropRate
PUBLIC	?g_iRedRibbonBoxDropZenRate@@3HA		; g_iRedRibbonBoxDropZenRate
PUBLIC	?g_iRedRibbonBoxDropZen@@3HA			; g_iRedRibbonBoxDropZen
PUBLIC	?g_iGreenRibbonBoxDropLevelMin@@3HA		; g_iGreenRibbonBoxDropLevelMin
PUBLIC	?g_iGreenRibbonBoxDropLevelMax@@3HA		; g_iGreenRibbonBoxDropLevelMax
PUBLIC	?g_iGreenRibbonBoxDropRate@@3HA			; g_iGreenRibbonBoxDropRate
PUBLIC	?g_iGreenRibbonBoxDropZenRate@@3HA		; g_iGreenRibbonBoxDropZenRate
PUBLIC	?g_iGreenRibbonBoxDropZen@@3HA			; g_iGreenRibbonBoxDropZen
PUBLIC	?g_iBlueRibbonBoxDropLevelMin@@3HA		; g_iBlueRibbonBoxDropLevelMin
PUBLIC	?g_iBlueRibbonBoxDropLevelMax@@3HA		; g_iBlueRibbonBoxDropLevelMax
PUBLIC	?g_iBlueRibbonBoxDropRate@@3HA			; g_iBlueRibbonBoxDropRate
PUBLIC	?g_iBlueRibbonBoxDropZenRate@@3HA		; g_iBlueRibbonBoxDropZenRate
PUBLIC	?g_iBlueRibbonBoxDropZen@@3HA			; g_iBlueRibbonBoxDropZen
PUBLIC	?g_bNewYearLuckyBagMonsterEventOn@@3HA		; g_bNewYearLuckyBagMonsterEventOn
PUBLIC	?g_bChocolateBoxEvent@@3HA			; g_bChocolateBoxEvent
PUBLIC	?g_iPinkChocolateBoxDropLevelMin@@3HA		; g_iPinkChocolateBoxDropLevelMin
PUBLIC	?g_iPinkChocolateBoxDropLevelMax@@3HA		; g_iPinkChocolateBoxDropLevelMax
PUBLIC	?g_iPinkChocolateBoxDropRate@@3HA		; g_iPinkChocolateBoxDropRate
PUBLIC	?g_iPinkChocolateBoxDropZenRate@@3HA		; g_iPinkChocolateBoxDropZenRate
PUBLIC	?g_iPinkChocolateBoxDropZen@@3HA		; g_iPinkChocolateBoxDropZen
PUBLIC	?g_iRedChocolateBoxDropLevelMin@@3HA		; g_iRedChocolateBoxDropLevelMin
PUBLIC	?g_iRedChocolateBoxDropLevelMax@@3HA		; g_iRedChocolateBoxDropLevelMax
PUBLIC	?g_iRedChocolateBoxDropRate@@3HA		; g_iRedChocolateBoxDropRate
PUBLIC	?g_iRedChocolateBoxDropZenRate@@3HA		; g_iRedChocolateBoxDropZenRate
PUBLIC	?g_iRedChocolateBoxDropZen@@3HA			; g_iRedChocolateBoxDropZen
PUBLIC	?g_iBlueChocolateBoxDropLevelMin@@3HA		; g_iBlueChocolateBoxDropLevelMin
PUBLIC	?g_iBlueChocolateBoxDropLevelMax@@3HA		; g_iBlueChocolateBoxDropLevelMax
PUBLIC	?g_iBlueChocolateBoxDropRate@@3HA		; g_iBlueChocolateBoxDropRate
PUBLIC	?g_iBlueChocolateBoxDropZenRate@@3HA		; g_iBlueChocolateBoxDropZenRate
PUBLIC	?g_iBlueChocolateBoxDropZen@@3HA		; g_iBlueChocolateBoxDropZen
PUBLIC	?g_bCandyBoxEvent@@3HA				; g_bCandyBoxEvent
PUBLIC	?g_iLightPurpleCandyBoxDropLevelMin@@3HA	; g_iLightPurpleCandyBoxDropLevelMin
PUBLIC	?g_iLightPurpleCandyBoxDropLevelMax@@3HA	; g_iLightPurpleCandyBoxDropLevelMax
PUBLIC	?g_iLightPurpleCandyBoxDropRate@@3HA		; g_iLightPurpleCandyBoxDropRate
PUBLIC	?g_iLightPurpleCandyBoxDropZenRate@@3HA		; g_iLightPurpleCandyBoxDropZenRate
PUBLIC	?g_iLightPurpleCandyBoxDropZen@@3HA		; g_iLightPurpleCandyBoxDropZen
PUBLIC	?g_iVermilionCandyBoxDropLevelMin@@3HA		; g_iVermilionCandyBoxDropLevelMin
PUBLIC	?g_iVermilionCandyBoxDropLevelMax@@3HA		; g_iVermilionCandyBoxDropLevelMax
PUBLIC	?g_iVermilionCandyBoxDropRate@@3HA		; g_iVermilionCandyBoxDropRate
PUBLIC	?g_iVermilionCandyBoxDropZenRate@@3HA		; g_iVermilionCandyBoxDropZenRate
PUBLIC	?g_iVermilionCandyBoxDropZen@@3HA		; g_iVermilionCandyBoxDropZen
PUBLIC	?g_iDeepBlueCandyBoxDropLevelMin@@3HA		; g_iDeepBlueCandyBoxDropLevelMin
PUBLIC	?g_iDeepBlueCandyBoxDropLevelMax@@3HA		; g_iDeepBlueCandyBoxDropLevelMax
PUBLIC	?g_iDeepBlueCandyBoxDropRate@@3HA		; g_iDeepBlueCandyBoxDropRate
PUBLIC	?g_iDeepBlueCandyBoxDropZenRate@@3HA		; g_iDeepBlueCandyBoxDropZenRate
PUBLIC	?g_iDeepBlueCandyBoxDropZen@@3HA		; g_iDeepBlueCandyBoxDropZen
PUBLIC	?g_bFenrirStuffItemDrop@@3HA			; g_bFenrirStuffItemDrop
PUBLIC	?g_iFenrirStuff_01_DropLv_Min@@3HA		; g_iFenrirStuff_01_DropLv_Min
PUBLIC	?g_iFenrirStuff_01_DropLv_Max@@3HA		; g_iFenrirStuff_01_DropLv_Max
PUBLIC	?g_iFenrirStuff_01_DropMap@@3HA			; g_iFenrirStuff_01_DropMap
PUBLIC	?g_iFenrirStuff_01_DropRate@@3HA		; g_iFenrirStuff_01_DropRate
PUBLIC	?g_iFenrirStuff_02_DropLv_Min@@3HA		; g_iFenrirStuff_02_DropLv_Min
PUBLIC	?g_iFenrirStuff_02_DropLv_Max@@3HA		; g_iFenrirStuff_02_DropLv_Max
PUBLIC	?g_iFenrirStuff_02_DropMap@@3HA			; g_iFenrirStuff_02_DropMap
PUBLIC	?g_iFenrirStuff_02_DropRate@@3HA		; g_iFenrirStuff_02_DropRate
PUBLIC	?g_iFenrirStuff_03_DropLv_Min@@3HA		; g_iFenrirStuff_03_DropLv_Min
PUBLIC	?g_iFenrirStuff_03_DropLv_Max@@3HA		; g_iFenrirStuff_03_DropLv_Max
PUBLIC	?g_iFenrirStuff_03_DropMap@@3HA			; g_iFenrirStuff_03_DropMap
PUBLIC	?g_iFenrirStuff_03_DropRate@@3HA		; g_iFenrirStuff_03_DropRate
PUBLIC	?g_iFenrirRepairRate@@3HA			; g_iFenrirRepairRate
PUBLIC	?g_iFenrirDefaultMaxDurSmall@@3HA		; g_iFenrirDefaultMaxDurSmall
PUBLIC	?g_iFenrirElfMaxDurSmall@@3HA			; g_iFenrirElfMaxDurSmall
PUBLIC	?g_iFenrir_01Level_MixRate@@3HA			; g_iFenrir_01Level_MixRate
PUBLIC	?g_iFenrir_02Level_MixRate@@3HA			; g_iFenrir_02Level_MixRate
PUBLIC	?g_iFenrir_03Level_MixRate@@3HA			; g_iFenrir_03Level_MixRate
PUBLIC	?g_bCrywolfMonsterDarkElfItemDrop@@3HA		; g_bCrywolfMonsterDarkElfItemDrop
PUBLIC	?g_iCrywolfMonsterDarkElfItemDropRate@@3HA	; g_iCrywolfMonsterDarkElfItemDropRate
PUBLIC	?g_iCrywolfMonsterDarkElfDropZenRate@@3HA	; g_iCrywolfMonsterDarkElfDropZenRate
PUBLIC	?g_iCrywolfMonsterDarkElfDropZen@@3HA		; g_iCrywolfMonsterDarkElfDropZen
PUBLIC	?g_bCrywolfBossMonsterItemDrop@@3HA		; g_bCrywolfBossMonsterItemDrop
PUBLIC	?g_iCrywolfBossMonsterItemDropRate@@3HA		; g_iCrywolfBossMonsterItemDropRate
PUBLIC	?g_iCrywolfBossMonsterDropZenRate@@3HA		; g_iCrywolfBossMonsterDropZenRate
PUBLIC	?g_iCrywolfBossMonsterDropZen@@3HA		; g_iCrywolfBossMonsterDropZen
PUBLIC	?g_iCrywolfApplyMvpBenefit@@3HA			; g_iCrywolfApplyMvpBenefit
PUBLIC	?g_iCrywolfApplyMvpPenalty@@3HA			; g_iCrywolfApplyMvpPenalty
PUBLIC	?g_iSkillDistanceCheck@@3HA			; g_iSkillDistanceCheck
PUBLIC	?g_iSkillDistanceCheckTemp@@3HA			; g_iSkillDistanceCheckTemp
PUBLIC	?g_iSkillDistanceKick@@3HA			; g_iSkillDistanceKick
PUBLIC	?g_iSkillDistanceKickCount@@3HA			; g_iSkillDistanceKickCount
PUBLIC	?g_iSkillDiatanceKickCheckTime@@3HA		; g_iSkillDiatanceKickCheckTime
PUBLIC	?g_bKanturuMayaHandItemDrop@@3HA		; g_bKanturuMayaHandItemDrop
PUBLIC	?g_iKanturuMayaHandItemDropRate@@3HA		; g_iKanturuMayaHandItemDropRate
PUBLIC	?g_iKanturuMayaHandDropZenRate@@3HA		; g_iKanturuMayaHandDropZenRate
PUBLIC	?g_iKanturuMayaHandDropZen@@3HA			; g_iKanturuMayaHandDropZen
PUBLIC	?g_bKanturuNightmareItemDrop@@3HA		; g_bKanturuNightmareItemDrop
PUBLIC	?g_iKanturuNightmareItemDropRate@@3HA		; g_iKanturuNightmareItemDropRate
PUBLIC	?g_iKanturuNightmareDropZenRate@@3HA		; g_iKanturuNightmareDropZenRate
PUBLIC	?g_iKanturuNightmareDropZen@@3HA		; g_iKanturuNightmareDropZen
PUBLIC	?g_bKanturuSpecialItemDropOn@@3HA		; g_bKanturuSpecialItemDropOn
PUBLIC	?g_iKanturuMoonStoneDropRate@@3HA		; g_iKanturuMoonStoneDropRate
PUBLIC	?g_iKanturuJewelOfHarmonyDropRate@@3HA		; g_iKanturuJewelOfHarmonyDropRate
PUBLIC	?g_bRaklionSelupanItemDrop@@3HA			; g_bRaklionSelupanItemDrop
PUBLIC	?g_iRaklionSelupanItemDropRate@@3HA		; g_iRaklionSelupanItemDropRate
PUBLIC	?g_iRaklionSelupanDropZenRate@@3HA		; g_iRaklionSelupanDropZenRate
PUBLIC	?g_bRaklionSelupanDropZen@@3HA			; g_bRaklionSelupanDropZen
PUBLIC	?g_bLuckyCoinEventOn@@3HA			; g_bLuckyCoinEventOn
PUBLIC	?g_iLuckyCoinDropRate@@3HA			; g_iLuckyCoinDropRate
PUBLIC	?g_bHallowinDayEventOn@@3HA			; g_bHallowinDayEventOn
PUBLIC	?g_iHallowinDayEventItemDropRate@@3HA		; g_iHallowinDayEventItemDropRate
PUBLIC	?g_iHallowinDayEventJOLBlessDropRate@@3HA	; g_iHallowinDayEventJOLBlessDropRate
PUBLIC	?g_iHallowinDayEventJOLAngerDropRaTe@@3HA	; g_iHallowinDayEventJOLAngerDropRaTe
PUBLIC	?g_iHallowinDayEventJOLScreamDropRate@@3HA	; g_iHallowinDayEventJOLScreamDropRate
PUBLIC	?g_iHallowinDayEventJOLFoodDropRate@@3HA	; g_iHallowinDayEventJOLFoodDropRate
PUBLIC	?g_iHallowinDayEventJOLDrinkDropRate@@3HA	; g_iHallowinDayEventJOLDrinkDropRate
PUBLIC	?g_iHallowinDayEventJOLPolymorphRingDropRate@@3HA ; g_iHallowinDayEventJOLPolymorphRingDropRate
PUBLIC	?g_iSantaPolymorphRingDropOn@@3HA		; g_iSantaPolymorphRingDropOn
PUBLIC	?g_iSantaPolymorphRingDropRate@@3HA		; g_iSantaPolymorphRingDropRate
PUBLIC	?g_iCondorFlameDropRate@@3HA			; g_iCondorFlameDropRate
PUBLIC	?g_bCherryBlossomEventOn@@3HA			; g_bCherryBlossomEventOn
PUBLIC	?g_iCherryBlossomEventItemDropRate@@3HA		; g_iCherryBlossomEventItemDropRate
PUBLIC	?g_bAbilityDebug@@3HA				; g_bAbilityDebug
PUBLIC	?dwgCheckSum@@3PAKA				; dwgCheckSum
PUBLIC	?connectserverip@@3PADA				; connectserverip
PUBLIC	?connectserverport@@3HA				; connectserverport
PUBLIC	?gGameServerCode@@3FA				; gGameServerCode
PUBLIC	?gPkTime@@3HA					; gPkTime
PUBLIC	?g_bCastleGuildDestoyLimit@@3HA			; g_bCastleGuildDestoyLimit
PUBLIC	?gItemNumberCount@@3KA				; gItemNumberCount
PUBLIC	?gAttackEventRegenTime@@3KA			; gAttackEventRegenTime
PUBLIC	?gYear@@3HA					; gYear
PUBLIC	?gOnlyFireCrackerEffectUse@@3HA			; gOnlyFireCrackerEffectUse
PUBLIC	?g_iRingOrcKillGiftRate@@3HA			; g_iRingOrcKillGiftRate
PUBLIC	?g_iRingDropGiftRate@@3HA			; g_iRingDropGiftRate
PUBLIC	?g_iXMasAttackEventDropRate@@3HA		; g_iXMasAttackEventDropRate
PUBLIC	?g_iXMasAttackEventDropZen@@3HA			; g_iXMasAttackEventDropZen
PUBLIC	?gEledoradoGoldGoblenItemDropRate@@3HA		; gEledoradoGoldGoblenItemDropRate
PUBLIC	?gEledoradoTitanItemDropRate@@3HA		; gEledoradoTitanItemDropRate
PUBLIC	?gEledoradoGoldDerconItemDropRate@@3HA		; gEledoradoGoldDerconItemDropRate
PUBLIC	?gEledoradoDevilLizardKingItemDropRate@@3HA	; gEledoradoDevilLizardKingItemDropRate
PUBLIC	?gEledoradoDevilTantarosItemDropRate@@3HA	; gEledoradoDevilTantarosItemDropRate
PUBLIC	?gEledoradoGoldGoblenExItemDropRate@@3HA	; gEledoradoGoldGoblenExItemDropRate
PUBLIC	?gEledoradoTitanExItemDropRate@@3HA		; gEledoradoTitanExItemDropRate
PUBLIC	?gEledoradoGoldDerconExItemDropRate@@3HA	; gEledoradoGoldDerconExItemDropRate
PUBLIC	?gEledoradoDevilLizardKingExItemDropRate@@3HA	; gEledoradoDevilLizardKingExItemDropRate
PUBLIC	?gEledoradoDevilTantarosExItemDropRate@@3HA	; gEledoradoDevilTantarosExItemDropRate
PUBLIC	?giKundunRefillHPSec@@3HA			; giKundunRefillHPSec
PUBLIC	?giKundunRefillHP@@3HA				; giKundunRefillHP
PUBLIC	?giKundunRefillHPTime@@3HA			; giKundunRefillHPTime
PUBLIC	?giKundunHPLogSaveTime@@3HA			; giKundunHPLogSaveTime
PUBLIC	?gUseNPGGChecksum@@3HA				; gUseNPGGChecksum
PUBLIC	?g_ShieldSystemOn@@3HA				; g_ShieldSystemOn
PUBLIC	?g_iDamageDevideToSDRate@@3HA			; g_iDamageDevideToSDRate
PUBLIC	?g_iDamageDevideToHPRate@@3HA			; g_iDamageDevideToHPRate
PUBLIC	?g_fSuccessAttackRateOption@@3MA		; g_fSuccessAttackRateOption
PUBLIC	?g_iSDChargingOption@@3HA			; g_iSDChargingOption
PUBLIC	?g_iConstNumberOfShieldPoint@@3HA		; g_iConstNumberOfShieldPoint
PUBLIC	?g_ShieldAutoRefillOn@@3HA			; g_ShieldAutoRefillOn
PUBLIC	?g_ShieldAutoRefillOnSafeZone@@3HA		; g_ShieldAutoRefillOnSafeZone
PUBLIC	?g_PKLevelIncreaseOff@@3HA			; g_PKLevelIncreaseOff
PUBLIC	?g_CompoundPotionDropOn@@3HA			; g_CompoundPotionDropOn
PUBLIC	?g_iCompoundPotionLv1DropRate@@3HA		; g_iCompoundPotionLv1DropRate
PUBLIC	?g_iCompoundPotionLv2DropRate@@3HA		; g_iCompoundPotionLv2DropRate
PUBLIC	?g_iCompoundPotionLv3DropRate@@3HA		; g_iCompoundPotionLv3DropRate
PUBLIC	?g_iCompoundPotionLv1DropLevel@@3HA		; g_iCompoundPotionLv1DropLevel
PUBLIC	?g_iCompoundPotionLv2DropLevel@@3HA		; g_iCompoundPotionLv2DropLevel
PUBLIC	?g_iCompoundPotionLv3DropLevel@@3HA		; g_iCompoundPotionLv3DropLevel
PUBLIC	?g_bShieldComboMissOptionOn@@3HA		; g_bShieldComboMissOptionOn
PUBLIC	?g_iShieldPotionLv1MixSuccessRate@@3HA		; g_iShieldPotionLv1MixSuccessRate
PUBLIC	?g_iShieldPotionLv1MixMoney@@3HA		; g_iShieldPotionLv1MixMoney
PUBLIC	?g_iShieldPotionLv2MixSuccessRate@@3HA		; g_iShieldPotionLv2MixSuccessRate
PUBLIC	?g_iShieldPotionLv2MixMoney@@3HA		; g_iShieldPotionLv2MixMoney
PUBLIC	?g_iShieldPotionLv3MixSuccessRate@@3HA		; g_iShieldPotionLv3MixSuccessRate
PUBLIC	?g_iShieldPotionLv3MixMoney@@3HA		; g_iShieldPotionLv3MixMoney
PUBLIC	?g_iShieldGageConstA@@3HA			; g_iShieldGageConstA
PUBLIC	?g_iShieldGageConstB@@3HA			; g_iShieldGageConstB
PUBLIC	?gMapName@@3PAY0PP@DA				; gMapName
PUBLIC	?g_bDoCastleDeepEvent@@3HA			; g_bDoCastleDeepEvent
PUBLIC	?gIsDropSetItemInCastleHuntZone@@3HA		; gIsDropSetItemInCastleHuntZone
PUBLIC	?gSetItemInCastleHuntZoneDropRate@@3HA		; gSetItemInCastleHuntZoneDropRate
PUBLIC	?gSetItemInCastleHuntZoneDropLevel@@3HA		; gSetItemInCastleHuntZoneDropLevel
PUBLIC	?CastleItemMixItemBag@@3PAVCItemBagZt@@A	; CastleItemMixItemBag
PUBLIC	?CastleHuntZoneBossItemBag@@3PAVCItemBagZt@@A	; CastleHuntZoneBossItemBag
PUBLIC	?ZtParty3ExpPercent@@3HA			; ZtParty3ExpPercent
PUBLIC	?ZtParty4ExpPercent@@3HA			; ZtParty4ExpPercent
PUBLIC	?ZtParty5ExpPercent@@3HA			; ZtParty5ExpPercent
PUBLIC	?ZtPartyExpPercentOther@@3HA			; ZtPartyExpPercentOther
PUBLIC	?ZtParty2ExpSetPercent@@3HA			; ZtParty2ExpSetPercent
PUBLIC	?ZtParty3ExpSetPercent@@3HA			; ZtParty3ExpSetPercent
PUBLIC	?ZtParty4ExpSetPercent@@3HA			; ZtParty4ExpSetPercent
PUBLIC	?ZtParty5ExpSetPercent@@3HA			; ZtParty5ExpSetPercent
PUBLIC	?ZtParty1ExpSetPercent@@3HA			; ZtParty1ExpSetPercent
PUBLIC	?g_MaxPartyMember@@3HA				; g_MaxPartyMember
PUBLIC	?ZtParty6ExpPercent@@3HA			; ZtParty6ExpPercent
PUBLIC	?ZtParty7ExpPercent@@3HA			; ZtParty7ExpPercent
PUBLIC	?ZtParty8ExpPercent@@3HA			; ZtParty8ExpPercent
PUBLIC	?ZtParty9ExpPercent@@3HA			; ZtParty9ExpPercent
PUBLIC	?ZtParty10ExpPercent@@3HA			; ZtParty10ExpPercent
PUBLIC	?ZtParty6ExpSetPercent@@3HA			; ZtParty6ExpSetPercent
PUBLIC	?ZtParty7ExpSetPercent@@3HA			; ZtParty7ExpSetPercent
PUBLIC	?ZtParty8ExpSetPercent@@3HA			; ZtParty8ExpSetPercent
PUBLIC	?ZtParty9ExpSetPercent@@3HA			; ZtParty9ExpSetPercent
PUBLIC	?ZtParty10ExpSetPercent@@3HA			; ZtParty10ExpSetPercent
PUBLIC	?ExDropZenParty@@3HA				; ExDropZenParty
PUBLIC	?AllianceMinPlayers@@3HA			; AllianceMinPlayers
PUBLIC	?ZtExcellentAncient@@3HA			; ZtExcellentAncient
PUBLIC	?ZtExcellentSocket@@3HA				; ZtExcellentSocket
PUBLIC	?ZtAncientSocket@@3HA				; ZtAncientSocket
PUBLIC	?ZtAddJoHtoAnc@@3HA				; ZtAddJoHtoAnc
PUBLIC	?Zt_ItemsDurationTime@@3HA			; Zt_ItemsDurationTime
PUBLIC	?Zt_LifeRate@@3HA				; Zt_LifeRate
PUBLIC	?Zt_SoulRate@@3HA				; Zt_SoulRate
PUBLIC	?Zt_SoulRateLuck@@3HA				; Zt_SoulRateLuck
PUBLIC	?gWelcomeMessage@@3PADA				; gWelcomeMessage
PUBLIC	?MSSQL2008@@3_NA				; MSSQL2008
PUBLIC	?gGENS@@3HA					; gGENS
PUBLIC	?g_iML_OldScrollDropRate@@3HA			; g_iML_OldScrollDropRate
PUBLIC	?g_iML_CovenantOfIllusionDropRate@@3HA		; g_iML_CovenantOfIllusionDropRate
PUBLIC	?g_iML_AngelKingsPaperDropRate@@3HA		; g_iML_AngelKingsPaperDropRate
PUBLIC	?g_iML_BloodBoneDropRate@@3HA			; g_iML_BloodBoneDropRate
PUBLIC	?g_iML_EyesOfDevilSquareDropRate@@3HA		; g_iML_EyesOfDevilSquareDropRate
PUBLIC	?g_iML_KeysOfDevilSquareDropRate@@3HA		; g_iML_KeysOfDevilSquareDropRate
PUBLIC	?g_iShadowPhantomMaxLevel@@3HA			; g_iShadowPhantomMaxLevel
PUBLIC	?g_iXMasVisitCount@@3HA				; g_iXMasVisitCount
PUBLIC	?g_iXMasEvent_LuckNumber1st@@3HA		; g_iXMasEvent_LuckNumber1st
PUBLIC	?g_iXMasEvent_LuckNumber2nd@@3HA		; g_iXMasEvent_LuckNumber2nd
PUBLIC	?gEledoradoGoldenRabbitRegenTime@@3HA		; gEledoradoGoldenRabbitRegenTime
PUBLIC	?gEledoradoGoldenDarkKnightRegenTime@@3HA	; gEledoradoGoldenDarkKnightRegenTime
PUBLIC	?gEledoradoGoldenDevilRegenTime@@3HA		; gEledoradoGoldenDevilRegenTime
PUBLIC	?gEledoradoGoldenMonsterRegenTime@@3HA		; gEledoradoGoldenMonsterRegenTime
PUBLIC	?gEledoradoGoldenCrustRegenTime@@3HA		; gEledoradoGoldenCrustRegenTime
PUBLIC	?gEledoradoGoldenSatirosRegenTime@@3HA		; gEledoradoGoldenSatirosRegenTime
PUBLIC	?gEledoradoGoldenTwintailRegenTime@@3HA		; gEledoradoGoldenTwintailRegenTime
PUBLIC	?gEledoradoGoldenIronKnightRegenTime@@3HA	; gEledoradoGoldenIronKnightRegenTime
PUBLIC	?gEledoradoGoldenNeipinRegenTime@@3HA		; gEledoradoGoldenNeipinRegenTime
PUBLIC	?gEledoradoGoldenGreatDragonRegenTime@@3HA	; gEledoradoGoldenGreatDragonRegenTime
PUBLIC	?g_bCheckSpeedHack@@3HA				; g_bCheckSpeedHack
PUBLIC	?g_szMapName@@3PAY0CA@DA			; g_szMapName
PUBLIC	?szGameServerVersion@@3PADA			; szGameServerVersion
PUBLIC	?szClientVersion@@3PADA				; szClientVersion
PUBLIC	?bCanTrade@@3HA					; bCanTrade
PUBLIC	?bCanChaosBox@@3HA				; bCanChaosBox
PUBLIC	?bCanWarehouseLock@@3HA				; bCanWarehouseLock
PUBLIC	?MapMinUserLevel@@3PAHA				; MapMinUserLevel
PUBLIC	?gEnableBattleSoccer@@3HA			; gEnableBattleSoccer
PUBLIC	?gLootingTime@@3HA				; gLootingTime
PUBLIC	?gPkItemDrop@@3HA				; gPkItemDrop
PUBLIC	?gItemDropPer@@3HA				; gItemDropPer
PUBLIC	?gEvent1ItemDropTodayMax@@3HA			; gEvent1ItemDropTodayMax
PUBLIC	?gEvent1ItemDropTodayPercent@@3HA		; gEvent1ItemDropTodayPercent
PUBLIC	?gCountryName@@3PADA				; gCountryName
PUBLIC	?gCharacterDeleteMinLevel@@3HA			; gCharacterDeleteMinLevel
PUBLIC	?gCreateCharacter@@3HA				; gCreateCharacter
PUBLIC	?gGuildCreate@@3HA				; gGuildCreate
PUBLIC	?gGuildDestroy@@3HA				; gGuildDestroy
PUBLIC	?gGuildCreateLevel@@3HA				; gGuildCreateLevel
PUBLIC	?gItemSerialCheck@@3HA				; gItemSerialCheck
PUBLIC	?gAddExperience@@3MA				; gAddExperience
PUBLIC	?gAddZen@@3MA					; gAddZen
PUBLIC	?g_XMasEvent_StarOfXMasDropRate@@3HA		; g_XMasEvent_StarOfXMasDropRate
PUBLIC	?g_XMasEvent_ItemDropRateForStarOfXMas@@3HA	; g_XMasEvent_ItemDropRateForStarOfXMas
PUBLIC	?gFireCrackerDropRate@@3HA			; gFireCrackerDropRate
PUBLIC	?g_ItemDropRateForgFireCracker@@3HA		; g_ItemDropRateForgFireCracker
PUBLIC	?gHeartOfLoveDropRate@@3HA			; gHeartOfLoveDropRate
PUBLIC	?g_ItemDropRateForgHeartOfLove@@3HA		; g_ItemDropRateForgHeartOfLove
PUBLIC	?gGoldMedalDropRate@@3HA			; gGoldMedalDropRate
PUBLIC	?gSilverMedalDropRate@@3HA			; gSilverMedalDropRate
PUBLIC	?g_ItemDropRateForGoldMedal@@3HA		; g_ItemDropRateForGoldMedal
PUBLIC	?g_ItemDropRateForSilverMedal@@3HA		; g_ItemDropRateForSilverMedal
PUBLIC	?gBoxOfGoldDropRate@@3HA			; gBoxOfGoldDropRate
PUBLIC	?g_ItemDropRateForBoxOfGold@@3HA		; g_ItemDropRateForBoxOfGold
PUBLIC	?g_EventChipDropRateForBoxOfGold@@3HA		; g_EventChipDropRateForBoxOfGold
PUBLIC	?gEyesOfDevilSquareDropRate@@3HA		; gEyesOfDevilSquareDropRate
PUBLIC	?gKeyOfDevilSquareDropRate@@3HA			; gKeyOfDevilSquareDropRate
PUBLIC	?gDQChaosSuccessRateLevel1@@3HA			; gDQChaosSuccessRateLevel1
PUBLIC	?gDQChaosSuccessRateLevel2@@3HA			; gDQChaosSuccessRateLevel2
PUBLIC	?gDQChaosSuccessRateLevel3@@3HA			; gDQChaosSuccessRateLevel3
PUBLIC	?gDQChaosSuccessRateLevel4@@3HA			; gDQChaosSuccessRateLevel4
PUBLIC	?gDQChaosSuccessRateLevel5@@3HA			; gDQChaosSuccessRateLevel5
PUBLIC	?gDQChaosSuccessRateLevel6@@3HA			; gDQChaosSuccessRateLevel6
PUBLIC	?gDQChaosSuccessRateLevel7@@3HA			; gDQChaosSuccessRateLevel7
PUBLIC	?g_bBloodCastle@@3HA				; g_bBloodCastle
PUBLIC	?g_iBloodCastle_StartHour@@3HA			; g_iBloodCastle_StartHour
PUBLIC	?g_iStoneDropRate@@3HA				; g_iStoneDropRate
PUBLIC	?g_iBloodCastle_OddEvenHour@@3HA		; g_iBloodCastle_OddEvenHour
PUBLIC	?g_iAngelKingsPaperDropRate@@3HA		; g_iAngelKingsPaperDropRate
PUBLIC	?g_iBloodBoneDropRate@@3HA			; g_iBloodBoneDropRate
PUBLIC	?g_bChaosCastle@@3HA				; g_bChaosCastle
PUBLIC	?gAttackSpeedTimeLimit@@3KA			; gAttackSpeedTimeLimit
PUBLIC	?gHackCheckCount@@3KA				; gHackCheckCount
PUBLIC	?gDecTimePerAttackSpeed@@3MA			; gDecTimePerAttackSpeed
PUBLIC	?gMinimumAttackSpeedTime@@3HA			; gMinimumAttackSpeedTime
PUBLIC	?gDetectedHackKickCount@@3HA			; gDetectedHackKickCount
PUBLIC	?gTamaJJangKeepTime@@3HA			; gTamaJJangKeepTime
PUBLIC	?gTamaJJangDisappearTime@@3HA			; gTamaJJangDisappearTime
PUBLIC	?gTamaJJangDisappearTimeRandomRange@@3HA	; gTamaJJangDisappearTimeRandomRange
PUBLIC	?gItemDropRingOfTransform@@3HA			; gItemDropRingOfTransform
PUBLIC	?gQuestNPCTeleportTime@@3HA			; gQuestNPCTeleportTime
PUBLIC	?gEledoradoGoldGoblenRegenTime@@3KA		; gEledoradoGoldGoblenRegenTime
PUBLIC	?gEledoradoTitanRegenTime@@3KA			; gEledoradoTitanRegenTime
PUBLIC	?gEledoradoGoldDerconRegenTime@@3KA		; gEledoradoGoldDerconRegenTime
PUBLIC	?gEledoradoDevilLizardKingRegenTime@@3KA	; gEledoradoDevilLizardKingRegenTime
PUBLIC	?gEledoradoDevilTantarosRegenTime@@3KA		; gEledoradoDevilTantarosRegenTime
PUBLIC	?gZenDurationTime@@3HA				; gZenDurationTime
PUBLIC	?gMonsterHPAdjust@@3HA				; gMonsterHPAdjust
PUBLIC	?gEnableCheckPenetrationSkill@@3HA		; gEnableCheckPenetrationSkill
PUBLIC	?g_iCastleItemMixLimit@@3HA			; g_iCastleItemMixLimit
PUBLIC	?gSilverMedalDropLevelMonsterMin@@3HA		; gSilverMedalDropLevelMonsterMin
PUBLIC	?gSilverMedalDropLevelMonsterMax@@3HA		; gSilverMedalDropLevelMonsterMax
PUBLIC	?gGoldMedalDropLevelMonsterMin@@3HA		; gGoldMedalDropLevelMonsterMin
PUBLIC	?gGoldMedalDropLevelMonsterMax@@3HA		; gGoldMedalDropLevelMonsterMax
PUBLIC	?gSelectServerSecondCount@@3HA			; gSelectServerSecondCount
PUBLIC	?gSwitchCharacterSecondCount@@3HA		; gSwitchCharacterSecondCount
_BSS	SEGMENT
?JoinServerConnected@@3HA DD 01H DUP (?)		; JoinServerConnected
?DataServerConnected@@3HA DD 01H DUP (?)		; DataServerConnected
?GameServerCreated@@3HA DD 01H DUP (?)			; GameServerCreated
?DevilSquareEventConnect@@3HA DD 01H DUP (?)		; DevilSquareEventConnect
?IsDevilSquareEventConnected@@3HA DD 01H DUP (?)	; IsDevilSquareEventConnected
?EventChipServerConnect@@3HA DD 01H DUP (?)		; EventChipServerConnect
?IsEventChipServerConnected@@3HA DD 01H DUP (?)		; IsEventChipServerConnected
?DragonEvent@@3PAVCDragonEvent@@A DD 01H DUP (?)	; DragonEvent
?AttackEvent@@3PAVCAttackEvent@@A DD 01H DUP (?)	; AttackEvent
?LuckboxItemBag@@3PAVCItemBag@@A DD 01H DUP (?)		; LuckboxItemBag
?Mon55@@3PAVCItemBag@@A DD 01H DUP (?)			; Mon55
?Mon53@@3PAVCItemBag@@A DD 01H DUP (?)			; Mon53
?StarOfXMasItemBag@@3PAVCItemBagZt@@A DD 01H DUP (?)	; StarOfXMasItemBag
?FireCrackerItemBag@@3PAVCItemBag@@A DD 01H DUP (?)	; FireCrackerItemBag
?HeartOfLoveItemBag@@3PAVCItemBag@@A DD 01H DUP (?)	; HeartOfLoveItemBag
?GoldMedalItemBag@@3PAVCItemBag@@A DD 01H DUP (?)	; GoldMedalItemBag
?SilverMedalItemBag@@3PAVCItemBag@@A DD 01H DUP (?)	; SilverMedalItemBag
?EventChipItemBag@@3PAVCItemBag@@A DD 01H DUP (?)	; EventChipItemBag
?GoldGoblenItemBag@@3PAVCProbabilityItemBag@@A DD 01H DUP (?) ; GoldGoblenItemBag
?TitanItemBag@@3PAVCProbabilityItemBag@@A DD 01H DUP (?) ; TitanItemBag
?GoldDerconItemBag@@3PAVCProbabilityItemBag@@A DD 01H DUP (?) ; GoldDerconItemBag
?DevilLizardKingItemBag@@3PAVCProbabilityItemBag@@A DD 01H DUP (?) ; DevilLizardKingItemBag
?KanturItemBag@@3PAVCProbabilityItemBag@@A DD 01H DUP (?) ; KanturItemBag
?RingEventItemBag@@3PAVCItemBag@@A DD 01H DUP (?)	; RingEventItemBag
?FriendShipItemBag@@3PAVCItemBag@@A DD 01H DUP (?)	; FriendShipItemBag
?DarkLordHeartItemBag@@3PAVCItemBag@@A DD 01H DUP (?)	; DarkLordHeartItemBag
?KundunEventItemBag@@3PAVCItemBagZt@@A DD 01H DUP (?)	; KundunEventItemBag
?HiddenTreasureBoxItemBag@@3PAVCItemBagZt@@A DD 01H DUP (?) ; HiddenTreasureBoxItemBag
?RedRibbonBoxEventItemBag@@3PAVCItemBagZt@@A DD 01H DUP (?) ; RedRibbonBoxEventItemBag
?GreenRibbonBoxEventItemBag@@3PAVCItemBagZt@@A DD 01H DUP (?) ; GreenRibbonBoxEventItemBag
?BlueRibbonBoxEventItemBag@@3PAVCItemBagZt@@A DD 01H DUP (?) ; BlueRibbonBoxEventItemBag
?PinkChocolateBoxEventItemBag@@3PAVCItemBagZt@@A DD 01H DUP (?) ; PinkChocolateBoxEventItemBag
?RedChocolateBoxEventItemBag@@3PAVCItemBagZt@@A DD 01H DUP (?) ; RedChocolateBoxEventItemBag
?BlueChocolateBoxEventItemBag@@3PAVCItemBagZt@@A DD 01H DUP (?) ; BlueChocolateBoxEventItemBag
?LightPurpleCandyBoxEventItemBag@@3PAVCItemBagZt@@A DD 01H DUP (?) ; LightPurpleCandyBoxEventItemBag
?VermilionCandyBoxEventItemBag@@3PAVCItemBagZt@@A DD 01H DUP (?) ; VermilionCandyBoxEventItemBag
?DeepBlueCandyBoxEventItemBag@@3PAVCItemBagZt@@A DD 01H DUP (?) ; DeepBlueCandyBoxEventItemBag
?CrywolfDarkElfItemBag@@3PAVCItemBagZt@@A DD 01H DUP (?) ; CrywolfDarkElfItemBag
?CrywolfBossMonsterItemBag@@3PAVCItemBagZt@@A DD 01H DUP (?) ; CrywolfBossMonsterItemBag
?KanturuMayaHandItemBag@@3PAVCItemBagZt@@A DD 01H DUP (?) ; KanturuMayaHandItemBag
?KanturuNightmareItemBag@@3PAVCItemBagZt@@A DD 01H DUP (?) ; KanturuNightmareItemBag
?SilverChestItemBag@@3PAVCItemBagZt@@A DD 01H DUP (?)	; SilverChestItemBag
?GoldenChestItemBag@@3PAVCItemBagZt@@A DD 01H DUP (?)	; GoldenChestItemBag
?HallowinDayEventItemBag@@3PAVCItemBagZt@@A DD 01H DUP (?) ; HallowinDayEventItemBag
?RingOfHeroBoxItemBag@@3PAVCItemBag@@A DD 01H DUP (?)	; RingOfHeroBoxItemBag
?NewYearLuckyPouchItemBag@@3PAVCProbabilityItemBag@@A DD 01H DUP (?) ; NewYearLuckyPouchItemBag
?GMPresentBoxItemBag@@3PAVCProbabilityItemBag@@A DD 01H DUP (?) ; GMPresentBoxItemBag
?IllusionTemple1ItemBag@@3PAVCProbabilityItemBag@@A DD 01H DUP (?) ; IllusionTemple1ItemBag
?IllusionTemple2ItemBag@@3PAVCProbabilityItemBag@@A DD 01H DUP (?) ; IllusionTemple2ItemBag
?IllusionTemple3ItemBag@@3PAVCProbabilityItemBag@@A DD 01H DUP (?) ; IllusionTemple3ItemBag
?MoonHarvestItemBag@@3PAVCProbabilityItemBag@@A DD 01H DUP (?) ; MoonHarvestItemBag
?MoonHarvestItemBag2@@3PAVCProbabilityItemBag@@A DD 01H DUP (?) ; MoonHarvestItemBag2
?CherryBlossom1@@3PAVCProbabilityItemBag@@A DD 01H DUP (?) ; CherryBlossom1
?CherryBlossom2@@3PAVCProbabilityItemBag@@A DD 01H DUP (?) ; CherryBlossom2
?CherryBlossom3@@3PAVCProbabilityItemBag@@A DD 01H DUP (?) ; CherryBlossom3
?CherryBlossom4@@3PAVCProbabilityItemBag@@A DD 01H DUP (?) ; CherryBlossom4
?PCBangGageGreenBox@@3PAVCProbabilityItemBag@@A DD 01H DUP (?) ; PCBangGageGreenBox
?PCBangGageRedBox@@3PAVCProbabilityItemBag@@A DD 01H DUP (?) ; PCBangGageRedBox
?PCBangGagePurpleBox@@3PAVCProbabilityItemBag@@A DD 01H DUP (?) ; PCBangGagePurpleBox
?ReservedBox@@3PAVCProbabilityItemBag@@A DD 01H DUP (?)	; ReservedBox
?RaklionSelupanItemBag@@3PAVCProbabilityItemBag@@A DD 01H DUP (?) ; RaklionSelupanItemBag
?XMasEventA@@3PAVCProbabilityItemBag@@A DD 01H DUP (?)	; XMasEventA
?XMasEventB@@3PAVCProbabilityItemBag@@A DD 01H DUP (?)	; XMasEventB
?XMasEventC@@3PAVCProbabilityItemBag@@A DD 01H DUP (?)	; XMasEventC
?LuckyCoin10@@3PAVCProbabilityItemBag@@A DD 01H DUP (?)	; LuckyCoin10
?LuckyCoin20@@3PAVCProbabilityItemBag@@A DD 01H DUP (?)	; LuckyCoin20
?LuckyCoin30@@3PAVCProbabilityItemBag@@A DD 01H DUP (?)	; LuckyCoin30
?GoldenBoxItemBag@@3PAVCProbabilityItemBag@@A DD 01H DUP (?) ; GoldenBoxItemBag
?SilverBoxItemBag@@3PAVCProbabilityItemBag@@A DD 01H DUP (?) ; SilverBoxItemBag
?ShineJewelleryCaseItemBag@@3PAVCProbabilityItemBag@@A DD 01H DUP (?) ; ShineJewelleryCaseItemBag
?RefinedJewelleryCaseItemBag@@3PAVCProbabilityItemBag@@A DD 01H DUP (?) ; RefinedJewelleryCaseItemBag
?IronJewelleryCaseItemBag@@3PAVCProbabilityItemBag@@A DD 01H DUP (?) ; IronJewelleryCaseItemBag
?OldJewelleryCaseItemBag@@3PAVCProbabilityItemBag@@A DD 01H DUP (?) ; OldJewelleryCaseItemBag
?NewMonsterItemBag@@3PAVCProbabilityItemBag@@A DD 01H DUP (?) ; NewMonsterItemBag
?BoxOfGreenColorItemBag@@3PAVCProbabilityItemBag@@A DD 01H DUP (?) ; BoxOfGreenColorItemBag
?BoxOfRedColorItemBag@@3PAVCProbabilityItemBag@@A DD 01H DUP (?) ; BoxOfRedColorItemBag
?BoxOfPurpleColorItemBag@@3PAVCProbabilityItemBag@@A DD 01H DUP (?) ; BoxOfPurpleColorItemBag
?SpeedHackPlayerBlock@@3HA DD 01H DUP (?)		; SpeedHackPlayerBlock
?bCanConnectMember@@3HA DD 01H DUP (?)			; bCanConnectMember
?bCanChangeCharacterName@@3HA DD 01H DUP (?)		; bCanChangeCharacterName
?gServerType@@3HA DD 01H DUP (?)			; gServerType
?gPartition@@3HA DD 01H DUP (?)				; gPartition
?gApplyHeroSystem@@3HA DD 01H DUP (?)			; gApplyHeroSystem
?gSpeedHackPenalty@@3HA DD 01H DUP (?)			; gSpeedHackPenalty
?gEnableEventNPCTalk@@3HA DD 01H DUP (?)		; gEnableEventNPCTalk
?gEnableServerDivision@@3HA DD 01H DUP (?)		; gEnableServerDivision
?gEvent1@@3HA DD 01H DUP (?)				; gEvent1
?gMonsterHp@@3HA DD 01H DUP (?)				; gMonsterHp
?gMerryXMasNpcEvent@@3HA DD 01H DUP (?)			; gMerryXMasNpcEvent
?gHappyNewYearNpcEvent@@3HA DD 01H DUP (?)		; gHappyNewYearNpcEvent
?gEvent1ItemDropTodayCount@@3HA DD 01H DUP (?)		; gEvent1ItemDropTodayCount
?gLanguage@@3HA DD 01H DUP (?)				; gLanguage
?gChaosEvent@@3HA DD 01H DUP (?)			; gChaosEvent
?gChaosEventServerIp@@3PADA DB 014H DUP (?)		; gChaosEventServerIp
?gDevilSquareEventServerIp@@3PADA DB 014H DUP (?)	; gDevilSquareEventServerIp
?gHackLogServerIp@@3PADA DB 014H DUP (?)		; gHackLogServerIp
?gEventChipServerIp@@3PADA DB 014H DUP (?)		; gEventChipServerIp
?gNonPK@@3HA DD	01H DUP (?)				; gNonPK
?gPkLimitFree@@3HA DD 01H DUP (?)			; gPkLimitFree
?gXMasEvent@@3HA DD 01H DUP (?)				; gXMasEvent
?gFireCrackerEvent@@3HA DD 01H DUP (?)			; gFireCrackerEvent
?gHeartOfLoveEvent@@3HA DD 01H DUP (?)			; gHeartOfLoveEvent
?gMedalEvent@@3HA DD 01H DUP (?)			; gMedalEvent
?gEventChipEvent@@3HA DD 01H DUP (?)			; gEventChipEvent
?gDevilSquareEvent@@3HA DD 01H DUP (?)			; gDevilSquareEvent
?gWriteSkillLog@@3HA DD 01H DUP (?)			; gWriteSkillLog
?g_bStoneItemDrop@@3HA DD 01H DUP (?)			; g_bStoneItemDrop
?g_bDoXMasAttackEvent@@3HA DD 01H DUP (?)		; g_bDoXMasAttackEvent
?g_bDoRingEvent@@3HA DD 01H DUP (?)			; g_bDoRingEvent
?g_bEventManagerOn@@3HA DD 01H DUP (?)			; g_bEventManagerOn
?g_iKundunMarkDropRate@@3HA DD 01H DUP (?)		; g_iKundunMarkDropRate
?g_iMarkOfTheLord@@3HA DD 01H DUP (?)			; g_iMarkOfTheLord
?g_iJapan1StAnivItemDropRate@@3HA DD 01H DUP (?)	; g_iJapan1StAnivItemDropRate
?g_iDarkLordHeartDropRate@@3HA DD 01H DUP (?)		; g_iDarkLordHeartDropRate
?g_iDarkLordHeartOffEventRate@@3HA DD 01H DUP (?)	; g_iDarkLordHeartOffEventRate
?g_iMysteriousBeadDropRate1@@3HA DD 01H DUP (?)		; g_iMysteriousBeadDropRate1
?g_iMysteriousBeadDropRate2@@3HA DD 01H DUP (?)		; g_iMysteriousBeadDropRate2
?g_iHiddenTreasureBoxOfflineRate@@3HA DD 01H DUP (?)	; g_iHiddenTreasureBoxOfflineRate
?bIsIgnorePacketSpeedHackDetect@@3HA DD 01H DUP (?)	; bIsIgnorePacketSpeedHackDetect
?gIsKickDetecHackCountLimit@@3HA DD 01H DUP (?)		; gIsKickDetecHackCountLimit
?gTamaJJangEvent@@3HA DD 01H DUP (?)			; gTamaJJangEvent
?gAppearTamaJJang@@3HA DD 01H DUP (?)			; gAppearTamaJJang
?gTamaJJangTime@@3HA DD 01H DUP (?)			; gTamaJJangTime
?gIsItemDropRingOfTransform@@3HA DD 01H DUP (?)		; gIsItemDropRingOfTransform
?gIsEledoradoEvent@@3HA DD 01H DUP (?)			; gIsEledoradoEvent
?gDoPShopOpen@@3HA DD 01H DUP (?)			; gDoPShopOpen
?gWriteChatLog@@3HA DD 01H DUP (?)			; gWriteChatLog
?gDisconnectHackUser@@3HA DD 01H DUP (?)		; gDisconnectHackUser
?g_iBlockKanturuMapEnter@@3HA DD 01H DUP (?)		; g_iBlockKanturuMapEnter
?g_iBlockCastleSiegeMapEnter@@3HA DD 01H DUP (?)	; g_iBlockCastleSiegeMapEnter
?g_iBlockRaklionMapEnter@@3HA DD 01H DUP (?)		; g_iBlockRaklionMapEnter
?GSInfoSendFlag@@3HA DD 01H DUP (?)			; GSInfoSendFlag
?GameServerPort@@3HA DD 01H DUP (?)			; GameServerPort
?JoinServerPort@@3HA DD 01H DUP (?)			; JoinServerPort
?DataServerPort@@3HA DD 01H DUP (?)			; DataServerPort
?DataServerPort2@@3HA DD 01H DUP (?)			; DataServerPort2
?ZtDbPort@@3HA DD 01H DUP (?)				; ZtDbPort
?RankingPort@@3HA DD 01H DUP (?)			; RankingPort
?EventPort@@3HA DD 01H DUP (?)				; EventPort
?gNewServer@@3HA DD 01H DUP (?)				; gNewServer
?gEventOff@@3HA DD 01H DUP (?)				; gEventOff
?gLevelExperience@@3PAKA DD 03e9H DUP (?)		; gLevelExperience
?szGameServerExeSerial@@3PADA DB 018H DUP (?)		; szGameServerExeSerial
?szServerName@@3PADA DB 032H DUP (?)			; szServerName
	ALIGN	4

?szKorItemTextFileName@@3PADA DB 0100H DUP (?)		; szKorItemTextFileName
?szKorSkillTextFileName@@3PADA DB 0100H DUP (?)		; szKorSkillTextFileName
?szItemTextFileName@@3PADA DB 0100H DUP (?)		; szItemTextFileName
?szSkillTextFileName@@3PADA DB 0100H DUP (?)		; szSkillTextFileName
?szQuestTextFileName@@3PADA DB 0100H DUP (?)		; szQuestTextFileName
?szMoveReqFileName@@3PADA DB 0100H DUP (?)		; szMoveReqFileName
?szCommonlocIniFileName@@3PADA DB 0100H DUP (?)		; szCommonlocIniFileName
?szAuthKey@@3PADA DB 014H DUP (?)			; szAuthKey
?gIsDropDarkLordItem@@3HA DD 01H DUP (?)		; gIsDropDarkLordItem
?gSleeveOfLordDropRate@@3HA DD 01H DUP (?)		; gSleeveOfLordDropRate
?gSleeveOfLordDropLevel@@3HA DD 01H DUP (?)		; gSleeveOfLordDropLevel
?gSoulOfDarkHorseDropRate@@3HA DD 01H DUP (?)		; gSoulOfDarkHorseDropRate
?gSoulOfDarkHorseropLevel@@3HA DD 01H DUP (?)		; gSoulOfDarkHorseropLevel
?gSoulOfDarkSpiritDropRate@@3HA DD 01H DUP (?)		; gSoulOfDarkSpiritDropRate
?gSoulOfDarkSpiritDropLevel@@3HA DD 01H DUP (?)		; gSoulOfDarkSpiritDropLevel
?gDarkSpiritAddExperience@@3MA DD 01H DUP (?)		; gDarkSpiritAddExperience
?gIsDropGemOfDefend@@3HA DD 01H DUP (?)			; gIsDropGemOfDefend
?gGemOfDefendDropRate@@3HA DD 01H DUP (?)		; gGemOfDefendDropRate
?gGemOfDefendDropLevel@@3HA DD 01H DUP (?)		; gGemOfDefendDropLevel
?g_iUseCharacterAutoRecuperationSystem@@3HA DD 01H DUP (?) ; g_iUseCharacterAutoRecuperationSystem
?g_iCharacterRecuperationMaxLevel@@3HA DD 01H DUP (?)	; g_iCharacterRecuperationMaxLevel
?g_iServerGroupGuildChatting@@3HA DD 01H DUP (?)	; g_iServerGroupGuildChatting
?g_iServerGroupUnionChatting@@3HA DD 01H DUP (?)	; g_iServerGroupUnionChatting
?g_bRibbonBoxEvent@@3HA DD 01H DUP (?)			; g_bRibbonBoxEvent
?g_iRedRibbonBoxDropLevelMin@@3HA DD 01H DUP (?)	; g_iRedRibbonBoxDropLevelMin
?g_iRedRibbonBoxDropLevelMax@@3HA DD 01H DUP (?)	; g_iRedRibbonBoxDropLevelMax
?g_iRedRibbonBoxDropRate@@3HA DD 01H DUP (?)		; g_iRedRibbonBoxDropRate
?g_iRedRibbonBoxDropZenRate@@3HA DD 01H DUP (?)		; g_iRedRibbonBoxDropZenRate
?g_iRedRibbonBoxDropZen@@3HA DD 01H DUP (?)		; g_iRedRibbonBoxDropZen
?g_iGreenRibbonBoxDropLevelMin@@3HA DD 01H DUP (?)	; g_iGreenRibbonBoxDropLevelMin
?g_iGreenRibbonBoxDropLevelMax@@3HA DD 01H DUP (?)	; g_iGreenRibbonBoxDropLevelMax
?g_iGreenRibbonBoxDropRate@@3HA DD 01H DUP (?)		; g_iGreenRibbonBoxDropRate
?g_iGreenRibbonBoxDropZenRate@@3HA DD 01H DUP (?)	; g_iGreenRibbonBoxDropZenRate
?g_iGreenRibbonBoxDropZen@@3HA DD 01H DUP (?)		; g_iGreenRibbonBoxDropZen
?g_iBlueRibbonBoxDropLevelMin@@3HA DD 01H DUP (?)	; g_iBlueRibbonBoxDropLevelMin
?g_iBlueRibbonBoxDropLevelMax@@3HA DD 01H DUP (?)	; g_iBlueRibbonBoxDropLevelMax
?g_iBlueRibbonBoxDropRate@@3HA DD 01H DUP (?)		; g_iBlueRibbonBoxDropRate
?g_iBlueRibbonBoxDropZenRate@@3HA DD 01H DUP (?)	; g_iBlueRibbonBoxDropZenRate
?g_iBlueRibbonBoxDropZen@@3HA DD 01H DUP (?)		; g_iBlueRibbonBoxDropZen
?g_bNewYearLuckyBagMonsterEventOn@@3HA DD 01H DUP (?)	; g_bNewYearLuckyBagMonsterEventOn
?g_bChocolateBoxEvent@@3HA DD 01H DUP (?)		; g_bChocolateBoxEvent
?g_iPinkChocolateBoxDropLevelMin@@3HA DD 01H DUP (?)	; g_iPinkChocolateBoxDropLevelMin
?g_iPinkChocolateBoxDropLevelMax@@3HA DD 01H DUP (?)	; g_iPinkChocolateBoxDropLevelMax
?g_iPinkChocolateBoxDropRate@@3HA DD 01H DUP (?)	; g_iPinkChocolateBoxDropRate
?g_iPinkChocolateBoxDropZenRate@@3HA DD 01H DUP (?)	; g_iPinkChocolateBoxDropZenRate
?g_iPinkChocolateBoxDropZen@@3HA DD 01H DUP (?)		; g_iPinkChocolateBoxDropZen
?g_iRedChocolateBoxDropLevelMin@@3HA DD 01H DUP (?)	; g_iRedChocolateBoxDropLevelMin
?g_iRedChocolateBoxDropLevelMax@@3HA DD 01H DUP (?)	; g_iRedChocolateBoxDropLevelMax
?g_iRedChocolateBoxDropRate@@3HA DD 01H DUP (?)		; g_iRedChocolateBoxDropRate
?g_iRedChocolateBoxDropZenRate@@3HA DD 01H DUP (?)	; g_iRedChocolateBoxDropZenRate
?g_iRedChocolateBoxDropZen@@3HA DD 01H DUP (?)		; g_iRedChocolateBoxDropZen
?g_iBlueChocolateBoxDropLevelMin@@3HA DD 01H DUP (?)	; g_iBlueChocolateBoxDropLevelMin
?g_iBlueChocolateBoxDropLevelMax@@3HA DD 01H DUP (?)	; g_iBlueChocolateBoxDropLevelMax
?g_iBlueChocolateBoxDropRate@@3HA DD 01H DUP (?)	; g_iBlueChocolateBoxDropRate
?g_iBlueChocolateBoxDropZenRate@@3HA DD 01H DUP (?)	; g_iBlueChocolateBoxDropZenRate
?g_iBlueChocolateBoxDropZen@@3HA DD 01H DUP (?)		; g_iBlueChocolateBoxDropZen
?g_bCandyBoxEvent@@3HA DD 01H DUP (?)			; g_bCandyBoxEvent
?g_iLightPurpleCandyBoxDropLevelMin@@3HA DD 01H DUP (?)	; g_iLightPurpleCandyBoxDropLevelMin
?g_iLightPurpleCandyBoxDropLevelMax@@3HA DD 01H DUP (?)	; g_iLightPurpleCandyBoxDropLevelMax
?g_iLightPurpleCandyBoxDropRate@@3HA DD 01H DUP (?)	; g_iLightPurpleCandyBoxDropRate
?g_iLightPurpleCandyBoxDropZenRate@@3HA DD 01H DUP (?)	; g_iLightPurpleCandyBoxDropZenRate
?g_iLightPurpleCandyBoxDropZen@@3HA DD 01H DUP (?)	; g_iLightPurpleCandyBoxDropZen
?g_iVermilionCandyBoxDropLevelMin@@3HA DD 01H DUP (?)	; g_iVermilionCandyBoxDropLevelMin
?g_iVermilionCandyBoxDropLevelMax@@3HA DD 01H DUP (?)	; g_iVermilionCandyBoxDropLevelMax
?g_iVermilionCandyBoxDropRate@@3HA DD 01H DUP (?)	; g_iVermilionCandyBoxDropRate
?g_iVermilionCandyBoxDropZenRate@@3HA DD 01H DUP (?)	; g_iVermilionCandyBoxDropZenRate
?g_iVermilionCandyBoxDropZen@@3HA DD 01H DUP (?)	; g_iVermilionCandyBoxDropZen
?g_iDeepBlueCandyBoxDropLevelMin@@3HA DD 01H DUP (?)	; g_iDeepBlueCandyBoxDropLevelMin
?g_iDeepBlueCandyBoxDropLevelMax@@3HA DD 01H DUP (?)	; g_iDeepBlueCandyBoxDropLevelMax
?g_iDeepBlueCandyBoxDropRate@@3HA DD 01H DUP (?)	; g_iDeepBlueCandyBoxDropRate
?g_iDeepBlueCandyBoxDropZenRate@@3HA DD 01H DUP (?)	; g_iDeepBlueCandyBoxDropZenRate
?g_iDeepBlueCandyBoxDropZen@@3HA DD 01H DUP (?)		; g_iDeepBlueCandyBoxDropZen
?g_bFenrirStuffItemDrop@@3HA DD 01H DUP (?)		; g_bFenrirStuffItemDrop
?g_iFenrirStuff_01_DropLv_Min@@3HA DD 01H DUP (?)	; g_iFenrirStuff_01_DropLv_Min
?g_iFenrirStuff_01_DropLv_Max@@3HA DD 01H DUP (?)	; g_iFenrirStuff_01_DropLv_Max
?g_iFenrirStuff_01_DropMap@@3HA DD 01H DUP (?)		; g_iFenrirStuff_01_DropMap
?g_iFenrirStuff_01_DropRate@@3HA DD 01H DUP (?)		; g_iFenrirStuff_01_DropRate
?g_iFenrirStuff_02_DropLv_Min@@3HA DD 01H DUP (?)	; g_iFenrirStuff_02_DropLv_Min
?g_iFenrirStuff_02_DropLv_Max@@3HA DD 01H DUP (?)	; g_iFenrirStuff_02_DropLv_Max
?g_iFenrirStuff_02_DropMap@@3HA DD 01H DUP (?)		; g_iFenrirStuff_02_DropMap
?g_iFenrirStuff_02_DropRate@@3HA DD 01H DUP (?)		; g_iFenrirStuff_02_DropRate
?g_iFenrirStuff_03_DropLv_Min@@3HA DD 01H DUP (?)	; g_iFenrirStuff_03_DropLv_Min
?g_iFenrirStuff_03_DropLv_Max@@3HA DD 01H DUP (?)	; g_iFenrirStuff_03_DropLv_Max
?g_iFenrirStuff_03_DropMap@@3HA DD 01H DUP (?)		; g_iFenrirStuff_03_DropMap
?g_iFenrirStuff_03_DropRate@@3HA DD 01H DUP (?)		; g_iFenrirStuff_03_DropRate
?g_iFenrirRepairRate@@3HA DD 01H DUP (?)		; g_iFenrirRepairRate
?g_iFenrirDefaultMaxDurSmall@@3HA DD 01H DUP (?)	; g_iFenrirDefaultMaxDurSmall
?g_iFenrirElfMaxDurSmall@@3HA DD 01H DUP (?)		; g_iFenrirElfMaxDurSmall
?g_iFenrir_01Level_MixRate@@3HA DD 01H DUP (?)		; g_iFenrir_01Level_MixRate
?g_iFenrir_02Level_MixRate@@3HA DD 01H DUP (?)		; g_iFenrir_02Level_MixRate
?g_iFenrir_03Level_MixRate@@3HA DD 01H DUP (?)		; g_iFenrir_03Level_MixRate
?g_bCrywolfMonsterDarkElfItemDrop@@3HA DD 01H DUP (?)	; g_bCrywolfMonsterDarkElfItemDrop
?g_iCrywolfMonsterDarkElfItemDropRate@@3HA DD 01H DUP (?) ; g_iCrywolfMonsterDarkElfItemDropRate
?g_iCrywolfMonsterDarkElfDropZenRate@@3HA DD 01H DUP (?) ; g_iCrywolfMonsterDarkElfDropZenRate
?g_iCrywolfMonsterDarkElfDropZen@@3HA DD 01H DUP (?)	; g_iCrywolfMonsterDarkElfDropZen
?g_bCrywolfBossMonsterItemDrop@@3HA DD 01H DUP (?)	; g_bCrywolfBossMonsterItemDrop
?g_iCrywolfBossMonsterItemDropRate@@3HA DD 01H DUP (?)	; g_iCrywolfBossMonsterItemDropRate
?g_iCrywolfBossMonsterDropZenRate@@3HA DD 01H DUP (?)	; g_iCrywolfBossMonsterDropZenRate
?g_iCrywolfBossMonsterDropZen@@3HA DD 01H DUP (?)	; g_iCrywolfBossMonsterDropZen
?g_iCrywolfApplyMvpBenefit@@3HA DD 01H DUP (?)		; g_iCrywolfApplyMvpBenefit
?g_iCrywolfApplyMvpPenalty@@3HA DD 01H DUP (?)		; g_iCrywolfApplyMvpPenalty
?g_iSkillDistanceCheck@@3HA DD 01H DUP (?)		; g_iSkillDistanceCheck
?g_iSkillDistanceCheckTemp@@3HA DD 01H DUP (?)		; g_iSkillDistanceCheckTemp
?g_iSkillDistanceKick@@3HA DD 01H DUP (?)		; g_iSkillDistanceKick
?g_iSkillDistanceKickCount@@3HA DD 01H DUP (?)		; g_iSkillDistanceKickCount
?g_iSkillDiatanceKickCheckTime@@3HA DD 01H DUP (?)	; g_iSkillDiatanceKickCheckTime
?g_bKanturuMayaHandItemDrop@@3HA DD 01H DUP (?)		; g_bKanturuMayaHandItemDrop
?g_iKanturuMayaHandItemDropRate@@3HA DD 01H DUP (?)	; g_iKanturuMayaHandItemDropRate
?g_iKanturuMayaHandDropZenRate@@3HA DD 01H DUP (?)	; g_iKanturuMayaHandDropZenRate
?g_iKanturuMayaHandDropZen@@3HA DD 01H DUP (?)		; g_iKanturuMayaHandDropZen
?g_bKanturuNightmareItemDrop@@3HA DD 01H DUP (?)	; g_bKanturuNightmareItemDrop
?g_iKanturuNightmareItemDropRate@@3HA DD 01H DUP (?)	; g_iKanturuNightmareItemDropRate
?g_iKanturuNightmareDropZenRate@@3HA DD 01H DUP (?)	; g_iKanturuNightmareDropZenRate
?g_iKanturuNightmareDropZen@@3HA DD 01H DUP (?)		; g_iKanturuNightmareDropZen
?g_bKanturuSpecialItemDropOn@@3HA DD 01H DUP (?)	; g_bKanturuSpecialItemDropOn
?g_iKanturuMoonStoneDropRate@@3HA DD 01H DUP (?)	; g_iKanturuMoonStoneDropRate
?g_iKanturuJewelOfHarmonyDropRate@@3HA DD 01H DUP (?)	; g_iKanturuJewelOfHarmonyDropRate
?g_bRaklionSelupanItemDrop@@3HA DD 01H DUP (?)		; g_bRaklionSelupanItemDrop
?g_iRaklionSelupanItemDropRate@@3HA DD 01H DUP (?)	; g_iRaklionSelupanItemDropRate
?g_iRaklionSelupanDropZenRate@@3HA DD 01H DUP (?)	; g_iRaklionSelupanDropZenRate
?g_bRaklionSelupanDropZen@@3HA DD 01H DUP (?)		; g_bRaklionSelupanDropZen
?g_bLuckyCoinEventOn@@3HA DD 01H DUP (?)		; g_bLuckyCoinEventOn
?g_iLuckyCoinDropRate@@3HA DD 01H DUP (?)		; g_iLuckyCoinDropRate
?g_bHallowinDayEventOn@@3HA DD 01H DUP (?)		; g_bHallowinDayEventOn
?g_iHallowinDayEventItemDropRate@@3HA DD 01H DUP (?)	; g_iHallowinDayEventItemDropRate
?g_iHallowinDayEventJOLBlessDropRate@@3HA DD 01H DUP (?) ; g_iHallowinDayEventJOLBlessDropRate
?g_iHallowinDayEventJOLAngerDropRaTe@@3HA DD 01H DUP (?) ; g_iHallowinDayEventJOLAngerDropRaTe
?g_iHallowinDayEventJOLScreamDropRate@@3HA DD 01H DUP (?) ; g_iHallowinDayEventJOLScreamDropRate
?g_iHallowinDayEventJOLFoodDropRate@@3HA DD 01H DUP (?)	; g_iHallowinDayEventJOLFoodDropRate
?g_iHallowinDayEventJOLDrinkDropRate@@3HA DD 01H DUP (?) ; g_iHallowinDayEventJOLDrinkDropRate
?g_iHallowinDayEventJOLPolymorphRingDropRate@@3HA DD 01H DUP (?) ; g_iHallowinDayEventJOLPolymorphRingDropRate
?g_iSantaPolymorphRingDropOn@@3HA DD 01H DUP (?)	; g_iSantaPolymorphRingDropOn
?g_iSantaPolymorphRingDropRate@@3HA DD 01H DUP (?)	; g_iSantaPolymorphRingDropRate
?g_iCondorFlameDropRate@@3HA DD 01H DUP (?)		; g_iCondorFlameDropRate
?g_bCherryBlossomEventOn@@3HA DD 01H DUP (?)		; g_bCherryBlossomEventOn
?g_iCherryBlossomEventItemDropRate@@3HA DD 01H DUP (?)	; g_iCherryBlossomEventItemDropRate
?g_bAbilityDebug@@3HA DD 01H DUP (?)			; g_bAbilityDebug
?dwgCheckSum@@3PAKA DD 0400H DUP (?)			; dwgCheckSum
?connectserverip@@3PADA DB 014H DUP (?)			; connectserverip
?connectserverport@@3HA DD 01H DUP (?)			; connectserverport
?gGameServerCode@@3FA DW 01H DUP (?)			; gGameServerCode
	ALIGN	4

?gPkTime@@3HA DD 01H DUP (?)				; gPkTime
?g_bCastleGuildDestoyLimit@@3HA DD 01H DUP (?)		; g_bCastleGuildDestoyLimit
?gItemNumberCount@@3KA DD 01H DUP (?)			; gItemNumberCount
?gAttackEventRegenTime@@3KA DD 01H DUP (?)		; gAttackEventRegenTime
?gYear@@3HA DD	01H DUP (?)				; gYear
?gOnlyFireCrackerEffectUse@@3HA DD 01H DUP (?)		; gOnlyFireCrackerEffectUse
?g_iRingOrcKillGiftRate@@3HA DD 01H DUP (?)		; g_iRingOrcKillGiftRate
?g_iRingDropGiftRate@@3HA DD 01H DUP (?)		; g_iRingDropGiftRate
?g_iXMasAttackEventDropRate@@3HA DD 01H DUP (?)		; g_iXMasAttackEventDropRate
?g_iXMasAttackEventDropZen@@3HA DD 01H DUP (?)		; g_iXMasAttackEventDropZen
?gEledoradoGoldGoblenItemDropRate@@3HA DD 01H DUP (?)	; gEledoradoGoldGoblenItemDropRate
?gEledoradoTitanItemDropRate@@3HA DD 01H DUP (?)	; gEledoradoTitanItemDropRate
?gEledoradoGoldDerconItemDropRate@@3HA DD 01H DUP (?)	; gEledoradoGoldDerconItemDropRate
?gEledoradoDevilLizardKingItemDropRate@@3HA DD 01H DUP (?) ; gEledoradoDevilLizardKingItemDropRate
?gEledoradoDevilTantarosItemDropRate@@3HA DD 01H DUP (?) ; gEledoradoDevilTantarosItemDropRate
?gEledoradoGoldGoblenExItemDropRate@@3HA DD 01H DUP (?)	; gEledoradoGoldGoblenExItemDropRate
?gEledoradoTitanExItemDropRate@@3HA DD 01H DUP (?)	; gEledoradoTitanExItemDropRate
?gEledoradoGoldDerconExItemDropRate@@3HA DD 01H DUP (?)	; gEledoradoGoldDerconExItemDropRate
?gEledoradoDevilLizardKingExItemDropRate@@3HA DD 01H DUP (?) ; gEledoradoDevilLizardKingExItemDropRate
?gEledoradoDevilTantarosExItemDropRate@@3HA DD 01H DUP (?) ; gEledoradoDevilTantarosExItemDropRate
?giKundunRefillHPSec@@3HA DD 01H DUP (?)		; giKundunRefillHPSec
?giKundunRefillHP@@3HA DD 01H DUP (?)			; giKundunRefillHP
?giKundunRefillHPTime@@3HA DD 01H DUP (?)		; giKundunRefillHPTime
?giKundunHPLogSaveTime@@3HA DD 01H DUP (?)		; giKundunHPLogSaveTime
?gUseNPGGChecksum@@3HA DD 01H DUP (?)			; gUseNPGGChecksum
?g_ShieldSystemOn@@3HA DD 01H DUP (?)			; g_ShieldSystemOn
?g_iDamageDevideToSDRate@@3HA DD 01H DUP (?)		; g_iDamageDevideToSDRate
?g_iDamageDevideToHPRate@@3HA DD 01H DUP (?)		; g_iDamageDevideToHPRate
?g_fSuccessAttackRateOption@@3MA DD 01H DUP (?)		; g_fSuccessAttackRateOption
?g_iSDChargingOption@@3HA DD 01H DUP (?)		; g_iSDChargingOption
?g_iConstNumberOfShieldPoint@@3HA DD 01H DUP (?)	; g_iConstNumberOfShieldPoint
?g_ShieldAutoRefillOn@@3HA DD 01H DUP (?)		; g_ShieldAutoRefillOn
?g_ShieldAutoRefillOnSafeZone@@3HA DD 01H DUP (?)	; g_ShieldAutoRefillOnSafeZone
?g_PKLevelIncreaseOff@@3HA DD 01H DUP (?)		; g_PKLevelIncreaseOff
?g_CompoundPotionDropOn@@3HA DD 01H DUP (?)		; g_CompoundPotionDropOn
?g_iCompoundPotionLv1DropRate@@3HA DD 01H DUP (?)	; g_iCompoundPotionLv1DropRate
?g_iCompoundPotionLv2DropRate@@3HA DD 01H DUP (?)	; g_iCompoundPotionLv2DropRate
?g_iCompoundPotionLv3DropRate@@3HA DD 01H DUP (?)	; g_iCompoundPotionLv3DropRate
?g_iCompoundPotionLv1DropLevel@@3HA DD 01H DUP (?)	; g_iCompoundPotionLv1DropLevel
?g_iCompoundPotionLv2DropLevel@@3HA DD 01H DUP (?)	; g_iCompoundPotionLv2DropLevel
?g_iCompoundPotionLv3DropLevel@@3HA DD 01H DUP (?)	; g_iCompoundPotionLv3DropLevel
?g_bShieldComboMissOptionOn@@3HA DD 01H DUP (?)		; g_bShieldComboMissOptionOn
?g_iShieldPotionLv1MixSuccessRate@@3HA DD 01H DUP (?)	; g_iShieldPotionLv1MixSuccessRate
?g_iShieldPotionLv1MixMoney@@3HA DD 01H DUP (?)		; g_iShieldPotionLv1MixMoney
?g_iShieldPotionLv2MixSuccessRate@@3HA DD 01H DUP (?)	; g_iShieldPotionLv2MixSuccessRate
?g_iShieldPotionLv2MixMoney@@3HA DD 01H DUP (?)		; g_iShieldPotionLv2MixMoney
?g_iShieldPotionLv3MixSuccessRate@@3HA DD 01H DUP (?)	; g_iShieldPotionLv3MixSuccessRate
?g_iShieldPotionLv3MixMoney@@3HA DD 01H DUP (?)		; g_iShieldPotionLv3MixMoney
?g_iShieldGageConstA@@3HA DD 01H DUP (?)		; g_iShieldGageConstA
?g_iShieldGageConstB@@3HA DD 01H DUP (?)		; g_iShieldGageConstB
?gMapName@@3PAY0PP@DA DB 052adH DUP (?)			; gMapName
	ALIGN	4

?g_bDoCastleDeepEvent@@3HA DD 01H DUP (?)		; g_bDoCastleDeepEvent
?gIsDropSetItemInCastleHuntZone@@3HA DD 01H DUP (?)	; gIsDropSetItemInCastleHuntZone
?gSetItemInCastleHuntZoneDropRate@@3HA DD 01H DUP (?)	; gSetItemInCastleHuntZoneDropRate
?gSetItemInCastleHuntZoneDropLevel@@3HA DD 01H DUP (?)	; gSetItemInCastleHuntZoneDropLevel
?CastleItemMixItemBag@@3PAVCItemBagZt@@A DD 01H DUP (?)	; CastleItemMixItemBag
?CastleHuntZoneBossItemBag@@3PAVCItemBagZt@@A DD 01H DUP (?) ; CastleHuntZoneBossItemBag
?ZtParty3ExpPercent@@3HA DD 01H DUP (?)			; ZtParty3ExpPercent
?ZtParty4ExpPercent@@3HA DD 01H DUP (?)			; ZtParty4ExpPercent
?ZtParty5ExpPercent@@3HA DD 01H DUP (?)			; ZtParty5ExpPercent
?ZtPartyExpPercentOther@@3HA DD 01H DUP (?)		; ZtPartyExpPercentOther
?ZtParty2ExpSetPercent@@3HA DD 01H DUP (?)		; ZtParty2ExpSetPercent
?ZtParty3ExpSetPercent@@3HA DD 01H DUP (?)		; ZtParty3ExpSetPercent
?ZtParty4ExpSetPercent@@3HA DD 01H DUP (?)		; ZtParty4ExpSetPercent
?ZtParty5ExpSetPercent@@3HA DD 01H DUP (?)		; ZtParty5ExpSetPercent
?ZtParty1ExpSetPercent@@3HA DD 01H DUP (?)		; ZtParty1ExpSetPercent
?g_MaxPartyMember@@3HA DD 01H DUP (?)			; g_MaxPartyMember
?ZtParty6ExpPercent@@3HA DD 01H DUP (?)			; ZtParty6ExpPercent
?ZtParty7ExpPercent@@3HA DD 01H DUP (?)			; ZtParty7ExpPercent
?ZtParty8ExpPercent@@3HA DD 01H DUP (?)			; ZtParty8ExpPercent
?ZtParty9ExpPercent@@3HA DD 01H DUP (?)			; ZtParty9ExpPercent
?ZtParty10ExpPercent@@3HA DD 01H DUP (?)		; ZtParty10ExpPercent
?ZtParty6ExpSetPercent@@3HA DD 01H DUP (?)		; ZtParty6ExpSetPercent
?ZtParty7ExpSetPercent@@3HA DD 01H DUP (?)		; ZtParty7ExpSetPercent
?ZtParty8ExpSetPercent@@3HA DD 01H DUP (?)		; ZtParty8ExpSetPercent
?ZtParty9ExpSetPercent@@3HA DD 01H DUP (?)		; ZtParty9ExpSetPercent
?ZtParty10ExpSetPercent@@3HA DD 01H DUP (?)		; ZtParty10ExpSetPercent
?ExDropZenParty@@3HA DD 01H DUP (?)			; ExDropZenParty
?AllianceMinPlayers@@3HA DD 01H DUP (?)			; AllianceMinPlayers
?ZtExcellentAncient@@3HA DD 01H DUP (?)			; ZtExcellentAncient
?ZtExcellentSocket@@3HA DD 01H DUP (?)			; ZtExcellentSocket
?ZtAncientSocket@@3HA DD 01H DUP (?)			; ZtAncientSocket
?ZtAddJoHtoAnc@@3HA DD 01H DUP (?)			; ZtAddJoHtoAnc
?Zt_ItemsDurationTime@@3HA DD 01H DUP (?)		; Zt_ItemsDurationTime
?Zt_LifeRate@@3HA DD 01H DUP (?)			; Zt_LifeRate
?Zt_SoulRate@@3HA DD 01H DUP (?)			; Zt_SoulRate
?Zt_SoulRateLuck@@3HA DD 01H DUP (?)			; Zt_SoulRateLuck
?gWelcomeMessage@@3PADA DB 0ffH DUP (?)			; gWelcomeMessage
	ALIGN	4

?MSSQL2008@@3_NA DB 01H DUP (?)				; MSSQL2008
	ALIGN	4

?gGENS@@3HA DD	01H DUP (?)				; gGENS
?g_iXMasVisitCount@@3HA DD 01H DUP (?)			; g_iXMasVisitCount
?g_iBloodCastle_OddEvenHour@@3HA DD 01H DUP (?)		; g_iBloodCastle_OddEvenHour
_BSS	ENDS
_DATA	SEGMENT
_g_iNpcUpDfLevel_CGATE DD 01H
	DD	02H
	DD	02dc6c0H
	DD	02H
	DD	03H
	DD	02dc6c0H
	DD	03H
	DD	04H
	DD	02dc6c0H
_g_iNpcUpDfLevel_CSTATUE DD 01H
	DD	03H
	DD	02dc6c0H
	DD	02H
	DD	05H
	DD	02dc6c0H
	DD	03H
	DD	07H
	DD	02dc6c0H
_g_iNpcUpMaxHP_CGATE DD 02625a0H
	DD	02H
	DD	0f4240H
	DD	03567e0H
	DD	03H
	DD	0f4240H
	DD	04f5880H
	DD	04H
	DD	0f4240H
_g_iNpcUpMaxHP_CSTATUE DD 02191c0H
	DD	03H
	DD	0f4240H
	DD	033e140H
	DD	05H
	DD	0f4240H
	DD	04c4b40H
	DD	07H
	DD	0f4240H
_g_iNpcUpRgLevel_CSTATUE DD 01H
	DD	03H
	DD	04c4b40H
	DD	02H
	DD	05H
	DD	04c4b40H
	DD	03H
	DD	07H
	DD	04c4b40H
_g_iCsUserReSpawnArea DD 023H
	DD	011H
	DD	090H
	DD	030H
	DD	04aH
	DD	090H
	DD	073H
	DD	09aH
	DD	023H
	DD	011H
	DD	090H
	DD	030H
_g_iNpcDefense_CGATE DD 064H
	DD	0b4H
	DD	012cH
	DD	0208H
_g_iNpcDefense_CSTATUE DD 050H
	DD	0b4H
	DD	0154H
	DD	0226H
_g_iCastleWallStepAxisY DD 071H
	DD	0a0H
	DD	0cbH
_g_sttBLOODCASTLE_LEVEL DD 0fH
	DD	050H
	DD	0aH
	DD	03cH
	DD	051H
	DD	082H
	DD	03dH
	DD	06eH
	DD	083H
	DD	0b4H
	DD	06fH
	DD	0a0H
	DD	0b5H
	DD	0e6H
	DD	0a1H
	DD	0d2H
	DD	0e7H
	DD	0118H
	DD	0d3H
	DD	0104H
	DD	0119H
	DD	014aH
	DD	0105H
	DD	0136H
	DD	014bH
	DD	03e8H
	DD	0137H
	DD	03e8H
	DD	0fH
	DD	04afH
	DD	0aH
	DD	04afH
_g_sttCHAOSCASTLE_LEVEL DD 0fH
	DD	031H
	DD	0fH
	DD	01dH
	DD	032H
	DD	077H
	DD	01eH
	DD	063H
	DD	078H
	DD	0b3H
	DD	064H
	DD	09fH
	DD	0b4H
	DD	0efH
	DD	0a0H
	DD	0dbH
	DD	0f0H
	DD	012bH
	DD	0dcH
	DD	0117H
	DD	012cH
	DD	03e8H
	DD	0118H
	DD	03e8H
	DD	03e8H
	DD	04afH
	DD	03e8H
	DD	04afH
_g_iChaosCastle_BlowOutDistance DD 03H
	DD	04H
	DD	03H
	DD	04H
	DD	02H
	DD	03H
	DD	00H
	DD	01H
_g_iChaosCastle_BlowOutDamage DD 0fH
	DD	0fH
	DD	0aH
	DD	05H
_g_iChaosCastle_EnterCost DD 061a8H
	DD	013880H
	DD	0249f0H
	DD	03d090H
	DD	061a80H
	DD	09eb10H
	DD	0f4240H
_g_iChaosCastle_GuardSetValue DD 09c4H
	DD	09c4H
	DD	09c4H
	DD	09c4H
	DD	09c4H
	DD	09c4H
	DD	09c4H
_g_iChaosCastle_MonsterItems DD 01c0dH
	DD	01H
	DD	01c0eH
	DD	02H
	DD	01c0dH
	DD	01H
	DD	01c0eH
	DD	03H
	DD	01c0dH
	DD	01H
	DD	01c0eH
	DD	03H
	DD	01c0dH
	DD	02H
	DD	01c0eH
	DD	02H
	DD	01c0dH
	DD	02H
	DD	01c0eH
	DD	03H
	DD	01c0dH
	DD	02H
	DD	01c0eH
	DD	03H
	DD	01c0dH
	DD	02H
	DD	01c0eH
	DD	04H
_g_iChaosCastle_MonsterItemsNewServer DD 00H
	DD	00H
	DD	01c0eH
	DD	02H
	DD	01c0dH
	DD	01H
	DD	01c0eH
	DD	01H
	DD	01c0dH
	DD	01H
	DD	01c0eH
	DD	02H
	DD	01c0dH
	DD	01H
	DD	01c0eH
	DD	02H
	DD	01c0dH
	DD	02H
	DD	01c0eH
	DD	01H
	DD	01c0dH
	DD	02H
	DD	01c0eH
	DD	02H
	DD	01c0dH
	DD	02H
	DD	01c0eH
	DD	03H
_g_iChaosCastle_GroundAxis DD 017H
	DD	04bH
	DD	02cH
	DD	06cH
_g_iChaosCastle_DamageAxis DD 017H
	DD	04bH
	DD	02cH
	DD	06cH
	DD	019H
	DD	04dH
	DD	02aH
	DD	06aH
	DD	01bH
	DD	04fH
	DD	028H
	DD	068H
	DD	01dH
	DD	051H
	DD	026H
	DD	066H
_g_iChaosCastle_MapHollowZone DD 017H
	DD	04bH
	DD	02cH
	DD	04cH
	DD	02bH
	DD	04dH
	DD	02cH
	DD	06cH
	DD	017H
	DD	06bH
	DD	02aH
	DD	06cH
	DD	017H
	DD	04dH
	DD	018H
	DD	06aH
	DD	017H
	DD	04bH
	DD	02cH
	DD	04cH
	DD	02bH
	DD	04dH
	DD	02cH
	DD	06cH
	DD	017H
	DD	06bH
	DD	02aH
	DD	06cH
	DD	017H
	DD	04dH
	DD	018H
	DD	06aH
	DD	019H
	DD	04dH
	DD	02aH
	DD	04eH
	DD	029H
	DD	04fH
	DD	02aH
	DD	06aH
	DD	019H
	DD	069H
	DD	028H
	DD	06aH
	DD	019H
	DD	04fH
	DD	01aH
	DD	068H
	DD	01bH
	DD	04fH
	DD	028H
	DD	050H
	DD	027H
	DD	051H
	DD	028H
	DD	068H
	DD	01bH
	DD	067H
	DD	026H
	DD	068H
	DD	01bH
	DD	051H
	DD	01cH
	DD	066H
_g_sttDEVILSQUARE_LEVEL DD 0fH
	DD	082H
	DD	0aH
	DD	06eH
	DD	03aH
	DD	083H
	DD	0b4H
	DD	06fH
	DD	0a0H
	DD	03bH
	DD	0b5H
	DD	0e6H
	DD	0a1H
	DD	0d2H
	DD	03cH
	DD	0e7H
	DD	0118H
	DD	0d3H
	DD	0104H
	DD	03dH
	DD	0119H
	DD	014aH
	DD	0105H
	DD	0136H
	DD	06fH
	DD	014bH
	DD	03e8H
	DD	0137H
	DD	03e8H
	DD	070H
	DD	0fH
	DD	04afH
	DD	0aH
	DD	04afH
	DD	010eH
?g_iML_OldScrollDropRate@@3HA DD 0aH			; g_iML_OldScrollDropRate
?g_iML_CovenantOfIllusionDropRate@@3HA DD 0aH		; g_iML_CovenantOfIllusionDropRate
?g_iML_AngelKingsPaperDropRate@@3HA DD 0aH		; g_iML_AngelKingsPaperDropRate
?g_iML_BloodBoneDropRate@@3HA DD 0aH			; g_iML_BloodBoneDropRate
?g_iML_EyesOfDevilSquareDropRate@@3HA DD 0aH		; g_iML_EyesOfDevilSquareDropRate
?g_iML_KeysOfDevilSquareDropRate@@3HA DD 0aH		; g_iML_KeysOfDevilSquareDropRate
?g_iShadowPhantomMaxLevel@@3HA DD 0dcH			; g_iShadowPhantomMaxLevel
?g_iXMasEvent_LuckNumber1st@@3HA DD 064H		; g_iXMasEvent_LuckNumber1st
?g_iXMasEvent_LuckNumber2nd@@3HA DD 0c8H		; g_iXMasEvent_LuckNumber2nd
?gEledoradoGoldenRabbitRegenTime@@3HA DD 03cH		; gEledoradoGoldenRabbitRegenTime
?gEledoradoGoldenDarkKnightRegenTime@@3HA DD 03cH	; gEledoradoGoldenDarkKnightRegenTime
?gEledoradoGoldenDevilRegenTime@@3HA DD 03cH		; gEledoradoGoldenDevilRegenTime
?gEledoradoGoldenMonsterRegenTime@@3HA DD 03cH		; gEledoradoGoldenMonsterRegenTime
?gEledoradoGoldenCrustRegenTime@@3HA DD 03cH		; gEledoradoGoldenCrustRegenTime
?gEledoradoGoldenSatirosRegenTime@@3HA DD 03cH		; gEledoradoGoldenSatirosRegenTime
?gEledoradoGoldenTwintailRegenTime@@3HA DD 03cH		; gEledoradoGoldenTwintailRegenTime
?gEledoradoGoldenIronKnightRegenTime@@3HA DD 03cH	; gEledoradoGoldenIronKnightRegenTime
?gEledoradoGoldenNeipinRegenTime@@3HA DD 03cH		; gEledoradoGoldenNeipinRegenTime
?gEledoradoGoldenGreatDragonRegenTime@@3HA DD 03cH	; gEledoradoGoldenGreatDragonRegenTime
?g_bCheckSpeedHack@@3HA DD 01H				; g_bCheckSpeedHack
?szGameServerVersion@@3PADA DB '1.00.90', 00H		; szGameServerVersion
	ORG $+4
?g_szMapName@@3PAY0CA@DA DB 'Lorencia', 00H		; g_szMapName
	ORG $+23
	DB	'Dungeon', 00H
	ORG $+24
	DB	'Devias', 00H
	ORG $+25
	DB	'Noria', 00H
	ORG $+26
	DB	'LostTower', 00H
	ORG $+22
	DB	'Exile', 00H
	ORG $+26
	DB	'Arena', 00H
	ORG $+26
	DB	'Atlans', 00H
	ORG $+25
	DB	'Tarkan', 00H
	ORG $+25
	DB	'Icarus', 00H
	ORG $+25
	DB	'BloodCastle1', 00H
	ORG $+19
	DB	'BloodCastle2', 00H
	ORG $+19
	DB	'BloodCastle3', 00H
	ORG $+19
	DB	'BloodCastle4', 00H
	ORG $+19
	DB	'BloodCastle5', 00H
	ORG $+19
	DB	'BloodCastle6', 00H
	ORG $+19
	DB	'BloodCastle7', 00H
	ORG $+19
	ORG $+2112
?szClientVersion@@3PADA DB '000000', 00H		; szClientVersion
	ORG $+1
?bCanTrade@@3HA DD 01H					; bCanTrade
?bCanChaosBox@@3HA DD 01H				; bCanChaosBox
?bCanWarehouseLock@@3HA DD 01H				; bCanWarehouseLock
?gEnableBattleSoccer@@3HA DD 01H			; gEnableBattleSoccer
?MapMinUserLevel@@3PAHA DD 00H				; MapMinUserLevel
	DD	014H
	DD	0fH
	DD	0aH
	DD	050H
	DD	00H
	DD	00H
	DD	03cH
	DD	082H
	DD	00H
	DD	0a0H
	DD	0aH
	DD	024H
	DD	050H
	DD	082H
	DD	0aaH
	DD	0d2H
	DD	0136H
	DD	0fH
	DD	01eH
	DD	064H
	DD	0a0H
	DD	0dcH
	DD	0118H
	DD	0fH
	DD	032H
	DD	078H
	DD	0b4H
	DD	0f0H
	DD	012cH
	DD	0aH
	DD	0aH
	DD	00H
	DD	00H
	DD	00H
	ORG $+192
?gLootingTime@@3HA DD 03H				; gLootingTime
?gPkItemDrop@@3HA DD 01H				; gPkItemDrop
?gItemDropPer@@3HA DD 0aH				; gItemDropPer
?gEvent1ItemDropTodayMax@@3HA DD 01H			; gEvent1ItemDropTodayMax
?gEvent1ItemDropTodayPercent@@3HA DD 050H		; gEvent1ItemDropTodayPercent
?gCountryName@@3PADA DB 'Kor', 00H			; gCountryName
	ORG $+16
?gCharacterDeleteMinLevel@@3HA DD 028H			; gCharacterDeleteMinLevel
?gCreateCharacter@@3HA DD 01H				; gCreateCharacter
?gGuildCreate@@3HA DD 01H				; gGuildCreate
?gGuildDestroy@@3HA DD 01H				; gGuildDestroy
?gGuildCreateLevel@@3HA DD 064H				; gGuildCreateLevel
?gItemSerialCheck@@3HA DD 01H				; gItemSerialCheck
?gAddExperience@@3MA DD 03f800000r		; 1	; gAddExperience
?gAddZen@@3MA DD 03f800000r			; 1	; gAddZen
?g_XMasEvent_StarOfXMasDropRate@@3HA DD 050H		; g_XMasEvent_StarOfXMasDropRate
?g_XMasEvent_ItemDropRateForStarOfXMas@@3HA DD 02H	; g_XMasEvent_ItemDropRateForStarOfXMas
?gFireCrackerDropRate@@3HA DD 050H			; gFireCrackerDropRate
?g_ItemDropRateForgFireCracker@@3HA DD 02H		; g_ItemDropRateForgFireCracker
?gHeartOfLoveDropRate@@3HA DD 050H			; gHeartOfLoveDropRate
?g_ItemDropRateForgHeartOfLove@@3HA DD 02H		; g_ItemDropRateForgHeartOfLove
?gGoldMedalDropRate@@3HA DD 02H				; gGoldMedalDropRate
?gSilverMedalDropRate@@3HA DD 02H			; gSilverMedalDropRate
?g_ItemDropRateForGoldMedal@@3HA DD 02H			; g_ItemDropRateForGoldMedal
?g_ItemDropRateForSilverMedal@@3HA DD 02H		; g_ItemDropRateForSilverMedal
?gBoxOfGoldDropRate@@3HA DD 02H				; gBoxOfGoldDropRate
?g_ItemDropRateForBoxOfGold@@3HA DD 02H			; g_ItemDropRateForBoxOfGold
?g_EventChipDropRateForBoxOfGold@@3HA DD 02H		; g_EventChipDropRateForBoxOfGold
?gEyesOfDevilSquareDropRate@@3HA DD 02H			; gEyesOfDevilSquareDropRate
?gKeyOfDevilSquareDropRate@@3HA DD 02H			; gKeyOfDevilSquareDropRate
?gDQChaosSuccessRateLevel1@@3HA DD 04bH			; gDQChaosSuccessRateLevel1
?gDQChaosSuccessRateLevel2@@3HA DD 046H			; gDQChaosSuccessRateLevel2
?gDQChaosSuccessRateLevel3@@3HA DD 041H			; gDQChaosSuccessRateLevel3
?gDQChaosSuccessRateLevel4@@3HA DD 03cH			; gDQChaosSuccessRateLevel4
?gDQChaosSuccessRateLevel5@@3HA DD 037H			; gDQChaosSuccessRateLevel5
?gDQChaosSuccessRateLevel6@@3HA DD 032H			; gDQChaosSuccessRateLevel6
?gDQChaosSuccessRateLevel7@@3HA DD 02dH			; gDQChaosSuccessRateLevel7
?g_bBloodCastle@@3HA DD 01H				; g_bBloodCastle
?g_iBloodCastle_StartHour@@3HA DD 01H			; g_iBloodCastle_StartHour
?g_iStoneDropRate@@3HA DD 03cH				; g_iStoneDropRate
?g_iAngelKingsPaperDropRate@@3HA DD 0aH			; g_iAngelKingsPaperDropRate
?g_iBloodBoneDropRate@@3HA DD 014H			; g_iBloodBoneDropRate
?g_bChaosCastle@@3HA DD 01H				; g_bChaosCastle
?gAttackSpeedTimeLimit@@3KA DD 082H			; gAttackSpeedTimeLimit
?gHackCheckCount@@3KA DD 05H				; gHackCheckCount
?gDecTimePerAttackSpeed@@3MA DD 040aa8f5cr	; 5.33	; gDecTimePerAttackSpeed
?gMinimumAttackSpeedTime@@3HA DD 08H			; gMinimumAttackSpeedTime
?gDetectedHackKickCount@@3HA DD 0aH			; gDetectedHackKickCount
?gTamaJJangKeepTime@@3HA DD 064H			; gTamaJJangKeepTime
?gTamaJJangDisappearTime@@3HA DD 0708H			; gTamaJJangDisappearTime
?gTamaJJangDisappearTimeRandomRange@@3HA DD 03e8H	; gTamaJJangDisappearTimeRandomRange
?gItemDropRingOfTransform@@3HA DD 01H			; gItemDropRingOfTransform
?gQuestNPCTeleportTime@@3HA DD 03cH			; gQuestNPCTeleportTime
?gEledoradoGoldGoblenRegenTime@@3KA DD 03cH		; gEledoradoGoldGoblenRegenTime
?gEledoradoTitanRegenTime@@3KA DD 03cH			; gEledoradoTitanRegenTime
?gEledoradoGoldDerconRegenTime@@3KA DD 03cH		; gEledoradoGoldDerconRegenTime
?gEledoradoDevilLizardKingRegenTime@@3KA DD 03cH	; gEledoradoDevilLizardKingRegenTime
?gEledoradoDevilTantarosRegenTime@@3KA DD 03cH		; gEledoradoDevilTantarosRegenTime
?gZenDurationTime@@3HA DD 01eH				; gZenDurationTime
?gMonsterHPAdjust@@3HA DD 064H				; gMonsterHPAdjust
?gEnableCheckPenetrationSkill@@3HA DD 01H		; gEnableCheckPenetrationSkill
?g_iCastleItemMixLimit@@3HA DD 01H			; g_iCastleItemMixLimit
?gSilverMedalDropLevelMonsterMin@@3HA DD 01H		; gSilverMedalDropLevelMonsterMin
?gSilverMedalDropLevelMonsterMax@@3HA DD 01H		; gSilverMedalDropLevelMonsterMax
?gGoldMedalDropLevelMonsterMin@@3HA DD 01H		; gGoldMedalDropLevelMonsterMin
?gGoldMedalDropLevelMonsterMax@@3HA DD 01H		; gGoldMedalDropLevelMonsterMax
?gSelectServerSecondCount@@3HA DD 06H			; gSelectServerSecondCount
?gSwitchCharacterSecondCount@@3HA DD 06H		; gSwitchCharacterSecondCount
_DATA	ENDS
PUBLIC	?set@PBMSG_HEAD@@QAEXPAEEE@Z			; PBMSG_HEAD::set
; Function compile flags: /Ogtp
; File e:\work\tranet_version\gs\include\prodef.h
;	COMDAT ?set@PBMSG_HEAD@@QAEXPAEEE@Z
_TEXT	SEGMENT
_lpBuf$ = 8						; size = 4
_head$ = 12						; size = 1
_size$ = 16						; size = 1
?set@PBMSG_HEAD@@QAEXPAEEE@Z PROC			; PBMSG_HEAD::set, COMDAT
; _this$ = ecx

; 80   : 	{

  00000	55		 push	 ebp
  00001	8b ec		 mov	 ebp, esp

; 81   : 		lpBuf[0] = 0xC1;

  00003	8b 45 08	 mov	 eax, DWORD PTR _lpBuf$[ebp]

; 82   : 		lpBuf[1] = size;

  00006	8a 4d 10	 mov	 cl, BYTE PTR _size$[ebp]

; 83   : 		lpBuf[2] = head;

  00009	8a 55 0c	 mov	 dl, BYTE PTR _head$[ebp]
  0000c	c6 00 c1	 mov	 BYTE PTR [eax], 193	; 000000c1H
  0000f	88 48 01	 mov	 BYTE PTR [eax+1], cl
  00012	88 50 02	 mov	 BYTE PTR [eax+2], dl

; 84   : 	};	// line : 22

  00015	5d		 pop	 ebp
  00016	c2 0c 00	 ret	 12			; 0000000cH
?set@PBMSG_HEAD@@QAEXPAEEE@Z ENDP			; PBMSG_HEAD::set
_TEXT	ENDS
PUBLIC	??_H@YGXPAXIHP6EPAX0@Z@Z			; `vector constructor iterator'
; Function compile flags: /Ogtp
;	COMDAT ??_H@YGXPAXIHP6EPAX0@Z@Z
_TEXT	SEGMENT
___t$ = 8						; size = 4
___s$ = 12						; size = 4
___n$ = 16						; size = 4
___f$ = 20						; size = 4
??_H@YGXPAXIHP6EPAX0@Z@Z PROC				; `vector constructor iterator', COMDAT
  00000	55		 push	 ebp
  00001	8b ec		 mov	 ebp, esp
  00003	57		 push	 edi
  00004	8b 7d 10	 mov	 edi, DWORD PTR ___n$[ebp]
  00007	4f		 dec	 edi
  00008	78 14		 js	 SHORT $LN1@vector
  0000a	53		 push	 ebx
  0000b	8b 5d 14	 mov	 ebx, DWORD PTR ___f$[ebp]
  0000e	56		 push	 esi
  0000f	8b 75 08	 mov	 esi, DWORD PTR ___t$[ebp]
$LL2@vector:
  00012	8b ce		 mov	 ecx, esi
  00014	ff d3		 call	 ebx
  00016	03 75 0c	 add	 esi, DWORD PTR ___s$[ebp]
  00019	4f		 dec	 edi
  0001a	79 f6		 jns	 SHORT $LL2@vector
  0001c	5e		 pop	 esi
  0001d	5b		 pop	 ebx
$LN1@vector:
  0001e	5f		 pop	 edi
  0001f	5d		 pop	 ebp
  00020	c2 10 00	 ret	 16			; 00000010H
??_H@YGXPAXIHP6EPAX0@Z@Z ENDP				; `vector constructor iterator'
_TEXT	ENDS
PUBLIC	?SetDataLoadState@CCastleSiege@@QAEXH@Z		; CCastleSiege::SetDataLoadState
; Function compile flags: /Ogtp
; File e:\work\tranet_version\gs\gameserver\castlesiege.h
;	COMDAT ?SetDataLoadState@CCastleSiege@@QAEXH@Z
_TEXT	SEGMENT
_iDataLoadState$ = 8					; size = 4
?SetDataLoadState@CCastleSiege@@QAEXH@Z PROC		; CCastleSiege::SetDataLoadState, COMDAT
; _this$ = ecx

; 283  : 	void SetDataLoadState(int iDataLoadState){m_iCastleDataLoadState = iDataLoadState;}

  00000	55		 push	 ebp
  00001	8b ec		 mov	 ebp, esp
  00003	8b 45 08	 mov	 eax, DWORD PTR _iDataLoadState$[ebp]
  00006	89 41 1c	 mov	 DWORD PTR [ecx+28], eax
  00009	5d		 pop	 ebp
  0000a	c2 04 00	 ret	 4
?SetDataLoadState@CCastleSiege@@QAEXH@Z ENDP		; CCastleSiege::SetDataLoadState
_TEXT	ENDS
PUBLIC	?SetCrownIndex@CCastleSiege@@QAEXH@Z		; CCastleSiege::SetCrownIndex
; Function compile flags: /Ogtp
;	COMDAT ?SetCrownIndex@CCastleSiege@@QAEXH@Z
_TEXT	SEGMENT
_iIndex$ = 8						; size = 4
?SetCrownIndex@CCastleSiege@@QAEXH@Z PROC		; CCastleSiege::SetCrownIndex, COMDAT
; _this$ = ecx

; 345  : 	void SetCrownIndex(int iIndex){m_iCrownIndex = iIndex;}

  00000	55		 push	 ebp
  00001	8b ec		 mov	 ebp, esp
  00003	8b 45 08	 mov	 eax, DWORD PTR _iIndex$[ebp]
  00006	89 81 ec 01 00
	00		 mov	 DWORD PTR [ecx+492], eax
  0000c	5d		 pop	 ebp
  0000d	c2 04 00	 ret	 4
?SetCrownIndex@CCastleSiege@@QAEXH@Z ENDP		; CCastleSiege::SetCrownIndex
_TEXT	ENDS
EXTRN	__localtime64:PROC
; Function compile flags: /Ogtp
; File d:\program files (x86)\microsoft visual studio 10.0\vc\include\time.inl
;	COMDAT _localtime
_TEXT	SEGMENT
_localtime PROC						; COMDAT
; __Time$ = eax

; 114  : #pragma warning( push )
; 115  : #pragma warning( disable : 4996 )
; 116  :     return _localtime64(_Time);

  00000	50		 push	 eax
  00001	e8 00 00 00 00	 call	 __localtime64
  00006	83 c4 04	 add	 esp, 4

; 117  : #pragma warning( pop )
; 118  : }

  00009	c3		 ret	 0
_localtime ENDP
_TEXT	ENDS
EXTRN	__time64:PROC
; Function compile flags: /Ogtp
;	COMDAT _time
_TEXT	SEGMENT
_time	PROC						; COMDAT
; __Time$ = eax

; 133  :     return _time64(_Time);

  00000	50		 push	 eax
  00001	e8 00 00 00 00	 call	 __time64
  00006	83 c4 04	 add	 esp, 4

; 134  : }

  00009	c3		 ret	 0
_time	ENDP
_TEXT	ENDS
PUBLIC	?Reset@CCrywolfObjInfo@@QAEXXZ			; CCrywolfObjInfo::Reset
; Function compile flags: /Ogtp
; File e:\work\tranet_version\gs\gameserver\crywolfobjinfo.h
;	COMDAT ?Reset@CCrywolfObjInfo@@QAEXXZ
_TEXT	SEGMENT
?Reset@CCrywolfObjInfo@@QAEXXZ PROC			; CCrywolfObjInfo::Reset, COMDAT
; _this$ = ecx

; 26   : 	{

  00000	8b d1		 mov	 edx, ecx
  00002	57		 push	 edi

; 27   : 		for ( int i=0;i<MAX_CRYWOLF_OBJ_INFO;i++)

  00003	8d 7a 04	 lea	 edi, DWORD PTR [edx+4]

; 28   : 		{
; 29   : 			this->m_iObjIndex[i] = -1;

  00006	b9 2c 01 00 00	 mov	 ecx, 300		; 0000012cH
  0000b	83 c8 ff	 or	 eax, -1
  0000e	f3 ab		 rep stosd

; 30   : 		}
; 31   : 
; 32   : 		this->m_iObjCount = 0;

  00010	c7 02 00 00 00
	00		 mov	 DWORD PTR [edx], 0
  00016	5f		 pop	 edi

; 33   : 	}

  00017	c3		 ret	 0
?Reset@CCrywolfObjInfo@@QAEXXZ ENDP			; CCrywolfObjInfo::Reset
_TEXT	ENDS
PUBLIC	?AddObj@CCrywolfObjInfo@@QAEHH@Z		; CCrywolfObjInfo::AddObj
; Function compile flags: /Ogtp
;	COMDAT ?AddObj@CCrywolfObjInfo@@QAEHH@Z
_TEXT	SEGMENT
_iIndex$ = 8						; size = 4
?AddObj@CCrywolfObjInfo@@QAEHH@Z PROC			; CCrywolfObjInfo::AddObj, COMDAT
; _this$ = ecx

; 36   : 	{

  00000	55		 push	 ebp
  00001	8b ec		 mov	 ebp, esp

; 37   : 		if ( this->m_iObjCount >= MAX_CRYWOLF_OBJ_INFO )

  00003	8b 01		 mov	 eax, DWORD PTR [ecx]
  00005	3d 2c 01 00 00	 cmp	 eax, 300		; 0000012cH
  0000a	7c 06		 jl	 SHORT $LN1@AddObj

; 38   : 		{
; 39   : 			return FALSE;

  0000c	33 c0		 xor	 eax, eax

; 46   : 	}

  0000e	5d		 pop	 ebp
  0000f	c2 04 00	 ret	 4
$LN1@AddObj:

; 40   : 		}
; 41   : 
; 42   : 		this->m_iObjIndex[this->m_iObjCount] = iIndex;

  00012	8b 55 08	 mov	 edx, DWORD PTR _iIndex$[ebp]
  00015	89 54 81 04	 mov	 DWORD PTR [ecx+eax*4+4], edx

; 43   : 		this->m_iObjCount++;

  00019	ff 01		 inc	 DWORD PTR [ecx]

; 44   : 		
; 45   : 		return TRUE;

  0001b	b8 01 00 00 00	 mov	 eax, 1

; 46   : 	}

  00020	5d		 pop	 ebp
  00021	c2 04 00	 ret	 4
?AddObj@CCrywolfObjInfo@@QAEHH@Z ENDP			; CCrywolfObjInfo::AddObj
_TEXT	ENDS
PUBLIC	?GetMapSvrGroup@CMapServerManager@@QAEHXZ	; CMapServerManager::GetMapSvrGroup
; Function compile flags: /Ogtp
; File e:\work\tranet_version\gs\gameserver\mapservermanager.h
;	COMDAT ?GetMapSvrGroup@CMapServerManager@@QAEHXZ
_TEXT	SEGMENT
?GetMapSvrGroup@CMapServerManager@@QAEHXZ PROC		; CMapServerManager::GetMapSvrGroup, COMDAT
; _this$ = ecx

; 50   : 		if ( this->m_lpThisMapSvrData != NULL )

  00000	8b 81 c0 32 01
	00		 mov	 eax, DWORD PTR [ecx+78528]
  00006	85 c0		 test	 eax, eax
  00008	74 05		 je	 SHORT $LN1@GetMapSvrG

; 51   : 		{
; 52   : 			return m_lpThisMapSvrData->m_btMAPSVR_GROUP;

  0000a	0f b6 40 08	 movzx	 eax, BYTE PTR [eax+8]

; 55   : 	}

  0000e	c3		 ret	 0
$LN1@GetMapSvrG:

; 53   : 		}
; 54   : 		return -1;

  0000f	83 c8 ff	 or	 eax, -1

; 55   : 	}

  00012	c3		 ret	 0
?GetMapSvrGroup@CMapServerManager@@QAEHXZ ENDP		; CMapServerManager::GetMapSvrGroup
_TEXT	ENDS
PUBLIC	?SetKanturuEnable@CKanturu@@QAEXH@Z		; CKanturu::SetKanturuEnable
; Function compile flags: /Ogtp
; File e:\work\tranet_version\gs\gameserver\kanturu.h
;	COMDAT ?SetKanturuEnable@CKanturu@@QAEXH@Z
_TEXT	SEGMENT
_bEnable$ = 8						; size = 4
?SetKanturuEnable@CKanturu@@QAEXH@Z PROC		; CKanturu::SetKanturuEnable, COMDAT
; _this$ = ecx

; 68   : 	void SetKanturuEnable(BOOL bEnable){this->m_bKanturuEnable = bEnable;}

  00000	55		 push	 ebp
  00001	8b ec		 mov	 ebp, esp
  00003	8b 45 08	 mov	 eax, DWORD PTR _bEnable$[ebp]
  00006	89 41 04	 mov	 DWORD PTR [ecx+4], eax
  00009	5d		 pop	 ebp
  0000a	c2 04 00	 ret	 4
?SetKanturuEnable@CKanturu@@QAEXH@Z ENDP		; CKanturu::SetKanturuEnable
_TEXT	ENDS
PUBLIC	?gSetDate@@YAXXZ				; gSetDate
; Function compile flags: /Ogtp
; File e:\work\tranet_version\gs\gameserver\gamemain.cpp
;	COMDAT ?gSetDate@@YAXXZ
_TEXT	SEGMENT
_ltime$ = -8						; size = 8
?gSetDate@@YAXXZ PROC					; gSetDate, COMDAT

; 744  : {

  00000	55		 push	 ebp
  00001	8b ec		 mov	 ebp, esp

; 745  : 	tm *today;
; 746  : 	time_t ltime;
; 747  : 
; 748  : 	time(&ltime);

  00003	8d 45 f8	 lea	 eax, DWORD PTR _ltime$[ebp]
  00006	83 ec 08	 sub	 esp, 8
  00009	50		 push	 eax
  0000a	e8 00 00 00 00	 call	 __time64

; 749  : 	today=localtime(&ltime);

  0000f	8d 4d f8	 lea	 ecx, DWORD PTR _ltime$[ebp]
  00012	51		 push	 ecx
  00013	e8 00 00 00 00	 call	 __localtime64
  00018	83 c4 08	 add	 esp, 8

; 750  : 	
; 751  : 	today->tm_year=today->tm_year+1900;

  0001b	81 40 14 6c 07
	00 00		 add	 DWORD PTR [eax+20], 1900 ; 0000076cH
  00022	8b 40 14	 mov	 eax, DWORD PTR [eax+20]

; 752  : 	gYear=today->tm_year;

  00025	a3 00 00 00 00	 mov	 DWORD PTR ?gYear@@3HA, eax ; gYear

; 753  : }

  0002a	8b e5		 mov	 esp, ebp
  0002c	5d		 pop	 ebp
  0002d	c3		 ret	 0
?gSetDate@@YAXXZ ENDP					; gSetDate
_TEXT	ENDS
PUBLIC	?gJoomin15Check@@YAHPAD@Z			; gJoomin15Check
EXTRN	_atoi:PROC
; Function compile flags: /Ogtp
;	COMDAT ?gJoomin15Check@@YAHPAD@Z
_TEXT	SEGMENT
_szTyear$ = -4						; size = 3
_szJN$ = 8						; size = 4
?gJoomin15Check@@YAHPAD@Z PROC				; gJoomin15Check, COMDAT

; 757  : {

  00000	55		 push	 ebp
  00001	8b ec		 mov	 ebp, esp
  00003	51		 push	 ecx

; 758  : 	int tyear=1900;
; 759  : 	char szTyear[3]="";
; 760  : 	
; 761  : 	if ( szJN[6] == 51 || szJN[6] == 52)

  00004	8b 4d 08	 mov	 ecx, DWORD PTR _szJN$[ebp]
  00007	33 c0		 xor	 eax, eax
  00009	66 89 45 fd	 mov	 WORD PTR _szTyear$[ebp+1], ax
  0000d	8a 41 06	 mov	 al, BYTE PTR [ecx+6]
  00010	56		 push	 esi
  00011	be 6c 07 00 00	 mov	 esi, 1900		; 0000076cH
  00016	3c 33		 cmp	 al, 51			; 00000033H
  00018	74 04		 je	 SHORT $LN2@gJoomin15C
  0001a	3c 34		 cmp	 al, 52			; 00000034H
  0001c	75 05		 jne	 SHORT $LN3@gJoomin15C
$LN2@gJoomin15C:

; 762  : 	{
; 763  : 		tyear = 2000;

  0001e	be d0 07 00 00	 mov	 esi, 2000		; 000007d0H
$LN3@gJoomin15C:

; 764  : 	}
; 765  : 
; 766  : 	memcpy(&szTyear[0], szJN, sizeof(szTyear)-1);

  00023	66 8b 09	 mov	 cx, WORD PTR [ecx]

; 767  : 
; 768  : 	tyear=tyear+atoi(&szTyear[0]);

  00026	8d 55 fc	 lea	 edx, DWORD PTR _szTyear$[ebp]
  00029	52		 push	 edx
  0002a	66 89 4d fc	 mov	 WORD PTR _szTyear$[ebp], cx
  0002e	e8 00 00 00 00	 call	 _atoi
  00033	03 f0		 add	 esi, eax

; 769  : 	if ( (gYear-15 ) < tyear )

  00035	a1 00 00 00 00	 mov	 eax, DWORD PTR ?gYear@@3HA ; gYear
  0003a	83 c0 f1	 add	 eax, -15		; fffffff1H
  0003d	33 c9		 xor	 ecx, ecx
  0003f	83 c4 04	 add	 esp, 4
  00042	3b c6		 cmp	 eax, esi
  00044	0f 9d c1	 setge	 cl
  00047	5e		 pop	 esi
  00048	8b c1		 mov	 eax, ecx

; 770  : 	{
; 771  : 		return 0;
; 772  : 	}
; 773  : 	return 1;
; 774  : }

  0004a	8b e5		 mov	 esp, ebp
  0004c	5d		 pop	 ebp
  0004d	c3		 ret	 0
?gJoomin15Check@@YAHPAD@Z ENDP				; gJoomin15Check
_TEXT	ENDS
PUBLIC	?gJoominCheck@@YAHPADH@Z			; gJoominCheck
; Function compile flags: /Ogtp
;	COMDAT ?gJoominCheck@@YAHPADH@Z
_TEXT	SEGMENT
_szJN$ = 8						; size = 4
_szTyear$ = 12						; size = 3
_iLimitAge$ = 12					; size = 4
?gJoominCheck@@YAHPADH@Z PROC				; gJoominCheck, COMDAT

; 778  : {

  00000	55		 push	 ebp
  00001	8b ec		 mov	 ebp, esp
  00003	57		 push	 edi

; 779  : 
; 780  : 	if ( iLimitAge <0 )

  00004	8b 7d 0c	 mov	 edi, DWORD PTR _iLimitAge$[ebp]
  00007	85 ff		 test	 edi, edi
  00009	79 08		 jns	 SHORT $LN4@gJoominChe

; 781  : 	{
; 782  : 		return 1;

  0000b	b8 01 00 00 00	 mov	 eax, 1
  00010	5f		 pop	 edi

; 797  : 	{
; 798  : 		return 0;
; 799  : 	}
; 800  : 	
; 801  : 	return 1;
; 802  : }	

  00011	5d		 pop	 ebp
  00012	c3		 ret	 0
$LN4@gJoominChe:

; 783  : 	}
; 784  : 
; 785  : 	int tyear=1900;
; 786  : 	char szTyear[3]="";
; 787  : 
; 788  : 	if ( szJN[6] == 51 || szJN[6] == 52)

  00013	8b 4d 08	 mov	 ecx, DWORD PTR _szJN$[ebp]
  00016	33 c0		 xor	 eax, eax
  00018	66 89 45 0d	 mov	 WORD PTR _szTyear$[ebp+1], ax
  0001c	8a 41 06	 mov	 al, BYTE PTR [ecx+6]
  0001f	56		 push	 esi
  00020	be 6c 07 00 00	 mov	 esi, 1900		; 0000076cH
  00025	3c 33		 cmp	 al, 51			; 00000033H
  00027	74 04		 je	 SHORT $LN2@gJoominChe
  00029	3c 34		 cmp	 al, 52			; 00000034H
  0002b	75 05		 jne	 SHORT $LN3@gJoominChe
$LN2@gJoominChe:

; 789  : 	{
; 790  : 		tyear = 2000;

  0002d	be d0 07 00 00	 mov	 esi, 2000		; 000007d0H
$LN3@gJoominChe:

; 791  : 	}
; 792  : 
; 793  : 	memcpy(&szTyear[0], szJN, sizeof(szTyear)-1);

  00032	66 8b 09	 mov	 cx, WORD PTR [ecx]

; 794  : 
; 795  : 	tyear=tyear+atoi(&szTyear[0]);

  00035	8d 55 0c	 lea	 edx, DWORD PTR _szTyear$[ebp]
  00038	52		 push	 edx
  00039	66 89 4d 0c	 mov	 WORD PTR _szTyear$[ebp], cx
  0003d	e8 00 00 00 00	 call	 _atoi
  00042	03 f0		 add	 esi, eax

; 796  : 	if ( (gYear-iLimitAge ) < tyear )

  00044	a1 00 00 00 00	 mov	 eax, DWORD PTR ?gYear@@3HA ; gYear
  00049	2b c7		 sub	 eax, edi
  0004b	83 c4 04	 add	 esp, 4
  0004e	33 c9		 xor	 ecx, ecx
  00050	3b c6		 cmp	 eax, esi
  00052	0f 9d c1	 setge	 cl
  00055	5e		 pop	 esi
  00056	5f		 pop	 edi
  00057	8b c1		 mov	 eax, ecx

; 797  : 	{
; 798  : 		return 0;
; 799  : 	}
; 800  : 	
; 801  : 	return 1;
; 802  : }	

  00059	5d		 pop	 ebp
  0005a	c3		 ret	 0
?gJoominCheck@@YAHPADH@Z ENDP				; gJoominCheck
_TEXT	ENDS
PUBLIC	__real@3fd999999999999a
PUBLIC	__real@3fb999999999999a
PUBLIC	?GetWarehouseUsedHowMuch@@YAHHHH@Z		; GetWarehouseUsedHowMuch
EXTRN	__fltused:DWORD
EXTRN	__ftol2_sse:PROC
;	COMDAT __real@3fd999999999999a
CONST	SEGMENT
__real@3fd999999999999a DQ 03fd999999999999ar	; 0.4
CONST	ENDS
;	COMDAT __real@3fb999999999999a
CONST	SEGMENT
__real@3fb999999999999a DQ 03fb999999999999ar	; 0.1
; Function compile flags: /Ogtp
CONST	ENDS
;	COMDAT ?GetWarehouseUsedHowMuch@@YAHHHH@Z
_TEXT	SEGMENT
tv140 = 8						; size = 4
_UserLevel$ = 8						; size = 4
_MasterLevel$ = 12					; size = 4
_IsLock$ = 16						; size = 4
?GetWarehouseUsedHowMuch@@YAHHHH@Z PROC			; GetWarehouseUsedHowMuch, COMDAT

; 1107 : {

  00000	55		 push	 ebp
  00001	8b ec		 mov	 ebp, esp

; 1108 : 	int rZen=0;
; 1109 : 
; 1110 : 	int iBaseLevel = UserLevel+MasterLevel;

  00003	8b 45 0c	 mov	 eax, DWORD PTR _MasterLevel$[ebp]
  00006	56		 push	 esi
  00007	8b 75 08	 mov	 esi, DWORD PTR _UserLevel$[ebp]
  0000a	03 c6		 add	 eax, esi

; 1111 : 
; 1112 : 	rZen = (int)((iBaseLevel * iBaseLevel)* 0.1 * 0.4);

  0000c	0f af c0	 imul	 eax, eax
  0000f	89 45 08	 mov	 DWORD PTR tv140[ebp], eax
  00012	db 45 08	 fild	 DWORD PTR tv140[ebp]
  00015	dc 0d 00 00 00
	00		 fmul	 QWORD PTR __real@3fb999999999999a
  0001b	dc 0d 00 00 00
	00		 fmul	 QWORD PTR __real@3fd999999999999a
  00021	e8 00 00 00 00	 call	 __ftol2_sse

; 1113 : 
; 1114 : 	if (bCanWarehouseLock == TRUE)

  00026	83 3d 00 00 00
	00 01		 cmp	 DWORD PTR ?bCanWarehouseLock@@3HA, 1 ; bCanWarehouseLock
  0002d	8b c8		 mov	 ecx, eax
  0002f	75 09		 jne	 SHORT $LN6@GetWarehou

; 1115 : 	{
; 1116 : 		if ( IsLock != 0)

  00031	83 7d 10 00	 cmp	 DWORD PTR _IsLock$[ebp], 0
  00035	74 03		 je	 SHORT $LN6@GetWarehou

; 1117 : 		{
; 1118 : 			rZen = rZen + ( UserLevel * 2 );

  00037	8d 0c 71	 lea	 ecx, DWORD PTR [ecx+esi*2]
$LN6@GetWarehou:
  0003a	5e		 pop	 esi

; 1119 : 		}
; 1120 : 	}
; 1121 : 	if ( rZen < 1 )

  0003b	83 f9 01	 cmp	 ecx, 1
  0003e	7d 07		 jge	 SHORT $LN5@GetWarehou

; 1122 : 	{
; 1123 : 		rZen=1;

  00040	b8 01 00 00 00	 mov	 eax, 1

; 1142 : }

  00045	5d		 pop	 ebp
  00046	c3		 ret	 0
$LN5@GetWarehou:

; 1124 : 	}
; 1125 : 
; 1126 : 	if ( rZen >= 1000 )

  00047	81 f9 e8 03 00
	00		 cmp	 ecx, 1000		; 000003e8H
  0004d	7c 16		 jl	 SHORT $LN4@GetWarehou

; 1127 : 	{
; 1128 : 		rZen = (rZen/100)*100;

  0004f	b8 1f 85 eb 51	 mov	 eax, 1374389535		; 51eb851fH
  00054	f7 e9		 imul	 ecx
  00056	c1 fa 05	 sar	 edx, 5
  00059	8b ca		 mov	 ecx, edx
  0005b	c1 e9 1f	 shr	 ecx, 31			; 0000001fH
  0005e	03 ca		 add	 ecx, edx
  00060	6b c9 64	 imul	 ecx, 100		; 00000064H
  00063	eb 1b		 jmp	 SHORT $LN2@GetWarehou
$LN4@GetWarehou:

; 1129 : 	}
; 1130 : 	
; 1131 : 	else if ( rZen >= 100 )

  00065	83 f9 64	 cmp	 ecx, 100		; 00000064H
  00068	7c 16		 jl	 SHORT $LN2@GetWarehou

; 1132 : 	{
; 1133 : 		rZen = (rZen/10)*10;

  0006a	b8 67 66 66 66	 mov	 eax, 1717986919		; 66666667H
  0006f	f7 e9		 imul	 ecx
  00071	c1 fa 02	 sar	 edx, 2
  00074	8b c2		 mov	 eax, edx
  00076	c1 e8 1f	 shr	 eax, 31			; 0000001fH
  00079	03 c2		 add	 eax, edx
  0007b	8d 0c 80	 lea	 ecx, DWORD PTR [eax+eax*4]
  0007e	03 c9		 add	 ecx, ecx
$LN2@GetWarehou:

; 1134 : 	}
; 1135 : 	
; 1136 : 	if ( rZen == 0 )
; 1137 : 	{
; 1138 : 		rZen=1;

  00080	b8 01 00 00 00	 mov	 eax, 1
  00085	85 c9		 test	 ecx, ecx
  00087	74 02		 je	 SHORT $LN1@GetWarehou

; 1139 : 	}
; 1140 : 	
; 1141 : 	return rZen;

  00089	8b c1		 mov	 eax, ecx
$LN1@GetWarehou:

; 1142 : }

  0008b	5d		 pop	 ebp
  0008c	c3		 ret	 0
?GetWarehouseUsedHowMuch@@YAHHHH@Z ENDP			; GetWarehouseUsedHowMuch
_TEXT	ENDS
PUBLIC	__real@4024000000000000
PUBLIC	_hWnd$GSCopy$
PUBLIC	__$ArrayPad$
PUBLIC	?GraphPaint@@YAXPAUHWND__@@@Z			; GraphPaint
EXTRN	__imp__DeleteObject@4:PROC
EXTRN	__imp__ReleaseDC@8:PROC
EXTRN	__imp__FillRect@12:PROC
EXTRN	__imp__CreateSolidBrush@4:PROC
EXTRN	__imp__GetDC@4:PROC
EXTRN	___security_cookie:DWORD
EXTRN	@__security_check_cookie@4:PROC
;	COMDAT __real@4024000000000000
CONST	SEGMENT
__real@4024000000000000 DQ 04024000000000000r	; 10
; Function compile flags: /Ogtp
CONST	ENDS
;	COMDAT ?GraphPaint@@YAXPAUHWND__@@@Z
_TEXT	SEGMENT
tv573 = -100						; size = 4
_hWnd$GSCopy$ = -96					; size = 4
tv469 = -92						; size = 4
_colBrush$ = -88					; size = 16
_hdc$ = -72						; size = 4
tv346 = -68						; size = 4
tv474 = -64						; size = 4
_rect$ = -60						; size = 16
_val$ = -44						; size = 40
__$ArrayPad$ = -4					; size = 4
_hWnd$ = 8						; size = 4
?GraphPaint@@YAXPAUHWND__@@@Z PROC			; GraphPaint, COMDAT

; 1146 : {

  00000	55		 push	 ebp
  00001	8b ec		 mov	 ebp, esp
  00003	83 ec 64	 sub	 esp, 100		; 00000064H
  00006	a1 00 00 00 00	 mov	 eax, DWORD PTR ___security_cookie
  0000b	33 c5		 xor	 eax, ebp
  0000d	89 45 fc	 mov	 DWORD PTR __$ArrayPad$[ebp], eax
  00010	8b 45 08	 mov	 eax, DWORD PTR _hWnd$[ebp]
  00013	53		 push	 ebx
  00014	56		 push	 esi
  00015	57		 push	 edi

; 1147 : 	HDC hdc;
; 1148 : 	RECT rect;
; 1149 : 	int val[10];
; 1150 : 	HBRUSH colBrush[4];
; 1151 : 	int n;
; 1152 : 
; 1153 : 	hdc = GetDC(hWnd);

  00016	50		 push	 eax
  00017	89 45 a0	 mov	 DWORD PTR _hWnd$GSCopy$[ebp], eax
  0001a	ff 15 00 00 00
	00		 call	 DWORD PTR __imp__GetDC@4

; 1154 : 
; 1155 : 	colBrush[0]=CreateSolidBrush( RGB(100, 100, 100));

  00020	8b 35 00 00 00
	00		 mov	 esi, DWORD PTR __imp__CreateSolidBrush@4
  00026	68 64 64 64 00	 push	 6579300			; 00646464H
  0002b	89 45 b8	 mov	 DWORD PTR _hdc$[ebp], eax
  0002e	ff d6		 call	 esi

; 1156 : 	colBrush[1]=CreateSolidBrush( RGB(200, 100, 100));

  00030	68 c8 64 64 00	 push	 6579400			; 006464c8H
  00035	89 45 a8	 mov	 DWORD PTR _colBrush$[ebp], eax
  00038	ff d6		 call	 esi

; 1157 : 	colBrush[2]=CreateSolidBrush( RGB(200, 200, 200));

  0003a	68 c8 c8 c8 00	 push	 13158600		; 00c8c8c8H
  0003f	89 45 ac	 mov	 DWORD PTR _colBrush$[ebp+4], eax
  00042	ff d6		 call	 esi

; 1158 : 	colBrush[3]=CreateSolidBrush( RGB(200, 200, 100));

  00044	68 c8 c8 64 00	 push	 6605000			; 0064c8c8H
  00049	89 45 b0	 mov	 DWORD PTR _colBrush$[ebp+8], eax
  0004c	ff d6		 call	 esi
  0004e	89 45 b4	 mov	 DWORD PTR _colBrush$[ebp+12], eax

; 1159 : 
; 1160 : 	for ( n=0; n<4;n++)

  00051	8d 45 a8	 lea	 eax, DWORD PTR _colBrush$[ebp]

; 1161 : 	{
; 1162 : 		val[0] = DCInfo.DefClass[n].Strength;

  00054	33 db		 xor	 ebx, ebx
  00056	89 45 c0	 mov	 DWORD PTR tv474[ebp], eax
  00059	be 0a 00 00 00	 mov	 esi, OFFSET ?DCInfo@@3Vclassdef@@A+10
  0005e	8b ff		 npad	 2
$LL13@GraphPaint:
  00060	0f b7 4e fe	 movzx	 ecx, WORD PTR [esi-2]
  00064	dd 05 00 00 00
	00		 fld	 QWORD PTR __real@4024000000000000

; 1163 : 		val[1] = DCInfo.DefClass[n].Dexterity ;

  0006a	0f b7 16	 movzx	 edx, WORD PTR [esi]

; 1164 : 		val[2] = DCInfo.DefClass[n].Vitality;
; 1165 : 		val[3] = DCInfo.DefClass[n].Energy;
; 1166 : 		val[4] = (int)DCInfo.DefClass[n].Life ;

  0006d	d9 46 0a	 fld	 DWORD PTR [esi+10]
  00070	0f b7 46 02	 movzx	 eax, WORD PTR [esi+2]
  00074	89 4d d4	 mov	 DWORD PTR _val$[ebp], ecx
  00077	0f b7 4e 04	 movzx	 ecx, WORD PTR [esi+4]
  0007b	89 55 d8	 mov	 DWORD PTR _val$[ebp+4], edx
  0007e	89 45 dc	 mov	 DWORD PTR _val$[ebp+8], eax
  00081	89 4d e0	 mov	 DWORD PTR _val$[ebp+12], ecx
  00084	e8 00 00 00 00	 call	 __ftol2_sse
  00089	89 45 e4	 mov	 DWORD PTR _val$[ebp+16], eax

; 1167 : 		val[5] = (int)DCInfo.DefClass[n].Mana ;

  0008c	d9 46 16	 fld	 DWORD PTR [esi+22]
  0008f	e8 00 00 00 00	 call	 __ftol2_sse

; 1168 : 		val[6] = (int)(DCInfo.DefClass[n].LevelLife * 10.0f);

  00094	d9 46 06	 fld	 DWORD PTR [esi+6]
  00097	89 45 e8	 mov	 DWORD PTR _val$[ebp+20], eax
  0009a	d8 c9		 fmul	 ST(0), ST(1)
  0009c	e8 00 00 00 00	 call	 __ftol2_sse

; 1169 : 		val[7] = (int)(DCInfo.DefClass[n].LevelMana * 10.0f);

  000a1	d9 46 12	 fld	 DWORD PTR [esi+18]
  000a4	d8 c9		 fmul	 ST(0), ST(1)
  000a6	89 45 ec	 mov	 DWORD PTR _val$[ebp+24], eax
  000a9	e8 00 00 00 00	 call	 __ftol2_sse

; 1170 : 		val[8] = (int)(DCInfo.DefClass[n].VitalityToLife * 10.0f);

  000ae	d9 46 1e	 fld	 DWORD PTR [esi+30]
  000b1	d8 c9		 fmul	 ST(0), ST(1)
  000b3	89 45 f0	 mov	 DWORD PTR _val$[ebp+28], eax
  000b6	e8 00 00 00 00	 call	 __ftol2_sse

; 1171 : 		val[9] = (int)(DCInfo.DefClass[n].EnergyToMana * 10.0f);

  000bb	d8 4e 22	 fmul	 DWORD PTR [esi+34]
  000be	89 45 f4	 mov	 DWORD PTR _val$[ebp+32], eax
  000c1	e8 00 00 00 00	 call	 __ftol2_sse

; 1172 : 
; 1173 : 		for (int k=0; k<10;k++)

  000c6	8b 55 c0	 mov	 edx, DWORD PTR tv474[ebp]
  000c9	89 45 f8	 mov	 DWORD PTR _val$[ebp+36], eax
  000cc	8b 02		 mov	 eax, DWORD PTR [edx]
  000ce	89 45 9c	 mov	 DWORD PTR tv573[ebp], eax
  000d1	8d 43 0a	 lea	 eax, DWORD PTR [ebx+10]
  000d4	33 ff		 xor	 edi, edi
  000d6	89 45 a4	 mov	 DWORD PTR tv469[ebp], eax
  000d9	89 45 bc	 mov	 DWORD PTR tv346[ebp], eax
  000dc	8d 64 24 00	 npad	 4
$LL14@GraphPaint:

; 1174 : 		{
; 1175 : 			rect.left = (k * 45) + (n * 10);
; 1176 : 			rect.right = ((k * 45) + (n * 10))+10;

  000e0	8b 4d bc	 mov	 ecx, DWORD PTR tv346[ebp]

; 1177 : 			rect.top = 0;
; 1178 : 			rect.bottom = val[k];
; 1179 : 			FillRect(hdc, &rect, colBrush[n]);

  000e3	8b 45 9c	 mov	 eax, DWORD PTR tv573[ebp]
  000e6	8b 54 bd d4	 mov	 edx, DWORD PTR _val$[ebp+edi*4]
  000ea	89 4d cc	 mov	 DWORD PTR _rect$[ebp+8], ecx
  000ed	50		 push	 eax
  000ee	8d 4d c4	 lea	 ecx, DWORD PTR _rect$[ebp]
  000f1	89 55 d0	 mov	 DWORD PTR _rect$[ebp+12], edx
  000f4	8b 55 b8	 mov	 edx, DWORD PTR _hdc$[ebp]
  000f7	51		 push	 ecx
  000f8	52		 push	 edx
  000f9	89 5d c4	 mov	 DWORD PTR _rect$[ebp], ebx
  000fc	c7 45 c8 00 00
	00 00		 mov	 DWORD PTR _rect$[ebp+4], 0
  00103	ff 15 00 00 00
	00		 call	 DWORD PTR __imp__FillRect@12
  00109	83 45 bc 2d	 add	 DWORD PTR tv346[ebp], 45 ; 0000002dH
  0010d	47		 inc	 edi
  0010e	83 c3 2d	 add	 ebx, 45			; 0000002dH
  00111	83 ff 0a	 cmp	 edi, 10			; 0000000aH
  00114	7c ca		 jl	 SHORT $LL14@GraphPaint

; 1159 : 
; 1160 : 	for ( n=0; n<4;n++)

  00116	83 45 c0 04	 add	 DWORD PTR tv474[ebp], 4
  0011a	8b 5d a4	 mov	 ebx, DWORD PTR tv469[ebp]
  0011d	81 c6 c8 0b 00
	00		 add	 esi, 3016		; 00000bc8H
  00123	81 fe 2a 2f 00
	00		 cmp	 esi, OFFSET ?DCInfo@@3Vclassdef@@A+12074
  00129	0f 8c 31 ff ff
	ff		 jl	 $LL13@GraphPaint

; 1180 : 		}
; 1181 : 	}
; 1182 : 	
; 1183 : 	ReleaseDC(hWnd, hdc);

  0012f	8b 45 b8	 mov	 eax, DWORD PTR _hdc$[ebp]
  00132	8b 4d a0	 mov	 ecx, DWORD PTR _hWnd$GSCopy$[ebp]
  00135	50		 push	 eax
  00136	51		 push	 ecx
  00137	ff 15 00 00 00
	00		 call	 DWORD PTR __imp__ReleaseDC@8

; 1184 : 	DeleteObject( (HGDIOBJ)colBrush[0]);

  0013d	8b 55 a8	 mov	 edx, DWORD PTR _colBrush$[ebp]
  00140	8b 35 00 00 00
	00		 mov	 esi, DWORD PTR __imp__DeleteObject@4
  00146	52		 push	 edx
  00147	ff d6		 call	 esi

; 1185 : 	DeleteObject( (HGDIOBJ)colBrush[1]);

  00149	8b 45 ac	 mov	 eax, DWORD PTR _colBrush$[ebp+4]
  0014c	50		 push	 eax
  0014d	ff d6		 call	 esi

; 1186 : 	DeleteObject( (HGDIOBJ)colBrush[2]);

  0014f	8b 4d b0	 mov	 ecx, DWORD PTR _colBrush$[ebp+8]
  00152	51		 push	 ecx
  00153	ff d6		 call	 esi

; 1187 : 	DeleteObject( (HGDIOBJ)colBrush[3]);

  00155	8b 55 b4	 mov	 edx, DWORD PTR _colBrush$[ebp+12]
  00158	52		 push	 edx
  00159	ff d6		 call	 esi

; 1188 : 	DeleteObject( (HGDIOBJ)val[0]);

  0015b	8b 45 d4	 mov	 eax, DWORD PTR _val$[ebp]
  0015e	50		 push	 eax
  0015f	ff d6		 call	 esi

; 1189 : }

  00161	8b 4d fc	 mov	 ecx, DWORD PTR __$ArrayPad$[ebp]
  00164	5f		 pop	 edi
  00165	5e		 pop	 esi
  00166	33 cd		 xor	 ecx, ebp
  00168	5b		 pop	 ebx
  00169	e8 00 00 00 00	 call	 @__security_check_cookie@4
  0016e	8b e5		 mov	 esp, ebp
  00170	5d		 pop	 ebp
  00171	c3		 ret	 0
?GraphPaint@@YAXPAUHWND__@@@Z ENDP			; GraphPaint
_TEXT	ENDS
PUBLIC	?GameMonsterAllAdd@@YAXXZ			; GameMonsterAllAdd
EXTRN	?LoadMonsterPos@cPandoraBoxEvent@@QAEXXZ:PROC	; cPandoraBoxEvent::LoadMonsterPos
EXTRN	?gPandoraBoxEvent@@3VcPandoraBoxEvent@@A:BYTE	; gPandoraBoxEvent
EXTRN	?LoadMonsterPos@CMonsterTime@@QAEXXZ:PROC	; CMonsterTime::LoadMonsterPos
EXTRN	?g_MonsterTime@@3VCMonsterTime@@A:BYTE		; g_MonsterTime
EXTRN	?LoadMonsterPos@CMapQuest@@QAEXXZ:PROC		; CMapQuest::LoadMonsterPos
EXTRN	?g_MapQuest@@3VCMapQuest@@A:BYTE		; g_MapQuest
EXTRN	?LoadMonster@CCarnageEvent@@QAEXXZ:PROC		; CCarnageEvent::LoadMonster
EXTRN	?g_CarnageEvent@@3VCCarnageEvent@@A:BYTE	; g_CarnageEvent
EXTRN	?Init@CImperial@@QAEXXZ:PROC			; CImperial::Init
EXTRN	?Init@CDoppelGanger@@QAEXXZ:PROC		; CDoppelGanger::Init
EXTRN	?g_DoppelGanger@@3VCDoppelGanger@@A:BYTE	; g_DoppelGanger
EXTRN	?Init@CIllusionTempleEvent@@QAEHXZ:PROC		; CIllusionTempleEvent::Init
EXTRN	?g_iIllusionTempleEvent@@3HA:DWORD		; g_iIllusionTempleEvent
EXTRN	?Init@CChaosCastle@@QAEX_N@Z:PROC		; CChaosCastle::Init
EXTRN	?g_ChaosCastle@@3VCChaosCastle@@A:BYTE		; g_ChaosCastle
EXTRN	?Init@CBloodCastle@@QAEX_N@Z:PROC		; CBloodCastle::Init
EXTRN	?LoadItemDropRate@CBloodCastle@@QAEXXZ:PROC	; CBloodCastle::LoadItemDropRate
EXTRN	?Init@CDevilSquare@@QAEXXZ:PROC			; CDevilSquare::Init
EXTRN	?g_DevilSquare@@3VCDevilSquare@@A:BYTE		; g_DevilSquare
EXTRN	?g_Crywolf@@3VCCrywolf@@A:BYTE			; g_Crywolf
EXTRN	?g_CastleSiege@@3VCCastleSiege@@A:BYTE		; g_CastleSiege
EXTRN	?SetTrapIndex@CImperial@@QAEXFH@Z:PROC		; CImperial::SetTrapIndex
EXTRN	?g_Imperial@@3VCImperial@@A:BYTE		; g_Imperial
EXTRN	?GetBridgeIndex@CBloodCastle@@QAEHH@Z:PROC	; CBloodCastle::GetBridgeIndex
EXTRN	?g_BloodCastle@@3VCBloodCastle@@A:BYTE		; g_BloodCastle
EXTRN	?gObj@@3PAUOBJECTSTRUCT@@A:DWORD		; gObj
EXTRN	?gObjSetMonster@@YAHHH@Z:PROC			; gObjSetMonster
EXTRN	?gObjSetPosMonster@@YAHHH@Z:PROC		; gObjSetPosMonster
EXTRN	?gObjAddMonster@@YAFH@Z:PROC			; gObjAddMonster
EXTRN	?CreateNPCPosition@CIllusionTempleEvent@@QAEXEHH@Z:PROC ; CIllusionTempleEvent::CreateNPCPosition
EXTRN	?CreateMonsterPosition@CIllusionTempleEvent@@QAEXEHH@Z:PROC ; CIllusionTempleEvent::CreateMonsterPosition
EXTRN	?g_IllusionTempleEvent@@3VCIllusionTempleEvent@@A:BYTE ; g_IllusionTempleEvent
EXTRN	?gCurPaintPlayer@@3HA:DWORD			; gCurPaintPlayer
; Function compile flags: /Ogtp
;	COMDAT ?GameMonsterAllAdd@@YAXXZ
_TEXT	SEGMENT
tv627 = -4						; size = 4
?GameMonsterAllAdd@@YAXXZ PROC				; GameMonsterAllAdd, COMDAT

; 1193 : {

  00000	55		 push	 ebp
  00001	8b ec		 mov	 ebp, esp
  00003	51		 push	 ecx
  00004	53		 push	 ebx

; 1194 : 	gCurPaintPlayer = 0;

  00005	33 db		 xor	 ebx, ebx
  00007	89 1d 00 00 00
	00		 mov	 DWORD PTR ?gCurPaintPlayer@@3HA, ebx ; gCurPaintPlayer

; 1195 : 
; 1196 : 	int result;
; 1197 : 
; 1198 : 	for ( int n=0;n< gMSetBase.m_Count ;n++)

  0000d	39 1d 84 2c 03
	00		 cmp	 DWORD PTR ?gMSetBase@@3VCMonsterSetBase@@A+208004, ebx
  00013	0f 8e 59 02 00
	00		 jle	 $LN30@GameMonste

; 1194 : 	gCurPaintPlayer = 0;

  00019	56		 push	 esi
  0001a	be 08 00 00 00	 mov	 esi, OFFSET ?gMSetBase@@3VCMonsterSetBase@@A+8
  0001f	57		 push	 edi
  00020	89 75 fc	 mov	 DWORD PTR tv627[ebp], esi
$LL72@GameMonste:

; 1199 : 	{
; 1200 : 		if ( DS_MAP_RANGE(gMSetBase.m_Mp[n].m_MapNumber) != FALSE )

  00023	8a 06		 mov	 al, BYTE PTR [esi]
  00025	3c 09		 cmp	 al, 9
  00027	0f 84 30 02 00
	00		 je	 $LN31@GameMonste
  0002d	33 c9		 xor	 ecx, ecx
  0002f	3c 20		 cmp	 al, 32			; 00000020H
  00031	0f 94 c1	 sete	 cl
  00034	85 c9		 test	 ecx, ecx
  00036	0f 85 21 02 00
	00		 jne	 $LN31@GameMonste

; 1201 : 		{
; 1202 : 			continue;
; 1203 : 		}
; 1204 : 
; 1205 : 		if ( BC_MAP_RANGE(gMSetBase.m_Mp[n].m_MapNumber) != FALSE )

  0003c	3c 34		 cmp	 al, 52			; 00000034H
  0003e	74 10		 je	 SHORT $LN62@GameMonste
  00040	3c 0b		 cmp	 al, 11			; 0000000bH
  00042	72 1b		 jb	 SHORT $LN27@GameMonste
  00044	b9 11 00 00 00	 mov	 ecx, 17			; 00000011H
  00049	3a c8		 cmp	 cl, al
  0004b	1b c9		 sbb	 ecx, ecx
  0004d	41		 inc	 ecx
  0004e	74 0f		 je	 SHORT $LN27@GameMonste
$LN62@GameMonste:

; 1206 : 		{
; 1207 : 			if ( gMSetBase.m_Mp[n].m_Type != 232 )

  00050	ba e8 00 00 00	 mov	 edx, 232		; 000000e8H
  00055	66 39 56 fe	 cmp	 WORD PTR [esi-2], dx
  00059	0f 85 fe 01 00
	00		 jne	 $LN31@GameMonste
$LN27@GameMonste:

; 1208 : 			{
; 1209 : 				continue;
; 1210 : 			}
; 1211 : 		}
; 1212 : 
; 1213 : 		if ( CC_MAP_RANGE(gMSetBase.m_Mp[n].m_MapNumber) != FALSE )

  0005f	3c 35		 cmp	 al, 53			; 00000035H
  00061	0f 84 f6 01 00
	00		 je	 $LN31@GameMonste
  00067	3c 12		 cmp	 al, 18			; 00000012H
  00069	72 10		 jb	 SHORT $LN63@GameMonste
  0006b	b9 17 00 00 00	 mov	 ecx, 23			; 00000017H
  00070	3a c8		 cmp	 cl, al
  00072	1b c9		 sbb	 ecx, ecx
  00074	41		 inc	 ecx
  00075	0f 85 e2 01 00
	00		 jne	 $LN31@GameMonste
$LN63@GameMonste:

; 1214 : 		{
; 1215 : 			continue;
; 1216 : 		}
; 1217 : 
; 1218 : 		if ( IT_MAP_RANGE(gMSetBase.m_Mp[n].m_MapNumber) != FALSE && gMSetBase.m_Mp[n].m_Type != 381 && gMSetBase.m_Mp[n].m_Type != 382)

  0007b	3c 2d		 cmp	 al, 45			; 0000002dH
  0007d	72 7b		 jb	 SHORT $LN25@GameMonste
  0007f	b2 32		 mov	 dl, 50			; 00000032H
  00081	3a d0		 cmp	 dl, al
  00083	1b c9		 sbb	 ecx, ecx
  00085	41		 inc	 ecx
  00086	74 72		 je	 SHORT $LN25@GameMonste
  00088	0f b7 4e fe	 movzx	 ecx, WORD PTR [esi-2]
  0008c	ba 7d 01 00 00	 mov	 edx, 381		; 0000017dH
  00091	66 3b ca	 cmp	 cx, dx
  00094	74 64		 je	 SHORT $LN25@GameMonste
  00096	ba 7e 01 00 00	 mov	 edx, 382		; 0000017eH
  0009b	66 3b ca	 cmp	 cx, dx
  0009e	74 5a		 je	 SHORT $LN25@GameMonste

; 1219 : 		{
; 1220 : 			if( gMSetBase.m_Mp[n].m_Type == 380 || gMSetBase.m_Mp[n].m_Type == 383 || gMSetBase.m_Mp[n].m_Type == 384 )

  000a0	ba 7c 01 00 00	 mov	 edx, 380		; 0000017cH
  000a5	66 3b ca	 cmp	 cx, dx
  000a8	74 3e		 je	 SHORT $LN23@GameMonste
  000aa	ba 7f 01 00 00	 mov	 edx, 383		; 0000017fH
  000af	66 3b ca	 cmp	 cx, dx
  000b2	74 34		 je	 SHORT $LN23@GameMonste
  000b4	ba 80 01 00 00	 mov	 edx, 384		; 00000180H
  000b9	66 3b ca	 cmp	 cx, dx
  000bc	74 2a		 je	 SHORT $LN23@GameMonste

; 1223 : 			}
; 1224 : 			else if(gMSetBase.m_Mp[n].m_Type >= 386 || gMSetBase.m_Mp[n].m_Type <= 403)

  000be	ba 82 01 00 00	 mov	 edx, 386		; 00000182H
  000c3	66 3b ca	 cmp	 cx, dx
  000c6	73 0e		 jae	 SHORT $LN20@GameMonste
  000c8	ba 93 01 00 00	 mov	 edx, 403		; 00000193H
  000cd	66 3b ca	 cmp	 cx, dx
  000d0	0f 87 87 01 00
	00		 ja	 $LN31@GameMonste
$LN20@GameMonste:

; 1225 : 			{
; 1226 : 				g_IllusionTempleEvent.CreateMonsterPosition(gMSetBase.m_Mp[n].m_MapNumber,gMSetBase.m_Mp[n].m_Type, n);

  000d6	53		 push	 ebx
  000d7	51		 push	 ecx
  000d8	50		 push	 eax
  000d9	b9 00 00 00 00	 mov	 ecx, OFFSET ?g_IllusionTempleEvent@@3VCIllusionTempleEvent@@A ; g_IllusionTempleEvent
  000de	e8 00 00 00 00	 call	 ?CreateMonsterPosition@CIllusionTempleEvent@@QAEXEHH@Z ; CIllusionTempleEvent::CreateMonsterPosition
  000e3	e9 75 01 00 00	 jmp	 $LN31@GameMonste
$LN23@GameMonste:

; 1221 : 			{
; 1222 : 				g_IllusionTempleEvent.CreateNPCPosition(gMSetBase.m_Mp[n].m_MapNumber,gMSetBase.m_Mp[n].m_Type, n);

  000e8	53		 push	 ebx
  000e9	51		 push	 ecx
  000ea	50		 push	 eax
  000eb	b9 00 00 00 00	 mov	 ecx, OFFSET ?g_IllusionTempleEvent@@3VCIllusionTempleEvent@@A ; g_IllusionTempleEvent
  000f0	e8 00 00 00 00	 call	 ?CreateNPCPosition@CIllusionTempleEvent@@QAEXEHH@Z ; CIllusionTempleEvent::CreateNPCPosition

; 1227 : 			}
; 1228 : 
; 1229 : 			continue;

  000f5	e9 63 01 00 00	 jmp	 $LN31@GameMonste
$LN25@GameMonste:

; 1230 : 		}
; 1231 : #ifdef IMPERIAL_CONFLICT_NEW
; 1232 : 		if( CImperialGuardian::IsEventMap(gMSetBase.m_Mp[n].m_MapNumber) )
; 1233 : 			continue;
; 1234 : #endif
; 1235 : 
; 1236 : #if(CUSTOM_MAPQUEST)
; 1237 : 		/*	if(g_MapQuest.GetMapMonster(n))
; 1238 : 			{
; 1239 : 				continue;
; 1240 : 			}*/
; 1241 : #endif
; 1242 : 			
; 1243 : 		result = gObjAddMonster(gMSetBase.m_Mp[n].m_MapNumber);

  000fa	0f b6 c0	 movzx	 eax, al
  000fd	50		 push	 eax
  000fe	e8 00 00 00 00	 call	 ?gObjAddMonster@@YAFH@Z	; gObjAddMonster
  00103	0f bf f8	 movsx	 edi, ax
  00106	83 c4 04	 add	 esp, 4

; 1244 : 
; 1245 : 		if ( result >= 0 )

  00109	85 ff		 test	 edi, edi
  0010b	0f 88 4c 01 00
	00		 js	 $LN31@GameMonste

; 1246 : 		{
; 1247 : 			gObjSetPosMonster(result, n);

  00111	53		 push	 ebx
  00112	57		 push	 edi
  00113	e8 00 00 00 00	 call	 ?gObjSetPosMonster@@YAHHH@Z ; gObjSetPosMonster

; 1248 : 			gObjSetMonster(result, gMSetBase.m_Mp[n].m_Type);

  00118	0f b7 4e fe	 movzx	 ecx, WORD PTR [esi-2]
  0011c	51		 push	 ecx
  0011d	57		 push	 edi
  0011e	e8 00 00 00 00	 call	 ?gObjSetMonster@@YAHHH@Z ; gObjSetMonster

; 1249 : 			gCurPaintPlayer++;

  00123	ff 05 00 00 00
	00		 inc	 DWORD PTR ?gCurPaintPlayer@@3HA ; gCurPaintPlayer

; 1250 : 
; 1251 : 			if ( BC_MAP_RANGE(gObj[result].MapNumber) )

  00129	a1 00 00 00 00	 mov	 eax, DWORD PTR ?gObj@@3PAUOBJECTSTRUCT@@A ; gObj
  0012e	8b f7		 mov	 esi, edi
  00130	69 f6 50 2b 00
	00		 imul	 esi, 11088		; 00002b50H
  00136	8a 8c 06 49 01
	00 00		 mov	 cl, BYTE PTR [esi+eax+329]
  0013d	83 c4 10	 add	 esp, 16			; 00000010H
  00140	80 f9 34	 cmp	 cl, 52			; 00000034H
  00143	74 11		 je	 SHORT $LN64@GameMonste
  00145	80 f9 0b	 cmp	 cl, 11			; 0000000bH
  00148	72 3b		 jb	 SHORT $LN66@GameMonste
  0014a	ba 11 00 00 00	 mov	 edx, 17			; 00000011H
  0014f	3a d1		 cmp	 dl, cl
  00151	1b d2		 sbb	 edx, edx
  00153	42		 inc	 edx
  00154	74 2f		 je	 SHORT $LN66@GameMonste
$LN64@GameMonste:

; 1252 : 			{
; 1253 : 				if ( gObj[result].Class == 232 )

  00156	ba e8 00 00 00	 mov	 edx, 232		; 000000e8H
  0015b	66 39 94 06 b8
	00 00 00	 cmp	 WORD PTR [esi+eax+184], dx
  00163	75 20		 jne	 SHORT $LN66@GameMonste

; 1254 : 				{
; 1255 : 					gObj[result].m_cBloodCastleIndex = g_BloodCastle.GetBridgeIndex(gObj[result].MapNumber);

  00165	0f b6 c1	 movzx	 eax, cl
  00168	50		 push	 eax
  00169	b9 00 00 00 00	 mov	 ecx, OFFSET ?g_BloodCastle@@3VCBloodCastle@@A ; g_BloodCastle
  0016e	e8 00 00 00 00	 call	 ?GetBridgeIndex@CBloodCastle@@QAEHH@Z ; CBloodCastle::GetBridgeIndex
  00173	8b 0d 00 00 00
	00		 mov	 ecx, DWORD PTR ?gObj@@3PAUOBJECTSTRUCT@@A ; gObj
  00179	88 84 0e 9e 0e
	00 00		 mov	 BYTE PTR [esi+ecx+3742], al
  00180	a1 00 00 00 00	 mov	 eax, DWORD PTR ?gObj@@3PAUOBJECTSTRUCT@@A ; gObj
$LN66@GameMonste:

; 1256 : 				}
; 1257 : 			}
; 1258 : 
; 1259 : #ifdef IMPERIAL_CONFLICT_OLD
; 1260 : 			if ( gObj[result].Class == 523 && IMPERIAL_MAP_RANGE(gObj[result].MapNumber) )	//Season 5 ImperialFort

  00185	ba 0b 02 00 00	 mov	 edx, 523		; 0000020bH
  0018a	66 39 94 06 b8
	00 00 00	 cmp	 WORD PTR [esi+eax+184], dx
  00192	75 2c		 jne	 SHORT $LN67@GameMonste
  00194	8a 94 06 49 01
	00 00		 mov	 dl, BYTE PTR [esi+eax+329]
  0019b	80 fa 45	 cmp	 dl, 69			; 00000045H
  0019e	72 20		 jb	 SHORT $LN67@GameMonste
  001a0	b9 48 00 00 00	 mov	 ecx, 72			; 00000048H
  001a5	3a ca		 cmp	 cl, dl
  001a7	1b c9		 sbb	 ecx, ecx
  001a9	41		 inc	 ecx
  001aa	74 14		 je	 SHORT $LN67@GameMonste

; 1261 : 			{
; 1262 : 				g_Imperial.SetTrapIndex(result, gObj[result].MapNumber);

  001ac	0f b6 d2	 movzx	 edx, dl
  001af	52		 push	 edx
  001b0	57		 push	 edi
  001b1	b9 00 00 00 00	 mov	 ecx, OFFSET ?g_Imperial@@3VCImperial@@A ; g_Imperial
  001b6	e8 00 00 00 00	 call	 ?SetTrapIndex@CImperial@@QAEXFH@Z ; CImperial::SetTrapIndex
  001bb	a1 00 00 00 00	 mov	 eax, DWORD PTR ?gObj@@3PAUOBJECTSTRUCT@@A ; gObj
$LN67@GameMonste:

; 1263 : 			}
; 1264 : #endif
; 1265 : //#if(GS_CASTLE==1)
; 1266 : 				if ( gObj[result].Class == 216 )

  001c0	b9 d8 00 00 00	 mov	 ecx, 216		; 000000d8H
  001c5	66 39 8c 06 b8
	00 00 00	 cmp	 WORD PTR [esi+eax+184], cx
  001cd	75 06		 jne	 SHORT $LN55@GameMonste

; 1267 : 				{
; 1268 : 					g_CastleSiege.SetCrownIndex(result);

  001cf	89 3d ec 01 00
	00		 mov	 DWORD PTR ?g_CastleSiege@@3VCCastleSiege@@A+492, edi
$LN55@GameMonste:

; 1269 : 				}
; 1270 : 				if( CRYWOLF_MAP_RANGE(gObj[result].MapNumber) )

  001d5	80 bc 06 49 01
	00 00 22	 cmp	 BYTE PTR [esi+eax+329], 34 ; 00000022H
  001dd	75 7b		 jne	 SHORT $LN70@GameMonste

; 1271 : 				{
; 1272 : 					if(gObj[result].Type == OBJ_NPC)

  001df	66 83 7c 06 68
	03		 cmp	 WORD PTR [esi+eax+104], 3
  001e5	75 48		 jne	 SHORT $LN68@GameMonste

; 1273 : 					{
; 1274 : 						if(gObj[result].Class == 406 || gObj[result].Class == 407)

  001e7	0f b7 8c 06 b8
	00 00 00	 movzx	 ecx, WORD PTR [esi+eax+184]
  001ef	ba 96 01 00 00	 mov	 edx, 406		; 00000196H
  001f4	66 3b ca	 cmp	 cx, dx
  001f7	74 36		 je	 SHORT $LN68@GameMonste
  001f9	ba 97 01 00 00	 mov	 edx, 407		; 00000197H
  001fe	66 3b ca	 cmp	 cx, dx
  00201	74 2c		 je	 SHORT $LN68@GameMonste

; 1275 : 						{
; 1276 : 							
; 1277 : 						}
; 1278 : 						else if ( CRYWOLF_ALTAR_CLASS_RANGE(gObj[result].Class) ) //Altar?

  00203	b8 cd 00 00 00	 mov	 eax, 205		; 000000cdH
  00208	66 3b c8	 cmp	 cx, ax
  0020b	72 12		 jb	 SHORT $LN9@GameMonste
  0020d	ba d1 00 00 00	 mov	 edx, 209		; 000000d1H
  00212	66 3b d1	 cmp	 dx, cx
  00215	1b c0		 sbb	 eax, eax
  00217	40		 inc	 eax

; 1279 : 						{
; 1280 : 							g_Crywolf.m_ObjSpecialNPC.AddObj(result);

  00218	b9 a8 bc 0f 00	 mov	 ecx, OFFSET ?g_Crywolf@@3VCCrywolf@@A+1031336
  0021d	75 05		 jne	 SHORT $LN74@GameMonste
$LN9@GameMonste:

; 1281 : 						}
; 1282 : 						else
; 1283 : 						{
; 1284 : 							g_Crywolf.m_ObjCommonNPC.AddObj(result);

  0021f	b9 f4 b7 0f 00	 mov	 ecx, OFFSET ?g_Crywolf@@3VCCrywolf@@A+1030132
$LN74@GameMonste:
  00224	57		 push	 edi
  00225	e8 00 00 00 00	 call	 ?AddObj@CCrywolfObjInfo@@QAEHH@Z ; CCrywolfObjInfo::AddObj
  0022a	a1 00 00 00 00	 mov	 eax, DWORD PTR ?gObj@@3PAUOBJECTSTRUCT@@A ; gObj
$LN68@GameMonste:

; 1285 : 						}
; 1286 : 					}
; 1287 : 				}
; 1288 : 				if( CRYWOLF_MAP_RANGE(gObj[result].MapNumber) )

  0022f	80 bc 06 49 01
	00 00 22	 cmp	 BYTE PTR [esi+eax+329], 34 ; 00000022H
  00237	75 21		 jne	 SHORT $LN70@GameMonste

; 1289 : 				{
; 1290 : 					if(gObj[result].Type == OBJ_MONSTER)

  00239	66 83 7c 06 68
	02		 cmp	 WORD PTR [esi+eax+104], 2
  0023f	75 19		 jne	 SHORT $LN70@GameMonste

; 1291 : 					{
; 1292 : 						g_Crywolf.m_ObjCommonMonster.AddObj(result);

  00241	a1 5c c1 0f 00	 mov	 eax, DWORD PTR ?g_Crywolf@@3VCCrywolf@@A+1032540
  00246	3d 2c 01 00 00	 cmp	 eax, 300		; 0000012cH
  0024b	7d 0d		 jge	 SHORT $LN70@GameMonste
  0024d	89 3c 85 60 c1
	0f 00		 mov	 DWORD PTR ?g_Crywolf@@3VCCrywolf@@A[eax*4+1032544], edi
  00254	ff 05 5c c1 0f
	00		 inc	 DWORD PTR ?g_Crywolf@@3VCCrywolf@@A+1032540
$LN70@GameMonste:
  0025a	8b 75 fc	 mov	 esi, DWORD PTR tv627[ebp]
$LN31@GameMonste:

; 1195 : 
; 1196 : 	int result;
; 1197 : 
; 1198 : 	for ( int n=0;n< gMSetBase.m_Count ;n++)

  0025d	43		 inc	 ebx
  0025e	83 c6 10	 add	 esi, 16			; 00000010H
  00261	89 75 fc	 mov	 DWORD PTR tv627[ebp], esi
  00264	3b 1d 84 2c 03
	00		 cmp	 ebx, DWORD PTR ?gMSetBase@@3VCMonsterSetBase@@A+208004
  0026a	0f 8c b3 fd ff
	ff		 jl	 $LL72@GameMonste
  00270	5f		 pop	 edi
  00271	5e		 pop	 esi
$LN30@GameMonste:

; 1293 : 					}
; 1294 : 				}
; 1295 : //#endif
; 1296 : 		}
; 1297 : 	}
; 1298 : 
; 1299 : //#if(GS_CASTLE==1)
; 1300 : //	gDevilSquareEvent = FALSE;
; 1301 : //	g_bChaosCastle = FALSE;
; 1302 : //	g_iUseRaklionEvent = FALSE;
; 1303 : //#endif
; 1304 : 
; 1305 : 	g_DevilSquare.Init();

  00272	b9 00 00 00 00	 mov	 ecx, OFFSET ?g_DevilSquare@@3VCDevilSquare@@A ; g_DevilSquare
  00277	e8 00 00 00 00	 call	 ?Init@CDevilSquare@@QAEXXZ ; CDevilSquare::Init

; 1306 : 	g_BloodCastle.LoadItemDropRate();

  0027c	b9 00 00 00 00	 mov	 ecx, OFFSET ?g_BloodCastle@@3VCBloodCastle@@A ; g_BloodCastle
  00281	e8 00 00 00 00	 call	 ?LoadItemDropRate@CBloodCastle@@QAEXXZ ; CBloodCastle::LoadItemDropRate

; 1307 : 
; 1308 : //#if(GS_CASTLE==1)
; 1309 : //	g_bBloodCastle = FALSE;
; 1310 : //#endif
; 1311 : 
; 1312 : 	if ( g_bBloodCastle != FALSE )

  00286	83 3d 00 00 00
	00 00		 cmp	 DWORD PTR ?g_bBloodCastle@@3HA, 0 ; g_bBloodCastle
  0028d	5b		 pop	 ebx

; 1313 : 	{
; 1314 : 		g_BloodCastle.Init(TRUE);

  0028e	b9 00 00 00 00	 mov	 ecx, OFFSET ?g_BloodCastle@@3VCBloodCastle@@A ; g_BloodCastle
  00293	74 04		 je	 SHORT $LN5@GameMonste
  00295	6a 01		 push	 1

; 1315 : 	}
; 1316 : 	else

  00297	eb 02		 jmp	 SHORT $LN75@GameMonste
$LN5@GameMonste:

; 1317 : 	{
; 1318 : 		g_BloodCastle.Init(FALSE);

  00299	6a 00		 push	 0
$LN75@GameMonste:
  0029b	e8 00 00 00 00	 call	 ?Init@CBloodCastle@@QAEX_N@Z ; CBloodCastle::Init

; 1319 : 	}
; 1320 : 
; 1321 : 	if ( g_bChaosCastle != FALSE )

  002a0	83 3d 00 00 00
	00 00		 cmp	 DWORD PTR ?g_bChaosCastle@@3HA, 0 ; g_bChaosCastle

; 1322 : 	{
; 1323 : 		g_ChaosCastle.Init(TRUE);

  002a7	b9 00 00 00 00	 mov	 ecx, OFFSET ?g_ChaosCastle@@3VCChaosCastle@@A ; g_ChaosCastle
  002ac	74 04		 je	 SHORT $LN3@GameMonste
  002ae	6a 01		 push	 1

; 1324 : 	}
; 1325 : 	else

  002b0	eb 02		 jmp	 SHORT $LN76@GameMonste
$LN3@GameMonste:

; 1326 : 	{
; 1327 : 		g_ChaosCastle.Init(FALSE);

  002b2	6a 00		 push	 0
$LN76@GameMonste:
  002b4	e8 00 00 00 00	 call	 ?Init@CChaosCastle@@QAEX_N@Z ; CChaosCastle::Init

; 1328 : 	}
; 1329 : //#if(GS_CASTLE == 1)
; 1330 : //	g_iIllusionTempleEvent = FALSE;
; 1331 : //#endif
; 1332 : 	if ( g_iIllusionTempleEvent != FALSE )

  002b9	83 3d 00 00 00
	00 00		 cmp	 DWORD PTR ?g_iIllusionTempleEvent@@3HA, 0 ; g_iIllusionTempleEvent
  002c0	74 0a		 je	 SHORT $LN1@GameMonste

; 1333 : 	{
; 1334 : 		g_IllusionTempleEvent.Init();

  002c2	b9 00 00 00 00	 mov	 ecx, OFFSET ?g_IllusionTempleEvent@@3VCIllusionTempleEvent@@A ; g_IllusionTempleEvent
  002c7	e8 00 00 00 00	 call	 ?Init@CIllusionTempleEvent@@QAEHXZ ; CIllusionTempleEvent::Init
$LN1@GameMonste:

; 1335 : 	}
; 1336 : 	g_DoppelGanger.Init();	//Season 5 DopplGanger

  002cc	b9 00 00 00 00	 mov	 ecx, OFFSET ?g_DoppelGanger@@3VCDoppelGanger@@A ; g_DoppelGanger
  002d1	e8 00 00 00 00	 call	 ?Init@CDoppelGanger@@QAEXXZ ; CDoppelGanger::Init

; 1337 : 
; 1338 : #ifdef IMPERIAL_CONFLICT_OLD	
; 1339 : 	g_Imperial.Init();		//Season 5 ImperialFort

  002d6	b9 00 00 00 00	 mov	 ecx, OFFSET ?g_Imperial@@3VCImperial@@A ; g_Imperial
  002db	e8 00 00 00 00	 call	 ?Init@CImperial@@QAEXXZ	; CImperial::Init

; 1340 : #endif
; 1341 : 
; 1342 : #if(EVENT_CARNAGE)
; 1343 : 	g_CarnageEvent.LoadMonster();

  002e0	b9 00 00 00 00	 mov	 ecx, OFFSET ?g_CarnageEvent@@3VCCarnageEvent@@A ; g_CarnageEvent
  002e5	e8 00 00 00 00	 call	 ?LoadMonster@CCarnageEvent@@QAEXXZ ; CCarnageEvent::LoadMonster

; 1344 : #endif
; 1345 : #if(CUSTOM_MAPQUEST)
; 1346 : 	g_MapQuest.LoadMonsterPos();

  002ea	b9 00 00 00 00	 mov	 ecx, OFFSET ?g_MapQuest@@3VCMapQuest@@A ; g_MapQuest
  002ef	e8 00 00 00 00	 call	 ?LoadMonsterPos@CMapQuest@@QAEXXZ ; CMapQuest::LoadMonsterPos

; 1347 : #endif
; 1348 : 	#if(DEV_MONSTERTIME)
; 1349 : 	g_MonsterTime.LoadMonsterPos();

  002f4	b9 00 00 00 00	 mov	 ecx, OFFSET ?g_MonsterTime@@3VCMonsterTime@@A ; g_MonsterTime
  002f9	e8 00 00 00 00	 call	 ?LoadMonsterPos@CMonsterTime@@QAEXXZ ; CMonsterTime::LoadMonsterPos

; 1350 : 	#endif
; 1351 : 
; 1352 : 	gPandoraBoxEvent.LoadMonsterPos();

  002fe	b9 00 00 00 00	 mov	 ecx, OFFSET ?gPandoraBoxEvent@@3VcPandoraBoxEvent@@A ; gPandoraBoxEvent
  00303	e8 00 00 00 00	 call	 ?LoadMonsterPos@cPandoraBoxEvent@@QAEXXZ ; cPandoraBoxEvent::LoadMonsterPos

; 1353 : 
; 1354 : }

  00308	8b e5		 mov	 esp, ebp
  0030a	5d		 pop	 ebp
  0030b	c3		 ret	 0
?GameMonsterAllAdd@@YAXXZ ENDP				; GameMonsterAllAdd
_TEXT	ENDS
PUBLIC	?GameMonsterAllCloseAndReLoad@@YAXXZ		; GameMonsterAllCloseAndReLoad
EXTRN	?ReloadMonster@CMonsterTime@@QAEXXZ:PROC	; CMonsterTime::ReloadMonster
EXTRN	?ReloadMonster@CMapQuest@@QAEXXZ:PROC		; CMapQuest::ReloadMonster
EXTRN	?SetState@CRaklion@@QAEXH@Z:PROC		; CRaklion::SetState
EXTRN	?g_Raklion@@3VCRaklion@@A:BYTE			; g_Raklion
EXTRN	?gObjMonCount@@3HA:DWORD			; gObjMonCount
EXTRN	?Init@CMonsterItemMng@@QAEXXZ:PROC		; CMonsterItemMng::Init
EXTRN	?g_MonsterItemMng@@3VCMonsterItemMng@@A:BYTE	; g_MonsterItemMng
EXTRN	?AllObjReset@CIllusionTempleEvent@@QAEXXZ:PROC	; CIllusionTempleEvent::AllObjReset
EXTRN	?LoadSetBase@CMonsterSetBase@@QAEXPADH@Z:PROC	; CMonsterSetBase::LoadSetBase
EXTRN	?LoadAttr@CMonsterAttr@@QAEXPADH@Z:PROC		; CMonsterAttr::LoadAttr
EXTRN	?GetDataBuffer@WzAG@@QAEPADXZ:PROC		; WzAG::GetDataBuffer
EXTRN	?GetDataBufferSize@WzAG@@QAEHXZ:PROC		; WzAG::GetDataBufferSize
EXTRN	?RequestData@WzAG@@QAEXH@Z:PROC			; WzAG::RequestData
EXTRN	?gWzAG@@3VWzAG@@A:BYTE				; gWzAG
EXTRN	?gObjDel@@YAFH@Z:PROC				; gObjDel
EXTRN	?gObjViewportClose@@YAXPAUOBJECTSTRUCT@@@Z:PROC	; gObjViewportClose
EXTRN	?gObjViewportListProtocolDestroy@@YAXPAUOBJECTSTRUCT@@@Z:PROC ; gObjViewportListProtocolDestroy
; Function compile flags: /Ogtp
;	COMDAT ?GameMonsterAllCloseAndReLoad@@YAXXZ
_TEXT	SEGMENT
?GameMonsterAllCloseAndReLoad@@YAXXZ PROC		; GameMonsterAllCloseAndReLoad, COMDAT

; 1358 : 	for ( int n=0;n<OBJ_MAXMONSTER;n++)

  00000	a1 00 00 00 00	 mov	 eax, DWORD PTR ?gObj@@3PAUOBJECTSTRUCT@@A ; gObj
  00005	53		 push	 ebx
  00006	56		 push	 esi
  00007	57		 push	 edi
  00008	33 db		 xor	 ebx, ebx
  0000a	33 ff		 xor	 edi, edi
  0000c	33 f6		 xor	 esi, esi
  0000e	8b ff		 npad	 2
$LL7@GameMonste@2:

; 1359 : 	{
; 1360 : 		if ( gObj[n].Type == OBJ_MONSTER || gObj[n].Type == OBJ_NPC )

  00010	0f b7 4c 06 68	 movzx	 ecx, WORD PTR [esi+eax+104]
  00015	83 f9 02	 cmp	 ecx, 2
  00018	74 05		 je	 SHORT $LN3@GameMonste@2
  0001a	83 f9 03	 cmp	 ecx, 3
  0001d	75 44		 jne	 SHORT $LN6@GameMonste@2
$LN3@GameMonste@2:

; 1361 : 		{
; 1362 : 			
; 1363 : //#if(GS_CASTLE==0)
; 1364 : #if(FIX_MONSTER_RELOAD==FALSE)
; 1365 : 			if ( gObj[n].MapNumber == MAP_INDEX_KANTURU_BOSS )
; 1366 : 			{
; 1367 : 				continue;
; 1368 : 			}
; 1369 : #endif
; 1370 : 
; 1371 : 
; 1372 : #if(CUSTOM_MAPQUEST)
; 1373 : 			/*if(g_MapQuest.GetMapMonster(gObj[n].m_PosNum))
; 1374 : 			{
; 1375 : 				continue;
; 1376 : 			}*/
; 1377 : #endif
; 1378 : 
; 1379 : //#else
; 1380 : 			if ( gObj[n].m_btCsNpcType )

  0001f	38 9c 06 f8 1b
	00 00		 cmp	 BYTE PTR [esi+eax+7160], bl
  00026	75 3b		 jne	 SHORT $LN6@GameMonste@2

; 1381 : //#endif
; 1382 : 			{
; 1383 : 				continue;
; 1384 : 			}
; 1385 : 
; 1386 : 			if ( gObj[n].m_iCurrentAI )

  00028	39 9c 06 78 1c
	00 00		 cmp	 DWORD PTR [esi+eax+7288], ebx
  0002f	74 24		 je	 SHORT $LN1@GameMonste@2

; 1387 : 			{
; 1388 : 				gObj[n].Live = FALSE;

  00031	88 5c 06 6a	 mov	 BYTE PTR [esi+eax+106], bl

; 1389 : 				gObjViewportListProtocolDestroy(&gObj[n]);

  00035	a1 00 00 00 00	 mov	 eax, DWORD PTR ?gObj@@3PAUOBJECTSTRUCT@@A ; gObj
  0003a	8d 0c 06	 lea	 ecx, DWORD PTR [esi+eax]
  0003d	51		 push	 ecx
  0003e	e8 00 00 00 00	 call	 ?gObjViewportListProtocolDestroy@@YAXPAUOBJECTSTRUCT@@@Z ; gObjViewportListProtocolDestroy

; 1390 : 				gObjViewportClose(&gObj[n]);

  00043	8b 15 00 00 00
	00		 mov	 edx, DWORD PTR ?gObj@@3PAUOBJECTSTRUCT@@A ; gObj
  00049	8d 04 16	 lea	 eax, DWORD PTR [esi+edx]
  0004c	50		 push	 eax
  0004d	e8 00 00 00 00	 call	 ?gObjViewportClose@@YAXPAUOBJECTSTRUCT@@@Z ; gObjViewportClose
  00052	83 c4 08	 add	 esp, 8
$LN1@GameMonste@2:

; 1391 : 			}
; 1392 : 			
; 1393 : 			gObjDel(n);

  00055	57		 push	 edi
  00056	e8 00 00 00 00	 call	 ?gObjDel@@YAFH@Z	; gObjDel
  0005b	a1 00 00 00 00	 mov	 eax, DWORD PTR ?gObj@@3PAUOBJECTSTRUCT@@A ; gObj
  00060	83 c4 04	 add	 esp, 4
$LN6@GameMonste@2:

; 1358 : 	for ( int n=0;n<OBJ_MAXMONSTER;n++)

  00063	81 c6 50 2b 00
	00		 add	 esi, 11088		; 00002b50H
  00069	47		 inc	 edi
  0006a	81 fe 80 76 97
	08		 cmp	 esi, 144144000		; 08977680H
  00070	7c 9e		 jl	 SHORT $LL7@GameMonste@2

; 1394 : 		}
; 1395 : 	}
; 1396 : 
; 1397 : //#if(GS_CASTLE==1)
; 1398 : 	g_Crywolf.m_ObjCommonNPC.Reset();

  00072	83 c8 ff	 or	 eax, -1
  00075	b9 2c 01 00 00	 mov	 ecx, 300		; 0000012cH
  0007a	bf f8 b7 0f 00	 mov	 edi, OFFSET ?g_Crywolf@@3VCCrywolf@@A+1030136
  0007f	f3 ab		 rep stosd

; 1399 : 	g_Crywolf.m_ObjSpecialNPC.Reset();

  00081	0b c0		 or	 eax, eax
  00083	89 1d f4 b7 0f
	00		 mov	 DWORD PTR ?g_Crywolf@@3VCCrywolf@@A+1030132, ebx
  00089	b9 2c 01 00 00	 mov	 ecx, 300		; 0000012cH
  0008e	bf ac bc 0f 00	 mov	 edi, OFFSET ?g_Crywolf@@3VCCrywolf@@A+1031340
  00093	f3 ab		 rep stosd

; 1400 : 	g_Crywolf.m_ObjCommonMonster.Reset();

  00095	83 c8 ff	 or	 eax, -1
  00098	89 1d a8 bc 0f
	00		 mov	 DWORD PTR ?g_Crywolf@@3VCCrywolf@@A+1031336, ebx
  0009e	b9 2c 01 00 00	 mov	 ecx, 300		; 0000012cH
  000a3	bf 60 c1 0f 00	 mov	 edi, OFFSET ?g_Crywolf@@3VCCrywolf@@A+1032544
  000a8	f3 ab		 rep stosd

; 1401 : 	g_Crywolf.m_ObjSpecialMonster.Reset();

  000aa	0b c0		 or	 eax, eax
  000ac	89 1d 5c c1 0f
	00		 mov	 DWORD PTR ?g_Crywolf@@3VCCrywolf@@A+1032540, ebx
  000b2	b9 2c 01 00 00	 mov	 ecx, 300		; 0000012cH
  000b7	bf 14 c6 0f 00	 mov	 edi, OFFSET ?g_Crywolf@@3VCCrywolf@@A+1033748
  000bc	f3 ab		 rep stosd

; 1402 : //#endif
; 1403 : 
; 1404 : 	gWzAG.RequestData(7);

  000be	6a 07		 push	 7
  000c0	b9 00 00 00 00	 mov	 ecx, OFFSET ?gWzAG@@3VWzAG@@A ; gWzAG
  000c5	89 1d 10 c6 0f
	00		 mov	 DWORD PTR ?g_Crywolf@@3VCCrywolf@@A+1033744, ebx
  000cb	e8 00 00 00 00	 call	 ?RequestData@WzAG@@QAEXH@Z ; WzAG::RequestData

; 1405 : 	int DataBufferSize = gWzAG.GetDataBufferSize();

  000d0	b9 00 00 00 00	 mov	 ecx, OFFSET ?gWzAG@@3VWzAG@@A ; gWzAG
  000d5	e8 00 00 00 00	 call	 ?GetDataBufferSize@WzAG@@QAEHXZ ; WzAG::GetDataBufferSize

; 1406 : 	char * DataBuffer = gWzAG.GetDataBuffer();

  000da	b9 00 00 00 00	 mov	 ecx, OFFSET ?gWzAG@@3VWzAG@@A ; gWzAG
  000df	8b f0		 mov	 esi, eax
  000e1	e8 00 00 00 00	 call	 ?GetDataBuffer@WzAG@@QAEPADXZ ; WzAG::GetDataBuffer

; 1407 : 	gMAttr.LoadAttr(DataBuffer, DataBufferSize);

  000e6	56		 push	 esi
  000e7	50		 push	 eax
  000e8	b9 00 00 00 00	 mov	 ecx, OFFSET ?gMAttr@@3VCMonsterAttr@@A ; gMAttr
  000ed	e8 00 00 00 00	 call	 ?LoadAttr@CMonsterAttr@@QAEXPADH@Z ; CMonsterAttr::LoadAttr

; 1408 : 
; 1409 : 	gWzAG.RequestData(9);

  000f2	6a 09		 push	 9
  000f4	b9 00 00 00 00	 mov	 ecx, OFFSET ?gWzAG@@3VWzAG@@A ; gWzAG
  000f9	e8 00 00 00 00	 call	 ?RequestData@WzAG@@QAEXH@Z ; WzAG::RequestData

; 1410 : 	DataBufferSize = gWzAG.GetDataBufferSize();

  000fe	b9 00 00 00 00	 mov	 ecx, OFFSET ?gWzAG@@3VWzAG@@A ; gWzAG
  00103	e8 00 00 00 00	 call	 ?GetDataBufferSize@WzAG@@QAEHXZ ; WzAG::GetDataBufferSize

; 1411 : 	DataBuffer = gWzAG.GetDataBuffer();

  00108	b9 00 00 00 00	 mov	 ecx, OFFSET ?gWzAG@@3VWzAG@@A ; gWzAG
  0010d	8b f0		 mov	 esi, eax
  0010f	e8 00 00 00 00	 call	 ?GetDataBuffer@WzAG@@QAEPADXZ ; WzAG::GetDataBuffer

; 1412 : 	gMSetBase.LoadSetBase(DataBuffer, DataBufferSize);

  00114	56		 push	 esi
  00115	50		 push	 eax
  00116	b9 00 00 00 00	 mov	 ecx, OFFSET ?gMSetBase@@3VCMonsterSetBase@@A ; gMSetBase
  0011b	e8 00 00 00 00	 call	 ?LoadSetBase@CMonsterSetBase@@QAEXPADH@Z ; CMonsterSetBase::LoadSetBase

; 1413 : 
; 1414 : 	g_IllusionTempleEvent.AllObjReset();

  00120	b9 00 00 00 00	 mov	 ecx, OFFSET ?g_IllusionTempleEvent@@3VCIllusionTempleEvent@@A ; g_IllusionTempleEvent
  00125	e8 00 00 00 00	 call	 ?AllObjReset@CIllusionTempleEvent@@QAEXXZ ; CIllusionTempleEvent::AllObjReset

; 1415 : 
; 1416 : 	g_MonsterItemMng.Init();

  0012a	b9 00 00 00 00	 mov	 ecx, OFFSET ?g_MonsterItemMng@@3VCMonsterItemMng@@A ; g_MonsterItemMng
  0012f	e8 00 00 00 00	 call	 ?Init@CMonsterItemMng@@QAEXXZ ; CMonsterItemMng::Init

; 1417 : 	gObjMonCount = 0;

  00134	89 1d 00 00 00
	00		 mov	 DWORD PTR ?gObjMonCount@@3HA, ebx ; gObjMonCount

; 1418 : 	GameMonsterAllAdd();

  0013a	e8 00 00 00 00	 call	 ?GameMonsterAllAdd@@YAXXZ ; GameMonsterAllAdd

; 1419 : 
; 1420 : 	g_Raklion.SetState(RAKLION_STATE_END);

  0013f	6a 0a		 push	 10			; 0000000aH
  00141	b9 00 00 00 00	 mov	 ecx, OFFSET ?g_Raklion@@3VCRaklion@@A ; g_Raklion
  00146	e8 00 00 00 00	 call	 ?SetState@CRaklion@@QAEXH@Z ; CRaklion::SetState

; 1421 : 
; 1422 : #if(CUSTOM_MAPQUEST)
; 1423 : 	g_MapQuest.ReloadMonster();

  0014b	b9 00 00 00 00	 mov	 ecx, OFFSET ?g_MapQuest@@3VCMapQuest@@A ; g_MapQuest
  00150	e8 00 00 00 00	 call	 ?ReloadMonster@CMapQuest@@QAEXXZ ; CMapQuest::ReloadMonster
  00155	5f		 pop	 edi
  00156	5e		 pop	 esi

; 1424 : #endif
; 1425 : 
; 1426 : 	#if(DEV_MONSTERTIME)
; 1427 : 	g_MonsterTime.ReloadMonster();

  00157	b9 00 00 00 00	 mov	 ecx, OFFSET ?g_MonsterTime@@3VCMonsterTime@@A ; g_MonsterTime
  0015c	5b		 pop	 ebx
  0015d	e9 00 00 00 00	 jmp	 ?ReloadMonster@CMonsterTime@@QAEXXZ ; CMonsterTime::ReloadMonster
?GameMonsterAllCloseAndReLoad@@YAXXZ ENDP		; GameMonsterAllCloseAndReLoad
_TEXT	ENDS
PUBLIC	?GameMainFree@@YAXXZ				; GameMainFree
EXTRN	?LogClose@@YAXXZ:PROC				; LogClose
EXTRN	?ClearBattleSoccer@@YAXXZ:PROC			; ClearBattleSoccer
EXTRN	?gObjEnd@@YAXXZ:PROC				; gObjEnd
EXTRN	?GDGameServerInfoSave@@YAXXZ:PROC		; GDGameServerInfoSave
EXTRN	?End@CDbSave@@QAEXXZ:PROC			; CDbSave::End
; Function compile flags: /Ogtp
;	COMDAT ?GameMainFree@@YAXXZ
_TEXT	SEGMENT
?GameMainFree@@YAXXZ PROC				; GameMainFree, COMDAT

; 1433 : 	gDbSave.End();

  00000	b9 00 00 00 00	 mov	 ecx, OFFSET ?gDbSave@@3VCDbSave@@A ; gDbSave
  00005	e8 00 00 00 00	 call	 ?End@CDbSave@@QAEXXZ	; CDbSave::End

; 1434 : 	GDGameServerInfoSave();

  0000a	e8 00 00 00 00	 call	 ?GDGameServerInfoSave@@YAXXZ ; GDGameServerInfoSave

; 1435 : 	gObjEnd();

  0000f	e8 00 00 00 00	 call	 ?gObjEnd@@YAXXZ		; gObjEnd

; 1436 : 	ClearBattleSoccer();

  00014	e8 00 00 00 00	 call	 ?ClearBattleSoccer@@YAXXZ ; ClearBattleSoccer

; 1437 : 	LogClose();

  00019	e9 00 00 00 00	 jmp	 ?LogClose@@YAXXZ	; LogClose
?GameMainFree@@YAXXZ ENDP				; GameMainFree
_TEXT	ENDS
PUBLIC	?GMJoinServerConnect@@YAHPADK@Z			; GMJoinServerConnect
EXTRN	?LogAdd@@3P6AXPADZZA:DWORD			; LogAdd
EXTRN	?Get@CMsg@@QAEPADH@Z:PROC			; CMsg::Get
EXTRN	?GJServerLogin@@YAXXZ:PROC			; GJServerLogin
EXTRN	?Connect@wsJoinServerCli@@QAEHPADGK@Z:PROC	; wsJoinServerCli::Connect
EXTRN	?SetProtocolCore@wsJoinServerCli@@QAEHP6AXEPAEH@Z@Z:PROC ; wsJoinServerCli::SetProtocolCore
EXTRN	?SProtocolCore@@YAXEPAEH@Z:PROC			; SProtocolCore
; Function compile flags: /Ogtp
;	COMDAT ?GMJoinServerConnect@@YAHPADK@Z
_TEXT	SEGMENT
_ConnectServer$ = 8					; size = 4
_wMsg$ = 12						; size = 4
?GMJoinServerConnect@@YAHPADK@Z PROC			; GMJoinServerConnect, COMDAT

; 1442 : {

  00000	55		 push	 ebp
  00001	8b ec		 mov	 ebp, esp
  00003	56		 push	 esi

; 1443 : 	wsJServerCli.SetProtocolCore(SProtocolCore);

  00004	68 00 00 00 00	 push	 OFFSET ?SProtocolCore@@YAXEPAEH@Z ; SProtocolCore
  00009	b9 00 00 00 00	 mov	 ecx, OFFSET ?wsJServerCli@@3VwsJoinServerCli@@A ; wsJServerCli
  0000e	e8 00 00 00 00	 call	 ?SetProtocolCore@wsJoinServerCli@@QAEHP6AXEPAEH@Z@Z ; wsJoinServerCli::SetProtocolCore

; 1444 : 	int result = wsJServerCli.Connect(ConnectServer, JoinServerPort, wMsg);

  00013	0f b7 0d 00 00
	00 00		 movzx	 ecx, WORD PTR ?JoinServerPort@@3HA
  0001a	8b 45 0c	 mov	 eax, DWORD PTR _wMsg$[ebp]
  0001d	8b 75 08	 mov	 esi, DWORD PTR _ConnectServer$[ebp]
  00020	50		 push	 eax
  00021	51		 push	 ecx
  00022	56		 push	 esi
  00023	b9 00 00 00 00	 mov	 ecx, OFFSET ?wsJServerCli@@3VwsJoinServerCli@@A ; wsJServerCli
  00028	e8 00 00 00 00	 call	 ?Connect@wsJoinServerCli@@QAEHPADGK@Z ; wsJoinServerCli::Connect

; 1445 : 
; 1446 : 	if ( result == 0 )

  0002d	85 c0		 test	 eax, eax
  0002f	75 03		 jne	 SHORT $LN1@GMJoinServ
  00031	5e		 pop	 esi

; 1455 : 
; 1456 : }

  00032	5d		 pop	 ebp
  00033	c3		 ret	 0
$LN1@GMJoinServ:

; 1447 : 	{
; 1448 : 		return FALSE;
; 1449 : 	}
; 1450 : 
; 1451 : 	GJServerLogin();

  00034	e8 00 00 00 00	 call	 ?GJServerLogin@@YAXXZ	; GJServerLogin

; 1452 : 
; 1453 : 	LogAdd( lMsg.Get( MSGGET(1, 145)), ConnectServer);

  00039	56		 push	 esi
  0003a	68 91 01 00 00	 push	 401			; 00000191H
  0003f	b9 00 00 00 00	 mov	 ecx, OFFSET ?lMsg@@3VCMsg@@A ; lMsg
  00044	e8 00 00 00 00	 call	 ?Get@CMsg@@QAEPADH@Z	; CMsg::Get
  00049	50		 push	 eax
  0004a	ff 15 00 00 00
	00		 call	 DWORD PTR ?LogAdd@@3P6AXPADZZA ; LogAdd
  00050	83 c4 08	 add	 esp, 8

; 1454 : 	return TRUE;

  00053	b8 01 00 00 00	 mov	 eax, 1
  00058	5e		 pop	 esi

; 1455 : 
; 1456 : }

  00059	5d		 pop	 ebp
  0005a	c3		 ret	 0
?GMJoinServerConnect@@YAHPADK@Z ENDP			; GMJoinServerConnect
_TEXT	ENDS
PUBLIC	??_C@_0CA@GPEDJDDH@RankingServer?5Connect?5IP?5?$FL?5?$CFs?5?$FN?$AA@ ; `string'
PUBLIC	?GMRankingServerConnect@@YAHPADK@Z		; GMRankingServerConnect
EXTRN	?DevilSquareProtocolCore@@YAXEPAEH@Z:PROC	; DevilSquareProtocolCore
;	COMDAT ??_C@_0CA@GPEDJDDH@RankingServer?5Connect?5IP?5?$FL?5?$CFs?5?$FN?$AA@
CONST	SEGMENT
??_C@_0CA@GPEDJDDH@RankingServer?5Connect?5IP?5?$FL?5?$CFs?5?$FN?$AA@ DB 'R'
	DB	'ankingServer Connect IP [ %s ]', 00H	; `string'
; Function compile flags: /Ogtp
CONST	ENDS
;	COMDAT ?GMRankingServerConnect@@YAHPADK@Z
_TEXT	SEGMENT
_RankingServer$ = 8					; size = 4
_wMsg$ = 12						; size = 4
?GMRankingServerConnect@@YAHPADK@Z PROC			; GMRankingServerConnect, COMDAT

; 1459 : {

  00000	55		 push	 ebp
  00001	8b ec		 mov	 ebp, esp
  00003	56		 push	 esi

; 1460 : 	wsRServerCli.SetProtocolCore(DevilSquareProtocolCore);

  00004	68 00 00 00 00	 push	 OFFSET ?DevilSquareProtocolCore@@YAXEPAEH@Z ; DevilSquareProtocolCore
  00009	b9 00 00 00 00	 mov	 ecx, OFFSET ?wsRServerCli@@3VwsJoinServerCli@@A ; wsRServerCli
  0000e	e8 00 00 00 00	 call	 ?SetProtocolCore@wsJoinServerCli@@QAEHP6AXEPAEH@Z@Z ; wsJoinServerCli::SetProtocolCore

; 1461 : 	int result = wsRServerCli.Connect(RankingServer, RankingPort, wMsg); //RANKING_SERVER_PORT

  00013	0f b7 0d 00 00
	00 00		 movzx	 ecx, WORD PTR ?RankingPort@@3HA
  0001a	8b 45 0c	 mov	 eax, DWORD PTR _wMsg$[ebp]
  0001d	8b 75 08	 mov	 esi, DWORD PTR _RankingServer$[ebp]
  00020	50		 push	 eax
  00021	51		 push	 ecx
  00022	56		 push	 esi
  00023	b9 00 00 00 00	 mov	 ecx, OFFSET ?wsRServerCli@@3VwsJoinServerCli@@A ; wsRServerCli
  00028	e8 00 00 00 00	 call	 ?Connect@wsJoinServerCli@@QAEHPADGK@Z ; wsJoinServerCli::Connect

; 1462 : 	if ( result == 0 )

  0002d	85 c0		 test	 eax, eax
  0002f	75 03		 jne	 SHORT $LN1@GMRankingS
  00031	5e		 pop	 esi

; 1468 : }

  00032	5d		 pop	 ebp
  00033	c3		 ret	 0
$LN1@GMRankingS:

; 1463 : 	{
; 1464 : 		return FALSE;
; 1465 : 	}
; 1466 : 	LogAdd("RankingServer Connect IP [ %s ]", RankingServer);

  00034	56		 push	 esi
  00035	68 00 00 00 00	 push	 OFFSET ??_C@_0CA@GPEDJDDH@RankingServer?5Connect?5IP?5?$FL?5?$CFs?5?$FN?$AA@
  0003a	ff 15 00 00 00
	00		 call	 DWORD PTR ?LogAdd@@3P6AXPADZZA ; LogAdd
  00040	83 c4 08	 add	 esp, 8

; 1467 : 	return TRUE;

  00043	b8 01 00 00 00	 mov	 eax, 1
  00048	5e		 pop	 esi

; 1468 : }

  00049	5d		 pop	 ebp
  0004a	c3		 ret	 0
?GMRankingServerConnect@@YAHPADK@Z ENDP			; GMRankingServerConnect
_TEXT	ENDS
PUBLIC	??_C@_0BM@JEEOGNJB@EventChip?5Connect?5IP?5?$FL?5?$CFs?5?$FN?$AA@ ; `string'
PUBLIC	?GMEventChipServerConnect@@YAHPADK@Z		; GMEventChipServerConnect
EXTRN	?EventChipEventProtocolCore@@YAXEPAEH@Z:PROC	; EventChipEventProtocolCore
;	COMDAT ??_C@_0BM@JEEOGNJB@EventChip?5Connect?5IP?5?$FL?5?$CFs?5?$FN?$AA@
CONST	SEGMENT
??_C@_0BM@JEEOGNJB@EventChip?5Connect?5IP?5?$FL?5?$CFs?5?$FN?$AA@ DB 'Eve'
	DB	'ntChip Connect IP [ %s ]', 00H		; `string'
; Function compile flags: /Ogtp
CONST	ENDS
;	COMDAT ?GMEventChipServerConnect@@YAHPADK@Z
_TEXT	SEGMENT
_ServerIP$ = 8						; size = 4
_wMsg$ = 12						; size = 4
?GMEventChipServerConnect@@YAHPADK@Z PROC		; GMEventChipServerConnect, COMDAT

; 1471 : {

  00000	55		 push	 ebp
  00001	8b ec		 mov	 ebp, esp
  00003	56		 push	 esi

; 1472 : 	wsEvenChipServerCli.SetProtocolCore(EventChipEventProtocolCore);

  00004	68 00 00 00 00	 push	 OFFSET ?EventChipEventProtocolCore@@YAXEPAEH@Z ; EventChipEventProtocolCore
  00009	b9 00 00 00 00	 mov	 ecx, OFFSET ?wsEvenChipServerCli@@3VwsJoinServerCli@@A ; wsEvenChipServerCli
  0000e	e8 00 00 00 00	 call	 ?SetProtocolCore@wsJoinServerCli@@QAEHP6AXEPAEH@Z@Z ; wsJoinServerCli::SetProtocolCore

; 1473 : 	int result = wsEvenChipServerCli.Connect(ServerIP, EventPort, wMsg); //EVENT_CHIP_SERVER_PORT

  00013	0f b7 0d 00 00
	00 00		 movzx	 ecx, WORD PTR ?EventPort@@3HA
  0001a	8b 45 0c	 mov	 eax, DWORD PTR _wMsg$[ebp]
  0001d	8b 75 08	 mov	 esi, DWORD PTR _ServerIP$[ebp]
  00020	50		 push	 eax
  00021	51		 push	 ecx
  00022	56		 push	 esi
  00023	b9 00 00 00 00	 mov	 ecx, OFFSET ?wsEvenChipServerCli@@3VwsJoinServerCli@@A ; wsEvenChipServerCli
  00028	e8 00 00 00 00	 call	 ?Connect@wsJoinServerCli@@QAEHPADGK@Z ; wsJoinServerCli::Connect

; 1474 : 	if ( result == 0 )

  0002d	85 c0		 test	 eax, eax
  0002f	75 03		 jne	 SHORT $LN1@GMEventChi
  00031	5e		 pop	 esi

; 1481 : }

  00032	5d		 pop	 ebp
  00033	c3		 ret	 0
$LN1@GMEventChi:

; 1475 : 	{
; 1476 : 		return FALSE;
; 1477 : 	}
; 1478 : 
; 1479 : 	LogAdd("EventChip Connect IP [ %s ]", ServerIP);

  00034	56		 push	 esi
  00035	68 00 00 00 00	 push	 OFFSET ??_C@_0BM@JEEOGNJB@EventChip?5Connect?5IP?5?$FL?5?$CFs?5?$FN?$AA@
  0003a	ff 15 00 00 00
	00		 call	 DWORD PTR ?LogAdd@@3P6AXPADZZA ; LogAdd
  00040	83 c4 08	 add	 esp, 8

; 1480 : 	return TRUE;

  00043	b8 01 00 00 00	 mov	 eax, 1
  00048	5e		 pop	 esi

; 1481 : }

  00049	5d		 pop	 ebp
  0004a	c3		 ret	 0
?GMEventChipServerConnect@@YAHPADK@Z ENDP		; GMEventChipServerConnect
_TEXT	ENDS
PUBLIC	?GMDataServerConnect@@YAHPADI@Z			; GMDataServerConnect
EXTRN	?DataServerLogin@@YAXH@Z:PROC			; DataServerLogin
EXTRN	?DataServerProtocolCore@@YAXEPAEH@Z:PROC	; DataServerProtocolCore
; Function compile flags: /Ogtp
;	COMDAT ?GMDataServerConnect@@YAHPADI@Z
_TEXT	SEGMENT
_ConnectServer$ = 8					; size = 4
_wMsg$ = 12						; size = 4
?GMDataServerConnect@@YAHPADI@Z PROC			; GMDataServerConnect, COMDAT

; 1484 : {

  00000	55		 push	 ebp
  00001	8b ec		 mov	 ebp, esp
  00003	56		 push	 esi

; 1485 : 	wsDataCli.SetProtocolCore(DataServerProtocolCore);

  00004	68 00 00 00 00	 push	 OFFSET ?DataServerProtocolCore@@YAXEPAEH@Z ; DataServerProtocolCore
  00009	b9 00 00 00 00	 mov	 ecx, OFFSET ?wsDataCli@@3VwsJoinServerCli@@A ; wsDataCli
  0000e	e8 00 00 00 00	 call	 ?SetProtocolCore@wsJoinServerCli@@QAEHP6AXEPAEH@Z@Z ; wsJoinServerCli::SetProtocolCore

; 1486 : 	int result = wsDataCli.Connect(ConnectServer, DataServerPort, wMsg);

  00013	0f b7 0d 00 00
	00 00		 movzx	 ecx, WORD PTR ?DataServerPort@@3HA
  0001a	8b 45 0c	 mov	 eax, DWORD PTR _wMsg$[ebp]
  0001d	8b 75 08	 mov	 esi, DWORD PTR _ConnectServer$[ebp]
  00020	50		 push	 eax
  00021	51		 push	 ecx
  00022	56		 push	 esi
  00023	b9 00 00 00 00	 mov	 ecx, OFFSET ?wsDataCli@@3VwsJoinServerCli@@A ; wsDataCli
  00028	e8 00 00 00 00	 call	 ?Connect@wsJoinServerCli@@QAEHPADGK@Z ; wsJoinServerCli::Connect

; 1487 : 	if ( result == 0 )

  0002d	85 c0		 test	 eax, eax
  0002f	75 26		 jne	 SHORT $LN1@GMDataServ

; 1488 : 	{
; 1489 : 		LogAdd(lMsg.Get(MSGGET(1, 147)), ConnectServer, DataServerPort);

  00031	8b 15 00 00 00
	00		 mov	 edx, DWORD PTR ?DataServerPort@@3HA ; DataServerPort
  00037	52		 push	 edx
  00038	56		 push	 esi
  00039	68 93 01 00 00	 push	 403			; 00000193H
  0003e	b9 00 00 00 00	 mov	 ecx, OFFSET ?lMsg@@3VCMsg@@A ; lMsg
  00043	e8 00 00 00 00	 call	 ?Get@CMsg@@QAEPADH@Z	; CMsg::Get
  00048	50		 push	 eax
  00049	ff 15 00 00 00
	00		 call	 DWORD PTR ?LogAdd@@3P6AXPADZZA ; LogAdd
  0004f	83 c4 0c	 add	 esp, 12			; 0000000cH

; 1490 : 		return FALSE;

  00052	33 c0		 xor	 eax, eax
  00054	5e		 pop	 esi

; 1495 : }

  00055	5d		 pop	 ebp
  00056	c3		 ret	 0
$LN1@GMDataServ:

; 1491 : 	}
; 1492 : 	DataServerLogin(0);

  00057	6a 00		 push	 0
  00059	e8 00 00 00 00	 call	 ?DataServerLogin@@YAXH@Z ; DataServerLogin

; 1493 : 	LogAdd(lMsg.Get(MSGGET(1, 146)), ConnectServer, DataServerPort);

  0005e	a1 00 00 00 00	 mov	 eax, DWORD PTR ?DataServerPort@@3HA ; DataServerPort
  00063	83 c4 04	 add	 esp, 4
  00066	50		 push	 eax
  00067	56		 push	 esi
  00068	68 92 01 00 00	 push	 402			; 00000192H
  0006d	b9 00 00 00 00	 mov	 ecx, OFFSET ?lMsg@@3VCMsg@@A ; lMsg
  00072	e8 00 00 00 00	 call	 ?Get@CMsg@@QAEPADH@Z	; CMsg::Get
  00077	50		 push	 eax
  00078	ff 15 00 00 00
	00		 call	 DWORD PTR ?LogAdd@@3P6AXPADZZA ; LogAdd
  0007e	83 c4 0c	 add	 esp, 12			; 0000000cH

; 1494 : 	return TRUE;

  00081	b8 01 00 00 00	 mov	 eax, 1
  00086	5e		 pop	 esi

; 1495 : }

  00087	5d		 pop	 ebp
  00088	c3		 ret	 0
?GMDataServerConnect@@YAHPADI@Z ENDP			; GMDataServerConnect
_TEXT	ENDS
PUBLIC	??_C@_0BD@INBCGAOC@ZtDB?5Server?5Online?$AA@	; `string'
PUBLIC	?ZtDataServerConnect@@YAHPADK@Z			; ZtDataServerConnect
EXTRN	?LogAddC@@3P6AXEPADZZA:DWORD			; LogAddC
EXTRN	?ZtDataServerLogin@@YAXXZ:PROC			; ZtDataServerLogin
EXTRN	?ZtDataServerProtocolCore@@YAXEPAEH@Z:PROC	; ZtDataServerProtocolCore
;	COMDAT ??_C@_0BD@INBCGAOC@ZtDB?5Server?5Online?$AA@
CONST	SEGMENT
??_C@_0BD@INBCGAOC@ZtDB?5Server?5Online?$AA@ DB 'ZtDB Server Online', 00H ; `string'
; Function compile flags: /Ogtp
CONST	ENDS
;	COMDAT ?ZtDataServerConnect@@YAHPADK@Z
_TEXT	SEGMENT
_ConnectServer$ = 8					; size = 4
_wMsg$ = 12						; size = 4
?ZtDataServerConnect@@YAHPADK@Z PROC			; ZtDataServerConnect, COMDAT

; 1498 : {

  00000	55		 push	 ebp
  00001	8b ec		 mov	 ebp, esp
  00003	56		 push	 esi

; 1499 : 	wsZtDbCli.SetProtocolCore(ZtDataServerProtocolCore);

  00004	68 00 00 00 00	 push	 OFFSET ?ZtDataServerProtocolCore@@YAXEPAEH@Z ; ZtDataServerProtocolCore
  00009	b9 00 00 00 00	 mov	 ecx, OFFSET ?wsZtDbCli@@3VwsJoinServerCli@@A ; wsZtDbCli
  0000e	e8 00 00 00 00	 call	 ?SetProtocolCore@wsJoinServerCli@@QAEHP6AXEPAEH@Z@Z ; wsJoinServerCli::SetProtocolCore

; 1500 : 	int result = wsZtDbCli.Connect(ConnectServer, ZtDbPort, wMsg);

  00013	0f b7 0d 00 00
	00 00		 movzx	 ecx, WORD PTR ?ZtDbPort@@3HA
  0001a	8b 45 0c	 mov	 eax, DWORD PTR _wMsg$[ebp]
  0001d	8b 75 08	 mov	 esi, DWORD PTR _ConnectServer$[ebp]
  00020	50		 push	 eax
  00021	51		 push	 ecx
  00022	56		 push	 esi
  00023	b9 00 00 00 00	 mov	 ecx, OFFSET ?wsZtDbCli@@3VwsJoinServerCli@@A ; wsZtDbCli
  00028	e8 00 00 00 00	 call	 ?Connect@wsJoinServerCli@@QAEHPADGK@Z ; wsJoinServerCli::Connect

; 1501 : 	if ( result == 0 )

  0002d	85 c0		 test	 eax, eax
  0002f	75 26		 jne	 SHORT $LN1@ZtDataServ

; 1502 : 	{
; 1503 : 		LogAdd(lMsg.Get(MSGGET(1, 147)), ConnectServer, ZtDbPort);

  00031	8b 15 00 00 00
	00		 mov	 edx, DWORD PTR ?ZtDbPort@@3HA ; ZtDbPort
  00037	52		 push	 edx
  00038	56		 push	 esi
  00039	68 93 01 00 00	 push	 403			; 00000193H
  0003e	b9 00 00 00 00	 mov	 ecx, OFFSET ?lMsg@@3VCMsg@@A ; lMsg
  00043	e8 00 00 00 00	 call	 ?Get@CMsg@@QAEPADH@Z	; CMsg::Get
  00048	50		 push	 eax
  00049	ff 15 00 00 00
	00		 call	 DWORD PTR ?LogAdd@@3P6AXPADZZA ; LogAdd
  0004f	83 c4 0c	 add	 esp, 12			; 0000000cH

; 1504 : 		return FALSE;

  00052	33 c0		 xor	 eax, eax
  00054	5e		 pop	 esi

; 1510 : }

  00055	5d		 pop	 ebp
  00056	c3		 ret	 0
$LN1@ZtDataServ:

; 1505 : 	}
; 1506 : 
; 1507 : 	ZtDataServerLogin();

  00057	e8 00 00 00 00	 call	 ?ZtDataServerLogin@@YAXXZ ; ZtDataServerLogin

; 1508 : 	LogAddC(2, "ZtDB Server Online");

  0005c	68 00 00 00 00	 push	 OFFSET ??_C@_0BD@INBCGAOC@ZtDB?5Server?5Online?$AA@
  00061	6a 02		 push	 2
  00063	ff 15 00 00 00
	00		 call	 DWORD PTR ?LogAddC@@3P6AXEPADZZA ; LogAddC
  00069	83 c4 08	 add	 esp, 8

; 1509 : 	return TRUE;

  0006c	b8 01 00 00 00	 mov	 eax, 1
  00071	5e		 pop	 esi

; 1510 : }

  00072	5d		 pop	 ebp
  00073	c3		 ret	 0
?ZtDataServerConnect@@YAHPADK@Z ENDP			; ZtDataServerConnect
_TEXT	ENDS
PUBLIC	?GameMainServerCreate@@YAHKK@Z			; GameMainServerCreate
EXTRN	?Begin@CDbSave@@QAEHXZ:PROC			; CDbSave::Begin
; Function compile flags: /Ogtp
;	COMDAT ?GameMainServerCreate@@YAHKK@Z
_TEXT	SEGMENT
_sMsg$ = 8						; size = 4
_cMsg$ = 12						; size = 4
?GameMainServerCreate@@YAHKK@Z PROC			; GameMainServerCreate, COMDAT

; 1514 : 	gDbSave.Begin();

  00000	b9 00 00 00 00	 mov	 ecx, OFFSET ?gDbSave@@3VCDbSave@@A ; gDbSave
  00005	e8 00 00 00 00	 call	 ?Begin@CDbSave@@QAEHXZ	; CDbSave::Begin

; 1515 : 	LogAdd( lMsg.Get( MSGGET(1, 148)), GameServerPort);

  0000a	a1 00 00 00 00	 mov	 eax, DWORD PTR ?GameServerPort@@3HA ; GameServerPort
  0000f	50		 push	 eax
  00010	68 94 01 00 00	 push	 404			; 00000194H
  00015	b9 00 00 00 00	 mov	 ecx, OFFSET ?lMsg@@3VCMsg@@A ; lMsg
  0001a	e8 00 00 00 00	 call	 ?Get@CMsg@@QAEPADH@Z	; CMsg::Get
  0001f	50		 push	 eax
  00020	ff 15 00 00 00
	00		 call	 DWORD PTR ?LogAdd@@3P6AXPADZZA ; LogAdd
  00026	83 c4 08	 add	 esp, 8

; 1516 : 	return TRUE;

  00029	b8 01 00 00 00	 mov	 eax, 1

; 1517 : }

  0002e	c3		 ret	 0
?GameMainServerCreate@@YAHKK@Z ENDP			; GameMainServerCreate
_TEXT	ENDS
PUBLIC	?GMServerMsgProc@@YAXIJ@Z			; GMServerMsgProc
; Function compile flags: /Ogtp
;	COMDAT ?GMServerMsgProc@@YAXIJ@Z
_TEXT	SEGMENT
_wParam$ = 8						; size = 4
_lParam$ = 12						; size = 4
?GMServerMsgProc@@YAXIJ@Z PROC				; GMServerMsgProc, COMDAT

; 1522 : 	
; 1523 : 	switch ( lParam & 0xFFFF & 0xFFFF)
; 1524 : 	{
; 1525 : 	case FD_ACCEPT :
; 1526 : 		/*SOCKET cSocket;
; 1527 : 		IN_ADDR cInAddr;
; 1528 : 		int ClientIndex;
; 1529 : 		//LogAdd("SFD_ACCEPT MESSAGE");
; 1530 : 		if( wsGServer.AcceptSocket(cSocket, cInAddr) == TRUE )
; 1531 : 		{
; 1532 : 			ClientIndex = gObjAddSearch(cSocket, inet_ntoa(cInAddr) );
; 1533 : 
; 1534 : 			int addnumber = gObjAdd(cSocket, inet_ntoa(cInAddr), ClientIndex);
; 1535 : 			if( addnumber >= 0 ) 
; 1536 : 			{
; 1537 : 				SCPJoinResultSend( addnumber, 0x01);
; 1538 : 			}
; 1539 : 			else 
; 1540 : 			{// ??????????? ?..
; 1541 : 				wsGServer.Close(cSocket);
; 1542 : 			}
; 1543 : 		}
; 1544 : 		else {
; 1545 : 			return;
; 1546 : 		}*/
; 1547 : 		break;
; 1548 : 	}
; 1549 : }

  00000	c3		 ret	 0
?GMServerMsgProc@@YAXIJ@Z ENDP				; GMServerMsgProc
_TEXT	ENDS
PUBLIC	?GMClientMsgProc@@YAXIJ@Z			; GMClientMsgProc
EXTRN	?DataRecv@CwsGameServer@@QAEHI@Z:PROC		; CwsGameServer::DataRecv
EXTRN	?FDWRITE_MsgDataSend@CwsGameServer@@QAEHI@Z:PROC ; CwsGameServer::FDWRITE_MsgDataSend
EXTRN	?gObjGetSocket@@YAHI@Z:PROC			; gObjGetSocket
; Function compile flags: /Ogtp
;	COMDAT ?GMClientMsgProc@@YAXIJ@Z
_TEXT	SEGMENT
_wParam$ = 8						; size = 4
_lParam$ = 12						; size = 4
?GMClientMsgProc@@YAXIJ@Z PROC				; GMClientMsgProc, COMDAT

; 1552 : {

  00000	55		 push	 ebp
  00001	8b ec		 mov	 ebp, esp

; 1553 : 	int wp = wParam;
; 1554 : 	int lp = lParam;
; 1555 : 
; 1556 : 	switch ( lParam & 0xFFFF & 0xFFFF)

  00003	8b 45 0c	 mov	 eax, DWORD PTR _lParam$[ebp]
  00006	25 ff ff 00 00	 and	 eax, 65535		; 0000ffffH
  0000b	48		 dec	 eax
  0000c	74 26		 je	 SHORT $LN3@GMClientMs
  0000e	48		 dec	 eax
  0000f	74 13		 je	 SHORT $LN2@GMClientMs
  00011	83 e8 1e	 sub	 eax, 30			; 0000001eH
  00014	75 2c		 jne	 SHORT $LN4@GMClientMs

; 1565 : 			break;
; 1566 : 		case 32:
; 1567 : 			socket = gObjGetSocket(wParam);

  00016	8b 45 08	 mov	 eax, DWORD PTR _wParam$[ebp]
  00019	50		 push	 eax
  0001a	e8 00 00 00 00	 call	 ?gObjGetSocket@@YAHI@Z	; gObjGetSocket
  0001f	83 c4 04	 add	 esp, 4

; 1568 : 			break;
; 1569 : 
; 1570 : 	}
; 1571 : }

  00022	5d		 pop	 ebp
  00023	c3		 ret	 0
$LN2@GMClientMs:

; 1562 : 			break;
; 1563 : 		case 2:
; 1564 : 			wsGServer.FDWRITE_MsgDataSend(wParam);

  00024	8b 4d 08	 mov	 ecx, DWORD PTR _wParam$[ebp]
  00027	51		 push	 ecx
  00028	b9 00 00 00 00	 mov	 ecx, OFFSET ?wsGServer@@3VCwsGameServer@@A ; wsGServer
  0002d	e8 00 00 00 00	 call	 ?FDWRITE_MsgDataSend@CwsGameServer@@QAEHI@Z ; CwsGameServer::FDWRITE_MsgDataSend

; 1568 : 			break;
; 1569 : 
; 1570 : 	}
; 1571 : }

  00032	5d		 pop	 ebp
  00033	c3		 ret	 0
$LN3@GMClientMs:

; 1557 : 	{
; 1558 : 		SOCKET socket;
; 1559 : 
; 1560 : 		case 1:
; 1561 : 			wsGServer.DataRecv(wParam);

  00034	8b 55 08	 mov	 edx, DWORD PTR _wParam$[ebp]
  00037	52		 push	 edx
  00038	b9 00 00 00 00	 mov	 ecx, OFFSET ?wsGServer@@3VCwsGameServer@@A ; wsGServer
  0003d	e8 00 00 00 00	 call	 ?DataRecv@CwsGameServer@@QAEHI@Z ; CwsGameServer::DataRecv
$LN4@GMClientMs:

; 1568 : 			break;
; 1569 : 
; 1570 : 	}
; 1571 : }

  00042	5d		 pop	 ebp
  00043	c3		 ret	 0
?GMClientMsgProc@@YAXIJ@Z ENDP				; GMClientMsgProc
_TEXT	ENDS
PUBLIC	?GMJoinClientMsgProc@@YAXIJ@Z			; GMJoinClientMsgProc
EXTRN	?DataRecv@wsJoinServerCli@@QAEHXZ:PROC		; wsJoinServerCli::DataRecv
EXTRN	?FDWRITE_MsgDataSend@wsJoinServerCli@@QAEHXZ:PROC ; wsJoinServerCli::FDWRITE_MsgDataSend
EXTRN	__imp__SendMessageA@16:PROC
EXTRN	?ghWnd@@3PAUHWND__@@A:DWORD			; ghWnd
; Function compile flags: /Ogtp
;	COMDAT ?GMJoinClientMsgProc@@YAXIJ@Z
_TEXT	SEGMENT
_wParam$ = 8						; size = 4
_lParam$ = 12						; size = 4
?GMJoinClientMsgProc@@YAXIJ@Z PROC			; GMJoinClientMsgProc, COMDAT

; 1574 : {

  00000	55		 push	 ebp
  00001	8b ec		 mov	 ebp, esp

; 1575 : 	switch ( lParam & 0xFFFF & 0xFFFF )

  00003	8b 45 0c	 mov	 eax, DWORD PTR _lParam$[ebp]
  00006	25 ff ff 00 00	 and	 eax, 65535		; 0000ffffH
  0000b	48		 dec	 eax
  0000c	74 42		 je	 SHORT $LN3@GMJoinClie
  0000e	48		 dec	 eax
  0000f	74 34		 je	 SHORT $LN2@GMJoinClie
  00011	83 e8 1e	 sub	 eax, 30			; 0000001eH
  00014	75 2d		 jne	 SHORT $LN4@GMJoinClie

; 1582 : 			break;
; 1583 : 		case 32:
; 1584 : 			LogAddC(2, lMsg.Get(MSGGET(1, 149)));

  00016	68 95 01 00 00	 push	 405			; 00000195H
  0001b	b9 00 00 00 00	 mov	 ecx, OFFSET ?lMsg@@3VCMsg@@A ; lMsg
  00020	e8 00 00 00 00	 call	 ?Get@CMsg@@QAEPADH@Z	; CMsg::Get
  00025	50		 push	 eax
  00026	6a 02		 push	 2
  00028	ff 15 00 00 00
	00		 call	 DWORD PTR ?LogAddC@@3P6AXEPADZZA ; LogAddC

; 1585 : 			SendMessage(ghWnd, WM_CLOSE, 0, 0);

  0002e	a1 00 00 00 00	 mov	 eax, DWORD PTR ?ghWnd@@3PAUHWND__@@A ; ghWnd
  00033	83 c4 08	 add	 esp, 8
  00036	6a 00		 push	 0
  00038	6a 00		 push	 0
  0003a	6a 10		 push	 16			; 00000010H
  0003c	50		 push	 eax
  0003d	ff 15 00 00 00
	00		 call	 DWORD PTR __imp__SendMessageA@16
$LN4@GMJoinClie:

; 1586 : 	}
; 1587 : }

  00043	5d		 pop	 ebp
  00044	c3		 ret	 0
$LN2@GMJoinClie:

; 1579 : 			break;
; 1580 : 		case 2:
; 1581 : 			wsJServerCli.FDWRITE_MsgDataSend();

  00045	b9 00 00 00 00	 mov	 ecx, OFFSET ?wsJServerCli@@3VwsJoinServerCli@@A ; wsJServerCli

; 1586 : 	}
; 1587 : }

  0004a	5d		 pop	 ebp

; 1579 : 			break;
; 1580 : 		case 2:
; 1581 : 			wsJServerCli.FDWRITE_MsgDataSend();

  0004b	e9 00 00 00 00	 jmp	 ?FDWRITE_MsgDataSend@wsJoinServerCli@@QAEHXZ ; wsJoinServerCli::FDWRITE_MsgDataSend
$LN3@GMJoinClie:

; 1576 : 	{
; 1577 : 		case 1:
; 1578 : 			wsJServerCli.DataRecv();

  00050	b9 00 00 00 00	 mov	 ecx, OFFSET ?wsJServerCli@@3VwsJoinServerCli@@A ; wsJServerCli

; 1586 : 	}
; 1587 : }

  00055	5d		 pop	 ebp

; 1576 : 	{
; 1577 : 		case 1:
; 1578 : 			wsJServerCli.DataRecv();

  00056	e9 00 00 00 00	 jmp	 ?DataRecv@wsJoinServerCli@@QAEHXZ ; wsJoinServerCli::DataRecv
?GMJoinClientMsgProc@@YAXIJ@Z ENDP			; GMJoinClientMsgProc
_TEXT	ENDS
PUBLIC	?GMRankingClientMsgProc@@YAXIJ@Z		; GMRankingClientMsgProc
; Function compile flags: /Ogtp
;	COMDAT ?GMRankingClientMsgProc@@YAXIJ@Z
_TEXT	SEGMENT
_wParam$ = 8						; size = 4
_lParam$ = 12						; size = 4
?GMRankingClientMsgProc@@YAXIJ@Z PROC			; GMRankingClientMsgProc, COMDAT

; 1590 : {

  00000	55		 push	 ebp
  00001	8b ec		 mov	 ebp, esp

; 1591 : 	switch ( lParam & 0xFFFF & 0xFFFF )

  00003	8b 45 0c	 mov	 eax, DWORD PTR _lParam$[ebp]
  00006	25 ff ff 00 00	 and	 eax, 65535		; 0000ffffH
  0000b	48		 dec	 eax
  0000c	74 1a		 je	 SHORT $LN3@GMRankingC
  0000e	48		 dec	 eax
  0000f	74 0c		 je	 SHORT $LN2@GMRankingC
  00011	83 e8 1e	 sub	 eax, 30			; 0000001eH
  00014	75 05		 jne	 SHORT $LN4@GMRankingC

; 1598 : 			break;
; 1599 : 		case 32:
; 1600 : 			IsDevilSquareEventConnected = FALSE;

  00016	a3 00 00 00 00	 mov	 DWORD PTR ?IsDevilSquareEventConnected@@3HA, eax ; IsDevilSquareEventConnected
$LN4@GMRankingC:

; 1601 : 	}
; 1602 : }

  0001b	5d		 pop	 ebp
  0001c	c3		 ret	 0
$LN2@GMRankingC:

; 1595 : 			break;
; 1596 : 		case 2:
; 1597 : 			wsRServerCli.FDWRITE_MsgDataSend();

  0001d	b9 00 00 00 00	 mov	 ecx, OFFSET ?wsRServerCli@@3VwsJoinServerCli@@A ; wsRServerCli

; 1601 : 	}
; 1602 : }

  00022	5d		 pop	 ebp

; 1595 : 			break;
; 1596 : 		case 2:
; 1597 : 			wsRServerCli.FDWRITE_MsgDataSend();

  00023	e9 00 00 00 00	 jmp	 ?FDWRITE_MsgDataSend@wsJoinServerCli@@QAEHXZ ; wsJoinServerCli::FDWRITE_MsgDataSend
$LN3@GMRankingC:

; 1592 : 	{
; 1593 : 		case 1:
; 1594 : 			wsRServerCli.DataRecv();

  00028	b9 00 00 00 00	 mov	 ecx, OFFSET ?wsRServerCli@@3VwsJoinServerCli@@A ; wsRServerCli

; 1601 : 	}
; 1602 : }

  0002d	5d		 pop	 ebp

; 1592 : 	{
; 1593 : 		case 1:
; 1594 : 			wsRServerCli.DataRecv();

  0002e	e9 00 00 00 00	 jmp	 ?DataRecv@wsJoinServerCli@@QAEHXZ ; wsJoinServerCli::DataRecv
?GMRankingClientMsgProc@@YAXIJ@Z ENDP			; GMRankingClientMsgProc
_TEXT	ENDS
PUBLIC	?GMEventChipClientMsgProc@@YAXIJ@Z		; GMEventChipClientMsgProc
; Function compile flags: /Ogtp
;	COMDAT ?GMEventChipClientMsgProc@@YAXIJ@Z
_TEXT	SEGMENT
_wParam$ = 8						; size = 4
_lParam$ = 12						; size = 4
?GMEventChipClientMsgProc@@YAXIJ@Z PROC			; GMEventChipClientMsgProc, COMDAT

; 1605 : {

  00000	55		 push	 ebp
  00001	8b ec		 mov	 ebp, esp

; 1606 : 	switch ( lParam & 0xFFFF & 0xFFFF )

  00003	8b 45 0c	 mov	 eax, DWORD PTR _lParam$[ebp]
  00006	25 ff ff 00 00	 and	 eax, 65535		; 0000ffffH
  0000b	48		 dec	 eax
  0000c	74 1a		 je	 SHORT $LN3@GMEventChi@2
  0000e	48		 dec	 eax
  0000f	74 0c		 je	 SHORT $LN2@GMEventChi@2
  00011	83 e8 1e	 sub	 eax, 30			; 0000001eH
  00014	75 05		 jne	 SHORT $LN4@GMEventChi@2

; 1613 : 			break;
; 1614 : 		case 32:
; 1615 : 			IsEventChipServerConnected = FALSE;

  00016	a3 00 00 00 00	 mov	 DWORD PTR ?IsEventChipServerConnected@@3HA, eax ; IsEventChipServerConnected
$LN4@GMEventChi@2:

; 1616 : 	}
; 1617 : }

  0001b	5d		 pop	 ebp
  0001c	c3		 ret	 0
$LN2@GMEventChi@2:

; 1610 : 			break;
; 1611 : 		case 2:
; 1612 : 			wsEvenChipServerCli.FDWRITE_MsgDataSend();

  0001d	b9 00 00 00 00	 mov	 ecx, OFFSET ?wsEvenChipServerCli@@3VwsJoinServerCli@@A ; wsEvenChipServerCli

; 1616 : 	}
; 1617 : }

  00022	5d		 pop	 ebp

; 1610 : 			break;
; 1611 : 		case 2:
; 1612 : 			wsEvenChipServerCli.FDWRITE_MsgDataSend();

  00023	e9 00 00 00 00	 jmp	 ?FDWRITE_MsgDataSend@wsJoinServerCli@@QAEHXZ ; wsJoinServerCli::FDWRITE_MsgDataSend
$LN3@GMEventChi@2:

; 1607 : 	{
; 1608 : 		case 1:
; 1609 : 			wsEvenChipServerCli.DataRecv();

  00028	b9 00 00 00 00	 mov	 ecx, OFFSET ?wsEvenChipServerCli@@3VwsJoinServerCli@@A ; wsEvenChipServerCli

; 1616 : 	}
; 1617 : }

  0002d	5d		 pop	 ebp

; 1607 : 	{
; 1608 : 		case 1:
; 1609 : 			wsEvenChipServerCli.DataRecv();

  0002e	e9 00 00 00 00	 jmp	 ?DataRecv@wsJoinServerCli@@QAEHXZ ; wsJoinServerCli::DataRecv
?GMEventChipClientMsgProc@@YAXIJ@Z ENDP			; GMEventChipClientMsgProc
_TEXT	ENDS
PUBLIC	??_C@_0CO@DFBFHLJO@Error?9L1?5?3?5Friend?5Server?5Down?5?$CIS@ ; `string'
PUBLIC	__$ArrayPad$
PUBLIC	?ZtDataClientMsgProc@@YAXIJ@Z			; ZtDataClientMsgProc
EXTRN	?LogAddTD@@3P6AXPADZZA:DWORD			; LogAddTD
EXTRN	?DataSend@@YAHHPAEK@Z:PROC			; DataSend
EXTRN	?gObjIsConnectedGP@@YAHH@Z:PROC			; gObjIsConnectedGP
EXTRN	?Close@MyWinsockBase@@QAEHXZ:PROC		; MyWinsockBase::Close
;	COMDAT ??_C@_0CO@DFBFHLJO@Error?9L1?5?3?5Friend?5Server?5Down?5?$CIS@
; File e:\work\tranet_version\gs\include\prodef.h
CONST	SEGMENT
??_C@_0CO@DFBFHLJO@Error?9L1?5?3?5Friend?5Server?5Down?5?$CIS@ DB 'Error-'
	DB	'L1 : Friend Server Down (State Send Ok)', 00H ; `string'
; Function compile flags: /Ogtp
; File e:\work\tranet_version\gs\gameserver\gamemain.cpp
CONST	ENDS
;	COMDAT ?ZtDataClientMsgProc@@YAXIJ@Z
_TEXT	SEGMENT
_pMsg$244522 = -20					; size = 14
__$ArrayPad$ = -4					; size = 4
_wParam$ = 8						; size = 4
_lParam$ = 12						; size = 4
?ZtDataClientMsgProc@@YAXIJ@Z PROC			; ZtDataClientMsgProc, COMDAT

; 1620 : {

  00000	55		 push	 ebp
  00001	8b ec		 mov	 ebp, esp
  00003	83 ec 14	 sub	 esp, 20			; 00000014H
  00006	a1 00 00 00 00	 mov	 eax, DWORD PTR ___security_cookie
  0000b	33 c5		 xor	 eax, ebp
  0000d	89 45 fc	 mov	 DWORD PTR __$ArrayPad$[ebp], eax

; 1621 : 	switch ( lParam & 0xFFFF & 0xFFFF )

  00010	8b 45 0c	 mov	 eax, DWORD PTR _lParam$[ebp]
  00013	25 ff ff 00 00	 and	 eax, 65535		; 0000ffffH
  00018	48		 dec	 eax
  00019	0f 84 cc 00 00
	00		 je	 $LN7@ZtDataClie
  0001f	48		 dec	 eax
  00020	0f 84 ad 00 00
	00		 je	 $LN6@ZtDataClie
  00026	83 e8 1e	 sub	 eax, 30			; 0000001eH
  00029	0f 85 c6 00 00
	00		 jne	 $LN8@ZtDataClie

; 1628 : 			break;
; 1629 : 		case 32:
; 1630 : 			LogAddC(2, lMsg.Get(MSGGET(1, 150)));

  0002f	56		 push	 esi
  00030	57		 push	 edi
  00031	68 96 01 00 00	 push	 406			; 00000196H
  00036	b9 00 00 00 00	 mov	 ecx, OFFSET ?lMsg@@3VCMsg@@A ; lMsg
  0003b	e8 00 00 00 00	 call	 ?Get@CMsg@@QAEPADH@Z	; CMsg::Get
  00040	50		 push	 eax
  00041	6a 02		 push	 2
  00043	ff 15 00 00 00
	00		 call	 DWORD PTR ?LogAddC@@3P6AXEPADZZA ; LogAddC
  00049	83 c4 08	 add	 esp, 8

; 1631 : 			wsZtDbCli.Close();

  0004c	b9 04 00 00 00	 mov	 ecx, OFFSET ?wsZtDbCli@@3VwsJoinServerCli@@A+4
  00051	e8 00 00 00 00	 call	 ?Close@MyWinsockBase@@QAEHXZ ; MyWinsockBase::Close

; 1632 : 
; 1633 : 			for ( int i =0;i<OBJMAX;i++)

  00056	33 ff		 xor	 edi, edi
  00058	33 f6		 xor	 esi, esi
  0005a	8d 9b 00 00 00
	00		 npad	 6
$LL4@ZtDataClie:

; 1634 : 			{
; 1635 : 				if ( gObjIsConnectedGP(i) == TRUE )

  00060	57		 push	 edi
  00061	e8 00 00 00 00	 call	 ?gObjIsConnectedGP@@YAHH@Z ; gObjIsConnectedGP
  00066	83 c4 04	 add	 esp, 4
  00069	83 f8 01	 cmp	 eax, 1
  0006c	75 2b		 jne	 SHORT $LN3@ZtDataClie

; 1636 : 				{
; 1637 : 					PMSG_FRIEND_STATE pMsg;
; 1638 : 					
; 1639 : 					pMsg.h.set((LPBYTE)&pMsg, 0xC4 , sizeof(pMsg) );
; 1640 : 					pMsg.State = -4;
; 1641 : 
; 1642 : 					DataSend(i, (LPBYTE)&pMsg, sizeof(pMsg) );

  0006e	6a 0e		 push	 14			; 0000000eH
  00070	8d 45 ec	 lea	 eax, DWORD PTR _pMsg$244522[ebp]
  00073	50		 push	 eax
  00074	57		 push	 edi
  00075	66 c7 45 ec c1
	0e		 mov	 WORD PTR _pMsg$244522[ebp], 3777 ; 00000ec1H
  0007b	c6 45 ee c4	 mov	 BYTE PTR _pMsg$244522[ebp+2], 196 ; 000000c4H
  0007f	c6 45 f9 fc	 mov	 BYTE PTR _pMsg$244522[ebp+13], 252 ; 000000fcH
  00083	e8 00 00 00 00	 call	 ?DataSend@@YAHHPAEK@Z	; DataSend

; 1643 : 
; 1644 : 					gObj[i].m_FriendServerOnline = FRIEND_SERVER_STATE_OFFLINE;

  00088	8b 0d 00 00 00
	00		 mov	 ecx, DWORD PTR ?gObj@@3PAUOBJECTSTRUCT@@A ; gObj
  0008e	83 c4 0c	 add	 esp, 12			; 0000000cH
  00091	c6 84 0e 70 03
	00 00 01	 mov	 BYTE PTR [esi+ecx+880], 1
$LN3@ZtDataClie:

; 1632 : 
; 1633 : 			for ( int i =0;i<OBJMAX;i++)

  00099	81 c6 50 2b 00
	00		 add	 esi, 11088		; 00002b50H
  0009f	47		 inc	 edi
  000a0	81 fe 80 d7 e9
	09		 cmp	 esi, 166320000		; 09e9d780H
  000a6	7c b8		 jl	 SHORT $LL4@ZtDataClie

; 1645 : 				}
; 1646 : 			}
; 1647 : 
; 1648 : 			LogAddTD("Error-L1 : Friend Server Down (State Send Ok)");

  000a8	68 00 00 00 00	 push	 OFFSET ??_C@_0CO@DFBFHLJO@Error?9L1?5?3?5Friend?5Server?5Down?5?$CIS@
  000ad	ff 15 00 00 00
	00		 call	 DWORD PTR ?LogAddTD@@3P6AXPADZZA ; LogAddTD

; 1649 : 			LogAddC(2, "Error-L1 : Friend Server Down (State Send Ok)");

  000b3	68 00 00 00 00	 push	 OFFSET ??_C@_0CO@DFBFHLJO@Error?9L1?5?3?5Friend?5Server?5Down?5?$CIS@
  000b8	6a 02		 push	 2
  000ba	ff 15 00 00 00
	00		 call	 DWORD PTR ?LogAddC@@3P6AXEPADZZA ; LogAddC
  000c0	83 c4 0c	 add	 esp, 12			; 0000000cH
  000c3	5f		 pop	 edi
  000c4	5e		 pop	 esi

; 1650 : 			break;
; 1651 : 	}
; 1652 : }

  000c5	8b 4d fc	 mov	 ecx, DWORD PTR __$ArrayPad$[ebp]
  000c8	33 cd		 xor	 ecx, ebp
  000ca	e8 00 00 00 00	 call	 @__security_check_cookie@4
  000cf	8b e5		 mov	 esp, ebp
  000d1	5d		 pop	 ebp
  000d2	c3		 ret	 0
$LN6@ZtDataClie:

; 1625 : 			break;
; 1626 : 		case 2:
; 1627 : 			wsZtDbCli.FDWRITE_MsgDataSend();

  000d3	b9 00 00 00 00	 mov	 ecx, OFFSET ?wsZtDbCli@@3VwsJoinServerCli@@A ; wsZtDbCli
  000d8	e8 00 00 00 00	 call	 ?FDWRITE_MsgDataSend@wsJoinServerCli@@QAEHXZ ; wsJoinServerCli::FDWRITE_MsgDataSend

; 1650 : 			break;
; 1651 : 	}
; 1652 : }

  000dd	8b 4d fc	 mov	 ecx, DWORD PTR __$ArrayPad$[ebp]
  000e0	33 cd		 xor	 ecx, ebp
  000e2	e8 00 00 00 00	 call	 @__security_check_cookie@4
  000e7	8b e5		 mov	 esp, ebp
  000e9	5d		 pop	 ebp
  000ea	c3		 ret	 0
$LN7@ZtDataClie:

; 1622 : 	{
; 1623 : 		case 1:
; 1624 : 			wsZtDbCli.DataRecv();

  000eb	b9 00 00 00 00	 mov	 ecx, OFFSET ?wsZtDbCli@@3VwsJoinServerCli@@A ; wsZtDbCli
  000f0	e8 00 00 00 00	 call	 ?DataRecv@wsJoinServerCli@@QAEHXZ ; wsJoinServerCli::DataRecv
$LN8@ZtDataClie:

; 1650 : 			break;
; 1651 : 	}
; 1652 : }

  000f5	8b 4d fc	 mov	 ecx, DWORD PTR __$ArrayPad$[ebp]
  000f8	33 cd		 xor	 ecx, ebp
  000fa	e8 00 00 00 00	 call	 @__security_check_cookie@4
  000ff	8b e5		 mov	 esp, ebp
  00101	5d		 pop	 ebp
  00102	c3		 ret	 0
?ZtDataClientMsgProc@@YAXIJ@Z ENDP			; ZtDataClientMsgProc
_TEXT	ENDS
PUBLIC	?GMDataClientMsgProc@@YAXIJ@Z			; GMDataClientMsgProc
; Function compile flags: /Ogtp
;	COMDAT ?GMDataClientMsgProc@@YAXIJ@Z
_TEXT	SEGMENT
_wParam$ = 8						; size = 4
_lParam$ = 12						; size = 4
?GMDataClientMsgProc@@YAXIJ@Z PROC			; GMDataClientMsgProc, COMDAT

; 1655 : {

  00000	55		 push	 ebp
  00001	8b ec		 mov	 ebp, esp

; 1656 : 	switch ( lParam & 0xFFFF & 0xFFFF )

  00003	8b 45 0c	 mov	 eax, DWORD PTR _lParam$[ebp]
  00006	25 ff ff 00 00	 and	 eax, 65535		; 0000ffffH
  0000b	48		 dec	 eax
  0000c	74 30		 je	 SHORT $LN3@GMDataClie
  0000e	48		 dec	 eax
  0000f	74 22		 je	 SHORT $LN2@GMDataClie
  00011	83 e8 1e	 sub	 eax, 30			; 0000001eH
  00014	75 1b		 jne	 SHORT $LN4@GMDataClie

; 1663 : 			break;
; 1664 : 		case 32:
; 1665 : 			LogAddC(2, lMsg.Get(MSGGET(1, 150)));

  00016	68 96 01 00 00	 push	 406			; 00000196H
  0001b	b9 00 00 00 00	 mov	 ecx, OFFSET ?lMsg@@3VCMsg@@A ; lMsg
  00020	e8 00 00 00 00	 call	 ?Get@CMsg@@QAEPADH@Z	; CMsg::Get
  00025	50		 push	 eax
  00026	6a 02		 push	 2
  00028	ff 15 00 00 00
	00		 call	 DWORD PTR ?LogAddC@@3P6AXEPADZZA ; LogAddC
  0002e	83 c4 08	 add	 esp, 8
$LN4@GMDataClie:

; 1666 : 	}
; 1667 : }

  00031	5d		 pop	 ebp
  00032	c3		 ret	 0
$LN2@GMDataClie:

; 1660 : 			break;
; 1661 : 		case 2:
; 1662 : 			wsDataCli.FDWRITE_MsgDataSend();

  00033	b9 00 00 00 00	 mov	 ecx, OFFSET ?wsDataCli@@3VwsJoinServerCli@@A ; wsDataCli

; 1666 : 	}
; 1667 : }

  00038	5d		 pop	 ebp

; 1660 : 			break;
; 1661 : 		case 2:
; 1662 : 			wsDataCli.FDWRITE_MsgDataSend();

  00039	e9 00 00 00 00	 jmp	 ?FDWRITE_MsgDataSend@wsJoinServerCli@@QAEHXZ ; wsJoinServerCli::FDWRITE_MsgDataSend
$LN3@GMDataClie:

; 1657 : 	{
; 1658 : 		case 1:
; 1659 : 			wsDataCli.DataRecv();

  0003e	b9 00 00 00 00	 mov	 ecx, OFFSET ?wsDataCli@@3VwsJoinServerCli@@A ; wsDataCli

; 1666 : 	}
; 1667 : }

  00043	5d		 pop	 ebp

; 1657 : 	{
; 1658 : 		case 1:
; 1659 : 			wsDataCli.DataRecv();

  00044	e9 00 00 00 00	 jmp	 ?DataRecv@wsJoinServerCli@@QAEHXZ ; wsJoinServerCli::DataRecv
?GMDataClientMsgProc@@YAXIJ@Z ENDP			; GMDataClientMsgProc
_TEXT	ENDS
PUBLIC	??_C@_0BE@CLPHHCPK@ChangeCharacterName?$AA@	; `string'
PUBLIC	??_C@_0BC@GLFLPKEG@ConnectMemberLoad?$AA@	; `string'
PUBLIC	??_C@_0L@ECKGLPBM@ServerCode?$AA@		; `string'
PUBLIC	??_C@_0P@EMJDPFDH@GameServerInfo?$AA@		; `string'
PUBLIC	??_C@_0L@FFDIDHBB@ServerName?$AA@		; `string'
PUBLIC	??_C@_00CNPNBAHC@?$AA@				; `string'
PUBLIC	??_C@_0BO@CFKIHFKN@ServerInfo?4dat?5file?5not?5found?$AA@ ; `string'
PUBLIC	??_C@_0BE@ICCEENNB@DATA?2Serverinfo?4dat?$AA@	; `string'
PUBLIC	?ReadServerInfo@@YAXXZ				; ReadServerInfo
EXTRN	__imp__GetPrivateProfileIntA@16:PROC
EXTRN	__imp__GetPrivateProfileStringA@24:PROC
EXTRN	?MsgBox@@YAXPADZZ:PROC				; MsgBox
EXTRN	?IsFile@@YAHPAD@Z:PROC				; IsFile
;	COMDAT ??_C@_0BE@CLPHHCPK@ChangeCharacterName?$AA@
CONST	SEGMENT
??_C@_0BE@CLPHHCPK@ChangeCharacterName?$AA@ DB 'ChangeCharacterName', 00H ; `string'
CONST	ENDS
;	COMDAT ??_C@_0BC@GLFLPKEG@ConnectMemberLoad?$AA@
CONST	SEGMENT
??_C@_0BC@GLFLPKEG@ConnectMemberLoad?$AA@ DB 'ConnectMemberLoad', 00H ; `string'
CONST	ENDS
;	COMDAT ??_C@_0L@ECKGLPBM@ServerCode?$AA@
CONST	SEGMENT
??_C@_0L@ECKGLPBM@ServerCode?$AA@ DB 'ServerCode', 00H	; `string'
CONST	ENDS
;	COMDAT ??_C@_0P@EMJDPFDH@GameServerInfo?$AA@
CONST	SEGMENT
??_C@_0P@EMJDPFDH@GameServerInfo?$AA@ DB 'GameServerInfo', 00H ; `string'
CONST	ENDS
;	COMDAT ??_C@_0L@FFDIDHBB@ServerName?$AA@
CONST	SEGMENT
??_C@_0L@FFDIDHBB@ServerName?$AA@ DB 'ServerName', 00H	; `string'
CONST	ENDS
;	COMDAT ??_C@_00CNPNBAHC@?$AA@
CONST	SEGMENT
??_C@_00CNPNBAHC@?$AA@ DB 00H				; `string'
CONST	ENDS
;	COMDAT ??_C@_0BO@CFKIHFKN@ServerInfo?4dat?5file?5not?5found?$AA@
CONST	SEGMENT
??_C@_0BO@CFKIHFKN@ServerInfo?4dat?5file?5not?5found?$AA@ DB 'ServerInfo.'
	DB	'dat file not found', 00H			; `string'
CONST	ENDS
;	COMDAT ??_C@_0BE@ICCEENNB@DATA?2Serverinfo?4dat?$AA@
CONST	SEGMENT
??_C@_0BE@ICCEENNB@DATA?2Serverinfo?4dat?$AA@ DB 'DATA\Serverinfo.dat', 00H ; `string'
; Function compile flags: /Ogtp
CONST	ENDS
;	COMDAT ?ReadServerInfo@@YAXXZ
_TEXT	SEGMENT
?ReadServerInfo@@YAXXZ PROC				; ReadServerInfo, COMDAT

; 1671 : 	if (!IsFile(SERVER_INFO_PATH))

  00000	68 00 00 00 00	 push	 OFFSET ??_C@_0BE@ICCEENNB@DATA?2Serverinfo?4dat?$AA@
  00005	e8 00 00 00 00	 call	 ?IsFile@@YAHPAD@Z	; IsFile
  0000a	83 c4 04	 add	 esp, 4
  0000d	85 c0		 test	 eax, eax
  0000f	75 0d		 jne	 SHORT $LN1@ReadServer

; 1672 : 	{
; 1673 : 		MsgBox("ServerInfo.dat file not found");

  00011	68 00 00 00 00	 push	 OFFSET ??_C@_0BO@CFKIHFKN@ServerInfo?4dat?5file?5not?5found?$AA@
  00016	e8 00 00 00 00	 call	 ?MsgBox@@YAXPADZZ	; MsgBox
  0001b	83 c4 04	 add	 esp, 4
$LN1@ReadServer:

; 1674 : 	}
; 1675 : 	GetPrivateProfileString("GameServerInfo","ServerName","",szServerName,50,SERVER_INFO_PATH);

  0001e	56		 push	 esi
  0001f	68 00 00 00 00	 push	 OFFSET ??_C@_0BE@ICCEENNB@DATA?2Serverinfo?4dat?$AA@
  00024	6a 32		 push	 50			; 00000032H
  00026	68 00 00 00 00	 push	 OFFSET ?szServerName@@3PADA ; szServerName
  0002b	68 00 00 00 00	 push	 OFFSET ??_C@_00CNPNBAHC@?$AA@
  00030	68 00 00 00 00	 push	 OFFSET ??_C@_0L@FFDIDHBB@ServerName?$AA@
  00035	68 00 00 00 00	 push	 OFFSET ??_C@_0P@EMJDPFDH@GameServerInfo?$AA@
  0003a	ff 15 00 00 00
	00		 call	 DWORD PTR __imp__GetPrivateProfileStringA@24

; 1676 : 	gGameServerCode=GetPrivateProfileInt("GameServerInfo","ServerCode",0,SERVER_INFO_PATH);

  00040	8b 35 00 00 00
	00		 mov	 esi, DWORD PTR __imp__GetPrivateProfileIntA@16
  00046	68 00 00 00 00	 push	 OFFSET ??_C@_0BE@ICCEENNB@DATA?2Serverinfo?4dat?$AA@
  0004b	6a 00		 push	 0
  0004d	68 00 00 00 00	 push	 OFFSET ??_C@_0L@ECKGLPBM@ServerCode?$AA@
  00052	68 00 00 00 00	 push	 OFFSET ??_C@_0P@EMJDPFDH@GameServerInfo?$AA@
  00057	ff d6		 call	 esi

; 1677 : 	bCanConnectMember=GetPrivateProfileInt("GameServerInfo","ConnectMemberLoad",0,SERVER_INFO_PATH);

  00059	68 00 00 00 00	 push	 OFFSET ??_C@_0BE@ICCEENNB@DATA?2Serverinfo?4dat?$AA@
  0005e	6a 00		 push	 0
  00060	68 00 00 00 00	 push	 OFFSET ??_C@_0BC@GLFLPKEG@ConnectMemberLoad?$AA@
  00065	68 00 00 00 00	 push	 OFFSET ??_C@_0P@EMJDPFDH@GameServerInfo?$AA@
  0006a	66 a3 00 00 00
	00		 mov	 WORD PTR ?gGameServerCode@@3FA, ax ; gGameServerCode
  00070	ff d6		 call	 esi

; 1678 : 	bCanChangeCharacterName=GetPrivateProfileInt("GameServerInfo","ChangeCharacterName",0,SERVER_INFO_PATH);

  00072	68 00 00 00 00	 push	 OFFSET ??_C@_0BE@ICCEENNB@DATA?2Serverinfo?4dat?$AA@
  00077	6a 00		 push	 0
  00079	68 00 00 00 00	 push	 OFFSET ??_C@_0BE@CLPHHCPK@ChangeCharacterName?$AA@
  0007e	68 00 00 00 00	 push	 OFFSET ??_C@_0P@EMJDPFDH@GameServerInfo?$AA@
  00083	a3 00 00 00 00	 mov	 DWORD PTR ?bCanConnectMember@@3HA, eax ; bCanConnectMember
  00088	ff d6		 call	 esi
  0008a	a3 00 00 00 00	 mov	 DWORD PTR ?bCanChangeCharacterName@@3HA, eax ; bCanChangeCharacterName
  0008f	5e		 pop	 esi

; 1679 : }

  00090	c3		 ret	 0
?ReadServerInfo@@YAXXZ ENDP				; ReadServerInfo
_TEXT	ENDS
PUBLIC	?GameServerInfoSendStop@@YAXXZ			; GameServerInfoSendStop
; Function compile flags: /Ogtp
;	COMDAT ?GameServerInfoSendStop@@YAXXZ
_TEXT	SEGMENT
?GameServerInfoSendStop@@YAXXZ PROC			; GameServerInfoSendStop, COMDAT

; 2605 : 	GSInfoSendFlag = 0;

  00000	c7 05 00 00 00
	00 00 00 00 00	 mov	 DWORD PTR ?GSInfoSendFlag@@3HA, 0 ; GSInfoSendFlag

; 2606 : }

  0000a	c3		 ret	 0
?GameServerInfoSendStop@@YAXXZ ENDP			; GameServerInfoSendStop
_TEXT	ENDS
PUBLIC	?GameServerInfoSendStart@@YAXXZ			; GameServerInfoSendStart
; Function compile flags: /Ogtp
;	COMDAT ?GameServerInfoSendStart@@YAXXZ
_TEXT	SEGMENT
?GameServerInfoSendStart@@YAXXZ PROC			; GameServerInfoSendStart, COMDAT

; 2610 : 	GSInfoSendFlag = 1;

  00000	c7 05 00 00 00
	00 01 00 00 00	 mov	 DWORD PTR ?GSInfoSendFlag@@3HA, 1 ; GSInfoSendFlag

; 2611 : }

  0000a	c3		 ret	 0
?GameServerInfoSendStart@@YAXXZ ENDP			; GameServerInfoSendStart
_TEXT	ENDS
PUBLIC	__$ArrayPad$
PUBLIC	?GameServerInfoSend@@YAXXZ			; GameServerInfoSend
EXTRN	?SendData@WzUdp@@QAEHPAEK@Z:PROC		; WzUdp::SendData
EXTRN	?Get@CLoginCount@@QAEHXZ:PROC			; CLoginCount::Get
EXTRN	?gServerMaxUser@@3HA:DWORD			; gServerMaxUser
EXTRN	?gObjTotalUser@@3HA:DWORD			; gObjTotalUser
EXTRN	?gDisconnect@@3HA:DWORD				; gDisconnect
; Function compile flags: /Ogtp
;	COMDAT ?GameServerInfoSend@@YAXXZ
_TEXT	SEGMENT
_pMsg$ = -20						; size = 16
__$ArrayPad$ = -4					; size = 4
?GameServerInfoSend@@YAXXZ PROC				; GameServerInfoSend, COMDAT

; 2625 : {

  00000	55		 push	 ebp
  00001	8b ec		 mov	 ebp, esp
  00003	83 ec 14	 sub	 esp, 20			; 00000014H
  00006	a1 00 00 00 00	 mov	 eax, DWORD PTR ___security_cookie
  0000b	33 c5		 xor	 eax, ebp
  0000d	89 45 fc	 mov	 DWORD PTR __$ArrayPad$[ebp], eax

; 2626 : 	PMSG_SERVERINFO pMsg;
; 2627 : 
; 2628 : 	if ( gDisconnect == TRUE )

  00010	b8 01 00 00 00	 mov	 eax, 1
  00015	39 05 00 00 00
	00		 cmp	 DWORD PTR ?gDisconnect@@3HA, eax ; gDisconnect
  0001b	74 70		 je	 SHORT $LN4@GameServer

; 2629 : 	{
; 2630 : 		return;
; 2631 : 	}
; 2632 : 
; 2633 : 	pMsg.h.c = 0xC1;
; 2634 : 	pMsg.h.headcode = 0x01;
; 2635 : 	pMsg.h.size = sizeof( pMsg );
; 2636 : 
; 2637 : 	if ( gObjTotalUser == 0 )

  0001d	8b 0d 00 00 00
	00		 mov	 ecx, DWORD PTR ?gObjTotalUser@@3HA ; gObjTotalUser
  00023	c6 45 ec c1	 mov	 BYTE PTR _pMsg$[ebp], 193 ; 000000c1H
  00027	66 c7 45 ed 10
	01		 mov	 WORD PTR _pMsg$[ebp+1], 272 ; 00000110H
  0002d	85 c9		 test	 ecx, ecx
  0002f	75 05		 jne	 SHORT $LN2@GameServer

; 2638 : 	{
; 2639 : 		pMsg.Percent = 0;

  00031	88 4d f2	 mov	 BYTE PTR _pMsg$[ebp+6], cl

; 2640 : 	}
; 2641 : 	else

  00034	eb 0f		 jmp	 SHORT $LN1@GameServer
$LN2@GameServer:

; 2642 : 	{
; 2643 : 		pMsg.Percent = (gObjTotalUser * 100)/gServerMaxUser;

  00036	8b c1		 mov	 eax, ecx
  00038	6b c0 64	 imul	 eax, 100		; 00000064H
  0003b	99		 cdq
  0003c	f7 3d 00 00 00
	00		 idiv	 DWORD PTR ?gServerMaxUser@@3HA ; gServerMaxUser
  00042	88 45 f2	 mov	 BYTE PTR _pMsg$[ebp+6], al
$LN1@GameServer:

; 2644 : 	}
; 2645 : 
; 2646 : 	pMsg.ServerCode = gGameServerCode;

  00045	66 a1 00 00 00
	00		 mov	 ax, WORD PTR ?gGameServerCode@@3FA ; gGameServerCode

; 2647 : 	pMsg.UserCount = gObjTotalUser;

  0004b	66 89 4d f4	 mov	 WORD PTR _pMsg$[ebp+8], cx

; 2648 : 	pMsg.AccountCount = gLCount[0].Get();

  0004f	b9 00 00 00 00	 mov	 ecx, OFFSET ?gLCount@@3PAVCLoginCount@@A ; gLCount
  00054	66 89 45 f0	 mov	 WORD PTR _pMsg$[ebp+4], ax
  00058	e8 00 00 00 00	 call	 ?Get@CLoginCount@@QAEHXZ ; CLoginCount::Get

; 2649 : 	pMsg.PCbangCount = gLCount[1].Get();

  0005d	b9 04 00 00 00	 mov	 ecx, OFFSET ?gLCount@@3PAVCLoginCount@@A+4
  00062	66 89 45 f6	 mov	 WORD PTR _pMsg$[ebp+10], ax
  00066	e8 00 00 00 00	 call	 ?Get@CLoginCount@@QAEHXZ ; CLoginCount::Get

; 2650 : 	pMsg.MaxUserCount = gServerMaxUser;
; 2651 : 
; 2652 : 	gUdpSoc.SendData((LPBYTE)&pMsg, pMsg.h.size);

  0006b	0f b6 55 ed	 movzx	 edx, BYTE PTR _pMsg$[ebp+1]
  0006f	66 8b 0d 00 00
	00 00		 mov	 cx, WORD PTR ?gServerMaxUser@@3HA
  00076	66 89 45 f8	 mov	 WORD PTR _pMsg$[ebp+12], ax
  0007a	52		 push	 edx
  0007b	8d 45 ec	 lea	 eax, DWORD PTR _pMsg$[ebp]
  0007e	66 89 4d fa	 mov	 WORD PTR _pMsg$[ebp+14], cx
  00082	50		 push	 eax
  00083	b9 00 00 00 00	 mov	 ecx, OFFSET ?gUdpSoc@@3VWzUdp@@A ; gUdpSoc
  00088	e8 00 00 00 00	 call	 ?SendData@WzUdp@@QAEHPAEK@Z ; WzUdp::SendData
$LN4@GameServer:

; 2653 : 
; 2654 : }

  0008d	8b 4d fc	 mov	 ecx, DWORD PTR __$ArrayPad$[ebp]
  00090	33 cd		 xor	 ecx, ebp
  00092	e8 00 00 00 00	 call	 @__security_check_cookie@4
  00097	8b e5		 mov	 esp, ebp
  00099	5d		 pop	 ebp
  0009a	c3		 ret	 0
?GameServerInfoSend@@YAXXZ ENDP				; GameServerInfoSend
_TEXT	ENDS
PUBLIC	?CheckSumFileLoad@@YAXPAD@Z			; CheckSumFileLoad
EXTRN	_memcpy:PROC
; Function compile flags: /Ogtp
;	COMDAT ?CheckSumFileLoad@@YAXPAD@Z
_TEXT	SEGMENT
_szCheckSum$ = 8					; size = 4
?CheckSumFileLoad@@YAXPAD@Z PROC			; CheckSumFileLoad, COMDAT

; 2657 : {

  00000	56		 push	 esi

; 2658 : 	int DataBufferSize;
; 2659 : 	char* DataBuffer;
; 2660 : 
; 2661 : 	gWzAG.RequestData(6);

  00001	6a 06		 push	 6
  00003	b9 00 00 00 00	 mov	 ecx, OFFSET ?gWzAG@@3VWzAG@@A ; gWzAG
  00008	e8 00 00 00 00	 call	 ?RequestData@WzAG@@QAEXH@Z ; WzAG::RequestData

; 2662 : 	DataBufferSize=gWzAG.GetDataBufferSize();

  0000d	b9 00 00 00 00	 mov	 ecx, OFFSET ?gWzAG@@3VWzAG@@A ; gWzAG
  00012	e8 00 00 00 00	 call	 ?GetDataBufferSize@WzAG@@QAEHXZ ; WzAG::GetDataBufferSize

; 2663 : 	DataBuffer=gWzAG.GetDataBuffer();

  00017	b9 00 00 00 00	 mov	 ecx, OFFSET ?gWzAG@@3VWzAG@@A ; gWzAG
  0001c	8b f0		 mov	 esi, eax
  0001e	e8 00 00 00 00	 call	 ?GetDataBuffer@WzAG@@QAEPADXZ ; WzAG::GetDataBuffer

; 2664 : 	memcpy(dwgCheckSum, DataBuffer, DataBufferSize);

  00023	56		 push	 esi
  00024	50		 push	 eax
  00025	68 00 00 00 00	 push	 OFFSET ?dwgCheckSum@@3PAKA ; dwgCheckSum
  0002a	e8 00 00 00 00	 call	 _memcpy
  0002f	83 c4 0c	 add	 esp, 12			; 0000000cH
  00032	5e		 pop	 esi

; 2665 : }

  00033	c3		 ret	 0
?CheckSumFileLoad@@YAXPAD@Z ENDP			; CheckSumFileLoad
_TEXT	ENDS
PUBLIC	??_C@_0CI@KNDJGFLI@?4?4?2Data?2EventItemBags?200_LuckyIt@ ; `string'
PUBLIC	??_C@_0CI@CLKNBHBG@?4?4?2Data?2EventItemBags?200_LuckyIt@ ; `string'
PUBLIC	??_C@_0CD@BFFCCBBL@?4?2EventItemBags?278_BoxOfPurple?4t@ ; `string'
PUBLIC	??_C@_0CA@GGCNDOFE@?4?2EventItemBags?277_BoxOfRed?4txt?$AA@ ; `string'
PUBLIC	??_C@_0CC@BPDPPCBA@?4?2EventItemBags?276_BoxOfGreen?4tx@ ; `string'
PUBLIC	??_C@_0CC@IMPBKLIL@?4?2EventItemBags?274_NewMonster?4tx@ ; `string'
PUBLIC	??_C@_0CI@EHKCPLBJ@?4?2EventItemBags?270_OldJewelleryC@ ; `string'
PUBLIC	??_C@_0CJ@NALLAHMM@?4?2EventItemBags?269_IronJewellery@ ; `string'
PUBLIC	??_C@_0CM@HIMBBFEE@?4?2EventItemBags?268_RefinedJewell@ ; `string'
PUBLIC	??_C@_0CK@MBDNPMOB@?4?2EventItemBags?267_ShineJeweller@ ; `string'
PUBLIC	??_C@_0CB@FDJODHJF@?4?2EventItemBags?265_SilverBox?4txt@ ; `string'
PUBLIC	??_C@_0CB@JOGDAGMB@?4?2EventItemBags?264_GoldenBox?4txt@ ; `string'
PUBLIC	??_C@_0BN@FJLOGBCK@?4?2EventItemBags?255_XMas3?4txt?$AA@ ; `string'
PUBLIC	??_C@_0BL@LAPPJKAE@CProbabilityItemBag1000?5?$CFs?$AA@ ; `string'
PUBLIC	??_C@_0BN@JEHPOOA@?4?2EventItemBags?254_XMas2?4txt?$AA@ ; `string'
PUBLIC	??_C@_0BK@FMDNGJFK@CProbabilityItemBag100?5?$CFs?$AA@ ; `string'
PUBLIC	??_C@_0BN@PLELGFMB@?4?2EventItemBags?253_XMas1?4txt?$AA@ ; `string'
PUBLIC	??_C@_0CG@KIFKFAEO@?4?2EventItemBags?251_CherryBlossom@ ; `string'
PUBLIC	??_C@_0BJ@DHFKEJGE@CProbabilityItemBag?9C?5?$CFs?$AA@ ; `string'
PUBLIC	??_C@_0CG@CKIFODGI@?4?2EventItemBags?250_CherryBlossom@ ; `string'
PUBLIC	??_C@_0BJ@KDKGANE@CProbabilityItemBag?9B?5?$CFs?$AA@ ; `string'
PUBLIC	??_C@_0CG@EMNJNOOF@?4?2EventItemBags?249_CherryBlossom@ ; `string'
PUBLIC	??_C@_0BJ@ENJKBKAE@CProbabilityItemBag?9A?5?$CFs?$AA@ ; `string'
PUBLIC	??_C@_0CG@FFJHCPNF@?4?2EventItemBags?248_CherryBlossom@ ; `string'
PUBLIC	??_C@_0CG@IKMILOFJ@?4?2EventItemBags?246_Rabbit?$CGHarves@ ; `string'
PUBLIC	??_C@_0CH@DCIICPFK@?4?2EventItemBags?244_IllusionTempl@ ; `string'
PUBLIC	??_C@_0CH@JMANMCLP@?4?2EventItemBags?243_IllusionTempl@ ; `string'
PUBLIC	??_C@_0CH@NLBNENB@?4?2EventItemBags?242_IllusionTempl@ ; `string'
PUBLIC	??_C@_0CD@IPCKCLDD@?4?2EventItemBags?258_LuckyCoin30?4t@ ; `string'
PUBLIC	??_C@_0CD@NPCCIEOP@?4?2EventItemBags?257_LuckyCoin20?4t@ ; `string'
PUBLIC	??_C@_0CD@BJICIJD@?4?2EventItemBags?256_LuckyCoin10?4t@ ; `string'
PUBLIC	??_C@_0CG@KLMHMNKI@?4?2EventItemBags?252_RaklionSelupa@ ; `string'
PUBLIC	??_C@_0BH@BOMCJPLK@CProbabilityItemBag?5?$CFs?$AA@ ; `string'
PUBLIC	??_C@_0CD@NCJFELDD@?4?2EventItemBags?245_ReservedBox?4t@ ; `string'
PUBLIC	??_C@_0CL@GANGNHLN@?4?2EventItemBags?240_PCBangGagePur@ ; `string'
PUBLIC	??_C@_0CI@NJLJCOOH@?4?2EventItemBags?239_PCBangGageRed@ ; `string'
PUBLIC	??_C@_0CK@OFOPKNLB@?4?2EventItemBags?238_PCBangGageGre@ ; `string'
PUBLIC	??_C@_0BO@BAONKFF@?4?2EventItemBags?241_GMGift?4txt?$AA@ ; `string'
PUBLIC	??_C@_0CF@CPFDKIPK@?4?2EventItemBags?237_FortunePounch@ ; `string'
PUBLIC	??_C@_0CI@GFDCELJI@?4?2EventItemBags?235_RingEventLeve@ ; `string'
PUBLIC	??_C@_0CB@OJHBACCK@?4?2EventItemBags?234_Halloween?4txt@ ; `string'
PUBLIC	??_C@_0CA@CHJAEGOB@?4?2EventItemBags?2DoubleGoer2?4txt?$AA@ ; `string'
PUBLIC	??_C@_0BP@GBGANNHJ@?4?2EventItemBags?2DoubleGoer?4txt?$AA@ ; `string'
PUBLIC	??_C@_0CI@EKKDLMBP@?4?2EventItemBags?233_KanturuNightm@ ; `string'
PUBLIC	??_C@_0CH@BFFLNGKG@?4?2EventItemBags?232_KanturuMayaHa@ ; `string'
PUBLIC	??_C@_0CG@IDOOAEMP@?4?2EventItemBags?231_CrywolfBalgas@ ; `string'
PUBLIC	??_C@_0CG@JDOLHDFN@?4?2EventItemBags?230_CrywolfDarkEl@ ; `string'
PUBLIC	??_C@_0CI@EOAEGEHN@?4?2EventItemBags?229_DeepBlueCandy@ ; `string'
PUBLIC	??_C@_0CJ@KMFKGEGI@?4?2EventItemBags?228_VermilionCand@ ; `string'
PUBLIC	??_C@_0CL@JHGJDHNP@?4?2EventItemBags?227_LightPurpleCa@ ; `string'
PUBLIC	??_C@_0CI@COGPEILC@?4?2EventItemBags?226_BlueChocolate@ ; `string'
PUBLIC	??_C@_0CH@JGGMOEHL@?4?2EventItemBags?225_RedChocolateB@ ; `string'
PUBLIC	??_C@_0CI@OHMLOKHK@?4?2EventItemBags?224_PinkChocolate@ ; `string'
PUBLIC	??_C@_0CF@DDEIPMCF@?4?2EventItemBags?223_BlueRibbonBox@ ; `string'
PUBLIC	??_C@_0CG@GALPMJFL@?4?2EventItemBags?222_GreenRibbonBo@ ; `string'
PUBLIC	??_C@_0CE@EKBOFJBL@?4?2EventItemBags?221_RedRibbonBox?4@ ; `string'
PUBLIC	??_C@_0CD@KJMGGBIG@?4?2EventItemBags?220_TreasureBox?4t@ ; `string'
PUBLIC	??_C@_0CB@EADLJPLP@?4?2EventItemBags?219_CastleMix?4txt@ ; `string'
PUBLIC	??_C@_0BO@OELONNDL@?4?2EventItemBags?218_Erohim?4txt?$AA@ ; `string'
PUBLIC	??_C@_0BO@BFFKLNGJ@?4?2EventItemBags?217_Kundun?4txt?$AA@ ; `string'
PUBLIC	??_C@_0CF@LKFDLO@?4?2EventItemBags?215_DarkLordHeart@ ; `string'
PUBLIC	??_C@_0CI@OANKAHDH@?4?2EventItemBags?214_RingEventLeve@ ; `string'
PUBLIC	??_C@_0CG@DFKGIHOC@?4?2EventItemBags?213_ChaosCastleBo@ ; `string'
PUBLIC	??_C@_0CE@LAKMIHGD@?4?2EventItemBags?212_BoxOfKundun5?4@ ; `string'
PUBLIC	??_C@_0CE@NIKGNCGP@?4?2EventItemBags?211_BoxOfKundun4?4@ ; `string'
PUBLIC	??_C@_0CE@BCEBGCIP@?4?2EventItemBags?210_BoxOfKundun3?4@ ; `string'
PUBLIC	??_C@_0CE@GCDJBHLB@?4?2EventItemBags?209_BoxOfKundun2?4@ ; `string'
PUBLIC	??_C@_0CE@DDEPOFEH@?4?2EventItemBags?208_BoxOfKundun1?4@ ; `string'
PUBLIC	??_C@_0CD@JIJGCHDO@?4?2EventItemBags?207_SilverMedal?4t@ ; `string'
PUBLIC	??_C@_0CB@JHEJBJFC@?4?2EventItemBags?206_GoldMedal?4txt@ ; `string'
PUBLIC	??_C@_0CL@BGFKMODF@?4?2EventItemBags?205_HeartOfLove?$CGC@ ; `string'
PUBLIC	??_C@_0CC@GMCPCNHJ@?4?2EventItemBags?204_StarOfXMas?4tx@ ; `string'
PUBLIC	??_C@_0CB@OCKCFMEG@?4?2EventItemBags?203_RedDragon?4txt@ ; `string'
PUBLIC	??_C@_0CE@DIFAILMC@?4?2EventItemBags?202_SkeletonKing?4@ ; `string'
PUBLIC	??_C@_0CI@GOAGGLEM@?4?2EventItemBags?201_BoxOfLuck?$CGHea@ ; `string'
PUBLIC	??_C@_0M@GNOCDNGL@CItemBag?5?$CFs?$AA@		; `string'
PUBLIC	?LoadItemBag@@YAXXZ				; LoadItemBag
EXTRN	??3@YAXPAX@Z:PROC				; operator delete
EXTRN	?LoadLuckyItemInfo@LuckyItemManager@@QAEHPAD@Z:PROC ; LuckyItemManager::LoadLuckyItemInfo
EXTRN	?g_LuckyItemManager@@3ULuckyItemManager@@A:BYTE	; g_LuckyItemManager
EXTRN	?Init@CProbabilityItemBag@@QAEXPAD@Z:PROC	; CProbabilityItemBag::Init
EXTRN	??0CProbabilityItemBag@@QAE@XZ:PROC		; CProbabilityItemBag::CProbabilityItemBag
EXTRN	?Init@CItemBagZt@@QAEXPAD@Z:PROC		; CItemBagZt::Init
EXTRN	??0CItemBagZt@@QAE@XZ:PROC			; CItemBagZt::CItemBagZt
EXTRN	?Init@CItemBag@@QAEXPAD@Z:PROC			; CItemBag::Init
EXTRN	??0CItemBag@@QAE@XZ:PROC			; CItemBag::CItemBag
EXTRN	??2@YAPAXI@Z:PROC				; operator new
EXTRN	___CxxFrameHandler3:PROC
;	COMDAT ??_C@_0CI@KNDJGFLI@?4?4?2Data?2EventItemBags?200_LuckyIt@
CONST	SEGMENT
??_C@_0CI@KNDJGFLI@?4?4?2Data?2EventItemBags?200_LuckyIt@ DB '..\Data\Eve'
	DB	'ntItemBags\00_LuckyItem2.txt', 00H		; `string'
CONST	ENDS
;	COMDAT ??_C@_0CI@CLKNBHBG@?4?4?2Data?2EventItemBags?200_LuckyIt@
CONST	SEGMENT
??_C@_0CI@CLKNBHBG@?4?4?2Data?2EventItemBags?200_LuckyIt@ DB '..\Data\Eve'
	DB	'ntItemBags\00_LuckyItem1.txt', 00H		; `string'
CONST	ENDS
;	COMDAT ??_C@_0CD@BFFCCBBL@?4?2EventItemBags?278_BoxOfPurple?4t@
CONST	SEGMENT
??_C@_0CD@BFFCCBBL@?4?2EventItemBags?278_BoxOfPurple?4t@ DB '.\EventItemB'
	DB	'ags\78_BoxOfPurple.txt', 00H		; `string'
CONST	ENDS
;	COMDAT ??_C@_0CA@GGCNDOFE@?4?2EventItemBags?277_BoxOfRed?4txt?$AA@
CONST	SEGMENT
??_C@_0CA@GGCNDOFE@?4?2EventItemBags?277_BoxOfRed?4txt?$AA@ DB '.\EventIt'
	DB	'emBags\77_BoxOfRed.txt', 00H		; `string'
CONST	ENDS
;	COMDAT ??_C@_0CC@BPDPPCBA@?4?2EventItemBags?276_BoxOfGreen?4tx@
CONST	SEGMENT
??_C@_0CC@BPDPPCBA@?4?2EventItemBags?276_BoxOfGreen?4tx@ DB '.\EventItemB'
	DB	'ags\76_BoxOfGreen.txt', 00H			; `string'
CONST	ENDS
;	COMDAT ??_C@_0CC@IMPBKLIL@?4?2EventItemBags?274_NewMonster?4tx@
CONST	SEGMENT
??_C@_0CC@IMPBKLIL@?4?2EventItemBags?274_NewMonster?4tx@ DB '.\EventItemB'
	DB	'ags\74_NewMonster.txt', 00H			; `string'
CONST	ENDS
;	COMDAT ??_C@_0CI@EHKCPLBJ@?4?2EventItemBags?270_OldJewelleryC@
CONST	SEGMENT
??_C@_0CI@EHKCPLBJ@?4?2EventItemBags?270_OldJewelleryC@ DB '.\EventItemBa'
	DB	'gs\70_OldJewelleryCase.txt', 00H		; `string'
CONST	ENDS
;	COMDAT ??_C@_0CJ@NALLAHMM@?4?2EventItemBags?269_IronJewellery@
CONST	SEGMENT
??_C@_0CJ@NALLAHMM@?4?2EventItemBags?269_IronJewellery@ DB '.\EventItemBa'
	DB	'gs\69_IronJewelleryCase.txt', 00H		; `string'
CONST	ENDS
;	COMDAT ??_C@_0CM@HIMBBFEE@?4?2EventItemBags?268_RefinedJewell@
CONST	SEGMENT
??_C@_0CM@HIMBBFEE@?4?2EventItemBags?268_RefinedJewell@ DB '.\EventItemBa'
	DB	'gs\68_RefinedJewelleryCase.txt', 00H	; `string'
CONST	ENDS
;	COMDAT ??_C@_0CK@MBDNPMOB@?4?2EventItemBags?267_ShineJeweller@
CONST	SEGMENT
??_C@_0CK@MBDNPMOB@?4?2EventItemBags?267_ShineJeweller@ DB '.\EventItemBa'
	DB	'gs\67_ShineJewelleryCase.txt', 00H		; `string'
CONST	ENDS
;	COMDAT ??_C@_0CB@FDJODHJF@?4?2EventItemBags?265_SilverBox?4txt@
CONST	SEGMENT
??_C@_0CB@FDJODHJF@?4?2EventItemBags?265_SilverBox?4txt@ DB '.\EventItemB'
	DB	'ags\65_SilverBox.txt', 00H			; `string'
CONST	ENDS
;	COMDAT ??_C@_0CB@JOGDAGMB@?4?2EventItemBags?264_GoldenBox?4txt@
CONST	SEGMENT
??_C@_0CB@JOGDAGMB@?4?2EventItemBags?264_GoldenBox?4txt@ DB '.\EventItemB'
	DB	'ags\64_GoldenBox.txt', 00H			; `string'
CONST	ENDS
;	COMDAT ??_C@_0BN@FJLOGBCK@?4?2EventItemBags?255_XMas3?4txt?$AA@
CONST	SEGMENT
??_C@_0BN@FJLOGBCK@?4?2EventItemBags?255_XMas3?4txt?$AA@ DB '.\EventItemB'
	DB	'ags\55_XMas3.txt', 00H			; `string'
CONST	ENDS
;	COMDAT ??_C@_0BL@LAPPJKAE@CProbabilityItemBag1000?5?$CFs?$AA@
CONST	SEGMENT
??_C@_0BL@LAPPJKAE@CProbabilityItemBag1000?5?$CFs?$AA@ DB 'CProbabilityIt'
	DB	'emBag1000 %s', 00H				; `string'
CONST	ENDS
;	COMDAT ??_C@_0BN@JEHPOOA@?4?2EventItemBags?254_XMas2?4txt?$AA@
CONST	SEGMENT
??_C@_0BN@JEHPOOA@?4?2EventItemBags?254_XMas2?4txt?$AA@ DB '.\EventItemBa'
	DB	'gs\54_XMas2.txt', 00H			; `string'
CONST	ENDS
;	COMDAT ??_C@_0BK@FMDNGJFK@CProbabilityItemBag100?5?$CFs?$AA@
CONST	SEGMENT
??_C@_0BK@FMDNGJFK@CProbabilityItemBag100?5?$CFs?$AA@ DB 'CProbabilityIte'
	DB	'mBag100 %s', 00H				; `string'
CONST	ENDS
;	COMDAT ??_C@_0BN@PLELGFMB@?4?2EventItemBags?253_XMas1?4txt?$AA@
CONST	SEGMENT
??_C@_0BN@PLELGFMB@?4?2EventItemBags?253_XMas1?4txt?$AA@ DB '.\EventItemB'
	DB	'ags\53_XMas1.txt', 00H			; `string'
CONST	ENDS
;	COMDAT ??_C@_0CG@KIFKFAEO@?4?2EventItemBags?251_CherryBlossom@
CONST	SEGMENT
??_C@_0CG@KIFKFAEO@?4?2EventItemBags?251_CherryBlossom@ DB '.\EventItemBa'
	DB	'gs\51_CherryBlossom4.txt', 00H		; `string'
CONST	ENDS
;	COMDAT ??_C@_0BJ@DHFKEJGE@CProbabilityItemBag?9C?5?$CFs?$AA@
CONST	SEGMENT
??_C@_0BJ@DHFKEJGE@CProbabilityItemBag?9C?5?$CFs?$AA@ DB 'CProbabilityIte'
	DB	'mBag-C %s', 00H				; `string'
CONST	ENDS
;	COMDAT ??_C@_0CG@CKIFODGI@?4?2EventItemBags?250_CherryBlossom@
CONST	SEGMENT
??_C@_0CG@CKIFODGI@?4?2EventItemBags?250_CherryBlossom@ DB '.\EventItemBa'
	DB	'gs\50_CherryBlossom3.txt', 00H		; `string'
CONST	ENDS
;	COMDAT ??_C@_0BJ@KDKGANE@CProbabilityItemBag?9B?5?$CFs?$AA@
CONST	SEGMENT
??_C@_0BJ@KDKGANE@CProbabilityItemBag?9B?5?$CFs?$AA@ DB 'CProbabilityItem'
	DB	'Bag-B %s', 00H				; `string'
CONST	ENDS
;	COMDAT ??_C@_0CG@EMNJNOOF@?4?2EventItemBags?249_CherryBlossom@
CONST	SEGMENT
??_C@_0CG@EMNJNOOF@?4?2EventItemBags?249_CherryBlossom@ DB '.\EventItemBa'
	DB	'gs\49_CherryBlossom2.txt', 00H		; `string'
CONST	ENDS
;	COMDAT ??_C@_0BJ@ENJKBKAE@CProbabilityItemBag?9A?5?$CFs?$AA@
CONST	SEGMENT
??_C@_0BJ@ENJKBKAE@CProbabilityItemBag?9A?5?$CFs?$AA@ DB 'CProbabilityIte'
	DB	'mBag-A %s', 00H				; `string'
CONST	ENDS
;	COMDAT ??_C@_0CG@FFJHCPNF@?4?2EventItemBags?248_CherryBlossom@
CONST	SEGMENT
??_C@_0CG@FFJHCPNF@?4?2EventItemBags?248_CherryBlossom@ DB '.\EventItemBa'
	DB	'gs\48_CherryBlossom1.txt', 00H		; `string'
CONST	ENDS
;	COMDAT ??_C@_0CG@IKMILOFJ@?4?2EventItemBags?246_Rabbit?$CGHarves@
CONST	SEGMENT
??_C@_0CG@IKMILOFJ@?4?2EventItemBags?246_Rabbit?$CGHarves@ DB '.\EventIte'
	DB	'mBags\46_Rabbit&Harvest.txt', 00H		; `string'
CONST	ENDS
;	COMDAT ??_C@_0CH@DCIICPFK@?4?2EventItemBags?244_IllusionTempl@
CONST	SEGMENT
??_C@_0CH@DCIICPFK@?4?2EventItemBags?244_IllusionTempl@ DB '.\EventItemBa'
	DB	'gs\44_IllusionTemple3.txt', 00H		; `string'
CONST	ENDS
;	COMDAT ??_C@_0CH@JMANMCLP@?4?2EventItemBags?243_IllusionTempl@
CONST	SEGMENT
??_C@_0CH@JMANMCLP@?4?2EventItemBags?243_IllusionTempl@ DB '.\EventItemBa'
	DB	'gs\43_IllusionTemple2.txt', 00H		; `string'
CONST	ENDS
;	COMDAT ??_C@_0CH@NLBNENB@?4?2EventItemBags?242_IllusionTempl@
CONST	SEGMENT
??_C@_0CH@NLBNENB@?4?2EventItemBags?242_IllusionTempl@ DB '.\EventItemBag'
	DB	's\42_IllusionTemple1.txt', 00H		; `string'
CONST	ENDS
;	COMDAT ??_C@_0CD@IPCKCLDD@?4?2EventItemBags?258_LuckyCoin30?4t@
CONST	SEGMENT
??_C@_0CD@IPCKCLDD@?4?2EventItemBags?258_LuckyCoin30?4t@ DB '.\EventItemB'
	DB	'ags\58_LuckyCoin30.txt', 00H		; `string'
CONST	ENDS
;	COMDAT ??_C@_0CD@NPCCIEOP@?4?2EventItemBags?257_LuckyCoin20?4t@
CONST	SEGMENT
??_C@_0CD@NPCCIEOP@?4?2EventItemBags?257_LuckyCoin20?4t@ DB '.\EventItemB'
	DB	'ags\57_LuckyCoin20.txt', 00H		; `string'
CONST	ENDS
;	COMDAT ??_C@_0CD@BJICIJD@?4?2EventItemBags?256_LuckyCoin10?4t@
CONST	SEGMENT
??_C@_0CD@BJICIJD@?4?2EventItemBags?256_LuckyCoin10?4t@ DB '.\EventItemBa'
	DB	'gs\56_LuckyCoin10.txt', 00H			; `string'
CONST	ENDS
;	COMDAT ??_C@_0CG@KLMHMNKI@?4?2EventItemBags?252_RaklionSelupa@
CONST	SEGMENT
??_C@_0CG@KLMHMNKI@?4?2EventItemBags?252_RaklionSelupa@ DB '.\EventItemBa'
	DB	'gs\52_RaklionSelupan.txt', 00H		; `string'
CONST	ENDS
;	COMDAT ??_C@_0BH@BOMCJPLK@CProbabilityItemBag?5?$CFs?$AA@
CONST	SEGMENT
??_C@_0BH@BOMCJPLK@CProbabilityItemBag?5?$CFs?$AA@ DB 'CProbabilityItemBa'
	DB	'g %s', 00H					; `string'
CONST	ENDS
;	COMDAT ??_C@_0CD@NCJFELDD@?4?2EventItemBags?245_ReservedBox?4t@
CONST	SEGMENT
??_C@_0CD@NCJFELDD@?4?2EventItemBags?245_ReservedBox?4t@ DB '.\EventItemB'
	DB	'ags\45_ReservedBox.txt', 00H		; `string'
CONST	ENDS
;	COMDAT ??_C@_0CL@GANGNHLN@?4?2EventItemBags?240_PCBangGagePur@
CONST	SEGMENT
??_C@_0CL@GANGNHLN@?4?2EventItemBags?240_PCBangGagePur@ DB '.\EventItemBa'
	DB	'gs\40_PCBangGagePurpleBox.txt', 00H		; `string'
CONST	ENDS
;	COMDAT ??_C@_0CI@NJLJCOOH@?4?2EventItemBags?239_PCBangGageRed@
CONST	SEGMENT
??_C@_0CI@NJLJCOOH@?4?2EventItemBags?239_PCBangGageRed@ DB '.\EventItemBa'
	DB	'gs\39_PCBangGageRedBox.txt', 00H		; `string'
CONST	ENDS
;	COMDAT ??_C@_0CK@OFOPKNLB@?4?2EventItemBags?238_PCBangGageGre@
CONST	SEGMENT
??_C@_0CK@OFOPKNLB@?4?2EventItemBags?238_PCBangGageGre@ DB '.\EventItemBa'
	DB	'gs\38_PCBangGageGreenBox.txt', 00H		; `string'
CONST	ENDS
;	COMDAT ??_C@_0BO@BAONKFF@?4?2EventItemBags?241_GMGift?4txt?$AA@
CONST	SEGMENT
??_C@_0BO@BAONKFF@?4?2EventItemBags?241_GMGift?4txt?$AA@ DB '.\EventItemB'
	DB	'ags\41_GMGift.txt', 00H			; `string'
CONST	ENDS
;	COMDAT ??_C@_0CF@CPFDKIPK@?4?2EventItemBags?237_FortunePounch@
CONST	SEGMENT
??_C@_0CF@CPFDKIPK@?4?2EventItemBags?237_FortunePounch@ DB '.\EventItemBa'
	DB	'gs\37_FortunePounch.txt', 00H		; `string'
CONST	ENDS
;	COMDAT ??_C@_0CI@GFDCELJI@?4?2EventItemBags?235_RingEventLeve@
CONST	SEGMENT
??_C@_0CI@GFDCELJI@?4?2EventItemBags?235_RingEventLeve@ DB '.\EventItemBa'
	DB	'gs\35_RingEventLevel40.txt', 00H		; `string'
CONST	ENDS
;	COMDAT ??_C@_0CB@OJHBACCK@?4?2EventItemBags?234_Halloween?4txt@
CONST	SEGMENT
??_C@_0CB@OJHBACCK@?4?2EventItemBags?234_Halloween?4txt@ DB '.\EventItemB'
	DB	'ags\34_Halloween.txt', 00H			; `string'
CONST	ENDS
;	COMDAT ??_C@_0CA@CHJAEGOB@?4?2EventItemBags?2DoubleGoer2?4txt?$AA@
CONST	SEGMENT
??_C@_0CA@CHJAEGOB@?4?2EventItemBags?2DoubleGoer2?4txt?$AA@ DB '.\EventIt'
	DB	'emBags\DoubleGoer2.txt', 00H		; `string'
CONST	ENDS
;	COMDAT ??_C@_0BP@GBGANNHJ@?4?2EventItemBags?2DoubleGoer?4txt?$AA@
CONST	SEGMENT
??_C@_0BP@GBGANNHJ@?4?2EventItemBags?2DoubleGoer?4txt?$AA@ DB '.\EventIte'
	DB	'mBags\DoubleGoer.txt', 00H			; `string'
CONST	ENDS
;	COMDAT ??_C@_0CI@EKKDLMBP@?4?2EventItemBags?233_KanturuNightm@
CONST	SEGMENT
??_C@_0CI@EKKDLMBP@?4?2EventItemBags?233_KanturuNightm@ DB '.\EventItemBa'
	DB	'gs\33_KanturuNightmare.txt', 00H		; `string'
CONST	ENDS
;	COMDAT ??_C@_0CH@BFFLNGKG@?4?2EventItemBags?232_KanturuMayaHa@
CONST	SEGMENT
??_C@_0CH@BFFLNGKG@?4?2EventItemBags?232_KanturuMayaHa@ DB '.\EventItemBa'
	DB	'gs\32_KanturuMayaHand.txt', 00H		; `string'
CONST	ENDS
;	COMDAT ??_C@_0CG@IDOOAEMP@?4?2EventItemBags?231_CrywolfBalgas@
CONST	SEGMENT
??_C@_0CG@IDOOAEMP@?4?2EventItemBags?231_CrywolfBalgas@ DB '.\EventItemBa'
	DB	'gs\31_CrywolfBalgass.txt', 00H		; `string'
CONST	ENDS
;	COMDAT ??_C@_0CG@JDOLHDFN@?4?2EventItemBags?230_CrywolfDarkEl@
CONST	SEGMENT
??_C@_0CG@JDOLHDFN@?4?2EventItemBags?230_CrywolfDarkEl@ DB '.\EventItemBa'
	DB	'gs\30_CrywolfDarkElf.txt', 00H		; `string'
CONST	ENDS
;	COMDAT ??_C@_0CI@EOAEGEHN@?4?2EventItemBags?229_DeepBlueCandy@
CONST	SEGMENT
??_C@_0CI@EOAEGEHN@?4?2EventItemBags?229_DeepBlueCandy@ DB '.\EventItemBa'
	DB	'gs\29_DeepBlueCandyBox.txt', 00H		; `string'
CONST	ENDS
;	COMDAT ??_C@_0CJ@KMFKGEGI@?4?2EventItemBags?228_VermilionCand@
CONST	SEGMENT
??_C@_0CJ@KMFKGEGI@?4?2EventItemBags?228_VermilionCand@ DB '.\EventItemBa'
	DB	'gs\28_VermilionCandyBox.txt', 00H		; `string'
CONST	ENDS
;	COMDAT ??_C@_0CL@JHGJDHNP@?4?2EventItemBags?227_LightPurpleCa@
CONST	SEGMENT
??_C@_0CL@JHGJDHNP@?4?2EventItemBags?227_LightPurpleCa@ DB '.\EventItemBa'
	DB	'gs\27_LightPurpleCandyBox.txt', 00H		; `string'
CONST	ENDS
;	COMDAT ??_C@_0CI@COGPEILC@?4?2EventItemBags?226_BlueChocolate@
CONST	SEGMENT
??_C@_0CI@COGPEILC@?4?2EventItemBags?226_BlueChocolate@ DB '.\EventItemBa'
	DB	'gs\26_BlueChocolateBox.txt', 00H		; `string'
CONST	ENDS
;	COMDAT ??_C@_0CH@JGGMOEHL@?4?2EventItemBags?225_RedChocolateB@
CONST	SEGMENT
??_C@_0CH@JGGMOEHL@?4?2EventItemBags?225_RedChocolateB@ DB '.\EventItemBa'
	DB	'gs\25_RedChocolateBox.txt', 00H		; `string'
CONST	ENDS
;	COMDAT ??_C@_0CI@OHMLOKHK@?4?2EventItemBags?224_PinkChocolate@
CONST	SEGMENT
??_C@_0CI@OHMLOKHK@?4?2EventItemBags?224_PinkChocolate@ DB '.\EventItemBa'
	DB	'gs\24_PinkChocolateBox.txt', 00H		; `string'
CONST	ENDS
;	COMDAT ??_C@_0CF@DDEIPMCF@?4?2EventItemBags?223_BlueRibbonBox@
CONST	SEGMENT
??_C@_0CF@DDEIPMCF@?4?2EventItemBags?223_BlueRibbonBox@ DB '.\EventItemBa'
	DB	'gs\23_BlueRibbonBox.txt', 00H		; `string'
CONST	ENDS
;	COMDAT ??_C@_0CG@GALPMJFL@?4?2EventItemBags?222_GreenRibbonBo@
CONST	SEGMENT
??_C@_0CG@GALPMJFL@?4?2EventItemBags?222_GreenRibbonBo@ DB '.\EventItemBa'
	DB	'gs\22_GreenRibbonBox.txt', 00H		; `string'
CONST	ENDS
;	COMDAT ??_C@_0CE@EKBOFJBL@?4?2EventItemBags?221_RedRibbonBox?4@
CONST	SEGMENT
??_C@_0CE@EKBOFJBL@?4?2EventItemBags?221_RedRibbonBox?4@ DB '.\EventItemB'
	DB	'ags\21_RedRibbonBox.txt', 00H		; `string'
CONST	ENDS
;	COMDAT ??_C@_0CD@KJMGGBIG@?4?2EventItemBags?220_TreasureBox?4t@
CONST	SEGMENT
??_C@_0CD@KJMGGBIG@?4?2EventItemBags?220_TreasureBox?4t@ DB '.\EventItemB'
	DB	'ags\20_TreasureBox.txt', 00H		; `string'
CONST	ENDS
;	COMDAT ??_C@_0CB@EADLJPLP@?4?2EventItemBags?219_CastleMix?4txt@
CONST	SEGMENT
??_C@_0CB@EADLJPLP@?4?2EventItemBags?219_CastleMix?4txt@ DB '.\EventItemB'
	DB	'ags\19_CastleMix.txt', 00H			; `string'
CONST	ENDS
;	COMDAT ??_C@_0BO@OELONNDL@?4?2EventItemBags?218_Erohim?4txt?$AA@
CONST	SEGMENT
??_C@_0BO@OELONNDL@?4?2EventItemBags?218_Erohim?4txt?$AA@ DB '.\EventItem'
	DB	'Bags\18_Erohim.txt', 00H			; `string'
CONST	ENDS
;	COMDAT ??_C@_0BO@BFFKLNGJ@?4?2EventItemBags?217_Kundun?4txt?$AA@
CONST	SEGMENT
??_C@_0BO@BFFKLNGJ@?4?2EventItemBags?217_Kundun?4txt?$AA@ DB '.\EventItem'
	DB	'Bags\17_Kundun.txt', 00H			; `string'
CONST	ENDS
;	COMDAT ??_C@_0CF@LKFDLO@?4?2EventItemBags?215_DarkLordHeart@
CONST	SEGMENT
??_C@_0CF@LKFDLO@?4?2EventItemBags?215_DarkLordHeart@ DB '.\EventItemBags'
	DB	'\15_DarkLordHeart.txt', 00H			; `string'
CONST	ENDS
;	COMDAT ??_C@_0CI@OANKAHDH@?4?2EventItemBags?214_RingEventLeve@
CONST	SEGMENT
??_C@_0CI@OANKAHDH@?4?2EventItemBags?214_RingEventLeve@ DB '.\EventItemBa'
	DB	'gs\14_RingEventLevel80.txt', 00H		; `string'
CONST	ENDS
;	COMDAT ??_C@_0CG@DFKGIHOC@?4?2EventItemBags?213_ChaosCastleBo@
CONST	SEGMENT
??_C@_0CG@DFKGIHOC@?4?2EventItemBags?213_ChaosCastleBo@ DB '.\EventItemBa'
	DB	'gs\13_ChaosCastleBox.txt', 00H		; `string'
CONST	ENDS
;	COMDAT ??_C@_0CE@LAKMIHGD@?4?2EventItemBags?212_BoxOfKundun5?4@
CONST	SEGMENT
??_C@_0CE@LAKMIHGD@?4?2EventItemBags?212_BoxOfKundun5?4@ DB '.\EventItemB'
	DB	'ags\12_BoxOfKundun5.txt', 00H		; `string'
CONST	ENDS
;	COMDAT ??_C@_0CE@NIKGNCGP@?4?2EventItemBags?211_BoxOfKundun4?4@
CONST	SEGMENT
??_C@_0CE@NIKGNCGP@?4?2EventItemBags?211_BoxOfKundun4?4@ DB '.\EventItemB'
	DB	'ags\11_BoxOfKundun4.txt', 00H		; `string'
CONST	ENDS
;	COMDAT ??_C@_0CE@BCEBGCIP@?4?2EventItemBags?210_BoxOfKundun3?4@
CONST	SEGMENT
??_C@_0CE@BCEBGCIP@?4?2EventItemBags?210_BoxOfKundun3?4@ DB '.\EventItemB'
	DB	'ags\10_BoxOfKundun3.txt', 00H		; `string'
CONST	ENDS
;	COMDAT ??_C@_0CE@GCDJBHLB@?4?2EventItemBags?209_BoxOfKundun2?4@
CONST	SEGMENT
??_C@_0CE@GCDJBHLB@?4?2EventItemBags?209_BoxOfKundun2?4@ DB '.\EventItemB'
	DB	'ags\09_BoxOfKundun2.txt', 00H		; `string'
CONST	ENDS
;	COMDAT ??_C@_0CE@DDEPOFEH@?4?2EventItemBags?208_BoxOfKundun1?4@
CONST	SEGMENT
??_C@_0CE@DDEPOFEH@?4?2EventItemBags?208_BoxOfKundun1?4@ DB '.\EventItemB'
	DB	'ags\08_BoxOfKundun1.txt', 00H		; `string'
CONST	ENDS
;	COMDAT ??_C@_0CD@JIJGCHDO@?4?2EventItemBags?207_SilverMedal?4t@
CONST	SEGMENT
??_C@_0CD@JIJGCHDO@?4?2EventItemBags?207_SilverMedal?4t@ DB '.\EventItemB'
	DB	'ags\07_SilverMedal.txt', 00H		; `string'
CONST	ENDS
;	COMDAT ??_C@_0CB@JHEJBJFC@?4?2EventItemBags?206_GoldMedal?4txt@
CONST	SEGMENT
??_C@_0CB@JHEJBJFC@?4?2EventItemBags?206_GoldMedal?4txt@ DB '.\EventItemB'
	DB	'ags\06_GoldMedal.txt', 00H			; `string'
CONST	ENDS
;	COMDAT ??_C@_0CL@BGFKMODF@?4?2EventItemBags?205_HeartOfLove?$CGC@
CONST	SEGMENT
??_C@_0CL@BGFKMODF@?4?2EventItemBags?205_HeartOfLove?$CGC@ DB '.\EventIte'
	DB	'mBags\05_HeartOfLove&Cracker.txt', 00H	; `string'
CONST	ENDS
;	COMDAT ??_C@_0CC@GMCPCNHJ@?4?2EventItemBags?204_StarOfXMas?4tx@
CONST	SEGMENT
??_C@_0CC@GMCPCNHJ@?4?2EventItemBags?204_StarOfXMas?4tx@ DB '.\EventItemB'
	DB	'ags\04_StarOfXMas.txt', 00H			; `string'
CONST	ENDS
;	COMDAT ??_C@_0CB@OCKCFMEG@?4?2EventItemBags?203_RedDragon?4txt@
CONST	SEGMENT
??_C@_0CB@OCKCFMEG@?4?2EventItemBags?203_RedDragon?4txt@ DB '.\EventItemB'
	DB	'ags\03_RedDragon.txt', 00H			; `string'
CONST	ENDS
;	COMDAT ??_C@_0CE@DIFAILMC@?4?2EventItemBags?202_SkeletonKing?4@
CONST	SEGMENT
??_C@_0CE@DIFAILMC@?4?2EventItemBags?202_SkeletonKing?4@ DB '.\EventItemB'
	DB	'ags\02_SkeletonKing.txt', 00H		; `string'
CONST	ENDS
;	COMDAT ??_C@_0CI@GOAGGLEM@?4?2EventItemBags?201_BoxOfLuck?$CGHea@
CONST	SEGMENT
??_C@_0CI@GOAGGLEM@?4?2EventItemBags?201_BoxOfLuck?$CGHea@ DB '.\EventIte'
	DB	'mBags\01_BoxOfLuck&Heaven.txt', 00H		; `string'
CONST	ENDS
;	COMDAT ??_C@_0M@GNOCDNGL@CItemBag?5?$CFs?$AA@
CONST	SEGMENT
??_C@_0M@GNOCDNGL@CItemBag?5?$CFs?$AA@ DB 'CItemBag %s', 00H ; `string'
CONST	ENDS
;	COMDAT xdata$x
xdata$x	SEGMENT
__ehfuncinfo$?LoadItemBag@@YAXXZ DD 019930522H
	DD	044H
	DD	FLAT:__unwindtable$?LoadItemBag@@YAXXZ
	DD	2 DUP(00H)
	DD	2 DUP(00H)
	DD	00H
	DD	01H
__unwindtable$?LoadItemBag@@YAXXZ DD 0ffffffffH
	DD	FLAT:__unwindfunclet$?LoadItemBag@@YAXXZ$0
	DD	0ffffffffH
	DD	FLAT:__unwindfunclet$?LoadItemBag@@YAXXZ$1
	DD	0ffffffffH
	DD	FLAT:__unwindfunclet$?LoadItemBag@@YAXXZ$2
	DD	0ffffffffH
	DD	FLAT:__unwindfunclet$?LoadItemBag@@YAXXZ$3
	DD	0ffffffffH
	DD	FLAT:__unwindfunclet$?LoadItemBag@@YAXXZ$4
	DD	0ffffffffH
	DD	FLAT:__unwindfunclet$?LoadItemBag@@YAXXZ$5
	DD	0ffffffffH
	DD	FLAT:__unwindfunclet$?LoadItemBag@@YAXXZ$6
	DD	0ffffffffH
	DD	FLAT:__unwindfunclet$?LoadItemBag@@YAXXZ$7
	DD	0ffffffffH
	DD	FLAT:__unwindfunclet$?LoadItemBag@@YAXXZ$8
	DD	0ffffffffH
	DD	FLAT:__unwindfunclet$?LoadItemBag@@YAXXZ$9
	DD	0ffffffffH
	DD	FLAT:__unwindfunclet$?LoadItemBag@@YAXXZ$10
	DD	0ffffffffH
	DD	FLAT:__unwindfunclet$?LoadItemBag@@YAXXZ$11
	DD	0ffffffffH
	DD	FLAT:__unwindfunclet$?LoadItemBag@@YAXXZ$12
	DD	0ffffffffH
	DD	FLAT:__unwindfunclet$?LoadItemBag@@YAXXZ$13
	DD	0ffffffffH
	DD	FLAT:__unwindfunclet$?LoadItemBag@@YAXXZ$14
	DD	0ffffffffH
	DD	FLAT:__unwindfunclet$?LoadItemBag@@YAXXZ$15
	DD	0ffffffffH
	DD	FLAT:__unwindfunclet$?LoadItemBag@@YAXXZ$16
	DD	0ffffffffH
	DD	FLAT:__unwindfunclet$?LoadItemBag@@YAXXZ$17
	DD	0ffffffffH
	DD	FLAT:__unwindfunclet$?LoadItemBag@@YAXXZ$18
	DD	0ffffffffH
	DD	FLAT:__unwindfunclet$?LoadItemBag@@YAXXZ$19
	DD	0ffffffffH
	DD	FLAT:__unwindfunclet$?LoadItemBag@@YAXXZ$20
	DD	0ffffffffH
	DD	FLAT:__unwindfunclet$?LoadItemBag@@YAXXZ$21
	DD	0ffffffffH
	DD	FLAT:__unwindfunclet$?LoadItemBag@@YAXXZ$22
	DD	0ffffffffH
	DD	FLAT:__unwindfunclet$?LoadItemBag@@YAXXZ$23
	DD	0ffffffffH
	DD	FLAT:__unwindfunclet$?LoadItemBag@@YAXXZ$24
	DD	0ffffffffH
	DD	FLAT:__unwindfunclet$?LoadItemBag@@YAXXZ$25
	DD	0ffffffffH
	DD	FLAT:__unwindfunclet$?LoadItemBag@@YAXXZ$26
	DD	0ffffffffH
	DD	FLAT:__unwindfunclet$?LoadItemBag@@YAXXZ$27
	DD	0ffffffffH
	DD	FLAT:__unwindfunclet$?LoadItemBag@@YAXXZ$28
	DD	0ffffffffH
	DD	FLAT:__unwindfunclet$?LoadItemBag@@YAXXZ$29
	DD	0ffffffffH
	DD	FLAT:__unwindfunclet$?LoadItemBag@@YAXXZ$30
	DD	0ffffffffH
	DD	FLAT:__unwindfunclet$?LoadItemBag@@YAXXZ$31
	DD	0ffffffffH
	DD	FLAT:__unwindfunclet$?LoadItemBag@@YAXXZ$32
	DD	0ffffffffH
	DD	FLAT:__unwindfunclet$?LoadItemBag@@YAXXZ$33
	DD	0ffffffffH
	DD	FLAT:__unwindfunclet$?LoadItemBag@@YAXXZ$34
	DD	0ffffffffH
	DD	FLAT:__unwindfunclet$?LoadItemBag@@YAXXZ$35
	DD	0ffffffffH
	DD	FLAT:__unwindfunclet$?LoadItemBag@@YAXXZ$36
	DD	0ffffffffH
	DD	FLAT:__unwindfunclet$?LoadItemBag@@YAXXZ$37
	DD	0ffffffffH
	DD	FLAT:__unwindfunclet$?LoadItemBag@@YAXXZ$38
	DD	0ffffffffH
	DD	FLAT:__unwindfunclet$?LoadItemBag@@YAXXZ$39
	DD	0ffffffffH
	DD	FLAT:__unwindfunclet$?LoadItemBag@@YAXXZ$40
	DD	0ffffffffH
	DD	FLAT:__unwindfunclet$?LoadItemBag@@YAXXZ$41
	DD	0ffffffffH
	DD	FLAT:__unwindfunclet$?LoadItemBag@@YAXXZ$42
	DD	0ffffffffH
	DD	FLAT:__unwindfunclet$?LoadItemBag@@YAXXZ$43
	DD	0ffffffffH
	DD	FLAT:__unwindfunclet$?LoadItemBag@@YAXXZ$44
	DD	0ffffffffH
	DD	FLAT:__unwindfunclet$?LoadItemBag@@YAXXZ$45
	DD	0ffffffffH
	DD	FLAT:__unwindfunclet$?LoadItemBag@@YAXXZ$46
	DD	0ffffffffH
	DD	FLAT:__unwindfunclet$?LoadItemBag@@YAXXZ$47
	DD	0ffffffffH
	DD	FLAT:__unwindfunclet$?LoadItemBag@@YAXXZ$48
	DD	0ffffffffH
	DD	FLAT:__unwindfunclet$?LoadItemBag@@YAXXZ$49
	DD	0ffffffffH
	DD	FLAT:__unwindfunclet$?LoadItemBag@@YAXXZ$50
	DD	0ffffffffH
	DD	FLAT:__unwindfunclet$?LoadItemBag@@YAXXZ$51
	DD	0ffffffffH
	DD	FLAT:__unwindfunclet$?LoadItemBag@@YAXXZ$52
	DD	0ffffffffH
	DD	FLAT:__unwindfunclet$?LoadItemBag@@YAXXZ$53
	DD	0ffffffffH
	DD	FLAT:__unwindfunclet$?LoadItemBag@@YAXXZ$54
	DD	0ffffffffH
	DD	FLAT:__unwindfunclet$?LoadItemBag@@YAXXZ$55
	DD	0ffffffffH
	DD	FLAT:__unwindfunclet$?LoadItemBag@@YAXXZ$56
	DD	0ffffffffH
	DD	FLAT:__unwindfunclet$?LoadItemBag@@YAXXZ$57
	DD	0ffffffffH
	DD	FLAT:__unwindfunclet$?LoadItemBag@@YAXXZ$58
	DD	0ffffffffH
	DD	FLAT:__unwindfunclet$?LoadItemBag@@YAXXZ$59
	DD	0ffffffffH
	DD	FLAT:__unwindfunclet$?LoadItemBag@@YAXXZ$60
	DD	0ffffffffH
	DD	FLAT:__unwindfunclet$?LoadItemBag@@YAXXZ$61
	DD	0ffffffffH
	DD	FLAT:__unwindfunclet$?LoadItemBag@@YAXXZ$62
	DD	0ffffffffH
	DD	FLAT:__unwindfunclet$?LoadItemBag@@YAXXZ$63
	DD	0ffffffffH
	DD	FLAT:__unwindfunclet$?LoadItemBag@@YAXXZ$64
	DD	0ffffffffH
	DD	FLAT:__unwindfunclet$?LoadItemBag@@YAXXZ$65
	DD	0ffffffffH
	DD	FLAT:__unwindfunclet$?LoadItemBag@@YAXXZ$66
	DD	0ffffffffH
	DD	FLAT:__unwindfunclet$?LoadItemBag@@YAXXZ$67
; Function compile flags: /Ogtp
xdata$x	ENDS
;	COMDAT ?LoadItemBag@@YAXXZ
_TEXT	SEGMENT
$T247547 = -16						; size = 4
$T247539 = -16						; size = 4
$T247531 = -16						; size = 4
$T247523 = -16						; size = 4
$T247515 = -16						; size = 4
$T247507 = -16						; size = 4
$T247499 = -16						; size = 4
$T247491 = -16						; size = 4
$T247483 = -16						; size = 4
$T247475 = -16						; size = 4
$T247467 = -16						; size = 4
$T247459 = -16						; size = 4
$T247451 = -16						; size = 4
$T247443 = -16						; size = 4
$T247435 = -16						; size = 4
$T247427 = -16						; size = 4
$T247419 = -16						; size = 4
$T247411 = -16						; size = 4
$T247403 = -16						; size = 4
$T247395 = -16						; size = 4
$T247387 = -16						; size = 4
$T247379 = -16						; size = 4
$T247371 = -16						; size = 4
$T247363 = -16						; size = 4
$T247355 = -16						; size = 4
$T247347 = -16						; size = 4
$T247339 = -16						; size = 4
$T247331 = -16						; size = 4
$T247323 = -16						; size = 4
$T247315 = -16						; size = 4
$T247307 = -16						; size = 4
$T247299 = -16						; size = 4
$T247291 = -16						; size = 4
$T247283 = -16						; size = 4
$T247275 = -16						; size = 4
$T247267 = -16						; size = 4
$T247259 = -16						; size = 4
$T247251 = -16						; size = 4
$T247243 = -16						; size = 4
$T247235 = -16						; size = 4
$T247227 = -16						; size = 4
$T247219 = -16						; size = 4
$T247211 = -16						; size = 4
$T247203 = -16						; size = 4
$T247195 = -16						; size = 4
$T247187 = -16						; size = 4
$T247179 = -16						; size = 4
$T247171 = -16						; size = 4
$T247163 = -16						; size = 4
$T247155 = -16						; size = 4
$T247147 = -16						; size = 4
$T247139 = -16						; size = 4
$T247131 = -16						; size = 4
$T247123 = -16						; size = 4
$T247115 = -16						; size = 4
$T247107 = -16						; size = 4
$T247099 = -16						; size = 4
$T247091 = -16						; size = 4
$T247083 = -16						; size = 4
$T247075 = -16						; size = 4
$T247067 = -16						; size = 4
$T247059 = -16						; size = 4
$T247051 = -16						; size = 4
$T247043 = -16						; size = 4
$T247035 = -16						; size = 4
$T247027 = -16						; size = 4
$T247019 = -16						; size = 4
$T247011 = -16						; size = 4
__$EHRec$ = -12						; size = 12
?LoadItemBag@@YAXXZ PROC				; LoadItemBag, COMDAT

; 2668 : {

  00000	55		 push	 ebp
  00001	8b ec		 mov	 ebp, esp
  00003	6a ff		 push	 -1
  00005	68 00 00 00 00	 push	 __ehhandler$?LoadItemBag@@YAXXZ
  0000a	64 a1 00 00 00
	00		 mov	 eax, DWORD PTR fs:0
  00010	50		 push	 eax
  00011	51		 push	 ecx
  00012	56		 push	 esi
  00013	a1 00 00 00 00	 mov	 eax, DWORD PTR ___security_cookie
  00018	33 c5		 xor	 eax, ebp
  0001a	50		 push	 eax
  0001b	8d 45 f4	 lea	 eax, DWORD PTR __$EHRec$[ebp]
  0001e	64 a3 00 00 00
	00		 mov	 DWORD PTR fs:0, eax

; 2669 : 	if ( LuckboxItemBag != FALSE )

  00024	8b 0d 00 00 00
	00		 mov	 ecx, DWORD PTR ?LuckboxItemBag@@3PAVCItemBag@@A ; LuckboxItemBag
  0002a	85 c9		 test	 ecx, ecx
  0002c	74 08		 je	 SHORT $LN139@LoadItemBa

; 2670 : 	{
; 2671 : 		delete LuckboxItemBag;

  0002e	8b 01		 mov	 eax, DWORD PTR [ecx]
  00030	8b 10		 mov	 edx, DWORD PTR [eax]
  00032	6a 01		 push	 1
  00034	ff d2		 call	 edx
$LN139@LoadItemBa:

; 2672 : 	}
; 2673 : 
; 2674 : 	LuckboxItemBag = new CItemBag;

  00036	68 94 03 00 00	 push	 916			; 00000394H
  0003b	e8 00 00 00 00	 call	 ??2@YAPAXI@Z		; operator new
  00040	83 c4 04	 add	 esp, 4
  00043	89 45 f0	 mov	 DWORD PTR $T247011[ebp], eax
  00046	c7 45 fc 00 00
	00 00		 mov	 DWORD PTR __$EHRec$[ebp+8], 0
  0004d	85 c0		 test	 eax, eax
  0004f	74 09		 je	 SHORT $LN141@LoadItemBa
  00051	8b c8		 mov	 ecx, eax
  00053	e8 00 00 00 00	 call	 ??0CItemBag@@QAE@XZ	; CItemBag::CItemBag
  00058	eb 02		 jmp	 SHORT $LN142@LoadItemBa
$LN141@LoadItemBa:
  0005a	33 c0		 xor	 eax, eax
$LN142@LoadItemBa:
  0005c	83 ce ff	 or	 esi, -1
  0005f	89 75 fc	 mov	 DWORD PTR __$EHRec$[ebp+8], esi
  00062	a3 00 00 00 00	 mov	 DWORD PTR ?LuckboxItemBag@@3PAVCItemBag@@A, eax ; LuckboxItemBag

; 2675 : 
; 2676 : 	if ( LuckboxItemBag == NULL )

  00067	85 c0		 test	 eax, eax
  00069	75 2a		 jne	 SHORT $LN135@LoadItemBa
$LN480@LoadItemBa:

; 2677 : 	{
; 2678 : 		MsgBox( "CItemBag %s", lMsg.Get(MSGGET(0, 110)));

  0006b	6a 6e		 push	 110			; 0000006eH
  0006d	b9 00 00 00 00	 mov	 ecx, OFFSET ?lMsg@@3VCMsg@@A ; lMsg
  00072	e8 00 00 00 00	 call	 ?Get@CMsg@@QAEPADH@Z	; CMsg::Get
  00077	50		 push	 eax
  00078	68 00 00 00 00	 push	 OFFSET ??_C@_0M@GNOCDNGL@CItemBag?5?$CFs?$AA@
  0007d	e8 00 00 00 00	 call	 ?MsgBox@@YAXPADZZ	; MsgBox
  00082	83 c4 08	 add	 esp, 8

; 3714 : #endif
; 3715 : 
; 3716 : }

  00085	8b 4d f4	 mov	 ecx, DWORD PTR __$EHRec$[ebp]
  00088	64 89 0d 00 00
	00 00		 mov	 DWORD PTR fs:0, ecx
  0008f	59		 pop	 ecx
  00090	5e		 pop	 esi
  00091	8b e5		 mov	 esp, ebp
  00093	5d		 pop	 ebp
  00094	c3		 ret	 0
$LN135@LoadItemBa:

; 2679 : 		return;
; 2680 : 	}
; 2681 : 
; 2682 : 	LuckboxItemBag->Init(".\\EventItemBags\\01_BoxOfLuck&Heaven.txt");

  00095	68 00 00 00 00	 push	 OFFSET ??_C@_0CI@GOAGGLEM@?4?2EventItemBags?201_BoxOfLuck?$CGHea@
  0009a	8b c8		 mov	 ecx, eax
  0009c	e8 00 00 00 00	 call	 ?Init@CItemBag@@QAEXPAD@Z ; CItemBag::Init

; 2683 : 
; 2684 : 	if ( Mon55 != FALSE )

  000a1	8b 0d 00 00 00
	00		 mov	 ecx, DWORD PTR ?Mon55@@3PAVCItemBag@@A ; Mon55
  000a7	85 c9		 test	 ecx, ecx
  000a9	74 08		 je	 SHORT $LN143@LoadItemBa

; 2685 : 	{
; 2686 : 		delete Mon55;

  000ab	8b 01		 mov	 eax, DWORD PTR [ecx]
  000ad	8b 10		 mov	 edx, DWORD PTR [eax]
  000af	6a 01		 push	 1
  000b1	ff d2		 call	 edx
$LN143@LoadItemBa:

; 2687 : 	}
; 2688 : 
; 2689 : 	Mon55 = new CItemBag;

  000b3	68 94 03 00 00	 push	 916			; 00000394H
  000b8	e8 00 00 00 00	 call	 ??2@YAPAXI@Z		; operator new
  000bd	83 c4 04	 add	 esp, 4
  000c0	89 45 f0	 mov	 DWORD PTR $T247019[ebp], eax
  000c3	c7 45 fc 01 00
	00 00		 mov	 DWORD PTR __$EHRec$[ebp+8], 1
  000ca	85 c0		 test	 eax, eax
  000cc	74 09		 je	 SHORT $LN145@LoadItemBa
  000ce	8b c8		 mov	 ecx, eax
  000d0	e8 00 00 00 00	 call	 ??0CItemBag@@QAE@XZ	; CItemBag::CItemBag
  000d5	eb 02		 jmp	 SHORT $LN146@LoadItemBa
$LN145@LoadItemBa:
  000d7	33 c0		 xor	 eax, eax
$LN146@LoadItemBa:
  000d9	89 75 fc	 mov	 DWORD PTR __$EHRec$[ebp+8], esi
  000dc	a3 00 00 00 00	 mov	 DWORD PTR ?Mon55@@3PAVCItemBag@@A, eax ; Mon55

; 2690 : 
; 2691 : 	if ( Mon55 == NULL )

  000e1	85 c0		 test	 eax, eax

; 2692 : 	{
; 2693 : 		MsgBox( "CItemBag %s", lMsg.Get(MSGGET(0, 110)));
; 2694 : 		return;

  000e3	74 86		 je	 SHORT $LN480@LoadItemBa

; 2695 : 	}
; 2696 : 
; 2697 : 	Mon55->Init(".\\EventItemBags\\02_SkeletonKing.txt");

  000e5	68 00 00 00 00	 push	 OFFSET ??_C@_0CE@DIFAILMC@?4?2EventItemBags?202_SkeletonKing?4@
  000ea	8b c8		 mov	 ecx, eax
  000ec	e8 00 00 00 00	 call	 ?Init@CItemBag@@QAEXPAD@Z ; CItemBag::Init

; 2698 : 
; 2699 : 	if ( Mon53 != FALSE )

  000f1	8b 0d 00 00 00
	00		 mov	 ecx, DWORD PTR ?Mon53@@3PAVCItemBag@@A ; Mon53
  000f7	85 c9		 test	 ecx, ecx
  000f9	74 08		 je	 SHORT $LN147@LoadItemBa

; 2700 : 	{
; 2701 : 		delete Mon53;

  000fb	8b 01		 mov	 eax, DWORD PTR [ecx]
  000fd	8b 10		 mov	 edx, DWORD PTR [eax]
  000ff	6a 01		 push	 1
  00101	ff d2		 call	 edx
$LN147@LoadItemBa:

; 2702 : 	}
; 2703 : 
; 2704 : 	Mon53 = new CItemBag;

  00103	68 94 03 00 00	 push	 916			; 00000394H
  00108	e8 00 00 00 00	 call	 ??2@YAPAXI@Z		; operator new
  0010d	83 c4 04	 add	 esp, 4
  00110	89 45 f0	 mov	 DWORD PTR $T247027[ebp], eax
  00113	c7 45 fc 02 00
	00 00		 mov	 DWORD PTR __$EHRec$[ebp+8], 2
  0011a	85 c0		 test	 eax, eax
  0011c	74 09		 je	 SHORT $LN149@LoadItemBa
  0011e	8b c8		 mov	 ecx, eax
  00120	e8 00 00 00 00	 call	 ??0CItemBag@@QAE@XZ	; CItemBag::CItemBag
  00125	eb 02		 jmp	 SHORT $LN150@LoadItemBa
$LN149@LoadItemBa:
  00127	33 c0		 xor	 eax, eax
$LN150@LoadItemBa:
  00129	89 75 fc	 mov	 DWORD PTR __$EHRec$[ebp+8], esi
  0012c	a3 00 00 00 00	 mov	 DWORD PTR ?Mon53@@3PAVCItemBag@@A, eax ; Mon53

; 2705 : 
; 2706 : 	if ( Mon53 == NULL )

  00131	85 c0		 test	 eax, eax

; 2707 : 	{
; 2708 : 		MsgBox( "CItemBag %s", lMsg.Get(MSGGET(0, 110)));
; 2709 : 		return;

  00133	0f 84 32 ff ff
	ff		 je	 $LN480@LoadItemBa

; 2710 : 	}
; 2711 : 
; 2712 : 	Mon53->Init(".\\EventItemBags\\03_RedDragon.txt");

  00139	68 00 00 00 00	 push	 OFFSET ??_C@_0CB@OCKCFMEG@?4?2EventItemBags?203_RedDragon?4txt@
  0013e	8b c8		 mov	 ecx, eax
  00140	e8 00 00 00 00	 call	 ?Init@CItemBag@@QAEXPAD@Z ; CItemBag::Init

; 2713 : 
; 2714 : 	if ( StarOfXMasItemBag != FALSE )	

  00145	8b 0d 00 00 00
	00		 mov	 ecx, DWORD PTR ?StarOfXMasItemBag@@3PAVCItemBagZt@@A ; StarOfXMasItemBag
  0014b	85 c9		 test	 ecx, ecx
  0014d	74 08		 je	 SHORT $LN151@LoadItemBa

; 2715 : 	{
; 2716 : 		delete StarOfXMasItemBag;

  0014f	8b 01		 mov	 eax, DWORD PTR [ecx]
  00151	8b 10		 mov	 edx, DWORD PTR [eax]
  00153	6a 01		 push	 1
  00155	ff d2		 call	 edx
$LN151@LoadItemBa:

; 2717 : 	}
; 2718 : 
; 2719 : 	StarOfXMasItemBag = new CItemBagZt;

  00157	68 d0 06 00 00	 push	 1744			; 000006d0H
  0015c	e8 00 00 00 00	 call	 ??2@YAPAXI@Z		; operator new
  00161	83 c4 04	 add	 esp, 4
  00164	89 45 f0	 mov	 DWORD PTR $T247035[ebp], eax
  00167	c7 45 fc 03 00
	00 00		 mov	 DWORD PTR __$EHRec$[ebp+8], 3
  0016e	85 c0		 test	 eax, eax
  00170	74 09		 je	 SHORT $LN153@LoadItemBa
  00172	8b c8		 mov	 ecx, eax
  00174	e8 00 00 00 00	 call	 ??0CItemBagZt@@QAE@XZ	; CItemBagZt::CItemBagZt
  00179	eb 02		 jmp	 SHORT $LN154@LoadItemBa
$LN153@LoadItemBa:
  0017b	33 c0		 xor	 eax, eax
$LN154@LoadItemBa:
  0017d	89 75 fc	 mov	 DWORD PTR __$EHRec$[ebp+8], esi
  00180	a3 00 00 00 00	 mov	 DWORD PTR ?StarOfXMasItemBag@@3PAVCItemBagZt@@A, eax ; StarOfXMasItemBag

; 2720 : 
; 2721 : 	if ( StarOfXMasItemBag == NULL )

  00185	85 c0		 test	 eax, eax

; 2722 : 	{
; 2723 : 		MsgBox( "CItemBag %s", lMsg.Get(MSGGET(0, 110)));
; 2724 : 		return;

  00187	0f 84 de fe ff
	ff		 je	 $LN480@LoadItemBa

; 2725 : 	}
; 2726 : 
; 2727 : 	StarOfXMasItemBag->Init(".\\EventItemBags\\04_StarOfXMas.txt");

  0018d	68 00 00 00 00	 push	 OFFSET ??_C@_0CC@GMCPCNHJ@?4?2EventItemBags?204_StarOfXMas?4tx@
  00192	8b c8		 mov	 ecx, eax
  00194	e8 00 00 00 00	 call	 ?Init@CItemBagZt@@QAEXPAD@Z ; CItemBagZt::Init

; 2728 : 
; 2729 : 	if ( FireCrackerItemBag != FALSE )	

  00199	8b 0d 00 00 00
	00		 mov	 ecx, DWORD PTR ?FireCrackerItemBag@@3PAVCItemBag@@A ; FireCrackerItemBag
  0019f	85 c9		 test	 ecx, ecx
  001a1	74 08		 je	 SHORT $LN155@LoadItemBa

; 2730 : 	{
; 2731 : 		delete FireCrackerItemBag;

  001a3	8b 01		 mov	 eax, DWORD PTR [ecx]
  001a5	8b 10		 mov	 edx, DWORD PTR [eax]
  001a7	6a 01		 push	 1
  001a9	ff d2		 call	 edx
$LN155@LoadItemBa:

; 2732 : 	}
; 2733 : 
; 2734 : 	FireCrackerItemBag = new CItemBag;

  001ab	68 94 03 00 00	 push	 916			; 00000394H
  001b0	e8 00 00 00 00	 call	 ??2@YAPAXI@Z		; operator new
  001b5	83 c4 04	 add	 esp, 4
  001b8	89 45 f0	 mov	 DWORD PTR $T247043[ebp], eax
  001bb	c7 45 fc 04 00
	00 00		 mov	 DWORD PTR __$EHRec$[ebp+8], 4
  001c2	85 c0		 test	 eax, eax
  001c4	74 09		 je	 SHORT $LN157@LoadItemBa
  001c6	8b c8		 mov	 ecx, eax
  001c8	e8 00 00 00 00	 call	 ??0CItemBag@@QAE@XZ	; CItemBag::CItemBag
  001cd	eb 02		 jmp	 SHORT $LN158@LoadItemBa
$LN157@LoadItemBa:
  001cf	33 c0		 xor	 eax, eax
$LN158@LoadItemBa:
  001d1	89 75 fc	 mov	 DWORD PTR __$EHRec$[ebp+8], esi
  001d4	a3 00 00 00 00	 mov	 DWORD PTR ?FireCrackerItemBag@@3PAVCItemBag@@A, eax ; FireCrackerItemBag

; 2735 : 
; 2736 : 	if ( FireCrackerItemBag == NULL )

  001d9	85 c0		 test	 eax, eax

; 2737 : 	{
; 2738 : 		MsgBox( "CItemBag %s", lMsg.Get(MSGGET(0, 110)));
; 2739 : 		return;

  001db	0f 84 8a fe ff
	ff		 je	 $LN480@LoadItemBa

; 2740 : 	}
; 2741 : 
; 2742 : 	FireCrackerItemBag->Init(".\\EventItemBags\\05_HeartOfLove&Cracker.txt");

  001e1	68 00 00 00 00	 push	 OFFSET ??_C@_0CL@BGFKMODF@?4?2EventItemBags?205_HeartOfLove?$CGC@
  001e6	8b c8		 mov	 ecx, eax
  001e8	e8 00 00 00 00	 call	 ?Init@CItemBag@@QAEXPAD@Z ; CItemBag::Init

; 2743 : 
; 2744 : 	if ( HeartOfLoveItemBag != FALSE )	

  001ed	8b 0d 00 00 00
	00		 mov	 ecx, DWORD PTR ?HeartOfLoveItemBag@@3PAVCItemBag@@A ; HeartOfLoveItemBag
  001f3	85 c9		 test	 ecx, ecx
  001f5	74 08		 je	 SHORT $LN159@LoadItemBa

; 2745 : 	{
; 2746 : 		delete HeartOfLoveItemBag;

  001f7	8b 01		 mov	 eax, DWORD PTR [ecx]
  001f9	8b 10		 mov	 edx, DWORD PTR [eax]
  001fb	6a 01		 push	 1
  001fd	ff d2		 call	 edx
$LN159@LoadItemBa:

; 2747 : 	}
; 2748 : 
; 2749 : 	HeartOfLoveItemBag = new CItemBag;

  001ff	68 94 03 00 00	 push	 916			; 00000394H
  00204	e8 00 00 00 00	 call	 ??2@YAPAXI@Z		; operator new
  00209	83 c4 04	 add	 esp, 4
  0020c	89 45 f0	 mov	 DWORD PTR $T247051[ebp], eax
  0020f	c7 45 fc 05 00
	00 00		 mov	 DWORD PTR __$EHRec$[ebp+8], 5
  00216	85 c0		 test	 eax, eax
  00218	74 09		 je	 SHORT $LN161@LoadItemBa
  0021a	8b c8		 mov	 ecx, eax
  0021c	e8 00 00 00 00	 call	 ??0CItemBag@@QAE@XZ	; CItemBag::CItemBag
  00221	eb 02		 jmp	 SHORT $LN162@LoadItemBa
$LN161@LoadItemBa:
  00223	33 c0		 xor	 eax, eax
$LN162@LoadItemBa:
  00225	89 75 fc	 mov	 DWORD PTR __$EHRec$[ebp+8], esi
  00228	a3 00 00 00 00	 mov	 DWORD PTR ?HeartOfLoveItemBag@@3PAVCItemBag@@A, eax ; HeartOfLoveItemBag

; 2750 : 
; 2751 : 	if ( HeartOfLoveItemBag == NULL )

  0022d	85 c0		 test	 eax, eax

; 2752 : 	{
; 2753 : 		MsgBox( "CItemBag %s", lMsg.Get(MSGGET(0, 110)));
; 2754 : 		return;

  0022f	0f 84 36 fe ff
	ff		 je	 $LN480@LoadItemBa

; 2755 : 	}
; 2756 : 
; 2757 : 	HeartOfLoveItemBag->Init(".\\EventItemBags\\05_HeartOfLove&Cracker.txt");

  00235	68 00 00 00 00	 push	 OFFSET ??_C@_0CL@BGFKMODF@?4?2EventItemBags?205_HeartOfLove?$CGC@
  0023a	8b c8		 mov	 ecx, eax
  0023c	e8 00 00 00 00	 call	 ?Init@CItemBag@@QAEXPAD@Z ; CItemBag::Init

; 2758 : 
; 2759 : 	if ( GoldMedalItemBag != FALSE )	

  00241	8b 0d 00 00 00
	00		 mov	 ecx, DWORD PTR ?GoldMedalItemBag@@3PAVCItemBag@@A ; GoldMedalItemBag
  00247	85 c9		 test	 ecx, ecx
  00249	74 08		 je	 SHORT $LN163@LoadItemBa

; 2760 : 	{
; 2761 : 		delete GoldMedalItemBag;

  0024b	8b 01		 mov	 eax, DWORD PTR [ecx]
  0024d	8b 10		 mov	 edx, DWORD PTR [eax]
  0024f	6a 01		 push	 1
  00251	ff d2		 call	 edx
$LN163@LoadItemBa:

; 2762 : 	}
; 2763 : 
; 2764 : 	GoldMedalItemBag = new CItemBag;

  00253	68 94 03 00 00	 push	 916			; 00000394H
  00258	e8 00 00 00 00	 call	 ??2@YAPAXI@Z		; operator new
  0025d	83 c4 04	 add	 esp, 4
  00260	89 45 f0	 mov	 DWORD PTR $T247059[ebp], eax
  00263	c7 45 fc 06 00
	00 00		 mov	 DWORD PTR __$EHRec$[ebp+8], 6
  0026a	85 c0		 test	 eax, eax
  0026c	74 09		 je	 SHORT $LN165@LoadItemBa
  0026e	8b c8		 mov	 ecx, eax
  00270	e8 00 00 00 00	 call	 ??0CItemBag@@QAE@XZ	; CItemBag::CItemBag
  00275	eb 02		 jmp	 SHORT $LN166@LoadItemBa
$LN165@LoadItemBa:
  00277	33 c0		 xor	 eax, eax
$LN166@LoadItemBa:
  00279	89 75 fc	 mov	 DWORD PTR __$EHRec$[ebp+8], esi
  0027c	a3 00 00 00 00	 mov	 DWORD PTR ?GoldMedalItemBag@@3PAVCItemBag@@A, eax ; GoldMedalItemBag

; 2765 : 
; 2766 : 	if ( GoldMedalItemBag == NULL )

  00281	85 c0		 test	 eax, eax

; 2767 : 	{
; 2768 : 		MsgBox( "CItemBag %s", lMsg.Get(MSGGET(0, 110)));
; 2769 : 		return;

  00283	0f 84 e2 fd ff
	ff		 je	 $LN480@LoadItemBa

; 2770 : 	}
; 2771 : 
; 2772 : 	GoldMedalItemBag->Init(".\\EventItemBags\\06_GoldMedal.txt");

  00289	68 00 00 00 00	 push	 OFFSET ??_C@_0CB@JHEJBJFC@?4?2EventItemBags?206_GoldMedal?4txt@
  0028e	8b c8		 mov	 ecx, eax
  00290	e8 00 00 00 00	 call	 ?Init@CItemBag@@QAEXPAD@Z ; CItemBag::Init

; 2773 : 
; 2774 : 	if ( SilverMedalItemBag != FALSE )	

  00295	8b 0d 00 00 00
	00		 mov	 ecx, DWORD PTR ?SilverMedalItemBag@@3PAVCItemBag@@A ; SilverMedalItemBag
  0029b	85 c9		 test	 ecx, ecx
  0029d	74 08		 je	 SHORT $LN167@LoadItemBa

; 2775 : 	{
; 2776 : 		delete SilverMedalItemBag;

  0029f	8b 01		 mov	 eax, DWORD PTR [ecx]
  002a1	8b 10		 mov	 edx, DWORD PTR [eax]
  002a3	6a 01		 push	 1
  002a5	ff d2		 call	 edx
$LN167@LoadItemBa:

; 2777 : 	}
; 2778 : 
; 2779 : 	SilverMedalItemBag = new CItemBag;

  002a7	68 94 03 00 00	 push	 916			; 00000394H
  002ac	e8 00 00 00 00	 call	 ??2@YAPAXI@Z		; operator new
  002b1	83 c4 04	 add	 esp, 4
  002b4	89 45 f0	 mov	 DWORD PTR $T247067[ebp], eax
  002b7	c7 45 fc 07 00
	00 00		 mov	 DWORD PTR __$EHRec$[ebp+8], 7
  002be	85 c0		 test	 eax, eax
  002c0	74 09		 je	 SHORT $LN169@LoadItemBa
  002c2	8b c8		 mov	 ecx, eax
  002c4	e8 00 00 00 00	 call	 ??0CItemBag@@QAE@XZ	; CItemBag::CItemBag
  002c9	eb 02		 jmp	 SHORT $LN170@LoadItemBa
$LN169@LoadItemBa:
  002cb	33 c0		 xor	 eax, eax
$LN170@LoadItemBa:
  002cd	89 75 fc	 mov	 DWORD PTR __$EHRec$[ebp+8], esi
  002d0	a3 00 00 00 00	 mov	 DWORD PTR ?SilverMedalItemBag@@3PAVCItemBag@@A, eax ; SilverMedalItemBag

; 2780 : 
; 2781 : 	if ( SilverMedalItemBag == NULL )

  002d5	85 c0		 test	 eax, eax

; 2782 : 	{
; 2783 : 		MsgBox( "CItemBag %s", lMsg.Get(MSGGET(0, 110)));
; 2784 : 		return;

  002d7	0f 84 8e fd ff
	ff		 je	 $LN480@LoadItemBa

; 2785 : 	}
; 2786 : 
; 2787 : 	SilverMedalItemBag->Init(".\\EventItemBags\\07_SilverMedal.txt");

  002dd	68 00 00 00 00	 push	 OFFSET ??_C@_0CD@JIJGCHDO@?4?2EventItemBags?207_SilverMedal?4t@
  002e2	8b c8		 mov	 ecx, eax
  002e4	e8 00 00 00 00	 call	 ?Init@CItemBag@@QAEXPAD@Z ; CItemBag::Init

; 2788 : 
; 2789 : 	if ( GoldGoblenItemBag != FALSE )	

  002e9	8b 0d 00 00 00
	00		 mov	 ecx, DWORD PTR ?GoldGoblenItemBag@@3PAVCProbabilityItemBag@@A ; GoldGoblenItemBag
  002ef	85 c9		 test	 ecx, ecx
  002f1	74 08		 je	 SHORT $LN171@LoadItemBa

; 2790 : 	{
; 2791 : 		delete GoldGoblenItemBag;

  002f3	8b 01		 mov	 eax, DWORD PTR [ecx]
  002f5	8b 10		 mov	 edx, DWORD PTR [eax]
  002f7	6a 01		 push	 1
  002f9	ff d2		 call	 edx
$LN171@LoadItemBa:

; 2792 : 	}
; 2793 : 
; 2794 : 	GoldGoblenItemBag = new CProbabilityItemBag;

  002fb	68 08 08 00 00	 push	 2056			; 00000808H
  00300	e8 00 00 00 00	 call	 ??2@YAPAXI@Z		; operator new
  00305	83 c4 04	 add	 esp, 4
  00308	89 45 f0	 mov	 DWORD PTR $T247075[ebp], eax
  0030b	c7 45 fc 08 00
	00 00		 mov	 DWORD PTR __$EHRec$[ebp+8], 8
  00312	85 c0		 test	 eax, eax
  00314	74 09		 je	 SHORT $LN173@LoadItemBa
  00316	8b c8		 mov	 ecx, eax
  00318	e8 00 00 00 00	 call	 ??0CProbabilityItemBag@@QAE@XZ ; CProbabilityItemBag::CProbabilityItemBag
  0031d	eb 02		 jmp	 SHORT $LN174@LoadItemBa
$LN173@LoadItemBa:
  0031f	33 c0		 xor	 eax, eax
$LN174@LoadItemBa:
  00321	89 75 fc	 mov	 DWORD PTR __$EHRec$[ebp+8], esi
  00324	a3 00 00 00 00	 mov	 DWORD PTR ?GoldGoblenItemBag@@3PAVCProbabilityItemBag@@A, eax ; GoldGoblenItemBag

; 2795 : 
; 2796 : 	if ( GoldGoblenItemBag == NULL )

  00329	85 c0		 test	 eax, eax

; 2797 : 	{
; 2798 : 		MsgBox( "CItemBag %s", lMsg.Get(MSGGET(0, 110)));
; 2799 : 		return;

  0032b	0f 84 3a fd ff
	ff		 je	 $LN480@LoadItemBa

; 2800 : 	}
; 2801 : 
; 2802 : 	GoldGoblenItemBag->Init(".\\EventItemBags\\08_BoxOfKundun1.txt");

  00331	68 00 00 00 00	 push	 OFFSET ??_C@_0CE@DDEPOFEH@?4?2EventItemBags?208_BoxOfKundun1?4@
  00336	8b c8		 mov	 ecx, eax
  00338	e8 00 00 00 00	 call	 ?Init@CProbabilityItemBag@@QAEXPAD@Z ; CProbabilityItemBag::Init

; 2803 : 
; 2804 : 	if ( TitanItemBag != FALSE )	

  0033d	8b 0d 00 00 00
	00		 mov	 ecx, DWORD PTR ?TitanItemBag@@3PAVCProbabilityItemBag@@A ; TitanItemBag
  00343	85 c9		 test	 ecx, ecx
  00345	74 08		 je	 SHORT $LN175@LoadItemBa

; 2805 : 	{
; 2806 : 		delete TitanItemBag;

  00347	8b 01		 mov	 eax, DWORD PTR [ecx]
  00349	8b 10		 mov	 edx, DWORD PTR [eax]
  0034b	6a 01		 push	 1
  0034d	ff d2		 call	 edx
$LN175@LoadItemBa:

; 2807 : 	}
; 2808 : 
; 2809 : 	TitanItemBag = new CProbabilityItemBag;

  0034f	68 08 08 00 00	 push	 2056			; 00000808H
  00354	e8 00 00 00 00	 call	 ??2@YAPAXI@Z		; operator new
  00359	83 c4 04	 add	 esp, 4
  0035c	89 45 f0	 mov	 DWORD PTR $T247083[ebp], eax
  0035f	c7 45 fc 09 00
	00 00		 mov	 DWORD PTR __$EHRec$[ebp+8], 9
  00366	85 c0		 test	 eax, eax
  00368	74 09		 je	 SHORT $LN177@LoadItemBa
  0036a	8b c8		 mov	 ecx, eax
  0036c	e8 00 00 00 00	 call	 ??0CProbabilityItemBag@@QAE@XZ ; CProbabilityItemBag::CProbabilityItemBag
  00371	eb 02		 jmp	 SHORT $LN178@LoadItemBa
$LN177@LoadItemBa:
  00373	33 c0		 xor	 eax, eax
$LN178@LoadItemBa:
  00375	89 75 fc	 mov	 DWORD PTR __$EHRec$[ebp+8], esi
  00378	a3 00 00 00 00	 mov	 DWORD PTR ?TitanItemBag@@3PAVCProbabilityItemBag@@A, eax ; TitanItemBag

; 2810 : 
; 2811 : 	if ( TitanItemBag == NULL )

  0037d	85 c0		 test	 eax, eax

; 2812 : 	{
; 2813 : 		MsgBox( "CItemBag %s", lMsg.Get(MSGGET(0, 110)));
; 2814 : 		return;

  0037f	0f 84 e6 fc ff
	ff		 je	 $LN480@LoadItemBa

; 2815 : 	}
; 2816 : 
; 2817 : 	TitanItemBag->Init(".\\EventItemBags\\09_BoxOfKundun2.txt");

  00385	68 00 00 00 00	 push	 OFFSET ??_C@_0CE@GCDJBHLB@?4?2EventItemBags?209_BoxOfKundun2?4@
  0038a	8b c8		 mov	 ecx, eax
  0038c	e8 00 00 00 00	 call	 ?Init@CProbabilityItemBag@@QAEXPAD@Z ; CProbabilityItemBag::Init

; 2818 : 
; 2819 : 	if ( GoldDerconItemBag != FALSE )	

  00391	8b 0d 00 00 00
	00		 mov	 ecx, DWORD PTR ?GoldDerconItemBag@@3PAVCProbabilityItemBag@@A ; GoldDerconItemBag
  00397	85 c9		 test	 ecx, ecx
  00399	74 08		 je	 SHORT $LN179@LoadItemBa

; 2820 : 	{
; 2821 : 		delete GoldDerconItemBag;

  0039b	8b 01		 mov	 eax, DWORD PTR [ecx]
  0039d	8b 10		 mov	 edx, DWORD PTR [eax]
  0039f	6a 01		 push	 1
  003a1	ff d2		 call	 edx
$LN179@LoadItemBa:

; 2822 : 	}
; 2823 : 
; 2824 : 	GoldDerconItemBag = new CProbabilityItemBag;

  003a3	68 08 08 00 00	 push	 2056			; 00000808H
  003a8	e8 00 00 00 00	 call	 ??2@YAPAXI@Z		; operator new
  003ad	83 c4 04	 add	 esp, 4
  003b0	89 45 f0	 mov	 DWORD PTR $T247091[ebp], eax
  003b3	c7 45 fc 0a 00
	00 00		 mov	 DWORD PTR __$EHRec$[ebp+8], 10 ; 0000000aH
  003ba	85 c0		 test	 eax, eax
  003bc	74 09		 je	 SHORT $LN181@LoadItemBa
  003be	8b c8		 mov	 ecx, eax
  003c0	e8 00 00 00 00	 call	 ??0CProbabilityItemBag@@QAE@XZ ; CProbabilityItemBag::CProbabilityItemBag
  003c5	eb 02		 jmp	 SHORT $LN182@LoadItemBa
$LN181@LoadItemBa:
  003c7	33 c0		 xor	 eax, eax
$LN182@LoadItemBa:
  003c9	89 75 fc	 mov	 DWORD PTR __$EHRec$[ebp+8], esi
  003cc	a3 00 00 00 00	 mov	 DWORD PTR ?GoldDerconItemBag@@3PAVCProbabilityItemBag@@A, eax ; GoldDerconItemBag

; 2825 : 
; 2826 : 	if ( GoldDerconItemBag == NULL )

  003d1	85 c0		 test	 eax, eax

; 2827 : 	{
; 2828 : 		MsgBox( "CItemBag %s", lMsg.Get(MSGGET(0, 110)));
; 2829 : 		return;

  003d3	0f 84 92 fc ff
	ff		 je	 $LN480@LoadItemBa

; 2830 : 	}
; 2831 : 
; 2832 : 	GoldDerconItemBag->Init(".\\EventItemBags\\10_BoxOfKundun3.txt");

  003d9	68 00 00 00 00	 push	 OFFSET ??_C@_0CE@BCEBGCIP@?4?2EventItemBags?210_BoxOfKundun3?4@
  003de	8b c8		 mov	 ecx, eax
  003e0	e8 00 00 00 00	 call	 ?Init@CProbabilityItemBag@@QAEXPAD@Z ; CProbabilityItemBag::Init

; 2833 : 
; 2834 : 	if ( DevilLizardKingItemBag != FALSE )	

  003e5	8b 0d 00 00 00
	00		 mov	 ecx, DWORD PTR ?DevilLizardKingItemBag@@3PAVCProbabilityItemBag@@A ; DevilLizardKingItemBag
  003eb	85 c9		 test	 ecx, ecx
  003ed	74 08		 je	 SHORT $LN183@LoadItemBa

; 2835 : 	{
; 2836 : 		delete DevilLizardKingItemBag;

  003ef	8b 01		 mov	 eax, DWORD PTR [ecx]
  003f1	8b 10		 mov	 edx, DWORD PTR [eax]
  003f3	6a 01		 push	 1
  003f5	ff d2		 call	 edx
$LN183@LoadItemBa:

; 2837 : 	}
; 2838 : 
; 2839 : 	DevilLizardKingItemBag = new CProbabilityItemBag;

  003f7	68 08 08 00 00	 push	 2056			; 00000808H
  003fc	e8 00 00 00 00	 call	 ??2@YAPAXI@Z		; operator new
  00401	83 c4 04	 add	 esp, 4
  00404	89 45 f0	 mov	 DWORD PTR $T247099[ebp], eax
  00407	c7 45 fc 0b 00
	00 00		 mov	 DWORD PTR __$EHRec$[ebp+8], 11 ; 0000000bH
  0040e	85 c0		 test	 eax, eax
  00410	74 09		 je	 SHORT $LN185@LoadItemBa
  00412	8b c8		 mov	 ecx, eax
  00414	e8 00 00 00 00	 call	 ??0CProbabilityItemBag@@QAE@XZ ; CProbabilityItemBag::CProbabilityItemBag
  00419	eb 02		 jmp	 SHORT $LN186@LoadItemBa
$LN185@LoadItemBa:
  0041b	33 c0		 xor	 eax, eax
$LN186@LoadItemBa:
  0041d	89 75 fc	 mov	 DWORD PTR __$EHRec$[ebp+8], esi
  00420	a3 00 00 00 00	 mov	 DWORD PTR ?DevilLizardKingItemBag@@3PAVCProbabilityItemBag@@A, eax ; DevilLizardKingItemBag

; 2840 : 
; 2841 : 	if ( DevilLizardKingItemBag == NULL )

  00425	85 c0		 test	 eax, eax

; 2842 : 	{
; 2843 : 		MsgBox( "CItemBag %s", lMsg.Get(MSGGET(0, 110)));
; 2844 : 		return;

  00427	0f 84 3e fc ff
	ff		 je	 $LN480@LoadItemBa

; 2845 : 	}
; 2846 : 
; 2847 : 	DevilLizardKingItemBag->Init(".\\EventItemBags\\11_BoxOfKundun4.txt");

  0042d	68 00 00 00 00	 push	 OFFSET ??_C@_0CE@NIKGNCGP@?4?2EventItemBags?211_BoxOfKundun4?4@
  00432	8b c8		 mov	 ecx, eax
  00434	e8 00 00 00 00	 call	 ?Init@CProbabilityItemBag@@QAEXPAD@Z ; CProbabilityItemBag::Init

; 2848 : 
; 2849 : 	if ( KanturItemBag != FALSE )	

  00439	8b 0d 00 00 00
	00		 mov	 ecx, DWORD PTR ?KanturItemBag@@3PAVCProbabilityItemBag@@A ; KanturItemBag
  0043f	85 c9		 test	 ecx, ecx
  00441	74 08		 je	 SHORT $LN187@LoadItemBa

; 2850 : 	{
; 2851 : 		delete KanturItemBag;

  00443	8b 01		 mov	 eax, DWORD PTR [ecx]
  00445	8b 10		 mov	 edx, DWORD PTR [eax]
  00447	6a 01		 push	 1
  00449	ff d2		 call	 edx
$LN187@LoadItemBa:

; 2852 : 	}
; 2853 : 
; 2854 : 	KanturItemBag = new CProbabilityItemBag;

  0044b	68 08 08 00 00	 push	 2056			; 00000808H
  00450	e8 00 00 00 00	 call	 ??2@YAPAXI@Z		; operator new
  00455	83 c4 04	 add	 esp, 4
  00458	89 45 f0	 mov	 DWORD PTR $T247107[ebp], eax
  0045b	c7 45 fc 0c 00
	00 00		 mov	 DWORD PTR __$EHRec$[ebp+8], 12 ; 0000000cH
  00462	85 c0		 test	 eax, eax
  00464	74 09		 je	 SHORT $LN189@LoadItemBa
  00466	8b c8		 mov	 ecx, eax
  00468	e8 00 00 00 00	 call	 ??0CProbabilityItemBag@@QAE@XZ ; CProbabilityItemBag::CProbabilityItemBag
  0046d	eb 02		 jmp	 SHORT $LN190@LoadItemBa
$LN189@LoadItemBa:
  0046f	33 c0		 xor	 eax, eax
$LN190@LoadItemBa:
  00471	89 75 fc	 mov	 DWORD PTR __$EHRec$[ebp+8], esi
  00474	a3 00 00 00 00	 mov	 DWORD PTR ?KanturItemBag@@3PAVCProbabilityItemBag@@A, eax ; KanturItemBag

; 2855 : 
; 2856 : 	if ( KanturItemBag == NULL )

  00479	85 c0		 test	 eax, eax

; 2857 : 	{
; 2858 : 		MsgBox( "CItemBag %s", lMsg.Get(MSGGET(0, 110)));
; 2859 : 		return;

  0047b	0f 84 ea fb ff
	ff		 je	 $LN480@LoadItemBa

; 2860 : 	}
; 2861 : 
; 2862 : 	KanturItemBag->Init(".\\EventItemBags\\12_BoxOfKundun5.txt");

  00481	68 00 00 00 00	 push	 OFFSET ??_C@_0CE@LAKMIHGD@?4?2EventItemBags?212_BoxOfKundun5?4@
  00486	8b c8		 mov	 ecx, eax
  00488	e8 00 00 00 00	 call	 ?Init@CProbabilityItemBag@@QAEXPAD@Z ; CProbabilityItemBag::Init

; 2863 : 
; 2864 : 	if ( RingEventItemBag != FALSE )	

  0048d	8b 0d 00 00 00
	00		 mov	 ecx, DWORD PTR ?RingEventItemBag@@3PAVCItemBag@@A ; RingEventItemBag
  00493	85 c9		 test	 ecx, ecx
  00495	74 08		 je	 SHORT $LN191@LoadItemBa

; 2865 : 	{
; 2866 : 		delete RingEventItemBag;

  00497	8b 01		 mov	 eax, DWORD PTR [ecx]
  00499	8b 10		 mov	 edx, DWORD PTR [eax]
  0049b	6a 01		 push	 1
  0049d	ff d2		 call	 edx
$LN191@LoadItemBa:

; 2867 : 	}
; 2868 : 
; 2869 : 	RingEventItemBag = new CItemBag;

  0049f	68 94 03 00 00	 push	 916			; 00000394H
  004a4	e8 00 00 00 00	 call	 ??2@YAPAXI@Z		; operator new
  004a9	83 c4 04	 add	 esp, 4
  004ac	89 45 f0	 mov	 DWORD PTR $T247115[ebp], eax
  004af	c7 45 fc 0d 00
	00 00		 mov	 DWORD PTR __$EHRec$[ebp+8], 13 ; 0000000dH
  004b6	85 c0		 test	 eax, eax
  004b8	74 09		 je	 SHORT $LN193@LoadItemBa
  004ba	8b c8		 mov	 ecx, eax
  004bc	e8 00 00 00 00	 call	 ??0CItemBag@@QAE@XZ	; CItemBag::CItemBag
  004c1	eb 02		 jmp	 SHORT $LN194@LoadItemBa
$LN193@LoadItemBa:
  004c3	33 c0		 xor	 eax, eax
$LN194@LoadItemBa:
  004c5	89 75 fc	 mov	 DWORD PTR __$EHRec$[ebp+8], esi
  004c8	a3 00 00 00 00	 mov	 DWORD PTR ?RingEventItemBag@@3PAVCItemBag@@A, eax ; RingEventItemBag

; 2870 : 
; 2871 : 	if ( RingEventItemBag == NULL )

  004cd	85 c0		 test	 eax, eax

; 2872 : 	{
; 2873 : 		MsgBox( "CItemBag %s", lMsg.Get(MSGGET(0, 110)));
; 2874 : 		return;

  004cf	0f 84 96 fb ff
	ff		 je	 $LN480@LoadItemBa

; 2875 : 	}
; 2876 : 
; 2877 : 	RingEventItemBag->Init(".\\EventItemBags\\13_ChaosCastleBox.txt");

  004d5	68 00 00 00 00	 push	 OFFSET ??_C@_0CG@DFKGIHOC@?4?2EventItemBags?213_ChaosCastleBo@
  004da	8b c8		 mov	 ecx, eax
  004dc	e8 00 00 00 00	 call	 ?Init@CItemBag@@QAEXPAD@Z ; CItemBag::Init

; 2878 : 
; 2879 : 	if ( FriendShipItemBag != FALSE )	

  004e1	8b 0d 00 00 00
	00		 mov	 ecx, DWORD PTR ?FriendShipItemBag@@3PAVCItemBag@@A ; FriendShipItemBag
  004e7	85 c9		 test	 ecx, ecx
  004e9	74 08		 je	 SHORT $LN195@LoadItemBa

; 2880 : 	{
; 2881 : 		delete FriendShipItemBag;

  004eb	8b 01		 mov	 eax, DWORD PTR [ecx]
  004ed	8b 10		 mov	 edx, DWORD PTR [eax]
  004ef	6a 01		 push	 1
  004f1	ff d2		 call	 edx
$LN195@LoadItemBa:

; 2882 : 	}
; 2883 : 
; 2884 : 	FriendShipItemBag = new CItemBag;

  004f3	68 94 03 00 00	 push	 916			; 00000394H
  004f8	e8 00 00 00 00	 call	 ??2@YAPAXI@Z		; operator new
  004fd	83 c4 04	 add	 esp, 4
  00500	89 45 f0	 mov	 DWORD PTR $T247123[ebp], eax
  00503	c7 45 fc 0e 00
	00 00		 mov	 DWORD PTR __$EHRec$[ebp+8], 14 ; 0000000eH
  0050a	85 c0		 test	 eax, eax
  0050c	74 09		 je	 SHORT $LN197@LoadItemBa
  0050e	8b c8		 mov	 ecx, eax
  00510	e8 00 00 00 00	 call	 ??0CItemBag@@QAE@XZ	; CItemBag::CItemBag
  00515	eb 02		 jmp	 SHORT $LN198@LoadItemBa
$LN197@LoadItemBa:
  00517	33 c0		 xor	 eax, eax
$LN198@LoadItemBa:
  00519	89 75 fc	 mov	 DWORD PTR __$EHRec$[ebp+8], esi
  0051c	a3 00 00 00 00	 mov	 DWORD PTR ?FriendShipItemBag@@3PAVCItemBag@@A, eax ; FriendShipItemBag

; 2885 : 
; 2886 : 	if ( FriendShipItemBag == NULL )

  00521	85 c0		 test	 eax, eax

; 2887 : 	{
; 2888 : 		MsgBox( "CItemBag %s", lMsg.Get(MSGGET(0, 110)));
; 2889 : 		return;

  00523	0f 84 42 fb ff
	ff		 je	 $LN480@LoadItemBa

; 2890 : 	}
; 2891 : 
; 2892 : 	FriendShipItemBag->Init(".\\EventItemBags\\14_RingEventLevel80.txt");

  00529	68 00 00 00 00	 push	 OFFSET ??_C@_0CI@OANKAHDH@?4?2EventItemBags?214_RingEventLeve@
  0052e	8b c8		 mov	 ecx, eax
  00530	e8 00 00 00 00	 call	 ?Init@CItemBag@@QAEXPAD@Z ; CItemBag::Init

; 2893 : 
; 2894 : 	if ( DarkLordHeartItemBag != FALSE )	

  00535	8b 0d 00 00 00
	00		 mov	 ecx, DWORD PTR ?DarkLordHeartItemBag@@3PAVCItemBag@@A ; DarkLordHeartItemBag
  0053b	85 c9		 test	 ecx, ecx
  0053d	74 08		 je	 SHORT $LN199@LoadItemBa

; 2895 : 	{
; 2896 : 		delete DarkLordHeartItemBag;

  0053f	8b 01		 mov	 eax, DWORD PTR [ecx]
  00541	8b 10		 mov	 edx, DWORD PTR [eax]
  00543	6a 01		 push	 1
  00545	ff d2		 call	 edx
$LN199@LoadItemBa:

; 2897 : 	}
; 2898 : 
; 2899 : 	DarkLordHeartItemBag = new CItemBag;

  00547	68 94 03 00 00	 push	 916			; 00000394H
  0054c	e8 00 00 00 00	 call	 ??2@YAPAXI@Z		; operator new
  00551	83 c4 04	 add	 esp, 4
  00554	89 45 f0	 mov	 DWORD PTR $T247131[ebp], eax
  00557	c7 45 fc 0f 00
	00 00		 mov	 DWORD PTR __$EHRec$[ebp+8], 15 ; 0000000fH
  0055e	85 c0		 test	 eax, eax
  00560	74 09		 je	 SHORT $LN201@LoadItemBa
  00562	8b c8		 mov	 ecx, eax
  00564	e8 00 00 00 00	 call	 ??0CItemBag@@QAE@XZ	; CItemBag::CItemBag
  00569	eb 02		 jmp	 SHORT $LN202@LoadItemBa
$LN201@LoadItemBa:
  0056b	33 c0		 xor	 eax, eax
$LN202@LoadItemBa:
  0056d	89 75 fc	 mov	 DWORD PTR __$EHRec$[ebp+8], esi
  00570	a3 00 00 00 00	 mov	 DWORD PTR ?DarkLordHeartItemBag@@3PAVCItemBag@@A, eax ; DarkLordHeartItemBag

; 2900 : 
; 2901 : 	if ( DarkLordHeartItemBag == NULL )

  00575	85 c0		 test	 eax, eax

; 2902 : 	{
; 2903 : 		MsgBox( "CItemBag %s", lMsg.Get(MSGGET(0, 110)));
; 2904 : 		return;

  00577	0f 84 ee fa ff
	ff		 je	 $LN480@LoadItemBa

; 2905 : 	}
; 2906 : 
; 2907 : 	DarkLordHeartItemBag->Init(".\\EventItemBags\\15_DarkLordHeart.txt");

  0057d	68 00 00 00 00	 push	 OFFSET ??_C@_0CF@LKFDLO@?4?2EventItemBags?215_DarkLordHeart@
  00582	8b c8		 mov	 ecx, eax
  00584	e8 00 00 00 00	 call	 ?Init@CItemBag@@QAEXPAD@Z ; CItemBag::Init

; 2908 : 
; 2909 : 	if ( KundunEventItemBag != FALSE )	

  00589	8b 0d 00 00 00
	00		 mov	 ecx, DWORD PTR ?KundunEventItemBag@@3PAVCItemBagZt@@A ; KundunEventItemBag
  0058f	85 c9		 test	 ecx, ecx
  00591	74 08		 je	 SHORT $LN203@LoadItemBa

; 2910 : 	{
; 2911 : 		delete KundunEventItemBag;

  00593	8b 01		 mov	 eax, DWORD PTR [ecx]
  00595	8b 10		 mov	 edx, DWORD PTR [eax]
  00597	6a 01		 push	 1
  00599	ff d2		 call	 edx
$LN203@LoadItemBa:

; 2912 : 	}
; 2913 : 
; 2914 : 	KundunEventItemBag = new CItemBagZt;

  0059b	68 d0 06 00 00	 push	 1744			; 000006d0H
  005a0	e8 00 00 00 00	 call	 ??2@YAPAXI@Z		; operator new
  005a5	83 c4 04	 add	 esp, 4
  005a8	89 45 f0	 mov	 DWORD PTR $T247139[ebp], eax
  005ab	c7 45 fc 10 00
	00 00		 mov	 DWORD PTR __$EHRec$[ebp+8], 16 ; 00000010H
  005b2	85 c0		 test	 eax, eax
  005b4	74 09		 je	 SHORT $LN205@LoadItemBa
  005b6	8b c8		 mov	 ecx, eax
  005b8	e8 00 00 00 00	 call	 ??0CItemBagZt@@QAE@XZ	; CItemBagZt::CItemBagZt
  005bd	eb 02		 jmp	 SHORT $LN206@LoadItemBa
$LN205@LoadItemBa:
  005bf	33 c0		 xor	 eax, eax
$LN206@LoadItemBa:
  005c1	89 75 fc	 mov	 DWORD PTR __$EHRec$[ebp+8], esi
  005c4	a3 00 00 00 00	 mov	 DWORD PTR ?KundunEventItemBag@@3PAVCItemBagZt@@A, eax ; KundunEventItemBag

; 2915 : 
; 2916 : 	if ( KundunEventItemBag == NULL )

  005c9	85 c0		 test	 eax, eax

; 2917 : 	{
; 2918 : 		MsgBox( "CItemBag %s", lMsg.Get(MSGGET(0, 110)));
; 2919 : 		return;

  005cb	0f 84 9a fa ff
	ff		 je	 $LN480@LoadItemBa

; 2920 : 	}
; 2921 : 
; 2922 : 	KundunEventItemBag->Init(".\\EventItemBags\\17_Kundun.txt");

  005d1	68 00 00 00 00	 push	 OFFSET ??_C@_0BO@BFFKLNGJ@?4?2EventItemBags?217_Kundun?4txt?$AA@
  005d6	8b c8		 mov	 ecx, eax
  005d8	e8 00 00 00 00	 call	 ?Init@CItemBagZt@@QAEXPAD@Z ; CItemBagZt::Init

; 2923 : 
; 2924 : //#if(GS_CASTLE==1)
; 2925 : 	if ( CastleHuntZoneBossItemBag != FALSE )

  005dd	8b 0d 00 00 00
	00		 mov	 ecx, DWORD PTR ?CastleHuntZoneBossItemBag@@3PAVCItemBagZt@@A ; CastleHuntZoneBossItemBag
  005e3	85 c9		 test	 ecx, ecx
  005e5	74 08		 je	 SHORT $LN207@LoadItemBa

; 2926 : 	{
; 2927 : 		delete CastleHuntZoneBossItemBag;

  005e7	8b 01		 mov	 eax, DWORD PTR [ecx]
  005e9	8b 10		 mov	 edx, DWORD PTR [eax]
  005eb	6a 01		 push	 1
  005ed	ff d2		 call	 edx
$LN207@LoadItemBa:

; 2928 : 	}
; 2929 : 
; 2930 : 	CastleHuntZoneBossItemBag = new CItemBagZt; 

  005ef	68 d0 06 00 00	 push	 1744			; 000006d0H
  005f4	e8 00 00 00 00	 call	 ??2@YAPAXI@Z		; operator new
  005f9	83 c4 04	 add	 esp, 4
  005fc	89 45 f0	 mov	 DWORD PTR $T247147[ebp], eax
  005ff	c7 45 fc 11 00
	00 00		 mov	 DWORD PTR __$EHRec$[ebp+8], 17 ; 00000011H
  00606	85 c0		 test	 eax, eax
  00608	74 09		 je	 SHORT $LN209@LoadItemBa
  0060a	8b c8		 mov	 ecx, eax
  0060c	e8 00 00 00 00	 call	 ??0CItemBagZt@@QAE@XZ	; CItemBagZt::CItemBagZt
  00611	eb 02		 jmp	 SHORT $LN210@LoadItemBa
$LN209@LoadItemBa:
  00613	33 c0		 xor	 eax, eax
$LN210@LoadItemBa:
  00615	89 75 fc	 mov	 DWORD PTR __$EHRec$[ebp+8], esi
  00618	a3 00 00 00 00	 mov	 DWORD PTR ?CastleHuntZoneBossItemBag@@3PAVCItemBagZt@@A, eax ; CastleHuntZoneBossItemBag

; 2931 : 
; 2932 : 	if ( CastleHuntZoneBossItemBag == NULL )

  0061d	85 c0		 test	 eax, eax

; 2933 : 	{
; 2934 : 		// Memory allocation error
; 2935 : 		MsgBox("CItemBag %s", lMsg.Get(MSGGET(0, 110)));
; 2936 : 		return;

  0061f	0f 84 46 fa ff
	ff		 je	 $LN480@LoadItemBa

; 2937 : 	}
; 2938 : 
; 2939 : 	CastleHuntZoneBossItemBag->Init(".\\EventItemBags\\18_Erohim.txt");

  00625	68 00 00 00 00	 push	 OFFSET ??_C@_0BO@OELONNDL@?4?2EventItemBags?218_Erohim?4txt?$AA@
  0062a	8b c8		 mov	 ecx, eax
  0062c	e8 00 00 00 00	 call	 ?Init@CItemBagZt@@QAEXPAD@Z ; CItemBagZt::Init

; 2940 : 
; 2941 : 	//GS_CASTLE EventItemBag for Special Mix
; 2942 : 	if ( CastleItemMixItemBag != FALSE )

  00631	8b 0d 00 00 00
	00		 mov	 ecx, DWORD PTR ?CastleItemMixItemBag@@3PAVCItemBagZt@@A ; CastleItemMixItemBag
  00637	85 c9		 test	 ecx, ecx
  00639	74 08		 je	 SHORT $LN211@LoadItemBa

; 2943 : 	{
; 2944 : 		delete CastleItemMixItemBag;

  0063b	8b 01		 mov	 eax, DWORD PTR [ecx]
  0063d	8b 10		 mov	 edx, DWORD PTR [eax]
  0063f	6a 01		 push	 1
  00641	ff d2		 call	 edx
$LN211@LoadItemBa:

; 2945 : 	}
; 2946 : 
; 2947 : 	CastleItemMixItemBag = new CItemBagZt;

  00643	68 d0 06 00 00	 push	 1744			; 000006d0H
  00648	e8 00 00 00 00	 call	 ??2@YAPAXI@Z		; operator new
  0064d	83 c4 04	 add	 esp, 4
  00650	89 45 f0	 mov	 DWORD PTR $T247155[ebp], eax
  00653	c7 45 fc 12 00
	00 00		 mov	 DWORD PTR __$EHRec$[ebp+8], 18 ; 00000012H
  0065a	85 c0		 test	 eax, eax
  0065c	74 09		 je	 SHORT $LN213@LoadItemBa
  0065e	8b c8		 mov	 ecx, eax
  00660	e8 00 00 00 00	 call	 ??0CItemBagZt@@QAE@XZ	; CItemBagZt::CItemBagZt
  00665	eb 02		 jmp	 SHORT $LN214@LoadItemBa
$LN213@LoadItemBa:
  00667	33 c0		 xor	 eax, eax
$LN214@LoadItemBa:
  00669	89 75 fc	 mov	 DWORD PTR __$EHRec$[ebp+8], esi
  0066c	a3 00 00 00 00	 mov	 DWORD PTR ?CastleItemMixItemBag@@3PAVCItemBagZt@@A, eax ; CastleItemMixItemBag

; 2948 : 
; 2949 : 	if ( CastleItemMixItemBag == NULL )

  00671	85 c0		 test	 eax, eax

; 2950 : 	{
; 2951 : 		// Memory allocation error
; 2952 : 		MsgBox("CItemBag %s", lMsg.Get(MSGGET(0, 110)));
; 2953 : 		return;

  00673	0f 84 f2 f9 ff
	ff		 je	 $LN480@LoadItemBa

; 2954 : 	}
; 2955 : 
; 2956 : 	CastleItemMixItemBag->Init(".\\EventItemBags\\19_CastleMix.txt");

  00679	68 00 00 00 00	 push	 OFFSET ??_C@_0CB@EADLJPLP@?4?2EventItemBags?219_CastleMix?4txt@
  0067e	8b c8		 mov	 ecx, eax
  00680	e8 00 00 00 00	 call	 ?Init@CItemBagZt@@QAEXPAD@Z ; CItemBagZt::Init

; 2957 : //#endif
; 2958 : 
; 2959 : 	if ( HiddenTreasureBoxItemBag != NULL )

  00685	8b 0d 00 00 00
	00		 mov	 ecx, DWORD PTR ?HiddenTreasureBoxItemBag@@3PAVCItemBagZt@@A ; HiddenTreasureBoxItemBag
  0068b	85 c9		 test	 ecx, ecx
  0068d	74 08		 je	 SHORT $LN215@LoadItemBa

; 2960 : 		delete HiddenTreasureBoxItemBag;

  0068f	8b 01		 mov	 eax, DWORD PTR [ecx]
  00691	8b 10		 mov	 edx, DWORD PTR [eax]
  00693	6a 01		 push	 1
  00695	ff d2		 call	 edx
$LN215@LoadItemBa:

; 2961 : 
; 2962 : 	HiddenTreasureBoxItemBag = new CItemBagZt; 

  00697	68 d0 06 00 00	 push	 1744			; 000006d0H
  0069c	e8 00 00 00 00	 call	 ??2@YAPAXI@Z		; operator new
  006a1	83 c4 04	 add	 esp, 4
  006a4	89 45 f0	 mov	 DWORD PTR $T247163[ebp], eax
  006a7	c7 45 fc 13 00
	00 00		 mov	 DWORD PTR __$EHRec$[ebp+8], 19 ; 00000013H
  006ae	85 c0		 test	 eax, eax
  006b0	74 09		 je	 SHORT $LN217@LoadItemBa
  006b2	8b c8		 mov	 ecx, eax
  006b4	e8 00 00 00 00	 call	 ??0CItemBagZt@@QAE@XZ	; CItemBagZt::CItemBagZt
  006b9	eb 02		 jmp	 SHORT $LN218@LoadItemBa
$LN217@LoadItemBa:
  006bb	33 c0		 xor	 eax, eax
$LN218@LoadItemBa:
  006bd	89 75 fc	 mov	 DWORD PTR __$EHRec$[ebp+8], esi
  006c0	a3 00 00 00 00	 mov	 DWORD PTR ?HiddenTreasureBoxItemBag@@3PAVCItemBagZt@@A, eax ; HiddenTreasureBoxItemBag

; 2963 : 	if ( HiddenTreasureBoxItemBag == NULL )

  006c5	85 c0		 test	 eax, eax

; 2964 : 	{
; 2965 : 		// Memory allocation error
; 2966 : 		MsgBox("CItemBag %s", lMsg.Get(MSGGET(0, 110)));
; 2967 : 		return;

  006c7	0f 84 9e f9 ff
	ff		 je	 $LN480@LoadItemBa

; 2968 : 	}
; 2969 : 
; 2970 : 	HiddenTreasureBoxItemBag->Init(".\\EventItemBags\\20_TreasureBox.txt");

  006cd	68 00 00 00 00	 push	 OFFSET ??_C@_0CD@KJMGGBIG@?4?2EventItemBags?220_TreasureBox?4t@
  006d2	8b c8		 mov	 ecx, eax
  006d4	e8 00 00 00 00	 call	 ?Init@CItemBagZt@@QAEXPAD@Z ; CItemBagZt::Init

; 2971 : 
; 2972 : 	if ( RedRibbonBoxEventItemBag != NULL )

  006d9	8b 0d 00 00 00
	00		 mov	 ecx, DWORD PTR ?RedRibbonBoxEventItemBag@@3PAVCItemBagZt@@A ; RedRibbonBoxEventItemBag
  006df	85 c9		 test	 ecx, ecx
  006e1	74 08		 je	 SHORT $LN219@LoadItemBa

; 2973 : 		delete RedRibbonBoxEventItemBag;

  006e3	8b 01		 mov	 eax, DWORD PTR [ecx]
  006e5	8b 10		 mov	 edx, DWORD PTR [eax]
  006e7	6a 01		 push	 1
  006e9	ff d2		 call	 edx
$LN219@LoadItemBa:

; 2974 : 
; 2975 : 	RedRibbonBoxEventItemBag = new CItemBagZt; 

  006eb	68 d0 06 00 00	 push	 1744			; 000006d0H
  006f0	e8 00 00 00 00	 call	 ??2@YAPAXI@Z		; operator new
  006f5	83 c4 04	 add	 esp, 4
  006f8	89 45 f0	 mov	 DWORD PTR $T247171[ebp], eax
  006fb	c7 45 fc 14 00
	00 00		 mov	 DWORD PTR __$EHRec$[ebp+8], 20 ; 00000014H
  00702	85 c0		 test	 eax, eax
  00704	74 09		 je	 SHORT $LN221@LoadItemBa
  00706	8b c8		 mov	 ecx, eax
  00708	e8 00 00 00 00	 call	 ??0CItemBagZt@@QAE@XZ	; CItemBagZt::CItemBagZt
  0070d	eb 02		 jmp	 SHORT $LN222@LoadItemBa
$LN221@LoadItemBa:
  0070f	33 c0		 xor	 eax, eax
$LN222@LoadItemBa:
  00711	89 75 fc	 mov	 DWORD PTR __$EHRec$[ebp+8], esi
  00714	a3 00 00 00 00	 mov	 DWORD PTR ?RedRibbonBoxEventItemBag@@3PAVCItemBagZt@@A, eax ; RedRibbonBoxEventItemBag

; 2976 : 	if ( RedRibbonBoxEventItemBag == NULL )

  00719	85 c0		 test	 eax, eax

; 2977 : 	{
; 2978 : 		// Memory allocation error
; 2979 : 		MsgBox("CItemBag %s", lMsg.Get(MSGGET(0, 110)));
; 2980 : 		return;

  0071b	0f 84 4a f9 ff
	ff		 je	 $LN480@LoadItemBa

; 2981 : 	}
; 2982 : 
; 2983 : 	RedRibbonBoxEventItemBag->Init(".\\EventItemBags\\21_RedRibbonBox.txt");

  00721	68 00 00 00 00	 push	 OFFSET ??_C@_0CE@EKBOFJBL@?4?2EventItemBags?221_RedRibbonBox?4@
  00726	8b c8		 mov	 ecx, eax
  00728	e8 00 00 00 00	 call	 ?Init@CItemBagZt@@QAEXPAD@Z ; CItemBagZt::Init

; 2984 : 
; 2985 : 	if ( GreenRibbonBoxEventItemBag != NULL )

  0072d	8b 0d 00 00 00
	00		 mov	 ecx, DWORD PTR ?GreenRibbonBoxEventItemBag@@3PAVCItemBagZt@@A ; GreenRibbonBoxEventItemBag
  00733	85 c9		 test	 ecx, ecx
  00735	74 08		 je	 SHORT $LN223@LoadItemBa

; 2986 : 		delete GreenRibbonBoxEventItemBag;

  00737	8b 01		 mov	 eax, DWORD PTR [ecx]
  00739	8b 10		 mov	 edx, DWORD PTR [eax]
  0073b	6a 01		 push	 1
  0073d	ff d2		 call	 edx
$LN223@LoadItemBa:

; 2987 : 
; 2988 : 	GreenRibbonBoxEventItemBag = new CItemBagZt; 

  0073f	68 d0 06 00 00	 push	 1744			; 000006d0H
  00744	e8 00 00 00 00	 call	 ??2@YAPAXI@Z		; operator new
  00749	83 c4 04	 add	 esp, 4
  0074c	89 45 f0	 mov	 DWORD PTR $T247179[ebp], eax
  0074f	c7 45 fc 15 00
	00 00		 mov	 DWORD PTR __$EHRec$[ebp+8], 21 ; 00000015H
  00756	85 c0		 test	 eax, eax
  00758	74 09		 je	 SHORT $LN225@LoadItemBa
  0075a	8b c8		 mov	 ecx, eax
  0075c	e8 00 00 00 00	 call	 ??0CItemBagZt@@QAE@XZ	; CItemBagZt::CItemBagZt
  00761	eb 02		 jmp	 SHORT $LN226@LoadItemBa
$LN225@LoadItemBa:
  00763	33 c0		 xor	 eax, eax
$LN226@LoadItemBa:
  00765	89 75 fc	 mov	 DWORD PTR __$EHRec$[ebp+8], esi
  00768	a3 00 00 00 00	 mov	 DWORD PTR ?GreenRibbonBoxEventItemBag@@3PAVCItemBagZt@@A, eax ; GreenRibbonBoxEventItemBag

; 2989 : 	if ( GreenRibbonBoxEventItemBag == NULL )

  0076d	85 c0		 test	 eax, eax

; 2990 : 	{
; 2991 : 		// Memory allocation error
; 2992 : 		MsgBox("CItemBag %s", lMsg.Get(MSGGET(0, 110)));
; 2993 : 		return;

  0076f	0f 84 f6 f8 ff
	ff		 je	 $LN480@LoadItemBa

; 2994 : 	}
; 2995 : 
; 2996 : 	GreenRibbonBoxEventItemBag->Init(".\\EventItemBags\\22_GreenRibbonBox.txt");

  00775	68 00 00 00 00	 push	 OFFSET ??_C@_0CG@GALPMJFL@?4?2EventItemBags?222_GreenRibbonBo@
  0077a	8b c8		 mov	 ecx, eax
  0077c	e8 00 00 00 00	 call	 ?Init@CItemBagZt@@QAEXPAD@Z ; CItemBagZt::Init

; 2997 : 
; 2998 : 	if ( BlueRibbonBoxEventItemBag != NULL )

  00781	8b 0d 00 00 00
	00		 mov	 ecx, DWORD PTR ?BlueRibbonBoxEventItemBag@@3PAVCItemBagZt@@A ; BlueRibbonBoxEventItemBag
  00787	85 c9		 test	 ecx, ecx
  00789	74 08		 je	 SHORT $LN227@LoadItemBa

; 2999 : 		delete BlueRibbonBoxEventItemBag;

  0078b	8b 01		 mov	 eax, DWORD PTR [ecx]
  0078d	8b 10		 mov	 edx, DWORD PTR [eax]
  0078f	6a 01		 push	 1
  00791	ff d2		 call	 edx
$LN227@LoadItemBa:

; 3000 : 
; 3001 : 	BlueRibbonBoxEventItemBag = new CItemBagZt; 

  00793	68 d0 06 00 00	 push	 1744			; 000006d0H
  00798	e8 00 00 00 00	 call	 ??2@YAPAXI@Z		; operator new
  0079d	83 c4 04	 add	 esp, 4
  007a0	89 45 f0	 mov	 DWORD PTR $T247187[ebp], eax
  007a3	c7 45 fc 16 00
	00 00		 mov	 DWORD PTR __$EHRec$[ebp+8], 22 ; 00000016H
  007aa	85 c0		 test	 eax, eax
  007ac	74 09		 je	 SHORT $LN229@LoadItemBa
  007ae	8b c8		 mov	 ecx, eax
  007b0	e8 00 00 00 00	 call	 ??0CItemBagZt@@QAE@XZ	; CItemBagZt::CItemBagZt
  007b5	eb 02		 jmp	 SHORT $LN230@LoadItemBa
$LN229@LoadItemBa:
  007b7	33 c0		 xor	 eax, eax
$LN230@LoadItemBa:
  007b9	89 75 fc	 mov	 DWORD PTR __$EHRec$[ebp+8], esi
  007bc	a3 00 00 00 00	 mov	 DWORD PTR ?BlueRibbonBoxEventItemBag@@3PAVCItemBagZt@@A, eax ; BlueRibbonBoxEventItemBag

; 3002 : 	if ( BlueRibbonBoxEventItemBag == NULL )

  007c1	85 c0		 test	 eax, eax

; 3003 : 	{
; 3004 : 		// Memory allocation error
; 3005 : 		MsgBox("CItemBag %s", lMsg.Get(MSGGET(0, 110)));
; 3006 : 		return;

  007c3	0f 84 a2 f8 ff
	ff		 je	 $LN480@LoadItemBa

; 3007 : 	}
; 3008 : 
; 3009 : 	BlueRibbonBoxEventItemBag->Init(".\\EventItemBags\\23_BlueRibbonBox.txt");

  007c9	68 00 00 00 00	 push	 OFFSET ??_C@_0CF@DDEIPMCF@?4?2EventItemBags?223_BlueRibbonBox@
  007ce	8b c8		 mov	 ecx, eax
  007d0	e8 00 00 00 00	 call	 ?Init@CItemBagZt@@QAEXPAD@Z ; CItemBagZt::Init

; 3010 : 
; 3011 : 	if ( PinkChocolateBoxEventItemBag != NULL )

  007d5	8b 0d 00 00 00
	00		 mov	 ecx, DWORD PTR ?PinkChocolateBoxEventItemBag@@3PAVCItemBagZt@@A ; PinkChocolateBoxEventItemBag
  007db	85 c9		 test	 ecx, ecx
  007dd	74 08		 je	 SHORT $LN231@LoadItemBa

; 3012 : 		delete PinkChocolateBoxEventItemBag;

  007df	8b 01		 mov	 eax, DWORD PTR [ecx]
  007e1	8b 10		 mov	 edx, DWORD PTR [eax]
  007e3	6a 01		 push	 1
  007e5	ff d2		 call	 edx
$LN231@LoadItemBa:

; 3013 : 
; 3014 : 	PinkChocolateBoxEventItemBag = new CItemBagZt; 

  007e7	68 d0 06 00 00	 push	 1744			; 000006d0H
  007ec	e8 00 00 00 00	 call	 ??2@YAPAXI@Z		; operator new
  007f1	83 c4 04	 add	 esp, 4
  007f4	89 45 f0	 mov	 DWORD PTR $T247195[ebp], eax
  007f7	c7 45 fc 17 00
	00 00		 mov	 DWORD PTR __$EHRec$[ebp+8], 23 ; 00000017H
  007fe	85 c0		 test	 eax, eax
  00800	74 09		 je	 SHORT $LN233@LoadItemBa
  00802	8b c8		 mov	 ecx, eax
  00804	e8 00 00 00 00	 call	 ??0CItemBagZt@@QAE@XZ	; CItemBagZt::CItemBagZt
  00809	eb 02		 jmp	 SHORT $LN234@LoadItemBa
$LN233@LoadItemBa:
  0080b	33 c0		 xor	 eax, eax
$LN234@LoadItemBa:
  0080d	89 75 fc	 mov	 DWORD PTR __$EHRec$[ebp+8], esi
  00810	a3 00 00 00 00	 mov	 DWORD PTR ?PinkChocolateBoxEventItemBag@@3PAVCItemBagZt@@A, eax ; PinkChocolateBoxEventItemBag

; 3015 : 	if ( PinkChocolateBoxEventItemBag == NULL )

  00815	85 c0		 test	 eax, eax

; 3016 : 	{
; 3017 : 		// Memory allocation error
; 3018 : 		MsgBox("CItemBag %s", lMsg.Get(MSGGET(0, 110)));
; 3019 : 		return;

  00817	0f 84 4e f8 ff
	ff		 je	 $LN480@LoadItemBa

; 3020 : 	}
; 3021 : 
; 3022 : 	PinkChocolateBoxEventItemBag->Init(".\\EventItemBags\\24_PinkChocolateBox.txt");

  0081d	68 00 00 00 00	 push	 OFFSET ??_C@_0CI@OHMLOKHK@?4?2EventItemBags?224_PinkChocolate@
  00822	8b c8		 mov	 ecx, eax
  00824	e8 00 00 00 00	 call	 ?Init@CItemBagZt@@QAEXPAD@Z ; CItemBagZt::Init

; 3023 : 
; 3024 : 	if ( RedChocolateBoxEventItemBag != NULL )

  00829	8b 0d 00 00 00
	00		 mov	 ecx, DWORD PTR ?RedChocolateBoxEventItemBag@@3PAVCItemBagZt@@A ; RedChocolateBoxEventItemBag
  0082f	85 c9		 test	 ecx, ecx
  00831	74 08		 je	 SHORT $LN235@LoadItemBa

; 3025 : 		delete RedChocolateBoxEventItemBag;

  00833	8b 01		 mov	 eax, DWORD PTR [ecx]
  00835	8b 10		 mov	 edx, DWORD PTR [eax]
  00837	6a 01		 push	 1
  00839	ff d2		 call	 edx
$LN235@LoadItemBa:

; 3026 : 
; 3027 : 	RedChocolateBoxEventItemBag = new CItemBagZt; 

  0083b	68 d0 06 00 00	 push	 1744			; 000006d0H
  00840	e8 00 00 00 00	 call	 ??2@YAPAXI@Z		; operator new
  00845	83 c4 04	 add	 esp, 4
  00848	89 45 f0	 mov	 DWORD PTR $T247203[ebp], eax
  0084b	c7 45 fc 18 00
	00 00		 mov	 DWORD PTR __$EHRec$[ebp+8], 24 ; 00000018H
  00852	85 c0		 test	 eax, eax
  00854	74 09		 je	 SHORT $LN237@LoadItemBa
  00856	8b c8		 mov	 ecx, eax
  00858	e8 00 00 00 00	 call	 ??0CItemBagZt@@QAE@XZ	; CItemBagZt::CItemBagZt
  0085d	eb 02		 jmp	 SHORT $LN238@LoadItemBa
$LN237@LoadItemBa:
  0085f	33 c0		 xor	 eax, eax
$LN238@LoadItemBa:
  00861	89 75 fc	 mov	 DWORD PTR __$EHRec$[ebp+8], esi
  00864	a3 00 00 00 00	 mov	 DWORD PTR ?RedChocolateBoxEventItemBag@@3PAVCItemBagZt@@A, eax ; RedChocolateBoxEventItemBag

; 3028 : 	if ( RedChocolateBoxEventItemBag == NULL )

  00869	85 c0		 test	 eax, eax

; 3029 : 	{
; 3030 : 		// Memory allocation error
; 3031 : 		MsgBox("CItemBag %s", lMsg.Get(MSGGET(0, 110)));
; 3032 : 		return;

  0086b	0f 84 fa f7 ff
	ff		 je	 $LN480@LoadItemBa

; 3033 : 	}
; 3034 : 
; 3035 : 	RedChocolateBoxEventItemBag->Init(".\\EventItemBags\\25_RedChocolateBox.txt");

  00871	68 00 00 00 00	 push	 OFFSET ??_C@_0CH@JGGMOEHL@?4?2EventItemBags?225_RedChocolateB@
  00876	8b c8		 mov	 ecx, eax
  00878	e8 00 00 00 00	 call	 ?Init@CItemBagZt@@QAEXPAD@Z ; CItemBagZt::Init

; 3036 : 
; 3037 : 	if ( BlueChocolateBoxEventItemBag != NULL )

  0087d	8b 0d 00 00 00
	00		 mov	 ecx, DWORD PTR ?BlueChocolateBoxEventItemBag@@3PAVCItemBagZt@@A ; BlueChocolateBoxEventItemBag
  00883	85 c9		 test	 ecx, ecx
  00885	74 08		 je	 SHORT $LN239@LoadItemBa

; 3038 : 		delete BlueChocolateBoxEventItemBag;

  00887	8b 01		 mov	 eax, DWORD PTR [ecx]
  00889	8b 10		 mov	 edx, DWORD PTR [eax]
  0088b	6a 01		 push	 1
  0088d	ff d2		 call	 edx
$LN239@LoadItemBa:

; 3039 : 
; 3040 : 	BlueChocolateBoxEventItemBag = new CItemBagZt; 

  0088f	68 d0 06 00 00	 push	 1744			; 000006d0H
  00894	e8 00 00 00 00	 call	 ??2@YAPAXI@Z		; operator new
  00899	83 c4 04	 add	 esp, 4
  0089c	89 45 f0	 mov	 DWORD PTR $T247211[ebp], eax
  0089f	c7 45 fc 19 00
	00 00		 mov	 DWORD PTR __$EHRec$[ebp+8], 25 ; 00000019H
  008a6	85 c0		 test	 eax, eax
  008a8	74 09		 je	 SHORT $LN241@LoadItemBa
  008aa	8b c8		 mov	 ecx, eax
  008ac	e8 00 00 00 00	 call	 ??0CItemBagZt@@QAE@XZ	; CItemBagZt::CItemBagZt
  008b1	eb 02		 jmp	 SHORT $LN242@LoadItemBa
$LN241@LoadItemBa:
  008b3	33 c0		 xor	 eax, eax
$LN242@LoadItemBa:
  008b5	89 75 fc	 mov	 DWORD PTR __$EHRec$[ebp+8], esi
  008b8	a3 00 00 00 00	 mov	 DWORD PTR ?BlueChocolateBoxEventItemBag@@3PAVCItemBagZt@@A, eax ; BlueChocolateBoxEventItemBag

; 3041 : 	if ( BlueChocolateBoxEventItemBag == NULL )

  008bd	85 c0		 test	 eax, eax

; 3042 : 	{
; 3043 : 		// Memory allocation error
; 3044 : 		MsgBox("CItemBag %s", lMsg.Get(MSGGET(0, 110)));
; 3045 : 		return;

  008bf	0f 84 a6 f7 ff
	ff		 je	 $LN480@LoadItemBa

; 3046 : 	}
; 3047 : 
; 3048 : 	BlueChocolateBoxEventItemBag->Init(".\\EventItemBags\\26_BlueChocolateBox.txt");

  008c5	68 00 00 00 00	 push	 OFFSET ??_C@_0CI@COGPEILC@?4?2EventItemBags?226_BlueChocolate@
  008ca	8b c8		 mov	 ecx, eax
  008cc	e8 00 00 00 00	 call	 ?Init@CItemBagZt@@QAEXPAD@Z ; CItemBagZt::Init

; 3049 : 
; 3050 : 	if ( LightPurpleCandyBoxEventItemBag != NULL )

  008d1	8b 0d 00 00 00
	00		 mov	 ecx, DWORD PTR ?LightPurpleCandyBoxEventItemBag@@3PAVCItemBagZt@@A ; LightPurpleCandyBoxEventItemBag
  008d7	85 c9		 test	 ecx, ecx
  008d9	74 08		 je	 SHORT $LN243@LoadItemBa

; 3051 : 		delete LightPurpleCandyBoxEventItemBag;

  008db	8b 01		 mov	 eax, DWORD PTR [ecx]
  008dd	8b 10		 mov	 edx, DWORD PTR [eax]
  008df	6a 01		 push	 1
  008e1	ff d2		 call	 edx
$LN243@LoadItemBa:

; 3052 : 
; 3053 : 	LightPurpleCandyBoxEventItemBag = new CItemBagZt; 

  008e3	68 d0 06 00 00	 push	 1744			; 000006d0H
  008e8	e8 00 00 00 00	 call	 ??2@YAPAXI@Z		; operator new
  008ed	83 c4 04	 add	 esp, 4
  008f0	89 45 f0	 mov	 DWORD PTR $T247219[ebp], eax
  008f3	c7 45 fc 1a 00
	00 00		 mov	 DWORD PTR __$EHRec$[ebp+8], 26 ; 0000001aH
  008fa	85 c0		 test	 eax, eax
  008fc	74 09		 je	 SHORT $LN245@LoadItemBa
  008fe	8b c8		 mov	 ecx, eax
  00900	e8 00 00 00 00	 call	 ??0CItemBagZt@@QAE@XZ	; CItemBagZt::CItemBagZt
  00905	eb 02		 jmp	 SHORT $LN246@LoadItemBa
$LN245@LoadItemBa:
  00907	33 c0		 xor	 eax, eax
$LN246@LoadItemBa:
  00909	89 75 fc	 mov	 DWORD PTR __$EHRec$[ebp+8], esi
  0090c	a3 00 00 00 00	 mov	 DWORD PTR ?LightPurpleCandyBoxEventItemBag@@3PAVCItemBagZt@@A, eax ; LightPurpleCandyBoxEventItemBag

; 3054 : 	if ( LightPurpleCandyBoxEventItemBag == NULL )

  00911	85 c0		 test	 eax, eax

; 3055 : 	{
; 3056 : 		// Memory allocation error
; 3057 : 		MsgBox("CItemBag %s", lMsg.Get(MSGGET(0, 110)));
; 3058 : 		return;

  00913	0f 84 52 f7 ff
	ff		 je	 $LN480@LoadItemBa

; 3059 : 	}
; 3060 : 
; 3061 : 	LightPurpleCandyBoxEventItemBag->Init(".\\EventItemBags\\27_LightPurpleCandyBox.txt");

  00919	68 00 00 00 00	 push	 OFFSET ??_C@_0CL@JHGJDHNP@?4?2EventItemBags?227_LightPurpleCa@
  0091e	8b c8		 mov	 ecx, eax
  00920	e8 00 00 00 00	 call	 ?Init@CItemBagZt@@QAEXPAD@Z ; CItemBagZt::Init

; 3062 : 
; 3063 : 	if ( VermilionCandyBoxEventItemBag != NULL )

  00925	8b 0d 00 00 00
	00		 mov	 ecx, DWORD PTR ?VermilionCandyBoxEventItemBag@@3PAVCItemBagZt@@A ; VermilionCandyBoxEventItemBag
  0092b	85 c9		 test	 ecx, ecx
  0092d	74 08		 je	 SHORT $LN247@LoadItemBa

; 3064 : 		delete VermilionCandyBoxEventItemBag;

  0092f	8b 01		 mov	 eax, DWORD PTR [ecx]
  00931	8b 10		 mov	 edx, DWORD PTR [eax]
  00933	6a 01		 push	 1
  00935	ff d2		 call	 edx
$LN247@LoadItemBa:

; 3065 : 
; 3066 : 	VermilionCandyBoxEventItemBag = new CItemBagZt; 

  00937	68 d0 06 00 00	 push	 1744			; 000006d0H
  0093c	e8 00 00 00 00	 call	 ??2@YAPAXI@Z		; operator new
  00941	83 c4 04	 add	 esp, 4
  00944	89 45 f0	 mov	 DWORD PTR $T247227[ebp], eax
  00947	c7 45 fc 1b 00
	00 00		 mov	 DWORD PTR __$EHRec$[ebp+8], 27 ; 0000001bH
  0094e	85 c0		 test	 eax, eax
  00950	74 09		 je	 SHORT $LN249@LoadItemBa
  00952	8b c8		 mov	 ecx, eax
  00954	e8 00 00 00 00	 call	 ??0CItemBagZt@@QAE@XZ	; CItemBagZt::CItemBagZt
  00959	eb 02		 jmp	 SHORT $LN250@LoadItemBa
$LN249@LoadItemBa:
  0095b	33 c0		 xor	 eax, eax
$LN250@LoadItemBa:
  0095d	89 75 fc	 mov	 DWORD PTR __$EHRec$[ebp+8], esi
  00960	a3 00 00 00 00	 mov	 DWORD PTR ?VermilionCandyBoxEventItemBag@@3PAVCItemBagZt@@A, eax ; VermilionCandyBoxEventItemBag

; 3067 : 	if ( VermilionCandyBoxEventItemBag == NULL )

  00965	85 c0		 test	 eax, eax

; 3068 : 	{
; 3069 : 		// Memory allocation error
; 3070 : 		MsgBox("CItemBag %s", lMsg.Get(MSGGET(0, 110)));
; 3071 : 		return;

  00967	0f 84 fe f6 ff
	ff		 je	 $LN480@LoadItemBa

; 3072 : 	}
; 3073 : 
; 3074 : 	VermilionCandyBoxEventItemBag->Init(".\\EventItemBags\\28_VermilionCandyBox.txt");

  0096d	68 00 00 00 00	 push	 OFFSET ??_C@_0CJ@KMFKGEGI@?4?2EventItemBags?228_VermilionCand@
  00972	8b c8		 mov	 ecx, eax
  00974	e8 00 00 00 00	 call	 ?Init@CItemBagZt@@QAEXPAD@Z ; CItemBagZt::Init

; 3075 : 
; 3076 : 	if ( DeepBlueCandyBoxEventItemBag != NULL )

  00979	8b 0d 00 00 00
	00		 mov	 ecx, DWORD PTR ?DeepBlueCandyBoxEventItemBag@@3PAVCItemBagZt@@A ; DeepBlueCandyBoxEventItemBag
  0097f	85 c9		 test	 ecx, ecx
  00981	74 08		 je	 SHORT $LN251@LoadItemBa

; 3077 : 		delete DeepBlueCandyBoxEventItemBag;

  00983	8b 01		 mov	 eax, DWORD PTR [ecx]
  00985	8b 10		 mov	 edx, DWORD PTR [eax]
  00987	6a 01		 push	 1
  00989	ff d2		 call	 edx
$LN251@LoadItemBa:

; 3078 : 
; 3079 : 	DeepBlueCandyBoxEventItemBag = new CItemBagZt; 

  0098b	68 d0 06 00 00	 push	 1744			; 000006d0H
  00990	e8 00 00 00 00	 call	 ??2@YAPAXI@Z		; operator new
  00995	83 c4 04	 add	 esp, 4
  00998	89 45 f0	 mov	 DWORD PTR $T247235[ebp], eax
  0099b	c7 45 fc 1c 00
