; Listing generated by Microsoft (R) Optimizing Compiler Version 16.00.30319.01 

	TITLE	E:\work\tranet_version\GS\GameServer\GameServer.cpp
	.686P
	.XMM
	include listing.inc
	.model	flat

INCLUDELIB LIBCMT
INCLUDELIB OLDNAMES

PUBLIC	?ZtDbIp@@3PADA					; ZtDbIp
PUBLIC	?DataServerIp2@@3PADA				; DataServerIp2
PUBLIC	?DataServerIp@@3PADA				; DataServerIp
PUBLIC	?JoinServerIp@@3PADA				; JoinServerIp
PUBLIC	?gServerReady@@3HA				; gServerReady
PUBLIC	?gCloseMsg@@3HA					; gCloseMsg
PUBLIC	?gCloseMsgTime@@3HA				; gCloseMsgTime
PUBLIC	?gCurPaintPlayer@@3HA				; gCurPaintPlayer
PUBLIC	?gCurPaintType@@3HA				; gCurPaintType
PUBLIC	?gCurPaintMapNumber@@3HA			; gCurPaintMapNumber
PUBLIC	?hInst@@3PAUHINSTANCE__@@A			; hInst
PUBLIC	?ghWnd@@3PAUHWND__@@A				; ghWnd
PUBLIC	?szTitle@@3PADA					; szTitle
PUBLIC	?szWindowClass@@3PADA				; szWindowClass
PUBLIC	?g_hCsLogDlgProc@@3PAUHWND__@@A			; g_hCsLogDlgProc
_BSS	SEGMENT
?ZtDbIp@@3PADA DB 0100H DUP (?)				; ZtDbIp
?DataServerIp2@@3PADA DB 0100H DUP (?)			; DataServerIp2
?DataServerIp@@3PADA DB 0100H DUP (?)			; DataServerIp
?JoinServerIp@@3PADA DB 0100H DUP (?)			; JoinServerIp
?gServerReady@@3HA DD 01H DUP (?)			; gServerReady
?gCloseMsg@@3HA DD 01H DUP (?)				; gCloseMsg
?gCloseMsgTime@@3HA DD 01H DUP (?)			; gCloseMsgTime
?gCurPaintPlayer@@3HA DD 01H DUP (?)			; gCurPaintPlayer
?gCurPaintType@@3HA DD 01H DUP (?)			; gCurPaintType
?gCurPaintMapNumber@@3HA DD 01H DUP (?)			; gCurPaintMapNumber
?hInst@@3PAUHINSTANCE__@@A DD 01H DUP (?)		; hInst
?ghWnd@@3PAUHWND__@@A DD 01H DUP (?)			; ghWnd
?szTitle@@3PADA DB 064H DUP (?)				; szTitle
?szWindowClass@@3PADA DB 040H DUP (?)			; szWindowClass
?g_hCsLogDlgProc@@3PAUHWND__@@A DD 01H DUP (?)		; g_hCsLogDlgProc
_BSS	ENDS
_DATA	SEGMENT
_g_iNpcUpDfLevel_CGATE DD 01H
	DD	02H
	DD	02dc6c0H
	DD	02H
	DD	03H
	DD	02dc6c0H
	DD	03H
	DD	04H
	DD	02dc6c0H
_g_iNpcUpDfLevel_CSTATUE DD 01H
	DD	03H
	DD	02dc6c0H
	DD	02H
	DD	05H
	DD	02dc6c0H
	DD	03H
	DD	07H
	DD	02dc6c0H
_g_iNpcUpMaxHP_CGATE DD 02625a0H
	DD	02H
	DD	0f4240H
	DD	03567e0H
	DD	03H
	DD	0f4240H
	DD	04f5880H
	DD	04H
	DD	0f4240H
_g_iNpcUpMaxHP_CSTATUE DD 02191c0H
	DD	03H
	DD	0f4240H
	DD	033e140H
	DD	05H
	DD	0f4240H
	DD	04c4b40H
	DD	07H
	DD	0f4240H
_g_iNpcUpRgLevel_CSTATUE DD 01H
	DD	03H
	DD	04c4b40H
	DD	02H
	DD	05H
	DD	04c4b40H
	DD	03H
	DD	07H
	DD	04c4b40H
_g_iCsUserReSpawnArea DD 023H
	DD	011H
	DD	090H
	DD	030H
	DD	04aH
	DD	090H
	DD	073H
	DD	09aH
	DD	023H
	DD	011H
	DD	090H
	DD	030H
_g_iNpcDefense_CGATE DD 064H
	DD	0b4H
	DD	012cH
	DD	0208H
_g_iNpcDefense_CSTATUE DD 050H
	DD	0b4H
	DD	0154H
	DD	0226H
_g_iCastleWallStepAxisY DD 071H
	DD	0a0H
	DD	0cbH
_g_sttBLOODCASTLE_LEVEL DD 0fH
	DD	050H
	DD	0aH
	DD	03cH
	DD	051H
	DD	082H
	DD	03dH
	DD	06eH
	DD	083H
	DD	0b4H
	DD	06fH
	DD	0a0H
	DD	0b5H
	DD	0e6H
	DD	0a1H
	DD	0d2H
	DD	0e7H
	DD	0118H
	DD	0d3H
	DD	0104H
	DD	0119H
	DD	014aH
	DD	0105H
	DD	0136H
	DD	014bH
	DD	03e8H
	DD	0137H
	DD	03e8H
	DD	0fH
	DD	04afH
	DD	0aH
	DD	04afH
_g_sttCHAOSCASTLE_LEVEL DD 0fH
	DD	031H
	DD	0fH
	DD	01dH
	DD	032H
	DD	077H
	DD	01eH
	DD	063H
	DD	078H
	DD	0b3H
	DD	064H
	DD	09fH
	DD	0b4H
	DD	0efH
	DD	0a0H
	DD	0dbH
	DD	0f0H
	DD	012bH
	DD	0dcH
	DD	0117H
	DD	012cH
	DD	03e8H
	DD	0118H
	DD	03e8H
	DD	03e8H
	DD	04afH
	DD	03e8H
	DD	04afH
_g_iChaosCastle_BlowOutDistance DD 03H
	DD	04H
	DD	03H
	DD	04H
	DD	02H
	DD	03H
	DD	00H
	DD	01H
_g_iChaosCastle_BlowOutDamage DD 0fH
	DD	0fH
	DD	0aH
	DD	05H
_g_iChaosCastle_EnterCost DD 061a8H
	DD	013880H
	DD	0249f0H
	DD	03d090H
	DD	061a80H
	DD	09eb10H
	DD	0f4240H
_g_iChaosCastle_GuardSetValue DD 09c4H
	DD	09c4H
	DD	09c4H
	DD	09c4H
	DD	09c4H
	DD	09c4H
	DD	09c4H
_g_iChaosCastle_MonsterItems DD 01c0dH
	DD	01H
	DD	01c0eH
	DD	02H
	DD	01c0dH
	DD	01H
	DD	01c0eH
	DD	03H
	DD	01c0dH
	DD	01H
	DD	01c0eH
	DD	03H
	DD	01c0dH
	DD	02H
	DD	01c0eH
	DD	02H
	DD	01c0dH
	DD	02H
	DD	01c0eH
	DD	03H
	DD	01c0dH
	DD	02H
	DD	01c0eH
	DD	03H
	DD	01c0dH
	DD	02H
	DD	01c0eH
	DD	04H
_g_iChaosCastle_MonsterItemsNewServer DD 00H
	DD	00H
	DD	01c0eH
	DD	02H
	DD	01c0dH
	DD	01H
	DD	01c0eH
	DD	01H
	DD	01c0dH
	DD	01H
	DD	01c0eH
	DD	02H
	DD	01c0dH
	DD	01H
	DD	01c0eH
	DD	02H
	DD	01c0dH
	DD	02H
	DD	01c0eH
	DD	01H
	DD	01c0dH
	DD	02H
	DD	01c0eH
	DD	02H
	DD	01c0dH
	DD	02H
	DD	01c0eH
	DD	03H
_g_iChaosCastle_GroundAxis DD 017H
	DD	04bH
	DD	02cH
	DD	06cH
_g_iChaosCastle_DamageAxis DD 017H
	DD	04bH
	DD	02cH
	DD	06cH
	DD	019H
	DD	04dH
	DD	02aH
	DD	06aH
	DD	01bH
	DD	04fH
	DD	028H
	DD	068H
	DD	01dH
	DD	051H
	DD	026H
	DD	066H
_g_iChaosCastle_MapHollowZone DD 017H
	DD	04bH
	DD	02cH
	DD	04cH
	DD	02bH
	DD	04dH
	DD	02cH
	DD	06cH
	DD	017H
	DD	06bH
	DD	02aH
	DD	06cH
	DD	017H
	DD	04dH
	DD	018H
	DD	06aH
	DD	017H
	DD	04bH
	DD	02cH
	DD	04cH
	DD	02bH
	DD	04dH
	DD	02cH
	DD	06cH
	DD	017H
	DD	06bH
	DD	02aH
	DD	06cH
	DD	017H
	DD	04dH
	DD	018H
	DD	06aH
	DD	019H
	DD	04dH
	DD	02aH
	DD	04eH
	DD	029H
	DD	04fH
	DD	02aH
	DD	06aH
	DD	019H
	DD	069H
	DD	028H
	DD	06aH
	DD	019H
	DD	04fH
	DD	01aH
	DD	068H
	DD	01bH
	DD	04fH
	DD	028H
	DD	050H
	DD	027H
	DD	051H
	DD	028H
	DD	068H
	DD	01bH
	DD	067H
	DD	026H
	DD	068H
	DD	01bH
	DD	051H
	DD	01cH
	DD	066H
_DATA	ENDS
PUBLIC	??_H@YGXPAXIHP6EPAX0@Z@Z			; `vector constructor iterator'
; Function compile flags: /Ogtp
;	COMDAT ??_H@YGXPAXIHP6EPAX0@Z@Z
_TEXT	SEGMENT
___t$ = 8						; size = 4
___s$ = 12						; size = 4
___n$ = 16						; size = 4
___f$ = 20						; size = 4
??_H@YGXPAXIHP6EPAX0@Z@Z PROC				; `vector constructor iterator', COMDAT
  00000	55		 push	 ebp
  00001	8b ec		 mov	 ebp, esp
  00003	57		 push	 edi
  00004	8b 7d 10	 mov	 edi, DWORD PTR ___n$[ebp]
  00007	4f		 dec	 edi
  00008	78 14		 js	 SHORT $LN1@vector
  0000a	53		 push	 ebx
  0000b	8b 5d 14	 mov	 ebx, DWORD PTR ___f$[ebp]
  0000e	56		 push	 esi
  0000f	8b 75 08	 mov	 esi, DWORD PTR ___t$[ebp]
$LL2@vector:
  00012	8b ce		 mov	 ecx, esi
  00014	ff d3		 call	 ebx
  00016	03 75 0c	 add	 esi, DWORD PTR ___s$[ebp]
  00019	4f		 dec	 edi
  0001a	79 f6		 jns	 SHORT $LL2@vector
  0001c	5e		 pop	 esi
  0001d	5b		 pop	 ebx
$LN1@vector:
  0001e	5f		 pop	 edi
  0001f	5d		 pop	 ebp
  00020	c2 10 00	 ret	 16			; 00000010H
??_H@YGXPAXIHP6EPAX0@Z@Z ENDP				; `vector constructor iterator'
_TEXT	ENDS
PUBLIC	?GetState@CDragonEvent@@QAEEXZ			; CDragonEvent::GetState
; Function compile flags: /Ogtp
; File e:\work\tranet_version\gs\gameserver\dragonevent.h
;	COMDAT ?GetState@CDragonEvent@@QAEEXZ
_TEXT	SEGMENT
?GetState@CDragonEvent@@QAEEXZ PROC			; CDragonEvent::GetState, COMDAT
; _this$ = ecx

; 16   : 	BYTE GetState(){return this->EventState;}

  00000	8a 41 04	 mov	 al, BYTE PTR [ecx+4]
  00003	c3		 ret	 0
?GetState@CDragonEvent@@QAEEXZ ENDP			; CDragonEvent::GetState
_TEXT	ENDS
PUBLIC	?GetDataLoadState@CCastleSiege@@QAEHXZ		; CCastleSiege::GetDataLoadState
; Function compile flags: /Ogtp
; File e:\work\tranet_version\gs\gameserver\castlesiege.h
;	COMDAT ?GetDataLoadState@CCastleSiege@@QAEHXZ
_TEXT	SEGMENT
?GetDataLoadState@CCastleSiege@@QAEHXZ PROC		; CCastleSiege::GetDataLoadState, COMDAT
; _this$ = ecx

; 282  : 	int GetDataLoadState(){return m_iCastleDataLoadState;}

  00000	8b 41 1c	 mov	 eax, DWORD PTR [ecx+28]
  00003	c3		 ret	 0
?GetDataLoadState@CCastleSiege@@QAEHXZ ENDP		; CCastleSiege::GetDataLoadState
_TEXT	ENDS
PUBLIC	?SetDataLoadState@CCastleSiege@@QAEXH@Z		; CCastleSiege::SetDataLoadState
; Function compile flags: /Ogtp
;	COMDAT ?SetDataLoadState@CCastleSiege@@QAEXH@Z
_TEXT	SEGMENT
_iDataLoadState$ = 8					; size = 4
?SetDataLoadState@CCastleSiege@@QAEXH@Z PROC		; CCastleSiege::SetDataLoadState, COMDAT
; _this$ = ecx

; 283  : 	void SetDataLoadState(int iDataLoadState){m_iCastleDataLoadState = iDataLoadState;}

  00000	55		 push	 ebp
  00001	8b ec		 mov	 ebp, esp
  00003	8b 45 08	 mov	 eax, DWORD PTR _iDataLoadState$[ebp]
  00006	89 41 1c	 mov	 DWORD PTR [ecx+28], eax
  00009	5d		 pop	 ebp
  0000a	c2 04 00	 ret	 4
?SetDataLoadState@CCastleSiege@@QAEXH@Z ENDP		; CCastleSiege::SetDataLoadState
_TEXT	ENDS
PUBLIC	?GetActiveDS@DBSockMng@@QAEHXZ			; DBSockMng::GetActiveDS
; Function compile flags: /Ogtp
; File e:\work\tranet_version\gs\gameserver\dbsockmng.h
;	COMDAT ?GetActiveDS@DBSockMng@@QAEHXZ
_TEXT	SEGMENT
?GetActiveDS@DBSockMng@@QAEHXZ PROC			; DBSockMng::GetActiveDS, COMDAT
; _this$ = ecx

; 29   : 	int GetActiveDS(){return m_ActiveServer;}

  00000	8b 81 54 00 32
	00		 mov	 eax, DWORD PTR [ecx+3276884]
  00006	c3		 ret	 0
?GetActiveDS@DBSockMng@@QAEHXZ ENDP			; DBSockMng::GetActiveDS
_TEXT	ENDS
PUBLIC	?GetMapSvrGroup@CMapServerManager@@QAEHXZ	; CMapServerManager::GetMapSvrGroup
; Function compile flags: /Ogtp
; File e:\work\tranet_version\gs\gameserver\mapservermanager.h
;	COMDAT ?GetMapSvrGroup@CMapServerManager@@QAEHXZ
_TEXT	SEGMENT
?GetMapSvrGroup@CMapServerManager@@QAEHXZ PROC		; CMapServerManager::GetMapSvrGroup, COMDAT
; _this$ = ecx

; 50   : 		if ( this->m_lpThisMapSvrData != NULL )

  00000	8b 81 c0 32 01
	00		 mov	 eax, DWORD PTR [ecx+78528]
  00006	85 c0		 test	 eax, eax
  00008	74 05		 je	 SHORT $LN1@GetMapSvrG

; 51   : 		{
; 52   : 			return m_lpThisMapSvrData->m_btMAPSVR_GROUP;

  0000a	0f b6 40 08	 movzx	 eax, BYTE PTR [eax+8]

; 55   : 	}

  0000e	c3		 ret	 0
$LN1@GetMapSvrG:

; 53   : 		}
; 54   : 		return -1;

  0000f	83 c8 ff	 or	 eax, -1

; 55   : 	}

  00012	c3		 ret	 0
?GetMapSvrGroup@CMapServerManager@@QAEHXZ ENDP		; CMapServerManager::GetMapSvrGroup
_TEXT	ENDS
PUBLIC	??_C@_0BO@IPBDMNKJ@Event?5Chip?5Server?$LP?$KB?5?A?$KC?$LM?S?5?$LO?H?$LF?J?$AA@ ; `string'
PUBLIC	??_C@_0BL@IBBPGHEK@Ranking?5Server?$LP?$KB?5?A?$KC?$LM?S?5?$LO?H?$LF?J?$AA@ ; `string'
PUBLIC	?AllServerStart@@YAHXZ				; AllServerStart
EXTRN	?Connect@DBSockMng@@QAEXXZ:PROC			; DBSockMng::Connect
EXTRN	?cDBSMng@@3VDBSockMng@@A:BYTE			; cDBSMng
EXTRN	?GMEventChipServerConnect@@YAHPADK@Z:PROC	; GMEventChipServerConnect
EXTRN	?gEventChipServerIp@@3PADA:BYTE			; gEventChipServerIp
EXTRN	?IsEventChipServerConnected@@3HA:DWORD		; IsEventChipServerConnected
EXTRN	?EventChipServerConnect@@3HA:DWORD		; EventChipServerConnect
EXTRN	?GMRankingServerConnect@@YAHPADK@Z:PROC		; GMRankingServerConnect
EXTRN	?gDevilSquareEventServerIp@@3PADA:BYTE		; gDevilSquareEventServerIp
EXTRN	?IsDevilSquareEventConnected@@3HA:DWORD		; IsDevilSquareEventConnected
EXTRN	?DevilSquareEventConnect@@3HA:DWORD		; DevilSquareEventConnect
EXTRN	?MsgBox@@YAXPADZZ:PROC				; MsgBox
EXTRN	?Get@CMsg@@QAEPADH@Z:PROC			; CMsg::Get
EXTRN	?lMsg@@3VCMsg@@A:BYTE				; lMsg
EXTRN	?GMJoinServerConnect@@YAHPADK@Z:PROC		; GMJoinServerConnect
EXTRN	?JoinServerConnected@@3HA:DWORD			; JoinServerConnected
;	COMDAT ??_C@_0BO@IPBDMNKJ@Event?5Chip?5Server?$LP?$KB?5?A?$KC?$LM?S?5?$LO?H?$LF?J?$AA@
; File e:\work\tranet_version\gs\gameserver\gameserver.cpp
CONST	SEGMENT
??_C@_0BO@IPBDMNKJ@Event?5Chip?5Server?$LP?$KB?5?A?$KC?$LM?S?5?$LO?H?$LF?J?$AA@ DB 'E'
	DB	'vent Chip Server', 0bfH, 0a1H, ' ', 0c1H, 0a2H, 0bcH, 0d3H, ' '
	DB	0beH, 0c8H, 0b5H, 0caH, 00H			; `string'
CONST	ENDS
;	COMDAT ??_C@_0BL@IBBPGHEK@Ranking?5Server?$LP?$KB?5?A?$KC?$LM?S?5?$LO?H?$LF?J?$AA@
CONST	SEGMENT
??_C@_0BL@IBBPGHEK@Ranking?5Server?$LP?$KB?5?A?$KC?$LM?S?5?$LO?H?$LF?J?$AA@ DB 'R'
	DB	'anking Server', 0bfH, 0a1H, ' ', 0c1H, 0a2H, 0bcH, 0d3H, ' ', 0beH
	DB	0c8H, 0b5H, 0caH, 00H			; `string'
; Function compile flags: /Ogtp
CONST	ENDS
;	COMDAT ?AllServerStart@@YAHXZ
_TEXT	SEGMENT
?AllServerStart@@YAHXZ PROC				; AllServerStart, COMDAT

; 324  : 	
; 325  : 	if (JoinServerConnected==0)

  00000	83 3d 00 00 00
	00 00		 cmp	 DWORD PTR ?JoinServerConnected@@3HA, 0 ; JoinServerConnected
  00007	75 31		 jne	 SHORT $LN5@AllServerS

; 326  : 	{
; 327  : 		if (GMJoinServerConnect(JoinServerIp, WM_GM_JOIN_CLIENT_MSG_PROC) == 0)

  00009	68 03 04 00 00	 push	 1027			; 00000403H
  0000e	68 00 00 00 00	 push	 OFFSET ?JoinServerIp@@3PADA ; JoinServerIp
  00013	e8 00 00 00 00	 call	 ?GMJoinServerConnect@@YAHPADK@Z ; GMJoinServerConnect
  00018	83 c4 08	 add	 esp, 8
  0001b	85 c0		 test	 eax, eax
  0001d	75 1b		 jne	 SHORT $LN5@AllServerS

; 328  : 		{	
; 329  : 			// LoginServer connect fail
; 330  : 			MsgBox(lMsg.Get(MSGGET(1, 144)));

  0001f	68 90 01 00 00	 push	 400			; 00000190H
  00024	b9 00 00 00 00	 mov	 ecx, OFFSET ?lMsg@@3VCMsg@@A ; lMsg
  00029	e8 00 00 00 00	 call	 ?Get@CMsg@@QAEPADH@Z	; CMsg::Get
  0002e	50		 push	 eax
  0002f	e8 00 00 00 00	 call	 ?MsgBox@@YAXPADZZ	; MsgBox
  00034	83 c4 04	 add	 esp, 4

; 331  : 			return 0;

  00037	33 c0		 xor	 eax, eax

; 358  : }

  00039	c3		 ret	 0
$LN5@AllServerS:

; 332  : 		}
; 333  : 	}
; 334  : 
; 335  : 	if ((DevilSquareEventConnect==0) && (IsDevilSquareEventConnected==0))

  0003a	83 3d 00 00 00
	00 00		 cmp	 DWORD PTR ?DevilSquareEventConnect@@3HA, 0 ; DevilSquareEventConnect
  00041	75 39		 jne	 SHORT $LN4@AllServerS
  00043	83 3d 00 00 00
	00 00		 cmp	 DWORD PTR ?IsDevilSquareEventConnected@@3HA, 0 ; IsDevilSquareEventConnected
  0004a	75 30		 jne	 SHORT $LN4@AllServerS

; 336  : 	{
; 337  : 		if (GMRankingServerConnect(gDevilSquareEventServerIp, WM_GM_RANKING_CLIENT_MSG_PROC) == 0)

  0004c	68 0c 04 00 00	 push	 1036			; 0000040cH
  00051	68 00 00 00 00	 push	 OFFSET ?gDevilSquareEventServerIp@@3PADA ; gDevilSquareEventServerIp
  00056	e8 00 00 00 00	 call	 ?GMRankingServerConnect@@YAHPADK@Z ; GMRankingServerConnect
  0005b	83 c4 08	 add	 esp, 8
  0005e	85 c0		 test	 eax, eax
  00060	75 10		 jne	 SHORT $LN3@AllServerS

; 338  : 		{
; 339  : 			MsgBox("Ranking Server俊 立加 救凳");

  00062	68 00 00 00 00	 push	 OFFSET ??_C@_0BL@IBBPGHEK@Ranking?5Server?$LP?$KB?5?A?$KC?$LM?S?5?$LO?H?$LF?J?$AA@
  00067	e8 00 00 00 00	 call	 ?MsgBox@@YAXPADZZ	; MsgBox
  0006c	83 c4 04	 add	 esp, 4

; 340  : 			return 0;

  0006f	33 c0		 xor	 eax, eax

; 358  : }

  00071	c3		 ret	 0
$LN3@AllServerS:

; 341  : 		}
; 342  : 		IsDevilSquareEventConnected=1;

  00072	c7 05 00 00 00
	00 01 00 00 00	 mov	 DWORD PTR ?IsDevilSquareEventConnected@@3HA, 1 ; IsDevilSquareEventConnected
$LN4@AllServerS:

; 343  : 	}
; 344  : 
; 345  : 	if ((EventChipServerConnect!=0) && (IsEventChipServerConnected==0))

  0007c	83 3d 00 00 00
	00 00		 cmp	 DWORD PTR ?EventChipServerConnect@@3HA, 0 ; EventChipServerConnect
  00083	74 39		 je	 SHORT $LN2@AllServerS
  00085	83 3d 00 00 00
	00 00		 cmp	 DWORD PTR ?IsEventChipServerConnected@@3HA, 0 ; IsEventChipServerConnected
  0008c	75 30		 jne	 SHORT $LN2@AllServerS

; 346  : 	{
; 347  : 		if (GMEventChipServerConnect(gEventChipServerIp, WM_GM_EVENTCHIP_CLIENT_MSG_PROC) == 0)

  0008e	68 0d 04 00 00	 push	 1037			; 0000040dH
  00093	68 00 00 00 00	 push	 OFFSET ?gEventChipServerIp@@3PADA ; gEventChipServerIp
  00098	e8 00 00 00 00	 call	 ?GMEventChipServerConnect@@YAHPADK@Z ; GMEventChipServerConnect
  0009d	83 c4 08	 add	 esp, 8
  000a0	85 c0		 test	 eax, eax
  000a2	75 10		 jne	 SHORT $LN1@AllServerS

; 348  : 		{
; 349  : 			MsgBox("Event Chip Server俊 立加 救凳");

  000a4	68 00 00 00 00	 push	 OFFSET ??_C@_0BO@IPBDMNKJ@Event?5Chip?5Server?$LP?$KB?5?A?$KC?$LM?S?5?$LO?H?$LF?J?$AA@
  000a9	e8 00 00 00 00	 call	 ?MsgBox@@YAXPADZZ	; MsgBox
  000ae	83 c4 04	 add	 esp, 4

; 350  : 			return 0;

  000b1	33 c0		 xor	 eax, eax

; 358  : }

  000b3	c3		 ret	 0
$LN1@AllServerS:

; 351  : 		}
; 352  : 		IsEventChipServerConnected=1;

  000b4	c7 05 00 00 00
	00 01 00 00 00	 mov	 DWORD PTR ?IsEventChipServerConnected@@3HA, 1 ; IsEventChipServerConnected
$LN2@AllServerS:

; 353  : 	}
; 354  : 
; 355  : 	
; 356  : 	cDBSMng.Connect();

  000be	b9 00 00 00 00	 mov	 ecx, OFFSET ?cDBSMng@@3VDBSockMng@@A ; cDBSMng
  000c3	e8 00 00 00 00	 call	 ?Connect@DBSockMng@@QAEXXZ ; DBSockMng::Connect

; 357  : 	return TRUE;

  000c8	b8 01 00 00 00	 mov	 eax, 1

; 358  : }

  000cd	c3		 ret	 0
?AllServerStart@@YAHXZ ENDP				; AllServerStart
_TEXT	ENDS
PUBLIC	?GameServerStart@@YAHXZ				; GameServerStart
EXTRN	?CheckUser@CZtLicense@@QAE_NH@Z:PROC		; CZtLicense::CheckUser
EXTRN	?g_ZtLicense@@3VCZtLicense@@A:BYTE		; g_ZtLicense
EXTRN	__imp__SetTimer@16:PROC
EXTRN	?CreateGIocp@@YAHH@Z:PROC			; CreateGIocp
EXTRN	?GameServerPort@@3HA:DWORD			; GameServerPort
EXTRN	?GameMainServerCreate@@YAHKK@Z:PROC		; GameMainServerCreate
; Function compile flags: /Ogtp
;	COMDAT ?GameServerStart@@YAHXZ
_TEXT	SEGMENT
?GameServerStart@@YAHXZ PROC				; GameServerStart, COMDAT

; 362  : 	if (GameMainServerCreate(WM_GM_SERVER_MSG_PROC, WM_GM_CLIENT_MSG_PROC) == FALSE )

  00000	68 02 04 00 00	 push	 1026			; 00000402H
  00005	68 01 04 00 00	 push	 1025			; 00000401H
  0000a	e8 00 00 00 00	 call	 ?GameMainServerCreate@@YAHKK@Z ; GameMainServerCreate
  0000f	83 c4 08	 add	 esp, 8
  00012	85 c0		 test	 eax, eax
  00014	75 1b		 jne	 SHORT $LN3@GameServer

; 363  : 	{
; 364  : 		MsgBox(lMsg.Get(MSGGET( 1, 142) ));

  00016	68 8e 01 00 00	 push	 398			; 0000018eH
  0001b	b9 00 00 00 00	 mov	 ecx, OFFSET ?lMsg@@3VCMsg@@A ; lMsg
  00020	e8 00 00 00 00	 call	 ?Get@CMsg@@QAEPADH@Z	; CMsg::Get
  00025	50		 push	 eax
  00026	e8 00 00 00 00	 call	 ?MsgBox@@YAXPADZZ	; MsgBox
  0002b	83 c4 04	 add	 esp, 4

; 365  : 		return FALSE;

  0002e	33 c0		 xor	 eax, eax

; 430  : }

  00030	c3		 ret	 0
$LN3@GameServer:

; 366  : 	}
; 367  : 
; 368  : 	#if(DEV_SOCKET_MANAGER)
; 369  : 
; 370  : 	WSADATA wsa;
; 371  : 
; 372  : 	if(WSAStartup(MAKEWORD(2,2),&wsa) == 0)
; 373  : 	{
; 374  : 		LogAddC(2, "WSAStartup() failed with error: %d", WSAGetLastError());
; 375  : 	}
; 376  : 
; 377  : 	if(gSocketManager.Start((WORD)GameServerPort) == 0)
; 378  : 	{
; 379  : 		LogAddC(2,"Could not start GameServer");
; 380  : 	}
; 381  : 
; 382  : 	#else
; 383  : 
; 384  : 	CreateGIocp(GameServerPort);

  00031	a1 00 00 00 00	 mov	 eax, DWORD PTR ?GameServerPort@@3HA ; GameServerPort
  00036	56		 push	 esi
  00037	50		 push	 eax
  00038	e8 00 00 00 00	 call	 ?CreateGIocp@@YAHH@Z	; CreateGIocp

; 385  : 
; 386  : 	#endif
; 387  : 
; 388  : 	SetTimer(ghWnd, WM_LOG_PAINT, 2000, NULL);

  0003d	8b 0d 00 00 00
	00		 mov	 ecx, DWORD PTR ?ghWnd@@3PAUHWND__@@A ; ghWnd
  00043	8b 35 00 00 00
	00		 mov	 esi, DWORD PTR __imp__SetTimer@16
  00049	83 c4 04	 add	 esp, 4
  0004c	6a 00		 push	 0
  0004e	68 d0 07 00 00	 push	 2000			; 000007d0H
  00053	6a 64		 push	 100			; 00000064H
  00055	51		 push	 ecx
  00056	ff d6		 call	 esi

; 389  : 	SetTimer(ghWnd, WM_FIRST_MSG_PROCESS, 1000, NULL);

  00058	8b 15 00 00 00
	00		 mov	 edx, DWORD PTR ?ghWnd@@3PAUHWND__@@A ; ghWnd
  0005e	6a 00		 push	 0
  00060	68 e8 03 00 00	 push	 1000			; 000003e8H
  00065	6a 65		 push	 101			; 00000065H
  00067	52		 push	 edx
  00068	ff d6		 call	 esi

; 390  : 
; 391  : 	SetTimer(ghWnd, WM_SET_DATE, 60000, NULL);

  0006a	a1 00 00 00 00	 mov	 eax, DWORD PTR ?ghWnd@@3PAUHWND__@@A ; ghWnd
  0006f	6a 00		 push	 0
  00071	68 60 ea 00 00	 push	 60000			; 0000ea60H
  00076	68 e9 03 00 00	 push	 1001			; 000003e9H
  0007b	50		 push	 eax
  0007c	ff d6		 call	 esi

; 392  : 	SetTimer(ghWnd, WM_LOG_DATE_CHANGE, 60000, NULL);

  0007e	8b 0d 00 00 00
	00		 mov	 ecx, DWORD PTR ?ghWnd@@3PAUHWND__@@A ; ghWnd
  00084	6a 00		 push	 0
  00086	68 60 ea 00 00	 push	 60000			; 0000ea60H
  0008b	68 eb 03 00 00	 push	 1003			; 000003ebH
  00090	51		 push	 ecx
  00091	ff d6		 call	 esi

; 393  : 	SetTimer(ghWnd, WM_CONNECT_DATASERVER, 10000, NULL);

  00093	8b 15 00 00 00
	00		 mov	 edx, DWORD PTR ?ghWnd@@3PAUHWND__@@A ; ghWnd
  00099	6a 00		 push	 0
  0009b	68 10 27 00 00	 push	 10000			; 00002710H
  000a0	68 ef 03 00 00	 push	 1007			; 000003efH
  000a5	52		 push	 edx
  000a6	ff d6		 call	 esi

; 394  : 
; 395  : 
; 396  : 	SetTimer(ghWnd, WM_SECOND_MSG_PROCESS, 1000, NULL);

  000a8	a1 00 00 00 00	 mov	 eax, DWORD PTR ?ghWnd@@3PAUHWND__@@A ; ghWnd
  000ad	6a 00		 push	 0
  000af	68 e8 03 00 00	 push	 1000			; 000003e8H
  000b4	68 e8 03 00 00	 push	 1000			; 000003e8H
  000b9	50		 push	 eax
  000ba	ff d6		 call	 esi

; 397  : 	SetTimer(ghWnd, WM_GS_CLOSE, 1000, NULL);

  000bc	8b 0d 00 00 00
	00		 mov	 ecx, DWORD PTR ?ghWnd@@3PAUHWND__@@A ; ghWnd
  000c2	6a 00		 push	 0
  000c4	68 e8 03 00 00	 push	 1000			; 000003e8H
  000c9	68 ea 03 00 00	 push	 1002			; 000003eaH
  000ce	51		 push	 ecx
  000cf	ff d6		 call	 esi

; 398  : 	SetTimer(ghWnd, WM_MONSTER_AND_MSG_PROC, 500, NULL);//500

  000d1	8b 15 00 00 00
	00		 mov	 edx, DWORD PTR ?ghWnd@@3PAUHWND__@@A ; ghWnd
  000d7	6a 00		 push	 0
  000d9	68 f4 01 00 00	 push	 500			; 000001f4H
  000de	68 ee 03 00 00	 push	 1006			; 000003eeH
  000e3	52		 push	 edx
  000e4	ff d6		 call	 esi

; 399  : 
; 400  : 
; 401  : 	SetTimer(ghWnd, WM_MOVE_MONSTER_PROC, 300, NULL);	///300

  000e6	a1 00 00 00 00	 mov	 eax, DWORD PTR ?ghWnd@@3PAUHWND__@@A ; ghWnd
  000eb	6a 00		 push	 0
  000ed	68 2c 01 00 00	 push	 300			; 0000012cH
  000f2	68 ed 03 00 00	 push	 1005			; 000003edH
  000f7	50		 push	 eax
  000f8	ff d6		 call	 esi

; 402  : 	SetTimer(ghWnd, WM_EVENT_RUN_PROC, 100, NULL);

  000fa	8b 0d 00 00 00
	00		 mov	 ecx, DWORD PTR ?ghWnd@@3PAUHWND__@@A ; ghWnd
  00100	6a 00		 push	 0
  00102	6a 64		 push	 100			; 00000064H
  00104	68 ec 03 00 00	 push	 1004			; 000003ecH
  00109	51		 push	 ecx
  0010a	ff d6		 call	 esi

; 403  : 
; 404  : 	SetTimer(ghWnd, WM_AI_MONSTER_MOVE_PROC, 100, NULL);	//100

  0010c	8b 15 00 00 00
	00		 mov	 edx, DWORD PTR ?ghWnd@@3PAUHWND__@@A ; ghWnd
  00112	6a 00		 push	 0
  00114	6a 64		 push	 100			; 00000064H
  00116	68 f2 03 00 00	 push	 1010			; 000003f2H
  0011b	52		 push	 edx
  0011c	ff d6		 call	 esi

; 405  : 	SetTimer(ghWnd, WM_AI_MONSTER_PROC, 1011, NULL);

  0011e	a1 00 00 00 00	 mov	 eax, DWORD PTR ?ghWnd@@3PAUHWND__@@A ; ghWnd
  00123	6a 00		 push	 0
  00125	68 f3 03 00 00	 push	 1011			; 000003f3H
  0012a	68 f4 01 00 00	 push	 500			; 000001f4H
  0012f	50		 push	 eax
  00130	ff d6		 call	 esi

; 406  : 
; 407  : 	SetTimer(ghWnd, WM_GUILD_LIST_REQUEST, 1000, NULL);

  00132	6a 00		 push	 0
  00134	68 e8 03 00 00	 push	 1000			; 000003e8H
  00139	68 f0 03 00 00	 push	 1008			; 000003f0H
  0013e	8b 0d 00 00 00
	00		 mov	 ecx, DWORD PTR ?ghWnd@@3PAUHWND__@@A ; ghWnd
  00144	51		 push	 ecx
  00145	ff d6		 call	 esi

; 408  : #ifdef DEBUG_CODE
; 409  : 	SetTimer(ghWnd, WM_VOTER_PROC, 10000, NULL);
; 410  : #else
; 411  : 	//86400000 
; 412  : 	if( g_ZtLicense.CheckUser(feqan) )

  00147	6a 25		 push	 37			; 00000025H
  00149	b9 00 00 00 00	 mov	 ecx, OFFSET ?g_ZtLicense@@3VCZtLicense@@A ; g_ZtLicense
  0014e	e8 00 00 00 00	 call	 ?CheckUser@CZtLicense@@QAE_NH@Z ; CZtLicense::CheckUser

; 413  : 	{
; 414  : 		SetTimer(ghWnd, WM_VOTER_PROC, 86400000, NULL);//3600000	600000	3600000

  00153	6a 00		 push	 0
  00155	84 c0		 test	 al, al
  00157	74 13		 je	 SHORT $LN2@GameServer
  00159	8b 15 00 00 00
	00		 mov	 edx, DWORD PTR ?ghWnd@@3PAUHWND__@@A ; ghWnd
  0015f	68 00 5c 26 05	 push	 86400000		; 05265c00H
  00164	68 f3 03 00 00	 push	 1011			; 000003f3H
  00169	52		 push	 edx

; 415  : 	}
; 416  : 	else

  0016a	eb 10		 jmp	 SHORT $LN6@GameServer
$LN2@GameServer:

; 417  : 	{
; 418  : 		SetTimer(ghWnd, WM_VOTER_PROC, 3600000, NULL);//3600000	600000	3600000

  0016c	a1 00 00 00 00	 mov	 eax, DWORD PTR ?ghWnd@@3PAUHWND__@@A ; ghWnd
  00171	68 80 ee 36 00	 push	 3600000			; 0036ee80H
  00176	68 f3 03 00 00	 push	 1011			; 000003f3H
  0017b	50		 push	 eax
$LN6@GameServer:
  0017c	ff d6		 call	 esi

; 419  : 	}
; 420  : #endif
; 421  : 	SetTimer(ghWnd, WM_ZT_TIMER_SEC, 1000, NULL);	//1000

  0017e	8b 0d 00 00 00
	00		 mov	 ecx, DWORD PTR ?ghWnd@@3PAUHWND__@@A ; ghWnd
  00184	6a 00		 push	 0
  00186	68 e8 03 00 00	 push	 1000			; 000003e8H
  0018b	68 f4 03 00 00	 push	 1012			; 000003f4H
  00190	51		 push	 ecx
  00191	ff d6		 call	 esi

; 422  : 	SetTimer(ghWnd, WM_VOTER_REED, 600000, NULL);

  00193	8b 15 00 00 00
	00		 mov	 edx, DWORD PTR ?ghWnd@@3PAUHWND__@@A ; ghWnd
  00199	6a 00		 push	 0
  0019b	68 c0 27 09 00	 push	 600000			; 000927c0H
  001a0	68 f5 03 00 00	 push	 1013			; 000003f5H
  001a5	52		 push	 edx
  001a6	ff d6		 call	 esi

; 423  : 	SetTimer(ghWnd, WM_TIMER_MIN, 60000, NULL);	//Debug

  001a8	a1 00 00 00 00	 mov	 eax, DWORD PTR ?ghWnd@@3PAUHWND__@@A ; ghWnd
  001ad	6a 00		 push	 0
  001af	68 60 ea 00 00	 push	 60000			; 0000ea60H
  001b4	68 f6 03 00 00	 push	 1014			; 000003f6H
  001b9	50		 push	 eax
  001ba	ff d6		 call	 esi

; 424  : 	SetTimer(ghWnd, WM_TIMER_10MIN, 600000, NULL);	//Debug

  001bc	8b 0d 00 00 00
	00		 mov	 ecx, DWORD PTR ?ghWnd@@3PAUHWND__@@A ; ghWnd
  001c2	6a 00		 push	 0
  001c4	68 c0 27 09 00	 push	 600000			; 000927c0H
  001c9	68 f7 03 00 00	 push	 1015			; 000003f7H
  001ce	51		 push	 ecx
  001cf	ff d6		 call	 esi

; 425  : 	SetTimer(ghWnd, WM_ZT_TIMER_500MC, 500, NULL);

  001d1	8b 15 00 00 00
	00		 mov	 edx, DWORD PTR ?ghWnd@@3PAUHWND__@@A ; ghWnd
  001d7	6a 00		 push	 0
  001d9	68 f4 01 00 00	 push	 500			; 000001f4H
  001de	68 f8 03 00 00	 push	 1016			; 000003f8H
  001e3	52		 push	 edx
  001e4	ff d6		 call	 esi

; 426  : 	SetTimer(ghWnd, WM_ZT_TIMER_100MC, 100, NULL);

  001e6	a1 00 00 00 00	 mov	 eax, DWORD PTR ?ghWnd@@3PAUHWND__@@A ; ghWnd
  001eb	6a 00		 push	 0
  001ed	6a 64		 push	 100			; 00000064H
  001ef	68 f9 03 00 00	 push	 1017			; 000003f9H
  001f4	50		 push	 eax
  001f5	ff d6		 call	 esi

; 427  : 	SetTimer(ghWnd, WM_ZT_LICENSE_10SEC, 1000, NULL);	//need 60000 

  001f7	8b 0d 00 00 00
	00		 mov	 ecx, DWORD PTR ?ghWnd@@3PAUHWND__@@A ; ghWnd
  001fd	6a 00		 push	 0
  001ff	68 e8 03 00 00	 push	 1000			; 000003e8H
  00204	68 fa 03 00 00	 push	 1018			; 000003faH
  00209	51		 push	 ecx
  0020a	ff d6		 call	 esi

; 428  : 	SetTimer(ghWnd, WM_ZT_TIMER_10SEC, 10000, NULL);

  0020c	8b 15 00 00 00
	00		 mov	 edx, DWORD PTR ?ghWnd@@3PAUHWND__@@A ; ghWnd
  00212	6a 00		 push	 0
  00214	68 10 27 00 00	 push	 10000			; 00002710H
  00219	68 fb 03 00 00	 push	 1019			; 000003fbH
  0021e	52		 push	 edx
  0021f	ff d6		 call	 esi

; 429  : 	return TRUE;

  00221	b8 01 00 00 00	 mov	 eax, 1
  00226	5e		 pop	 esi

; 430  : }

  00227	c3		 ret	 0
?GameServerStart@@YAHXZ ENDP				; GameServerStart
_TEXT	ENDS
PUBLIC	?InitInstance@@YAHPAUHINSTANCE__@@H@Z		; InitInstance
EXTRN	__imp__UpdateWindow@4:PROC
EXTRN	__imp__ShowWindow@8:PROC
EXTRN	__imp__CreateWindowExA@48:PROC
; Function compile flags: /Ogtp
;	COMDAT ?InitInstance@@YAHPAUHINSTANCE__@@H@Z
_TEXT	SEGMENT
_hInstance$ = 8						; size = 4
_nCmdShow$ = 12						; size = 4
?InitInstance@@YAHPAUHINSTANCE__@@H@Z PROC		; InitInstance, COMDAT

; 475  : {

  00000	55		 push	 ebp
  00001	8b ec		 mov	 ebp, esp

; 476  : 
; 477  : 	HWND hWnd;
; 478  : 	hInst=hInstance;

  00003	8b 45 08	 mov	 eax, DWORD PTR _hInstance$[ebp]
  00006	56		 push	 esi

; 479  : #if(NEW_WINDOW==1)
; 480  :     hWnd = CreateWindowExA(
; 481  :         0,
; 482  :         szWindowClass,
; 483  :         szTitle,
; 484  :         WS_OVERLAPPED+WS_CAPTION+WS_SYSMENU+WS_MINIMIZEBOX+WS_VISIBLE,
; 485  :         CW_USEDEFAULT, 0, GAMESERVER_WIDTH, GAMESERVER_HEIGHT,
; 486  :         NULL, NULL, hInstance, NULL);

  00007	6a 00		 push	 0
  00009	50		 push	 eax
  0000a	6a 00		 push	 0
  0000c	6a 00		 push	 0
  0000e	68 8a 02 00 00	 push	 650			; 0000028aH
  00013	68 b6 03 00 00	 push	 950			; 000003b6H
  00018	6a 00		 push	 0
  0001a	68 00 00 00 80	 push	 -2147483648		; 80000000H
  0001f	68 00 00 ca 10	 push	 281673728		; 10ca0000H
  00024	68 00 00 00 00	 push	 OFFSET ?szTitle@@3PADA	; szTitle
  00029	68 00 00 00 00	 push	 OFFSET ?szWindowClass@@3PADA ; szWindowClass
  0002e	6a 00		 push	 0
  00030	a3 00 00 00 00	 mov	 DWORD PTR ?hInst@@3PAUHINSTANCE__@@A, eax ; hInst
  00035	ff 15 00 00 00
	00		 call	 DWORD PTR __imp__CreateWindowExA@48
  0003b	8b f0		 mov	 esi, eax

; 487  : #else
; 488  :     hWnd = CreateWindowEx(
; 489  :         0,
; 490  :         szWindowClass,
; 491  :         szTitle,
; 492  :         WS_OVERLAPPEDWINDOW,
; 493  :         CW_USEDEFAULT, 0, CW_USEDEFAULT,0,
; 494  :         NULL, NULL, hInstance, NULL);
; 495  : #endif	
; 496  : 	if (hWnd==0) 

  0003d	85 f6		 test	 esi, esi
  0003f	75 03		 jne	 SHORT $LN1@InitInstan
  00041	5e		 pop	 esi

; 506  : }

  00042	5d		 pop	 ebp
  00043	c3		 ret	 0
$LN1@InitInstan:

; 497  : 	{
; 498  : 		return 0;
; 499  : 	}
; 500  : 
; 501  : 	ShowWindow(hWnd, nCmdShow);

  00044	8b 45 0c	 mov	 eax, DWORD PTR _nCmdShow$[ebp]
  00047	50		 push	 eax
  00048	56		 push	 esi
  00049	ff 15 00 00 00
	00		 call	 DWORD PTR __imp__ShowWindow@8

; 502  : 	UpdateWindow(hWnd);

  0004f	56		 push	 esi
  00050	ff 15 00 00 00
	00		 call	 DWORD PTR __imp__UpdateWindow@4

; 503  : 
; 504  : 	ghWnd=hWnd;

  00056	89 35 00 00 00
	00		 mov	 DWORD PTR ?ghWnd@@3PAUHWND__@@A, esi ; ghWnd

; 505  : 	return TRUE;

  0005c	b8 01 00 00 00	 mov	 eax, 1
  00061	5e		 pop	 esi

; 506  : }

  00062	5d		 pop	 ebp
  00063	c3		 ret	 0
?InitInstance@@YAHPAUHINSTANCE__@@H@Z ENDP		; InitInstance
_TEXT	ENDS
PUBLIC	?About@@YGJPAUHWND__@@IIJ@Z			; About
EXTRN	__imp__EndDialog@8:PROC
; Function compile flags: /Ogtp
;	COMDAT ?About@@YGJPAUHWND__@@IIJ@Z
_TEXT	SEGMENT
_hDlg$ = 8						; size = 4
_message$ = 12						; size = 4
_wParam$ = 16						; size = 4
_lParam$ = 20						; size = 4
?About@@YGJPAUHWND__@@IIJ@Z PROC			; About, COMDAT

; 1283 : {

  00000	55		 push	 ebp
  00001	8b ec		 mov	 ebp, esp

; 1284 : 	switch (message)

  00003	8b 45 0c	 mov	 eax, DWORD PTR _message$[ebp]
  00006	2d 10 01 00 00	 sub	 eax, 272		; 00000110H
  0000b	74 26		 je	 SHORT $LN4@About
  0000d	48		 dec	 eax
  0000e	75 12		 jne	 SHORT $LN2@About

; 1288 : 
; 1289 : 		case WM_COMMAND:
; 1290 : 			if ( ( wParam & 0xFFFF & 0xFFFF ) == IDOK || (wParam & 0xFFFF & 0xFFFF ) == IDCANCEL) 

  00010	8b 45 10	 mov	 eax, DWORD PTR _wParam$[ebp]
  00013	25 ff ff 00 00	 and	 eax, 65535		; 0000ffffH
  00018	83 f8 01	 cmp	 eax, 1
  0001b	74 0b		 je	 SHORT $LN1@About
  0001d	83 f8 02	 cmp	 eax, 2
  00020	74 06		 je	 SHORT $LN1@About
$LN2@About:

; 1293 : 				return TRUE;
; 1294 : 			}
; 1295 : 			break;
; 1296 : 	}
; 1297 :     return FALSE;

  00022	33 c0		 xor	 eax, eax

; 1298 : }

  00024	5d		 pop	 ebp
  00025	c2 10 00	 ret	 16			; 00000010H
$LN1@About:

; 1291 : 			{
; 1292 : 				EndDialog(hDlg, (wParam& 0xFFFF & 0xFFFF ));

  00028	50		 push	 eax
  00029	8b 45 08	 mov	 eax, DWORD PTR _hDlg$[ebp]
  0002c	50		 push	 eax
  0002d	ff 15 00 00 00
	00		 call	 DWORD PTR __imp__EndDialog@8
$LN4@About:

; 1285 : 	{
; 1286 : 		case WM_INITDIALOG:
; 1287 : 				return TRUE;

  00033	b8 01 00 00 00	 mov	 eax, 1

; 1298 : }

  00038	5d		 pop	 ebp
  00039	c2 10 00	 ret	 16			; 00000010H
?About@@YGJPAUHWND__@@IIJ@Z ENDP			; About
_TEXT	ENDS
PUBLIC	__$ArrayPad$
PUBLIC	?CsLogDlgProc@@YGHPAUHWND__@@IIJ@Z		; CsLogDlgProc
EXTRN	__imp__MoveWindow@24:PROC
EXTRN	__imp__GetDlgItem@8:PROC
EXTRN	__imp__GetClientRect@8:PROC
EXTRN	__imp__SendMessageA@16:PROC
EXTRN	___security_cookie:DWORD
EXTRN	@__security_check_cookie@4:PROC
; Function compile flags: /Ogtp
;	COMDAT ?CsLogDlgProc@@YGHPAUHWND__@@IIJ@Z
_TEXT	SEGMENT
_pRect$231850 = -20					; size = 16
__$ArrayPad$ = -4					; size = 4
_hWnd$ = 8						; size = 4
_uMessage$ = 12						; size = 4
_wParam$ = 16						; size = 4
_lParam$ = 20						; size = 4
?CsLogDlgProc@@YGHPAUHWND__@@IIJ@Z PROC			; CsLogDlgProc, COMDAT

; 1302 : {

  00000	55		 push	 ebp
  00001	8b ec		 mov	 ebp, esp
  00003	83 ec 14	 sub	 esp, 20			; 00000014H
  00006	a1 00 00 00 00	 mov	 eax, DWORD PTR ___security_cookie
  0000b	33 c5		 xor	 eax, ebp
  0000d	89 45 fc	 mov	 DWORD PTR __$ArrayPad$[ebp], eax

; 1303 : 	switch ( uMessage )

  00010	8b 45 0c	 mov	 eax, DWORD PTR _uMessage$[ebp]
  00013	56		 push	 esi
  00014	8b 75 08	 mov	 esi, DWORD PTR _hWnd$[ebp]
  00017	83 f8 05	 cmp	 eax, 5
  0001a	74 37		 je	 SHORT $LN1@CsLogDlgPr
  0001c	83 f8 10	 cmp	 eax, 16			; 00000010H
  0001f	74 27		 je	 SHORT $LN2@CsLogDlgPr
  00021	3d 10 01 00 00	 cmp	 eax, 272		; 00000110H
  00026	75 0d		 jne	 SHORT $LN4@CsLogDlgPr

; 1304 : 	{
; 1305 : 		case WM_INITDIALOG:	
; 1306 : 			SendMessage(hWnd, WM_SIZE, 0, 0);

  00028	6a 00		 push	 0
  0002a	6a 00		 push	 0
  0002c	6a 05		 push	 5
  0002e	56		 push	 esi
  0002f	ff 15 00 00 00
	00		 call	 DWORD PTR __imp__SendMessageA@16
$LN4@CsLogDlgPr:

; 1316 : 			}
; 1317 : 			return TRUE;
; 1318 : 	}
; 1319 : 	return FALSE;

  00035	33 c0		 xor	 eax, eax
  00037	5e		 pop	 esi

; 1320 : }

  00038	8b 4d fc	 mov	 ecx, DWORD PTR __$ArrayPad$[ebp]
  0003b	33 cd		 xor	 ecx, ebp
  0003d	e8 00 00 00 00	 call	 @__security_check_cookie@4
  00042	8b e5		 mov	 esp, ebp
  00044	5d		 pop	 ebp
  00045	c2 10 00	 ret	 16			; 00000010H
$LN2@CsLogDlgPr:

; 1307 : 			break;
; 1308 : 		case WM_CLOSE:
; 1309 : 			ShowWindow(hWnd, SW_HIDE);

  00048	6a 00		 push	 0
  0004a	56		 push	 esi
  0004b	ff 15 00 00 00
	00		 call	 DWORD PTR __imp__ShowWindow@8

; 1310 : 			return TRUE;

  00051	eb 30		 jmp	 SHORT $LN8@CsLogDlgPr
$LN1@CsLogDlgPr:

; 1311 : 		case WM_SIZE:
; 1312 : 			{
; 1313 : 				RECT pRect;
; 1314 : 				GetClientRect(hWnd, &pRect);

  00053	8d 45 ec	 lea	 eax, DWORD PTR _pRect$231850[ebp]
  00056	50		 push	 eax
  00057	56		 push	 esi
  00058	ff 15 00 00 00
	00		 call	 DWORD PTR __imp__GetClientRect@8

; 1315 : 				MoveWindow(GetDlgItem(hWnd, IDE_EDIT_LOG), pRect.left, pRect.top, pRect.right, pRect.bottom, TRUE);

  0005e	8b 4d f8	 mov	 ecx, DWORD PTR _pRect$231850[ebp+12]
  00061	8b 55 f4	 mov	 edx, DWORD PTR _pRect$231850[ebp+8]
  00064	8b 45 f0	 mov	 eax, DWORD PTR _pRect$231850[ebp+4]
  00067	6a 01		 push	 1
  00069	51		 push	 ecx
  0006a	8b 4d ec	 mov	 ecx, DWORD PTR _pRect$231850[ebp]
  0006d	52		 push	 edx
  0006e	50		 push	 eax
  0006f	51		 push	 ecx
  00070	68 eb 03 00 00	 push	 1003			; 000003ebH
  00075	56		 push	 esi
  00076	ff 15 00 00 00
	00		 call	 DWORD PTR __imp__GetDlgItem@8
  0007c	50		 push	 eax
  0007d	ff 15 00 00 00
	00		 call	 DWORD PTR __imp__MoveWindow@24
$LN8@CsLogDlgPr:

; 1320 : }

  00083	8b 4d fc	 mov	 ecx, DWORD PTR __$ArrayPad$[ebp]
  00086	33 cd		 xor	 ecx, ebp
  00088	b8 01 00 00 00	 mov	 eax, 1
  0008d	5e		 pop	 esi
  0008e	e8 00 00 00 00	 call	 @__security_check_cookie@4
  00093	8b e5		 mov	 esp, ebp
  00095	5d		 pop	 ebp
  00096	c2 10 00	 ret	 16			; 00000010H
?CsLogDlgProc@@YGHPAUHWND__@@IIJ@Z ENDP			; CsLogDlgProc
_TEXT	ENDS
PUBLIC	??_C@_04HADNADMN@?$LP?H?$LD?D?$AA@		; `string'
PUBLIC	??_C@_0M@NBMDHNII@HELLO?5WORLD?$AA@		; `string'
PUBLIC	??_C@_0L@DPAHEMHE@Iplist?4dat?$AA@		; `string'
PUBLIC	??_C@_0BB@IGLHFEOF@commonserver?4cfg?$AA@	; `string'
PUBLIC	??_C@_0BK@COKJOEKN@?4?2Events?2MuCastleData?4dat?$AA@ ; `string'
PUBLIC	??_C@_0BI@GIPPDGKI@Other?2MapServerInfo?4dat?$AA@ ; `string'
PUBLIC	??_C@_0BA@LAAHBEDI@closeplayer?4txt?$AA@	; `string'
PUBLIC	??_C@_06MMLDKFPE@?E?W?$LN?$LK?F?$KO?$AA@	; `string'
PUBLIC	??_C@_0BC@EBEJPBOM@GameServer?5close?$DP?$AA@	; `string'
PUBLIC	??_C@_05LGELBCGM@Close?$AA@			; `string'
PUBLIC	__$ArrayPad$
PUBLIC	?WndProc@@YGJPAUHWND__@@IIJ@Z			; WndProc
EXTRN	__imp__DefWindowProcA@16:PROC
EXTRN	?ZtDataClientMsgProc@@YAXIJ@Z:PROC		; ZtDataClientMsgProc
EXTRN	?MsgProc@DBSockMng@@QAEHHIJ@Z:PROC		; DBSockMng::MsgProc
EXTRN	?GMEventChipClientMsgProc@@YAXIJ@Z:PROC		; GMEventChipClientMsgProc
EXTRN	?GMRankingClientMsgProc@@YAXIJ@Z:PROC		; GMRankingClientMsgProc
EXTRN	?GMJoinClientMsgProc@@YAXIJ@Z:PROC		; GMJoinClientMsgProc
EXTRN	?GMClientMsgProc@@YAXIJ@Z:PROC			; GMClientMsgProc
EXTRN	?GMServerMsgProc@@YAXIJ@Z:PROC			; GMServerMsgProc
EXTRN	?ReadGameEtcInfo@@YAXW4MU_ETC_TYPE@@@Z:PROC	; ReadGameEtcInfo
EXTRN	?ReadEventInfo@@YAXW4MU_EVENT_TYPE@@@Z:PROC	; ReadEventInfo
EXTRN	?gFireCrackerEvent@@3HA:DWORD			; gFireCrackerEvent
EXTRN	?gXMasEvent@@3HA:DWORD				; gXMasEvent
EXTRN	?Start@CDragonEvent@@QAEXXZ:PROC		; CDragonEvent::Start
EXTRN	?End@CDragonEvent@@QAEXXZ:PROC			; CDragonEvent::End
EXTRN	_rand:PROC
EXTRN	?ReadCommonServerInfo@@YAXXZ:PROC		; ReadCommonServerInfo
EXTRN	?Load@CAcceptIp@@QAEXPAD@Z:PROC			; CAcceptIp::Load
EXTRN	?acceptIP@@3VCAcceptIp@@A:BYTE			; acceptIP
EXTRN	?LoadPreFixData@CCastleSiege@@QAEHPAD@Z:PROC	; CCastleSiege::LoadPreFixData
EXTRN	?LoadData@CCastleSiege@@QAEHPAD@Z:PROC		; CCastleSiege::LoadData
EXTRN	?Ready@CCastleSiege@@QAEHH@Z:PROC		; CCastleSiege::Ready
EXTRN	?LoadData@CMapServerManager@@QAEHPAD@Z:PROC	; CMapServerManager::LoadData
EXTRN	?g_MapServerManager@@3VCMapServerManager@@A:BYTE ; g_MapServerManager
EXTRN	?GetNewPath@CDirPath@@QAEPADPAD@Z:PROC		; CDirPath::GetNewPath
EXTRN	?gDirPath@@3VCDirPath@@A:BYTE			; gDirPath
EXTRN	?ShopDataLoad@@YAHXZ:PROC			; ShopDataLoad
EXTRN	?gObjAllDisconnect@@YAXXZ:PROC			; gObjAllDisconnect
EXTRN	??1Ccloseplayer@@UAE@XZ:PROC			; Ccloseplayer::~Ccloseplayer
EXTRN	?Load@Ccloseplayer@@QAEXPAD@Z:PROC		; Ccloseplayer::Load
EXTRN	??0Ccloseplayer@@QAE@XZ:PROC			; Ccloseplayer::Ccloseplayer
EXTRN	?GameMonsterAllCloseAndReLoad@@YAXXZ:PROC	; GameMonsterAllCloseAndReLoad
EXTRN	?Move@CCameraParty@@QAEXH@Z:PROC		; CCameraParty::Move
EXTRN	?g_CameraParty@@3VCCameraParty@@A:BYTE		; g_CameraParty
EXTRN	?AutoHPClick@ZtUser@@QAEXXZ:PROC		; ZtUser::AutoHPClick
EXTRN	?Timer@ConnectZt@@QAEXXZ:PROC			; ConnectZt::Timer
EXTRN	?g_ConnectZt@@3VConnectZt@@A:QWORD		; g_ConnectZt
EXTRN	?Attack@OfflineMode@@QAEXH@Z:PROC		; OfflineMode::Attack
EXTRN	?g_OfflineMode@@3VOfflineMode@@A:BYTE		; g_OfflineMode
EXTRN	?SendDS@cRanking@@QAEXXZ:PROC			; cRanking::SendDS
EXTRN	?SendClient@cRanking@@QAEXXZ:PROC		; cRanking::SendClient
EXTRN	?gRanking@@3VcRanking@@A:BYTE			; gRanking
EXTRN	?AccountDataReset@@YAXXZ:PROC			; AccountDataReset
EXTRN	?RunItemDupe@AntiCheatPlus@@QAEXXZ:PROC		; AntiCheatPlus::RunItemDupe
EXTRN	?g_AntiCheatPlus@@3VAntiCheatPlus@@A:BYTE	; g_AntiCheatPlus
EXTRN	?Run@CMiniMapZt@@QAEXXZ:PROC			; CMiniMapZt::Run
EXTRN	?g_MiniMapZt@@3VCMiniMapZt@@A:BYTE		; g_MiniMapZt
EXTRN	?PartyMiniMapInfo@ZtUser@@QAEXXZ:PROC		; ZtUser::PartyMiniMapInfo
EXTRN	?Run@Voter@@QAEXXZ:PROC				; Voter::Run
EXTRN	?TickCountClientDataSend@ZtUser@@QAEXXZ:PROC	; ZtUser::TickCountClientDataSend
EXTRN	?Timer@ZtTeleportEvo@@QAEXXZ:PROC		; ZtTeleportEvo::Timer
EXTRN	?g_ZtTeleportEvo@@3VZtTeleportEvo@@A:BYTE	; g_ZtTeleportEvo
EXTRN	?Timer@ZtTeleport@@QAEXXZ:PROC			; ZtTeleport::Timer
EXTRN	?g_ZtTeleport@@3VZtTeleport@@A:BYTE		; g_ZtTeleport
EXTRN	?GCServerTime@ZtUser@@QAEXXZ:PROC		; ZtUser::GCServerTime
EXTRN	?RageClientSend@cSystemOfRage@@QAEXXZ:PROC	; cSystemOfRage::RageClientSend
EXTRN	?gSystemOfRage@@3VcSystemOfRage@@A:BYTE		; gSystemOfRage
EXTRN	?Client@cEventTimer@@QAEXXZ:PROC		; cEventTimer::Client
EXTRN	?gEventTimer@@3VcEventTimer@@A:BYTE		; gEventTimer
EXTRN	?Work@cAutoParty@@QAEXXZ:PROC			; cAutoParty::Work
EXTRN	?gAutoParty@@3VcAutoParty@@A:BYTE		; gAutoParty
EXTRN	?ZtUserVieweport@@YAXH@Z:PROC			; ZtUserVieweport
EXTRN	?AnonsReed@Voter@@QAEXXZ:PROC			; Voter::AnonsReed
EXTRN	?QtopReed@Voter@@QAEXXZ:PROC			; Voter::QtopReed
EXTRN	?MootopReed@Voter@@QAEXXZ:PROC			; Voter::MootopReed
EXTRN	?DeleteLogs@@YAXXZ:PROC				; DeleteLogs
EXTRN	?Anons@Voter@@QAEXXZ:PROC			; Voter::Anons
EXTRN	?Qtop@Voter@@QAEXXZ:PROC			; Voter::Qtop
EXTRN	?Mootop@Voter@@QAEXXZ:PROC			; Voter::Mootop
EXTRN	?gVoter@@3VVoter@@A:BYTE			; gVoter
EXTRN	?g_iCastleItemMixLimit@@3HA:DWORD		; g_iCastleItemMixLimit
EXTRN	?LogDateChange@@YAHXZ:PROC			; LogDateChange
EXTRN	?gObjCheckAllUserDuelStop@@YAXXZ:PROC		; gObjCheckAllUserDuelStop
EXTRN	?TimeCheckCashDelete@CWhisperCash@@QAEXXZ:PROC	; CWhisperCash::TimeCheckCashDelete
EXTRN	?WhisperCash@@3VCWhisperCash@@A:BYTE		; WhisperCash
EXTRN	?gSetDate@@YAXXZ:PROC				; gSetDate
EXTRN	?CheckPeriodData@CPeriodItemZt@@QAEXXZ:PROC	; CPeriodItemZt::CheckPeriodData
EXTRN	?g_PeriodItemZt@@3VCPeriodItemZt@@A:BYTE	; g_PeriodItemZt
EXTRN	?CrywolfSecondAct@CCrywolf@@QAEXXZ:PROC		; CCrywolf::CrywolfSecondAct
EXTRN	?AdjustTributeMoney@CCastleSiegeSync@@QAEXXZ:PROC ; CCastleSiegeSync::AdjustTributeMoney
EXTRN	?g_CastleSiegeSync@@3VCCastleSiegeSync@@A:BYTE	; g_CastleSiegeSync
EXTRN	?SendCastleStateSync@CCastleSiege@@QAEXXZ:PROC	; CCastleSiege::SendCastleStateSync
EXTRN	?DataRequest@CCastleSiege@@QAEHXZ:PROC		; CCastleSiege::DataRequest
EXTRN	?gObjSecondProc@@YAXXZ:PROC			; gObjSecondProc
EXTRN	?gObjAllLogOut@@YAXXZ:PROC			; gObjAllLogOut
EXTRN	__imp__wsprintfA:PROC
EXTRN	?LogAddC@@3P6AXEPADZZA:DWORD			; LogAddC
EXTRN	?AllSendServerMsg@@YAXPAD@Z:PROC		; AllSendServerMsg
EXTRN	?MonsterMoveProc@TMonsterAI@@SAXXZ:PROC		; TMonsterAI::MonsterMoveProc
EXTRN	?Run@CMonsterTime@@QAEXXZ:PROC			; CMonsterTime::Run
EXTRN	?g_MonsterTime@@3VCMonsterTime@@A:BYTE		; g_MonsterTime
EXTRN	?Run@CCarnageEvent@@QAEXXZ:PROC			; CCarnageEvent::Run
EXTRN	?g_CarnageEvent@@3VCCarnageEvent@@A:BYTE	; g_CarnageEvent
EXTRN	?Run@CTeamVsTeam@@QAEXXZ:PROC			; CTeamVsTeam::Run
EXTRN	?g_TeamVsTeam@@3VCTeamVsTeam@@A:BYTE		; g_TeamVsTeam
EXTRN	?Run@CDungeonSiege@@QAEXXZ:PROC			; CDungeonSiege::Run
EXTRN	?g_DungeonSiege@@3VCDungeonSiege@@A:BYTE	; g_DungeonSiege
EXTRN	?Run@CImperial@@QAEXXZ:PROC			; CImperial::Run
EXTRN	?g_Imperial@@3VCImperial@@A:BYTE		; g_Imperial
EXTRN	?Run@CDoppelGanger@@QAEXXZ:PROC			; CDoppelGanger::Run
EXTRN	?g_DoppelGanger@@3VCDoppelGanger@@A:BYTE	; g_DoppelGanger
EXTRN	?Run@CDuelManager@@QAEXXZ:PROC			; CDuelManager::Run
EXTRN	?g_DuelManager@@3VCDuelManager@@A:BYTE		; g_DuelManager
EXTRN	?Run@CXMasAttackEvent@@QAEXXZ:PROC		; CXMasAttackEvent::Run
EXTRN	?Run@CRaklion@@QAEXXZ:PROC			; CRaklion::Run
EXTRN	?g_Raklion@@3VCRaklion@@A:BYTE			; g_Raklion
EXTRN	?Run@CIllusionTempleEvent@@QAEXXZ:PROC		; CIllusionTempleEvent::Run
EXTRN	?g_IllusionTempleEvent@@3VCIllusionTempleEvent@@A:BYTE ; g_IllusionTempleEvent
EXTRN	?Run@CKanturu@@QAEXXZ:PROC			; CKanturu::Run
EXTRN	?Run@CCrywolf@@QAEXXZ:PROC			; CCrywolf::Run
EXTRN	?g_Crywolf@@3VCCrywolf@@A:BYTE			; g_Crywolf
EXTRN	?WeaponAttackProc@CWeapon@@QAEXXZ:PROC		; CWeapon::WeaponAttackProc
EXTRN	?g_CsNPC_Weapon@@3VCWeapon@@A:BYTE		; g_CsNPC_Weapon
EXTRN	?Run@CCastleDeepEvent@@QAEXXZ:PROC		; CCastleDeepEvent::Run
EXTRN	?g_CastleDeepEvent@@3VCCastleDeepEvent@@A:BYTE	; g_CastleDeepEvent
EXTRN	?Run@CCastleSiege@@QAEXXZ:PROC			; CCastleSiege::Run
EXTRN	?g_CastleSiege@@3VCCastleSiege@@A:BYTE		; g_CastleSiege
EXTRN	?Run@CChaosCastle@@QAEXXZ:PROC			; CChaosCastle::Run
EXTRN	?g_ChaosCastle@@3VCChaosCastle@@A:BYTE		; g_ChaosCastle
EXTRN	?Run@CRingAttackEvent@@QAEXXZ:PROC		; CRingAttackEvent::Run
EXTRN	?Run@CBloodCastle@@QAEXXZ:PROC			; CBloodCastle::Run
EXTRN	?g_BloodCastle@@3VCBloodCastle@@A:BYTE		; g_BloodCastle
EXTRN	?UserMonsterCountCheck@CKanturu@@QAEXXZ:PROC	; CKanturu::UserMonsterCountCheck
EXTRN	?g_Kanturu@@3VCKanturu@@A:BYTE			; g_Kanturu
EXTRN	?MoveMonsterProc@@YAXXZ:PROC			; MoveMonsterProc
EXTRN	?MonsterAndMsgProc@@YAXXZ:PROC			; MonsterAndMsgProc
EXTRN	__imp__KillTimer@8:PROC
EXTRN	?DGGuildListRequest@@YAXXZ:PROC			; DGGuildListRequest
EXTRN	?ResetDamageTable@ZtUser@@QAEXXZ:PROC		; ZtUser::ResetDamageTable
EXTRN	?g_ZtUser@@3VZtUser@@A:BYTE			; g_ZtUser
EXTRN	?Run@CQuestionAnswer@@QAEXXZ:PROC		; CQuestionAnswer::Run
EXTRN	?g_QuestionAnswer@@3VCQuestionAnswer@@A:BYTE	; g_QuestionAnswer
EXTRN	?Run@CBanSystem@@QAEXXZ:PROC			; CBanSystem::Run
EXTRN	?g_BanSystem@@3VCBanSystem@@A:BYTE		; g_BanSystem
EXTRN	?Run@CTimerZt@@QAEXXZ:PROC			; CTimerZt::Run
EXTRN	?g_TimerZt@@3VCTimerZt@@A:DWORD			; g_TimerZt
EXTRN	__imp__ExitProcess@4:PROC
EXTRN	?TickTime@cPandoraBoxEvent@@QAEXXZ:PROC		; cPandoraBoxEvent::TickTime
EXTRN	?gPandoraBoxEvent@@3VcPandoraBoxEvent@@A:BYTE	; gPandoraBoxEvent
EXTRN	?TickTime@CDeviasBattle@@QAEXXZ:PROC		; CDeviasBattle::TickTime
EXTRN	?g_DeviasBattle@@3VCDeviasBattle@@A:BYTE	; g_DeviasBattle
EXTRN	?TickTime@cLoraBattle@@QAEXXZ:PROC		; cLoraBattle::TickTime
EXTRN	?LoraBattle@@3VcLoraBattle@@A:BYTE		; LoraBattle
EXTRN	?TickTime@cAlertSystem@@QAEXXZ:PROC		; cAlertSystem::TickTime
EXTRN	?AlertSystem@@3VcAlertSystem@@A:BYTE		; AlertSystem
EXTRN	?TickTime@cMonsterSpawner@@QAEXXZ:PROC		; cMonsterSpawner::TickTime
EXTRN	?gMonsterSpawner@@3VcMonsterSpawner@@A:BYTE	; gMonsterSpawner
EXTRN	?TickTime@cTvTEvent@@QAEXXZ:PROC		; cTvTEvent::TickTime
EXTRN	?TvT@@3VcTvTEvent@@A:BYTE			; TvT
EXTRN	?Times@cBloodHound@@QAEXXZ:PROC			; cBloodHound::Times
EXTRN	?BloodHound@@3VcBloodHound@@A:BYTE		; BloodHound
EXTRN	?TickTime@TeleportShop@@QAEXXZ:PROC		; TeleportShop::TickTime
EXTRN	?g_TeleportShop@@3VTeleportShop@@A:BYTE		; g_TeleportShop
EXTRN	?StartNPC@cSearchEvent@@QAEXXZ:PROC		; cSearchEvent::StartNPC
EXTRN	?SearchEvent@@3VcSearchEvent@@A:BYTE		; SearchEvent
EXTRN	?TickTime@cDropEvent@@QAEXXZ:PROC		; cDropEvent::TickTime
EXTRN	?DropEvent@@3VcDropEvent@@A:BYTE		; DropEvent
EXTRN	?Timetick@cHappyHour@@QAEXXZ:PROC		; cHappyHour::Timetick
EXTRN	?HappyHour@@3VcHappyHour@@A:BYTE		; HappyHour
EXTRN	?Run@CEventManagement@@QAEXXZ:PROC		; CEventManagement::Run
EXTRN	?g_EventManager@@3VCEventManagement@@A:BYTE	; g_EventManager
EXTRN	?Run@CEledoradoEvent@@QAEXXZ:PROC		; CEledoradoEvent::Run
EXTRN	?gEledoradoEvent@@3VCEledoradoEvent@@A:BYTE	; gEledoradoEvent
EXTRN	?Run@CAttackEvent@@QAEXXZ:PROC			; CAttackEvent::Run
EXTRN	?AttackEvent@@3PAVCAttackEvent@@A:DWORD		; AttackEvent
EXTRN	?Run@CDragonEvent@@QAEXXZ:PROC			; CDragonEvent::Run
EXTRN	?DragonEvent@@3PAVCDragonEvent@@A:DWORD		; DragonEvent
EXTRN	?wsGServer@@3VCwsGameServer@@A:BYTE		; wsGServer
EXTRN	?WeatherVariationProcess@MapClass@@QAEXXZ:PROC	; MapClass::WeatherVariationProcess
EXTRN	?MapC@@3PAVMapClass@@A:BYTE			; MapC
EXTRN	?GJNotifyMaxUserCount@@YAXXZ:PROC		; GJNotifyMaxUserCount
EXTRN	?Run@TServerInfoDisplayer@@QAEXPAUHWND__@@@Z:PROC ; TServerInfoDisplayer::Run
EXTRN	?g_ServerInfoDisplayer@@3VTServerInfoDisplayer@@A:BYTE ; g_ServerInfoDisplayer
EXTRN	?gObjViewportPaint@@YAXPAUHWND__@@F@Z:PROC	; gObjViewportPaint
EXTRN	?LogTextPaint@@3P6AXPAUHWND__@@@ZA:DWORD	; LogTextPaint
EXTRN	__imp__ReleaseDC@8:PROC
EXTRN	__imp__FillRect@12:PROC
EXTRN	__imp__GetDC@4:PROC
EXTRN	?GameServerInfoSend@@YAXXZ:PROC			; GameServerInfoSend
EXTRN	?gObjSetState@@YAXXZ:PROC			; gObjSetState
EXTRN	?gObjUnionUpdateProc@@YAXH@Z:PROC		; gObjUnionUpdateProc
EXTRN	?gObj@@3PAUOBJECTSTRUCT@@A:DWORD		; gObj
EXTRN	?gObjIsConnected@@YAHH@Z:PROC			; gObjIsConnected
EXTRN	?PShop_ViewportListRegenarate@@YAXF@Z:PROC	; PShop_ViewportListRegenarate
EXTRN	?gDoPShopOpen@@3HA:DWORD			; gDoPShopOpen
EXTRN	?gObjViewportListProtocol@@YAXF@Z:PROC		; gObjViewportListProtocol
EXTRN	?gObjViewportListCreate@@YAXF@Z:PROC		; gObjViewportListCreate
EXTRN	?gObjViewportListDestroy@@YAXF@Z:PROC		; gObjViewportListDestroy
EXTRN	?gObjStateSetCreate@@YAXH@Z:PROC		; gObjStateSetCreate
EXTRN	?MonsterAIProc@TMonsterAI@@SAXXZ:PROC		; TMonsterAI::MonsterAIProc
EXTRN	__imp__DialogBoxParamA@20:PROC
EXTRN	?CGPCharacterMapJoinRequest@@YAXPAUPMSG_CHARMAPJOIN@@H@Z:PROC ; CGPCharacterMapJoinRequest
EXTRN	?gServerMaxUser@@3HA:DWORD			; gServerMaxUser
EXTRN	__imp__CreateDialogParamA@20:PROC
EXTRN	__imp__PostQuitMessage@4:PROC
EXTRN	?GiocpDelete@@YAXXZ:PROC			; GiocpDelete
EXTRN	?GameMainFree@@YAXXZ:PROC			; GameMainFree
EXTRN	__imp__DestroyWindow@4:PROC
EXTRN	__imp__MessageBoxA@16:PROC
EXTRN	?gLanguage@@3HA:DWORD				; gLanguage
EXTRN	___CxxFrameHandler3:PROC
;	COMDAT ??_C@_04HADNADMN@?$LP?H?$LD?D?$AA@
; File e:\work\tranet_version\gs\gameserver\castlesiege.h
CONST	SEGMENT
??_C@_04HADNADMN@?$LP?H?$LD?D?$AA@ DB 0bfH, 0c8H, 0b3H, 0c4H, 00H ; `string'
CONST	ENDS
;	COMDAT ??_C@_0M@NBMDHNII@HELLO?5WORLD?$AA@
CONST	SEGMENT
??_C@_0M@NBMDHNII@HELLO?5WORLD?$AA@ DB 'HELLO WORLD', 00H ; `string'
CONST	ENDS
;	COMDAT ??_C@_0L@DPAHEMHE@Iplist?4dat?$AA@
CONST	SEGMENT
??_C@_0L@DPAHEMHE@Iplist?4dat?$AA@ DB 'Iplist.dat', 00H	; `string'
CONST	ENDS
;	COMDAT ??_C@_0BB@IGLHFEOF@commonserver?4cfg?$AA@
CONST	SEGMENT
??_C@_0BB@IGLHFEOF@commonserver?4cfg?$AA@ DB 'commonserver.cfg', 00H ; `string'
CONST	ENDS
;	COMDAT ??_C@_0BK@COKJOEKN@?4?2Events?2MuCastleData?4dat?$AA@
CONST	SEGMENT
??_C@_0BK@COKJOEKN@?4?2Events?2MuCastleData?4dat?$AA@ DB '.\Events\MuCast'
	DB	'leData.dat', 00H				; `string'
CONST	ENDS
;	COMDAT ??_C@_0BI@GIPPDGKI@Other?2MapServerInfo?4dat?$AA@
CONST	SEGMENT
??_C@_0BI@GIPPDGKI@Other?2MapServerInfo?4dat?$AA@ DB 'Other\MapServerInfo'
	DB	'.dat', 00H					; `string'
CONST	ENDS
;	COMDAT ??_C@_0BA@LAAHBEDI@closeplayer?4txt?$AA@
CONST	SEGMENT
??_C@_0BA@LAAHBEDI@closeplayer?4txt?$AA@ DB 'closeplayer.txt', 00H ; `string'
CONST	ENDS
;	COMDAT ??_C@_06MMLDKFPE@?E?W?$LN?$LK?F?$KO?$AA@
CONST	SEGMENT
??_C@_06MMLDKFPE@?E?W?$LN?$LK?F?$KO?$AA@ DB 0c5H, 0d7H, 0bdH, 0baH, 0c6H, 0aeH
	DB	00H						; `string'
CONST	ENDS
;	COMDAT ??_C@_0BC@EBEJPBOM@GameServer?5close?$DP?$AA@
CONST	SEGMENT
??_C@_0BC@EBEJPBOM@GameServer?5close?$DP?$AA@ DB 'GameServer close?', 00H ; `string'
CONST	ENDS
;	COMDAT ??_C@_05LGELBCGM@Close?$AA@
CONST	SEGMENT
??_C@_05LGELBCGM@Close?$AA@ DB 'Close', 00H		; `string'
CONST	ENDS
;	COMDAT xdata$x
xdata$x	SEGMENT
__unwindtable$?WndProc@@YGJPAUHWND__@@IIJ@Z DD 0ffffffffH
	DD	FLAT:__unwindfunclet$?WndProc@@YGJPAUHWND__@@IIJ@Z$0
__ehfuncinfo$?WndProc@@YGJPAUHWND__@@IIJ@Z DD 019930522H
	DD	01H
	DD	FLAT:__unwindtable$?WndProc@@YGJPAUHWND__@@IIJ@Z
	DD	2 DUP(00H)
	DD	2 DUP(00H)
	DD	00H
	DD	01H
; Function compile flags: /Ogtp
; File e:\work\tranet_version\gs\gameserver\gameserver.cpp
xdata$x	ENDS
;	COMDAT ?WndProc@@YGJPAUHWND__@@IIJ@Z
_TEXT	SEGMENT
_closeplayer$231612 = -308				; size = 4
_rect$231701 = -304					; size = 16
_Msg$231815 = -288					; size = 14
_szTemp$231763 = -272					; size = 256
__$ArrayPad$ = -16					; size = 4
__$EHRec$ = -12						; size = 12
_hWnd$ = 8						; size = 4
_message$ = 12						; size = 4
_wParam$ = 16						; size = 4
_lParam$ = 20						; size = 4
?WndProc@@YGJPAUHWND__@@IIJ@Z PROC			; WndProc, COMDAT

; 511  : {

  00000	55		 push	 ebp
  00001	8b ec		 mov	 ebp, esp
  00003	6a ff		 push	 -1
  00005	68 00 00 00 00	 push	 __ehhandler$?WndProc@@YGJPAUHWND__@@IIJ@Z
  0000a	64 a1 00 00 00
	00		 mov	 eax, DWORD PTR fs:0
  00010	50		 push	 eax
  00011	81 ec 28 01 00
	00		 sub	 esp, 296		; 00000128H
  00017	a1 00 00 00 00	 mov	 eax, DWORD PTR ___security_cookie
  0001c	33 c5		 xor	 eax, ebp
  0001e	89 45 f0	 mov	 DWORD PTR __$ArrayPad$[ebp], eax
  00021	56		 push	 esi
  00022	57		 push	 edi
  00023	50		 push	 eax
  00024	8d 45 f4	 lea	 eax, DWORD PTR __$EHRec$[ebp]
  00027	64 a3 00 00 00
	00		 mov	 DWORD PTR fs:0, eax

; 512  : 	INT wmId, wmEvent;
; 513  : 	
; 514  : 	switch (message) 

  0002d	8b 45 0c	 mov	 eax, DWORD PTR _message$[ebp]
  00030	8b 7d 08	 mov	 edi, DWORD PTR _hWnd$[ebp]
  00033	3d 01 04 00 00	 cmp	 eax, 1025		; 00000401H
  00038	0f 87 49 0e 00
	00		 ja	 $LN190@WndProc
  0003e	0f 84 2c 0e 00
	00		 je	 $LN114@WndProc
  00044	3d 00 01 00 00	 cmp	 eax, 256		; 00000100H
  00049	0f 87 92 01 00
	00		 ja	 $LN191@WndProc
  0004f	0f 84 88 00 00
	00		 je	 $LN17@WndProc
  00055	8b c8		 mov	 ecx, eax
  00057	49		 dec	 ecx
  00058	74 5d		 je	 SHORT $LN181@WndProc
  0005a	49		 dec	 ecx
  0005b	74 41		 je	 SHORT $LN2@WndProc
  0005d	83 e9 0e	 sub	 ecx, 14			; 0000000eH
  00060	0f 85 e3 0e 00
	00		 jne	 $LN1@WndProc

; 1181 : 						}
; 1182 : 						
; 1183 : 						#endif
; 1184 : 					}
; 1185 : 					break;
; 1186 : #if(ZTLICENSE_SERVER)
; 1187 : 				case WM_ZT_LICENSE_10SEC:
; 1188 : 					g_ZtLicenseProtocol.Run();
; 1189 : 					break;
; 1190 : #endif
; 1191 : 				case WM_ZT_TIMER_10SEC:
; 1192 : 					//#if(ANTI_CHEAT_PLUS && SCANER_ITEM_DUPE)
; 1193 : 					//g_AntiCheatPlus.RunItemDupe();
; 1194 : 					//#endif
; 1195 : 					break;
; 1196 : 
; 1197 : 			}
; 1198 : 			break;
; 1199 : 		case WM_CLOSE:
; 1200 : 			if ( gLanguage != 3 )

  00066	83 3d 00 00 00
	00 03		 cmp	 DWORD PTR ?gLanguage@@3HA, 3 ; gLanguage
  0006d	74 21		 je	 SHORT $LN20@WndProc

; 1201 : 			{
; 1202 : 				if (MessageBox(ghWnd, "GameServer close?", "Close", MB_YESNO|MB_APPLMODAL) == IDYES)

  0006f	a1 00 00 00 00	 mov	 eax, DWORD PTR ?ghWnd@@3PAUHWND__@@A ; ghWnd
  00074	6a 04		 push	 4
  00076	68 00 00 00 00	 push	 OFFSET ??_C@_05LGELBCGM@Close?$AA@
  0007b	68 00 00 00 00	 push	 OFFSET ??_C@_0BC@EBEJPBOM@GameServer?5close?$DP?$AA@
  00080	50		 push	 eax
  00081	ff 15 00 00 00
	00		 call	 DWORD PTR __imp__MessageBoxA@16
  00087	83 f8 06	 cmp	 eax, 6
  0008a	0f 85 b5 0e 00
	00		 jne	 $LN105@WndProc
$LN20@WndProc:

; 1203 : 				{
; 1204 : 					DestroyWindow(hWnd);

  00090	57		 push	 edi
  00091	ff 15 00 00 00
	00		 call	 DWORD PTR __imp__DestroyWindow@4

; 1278 :    }
; 1279 :    return 0;

  00097	33 c0		 xor	 eax, eax
  00099	e9 bb 0e 00 00	 jmp	 $LN184@WndProc
$LN2@WndProc:

; 1267 : 					}
; 1268 : 					break;
; 1269 : 			}
; 1270 : 			break;
; 1271 : 		case WM_DESTROY:
; 1272 : 			GameMainFree();

  0009e	e8 00 00 00 00	 call	 ?GameMainFree@@YAXXZ	; GameMainFree

; 1273 : 			GiocpDelete();

  000a3	e8 00 00 00 00	 call	 ?GiocpDelete@@YAXXZ	; GiocpDelete

; 1274 : 			PostQuitMessage(0);

  000a8	6a 00		 push	 0
  000aa	ff 15 00 00 00
	00		 call	 DWORD PTR __imp__PostQuitMessage@4

; 1278 :    }
; 1279 :    return 0;

  000b0	33 c0		 xor	 eax, eax
  000b2	e9 a2 0e 00 00	 jmp	 $LN184@WndProc
$LN181@WndProc:

; 515  : 	{
; 516  : 		case WM_CREATE:
; 517  : //#if(GS_CASTLE==1)
; 518  : 			g_hCsLogDlgProc = CreateDialogParam(hInst, LPCTSTR(IDD_CASTLE_SIEGE_LOG), hWnd, CsLogDlgProc, 0);

  000b7	8b 0d 00 00 00
	00		 mov	 ecx, DWORD PTR ?hInst@@3PAUHINSTANCE__@@A ; hInst
  000bd	6a 00		 push	 0
  000bf	68 00 00 00 00	 push	 OFFSET ?CsLogDlgProc@@YGHPAUHWND__@@IIJ@Z ; CsLogDlgProc
  000c4	57		 push	 edi
  000c5	68 92 00 00 00	 push	 146			; 00000092H
  000ca	51		 push	 ecx
  000cb	ff 15 00 00 00
	00		 call	 DWORD PTR __imp__CreateDialogParamA@20
  000d1	a3 00 00 00 00	 mov	 DWORD PTR ?g_hCsLogDlgProc@@3PAUHWND__@@A, eax ; g_hCsLogDlgProc

; 519  : //#endif
; 520  : 			return 0;

  000d6	33 c0		 xor	 eax, eax
  000d8	e9 7c 0e 00 00	 jmp	 $LN184@WndProc
$LN17@WndProc:

; 1205 : 				}
; 1206 : 			}
; 1207 : 			else
; 1208 : 			{
; 1209 : 				DestroyWindow(hWnd);
; 1210 : 			}
; 1211 : 			break;
; 1212 : 		case WM_KEYDOWN:
; 1213 : 			switch ( wParam )

  000dd	8b 45 10	 mov	 eax, DWORD PTR _wParam$[ebp]
  000e0	83 c0 90	 add	 eax, -112		; ffffff90H
  000e3	83 f8 0a	 cmp	 eax, 10			; 0000000aH
  000e6	0f 87 59 0e 00
	00		 ja	 $LN105@WndProc
  000ec	ff 24 85 00 00
	00 00		 jmp	 DWORD PTR $LN233@WndProc[eax*4]
$LN14@WndProc:

; 1214 : 			{
; 1215 : 			case VK_F1 :
; 1216 : 				gCurPaintPlayer--;

  000f3	ff 0d 00 00 00
	00		 dec	 DWORD PTR ?gCurPaintPlayer@@3HA ; gCurPaintPlayer

; 1217 : 				if( gCurPaintPlayer < 0 ) gCurPaintPlayer = 0;

  000f9	0f 89 46 0e 00
	00		 jns	 $LN105@WndProc
  000ff	c7 05 00 00 00
	00 00 00 00 00	 mov	 DWORD PTR ?gCurPaintPlayer@@3HA, 0 ; gCurPaintPlayer

; 1278 :    }
; 1279 :    return 0;

  00109	33 c0		 xor	 eax, eax
  0010b	e9 49 0e 00 00	 jmp	 $LN184@WndProc
$LN12@WndProc:

; 1218 : 				break;
; 1219 : 			case VK_F2 :
; 1220 : 				gCurPaintPlayer++;

  00110	a1 00 00 00 00	 mov	 eax, DWORD PTR ?gCurPaintPlayer@@3HA ; gCurPaintPlayer
  00115	40		 inc	 eax
  00116	a3 00 00 00 00	 mov	 DWORD PTR ?gCurPaintPlayer@@3HA, eax ; gCurPaintPlayer

; 1221 : 				if( gCurPaintPlayer > OBJMAX-1 ) gCurPaintPlayer = OBJMAX-1;

  0011b	3d 97 3a 00 00	 cmp	 eax, 14999		; 00003a97H
  00120	0f 8e 1f 0e 00
	00		 jle	 $LN105@WndProc
  00126	c7 05 00 00 00
	00 97 3a 00 00	 mov	 DWORD PTR ?gCurPaintPlayer@@3HA, 14999 ; gCurPaintPlayer, 00003a97H

; 1278 :    }
; 1279 :    return 0;

  00130	33 c0		 xor	 eax, eax
  00132	e9 22 0e 00 00	 jmp	 $LN184@WndProc
$LN9@WndProc:

; 1222 : 				break;
; 1223 : 			case VK_F4 :
; 1224 : 				//GameMainServerCreate(WM_ASS_SERVERMSG, WM_ASS_CLIENTMSG);
; 1225 : 				//TestDSSend();
; 1226 : 				{
; 1227 : 				/*PMSG_IDPASS Msg;
; 1228 : 				strcpy(Msg.Id,"saemsong");
; 1229 : 				strcpy(Msg.Pass,"ssman");	
; 1230 : 				Msg.CliVersion[0] = szClientVersion[0];
; 1231 : 				Msg.CliVersion[1] = szClientVersion[1];
; 1232 : 				Msg.CliVersion[2] = szClientVersion[2];
; 1233 : 				CSPJoinIdPassRequest(&Msg, 0);
; 1234 : 				*/
; 1235 : 				}
; 1236 : 				break;
; 1237 : 			case VK_F5 : 
; 1238 : 				gServerMaxUser-=10;

  00137	a1 00 00 00 00	 mov	 eax, DWORD PTR ?gServerMaxUser@@3HA ; gServerMaxUser
  0013c	83 e8 0a	 sub	 eax, 10			; 0000000aH
  0013f	a3 00 00 00 00	 mov	 DWORD PTR ?gServerMaxUser@@3HA, eax ; gServerMaxUser

; 1239 : 				if( gServerMaxUser < 10 ) gServerMaxUser = 10;

  00144	83 f8 0a	 cmp	 eax, 10			; 0000000aH
  00147	0f 8d f8 0d 00
	00		 jge	 $LN105@WndProc
  0014d	c7 05 00 00 00
	00 0a 00 00 00	 mov	 DWORD PTR ?gServerMaxUser@@3HA, 10 ; gServerMaxUser, 0000000aH

; 1278 :    }
; 1279 :    return 0;

  00157	33 c0		 xor	 eax, eax
  00159	e9 fb 0d 00 00	 jmp	 $LN184@WndProc
$LN7@WndProc:

; 1240 : 				break;
; 1241 : 			case VK_F6 :
; 1242 : 				gServerMaxUser+=10;

  0015e	a1 00 00 00 00	 mov	 eax, DWORD PTR ?gServerMaxUser@@3HA ; gServerMaxUser
  00163	83 c0 0a	 add	 eax, 10			; 0000000aH
  00166	a3 00 00 00 00	 mov	 DWORD PTR ?gServerMaxUser@@3HA, eax ; gServerMaxUser

; 1243 : 				if( gServerMaxUser > 1500 ) gServerMaxUser = 1500;

  0016b	3d dc 05 00 00	 cmp	 eax, 1500		; 000005dcH
  00170	0f 8e cf 0d 00
	00		 jle	 $LN105@WndProc
  00176	c7 05 00 00 00
	00 dc 05 00 00	 mov	 DWORD PTR ?gServerMaxUser@@3HA, 1500 ; gServerMaxUser, 000005dcH

; 1278 :    }
; 1279 :    return 0;

  00180	33 c0		 xor	 eax, eax
  00182	e9 d2 0d 00 00	 jmp	 $LN184@WndProc
$LN5@WndProc:

; 1244 : 				break;
; 1245 : 			case VK_F7 :
; 1246 : 				{
; 1247 : 					PMSG_CHARMAPJOIN Msg;
; 1248 : 					strcpy(Msg.Name,"抛胶飘");

  00187	8b 15 00 00 00
	00		 mov	 edx, DWORD PTR ??_C@_06MMLDKFPE@?E?W?$LN?$LK?F?$KO?$AA@
  0018d	66 a1 04 00 00
	00		 mov	 ax, WORD PTR ??_C@_06MMLDKFPE@?E?W?$LN?$LK?F?$KO?$AA@+4
  00193	8a 0d 06 00 00
	00		 mov	 cl, BYTE PTR ??_C@_06MMLDKFPE@?E?W?$LN?$LK?F?$KO?$AA@+6
  00199	89 95 e4 fe ff
	ff		 mov	 DWORD PTR _Msg$231815[ebp+4], edx

; 1249 : 					CGPCharacterMapJoinRequest(&Msg, 0);

  0019f	8d 95 e0 fe ff
	ff		 lea	 edx, DWORD PTR _Msg$231815[ebp]
  001a5	6a 00		 push	 0
  001a7	52		 push	 edx
  001a8	66 89 85 e8 fe
	ff ff		 mov	 WORD PTR _Msg$231815[ebp+8], ax
  001af	88 8d ea fe ff
	ff		 mov	 BYTE PTR _Msg$231815[ebp+10], cl
  001b5	e8 00 00 00 00	 call	 ?CGPCharacterMapJoinRequest@@YAXPAUPMSG_CHARMAPJOIN@@H@Z ; CGPCharacterMapJoinRequest
  001ba	83 c4 08	 add	 esp, 8

; 1278 :    }
; 1279 :    return 0;

  001bd	33 c0		 xor	 eax, eax
  001bf	e9 95 0d 00 00	 jmp	 $LN184@WndProc
$LN3@WndProc:

; 1250 : 				}
; 1251 : 				break;
; 1252 : 				case VK_F9 :				
; 1253 : 				#if( TESTSERVER == 1 )
; 1254 : 				{
; 1255 : 					TestDSSend();
; 1256 : 					PMSG_IDPASS pMsg;
; 1257 : 					for( int n=0; n<100; n++)
; 1258 : 					{
; 1259 : 						CSPJoinIdPassRequestTEST(&pMsg, 0);
; 1260 : 					}
; 1261 : 				}
; 1262 : 				#endif
; 1263 : 				break;
; 1264 : 				case VK_F11:
; 1265 : 					{
; 1266 : 						DialogBox(hInst, (LPCTSTR)IDD_ABOUT_BOX, hWnd, (DLGPROC)About);

  001c4	a1 00 00 00 00	 mov	 eax, DWORD PTR ?hInst@@3PAUHINSTANCE__@@A ; hInst
  001c9	6a 00		 push	 0
  001cb	68 00 00 00 00	 push	 OFFSET ?About@@YGJPAUHWND__@@IIJ@Z ; About
  001d0	57		 push	 edi
  001d1	6a 67		 push	 103			; 00000067H
  001d3	50		 push	 eax
  001d4	ff 15 00 00 00
	00		 call	 DWORD PTR __imp__DialogBoxParamA@20

; 1278 :    }
; 1279 :    return 0;

  001da	33 c0		 xor	 eax, eax
  001dc	e9 78 0d 00 00	 jmp	 $LN184@WndProc
$LN191@WndProc:

; 512  : 	INT wmId, wmEvent;
; 513  : 	
; 514  : 	switch (message) 

  001e1	8b c8		 mov	 ecx, eax
  001e3	81 e9 11 01 00
	00		 sub	 ecx, 273		; 00000111H
  001e9	0f 84 5f 07 00
	00		 je	 $LN180@WndProc
  001ef	83 e9 02	 sub	 ecx, 2
  001f2	0f 85 51 0d 00
	00		 jne	 $LN1@WndProc

; 763  : 			break;
; 764  : 		case WM_TIMER:
; 765  : 			switch ( wParam )

  001f8	8b 45 10	 mov	 eax, DWORD PTR _wParam$[ebp]
  001fb	3d e8 03 00 00	 cmp	 eax, 1000		; 000003e8H
  00200	0f 87 2c 03 00
	00		 ja	 $LN189@WndProc
  00206	0f 84 6a 01 00
	00		 je	 $LN68@WndProc
  0020c	83 e8 64	 sub	 eax, 100		; 00000064H
  0020f	0f 84 ee 00 00
	00		 je	 $LN100@WndProc
  00215	48		 dec	 eax
  00216	74 17		 je	 SHORT $LN92@WndProc
  00218	2d 8f 01 00 00	 sub	 eax, 399		; 0000018fH
  0021d	0f 85 22 0d 00
	00		 jne	 $LN105@WndProc

; 856  : 					break;
; 857  : 				case WM_AI_MONSTER_PROC:
; 858  : 					TMonsterAI::MonsterAIProc();

  00223	e8 00 00 00 00	 call	 ?MonsterAIProc@TMonsterAI@@SAXXZ ; TMonsterAI::MonsterAIProc

; 1278 :    }
; 1279 :    return 0;

  00228	33 c0		 xor	 eax, eax
  0022a	e9 2a 0d 00 00	 jmp	 $LN184@WndProc
$LN92@WndProc:

; 859  : 					break;
; 860  : 				case WM_FIRST_MSG_PROCESS:
; 861  : 					{
; 862  : 						for ( int n=0;n<OBJMAX;n++)

  0022f	33 f6		 xor	 esi, esi
$LL91@WndProc:

; 863  : 						{
; 864  : 							gObjStateSetCreate(n);

  00231	56		 push	 esi
  00232	e8 00 00 00 00	 call	 ?gObjStateSetCreate@@YAXH@Z ; gObjStateSetCreate
  00237	46		 inc	 esi
  00238	83 c4 04	 add	 esp, 4
  0023b	81 fe 98 3a 00
	00		 cmp	 esi, 15000		; 00003a98H
  00241	7c ee		 jl	 SHORT $LL91@WndProc

; 865  : 						}
; 866  : 						for (int  n=0;n<OBJMAX;n++)

  00243	33 f6		 xor	 esi, esi
$LL88@WndProc:

; 867  : 						{
; 868  : 							gObjViewportListDestroy(n);

  00245	56		 push	 esi
  00246	e8 00 00 00 00	 call	 ?gObjViewportListDestroy@@YAXF@Z ; gObjViewportListDestroy
  0024b	46		 inc	 esi
  0024c	83 c4 04	 add	 esp, 4
  0024f	81 fe 98 3a 00
	00		 cmp	 esi, 15000		; 00003a98H
  00255	7c ee		 jl	 SHORT $LL88@WndProc

; 869  : 						}
; 870  : 						for (int  n=0;n<OBJMAX;n++)

  00257	33 f6		 xor	 esi, esi
  00259	8d a4 24 00 00
	00 00		 npad	 7
$LL85@WndProc:

; 871  : 						{
; 872  : 							gObjViewportListCreate(n);

  00260	56		 push	 esi
  00261	e8 00 00 00 00	 call	 ?gObjViewportListCreate@@YAXF@Z ; gObjViewportListCreate
  00266	46		 inc	 esi
  00267	83 c4 04	 add	 esp, 4
  0026a	81 fe 98 3a 00
	00		 cmp	 esi, 15000		; 00003a98H
  00270	7c ee		 jl	 SHORT $LL85@WndProc

; 873  : 						}
; 874  : 						for (int n=0;n<OBJMAX;n++)

  00272	33 f6		 xor	 esi, esi
$LL82@WndProc:

; 875  : 						{
; 876  : 							gObjViewportListProtocol(n);

  00274	56		 push	 esi
  00275	e8 00 00 00 00	 call	 ?gObjViewportListProtocol@@YAXF@Z ; gObjViewportListProtocol
  0027a	46		 inc	 esi
  0027b	83 c4 04	 add	 esp, 4
  0027e	81 fe 98 3a 00
	00		 cmp	 esi, 15000		; 00003a98H
  00284	7c ee		 jl	 SHORT $LL82@WndProc

; 877  : 						}
; 878  : 
; 879  : 						if ( gDoPShopOpen != FALSE )

  00286	83 3d 00 00 00
	00 00		 cmp	 DWORD PTR ?gDoPShopOpen@@3HA, 0 ; gDoPShopOpen
  0028d	74 4b		 je	 SHORT $LN73@WndProc

; 880  : 						{
; 881  : 							for (int n= OBJ_STARTUSERINDZT;n<OBJMAX;n++)

  0028f	be b0 36 00 00	 mov	 esi, 14000		; 000036b0H
$LL78@WndProc:

; 882  : 							{
; 883  : 								PShop_ViewportListRegenarate(n);

  00294	56		 push	 esi
  00295	e8 00 00 00 00	 call	 ?PShop_ViewportListRegenarate@@YAXF@Z ; PShop_ViewportListRegenarate
  0029a	46		 inc	 esi
  0029b	83 c4 04	 add	 esp, 4
  0029e	81 fe 98 3a 00
	00		 cmp	 esi, 15000		; 00003a98H
  002a4	7c ee		 jl	 SHORT $LL78@WndProc

; 884  : 							}
; 885  : 							for (int n=OBJ_STARTUSERINDZT;n<OBJMAX;n++)

  002a6	bf b0 36 00 00	 mov	 edi, 14000		; 000036b0H
  002ab	be 00 a7 40 09	 mov	 esi, 155232000		; 0940a700H
$LL75@WndProc:

; 886  : 							{
; 887  : 								if (gObjIsConnected(n) != PLAYER_EMPTY )

  002b0	57		 push	 edi
  002b1	e8 00 00 00 00	 call	 ?gObjIsConnected@@YAHH@Z ; gObjIsConnected
  002b6	83 c4 04	 add	 esp, 4
  002b9	85 c0		 test	 eax, eax
  002bb	74 0e		 je	 SHORT $LN74@WndProc

; 888  : 								{
; 889  : 									gObj[n].m_bPShopItemChange = false;

  002bd	8b 0d 00 00 00
	00		 mov	 ecx, DWORD PTR ?gObj@@3PAUOBJECTSTRUCT@@A ; gObj
  002c3	c6 84 31 c6 0e
	00 00 00	 mov	 BYTE PTR [ecx+esi+3782], 0
$LN74@WndProc:

; 884  : 							}
; 885  : 							for (int n=OBJ_STARTUSERINDZT;n<OBJMAX;n++)

  002cb	81 c6 50 2b 00
	00		 add	 esi, 11088		; 00002b50H
  002d1	47		 inc	 edi
  002d2	81 fe 80 d7 e9
	09		 cmp	 esi, 166320000		; 09e9d780H
  002d8	7c d6		 jl	 SHORT $LL75@WndProc
$LN73@WndProc:

; 890  : 								}
; 891  : 							}
; 892  : 						}
; 893  : 
; 894  : 						for (int n=OBJ_STARTUSERINDZT;n<OBJMAX;n++)

  002da	be b0 36 00 00	 mov	 esi, 14000		; 000036b0H
  002df	90		 npad	 1
$LL71@WndProc:

; 895  : 						{
; 896  : 							gObjUnionUpdateProc(n);

  002e0	56		 push	 esi
  002e1	e8 00 00 00 00	 call	 ?gObjUnionUpdateProc@@YAXH@Z ; gObjUnionUpdateProc
  002e6	46		 inc	 esi
  002e7	83 c4 04	 add	 esp, 4
  002ea	81 fe 98 3a 00
	00		 cmp	 esi, 15000		; 00003a98H
  002f0	7c ee		 jl	 SHORT $LL71@WndProc

; 897  : 						}
; 898  : 
; 899  : 						gObjSetState();

  002f2	e8 00 00 00 00	 call	 ?gObjSetState@@YAXXZ	; gObjSetState

; 900  : 						GameServerInfoSend();

  002f7	e8 00 00 00 00	 call	 ?GameServerInfoSend@@YAXXZ ; GameServerInfoSend

; 1278 :    }
; 1279 :    return 0;

  002fc	33 c0		 xor	 eax, eax
  002fe	e9 56 0c 00 00	 jmp	 $LN184@WndProc
$LN100@WndProc:

; 770  : 					break;
; 771  : 				case WM_LOG_PAINT:
; 772  : 					{
; 773  : 						RECT rect;
; 774  : 						HDC hdc = GetDC(hWnd);

  00303	57		 push	 edi
  00304	ff 15 00 00 00
	00		 call	 DWORD PTR __imp__GetDC@4

; 775  : 						GetClientRect(hWnd, &rect);	

  0030a	8d 95 d0 fe ff
	ff		 lea	 edx, DWORD PTR _rect$231701[ebp]
  00310	52		 push	 edx
  00311	57		 push	 edi
  00312	8b f0		 mov	 esi, eax
  00314	ff 15 00 00 00
	00		 call	 DWORD PTR __imp__GetClientRect@8

; 776  : #if(NEW_WINDOW==1)
; 777  : 						FillRect(hdc, &rect, hBushFont); 

  0031a	a1 00 00 00 00	 mov	 eax, DWORD PTR ?hBushFont@@3PAUHBRUSH__@@A ; hBushFont
  0031f	50		 push	 eax
  00320	8d 8d d0 fe ff
	ff		 lea	 ecx, DWORD PTR _rect$231701[ebp]
  00326	51		 push	 ecx
  00327	56		 push	 esi
  00328	ff 15 00 00 00
	00		 call	 DWORD PTR __imp__FillRect@12

; 778  : #else
; 779  : 						FillRect(hdc, &rect, (HBRUSH)GetStockObject(0)); 
; 780  : #endif
; 781  : 						
; 782  : 						ReleaseDC(hWnd, hdc);

  0032e	56		 push	 esi
  0032f	57		 push	 edi
  00330	ff 15 00 00 00
	00		 call	 DWORD PTR __imp__ReleaseDC@8

; 783  : 
; 784  : 						if ( gCurPaintType == 0)

  00336	83 3d 00 00 00
	00 00		 cmp	 DWORD PTR ?gCurPaintType@@3HA, 0 ; gCurPaintType
  0033d	75 0f		 jne	 SHORT $LN98@WndProc

; 785  : 						{
; 786  : 							if ( LogTextPaint != NULL )

  0033f	a1 00 00 00 00	 mov	 eax, DWORD PTR ?LogTextPaint@@3P6AXPAUHWND__@@@ZA ; LogTextPaint
  00344	85 c0		 test	 eax, eax
  00346	74 06		 je	 SHORT $LN98@WndProc

; 787  : 							{
; 788  : 								LogTextPaint(hWnd);

  00348	57		 push	 edi
  00349	ff d0		 call	 eax
  0034b	83 c4 04	 add	 esp, 4
$LN98@WndProc:

; 789  : 							}
; 790  : 						}
; 791  : 						
; 792  : 						gObjViewportPaint(hWnd, gCurPaintPlayer);

  0034e	0f b7 15 00 00
	00 00		 movzx	 edx, WORD PTR ?gCurPaintPlayer@@3HA
  00355	52		 push	 edx
  00356	57		 push	 edi
  00357	e8 00 00 00 00	 call	 ?gObjViewportPaint@@YAXPAUHWND__@@F@Z ; gObjViewportPaint
  0035c	83 c4 08	 add	 esp, 8

; 793  : 						g_ServerInfoDisplayer.Run(hWnd);

  0035f	57		 push	 edi
  00360	b9 00 00 00 00	 mov	 ecx, OFFSET ?g_ServerInfoDisplayer@@3VTServerInfoDisplayer@@A ; g_ServerInfoDisplayer
  00365	e8 00 00 00 00	 call	 ?Run@TServerInfoDisplayer@@QAEXPAUHWND__@@@Z ; TServerInfoDisplayer::Run

; 794  : 						GJNotifyMaxUserCount();

  0036a	e8 00 00 00 00	 call	 ?GJNotifyMaxUserCount@@YAXXZ ; GJNotifyMaxUserCount

; 1278 :    }
; 1279 :    return 0;

  0036f	33 c0		 xor	 eax, eax
  00371	e9 e3 0b 00 00	 jmp	 $LN184@WndProc
$LN68@WndProc:

; 901  : 
; 902  : 
; 903  : 
; 904  : 						//----
; 905  : 
; 906  : 
; 907  : 					}
; 908  : 					break;
; 909  : 				case WM_SECOND_MSG_PROCESS:
; 910  : 					{
; 911  : 						for (int n = 0;n<MAX_NUMBER_MAP;n++)

  00376	be 00 00 00 00	 mov	 esi, OFFSET ?MapC@@3PAVMapClass@@A ; MapC
  0037b	eb 03 8d 49 00	 npad	 5
$LL67@WndProc:

; 912  : 						{
; 913  : 							MapC[n].WeatherVariationProcess();

  00380	8b ce		 mov	 ecx, esi
  00382	e8 00 00 00 00	 call	 ?WeatherVariationProcess@MapClass@@QAEXXZ ; MapClass::WeatherVariationProcess
  00387	81 c6 48 3d 05
	00		 add	 esi, 343368		; 00053d48H
  0038d	81 fe 58 de b2
	01		 cmp	 esi, OFFSET ?MapC@@3PAVMapClass@@A+28499544
  00393	7c eb		 jl	 SHORT $LL67@WndProc

; 914  : 						}
; 915  : 
; 916  : 						wsGServer.m_SendSec = wsGServer.m_SendSecTmp;
; 917  : 						wsGServer.m_RecvSec = wsGServer.m_RecvSecTmp;

  00395	8b 0d 28 00 00
	00		 mov	 ecx, DWORD PTR ?wsGServer@@3VCwsGameServer@@A+40
  0039b	a1 20 00 00 00	 mov	 eax, DWORD PTR ?wsGServer@@3VCwsGameServer@@A+32
  003a0	89 0d 24 00 00
	00		 mov	 DWORD PTR ?wsGServer@@3VCwsGameServer@@A+36, ecx

; 918  : 
; 919  : 						wsGServer.m_SendSecTmp = 0;
; 920  : 						wsGServer.m_RecvSecTmp = 0;
; 921  : 
; 922  : 						DragonEvent->Run();

  003a6	8b 0d 00 00 00
	00		 mov	 ecx, DWORD PTR ?DragonEvent@@3PAVCDragonEvent@@A ; DragonEvent
  003ac	a3 1c 00 00 00	 mov	 DWORD PTR ?wsGServer@@3VCwsGameServer@@A+28, eax
  003b1	c7 05 20 00 00
	00 00 00 00 00	 mov	 DWORD PTR ?wsGServer@@3VCwsGameServer@@A+32, 0
  003bb	c7 05 28 00 00
	00 00 00 00 00	 mov	 DWORD PTR ?wsGServer@@3VCwsGameServer@@A+40, 0
  003c5	e8 00 00 00 00	 call	 ?Run@CDragonEvent@@QAEXXZ ; CDragonEvent::Run

; 923  : 						AttackEvent->Run();

  003ca	8b 0d 00 00 00
	00		 mov	 ecx, DWORD PTR ?AttackEvent@@3PAVCAttackEvent@@A ; AttackEvent
  003d0	e8 00 00 00 00	 call	 ?Run@CAttackEvent@@QAEXXZ ; CAttackEvent::Run

; 924  : 						gEledoradoEvent.Run();

  003d5	b9 00 00 00 00	 mov	 ecx, OFFSET ?gEledoradoEvent@@3VCEledoradoEvent@@A ; gEledoradoEvent
  003da	e8 00 00 00 00	 call	 ?Run@CEledoradoEvent@@QAEXXZ ; CEledoradoEvent::Run

; 925  : 						g_EventManager.Run();

  003df	b9 00 00 00 00	 mov	 ecx, OFFSET ?g_EventManager@@3VCEventManagement@@A ; g_EventManager
  003e4	e8 00 00 00 00	 call	 ?Run@CEventManagement@@QAEXXZ ; CEventManagement::Run

; 926  : 
; 927  : 						HappyHour.Timetick();

  003e9	b9 00 00 00 00	 mov	 ecx, OFFSET ?HappyHour@@3VcHappyHour@@A ; HappyHour
  003ee	e8 00 00 00 00	 call	 ?Timetick@cHappyHour@@QAEXXZ ; cHappyHour::Timetick

; 928  : 						DropEvent.TickTime();

  003f3	b9 00 00 00 00	 mov	 ecx, OFFSET ?DropEvent@@3VcDropEvent@@A ; DropEvent
  003f8	e8 00 00 00 00	 call	 ?TickTime@cDropEvent@@QAEXXZ ; cDropEvent::TickTime

; 929  : 						SearchEvent.StartNPC();

  003fd	b9 00 00 00 00	 mov	 ecx, OFFSET ?SearchEvent@@3VcSearchEvent@@A ; SearchEvent
  00402	e8 00 00 00 00	 call	 ?StartNPC@cSearchEvent@@QAEXXZ ; cSearchEvent::StartNPC

; 930  : 						g_TeleportShop.TickTime();

  00407	b9 00 00 00 00	 mov	 ecx, OFFSET ?g_TeleportShop@@3VTeleportShop@@A ; g_TeleportShop
  0040c	e8 00 00 00 00	 call	 ?TickTime@TeleportShop@@QAEXXZ ; TeleportShop::TickTime

; 931  : 
; 932  : 						if(g_ZtLicense.user.BloodHound)

  00411	80 3d cf 00 00
	00 00		 cmp	 BYTE PTR ?g_ZtLicense@@3VCZtLicense@@A+207, 0
  00418	74 0a		 je	 SHORT $LN64@WndProc

; 933  : 						{
; 934  : 							BloodHound.Times();

  0041a	b9 00 00 00 00	 mov	 ecx, OFFSET ?BloodHound@@3VcBloodHound@@A ; BloodHound
  0041f	e8 00 00 00 00	 call	 ?Times@cBloodHound@@QAEXXZ ; cBloodHound::Times
$LN64@WndProc:

; 935  : 						}
; 936  : 
; 937  : 						if(g_ZtLicense.user.TvTEvent)

  00424	80 3d d1 00 00
	00 00		 cmp	 BYTE PTR ?g_ZtLicense@@3VCZtLicense@@A+209, 0
  0042b	74 0a		 je	 SHORT $LN63@WndProc

; 938  : 						{
; 939  : 							TvT.TickTime();

  0042d	b9 00 00 00 00	 mov	 ecx, OFFSET ?TvT@@3VcTvTEvent@@A ; TvT
  00432	e8 00 00 00 00	 call	 ?TickTime@cTvTEvent@@QAEXXZ ; cTvTEvent::TickTime
$LN63@WndProc:

; 940  : 						}
; 941  : 						if(g_ZtLicense.CheckUser(eZtUB::ulasevich) || g_ZtLicense.CheckUser(eZtUB::Local3) || g_ZtLicense.CheckUser(eZtUB::ulasevich2))

  00437	6a 17		 push	 23			; 00000017H
  00439	b9 00 00 00 00	 mov	 ecx, OFFSET ?g_ZtLicense@@3VCZtLicense@@A ; g_ZtLicense
  0043e	e8 00 00 00 00	 call	 ?CheckUser@CZtLicense@@QAE_NH@Z ; CZtLicense::CheckUser
  00443	84 c0		 test	 al, al
  00445	75 30		 jne	 SHORT $LN61@WndProc
  00447	6a 1c		 push	 28			; 0000001cH
  00449	b9 00 00 00 00	 mov	 ecx, OFFSET ?g_ZtLicense@@3VCZtLicense@@A ; g_ZtLicense
  0044e	e8 00 00 00 00	 call	 ?CheckUser@CZtLicense@@QAE_NH@Z ; CZtLicense::CheckUser
  00453	84 c0		 test	 al, al
  00455	75 20		 jne	 SHORT $LN61@WndProc
  00457	6a 24		 push	 36			; 00000024H
  00459	b9 00 00 00 00	 mov	 ecx, OFFSET ?g_ZtLicense@@3VCZtLicense@@A ; g_ZtLicense
  0045e	e8 00 00 00 00	 call	 ?CheckUser@CZtLicense@@QAE_NH@Z ; CZtLicense::CheckUser
  00463	84 c0		 test	 al, al
  00465	75 10		 jne	 SHORT $LN61@WndProc

; 944  : 						}
; 945  : 						#if(LICENSE_UKRAINE)
; 946  : 						else if(g_ZtLicense.CheckUser(eZtUB::AlterMU))

  00467	6a 3e		 push	 62			; 0000003eH
  00469	b9 00 00 00 00	 mov	 ecx, OFFSET ?g_ZtLicense@@3VCZtLicense@@A ; g_ZtLicense
  0046e	e8 00 00 00 00	 call	 ?CheckUser@CZtLicense@@QAE_NH@Z ; CZtLicense::CheckUser
  00473	84 c0		 test	 al, al
  00475	74 0a		 je	 SHORT $LN59@WndProc
$LN61@WndProc:

; 942  : 						{
; 943  : 							gMonsterSpawner.TickTime();

  00477	b9 00 00 00 00	 mov	 ecx, OFFSET ?gMonsterSpawner@@3VcMonsterSpawner@@A ; gMonsterSpawner
  0047c	e8 00 00 00 00	 call	 ?TickTime@cMonsterSpawner@@QAEXXZ ; cMonsterSpawner::TickTime
$LN59@WndProc:

; 947  : 						{
; 948  : 							gMonsterSpawner.TickTime();
; 949  : 						}						
; 950  : 						#endif
; 951  : 
; 952  : 						AlertSystem.TickTime();

  00481	b9 00 00 00 00	 mov	 ecx, OFFSET ?AlertSystem@@3VcAlertSystem@@A ; AlertSystem
  00486	e8 00 00 00 00	 call	 ?TickTime@cAlertSystem@@QAEXXZ ; cAlertSystem::TickTime

; 953  : 
; 954  : #ifdef LORA_BATTLE_EVENT
; 955  : 						//if(g_ZtLicense.CheckUser(eZtUB::Gredy) || g_ZtLicense.CheckUser(eZtUB::GredyLocal) || g_ZtLicense.CheckUser(eZtUB::Gredy2))
; 956  : 						{
; 957  : 							LoraBattle.TickTime();

  0048b	b9 00 00 00 00	 mov	 ecx, OFFSET ?LoraBattle@@3VcLoraBattle@@A ; LoraBattle
  00490	e8 00 00 00 00	 call	 ?TickTime@cLoraBattle@@QAEXXZ ; cLoraBattle::TickTime

; 958  : 						}
; 959  : #endif // LORA_BATTLE_EVENT
; 960  : #if(EVENT_DEVIASBATTLE)
; 961  : 						if(g_ZtLicense.CheckUser(eZtUB::Gredy) || g_ZtLicense.CheckUser(eZtUB::GredyLocal) || g_ZtLicense.CheckUser(eZtUB::Gredy2))

  00495	6a 20		 push	 32			; 00000020H
  00497	b9 00 00 00 00	 mov	 ecx, OFFSET ?g_ZtLicense@@3VCZtLicense@@A ; g_ZtLicense
  0049c	e8 00 00 00 00	 call	 ?CheckUser@CZtLicense@@QAE_NH@Z ; CZtLicense::CheckUser
  004a1	84 c0		 test	 al, al
  004a3	75 20		 jne	 SHORT $LN57@WndProc
  004a5	6a 21		 push	 33			; 00000021H
  004a7	b9 00 00 00 00	 mov	 ecx, OFFSET ?g_ZtLicense@@3VCZtLicense@@A ; g_ZtLicense
  004ac	e8 00 00 00 00	 call	 ?CheckUser@CZtLicense@@QAE_NH@Z ; CZtLicense::CheckUser
  004b1	84 c0		 test	 al, al
  004b3	75 10		 jne	 SHORT $LN57@WndProc
  004b5	6a 22		 push	 34			; 00000022H
  004b7	b9 00 00 00 00	 mov	 ecx, OFFSET ?g_ZtLicense@@3VCZtLicense@@A ; g_ZtLicense
  004bc	e8 00 00 00 00	 call	 ?CheckUser@CZtLicense@@QAE_NH@Z ; CZtLicense::CheckUser
  004c1	84 c0		 test	 al, al
  004c3	74 0a		 je	 SHORT $LN58@WndProc
$LN57@WndProc:

; 962  : 						{
; 963  : 							g_DeviasBattle.TickTime();

  004c5	b9 00 00 00 00	 mov	 ecx, OFFSET ?g_DeviasBattle@@3VCDeviasBattle@@A ; g_DeviasBattle
  004ca	e8 00 00 00 00	 call	 ?TickTime@CDeviasBattle@@QAEXXZ ; CDeviasBattle::TickTime
$LN58@WndProc:

; 964  : 						}
; 965  : #endif
; 966  : #ifdef PANDORA_EVENT
; 967  : 						if (g_ZtLicense.user.PandoraEvent)

  004cf	80 3d d9 00 00
	00 00		 cmp	 BYTE PTR ?g_ZtLicense@@3VCZtLicense@@A+217, 0
  004d6	74 0a		 je	 SHORT $LN56@WndProc

; 968  : 						{
; 969  : 							gPandoraBoxEvent.TickTime();

  004d8	b9 00 00 00 00	 mov	 ecx, OFFSET ?gPandoraBoxEvent@@3VcPandoraBoxEvent@@A ; gPandoraBoxEvent
  004dd	e8 00 00 00 00	 call	 ?TickTime@cPandoraBoxEvent@@QAEXXZ ; cPandoraBoxEvent::TickTime
$LN56@WndProc:

; 970  : 						}
; 971  : #endif // PANDORA_EVENT
; 972  : 
; 973  : 						if(g_ZtLicense.Exit == TRUE)

  004e2	80 3d 08 00 00
	00 01		 cmp	 BYTE PTR ?g_ZtLicense@@3VCZtLicense@@A+8, 1
  004e9	75 18		 jne	 SHORT $LN54@WndProc

; 974  : 						{
; 975  : 							g_ZtLicense.ExitTime++;

  004eb	a1 0c 00 00 00	 mov	 eax, DWORD PTR ?g_ZtLicense@@3VCZtLicense@@A+12
  004f0	40		 inc	 eax
  004f1	a3 0c 00 00 00	 mov	 DWORD PTR ?g_ZtLicense@@3VCZtLicense@@A+12, eax

; 976  : 							if(g_ZtLicense.ExitTime == 5)

  004f6	83 f8 05	 cmp	 eax, 5
  004f9	75 08		 jne	 SHORT $LN54@WndProc

; 977  : 							{
; 978  : 								ExitProcess(0);

  004fb	6a 00		 push	 0
  004fd	ff 15 00 00 00
	00		 call	 DWORD PTR __imp__ExitProcess@4
$LN237@WndProc:
$LN54@WndProc:

; 979  : 							}
; 980  : 						}
; 981  : 
; 982  : 						g_TimerZt.Run();

  00503	b9 00 00 00 00	 mov	 ecx, OFFSET ?g_TimerZt@@3VCTimerZt@@A ; g_TimerZt
  00508	e8 00 00 00 00	 call	 ?Run@CTimerZt@@QAEXXZ	; CTimerZt::Run

; 983  : 
; 984  : 						#if(DEV_BANSYSTEM)
; 985  : 						g_BanSystem.Run();

  0050d	b9 00 00 00 00	 mov	 ecx, OFFSET ?g_BanSystem@@3VCBanSystem@@A ; g_BanSystem
  00512	e8 00 00 00 00	 call	 ?Run@CBanSystem@@QAEXXZ	; CBanSystem::Run

; 986  : 						#endif
; 987  : 
; 988  : 						#if(EVENT_QUESTIONANSWER)
; 989  : 						g_QuestionAnswer.Run();

  00517	b9 00 00 00 00	 mov	 ecx, OFFSET ?g_QuestionAnswer@@3VCQuestionAnswer@@A ; g_QuestionAnswer
  0051c	e8 00 00 00 00	 call	 ?Run@CQuestionAnswer@@QAEXXZ ; CQuestionAnswer::Run

; 990  : 						#endif
; 991  : 
; 992  : 						#if(DEV_DAMAGE_TABLE)
; 993  : 						g_ZtUser.ResetDamageTable();

  00521	b9 00 00 00 00	 mov	 ecx, OFFSET ?g_ZtUser@@3VZtUser@@A ; g_ZtUser
  00526	e8 00 00 00 00	 call	 ?ResetDamageTable@ZtUser@@QAEXXZ ; ZtUser::ResetDamageTable

; 1278 :    }
; 1279 :    return 0;

  0052b	33 c0		 xor	 eax, eax
  0052d	e9 27 0a 00 00	 jmp	 $LN184@WndProc
$LN189@WndProc:

; 763  : 			break;
; 764  : 		case WM_TIMER:
; 765  : 			switch ( wParam )

  00532	05 17 fc ff ff	 add	 eax, -1001		; fffffc17H
  00537	83 f8 10	 cmp	 eax, 16			; 00000010H
  0053a	0f 87 05 0a 00
	00		 ja	 $LN105@WndProc
  00540	ff 24 85 00 00
	00 00		 jmp	 DWORD PTR $LN234@WndProc[eax*4]
$LN101@WndProc:

; 766  : 			{
; 767  : 				case WM_GUILD_LIST_REQUEST:
; 768  : 					DGGuildListRequest();

  00547	e8 00 00 00 00	 call	 ?DGGuildListRequest@@YAXXZ ; DGGuildListRequest

; 769  : 					KillTimer(ghWnd, WM_GUILD_LIST_REQUEST);

  0054c	8b 15 00 00 00
	00		 mov	 edx, DWORD PTR ?ghWnd@@3PAUHWND__@@A ; ghWnd
  00552	68 f0 03 00 00	 push	 1008			; 000003f0H
  00557	52		 push	 edx
  00558	ff 15 00 00 00
	00		 call	 DWORD PTR __imp__KillTimer@8

; 1278 :    }
; 1279 :    return 0;

  0055e	33 c0		 xor	 eax, eax
  00560	e9 f4 09 00 00	 jmp	 $LN184@WndProc
$LN97@WndProc:

; 795  : 
; 796  : 						#if(ENABLE_OPTIMIZATION)
; 797  : 						g_Optimization.Run();
; 798  : 						#endif
; 799  : 					}
; 800  : 					break;
; 801  : 				case WM_MONSTER_AND_MSG_PROC:
; 802  : 					MonsterAndMsgProc();

  00565	e8 00 00 00 00	 call	 ?MonsterAndMsgProc@@YAXXZ ; MonsterAndMsgProc

; 1278 :    }
; 1279 :    return 0;

  0056a	33 c0		 xor	 eax, eax
  0056c	e9 e8 09 00 00	 jmp	 $LN184@WndProc
$LN96@WndProc:

; 803  : 					break;
; 804  : 				case WM_MOVE_MONSTER_PROC:
; 805  : 					MoveMonsterProc();

  00571	e8 00 00 00 00	 call	 ?MoveMonsterProc@@YAXXZ	; MoveMonsterProc

; 806  : //#if(GS_CASTLE==0)
; 807  : 					g_Kanturu.UserMonsterCountCheck();

  00576	b9 00 00 00 00	 mov	 ecx, OFFSET ?g_Kanturu@@3VCKanturu@@A ; g_Kanturu
  0057b	e8 00 00 00 00	 call	 ?UserMonsterCountCheck@CKanturu@@QAEXXZ ; CKanturu::UserMonsterCountCheck

; 1278 :    }
; 1279 :    return 0;

  00580	33 c0		 xor	 eax, eax
  00582	e9 d2 09 00 00	 jmp	 $LN184@WndProc
$LN95@WndProc:

; 808  : //#endif
; 809  : 					break;
; 810  : 				case WM_EVENT_RUN_PROC:
; 811  : 					g_BloodCastle.Run();

  00587	b9 00 00 00 00	 mov	 ecx, OFFSET ?g_BloodCastle@@3VCBloodCastle@@A ; g_BloodCastle
  0058c	e8 00 00 00 00	 call	 ?Run@CBloodCastle@@QAEXXZ ; CBloodCastle::Run

; 812  : 					g_RingAttackEvent.Run();

  00591	b9 00 00 00 00	 mov	 ecx, OFFSET ?g_RingAttackEvent@@3VCRingAttackEvent@@A ; g_RingAttackEvent
  00596	e8 00 00 00 00	 call	 ?Run@CRingAttackEvent@@QAEXXZ ; CRingAttackEvent::Run

; 813  : 					g_ChaosCastle.Run();

  0059b	b9 00 00 00 00	 mov	 ecx, OFFSET ?g_ChaosCastle@@3VCChaosCastle@@A ; g_ChaosCastle
  005a0	e8 00 00 00 00	 call	 ?Run@CChaosCastle@@QAEXXZ ; CChaosCastle::Run

; 814  : //#if (GS_CASTLE==1)
; 815  : 					g_CastleSiege.Run();

  005a5	b9 00 00 00 00	 mov	 ecx, OFFSET ?g_CastleSiege@@3VCCastleSiege@@A ; g_CastleSiege
  005aa	e8 00 00 00 00	 call	 ?Run@CCastleSiege@@QAEXXZ ; CCastleSiege::Run

; 816  : 					g_CastleDeepEvent.Run();

  005af	b9 00 00 00 00	 mov	 ecx, OFFSET ?g_CastleDeepEvent@@3VCCastleDeepEvent@@A ; g_CastleDeepEvent
  005b4	e8 00 00 00 00	 call	 ?Run@CCastleDeepEvent@@QAEXXZ ; CCastleDeepEvent::Run

; 817  : //#endif
; 818  : 					g_CsNPC_Weapon.WeaponAttackProc();

  005b9	b9 00 00 00 00	 mov	 ecx, OFFSET ?g_CsNPC_Weapon@@3VCWeapon@@A ; g_CsNPC_Weapon
  005be	e8 00 00 00 00	 call	 ?WeaponAttackProc@CWeapon@@QAEXXZ ; CWeapon::WeaponAttackProc

; 819  : //#if (GS_CASTLE==1)
; 820  : 					g_Crywolf.Run();

  005c3	b9 00 00 00 00	 mov	 ecx, OFFSET ?g_Crywolf@@3VCCrywolf@@A ; g_Crywolf
  005c8	e8 00 00 00 00	 call	 ?Run@CCrywolf@@QAEXXZ	; CCrywolf::Run

; 821  : //#else
; 822  : 					g_Kanturu.Run();

  005cd	b9 00 00 00 00	 mov	 ecx, OFFSET ?g_Kanturu@@3VCKanturu@@A ; g_Kanturu
  005d2	e8 00 00 00 00	 call	 ?Run@CKanturu@@QAEXXZ	; CKanturu::Run

; 823  : //#endif
; 824  : #ifdef OLDCASHSHOP
; 825  : 					g_CashShop.CheckShopServerConnectState();
; 826  : #endif
; 827  : 					//gs-cs 56 one new??
; 828  : 					g_IllusionTempleEvent.Run();

  005d7	b9 00 00 00 00	 mov	 ecx, OFFSET ?g_IllusionTempleEvent@@3VCIllusionTempleEvent@@A ; g_IllusionTempleEvent
  005dc	e8 00 00 00 00	 call	 ?Run@CIllusionTempleEvent@@QAEXXZ ; CIllusionTempleEvent::Run

; 829  : 					//season4.5 add-on
; 830  : 					g_Raklion.Run();

  005e1	b9 00 00 00 00	 mov	 ecx, OFFSET ?g_Raklion@@3VCRaklion@@A ; g_Raklion
  005e6	e8 00 00 00 00	 call	 ?Run@CRaklion@@QAEXXZ	; CRaklion::Run

; 831  : 					g_XMasAttackEvent.Run();

  005eb	b9 00 00 00 00	 mov	 ecx, OFFSET ?g_XMasAttackEvent@@3VCXMasAttackEvent@@A ; g_XMasAttackEvent
  005f0	e8 00 00 00 00	 call	 ?Run@CXMasAttackEvent@@QAEXXZ ; CXMasAttackEvent::Run

; 832  : 					g_DuelManager.Run();

  005f5	b9 00 00 00 00	 mov	 ecx, OFFSET ?g_DuelManager@@3VCDuelManager@@A ; g_DuelManager
  005fa	e8 00 00 00 00	 call	 ?Run@CDuelManager@@QAEXXZ ; CDuelManager::Run

; 833  : 					g_DoppelGanger.Run();	//Season 5 DoppelGanger

  005ff	b9 00 00 00 00	 mov	 ecx, OFFSET ?g_DoppelGanger@@3VCDoppelGanger@@A ; g_DoppelGanger
  00604	e8 00 00 00 00	 call	 ?Run@CDoppelGanger@@QAEXXZ ; CDoppelGanger::Run

; 834  : 				
; 835  : #ifdef IMPERIAL_CONFLICT_OLD
; 836  : 					g_Imperial.Run();		//Season 5 ImperialFort

  00609	b9 00 00 00 00	 mov	 ecx, OFFSET ?g_Imperial@@3VCImperial@@A ; g_Imperial
  0060e	e8 00 00 00 00	 call	 ?Run@CImperial@@QAEXXZ	; CImperial::Run

; 837  : #endif
; 838  : #ifdef IMPERIAL_CONFLICT_NEW
; 839  : 	g_ImperialGuardian.Run();
; 840  : #endif
; 841  : #if(EVENT_DUNGEON_SIEGE)
; 842  : 					g_DungeonSiege.Run();

  00613	b9 00 00 00 00	 mov	 ecx, OFFSET ?g_DungeonSiege@@3VCDungeonSiege@@A ; g_DungeonSiege
  00618	e8 00 00 00 00	 call	 ?Run@CDungeonSiege@@QAEXXZ ; CDungeonSiege::Run

; 843  : #endif
; 844  : #if(EVENT_TEAM_VS_TEAM==TRUE)
; 845  : 					g_TeamVsTeam.Run();

  0061d	b9 00 00 00 00	 mov	 ecx, OFFSET ?g_TeamVsTeam@@3VCTeamVsTeam@@A ; g_TeamVsTeam
  00622	e8 00 00 00 00	 call	 ?Run@CTeamVsTeam@@QAEXXZ ; CTeamVsTeam::Run

; 846  : #endif
; 847  : #if(EVENT_CARNAGE)
; 848  : 					g_CarnageEvent.Run();

  00627	b9 00 00 00 00	 mov	 ecx, OFFSET ?g_CarnageEvent@@3VCCarnageEvent@@A ; g_CarnageEvent
  0062c	e8 00 00 00 00	 call	 ?Run@CCarnageEvent@@QAEXXZ ; CCarnageEvent::Run

; 849  : #endif
; 850  : 					#if(DEV_MONSTERTIME)
; 851  : 					g_MonsterTime.Run();

  00631	b9 00 00 00 00	 mov	 ecx, OFFSET ?g_MonsterTime@@3VCMonsterTime@@A ; g_MonsterTime
  00636	e8 00 00 00 00	 call	 ?Run@CMonsterTime@@QAEXXZ ; CMonsterTime::Run

; 1278 :    }
; 1279 :    return 0;

  0063b	33 c0		 xor	 eax, eax
  0063d	e9 17 09 00 00	 jmp	 $LN184@WndProc
$LN94@WndProc:

; 852  : 					#endif
; 853  : 					break;
; 854  : 				case WM_AI_MONSTER_MOVE_PROC:
; 855  : 					TMonsterAI::MonsterMoveProc();

  00642	e8 00 00 00 00	 call	 ?MonsterMoveProc@TMonsterAI@@SAXXZ ; TMonsterAI::MonsterMoveProc

; 1278 :    }
; 1279 :    return 0;

  00647	33 c0		 xor	 eax, eax
  00649	e9 0b 09 00 00	 jmp	 $LN184@WndProc
$LN53@WndProc:

; 994  : 						#endif
; 995  : 					}
; 996  : 					break;
; 997  : 				case WM_GS_CLOSE:
; 998  : 					if ( gCloseMsg != 0 )

  0064e	83 3d 00 00 00
	00 00		 cmp	 DWORD PTR ?gCloseMsg@@3HA, 0 ; gCloseMsg
  00655	0f 84 d9 00 00
	00		 je	 $LN47@WndProc

; 999  : 					{
; 1000 : 						gCloseMsgTime--;

  0065b	8b 0d 00 00 00
	00		 mov	 ecx, DWORD PTR ?gCloseMsgTime@@3HA ; gCloseMsgTime
  00661	49		 dec	 ecx
  00662	89 0d 00 00 00
	00		 mov	 DWORD PTR ?gCloseMsgTime@@3HA, ecx ; gCloseMsgTime

; 1001 : 
; 1002 : 						if ( gCloseMsgTime <= 1 )

  00668	83 f9 01	 cmp	 ecx, 1
  0066b	7f 3b		 jg	 SHORT $LN51@WndProc

; 1003 : 						{
; 1004 : 							if ( gCloseMsgTime == 1 )

  0066d	0f 85 93 00 00
	00		 jne	 $LN48@WndProc

; 1005 : 							{
; 1006 : 								AllSendServerMsg(lMsg.Get(MSGGET(1, 193)));

  00673	68 c1 01 00 00	 push	 449			; 000001c1H
  00678	b9 00 00 00 00	 mov	 ecx, OFFSET ?lMsg@@3VCMsg@@A ; lMsg
  0067d	e8 00 00 00 00	 call	 ?Get@CMsg@@QAEPADH@Z	; CMsg::Get
  00682	50		 push	 eax
  00683	e8 00 00 00 00	 call	 ?AllSendServerMsg@@YAXPAD@Z ; AllSendServerMsg
  00688	83 c4 04	 add	 esp, 4

; 1007 : 								LogAddC(2, lMsg.Get(MSGGET(1, 193)));

  0068b	68 c1 01 00 00	 push	 449			; 000001c1H
  00690	b9 00 00 00 00	 mov	 ecx, OFFSET ?lMsg@@3VCMsg@@A ; lMsg
  00695	e8 00 00 00 00	 call	 ?Get@CMsg@@QAEPADH@Z	; CMsg::Get
  0069a	50		 push	 eax
  0069b	6a 02		 push	 2
  0069d	ff 15 00 00 00
	00		 call	 DWORD PTR ?LogAddC@@3P6AXEPADZZA ; LogAddC
  006a3	83 c4 08	 add	 esp, 8

; 1008 : 							}
; 1009 : 						}
; 1010 : 						else

  006a6	eb 58		 jmp	 SHORT $LN229@WndProc
$LN51@WndProc:

; 1011 : 						{
; 1012 : 							if ( (gCloseMsgTime % 10) == 0 )

  006a8	b8 67 66 66 66	 mov	 eax, 1717986919		; 66666667H
  006ad	f7 e9		 imul	 ecx
  006af	c1 fa 02	 sar	 edx, 2
  006b2	8b c2		 mov	 eax, edx
  006b4	c1 e8 1f	 shr	 eax, 31			; 0000001fH
  006b7	03 c2		 add	 eax, edx
  006b9	8d 04 80	 lea	 eax, DWORD PTR [eax+eax*4]
  006bc	03 c0		 add	 eax, eax
  006be	8b d1		 mov	 edx, ecx
  006c0	2b d0		 sub	 edx, eax
  006c2	75 42		 jne	 SHORT $LN48@WndProc

; 1013 : 							{
; 1014 : 								char szTemp[256];
; 1015 : 
; 1016 : 								wsprintf( szTemp, lMsg.Get(MSGGET(1, 194)), gCloseMsgTime);

  006c4	51		 push	 ecx
  006c5	68 c2 01 00 00	 push	 450			; 000001c2H
  006ca	b9 00 00 00 00	 mov	 ecx, OFFSET ?lMsg@@3VCMsg@@A ; lMsg
  006cf	e8 00 00 00 00	 call	 ?Get@CMsg@@QAEPADH@Z	; CMsg::Get
  006d4	50		 push	 eax
  006d5	8d 85 f0 fe ff
	ff		 lea	 eax, DWORD PTR _szTemp$231763[ebp]
  006db	50		 push	 eax
  006dc	ff 15 00 00 00
	00		 call	 DWORD PTR __imp__wsprintfA

; 1017 : 								AllSendServerMsg(szTemp);

  006e2	8d 8d f0 fe ff
	ff		 lea	 ecx, DWORD PTR _szTemp$231763[ebp]
  006e8	51		 push	 ecx
  006e9	e8 00 00 00 00	 call	 ?AllSendServerMsg@@YAXPAD@Z ; AllSendServerMsg

; 1018 : 								LogAddC(2, szTemp);

  006ee	8d 95 f0 fe ff
	ff		 lea	 edx, DWORD PTR _szTemp$231763[ebp]
  006f4	52		 push	 edx
  006f5	6a 02		 push	 2
  006f7	ff 15 00 00 00
	00		 call	 DWORD PTR ?LogAddC@@3P6AXEPADZZA ; LogAddC
  006fd	83 c4 18	 add	 esp, 24			; 00000018H
$LN229@WndProc:
  00700	8b 0d 00 00 00
	00		 mov	 ecx, DWORD PTR ?gCloseMsgTime@@3HA ; gCloseMsgTime
$LN48@WndProc:

; 1019 : 							}
; 1020 : 						}
; 1021 : 
; 1022 : 						if ( gCloseMsgTime < 0 )

  00706	85 c9		 test	 ecx, ecx
  00708	79 2a		 jns	 SHORT $LN47@WndProc

; 1023 : 						{
; 1024 : 							KillTimer(ghWnd, WM_GS_CLOSE);

  0070a	a1 00 00 00 00	 mov	 eax, DWORD PTR ?ghWnd@@3PAUHWND__@@A ; ghWnd
  0070f	68 ea 03 00 00	 push	 1002			; 000003eaH
  00714	50		 push	 eax
  00715	ff 15 00 00 00
	00		 call	 DWORD PTR __imp__KillTimer@8

; 1025 : 							gObjAllLogOut();

  0071b	e8 00 00 00 00	 call	 ?gObjAllLogOut@@YAXXZ	; gObjAllLogOut

; 1026 : 							gCloseMsgTime = 0;

  00720	c7 05 00 00 00
	00 00 00 00 00	 mov	 DWORD PTR ?gCloseMsgTime@@3HA, 0 ; gCloseMsgTime

; 1027 : 							gCloseMsg = 0;

  0072a	c7 05 00 00 00
	00 00 00 00 00	 mov	 DWORD PTR ?gCloseMsg@@3HA, 0 ; gCloseMsg
$LN47@WndProc:

; 1028 : 						}
; 1029 : 					}
; 1030 : 					gObjSecondProc();

  00734	e8 00 00 00 00	 call	 ?gObjSecondProc@@YAXXZ	; gObjSecondProc

; 1031 : //#if (GS_CASTLE == 1 )
; 1032 : 					if( cDBSMng.GetActiveDS() > DS_UNINITIALIZED && g_CastleSiege.GetDataLoadState() == 2 )

  00739	83 3d 54 00 32
	00 ff		 cmp	 DWORD PTR ?cDBSMng@@3VDBSockMng@@A+3276884, -1
  00740	7e 13		 jle	 SHORT $LN46@WndProc
  00742	83 3d 1c 00 00
	00 02		 cmp	 DWORD PTR ?g_CastleSiege@@3VCCastleSiege@@A+28, 2
  00749	75 0a		 jne	 SHORT $LN46@WndProc

; 1033 : 					{
; 1034 : 						g_CastleSiege.DataRequest();

  0074b	b9 00 00 00 00	 mov	 ecx, OFFSET ?g_CastleSiege@@3VCCastleSiege@@A ; g_CastleSiege
  00750	e8 00 00 00 00	 call	 ?DataRequest@CCastleSiege@@QAEHXZ ; CCastleSiege::DataRequest
$LN46@WndProc:

; 1035 : 					}
; 1036 : 					
; 1037 : 					g_CastleSiege.SendCastleStateSync();

  00755	b9 00 00 00 00	 mov	 ecx, OFFSET ?g_CastleSiege@@3VCCastleSiege@@A ; g_CastleSiege
  0075a	e8 00 00 00 00	 call	 ?SendCastleStateSync@CCastleSiege@@QAEXXZ ; CCastleSiege::SendCastleStateSync

; 1038 : 
; 1039 : //#endif
; 1040 : 					g_CastleSiegeSync.AdjustTributeMoney();

  0075f	b9 00 00 00 00	 mov	 ecx, OFFSET ?g_CastleSiegeSync@@3VCCastleSiegeSync@@A ; g_CastleSiegeSync
  00764	e8 00 00 00 00	 call	 ?AdjustTributeMoney@CCastleSiegeSync@@QAEXXZ ; CCastleSiegeSync::AdjustTributeMoney

; 1041 : //#if(GS_CASTLE == 1)
; 1042 : 					g_Crywolf.CrywolfSecondAct();

  00769	b9 00 00 00 00	 mov	 ecx, OFFSET ?g_Crywolf@@3VCCrywolf@@A ; g_Crywolf
  0076e	e8 00 00 00 00	 call	 ?CrywolfSecondAct@CCrywolf@@QAEXXZ ; CCrywolf::CrywolfSecondAct

; 1043 : //#endif
; 1044 : #ifdef PERIOD
; 1045 : 					g_PeriodItemZt.CheckPeriodData();

  00773	b9 00 00 00 00	 mov	 ecx, OFFSET ?g_PeriodItemZt@@3VCPeriodItemZt@@A ; g_PeriodItemZt
  00778	e8 00 00 00 00	 call	 ?CheckPeriodData@CPeriodItemZt@@QAEXXZ ; CPeriodItemZt::CheckPeriodData

; 1278 :    }
; 1279 :    return 0;

  0077d	33 c0		 xor	 eax, eax
  0077f	e9 d5 07 00 00	 jmp	 $LN184@WndProc
$LN45@WndProc:

; 1046 : #endif
; 1047 : 					break;
; 1048 : 				case WM_SET_DATE:
; 1049 : 					gSetDate();

  00784	e8 00 00 00 00	 call	 ?gSetDate@@YAXXZ	; gSetDate

; 1050 : 					WhisperCash.TimeCheckCashDelete();

  00789	b9 00 00 00 00	 mov	 ecx, OFFSET ?WhisperCash@@3VCWhisperCash@@A ; WhisperCash
  0078e	e8 00 00 00 00	 call	 ?TimeCheckCashDelete@CWhisperCash@@QAEXXZ ; CWhisperCash::TimeCheckCashDelete

; 1278 :    }
; 1279 :    return 0;

  00793	33 c0		 xor	 eax, eax
  00795	e9 bf 07 00 00	 jmp	 $LN184@WndProc
$LN44@WndProc:

; 1051 : 					break;
; 1052 : 				case WM_CONNECT_DATASERVER:
; 1053 : 					cDBSMng.Connect();

  0079a	b9 00 00 00 00	 mov	 ecx, OFFSET ?cDBSMng@@3VDBSockMng@@A ; cDBSMng
  0079f	e8 00 00 00 00	 call	 ?Connect@DBSockMng@@QAEXXZ ; DBSockMng::Connect

; 1054 : 					gObjCheckAllUserDuelStop();

  007a4	e8 00 00 00 00	 call	 ?gObjCheckAllUserDuelStop@@YAXXZ ; gObjCheckAllUserDuelStop

; 1278 :    }
; 1279 :    return 0;

  007a9	33 c0		 xor	 eax, eax
  007ab	e9 a9 07 00 00	 jmp	 $LN184@WndProc
$LN43@WndProc:

; 1055 : 					break;
; 1056 : 				case WM_LOG_DATE_CHANGE:
; 1057 : //#if (GS_CASTLE == 1 )
; 1058 : 					if( LogDateChange() == TRUE )

  007b0	e8 00 00 00 00	 call	 ?LogDateChange@@YAHXZ	; LogDateChange
  007b5	83 f8 01	 cmp	 eax, 1
  007b8	0f 85 87 07 00
	00		 jne	 $LN105@WndProc

; 1059 : 					{
; 1060 : 						g_iCastleItemMixLimit = 1;

  007be	a3 00 00 00 00	 mov	 DWORD PTR ?g_iCastleItemMixLimit@@3HA, eax ; g_iCastleItemMixLimit

; 1278 :    }
; 1279 :    return 0;

  007c3	33 c0		 xor	 eax, eax
  007c5	e9 8f 07 00 00	 jmp	 $LN184@WndProc
$LN41@WndProc:

; 1061 : 					}
; 1062 : //#else
; 1063 : 					//LogDateChange();
; 1064 : //#endif
; 1065 : 					break;
; 1066 : 				case WM_VOTER_PROC:
; 1067 : 					{
; 1068 : #ifdef _VOTER_
; 1069 : 						gVoter.Mootop();

  007ca	b9 00 00 00 00	 mov	 ecx, OFFSET ?gVoter@@3VVoter@@A ; gVoter
  007cf	e8 00 00 00 00	 call	 ?Mootop@Voter@@QAEXXZ	; Voter::Mootop

; 1070 : 						gVoter.Qtop();

  007d4	b9 00 00 00 00	 mov	 ecx, OFFSET ?gVoter@@3VVoter@@A ; gVoter
  007d9	e8 00 00 00 00	 call	 ?Qtop@Voter@@QAEXXZ	; Voter::Qtop

; 1071 : 						gVoter.Anons();

  007de	b9 00 00 00 00	 mov	 ecx, OFFSET ?gVoter@@3VVoter@@A ; gVoter
  007e3	e8 00 00 00 00	 call	 ?Anons@Voter@@QAEXXZ	; Voter::Anons

; 1072 : #endif
; 1073 : 						DeleteLogs();

  007e8	e8 00 00 00 00	 call	 ?DeleteLogs@@YAXXZ	; DeleteLogs

; 1278 :    }
; 1279 :    return 0;

  007ed	33 c0		 xor	 eax, eax
  007ef	e9 65 07 00 00	 jmp	 $LN184@WndProc
$LN40@WndProc:

; 1074 : 						//g_ZtLicense.ReedURLVerisoun();
; 1075 : 					}
; 1076 : 					break;
; 1077 : 				case WM_VOTER_REED:
; 1078 : 					{
; 1079 : #ifdef _VOTER_
; 1080 : 						gVoter.MootopReed();

  007f4	b9 00 00 00 00	 mov	 ecx, OFFSET ?gVoter@@3VVoter@@A ; gVoter
  007f9	e8 00 00 00 00	 call	 ?MootopReed@Voter@@QAEXXZ ; Voter::MootopReed

; 1081 : 						gVoter.QtopReed();

  007fe	b9 00 00 00 00	 mov	 ecx, OFFSET ?gVoter@@3VVoter@@A ; gVoter
  00803	e8 00 00 00 00	 call	 ?QtopReed@Voter@@QAEXXZ	; Voter::QtopReed

; 1082 : 						gVoter.AnonsReed();

  00808	b9 00 00 00 00	 mov	 ecx, OFFSET ?gVoter@@3VVoter@@A ; gVoter
  0080d	e8 00 00 00 00	 call	 ?AnonsReed@Voter@@QAEXXZ ; Voter::AnonsReed

; 1278 :    }
; 1279 :    return 0;

  00812	33 c0		 xor	 eax, eax
  00814	e9 40 07 00 00	 jmp	 $LN184@WndProc
$LN39@WndProc:

; 1083 : #endif
; 1084 : 					}
; 1085 : 					break;
; 1086 : 				case WM_ZT_TIMER_SEC:
; 1087 : 					{
; 1088 : #ifdef NEW_HP_BAR
; 1089 : 						for (int  n=OBJ_STARTUSERINDZT;n<OBJMAX;n++)

  00819	be b0 36 00 00	 mov	 esi, 14000		; 000036b0H
  0081e	8b ff		 npad	 2
$LL38@WndProc:

; 1090 : 						{
; 1091 : 							ZtUserVieweport(n);

  00820	56		 push	 esi
  00821	e8 00 00 00 00	 call	 ?ZtUserVieweport@@YAXH@Z ; ZtUserVieweport
  00826	46		 inc	 esi
  00827	83 c4 04	 add	 esp, 4
  0082a	81 fe 98 3a 00
	00		 cmp	 esi, 15000		; 00003a98H
  00830	7c ee		 jl	 SHORT $LL38@WndProc

; 1092 : 						}
; 1093 : #endif
; 1094 : #if(ENABLR_DEN_DEV)
; 1095 : 						for (int n=OBJ_STARTUSERINDZT;n<OBJMAX;n++)
; 1096 : 						{
; 1097 : 							g_ZtUser.MiniMapSpotProc(n);
; 1098 : 						}
; 1099 : #endif
; 1100 : #ifdef AUTO_PARTY
; 1101 : 						gAutoParty.Work();

  00832	b9 00 00 00 00	 mov	 ecx, OFFSET ?gAutoParty@@3VcAutoParty@@A ; gAutoParty
  00837	e8 00 00 00 00	 call	 ?Work@cAutoParty@@QAEXXZ ; cAutoParty::Work

; 1102 : #endif
; 1103 : #if(CUSTOM_RETURNSPOT==TRUE)
; 1104 : 						g_SpotReturn.StatusTime();
; 1105 : #endif
; 1106 : 						gEventTimer.Client();

  0083c	b9 00 00 00 00	 mov	 ecx, OFFSET ?gEventTimer@@3VcEventTimer@@A ; gEventTimer
  00841	e8 00 00 00 00	 call	 ?Client@cEventTimer@@QAEXXZ ; cEventTimer::Client

; 1107 : 						if(g_ZtLicense.user.Rage)

  00846	80 3d cd 00 00
	00 00		 cmp	 BYTE PTR ?g_ZtLicense@@3VCZtLicense@@A+205, 0
  0084d	74 0a		 je	 SHORT $LN35@WndProc

; 1108 : 						{
; 1109 : 							gSystemOfRage.RageClientSend();

  0084f	b9 00 00 00 00	 mov	 ecx, OFFSET ?gSystemOfRage@@3VcSystemOfRage@@A ; gSystemOfRage
  00854	e8 00 00 00 00	 call	 ?RageClientSend@cSystemOfRage@@QAEXXZ ; cSystemOfRage::RageClientSend
$LN35@WndProc:

; 1110 : 						}
; 1111 : 						#if(CUSTOM_SERVER_TIME)
; 1112 : 						g_ZtUser.GCServerTime();

  00859	b9 00 00 00 00	 mov	 ecx, OFFSET ?g_ZtUser@@3VZtUser@@A ; g_ZtUser
  0085e	e8 00 00 00 00	 call	 ?GCServerTime@ZtUser@@QAEXXZ ; ZtUser::GCServerTime

; 1113 : 						#endif
; 1114 : #if(CUSTOM_ZT_TELEPORT==TRUE)
; 1115 : 						g_ZtTeleport.Timer();

  00863	b9 00 00 00 00	 mov	 ecx, OFFSET ?g_ZtTeleport@@3VZtTeleport@@A ; g_ZtTeleport
  00868	e8 00 00 00 00	 call	 ?Timer@ZtTeleport@@QAEXXZ ; ZtTeleport::Timer

; 1116 : #endif
; 1117 : #if(CUSTOM_ZT_TELEPORT_EVO)
; 1118 : 						g_ZtTeleportEvo.Timer();

  0086d	b9 00 00 00 00	 mov	 ecx, OFFSET ?g_ZtTeleportEvo@@3VZtTeleportEvo@@A ; g_ZtTeleportEvo
  00872	e8 00 00 00 00	 call	 ?Timer@ZtTeleportEvo@@QAEXXZ ; ZtTeleportEvo::Timer

; 1119 : #endif						
; 1120 : 						g_ZtUser.TickCountClientDataSend();

  00877	b9 00 00 00 00	 mov	 ecx, OFFSET ?g_ZtUser@@3VZtUser@@A ; g_ZtUser
  0087c	e8 00 00 00 00	 call	 ?TickCountClientDataSend@ZtUser@@QAEXXZ ; ZtUser::TickCountClientDataSend

; 1121 : #ifdef _VOTER_						
; 1122 : 						gVoter.Run();

  00881	b9 00 00 00 00	 mov	 ecx, OFFSET ?gVoter@@3VVoter@@A ; gVoter
  00886	e8 00 00 00 00	 call	 ?Run@Voter@@QAEXXZ	; Voter::Run

; 1123 : #endif
; 1124 : 						g_ZtUser.PartyMiniMapInfo();

  0088b	b9 00 00 00 00	 mov	 ecx, OFFSET ?g_ZtUser@@3VZtUser@@A ; g_ZtUser
  00890	e8 00 00 00 00	 call	 ?PartyMiniMapInfo@ZtUser@@QAEXXZ ; ZtUser::PartyMiniMapInfo

; 1125 : 
; 1126 : 
; 1127 : 						#if(ENABLE_MINIMAP_ZT)
; 1128 : 						if(g_ZtLicense.user.CustomMiniMapZt)

  00895	80 3d f6 00 00
	00 00		 cmp	 BYTE PTR ?g_ZtLicense@@3VCZtLicense@@A+246, 0
  0089c	74 0a		 je	 SHORT $LN34@WndProc

; 1129 : 						{
; 1130 : 							g_MiniMapZt.Run();

  0089e	b9 00 00 00 00	 mov	 ecx, OFFSET ?g_MiniMapZt@@3VCMiniMapZt@@A ; g_MiniMapZt
  008a3	e8 00 00 00 00	 call	 ?Run@CMiniMapZt@@QAEXXZ	; CMiniMapZt::Run
$LN34@WndProc:

; 1131 : 						}
; 1132 : 						#endif
; 1133 : 
; 1134 : 						#if(ANTI_CHEAT_PLUS && SCANER_ITEM_DUPE)
; 1135 : 						g_AntiCheatPlus.RunItemDupe();

  008a8	b9 00 00 00 00	 mov	 ecx, OFFSET ?g_AntiCheatPlus@@3VAntiCheatPlus@@A ; g_AntiCheatPlus
  008ad	e8 00 00 00 00	 call	 ?RunItemDupe@AntiCheatPlus@@QAEXXZ ; AntiCheatPlus::RunItemDupe

; 1136 : 						#endif
; 1137 : 						#if(WAITENI_CUSTOM)
; 1138 : 						AccountDataReset();

  008b2	e8 00 00 00 00	 call	 ?AccountDataReset@@YAXXZ ; AccountDataReset

; 1278 :    }
; 1279 :    return 0;

  008b7	33 c0		 xor	 eax, eax
  008b9	e9 9b 06 00 00	 jmp	 $LN184@WndProc
$LN33@WndProc:

; 1139 : 						#endif
; 1140 : 						
; 1141 : 					}
; 1142 : 					break;
; 1143 : 				case WM_TIMER_MIN:
; 1144 : 					{
; 1145 : 						gRanking.SendClient();

  008be	b9 00 00 00 00	 mov	 ecx, OFFSET ?gRanking@@3VcRanking@@A ; gRanking
  008c3	e8 00 00 00 00	 call	 ?SendClient@cRanking@@QAEXXZ ; cRanking::SendClient

; 1278 :    }
; 1279 :    return 0;

  008c8	33 c0		 xor	 eax, eax
  008ca	e9 8a 06 00 00	 jmp	 $LN184@WndProc
$LN32@WndProc:

; 1146 : 					}
; 1147 : 					break;
; 1148 : 				case WM_TIMER_10MIN:
; 1149 : 					{
; 1150 : 						gRanking.SendDS();

  008cf	b9 00 00 00 00	 mov	 ecx, OFFSET ?gRanking@@3VcRanking@@A ; gRanking
  008d4	e8 00 00 00 00	 call	 ?SendDS@cRanking@@QAEXXZ ; cRanking::SendDS

; 1278 :    }
; 1279 :    return 0;

  008d9	33 c0		 xor	 eax, eax
  008db	e9 79 06 00 00	 jmp	 $LN184@WndProc
$LN31@WndProc:

; 1151 : 					}
; 1152 : 					break;
; 1153 : 				case WM_ZT_TIMER_500MC:
; 1154 : 					{
; 1155 : #if(OFFLINE_MODE==TRUE)
; 1156 : 						for ( int n= OBJ_STARTUSERINDZT;n<OBJMAX;n++)

  008e0	be b0 36 00 00	 mov	 esi, 14000		; 000036b0H
$LL30@WndProc:

; 1157 : 						{
; 1158 : 							g_OfflineMode.Attack(n);

  008e5	56		 push	 esi
  008e6	b9 00 00 00 00	 mov	 ecx, OFFSET ?g_OfflineMode@@3VOfflineMode@@A ; g_OfflineMode
  008eb	e8 00 00 00 00	 call	 ?Attack@OfflineMode@@QAEXH@Z ; OfflineMode::Attack
  008f0	46		 inc	 esi
  008f1	81 fe 98 3a 00
	00		 cmp	 esi, 15000		; 00003a98H
  008f7	7c ec		 jl	 SHORT $LL30@WndProc

; 1278 :    }
; 1279 :    return 0;

  008f9	33 c0		 xor	 eax, eax
  008fb	e9 59 06 00 00	 jmp	 $LN184@WndProc
$LN27@WndProc:

; 1159 : 						}
; 1160 : #endif
; 1161 : 					}
; 1162 : 					break;
; 1163 : 				case WM_ZT_TIMER_100MC:
; 1164 : 					{
; 1165 : #if(_RECONNECT_)
; 1166 : 						g_ConnectZt.Timer();

  00900	b9 00 00 00 00	 mov	 ecx, OFFSET ?g_ConnectZt@@3VConnectZt@@A ; g_ConnectZt
  00905	e8 00 00 00 00	 call	 ?Timer@ConnectZt@@QAEXXZ ; ConnectZt::Timer

; 1167 : #endif
; 1168 : 						g_ZtUser.AutoHPClick();

  0090a	b9 00 00 00 00	 mov	 ecx, OFFSET ?g_ZtUser@@3VZtUser@@A ; g_ZtUser
  0090f	e8 00 00 00 00	 call	 ?AutoHPClick@ZtUser@@QAEXXZ ; ZtUser::AutoHPClick

; 1169 : 
; 1170 : 						#if(ENABLE_CAMERA_PARTY)
; 1171 : 						for ( int n= OBJ_STARTUSERINDZT;n<OBJMAX;n++)

  00914	bf b0 36 00 00	 mov	 edi, 14000		; 000036b0H
  00919	be 00 a7 40 09	 mov	 esi, 155232000		; 0940a700H
  0091e	8b ff		 npad	 2
$LL26@WndProc:

; 1172 : 						{
; 1173 : 							LPOBJ lpObj = &gObj[n];
; 1174 : 
; 1175 : 							if(lpObj->Connected < PLAYER_PLAYING)

  00920	8b 0d 00 00 00
	00		 mov	 ecx, DWORD PTR ?gObj@@3PAUOBJECTSTRUCT@@A ; gObj
  00926	83 7c 0e 04 03	 cmp	 DWORD PTR [esi+ecx+4], 3
  0092b	7c 0b		 jl	 SHORT $LN25@WndProc

; 1176 : 							{
; 1177 : 								continue;
; 1178 : 							}
; 1179 : 
; 1180 : 							g_CameraParty.Move(n);

  0092d	57		 push	 edi
  0092e	b9 00 00 00 00	 mov	 ecx, OFFSET ?g_CameraParty@@3VCCameraParty@@A ; g_CameraParty
  00933	e8 00 00 00 00	 call	 ?Move@CCameraParty@@QAEXH@Z ; CCameraParty::Move
$LN25@WndProc:

; 1169 : 
; 1170 : 						#if(ENABLE_CAMERA_PARTY)
; 1171 : 						for ( int n= OBJ_STARTUSERINDZT;n<OBJMAX;n++)

  00938	81 c6 50 2b 00
	00		 add	 esi, 11088		; 00002b50H
  0093e	47		 inc	 edi
  0093f	81 fe 80 d7 e9
	09		 cmp	 esi, 166320000		; 09e9d780H
  00945	7c d9		 jl	 SHORT $LL26@WndProc

; 1278 :    }
; 1279 :    return 0;

  00947	33 c0		 xor	 eax, eax
  00949	e9 0b 06 00 00	 jmp	 $LN184@WndProc
$LN180@WndProc:

; 521  : 		case WM_COMMAND:
; 522  : 			wmId    = wParam & 0xFFFF & 0xFFFF; 

  0094e	8b 4d 10	 mov	 ecx, DWORD PTR _wParam$[ebp]
  00951	8b c1		 mov	 eax, ecx
  00953	25 ff ff 00 00	 and	 eax, 65535		; 0000ffffH

; 523  : 			wmEvent = (wParam >> 16) & 0xFFFF; 
; 524  : 					
; 525  : 			switch (wmId)

  00958	3d 04 80 00 00	 cmp	 eax, 32772		; 00008004H
  0095d	7f 4a		 jg	 SHORT $LN188@WndProc
  0095f	74 3c		 je	 SHORT $LN172@WndProc
  00961	83 e8 68	 sub	 eax, 104		; 00000068H
  00964	74 19		 je	 SHORT $LN177@WndProc
  00966	48		 dec	 eax
  00967	0f 85 f4 04 00
	00		 jne	 $LN115@WndProc

; 529  : 				   break;
; 530  : 				case IDM_EXIT:
; 531  : 				   SendMessage(hWnd, WM_CLOSE, 0, 0);

  0096d	50		 push	 eax
  0096e	50		 push	 eax
  0096f	6a 10		 push	 16			; 00000010H
  00971	57		 push	 edi
  00972	ff 15 00 00 00
	00		 call	 DWORD PTR __imp__SendMessageA@16

; 1278 :    }
; 1279 :    return 0;

  00978	33 c0		 xor	 eax, eax
  0097a	e9 da 05 00 00	 jmp	 $LN184@WndProc
$LN177@WndProc:

; 526  : 			{
; 527  : 				case IDM_ABOUT:
; 528  : 				   DialogBox(hInst, (LPCTSTR)IDD_ABOUT_BOX, hWnd, (DLGPROC)About);

  0097f	8b 15 00 00 00
	00		 mov	 edx, DWORD PTR ?hInst@@3PAUHINSTANCE__@@A ; hInst
  00985	6a 00		 push	 0
  00987	68 00 00 00 00	 push	 OFFSET ?About@@YGJPAUHWND__@@IIJ@Z ; About
  0098c	57		 push	 edi
  0098d	6a 67		 push	 103			; 00000067H
  0098f	52		 push	 edx
  00990	ff 15 00 00 00
	00		 call	 DWORD PTR __imp__DialogBoxParamA@20

; 1278 :    }
; 1279 :    return 0;

  00996	33 c0		 xor	 eax, eax
  00998	e9 bc 05 00 00	 jmp	 $LN184@WndProc
$LN172@WndProc:

; 545  : 					break;
; 546  : 				case IDM_MONSTER_POSITION_RELOAD:
; 547  : 					GameMonsterAllCloseAndReLoad();

  0099d	e8 00 00 00 00	 call	 ?GameMonsterAllCloseAndReLoad@@YAXXZ ; GameMonsterAllCloseAndReLoad

; 1278 :    }
; 1279 :    return 0;

  009a2	33 c0		 xor	 eax, eax
  009a4	e9 b0 05 00 00	 jmp	 $LN184@WndProc
$LN188@WndProc:

; 523  : 			wmEvent = (wParam >> 16) & 0xFFFF; 
; 524  : 					
; 525  : 			switch (wmId)

  009a9	2d 05 80 00 00	 sub	 eax, 32773		; 00008005H
  009ae	83 f8 37	 cmp	 eax, 55			; 00000037H
  009b1	0f 87 aa 04 00
	00		 ja	 $LN115@WndProc
  009b7	ff 24 85 00 00
	00 00		 jmp	 DWORD PTR $LN235@WndProc[eax*4]
$LN175@WndProc:

; 532  : 				   break;
; 533  : 				case IDM_CLOSE_PLAYER:
; 534  : 					{
; 535  : 						Ccloseplayer closeplayer;

  009be	8d 8d cc fe ff
	ff		 lea	 ecx, DWORD PTR _closeplayer$231612[ebp]
  009c4	e8 00 00 00 00	 call	 ??0Ccloseplayer@@QAE@XZ	; Ccloseplayer::Ccloseplayer

; 536  : 						closeplayer.Load("closeplayer.txt");

  009c9	68 00 00 00 00	 push	 OFFSET ??_C@_0BA@LAAHBEDI@closeplayer?4txt?$AA@
  009ce	8d 8d cc fe ff
	ff		 lea	 ecx, DWORD PTR _closeplayer$231612[ebp]
  009d4	c7 45 fc 00 00
	00 00		 mov	 DWORD PTR __$EHRec$[ebp+8], 0
  009db	e8 00 00 00 00	 call	 ?Load@Ccloseplayer@@QAEXPAD@Z ; Ccloseplayer::Load

; 537  : 					}

  009e0	8d 8d cc fe ff
	ff		 lea	 ecx, DWORD PTR _closeplayer$231612[ebp]
  009e6	c7 45 fc ff ff
	ff ff		 mov	 DWORD PTR __$EHRec$[ebp+8], -1
  009ed	e8 00 00 00 00	 call	 ??1Ccloseplayer@@UAE@XZ	; Ccloseplayer::~Ccloseplayer

; 1278 :    }
; 1279 :    return 0;

  009f2	33 c0		 xor	 eax, eax
  009f4	e9 60 05 00 00	 jmp	 $LN184@WndProc
$LN174@WndProc:

; 538  : 					break;
; 539  : 				case IDM_ALL_USER_CLOSE:
; 540  : 				//case 32822:
; 541  : 					gObjAllDisconnect();

  009f9	e8 00 00 00 00	 call	 ?gObjAllDisconnect@@YAXXZ ; gObjAllDisconnect

; 1278 :    }
; 1279 :    return 0;

  009fe	33 c0		 xor	 eax, eax
  00a00	e9 54 05 00 00	 jmp	 $LN184@WndProc
$LN173@WndProc:

; 542  : 					break;
; 543  : 				case IDM_ALL_USER_LOGOUT:
; 544  : 					gObjAllLogOut();

  00a05	e8 00 00 00 00	 call	 ?gObjAllLogOut@@YAXXZ	; gObjAllLogOut

; 1278 :    }
; 1279 :    return 0;

  00a0a	33 c0		 xor	 eax, eax
  00a0c	e9 48 05 00 00	 jmp	 $LN184@WndProc
$LN171@WndProc:

; 548  : 					break;
; 549  : 				case IDM_SHOP_RELOAD:
; 550  : 					ShopDataLoad();

  00a11	e8 00 00 00 00	 call	 ?ShopDataLoad@@YAHXZ	; ShopDataLoad

; 1278 :    }
; 1279 :    return 0;

  00a16	33 c0		 xor	 eax, eax
  00a18	e9 3c 05 00 00	 jmp	 $LN184@WndProc
$LN170@WndProc:

; 551  : 					break;
; 552  : 				case IDM_MAP_SERVER_INFO_RELOAD:
; 553  : 					g_MapServerManager.LoadData(gDirPath.GetNewPath("Other\\MapServerInfo.dat") );

  00a1d	68 00 00 00 00	 push	 OFFSET ??_C@_0BI@GIPPDGKI@Other?2MapServerInfo?4dat?$AA@
  00a22	b9 00 00 00 00	 mov	 ecx, OFFSET ?gDirPath@@3VCDirPath@@A ; gDirPath
  00a27	e8 00 00 00 00	 call	 ?GetNewPath@CDirPath@@QAEPADPAD@Z ; CDirPath::GetNewPath
  00a2c	50		 push	 eax
  00a2d	b9 00 00 00 00	 mov	 ecx, OFFSET ?g_MapServerManager@@3VCMapServerManager@@A ; g_MapServerManager
  00a32	e8 00 00 00 00	 call	 ?LoadData@CMapServerManager@@QAEHPAD@Z ; CMapServerManager::LoadData

; 1278 :    }
; 1279 :    return 0;

  00a37	33 c0		 xor	 eax, eax
  00a39	e9 1b 05 00 00	 jmp	 $LN184@WndProc
$LN169@WndProc:

; 554  : 					break;
; 555  : //#if(GS_CASTLE==1)					
; 556  : 				case IDM_CASTLE_SIEGE_RELOAD: //GS-CS Decompiled 100%
; 557  : 					if( g_CastleSiege.Ready(g_MapServerManager.GetMapSvrGroup()) == TRUE )

  00a3e	a1 c0 32 01 00	 mov	 eax, DWORD PTR ?g_MapServerManager@@3VCMapServerManager@@A+78528
  00a43	85 c0		 test	 eax, eax
  00a45	74 06		 je	 SHORT $LN193@WndProc
  00a47	0f b6 40 08	 movzx	 eax, BYTE PTR [eax+8]
  00a4b	eb 03		 jmp	 SHORT $LN194@WndProc
$LN193@WndProc:
  00a4d	83 c8 ff	 or	 eax, -1
$LN194@WndProc:
  00a50	50		 push	 eax
  00a51	b9 00 00 00 00	 mov	 ecx, OFFSET ?g_CastleSiege@@3VCCastleSiege@@A ; g_CastleSiege
  00a56	e8 00 00 00 00	 call	 ?Ready@CCastleSiege@@QAEHH@Z ; CCastleSiege::Ready
  00a5b	83 f8 01	 cmp	 eax, 1
  00a5e	0f 85 e1 04 00
	00		 jne	 $LN105@WndProc

; 558  : 					{
; 559  : 						if( g_CastleSiege.LoadData(gDirPath.GetNewPath(".\\Events\\MuCastleData.dat")) )

  00a64	68 00 00 00 00	 push	 OFFSET ??_C@_0BK@COKJOEKN@?4?2Events?2MuCastleData?4dat?$AA@
  00a69	b9 00 00 00 00	 mov	 ecx, OFFSET ?gDirPath@@3VCDirPath@@A ; gDirPath
  00a6e	e8 00 00 00 00	 call	 ?GetNewPath@CDirPath@@QAEPADPAD@Z ; CDirPath::GetNewPath
  00a73	50		 push	 eax
  00a74	b9 00 00 00 00	 mov	 ecx, OFFSET ?g_CastleSiege@@3VCCastleSiege@@A ; g_CastleSiege
  00a79	e8 00 00 00 00	 call	 ?LoadData@CCastleSiege@@QAEHPAD@Z ; CCastleSiege::LoadData
  00a7e	85 c0		 test	 eax, eax
  00a80	0f 84 bf 04 00
	00		 je	 $LN105@WndProc

; 560  : 						{
; 561  : 							g_CastleSiege.LoadPreFixData(gDirPath.GetNewPath("commonserver.cfg"));

  00a86	68 00 00 00 00	 push	 OFFSET ??_C@_0BB@IGLHFEOF@commonserver?4cfg?$AA@
  00a8b	b9 00 00 00 00	 mov	 ecx, OFFSET ?gDirPath@@3VCDirPath@@A ; gDirPath
  00a90	e8 00 00 00 00	 call	 ?GetNewPath@CDirPath@@QAEPADPAD@Z ; CDirPath::GetNewPath
  00a95	50		 push	 eax
  00a96	b9 00 00 00 00	 mov	 ecx, OFFSET ?g_CastleSiege@@3VCCastleSiege@@A ; g_CastleSiege
  00a9b	e8 00 00 00 00	 call	 ?LoadPreFixData@CCastleSiege@@QAEHPAD@Z ; CCastleSiege::LoadPreFixData

; 562  : 							g_CastleSiege.SetDataLoadState(CASTLESIEGE_DATALOAD_2);

  00aa0	c7 05 1c 00 00
	00 02 00 00 00	 mov	 DWORD PTR ?g_CastleSiege@@3VCCastleSiege@@A+28, 2

; 1278 :    }
; 1279 :    return 0;

  00aaa	33 c0		 xor	 eax, eax
  00aac	e9 a8 04 00 00	 jmp	 $LN184@WndProc
$LN166@WndProc:

; 563  : 						}
; 564  : 					}
; 565  : 					break;
; 566  : //#endif
; 567  : 				case IDM_IP_LOAD:
; 568  : 					acceptIP.Load(gDirPath.GetNewPath("Iplist.dat"));

  00ab1	68 00 00 00 00	 push	 OFFSET ??_C@_0L@DPAHEMHE@Iplist?4dat?$AA@
  00ab6	b9 00 00 00 00	 mov	 ecx, OFFSET ?gDirPath@@3VCDirPath@@A ; gDirPath
  00abb	e8 00 00 00 00	 call	 ?GetNewPath@CDirPath@@QAEPADPAD@Z ; CDirPath::GetNewPath
  00ac0	50		 push	 eax
  00ac1	b9 00 00 00 00	 mov	 ecx, OFFSET ?acceptIP@@3VCAcceptIp@@A ; acceptIP
  00ac6	e8 00 00 00 00	 call	 ?Load@CAcceptIp@@QAEXPAD@Z ; CAcceptIp::Load

; 1278 :    }
; 1279 :    return 0;

  00acb	33 c0		 xor	 eax, eax
  00acd	e9 87 04 00 00	 jmp	 $LN184@WndProc
$LN165@WndProc:

; 569  : 					break;
; 570  : 				case IDM_OPTION_RELOAD:
; 571  : 					ReadCommonServerInfo();

  00ad2	e8 00 00 00 00	 call	 ?ReadCommonServerInfo@@YAXXZ ; ReadCommonServerInfo

; 1278 :    }
; 1279 :    return 0;

  00ad7	33 c0		 xor	 eax, eax
  00ad9	e9 7b 04 00 00	 jmp	 $LN184@WndProc
$LN163@WndProc:

; 572  : 					break;
; 573  : 				case IDM_CASHSHOP_OPTION_RELOAD:
; 574  : #ifdef OLDCASHSHOP
; 575  : 					g_CashShop.CashShopOptioNReload();
; 576  : #endif
; 577  : 					break;
; 578  : 				case IDM_LOG_PAINT:
; 579  : 					gCurPaintType=0;

  00ade	c7 05 00 00 00
	00 00 00 00 00	 mov	 DWORD PTR ?gCurPaintType@@3HA, 0 ; gCurPaintType

; 1278 :    }
; 1279 :    return 0;

  00ae8	33 c0		 xor	 eax, eax
  00aea	e9 6a 04 00 00	 jmp	 $LN184@WndProc
$LN162@WndProc:

; 580  : 					break;
; 581  : //#if(GS_CASTLE==1)
; 582  : 				case IDM_LOG_CASTLESIEGE:
; 583  : 					SendMessage(GetDlgItem(g_hCsLogDlgProc,	IDE_EDIT_LOG), LB_ADDSTRING, 0, (rand() % 2) ? (LONG)"HELLO WORLD" : (LONG)"咳衬");

  00aef	e8 00 00 00 00	 call	 _rand
  00af4	25 01 00 00 80	 and	 eax, -2147483647	; 80000001H
  00af9	79 05		 jns	 SHORT $LN227@WndProc
  00afb	48		 dec	 eax
  00afc	83 c8 fe	 or	 eax, -2			; fffffffeH
  00aff	40		 inc	 eax
$LN227@WndProc:
  00b00	b8 00 00 00 00	 mov	 eax, OFFSET ??_C@_0M@NBMDHNII@HELLO?5WORLD?$AA@
  00b05	75 05		 jne	 SHORT $LN187@WndProc
  00b07	b8 00 00 00 00	 mov	 eax, OFFSET ??_C@_04HADNADMN@?$LP?H?$LD?D?$AA@
$LN187@WndProc:
  00b0c	50		 push	 eax
  00b0d	a1 00 00 00 00	 mov	 eax, DWORD PTR ?g_hCsLogDlgProc@@3PAUHWND__@@A ; g_hCsLogDlgProc
  00b12	6a 00		 push	 0
  00b14	68 80 01 00 00	 push	 384			; 00000180H
  00b19	68 eb 03 00 00	 push	 1003			; 000003ebH
  00b1e	50		 push	 eax
  00b1f	ff 15 00 00 00
	00		 call	 DWORD PTR __imp__GetDlgItem@8
  00b25	50		 push	 eax
  00b26	ff 15 00 00 00
	00		 call	 DWORD PTR __imp__SendMessageA@16

; 584  : 					ShowWindow(g_hCsLogDlgProc, SW_SHOWNORMAL);

  00b2c	8b 0d 00 00 00
	00		 mov	 ecx, DWORD PTR ?g_hCsLogDlgProc@@3PAUHWND__@@A ; g_hCsLogDlgProc
  00b32	6a 01		 push	 1
  00b34	51		 push	 ecx
  00b35	ff 15 00 00 00
	00		 call	 DWORD PTR __imp__ShowWindow@8

; 1278 :    }
; 1279 :    return 0;

  00b3b	33 c0		 xor	 eax, eax
  00b3d	e9 17 04 00 00	 jmp	 $LN184@WndProc
$LN161@WndProc:

; 585  : 					break;
; 586  : //#endif
; 587  : 				case IDM_MAP1:
; 588  : 					gCurPaintMapNumber = 0;	// Lorencia

  00b42	c7 05 00 00 00
	00 00 00 00 00	 mov	 DWORD PTR ?gCurPaintMapNumber@@3HA, 0 ; gCurPaintMapNumber

; 589  : 					gCurPaintType=1;

  00b4c	c7 05 00 00 00
	00 01 00 00 00	 mov	 DWORD PTR ?gCurPaintType@@3HA, 1 ; gCurPaintType

; 1278 :    }
; 1279 :    return 0;

  00b56	33 c0		 xor	 eax, eax
  00b58	e9 fc 03 00 00	 jmp	 $LN184@WndProc
$LN160@WndProc:

; 590  : 					break;
; 591  : 				case IDM_MAP2:
; 592  : 					gCurPaintType=1;

  00b5d	b8 01 00 00 00	 mov	 eax, 1
  00b62	a3 00 00 00 00	 mov	 DWORD PTR ?gCurPaintType@@3HA, eax ; gCurPaintType

; 593  : 					gCurPaintMapNumber = 1;	// Dungeon

  00b67	a3 00 00 00 00	 mov	 DWORD PTR ?gCurPaintMapNumber@@3HA, eax ; gCurPaintMapNumber

; 1278 :    }
; 1279 :    return 0;

  00b6c	33 c0		 xor	 eax, eax
  00b6e	e9 e6 03 00 00	 jmp	 $LN184@WndProc
$LN159@WndProc:

; 594  : 					break;
; 595  : 				case IDM_MAP3:
; 596  : 					gCurPaintType=1;

  00b73	c7 05 00 00 00
	00 01 00 00 00	 mov	 DWORD PTR ?gCurPaintType@@3HA, 1 ; gCurPaintType

; 597  : 					gCurPaintMapNumber = 2;	// Devias

  00b7d	c7 05 00 00 00
	00 02 00 00 00	 mov	 DWORD PTR ?gCurPaintMapNumber@@3HA, 2 ; gCurPaintMapNumber

; 1278 :    }
; 1279 :    return 0;

  00b87	33 c0		 xor	 eax, eax
  00b89	e9 cb 03 00 00	 jmp	 $LN184@WndProc
$LN158@WndProc:

; 598  : 					break;
; 599  : 				case IDM_MAP4:
; 600  : 					gCurPaintType=1;

  00b8e	c7 05 00 00 00
	00 01 00 00 00	 mov	 DWORD PTR ?gCurPaintType@@3HA, 1 ; gCurPaintType

; 601  : 					gCurPaintMapNumber = 3;	// Noria

  00b98	c7 05 00 00 00
	00 03 00 00 00	 mov	 DWORD PTR ?gCurPaintMapNumber@@3HA, 3 ; gCurPaintMapNumber

; 1278 :    }
; 1279 :    return 0;

  00ba2	33 c0		 xor	 eax, eax
  00ba4	e9 b0 03 00 00	 jmp	 $LN184@WndProc
$LN157@WndProc:

; 602  : 					break;
; 603  : 				case IDM_CRYWOLF:
; 604  : 					gCurPaintType=1;

  00ba9	c7 05 00 00 00
	00 01 00 00 00	 mov	 DWORD PTR ?gCurPaintType@@3HA, 1 ; gCurPaintType

; 605  : 					gCurPaintMapNumber = 34;	// Crywolf

  00bb3	c7 05 00 00 00
	00 22 00 00 00	 mov	 DWORD PTR ?gCurPaintMapNumber@@3HA, 34 ; gCurPaintMapNumber, 00000022H

; 1278 :    }
; 1279 :    return 0;

  00bbd	33 c0		 xor	 eax, eax
  00bbf	e9 95 03 00 00	 jmp	 $LN184@WndProc
$LN156@WndProc:

; 606  : 					break;
; 607  : 				case IDM_DRAGON_EVENT:
; 608  : 					if (  DragonEvent->GetState() != 0 )

  00bc4	8b 0d 00 00 00
	00		 mov	 ecx, DWORD PTR ?DragonEvent@@3PAVCDragonEvent@@A ; DragonEvent
  00bca	80 79 04 00	 cmp	 BYTE PTR [ecx+4], 0
  00bce	74 0c		 je	 SHORT $LN155@WndProc

; 609  : 						DragonEvent->End();

  00bd0	e8 00 00 00 00	 call	 ?End@CDragonEvent@@QAEXXZ ; CDragonEvent::End

; 1278 :    }
; 1279 :    return 0;

  00bd5	33 c0		 xor	 eax, eax
  00bd7	e9 7d 03 00 00	 jmp	 $LN184@WndProc
$LN155@WndProc:

; 610  : 					else
; 611  : 						DragonEvent->Start();

  00bdc	e8 00 00 00 00	 call	 ?Start@CDragonEvent@@QAEXXZ ; CDragonEvent::Start

; 1278 :    }
; 1279 :    return 0;

  00be1	33 c0		 xor	 eax, eax
  00be3	e9 71 03 00 00	 jmp	 $LN184@WndProc
$LN153@WndProc:

; 612  : 					break;
; 613  : 				case IDM_STARTOFXMAS_EVENT:
; 614  : 					if ( gXMasEvent != 0 )

  00be8	33 d2		 xor	 edx, edx
  00bea	39 15 00 00 00
	00		 cmp	 DWORD PTR ?gXMasEvent@@3HA, edx ; gXMasEvent
  00bf0	0f 94 c2	 sete	 dl

; 1278 :    }
; 1279 :    return 0;

  00bf3	33 c0		 xor	 eax, eax
  00bf5	89 15 00 00 00
	00		 mov	 DWORD PTR ?gXMasEvent@@3HA, edx ; gXMasEvent
  00bfb	e9 59 03 00 00	 jmp	 $LN184@WndProc
$LN150@WndProc:

; 615  : 						gXMasEvent = 0;
; 616  : 					else
; 617  : 						gXMasEvent=1;
; 618  : 					break;
; 619  : 				case IDM_FIRECRACKER:
; 620  : 					if ( gFireCrackerEvent != 0 )

  00c00	33 c0		 xor	 eax, eax
  00c02	39 05 00 00 00
	00		 cmp	 DWORD PTR ?gFireCrackerEvent@@3HA, eax ; gFireCrackerEvent
  00c08	0f 94 c0	 sete	 al
  00c0b	a3 00 00 00 00	 mov	 DWORD PTR ?gFireCrackerEvent@@3HA, eax ; gFireCrackerEvent

; 1278 :    }
; 1279 :    return 0;

  00c10	33 c0		 xor	 eax, eax
  00c12	e9 42 03 00 00	 jmp	 $LN184@WndProc
$LN147@WndProc:

; 621  : 						gFireCrackerEvent = 0;
; 622  : 					else
; 623  : 						gFireCrackerEvent=1;
; 624  : 					break;
; 625  : 				case IDM_5_MINUTE_CLOSE:
; 626  : 					if ( gCloseMsg == 0 )

  00c17	83 3d 00 00 00
	00 00		 cmp	 DWORD PTR ?gCloseMsg@@3HA, 0 ; gCloseMsg
  00c1e	0f 85 21 03 00
	00		 jne	 $LN105@WndProc

; 627  : 					{
; 628  : 						gCloseMsgTime = 300;

  00c24	c7 05 00 00 00
	00 2c 01 00 00	 mov	 DWORD PTR ?gCloseMsgTime@@3HA, 300 ; gCloseMsgTime, 0000012cH

; 629  : 						gCloseMsg=1;

  00c2e	c7 05 00 00 00
	00 01 00 00 00	 mov	 DWORD PTR ?gCloseMsg@@3HA, 1 ; gCloseMsg

; 630  : 						AllSendServerMsg( lMsg.Get(MSGGET(4, 104)) );

  00c38	68 68 04 00 00	 push	 1128			; 00000468H
$LN231@WndProc:
  00c3d	b9 00 00 00 00	 mov	 ecx, OFFSET ?lMsg@@3VCMsg@@A ; lMsg
  00c42	e8 00 00 00 00	 call	 ?Get@CMsg@@QAEPADH@Z	; CMsg::Get
  00c47	50		 push	 eax
  00c48	e8 00 00 00 00	 call	 ?AllSendServerMsg@@YAXPAD@Z ; AllSendServerMsg
  00c4d	83 c4 04	 add	 esp, 4

; 1278 :    }
; 1279 :    return 0;

  00c50	33 c0		 xor	 eax, eax
  00c52	e9 02 03 00 00	 jmp	 $LN184@WndProc
$LN145@WndProc:

; 631  : 					}
; 632  : 					break;
; 633  : 				case IDM_3_MINUTE_CLOSE:
; 634  : 					if ( gCloseMsg == 0 )

  00c57	83 3d 00 00 00
	00 00		 cmp	 DWORD PTR ?gCloseMsg@@3HA, 0 ; gCloseMsg
  00c5e	0f 85 e1 02 00
	00		 jne	 $LN105@WndProc

; 635  : 					{
; 636  : 						gCloseMsgTime = 180;

  00c64	c7 05 00 00 00
	00 b4 00 00 00	 mov	 DWORD PTR ?gCloseMsgTime@@3HA, 180 ; gCloseMsgTime, 000000b4H

; 637  : 						gCloseMsg=2;

  00c6e	c7 05 00 00 00
	00 02 00 00 00	 mov	 DWORD PTR ?gCloseMsg@@3HA, 2 ; gCloseMsg

; 638  : 						AllSendServerMsg(lMsg.Get(MSGGET(4, 105)) );

  00c78	68 69 04 00 00	 push	 1129			; 00000469H

; 639  : 					}
; 640  : 					break;

  00c7d	eb be		 jmp	 SHORT $LN231@WndProc
$LN143@WndProc:

; 641  : 				case IDM_1_MINUTE_CLOSE:
; 642  : 					if ( gCloseMsg == 0 )

  00c7f	83 3d 00 00 00
	00 00		 cmp	 DWORD PTR ?gCloseMsg@@3HA, 0 ; gCloseMsg
  00c86	0f 85 b9 02 00
	00		 jne	 $LN105@WndProc

; 643  : 					{
; 644  : 						gCloseMsgTime = 60;

  00c8c	c7 05 00 00 00
	00 3c 00 00 00	 mov	 DWORD PTR ?gCloseMsgTime@@3HA, 60 ; gCloseMsgTime, 0000003cH

; 645  : 						gCloseMsg=3;

  00c96	c7 05 00 00 00
	00 03 00 00 00	 mov	 DWORD PTR ?gCloseMsg@@3HA, 3 ; gCloseMsg

; 646  : 						AllSendServerMsg(lMsg.Get(MSGGET(4, 106)) );

  00ca0	68 6a 04 00 00	 push	 1130			; 0000046aH

; 647  : 					}
; 648  : 					break;

  00ca5	eb 96		 jmp	 SHORT $LN231@WndProc
$LN141@WndProc:

; 649  : 				case IDM_RELOAD_ALL_EVENT:
; 650  : 					ReadEventInfo(MU_EVENT_ALL );

  00ca7	6a 00		 push	 0
  00ca9	e8 00 00 00 00	 call	 ?ReadEventInfo@@YAXW4MU_EVENT_TYPE@@@Z ; ReadEventInfo
  00cae	83 c4 04	 add	 esp, 4

; 1278 :    }
; 1279 :    return 0;

  00cb1	33 c0		 xor	 eax, eax
  00cb3	e9 a1 02 00 00	 jmp	 $LN184@WndProc
$LN140@WndProc:

; 651  : 					break;
; 652  : 				case IDM_RELOAD_DEVILSQUARE:
; 653  : 					ReadEventInfo(MU_EVENT_DEVILSQUARE );

  00cb8	6a 01		 push	 1
  00cba	e8 00 00 00 00	 call	 ?ReadEventInfo@@YAXW4MU_EVENT_TYPE@@@Z ; ReadEventInfo
  00cbf	83 c4 04	 add	 esp, 4

; 1278 :    }
; 1279 :    return 0;

  00cc2	33 c0		 xor	 eax, eax
  00cc4	e9 90 02 00 00	 jmp	 $LN184@WndProc
$LN139@WndProc:

; 654  : 					break;
; 655  : 				case IDM_RELOAD_BLOODCASTLE:
; 656  : 					ReadEventInfo(MU_EVENT_BLOODCASTLE );

  00cc9	6a 02		 push	 2
  00ccb	e8 00 00 00 00	 call	 ?ReadEventInfo@@YAXW4MU_EVENT_TYPE@@@Z ; ReadEventInfo
  00cd0	83 c4 04	 add	 esp, 4

; 1278 :    }
; 1279 :    return 0;

  00cd3	33 c0		 xor	 eax, eax
  00cd5	e9 7f 02 00 00	 jmp	 $LN184@WndProc
$LN138@WndProc:

; 657  : 					break;
; 658  : 				case IDM_RELOAD_UNDERWORLD_ATTACK:
; 659  : 					ReadEventInfo(MU_EVENT_ATTACKEVENTTROOP );

  00cda	6a 03		 push	 3
  00cdc	e8 00 00 00 00	 call	 ?ReadEventInfo@@YAXW4MU_EVENT_TYPE@@@Z ; ReadEventInfo
  00ce1	83 c4 04	 add	 esp, 4

; 1278 :    }
; 1279 :    return 0;

  00ce4	33 c0		 xor	 eax, eax
  00ce6	e9 6e 02 00 00	 jmp	 $LN184@WndProc
$LN137@WndProc:

; 660  : 					break;
; 661  : 				case IDM_RELOAD_GOLDENTROOP_ATTACK:
; 662  : 					ReadEventInfo(MU_EVENT_GOLDENTROOP );

  00ceb	6a 04		 push	 4
  00ced	e8 00 00 00 00	 call	 ?ReadEventInfo@@YAXW4MU_EVENT_TYPE@@@Z ; ReadEventInfo
  00cf2	83 c4 04	 add	 esp, 4

; 1278 :    }
; 1279 :    return 0;

  00cf5	33 c0		 xor	 eax, eax
  00cf7	e9 5d 02 00 00	 jmp	 $LN184@WndProc
$LN136@WndProc:

; 663  : 					break;
; 664  : 				case IDM_RELOAD_WHITEMAGE_ATTACK:
; 665  : 					ReadEventInfo(MU_EVENT_WHITEMAGETROOP );

  00cfc	6a 05		 push	 5
  00cfe	e8 00 00 00 00	 call	 ?ReadEventInfo@@YAXW4MU_EVENT_TYPE@@@Z ; ReadEventInfo
  00d03	83 c4 04	 add	 esp, 4

; 1278 :    }
; 1279 :    return 0;

  00d06	33 c0		 xor	 eax, eax
  00d08	e9 4c 02 00 00	 jmp	 $LN184@WndProc
$LN135@WndProc:

; 666  : 					break;
; 667  : 				case IDM_RELOAD_LOVE_PANGPANG:
; 668  : 					ReadEventInfo(MU_EVENT_LOVEPANGPANG );

  00d0d	6a 06		 push	 6
  00d0f	e8 00 00 00 00	 call	 ?ReadEventInfo@@YAXW4MU_EVENT_TYPE@@@Z ; ReadEventInfo
  00d14	83 c4 04	 add	 esp, 4

; 1278 :    }
; 1279 :    return 0;

  00d17	33 c0		 xor	 eax, eax
  00d19	e9 3b 02 00 00	 jmp	 $LN184@WndProc
$LN134@WndProc:

; 669  : 					break;
; 670  : 				case IDM_RELOAD_FIRECRACKER:
; 671  : 					ReadEventInfo(MU_EVENT_FIRECRACKER );

  00d1e	6a 07		 push	 7
  00d20	e8 00 00 00 00	 call	 ?ReadEventInfo@@YAXW4MU_EVENT_TYPE@@@Z ; ReadEventInfo
  00d25	83 c4 04	 add	 esp, 4

; 1278 :    }
; 1279 :    return 0;

  00d28	33 c0		 xor	 eax, eax
  00d2a	e9 2a 02 00 00	 jmp	 $LN184@WndProc
$LN133@WndProc:

; 672  : 					break;
; 673  : 				case IDM_RELOAD_XMAS_STAR:
; 674  : 					ReadEventInfo(MU_EVENT_XMASSTAR );

  00d2f	6a 09		 push	 9
  00d31	e8 00 00 00 00	 call	 ?ReadEventInfo@@YAXW4MU_EVENT_TYPE@@@Z ; ReadEventInfo
  00d36	83 c4 04	 add	 esp, 4

; 1278 :    }
; 1279 :    return 0;

  00d39	33 c0		 xor	 eax, eax
  00d3b	e9 19 02 00 00	 jmp	 $LN184@WndProc
$LN132@WndProc:

; 675  : 					break;
; 676  : 				case IDM_RELOAD_HEART_OF_LOVE:
; 677  : 					ReadEventInfo(MU_EVENT_HEARTOFLOVE );

  00d40	6a 0a		 push	 10			; 0000000aH
  00d42	e8 00 00 00 00	 call	 ?ReadEventInfo@@YAXW4MU_EVENT_TYPE@@@Z ; ReadEventInfo
  00d47	83 c4 04	 add	 esp, 4

; 1278 :    }
; 1279 :    return 0;

  00d4a	33 c0		 xor	 eax, eax
  00d4c	e9 08 02 00 00	 jmp	 $LN184@WndProc
$LN131@WndProc:

; 678  : 					break;
; 679  : 				case IDM_RELOAD_NPC_SAY_HAPPY_NEW_YEAR:
; 680  : 					ReadEventInfo(MU_EVENT_SAY_HAPPYNEWYEAR );

  00d51	6a 0b		 push	 11			; 0000000bH
  00d53	e8 00 00 00 00	 call	 ?ReadEventInfo@@YAXW4MU_EVENT_TYPE@@@Z ; ReadEventInfo
  00d58	83 c4 04	 add	 esp, 4

; 1278 :    }
; 1279 :    return 0;

  00d5b	33 c0		 xor	 eax, eax
  00d5d	e9 f7 01 00 00	 jmp	 $LN184@WndProc
$LN130@WndProc:

; 681  : 					break;
; 682  : 				case IDM_RELOAD_NPC_SAY_MERRY_XMAS:
; 683  : 					ReadEventInfo(MU_EVENT_SAY_MERRYXMAS );

  00d62	6a 0c		 push	 12			; 0000000cH
  00d64	e8 00 00 00 00	 call	 ?ReadEventInfo@@YAXW4MU_EVENT_TYPE@@@Z ; ReadEventInfo
  00d69	83 c4 04	 add	 esp, 4

; 1278 :    }
; 1279 :    return 0;

  00d6c	33 c0		 xor	 eax, eax
  00d6e	e9 e6 01 00 00	 jmp	 $LN184@WndProc
$LN129@WndProc:

; 684  : 					break;
; 685  : 				case IDM_RELOAD_CHAOSCASTLE:
; 686  : 					ReadEventInfo(MU_EVENT_CHAOSCASTLE );

  00d73	6a 0d		 push	 13			; 0000000dH
  00d75	e8 00 00 00 00	 call	 ?ReadEventInfo@@YAXW4MU_EVENT_TYPE@@@Z ; ReadEventInfo
  00d7a	83 c4 04	 add	 esp, 4

; 1278 :    }
; 1279 :    return 0;

  00d7d	33 c0		 xor	 eax, eax
  00d7f	e9 d5 01 00 00	 jmp	 $LN184@WndProc
$LN128@WndProc:

; 687  : 					break;
; 688  : 				case IDM_RELOAD_CHRISTMAS_RIBBONBOX:
; 689  : 					ReadEventInfo(MU_EVENT_CHRISTMAS_RIBBONBOX );

  00d84	6a 0e		 push	 14			; 0000000eH
  00d86	e8 00 00 00 00	 call	 ?ReadEventInfo@@YAXW4MU_EVENT_TYPE@@@Z ; ReadEventInfo
  00d8b	83 c4 04	 add	 esp, 4

; 1278 :    }
; 1279 :    return 0;

  00d8e	33 c0		 xor	 eax, eax
  00d90	e9 c4 01 00 00	 jmp	 $LN184@WndProc
$LN127@WndProc:

; 690  : 					break;
; 691  : 				case IDM_RELOAD_VALENTINE_DAY_CHOCOLATE_BOX:
; 692  : 					ReadEventInfo(MU_EVENT_VALENTINESDAY_CHOCOLATEBOX );

  00d95	6a 0f		 push	 15			; 0000000fH
  00d97	e8 00 00 00 00	 call	 ?ReadEventInfo@@YAXW4MU_EVENT_TYPE@@@Z ; ReadEventInfo
  00d9c	83 c4 04	 add	 esp, 4

; 1278 :    }
; 1279 :    return 0;

  00d9f	33 c0		 xor	 eax, eax
  00da1	e9 b3 01 00 00	 jmp	 $LN184@WndProc
$LN126@WndProc:

; 693  : 					break;
; 694  : 				case IDM_RELOAD_WHITE_DAY_CANDY_BOX:
; 695  : 					ReadEventInfo(MU_EVENT_WHITEDAY_CANDYBOX  );

  00da6	6a 10		 push	 16			; 00000010H
  00da8	e8 00 00 00 00	 call	 ?ReadEventInfo@@YAXW4MU_EVENT_TYPE@@@Z ; ReadEventInfo
  00dad	83 c4 04	 add	 esp, 4

; 1278 :    }
; 1279 :    return 0;

  00db0	33 c0		 xor	 eax, eax
  00db2	e9 a2 01 00 00	 jmp	 $LN184@WndProc
$LN125@WndProc:

; 696  : 					break;
; 697  : 				case IDM_RELOAD_ALL_ETC_OPTION:
; 698  : 					ReadGameEtcInfo(MU_ETC_ALL );

  00db7	6a 00		 push	 0
  00db9	e8 00 00 00 00	 call	 ?ReadGameEtcInfo@@YAXW4MU_ETC_TYPE@@@Z ; ReadGameEtcInfo
  00dbe	83 c4 04	 add	 esp, 4

; 1278 :    }
; 1279 :    return 0;

  00dc1	33 c0		 xor	 eax, eax
  00dc3	e9 91 01 00 00	 jmp	 $LN184@WndProc
$LN124@WndProc:

; 699  : 					break;
; 700  : 				case IDM_RELOAD_CREATE_CHARACTER:
; 701  : 					ReadGameEtcInfo(MU_ETC_CREATECHARACTER );

  00dc8	6a 01		 push	 1
  00dca	e8 00 00 00 00	 call	 ?ReadGameEtcInfo@@YAXW4MU_ETC_TYPE@@@Z ; ReadGameEtcInfo
  00dcf	83 c4 04	 add	 esp, 4

; 1278 :    }
; 1279 :    return 0;

  00dd2	33 c0		 xor	 eax, eax
  00dd4	e9 80 01 00 00	 jmp	 $LN184@WndProc
$LN123@WndProc:

; 702  : 					break;
; 703  : 				case IDM_RELOAD_GUILD:
; 704  : 					ReadGameEtcInfo(MU_ETC_GUILD );

  00dd9	6a 02		 push	 2
  00ddb	e8 00 00 00 00	 call	 ?ReadGameEtcInfo@@YAXW4MU_ETC_TYPE@@@Z ; ReadGameEtcInfo
  00de0	83 c4 04	 add	 esp, 4

; 1278 :    }
; 1279 :    return 0;

  00de3	33 c0		 xor	 eax, eax
  00de5	e9 6f 01 00 00	 jmp	 $LN184@WndProc
$LN122@WndProc:

; 705  : 					break;
; 706  : 				case IDM_RELOAD_TRADE:
; 707  : 					ReadGameEtcInfo(MU_ETC_TRADE );

  00dea	6a 03		 push	 3
  00dec	e8 00 00 00 00	 call	 ?ReadGameEtcInfo@@YAXW4MU_ETC_TYPE@@@Z ; ReadGameEtcInfo
  00df1	83 c4 04	 add	 esp, 4

; 1278 :    }
; 1279 :    return 0;

  00df4	33 c0		 xor	 eax, eax
  00df6	e9 5e 01 00 00	 jmp	 $LN184@WndProc
$LN121@WndProc:

; 708  : 					break;
; 709  : 				case IDM_RELOAD_CHAOSBOX:
; 710  : 					ReadGameEtcInfo(MU_ETC_USECHAOSBOX );

  00dfb	6a 04		 push	 4
  00dfd	e8 00 00 00 00	 call	 ?ReadGameEtcInfo@@YAXW4MU_ETC_TYPE@@@Z ; ReadGameEtcInfo
  00e02	83 c4 04	 add	 esp, 4

; 1278 :    }
; 1279 :    return 0;

  00e05	33 c0		 xor	 eax, eax
  00e07	e9 4d 01 00 00	 jmp	 $LN184@WndProc
$LN120@WndProc:

; 711  : 					break;
; 712  : 				case IDM_RELOAD_PERSONAL_SHOP:
; 713  : 					ReadGameEtcInfo(MU_ETC_PERSONALSHOP );

  00e0c	6a 05		 push	 5
  00e0e	e8 00 00 00 00	 call	 ?ReadGameEtcInfo@@YAXW4MU_ETC_TYPE@@@Z ; ReadGameEtcInfo
  00e13	83 c4 04	 add	 esp, 4

; 1278 :    }
; 1279 :    return 0;

  00e16	33 c0		 xor	 eax, eax
  00e18	e9 3c 01 00 00	 jmp	 $LN184@WndProc
$LN119@WndProc:

; 714  : 					break;
; 715  : 				case IDM_RELOAD_PK_ITEM_DROP:
; 716  : 					ReadGameEtcInfo(MU_ETC_PKITEMDROP );

  00e1d	6a 06		 push	 6
  00e1f	e8 00 00 00 00	 call	 ?ReadGameEtcInfo@@YAXW4MU_ETC_TYPE@@@Z ; ReadGameEtcInfo
  00e24	83 c4 04	 add	 esp, 4

; 1278 :    }
; 1279 :    return 0;

  00e27	33 c0		 xor	 eax, eax
  00e29	e9 2b 01 00 00	 jmp	 $LN184@WndProc
$LN118@WndProc:

; 717  : 					break;
; 718  : 				case IDM_RELOAD_ITEM_DROP_RATE:
; 719  : 					ReadGameEtcInfo(MU_ETC_ITEMDROPRATE );

  00e2e	6a 07		 push	 7
  00e30	e8 00 00 00 00	 call	 ?ReadGameEtcInfo@@YAXW4MU_ETC_TYPE@@@Z ; ReadGameEtcInfo
  00e35	83 c4 04	 add	 esp, 4

; 1278 :    }
; 1279 :    return 0;

  00e38	33 c0		 xor	 eax, eax
  00e3a	e9 1a 01 00 00	 jmp	 $LN184@WndProc
$LN117@WndProc:

; 720  : 					break;
; 721  : 				case IDM_RELOAD_SPEEDHACK:
; 722  : 					ReadGameEtcInfo(MU_ETC_SPEEDHACK );

  00e3f	6a 08		 push	 8
  00e41	e8 00 00 00 00	 call	 ?ReadGameEtcInfo@@YAXW4MU_ETC_TYPE@@@Z ; ReadGameEtcInfo
  00e46	83 c4 04	 add	 esp, 4

; 1278 :    }
; 1279 :    return 0;

  00e49	33 c0		 xor	 eax, eax
  00e4b	e9 09 01 00 00	 jmp	 $LN184@WndProc
$LN116@WndProc:

; 723  : 					break;
; 724  : 				case IDM_RELOAD_GAMEGUARD_CHECKSUM_CHECK:
; 725  : 					ReadGameEtcInfo(MU_ETC_GAMEGUARD );

  00e50	6a 09		 push	 9
  00e52	e8 00 00 00 00	 call	 ?ReadGameEtcInfo@@YAXW4MU_ETC_TYPE@@@Z ; ReadGameEtcInfo
  00e57	83 c4 04	 add	 esp, 4

; 1278 :    }
; 1279 :    return 0;

  00e5a	33 c0		 xor	 eax, eax
  00e5c	e9 f8 00 00 00	 jmp	 $LN184@WndProc
$LN115@WndProc:

; 726  : 					break;
; 727  : 				default:
; 728  : 					return DefWindowProc(hWnd, message, wParam, lParam);

  00e61	8b 55 14	 mov	 edx, DWORD PTR _lParam$[ebp]
  00e64	52		 push	 edx
  00e65	51		 push	 ecx
  00e66	68 11 01 00 00	 push	 273			; 00000111H
  00e6b	e9 e2 00 00 00	 jmp	 $LN230@WndProc
$LN114@WndProc:

; 729  : 					break;
; 730  : 			}
; 731  : 			break;
; 732  : 		case WM_GM_SERVER_MSG_PROC:
; 733  : 			GMServerMsgProc(wParam, lParam);

  00e70	8b 45 14	 mov	 eax, DWORD PTR _lParam$[ebp]
  00e73	8b 4d 10	 mov	 ecx, DWORD PTR _wParam$[ebp]
  00e76	50		 push	 eax
  00e77	51		 push	 ecx
  00e78	e8 00 00 00 00	 call	 ?GMServerMsgProc@@YAXIJ@Z ; GMServerMsgProc
  00e7d	83 c4 08	 add	 esp, 8

; 1278 :    }
; 1279 :    return 0;

  00e80	33 c0		 xor	 eax, eax
  00e82	e9 d2 00 00 00	 jmp	 $LN184@WndProc
$LN190@WndProc:

; 512  : 	INT wmId, wmEvent;
; 513  : 	
; 514  : 	switch (message) 

  00e87	8d 88 fe fb ff
	ff		 lea	 ecx, DWORD PTR [eax-1026]
  00e8d	83 f9 0c	 cmp	 ecx, 12			; 0000000cH
  00e90	0f 87 b3 00 00
	00		 ja	 $LN1@WndProc
  00e96	ff 24 8d 00 00
	00 00		 jmp	 DWORD PTR $LN236@WndProc[ecx*4]
$LN113@WndProc:

; 734  : 			break;
; 735  : 		case WM_GM_CLIENT_MSG_PROC:
; 736  : 			{
; 737  : 				int wp = wParam;
; 738  : 				int lp = lParam;
; 739  : 				GMClientMsgProc(wParam, lParam);

  00e9d	8b 55 14	 mov	 edx, DWORD PTR _lParam$[ebp]
  00ea0	8b 45 10	 mov	 eax, DWORD PTR _wParam$[ebp]
  00ea3	52		 push	 edx
  00ea4	50		 push	 eax
  00ea5	e8 00 00 00 00	 call	 ?GMClientMsgProc@@YAXIJ@Z ; GMClientMsgProc
  00eaa	83 c4 08	 add	 esp, 8

; 1278 :    }
; 1279 :    return 0;

  00ead	33 c0		 xor	 eax, eax
  00eaf	e9 a5 00 00 00	 jmp	 $LN184@WndProc
$LN112@WndProc:

; 740  : 			}
; 741  : 			break;
; 742  : 		case WM_GM_JOIN_CLIENT_MSG_PROC:
; 743  : 			GMJoinClientMsgProc(wParam, lParam);

  00eb4	8b 4d 14	 mov	 ecx, DWORD PTR _lParam$[ebp]
  00eb7	8b 55 10	 mov	 edx, DWORD PTR _wParam$[ebp]
  00eba	51		 push	 ecx
  00ebb	52		 push	 edx
  00ebc	e8 00 00 00 00	 call	 ?GMJoinClientMsgProc@@YAXIJ@Z ; GMJoinClientMsgProc
  00ec1	83 c4 08	 add	 esp, 8

; 1278 :    }
; 1279 :    return 0;

  00ec4	33 c0		 xor	 eax, eax
  00ec6	e9 8e 00 00 00	 jmp	 $LN184@WndProc
$LN111@WndProc:

; 744  : 			break;
; 745  : 		case WM_GM_RANKING_CLIENT_MSG_PROC:
; 746  : 			GMRankingClientMsgProc(wParam, lParam);

  00ecb	8b 45 14	 mov	 eax, DWORD PTR _lParam$[ebp]
  00ece	8b 4d 10	 mov	 ecx, DWORD PTR _wParam$[ebp]
  00ed1	50		 push	 eax
  00ed2	51		 push	 ecx
  00ed3	e8 00 00 00 00	 call	 ?GMRankingClientMsgProc@@YAXIJ@Z ; GMRankingClientMsgProc
  00ed8	83 c4 08	 add	 esp, 8

; 1278 :    }
; 1279 :    return 0;

  00edb	33 c0		 xor	 eax, eax
  00edd	eb 7a		 jmp	 SHORT $LN184@WndProc
$LN110@WndProc:

; 747  : 			break;
; 748  : 		case WM_GM_EVENTCHIP_CLIENT_MSG_PROC:
; 749  : 			GMEventChipClientMsgProc(wParam, lParam);

  00edf	8b 55 14	 mov	 edx, DWORD PTR _lParam$[ebp]
  00ee2	8b 45 10	 mov	 eax, DWORD PTR _wParam$[ebp]
  00ee5	52		 push	 edx
  00ee6	50		 push	 eax
  00ee7	e8 00 00 00 00	 call	 ?GMEventChipClientMsgProc@@YAXIJ@Z ; GMEventChipClientMsgProc
  00eec	83 c4 08	 add	 esp, 8

; 1278 :    }
; 1279 :    return 0;

  00eef	33 c0		 xor	 eax, eax
  00ef1	eb 66		 jmp	 SHORT $LN184@WndProc
$LN109@WndProc:

; 750  : 			break;
; 751  : 		case WM_GM_DATA1_CLIENT_MSG_PROC:
; 752  : 			cDBSMng.MsgProc(0, wParam, lParam);

  00ef3	8b 4d 14	 mov	 ecx, DWORD PTR _lParam$[ebp]
  00ef6	8b 55 10	 mov	 edx, DWORD PTR _wParam$[ebp]
  00ef9	51		 push	 ecx
  00efa	52		 push	 edx
  00efb	6a 00		 push	 0
  00efd	b9 00 00 00 00	 mov	 ecx, OFFSET ?cDBSMng@@3VDBSockMng@@A ; cDBSMng
  00f02	e8 00 00 00 00	 call	 ?MsgProc@DBSockMng@@QAEHHIJ@Z ; DBSockMng::MsgProc

; 1278 :    }
; 1279 :    return 0;

  00f07	33 c0		 xor	 eax, eax
  00f09	eb 4e		 jmp	 SHORT $LN184@WndProc
$LN108@WndProc:

; 753  : 			break;
; 754  : 		case WM_GM_DATA2_CLIENT_MSG_PROC:
; 755  : 			cDBSMng.MsgProc(1, wParam, lParam);

  00f0b	8b 45 14	 mov	 eax, DWORD PTR _lParam$[ebp]
  00f0e	8b 4d 10	 mov	 ecx, DWORD PTR _wParam$[ebp]
  00f11	50		 push	 eax
  00f12	51		 push	 ecx
  00f13	6a 01		 push	 1
  00f15	b9 00 00 00 00	 mov	 ecx, OFFSET ?cDBSMng@@3VDBSockMng@@A ; cDBSMng
  00f1a	e8 00 00 00 00	 call	 ?MsgProc@DBSockMng@@QAEHHIJ@Z ; DBSockMng::MsgProc

; 1278 :    }
; 1279 :    return 0;

  00f1f	33 c0		 xor	 eax, eax
  00f21	eb 36		 jmp	 SHORT $LN184@WndProc
$LN107@WndProc:

; 756  : 			break;
; 757  : 		case WM_GM_ZTDATA_CLIENT_MSG_PROC:
; 758  : 			ZtDataClientMsgProc(wParam, lParam);

  00f23	8b 55 14	 mov	 edx, DWORD PTR _lParam$[ebp]
  00f26	8b 45 10	 mov	 eax, DWORD PTR _wParam$[ebp]
  00f29	52		 push	 edx
  00f2a	50		 push	 eax
  00f2b	e8 00 00 00 00	 call	 ?ZtDataClientMsgProc@@YAXIJ@Z ; ZtDataClientMsgProc
  00f30	83 c4 08	 add	 esp, 8

; 1278 :    }
; 1279 :    return 0;

  00f33	33 c0		 xor	 eax, eax
  00f35	eb 22		 jmp	 SHORT $LN184@WndProc
$LN106@WndProc:

; 759  : 			break;
; 760  : 		case WM_START_SERVER:
; 761  : 			if ( gServerReady == 2 )

  00f37	83 3d 00 00 00
	00 02		 cmp	 DWORD PTR ?gServerReady@@3HA, 2 ; gServerReady
  00f3e	75 05		 jne	 SHORT $LN105@WndProc

; 762  : 				GameServerStart();

  00f40	e8 00 00 00 00	 call	 ?GameServerStart@@YAHXZ	; GameServerStart
$LN105@WndProc:

; 1278 :    }
; 1279 :    return 0;

  00f45	33 c0		 xor	 eax, eax
  00f47	eb 10		 jmp	 SHORT $LN184@WndProc
$LN1@WndProc:

; 1275 : 			break;
; 1276 : 		default:
; 1277 : 			return DefWindowProc(hWnd, message, wParam, lParam);

  00f49	8b 4d 14	 mov	 ecx, DWORD PTR _lParam$[ebp]
  00f4c	8b 55 10	 mov	 edx, DWORD PTR _wParam$[ebp]
  00f4f	51		 push	 ecx
  00f50	52		 push	 edx
  00f51	50		 push	 eax
$LN230@WndProc:
  00f52	57		 push	 edi
  00f53	ff 15 00 00 00
	00		 call	 DWORD PTR __imp__DefWindowProcA@16
$LN184@WndProc:

; 1280 : }

  00f59	8b 4d f4	 mov	 ecx, DWORD PTR __$EHRec$[ebp]
  00f5c	64 89 0d 00 00
	00 00		 mov	 DWORD PTR fs:0, ecx
  00f63	59		 pop	 ecx
  00f64	5f		 pop	 edi
  00f65	5e		 pop	 esi
  00f66	8b 4d f0	 mov	 ecx, DWORD PTR __$ArrayPad$[ebp]
  00f69	33 cd		 xor	 ecx, ebp
  00f6b	e8 00 00 00 00	 call	 @__security_check_cookie@4
  00f70	8b e5		 mov	 esp, ebp
  00f72	5d		 pop	 ebp
  00f73	c2 10 00	 ret	 16			; 00000010H
$LN228@WndProc:
  00f76	8b ff		 npad	 2
$LN233@WndProc:
  00f78	00 00 00 00	 DD	 $LN14@WndProc
  00f7c	00 00 00 00	 DD	 $LN12@WndProc
  00f80	00 00 00 00	 DD	 $LN105@WndProc
  00f84	00 00 00 00	 DD	 $LN105@WndProc
  00f88	00 00 00 00	 DD	 $LN9@WndProc
  00f8c	00 00 00 00	 DD	 $LN7@WndProc
  00f90	00 00 00 00	 DD	 $LN5@WndProc
  00f94	00 00 00 00	 DD	 $LN105@WndProc
  00f98	00 00 00 00	 DD	 $LN105@WndProc
  00f9c	00 00 00 00	 DD	 $LN105@WndProc
  00fa0	00 00 00 00	 DD	 $LN3@WndProc
$LN234@WndProc:
  00fa4	00 00 00 00	 DD	 $LN45@WndProc
  00fa8	00 00 00 00	 DD	 $LN53@WndProc
  00fac	00 00 00 00	 DD	 $LN43@WndProc
  00fb0	00 00 00 00	 DD	 $LN95@WndProc
  00fb4	00 00 00 00	 DD	 $LN96@WndProc
  00fb8	00 00 00 00	 DD	 $LN97@WndProc
  00fbc	00 00 00 00	 DD	 $LN44@WndProc
  00fc0	00 00 00 00	 DD	 $LN101@WndProc
  00fc4	00 00 00 00	 DD	 $LN105@WndProc
  00fc8	00 00 00 00	 DD	 $LN94@WndProc
  00fcc	00 00 00 00	 DD	 $LN41@WndProc
  00fd0	00 00 00 00	 DD	 $LN39@WndProc
  00fd4	00 00 00 00	 DD	 $LN40@WndProc
  00fd8	00 00 00 00	 DD	 $LN33@WndProc
  00fdc	00 00 00 00	 DD	 $LN32@WndProc
  00fe0	00 00 00 00	 DD	 $LN31@WndProc
  00fe4	00 00 00 00	 DD	 $LN27@WndProc
$LN235@WndProc:
  00fe8	00 00 00 00	 DD	 $LN161@WndProc
  00fec	00 00 00 00	 DD	 $LN160@WndProc
  00ff0	00 00 00 00	 DD	 $LN171@WndProc
  00ff4	00 00 00 00	 DD	 $LN115@WndProc
  00ff8	00 00 00 00	 DD	 $LN115@WndProc
  00ffc	00 00 00 00	 DD	 $LN159@WndProc
  01000	00 00 00 00	 DD	 $LN115@WndProc
  01004	00 00 00 00	 DD	 $LN163@WndProc
  01008	00 00 00 00	 DD	 $LN175@WndProc
  0100c	00 00 00 00	 DD	 $LN174@WndProc
  01010	00 00 00 00	 DD	 $LN173@WndProc
  01014	00 00 00 00	 DD	 $LN115@WndProc
  01018	00 00 00 00	 DD	 $LN147@WndProc
  0101c	00 00 00 00	 DD	 $LN145@WndProc
  01020	00 00 00 00	 DD	 $LN143@WndProc
  01024	00 00 00 00	 DD	 $LN158@WndProc
  01028	00 00 00 00	 DD	 $LN166@WndProc
  0102c	00 00 00 00	 DD	 $LN165@WndProc
  01030	00 00 00 00	 DD	 $LN156@WndProc
  01034	00 00 00 00	 DD	 $LN150@WndProc
  01038	00 00 00 00	 DD	 $LN153@WndProc
  0103c	00 00 00 00	 DD	 $LN141@WndProc
  01040	00 00 00 00	 DD	 $LN140@WndProc
  01044	00 00 00 00	 DD	 $LN139@WndProc
  01048	00 00 00 00	 DD	 $LN115@WndProc
  0104c	00 00 00 00	 DD	 $LN138@WndProc
  01050	00 00 00 00	 DD	 $LN137@WndProc
  01054	00 00 00 00	 DD	 $LN136@WndProc
  01058	00 00 00 00	 DD	 $LN115@WndProc
  0105c	00 00 00 00	 DD	 $LN135@WndProc
  01060	00 00 00 00	 DD	 $LN134@WndProc
  01064	00 00 00 00	 DD	 $LN133@WndProc
  01068	00 00 00 00	 DD	 $LN132@WndProc
  0106c	00 00 00 00	 DD	 $LN131@WndProc
  01070	00 00 00 00	 DD	 $LN130@WndProc
  01074	00 00 00 00	 DD	 $LN125@WndProc
  01078	00 00 00 00	 DD	 $LN124@WndProc
  0107c	00 00 00 00	 DD	 $LN123@WndProc
  01080	00 00 00 00	 DD	 $LN122@WndProc
  01084	00 00 00 00	 DD	 $LN120@WndProc
  01088	00 00 00 00	 DD	 $LN119@WndProc
  0108c	00 00 00 00	 DD	 $LN118@WndProc
  01090	00 00 00 00	 DD	 $LN121@WndProc
  01094	00 00 00 00	 DD	 $LN117@WndProc
  01098	00 00 00 00	 DD	 $LN116@WndProc
  0109c	00 00 00 00	 DD	 $LN129@WndProc
  010a0	00 00 00 00	 DD	 $LN169@WndProc
  010a4	00 00 00 00	 DD	 $LN170@WndProc
  010a8	00 00 00 00	 DD	 $LN162@WndProc
  010ac	00 00 00 00	 DD	 $LN115@WndProc
  010b0	00 00 00 00	 DD	 $LN157@WndProc
  010b4	00 00 00 00	 DD	 $LN128@WndProc
  010b8	00 00 00 00	 DD	 $LN127@WndProc
  010bc	00 00 00 00	 DD	 $LN126@WndProc
  010c0	00 00 00 00	 DD	 $LN115@WndProc
  010c4	00 00 00 00	 DD	 $LN105@WndProc
$LN236@WndProc:
  010c8	00 00 00 00	 DD	 $LN113@WndProc
  010cc	00 00 00 00	 DD	 $LN112@WndProc
  010d0	00 00 00 00	 DD	 $LN1@WndProc
  010d4	00 00 00 00	 DD	 $LN106@WndProc
  010d8	00 00 00 00	 DD	 $LN1@WndProc
  010dc	00 00 00 00	 DD	 $LN1@WndProc
  010e0	00 00 00 00	 DD	 $LN1@WndProc
  010e4	00 00 00 00	 DD	 $LN1@WndProc
  010e8	00 00 00 00	 DD	 $LN109@WndProc
  010ec	00 00 00 00	 DD	 $LN108@WndProc
  010f0	00 00 00 00	 DD	 $LN111@WndProc
  010f4	00 00 00 00	 DD	 $LN110@WndProc
  010f8	00 00 00 00	 DD	 $LN107@WndProc
_TEXT	ENDS
;	COMDAT text$x
text$x	SEGMENT
__unwindfunclet$?WndProc@@YGJPAUHWND__@@IIJ@Z$0:
  00000	8d 8d cc fe ff
	ff		 lea	 ecx, DWORD PTR _closeplayer$231612[ebp]
  00006	e9 00 00 00 00	 jmp	 ??1Ccloseplayer@@UAE@XZ	; Ccloseplayer::~Ccloseplayer
__ehhandler$?WndProc@@YGJPAUHWND__@@IIJ@Z:
  0000b	8b 54 24 08	 mov	 edx, DWORD PTR [esp+8]
  0000f	8d 42 0c	 lea	 eax, DWORD PTR [edx+12]
  00012	8b 8a cc fe ff
	ff		 mov	 ecx, DWORD PTR [edx-308]
  00018	33 c8		 xor	 ecx, eax
  0001a	e8 00 00 00 00	 call	 @__security_check_cookie@4
  0001f	8b 4a fc	 mov	 ecx, DWORD PTR [edx-4]
  00022	33 c8		 xor	 ecx, eax
  00024	e8 00 00 00 00	 call	 @__security_check_cookie@4
  00029	b8 00 00 00 00	 mov	 eax, OFFSET __ehfuncinfo$?WndProc@@YGJPAUHWND__@@IIJ@Z
  0002e	e9 00 00 00 00	 jmp	 ___CxxFrameHandler3
text$x	ENDS
?WndProc@@YGJPAUHWND__@@IIJ@Z ENDP			; WndProc
PUBLIC	?MyRegisterClass@@YAGPAUHINSTANCE__@@@Z		; MyRegisterClass
EXTRN	__imp__RegisterClassExA@4:PROC
EXTRN	__imp__CreateSolidBrush@4:PROC
EXTRN	__imp__LoadCursorA@8:PROC
EXTRN	__imp__LoadIconA@8:PROC
; Function compile flags: /Ogtp
;	COMDAT ?MyRegisterClass@@YAGPAUHINSTANCE__@@@Z
_TEXT	SEGMENT
_wcex$ = -48						; size = 48
_hInstance$ = 8						; size = 4
?MyRegisterClass@@YAGPAUHINSTANCE__@@@Z PROC		; MyRegisterClass, COMDAT

; 433  : {

  00000	55		 push	 ebp
  00001	8b ec		 mov	 ebp, esp
  00003	83 ec 30	 sub	 esp, 48			; 00000030H

; 434  : 
; 435  : #if(NEW_WINDOW==1)
; 436  : 	WNDCLASSEX wcex;
; 437  : 
; 438  : 	wcex.cbSize = sizeof(WNDCLASSEX); 
; 439  : 
; 440  : 	wcex.style			= CS_HREDRAW | CS_VREDRAW;
; 441  : 	wcex.lpfnWndProc	= (WNDPROC)WndProc;
; 442  : 	wcex.cbClsExtra		= 0;
; 443  : 	wcex.cbWndExtra		= 0;
; 444  : 	wcex.hInstance		= hInstance;

  00006	8b 45 08	 mov	 eax, DWORD PTR _hInstance$[ebp]
  00009	56		 push	 esi

; 445  : 	wcex.hIcon			= LoadIcon(hInstance, (LPCTSTR)IDI_NORMAL_V1);

  0000a	8b 35 00 00 00
	00		 mov	 esi, DWORD PTR __imp__LoadIconA@8
  00010	6a 6b		 push	 107			; 0000006bH
  00012	50		 push	 eax
  00013	c7 45 d0 30 00
	00 00		 mov	 DWORD PTR _wcex$[ebp], 48 ; 00000030H
  0001a	c7 45 d4 03 00
	00 00		 mov	 DWORD PTR _wcex$[ebp+4], 3
  00021	c7 45 d8 00 00
	00 00		 mov	 DWORD PTR _wcex$[ebp+8], OFFSET ?WndProc@@YGJPAUHWND__@@IIJ@Z ; WndProc
  00028	c7 45 dc 00 00
	00 00		 mov	 DWORD PTR _wcex$[ebp+12], 0
  0002f	c7 45 e0 00 00
	00 00		 mov	 DWORD PTR _wcex$[ebp+16], 0
  00036	89 45 e4	 mov	 DWORD PTR _wcex$[ebp+20], eax
  00039	ff d6		 call	 esi

; 446  : 	wcex.hCursor		= LoadCursor(NULL, IDC_ARROW);

  0003b	68 00 7f 00 00	 push	 32512			; 00007f00H
  00040	6a 00		 push	 0
  00042	89 45 e8	 mov	 DWORD PTR _wcex$[ebp+24], eax
  00045	ff 15 00 00 00
	00		 call	 DWORD PTR __imp__LoadCursorA@8

; 447  : 	wcex.hbrBackground	= (HBRUSH)CreateSolidBrush(WHITE_BRUSH);//CreateSolidBrush ( RGB ( 225, 123, 234));

  0004b	6a 00		 push	 0
  0004d	89 45 ec	 mov	 DWORD PTR _wcex$[ebp+28], eax
  00050	ff 15 00 00 00
	00		 call	 DWORD PTR __imp__CreateSolidBrush@4
  00056	89 45 f0	 mov	 DWORD PTR _wcex$[ebp+32], eax

; 448  : 	wcex.lpszMenuName	= (LPCSTR)IDR_MENU;
; 449  : 	wcex.lpszClassName	= szWindowClass;
; 450  : 	wcex.hIconSm		= LoadIcon(wcex.hInstance, (LPCTSTR)IDI_ICON_MINIMIZED);

  00059	8b 45 e4	 mov	 eax, DWORD PTR _wcex$[ebp+20]
  0005c	6a 6c		 push	 108			; 0000006cH
  0005e	50		 push	 eax
  0005f	c7 45 f4 6d 00
	00 00		 mov	 DWORD PTR _wcex$[ebp+36], 109 ; 0000006dH
  00066	c7 45 f8 00 00
	00 00		 mov	 DWORD PTR _wcex$[ebp+40], OFFSET ?szWindowClass@@3PADA ; szWindowClass
  0006d	ff d6		 call	 esi

; 451  : 
; 452  : 	return RegisterClassEx(&wcex);

  0006f	8d 4d d0	 lea	 ecx, DWORD PTR _wcex$[ebp]
  00072	51		 push	 ecx
  00073	89 45 fc	 mov	 DWORD PTR _wcex$[ebp+44], eax
  00076	ff 15 00 00 00
	00		 call	 DWORD PTR __imp__RegisterClassExA@4
  0007c	5e		 pop	 esi

; 453  : #else
; 454  : 	WNDCLASSEX wcex;
; 455  : 
; 456  : 	wcex.cbSize = sizeof(WNDCLASSEX); 
; 457  : 
; 458  : 	wcex.style			= CS_HREDRAW | CS_VREDRAW;
; 459  : 	wcex.lpfnWndProc	= (WNDPROC)WndProc;
; 460  : 	wcex.cbClsExtra		= 0;
; 461  : 	wcex.cbWndExtra		= 0;
; 462  : 	wcex.hInstance		= hInstance;
; 463  : 	wcex.hIcon			= LoadIcon(hInstance, (LPCTSTR)IDI_NORMAL_V1);
; 464  : 	wcex.hCursor		= LoadCursor(NULL, IDC_ARROW);
; 465  : 	wcex.hbrBackground	= (HBRUSH)(COLOR_WINDOW+1);
; 466  : 	wcex.lpszMenuName	= (LPCSTR)IDR_MENU;
; 467  : 	wcex.lpszClassName	= szWindowClass;
; 468  : 	wcex.hIconSm		= LoadIcon(wcex.hInstance, (LPCTSTR)IDI_ICON_MINIMIZED);
; 469  : 
; 470  : 	return RegisterClassEx(&wcex);
; 471  : #endif
; 472  : }

  0007d	8b e5		 mov	 esp, ebp
  0007f	5d		 pop	 ebp
  00080	c3		 ret	 0
?MyRegisterClass@@YAGPAUHINSTANCE__@@@Z ENDP		; MyRegisterClass
_TEXT	ENDS
PUBLIC	??_C@_09CEBPADH@MSSQL2008?$AA@			; `string'
PUBLIC	??_C@_09HDBOBPNA@EventPort?$AA@			; `string'
PUBLIC	??_C@_0M@JCIEAENJ@RankingPort?$AA@		; `string'
PUBLIC	??_C@_08GEJIGILK@ZtDbPort?$AA@			; `string'
PUBLIC	??_C@_06BJKNNHBH@ZtDbIp?$AA@			; `string'
PUBLIC	??_C@_0BA@KCKFIJHJ@DataServerPort2?$AA@		; `string'
PUBLIC	??_C@_0O@LCIOICPG@DataServerIp2?$AA@		; `string'
PUBLIC	??_C@_0P@KCPFKKD@DataServerPort?$AA@		; `string'
PUBLIC	??_C@_0N@PLFOIPDJ@DataServerIp?$AA@		; `string'
PUBLIC	??_C@_0P@KNHIEOID@JoinServerPort?$AA@		; `string'
PUBLIC	??_C@_0N@HMOAICNG@JoinServerIp?$AA@		; `string'
PUBLIC	??_C@_09PFCHIMEP@127?40?40?41?$AA@		; `string'
PUBLIC	??_C@_07FJPHLACI@Connect?$AA@			; `string'
PUBLIC	??_C@_0L@COJEKOJM@ServerPort?$AA@		; `string'
PUBLIC	??_C@_0O@BIJKOELJ@?4?2Connect?4ini?$AA@		; `string'
PUBLIC	??_C@_0BH@EAJMAKLH@Cannot?5find?5M?3?2?5Drive?4?$AA@ ; `string'
PUBLIC	??_C@_05NAOIJFC@Error?$AA@			; `string'
PUBLIC	??_C@_0BJ@BGFIFDEA@?4?4?2Data?2commonserver?4cfg?$AA@ ; `string'
PUBLIC	??_C@_0BB@HIPIODKA@GameServerEx?4dll?$AA@	; `string'
PUBLIC	??_C@_0N@LKCDOPHO@NsEngine?4dll?$AA@		; `string'
PUBLIC	__$ArrayPad$
PUBLIC	_WinMain@16
EXTRN	?End@CMiniDump@@SAHXZ:PROC			; CMiniDump::End
EXTRN	__imp__DispatchMessageA@4:PROC
EXTRN	__imp__TranslateMessage@4:PROC
EXTRN	__imp__TranslateAcceleratorA@12:PROC
EXTRN	__imp__GetMessageA@16:PROC
EXTRN	?Start@CWhatsUpDummyServer@@QAEHPAUHWND__@@G@Z:PROC ; CWhatsUpDummyServer::Start
EXTRN	?MSSQL2008@@3_NA:BYTE				; MSSQL2008
EXTRN	?EventPort@@3HA:DWORD				; EventPort
EXTRN	?RankingPort@@3HA:DWORD				; RankingPort
EXTRN	?DataServerPort@@3HA:DWORD			; DataServerPort
EXTRN	?JoinServerPort@@3HA:DWORD			; JoinServerPort
EXTRN	__imp__GetPrivateProfileStringA@24:PROC
EXTRN	?ZtDbPort@@3HA:DWORD				; ZtDbPort
EXTRN	?DataServerPort2@@3HA:DWORD			; DataServerPort2
EXTRN	__imp__GetPrivateProfileIntA@16:PROC
EXTRN	?Zt_User@@3PAUZt__User@@A:BYTE			; Zt_User
EXTRN	?GameMainInit@@YAXPAUHWND__@@@Z:PROC		; GameMainInit
EXTRN	?GiocpInit@@YAXXZ:PROC				; GiocpInit
EXTRN	__imp__LoadAcceleratorsA@8:PROC
EXTRN	__imp__InitCommonControls@0:PROC
EXTRN	__imp__LoadStringA@16:PROC
EXTRN	__imp__FindFirstFileA@8:PROC
EXTRN	?Load@CZtLicense@@QAEXXZ:PROC			; CZtLicense::Load
EXTRN	__imp__LoadLibraryA@4:PROC
EXTRN	?Begin@CMiniDump@@SAHXZ:PROC			; CMiniDump::Begin
EXTRN	_memset:PROC
;	COMDAT ??_C@_09CEBPADH@MSSQL2008?$AA@
CONST	SEGMENT
??_C@_09CEBPADH@MSSQL2008?$AA@ DB 'MSSQL2008', 00H	; `string'
CONST	ENDS
;	COMDAT ??_C@_09HDBOBPNA@EventPort?$AA@
CONST	SEGMENT
??_C@_09HDBOBPNA@EventPort?$AA@ DB 'EventPort', 00H	; `string'
CONST	ENDS
;	COMDAT ??_C@_0M@JCIEAENJ@RankingPort?$AA@
CONST	SEGMENT
??_C@_0M@JCIEAENJ@RankingPort?$AA@ DB 'RankingPort', 00H ; `string'
CONST	ENDS
;	COMDAT ??_C@_08GEJIGILK@ZtDbPort?$AA@
CONST	SEGMENT
??_C@_08GEJIGILK@ZtDbPort?$AA@ DB 'ZtDbPort', 00H	; `string'
CONST	ENDS
;	COMDAT ??_C@_06BJKNNHBH@ZtDbIp?$AA@
CONST	SEGMENT
??_C@_06BJKNNHBH@ZtDbIp?$AA@ DB 'ZtDbIp', 00H		; `string'
CONST	ENDS
;	COMDAT ??_C@_0BA@KCKFIJHJ@DataServerPort2?$AA@
CONST	SEGMENT
??_C@_0BA@KCKFIJHJ@DataServerPort2?$AA@ DB 'DataServerPort2', 00H ; `string'
CONST	ENDS
;	COMDAT ??_C@_0O@LCIOICPG@DataServerIp2?$AA@
CONST	SEGMENT
??_C@_0O@LCIOICPG@DataServerIp2?$AA@ DB 'DataServerIp2', 00H ; `string'
CONST	ENDS
;	COMDAT ??_C@_0P@KCPFKKD@DataServerPort?$AA@
CONST	SEGMENT
??_C@_0P@KCPFKKD@DataServerPort?$AA@ DB 'DataServerPort', 00H ; `string'
CONST	ENDS
;	COMDAT ??_C@_0N@PLFOIPDJ@DataServerIp?$AA@
CONST	SEGMENT
??_C@_0N@PLFOIPDJ@DataServerIp?$AA@ DB 'DataServerIp', 00H ; `string'
CONST	ENDS
;	COMDAT ??_C@_0P@KNHIEOID@JoinServerPort?$AA@
CONST	SEGMENT
??_C@_0P@KNHIEOID@JoinServerPort?$AA@ DB 'JoinServerPort', 00H ; `string'
CONST	ENDS
;	COMDAT ??_C@_0N@HMOAICNG@JoinServerIp?$AA@
CONST	SEGMENT
??_C@_0N@HMOAICNG@JoinServerIp?$AA@ DB 'JoinServerIp', 00H ; `string'
CONST	ENDS
;	COMDAT ??_C@_09PFCHIMEP@127?40?40?41?$AA@
CONST	SEGMENT
??_C@_09PFCHIMEP@127?40?40?41?$AA@ DB '127.0.0.1', 00H	; `string'
CONST	ENDS
;	COMDAT ??_C@_07FJPHLACI@Connect?$AA@
CONST	SEGMENT
??_C@_07FJPHLACI@Connect?$AA@ DB 'Connect', 00H		; `string'
CONST	ENDS
;	COMDAT ??_C@_0L@COJEKOJM@ServerPort?$AA@
CONST	SEGMENT
??_C@_0L@COJEKOJM@ServerPort?$AA@ DB 'ServerPort', 00H	; `string'
CONST	ENDS
;	COMDAT ??_C@_0O@BIJKOELJ@?4?2Connect?4ini?$AA@
CONST	SEGMENT
??_C@_0O@BIJKOELJ@?4?2Connect?4ini?$AA@ DB '.\Connect.ini', 00H ; `string'
CONST	ENDS
;	COMDAT ??_C@_0BH@EAJMAKLH@Cannot?5find?5M?3?2?5Drive?4?$AA@
CONST	SEGMENT
??_C@_0BH@EAJMAKLH@Cannot?5find?5M?3?2?5Drive?4?$AA@ DB 'Cannot find M:\ '
	DB	'Drive.', 00H				; `string'
CONST	ENDS
;	COMDAT ??_C@_05NAOIJFC@Error?$AA@
CONST	SEGMENT
??_C@_05NAOIJFC@Error?$AA@ DB 'Error', 00H		; `string'
CONST	ENDS
;	COMDAT ??_C@_0BJ@BGFIFDEA@?4?4?2Data?2commonserver?4cfg?$AA@
CONST	SEGMENT
??_C@_0BJ@BGFIFDEA@?4?4?2Data?2commonserver?4cfg?$AA@ DB '..\Data\commons'
	DB	'erver.cfg', 00H				; `string'
CONST	ENDS
;	COMDAT ??_C@_0BB@HIPIODKA@GameServerEx?4dll?$AA@
CONST	SEGMENT
??_C@_0BB@HIPIODKA@GameServerEx?4dll?$AA@ DB 'GameServerEx.dll', 00H ; `string'
CONST	ENDS
;	COMDAT ??_C@_0N@LKCDOPHO@NsEngine?4dll?$AA@
CONST	SEGMENT
??_C@_0N@LKCDOPHO@NsEngine?4dll?$AA@ DB 'NsEngine.dll', 00H ; `string'
; Function compile flags: /Ogtp
CONST	ENDS
;	COMDAT _WinMain@16
_TEXT	SEGMENT
_msg$ = -356						; size = 28
_hAccelTable$ = -328					; size = 4
_wfd$231514 = -324					; size = 320
__$ArrayPad$ = -4					; size = 4
_hInstance$ = 8						; size = 4
_hPrevInstance$ = 12					; size = 4
_lpCmdLine$ = 16					; size = 4
_nCmdShow$ = 20						; size = 4
_WinMain@16 PROC					; COMDAT

; 144  : {

  00000	55		 push	 ebp
  00001	8b ec		 mov	 ebp, esp
  00003	81 ec 64 01 00
	00		 sub	 esp, 356		; 00000164H
  00009	a1 00 00 00 00	 mov	 eax, DWORD PTR ___security_cookie
  0000e	33 c5		 xor	 eax, ebp
  00010	89 45 fc	 mov	 DWORD PTR __$ArrayPad$[ebp], eax
  00013	56		 push	 esi
  00014	8b 75 08	 mov	 esi, DWORD PTR _hInstance$[ebp]
  00017	57		 push	 edi

; 145  : 	VMBEGIN
; 146  : #ifdef VMPROTECT
; 147  : 	if( VMProtectIsDebuggerPresent(TRUE) != 0 )
; 148  : 	{
; 149  : 		ExitProcess(0);
; 150  : 	}
; 151  : #endif
; 152  : 	VMEND
; 153  : 
; 154  : 	CMiniDump::Begin();

  00018	e8 00 00 00 00	 call	 ?Begin@CMiniDump@@SAHXZ	; CMiniDump::Begin

; 155  : 	MSG msg;
; 156  : 	HACCEL hAccelTable;
; 157  : 
; 158  : 
; 159  : 
; 160  : #if(ENABLE_ZTPROTECTOR)
; 161  : 	int iProtectGameServer = GetPrivateProfileInt("Protect","ProtectGameServer",0,".\\Connect.ini");
; 162  : 
; 163  : 	if(iProtectGameServer)
; 164  : 	{
; 165  : 		if(!LoadLibraryA("PGS.dll"))
; 166  : 		{
; 167  : 			MessageBox(0, "Protect Server", "Protect Server Dll Load Error", ERROR);
; 168  : 			ExitProcess(0);
; 169  : 		}
; 170  : 	}
; 171  : #endif
; 172  : 
; 173  : 	if(NsEngine)

  0001d	80 3d 00 00 00
	00 00		 cmp	 BYTE PTR ?NsEngine@@3_NA, 0 ; NsEngine
  00024	8b 3d 00 00 00
	00		 mov	 edi, DWORD PTR __imp__LoadLibraryA@4
  0002a	74 07		 je	 SHORT $LN11@WinMain

; 174  : 	{
; 175  : 		LoadLibraryA("NsEngine.dll");

  0002c	68 00 00 00 00	 push	 OFFSET ??_C@_0N@LKCDOPHO@NsEngine?4dll?$AA@
  00031	ff d7		 call	 edi
$LN11@WinMain:

; 176  : 	}
; 177  : 
; 178  : 	g_ZtLicense.Load();

  00033	b9 00 00 00 00	 mov	 ecx, OFFSET ?g_ZtLicense@@3VCZtLicense@@A ; g_ZtLicense
  00038	e8 00 00 00 00	 call	 ?Load@CZtLicense@@QAEXXZ ; CZtLicense::Load

; 179  : 
; 180  : 	#if(CUSTOM_LIBRARY)
; 181  : 
; 182  : 	g_GSLibrary.Load();
; 183  : 
; 184  : 	#endif
; 185  : 
; 186  : 	#if(ENABLE_GAMESERVER_DLL)
; 187  : 	LoadLibraryA("GameServerEx.dll");

  0003d	68 00 00 00 00	 push	 OFFSET ??_C@_0BB@HIPIODKA@GameServerEx?4dll?$AA@
  00042	ff d7		 call	 edi

; 188  : 	#endif
; 189  : 
; 190  : 	if (gLanguage==0) 

  00044	33 ff		 xor	 edi, edi
  00046	39 3d 00 00 00
	00		 cmp	 DWORD PTR ?gLanguage@@3HA, edi ; gLanguage
  0004c	75 3e		 jne	 SHORT $LN9@WinMain

; 191  : 	{
; 192  : 		WIN32_FIND_DATA  wfd;
; 193  : 		if (FindFirstFile(COMMONSERVER_PATH,&wfd)==INVALID_HANDLE_VALUE)

  0004e	8d 85 bc fe ff
	ff		 lea	 eax, DWORD PTR _wfd$231514[ebp]
  00054	50		 push	 eax
  00055	68 00 00 00 00	 push	 OFFSET ??_C@_0BJ@BGFIFDEA@?4?4?2Data?2commonserver?4cfg?$AA@
  0005a	ff 15 00 00 00
	00		 call	 DWORD PTR __imp__FindFirstFileA@8
  00060	83 f8 ff	 cmp	 eax, -1
  00063	75 27		 jne	 SHORT $LN9@WinMain

; 194  : 		{
; 195  : 			MessageBox(NULL, "Cannot find M:\\ Drive.", "Error", MB_OK|MB_ICONHAND|MB_APPLMODAL);

  00065	6a 10		 push	 16			; 00000010H
  00067	68 00 00 00 00	 push	 OFFSET ??_C@_05NAOIJFC@Error?$AA@
  0006c	68 00 00 00 00	 push	 OFFSET ??_C@_0BH@EAJMAKLH@Cannot?5find?5M?3?2?5Drive?4?$AA@
  00071	57		 push	 edi
  00072	ff 15 00 00 00
	00		 call	 DWORD PTR __imp__MessageBoxA@16
  00078	5f		 pop	 edi

; 196  : 			return 0; 

  00079	33 c0		 xor	 eax, eax
  0007b	5e		 pop	 esi

; 320  : 	return msg.wParam;
; 321  : }

  0007c	8b 4d fc	 mov	 ecx, DWORD PTR __$ArrayPad$[ebp]
  0007f	33 cd		 xor	 ecx, ebp
  00081	e8 00 00 00 00	 call	 @__security_check_cookie@4
  00086	8b e5		 mov	 esp, ebp
  00088	5d		 pop	 ebp
  00089	c2 10 00	 ret	 16			; 00000010H
$LN9@WinMain:
  0008c	53		 push	 ebx

; 197  : 		}
; 198  : 	}	
; 199  : 
; 200  : 	LoadString(hInstance,IDS_APP_TITLE, szTitle, 100);

  0008d	8b 1d 00 00 00
	00		 mov	 ebx, DWORD PTR __imp__LoadStringA@16
  00093	6a 64		 push	 100			; 00000064H
  00095	68 00 00 00 00	 push	 OFFSET ?szTitle@@3PADA	; szTitle
  0009a	6a 67		 push	 103			; 00000067H
  0009c	56		 push	 esi
  0009d	ff d3		 call	 ebx

; 201  : 	LoadString(hInstance,IDS_GAMESERVER, szWindowClass, 100);

  0009f	6a 64		 push	 100			; 00000064H
  000a1	68 00 00 00 00	 push	 OFFSET ?szWindowClass@@3PADA ; szWindowClass
  000a6	6a 6d		 push	 109			; 0000006dH
  000a8	56		 push	 esi
  000a9	ff d3		 call	 ebx

; 202  : 
; 203  : 	MyRegisterClass(hInstance);

  000ab	56		 push	 esi
  000ac	e8 00 00 00 00	 call	 ?MyRegisterClass@@YAGPAUHINSTANCE__@@@Z ; MyRegisterClass
  000b1	83 c4 04	 add	 esp, 4

; 204  : 
; 205  : 	InitCommonControls();

  000b4	ff 15 00 00 00
	00		 call	 DWORD PTR __imp__InitCommonControls@0

; 206  : 	
; 207  : 	if (!InitInstance(hInstance, nCmdShow))

  000ba	8b 4d 14	 mov	 ecx, DWORD PTR _nCmdShow$[ebp]
  000bd	51		 push	 ecx
  000be	56		 push	 esi
  000bf	e8 00 00 00 00	 call	 ?InitInstance@@YAHPAUHINSTANCE__@@H@Z ; InitInstance
  000c4	83 c4 08	 add	 esp, 8
  000c7	85 c0		 test	 eax, eax
  000c9	75 13		 jne	 SHORT $LN8@WinMain
  000cb	5b		 pop	 ebx
  000cc	5f		 pop	 edi
  000cd	5e		 pop	 esi

; 320  : 	return msg.wParam;
; 321  : }

  000ce	8b 4d fc	 mov	 ecx, DWORD PTR __$ArrayPad$[ebp]
  000d1	33 cd		 xor	 ecx, ebp
  000d3	e8 00 00 00 00	 call	 @__security_check_cookie@4
  000d8	8b e5		 mov	 esp, ebp
  000da	5d		 pop	 ebp
  000db	c2 10 00	 ret	 16			; 00000010H
$LN8@WinMain:

; 208  : 	{
; 209  : 		return 0;
; 210  : 	}
; 211  : 
; 212  : 	#if(ENABLE_HIDEWINDOW)
; 213  : 		ShowWindow(ghWnd, SW_HIDE);
; 214  : 	#else
; 215  : 	#if(NEW_WINDOW==1)
; 216  : 		ShowWindow(ghWnd, SW_SHOWNORMAL);

  000de	8b 15 00 00 00
	00		 mov	 edx, DWORD PTR ?ghWnd@@3PAUHWND__@@A ; ghWnd
  000e4	6a 01		 push	 1
  000e6	52		 push	 edx
  000e7	ff 15 00 00 00
	00		 call	 DWORD PTR __imp__ShowWindow@8

; 217  : 	#else
; 218  : 		ShowWindow(ghWnd, SW_SHOWMAXIMIZED);
; 219  : 	#endif
; 220  : 	#endif
; 221  : 	
; 222  : 	hAccelTable=LoadAccelerators(hInstance,(LPCSTR)IDA_GAMESERVER);

  000ed	6a 6d		 push	 109			; 0000006dH
  000ef	56		 push	 esi
  000f0	ff 15 00 00 00
	00		 call	 DWORD PTR __imp__LoadAcceleratorsA@8
  000f6	89 85 b8 fe ff
	ff		 mov	 DWORD PTR _hAccelTable$[ebp], eax

; 223  : 
; 224  : 	#if(!DEV_SOCKET_MANAGER)
; 225  : 	GiocpInit();

  000fc	e8 00 00 00 00	 call	 ?GiocpInit@@YAXXZ	; GiocpInit

; 226  : 	#endif
; 227  : 	
; 228  : 	GameMainInit(ghWnd);

  00101	a1 00 00 00 00	 mov	 eax, DWORD PTR ?ghWnd@@3PAUHWND__@@A ; ghWnd
  00106	50		 push	 eax
  00107	e8 00 00 00 00	 call	 ?GameMainInit@@YAXPAUHWND__@@@Z ; GameMainInit

; 229  : 
; 230  : #ifdef _NEW_PT_SYSTEM_
; 231  : 	ZeroMemory(Zt_User,sizeof(Zt_User));

  0010c	68 40 0d 03 00	 push	 200000			; 00030d40H
  00111	57		 push	 edi
  00112	68 00 00 00 00	 push	 OFFSET ?Zt_User@@3PAUZt__User@@A ; Zt_User
  00117	e8 00 00 00 00	 call	 _memset

; 232  : #endif
; 233  : 
; 234  : 	WORD serverport;
; 235  : 
; 236  : 	memset(DataServerIp2, 0, sizeof(DataServerIp2));

  0011c	68 00 01 00 00	 push	 256			; 00000100H
  00121	57		 push	 edi
  00122	68 00 00 00 00	 push	 OFFSET ?DataServerIp2@@3PADA ; DataServerIp2
  00127	e8 00 00 00 00	 call	 _memset

; 237  : 	memset(ZtDbIp, 0, sizeof(ZtDbIp));

  0012c	68 00 01 00 00	 push	 256			; 00000100H
  00131	57		 push	 edi
  00132	68 00 00 00 00	 push	 OFFSET ?ZtDbIp@@3PADA	; ZtDbIp
  00137	e8 00 00 00 00	 call	 _memset

; 238  : 	DataServerPort2=0;
; 239  : 	ZtDbPort=0;
; 240  : 
; 241  : 	//if (strlen(lpCmdLine)>1) 
; 242  : 	//{
; 243  : 	//	sscanf(lpCmdLine, "%s %d %s %d %d %s %d %s %d" ,JoinServerIp, &JoinServerPort, DataServerIp, &DataServerPort, &serverport, DataServerIp2, &DataServerPort2, ZtDbIp, &ZtDbPort);
; 244  : 	//}
; 245  : 	//else 
; 246  : 	//{ 
; 247  : 	//	serverport=55900;
; 248  : 	//	JoinServerPort=55970;
; 249  : 	//	DataServerPort=55960;
; 250  : 	//	DataServerPort2=55962;
; 251  : 	//	ZtDbPort=55906;
; 252  : 	//	MsgBox(lMsg.Get( MSGGET(0, 114)) );
; 253  : 	//}
; 254  : 	//Danger Added Ip and Port
; 255  : 	//Game Server
; 256  : 	serverport = GetPrivateProfileInt("Connect","ServerPort",55901,".\\Connect.ini");

  0013c	8b 35 00 00 00
	00		 mov	 esi, DWORD PTR __imp__GetPrivateProfileIntA@16
  00142	83 c4 28	 add	 esp, 40			; 00000028H
  00145	68 00 00 00 00	 push	 OFFSET ??_C@_0O@BIJKOELJ@?4?2Connect?4ini?$AA@
  0014a	68 5d da 00 00	 push	 55901			; 0000da5dH
  0014f	68 00 00 00 00	 push	 OFFSET ??_C@_0L@COJEKOJM@ServerPort?$AA@
  00154	68 00 00 00 00	 push	 OFFSET ??_C@_07FJPHLACI@Connect?$AA@
  00159	89 3d 00 00 00
	00		 mov	 DWORD PTR ?DataServerPort2@@3HA, edi ; DataServerPort2
  0015f	89 3d 00 00 00
	00		 mov	 DWORD PTR ?ZtDbPort@@3HA, edi ; ZtDbPort
  00165	ff d6		 call	 esi

; 257  : 	//Join Server
; 258  : 	GetPrivateProfileStringA("Connect","JoinServerIp","127.0.0.1",JoinServerIp,sizeof(JoinServerIp),".\\Connect.ini");

  00167	8b 3d 00 00 00
	00		 mov	 edi, DWORD PTR __imp__GetPrivateProfileStringA@24
  0016d	68 00 00 00 00	 push	 OFFSET ??_C@_0O@BIJKOELJ@?4?2Connect?4ini?$AA@
  00172	68 00 01 00 00	 push	 256			; 00000100H
  00177	68 00 00 00 00	 push	 OFFSET ?JoinServerIp@@3PADA ; JoinServerIp
  0017c	68 00 00 00 00	 push	 OFFSET ??_C@_09PFCHIMEP@127?40?40?41?$AA@
  00181	68 00 00 00 00	 push	 OFFSET ??_C@_0N@HMOAICNG@JoinServerIp?$AA@
  00186	68 00 00 00 00	 push	 OFFSET ??_C@_07FJPHLACI@Connect?$AA@
  0018b	0f b7 d8	 movzx	 ebx, ax
  0018e	ff d7		 call	 edi

; 259  : 	JoinServerPort = GetPrivateProfileInt("Connect","JoinServerPort",55970,".\\Connect.ini");

  00190	68 00 00 00 00	 push	 OFFSET ??_C@_0O@BIJKOELJ@?4?2Connect?4ini?$AA@
  00195	68 a2 da 00 00	 push	 55970			; 0000daa2H
  0019a	68 00 00 00 00	 push	 OFFSET ??_C@_0P@KNHIEOID@JoinServerPort?$AA@
  0019f	68 00 00 00 00	 push	 OFFSET ??_C@_07FJPHLACI@Connect?$AA@
  001a4	ff d6		 call	 esi

; 260  : 	//Data Server
; 261  : 	GetPrivateProfileStringA("Connect","DataServerIp","127.0.0.1",DataServerIp,sizeof(DataServerIp),".\\Connect.ini");

  001a6	68 00 00 00 00	 push	 OFFSET ??_C@_0O@BIJKOELJ@?4?2Connect?4ini?$AA@
  001ab	68 00 01 00 00	 push	 256			; 00000100H
  001b0	68 00 00 00 00	 push	 OFFSET ?DataServerIp@@3PADA ; DataServerIp
  001b5	68 00 00 00 00	 push	 OFFSET ??_C@_09PFCHIMEP@127?40?40?41?$AA@
  001ba	68 00 00 00 00	 push	 OFFSET ??_C@_0N@PLFOIPDJ@DataServerIp?$AA@
  001bf	68 00 00 00 00	 push	 OFFSET ??_C@_07FJPHLACI@Connect?$AA@
  001c4	a3 00 00 00 00	 mov	 DWORD PTR ?JoinServerPort@@3HA, eax ; JoinServerPort
  001c9	ff d7		 call	 edi

; 262  : 	DataServerPort = GetPrivateProfileInt("Connect","DataServerPort",55960,".\\Connect.ini");

  001cb	68 00 00 00 00	 push	 OFFSET ??_C@_0O@BIJKOELJ@?4?2Connect?4ini?$AA@
  001d0	68 98 da 00 00	 push	 55960			; 0000da98H
  001d5	68 00 00 00 00	 push	 OFFSET ??_C@_0P@KCPFKKD@DataServerPort?$AA@
  001da	68 00 00 00 00	 push	 OFFSET ??_C@_07FJPHLACI@Connect?$AA@
  001df	ff d6		 call	 esi

; 263  : 	//Data Server 2
; 264  : 	GetPrivateProfileStringA("Connect","DataServerIp2","127.0.0.1",DataServerIp2,sizeof(DataServerIp2),".\\Connect.ini");

  001e1	68 00 00 00 00	 push	 OFFSET ??_C@_0O@BIJKOELJ@?4?2Connect?4ini?$AA@
  001e6	68 00 01 00 00	 push	 256			; 00000100H
  001eb	68 00 00 00 00	 push	 OFFSET ?DataServerIp2@@3PADA ; DataServerIp2
  001f0	68 00 00 00 00	 push	 OFFSET ??_C@_09PFCHIMEP@127?40?40?41?$AA@
  001f5	68 00 00 00 00	 push	 OFFSET ??_C@_0O@LCIOICPG@DataServerIp2?$AA@
  001fa	68 00 00 00 00	 push	 OFFSET ??_C@_07FJPHLACI@Connect?$AA@
  001ff	a3 00 00 00 00	 mov	 DWORD PTR ?DataServerPort@@3HA, eax ; DataServerPort
  00204	ff d7		 call	 edi

; 265  : 	DataServerPort2 = GetPrivateProfileInt("Connect","DataServerPort2",55962,".\\Connect.ini");

  00206	68 00 00 00 00	 push	 OFFSET ??_C@_0O@BIJKOELJ@?4?2Connect?4ini?$AA@
  0020b	68 9a da 00 00	 push	 55962			; 0000da9aH
  00210	68 00 00 00 00	 push	 OFFSET ??_C@_0BA@KCKFIJHJ@DataServerPort2?$AA@
  00215	68 00 00 00 00	 push	 OFFSET ??_C@_07FJPHLACI@Connect?$AA@
  0021a	ff d6		 call	 esi

; 266  : 	//Ex Data Base
; 267  : 	GetPrivateProfileStringA("Connect","ZtDbIp","127.0.0.1",ZtDbIp,sizeof(ZtDbIp),".\\Connect.ini");

  0021c	68 00 00 00 00	 push	 OFFSET ??_C@_0O@BIJKOELJ@?4?2Connect?4ini?$AA@
  00221	68 00 01 00 00	 push	 256			; 00000100H
  00226	68 00 00 00 00	 push	 OFFSET ?ZtDbIp@@3PADA	; ZtDbIp
  0022b	68 00 00 00 00	 push	 OFFSET ??_C@_09PFCHIMEP@127?40?40?41?$AA@
  00230	68 00 00 00 00	 push	 OFFSET ??_C@_06BJKNNHBH@ZtDbIp?$AA@
  00235	68 00 00 00 00	 push	 OFFSET ??_C@_07FJPHLACI@Connect?$AA@
  0023a	a3 00 00 00 00	 mov	 DWORD PTR ?DataServerPort2@@3HA, eax ; DataServerPort2
  0023f	ff d7		 call	 edi

; 268  : 	ZtDbPort = GetPrivateProfileInt("Connect","ZtDbPort",55906,".\\Connect.ini");

  00241	68 00 00 00 00	 push	 OFFSET ??_C@_0O@BIJKOELJ@?4?2Connect?4ini?$AA@
  00246	68 62 da 00 00	 push	 55906			; 0000da62H
  0024b	68 00 00 00 00	 push	 OFFSET ??_C@_08GEJIGILK@ZtDbPort?$AA@
  00250	68 00 00 00 00	 push	 OFFSET ??_C@_07FJPHLACI@Connect?$AA@
  00255	ff d6		 call	 esi

; 269  : 	//Ranking
; 270  : 	RankingPort = GetPrivateProfileInt("Connect","RankingPort",44455,".\\Connect.ini");

  00257	68 00 00 00 00	 push	 OFFSET ??_C@_0O@BIJKOELJ@?4?2Connect?4ini?$AA@
  0025c	68 a7 ad 00 00	 push	 44455			; 0000ada7H
  00261	68 00 00 00 00	 push	 OFFSET ??_C@_0M@JCIEAENJ@RankingPort?$AA@
  00266	68 00 00 00 00	 push	 OFFSET ??_C@_07FJPHLACI@Connect?$AA@
  0026b	a3 00 00 00 00	 mov	 DWORD PTR ?ZtDbPort@@3HA, eax ; ZtDbPort
  00270	ff d6		 call	 esi

; 271  : 	//Event
; 272  : 	EventPort = GetPrivateProfileInt("Connect","EventPort",44456,".\\Connect.ini");

  00272	68 00 00 00 00	 push	 OFFSET ??_C@_0O@BIJKOELJ@?4?2Connect?4ini?$AA@
  00277	68 a8 ad 00 00	 push	 44456			; 0000ada8H
  0027c	68 00 00 00 00	 push	 OFFSET ??_C@_09HDBOBPNA@EventPort?$AA@
  00281	68 00 00 00 00	 push	 OFFSET ??_C@_07FJPHLACI@Connect?$AA@
  00286	a3 00 00 00 00	 mov	 DWORD PTR ?RankingPort@@3HA, eax ; RankingPort
  0028b	ff d6		 call	 esi

; 273  : 	//MSSQL Fix
; 274  : 	MSSQL2008 = GetPrivateProfileInt("Connect","MSSQL2008",0,".\\Connect.ini");

  0028d	68 00 00 00 00	 push	 OFFSET ??_C@_0O@BIJKOELJ@?4?2Connect?4ini?$AA@
  00292	6a 00		 push	 0
  00294	68 00 00 00 00	 push	 OFFSET ??_C@_09CEBPADH@MSSQL2008?$AA@
  00299	68 00 00 00 00	 push	 OFFSET ??_C@_07FJPHLACI@Connect?$AA@
  0029e	a3 00 00 00 00	 mov	 DWORD PTR ?EventPort@@3HA, eax ; EventPort
  002a3	ff d6		 call	 esi
  002a5	85 c0		 test	 eax, eax
  002a7	0f 95 c1	 setne	 cl

; 275  : 	
; 276  : 
; 277  : 	
; 278  : 	if ( DataServerIp2[0] == 0 )

  002aa	80 3d 00 00 00
	00 00		 cmp	 BYTE PTR ?DataServerIp2@@3PADA, 0
  002b1	88 0d 00 00 00
	00		 mov	 BYTE PTR ?MSSQL2008@@3_NA, cl ; MSSQL2008
  002b7	75 11		 jne	 SHORT $LN15@WinMain

; 279  : 		memcpy(DataServerIp2, DataServerIp, sizeof(DataServerIp2));

  002b9	b9 40 00 00 00	 mov	 ecx, 64			; 00000040H
  002be	be 00 00 00 00	 mov	 esi, OFFSET ?DataServerIp@@3PADA ; DataServerIp
  002c3	bf 00 00 00 00	 mov	 edi, OFFSET ?DataServerIp2@@3PADA ; DataServerIp2
  002c8	f3 a5		 rep movsd
$LN15@WinMain:

; 280  : 
; 281  : 	if ( DataServerPort2 == 0 )

  002ca	83 3d 00 00 00
	00 00		 cmp	 DWORD PTR ?DataServerPort2@@3HA, 0 ; DataServerPort2
  002d1	75 0a		 jne	 SHORT $LN6@WinMain

; 282  : 		DataServerPort2 = 55962;

  002d3	c7 05 00 00 00
	00 9a da 00 00	 mov	 DWORD PTR ?DataServerPort2@@3HA, 55962 ; DataServerPort2, 0000da9aH
$LN6@WinMain:

; 283  : 
; 284  : 	if ( ZtDbIp[0] == 0 )

  002dd	80 3d 00 00 00
	00 00		 cmp	 BYTE PTR ?ZtDbIp@@3PADA, 0
  002e4	75 11		 jne	 SHORT $LN5@WinMain

; 285  : 		memcpy(ZtDbIp, DataServerIp, sizeof(ZtDbIp));

  002e6	b9 40 00 00 00	 mov	 ecx, 64			; 00000040H
  002eb	be 00 00 00 00	 mov	 esi, OFFSET ?DataServerIp@@3PADA ; DataServerIp
  002f0	bf 00 00 00 00	 mov	 edi, OFFSET ?ZtDbIp@@3PADA ; ZtDbIp
  002f5	f3 a5		 rep movsd
$LN5@WinMain:

; 286  : 
; 287  : 	if ( ZtDbPort == 0 )

  002f7	83 3d 00 00 00
	00 00		 cmp	 DWORD PTR ?ZtDbPort@@3HA, 0 ; ZtDbPort
  002fe	75 0a		 jne	 SHORT $LN4@WinMain

; 288  : 		ZtDbPort = 55906;

  00300	c7 05 00 00 00
	00 62 da 00 00	 mov	 DWORD PTR ?ZtDbPort@@3HA, 55906 ; ZtDbPort, 0000da62H
$LN4@WinMain:

; 289  : 
; 290  : 	GameServerPort=serverport; 
; 291  : 
; 292  : 	gWhatsUpDummyServer.Start(ghWnd, GameServerPort+1);

  0030a	8b 15 00 00 00
	00		 mov	 edx, DWORD PTR ?ghWnd@@3PAUHWND__@@A ; ghWnd
  00310	8b c3		 mov	 eax, ebx
  00312	a3 00 00 00 00	 mov	 DWORD PTR ?GameServerPort@@3HA, eax ; GameServerPort
  00317	40		 inc	 eax
  00318	50		 push	 eax
  00319	52		 push	 edx
  0031a	b9 00 00 00 00	 mov	 ecx, OFFSET ?gWhatsUpDummyServer@@3VCWhatsUpDummyServer@@A ; gWhatsUpDummyServer
  0031f	e8 00 00 00 00	 call	 ?Start@CWhatsUpDummyServer@@QAEHPAUHWND__@@G@Z ; CWhatsUpDummyServer::Start

; 293  : 
; 294  : 	AllServerStart();

  00324	e8 00 00 00 00	 call	 ?AllServerStart@@YAHXZ	; AllServerStart

; 295  : 
; 296  : 	DeleteLogs();

  00329	e8 00 00 00 00	 call	 ?DeleteLogs@@YAXXZ	; DeleteLogs

; 297  : 
; 298  : 	gRanking.SendDS();

  0032e	b9 00 00 00 00	 mov	 ecx, OFFSET ?gRanking@@3VcRanking@@A ; gRanking
  00333	e8 00 00 00 00	 call	 ?SendDS@cRanking@@QAEXXZ ; cRanking::SendDS

; 299  : 
; 300  : #ifdef _VOTER_
; 301  : 	gVoter.Mootop();

  00338	b9 00 00 00 00	 mov	 ecx, OFFSET ?gVoter@@3VVoter@@A ; gVoter
  0033d	e8 00 00 00 00	 call	 ?Mootop@Voter@@QAEXXZ	; Voter::Mootop

; 302  : 	gVoter.Qtop();

  00342	b9 00 00 00 00	 mov	 ecx, OFFSET ?gVoter@@3VVoter@@A ; gVoter
  00347	e8 00 00 00 00	 call	 ?Qtop@Voter@@QAEXXZ	; Voter::Qtop

; 303  : 	gVoter.Anons();

  0034c	b9 00 00 00 00	 mov	 ecx, OFFSET ?gVoter@@3VVoter@@A ; gVoter
  00351	e8 00 00 00 00	 call	 ?Anons@Voter@@QAEXXZ	; Voter::Anons

; 304  : #endif
; 305  : 
; 306  : #if(ENABLE_RAM_MIN)
; 307  : 	CreateThread (0, 0, (LPTHREAD_START_ROUTINE)RamOptimization, 0, 0 , 0);
; 308  : #endif
; 309  : 
; 310  : 	while(GetMessage(&msg, NULL, 0, 0) != 0)

  00356	8b 35 00 00 00
	00		 mov	 esi, DWORD PTR __imp__GetMessageA@16
  0035c	6a 00		 push	 0
  0035e	6a 00		 push	 0
  00360	6a 00		 push	 0
  00362	8d 85 9c fe ff
	ff		 lea	 eax, DWORD PTR _msg$[ebp]
  00368	50		 push	 eax
  00369	ff d6		 call	 esi
  0036b	85 c0		 test	 eax, eax
  0036d	74 55		 je	 SHORT $LN2@WinMain
  0036f	8b 3d 00 00 00
	00		 mov	 edi, DWORD PTR __imp__TranslateAcceleratorA@12
  00375	8b 1d 00 00 00
	00		 mov	 ebx, DWORD PTR __imp__TranslateMessage@4
  0037b	eb 03 8d 49 00	 npad	 5
$LL3@WinMain:

; 311  : 	{
; 312  : 		if (!TranslateAccelerator(msg.hwnd,hAccelTable,&msg))

  00380	8b 95 b8 fe ff
	ff		 mov	 edx, DWORD PTR _hAccelTable$[ebp]
  00386	8b 85 9c fe ff
	ff		 mov	 eax, DWORD PTR _msg$[ebp]
  0038c	8d 8d 9c fe ff
	ff		 lea	 ecx, DWORD PTR _msg$[ebp]
  00392	51		 push	 ecx
  00393	52		 push	 edx
  00394	50		 push	 eax
  00395	ff d7		 call	 edi
  00397	85 c0		 test	 eax, eax
  00399	75 16		 jne	 SHORT $LN1@WinMain

; 313  : 		{
; 314  : 		    TranslateMessage(&msg);

  0039b	8d 8d 9c fe ff
	ff		 lea	 ecx, DWORD PTR _msg$[ebp]
  003a1	51		 push	 ecx
  003a2	ff d3		 call	 ebx

; 315  : 		    DispatchMessage(&msg);

  003a4	8d 95 9c fe ff
	ff		 lea	 edx, DWORD PTR _msg$[ebp]
  003aa	52		 push	 edx
  003ab	ff 15 00 00 00
	00		 call	 DWORD PTR __imp__DispatchMessageA@4
$LN1@WinMain:

; 304  : #endif
; 305  : 
; 306  : #if(ENABLE_RAM_MIN)
; 307  : 	CreateThread (0, 0, (LPTHREAD_START_ROUTINE)RamOptimization, 0, 0 , 0);
; 308  : #endif
; 309  : 
; 310  : 	while(GetMessage(&msg, NULL, 0, 0) != 0)

  003b1	6a 00		 push	 0
  003b3	6a 00		 push	 0
  003b5	6a 00		 push	 0
  003b7	8d 85 9c fe ff
	ff		 lea	 eax, DWORD PTR _msg$[ebp]
  003bd	50		 push	 eax
  003be	ff d6		 call	 esi
  003c0	85 c0		 test	 eax, eax
  003c2	75 bc		 jne	 SHORT $LL3@WinMain
$LN2@WinMain:

; 316  : 		}
; 317  : 	}
; 318  : 
; 319  : 	CMiniDump::End();

  003c4	e8 00 00 00 00	 call	 ?End@CMiniDump@@SAHXZ	; CMiniDump::End

; 320  : 	return msg.wParam;
; 321  : }

  003c9	8b 4d fc	 mov	 ecx, DWORD PTR __$ArrayPad$[ebp]
  003cc	8b 85 a4 fe ff
	ff		 mov	 eax, DWORD PTR _msg$[ebp+8]
  003d2	5b		 pop	 ebx
  003d3	5f		 pop	 edi
  003d4	33 cd		 xor	 ecx, ebp
  003d6	5e		 pop	 esi
  003d7	e8 00 00 00 00	 call	 @__security_check_cookie@4
  003dc	8b e5		 mov	 esp, ebp
  003de	5d		 pop	 ebp
  003df	c2 10 00	 ret	 16			; 00000010H
_WinMain@16 ENDP
_TEXT	ENDS
EXTRN	_atexit:PROC
EXTRN	??0CRingMonsterHerd@@QAE@XZ:PROC		; CRingMonsterHerd::CRingMonsterHerd
; Function compile flags: /Ogtp
;	COMDAT ??__Eg_MonsterHerdTest@@YAXXZ
text$yc	SEGMENT
??__Eg_MonsterHerdTest@@YAXXZ PROC			; `dynamic initializer for 'g_MonsterHerdTest'', COMDAT

; 103  : CRingMonsterHerd g_MonsterHerdTest;

  00000	b9 00 00 00 00	 mov	 ecx, OFFSET ?g_MonsterHerdTest@@3VCRingMonsterHerd@@A ; g_MonsterHerdTest
  00005	e8 00 00 00 00	 call	 ??0CRingMonsterHerd@@QAE@XZ ; CRingMonsterHerd::CRingMonsterHerd
  0000a	68 00 00 00 00	 push	 OFFSET ??__Fg_MonsterHerdTest@@YAXXZ ; `dynamic atexit destructor for 'g_MonsterHerdTest''
  0000f	e8 00 00 00 00	 call	 _atexit
  00014	59		 pop	 ecx
  00015	c3		 ret	 0
??__Eg_MonsterHerdTest@@YAXXZ ENDP			; `dynamic initializer for 'g_MonsterHerdTest''
text$yc	ENDS
EXTRN	??0CRingAttackEvent@@QAE@XZ:PROC		; CRingAttackEvent::CRingAttackEvent
; Function compile flags: /Ogtp
;	COMDAT ??__Eg_RingAttackEvent@@YAXXZ
text$yc	SEGMENT
??__Eg_RingAttackEvent@@YAXXZ PROC			; `dynamic initializer for 'g_RingAttackEvent'', COMDAT

; 104  : CRingAttackEvent g_RingAttackEvent;

  00000	b9 00 00 00 00	 mov	 ecx, OFFSET ?g_RingAttackEvent@@3VCRingAttackEvent@@A ; g_RingAttackEvent
  00005	e8 00 00 00 00	 call	 ??0CRingAttackEvent@@QAE@XZ ; CRingAttackEvent::CRingAttackEvent
  0000a	68 00 00 00 00	 push	 OFFSET ??__Fg_RingAttackEvent@@YAXXZ ; `dynamic atexit destructor for 'g_RingAttackEvent''
  0000f	e8 00 00 00 00	 call	 _atexit
  00014	59		 pop	 ecx
  00015	c3		 ret	 0
??__Eg_RingAttackEvent@@YAXXZ ENDP			; `dynamic initializer for 'g_RingAttackEvent''
text$yc	ENDS
EXTRN	??0CXMasAttackEvent@@QAE@XZ:PROC		; CXMasAttackEvent::CXMasAttackEvent
; Function compile flags: /Ogtp
;	COMDAT ??__Eg_XMasAttackEvent@@YAXXZ
text$yc	SEGMENT
??__Eg_XMasAttackEvent@@YAXXZ PROC			; `dynamic initializer for 'g_XMasAttackEvent'', COMDAT

; 105  : CXMasAttackEvent g_XMasAttackEvent;

  00000	b9 00 00 00 00	 mov	 ecx, OFFSET ?g_XMasAttackEvent@@3VCXMasAttackEvent@@A ; g_XMasAttackEvent
  00005	e8 00 00 00 00	 call	 ??0CXMasAttackEvent@@QAE@XZ ; CXMasAttackEvent::CXMasAttackEvent
  0000a	68 00 00 00 00	 push	 OFFSET ??__Fg_XMasAttackEvent@@YAXXZ ; `dynamic atexit destructor for 'g_XMasAttackEvent''
  0000f	e8 00 00 00 00	 call	 _atexit
  00014	59		 pop	 ecx
  00015	c3		 ret	 0
??__Eg_XMasAttackEvent@@YAXXZ ENDP			; `dynamic initializer for 'g_XMasAttackEvent''
text$yc	ENDS
EXTRN	??0CWhatsUpDummyServer@@QAE@XZ:PROC		; CWhatsUpDummyServer::CWhatsUpDummyServer
; Function compile flags: /Ogtp
;	COMDAT ??__EgWhatsUpDummyServer@@YAXXZ
text$yc	SEGMENT
??__EgWhatsUpDummyServer@@YAXXZ PROC			; `dynamic initializer for 'gWhatsUpDummyServer'', COMDAT

; 106  : CWhatsUpDummyServer gWhatsUpDummyServer;

  00000	b9 00 00 00 00	 mov	 ecx, OFFSET ?gWhatsUpDummyServer@@3VCWhatsUpDummyServer@@A ; gWhatsUpDummyServer
  00005	e8 00 00 00 00	 call	 ??0CWhatsUpDummyServer@@QAE@XZ ; CWhatsUpDummyServer::CWhatsUpDummyServer
  0000a	68 00 00 00 00	 push	 OFFSET ??__FgWhatsUpDummyServer@@YAXXZ ; `dynamic atexit destructor for 'gWhatsUpDummyServer''
  0000f	e8 00 00 00 00	 call	 _atexit
  00014	59		 pop	 ecx
  00015	c3		 ret	 0
??__EgWhatsUpDummyServer@@YAXXZ ENDP			; `dynamic initializer for 'gWhatsUpDummyServer''
text$yc	ENDS
PUBLIC	??_C@_06CNKIADGI@ZtTeam?$AA@			; `string'
PUBLIC	??_C@_08DOELPLFP@NsEngine?$AA@			; `string'
PUBLIC	??_C@_0BM@FGLABAKE@?4?4?2Data?2ZtData?2ZtCustom?4ini?$AA@ ; `string'
;	COMDAT ??_C@_06CNKIADGI@ZtTeam?$AA@
CONST	SEGMENT
??_C@_06CNKIADGI@ZtTeam?$AA@ DB 'ZtTeam', 00H		; `string'
CONST	ENDS
;	COMDAT ??_C@_08DOELPLFP@NsEngine?$AA@
CONST	SEGMENT
??_C@_08DOELPLFP@NsEngine?$AA@ DB 'NsEngine', 00H	; `string'
CONST	ENDS
;	COMDAT ??_C@_0BM@FGLABAKE@?4?4?2Data?2ZtData?2ZtCustom?4ini?$AA@
CONST	SEGMENT
??_C@_0BM@FGLABAKE@?4?4?2Data?2ZtData?2ZtCustom?4ini?$AA@ DB '..\Data\ZtD'
	DB	'ata\ZtCustom.ini', 00H			; `string'
; Function compile flags: /Ogtp
CONST	ENDS
;	COMDAT ??__ENsEngine@@YAXXZ
text$yc	SEGMENT
??__ENsEngine@@YAXXZ PROC				; `dynamic initializer for 'NsEngine'', COMDAT

; 122  : bool NsEngine = GetPrivateProfileInt("ZtTeam","NsEngine",0,ZtCustom_DIR);

  00000	68 00 00 00 00	 push	 OFFSET ??_C@_0BM@FGLABAKE@?4?4?2Data?2ZtData?2ZtCustom?4ini?$AA@
  00005	6a 00		 push	 0
  00007	68 00 00 00 00	 push	 OFFSET ??_C@_08DOELPLFP@NsEngine?$AA@
  0000c	68 00 00 00 00	 push	 OFFSET ??_C@_06CNKIADGI@ZtTeam?$AA@
  00011	ff 15 00 00 00
	00		 call	 DWORD PTR __imp__GetPrivateProfileIntA@16
  00017	85 c0		 test	 eax, eax
  00019	0f 95 c0	 setne	 al
  0001c	a2 00 00 00 00	 mov	 BYTE PTR ?NsEngine@@3_NA, al ; NsEngine
  00021	c3		 ret	 0
??__ENsEngine@@YAXXZ ENDP				; `dynamic initializer for 'NsEngine''
; Function compile flags: /Ogtp
text$yc	ENDS
;	COMDAT ??__EhBushFont@@YAXXZ
text$yc	SEGMENT
??__EhBushFont@@YAXXZ PROC				; `dynamic initializer for 'hBushFont'', COMDAT

; 125  : HBRUSH hBushFont = CreateSolidBrush(COLORREF(RGB(30,30,30)));

  00000	68 1e 1e 1e 00	 push	 1973790			; 001e1e1eH
  00005	ff 15 00 00 00
	00		 call	 DWORD PTR __imp__CreateSolidBrush@4
  0000b	a3 00 00 00 00	 mov	 DWORD PTR ?hBushFont@@3PAUHBRUSH__@@A, eax ; hBushFont
  00010	c3		 ret	 0
??__EhBushFont@@YAXXZ ENDP				; `dynamic initializer for 'hBushFont''
text$yc	ENDS
EXTRN	??1CRingMonsterHerd@@UAE@XZ:PROC		; CRingMonsterHerd::~CRingMonsterHerd
; Function compile flags: /Ogtp
;	COMDAT ??__Fg_MonsterHerdTest@@YAXXZ
text$yd	SEGMENT
??__Fg_MonsterHerdTest@@YAXXZ PROC			; `dynamic atexit destructor for 'g_MonsterHerdTest'', COMDAT
  00000	b9 00 00 00 00	 mov	 ecx, OFFSET ?g_MonsterHerdTest@@3VCRingMonsterHerd@@A ; g_MonsterHerdTest
  00005	e9 00 00 00 00	 jmp	 ??1CRingMonsterHerd@@UAE@XZ ; CRingMonsterHerd::~CRingMonsterHerd
??__Fg_MonsterHerdTest@@YAXXZ ENDP			; `dynamic atexit destructor for 'g_MonsterHerdTest''
text$yd	ENDS
EXTRN	??1CRingAttackEvent@@UAE@XZ:PROC		; CRingAttackEvent::~CRingAttackEvent
; Function compile flags: /Ogtp
;	COMDAT ??__Fg_RingAttackEvent@@YAXXZ
text$yd	SEGMENT
??__Fg_RingAttackEvent@@YAXXZ PROC			; `dynamic atexit destructor for 'g_RingAttackEvent'', COMDAT
  00000	b9 00 00 00 00	 mov	 ecx, OFFSET ?g_RingAttackEvent@@3VCRingAttackEvent@@A ; g_RingAttackEvent
  00005	e9 00 00 00 00	 jmp	 ??1CRingAttackEvent@@UAE@XZ ; CRingAttackEvent::~CRingAttackEvent
??__Fg_RingAttackEvent@@YAXXZ ENDP			; `dynamic atexit destructor for 'g_RingAttackEvent''
text$yd	ENDS
EXTRN	??1CXMasAttackEvent@@UAE@XZ:PROC		; CXMasAttackEvent::~CXMasAttackEvent
; Function compile flags: /Ogtp
;	COMDAT ??__Fg_XMasAttackEvent@@YAXXZ
text$yd	SEGMENT
??__Fg_XMasAttackEvent@@YAXXZ PROC			; `dynamic atexit destructor for 'g_XMasAttackEvent'', COMDAT
  00000	b9 00 00 00 00	 mov	 ecx, OFFSET ?g_XMasAttackEvent@@3VCXMasAttackEvent@@A ; g_XMasAttackEvent
  00005	e9 00 00 00 00	 jmp	 ??1CXMasAttackEvent@@UAE@XZ ; CXMasAttackEvent::~CXMasAttackEvent
??__Fg_XMasAttackEvent@@YAXXZ ENDP			; `dynamic atexit destructor for 'g_XMasAttackEvent''
text$yd	ENDS
EXTRN	??1CWhatsUpDummyServer@@QAE@XZ:PROC		; CWhatsUpDummyServer::~CWhatsUpDummyServer
; Function compile flags: /Ogtp
;	COMDAT ??__FgWhatsUpDummyServer@@YAXXZ
text$yd	SEGMENT
??__FgWhatsUpDummyServer@@YAXXZ PROC			; `dynamic atexit destructor for 'gWhatsUpDummyServer'', COMDAT
  00000	b9 00 00 00 00	 mov	 ecx, OFFSET ?gWhatsUpDummyServer@@3VCWhatsUpDummyServer@@A ; gWhatsUpDummyServer
  00005	e9 00 00 00 00	 jmp	 ??1CWhatsUpDummyServer@@QAE@XZ ; CWhatsUpDummyServer::~CWhatsUpDummyServer
??__FgWhatsUpDummyServer@@YAXXZ ENDP			; `dynamic atexit destructor for 'gWhatsUpDummyServer''
text$yd	ENDS
PUBLIC	?hBushFont@@3PAUHBRUSH__@@A			; hBushFont
PUBLIC	?NsEngine@@3_NA					; NsEngine
PUBLIC	?gWhatsUpDummyServer@@3VCWhatsUpDummyServer@@A	; gWhatsUpDummyServer
PUBLIC	?g_XMasAttackEvent@@3VCXMasAttackEvent@@A	; g_XMasAttackEvent
PUBLIC	?g_RingAttackEvent@@3VCRingAttackEvent@@A	; g_RingAttackEvent
PUBLIC	?g_MonsterHerdTest@@3VCRingMonsterHerd@@A	; g_MonsterHerdTest
_BSS	SEGMENT
?hBushFont@@3PAUHBRUSH__@@A DD 01H DUP (?)		; hBushFont
?NsEngine@@3_NA DB 01H DUP (?)				; NsEngine
	ALIGN	4

?gWhatsUpDummyServer@@3VCWhatsUpDummyServer@@A DB 0cH DUP (?) ; gWhatsUpDummyServer
?g_XMasAttackEvent@@3VCXMasAttackEvent@@A DB 094H DUP (?) ; g_XMasAttackEvent
?g_RingAttackEvent@@3VCRingAttackEvent@@A DB 0158H DUP (?) ; g_RingAttackEvent
?g_MonsterHerdTest@@3VCRingMonsterHerd@@A DB 04cH DUP (?) ; g_MonsterHerdTest
_BSS	ENDS
CRT$XCU	SEGMENT
_g_MonsterHerdTest$initializer$ DD FLAT:??__Eg_MonsterHerdTest@@YAXXZ
_g_RingAttackEvent$initializer$ DD FLAT:??__Eg_RingAttackEvent@@YAXXZ
_g_XMasAttackEvent$initializer$ DD FLAT:??__Eg_XMasAttackEvent@@YAXXZ
_gWhatsUpDummyServer$initializer$ DD FLAT:??__EgWhatsUpDummyServer@@YAXXZ
_NsEngine$initializer$ DD FLAT:??__ENsEngine@@YAXXZ
_hBushFont$initializer$ DD FLAT:??__EhBushFont@@YAXXZ
CRT$XCU	ENDS
END
