; Listing generated by Microsoft (R) Optimizing Compiler Version 16.00.30319.01 

	TITLE	E:\work\tranet_version\GS\GameServer\Gate.cpp
	.686P
	.XMM
	include listing.inc
	.model	flat

INCLUDELIB LIBCMT
INCLUDELIB OLDNAMES

_DATA	SEGMENT
_g_iNpcUpDfLevel_CGATE DD 01H
	DD	02H
	DD	02dc6c0H
	DD	02H
	DD	03H
	DD	02dc6c0H
	DD	03H
	DD	04H
	DD	02dc6c0H
_g_iNpcUpDfLevel_CSTATUE DD 01H
	DD	03H
	DD	02dc6c0H
	DD	02H
	DD	05H
	DD	02dc6c0H
	DD	03H
	DD	07H
	DD	02dc6c0H
_g_iNpcUpMaxHP_CGATE DD 02625a0H
	DD	02H
	DD	0f4240H
	DD	03567e0H
	DD	03H
	DD	0f4240H
	DD	04f5880H
	DD	04H
	DD	0f4240H
_g_iNpcUpMaxHP_CSTATUE DD 02191c0H
	DD	03H
	DD	0f4240H
	DD	033e140H
	DD	05H
	DD	0f4240H
	DD	04c4b40H
	DD	07H
	DD	0f4240H
_g_iNpcUpRgLevel_CSTATUE DD 01H
	DD	03H
	DD	04c4b40H
	DD	02H
	DD	05H
	DD	04c4b40H
	DD	03H
	DD	07H
	DD	04c4b40H
_g_iCsUserReSpawnArea DD 023H
	DD	011H
	DD	090H
	DD	030H
	DD	04aH
	DD	090H
	DD	073H
	DD	09aH
	DD	023H
	DD	011H
	DD	090H
	DD	030H
_g_iNpcDefense_CGATE DD 064H
	DD	0b4H
	DD	012cH
	DD	0208H
_g_iNpcDefense_CSTATUE DD 050H
	DD	0b4H
	DD	0154H
	DD	0226H
_g_iCastleWallStepAxisY DD 071H
	DD	0a0H
	DD	0cbH
_DATA	ENDS
PUBLIC	??_H@YGXPAXIHP6EPAX0@Z@Z			; `vector constructor iterator'
; Function compile flags: /Ogtp
;	COMDAT ??_H@YGXPAXIHP6EPAX0@Z@Z
_TEXT	SEGMENT
___t$ = 8						; size = 4
___s$ = 12						; size = 4
___n$ = 16						; size = 4
___f$ = 20						; size = 4
??_H@YGXPAXIHP6EPAX0@Z@Z PROC				; `vector constructor iterator', COMDAT
  00000	55		 push	 ebp
  00001	8b ec		 mov	 ebp, esp
  00003	57		 push	 edi
  00004	8b 7d 10	 mov	 edi, DWORD PTR ___n$[ebp]
  00007	4f		 dec	 edi
  00008	78 14		 js	 SHORT $LN1@vector
  0000a	53		 push	 ebx
  0000b	8b 5d 14	 mov	 ebx, DWORD PTR ___f$[ebp]
  0000e	56		 push	 esi
  0000f	8b 75 08	 mov	 esi, DWORD PTR ___t$[ebp]
$LL2@vector:
  00012	8b ce		 mov	 ecx, esi
  00014	ff d3		 call	 ebx
  00016	03 75 0c	 add	 esi, DWORD PTR ___s$[ebp]
  00019	4f		 dec	 edi
  0001a	79 f6		 jns	 SHORT $LL2@vector
  0001c	5e		 pop	 esi
  0001d	5b		 pop	 ebx
$LN1@vector:
  0001e	5f		 pop	 edi
  0001f	5d		 pop	 ebp
  00020	c2 10 00	 ret	 16			; 00000010H
??_H@YGXPAXIHP6EPAX0@Z@Z ENDP				; `vector constructor iterator'
_TEXT	ENDS
PUBLIC	__$ArrayPad$
EXTRN	_isalnum:PROC
EXTRN	_isalpha:PROC
EXTRN	_atof:PROC
EXTRN	_isdigit:PROC
EXTRN	_getc:PROC
EXTRN	_ungetc:PROC
EXTRN	_isspace:PROC
EXTRN	_fgetc:PROC
EXTRN	___security_cookie:DWORD
EXTRN	__fltused:DWORD
EXTRN	@__security_check_cookie@4:PROC
_BSS	SEGMENT
_CurrentToken DD 01H DUP (?)
_TokenNumber DD	01H DUP (?)
_SMDFile DD	01H DUP (?)
_TokenString DB	064H DUP (?)
; Function compile flags: /Ogtp
; File e:\work\tranet_version\gs\include\readscript.h
_BSS	ENDS
;	COMDAT ?GetToken@@YA?AW4SMDToken@@XZ
_TEXT	SEGMENT
_TempString$ = -104					; size = 100
__$ArrayPad$ = -4					; size = 4
?GetToken@@YA?AW4SMDToken@@XZ PROC			; GetToken, COMDAT

; 24   : {

  00000	55		 push	 ebp
  00001	8b ec		 mov	 ebp, esp
  00003	83 ec 68	 sub	 esp, 104		; 00000068H
  00006	a1 00 00 00 00	 mov	 eax, DWORD PTR ___security_cookie
  0000b	33 c5		 xor	 eax, ebp
  0000d	89 45 fc	 mov	 DWORD PTR __$ArrayPad$[ebp], eax

; 25   : 	char ch;
; 26   : 	char* p;
; 27   : 	char TempString[100];
; 28   : 
; 29   : 	TokenString[0]=0;

  00010	c6 05 00 00 00
	00 00		 mov	 BYTE PTR _TokenString, 0
  00017	53		 push	 ebx
  00018	eb 06 8d 9b 00
	00 00 00	 npad	 8
$LL31@GetToken:

; 30   : 
; 31   : 	do
; 32   : 	{
; 33   : 		if ((ch=fgetc(SMDFile)) == -1)

  00020	a1 00 00 00 00	 mov	 eax, DWORD PTR _SMDFile
  00025	50		 push	 eax
  00026	e8 00 00 00 00	 call	 _fgetc
  0002b	8a d8		 mov	 bl, al
  0002d	83 c4 04	 add	 esp, 4
  00030	80 fb ff	 cmp	 bl, -1
  00033	74 64		 je	 SHORT $LN39@GetToken

; 36   : 		}
; 37   : 		else
; 38   : 		{	
; 39   : 			if (ch=='/')		// this is /

  00035	80 fb 2f	 cmp	 bl, 47			; 0000002fH
  00038	75 31		 jne	 SHORT $LN30@GetToken

; 40   : 			{
; 41   : 				if((ch=fgetc(SMDFile)) == '/')

  0003a	8b 0d 00 00 00
	00		 mov	 ecx, DWORD PTR _SMDFile
  00040	51		 push	 ecx
  00041	e8 00 00 00 00	 call	 _fgetc
  00046	8a d8		 mov	 bl, al
  00048	83 c4 04	 add	 esp, 4
  0004b	80 fb 2f	 cmp	 bl, 47			; 0000002fH
  0004e	75 1b		 jne	 SHORT $LN30@GetToken
$LL24@GetToken:

; 42   : 				{
; 43   : 					while ((ch != '\n') && (ch != -1))	// End of Line (EOL)

  00050	80 fb ff	 cmp	 bl, -1
  00053	74 44		 je	 SHORT $LN39@GetToken

; 44   : 					{
; 45   : 						ch=fgetc(SMDFile);

  00055	8b 15 00 00 00
	00		 mov	 edx, DWORD PTR _SMDFile
  0005b	52		 push	 edx
  0005c	e8 00 00 00 00	 call	 _fgetc
  00061	8a d8		 mov	 bl, al
  00063	83 c4 04	 add	 esp, 4
  00066	80 fb 0a	 cmp	 bl, 10			; 0000000aH
  00069	75 e5		 jne	 SHORT $LL24@GetToken
$LN30@GetToken:

; 46   : 					}
; 47   : 	
; 48   : 					if (ch == -1)
; 49   : 					{
; 50   : 						return END;	// End of FILE
; 51   : 					}
; 52   : 				}
; 53   : 			}
; 54   : 		}
; 55   : 	}
; 56   : 	while (isspace(ch) != 0);

  0006b	0f be c3	 movsx	 eax, bl
  0006e	50		 push	 eax
  0006f	e8 00 00 00 00	 call	 _isspace
  00074	83 c4 04	 add	 esp, 4
  00077	85 c0		 test	 eax, eax
  00079	75 a5		 jne	 SHORT $LL31@GetToken

; 57   : 
; 58   : 	
; 59   : 	switch(ch)

  0007b	0f be c3	 movsx	 eax, bl
  0007e	8d 48 de	 lea	 ecx, DWORD PTR [eax-34]
  00081	56		 push	 esi
  00082	83 f9 5b	 cmp	 ecx, 91			; 0000005bH
  00085	0f 87 2b 01 00
	00		 ja	 $LN6@GetToken
  0008b	0f b6 89 00 00
	00 00		 movzx	 ecx, BYTE PTR $LN46@GetToken[ecx]
  00092	ff 24 8d 00 00
	00 00		 jmp	 DWORD PTR $LN50@GetToken[ecx*4]
$LN39@GetToken:

; 34   : 		{
; 35   : 			return END;	// End of FILE (EOF)

  00099	b8 02 00 00 00	 mov	 eax, 2
  0009e	5b		 pop	 ebx

; 147  : 		}
; 148  : 		break;
; 149  : 
; 150  : 	}
; 151  : 
; 152  : 	return NAME;
; 153  : }

  0009f	8b 4d fc	 mov	 ecx, DWORD PTR __$ArrayPad$[ebp]
  000a2	33 cd		 xor	 ecx, ebp
  000a4	e8 00 00 00 00	 call	 @__security_check_cookie@4
  000a9	8b e5		 mov	 esp, ebp
  000ab	5d		 pop	 ebp
  000ac	c3		 ret	 0
$LN19@GetToken:

; 60   : 	{
; 61   : 
; 62   : 	case 0x23:	// #
; 63   : 		return CurrentToken=COMMAND;

  000ad	b8 23 00 00 00	 mov	 eax, 35			; 00000023H
  000b2	e9 99 01 00 00	 jmp	 $LN48@GetToken
$LN18@GetToken:

; 64   : 		break;
; 65   : 	
; 66   : 	case 0x3B:	// ;
; 67   : 		return CurrentToken=SEMICOLON;

  000b7	b8 3b 00 00 00	 mov	 eax, 59			; 0000003bH
  000bc	e9 8f 01 00 00	 jmp	 $LN48@GetToken
$LN17@GetToken:

; 68   : 		break;
; 69   : 	
; 70   : 	case 0x2C:	// ,
; 71   : 
; 72   : 		return CurrentToken=COMMA;

  000c1	b8 2c 00 00 00	 mov	 eax, 44			; 0000002cH
  000c6	e9 85 01 00 00	 jmp	 $LN48@GetToken
$LN16@GetToken:

; 73   : 		break;
; 74   : 	
; 75   : 	case 0x7B:	// {
; 76   : 		return CurrentToken = LP;

  000cb	b8 7b 00 00 00	 mov	 eax, 123		; 0000007bH
  000d0	e9 7b 01 00 00	 jmp	 $LN48@GetToken
$LN15@GetToken:

; 77   : 		break;
; 78   : 
; 79   : 	case 0x7D:	// }
; 80   : 		return CurrentToken = RP;

  000d5	b8 7d 00 00 00	 mov	 eax, 125		; 0000007dH
  000da	e9 71 01 00 00	 jmp	 $LN48@GetToken
$LN14@GetToken:

; 81   : 		break;
; 82   : 	// Nice Index Table :)	by Deathway
; 83   : 	// Numbers Case
; 84   : 	case 0x2D:	//-
; 85   : 	case 0x2E:	//.
; 86   : 	case '0':	//0
; 87   : 	case '1':	//1
; 88   : 	case '2':	//2
; 89   : 	case '3':	//3
; 90   : 	case '4':	//4		
; 91   : 	case '5':	//5
; 92   : 	case '6':	//6
; 93   : 	case '7':	//7
; 94   : 	case '8':	//8
; 95   : 	case '9':	//9
; 96   : 		ungetc(ch, SMDFile);

  000df	8b 15 00 00 00
	00		 mov	 edx, DWORD PTR _SMDFile
  000e5	52		 push	 edx
  000e6	50		 push	 eax
  000e7	e8 00 00 00 00	 call	 _ungetc

; 97   : 		p = TempString;
; 98   : 		
; 99   : 		while (((ch=getc(SMDFile)) != -1) && ((ch == 0x2E) || (isdigit(ch) != 0) || (ch == 0x2D)))  // 2e '.'  2D '-'

  000ec	a1 00 00 00 00	 mov	 eax, DWORD PTR _SMDFile
  000f1	50		 push	 eax
  000f2	8d 75 98	 lea	 esi, DWORD PTR _TempString$[ebp]
  000f5	e8 00 00 00 00	 call	 _getc
  000fa	8a d8		 mov	 bl, al
  000fc	83 c4 0c	 add	 esp, 12			; 0000000cH
  000ff	80 fb ff	 cmp	 bl, -1
  00102	74 33		 je	 SHORT $LN12@GetToken
$LL13@GetToken:
  00104	80 fb 2e	 cmp	 bl, 46			; 0000002eH
  00107	74 15		 je	 SHORT $LN11@GetToken
  00109	0f be cb	 movsx	 ecx, bl
  0010c	51		 push	 ecx
  0010d	e8 00 00 00 00	 call	 _isdigit
  00112	83 c4 04	 add	 esp, 4
  00115	85 c0		 test	 eax, eax
  00117	75 05		 jne	 SHORT $LN11@GetToken
  00119	80 fb 2d	 cmp	 bl, 45			; 0000002dH
  0011c	75 19		 jne	 SHORT $LN12@GetToken
$LN11@GetToken:
  0011e	8b 15 00 00 00
	00		 mov	 edx, DWORD PTR _SMDFile

; 100  : 		{
; 101  : 			*p = ch;	// Construct a String

  00124	88 1e		 mov	 BYTE PTR [esi], bl
  00126	52		 push	 edx

; 102  : 			p++;

  00127	46		 inc	 esi
  00128	e8 00 00 00 00	 call	 _getc
  0012d	8a d8		 mov	 bl, al
  0012f	83 c4 04	 add	 esp, 4
  00132	80 fb ff	 cmp	 bl, -1
  00135	75 cd		 jne	 SHORT $LL13@GetToken
$LN12@GetToken:

; 103  : 		}		
; 104  : 		*p = 0;
; 105  : 		TokenNumber = atof( TempString);	// Select the first Byte as Main ID

  00137	8d 45 98	 lea	 eax, DWORD PTR _TempString$[ebp]
  0013a	50		 push	 eax
  0013b	c6 06 00	 mov	 BYTE PTR [esi], 0
  0013e	e8 00 00 00 00	 call	 _atof
  00143	d9 1d 00 00 00
	00		 fstp	 DWORD PTR _TokenNumber
  00149	83 c4 04	 add	 esp, 4
  0014c	5e		 pop	 esi

; 106  : 		return CurrentToken  = NUMBER ;

  0014d	c7 05 00 00 00
	00 01 00 00 00	 mov	 DWORD PTR _CurrentToken, 1
  00157	b8 01 00 00 00	 mov	 eax, 1
  0015c	5b		 pop	 ebx

; 147  : 		}
; 148  : 		break;
; 149  : 
; 150  : 	}
; 151  : 
; 152  : 	return NAME;
; 153  : }

  0015d	8b 4d fc	 mov	 ecx, DWORD PTR __$ArrayPad$[ebp]
  00160	33 cd		 xor	 ecx, ebp
  00162	e8 00 00 00 00	 call	 @__security_check_cookie@4
  00167	8b e5		 mov	 esp, ebp
  00169	5d		 pop	 ebp
  0016a	c3		 ret	 0
$LN10@GetToken:

; 107  : 		break;
; 108  : 
; 109  : 	case '\"':	// "	String Case
; 110  : 		p=&TokenString[0];
; 111  : 		
; 112  : 		while (((ch=getc(SMDFile)) != -1 ) && (ch != 0x22))	// nice

  0016b	8b 0d 00 00 00
	00		 mov	 ecx, DWORD PTR _SMDFile
  00171	51		 push	 ecx
  00172	be 00 00 00 00	 mov	 esi, OFFSET _TokenString
  00177	e8 00 00 00 00	 call	 _getc
  0017c	83 c4 04	 add	 esp, 4
  0017f	3c ff		 cmp	 al, -1
  00181	74 1e		 je	 SHORT $LN8@GetToken
$LL9@GetToken:
  00183	3c 22		 cmp	 al, 34			; 00000022H
  00185	0f 84 a1 00 00
	00		 je	 $LN7@GetToken
  0018b	8b 15 00 00 00
	00		 mov	 edx, DWORD PTR _SMDFile

; 113  : 		{
; 114  : 			*p = ch;

  00191	88 06		 mov	 BYTE PTR [esi], al
  00193	52		 push	 edx

; 115  : 			p++;

  00194	46		 inc	 esi
  00195	e8 00 00 00 00	 call	 _getc
  0019a	83 c4 04	 add	 esp, 4
  0019d	3c ff		 cmp	 al, -1
  0019f	75 e2		 jne	 SHORT $LL9@GetToken
$LN8@GetToken:

; 116  : 		}
; 117  : 		if (ch != 0x22 )

  001a1	3c 22		 cmp	 al, 34			; 00000022H
  001a3	0f 84 83 00 00
	00		 je	 $LN7@GetToken

; 118  : 		{
; 119  : 			ungetc(ch, SMDFile);

  001a9	8b 0d 00 00 00
	00		 mov	 ecx, DWORD PTR _SMDFile
  001af	0f be d0	 movsx	 edx, al
  001b2	51		 push	 ecx
  001b3	52		 push	 edx

; 120  : 		}
; 121  : 		*p = 0;
; 122  : 		return CurrentToken = NAME;

  001b4	eb 6e		 jmp	 SHORT $LN49@GetToken
$LN6@GetToken:

; 123  : 		break;
; 124  : 
; 125  : 	default:	// Others
; 126  : 		if (isalpha(ch))

  001b6	50		 push	 eax
  001b7	e8 00 00 00 00	 call	 _isalpha
  001bc	83 c4 04	 add	 esp, 4
  001bf	85 c0		 test	 eax, eax
  001c1	0f 84 84 00 00
	00		 je	 $LN5@GetToken

; 127  : 		{
; 128  : 			p=&TokenString[0];
; 129  : 			*p=ch;
; 130  : 			p++;
; 131  : 
; 132  : 			while ( ((ch=getc(SMDFile)) != -1) && ( (ch == 0x2E) || (ch == 0x5F) || (isalnum(ch) != 0) ) )

  001c7	a1 00 00 00 00	 mov	 eax, DWORD PTR _SMDFile
  001cc	50		 push	 eax
  001cd	88 1d 00 00 00
	00		 mov	 BYTE PTR _TokenString, bl
  001d3	be 01 00 00 00	 mov	 esi, OFFSET _TokenString+1
  001d8	e8 00 00 00 00	 call	 _getc
  001dd	8a d8		 mov	 bl, al
  001df	83 c4 04	 add	 esp, 4
  001e2	80 fb ff	 cmp	 bl, -1
  001e5	74 33		 je	 SHORT $LN3@GetToken
$LL4@GetToken:
  001e7	80 fb 2e	 cmp	 bl, 46			; 0000002eH
  001ea	74 15		 je	 SHORT $LN2@GetToken
  001ec	80 fb 5f	 cmp	 bl, 95			; 0000005fH
  001ef	74 10		 je	 SHORT $LN2@GetToken
  001f1	0f be cb	 movsx	 ecx, bl
  001f4	51		 push	 ecx
  001f5	e8 00 00 00 00	 call	 _isalnum
  001fa	83 c4 04	 add	 esp, 4
  001fd	85 c0		 test	 eax, eax
  001ff	74 19		 je	 SHORT $LN3@GetToken
$LN2@GetToken:
  00201	8b 15 00 00 00
	00		 mov	 edx, DWORD PTR _SMDFile

; 133  : 			{
; 134  : 				*p=ch;

  00207	88 1e		 mov	 BYTE PTR [esi], bl
  00209	52		 push	 edx

; 135  : 				p++;

  0020a	46		 inc	 esi
  0020b	e8 00 00 00 00	 call	 _getc
  00210	8a d8		 mov	 bl, al
  00212	83 c4 04	 add	 esp, 4
  00215	80 fb ff	 cmp	 bl, -1
  00218	75 cd		 jne	 SHORT $LL4@GetToken
$LN3@GetToken:

; 136  : 				
; 137  : 			}
; 138  : 
; 139  : 			ungetc(ch, SMDFile);

  0021a	a1 00 00 00 00	 mov	 eax, DWORD PTR _SMDFile
  0021f	0f be cb	 movsx	 ecx, bl
  00222	50		 push	 eax
  00223	51		 push	 ecx
$LN49@GetToken:
  00224	e8 00 00 00 00	 call	 _ungetc
  00229	83 c4 08	 add	 esp, 8
$LN7@GetToken:

; 140  : 			*p=0;

  0022c	c6 06 00	 mov	 BYTE PTR [esi], 0
  0022f	5e		 pop	 esi

; 141  : 			CurrentToken=NAME;

  00230	c7 05 00 00 00
	00 00 00 00 00	 mov	 DWORD PTR _CurrentToken, 0

; 142  : 			return CurrentToken;

  0023a	33 c0		 xor	 eax, eax
  0023c	5b		 pop	 ebx

; 147  : 		}
; 148  : 		break;
; 149  : 
; 150  : 	}
; 151  : 
; 152  : 	return NAME;
; 153  : }

  0023d	8b 4d fc	 mov	 ecx, DWORD PTR __$ArrayPad$[ebp]
  00240	33 cd		 xor	 ecx, ebp
  00242	e8 00 00 00 00	 call	 @__security_check_cookie@4
  00247	8b e5		 mov	 esp, ebp
  00249	5d		 pop	 ebp
  0024a	c3		 ret	 0
$LN5@GetToken:

; 143  : 		}
; 144  : 		else
; 145  : 		{
; 146  : 			return CurrentToken = SMD_ERROR; // '<'

  0024b	b8 3c 00 00 00	 mov	 eax, 60			; 0000003cH
$LN48@GetToken:

; 147  : 		}
; 148  : 		break;
; 149  : 
; 150  : 	}
; 151  : 
; 152  : 	return NAME;
; 153  : }

  00250	8b 4d fc	 mov	 ecx, DWORD PTR __$ArrayPad$[ebp]
  00253	5e		 pop	 esi
  00254	33 cd		 xor	 ecx, ebp
  00256	a3 00 00 00 00	 mov	 DWORD PTR _CurrentToken, eax
  0025b	5b		 pop	 ebx
  0025c	e8 00 00 00 00	 call	 @__security_check_cookie@4
  00261	8b e5		 mov	 esp, ebp
  00263	5d		 pop	 ebp
  00264	c3		 ret	 0
  00265	8d 49 00	 npad	 3
$LN50@GetToken:
  00268	00 00 00 00	 DD	 $LN10@GetToken
  0026c	00 00 00 00	 DD	 $LN19@GetToken
  00270	00 00 00 00	 DD	 $LN17@GetToken
  00274	00 00 00 00	 DD	 $LN14@GetToken
  00278	00 00 00 00	 DD	 $LN18@GetToken
  0027c	00 00 00 00	 DD	 $LN16@GetToken
  00280	00 00 00 00	 DD	 $LN15@GetToken
  00284	00 00 00 00	 DD	 $LN6@GetToken
$LN46@GetToken:
  00288	00		 DB	 0
  00289	01		 DB	 1
  0028a	07		 DB	 7
  0028b	07		 DB	 7
  0028c	07		 DB	 7
  0028d	07		 DB	 7
  0028e	07		 DB	 7
  0028f	07		 DB	 7
  00290	07		 DB	 7
  00291	07		 DB	 7
  00292	02		 DB	 2
  00293	03		 DB	 3
  00294	03		 DB	 3
  00295	07		 DB	 7
  00296	03		 DB	 3
  00297	03		 DB	 3
  00298	03		 DB	 3
  00299	03		 DB	 3
  0029a	03		 DB	 3
  0029b	03		 DB	 3
  0029c	03		 DB	 3
  0029d	03		 DB	 3
  0029e	03		 DB	 3
  0029f	03		 DB	 3
  002a0	07		 DB	 7
  002a1	04		 DB	 4
  002a2	07		 DB	 7
  002a3	07		 DB	 7
  002a4	07		 DB	 7
  002a5	07		 DB	 7
  002a6	07		 DB	 7
  002a7	07		 DB	 7
  002a8	07		 DB	 7
  002a9	07		 DB	 7
  002aa	07		 DB	 7
  002ab	07		 DB	 7
  002ac	07		 DB	 7
  002ad	07		 DB	 7
  002ae	07		 DB	 7
  002af	07		 DB	 7
  002b0	07		 DB	 7
  002b1	07		 DB	 7
  002b2	07		 DB	 7
  002b3	07		 DB	 7
  002b4	07		 DB	 7
  002b5	07		 DB	 7
  002b6	07		 DB	 7
  002b7	07		 DB	 7
  002b8	07		 DB	 7
  002b9	07		 DB	 7
  002ba	07		 DB	 7
  002bb	07		 DB	 7
  002bc	07		 DB	 7
  002bd	07		 DB	 7
  002be	07		 DB	 7
  002bf	07		 DB	 7
  002c0	07		 DB	 7
  002c1	07		 DB	 7
  002c2	07		 DB	 7
  002c3	07		 DB	 7
  002c4	07		 DB	 7
  002c5	07		 DB	 7
  002c6	07		 DB	 7
  002c7	07		 DB	 7
  002c8	07		 DB	 7
  002c9	07		 DB	 7
  002ca	07		 DB	 7
  002cb	07		 DB	 7
  002cc	07		 DB	 7
  002cd	07		 DB	 7
  002ce	07		 DB	 7
  002cf	07		 DB	 7
  002d0	07		 DB	 7
  002d1	07		 DB	 7
  002d2	07		 DB	 7
  002d3	07		 DB	 7
  002d4	07		 DB	 7
  002d5	07		 DB	 7
  002d6	07		 DB	 7
  002d7	07		 DB	 7
  002d8	07		 DB	 7
  002d9	07		 DB	 7
  002da	07		 DB	 7
  002db	07		 DB	 7
  002dc	07		 DB	 7
  002dd	07		 DB	 7
  002de	07		 DB	 7
  002df	07		 DB	 7
  002e0	07		 DB	 7
  002e1	05		 DB	 5
  002e2	07		 DB	 7
  002e3	06		 DB	 6
?GetToken@@YA?AW4SMDToken@@XZ ENDP			; GetToken
_TEXT	ENDS
PUBLIC	??_7CGate@@6B@					; CGate::`vftable'
PUBLIC	??0CGate@@QAE@XZ				; CGate::CGate
PUBLIC	??_R4CGate@@6B@					; CGate::`RTTI Complete Object Locator'
PUBLIC	??_R0?AVCGate@@@8				; CGate `RTTI Type Descriptor'
PUBLIC	??_R3CGate@@8					; CGate::`RTTI Class Hierarchy Descriptor'
PUBLIC	??_R2CGate@@8					; CGate::`RTTI Base Class Array'
PUBLIC	??_R1A@?0A@EA@CGate@@8				; CGate::`RTTI Base Class Descriptor at (0,-1,0,64)'
EXTRN	??_7type_info@@6B@:QWORD			; type_info::`vftable'
EXTRN	??_ECGate@@UAEPAXI@Z:PROC			; CGate::`vector deleting destructor'
;	COMDAT ??_R1A@?0A@EA@CGate@@8
; File e:\work\tranet_version\gs\gameserver\gate.cpp
rdata$r	SEGMENT
??_R1A@?0A@EA@CGate@@8 DD FLAT:??_R0?AVCGate@@@8	; CGate::`RTTI Base Class Descriptor at (0,-1,0,64)'
	DD	00H
	DD	00H
	DD	0ffffffffH
	DD	00H
	DD	040H
	DD	FLAT:??_R3CGate@@8
rdata$r	ENDS
;	COMDAT ??_R2CGate@@8
rdata$r	SEGMENT
??_R2CGate@@8 DD FLAT:??_R1A@?0A@EA@CGate@@8		; CGate::`RTTI Base Class Array'
rdata$r	ENDS
;	COMDAT ??_R3CGate@@8
rdata$r	SEGMENT
??_R3CGate@@8 DD 00H					; CGate::`RTTI Class Hierarchy Descriptor'
	DD	00H
	DD	01H
	DD	FLAT:??_R2CGate@@8
rdata$r	ENDS
;	COMDAT ??_R0?AVCGate@@@8
_DATA	SEGMENT
??_R0?AVCGate@@@8 DD FLAT:??_7type_info@@6B@		; CGate `RTTI Type Descriptor'
	DD	00H
	DB	'.?AVCGate@@', 00H
_DATA	ENDS
;	COMDAT ??_R4CGate@@6B@
rdata$r	SEGMENT
??_R4CGate@@6B@ DD 00H					; CGate::`RTTI Complete Object Locator'
	DD	00H
	DD	00H
	DD	FLAT:??_R0?AVCGate@@@8
	DD	FLAT:??_R3CGate@@8
rdata$r	ENDS
;	COMDAT ??_7CGate@@6B@
CONST	SEGMENT
??_7CGate@@6B@ DD FLAT:??_R4CGate@@6B@			; CGate::`vftable'
	DD	FLAT:??_ECGate@@UAEPAXI@Z
; Function compile flags: /Ogtp
CONST	ENDS
;	COMDAT ??0CGate@@QAE@XZ
_TEXT	SEGMENT
??0CGate@@QAE@XZ PROC					; CGate::CGate, COMDAT
; _this$ = ecx

; 17   : {

  00000	8b c1		 mov	 eax, ecx
  00002	c7 00 00 00 00
	00		 mov	 DWORD PTR [eax], OFFSET ??_7CGate@@6B@

; 18   : 	return;
; 19   : }

  00008	c3		 ret	 0
??0CGate@@QAE@XZ ENDP					; CGate::CGate
_TEXT	ENDS
PUBLIC	??1CGate@@UAE@XZ				; CGate::~CGate
; Function compile flags: /Ogtp
;	COMDAT ??1CGate@@UAE@XZ
_TEXT	SEGMENT
??1CGate@@UAE@XZ PROC					; CGate::~CGate, COMDAT
; _this$ = ecx

; 22   : {

  00000	c7 01 00 00 00
	00		 mov	 DWORD PTR [ecx], OFFSET ??_7CGate@@6B@

; 23   : 	return;
; 24   : }

  00006	c3		 ret	 0
??1CGate@@UAE@XZ ENDP					; CGate::~CGate
_TEXT	ENDS
PUBLIC	?Init@CGate@@QAEXXZ				; CGate::Init
; Function compile flags: /Ogtp
;	COMDAT ?Init@CGate@@QAEXXZ
_TEXT	SEGMENT
?Init@CGate@@QAEXXZ PROC				; CGate::Init, COMDAT
; _this$ = ecx

; 28   : 	int n;
; 29   : 
; 30   : 	for (n=0;n<MAX_GATES;n++)

  00000	33 c0		 xor	 eax, eax
  00002	8d 91 04 14 00
	00		 lea	 edx, DWORD PTR [ecx+5124]
  00008	56		 push	 esi
  00009	8d a4 24 00 00
	00 00		 npad	 7
$LL3@Init:

; 31   : 	{
; 32   : 		this->m_This[n] = 0xFF;
; 33   : 		this->m_Level[n]=0;

  00010	33 f6		 xor	 esi, esi
  00012	c6 44 01 04 ff	 mov	 BYTE PTR [ecx+eax+4], 255 ; 000000ffH
  00017	66 89 32	 mov	 WORD PTR [edx], si
  0001a	40		 inc	 eax
  0001b	83 c2 02	 add	 edx, 2
  0001e	3d 00 02 00 00	 cmp	 eax, 512		; 00000200H
  00023	7c eb		 jl	 SHORT $LL3@Init
  00025	5e		 pop	 esi

; 34   : 	}
; 35   : }

  00026	c3		 ret	 0
?Init@CGate@@QAEXXZ ENDP				; CGate::Init
_TEXT	ENDS
PUBLIC	??_C@_0CK@BNPFANFA@?$FL?$CFs?$FN?5Gate?5information?5data?5load?5@ ; `string'
PUBLIC	??_C@_0CB@CJLGKLMJ@?$FL?$CFs?$FN?5gate?5information?5load?5error@ ; `string'
PUBLIC	??_C@_01KDCPPGHE@r?$AA@				; `string'
PUBLIC	?Load@CGate@@QAEXPAD@Z				; CGate::Load
EXTRN	_fclose:PROC
EXTRN	?LogAdd@@3P6AXPADZZA:DWORD			; LogAdd
EXTRN	_fopen:PROC
EXTRN	__ftol2_sse:PROC
;	COMDAT ??_C@_0CK@BNPFANFA@?$FL?$CFs?$FN?5Gate?5information?5data?5load?5@
CONST	SEGMENT
??_C@_0CK@BNPFANFA@?$FL?$CFs?$FN?5Gate?5information?5data?5load?5@ DB '[%'
	DB	's] Gate information data load complete.', 00H ; `string'
CONST	ENDS
;	COMDAT ??_C@_0CB@CJLGKLMJ@?$FL?$CFs?$FN?5gate?5information?5load?5error@
CONST	SEGMENT
??_C@_0CB@CJLGKLMJ@?$FL?$CFs?$FN?5gate?5information?5load?5error@ DB '[%s'
	DB	'] gate information load error', 00H		; `string'
CONST	ENDS
;	COMDAT ??_C@_01KDCPPGHE@r?$AA@
CONST	SEGMENT
??_C@_01KDCPPGHE@r?$AA@ DB 'r', 00H			; `string'
; Function compile flags: /Ogtp
CONST	ENDS
;	COMDAT ?Load@CGate@@QAEXPAD@Z
_TEXT	SEGMENT
tv216 = -4						; size = 4
tv214 = -4						; size = 4
tv208 = -4						; size = 4
tv206 = -4						; size = 4
tv200 = -4						; size = 4
tv198 = -4						; size = 4
tv192 = -4						; size = 4
tv176 = -4						; size = 4
tv174 = -4						; size = 4
tv173 = -4						; size = 4
tv160 = -4						; size = 4
tv156 = -4						; size = 4
tv139 = -4						; size = 4
tv95 = -4						; size = 4
tv87 = -4						; size = 4
tv82 = -4						; size = 4
_filename$ = 8						; size = 4
tv219 = 10						; size = 2
tv211 = 10						; size = 2
tv203 = 10						; size = 2
tv195 = 10						; size = 2
tv166 = 10						; size = 2
tv140 = 10						; size = 2
tv94 = 10						; size = 2
tv76 = 10						; size = 2
?Load@CGate@@QAEXPAD@Z PROC				; CGate::Load, COMDAT
; _this$ = ecx

; 38   : {

  00000	55		 push	 ebp
  00001	8b ec		 mov	 ebp, esp
  00003	51		 push	 ecx
  00004	56		 push	 esi
  00005	57		 push	 edi
  00006	8b f1		 mov	 esi, ecx

; 39   : 	int Token;
; 40   : 	int number;
; 41   : 	
; 42   : 	this->Init();

  00008	e8 00 00 00 00	 call	 ?Init@CGate@@QAEXXZ	; CGate::Init

; 43   : 
; 44   : 	SMDFile=fopen(filename, "r");

  0000d	8b 7d 08	 mov	 edi, DWORD PTR _filename$[ebp]
  00010	68 00 00 00 00	 push	 OFFSET ??_C@_01KDCPPGHE@r?$AA@
  00015	57		 push	 edi
  00016	e8 00 00 00 00	 call	 _fopen
  0001b	83 c4 08	 add	 esp, 8
  0001e	a3 00 00 00 00	 mov	 DWORD PTR _SMDFile, eax

; 45   : 	
; 46   : 	if (SMDFile==0)

  00023	85 c0		 test	 eax, eax
  00025	75 17		 jne	 SHORT $LN10@Load

; 47   : 	{
; 48   : 		LogAdd("[%s] gate information load error", filename);

  00027	57		 push	 edi
  00028	68 00 00 00 00	 push	 OFFSET ??_C@_0CB@CJLGKLMJ@?$FL?$CFs?$FN?5gate?5information?5load?5error@
  0002d	ff 15 00 00 00
	00		 call	 DWORD PTR ?LogAdd@@3P6AXPADZZA ; LogAdd
  00033	83 c4 08	 add	 esp, 8
  00036	5f		 pop	 edi
  00037	5e		 pop	 esi

; 100  : }

  00038	8b e5		 mov	 esp, ebp
  0003a	5d		 pop	 ebp
  0003b	c2 04 00	 ret	 4
$LN10@Load:

; 49   : 		return;
; 50   : 	}
; 51   : 
; 52   : 	while ( true )
; 53   : 	{
; 54   : 		Token = GetToken();

  0003e	e8 00 00 00 00	 call	 ?GetToken@@YA?AW4SMDToken@@XZ ; GetToken

; 55   : 
; 56   : 		if ( Token == 2 )

  00043	83 f8 02	 cmp	 eax, 2
  00046	0f 84 b6 01 00
	00		 je	 $LN11@Load
  0004c	53		 push	 ebx
  0004d	8d 49 00	 npad	 3
$LL5@Load:

; 57   : 		{
; 58   : 			break;
; 59   : 		}
; 60   : 		else
; 61   : 		{
; 62   : 			if ( Token == 1 )

  00050	83 f8 01	 cmp	 eax, 1
  00053	0f 85 9a 01 00
	00		 jne	 $LN1@Load

; 63   : 			{
; 64   : 
; 65   : 				number=(int)TokenNumber;

  00059	d9 05 00 00 00
	00		 fld	 DWORD PTR _TokenNumber
  0005f	e8 00 00 00 00	 call	 __ftol2_sse
  00064	8b d8		 mov	 ebx, eax

; 66   : 				this->m_This[number]=number;

  00066	88 5c 33 04	 mov	 BYTE PTR [ebx+esi+4], bl

; 67   : 
; 68   : 				Token=GetToken();

  0006a	e8 00 00 00 00	 call	 ?GetToken@@YA?AW4SMDToken@@XZ ; GetToken

; 69   : 				this->m_Flag[number]=(BYTE)TokenNumber;

  0006f	d9 05 00 00 00
	00		 fld	 DWORD PTR _TokenNumber
  00075	d9 7d 0a	 fnstcw	 WORD PTR tv219[ebp]
  00078	0f b7 45 0a	 movzx	 eax, WORD PTR tv219[ebp]
  0007c	0d 00 0c 00 00	 or	 eax, 3072		; 00000c00H
  00081	89 45 fc	 mov	 DWORD PTR tv216[ebp], eax
  00084	d9 6d fc	 fldcw	 WORD PTR tv216[ebp]
  00087	db 5d fc	 fistp	 DWORD PTR tv214[ebp]
  0008a	0f b6 45 fc	 movzx	 eax, BYTE PTR tv214[ebp]
  0008e	88 84 33 04 02
	00 00		 mov	 BYTE PTR [ebx+esi+516], al
  00095	d9 6d 0a	 fldcw	 WORD PTR tv219[ebp]

; 70   : 
; 71   : 				Token=GetToken();

  00098	e8 00 00 00 00	 call	 ?GetToken@@YA?AW4SMDToken@@XZ ; GetToken

; 72   : 				this->m_MapNumber[number]=(BYTE)TokenNumber;

  0009d	d9 05 00 00 00
	00		 fld	 DWORD PTR _TokenNumber
  000a3	d9 7d 0a	 fnstcw	 WORD PTR tv211[ebp]
  000a6	0f b7 45 0a	 movzx	 eax, WORD PTR tv211[ebp]
  000aa	0d 00 0c 00 00	 or	 eax, 3072		; 00000c00H
  000af	89 45 fc	 mov	 DWORD PTR tv208[ebp], eax
  000b2	d9 6d fc	 fldcw	 WORD PTR tv208[ebp]
  000b5	db 5d fc	 fistp	 DWORD PTR tv206[ebp]
  000b8	0f b6 4d fc	 movzx	 ecx, BYTE PTR tv206[ebp]
  000bc	88 8c 33 04 04
	00 00		 mov	 BYTE PTR [ebx+esi+1028], cl
  000c3	d9 6d 0a	 fldcw	 WORD PTR tv211[ebp]

; 73   : 
; 74   : 				Token=GetToken();

  000c6	e8 00 00 00 00	 call	 ?GetToken@@YA?AW4SMDToken@@XZ ; GetToken

; 75   : 				this->m_Sx[number]=(BYTE)TokenNumber;

  000cb	d9 05 00 00 00
	00		 fld	 DWORD PTR _TokenNumber
  000d1	d9 7d 0a	 fnstcw	 WORD PTR tv203[ebp]
  000d4	0f b7 45 0a	 movzx	 eax, WORD PTR tv203[ebp]
  000d8	0d 00 0c 00 00	 or	 eax, 3072		; 00000c00H
  000dd	89 45 fc	 mov	 DWORD PTR tv200[ebp], eax
  000e0	d9 6d fc	 fldcw	 WORD PTR tv200[ebp]
  000e3	db 5d fc	 fistp	 DWORD PTR tv198[ebp]
  000e6	0f b6 55 fc	 movzx	 edx, BYTE PTR tv198[ebp]
  000ea	88 94 33 04 06
	00 00		 mov	 BYTE PTR [ebx+esi+1540], dl
  000f1	d9 6d 0a	 fldcw	 WORD PTR tv203[ebp]

; 76   : 
; 77   : 				Token=GetToken();

  000f4	e8 00 00 00 00	 call	 ?GetToken@@YA?AW4SMDToken@@XZ ; GetToken

; 78   : 				this->m_Sy[number]=(BYTE)TokenNumber;

  000f9	d9 05 00 00 00
	00		 fld	 DWORD PTR _TokenNumber
  000ff	d9 7d 0a	 fnstcw	 WORD PTR tv195[ebp]
  00102	0f b7 45 0a	 movzx	 eax, WORD PTR tv195[ebp]
  00106	0d 00 0c 00 00	 or	 eax, 3072		; 00000c00H
  0010b	89 45 fc	 mov	 DWORD PTR tv192[ebp], eax
  0010e	d9 6d fc	 fldcw	 WORD PTR tv192[ebp]
  00111	db 5d fc	 fistp	 DWORD PTR tv139[ebp]
  00114	0f b6 45 fc	 movzx	 eax, BYTE PTR tv139[ebp]
  00118	88 84 33 04 08
	00 00		 mov	 BYTE PTR [ebx+esi+2052], al
  0011f	d9 6d 0a	 fldcw	 WORD PTR tv195[ebp]

; 79   : 
; 80   : 				Token=GetToken();

  00122	e8 00 00 00 00	 call	 ?GetToken@@YA?AW4SMDToken@@XZ ; GetToken

; 81   : 				this->m_Ex[number]=(BYTE)TokenNumber;

  00127	d9 05 00 00 00
	00		 fld	 DWORD PTR _TokenNumber
  0012d	d9 7d 0a	 fnstcw	 WORD PTR tv94[ebp]
  00130	0f b7 45 0a	 movzx	 eax, WORD PTR tv94[ebp]
  00134	0d 00 0c 00 00	 or	 eax, 3072		; 00000c00H
  00139	89 45 fc	 mov	 DWORD PTR tv82[ebp], eax
  0013c	d9 6d fc	 fldcw	 WORD PTR tv82[ebp]
  0013f	db 5d fc	 fistp	 DWORD PTR tv173[ebp]
  00142	0f b6 4d fc	 movzx	 ecx, BYTE PTR tv173[ebp]
  00146	88 8c 33 04 0a
	00 00		 mov	 BYTE PTR [ebx+esi+2564], cl
  0014d	d9 6d 0a	 fldcw	 WORD PTR tv94[ebp]

; 82   : 
; 83   : 				Token=GetToken();

  00150	e8 00 00 00 00	 call	 ?GetToken@@YA?AW4SMDToken@@XZ ; GetToken

; 84   : 				this->m_Ey[number]=(BYTE)TokenNumber;

  00155	d9 05 00 00 00
	00		 fld	 DWORD PTR _TokenNumber
  0015b	d9 7d 0a	 fnstcw	 WORD PTR tv166[ebp]
  0015e	0f b7 45 0a	 movzx	 eax, WORD PTR tv166[ebp]
  00162	0d 00 0c 00 00	 or	 eax, 3072		; 00000c00H
  00167	89 45 fc	 mov	 DWORD PTR tv160[ebp], eax
  0016a	d9 6d fc	 fldcw	 WORD PTR tv160[ebp]
  0016d	db 5d fc	 fistp	 DWORD PTR tv156[ebp]
  00170	0f b6 55 fc	 movzx	 edx, BYTE PTR tv156[ebp]
  00174	88 94 33 04 0c
	00 00		 mov	 BYTE PTR [ebx+esi+3076], dl
  0017b	d9 6d 0a	 fldcw	 WORD PTR tv166[ebp]

; 85   : 
; 86   : 				Token=GetToken();

  0017e	e8 00 00 00 00	 call	 ?GetToken@@YA?AW4SMDToken@@XZ ; GetToken

; 87   : 				this->m_TargetGate[number]=(WORD)TokenNumber;

  00183	d9 05 00 00 00
	00		 fld	 DWORD PTR _TokenNumber
  00189	d9 7d 0a	 fnstcw	 WORD PTR tv140[ebp]
  0018c	0f b7 45 0a	 movzx	 eax, WORD PTR tv140[ebp]
  00190	0d 00 0c 00 00	 or	 eax, 3072		; 00000c00H
  00195	89 45 fc	 mov	 DWORD PTR tv95[ebp], eax
  00198	d9 6d fc	 fldcw	 WORD PTR tv95[ebp]
  0019b	db 5d fc	 fistp	 DWORD PTR tv87[ebp]
  0019e	66 8b 45 fc	 mov	 ax, WORD PTR tv87[ebp]
  001a2	66 89 84 5e 04
	0e 00 00	 mov	 WORD PTR [esi+ebx*2+3588], ax
  001aa	d9 6d 0a	 fldcw	 WORD PTR tv140[ebp]

; 88   : 
; 89   : 				Token=GetToken();

  001ad	e8 00 00 00 00	 call	 ?GetToken@@YA?AW4SMDToken@@XZ ; GetToken

; 90   : 				this->m_Dir[number]=(BYTE)TokenNumber;

  001b2	d9 05 00 00 00
	00		 fld	 DWORD PTR _TokenNumber
  001b8	d9 7d 0a	 fnstcw	 WORD PTR tv76[ebp]
  001bb	0f b7 45 0a	 movzx	 eax, WORD PTR tv76[ebp]
  001bf	0d 00 0c 00 00	 or	 eax, 3072		; 00000c00H
  001c4	89 45 fc	 mov	 DWORD PTR tv174[ebp], eax
  001c7	d9 6d fc	 fldcw	 WORD PTR tv174[ebp]
  001ca	db 5d fc	 fistp	 DWORD PTR tv176[ebp]
  001cd	0f b6 4d fc	 movzx	 ecx, BYTE PTR tv176[ebp]
  001d1	88 8c 33 04 12
	00 00		 mov	 BYTE PTR [ebx+esi+4612], cl
  001d8	d9 6d 0a	 fldcw	 WORD PTR tv76[ebp]

; 91   : 
; 92   : 				Token=GetToken();

  001db	e8 00 00 00 00	 call	 ?GetToken@@YA?AW4SMDToken@@XZ ; GetToken

; 93   : 				this->m_Level[number]=(short)TokenNumber;

  001e0	d9 05 00 00 00
	00		 fld	 DWORD PTR _TokenNumber
  001e6	e8 00 00 00 00	 call	 __ftol2_sse
  001eb	66 89 84 5e 04
	14 00 00	 mov	 WORD PTR [esi+ebx*2+5124], ax
$LN1@Load:

; 55   : 
; 56   : 		if ( Token == 2 )

  001f3	e8 00 00 00 00	 call	 ?GetToken@@YA?AW4SMDToken@@XZ ; GetToken
  001f8	83 f8 02	 cmp	 eax, 2
  001fb	0f 85 4f fe ff
	ff		 jne	 $LL5@Load
  00201	5b		 pop	 ebx
$LN11@Load:

; 94   : 			}
; 95   : 		}
; 96   : 	}
; 97   : 
; 98   : 	fclose(SMDFile);

  00202	8b 15 00 00 00
	00		 mov	 edx, DWORD PTR _SMDFile
  00208	52		 push	 edx
  00209	e8 00 00 00 00	 call	 _fclose

; 99   : 	LogAdd("[%s] Gate information data load complete.", filename);

  0020e	57		 push	 edi
  0020f	68 00 00 00 00	 push	 OFFSET ??_C@_0CK@BNPFANFA@?$FL?$CFs?$FN?5Gate?5information?5data?5load?5@
  00214	ff 15 00 00 00
	00		 call	 DWORD PTR ?LogAdd@@3P6AXPADZZA ; LogAdd
  0021a	83 c4 0c	 add	 esp, 12			; 0000000cH
  0021d	5f		 pop	 edi
  0021e	5e		 pop	 esi

; 100  : }

  0021f	8b e5		 mov	 esp, ebp
  00221	5d		 pop	 ebp
  00222	c2 04 00	 ret	 4
?Load@CGate@@QAEXPAD@Z ENDP				; CGate::Load
_TEXT	ENDS
PUBLIC	??_C@_0CF@IKKILBOJ@Gate?5information?5data?5load?5compl@ ; `string'
PUBLIC	__$ArrayPad$
PUBLIC	?Load@CGate@@QAEXPADH@Z				; CGate::Load
EXTRN	??1CWzMemScript@@UAE@XZ:PROC			; CWzMemScript::~CWzMemScript
EXTRN	?GetNumber@CWzMemScript@@QAEHXZ:PROC		; CWzMemScript::GetNumber
EXTRN	?GetToken@CWzMemScript@@QAE?AW4SMDToken@@XZ:PROC ; CWzMemScript::GetToken
EXTRN	?SetBuffer@CWzMemScript@@QAEHPADH@Z:PROC	; CWzMemScript::SetBuffer
EXTRN	??0CWzMemScript@@QAE@XZ:PROC			; CWzMemScript::CWzMemScript
EXTRN	___CxxFrameHandler3:PROC
;	COMDAT ??_C@_0CF@IKKILBOJ@Gate?5information?5data?5load?5compl@
CONST	SEGMENT
??_C@_0CF@IKKILBOJ@Gate?5information?5data?5load?5compl@ DB 'Gate informa'
	DB	'tion data load complete.', 00H		; `string'
CONST	ENDS
;	COMDAT xdata$x
xdata$x	SEGMENT
__unwindtable$?Load@CGate@@QAEXPADH@Z DD 0ffffffffH
	DD	FLAT:__unwindfunclet$?Load@CGate@@QAEXPADH@Z$0
__ehfuncinfo$?Load@CGate@@QAEXPADH@Z DD 019930522H
	DD	01H
	DD	FLAT:__unwindtable$?Load@CGate@@QAEXPADH@Z
	DD	2 DUP(00H)
	DD	2 DUP(00H)
	DD	00H
	DD	01H
; Function compile flags: /Ogtp
xdata$x	ENDS
;	COMDAT ?Load@CGate@@QAEXPADH@Z
_TEXT	SEGMENT
_WzMemScript$ = -148					; size = 132
__$ArrayPad$ = -16					; size = 4
__$EHRec$ = -12						; size = 12
_Buffer$ = 8						; size = 4
_iSize$ = 12						; size = 4
?Load@CGate@@QAEXPADH@Z PROC				; CGate::Load, COMDAT
; _this$ = ecx

; 103  : {

  00000	55		 push	 ebp
  00001	8b ec		 mov	 ebp, esp
  00003	6a ff		 push	 -1
  00005	68 00 00 00 00	 push	 __ehhandler$?Load@CGate@@QAEXPADH@Z
  0000a	64 a1 00 00 00
	00		 mov	 eax, DWORD PTR fs:0
  00010	50		 push	 eax
  00011	81 ec 88 00 00
	00		 sub	 esp, 136		; 00000088H
  00017	a1 00 00 00 00	 mov	 eax, DWORD PTR ___security_cookie
  0001c	33 c5		 xor	 eax, ebp
  0001e	89 45 f0	 mov	 DWORD PTR __$ArrayPad$[ebp], eax
  00021	53		 push	 ebx
  00022	56		 push	 esi
  00023	57		 push	 edi
  00024	50		 push	 eax
  00025	8d 45 f4	 lea	 eax, DWORD PTR __$EHRec$[ebp]
  00028	64 a3 00 00 00
	00		 mov	 DWORD PTR fs:0, eax
  0002e	8b 7d 08	 mov	 edi, DWORD PTR _Buffer$[ebp]
  00031	8b f1		 mov	 esi, ecx

; 104  : 	CWzMemScript WzMemScript;

  00033	8d 8d 6c ff ff
	ff		 lea	 ecx, DWORD PTR _WzMemScript$[ebp]
  00039	e8 00 00 00 00	 call	 ??0CWzMemScript@@QAE@XZ	; CWzMemScript::CWzMemScript

; 105  : 	int Token;
; 106  : 	int number;
; 107  : 	
; 108  : 	WzMemScript.SetBuffer(Buffer, iSize);

  0003e	8b 45 0c	 mov	 eax, DWORD PTR _iSize$[ebp]
  00041	50		 push	 eax
  00042	57		 push	 edi
  00043	8d 8d 6c ff ff
	ff		 lea	 ecx, DWORD PTR _WzMemScript$[ebp]
  00049	c7 45 fc 00 00
	00 00		 mov	 DWORD PTR __$EHRec$[ebp+8], 0
  00050	e8 00 00 00 00	 call	 ?SetBuffer@CWzMemScript@@QAEHPADH@Z ; CWzMemScript::SetBuffer

; 109  : 	this->Init();

  00055	8b ce		 mov	 ecx, esi
  00057	e8 00 00 00 00	 call	 ?Init@CGate@@QAEXXZ	; CGate::Init

; 110  : 
; 111  : 	while ( true )
; 112  : 	{
; 113  : 		Token=WzMemScript.GetToken();

  0005c	8d 8d 6c ff ff
	ff		 lea	 ecx, DWORD PTR _WzMemScript$[ebp]
  00062	e8 00 00 00 00	 call	 ?GetToken@CWzMemScript@@QAE?AW4SMDToken@@XZ ; CWzMemScript::GetToken

; 114  : 		if ( Token == 2 )

  00067	83 f8 02	 cmp	 eax, 2
  0006a	0f 84 35 01 00
	00		 je	 $LN10@Load@2
$LL4@Load@2:

; 115  : 		{
; 116  : 			break;
; 117  : 		}
; 118  : 
; 119  : 		if ( Token == 1 )

  00070	83 f8 01	 cmp	 eax, 1
  00073	0f 85 18 01 00
	00		 jne	 $LN1@Load@2

; 120  : 		{
; 121  : 
; 122  : 			number=WzMemScript.GetNumber();

  00079	8d 8d 6c ff ff
	ff		 lea	 ecx, DWORD PTR _WzMemScript$[ebp]
  0007f	e8 00 00 00 00	 call	 ?GetNumber@CWzMemScript@@QAEHXZ ; CWzMemScript::GetNumber
  00084	8b d8		 mov	 ebx, eax

; 123  : 			this->m_This[number]=number;
; 124  : 
; 125  : 			Token=WzMemScript.GetToken();

  00086	8d 8d 6c ff ff
	ff		 lea	 ecx, DWORD PTR _WzMemScript$[ebp]
  0008c	88 5c 1e 04	 mov	 BYTE PTR [esi+ebx+4], bl
  00090	e8 00 00 00 00	 call	 ?GetToken@CWzMemScript@@QAE?AW4SMDToken@@XZ ; CWzMemScript::GetToken

; 126  : 			this->m_Flag[number]=WzMemScript.GetNumber();

  00095	8d 8d 6c ff ff
	ff		 lea	 ecx, DWORD PTR _WzMemScript$[ebp]
  0009b	e8 00 00 00 00	 call	 ?GetNumber@CWzMemScript@@QAEHXZ ; CWzMemScript::GetNumber

; 127  : 
; 128  : 			Token=WzMemScript.GetToken();

  000a0	8d 8d 6c ff ff
	ff		 lea	 ecx, DWORD PTR _WzMemScript$[ebp]
  000a6	88 84 1e 04 02
	00 00		 mov	 BYTE PTR [esi+ebx+516], al
  000ad	e8 00 00 00 00	 call	 ?GetToken@CWzMemScript@@QAE?AW4SMDToken@@XZ ; CWzMemScript::GetToken

; 129  : 			this->m_MapNumber[number]=WzMemScript.GetNumber();

  000b2	8d 8d 6c ff ff
	ff		 lea	 ecx, DWORD PTR _WzMemScript$[ebp]
  000b8	e8 00 00 00 00	 call	 ?GetNumber@CWzMemScript@@QAEHXZ ; CWzMemScript::GetNumber

; 130  : 
; 131  : 			Token=WzMemScript.GetToken();

  000bd	8d 8d 6c ff ff
	ff		 lea	 ecx, DWORD PTR _WzMemScript$[ebp]
  000c3	88 84 1e 04 04
	00 00		 mov	 BYTE PTR [esi+ebx+1028], al
  000ca	e8 00 00 00 00	 call	 ?GetToken@CWzMemScript@@QAE?AW4SMDToken@@XZ ; CWzMemScript::GetToken

; 132  : 			this->m_Sx[number]=WzMemScript.GetNumber();

  000cf	8d 8d 6c ff ff
	ff		 lea	 ecx, DWORD PTR _WzMemScript$[ebp]
  000d5	e8 00 00 00 00	 call	 ?GetNumber@CWzMemScript@@QAEHXZ ; CWzMemScript::GetNumber

; 133  : 
; 134  : 			Token=WzMemScript.GetToken();

  000da	8d 8d 6c ff ff
	ff		 lea	 ecx, DWORD PTR _WzMemScript$[ebp]
  000e0	88 84 1e 04 06
	00 00		 mov	 BYTE PTR [esi+ebx+1540], al
  000e7	e8 00 00 00 00	 call	 ?GetToken@CWzMemScript@@QAE?AW4SMDToken@@XZ ; CWzMemScript::GetToken

; 135  : 			this->m_Sy[number]=WzMemScript.GetNumber();

  000ec	8d 8d 6c ff ff
	ff		 lea	 ecx, DWORD PTR _WzMemScript$[ebp]
  000f2	e8 00 00 00 00	 call	 ?GetNumber@CWzMemScript@@QAEHXZ ; CWzMemScript::GetNumber

; 136  : 
; 137  : 			Token=WzMemScript.GetToken();

  000f7	8d 8d 6c ff ff
	ff		 lea	 ecx, DWORD PTR _WzMemScript$[ebp]
  000fd	88 84 1e 04 08
	00 00		 mov	 BYTE PTR [esi+ebx+2052], al
  00104	e8 00 00 00 00	 call	 ?GetToken@CWzMemScript@@QAE?AW4SMDToken@@XZ ; CWzMemScript::GetToken

; 138  : 			this->m_Ex[number]=WzMemScript.GetNumber();

  00109	8d 8d 6c ff ff
	ff		 lea	 ecx, DWORD PTR _WzMemScript$[ebp]
  0010f	e8 00 00 00 00	 call	 ?GetNumber@CWzMemScript@@QAEHXZ ; CWzMemScript::GetNumber

; 139  : 
; 140  : 			Token=WzMemScript.GetToken();

  00114	8d 8d 6c ff ff
	ff		 lea	 ecx, DWORD PTR _WzMemScript$[ebp]
  0011a	88 84 1e 04 0a
	00 00		 mov	 BYTE PTR [esi+ebx+2564], al
  00121	e8 00 00 00 00	 call	 ?GetToken@CWzMemScript@@QAE?AW4SMDToken@@XZ ; CWzMemScript::GetToken

; 141  : 			this->m_Ey[number]=WzMemScript.GetNumber();

  00126	8d 8d 6c ff ff
	ff		 lea	 ecx, DWORD PTR _WzMemScript$[ebp]
  0012c	e8 00 00 00 00	 call	 ?GetNumber@CWzMemScript@@QAEHXZ ; CWzMemScript::GetNumber

; 142  : 
; 143  : 			Token=WzMemScript.GetToken();

  00131	8d 8d 6c ff ff
	ff		 lea	 ecx, DWORD PTR _WzMemScript$[ebp]
  00137	88 84 1e 04 0c
	00 00		 mov	 BYTE PTR [esi+ebx+3076], al
  0013e	e8 00 00 00 00	 call	 ?GetToken@CWzMemScript@@QAE?AW4SMDToken@@XZ ; CWzMemScript::GetToken

; 144  : 			this->m_TargetGate[number]=WzMemScript.GetNumber();

  00143	8d 8d 6c ff ff
	ff		 lea	 ecx, DWORD PTR _WzMemScript$[ebp]
  00149	e8 00 00 00 00	 call	 ?GetNumber@CWzMemScript@@QAEHXZ ; CWzMemScript::GetNumber

; 145  : 
; 146  : 			Token=WzMemScript.GetToken();

  0014e	8d 8d 6c ff ff
	ff		 lea	 ecx, DWORD PTR _WzMemScript$[ebp]
  00154	66 89 84 5e 04
	0e 00 00	 mov	 WORD PTR [esi+ebx*2+3588], ax
  0015c	e8 00 00 00 00	 call	 ?GetToken@CWzMemScript@@QAE?AW4SMDToken@@XZ ; CWzMemScript::GetToken

; 147  : 			this->m_Dir[number]=WzMemScript.GetNumber();

  00161	8d 8d 6c ff ff
	ff		 lea	 ecx, DWORD PTR _WzMemScript$[ebp]
  00167	e8 00 00 00 00	 call	 ?GetNumber@CWzMemScript@@QAEHXZ ; CWzMemScript::GetNumber

; 148  : 
; 149  : 			Token=WzMemScript.GetToken();

  0016c	8d 8d 6c ff ff
	ff		 lea	 ecx, DWORD PTR _WzMemScript$[ebp]
  00172	88 84 1e 04 12
	00 00		 mov	 BYTE PTR [esi+ebx+4612], al
  00179	e8 00 00 00 00	 call	 ?GetToken@CWzMemScript@@QAE?AW4SMDToken@@XZ ; CWzMemScript::GetToken

; 150  : 			this->m_Level[number]=WzMemScript.GetNumber();

  0017e	8d 8d 6c ff ff
	ff		 lea	 ecx, DWORD PTR _WzMemScript$[ebp]
  00184	e8 00 00 00 00	 call	 ?GetNumber@CWzMemScript@@QAEHXZ ; CWzMemScript::GetNumber
  00189	66 89 84 5e 04
	14 00 00	 mov	 WORD PTR [esi+ebx*2+5124], ax
$LN1@Load@2:

; 110  : 
; 111  : 	while ( true )
; 112  : 	{
; 113  : 		Token=WzMemScript.GetToken();

  00191	8d 8d 6c ff ff
	ff		 lea	 ecx, DWORD PTR _WzMemScript$[ebp]
  00197	e8 00 00 00 00	 call	 ?GetToken@CWzMemScript@@QAE?AW4SMDToken@@XZ ; CWzMemScript::GetToken

; 114  : 		if ( Token == 2 )

  0019c	83 f8 02	 cmp	 eax, 2
  0019f	0f 85 cb fe ff
	ff		 jne	 $LL4@Load@2
$LN10@Load@2:

; 151  : 		}
; 152  : 	}
; 153  : 
; 154  : 	LogAdd("Gate information data load complete.");

  001a5	68 00 00 00 00	 push	 OFFSET ??_C@_0CF@IKKILBOJ@Gate?5information?5data?5load?5compl@
  001aa	ff 15 00 00 00
	00		 call	 DWORD PTR ?LogAdd@@3P6AXPADZZA ; LogAdd
  001b0	83 c4 04	 add	 esp, 4

; 155  : }

  001b3	8d 8d 6c ff ff
	ff		 lea	 ecx, DWORD PTR _WzMemScript$[ebp]
  001b9	c7 45 fc ff ff
	ff ff		 mov	 DWORD PTR __$EHRec$[ebp+8], -1
  001c0	e8 00 00 00 00	 call	 ??1CWzMemScript@@UAE@XZ	; CWzMemScript::~CWzMemScript
  001c5	8b 4d f4	 mov	 ecx, DWORD PTR __$EHRec$[ebp]
  001c8	64 89 0d 00 00
	00 00		 mov	 DWORD PTR fs:0, ecx
  001cf	59		 pop	 ecx
  001d0	5f		 pop	 edi
  001d1	5e		 pop	 esi
  001d2	5b		 pop	 ebx
  001d3	8b 4d f0	 mov	 ecx, DWORD PTR __$ArrayPad$[ebp]
  001d6	33 cd		 xor	 ecx, ebp
  001d8	e8 00 00 00 00	 call	 @__security_check_cookie@4
  001dd	8b e5		 mov	 esp, ebp
  001df	5d		 pop	 ebp
  001e0	c2 08 00	 ret	 8
_TEXT	ENDS
;	COMDAT text$x
text$x	SEGMENT
__unwindfunclet$?Load@CGate@@QAEXPADH@Z$0:
  00000	8d 8d 6c ff ff
	ff		 lea	 ecx, DWORD PTR _WzMemScript$[ebp]
  00006	e9 00 00 00 00	 jmp	 ??1CWzMemScript@@UAE@XZ	; CWzMemScript::~CWzMemScript
__ehhandler$?Load@CGate@@QAEXPADH@Z:
  0000b	8b 54 24 08	 mov	 edx, DWORD PTR [esp+8]
  0000f	8d 42 0c	 lea	 eax, DWORD PTR [edx+12]
  00012	8b 8a 68 ff ff
	ff		 mov	 ecx, DWORD PTR [edx-152]
  00018	33 c8		 xor	 ecx, eax
  0001a	e8 00 00 00 00	 call	 @__security_check_cookie@4
  0001f	8b 4a fc	 mov	 ecx, DWORD PTR [edx-4]
  00022	33 c8		 xor	 ecx, eax
  00024	e8 00 00 00 00	 call	 @__security_check_cookie@4
  00029	b8 00 00 00 00	 mov	 eax, OFFSET __ehfuncinfo$?Load@CGate@@QAEXPADH@Z
  0002e	e9 00 00 00 00	 jmp	 ___CxxFrameHandler3
text$x	ENDS
?Load@CGate@@QAEXPADH@Z ENDP				; CGate::Load
PUBLIC	??_C@_08NDPGJHEF@Gate?4cpp?$AA@			; `string'
PUBLIC	?IsGate@CGate@@QAEHH@Z				; CGate::IsGate
EXTRN	?Get@CMsg@@QAEPADH@Z:PROC			; CMsg::Get
EXTRN	?lMsg@@3VCMsg@@A:BYTE				; lMsg
;	COMDAT ??_C@_08NDPGJHEF@Gate?4cpp?$AA@
CONST	SEGMENT
??_C@_08NDPGJHEF@Gate?4cpp?$AA@ DB 'Gate.cpp', 00H	; `string'
; Function compile flags: /Ogtp
CONST	ENDS
;	COMDAT ?IsGate@CGate@@QAEHH@Z
_TEXT	SEGMENT
_GateNumber$ = 8					; size = 4
?IsGate@CGate@@QAEHH@Z PROC				; CGate::IsGate, COMDAT
; _this$ = ecx

; 159  : {

  00000	55		 push	 ebp
  00001	8b ec		 mov	 ebp, esp

; 160  : 	if ( (GateNumber < 0) || (GateNumber > MAX_GATES-1) )

  00003	8b 45 08	 mov	 eax, DWORD PTR _GateNumber$[ebp]
  00006	3d ff 01 00 00	 cmp	 eax, 511		; 000001ffH
  0000b	77 39		 ja	 SHORT $LN2@IsGate

; 164  : 	}
; 165  : 
; 166  : 	if ( this->m_This[GateNumber] == (BYTE)-1 )

  0000d	80 7c 08 04 ff	 cmp	 BYTE PTR [eax+ecx+4], 255 ; 000000ffH
  00012	75 29		 jne	 SHORT $LN1@IsGate

; 167  : 	{
; 168  : 		LogAdd( lMsg.Get(MSGGET(1, 196)), __FILE__, __LINE__);

  00014	68 a8 00 00 00	 push	 168			; 000000a8H
  00019	68 00 00 00 00	 push	 OFFSET ??_C@_08NDPGJHEF@Gate?4cpp?$AA@
  0001e	68 c4 01 00 00	 push	 452			; 000001c4H
  00023	b9 00 00 00 00	 mov	 ecx, OFFSET ?lMsg@@3VCMsg@@A ; lMsg
  00028	e8 00 00 00 00	 call	 ?Get@CMsg@@QAEPADH@Z	; CMsg::Get
  0002d	50		 push	 eax
  0002e	ff 15 00 00 00
	00		 call	 DWORD PTR ?LogAdd@@3P6AXPADZZA ; LogAdd
  00034	83 c4 0c	 add	 esp, 12			; 0000000cH
  00037	33 c0		 xor	 eax, eax

; 173  : }

  00039	5d		 pop	 ebp
  0003a	c2 04 00	 ret	 4
$LN1@IsGate:

; 169  : 		return 0;
; 170  : 	}
; 171  : 
; 172  : 	return 1;

  0003d	b8 01 00 00 00	 mov	 eax, 1

; 173  : }

  00042	5d		 pop	 ebp
  00043	c2 04 00	 ret	 4
$LN2@IsGate:

; 161  : 	{
; 162  : 		LogAdd(lMsg.Get(MSGGET(1, 195)), GateNumber, __FILE__, __LINE__);

  00046	68 a2 00 00 00	 push	 162			; 000000a2H
  0004b	68 00 00 00 00	 push	 OFFSET ??_C@_08NDPGJHEF@Gate?4cpp?$AA@
  00050	50		 push	 eax
  00051	68 c3 01 00 00	 push	 451			; 000001c3H
  00056	b9 00 00 00 00	 mov	 ecx, OFFSET ?lMsg@@3VCMsg@@A ; lMsg
  0005b	e8 00 00 00 00	 call	 ?Get@CMsg@@QAEPADH@Z	; CMsg::Get
  00060	50		 push	 eax
  00061	ff 15 00 00 00
	00		 call	 DWORD PTR ?LogAdd@@3P6AXPADZZA ; LogAdd
  00067	83 c4 10	 add	 esp, 16			; 00000010H

; 163  : 		return 0;

  0006a	33 c0		 xor	 eax, eax

; 173  : }

  0006c	5d		 pop	 ebp
  0006d	c2 04 00	 ret	 4
?IsGate@CGate@@QAEHH@Z ENDP				; CGate::IsGate
_TEXT	ENDS
PUBLIC	?GetGate@CGate@@QAEHHAAF0AAE10@Z		; CGate::GetGate
EXTRN	?GetAttr@MapClass@@QAEEHH@Z:PROC		; MapClass::GetAttr
EXTRN	?MapC@@3PAVMapClass@@A:BYTE			; MapC
EXTRN	_rand:PROC
; Function compile flags: /Ogtp
;	COMDAT ?GetGate@CGate@@QAEHHAAF0AAE10@Z
_TEXT	SEGMENT
_this$ = -8						; size = 4
tv286 = -4						; size = 4
tv274 = -4						; size = 4
_loopcount$ = 8						; size = 4
_mgt$ = 8						; size = 4
_x$ = 12						; size = 4
_y$ = 16						; size = 4
_MapNumber$ = 20					; size = 4
_dir$ = 24						; size = 4
_Level$ = 28						; size = 4
?GetGate@CGate@@QAEHHAAF0AAE10@Z PROC			; CGate::GetGate, COMDAT
; _this$ = ecx

; 178  : {

  00000	55		 push	 ebp
  00001	8b ec		 mov	 ebp, esp
  00003	83 ec 08	 sub	 esp, 8
  00006	56		 push	 esi
  00007	57		 push	 edi

; 179  : 	int gt;
; 180  : 	int tx;
; 181  : 	int ty;
; 182  : 	int loopcount;
; 183  : 	BYTE attr;
; 184  : 	
; 185  : 	if (this->IsGate(mgt) == 0)

  00008	8b 7d 08	 mov	 edi, DWORD PTR _mgt$[ebp]
  0000b	8b f1		 mov	 esi, ecx
  0000d	57		 push	 edi
  0000e	89 75 f8	 mov	 DWORD PTR _this$[ebp], esi
  00011	e8 00 00 00 00	 call	 ?IsGate@CGate@@QAEHH@Z	; CGate::IsGate
  00016	85 c0		 test	 eax, eax
  00018	75 0b		 jne	 SHORT $LN9@GetGate

; 186  : 	{
; 187  : 		return -1;

  0001a	5f		 pop	 edi
  0001b	83 c8 ff	 or	 eax, -1
  0001e	5e		 pop	 esi

; 230  : 
; 231  : }

  0001f	8b e5		 mov	 esp, ebp
  00021	5d		 pop	 ebp
  00022	c2 18 00	 ret	 24			; 00000018H
$LN9@GetGate:
  00025	53		 push	 ebx

; 188  : 	}
; 189  : 
; 190  : 	gt=this->m_TargetGate[mgt];

  00026	0f b7 9c 7e 04
	0e 00 00	 movzx	 ebx, WORD PTR [esi+edi*2+3588]

; 191  : 	if ( gt == 0 )

  0002e	85 db		 test	 ebx, ebx
  00030	75 02		 jne	 SHORT $LN8@GetGate

; 192  : 	{
; 193  : 		gt=mgt;

  00032	8b df		 mov	 ebx, edi
$LN8@GetGate:

; 194  : 	}
; 195  : 	
; 196  : 	loopcount=10;

  00034	c7 45 08 0a 00
	00 00		 mov	 DWORD PTR _loopcount$[ebp], 10 ; 0000000aH
  0003b	eb 06		 jmp	 SHORT $LN7@GetGate
  0003d	8d 49 00	 npad	 3
$LL15@GetGate:
  00040	8b 75 f8	 mov	 esi, DWORD PTR _this$[ebp]
$LN7@GetGate:

; 198  : 	{
; 199  : 		if ( (this->m_Ex[gt] - this->m_Sx[gt]) > 0 )

  00043	0f b6 bc 33 04
	06 00 00	 movzx	 edi, BYTE PTR [ebx+esi+1540]
  0004b	0f b6 84 33 04
	0a 00 00	 movzx	 eax, BYTE PTR [ebx+esi+2564]
  00053	ff 4d 08	 dec	 DWORD PTR _loopcount$[ebp]
  00056	2b c7		 sub	 eax, edi
  00058	85 c0		 test	 eax, eax
  0005a	7e 22		 jle	 SHORT $LN5@GetGate

; 200  : 		{
; 201  : 			tx = this->m_Sx[gt] + ( rand() % ( this->m_Ex[gt] - this->m_Sx[gt] ) );

  0005c	0f b6 bc 33 04
	06 00 00	 movzx	 edi, BYTE PTR [ebx+esi+1540]
  00064	89 7d fc	 mov	 DWORD PTR tv274[ebp], edi
  00067	e8 00 00 00 00	 call	 _rand
  0006c	0f b6 8c 33 04
	0a 00 00	 movzx	 ecx, BYTE PTR [ebx+esi+2564]
  00074	2b cf		 sub	 ecx, edi
  00076	99		 cdq
  00077	f7 f9		 idiv	 ecx
  00079	8b fa		 mov	 edi, edx
  0007b	03 7d fc	 add	 edi, DWORD PTR tv274[ebp]
$LN5@GetGate:

; 202  : 		}
; 203  : 		else
; 204  : 		{
; 205  : 			tx = this->m_Sx[gt];
; 206  : 		}
; 207  : 		if ( (this->m_Ey[gt] - this->m_Sy[gt]) > 0 )

  0007e	0f b6 84 33 04
	08 00 00	 movzx	 eax, BYTE PTR [ebx+esi+2052]
  00086	0f b6 94 33 04
	0c 00 00	 movzx	 edx, BYTE PTR [ebx+esi+3076]
  0008e	2b d0		 sub	 edx, eax
  00090	85 d2		 test	 edx, edx
  00092	7e 25		 jle	 SHORT $LN3@GetGate

; 208  : 		{
; 209  : 			ty = this->m_Sy[gt] + ( rand() % ( this->m_Ey[gt] - this->m_Sy[gt] ) );

  00094	0f b6 84 33 04
	08 00 00	 movzx	 eax, BYTE PTR [ebx+esi+2052]
  0009c	89 45 fc	 mov	 DWORD PTR tv286[ebp], eax
  0009f	e8 00 00 00 00	 call	 _rand
  000a4	0f b6 8c 33 04
	0c 00 00	 movzx	 ecx, BYTE PTR [ebx+esi+3076]
  000ac	2b 4d fc	 sub	 ecx, DWORD PTR tv286[ebp]
  000af	99		 cdq
  000b0	f7 f9		 idiv	 ecx
  000b2	8b f2		 mov	 esi, edx
  000b4	03 75 fc	 add	 esi, DWORD PTR tv286[ebp]

; 210  : 		}
; 211  : 		else

  000b7	eb 02		 jmp	 SHORT $LN2@GetGate
$LN3@GetGate:

; 212  : 		{
; 213  : 			ty = this->m_Sy[gt];

  000b9	8b f0		 mov	 esi, eax
$LN2@GetGate:

; 214  : 		}
; 215  : 
; 216  : 		attr = MapC[MapNumber].GetAttr( tx, ty);

  000bb	8b 55 14	 mov	 edx, DWORD PTR _MapNumber$[ebp]
  000be	0f b6 0a	 movzx	 ecx, BYTE PTR [edx]
  000c1	69 c9 48 3d 05
	00		 imul	 ecx, 343368		; 00053d48H
  000c7	56		 push	 esi
  000c8	57		 push	 edi
  000c9	81 c1 00 00 00
	00		 add	 ecx, OFFSET ?MapC@@3PAVMapClass@@A ; MapC
  000cf	e8 00 00 00 00	 call	 ?GetAttr@MapClass@@QAEEHH@Z ; MapClass::GetAttr

; 217  : 
; 218  : 		if ( (attr&4) != 4 && (attr&2) != 2 && (attr&8) != 8 )

  000d4	a8 0e		 test	 al, 14			; 0000000eH
  000d6	74 0a		 je	 SHORT $LN13@GetGate

; 197  : 	while ( loopcount-- != 0 )

  000d8	83 7d 08 00	 cmp	 DWORD PTR _loopcount$[ebp], 0
  000dc	0f 85 5e ff ff
	ff		 jne	 $LL15@GetGate
$LN13@GetGate:

; 219  : 		{
; 220  : 			break;
; 221  : 		}
; 222  : 	}
; 223  : 
; 224  : 	x = tx;

  000e2	8b 45 0c	 mov	 eax, DWORD PTR _x$[ebp]

; 225  : 	y = ty;

  000e5	8b 4d 10	 mov	 ecx, DWORD PTR _y$[ebp]
  000e8	66 89 38	 mov	 WORD PTR [eax], di

; 226  : 	MapNumber = this->m_MapNumber[gt];

  000eb	8b 45 f8	 mov	 eax, DWORD PTR _this$[ebp]
  000ee	66 89 31	 mov	 WORD PTR [ecx], si
  000f1	0f b6 94 03 04
	04 00 00	 movzx	 edx, BYTE PTR [ebx+eax+1028]
  000f9	8b 4d 14	 mov	 ecx, DWORD PTR _MapNumber$[ebp]
  000fc	88 11		 mov	 BYTE PTR [ecx], dl

; 227  : 	dir = this->m_Dir[gt];

  000fe	0f b6 94 03 04
	12 00 00	 movzx	 edx, BYTE PTR [ebx+eax+4612]
  00106	8b 4d 18	 mov	 ecx, DWORD PTR _dir$[ebp]
  00109	88 11		 mov	 BYTE PTR [ecx], dl

; 228  : 	Level = this->m_Level[gt];

  0010b	66 8b 94 58 04
	14 00 00	 mov	 dx, WORD PTR [eax+ebx*2+5124]
  00113	8b 45 1c	 mov	 eax, DWORD PTR _Level$[ebp]
  00116	66 89 10	 mov	 WORD PTR [eax], dx

; 229  : 	return gt;

  00119	8b c3		 mov	 eax, ebx
  0011b	5b		 pop	 ebx
  0011c	5f		 pop	 edi
  0011d	5e		 pop	 esi

; 230  : 
; 231  : }

  0011e	8b e5		 mov	 esp, ebp
  00120	5d		 pop	 ebp
  00121	c2 18 00	 ret	 24			; 00000018H
?GetGate@CGate@@QAEHHAAF0AAE10@Z ENDP			; CGate::GetGate
_TEXT	ENDS
PUBLIC	?GetLevel@CGate@@QAEHH@Z			; CGate::GetLevel
; Function compile flags: /Ogtp
;	COMDAT ?GetLevel@CGate@@QAEHH@Z
_TEXT	SEGMENT
_GateNumber$ = 8					; size = 4
?GetLevel@CGate@@QAEHH@Z PROC				; CGate::GetLevel, COMDAT
; _this$ = ecx

; 234  : {

  00000	55		 push	 ebp
  00001	8b ec		 mov	 ebp, esp

; 235  : 	if (GateNumber < 0 || GateNumber > MAX_GATES-1 )

  00003	8b 45 08	 mov	 eax, DWORD PTR _GateNumber$[ebp]
  00006	3d ff 01 00 00	 cmp	 eax, 511		; 000001ffH
  0000b	77 0c		 ja	 SHORT $LN1@GetLevel

; 239  : 	}
; 240  : 
; 241  : 	return this->m_Level[GateNumber];

  0000d	0f bf 84 41 04
	14 00 00	 movsx	 eax, WORD PTR [ecx+eax*2+5124]

; 242  : }

  00015	5d		 pop	 ebp
  00016	c2 04 00	 ret	 4
$LN1@GetLevel:

; 236  : 	{
; 237  : 		LogAdd(lMsg.Get(MSGGET(1, 195)), GateNumber, __FILE__, __LINE__);

  00019	68 ed 00 00 00	 push	 237			; 000000edH
  0001e	68 00 00 00 00	 push	 OFFSET ??_C@_08NDPGJHEF@Gate?4cpp?$AA@
  00023	50		 push	 eax
  00024	68 c3 01 00 00	 push	 451			; 000001c3H
  00029	b9 00 00 00 00	 mov	 ecx, OFFSET ?lMsg@@3VCMsg@@A ; lMsg
  0002e	e8 00 00 00 00	 call	 ?Get@CMsg@@QAEPADH@Z	; CMsg::Get
  00033	50		 push	 eax
  00034	ff 15 00 00 00
	00		 call	 DWORD PTR ?LogAdd@@3P6AXPADZZA ; LogAdd
  0003a	83 c4 10	 add	 esp, 16			; 00000010H

; 238  : 		return -1;

  0003d	83 c8 ff	 or	 eax, -1

; 242  : }

  00040	5d		 pop	 ebp
  00041	c2 04 00	 ret	 4
?GetLevel@CGate@@QAEHH@Z ENDP				; CGate::GetLevel
_TEXT	ENDS
PUBLIC	?IsInGate@CGate@@QAEHHH@Z			; CGate::IsInGate
EXTRN	?DestroyGIocp@@YAXXZ:PROC			; DestroyGIocp
EXTRN	?szAuthKey@@3PADA:BYTE				; szAuthKey
EXTRN	?BlockTeleport@cPandoraBoxEvent@@QAE_NH@Z:PROC	; cPandoraBoxEvent::BlockTeleport
EXTRN	?gPandoraBoxEvent@@3VcPandoraBoxEvent@@A:BYTE	; gPandoraBoxEvent
EXTRN	?g_ZtLicense@@3VCZtLicense@@A:BYTE		; g_ZtLicense
EXTRN	?gObj@@3PAUOBJECTSTRUCT@@A:DWORD		; gObj
; Function compile flags: /Ogtp
;	COMDAT ?IsInGate@CGate@@QAEHHH@Z
_TEXT	SEGMENT
_level$ = 8						; size = 4
_aIndex$ = 8						; size = 4
_GateNumber$ = 12					; size = 4
?IsInGate@CGate@@QAEHHH@Z PROC				; CGate::IsInGate, COMDAT
; _this$ = ecx

; 245  : {

  00000	55		 push	 ebp
  00001	8b ec		 mov	 ebp, esp
  00003	53		 push	 ebx

; 246  : 	LPOBJ lpObj = &gObj[aIndex];
; 247  : 
; 248  : 	if ( this->IsGate(GateNumber) == FALSE )

  00004	8b 5d 0c	 mov	 ebx, DWORD PTR _GateNumber$[ebp]
  00007	56		 push	 esi
  00008	8b 75 08	 mov	 esi, DWORD PTR _aIndex$[ebp]
  0000b	69 f6 50 2b 00
	00		 imul	 esi, 11088		; 00002b50H
  00011	03 35 00 00 00
	00		 add	 esi, DWORD PTR ?gObj@@3PAUOBJECTSTRUCT@@A ; gObj
  00017	57		 push	 edi
  00018	53		 push	 ebx
  00019	8b f9		 mov	 edi, ecx
  0001b	e8 00 00 00 00	 call	 ?IsGate@CGate@@QAEHH@Z	; CGate::IsGate
  00020	85 c0		 test	 eax, eax

; 249  : 	{
; 250  : 		return false;

  00022	0f 84 e0 00 00
	00		 je	 $LN1@IsInGate

; 251  : 	}
; 252  : #ifdef PANDORA_EVENT
; 253  : 	 if(g_ZtLicense.user.PandoraEvent)

  00028	80 3d d9 00 00
	00 00		 cmp	 BYTE PTR ?g_ZtLicense@@3VCZtLicense@@A+217, 0
  0002f	74 16		 je	 SHORT $LN10@IsInGate

; 254  : 	 {
; 255  : 		if(!gPandoraBoxEvent.BlockTeleport(aIndex))return false;

  00031	8b 45 08	 mov	 eax, DWORD PTR _aIndex$[ebp]
  00034	50		 push	 eax
  00035	b9 00 00 00 00	 mov	 ecx, OFFSET ?gPandoraBoxEvent@@3VcPandoraBoxEvent@@A ; gPandoraBoxEvent
  0003a	e8 00 00 00 00	 call	 ?BlockTeleport@cPandoraBoxEvent@@QAE_NH@Z ; cPandoraBoxEvent::BlockTeleport
  0003f	84 c0		 test	 al, al
  00041	0f 84 c1 00 00
	00		 je	 $LN1@IsInGate
$LN10@IsInGate:

; 256  : 	 }
; 257  : #endif // PANDORA_BOX
; 258  : 	int level = this->m_Level[GateNumber];

  00047	0f bf 8c 5f 04
	14 00 00	 movsx	 ecx, WORD PTR [edi+ebx*2+5124]
  0004f	89 4d 08	 mov	 DWORD PTR _level$[ebp], ecx

; 259  : 
; 260  : 	if(GateNumber != 273) //Season 3.0 add-on

  00052	81 fb 11 01 00
	00		 cmp	 ebx, 273		; 00000111H
  00058	74 2d		 je	 SHORT $LN6@IsInGate

; 261  : 	{
; 262  : 		if ( lpObj->Class == CLASS_DARKLORD 
; 263  : #ifdef MONK
; 264  : 			|| lpObj->Class == CLASS_MONK
; 265  : #endif
; 266  : 			|| lpObj->Class == CLASS_MAGUMSA )

  0005a	0f b7 86 b8 00
	00 00		 movzx	 eax, WORD PTR [esi+184]
  00061	83 f8 04	 cmp	 eax, 4
  00064	74 0a		 je	 SHORT $LN7@IsInGate
  00066	83 f8 06	 cmp	 eax, 6
  00069	74 05		 je	 SHORT $LN7@IsInGate
  0006b	83 f8 03	 cmp	 eax, 3
  0006e	75 17		 jne	 SHORT $LN6@IsInGate
$LN7@IsInGate:

; 267  : 		{
; 268  : 			if ( level > 0 )

  00070	85 c9		 test	 ecx, ecx
  00072	7e 13		 jle	 SHORT $LN6@IsInGate

; 269  : 			{
; 270  : 				level = level / 3 * 2;

  00074	b8 56 55 55 55	 mov	 eax, 1431655766		; 55555556H
  00079	f7 e9		 imul	 ecx
  0007b	8b ca		 mov	 ecx, edx
  0007d	c1 e9 1f	 shr	 ecx, 31			; 0000001fH
  00080	03 ca		 add	 ecx, edx
  00082	03 c9		 add	 ecx, ecx
  00084	89 4d 08	 mov	 DWORD PTR _level$[ebp], ecx
$LN6@IsInGate:

; 271  : 			}
; 272  : 		}
; 273  : 	}
; 274  : 
; 275  : 	if (szAuthKey[15] != AUTHKEY15 )

  00087	80 3d 0f 00 00
	00 eb		 cmp	 BYTE PTR ?szAuthKey@@3PADA+15, -21 ; ffffffebH
  0008e	74 08		 je	 SHORT $LN5@IsInGate

; 276  : 	{
; 277  : 		DestroyGIocp();

  00090	e8 00 00 00 00	 call	 ?DestroyGIocp@@YAXXZ	; DestroyGIocp
  00095	8b 4d 08	 mov	 ecx, DWORD PTR _level$[ebp]
$LN5@IsInGate:

; 278  : 	}
; 279  : 
; 280  : 	if ( lpObj->Level < level )

  00098	0f bf 96 be 00
	00 00		 movsx	 edx, WORD PTR [esi+190]
  0009f	3b d1		 cmp	 edx, ecx

; 281  : 	{
; 282  : 		return FALSE;

  000a1	7c 65		 jl	 SHORT $LN1@IsInGate

; 283  : 	}
; 284  : 
; 285  : 	if ( lpObj->MapNumber != this->m_MapNumber[GateNumber] )

  000a3	8a 86 49 01 00
	00		 mov	 al, BYTE PTR [esi+329]
  000a9	3a 84 3b 04 04
	00 00		 cmp	 al, BYTE PTR [ebx+edi+1028]

; 286  : 	{
; 287  : 		return FALSE;

  000b0	75 56		 jne	 SHORT $LN1@IsInGate

; 288  : 	}
; 289  : 
; 290  : 	if ( lpObj->X < this->m_Sx[GateNumber]-5 || lpObj->X > this->m_Ex[GateNumber]+5 || lpObj->Y < this->m_Sy[GateNumber]-5 || lpObj->Y > this->m_Ey[GateNumber]+5 )

  000b2	0f b6 8c 3b 04
	06 00 00	 movzx	 ecx, BYTE PTR [ebx+edi+1540]
  000ba	0f bf 86 44 01
	00 00		 movsx	 eax, WORD PTR [esi+324]
  000c1	83 e9 05	 sub	 ecx, 5
  000c4	3b c1		 cmp	 eax, ecx
  000c6	7c 40		 jl	 SHORT $LN1@IsInGate
  000c8	0f b6 94 3b 04
	0a 00 00	 movzx	 edx, BYTE PTR [ebx+edi+2564]
  000d0	83 c2 05	 add	 edx, 5
  000d3	3b c2		 cmp	 eax, edx
  000d5	7f 31		 jg	 SHORT $LN1@IsInGate
  000d7	0f b6 8c 3b 04
	08 00 00	 movzx	 ecx, BYTE PTR [ebx+edi+2052]
  000df	0f bf 86 46 01
	00 00		 movsx	 eax, WORD PTR [esi+326]
  000e6	83 e9 05	 sub	 ecx, 5
  000e9	3b c1		 cmp	 eax, ecx
  000eb	7c 1b		 jl	 SHORT $LN1@IsInGate
  000ed	0f b6 94 3b 04
	0c 00 00	 movzx	 edx, BYTE PTR [ebx+edi+3076]
  000f5	83 c2 05	 add	 edx, 5
  000f8	3b c2		 cmp	 eax, edx
  000fa	7f 0c		 jg	 SHORT $LN1@IsInGate

; 293  : 	}
; 294  : 
; 295  : 	return true;

  000fc	5f		 pop	 edi
  000fd	5e		 pop	 esi
  000fe	b8 01 00 00 00	 mov	 eax, 1
  00103	5b		 pop	 ebx

; 296  : }

  00104	5d		 pop	 ebp
  00105	c2 08 00	 ret	 8
$LN1@IsInGate:
  00108	5f		 pop	 edi
  00109	5e		 pop	 esi

; 291  : 	{
; 292  : 		return FALSE;

  0010a	33 c0		 xor	 eax, eax
  0010c	5b		 pop	 ebx

; 296  : }

  0010d	5d		 pop	 ebp
  0010e	c2 08 00	 ret	 8
?IsInGate@CGate@@QAEHHH@Z ENDP				; CGate::IsInGate
_TEXT	ENDS
PUBLIC	?CheckGateLevel@CGate@@QAEHHH@Z			; CGate::CheckGateLevel
; Function compile flags: /Ogtp
;	COMDAT ?CheckGateLevel@CGate@@QAEHHH@Z
_TEXT	SEGMENT
_aIndex$ = 8						; size = 4
_GateNumber$ = 12					; size = 4
?CheckGateLevel@CGate@@QAEHHH@Z PROC			; CGate::CheckGateLevel, COMDAT
; _this$ = ecx

; 299  : {

  00000	55		 push	 ebp
  00001	8b ec		 mov	 ebp, esp
  00003	53		 push	 ebx

; 300  : 	LPOBJ lpObj = &gObj[aIndex];
; 301  : 
; 302  : 	if ( this->IsGate(GateNumber) == FALSE )

  00004	8b 5d 0c	 mov	 ebx, DWORD PTR _GateNumber$[ebp]
  00007	56		 push	 esi
  00008	8b 75 08	 mov	 esi, DWORD PTR _aIndex$[ebp]
  0000b	69 f6 50 2b 00
	00		 imul	 esi, 11088		; 00002b50H
  00011	03 35 00 00 00
	00		 add	 esi, DWORD PTR ?gObj@@3PAUOBJECTSTRUCT@@A ; gObj
  00017	57		 push	 edi
  00018	53		 push	 ebx
  00019	8b f9		 mov	 edi, ecx
  0001b	e8 00 00 00 00	 call	 ?IsGate@CGate@@QAEHH@Z	; CGate::IsGate
  00020	85 c0		 test	 eax, eax
  00022	75 07		 jne	 SHORT $LN6@CheckGateL
  00024	5f		 pop	 edi
  00025	5e		 pop	 esi
  00026	5b		 pop	 ebx

; 325  : 	{
; 326  : 		return false;
; 327  : 	}
; 328  : 
; 329  : 	return true;
; 330  : }

  00027	5d		 pop	 ebp
  00028	c2 08 00	 ret	 8
$LN6@CheckGateL:

; 303  : 	{
; 304  : 		return false;
; 305  : 	}
; 306  : 
; 307  : 	int level = this->m_Level[GateNumber];

  0002b	0f bf 8c 5f 04
	14 00 00	 movsx	 ecx, WORD PTR [edi+ebx*2+5124]

; 308  : 
; 309  : 	if(GateNumber != 273) //Season 3.0 add-on

  00033	81 fb 11 01 00
	00		 cmp	 ebx, 273		; 00000111H
  00039	74 2b		 je	 SHORT $LN2@CheckGateL

; 310  : 	{
; 311  : 		if ( lpObj->Class == CLASS_DARKLORD 
; 312  : #ifdef MONK
; 313  : 			|| lpObj->Class == CLASS_MONK
; 314  : #endif
; 315  : 			|| lpObj->Class == CLASS_MAGUMSA )

  0003b	0f b7 86 b8 00
	00 00		 movzx	 eax, WORD PTR [esi+184]
  00042	83 f8 04	 cmp	 eax, 4
  00045	74 0a		 je	 SHORT $LN3@CheckGateL
  00047	83 f8 06	 cmp	 eax, 6
  0004a	74 05		 je	 SHORT $LN3@CheckGateL
  0004c	83 f8 03	 cmp	 eax, 3
  0004f	75 15		 jne	 SHORT $LN2@CheckGateL
$LN3@CheckGateL:

; 316  : 		{
; 317  : 			if ( level > 0 )

  00051	85 c9		 test	 ecx, ecx
  00053	7e 11		 jle	 SHORT $LN2@CheckGateL

; 318  : 			{
; 319  : 				level = (level/3)*2;

  00055	b8 56 55 55 55	 mov	 eax, 1431655766		; 55555556H
  0005a	f7 e9		 imul	 ecx
  0005c	8b c2		 mov	 eax, edx
  0005e	c1 e8 1f	 shr	 eax, 31			; 0000001fH
  00061	03 c2		 add	 eax, edx
  00063	8d 0c 00	 lea	 ecx, DWORD PTR [eax+eax]
$LN2@CheckGateL:

; 320  : 			}
; 321  : 		}
; 322  : 	}
; 323  : 
; 324  : 	if ( lpObj->Level < level )

  00066	0f bf 96 be 00
	00 00		 movsx	 edx, WORD PTR [esi+190]
  0006d	5f		 pop	 edi
  0006e	33 c0		 xor	 eax, eax
  00070	3b d1		 cmp	 edx, ecx
  00072	5e		 pop	 esi
  00073	0f 9d c0	 setge	 al
  00076	5b		 pop	 ebx

; 325  : 	{
; 326  : 		return false;
; 327  : 	}
; 328  : 
; 329  : 	return true;
; 330  : }

  00077	5d		 pop	 ebp
  00078	c2 08 00	 ret	 8
?CheckGateLevel@CGate@@QAEHHH@Z ENDP			; CGate::CheckGateLevel
_TEXT	ENDS
EXTRN	??3@YAXPAX@Z:PROC				; operator delete
; Function compile flags: /Ogtp
;	COMDAT ??_GCGate@@UAEPAXI@Z
_TEXT	SEGMENT
___flags$ = 8						; size = 4
??_GCGate@@UAEPAXI@Z PROC				; CGate::`scalar deleting destructor', COMDAT
; _this$ = ecx
  00000	55		 push	 ebp
  00001	8b ec		 mov	 ebp, esp
  00003	56		 push	 esi
  00004	8b f1		 mov	 esi, ecx
  00006	e8 00 00 00 00	 call	 ??1CGate@@UAE@XZ	; CGate::~CGate
  0000b	f6 45 08 01	 test	 BYTE PTR ___flags$[ebp], 1
  0000f	74 09		 je	 SHORT $LN4@scalar
  00011	56		 push	 esi
  00012	e8 00 00 00 00	 call	 ??3@YAXPAX@Z		; operator delete
  00017	83 c4 04	 add	 esp, 4
$LN4@scalar:
  0001a	8b c6		 mov	 eax, esi
  0001c	5e		 pop	 esi
  0001d	5d		 pop	 ebp
  0001e	c2 04 00	 ret	 4
??_GCGate@@UAEPAXI@Z ENDP				; CGate::`scalar deleting destructor'
_TEXT	ENDS
EXTRN	_atexit:PROC
; Function compile flags: /Ogtp
;	COMDAT ??__EgGateC@@YAXXZ
text$yc	SEGMENT
??__EgGateC@@YAXXZ PROC					; `dynamic initializer for 'gGateC'', COMDAT

; 14   : CGate gGateC;

  00000	b9 00 00 00 00	 mov	 ecx, OFFSET ?gGateC@@3VCGate@@A ; gGateC
  00005	e8 00 00 00 00	 call	 ??0CGate@@QAE@XZ	; CGate::CGate
  0000a	68 00 00 00 00	 push	 OFFSET ??__FgGateC@@YAXXZ ; `dynamic atexit destructor for 'gGateC''
  0000f	e8 00 00 00 00	 call	 _atexit
  00014	59		 pop	 ecx
  00015	c3		 ret	 0
??__EgGateC@@YAXXZ ENDP					; `dynamic initializer for 'gGateC''
; Function compile flags: /Ogtp
text$yc	ENDS
;	COMDAT ??__FgGateC@@YAXXZ
text$yd	SEGMENT
??__FgGateC@@YAXXZ PROC					; `dynamic atexit destructor for 'gGateC'', COMDAT
  00000	b9 00 00 00 00	 mov	 ecx, OFFSET ?gGateC@@3VCGate@@A ; gGateC
  00005	e9 00 00 00 00	 jmp	 ??1CGate@@UAE@XZ	; CGate::~CGate
??__FgGateC@@YAXXZ ENDP					; `dynamic atexit destructor for 'gGateC''
text$yd	ENDS
PUBLIC	?gGateC@@3VCGate@@A				; gGateC
_BSS	SEGMENT
?gGateC@@3VCGate@@A DB 01804H DUP (?)			; gGateC
_BSS	ENDS
CRT$XCU	SEGMENT
_gGateC$initializer$ DD FLAT:??__EgGateC@@YAXXZ
CRT$XCU	ENDS
END
