; Listing generated by Microsoft (R) Optimizing Compiler Version 16.00.30319.01 

	TITLE	E:\work\tranet_version\GS\GameServer\gObjMonster.cpp
	.686P
	.XMM
	include listing.inc
	.model	flat

INCLUDELIB LIBCMT
INCLUDELIB OLDNAMES

_DATA	SEGMENT
_g_iNpcUpDfLevel_CGATE DD 01H
	DD	02H
	DD	02dc6c0H
	DD	02H
	DD	03H
	DD	02dc6c0H
	DD	03H
	DD	04H
	DD	02dc6c0H
_g_iNpcUpDfLevel_CSTATUE DD 01H
	DD	03H
	DD	02dc6c0H
	DD	02H
	DD	05H
	DD	02dc6c0H
	DD	03H
	DD	07H
	DD	02dc6c0H
_g_iNpcUpMaxHP_CGATE DD 02625a0H
	DD	02H
	DD	0f4240H
	DD	03567e0H
	DD	03H
	DD	0f4240H
	DD	04f5880H
	DD	04H
	DD	0f4240H
_g_iNpcUpMaxHP_CSTATUE DD 02191c0H
	DD	03H
	DD	0f4240H
	DD	033e140H
	DD	05H
	DD	0f4240H
	DD	04c4b40H
	DD	07H
	DD	0f4240H
_g_iNpcUpRgLevel_CSTATUE DD 01H
	DD	03H
	DD	04c4b40H
	DD	02H
	DD	05H
	DD	04c4b40H
	DD	03H
	DD	07H
	DD	04c4b40H
_g_iCsUserReSpawnArea DD 023H
	DD	011H
	DD	090H
	DD	030H
	DD	04aH
	DD	090H
	DD	073H
	DD	09aH
	DD	023H
	DD	011H
	DD	090H
	DD	030H
_g_iNpcDefense_CGATE DD 064H
	DD	0b4H
	DD	012cH
	DD	0208H
_g_iNpcDefense_CSTATUE DD 050H
	DD	0b4H
	DD	0154H
	DD	0226H
_g_iCastleWallStepAxisY DD 071H
	DD	0a0H
	DD	0cbH
_g_sttBLOODCASTLE_LEVEL DD 0fH
	DD	050H
	DD	0aH
	DD	03cH
	DD	051H
	DD	082H
	DD	03dH
	DD	06eH
	DD	083H
	DD	0b4H
	DD	06fH
	DD	0a0H
	DD	0b5H
	DD	0e6H
	DD	0a1H
	DD	0d2H
	DD	0e7H
	DD	0118H
	DD	0d3H
	DD	0104H
	DD	0119H
	DD	014aH
	DD	0105H
	DD	0136H
	DD	014bH
	DD	03e8H
	DD	0137H
	DD	03e8H
	DD	0fH
	DD	04afH
	DD	0aH
	DD	04afH
_g_sttKALIMAGATE_LEVEL DD 028H
	DD	082H
	DD	014H
	DD	06eH
	DD	083H
	DD	0b4H
	DD	06fH
	DD	0a0H
	DD	0b5H
	DD	0e6H
	DD	0a1H
	DD	0d2H
	DD	0e7H
	DD	0118H
	DD	0d3H
	DD	0104H
	DD	0119H
	DD	014aH
	DD	0105H
	DD	0136H
	DD	014bH
	DD	015dH
	DD	0137H
	DD	015dH
	DD	015eH
	DD	03e8H
	DD	015eH
	DD	03e8H
_g_iKalimaGateGateIndex DD 058H
	DD	059H
	DD	05aH
	DD	05bH
	DD	05cH
	DD	05dH
	DD	074H
_g_iChaosCastle_EnterCost DD 061a8H
	DD	013880H
	DD	0249f0H
	DD	03d090H
	DD	061a80H
	DD	09eb10H
	DD	0f4240H
_g_sttCHAOSCASTLE_LEVEL DD 0fH
	DD	031H
	DD	0fH
	DD	01dH
	DD	032H
	DD	077H
	DD	01eH
	DD	063H
	DD	078H
	DD	0b3H
	DD	064H
	DD	09fH
	DD	0b4H
	DD	0efH
	DD	0a0H
	DD	0dbH
	DD	0f0H
	DD	012bH
	DD	0dcH
	DD	0117H
	DD	012cH
	DD	03e8H
	DD	0118H
	DD	03e8H
	DD	03e8H
	DD	04afH
	DD	03e8H
	DD	04afH
_g_iChaosCastle_BlowOutDistance DD 03H
	DD	04H
	DD	03H
	DD	04H
	DD	02H
	DD	03H
	DD	00H
	DD	01H
_g_iChaosCastle_BlowOutDamage DD 0fH
	DD	0fH
	DD	0aH
	DD	05H
_g_iChaosCastle_GuardSetValue DD 09c4H
	DD	09c4H
	DD	09c4H
	DD	09c4H
	DD	09c4H
	DD	09c4H
	DD	09c4H
	ORG $+4
_g_iChaosCastle_MonsterItems DD 01c0dH
	DD	01H
	DD	01c0eH
	DD	02H
	DD	01c0dH
	DD	01H
	DD	01c0eH
	DD	03H
	DD	01c0dH
	DD	01H
	DD	01c0eH
	DD	03H
	DD	01c0dH
	DD	02H
	DD	01c0eH
	DD	02H
	DD	01c0dH
	DD	02H
	DD	01c0eH
	DD	03H
	DD	01c0dH
	DD	02H
	DD	01c0eH
	DD	03H
	DD	01c0dH
	DD	02H
	DD	01c0eH
	DD	04H
_g_iChaosCastle_MonsterItemsNewServer DD 00H
	DD	00H
	DD	01c0eH
	DD	02H
	DD	01c0dH
	DD	01H
	DD	01c0eH
	DD	01H
	DD	01c0dH
	DD	01H
	DD	01c0eH
	DD	02H
	DD	01c0dH
	DD	01H
	DD	01c0eH
	DD	02H
	DD	01c0dH
	DD	02H
	DD	01c0eH
	DD	01H
	DD	01c0dH
	DD	02H
	DD	01c0eH
	DD	02H
	DD	01c0dH
	DD	02H
	DD	01c0eH
	DD	03H
_g_iChaosCastle_GroundAxis DD 017H
	DD	04bH
	DD	02cH
	DD	06cH
_g_iChaosCastle_DamageAxis DD 017H
	DD	04bH
	DD	02cH
	DD	06cH
	DD	019H
	DD	04dH
	DD	02aH
	DD	06aH
	DD	01bH
	DD	04fH
	DD	028H
	DD	068H
	DD	01dH
	DD	051H
	DD	026H
	DD	066H
_g_iChaosCastle_MapHollowZone DD 017H
	DD	04bH
	DD	02cH
	DD	04cH
	DD	02bH
	DD	04dH
	DD	02cH
	DD	06cH
	DD	017H
	DD	06bH
	DD	02aH
	DD	06cH
	DD	017H
	DD	04dH
	DD	018H
	DD	06aH
	DD	017H
	DD	04bH
	DD	02cH
	DD	04cH
	DD	02bH
	DD	04dH
	DD	02cH
	DD	06cH
	DD	017H
	DD	06bH
	DD	02aH
	DD	06cH
	DD	017H
	DD	04dH
	DD	018H
	DD	06aH
	DD	019H
	DD	04dH
	DD	02aH
	DD	04eH
	DD	029H
	DD	04fH
	DD	02aH
	DD	06aH
	DD	019H
	DD	069H
	DD	028H
	DD	06aH
	DD	019H
	DD	04fH
	DD	01aH
	DD	068H
	DD	01bH
	DD	04fH
	DD	028H
	DD	050H
	DD	027H
	DD	051H
	DD	028H
	DD	068H
	DD	01bH
	DD	067H
	DD	026H
	DD	068H
	DD	01bH
	DD	051H
	DD	01cH
	DD	066H
_g_sttDEVILSQUARE_LEVEL DD 0fH
	DD	082H
	DD	0aH
	DD	06eH
	DD	03aH
	DD	083H
	DD	0b4H
	DD	06fH
	DD	0a0H
	DD	03bH
	DD	0b5H
	DD	0e6H
	DD	0a1H
	DD	0d2H
	DD	03cH
	DD	0e7H
	DD	0118H
	DD	0d3H
	DD	0104H
	DD	03dH
	DD	0119H
	DD	014aH
	DD	0105H
	DD	0136H
	DD	06fH
	DD	014bH
	DD	03e8H
	DD	0137H
	DD	03e8H
	DD	070H
	DD	0fH
	DD	04afH
	DD	0aH
	DD	04afH
	DD	010eH
_DATA	ENDS
PUBLIC	??_H@YGXPAXIHP6EPAX0@Z@Z			; `vector constructor iterator'
; Function compile flags: /Ogtp
;	COMDAT ??_H@YGXPAXIHP6EPAX0@Z@Z
_TEXT	SEGMENT
___t$ = 8						; size = 4
___s$ = 12						; size = 4
___n$ = 16						; size = 4
___f$ = 20						; size = 4
??_H@YGXPAXIHP6EPAX0@Z@Z PROC				; `vector constructor iterator', COMDAT
  00000	55		 push	 ebp
  00001	8b ec		 mov	 ebp, esp
  00003	57		 push	 edi
  00004	8b 7d 10	 mov	 edi, DWORD PTR ___n$[ebp]
  00007	4f		 dec	 edi
  00008	78 14		 js	 SHORT $LN1@vector
  0000a	53		 push	 ebx
  0000b	8b 5d 14	 mov	 ebx, DWORD PTR ___f$[ebp]
  0000e	56		 push	 esi
  0000f	8b 75 08	 mov	 esi, DWORD PTR ___t$[ebp]
$LL2@vector:
  00012	8b ce		 mov	 ecx, esi
  00014	ff d3		 call	 ebx
  00016	03 75 0c	 add	 esi, DWORD PTR ___s$[ebp]
  00019	4f		 dec	 edi
  0001a	79 f6		 jns	 SHORT $LL2@vector
  0001c	5e		 pop	 esi
  0001d	5b		 pop	 ebx
$LN1@vector:
  0001e	5f		 pop	 edi
  0001f	5d		 pop	 ebp
  00020	c2 10 00	 ret	 16			; 00000010H
??_H@YGXPAXIHP6EPAX0@Z@Z ENDP				; `vector constructor iterator'
_TEXT	ENDS
PUBLIC	??0CQeustNpcTeleport@@QAE@XZ			; CQeustNpcTeleport::CQeustNpcTeleport
EXTRN	__imp__InitializeCriticalSection@4:PROC
; Function compile flags: /Ogtp
; File e:\work\tranet_version\gs\gameserver\gobjmonster.h
;	COMDAT ??0CQeustNpcTeleport@@QAE@XZ
_TEXT	SEGMENT
??0CQeustNpcTeleport@@QAE@XZ PROC			; CQeustNpcTeleport::CQeustNpcTeleport, COMDAT
; _this$ = ecx

; 30   : 	CQeustNpcTeleport()

  00000	56		 push	 esi
  00001	8b f1		 mov	 esi, ecx

; 31   : 	{
; 32   : 		this->LastMapNumber = -1;
; 33   : 		this->RefCount = 0;
; 34   : 		InitializeCriticalSection(&this->CsRef);

  00003	8d 46 04	 lea	 eax, DWORD PTR [esi+4]
  00006	50		 push	 eax
  00007	c7 46 20 ff ff
	ff ff		 mov	 DWORD PTR [esi+32], -1
  0000e	c7 06 00 00 00
	00		 mov	 DWORD PTR [esi], 0
  00014	ff 15 00 00 00
	00		 call	 DWORD PTR __imp__InitializeCriticalSection@4

; 35   : 		this->TimeCount = 0;
; 36   : 		this->m_QuestNPCTeleportPos[0].mapnum = MAP_INDEX_DEVIAS;

  0001a	b8 02 00 00 00	 mov	 eax, 2
  0001f	89 46 24	 mov	 DWORD PTR [esi+36], eax

; 37   : 		this->m_QuestNPCTeleportPos[0].x = 198;
; 38   : 		this->m_QuestNPCTeleportPos[0].y = 47;
; 39   : 		this->m_QuestNPCTeleportPos[0].dir = 2;

  00022	89 46 30	 mov	 DWORD PTR [esi+48], eax

; 40   : 		this->m_QuestNPCTeleportPos[1].mapnum = MAP_INDEX_RORENCIA;
; 41   : 		this->m_QuestNPCTeleportPos[1].x = 137;
; 42   : 		this->m_QuestNPCTeleportPos[1].y = 87;
; 43   : 		this->m_QuestNPCTeleportPos[1].dir = 1;
; 44   : 		this->m_QuestNPCTeleportPos[2].mapnum = MAP_INDEX_NORIA;
; 45   : 		this->m_QuestNPCTeleportPos[2].x = 169;
; 46   : 		this->m_QuestNPCTeleportPos[2].y = 89;
; 47   : 		this->m_QuestNPCTeleportPos[2].dir = 2;

  00025	89 46 50	 mov	 DWORD PTR [esi+80], eax

; 48   : 		this->m_QuestNPCTeleportPos[3].mapnum = MAP_INDEX_ATHLANSE;
; 49   : 		this->m_QuestNPCTeleportPos[3].x = 17;
; 50   : 		this->m_QuestNPCTeleportPos[3].y = 0x19;
; 51   : 		this->m_QuestNPCTeleportPos[3].dir = 2;

  00028	89 46 60	 mov	 DWORD PTR [esi+96], eax
  0002b	c7 46 1c 00 00
	00 00		 mov	 DWORD PTR [esi+28], 0
  00032	c7 46 28 c6 00
	00 00		 mov	 DWORD PTR [esi+40], 198	; 000000c6H
  00039	c7 46 2c 2f 00
	00 00		 mov	 DWORD PTR [esi+44], 47	; 0000002fH
  00040	c7 46 34 00 00
	00 00		 mov	 DWORD PTR [esi+52], 0
  00047	c7 46 38 89 00
	00 00		 mov	 DWORD PTR [esi+56], 137	; 00000089H
  0004e	c7 46 3c 57 00
	00 00		 mov	 DWORD PTR [esi+60], 87	; 00000057H
  00055	c7 46 40 01 00
	00 00		 mov	 DWORD PTR [esi+64], 1
  0005c	c7 46 44 03 00
	00 00		 mov	 DWORD PTR [esi+68], 3
  00063	c7 46 48 a9 00
	00 00		 mov	 DWORD PTR [esi+72], 169	; 000000a9H
  0006a	c7 46 4c 59 00
	00 00		 mov	 DWORD PTR [esi+76], 89	; 00000059H
  00071	c7 46 54 07 00
	00 00		 mov	 DWORD PTR [esi+84], 7
  00078	c7 46 58 11 00
	00 00		 mov	 DWORD PTR [esi+88], 17	; 00000011H
  0007f	c7 46 5c 19 00
	00 00		 mov	 DWORD PTR [esi+92], 25	; 00000019H

; 52   : 	};

  00086	8b c6		 mov	 eax, esi
  00088	5e		 pop	 esi
  00089	c3		 ret	 0
??0CQeustNpcTeleport@@QAE@XZ ENDP			; CQeustNpcTeleport::CQeustNpcTeleport
_TEXT	ENDS
PUBLIC	??1CQeustNpcTeleport@@QAE@XZ			; CQeustNpcTeleport::~CQeustNpcTeleport
EXTRN	__imp__DeleteCriticalSection@4:PROC
; Function compile flags: /Ogtp
;	COMDAT ??1CQeustNpcTeleport@@QAE@XZ
_TEXT	SEGMENT
??1CQeustNpcTeleport@@QAE@XZ PROC			; CQeustNpcTeleport::~CQeustNpcTeleport, COMDAT
; _this$ = ecx

; 56   : 		DeleteCriticalSection(&this->CsRef);

  00000	83 c1 04	 add	 ecx, 4
  00003	51		 push	 ecx
  00004	ff 15 00 00 00
	00		 call	 DWORD PTR __imp__DeleteCriticalSection@4

; 57   : 	};

  0000a	c3		 ret	 0
??1CQeustNpcTeleport@@QAE@XZ ENDP			; CQeustNpcTeleport::~CQeustNpcTeleport
_TEXT	ENDS
PUBLIC	?gObjMonsterMoveRegen@@YAXHHPAUOBJECTSTRUCT@@@Z	; gObjMonsterMoveRegen
EXTRN	?GetBoxPosition@CMonsterSetBase@@QAEHHHHHHAAF0@Z:PROC ; CMonsterSetBase::GetBoxPosition
EXTRN	?gMSetBase@@3VCMonsterSetBase@@A:BYTE		; gMSetBase
; Function compile flags: /Ogtp
; File e:\work\tranet_version\gs\gameserver\gobjmonster.cpp
;	COMDAT ?gObjMonsterMoveRegen@@YAXHHPAUOBJECTSTRUCT@@@Z
_TEXT	SEGMENT
_x$ = 8							; size = 4
_y$ = 12						; size = 4
_lpObj$ = 16						; size = 4
?gObjMonsterMoveRegen@@YAXHHPAUOBJECTSTRUCT@@@Z PROC	; gObjMonsterMoveRegen, COMDAT

; 75   : {

  00000	55		 push	 ebp
  00001	8b ec		 mov	 ebp, esp

; 76   : 	gMSetBase.GetBoxPosition(lpObj->MapNumber, x-1, y-1, x+1, y+1, lpObj->X, lpObj->Y);

  00003	8b 45 0c	 mov	 eax, DWORD PTR _y$[ebp]
  00006	53		 push	 ebx
  00007	56		 push	 esi
  00008	8b 75 10	 mov	 esi, DWORD PTR _lpObj$[ebp]
  0000b	57		 push	 edi
  0000c	8d be 46 01 00
	00		 lea	 edi, DWORD PTR [esi+326]
  00012	57		 push	 edi
  00013	8d 48 01	 lea	 ecx, DWORD PTR [eax+1]
  00016	8d 9e 44 01 00
	00		 lea	 ebx, DWORD PTR [esi+324]
  0001c	53		 push	 ebx
  0001d	51		 push	 ecx
  0001e	8b 4d 08	 mov	 ecx, DWORD PTR _x$[ebp]
  00021	8d 51 01	 lea	 edx, DWORD PTR [ecx+1]
  00024	52		 push	 edx
  00025	48		 dec	 eax
  00026	50		 push	 eax
  00027	0f b6 86 49 01
	00 00		 movzx	 eax, BYTE PTR [esi+329]
  0002e	49		 dec	 ecx
  0002f	51		 push	 ecx
  00030	50		 push	 eax
  00031	b9 00 00 00 00	 mov	 ecx, OFFSET ?gMSetBase@@3VCMonsterSetBase@@A ; gMSetBase
  00036	e8 00 00 00 00	 call	 ?GetBoxPosition@CMonsterSetBase@@QAEHHHHHHAAF0@Z ; CMonsterSetBase::GetBoxPosition

; 77   : 
; 78   : 	lpObj->TX = lpObj->X;
; 79   : 	lpObj->TY = lpObj->Y;

  0003b	0f b7 0f	 movzx	 ecx, WORD PTR [edi]
  0003e	0f b7 03	 movzx	 eax, WORD PTR [ebx]

; 80   : 	lpObj->MTX = lpObj->X;
; 81   : 	lpObj->MTY = lpObj->Y;
; 82   : 	lpObj->StartX = lpObj->X;
; 83   : 	lpObj->StartY = lpObj->Y;

  00041	8a 17		 mov	 dl, BYTE PTR [edi]
  00043	66 89 8e 7e 01
	00 00		 mov	 WORD PTR [esi+382], cx
  0004a	66 89 8e 82 01
	00 00		 mov	 WORD PTR [esi+386], cx
  00051	8a 0b		 mov	 cl, BYTE PTR [ebx]
  00053	5f		 pop	 edi
  00054	66 89 86 7c 01
	00 00		 mov	 WORD PTR [esi+380], ax
  0005b	66 89 86 80 01
	00 00		 mov	 WORD PTR [esi+384], ax
  00062	88 8e 76 01 00
	00		 mov	 BYTE PTR [esi+374], cl
  00068	88 96 77 01 00
	00		 mov	 BYTE PTR [esi+375], dl
  0006e	5e		 pop	 esi
  0006f	5b		 pop	 ebx

; 84   : }

  00070	5d		 pop	 ebp
  00071	c3		 ret	 0
?gObjMonsterMoveRegen@@YAXHHPAUOBJECTSTRUCT@@@Z ENDP	; gObjMonsterMoveRegen
_TEXT	ENDS
PUBLIC	?gObjMonsterViewportIsCharacter@@YAHPAUOBJECTSTRUCT@@@Z ; gObjMonsterViewportIsCharacter
; Function compile flags: /Ogtp
;	COMDAT ?gObjMonsterViewportIsCharacter@@YAHPAUOBJECTSTRUCT@@@Z
_TEXT	SEGMENT
_lpObj$ = 8						; size = 4
?gObjMonsterViewportIsCharacter@@YAHPAUOBJECTSTRUCT@@@Z PROC ; gObjMonsterViewportIsCharacter, COMDAT

; 249  : {

  00000	55		 push	 ebp
  00001	8b ec		 mov	 ebp, esp

; 250  : 	int tObjNum;
; 251  : 
; 252  : 	for ( int n = 0; n<MAX_VIEWPORT_MONSTER ; n++ )

  00003	8b 55 08	 mov	 edx, DWORD PTR _lpObj$[ebp]
  00006	33 c0		 xor	 eax, eax
  00008	8d 8a ae 08 00
	00		 lea	 ecx, DWORD PTR [edx+2222]
  0000e	56		 push	 esi
  0000f	90		 npad	 1
$LL5@gObjMonste:

; 253  : 	{
; 254  : 		if ( lpObj->VpPlayer2[n].state != 0 )

  00010	80 79 fe 00	 cmp	 BYTE PTR [ecx-2], 0
  00014	74 0c		 je	 SHORT $LN4@gObjMonste

; 255  : 		{
; 256  : 			tObjNum = lpObj->VpPlayer2[n].number;
; 257  : 
; 258  : 			if ( tObjNum == lpObj->TargetNumber ) 

  00016	66 8b 31	 mov	 si, WORD PTR [ecx]
  00019	66 3b b2 58 04
	00 00		 cmp	 si, WORD PTR [edx+1112]
  00020	74 0c		 je	 SHORT $LN6@gObjMonste
$LN4@gObjMonste:

; 250  : 	int tObjNum;
; 251  : 
; 252  : 	for ( int n = 0; n<MAX_VIEWPORT_MONSTER ; n++ )

  00022	40		 inc	 eax
  00023	83 c1 0c	 add	 ecx, 12			; 0000000cH
  00026	83 f8 4b	 cmp	 eax, 75			; 0000004bH
  00029	7c e5		 jl	 SHORT $LL5@gObjMonste

; 259  : 			{
; 260  : 				return n;
; 261  : 			}
; 262  : 		}
; 263  : 	}
; 264  : 
; 265  : 	return -1;

  0002b	83 c8 ff	 or	 eax, -1
$LN6@gObjMonste:
  0002e	5e		 pop	 esi

; 266  : }

  0002f	5d		 pop	 ebp
  00030	c3		 ret	 0
?gObjMonsterViewportIsCharacter@@YAHPAUOBJECTSTRUCT@@@Z ENDP ; gObjMonsterViewportIsCharacter
_TEXT	ENDS
PUBLIC	?gObjMonsterHitDamageInit@@YAXPAUOBJECTSTRUCT@@@Z ; gObjMonsterHitDamageInit
; Function compile flags: /Ogtp
;	COMDAT ?gObjMonsterHitDamageInit@@YAXPAUOBJECTSTRUCT@@@Z
_TEXT	SEGMENT
_lpObj$ = 8						; size = 4
?gObjMonsterHitDamageInit@@YAXPAUOBJECTSTRUCT@@@Z PROC	; gObjMonsterHitDamageInit, COMDAT

; 269  : {

  00000	55		 push	 ebp
  00001	8b ec		 mov	 ebp, esp

; 270  : 	for ( int i = 0; i< MAX_ST_HIT_DAMAGE ; i++ )

  00003	8b 55 08	 mov	 edx, DWORD PTR _lpObj$[ebp]
  00006	8d 82 38 0c 00
	00		 lea	 eax, DWORD PTR [edx+3128]
  0000c	b9 28 00 00 00	 mov	 ecx, 40			; 00000028H
  00011	56		 push	 esi
$LL3@gObjMonste@2:

; 271  : 	{
; 272  : 		lpObj->sHD[i].number  = -1;

  00012	83 ce ff	 or	 esi, -1
  00015	66 89 30	 mov	 WORD PTR [eax], si
  00018	83 c0 0c	 add	 eax, 12			; 0000000cH
  0001b	49		 dec	 ecx
  0001c	75 f4		 jne	 SHORT $LL3@gObjMonste@2

; 273  : 	}
; 274  : 
; 275  : 	lpObj->sHDCount = 0;

  0001e	33 c0		 xor	 eax, eax
  00020	66 89 82 18 0e
	00 00		 mov	 WORD PTR [edx+3608], ax
  00027	5e		 pop	 esi

; 276  : }

  00028	5d		 pop	 ebp
  00029	c3		 ret	 0
?gObjMonsterHitDamageInit@@YAXPAUOBJECTSTRUCT@@@Z ENDP	; gObjMonsterHitDamageInit
_TEXT	ENDS
PUBLIC	?gObjMonsterHitDamageUserDel@@YAHPAUOBJECTSTRUCT@@@Z ; gObjMonsterHitDamageUserDel
EXTRN	?gObjCheckTileArea@@YAHHHHH@Z:PROC		; gObjCheckTileArea
EXTRN	?gObj@@3PAUOBJECTSTRUCT@@A:DWORD		; gObj
EXTRN	__imp__GetTickCount@0:PROC
EXTRN	?gObjIsConnected@@YAHH@Z:PROC			; gObjIsConnected
; Function compile flags: /Ogtp
;	COMDAT ?gObjMonsterHitDamageUserDel@@YAHPAUOBJECTSTRUCT@@@Z
_TEXT	SEGMENT
_delindex$ = -8						; size = 4
_delok$ = -4						; size = 4
_lpObj$ = 8						; size = 4
?gObjMonsterHitDamageUserDel@@YAHPAUOBJECTSTRUCT@@@Z PROC ; gObjMonsterHitDamageUserDel, COMDAT

; 279  : {

  00000	55		 push	 ebp
  00001	8b ec		 mov	 ebp, esp
  00003	83 ec 08	 sub	 esp, 8
  00006	53		 push	 ebx
  00007	56		 push	 esi
  00008	57		 push	 edi

; 280  : 	int delok = 0;
; 281  : 	int delindex = -1;

  00009	8b 7d 08	 mov	 edi, DWORD PTR _lpObj$[ebp]
  0000c	c7 45 f8 ff ff
	ff ff		 mov	 DWORD PTR _delindex$[ebp], -1

; 282  : 
; 283  : 	for ( int n = 0;n<MAX_ST_HIT_DAMAGE ; n++ )

  00013	33 db		 xor	 ebx, ebx
  00015	8d b7 38 0c 00
	00		 lea	 esi, DWORD PTR [edi+3128]
  0001b	eb 03 8d 49 00	 npad	 5
$LL20@gObjMonste@3:

; 284  : 	{
; 285  : 		if ( lpObj->sHD[n].number >= 0 )

  00020	0f b7 06	 movzx	 eax, WORD PTR [esi]
  00023	66 85 c0	 test	 ax, ax
  00026	0f 88 81 00 00
	00		 js	 $LN10@gObjMonste@3

; 286  : 		{
; 287  : 			delok = FALSE;
; 288  : 
; 289  : 			if ( gObjIsConnected(lpObj->sHD[n].number ) == TRUE )

  0002c	98		 cwde
  0002d	50		 push	 eax
  0002e	c7 45 fc 00 00
	00 00		 mov	 DWORD PTR _delok$[ebp], 0
  00035	e8 00 00 00 00	 call	 ?gObjIsConnected@@YAHH@Z ; gObjIsConnected
  0003a	83 c4 04	 add	 esp, 4
  0003d	83 f8 01	 cmp	 eax, 1
  00040	75 5b		 jne	 SHORT $LN17@gObjMonste@3

; 290  : 			{
; 291  : 				if ( (GetTickCount()- lpObj->sHD[n].LastHitTime) > 20000 )

  00042	ff 15 00 00 00
	00		 call	 DWORD PTR __imp__GetTickCount@0
  00048	2b 46 08	 sub	 eax, DWORD PTR [esi+8]
  0004b	3d 20 4e 00 00	 cmp	 eax, 20000		; 00004e20H
  00050	76 07		 jbe	 SHORT $LN6@gObjMonste@3

; 292  : 				{
; 293  : 					delok = TRUE;

  00052	c7 45 fc 01 00
	00 00		 mov	 DWORD PTR _delok$[ebp], 1
$LN6@gObjMonste@3:

; 294  : 				}
; 295  : 
; 296  : 				if ( gObj[lpObj->sHD[n].number].MapNumber != lpObj->MapNumber)

  00059	0f bf 06	 movsx	 eax, WORD PTR [esi]
  0005c	69 c0 50 2b 00
	00		 imul	 eax, 11088		; 00002b50H
  00062	03 05 00 00 00
	00		 add	 eax, DWORD PTR ?gObj@@3PAUOBJECTSTRUCT@@A ; gObj
  00068	8a 88 49 01 00
	00		 mov	 cl, BYTE PTR [eax+329]
  0006e	3a 8f 49 01 00
	00		 cmp	 cl, BYTE PTR [edi+329]

; 297  : 				{
; 298  : 					delok = TRUE;

  00074	75 27		 jne	 SHORT $LN17@gObjMonste@3

; 299  : 				}
; 300  : 				else if ( gObjCheckTileArea(lpObj->m_Index, gObj[lpObj->sHD[n].number].X , gObj[lpObj->sHD[n].number].Y , 20) == FALSE )

  00076	0f bf 90 46 01
	00 00		 movsx	 edx, WORD PTR [eax+326]
  0007d	0f bf 80 44 01
	00 00		 movsx	 eax, WORD PTR [eax+324]
  00084	8b 0f		 mov	 ecx, DWORD PTR [edi]
  00086	6a 14		 push	 20			; 00000014H
  00088	52		 push	 edx
  00089	50		 push	 eax
  0008a	51		 push	 ecx
  0008b	e8 00 00 00 00	 call	 ?gObjCheckTileArea@@YAHHHHH@Z ; gObjCheckTileArea
  00090	83 c4 10	 add	 esp, 16			; 00000010H
  00093	85 c0		 test	 eax, eax

; 301  : 				{
; 302  : 					delok = TRUE;
; 303  : 				}
; 304  : 			}
; 305  : 			else

  00095	74 06		 je	 SHORT $LN17@gObjMonste@3

; 306  : 			{
; 307  : 				delok = TRUE;
; 308  : 			}
; 309  : 
; 310  : 
; 311  : 			if ( delok == TRUE )

  00097	83 7d fc 01	 cmp	 DWORD PTR _delok$[ebp], 1
  0009b	75 10		 jne	 SHORT $LN10@gObjMonste@3
$LN17@gObjMonste@3:

; 312  : 			{
; 313  : 				lpObj->sHD[n].number = -1;

  0009d	83 ca ff	 or	 edx, -1
  000a0	66 89 16	 mov	 WORD PTR [esi], dx

; 314  : 				delindex = n;
; 315  : 				lpObj->sHDCount--;

  000a3	66 ff 8f 18 0e
	00 00		 dec	 WORD PTR [edi+3608]
  000aa	89 5d f8	 mov	 DWORD PTR _delindex$[ebp], ebx
$LN10@gObjMonste@3:

; 282  : 
; 283  : 	for ( int n = 0;n<MAX_ST_HIT_DAMAGE ; n++ )

  000ad	43		 inc	 ebx
  000ae	83 c6 0c	 add	 esi, 12			; 0000000cH
  000b1	83 fb 28	 cmp	 ebx, 40			; 00000028H
  000b4	0f 8c 66 ff ff
	ff		 jl	 $LL20@gObjMonste@3

; 316  : 			}
; 317  : 
; 318  : 
; 319  : 		}
; 320  : 	}
; 321  : 
; 322  : 	return delindex;

  000ba	8b 45 f8	 mov	 eax, DWORD PTR _delindex$[ebp]
  000bd	5f		 pop	 edi
  000be	5e		 pop	 esi
  000bf	5b		 pop	 ebx

; 323  : }

  000c0	8b e5		 mov	 esp, ebp
  000c2	5d		 pop	 ebp
  000c3	c3		 ret	 0
?gObjMonsterHitDamageUserDel@@YAHPAUOBJECTSTRUCT@@@Z ENDP ; gObjMonsterHitDamageUserDel
_TEXT	ENDS
PUBLIC	??_C@_0CA@MINPGEPL@error?9L2?5?3?5Hit?5Damage?5Set?5error?$AA@ ; `string'
PUBLIC	?gObjMonsterSetHitDamage@@YAXPAUOBJECTSTRUCT@@HH@Z ; gObjMonsterSetHitDamage
EXTRN	?LogAdd@@3P6AXPADZZA:DWORD			; LogAdd
EXTRN	__fltused:DWORD
EXTRN	__ftol2_sse:PROC
;	COMDAT ??_C@_0CA@MINPGEPL@error?9L2?5?3?5Hit?5Damage?5Set?5error?$AA@
CONST	SEGMENT
??_C@_0CA@MINPGEPL@error?9L2?5?3?5Hit?5Damage?5Set?5error?$AA@ DB 'error-'
	DB	'L2 : Hit Damage Set error', 00H		; `string'
; Function compile flags: /Ogtp
CONST	ENDS
;	COMDAT ?gObjMonsterSetHitDamage@@YAXPAUOBJECTSTRUCT@@HH@Z
_TEXT	SEGMENT
_lpObj$ = 8						; size = 4
_hit_player$ = 12					; size = 4
_hit_damage$ = 16					; size = 4
?gObjMonsterSetHitDamage@@YAXPAUOBJECTSTRUCT@@HH@Z PROC	; gObjMonsterSetHitDamage, COMDAT

; 326  : {

  00000	55		 push	 ebp
  00001	8b ec		 mov	 ebp, esp
  00003	53		 push	 ebx

; 327  : 	int blank = -1;

  00004	8b 5d 0c	 mov	 ebx, DWORD PTR _hit_player$[ebp]
  00007	56		 push	 esi
  00008	57		 push	 edi
  00009	8b 7d 08	 mov	 edi, DWORD PTR _lpObj$[ebp]
  0000c	83 c8 ff	 or	 eax, -1

; 328  : 
; 329  : 	for (int n=0;n<MAX_ST_HIT_DAMAGE;n++)

  0000f	33 f6		 xor	 esi, esi
  00011	8d 97 38 0c 00
	00		 lea	 edx, DWORD PTR [edi+3128]
$LL12@gObjMonste@4:

; 330  : 	{
; 331  : 		if ( lpObj->sHD[n].number >= 0 )

  00017	0f b7 0a	 movzx	 ecx, WORD PTR [edx]
  0001a	66 85 c9	 test	 cx, cx
  0001d	78 4e		 js	 SHORT $LN9@gObjMonste@4

; 332  : 		{
; 333  : 			if ( lpObj->sHD[n].number == hit_player )

  0001f	0f bf c9	 movsx	 ecx, cx
  00022	3b cb		 cmp	 ecx, ebx
  00024	75 4d		 jne	 SHORT $LN11@gObjMonste@4

; 334  : 			{
; 335  : 				lpObj->sHD[n].HitDamage += hit_damage;

  00026	8b 45 10	 mov	 eax, DWORD PTR _hit_damage$[ebp]
  00029	8d 94 76 0f 03
	00 00		 lea	 edx, DWORD PTR [esi+esi*2+783]
  00030	01 04 97	 add	 DWORD PTR [edi+edx*4], eax
  00033	8d 1c 97	 lea	 ebx, DWORD PTR [edi+edx*4]

; 336  : 				lpObj->sHD[n].LastHitTime = GetTickCount();

  00036	ff 15 00 00 00
	00		 call	 DWORD PTR __imp__GetTickCount@0

; 337  : 
; 338  : 				if ( lpObj->sHD[n].HitDamage > lpObj->MaxLife )

  0003c	db 03		 fild	 DWORD PTR [ebx]
  0003e	8d 0c 76	 lea	 ecx, DWORD PTR [esi+esi*2]
  00041	89 84 8f 40 0c
	00 00		 mov	 DWORD PTR [edi+ecx*4+3136], eax
  00048	d9 87 00 01 00
	00		 fld	 DWORD PTR [edi+256]
  0004e	de d9		 fcompp
  00050	df e0		 fnstsw	 ax
  00052	f6 c4 05	 test	 ah, 5
  00055	0f 8a 93 00 00
	00		 jp	 $LN1@gObjMonste@4

; 339  : 				{
; 340  : 					lpObj->sHD[n].HitDamage = (int)lpObj->MaxLife;

  0005b	d9 87 00 01 00
	00		 fld	 DWORD PTR [edi+256]
  00061	e8 00 00 00 00	 call	 __ftol2_sse
  00066	5f		 pop	 edi
  00067	5e		 pop	 esi
  00068	89 03		 mov	 DWORD PTR [ebx], eax
  0006a	5b		 pop	 ebx

; 373  : 	}
; 374  : }

  0006b	5d		 pop	 ebp
  0006c	c3		 ret	 0
$LN9@gObjMonste@4:

; 341  : 				}
; 342  : 
; 343  : 				return;
; 344  : 			}
; 345  : 		}
; 346  : 		else if ( blank < 0 )

  0006d	85 c0		 test	 eax, eax
  0006f	79 02		 jns	 SHORT $LN11@gObjMonste@4

; 347  : 		{
; 348  : 			blank = n;

  00071	8b c6		 mov	 eax, esi
$LN11@gObjMonste@4:

; 328  : 
; 329  : 	for (int n=0;n<MAX_ST_HIT_DAMAGE;n++)

  00073	46		 inc	 esi
  00074	83 c2 0c	 add	 edx, 12			; 0000000cH
  00077	83 fe 28	 cmp	 esi, 40			; 00000028H
  0007a	7c 9b		 jl	 SHORT $LL12@gObjMonste@4

; 349  : 		}
; 350  : 	}
; 351  : 
; 352  : 	if ( blank < 0 )

  0007c	85 c0		 test	 eax, eax
  0007e	79 0d		 jns	 SHORT $LN18@gObjMonste@4

; 353  : 	{
; 354  : 		blank = gObjMonsterHitDamageUserDel(lpObj);

  00080	57		 push	 edi
  00081	e8 00 00 00 00	 call	 ?gObjMonsterHitDamageUserDel@@YAHPAUOBJECTSTRUCT@@@Z ; gObjMonsterHitDamageUserDel
  00086	83 c4 04	 add	 esp, 4

; 355  : 	}
; 356  : 
; 357  : 	if ( blank >= 0 )

  00089	85 c0		 test	 eax, eax
  0008b	78 53		 js	 SHORT $LN3@gObjMonste@4
$LN18@gObjMonste@4:

; 358  : 	{
; 359  : 		lpObj->sHD[blank].number = hit_player;
; 360  : 		lpObj->sHD[blank].HitDamage = hit_damage;

  0008d	8b 4d 10	 mov	 ecx, DWORD PTR _hit_damage$[ebp]

; 361  : 
; 362  : 		if ( lpObj->sHD[blank].HitDamage > lpObj->MaxLife )

  00090	db 45 10	 fild	 DWORD PTR _hit_damage$[ebp]
  00093	8d 14 40	 lea	 edx, DWORD PTR [eax+eax*2]
  00096	8d 34 97	 lea	 esi, DWORD PTR [edi+edx*4]
  00099	8d 84 40 0f 03
	00 00		 lea	 eax, DWORD PTR [eax+eax*2+783]
  000a0	66 89 9e 38 0c
	00 00		 mov	 WORD PTR [esi+3128], bx
  000a7	8d 1c 87	 lea	 ebx, DWORD PTR [edi+eax*4]
  000aa	89 0b		 mov	 DWORD PTR [ebx], ecx
  000ac	d9 87 00 01 00
	00		 fld	 DWORD PTR [edi+256]
  000b2	de d9		 fcompp
  000b4	df e0		 fnstsw	 ax
  000b6	f6 c4 05	 test	 ah, 5
  000b9	7a 0d		 jp	 SHORT $LN2@gObjMonste@4

; 363  : 		{
; 364  : 			lpObj->sHD[blank].HitDamage = (int)lpObj->MaxLife;

  000bb	d9 87 00 01 00
	00		 fld	 DWORD PTR [edi+256]
  000c1	e8 00 00 00 00	 call	 __ftol2_sse
  000c6	89 03		 mov	 DWORD PTR [ebx], eax
$LN2@gObjMonste@4:

; 365  : 		}
; 366  : 	
; 367  : 		lpObj->sHD[blank].LastHitTime = GetTickCount();

  000c8	ff 15 00 00 00
	00		 call	 DWORD PTR __imp__GetTickCount@0
  000ce	89 86 40 0c 00
	00		 mov	 DWORD PTR [esi+3136], eax

; 368  : 		lpObj->sHDCount++;

  000d4	66 ff 87 18 0e
	00 00		 inc	 WORD PTR [edi+3608]
  000db	5f		 pop	 edi
  000dc	5e		 pop	 esi
  000dd	5b		 pop	 ebx

; 373  : 	}
; 374  : }

  000de	5d		 pop	 ebp
  000df	c3		 ret	 0
$LN3@gObjMonste@4:

; 369  : 	}
; 370  : 	else
; 371  : 	{
; 372  : 		LogAdd("error-L2 : Hit Damage Set error");

  000e0	68 00 00 00 00	 push	 OFFSET ??_C@_0CA@MINPGEPL@error?9L2?5?3?5Hit?5Damage?5Set?5error?$AA@
  000e5	ff 15 00 00 00
	00		 call	 DWORD PTR ?LogAdd@@3P6AXPADZZA ; LogAdd
  000eb	83 c4 04	 add	 esp, 4
$LN1@gObjMonste@4:
  000ee	5f		 pop	 edi
  000ef	5e		 pop	 esi
  000f0	5b		 pop	 ebx

; 373  : 	}
; 374  : }

  000f1	5d		 pop	 ebp
  000f2	c3		 ret	 0
?gObjMonsterSetHitDamage@@YAXPAUOBJECTSTRUCT@@HH@Z ENDP	; gObjMonsterSetHitDamage
_TEXT	ENDS
PUBLIC	?gObjMonsterTopHitDamageUser@@YAHPAUOBJECTSTRUCT@@@Z ; gObjMonsterTopHitDamageUser
; Function compile flags: /Ogtp
;	COMDAT ?gObjMonsterTopHitDamageUser@@YAHPAUOBJECTSTRUCT@@@Z
_TEXT	SEGMENT
_lpMonObj$ = 8						; size = 4
?gObjMonsterTopHitDamageUser@@YAHPAUOBJECTSTRUCT@@@Z PROC ; gObjMonsterTopHitDamageUser, COMDAT

; 377  : {

  00000	55		 push	 ebp
  00001	8b ec		 mov	 ebp, esp

; 378  : 	int MaxHitDamage = 0;

  00003	8b 55 08	 mov	 edx, DWORD PTR _lpMonObj$[ebp]
  00006	53		 push	 ebx
  00007	33 c9		 xor	 ecx, ecx
  00009	56		 push	 esi

; 379  : 	int MaxHitDamageUser = -1;

  0000a	83 c8 ff	 or	 eax, -1
  0000d	57		 push	 edi
  0000e	81 c2 38 0c 00
	00		 add	 edx, 3128		; 00000c38H
  00014	8d 59 08	 lea	 ebx, DWORD PTR [ecx+8]
$LL20@gObjMonste@5:

; 382  : 	{
; 383  : 		if ( lpMonObj->sHD[n].number >= 0 )

  00017	0f b7 3a	 movzx	 edi, WORD PTR [edx]
  0001a	66 85 ff	 test	 di, di
  0001d	78 0c		 js	 SHORT $LN4@gObjMonste@5

; 384  : 		{
; 385  : 			if ( lpMonObj->sHD[n].HitDamage > MaxHitDamage )

  0001f	8b 72 04	 mov	 esi, DWORD PTR [edx+4]
  00022	3b f1		 cmp	 esi, ecx
  00024	7e 05		 jle	 SHORT $LN4@gObjMonste@5

; 386  : 			{
; 387  : 				MaxHitDamage = lpMonObj->sHD[n].HitDamage;

  00026	8b ce		 mov	 ecx, esi

; 388  : 				MaxHitDamageUser = lpMonObj->sHD[n].number;

  00028	0f bf c7	 movsx	 eax, di
$LN4@gObjMonste@5:

; 382  : 	{
; 383  : 		if ( lpMonObj->sHD[n].number >= 0 )

  0002b	0f b7 7a 0c	 movzx	 edi, WORD PTR [edx+12]
  0002f	66 85 ff	 test	 di, di
  00032	78 0c		 js	 SHORT $LN16@gObjMonste@5

; 384  : 		{
; 385  : 			if ( lpMonObj->sHD[n].HitDamage > MaxHitDamage )

  00034	8b 72 10	 mov	 esi, DWORD PTR [edx+16]
  00037	3b f1		 cmp	 esi, ecx
  00039	7e 05		 jle	 SHORT $LN16@gObjMonste@5

; 386  : 			{
; 387  : 				MaxHitDamage = lpMonObj->sHD[n].HitDamage;

  0003b	8b ce		 mov	 ecx, esi

; 388  : 				MaxHitDamageUser = lpMonObj->sHD[n].number;

  0003d	0f bf c7	 movsx	 eax, di
$LN16@gObjMonste@5:

; 382  : 	{
; 383  : 		if ( lpMonObj->sHD[n].number >= 0 )

  00040	0f b7 7a 18	 movzx	 edi, WORD PTR [edx+24]
  00044	66 85 ff	 test	 di, di
  00047	78 0c		 js	 SHORT $LN17@gObjMonste@5

; 384  : 		{
; 385  : 			if ( lpMonObj->sHD[n].HitDamage > MaxHitDamage )

  00049	8b 72 1c	 mov	 esi, DWORD PTR [edx+28]
  0004c	3b f1		 cmp	 esi, ecx
  0004e	7e 05		 jle	 SHORT $LN17@gObjMonste@5

; 386  : 			{
; 387  : 				MaxHitDamage = lpMonObj->sHD[n].HitDamage;

  00050	8b ce		 mov	 ecx, esi

; 388  : 				MaxHitDamageUser = lpMonObj->sHD[n].number;

  00052	0f bf c7	 movsx	 eax, di
$LN17@gObjMonste@5:

; 382  : 	{
; 383  : 		if ( lpMonObj->sHD[n].number >= 0 )

  00055	0f b7 7a 24	 movzx	 edi, WORD PTR [edx+36]
  00059	66 85 ff	 test	 di, di
  0005c	78 0c		 js	 SHORT $LN18@gObjMonste@5

; 384  : 		{
; 385  : 			if ( lpMonObj->sHD[n].HitDamage > MaxHitDamage )

  0005e	8b 72 28	 mov	 esi, DWORD PTR [edx+40]
  00061	3b f1		 cmp	 esi, ecx
  00063	7e 05		 jle	 SHORT $LN18@gObjMonste@5

; 386  : 			{
; 387  : 				MaxHitDamage = lpMonObj->sHD[n].HitDamage;

  00065	8b ce		 mov	 ecx, esi

; 388  : 				MaxHitDamageUser = lpMonObj->sHD[n].number;

  00067	0f bf c7	 movsx	 eax, di
$LN18@gObjMonste@5:

; 382  : 	{
; 383  : 		if ( lpMonObj->sHD[n].number >= 0 )

  0006a	0f b7 7a 30	 movzx	 edi, WORD PTR [edx+48]
  0006e	66 85 ff	 test	 di, di
  00071	78 0c		 js	 SHORT $LN19@gObjMonste@5

; 384  : 		{
; 385  : 			if ( lpMonObj->sHD[n].HitDamage > MaxHitDamage )

  00073	8b 72 34	 mov	 esi, DWORD PTR [edx+52]
  00076	3b f1		 cmp	 esi, ecx
  00078	7e 05		 jle	 SHORT $LN19@gObjMonste@5

; 386  : 			{
; 387  : 				MaxHitDamage = lpMonObj->sHD[n].HitDamage;

  0007a	8b ce		 mov	 ecx, esi

; 388  : 				MaxHitDamageUser = lpMonObj->sHD[n].number;

  0007c	0f bf c7	 movsx	 eax, di
$LN19@gObjMonste@5:

; 380  : 
; 381  : 	for ( int n=0;n<MAX_ST_HIT_DAMAGE;n++)

  0007f	83 c2 3c	 add	 edx, 60			; 0000003cH
  00082	4b		 dec	 ebx
  00083	75 92		 jne	 SHORT $LL20@gObjMonste@5
  00085	5f		 pop	 edi
  00086	5e		 pop	 esi
  00087	5b		 pop	 ebx

; 389  : 			}
; 390  : 		}
; 391  : 	}
; 392  : 
; 393  : 	return MaxHitDamageUser;
; 394  : }

  00088	5d		 pop	 ebp
  00089	c3		 ret	 0
?gObjMonsterTopHitDamageUser@@YAHPAUOBJECTSTRUCT@@@Z ENDP ; gObjMonsterTopHitDamageUser
_TEXT	ENDS
PUBLIC	?gObjMonsterLastHitDamageUser@@YAHPAUOBJECTSTRUCT@@AAH@Z ; gObjMonsterLastHitDamageUser
; Function compile flags: /Ogtp
;	COMDAT ?gObjMonsterLastHitDamageUser@@YAHPAUOBJECTSTRUCT@@AAH@Z
_TEXT	SEGMENT
_lpMonObj$ = 8						; size = 4
_hitindex$ = 12						; size = 4
?gObjMonsterLastHitDamageUser@@YAHPAUOBJECTSTRUCT@@AAH@Z PROC ; gObjMonsterLastHitDamageUser, COMDAT

; 397  : {

  00000	55		 push	 ebp
  00001	8b ec		 mov	 ebp, esp
  00003	53		 push	 ebx
  00004	56		 push	 esi

; 398  : 	int LastHitTime = 0;

  00005	8b 75 08	 mov	 esi, DWORD PTR _lpMonObj$[ebp]
  00008	33 c9		 xor	 ecx, ecx
  0000a	57		 push	 edi
  0000b	8b 7d 0c	 mov	 edi, DWORD PTR _hitindex$[ebp]

; 399  : 	int LastHitUser = -1;

  0000e	83 c8 ff	 or	 eax, -1
  00011	8d 51 02	 lea	 edx, DWORD PTR [ecx+2]
  00014	81 c6 38 0c 00
	00		 add	 esi, 3128		; 00000c38H
  0001a	8d 9b 00 00 00
	00		 npad	 6
$LL5@gObjMonste@6:

; 402  : 	{
; 403  : 		if ( lpMonObj->sHD[n].number >= 0 )

  00020	0f b7 1e	 movzx	 ebx, WORD PTR [esi]
  00023	66 85 db	 test	 bx, bx
  00026	78 12		 js	 SHORT $LN4@gObjMonste@6

; 404  : 		{
; 405  : 			if ( lpMonObj->sHD[n].LastHitTime > LastHitTime )

  00028	8b 5e 08	 mov	 ebx, DWORD PTR [esi+8]
  0002b	3b d9		 cmp	 ebx, ecx
  0002d	76 0b		 jbe	 SHORT $LN4@gObjMonste@6

; 406  : 			{
; 407  : 				LastHitTime = lpMonObj->sHD[n].LastHitTime;
; 408  : 				LastHitUser = lpMonObj->sHD[n].number;

  0002f	0f b7 06	 movzx	 eax, WORD PTR [esi]
  00032	8b cb		 mov	 ecx, ebx

; 409  : 				hitindex = n;

  00034	8d 5a fe	 lea	 ebx, DWORD PTR [edx-2]
  00037	98		 cwde
  00038	89 1f		 mov	 DWORD PTR [edi], ebx
$LN4@gObjMonste@6:

; 402  : 	{
; 403  : 		if ( lpMonObj->sHD[n].number >= 0 )

  0003a	0f b7 5e 0c	 movzx	 ebx, WORD PTR [esi+12]
  0003e	66 85 db	 test	 bx, bx
  00041	78 13		 js	 SHORT $LN11@gObjMonste@6

; 404  : 		{
; 405  : 			if ( lpMonObj->sHD[n].LastHitTime > LastHitTime )

  00043	8b 5e 14	 mov	 ebx, DWORD PTR [esi+20]
  00046	3b d9		 cmp	 ebx, ecx
  00048	76 0c		 jbe	 SHORT $LN11@gObjMonste@6

; 406  : 			{
; 407  : 				LastHitTime = lpMonObj->sHD[n].LastHitTime;
; 408  : 				LastHitUser = lpMonObj->sHD[n].number;

  0004a	0f b7 46 0c	 movzx	 eax, WORD PTR [esi+12]
  0004e	8b cb		 mov	 ecx, ebx

; 409  : 				hitindex = n;

  00050	8d 5a ff	 lea	 ebx, DWORD PTR [edx-1]
  00053	98		 cwde
  00054	89 1f		 mov	 DWORD PTR [edi], ebx
$LN11@gObjMonste@6:

; 402  : 	{
; 403  : 		if ( lpMonObj->sHD[n].number >= 0 )

  00056	0f b7 5e 18	 movzx	 ebx, WORD PTR [esi+24]
  0005a	66 85 db	 test	 bx, bx
  0005d	78 10		 js	 SHORT $LN12@gObjMonste@6

; 404  : 		{
; 405  : 			if ( lpMonObj->sHD[n].LastHitTime > LastHitTime )

  0005f	8b 5e 20	 mov	 ebx, DWORD PTR [esi+32]
  00062	3b d9		 cmp	 ebx, ecx
  00064	76 09		 jbe	 SHORT $LN12@gObjMonste@6

; 406  : 			{
; 407  : 				LastHitTime = lpMonObj->sHD[n].LastHitTime;
; 408  : 				LastHitUser = lpMonObj->sHD[n].number;

  00066	0f b7 46 18	 movzx	 eax, WORD PTR [esi+24]
  0006a	8b cb		 mov	 ecx, ebx
  0006c	98		 cwde

; 409  : 				hitindex = n;

  0006d	89 17		 mov	 DWORD PTR [edi], edx
$LN12@gObjMonste@6:

; 402  : 	{
; 403  : 		if ( lpMonObj->sHD[n].number >= 0 )

  0006f	0f b7 5e 24	 movzx	 ebx, WORD PTR [esi+36]
  00073	66 85 db	 test	 bx, bx
  00076	78 13		 js	 SHORT $LN13@gObjMonste@6

; 404  : 		{
; 405  : 			if ( lpMonObj->sHD[n].LastHitTime > LastHitTime )

  00078	8b 5e 2c	 mov	 ebx, DWORD PTR [esi+44]
  0007b	3b d9		 cmp	 ebx, ecx
  0007d	76 0c		 jbe	 SHORT $LN13@gObjMonste@6

; 406  : 			{
; 407  : 				LastHitTime = lpMonObj->sHD[n].LastHitTime;
; 408  : 				LastHitUser = lpMonObj->sHD[n].number;

  0007f	0f b7 46 24	 movzx	 eax, WORD PTR [esi+36]
  00083	8b cb		 mov	 ecx, ebx

; 409  : 				hitindex = n;

  00085	8d 5a 01	 lea	 ebx, DWORD PTR [edx+1]
  00088	98		 cwde
  00089	89 1f		 mov	 DWORD PTR [edi], ebx
$LN13@gObjMonste@6:

; 402  : 	{
; 403  : 		if ( lpMonObj->sHD[n].number >= 0 )

  0008b	0f b7 5e 30	 movzx	 ebx, WORD PTR [esi+48]
  0008f	66 85 db	 test	 bx, bx
  00092	78 13		 js	 SHORT $LN14@gObjMonste@6

; 404  : 		{
; 405  : 			if ( lpMonObj->sHD[n].LastHitTime > LastHitTime )

  00094	8b 5e 38	 mov	 ebx, DWORD PTR [esi+56]
  00097	3b d9		 cmp	 ebx, ecx
  00099	76 0c		 jbe	 SHORT $LN14@gObjMonste@6

; 406  : 			{
; 407  : 				LastHitTime = lpMonObj->sHD[n].LastHitTime;
; 408  : 				LastHitUser = lpMonObj->sHD[n].number;

  0009b	0f b7 46 30	 movzx	 eax, WORD PTR [esi+48]
  0009f	8b cb		 mov	 ecx, ebx

; 409  : 				hitindex = n;

  000a1	8d 5a 02	 lea	 ebx, DWORD PTR [edx+2]
  000a4	98		 cwde
  000a5	89 1f		 mov	 DWORD PTR [edi], ebx
$LN14@gObjMonste@6:

; 400  : 
; 401  : 	for ( int n=0;n<MAX_ST_HIT_DAMAGE;n++)

  000a7	83 c2 05	 add	 edx, 5
  000aa	8d 5a fe	 lea	 ebx, DWORD PTR [edx-2]
  000ad	83 c6 3c	 add	 esi, 60			; 0000003cH
  000b0	83 fb 28	 cmp	 ebx, 40			; 00000028H
  000b3	0f 8c 67 ff ff
	ff		 jl	 $LL5@gObjMonste@6
  000b9	5f		 pop	 edi
  000ba	5e		 pop	 esi
  000bb	5b		 pop	 ebx

; 410  : 			}
; 411  : 		}
; 412  : 	}
; 413  : 
; 414  : 	return LastHitUser;
; 415  : }

  000bc	5d		 pop	 ebp
  000bd	c3		 ret	 0
?gObjMonsterLastHitDamageUser@@YAHPAUOBJECTSTRUCT@@AAH@Z ENDP ; gObjMonsterLastHitDamageUser
_TEXT	ENDS
PUBLIC	??_C@_0EJ@LOBMAKBH@?$FL?5KANTURU?5?$FN?$FL?5Debug?5?9?5m_PosNum?5?$FN?5@ ; `string'
PUBLIC	?gObjMonsterMoveCheck@@YAHPAUOBJECTSTRUCT@@HH@Z	; gObjMonsterMoveCheck
EXTRN	?LogAddTD@@3P6AXPADZZA:DWORD			; LogAddTD
EXTRN	__CIsqrt:PROC
;	COMDAT ??_C@_0EJ@LOBMAKBH@?$FL?5KANTURU?5?$FN?$FL?5Debug?5?9?5m_PosNum?5?$FN?5@
CONST	SEGMENT
??_C@_0EJ@LOBMAKBH@?$FL?5KANTURU?5?$FN?$FL?5Debug?5?9?5m_PosNum?5?$FN?5@ DB '['
	DB	' KANTURU ][ Debug - m_PosNum ] Fail %s(Index:%d) X%d-Y%d -> X'
	DB	'%d-Y%d(%d)', 00H				; `string'
; Function compile flags: /Ogtp
CONST	ENDS
;	COMDAT ?gObjMonsterMoveCheck@@YAHPAUOBJECTSTRUCT@@HH@Z
_TEXT	SEGMENT
tv217 = 8						; size = 4
tv200 = 8						; size = 4
_lpObj$ = 8						; size = 4
_tx$ = 12						; size = 4
_ty$ = 16						; size = 4
?gObjMonsterMoveCheck@@YAHPAUOBJECTSTRUCT@@HH@Z PROC	; gObjMonsterMoveCheck, COMDAT

; 418  : {

  00000	55		 push	 ebp
  00001	8b ec		 mov	 ebp, esp
  00003	56		 push	 esi

; 419  : 	if ( lpObj->m_ActState.Emotion  == 1 )

  00004	8b 75 08	 mov	 esi, DWORD PTR _lpObj$[ebp]
  00007	8b 86 18 02 00
	00		 mov	 eax, DWORD PTR [esi+536]
  0000d	24 f0		 and	 al, 240			; 000000f0H
  0000f	3c 10		 cmp	 al, 16			; 00000010H
  00011	75 08		 jne	 SHORT $LN6@gObjMonste@7

; 420  : 	{
; 421  : 		return TRUE;

  00013	b8 01 00 00 00	 mov	 eax, 1
  00018	5e		 pop	 esi

; 459  : }

  00019	5d		 pop	 ebp
  0001a	c3		 ret	 0
$LN6@gObjMonste@7:

; 422  : 	}
; 423  : 
; 424  : //#if(GS_CASTLE==0)
; 425  : 	if ( lpObj->MapNumber == MAP_INDEX_KANTURU_BOSS && lpObj->m_PosNum < 0)

  0001b	80 be 49 01 00
	00 27		 cmp	 BYTE PTR [esi+329], 39	; 00000027H
  00022	53		 push	 ebx
  00023	57		 push	 edi
  00024	75 77		 jne	 SHORT $LN5@gObjMonste@7
  00026	66 83 be b0 03
	00 00 00	 cmp	 WORD PTR [esi+944], 0
  0002e	7d 6d		 jge	 SHORT $LN5@gObjMonste@7

; 426  : 	{
; 427  : 		tx -= lpObj->StartX;
; 428  : 		ty -= lpObj->StartY;

  00030	0f b6 86 77 01
	00 00		 movzx	 eax, BYTE PTR [esi+375]
  00037	8b 7d 10	 mov	 edi, DWORD PTR _ty$[ebp]
  0003a	0f b6 9e 76 01
	00 00		 movzx	 ebx, BYTE PTR [esi+374]
  00041	29 5d 0c	 sub	 DWORD PTR _tx$[ebp], ebx
  00044	2b f8		 sub	 edi, eax

; 429  : 		int dis = (int)(sqrt((double)tx*tx + ty*ty));

  00046	8b cf		 mov	 ecx, edi
  00048	db 45 0c	 fild	 DWORD PTR _tx$[ebp]
  0004b	0f af cf	 imul	 ecx, edi
  0004e	89 4d 08	 mov	 DWORD PTR tv217[ebp], ecx
  00051	db 45 08	 fild	 DWORD PTR tv217[ebp]
  00054	d9 c1		 fld	 ST(1)
  00056	de ca		 fmulp	 ST(2), ST(0)
  00058	de c1		 faddp	 ST(1), ST(0)
  0005a	e8 00 00 00 00	 call	 __CIsqrt
  0005f	e8 00 00 00 00	 call	 __ftol2_sse

; 430  : 
; 431  : 		if ( dis > 30 )

  00064	83 f8 1e	 cmp	 eax, 30			; 0000001eH
  00067	0f 8e 80 00 00
	00		 jle	 $LN1@gObjMonste@7

; 432  : 		{
; 433  : 			LogAddTD("[ KANTURU ][ Debug - m_PosNum ] Fail %s(Index:%d) X%d-Y%d -> X%d-Y%d(%d)", lpObj->Name, lpObj->Class, lpObj->StartX, lpObj->StartY, tx, ty, dis);

  0006d	8b 55 0c	 mov	 edx, DWORD PTR _tx$[ebp]
  00070	50		 push	 eax
  00071	0f b6 86 77 01
	00 00		 movzx	 eax, BYTE PTR [esi+375]
  00078	57		 push	 edi
  00079	52		 push	 edx
  0007a	50		 push	 eax
  0007b	0f b7 86 b8 00
	00 00		 movzx	 eax, WORD PTR [esi+184]
  00082	53		 push	 ebx
  00083	50		 push	 eax
  00084	83 c6 77	 add	 esi, 119		; 00000077H
  00087	56		 push	 esi
  00088	68 00 00 00 00	 push	 OFFSET ??_C@_0EJ@LOBMAKBH@?$FL?5KANTURU?5?$FN?$FL?5Debug?5?9?5m_PosNum?5?$FN?5@
  0008d	ff 15 00 00 00
	00		 call	 DWORD PTR ?LogAddTD@@3P6AXPADZZA ; LogAddTD
  00093	83 c4 20	 add	 esp, 32			; 00000020H
$LN11@gObjMonste@7:

; 434  : 			return FALSE;

  00096	5f		 pop	 edi
  00097	5b		 pop	 ebx
  00098	33 c0		 xor	 eax, eax
  0009a	5e		 pop	 esi

; 459  : }

  0009b	5d		 pop	 ebp
  0009c	c3		 ret	 0
$LN5@gObjMonste@7:

; 435  : 		}
; 436  : 	}
; 437  : 	else
; 438  : //#endif
; 439  : 	{
; 440  : 		LPMONSTER_POSITION lpPos = &gMSetBase.m_Mp[lpObj->m_PosNum];

  0009d	0f bf 86 b0 03
	00 00		 movsx	 eax, WORD PTR [esi+944]
  000a4	c1 e0 04	 shl	 eax, 4
  000a7	05 04 00 00 00	 add	 eax, OFFSET ?gMSetBase@@3VCMonsterSetBase@@A+4

; 441  : 
; 442  : 		if ( lpPos->m_Dis < 1 )

  000ac	8a 58 05	 mov	 bl, BYTE PTR [eax+5]
  000af	80 fb 01	 cmp	 bl, 1

; 443  : 		{
; 444  : 			return FALSE;

  000b2	72 e2		 jb	 SHORT $LN11@gObjMonste@7

; 445  : 		}
; 446  : 
; 447  : 		tx -= lpObj->StartX;
; 448  : 		ty -= lpObj->StartY;

  000b4	0f b6 96 77 01
	00 00		 movzx	 edx, BYTE PTR [esi+375]
  000bb	8b 45 10	 mov	 eax, DWORD PTR _ty$[ebp]
  000be	0f b6 8e 76 01
	00 00		 movzx	 ecx, BYTE PTR [esi+374]
  000c5	29 4d 0c	 sub	 DWORD PTR _tx$[ebp], ecx
  000c8	2b c2		 sub	 eax, edx

; 449  : 
; 450  : 		int dis = (int)(sqrt((double)tx * tx + ty * ty));

  000ca	0f af c0	 imul	 eax, eax
  000cd	db 45 0c	 fild	 DWORD PTR _tx$[ebp]

; 451  : 
; 452  : 		if ( dis > lpPos->m_Dis)

  000d0	89 45 08	 mov	 DWORD PTR tv200[ebp], eax
  000d3	db 45 08	 fild	 DWORD PTR tv200[ebp]
  000d6	d9 c1		 fld	 ST(1)
  000d8	de ca		 fmulp	 ST(2), ST(0)
  000da	de c1		 faddp	 ST(1), ST(0)
  000dc	e8 00 00 00 00	 call	 __CIsqrt
  000e1	e8 00 00 00 00	 call	 __ftol2_sse
  000e6	0f b6 cb	 movzx	 ecx, bl
  000e9	3b c1		 cmp	 eax, ecx

; 453  : 		{
; 454  : 			return FALSE;

  000eb	7f a9		 jg	 SHORT $LN11@gObjMonste@7
$LN1@gObjMonste@7:
  000ed	5f		 pop	 edi
  000ee	5b		 pop	 ebx

; 455  : 		}	
; 456  : 	}
; 457  : 
; 458  : 	return TRUE;

  000ef	b8 01 00 00 00	 mov	 eax, 1
  000f4	5e		 pop	 esi

; 459  : }

  000f5	5d		 pop	 ebp
  000f6	c3		 ret	 0
?gObjMonsterMoveCheck@@YAHPAUOBJECTSTRUCT@@HH@Z ENDP	; gObjMonsterMoveCheck
_TEXT	ENDS
PUBLIC	?gObjMonsterGetTargetPos@@YAHPAUOBJECTSTRUCT@@@Z ; gObjMonsterGetTargetPos
EXTRN	?RoadPathTable@@3PAFA:BYTE			; RoadPathTable
EXTRN	?GetAttr@MapClass@@QAEEHH@Z:PROC		; MapClass::GetAttr
EXTRN	?GetStandAttr@MapClass@@QAEHHH@Z:PROC		; MapClass::GetStandAttr
EXTRN	?MapC@@3PAVMapClass@@A:BYTE			; MapC
EXTRN	?GetPathPacketDirPos@@YAEHH@Z:PROC		; GetPathPacketDirPos
EXTRN	?gObjSearchActiveEffect@@YAEPAUOBJECTSTRUCT@@H@Z:PROC ; gObjSearchActiveEffect
; Function compile flags: /Ogtp
;	COMDAT ?gObjMonsterGetTargetPos@@YAHPAUOBJECTSTRUCT@@@Z
_TEXT	SEGMENT
_mtx$ = -20						; size = 4
_mty$ = -16						; size = 4
_lpTargetObj$ = -12					; size = 4
_searchcount$ = -8					; size = 4
_dis$ = -4						; size = 4
_searchp$ = -4						; size = 4
_tpx$ = 8						; size = 4
_lpObj$ = 8						; size = 4
_attr$ = 11						; size = 1
?gObjMonsterGetTargetPos@@YAHPAUOBJECTSTRUCT@@@Z PROC	; gObjMonsterGetTargetPos, COMDAT

; 462  : {

  00000	55		 push	 ebp
  00001	8b ec		 mov	 ebp, esp
  00003	83 ec 14	 sub	 esp, 20			; 00000014H
  00006	56		 push	 esi

; 463  : 	int tpx;	// Target Player X
; 464  : 	int tpy;
; 465  : 	int mtx;	// Monster Target X
; 466  : 	int mty;
; 467  : 	int searchp = 0;
; 468  : 	int sn = 0;
; 469  : 	int searchcount = MAX_ROAD_PATH_TABLE/2-1;
; 470  : 	BYTE attr;
; 471  : 	BOOL result;
; 472  : 	LPOBJ lpTargetObj;
; 473  : 
; 474  : 	if ( lpObj->m_MoveRange == 0 && (gObjSearchActiveEffect(lpObj, AT_ICE_ARROW) == TRUE) && (gObjSearchActiveEffect(lpObj, AT_STUN) == TRUE) ) //season3 changed

  00007	8b 75 08	 mov	 esi, DWORD PTR _lpObj$[ebp]
  0000a	66 83 be ae 04
	00 00 00	 cmp	 WORD PTR [esi+1198], 0
  00012	c7 45 f8 07 00
	00 00		 mov	 DWORD PTR _searchcount$[ebp], 7
  00019	75 25		 jne	 SHORT $LN23@gObjMonste@8
  0001b	6a 39		 push	 57			; 00000039H
  0001d	56		 push	 esi
  0001e	e8 00 00 00 00	 call	 ?gObjSearchActiveEffect@@YAEPAUOBJECTSTRUCT@@H@Z ; gObjSearchActiveEffect
  00023	83 c4 08	 add	 esp, 8
  00026	3c 01		 cmp	 al, 1
  00028	75 16		 jne	 SHORT $LN23@gObjMonste@8
  0002a	6a 3d		 push	 61			; 0000003dH
  0002c	56		 push	 esi
  0002d	e8 00 00 00 00	 call	 ?gObjSearchActiveEffect@@YAEPAUOBJECTSTRUCT@@H@Z ; gObjSearchActiveEffect
  00032	83 c4 08	 add	 esp, 8
  00035	3c 01		 cmp	 al, 1
  00037	75 07		 jne	 SHORT $LN23@gObjMonste@8
$LN42@gObjMonste@8:

; 475  : 	{
; 476  : 		return FALSE;

  00039	33 c0		 xor	 eax, eax
  0003b	5e		 pop	 esi

; 596  : }

  0003c	8b e5		 mov	 esp, ebp
  0003e	5d		 pop	 ebp
  0003f	c3		 ret	 0
$LN23@gObjMonste@8:

; 477  : 	}
; 478  : 
; 479  : 	if (gObjSearchActiveEffect(lpObj, AT_SLEEP) == TRUE) //season3 add-on

  00040	6a 48		 push	 72			; 00000048H
  00042	56		 push	 esi
  00043	e8 00 00 00 00	 call	 ?gObjSearchActiveEffect@@YAEPAUOBJECTSTRUCT@@H@Z ; gObjSearchActiveEffect
  00048	83 c4 08	 add	 esp, 8
  0004b	3c 01		 cmp	 al, 1

; 480  : 	{
; 481  : 		return FALSE;

  0004d	74 ea		 je	 SHORT $LN42@gObjMonste@8

; 482  : 	}
; 483  : 
; 484  : 	if ( OBJMAX_RANGE(lpObj->TargetNumber) == FALSE )

  0004f	0f b7 86 58 04
	00 00		 movzx	 eax, WORD PTR [esi+1112]
  00056	66 85 c0	 test	 ax, ax
  00059	78 de		 js	 SHORT $LN42@gObjMonste@8
  0005b	33 d2		 xor	 edx, edx
  0005d	b9 97 3a 00 00	 mov	 ecx, 14999		; 00003a97H
  00062	66 3b c1	 cmp	 ax, cx
  00065	0f 9e c2	 setle	 dl
  00068	8b ca		 mov	 ecx, edx
  0006a	85 c9		 test	 ecx, ecx

; 485  : 	{
; 486  : 		return FALSE;

  0006c	74 cb		 je	 SHORT $LN42@gObjMonste@8

; 487  : 	}
; 488  : 
; 489  : 	lpTargetObj = &gObj[lpObj->TargetNumber];

  0006e	57		 push	 edi
  0006f	0f bf f8	 movsx	 edi, ax
  00072	69 ff 50 2b 00
	00		 imul	 edi, 11088		; 00002b50H
  00078	03 3d 00 00 00
	00		 add	 edi, DWORD PTR ?gObj@@3PAUOBJECTSTRUCT@@A ; gObj

; 490  : 
; 491  : 	if ( lpTargetObj->Teleport != 0 )

  0007e	80 bf a0 03 00
	00 00		 cmp	 BYTE PTR [edi+928], 0
  00085	89 7d f4	 mov	 DWORD PTR _lpTargetObj$[ebp], edi

; 492  : 	{
; 493  : 		return FALSE;

  00088	75 0d		 jne	 SHORT $LN41@gObjMonste@8

; 494  : 	}
; 495  : 
; 496  : 	int vpn = gObjMonsterViewportIsCharacter(lpObj);

  0008a	56		 push	 esi
  0008b	e8 00 00 00 00	 call	 ?gObjMonsterViewportIsCharacter@@YAHPAUOBJECTSTRUCT@@@Z ; gObjMonsterViewportIsCharacter
  00090	83 c4 04	 add	 esp, 4

; 497  : 
; 498  : 	if ( vpn < 0 )

  00093	85 c0		 test	 eax, eax
  00095	79 08		 jns	 SHORT $LN19@gObjMonste@8
$LN41@gObjMonste@8:
  00097	5f		 pop	 edi

; 499  : 	{
; 500  : 		return FALSE;

  00098	33 c0		 xor	 eax, eax
  0009a	5e		 pop	 esi

; 596  : }

  0009b	8b e5		 mov	 esp, ebp
  0009d	5d		 pop	 ebp
  0009e	c3		 ret	 0
$LN19@gObjMonste@8:

; 501  : 	}
; 502  : 	
; 503  : 	tpx = lpTargetObj->X;
; 504  : 	mtx = tpx;
; 505  : 	tpy = lpTargetObj->Y;
; 506  : 	mty = tpy;
; 507  : 	int dis;
; 508  : 
; 509  : 	if ( lpObj->m_AttackType >= 100 )

  0009f	66 83 be b2 04
	00 00 64	 cmp	 WORD PTR [esi+1202], 100 ; 00000064H
  000a7	0f bf 87 44 01
	00 00		 movsx	 eax, WORD PTR [edi+324]
  000ae	0f bf 8f 46 01
	00 00		 movsx	 ecx, WORD PTR [edi+326]
  000b5	8b d0		 mov	 edx, eax
  000b7	8b f9		 mov	 edi, ecx
  000b9	53		 push	 ebx

; 510  : 	{
; 511  : 		dis = lpObj->m_AttackRange + 2;

  000ba	0f bf 9e b0 04
	00 00		 movsx	 ebx, WORD PTR [esi+1200]
  000c1	89 55 08	 mov	 DWORD PTR _tpx$[ebp], edx
  000c4	89 55 ec	 mov	 DWORD PTR _mtx$[ebp], edx
  000c7	89 7d f0	 mov	 DWORD PTR _mty$[ebp], edi
  000ca	7c 03		 jl	 SHORT $LN18@gObjMonste@8
  000cc	83 c3 02	 add	 ebx, 2
$LN18@gObjMonste@8:

; 512  : 	}
; 513  : 	else
; 514  : 	{
; 515  : 		dis = lpObj->m_AttackRange;

  000cf	89 5d fc	 mov	 DWORD PTR _dis$[ebp], ebx

; 516  : 	}
; 517  : 
; 518  : 	if ( lpObj->X < mtx )

  000d2	0f bf 9e 44 01
	00 00		 movsx	 ebx, WORD PTR [esi+324]
  000d9	3b da		 cmp	 ebx, edx
  000db	7d 06		 jge	 SHORT $LN16@gObjMonste@8

; 519  : 	{
; 520  : 		tpx -= dis;

  000dd	2b 55 fc	 sub	 edx, DWORD PTR _dis$[ebp]
  000e0	89 55 08	 mov	 DWORD PTR _tpx$[ebp], edx
$LN16@gObjMonste@8:

; 521  : 	}
; 522  : 
; 523  : 	if ( lpObj->X > mtx )

  000e3	0f bf 96 44 01
	00 00		 movsx	 edx, WORD PTR [esi+324]
  000ea	3b 55 ec	 cmp	 edx, DWORD PTR _mtx$[ebp]
  000ed	7e 06		 jle	 SHORT $LN37@gObjMonste@8

; 524  : 	{
; 525  : 		tpx += dis;

  000ef	8b 55 fc	 mov	 edx, DWORD PTR _dis$[ebp]
  000f2	01 55 08	 add	 DWORD PTR _tpx$[ebp], edx
$LN37@gObjMonste@8:

; 526  : 	}
; 527  : 
; 528  : 	if ( lpObj->Y < mty )

  000f5	0f bf 96 46 01
	00 00		 movsx	 edx, WORD PTR [esi+326]
  000fc	3b d7		 cmp	 edx, edi
  000fe	7d 03		 jge	 SHORT $LN14@gObjMonste@8

; 529  : 	{
; 530  : 		tpy -= dis;

  00100	2b 7d fc	 sub	 edi, DWORD PTR _dis$[ebp]
$LN14@gObjMonste@8:

; 531  : 	}
; 532  : 
; 533  : 	if ( lpObj->Y > mty )

  00103	3b 55 f0	 cmp	 edx, DWORD PTR _mty$[ebp]
  00106	7e 03		 jle	 SHORT $LN13@gObjMonste@8

; 534  : 	{
; 535  : 		tpy += dis;

  00108	03 7d fc	 add	 edi, DWORD PTR _dis$[ebp]
$LN13@gObjMonste@8:

; 536  : 	}
; 537  : 
; 538  : 	searchp = GetPathPacketDirPos( (lpTargetObj->X - tpx), (lpTargetObj->Y - tpy) ) * 2;

  0010b	2b 45 08	 sub	 eax, DWORD PTR _tpx$[ebp]
  0010e	2b cf		 sub	 ecx, edi
  00110	51		 push	 ecx
  00111	50		 push	 eax
  00112	e8 00 00 00 00	 call	 ?GetPathPacketDirPos@@YAEHH@Z ; GetPathPacketDirPos

; 539  : 
; 540  : 	if ( MapC[lpObj->MapNumber].GetStandAttr(tpx, tpy) == 0 )

  00117	0f b6 8e 49 01
	00 00		 movzx	 ecx, BYTE PTR [esi+329]
  0011e	69 c9 48 3d 05
	00		 imul	 ecx, 343368		; 00053d48H
  00124	0f b6 d8	 movzx	 ebx, al
  00127	8b 45 08	 mov	 eax, DWORD PTR _tpx$[ebp]
  0012a	83 c4 08	 add	 esp, 8
  0012d	57		 push	 edi
  0012e	03 db		 add	 ebx, ebx
  00130	50		 push	 eax
  00131	81 c1 00 00 00
	00		 add	 ecx, OFFSET ?MapC@@3PAVMapClass@@A ; MapC
  00137	89 5d fc	 mov	 DWORD PTR _searchp$[ebp], ebx
  0013a	e8 00 00 00 00	 call	 ?GetStandAttr@MapClass@@QAEHHH@Z ; MapClass::GetStandAttr
  0013f	85 c0		 test	 eax, eax
  00141	74 70		 je	 SHORT $LN11@gObjMonste@8

; 570  : 			}
; 571  : 		}
; 572  : 
; 573  : 		return FALSE;
; 574  : 	}
; 575  : 
; 576  : 	attr = MapC[lpObj->MapNumber].GetAttr(tpx, tpy);

  00143	0f b6 8e 49 01
	00 00		 movzx	 ecx, BYTE PTR [esi+329]
  0014a	8b 45 08	 mov	 eax, DWORD PTR _tpx$[ebp]
  0014d	69 c9 48 3d 05
	00		 imul	 ecx, 343368		; 00053d48H
  00153	57		 push	 edi
  00154	50		 push	 eax
  00155	81 c1 00 00 00
	00		 add	 ecx, OFFSET ?MapC@@3PAVMapClass@@A ; MapC
  0015b	e8 00 00 00 00	 call	 ?GetAttr@MapClass@@QAEEHH@Z ; MapClass::GetAttr

; 577  : 	result = gObjMonsterMoveCheck(lpObj, mtx, mty);

  00160	8b 4d f0	 mov	 ecx, DWORD PTR _mty$[ebp]
  00163	8b 55 ec	 mov	 edx, DWORD PTR _mtx$[ebp]
  00166	51		 push	 ecx
  00167	52		 push	 edx
  00168	56		 push	 esi
  00169	8a d8		 mov	 bl, al
  0016b	e8 00 00 00 00	 call	 ?gObjMonsterMoveCheck@@YAHPAUOBJECTSTRUCT@@HH@Z ; gObjMonsterMoveCheck

; 578  : 
; 579  : 	if ( lpObj->Class == 249 )

  00170	b9 f9 00 00 00	 mov	 ecx, 249		; 000000f9H
  00175	83 c4 0c	 add	 esp, 12			; 0000000cH
  00178	66 39 8e b8 00
	00 00		 cmp	 WORD PTR [esi+184], cx
  0017f	0f 85 fb 00 00
	00		 jne	 $LN4@gObjMonste@8

; 580  : 	{
; 581  : 		if ( (attr&2)!=2 && result == TRUE )

  00185	f6 c3 02	 test	 bl, 2
  00188	0f 85 cf 00 00
	00		 jne	 $LN1@gObjMonste@8
  0018e	83 f8 01	 cmp	 eax, 1
  00191	0f 85 c6 00 00
	00		 jne	 $LN1@gObjMonste@8

; 582  : 		{
; 583  : 			lpObj->MTX = tpx;

  00197	66 8b 55 08	 mov	 dx, WORD PTR _tpx$[ebp]
  0019b	5b		 pop	 ebx

; 584  : 			lpObj->MTY = tpy;

  0019c	66 89 be 82 01
	00 00		 mov	 WORD PTR [esi+386], di
  001a3	5f		 pop	 edi
  001a4	66 89 96 80 01
	00 00		 mov	 WORD PTR [esi+384], dx
  001ab	5e		 pop	 esi

; 596  : }

  001ac	8b e5		 mov	 esp, ebp
  001ae	5d		 pop	 ebp
  001af	c3		 ret	 0
$LL35@gObjMonste@8:

; 539  : 
; 540  : 	if ( MapC[lpObj->MapNumber].GetStandAttr(tpx, tpy) == 0 )

  001b0	8b 5d fc	 mov	 ebx, DWORD PTR _searchp$[ebp]
$LN11@gObjMonste@8:

; 543  : 		{
; 544  : 			mtx = lpTargetObj->X + RoadPathTable[searchp];

  001b3	8b 4d f4	 mov	 ecx, DWORD PTR _lpTargetObj$[ebp]
  001b6	0f bf 91 44 01
	00 00		 movsx	 edx, WORD PTR [ecx+324]
  001bd	0f bf 3c 5d 00
	00 00 00	 movsx	 edi, WORD PTR ?RoadPathTable@@3PAFA[ebx*2]

; 545  : 			mty = lpTargetObj->Y + RoadPathTable[1+searchp];

  001c5	0f bf 1c 5d 02
	00 00 00	 movsx	 ebx, WORD PTR ?RoadPathTable@@3PAFA[ebx*2+2]
  001cd	ff 4d f8	 dec	 DWORD PTR _searchcount$[ebp]
  001d0	8b c1		 mov	 eax, ecx
  001d2	0f bf 88 46 01
	00 00		 movsx	 ecx, WORD PTR [eax+326]
  001d9	03 d9		 add	 ebx, ecx

; 546  : 			attr = MapC[lpObj->MapNumber].GetAttr(mtx, mty);

  001db	0f b6 8e 49 01
	00 00		 movzx	 ecx, BYTE PTR [esi+329]
  001e2	69 c9 48 3d 05
	00		 imul	 ecx, 343368		; 00053d48H
  001e8	03 fa		 add	 edi, edx
  001ea	53		 push	 ebx
  001eb	57		 push	 edi
  001ec	81 c1 00 00 00
	00		 add	 ecx, OFFSET ?MapC@@3PAVMapClass@@A ; MapC
  001f2	e8 00 00 00 00	 call	 ?GetAttr@MapClass@@QAEEHH@Z ; MapClass::GetAttr

; 547  : 			result = gObjMonsterMoveCheck(lpObj, mtx, mty);

  001f7	53		 push	 ebx
  001f8	57		 push	 edi
  001f9	56		 push	 esi
  001fa	88 45 0b	 mov	 BYTE PTR _attr$[ebp], al
  001fd	e8 00 00 00 00	 call	 ?gObjMonsterMoveCheck@@YAHPAUOBJECTSTRUCT@@HH@Z ; gObjMonsterMoveCheck

; 548  : 
; 549  : 			if ( lpObj->Class == 249 )

  00202	ba f9 00 00 00	 mov	 edx, 249		; 000000f9H
  00207	83 c4 0c	 add	 esp, 12			; 0000000cH
  0020a	66 39 96 b8 00
	00 00		 cmp	 WORD PTR [esi+184], dx
  00211	75 20		 jne	 SHORT $LN9@gObjMonste@8

; 550  : 			{
; 551  : 				if ( (attr&2)!=2 && result == TRUE )

  00213	f6 45 0b 02	 test	 BYTE PTR _attr$[ebp], 2
  00217	75 25		 jne	 SHORT $LN6@gObjMonste@8
  00219	83 f8 01	 cmp	 eax, 1
  0021c	75 20		 jne	 SHORT $LN6@gObjMonste@8

; 552  : 				{
; 553  : 					lpObj->MTX = mtx;
; 554  : 					lpObj->MTY = mty;

  0021e	66 89 9e 82 01
	00 00		 mov	 WORD PTR [esi+386], bx
  00225	5b		 pop	 ebx
  00226	66 89 be 80 01
	00 00		 mov	 WORD PTR [esi+384], di
  0022d	5f		 pop	 edi
  0022e	5e		 pop	 esi

; 596  : }

  0022f	8b e5		 mov	 esp, ebp
  00231	5d		 pop	 ebp
  00232	c3		 ret	 0
$LN9@gObjMonste@8:

; 555  : 					return TRUE;
; 556  : 				}
; 557  : 			}
; 558  : 			else if ( (attr&1) != 1 && (attr&2) != 2 && (attr&4) != 4 && (attr&8) != 8 && result == TRUE )

  00233	f6 45 0b 0f	 test	 BYTE PTR _attr$[ebp], 15 ; 0000000fH
  00237	75 05		 jne	 SHORT $LN6@gObjMonste@8
  00239	83 f8 01	 cmp	 eax, 1
  0023c	74 28		 je	 SHORT $LN30@gObjMonste@8
$LN6@gObjMonste@8:

; 562  : 				return TRUE;
; 563  : 			}
; 564  : 
; 565  : 			searchp += 2;

  0023e	8b 45 fc	 mov	 eax, DWORD PTR _searchp$[ebp]
  00241	83 c0 02	 add	 eax, 2
  00244	89 45 fc	 mov	 DWORD PTR _searchp$[ebp], eax

; 566  : 
; 567  : 			if ( searchp > MAX_ROAD_PATH_TABLE-1 )

  00247	83 f8 0f	 cmp	 eax, 15			; 0000000fH
  0024a	7e 07		 jle	 SHORT $LN36@gObjMonste@8

; 568  : 			{
; 569  : 				searchp = 0;

  0024c	c7 45 fc 00 00
	00 00		 mov	 DWORD PTR _searchp$[ebp], 0
$LN36@gObjMonste@8:

; 541  : 	{
; 542  : 		while ( searchcount-- )

  00253	83 7d f8 00	 cmp	 DWORD PTR _searchcount$[ebp], 0
  00257	0f 85 53 ff ff
	ff		 jne	 $LL35@gObjMonste@8
$LN1@gObjMonste@8:
  0025d	5b		 pop	 ebx
  0025e	5f		 pop	 edi

; 593  : 	}
; 594  : 
; 595  : 	return FALSE;

  0025f	33 c0		 xor	 eax, eax
  00261	5e		 pop	 esi

; 596  : }

  00262	8b e5		 mov	 esp, ebp
  00264	5d		 pop	 ebp
  00265	c3		 ret	 0
$LN30@gObjMonste@8:

; 559  : 			{
; 560  : 				lpObj->MTX = mtx;
; 561  : 				lpObj->MTY = mty;

  00266	66 89 9e 82 01
	00 00		 mov	 WORD PTR [esi+386], bx
  0026d	5b		 pop	 ebx
  0026e	66 89 be 80 01
	00 00		 mov	 WORD PTR [esi+384], di
  00275	5f		 pop	 edi

; 592  : 		return TRUE;

  00276	b8 01 00 00 00	 mov	 eax, 1
  0027b	5e		 pop	 esi

; 596  : }

  0027c	8b e5		 mov	 esp, ebp
  0027e	5d		 pop	 ebp
  0027f	c3		 ret	 0
$LN4@gObjMonste@8:

; 585  : 			return TRUE;
; 586  : 		}
; 587  : 	}
; 588  : 	else if ( (attr&1) != 1 && (attr&2) != 2 && (attr&4) != 4 && (attr&8) != 8 && result == TRUE )

  00280	f6 c3 0f	 test	 bl, 15			; 0000000fH
  00283	75 d8		 jne	 SHORT $LN1@gObjMonste@8
  00285	83 f8 01	 cmp	 eax, 1
  00288	75 d3		 jne	 SHORT $LN1@gObjMonste@8

; 589  : 	{
; 590  : 		lpObj->MTX = tpx;

  0028a	66 8b 45 08	 mov	 ax, WORD PTR _tpx$[ebp]
  0028e	5b		 pop	 ebx

; 591  : 		lpObj->MTY = tpy;

  0028f	66 89 be 82 01
	00 00		 mov	 WORD PTR [esi+386], di
  00296	66 89 86 80 01
	00 00		 mov	 WORD PTR [esi+384], ax
  0029d	5f		 pop	 edi

; 592  : 		return TRUE;

  0029e	b8 01 00 00 00	 mov	 eax, 1
  002a3	5e		 pop	 esi

; 596  : }

  002a4	8b e5		 mov	 esp, ebp
  002a6	5d		 pop	 ebp
  002a7	c3		 ret	 0
?gObjMonsterGetTargetPos@@YAHPAUOBJECTSTRUCT@@@Z ENDP	; gObjMonsterGetTargetPos
_TEXT	ENDS
PUBLIC	?gObjGetTargetPos@@YAHPAUOBJECTSTRUCT@@HHAAH1@Z	; gObjGetTargetPos
; Function compile flags: /Ogtp
;	COMDAT ?gObjGetTargetPos@@YAHPAUOBJECTSTRUCT@@HHAAH1@Z
_TEXT	SEGMENT
_searchcount$ = -4					; size = 4
_lpObj$ = 8						; size = 4
_sx$ = 12						; size = 4
_sy$ = 16						; size = 4
_tx$ = 20						; size = 4
_ty$ = 24						; size = 4
?gObjGetTargetPos@@YAHPAUOBJECTSTRUCT@@HHAAH1@Z PROC	; gObjGetTargetPos, COMDAT

; 599  : {

  00000	55		 push	 ebp
  00001	8b ec		 mov	 ebp, esp
  00003	51		 push	 ecx

; 600  : 	int tpx;	// Target Player X
; 601  : 	int tpy;
; 602  : 	int mtx;	// Monster Target X
; 603  : 	int mty;
; 604  : 	int searchp = 0;
; 605  : 	int sn = 0;
; 606  : 	int searchcount = MAX_ROAD_PATH_TABLE/2-1;
; 607  : 	BYTE attr;
; 608  : 	int dis;
; 609  : 
; 610  : 	tpx = sx;
; 611  : 	mtx = tpx;
; 612  : 	tpy = sy;
; 613  : 	mty = tpy;
; 614  : 
; 615  : 	if ( lpObj->m_AttackType >= 100 )

  00004	8b 55 08	 mov	 edx, DWORD PTR _lpObj$[ebp]
  00007	66 83 ba b2 04
	00 00 64	 cmp	 WORD PTR [edx+1202], 100 ; 00000064H
  0000f	8b 4d 10	 mov	 ecx, DWORD PTR _sy$[ebp]

; 616  : 	{
; 617  : 		dis = lpObj->m_AttackRange + 2;

  00012	0f bf 82 b0 04
	00 00		 movsx	 eax, WORD PTR [edx+1200]
  00019	53		 push	 ebx
  0001a	8b 5d 0c	 mov	 ebx, DWORD PTR _sx$[ebp]
  0001d	56		 push	 esi
  0001e	57		 push	 edi
  0001f	c7 45 fc 07 00
	00 00		 mov	 DWORD PTR _searchcount$[ebp], 7
  00026	8b fb		 mov	 edi, ebx
  00028	8b f1		 mov	 esi, ecx
  0002a	7c 03		 jl	 SHORT $LN14@gObjGetTar
  0002c	83 c0 02	 add	 eax, 2
$LN14@gObjGetTar:

; 618  : 	}
; 619  : 	else
; 620  : 	{
; 621  : 		dis = lpObj->m_AttackRange;
; 622  : 	}
; 623  : 
; 624  : 	if ( lpObj->X < mtx )

  0002f	0f bf 92 44 01
	00 00		 movsx	 edx, WORD PTR [edx+324]
  00036	3b d3		 cmp	 edx, ebx
  00038	7d 04		 jge	 SHORT $LN25@gObjGetTar

; 625  : 	{
; 626  : 		tpx -= dis;

  0003a	2b f8		 sub	 edi, eax

; 627  : 	}
; 628  : 
; 629  : 	if ( lpObj->X > mtx )

  0003c	3b d3		 cmp	 edx, ebx
$LN25@gObjGetTar:
  0003e	7e 02		 jle	 SHORT $LN12@gObjGetTar

; 630  : 	{
; 631  : 		tpx += dis;

  00040	03 f8		 add	 edi, eax
$LN12@gObjGetTar:

; 632  : 	}
; 633  : 
; 634  : 	if ( lpObj->Y < mty )

  00042	8b 55 08	 mov	 edx, DWORD PTR _lpObj$[ebp]
  00045	0f bf 92 46 01
	00 00		 movsx	 edx, WORD PTR [edx+326]
  0004c	3b d1		 cmp	 edx, ecx
  0004e	7d 04		 jge	 SHORT $LN26@gObjGetTar

; 635  : 	{
; 636  : 		tpy -= dis;

  00050	2b f0		 sub	 esi, eax

; 637  : 	}
; 638  : 
; 639  : 	if ( lpObj->Y > mty )

  00052	3b d1		 cmp	 edx, ecx
$LN26@gObjGetTar:
  00054	7e 02		 jle	 SHORT $LN10@gObjGetTar

; 640  : 	{
; 641  : 		tpy += dis;

  00056	03 f0		 add	 esi, eax
$LN10@gObjGetTar:

; 642  : 	}
; 643  : 
; 644  : 	searchp = GetPathPacketDirPos( sx - tpx, sy - tpy ) * 2;

  00058	2b ce		 sub	 ecx, esi
  0005a	51		 push	 ecx
  0005b	2b df		 sub	 ebx, edi
  0005d	53		 push	 ebx
  0005e	e8 00 00 00 00	 call	 ?GetPathPacketDirPos@@YAEHH@Z ; GetPathPacketDirPos
  00063	0f b6 d8	 movzx	 ebx, al

; 645  : 
; 646  : 	if ( MapC[lpObj->MapNumber].GetStandAttr(tpx, tpy) == 0 )

  00066	8b 45 08	 mov	 eax, DWORD PTR _lpObj$[ebp]
  00069	0f b6 88 49 01
	00 00		 movzx	 ecx, BYTE PTR [eax+329]
  00070	69 c9 48 3d 05
	00		 imul	 ecx, 343368		; 00053d48H
  00076	83 c4 08	 add	 esp, 8
  00079	56		 push	 esi
  0007a	57		 push	 edi
  0007b	81 c1 00 00 00
	00		 add	 ecx, OFFSET ?MapC@@3PAVMapClass@@A ; MapC
  00081	03 db		 add	 ebx, ebx
  00083	e8 00 00 00 00	 call	 ?GetStandAttr@MapClass@@QAEHHH@Z ; MapClass::GetStandAttr
  00088	85 c0		 test	 eax, eax
  0008a	75 6d		 jne	 SHORT $LN9@gObjGetTar
  0008c	8d 64 24 00	 npad	 4
$LL8@gObjGetTar:

; 649  : 		{
; 650  : 			mtx = sx + RoadPathTable[searchp];
; 651  : 			mty = sy + RoadPathTable[1+searchp];
; 652  : 			attr = MapC[lpObj->MapNumber].GetAttr(mtx, mty);

  00090	8b 4d 08	 mov	 ecx, DWORD PTR _lpObj$[ebp]
  00093	0f b6 89 49 01
	00 00		 movzx	 ecx, BYTE PTR [ecx+329]
  0009a	0f bf 3c 5d 02
	00 00 00	 movsx	 edi, WORD PTR ?RoadPathTable@@3PAFA[ebx*2+2]
  000a2	69 c9 48 3d 05
	00		 imul	 ecx, 343368		; 00053d48H
  000a8	0f bf 34 5d 00
	00 00 00	 movsx	 esi, WORD PTR ?RoadPathTable@@3PAFA[ebx*2]
  000b0	03 7d 10	 add	 edi, DWORD PTR _sy$[ebp]
  000b3	03 75 0c	 add	 esi, DWORD PTR _sx$[ebp]
  000b6	ff 4d fc	 dec	 DWORD PTR _searchcount$[ebp]
  000b9	57		 push	 edi
  000ba	56		 push	 esi
  000bb	81 c1 00 00 00
	00		 add	 ecx, OFFSET ?MapC@@3PAVMapClass@@A ; MapC
  000c1	e8 00 00 00 00	 call	 ?GetAttr@MapClass@@QAEEHH@Z ; MapClass::GetAttr

; 653  : 			
; 654  : 			if ( (attr&1) != 1 && (attr&2) != 2 && (attr&4) != 4 && (attr&8) != 8 )

  000c6	a8 0f		 test	 al, 15			; 0000000fH
  000c8	74 19		 je	 SHORT $LN19@gObjGetTar

; 658  : 				return TRUE;
; 659  : 			}
; 660  : 
; 661  : 			searchp += 2;

  000ca	83 c3 02	 add	 ebx, 2

; 662  : 
; 663  : 			if ( searchp > MAX_ROAD_PATH_TABLE-1 )

  000cd	83 fb 0f	 cmp	 ebx, 15			; 0000000fH
  000d0	7e 02		 jle	 SHORT $LN24@gObjGetTar

; 664  : 			{
; 665  : 				searchp = 0;

  000d2	33 db		 xor	 ebx, ebx
$LN24@gObjGetTar:

; 647  : 	{
; 648  : 		while ( searchcount-- )

  000d4	83 7d fc 00	 cmp	 DWORD PTR _searchcount$[ebp], 0
  000d8	75 b6		 jne	 SHORT $LL8@gObjGetTar
$LN1@gObjGetTar:
  000da	5f		 pop	 edi
  000db	5e		 pop	 esi

; 688  : 	}
; 689  : 
; 690  : 	return FALSE;

  000dc	33 c0		 xor	 eax, eax
  000de	5b		 pop	 ebx

; 691  : }

  000df	8b e5		 mov	 esp, ebp
  000e1	5d		 pop	 ebp
  000e2	c3		 ret	 0
$LN19@gObjGetTar:

; 655  : 			{
; 656  : 				tx = mtx;

  000e3	8b 55 14	 mov	 edx, DWORD PTR _tx$[ebp]

; 657  : 				ty = mty;

  000e6	8b 45 18	 mov	 eax, DWORD PTR _ty$[ebp]
  000e9	89 32		 mov	 DWORD PTR [edx], esi
  000eb	89 38		 mov	 DWORD PTR [eax], edi
  000ed	5f		 pop	 edi
  000ee	5e		 pop	 esi

; 687  : 		return TRUE;

  000ef	b8 01 00 00 00	 mov	 eax, 1
  000f4	5b		 pop	 ebx

; 691  : }

  000f5	8b e5		 mov	 esp, ebp
  000f7	5d		 pop	 ebp
  000f8	c3		 ret	 0
$LN9@gObjGetTar:

; 666  : 			}
; 667  : 		}
; 668  : 
; 669  : 		return FALSE;
; 670  : 	}
; 671  : 
; 672  : 	attr = MapC[lpObj->MapNumber].GetAttr(tpx, tpy);

  000f9	8b 5d 08	 mov	 ebx, DWORD PTR _lpObj$[ebp]
  000fc	0f b6 8b 49 01
	00 00		 movzx	 ecx, BYTE PTR [ebx+329]
  00103	69 c9 48 3d 05
	00		 imul	 ecx, 343368		; 00053d48H
  00109	56		 push	 esi
  0010a	57		 push	 edi
  0010b	81 c1 00 00 00
	00		 add	 ecx, OFFSET ?MapC@@3PAVMapClass@@A ; MapC
  00111	e8 00 00 00 00	 call	 ?GetAttr@MapClass@@QAEEHH@Z ; MapClass::GetAttr

; 673  : 
; 674  : 	if ( lpObj->m_Attribute >= 100 )

  00116	66 83 bb b6 04
	00 00 64	 cmp	 WORD PTR [ebx+1206], 100 ; 00000064H
  0011e	7c 1a		 jl	 SHORT $LN4@gObjGetTar

; 675  : 	{
; 676  : 		if (  (attr&2) != 2 && (attr&4) != 4 && (attr&8) != 8 )

  00120	a8 0e		 test	 al, 14			; 0000000eH
  00122	75 b6		 jne	 SHORT $LN1@gObjGetTar

; 677  : 		{
; 678  : 			tx = tpx;

  00124	8b 4d 14	 mov	 ecx, DWORD PTR _tx$[ebp]

; 679  : 			ty = tpy;

  00127	8b 55 18	 mov	 edx, DWORD PTR _ty$[ebp]
  0012a	89 39		 mov	 DWORD PTR [ecx], edi
  0012c	5f		 pop	 edi
  0012d	89 32		 mov	 DWORD PTR [edx], esi
  0012f	5e		 pop	 esi

; 680  : 			return TRUE;

  00130	b8 01 00 00 00	 mov	 eax, 1
  00135	5b		 pop	 ebx

; 691  : }

  00136	8b e5		 mov	 esp, ebp
  00138	5d		 pop	 ebp
  00139	c3		 ret	 0
$LN4@gObjGetTar:

; 681  : 		}
; 682  : 	}
; 683  : 	else if  ( (attr&1) != 1 && (attr&2) != 2 && (attr&4) != 4 && (attr&8) != 8 )

  0013a	a8 0f		 test	 al, 15			; 0000000fH
  0013c	75 9c		 jne	 SHORT $LN1@gObjGetTar

; 684  : 	{
; 685  : 		tx = tpx;

  0013e	8b 45 14	 mov	 eax, DWORD PTR _tx$[ebp]

; 686  : 		ty = tpy;

  00141	8b 4d 18	 mov	 ecx, DWORD PTR _ty$[ebp]
  00144	89 38		 mov	 DWORD PTR [eax], edi
  00146	5f		 pop	 edi
  00147	89 31		 mov	 DWORD PTR [ecx], esi
  00149	5e		 pop	 esi

; 687  : 		return TRUE;

  0014a	b8 01 00 00 00	 mov	 eax, 1
  0014f	5b		 pop	 ebx

; 691  : }

  00150	8b e5		 mov	 esp, ebp
  00152	5d		 pop	 ebp
  00153	c3		 ret	 0
?gObjGetTargetPos@@YAHPAUOBJECTSTRUCT@@HHAAH1@Z ENDP	; gObjGetTargetPos
_TEXT	ENDS
PUBLIC	?gObjCallMonsterSetEnemy@@YAHPAUOBJECTSTRUCT@@H@Z ; gObjCallMonsterSetEnemy
; Function compile flags: /Ogtp
;	COMDAT ?gObjCallMonsterSetEnemy@@YAHPAUOBJECTSTRUCT@@H@Z
_TEXT	SEGMENT
_lpObj$ = 8						; size = 4
_Target$ = 12						; size = 4
?gObjCallMonsterSetEnemy@@YAHPAUOBJECTSTRUCT@@H@Z PROC	; gObjCallMonsterSetEnemy, COMDAT

; 694  : {

  00000	55		 push	 ebp
  00001	8b ec		 mov	 ebp, esp

; 695  : 	if ( lpObj->Type != OBJ_USER )

  00003	8b 45 08	 mov	 eax, DWORD PTR _lpObj$[ebp]
  00006	66 83 78 68 01	 cmp	 WORD PTR [eax+104], 1

; 696  : 	{
; 697  : 		return -1;

  0000b	75 4f		 jne	 SHORT $LN1@gObjCallMo

; 698  : 	}
; 699  : 
; 700  : 	if( lpObj->m_RecallMon < 0)//Season 4.5 addon

  0000d	8b 80 50 04 00
	00		 mov	 eax, DWORD PTR [eax+1104]
  00013	85 c0		 test	 eax, eax

; 701  : 	{
; 702  : 		return -1;

  00015	78 45		 js	 SHORT $LN1@gObjCallMo

; 703  : 	}
; 704  : 
; 705  : 	LPOBJ lpCallObj = &gObj[lpObj->m_RecallMon];

  00017	69 c0 50 2b 00
	00		 imul	 eax, 11088		; 00002b50H
  0001d	03 05 00 00 00
	00		 add	 eax, DWORD PTR ?gObj@@3PAUOBJECTSTRUCT@@A ; gObj

; 706  : 
; 707  : 	if ( lpCallObj->TargetNumber >= 0 )

  00023	0f b7 88 58 04
	00 00		 movzx	 ecx, WORD PTR [eax+1112]
  0002a	66 85 c9	 test	 cx, cx

; 708  : 	{
; 709  : 		return -1;

  0002d	79 2d		 jns	 SHORT $LN1@gObjCallMo

; 710  : 	}
; 711  : 
; 712  : 	if ( lpCallObj->TargetNumber != Target )

  0002f	0f bf d1	 movsx	 edx, cx
  00032	8b 4d 0c	 mov	 ecx, DWORD PTR _Target$[ebp]
  00035	3b d1		 cmp	 edx, ecx
  00037	74 23		 je	 SHORT $LN1@gObjCallMo

; 713  : 	{
; 714  : 		lpCallObj->TargetNumber = Target;

  00039	66 89 88 58 04
	00 00		 mov	 WORD PTR [eax+1112], cx

; 715  : 		lpCallObj->m_ActState.EmotionCount = 30;

  00040	c6 80 19 02 00
	00 1e		 mov	 BYTE PTR [eax+537], 30	; 0000001eH

; 716  : 		lpCallObj->m_ActState.Emotion = 1;

  00047	8b 88 18 02 00
	00		 mov	 ecx, DWORD PTR [eax+536]
  0004d	81 e1 1f ff ff
	ff		 and	 ecx, -225		; ffffff1fH
  00053	83 c9 10	 or	 ecx, 16			; 00000010H
  00056	89 88 18 02 00
	00		 mov	 DWORD PTR [eax+536], ecx
$LN1@gObjCallMo:

; 717  : 	}
; 718  : 
; 719  : 	return -1;

  0005c	83 c8 ff	 or	 eax, -1

; 720  : }

  0005f	5d		 pop	 ebp
  00060	c3		 ret	 0
?gObjCallMonsterSetEnemy@@YAHPAUOBJECTSTRUCT@@H@Z ENDP	; gObjCallMonsterSetEnemy
_TEXT	ENDS
PUBLIC	?gObjMonsterSearchEnemy@@YAHPAUOBJECTSTRUCT@@E@Z ; gObjMonsterSearchEnemy
EXTRN	_rand:PROC
EXTRN	?IsDGMonster@CDoppelGanger@@QAE_NPAUOBJECTSTRUCT@@@Z:PROC ; CDoppelGanger::IsDGMonster
EXTRN	?g_DoppelGanger@@3VCDoppelGanger@@A:BYTE	; g_DoppelGanger
; Function compile flags: /Ogtp
;	COMDAT ?gObjMonsterSearchEnemy@@YAHPAUOBJECTSTRUCT@@E@Z
_TEXT	SEGMENT
tv400 = -16						; size = 4
_tx$ = -16						; size = 4
_searchtarget$ = -12					; size = 4
tv147 = -8						; size = 4
_mindis$ = -4						; size = 4
tv393 = 8						; size = 4
_lpObj$ = 8						; size = 4
_objtype$ = 12						; size = 1
?gObjMonsterSearchEnemy@@YAHPAUOBJECTSTRUCT@@E@Z PROC	; gObjMonsterSearchEnemy, COMDAT

; 723  : {

  00000	55		 push	 ebp
  00001	8b ec		 mov	 ebp, esp
  00003	83 ec 10	 sub	 esp, 16			; 00000010H
  00006	53		 push	 ebx

; 724  : 	int n;
; 725  : 	int tx;
; 726  : 	int ty;
; 727  : 	int dis;
; 728  : 	int mindis = lpObj->m_ViewRange;

  00007	8b 5d 08	 mov	 ebx, DWORD PTR _lpObj$[ebp]
  0000a	0f bf 83 b4 04
	00 00		 movsx	 eax, WORD PTR [ebx+1204]
  00011	56		 push	 esi
  00012	8d 8b b4 08 00
	00		 lea	 ecx, DWORD PTR [ebx+2228]
  00018	57		 push	 edi
  00019	89 45 fc	 mov	 DWORD PTR _mindis$[ebp], eax

; 729  : 	int searchtarget = -1;

  0001c	c7 45 f4 ff ff
	ff ff		 mov	 DWORD PTR _searchtarget$[ebp], -1
  00023	89 4d 08	 mov	 DWORD PTR tv393[ebp], ecx
  00026	c7 45 f8 4b 00
	00 00		 mov	 DWORD PTR tv147[ebp], 75 ; 0000004bH
  0002d	8d 49 00	 npad	 3
$LL14@gObjMonste@9:

; 736  : 	{
; 737  : 		tObjNum = lpObj->VpPlayer2[n].number;

  00030	8b 55 08	 mov	 edx, DWORD PTR tv393[ebp]
  00033	0f bf 7a fa	 movsx	 edi, WORD PTR [edx-6]

; 738  : 
; 739  : 		if ( tObjNum >= 0 )

  00037	85 ff		 test	 edi, edi
  00039	0f 88 d6 00 00
	00		 js	 $LN13@gObjMonste@9

; 740  : 		{
; 741  : 			if ( (gObj[tObjNum].Type == t1 || gObj[tObjNum].Type == t2) && (gObj[tObjNum].Live != FALSE) )

  0003f	0f b6 75 0c	 movzx	 esi, BYTE PTR _objtype$[ebp]
  00043	8b c7		 mov	 eax, edi
  00045	69 c0 50 2b 00
	00		 imul	 eax, 11088		; 00002b50H
  0004b	03 05 00 00 00
	00		 add	 eax, DWORD PTR ?gObj@@3PAUOBJECTSTRUCT@@A ; gObj
  00051	0f b7 50 68	 movzx	 edx, WORD PTR [eax+104]
  00055	8b ca		 mov	 ecx, edx
  00057	3b ce		 cmp	 ecx, esi
  00059	0f 85 b6 00 00
	00		 jne	 $LN13@gObjMonste@9
  0005f	80 78 6a 00	 cmp	 BYTE PTR [eax+106], 0
  00063	0f 84 ac 00 00
	00		 je	 $LN13@gObjMonste@9

; 742  : 			{
; 743  : 				if ( (gObj[tObjNum].Class >= 100 && gObj[tObjNum].Class < 110 ) || (gObj[tObjNum].Type == OBJ_MONSTER && gObj[tObjNum].m_RecallMon >= 0) )

  00069	0f b7 88 b8 00
	00 00		 movzx	 ecx, WORD PTR [eax+184]
  00070	83 f9 64	 cmp	 ecx, 100		; 00000064H
  00073	72 09		 jb	 SHORT $LN6@gObjMonste@9
  00075	83 f9 6e	 cmp	 ecx, 110		; 0000006eH
  00078	0f 82 97 00 00
	00		 jb	 $LN13@gObjMonste@9
$LN6@gObjMonste@9:
  0007e	83 fa 02	 cmp	 edx, 2
  00081	75 0d		 jne	 SHORT $LN8@gObjMonste@9
  00083	83 b8 50 04 00
	00 00		 cmp	 DWORD PTR [eax+1104], 0

; 744  : 				{
; 745  : 
; 746  : 				}
; 747  : 				else if ( (gObj[tObjNum].Authority &2) != 2 && (gObj[tObjNum].Authority &32) != 32 && gObj[tObjNum].Teleport == 0 )

  0008a	0f 8d 85 00 00
	00		 jge	 $LN13@gObjMonste@9
$LN8@gObjMonste@9:
  00090	f6 80 0c 02 00
	00 22		 test	 BYTE PTR [eax+524], 34	; 00000022H
  00097	75 7c		 jne	 SHORT $LN13@gObjMonste@9
  00099	80 b8 a0 03 00
	00 00		 cmp	 BYTE PTR [eax+928], 0
  000a0	75 73		 jne	 SHORT $LN13@gObjMonste@9

; 748  : 				{
; 749  : 					tx = lpObj->X - gObj[tObjNum].X;

  000a2	0f bf 90 44 01
	00 00		 movsx	 edx, WORD PTR [eax+324]
  000a9	0f bf 8b 44 01
	00 00		 movsx	 ecx, WORD PTR [ebx+324]
  000b0	2b ca		 sub	 ecx, edx

; 750  : 					ty = lpObj->Y - gObj[tObjNum].Y;

  000b2	0f bf 90 46 01
	00 00		 movsx	 edx, WORD PTR [eax+326]
  000b9	0f bf 83 46 01
	00 00		 movsx	 eax, WORD PTR [ebx+326]
  000c0	2b c2		 sub	 eax, edx

; 751  : 					dis = (int)(sqrt((double)tx * tx + ty * ty));

  000c2	0f af c0	 imul	 eax, eax
  000c5	89 4d f0	 mov	 DWORD PTR _tx$[ebp], ecx
  000c8	db 45 f0	 fild	 DWORD PTR _tx$[ebp]
  000cb	89 45 f0	 mov	 DWORD PTR tv400[ebp], eax
  000ce	db 45 f0	 fild	 DWORD PTR tv400[ebp]
  000d1	d9 c1		 fld	 ST(1)
  000d3	de ca		 fmulp	 ST(2), ST(0)
  000d5	de c1		 faddp	 ST(1), ST(0)
  000d7	e8 00 00 00 00	 call	 __CIsqrt
  000dc	e8 00 00 00 00	 call	 __ftol2_sse
  000e1	8b f0		 mov	 esi, eax

; 752  : 					lpObj->VpPlayer2[n].dis = dis;

  000e3	8b 45 08	 mov	 eax, DWORD PTR tv393[ebp]
  000e6	89 30		 mov	 DWORD PTR [eax], esi

; 753  : 
; 754  : 					if ( dis < mindis )

  000e8	3b 75 fc	 cmp	 esi, DWORD PTR _mindis$[ebp]
  000eb	7d 28		 jge	 SHORT $LN13@gObjMonste@9

; 755  : 					{
; 756  : 						if(g_DoppelGanger.IsDGMonster(lpObj))	//Season 5 DoppelGanger

  000ed	53		 push	 ebx
  000ee	b9 00 00 00 00	 mov	 ecx, OFFSET ?g_DoppelGanger@@3VCDoppelGanger@@A ; g_DoppelGanger
  000f3	e8 00 00 00 00	 call	 ?IsDGMonster@CDoppelGanger@@QAE_NPAUOBJECTSTRUCT@@@Z ; CDoppelGanger::IsDGMonster
  000f8	84 c0		 test	 al, al
  000fa	74 13		 je	 SHORT $LN1@gObjMonste@9

; 757  : 						{
; 758  : 							if(rand()%2 == 0) continue;

  000fc	e8 00 00 00 00	 call	 _rand
  00101	25 01 00 00 80	 and	 eax, -2147483647	; 80000001H
  00106	79 05		 jns	 SHORT $LN21@gObjMonste@9
  00108	48		 dec	 eax
  00109	83 c8 fe	 or	 eax, -2			; fffffffeH
  0010c	40		 inc	 eax
$LN21@gObjMonste@9:
  0010d	74 06		 je	 SHORT $LN13@gObjMonste@9
$LN1@gObjMonste@9:

; 759  : 						}
; 760  : 						searchtarget = tObjNum;

  0010f	89 7d f4	 mov	 DWORD PTR _searchtarget$[ebp], edi

; 761  : 						mindis = dis;

  00112	89 75 fc	 mov	 DWORD PTR _mindis$[ebp], esi
$LN13@gObjMonste@9:

; 730  : 	int tObjNum;
; 731  : 	int count = 3;
; 732  : 	int t1 = objtype;
; 733  : 	int t2 = objtype;
; 734  : 
; 735  : 	for (n=0;n<MAX_VIEWPORT_MONSTER;n++)

  00115	83 45 08 0c	 add	 DWORD PTR tv393[ebp], 12 ; 0000000cH
  00119	ff 4d f8	 dec	 DWORD PTR tv147[ebp]
  0011c	0f 85 0e ff ff
	ff		 jne	 $LL14@gObjMonste@9

; 762  : 					}
; 763  : 				}
; 764  : 			}
; 765  : 		}
; 766  : 	}
; 767  : 
; 768  : 	return searchtarget;

  00122	8b 45 f4	 mov	 eax, DWORD PTR _searchtarget$[ebp]
  00125	5f		 pop	 edi
  00126	5e		 pop	 esi
  00127	5b		 pop	 ebx

; 769  : }

  00128	8b e5		 mov	 esp, ebp
  0012a	5d		 pop	 ebp
  0012b	c3		 ret	 0
?gObjMonsterSearchEnemy@@YAHPAUOBJECTSTRUCT@@E@Z ENDP	; gObjMonsterSearchEnemy
_TEXT	ENDS
PUBLIC	?gObjGuardSearchEnemy@@YAHPAUOBJECTSTRUCT@@@Z	; gObjGuardSearchEnemy
EXTRN	?GetPkLevel@PartyClass@@QAEDH@Z:PROC		; PartyClass::GetPkLevel
EXTRN	?gParty@@3VPartyClass@@A:BYTE			; gParty
EXTRN	?ZtConfig@@3VcZtConfigs@@A:BYTE			; ZtConfig
EXTRN	?IsMapBattleZone@GensSystem@@QAEHH@Z:PROC	; GensSystem::IsMapBattleZone
EXTRN	?gGensSystem@@3VGensSystem@@A:BYTE		; gGensSystem
EXTRN	?gGENS@@3HA:DWORD				; gGENS
; Function compile flags: /Ogtp
;	COMDAT ?gObjGuardSearchEnemy@@YAHPAUOBJECTSTRUCT@@@Z
_TEXT	SEGMENT
tv362 = -20						; size = 4
_tx$ = -20						; size = 4
_searchtarget$ = -16					; size = 4
tv206 = -12						; size = 4
_mindis$ = -8						; size = 4
tv354 = -4						; size = 4
_lpObj$ = 8						; size = 4
?gObjGuardSearchEnemy@@YAHPAUOBJECTSTRUCT@@@Z PROC	; gObjGuardSearchEnemy, COMDAT

; 772  : {

  00000	55		 push	 ebp
  00001	8b ec		 mov	 ebp, esp
  00003	83 ec 14	 sub	 esp, 20			; 00000014H

; 773  : 	int n;
; 774  : 	int tx;
; 775  : 	int ty;
; 776  : 	int dis;
; 777  : 	int mindis = lpObj->m_ViewRange;
; 778  : 	int searchtarget = -1;
; 779  : 	int tObjNum;
; 780  : 	BYTE attr;
; 781  : 
; 782  : 	if(gGENS)

  00006	83 3d 00 00 00
	00 00		 cmp	 DWORD PTR ?gGENS@@3HA, 0 ; gGENS
  0000d	56		 push	 esi
  0000e	8b 75 08	 mov	 esi, DWORD PTR _lpObj$[ebp]
  00011	0f bf 86 b4 04
	00 00		 movsx	 eax, WORD PTR [esi+1204]
  00018	89 45 f8	 mov	 DWORD PTR _mindis$[ebp], eax
  0001b	c7 45 f0 ff ff
	ff ff		 mov	 DWORD PTR _searchtarget$[ebp], -1
  00022	74 1e		 je	 SHORT $LN13@gObjGuardS

; 783  : 	{
; 784  : 		if( gGensSystem.IsMapBattleZone(lpObj->MapNumber) )

  00024	0f b6 8e 49 01
	00 00		 movzx	 ecx, BYTE PTR [esi+329]
  0002b	51		 push	 ecx
  0002c	b9 00 00 00 00	 mov	 ecx, OFFSET ?gGensSystem@@3VGensSystem@@A ; gGensSystem
  00031	e8 00 00 00 00	 call	 ?IsMapBattleZone@GensSystem@@QAEHH@Z ; GensSystem::IsMapBattleZone
  00036	85 c0		 test	 eax, eax
  00038	74 08		 je	 SHORT $LN13@gObjGuardS

; 785  : 		{
; 786  : 			return -1;

  0003a	83 c8 ff	 or	 eax, -1
  0003d	5e		 pop	 esi

; 835  : }

  0003e	8b e5		 mov	 esp, ebp
  00040	5d		 pop	 ebp
  00041	c3		 ret	 0
$LN13@gObjGuardS:

; 787  : 		}
; 788  : 	}
; 789  : 
; 790  : 	for (n=0;n<MAX_VIEWPORT_MONSTER;n++)

  00042	a1 00 00 00 00	 mov	 eax, DWORD PTR ?gObj@@3PAUOBJECTSTRUCT@@A ; gObj
  00047	81 c6 b4 08 00
	00		 add	 esi, 2228		; 000008b4H
  0004d	53		 push	 ebx
  0004e	89 75 fc	 mov	 DWORD PTR tv354[ebp], esi
  00051	c7 45 f4 4b 00
	00 00		 mov	 DWORD PTR tv206[ebp], 75 ; 0000004bH
  00058	57		 push	 edi
  00059	8d a4 24 00 00
	00 00		 npad	 7
$LL24@gObjGuardS:

; 791  : 	{
; 792  : 		tObjNum = lpObj->VpPlayer2[n].number;

  00060	0f bf 7e fa	 movsx	 edi, WORD PTR [esi-6]

; 793  : 
; 794  : 		if ( tObjNum >= 0 )

  00064	85 ff		 test	 edi, edi
  00066	0f 88 ea 00 00
	00		 js	 $LN11@gObjGuardS

; 795  : 		{
; 796  : 			BOOL bEnableAttack = FALSE; //Season 2.5 add-on

  0006c	33 db		 xor	 ebx, ebx

; 797  : 
; 798  : 			if(ZtConfig.PvP.ZtPkPartySystem && gObj[tObjNum].PartyNumber >= 0) //Season 2.5 add-on

  0006e	39 1d 38 09 00
	00		 cmp	 DWORD PTR ?ZtConfig@@3VcZtConfigs@@A+2360, ebx
  00074	74 27		 je	 SHORT $LN8@gObjGuardS
  00076	8b f7		 mov	 esi, edi
  00078	69 f6 50 2b 00
	00		 imul	 esi, 11088		; 00002b50H
  0007e	8b 8c 06 2c 04
	00 00		 mov	 ecx, DWORD PTR [esi+eax+1068]
  00085	85 c9		 test	 ecx, ecx
  00087	78 14		 js	 SHORT $LN8@gObjGuardS

; 799  : 			{
; 800  : 				if( gParty.GetPkLevel(gObj[tObjNum].PartyNumber) > 4 )

  00089	51		 push	 ecx
  0008a	b9 00 00 00 00	 mov	 ecx, OFFSET ?gParty@@3VPartyClass@@A ; gParty
  0008f	e8 00 00 00 00	 call	 ?GetPkLevel@PartyClass@@QAEDH@Z ; PartyClass::GetPkLevel
  00094	3c 04		 cmp	 al, 4

; 801  : 				{
; 802  : 					bEnableAttack = TRUE;
; 803  : 				}
; 804  : 			}

  00096	a1 00 00 00 00	 mov	 eax, DWORD PTR ?gObj@@3PAUOBJECTSTRUCT@@A ; gObj
  0009b	eb 10		 jmp	 SHORT $LN25@gObjGuardS
$LN8@gObjGuardS:

; 805  : 			else if( gObj[tObjNum].m_PK_Level > 4 ) 

  0009d	8b f7		 mov	 esi, edi
  0009f	69 f6 50 2b 00
	00		 imul	 esi, 11088		; 00002b50H
  000a5	80 bc 06 3d 01
	00 00 04	 cmp	 BYTE PTR [esi+eax+317], 4
$LN25@gObjGuardS:
  000ad	7e 05		 jle	 SHORT $LN21@gObjGuardS

; 806  : 			{
; 807  : 				bEnableAttack = TRUE;

  000af	bb 01 00 00 00	 mov	 ebx, 1
$LN21@gObjGuardS:

; 808  : 			}
; 809  : 			
; 810  : 			if ( gObj[tObjNum].Type == OBJ_USER )

  000b4	66 83 7c 06 68
	01		 cmp	 WORD PTR [esi+eax+104], 1
  000ba	0f 85 96 00 00
	00		 jne	 $LN11@gObjGuardS

; 811  : 			{
; 812  : 				if(bEnableAttack == TRUE) //Season 2.5 add-on

  000c0	83 fb 01	 cmp	 ebx, 1
  000c3	0f 85 8d 00 00
	00		 jne	 $LN11@gObjGuardS

; 813  : 				{
; 814  : 					attr = MapC[gObj[tObjNum].MapNumber].GetAttr(gObj[tObjNum].X, gObj[tObjNum].Y);
; 815  : 
; 816  : 					if ( (attr&1) != 1 )

  000c9	0f bf 94 06 46
	01 00 00	 movsx	 edx, WORD PTR [esi+eax+326]
  000d1	0f bf 8c 06 44
	01 00 00	 movsx	 ecx, WORD PTR [esi+eax+324]
  000d9	52		 push	 edx
  000da	51		 push	 ecx
  000db	0f b6 8c 06 49
	01 00 00	 movzx	 ecx, BYTE PTR [esi+eax+329]
  000e3	69 c9 48 3d 05
	00		 imul	 ecx, 343368		; 00053d48H
  000e9	81 c1 00 00 00
	00		 add	 ecx, OFFSET ?MapC@@3PAVMapClass@@A ; MapC
  000ef	e8 00 00 00 00	 call	 ?GetAttr@MapClass@@QAEEHH@Z ; MapClass::GetAttr
  000f4	84 c3		 test	 al, bl
  000f6	75 59		 jne	 SHORT $LN20@gObjGuardS

; 817  : 					{
; 818  : 						tx = lpObj->X - gObj[tObjNum].X;

  000f8	a1 00 00 00 00	 mov	 eax, DWORD PTR ?gObj@@3PAUOBJECTSTRUCT@@A ; gObj
  000fd	0f bf 94 06 44
	01 00 00	 movsx	 edx, WORD PTR [esi+eax+324]
  00105	8b 4d 08	 mov	 ecx, DWORD PTR _lpObj$[ebp]
  00108	0f bf 99 44 01
	00 00		 movsx	 ebx, WORD PTR [ecx+324]
  0010f	2b da		 sub	 ebx, edx

; 819  : 						ty = lpObj->Y - gObj[tObjNum].Y;

  00111	0f bf 94 06 46
	01 00 00	 movsx	 edx, WORD PTR [esi+eax+326]
  00119	0f bf 81 46 01
	00 00		 movsx	 eax, WORD PTR [ecx+326]
  00120	2b c2		 sub	 eax, edx

; 820  : 						dis = (int)(sqrt((double)tx * tx + ty * ty));

  00122	0f af c0	 imul	 eax, eax
  00125	89 5d ec	 mov	 DWORD PTR _tx$[ebp], ebx
  00128	db 45 ec	 fild	 DWORD PTR _tx$[ebp]
  0012b	89 45 ec	 mov	 DWORD PTR tv362[ebp], eax
  0012e	db 45 ec	 fild	 DWORD PTR tv362[ebp]
  00131	d9 c1		 fld	 ST(1)
  00133	de ca		 fmulp	 ST(2), ST(0)
  00135	de c1		 faddp	 ST(1), ST(0)
  00137	e8 00 00 00 00	 call	 __CIsqrt
  0013c	e8 00 00 00 00	 call	 __ftol2_sse

; 821  : 						lpObj->VpPlayer2[n].dis = dis;

  00141	8b 4d fc	 mov	 ecx, DWORD PTR tv354[ebp]
  00144	89 01		 mov	 DWORD PTR [ecx], eax

; 822  : 
; 823  : 						if ( dis < mindis )

  00146	3b 45 f8	 cmp	 eax, DWORD PTR _mindis$[ebp]
  00149	7d 06		 jge	 SHORT $LN20@gObjGuardS

; 824  : 						{
; 825  : 							searchtarget = tObjNum;

  0014b	89 7d f0	 mov	 DWORD PTR _searchtarget$[ebp], edi

; 826  : 							mindis = dis;

  0014e	89 45 f8	 mov	 DWORD PTR _mindis$[ebp], eax
$LN20@gObjGuardS:
  00151	a1 00 00 00 00	 mov	 eax, DWORD PTR ?gObj@@3PAUOBJECTSTRUCT@@A ; gObj
$LN11@gObjGuardS:

; 787  : 		}
; 788  : 	}
; 789  : 
; 790  : 	for (n=0;n<MAX_VIEWPORT_MONSTER;n++)

  00156	8b 75 fc	 mov	 esi, DWORD PTR tv354[ebp]
  00159	83 c6 0c	 add	 esi, 12			; 0000000cH
  0015c	ff 4d f4	 dec	 DWORD PTR tv206[ebp]
  0015f	89 75 fc	 mov	 DWORD PTR tv354[ebp], esi
  00162	0f 85 f8 fe ff
	ff		 jne	 $LL24@gObjGuardS

; 827  : 						}
; 828  : 					}
; 829  : 				}
; 830  : 			}
; 831  : 		}
; 832  : 	}
; 833  : 
; 834  : 	return searchtarget;

  00168	8b 45 f0	 mov	 eax, DWORD PTR _searchtarget$[ebp]
  0016b	5f		 pop	 edi
  0016c	5b		 pop	 ebx
  0016d	5e		 pop	 esi

; 835  : }

  0016e	8b e5		 mov	 esp, ebp
  00170	5d		 pop	 ebp
  00171	c3		 ret	 0
?gObjGuardSearchEnemy@@YAHPAUOBJECTSTRUCT@@@Z ENDP	; gObjGuardSearchEnemy
_TEXT	ENDS
PUBLIC	__real@4014000000000000
PUBLIC	__real@4039000000000000
PUBLIC	?gObjUseMonsterSpecialAbillity@@YAXPAUOBJECTSTRUCT@@@Z ; gObjUseMonsterSpecialAbillity
EXTRN	?CGMagicAttack@@YAXPAUPMSG_MAGICATTACK@@H@Z:PROC ; CGMagicAttack
;	COMDAT __real@4014000000000000
CONST	SEGMENT
__real@4014000000000000 DQ 04014000000000000r	; 5
CONST	ENDS
;	COMDAT __real@4039000000000000
CONST	SEGMENT
__real@4039000000000000 DQ 04039000000000000r	; 25
; Function compile flags: /Ogtp
CONST	ENDS
;	COMDAT ?gObjUseMonsterSpecialAbillity@@YAXPAUOBJECTSTRUCT@@@Z
_TEXT	SEGMENT
_pAttackMsg$227889 = -8					; size = 8
_lpMonsterObj$ = 8					; size = 4
?gObjUseMonsterSpecialAbillity@@YAXPAUOBJECTSTRUCT@@@Z PROC ; gObjUseMonsterSpecialAbillity, COMDAT

; 1629 : {

  00000	55		 push	 ebp
  00001	8b ec		 mov	 ebp, esp
  00003	83 ec 08	 sub	 esp, 8
  00006	56		 push	 esi

; 1630 : 	if ( lpMonsterObj->Class == 275 )

  00007	8b 75 08	 mov	 esi, DWORD PTR _lpMonsterObj$[ebp]
  0000a	b8 13 01 00 00	 mov	 eax, 275		; 00000113H
  0000f	66 39 86 b8 00
	00 00		 cmp	 WORD PTR [esi+184], ax
  00016	0f 85 86 00 00
	00		 jne	 $LN1@gObjUseMon

; 1631 : 	{
; 1632 : 		PMSG_MAGICATTACK pAttackMsg;
; 1633 : 
; 1634 : 		pAttackMsg.MagicNumberH = SET_NUMBERH(1);
; 1635 : 		pAttackMsg.MagicNumberL = SET_NUMBERL(1);
; 1636 : 
; 1637 : 		pAttackMsg.NumberH = SET_NUMBERH(lpMonsterObj->TargetNumber);
; 1638 : 		pAttackMsg.NumberL = SET_NUMBERL(lpMonsterObj->TargetNumber);
; 1639 : 		pAttackMsg.Dis = 0;
; 1640 : 
; 1641 : 		if ( (lpMonsterObj->MaxLife / 25.0f) > lpMonsterObj->Life  )

  0001c	d9 86 00 01 00
	00		 fld	 DWORD PTR [esi+256]
  00022	0f bf 8e 58 04
	00 00		 movsx	 ecx, WORD PTR [esi+1112]
  00029	dc 35 00 00 00
	00		 fdiv	 QWORD PTR __real@4039000000000000
  0002f	8a 96 58 04 00
	00		 mov	 dl, BYTE PTR [esi+1112]
  00035	32 c0		 xor	 al, al
  00037	88 45 ff	 mov	 BYTE PTR _pAttackMsg$227889[ebp+7], al
  0003a	c1 e9 08	 shr	 ecx, 8
  0003d	66 c7 45 fb 00
	01		 mov	 WORD PTR _pAttackMsg$227889[ebp+3], 256 ; 00000100H
  00043	88 4d fd	 mov	 BYTE PTR _pAttackMsg$227889[ebp+5], cl
  00046	88 55 fe	 mov	 BYTE PTR _pAttackMsg$227889[ebp+6], dl
  00049	d9 86 fc 00 00
	00		 fld	 DWORD PTR [esi+252]
  0004f	de d9		 fcompp
  00051	df e0		 fnstsw	 ax
  00053	f6 c4 05	 test	 ah, 5
  00056	7a 20		 jp	 SHORT $LN3@gObjUseMon

; 1642 : 		{
; 1643 : 			CGMagicAttack(&pAttackMsg, lpMonsterObj->m_Index);

  00058	8b 06		 mov	 eax, DWORD PTR [esi]
  0005a	50		 push	 eax
  0005b	8d 4d f8	 lea	 ecx, DWORD PTR _pAttackMsg$227889[ebp]
  0005e	51		 push	 ecx
  0005f	e8 00 00 00 00	 call	 ?CGMagicAttack@@YAXPAUPMSG_MAGICATTACK@@H@Z ; CGMagicAttack

; 1644 : 			CGMagicAttack(&pAttackMsg, lpMonsterObj->m_Index);

  00064	8b 16		 mov	 edx, DWORD PTR [esi]
  00066	52		 push	 edx
  00067	8d 45 f8	 lea	 eax, DWORD PTR _pAttackMsg$227889[ebp]
  0006a	50		 push	 eax
  0006b	e8 00 00 00 00	 call	 ?CGMagicAttack@@YAXPAUPMSG_MAGICATTACK@@H@Z ; CGMagicAttack
  00070	83 c4 10	 add	 esp, 16			; 00000010H
  00073	5e		 pop	 esi

; 1649 : 		}
; 1650 : 	}
; 1651 : }

  00074	8b e5		 mov	 esp, ebp
  00076	5d		 pop	 ebp
  00077	c3		 ret	 0
$LN3@gObjUseMon:

; 1645 : 		}
; 1646 : 		else if ( (lpMonsterObj->MaxLife / 5.0f) > lpMonsterObj->Life  )

  00078	d9 86 00 01 00
	00		 fld	 DWORD PTR [esi+256]
  0007e	dc 35 00 00 00
	00		 fdiv	 QWORD PTR __real@4014000000000000
  00084	d9 86 fc 00 00
	00		 fld	 DWORD PTR [esi+252]
  0008a	de d9		 fcompp
  0008c	df e0		 fnstsw	 ax
  0008e	f6 c4 05	 test	 ah, 5
  00091	7a 0f		 jp	 SHORT $LN1@gObjUseMon

; 1647 : 		{
; 1648 : 			CGMagicAttack(&pAttackMsg, lpMonsterObj->m_Index);

  00093	8b 0e		 mov	 ecx, DWORD PTR [esi]
  00095	51		 push	 ecx
  00096	8d 55 f8	 lea	 edx, DWORD PTR _pAttackMsg$227889[ebp]
  00099	52		 push	 edx
  0009a	e8 00 00 00 00	 call	 ?CGMagicAttack@@YAXPAUPMSG_MAGICATTACK@@H@Z ; CGMagicAttack
  0009f	83 c4 08	 add	 esp, 8
$LN1@gObjUseMon:
  000a2	5e		 pop	 esi

; 1649 : 		}
; 1650 : 	}
; 1651 : }

  000a3	8b e5		 mov	 esp, ebp
  000a5	5d		 pop	 ebp
  000a6	c3		 ret	 0
?gObjUseMonsterSpecialAbillity@@YAXPAUOBJECTSTRUCT@@@Z ENDP ; gObjUseMonsterSpecialAbillity
_TEXT	ENDS
PUBLIC	??_C@_0P@EEHIDPGB@error?9L3?5?$CFs?5?$CFd?$AA@	; `string'
PUBLIC	??_C@_0BA@OAKCBJLL@gObjMonster?4cpp?$AA@	; `string'
PUBLIC	__$ArrayPad$
PUBLIC	?gObjMonsterBeattackRecv@@YAXPAEH@Z		; gObjMonsterBeattackRecv
EXTRN	?gObjAttack@@YAHPAUOBJECTSTRUCT@@0PAVCMagicInf@@HEHHEE@Z:PROC ; gObjAttack
EXTRN	?gObjGetMagic@@YAPAVCMagicInf@@PAUOBJECTSTRUCT@@H@Z:PROC ; gObjGetMagic
EXTRN	___security_cookie:DWORD
EXTRN	@__security_check_cookie@4:PROC
;	COMDAT ??_C@_0P@EEHIDPGB@error?9L3?5?$CFs?5?$CFd?$AA@
CONST	SEGMENT
??_C@_0P@EEHIDPGB@error?9L3?5?$CFs?5?$CFd?$AA@ DB 'error-L3 %s %d', 00H ; `string'
CONST	ENDS
;	COMDAT ??_C@_0BA@OAKCBJLL@gObjMonster?4cpp?$AA@
CONST	SEGMENT
??_C@_0BA@OAKCBJLL@gObjMonster?4cpp?$AA@ DB 'gObjMonster.cpp', 00H ; `string'
; Function compile flags: /Ogtp
CONST	ENDS
;	COMDAT ?gObjMonsterBeattackRecv@@YAXPAEH@Z
_TEXT	SEGMENT
_lpMagic$ = -524					; size = 4
tv235 = -520						; size = 4
__$ArrayPad$ = -4					; size = 4
_lpRecv$ = 8						; size = 4
_aIndex$ = 12						; size = 4
?gObjMonsterBeattackRecv@@YAXPAEH@Z PROC		; gObjMonsterBeattackRecv, COMDAT

; 1655 : {

  00000	55		 push	 ebp
  00001	8b ec		 mov	 ebp, esp
  00003	81 ec 0c 02 00
	00		 sub	 esp, 524		; 0000020cH
  00009	a1 00 00 00 00	 mov	 eax, DWORD PTR ___security_cookie
  0000e	33 c5		 xor	 eax, ebp
  00010	89 45 fc	 mov	 DWORD PTR __$ArrayPad$[ebp], eax
  00013	8b 45 0c	 mov	 eax, DWORD PTR _aIndex$[ebp]
  00016	57		 push	 edi

; 1656 : 	PMSG_BEATTACK_COUNT * lpCount = (PMSG_BEATTACK_COUNT *)lpRecv;
; 1657 : 
; 1658 : 	int lOfs = sizeof(PMSG_BEATTACK_COUNT); //loc2
; 1659 : 	int tNumber; //loc3
; 1660 : 	CMagicInf * lpMagic; //loc4
; 1661 : 	PMSG_BEATTACK * lpMsg; //loc5
; 1662 : 
; 1663 : 	WORD MagicNumber = MAKE_NUMBERW(lpCount->MagicNumberH, lpCount->MagicNumberL);
; 1664 : 
; 1665 : 	lpMagic = gObjGetMagic(&gObj[aIndex], MagicNumber);

  00017	69 c0 50 2b 00
	00		 imul	 eax, 11088		; 00002b50H
  0001d	8b 7d 08	 mov	 edi, DWORD PTR _lpRecv$[ebp]
  00020	0f b6 4f 03	 movzx	 ecx, BYTE PTR [edi+3]
  00024	0f b6 57 04	 movzx	 edx, BYTE PTR [edi+4]
  00028	66 c1 e1 08	 shl	 cx, 8
  0002c	66 0b ca	 or	 cx, dx
  0002f	0f b7 c9	 movzx	 ecx, cx
  00032	89 85 f8 fd ff
	ff		 mov	 DWORD PTR tv235[ebp], eax
  00038	03 05 00 00 00
	00		 add	 eax, DWORD PTR ?gObj@@3PAUOBJECTSTRUCT@@A ; gObj
  0003e	51		 push	 ecx
  0003f	50		 push	 eax
  00040	e8 00 00 00 00	 call	 ?gObjGetMagic@@YAPAVCMagicInf@@PAUOBJECTSTRUCT@@H@Z ; gObjGetMagic
  00045	83 c4 08	 add	 esp, 8
  00048	89 85 f4 fd ff
	ff		 mov	 DWORD PTR _lpMagic$[ebp], eax

; 1666 : 
; 1667 : 	if ( lpMagic == NULL )

  0004e	85 c0		 test	 eax, eax
  00050	75 27		 jne	 SHORT $LN7@gObjMonste@10

; 1668 : 	{
; 1669 : 		LogAdd("error-L3 %s %d", __FILE__, __LINE__);

  00052	68 85 06 00 00	 push	 1669			; 00000685H
  00057	68 00 00 00 00	 push	 OFFSET ??_C@_0BA@OAKCBJLL@gObjMonster?4cpp?$AA@
  0005c	68 00 00 00 00	 push	 OFFSET ??_C@_0P@EEHIDPGB@error?9L3?5?$CFs?5?$CFd?$AA@
  00061	ff 15 00 00 00
	00		 call	 DWORD PTR ?LogAdd@@3P6AXPADZZA ; LogAdd
  00067	83 c4 0c	 add	 esp, 12			; 0000000cH
  0006a	5f		 pop	 edi

; 1689 : 	}
; 1690 : }

  0006b	8b 4d fc	 mov	 ecx, DWORD PTR __$ArrayPad$[ebp]
  0006e	33 cd		 xor	 ecx, ebp
  00070	e8 00 00 00 00	 call	 @__security_check_cookie@4
  00075	8b e5		 mov	 esp, ebp
  00077	5d		 pop	 ebp
  00078	c3		 ret	 0
$LN7@gObjMonste@10:
  00079	53		 push	 ebx
  0007a	56		 push	 esi

; 1674 : 	int pTargetNumber[128]={0};
; 1675 : 
; 1676 : 	for (int i=0;i<lpCount->Count;i++)

  0007b	0f b6 77 08	 movzx	 esi, BYTE PTR [edi+8]
  0007f	33 c9		 xor	 ecx, ecx
  00081	85 f6		 test	 esi, esi
  00083	7e 0b		 jle	 SHORT $LN4@gObjMonste@10

; 1670 : 		return;
; 1671 : 	}
; 1672 : 
; 1673 : 	int lOfs2 = lOfs;

  00085	8d 57 09	 lea	 edx, DWORD PTR [edi+9]
$LL6@gObjMonste@10:

; 1674 : 	int pTargetNumber[128]={0};
; 1675 : 
; 1676 : 	for (int i=0;i<lpCount->Count;i++)

  00088	41		 inc	 ecx

; 1677 : 	{
; 1678 : 		lpMsg = (PMSG_BEATTACK *)&lpRecv[lOfs2];
; 1679 : 		pTargetNumber[i] = MAKE_NUMBERW(lpMsg->NumberH, lpMsg->NumberL);
; 1680 : 		lOfs2+= sizeof(PMSG_BEATTACK);

  00089	83 c2 03	 add	 edx, 3
  0008c	3b ce		 cmp	 ecx, esi
  0008e	7c f8		 jl	 SHORT $LL6@gObjMonste@10
$LN4@gObjMonste@10:

; 1681 : 	}
; 1682 : 	
; 1683 : 	for (int n=0;n<lpCount->Count;n++)

  00090	33 db		 xor	 ebx, ebx
  00092	85 f6		 test	 esi, esi
  00094	7e 58		 jle	 SHORT $LN15@gObjMonste@10
  00096	8d 77 09	 lea	 esi, DWORD PTR [edi+9]
  00099	8d a4 24 00 00
	00 00		 npad	 7
$LL14@gObjMonste@10:

; 1684 : 	{
; 1685 : 		lpMsg = (PMSG_BEATTACK *)&lpRecv[lOfs];
; 1686 : 		tNumber = MAKE_NUMBERW(lpMsg->NumberH, lpMsg->NumberL);
; 1687 : 		gObjAttack(&gObj[aIndex], &gObj[tNumber], lpMagic, 1, 1, 0 ,0,0,0);

  000a0	0f b6 16	 movzx	 edx, BYTE PTR [esi]
  000a3	8b 8d f4 fd ff
	ff		 mov	 ecx, DWORD PTR _lpMagic$[ebp]
  000a9	6a 00		 push	 0
  000ab	a1 00 00 00 00	 mov	 eax, DWORD PTR ?gObj@@3PAUOBJECTSTRUCT@@A ; gObj
  000b0	6a 00		 push	 0
  000b2	6a 00		 push	 0
  000b4	6a 00		 push	 0
  000b6	6a 01		 push	 1
  000b8	6a 01		 push	 1
  000ba	51		 push	 ecx
  000bb	66 c1 e2 08	 shl	 dx, 8
  000bf	0f b7 ca	 movzx	 ecx, dx
  000c2	0f b6 56 01	 movzx	 edx, BYTE PTR [esi+1]
  000c6	0b ca		 or	 ecx, edx
  000c8	69 c9 50 2b 00
	00		 imul	 ecx, 11088		; 00002b50H
  000ce	03 c8		 add	 ecx, eax
  000d0	51		 push	 ecx
  000d1	8b 8d f8 fd ff
	ff		 mov	 ecx, DWORD PTR tv235[ebp]
  000d7	03 c8		 add	 ecx, eax
  000d9	51		 push	 ecx
  000da	e8 00 00 00 00	 call	 ?gObjAttack@@YAHPAUOBJECTSTRUCT@@0PAVCMagicInf@@HEHHEE@Z ; gObjAttack
  000df	0f b6 57 08	 movzx	 edx, BYTE PTR [edi+8]
  000e3	43		 inc	 ebx
  000e4	83 c4 24	 add	 esp, 36			; 00000024H

; 1688 : 		lOfs+= sizeof(PMSG_BEATTACK);

  000e7	83 c6 03	 add	 esi, 3
  000ea	3b da		 cmp	 ebx, edx
  000ec	7c b2		 jl	 SHORT $LL14@gObjMonste@10
$LN15@gObjMonste@10:

; 1689 : 	}
; 1690 : }

  000ee	8b 4d fc	 mov	 ecx, DWORD PTR __$ArrayPad$[ebp]
  000f1	5e		 pop	 esi
  000f2	5b		 pop	 ebx
  000f3	33 cd		 xor	 ecx, ebp
  000f5	5f		 pop	 edi
  000f6	e8 00 00 00 00	 call	 @__security_check_cookie@4
  000fb	8b e5		 mov	 esp, ebp
  000fd	5d		 pop	 ebp
  000fe	c3		 ret	 0
?gObjMonsterBeattackRecv@@YAXPAEH@Z ENDP		; gObjMonsterBeattackRecv
_TEXT	ENDS
PUBLIC	__$ArrayPad$
PUBLIC	?PathFindMoveMsgSend@@YAHPAUOBJECTSTRUCT@@@Z	; PathFindMoveMsgSend
EXTRN	?PMoveProc@@YAXPAUPMSG_MOVE@@H@Z:PROC		; PMoveProc
EXTRN	?SetStandAttr@MapClass@@QAEXHH@Z:PROC		; MapClass::SetStandAttr
EXTRN	?ClearStandAttr@MapClass@@QAEXHH@Z:PROC		; MapClass::ClearStandAttr
EXTRN	?PathFinding2@MapClass@@QAE_NHHHHPAUPATH_t@@@Z:PROC ; MapClass::PathFinding2
EXTRN	?PathFinding3@MapClass@@QAE_NHHHHPAUPATH_t@@@Z:PROC ; MapClass::PathFinding3
; Function compile flags: /Ogtp
;	COMDAT ?PathFindMoveMsgSend@@YAHPAUOBJECTSTRUCT@@@Z
_TEXT	SEGMENT
tv505 = -180						; size = 4
tv584 = -176						; size = 4
_sy$228125 = -172					; size = 4
tv561 = -168						; size = 4
_sx$228124 = -164					; size = 4
_pos$228126 = -157					; size = 1
_path$ = -156						; size = 128
_pMove$ = -28						; size = 13
_bPath$ = -12						; size = 8
__$ArrayPad$ = -4					; size = 4
_lpObj$ = 8						; size = 4
?PathFindMoveMsgSend@@YAHPAUOBJECTSTRUCT@@@Z PROC	; PathFindMoveMsgSend, COMDAT

; 1969 : {

  00000	55		 push	 ebp
  00001	8b ec		 mov	 ebp, esp
  00003	81 ec b4 00 00
	00		 sub	 esp, 180		; 000000b4H
  00009	a1 00 00 00 00	 mov	 eax, DWORD PTR ___security_cookie
  0000e	33 c5		 xor	 eax, ebp
  00010	89 45 fc	 mov	 DWORD PTR __$ArrayPad$[ebp], eax
  00013	56		 push	 esi
  00014	8b 75 08	 mov	 esi, DWORD PTR _lpObj$[ebp]

; 1970 : 	if ( gObjSearchActiveEffect(lpObj, AT_ICE_ARROW) == TRUE || gObjSearchActiveEffect(lpObj, AT_STUN) == TRUE ) //season3 changed

  00017	6a 39		 push	 57			; 00000039H
  00019	56		 push	 esi
  0001a	e8 00 00 00 00	 call	 ?gObjSearchActiveEffect@@YAEPAUOBJECTSTRUCT@@H@Z ; gObjSearchActiveEffect
  0001f	83 c4 08	 add	 esp, 8
  00022	3c 01		 cmp	 al, 1
  00024	0f 84 f1 02 00
	00		 je	 $LN11@PathFindMo
  0002a	6a 3d		 push	 61			; 0000003dH
  0002c	56		 push	 esi
  0002d	e8 00 00 00 00	 call	 ?gObjSearchActiveEffect@@YAEPAUOBJECTSTRUCT@@H@Z ; gObjSearchActiveEffect
  00032	83 c4 08	 add	 esp, 8
  00035	3c 01		 cmp	 al, 1
  00037	0f 84 de 02 00
	00		 je	 $LN11@PathFindMo

; 1971 : 	{
; 1972 : 		return FALSE;
; 1973 : 	}
; 1974 : 
; 1975 : 	if (gObjSearchActiveEffect(lpObj, AT_SLEEP) == TRUE) //season3 add-on

  0003d	6a 48		 push	 72			; 00000048H
  0003f	56		 push	 esi
  00040	e8 00 00 00 00	 call	 ?gObjSearchActiveEffect@@YAEPAUOBJECTSTRUCT@@H@Z ; gObjSearchActiveEffect
  00045	83 c4 08	 add	 esp, 8
  00048	3c 01		 cmp	 al, 1

; 1976 : 	{
; 1977 : 		return FALSE;

  0004a	0f 84 cb 02 00
	00		 je	 $LN11@PathFindMo

; 1978 : 	}
; 1979 : 
; 1980 : 	PATH_t path;
; 1981 : 	PMSG_MOVE pMove;
; 1982 : 	BYTE bPath[8];
; 1983 : 	
; 1984 : 	pMove.h.c = 0xC1;
; 1985 : 	pMove.h.headcode = PROTOCOL_MOVE;
; 1986 : 	pMove.h.size = sizeof(pMove);
; 1987 : 	pMove.X = lpObj->X;
; 1988 : 	pMove.Y = lpObj->Y;
; 1989 : 
; 1990 : 	BOOL bPathFound = FALSE;
; 1991 : 
; 1992 : 	if ( lpObj->Type == OBJ_MONSTER && lpObj->m_bIsInMonsterHerd != FALSE )

  00050	66 83 7e 68 02	 cmp	 WORD PTR [esi+104], 2
  00055	8a 86 44 01 00
	00		 mov	 al, BYTE PTR [esi+324]
  0005b	8a 8e 46 01 00
	00		 mov	 cl, BYTE PTR [esi+326]
  00061	c6 45 e4 c1	 mov	 BYTE PTR _pMove$[ebp], 193 ; 000000c1H
  00065	66 c7 45 e5 0d
	d4		 mov	 WORD PTR _pMove$[ebp+1], 54285 ; 0000d40dH
  0006b	88 45 e7	 mov	 BYTE PTR _pMove$[ebp+3], al
  0006e	88 4d e8	 mov	 BYTE PTR _pMove$[ebp+4], cl
  00071	75 4a		 jne	 SHORT $LN17@PathFindMo
  00073	83 be e8 10 00
	00 00		 cmp	 DWORD PTR [esi+4328], 0
  0007a	74 41		 je	 SHORT $LN17@PathFindMo

; 1993 : 	{
; 1994 : 		bPathFound = MapC[lpObj->MapNumber].PathFinding3(lpObj->X, lpObj->Y, lpObj->MTX, lpObj->MTY, &path);

  0007c	0f bf 86 82 01
	00 00		 movsx	 eax, WORD PTR [esi+386]
  00083	0f bf 8e 80 01
	00 00		 movsx	 ecx, WORD PTR [esi+384]
  0008a	8d 95 64 ff ff
	ff		 lea	 edx, DWORD PTR _path$[ebp]
  00090	52		 push	 edx
  00091	0f bf 96 46 01
	00 00		 movsx	 edx, WORD PTR [esi+326]
  00098	50		 push	 eax
  00099	0f bf 86 44 01
	00 00		 movsx	 eax, WORD PTR [esi+324]
  000a0	51		 push	 ecx
  000a1	0f b6 8e 49 01
	00 00		 movzx	 ecx, BYTE PTR [esi+329]
  000a8	69 c9 48 3d 05
	00		 imul	 ecx, 343368		; 00053d48H
  000ae	52		 push	 edx
  000af	50		 push	 eax
  000b0	81 c1 00 00 00
	00		 add	 ecx, OFFSET ?MapC@@3PAVMapClass@@A ; MapC
  000b6	e8 00 00 00 00	 call	 ?PathFinding3@MapClass@@QAE_NHHHHPAUPATH_t@@@Z ; MapClass::PathFinding3

; 1995 : 	}
; 1996 : 	else

  000bb	eb 3f		 jmp	 SHORT $LN21@PathFindMo
$LN17@PathFindMo:

; 1997 : 	{
; 1998 : 		bPathFound = MapC[lpObj->MapNumber].PathFinding2(lpObj->X, lpObj->Y, lpObj->MTX, lpObj->MTY, &path);

  000bd	0f bf 96 82 01
	00 00		 movsx	 edx, WORD PTR [esi+386]
  000c4	0f bf 86 80 01
	00 00		 movsx	 eax, WORD PTR [esi+384]
  000cb	8d 8d 64 ff ff
	ff		 lea	 ecx, DWORD PTR _path$[ebp]
  000d1	51		 push	 ecx
  000d2	0f bf 8e 46 01
	00 00		 movsx	 ecx, WORD PTR [esi+326]
  000d9	52		 push	 edx
  000da	0f bf 96 44 01
	00 00		 movsx	 edx, WORD PTR [esi+324]
  000e1	50		 push	 eax
  000e2	51		 push	 ecx
  000e3	0f b6 8e 49 01
	00 00		 movzx	 ecx, BYTE PTR [esi+329]
  000ea	69 c9 48 3d 05
	00		 imul	 ecx, 343368		; 00053d48H
  000f0	52		 push	 edx
  000f1	81 c1 00 00 00
	00		 add	 ecx, OFFSET ?MapC@@3PAVMapClass@@A ; MapC
  000f7	e8 00 00 00 00	 call	 ?PathFinding2@MapClass@@QAE_NHHHHPAUPATH_t@@@Z ; MapClass::PathFinding2
$LN21@PathFindMo:
  000fc	0f b6 c0	 movzx	 eax, al

; 1999 : 	}
; 2000 : 
; 2001 : 	if ( bPathFound )

  000ff	85 c0		 test	 eax, eax
  00101	0f 84 14 02 00
	00		 je	 $LN11@PathFindMo

; 2008 : 
; 2009 : 		memset(bPath, 0, sizeof(bPath));

  00107	33 c0		 xor	 eax, eax
  00109	53		 push	 ebx

; 2010 : 
; 2011 : 		bPath[0] = (lpObj->Dir<<4) + ((path.PathNum-1)&0x0F);

  0010a	8a 9d 64 ff ff
	ff		 mov	 bl, BYTE PTR _path$[ebp]
  00110	89 45 f4	 mov	 DWORD PTR _bPath$[ebp], eax
  00113	89 45 f8	 mov	 DWORD PTR _bPath$[ebp+4], eax
  00116	8a 86 48 01 00
	00		 mov	 al, BYTE PTR [esi+328]
  0011c	fe cb		 dec	 bl
  0011e	8a c8		 mov	 cl, al
  00120	c0 e1 04	 shl	 cl, 4
  00123	80 e3 0f	 and	 bl, 15			; 0000000fH
  00126	02 d9		 add	 bl, cl

; 2012 : 
; 2013 : 		sx = lpObj->X;
; 2014 : 		sy = lpObj->Y;
; 2015 : 		lpObj->PathX[0] = lpObj->X;
; 2016 : 		lpObj->PathY[0] = lpObj->Y;
; 2017 : 		lpObj->PathDir[0] = lpObj->Dir;
; 2018 : 
; 2019 : 		for (int n=1;n<path.PathNum;n++)

  00128	83 bd 64 ff ff
	ff 01		 cmp	 DWORD PTR _path$[ebp], 1
  0012f	0f b7 8e 44 01
	00 00		 movzx	 ecx, WORD PTR [esi+324]
  00136	0f bf d1	 movsx	 edx, cx
  00139	89 95 5c ff ff
	ff		 mov	 DWORD PTR _sx$228124[ebp], edx
  0013f	0f b7 96 46 01
	00 00		 movzx	 edx, WORD PTR [esi+326]
  00146	57		 push	 edi
  00147	0f bf fa	 movsx	 edi, dx
  0014a	c6 85 63 ff ff
	ff 00		 mov	 BYTE PTR _pos$228126[ebp], 0
  00151	88 5d f4	 mov	 BYTE PTR _bPath$[ebp], bl
  00154	89 bd 54 ff ff
	ff		 mov	 DWORD PTR _sy$228125[ebp], edi
  0015a	66 89 8e ac 01
	00 00		 mov	 WORD PTR [esi+428], cx
  00161	66 89 96 ca 01
	00 00		 mov	 WORD PTR [esi+458], dx
  00168	88 86 e8 01 00
	00		 mov	 BYTE PTR [esi+488], al
  0016e	0f 8e d9 00 00
	00		 jle	 $LN19@PathFindMo

; 2002 : 	{
; 2003 : 		int tx;
; 2004 : 		int ty;
; 2005 : 		int sx;
; 2006 : 		int sy;
; 2007 : 		BYTE pos = 0;

  00174	8d 45 a8	 lea	 eax, DWORD PTR _path$[ebp+68]
  00177	8d 8e cc 01 00
	00		 lea	 ecx, DWORD PTR [esi+460]
  0017d	c7 85 4c ff ff
	ff 02 00 00 00	 mov	 DWORD PTR tv505[ebp], 2
  00187	89 85 58 ff ff
	ff		 mov	 DWORD PTR tv561[ebp], eax
  0018d	89 8d 50 ff ff
	ff		 mov	 DWORD PTR tv584[ebp], ecx
  00193	eb 06		 jmp	 SHORT $LN6@PathFindMo
$LL18@PathFindMo:
  00195	8b 85 58 ff ff
	ff		 mov	 eax, DWORD PTR tv561[ebp]
$LN6@PathFindMo:

; 2020 : 		{
; 2021 : 			tx = path.PathX[n];
; 2022 : 			ty = path.PathY[n];

  0019b	8b 38		 mov	 edi, DWORD PTR [eax]
  0019d	8b 58 c4	 mov	 ebx, DWORD PTR [eax-60]

; 2023 : 			pos = GetPathPacketDirPos(tx-sx, ty-sy);

  001a0	8b d7		 mov	 edx, edi
  001a2	2b 95 54 ff ff
	ff		 sub	 edx, DWORD PTR _sy$228125[ebp]
  001a8	8b c3		 mov	 eax, ebx
  001aa	2b 85 5c ff ff
	ff		 sub	 eax, DWORD PTR _sx$228124[ebp]
  001b0	52		 push	 edx
  001b1	50		 push	 eax
  001b2	e8 00 00 00 00	 call	 ?GetPathPacketDirPos@@YAEHH@Z ; GetPathPacketDirPos

; 2024 : 			lpObj->PathX[n] = tx;

  001b7	8b 8d 50 ff ff
	ff		 mov	 ecx, DWORD PTR tv584[ebp]
  001bd	66 89 59 e2	 mov	 WORD PTR [ecx-30], bx

; 2025 : 			lpObj->PathY[n] = ty;

  001c1	66 89 39	 mov	 WORD PTR [ecx], di

; 2026 : 			lpObj->PathDir[n] = pos;

  001c4	8b 8d 4c ff ff
	ff		 mov	 ecx, DWORD PTR tv505[ebp]

; 2027 : 			sx = tx;
; 2028 : 			sy = ty;
; 2029 : 
; 2030 : 			if ( (n%2)==1 )

  001ca	8d 51 ff	 lea	 edx, DWORD PTR [ecx-1]
  001cd	83 c4 08	 add	 esp, 8
  001d0	81 e2 01 00 00
	80		 and	 edx, -2147483647	; 80000001H
  001d6	88 85 63 ff ff
	ff		 mov	 BYTE PTR _pos$228126[ebp], al
  001dc	88 84 0e e7 01
	00 00		 mov	 BYTE PTR [esi+ecx+487], al
  001e3	89 9d 5c ff ff
	ff		 mov	 DWORD PTR _sx$228124[ebp], ebx
  001e9	89 bd 54 ff ff
	ff		 mov	 DWORD PTR _sy$228125[ebp], edi
  001ef	79 05		 jns	 SHORT $LN20@PathFindMo
  001f1	4a		 dec	 edx
  001f2	83 ca fe	 or	 edx, -2			; fffffffeH
  001f5	42		 inc	 edx
$LN20@PathFindMo:
  001f6	83 fa 01	 cmp	 edx, 1
  001f9	75 12		 jne	 SHORT $LN3@PathFindMo

; 2031 : 			{
; 2032 : 				bPath[(n+1)/2] = (pos<<4);

  001fb	8a d8		 mov	 bl, al
  001fd	8b c1		 mov	 eax, ecx
  001ff	99		 cdq
  00200	c0 e3 04	 shl	 bl, 4
  00203	2b c2		 sub	 eax, edx
  00205	d1 f8		 sar	 eax, 1
  00207	88 5c 05 f4	 mov	 BYTE PTR _bPath$[ebp+eax], bl

; 2033 : 			}
; 2034 : 			else

  0020b	eb 15		 jmp	 SHORT $LN5@PathFindMo
$LN3@PathFindMo:

; 2035 : 			{
; 2036 : 				bPath[(n+1)/2] |= pos;

  0020d	8b c1		 mov	 eax, ecx
  0020f	99		 cdq
  00210	2b c2		 sub	 eax, edx
  00212	8a 95 63 ff ff
	ff		 mov	 dl, BYTE PTR _pos$228126[ebp]
  00218	d1 f8		 sar	 eax, 1
  0021a	08 54 05 f4	 or	 BYTE PTR _bPath$[ebp+eax], dl
  0021e	8d 44 05 f4	 lea	 eax, DWORD PTR _bPath$[ebp+eax]
$LN5@PathFindMo:

; 2012 : 
; 2013 : 		sx = lpObj->X;
; 2014 : 		sy = lpObj->Y;
; 2015 : 		lpObj->PathX[0] = lpObj->X;
; 2016 : 		lpObj->PathY[0] = lpObj->Y;
; 2017 : 		lpObj->PathDir[0] = lpObj->Dir;
; 2018 : 
; 2019 : 		for (int n=1;n<path.PathNum;n++)

  00222	83 85 50 ff ff
	ff 02		 add	 DWORD PTR tv584[ebp], 2
  00229	83 85 58 ff ff
	ff 04		 add	 DWORD PTR tv561[ebp], 4
  00230	41		 inc	 ecx
  00231	89 8d 4c ff ff
	ff		 mov	 DWORD PTR tv505[ebp], ecx
  00237	49		 dec	 ecx
  00238	3b 8d 64 ff ff
	ff		 cmp	 ecx, DWORD PTR _path$[ebp]
  0023e	0f 8c 51 ff ff
	ff		 jl	 $LL18@PathFindMo
  00244	8a 5d f4	 mov	 bl, BYTE PTR _bPath$[ebp]
  00247	8b bd 54 ff ff
	ff		 mov	 edi, DWORD PTR _sy$228125[ebp]
$LN19@PathFindMo:

; 2037 : 			}
; 2038 : 		}
; 2039 : 
; 2040 : 		lpObj->Dir = bPath[0] >> 4;
; 2041 : 		lpObj->PathCount = bPath[0] & 0x0F;

  0024d	0f b6 cb	 movzx	 ecx, bl
  00250	8a c3		 mov	 al, bl
  00252	c0 e8 04	 shr	 al, 4
  00255	83 e1 0f	 and	 ecx, 15			; 0000000fH
  00258	88 86 48 01 00
	00		 mov	 BYTE PTR [esi+328], al
  0025e	89 8e 84 01 00
	00		 mov	 DWORD PTR [esi+388], ecx

; 2042 : 		lpObj->PathCur = 1;

  00264	c7 86 88 01 00
	00 01 00 00 00	 mov	 DWORD PTR [esi+392], 1

; 2043 : 		lpObj->PathTime = GetTickCount();

  0026e	ff 15 00 00 00
	00		 call	 DWORD PTR __imp__GetTickCount@0
  00274	89 86 f8 01 00
	00		 mov	 DWORD PTR [esi+504], eax

; 2044 : 		bPath[0] &= 0x0F;
; 2045 : 		bPath[0] |= pos<<4;

  0027a	8a 85 63 ff ff
	ff		 mov	 al, BYTE PTR _pos$228126[ebp]
  00280	c0 e0 04	 shl	 al, 4
  00283	80 e3 0f	 and	 bl, 15			; 0000000fH
  00286	0a d8		 or	 bl, al

; 2046 : 		memcpy(pMove.Path, bPath, sizeof(pMove.Path));
; 2047 : 
; 2048 : 		if ( lpObj->PathCount > 0 )

  00288	83 be 84 01 00
	00 00		 cmp	 DWORD PTR [esi+388], 0
  0028f	8b 45 f8	 mov	 eax, DWORD PTR _bPath$[ebp+4]
  00292	88 5d f4	 mov	 BYTE PTR _bPath$[ebp], bl
  00295	8b 55 f4	 mov	 edx, DWORD PTR _bPath$[ebp]
  00298	89 55 e9	 mov	 DWORD PTR _pMove$[ebp+5], edx
  0029b	89 45 ed	 mov	 DWORD PTR _pMove$[ebp+9], eax
  0029e	7e 56		 jle	 SHORT $LN1@PathFindMo

; 2049 : 		{
; 2050 : 			MapC[lpObj->MapNumber].ClearStandAttr(lpObj->m_OldX, lpObj->m_OldY);

  002a0	0f bf 8e 7a 01
	00 00		 movsx	 ecx, WORD PTR [esi+378]
  002a7	0f bf 96 78 01
	00 00		 movsx	 edx, WORD PTR [esi+376]
  002ae	51		 push	 ecx
  002af	0f b6 8e 49 01
	00 00		 movzx	 ecx, BYTE PTR [esi+329]
  002b6	69 c9 48 3d 05
	00		 imul	 ecx, 343368		; 00053d48H
  002bc	52		 push	 edx
  002bd	81 c1 00 00 00
	00		 add	 ecx, OFFSET ?MapC@@3PAVMapClass@@A ; MapC
  002c3	e8 00 00 00 00	 call	 ?ClearStandAttr@MapClass@@QAEXHH@Z ; MapClass::ClearStandAttr

; 2051 : 			MapC[lpObj->MapNumber].SetStandAttr(sx, sy);

  002c8	0f b6 8e 49 01
	00 00		 movzx	 ecx, BYTE PTR [esi+329]
  002cf	8b 9d 5c ff ff
	ff		 mov	 ebx, DWORD PTR _sx$228124[ebp]
  002d5	69 c9 48 3d 05
	00		 imul	 ecx, 343368		; 00053d48H
  002db	57		 push	 edi
  002dc	53		 push	 ebx
  002dd	81 c1 00 00 00
	00		 add	 ecx, OFFSET ?MapC@@3PAVMapClass@@A ; MapC
  002e3	e8 00 00 00 00	 call	 ?SetStandAttr@MapClass@@QAEXHH@Z ; MapClass::SetStandAttr

; 2052 : 			lpObj->m_OldX = sx;

  002e8	66 89 9e 78 01
	00 00		 mov	 WORD PTR [esi+376], bx

; 2053 : 			lpObj->m_OldY = sy;

  002ef	66 89 be 7a 01
	00 00		 mov	 WORD PTR [esi+378], di
$LN1@PathFindMo:

; 2054 : 		}
; 2055 : 
; 2056 : 		PMoveProc(&pMove, lpObj->m_Index);

  002f6	8b 06		 mov	 eax, DWORD PTR [esi]
  002f8	50		 push	 eax
  002f9	8d 4d e4	 lea	 ecx, DWORD PTR _pMove$[ebp]
  002fc	51		 push	 ecx
  002fd	e8 00 00 00 00	 call	 ?PMoveProc@@YAXPAUPMSG_MOVE@@H@Z ; PMoveProc
  00302	83 c4 08	 add	 esp, 8
  00305	5f		 pop	 edi
  00306	5b		 pop	 ebx

; 2057 : 
; 2058 : 		return TRUE;

  00307	b8 01 00 00 00	 mov	 eax, 1
  0030c	5e		 pop	 esi

; 2059 : 	}
; 2060 : 
; 2061 : 	return FALSE;
; 2062 : }

  0030d	8b 4d fc	 mov	 ecx, DWORD PTR __$ArrayPad$[ebp]
  00310	33 cd		 xor	 ecx, ebp
  00312	e8 00 00 00 00	 call	 @__security_check_cookie@4
  00317	8b e5		 mov	 esp, ebp
  00319	5d		 pop	 ebp
  0031a	c3		 ret	 0
$LN11@PathFindMo:
  0031b	8b 4d fc	 mov	 ecx, DWORD PTR __$ArrayPad$[ebp]
  0031e	33 cd		 xor	 ecx, ebp
  00320	33 c0		 xor	 eax, eax
  00322	5e		 pop	 esi
  00323	e8 00 00 00 00	 call	 @__security_check_cookie@4
  00328	8b e5		 mov	 esp, ebp
  0032a	5d		 pop	 ebp
  0032b	c3		 ret	 0
?PathFindMoveMsgSend@@YAHPAUOBJECTSTRUCT@@@Z ENDP	; PathFindMoveMsgSend
_TEXT	ENDS
PUBLIC	?gObjMonsterMoveAction@@YAXPAUOBJECTSTRUCT@@@Z	; gObjMonsterMoveAction
EXTRN	__except_handler4:PROC
;	COMDAT xdata$x
xdata$x	SEGMENT
__sehtable$?gObjMonsterMoveAction@@YAXPAUOBJECTSTRUCT@@@Z DD 0fffffffeH
	DD	00H
	DD	0ffffffc8H
	DD	00H
	DD	0fffffffeH
	DD	FLAT:$LN16@gObjMonste@11
	DD	FLAT:$LN17@gObjMonste@11
; Function compile flags: /Ogtp
xdata$x	ENDS
;	COMDAT ?gObjMonsterMoveAction@@YAXPAUOBJECTSTRUCT@@@Z
_TEXT	SEGMENT
_searchc$ = -40						; size = 4
_mchk$228149 = -36					; size = 4
_maxmoverange$ = -32					; size = 4
_tpy$ = -26						; size = 1
_tpx$ = -25						; size = 1
__$SEHRec$ = -24					; size = 24
_lpObj$ = 8						; size = 4
?gObjMonsterMoveAction@@YAXPAUOBJECTSTRUCT@@@Z PROC	; gObjMonsterMoveAction, COMDAT

; 2066 : {

  00000	55		 push	 ebp
  00001	8b ec		 mov	 ebp, esp
  00003	6a fe		 push	 -2			; fffffffeH
  00005	68 00 00 00 00	 push	 OFFSET __sehtable$?gObjMonsterMoveAction@@YAXPAUOBJECTSTRUCT@@@Z
  0000a	68 00 00 00 00	 push	 OFFSET __except_handler4
  0000f	64 a1 00 00 00
	00		 mov	 eax, DWORD PTR fs:0
  00015	50		 push	 eax
  00016	83 ec 18	 sub	 esp, 24			; 00000018H
  00019	53		 push	 ebx
  0001a	56		 push	 esi
  0001b	57		 push	 edi
  0001c	a1 00 00 00 00	 mov	 eax, DWORD PTR ___security_cookie
  00021	31 45 f8	 xor	 DWORD PTR __$SEHRec$[ebp+16], eax
  00024	33 c5		 xor	 eax, ebp
  00026	50		 push	 eax
  00027	8d 45 f0	 lea	 eax, DWORD PTR __$SEHRec$[ebp+8]
  0002a	64 a3 00 00 00
	00		 mov	 DWORD PTR fs:0, eax
  00030	89 65 e8	 mov	 DWORD PTR __$SEHRec$[ebp], esp

; 2067 : 	if ( g_DoppelGanger.IsDGMonster(lpObj) )	//Season 5 DoppelGanger

  00033	8b 75 08	 mov	 esi, DWORD PTR _lpObj$[ebp]
  00036	56		 push	 esi
  00037	b9 00 00 00 00	 mov	 ecx, OFFSET ?g_DoppelGanger@@3VCDoppelGanger@@A ; g_DoppelGanger
  0003c	e8 00 00 00 00	 call	 ?IsDGMonster@CDoppelGanger@@QAE_NPAUOBJECTSTRUCT@@@Z ; CDoppelGanger::IsDGMonster
  00041	84 c0		 test	 al, al
  00043	74 24		 je	 SHORT $LN12@gObjMonste@11

; 2068 : 	{
; 2069 : 		lpObj->TargetNumber = -1;

  00045	83 c8 ff	 or	 eax, -1
  00048	66 89 86 58 04
	00 00		 mov	 WORD PTR [esi+1112], ax

; 2070 : 		lpObj->m_ActState.Attack = 0;
; 2071 : 		lpObj->NextActionTime = 500;
; 2072 : 		lpObj->m_ActState.Emotion = 0;

  0004f	8b 8e 18 02 00
	00		 mov	 ecx, DWORD PTR [esi+536]
  00055	81 e1 0d ff ff
	ff		 and	 ecx, -243		; ffffff0dH

; 2073 : 		lpObj->m_ActState.Move = 1;

  0005b	83 c9 04	 or	 ecx, 4
  0005e	89 8e 18 02 00
	00		 mov	 DWORD PTR [esi+536], ecx

; 2074 : 		return;

  00064	e9 a8 01 00 00	 jmp	 $LN24@gObjMonste@11
$LN12@gObjMonste@11:

; 2075 : 	}
; 2076 : 
; 2077 : 	if ( gObjSearchActiveEffect(lpObj, AT_ICE_ARROW) == TRUE || gObjSearchActiveEffect(lpObj, AT_STUN) == TRUE ) //season3 changed

  00069	6a 39		 push	 57			; 00000039H
  0006b	56		 push	 esi
  0006c	e8 00 00 00 00	 call	 ?gObjSearchActiveEffect@@YAEPAUOBJECTSTRUCT@@H@Z ; gObjSearchActiveEffect
  00071	83 c4 08	 add	 esp, 8
  00074	3c 01		 cmp	 al, 1
  00076	0f 84 9f 01 00
	00		 je	 $LN10@gObjMonste@11
  0007c	6a 3d		 push	 61			; 0000003dH
  0007e	56		 push	 esi
  0007f	e8 00 00 00 00	 call	 ?gObjSearchActiveEffect@@YAEPAUOBJECTSTRUCT@@H@Z ; gObjSearchActiveEffect
  00084	83 c4 08	 add	 esp, 8
  00087	3c 01		 cmp	 al, 1
  00089	0f 84 8c 01 00
	00		 je	 $LN10@gObjMonste@11

; 2078 : 	{
; 2079 : 		return;
; 2080 : 	}
; 2081 : 
; 2082 : 	if (gObjSearchActiveEffect(lpObj, AT_SLEEP) == TRUE) //season3 add-on

  0008f	6a 48		 push	 72			; 00000048H
  00091	56		 push	 esi
  00092	e8 00 00 00 00	 call	 ?gObjSearchActiveEffect@@YAEPAUOBJECTSTRUCT@@H@Z ; gObjSearchActiveEffect
  00097	83 c4 08	 add	 esp, 8
  0009a	3c 01		 cmp	 al, 1
  0009c	0f 84 79 01 00
	00		 je	 $LN10@gObjMonste@11

; 2083 : 	{
; 2084 : 		return;
; 2085 : 	}
; 2086 : 
; 2087 : 	int maxmoverange = lpObj->m_MoveRange*2+1;

  000a2	0f bf 96 ae 04
	00 00		 movsx	 edx, WORD PTR [esi+1198]
  000a9	8d 44 12 01	 lea	 eax, DWORD PTR [edx+edx+1]
  000ad	89 45 e0	 mov	 DWORD PTR _maxmoverange$[ebp], eax

; 2088 : 	int searchc=10;

  000b0	b8 0a 00 00 00	 mov	 eax, 10			; 0000000aH

; 2089 : 	lpObj->NextActionTime = 1000;

  000b5	c7 86 bc 03 00
	00 e8 03 00 00	 mov	 DWORD PTR [esi+956], 1000 ; 000003e8H
  000bf	eb 03		 jmp	 SHORT $LN8@gObjMonste@11
$LL21@gObjMonste@11:
  000c1	8b 45 d8	 mov	 eax, DWORD PTR _searchc$[ebp]
$LN8@gObjMonste@11:

; 2090 : 	BYTE tpx;
; 2091 : 	BYTE tpy;
; 2092 : 
; 2093 : 	while ( searchc-- != 0 )

  000c4	8b c8		 mov	 ecx, eax
  000c6	48		 dec	 eax
  000c7	89 45 d8	 mov	 DWORD PTR _searchc$[ebp], eax
  000ca	85 c9		 test	 ecx, ecx
  000cc	0f 84 49 01 00
	00		 je	 $LN10@gObjMonste@11

; 2094 : 	{
; 2095 : 		__try

  000d2	c7 45 fc 00 00
	00 00		 mov	 DWORD PTR __$SEHRec$[ebp+20], 0

; 2096 : 		{
; 2097 : 			tpx = (lpObj->X - lpObj->m_MoveRange) + (rand()%maxmoverange);

  000d9	e8 00 00 00 00	 call	 _rand
  000de	8b 4d e0	 mov	 ecx, DWORD PTR _maxmoverange$[ebp]
  000e1	99		 cdq
  000e2	f7 f9		 idiv	 ecx
  000e4	0f bf 86 44 01
	00 00		 movsx	 eax, WORD PTR [esi+324]
  000eb	03 d0		 add	 edx, eax
  000ed	0f bf 8e ae 04
	00 00		 movsx	 ecx, WORD PTR [esi+1198]
  000f4	2b d1		 sub	 edx, ecx
  000f6	88 55 e7	 mov	 BYTE PTR _tpx$[ebp], dl

; 2098 : 			tpy = (lpObj->Y - lpObj->m_MoveRange) + (rand()%maxmoverange);

  000f9	e8 00 00 00 00	 call	 _rand
  000fe	8b 4d e0	 mov	 ecx, DWORD PTR _maxmoverange$[ebp]
  00101	99		 cdq
  00102	f7 f9		 idiv	 ecx
  00104	0f bf 86 46 01
	00 00		 movsx	 eax, WORD PTR [esi+326]
  0010b	03 d0		 add	 edx, eax
  0010d	0f bf 8e ae 04
	00 00		 movsx	 ecx, WORD PTR [esi+1198]
  00114	2b d1		 sub	 edx, ecx
  00116	88 55 e6	 mov	 BYTE PTR _tpy$[ebp], dl

; 2099 : 		}

  00119	c7 45 fc fe ff
	ff ff		 mov	 DWORD PTR __$SEHRec$[ebp+20], -2 ; fffffffeH
  00120	eb 16		 jmp	 SHORT $LN19@gObjMonste@11
$LN16@gObjMonste@11:
$LN25@gObjMonste@11:

; 2100 : 		__except(maxmoverange=1, 1)

  00122	b8 01 00 00 00	 mov	 eax, 1
  00127	89 45 e0	 mov	 DWORD PTR _maxmoverange$[ebp], eax
$LN23@gObjMonste@11:
$LN18@gObjMonste@11:
  0012a	c3		 ret	 0
$LN17@gObjMonste@11:
  0012b	8b 65 e8	 mov	 esp, DWORD PTR __$SEHRec$[ebp]

; 2101 : 		{
; 2102 : 
; 2103 : 		}

  0012e	c7 45 fc fe ff
	ff ff		 mov	 DWORD PTR __$SEHRec$[ebp+20], -2 ; fffffffeH
  00135	8b 75 08	 mov	 esi, DWORD PTR _lpObj$[ebp]
$LN19@gObjMonste@11:

; 2104 : 
; 2105 : 		int mchk = gObjMonsterMoveCheck(lpObj, tpx, tpy);

  00138	0f b6 7d e6	 movzx	 edi, BYTE PTR _tpy$[ebp]
  0013c	0f b6 5d e7	 movzx	 ebx, BYTE PTR _tpx$[ebp]
  00140	57		 push	 edi
  00141	53		 push	 ebx
  00142	56		 push	 esi
  00143	e8 00 00 00 00	 call	 ?gObjMonsterMoveCheck@@YAHPAUOBJECTSTRUCT@@HH@Z ; gObjMonsterMoveCheck
  00148	83 c4 0c	 add	 esp, 12			; 0000000cH
  0014b	89 45 dc	 mov	 DWORD PTR _mchk$228149[ebp], eax

; 2106 : 		BYTE attr = MapC[lpObj->MapNumber].GetAttr(tpx, tpy);

  0014e	57		 push	 edi
  0014f	53		 push	 ebx
  00150	0f b6 8e 49 01
	00 00		 movzx	 ecx, BYTE PTR [esi+329]
  00157	69 c9 48 3d 05
	00		 imul	 ecx, 343368		; 00053d48H
  0015d	81 c1 00 00 00
	00		 add	 ecx, OFFSET ?MapC@@3PAVMapClass@@A ; MapC
  00163	e8 00 00 00 00	 call	 ?GetAttr@MapClass@@QAEEHH@Z ; MapClass::GetAttr

; 2107 : 
; 2108 : 		if ( (lpObj->Class ==249 || lpObj->Class == 247) && mchk )	// Guard

  00168	0f b7 8e b8 00
	00 00		 movzx	 ecx, WORD PTR [esi+184]
  0016f	ba f9 00 00 00	 mov	 edx, 249		; 000000f9H
  00174	66 3b ca	 cmp	 cx, dx
  00177	74 0a		 je	 SHORT $LN4@gObjMonste@11
  00179	ba f7 00 00 00	 mov	 edx, 247		; 000000f7H
  0017e	66 3b ca	 cmp	 cx, dx
  00181	75 47		 jne	 SHORT $LN5@gObjMonste@11
$LN4@gObjMonste@11:
  00183	83 7d dc 00	 cmp	 DWORD PTR _mchk$228149[ebp], 0
  00187	74 41		 je	 SHORT $LN5@gObjMonste@11

; 2109 : 		{
; 2110 : 			if ( (attr&2)!=2)

  00189	a8 02		 test	 al, 2
  0018b	0f 85 30 ff ff
	ff		 jne	 $LL21@gObjMonste@11

; 2111 : 			{
; 2112 : 				lpObj->MTX = tpx;

  00191	0f b6 45 e7	 movzx	 eax, BYTE PTR _tpx$[ebp]
  00195	66 89 86 80 01
	00 00		 mov	 WORD PTR [esi+384], ax

; 2113 : 				lpObj->MTY = tpy;

  0019c	0f b6 4d e6	 movzx	 ecx, BYTE PTR _tpy$[ebp]
  001a0	66 89 8e 82 01
	00 00		 mov	 WORD PTR [esi+386], cx

; 2114 : 				lpObj->m_ActState.Move = 1;

  001a7	83 8e 18 02 00
	00 04		 or	 DWORD PTR [esi+536], 4

; 2115 : 				lpObj->NextActionTime = 3000;

  001ae	c7 86 bc 03 00
	00 b8 0b 00 00	 mov	 DWORD PTR [esi+956], 3000 ; 00000bb8H

; 2130 : 				return;
; 2131 : 			}
; 2132 : 		}
; 2133 : 	}
; 2134 : }

  001b8	8b 4d f0	 mov	 ecx, DWORD PTR __$SEHRec$[ebp+8]
  001bb	64 89 0d 00 00
	00 00		 mov	 DWORD PTR fs:0, ecx
  001c2	59		 pop	 ecx
  001c3	5f		 pop	 edi
  001c4	5e		 pop	 esi
  001c5	5b		 pop	 ebx
  001c6	8b e5		 mov	 esp, ebp
  001c8	5d		 pop	 ebp
  001c9	c3		 ret	 0
$LN5@gObjMonste@11:

; 2116 : 				return;
; 2117 : 			}
; 2118 : 		}
; 2119 : 		else
; 2120 : 		{
; 2121 : 			if ( (attr&1)!=1 && (attr&2)!=2 && (attr&4)!=4 && (attr&8)!= 8 && mchk )

  001ca	a8 0f		 test	 al, 15			; 0000000fH
  001cc	0f 85 ef fe ff
	ff		 jne	 $LL21@gObjMonste@11
  001d2	83 7d dc 00	 cmp	 DWORD PTR _mchk$228149[ebp], 0
  001d6	0f 84 e5 fe ff
	ff		 je	 $LL21@gObjMonste@11

; 2122 : 			{
; 2123 : 				lpObj->TargetNumber = -1;

  001dc	83 ca ff	 or	 edx, -1
  001df	66 89 96 58 04
	00 00		 mov	 WORD PTR [esi+1112], dx

; 2127 : 				lpObj->MTX = tpx;

  001e6	0f b6 45 e7	 movzx	 eax, BYTE PTR _tpx$[ebp]
  001ea	66 89 86 80 01
	00 00		 mov	 WORD PTR [esi+384], ax

; 2128 : 				lpObj->MTY = tpy;

  001f1	0f b6 4d e6	 movzx	 ecx, BYTE PTR _tpy$[ebp]
  001f5	66 89 8e 82 01
	00 00		 mov	 WORD PTR [esi+386], cx

; 2126 : 				lpObj->m_ActState.Emotion = 0;

  001fc	8b 96 18 02 00
	00		 mov	 edx, DWORD PTR [esi+536]
  00202	81 e2 0d ff ff
	ff		 and	 edx, -243		; ffffff0dH

; 2129 : 				lpObj->m_ActState.Move = 1;

  00208	83 ca 04	 or	 edx, 4
  0020b	89 96 18 02 00
	00		 mov	 DWORD PTR [esi+536], edx
$LN24@gObjMonste@11:

; 2124 : 				lpObj->m_ActState.Attack = 0;
; 2125 : 				lpObj->NextActionTime = 500;

  00211	c7 86 bc 03 00
	00 f4 01 00 00	 mov	 DWORD PTR [esi+956], 500 ; 000001f4H
$LN10@gObjMonste@11:

; 2130 : 				return;
; 2131 : 			}
; 2132 : 		}
; 2133 : 	}
; 2134 : }

  0021b	8b 4d f0	 mov	 ecx, DWORD PTR __$SEHRec$[ebp+8]
  0021e	64 89 0d 00 00
	00 00		 mov	 DWORD PTR fs:0, ecx
  00225	59		 pop	 ecx
  00226	5f		 pop	 edi
  00227	5e		 pop	 esi
  00228	5b		 pop	 ebx
  00229	8b e5		 mov	 esp, ebp
  0022b	5d		 pop	 ebp
  0022c	c3		 ret	 0
?gObjMonsterMoveAction@@YAXPAUOBJECTSTRUCT@@@Z ENDP	; gObjMonsterMoveAction
_TEXT	ENDS
PUBLIC	?gObjMonsterBaseAct@@YAXPAUOBJECTSTRUCT@@@Z	; gObjMonsterBaseAct
EXTRN	?CheckWall@MapClass@@QAEHHHHH@Z:PROC		; MapClass::CheckWall
EXTRN	?gObjCalDistance@@YAHPAUOBJECTSTRUCT@@0@Z:PROC	; gObjCalDistance
EXTRN	?ChatSend@@YAXPAUOBJECTSTRUCT@@PAD@Z:PROC	; ChatSend
EXTRN	?gEvent1@@3HA:DWORD				; gEvent1
; Function compile flags: /Ogtp
;	COMDAT ?gObjMonsterBaseAct@@YAXPAUOBJECTSTRUCT@@@Z
_TEXT	SEGMENT
_ty$228174 = -4						; size = 4
_lpTargetObj$ = -4					; size = 4
_tx$228173 = 8						; size = 4
_lpObj$ = 8						; size = 4
?gObjMonsterBaseAct@@YAXPAUOBJECTSTRUCT@@@Z PROC	; gObjMonsterBaseAct, COMDAT

; 2138 : {

  00000	55		 push	 ebp
  00001	8b ec		 mov	 ebp, esp
  00003	51		 push	 ecx
  00004	53		 push	 ebx
  00005	56		 push	 esi

; 2139 : 	LPOBJ lpTargetObj = NULL;
; 2140 : 
; 2141 : 	if(lpObj->TargetNumber >= 0)

  00006	8b 75 08	 mov	 esi, DWORD PTR _lpObj$[ebp]
  00009	0f b7 86 58 04
	00 00		 movzx	 eax, WORD PTR [esi+1112]
  00010	33 db		 xor	 ebx, ebx
  00012	89 5d fc	 mov	 DWORD PTR _lpTargetObj$[ebp], ebx
  00015	66 85 c0	 test	 ax, ax
  00018	78 14		 js	 SHORT $LN65@gObjMonste@12

; 2142 : 	{
; 2143 : 		lpTargetObj = &gObj[lpObj->TargetNumber];

  0001a	98		 cwde
  0001b	69 c0 50 2b 00
	00		 imul	 eax, 11088		; 00002b50H
  00021	03 05 00 00 00
	00		 add	 eax, DWORD PTR ?gObj@@3PAUOBJECTSTRUCT@@A ; gObj
  00027	89 45 fc	 mov	 DWORD PTR _lpTargetObj$[ebp], eax

; 2144 : 	}
; 2145 : 	else

  0002a	8b d8		 mov	 ebx, eax
  0002c	eb 0a		 jmp	 SHORT $LN64@gObjMonste@12
$LN65@gObjMonste@12:

; 2146 : 	{
; 2147 : 		lpObj->m_ActState.Emotion = 0;

  0002e	81 a6 18 02 00
	00 0f ff ff ff	 and	 DWORD PTR [esi+536], -241 ; ffffff0fH
$LN64@gObjMonste@12:

; 2148 : 	}
; 2149 : 
; 2150 : 	if (gObjSearchActiveEffect(lpObj, AT_SLEEP) == TRUE) //season3 add-on

  00038	6a 48		 push	 72			; 00000048H
  0003a	56		 push	 esi
  0003b	e8 00 00 00 00	 call	 ?gObjSearchActiveEffect@@YAEPAUOBJECTSTRUCT@@H@Z ; gObjSearchActiveEffect
  00040	83 c4 08	 add	 esp, 8
  00043	3c 01		 cmp	 al, 1
  00045	0f 84 22 06 00
	00		 je	 $LN3@gObjMonste@12

; 2151 : 	{
; 2152 : 		return;
; 2153 : 	}
; 2154 : 
; 2155 : 	if ( lpObj->m_ActState.Emotion == 0 )

  0004b	8b 86 18 02 00
	00		 mov	 eax, DWORD PTR [esi+536]
  00051	8b c8		 mov	 ecx, eax
  00053	c1 e9 04	 shr	 ecx, 4
  00056	83 e1 0f	 and	 ecx, 15			; 0000000fH
  00059	57		 push	 edi
  0005a	0f 85 2a 02 00
	00		 jne	 $LN62@gObjMonste@12

; 2156 : 	{
; 2157 : 		if ( lpObj->m_Attribute )

  00060	66 39 8e b6 04
	00 00		 cmp	 WORD PTR [esi+1206], cx
  00067	0f 84 ff 05 00
	00		 je	 $LN80@gObjMonste@12

; 2158 : 		{
; 2159 : 			if ( lpObj->m_ActState.Attack )

  0006d	bf f4 01 00 00	 mov	 edi, 500		; 000001f4H
  00072	a8 02		 test	 al, 2
  00074	74 19		 je	 SHORT $LN73@gObjMonste@12

; 2160 : 			{
; 2161 : 				lpObj->m_ActState.Attack = 0;

  00076	83 e0 fd	 and	 eax, -3			; fffffffdH
  00079	89 86 18 02 00
	00		 mov	 DWORD PTR [esi+536], eax

; 2162 : 				lpObj->TargetNumber = -1;

  0007f	83 c8 ff	 or	 eax, -1
  00082	66 89 86 58 04
	00 00		 mov	 WORD PTR [esi+1112], ax

; 2163 : 				lpObj->NextActionTime = 500;

  00089	89 be bc 03 00
	00		 mov	 DWORD PTR [esi+956], edi
$LN73@gObjMonste@12:

; 2164 : 				//if( lpObj->m_Attribute == 100 )	LogAdd("   .");
; 2165 : 			}
; 2166 : 
; 2167 : 			int actcode1 = rand()%2;

  0008f	e8 00 00 00 00	 call	 _rand
  00094	25 01 00 00 80	 and	 eax, -2147483647	; 80000001H
  00099	79 05		 jns	 SHORT $LN81@gObjMonste@12
  0009b	48		 dec	 eax
  0009c	83 c8 fe	 or	 eax, -2			; fffffffeH
  0009f	40		 inc	 eax
$LN81@gObjMonste@12:

; 2168 : 
; 2169 : 			if ( lpObj->m_Attribute == 100 )

  000a0	bb 64 00 00 00	 mov	 ebx, 100		; 00000064H
  000a5	66 39 9e b6 04
	00 00		 cmp	 WORD PTR [esi+1206], bx

; 2170 : 			{
; 2171 : 				actcode1 = 1;
; 2172 : 			}
; 2173 : 			
; 2174 : 			if ( actcode1 == 0 )

  000ac	74 16		 je	 SHORT $LN77@gObjMonste@12
  000ae	85 c0		 test	 eax, eax
  000b0	75 12		 jne	 SHORT $LN77@gObjMonste@12

; 2175 : 			{
; 2176 : 				lpObj->m_ActState.Rest = 1;

  000b2	83 8e 18 02 00
	00 01		 or	 DWORD PTR [esi+536], 1

; 2177 : 				lpObj->NextActionTime = 500;

  000b9	89 be bc 03 00
	00		 mov	 DWORD PTR [esi+956], edi
  000bf	e9 d4 00 00 00	 jmp	 $LN74@gObjMonste@12
$LN77@gObjMonste@12:

; 2178 : 			}
; 2179 : 			else if ( lpObj->m_MoveRange > 0 && (gObjSearchActiveEffect(lpObj, AT_ICE_ARROW) == FALSE) && (gObjSearchActiveEffect(lpObj, AT_STUN) == FALSE) && (gObjSearchActiveEffect(lpObj, AT_SLEEP) == FALSE) ) //season3 changed

  000c4	66 83 be ae 04
	00 00 00	 cmp	 WORD PTR [esi+1198], 0
  000cc	0f 8e c6 00 00
	00		 jle	 $LN74@gObjMonste@12
  000d2	6a 39		 push	 57			; 00000039H
  000d4	56		 push	 esi
  000d5	e8 00 00 00 00	 call	 ?gObjSearchActiveEffect@@YAEPAUOBJECTSTRUCT@@H@Z ; gObjSearchActiveEffect
  000da	83 c4 08	 add	 esp, 8
  000dd	84 c0		 test	 al, al
  000df	0f 85 b3 00 00
	00		 jne	 $LN74@gObjMonste@12
  000e5	6a 3d		 push	 61			; 0000003dH
  000e7	56		 push	 esi
  000e8	e8 00 00 00 00	 call	 ?gObjSearchActiveEffect@@YAEPAUOBJECTSTRUCT@@H@Z ; gObjSearchActiveEffect
  000ed	83 c4 08	 add	 esp, 8
  000f0	84 c0		 test	 al, al
  000f2	0f 85 a0 00 00
	00		 jne	 $LN74@gObjMonste@12
  000f8	6a 48		 push	 72			; 00000048H
  000fa	56		 push	 esi
  000fb	e8 00 00 00 00	 call	 ?gObjSearchActiveEffect@@YAEPAUOBJECTSTRUCT@@H@Z ; gObjSearchActiveEffect
  00100	83 c4 08	 add	 esp, 8
  00103	84 c0		 test	 al, al
  00105	0f 85 8d 00 00
	00		 jne	 $LN74@gObjMonste@12

; 2180 : 			{
; 2181 : 				if ( lpObj->m_Attribute != 100 )

  0010b	66 39 9e b6 04
	00 00		 cmp	 WORD PTR [esi+1206], bx
  00112	74 0b		 je	 SHORT $LN55@gObjMonste@12

; 2182 : 				{
; 2183 : 					gObjMonsterMoveAction(lpObj);

  00114	56		 push	 esi
  00115	e8 00 00 00 00	 call	 ?gObjMonsterMoveAction@@YAXPAUOBJECTSTRUCT@@@Z ; gObjMonsterMoveAction
  0011a	83 c4 04	 add	 esp, 4

; 2184 : 				}
; 2185 : 				else

  0011d	eb 79		 jmp	 SHORT $LN74@gObjMonste@12
$LN55@gObjMonste@12:

; 2186 : 				{
; 2187 : 					int tx=0;
; 2188 : 					int ty=0;
; 2189 : 
; 2190 : 					if ( lpObj->m_RecallMon >= 0 )

  0011f	8b 86 50 04 00
	00		 mov	 eax, DWORD PTR [esi+1104]
  00125	33 c9		 xor	 ecx, ecx
  00127	89 4d 08	 mov	 DWORD PTR _tx$228173[ebp], ecx
  0012a	89 4d fc	 mov	 DWORD PTR _ty$228174[ebp], ecx
  0012d	3b c1		 cmp	 eax, ecx
  0012f	7c 67		 jl	 SHORT $LN74@gObjMonste@12

; 2191 : 					{
; 2192 : 						if ( gObj[lpObj->m_RecallMon].Connected > PLAYER_LOGGED )

  00131	69 c0 50 2b 00
	00		 imul	 eax, 11088		; 00002b50H
  00137	03 05 00 00 00
	00		 add	 eax, DWORD PTR ?gObj@@3PAUOBJECTSTRUCT@@A ; gObj
  0013d	83 78 04 02	 cmp	 DWORD PTR [eax+4], 2
  00141	7e 55		 jle	 SHORT $LN74@gObjMonste@12

; 2193 : 						{
; 2194 : 							LPOBJ lpRecallObj = &gObj[lpObj->m_RecallMon];
; 2195 : 
; 2196 : 							if ( lpRecallObj->m_Rest == FALSE )

  00143	38 88 25 02 00
	00		 cmp	 BYTE PTR [eax+549], cl
  00149	75 4d		 jne	 SHORT $LN74@gObjMonste@12

; 2197 : 							{
; 2198 : 								if ( gObjGetTargetPos(lpObj, lpRecallObj->X, lpRecallObj->Y, tx, ty) == TRUE )

  0014b	8d 55 fc	 lea	 edx, DWORD PTR _ty$228174[ebp]
  0014e	52		 push	 edx
  0014f	0f bf 90 46 01
	00 00		 movsx	 edx, WORD PTR [eax+326]
  00156	0f bf 80 44 01
	00 00		 movsx	 eax, WORD PTR [eax+324]
  0015d	8d 4d 08	 lea	 ecx, DWORD PTR _tx$228173[ebp]
  00160	51		 push	 ecx
  00161	52		 push	 edx
  00162	50		 push	 eax
  00163	56		 push	 esi
  00164	e8 00 00 00 00	 call	 ?gObjGetTargetPos@@YAHPAUOBJECTSTRUCT@@HHAAH1@Z ; gObjGetTargetPos
  00169	83 c4 14	 add	 esp, 20			; 00000014H
  0016c	83 f8 01	 cmp	 eax, 1
  0016f	75 27		 jne	 SHORT $LN74@gObjMonste@12

; 2199 : 								{
; 2200 : 									lpObj->MTX = tx;

  00171	66 8b 4d 08	 mov	 cx, WORD PTR _tx$228173[ebp]

; 2201 : 									lpObj->MTY = ty;

  00175	66 8b 55 fc	 mov	 dx, WORD PTR _ty$228174[ebp]

; 2202 : 									lpObj->m_ActState.Move = 1;

  00179	83 8e 18 02 00
	00 04		 or	 DWORD PTR [esi+536], 4
  00180	66 89 8e 80 01
	00 00		 mov	 WORD PTR [esi+384], cx
  00187	66 89 96 82 01
	00 00		 mov	 WORD PTR [esi+386], dx

; 2203 : 									lpObj->NextActionTime = 1000;

  0018e	c7 86 bc 03 00
	00 e8 03 00 00	 mov	 DWORD PTR [esi+956], 1000 ; 000003e8H
$LN74@gObjMonste@12:

; 2204 : 								}
; 2205 : 							}
; 2206 : 						}
; 2207 : 					}
; 2208 : 				}
; 2209 : 			}
; 2210 : 
; 2211 : 			if (lpObj->Class == 249 || lpObj->Class == 247 )

  00198	0f b7 86 b8 00
	00 00		 movzx	 eax, WORD PTR [esi+184]
  0019f	b9 f9 00 00 00	 mov	 ecx, 249		; 000000f9H
  001a4	66 3b c1	 cmp	 ax, cx
  001a7	74 2b		 je	 SHORT $LN48@gObjMonste@12
  001a9	ba f7 00 00 00	 mov	 edx, 247		; 000000f7H
  001ae	66 3b c2	 cmp	 ax, dx
  001b1	74 21		 je	 SHORT $LN48@gObjMonste@12

; 2232 : 					}
; 2233 : 				}
; 2234 : 			}
; 2235 : 			else 
; 2236 : 			{
; 2237 : 				if ( lpObj->m_Attribute == 100 )

  001b3	66 39 9e b6 04
	00 00		 cmp	 WORD PTR [esi+1206], bx
  001ba	75 04		 jne	 SHORT $LN41@gObjMonste@12

; 2238 : 				{
; 2239 : 					lpObj->TargetNumber = gObjMonsterSearchEnemy(lpObj, OBJ_MONSTER);

  001bc	6a 02		 push	 2

; 2240 : 					if( lpObj->m_Attribute == 100 )	
; 2241 : 					{
; 2242 : 						//if( lpObj->TargetNumber>=0) LogAdd("  .");
; 2243 : 					}
; 2244 : #ifdef IMPERIAL_CONFLICT_NEW
; 2245 : 					if( g_ImperialGuardian.IsEventMap(lpObj->MapNumber) )
; 2246 : 					{
; 2247 : 						if ( !lpObj->Live || !g_ImperialGuardian.IsAttackAbleMonster(lpObj->TargetNumber) )
; 2248 : 							lpObj->TargetNumber = -1;
; 2249 : 					}
; 2250 : #endif
; 2251 : 				}
; 2252 : 				else

  001be	eb 02		 jmp	 SHORT $LN82@gObjMonste@12
$LN41@gObjMonste@12:

; 2253 : 				{
; 2254 : 					lpObj->TargetNumber = gObjMonsterSearchEnemy(lpObj, OBJ_USER);

  001c0	6a 01		 push	 1
$LN82@gObjMonste@12:
  001c2	56		 push	 esi
  001c3	e8 00 00 00 00	 call	 ?gObjMonsterSearchEnemy@@YAHPAUOBJECTSTRUCT@@E@Z ; gObjMonsterSearchEnemy
  001c8	83 c4 08	 add	 esp, 8
  001cb	66 89 86 58 04
	00 00		 mov	 WORD PTR [esi+1112], ax
  001d2	eb 74		 jmp	 SHORT $LN43@gObjMonste@12
$LN48@gObjMonste@12:

; 2212 : 			{
; 2213 : 				if ( gEvent1 )

  001d4	83 3d 00 00 00
	00 00		 cmp	 DWORD PTR ?gEvent1@@3HA, 0 ; gEvent1
  001db	74 2e		 je	 SHORT $LN45@gObjMonste@12

; 2214 : 				{
; 2215 : 					if ( !(rand()%30) )

  001dd	e8 00 00 00 00	 call	 _rand
  001e2	99		 cdq
  001e3	b9 1e 00 00 00	 mov	 ecx, 30			; 0000001eH
  001e8	f7 f9		 idiv	 ecx
  001ea	85 d2		 test	 edx, edx
  001ec	75 1d		 jne	 SHORT $LN45@gObjMonste@12

; 2216 : 					{
; 2217 : 						if ( lpObj->m_PK_Count == 0 )

  001ee	38 96 3c 01 00
	00		 cmp	 BYTE PTR [esi+316], dl
  001f4	75 15		 jne	 SHORT $LN45@gObjMonste@12

; 2218 : 						{
; 2219 : 							ChatSend(lpObj,ZtConfig.CommonServer.GuardMessage);

  001f6	68 ac 00 00 00	 push	 OFFSET ?ZtConfig@@3VcZtConfigs@@A+172
  001fb	56		 push	 esi
  001fc	e8 00 00 00 00	 call	 ?ChatSend@@YAXPAUOBJECTSTRUCT@@PAD@Z ; ChatSend
  00201	83 c4 08	 add	 esp, 8

; 2220 : 							lpObj->m_PK_Count = 0;

  00204	c6 86 3c 01 00
	00 00		 mov	 BYTE PTR [esi+316], 0
$LN45@gObjMonste@12:

; 2221 : 						}
; 2222 : 					}
; 2223 : 				}
; 2224 : 
; 2225 : 				lpObj->TargetNumber = gObjGuardSearchEnemy(lpObj);

  0020b	56		 push	 esi
  0020c	e8 00 00 00 00	 call	 ?gObjGuardSearchEnemy@@YAHPAUOBJECTSTRUCT@@@Z ; gObjGuardSearchEnemy
  00211	83 c4 04	 add	 esp, 4
  00214	66 89 86 58 04
	00 00		 mov	 WORD PTR [esi+1112], ax

; 2226 : 
; 2227 : 				if ( lpObj->TargetNumber >= 0 )

  0021b	66 85 c0	 test	 ax, ax
  0021e	78 28		 js	 SHORT $LN43@gObjMonste@12

; 2228 : 				{
; 2229 : 					if ( gObj[lpObj->TargetNumber].Class >= 248 )

  00220	8b 0d 00 00 00
	00		 mov	 ecx, DWORD PTR ?gObj@@3PAUOBJECTSTRUCT@@A ; gObj
  00226	0f bf d0	 movsx	 edx, ax
  00229	69 d2 50 2b 00
	00		 imul	 edx, 11088		; 00002b50H
  0022f	b8 f8 00 00 00	 mov	 eax, 248		; 000000f8H
  00234	66 39 84 0a b8
	00 00 00	 cmp	 WORD PTR [edx+ecx+184], ax
  0023c	72 0a		 jb	 SHORT $LN43@gObjMonste@12

; 2230 : 					{
; 2231 : 						lpObj->TargetNumber = -1;

  0023e	83 ca ff	 or	 edx, -1
  00241	66 89 96 58 04
	00 00		 mov	 WORD PTR [esi+1112], dx
$LN43@gObjMonste@12:

; 2255 : 				}
; 2256 : 			}
; 2257 : 
; 2258 : 			if ( lpObj->TargetNumber >= 0 )

  00248	66 83 be 58 04
	00 00 00	 cmp	 WORD PTR [esi+1112], 0
  00250	0f 8c 16 04 00
	00		 jl	 $LN80@gObjMonste@12

; 2259 : 			{
; 2260 : 
; 2261 : 				if(g_DoppelGanger.IsDGMonster(lpObj))	//Season 5 DoppelGanger

  00256	56		 push	 esi
  00257	b9 00 00 00 00	 mov	 ecx, OFFSET ?g_DoppelGanger@@3VCDoppelGanger@@A ; g_DoppelGanger
  0025c	e8 00 00 00 00	 call	 ?IsDGMonster@CDoppelGanger@@QAE_NPAUOBJECTSTRUCT@@@Z ; CDoppelGanger::IsDGMonster
  00261	f6 d8		 neg	 al
  00263	1a c0		 sbb	 al, al
  00265	24 e5		 and	 al, 229			; 000000e5H
  00267	04 1e		 add	 al, 30			; 0000001eH
  00269	88 86 19 02 00
	00		 mov	 BYTE PTR [esi+537], al

; 2262 : 				{
; 2263 : 					lpObj->m_ActState.EmotionCount = 3;
; 2264 : 				}
; 2265 : 				else
; 2266 : 				{
; 2267 : 					lpObj->m_ActState.EmotionCount = 30;
; 2268 : 				}
; 2269 : 				lpObj->m_ActState.Emotion = 1;

  0026f	8b 86 18 02 00
	00		 mov	 eax, DWORD PTR [esi+536]
  00275	25 1f ff ff ff	 and	 eax, -225		; ffffff1fH
  0027a	83 c8 10	 or	 eax, 16			; 00000010H
  0027d	5f		 pop	 edi
  0027e	89 86 18 02 00
	00		 mov	 DWORD PTR [esi+536], eax
  00284	5e		 pop	 esi
  00285	5b		 pop	 ebx

; 2426 : 	}
; 2427 : }

  00286	8b e5		 mov	 esp, ebp
  00288	5d		 pop	 ebp
  00289	c3		 ret	 0
$LN62@gObjMonste@12:

; 2270 : 			}
; 2271 : 		}
; 2272 : 	}
; 2273 : 	else if ( lpObj->m_ActState.Emotion == 1 )

  0028a	83 f9 01	 cmp	 ecx, 1
  0028d	0f 85 f1 02 00
	00		 jne	 $LN34@gObjMonste@12

; 2274 : 	{
; 2275 : 		if ( lpObj->m_ActState.EmotionCount > 0 )

  00293	8a 8e 19 02 00
	00		 mov	 cl, BYTE PTR [esi+537]
  00299	84 c9		 test	 cl, cl
  0029b	74 0a		 je	 SHORT $LN33@gObjMonste@12

; 2276 : 		{
; 2277 : 			lpObj->m_ActState.EmotionCount--;

  0029d	fe c9		 dec	 cl
  0029f	88 8e 19 02 00
	00		 mov	 BYTE PTR [esi+537], cl

; 2278 : 		}
; 2279 : 		else

  002a5	eb 0b		 jmp	 SHORT $LN32@gObjMonste@12
$LN33@gObjMonste@12:

; 2280 : 		{
; 2281 : 			lpObj->m_ActState.Emotion = 0;

  002a7	25 0f ff ff ff	 and	 eax, -241		; ffffff0fH
  002ac	89 86 18 02 00
	00		 mov	 DWORD PTR [esi+536], eax
$LN32@gObjMonste@12:

; 2282 : 		}
; 2283 : 
; 2284 : 		if ( lpObj->TargetNumber >= 0 && lpObj->PathStartEnd == 0)

  002b2	66 83 be 58 04
	00 00 00	 cmp	 WORD PTR [esi+1112], 0
  002ba	0f 8c ac 03 00
	00		 jl	 $LN80@gObjMonste@12
  002c0	80 be 8c 01 00
	00 00		 cmp	 BYTE PTR [esi+396], 0
  002c7	0f 85 9f 03 00
	00		 jne	 $LN80@gObjMonste@12

; 2285 : 		{
; 2286 : 			if ( BC_MAP_RANGE(lpObj->MapNumber) )

  002cd	0f b6 86 49 01
	00 00		 movzx	 eax, BYTE PTR [esi+329]
  002d4	3c 34		 cmp	 al, 52			; 00000034H
  002d6	74 0d		 je	 SHORT $LN72@gObjMonste@12
  002d8	3c 0b		 cmp	 al, 11			; 0000000bH
  002da	72 79		 jb	 SHORT $LN76@gObjMonste@12
  002dc	b1 11		 mov	 cl, 17			; 00000011H
  002de	3a c8		 cmp	 cl, al
  002e0	1b c0		 sbb	 eax, eax
  002e2	40		 inc	 eax
  002e3	74 70		 je	 SHORT $LN76@gObjMonste@12
$LN72@gObjMonste@12:

; 2287 : 			{
; 2288 : 				int iRAND_CHANGE_TARGET = rand()%10;

  002e5	e8 00 00 00 00	 call	 _rand
  002ea	99		 cdq
  002eb	b9 0a 00 00 00	 mov	 ecx, 10			; 0000000aH
  002f0	f7 f9		 idiv	 ecx

; 2289 : 
; 2290 : 				if ( iRAND_CHANGE_TARGET == 3 )

  002f2	83 fa 03	 cmp	 edx, 3
  002f5	75 0c		 jne	 SHORT $LN29@gObjMonste@12

; 2291 : 				{
; 2292 : 					lpObj->LastAttackerID = -1;

  002f7	83 ca ff	 or	 edx, -1
  002fa	66 89 96 5e 04
	00 00		 mov	 WORD PTR [esi+1118], dx

; 2293 : 				}
; 2294 : 
; 2295 : 				if ( iRAND_CHANGE_TARGET == 1 )

  00301	eb 52		 jmp	 SHORT $LN76@gObjMonste@12
$LN29@gObjMonste@12:
  00303	83 fa 01	 cmp	 edx, 1
  00306	75 4d		 jne	 SHORT $LN76@gObjMonste@12

; 2296 : 				{
; 2297 : 					if ( lpObj->LastAttackerID != -1 && lpObj->LastAttackerID != lpObj->TargetNumber )

  00308	0f b7 8e 5e 04
	00 00		 movzx	 ecx, WORD PTR [esi+1118]
  0030f	66 83 f9 ff	 cmp	 cx, -1
  00313	74 40		 je	 SHORT $LN76@gObjMonste@12
  00315	66 3b 8e 58 04
	00 00		 cmp	 cx, WORD PTR [esi+1112]
  0031c	74 37		 je	 SHORT $LN76@gObjMonste@12

; 2298 : 					{
; 2299 : 						if ( gObj[lpObj->LastAttackerID].Connected > PLAYER_LOGGED && lpObj->MapNumber == gObj[lpObj->LastAttackerID].MapNumber )

  0031e	8b 3d 00 00 00
	00		 mov	 edi, DWORD PTR ?gObj@@3PAUOBJECTSTRUCT@@A ; gObj
  00324	0f bf c1	 movsx	 eax, cx
  00327	69 c0 50 2b 00
	00		 imul	 eax, 11088		; 00002b50H
  0032d	83 7c 38 04 02	 cmp	 DWORD PTR [eax+edi+4], 2
  00332	7e 21		 jle	 SHORT $LN76@gObjMonste@12
  00334	8a 96 49 01 00
	00		 mov	 dl, BYTE PTR [esi+329]
  0033a	3a 94 38 49 01
	00 00		 cmp	 dl, BYTE PTR [eax+edi+329]
  00341	75 12		 jne	 SHORT $LN76@gObjMonste@12

; 2300 : 						{
; 2301 : 							lpObj->TargetNumber = lpObj->LastAttackerID;

  00343	66 89 8e 58 04
	00 00		 mov	 WORD PTR [esi+1112], cx

; 2302 : 							lpTargetObj = &gObj[lpObj->LastAttackerID];

  0034a	03 05 00 00 00
	00		 add	 eax, DWORD PTR ?gObj@@3PAUOBJECTSTRUCT@@A ; gObj
  00350	89 45 fc	 mov	 DWORD PTR _lpTargetObj$[ebp], eax
  00353	8b d8		 mov	 ebx, eax
$LN76@gObjMonste@12:

; 2303 : 						}
; 2304 : 					}
; 2305 : 				}
; 2306 : 			}
; 2307 : 
; 2308 : 			int dis = gObjCalDistance(lpObj, lpTargetObj);

  00355	53		 push	 ebx
  00356	56		 push	 esi
  00357	e8 00 00 00 00	 call	 ?gObjCalDistance@@YAHPAUOBJECTSTRUCT@@0@Z ; gObjCalDistance

; 2309 : 			int attackrange;
; 2310 : 
; 2311 : 			if ( lpObj->m_AttackType >= 100 )
; 2312 : 			{
; 2313 : 				attackrange = lpObj->m_AttackRange+2;

  0035c	0f bf 8e b0 04
	00 00		 movsx	 ecx, WORD PTR [esi+1200]
  00363	83 c4 08	 add	 esp, 8
  00366	66 83 be b2 04
	00 00 64	 cmp	 WORD PTR [esi+1202], 100 ; 00000064H
  0036e	7c 03		 jl	 SHORT $LN24@gObjMonste@12
  00370	83 c1 02	 add	 ecx, 2
$LN24@gObjMonste@12:

; 2314 : 			}
; 2315 : 			else
; 2316 : 			{
; 2317 : 				attackrange = lpObj->m_AttackRange;
; 2318 : 			}
; 2319 : 
; 2320 : 			if ( dis <= attackrange )

  00373	3b c1		 cmp	 eax, ecx
  00375	0f 8f 37 01 00
	00		 jg	 $LN23@gObjMonste@12

; 2321 : 			{
; 2322 : 				int tuser = lpObj->TargetNumber;

  0037b	0f bf be 58 04
	00 00		 movsx	 edi, WORD PTR [esi+1112]

; 2323 : 				int map = gObj[tuser].MapNumber;

  00382	8b 0d 00 00 00
	00		 mov	 ecx, DWORD PTR ?gObj@@3PAUOBJECTSTRUCT@@A ; gObj
  00388	69 ff 50 2b 00
	00		 imul	 edi, 11088		; 00002b50H
  0038e	0f b6 84 0f 49
	01 00 00	 movzx	 eax, BYTE PTR [edi+ecx+329]

; 2324 : 				BYTE attr;
; 2325 : 
; 2326 : 				if ( MapC[map].CheckWall(lpObj->X, lpObj->Y, gObj[tuser].X, gObj[tuser].Y) == TRUE )

  00396	0f bf 94 0f 46
	01 00 00	 movsx	 edx, WORD PTR [edi+ecx+326]
  0039e	69 c0 48 3d 05
	00		 imul	 eax, 343368		; 00053d48H
  003a4	8d 98 00 00 00
	00		 lea	 ebx, DWORD PTR ?MapC@@3PAVMapClass@@A[eax]
  003aa	0f bf 84 0f 44
	01 00 00	 movsx	 eax, WORD PTR [edi+ecx+324]
  003b2	0f bf 8e 46 01
	00 00		 movsx	 ecx, WORD PTR [esi+326]
  003b9	52		 push	 edx
  003ba	0f bf 96 44 01
	00 00		 movsx	 edx, WORD PTR [esi+324]
  003c1	50		 push	 eax
  003c2	51		 push	 ecx
  003c3	52		 push	 edx
  003c4	8b cb		 mov	 ecx, ebx
  003c6	e8 00 00 00 00	 call	 ?CheckWall@MapClass@@QAEHHHHH@Z ; MapClass::CheckWall
  003cb	83 f8 01	 cmp	 eax, 1
  003ce	0f 85 af 00 00
	00		 jne	 $LN22@gObjMonste@12

; 2327 : 				{
; 2328 : 					attr = MapC[map].GetAttr(gObj[tuser].X, gObj[tuser].Y);

  003d4	a1 00 00 00 00	 mov	 eax, DWORD PTR ?gObj@@3PAUOBJECTSTRUCT@@A ; gObj

; 2329 : 
; 2330 : 					if ( (attr&1) != 1 )

  003d9	0f bf 8c 07 46
	01 00 00	 movsx	 ecx, WORD PTR [edi+eax+326]
  003e1	0f bf 94 07 44
	01 00 00	 movsx	 edx, WORD PTR [edi+eax+324]
  003e9	51		 push	 ecx
  003ea	52		 push	 edx
  003eb	8b cb		 mov	 ecx, ebx
  003ed	e8 00 00 00 00	 call	 ?GetAttr@MapClass@@QAEEHH@Z ; MapClass::GetAttr
  003f2	a8 01		 test	 al, 1
  003f4	75 09		 jne	 SHORT $LN21@gObjMonste@12

; 2331 : 					{
; 2332 : 						lpObj->m_ActState.Attack = 1;		//Fix Monster in main?

  003f6	83 8e 18 02 00
	00 02		 or	 DWORD PTR [esi+536], 2

; 2333 : 					}
; 2334 : 					else

  003fd	eb 3e		 jmp	 SHORT $LN18@gObjMonste@12
$LN21@gObjMonste@12:

; 2335 : 					{
; 2336 : 						lpObj->TargetNumber = -1;

  003ff	83 c8 ff	 or	 eax, -1

; 2337 : 						lpObj->m_ActState.EmotionCount = 30;
; 2338 : 						if(g_DoppelGanger.IsDGMonster(lpObj))	//Season 5 DoppelGanger

  00402	56		 push	 esi
  00403	b9 00 00 00 00	 mov	 ecx, OFFSET ?g_DoppelGanger@@3VCDoppelGanger@@A ; g_DoppelGanger
  00408	66 89 86 58 04
	00 00		 mov	 WORD PTR [esi+1112], ax
  0040f	c6 86 19 02 00
	00 1e		 mov	 BYTE PTR [esi+537], 30	; 0000001eH
  00416	e8 00 00 00 00	 call	 ?IsDGMonster@CDoppelGanger@@QAE_NPAUOBJECTSTRUCT@@@Z ; CDoppelGanger::IsDGMonster
  0041b	84 c0		 test	 al, al
  0041d	74 09		 je	 SHORT $LN19@gObjMonste@12

; 2339 : 						{
; 2340 : 							lpObj->m_ActState.EmotionCount = 3;

  0041f	c6 86 19 02 00
	00 03		 mov	 BYTE PTR [esi+537], 3

; 2341 : 						}
; 2342 : 						else

  00426	eb 15		 jmp	 SHORT $LN18@gObjMonste@12
$LN19@gObjMonste@12:

; 2343 : 						{
; 2344 : 							lpObj->m_ActState.Emotion = 1;

  00428	8b 8e 18 02 00
	00		 mov	 ecx, DWORD PTR [esi+536]
  0042e	81 e1 1f ff ff
	ff		 and	 ecx, -225		; ffffff1fH
  00434	83 c9 10	 or	 ecx, 16			; 00000010H
  00437	89 8e 18 02 00
	00		 mov	 DWORD PTR [esi+536], ecx
$LN18@gObjMonste@12:

; 2345 : 						}
; 2346 : 					}
; 2347 : 
; 2348 : 					lpObj->Dir = GetPathPacketDirPos(lpTargetObj->X-lpObj->X, lpTargetObj->Y-lpObj->Y);

  0043d	8b 45 fc	 mov	 eax, DWORD PTR _lpTargetObj$[ebp]
  00440	0f bf 90 46 01
	00 00		 movsx	 edx, WORD PTR [eax+326]
  00447	0f bf 8e 46 01
	00 00		 movsx	 ecx, WORD PTR [esi+326]
  0044e	2b d1		 sub	 edx, ecx
  00450	52		 push	 edx
  00451	0f bf 90 44 01
	00 00		 movsx	 edx, WORD PTR [eax+324]
  00458	0f bf 86 44 01
	00 00		 movsx	 eax, WORD PTR [esi+324]
  0045f	2b d0		 sub	 edx, eax
  00461	52		 push	 edx
  00462	e8 00 00 00 00	 call	 ?GetPathPacketDirPos@@YAEHH@Z ; GetPathPacketDirPos

; 2349 : 					lpObj->NextActionTime = lpObj->m_AttackSpeed;

  00467	8b 8e 8c 04 00
	00		 mov	 ecx, DWORD PTR [esi+1164]
  0046d	83 c4 08	 add	 esp, 8
  00470	5f		 pop	 edi
  00471	88 86 48 01 00
	00		 mov	 BYTE PTR [esi+328], al
  00477	89 8e bc 03 00
	00		 mov	 DWORD PTR [esi+956], ecx
  0047d	5e		 pop	 esi
  0047e	5b		 pop	 ebx

; 2426 : 	}
; 2427 : }

  0047f	8b e5		 mov	 esp, ebp
  00481	5d		 pop	 ebp
  00482	c3		 ret	 0
$LN22@gObjMonste@12:

; 2350 : 					if( lpObj->m_Attribute == 100 )	{
; 2351 : 						//LogAdd("  .    %d",lpObj->NextActionTime);
; 2352 : 					}
; 2353 : 				}
; 2354 : 				else //if(lpObj->Class == 275) //Season 2.5 add-on
; 2355 : 				{
; 2356 : 					lpObj->TargetNumber = -1;
; 2357 : 					lpObj->m_ActState.Attack = 0;
; 2358 : 					lpObj->NextActionTime = 500;
; 2359 : 					lpObj->m_ActState.Emotion = 0;

  00483	8b 86 18 02 00
	00		 mov	 eax, DWORD PTR [esi+536]
  00489	83 ca ff	 or	 edx, -1
  0048c	25 0d ff ff ff	 and	 eax, -243		; ffffff0dH

; 2360 : 					lpObj->m_ActState.Move = 1;

  00491	83 c8 04	 or	 eax, 4
  00494	5f		 pop	 edi
  00495	66 89 96 58 04
	00 00		 mov	 WORD PTR [esi+1112], dx
  0049c	c7 86 bc 03 00
	00 f4 01 00 00	 mov	 DWORD PTR [esi+956], 500 ; 000001f4H
  004a6	89 86 18 02 00
	00		 mov	 DWORD PTR [esi+536], eax
  004ac	5e		 pop	 esi
  004ad	5b		 pop	 ebx

; 2426 : 	}
; 2427 : }

  004ae	8b e5		 mov	 esp, ebp
  004b0	5d		 pop	 ebp
  004b1	c3		 ret	 0
$LN23@gObjMonste@12:

; 2361 : 				}
; 2362 : 			}
; 2363 : 			else
; 2364 : 			{
; 2365 : 				if ( gObjMonsterGetTargetPos(lpObj) == TRUE )

  004b2	56		 push	 esi
  004b3	e8 00 00 00 00	 call	 ?gObjMonsterGetTargetPos@@YAHPAUOBJECTSTRUCT@@@Z ; gObjMonsterGetTargetPos
  004b8	83 c4 04	 add	 esp, 4
  004bb	83 f8 01	 cmp	 eax, 1
  004be	0f 85 b0 00 00
	00		 jne	 $LN14@gObjMonste@12

; 2366 : 				{
; 2367 : 					if ( MapC[lpObj->MapNumber].CheckWall(lpObj->X, lpObj->Y, lpObj->MTX, lpObj->MTY) == TRUE )

  004c4	0f bf 8e 82 01
	00 00		 movsx	 ecx, WORD PTR [esi+386]
  004cb	0f bf 96 80 01
	00 00		 movsx	 edx, WORD PTR [esi+384]
  004d2	0f bf 86 46 01
	00 00		 movsx	 eax, WORD PTR [esi+326]
  004d9	51		 push	 ecx
  004da	0f bf 8e 44 01
	00 00		 movsx	 ecx, WORD PTR [esi+324]
  004e1	52		 push	 edx
  004e2	50		 push	 eax
  004e3	51		 push	 ecx
  004e4	0f b6 8e 49 01
	00 00		 movzx	 ecx, BYTE PTR [esi+329]
  004eb	69 c9 48 3d 05
	00		 imul	 ecx, 343368		; 00053d48H
  004f1	81 c1 00 00 00
	00		 add	 ecx, OFFSET ?MapC@@3PAVMapClass@@A ; MapC
  004f7	e8 00 00 00 00	 call	 ?CheckWall@MapClass@@QAEHHHHH@Z ; MapClass::CheckWall
  004fc	83 f8 01	 cmp	 eax, 1
  004ff	75 48		 jne	 SHORT $LN13@gObjMonste@12

; 2368 : 					{
; 2369 : 						lpObj->m_ActState.Move = 1;

  00501	83 8e 18 02 00
	00 04		 or	 DWORD PTR [esi+536], 4

; 2370 : 						lpObj->NextActionTime = 400;
; 2371 : 						lpObj->Dir = GetPathPacketDirPos(lpTargetObj->X-lpObj->X, lpTargetObj->Y-lpObj->Y);

  00508	0f bf 86 46 01
	00 00		 movsx	 eax, WORD PTR [esi+326]
  0050f	c7 86 bc 03 00
	00 90 01 00 00	 mov	 DWORD PTR [esi+956], 400 ; 00000190H
  00519	0f bf 93 46 01
	00 00		 movsx	 edx, WORD PTR [ebx+326]
  00520	0f bf 8b 44 01
	00 00		 movsx	 ecx, WORD PTR [ebx+324]
  00527	2b d0		 sub	 edx, eax
  00529	52		 push	 edx
  0052a	0f bf 96 44 01
	00 00		 movsx	 edx, WORD PTR [esi+324]
  00531	2b ca		 sub	 ecx, edx
  00533	51		 push	 ecx
  00534	e8 00 00 00 00	 call	 ?GetPathPacketDirPos@@YAEHH@Z ; GetPathPacketDirPos
  00539	83 c4 08	 add	 esp, 8
  0053c	5f		 pop	 edi
  0053d	88 86 48 01 00
	00		 mov	 BYTE PTR [esi+328], al
  00543	5e		 pop	 esi
  00544	5b		 pop	 ebx

; 2426 : 	}
; 2427 : }

  00545	8b e5		 mov	 esp, ebp
  00547	5d		 pop	 ebp
  00548	c3		 ret	 0
$LN13@gObjMonste@12:

; 2372 : 					}
; 2373 : 					else
; 2374 : 					{
; 2375 : 						gObjMonsterMoveAction(lpObj);

  00549	56		 push	 esi
  0054a	e8 00 00 00 00	 call	 ?gObjMonsterMoveAction@@YAXPAUOBJECTSTRUCT@@@Z ; gObjMonsterMoveAction

; 2376 : 						lpObj->m_ActState.Emotion = 3;

  0054f	8b 86 18 02 00
	00		 mov	 eax, DWORD PTR [esi+536]
  00555	83 c4 04	 add	 esp, 4
  00558	25 3f ff ff ff	 and	 eax, -193		; ffffff3fH
  0055d	83 c8 30	 or	 eax, 48			; 00000030H
  00560	89 86 18 02 00
	00		 mov	 DWORD PTR [esi+536], eax
  00566	5f		 pop	 edi

; 2377 : 						lpObj->m_ActState.EmotionCount = 10;

  00567	c6 86 19 02 00
	00 0a		 mov	 BYTE PTR [esi+537], 10	; 0000000aH
  0056e	5e		 pop	 esi
  0056f	5b		 pop	 ebx

; 2426 : 	}
; 2427 : }

  00570	8b e5		 mov	 esp, ebp
  00572	5d		 pop	 ebp
  00573	c3		 ret	 0
$LN14@gObjMonste@12:

; 2378 : 
; 2379 : 					}
; 2380 : 				}
; 2381 : 				else
; 2382 : 				{
; 2383 : 					gObjMonsterMoveAction(lpObj);

  00574	56		 push	 esi
  00575	e8 00 00 00 00	 call	 ?gObjMonsterMoveAction@@YAXPAUOBJECTSTRUCT@@@Z ; gObjMonsterMoveAction
  0057a	83 c4 04	 add	 esp, 4
  0057d	5f		 pop	 edi
  0057e	5e		 pop	 esi
  0057f	5b		 pop	 ebx

; 2426 : 	}
; 2427 : }

  00580	8b e5		 mov	 esp, ebp
  00582	5d		 pop	 ebp
  00583	c3		 ret	 0
$LN34@gObjMonste@12:

; 2384 : 				}
; 2385 : 			}
; 2386 : 		}
; 2387 : 		else
; 2388 : 		{
; 2389 : 		}
; 2390 : 	}
; 2391 : 	else if ( lpObj->m_ActState.Emotion == 2 )

  00584	83 f9 02	 cmp	 ecx, 2
  00587	0f 85 aa 00 00
	00		 jne	 $LN8@gObjMonste@12

; 2392 : 	{
; 2393 : 		if ( lpObj->m_ActState.EmotionCount > 0 )

  0058d	8a 8e 19 02 00
	00		 mov	 cl, BYTE PTR [esi+537]
  00593	84 c9		 test	 cl, cl
  00595	74 0a		 je	 SHORT $LN7@gObjMonste@12

; 2394 : 		{
; 2395 : 			lpObj->m_ActState.EmotionCount--;

  00597	fe c9		 dec	 cl
  00599	88 8e 19 02 00
	00		 mov	 BYTE PTR [esi+537], cl

; 2396 : 		}
; 2397 : 		else

  0059f	eb 0b		 jmp	 SHORT $LN6@gObjMonste@12
$LN7@gObjMonste@12:

; 2398 : 		{
; 2399 : 			lpObj->m_ActState.Emotion = 0;

  005a1	25 0f ff ff ff	 and	 eax, -241		; ffffff0fH
  005a6	89 86 18 02 00
	00		 mov	 DWORD PTR [esi+536], eax
$LN6@gObjMonste@12:

; 2400 : 		}
; 2401 : 
; 2402 : 		lpObj->m_ActState.Move = 1;

  005ac	83 8e 18 02 00
	00 04		 or	 DWORD PTR [esi+536], 4

; 2403 : 		lpObj->NextActionTime = 800;

  005b3	c7 86 bc 03 00
	00 20 03 00 00	 mov	 DWORD PTR [esi+956], 800 ; 00000320H

; 2404 : 
; 2405 : 		if ( lpTargetObj != NULL)

  005bd	85 db		 test	 ebx, ebx
  005bf	0f 84 a7 00 00
	00		 je	 $LN80@gObjMonste@12

; 2406 : 		{
; 2407 : 			int tdir = GetPathPacketDirPos(lpTargetObj->X-lpObj->X, lpTargetObj->Y-lpObj->Y)*2;

  005c5	0f bf 8b 46 01
	00 00		 movsx	 ecx, WORD PTR [ebx+326]
  005cc	0f bf 96 46 01
	00 00		 movsx	 edx, WORD PTR [esi+326]
  005d3	0f bf 83 44 01
	00 00		 movsx	 eax, WORD PTR [ebx+324]
  005da	2b ca		 sub	 ecx, edx
  005dc	51		 push	 ecx
  005dd	0f bf 8e 44 01
	00 00		 movsx	 ecx, WORD PTR [esi+324]
  005e4	2b c1		 sub	 eax, ecx
  005e6	50		 push	 eax
  005e7	e8 00 00 00 00	 call	 ?GetPathPacketDirPos@@YAEHH@Z ; GetPathPacketDirPos
  005ec	0f b6 c0	 movzx	 eax, al
  005ef	03 c0		 add	 eax, eax

; 2408 : 			lpObj->MTX += RoadPathTable[tdir] * (-3);

  005f1	66 8b 0c 45 00
	00 00 00	 mov	 cx, WORD PTR ?RoadPathTable@@3PAFA[eax*2]
  005f9	66 8b d1	 mov	 dx, cx
  005fc	66 03 d2	 add	 dx, dx
  005ff	66 03 d2	 add	 dx, dx
  00602	66 2b d1	 sub	 dx, cx
  00605	66 f7 da	 neg	 dx
  00608	66 01 96 80 01
	00 00		 add	 WORD PTR [esi+384], dx

; 2409 : 			lpObj->MTY += RoadPathTable[tdir+1] * (-3);

  0060f	66 8b 04 45 02
	00 00 00	 mov	 ax, WORD PTR ?RoadPathTable@@3PAFA[eax*2+2]
  00617	66 8b c8	 mov	 cx, ax
  0061a	66 03 c9	 add	 cx, cx
  0061d	66 03 c9	 add	 cx, cx
  00620	83 c4 08	 add	 esp, 8
  00623	66 2b c8	 sub	 cx, ax
  00626	66 f7 d9	 neg	 cx
  00629	66 01 8e 82 01
	00 00		 add	 WORD PTR [esi+386], cx
  00630	5f		 pop	 edi
  00631	5e		 pop	 esi
  00632	5b		 pop	 ebx

; 2426 : 	}
; 2427 : }

  00633	8b e5		 mov	 esp, ebp
  00635	5d		 pop	 ebp
  00636	c3		 ret	 0
$LN8@gObjMonste@12:

; 2410 : 		}
; 2411 : 	}
; 2412 : 	else if ( lpObj->m_ActState.Emotion == 3 )

  00637	83 f9 03	 cmp	 ecx, 3
  0063a	75 30		 jne	 SHORT $LN80@gObjMonste@12

; 2413 : 	{
; 2414 : 		if ( lpObj->m_ActState.EmotionCount > 0 )

  0063c	8a 8e 19 02 00
	00		 mov	 cl, BYTE PTR [esi+537]
  00642	84 c9		 test	 cl, cl
  00644	74 0a		 je	 SHORT $LN2@gObjMonste@12

; 2415 : 		{
; 2416 : 			lpObj->m_ActState.EmotionCount--;

  00646	fe c9		 dec	 cl
  00648	88 8e 19 02 00
	00		 mov	 BYTE PTR [esi+537], cl

; 2417 : 		}
; 2418 : 		else

  0064e	eb 0b		 jmp	 SHORT $LN1@gObjMonste@12
$LN2@gObjMonste@12:

; 2419 : 		{
; 2420 : 			lpObj->m_ActState.Emotion = 0;

  00650	25 0f ff ff ff	 and	 eax, -241		; ffffff0fH
  00655	89 86 18 02 00
	00		 mov	 DWORD PTR [esi+536], eax
$LN1@gObjMonste@12:

; 2421 : 		}
; 2422 : 
; 2423 : 		lpObj->m_ActState.Move = 0;
; 2424 : 		lpObj->m_ActState.Attack = 0;

  0065b	83 a6 18 02 00
	00 f9		 and	 DWORD PTR [esi+536], -7	; fffffff9H

; 2425 : 		lpObj->NextActionTime = 400;

  00662	c7 86 bc 03 00
	00 90 01 00 00	 mov	 DWORD PTR [esi+956], 400 ; 00000190H
$LN80@gObjMonste@12:
  0066c	5f		 pop	 edi
$LN3@gObjMonste@12:
  0066d	5e		 pop	 esi
  0066e	5b		 pop	 ebx

; 2426 : 	}
; 2427 : }

  0066f	8b e5		 mov	 esp, ebp
  00671	5d		 pop	 ebp
  00672	c3		 ret	 0
?gObjMonsterBaseAct@@YAXPAUOBJECTSTRUCT@@@Z ENDP	; gObjMonsterBaseAct
_TEXT	ENDS
PUBLIC	?gObjTrapAttackEnemySearchX@@YAXPAUOBJECTSTRUCT@@H@Z ; gObjTrapAttackEnemySearchX
; Function compile flags: /Ogtp
;	COMDAT ?gObjTrapAttackEnemySearchX@@YAXPAUOBJECTSTRUCT@@H@Z
_TEXT	SEGMENT
_y$ = -12						; size = 4
_n$228243 = -8						; size = 4
_pos$ = -4						; size = 4
_lpObj$ = 8						; size = 4
_count$ = 12						; size = 4
?gObjTrapAttackEnemySearchX@@YAXPAUOBJECTSTRUCT@@H@Z PROC ; gObjTrapAttackEnemySearchX, COMDAT

; 2430 : {

  00000	55		 push	 ebp
  00001	8b ec		 mov	 ebp, esp
  00003	83 ec 0c	 sub	 esp, 12			; 0000000cH
  00006	56		 push	 esi

; 2431 : 	lpObj->TargetNumber = -1;

  00007	8b 75 08	 mov	 esi, DWORD PTR _lpObj$[ebp]

; 2432 : 	int tObjNum;
; 2433 : 	int pos = lpObj->X;

  0000a	0f bf 8e 44 01
	00 00		 movsx	 ecx, WORD PTR [esi+324]

; 2434 : 	int y = lpObj->Y;

  00011	0f bf 96 46 01
	00 00		 movsx	 edx, WORD PTR [esi+326]
  00018	83 c8 ff	 or	 eax, -1

; 2435 : 
; 2436 : 	for(int n =0;n<count;n++)

  0001b	83 7d 0c 00	 cmp	 DWORD PTR _count$[ebp], 0
  0001f	66 89 86 58 04
	00 00		 mov	 WORD PTR [esi+1112], ax
  00026	89 4d fc	 mov	 DWORD PTR _pos$[ebp], ecx
  00029	89 55 f4	 mov	 DWORD PTR _y$[ebp], edx
  0002c	c7 45 f8 00 00
	00 00		 mov	 DWORD PTR _n$228243[ebp], 0
  00033	0f 8e 88 00 00
	00		 jle	 $LN10@gObjTrapAt
  00039	53		 push	 ebx
  0003a	57		 push	 edi
  0003b	8d 78 02	 lea	 edi, DWORD PTR [eax+2]
  0003e	eb 03		 jmp	 SHORT $LN12@gObjTrapAt
$LL23@gObjTrapAt:
  00040	8b 75 08	 mov	 esi, DWORD PTR _lpObj$[ebp]
$LN12@gObjTrapAt:

; 2437 : 	{
; 2438 : 		pos++;

  00043	01 7d fc	 add	 DWORD PTR _pos$[ebp], edi

; 2439 : 		for(int i =0; i< MAX_VIEWPORT_MONSTER; i++)

  00046	33 d2		 xor	 edx, edx
  00048	81 c6 ae 08 00
	00		 add	 esi, 2222		; 000008aeH
  0004e	8b ff		 npad	 2
$LL24@gObjTrapAt:

; 2440 : 		{
; 2441 : 			tObjNum = lpObj->VpPlayer2[i].number;

  00050	0f bf 0e	 movsx	 ecx, WORD PTR [esi]

; 2442 : 
; 2443 : 			if(tObjNum >= 0)

  00053	85 c9		 test	 ecx, ecx
  00055	78 3b		 js	 SHORT $LN8@gObjTrapAt

; 2444 : 			{
; 2445 : 				if(gObj[tObjNum].Type==OBJ_USER)

  00057	8b c1		 mov	 eax, ecx
  00059	69 c0 50 2b 00
	00		 imul	 eax, 11088		; 00002b50H
  0005f	03 05 00 00 00
	00		 add	 eax, DWORD PTR ?gObj@@3PAUOBJECTSTRUCT@@A ; gObj
  00065	66 39 78 68	 cmp	 WORD PTR [eax+104], di
  00069	75 27		 jne	 SHORT $LN8@gObjTrapAt

; 2446 : 				{
; 2447 : 					if(gObj[tObjNum].Live)

  0006b	80 78 6a 00	 cmp	 BYTE PTR [eax+106], 0
  0006f	74 21		 je	 SHORT $LN8@gObjTrapAt

; 2448 : 					{
; 2449 : 						if(y == gObj[tObjNum].Y)

  00071	0f bf b8 46 01
	00 00		 movsx	 edi, WORD PTR [eax+326]
  00078	39 7d f4	 cmp	 DWORD PTR _y$[ebp], edi
  0007b	75 15		 jne	 SHORT $LN8@gObjTrapAt

; 2450 : 						{
; 2451 : 							if(pos == gObj[tObjNum].X)

  0007d	0f bf b8 44 01
	00 00		 movsx	 edi, WORD PTR [eax+324]
  00084	39 7d fc	 cmp	 DWORD PTR _pos$[ebp], edi
  00087	75 09		 jne	 SHORT $LN8@gObjTrapAt

; 2452 : 							{
; 2453 : 								if((gObj[tObjNum].Authority&2)!=2)

  00089	f6 80 0c 02 00
	00 02		 test	 BYTE PTR [eax+524], 2
  00090	74 23		 je	 SHORT $LN17@gObjTrapAt
$LN8@gObjTrapAt:

; 2439 : 		for(int i =0; i< MAX_VIEWPORT_MONSTER; i++)

  00092	bf 01 00 00 00	 mov	 edi, 1
  00097	03 d7		 add	 edx, edi
  00099	83 c6 0c	 add	 esi, 12			; 0000000cH
  0009c	83 fa 4b	 cmp	 edx, 75			; 0000004bH
  0009f	7c af		 jl	 SHORT $LL24@gObjTrapAt

; 2435 : 
; 2436 : 	for(int n =0;n<count;n++)

  000a1	8b 45 f8	 mov	 eax, DWORD PTR _n$228243[ebp]
  000a4	03 c7		 add	 eax, edi
  000a6	89 45 f8	 mov	 DWORD PTR _n$228243[ebp], eax
  000a9	3b 45 0c	 cmp	 eax, DWORD PTR _count$[ebp]
  000ac	7c 92		 jl	 SHORT $LL23@gObjTrapAt
  000ae	5f		 pop	 edi
  000af	5b		 pop	 ebx
  000b0	5e		 pop	 esi

; 2456 : 									return;
; 2457 : 								}
; 2458 : 							}
; 2459 : 						}
; 2460 : 					}
; 2461 : 				}
; 2462 : 			}
; 2463 : 		}
; 2464 : 	}
; 2465 : }

  000b1	8b e5		 mov	 esp, ebp
  000b3	5d		 pop	 ebp
  000b4	c3		 ret	 0
$LN17@gObjTrapAt:

; 2454 : 								{
; 2455 : 									lpObj->TargetNumber = tObjNum;

  000b5	8b 55 08	 mov	 edx, DWORD PTR _lpObj$[ebp]
  000b8	5f		 pop	 edi
  000b9	66 89 8a 58 04
	00 00		 mov	 WORD PTR [edx+1112], cx
  000c0	5b		 pop	 ebx
$LN10@gObjTrapAt:
  000c1	5e		 pop	 esi

; 2456 : 									return;
; 2457 : 								}
; 2458 : 							}
; 2459 : 						}
; 2460 : 					}
; 2461 : 				}
; 2462 : 			}
; 2463 : 		}
; 2464 : 	}
; 2465 : }

  000c2	8b e5		 mov	 esp, ebp
  000c4	5d		 pop	 ebp
  000c5	c3		 ret	 0
?gObjTrapAttackEnemySearchX@@YAXPAUOBJECTSTRUCT@@H@Z ENDP ; gObjTrapAttackEnemySearchX
_TEXT	ENDS
PUBLIC	?gObjTrapAttackEnemySearchY@@YAXPAUOBJECTSTRUCT@@H@Z ; gObjTrapAttackEnemySearchY
; Function compile flags: /Ogtp
;	COMDAT ?gObjTrapAttackEnemySearchY@@YAXPAUOBJECTSTRUCT@@H@Z
_TEXT	SEGMENT
_x$ = -12						; size = 4
_n$228264 = -8						; size = 4
_pos$ = -4						; size = 4
_lpObj$ = 8						; size = 4
_count$ = 12						; size = 4
?gObjTrapAttackEnemySearchY@@YAXPAUOBJECTSTRUCT@@H@Z PROC ; gObjTrapAttackEnemySearchY, COMDAT

; 2468 : {

  00000	55		 push	 ebp
  00001	8b ec		 mov	 ebp, esp
  00003	83 ec 0c	 sub	 esp, 12			; 0000000cH
  00006	56		 push	 esi

; 2469 : 	lpObj->TargetNumber = -1;

  00007	8b 75 08	 mov	 esi, DWORD PTR _lpObj$[ebp]

; 2470 : 	int tObjNum;
; 2471 : 	int pos = lpObj->Y;

  0000a	0f bf 8e 46 01
	00 00		 movsx	 ecx, WORD PTR [esi+326]

; 2472 : 	int x = lpObj->X;

  00011	0f bf 96 44 01
	00 00		 movsx	 edx, WORD PTR [esi+324]
  00018	83 c8 ff	 or	 eax, -1

; 2473 : 
; 2474 : 	for(int n =0;n<count;n++)

  0001b	83 7d 0c 00	 cmp	 DWORD PTR _count$[ebp], 0
  0001f	66 89 86 58 04
	00 00		 mov	 WORD PTR [esi+1112], ax
  00026	89 4d fc	 mov	 DWORD PTR _pos$[ebp], ecx
  00029	89 55 f4	 mov	 DWORD PTR _x$[ebp], edx
  0002c	c7 45 f8 00 00
	00 00		 mov	 DWORD PTR _n$228264[ebp], 0
  00033	0f 8e 88 00 00
	00		 jle	 $LN10@gObjTrapAt@2
  00039	53		 push	 ebx
  0003a	57		 push	 edi
  0003b	8d 78 02	 lea	 edi, DWORD PTR [eax+2]
  0003e	eb 03		 jmp	 SHORT $LN12@gObjTrapAt@2
$LL23@gObjTrapAt@2:
  00040	8b 75 08	 mov	 esi, DWORD PTR _lpObj$[ebp]
$LN12@gObjTrapAt@2:

; 2475 : 	{
; 2476 : 		pos--;

  00043	29 7d fc	 sub	 DWORD PTR _pos$[ebp], edi

; 2477 : 		for(int i =0; i< MAX_VIEWPORT_MONSTER; i++)

  00046	33 d2		 xor	 edx, edx
  00048	81 c6 ae 08 00
	00		 add	 esi, 2222		; 000008aeH
  0004e	8b ff		 npad	 2
$LL24@gObjTrapAt@2:

; 2478 : 		{
; 2479 : 			tObjNum = lpObj->VpPlayer2[i].number;

  00050	0f bf 0e	 movsx	 ecx, WORD PTR [esi]

; 2480 : 
; 2481 : 			if(tObjNum >= 0)

  00053	85 c9		 test	 ecx, ecx
  00055	78 3b		 js	 SHORT $LN8@gObjTrapAt@2

; 2482 : 			{
; 2483 : 				if(gObj[tObjNum].Type==1)

  00057	8b c1		 mov	 eax, ecx
  00059	69 c0 50 2b 00
	00		 imul	 eax, 11088		; 00002b50H
  0005f	03 05 00 00 00
	00		 add	 eax, DWORD PTR ?gObj@@3PAUOBJECTSTRUCT@@A ; gObj
  00065	66 39 78 68	 cmp	 WORD PTR [eax+104], di
  00069	75 27		 jne	 SHORT $LN8@gObjTrapAt@2

; 2484 : 				{
; 2485 : 					if(gObj[tObjNum].Live)

  0006b	80 78 6a 00	 cmp	 BYTE PTR [eax+106], 0
  0006f	74 21		 je	 SHORT $LN8@gObjTrapAt@2

; 2486 : 					{
; 2487 : 						if(pos == gObj[tObjNum].Y)

  00071	0f bf b8 46 01
	00 00		 movsx	 edi, WORD PTR [eax+326]
  00078	39 7d fc	 cmp	 DWORD PTR _pos$[ebp], edi
  0007b	75 15		 jne	 SHORT $LN8@gObjTrapAt@2

; 2488 : 						{
; 2489 : 							if(x == gObj[tObjNum].X)

  0007d	0f bf b8 44 01
	00 00		 movsx	 edi, WORD PTR [eax+324]
  00084	39 7d f4	 cmp	 DWORD PTR _x$[ebp], edi
  00087	75 09		 jne	 SHORT $LN8@gObjTrapAt@2

; 2490 : 							{
; 2491 : 								if((gObj[tObjNum].Authority&2)!=2)

  00089	f6 80 0c 02 00
	00 02		 test	 BYTE PTR [eax+524], 2
  00090	74 23		 je	 SHORT $LN17@gObjTrapAt@2
$LN8@gObjTrapAt@2:

; 2477 : 		for(int i =0; i< MAX_VIEWPORT_MONSTER; i++)

  00092	bf 01 00 00 00	 mov	 edi, 1
  00097	03 d7		 add	 edx, edi
  00099	83 c6 0c	 add	 esi, 12			; 0000000cH
  0009c	83 fa 4b	 cmp	 edx, 75			; 0000004bH
  0009f	7c af		 jl	 SHORT $LL24@gObjTrapAt@2

; 2473 : 
; 2474 : 	for(int n =0;n<count;n++)

  000a1	8b 45 f8	 mov	 eax, DWORD PTR _n$228264[ebp]
  000a4	03 c7		 add	 eax, edi
  000a6	89 45 f8	 mov	 DWORD PTR _n$228264[ebp], eax
  000a9	3b 45 0c	 cmp	 eax, DWORD PTR _count$[ebp]
  000ac	7c 92		 jl	 SHORT $LL23@gObjTrapAt@2
  000ae	5f		 pop	 edi
  000af	5b		 pop	 ebx
  000b0	5e		 pop	 esi

; 2494 : 									return;
; 2495 : 								}
; 2496 : 							}
; 2497 : 						}
; 2498 : 					}
; 2499 : 				}
; 2500 : 			}
; 2501 : 		}
; 2502 : 	}
; 2503 : }

  000b1	8b e5		 mov	 esp, ebp
  000b3	5d		 pop	 ebp
  000b4	c3		 ret	 0
$LN17@gObjTrapAt@2:

; 2492 : 								{
; 2493 : 									lpObj->TargetNumber = tObjNum;

  000b5	8b 55 08	 mov	 edx, DWORD PTR _lpObj$[ebp]
  000b8	5f		 pop	 edi
  000b9	66 89 8a 58 04
	00 00		 mov	 WORD PTR [edx+1112], cx
  000c0	5b		 pop	 ebx
$LN10@gObjTrapAt@2:
  000c1	5e		 pop	 esi

; 2494 : 									return;
; 2495 : 								}
; 2496 : 							}
; 2497 : 						}
; 2498 : 					}
; 2499 : 				}
; 2500 : 			}
; 2501 : 		}
; 2502 : 	}
; 2503 : }

  000c2	8b e5		 mov	 esp, ebp
  000c4	5d		 pop	 ebp
  000c5	c3		 ret	 0
?gObjTrapAttackEnemySearchY@@YAXPAUOBJECTSTRUCT@@H@Z ENDP ; gObjTrapAttackEnemySearchY
_TEXT	ENDS
PUBLIC	?gObjTrapAttackEnemySearch@@YAXPAUOBJECTSTRUCT@@@Z ; gObjTrapAttackEnemySearch
; Function compile flags: /Ogtp
;	COMDAT ?gObjTrapAttackEnemySearch@@YAXPAUOBJECTSTRUCT@@@Z
_TEXT	SEGMENT
_lpObj$ = 8						; size = 4
?gObjTrapAttackEnemySearch@@YAXPAUOBJECTSTRUCT@@@Z PROC	; gObjTrapAttackEnemySearch, COMDAT

; 2506 : {

  00000	55		 push	 ebp
  00001	8b ec		 mov	 ebp, esp
  00003	53		 push	 ebx
  00004	56		 push	 esi
  00005	57		 push	 edi

; 2507 : 	int tObjNum;
; 2508 : 	lpObj->TargetNumber = -1;

  00006	8b 7d 08	 mov	 edi, DWORD PTR _lpObj$[ebp]
  00009	83 c8 ff	 or	 eax, -1
  0000c	66 89 87 58 04
	00 00		 mov	 WORD PTR [edi+1112], ax

; 2509 : 
; 2510 : 	for(int i = 0; i < MAX_VIEWPORT_MONSTER;i++)

  00013	33 d2		 xor	 edx, edx
  00015	8d b7 ae 08 00
	00		 lea	 esi, DWORD PTR [edi+2222]
  0001b	eb 03 8d 49 00	 npad	 5
$LL18@gObjTrapAt@3:

; 2511 : 	{
; 2512 : 		tObjNum = lpObj->VpPlayer2[i].number;

  00020	0f bf 0e	 movsx	 ecx, WORD PTR [esi]

; 2513 : 
; 2514 : 		if(tObjNum >= 0)

  00023	85 c9		 test	 ecx, ecx
  00025	78 44		 js	 SHORT $LN8@gObjTrapAt@3

; 2515 : 		{
; 2516 : 			if(gObj[tObjNum].Type==1)

  00027	8b c1		 mov	 eax, ecx
  00029	69 c0 50 2b 00
	00		 imul	 eax, 11088		; 00002b50H
  0002f	03 05 00 00 00
	00		 add	 eax, DWORD PTR ?gObj@@3PAUOBJECTSTRUCT@@A ; gObj
  00035	66 83 78 68 01	 cmp	 WORD PTR [eax+104], 1
  0003a	75 2f		 jne	 SHORT $LN8@gObjTrapAt@3

; 2517 : 			{
; 2518 : 				if(gObj[tObjNum].Live)

  0003c	80 78 6a 00	 cmp	 BYTE PTR [eax+106], 0
  00040	74 29		 je	 SHORT $LN8@gObjTrapAt@3

; 2519 : 				{
; 2520 : 					if(lpObj->Y == gObj[tObjNum].Y)

  00042	66 8b 9f 46 01
	00 00		 mov	 bx, WORD PTR [edi+326]
  00049	66 3b 98 46 01
	00 00		 cmp	 bx, WORD PTR [eax+326]
  00050	75 19		 jne	 SHORT $LN8@gObjTrapAt@3

; 2521 : 					{
; 2522 : 						if(lpObj->X == gObj[tObjNum].X)

  00052	66 8b 9f 44 01
	00 00		 mov	 bx, WORD PTR [edi+324]
  00059	66 3b 98 44 01
	00 00		 cmp	 bx, WORD PTR [eax+324]
  00060	75 09		 jne	 SHORT $LN8@gObjTrapAt@3

; 2523 : 						{
; 2524 : 							if((gObj[tObjNum].Authority&2)!=2)

  00062	f6 80 0c 02 00
	00 02		 test	 BYTE PTR [eax+524], 2
  00069	74 0e		 je	 SHORT $LN13@gObjTrapAt@3
$LN8@gObjTrapAt@3:

; 2509 : 
; 2510 : 	for(int i = 0; i < MAX_VIEWPORT_MONSTER;i++)

  0006b	42		 inc	 edx
  0006c	83 c6 0c	 add	 esi, 12			; 0000000cH
  0006f	83 fa 4b	 cmp	 edx, 75			; 0000004bH
  00072	7c ac		 jl	 SHORT $LL18@gObjTrapAt@3
  00074	5f		 pop	 edi
  00075	5e		 pop	 esi
  00076	5b		 pop	 ebx

; 2527 : 								return;
; 2528 : 							}
; 2529 : 						}
; 2530 : 					}
; 2531 : 				}
; 2532 : 			}
; 2533 : 		}
; 2534 : 	}
; 2535 : }

  00077	5d		 pop	 ebp
  00078	c3		 ret	 0
$LN13@gObjTrapAt@3:

; 2525 : 							{
; 2526 : 								lpObj->TargetNumber = tObjNum;

  00079	66 89 8f 58 04
	00 00		 mov	 WORD PTR [edi+1112], cx
  00080	5f		 pop	 edi
  00081	5e		 pop	 esi
  00082	5b		 pop	 ebx

; 2527 : 								return;
; 2528 : 							}
; 2529 : 						}
; 2530 : 					}
; 2531 : 				}
; 2532 : 			}
; 2533 : 		}
; 2534 : 	}
; 2535 : }

  00083	5d		 pop	 ebp
  00084	c3		 ret	 0
?gObjTrapAttackEnemySearch@@YAXPAUOBJECTSTRUCT@@@Z ENDP	; gObjTrapAttackEnemySearch
_TEXT	ENDS
PUBLIC	?gObjTrapAttackEnemySearchRange@@YAXPAUOBJECTSTRUCT@@H@Z ; gObjTrapAttackEnemySearchRange
; Function compile flags: /Ogtp
;	COMDAT ?gObjTrapAttackEnemySearchRange@@YAXPAUOBJECTSTRUCT@@H@Z
_TEXT	SEGMENT
_iTargetingRate$ = -8					; size = 4
_i$228300 = -4						; size = 4
tv290 = 8						; size = 4
_lpObj$ = 8						; size = 4
_iRange$ = 12						; size = 4
?gObjTrapAttackEnemySearchRange@@YAXPAUOBJECTSTRUCT@@H@Z PROC ; gObjTrapAttackEnemySearchRange, COMDAT

; 2539 : {

  00000	55		 push	 ebp
  00001	8b ec		 mov	 ebp, esp
  00003	83 ec 08	 sub	 esp, 8
  00006	56		 push	 esi

; 2540 : 	int tObjNum = -1;
; 2541 : 	int iTargetingRate = 0;
; 2542 : 	int iSuccessRate = 0;
; 2543 : 
; 2544 : 	lpObj->TargetNumber = -1;

  00007	8b 75 08	 mov	 esi, DWORD PTR _lpObj$[ebp]

; 2545 : 
; 2546 : 	if(lpObj->VPCount <= 0)

  0000a	8b 8e 30 0c 00
	00		 mov	 ecx, DWORD PTR [esi+3120]
  00010	83 c8 ff	 or	 eax, -1
  00013	66 89 86 58 04
	00 00		 mov	 WORD PTR [esi+1112], ax
  0001a	85 c9		 test	 ecx, ecx
  0001c	0f 8e b9 00 00
	00		 jle	 $LN15@gObjTrapAt@4

; 2547 : 	{
; 2548 : 		return;
; 2549 : 	}
; 2550 : 
; 2551 : 	iTargetingRate = 100 / lpObj->VPCount;

  00022	b8 64 00 00 00	 mov	 eax, 100		; 00000064H
  00027	99		 cdq
  00028	f7 f9		 idiv	 ecx
  0002a	57		 push	 edi
  0002b	8b 7d 0c	 mov	 edi, DWORD PTR _iRange$[ebp]
  0002e	8d 8e ae 08 00
	00		 lea	 ecx, DWORD PTR [esi+2222]

; 2552 : 
; 2553 : 	for(int i = 0; i < MAX_VIEWPORT_MONSTER;i++)

  00034	c7 45 fc 00 00
	00 00		 mov	 DWORD PTR _i$228300[ebp], 0
  0003b	89 4d 08	 mov	 DWORD PTR tv290[ebp], ecx
  0003e	53		 push	 ebx
  0003f	89 45 f8	 mov	 DWORD PTR _iTargetingRate$[ebp], eax
$LL18@gObjTrapAt@4:

; 2554 : 	{
; 2555 : 		tObjNum = lpObj->VpPlayer2[i].number;

  00042	8b 55 08	 mov	 edx, DWORD PTR tv290[ebp]
  00045	0f bf 02	 movsx	 eax, WORD PTR [edx]

; 2556 : 
; 2557 : 		if(tObjNum >= 0)

  00048	85 c0		 test	 eax, eax
  0004a	78 79		 js	 SHORT $LN9@gObjTrapAt@4

; 2558 : 		{
; 2559 : 			if(gObj[tObjNum].Type==1)

  0004c	69 c0 50 2b 00
	00		 imul	 eax, 11088		; 00002b50H
  00052	03 05 00 00 00
	00		 add	 eax, DWORD PTR ?gObj@@3PAUOBJECTSTRUCT@@A ; gObj
  00058	66 83 78 68 01	 cmp	 WORD PTR [eax+104], 1
  0005d	75 66		 jne	 SHORT $LN9@gObjTrapAt@4

; 2560 : 			{
; 2561 : 				if(gObj[tObjNum].Live)

  0005f	80 78 6a 00	 cmp	 BYTE PTR [eax+106], 0
  00063	74 60		 je	 SHORT $LN9@gObjTrapAt@4

; 2562 : 				{
; 2563 : 					if((lpObj->Y - iRange) <= gObj[tObjNum].Y && (lpObj->Y + iRange) >= gObj[tObjNum].Y)

  00065	0f bf 96 46 01
	00 00		 movsx	 edx, WORD PTR [esi+326]
  0006c	0f bf 88 46 01
	00 00		 movsx	 ecx, WORD PTR [eax+326]
  00073	8b da		 mov	 ebx, edx
  00075	2b df		 sub	 ebx, edi
  00077	3b d9		 cmp	 ebx, ecx
  00079	7f 4a		 jg	 SHORT $LN9@gObjTrapAt@4
  0007b	03 d7		 add	 edx, edi
  0007d	3b d1		 cmp	 edx, ecx
  0007f	7c 44		 jl	 SHORT $LN9@gObjTrapAt@4

; 2564 : 					{
; 2565 : 						if((lpObj->X - iRange) <= gObj[tObjNum].X && (lpObj->X + iRange) >= gObj[tObjNum].X)

  00081	0f bf 96 44 01
	00 00		 movsx	 edx, WORD PTR [esi+324]
  00088	0f bf 88 44 01
	00 00		 movsx	 ecx, WORD PTR [eax+324]
  0008f	8b da		 mov	 ebx, edx
  00091	2b df		 sub	 ebx, edi
  00093	3b d9		 cmp	 ebx, ecx
  00095	7f 2e		 jg	 SHORT $LN9@gObjTrapAt@4
  00097	03 d7		 add	 edx, edi
  00099	3b d1		 cmp	 edx, ecx
  0009b	7c 28		 jl	 SHORT $LN9@gObjTrapAt@4

; 2566 : 						{
; 2567 : 							if((gObj[tObjNum].Authority&2)!=2)

  0009d	f6 80 0c 02 00
	00 02		 test	 BYTE PTR [eax+524], 2
  000a4	75 1f		 jne	 SHORT $LN9@gObjTrapAt@4

; 2568 : 							{
; 2569 : 								lpObj->TargetNumber = tObjNum;

  000a6	8b 55 08	 mov	 edx, DWORD PTR tv290[ebp]
  000a9	0f bf 02	 movsx	 eax, WORD PTR [edx]
  000ac	66 89 86 58 04
	00 00		 mov	 WORD PTR [esi+1112], ax

; 2570 : 								iSuccessRate = rand()%100;

  000b3	e8 00 00 00 00	 call	 _rand
  000b8	99		 cdq
  000b9	b9 64 00 00 00	 mov	 ecx, 100		; 00000064H
  000be	f7 f9		 idiv	 ecx

; 2571 : 
; 2572 : 								if(iSuccessRate < iTargetingRate)

  000c0	3b 55 f8	 cmp	 edx, DWORD PTR _iTargetingRate$[ebp]
  000c3	7c 14		 jl	 SHORT $LN20@gObjTrapAt@4
$LN9@gObjTrapAt@4:

; 2552 : 
; 2553 : 	for(int i = 0; i < MAX_VIEWPORT_MONSTER;i++)

  000c5	8b 45 fc	 mov	 eax, DWORD PTR _i$228300[ebp]
  000c8	83 45 08 0c	 add	 DWORD PTR tv290[ebp], 12 ; 0000000cH
  000cc	40		 inc	 eax
  000cd	89 45 fc	 mov	 DWORD PTR _i$228300[ebp], eax
  000d0	83 f8 4b	 cmp	 eax, 75			; 0000004bH
  000d3	0f 8c 69 ff ff
	ff		 jl	 $LL18@gObjTrapAt@4
$LN20@gObjTrapAt@4:
  000d9	5b		 pop	 ebx
  000da	5f		 pop	 edi
$LN15@gObjTrapAt@4:
  000db	5e		 pop	 esi

; 2573 : 								{
; 2574 : 									break;
; 2575 : 								}
; 2576 : 							}
; 2577 : 						}
; 2578 : 					}
; 2579 : 				}
; 2580 : 			}
; 2581 : 		}
; 2582 : 	}
; 2583 : }

  000dc	8b e5		 mov	 esp, ebp
  000de	5d		 pop	 ebp
  000df	c3		 ret	 0
?gObjTrapAttackEnemySearchRange@@YAXPAUOBJECTSTRUCT@@H@Z ENDP ; gObjTrapAttackEnemySearchRange
_TEXT	ENDS
PUBLIC	?gObjMonsterTrapAct@@YAXPAUOBJECTSTRUCT@@@Z	; gObjMonsterTrapAct
; Function compile flags: /Ogtp
;	COMDAT ?gObjMonsterTrapAct@@YAXPAUOBJECTSTRUCT@@@Z
_TEXT	SEGMENT
_lpObj$ = 8						; size = 4
?gObjMonsterTrapAct@@YAXPAUOBJECTSTRUCT@@@Z PROC	; gObjMonsterTrapAct, COMDAT

; 2587 : {

  00000	55		 push	 ebp
  00001	8b ec		 mov	 ebp, esp
  00003	56		 push	 esi

; 2588 : 	if(lpObj->VPCount2 < 1)

  00004	8b 75 08	 mov	 esi, DWORD PTR _lpObj$[ebp]
  00007	83 be 34 0c 00
	00 01		 cmp	 DWORD PTR [esi+3124], 1
  0000e	0f 8c 84 00 00
	00		 jl	 $LN1@gObjMonste@13

; 2589 : 	{
; 2590 : 		return;
; 2591 : 	}
; 2592 : 
; 2593 : 	if(lpObj->m_AttackRange > 0)

  00014	0f b7 86 b0 04
	00 00		 movzx	 eax, WORD PTR [esi+1200]
  0001b	66 85 c0	 test	 ax, ax
  0001e	7e 42		 jle	 SHORT $LN9@gObjMonste@13

; 2594 : 	{
; 2595 : 		if(lpObj->Dir == 3)

  00020	8a 8e 48 01 00
	00		 mov	 cl, BYTE PTR [esi+328]
  00026	80 f9 03	 cmp	 cl, 3
  00029	75 0e		 jne	 SHORT $LN8@gObjMonste@13

; 2596 : 		{
; 2597 : 			gObjTrapAttackEnemySearchX(lpObj,lpObj->m_AttackRange+1);

  0002b	98		 cwde
  0002c	40		 inc	 eax
  0002d	50		 push	 eax
  0002e	56		 push	 esi
  0002f	e8 00 00 00 00	 call	 ?gObjTrapAttackEnemySearchX@@YAXPAUOBJECTSTRUCT@@H@Z ; gObjTrapAttackEnemySearchX
  00034	83 c4 08	 add	 esp, 8
  00037	eb 32		 jmp	 SHORT $LN3@gObjMonste@13
$LN8@gObjMonste@13:

; 2598 : 		}
; 2599 : 		else if(lpObj->Dir == 1)

  00039	80 f9 01	 cmp	 cl, 1
  0003c	75 10		 jne	 SHORT $LN6@gObjMonste@13

; 2600 : 		{
; 2601 : 			gObjTrapAttackEnemySearchY(lpObj,lpObj->m_AttackRange+1);

  0003e	0f bf c8	 movsx	 ecx, ax
  00041	41		 inc	 ecx
  00042	51		 push	 ecx
  00043	56		 push	 esi
  00044	e8 00 00 00 00	 call	 ?gObjTrapAttackEnemySearchY@@YAXPAUOBJECTSTRUCT@@H@Z ; gObjTrapAttackEnemySearchY
  00049	83 c4 08	 add	 esp, 8
  0004c	eb 1d		 jmp	 SHORT $LN3@gObjMonste@13
$LN6@gObjMonste@13:

; 2602 : 		}
; 2603 : //#if(GS_CASTLE==0)
; 2604 : 		else if(lpObj->Dir == 8)

  0004e	80 f9 08	 cmp	 cl, 8
  00051	75 18		 jne	 SHORT $LN3@gObjMonste@13

; 2605 : 		{
; 2606 : 			gObjTrapAttackEnemySearchRange(lpObj,lpObj->m_AttackRange);

  00053	0f bf d0	 movsx	 edx, ax
  00056	52		 push	 edx
  00057	56		 push	 esi
  00058	e8 00 00 00 00	 call	 ?gObjTrapAttackEnemySearchRange@@YAXPAUOBJECTSTRUCT@@H@Z ; gObjTrapAttackEnemySearchRange
  0005d	83 c4 08	 add	 esp, 8

; 2607 : 		}
; 2608 : //#endif
; 2609 : 	}
; 2610 : 	else

  00060	eb 09		 jmp	 SHORT $LN3@gObjMonste@13
$LN9@gObjMonste@13:

; 2611 : 	{
; 2612 : 		gObjTrapAttackEnemySearch(lpObj);

  00062	56		 push	 esi
  00063	e8 00 00 00 00	 call	 ?gObjTrapAttackEnemySearch@@YAXPAUOBJECTSTRUCT@@@Z ; gObjTrapAttackEnemySearch
  00068	83 c4 04	 add	 esp, 4
$LN3@gObjMonste@13:

; 2613 : 	}
; 2614 : 
; 2615 : 	if(lpObj->TargetNumber >= 0)

  0006b	66 83 be 58 04
	00 00 00	 cmp	 WORD PTR [esi+1112], 0
  00073	7c 16		 jl	 SHORT $LN2@gObjMonste@13

; 2616 : 	{
; 2617 : 		lpObj->m_ActState.Attack = 1;
; 2618 : 		lpObj->NextActionTime = lpObj->m_AttackSpeed;

  00075	8b 86 8c 04 00
	00		 mov	 eax, DWORD PTR [esi+1164]
  0007b	83 8e 18 02 00
	00 02		 or	 DWORD PTR [esi+536], 2
  00082	89 86 bc 03 00
	00		 mov	 DWORD PTR [esi+956], eax
  00088	5e		 pop	 esi

; 2623 : 	}
; 2624 : }

  00089	5d		 pop	 ebp
  0008a	c3		 ret	 0
$LN2@gObjMonste@13:

; 2619 : 	}
; 2620 : 	else
; 2621 : 	{
; 2622 : 		lpObj->NextActionTime = lpObj->m_MoveSpeed;

  0008b	0f bf 8e ac 04
	00 00		 movsx	 ecx, WORD PTR [esi+1196]
  00092	89 8e bc 03 00
	00		 mov	 DWORD PTR [esi+956], ecx
$LN1@gObjMonste@13:
  00098	5e		 pop	 esi

; 2623 : 	}
; 2624 : }

  00099	5d		 pop	 ebp
  0009a	c3		 ret	 0
?gObjMonsterTrapAct@@YAXPAUOBJECTSTRUCT@@@Z ENDP	; gObjMonsterTrapAct
_TEXT	ENDS
PUBLIC	?NewOptionRand@@YAEH@Z				; NewOptionRand
; Function compile flags: /Ogtp
;	COMDAT ?NewOptionRand@@YAEH@Z
_TEXT	SEGMENT
_level$ = 8						; size = 4
?NewOptionRand@@YAEH@Z PROC				; NewOptionRand, COMDAT

; 2627 : {

  00000	53		 push	 ebx

; 2628 : 	BYTE NOption = 0;
; 2629 : 	NOption = 1 << (rand() % 6);

  00001	e8 00 00 00 00	 call	 _rand
  00006	99		 cdq
  00007	b9 06 00 00 00	 mov	 ecx, 6
  0000c	f7 f9		 idiv	 ecx
  0000e	b3 01		 mov	 bl, 1
  00010	8b ca		 mov	 ecx, edx
  00012	d2 e3		 shl	 bl, cl

; 2630 : 
; 2631 : 	if ( (NOption &2) != 0 )

  00014	f6 c3 02	 test	 bl, 2
  00017	74 26		 je	 SHORT $LN2@NewOptionR

; 2632 : 	{
; 2633 : 		if ( (rand()%2) != 0 )

  00019	e8 00 00 00 00	 call	 _rand
  0001e	25 01 00 00 80	 and	 eax, -2147483647	; 80000001H
  00023	79 05		 jns	 SHORT $LN7@NewOptionR
  00025	48		 dec	 eax
  00026	83 c8 fe	 or	 eax, -2			; fffffffeH
  00029	40		 inc	 eax
$LN7@NewOptionR:
  0002a	74 13		 je	 SHORT $LN2@NewOptionR

; 2634 : 		{
; 2635 : 			NOption = 1 << (rand()%6);

  0002c	e8 00 00 00 00	 call	 _rand
  00031	99		 cdq
  00032	b9 06 00 00 00	 mov	 ecx, 6
  00037	f7 f9		 idiv	 ecx
  00039	b3 01		 mov	 bl, 1
  0003b	8b ca		 mov	 ecx, edx
  0003d	d2 e3		 shl	 bl, cl
$LN2@NewOptionR:

; 2636 : 		}
; 2637 : 	}
; 2638 : 
; 2639 : 	if ( (rand()% 4) == 0 )

  0003f	e8 00 00 00 00	 call	 _rand
  00044	25 03 00 00 80	 and	 eax, -2147483645	; 80000003H
  00049	79 05		 jns	 SHORT $LN8@NewOptionR
  0004b	48		 dec	 eax
  0004c	83 c8 fc	 or	 eax, -4			; fffffffcH
  0004f	40		 inc	 eax
$LN8@NewOptionR:
  00050	75 17		 jne	 SHORT $LN6@NewOptionR

; 2640 : 	{
; 2641 : 		NOption |= 1 << (rand()%6);

  00052	e8 00 00 00 00	 call	 _rand
  00057	99		 cdq
  00058	b9 06 00 00 00	 mov	 ecx, 6
  0005d	f7 f9		 idiv	 ecx
  0005f	b0 01		 mov	 al, 1
  00061	8b ca		 mov	 ecx, edx
  00063	d2 e0		 shl	 al, cl
  00065	0a c3		 or	 al, bl
  00067	5b		 pop	 ebx

; 2645 : }

  00068	c3		 ret	 0
$LN6@NewOptionR:

; 2642 : 	}
; 2643 : 
; 2644 : 	return NOption;

  00069	8a c3		 mov	 al, bl
  0006b	5b		 pop	 ebx

; 2645 : }

  0006c	c3		 ret	 0
?NewOptionRand@@YAEH@Z ENDP				; NewOptionRand
_TEXT	ENDS
PUBLIC	?NewOptionRandEx@@YAEHH@Z			; NewOptionRandEx
; Function compile flags: /Ogtp
;	COMDAT ?NewOptionRandEx@@YAEHH@Z
_TEXT	SEGMENT
_level$ = 8						; size = 4
_OptCount$ = 12						; size = 4
?NewOptionRandEx@@YAEHH@Z PROC				; NewOptionRandEx, COMDAT

; 2648 : {

  00000	55		 push	 ebp
  00001	8b ec		 mov	 ebp, esp
  00003	53		 push	 ebx
  00004	56		 push	 esi
  00005	57		 push	 edi

; 2649 : 	int NewOption = 0;
; 2650 : 	int count = 0;
; 2651 : 
; 2652 : 	while (true)
; 2653 : 	{
; 2654 : 		if (count >= OptCount || count >= 6)

  00006	8b 7d 0c	 mov	 edi, DWORD PTR _OptCount$[ebp]
  00009	33 db		 xor	 ebx, ebx
  0000b	33 f6		 xor	 esi, esi
  0000d	85 ff		 test	 edi, edi
  0000f	7e 26		 jle	 SHORT $LN11@NewOptionR@2
$LL5@NewOptionR@2:
  00011	83 fe 06	 cmp	 esi, 6
  00014	7d 21		 jge	 SHORT $LN11@NewOptionR@2

; 2655 : 		{
; 2656 : 			break;
; 2657 : 		}
; 2658 : 
; 2659 : 		int value = 1 << (rand() % 6);

  00016	e8 00 00 00 00	 call	 _rand
  0001b	99		 cdq
  0001c	b9 06 00 00 00	 mov	 ecx, 6
  00021	f7 f9		 idiv	 ecx
  00023	b8 01 00 00 00	 mov	 eax, 1
  00028	8b ca		 mov	 ecx, edx
  0002a	d3 e0		 shl	 eax, cl

; 2660 : 
; 2661 : 		if ((NewOption & value) == 0)

  0002c	85 c3		 test	 eax, ebx
  0002e	75 03		 jne	 SHORT $LN1@NewOptionR@2

; 2662 : 		{
; 2663 : 			NewOption |= value;

  00030	0b d8		 or	 ebx, eax

; 2664 : 			count++;

  00032	46		 inc	 esi
$LN1@NewOptionR@2:

; 2649 : 	int NewOption = 0;
; 2650 : 	int count = 0;
; 2651 : 
; 2652 : 	while (true)
; 2653 : 	{
; 2654 : 		if (count >= OptCount || count >= 6)

  00033	3b f7		 cmp	 esi, edi
  00035	7c da		 jl	 SHORT $LL5@NewOptionR@2
$LN11@NewOptionR@2:
  00037	5f		 pop	 edi
  00038	5e		 pop	 esi

; 2665 : 		}
; 2666 : 	}
; 2667 : 
; 2668 : 	return NewOption;

  00039	8a c3		 mov	 al, bl
  0003b	5b		 pop	 ebx

; 2669 : }

  0003c	5d		 pop	 ebp
  0003d	c3		 ret	 0
?NewOptionRandEx@@YAEHH@Z ENDP				; NewOptionRandEx
_TEXT	ENDS
PUBLIC	?InventoryDropItem@@YAXPAUOBJECTSTRUCT@@H@Z	; InventoryDropItem
; Function compile flags: /Ogtp
;	COMDAT ?InventoryDropItem@@YAXPAUOBJECTSTRUCT@@H@Z
_TEXT	SEGMENT
_lpObj$ = 8						; size = 4
_DropItem$ = 12						; size = 4
?InventoryDropItem@@YAXPAUOBJECTSTRUCT@@H@Z PROC	; InventoryDropItem, COMDAT

; 2673 : 	return;
; 2674 : }

  00000	c3		 ret	 0
?InventoryDropItem@@YAXPAUOBJECTSTRUCT@@H@Z ENDP	; InventoryDropItem
_TEXT	ENDS
PUBLIC	__real@00000000
PUBLIC	?gObjSkylandBossSheildAttack@@YAXPAUOBJECTSTRUCT@@@Z ; gObjSkylandBossSheildAttack
;	COMDAT __real@00000000
CONST	SEGMENT
__real@00000000 DD 000000000r			; 0
; Function compile flags: /Ogtp
CONST	ENDS
;	COMDAT ?gObjSkylandBossSheildAttack@@YAXPAUOBJECTSTRUCT@@@Z
_TEXT	SEGMENT
tv94 = -4						; size = 4
tv309 = 8						; size = 4
_lpObj$ = 8						; size = 4
?gObjSkylandBossSheildAttack@@YAXPAUOBJECTSTRUCT@@@Z PROC ; gObjSkylandBossSheildAttack, COMDAT

; 2677 : {

  00000	55		 push	 ebp
  00001	8b ec		 mov	 ebp, esp
  00003	51		 push	 ecx
  00004	57		 push	 edi

; 2678 : 	if ( lpObj->VPCount2 < 1 ) 

  00005	8b 7d 08	 mov	 edi, DWORD PTR _lpObj$[ebp]
  00008	ba 01 00 00 00	 mov	 edx, 1
  0000d	39 97 34 0c 00
	00		 cmp	 DWORD PTR [edi+3124], edx
  00013	0f 8c 05 01 00
	00		 jl	 $LN1@gObjSkylan

; 2679 : 		return;
; 2680 : 
; 2681 : 	if ( lpObj->m_SkyBossMonSheildLinkIndex == -1 )

  00019	8b 87 c0 10 00
	00		 mov	 eax, DWORD PTR [edi+4288]
  0001f	83 f8 ff	 cmp	 eax, -1
  00022	0f 84 f6 00 00
	00		 je	 $LN1@gObjSkylan

; 2682 : 		return;
; 2683 : 
; 2684 : 	if ( lpObj->m_SkyBossMonSheild == 0 )

  00028	83 bf c4 10 00
	00 00		 cmp	 DWORD PTR [edi+4292], 0
  0002f	0f 84 e9 00 00
	00		 je	 $LN1@gObjSkylan

; 2685 : 		return;
; 2686 : 
; 2687 : 	lpObj->TargetNumber = -1;
; 2688 : 
; 2689 : 	int tObjNum;
; 2690 : 	int shieldindex = lpObj->m_SkyBossMonSheildLinkIndex;
; 2691 : 
; 2692 : 	if ( gObj[shieldindex].Life < 0.0f )

  00035	d9 ee		 fldz
  00037	69 c0 50 2b 00
	00		 imul	 eax, 11088		; 00002b50H
  0003d	83 c9 ff	 or	 ecx, -1
  00040	66 89 8f 58 04
	00 00		 mov	 WORD PTR [edi+1112], cx
  00047	8b 0d 00 00 00
	00		 mov	 ecx, DWORD PTR ?gObj@@3PAUOBJECTSTRUCT@@A ; gObj
  0004d	d8 9c 08 fc 00
	00 00		 fcomp	 DWORD PTR [eax+ecx+252]
  00054	df e0		 fnstsw	 ax
  00056	f6 c4 41	 test	 ah, 65			; 00000041H
  00059	0f 84 bf 00 00
	00		 je	 $LN1@gObjSkylan

; 2693 : 		return;
; 2694 : 
; 2695 : 	if ( lpObj->m_AttackRange > 0 )

  0005f	66 83 bf b0 04
	00 00 00	 cmp	 WORD PTR [edi+1200], 0
  00067	0f 8e 82 00 00
	00		 jle	 $LN8@gObjSkylan

; 2696 : 	{
; 2697 : 		for (int i=0;i<MAX_VIEWPORT_MONSTER;i++)

  0006d	8d 87 ae 08 00
	00		 lea	 eax, DWORD PTR [edi+2222]
  00073	53		 push	 ebx
  00074	89 45 08	 mov	 DWORD PTR tv309[ebp], eax
  00077	c7 45 fc 4b 00
	00 00		 mov	 DWORD PTR tv94[ebp], 75	; 0000004bH
  0007e	56		 push	 esi
  0007f	90		 npad	 1
$LL22@gObjSkylan:

; 2698 : 		{
; 2699 : 			tObjNum = lpObj->VpPlayer2[i].number;

  00080	8b 45 08	 mov	 eax, DWORD PTR tv309[ebp]
  00083	0f bf 18	 movsx	 ebx, WORD PTR [eax]

; 2700 : 
; 2701 : 			if ( tObjNum >= 0 )

  00086	85 db		 test	 ebx, ebx
  00088	78 55		 js	 SHORT $LN9@gObjSkylan

; 2702 : 			{
; 2703 : 				if ( gObj[tObjNum].Type == OBJ_USER )

  0008a	8b f3		 mov	 esi, ebx
  0008c	69 f6 50 2b 00
	00		 imul	 esi, 11088		; 00002b50H
  00092	66 39 54 0e 68	 cmp	 WORD PTR [esi+ecx+104], dx
  00097	75 46		 jne	 SHORT $LN9@gObjSkylan

; 2704 : 				{
; 2705 : 					if ( gObj[tObjNum].Live )

  00099	80 7c 0e 6a 00	 cmp	 BYTE PTR [esi+ecx+106], 0
  0009e	74 3f		 je	 SHORT $LN9@gObjSkylan

; 2706 : 					{
; 2707 : 						if ( gObjCheckTileArea(gObj[tObjNum].m_Index, lpObj->X, lpObj->Y, 2) )

  000a0	0f bf 97 46 01
	00 00		 movsx	 edx, WORD PTR [edi+326]
  000a7	0f bf 87 44 01
	00 00		 movsx	 eax, WORD PTR [edi+324]
  000ae	8b 0c 0e	 mov	 ecx, DWORD PTR [esi+ecx]
  000b1	6a 02		 push	 2
  000b3	52		 push	 edx
  000b4	50		 push	 eax
  000b5	51		 push	 ecx
  000b6	e8 00 00 00 00	 call	 ?gObjCheckTileArea@@YAHHHHH@Z ; gObjCheckTileArea

; 2708 : 						{
; 2709 : 							if ( (gObj[tObjNum].Authority&2) != 2 )

  000bb	8b 0d 00 00 00
	00		 mov	 ecx, DWORD PTR ?gObj@@3PAUOBJECTSTRUCT@@A ; gObj
  000c1	83 c4 10	 add	 esp, 16			; 00000010H
  000c4	85 c0		 test	 eax, eax
  000c6	74 17		 je	 SHORT $LN9@gObjSkylan
  000c8	f6 84 0e 0c 02
	00 00 02	 test	 BYTE PTR [esi+ecx+524], 2
  000d0	75 0d		 jne	 SHORT $LN9@gObjSkylan

; 2710 : 							{
; 2711 : 								lpObj->TargetNumber = tObjNum;

  000d2	66 89 9f 58 04
	00 00		 mov	 WORD PTR [edi+1112], bx
  000d9	8b 0d 00 00 00
	00		 mov	 ecx, DWORD PTR ?gObj@@3PAUOBJECTSTRUCT@@A ; gObj
$LN9@gObjSkylan:

; 2696 : 	{
; 2697 : 		for (int i=0;i<MAX_VIEWPORT_MONSTER;i++)

  000df	83 45 08 0c	 add	 DWORD PTR tv309[ebp], 12 ; 0000000cH
  000e3	ba 01 00 00 00	 mov	 edx, 1
  000e8	29 55 fc	 sub	 DWORD PTR tv94[ebp], edx
  000eb	75 93		 jne	 SHORT $LL22@gObjSkylan
  000ed	5e		 pop	 esi
  000ee	5b		 pop	 ebx
$LN8@gObjSkylan:

; 2712 : 							}
; 2713 : 						}
; 2714 : 					}
; 2715 : 				}
; 2716 : 			}
; 2717 : 		}
; 2718 : 	}
; 2719 : 	
; 2720 : 	if ( lpObj->TargetNumber >= 0 )

  000ef	66 83 bf 58 04
	00 00 00	 cmp	 WORD PTR [edi+1112], 0
  000f7	7c 18		 jl	 SHORT $LN2@gObjSkylan

; 2721 : 	{
; 2722 : 		lpObj->m_ActState.Attack = 1;
; 2723 : 		lpObj->NextActionTime = lpObj->m_AttackSpeed;

  000f9	8b 97 8c 04 00
	00		 mov	 edx, DWORD PTR [edi+1164]
  000ff	83 8f 18 02 00
	00 02		 or	 DWORD PTR [edi+536], 2
  00106	89 97 bc 03 00
	00		 mov	 DWORD PTR [edi+956], edx
  0010c	5f		 pop	 edi

; 2728 : 	}
; 2729 : }

  0010d	8b e5		 mov	 esp, ebp
  0010f	5d		 pop	 ebp
  00110	c3		 ret	 0
$LN2@gObjSkylan:

; 2724 : 	}
; 2725 : 	else
; 2726 : 	{
; 2727 : 		lpObj->NextActionTime = lpObj->m_MoveSpeed;

  00111	0f bf 87 ac 04
	00 00		 movsx	 eax, WORD PTR [edi+1196]
  00118	89 87 bc 03 00
	00		 mov	 DWORD PTR [edi+956], eax
$LN1@gObjSkylan:
  0011e	5f		 pop	 edi

; 2728 : 	}
; 2729 : }

  0011f	8b e5		 mov	 esp, ebp
  00121	5d		 pop	 ebp
  00122	c3		 ret	 0
?gObjSkylandBossSheildAttack@@YAXPAUOBJECTSTRUCT@@@Z ENDP ; gObjSkylandBossSheildAttack
_TEXT	ENDS
PUBLIC	?IsCanNotItemDtopInDevilSquare@@YAHH@Z		; IsCanNotItemDtopInDevilSquare
; Function compile flags: /Ogtp
;	COMDAT ?IsCanNotItemDtopInDevilSquare@@YAHH@Z
_TEXT	SEGMENT
_ItemType$ = 8						; size = 4
?IsCanNotItemDtopInDevilSquare@@YAHH@Z PROC		; IsCanNotItemDtopInDevilSquare, COMDAT

; 2732 : {

  00000	55		 push	 ebp
  00001	8b ec		 mov	 ebp, esp
  00003	56		 push	 esi

; 2733 : 	int checkitemtype = ItemType  /MAX_SUBTYPE_ITEMS;

  00004	8b 75 08	 mov	 esi, DWORD PTR _ItemType$[ebp]
  00007	8b c6		 mov	 eax, esi
  00009	99		 cdq
  0000a	81 e2 ff 01 00
	00		 and	 edx, 511		; 000001ffH
  00010	03 c2		 add	 eax, edx

; 2734 : 	int checkitemindex = ItemType % MAX_SUBTYPE_ITEMS;

  00012	8b ce		 mov	 ecx, esi
  00014	c1 f8 09	 sar	 eax, 9
  00017	81 e1 ff 01 00
	80		 and	 ecx, -2147483137	; 800001ffH
  0001d	79 08		 jns	 SHORT $LN17@IsCanNotIt
  0001f	49		 dec	 ecx
  00020	81 c9 00 fe ff
	ff		 or	 ecx, -512		; fffffe00H
  00026	41		 inc	 ecx
$LN17@IsCanNotIt:

; 2735 : 
; 2736 : 	if ( checkitemtype >= 7 && checkitemtype <= 11 )

  00027	8d 50 f9	 lea	 edx, DWORD PTR [eax-7]
  0002a	83 fa 04	 cmp	 edx, 4

; 2737 : 	{
; 2738 : 		if (checkitemindex== 17 ||checkitemindex == 18||checkitemindex== 19 )
; 2739 : 		{
; 2740 : 			return FALSE;

  0002d	76 2b		 jbe	 SHORT $LN18@IsCanNotIt

; 2741 : 		}
; 2742 : 	}
; 2743 : 	else if ( checkitemtype == 0 )

  0002f	85 c0		 test	 eax, eax
  00031	75 0f		 jne	 SHORT $LN10@IsCanNotIt

; 2744 : 	{
; 2745 : 		if (checkitemindex == 17 || checkitemindex == 18)

  00033	83 f9 11	 cmp	 ecx, 17			; 00000011H
  00036	74 05		 je	 SHORT $LN1@IsCanNotIt
  00038	83 f9 12	 cmp	 ecx, 18			; 00000012H
$LN19@IsCanNotIt:

; 2751 : 	{
; 2752 : 		if (checkitemindex== 12 || checkitemindex == 13 || checkitemindex == 14||
; 2753 : 	checkitemindex == 16 || checkitemindex == 17 || checkitemindex == 18||
; 2754 : 	checkitemindex == 19)

  0003b	75 3c		 jne	 SHORT $LN2@IsCanNotIt
$LN1@IsCanNotIt:

; 2760 : 	{
; 2761 : 		return FALSE;

  0003d	33 c0		 xor	 eax, eax
  0003f	5e		 pop	 esi

; 2765 : 
; 2766 : }

  00040	5d		 pop	 ebp
  00041	c3		 ret	 0
$LN10@IsCanNotIt:

; 2746 : 		{
; 2747 : 			return FALSE;
; 2748 : 		}
; 2749 : 	}
; 2750 : 	else if (checkitemtype == 12 )

  00042	83 f8 0c	 cmp	 eax, 12			; 0000000cH
  00045	75 22		 jne	 SHORT $LN6@IsCanNotIt

; 2751 : 	{
; 2752 : 		if (checkitemindex== 12 || checkitemindex == 13 || checkitemindex == 14||
; 2753 : 	checkitemindex == 16 || checkitemindex == 17 || checkitemindex == 18||
; 2754 : 	checkitemindex == 19)

  00047	3b c8		 cmp	 ecx, eax
  00049	74 f2		 je	 SHORT $LN1@IsCanNotIt
  0004b	83 f9 0d	 cmp	 ecx, 13			; 0000000dH
  0004e	74 ed		 je	 SHORT $LN1@IsCanNotIt
  00050	83 f9 0e	 cmp	 ecx, 14			; 0000000eH
  00053	74 e8		 je	 SHORT $LN1@IsCanNotIt
  00055	83 f9 10	 cmp	 ecx, 16			; 00000010H
  00058	74 e3		 je	 SHORT $LN1@IsCanNotIt
$LN18@IsCanNotIt:
  0005a	83 f9 11	 cmp	 ecx, 17			; 00000011H
  0005d	74 de		 je	 SHORT $LN1@IsCanNotIt
  0005f	83 f9 12	 cmp	 ecx, 18			; 00000012H
  00062	74 d9		 je	 SHORT $LN1@IsCanNotIt
  00064	83 f9 13	 cmp	 ecx, 19			; 00000013H

; 2755 : 		{
; 2756 : 			return FALSE;

  00067	eb d2		 jmp	 SHORT $LN19@IsCanNotIt
$LN6@IsCanNotIt:

; 2757 : 		}
; 2758 : 	}
; 2759 : 	else if ( ItemType == ITEMGET(4,17) || ItemType ==ITEMGET(5,9)  )

  00069	81 fe 11 08 00
	00		 cmp	 esi, 2065		; 00000811H
  0006f	74 cc		 je	 SHORT $LN1@IsCanNotIt
  00071	81 fe 09 0a 00
	00		 cmp	 esi, 2569		; 00000a09H
  00077	74 c4		 je	 SHORT $LN1@IsCanNotIt
$LN2@IsCanNotIt:

; 2762 : 	}
; 2763 : 
; 2764 : 	return TRUE;

  00079	b8 01 00 00 00	 mov	 eax, 1
  0007e	5e		 pop	 esi

; 2765 : 
; 2766 : }

  0007f	5d		 pop	 ebp
  00080	c3		 ret	 0
?IsCanNotItemDtopInDevilSquare@@YAHH@Z ENDP		; IsCanNotItemDtopInDevilSquare
_TEXT	ENDS
PUBLIC	??_C@_0DH@PKHNCCG@?$FLKUNDUN?$FN?$FLAttacker?5Info?$FN?5?$FL?$CFs?$FN?$FL?$CFs?$FN@ ; `string'
PUBLIC	??_C@_0DI@BCGOHKAP@?$FLKUNDUN?$FN?$FLStatus?5Log?$FN?5HP?3?$CFd?5Refil@ ; `string'
PUBLIC	??_C@_0DJ@LBLCMLBJ@?$FLKUNDUN?$FN?5HP?5Log?5?9?$DO?5?$FL?$CFd?$FN?H?$LI?$LK?$LJ?5?5?$FL?$CFd@ ; `string'
PUBLIC	?gObjRefillMonsterHP@@YAXPAUOBJECTSTRUCT@@H@Z	; gObjRefillMonsterHP
EXTRN	?g_iCrywolfApplyMvpBenefit@@3HA:DWORD		; g_iCrywolfApplyMvpBenefit
EXTRN	?GetKundunHPRefillState@CCrywolfSync@@QAEHXZ:PROC ; CCrywolfSync::GetKundunHPRefillState
EXTRN	?GetOccupationState@CCrywolfSync@@QAEHXZ:PROC	; CCrywolfSync::GetOccupationState
EXTRN	?g_CrywolfSync@@3VCCrywolfSync@@A:BYTE		; g_CrywolfSync
EXTRN	?giKundunHPLogSaveTime@@3HA:DWORD		; giKundunHPLogSaveTime
EXTRN	?Output@CLogToFile@@QAAXPADZZ:PROC		; CLogToFile::Output
EXTRN	?giKundunRefillHP@@3HA:DWORD			; giKundunRefillHP
EXTRN	?giKundunRefillHPTime@@3HA:DWORD		; giKundunRefillHPTime
;	COMDAT ??_C@_0DH@PKHNCCG@?$FLKUNDUN?$FN?$FLAttacker?5Info?$FN?5?$FL?$CFs?$FN?$FL?$CFs?$FN@
CONST	SEGMENT
??_C@_0DH@PKHNCCG@?$FLKUNDUN?$FN?$FLAttacker?5Info?$FN?5?$FL?$CFs?$FN?$FL?$CFs?$FN@ DB '['
	DB	'KUNDUN][Attacker Info] [%s][%s] HP:%d MP:%d X:%d Y:%d', 00H ; `string'
CONST	ENDS
;	COMDAT ??_C@_0DI@BCGOHKAP@?$FLKUNDUN?$FN?$FLStatus?5Log?$FN?5HP?3?$CFd?5Refil@
CONST	SEGMENT
??_C@_0DI@BCGOHKAP@?$FLKUNDUN?$FN?$FLStatus?5Log?$FN?5HP?3?$CFd?5Refil@ DB '['
	DB	'KUNDUN][Status Log] HP:%d RefillHP:%d Map:%d X:%d Y:%d', 00H ; `string'
CONST	ENDS
;	COMDAT ??_C@_0DJ@LBLCMLBJ@?$FLKUNDUN?$FN?5HP?5Log?5?9?$DO?5?$FL?$CFd?$FN?H?$LI?$LK?$LJ?5?5?$FL?$CFd@
CONST	SEGMENT
??_C@_0DJ@LBLCMLBJ@?$FLKUNDUN?$FN?5HP?5Log?5?9?$DO?5?$FL?$CFd?$FN?H?$LI?$LK?$LJ?5?5?$FL?$CFd@ DB '['
	DB	'KUNDUN] HP Log -> [%d]', 0c8H, 0b8H, 0baH, 0b9H, '  [%d]', 0c8H
	DB	0b8H, 0baH, 0b9H, 0bdH, 0c3H, 0b0H, 0a3H, '  [%7.0f]', 0c7H, 0f6H
	DB	0c0H, 0e7H, 'HP', 00H			; `string'
; Function compile flags: /Ogtp
CONST	ENDS
;	COMDAT ?gObjRefillMonsterHP@@YAXPAUOBJECTSTRUCT@@H@Z
_TEXT	SEGMENT
tv292 = 8						; size = 4
_iMonsterHP$ = 8					; size = 4
_lpMonsterObj$ = 8					; size = 4
_iRefillHPSec$ = 12					; size = 4
?gObjRefillMonsterHP@@YAXPAUOBJECTSTRUCT@@H@Z PROC	; gObjRefillMonsterHP, COMDAT

; 2769 : {

  00000	55		 push	 ebp
  00001	8b ec		 mov	 ebp, esp
  00003	53		 push	 ebx
  00004	56		 push	 esi

; 2770 : 	int iMonsterHP = (int)lpMonsterObj->Life;

  00005	8b 75 08	 mov	 esi, DWORD PTR _lpMonsterObj$[ebp]
  00008	d9 86 fc 00 00
	00		 fld	 DWORD PTR [esi+252]
  0000e	57		 push	 edi
  0000f	e8 00 00 00 00	 call	 __ftol2_sse

; 2771 : 	int iRefillHP = 0;

  00014	33 ff		 xor	 edi, edi

; 2772 : 
; 2773 : 	if(lpMonsterObj->Live==0)

  00016	80 7e 6a 00	 cmp	 BYTE PTR [esi+106], 0
  0001a	89 45 08	 mov	 DWORD PTR _iMonsterHP$[ebp], eax
  0001d	0f 84 78 01 00
	00		 je	 $LN1@gObjRefill

; 2774 : 	{
; 2775 : 		return;
; 2776 : 	}
; 2777 : 
; 2778 : 	if(lpMonsterObj->Class == 275)

  00023	b8 13 01 00 00	 mov	 eax, 275		; 00000113H
  00028	66 39 86 b8 00
	00 00		 cmp	 WORD PTR [esi+184], ax
  0002f	0f 85 36 01 00
	00		 jne	 $LN17@gObjRefill

; 2779 : 	{
; 2780 : 		LPOBJ lpObj;
; 2781 : 
; 2782 : 		if(lpMonsterObj->iObjectSecTimer > giKundunRefillHPTime)

  00035	8b 86 e0 1b 00
	00		 mov	 eax, DWORD PTR [esi+7136]
  0003b	3b 05 00 00 00
	00		 cmp	 eax, DWORD PTR ?giKundunRefillHPTime@@3HA ; giKundunRefillHPTime
  00041	7e 55		 jle	 SHORT $LN9@gObjRefill

; 2783 : 		{
; 2784 : 			iRefillHP = rand() % ((giKundunRefillHP > 0)? giKundunRefillHP : 1) ;

  00043	8b 3d 00 00 00
	00		 mov	 edi, DWORD PTR ?giKundunRefillHP@@3HA ; giKundunRefillHP
  00049	85 ff		 test	 edi, edi
  0004b	7f 05		 jg	 SHORT $LN15@gObjRefill
  0004d	bf 01 00 00 00	 mov	 edi, 1
$LN15@gObjRefill:
  00052	e8 00 00 00 00	 call	 _rand

; 2785 : 
; 2786 : 			lpMonsterObj->iObjectSecTimer = 0;
; 2787 : 
; 2788 : 			KUNDUN_EVENT_LOG.Output("[KUNDUN] HP Log -> [%d]  [%d]  [%7.0f]HP",	iRefillHP, giKundunRefillHPTime, lpMonsterObj->Life);

  00057	d9 86 fc 00 00
	00		 fld	 DWORD PTR [esi+252]
  0005d	99		 cdq
  0005e	f7 ff		 idiv	 edi
  00060	83 ec 08	 sub	 esp, 8
  00063	c7 86 e0 1b 00
	00 00 00 00 00	 mov	 DWORD PTR [esi+7136], 0
  0006d	8b 0d 00 00 00
	00		 mov	 ecx, DWORD PTR ?giKundunRefillHPTime@@3HA ; giKundunRefillHPTime
  00073	dd 1c 24	 fstp	 QWORD PTR [esp]
  00076	51		 push	 ecx
  00077	8b fa		 mov	 edi, edx
  00079	57		 push	 edi
  0007a	68 00 00 00 00	 push	 OFFSET ??_C@_0DJ@LBLCMLBJ@?$FLKUNDUN?$FN?5HP?5Log?5?9?$DO?5?$FL?$CFd?$FN?H?$LI?$LK?$LJ?5?5?$FL?$CFd@
  0007f	68 00 00 00 00	 push	 OFFSET ?KUNDUN_EVENT_LOG@@3VCLogToFile@@A ; KUNDUN_EVENT_LOG
  00084	e8 00 00 00 00	 call	 ?Output@CLogToFile@@QAAXPADZZ ; CLogToFile::Output
  00089	83 c4 18	 add	 esp, 24			; 00000018H

; 2789 : 			lpMonsterObj->iObjectSecTimer = 0;

  0008c	c7 86 e0 1b 00
	00 00 00 00 00	 mov	 DWORD PTR [esi+7136], 0

; 2790 : 		}
; 2791 : 		else

  00096	eb 07		 jmp	 SHORT $LN8@gObjRefill
$LN9@gObjRefill:

; 2792 : 		{
; 2793 : 			lpMonsterObj->iObjectSecTimer++;

  00098	40		 inc	 eax
  00099	89 86 e0 1b 00
	00		 mov	 DWORD PTR [esi+7136], eax
$LN8@gObjRefill:

; 2794 : 		}
; 2795 : 
; 2796 : 		if(lpMonsterObj->iObjectSecTimer % giKundunHPLogSaveTime == 0)

  0009f	8b 86 e0 1b 00
	00		 mov	 eax, DWORD PTR [esi+7136]
  000a5	99		 cdq
  000a6	f7 3d 00 00 00
	00		 idiv	 DWORD PTR ?giKundunHPLogSaveTime@@3HA ; giKundunHPLogSaveTime
  000ac	85 d2		 test	 edx, edx
  000ae	0f 85 8b 00 00
	00		 jne	 $LN6@gObjRefill

; 2797 : 		{
; 2798 : 			LogAddTD("[KUNDUN][Status Log] HP:%d RefillHP:%d Map:%d X:%d Y:%d", iMonsterHP,iRefillHP,lpMonsterObj->MapNumber,lpMonsterObj->X,lpMonsterObj->Y);

  000b4	0f bf 96 46 01
	00 00		 movsx	 edx, WORD PTR [esi+326]
  000bb	0f bf 86 44 01
	00 00		 movsx	 eax, WORD PTR [esi+324]
  000c2	0f b6 8e 49 01
	00 00		 movzx	 ecx, BYTE PTR [esi+329]
  000c9	52		 push	 edx
  000ca	8b 55 08	 mov	 edx, DWORD PTR _iMonsterHP$[ebp]
  000cd	50		 push	 eax
  000ce	51		 push	 ecx
  000cf	57		 push	 edi
  000d0	52		 push	 edx
  000d1	68 00 00 00 00	 push	 OFFSET ??_C@_0DI@BCGOHKAP@?$FLKUNDUN?$FN?$FLStatus?5Log?$FN?5HP?3?$CFd?5Refil@
  000d6	ff 15 00 00 00
	00		 call	 DWORD PTR ?LogAddTD@@3P6AXPADZZA ; LogAddTD

; 2799 : 
; 2800 : 			if(gObjIsConnected(lpMonsterObj->LastAttackerID))

  000dc	0f bf 86 5e 04
	00 00		 movsx	 eax, WORD PTR [esi+1118]
  000e3	50		 push	 eax
  000e4	e8 00 00 00 00	 call	 ?gObjIsConnected@@YAHH@Z ; gObjIsConnected
  000e9	83 c4 1c	 add	 esp, 28			; 0000001cH
  000ec	85 c0		 test	 eax, eax
  000ee	74 4f		 je	 SHORT $LN6@gObjRefill

; 2801 : 			{
; 2802 : 				lpObj = &gObj[lpMonsterObj->LastAttackerID];

  000f0	0f bf 86 5e 04
	00 00		 movsx	 eax, WORD PTR [esi+1118]
  000f7	69 c0 50 2b 00
	00		 imul	 eax, 11088		; 00002b50H
  000fd	03 05 00 00 00
	00		 add	 eax, DWORD PTR ?gObj@@3PAUOBJECTSTRUCT@@A ; gObj

; 2803 : 				LogAddTD("[KUNDUN][Attacker Info] [%s][%s] HP:%d MP:%d X:%d Y:%d", lpObj->AccountID,lpObj->Name,lpObj->Life,lpObj->Mana,lpObj->X,lpObj->Y);

  00103	0f bf 88 46 01
	00 00		 movsx	 ecx, WORD PTR [eax+326]
  0010a	d9 80 10 01 00
	00		 fld	 DWORD PTR [eax+272]
  00110	0f bf 90 44 01
	00 00		 movsx	 edx, WORD PTR [eax+324]
  00117	51		 push	 ecx
  00118	52		 push	 edx
  00119	83 ec 10	 sub	 esp, 16			; 00000010H
  0011c	8d 48 77	 lea	 ecx, DWORD PTR [eax+119]
  0011f	83 c0 6c	 add	 eax, 108		; 0000006cH
  00122	dd 5c 24 08	 fstp	 QWORD PTR [esp+8]
  00126	d9 80 90 00 00
	00		 fld	 DWORD PTR [eax+144]
  0012c	dd 1c 24	 fstp	 QWORD PTR [esp]
  0012f	51		 push	 ecx
  00130	50		 push	 eax
  00131	68 00 00 00 00	 push	 OFFSET ??_C@_0DH@PKHNCCG@?$FLKUNDUN?$FN?$FLAttacker?5Info?$FN?5?$FL?$CFs?$FN?$FL?$CFs?$FN@
  00136	ff 15 00 00 00
	00		 call	 DWORD PTR ?LogAddTD@@3P6AXPADZZA ; LogAddTD
  0013c	83 c4 24	 add	 esp, 36			; 00000024H
$LN6@gObjRefill:

; 2804 : 			}
; 2805 : 		}
; 2806 : 
; 2807 : 		if(!g_CrywolfSync.GetOccupationState())

  0013f	b9 00 00 00 00	 mov	 ecx, OFFSET ?g_CrywolfSync@@3VCCrywolfSync@@A ; g_CrywolfSync
  00144	e8 00 00 00 00	 call	 ?GetOccupationState@CCrywolfSync@@QAEHXZ ; CCrywolfSync::GetOccupationState
  00149	85 c0		 test	 eax, eax
  0014b	75 1e		 jne	 SHORT $LN17@gObjRefill

; 2808 : 		{
; 2809 : 			if(g_CrywolfSync.GetKundunHPRefillState()==1)

  0014d	b9 00 00 00 00	 mov	 ecx, OFFSET ?g_CrywolfSync@@3VCCrywolfSync@@A ; g_CrywolfSync
  00152	e8 00 00 00 00	 call	 ?GetKundunHPRefillState@CCrywolfSync@@QAEHXZ ; CCrywolfSync::GetKundunHPRefillState
  00157	83 f8 01	 cmp	 eax, 1
  0015a	75 0f		 jne	 SHORT $LN17@gObjRefill

; 2810 : 			{
; 2811 : 				if(g_iCrywolfApplyMvpBenefit!=0)

  0015c	83 3d 00 00 00
	00 00		 cmp	 DWORD PTR ?g_iCrywolfApplyMvpBenefit@@3HA, 0 ; g_iCrywolfApplyMvpBenefit
  00163	74 06		 je	 SHORT $LN17@gObjRefill

; 2812 : 				{
; 2813 : 					iRefillHP = 0;

  00165	33 ff		 xor	 edi, edi

; 2814 : 					iRefillHPSec = 0;

  00167	33 c0		 xor	 eax, eax
  00169	eb 03		 jmp	 SHORT $LN3@gObjRefill
$LN17@gObjRefill:
  0016b	8b 45 0c	 mov	 eax, DWORD PTR _iRefillHPSec$[ebp]
$LN3@gObjRefill:

; 2815 : 				}
; 2816 : 			}
; 2817 : 		}
; 2818 : 	}
; 2819 : 
; 2820 : 	iMonsterHP = iMonsterHP + iRefillHP + iRefillHPSec;

  0016e	03 f8		 add	 edi, eax
  00170	01 7d 08	 add	 DWORD PTR _iMonsterHP$[ebp], edi

; 2821 : 
; 2822 : 	if(lpMonsterObj->MaxLife < iMonsterHP)

  00173	db 45 08	 fild	 DWORD PTR _iMonsterHP$[ebp]
  00176	d9 5d 08	 fstp	 DWORD PTR tv292[ebp]
  00179	d9 86 00 01 00
	00		 fld	 DWORD PTR [esi+256]
  0017f	d9 45 08	 fld	 DWORD PTR tv292[ebp]
  00182	d8 d1		 fcom	 ST(1)
  00184	df e0		 fnstsw	 ax
  00186	dd d9		 fstp	 ST(1)
  00188	f6 c4 41	 test	 ah, 65			; 00000041H
  0018b	75 08		 jne	 SHORT $LN2@gObjRefill
  0018d	dd d8		 fstp	 ST(0)

; 2823 : 	{
; 2824 : 		lpMonsterObj->Life = lpMonsterObj->MaxLife;

  0018f	d9 86 00 01 00
	00		 fld	 DWORD PTR [esi+256]
$LN2@gObjRefill:

; 2825 : 	}
; 2826 : 	else
; 2827 : 	{
; 2828 : 		lpMonsterObj->Life = (float)iMonsterHP;

  00195	d9 9e fc 00 00
	00		 fstp	 DWORD PTR [esi+252]
$LN1@gObjRefill:
  0019b	5f		 pop	 edi
  0019c	5e		 pop	 esi
  0019d	5b		 pop	 ebx

; 2829 : 	}
; 2830 : }

  0019e	5d		 pop	 ebp
  0019f	c3		 ret	 0
?gObjRefillMonsterHP@@YAXPAUOBJECTSTRUCT@@H@Z ENDP	; gObjRefillMonsterHP
_TEXT	ENDS
PUBLIC	?gObjMonsterDieRewardItems@@YAXPAUOBJECTSTRUCT@@0HHHHHHH@Z ; gObjMonsterDieRewardItems
EXTRN	?MonsterItemDrop@MapClass@@QAEHHHMHHEEEEEHKEQAEE@Z:PROC ; MapClass::MonsterItemDrop
EXTRN	?ItemSerialCreateSend@@YAXHEEEHEEEEEHEE@Z:PROC	; ItemSerialCreateSend
EXTRN	?GetItem@CMonsterItemMng@@QAEPAVCItem@@H@Z:PROC	; CMonsterItemMng::GetItem
EXTRN	?g_MonsterItemMng@@3VCMonsterItemMng@@A:BYTE	; g_MonsterItemMng
EXTRN	?gObjGetRandomItemDropLocation@@YAHHAAE0HHH@Z:PROC ; gObjGetRandomItemDropLocation
; Function compile flags: /Ogtp
;	COMDAT ?gObjMonsterDieRewardItems@@YAXPAUOBJECTSTRUCT@@0HHHHHHH@Z
_TEXT	SEGMENT
tv143 = -68						; size = 4
_type$ = -64						; size = 4
tv306 = -60						; size = 4
tv304 = -60						; size = 4
_dur$ = -60						; size = 4
_x$ = -56						; size = 4
_y$ = -52						; size = 4
_MaxHitUser$ = -48					; size = 4
_optionc$228458 = -44					; size = 4
_Option2$ = -40						; size = 4
_option2rand$228456 = -36				; size = 4
_Option1$ = -32						; size = 4
_NOption$ = -28						; size = 1
_exitem_drop$ = -24					; size = 4
_Option3$ = -20						; size = 4
_DropItem$ = -16					; size = 4
_item_drop$ = -12					; size = 4
_option3rand$228457 = -8				; size = 4
tv309 = -6						; size = 2
_cDropY$228445 = -1					; size = 1
_lpObj$ = 8						; size = 4
_lpTargetObj$ = 12					; size = 4
_iCount$ = 16						; size = 4
_cDropX$228444 = 19					; size = 1
_iDropRateCommonItem$ = 20				; size = 4
_iDropRateExcellentItem$ = 24				; size = 4
_iDropRateSetItem$ = 28					; size = 4
_bMustHaveSkill$ = 32					; size = 4
_bMustHaveLuck$ = 36					; size = 4
_bMustHaveAdditionalOption$ = 40			; size = 4
?gObjMonsterDieRewardItems@@YAXPAUOBJECTSTRUCT@@0HHHHHHH@Z PROC ; gObjMonsterDieRewardItems, COMDAT

; 2833 : {

  00000	55		 push	 ebp
  00001	8b ec		 mov	 ebp, esp
  00003	83 ec 44	 sub	 esp, 68			; 00000044H
  00006	56		 push	 esi

; 2842 : 	int Option2=0;
; 2843 : 	int Option3=0;
; 2844 : 	BYTE NOption=0;
; 2845 : 	int item_drop=0;
; 2846 : 	int exitem_drop=0;
; 2847 : 	CItem * DropItem=NULL;
; 2848 : 	int MaxHitUser = gObjMonsterTopHitDamageUser(lpObj);

  00007	8b 75 08	 mov	 esi, DWORD PTR _lpObj$[ebp]
  0000a	57		 push	 edi
  0000b	33 ff		 xor	 edi, edi
  0000d	56		 push	 esi
  0000e	89 7d e0	 mov	 DWORD PTR _Option1$[ebp], edi
  00011	89 7d d8	 mov	 DWORD PTR _Option2$[ebp], edi
  00014	89 7d ec	 mov	 DWORD PTR _Option3$[ebp], edi
  00017	89 7d f4	 mov	 DWORD PTR _item_drop$[ebp], edi
  0001a	89 7d e8	 mov	 DWORD PTR _exitem_drop$[ebp], edi
  0001d	89 7d f0	 mov	 DWORD PTR _DropItem$[ebp], edi
  00020	e8 00 00 00 00	 call	 ?gObjMonsterTopHitDamageUser@@YAHPAUOBJECTSTRUCT@@@Z ; gObjMonsterTopHitDamageUser
  00025	89 45 d0	 mov	 DWORD PTR _MaxHitUser$[ebp], eax

; 2849 : 	int iSetDropPer=iDropRateSetItem;
; 2850 : 	int iExtDropPer=iDropRateExcellentItem;
; 2851 : 	int iCommonDropPer=iDropRateCommonItem;
; 2852 : 
; 2853 : 	for (int i=0;i<iCount;i++)

  00028	8b 45 10	 mov	 eax, DWORD PTR _iCount$[ebp]
  0002b	83 c4 04	 add	 esp, 4
  0002e	3b c7		 cmp	 eax, edi
  00030	0f 8e 97 02 00
	00		 jle	 $LN24@gObjMonste@14

; 2834 : 	int store_count=0;
; 2835 : 	int DropItemNum=0;
; 2836 : 	int type;
; 2837 : 	int level;
; 2838 : 	int x;
; 2839 : 	int y;
; 2840 : 	float dur=0;
; 2841 : 	int Option1=0;

  00036	89 45 bc	 mov	 DWORD PTR tv143[ebp], eax
  00039	53		 push	 ebx
  0003a	8d 9b 00 00 00
	00		 npad	 6
$LL36@gObjMonste@14:

; 2854 : 	{
; 2855 : 		BYTE cDropX = lpObj->X;

  00040	8a 86 44 01 00
	00		 mov	 al, BYTE PTR [esi+324]

; 2856 : 		BYTE cDropY = lpObj->Y;

  00046	8a 8e 46 01 00
	00		 mov	 cl, BYTE PTR [esi+326]

; 2857 : 
; 2858 : 		if ( !gObjGetRandomItemDropLocation(lpObj->MapNumber, cDropX, cDropY, 4, 4, 10))

  0004c	6a 0a		 push	 10			; 0000000aH
  0004e	6a 04		 push	 4
  00050	6a 04		 push	 4
  00052	8d 55 ff	 lea	 edx, DWORD PTR _cDropY$228445[ebp]
  00055	88 45 13	 mov	 BYTE PTR _cDropX$228444[ebp], al
  00058	88 4d ff	 mov	 BYTE PTR _cDropY$228445[ebp], cl
  0005b	0f b6 8e 49 01
	00 00		 movzx	 ecx, BYTE PTR [esi+329]
  00062	52		 push	 edx
  00063	8d 45 13	 lea	 eax, DWORD PTR _cDropX$228444[ebp]
  00066	50		 push	 eax
  00067	51		 push	 ecx
  00068	e8 00 00 00 00	 call	 ?gObjGetRandomItemDropLocation@@YAHHAAE0HHH@Z ; gObjGetRandomItemDropLocation
  0006d	83 c4 18	 add	 esp, 24			; 00000018H
  00070	85 c0		 test	 eax, eax
  00072	75 12		 jne	 SHORT $LN23@gObjMonste@14

; 2859 : 		{
; 2860 : 			cDropX = lpObj->X;

  00074	8a 96 44 01 00
	00		 mov	 dl, BYTE PTR [esi+324]

; 2861 : 			cDropY = lpObj->Y;

  0007a	8a 86 46 01 00
	00		 mov	 al, BYTE PTR [esi+326]
  00080	88 55 13	 mov	 BYTE PTR _cDropX$228444[ebp], dl
  00083	88 45 ff	 mov	 BYTE PTR _cDropY$228445[ebp], al
$LN23@gObjMonste@14:

; 2862 : 		}
; 2863 : 
; 2864 : 		if ( (rand()%10000) < iExtDropPer )

  00086	e8 00 00 00 00	 call	 _rand
  0008b	99		 cdq
  0008c	b9 10 27 00 00	 mov	 ecx, 10000		; 00002710H
  00091	f7 f9		 idiv	 ecx
  00093	3b 55 18	 cmp	 edx, DWORD PTR _iDropRateExcellentItem$[ebp]
  00096	7d 34		 jge	 SHORT $LN22@gObjMonste@14

; 2865 : 		{
; 2866 : 			DropItem = g_MonsterItemMng.GetItem(lpObj->Level-25);

  00098	0f bf 96 be 00
	00 00		 movsx	 edx, WORD PTR [esi+190]
  0009f	83 ea 19	 sub	 edx, 25			; 00000019H
  000a2	52		 push	 edx
  000a3	b9 00 00 00 00	 mov	 ecx, OFFSET ?g_MonsterItemMng@@3VCMonsterItemMng@@A ; g_MonsterItemMng
  000a8	e8 00 00 00 00	 call	 ?GetItem@CMonsterItemMng@@QAEPAVCItem@@H@Z ; CMonsterItemMng::GetItem
  000ad	89 45 f0	 mov	 DWORD PTR _DropItem$[ebp], eax

; 2867 : 
; 2868 : 			if ( !DropItem )

  000b0	3b c7		 cmp	 eax, edi
  000b2	75 0b		 jne	 SHORT $LN21@gObjMonste@14

; 2869 : 			{
; 2870 : 				item_drop = 0;

  000b4	89 7d f4	 mov	 DWORD PTR _item_drop$[ebp], edi

; 2871 : 				exitem_drop=0;

  000b7	89 7d e8	 mov	 DWORD PTR _exitem_drop$[ebp], edi

; 2872 : 			}
; 2873 : 			else

  000ba	e9 04 02 00 00	 jmp	 $LN25@gObjMonste@14
$LN21@gObjMonste@14:

; 2874 : 			{
; 2875 : 				item_drop = 1;

  000bf	b8 01 00 00 00	 mov	 eax, 1
  000c4	89 45 f4	 mov	 DWORD PTR _item_drop$[ebp], eax

; 2876 : 				exitem_drop=1;

  000c7	89 45 e8	 mov	 DWORD PTR _exitem_drop$[ebp], eax

; 2877 : 			}

  000ca	eb 45		 jmp	 SHORT $LN31@gObjMonste@14
$LN22@gObjMonste@14:

; 2878 : 		}
; 2879 : 		else if ( (rand()%10000) < iCommonDropPer )

  000cc	e8 00 00 00 00	 call	 _rand
  000d1	99		 cdq
  000d2	b9 10 27 00 00	 mov	 ecx, 10000		; 00002710H
  000d7	f7 f9		 idiv	 ecx
  000d9	3b 55 14	 cmp	 edx, DWORD PTR _iDropRateCommonItem$[ebp]
  000dc	7d 2a		 jge	 SHORT $LN16@gObjMonste@14

; 2880 : 		{
; 2881 : 			DropItem = g_MonsterItemMng.GetItem(lpObj->Level);

  000de	0f bf 96 be 00
	00 00		 movsx	 edx, WORD PTR [esi+190]
  000e5	52		 push	 edx
  000e6	b9 00 00 00 00	 mov	 ecx, OFFSET ?g_MonsterItemMng@@3VCMonsterItemMng@@A ; g_MonsterItemMng
  000eb	e8 00 00 00 00	 call	 ?GetItem@CMonsterItemMng@@QAEPAVCItem@@H@Z ; CMonsterItemMng::GetItem
  000f0	89 45 f0	 mov	 DWORD PTR _DropItem$[ebp], eax

; 2882 : 
; 2883 : 			if ( !DropItem )

  000f3	3b c7		 cmp	 eax, edi
  000f5	75 08		 jne	 SHORT $LN17@gObjMonste@14

; 2884 : 			{
; 2885 : 				item_drop = 0;

  000f7	89 7d f4	 mov	 DWORD PTR _item_drop$[ebp], edi

; 2886 : 			}
; 2887 : 			else

  000fa	e9 c4 01 00 00	 jmp	 $LN25@gObjMonste@14
$LN17@gObjMonste@14:

; 2888 : 			{
; 2889 : 				item_drop = 1;

  000ff	c7 45 f4 01 00
	00 00		 mov	 DWORD PTR _item_drop$[ebp], 1

; 2890 : 			}
; 2891 : 		}
; 2892 : 
; 2893 : 		if ( item_drop )

  00106	eb 09		 jmp	 SHORT $LN31@gObjMonste@14
$LN16@gObjMonste@14:
  00108	39 7d f4	 cmp	 DWORD PTR _item_drop$[ebp], edi
  0010b	0f 84 b2 01 00
	00		 je	 $LN25@gObjMonste@14
$LN31@gObjMonste@14:

; 2894 : 		{
; 2895 : 			type = DropItem->m_Type;

  00111	8b 45 f0	 mov	 eax, DWORD PTR _DropItem$[ebp]
  00114	0f bf 48 06	 movsx	 ecx, WORD PTR [eax+6]

; 2896 : 			level = DropItem->m_Level;

  00118	0f bf 58 08	 movsx	 ebx, WORD PTR [eax+8]

; 2897 : 			dur = DropItem->m_Durability;

  0011c	8b d0		 mov	 edx, eax

; 2898 : 			x = cDropX;

  0011e	0f b6 45 13	 movzx	 eax, BYTE PTR _cDropX$228444[ebp]
  00122	d9 42 24	 fld	 DWORD PTR [edx+36]
  00125	89 4d c0	 mov	 DWORD PTR _type$[ebp], ecx
  00128	d9 5d c4	 fstp	 DWORD PTR _dur$[ebp]

; 2899 : 			y = cDropY;

  0012b	0f b6 4d ff	 movzx	 ecx, BYTE PTR _cDropY$228445[ebp]
  0012f	89 45 c8	 mov	 DWORD PTR _x$[ebp], eax
  00132	89 4d cc	 mov	 DWORD PTR _y$[ebp], ecx

; 2900 : 
; 2901 : 			int option1rand;
; 2902 : 			int option2rand;
; 2903 : 			int option3rand;
; 2904 : 			int optionc;
; 2905 : 
; 2906 : 			if ( exitem_drop )

  00135	39 7d e8	 cmp	 DWORD PTR _exitem_drop$[ebp], edi
  00138	74 40		 je	 SHORT $LN14@gObjMonste@14

; 2907 : 			{
; 2908 : 				option1rand = 100;

  0013a	bf 64 00 00 00	 mov	 edi, 100		; 00000064H

; 2909 : 				option2rand = 1;

  0013f	c7 45 dc 01 00
	00 00		 mov	 DWORD PTR _option2rand$228456[ebp], 1

; 2910 : 				option3rand = rand()%100;

  00146	e8 00 00 00 00	 call	 _rand
  0014b	99		 cdq
  0014c	8b cf		 mov	 ecx, edi
  0014e	f7 f9		 idiv	 ecx
  00150	89 55 f8	 mov	 DWORD PTR _option3rand$228457[ebp], edx

; 2911 : 				optionc = rand()%3;

  00153	e8 00 00 00 00	 call	 _rand
  00158	99		 cdq
  00159	b9 03 00 00 00	 mov	 ecx, 3
  0015e	f7 f9		 idiv	 ecx
  00160	89 55 d4	 mov	 DWORD PTR _optionc$228458[ebp], edx

; 2912 : 				NOption = NewOptionRand(lpObj->Level);

  00163	0f bf 96 be 00
	00 00		 movsx	 edx, WORD PTR [esi+190]
  0016a	52		 push	 edx
  0016b	e8 00 00 00 00	 call	 ?NewOptionRand@@YAEH@Z	; NewOptionRand
  00170	83 c4 04	 add	 esp, 4
  00173	88 45 e4	 mov	 BYTE PTR _NOption$[ebp], al

; 2913 : 				level = 0;

  00176	33 db		 xor	 ebx, ebx

; 2914 : 			}
; 2915 : 			else

  00178	eb 30		 jmp	 SHORT $LN13@gObjMonste@14
$LN14@gObjMonste@14:

; 2916 : 			{
; 2917 : 				option1rand = 6;

  0017a	bf 06 00 00 00	 mov	 edi, 6

; 2918 : 				option2rand = 4;

  0017f	c7 45 dc 04 00
	00 00		 mov	 DWORD PTR _option2rand$228456[ebp], 4

; 2919 : 				option3rand = rand()%100;

  00186	e8 00 00 00 00	 call	 _rand
  0018b	99		 cdq
  0018c	b9 64 00 00 00	 mov	 ecx, 100		; 00000064H
  00191	f7 f9		 idiv	 ecx
  00193	89 55 f8	 mov	 DWORD PTR _option3rand$228457[ebp], edx

; 2920 : 				optionc = rand()%3;

  00196	e8 00 00 00 00	 call	 _rand
  0019b	99		 cdq
  0019c	b9 03 00 00 00	 mov	 ecx, 3
  001a1	f7 f9		 idiv	 ecx

; 2921 : 				NOption = 0;

  001a3	c6 45 e4 00	 mov	 BYTE PTR _NOption$[ebp], 0
  001a7	89 55 d4	 mov	 DWORD PTR _optionc$228458[ebp], edx
$LN13@gObjMonste@14:

; 2922 : 			}
; 2923 : 
; 2924 : 			if ( (rand()%100) < option1rand )

  001aa	e8 00 00 00 00	 call	 _rand
  001af	99		 cdq
  001b0	b9 64 00 00 00	 mov	 ecx, 100		; 00000064H
  001b5	f7 f9		 idiv	 ecx
  001b7	3b d7		 cmp	 edx, edi
  001b9	7d 0a		 jge	 SHORT $LN32@gObjMonste@14

; 2925 : 			{
; 2926 : 				Option1 = 1;

  001bb	bf 01 00 00 00	 mov	 edi, 1
  001c0	89 7d e0	 mov	 DWORD PTR _Option1$[ebp], edi
  001c3	eb 03		 jmp	 SHORT $LN12@gObjMonste@14
$LN32@gObjMonste@14:
  001c5	8b 7d e0	 mov	 edi, DWORD PTR _Option1$[ebp]
$LN12@gObjMonste@14:

; 2927 : 			}
; 2928 : 
; 2929 : 			if ( (rand()%100) < option2rand )

  001c8	e8 00 00 00 00	 call	 _rand
  001cd	99		 cdq
  001ce	b9 64 00 00 00	 mov	 ecx, 100		; 00000064H
  001d3	f7 f9		 idiv	 ecx
  001d5	3b 55 dc	 cmp	 edx, DWORD PTR _option2rand$228456[ebp]
  001d8	7d 0a		 jge	 SHORT $LN33@gObjMonste@14

; 2930 : 			{
; 2931 : 				Option2 = 1;

  001da	b8 01 00 00 00	 mov	 eax, 1
  001df	89 45 d8	 mov	 DWORD PTR _Option2$[ebp], eax
  001e2	eb 03		 jmp	 SHORT $LN11@gObjMonste@14
$LN33@gObjMonste@14:
  001e4	8b 45 d8	 mov	 eax, DWORD PTR _Option2$[ebp]
$LN11@gObjMonste@14:

; 2932 : 			}
; 2933 : 
; 2934 : 			switch ( optionc )

  001e7	8b 4d d4	 mov	 ecx, DWORD PTR _optionc$228458[ebp]
  001ea	83 e9 00	 sub	 ecx, 0
  001ed	74 24		 je	 SHORT $LN8@gObjMonste@14
  001ef	49		 dec	 ecx
  001f0	74 12		 je	 SHORT $LN6@gObjMonste@14
  001f2	49		 dec	 ecx
  001f3	75 2b		 jne	 SHORT $LN34@gObjMonste@14

; 2944 : 				case 2:
; 2945 : 					if ( option3rand < 12 )

  001f5	83 7d f8 0c	 cmp	 DWORD PTR _option3rand$228457[ebp], 12 ; 0000000cH
  001f9	7d 25		 jge	 SHORT $LN34@gObjMonste@14

; 2946 : 						Option3=1;

  001fb	c7 45 ec 01 00
	00 00		 mov	 DWORD PTR _Option3$[ebp], 1

; 2947 : 					break;

  00202	eb 1c		 jmp	 SHORT $LN34@gObjMonste@14
$LN6@gObjMonste@14:

; 2939 : 					break;
; 2940 : 				case 1:
; 2941 : 					if ( option3rand < 8 )

  00204	83 7d f8 08	 cmp	 DWORD PTR _option3rand$228457[ebp], 8
  00208	7d 16		 jge	 SHORT $LN34@gObjMonste@14

; 2942 : 						Option3=2;

  0020a	c7 45 ec 02 00
	00 00		 mov	 DWORD PTR _Option3$[ebp], 2

; 2943 : 					break;

  00211	eb 0d		 jmp	 SHORT $LN34@gObjMonste@14
$LN8@gObjMonste@14:

; 2935 : 			{
; 2936 : 				case 0:
; 2937 : 					if ( option3rand < 4 )

  00213	83 7d f8 04	 cmp	 DWORD PTR _option3rand$228457[ebp], 4
  00217	7d 07		 jge	 SHORT $LN34@gObjMonste@14

; 2938 : 						Option3=3;

  00219	c7 45 ec 03 00
	00 00		 mov	 DWORD PTR _Option3$[ebp], 3
$LN34@gObjMonste@14:

; 2948 : 			}
; 2949 : 
; 2950 : 			if ( DropItem->m_serial )

  00220	8b 55 f0	 mov	 edx, DWORD PTR _DropItem$[ebp]

; 2951 : 			{
; 2952 : 				ItemSerialCreateSend(lpObj->m_Index, (BYTE)lpObj->MapNumber, (BYTE)x,(BYTE) y, type, (BYTE)level, (BYTE)dur, (BYTE)Option1, (BYTE)Option2, (BYTE)Option3, MaxHitUser, (BYTE)NOption, 0);

  00223	d9 45 c4	 fld	 DWORD PTR _dur$[ebp]
  00226	80 7a 04 00	 cmp	 BYTE PTR [edx+4], 0
  0022a	74 51		 je	 SHORT $LN2@gObjMonste@14
  0022c	8b 4d e4	 mov	 ecx, DWORD PTR _NOption$[ebp]
  0022f	d9 7d fa	 fnstcw	 WORD PTR tv309[ebp]
  00232	8b 55 d0	 mov	 edx, DWORD PTR _MaxHitUser$[ebp]
  00235	6a 00		 push	 0
  00237	51		 push	 ecx
  00238	8b 4d ec	 mov	 ecx, DWORD PTR _Option3$[ebp]
  0023b	52		 push	 edx
  0023c	51		 push	 ecx
  0023d	50		 push	 eax
  0023e	0f b7 45 fa	 movzx	 eax, WORD PTR tv309[ebp]
  00242	8b 4d c0	 mov	 ecx, DWORD PTR _type$[ebp]
  00245	0d 00 0c 00 00	 or	 eax, 3072		; 00000c00H
  0024a	89 45 c4	 mov	 DWORD PTR tv306[ebp], eax
  0024d	57		 push	 edi
  0024e	d9 6d c4	 fldcw	 WORD PTR tv306[ebp]
  00251	db 5d c4	 fistp	 DWORD PTR tv304[ebp]
  00254	8a 55 c4	 mov	 dl, BYTE PTR tv304[ebp]
  00257	0f b6 c2	 movzx	 eax, dl
  0025a	8b 55 cc	 mov	 edx, DWORD PTR _y$[ebp]
  0025d	d9 6d fa	 fldcw	 WORD PTR tv309[ebp]
  00260	50		 push	 eax
  00261	8b 45 c8	 mov	 eax, DWORD PTR _x$[ebp]
  00264	53		 push	 ebx
  00265	51		 push	 ecx
  00266	0f b6 8e 49 01
	00 00		 movzx	 ecx, BYTE PTR [esi+329]
  0026d	52		 push	 edx
  0026e	8b 16		 mov	 edx, DWORD PTR [esi]
  00270	50		 push	 eax
  00271	51		 push	 ecx
  00272	52		 push	 edx
  00273	e8 00 00 00 00	 call	 ?ItemSerialCreateSend@@YAXHEEEHEEEEEHEE@Z ; ItemSerialCreateSend
  00278	83 c4 34	 add	 esp, 52			; 00000034H

; 2953 : 			}
; 2954 : 			else

  0027b	eb 44		 jmp	 SHORT $LN37@gObjMonste@14
$LN2@gObjMonste@14:

; 2955 : 			{
; 2956 : 				MapC[lpObj->MapNumber].MonsterItemDrop(type, level, dur, x, y, Option1, Option2, Option3, NOption, 0, MaxHitUser, 0, 0, NULL, 0xFF);

  0027d	8b 4d d0	 mov	 ecx, DWORD PTR _MaxHitUser$[ebp]
  00280	8b 55 e4	 mov	 edx, DWORD PTR _NOption$[ebp]
  00283	68 ff 00 00 00	 push	 255			; 000000ffH
  00288	6a 00		 push	 0
  0028a	6a 00		 push	 0
  0028c	6a 00		 push	 0
  0028e	51		 push	 ecx
  0028f	8b 4d ec	 mov	 ecx, DWORD PTR _Option3$[ebp]
  00292	6a 00		 push	 0
  00294	52		 push	 edx
  00295	8b 55 cc	 mov	 edx, DWORD PTR _y$[ebp]
  00298	51		 push	 ecx
  00299	50		 push	 eax
  0029a	8b 45 c8	 mov	 eax, DWORD PTR _x$[ebp]
  0029d	57		 push	 edi
  0029e	52		 push	 edx
  0029f	50		 push	 eax
  002a0	51		 push	 ecx
  002a1	8b 4d c0	 mov	 ecx, DWORD PTR _type$[ebp]
  002a4	d9 1c 24	 fstp	 DWORD PTR [esp]
  002a7	53		 push	 ebx
  002a8	51		 push	 ecx
  002a9	0f b6 8e 49 01
	00 00		 movzx	 ecx, BYTE PTR [esi+329]
  002b0	69 c9 48 3d 05
	00		 imul	 ecx, 343368		; 00053d48H
  002b6	81 c1 00 00 00
	00		 add	 ecx, OFFSET ?MapC@@3PAVMapClass@@A ; MapC
  002bc	e8 00 00 00 00	 call	 ?MonsterItemDrop@MapClass@@QAEHHHMHHEEEEEHKEQAEE@Z ; MapClass::MonsterItemDrop
$LN37@gObjMonste@14:
  002c1	33 ff		 xor	 edi, edi
$LN25@gObjMonste@14:

; 2849 : 	int iSetDropPer=iDropRateSetItem;
; 2850 : 	int iExtDropPer=iDropRateExcellentItem;
; 2851 : 	int iCommonDropPer=iDropRateCommonItem;
; 2852 : 
; 2853 : 	for (int i=0;i<iCount;i++)

  002c3	ff 4d bc	 dec	 DWORD PTR tv143[ebp]
  002c6	0f 85 74 fd ff
	ff		 jne	 $LL36@gObjMonste@14
  002cc	5b		 pop	 ebx
$LN24@gObjMonste@14:
  002cd	5f		 pop	 edi
  002ce	5e		 pop	 esi

; 2957 : 			}
; 2958 : 		}
; 2959 : 	}
; 2960 : }

  002cf	8b e5		 mov	 esp, ebp
  002d1	5d		 pop	 ebp
  002d2	c3		 ret	 0
?gObjMonsterDieRewardItems@@YAXPAUOBJECTSTRUCT@@0HHHHHHH@Z ENDP ; gObjMonsterDieRewardItems
_TEXT	ENDS
PUBLIC	__real@42c80000
PUBLIC	__real@43000000
PUBLIC	??_C@_0CJ@PLHMNKDH@?$FLCastle?5HuntZone?$FN?5Drop?5SetItem?5?$FL@ ; `string'
PUBLIC	__real@437f0000
PUBLIC	__real@4059000000000000
PUBLIC	?gEventMonsterItemDrop@@YAHPAUOBJECTSTRUCT@@0@Z	; gEventMonsterItemDrop
EXTRN	?g_iLuckyCoinDropRate@@3HA:DWORD		; g_iLuckyCoinDropRate
EXTRN	?g_bLuckyCoinEventOn@@3HA:DWORD			; g_bLuckyCoinEventOn
EXTRN	?g_iCherryBlossomEventItemDropRate@@3HA:DWORD	; g_iCherryBlossomEventItemDropRate
EXTRN	?g_bCherryBlossomEventOn@@3HA:DWORD		; g_bCherryBlossomEventOn
EXTRN	?g_iCovenantOfIllusionDropRate@@3HA:DWORD	; g_iCovenantOfIllusionDropRate
EXTRN	?g_iUseMaxLevelIllusionTemple@@3HA:DWORD	; g_iUseMaxLevelIllusionTemple
EXTRN	?g_iOldScrollDropRate@@3HA:DWORD		; g_iOldScrollDropRate
EXTRN	?g_iSantaPolymorphRingDropRate@@3HA:DWORD	; g_iSantaPolymorphRingDropRate
EXTRN	?g_iSantaPolymorphRingDropOn@@3HA:DWORD		; g_iSantaPolymorphRingDropOn
EXTRN	?zzzItemLevel@@YAHHHH@Z:PROC			; zzzItemLevel
EXTRN	?g_iHallowinDayEventItemDropRate@@3HA:DWORD	; g_iHallowinDayEventItemDropRate
EXTRN	?g_bHallowinDayEventOn@@3HA:DWORD		; g_bHallowinDayEventOn
EXTRN	?g_iDeepBlueCandyBoxDropRate@@3HA:DWORD		; g_iDeepBlueCandyBoxDropRate
EXTRN	?g_iDeepBlueCandyBoxDropLevelMax@@3HA:DWORD	; g_iDeepBlueCandyBoxDropLevelMax
EXTRN	?g_iDeepBlueCandyBoxDropLevelMin@@3HA:DWORD	; g_iDeepBlueCandyBoxDropLevelMin
EXTRN	?g_iVermilionCandyBoxDropRate@@3HA:DWORD	; g_iVermilionCandyBoxDropRate
EXTRN	?g_iVermilionCandyBoxDropLevelMax@@3HA:DWORD	; g_iVermilionCandyBoxDropLevelMax
EXTRN	?g_iVermilionCandyBoxDropLevelMin@@3HA:DWORD	; g_iVermilionCandyBoxDropLevelMin
EXTRN	?g_iLightPurpleCandyBoxDropRate@@3HA:DWORD	; g_iLightPurpleCandyBoxDropRate
EXTRN	?g_iLightPurpleCandyBoxDropLevelMax@@3HA:DWORD	; g_iLightPurpleCandyBoxDropLevelMax
EXTRN	?g_iLightPurpleCandyBoxDropLevelMin@@3HA:DWORD	; g_iLightPurpleCandyBoxDropLevelMin
EXTRN	?g_bCandyBoxEvent@@3HA:DWORD			; g_bCandyBoxEvent
EXTRN	?g_iBlueChocolateBoxDropRate@@3HA:DWORD		; g_iBlueChocolateBoxDropRate
EXTRN	?g_iBlueChocolateBoxDropLevelMax@@3HA:DWORD	; g_iBlueChocolateBoxDropLevelMax
EXTRN	?g_iBlueChocolateBoxDropLevelMin@@3HA:DWORD	; g_iBlueChocolateBoxDropLevelMin
EXTRN	?g_iRedChocolateBoxDropRate@@3HA:DWORD		; g_iRedChocolateBoxDropRate
EXTRN	?g_iRedChocolateBoxDropLevelMax@@3HA:DWORD	; g_iRedChocolateBoxDropLevelMax
EXTRN	?g_iRedChocolateBoxDropLevelMin@@3HA:DWORD	; g_iRedChocolateBoxDropLevelMin
EXTRN	?g_iPinkChocolateBoxDropRate@@3HA:DWORD		; g_iPinkChocolateBoxDropRate
EXTRN	?g_iPinkChocolateBoxDropLevelMax@@3HA:DWORD	; g_iPinkChocolateBoxDropLevelMax
EXTRN	?g_iPinkChocolateBoxDropLevelMin@@3HA:DWORD	; g_iPinkChocolateBoxDropLevelMin
EXTRN	?g_bChocolateBoxEvent@@3HA:DWORD		; g_bChocolateBoxEvent
EXTRN	?g_iBlueRibbonBoxDropRate@@3HA:DWORD		; g_iBlueRibbonBoxDropRate
EXTRN	?g_iBlueRibbonBoxDropLevelMax@@3HA:DWORD	; g_iBlueRibbonBoxDropLevelMax
EXTRN	?g_iBlueRibbonBoxDropLevelMin@@3HA:DWORD	; g_iBlueRibbonBoxDropLevelMin
EXTRN	?g_iGreenRibbonBoxDropRate@@3HA:DWORD		; g_iGreenRibbonBoxDropRate
EXTRN	?g_iGreenRibbonBoxDropLevelMax@@3HA:DWORD	; g_iGreenRibbonBoxDropLevelMax
EXTRN	?g_iGreenRibbonBoxDropLevelMin@@3HA:DWORD	; g_iGreenRibbonBoxDropLevelMin
EXTRN	?g_iRedRibbonBoxDropRate@@3HA:DWORD		; g_iRedRibbonBoxDropRate
EXTRN	?g_iRedRibbonBoxDropLevelMax@@3HA:DWORD		; g_iRedRibbonBoxDropLevelMax
EXTRN	?g_iRedRibbonBoxDropLevelMin@@3HA:DWORD		; g_iRedRibbonBoxDropLevelMin
EXTRN	?g_bRibbonBoxEvent@@3HA:DWORD			; g_bRibbonBoxEvent
EXTRN	?g_iDarkLordHeartDropRate@@3HA:DWORD		; g_iDarkLordHeartDropRate
EXTRN	?g_iBloodBoneDropRate@@3HA:DWORD		; g_iBloodBoneDropRate
EXTRN	?g_iAngelKingsPaperDropRate@@3HA:DWORD		; g_iAngelKingsPaperDropRate
EXTRN	?g_iML_BloodBoneDropRate@@3HA:DWORD		; g_iML_BloodBoneDropRate
EXTRN	?g_iML_AngelKingsPaperDropRate@@3HA:DWORD	; g_iML_AngelKingsPaperDropRate
EXTRN	?g_bBloodCastle@@3HA:DWORD			; g_bBloodCastle
EXTRN	?g_iML_CovenantOfIllusionDropRate@@3HA:DWORD	; g_iML_CovenantOfIllusionDropRate
EXTRN	?g_iML_OldScrollDropRate@@3HA:DWORD		; g_iML_OldScrollDropRate
EXTRN	?g_iIllusionTempleEvent@@3HA:DWORD		; g_iIllusionTempleEvent
EXTRN	?g_iML_KeysOfDevilSquareDropRate@@3HA:DWORD	; g_iML_KeysOfDevilSquareDropRate
EXTRN	?g_iML_EyesOfDevilSquareDropRate@@3HA:DWORD	; g_iML_EyesOfDevilSquareDropRate
EXTRN	?gDevilSquareEvent@@3HA:DWORD			; gDevilSquareEvent
EXTRN	?g_iMysteriousBeadDropRate2@@3HA:DWORD		; g_iMysteriousBeadDropRate2
EXTRN	?g_iMysteriousBeadDropRate1@@3HA:DWORD		; g_iMysteriousBeadDropRate1
EXTRN	?g_iKanturuJewelOfHarmonyDropRate@@3HA:DWORD	; g_iKanturuJewelOfHarmonyDropRate
EXTRN	?g_iKanturuMoonStoneDropRate@@3HA:DWORD		; g_iKanturuMoonStoneDropRate
EXTRN	?g_bKanturuSpecialItemDropOn@@3HA:DWORD		; g_bKanturuSpecialItemDropOn
EXTRN	?MakeRewardSetItem@@YAXHEEHH@Z:PROC		; MakeRewardSetItem
EXTRN	?gSetItemInCastleHuntZoneDropRate@@3HA:DWORD	; gSetItemInCastleHuntZoneDropRate
EXTRN	?gSetItemInCastleHuntZoneDropLevel@@3HA:DWORD	; gSetItemInCastleHuntZoneDropLevel
EXTRN	?gIsDropSetItemInCastleHuntZone@@3HA:DWORD	; gIsDropSetItemInCastleHuntZone
EXTRN	?g_iCondorFlameDropRate@@3HA:DWORD		; g_iCondorFlameDropRate
EXTRN	?gGemOfDefendDropRate@@3HA:DWORD		; gGemOfDefendDropRate
EXTRN	?gGemOfDefendDropLevel@@3HA:DWORD		; gGemOfDefendDropLevel
EXTRN	?gIsDropGemOfDefend@@3HA:DWORD			; gIsDropGemOfDefend
EXTRN	?gSoulOfDarkSpiritDropRate@@3HA:DWORD		; gSoulOfDarkSpiritDropRate
EXTRN	?gSoulOfDarkSpiritDropLevel@@3HA:DWORD		; gSoulOfDarkSpiritDropLevel
EXTRN	?gSoulOfDarkHorseDropRate@@3HA:DWORD		; gSoulOfDarkHorseDropRate
EXTRN	?gSoulOfDarkHorseropLevel@@3HA:DWORD		; gSoulOfDarkHorseropLevel
EXTRN	?gSleeveOfLordDropRate@@3HA:DWORD		; gSleeveOfLordDropRate
EXTRN	?gSleeveOfLordDropLevel@@3HA:DWORD		; gSleeveOfLordDropLevel
EXTRN	?gIsDropDarkLordItem@@3HA:DWORD			; gIsDropDarkLordItem
EXTRN	?g_iJapan1StAnivItemDropRate@@3HA:DWORD		; g_iJapan1StAnivItemDropRate
EXTRN	?g_iMarkOfTheLord@@3HA:DWORD			; g_iMarkOfTheLord
EXTRN	?g_iKundunMarkDropRate@@3HA:DWORD		; g_iKundunMarkDropRate
EXTRN	?DestroyGIocp@@YAXXZ:PROC			; DestroyGIocp
EXTRN	?szAuthKey@@3PADA:BYTE				; szAuthKey
EXTRN	?gBoxOfGoldDropRate@@3HA:DWORD			; gBoxOfGoldDropRate
EXTRN	?gEventChipEvent@@3HA:DWORD			; gEventChipEvent
EXTRN	?gGoldMedalDropRate@@3HA:DWORD			; gGoldMedalDropRate
EXTRN	?gGoldMedalDropLevelMonsterMax@@3HA:DWORD	; gGoldMedalDropLevelMonsterMax
EXTRN	?gGoldMedalDropLevelMonsterMin@@3HA:DWORD	; gGoldMedalDropLevelMonsterMin
EXTRN	?gSilverMedalDropRate@@3HA:DWORD		; gSilverMedalDropRate
EXTRN	?gSilverMedalDropLevelMonsterMax@@3HA:DWORD	; gSilverMedalDropLevelMonsterMax
EXTRN	?gSilverMedalDropLevelMonsterMin@@3HA:DWORD	; gSilverMedalDropLevelMonsterMin
EXTRN	?CheckUser@CZtLicense@@QAE_NH@Z:PROC		; CZtLicense::CheckUser
EXTRN	?g_ZtLicense@@3VCZtLicense@@A:BYTE		; g_ZtLicense
EXTRN	?gMedalEvent@@3HA:DWORD				; gMedalEvent
EXTRN	?gHeartOfLoveDropRate@@3HA:DWORD		; gHeartOfLoveDropRate
EXTRN	?gHeartOfLoveEvent@@3HA:DWORD			; gHeartOfLoveEvent
EXTRN	?DropEventItem@CItemBagZt@@QAEHH@Z:PROC		; CItemBagZt::DropEventItem
EXTRN	?StarOfXMasItemBag@@3PAVCItemBagZt@@A:DWORD	; StarOfXMasItemBag
EXTRN	?gXMasEvent@@3HA:DWORD				; gXMasEvent
EXTRN	?GetPartyCount@PartyClass@@QAEHH@Z:PROC		; PartyClass::GetPartyCount
EXTRN	?gFireCrackerDropRate@@3HA:DWORD		; gFireCrackerDropRate
EXTRN	?gLanguage@@3HA:DWORD				; gLanguage
EXTRN	?gFireCrackerEvent@@3HA:DWORD			; gFireCrackerEvent
EXTRN	?GetAttr@CMonsterAttr@@QAEPAUMONSTER_ATTRIBUTE@@H@Z:PROC ; CMonsterAttr::GetAttr
EXTRN	?gMAttr@@3VCMonsterAttr@@A:BYTE			; gMAttr
EXTRN	?gItemDropRingOfTransform@@3HA:DWORD		; gItemDropRingOfTransform
EXTRN	?gIsItemDropRingOfTransform@@3HA:DWORD		; gIsItemDropRingOfTransform
EXTRN	?g_iCompoundPotionLv3DropRate@@3HA:DWORD	; g_iCompoundPotionLv3DropRate
EXTRN	?g_iCompoundPotionLv3DropLevel@@3HA:DWORD	; g_iCompoundPotionLv3DropLevel
EXTRN	?g_iCompoundPotionLv2DropRate@@3HA:DWORD	; g_iCompoundPotionLv2DropRate
EXTRN	?g_iCompoundPotionLv2DropLevel@@3HA:DWORD	; g_iCompoundPotionLv2DropLevel
EXTRN	?g_iCompoundPotionLv1DropRate@@3HA:DWORD	; g_iCompoundPotionLv1DropRate
EXTRN	?g_iCompoundPotionLv1DropLevel@@3HA:DWORD	; g_iCompoundPotionLv1DropLevel
EXTRN	?g_CompoundPotionDropOn@@3HA:DWORD		; g_CompoundPotionDropOn
EXTRN	?GetSphereItemIndex@CSocketOption@@QAEHH@Z:PROC	; CSocketOption::GetSphereItemIndex
EXTRN	?g_SocketOption@@3VCSocketOption@@A:BYTE	; g_SocketOption
EXTRN	?g_iFenrirStuff_03_DropRate@@3HA:DWORD		; g_iFenrirStuff_03_DropRate
EXTRN	?g_iFenrirStuff_03_DropMap@@3HA:DWORD		; g_iFenrirStuff_03_DropMap
EXTRN	?g_iFenrirStuff_03_DropLv_Max@@3HA:DWORD	; g_iFenrirStuff_03_DropLv_Max
EXTRN	?g_iFenrirStuff_03_DropLv_Min@@3HA:DWORD	; g_iFenrirStuff_03_DropLv_Min
EXTRN	?g_iFenrirStuff_02_DropRate@@3HA:DWORD		; g_iFenrirStuff_02_DropRate
EXTRN	?g_iFenrirStuff_02_DropMap@@3HA:DWORD		; g_iFenrirStuff_02_DropMap
EXTRN	?g_iFenrirStuff_02_DropLv_Max@@3HA:DWORD	; g_iFenrirStuff_02_DropLv_Max
EXTRN	?g_iFenrirStuff_02_DropLv_Min@@3HA:DWORD	; g_iFenrirStuff_02_DropLv_Min
EXTRN	?ItemGetNumberMake@@YAHHH@Z:PROC		; ItemGetNumberMake
EXTRN	?g_iFenrirStuff_01_DropRate@@3HA:DWORD		; g_iFenrirStuff_01_DropRate
EXTRN	?g_iFenrirStuff_01_DropMap@@3HA:DWORD		; g_iFenrirStuff_01_DropMap
EXTRN	?g_iFenrirStuff_01_DropLv_Max@@3HA:DWORD	; g_iFenrirStuff_01_DropLv_Max
EXTRN	?g_iFenrirStuff_01_DropLv_Min@@3HA:DWORD	; g_iFenrirStuff_01_DropLv_Min
EXTRN	?g_bFenrirStuffItemDrop@@3HA:DWORD		; g_bFenrirStuffItemDrop
;	COMDAT __real@42c80000
CONST	SEGMENT
__real@42c80000 DD 042c80000r			; 100
CONST	ENDS
;	COMDAT __real@43000000
CONST	SEGMENT
__real@43000000 DD 043000000r			; 128
CONST	ENDS
;	COMDAT ??_C@_0CJ@PLHMNKDH@?$FLCastle?5HuntZone?$FN?5Drop?5SetItem?5?$FL@
CONST	SEGMENT
??_C@_0CJ@PLHMNKDH@?$FLCastle?5HuntZone?$FN?5Drop?5SetItem?5?$FL@ DB '[Ca'
	DB	'stle HuntZone] Drop SetItem [%s][%s] ', 00H	; `string'
CONST	ENDS
;	COMDAT __real@437f0000
CONST	SEGMENT
__real@437f0000 DD 0437f0000r			; 255
CONST	ENDS
;	COMDAT __real@4059000000000000
CONST	SEGMENT
__real@4059000000000000 DQ 04059000000000000r	; 100
; Function compile flags: /Ogtp
CONST	ENDS
;	COMDAT ?gEventMonsterItemDrop@@YAHPAUOBJECTSTRUCT@@0@Z
_TEXT	SEGMENT
tv3122 = -16						; size = 4
tv3120 = -16						; size = 4
tv2950 = -16						; size = 4
tv2948 = -16						; size = 4
tv2925 = -16						; size = 4
tv2923 = -16						; size = 4
tv2900 = -16						; size = 4
tv2898 = -16						; size = 4
tv2875 = -16						; size = 4
tv2873 = -16						; size = 4
tv2849 = -16						; size = 4
tv2847 = -16						; size = 4
tv2809 = -16						; size = 4
tv2807 = -16						; size = 4
tv2783 = -16						; size = 4
tv2781 = -16						; size = 4
tv2751 = -16						; size = 4
tv2749 = -16						; size = 4
tv2572 = -16						; size = 4
tv2570 = -16						; size = 4
tv2547 = -16						; size = 4
tv2545 = -16						; size = 4
tv2522 = -16						; size = 4
tv2520 = -16						; size = 4
tv2497 = -16						; size = 4
tv2495 = -16						; size = 4
tv2464 = -16						; size = 4
tv2462 = -16						; size = 4
tv2438 = -16						; size = 4
tv2427 = -16						; size = 4
tv2404 = -16						; size = 4
tv2402 = -16						; size = 4
tv2378 = -16						; size = 4
tv2376 = -16						; size = 4
tv2353 = -16						; size = 4
tv2351 = -16						; size = 4
tv2182 = -16						; size = 4
tv2171 = -16						; size = 4
tv1957 = -16						; size = 4
tv1955 = -16						; size = 4
_MaxHitUser$229099 = -16				; size = 4
tv3131 = -12						; size = 4
_y$ = -12						; size = 4
_x$ = -8						; size = 4
_type$ = -8						; size = 4
_dur$ = -4						; size = 4
tv3125 = -2						; size = 2
tv2953 = -2						; size = 2
tv2928 = -2						; size = 2
tv2903 = -2						; size = 2
tv2878 = -2						; size = 2
tv2852 = -2						; size = 2
tv2812 = -2						; size = 2
tv2786 = -2						; size = 2
tv2754 = -2						; size = 2
tv2575 = -2						; size = 2
tv2550 = -2						; size = 2
tv2525 = -2						; size = 2
tv2500 = -2						; size = 2
tv2467 = -2						; size = 2
tv2441 = -2						; size = 2
tv2407 = -2						; size = 2
tv2381 = -2						; size = 2
tv2356 = -2						; size = 2
tv2205 = -2						; size = 2
tv1976 = -2						; size = 2
_lpObj$ = 8						; size = 4
_lpTargetObj$ = 12					; size = 4
?gEventMonsterItemDrop@@YAHPAUOBJECTSTRUCT@@0@Z PROC	; gEventMonsterItemDrop, COMDAT

; 4483 : {

  00000	55		 push	 ebp
  00001	8b ec		 mov	 ebp, esp
  00003	83 ec 10	 sub	 esp, 16			; 00000010H

; 4484 : 	int type;
; 4485 : 	int level;
; 4486 : 	int x;
; 4487 : 	int y;
; 4488 : 	float dur=0;
; 4489 : 	int Option1=0;
; 4490 : 	int Option2=0;
; 4491 : 	int Option3=0;
; 4492 : 
; 4493 : 	if ( g_bFenrirStuffItemDrop )

  00006	83 3d 00 00 00
	00 00		 cmp	 DWORD PTR ?g_bFenrirStuffItemDrop@@3HA, 0 ; g_bFenrirStuffItemDrop
  0000d	d9 ee		 fldz
  0000f	53		 push	 ebx
  00010	d9 5d fc	 fstp	 DWORD PTR _dur$[ebp]
  00013	56		 push	 esi
  00014	8b 75 08	 mov	 esi, DWORD PTR _lpObj$[ebp]
  00017	57		 push	 edi
  00018	0f 84 42 01 00
	00		 je	 $LN245@gEventMons

; 4494 : 	{
; 4495 : 		Option1=0;
; 4496 : 		Option2=0;
; 4497 : 		Option3=0;
; 4498 : 		BOOL bDropStuff=FALSE;
; 4499 : 
; 4500 : 		if ( lpObj->Level >= g_iFenrirStuff_01_DropLv_Min && lpObj->Level <= g_iFenrirStuff_01_DropLv_Max && lpObj->MapNumber == g_iFenrirStuff_01_DropMap && bDropStuff == FALSE )

  0001e	0f bf 86 be 00
	00 00		 movsx	 eax, WORD PTR [esi+190]
  00025	33 ff		 xor	 edi, edi
  00027	3b 05 00 00 00
	00		 cmp	 eax, DWORD PTR ?g_iFenrirStuff_01_DropLv_Min@@3HA ; g_iFenrirStuff_01_DropLv_Min
  0002d	7c 41		 jl	 SHORT $LN291@gEventMons
  0002f	3b 05 00 00 00
	00		 cmp	 eax, DWORD PTR ?g_iFenrirStuff_01_DropLv_Max@@3HA ; g_iFenrirStuff_01_DropLv_Max
  00035	7f 39		 jg	 SHORT $LN291@gEventMons
  00037	0f b6 86 49 01
	00 00		 movzx	 eax, BYTE PTR [esi+329]
  0003e	3b 05 00 00 00
	00		 cmp	 eax, DWORD PTR ?g_iFenrirStuff_01_DropMap@@3HA ; g_iFenrirStuff_01_DropMap
  00044	75 2a		 jne	 SHORT $LN291@gEventMons

; 4501 : 		{
; 4502 : 			if ( (rand()%10000) < g_iFenrirStuff_01_DropRate ) 

  00046	e8 00 00 00 00	 call	 _rand
  0004b	99		 cdq
  0004c	b9 10 27 00 00	 mov	 ecx, 10000		; 00002710H
  00051	f7 f9		 idiv	 ecx
  00053	3b 15 00 00 00
	00		 cmp	 edx, DWORD PTR ?g_iFenrirStuff_01_DropRate@@3HA ; g_iFenrirStuff_01_DropRate
  00059	7d 15		 jge	 SHORT $LN291@gEventMons

; 4503 : 			{
; 4504 : 				bDropStuff = TRUE;
; 4505 : 				type = ItemGetNumberMake(13, 32);

  0005b	6a 20		 push	 32			; 00000020H
  0005d	6a 0d		 push	 13			; 0000000dH
  0005f	bf 01 00 00 00	 mov	 edi, 1
  00064	e8 00 00 00 00	 call	 ?ItemGetNumberMake@@YAHHH@Z ; ItemGetNumberMake
  00069	83 c4 08	 add	 esp, 8
  0006c	8b d8		 mov	 ebx, eax
  0006e	eb 03		 jmp	 SHORT $LN250@gEventMons
$LN291@gEventMons:
  00070	8b 5d f8	 mov	 ebx, DWORD PTR _type$[ebp]
$LN250@gEventMons:

; 4506 : 			}
; 4507 : 		}
; 4508 : 
; 4509 : 		if ( lpObj->Level >= g_iFenrirStuff_02_DropLv_Min && lpObj->Level <= g_iFenrirStuff_02_DropLv_Max && lpObj->MapNumber == g_iFenrirStuff_02_DropMap && bDropStuff == FALSE )

  00073	0f bf 86 be 00
	00 00		 movsx	 eax, WORD PTR [esi+190]
  0007a	3b 05 00 00 00
	00		 cmp	 eax, DWORD PTR ?g_iFenrirStuff_02_DropLv_Min@@3HA ; g_iFenrirStuff_02_DropLv_Min
  00080	7c 43		 jl	 SHORT $LN302@gEventMons
  00082	3b 05 00 00 00
	00		 cmp	 eax, DWORD PTR ?g_iFenrirStuff_02_DropLv_Max@@3HA ; g_iFenrirStuff_02_DropLv_Max
  00088	7f 3b		 jg	 SHORT $LN302@gEventMons
  0008a	0f b6 96 49 01
	00 00		 movzx	 edx, BYTE PTR [esi+329]
  00091	3b 15 00 00 00
	00		 cmp	 edx, DWORD PTR ?g_iFenrirStuff_02_DropMap@@3HA ; g_iFenrirStuff_02_DropMap
  00097	75 2c		 jne	 SHORT $LN302@gEventMons
  00099	85 ff		 test	 edi, edi
  0009b	75 28		 jne	 SHORT $LN302@gEventMons

; 4510 : 		{
; 4511 : 			if ( (rand()%10000) < g_iFenrirStuff_02_DropRate ) 

  0009d	e8 00 00 00 00	 call	 _rand
  000a2	99		 cdq
  000a3	b9 10 27 00 00	 mov	 ecx, 10000		; 00002710H
  000a8	f7 f9		 idiv	 ecx
  000aa	3b 15 00 00 00
	00		 cmp	 edx, DWORD PTR ?g_iFenrirStuff_02_DropRate@@3HA ; g_iFenrirStuff_02_DropRate
  000b0	7d 13		 jge	 SHORT $LN302@gEventMons

; 4512 : 			{
; 4513 : 				bDropStuff = TRUE;
; 4514 : 				type = ItemGetNumberMake(13, 33);

  000b2	6a 21		 push	 33			; 00000021H
  000b4	6a 0d		 push	 13			; 0000000dH
  000b6	bf 01 00 00 00	 mov	 edi, 1
  000bb	e8 00 00 00 00	 call	 ?ItemGetNumberMake@@YAHHH@Z ; ItemGetNumberMake
  000c0	83 c4 08	 add	 esp, 8
  000c3	8b d8		 mov	 ebx, eax
$LN302@gEventMons:

; 4515 : 			}
; 4516 : 		}
; 4517 : 
; 4518 : 		if ( lpObj->Level >= g_iFenrirStuff_03_DropLv_Min && lpObj->Level <= g_iFenrirStuff_03_DropLv_Max && lpObj->MapNumber == g_iFenrirStuff_03_DropMap && bDropStuff == FALSE )

  000c5	0f bf 86 be 00
	00 00		 movsx	 eax, WORD PTR [esi+190]
  000cc	3b 05 00 00 00
	00		 cmp	 eax, DWORD PTR ?g_iFenrirStuff_03_DropLv_Min@@3HA ; g_iFenrirStuff_03_DropLv_Min
  000d2	7c 40		 jl	 SHORT $LN246@gEventMons
  000d4	3b 05 00 00 00
	00		 cmp	 eax, DWORD PTR ?g_iFenrirStuff_03_DropLv_Max@@3HA ; g_iFenrirStuff_03_DropLv_Max
  000da	7f 38		 jg	 SHORT $LN246@gEventMons
  000dc	0f b6 96 49 01
	00 00		 movzx	 edx, BYTE PTR [esi+329]
  000e3	3b 15 00 00 00
	00		 cmp	 edx, DWORD PTR ?g_iFenrirStuff_03_DropMap@@3HA ; g_iFenrirStuff_03_DropMap
  000e9	75 29		 jne	 SHORT $LN246@gEventMons
  000eb	85 ff		 test	 edi, edi
  000ed	75 29		 jne	 SHORT $LN271@gEventMons

; 4519 : 		{
; 4520 : 			if ( (rand()%10000) < g_iFenrirStuff_03_DropRate ) 

  000ef	e8 00 00 00 00	 call	 _rand
  000f4	99		 cdq
  000f5	b9 10 27 00 00	 mov	 ecx, 10000		; 00002710H
  000fa	f7 f9		 idiv	 ecx
  000fc	3b 15 00 00 00
	00		 cmp	 edx, DWORD PTR ?g_iFenrirStuff_03_DropRate@@3HA ; g_iFenrirStuff_03_DropRate
  00102	7d 5c		 jge	 SHORT $LN245@gEventMons

; 4521 : 			{
; 4522 : 				bDropStuff = TRUE;
; 4523 : 				type = ItemGetNumberMake(13, 34);

  00104	6a 22		 push	 34			; 00000022H
  00106	6a 0d		 push	 13			; 0000000dH
  00108	e8 00 00 00 00	 call	 ?ItemGetNumberMake@@YAHHH@Z ; ItemGetNumberMake
  0010d	83 c4 08	 add	 esp, 8
  00110	8b d8		 mov	 ebx, eax

; 4524 : 			}
; 4525 : 		}
; 4526 : 
; 4527 : 		if ( bDropStuff )

  00112	eb 04		 jmp	 SHORT $LN271@gEventMons
$LN246@gEventMons:
  00114	85 ff		 test	 edi, edi
  00116	74 48		 je	 SHORT $LN245@gEventMons
$LN271@gEventMons:

; 4528 : 		{
; 4529 : 			level = 0;
; 4530 : 			x = lpObj->X;
; 4531 : 			y = lpObj->Y;
; 4532 : 			dur = 1.0f;
; 4533 : 			int MaxHitUser = gObjMonsterTopHitDamageUser(lpObj);
; 4534 : 
; 4535 : 			ItemSerialCreateSend(lpObj->m_Index, (BYTE)lpObj->MapNumber, (BYTE)x, (BYTE)y, type, (BYTE)level, (BYTE)dur, (BYTE)Option1, (BYTE)Option2, (BYTE)Option3, MaxHitUser, 0, 0);

  00118	6a 00		 push	 0
  0011a	6a 00		 push	 0
  0011c	56		 push	 esi
  0011d	e8 00 00 00 00	 call	 ?gObjMonsterTopHitDamageUser@@YAHPAUOBJECTSTRUCT@@@Z ; gObjMonsterTopHitDamageUser
  00122	83 c4 04	 add	 esp, 4
  00125	50		 push	 eax
  00126	6a 00		 push	 0
  00128	6a 00		 push	 0
  0012a	6a 00		 push	 0
  0012c	6a 01		 push	 1
  0012e	6a 00		 push	 0
  00130	53		 push	 ebx
$LN327@gEventMons:
  00131	0f b6 96 46 01
	00 00		 movzx	 edx, BYTE PTR [esi+326]
  00138	0f b6 86 44 01
	00 00		 movzx	 eax, BYTE PTR [esi+324]
  0013f	52		 push	 edx
  00140	50		 push	 eax
$LN328@gEventMons:
  00141	8b 16		 mov	 edx, DWORD PTR [esi]
$LN351@gEventMons:
  00143	0f b6 8e 49 01
	00 00		 movzx	 ecx, BYTE PTR [esi+329]
  0014a	51		 push	 ecx
  0014b	52		 push	 edx
  0014c	e8 00 00 00 00	 call	 ?ItemSerialCreateSend@@YAXHEEEHEEEEEHEE@Z ; ItemSerialCreateSend
  00151	83 c4 34	 add	 esp, 52			; 00000034H
$LN330@gEventMons:

; 4536 : 
; 4537 : 			return TRUE;

  00154	5f		 pop	 edi
  00155	5e		 pop	 esi
  00156	b8 01 00 00 00	 mov	 eax, 1
  0015b	5b		 pop	 ebx

; 5838 : }

  0015c	8b e5		 mov	 esp, ebp
  0015e	5d		 pop	 ebp
  0015f	c3		 ret	 0
$LN245@gEventMons:

; 4538 : 		}
; 4539 : 	}
; 4540 : 
; 4541 : 	int SocketSphereItemType = 0;
; 4542 :     SocketSphereItemType = g_SocketOption.GetSphereItemIndex(lpObj->Level);

  00160	0f bf 86 be 00
	00 00		 movsx	 eax, WORD PTR [esi+190]
  00167	50		 push	 eax
  00168	b9 00 00 00 00	 mov	 ecx, OFFSET ?g_SocketOption@@3VCSocketOption@@A ; g_SocketOption
  0016d	e8 00 00 00 00	 call	 ?GetSphereItemIndex@CSocketOption@@QAEHH@Z ; CSocketOption::GetSphereItemIndex
  00172	8b f8		 mov	 edi, eax

; 4543 :  
; 4544 :     if ( SocketSphereItemType != -1 )// Season 4.5 addon

  00174	83 ff ff	 cmp	 edi, -1
  00177	74 48		 je	 SHORT $LN244@gEventMons

; 4545 :     {
; 4546 :         int MaxHitUser = gObjMonsterTopHitDamageUser(lpObj);
; 4547 :  
; 4548 :         ItemSerialCreateSend(lpObj->m_Index, (BYTE)lpObj->MapNumber, (BYTE)lpObj->X, (BYTE)lpObj->Y, SocketSphereItemType, 0, 1, 0, 0, 0, MaxHitUser, 0, 0);

  00179	6a 00		 push	 0
  0017b	6a 00		 push	 0
  0017d	56		 push	 esi
  0017e	e8 00 00 00 00	 call	 ?gObjMonsterTopHitDamageUser@@YAHPAUOBJECTSTRUCT@@@Z ; gObjMonsterTopHitDamageUser
  00183	0f b6 8e 46 01
	00 00		 movzx	 ecx, BYTE PTR [esi+326]
  0018a	0f b6 96 44 01
	00 00		 movzx	 edx, BYTE PTR [esi+324]
  00191	83 c4 04	 add	 esp, 4
  00194	50		 push	 eax
  00195	0f b6 86 49 01
	00 00		 movzx	 eax, BYTE PTR [esi+329]
  0019c	6a 00		 push	 0
  0019e	6a 00		 push	 0
  001a0	6a 00		 push	 0
  001a2	6a 01		 push	 1
  001a4	6a 00		 push	 0
  001a6	57		 push	 edi
  001a7	51		 push	 ecx
  001a8	8b 0e		 mov	 ecx, DWORD PTR [esi]
  001aa	52		 push	 edx
  001ab	50		 push	 eax
  001ac	51		 push	 ecx
  001ad	e8 00 00 00 00	 call	 ?ItemSerialCreateSend@@YAXHEEEHEEEEEHEE@Z ; ItemSerialCreateSend
  001b2	83 c4 34	 add	 esp, 52			; 00000034H
  001b5	5f		 pop	 edi
  001b6	5e		 pop	 esi

; 4549 :        
; 4550 :         return TRUE;

  001b7	b8 01 00 00 00	 mov	 eax, 1
  001bc	5b		 pop	 ebx

; 5838 : }

  001bd	8b e5		 mov	 esp, ebp
  001bf	5d		 pop	 ebp
  001c0	c3		 ret	 0
$LN244@gEventMons:

; 4551 :     }
; 4552 : 
; 4553 : 	if ( g_CompoundPotionDropOn == TRUE )

  001c1	83 3d 00 00 00
	00 01		 cmp	 DWORD PTR ?g_CompoundPotionDropOn@@3HA, 1 ; g_CompoundPotionDropOn
  001c8	0f 85 a0 00 00
	00		 jne	 $LN304@gEventMons

; 4554 : 	{
; 4555 : 		BOOL bDropStuff = FALSE;
; 4556 : 		int iType = 0;
; 4557 : 
; 4558 : 		if ( lpObj->Level >= g_iCompoundPotionLv1DropLevel && (rand()%10000) <= g_iCompoundPotionLv1DropRate && bDropStuff == FALSE )

  001ce	0f bf 96 be 00
	00 00		 movsx	 edx, WORD PTR [esi+190]
  001d5	3b 15 00 00 00
	00		 cmp	 edx, DWORD PTR ?g_iCompoundPotionLv1DropLevel@@3HA ; g_iCompoundPotionLv1DropLevel
  001db	7c 19		 jl	 SHORT $LN303@gEventMons
  001dd	e8 00 00 00 00	 call	 _rand
  001e2	99		 cdq
  001e3	b9 10 27 00 00	 mov	 ecx, 10000		; 00002710H
  001e8	f7 f9		 idiv	 ecx
  001ea	3b 15 00 00 00
	00		 cmp	 edx, DWORD PTR ?g_iCompoundPotionLv1DropRate@@3HA ; g_iCompoundPotionLv1DropRate
  001f0	7f 04		 jg	 SHORT $LN303@gEventMons

; 4559 : 		{
; 4560 : 			bDropStuff = TRUE;
; 4561 : 			iType = ItemGetNumberMake(14, 38);

  001f2	6a 26		 push	 38			; 00000026H

; 4562 : 		}
; 4563 : 
; 4564 : 		if ( bDropStuff == FALSE && lpObj->Level >= g_iCompoundPotionLv2DropLevel && (rand()%10000) <= g_iCompoundPotionLv2DropRate  )

  001f4	eb 4e		 jmp	 SHORT $LN323@gEventMons
$LN303@gEventMons:
  001f6	0f bf 96 be 00
	00 00		 movsx	 edx, WORD PTR [esi+190]
  001fd	3b 15 00 00 00
	00		 cmp	 edx, DWORD PTR ?g_iCompoundPotionLv2DropLevel@@3HA ; g_iCompoundPotionLv2DropLevel
  00203	7c 19		 jl	 SHORT $LN306@gEventMons
  00205	e8 00 00 00 00	 call	 _rand
  0020a	99		 cdq
  0020b	b9 10 27 00 00	 mov	 ecx, 10000		; 00002710H
  00210	f7 f9		 idiv	 ecx
  00212	3b 15 00 00 00
	00		 cmp	 edx, DWORD PTR ?g_iCompoundPotionLv2DropRate@@3HA ; g_iCompoundPotionLv2DropRate
  00218	7f 04		 jg	 SHORT $LN306@gEventMons

; 4565 : 		{
; 4566 : 			bDropStuff = TRUE;
; 4567 : 			iType = ItemGetNumberMake(14, 39);

  0021a	6a 27		 push	 39			; 00000027H

; 4568 : 		}
; 4569 : 		
; 4570 : 		if ( !bDropStuff )

  0021c	eb 26		 jmp	 SHORT $LN323@gEventMons
$LN306@gEventMons:

; 4571 : 		{
; 4572 : 			if ( lpObj->Level >= g_iCompoundPotionLv3DropLevel && (rand()%10000) <= g_iCompoundPotionLv3DropRate )

  0021e	0f bf 96 be 00
	00 00		 movsx	 edx, WORD PTR [esi+190]
  00225	3b 15 00 00 00
	00		 cmp	 edx, DWORD PTR ?g_iCompoundPotionLv3DropLevel@@3HA ; g_iCompoundPotionLv3DropLevel
  0022b	7c 41		 jl	 SHORT $LN304@gEventMons
  0022d	e8 00 00 00 00	 call	 _rand
  00232	99		 cdq
  00233	b9 10 27 00 00	 mov	 ecx, 10000		; 00002710H
  00238	f7 f9		 idiv	 ecx
  0023a	3b 15 00 00 00
	00		 cmp	 edx, DWORD PTR ?g_iCompoundPotionLv3DropRate@@3HA ; g_iCompoundPotionLv3DropRate
  00240	7f 2c		 jg	 SHORT $LN304@gEventMons

; 4573 : 			{
; 4574 : 				bDropStuff = TRUE;
; 4575 : 				iType = ItemGetNumberMake(14, 40);

  00242	6a 28		 push	 40			; 00000028H
$LN323@gEventMons:
  00244	6a 0e		 push	 14			; 0000000eH
  00246	e8 00 00 00 00	 call	 ?ItemGetNumberMake@@YAHHH@Z ; ItemGetNumberMake
  0024b	83 c4 08	 add	 esp, 8

; 4576 : 			}
; 4577 : 		}
; 4578 : 
; 4579 : 		if ( bDropStuff == 1 )
; 4580 : 		{
; 4581 : 			int level = 0;
; 4582 : 			int dur = 1;
; 4583 : 			int iMaxHitUser = gObjMonsterTopHitDamageUser(lpObj);
; 4584 : 
; 4585 : 			ItemSerialCreateSend(lpObj->m_Index, (BYTE)lpObj->MapNumber, (BYTE)lpObj->X, (BYTE)lpObj->Y, iType, (BYTE)level, (BYTE)dur, 0,0,0, iMaxHitUser, 0, 0);

  0024e	6a 00		 push	 0
  00250	6a 00		 push	 0
  00252	56		 push	 esi
  00253	8b f8		 mov	 edi, eax
  00255	e8 00 00 00 00	 call	 ?gObjMonsterTopHitDamageUser@@YAHPAUOBJECTSTRUCT@@@Z ; gObjMonsterTopHitDamageUser
  0025a	83 c4 04	 add	 esp, 4
  0025d	50		 push	 eax
  0025e	6a 00		 push	 0
  00260	6a 00		 push	 0
  00262	6a 00		 push	 0
  00264	6a 01		 push	 1
  00266	6a 00		 push	 0
  00268	57		 push	 edi

; 4586 : 
; 4587 : 			return TRUE;

  00269	e9 c3 fe ff ff	 jmp	 $LN327@gEventMons
$LN304@gEventMons:

; 4588 : 		}
; 4589 : 	}
; 4590 : 
; 4591 : 	if ( gIsItemDropRingOfTransform )

  0026e	83 3d 00 00 00
	00 00		 cmp	 DWORD PTR ?gIsItemDropRingOfTransform@@3HA, 0 ; gIsItemDropRingOfTransform
  00275	0f 84 dd 00 00
	00		 je	 $LN307@gEventMons

; 4592 : 	{
; 4593 : 		if ( (rand()%10000) < gItemDropRingOfTransform )

  0027b	e8 00 00 00 00	 call	 _rand
  00280	99		 cdq
  00281	b9 10 27 00 00	 mov	 ecx, 10000		; 00002710H
  00286	f7 f9		 idiv	 ecx
  00288	3b 15 00 00 00
	00		 cmp	 edx, DWORD PTR ?gItemDropRingOfTransform@@3HA ; gItemDropRingOfTransform
  0028e	0f 8d c4 00 00
	00		 jge	 $LN307@gEventMons

; 4594 : 		{
; 4595 : 			LPMONSTER_ATTRIBUTE lpattr = gMAttr.GetAttr(lpObj->Class);

  00294	0f b7 96 b8 00
	00 00		 movzx	 edx, WORD PTR [esi+184]
  0029b	52		 push	 edx
  0029c	b9 00 00 00 00	 mov	 ecx, OFFSET ?gMAttr@@3VCMonsterAttr@@A ; gMAttr
  002a1	e8 00 00 00 00	 call	 ?GetAttr@CMonsterAttr@@QAEPAUMONSTER_ATTRIBUTE@@H@Z ; CMonsterAttr::GetAttr

; 4596 : 
; 4597 : 			if ( lpattr )

  002a6	85 c0		 test	 eax, eax
  002a8	0f 84 aa 00 00
	00		 je	 $LN307@gEventMons

; 4598 : 			{
; 4599 : 				int level = lpattr->m_Level;

  002ae	8b 48 1c	 mov	 ecx, DWORD PTR [eax+28]

; 4600 : 				int callbead_level = 0;
; 4601 : 
; 4602 : 				if ( level < 0 )

  002b1	85 c9		 test	 ecx, ecx
  002b3	79 02		 jns	 SHORT $LN234@gEventMons

; 4603 : 					level = 0;

  002b5	33 c9		 xor	 ecx, ecx
$LN234@gEventMons:

; 4604 : 
; 4605 : 				callbead_level = level / 10;

  002b7	b8 67 66 66 66	 mov	 eax, 1717986919		; 66666667H
  002bc	f7 e9		 imul	 ecx
  002be	c1 fa 02	 sar	 edx, 2
  002c1	8b fa		 mov	 edi, edx
  002c3	c1 ef 1f	 shr	 edi, 31			; 0000001fH
  002c6	03 fa		 add	 edi, edx

; 4606 : 
; 4607 : 				if ( callbead_level > 0 )

  002c8	85 ff		 test	 edi, edi
  002ca	7e 01		 jle	 SHORT $LN233@gEventMons

; 4608 : 					callbead_level--;

  002cc	4f		 dec	 edi
$LN233@gEventMons:

; 4609 : 
; 4610 : 				if ( callbead_level > 5 )

  002cd	83 ff 05	 cmp	 edi, 5
  002d0	7e 05		 jle	 SHORT $LN232@gEventMons

; 4611 : 					callbead_level = 5;

  002d2	bf 05 00 00 00	 mov	 edi, 5
$LN232@gEventMons:

; 4612 : 
; 4613 : 				dur = rand()%100+100.0f;

  002d7	e8 00 00 00 00	 call	 _rand
  002dc	99		 cdq
  002dd	b9 64 00 00 00	 mov	 ecx, 100		; 00000064H
  002e2	f7 f9		 idiv	 ecx

; 4614 : 				x = lpObj->X;

  002e4	0f bf 9e 44 01
	00 00		 movsx	 ebx, WORD PTR [esi+324]

; 4615 : 				y = lpObj->Y;
; 4616 : 				level = callbead_level;
; 4617 : 				type = ItemGetNumberMake(13, 10);

  002eb	6a 0a		 push	 10			; 0000000aH
  002ed	6a 0d		 push	 13			; 0000000dH
  002ef	89 55 f4	 mov	 DWORD PTR tv3131[ebp], edx
  002f2	db 45 f4	 fild	 DWORD PTR tv3131[ebp]
  002f5	0f bf 96 46 01
	00 00		 movsx	 edx, WORD PTR [esi+326]
  002fc	89 55 f4	 mov	 DWORD PTR _y$[ebp], edx
  002ff	dc 05 00 00 00
	00		 fadd	 QWORD PTR __real@4059000000000000
  00305	d9 5d fc	 fstp	 DWORD PTR _dur$[ebp]
  00308	e8 00 00 00 00	 call	 ?ItemGetNumberMake@@YAHHH@Z ; ItemGetNumberMake
  0030d	83 c4 08	 add	 esp, 8

; 4618 : 				int MaxHitUser = gObjMonsterTopHitDamageUser(lpObj);
; 4619 : 
; 4620 : 				ItemSerialCreateSend(lpObj->m_Index, (BYTE)lpObj->MapNumber, (BYTE)x, (BYTE)y, type, (BYTE)level, (BYTE)dur, (BYTE)Option1,(BYTE)Option2,(BYTE)Option3, MaxHitUser, 0, 0);

  00310	6a 00		 push	 0
  00312	6a 00		 push	 0
  00314	56		 push	 esi
  00315	89 45 f8	 mov	 DWORD PTR _type$[ebp], eax
  00318	e8 00 00 00 00	 call	 ?gObjMonsterTopHitDamageUser@@YAHPAUOBJECTSTRUCT@@@Z ; gObjMonsterTopHitDamageUser
  0031d	d9 45 fc	 fld	 DWORD PTR _dur$[ebp]
  00320	83 c4 04	 add	 esp, 4
  00323	d9 7d fe	 fnstcw	 WORD PTR tv3125[ebp]
  00326	50		 push	 eax
  00327	0f b7 45 fe	 movzx	 eax, WORD PTR tv3125[ebp]
  0032b	8b 55 f8	 mov	 edx, DWORD PTR _type$[ebp]
  0032e	0d 00 0c 00 00	 or	 eax, 3072		; 00000c00H
  00333	89 45 f0	 mov	 DWORD PTR tv3122[ebp], eax
  00336	6a 00		 push	 0
  00338	6a 00		 push	 0
  0033a	d9 6d f0	 fldcw	 WORD PTR tv3122[ebp]
  0033d	6a 00		 push	 0
  0033f	db 5d f0	 fistp	 DWORD PTR tv3120[ebp]
  00342	8a 45 f0	 mov	 al, BYTE PTR tv3120[ebp]
  00345	0f b6 c8	 movzx	 ecx, al
  00348	8b 45 f4	 mov	 eax, DWORD PTR _y$[ebp]
  0034b	d9 6d fe	 fldcw	 WORD PTR tv3125[ebp]
  0034e	51		 push	 ecx
  0034f	57		 push	 edi
  00350	52		 push	 edx
  00351	50		 push	 eax
  00352	53		 push	 ebx

; 4621 : 
; 4622 : 				return TRUE;

  00353	e9 e9 fd ff ff	 jmp	 $LN328@gEventMons
$LN307@gEventMons:

; 4623 : 			}
; 4624 : 		}
; 4625 : 	}
; 4626 : 
; 4627 : 	if ( gFireCrackerEvent ) 

  00358	83 3d 00 00 00
	00 00		 cmp	 DWORD PTR ?gFireCrackerEvent@@3HA, 0 ; gFireCrackerEvent
  0035f	bf 11 00 00 00	 mov	 edi, 17			; 00000011H
  00364	0f 84 68 01 00
	00		 je	 $LN312@gEventMons

; 4628 : 	{
; 4629 : 		if ( gLanguage == 0 )	// If Korea

  0036a	83 3d 00 00 00
	00 00		 cmp	 DWORD PTR ?gLanguage@@3HA, 0 ; gLanguage
  00371	0f 85 a6 00 00
	00		 jne	 $LN230@gEventMons

; 4630 : 		{
; 4631 : 			if ( lpObj->MapNumber < 7 )

  00377	80 be 49 01 00
	00 07		 cmp	 BYTE PTR [esi+329], 7
  0037e	0f 83 4e 01 00
	00		 jae	 $LN312@gEventMons

; 4632 : 			{
; 4633 : 				LPMONSTER_ATTRIBUTE lpattr = gMAttr.GetAttr(lpObj->Class);

  00384	0f b7 86 b8 00
	00 00		 movzx	 eax, WORD PTR [esi+184]
  0038b	50		 push	 eax
  0038c	b9 00 00 00 00	 mov	 ecx, OFFSET ?gMAttr@@3VCMonsterAttr@@A ; gMAttr
  00391	e8 00 00 00 00	 call	 ?GetAttr@CMonsterAttr@@QAEPAUMONSTER_ATTRIBUTE@@H@Z ; CMonsterAttr::GetAttr

; 4634 : 
; 4635 : 				if ( lpattr )

  00396	85 c0		 test	 eax, eax
  00398	0f 84 34 01 00
	00		 je	 $LN312@gEventMons

; 4636 : 				{
; 4637 : 					if ( lpattr->m_Level >= 17 )

  0039e	39 78 1c	 cmp	 DWORD PTR [eax+28], edi
  003a1	0f 8c 2b 01 00
	00		 jl	 $LN312@gEventMons

; 4638 : 					{
; 4639 : 						if ( (rand()%10000) < gFireCrackerDropRate )

  003a7	e8 00 00 00 00	 call	 _rand
  003ac	99		 cdq
  003ad	b9 10 27 00 00	 mov	 ecx, 10000		; 00002710H
  003b2	f7 f9		 idiv	 ecx
  003b4	3b 15 00 00 00
	00		 cmp	 edx, DWORD PTR ?gFireCrackerDropRate@@3HA ; gFireCrackerDropRate
  003ba	0f 8d 12 01 00
	00		 jge	 $LN312@gEventMons

; 4640 : 						{
; 4641 : 							dur = 255.0f;
; 4642 : 							x = lpObj->X;

  003c0	0f bf be 44 01
	00 00		 movsx	 edi, WORD PTR [esi+324]

; 4643 : 							y = lpObj->Y;

  003c7	0f bf 9e 46 01
	00 00		 movsx	 ebx, WORD PTR [esi+326]

; 4644 : 							level = 2;
; 4645 : 							type = ItemGetNumberMake(14, 11);

  003ce	6a 0b		 push	 11			; 0000000bH
  003d0	6a 0e		 push	 14			; 0000000eH
  003d2	e8 00 00 00 00	 call	 ?ItemGetNumberMake@@YAHHH@Z ; ItemGetNumberMake
  003d7	83 c4 08	 add	 esp, 8

; 4646 : 							int MaxHitUser = gObjMonsterTopHitDamageUser(lpObj);
; 4647 : 
; 4648 : 							ItemSerialCreateSend(lpObj->m_Index, (BYTE)lpObj->MapNumber, (BYTE)x, (BYTE)y, type, (BYTE)level, (BYTE)dur, (BYTE)Option1,(BYTE)Option2,(BYTE)Option3, MaxHitUser, 0, 0);

  003da	6a 00		 push	 0
  003dc	6a 00		 push	 0
  003de	56		 push	 esi
  003df	89 45 f8	 mov	 DWORD PTR _type$[ebp], eax
  003e2	e8 00 00 00 00	 call	 ?gObjMonsterTopHitDamageUser@@YAHPAUOBJECTSTRUCT@@@Z ; gObjMonsterTopHitDamageUser
  003e7	83 c4 04	 add	 esp, 4
  003ea	50		 push	 eax
  003eb	6a 00		 push	 0
  003ed	6a 00		 push	 0
  003ef	6a 00		 push	 0
  003f1	68 ff 00 00 00	 push	 255			; 000000ffH
  003f6	6a 02		 push	 2
$LN332@gEventMons:
  003f8	8b 55 f8	 mov	 edx, DWORD PTR _type$[ebp]
  003fb	52		 push	 edx
  003fc	53		 push	 ebx
  003fd	57		 push	 edi
$LN333@gEventMons:
  003fe	8b 0e		 mov	 ecx, DWORD PTR [esi]
$LN352@gEventMons:
  00400	0f b6 86 49 01
	00 00		 movzx	 eax, BYTE PTR [esi+329]
  00407	50		 push	 eax
  00408	51		 push	 ecx
  00409	e8 00 00 00 00	 call	 ?ItemSerialCreateSend@@YAXHEEEHEEEEEHEE@Z ; ItemSerialCreateSend
  0040e	83 c4 34	 add	 esp, 52			; 00000034H
  00411	5f		 pop	 edi
  00412	5e		 pop	 esi
  00413	b8 01 00 00 00	 mov	 eax, 1
  00418	5b		 pop	 ebx

; 5838 : }

  00419	8b e5		 mov	 esp, ebp
  0041b	5d		 pop	 ebp
  0041c	c3		 ret	 0
$LN230@gEventMons:

; 4649 : 
; 4650 : 							return TRUE;
; 4651 : 						}
; 4652 : 					}
; 4653 : 				}
; 4654 : 			}
; 4655 : 		}
; 4656 : 		else	// Only Fall on Party
; 4657 : 		{
; 4658 : 			int MaxHitUser = gObjMonsterTopHitDamageUser(lpObj);

  0041d	56		 push	 esi
  0041e	e8 00 00 00 00	 call	 ?gObjMonsterTopHitDamageUser@@YAHPAUOBJECTSTRUCT@@@Z ; gObjMonsterTopHitDamageUser
  00423	83 c4 04	 add	 esp, 4
  00426	89 45 f0	 mov	 DWORD PTR _MaxHitUser$229099[ebp], eax

; 4659 : 
; 4660 : 			if ( MaxHitUser != -1 )

  00429	83 f8 ff	 cmp	 eax, -1
  0042c	0f 84 a0 00 00
	00		 je	 $LN312@gEventMons

; 4661 : 			{
; 4662 : 				int partycount = gParty.GetPartyCount(gObj[MaxHitUser].PartyNumber);

  00432	8b 15 00 00 00
	00		 mov	 edx, DWORD PTR ?gObj@@3PAUOBJECTSTRUCT@@A ; gObj
  00438	69 c0 50 2b 00
	00		 imul	 eax, 11088		; 00002b50H
  0043e	8b 84 10 2c 04
	00 00		 mov	 eax, DWORD PTR [eax+edx+1068]
  00445	50		 push	 eax
  00446	b9 00 00 00 00	 mov	 ecx, OFFSET ?gParty@@3VPartyClass@@A ; gParty
  0044b	e8 00 00 00 00	 call	 ?GetPartyCount@PartyClass@@QAEHH@Z ; PartyClass::GetPartyCount

; 4663 : 
; 4664 : 				if ( partycount > 0 )

  00450	85 c0		 test	 eax, eax
  00452	7e 7e		 jle	 SHORT $LN312@gEventMons

; 4665 : 				{
; 4666 : 					LPMONSTER_ATTRIBUTE lpattr = gMAttr.GetAttr(lpObj->Class);

  00454	0f b7 8e b8 00
	00 00		 movzx	 ecx, WORD PTR [esi+184]
  0045b	51		 push	 ecx
  0045c	b9 00 00 00 00	 mov	 ecx, OFFSET ?gMAttr@@3VCMonsterAttr@@A ; gMAttr
  00461	e8 00 00 00 00	 call	 ?GetAttr@CMonsterAttr@@QAEPAUMONSTER_ATTRIBUTE@@H@Z ; CMonsterAttr::GetAttr

; 4667 : 
; 4668 : 					if ( lpattr )

  00466	85 c0		 test	 eax, eax
  00468	74 68		 je	 SHORT $LN312@gEventMons

; 4669 : 					{
; 4670 : 						if ( lpattr->m_Level >= 17 )

  0046a	39 78 1c	 cmp	 DWORD PTR [eax+28], edi
  0046d	7c 63		 jl	 SHORT $LN312@gEventMons

; 4671 : 						{
; 4672 : 							if ( (rand()%10000) < gFireCrackerDropRate )

  0046f	e8 00 00 00 00	 call	 _rand
  00474	99		 cdq
  00475	b9 10 27 00 00	 mov	 ecx, 10000		; 00002710H
  0047a	f7 f9		 idiv	 ecx
  0047c	3b 15 00 00 00
	00		 cmp	 edx, DWORD PTR ?gFireCrackerDropRate@@3HA ; gFireCrackerDropRate
  00482	7d 4e		 jge	 SHORT $LN312@gEventMons

; 4673 : 							{
; 4674 : 								dur = 255.0f;
; 4675 : 								x = lpObj->X;

  00484	0f bf be 44 01
	00 00		 movsx	 edi, WORD PTR [esi+324]

; 4676 : 								y = lpObj->Y;

  0048b	0f bf 9e 46 01
	00 00		 movsx	 ebx, WORD PTR [esi+326]

; 4677 : 								level = 2;
; 4678 : 								type = ItemGetNumberMake(14, 11);

  00492	6a 0b		 push	 11			; 0000000bH
  00494	6a 0e		 push	 14			; 0000000eH
  00496	e8 00 00 00 00	 call	 ?ItemGetNumberMake@@YAHHH@Z ; ItemGetNumberMake

; 4679 : 
; 4680 : 								ItemSerialCreateSend(lpObj->m_Index, (BYTE)lpObj->MapNumber, (BYTE)x, (BYTE)y, type, (BYTE)level, (BYTE)dur, (BYTE)Option1,(BYTE)Option2,(BYTE)Option3, MaxHitUser, 0, 0);

  0049b	8b 55 f0	 mov	 edx, DWORD PTR _MaxHitUser$229099[ebp]
  0049e	6a 00		 push	 0
  004a0	8b 0e		 mov	 ecx, DWORD PTR [esi]
  004a2	6a 00		 push	 0
  004a4	52		 push	 edx
  004a5	6a 00		 push	 0
  004a7	6a 00		 push	 0
  004a9	6a 00		 push	 0
  004ab	68 ff 00 00 00	 push	 255			; 000000ffH
  004b0	6a 02		 push	 2
  004b2	50		 push	 eax
  004b3	0f b6 86 49 01
	00 00		 movzx	 eax, BYTE PTR [esi+329]
  004ba	53		 push	 ebx
  004bb	57		 push	 edi
  004bc	50		 push	 eax
  004bd	51		 push	 ecx
  004be	e8 00 00 00 00	 call	 ?ItemSerialCreateSend@@YAXHEEEHEEEEEHEE@Z ; ItemSerialCreateSend
  004c3	83 c4 3c	 add	 esp, 60			; 0000003cH
  004c6	5f		 pop	 edi
  004c7	5e		 pop	 esi
  004c8	b8 01 00 00 00	 mov	 eax, 1
  004cd	5b		 pop	 ebx

; 5838 : }

  004ce	8b e5		 mov	 esp, ebp
  004d0	5d		 pop	 ebp
  004d1	c3		 ret	 0
$LN312@gEventMons:

; 4681 : 
; 4682 : 								return TRUE;
; 4683 : 							}
; 4684 : 						}
; 4685 : 					}
; 4686 : 				}
; 4687 : 			}
; 4688 : 		}
; 4689 : 	}
; 4690 : 
; 4691 : 	if ( gXMasEvent )

  004d2	83 3d 00 00 00
	00 00		 cmp	 DWORD PTR ?gXMasEvent@@3HA, 0 ; gXMasEvent
  004d9	74 1e		 je	 SHORT $LN293@gEventMons

; 4692 : 	{
; 4693 : 		if ( !StarOfXMasItemBag )

  004db	8b 0d 00 00 00
	00		 mov	 ecx, DWORD PTR ?StarOfXMasItemBag@@3PAVCItemBagZt@@A ; StarOfXMasItemBag
  004e1	85 c9		 test	 ecx, ecx

; 4694 : 			return FALSE;

  004e3	0f 84 a9 15 00
	00		 je	 $LN1@gEventMons

; 4695 : 
; 4696 : 		if ( StarOfXMasItemBag->DropEventItem(lpObj->m_Index) )

  004e9	8b 16		 mov	 edx, DWORD PTR [esi]
  004eb	52		 push	 edx
  004ec	e8 00 00 00 00	 call	 ?DropEventItem@CItemBagZt@@QAEHH@Z ; CItemBagZt::DropEventItem
  004f1	85 c0		 test	 eax, eax

; 4697 : 			return TRUE;

  004f3	0f 85 5b fc ff
	ff		 jne	 $LN330@gEventMons
$LN293@gEventMons:

; 4698 : 	}
; 4699 : 
; 4700 : 	if ( gHeartOfLoveEvent )

  004f9	83 3d 00 00 00
	00 00		 cmp	 DWORD PTR ?gHeartOfLoveEvent@@3HA, 0 ; gHeartOfLoveEvent
  00500	0f 84 9b 00 00
	00		 je	 $LN317@gEventMons

; 4701 : 	{
; 4702 : 		if ( gLanguage == 2 )

  00506	83 3d 00 00 00
	00 02		 cmp	 DWORD PTR ?gLanguage@@3HA, 2 ; gLanguage
  0050d	75 6e		 jne	 SHORT $LN215@gEventMons

; 4703 : 		{
; 4704 : 			LPMONSTER_ATTRIBUTE lpattr = gMAttr.GetAttr(lpObj->Class);

  0050f	0f b7 86 b8 00
	00 00		 movzx	 eax, WORD PTR [esi+184]
  00516	50		 push	 eax
  00517	b9 00 00 00 00	 mov	 ecx, OFFSET ?gMAttr@@3VCMonsterAttr@@A ; gMAttr
  0051c	e8 00 00 00 00	 call	 ?GetAttr@CMonsterAttr@@QAEPAUMONSTER_ATTRIBUTE@@H@Z ; CMonsterAttr::GetAttr

; 4705 : 
; 4706 : 			if ( lpattr )

  00521	85 c0		 test	 eax, eax
  00523	74 7c		 je	 SHORT $LN317@gEventMons

; 4707 : 			{
; 4708 : 				if ( lpattr->m_Level >=15 )

  00525	83 78 1c 0f	 cmp	 DWORD PTR [eax+28], 15	; 0000000fH
$LN335@gEventMons:
  00529	7c 76		 jl	 SHORT $LN317@gEventMons

; 4709 : 				{
; 4710 : 					if ( (rand()%10000) < gHeartOfLoveDropRate )

  0052b	e8 00 00 00 00	 call	 _rand
  00530	99		 cdq
  00531	b9 10 27 00 00	 mov	 ecx, 10000		; 00002710H
  00536	f7 f9		 idiv	 ecx
  00538	3b 15 00 00 00
	00		 cmp	 edx, DWORD PTR ?gHeartOfLoveDropRate@@3HA ; gHeartOfLoveDropRate
  0053e	7d 61		 jge	 SHORT $LN317@gEventMons

; 4711 : 					{
; 4712 : 						dur = 255.0f;
; 4713 : 						x = lpObj->X;

  00540	0f bf be 44 01
	00 00		 movsx	 edi, WORD PTR [esi+324]

; 4714 : 						y = lpObj->Y;

  00547	0f bf 9e 46 01
	00 00		 movsx	 ebx, WORD PTR [esi+326]

; 4715 : 						level = 3;
; 4716 : 						type = ItemGetNumberMake(14, 11);

  0054e	6a 0b		 push	 11			; 0000000bH
  00550	6a 0e		 push	 14			; 0000000eH
  00552	e8 00 00 00 00	 call	 ?ItemGetNumberMake@@YAHHH@Z ; ItemGetNumberMake
  00557	83 c4 08	 add	 esp, 8

; 4717 : 						int MaxHitUser = gObjMonsterTopHitDamageUser(lpObj);
; 4718 : 
; 4719 : 						ItemSerialCreateSend(lpObj->m_Index, (BYTE)lpObj->MapNumber, (BYTE)x, (BYTE)y, type, (BYTE)level, (BYTE)dur, (BYTE)Option1,(BYTE)Option2,(BYTE)Option3, MaxHitUser, 0, 0);

  0055a	6a 00		 push	 0
  0055c	6a 00		 push	 0
  0055e	56		 push	 esi
  0055f	89 45 f8	 mov	 DWORD PTR _type$[ebp], eax
  00562	e8 00 00 00 00	 call	 ?gObjMonsterTopHitDamageUser@@YAHPAUOBJECTSTRUCT@@@Z ; gObjMonsterTopHitDamageUser
  00567	83 c4 04	 add	 esp, 4
  0056a	50		 push	 eax
  0056b	6a 00		 push	 0
  0056d	6a 00		 push	 0
  0056f	6a 00		 push	 0
  00571	68 ff 00 00 00	 push	 255			; 000000ffH
  00576	6a 03		 push	 3

; 4720 : 
; 4721 : 						return TRUE;

  00578	e9 7b fe ff ff	 jmp	 $LN332@gEventMons
$LN215@gEventMons:

; 4722 : 					}
; 4723 : 				}
; 4724 : 			}
; 4725 : 		}
; 4726 : 		else
; 4727 : 		{
; 4728 : 			if ( lpObj->MapNumber < 7 )

  0057d	80 be 49 01 00
	00 07		 cmp	 BYTE PTR [esi+329], 7
  00584	73 1b		 jae	 SHORT $LN317@gEventMons

; 4729 : 			{
; 4730 : 				LPMONSTER_ATTRIBUTE lpattr = gMAttr.GetAttr(lpObj->Class);

  00586	0f b7 96 b8 00
	00 00		 movzx	 edx, WORD PTR [esi+184]
  0058d	52		 push	 edx
  0058e	b9 00 00 00 00	 mov	 ecx, OFFSET ?gMAttr@@3VCMonsterAttr@@A ; gMAttr
  00593	e8 00 00 00 00	 call	 ?GetAttr@CMonsterAttr@@QAEPAUMONSTER_ATTRIBUTE@@H@Z ; CMonsterAttr::GetAttr

; 4731 : 
; 4732 : 				if ( lpattr )

  00598	85 c0		 test	 eax, eax
  0059a	74 05		 je	 SHORT $LN317@gEventMons

; 4733 : 				{
; 4734 : 					if ( lpattr->m_Level >=17 )

  0059c	39 78 1c	 cmp	 DWORD PTR [eax+28], edi

; 4735 : 					{
; 4736 : 						if ( (rand()%10000) < gHeartOfLoveDropRate )
; 4737 : 						{
; 4738 : 							dur = 255.0f;
; 4739 : 							x = lpObj->X;
; 4740 : 							y = lpObj->Y;
; 4741 : 							level = 3;
; 4742 : 							type = ItemGetNumberMake(14, 11);
; 4743 : 							int MaxHitUser = gObjMonsterTopHitDamageUser(lpObj);
; 4744 : 
; 4745 : 							ItemSerialCreateSend(lpObj->m_Index, (BYTE)lpObj->MapNumber, (BYTE)x, (BYTE)y, type, (BYTE)level, (BYTE)dur, (BYTE)Option1,(BYTE)Option2,(BYTE)Option3, MaxHitUser, 0, 0);
; 4746 : 
; 4747 : 							return TRUE;

  0059f	eb 88		 jmp	 SHORT $LN335@gEventMons
$LN317@gEventMons:

; 4748 : 						}
; 4749 : 					}
; 4750 : 				}
; 4751 : 			}
; 4752 : 		}
; 4753 : 	}
; 4754 : 	
; 4755 : 	if ( gMedalEvent )

  005a1	83 3d 00 00 00
	00 00		 cmp	 DWORD PTR ?gMedalEvent@@3HA, 0 ; gMedalEvent
  005a8	0f 84 e3 00 00
	00		 je	 $LN321@gEventMons

; 4756 : 	{
; 4757 : 		#if(ENABLE_NSGAME_UPDATE)
; 4758 : 
; 4759 : 		if(g_ZtLicense.CheckUser(eZtUB::NSGames))

  005ae	6a 51		 push	 81			; 00000051H
  005b0	b9 00 00 00 00	 mov	 ecx, OFFSET ?g_ZtLicense@@3VCZtLicense@@A ; g_ZtLicense
  005b5	e8 00 00 00 00	 call	 ?CheckUser@CZtLicense@@QAE_NH@Z ; CZtLicense::CheckUser
  005ba	84 c0		 test	 al, al
  005bc	0f 84 cf 00 00
	00		 je	 $LN321@gEventMons

; 4760 : 		{
; 4761 : 			if ( lpObj->Level >= gSilverMedalDropLevelMonsterMin && lpObj->Level <= gSilverMedalDropLevelMonsterMax )

  005c2	0f bf 86 be 00
	00 00		 movsx	 eax, WORD PTR [esi+190]
  005c9	3b 05 00 00 00
	00		 cmp	 eax, DWORD PTR ?gSilverMedalDropLevelMonsterMin@@3HA ; gSilverMedalDropLevelMonsterMin
  005cf	7c 5e		 jl	 SHORT $LN204@gEventMons
  005d1	3b 05 00 00 00
	00		 cmp	 eax, DWORD PTR ?gSilverMedalDropLevelMonsterMax@@3HA ; gSilverMedalDropLevelMonsterMax
  005d7	7f 56		 jg	 SHORT $LN204@gEventMons

; 4762 : 			{
; 4763 : 				if ( (rand()%10000) < gSilverMedalDropRate )

  005d9	e8 00 00 00 00	 call	 _rand
  005de	99		 cdq
  005df	b9 10 27 00 00	 mov	 ecx, 10000		; 00002710H
  005e4	f7 f9		 idiv	 ecx
  005e6	3b 15 00 00 00
	00		 cmp	 edx, DWORD PTR ?gSilverMedalDropRate@@3HA ; gSilverMedalDropRate
  005ec	0f 8d 9f 00 00
	00		 jge	 $LN321@gEventMons

; 4764 : 				{
; 4765 : 					dur = 255.0f;
; 4766 : 					x = lpObj->X;

  005f2	0f bf be 44 01
	00 00		 movsx	 edi, WORD PTR [esi+324]

; 4767 : 					y = lpObj->Y;

  005f9	0f bf 9e 46 01
	00 00		 movsx	 ebx, WORD PTR [esi+326]

; 4768 : 					level = 5;
; 4769 : 					type = ItemGetNumberMake(14, 11);

  00600	6a 0b		 push	 11			; 0000000bH
  00602	6a 0e		 push	 14			; 0000000eH
