; Listing generated by Microsoft (R) Optimizing Compiler Version 16.00.30319.01 

	TITLE	E:\work\tranet_version\GS\GameServer\Guardian.cpp
	.686P
	.XMM
	include listing.inc
	.model	flat

INCLUDELIB LIBCMT
INCLUDELIB OLDNAMES

_DATA	SEGMENT
_g_iNpcUpDfLevel_CGATE DD 01H
	DD	02H
	DD	02dc6c0H
	DD	02H
	DD	03H
	DD	02dc6c0H
	DD	03H
	DD	04H
	DD	02dc6c0H
_g_iNpcUpDfLevel_CSTATUE DD 01H
	DD	03H
	DD	02dc6c0H
	DD	02H
	DD	05H
	DD	02dc6c0H
	DD	03H
	DD	07H
	DD	02dc6c0H
_g_iNpcUpMaxHP_CGATE DD 02625a0H
	DD	02H
	DD	0f4240H
	DD	03567e0H
	DD	03H
	DD	0f4240H
	DD	04f5880H
	DD	04H
	DD	0f4240H
_g_iNpcUpMaxHP_CSTATUE DD 02191c0H
	DD	03H
	DD	0f4240H
	DD	033e140H
	DD	05H
	DD	0f4240H
	DD	04c4b40H
	DD	07H
	DD	0f4240H
_g_iNpcUpRgLevel_CSTATUE DD 01H
	DD	03H
	DD	04c4b40H
	DD	02H
	DD	05H
	DD	04c4b40H
	DD	03H
	DD	07H
	DD	04c4b40H
_g_iCsUserReSpawnArea DD 023H
	DD	011H
	DD	090H
	DD	030H
	DD	04aH
	DD	090H
	DD	073H
	DD	09aH
	DD	023H
	DD	011H
	DD	090H
	DD	030H
_g_iNpcDefense_CGATE DD 064H
	DD	0b4H
	DD	012cH
	DD	0208H
_g_iNpcDefense_CSTATUE DD 050H
	DD	0b4H
	DD	0154H
	DD	0226H
_g_iCastleWallStepAxisY DD 071H
	DD	0a0H
	DD	0cbH
_DATA	ENDS
PUBLIC	??_H@YGXPAXIHP6EPAX0@Z@Z			; `vector constructor iterator'
; Function compile flags: /Ogtp
;	COMDAT ??_H@YGXPAXIHP6EPAX0@Z@Z
_TEXT	SEGMENT
___t$ = 8						; size = 4
___s$ = 12						; size = 4
___n$ = 16						; size = 4
___f$ = 20						; size = 4
??_H@YGXPAXIHP6EPAX0@Z@Z PROC				; `vector constructor iterator', COMDAT
  00000	55		 push	 ebp
  00001	8b ec		 mov	 ebp, esp
  00003	57		 push	 edi
  00004	8b 7d 10	 mov	 edi, DWORD PTR ___n$[ebp]
  00007	4f		 dec	 edi
  00008	78 14		 js	 SHORT $LN1@vector
  0000a	53		 push	 ebx
  0000b	8b 5d 14	 mov	 ebx, DWORD PTR ___f$[ebp]
  0000e	56		 push	 esi
  0000f	8b 75 08	 mov	 esi, DWORD PTR ___t$[ebp]
$LL2@vector:
  00012	8b ce		 mov	 ecx, esi
  00014	ff d3		 call	 ebx
  00016	03 75 0c	 add	 esi, DWORD PTR ___s$[ebp]
  00019	4f		 dec	 edi
  0001a	79 f6		 jns	 SHORT $LL2@vector
  0001c	5e		 pop	 esi
  0001d	5b		 pop	 ebx
$LN1@vector:
  0001e	5f		 pop	 edi
  0001f	5d		 pop	 ebp
  00020	c2 10 00	 ret	 16			; 00000010H
??_H@YGXPAXIHP6EPAX0@Z@Z ENDP				; `vector constructor iterator'
_TEXT	ENDS
PUBLIC	??_7CGuardian@@6B@				; CGuardian::`vftable'
PUBLIC	??0CGuardian@@QAE@XZ				; CGuardian::CGuardian
PUBLIC	??_R4CGuardian@@6B@				; CGuardian::`RTTI Complete Object Locator'
PUBLIC	??_R0?AVCGuardian@@@8				; CGuardian `RTTI Type Descriptor'
PUBLIC	??_R3CGuardian@@8				; CGuardian::`RTTI Class Hierarchy Descriptor'
PUBLIC	??_R2CGuardian@@8				; CGuardian::`RTTI Base Class Array'
PUBLIC	??_R1A@?0A@EA@CGuardian@@8			; CGuardian::`RTTI Base Class Descriptor at (0,-1,0,64)'
EXTRN	??_7type_info@@6B@:QWORD			; type_info::`vftable'
EXTRN	??_ECGuardian@@UAEPAXI@Z:PROC			; CGuardian::`vector deleting destructor'
;	COMDAT ??_R1A@?0A@EA@CGuardian@@8
; File e:\work\tranet_version\gs\gameserver\guardian.cpp
rdata$r	SEGMENT
??_R1A@?0A@EA@CGuardian@@8 DD FLAT:??_R0?AVCGuardian@@@8 ; CGuardian::`RTTI Base Class Descriptor at (0,-1,0,64)'
	DD	00H
	DD	00H
	DD	0ffffffffH
	DD	00H
	DD	040H
	DD	FLAT:??_R3CGuardian@@8
rdata$r	ENDS
;	COMDAT ??_R2CGuardian@@8
rdata$r	SEGMENT
??_R2CGuardian@@8 DD FLAT:??_R1A@?0A@EA@CGuardian@@8	; CGuardian::`RTTI Base Class Array'
rdata$r	ENDS
;	COMDAT ??_R3CGuardian@@8
rdata$r	SEGMENT
??_R3CGuardian@@8 DD 00H				; CGuardian::`RTTI Class Hierarchy Descriptor'
	DD	00H
	DD	01H
	DD	FLAT:??_R2CGuardian@@8
rdata$r	ENDS
;	COMDAT ??_R0?AVCGuardian@@@8
_DATA	SEGMENT
??_R0?AVCGuardian@@@8 DD FLAT:??_7type_info@@6B@	; CGuardian `RTTI Type Descriptor'
	DD	00H
	DB	'.?AVCGuardian@@', 00H
_DATA	ENDS
;	COMDAT ??_R4CGuardian@@6B@
rdata$r	SEGMENT
??_R4CGuardian@@6B@ DD 00H				; CGuardian::`RTTI Complete Object Locator'
	DD	00H
	DD	00H
	DD	FLAT:??_R0?AVCGuardian@@@8
	DD	FLAT:??_R3CGuardian@@8
rdata$r	ENDS
;	COMDAT ??_7CGuardian@@6B@
CONST	SEGMENT
??_7CGuardian@@6B@ DD FLAT:??_R4CGuardian@@6B@		; CGuardian::`vftable'
	DD	FLAT:??_ECGuardian@@UAEPAXI@Z
; Function compile flags: /Ogtp
CONST	ENDS
;	COMDAT ??0CGuardian@@QAE@XZ
_TEXT	SEGMENT
??0CGuardian@@QAE@XZ PROC				; CGuardian::CGuardian, COMDAT
; _this$ = ecx

; 11   : {

  00000	8b c1		 mov	 eax, ecx
  00002	c7 00 00 00 00
	00		 mov	 DWORD PTR [eax], OFFSET ??_7CGuardian@@6B@

; 12   : 	return;
; 13   : }

  00008	c3		 ret	 0
??0CGuardian@@QAE@XZ ENDP				; CGuardian::CGuardian
_TEXT	ENDS
PUBLIC	??1CGuardian@@UAE@XZ				; CGuardian::~CGuardian
; Function compile flags: /Ogtp
;	COMDAT ??1CGuardian@@UAE@XZ
_TEXT	SEGMENT
??1CGuardian@@UAE@XZ PROC				; CGuardian::~CGuardian, COMDAT
; _this$ = ecx

; 16   : {

  00000	c7 01 00 00 00
	00		 mov	 DWORD PTR [ecx], OFFSET ??_7CGuardian@@6B@

; 17   : 	return;
; 18   : }

  00006	c3		 ret	 0
??1CGuardian@@UAE@XZ ENDP				; CGuardian::~CGuardian
_TEXT	ENDS
PUBLIC	?CreateGuardian@CGuardian@@QAEHH@Z		; CGuardian::CreateGuardian
EXTRN	?MsgOutput@@YAXHPADZZ:PROC			; MsgOutput
EXTRN	?Get@CMsg@@QAEPADH@Z:PROC			; CMsg::Get
EXTRN	?lMsg@@3VCMsg@@A:BYTE				; lMsg
; Function compile flags: /Ogtp
;	COMDAT ?CreateGuardian@CGuardian@@QAEHH@Z
_TEXT	SEGMENT
_iIndex$ = 8						; size = 4
?CreateGuardian@CGuardian@@QAEHH@Z PROC			; CGuardian::CreateGuardian, COMDAT
; _this$ = ecx

; 21   : {	

  00000	55		 push	 ebp
  00001	8b ec		 mov	 ebp, esp

; 22   : 	MsgOutput(iIndex, lMsg.Get( MSGGET(6,104) ));

  00003	68 68 06 00 00	 push	 1640			; 00000668H
  00008	b9 00 00 00 00	 mov	 ecx, OFFSET ?lMsg@@3VCMsg@@A ; lMsg
  0000d	e8 00 00 00 00	 call	 ?Get@CMsg@@QAEPADH@Z	; CMsg::Get
  00012	50		 push	 eax
  00013	8b 45 08	 mov	 eax, DWORD PTR _iIndex$[ebp]
  00016	50		 push	 eax
  00017	e8 00 00 00 00	 call	 ?MsgOutput@@YAXHPADZZ	; MsgOutput
  0001c	83 c4 08	 add	 esp, 8

; 23   : 	return true;

  0001f	b8 01 00 00 00	 mov	 eax, 1

; 24   : }

  00024	5d		 pop	 ebp
  00025	c2 04 00	 ret	 4
?CreateGuardian@CGuardian@@QAEHH@Z ENDP			; CGuardian::CreateGuardian
_TEXT	ENDS
PUBLIC	__real@4059000000000000
PUBLIC	?GuardianAct@CGuardian@@QAEXH@Z			; CGuardian::GuardianAct
EXTRN	?GCManaSend@@YAXHHEEH@Z:PROC			; GCManaSend
EXTRN	?GCReFillSend@@YAXHHEEH@Z:PROC			; GCReFillSend
EXTRN	?gObj@@3PAUOBJECTSTRUCT@@A:DWORD		; gObj
EXTRN	?gObjIsConnected@@YAHH@Z:PROC			; gObjIsConnected
EXTRN	__fltused:DWORD
EXTRN	__ftol2_sse:PROC
;	COMDAT __real@4059000000000000
CONST	SEGMENT
__real@4059000000000000 DQ 04059000000000000r	; 100
; Function compile flags: /Ogtp
CONST	ENDS
;	COMDAT ?GuardianAct@CGuardian@@QAEXH@Z
_TEXT	SEGMENT
_lpObj$ = -8						; size = 4
tv277 = -4						; size = 4
tv432 = 8						; size = 4
_iIndex$ = 8						; size = 4
?GuardianAct@CGuardian@@QAEXH@Z PROC			; CGuardian::GuardianAct, COMDAT
; _this$ = ecx

; 27   : {

  00000	55		 push	 ebp
  00001	8b ec		 mov	 ebp, esp
  00003	83 ec 08	 sub	 esp, 8
  00006	56		 push	 esi

; 28   : //#if(GS_CASTLE==1)
; 29   : 	if( ::gObjIsConnected(iIndex) == FALSE )

  00007	8b 75 08	 mov	 esi, DWORD PTR _iIndex$[ebp]
  0000a	56		 push	 esi
  0000b	e8 00 00 00 00	 call	 ?gObjIsConnected@@YAHH@Z ; gObjIsConnected
  00010	83 c4 04	 add	 esp, 4
  00013	85 c0		 test	 eax, eax
  00015	0f 84 e1 01 00
	00		 je	 $LN9@GuardianAc

; 30   : 	{
; 31   : 		return;
; 32   : 	}
; 33   : 
; 34   : 	LPOBJ lpObj = &gObj[iIndex];

  0001b	8b 0d 00 00 00
	00		 mov	 ecx, DWORD PTR ?gObj@@3PAUOBJECTSTRUCT@@A ; gObj
  00021	69 f6 50 2b 00
	00		 imul	 esi, 11088		; 00002b50H
  00027	57		 push	 edi
  00028	8d 3c 31	 lea	 edi, DWORD PTR [ecx+esi]

; 35   : 
; 36   : 	if( lpObj->VPCount < 1 )

  0002b	b8 01 00 00 00	 mov	 eax, 1
  00030	89 7d f8	 mov	 DWORD PTR _lpObj$[ebp], edi
  00033	39 87 30 0c 00
	00		 cmp	 DWORD PTR [edi+3120], eax
  00039	0f 8c bc 01 00
	00		 jl	 $LN19@GuardianAc

; 37   : 	{
; 38   : 		return;
; 39   : 	}
; 40   : 
; 41   : 	int tObjNum = -1;
; 42   : 
; 43   : 	for( int i = 0; i < MAX_VIEWPORT; i++ )

  0003f	dd 05 00 00 00
	00		 fld	 QWORD PTR __real@4059000000000000
  00045	8d 97 2a 05 00
	00		 lea	 edx, DWORD PTR [edi+1322]
  0004b	89 55 08	 mov	 DWORD PTR tv432[ebp], edx
  0004e	c7 45 fc 4b 00
	00 00		 mov	 DWORD PTR tv277[ebp], 75 ; 0000004bH
  00055	53		 push	 ebx
$LN11@GuardianAc:

; 44   : 	{
; 45   : 		tObjNum = lpObj->VpPlayer[i].number;

  00056	8b 55 08	 mov	 edx, DWORD PTR tv432[ebp]
  00059	0f bf 1a	 movsx	 ebx, WORD PTR [edx]

; 46   : 
; 47   : 		if( tObjNum >= 0 )

  0005c	85 db		 test	 ebx, ebx
  0005e	0f 88 82 01 00
	00		 js	 $LN10@GuardianAc

; 48   : 		{
; 49   : 			if( gObj[tObjNum].Type == OBJ_USER )

  00064	8b f3		 mov	 esi, ebx
  00066	69 f6 50 2b 00
	00		 imul	 esi, 11088		; 00002b50H
  0006c	66 39 44 0e 68	 cmp	 WORD PTR [esi+ecx+104], ax
  00071	0f 85 6f 01 00
	00		 jne	 $LN10@GuardianAc

; 50   : 			{
; 51   : 				if( gObj[tObjNum].Live != FALSE )

  00077	80 7c 0e 6a 00	 cmp	 BYTE PTR [esi+ecx+106], 0
  0007c	0f 84 64 01 00
	00		 je	 $LN10@GuardianAc

; 52   : 				{
; 53   : 					if( gObj[tObjNum].m_btCsJoinSide == lpObj->m_btCsJoinSide )

  00082	8a 84 0e 02 1c
	00 00		 mov	 al, BYTE PTR [esi+ecx+7170]
  00089	3a 87 02 1c 00
	00		 cmp	 al, BYTE PTR [edi+7170]
  0008f	0f 85 51 01 00
	00		 jne	 $LN10@GuardianAc

; 54   : 					{
; 55   : 						if( abs(lpObj->Y - gObj[tObjNum].Y) <= 3 && abs(lpObj->X - gObj[tObjNum].X) <= 3 )

  00095	0f bf 94 0e 46
	01 00 00	 movsx	 edx, WORD PTR [esi+ecx+326]
  0009d	0f bf 87 46 01
	00 00		 movsx	 eax, WORD PTR [edi+326]
  000a4	2b c2		 sub	 eax, edx
  000a6	99		 cdq
  000a7	33 c2		 xor	 eax, edx
  000a9	2b c2		 sub	 eax, edx
  000ab	83 f8 03	 cmp	 eax, 3
  000ae	0f 8f 32 01 00
	00		 jg	 $LN10@GuardianAc
  000b4	0f bf 94 0e 44
	01 00 00	 movsx	 edx, WORD PTR [esi+ecx+324]
  000bc	0f bf 87 44 01
	00 00		 movsx	 eax, WORD PTR [edi+324]
  000c3	2b c2		 sub	 eax, edx
  000c5	99		 cdq
  000c6	33 c2		 xor	 eax, edx
  000c8	2b c2		 sub	 eax, edx
  000ca	83 f8 03	 cmp	 eax, 3
  000cd	0f 8f 13 01 00
	00		 jg	 $LN10@GuardianAc

; 56   : 						{
; 57   : 							gObj[tObjNum].Life += 100.0f;

  000d3	d9 84 0e fc 00
	00 00		 fld	 DWORD PTR [esi+ecx+252]
  000da	8d 84 0e fc 00
	00 00		 lea	 eax, DWORD PTR [esi+ecx+252]
  000e1	d8 c1		 fadd	 ST(0), ST(1)
  000e3	d9 18		 fstp	 DWORD PTR [eax]

; 58   : 							gObj[tObjNum].Mana += 100.0f;

  000e5	a1 00 00 00 00	 mov	 eax, DWORD PTR ?gObj@@3PAUOBJECTSTRUCT@@A ; gObj
  000ea	d8 84 06 10 01
	00 00		 fadd	 DWORD PTR [esi+eax+272]
  000f1	d9 9c 06 10 01
	00 00		 fstp	 DWORD PTR [esi+eax+272]

; 59   : 							gObj[tObjNum].BP += 100;

  000f8	a1 00 00 00 00	 mov	 eax, DWORD PTR ?gObj@@3PAUOBJECTSTRUCT@@A ; gObj
  000fd	83 84 06 28 01
	00 00 64	 add	 DWORD PTR [esi+eax+296], 100 ; 00000064H

; 60   : 
; 61   : 							if ( gObj[tObjNum].Life > gObj[tObjNum].MaxLife )

  00105	8b 0d 00 00 00
	00		 mov	 ecx, DWORD PTR ?gObj@@3PAUOBJECTSTRUCT@@A ; gObj
  0010b	d9 84 0e fc 00
	00 00		 fld	 DWORD PTR [esi+ecx+252]
  00112	8d 94 0e fc 00
	00 00		 lea	 edx, DWORD PTR [esi+ecx+252]
  00119	d9 84 0e 00 01
	00 00		 fld	 DWORD PTR [esi+ecx+256]
  00120	8d bc 0e 00 01
	00 00		 lea	 edi, DWORD PTR [esi+ecx+256]
  00127	de d9		 fcompp
  00129	df e0		 fnstsw	 ax
  0012b	f6 c4 05	 test	 ah, 5
  0012e	7a 0a		 jp	 SHORT $LN3@GuardianAc

; 62   : 								gObj[tObjNum].Life = gObj[tObjNum].MaxLife;

  00130	d9 07		 fld	 DWORD PTR [edi]
  00132	d9 1a		 fstp	 DWORD PTR [edx]
  00134	8b 0d 00 00 00
	00		 mov	 ecx, DWORD PTR ?gObj@@3PAUOBJECTSTRUCT@@A ; gObj
$LN3@GuardianAc:

; 63   : 
; 64   : 							if ( gObj[tObjNum].Mana > gObj[tObjNum].MaxMana )

  0013a	d9 84 0e 10 01
	00 00		 fld	 DWORD PTR [esi+ecx+272]
  00141	8d 94 0e 10 01
	00 00		 lea	 edx, DWORD PTR [esi+ecx+272]
  00148	d9 84 0e 14 01
	00 00		 fld	 DWORD PTR [esi+ecx+276]
  0014f	8d bc 0e 14 01
	00 00		 lea	 edi, DWORD PTR [esi+ecx+276]
  00156	de d9		 fcompp
  00158	df e0		 fnstsw	 ax
  0015a	f6 c4 05	 test	 ah, 5
  0015d	7a 0a		 jp	 SHORT $LN2@GuardianAc

; 65   : 								gObj[tObjNum].Mana = gObj[tObjNum].MaxMana;

  0015f	d9 07		 fld	 DWORD PTR [edi]
  00161	d9 1a		 fstp	 DWORD PTR [edx]
  00163	8b 0d 00 00 00
	00		 mov	 ecx, DWORD PTR ?gObj@@3PAUOBJECTSTRUCT@@A ; gObj
$LN2@GuardianAc:

; 66   : 
; 67   : 							if ( gObj[tObjNum].BP > gObj[tObjNum].MaxBP )

  00169	8b 94 0e 2c 01
	00 00		 mov	 edx, DWORD PTR [esi+ecx+300]
  00170	39 94 0e 28 01
	00 00		 cmp	 DWORD PTR [esi+ecx+296], edx
  00177	8d 84 0e 28 01
	00 00		 lea	 eax, DWORD PTR [esi+ecx+296]
  0017e	7e 08		 jle	 SHORT $LN1@GuardianAc

; 68   : 								gObj[tObjNum].BP = gObj[tObjNum].MaxBP;

  00180	89 10		 mov	 DWORD PTR [eax], edx
  00182	8b 0d 00 00 00
	00		 mov	 ecx, DWORD PTR ?gObj@@3PAUOBJECTSTRUCT@@A ; gObj
$LN1@GuardianAc:

; 69   : 
; 70   : 							GCReFillSend(tObjNum, gObj[tObjNum].Life, 0xFF, 1, gObj[tObjNum].iShield);

  00188	8b 84 0e 54 01
	00 00		 mov	 eax, DWORD PTR [esi+ecx+340]
  0018f	d9 84 0e fc 00
	00 00		 fld	 DWORD PTR [esi+ecx+252]
  00196	50		 push	 eax
  00197	6a 01		 push	 1
  00199	68 ff 00 00 00	 push	 255			; 000000ffH
  0019e	e8 00 00 00 00	 call	 __ftol2_sse
  001a3	50		 push	 eax
  001a4	53		 push	 ebx
  001a5	e8 00 00 00 00	 call	 ?GCReFillSend@@YAXHHEEH@Z ; GCReFillSend

; 71   : 							GCManaSend(tObjNum, gObj[tObjNum].Mana, 0xFF, 0, gObj[tObjNum].BP);

  001aa	a1 00 00 00 00	 mov	 eax, DWORD PTR ?gObj@@3PAUOBJECTSTRUCT@@A ; gObj
  001af	8b 8c 06 28 01
	00 00		 mov	 ecx, DWORD PTR [esi+eax+296]
  001b6	d9 84 06 10 01
	00 00		 fld	 DWORD PTR [esi+eax+272]
  001bd	83 c4 14	 add	 esp, 20			; 00000014H
  001c0	51		 push	 ecx
  001c1	6a 00		 push	 0
  001c3	68 ff 00 00 00	 push	 255			; 000000ffH
  001c8	e8 00 00 00 00	 call	 __ftol2_sse
  001cd	50		 push	 eax
  001ce	53		 push	 ebx
  001cf	e8 00 00 00 00	 call	 ?GCManaSend@@YAXHHEEH@Z	; GCManaSend
  001d4	dd 05 00 00 00
	00		 fld	 QWORD PTR __real@4059000000000000
  001da	8b 0d 00 00 00
	00		 mov	 ecx, DWORD PTR ?gObj@@3PAUOBJECTSTRUCT@@A ; gObj
  001e0	8b 7d f8	 mov	 edi, DWORD PTR _lpObj$[ebp]
  001e3	83 c4 14	 add	 esp, 20			; 00000014H
$LN10@GuardianAc:

; 37   : 	{
; 38   : 		return;
; 39   : 	}
; 40   : 
; 41   : 	int tObjNum = -1;
; 42   : 
; 43   : 	for( int i = 0; i < MAX_VIEWPORT; i++ )

  001e6	83 45 08 0c	 add	 DWORD PTR tv432[ebp], 12 ; 0000000cH
  001ea	b8 01 00 00 00	 mov	 eax, 1
  001ef	29 45 fc	 sub	 DWORD PTR tv277[ebp], eax
  001f2	0f 85 5e fe ff
	ff		 jne	 $LN11@GuardianAc
  001f8	dd d8		 fstp	 ST(0)
  001fa	5b		 pop	 ebx
$LN19@GuardianAc:
  001fb	5f		 pop	 edi
$LN9@GuardianAc:
  001fc	5e		 pop	 esi

; 72   : 						}
; 73   : 					}
; 74   : 				}
; 75   : 			}
; 76   : 		}
; 77   : 	}
; 78   : //#endif
; 79   : }

  001fd	8b e5		 mov	 esp, ebp
  001ff	5d		 pop	 ebp
  00200	c2 04 00	 ret	 4
?GuardianAct@CGuardian@@QAEXH@Z ENDP			; CGuardian::GuardianAct
_TEXT	ENDS
EXTRN	??3@YAXPAX@Z:PROC				; operator delete
; Function compile flags: /Ogtp
;	COMDAT ??_GCGuardian@@UAEPAXI@Z
_TEXT	SEGMENT
___flags$ = 8						; size = 4
??_GCGuardian@@UAEPAXI@Z PROC				; CGuardian::`scalar deleting destructor', COMDAT
; _this$ = ecx
  00000	55		 push	 ebp
  00001	8b ec		 mov	 ebp, esp
  00003	56		 push	 esi
  00004	8b f1		 mov	 esi, ecx
  00006	e8 00 00 00 00	 call	 ??1CGuardian@@UAE@XZ	; CGuardian::~CGuardian
  0000b	f6 45 08 01	 test	 BYTE PTR ___flags$[ebp], 1
  0000f	74 09		 je	 SHORT $LN4@scalar
  00011	56		 push	 esi
  00012	e8 00 00 00 00	 call	 ??3@YAXPAX@Z		; operator delete
  00017	83 c4 04	 add	 esp, 4
$LN4@scalar:
  0001a	8b c6		 mov	 eax, esi
  0001c	5e		 pop	 esi
  0001d	5d		 pop	 ebp
  0001e	c2 04 00	 ret	 4
??_GCGuardian@@UAEPAXI@Z ENDP				; CGuardian::`scalar deleting destructor'
_TEXT	ENDS
EXTRN	_atexit:PROC
; Function compile flags: /Ogtp
;	COMDAT ??__Eg_CsNPC_Guardian@@YAXXZ
text$yc	SEGMENT
??__Eg_CsNPC_Guardian@@YAXXZ PROC			; `dynamic initializer for 'g_CsNPC_Guardian'', COMDAT

; 8    : CGuardian g_CsNPC_Guardian;

  00000	b9 00 00 00 00	 mov	 ecx, OFFSET ?g_CsNPC_Guardian@@3VCGuardian@@A ; g_CsNPC_Guardian
  00005	e8 00 00 00 00	 call	 ??0CGuardian@@QAE@XZ	; CGuardian::CGuardian
  0000a	68 00 00 00 00	 push	 OFFSET ??__Fg_CsNPC_Guardian@@YAXXZ ; `dynamic atexit destructor for 'g_CsNPC_Guardian''
  0000f	e8 00 00 00 00	 call	 _atexit
  00014	59		 pop	 ecx
  00015	c3		 ret	 0
??__Eg_CsNPC_Guardian@@YAXXZ ENDP			; `dynamic initializer for 'g_CsNPC_Guardian''
; Function compile flags: /Ogtp
text$yc	ENDS
;	COMDAT ??__Fg_CsNPC_Guardian@@YAXXZ
text$yd	SEGMENT
??__Fg_CsNPC_Guardian@@YAXXZ PROC			; `dynamic atexit destructor for 'g_CsNPC_Guardian'', COMDAT
  00000	b9 00 00 00 00	 mov	 ecx, OFFSET ?g_CsNPC_Guardian@@3VCGuardian@@A ; g_CsNPC_Guardian
  00005	e9 00 00 00 00	 jmp	 ??1CGuardian@@UAE@XZ	; CGuardian::~CGuardian
??__Fg_CsNPC_Guardian@@YAXXZ ENDP			; `dynamic atexit destructor for 'g_CsNPC_Guardian''
text$yd	ENDS
PUBLIC	?g_CsNPC_Guardian@@3VCGuardian@@A		; g_CsNPC_Guardian
_BSS	SEGMENT
?g_CsNPC_Guardian@@3VCGuardian@@A DD 01H DUP (?)	; g_CsNPC_Guardian
_BSS	ENDS
CRT$XCU	SEGMENT
_g_CsNPC_Guardian$initializer$ DD FLAT:??__Eg_CsNPC_Guardian@@YAXXZ
CRT$XCU	ENDS
END
