; Listing generated by Microsoft (R) Optimizing Compiler Version 16.00.30319.01 

	TITLE	E:\work\tranet_version\GS\GameServer\GuardianStatue.cpp
	.686P
	.XMM
	include listing.inc
	.model	flat

INCLUDELIB LIBCMT
INCLUDELIB OLDNAMES

PUBLIC	??_H@YGXPAXIHP6EPAX0@Z@Z			; `vector constructor iterator'
; Function compile flags: /Ogtp
;	COMDAT ??_H@YGXPAXIHP6EPAX0@Z@Z
_TEXT	SEGMENT
___t$ = 8						; size = 4
___s$ = 12						; size = 4
___n$ = 16						; size = 4
___f$ = 20						; size = 4
??_H@YGXPAXIHP6EPAX0@Z@Z PROC				; `vector constructor iterator', COMDAT
  00000	55		 push	 ebp
  00001	8b ec		 mov	 ebp, esp
  00003	57		 push	 edi
  00004	8b 7d 10	 mov	 edi, DWORD PTR ___n$[ebp]
  00007	4f		 dec	 edi
  00008	78 14		 js	 SHORT $LN1@vector
  0000a	53		 push	 ebx
  0000b	8b 5d 14	 mov	 ebx, DWORD PTR ___f$[ebp]
  0000e	56		 push	 esi
  0000f	8b 75 08	 mov	 esi, DWORD PTR ___t$[ebp]
$LL2@vector:
  00012	8b ce		 mov	 ecx, esi
  00014	ff d3		 call	 ebx
  00016	03 75 0c	 add	 esi, DWORD PTR ___s$[ebp]
  00019	4f		 dec	 edi
  0001a	79 f6		 jns	 SHORT $LL2@vector
  0001c	5e		 pop	 esi
  0001d	5b		 pop	 ebx
$LN1@vector:
  0001e	5f		 pop	 edi
  0001f	5d		 pop	 ebp
  00020	c2 10 00	 ret	 16			; 00000010H
??_H@YGXPAXIHP6EPAX0@Z@Z ENDP				; `vector constructor iterator'
_TEXT	ENDS
PUBLIC	??_7CGuardianStatue@@6B@			; CGuardianStatue::`vftable'
PUBLIC	??0CGuardianStatue@@QAE@XZ			; CGuardianStatue::CGuardianStatue
PUBLIC	??_R4CGuardianStatue@@6B@			; CGuardianStatue::`RTTI Complete Object Locator'
PUBLIC	??_R0?AVCGuardianStatue@@@8			; CGuardianStatue `RTTI Type Descriptor'
PUBLIC	??_R3CGuardianStatue@@8				; CGuardianStatue::`RTTI Class Hierarchy Descriptor'
PUBLIC	??_R2CGuardianStatue@@8				; CGuardianStatue::`RTTI Base Class Array'
PUBLIC	??_R1A@?0A@EA@CGuardianStatue@@8		; CGuardianStatue::`RTTI Base Class Descriptor at (0,-1,0,64)'
EXTRN	??_7type_info@@6B@:QWORD			; type_info::`vftable'
EXTRN	??_ECGuardianStatue@@UAEPAXI@Z:PROC		; CGuardianStatue::`vector deleting destructor'
;	COMDAT ??_R1A@?0A@EA@CGuardianStatue@@8
; File e:\work\tranet_version\gs\gameserver\guardianstatue.cpp
rdata$r	SEGMENT
??_R1A@?0A@EA@CGuardianStatue@@8 DD FLAT:??_R0?AVCGuardianStatue@@@8 ; CGuardianStatue::`RTTI Base Class Descriptor at (0,-1,0,64)'
	DD	00H
	DD	00H
	DD	0ffffffffH
	DD	00H
	DD	040H
	DD	FLAT:??_R3CGuardianStatue@@8
rdata$r	ENDS
;	COMDAT ??_R2CGuardianStatue@@8
rdata$r	SEGMENT
??_R2CGuardianStatue@@8 DD FLAT:??_R1A@?0A@EA@CGuardianStatue@@8 ; CGuardianStatue::`RTTI Base Class Array'
rdata$r	ENDS
;	COMDAT ??_R3CGuardianStatue@@8
rdata$r	SEGMENT
??_R3CGuardianStatue@@8 DD 00H				; CGuardianStatue::`RTTI Class Hierarchy Descriptor'
	DD	00H
	DD	01H
	DD	FLAT:??_R2CGuardianStatue@@8
rdata$r	ENDS
;	COMDAT ??_R0?AVCGuardianStatue@@@8
_DATA	SEGMENT
??_R0?AVCGuardianStatue@@@8 DD FLAT:??_7type_info@@6B@	; CGuardianStatue `RTTI Type Descriptor'
	DD	00H
	DB	'.?AVCGuardianStatue@@', 00H
_DATA	ENDS
;	COMDAT ??_R4CGuardianStatue@@6B@
rdata$r	SEGMENT
??_R4CGuardianStatue@@6B@ DD 00H			; CGuardianStatue::`RTTI Complete Object Locator'
	DD	00H
	DD	00H
	DD	FLAT:??_R0?AVCGuardianStatue@@@8
	DD	FLAT:??_R3CGuardianStatue@@8
rdata$r	ENDS
;	COMDAT ??_7CGuardianStatue@@6B@
CONST	SEGMENT
??_7CGuardianStatue@@6B@ DD FLAT:??_R4CGuardianStatue@@6B@ ; CGuardianStatue::`vftable'
	DD	FLAT:??_ECGuardianStatue@@UAEPAXI@Z
; Function compile flags: /Ogtp
CONST	ENDS
;	COMDAT ??0CGuardianStatue@@QAE@XZ
_TEXT	SEGMENT
??0CGuardianStatue@@QAE@XZ PROC				; CGuardianStatue::CGuardianStatue, COMDAT
; _this$ = ecx

; 17   : {

  00000	8b c1		 mov	 eax, ecx
  00002	c7 00 00 00 00
	00		 mov	 DWORD PTR [eax], OFFSET ??_7CGuardianStatue@@6B@

; 18   : 
; 19   : }

  00008	c3		 ret	 0
??0CGuardianStatue@@QAE@XZ ENDP				; CGuardianStatue::CGuardianStatue
_TEXT	ENDS
PUBLIC	??1CGuardianStatue@@UAE@XZ			; CGuardianStatue::~CGuardianStatue
; Function compile flags: /Ogtp
;	COMDAT ??1CGuardianStatue@@UAE@XZ
_TEXT	SEGMENT
??1CGuardianStatue@@UAE@XZ PROC				; CGuardianStatue::~CGuardianStatue, COMDAT
; _this$ = ecx

; 22   : {

  00000	c7 01 00 00 00
	00		 mov	 DWORD PTR [ecx], OFFSET ??_7CGuardianStatue@@6B@

; 23   : 
; 24   : }

  00006	c3		 ret	 0
??1CGuardianStatue@@UAE@XZ ENDP				; CGuardianStatue::~CGuardianStatue
_TEXT	ENDS
PUBLIC	__real@4059000000000000
PUBLIC	?GuardianStatueAct@CGuardianStatue@@QAEXH@Z	; CGuardianStatue::GuardianStatueAct
EXTRN	?GCManaSend@@YAXHHEEH@Z:PROC			; GCManaSend
EXTRN	?GCReFillSend@@YAXHHEEH@Z:PROC			; GCReFillSend
EXTRN	?gObj@@3PAUOBJECTSTRUCT@@A:DWORD		; gObj
EXTRN	?gObjIsConnected@@YAHH@Z:PROC			; gObjIsConnected
EXTRN	__fltused:DWORD
EXTRN	__ftol2_sse:PROC
;	COMDAT __real@4059000000000000
CONST	SEGMENT
__real@4059000000000000 DQ 04059000000000000r	; 100
; Function compile flags: /Ogtp
CONST	ENDS
;	COMDAT ?GuardianStatueAct@CGuardianStatue@@QAEXH@Z
_TEXT	SEGMENT
_bIsMaxBP$202083 = -20					; size = 4
tv324 = -16						; size = 4
_tObjNum$ = -12						; size = 4
tv608 = -8						; size = 4
_bIsMaxMana$202082 = -8					; size = 4
tv624 = -4						; size = 4
_bIsMaxLife$202081 = -4					; size = 4
tv674 = 8						; size = 4
_iIndex$ = 8						; size = 4
?GuardianStatueAct@CGuardianStatue@@QAEXH@Z PROC	; CGuardianStatue::GuardianStatueAct, COMDAT
; _this$ = ecx

; 27   : {

  00000	55		 push	 ebp
  00001	8b ec		 mov	 ebp, esp
  00003	83 ec 14	 sub	 esp, 20			; 00000014H
  00006	56		 push	 esi

; 28   : 	if( ::gObjIsConnected(iIndex) == FALSE )

  00007	8b 75 08	 mov	 esi, DWORD PTR _iIndex$[ebp]
  0000a	56		 push	 esi
  0000b	e8 00 00 00 00	 call	 ?gObjIsConnected@@YAHH@Z ; gObjIsConnected
  00010	83 c4 04	 add	 esp, 4
  00013	85 c0		 test	 eax, eax
  00015	0f 84 9d 02 00
	00		 je	 $LN15@GuardianSt

; 29   : 	{
; 30   : 		return;
; 31   : 	}
; 32   : 
; 33   : 	LPOBJ lpObj = &gObj[iIndex];

  0001b	8b 0d 00 00 00
	00		 mov	 ecx, DWORD PTR ?gObj@@3PAUOBJECTSTRUCT@@A ; gObj
  00021	69 f6 50 2b 00
	00		 imul	 esi, 11088		; 00002b50H
  00027	53		 push	 ebx
  00028	8d 1c 31	 lea	 ebx, DWORD PTR [ecx+esi]

; 34   : 
; 35   : 	if( lpObj->VPCount < 1 )

  0002b	b8 01 00 00 00	 mov	 eax, 1
  00030	39 83 30 0c 00
	00		 cmp	 DWORD PTR [ebx+3120], eax
  00036	0f 8c 7b 02 00
	00		 jl	 $LN30@GuardianSt

; 36   : 	{
; 37   : 		return;
; 38   : 	}
; 39   : 
; 40   : 	int tObjNum = -1;
; 41   : 
; 42   : 	for( int i = 0; i < MAX_VIEWPORT; i++ )

  0003c	8d 93 2a 05 00
	00		 lea	 edx, DWORD PTR [ebx+1322]
  00042	57		 push	 edi
  00043	89 55 08	 mov	 DWORD PTR tv674[ebp], edx
  00046	c7 45 f0 4b 00
	00 00		 mov	 DWORD PTR tv324[ebp], 75 ; 0000004bH
  0004d	8d 49 00	 npad	 3
$LL24@GuardianSt:

; 43   : 	{
; 44   : 		tObjNum = lpObj->VpPlayer[i].number;

  00050	8b 55 08	 mov	 edx, DWORD PTR tv674[ebp]
  00053	dd 05 00 00 00
	00		 fld	 QWORD PTR __real@4059000000000000
  00059	0f bf 32	 movsx	 esi, WORD PTR [edx]

; 45   : 
; 46   : 		if( tObjNum >= 0 )

  0005c	33 ff		 xor	 edi, edi
  0005e	89 75 f4	 mov	 DWORD PTR _tObjNum$[ebp], esi
  00061	3b f7		 cmp	 esi, edi
  00063	0f 8c 39 02 00
	00		 jl	 $LN49@GuardianSt

; 47   : 		{
; 48   : 			if( gObj[tObjNum].Type == OBJ_USER )

  00069	69 f6 50 2b 00
	00		 imul	 esi, 11088		; 00002b50H
  0006f	66 39 44 0e 68	 cmp	 WORD PTR [esi+ecx+104], ax
  00074	0f 85 28 02 00
	00		 jne	 $LN49@GuardianSt

; 49   : 			{
; 50   : 				if( gObj[tObjNum].Live != FALSE )

  0007a	80 7c 0e 6a 00	 cmp	 BYTE PTR [esi+ecx+106], 0
  0007f	0f 84 1d 02 00
	00		 je	 $LN49@GuardianSt

; 51   : 				{
; 52   : 					if( gObj[tObjNum].m_btCsJoinSide == 1 )

  00085	80 bc 0e 02 1c
	00 00 01	 cmp	 BYTE PTR [esi+ecx+7170], 1
  0008d	0f 85 0f 02 00
	00		 jne	 $LN49@GuardianSt

; 53   : 					{
; 54   : 						if( abs(lpObj->Y - gObj[tObjNum].Y) <= 3 && abs(lpObj->X - gObj[tObjNum].X) <= 3 )

  00093	0f bf 94 0e 46
	01 00 00	 movsx	 edx, WORD PTR [esi+ecx+326]
  0009b	0f bf 83 46 01
	00 00		 movsx	 eax, WORD PTR [ebx+326]
  000a2	2b c2		 sub	 eax, edx
  000a4	99		 cdq
  000a5	33 c2		 xor	 eax, edx
  000a7	2b c2		 sub	 eax, edx
  000a9	83 f8 03	 cmp	 eax, 3
  000ac	0f 8f f0 01 00
	00		 jg	 $LN49@GuardianSt
  000b2	0f bf 94 0e 44
	01 00 00	 movsx	 edx, WORD PTR [esi+ecx+324]
  000ba	0f bf 83 44 01
	00 00		 movsx	 eax, WORD PTR [ebx+324]
  000c1	2b c2		 sub	 eax, edx
  000c3	99		 cdq
  000c4	33 c2		 xor	 eax, edx
  000c6	2b c2		 sub	 eax, edx
  000c8	83 f8 03	 cmp	 eax, 3
  000cb	0f 8f d1 01 00
	00		 jg	 $LN49@GuardianSt

; 55   : 						{
; 56   : 							BOOL bIsMaxLife = FALSE;
; 57   : 							BOOL bIsMaxMana = FALSE;
; 58   : 							BOOL bIsMaxBP	= FALSE;
; 59   : 
; 60   : 							if( gObj[tObjNum].Life < (gObj[tObjNum].MaxLife + gObj[tObjNum].AddLife) )

  000d1	db 84 0e 4c 01
	00 00		 fild	 DWORD PTR [esi+ecx+332]
  000d8	8d 94 0e fc 00
	00 00		 lea	 edx, DWORD PTR [esi+ecx+252]
  000df	89 7d fc	 mov	 DWORD PTR _bIsMaxLife$202081[ebp], edi
  000e2	89 7d f8	 mov	 DWORD PTR _bIsMaxMana$202082[ebp], edi
  000e5	d8 84 0e 00 01
	00 00		 fadd	 DWORD PTR [esi+ecx+256]
  000ec	89 7d ec	 mov	 DWORD PTR _bIsMaxBP$202083[ebp], edi
  000ef	d9 02		 fld	 DWORD PTR [edx]
  000f1	d8 d9		 fcomp	 ST(1)
  000f3	df e0		 fnstsw	 ax
  000f5	f6 c4 05	 test	 ah, 5
  000f8	7a 56		 jp	 SHORT $LN52@GuardianSt

; 61   : 							{
; 62   : 								gObj[tObjNum].Life += ( (gObj[tObjNum].MaxLife + gObj[tObjNum].AddLife) * (lpObj->m_btCsNpcRgLevel+1) / 100 );

  000fa	0f b6 83 01 1c
	00 00		 movzx	 eax, BYTE PTR [ebx+7169]
  00101	40		 inc	 eax
  00102	89 45 fc	 mov	 DWORD PTR tv624[ebp], eax
  00105	da 4d fc	 fimul	 DWORD PTR tv624[ebp]
  00108	d8 f1		 fdiv	 ST(0), ST(1)
  0010a	d8 02		 fadd	 DWORD PTR [edx]
  0010c	d9 1a		 fstp	 DWORD PTR [edx]

; 63   : 
; 64   : 								if( gObj[tObjNum].Life > (gObj[tObjNum].MaxLife + gObj[tObjNum].AddLife) )

  0010e	8b 0d 00 00 00
	00		 mov	 ecx, DWORD PTR ?gObj@@3PAUOBJECTSTRUCT@@A ; gObj
  00114	db 84 0e 4c 01
	00 00		 fild	 DWORD PTR [esi+ecx+332]
  0011b	8d 94 0e fc 00
	00 00		 lea	 edx, DWORD PTR [esi+ecx+252]
  00122	d8 84 0e 00 01
	00 00		 fadd	 DWORD PTR [esi+ecx+256]
  00129	d9 02		 fld	 DWORD PTR [edx]
  0012b	d8 d9		 fcomp	 ST(1)
  0012d	df e0		 fnstsw	 ax
  0012f	f6 c4 41	 test	 ah, 65			; 00000041H
  00132	75 11		 jne	 SHORT $LN55@GuardianSt

; 65   : 								{
; 66   : 									gObj[tObjNum].Life = gObj[tObjNum].MaxLife + gObj[tObjNum].AddLife;

  00134	d9 1a		 fstp	 DWORD PTR [edx]
  00136	8b 0d 00 00 00
	00		 mov	 ecx, DWORD PTR ?gObj@@3PAUOBJECTSTRUCT@@A ; gObj

; 67   : 								}
; 68   : 
; 69   : 								bIsMaxLife = TRUE;

  0013c	c7 45 fc 01 00
	00 00		 mov	 DWORD PTR _bIsMaxLife$202081[ebp], 1
  00143	eb 0d		 jmp	 SHORT $LN28@GuardianSt
$LN55@GuardianSt:

; 65   : 								{
; 66   : 									gObj[tObjNum].Life = gObj[tObjNum].MaxLife + gObj[tObjNum].AddLife;

  00145	dd d8		 fstp	 ST(0)

; 67   : 								}
; 68   : 
; 69   : 								bIsMaxLife = TRUE;

  00147	c7 45 fc 01 00
	00 00		 mov	 DWORD PTR _bIsMaxLife$202081[ebp], 1
  0014e	eb 02		 jmp	 SHORT $LN28@GuardianSt
$LN52@GuardianSt:
  00150	dd d8		 fstp	 ST(0)
$LN28@GuardianSt:

; 70   : 							}
; 71   : 							
; 72   : 							if( gObj[tObjNum].Mana < (gObj[tObjNum].MaxMana + gObj[tObjNum].AddMana) )

  00152	db 84 0e 50 01
	00 00		 fild	 DWORD PTR [esi+ecx+336]
  00159	8d 94 0e 10 01
	00 00		 lea	 edx, DWORD PTR [esi+ecx+272]
  00160	d8 84 0e 14 01
	00 00		 fadd	 DWORD PTR [esi+ecx+276]
  00167	d9 02		 fld	 DWORD PTR [edx]
  00169	d8 d9		 fcomp	 ST(1)
  0016b	df e0		 fnstsw	 ax
  0016d	f6 c4 05	 test	 ah, 5
  00170	7a 56		 jp	 SHORT $LN58@GuardianSt

; 73   : 							{
; 74   : 								gObj[tObjNum].Mana += ( (gObj[tObjNum].MaxMana + gObj[tObjNum].AddMana) * (lpObj->m_btCsNpcRgLevel+1)) / 100;

  00172	0f b6 8b 01 1c
	00 00		 movzx	 ecx, BYTE PTR [ebx+7169]
  00179	41		 inc	 ecx
  0017a	89 4d f8	 mov	 DWORD PTR tv608[ebp], ecx
  0017d	da 4d f8	 fimul	 DWORD PTR tv608[ebp]
  00180	de f1		 fdivrp	 ST(1), ST(0)
  00182	d8 02		 fadd	 DWORD PTR [edx]
  00184	d9 1a		 fstp	 DWORD PTR [edx]

; 75   : 
; 76   : 								if( gObj[tObjNum].Mana > (gObj[tObjNum].MaxMana + gObj[tObjNum].AddMana) )

  00186	8b 0d 00 00 00
	00		 mov	 ecx, DWORD PTR ?gObj@@3PAUOBJECTSTRUCT@@A ; gObj
  0018c	db 84 0e 50 01
	00 00		 fild	 DWORD PTR [esi+ecx+336]
  00193	8d 94 0e 10 01
	00 00		 lea	 edx, DWORD PTR [esi+ecx+272]
  0019a	d8 84 0e 14 01
	00 00		 fadd	 DWORD PTR [esi+ecx+276]
  001a1	d9 02		 fld	 DWORD PTR [edx]
  001a3	d8 d9		 fcomp	 ST(1)
  001a5	df e0		 fnstsw	 ax
  001a7	f6 c4 41	 test	 ah, 65			; 00000041H
  001aa	75 11		 jne	 SHORT $LN61@GuardianSt

; 77   : 								{
; 78   : 									gObj[tObjNum].Mana = gObj[tObjNum].MaxMana + gObj[tObjNum].AddMana;

  001ac	d9 1a		 fstp	 DWORD PTR [edx]
  001ae	8b 0d 00 00 00
	00		 mov	 ecx, DWORD PTR ?gObj@@3PAUOBJECTSTRUCT@@A ; gObj

; 79   : 								}
; 80   : 
; 81   : 								bIsMaxMana = TRUE;

  001b4	c7 45 f8 01 00
	00 00		 mov	 DWORD PTR _bIsMaxMana$202082[ebp], 1
  001bb	eb 0f		 jmp	 SHORT $LN7@GuardianSt
$LN61@GuardianSt:

; 77   : 								{
; 78   : 									gObj[tObjNum].Mana = gObj[tObjNum].MaxMana + gObj[tObjNum].AddMana;

  001bd	dd d8		 fstp	 ST(0)

; 79   : 								}
; 80   : 
; 81   : 								bIsMaxMana = TRUE;

  001bf	c7 45 f8 01 00
	00 00		 mov	 DWORD PTR _bIsMaxMana$202082[ebp], 1
  001c6	eb 04		 jmp	 SHORT $LN7@GuardianSt
$LN58@GuardianSt:
  001c8	dd d8		 fstp	 ST(0)
  001ca	dd d8		 fstp	 ST(0)
$LN7@GuardianSt:

; 82   : 							}
; 83   : 
; 84   : 							if( gObj[tObjNum].BP < (gObj[tObjNum].MaxBP + gObj[tObjNum].AddBP) )

  001cc	8b 84 0e 2c 01
	00 00		 mov	 eax, DWORD PTR [esi+ecx+300]
  001d3	03 84 0e 30 01
	00 00		 add	 eax, DWORD PTR [esi+ecx+304]
  001da	8d bc 0e 28 01
	00 00		 lea	 edi, DWORD PTR [esi+ecx+296]
  001e1	39 07		 cmp	 DWORD PTR [edi], eax
  001e3	7d 4c		 jge	 SHORT $LN25@GuardianSt

; 85   : 							{
; 86   : 								gObj[tObjNum].BP += ( (gObj[tObjNum].MaxBP + gObj[tObjNum].AddBP) * (lpObj->m_btCsNpcRgLevel+1) / 100);

  001e5	0f b6 8b 01 1c
	00 00		 movzx	 ecx, BYTE PTR [ebx+7169]
  001ec	41		 inc	 ecx
  001ed	0f af c8	 imul	 ecx, eax
  001f0	b8 1f 85 eb 51	 mov	 eax, 1374389535		; 51eb851fH
  001f5	f7 e9		 imul	 ecx
  001f7	c1 fa 05	 sar	 edx, 5
  001fa	8b ca		 mov	 ecx, edx
  001fc	c1 e9 1f	 shr	 ecx, 31			; 0000001fH
  001ff	03 ca		 add	 ecx, edx
  00201	01 0f		 add	 DWORD PTR [edi], ecx

; 87   : 
; 88   : 								if( gObj[tObjNum].BP > (gObj[tObjNum].MaxBP + gObj[tObjNum].AddBP) )

  00203	8b 0d 00 00 00
	00		 mov	 ecx, DWORD PTR ?gObj@@3PAUOBJECTSTRUCT@@A ; gObj
  00209	8b 84 0e 2c 01
	00 00		 mov	 eax, DWORD PTR [esi+ecx+300]
  00210	03 84 0e 30 01
	00 00		 add	 eax, DWORD PTR [esi+ecx+304]
  00217	8d 94 0e 28 01
	00 00		 lea	 edx, DWORD PTR [esi+ecx+296]
  0021e	39 02		 cmp	 DWORD PTR [edx], eax
  00220	7e 08		 jle	 SHORT $LN4@GuardianSt

; 89   : 								{
; 90   : 									gObj[tObjNum].BP = gObj[tObjNum].MaxBP + gObj[tObjNum].AddBP;

  00222	89 02		 mov	 DWORD PTR [edx], eax
  00224	8b 0d 00 00 00
	00		 mov	 ecx, DWORD PTR ?gObj@@3PAUOBJECTSTRUCT@@A ; gObj
$LN4@GuardianSt:

; 91   : 								}
; 92   : 
; 93   : 								bIsMaxBP = TRUE;

  0022a	bf 01 00 00 00	 mov	 edi, 1
  0022f	eb 03		 jmp	 SHORT $LN5@GuardianSt
$LN25@GuardianSt:
  00231	8b 7d ec	 mov	 edi, DWORD PTR _bIsMaxBP$202083[ebp]
$LN5@GuardianSt:

; 94   : 							}
; 95   : 
; 96   : 							if( bIsMaxLife != FALSE )

  00234	83 7d fc 00	 cmp	 DWORD PTR _bIsMaxLife$202081[ebp], 0
  00238	74 2e		 je	 SHORT $LN26@GuardianSt

; 97   : 							{
; 98   : 								::GCReFillSend(tObjNum, gObj[tObjNum].Life, 0xFF, 1, gObj[tObjNum].iShield);

  0023a	8b 94 0e 54 01
	00 00		 mov	 edx, DWORD PTR [esi+ecx+340]
  00241	d9 84 0e fc 00
	00 00		 fld	 DWORD PTR [esi+ecx+252]
  00248	52		 push	 edx
  00249	6a 01		 push	 1
  0024b	68 ff 00 00 00	 push	 255			; 000000ffH
  00250	e8 00 00 00 00	 call	 __ftol2_sse
  00255	50		 push	 eax
  00256	8b 45 f4	 mov	 eax, DWORD PTR _tObjNum$[ebp]
  00259	50		 push	 eax
  0025a	e8 00 00 00 00	 call	 ?GCReFillSend@@YAXHHEEH@Z ; GCReFillSend
  0025f	8b 0d 00 00 00
	00		 mov	 ecx, DWORD PTR ?gObj@@3PAUOBJECTSTRUCT@@A ; gObj
  00265	83 c4 14	 add	 esp, 20			; 00000014H
$LN26@GuardianSt:

; 99   : 							}
; 100  : 
; 101  : 							if( bIsMaxMana != FALSE || bIsMaxBP != FALSE )

  00268	83 7d f8 00	 cmp	 DWORD PTR _bIsMaxMana$202082[ebp], 0
  0026c	75 04		 jne	 SHORT $LN1@GuardianSt
  0026e	85 ff		 test	 edi, edi
  00270	74 32		 je	 SHORT $LN16@GuardianSt
$LN1@GuardianSt:

; 102  : 							{
; 103  : 								::GCManaSend(tObjNum, gObj[tObjNum].Mana, 0xFF, 0, gObj[tObjNum].BP);

  00272	8b 94 0e 28 01
	00 00		 mov	 edx, DWORD PTR [esi+ecx+296]
  00279	d9 84 0e 10 01
	00 00		 fld	 DWORD PTR [esi+ecx+272]
  00280	52		 push	 edx
  00281	6a 00		 push	 0
  00283	68 ff 00 00 00	 push	 255			; 000000ffH
  00288	e8 00 00 00 00	 call	 __ftol2_sse
  0028d	50		 push	 eax
  0028e	8b 45 f4	 mov	 eax, DWORD PTR _tObjNum$[ebp]
  00291	50		 push	 eax
  00292	e8 00 00 00 00	 call	 ?GCManaSend@@YAXHHEEH@Z	; GCManaSend
  00297	8b 0d 00 00 00
	00		 mov	 ecx, DWORD PTR ?gObj@@3PAUOBJECTSTRUCT@@A ; gObj
  0029d	83 c4 14	 add	 esp, 20			; 00000014H
  002a0	eb 02		 jmp	 SHORT $LN16@GuardianSt
$LN49@GuardianSt:

; 53   : 					{
; 54   : 						if( abs(lpObj->Y - gObj[tObjNum].Y) <= 3 && abs(lpObj->X - gObj[tObjNum].X) <= 3 )

  002a2	dd d8		 fstp	 ST(0)
$LN16@GuardianSt:

; 36   : 	{
; 37   : 		return;
; 38   : 	}
; 39   : 
; 40   : 	int tObjNum = -1;
; 41   : 
; 42   : 	for( int i = 0; i < MAX_VIEWPORT; i++ )

  002a4	83 45 08 0c	 add	 DWORD PTR tv674[ebp], 12 ; 0000000cH
  002a8	b8 01 00 00 00	 mov	 eax, 1
  002ad	29 45 f0	 sub	 DWORD PTR tv324[ebp], eax
  002b0	0f 85 9a fd ff
	ff		 jne	 $LL24@GuardianSt
  002b6	5f		 pop	 edi
$LN30@GuardianSt:
  002b7	5b		 pop	 ebx
$LN15@GuardianSt:
  002b8	5e		 pop	 esi

; 104  : 							}
; 105  : 						}
; 106  : 					}
; 107  : 				}
; 108  : 			}
; 109  : 		}
; 110  : 	}
; 111  : }

  002b9	8b e5		 mov	 esp, ebp
  002bb	5d		 pop	 ebp
  002bc	c2 04 00	 ret	 4
?GuardianStatueAct@CGuardianStatue@@QAEXH@Z ENDP	; CGuardianStatue::GuardianStatueAct
_TEXT	ENDS
EXTRN	??3@YAXPAX@Z:PROC				; operator delete
; Function compile flags: /Ogtp
;	COMDAT ??_GCGuardianStatue@@UAEPAXI@Z
_TEXT	SEGMENT
___flags$ = 8						; size = 4
??_GCGuardianStatue@@UAEPAXI@Z PROC			; CGuardianStatue::`scalar deleting destructor', COMDAT
; _this$ = ecx
  00000	55		 push	 ebp
  00001	8b ec		 mov	 ebp, esp
  00003	56		 push	 esi
  00004	8b f1		 mov	 esi, ecx
  00006	e8 00 00 00 00	 call	 ??1CGuardianStatue@@UAE@XZ ; CGuardianStatue::~CGuardianStatue
  0000b	f6 45 08 01	 test	 BYTE PTR ___flags$[ebp], 1
  0000f	74 09		 je	 SHORT $LN4@scalar
  00011	56		 push	 esi
  00012	e8 00 00 00 00	 call	 ??3@YAXPAX@Z		; operator delete
  00017	83 c4 04	 add	 esp, 4
$LN4@scalar:
  0001a	8b c6		 mov	 eax, esi
  0001c	5e		 pop	 esi
  0001d	5d		 pop	 ebp
  0001e	c2 04 00	 ret	 4
??_GCGuardianStatue@@UAEPAXI@Z ENDP			; CGuardianStatue::`scalar deleting destructor'
_TEXT	ENDS
EXTRN	_atexit:PROC
; Function compile flags: /Ogtp
;	COMDAT ??__Eg_CsNPC_GuardianStatue@@YAXXZ
text$yc	SEGMENT
??__Eg_CsNPC_GuardianStatue@@YAXXZ PROC			; `dynamic initializer for 'g_CsNPC_GuardianStatue'', COMDAT

; 11   : CGuardianStatue g_CsNPC_GuardianStatue;

  00000	b9 00 00 00 00	 mov	 ecx, OFFSET ?g_CsNPC_GuardianStatue@@3VCGuardianStatue@@A ; g_CsNPC_GuardianStatue
  00005	e8 00 00 00 00	 call	 ??0CGuardianStatue@@QAE@XZ ; CGuardianStatue::CGuardianStatue
  0000a	68 00 00 00 00	 push	 OFFSET ??__Fg_CsNPC_GuardianStatue@@YAXXZ ; `dynamic atexit destructor for 'g_CsNPC_GuardianStatue''
  0000f	e8 00 00 00 00	 call	 _atexit
  00014	59		 pop	 ecx
  00015	c3		 ret	 0
??__Eg_CsNPC_GuardianStatue@@YAXXZ ENDP			; `dynamic initializer for 'g_CsNPC_GuardianStatue''
; Function compile flags: /Ogtp
text$yc	ENDS
;	COMDAT ??__Fg_CsNPC_GuardianStatue@@YAXXZ
text$yd	SEGMENT
??__Fg_CsNPC_GuardianStatue@@YAXXZ PROC			; `dynamic atexit destructor for 'g_CsNPC_GuardianStatue'', COMDAT
  00000	b9 00 00 00 00	 mov	 ecx, OFFSET ?g_CsNPC_GuardianStatue@@3VCGuardianStatue@@A ; g_CsNPC_GuardianStatue
  00005	e9 00 00 00 00	 jmp	 ??1CGuardianStatue@@UAE@XZ ; CGuardianStatue::~CGuardianStatue
??__Fg_CsNPC_GuardianStatue@@YAXXZ ENDP			; `dynamic atexit destructor for 'g_CsNPC_GuardianStatue''
text$yd	ENDS
PUBLIC	?g_CsNPC_GuardianStatue@@3VCGuardianStatue@@A	; g_CsNPC_GuardianStatue
_BSS	SEGMENT
?g_CsNPC_GuardianStatue@@3VCGuardianStatue@@A DD 01H DUP (?) ; g_CsNPC_GuardianStatue
_BSS	ENDS
CRT$XCU	SEGMENT
_g_CsNPC_GuardianStatue$initializer$ DD FLAT:??__Eg_CsNPC_GuardianStatue@@YAXXZ
CRT$XCU	ENDS
END
