; Listing generated by Microsoft (R) Optimizing Compiler Version 16.00.30319.01 

	TITLE	E:\work\tranet_version\GS\GameServer\IllusionTempleProcess.cpp
	.686P
	.XMM
	include listing.inc
	.model	flat

INCLUDELIB LIBCMT
INCLUDELIB OLDNAMES

_DATA	SEGMENT
_g_iNpcUpDfLevel_CGATE DD 01H
	DD	02H
	DD	02dc6c0H
	DD	02H
	DD	03H
	DD	02dc6c0H
	DD	03H
	DD	04H
	DD	02dc6c0H
_g_iNpcUpDfLevel_CSTATUE DD 01H
	DD	03H
	DD	02dc6c0H
	DD	02H
	DD	05H
	DD	02dc6c0H
	DD	03H
	DD	07H
	DD	02dc6c0H
_g_iNpcUpMaxHP_CGATE DD 02625a0H
	DD	02H
	DD	0f4240H
	DD	03567e0H
	DD	03H
	DD	0f4240H
	DD	04f5880H
	DD	04H
	DD	0f4240H
_g_iNpcUpMaxHP_CSTATUE DD 02191c0H
	DD	03H
	DD	0f4240H
	DD	033e140H
	DD	05H
	DD	0f4240H
	DD	04c4b40H
	DD	07H
	DD	0f4240H
_g_iNpcUpRgLevel_CSTATUE DD 01H
	DD	03H
	DD	04c4b40H
	DD	02H
	DD	05H
	DD	04c4b40H
	DD	03H
	DD	07H
	DD	04c4b40H
_g_iCsUserReSpawnArea DD 023H
	DD	011H
	DD	090H
	DD	030H
	DD	04aH
	DD	090H
	DD	073H
	DD	09aH
	DD	023H
	DD	011H
	DD	090H
	DD	030H
_g_iNpcDefense_CGATE DD 064H
	DD	0b4H
	DD	012cH
	DD	0208H
_g_iNpcDefense_CSTATUE DD 050H
	DD	0b4H
	DD	0154H
	DD	0226H
_g_iCastleWallStepAxisY DD 071H
	DD	0a0H
	DD	0cbH
_g_sttBLOODCASTLE_LEVEL DD 0fH
	DD	050H
	DD	0aH
	DD	03cH
	DD	051H
	DD	082H
	DD	03dH
	DD	06eH
	DD	083H
	DD	0b4H
	DD	06fH
	DD	0a0H
	DD	0b5H
	DD	0e6H
	DD	0a1H
	DD	0d2H
	DD	0e7H
	DD	0118H
	DD	0d3H
	DD	0104H
	DD	0119H
	DD	014aH
	DD	0105H
	DD	0136H
	DD	014bH
	DD	03e8H
	DD	0137H
	DD	03e8H
	DD	0fH
	DD	04afH
	DD	0aH
	DD	04afH
_g_sttCHAOSCASTLE_LEVEL DD 0fH
	DD	031H
	DD	0fH
	DD	01dH
	DD	032H
	DD	077H
	DD	01eH
	DD	063H
	DD	078H
	DD	0b3H
	DD	064H
	DD	09fH
	DD	0b4H
	DD	0efH
	DD	0a0H
	DD	0dbH
	DD	0f0H
	DD	012bH
	DD	0dcH
	DD	0117H
	DD	012cH
	DD	03e8H
	DD	0118H
	DD	03e8H
	DD	03e8H
	DD	04afH
	DD	03e8H
	DD	04afH
_g_iChaosCastle_BlowOutDistance DD 03H
	DD	04H
	DD	03H
	DD	04H
	DD	02H
	DD	03H
	DD	00H
	DD	01H
_g_iChaosCastle_BlowOutDamage DD 0fH
	DD	0fH
	DD	0aH
	DD	05H
_g_iChaosCastle_EnterCost DD 061a8H
	DD	013880H
	DD	0249f0H
	DD	03d090H
	DD	061a80H
	DD	09eb10H
	DD	0f4240H
_g_iChaosCastle_GuardSetValue DD 09c4H
	DD	09c4H
	DD	09c4H
	DD	09c4H
	DD	09c4H
	DD	09c4H
	DD	09c4H
_g_iChaosCastle_MonsterItems DD 01c0dH
	DD	01H
	DD	01c0eH
	DD	02H
	DD	01c0dH
	DD	01H
	DD	01c0eH
	DD	03H
	DD	01c0dH
	DD	01H
	DD	01c0eH
	DD	03H
	DD	01c0dH
	DD	02H
	DD	01c0eH
	DD	02H
	DD	01c0dH
	DD	02H
	DD	01c0eH
	DD	03H
	DD	01c0dH
	DD	02H
	DD	01c0eH
	DD	03H
	DD	01c0dH
	DD	02H
	DD	01c0eH
	DD	04H
_g_iChaosCastle_MonsterItemsNewServer DD 00H
	DD	00H
	DD	01c0eH
	DD	02H
	DD	01c0dH
	DD	01H
	DD	01c0eH
	DD	01H
	DD	01c0dH
	DD	01H
	DD	01c0eH
	DD	02H
	DD	01c0dH
	DD	01H
	DD	01c0eH
	DD	02H
	DD	01c0dH
	DD	02H
	DD	01c0eH
	DD	01H
	DD	01c0dH
	DD	02H
	DD	01c0eH
	DD	02H
	DD	01c0dH
	DD	02H
	DD	01c0eH
	DD	03H
_g_iChaosCastle_GroundAxis DD 017H
	DD	04bH
	DD	02cH
	DD	06cH
_g_iChaosCastle_DamageAxis DD 017H
	DD	04bH
	DD	02cH
	DD	06cH
	DD	019H
	DD	04dH
	DD	02aH
	DD	06aH
	DD	01bH
	DD	04fH
	DD	028H
	DD	068H
	DD	01dH
	DD	051H
	DD	026H
	DD	066H
_g_iChaosCastle_MapHollowZone DD 017H
	DD	04bH
	DD	02cH
	DD	04cH
	DD	02bH
	DD	04dH
	DD	02cH
	DD	06cH
	DD	017H
	DD	06bH
	DD	02aH
	DD	06cH
	DD	017H
	DD	04dH
	DD	018H
	DD	06aH
	DD	017H
	DD	04bH
	DD	02cH
	DD	04cH
	DD	02bH
	DD	04dH
	DD	02cH
	DD	06cH
	DD	017H
	DD	06bH
	DD	02aH
	DD	06cH
	DD	017H
	DD	04dH
	DD	018H
	DD	06aH
	DD	019H
	DD	04dH
	DD	02aH
	DD	04eH
	DD	029H
	DD	04fH
	DD	02aH
	DD	06aH
	DD	019H
	DD	069H
	DD	028H
	DD	06aH
	DD	019H
	DD	04fH
	DD	01aH
	DD	068H
	DD	01bH
	DD	04fH
	DD	028H
	DD	050H
	DD	027H
	DD	051H
	DD	028H
	DD	068H
	DD	01bH
	DD	067H
	DD	026H
	DD	068H
	DD	01bH
	DD	051H
	DD	01cH
	DD	066H
_DATA	ENDS
CONST	SEGMENT
_g_IllusionTemple_Default_Exp DD 0493e0H
	DD	053020H
	DD	05cc60H
	DD	0668a0H
	DD	0704e0H
	DD	07a120H
_g_IllusionTemple_unk0 DD 0c350H
	DD	0ea60H
	DD	011170H
	DD	013880H
	DD	015f90H
	DD	0186a0H
_g_IllusionTemple_unk1 DD 0258H
	DD	04b0H
	DD	0708H
	DD	0960H
	DD	0bb8H
	DD	0dacH
_g_IllusionTemple_unk2 DD 04b0H
	DD	0960H
	DD	0e10H
	DD	012c0H
	DD	01770H
	DD	01c20H
_g_IllusionTemple_Team_Players DD 0aH
	DD	014H
	DD	01eH
	DD	028H
	DD	032H
CONST	ENDS
PUBLIC	??_H@YGXPAXIHP6EPAX0@Z@Z			; `vector constructor iterator'
; Function compile flags: /Ogtp
;	COMDAT ??_H@YGXPAXIHP6EPAX0@Z@Z
_TEXT	SEGMENT
___t$ = 8						; size = 4
___s$ = 12						; size = 4
___n$ = 16						; size = 4
___f$ = 20						; size = 4
??_H@YGXPAXIHP6EPAX0@Z@Z PROC				; `vector constructor iterator', COMDAT
  00000	55		 push	 ebp
  00001	8b ec		 mov	 ebp, esp
  00003	57		 push	 edi
  00004	8b 7d 10	 mov	 edi, DWORD PTR ___n$[ebp]
  00007	4f		 dec	 edi
  00008	78 14		 js	 SHORT $LN1@vector
  0000a	53		 push	 ebx
  0000b	8b 5d 14	 mov	 ebx, DWORD PTR ___f$[ebp]
  0000e	56		 push	 esi
  0000f	8b 75 08	 mov	 esi, DWORD PTR ___t$[ebp]
$LL2@vector:
  00012	8b ce		 mov	 ecx, esi
  00014	ff d3		 call	 ebx
  00016	03 75 0c	 add	 esi, DWORD PTR ___s$[ebp]
  00019	4f		 dec	 edi
  0001a	79 f6		 jns	 SHORT $LL2@vector
  0001c	5e		 pop	 esi
  0001d	5b		 pop	 ebx
$LN1@vector:
  0001e	5f		 pop	 edi
  0001f	5d		 pop	 ebp
  00020	c2 10 00	 ret	 16			; 00000010H
??_H@YGXPAXIHP6EPAX0@Z@Z ENDP				; `vector constructor iterator'
_TEXT	ENDS
PUBLIC	??0_ILLUSIONTEMPLE_FLOOR_DATA@@QAE@XZ		; _ILLUSIONTEMPLE_FLOOR_DATA::_ILLUSIONTEMPLE_FLOOR_DATA
; Function compile flags: /Ogtp
; File e:\work\tranet_version\gs\gameserver\illusiontempleprocess.h
;	COMDAT ??0_ILLUSIONTEMPLE_FLOOR_DATA@@QAE@XZ
_TEXT	SEGMENT
??0_ILLUSIONTEMPLE_FLOOR_DATA@@QAE@XZ PROC		; _ILLUSIONTEMPLE_FLOOR_DATA::_ILLUSIONTEMPLE_FLOOR_DATA, COMDAT
; _this$ = ecx

; 93   : 	_ILLUSIONTEMPLE_FLOOR_DATA()

  00000	8b c1		 mov	 eax, ecx

; 94   : 	{
; 95   : 		m_iTeamPlayerIndex = -1;

  00002	c7 00 ff ff ff
	ff		 mov	 DWORD PTR [eax], -1

; 96   : 		m_btPosNDur = -1;

  00008	c6 40 28 ff	 mov	 BYTE PTR [eax+40], 255	; 000000ffH

; 97   : 	}

  0000c	c3		 ret	 0
??0_ILLUSIONTEMPLE_FLOOR_DATA@@QAE@XZ ENDP		; _ILLUSIONTEMPLE_FLOOR_DATA::_ILLUSIONTEMPLE_FLOOR_DATA
_TEXT	ENDS
PUBLIC	?GetOpenStatus@CIllusionTempleProcess@@QAEHXZ	; CIllusionTempleProcess::GetOpenStatus
; Function compile flags: /Ogtp
;	COMDAT ?GetOpenStatus@CIllusionTempleProcess@@QAEHXZ
_TEXT	SEGMENT
?GetOpenStatus@CIllusionTempleProcess@@QAEHXZ PROC	; CIllusionTempleProcess::GetOpenStatus, COMDAT
; _this$ = ecx

; 281  : 	BOOL GetOpenStatus(){return this->m_bOpenStatus;}

  00000	8b 81 90 03 00
	00		 mov	 eax, DWORD PTR [ecx+912]
  00006	c3		 ret	 0
?GetOpenStatus@CIllusionTempleProcess@@QAEHXZ ENDP	; CIllusionTempleProcess::GetOpenStatus
_TEXT	ENDS
EXTRN	__localtime64:PROC
; Function compile flags: /Ogtp
; File d:\program files (x86)\microsoft visual studio 10.0\vc\include\time.inl
;	COMDAT _localtime
_TEXT	SEGMENT
_localtime PROC						; COMDAT
; __Time$ = eax

; 114  : #pragma warning( push )
; 115  : #pragma warning( disable : 4996 )
; 116  :     return _localtime64(_Time);

  00000	50		 push	 eax
  00001	e8 00 00 00 00	 call	 __localtime64
  00006	83 c4 04	 add	 esp, 4

; 117  : #pragma warning( pop )
; 118  : }

  00009	c3		 ret	 0
_localtime ENDP
_TEXT	ENDS
EXTRN	__time64:PROC
; Function compile flags: /Ogtp
;	COMDAT _time
_TEXT	SEGMENT
_time	PROC						; COMDAT
; __Time$ = eax

; 133  :     return _time64(_Time);

  00000	50		 push	 eax
  00001	e8 00 00 00 00	 call	 __time64
  00006	83 c4 04	 add	 esp, 4

; 134  : }

  00009	c3		 ret	 0
_time	ENDP
_TEXT	ENDS
PUBLIC	??_7CIllusionTempleProcess@@6B@			; CIllusionTempleProcess::`vftable'
PUBLIC	??1CIllusionTempleProcess@@UAE@XZ		; CIllusionTempleProcess::~CIllusionTempleProcess
PUBLIC	??_R4CIllusionTempleProcess@@6B@		; CIllusionTempleProcess::`RTTI Complete Object Locator'
PUBLIC	??_R0?AVCIllusionTempleProcess@@@8		; CIllusionTempleProcess `RTTI Type Descriptor'
PUBLIC	??_R3CIllusionTempleProcess@@8			; CIllusionTempleProcess::`RTTI Class Hierarchy Descriptor'
PUBLIC	??_R2CIllusionTempleProcess@@8			; CIllusionTempleProcess::`RTTI Base Class Array'
PUBLIC	??_R1A@?0A@EA@CIllusionTempleProcess@@8		; CIllusionTempleProcess::`RTTI Base Class Descriptor at (0,-1,0,64)'
EXTRN	__imp__DeleteCriticalSection@4:PROC
EXTRN	??_7type_info@@6B@:QWORD			; type_info::`vftable'
EXTRN	??_ECIllusionTempleProcess@@UAEPAXI@Z:PROC	; CIllusionTempleProcess::`vector deleting destructor'
;	COMDAT ??_R1A@?0A@EA@CIllusionTempleProcess@@8
; File e:\work\tranet_version\gs\gameserver\illusiontempleprocess.cpp
rdata$r	SEGMENT
??_R1A@?0A@EA@CIllusionTempleProcess@@8 DD FLAT:??_R0?AVCIllusionTempleProcess@@@8 ; CIllusionTempleProcess::`RTTI Base Class Descriptor at (0,-1,0,64)'
	DD	00H
	DD	00H
	DD	0ffffffffH
	DD	00H
	DD	040H
	DD	FLAT:??_R3CIllusionTempleProcess@@8
rdata$r	ENDS
;	COMDAT ??_R2CIllusionTempleProcess@@8
rdata$r	SEGMENT
??_R2CIllusionTempleProcess@@8 DD FLAT:??_R1A@?0A@EA@CIllusionTempleProcess@@8 ; CIllusionTempleProcess::`RTTI Base Class Array'
rdata$r	ENDS
;	COMDAT ??_R3CIllusionTempleProcess@@8
rdata$r	SEGMENT
??_R3CIllusionTempleProcess@@8 DD 00H			; CIllusionTempleProcess::`RTTI Class Hierarchy Descriptor'
	DD	00H
	DD	01H
	DD	FLAT:??_R2CIllusionTempleProcess@@8
rdata$r	ENDS
;	COMDAT ??_R0?AVCIllusionTempleProcess@@@8
_DATA	SEGMENT
??_R0?AVCIllusionTempleProcess@@@8 DD FLAT:??_7type_info@@6B@ ; CIllusionTempleProcess `RTTI Type Descriptor'
	DD	00H
	DB	'.?AVCIllusionTempleProcess@@', 00H
_DATA	ENDS
;	COMDAT ??_R4CIllusionTempleProcess@@6B@
rdata$r	SEGMENT
??_R4CIllusionTempleProcess@@6B@ DD 00H			; CIllusionTempleProcess::`RTTI Complete Object Locator'
	DD	00H
	DD	00H
	DD	FLAT:??_R0?AVCIllusionTempleProcess@@@8
	DD	FLAT:??_R3CIllusionTempleProcess@@8
rdata$r	ENDS
;	COMDAT ??_7CIllusionTempleProcess@@6B@
CONST	SEGMENT
??_7CIllusionTempleProcess@@6B@ DD FLAT:??_R4CIllusionTempleProcess@@6B@ ; CIllusionTempleProcess::`vftable'
	DD	FLAT:??_ECIllusionTempleProcess@@UAEPAXI@Z
; Function compile flags: /Ogtp
CONST	ENDS
;	COMDAT ??1CIllusionTempleProcess@@UAE@XZ
_TEXT	SEGMENT
??1CIllusionTempleProcess@@UAE@XZ PROC			; CIllusionTempleProcess::~CIllusionTempleProcess, COMDAT
; _this$ = ecx

; 34   : {

  00000	c7 01 00 00 00
	00		 mov	 DWORD PTR [ecx], OFFSET ??_7CIllusionTempleProcess@@6B@

; 35   : 	DeleteCriticalSection(&this->m_cs);

  00006	83 c1 08	 add	 ecx, 8
  00009	51		 push	 ecx
  0000a	ff 15 00 00 00
	00		 call	 DWORD PTR __imp__DeleteCriticalSection@4

; 36   : }

  00010	c3		 ret	 0
??1CIllusionTempleProcess@@UAE@XZ ENDP			; CIllusionTempleProcess::~CIllusionTempleProcess
_TEXT	ENDS
PUBLIC	??_C@_0N@GGPGOPEN@return?5?$CFs?5?$CFd?$AA@	; `string'
PUBLIC	??_C@_0BK@DMGNFDO@IllusionTempleProcess?4cpp?$AA@ ; `string'
PUBLIC	?InitFloorData@CIllusionTempleProcess@@QAEXH@Z	; CIllusionTempleProcess::InitFloorData
EXTRN	?LogAdd@@3P6AXPADZZA:DWORD			; LogAdd
;	COMDAT ??_C@_0N@GGPGOPEN@return?5?$CFs?5?$CFd?$AA@
CONST	SEGMENT
??_C@_0N@GGPGOPEN@return?5?$CFs?5?$CFd?$AA@ DB 'return %s %d', 00H ; `string'
CONST	ENDS
;	COMDAT ??_C@_0BK@DMGNFDO@IllusionTempleProcess?4cpp?$AA@
CONST	SEGMENT
??_C@_0BK@DMGNFDO@IllusionTempleProcess?4cpp?$AA@ DB 'IllusionTempleProce'
	DB	'ss.cpp', 00H				; `string'
; Function compile flags: /Ogtp
CONST	ENDS
;	COMDAT ?InitFloorData@CIllusionTempleProcess@@QAEXH@Z
_TEXT	SEGMENT
_aIndex$ = 8						; size = 4
?InitFloorData@CIllusionTempleProcess@@QAEXH@Z PROC	; CIllusionTempleProcess::InitFloorData, COMDAT
; _this$ = ecx

; 84   : {

  00000	55		 push	 ebp
  00001	8b ec		 mov	 ebp, esp

; 85   : 	if( OBJMAX_RANGE(aIndex) == FALSE )

  00003	8b 45 08	 mov	 eax, DWORD PTR _aIndex$[ebp]
  00006	33 d2		 xor	 edx, edx
  00008	56		 push	 esi
  00009	8b f1		 mov	 esi, ecx
  0000b	3b c2		 cmp	 eax, edx
  0000d	7c 0e		 jl	 SHORT $LN6@InitFloorD
  0000f	33 c9		 xor	 ecx, ecx
  00011	3d 97 3a 00 00	 cmp	 eax, 14999		; 00003a97H
  00016	0f 9e c1	 setle	 cl
  00019	3b ca		 cmp	 ecx, edx
  0001b	75 1a		 jne	 SHORT $LN1@InitFloorD
$LN6@InitFloorD:

; 86   : 	{
; 87   : 		LogAdd("return %s %d", __FILE__, __LINE__);

  0001d	6a 57		 push	 87			; 00000057H
  0001f	68 00 00 00 00	 push	 OFFSET ??_C@_0BK@DMGNFDO@IllusionTempleProcess?4cpp?$AA@
  00024	68 00 00 00 00	 push	 OFFSET ??_C@_0N@GGPGOPEN@return?5?$CFs?5?$CFd?$AA@
  00029	ff 15 00 00 00
	00		 call	 DWORD PTR ?LogAdd@@3P6AXPADZZA ; LogAdd
  0002f	83 c4 0c	 add	 esp, 12			; 0000000cH
  00032	5e		 pop	 esi

; 107  : }

  00033	5d		 pop	 ebp
  00034	c2 04 00	 ret	 4
$LN1@InitFloorD:

; 88   : 		return;
; 89   : 	}
; 90   : 
; 91   : 	this->m_UserData[aIndex].m_UserIndex = 0;

  00037	89 94 86 00 02
	00 00		 mov	 DWORD PTR [esi+eax*4+512], edx

; 92   : 
; 93   : 	this->m_FloorData[aIndex].m_dwShieldSpellTime = 0;

  0003e	8d 04 40	 lea	 eax, DWORD PTR [eax+eax*2]
  00041	c1 e0 04	 shl	 eax, 4
  00044	03 c6		 add	 eax, esi
  00046	89 50 28	 mov	 DWORD PTR [eax+40], edx

; 94   : 
; 95   : 	this->m_FloorData[aIndex].m_dwRestrictionSpellTime = 0;

  00049	89 50 2c	 mov	 DWORD PTR [eax+44], edx

; 96   : 	this->m_FloorData[aIndex].m_iTeamPlayerIndex = -1;

  0004c	c7 40 20 ff ff
	ff ff		 mov	 DWORD PTR [eax+32], -1

; 97   : 	this->m_FloorData[aIndex].m_btTeamJoinSide = (BYTE)-1;

  00053	c6 40 24 ff	 mov	 BYTE PTR [eax+36], 255	; 000000ffH

; 98   : 	this->m_FloorData[aIndex].m_btUserKillCount = 0;

  00057	89 50 30	 mov	 DWORD PTR [eax+48], edx

; 99   : 	this->m_FloorData[aIndex].m_btMonsterRewardKillCount = 0;
; 100  : 	this->m_FloorData[aIndex].m_btPlayerRewardKillCount = 0;
; 101  : 	this->m_FloorData[aIndex].m_btUsedKillCountPoint = 0;
; 102  : 
; 103  : 	this->m_FloorData[aIndex].m_i64ExpReward = 0;

  0005a	89 50 38	 mov	 DWORD PTR [eax+56], edx
  0005d	89 50 3c	 mov	 DWORD PTR [eax+60], edx

; 104  : 	this->m_FloorData[aIndex].m_dwRankingPoint = 0;

  00060	89 50 40	 mov	 DWORD PTR [eax+64], edx

; 105  : 
; 106  : 	this->m_FloorData[aIndex].m_bDropReward = 0;

  00063	89 50 44	 mov	 DWORD PTR [eax+68], edx
  00066	5e		 pop	 esi

; 107  : }

  00067	5d		 pop	 ebp
  00068	c2 04 00	 ret	 4
?InitFloorData@CIllusionTempleProcess@@QAEXH@Z ENDP	; CIllusionTempleProcess::InitFloorData
_TEXT	ENDS
PUBLIC	?GetState@CIllusionTempleProcess@@QAEEXZ	; CIllusionTempleProcess::GetState
; Function compile flags: /Ogtp
;	COMDAT ?GetState@CIllusionTempleProcess@@QAEEXZ
_TEXT	SEGMENT
?GetState@CIllusionTempleProcess@@QAEEXZ PROC		; CIllusionTempleProcess::GetState, COMDAT
; _this$ = ecx

; 740  : 	return this->m_btState;

  00000	8a 81 2d 02 00
	00		 mov	 al, BYTE PTR [ecx+557]

; 741  : }

  00006	c3		 ret	 0
?GetState@CIllusionTempleProcess@@QAEEXZ ENDP		; CIllusionTempleProcess::GetState
_TEXT	ENDS
PUBLIC	?GetFloorIndex@CIllusionTempleProcess@@QAEHH@Z	; CIllusionTempleProcess::GetFloorIndex
EXTRN	?g_iUseMaxLevelIllusionTemple@@3HA:DWORD	; g_iUseMaxLevelIllusionTemple
EXTRN	?gObj@@3PAUOBJECTSTRUCT@@A:DWORD		; gObj
; Function compile flags: /Ogtp
;	COMDAT ?GetFloorIndex@CIllusionTempleProcess@@QAEHH@Z
_TEXT	SEGMENT
_aIndex$ = 8						; size = 4
?GetFloorIndex@CIllusionTempleProcess@@QAEHH@Z PROC	; CIllusionTempleProcess::GetFloorIndex, COMDAT
; _this$ = ecx

; 987  : {

  00000	55		 push	 ebp
  00001	8b ec		 mov	 ebp, esp

; 988  : 	int loc2 = 0; //?? weird
; 989  : 
; 990  : 	LPOBJ lpObj = &gObj[aIndex];

  00003	8b 4d 08	 mov	 ecx, DWORD PTR _aIndex$[ebp]
  00006	8b c1		 mov	 eax, ecx
  00008	69 c0 50 2b 00
	00		 imul	 eax, 11088		; 00002b50H
  0000e	03 05 00 00 00
	00		 add	 eax, DWORD PTR ?gObj@@3PAUOBJECTSTRUCT@@A ; gObj

; 991  : 
; 992  : 	if( OBJMAX_RANGE(aIndex) == FALSE )

  00014	85 c9		 test	 ecx, ecx
  00016	78 11		 js	 SHORT $LN15@GetFloorIn
  00018	33 d2		 xor	 edx, edx
  0001a	81 f9 97 3a 00
	00		 cmp	 ecx, 14999		; 00003a97H
  00020	0f 9e c2	 setle	 dl
  00023	8b ca		 mov	 ecx, edx
  00025	85 c9		 test	 ecx, ecx
  00027	75 1f		 jne	 SHORT $LN10@GetFloorIn
$LN15@GetFloorIn:

; 993  : 	{
; 994  : 		LogAdd("return %s %d", __FILE__, __LINE__);

  00029	68 e2 03 00 00	 push	 994			; 000003e2H
  0002e	68 00 00 00 00	 push	 OFFSET ??_C@_0BK@DMGNFDO@IllusionTempleProcess?4cpp?$AA@
  00033	68 00 00 00 00	 push	 OFFSET ??_C@_0N@GGPGOPEN@return?5?$CFs?5?$CFd?$AA@
  00038	ff 15 00 00 00
	00		 call	 DWORD PTR ?LogAdd@@3P6AXPADZZA ; LogAdd
  0003e	83 c4 0c	 add	 esp, 12			; 0000000cH
$LN1@GetFloorIn:

; 1005 : 	return -1;

  00041	83 c8 ff	 or	 eax, -1

; 1006 : }

  00044	5d		 pop	 ebp
  00045	c2 04 00	 ret	 4
$LN10@GetFloorIn:

; 995  : 		return -1;
; 996  : 	}
; 997  : 
; 998  : 	if( lpObj->Level < 220 ) return 0;

  00048	0f b7 88 be 00
	00 00		 movzx	 ecx, WORD PTR [eax+190]
  0004f	ba dc 00 00 00	 mov	 edx, 220		; 000000dcH
  00054	66 3b ca	 cmp	 cx, dx
  00057	7d 06		 jge	 SHORT $LN9@GetFloorIn
  00059	33 c0		 xor	 eax, eax

; 1006 : }

  0005b	5d		 pop	 ebp
  0005c	c2 04 00	 ret	 4
$LN9@GetFloorIn:

; 999  : 	if( lpObj->Level < 271 ) return 1;

  0005f	ba 0f 01 00 00	 mov	 edx, 271		; 0000010fH
  00064	66 3b ca	 cmp	 cx, dx
  00067	7d 09		 jge	 SHORT $LN8@GetFloorIn
  00069	b8 01 00 00 00	 mov	 eax, 1

; 1006 : }

  0006e	5d		 pop	 ebp
  0006f	c2 04 00	 ret	 4
$LN8@GetFloorIn:

; 1000 : 	if( lpObj->Level < 321 ) return 2;

  00072	ba 41 01 00 00	 mov	 edx, 321		; 00000141H
  00077	66 3b ca	 cmp	 cx, dx
  0007a	7d 09		 jge	 SHORT $LN7@GetFloorIn
  0007c	b8 02 00 00 00	 mov	 eax, 2

; 1006 : }

  00081	5d		 pop	 ebp
  00082	c2 04 00	 ret	 4
$LN7@GetFloorIn:

; 1001 : 	if( lpObj->Level < 351 ) return 3;

  00085	ba 5f 01 00 00	 mov	 edx, 351		; 0000015fH
  0008a	66 3b ca	 cmp	 cx, dx
  0008d	7d 09		 jge	 SHORT $LN6@GetFloorIn
  0008f	b8 03 00 00 00	 mov	 eax, 3

; 1006 : }

  00094	5d		 pop	 ebp
  00095	c2 04 00	 ret	 4
$LN6@GetFloorIn:

; 1002 : 	if( lpObj->Level < 381 ) return 4;

  00098	ba 7d 01 00 00	 mov	 edx, 381		; 0000017dH
  0009d	66 3b ca	 cmp	 cx, dx
  000a0	7d 09		 jge	 SHORT $LN5@GetFloorIn
  000a2	b8 04 00 00 00	 mov	 eax, 4

; 1006 : }

  000a7	5d		 pop	 ebp
  000a8	c2 04 00	 ret	 4
$LN5@GetFloorIn:

; 1003 : 	if( lpObj->Level <= 400 && lpObj->ChangeUP3rd == 0) return 5;

  000ab	ba 90 01 00 00	 mov	 edx, 400		; 00000190H
  000b0	66 3b ca	 cmp	 cx, dx
  000b3	7f 8c		 jg	 SHORT $LN1@GetFloorIn
  000b5	80 b8 bc 00 00
	00 00		 cmp	 BYTE PTR [eax+188], 0
  000bc	75 09		 jne	 SHORT $LN4@GetFloorIn
  000be	b8 05 00 00 00	 mov	 eax, 5

; 1006 : }

  000c3	5d		 pop	 ebp
  000c4	c2 04 00	 ret	 4
$LN4@GetFloorIn:

; 1004 : 	if( lpObj->Level == 400 && lpObj->ChangeUP3rd != 0){ if(g_iUseMaxLevelIllusionTemple != 0){	return 6;}else{return 5;}};

  000c7	66 3b ca	 cmp	 cx, dx
  000ca	0f 85 71 ff ff
	ff		 jne	 $LN1@GetFloorIn
  000d0	80 b8 bc 00 00
	00 00		 cmp	 BYTE PTR [eax+188], 0
  000d7	0f 84 64 ff ff
	ff		 je	 $LN1@GetFloorIn
  000dd	33 c0		 xor	 eax, eax
  000df	39 05 00 00 00
	00		 cmp	 DWORD PTR ?g_iUseMaxLevelIllusionTemple@@3HA, eax ; g_iUseMaxLevelIllusionTemple
  000e5	0f 95 c0	 setne	 al
  000e8	83 c0 05	 add	 eax, 5

; 1006 : }

  000eb	5d		 pop	 ebp
  000ec	c2 04 00	 ret	 4
?GetFloorIndex@CIllusionTempleProcess@@QAEHH@Z ENDP	; CIllusionTempleProcess::GetFloorIndex
_TEXT	ENDS
PUBLIC	?RemoveInvalid@CIllusionTempleProcess@@QAEXXZ	; CIllusionTempleProcess::RemoveInvalid
EXTRN	__imp__LeaveCriticalSection@4:PROC
EXTRN	?gObjIsConnected@@YAHH@Z:PROC			; gObjIsConnected
EXTRN	__imp__EnterCriticalSection@4:PROC
; Function compile flags: /Ogtp
;	COMDAT ?RemoveInvalid@CIllusionTempleProcess@@QAEXXZ
_TEXT	SEGMENT
tv160 = -4						; size = 4
?RemoveInvalid@CIllusionTempleProcess@@QAEXXZ PROC	; CIllusionTempleProcess::RemoveInvalid, COMDAT
; _this$ = ecx

; 1009 : {

  00000	55		 push	 ebp
  00001	8b ec		 mov	 ebp, esp
  00003	51		 push	 ecx
  00004	53		 push	 ebx
  00005	56		 push	 esi
  00006	8b f1		 mov	 esi, ecx

; 1010 : 	EnterCriticalSection(&m_cs);

  00008	8d 46 08	 lea	 eax, DWORD PTR [esi+8]
  0000b	57		 push	 edi
  0000c	50		 push	 eax
  0000d	89 45 fc	 mov	 DWORD PTR tv160[ebp], eax
  00010	ff 15 00 00 00
	00		 call	 DWORD PTR __imp__EnterCriticalSection@4

; 1011 : 
; 1012 : 	this->m_iEnteredUserCount = 0;

  00016	33 db		 xor	 ebx, ebx
  00018	89 9e 28 02 00
	00		 mov	 DWORD PTR [esi+552], ebx
  0001e	8d 7e 20	 lea	 edi, DWORD PTR [esi+32]
$LL8@RemoveInva:

; 1015 : 	{
; 1016 : 		if( this->m_FloorData[i].m_iTeamPlayerIndex != OBJ_EMPTY )

  00021	8b 07		 mov	 eax, DWORD PTR [edi]
  00023	83 f8 ff	 cmp	 eax, -1
  00026	74 6e		 je	 SHORT $LN7@RemoveInva

; 1017 : 		{
; 1018 : 			if( gObjIsConnected(this->m_FloorData[i].m_iTeamPlayerIndex) == FALSE )

  00028	50		 push	 eax
  00029	e8 00 00 00 00	 call	 ?gObjIsConnected@@YAHH@Z ; gObjIsConnected
  0002e	83 c4 04	 add	 esp, 4
  00031	85 c0		 test	 eax, eax
  00033	75 23		 jne	 SHORT $LN4@RemoveInva

; 1019 : 			{
; 1020 : 				gObj[this->m_FloorData[i].m_iTeamPlayerIndex].m_iIllusionTempleIndex = ILLUSIONTEMPLE_INVALID_INDEX;

  00035	8b 07		 mov	 eax, DWORD PTR [edi]
  00037	8b 0d 00 00 00
	00		 mov	 ecx, DWORD PTR ?gObj@@3PAUOBJECTSTRUCT@@A ; gObj
  0003d	69 c0 50 2b 00
	00		 imul	 eax, 11088		; 00002b50H
  00043	c7 84 08 78 20
	00 00 ff ff ff
	ff		 mov	 DWORD PTR [eax+ecx+8312], -1

; 1021 : 				InitFloorData(i);

  0004e	53		 push	 ebx
  0004f	8b ce		 mov	 ecx, esi
  00051	e8 00 00 00 00	 call	 ?InitFloorData@CIllusionTempleProcess@@QAEXH@Z ; CIllusionTempleProcess::InitFloorData
  00056	eb 3e		 jmp	 SHORT $LN7@RemoveInva
$LN4@RemoveInva:

; 1022 : 			}
; 1023 : 			else if( gObj[this->m_FloorData[i].m_iTeamPlayerIndex].MapNumber != (MAP_INDEX_ILLUSIONTEMPLE + this->m_btFloorIndex) )

  00058	8b 17		 mov	 edx, DWORD PTR [edi]
  0005a	a1 00 00 00 00	 mov	 eax, DWORD PTR ?gObj@@3PAUOBJECTSTRUCT@@A ; gObj
  0005f	69 d2 50 2b 00
	00		 imul	 edx, 11088		; 00002b50H
  00065	0f b6 8e 2c 02
	00 00		 movzx	 ecx, BYTE PTR [esi+556]
  0006c	03 c2		 add	 eax, edx
  0006e	0f b6 90 49 01
	00 00		 movzx	 edx, BYTE PTR [eax+329]
  00075	83 c1 2d	 add	 ecx, 45			; 0000002dH
  00078	3b d1		 cmp	 edx, ecx
  0007a	74 14		 je	 SHORT $LN2@RemoveInva

; 1024 : 			{
; 1025 : 				gObj[this->m_FloorData[i].m_iTeamPlayerIndex].m_iIllusionTempleIndex = ILLUSIONTEMPLE_INVALID_INDEX;
; 1026 : 				this->InitFloorData(i);

  0007c	53		 push	 ebx
  0007d	8b ce		 mov	 ecx, esi
  0007f	c7 80 78 20 00
	00 ff ff ff ff	 mov	 DWORD PTR [eax+8312], -1
  00089	e8 00 00 00 00	 call	 ?InitFloorData@CIllusionTempleProcess@@QAEXH@Z ; CIllusionTempleProcess::InitFloorData

; 1027 : 			}
; 1028 : 			else

  0008e	eb 06		 jmp	 SHORT $LN7@RemoveInva
$LN2@RemoveInva:

; 1029 : 			{
; 1030 : 				this->m_iEnteredUserCount++;

  00090	ff 86 28 02 00
	00		 inc	 DWORD PTR [esi+552]
$LN7@RemoveInva:

; 1013 : 
; 1014 : 	for( int i = 0; i < MAX_FLOOR_USER; i++ )

  00096	43		 inc	 ebx
  00097	83 c7 30	 add	 edi, 48			; 00000030H
  0009a	83 fb 0a	 cmp	 ebx, 10			; 0000000aH
  0009d	7c 82		 jl	 SHORT $LL8@RemoveInva

; 1031 : 			}
; 1032 : 		}
; 1033 : 	}
; 1034 : 
; 1035 : 	LeaveCriticalSection(&m_cs);

  0009f	8b 45 fc	 mov	 eax, DWORD PTR tv160[ebp]
  000a2	50		 push	 eax
  000a3	ff 15 00 00 00
	00		 call	 DWORD PTR __imp__LeaveCriticalSection@4
  000a9	5f		 pop	 edi
  000aa	5e		 pop	 esi
  000ab	5b		 pop	 ebx

; 1036 : }

  000ac	8b e5		 mov	 esp, ebp
  000ae	5d		 pop	 ebp
  000af	c3		 ret	 0
?RemoveInvalid@CIllusionTempleProcess@@QAEXXZ ENDP	; CIllusionTempleProcess::RemoveInvalid
_TEXT	ENDS
PUBLIC	?CheckLeftMinutesBeforeOpen@CIllusionTempleProcess@@QAEEXZ ; CIllusionTempleProcess::CheckLeftMinutesBeforeOpen
; Function compile flags: /Ogtp
;	COMDAT ?CheckLeftMinutesBeforeOpen@CIllusionTempleProcess@@QAEEXZ
_TEXT	SEGMENT
?CheckLeftMinutesBeforeOpen@CIllusionTempleProcess@@QAEEXZ PROC ; CIllusionTempleProcess::CheckLeftMinutesBeforeOpen, COMDAT
; _this$ = ecx

; 1040 : 	if(this->GetState() == 0 && this->GetOpenStatus() == TRUE)

  00000	e8 00 00 00 00	 call	 ?GetState@CIllusionTempleProcess@@QAEEXZ ; CIllusionTempleProcess::GetState
  00005	84 c0		 test	 al, al
  00007	75 10		 jne	 SHORT $LN1@CheckLeftM
  00009	83 b9 90 03 00
	00 01		 cmp	 DWORD PTR [ecx+912], 1
  00010	75 07		 jne	 SHORT $LN1@CheckLeftM

; 1041 : 	{
; 1042 : 		return this->m_iLeftMinutesBeforeOpen;

  00012	8a 81 98 03 00
	00		 mov	 al, BYTE PTR [ecx+920]

; 1045 : }

  00018	c3		 ret	 0
$LN1@CheckLeftM:

; 1043 : 	}
; 1044 : 	return FALSE;

  00019	32 c0		 xor	 al, al

; 1045 : }

  0001b	c3		 ret	 0
?CheckLeftMinutesBeforeOpen@CIllusionTempleProcess@@QAEEXZ ENDP ; CIllusionTempleProcess::CheckLeftMinutesBeforeOpen
_TEXT	ENDS
PUBLIC	?FindItemBallPosition@CIllusionTempleProcess@@QAEHH@Z ; CIllusionTempleProcess::FindItemBallPosition
EXTRN	?IsItem@CItem@@QAEHXZ:PROC			; CItem::IsItem
; Function compile flags: /Ogtp
;	COMDAT ?FindItemBallPosition@CIllusionTempleProcess@@QAEHH@Z
_TEXT	SEGMENT
_aIndex$ = 8						; size = 4
?FindItemBallPosition@CIllusionTempleProcess@@QAEHH@Z PROC ; CIllusionTempleProcess::FindItemBallPosition, COMDAT
; _this$ = ecx

; 1239 : {

  00000	55		 push	 ebp
  00001	8b ec		 mov	 ebp, esp

; 1240 : 	if( OBJMAX_RANGE(aIndex) == FALSE )

  00003	8b 45 08	 mov	 eax, DWORD PTR _aIndex$[ebp]
  00006	85 c0		 test	 eax, eax
  00008	78 0e		 js	 SHORT $LN14@FindItemBa
  0000a	33 c9		 xor	 ecx, ecx
  0000c	3d 97 3a 00 00	 cmp	 eax, 14999		; 00003a97H
  00011	0f 9e c1	 setle	 cl
  00014	85 c9		 test	 ecx, ecx
  00016	75 1f		 jne	 SHORT $LN6@FindItemBa
$LN14@FindItemBa:

; 1241 : 	{
; 1242 : 		LogAdd("return %s %d", __FILE__, __LINE__);

  00018	68 da 04 00 00	 push	 1242			; 000004daH
  0001d	68 00 00 00 00	 push	 OFFSET ??_C@_0BK@DMGNFDO@IllusionTempleProcess?4cpp?$AA@
  00022	68 00 00 00 00	 push	 OFFSET ??_C@_0N@GGPGOPEN@return?5?$CFs?5?$CFd?$AA@
  00027	ff 15 00 00 00
	00		 call	 DWORD PTR ?LogAdd@@3P6AXPADZZA ; LogAdd
  0002d	83 c4 0c	 add	 esp, 12			; 0000000cH

; 1243 : 		return -1;

  00030	83 c8 ff	 or	 eax, -1

; 1257 : }

  00033	5d		 pop	 ebp
  00034	c2 04 00	 ret	 4
$LN6@FindItemBa:
  00037	69 c0 50 2b 00
	00		 imul	 eax, 11088		; 00002b50H
  0003d	53		 push	 ebx
  0003e	56		 push	 esi
  0003f	57		 push	 edi

; 1244 : 	}
; 1245 : 
; 1246 : 	for( int i = 0; i < INVENTORY_SIZE; i++ )

  00040	33 db		 xor	 ebx, ebx
  00042	8d b8 24 0e 00
	00		 lea	 edi, DWORD PTR [eax+3620]
  00048	a1 00 00 00 00	 mov	 eax, DWORD PTR ?gObj@@3PAUOBJECTSTRUCT@@A ; gObj
  0004d	33 f6		 xor	 esi, esi
  0004f	90		 npad	 1
$LL5@FindItemBa:

; 1247 : 	{
; 1248 : 		if( gObj[aIndex].pInventory[i].IsItem() == TRUE )

  00050	8b 0c 07	 mov	 ecx, DWORD PTR [edi+eax]
  00053	03 ce		 add	 ecx, esi
  00055	e8 00 00 00 00	 call	 ?IsItem@CItem@@QAEHXZ	; CItem::IsItem
  0005a	83 f8 01	 cmp	 eax, 1
  0005d	a1 00 00 00 00	 mov	 eax, DWORD PTR ?gObj@@3PAUOBJECTSTRUCT@@A ; gObj
  00062	75 0f		 jne	 SHORT $LN4@FindItemBa

; 1249 : 		{
; 1250 : 			if( gObj[aIndex].pInventory[i].m_Type == ITEMGET(14,64) ) //Ball

  00064	8b 0c 07	 mov	 ecx, DWORD PTR [edi+eax]
  00067	ba 40 1c 00 00	 mov	 edx, 7232		; 00001c40H
  0006c	66 39 54 31 06	 cmp	 WORD PTR [ecx+esi+6], dx
  00071	74 19		 je	 SHORT $LN12@FindItemBa
$LN4@FindItemBa:

; 1244 : 	}
; 1245 : 
; 1246 : 	for( int i = 0; i < INVENTORY_SIZE; i++ )

  00073	81 c6 d4 00 00
	00		 add	 esi, 212		; 000000d4H
  00079	43		 inc	 ebx
  0007a	81 fe 70 c3 00
	00		 cmp	 esi, 50032		; 0000c370H
  00080	7c ce		 jl	 SHORT $LL5@FindItemBa

; 1253 : 			}
; 1254 : 		}
; 1255 : 	}
; 1256 : 	return -1;

  00082	5f		 pop	 edi
  00083	5e		 pop	 esi
  00084	83 c8 ff	 or	 eax, -1
  00087	5b		 pop	 ebx

; 1257 : }

  00088	5d		 pop	 ebp
  00089	c2 04 00	 ret	 4
$LN12@FindItemBa:
  0008c	5f		 pop	 edi
  0008d	5e		 pop	 esi

; 1251 : 			{
; 1252 : 				return i;

  0008e	8b c3		 mov	 eax, ebx
  00090	5b		 pop	 ebx

; 1257 : }

  00091	5d		 pop	 ebp
  00092	c2 04 00	 ret	 4
?FindItemBallPosition@CIllusionTempleProcess@@QAEHH@Z ENDP ; CIllusionTempleProcess::FindItemBallPosition
_TEXT	ENDS
PUBLIC	??_C@_0EC@KBKIJFJA@?$FLIllusion?5Temple?$FN?5?$CI?$CFd?$CJ?5?$CI?$CFs?$CJ?$CI?$CFs?$CJ?5@ ; `string'
PUBLIC	?DeleteRelicsItem@CIllusionTempleProcess@@QAEXPAUOBJECTSTRUCT@@@Z ; CIllusionTempleProcess::DeleteRelicsItem
EXTRN	?LogAddTD@@3P6AXPADZZA:DWORD			; LogAddTD
EXTRN	?GCInventoryItemDeleteSend@@YAXHEE@Z:PROC	; GCInventoryItemDeleteSend
EXTRN	?gObjDeleteItemsCount@@YAHHFFH@Z:PROC		; gObjDeleteItemsCount
;	COMDAT ??_C@_0EC@KBKIJFJA@?$FLIllusion?5Temple?$FN?5?$CI?$CFd?$CJ?5?$CI?$CFs?$CJ?$CI?$CFs?$CJ?5@
CONST	SEGMENT
??_C@_0EC@KBKIJFJA@?$FLIllusion?5Temple?$FN?5?$CI?$CFd?$CJ?5?$CI?$CFs?$CJ?$CI?$CFs?$CJ?5@ DB '['
	DB	'Illusion Temple] (%d) (%s)(%s) to Delete Relics Item [Serial:'
	DB	'%u]', 00H					; `string'
; Function compile flags: /Ogtp
CONST	ENDS
;	COMDAT ?DeleteRelicsItem@CIllusionTempleProcess@@QAEXPAUOBJECTSTRUCT@@@Z
_TEXT	SEGMENT
_lpObj$ = 8						; size = 4
?DeleteRelicsItem@CIllusionTempleProcess@@QAEXPAUOBJECTSTRUCT@@@Z PROC ; CIllusionTempleProcess::DeleteRelicsItem, COMDAT
; _this$ = ecx

; 1260 : {

  00000	55		 push	 ebp
  00001	8b ec		 mov	 ebp, esp
  00003	56		 push	 esi

; 1261 : 	if(lpObj->pInventory[FindItemBallPosition(lpObj->m_Index)].m_Type == ITEMGET(14,64))

  00004	8b 75 08	 mov	 esi, DWORD PTR _lpObj$[ebp]
  00007	8b 06		 mov	 eax, DWORD PTR [esi]
  00009	57		 push	 edi
  0000a	50		 push	 eax
  0000b	8b f9		 mov	 edi, ecx
  0000d	e8 00 00 00 00	 call	 ?FindItemBallPosition@CIllusionTempleProcess@@QAEHH@Z ; CIllusionTempleProcess::FindItemBallPosition
  00012	69 c0 d4 00 00
	00		 imul	 eax, 212		; 000000d4H
  00018	8b 8e 24 0e 00
	00		 mov	 ecx, DWORD PTR [esi+3620]
  0001e	ba 40 1c 00 00	 mov	 edx, 7232		; 00001c40H
  00023	66 39 54 08 06	 cmp	 WORD PTR [eax+ecx+6], dx
  00028	75 5b		 jne	 SHORT $LN1@DeleteReli

; 1262 : 	{
; 1263 : 
; 1264 : 		int ItemType = ITEMGET(14,64);
; 1265 : 		//LogAddTD("[Illusion Temple] (%d) (%s)(%s) to Delete Relics Item [Serial:%u]", this->m_btFloorIndex+1, lpObj->AccountID, lpObj->Name, lpObj->pInventory[this->m_btBallInventoryPosition].m_Number);
; 1266 : 		//gObjInventoryDeleteItem(lpObj->m_Index, iItemPos);
; 1267 : 		//::gObjInventoryDeleteItem(lpObj->m_Index, iItemPos);
; 1268 : 		gObjDeleteItemsCount(lpObj->m_Index,ItemType,0,1);

  0002a	8b 06		 mov	 eax, DWORD PTR [esi]
  0002c	6a 01		 push	 1
  0002e	6a 00		 push	 0
  00030	52		 push	 edx
  00031	50		 push	 eax
  00032	e8 00 00 00 00	 call	 ?gObjDeleteItemsCount@@YAHHFFH@Z ; gObjDeleteItemsCount

; 1269 : 
; 1270 : 		GCInventoryItemDeleteSend(lpObj->m_Index, FindItemBallPosition(lpObj->m_Index), 0);

  00037	8b 0e		 mov	 ecx, DWORD PTR [esi]
  00039	83 c4 10	 add	 esp, 16			; 00000010H
  0003c	6a 00		 push	 0
  0003e	51		 push	 ecx
  0003f	8b cf		 mov	 ecx, edi
  00041	e8 00 00 00 00	 call	 ?FindItemBallPosition@CIllusionTempleProcess@@QAEHH@Z ; CIllusionTempleProcess::FindItemBallPosition
  00046	8b 16		 mov	 edx, DWORD PTR [esi]
  00048	50		 push	 eax
  00049	52		 push	 edx
  0004a	e8 00 00 00 00	 call	 ?GCInventoryItemDeleteSend@@YAXHEE@Z ; GCInventoryItemDeleteSend

; 1271 : 		LogAddTD("[Illusion Temple] (%d) (%s)(%s) to Delete Relics Item [Serial:%u]", this->m_btFloorIndex+1, lpObj->AccountID, lpObj->Name, lpObj->pInventory[this->m_btBallInventoryPosition].m_Number);

  0004f	0f b6 87 bd 03
	00 00		 movzx	 eax, BYTE PTR [edi+957]
  00056	8b 8e 24 0e 00
	00		 mov	 ecx, DWORD PTR [esi+3620]
  0005c	69 c0 d4 00 00
	00		 imul	 eax, 212		; 000000d4H
  00062	8b 14 08	 mov	 edx, DWORD PTR [eax+ecx]
  00065	0f b6 8f 2c 02
	00 00		 movzx	 ecx, BYTE PTR [edi+556]
  0006c	52		 push	 edx
  0006d	8d 46 77	 lea	 eax, DWORD PTR [esi+119]
  00070	50		 push	 eax
  00071	83 c6 6c	 add	 esi, 108		; 0000006cH
  00074	56		 push	 esi
  00075	41		 inc	 ecx
  00076	51		 push	 ecx
  00077	68 00 00 00 00	 push	 OFFSET ??_C@_0EC@KBKIJFJA@?$FLIllusion?5Temple?$FN?5?$CI?$CFd?$CJ?5?$CI?$CFs?$CJ?$CI?$CFs?$CJ?5@
  0007c	ff 15 00 00 00
	00		 call	 DWORD PTR ?LogAddTD@@3P6AXPADZZA ; LogAddTD
  00082	83 c4 20	 add	 esp, 32			; 00000020H
$LN1@DeleteReli:
  00085	5f		 pop	 edi
  00086	5e		 pop	 esi

; 1272 : 	}
; 1273 : }

  00087	5d		 pop	 ebp
  00088	c2 04 00	 ret	 4
?DeleteRelicsItem@CIllusionTempleProcess@@QAEXPAUOBJECTSTRUCT@@@Z ENDP ; CIllusionTempleProcess::DeleteRelicsItem
_TEXT	ENDS
PUBLIC	??_C@_0EA@DBPKHFEA@?$FLIllusion?5Temple?$FN?5?$CI?$CFd?$CJ?5?$CI?$CFs?$CJ?$CI?$CFs?$CJ?5@ ; `string'
PUBLIC	??_C@_0N@HIFAJKLG@?$MA?z?A?V?$LJ?$NO?$MA?$LK?$LM?$LK?$LJ?$LA?$AA@ ; `string'
PUBLIC	_iIndex$GSCopy$
PUBLIC	_this$GSCopy$
PUBLIC	__$ArrayPad$
PUBLIC	?DropRelicsItem@CIllusionTempleProcess@@QAEXH@Z	; CIllusionTempleProcess::DropRelicsItem
EXTRN	?DataSend@@YAHHPAEK@Z:PROC			; DataSend
EXTRN	?Get@CMsg@@QAEPADH@Z:PROC			; CMsg::Get
EXTRN	?lMsg@@3VCMsg@@A:BYTE				; lMsg
EXTRN	?gObjInventoryDeleteItem@@YAEHH@Z:PROC		; gObjInventoryDeleteItem
EXTRN	?ItemDrop@MapClass@@QAEHHHMHHEEEEEKHHHEQAEE@Z:PROC ; MapClass::ItemDrop
EXTRN	?GetAttr@MapClass@@QAEEHH@Z:PROC		; MapClass::GetAttr
EXTRN	?MapC@@3PAVMapClass@@A:BYTE			; MapC
EXTRN	?ItemIsBufExOption@@YAXPAEPAVCItem@@@Z:PROC	; ItemIsBufExOption
EXTRN	?GetItemOptionLevel@CJewelOfHarmonySystem@@QAEEPAVCItem@@@Z:PROC ; CJewelOfHarmonySystem::GetItemOptionLevel
EXTRN	?GetItemStrengthenOption@CJewelOfHarmonySystem@@QAEEPAVCItem@@@Z:PROC ; CJewelOfHarmonySystem::GetItemStrengthenOption
EXTRN	?g_kJewelOfHarmonySystem@@3VCJewelOfHarmonySystem@@A:BYTE ; g_kJewelOfHarmonySystem
EXTRN	?PHeadSetB@@YAXPAEEH@Z:PROC			; PHeadSetB
EXTRN	___security_cookie:DWORD
EXTRN	__fltused:DWORD
EXTRN	@__security_check_cookie@4:PROC
EXTRN	__ftol2_sse:PROC
;	COMDAT ??_C@_0EA@DBPKHFEA@?$FLIllusion?5Temple?$FN?5?$CI?$CFd?$CJ?5?$CI?$CFs?$CJ?$CI?$CFs?$CJ?5@
CONST	SEGMENT
??_C@_0EA@DBPKHFEA@?$FLIllusion?5Temple?$FN?5?$CI?$CFd?$CJ?5?$CI?$CFs?$CJ?$CI?$CFs?$CJ?5@ DB '['
	DB	'Illusion Temple] (%d) (%s)(%s) to Drop Relics Item [Serial:%u'
	DB	']', 00H					; `string'
CONST	ENDS
;	COMDAT ??_C@_0N@HIFAJKLG@?$MA?z?A?V?$LJ?$NO?$MA?$LK?$LM?$LK?$LJ?$LA?$AA@
CONST	SEGMENT
??_C@_0N@HIFAJKLG@?$MA?z?A?V?$LJ?$NO?$MA?$LK?$LM?$LK?$LJ?$LA?$AA@ DB 0c0H
	DB	0faH, 0c1H, 0d6H, 0b9H, 0deH, 0c0H, 0baH, 0bcH, 0baH, 0b9H, 0b0H
	DB	00H						; `string'
; Function compile flags: /Ogtp
CONST	ENDS
;	COMDAT ?DropRelicsItem@CIllusionTempleProcess@@QAEXH@Z
_TEXT	SEGMENT
_lpObj$ = -140						; size = 4
_s_num$ = -136						; size = 4
_NOption$ = -132					; size = 1
_item_number$ = -128					; size = 4
_PetExp$ = -124						; size = 4
_SOption$ = -120					; size = 1
_dur$ = -116						; size = 4
_ItemEffectEx$ = -112					; size = 1
_Option1$ = -108					; size = 1
_Option3$ = -104					; size = 1
_level$ = -100						; size = 4
_iIndex$GSCopy$ = -96					; size = 4
_Option2$ = -92						; size = 1
_this$GSCopy$ = -88					; size = 4
_iItemPos$ = -84					; size = 4
_type$ = -80						; size = 4
_pResult$ = -76						; size = 5
_ItemExOption$ = -66					; size = 1
_ItemExLevel$ = -65					; size = 1
_szItemName$ = -64					; size = 50
_NewOption$ = -12					; size = 8
__$ArrayPad$ = -4					; size = 4
_iIndex$ = 8						; size = 4
?DropRelicsItem@CIllusionTempleProcess@@QAEXH@Z PROC	; CIllusionTempleProcess::DropRelicsItem, COMDAT
; _this$ = ecx

; 1276 : {

  00000	55		 push	 ebp
  00001	8b ec		 mov	 ebp, esp
  00003	81 ec 8c 00 00
	00		 sub	 esp, 140		; 0000008cH
  00009	a1 00 00 00 00	 mov	 eax, DWORD PTR ___security_cookie
  0000e	33 c5		 xor	 eax, ebp
  00010	89 45 fc	 mov	 DWORD PTR __$ArrayPad$[ebp], eax
  00013	53		 push	 ebx
  00014	56		 push	 esi
  00015	8b 75 08	 mov	 esi, DWORD PTR _iIndex$[ebp]
  00018	8b d9		 mov	 ebx, ecx

; 1296 : 	{
; 1297 : 		return;
; 1298 : 	}
; 1299 : 
; 1300 : 	int iItemPos = FindItemBallPosition(lpObj->m_Index); //item position loc3

  0001a	89 5d a8	 mov	 DWORD PTR _this$GSCopy$[ebp], ebx
  0001d	89 75 a0	 mov	 DWORD PTR _iIndex$GSCopy$[ebp], esi
  00020	85 f6		 test	 esi, esi
  00022	78 0f		 js	 SHORT $LN14@DropRelics

; 1277 : 	if( OBJMAX_RANGE(iIndex) == FALSE )

  00024	33 c0		 xor	 eax, eax
  00026	81 fe 97 3a 00
	00		 cmp	 esi, 14999		; 00003a97H
  0002c	0f 9e c0	 setle	 al
  0002f	85 c0		 test	 eax, eax
  00031	75 2a		 jne	 SHORT $LN9@DropRelics
$LN14@DropRelics:

; 1278 : 	{
; 1279 : 		LogAdd("return %s %d", __FILE__, __LINE__);

  00033	68 ff 04 00 00	 push	 1279			; 000004ffH
  00038	68 00 00 00 00	 push	 OFFSET ??_C@_0BK@DMGNFDO@IllusionTempleProcess?4cpp?$AA@
  0003d	68 00 00 00 00	 push	 OFFSET ??_C@_0N@GGPGOPEN@return?5?$CFs?5?$CFd?$AA@
  00042	ff 15 00 00 00
	00		 call	 DWORD PTR ?LogAdd@@3P6AXPADZZA ; LogAdd
  00048	83 c4 0c	 add	 esp, 12			; 0000000cH
  0004b	5e		 pop	 esi
  0004c	5b		 pop	 ebx

; 1374 : }

  0004d	8b 4d fc	 mov	 ecx, DWORD PTR __$ArrayPad$[ebp]
  00050	33 cd		 xor	 ecx, ebp
  00052	e8 00 00 00 00	 call	 @__security_check_cookie@4
  00057	8b e5		 mov	 esp, ebp
  00059	5d		 pop	 ebp
  0005a	c2 04 00	 ret	 4
$LN9@DropRelics:

; 1280 : 		return;
; 1281 : 	}
; 1282 : 
; 1283 : 	if(this->m_iBallPlayerIndex != iIndex)

  0005d	39 b3 b8 03 00
	00		 cmp	 DWORD PTR [ebx+952], esi
  00063	0f 85 7b 03 00
	00		 jne	 $LN10@DropRelics

; 1284 : 	{
; 1285 : 		return;
; 1286 : 	}
; 1287 : 
; 1288 : 	LPOBJ lpObj = &gObj[iIndex]; //loc2

  00069	a1 00 00 00 00	 mov	 eax, DWORD PTR ?gObj@@3PAUOBJECTSTRUCT@@A ; gObj
  0006e	69 f6 50 2b 00
	00		 imul	 esi, 11088		; 00002b50H

; 1289 : 
; 1290 : 	if(FindItemBallPosition(lpObj->m_Index) == -1)

  00074	8b 0c 06	 mov	 ecx, DWORD PTR [esi+eax]
  00077	57		 push	 edi
  00078	8d 3c 06	 lea	 edi, DWORD PTR [esi+eax]
  0007b	51		 push	 ecx
  0007c	8b cb		 mov	 ecx, ebx
  0007e	89 bd 74 ff ff
	ff		 mov	 DWORD PTR _lpObj$[ebp], edi
  00084	e8 00 00 00 00	 call	 ?FindItemBallPosition@CIllusionTempleProcess@@QAEHH@Z ; CIllusionTempleProcess::FindItemBallPosition
  00089	83 f8 ff	 cmp	 eax, -1
  0008c	0f 84 51 03 00
	00		 je	 $LN15@DropRelics

; 1291 : 	{
; 1292 : 		return;
; 1293 : 	}
; 1294 : 
; 1295 : 	if(lpObj->pInventory[FindItemBallPosition(lpObj->m_Index)].m_Type != ITEMGET(14,64))

  00092	8b 17		 mov	 edx, DWORD PTR [edi]
  00094	52		 push	 edx
  00095	8b cb		 mov	 ecx, ebx
  00097	e8 00 00 00 00	 call	 ?FindItemBallPosition@CIllusionTempleProcess@@QAEHH@Z ; CIllusionTempleProcess::FindItemBallPosition
  0009c	69 c0 d4 00 00
	00		 imul	 eax, 212		; 000000d4H
  000a2	8b 8f 24 0e 00
	00		 mov	 ecx, DWORD PTR [edi+3620]
  000a8	ba 40 1c 00 00	 mov	 edx, 7232		; 00001c40H
  000ad	66 39 54 08 06	 cmp	 WORD PTR [eax+ecx+6], dx
  000b2	0f 85 2b 03 00
	00		 jne	 $LN15@DropRelics

; 1296 : 	{
; 1297 : 		return;
; 1298 : 	}
; 1299 : 
; 1300 : 	int iItemPos = FindItemBallPosition(lpObj->m_Index); //item position loc3

  000b8	8b 07		 mov	 eax, DWORD PTR [edi]
  000ba	50		 push	 eax
  000bb	8b cb		 mov	 ecx, ebx
  000bd	e8 00 00 00 00	 call	 ?FindItemBallPosition@CIllusionTempleProcess@@QAEHH@Z ; CIllusionTempleProcess::FindItemBallPosition

; 1301 : 
; 1302 : 	PMSG_ITEMTHROW_RESULT pResult;
; 1303 : 
; 1304 : 	PHeadSetB((LPBYTE)&pResult, 0x23, sizeof(pResult));

  000c2	6a 05		 push	 5
  000c4	8d 4d b4	 lea	 ecx, DWORD PTR _pResult$[ebp]
  000c7	8b d8		 mov	 ebx, eax
  000c9	6a 23		 push	 35			; 00000023H
  000cb	51		 push	 ecx
  000cc	89 5d ac	 mov	 DWORD PTR _iItemPos$[ebp], ebx
  000cf	e8 00 00 00 00	 call	 ?PHeadSetB@@YAXPAEEH@Z	; PHeadSetB

; 1305 : 	pResult.Result = TRUE;
; 1306 : 	pResult.Ipos = iItemPos;
; 1307 : 
; 1308 : 	int map_num = gObj[iIndex].MapNumber;
; 1309 : 	int type = gObj[iIndex].pInventory[iItemPos].m_Type;

  000d4	8b 7d ac	 mov	 edi, DWORD PTR _iItemPos$[ebp]
  000d7	a1 00 00 00 00	 mov	 eax, DWORD PTR ?gObj@@3PAUOBJECTSTRUCT@@A ; gObj
  000dc	69 ff d4 00 00
	00		 imul	 edi, 212		; 000000d4H
  000e2	c6 45 b7 01	 mov	 BYTE PTR _pResult$[ebp+3], 1
  000e6	88 5d b8	 mov	 BYTE PTR _pResult$[ebp+4], bl
  000e9	8b 8c 06 24 0e
	00 00		 mov	 ecx, DWORD PTR [esi+eax+3620]
  000f0	0f b6 9c 06 49
	01 00 00	 movzx	 ebx, BYTE PTR [esi+eax+329]

; 1310 : 	int level = gObj[iIndex].pInventory[iItemPos].m_Level;
; 1311 : 	float dur = gObj[iIndex].pInventory[iItemPos].m_Durability;

  000f8	d9 44 39 24	 fld	 DWORD PTR [ecx+edi+36]
  000fc	0f bf 44 39 06	 movsx	 eax, WORD PTR [ecx+edi+6]
  00101	d9 5d 8c	 fstp	 DWORD PTR _dur$[ebp]
  00104	0f bf 54 39 08	 movsx	 edx, WORD PTR [ecx+edi+8]
  00109	03 cf		 add	 ecx, edi
  0010b	83 c4 0c	 add	 esp, 12			; 0000000cH
  0010e	89 45 b0	 mov	 DWORD PTR _type$[ebp], eax
  00111	89 55 9c	 mov	 DWORD PTR _level$[ebp], edx

; 1312 : 	BOOL ret = gObj[iIndex].pInventory[iItemPos].IsItem();

  00114	e8 00 00 00 00	 call	 ?IsItem@CItem@@QAEHXZ	; CItem::IsItem

; 1313 : 	BYTE Option1 = gObj[iIndex].pInventory[iItemPos].m_Option1;

  00119	a1 00 00 00 00	 mov	 eax, DWORD PTR ?gObj@@3PAUOBJECTSTRUCT@@A ; gObj
  0011e	8b 84 06 24 0e
	00 00		 mov	 eax, DWORD PTR [esi+eax+3620]
  00125	0f b6 94 38 94
	00 00 00	 movzx	 edx, BYTE PTR [eax+edi+148]

; 1314 : 	BYTE Option2 = gObj[iIndex].pInventory[iItemPos].m_Option2;

  0012d	0f b6 8c 38 95
	00 00 00	 movzx	 ecx, BYTE PTR [eax+edi+149]
  00135	03 c7		 add	 eax, edi
  00137	88 55 94	 mov	 BYTE PTR _Option1$[ebp], dl

; 1315 : 	BYTE Option3 = gObj[iIndex].pInventory[iItemPos].m_Option3;

  0013a	0f b6 90 96 00
	00 00		 movzx	 edx, BYTE PTR [eax+150]
  00141	88 4d a4	 mov	 BYTE PTR _Option2$[ebp], cl

; 1316 : 	BYTE NOption = gObj[iIndex].pInventory[iItemPos].m_NewOption;

  00144	0f b6 88 97 00
	00 00		 movzx	 ecx, BYTE PTR [eax+151]
  0014b	88 55 98	 mov	 BYTE PTR _Option3$[ebp], dl

; 1317 : 	DWORD s_num = gObj[iIndex].pInventory[iItemPos].m_Number;

  0014e	8b 10		 mov	 edx, DWORD PTR [eax]
  00150	88 8d 7c ff ff
	ff		 mov	 BYTE PTR _NOption$[ebp], cl

; 1318 : 	BYTE ItemExOption = g_kJewelOfHarmonySystem.GetItemStrengthenOption(&gObj[iIndex].pInventory[iItemPos]);

  00156	50		 push	 eax
  00157	b9 00 00 00 00	 mov	 ecx, OFFSET ?g_kJewelOfHarmonySystem@@3VCJewelOfHarmonySystem@@A ; g_kJewelOfHarmonySystem
  0015c	89 95 78 ff ff
	ff		 mov	 DWORD PTR _s_num$[ebp], edx
  00162	e8 00 00 00 00	 call	 ?GetItemStrengthenOption@CJewelOfHarmonySystem@@QAEEPAVCItem@@@Z ; CJewelOfHarmonySystem::GetItemStrengthenOption
  00167	88 45 be	 mov	 BYTE PTR _ItemExOption$[ebp], al

; 1319 : 	BYTE ItemExLevel = g_kJewelOfHarmonySystem.GetItemOptionLevel(&gObj[iIndex].pInventory[iItemPos]); //loc17

  0016a	a1 00 00 00 00	 mov	 eax, DWORD PTR ?gObj@@3PAUOBJECTSTRUCT@@A ; gObj
  0016f	8b 8c 06 24 0e
	00 00		 mov	 ecx, DWORD PTR [esi+eax+3620]
  00176	03 cf		 add	 ecx, edi
  00178	51		 push	 ecx
  00179	b9 00 00 00 00	 mov	 ecx, OFFSET ?g_kJewelOfHarmonySystem@@3VCJewelOfHarmonySystem@@A ; g_kJewelOfHarmonySystem
  0017e	e8 00 00 00 00	 call	 ?GetItemOptionLevel@CJewelOfHarmonySystem@@QAEEPAVCItem@@@Z ; CJewelOfHarmonySystem::GetItemOptionLevel

; 1320 : 
; 1321 : 	BYTE NewOption[MAX_EXOPTION_SIZE];
; 1322 : 
; 1323 : 	::ItemIsBufExOption(NewOption, &gObj[iIndex].pInventory[iItemPos]);

  00183	8b 15 00 00 00
	00		 mov	 edx, DWORD PTR ?gObj@@3PAUOBJECTSTRUCT@@A ; gObj
  00189	88 45 bf	 mov	 BYTE PTR _ItemExLevel$[ebp], al
  0018c	8b 84 16 24 0e
	00 00		 mov	 eax, DWORD PTR [esi+edx+3620]
  00193	03 c7		 add	 eax, edi
  00195	50		 push	 eax
  00196	8d 4d f4	 lea	 ecx, DWORD PTR _NewOption$[ebp]
  00199	51		 push	 ecx
  0019a	e8 00 00 00 00	 call	 ?ItemIsBufExOption@@YAXPAEPAVCItem@@@Z ; ItemIsBufExOption

; 1324 : 
; 1325 : 	int PetLevel = gObj[iIndex].pInventory[iItemPos].m_PetItem_Level; //loc20

  0019f	8b 0d 00 00 00
	00		 mov	 ecx, DWORD PTR ?gObj@@3PAUOBJECTSTRUCT@@A ; gObj
  001a5	8b 84 0e 24 0e
	00 00		 mov	 eax, DWORD PTR [esi+ecx+3620]

; 1326 : 
; 1327 : 	int PetExp = gObj[iIndex].pInventory[iItemPos].m_PetItem_Exp; //loc21

  001ac	8b 94 38 c0 00
	00 00		 mov	 edx, DWORD PTR [eax+edi+192]
  001b3	03 c7		 add	 eax, edi
  001b5	8b b8 bc 00 00
	00		 mov	 edi, DWORD PTR [eax+188]
  001bb	89 55 84	 mov	 DWORD PTR _PetExp$[ebp], edx

; 1328 : 	BYTE SOption = gObj[iIndex].pInventory[iItemPos].m_SetOption; //loc22

  001be	0f b6 90 ae 00
	00 00		 movzx	 edx, BYTE PTR [eax+174]
  001c5	88 55 88	 mov	 BYTE PTR _SOption$[ebp], dl

; 1329 : 
; 1330 : 	BYTE ItemEffectEx = gObj[iIndex].pInventory[iItemPos].m_ItemOptionEx; //loc23

  001c8	0f b6 90 ca 00
	00 00		 movzx	 edx, BYTE PTR [eax+202]

; 1331 : 	int item_number = gObj[iIndex].pInventory[iItemPos].m_Number; //loc24

  001cf	8b 00		 mov	 eax, DWORD PTR [eax]
  001d1	89 45 80	 mov	 DWORD PTR _item_number$[ebp], eax

; 1332 : 
; 1333 : 	char szItemName[50] = "저주받은성물";

  001d4	a1 04 00 00 00	 mov	 eax, DWORD PTR ??_C@_0N@HIFAJKLG@?$MA?z?A?V?$LJ?$NO?$MA?$LK?$LM?$LK?$LJ?$LA?$AA@+4
  001d9	88 55 90	 mov	 BYTE PTR _ItemEffectEx$[ebp], dl
  001dc	8b 15 00 00 00
	00		 mov	 edx, DWORD PTR ??_C@_0N@HIFAJKLG@?$MA?z?A?V?$LJ?$NO?$MA?$LK?$LM?$LK?$LJ?$LA?$AA@
  001e2	89 45 c4	 mov	 DWORD PTR _szItemName$[ebp+4], eax
  001e5	a0 0c 00 00 00	 mov	 al, BYTE PTR ??_C@_0N@HIFAJKLG@?$MA?z?A?V?$LJ?$NO?$MA?$LK?$LM?$LK?$LJ?$LA?$AA@+12
  001ea	83 c4 08	 add	 esp, 8
  001ed	89 55 c0	 mov	 DWORD PTR _szItemName$[ebp], edx
  001f0	8b 15 08 00 00
	00		 mov	 edx, DWORD PTR ??_C@_0N@HIFAJKLG@?$MA?z?A?V?$LJ?$NO?$MA?$LK?$LM?$LK?$LJ?$LA?$AA@+8
  001f6	88 45 cc	 mov	 BYTE PTR _szItemName$[ebp+12], al
  001f9	33 c0		 xor	 eax, eax
  001fb	89 55 c8	 mov	 DWORD PTR _szItemName$[ebp+8], edx
  001fe	89 45 cd	 mov	 DWORD PTR _szItemName$[ebp+13], eax

; 1334 : 
; 1335 : 	int aAntiLootIndex = -1; //loc38
; 1336 : 	short cX = 0; //loc39
; 1337 : 	short cY = 0; //loc40
; 1338 : 
; 1339 : 	BYTE btMapAttr = MapC[map_num].GetAttr(gObj[iIndex].X, gObj[iIndex].Y);

  00201	69 db 48 3d 05
	00		 imul	 ebx, 343368		; 00053d48H
  00207	89 45 d1	 mov	 DWORD PTR _szItemName$[ebp+17], eax
  0020a	89 45 d5	 mov	 DWORD PTR _szItemName$[ebp+21], eax
  0020d	89 45 d9	 mov	 DWORD PTR _szItemName$[ebp+25], eax
  00210	89 45 dd	 mov	 DWORD PTR _szItemName$[ebp+29], eax
  00213	89 45 e1	 mov	 DWORD PTR _szItemName$[ebp+33], eax
  00216	89 45 e5	 mov	 DWORD PTR _szItemName$[ebp+37], eax
  00219	89 45 e9	 mov	 DWORD PTR _szItemName$[ebp+41], eax
  0021c	89 45 ed	 mov	 DWORD PTR _szItemName$[ebp+45], eax
  0021f	88 45 f1	 mov	 BYTE PTR _szItemName$[ebp+49], al
  00222	0f bf 94 0e 46
	01 00 00	 movsx	 edx, WORD PTR [esi+ecx+326]
  0022a	0f bf 84 0e 44
	01 00 00	 movsx	 eax, WORD PTR [esi+ecx+324]
  00232	52		 push	 edx
  00233	8d 9b 00 00 00
	00		 lea	 ebx, DWORD PTR ?MapC@@3PAVMapClass@@A[ebx]
  00239	50		 push	 eax
  0023a	8b cb		 mov	 ecx, ebx
  0023c	e8 00 00 00 00	 call	 ?GetAttr@MapClass@@QAEEHH@Z ; MapClass::GetAttr

; 1340 : 
; 1341 : 	if((btMapAttr&4) == 4 || (btMapAttr&8) == 8)

  00241	a8 0c		 test	 al, 12			; 0000000cH
  00243	75 18		 jne	 SHORT $LN4@DropRelics

; 1345 : 	}
; 1346 : 	else
; 1347 : 	{
; 1348 : 		cX = gObj[iIndex].X;

  00245	8b 0d 00 00 00
	00		 mov	 ecx, DWORD PTR ?gObj@@3PAUOBJECTSTRUCT@@A ; gObj
  0024b	0f b7 84 0e 44
	01 00 00	 movzx	 eax, WORD PTR [esi+ecx+324]

; 1349 : 		cY = gObj[iIndex].Y;

  00253	0f b7 8c 0e 46
	01 00 00	 movzx	 ecx, WORD PTR [esi+ecx+326]
  0025b	eb 08		 jmp	 SHORT $LN3@DropRelics
$LN4@DropRelics:

; 1342 : 	{
; 1343 : 		cX = 168;

  0025d	b8 a8 00 00 00	 mov	 eax, 168		; 000000a8H

; 1344 : 		cY = 85;

  00262	8d 48 ad	 lea	 ecx, DWORD PTR [eax-83]
$LN3@DropRelics:

; 1350 : 	}
; 1351 : 
; 1352 : 	if ( MapC[map_num].ItemDrop(type, level, dur, cX, cY,Option1, Option2, Option3, NOption, SOption, item_number, aAntiLootIndex, PetLevel, PetExp, ItemEffectEx, NULL, 0xFF) == TRUE )

  00265	8b 55 90	 mov	 edx, DWORD PTR _ItemEffectEx$[ebp]
  00268	d9 45 8c	 fld	 DWORD PTR _dur$[ebp]
  0026b	68 ff 00 00 00	 push	 255			; 000000ffH
  00270	6a 00		 push	 0
  00272	52		 push	 edx
  00273	8b 55 84	 mov	 edx, DWORD PTR _PetExp$[ebp]
  00276	52		 push	 edx
  00277	8b 55 80	 mov	 edx, DWORD PTR _item_number$[ebp]
  0027a	57		 push	 edi
  0027b	6a ff		 push	 -1
  0027d	52		 push	 edx
  0027e	8b 55 88	 mov	 edx, DWORD PTR _SOption$[ebp]
  00281	52		 push	 edx
  00282	8b 95 7c ff ff
	ff		 mov	 edx, DWORD PTR _NOption$[ebp]
  00288	52		 push	 edx
  00289	8b 55 98	 mov	 edx, DWORD PTR _Option3$[ebp]
  0028c	52		 push	 edx
  0028d	8b 55 a4	 mov	 edx, DWORD PTR _Option2$[ebp]
  00290	52		 push	 edx
  00291	8b 55 94	 mov	 edx, DWORD PTR _Option1$[ebp]
  00294	52		 push	 edx
  00295	0f bf c9	 movsx	 ecx, cx
  00298	51		 push	 ecx
  00299	0f bf d0	 movsx	 edx, ax
  0029c	8b 45 9c	 mov	 eax, DWORD PTR _level$[ebp]
  0029f	52		 push	 edx
  002a0	51		 push	 ecx
  002a1	8b 4d b0	 mov	 ecx, DWORD PTR _type$[ebp]
  002a4	d9 1c 24	 fstp	 DWORD PTR [esp]
  002a7	50		 push	 eax
  002a8	51		 push	 ecx
  002a9	8b cb		 mov	 ecx, ebx
  002ab	e8 00 00 00 00	 call	 ?ItemDrop@MapClass@@QAEHHHMHHEEEEEKHHHEQAEE@Z ; MapClass::ItemDrop

; 1353 : 	{
; 1354 : 		LogAddTD("[Illusion Temple] (%d) (%s)(%s) to Drop Relics Item [Serial:%u]",this->m_btFloorIndex+1, lpObj->AccountID, lpObj->Name, lpObj->pInventory[FindItemBallPosition(lpObj->m_Index)].m_Number);

  002b0	8b 5d a8	 mov	 ebx, DWORD PTR _this$GSCopy$[ebp]
  002b3	83 f8 01	 cmp	 eax, 1
  002b6	0f 85 fb 00 00
	00		 jne	 $LN2@DropRelics
  002bc	8b bd 74 ff ff
	ff		 mov	 edi, DWORD PTR _lpObj$[ebp]
  002c2	8b 17		 mov	 edx, DWORD PTR [edi]
  002c4	52		 push	 edx
  002c5	8b cb		 mov	 ecx, ebx
  002c7	e8 00 00 00 00	 call	 ?FindItemBallPosition@CIllusionTempleProcess@@QAEHH@Z ; CIllusionTempleProcess::FindItemBallPosition
  002cc	69 c0 d4 00 00
	00		 imul	 eax, 212		; 000000d4H
  002d2	8b 8f 24 0e 00
	00		 mov	 ecx, DWORD PTR [edi+3620]
  002d8	8b 14 08	 mov	 edx, DWORD PTR [eax+ecx]
  002db	0f b6 8b 2c 02
	00 00		 movzx	 ecx, BYTE PTR [ebx+556]
  002e2	52		 push	 edx
  002e3	8d 47 77	 lea	 eax, DWORD PTR [edi+119]
  002e6	50		 push	 eax
  002e7	83 c7 6c	 add	 edi, 108		; 0000006cH
  002ea	57		 push	 edi
  002eb	41		 inc	 ecx
  002ec	51		 push	 ecx
  002ed	68 00 00 00 00	 push	 OFFSET ??_C@_0EA@DBPKHFEA@?$FLIllusion?5Temple?$FN?5?$CI?$CFd?$CJ?5?$CI?$CFs?$CJ?$CI?$CFs?$CJ?5@
  002f2	ff 15 00 00 00
	00		 call	 DWORD PTR ?LogAddTD@@3P6AXPADZZA ; LogAddTD

; 1355 : 		
; 1356 : 		::gObjInventoryDeleteItem(iIndex, iItemPos);

  002f8	8b 55 ac	 mov	 edx, DWORD PTR _iItemPos$[ebp]
  002fb	8b 45 a0	 mov	 eax, DWORD PTR _iIndex$GSCopy$[ebp]
  002fe	52		 push	 edx
  002ff	50		 push	 eax
  00300	e8 00 00 00 00	 call	 ?gObjInventoryDeleteItem@@YAEHH@Z ; gObjInventoryDeleteItem

; 1357 : 		pResult.Result = TRUE;
; 1358 : 
; 1359 : 		LogAddTD(lMsg.Get(479), gObj[iIndex].AccountID, gObj[iIndex].Name, gObj[iIndex].MapNumber,
; 1360 : 			gObj[iIndex].X, gObj[iIndex].Y, s_num, szItemName, type, level, Option1, Option2, Option3, (int)dur, NewOption[0],
; 1361 : 			NewOption[1], NewOption[2], NewOption[3], NewOption[4], NewOption[5], NewOption[6], SOption,
; 1362 : 			ItemEffectEx>>7, ItemExOption, ItemExLevel);

  00305	0f b6 4d bf	 movzx	 ecx, BYTE PTR _ItemExLevel$[ebp]
  00309	d9 45 8c	 fld	 DWORD PTR _dur$[ebp]
  0030c	0f b6 55 be	 movzx	 edx, BYTE PTR _ItemExOption$[ebp]
  00310	0f b6 45 90	 movzx	 eax, BYTE PTR _ItemEffectEx$[ebp]
  00314	83 c4 1c	 add	 esp, 28			; 0000001cH
  00317	51		 push	 ecx
  00318	0f b6 4d 88	 movzx	 ecx, BYTE PTR _SOption$[ebp]
  0031c	8b 3d 00 00 00
	00		 mov	 edi, DWORD PTR ?gObj@@3PAUOBJECTSTRUCT@@A ; gObj
  00322	52		 push	 edx
  00323	0f b6 55 fa	 movzx	 edx, BYTE PTR _NewOption$[ebp+6]
  00327	c1 e8 07	 shr	 eax, 7
  0032a	50		 push	 eax
  0032b	0f b6 45 f9	 movzx	 eax, BYTE PTR _NewOption$[ebp+5]
  0032f	51		 push	 ecx
  00330	0f b6 4d f8	 movzx	 ecx, BYTE PTR _NewOption$[ebp+4]
  00334	52		 push	 edx
  00335	0f b6 55 f7	 movzx	 edx, BYTE PTR _NewOption$[ebp+3]
  00339	50		 push	 eax
  0033a	0f b6 45 f6	 movzx	 eax, BYTE PTR _NewOption$[ebp+2]
  0033e	51		 push	 ecx
  0033f	0f b6 4d f5	 movzx	 ecx, BYTE PTR _NewOption$[ebp+1]
  00343	52		 push	 edx
  00344	0f b6 55 f4	 movzx	 edx, BYTE PTR _NewOption$[ebp]
  00348	50		 push	 eax
  00349	51		 push	 ecx
  0034a	52		 push	 edx
  0034b	c6 45 b7 01	 mov	 BYTE PTR _pResult$[ebp+3], 1
  0034f	e8 00 00 00 00	 call	 __ftol2_sse
  00354	0f b6 4d a4	 movzx	 ecx, BYTE PTR _Option2$[ebp]
  00358	0f b6 55 94	 movzx	 edx, BYTE PTR _Option1$[ebp]
  0035c	50		 push	 eax
  0035d	0f b6 45 98	 movzx	 eax, BYTE PTR _Option3$[ebp]
  00361	50		 push	 eax
  00362	8b 45 9c	 mov	 eax, DWORD PTR _level$[ebp]
  00365	51		 push	 ecx
  00366	8b 4d b0	 mov	 ecx, DWORD PTR _type$[ebp]
  00369	52		 push	 edx
  0036a	50		 push	 eax
  0036b	8b 85 78 ff ff
	ff		 mov	 eax, DWORD PTR _s_num$[ebp]
  00371	51		 push	 ecx
  00372	0f bf 8c 3e 46
	01 00 00	 movsx	 ecx, WORD PTR [esi+edi+326]
  0037a	8d 55 c0	 lea	 edx, DWORD PTR _szItemName$[ebp]
  0037d	52		 push	 edx
  0037e	0f bf 94 3e 44
	01 00 00	 movsx	 edx, WORD PTR [esi+edi+324]
  00386	50		 push	 eax
  00387	0f b6 84 3e 49
	01 00 00	 movzx	 eax, BYTE PTR [esi+edi+329]
  0038f	51		 push	 ecx
  00390	52		 push	 edx
  00391	50		 push	 eax
  00392	8d 4c 3e 77	 lea	 ecx, DWORD PTR [esi+edi+119]
  00396	51		 push	 ecx
  00397	8d 54 3e 6c	 lea	 edx, DWORD PTR [esi+edi+108]
  0039b	52		 push	 edx
  0039c	68 df 01 00 00	 push	 479			; 000001dfH
  003a1	b9 00 00 00 00	 mov	 ecx, OFFSET ?lMsg@@3VCMsg@@A ; lMsg
  003a6	e8 00 00 00 00	 call	 ?Get@CMsg@@QAEPADH@Z	; CMsg::Get
  003ab	50		 push	 eax
  003ac	ff 15 00 00 00
	00		 call	 DWORD PTR ?LogAddTD@@3P6AXPADZZA ; LogAddTD
  003b2	83 c4 64	 add	 esp, 100		; 00000064H

; 1363 : 	}
; 1364 : 	else

  003b5	eb 04		 jmp	 SHORT $LN1@DropRelics
$LN2@DropRelics:

; 1365 : 	{
; 1366 : 		pResult.Result = FALSE;

  003b7	c6 45 b7 00	 mov	 BYTE PTR _pResult$[ebp+3], 0
$LN1@DropRelics:

; 1367 : 	}
; 1368 : 
; 1369 : 	this->m_iBallPlayerIndex = -1;
; 1370 : 	this->m_btBallInventoryPosition = (BYTE)-1;
; 1371 : 	this->m_btAllowedRegPedestal = (BYTE)-1;
; 1372 : 
; 1373 : 	DataSend(iIndex, (LPBYTE)&pResult, pResult.h.size);

  003bb	0f b6 45 b5	 movzx	 eax, BYTE PTR _pResult$[ebp+1]
  003bf	8b 55 a0	 mov	 edx, DWORD PTR _iIndex$GSCopy$[ebp]
  003c2	50		 push	 eax
  003c3	8d 4d b4	 lea	 ecx, DWORD PTR _pResult$[ebp]
  003c6	51		 push	 ecx
  003c7	52		 push	 edx
  003c8	c7 83 b8 03 00
	00 ff ff ff ff	 mov	 DWORD PTR [ebx+952], -1
  003d2	66 c7 83 bc 03
	00 00 ff ff	 mov	 WORD PTR [ebx+956], 65535 ; 0000ffffH
  003db	e8 00 00 00 00	 call	 ?DataSend@@YAHHPAEK@Z	; DataSend
  003e0	83 c4 0c	 add	 esp, 12			; 0000000cH
$LN15@DropRelics:
  003e3	5f		 pop	 edi
$LN10@DropRelics:

; 1374 : }

  003e4	8b 4d fc	 mov	 ecx, DWORD PTR __$ArrayPad$[ebp]
  003e7	5e		 pop	 esi
  003e8	33 cd		 xor	 ecx, ebp
  003ea	5b		 pop	 ebx
  003eb	e8 00 00 00 00	 call	 @__security_check_cookie@4
  003f0	8b e5		 mov	 esp, ebp
  003f2	5d		 pop	 ebp
  003f3	c2 04 00	 ret	 4
?DropRelicsItem@CIllusionTempleProcess@@QAEXH@Z ENDP	; CIllusionTempleProcess::DropRelicsItem
_TEXT	ENDS
PUBLIC	?UnlockTeamPedestal@CIllusionTempleProcess@@QAEXHE@Z ; CIllusionTempleProcess::UnlockTeamPedestal
; Function compile flags: /Ogtp
;	COMDAT ?UnlockTeamPedestal@CIllusionTempleProcess@@QAEXHE@Z
_TEXT	SEGMENT
_aIndex$ = 8						; size = 4
_pos$ = 12						; size = 1
?UnlockTeamPedestal@CIllusionTempleProcess@@QAEXHE@Z PROC ; CIllusionTempleProcess::UnlockTeamPedestal, COMDAT
; _this$ = ecx

; 1377 : {

  00000	55		 push	 ebp
  00001	8b ec		 mov	 ebp, esp
  00003	56		 push	 esi
  00004	57		 push	 edi

; 1378 : 	if( OBJMAX_RANGE(aIndex) == FALSE )

  00005	8b 7d 08	 mov	 edi, DWORD PTR _aIndex$[ebp]
  00008	8b f1		 mov	 esi, ecx
  0000a	85 ff		 test	 edi, edi
  0000c	78 0f		 js	 SHORT $LN7@UnlockTeam
  0000e	33 c0		 xor	 eax, eax
  00010	81 ff 97 3a 00
	00		 cmp	 edi, 14999		; 00003a97H
  00016	0f 9e c0	 setle	 al
  00019	85 c0		 test	 eax, eax
  0001b	75 1e		 jne	 SHORT $LN2@UnlockTeam
$LN7@UnlockTeam:

; 1379 : 	{
; 1380 : 		LogAdd("return %s %d", __FILE__, __LINE__);

  0001d	68 64 05 00 00	 push	 1380			; 00000564H
  00022	68 00 00 00 00	 push	 OFFSET ??_C@_0BK@DMGNFDO@IllusionTempleProcess?4cpp?$AA@
  00027	68 00 00 00 00	 push	 OFFSET ??_C@_0N@GGPGOPEN@return?5?$CFs?5?$CFd?$AA@
  0002c	ff 15 00 00 00
	00		 call	 DWORD PTR ?LogAdd@@3P6AXPADZZA ; LogAdd
  00032	83 c4 0c	 add	 esp, 12			; 0000000cH
  00035	5f		 pop	 edi
  00036	5e		 pop	 esi

; 1391 : 	}
; 1392 : }

  00037	5d		 pop	 ebp
  00038	c2 08 00	 ret	 8
$LN2@UnlockTeam:

; 1381 : 		return;
; 1382 : 	}
; 1383 : 
; 1384 : 	this->m_iBallPlayerIndex = aIndex;
; 1385 : 	this->m_btBallInventoryPosition = FindItemBallPosition(aIndex);

  0003b	57		 push	 edi
  0003c	89 be b8 03 00
	00		 mov	 DWORD PTR [esi+952], edi
  00042	e8 00 00 00 00	 call	 ?FindItemBallPosition@CIllusionTempleProcess@@QAEHH@Z ; CIllusionTempleProcess::FindItemBallPosition
  00047	88 86 bd 03 00
	00		 mov	 BYTE PTR [esi+957], al

; 1386 : 	//this->m_btBallInventoryPosition = pos;
; 1387 : 
; 1388 : 	if(gObj[aIndex].m_iIllusionTempleIndex != -1 && this->m_FloorData[gObj[aIndex].m_iIllusionTempleIndex].m_iTeamPlayerIndex != -1 && this->m_FloorData[gObj[aIndex].m_iIllusionTempleIndex].m_iTeamPlayerIndex == aIndex)

  0004d	8b 0d 00 00 00
	00		 mov	 ecx, DWORD PTR ?gObj@@3PAUOBJECTSTRUCT@@A ; gObj
  00053	8b c7		 mov	 eax, edi
  00055	69 c0 50 2b 00
	00		 imul	 eax, 11088		; 00002b50H
  0005b	8b 84 08 78 20
	00 00		 mov	 eax, DWORD PTR [eax+ecx+8312]
  00062	83 f8 ff	 cmp	 eax, -1
  00065	74 1c		 je	 SHORT $LN1@UnlockTeam
  00067	8d 0c 40	 lea	 ecx, DWORD PTR [eax+eax*2]
  0006a	03 c9		 add	 ecx, ecx
  0006c	8b 44 ce 20	 mov	 eax, DWORD PTR [esi+ecx*8+32]
  00070	83 f8 ff	 cmp	 eax, -1
  00073	74 0e		 je	 SHORT $LN1@UnlockTeam
  00075	3b c7		 cmp	 eax, edi
  00077	75 0a		 jne	 SHORT $LN1@UnlockTeam

; 1389 : 	{
; 1390 : 		this->m_btAllowedRegPedestal = this->m_FloorData[gObj[aIndex].m_iIllusionTempleIndex].m_btTeamJoinSide;

  00079	8a 44 ce 24	 mov	 al, BYTE PTR [esi+ecx*8+36]
  0007d	88 86 bc 03 00
	00		 mov	 BYTE PTR [esi+956], al
$LN1@UnlockTeam:
  00083	5f		 pop	 edi
  00084	5e		 pop	 esi

; 1391 : 	}
; 1392 : }

  00085	5d		 pop	 ebp
  00086	c2 08 00	 ret	 8
?UnlockTeamPedestal@CIllusionTempleProcess@@QAEXHE@Z ENDP ; CIllusionTempleProcess::UnlockTeamPedestal
_TEXT	ENDS
PUBLIC	__$ArrayPad$
PUBLIC	?GCSendPlayerRelicsCarrier@CIllusionTempleProcess@@QAEXPAUOBJECTSTRUCT@@@Z ; CIllusionTempleProcess::GCSendPlayerRelicsCarrier
EXTRN	?PHeadSubSetB@@YAXPAEEEH@Z:PROC			; PHeadSubSetB
; Function compile flags: /Ogtp
;	COMDAT ?GCSendPlayerRelicsCarrier@CIllusionTempleProcess@@QAEXPAUOBJECTSTRUCT@@@Z
_TEXT	SEGMENT
_pMsg$ = -20						; size = 16
__$ArrayPad$ = -4					; size = 4
_lpObj$ = 8						; size = 4
?GCSendPlayerRelicsCarrier@CIllusionTempleProcess@@QAEXPAUOBJECTSTRUCT@@@Z PROC ; CIllusionTempleProcess::GCSendPlayerRelicsCarrier, COMDAT
; _this$ = ecx

; 1395 : {

  00000	55		 push	 ebp
  00001	8b ec		 mov	 ebp, esp
  00003	83 ec 14	 sub	 esp, 20			; 00000014H
  00006	a1 00 00 00 00	 mov	 eax, DWORD PTR ___security_cookie
  0000b	33 c5		 xor	 eax, ebp
  0000d	89 45 fc	 mov	 DWORD PTR __$ArrayPad$[ebp], eax
  00010	56		 push	 esi
  00011	8b 75 08	 mov	 esi, DWORD PTR _lpObj$[ebp]
  00014	57		 push	 edi

; 1396 : 	PMSG_ANNOUNCE_BALL_PLAYER pMsg;
; 1397 : 
; 1398 : 	PHeadSubSetB((LPBYTE)&pMsg, 0xBF, 0x08, sizeof(pMsg));

  00015	6a 10		 push	 16			; 00000010H
  00017	6a 08		 push	 8
  00019	8d 45 ec	 lea	 eax, DWORD PTR _pMsg$[ebp]
  0001c	68 bf 00 00 00	 push	 191			; 000000bfH
  00021	50		 push	 eax
  00022	8b f9		 mov	 edi, ecx
  00024	e8 00 00 00 00	 call	 ?PHeadSubSetB@@YAXPAEEEH@Z ; PHeadSubSetB

; 1399 : 
; 1400 : 	pMsg.m_sIndex = lpObj->m_Index;

  00029	0f b7 0e	 movzx	 ecx, WORD PTR [esi]

; 1401 : 
; 1402 : 	memcpy(pMsg.chCharacter, lpObj->Name, 10);

  0002c	8b 56 77	 mov	 edx, DWORD PTR [esi+119]
  0002f	8b 46 7b	 mov	 eax, DWORD PTR [esi+123]
  00032	66 89 4d f0	 mov	 WORD PTR _pMsg$[ebp+4], cx
  00036	0f b7 4e 7f	 movzx	 ecx, WORD PTR [esi+127]

; 1405 : 	{
; 1406 : 		if( this->m_FloorData[i].m_iTeamPlayerIndex != OBJ_EMPTY )

  0003a	8d 77 20	 lea	 esi, DWORD PTR [edi+32]
  0003d	83 c4 10	 add	 esp, 16			; 00000010H
  00040	89 55 f2	 mov	 DWORD PTR _pMsg$[ebp+6], edx
  00043	89 45 f6	 mov	 DWORD PTR _pMsg$[ebp+10], eax
  00046	66 89 4d fa	 mov	 WORD PTR _pMsg$[ebp+14], cx
  0004a	bf 0a 00 00 00	 mov	 edi, 10			; 0000000aH
  0004f	90		 npad	 1
$LL5@GCSendPlay:
  00050	8b 06		 mov	 eax, DWORD PTR [esi]
  00052	83 f8 ff	 cmp	 eax, -1
  00055	74 27		 je	 SHORT $LN4@GCSendPlay

; 1407 : 		{
; 1408 : 			if( gObj[this->m_FloorData[i].m_iTeamPlayerIndex].Connected > PLAYER_LOGGED )

  00057	8b 0d 00 00 00
	00		 mov	 ecx, DWORD PTR ?gObj@@3PAUOBJECTSTRUCT@@A ; gObj
  0005d	8b d0		 mov	 edx, eax
  0005f	69 d2 50 2b 00
	00		 imul	 edx, 11088		; 00002b50H
  00065	83 7c 0a 04 02	 cmp	 DWORD PTR [edx+ecx+4], 2
  0006a	7e 12		 jle	 SHORT $LN4@GCSendPlay

; 1409 : 			{
; 1410 : 				DataSend(this->m_FloorData[i].m_iTeamPlayerIndex,(LPBYTE)&pMsg,pMsg.h.size);

  0006c	0f b6 55 ed	 movzx	 edx, BYTE PTR _pMsg$[ebp+1]
  00070	52		 push	 edx
  00071	8d 4d ec	 lea	 ecx, DWORD PTR _pMsg$[ebp]
  00074	51		 push	 ecx
  00075	50		 push	 eax
  00076	e8 00 00 00 00	 call	 ?DataSend@@YAHHPAEK@Z	; DataSend
  0007b	83 c4 0c	 add	 esp, 12			; 0000000cH
$LN4@GCSendPlay:

; 1403 : 
; 1404 : 	for( int i = 0; i < MAX_FLOOR_USER; i++ )

  0007e	83 c6 30	 add	 esi, 48			; 00000030H
  00081	4f		 dec	 edi
  00082	75 cc		 jne	 SHORT $LL5@GCSendPlay

; 1411 : 			}
; 1412 : 		}
; 1413 : 	}
; 1414 : }

  00084	8b 4d fc	 mov	 ecx, DWORD PTR __$ArrayPad$[ebp]
  00087	5f		 pop	 edi
  00088	33 cd		 xor	 ecx, ebp
  0008a	5e		 pop	 esi
  0008b	e8 00 00 00 00	 call	 @__security_check_cookie@4
  00090	8b e5		 mov	 esp, ebp
  00092	5d		 pop	 ebp
  00093	c2 04 00	 ret	 4
?GCSendPlayerRelicsCarrier@CIllusionTempleProcess@@QAEXPAUOBJECTSTRUCT@@@Z ENDP ; CIllusionTempleProcess::GCSendPlayerRelicsCarrier
_TEXT	ENDS
PUBLIC	?TestBattleScene@CIllusionTempleProcess@@QAEXXZ	; CIllusionTempleProcess::TestBattleScene
; Function compile flags: /Ogtp
;	COMDAT ?TestBattleScene@CIllusionTempleProcess@@QAEXXZ
_TEXT	SEGMENT
?TestBattleScene@CIllusionTempleProcess@@QAEXXZ PROC	; CIllusionTempleProcess::TestBattleScene, COMDAT
; _this$ = ecx

; 1418 : 	this->m_iLeftMinutesBeforeOpen = 0;

  00000	c7 81 98 03 00
	00 00 00 00 00	 mov	 DWORD PTR [ecx+920], 0

; 1419 : 	this->m_iEventBattleTimer = 1000;

  0000a	c7 81 9c 03 00
	00 e8 03 00 00	 mov	 DWORD PTR [ecx+924], 1000 ; 000003e8H

; 1420 : }

  00014	c3		 ret	 0
?TestBattleScene@CIllusionTempleProcess@@QAEXXZ ENDP	; CIllusionTempleProcess::TestBattleScene
_TEXT	ENDS
PUBLIC	?SetNPCPosition@CIllusionTempleProcess@@QAEXHH@Z ; CIllusionTempleProcess::SetNPCPosition
; Function compile flags: /Ogtp
;	COMDAT ?SetNPCPosition@CIllusionTempleProcess@@QAEXHH@Z
_TEXT	SEGMENT
_Class$ = 8						; size = 4
_Position$ = 12						; size = 4
?SetNPCPosition@CIllusionTempleProcess@@QAEXHH@Z PROC	; CIllusionTempleProcess::SetNPCPosition, COMDAT
; _this$ = ecx

; 1423 : {

  00000	55		 push	 ebp
  00001	8b ec		 mov	 ebp, esp

; 1424 : 	if(Class == 380)

  00003	8b 45 08	 mov	 eax, DWORD PTR _Class$[ebp]
  00006	3d 7c 01 00 00	 cmp	 eax, 380		; 0000017cH
  0000b	75 32		 jne	 SHORT $LN4@SetNPCPosi

; 1425 : 	{
; 1426 : 		if(this->m_iStatueCount > 2)

  0000d	8b 81 c0 03 00
	00		 mov	 eax, DWORD PTR [ecx+960]
  00013	83 f8 02	 cmp	 eax, 2
  00016	7f 63		 jg	 SHORT $LN1@SetNPCPosi

; 1427 : 		{
; 1428 : 			return;
; 1429 : 		}
; 1430 : 
; 1431 : 		this->m_StatueData[this->m_iStatueCount].m_iStatueIndex = -1;
; 1432 : 		this->m_StatueData[this->m_iStatueCount].m_sStatuePosition = (short)Position;

  00018	66 8b 55 0c	 mov	 dx, WORD PTR _Position$[ebp]
  0001c	c7 84 c1 30 02
	00 00 ff ff ff
	ff		 mov	 DWORD PTR [ecx+eax*8+560], -1
  00027	8b 81 c0 03 00
	00		 mov	 eax, DWORD PTR [ecx+960]
  0002d	66 89 94 c1 34
	02 00 00	 mov	 WORD PTR [ecx+eax*8+564], dx

; 1433 : 
; 1434 : 		this->m_iStatueCount+=1;

  00035	ff 81 c0 03 00
	00		 inc	 DWORD PTR [ecx+960]

; 1449 : 		return;
; 1450 : 	}
; 1451 : }

  0003b	5d		 pop	 ebp
  0003c	c2 08 00	 ret	 8
$LN4@SetNPCPosi:

; 1435 : 		return;
; 1436 : 	}
; 1437 : 
; 1438 : 	if(Class == 383)

  0003f	3d 7f 01 00 00	 cmp	 eax, 383		; 0000017fH
  00044	75 19		 jne	 SHORT $LN2@SetNPCPosi

; 1439 : 	{
; 1440 : 		this->m_iYellowPedestalIndex = -1;
; 1441 : 		this->m_sYellowPedestalPosition = Position;

  00046	66 8b 45 0c	 mov	 ax, WORD PTR _Position$[ebp]
  0004a	c7 81 40 02 00
	00 ff ff ff ff	 mov	 DWORD PTR [ecx+576], -1
  00054	66 89 81 44 02
	00 00		 mov	 WORD PTR [ecx+580], ax

; 1449 : 		return;
; 1450 : 	}
; 1451 : }

  0005b	5d		 pop	 ebp
  0005c	c2 08 00	 ret	 8
$LN2@SetNPCPosi:

; 1442 : 		return;
; 1443 : 	}
; 1444 : 
; 1445 : 	if(Class == 384)

  0005f	3d 80 01 00 00	 cmp	 eax, 384		; 00000180H
  00064	75 15		 jne	 SHORT $LN1@SetNPCPosi

; 1446 : 	{
; 1447 : 		this->m_iBluePedestalIndex = -1;
; 1448 : 		this->m_sBluePedestalPosition = Position;

  00066	66 8b 55 0c	 mov	 dx, WORD PTR _Position$[ebp]
  0006a	c7 81 48 02 00
	00 ff ff ff ff	 mov	 DWORD PTR [ecx+584], -1
  00074	66 89 91 4c 02
	00 00		 mov	 WORD PTR [ecx+588], dx
$LN1@SetNPCPosi:

; 1449 : 		return;
; 1450 : 	}
; 1451 : }

  0007b	5d		 pop	 ebp
  0007c	c2 08 00	 ret	 8
?SetNPCPosition@CIllusionTempleProcess@@QAEXHH@Z ENDP	; CIllusionTempleProcess::SetNPCPosition
_TEXT	ENDS
PUBLIC	?SetMonsterPosition@CIllusionTempleProcess@@QAEXHH@Z ; CIllusionTempleProcess::SetMonsterPosition
; Function compile flags: /Ogtp
;	COMDAT ?SetMonsterPosition@CIllusionTempleProcess@@QAEXHH@Z
_TEXT	SEGMENT
_Class$ = 8						; size = 4
_Position$ = 12						; size = 4
?SetMonsterPosition@CIllusionTempleProcess@@QAEXHH@Z PROC ; CIllusionTempleProcess::SetMonsterPosition, COMDAT
; _this$ = ecx

; 1454 : {

  00000	55		 push	 ebp
  00001	8b ec		 mov	 ebp, esp

; 1455 : 	if(this->m_iMonsterCount > 40)

  00003	8b 81 c4 03 00
	00		 mov	 eax, DWORD PTR [ecx+964]
  00009	83 f8 28	 cmp	 eax, 40			; 00000028H
  0000c	7f 23		 jg	 SHORT $LN2@SetMonster

; 1456 : 	{
; 1457 : 		return;
; 1458 : 	}
; 1459 : 
; 1460 : 	this->m_MonsterData[this->m_iMonsterCount].m_iMonsterIndex = -1;
; 1461 : 	this->m_MonsterData[this->m_iMonsterCount].m_sMonsterPosition = (short)Position;

  0000e	66 8b 55 0c	 mov	 dx, WORD PTR _Position$[ebp]
  00012	c7 84 c1 50 02
	00 00 ff ff ff
	ff		 mov	 DWORD PTR [ecx+eax*8+592], -1
  0001d	8b 81 c4 03 00
	00		 mov	 eax, DWORD PTR [ecx+964]
  00023	66 89 94 c1 54
	02 00 00	 mov	 WORD PTR [ecx+eax*8+596], dx

; 1462 : 
; 1463 : 	this->m_iMonsterCount++;

  0002b	ff 81 c4 03 00
	00		 inc	 DWORD PTR [ecx+964]
$LN2@SetMonster:

; 1464 : }

  00031	5d		 pop	 ebp
  00032	c2 08 00	 ret	 8
?SetMonsterPosition@CIllusionTempleProcess@@QAEXHH@Z ENDP ; CIllusionTempleProcess::SetMonsterPosition
_TEXT	ENDS
PUBLIC	?ClearMonstersData@CIllusionTempleProcess@@QAEXXZ ; CIllusionTempleProcess::ClearMonstersData
; Function compile flags: /Ogtp
;	COMDAT ?ClearMonstersData@CIllusionTempleProcess@@QAEXXZ
_TEXT	SEGMENT
?ClearMonstersData@CIllusionTempleProcess@@QAEXXZ PROC	; CIllusionTempleProcess::ClearMonstersData, COMDAT
; _this$ = ecx

; 1467 : {

  00000	53		 push	 ebx
  00001	56		 push	 esi

; 1468 : 	int i;
; 1469 : 
; 1470 : 	for(i = 0; i< MAX_STATUE_MONSTER; i++)
; 1471 : 	{
; 1472 : 		this->m_StatueData[i].m_iStatueIndex = -1;

  00002	83 ce ff	 or	 esi, -1
  00005	89 b1 30 02 00
	00		 mov	 DWORD PTR [ecx+560], esi

; 1473 : 		this->m_StatueData[i].m_sStatuePosition = -1;

  0000b	8b c6		 mov	 eax, esi
  0000d	66 89 81 34 02
	00 00		 mov	 WORD PTR [ecx+564], ax
  00014	89 b1 38 02 00
	00		 mov	 DWORD PTR [ecx+568], esi
  0001a	8b d6		 mov	 edx, esi
  0001c	66 89 91 3c 02
	00 00		 mov	 WORD PTR [ecx+572], dx

; 1474 : 	}
; 1475 : 
; 1476 : 	this->m_iStatueCount = 0;
; 1477 : 	this->m_iYellowPedestalIndex = -1;
; 1478 : 	this->m_sYellowPedestalPosition = -1;

  00023	66 89 81 44 02
	00 00		 mov	 WORD PTR [ecx+580], ax

; 1479 : 	this->m_iBluePedestalIndex = -1;
; 1480 : 	this->m_sBluePedestalPosition = -1;

  0002a	66 89 91 4c 02
	00 00		 mov	 WORD PTR [ecx+588], dx
  00031	c7 81 c0 03 00
	00 00 00 00 00	 mov	 DWORD PTR [ecx+960], 0
  0003b	89 b1 40 02 00
	00		 mov	 DWORD PTR [ecx+576], esi
  00041	89 b1 48 02 00
	00		 mov	 DWORD PTR [ecx+584], esi
  00047	8d 81 54 02 00
	00		 lea	 eax, DWORD PTR [ecx+596]
  0004d	8d 56 29	 lea	 edx, DWORD PTR [esi+41]
$LL3@ClearMonst:

; 1481 : 
; 1482 : 	for(i = 0; i< MAX_FLOOR_MONSTER; i++)
; 1483 : 	{
; 1484 : 		this->m_MonsterData[i].m_iMonsterIndex = -1;
; 1485 : 		this->m_MonsterData[i].m_sMonsterPosition = -1;

  00050	8b de		 mov	 ebx, esi
  00052	89 70 fc	 mov	 DWORD PTR [eax-4], esi
  00055	66 89 18	 mov	 WORD PTR [eax], bx
  00058	83 c0 08	 add	 eax, 8
  0005b	4a		 dec	 edx
  0005c	75 f2		 jne	 SHORT $LL3@ClearMonst

; 1486 : 	}
; 1487 : 
; 1488 : 	this->m_iMonsterCount = 0;

  0005e	5e		 pop	 esi
  0005f	89 91 c4 03 00
	00		 mov	 DWORD PTR [ecx+964], edx
  00065	5b		 pop	 ebx

; 1489 : }

  00066	c3		 ret	 0
?ClearMonstersData@CIllusionTempleProcess@@QAEXXZ ENDP	; CIllusionTempleProcess::ClearMonstersData
_TEXT	ENDS
PUBLIC	??_C@_0CI@MMAPFAFM@?$FLIllusion?5Temple?$FN?5?$CI?$CFd?$CJ?5Add?5Statu@ ; `string'
PUBLIC	??_C@_0DP@JFMMMCDJ@?$FLIllusion?5Temple?$FN?5?$CI?$CFd?$CJ?5Create?5NP@ ; `string'
PUBLIC	?CreateNPCStatus@CIllusionTempleProcess@@QAEXXZ	; CIllusionTempleProcess::CreateNPCStatus
EXTRN	__imp__GetTickCount@0:PROC
EXTRN	?gObjSetMonster@@YAHHH@Z:PROC			; gObjSetMonster
EXTRN	?gObjSetPosMonster@@YAHHH@Z:PROC		; gObjSetPosMonster
EXTRN	?gObjAddMonster@@YAFH@Z:PROC			; gObjAddMonster
;	COMDAT ??_C@_0CI@MMAPFAFM@?$FLIllusion?5Temple?$FN?5?$CI?$CFd?$CJ?5Add?5Statu@
CONST	SEGMENT
??_C@_0CI@MMAPFAFM@?$FLIllusion?5Temple?$FN?5?$CI?$CFd?$CJ?5Add?5Statu@ DB '['
	DB	'Illusion Temple] (%d) Add Status Error', 00H ; `string'
CONST	ENDS
;	COMDAT ??_C@_0DP@JFMMMCDJ@?$FLIllusion?5Temple?$FN?5?$CI?$CFd?$CJ?5Create?5NP@
CONST	SEGMENT
??_C@_0DP@JFMMMCDJ@?$FLIllusion?5Temple?$FN?5?$CI?$CFd?$CJ?5Create?5NP@ DB '['
	DB	'Illusion Temple] (%d) Create NPC Status Name: %s, (%d: %d/%d)'
	DB	00H						; `string'
; Function compile flags: /Ogtp
CONST	ENDS
;	COMDAT ?CreateNPCStatus@CIllusionTempleProcess@@QAEXXZ
_TEXT	SEGMENT
_i$216409 = -8						; size = 4
tv292 = -4						; size = 4
?CreateNPCStatus@CIllusionTempleProcess@@QAEXXZ PROC	; CIllusionTempleProcess::CreateNPCStatus, COMDAT
; _this$ = ecx

; 1492 : {

  00000	55		 push	 ebp
  00001	8b ec		 mov	 ebp, esp
  00003	83 ec 08	 sub	 esp, 8
  00006	53		 push	 ebx
  00007	8b d9		 mov	 ebx, ecx

; 1493 : 	for( int i = 0; i < this->m_iStatueCount; i++)

  00009	83 bb c0 03 00
	00 00		 cmp	 DWORD PTR [ebx+960], 0
  00010	c7 45 f8 00 00
	00 00		 mov	 DWORD PTR _i$216409[ebp], 0
  00017	0f 8e 15 01 00
	00		 jle	 $LN3@CreateNPCS
  0001d	8d 83 30 02 00
	00		 lea	 eax, DWORD PTR [ebx+560]
  00023	56		 push	 esi
  00024	89 45 fc	 mov	 DWORD PTR tv292[ebp], eax
  00027	57		 push	 edi
  00028	eb 06 8d 9b 00
	00 00 00	 npad	 8
$LL10@CreateNPCS:

; 1494 : 	{
; 1495 : 		int loc3 = gObjAddMonster(this->m_btFloorIndex+MAP_INDEX_ILLUSIONTEMPLE);

  00030	0f b6 8b 2c 02
	00 00		 movzx	 ecx, BYTE PTR [ebx+556]
  00037	83 c1 2d	 add	 ecx, 45			; 0000002dH
  0003a	51		 push	 ecx
  0003b	e8 00 00 00 00	 call	 ?gObjAddMonster@@YAFH@Z	; gObjAddMonster
  00040	0f bf f8	 movsx	 edi, ax
  00043	83 c4 04	 add	 esp, 4

; 1496 : 
; 1497 : 		if(loc3 >= 0)

  00046	85 ff		 test	 edi, edi
  00048	0f 88 b4 00 00
	00		 js	 $LN2@CreateNPCS

; 1498 : 		{
; 1499 : 			::gObjSetPosMonster(loc3, this->m_StatueData[i].m_sStatuePosition);

  0004e	8b 55 fc	 mov	 edx, DWORD PTR tv292[ebp]
  00051	0f bf 42 04	 movsx	 eax, WORD PTR [edx+4]
  00055	50		 push	 eax
  00056	57		 push	 edi
  00057	e8 00 00 00 00	 call	 ?gObjSetPosMonster@@YAHHH@Z ; gObjSetPosMonster

; 1500 : 			::gObjSetMonster(loc3, 380);

  0005c	68 7c 01 00 00	 push	 380			; 0000017cH
  00061	57		 push	 edi
  00062	e8 00 00 00 00	 call	 ?gObjSetMonster@@YAHHH@Z ; gObjSetMonster

; 1501 : 			gObj[loc3].m_PosNum = -1;

  00067	8b 15 00 00 00
	00		 mov	 edx, DWORD PTR ?gObj@@3PAUOBJECTSTRUCT@@A ; gObj
  0006d	8b f7		 mov	 esi, edi
  0006f	69 f6 50 2b 00
	00		 imul	 esi, 11088		; 00002b50H
  00075	83 c9 ff	 or	 ecx, -1
  00078	66 89 8c 16 b0
	03 00 00	 mov	 WORD PTR [esi+edx+944], cx

; 1502 : 			gObj[loc3].Live = 0;

  00080	a1 00 00 00 00	 mov	 eax, DWORD PTR ?gObj@@3PAUOBJECTSTRUCT@@A ; gObj
  00085	c6 44 06 6a 00	 mov	 BYTE PTR [esi+eax+106], 0

; 1503 : 			gObj[loc3].DieRegen = 2;

  0008a	8b 0d 00 00 00
	00		 mov	 ecx, DWORD PTR ?gObj@@3PAUOBJECTSTRUCT@@A ; gObj
  00090	c6 84 0e a2 03
	00 00 02	 mov	 BYTE PTR [esi+ecx+930], 2

; 1504 : 			gObj[loc3].m_State = 4;

  00098	8b 15 00 00 00
	00		 mov	 edx, DWORD PTR ?gObj@@3PAUOBJECTSTRUCT@@A ; gObj
  0009e	83 c4 10	 add	 esp, 16			; 00000010H
  000a1	c7 84 16 20 02
	00 00 04 00 00
	00		 mov	 DWORD PTR [esi+edx+544], 4

; 1505 : 			gObj[loc3].RegenTime = GetTickCount();

  000ac	ff 15 00 00 00
	00		 call	 DWORD PTR __imp__GetTickCount@0
  000b2	8b 0d 00 00 00
	00		 mov	 ecx, DWORD PTR ?gObj@@3PAUOBJECTSTRUCT@@A ; gObj

; 1506 : 			this->m_StatueData[i].m_iStatueIndex = loc3;

  000b8	8b 55 fc	 mov	 edx, DWORD PTR tv292[ebp]
  000bb	89 84 0e a8 03
	00 00		 mov	 DWORD PTR [esi+ecx+936], eax
  000c2	89 3a		 mov	 DWORD PTR [edx], edi

; 1507 : 
; 1508 : 			LogAddTD("[Illusion Temple] (%d) Create NPC Status Name: %s, (%d: %d/%d)", this->m_btFloorIndex+1, gObj[loc3].Name, gObj[loc3].MapNumber, gObj[loc3].X, gObj[loc3].Y);

  000c4	a1 00 00 00 00	 mov	 eax, DWORD PTR ?gObj@@3PAUOBJECTSTRUCT@@A ; gObj
  000c9	0f bf 8c 06 46
	01 00 00	 movsx	 ecx, WORD PTR [esi+eax+326]
  000d1	0f bf 94 06 44
	01 00 00	 movsx	 edx, WORD PTR [esi+eax+324]
  000d9	51		 push	 ecx
  000da	0f b6 8c 06 49
	01 00 00	 movzx	 ecx, BYTE PTR [esi+eax+329]
  000e2	52		 push	 edx
  000e3	8d 54 06 77	 lea	 edx, DWORD PTR [esi+eax+119]
  000e7	0f b6 83 2c 02
	00 00		 movzx	 eax, BYTE PTR [ebx+556]
  000ee	51		 push	 ecx
  000ef	52		 push	 edx
  000f0	40		 inc	 eax
  000f1	50		 push	 eax
  000f2	68 00 00 00 00	 push	 OFFSET ??_C@_0DP@JFMMMCDJ@?$FLIllusion?5Temple?$FN?5?$CI?$CFd?$CJ?5Create?5NP@
  000f7	ff 15 00 00 00
	00		 call	 DWORD PTR ?LogAddTD@@3P6AXPADZZA ; LogAddTD
  000fd	83 c4 18	 add	 esp, 24			; 00000018H

; 1509 : 		}
; 1510 : 		else

  00100	eb 17		 jmp	 SHORT $LN4@CreateNPCS
$LN2@CreateNPCS:

; 1511 : 		{
; 1512 : 			LogAddTD("[Illusion Temple] (%d) Add Status Error", this->m_btFloorIndex+1);

  00102	0f b6 8b 2c 02
	00 00		 movzx	 ecx, BYTE PTR [ebx+556]
  00109	41		 inc	 ecx
  0010a	51		 push	 ecx
  0010b	68 00 00 00 00	 push	 OFFSET ??_C@_0CI@MMAPFAFM@?$FLIllusion?5Temple?$FN?5?$CI?$CFd?$CJ?5Add?5Statu@
  00110	ff 15 00 00 00
	00		 call	 DWORD PTR ?LogAddTD@@3P6AXPADZZA ; LogAddTD
  00116	83 c4 08	 add	 esp, 8
$LN4@CreateNPCS:

; 1493 : 	for( int i = 0; i < this->m_iStatueCount; i++)

  00119	8b 45 f8	 mov	 eax, DWORD PTR _i$216409[ebp]
  0011c	83 45 fc 08	 add	 DWORD PTR tv292[ebp], 8
  00120	40		 inc	 eax
  00121	89 45 f8	 mov	 DWORD PTR _i$216409[ebp], eax
  00124	3b 83 c0 03 00
	00		 cmp	 eax, DWORD PTR [ebx+960]
  0012a	0f 8c 00 ff ff
	ff		 jl	 $LL10@CreateNPCS
  00130	5f		 pop	 edi
  00131	5e		 pop	 esi
$LN3@CreateNPCS:
  00132	5b		 pop	 ebx

; 1513 : 		}
; 1514 : 	}
; 1515 : }

  00133	8b e5		 mov	 esp, ebp
  00135	5d		 pop	 ebp
  00136	c3		 ret	 0
?CreateNPCStatus@CIllusionTempleProcess@@QAEXXZ ENDP	; CIllusionTempleProcess::CreateNPCStatus
_TEXT	ENDS
PUBLIC	??_C@_0DD@CJHIKDCG@?$FLIllusion?5Temple?$FN?5?$CI?$CFd?$CJ?5Add?5Illus@ ; `string'
PUBLIC	??_C@_0EK@PBPNIPFI@?$FLIllusion?5Temple?$FN?5?$CI?$CFd?$CJ?5Create?5NP@ ; `string'
PUBLIC	??_C@_0DB@DDAFNEAA@?$FLIllusion?5Temple?$FN?5?$CI?$CFd?$CJ?5Add?5Allie@ ; `string'
PUBLIC	??_C@_0EI@FFEIEJHB@?$FLIllusion?5Temple?$FN?5?$CI?$CFd?$CJ?5Create?5NP@ ; `string'
PUBLIC	?CreateNPC@CIllusionTempleProcess@@QAEXXZ	; CIllusionTempleProcess::CreateNPC
;	COMDAT ??_C@_0DD@CJHIKDCG@?$FLIllusion?5Temple?$FN?5?$CI?$CFd?$CJ?5Add?5Illus@
CONST	SEGMENT
??_C@_0DD@CJHIKDCG@?$FLIllusion?5Temple?$FN?5?$CI?$CFd?$CJ?5Add?5Illus@ DB '['
	DB	'Illusion Temple] (%d) Add IllusionRelicsBox Error', 00H ; `string'
CONST	ENDS
;	COMDAT ??_C@_0EK@PBPNIPFI@?$FLIllusion?5Temple?$FN?5?$CI?$CFd?$CJ?5Create?5NP@
CONST	SEGMENT
??_C@_0EK@PBPNIPFI@?$FLIllusion?5Temple?$FN?5?$CI?$CFd?$CJ?5Create?5NP@ DB '['
	DB	'Illusion Temple] (%d) Create NPC IllusionRelicsBox Name: %s, '
	DB	'(%d: %d/%d)', 00H				; `string'
CONST	ENDS
;	COMDAT ??_C@_0DB@DDAFNEAA@?$FLIllusion?5Temple?$FN?5?$CI?$CFd?$CJ?5Add?5Allie@
CONST	SEGMENT
??_C@_0DB@DDAFNEAA@?$FLIllusion?5Temple?$FN?5?$CI?$CFd?$CJ?5Add?5Allie@ DB '['
	DB	'Illusion Temple] (%d) Add AlliedRelicsBox Error', 00H ; `string'
CONST	ENDS
;	COMDAT ??_C@_0EI@FFEIEJHB@?$FLIllusion?5Temple?$FN?5?$CI?$CFd?$CJ?5Create?5NP@
CONST	SEGMENT
??_C@_0EI@FFEIEJHB@?$FLIllusion?5Temple?$FN?5?$CI?$CFd?$CJ?5Create?5NP@ DB '['
	DB	'Illusion Temple] (%d) Create NPC AlliedRelicsBox Name: %s, (%'
	DB	'd: %d/%d)', 00H				; `string'
; Function compile flags: /Ogtp
CONST	ENDS
;	COMDAT ?CreateNPC@CIllusionTempleProcess@@QAEXXZ
_TEXT	SEGMENT
?CreateNPC@CIllusionTempleProcess@@QAEXXZ PROC		; CIllusionTempleProcess::CreateNPC, COMDAT
; _this$ = ecx

; 1518 : {

  00000	53		 push	 ebx
  00001	56		 push	 esi
  00002	8b f1		 mov	 esi, ecx

; 1519 : 	int loc2;
; 1520 : 
; 1521 : 	loc2 = gObjAddMonster(this->m_btFloorIndex+MAP_INDEX_ILLUSIONTEMPLE);

  00004	0f b6 86 2c 02
	00 00		 movzx	 eax, BYTE PTR [esi+556]
  0000b	83 c0 2d	 add	 eax, 45			; 0000002dH
  0000e	57		 push	 edi
  0000f	50		 push	 eax
  00010	e8 00 00 00 00	 call	 ?gObjAddMonster@@YAFH@Z	; gObjAddMonster
  00015	0f bf f8	 movsx	 edi, ax
  00018	83 c4 04	 add	 esp, 4

; 1522 : 
; 1523 : 	if(loc2 >= 0)

  0001b	85 ff		 test	 edi, edi
  0001d	0f 88 af 00 00
	00		 js	 $LN4@CreateNPC

; 1524 : 	{
; 1525 : 		::gObjSetPosMonster(loc2, this->m_sYellowPedestalPosition);

  00023	0f bf 8e 44 02
	00 00		 movsx	 ecx, WORD PTR [esi+580]
  0002a	51		 push	 ecx
  0002b	57		 push	 edi
  0002c	e8 00 00 00 00	 call	 ?gObjSetPosMonster@@YAHHH@Z ; gObjSetPosMonster

; 1526 : 		::gObjSetMonster(loc2, 383);

  00031	68 7f 01 00 00	 push	 383			; 0000017fH
  00036	57		 push	 edi
  00037	e8 00 00 00 00	 call	 ?gObjSetMonster@@YAHHH@Z ; gObjSetMonster

; 1527 : 		gObj[loc2].Dir = 1;

  0003c	8b 15 00 00 00
	00		 mov	 edx, DWORD PTR ?gObj@@3PAUOBJECTSTRUCT@@A ; gObj
  00042	8b c7		 mov	 eax, edi
  00044	69 c0 50 2b 00
	00		 imul	 eax, 11088		; 00002b50H
  0004a	bb 01 00 00 00	 mov	 ebx, 1
  0004f	88 9c 10 48 01
	00 00		 mov	 BYTE PTR [eax+edx+328], bl

; 1528 : 		gObj[loc2].m_PosNum = -1;

  00056	8b 15 00 00 00
	00		 mov	 edx, DWORD PTR ?gObj@@3PAUOBJECTSTRUCT@@A ; gObj
  0005c	83 c9 ff	 or	 ecx, -1
  0005f	66 89 8c 10 b0
	03 00 00	 mov	 WORD PTR [eax+edx+944], cx

; 1529 : 		gObj[loc2].Live = 1;

  00067	8b 0d 00 00 00
	00		 mov	 ecx, DWORD PTR ?gObj@@3PAUOBJECTSTRUCT@@A ; gObj
  0006d	88 5c 08 6a	 mov	 BYTE PTR [eax+ecx+106], bl

; 1530 : 		gObj[loc2].DieRegen = 0;

  00071	8b 15 00 00 00
	00		 mov	 edx, DWORD PTR ?gObj@@3PAUOBJECTSTRUCT@@A ; gObj
  00077	c6 84 10 a2 03
	00 00 00	 mov	 BYTE PTR [eax+edx+930], 0

; 1531 : 		gObj[loc2].m_State = 1;

  0007f	8b 0d 00 00 00
	00		 mov	 ecx, DWORD PTR ?gObj@@3PAUOBJECTSTRUCT@@A ; gObj
  00085	89 9c 08 20 02
	00 00		 mov	 DWORD PTR [eax+ecx+544], ebx

; 1532 : 		this->m_iYellowPedestalIndex = loc2;

  0008c	89 be 40 02 00
	00		 mov	 DWORD PTR [esi+576], edi

; 1533 : 
; 1534 : 		LogAddTD("[Illusion Temple] (%d) Create NPC AlliedRelicsBox Name: %s, (%d: %d/%d)", this->m_btFloorIndex+1, gObj[loc2].Name, gObj[loc2].MapNumber, gObj[loc2].X, gObj[loc2].Y);

  00092	8b 0d 00 00 00
	00		 mov	 ecx, DWORD PTR ?gObj@@3PAUOBJECTSTRUCT@@A ; gObj
  00098	0f bf 94 08 46
	01 00 00	 movsx	 edx, WORD PTR [eax+ecx+326]
  000a0	52		 push	 edx
  000a1	0f bf 94 08 44
	01 00 00	 movsx	 edx, WORD PTR [eax+ecx+324]
  000a9	52		 push	 edx
  000aa	0f b6 94 08 49
	01 00 00	 movzx	 edx, BYTE PTR [eax+ecx+329]
  000b2	8d 44 08 77	 lea	 eax, DWORD PTR [eax+ecx+119]
  000b6	0f b6 8e 2c 02
	00 00		 movzx	 ecx, BYTE PTR [esi+556]
  000bd	52		 push	 edx
  000be	50		 push	 eax
  000bf	03 cb		 add	 ecx, ebx
  000c1	51		 push	 ecx
  000c2	68 00 00 00 00	 push	 OFFSET ??_C@_0EI@FFEIEJHB@?$FLIllusion?5Temple?$FN?5?$CI?$CFd?$CJ?5Create?5NP@
  000c7	ff 15 00 00 00
	00		 call	 DWORD PTR ?LogAddTD@@3P6AXPADZZA ; LogAddTD
  000cd	83 c4 28	 add	 esp, 40			; 00000028H

; 1535 : 	}
; 1536 : 	else

  000d0	eb 1d		 jmp	 SHORT $LN3@CreateNPC
$LN4@CreateNPC:

; 1537 : 	{
; 1538 : 		LogAddTD("[Illusion Temple] (%d) Add AlliedRelicsBox Error", this->m_btFloorIndex+1);

  000d2	0f b6 96 2c 02
	00 00		 movzx	 edx, BYTE PTR [esi+556]
  000d9	bb 01 00 00 00	 mov	 ebx, 1
  000de	03 d3		 add	 edx, ebx
  000e0	52		 push	 edx
  000e1	68 00 00 00 00	 push	 OFFSET ??_C@_0DB@DDAFNEAA@?$FLIllusion?5Temple?$FN?5?$CI?$CFd?$CJ?5Add?5Allie@
  000e6	ff 15 00 00 00
	00		 call	 DWORD PTR ?LogAddTD@@3P6AXPADZZA ; LogAddTD
  000ec	83 c4 08	 add	 esp, 8
$LN3@CreateNPC:

; 1539 : 	}
; 1540 : 
; 1541 : 	loc2 = gObjAddMonster(this->m_btFloorIndex+MAP_INDEX_ILLUSIONTEMPLE);

  000ef	0f b6 86 2c 02
	00 00		 movzx	 eax, BYTE PTR [esi+556]
  000f6	83 c0 2d	 add	 eax, 45			; 0000002dH
  000f9	50		 push	 eax
  000fa	e8 00 00 00 00	 call	 ?gObjAddMonster@@YAFH@Z	; gObjAddMonster
  000ff	0f bf f8	 movsx	 edi, ax
  00102	83 c4 04	 add	 esp, 4

; 1542 : 
; 1543 : 	if(loc2 >= 0)

  00105	85 ff		 test	 edi, edi
  00107	0f 88 ac 00 00
	00		 js	 $LN2@CreateNPC

; 1544 : 	{
; 1545 : 		::gObjSetPosMonster(loc2, this->m_sBluePedestalPosition);

  0010d	0f bf 8e 4c 02
	00 00		 movsx	 ecx, WORD PTR [esi+588]
  00114	51		 push	 ecx
  00115	57		 push	 edi
  00116	e8 00 00 00 00	 call	 ?gObjSetPosMonster@@YAHHH@Z ; gObjSetPosMonster

; 1546 : 		::gObjSetMonster(loc2, 384);

  0011b	68 80 01 00 00	 push	 384			; 00000180H
  00120	57		 push	 edi
  00121	e8 00 00 00 00	 call	 ?gObjSetMonster@@YAHHH@Z ; gObjSetMonster

; 1547 : 		gObj[loc2].Dir = 1;

  00126	8b 15 00 00 00
	00		 mov	 edx, DWORD PTR ?gObj@@3PAUOBJECTSTRUCT@@A ; gObj
  0012c	8b c7		 mov	 eax, edi
  0012e	69 c0 50 2b 00
	00		 imul	 eax, 11088		; 00002b50H
  00134	88 9c 10 48 01
	00 00		 mov	 BYTE PTR [eax+edx+328], bl

; 1548 : 		gObj[loc2].m_PosNum = -1;

  0013b	8b 15 00 00 00
	00		 mov	 edx, DWORD PTR ?gObj@@3PAUOBJECTSTRUCT@@A ; gObj
  00141	83 c9 ff	 or	 ecx, -1
  00144	66 89 8c 10 b0
	03 00 00	 mov	 WORD PTR [eax+edx+944], cx

; 1549 : 		gObj[loc2].Live = 1;

  0014c	8b 0d 00 00 00
	00		 mov	 ecx, DWORD PTR ?gObj@@3PAUOBJECTSTRUCT@@A ; gObj
  00152	88 5c 08 6a	 mov	 BYTE PTR [eax+ecx+106], bl

; 1550 : 		gObj[loc2].DieRegen = 0;

  00156	8b 15 00 00 00
	00		 mov	 edx, DWORD PTR ?gObj@@3PAUOBJECTSTRUCT@@A ; gObj
  0015c	c6 84 10 a2 03
	00 00 00	 mov	 BYTE PTR [eax+edx+930], 0

; 1551 : 		gObj[loc2].m_State = 1;

  00164	8b 0d 00 00 00
	00		 mov	 ecx, DWORD PTR ?gObj@@3PAUOBJECTSTRUCT@@A ; gObj
  0016a	89 9c 08 20 02
	00 00		 mov	 DWORD PTR [eax+ecx+544], ebx

; 1552 : 		this->m_iBluePedestalIndex = loc2;

  00171	89 be 48 02 00
	00		 mov	 DWORD PTR [esi+584], edi

; 1553 : 
; 1554 : 		LogAddTD("[Illusion Temple] (%d) Create NPC IllusionRelicsBox Name: %s, (%d: %d/%d)", this->m_btFloorIndex+1, gObj[loc2].Name, gObj[loc2].MapNumber, gObj[loc2].X, gObj[loc2].Y);

  00177	8b 0d 00 00 00
	00		 mov	 ecx, DWORD PTR ?gObj@@3PAUOBJECTSTRUCT@@A ; gObj
  0017d	0f bf 94 08 46
	01 00 00	 movsx	 edx, WORD PTR [eax+ecx+326]
  00185	52		 push	 edx
  00186	0f bf 94 08 44
	01 00 00	 movsx	 edx, WORD PTR [eax+ecx+324]
  0018e	52		 push	 edx
  0018f	0f b6 94 08 49
	01 00 00	 movzx	 edx, BYTE PTR [eax+ecx+329]
  00197	8d 44 08 77	 lea	 eax, DWORD PTR [eax+ecx+119]
  0019b	0f b6 8e 2c 02
	00 00		 movzx	 ecx, BYTE PTR [esi+556]
  001a2	52		 push	 edx
  001a3	50		 push	 eax
  001a4	03 cb		 add	 ecx, ebx
  001a6	51		 push	 ecx
  001a7	68 00 00 00 00	 push	 OFFSET ??_C@_0EK@PBPNIPFI@?$FLIllusion?5Temple?$FN?5?$CI?$CFd?$CJ?5Create?5NP@
  001ac	ff 15 00 00 00
	00		 call	 DWORD PTR ?LogAddTD@@3P6AXPADZZA ; LogAddTD
  001b2	83 c4 28	 add	 esp, 40			; 00000028H
  001b5	5f		 pop	 edi
  001b6	5e		 pop	 esi
  001b7	5b		 pop	 ebx

; 1559 : 	}
; 1560 : }

  001b8	c3		 ret	 0
$LN2@CreateNPC:

; 1555 : 	}
; 1556 : 	else
; 1557 : 	{
; 1558 : 		LogAddTD("[Illusion Temple] (%d) Add IllusionRelicsBox Error", this->m_btFloorIndex+1);

  001b9	0f b6 96 2c 02
	00 00		 movzx	 edx, BYTE PTR [esi+556]
  001c0	03 d3		 add	 edx, ebx
  001c2	52		 push	 edx
  001c3	68 00 00 00 00	 push	 OFFSET ??_C@_0DD@CJHIKDCG@?$FLIllusion?5Temple?$FN?5?$CI?$CFd?$CJ?5Add?5Illus@
  001c8	ff 15 00 00 00
	00		 call	 DWORD PTR ?LogAddTD@@3P6AXPADZZA ; LogAddTD
  001ce	83 c4 08	 add	 esp, 8
  001d1	5f		 pop	 edi
  001d2	5e		 pop	 esi
  001d3	5b		 pop	 ebx

; 1559 : 	}
; 1560 : }

  001d4	c3		 ret	 0
?CreateNPC@CIllusionTempleProcess@@QAEXXZ ENDP		; CIllusionTempleProcess::CreateNPC
_TEXT	ENDS
PUBLIC	??_C@_0CJ@ILDHLMNE@?$FLIllusion?5Temple?$FN?5?$CI?$CFd?$CJ?5Add?5Monst@ ; `string'
PUBLIC	?CreateMonsterToBattle@CIllusionTempleProcess@@QAEXXZ ; CIllusionTempleProcess::CreateMonsterToBattle
EXTRN	?gMSetBase@@3VCMonsterSetBase@@A:BYTE		; gMSetBase
;	COMDAT ??_C@_0CJ@ILDHLMNE@?$FLIllusion?5Temple?$FN?5?$CI?$CFd?$CJ?5Add?5Monst@
CONST	SEGMENT
??_C@_0CJ@ILDHLMNE@?$FLIllusion?5Temple?$FN?5?$CI?$CFd?$CJ?5Add?5Monst@ DB '['
	DB	'Illusion Temple] (%d) Add Monster Error', 00H ; `string'
; Function compile flags: /Ogtp
CONST	ENDS
;	COMDAT ?CreateMonsterToBattle@CIllusionTempleProcess@@QAEXXZ
_TEXT	SEGMENT
_this$ = -8						; size = 4
_i$216433 = -4						; size = 4
?CreateMonsterToBattle@CIllusionTempleProcess@@QAEXXZ PROC ; CIllusionTempleProcess::CreateMonsterToBattle, COMDAT
; _this$ = ecx

; 1563 : {

  00000	55		 push	 ebp
  00001	8b ec		 mov	 ebp, esp
  00003	83 ec 08	 sub	 esp, 8
  00006	56		 push	 esi
  00007	8b f1		 mov	 esi, ecx

; 1564 : 	for( int i = 0; i < this->m_iMonsterCount; i++)

  00009	83 be c4 03 00
	00 00		 cmp	 DWORD PTR [esi+964], 0
  00010	89 75 f8	 mov	 DWORD PTR _this$[ebp], esi
  00013	c7 45 fc 00 00
	00 00		 mov	 DWORD PTR _i$216433[ebp], 0
  0001a	0f 8e e8 00 00
	00		 jle	 $LN3@CreateMons
  00020	53		 push	 ebx
  00021	57		 push	 edi
  00022	8d 9e 54 02 00
	00		 lea	 ebx, DWORD PTR [esi+596]
  00028	eb 06 8d 9b 00
	00 00 00	 npad	 8
$LL5@CreateMons:

; 1565 : 	{
; 1566 : 		int loc3 = gObjAddMonster(this->m_btFloorIndex+MAP_INDEX_ILLUSIONTEMPLE);

  00030	0f b6 86 2c 02
	00 00		 movzx	 eax, BYTE PTR [esi+556]
  00037	83 c0 2d	 add	 eax, 45			; 0000002dH
  0003a	50		 push	 eax
  0003b	e8 00 00 00 00	 call	 ?gObjAddMonster@@YAFH@Z	; gObjAddMonster
  00040	0f bf f8	 movsx	 edi, ax
  00043	83 c4 04	 add	 esp, 4

; 1567 : 
; 1568 : 		if(loc3 >= 0)

  00046	85 ff		 test	 edi, edi
  00048	0f 88 8b 00 00
	00		 js	 $LN2@CreateMons

; 1569 : 		{
; 1570 : 			::gObjSetPosMonster(loc3, this->m_MonsterData[i].m_sMonsterPosition);

  0004e	0f bf 0b	 movsx	 ecx, WORD PTR [ebx]
  00051	51		 push	 ecx
  00052	57		 push	 edi
  00053	e8 00 00 00 00	 call	 ?gObjSetPosMonster@@YAHHH@Z ; gObjSetPosMonster

; 1571 : 			::gObjSetMonster(loc3, gMSetBase.m_Mp[this->m_MonsterData[i].m_sMonsterPosition].m_Type);

  00058	0f bf 13	 movsx	 edx, WORD PTR [ebx]
  0005b	c1 e2 04	 shl	 edx, 4
  0005e	0f b7 82 06 00
	00 00		 movzx	 eax, WORD PTR ?gMSetBase@@3VCMonsterSetBase@@A[edx+6]
  00065	50		 push	 eax
  00066	57		 push	 edi
  00067	e8 00 00 00 00	 call	 ?gObjSetMonster@@YAHHH@Z ; gObjSetMonster

; 1572 : 			gObj[loc3].Dir = 1;

  0006c	8b 0d 00 00 00
	00		 mov	 ecx, DWORD PTR ?gObj@@3PAUOBJECTSTRUCT@@A ; gObj
  00072	8b f7		 mov	 esi, edi
  00074	69 f6 50 2b 00
	00		 imul	 esi, 11088		; 00002b50H
  0007a	c6 84 0e 48 01
	00 00 01	 mov	 BYTE PTR [esi+ecx+328], 1

; 1573 : 			gObj[loc3].m_PosNum = -1;

  00082	a1 00 00 00 00	 mov	 eax, DWORD PTR ?gObj@@3PAUOBJECTSTRUCT@@A ; gObj
  00087	83 ca ff	 or	 edx, -1
  0008a	66 89 94 06 b0
	03 00 00	 mov	 WORD PTR [esi+eax+944], dx

; 1574 : 			gObj[loc3].Live = 0;

  00092	8b 0d 00 00 00
	00		 mov	 ecx, DWORD PTR ?gObj@@3PAUOBJECTSTRUCT@@A ; gObj
  00098	c6 44 0e 6a 00	 mov	 BYTE PTR [esi+ecx+106], 0

; 1575 : 			gObj[loc3].DieRegen = 0;

  0009d	8b 15 00 00 00
	00		 mov	 edx, DWORD PTR ?gObj@@3PAUOBJECTSTRUCT@@A ; gObj
  000a3	c6 84 16 a2 03
	00 00 00	 mov	 BYTE PTR [esi+edx+930], 0

; 1576 : 			gObj[loc3].m_State = 4;

  000ab	a1 00 00 00 00	 mov	 eax, DWORD PTR ?gObj@@3PAUOBJECTSTRUCT@@A ; gObj
  000b0	83 c4 10	 add	 esp, 16			; 00000010H
  000b3	c7 84 06 20 02
	00 00 04 00 00
	00		 mov	 DWORD PTR [esi+eax+544], 4

; 1577 : 			gObj[loc3].RegenTime = GetTickCount();

  000be	ff 15 00 00 00
	00		 call	 DWORD PTR __imp__GetTickCount@0
  000c4	8b 0d 00 00 00
	00		 mov	 ecx, DWORD PTR ?gObj@@3PAUOBJECTSTRUCT@@A ; gObj
  000ca	89 84 0e a8 03
	00 00		 mov	 DWORD PTR [esi+ecx+936], eax

; 1578 : 			this->m_MonsterData[i].m_iMonsterIndex = loc3;
; 1579 : 		}
; 1580 : 		else

  000d1	8b 75 f8	 mov	 esi, DWORD PTR _this$[ebp]
  000d4	89 7b fc	 mov	 DWORD PTR [ebx-4], edi
  000d7	eb 17		 jmp	 SHORT $LN4@CreateMons
$LN2@CreateMons:

; 1581 : 		{
; 1582 : 			LogAddTD("[Illusion Temple] (%d) Add Monster Error", this->m_btFloorIndex+1);

  000d9	0f b6 96 2c 02
	00 00		 movzx	 edx, BYTE PTR [esi+556]
  000e0	42		 inc	 edx
  000e1	52		 push	 edx
  000e2	68 00 00 00 00	 push	 OFFSET ??_C@_0CJ@ILDHLMNE@?$FLIllusion?5Temple?$FN?5?$CI?$CFd?$CJ?5Add?5Monst@
  000e7	ff 15 00 00 00
	00		 call	 DWORD PTR ?LogAddTD@@3P6AXPADZZA ; LogAddTD
  000ed	83 c4 08	 add	 esp, 8
$LN4@CreateMons:

; 1564 : 	for( int i = 0; i < this->m_iMonsterCount; i++)

  000f0	8b 45 fc	 mov	 eax, DWORD PTR _i$216433[ebp]
  000f3	40		 inc	 eax
  000f4	83 c3 08	 add	 ebx, 8
  000f7	89 45 fc	 mov	 DWORD PTR _i$216433[ebp], eax
  000fa	3b 86 c4 03 00
	00		 cmp	 eax, DWORD PTR [esi+964]
  00100	0f 8c 2a ff ff
	ff		 jl	 $LL5@CreateMons
  00106	5f		 pop	 edi
  00107	5b		 pop	 ebx
$LN3@CreateMons:
  00108	5e		 pop	 esi

; 1583 : 		}
; 1584 : 	}
; 1585 : }

  00109	8b e5		 mov	 esp, ebp
  0010b	5d		 pop	 ebp
  0010c	c3		 ret	 0
?CreateMonsterToBattle@CIllusionTempleProcess@@QAEXXZ ENDP ; CIllusionTempleProcess::CreateMonsterToBattle
_TEXT	ENDS
PUBLIC	??_C@_0CJ@NGMJKIGG@?$FLIllusion?5Temple?$FN?5?$CI?$CFd?$CJ?5Remove?5Al@ ; `string'
PUBLIC	??_C@_0EF@COBKKPEE@?$FLIllusion?5Temple?$FN?5?$CI?$CFd?$CJ?5RemoveIll@ ; `string'
PUBLIC	??_C@_0ED@JCDEDHOA@?$FLIllusion?5Temple?$FN?5?$CI?$CFd?$CJ?5RemoveAll@ ; `string'
PUBLIC	??_C@_0DK@GOBHOKIP@?$FLIllusion?5Temple?$FN?5?$CI?$CFd?$CJ?5RemoveSta@ ; `string'
PUBLIC	?ClearAllBattleObjects@CIllusionTempleProcess@@QAEXXZ ; CIllusionTempleProcess::ClearAllBattleObjects
EXTRN	?gObjDel@@YAFH@Z:PROC				; gObjDel
;	COMDAT ??_C@_0CJ@NGMJKIGG@?$FLIllusion?5Temple?$FN?5?$CI?$CFd?$CJ?5Remove?5Al@
CONST	SEGMENT
??_C@_0CJ@NGMJKIGG@?$FLIllusion?5Temple?$FN?5?$CI?$CFd?$CJ?5Remove?5Al@ DB '['
	DB	'Illusion Temple] (%d) Remove All Object', 00H ; `string'
CONST	ENDS
;	COMDAT ??_C@_0EF@COBKKPEE@?$FLIllusion?5Temple?$FN?5?$CI?$CFd?$CJ?5RemoveIll@
CONST	SEGMENT
??_C@_0EF@COBKKPEE@?$FLIllusion?5Temple?$FN?5?$CI?$CFd?$CJ?5RemoveIll@ DB '['
	DB	'Illusion Temple] (%d) RemoveIllusionRelicsBox Name: %s, (%d: '
	DB	'%d/%d)', 00H				; `string'
CONST	ENDS
;	COMDAT ??_C@_0ED@JCDEDHOA@?$FLIllusion?5Temple?$FN?5?$CI?$CFd?$CJ?5RemoveAll@
CONST	SEGMENT
??_C@_0ED@JCDEDHOA@?$FLIllusion?5Temple?$FN?5?$CI?$CFd?$CJ?5RemoveAll@ DB '['
	DB	'Illusion Temple] (%d) RemoveAlliedRelicsBox Name: %s, (%d: %d'
	DB	'/%d)', 00H					; `string'
CONST	ENDS
;	COMDAT ??_C@_0DK@GOBHOKIP@?$FLIllusion?5Temple?$FN?5?$CI?$CFd?$CJ?5RemoveSta@
CONST	SEGMENT
??_C@_0DK@GOBHOKIP@?$FLIllusion?5Temple?$FN?5?$CI?$CFd?$CJ?5RemoveSta@ DB '['
	DB	'Illusion Temple] (%d) RemoveStatus Name: %s, (%d: %d/%d)', 00H ; `string'
; Function compile flags: /Ogtp
CONST	ENDS
;	COMDAT ?ClearAllBattleObjects@CIllusionTempleProcess@@QAEXXZ
_TEXT	SEGMENT
?ClearAllBattleObjects@CIllusionTempleProcess@@QAEXXZ PROC ; CIllusionTempleProcess::ClearAllBattleObjects, COMDAT
; _this$ = ecx

; 1588 : {

  00000	53		 push	 ebx
  00001	56		 push	 esi
  00002	8b f1		 mov	 esi, ecx

; 1589 : 	int i;
; 1590 : 
; 1591 : 	for(i = 0; i < this->m_iStatueCount; i++)

  00004	33 db		 xor	 ebx, ebx
  00006	57		 push	 edi
  00007	39 9e c0 03 00
	00		 cmp	 DWORD PTR [esi+960], ebx
  0000d	7e 66		 jle	 SHORT $LN18@ClearAllBa
  0000f	8d be 30 02 00
	00		 lea	 edi, DWORD PTR [esi+560]
$LL10@ClearAllBa:

; 1592 : 	{
; 1593 : 		if(this->m_StatueData[i].m_iStatueIndex != -1)

  00015	8b 07		 mov	 eax, DWORD PTR [edi]
  00017	83 f8 ff	 cmp	 eax, -1
  0001a	74 4d		 je	 SHORT $LN9@ClearAllBa

; 1594 : 		{
; 1595 : 			LogAddTD("[Illusion Temple] (%d) RemoveStatus Name: %s, (%d: %d/%d)",this->m_btFloorIndex+1, gObj[this->m_StatueData[i].m_iStatueIndex].Name, gObj[this->m_StatueData[i].m_iStatueIndex].MapNumber, gObj[this->m_StatueData[i].m_iStatueIndex].X, gObj[this->m_StatueData[i].m_iStatueIndex].Y);

  0001c	69 c0 50 2b 00
	00		 imul	 eax, 11088		; 00002b50H
  00022	03 05 00 00 00
	00		 add	 eax, DWORD PTR ?gObj@@3PAUOBJECTSTRUCT@@A ; gObj
  00028	0f bf 90 46 01
	00 00		 movsx	 edx, WORD PTR [eax+326]
  0002f	0f bf 88 44 01
	00 00		 movsx	 ecx, WORD PTR [eax+324]
  00036	52		 push	 edx
  00037	0f b6 90 49 01
	00 00		 movzx	 edx, BYTE PTR [eax+329]
  0003e	51		 push	 ecx
  0003f	52		 push	 edx
  00040	83 c0 77	 add	 eax, 119		; 00000077H
  00043	50		 push	 eax
  00044	0f b6 86 2c 02
	00 00		 movzx	 eax, BYTE PTR [esi+556]
  0004b	40		 inc	 eax
  0004c	50		 push	 eax
  0004d	68 00 00 00 00	 push	 OFFSET ??_C@_0DK@GOBHOKIP@?$FLIllusion?5Temple?$FN?5?$CI?$CFd?$CJ?5RemoveSta@
  00052	ff 15 00 00 00
	00		 call	 DWORD PTR ?LogAddTD@@3P6AXPADZZA ; LogAddTD

; 1596 : 			gObjDel(this->m_StatueData[i].m_iStatueIndex);

  00058	8b 0f		 mov	 ecx, DWORD PTR [edi]
  0005a	51		 push	 ecx
  0005b	e8 00 00 00 00	 call	 ?gObjDel@@YAFH@Z	; gObjDel
  00060	83 c4 1c	 add	 esp, 28			; 0000001cH

; 1597 : 			this->m_StatueData[i].m_iStatueIndex = -1;

  00063	c7 07 ff ff ff
	ff		 mov	 DWORD PTR [edi], -1
$LN9@ClearAllBa:

; 1589 : 	int i;
; 1590 : 
; 1591 : 	for(i = 0; i < this->m_iStatueCount; i++)

  00069	43		 inc	 ebx
  0006a	83 c7 08	 add	 edi, 8
  0006d	3b 9e c0 03 00
	00		 cmp	 ebx, DWORD PTR [esi+960]
  00073	7c a0		 jl	 SHORT $LL10@ClearAllBa
$LN18@ClearAllBa:

; 1598 : 		}
; 1599 : 	}
; 1600 : 
; 1601 : 	if(this->m_iYellowPedestalIndex != -1)

  00075	8b 86 40 02 00
	00		 mov	 eax, DWORD PTR [esi+576]
  0007b	83 f8 ff	 cmp	 eax, -1
  0007e	74 55		 je	 SHORT $LN19@ClearAllBa

; 1602 : 	{
; 1603 : 		LogAddTD("[Illusion Temple] (%d) RemoveAlliedRelicsBox Name: %s, (%d: %d/%d)",this->m_btFloorIndex+1, gObj[this->m_iYellowPedestalIndex].Name, gObj[this->m_iYellowPedestalIndex].MapNumber, gObj[this->m_iYellowPedestalIndex].X, gObj[this->m_iYellowPedestalIndex].Y);

  00080	69 c0 50 2b 00
	00		 imul	 eax, 11088		; 00002b50H
  00086	03 05 00 00 00
	00		 add	 eax, DWORD PTR ?gObj@@3PAUOBJECTSTRUCT@@A ; gObj
  0008c	0f bf 88 46 01
	00 00		 movsx	 ecx, WORD PTR [eax+326]
  00093	0f bf 90 44 01
	00 00		 movsx	 edx, WORD PTR [eax+324]
  0009a	51		 push	 ecx
  0009b	0f b6 88 49 01
	00 00		 movzx	 ecx, BYTE PTR [eax+329]
  000a2	52		 push	 edx
  000a3	0f b6 96 2c 02
	00 00		 movzx	 edx, BYTE PTR [esi+556]
  000aa	51		 push	 ecx
  000ab	83 c0 77	 add	 eax, 119		; 00000077H
  000ae	50		 push	 eax
  000af	42		 inc	 edx
  000b0	52		 push	 edx
  000b1	68 00 00 00 00	 push	 OFFSET ??_C@_0ED@JCDEDHOA@?$FLIllusion?5Temple?$FN?5?$CI?$CFd?$CJ?5RemoveAll@
  000b6	ff 15 00 00 00
	00		 call	 DWORD PTR ?LogAddTD@@3P6AXPADZZA ; LogAddTD

; 1604 : 		gObjDel(this->m_iYellowPedestalIndex);

  000bc	8b 86 40 02 00
	00		 mov	 eax, DWORD PTR [esi+576]
  000c2	50		 push	 eax
  000c3	e8 00 00 00 00	 call	 ?gObjDel@@YAFH@Z	; gObjDel
  000c8	83 c4 1c	 add	 esp, 28			; 0000001cH

; 1605 : 		this->m_iYellowPedestalIndex = -1;

  000cb	c7 86 40 02 00
	00 ff ff ff ff	 mov	 DWORD PTR [esi+576], -1
$LN19@ClearAllBa:

; 1606 : 	}
; 1607 : 
; 1608 : 	if(this->m_iBluePedestalIndex != -1)

  000d5	8b 86 48 02 00
	00		 mov	 eax, DWORD PTR [esi+584]
  000db	83 f8 ff	 cmp	 eax, -1
  000de	74 55		 je	 SHORT $LN5@ClearAllBa

; 1609 : 	{
; 1610 : 		LogAddTD("[Illusion Temple] (%d) RemoveIllusionRelicsBox Name: %s, (%d: %d/%d)",this->m_btFloorIndex+1, gObj[this->m_iBluePedestalIndex].Name, gObj[this->m_iBluePedestalIndex].MapNumber, gObj[this->m_iBluePedestalIndex].X, gObj[this->m_iBluePedestalIndex].Y);

  000e0	69 c0 50 2b 00
	00		 imul	 eax, 11088		; 00002b50H
  000e6	03 05 00 00 00
	00		 add	 eax, DWORD PTR ?gObj@@3PAUOBJECTSTRUCT@@A ; gObj
  000ec	0f bf 90 46 01
	00 00		 movsx	 edx, WORD PTR [eax+326]
  000f3	0f bf 88 44 01
	00 00		 movsx	 ecx, WORD PTR [eax+324]
  000fa	52		 push	 edx
  000fb	0f b6 90 49 01
	00 00		 movzx	 edx, BYTE PTR [eax+329]
  00102	51		 push	 ecx
  00103	52		 push	 edx
  00104	83 c0 77	 add	 eax, 119		; 00000077H
  00107	50		 push	 eax
  00108	0f b6 86 2c 02
	00 00		 movzx	 eax, BYTE PTR [esi+556]
  0010f	40		 inc	 eax
  00110	50		 push	 eax
  00111	68 00 00 00 00	 push	 OFFSET ??_C@_0EF@COBKKPEE@?$FLIllusion?5Temple?$FN?5?$CI?$CFd?$CJ?5RemoveIll@
  00116	ff 15 00 00 00
	00		 call	 DWORD PTR ?LogAddTD@@3P6AXPADZZA ; LogAddTD

; 1611 : 		gObjDel(this->m_iBluePedestalIndex);

  0011c	8b 8e 48 02 00
	00		 mov	 ecx, DWORD PTR [esi+584]
  00122	51		 push	 ecx
  00123	e8 00 00 00 00	 call	 ?gObjDel@@YAFH@Z	; gObjDel
  00128	83 c4 1c	 add	 esp, 28			; 0000001cH

; 1612 : 		this->m_iBluePedestalIndex = -1;

  0012b	c7 86 48 02 00
	00 ff ff ff ff	 mov	 DWORD PTR [esi+584], -1
$LN5@ClearAllBa:

; 1613 : 	}
; 1614 : 
; 1615 : 	for(i = 0; i < this->m_iMonsterCount; i++)

  00135	33 db		 xor	 ebx, ebx
  00137	39 9e c4 03 00
	00		 cmp	 DWORD PTR [esi+964], ebx
  0013d	7e 28		 jle	 SHORT $LN2@ClearAllBa
  0013f	8d be 50 02 00
	00		 lea	 edi, DWORD PTR [esi+592]
$LL4@ClearAllBa:

; 1616 : 	{
; 1617 : 		if(this->m_MonsterData[i].m_iMonsterIndex != -1)

  00145	8b 07		 mov	 eax, DWORD PTR [edi]
  00147	83 f8 ff	 cmp	 eax, -1
  0014a	74 0f		 je	 SHORT $LN3@ClearAllBa

; 1618 : 		{
; 1619 : 			gObjDel(this->m_MonsterData[i].m_iMonsterIndex);

  0014c	50		 push	 eax
  0014d	e8 00 00 00 00	 call	 ?gObjDel@@YAFH@Z	; gObjDel
  00152	83 c4 04	 add	 esp, 4

; 1620 : 			this->m_MonsterData[i].m_iMonsterIndex = -1;

  00155	c7 07 ff ff ff
	ff		 mov	 DWORD PTR [edi], -1
$LN3@ClearAllBa:

; 1613 : 	}
; 1614 : 
; 1615 : 	for(i = 0; i < this->m_iMonsterCount; i++)

  0015b	43		 inc	 ebx
  0015c	83 c7 08	 add	 edi, 8
  0015f	3b 9e c4 03 00
	00		 cmp	 ebx, DWORD PTR [esi+964]
  00165	7c de		 jl	 SHORT $LL4@ClearAllBa
$LN2@ClearAllBa:

; 1621 : 		}
; 1622 : 	}
; 1623 : 
; 1624 : 	LogAddTD("[Illusion Temple] (%d) Remove All Object", this->m_btFloorIndex+1);

  00167	0f b6 96 2c 02
	00 00		 movzx	 edx, BYTE PTR [esi+556]
  0016e	42		 inc	 edx
  0016f	52		 push	 edx
  00170	68 00 00 00 00	 push	 OFFSET ??_C@_0CJ@NGMJKIGG@?$FLIllusion?5Temple?$FN?5?$CI?$CFd?$CJ?5Remove?5Al@
  00175	ff 15 00 00 00
	00		 call	 DWORD PTR ?LogAddTD@@3P6AXPADZZA ; LogAddTD
  0017b	83 c4 08	 add	 esp, 8
  0017e	5f		 pop	 edi
  0017f	5e		 pop	 esi
  00180	5b		 pop	 ebx

; 1625 : }

  00181	c3		 ret	 0
?ClearAllBattleObjects@CIllusionTempleProcess@@QAEXXZ ENDP ; CIllusionTempleProcess::ClearAllBattleObjects
_TEXT	ENDS
PUBLIC	?SetNpcStatueRegen@CIllusionTempleProcess@@QAEXXZ ; CIllusionTempleProcess::SetNpcStatueRegen
; Function compile flags: /Ogtp
;	COMDAT ?SetNpcStatueRegen@CIllusionTempleProcess@@QAEXXZ
_TEXT	SEGMENT
?SetNpcStatueRegen@CIllusionTempleProcess@@QAEXXZ PROC	; CIllusionTempleProcess::SetNpcStatueRegen, COMDAT
; _this$ = ecx

; 1628 : {

  00000	56		 push	 esi
  00001	8b f1		 mov	 esi, ecx

; 1629 : 	this->m_iStatueRegenTickCount = 5000 + GetTickCount(); //Appear after 5 seconds

  00003	ff 15 00 00 00
	00		 call	 DWORD PTR __imp__GetTickCount@0
  00009	05 88 13 00 00	 add	 eax, 5000		; 00001388H
  0000e	89 86 94 03 00
	00		 mov	 DWORD PTR [esi+916], eax
  00014	5e		 pop	 esi

; 1630 : }

  00015	c3		 ret	 0
?SetNpcStatueRegen@CIllusionTempleProcess@@QAEXXZ ENDP	; CIllusionTempleProcess::SetNpcStatueRegen
_TEXT	ENDS
PUBLIC	??_C@_0FD@FFJHAHAN@?$FLIllusion?5Temple?$FN?5?$CI?$CFd?$CJ?5RegenStat@ ; `string'
PUBLIC	?RegenNPCStatus@CIllusionTempleProcess@@QAEXXZ	; CIllusionTempleProcess::RegenNPCStatus
EXTRN	_rand:PROC
;	COMDAT ??_C@_0FD@FFJHAHAN@?$FLIllusion?5Temple?$FN?5?$CI?$CFd?$CJ?5RegenStat@
CONST	SEGMENT
??_C@_0FD@FFJHAHAN@?$FLIllusion?5Temple?$FN?5?$CI?$CFd?$CJ?5RegenStat@ DB '['
	DB	'Illusion Temple] (%d) RegenStatus Name: %s, (%d: %d/%d), PosN'
	DB	'um(%d), connected:%d', 00H			; `string'
; Function compile flags: /Ogtp
CONST	ENDS
;	COMDAT ?RegenNPCStatus@CIllusionTempleProcess@@QAEXXZ
_TEXT	SEGMENT
?RegenNPCStatus@CIllusionTempleProcess@@QAEXXZ PROC	; CIllusionTempleProcess::RegenNPCStatus, COMDAT
; _this$ = ecx

; 1633 : {

  00000	56		 push	 esi
  00001	8b f1		 mov	 esi, ecx

; 1634 : 	if(this->m_iBallPlayerIndex >= 0)

  00003	83 be b8 03 00
	00 00		 cmp	 DWORD PTR [esi+952], 0
  0000a	0f 8d 83 00 00
	00		 jge	 $LN3@RegenNPCSt

; 1635 : 	{
; 1636 : 		return;
; 1637 : 	}
; 1638 : 
; 1639 : 	int loc2 = rand()%this->m_iStatueCount;

  00010	e8 00 00 00 00	 call	 _rand
  00015	99		 cdq
  00016	f7 be c0 03 00
	00		 idiv	 DWORD PTR [esi+960]

; 1640 : 
; 1641 : 	if(this->m_StatueData[loc2].m_iStatueIndex == -1)

  0001c	8b 84 d6 30 02
	00 00		 mov	 eax, DWORD PTR [esi+edx*8+560]
  00023	83 f8 ff	 cmp	 eax, -1
  00026	74 6b		 je	 SHORT $LN3@RegenNPCSt

; 1642 : 	{
; 1643 : 		return;
; 1644 : 	}
; 1645 : 
; 1646 : 	LPOBJ lpObj = &gObj[this->m_StatueData[loc2].m_iStatueIndex];
; 1647 : 
; 1648 : 	lpObj->m_PosNum = this->m_StatueData[loc2].m_sStatuePosition;

  00028	66 8b 8c d6 34
	02 00 00	 mov	 cx, WORD PTR [esi+edx*8+564]
  00030	69 c0 50 2b 00
	00		 imul	 eax, 11088		; 00002b50H
  00036	03 05 00 00 00
	00		 add	 eax, DWORD PTR ?gObj@@3PAUOBJECTSTRUCT@@A ; gObj
  0003c	66 89 88 b0 03
	00 00		 mov	 WORD PTR [eax+944], cx

; 1649 : 	lpObj->DieRegen = 2;

  00043	c6 80 a2 03 00
	00 02		 mov	 BYTE PTR [eax+930], 2

; 1650 : 	this->m_iStatueRegenTickCount = -1;

  0004a	c7 86 94 03 00
	00 ff ff ff ff	 mov	 DWORD PTR [esi+916], -1

; 1651 : 
; 1652 : 	LogAddTD("[Illusion Temple] (%d) RegenStatus Name: %s, (%d: %d/%d), PosNum(%d), connected:%d", this->m_btFloorIndex+1, lpObj->Name, lpObj->MapNumber, lpObj->X, lpObj->Y, lpObj->m_PosNum, lpObj->Connected);

  00054	8b 50 04	 mov	 edx, DWORD PTR [eax+4]
  00057	0f bf 88 b0 03
	00 00		 movsx	 ecx, WORD PTR [eax+944]
  0005e	52		 push	 edx
  0005f	0f bf 90 46 01
	00 00		 movsx	 edx, WORD PTR [eax+326]
  00066	51		 push	 ecx
  00067	0f bf 88 44 01
	00 00		 movsx	 ecx, WORD PTR [eax+324]
  0006e	52		 push	 edx
  0006f	0f b6 90 49 01
	00 00		 movzx	 edx, BYTE PTR [eax+329]
  00076	51		 push	 ecx
  00077	52		 push	 edx
  00078	83 c0 77	 add	 eax, 119		; 00000077H
  0007b	50		 push	 eax
  0007c	0f b6 86 2c 02
	00 00		 movzx	 eax, BYTE PTR [esi+556]
  00083	40		 inc	 eax
  00084	50		 push	 eax
  00085	68 00 00 00 00	 push	 OFFSET ??_C@_0FD@FFJHAHAN@?$FLIllusion?5Temple?$FN?5?$CI?$CFd?$CJ?5RegenStat@
  0008a	ff 15 00 00 00
	00		 call	 DWORD PTR ?LogAddTD@@3P6AXPADZZA ; LogAddTD
  00090	83 c4 20	 add	 esp, 32			; 00000020H
$LN3@RegenNPCSt:
  00093	5e		 pop	 esi

; 1653 : }

  00094	c3		 ret	 0
?RegenNPCStatus@CIllusionTempleProcess@@QAEXXZ ENDP	; CIllusionTempleProcess::RegenNPCStatus
_TEXT	ENDS
PUBLIC	?SetBattleMonstersReady@CIllusionTempleProcess@@QAEXXZ ; CIllusionTempleProcess::SetBattleMonstersReady
; Function compile flags: /Ogtp
;	COMDAT ?SetBattleMonstersReady@CIllusionTempleProcess@@QAEXXZ
_TEXT	SEGMENT
tv1306 = -4						; size = 4
?SetBattleMonstersReady@CIllusionTempleProcess@@QAEXXZ PROC ; CIllusionTempleProcess::SetBattleMonstersReady, COMDAT
; _this$ = ecx

; 1656 : {

  00000	55		 push	 ebp
  00001	8b ec		 mov	 ebp, esp
  00003	51		 push	 ecx
  00004	53		 push	 ebx
  00005	56		 push	 esi

; 1657 : 	for(int i = 0; i < MAX_FLOOR_MONSTER; i++)

  00006	8d 81 50 02 00
	00		 lea	 eax, DWORD PTR [ecx+592]
  0000c	8b 0d 00 00 00
	00		 mov	 ecx, DWORD PTR ?gObj@@3PAUOBJECTSTRUCT@@A ; gObj
  00012	57		 push	 edi
  00013	c7 45 fc 08 00
	00 00		 mov	 DWORD PTR tv1306[ebp], 8
  0001a	83 ce ff	 or	 esi, -1
  0001d	b3 02		 mov	 bl, 2
  0001f	90		 npad	 1
$LL4@SetBattleM:

; 1658 : 	{
; 1659 : 		if(this->m_MonsterData[i].m_iMonsterIndex != -1 && gObj[this->m_MonsterData[i].m_iMonsterIndex].m_PosNum == -1)

  00020	8b 10		 mov	 edx, DWORD PTR [eax]
  00022	3b d6		 cmp	 edx, esi
  00024	74 3f		 je	 SHORT $LN3@SetBattleM
  00026	69 d2 50 2b 00
	00		 imul	 edx, 11088		; 00002b50H
  0002c	66 39 b4 0a b0
	03 00 00	 cmp	 WORD PTR [edx+ecx+944], si
  00034	75 2f		 jne	 SHORT $LN3@SetBattleM

; 1660 : 		{
; 1661 : 			gObj[this->m_MonsterData[i].m_iMonsterIndex].m_PosNum = this->m_MonsterData[i].m_sMonsterPosition; 

  00036	8b 10		 mov	 edx, DWORD PTR [eax]
  00038	66 8b 78 04	 mov	 di, WORD PTR [eax+4]
  0003c	69 d2 50 2b 00
	00		 imul	 edx, 11088		; 00002b50H
  00042	66 89 bc 0a b0
	03 00 00	 mov	 WORD PTR [edx+ecx+944], di

; 1662 : 			gObj[this->m_MonsterData[i].m_iMonsterIndex].DieRegen = 2;

  0004a	8b 08		 mov	 ecx, DWORD PTR [eax]
  0004c	8b 15 00 00 00
	00		 mov	 edx, DWORD PTR ?gObj@@3PAUOBJECTSTRUCT@@A ; gObj
  00052	69 c9 50 2b 00
	00		 imul	 ecx, 11088		; 00002b50H
  00058	88 9c 11 a2 03
	00 00		 mov	 BYTE PTR [ecx+edx+930], bl
  0005f	8b 0d 00 00 00
	00		 mov	 ecx, DWORD PTR ?gObj@@3PAUOBJECTSTRUCT@@A ; gObj
$LN3@SetBattleM:

; 1658 : 	{
; 1659 : 		if(this->m_MonsterData[i].m_iMonsterIndex != -1 && gObj[this->m_MonsterData[i].m_iMonsterIndex].m_PosNum == -1)

  00065	8b 50 08	 mov	 edx, DWORD PTR [eax+8]
  00068	3b d6		 cmp	 edx, esi
  0006a	74 41		 je	 SHORT $LN10@SetBattleM
  0006c	69 d2 50 2b 00
	00		 imul	 edx, 11088		; 00002b50H
  00072	66 39 b4 0a b0
	03 00 00	 cmp	 WORD PTR [edx+ecx+944], si
  0007a	75 31		 jne	 SHORT $LN10@SetBattleM

; 1660 : 		{
; 1661 : 			gObj[this->m_MonsterData[i].m_iMonsterIndex].m_PosNum = this->m_MonsterData[i].m_sMonsterPosition; 

  0007c	8b 50 08	 mov	 edx, DWORD PTR [eax+8]
  0007f	66 8b 78 0c	 mov	 di, WORD PTR [eax+12]
  00083	69 d2 50 2b 00
	00		 imul	 edx, 11088		; 00002b50H
  00089	66 89 bc 0a b0
	03 00 00	 mov	 WORD PTR [edx+ecx+944], di

; 1662 : 			gObj[this->m_MonsterData[i].m_iMonsterIndex].DieRegen = 2;

  00091	8b 48 08	 mov	 ecx, DWORD PTR [eax+8]
  00094	8b 15 00 00 00
	00		 mov	 edx, DWORD PTR ?gObj@@3PAUOBJECTSTRUCT@@A ; gObj
  0009a	69 c9 50 2b 00
	00		 imul	 ecx, 11088		; 00002b50H
  000a0	88 9c 11 a2 03
	00 00		 mov	 BYTE PTR [ecx+edx+930], bl
  000a7	8b 0d 00 00 00
	00		 mov	 ecx, DWORD PTR ?gObj@@3PAUOBJECTSTRUCT@@A ; gObj
$LN10@SetBattleM:

; 1658 : 	{
; 1659 : 		if(this->m_MonsterData[i].m_iMonsterIndex != -1 && gObj[this->m_MonsterData[i].m_iMonsterIndex].m_PosNum == -1)

  000ad	8b 50 10	 mov	 edx, DWORD PTR [eax+16]
  000b0	3b d6		 cmp	 edx, esi
  000b2	74 41		 je	 SHORT $LN11@SetBattleM
  000b4	69 d2 50 2b 00
	00		 imul	 edx, 11088		; 00002b50H
  000ba	66 39 b4 0a b0
	03 00 00	 cmp	 WORD PTR [edx+ecx+944], si
  000c2	75 31		 jne	 SHORT $LN11@SetBattleM

; 1660 : 		{
; 1661 : 			gObj[this->m_MonsterData[i].m_iMonsterIndex].m_PosNum = this->m_MonsterData[i].m_sMonsterPosition; 

  000c4	8b 50 10	 mov	 edx, DWORD PTR [eax+16]
  000c7	66 8b 78 14	 mov	 di, WORD PTR [eax+20]
  000cb	69 d2 50 2b 00
	00		 imul	 edx, 11088		; 00002b50H
  000d1	66 89 bc 0a b0
	03 00 00	 mov	 WORD PTR [edx+ecx+944], di

; 1662 : 			gObj[this->m_MonsterData[i].m_iMonsterIndex].DieRegen = 2;

  000d9	8b 48 10	 mov	 ecx, DWORD PTR [eax+16]
  000dc	8b 15 00 00 00
	00		 mov	 edx, DWORD PTR ?gObj@@3PAUOBJECTSTRUCT@@A ; gObj
  000e2	69 c9 50 2b 00
	00		 imul	 ecx, 11088		; 00002b50H
  000e8	88 9c 11 a2 03
	00 00		 mov	 BYTE PTR [ecx+edx+930], bl
  000ef	8b 0d 00 00 00
	00		 mov	 ecx, DWORD PTR ?gObj@@3PAUOBJECTSTRUCT@@A ; gObj
$LN11@SetBattleM:

; 1658 : 	{
; 1659 : 		if(this->m_MonsterData[i].m_iMonsterIndex != -1 && gObj[this->m_MonsterData[i].m_iMonsterIndex].m_PosNum == -1)

  000f5	8b 50 18	 mov	 edx, DWORD PTR [eax+24]
  000f8	3b d6		 cmp	 edx, esi
  000fa	74 41		 je	 SHORT $LN12@SetBattleM
  000fc	69 d2 50 2b 00
	00		 imul	 edx, 11088		; 00002b50H
  00102	66 39 b4 0a b0
	03 00 00	 cmp	 WORD PTR [edx+ecx+944], si
  0010a	75 31		 jne	 SHORT $LN12@SetBattleM

; 1660 : 		{
; 1661 : 			gObj[this->m_MonsterData[i].m_iMonsterIndex].m_PosNum = this->m_MonsterData[i].m_sMonsterPosition; 

  0010c	8b 50 18	 mov	 edx, DWORD PTR [eax+24]
  0010f	66 8b 78 1c	 mov	 di, WORD PTR [eax+28]
  00113	69 d2 50 2b 00
	00		 imul	 edx, 11088		; 00002b50H
  00119	66 89 bc 0a b0
	03 00 00	 mov	 WORD PTR [edx+ecx+944], di

; 1662 : 			gObj[this->m_MonsterData[i].m_iMonsterIndex].DieRegen = 2;

  00121	8b 48 18	 mov	 ecx, DWORD PTR [eax+24]
  00124	8b 15 00 00 00
	00		 mov	 edx, DWORD PTR ?gObj@@3PAUOBJECTSTRUCT@@A ; gObj
  0012a	69 c9 50 2b 00
	00		 imul	 ecx, 11088		; 00002b50H
  00130	88 9c 11 a2 03
	00 00		 mov	 BYTE PTR [ecx+edx+930], bl
  00137	8b 0d 00 00 00
	00		 mov	 ecx, DWORD PTR ?gObj@@3PAUOBJECTSTRUCT@@A ; gObj
$LN12@SetBattleM:

; 1658 : 	{
; 1659 : 		if(this->m_MonsterData[i].m_iMonsterIndex != -1 && gObj[this->m_MonsterData[i].m_iMonsterIndex].m_PosNum == -1)

  0013d	8b 50 20	 mov	 edx, DWORD PTR [eax+32]
  00140	3b d6		 cmp	 edx, esi
  00142	74 41		 je	 SHORT $LN13@SetBattleM
  00144	69 d2 50 2b 00
	00		 imul	 edx, 11088		; 00002b50H
  0014a	66 39 b4 0a b0
	03 00 00	 cmp	 WORD PTR [edx+ecx+944], si
  00152	75 31		 jne	 SHORT $LN13@SetBattleM

; 1660 : 		{
; 1661 : 			gObj[this->m_MonsterData[i].m_iMonsterIndex].m_PosNum = this->m_MonsterData[i].m_sMonsterPosition; 

  00154	8b 50 20	 mov	 edx, DWORD PTR [eax+32]
  00157	66 8b 78 24	 mov	 di, WORD PTR [eax+36]
  0015b	69 d2 50 2b 00
	00		 imul	 edx, 11088		; 00002b50H
  00161	66 89 bc 0a b0
	03 00 00	 mov	 WORD PTR [edx+ecx+944], di

; 1662 : 			gObj[this->m_MonsterData[i].m_iMonsterIndex].DieRegen = 2;

  00169	8b 48 20	 mov	 ecx, DWORD PTR [eax+32]
  0016c	8b 15 00 00 00
	00		 mov	 edx, DWORD PTR ?gObj@@3PAUOBJECTSTRUCT@@A ; gObj
  00172	69 c9 50 2b 00
	00		 imul	 ecx, 11088		; 00002b50H
  00178	88 9c 11 a2 03
	00 00		 mov	 BYTE PTR [ecx+edx+930], bl
  0017f	8b 0d 00 00 00
	00		 mov	 ecx, DWORD PTR ?gObj@@3PAUOBJECTSTRUCT@@A ; gObj
$LN13@SetBattleM:

; 1657 : 	for(int i = 0; i < MAX_FLOOR_MONSTER; i++)

  00185	83 c0 28	 add	 eax, 40			; 00000028H
  00188	ff 4d fc	 dec	 DWORD PTR tv1306[ebp]
  0018b	0f 85 8f fe ff
	ff		 jne	 $LL4@SetBattleM
  00191	5f		 pop	 edi
  00192	5e		 pop	 esi
  00193	5b		 pop	 ebx

; 1663 : 		}
; 1664 : 	}
; 1665 : }

  00194	8b e5		 mov	 esp, ebp
  00196	5d		 pop	 ebp
  00197	c3		 ret	 0
?SetBattleMonstersReady@CIllusionTempleProcess@@QAEXXZ ENDP ; CIllusionTempleProcess::SetBattleMonstersReady
_TEXT	ENDS
PUBLIC	__$ArrayPad$
PUBLIC	?SendNoticeToAll@CIllusionTempleProcess@@QAEXPAD@Z ; CIllusionTempleProcess::SendNoticeToAll
EXTRN	?MakeNoticeMsg@TNotice@@SAXPAXEPAD@Z:PROC	; TNotice::MakeNoticeMsg
; Function compile flags: /Ogtp
;	COMDAT ?SendNoticeToAll@CIllusionTempleProcess@@QAEXPAD@Z
_TEXT	SEGMENT
_pNotice$ = -276					; size = 272
__$ArrayPad$ = -4					; size = 4
_lpszMsg$ = 8						; size = 4
?SendNoticeToAll@CIllusionTempleProcess@@QAEXPAD@Z PROC	; CIllusionTempleProcess::SendNoticeToAll, COMDAT
; _this$ = ecx

; 1668 : {

  00000	55		 push	 ebp
  00001	8b ec		 mov	 ebp, esp
  00003	81 ec 14 01 00
	00		 sub	 esp, 276		; 00000114H
  00009	a1 00 00 00 00	 mov	 eax, DWORD PTR ___security_cookie
  0000e	33 c5		 xor	 eax, ebp
  00010	89 45 fc	 mov	 DWORD PTR __$ArrayPad$[ebp], eax
  00013	8b 45 08	 mov	 eax, DWORD PTR _lpszMsg$[ebp]
  00016	56		 push	 esi
  00017	57		 push	 edi

; 1669 : 	PMSG_NOTICE pNotice;
; 1670 : 	TNotice::MakeNoticeMsg(&pNotice, 0, lpszMsg);

  00018	50		 push	 eax
  00019	8d 85 ec fe ff
	ff		 lea	 eax, DWORD PTR _pNotice$[ebp]
  0001f	6a 00		 push	 0
  00021	50		 push	 eax
  00022	8b f1		 mov	 esi, ecx
  00024	e8 00 00 00 00	 call	 ?MakeNoticeMsg@TNotice@@SAXPAXEPAD@Z ; TNotice::MakeNoticeMsg
  00029	83 c4 0c	 add	 esp, 12			; 0000000cH

; 1673 : 	{
; 1674 : 		if(this->m_FloorData[i].m_iTeamPlayerIndex != -1 && gObj[this->m_FloorData[i].m_iTeamPlayerIndex].Connected > PLAYER_LOGGED)

  0002c	83 c6 20	 add	 esi, 32			; 00000020H
  0002f	bf 0a 00 00 00	 mov	 edi, 10			; 0000000aH
$LL4@SendNotice:
  00034	8b 06		 mov	 eax, DWORD PTR [esi]
  00036	83 f8 ff	 cmp	 eax, -1
  00039	74 2d		 je	 SHORT $LN3@SendNotice
  0003b	8b 15 00 00 00
	00		 mov	 edx, DWORD PTR ?gObj@@3PAUOBJECTSTRUCT@@A ; gObj
  00041	8b c8		 mov	 ecx, eax
  00043	69 c9 50 2b 00
	00		 imul	 ecx, 11088		; 00002b50H
  00049	83 7c 11 04 02	 cmp	 DWORD PTR [ecx+edx+4], 2
  0004e	7e 18		 jle	 SHORT $LN3@SendNotice

; 1675 : 		{
; 1676 : 			DataSend(this->m_FloorData[i].m_iTeamPlayerIndex,(LPBYTE)&pNotice,pNotice.h.size);

  00050	0f b6 8d ed fe
	ff ff		 movzx	 ecx, BYTE PTR _pNotice$[ebp+1]
  00057	51		 push	 ecx
  00058	8d 95 ec fe ff
	ff		 lea	 edx, DWORD PTR _pNotice$[ebp]
  0005e	52		 push	 edx
  0005f	50		 push	 eax
  00060	e8 00 00 00 00	 call	 ?DataSend@@YAHHPAEK@Z	; DataSend
  00065	83 c4 0c	 add	 esp, 12			; 0000000cH
$LN3@SendNotice:

; 1671 : 
; 1672 : 	for(int i = 0; i < MAX_FLOOR_USER; i++)

  00068	83 c6 30	 add	 esi, 48			; 00000030H
  0006b	4f		 dec	 edi
  0006c	75 c6		 jne	 SHORT $LL4@SendNotice

; 1677 : 		}
; 1678 : 	}
; 1679 : }

  0006e	8b 4d fc	 mov	 ecx, DWORD PTR __$ArrayPad$[ebp]
  00071	5f		 pop	 edi
  00072	33 cd		 xor	 ecx, ebp
  00074	5e		 pop	 esi
  00075	e8 00 00 00 00	 call	 @__security_check_cookie@4
  0007a	8b e5		 mov	 esp, ebp
  0007c	5d		 pop	 ebp
  0007d	c2 04 00	 ret	 4
?SendNoticeToAll@CIllusionTempleProcess@@QAEXPAD@Z ENDP	; CIllusionTempleProcess::SendNoticeToAll
_TEXT	ENDS
PUBLIC	_this$GSCopy$
PUBLIC	__$ArrayPad$
PUBLIC	?OperateMiniMapWork@CIllusionTempleProcess@@QAEXE@Z ; CIllusionTempleProcess::OperateMiniMapWork
; Function compile flags: /Ogtp
;	COMDAT ?OperateMiniMapWork@CIllusionTempleProcess@@QAEXE@Z
_TEXT	SEGMENT
tv1978 = -300						; size = 4
tv245 = -296						; size = 4
_this$GSCopy$ = -292					; size = 4
_iOfs$ = -288						; size = 4
_pMsg$216507 = -284					; size = 6
_pMsgHead$ = -276					; size = 14
_MessageBuff$ = -260					; size = 256
__$ArrayPad$ = -4					; size = 4
_btTeam$ = 8						; size = 1
?OperateMiniMapWork@CIllusionTempleProcess@@QAEXE@Z PROC ; CIllusionTempleProcess::OperateMiniMapWork, COMDAT
; _this$ = ecx

; 1682 : {

  00000	55		 push	 ebp
  00001	8b ec		 mov	 ebp, esp
  00003	81 ec 2c 01 00
	00		 sub	 esp, 300		; 0000012cH
  00009	a1 00 00 00 00	 mov	 eax, DWORD PTR ___security_cookie
  0000e	33 c5		 xor	 eax, ebp
  00010	89 45 fc	 mov	 DWORD PTR __$ArrayPad$[ebp], eax
  00013	53		 push	 ebx
  00014	56		 push	 esi
  00015	57		 push	 edi
  00016	8b f9		 mov	 edi, ecx

; 1683 : 	int	iOfs = 0;
; 1684 : 
; 1685 : 	char MessageBuff[256];
; 1686 : 
; 1687 : 	PMSG_ILLUSIONTEMPLE_TEAMINFO_HEAD	pMsgHead;
; 1688 : 	
; 1689 : 	if( this->m_iEventBattleTimer < 0 )

  00018	83 bf 9c 03 00
	00 00		 cmp	 DWORD PTR [edi+924], 0

; 1747 : 		{
; 1748 : 			this->m_iBlueTeamUserCount = Count;

  0001f	89 bd dc fe ff
	ff		 mov	 DWORD PTR _this$GSCopy$[ebp], edi
  00025	7d 0a		 jge	 SHORT $LN15@OperateMin

; 1690 : 	{
; 1691 : 		this->m_iEventBattleTimer = 0;

  00027	c7 87 9c 03 00
	00 00 00 00 00	 mov	 DWORD PTR [edi+924], 0
$LN15@OperateMin:

; 1692 : 	}
; 1693 : 
; 1694 : 	pMsgHead.m_wTimer = this->m_iEventBattleTimer / 1000;
; 1695 : 		
; 1696 : 	if( this->m_iBallPlayerIndex != OBJ_EMPTY ) //Ball

  00031	8b 35 00 00 00
	00		 mov	 esi, DWORD PTR ?gObj@@3PAUOBJECTSTRUCT@@A ; gObj
  00037	b8 d3 4d 62 10	 mov	 eax, 274877907		; 10624dd3H
  0003c	f7 af 9c 03 00
	00		 imul	 DWORD PTR [edi+924]
  00042	c1 fa 06	 sar	 edx, 6
  00045	8b c2		 mov	 eax, edx
  00047	c1 e8 1f	 shr	 eax, 31			; 0000001fH
  0004a	03 c2		 add	 eax, edx
  0004c	66 89 85 f0 fe
	ff ff		 mov	 WORD PTR _pMsgHead$[ebp+4], ax
  00053	8b 87 b8 03 00
	00		 mov	 eax, DWORD PTR [edi+952]
  00059	83 f8 ff	 cmp	 eax, -1
  0005c	74 2c		 je	 SHORT $LN14@OperateMin

; 1697 : 	{
; 1698 : 		pMsgHead.m_waIndex    = this->m_iBallPlayerIndex;

  0005e	66 8b c8	 mov	 cx, ax

; 1699 : 		pMsgHead.m_btPositionX = gObj[this->m_iBallPlayerIndex].X;

  00061	69 c0 50 2b 00
	00		 imul	 eax, 11088		; 00002b50H
  00067	66 89 8d f2 fe
	ff ff		 mov	 WORD PTR _pMsgHead$[ebp+6], cx
  0006e	8a 94 30 44 01
	00 00		 mov	 dl, BYTE PTR [eax+esi+324]
  00075	88 95 f4 fe ff
	ff		 mov	 BYTE PTR _pMsgHead$[ebp+8], dl

; 1700 : 		pMsgHead.m_btPositionY = gObj[this->m_iBallPlayerIndex].Y;

  0007b	8a 84 30 46 01
	00 00		 mov	 al, BYTE PTR [eax+esi+326]
  00082	88 85 f5 fe ff
	ff		 mov	 BYTE PTR _pMsgHead$[ebp+9], al

; 1701 : 	}
; 1702 : 	else

  00088	eb 0a		 jmp	 SHORT $LN13@OperateMin
$LN14@OperateMin:

; 1703 : 	{
; 1704 : 		pMsgHead.m_waIndex    = OBJ_EMPTY;

  0008a	c7 85 f2 fe ff
	ff ff ff ff ff	 mov	 DWORD PTR _pMsgHead$[ebp+6], -1
$LN13@OperateMin:

; 1705 : 		pMsgHead.m_btPositionX = (BYTE)-1;
; 1706 : 		pMsgHead.m_btPositionY = (BYTE)-1;
; 1707 : 	}
; 1708 : 	
; 1709 : 	pMsgHead.m_btRelicsTeamScore 	= this->m_btYellowTeamScore;
; 1710 : 	pMsgHead.m_btIllusionRelicsScore= this->m_btBlueTeamScore;

  00094	8a 87 d1 03 00
	00		 mov	 al, BYTE PTR [edi+977]
  0009a	8a 97 d0 03 00
	00		 mov	 dl, BYTE PTR [edi+976]

; 1711 : 	pMsgHead.m_btTeam				= btTeam;

  000a0	8a 5d 08	 mov	 bl, BYTE PTR _btTeam$[ebp]
  000a3	88 85 f7 fe ff
	ff		 mov	 BYTE PTR _pMsgHead$[ebp+11], al
  000a9	8d 47 20	 lea	 eax, DWORD PTR [edi+32]
  000ac	88 95 f6 fe ff
	ff		 mov	 BYTE PTR _pMsgHead$[ebp+10], dl
  000b2	88 9d f8 fe ff
	ff		 mov	 BYTE PTR _pMsgHead$[ebp+12], bl

; 1712 : 	
; 1713 : 	iOfs += sizeof(pMsgHead);

  000b8	c7 85 e0 fe ff
	ff 0e 00 00 00	 mov	 DWORD PTR _iOfs$[ebp], 14 ; 0000000eH

; 1714 : 	int Count = 0;

  000c2	33 d2		 xor	 edx, edx
  000c4	8d 8d 0a ff ff
	ff		 lea	 ecx, DWORD PTR _MessageBuff$[ebp+14]
  000ca	89 85 d4 fe ff
	ff		 mov	 DWORD PTR tv1978[ebp], eax
  000d0	c7 85 d8 fe ff
	ff 02 00 00 00	 mov	 DWORD PTR tv245[ebp], 2
  000da	8d 9b 00 00 00
	00		 npad	 6
$LL12@OperateMin:

; 1717 : 	{
; 1718 : 		if( this->m_FloorData[i].m_iTeamPlayerIndex != OBJ_EMPTY && this->m_FloorData[i].m_btTeamJoinSide == btTeam && gObj[this->m_FloorData[i].m_iTeamPlayerIndex].Connected > PLAYER_LOGGED )

  000e0	8b 38		 mov	 edi, DWORD PTR [eax]
  000e2	83 ff ff	 cmp	 edi, -1
  000e5	74 6f		 je	 SHORT $LN11@OperateMin
  000e7	38 58 04	 cmp	 BYTE PTR [eax+4], bl
  000ea	75 6a		 jne	 SHORT $LN11@OperateMin
  000ec	69 ff 50 2b 00
	00		 imul	 edi, 11088		; 00002b50H
  000f2	83 7c 37 04 02	 cmp	 DWORD PTR [edi+esi+4], 2
  000f7	7e 5d		 jle	 SHORT $LN11@OperateMin

; 1719 : 		{
; 1720 : 			PMSG_ILLUSIONTEMPLE_TEAMINFO_MEMBERDATA pMsg;
; 1721 : 
; 1722 : 			pMsg.m_waIndex    = this->m_FloorData[i].m_iTeamPlayerIndex;

  000f9	0f b7 38	 movzx	 edi, WORD PTR [eax]
  000fc	66 89 bd e4 fe
	ff ff		 mov	 WORD PTR _pMsg$216507[ebp], di

; 1723 : 			pMsg.m_btMapNumber = gObj[this->m_FloorData[i].m_iTeamPlayerIndex].MapNumber;

  00103	8b 38		 mov	 edi, DWORD PTR [eax]
  00105	69 ff 50 2b 00
	00		 imul	 edi, 11088		; 00002b50H
  0010b	0f b6 9c 37 49
	01 00 00	 movzx	 ebx, BYTE PTR [edi+esi+329]

; 1724 : 			pMsg.m_btPositionX = gObj[this->m_FloorData[i].m_iTeamPlayerIndex].X;
; 1725 : 			pMsg.m_btPositionY = gObj[this->m_FloorData[i].m_iTeamPlayerIndex].Y;
; 1726 : 			
; 1727 : 			Count++;
; 1728 : 			
; 1729 : 			memcpy((MessageBuff+iOfs), &pMsg, sizeof(pMsg));
; 1730 : 			
; 1731 : 			iOfs += sizeof(pMsg);

  00113	83 85 e0 fe ff
	ff 06		 add	 DWORD PTR _iOfs$[ebp], 6
  0011a	88 9d e6 fe ff
	ff		 mov	 BYTE PTR _pMsg$216507[ebp+2], bl
  00120	0f b6 9c 37 44
	01 00 00	 movzx	 ebx, BYTE PTR [edi+esi+324]
  00128	88 9d e7 fe ff
	ff		 mov	 BYTE PTR _pMsg$216507[ebp+3], bl
  0012e	0f b6 9c 37 46
	01 00 00	 movzx	 ebx, BYTE PTR [edi+esi+326]
  00136	8b bd e4 fe ff
	ff		 mov	 edi, DWORD PTR _pMsg$216507[ebp]
  0013c	89 39		 mov	 DWORD PTR [ecx], edi
  0013e	88 9d e8 fe ff
	ff		 mov	 BYTE PTR _pMsg$216507[ebp+4], bl
  00144	0f b7 bd e8 fe
	ff ff		 movzx	 edi, WORD PTR _pMsg$216507[ebp+4]
  0014b	8a 5d 08	 mov	 bl, BYTE PTR _btTeam$[ebp]
  0014e	42		 inc	 edx
  0014f	66 89 79 04	 mov	 WORD PTR [ecx+4], di
  00153	83 c1 06	 add	 ecx, 6
$LN11@OperateMin:

; 1717 : 	{
; 1718 : 		if( this->m_FloorData[i].m_iTeamPlayerIndex != OBJ_EMPTY && this->m_FloorData[i].m_btTeamJoinSide == btTeam && gObj[this->m_FloorData[i].m_iTeamPlayerIndex].Connected > PLAYER_LOGGED )

  00156	8b 78 30	 mov	 edi, DWORD PTR [eax+48]
  00159	83 ff ff	 cmp	 edi, -1
  0015c	74 71		 je	 SHORT $LN29@OperateMin
  0015e	38 58 34	 cmp	 BYTE PTR [eax+52], bl
  00161	75 6c		 jne	 SHORT $LN29@OperateMin
  00163	69 ff 50 2b 00
	00		 imul	 edi, 11088		; 00002b50H
  00169	83 7c 37 04 02	 cmp	 DWORD PTR [edi+esi+4], 2
  0016e	7e 5f		 jle	 SHORT $LN29@OperateMin

; 1719 : 		{
; 1720 : 			PMSG_ILLUSIONTEMPLE_TEAMINFO_MEMBERDATA pMsg;
; 1721 : 
; 1722 : 			pMsg.m_waIndex    = this->m_FloorData[i].m_iTeamPlayerIndex;

  00170	0f b7 78 30	 movzx	 edi, WORD PTR [eax+48]
  00174	66 89 bd e4 fe
	ff ff		 mov	 WORD PTR _pMsg$216507[ebp], di

; 1723 : 			pMsg.m_btMapNumber = gObj[this->m_FloorData[i].m_iTeamPlayerIndex].MapNumber;

  0017b	8b 78 30	 mov	 edi, DWORD PTR [eax+48]
  0017e	69 ff 50 2b 00
	00		 imul	 edi, 11088		; 00002b50H
  00184	0f b6 9c 37 49
	01 00 00	 movzx	 ebx, BYTE PTR [edi+esi+329]

; 1724 : 			pMsg.m_btPositionX = gObj[this->m_FloorData[i].m_iTeamPlayerIndex].X;
; 1725 : 			pMsg.m_btPositionY = gObj[this->m_FloorData[i].m_iTeamPlayerIndex].Y;
; 1726 : 			
; 1727 : 			Count++;
; 1728 : 			
; 1729 : 			memcpy((MessageBuff+iOfs), &pMsg, sizeof(pMsg));
; 1730 : 			
; 1731 : 			iOfs += sizeof(pMsg);

  0018c	83 85 e0 fe ff
	ff 06		 add	 DWORD PTR _iOfs$[ebp], 6
  00193	88 9d e6 fe ff
	ff		 mov	 BYTE PTR _pMsg$216507[ebp+2], bl
  00199	0f b6 9c 37 44
	01 00 00	 movzx	 ebx, BYTE PTR [edi+esi+324]
  001a1	88 9d e7 fe ff
	ff		 mov	 BYTE PTR _pMsg$216507[ebp+3], bl
  001a7	0f b6 9c 37 46
	01 00 00	 movzx	 ebx, BYTE PTR [edi+esi+326]
  001af	8b bd e4 fe ff
	ff		 mov	 edi, DWORD PTR _pMsg$216507[ebp]
  001b5	89 39		 mov	 DWORD PTR [ecx], edi
  001b7	88 9d e8 fe ff
	ff		 mov	 BYTE PTR _pMsg$216507[ebp+4], bl
  001bd	0f b7 bd e8 fe
	ff ff		 movzx	 edi, WORD PTR _pMsg$216507[ebp+4]
  001c4	8a 5d 08	 mov	 bl, BYTE PTR _btTeam$[ebp]
  001c7	42		 inc	 edx
  001c8	66 89 79 04	 mov	 WORD PTR [ecx+4], di
  001cc	83 c1 06	 add	 ecx, 6
$LN29@OperateMin:

; 1717 : 	{
; 1718 : 		if( this->m_FloorData[i].m_iTeamPlayerIndex != OBJ_EMPTY && this->m_FloorData[i].m_btTeamJoinSide == btTeam && gObj[this->m_FloorData[i].m_iTeamPlayerIndex].Connected > PLAYER_LOGGED )

  001cf	8b 78 60	 mov	 edi, DWORD PTR [eax+96]
  001d2	83 ff ff	 cmp	 edi, -1
  001d5	74 71		 je	 SHORT $LN31@OperateMin
  001d7	38 58 64	 cmp	 BYTE PTR [eax+100], bl
  001da	75 6c		 jne	 SHORT $LN31@OperateMin
  001dc	69 ff 50 2b 00
	00		 imul	 edi, 11088		; 00002b50H
  001e2	83 7c 37 04 02	 cmp	 DWORD PTR [edi+esi+4], 2
  001e7	7e 5f		 jle	 SHORT $LN31@OperateMin

; 1719 : 		{
; 1720 : 			PMSG_ILLUSIONTEMPLE_TEAMINFO_MEMBERDATA pMsg;
; 1721 : 
; 1722 : 			pMsg.m_waIndex    = this->m_FloorData[i].m_iTeamPlayerIndex;

  001e9	0f b7 78 60	 movzx	 edi, WORD PTR [eax+96]
  001ed	66 89 bd e4 fe
	ff ff		 mov	 WORD PTR _pMsg$216507[ebp], di

; 1723 : 			pMsg.m_btMapNumber = gObj[this->m_FloorData[i].m_iTeamPlayerIndex].MapNumber;

  001f4	8b 78 60	 mov	 edi, DWORD PTR [eax+96]
  001f7	69 ff 50 2b 00
	00		 imul	 edi, 11088		; 00002b50H
  001fd	0f b6 9c 37 49
	01 00 00	 movzx	 ebx, BYTE PTR [edi+esi+329]

; 1724 : 			pMsg.m_btPositionX = gObj[this->m_FloorData[i].m_iTeamPlayerIndex].X;
; 1725 : 			pMsg.m_btPositionY = gObj[this->m_FloorData[i].m_iTeamPlayerIndex].Y;
; 1726 : 			
; 1727 : 			Count++;
; 1728 : 			
; 1729 : 			memcpy((MessageBuff+iOfs), &pMsg, sizeof(pMsg));
; 1730 : 			
; 1731 : 			iOfs += sizeof(pMsg);

  00205	83 85 e0 fe ff
	ff 06		 add	 DWORD PTR _iOfs$[ebp], 6
  0020c	88 9d e6 fe ff
	ff		 mov	 BYTE PTR _pMsg$216507[ebp+2], bl
  00212	0f b6 9c 37 44
	01 00 00	 movzx	 ebx, BYTE PTR [edi+esi+324]
  0021a	88 9d e7 fe ff
	ff		 mov	 BYTE PTR _pMsg$216507[ebp+3], bl
  00220	0f b6 9c 37 46
	01 00 00	 movzx	 ebx, BYTE PTR [edi+esi+326]
  00228	8b bd e4 fe ff
	ff		 mov	 edi, DWORD PTR _pMsg$216507[ebp]
  0022e	89 39		 mov	 DWORD PTR [ecx], edi
  00230	88 9d e8 fe ff
	ff		 mov	 BYTE PTR _pMsg$216507[ebp+4], bl
  00236	0f b7 bd e8 fe
	ff ff		 movzx	 edi, WORD PTR _pMsg$216507[ebp+4]
  0023d	8a 5d 08	 mov	 bl, BYTE PTR _btTeam$[ebp]
  00240	42		 inc	 edx
  00241	66 89 79 04	 mov	 WORD PTR [ecx+4], di
  00245	83 c1 06	 add	 ecx, 6
$LN31@OperateMin:

; 1717 : 	{
; 1718 : 		if( this->m_FloorData[i].m_iTeamPlayerIndex != OBJ_EMPTY && this->m_FloorData[i].m_btTeamJoinSide == btTeam && gObj[this->m_FloorData[i].m_iTeamPlayerIndex].Connected > PLAYER_LOGGED )

  00248	8b b8 90 00 00
	00		 mov	 edi, DWORD PTR [eax+144]
  0024e	83 ff ff	 cmp	 edi, -1
  00251	74 7a		 je	 SHORT $LN33@OperateMin
  00253	38 98 94 00 00
	00		 cmp	 BYTE PTR [eax+148], bl
  00259	75 72		 jne	 SHORT $LN33@OperateMin
  0025b	69 ff 50 2b 00
	00		 imul	 edi, 11088		; 00002b50H
  00261	83 7c 37 04 02	 cmp	 DWORD PTR [edi+esi+4], 2
  00266	7e 65		 jle	 SHORT $LN33@OperateMin

; 1719 : 		{
; 1720 : 			PMSG_ILLUSIONTEMPLE_TEAMINFO_MEMBERDATA pMsg;
; 1721 : 
; 1722 : 			pMsg.m_waIndex    = this->m_FloorData[i].m_iTeamPlayerIndex;

  00268	0f b7 b8 90 00
	00 00		 movzx	 edi, WORD PTR [eax+144]
  0026f	66 89 bd e4 fe
	ff ff		 mov	 WORD PTR _pMsg$216507[ebp], di

; 1723 : 			pMsg.m_btMapNumber = gObj[this->m_FloorData[i].m_iTeamPlayerIndex].MapNumber;

  00276	8b b8 90 00 00
	00		 mov	 edi, DWORD PTR [eax+144]
  0027c	69 ff 50 2b 00
	00		 imul	 edi, 11088		; 00002b50H
  00282	0f b6 9c 37 49
	01 00 00	 movzx	 ebx, BYTE PTR [edi+esi+329]

; 1724 : 			pMsg.m_btPositionX = gObj[this->m_FloorData[i].m_iTeamPlayerIndex].X;
; 1725 : 			pMsg.m_btPositionY = gObj[this->m_FloorData[i].m_iTeamPlayerIndex].Y;
; 1726 : 			
; 1727 : 			Count++;
; 1728 : 			
; 1729 : 			memcpy((MessageBuff+iOfs), &pMsg, sizeof(pMsg));
; 1730 : 			
; 1731 : 			iOfs += sizeof(pMsg);

  0028a	83 85 e0 fe ff
	ff 06		 add	 DWORD PTR _iOfs$[ebp], 6
  00291	88 9d e6 fe ff
	ff		 mov	 BYTE PTR _pMsg$216507[ebp+2], bl
  00297	0f b6 9c 37 44
	01 00 00	 movzx	 ebx, BYTE PTR [edi+esi+324]
  0029f	88 9d e7 fe ff
	ff		 mov	 BYTE PTR _pMsg$216507[ebp+3], bl
  002a5	0f b6 9c 37 46
	01 00 00	 movzx	 ebx, BYTE PTR [edi+esi+326]
  002ad	8b bd e4 fe ff
	ff		 mov	 edi, DWORD PTR _pMsg$216507[ebp]
  002b3	89 39		 mov	 DWORD PTR [ecx], edi
  002b5	88 9d e8 fe ff
	ff		 mov	 BYTE PTR _pMsg$216507[ebp+4], bl
  002bb	0f b7 bd e8 fe
	ff ff		 movzx	 edi, WORD PTR _pMsg$216507[ebp+4]
  002c2	8a 5d 08	 mov	 bl, BYTE PTR _btTeam$[ebp]
  002c5	42		 inc	 edx
  002c6	66 89 79 04	 mov	 WORD PTR [ecx+4], di
  002ca	83 c1 06	 add	 ecx, 6
$LN33@OperateMin:

; 1717 : 	{
; 1718 : 		if( this->m_FloorData[i].m_iTeamPlayerIndex != OBJ_EMPTY && this->m_FloorData[i].m_btTeamJoinSide == btTeam && gObj[this->m_FloorData[i].m_iTeamPlayerIndex].Connected > PLAYER_LOGGED )

  002cd	8b b8 c0 00 00
	00		 mov	 edi, DWORD PTR [eax+192]
  002d3	83 ff ff	 cmp	 edi, -1
  002d6	74 7a		 je	 SHORT $LN35@OperateMin
  002d8	38 98 c4 00 00
	00		 cmp	 BYTE PTR [eax+196], bl
  002de	75 72		 jne	 SHORT $LN35@OperateMin
  002e0	69 ff 50 2b 00
	00		 imul	 edi, 11088		; 00002b50H
  002e6	83 7c 37 04 02	 cmp	 DWORD PTR [edi+esi+4], 2
  002eb	7e 65		 jle	 SHORT $LN35@OperateMin

; 1719 : 		{
; 1720 : 			PMSG_ILLUSIONTEMPLE_TEAMINFO_MEMBERDATA pMsg;
; 1721 : 
; 1722 : 			pMsg.m_waIndex    = this->m_FloorData[i].m_iTeamPlayerIndex;

  002ed	0f b7 b8 c0 00
	00 00		 movzx	 edi, WORD PTR [eax+192]
  002f4	66 89 bd e4 fe
	ff ff		 mov	 WORD PTR _pMsg$216507[ebp], di

; 1723 : 			pMsg.m_btMapNumber = gObj[this->m_FloorData[i].m_iTeamPlayerIndex].MapNumber;

  002fb	8b b8 c0 00 00
	00		 mov	 edi, DWORD PTR [eax+192]
  00301	69 ff 50 2b 00
	00		 imul	 edi, 11088		; 00002b50H
  00307	0f b6 9c 37 49
	01 00 00	 movzx	 ebx, BYTE PTR [edi+esi+329]

; 1724 : 			pMsg.m_btPositionX = gObj[this->m_FloorData[i].m_iTeamPlayerIndex].X;
; 1725 : 			pMsg.m_btPositionY = gObj[this->m_FloorData[i].m_iTeamPlayerIndex].Y;
; 1726 : 			
; 1727 : 			Count++;
; 1728 : 			
; 1729 : 			memcpy((MessageBuff+iOfs), &pMsg, sizeof(pMsg));
; 1730 : 			
; 1731 : 			iOfs += sizeof(pMsg);

  0030f	83 85 e0 fe ff
	ff 06		 add	 DWORD PTR _iOfs$[ebp], 6
  00316	88 9d e6 fe ff
	ff		 mov	 BYTE PTR _pMsg$216507[ebp+2], bl
  0031c	0f b6 9c 37 44
	01 00 00	 movzx	 ebx, BYTE PTR [edi+esi+324]
  00324	88 9d e7 fe ff
	ff		 mov	 BYTE PTR _pMsg$216507[ebp+3], bl
  0032a	0f b6 9c 37 46
	01 00 00	 movzx	 ebx, BYTE PTR [edi+esi+326]
  00332	8b bd e4 fe ff
	ff		 mov	 edi, DWORD PTR _pMsg$216507[ebp]
  00338	89 39		 mov	 DWORD PTR [ecx], edi
  0033a	88 9d e8 fe ff
	ff		 mov	 BYTE PTR _pMsg$216507[ebp+4], bl
  00340	0f b7 bd e8 fe
	ff ff		 movzx	 edi, WORD PTR _pMsg$216507[ebp+4]
  00347	8a 5d 08	 mov	 bl, BYTE PTR _btTeam$[ebp]
  0034a	42		 inc	 edx
  0034b	66 89 79 04	 mov	 WORD PTR [ecx+4], di
  0034f	83 c1 06	 add	 ecx, 6
$LN35@OperateMin:

; 1715 : 
; 1716 : 	for(int i = 0; i < MAX_FLOOR_USER; i++ )

  00352	05 f0 00 00 00	 add	 eax, 240		; 000000f0H
  00357	ff 8d d8 fe ff
	ff		 dec	 DWORD PTR tv245[ebp]
  0035d	0f 85 7d fd ff
	ff		 jne	 $LL12@OperateMin

; 1732 : 		}
; 1733 : 	}
; 1734 : 	
; 1735 : 	if( btTeam == 0 )
; 1736 : 	{
; 1737 : 		if( this->m_iYellowTeamUserCount != Count )

  00363	8b 85 dc fe ff
	ff		 mov	 eax, DWORD PTR _this$GSCopy$[ebp]
  00369	84 db		 test	 bl, bl
  0036b	75 1c		 jne	 SHORT $LN8@OperateMin
  0036d	39 90 c8 03 00
	00		 cmp	 DWORD PTR [eax+968], edx
  00373	74 06		 je	 SHORT $LN7@OperateMin

; 1738 : 		{
; 1739 : 			this->m_iYellowTeamUserCount = Count;

  00375	89 90 c8 03 00
	00		 mov	 DWORD PTR [eax+968], edx
$LN7@OperateMin:

; 1740 : 		}
; 1741 : 
; 1742 : 		pMsgHead.m_btCount = this->m_iYellowTeamUserCount;

  0037b	8a 88 c8 03 00
	00		 mov	 cl, BYTE PTR [eax+968]
  00381	88 8d f9 fe ff
	ff		 mov	 BYTE PTR _pMsgHead$[ebp+13], cl

; 1743 : 	}
; 1744 : 	else 

  00387	eb 1a		 jmp	 SHORT $LN6@OperateMin
$LN8@OperateMin:

; 1745 : 	{
; 1746 : 		if( this->m_iBlueTeamUserCount != Count )

  00389	39 90 cc 03 00
	00		 cmp	 DWORD PTR [eax+972], edx
  0038f	74 06		 je	 SHORT $LN5@OperateMin

; 1747 : 		{
; 1748 : 			this->m_iBlueTeamUserCount = Count;

  00391	89 90 cc 03 00
	00		 mov	 DWORD PTR [eax+972], edx
$LN5@OperateMin:

; 1749 : 		}
; 1750 : 		pMsgHead.m_btCount = this->m_iBlueTeamUserCount;

  00397	8a 90 cc 03 00
	00		 mov	 dl, BYTE PTR [eax+972]
  0039d	88 95 f9 fe ff
	ff		 mov	 BYTE PTR _pMsgHead$[ebp+13], dl
$LN6@OperateMin:

; 1751 : 	}
; 1752 : 	
; 1753 : 	PHeadSubSetB((LPBYTE)&pMsgHead, 0xBF, 0x01, iOfs);

  003a3	8b 85 e0 fe ff
	ff		 mov	 eax, DWORD PTR _iOfs$[ebp]
  003a9	50		 push	 eax
  003aa	6a 01		 push	 1
  003ac	8d 8d ec fe ff
	ff		 lea	 ecx, DWORD PTR _pMsgHead$[ebp]
  003b2	68 bf 00 00 00	 push	 191			; 000000bfH
  003b7	51		 push	 ecx
  003b8	e8 00 00 00 00	 call	 ?PHeadSubSetB@@YAXPAEEEH@Z ; PHeadSubSetB

; 1754 : 	
; 1755 : 	memcpy(MessageBuff, &pMsgHead, sizeof(pMsgHead));

  003bd	8b 95 ec fe ff
	ff		 mov	 edx, DWORD PTR _pMsgHead$[ebp]
  003c3	8b 85 f0 fe ff
	ff		 mov	 eax, DWORD PTR _pMsgHead$[ebp+4]
  003c9	8b 8d f4 fe ff
	ff		 mov	 ecx, DWORD PTR _pMsgHead$[ebp+8]
  003cf	8b b5 d4 fe ff
	ff		 mov	 esi, DWORD PTR tv1978[ebp]
  003d5	89 95 fc fe ff
	ff		 mov	 DWORD PTR _MessageBuff$[ebp], edx
  003db	66 8b 95 f8 fe
	ff ff		 mov	 dx, WORD PTR _pMsgHead$[ebp+12]
  003e2	83 c4 10	 add	 esp, 16			; 00000010H
  003e5	89 85 00 ff ff
	ff		 mov	 DWORD PTR _MessageBuff$[ebp+4], eax
  003eb	89 8d 04 ff ff
	ff		 mov	 DWORD PTR _MessageBuff$[ebp+8], ecx
  003f1	66 89 95 08 ff
	ff ff		 mov	 WORD PTR _MessageBuff$[ebp+12], dx
  003f8	bf 0a 00 00 00	 mov	 edi, 10			; 0000000aH
  003fd	8d 49 00	 npad	 3
$LL4@OperateMin:

; 1758 : 	{
; 1759 : 		if( this->m_FloorData[i].m_iTeamPlayerIndex != OBJ_EMPTY && gObj[this->m_FloorData[i].m_iTeamPlayerIndex].Connected > PLAYER_LOGGED && this->m_FloorData[i].m_btTeamJoinSide == btTeam )		

  00400	8b 06		 mov	 eax, DWORD PTR [esi]
  00402	83 f8 ff	 cmp	 eax, -1
  00405	74 32		 je	 SHORT $LN3@OperateMin
  00407	8b 15 00 00 00
	00		 mov	 edx, DWORD PTR ?gObj@@3PAUOBJECTSTRUCT@@A ; gObj
  0040d	8b c8		 mov	 ecx, eax
  0040f	69 c9 50 2b 00
	00		 imul	 ecx, 11088		; 00002b50H
  00415	83 7c 11 04 02	 cmp	 DWORD PTR [ecx+edx+4], 2
  0041a	7e 1d		 jle	 SHORT $LN3@OperateMin
  0041c	38 5e 04	 cmp	 BYTE PTR [esi+4], bl
  0041f	75 18		 jne	 SHORT $LN3@OperateMin

; 1760 : 		{
; 1761 : 			DataSend(this->m_FloorData[i].m_iTeamPlayerIndex, (LPBYTE)MessageBuff, pMsgHead.h.size);

  00421	0f b6 8d ed fe
	ff ff		 movzx	 ecx, BYTE PTR _pMsgHead$[ebp+1]
  00428	51		 push	 ecx
  00429	8d 95 fc fe ff
	ff		 lea	 edx, DWORD PTR _MessageBuff$[ebp]
  0042f	52		 push	 edx
  00430	50		 push	 eax
  00431	e8 00 00 00 00	 call	 ?DataSend@@YAHHPAEK@Z	; DataSend
  00436	83 c4 0c	 add	 esp, 12			; 0000000cH
$LN3@OperateMin:

; 1756 : 	
; 1757 : 	for(int i = 0; i < MAX_FLOOR_USER; i++ )

  00439	83 c6 30	 add	 esi, 48			; 00000030H
  0043c	4f		 dec	 edi
  0043d	75 c1		 jne	 SHORT $LL4@OperateMin

; 1762 : 		}
; 1763 : 	}
; 1764 : }

  0043f	8b 4d fc	 mov	 ecx, DWORD PTR __$ArrayPad$[ebp]
  00442	5f		 pop	 edi
  00443	5e		 pop	 esi
  00444	33 cd		 xor	 ecx, ebp
  00446	5b		 pop	 ebx
  00447	e8 00 00 00 00	 call	 @__security_check_cookie@4
  0044c	8b e5		 mov	 esp, ebp
  0044e	5d		 pop	 ebp
  0044f	c2 04 00	 ret	 4
?OperateMiniMapWork@CIllusionTempleProcess@@QAEXE@Z ENDP ; CIllusionTempleProcess::OperateMiniMapWork
_TEXT	ENDS
PUBLIC	?NotifyTempleInfo@CIllusionTempleProcess@@QAEXEH@Z ; CIllusionTempleProcess::NotifyTempleInfo
; Function compile flags: /Ogtp
;	COMDAT ?NotifyTempleInfo@CIllusionTempleProcess@@QAEXEH@Z
_TEXT	SEGMENT
_pMsg$ = -8						; size = 6
_btState$ = 8						; size = 1
_aIndex$ = 12						; size = 4
?NotifyTempleInfo@CIllusionTempleProcess@@QAEXEH@Z PROC	; CIllusionTempleProcess::NotifyTempleInfo, COMDAT
; _this$ = ecx

; 1767 : {

  00000	55		 push	 ebp
  00001	8b ec		 mov	 ebp, esp
  00003	83 ec 08	 sub	 esp, 8
  00006	56		 push	 esi

; 1768 : 	_ILLUSIONTEMPLE_BARRIER pMsg;
; 1769 : 
; 1770 : 	PHeadSubSetB((LPBYTE)&pMsg, 0xBF, 0x09, sizeof(pMsg));

  00007	6a 06		 push	 6
  00009	6a 09		 push	 9
  0000b	8d 45 f8	 lea	 eax, DWORD PTR _pMsg$[ebp]
  0000e	68 bf 00 00 00	 push	 191			; 000000bfH
  00013	50		 push	 eax
  00014	8b f1		 mov	 esi, ecx
  00016	e8 00 00 00 00	 call	 ?PHeadSubSetB@@YAXPAEEEH@Z ; PHeadSubSetB

; 1771 : 
; 1772 : 	pMsg.m_btFloorIndex = this->m_btFloorIndex;
; 1773 : 	pMsg.m_btState = btState;
; 1774 : 
; 1775 : 	if(aIndex != -1)

  0001b	8b 45 0c	 mov	 eax, DWORD PTR _aIndex$[ebp]
  0001e	8a 8e 2c 02 00
	00		 mov	 cl, BYTE PTR [esi+556]
  00024	8a 55 08	 mov	 dl, BYTE PTR _btState$[ebp]
  00027	83 c4 10	 add	 esp, 16			; 00000010H
  0002a	88 4d fc	 mov	 BYTE PTR _pMsg$[ebp+4], cl
  0002d	88 55 fd	 mov	 BYTE PTR _pMsg$[ebp+5], dl
  00030	83 f8 ff	 cmp	 eax, -1
  00033	74 19		 je	 SHORT $LN5@NotifyTemp

; 1776 : 	{
; 1777 : 		DataSend(aIndex,(LPBYTE)&pMsg,pMsg.h.size);

  00035	0f b6 4d f9	 movzx	 ecx, BYTE PTR _pMsg$[ebp+1]
  00039	51		 push	 ecx
  0003a	8d 55 f8	 lea	 edx, DWORD PTR _pMsg$[ebp]
  0003d	52		 push	 edx
  0003e	50		 push	 eax
  0003f	e8 00 00 00 00	 call	 ?DataSend@@YAHHPAEK@Z	; DataSend
  00044	83 c4 0c	 add	 esp, 12			; 0000000cH
  00047	5e		 pop	 esi

; 1786 : 		}
; 1787 : 	}
; 1788 : }

  00048	8b e5		 mov	 esp, ebp
  0004a	5d		 pop	 ebp
  0004b	c2 08 00	 ret	 8
$LN5@NotifyTemp:
  0004e	57		 push	 edi

; 1778 : 		return;
; 1779 : 	}
; 1780 : 
; 1781 : 	for(int i = 0; i < MAX_FLOOR_USER; i++)

  0004f	83 c6 20	 add	 esi, 32			; 00000020H
  00052	bf 0a 00 00 00	 mov	 edi, 10			; 0000000aH
$LL11@NotifyTemp:

; 1782 : 	{
; 1783 : 		if(this->m_FloorData[i].m_iTeamPlayerIndex != -1 && gObj[this->m_FloorData[i].m_iTeamPlayerIndex].Connected > PLAYER_LOGGED)

  00057	8b 06		 mov	 eax, DWORD PTR [esi]
  00059	83 f8 ff	 cmp	 eax, -1
  0005c	74 27		 je	 SHORT $LN3@NotifyTemp
  0005e	8b 15 00 00 00
	00		 mov	 edx, DWORD PTR ?gObj@@3PAUOBJECTSTRUCT@@A ; gObj
  00064	8b c8		 mov	 ecx, eax
  00066	69 c9 50 2b 00
	00		 imul	 ecx, 11088		; 00002b50H
  0006c	83 7c 11 04 02	 cmp	 DWORD PTR [ecx+edx+4], 2
  00071	7e 12		 jle	 SHORT $LN3@NotifyTemp

; 1784 : 		{
; 1785 : 			DataSend(this->m_FloorData[i].m_iTeamPlayerIndex,(LPBYTE)&pMsg,pMsg.h.size);

  00073	0f b6 4d f9	 movzx	 ecx, BYTE PTR _pMsg$[ebp+1]
  00077	51		 push	 ecx
  00078	8d 55 f8	 lea	 edx, DWORD PTR _pMsg$[ebp]
  0007b	52		 push	 edx
  0007c	50		 push	 eax
  0007d	e8 00 00 00 00	 call	 ?DataSend@@YAHHPAEK@Z	; DataSend
  00082	83 c4 0c	 add	 esp, 12			; 0000000cH
$LN3@NotifyTemp:

; 1778 : 		return;
; 1779 : 	}
; 1780 : 
; 1781 : 	for(int i = 0; i < MAX_FLOOR_USER; i++)

  00085	83 c6 30	 add	 esi, 48			; 00000030H
  00088	4f		 dec	 edi
  00089	75 cc		 jne	 SHORT $LL11@NotifyTemp
  0008b	5f		 pop	 edi
  0008c	5e		 pop	 esi

; 1786 : 		}
; 1787 : 	}
; 1788 : }

  0008d	8b e5		 mov	 esp, ebp
  0008f	5d		 pop	 ebp
  00090	c2 08 00	 ret	 8
?NotifyTempleInfo@CIllusionTempleProcess@@QAEXEH@Z ENDP	; CIllusionTempleProcess::NotifyTempleInfo
_TEXT	ENDS
PUBLIC	?GetUserJoinSide@CIllusionTempleProcess@@QAEEH@Z ; CIllusionTempleProcess::GetUserJoinSide
; Function compile flags: /Ogtp
;	COMDAT ?GetUserJoinSide@CIllusionTempleProcess@@QAEEH@Z
_TEXT	SEGMENT
_aIndex$ = 8						; size = 4
?GetUserJoinSide@CIllusionTempleProcess@@QAEEH@Z PROC	; CIllusionTempleProcess::GetUserJoinSide, COMDAT
; _this$ = ecx

; 1791 : {

  00000	55		 push	 ebp
  00001	8b ec		 mov	 ebp, esp

; 1792 : 	if( OBJMAX_RANGE(aIndex) == FALSE )

  00003	8b 55 08	 mov	 edx, DWORD PTR _aIndex$[ebp]
  00006	85 d2		 test	 edx, edx
  00008	78 0f		 js	 SHORT $LN9@GetUserJoi
  0000a	33 c0		 xor	 eax, eax
  0000c	81 fa 97 3a 00
	00		 cmp	 edx, 14999		; 00003a97H
  00012	0f 9e c0	 setle	 al
  00015	85 c0		 test	 eax, eax
  00017	75 1e		 jne	 SHORT $LN4@GetUserJoi
$LN9@GetUserJoi:

; 1793 : 	{
; 1794 : 		LogAdd("return %s %d", __FILE__, __LINE__);

  00019	68 02 07 00 00	 push	 1794			; 00000702H
  0001e	68 00 00 00 00	 push	 OFFSET ??_C@_0BK@DMGNFDO@IllusionTempleProcess?4cpp?$AA@
  00023	68 00 00 00 00	 push	 OFFSET ??_C@_0N@GGPGOPEN@return?5?$CFs?5?$CFd?$AA@
  00028	ff 15 00 00 00
	00		 call	 DWORD PTR ?LogAdd@@3P6AXPADZZA ; LogAdd
  0002e	83 c4 0c	 add	 esp, 12			; 0000000cH

; 1795 : 		return -1;

  00031	0c ff		 or	 al, 255			; 000000ffH

; 1807 : }

  00033	5d		 pop	 ebp
  00034	c2 04 00	 ret	 4
$LN4@GetUserJoi:

; 1796 : 	}
; 1797 : 
; 1798 : 	if(gObj[aIndex].m_iIllusionTempleIndex != -1)

  00037	8b c2		 mov	 eax, edx
  00039	69 c0 50 2b 00
	00		 imul	 eax, 11088		; 00002b50H
  0003f	56		 push	 esi
  00040	8b 35 00 00 00
	00		 mov	 esi, DWORD PTR ?gObj@@3PAUOBJECTSTRUCT@@A ; gObj
  00046	03 f0		 add	 esi, eax
  00048	8b 86 78 20 00
	00		 mov	 eax, DWORD PTR [esi+8312]
  0004e	83 f8 ff	 cmp	 eax, -1
  00051	74 1b		 je	 SHORT $LN2@GetUserJoi

; 1799 : 	{
; 1800 : 		if(this->m_FloorData[gObj[aIndex].m_iIllusionTempleIndex].m_iTeamPlayerIndex == aIndex || gObj[aIndex].Connected > PLAYER_LOGGED)

  00053	8d 04 40	 lea	 eax, DWORD PTR [eax+eax*2]
  00056	c1 e0 04	 shl	 eax, 4
  00059	03 c1		 add	 eax, ecx
  0005b	39 50 20	 cmp	 DWORD PTR [eax+32], edx
  0005e	74 06		 je	 SHORT $LN1@GetUserJoi
  00060	83 7e 04 02	 cmp	 DWORD PTR [esi+4], 2
  00064	7e 08		 jle	 SHORT $LN2@GetUserJoi
$LN1@GetUserJoi:

; 1801 : 		{
; 1802 : 			return this->m_FloorData[gObj[aIndex].m_iIllusionTempleIndex].m_btTeamJoinSide;

  00066	8a 40 24	 mov	 al, BYTE PTR [eax+36]
  00069	5e		 pop	 esi

; 1807 : }

  0006a	5d		 pop	 ebp
  0006b	c2 04 00	 ret	 4
$LN2@GetUserJoi:

; 1803 : 		}
; 1804 : 	}
; 1805 : 
; 1806 : 	return -1;

  0006e	0c ff		 or	 al, 255			; 000000ffH
  00070	5e		 pop	 esi

; 1807 : }

  00071	5d		 pop	 ebp
  00072	c2 04 00	 ret	 4
?GetUserJoinSide@CIllusionTempleProcess@@QAEEH@Z ENDP	; CIllusionTempleProcess::GetUserJoinSide
_TEXT	ENDS
PUBLIC	?AddKillPointToUser@CIllusionTempleProcess@@QAEEHE@Z ; CIllusionTempleProcess::AddKillPointToUser
; Function compile flags: /Ogtp
;	COMDAT ?AddKillPointToUser@CIllusionTempleProcess@@QAEEHE@Z
_TEXT	SEGMENT
_aIndex$ = 8						; size = 4
_btPoint$ = 12						; size = 1
?AddKillPointToUser@CIllusionTempleProcess@@QAEEHE@Z PROC ; CIllusionTempleProcess::AddKillPointToUser, COMDAT
; _this$ = ecx

; 1810 : {

  00000	55		 push	 ebp
  00001	8b ec		 mov	 ebp, esp
  00003	56		 push	 esi
  00004	57		 push	 edi

; 1811 : 	if( OBJMAX_RANGE(aIndex) == FALSE )

  00005	8b 7d 08	 mov	 edi, DWORD PTR _aIndex$[ebp]
  00008	8b f1		 mov	 esi, ecx
  0000a	85 ff		 test	 edi, edi
  0000c	78 0f		 js	 SHORT $LN10@AddKillPoi
  0000e	33 c0		 xor	 eax, eax
  00010	81 ff 97 3a 00
	00		 cmp	 edi, 14999		; 00003a97H
  00016	0f 9e c0	 setle	 al
  00019	85 c0		 test	 eax, eax
  0001b	75 20		 jne	 SHORT $LN5@AddKillPoi
$LN10@AddKillPoi:

; 1812 : 	{
; 1813 : 		LogAdd("return %s %d", __FILE__, __LINE__);

  0001d	68 15 07 00 00	 push	 1813			; 00000715H
  00022	68 00 00 00 00	 push	 OFFSET ??_C@_0BK@DMGNFDO@IllusionTempleProcess?4cpp?$AA@
  00027	68 00 00 00 00	 push	 OFFSET ??_C@_0N@GGPGOPEN@return?5?$CFs?5?$CFd?$AA@
  0002c	ff 15 00 00 00
	00		 call	 DWORD PTR ?LogAdd@@3P6AXPADZZA ; LogAdd
  00032	83 c4 0c	 add	 esp, 12			; 0000000cH
  00035	5f		 pop	 edi

; 1814 : 		return FALSE;

  00036	32 c0		 xor	 al, al
  00038	5e		 pop	 esi

; 1833 : }

  00039	5d		 pop	 ebp
  0003a	c2 08 00	 ret	 8
$LN5@AddKillPoi:

; 1815 : 	}
; 1816 : 
; 1817 : 	if(gObj[aIndex].m_iIllusionTempleIndex != -1)

  0003d	8b c7		 mov	 eax, edi
  0003f	69 c0 50 2b 00
	00		 imul	 eax, 11088		; 00002b50H
  00045	53		 push	 ebx
  00046	8b 1d 00 00 00
	00		 mov	 ebx, DWORD PTR ?gObj@@3PAUOBJECTSTRUCT@@A ; gObj
  0004c	8b 94 18 78 20
	00 00		 mov	 edx, DWORD PTR [eax+ebx+8312]
  00053	8d 8c 18 78 20
	00 00		 lea	 ecx, DWORD PTR [eax+ebx+8312]
  0005a	83 fa ff	 cmp	 edx, -1
  0005d	74 5f		 je	 SHORT $LN3@AddKillPoi

; 1818 : 	{
; 1819 : 		if(this->m_FloorData[gObj[aIndex].m_iIllusionTempleIndex].m_iTeamPlayerIndex == aIndex || gObj[aIndex].Connected > PLAYER_LOGGED)

  0005f	8d 14 52	 lea	 edx, DWORD PTR [edx+edx*2]
  00062	03 d2		 add	 edx, edx
  00064	39 7c d6 20	 cmp	 DWORD PTR [esi+edx*8+32], edi
  00068	74 07		 je	 SHORT $LN2@AddKillPoi
  0006a	83 7c 18 04 02	 cmp	 DWORD PTR [eax+ebx+4], 2
  0006f	7e 4d		 jle	 SHORT $LN3@AddKillPoi
$LN2@AddKillPoi:

; 1820 : 		{
; 1821 : 			this->m_FloorData[gObj[aIndex].m_iIllusionTempleIndex].m_btKillCountPoint += btPoint;

  00071	8b 11		 mov	 edx, DWORD PTR [ecx]
  00073	8d 0c 52	 lea	 ecx, DWORD PTR [edx+edx*2]
  00076	03 c9		 add	 ecx, ecx
  00078	8d 54 ce 25	 lea	 edx, DWORD PTR [esi+ecx*8+37]
  0007c	8a 4d 0c	 mov	 cl, BYTE PTR _btPoint$[ebp]
  0007f	00 0a		 add	 BYTE PTR [edx], cl

; 1822 : 
; 1823 : 			if(this->m_FloorData[gObj[aIndex].m_iIllusionTempleIndex].m_btKillCountPoint > 90)

  00081	8b 15 00 00 00
	00		 mov	 edx, DWORD PTR ?gObj@@3PAUOBJECTSTRUCT@@A ; gObj
  00087	8b 94 10 78 20
	00 00		 mov	 edx, DWORD PTR [eax+edx+8312]
  0008e	8d 0c 52	 lea	 ecx, DWORD PTR [edx+edx*2]
  00091	03 c9		 add	 ecx, ecx
  00093	80 7c ce 25 5a	 cmp	 BYTE PTR [esi+ecx*8+37], 90 ; 0000005aH
  00098	8d 4c ce 25	 lea	 ecx, DWORD PTR [esi+ecx*8+37]
  0009c	76 03		 jbe	 SHORT $LN1@AddKillPoi

; 1824 : 			{
; 1825 : 				this->m_FloorData[gObj[aIndex].m_iIllusionTempleIndex].m_btKillCountPoint = 90;

  0009e	c6 01 5a	 mov	 BYTE PTR [ecx], 90	; 0000005aH
$LN1@AddKillPoi:

; 1826 : 			}
; 1827 : 
; 1828 : 			return this->m_FloorData[gObj[aIndex].m_iIllusionTempleIndex].m_btKillCountPoint;

  000a1	8b 15 00 00 00
	00		 mov	 edx, DWORD PTR ?gObj@@3PAUOBJECTSTRUCT@@A ; gObj
  000a7	8b 84 10 78 20
	00 00		 mov	 eax, DWORD PTR [eax+edx+8312]
  000ae	8d 04 40	 lea	 eax, DWORD PTR [eax+eax*2]
  000b1	5b		 pop	 ebx
  000b2	03 c0		 add	 eax, eax
  000b4	8a 44 c6 25	 mov	 al, BYTE PTR [esi+eax*8+37]
  000b8	5f		 pop	 edi
  000b9	5e		 pop	 esi

; 1833 : }

  000ba	5d		 pop	 ebp
  000bb	c2 08 00	 ret	 8
$LN3@AddKillPoi:
  000be	5b		 pop	 ebx
  000bf	5f		 pop	 edi

; 1829 : 		}
; 1830 : 	}
; 1831 : 
; 1832 : 	return FALSE;

  000c0	32 c0		 xor	 al, al
  000c2	5e		 pop	 esi

; 1833 : }

  000c3	5d		 pop	 ebp
  000c4	c2 08 00	 ret	 8
?AddKillPointToUser@CIllusionTempleProcess@@QAEEHE@Z ENDP ; CIllusionTempleProcess::AddKillPointToUser
_TEXT	ENDS
PUBLIC	?RemoveKillPointFromUser@CIllusionTempleProcess@@QAEEHE@Z ; CIllusionTempleProcess::RemoveKillPointFromUser
; Function compile flags: /Ogtp
;	COMDAT ?RemoveKillPointFromUser@CIllusionTempleProcess@@QAEEHE@Z
_TEXT	SEGMENT
_aIndex$ = 8						; size = 4
_btPoint$ = 12						; size = 1
?RemoveKillPointFromUser@CIllusionTempleProcess@@QAEEHE@Z PROC ; CIllusionTempleProcess::RemoveKillPointFromUser, COMDAT
; _this$ = ecx

; 1836 : {

  00000	55		 push	 ebp
  00001	8b ec		 mov	 ebp, esp
  00003	56		 push	 esi
  00004	8b f1		 mov	 esi, ecx

; 1837 : 	if( OBJMAX_RANGE(aIndex) == FALSE )

  00006	8b 4d 08	 mov	 ecx, DWORD PTR _aIndex$[ebp]
  00009	85 c9		 test	 ecx, ecx
  0000b	78 0f		 js	 SHORT $LN10@RemoveKill
  0000d	33 c0		 xor	 eax, eax
  0000f	81 f9 97 3a 00
	00		 cmp	 ecx, 14999		; 00003a97H
  00015	0f 9e c0	 setle	 al
  00018	85 c0		 test	 eax, eax
  0001a	75 1f		 jne	 SHORT $LN5@RemoveKill
$LN10@RemoveKill:

; 1838 : 	{
; 1839 : 		LogAdd("return %s %d", __FILE__, __LINE__);

  0001c	68 2f 07 00 00	 push	 1839			; 0000072fH
  00021	68 00 00 00 00	 push	 OFFSET ??_C@_0BK@DMGNFDO@IllusionTempleProcess?4cpp?$AA@
  00026	68 00 00 00 00	 push	 OFFSET ??_C@_0N@GGPGOPEN@return?5?$CFs?5?$CFd?$AA@
  0002b	ff 15 00 00 00
	00		 call	 DWORD PTR ?LogAdd@@3P6AXPADZZA ; LogAdd
  00031	83 c4 0c	 add	 esp, 12			; 0000000cH

; 1840 : 		return FALSE;

  00034	32 c0		 xor	 al, al
  00036	5e		 pop	 esi

; 1856 : }

  00037	5d		 pop	 ebp
  00038	c2 08 00	 ret	 8
$LN5@RemoveKill:

; 1841 : 	}
; 1842 : 
; 1843 : 	if(gObj[aIndex].m_iIllusionTempleIndex != -1)

  0003b	8b c1		 mov	 eax, ecx
  0003d	69 c0 50 2b 00
	00		 imul	 eax, 11088		; 00002b50H
  00043	53		 push	 ebx
  00044	8b 1d 00 00 00
	00		 mov	 ebx, DWORD PTR ?gObj@@3PAUOBJECTSTRUCT@@A ; gObj
  0004a	8b 94 18 78 20
	00 00		 mov	 edx, DWORD PTR [eax+ebx+8312]
  00051	57		 push	 edi
  00052	8d bc 18 78 20
	00 00		 lea	 edi, DWORD PTR [eax+ebx+8312]
  00059	83 fa ff	 cmp	 edx, -1
  0005c	74 47		 je	 SHORT $LN1@RemoveKill

; 1844 : 	{
; 1845 : 		if(this->m_FloorData[gObj[aIndex].m_iIllusionTempleIndex].m_iTeamPlayerIndex == aIndex || gObj[aIndex].Connected > PLAYER_LOGGED)

  0005e	8d 14 52	 lea	 edx, DWORD PTR [edx+edx*2]
  00061	03 d2		 add	 edx, edx
  00063	39 4c d6 20	 cmp	 DWORD PTR [esi+edx*8+32], ecx
  00067	74 07		 je	 SHORT $LN2@RemoveKill
  00069	83 7c 18 04 02	 cmp	 DWORD PTR [eax+ebx+4], 2
  0006e	7e 35		 jle	 SHORT $LN1@RemoveKill
$LN2@RemoveKill:

; 1846 : 		{
; 1847 : 			if(this->m_FloorData[gObj[aIndex].m_iIllusionTempleIndex].m_btKillCountPoint >= btPoint)

  00070	8a 4d 0c	 mov	 cl, BYTE PTR _btPoint$[ebp]
  00073	38 4c d6 25	 cmp	 BYTE PTR [esi+edx*8+37], cl
  00077	72 2c		 jb	 SHORT $LN1@RemoveKill

; 1848 : 			{
; 1849 : 				this->m_FloorData[gObj[aIndex].m_iIllusionTempleIndex].m_btKillCountPoint-= btPoint;

  00079	8b 17		 mov	 edx, DWORD PTR [edi]
  0007b	8d 14 52	 lea	 edx, DWORD PTR [edx+edx*2]
  0007e	03 d2		 add	 edx, edx
  00080	28 4c d6 25	 sub	 BYTE PTR [esi+edx*8+37], cl

; 1850 : 				return this->m_FloorData[gObj[aIndex].m_iIllusionTempleIndex].m_btKillCountPoint;

  00084	8b 0d 00 00 00
	00		 mov	 ecx, DWORD PTR ?gObj@@3PAUOBJECTSTRUCT@@A ; gObj
  0008a	8b 84 08 78 20
	00 00		 mov	 eax, DWORD PTR [eax+ecx+8312]
  00091	8d 54 d6 25	 lea	 edx, DWORD PTR [esi+edx*8+37]
  00095	8d 14 40	 lea	 edx, DWORD PTR [eax+eax*2]
  00098	5f		 pop	 edi
  00099	03 d2		 add	 edx, edx
  0009b	8a 44 d6 25	 mov	 al, BYTE PTR [esi+edx*8+37]
  0009f	5b		 pop	 ebx
  000a0	5e		 pop	 esi

; 1856 : }

  000a1	5d		 pop	 ebp
  000a2	c2 08 00	 ret	 8
$LN1@RemoveKill:
  000a5	5f		 pop	 edi
  000a6	5b		 pop	 ebx

; 1851 : 			}
; 1852 : 		}
; 1853 : 	}
; 1854 : 
; 1855 : 	return FALSE;

  000a7	32 c0		 xor	 al, al
  000a9	5e		 pop	 esi

; 1856 : }

  000aa	5d		 pop	 ebp
  000ab	c2 08 00	 ret	 8
?RemoveKillPointFromUser@CIllusionTempleProcess@@QAEEHE@Z ENDP ; CIllusionTempleProcess::RemoveKillPointFromUser
_TEXT	ENDS
PUBLIC	?GetKillCountPointFromUser@CIllusionTempleProcess@@QAEEH@Z ; CIllusionTempleProcess::GetKillCountPointFromUser
; Function compile flags: /Ogtp
;	COMDAT ?GetKillCountPointFromUser@CIllusionTempleProcess@@QAEEH@Z
_TEXT	SEGMENT
_aIndex$ = 8						; size = 4
?GetKillCountPointFromUser@CIllusionTempleProcess@@QAEEH@Z PROC ; CIllusionTempleProcess::GetKillCountPointFromUser, COMDAT
; _this$ = ecx

; 1859 : {

  00000	55		 push	 ebp
  00001	8b ec		 mov	 ebp, esp

; 1860 : 	if( OBJMAX_RANGE(aIndex) == FALSE )

  00003	8b 55 08	 mov	 edx, DWORD PTR _aIndex$[ebp]
  00006	85 d2		 test	 edx, edx
  00008	78 0f		 js	 SHORT $LN9@GetKillCou
  0000a	33 c0		 xor	 eax, eax
  0000c	81 fa 97 3a 00
	00		 cmp	 edx, 14999		; 00003a97H
  00012	0f 9e c0	 setle	 al
  00015	85 c0		 test	 eax, eax
  00017	75 1e		 jne	 SHORT $LN4@GetKillCou
$LN9@GetKillCou:

; 1861 : 	{
; 1862 : 		LogAdd("return %s %d", __FILE__, __LINE__);

  00019	68 46 07 00 00	 push	 1862			; 00000746H
  0001e	68 00 00 00 00	 push	 OFFSET ??_C@_0BK@DMGNFDO@IllusionTempleProcess?4cpp?$AA@
  00023	68 00 00 00 00	 push	 OFFSET ??_C@_0N@GGPGOPEN@return?5?$CFs?5?$CFd?$AA@
  00028	ff 15 00 00 00
	00		 call	 DWORD PTR ?LogAdd@@3P6AXPADZZA ; LogAdd
  0002e	83 c4 0c	 add	 esp, 12			; 0000000cH

; 1863 : 		return FALSE;

  00031	32 c0		 xor	 al, al

; 1875 : }

  00033	5d		 pop	 ebp
  00034	c2 04 00	 ret	 4
$LN4@GetKillCou:

; 1864 : 	}
; 1865 : 
; 1866 : 	if(gObj[aIndex].m_iIllusionTempleIndex != -1)

  00037	8b c2		 mov	 eax, edx
  00039	69 c0 50 2b 00
	00		 imul	 eax, 11088		; 00002b50H
  0003f	56		 push	 esi
  00040	8b 35 00 00 00
	00		 mov	 esi, DWORD PTR ?gObj@@3PAUOBJECTSTRUCT@@A ; gObj
  00046	03 f0		 add	 esi, eax
  00048	8b 86 78 20 00
	00		 mov	 eax, DWORD PTR [esi+8312]
  0004e	83 f8 ff	 cmp	 eax, -1
  00051	74 1b		 je	 SHORT $LN2@GetKillCou

; 1867 : 	{
; 1868 : 		if(this->m_FloorData[gObj[aIndex].m_iIllusionTempleIndex].m_iTeamPlayerIndex == aIndex || gObj[aIndex].Connected > PLAYER_LOGGED)

  00053	8d 04 40	 lea	 eax, DWORD PTR [eax+eax*2]
  00056	c1 e0 04	 shl	 eax, 4
  00059	03 c1		 add	 eax, ecx
  0005b	39 50 20	 cmp	 DWORD PTR [eax+32], edx
  0005e	74 06		 je	 SHORT $LN1@GetKillCou
  00060	83 7e 04 02	 cmp	 DWORD PTR [esi+4], 2
  00064	7e 08		 jle	 SHORT $LN2@GetKillCou
$LN1@GetKillCou:

; 1869 : 		{
; 1870 : 			return this->m_FloorData[gObj[aIndex].m_iIllusionTempleIndex].m_btKillCountPoint;

  00066	8a 40 25	 mov	 al, BYTE PTR [eax+37]
  00069	5e		 pop	 esi

; 1875 : }

  0006a	5d		 pop	 ebp
  0006b	c2 04 00	 ret	 4
$LN2@GetKillCou:

; 1871 : 		}
; 1872 : 	}
; 1873 : 
; 1874 : 	return FALSE;

  0006e	32 c0		 xor	 al, al
  00070	5e		 pop	 esi

; 1875 : }

  00071	5d		 pop	 ebp
  00072	c2 04 00	 ret	 4
?GetKillCountPointFromUser@CIllusionTempleProcess@@QAEEH@Z ENDP ; CIllusionTempleProcess::GetKillCountPointFromUser
_TEXT	ENDS
PUBLIC	?UpdateKillCountPointFromUser@CIllusionTempleProcess@@QAEHHE@Z ; CIllusionTempleProcess::UpdateKillCountPointFromUser
; Function compile flags: /Ogtp
;	COMDAT ?UpdateKillCountPointFromUser@CIllusionTempleProcess@@QAEHHE@Z
_TEXT	SEGMENT
_aIndex$ = 8						; size = 4
_btPoint$ = 12						; size = 1
?UpdateKillCountPointFromUser@CIllusionTempleProcess@@QAEHHE@Z PROC ; CIllusionTempleProcess::UpdateKillCountPointFromUser, COMDAT
; _this$ = ecx

; 1878 : {

  00000	55		 push	 ebp
  00001	8b ec		 mov	 ebp, esp

; 1879 : 	if( OBJMAX_RANGE(aIndex) == FALSE )

  00003	8b 55 08	 mov	 edx, DWORD PTR _aIndex$[ebp]
  00006	85 d2		 test	 edx, edx
  00008	78 0f		 js	 SHORT $LN9@UpdateKill
  0000a	33 c0		 xor	 eax, eax
  0000c	81 fa 97 3a 00
	00		 cmp	 edx, 14999		; 00003a97H
  00012	0f 9e c0	 setle	 al
  00015	85 c0		 test	 eax, eax
  00017	75 1e		 jne	 SHORT $LN4@UpdateKill
$LN9@UpdateKill:

; 1880 : 	{
; 1881 : 		LogAdd("return %s %d", __FILE__, __LINE__);

  00019	68 59 07 00 00	 push	 1881			; 00000759H
  0001e	68 00 00 00 00	 push	 OFFSET ??_C@_0BK@DMGNFDO@IllusionTempleProcess?4cpp?$AA@
  00023	68 00 00 00 00	 push	 OFFSET ??_C@_0N@GGPGOPEN@return?5?$CFs?5?$CFd?$AA@
  00028	ff 15 00 00 00
	00		 call	 DWORD PTR ?LogAdd@@3P6AXPADZZA ; LogAdd
  0002e	83 c4 0c	 add	 esp, 12			; 0000000cH

; 1882 : 		return FALSE;

  00031	33 c0		 xor	 eax, eax

; 1895 : }

  00033	5d		 pop	 ebp
  00034	c2 08 00	 ret	 8
$LN4@UpdateKill:

; 1883 : 	}
; 1884 : 
; 1885 : 	if(gObj[aIndex].m_iIllusionTempleIndex != -1)

  00037	8b c2		 mov	 eax, edx
  00039	69 c0 50 2b 00
	00		 imul	 eax, 11088		; 00002b50H
  0003f	56		 push	 esi
  00040	8b 35 00 00 00
	00		 mov	 esi, DWORD PTR ?gObj@@3PAUOBJECTSTRUCT@@A ; gObj
  00046	03 f0		 add	 esi, eax
  00048	8b 86 78 20 00
	00		 mov	 eax, DWORD PTR [esi+8312]
  0004e	83 f8 ff	 cmp	 eax, -1
  00051	74 23		 je	 SHORT $LN2@UpdateKill

; 1886 : 	{
; 1887 : 		if(this->m_FloorData[gObj[aIndex].m_iIllusionTempleIndex].m_iTeamPlayerIndex == aIndex || gObj[aIndex].Connected > PLAYER_LOGGED)

  00053	8d 04 40	 lea	 eax, DWORD PTR [eax+eax*2]
  00056	c1 e0 04	 shl	 eax, 4
  00059	03 c1		 add	 eax, ecx
  0005b	39 50 20	 cmp	 DWORD PTR [eax+32], edx
  0005e	74 06		 je	 SHORT $LN1@UpdateKill
  00060	83 7e 04 02	 cmp	 DWORD PTR [esi+4], 2
  00064	7e 10		 jle	 SHORT $LN2@UpdateKill
$LN1@UpdateKill:

; 1888 : 		{
; 1889 : 			this->m_FloorData[gObj[aIndex].m_iIllusionTempleIndex].m_btKillCountPoint = btPoint;

  00066	8a 4d 0c	 mov	 cl, BYTE PTR _btPoint$[ebp]
  00069	88 48 25	 mov	 BYTE PTR [eax+37], cl

; 1890 : 			return TRUE;

  0006c	b8 01 00 00 00	 mov	 eax, 1
  00071	5e		 pop	 esi

; 1895 : }

  00072	5d		 pop	 ebp
  00073	c2 08 00	 ret	 8
$LN2@UpdateKill:

; 1891 : 		}
; 1892 : 	}
; 1893 : 
; 1894 : 	return FALSE;

  00076	33 c0		 xor	 eax, eax
  00078	5e		 pop	 esi

; 1895 : }

  00079	5d		 pop	 ebp
  0007a	c2 08 00	 ret	 8
?UpdateKillCountPointFromUser@CIllusionTempleProcess@@QAEHHE@Z ENDP ; CIllusionTempleProcess::UpdateKillCountPointFromUser
_TEXT	ENDS
PUBLIC	?ResetUserKillCountPoint@CIllusionTempleProcess@@QAEXXZ ; CIllusionTempleProcess::ResetUserKillCountPoint
; Function compile flags: /Ogtp
;	COMDAT ?ResetUserKillCountPoint@CIllusionTempleProcess@@QAEXXZ
_TEXT	SEGMENT
?ResetUserKillCountPoint@CIllusionTempleProcess@@QAEXXZ PROC ; CIllusionTempleProcess::ResetUserKillCountPoint, COMDAT
; _this$ = ecx

; 1899 : 	for(int i = 0; i < MAX_FLOOR_USER; i++)
; 1900 : 	{
; 1901 : 		this->m_FloorData[i].m_btKillCountPoint = MAX_FLOOR_USER;

  00000	b0 0a		 mov	 al, 10			; 0000000aH
  00002	88 41 25	 mov	 BYTE PTR [ecx+37], al
  00005	88 41 55	 mov	 BYTE PTR [ecx+85], al
  00008	88 81 85 00 00
	00		 mov	 BYTE PTR [ecx+133], al
  0000e	88 81 b5 00 00
	00		 mov	 BYTE PTR [ecx+181], al
  00014	88 81 e5 00 00
	00		 mov	 BYTE PTR [ecx+229], al
  0001a	88 81 15 01 00
	00		 mov	 BYTE PTR [ecx+277], al
  00020	88 81 45 01 00
	00		 mov	 BYTE PTR [ecx+325], al
  00026	88 81 75 01 00
	00		 mov	 BYTE PTR [ecx+373], al
  0002c	88 81 a5 01 00
	00		 mov	 BYTE PTR [ecx+421], al
  00032	88 81 d5 01 00
	00		 mov	 BYTE PTR [ecx+469], al

; 1902 : 	}
; 1903 : }

  00038	c3		 ret	 0
?ResetUserKillCountPoint@CIllusionTempleProcess@@QAEXXZ ENDP ; CIllusionTempleProcess::ResetUserKillCountPoint
_TEXT	ENDS
PUBLIC	?IncreaseUserKillCount@CIllusionTempleProcess@@QAEXH@Z ; CIllusionTempleProcess::IncreaseUserKillCount
; Function compile flags: /Ogtp
;	COMDAT ?IncreaseUserKillCount@CIllusionTempleProcess@@QAEXH@Z
_TEXT	SEGMENT
_aIndex$ = 8						; size = 4
?IncreaseUserKillCount@CIllusionTempleProcess@@QAEXH@Z PROC ; CIllusionTempleProcess::IncreaseUserKillCount, COMDAT
; _this$ = ecx

; 1906 : {

  00000	55		 push	 ebp
  00001	8b ec		 mov	 ebp, esp

; 1907 : 	if( OBJMAX_RANGE(aIndex) == FALSE )

  00003	8b 55 08	 mov	 edx, DWORD PTR _aIndex$[ebp]
  00006	85 d2		 test	 edx, edx
  00008	78 0f		 js	 SHORT $LN10@IncreaseUs
  0000a	33 c0		 xor	 eax, eax
  0000c	81 fa 97 3a 00
	00		 cmp	 edx, 14999		; 00003a97H
  00012	0f 9e c0	 setle	 al
  00015	85 c0		 test	 eax, eax
  00017	75 1c		 jne	 SHORT $LN5@IncreaseUs
$LN10@IncreaseUs:

; 1908 : 	{
; 1909 : 		LogAdd("return %s %d", __FILE__, __LINE__);

  00019	68 75 07 00 00	 push	 1909			; 00000775H
  0001e	68 00 00 00 00	 push	 OFFSET ??_C@_0BK@DMGNFDO@IllusionTempleProcess?4cpp?$AA@
  00023	68 00 00 00 00	 push	 OFFSET ??_C@_0N@GGPGOPEN@return?5?$CFs?5?$CFd?$AA@
  00028	ff 15 00 00 00
	00		 call	 DWORD PTR ?LogAdd@@3P6AXPADZZA ; LogAdd
  0002e	83 c4 0c	 add	 esp, 12			; 0000000cH

; 1922 : 		}
; 1923 : 	}
; 1924 : }

  00031	5d		 pop	 ebp
  00032	c2 04 00	 ret	 4
$LN5@IncreaseUs:

; 1910 : 		return;
; 1911 : 	}
; 1912 : 
; 1913 : 	if(gObj[aIndex].m_iIllusionTempleIndex != -1)

  00035	8b c2		 mov	 eax, edx
  00037	69 c0 50 2b 00
	00		 imul	 eax, 11088		; 00002b50H
  0003d	56		 push	 esi
  0003e	8b 35 00 00 00
	00		 mov	 esi, DWORD PTR ?gObj@@3PAUOBJECTSTRUCT@@A ; gObj
  00044	03 f0		 add	 esi, eax
  00046	8b 86 78 20 00
	00		 mov	 eax, DWORD PTR [esi+8312]
  0004c	83 f8 ff	 cmp	 eax, -1
  0004f	74 27		 je	 SHORT $LN11@IncreaseUs

; 1914 : 	{
; 1915 : 		if(this->m_FloorData[gObj[aIndex].m_iIllusionTempleIndex].m_iTeamPlayerIndex == aIndex || gObj[aIndex].Connected > PLAYER_LOGGED)

  00051	8d 04 40	 lea	 eax, DWORD PTR [eax+eax*2]
  00054	03 c0		 add	 eax, eax
  00056	39 54 c1 20	 cmp	 DWORD PTR [ecx+eax*8+32], edx
  0005a	74 06		 je	 SHORT $LN2@IncreaseUs
  0005c	83 7e 04 02	 cmp	 DWORD PTR [esi+4], 2
  00060	7e 16		 jle	 SHORT $LN11@IncreaseUs
$LN2@IncreaseUs:

; 1916 : 		{
; 1917 : 			if(this->m_FloorData[gObj[aIndex].m_iIllusionTempleIndex].m_btUserKillCount > (BYTE)-1)

  00062	80 7c c1 30 ff	 cmp	 BYTE PTR [ecx+eax*8+48], 255 ; 000000ffH
  00067	77 0f		 ja	 SHORT $LN11@IncreaseUs

; 1918 : 			{
; 1919 : 				return;
; 1920 : 			}
; 1921 : 			this->m_FloorData[gObj[aIndex].m_iIllusionTempleIndex].m_btUserKillCount+= 1;

  00069	8b 86 78 20 00
	00		 mov	 eax, DWORD PTR [esi+8312]
  0006f	8d 44 40 03	 lea	 eax, DWORD PTR [eax+eax*2+3]
  00073	03 c0		 add	 eax, eax
  00075	fe 04 c1	 inc	 BYTE PTR [ecx+eax*8]
$LN11@IncreaseUs:
  00078	5e		 pop	 esi

; 1922 : 		}
; 1923 : 	}
; 1924 : }

  00079	5d		 pop	 ebp
  0007a	c2 04 00	 ret	 4
?IncreaseUserKillCount@CIllusionTempleProcess@@QAEXH@Z ENDP ; CIllusionTempleProcess::IncreaseUserKillCount
_TEXT	ENDS
PUBLIC	?IncreaseMonsterKillCount@CIllusionTempleProcess@@QAEXH@Z ; CIllusionTempleProcess::IncreaseMonsterKillCount
; Function compile flags: /Ogtp
;	COMDAT ?IncreaseMonsterKillCount@CIllusionTempleProcess@@QAEXH@Z
_TEXT	SEGMENT
_aIndex$ = 8						; size = 4
?IncreaseMonsterKillCount@CIllusionTempleProcess@@QAEXH@Z PROC ; CIllusionTempleProcess::IncreaseMonsterKillCount, COMDAT
; _this$ = ecx

; 1927 : {

  00000	55		 push	 ebp
  00001	8b ec		 mov	 ebp, esp

; 1928 : 	if( OBJMAX_RANGE(aIndex) == FALSE )

  00003	8b 55 08	 mov	 edx, DWORD PTR _aIndex$[ebp]
  00006	85 d2		 test	 edx, edx
  00008	78 0f		 js	 SHORT $LN10@IncreaseMo
  0000a	33 c0		 xor	 eax, eax
  0000c	81 fa 97 3a 00
	00		 cmp	 edx, 14999		; 00003a97H
  00012	0f 9e c0	 setle	 al
  00015	85 c0		 test	 eax, eax
  00017	75 1c		 jne	 SHORT $LN5@IncreaseMo
$LN10@IncreaseMo:

; 1929 : 	{
; 1930 : 		LogAdd("return %s %d", __FILE__, __LINE__);

  00019	68 8a 07 00 00	 push	 1930			; 0000078aH
  0001e	68 00 00 00 00	 push	 OFFSET ??_C@_0BK@DMGNFDO@IllusionTempleProcess?4cpp?$AA@
  00023	68 00 00 00 00	 push	 OFFSET ??_C@_0N@GGPGOPEN@return?5?$CFs?5?$CFd?$AA@
  00028	ff 15 00 00 00
	00		 call	 DWORD PTR ?LogAdd@@3P6AXPADZZA ; LogAdd
  0002e	83 c4 0c	 add	 esp, 12			; 0000000cH

; 1943 : 		}
; 1944 : 	}
; 1945 : }

  00031	5d		 pop	 ebp
  00032	c2 04 00	 ret	 4
$LN5@IncreaseMo:

; 1931 : 		return;
; 1932 : 	}
; 1933 : 
; 1934 : 	if(gObj[aIndex].m_iIllusionTempleIndex != -1)

  00035	8b c2		 mov	 eax, edx
  00037	69 c0 50 2b 00
	00		 imul	 eax, 11088		; 00002b50H
  0003d	56		 push	 esi
  0003e	8b 35 00 00 00
	00		 mov	 esi, DWORD PTR ?gObj@@3PAUOBJECTSTRUCT@@A ; gObj
  00044	03 f0		 add	 esi, eax
  00046	8b 86 78 20 00
	00		 mov	 eax, DWORD PTR [esi+8312]
  0004c	83 f8 ff	 cmp	 eax, -1
  0004f	74 2b		 je	 SHORT $LN11@IncreaseMo

; 1935 : 	{
; 1936 : 		if(this->m_FloorData[gObj[aIndex].m_iIllusionTempleIndex].m_iTeamPlayerIndex == aIndex || gObj[aIndex].Connected > PLAYER_LOGGED)

  00051	8d 04 40	 lea	 eax, DWORD PTR [eax+eax*2]
  00054	03 c0		 add	 eax, eax
  00056	39 54 c1 20	 cmp	 DWORD PTR [ecx+eax*8+32], edx
  0005a	74 06		 je	 SHORT $LN2@IncreaseMo
  0005c	83 7e 04 02	 cmp	 DWORD PTR [esi+4], 2
  00060	7e 1a		 jle	 SHORT $LN11@IncreaseMo
$LN2@IncreaseMo:

; 1937 : 		{
; 1938 : 			if(this->m_FloorData[gObj[aIndex].m_iIllusionTempleIndex].m_btMonsterRewardKillCount > (BYTE)-1)

  00062	80 7c c1 31 ff	 cmp	 BYTE PTR [ecx+eax*8+49], 255 ; 000000ffH
  00067	77 13		 ja	 SHORT $LN11@IncreaseMo

; 1939 : 			{
; 1940 : 				return;
; 1941 : 			}
; 1942 : 			this->m_FloorData[gObj[aIndex].m_iIllusionTempleIndex].m_btMonsterRewardKillCount+= 1;

  00069	8b 86 78 20 00
	00		 mov	 eax, DWORD PTR [esi+8312]
  0006f	8d 14 40	 lea	 edx, DWORD PTR [eax+eax*2]
  00072	03 d2		 add	 edx, edx
  00074	fe 44 d1 31	 inc	 BYTE PTR [ecx+edx*8+49]
  00078	8d 44 d1 31	 lea	 eax, DWORD PTR [ecx+edx*8+49]
$LN11@IncreaseMo:
  0007c	5e		 pop	 esi

; 1943 : 		}
; 1944 : 	}
; 1945 : }

  0007d	5d		 pop	 ebp
  0007e	c2 04 00	 ret	 4
?IncreaseMonsterKillCount@CIllusionTempleProcess@@QAEXH@Z ENDP ; CIllusionTempleProcess::IncreaseMonsterKillCount
_TEXT	ENDS
PUBLIC	?ResetAllKillCount@CIllusionTempleProcess@@QAEXXZ ; CIllusionTempleProcess::ResetAllKillCount
; Function compile flags: /Ogtp
;	COMDAT ?ResetAllKillCount@CIllusionTempleProcess@@QAEXXZ
_TEXT	SEGMENT
?ResetAllKillCount@CIllusionTempleProcess@@QAEXXZ PROC	; CIllusionTempleProcess::ResetAllKillCount, COMDAT
; _this$ = ecx

; 1949 : 	for(int i = 0; i < MAX_FLOOR_USER; i++)
; 1950 : 	{
; 1951 : 		this->m_FloorData[i].m_btUserKillCount = 0;

  00000	66 c7 41 30 00
	00		 mov	 WORD PTR [ecx+48], 0
  00006	66 c7 41 60 00
	00		 mov	 WORD PTR [ecx+96], 0
  0000c	66 c7 81 90 00
	00 00 00 00	 mov	 WORD PTR [ecx+144], 0
  00015	66 c7 81 c0 00
	00 00 00 00	 mov	 WORD PTR [ecx+192], 0
  0001e	66 c7 81 f0 00
	00 00 00 00	 mov	 WORD PTR [ecx+240], 0
  00027	66 c7 81 20 01
	00 00 00 00	 mov	 WORD PTR [ecx+288], 0
  00030	66 c7 81 50 01
	00 00 00 00	 mov	 WORD PTR [ecx+336], 0
  00039	66 c7 81 80 01
	00 00 00 00	 mov	 WORD PTR [ecx+384], 0
  00042	66 c7 81 b0 01
	00 00 00 00	 mov	 WORD PTR [ecx+432], 0
  0004b	66 c7 81 e0 01
	00 00 00 00	 mov	 WORD PTR [ecx+480], 0

; 1952 : 		this->m_FloorData[i].m_btMonsterRewardKillCount = 0;
; 1953 : 	}
; 1954 : }

  00054	c3		 ret	 0
?ResetAllKillCount@CIllusionTempleProcess@@QAEXXZ ENDP	; CIllusionTempleProcess::ResetAllKillCount
_TEXT	ENDS
PUBLIC	?IncreaseTeamPlayerReward@CIllusionTempleProcess@@QAEXH@Z ; CIllusionTempleProcess::IncreaseTeamPlayerReward
; Function compile flags: /Ogtp
;	COMDAT ?IncreaseTeamPlayerReward@CIllusionTempleProcess@@QAEXH@Z
_TEXT	SEGMENT
_aIndex$ = 8						; size = 4
?IncreaseTeamPlayerReward@CIllusionTempleProcess@@QAEXH@Z PROC ; CIllusionTempleProcess::IncreaseTeamPlayerReward, COMDAT
; _this$ = ecx

; 1957 : {

  00000	55		 push	 ebp
  00001	8b ec		 mov	 ebp, esp

; 1958 : 	if( OBJMAX_RANGE(aIndex) == FALSE )

  00003	8b 55 08	 mov	 edx, DWORD PTR _aIndex$[ebp]
  00006	85 d2		 test	 edx, edx
  00008	78 0f		 js	 SHORT $LN10@IncreaseTe
  0000a	33 c0		 xor	 eax, eax
  0000c	81 fa 97 3a 00
	00		 cmp	 edx, 14999		; 00003a97H
  00012	0f 9e c0	 setle	 al
  00015	85 c0		 test	 eax, eax
  00017	75 1c		 jne	 SHORT $LN5@IncreaseTe
$LN10@IncreaseTe:

; 1959 : 	{
; 1960 : 		LogAdd("return %s %d", __FILE__, __LINE__);

  00019	68 a8 07 00 00	 push	 1960			; 000007a8H
  0001e	68 00 00 00 00	 push	 OFFSET ??_C@_0BK@DMGNFDO@IllusionTempleProcess?4cpp?$AA@
  00023	68 00 00 00 00	 push	 OFFSET ??_C@_0N@GGPGOPEN@return?5?$CFs?5?$CFd?$AA@
  00028	ff 15 00 00 00
	00		 call	 DWORD PTR ?LogAdd@@3P6AXPADZZA ; LogAdd
  0002e	83 c4 0c	 add	 esp, 12			; 0000000cH

; 1973 : 		}
; 1974 : 	}
; 1975 : }

  00031	5d		 pop	 ebp
  00032	c2 04 00	 ret	 4
$LN5@IncreaseTe:

; 1961 : 		return;
; 1962 : 	}
; 1963 : 
; 1964 : 	if(gObj[aIndex].m_iIllusionTempleIndex != -1)

  00035	8b c2		 mov	 eax, edx
  00037	69 c0 50 2b 00
	00		 imul	 eax, 11088		; 00002b50H
  0003d	56		 push	 esi
  0003e	8b 35 00 00 00
	00		 mov	 esi, DWORD PTR ?gObj@@3PAUOBJECTSTRUCT@@A ; gObj
  00044	03 f0		 add	 esi, eax
  00046	8b 86 78 20 00
	00		 mov	 eax, DWORD PTR [esi+8312]
  0004c	83 f8 ff	 cmp	 eax, -1
  0004f	74 2b		 je	 SHORT $LN11@IncreaseTe

; 1965 : 	{
; 1966 : 		if(this->m_FloorData[gObj[aIndex].m_iIllusionTempleIndex].m_iTeamPlayerIndex == aIndex || gObj[aIndex].Connected > PLAYER_LOGGED)

  00051	8d 04 40	 lea	 eax, DWORD PTR [eax+eax*2]
  00054	03 c0		 add	 eax, eax
  00056	39 54 c1 20	 cmp	 DWORD PTR [ecx+eax*8+32], edx
  0005a	74 06		 je	 SHORT $LN2@IncreaseTe
  0005c	83 7e 04 02	 cmp	 DWORD PTR [esi+4], 2
  00060	7e 1a		 jle	 SHORT $LN11@IncreaseTe
$LN2@IncreaseTe:

; 1967 : 		{
; 1968 : 			if(this->m_FloorData[gObj[aIndex].m_iIllusionTempleIndex].m_btPlayerRewardKillCount > (BYTE)-1)

  00062	80 7c c1 32 ff	 cmp	 BYTE PTR [ecx+eax*8+50], 255 ; 000000ffH
  00067	77 13		 ja	 SHORT $LN11@IncreaseTe

; 1969 : 			{
; 1970 : 				return;
; 1971 : 			}
; 1972 : 			this->m_FloorData[gObj[aIndex].m_iIllusionTempleIndex].m_btPlayerRewardKillCount+= 1;

  00069	8b 86 78 20 00
	00		 mov	 eax, DWORD PTR [esi+8312]
  0006f	8d 14 40	 lea	 edx, DWORD PTR [eax+eax*2]
  00072	03 d2		 add	 edx, edx
  00074	fe 44 d1 32	 inc	 BYTE PTR [ecx+edx*8+50]
  00078	8d 44 d1 32	 lea	 eax, DWORD PTR [ecx+edx*8+50]
$LN11@IncreaseTe:
  0007c	5e		 pop	 esi

; 1973 : 		}
; 1974 : 	}
; 1975 : }

  0007d	5d		 pop	 ebp
  0007e	c2 04 00	 ret	 4
?IncreaseTeamPlayerReward@CIllusionTempleProcess@@QAEXH@Z ENDP ; CIllusionTempleProcess::IncreaseTeamPlayerReward
_TEXT	ENDS
PUBLIC	?ResetPlayerReward@CIllusionTempleProcess@@QAEXXZ ; CIllusionTempleProcess::ResetPlayerReward
; Function compile flags: /Ogtp
;	COMDAT ?ResetPlayerReward@CIllusionTempleProcess@@QAEXXZ
_TEXT	SEGMENT
?ResetPlayerReward@CIllusionTempleProcess@@QAEXXZ PROC	; CIllusionTempleProcess::ResetPlayerReward, COMDAT
; _this$ = ecx

; 1979 : 	for(int i = 0; i < MAX_FLOOR_USER; i++)
; 1980 : 	{
; 1981 : 		this->m_FloorData[i].m_btPlayerRewardKillCount = 0;

  00000	32 c0		 xor	 al, al
  00002	88 41 32	 mov	 BYTE PTR [ecx+50], al
  00005	88 41 62	 mov	 BYTE PTR [ecx+98], al
  00008	88 81 92 00 00
	00		 mov	 BYTE PTR [ecx+146], al
  0000e	88 81 c2 00 00
	00		 mov	 BYTE PTR [ecx+194], al
  00014	88 81 f2 00 00
	00		 mov	 BYTE PTR [ecx+242], al
  0001a	88 81 22 01 00
	00		 mov	 BYTE PTR [ecx+290], al
  00020	88 81 52 01 00
	00		 mov	 BYTE PTR [ecx+338], al
  00026	88 81 82 01 00
	00		 mov	 BYTE PTR [ecx+386], al
  0002c	88 81 b2 01 00
	00		 mov	 BYTE PTR [ecx+434], al
  00032	88 81 e2 01 00
	00		 mov	 BYTE PTR [ecx+482], al

; 1982 : 	}
; 1983 : }

  00038	c3		 ret	 0
?ResetPlayerReward@CIllusionTempleProcess@@QAEXXZ ENDP	; CIllusionTempleProcess::ResetPlayerReward
_TEXT	ENDS
PUBLIC	?IncreaseUsedKillCount@CIllusionTempleProcess@@QAEXH@Z ; CIllusionTempleProcess::IncreaseUsedKillCount
; Function compile flags: /Ogtp
;	COMDAT ?IncreaseUsedKillCount@CIllusionTempleProcess@@QAEXH@Z
_TEXT	SEGMENT
_aIndex$ = 8						; size = 4
?IncreaseUsedKillCount@CIllusionTempleProcess@@QAEXH@Z PROC ; CIllusionTempleProcess::IncreaseUsedKillCount, COMDAT
; _this$ = ecx

; 1986 : {

  00000	55		 push	 ebp
  00001	8b ec		 mov	 ebp, esp

; 1987 : 	if( OBJMAX_RANGE(aIndex) == FALSE )

  00003	8b 55 08	 mov	 edx, DWORD PTR _aIndex$[ebp]
  00006	85 d2		 test	 edx, edx
  00008	78 0f		 js	 SHORT $LN10@IncreaseUs@2
  0000a	33 c0		 xor	 eax, eax
  0000c	81 fa 97 3a 00
	00		 cmp	 edx, 14999		; 00003a97H
  00012	0f 9e c0	 setle	 al
  00015	85 c0		 test	 eax, eax
  00017	75 1c		 jne	 SHORT $LN5@IncreaseUs@2
$LN10@IncreaseUs@2:

; 1988 : 	{
; 1989 : 		LogAdd("return %s %d", __FILE__, __LINE__);

  00019	68 c5 07 00 00	 push	 1989			; 000007c5H
  0001e	68 00 00 00 00	 push	 OFFSET ??_C@_0BK@DMGNFDO@IllusionTempleProcess?4cpp?$AA@
  00023	68 00 00 00 00	 push	 OFFSET ??_C@_0N@GGPGOPEN@return?5?$CFs?5?$CFd?$AA@
  00028	ff 15 00 00 00
	00		 call	 DWORD PTR ?LogAdd@@3P6AXPADZZA ; LogAdd
  0002e	83 c4 0c	 add	 esp, 12			; 0000000cH

; 2002 : 		}
; 2003 : 	}
; 2004 : }

  00031	5d		 pop	 ebp
  00032	c2 04 00	 ret	 4
$LN5@IncreaseUs@2:

; 1990 : 		return;
; 1991 : 	}
; 1992 : 
; 1993 : 	if(gObj[aIndex].m_iIllusionTempleIndex != -1)

  00035	8b c2		 mov	 eax, edx
  00037	69 c0 50 2b 00
	00		 imul	 eax, 11088		; 00002b50H
  0003d	56		 push	 esi
  0003e	8b 35 00 00 00
	00		 mov	 esi, DWORD PTR ?gObj@@3PAUOBJECTSTRUCT@@A ; gObj
  00044	03 f0		 add	 esi, eax
  00046	8b 86 78 20 00
	00		 mov	 eax, DWORD PTR [esi+8312]
  0004c	83 f8 ff	 cmp	 eax, -1
  0004f	74 2b		 je	 SHORT $LN11@IncreaseUs@2

; 1994 : 	{
; 1995 : 		if(this->m_FloorData[gObj[aIndex].m_iIllusionTempleIndex].m_iTeamPlayerIndex == aIndex || gObj[aIndex].Connected > PLAYER_LOGGED)

  00051	8d 04 40	 lea	 eax, DWORD PTR [eax+eax*2]
  00054	03 c0		 add	 eax, eax
  00056	39 54 c1 20	 cmp	 DWORD PTR [ecx+eax*8+32], edx
  0005a	74 06		 je	 SHORT $LN2@IncreaseUs@2
  0005c	83 7e 04 02	 cmp	 DWORD PTR [esi+4], 2
  00060	7e 1a		 jle	 SHORT $LN11@IncreaseUs@2
$LN2@IncreaseUs@2:

; 1996 : 		{
; 1997 : 			if(this->m_FloorData[gObj[aIndex].m_iIllusionTempleIndex].m_btUsedKillCountPoint > (BYTE)-1)

  00062	80 7c c1 33 ff	 cmp	 BYTE PTR [ecx+eax*8+51], 255 ; 000000ffH
  00067	77 13		 ja	 SHORT $LN11@IncreaseUs@2

; 1998 : 			{
; 1999 : 				return;
; 2000 : 			}
; 2001 : 			this->m_FloorData[gObj[aIndex].m_iIllusionTempleIndex].m_btUsedKillCountPoint+= 1;

  00069	8b 86 78 20 00
	00		 mov	 eax, DWORD PTR [esi+8312]
  0006f	8d 14 40	 lea	 edx, DWORD PTR [eax+eax*2]
  00072	03 d2		 add	 edx, edx
  00074	fe 44 d1 33	 inc	 BYTE PTR [ecx+edx*8+51]
  00078	8d 44 d1 33	 lea	 eax, DWORD PTR [ecx+edx*8+51]
$LN11@IncreaseUs@2:
  0007c	5e		 pop	 esi

; 2002 : 		}
; 2003 : 	}
; 2004 : }

  0007d	5d		 pop	 ebp
  0007e	c2 04 00	 ret	 4
?IncreaseUsedKillCount@CIllusionTempleProcess@@QAEXH@Z ENDP ; CIllusionTempleProcess::IncreaseUsedKillCount
_TEXT	ENDS
PUBLIC	?ResetUserUsedKillCount@CIllusionTempleProcess@@QAEXXZ ; CIllusionTempleProcess::ResetUserUsedKillCount
; Function compile flags: /Ogtp
;	COMDAT ?ResetUserUsedKillCount@CIllusionTempleProcess@@QAEXXZ
_TEXT	SEGMENT
?ResetUserUsedKillCount@CIllusionTempleProcess@@QAEXXZ PROC ; CIllusionTempleProcess::ResetUserUsedKillCount, COMDAT
; _this$ = ecx

; 2008 : 	for(int i = 0; i < MAX_FLOOR_USER; i++)
; 2009 : 	{
; 2010 : 		this->m_FloorData[i].m_btUsedKillCountPoint = 0;

  00000	32 c0		 xor	 al, al
  00002	88 41 33	 mov	 BYTE PTR [ecx+51], al
  00005	88 41 63	 mov	 BYTE PTR [ecx+99], al
  00008	88 81 93 00 00
	00		 mov	 BYTE PTR [ecx+147], al
  0000e	88 81 c3 00 00
	00		 mov	 BYTE PTR [ecx+195], al
  00014	88 81 f3 00 00
	00		 mov	 BYTE PTR [ecx+243], al
  0001a	88 81 23 01 00
	00		 mov	 BYTE PTR [ecx+291], al
  00020	88 81 53 01 00
	00		 mov	 BYTE PTR [ecx+339], al
  00026	88 81 83 01 00
	00		 mov	 BYTE PTR [ecx+387], al
  0002c	88 81 b3 01 00
	00		 mov	 BYTE PTR [ecx+435], al
  00032	88 81 e3 01 00
	00		 mov	 BYTE PTR [ecx+483], al

; 2011 : 	}
; 2012 : }

  00038	c3		 ret	 0
?ResetUserUsedKillCount@CIllusionTempleProcess@@QAEXXZ ENDP ; CIllusionTempleProcess::ResetUserUsedKillCount
_TEXT	ENDS
PUBLIC	?GCIllusionTempleSkillCancel@CIllusionTempleProcess@@QAEXPAUOBJECTSTRUCT@@G@Z ; CIllusionTempleProcess::GCIllusionTempleSkillCancel
EXTRN	?MsgSendV2@@YAXPAUOBJECTSTRUCT@@PAEH@Z:PROC	; MsgSendV2
; Function compile flags: /Ogtp
;	COMDAT ?GCIllusionTempleSkillCancel@CIllusionTempleProcess@@QAEXPAUOBJECTSTRUCT@@G@Z
_TEXT	SEGMENT
_pMsg$ = -8						; size = 8
_lpObj$ = 8						; size = 4
_skill$ = 12						; size = 2
?GCIllusionTempleSkillCancel@CIllusionTempleProcess@@QAEXPAUOBJECTSTRUCT@@G@Z PROC ; CIllusionTempleProcess::GCIllusionTempleSkillCancel, COMDAT
; _this$ = ecx

; 2176 : {

  00000	55		 push	 ebp
  00001	8b ec		 mov	 ebp, esp
  00003	83 ec 08	 sub	 esp, 8
  00006	56		 push	 esi

; 2177 : 	PMSG_CANCEL_SKILL_STATE pMsg;
; 2178 : 
; 2179 : 	PHeadSubSetB((LPBYTE)&pMsg, 0xBF, 0x07, sizeof(pMsg));

  00007	6a 08		 push	 8
  00009	6a 07		 push	 7
  0000b	8d 45 f8	 lea	 eax, DWORD PTR _pMsg$[ebp]
  0000e	68 bf 00 00 00	 push	 191			; 000000bfH
  00013	50		 push	 eax
  00014	e8 00 00 00 00	 call	 ?PHeadSubSetB@@YAXPAEEEH@Z ; PHeadSubSetB

; 2180 : 
; 2181 : 	pMsg.m_btSkillIDH = SET_NUMBERH(skill);

  00019	8b 45 0c	 mov	 eax, DWORD PTR _skill$[ebp]

; 2182 : 	pMsg.m_btSkillIDL = SET_NUMBERL(skill);
; 2183 : 
; 2184 : 	pMsg.m_wTargetIndex = lpObj->m_Index;

  0001c	8b 75 08	 mov	 esi, DWORD PTR _lpObj$[ebp]
  0001f	66 8b 16	 mov	 dx, WORD PTR [esi]
  00022	8b c8		 mov	 ecx, eax
  00024	88 45 fd	 mov	 BYTE PTR _pMsg$[ebp+5], al

; 2185 : 
; 2186 : 	DataSend(lpObj->m_Index,(LPBYTE)&pMsg,pMsg.h.size);

  00027	0f b6 45 f9	 movzx	 eax, BYTE PTR _pMsg$[ebp+1]
  0002b	c1 e9 08	 shr	 ecx, 8
  0002e	88 4d fc	 mov	 BYTE PTR _pMsg$[ebp+4], cl
  00031	50		 push	 eax
  00032	8d 4d f8	 lea	 ecx, DWORD PTR _pMsg$[ebp]
  00035	66 89 55 fe	 mov	 WORD PTR _pMsg$[ebp+6], dx
  00039	8b 16		 mov	 edx, DWORD PTR [esi]
  0003b	51		 push	 ecx
  0003c	52		 push	 edx
  0003d	e8 00 00 00 00	 call	 ?DataSend@@YAHHPAEK@Z	; DataSend

; 2187 : 	MsgSendV2(lpObj, (LPBYTE)&pMsg, pMsg.h.size);

  00042	0f b6 45 f9	 movzx	 eax, BYTE PTR _pMsg$[ebp+1]
  00046	50		 push	 eax
  00047	8d 4d f8	 lea	 ecx, DWORD PTR _pMsg$[ebp]
  0004a	51		 push	 ecx
  0004b	56		 push	 esi
  0004c	e8 00 00 00 00	 call	 ?MsgSendV2@@YAXPAUOBJECTSTRUCT@@PAEH@Z ; MsgSendV2
  00051	83 c4 28	 add	 esp, 40			; 00000028H
  00054	5e		 pop	 esi

; 2188 : }

  00055	8b e5		 mov	 esp, ebp
  00057	5d		 pop	 ebp
  00058	c2 08 00	 ret	 8
?GCIllusionTempleSkillCancel@CIllusionTempleProcess@@QAEXPAUOBJECTSTRUCT@@G@Z ENDP ; CIllusionTempleProcess::GCIllusionTempleSkillCancel
_TEXT	ENDS
PUBLIC	?ShieldSpell@CIllusionTempleProcess@@QAEHPAUOBJECTSTRUCT@@@Z ; CIllusionTempleProcess::ShieldSpell
EXTRN	?gObjApplyBuffEffectDuration@@YAEPAUOBJECTSTRUCT@@HEHEHH@Z:PROC ; gObjApplyBuffEffectDuration
; Function compile flags: /Ogtp
;	COMDAT ?ShieldSpell@CIllusionTempleProcess@@QAEHPAUOBJECTSTRUCT@@@Z
_TEXT	SEGMENT
_lpObj$ = 8						; size = 4
?ShieldSpell@CIllusionTempleProcess@@QAEHPAUOBJECTSTRUCT@@@Z PROC ; CIllusionTempleProcess::ShieldSpell, COMDAT
; _this$ = ecx

; 2191 : {

  00000	55		 push	 ebp
  00001	8b ec		 mov	 ebp, esp

; 2192 : 	this->m_FloorData[lpObj->m_iIllusionTempleIndex].m_dwShieldSpellTime = 15;

  00003	8b 55 08	 mov	 edx, DWORD PTR _lpObj$[ebp]
  00006	8b 82 78 20 00
	00		 mov	 eax, DWORD PTR [edx+8312]

; 2193 : 	gObjApplyBuffEffectDuration(lpObj, AT_ILLUSION_SHIELD_SPELL, 0, 0, 0, 0, -10); //season 3.0 add-on

  0000c	6a f6		 push	 -10			; fffffff6H
  0000e	6a 00		 push	 0
  00010	6a 00		 push	 0
  00012	6a 00		 push	 0
  00014	6a 00		 push	 0
  00016	8d 04 40	 lea	 eax, DWORD PTR [eax+eax*2]
  00019	03 c0		 add	 eax, eax
  0001b	6a 22		 push	 34			; 00000022H
  0001d	52		 push	 edx
  0001e	c7 44 c1 28 0f
	00 00 00	 mov	 DWORD PTR [ecx+eax*8+40], 15 ; 0000000fH
  00026	e8 00 00 00 00	 call	 ?gObjApplyBuffEffectDuration@@YAEPAUOBJECTSTRUCT@@HEHEHH@Z ; gObjApplyBuffEffectDuration
  0002b	83 c4 1c	 add	 esp, 28			; 0000001cH

; 2194 : 	return TRUE;

  0002e	b8 01 00 00 00	 mov	 eax, 1

; 2195 : }

  00033	5d		 pop	 ebp
  00034	c2 04 00	 ret	 4
?ShieldSpell@CIllusionTempleProcess@@QAEHPAUOBJECTSTRUCT@@@Z ENDP ; CIllusionTempleProcess::ShieldSpell
_TEXT	ENDS
PUBLIC	?RestrictionSpell@CIllusionTempleProcess@@QAEHPAUOBJECTSTRUCT@@0@Z ; CIllusionTempleProcess::RestrictionSpell
EXTRN	?gObjSetPosition@@YAXHHH@Z:PROC			; gObjSetPosition
EXTRN	?gCheckSkillDistance@@YAHHHH@Z:PROC		; gCheckSkillDistance
; Function compile flags: /Ogtp
;	COMDAT ?RestrictionSpell@CIllusionTempleProcess@@QAEHPAUOBJECTSTRUCT@@0@Z
_TEXT	SEGMENT
_lpObj$ = 8						; size = 4
_lpTargetObj$ = 12					; size = 4
?RestrictionSpell@CIllusionTempleProcess@@QAEHPAUOBJECTSTRUCT@@0@Z PROC ; CIllusionTempleProcess::RestrictionSpell, COMDAT
; _this$ = ecx

; 2198 : {

  00000	55		 push	 ebp
  00001	8b ec		 mov	 ebp, esp
  00003	53		 push	 ebx

; 2199 : 	if(gCheckSkillDistance(lpObj->m_Index, lpTargetObj->m_Index, 211) == FALSE)

  00004	8b 5d 08	 mov	 ebx, DWORD PTR _lpObj$[ebp]
  00007	56		 push	 esi
  00008	8b 75 0c	 mov	 esi, DWORD PTR _lpTargetObj$[ebp]
  0000b	8b 06		 mov	 eax, DWORD PTR [esi]
  0000d	57		 push	 edi
  0000e	68 d3 00 00 00	 push	 211			; 000000d3H
  00013	8b f9		 mov	 edi, ecx
  00015	8b 0b		 mov	 ecx, DWORD PTR [ebx]
  00017	50		 push	 eax
  00018	51		 push	 ecx
  00019	e8 00 00 00 00	 call	 ?gCheckSkillDistance@@YAHHHH@Z ; gCheckSkillDistance
  0001e	83 c4 0c	 add	 esp, 12			; 0000000cH
  00021	85 c0		 test	 eax, eax
  00023	75 07		 jne	 SHORT $LN1@Restrictio
  00025	5f		 pop	 edi
  00026	5e		 pop	 esi
  00027	5b		 pop	 ebx

; 2213 : }

  00028	5d		 pop	 ebp
  00029	c2 08 00	 ret	 8
$LN1@Restrictio:

; 2200 : 	{
; 2201 : 		return FALSE;
; 2202 : 	}
; 2203 : 
; 2204 : 	this->m_FloorData[lpTargetObj->m_iIllusionTempleIndex].m_dwRestrictionSpellTime = 15;

  0002c	8b 86 78 20 00
	00		 mov	 eax, DWORD PTR [esi+8312]
  00032	8d 14 40	 lea	 edx, DWORD PTR [eax+eax*2]
  00035	03 d2		 add	 edx, edx

; 2205 : 
; 2206 : 	lpTargetObj->lpAttackObj = lpObj;
; 2207 : 	gObjApplyBuffEffectDuration(lpTargetObj, AT_ILLUSION_RESTRICTION_SPELL, 0, 0, 0, 0, -10); //season 3.0 add-on

  00037	6a f6		 push	 -10			; fffffff6H
  00039	c7 44 d7 2c 0f
	00 00 00	 mov	 DWORD PTR [edi+edx*8+44], 15 ; 0000000fH
  00041	89 9e d4 03 00
	00		 mov	 DWORD PTR [esi+980], ebx
  00047	33 db		 xor	 ebx, ebx
  00049	53		 push	 ebx
  0004a	53		 push	 ebx
  0004b	53		 push	 ebx
  0004c	53		 push	 ebx
  0004d	6a 41		 push	 65			; 00000041H
  0004f	56		 push	 esi
  00050	e8 00 00 00 00	 call	 ?gObjApplyBuffEffectDuration@@YAEPAUOBJECTSTRUCT@@HEHEHH@Z ; gObjApplyBuffEffectDuration

; 2208 : 	lpTargetObj->PathCount = 0;
; 2209 : 	lpTargetObj->PathStartEnd = 0;
; 2210 : 
; 2211 : 	gObjSetPosition(lpTargetObj->m_Index, lpTargetObj->X, lpTargetObj->Y);

  00055	0f bf 86 46 01
	00 00		 movsx	 eax, WORD PTR [esi+326]
  0005c	0f bf 8e 44 01
	00 00		 movsx	 ecx, WORD PTR [esi+324]
  00063	8b 16		 mov	 edx, DWORD PTR [esi]
  00065	50		 push	 eax
  00066	51		 push	 ecx
  00067	52		 push	 edx
  00068	89 9e 84 01 00
	00		 mov	 DWORD PTR [esi+388], ebx
  0006e	88 9e 8c 01 00
	00		 mov	 BYTE PTR [esi+396], bl
  00074	e8 00 00 00 00	 call	 ?gObjSetPosition@@YAXHHH@Z ; gObjSetPosition
  00079	83 c4 28	 add	 esp, 40			; 00000028H
  0007c	5f		 pop	 edi
  0007d	5e		 pop	 esi

; 2212 : 	return TRUE;

  0007e	8d 43 01	 lea	 eax, DWORD PTR [ebx+1]
  00081	5b		 pop	 ebx

; 2213 : }

  00082	5d		 pop	 ebp
  00083	c2 08 00	 ret	 8
?RestrictionSpell@CIllusionTempleProcess@@QAEHPAUOBJECTSTRUCT@@0@Z ENDP ; CIllusionTempleProcess::RestrictionSpell
_TEXT	ENDS
PUBLIC	?ShieldClashSpell@CIllusionTempleProcess@@QAEHPAUOBJECTSTRUCT@@0@Z ; CIllusionTempleProcess::ShieldClashSpell
EXTRN	?GCDamageSend@@YAXHHHHHH@Z:PROC			; GCDamageSend
; Function compile flags: /Ogtp
;	COMDAT ?ShieldClashSpell@CIllusionTempleProcess@@QAEHPAUOBJECTSTRUCT@@0@Z
_TEXT	SEGMENT
_lpObj$ = 8						; size = 4
_lpTargetObj$ = 12					; size = 4
?ShieldClashSpell@CIllusionTempleProcess@@QAEHPAUOBJECTSTRUCT@@0@Z PROC ; CIllusionTempleProcess::ShieldClashSpell, COMDAT
; _this$ = ecx

; 2276 : {

  00000	55		 push	 ebp
  00001	8b ec		 mov	 ebp, esp
  00003	56		 push	 esi

; 2277 : 	int loc2;
; 2278 : 	if(gCheckSkillDistance(lpObj->m_Index, lpTargetObj->m_Index, 213) == FALSE)

  00004	8b 75 0c	 mov	 esi, DWORD PTR _lpTargetObj$[ebp]
  00007	8b 06		 mov	 eax, DWORD PTR [esi]
  00009	57		 push	 edi
  0000a	8b 7d 08	 mov	 edi, DWORD PTR _lpObj$[ebp]
  0000d	8b 0f		 mov	 ecx, DWORD PTR [edi]
  0000f	68 d5 00 00 00	 push	 213			; 000000d5H
  00014	50		 push	 eax
  00015	51		 push	 ecx
  00016	e8 00 00 00 00	 call	 ?gCheckSkillDistance@@YAHHHH@Z ; gCheckSkillDistance
  0001b	83 c4 0c	 add	 esp, 12			; 0000000cH
  0001e	85 c0		 test	 eax, eax
  00020	75 06		 jne	 SHORT $LN2@ShieldClas
  00022	5f		 pop	 edi
  00023	5e		 pop	 esi

; 2297 : }

  00024	5d		 pop	 ebp
  00025	c2 08 00	 ret	 8
$LN2@ShieldClas:

; 2279 : 	{
; 2280 : 		return FALSE;
; 2281 : 	}
; 2282 : 
; 2283 : 	lpTargetObj->lpAttackObj = lpObj;
; 2284 : 
; 2285 : 	if(lpTargetObj->iShield <= 1)

  00028	8b 86 54 01 00
	00		 mov	 eax, DWORD PTR [esi+340]
  0002e	89 be d4 03 00
	00		 mov	 DWORD PTR [esi+980], edi
  00034	83 f8 01	 cmp	 eax, 1
  00037	7f 21		 jg	 SHORT $LN1@ShieldClas

; 2286 : 	{
; 2287 : 		GCDamageSend(lpObj->m_Index, lpTargetObj->m_Index, 0, 0, 0, 0);

  00039	8b 16		 mov	 edx, DWORD PTR [esi]
  0003b	8b 07		 mov	 eax, DWORD PTR [edi]
  0003d	6a 00		 push	 0
  0003f	6a 00		 push	 0
  00041	6a 00		 push	 0
  00043	6a 00		 push	 0
  00045	52		 push	 edx
  00046	50		 push	 eax

; 2288 : 		return TRUE;
; 2289 : 	}
; 2290 : 
; 2291 : 	loc2 = lpTargetObj->iShield / 2;
; 2292 : 
; 2293 : 	lpTargetObj->iShield = loc2;
; 2294 : 
; 2295 : 	GCDamageSend(lpObj->m_Index, lpTargetObj->m_Index, 0, 0, 0, loc2);

  00047	e8 00 00 00 00	 call	 ?GCDamageSend@@YAXHHHHHH@Z ; GCDamageSend
  0004c	83 c4 18	 add	 esp, 24			; 00000018H
  0004f	5f		 pop	 edi

; 2296 : 	return TRUE;

  00050	b8 01 00 00 00	 mov	 eax, 1
  00055	5e		 pop	 esi

; 2297 : }

  00056	5d		 pop	 ebp
  00057	c2 08 00	 ret	 8
$LN1@ShieldClas:

; 2288 : 		return TRUE;
; 2289 : 	}
; 2290 : 
; 2291 : 	loc2 = lpTargetObj->iShield / 2;
; 2292 : 
; 2293 : 	lpTargetObj->iShield = loc2;
; 2294 : 
; 2295 : 	GCDamageSend(lpObj->m_Index, lpTargetObj->m_Index, 0, 0, 0, loc2);

  0005a	8b 0e		 mov	 ecx, DWORD PTR [esi]
  0005c	99		 cdq
  0005d	2b c2		 sub	 eax, edx
  0005f	d1 f8		 sar	 eax, 1
  00061	50		 push	 eax
  00062	6a 00		 push	 0
  00064	6a 00		 push	 0
  00066	6a 00		 push	 0
  00068	89 86 54 01 00
	00		 mov	 DWORD PTR [esi+340], eax
  0006e	8b 17		 mov	 edx, DWORD PTR [edi]
  00070	51		 push	 ecx
  00071	52		 push	 edx
  00072	e8 00 00 00 00	 call	 ?GCDamageSend@@YAXHHHHHH@Z ; GCDamageSend
  00077	83 c4 18	 add	 esp, 24			; 00000018H
  0007a	5f		 pop	 edi

; 2296 : 	return TRUE;

  0007b	b8 01 00 00 00	 mov	 eax, 1
  00080	5e		 pop	 esi

; 2297 : }

  00081	5d		 pop	 ebp
  00082	c2 08 00	 ret	 8
?ShieldClashSpell@CIllusionTempleProcess@@QAEHPAUOBJECTSTRUCT@@0@Z ENDP ; CIllusionTempleProcess::ShieldClashSpell
_TEXT	ENDS
PUBLIC	__$ArrayPad$
PUBLIC	?GCIllusionTempleSkillApply@CIllusionTempleProcess@@QAEXHHGE@Z ; CIllusionTempleProcess::GCIllusionTempleSkillApply
; Function compile flags: /Ogtp
;	COMDAT ?GCIllusionTempleSkillApply@CIllusionTempleProcess@@QAEXHHGE@Z
_TEXT	SEGMENT
_pMsg$ = -16						; size = 12
__$ArrayPad$ = -4					; size = 4
_aIndex$ = 8						; size = 4
_aTargetIndex$ = 12					; size = 4
_skill$ = 16						; size = 2
_btUseType$ = 20					; size = 1
?GCIllusionTempleSkillApply@CIllusionTempleProcess@@QAEXHHGE@Z PROC ; CIllusionTempleProcess::GCIllusionTempleSkillApply, COMDAT
; _this$ = ecx

; 2300 : {

  00000	55		 push	 ebp
  00001	8b ec		 mov	 ebp, esp
  00003	83 ec 10	 sub	 esp, 16			; 00000010H
  00006	a1 00 00 00 00	 mov	 eax, DWORD PTR ___security_cookie
  0000b	33 c5		 xor	 eax, ebp
  0000d	89 45 fc	 mov	 DWORD PTR __$ArrayPad$[ebp], eax
  00010	53		 push	 ebx
  00011	56		 push	 esi
  00012	8b 75 08	 mov	 esi, DWORD PTR _aIndex$[ebp]

; 2301 : 	PMSG_APPLY_SKILL_STATE pMsg;
; 2302 : 
; 2303 : 	PHeadSubSetB((LPBYTE)&pMsg, 0xBF, 0x02, sizeof(pMsg));

  00015	6a 0c		 push	 12			; 0000000cH
  00017	6a 02		 push	 2
  00019	8d 45 f0	 lea	 eax, DWORD PTR _pMsg$[ebp]
  0001c	68 bf 00 00 00	 push	 191			; 000000bfH
  00021	50		 push	 eax
  00022	e8 00 00 00 00	 call	 ?PHeadSubSetB@@YAXPAEEEH@Z ; PHeadSubSetB

; 2304 : 
; 2305 : 	pMsg.m_btType = btUseType;
; 2306 : 	pMsg.m_btSkillIDH = SET_NUMBERH(skill);

  00027	8b 45 10	 mov	 eax, DWORD PTR _skill$[ebp]

; 2307 : 	pMsg.m_btSkillIDL = SET_NUMBERL(skill);
; 2308 : 	pMsg.m_wIndex = aIndex;
; 2309 : 	pMsg.m_wTargetIndex = aTargetIndex;

  0002a	66 8b 55 0c	 mov	 dx, WORD PTR _aTargetIndex$[ebp]
  0002e	8a 5d 14	 mov	 bl, BYTE PTR _btUseType$[ebp]
  00031	8b c8		 mov	 ecx, eax
  00033	88 45 f6	 mov	 BYTE PTR _pMsg$[ebp+6], al

; 2310 : 
; 2311 : 	DataSend(aIndex,(LPBYTE)&pMsg,pMsg.h.size);

  00036	0f b6 45 f1	 movzx	 eax, BYTE PTR _pMsg$[ebp+1]
  0003a	c1 e9 08	 shr	 ecx, 8
  0003d	88 4d f5	 mov	 BYTE PTR _pMsg$[ebp+5], cl
  00040	50		 push	 eax
  00041	8d 4d f0	 lea	 ecx, DWORD PTR _pMsg$[ebp]
  00044	51		 push	 ecx
  00045	56		 push	 esi
  00046	88 5d f4	 mov	 BYTE PTR _pMsg$[ebp+4], bl
  00049	66 89 75 f8	 mov	 WORD PTR _pMsg$[ebp+8], si
  0004d	66 89 55 fa	 mov	 WORD PTR _pMsg$[ebp+10], dx
  00051	e8 00 00 00 00	 call	 ?DataSend@@YAHHPAEK@Z	; DataSend
  00056	83 c4 1c	 add	 esp, 28			; 0000001cH

; 2312 : 
; 2313 : 	if(btUseType == 1)

  00059	80 fb 01	 cmp	 bl, 1
  0005c	75 1e		 jne	 SHORT $LN1@GCIllusion

; 2314 : 	{
; 2315 : 		MsgSendV2(&gObj[aIndex], (LPBYTE)&pMsg, pMsg.h.size);

  0005e	0f b6 55 f1	 movzx	 edx, BYTE PTR _pMsg$[ebp+1]
  00062	69 f6 50 2b 00
	00		 imul	 esi, 11088		; 00002b50H
  00068	03 35 00 00 00
	00		 add	 esi, DWORD PTR ?gObj@@3PAUOBJECTSTRUCT@@A ; gObj
  0006e	52		 push	 edx
  0006f	8d 45 f0	 lea	 eax, DWORD PTR _pMsg$[ebp]
  00072	50		 push	 eax
  00073	56		 push	 esi
  00074	e8 00 00 00 00	 call	 ?MsgSendV2@@YAXPAUOBJECTSTRUCT@@PAEH@Z ; MsgSendV2
  00079	83 c4 0c	 add	 esp, 12			; 0000000cH
$LN1@GCIllusion:

; 2316 : 	}
; 2317 : }

  0007c	8b 4d fc	 mov	 ecx, DWORD PTR __$ArrayPad$[ebp]
  0007f	5e		 pop	 esi
  00080	33 cd		 xor	 ecx, ebp
  00082	5b		 pop	 ebx
  00083	e8 00 00 00 00	 call	 @__security_check_cookie@4
  00088	8b e5		 mov	 esp, ebp
  0008a	5d		 pop	 ebp
  0008b	c2 10 00	 ret	 16			; 00000010H
?GCIllusionTempleSkillApply@CIllusionTempleProcess@@QAEXHHGE@Z ENDP ; CIllusionTempleProcess::GCIllusionTempleSkillApply
_TEXT	ENDS
PUBLIC	?ResetAndClearSkills@CIllusionTempleProcess@@QAEXPAUOBJECTSTRUCT@@@Z ; CIllusionTempleProcess::ResetAndClearSkills
EXTRN	?gObjRemoveBuffEffect@@YAEPAUOBJECTSTRUCT@@H@Z:PROC ; gObjRemoveBuffEffect
EXTRN	?GCSendIllusionTempleKillCount@@YAXHE@Z:PROC	; GCSendIllusionTempleKillCount
; Function compile flags: /Ogtp
;	COMDAT ?ResetAndClearSkills@CIllusionTempleProcess@@QAEXPAUOBJECTSTRUCT@@@Z
_TEXT	SEGMENT
_lpObj$ = 8						; size = 4
?ResetAndClearSkills@CIllusionTempleProcess@@QAEXPAUOBJECTSTRUCT@@@Z PROC ; CIllusionTempleProcess::ResetAndClearSkills, COMDAT
; _this$ = ecx

; 2320 : {

  00000	55		 push	 ebp
  00001	8b ec		 mov	 ebp, esp
  00003	56		 push	 esi

; 2321 : 	if(lpObj->m_iIllusionTempleIndex == -1 || this->m_FloorData[lpObj->m_iIllusionTempleIndex].m_iTeamPlayerIndex != lpObj->m_Index)

  00004	8b 75 08	 mov	 esi, DWORD PTR _lpObj$[ebp]
  00007	57		 push	 edi
  00008	8b f9		 mov	 edi, ecx
  0000a	8b 8e 78 20 00
	00		 mov	 ecx, DWORD PTR [esi+8312]
  00010	83 f9 ff	 cmp	 ecx, -1
  00013	0f 84 9c 00 00
	00		 je	 $LN3@ResetAndCl
  00019	8b 06		 mov	 eax, DWORD PTR [esi]
  0001b	8d 0c 49	 lea	 ecx, DWORD PTR [ecx+ecx*2]
  0001e	03 c9		 add	 ecx, ecx
  00020	39 44 cf 20	 cmp	 DWORD PTR [edi+ecx*8+32], eax
  00024	0f 85 8b 00 00
	00		 jne	 $LN3@ResetAndCl

; 2322 : 	{
; 2323 : 		return;
; 2324 : 	}
; 2325 : 
; 2326 : 	this->DropRelicsItem(lpObj->m_Index);

  0002a	50		 push	 eax
  0002b	8b cf		 mov	 ecx, edi
  0002d	e8 00 00 00 00	 call	 ?DropRelicsItem@CIllusionTempleProcess@@QAEXH@Z ; CIllusionTempleProcess::DropRelicsItem

; 2327 : 
; 2328 : 	this->m_FloorData[lpObj->m_iIllusionTempleIndex].m_btKillCountPoint = 10;

  00032	8b 86 78 20 00
	00		 mov	 eax, DWORD PTR [esi+8312]
  00038	8d 14 40	 lea	 edx, DWORD PTR [eax+eax*2]
  0003b	03 d2		 add	 edx, edx
  0003d	c6 44 d7 25 0a	 mov	 BYTE PTR [edi+edx*8+37], 10 ; 0000000aH

; 2329 : 
; 2330 : 	GCSendIllusionTempleKillCount(lpObj->m_Index, 10);

  00042	8b 06		 mov	 eax, DWORD PTR [esi]
  00044	6a 0a		 push	 10			; 0000000aH
  00046	50		 push	 eax
  00047	e8 00 00 00 00	 call	 ?GCSendIllusionTempleKillCount@@YAXHE@Z ; GCSendIllusionTempleKillCount

; 2331 : 
; 2332 : 	if(this->m_FloorData[lpObj->m_iIllusionTempleIndex].m_dwShieldSpellTime > 0) //Cancel Shield Skill

  0004c	8b 86 78 20 00
	00		 mov	 eax, DWORD PTR [esi+8312]
  00052	8d 0c 40	 lea	 ecx, DWORD PTR [eax+eax*2]
  00055	03 c9		 add	 ecx, ecx
  00057	8d 44 cf 28	 lea	 eax, DWORD PTR [edi+ecx*8+40]
  0005b	83 c4 08	 add	 esp, 8
  0005e	83 38 00	 cmp	 DWORD PTR [eax], 0
  00061	76 1e		 jbe	 SHORT $LN2@ResetAndCl

; 2333 : 	{
; 2334 : 		this->m_FloorData[lpObj->m_iIllusionTempleIndex].m_dwShieldSpellTime = 0;
; 2335 : 		gObjRemoveBuffEffect(lpObj, AT_ILLUSION_SHIELD_SPELL); //season 3.0 add-on

  00063	6a 22		 push	 34			; 00000022H
  00065	56		 push	 esi
  00066	c7 00 00 00 00
	00		 mov	 DWORD PTR [eax], 0
  0006c	e8 00 00 00 00	 call	 ?gObjRemoveBuffEffect@@YAEPAUOBJECTSTRUCT@@H@Z ; gObjRemoveBuffEffect
  00071	83 c4 08	 add	 esp, 8

; 2336 : 		this->GCIllusionTempleSkillCancel(lpObj, 210);

  00074	68 d2 00 00 00	 push	 210			; 000000d2H
  00079	56		 push	 esi
  0007a	8b cf		 mov	 ecx, edi
  0007c	e8 00 00 00 00	 call	 ?GCIllusionTempleSkillCancel@CIllusionTempleProcess@@QAEXPAUOBJECTSTRUCT@@G@Z ; CIllusionTempleProcess::GCIllusionTempleSkillCancel
$LN2@ResetAndCl:

; 2337 : 	}
; 2338 : 
; 2339 : 	if(this->m_FloorData[lpObj->m_iIllusionTempleIndex].m_dwRestrictionSpellTime > 0) //Cancel Stern Skill

  00081	8b 86 78 20 00
	00		 mov	 eax, DWORD PTR [esi+8312]
  00087	8d 14 40	 lea	 edx, DWORD PTR [eax+eax*2]
  0008a	03 d2		 add	 edx, edx
  0008c	83 7c d7 2c 00	 cmp	 DWORD PTR [edi+edx*8+44], 0
  00091	8d 44 d7 2c	 lea	 eax, DWORD PTR [edi+edx*8+44]
  00095	76 1e		 jbe	 SHORT $LN3@ResetAndCl

; 2340 : 	{
; 2341 : 		this->m_FloorData[lpObj->m_iIllusionTempleIndex].m_dwRestrictionSpellTime = 0;
; 2342 : 		gObjRemoveBuffEffect(lpObj, AT_ILLUSION_RESTRICTION_SPELL); //season 3.0 add-on

  00097	6a 41		 push	 65			; 00000041H
  00099	56		 push	 esi
  0009a	c7 00 00 00 00
	00		 mov	 DWORD PTR [eax], 0
  000a0	e8 00 00 00 00	 call	 ?gObjRemoveBuffEffect@@YAEPAUOBJECTSTRUCT@@H@Z ; gObjRemoveBuffEffect
  000a5	83 c4 08	 add	 esp, 8

; 2343 : 		this->GCIllusionTempleSkillCancel(lpObj, 211);

  000a8	68 d3 00 00 00	 push	 211			; 000000d3H
  000ad	56		 push	 esi
  000ae	8b cf		 mov	 ecx, edi
  000b0	e8 00 00 00 00	 call	 ?GCIllusionTempleSkillCancel@CIllusionTempleProcess@@QAEXPAUOBJECTSTRUCT@@G@Z ; CIllusionTempleProcess::GCIllusionTempleSkillCancel
$LN3@ResetAndCl:
  000b5	5f		 pop	 edi
  000b6	5e		 pop	 esi

; 2344 : 	}
; 2345 : }

  000b7	5d		 pop	 ebp
  000b8	c2 04 00	 ret	 4
?ResetAndClearSkills@CIllusionTempleProcess@@QAEXPAUOBJECTSTRUCT@@@Z ENDP ; CIllusionTempleProcess::ResetAndClearSkills
_TEXT	ENDS
PUBLIC	?DropRewardItem@CIllusionTempleProcess@@QAEXH@Z	; CIllusionTempleProcess::DropRewardItem
EXTRN	?ItemSerialCreateSend@@YAXHEEEHEEEEEHEE@Z:PROC	; ItemSerialCreateSend
EXTRN	?ItemGetNumberMake@@YAHHH@Z:PROC		; ItemGetNumberMake
EXTRN	?GenExcOpt@@YAHH@Z:PROC				; GenExcOpt
EXTRN	?ZtConfig@@3VcZtConfigs@@A:BYTE			; ZtConfig
; Function compile flags: /Ogtp
;	COMDAT ?DropRewardItem@CIllusionTempleProcess@@QAEXH@Z
_TEXT	SEGMENT
_aIndex$ = 8						; size = 4
?DropRewardItem@CIllusionTempleProcess@@QAEXH@Z PROC	; CIllusionTempleProcess::DropRewardItem, COMDAT
; _this$ = ecx

; 2530 : {

  00000	55		 push	 ebp
  00001	8b ec		 mov	 ebp, esp
  00003	56		 push	 esi

; 2531 : 	if( OBJMAX_RANGE(aIndex) == FALSE )

  00004	8b 75 08	 mov	 esi, DWORD PTR _aIndex$[ebp]
  00007	85 f6		 test	 esi, esi
  00009	0f 88 11 01 00
	00		 js	 $LN11@DropReward
  0000f	33 c0		 xor	 eax, eax
  00011	81 fe 97 3a 00
	00		 cmp	 esi, 14999		; 00003a97H
  00017	0f 9e c0	 setle	 al
  0001a	85 c0		 test	 eax, eax
  0001c	0f 84 fe 00 00
	00		 je	 $LN11@DropReward

; 2532 : 	{
; 2533 : 		return;
; 2534 : 	}
; 2535 : 
; 2536 : 	if(this->m_FloorData[gObj[aIndex].m_iIllusionTempleIndex].m_iTeamPlayerIndex != gObj[aIndex].m_Index)

  00022	69 f6 50 2b 00
	00		 imul	 esi, 11088		; 00002b50H
  00028	57		 push	 edi
  00029	8b 3d 00 00 00
	00		 mov	 edi, DWORD PTR ?gObj@@3PAUOBJECTSTRUCT@@A ; gObj
  0002f	8b 84 3e 78 20
	00 00		 mov	 eax, DWORD PTR [esi+edi+8312]
  00036	8d 14 40	 lea	 edx, DWORD PTR [eax+eax*2]
  00039	c1 e2 04	 shl	 edx, 4
  0003c	8b 44 0a 20	 mov	 eax, DWORD PTR [edx+ecx+32]
  00040	03 d1		 add	 edx, ecx
  00042	3b 04 3e	 cmp	 eax, DWORD PTR [esi+edi]
  00045	0f 85 d4 00 00
	00		 jne	 $LN15@DropReward

; 2537 : 	{
; 2538 : 		return;
; 2539 : 	}
; 2540 : 
; 2541 : 	if(this->GetState() != 3)

  0004b	e8 00 00 00 00	 call	 ?GetState@CIllusionTempleProcess@@QAEEXZ ; CIllusionTempleProcess::GetState
  00050	3c 03		 cmp	 al, 3
  00052	0f 85 c7 00 00
	00		 jne	 $LN15@DropReward

; 2542 : 	{
; 2543 : 		return;
; 2544 : 	}
; 2545 : 
; 2546 : 	if(this->m_FloorData[gObj[aIndex].m_iIllusionTempleIndex].m_btTeamJoinSide == (BYTE)-1)

  00058	8a 42 24	 mov	 al, BYTE PTR [edx+36]
  0005b	3c ff		 cmp	 al, 255			; 000000ffH
  0005d	0f 84 bc 00 00
	00		 je	 $LN15@DropReward

; 2547 : 	{
; 2548 : 		return;
; 2549 : 	}
; 2550 : 
; 2551 : 	if(this->m_btWinnerTeam == (BYTE)-1)

  00063	8a 89 d2 03 00
	00		 mov	 cl, BYTE PTR [ecx+978]
  00069	80 f9 ff	 cmp	 cl, 255			; 000000ffH
  0006c	0f 84 ad 00 00
	00		 je	 $LN15@DropReward

; 2552 : 	{
; 2553 : 		return;
; 2554 : 	}
; 2555 : 
; 2556 : 	if(this->m_FloorData[gObj[aIndex].m_iIllusionTempleIndex].m_btTeamJoinSide != this->m_btWinnerTeam)

  00072	3a c1		 cmp	 al, cl
  00074	0f 85 a5 00 00
	00		 jne	 $LN15@DropReward

; 2557 : 	{
; 2558 : 		return;
; 2559 : 	}
; 2560 : 
; 2561 : 	if(this->m_FloorData[gObj[aIndex].m_iIllusionTempleIndex].m_bDropReward == 1)

  0007a	b8 01 00 00 00	 mov	 eax, 1
  0007f	39 42 44	 cmp	 DWORD PTR [edx+68], eax
  00082	0f 84 97 00 00
	00		 je	 $LN15@DropReward

; 2562 : 	{
; 2563 : 		return;
; 2564 : 	}
; 2565 : 
; 2566 : 	this->m_FloorData[gObj[aIndex].m_iIllusionTempleIndex].m_bDropReward = 1;

  00088	89 42 44	 mov	 DWORD PTR [edx+68], eax

; 2567 : 	int loc2 = aIndex;
; 2568 : 	//Configs
; 2569 : 	//int Zt_ItDropType	= GetPrivateProfileInt("IllusionTemple","ItDropType",12,"..\\Data\\ZtData\\Events.ini");
; 2570 : 	//int Zt_ItDropID		= GetPrivateProfileInt("IllusionTemple","ItDropID",15,"..\\Data\\ZtData\\Events.ini");
; 2571 : 	//int Zt_ItDropLevel	= GetPrivateProfileInt("IllusionTemple","ItDropLevel",0,"..\\Data\\ZtData\\Events.ini");
; 2572 : 	//int Zt_ItDropSkill	= GetPrivateProfileInt("IllusionTemple","ItDropSkill",0,"..\\Data\\ZtData\\Events.ini");
; 2573 : 	//int Zt_ItDropLuck	= GetPrivateProfileInt("IllusionTemple","ItDropLuck",0,"..\\Data\\ZtData\\Events.ini");
; 2574 : 	//int Zt_ItDropOpt	= GetPrivateProfileInt("IllusionTemple","ItDropOpt",0,"..\\Data\\ZtData\\Events.ini");
; 2575 : 	//int Zt_ItDropExcOpt	= GetPrivateProfileInt("IllusionTemple","ItDropExcOpt",0,"..\\Data\\ZtData\\Events.ini");
; 2576 : 	//int Zt_ItDropAncOpt	= GetPrivateProfileInt("IllusionTemple","ItDropAncOpt",0,"..\\Data\\ZtData\\Events.ini");
; 2577 : 
; 2578 : 	int Exe1 = 0;
; 2579 : 	int Anc1 = 0;
; 2580 : 
; 2581 : 	if ( ZtConfig.Event.Zt_ItDropExcOpt > 0 )

  0008b	a1 10 07 00 00	 mov	 eax, DWORD PTR ?ZtConfig@@3VcZtConfigs@@A+1808
  00090	53		 push	 ebx
  00091	33 db		 xor	 ebx, ebx
  00093	33 ff		 xor	 edi, edi
  00095	85 c0		 test	 eax, eax
  00097	7e 0b		 jle	 SHORT $LN3@DropReward

; 2582 : 		Exe1 = GenExcOpt(ZtConfig.Event.Zt_ItDropExcOpt);

  00099	50		 push	 eax
  0009a	e8 00 00 00 00	 call	 ?GenExcOpt@@YAHH@Z	; GenExcOpt
  0009f	83 c4 04	 add	 esp, 4
  000a2	8b d8		 mov	 ebx, eax
$LN3@DropReward:

; 2583 : 
; 2584 : 	if ( ZtConfig.Event.Zt_ItDropAncOpt == 5 || ZtConfig.Event.Zt_ItDropAncOpt == 10 )

  000a4	a1 14 07 00 00	 mov	 eax, DWORD PTR ?ZtConfig@@3VcZtConfigs@@A+1812
  000a9	83 f8 05	 cmp	 eax, 5
  000ac	74 05		 je	 SHORT $LN1@DropReward
  000ae	83 f8 0a	 cmp	 eax, 10			; 0000000aH
  000b1	75 02		 jne	 SHORT $LN2@DropReward
$LN1@DropReward:

; 2585 : 		Anc1 = ZtConfig.Event.Zt_ItDropAncOpt;

  000b3	8b f8		 mov	 edi, eax
$LN2@DropReward:

; 2586 : 
; 2587 : 	int loc3 = ItemGetNumberMake(ZtConfig.Event.Zt_ItDropType, ZtConfig.Event.Zt_ItDropID);	// Jewel of Chaos

  000b5	8b 0d fc 06 00
	00		 mov	 ecx, DWORD PTR ?ZtConfig@@3VcZtConfigs@@A+1788
  000bb	8b 15 f8 06 00
	00		 mov	 edx, DWORD PTR ?ZtConfig@@3VcZtConfigs@@A+1784
  000c1	51		 push	 ecx
  000c2	52		 push	 edx
  000c3	e8 00 00 00 00	 call	 ?ItemGetNumberMake@@YAHHH@Z ; ItemGetNumberMake

; 2588 : 	ItemSerialCreateSend(gObj[aIndex].m_Index, (BYTE)gObj[aIndex].MapNumber, (BYTE)gObj[aIndex].X, gObj[aIndex].Y,loc3,
; 2589 : 		(BYTE)ZtConfig.Event.Zt_ItDropLevel, 0, (BYTE)ZtConfig.Event.Zt_ItDropSkill, (BYTE)ZtConfig.Event.Zt_ItDropLuck, 
; 2590 : 		(BYTE)ZtConfig.Event.Zt_ItDropOpt, loc2, (BYTE)Exe1, (BYTE)Anc1);

  000c8	8b 55 08	 mov	 edx, DWORD PTR _aIndex$[ebp]
  000cb	8b 0d 00 00 00
	00		 mov	 ecx, DWORD PTR ?gObj@@3PAUOBJECTSTRUCT@@A ; gObj
  000d1	57		 push	 edi
  000d2	53		 push	 ebx
  000d3	52		 push	 edx
  000d4	0f b6 15 0c 07
	00 00		 movzx	 edx, BYTE PTR ?ZtConfig@@3VcZtConfigs@@A+1804
  000db	52		 push	 edx
  000dc	0f b6 15 08 07
	00 00		 movzx	 edx, BYTE PTR ?ZtConfig@@3VcZtConfigs@@A+1800
  000e3	52		 push	 edx
  000e4	0f b6 15 04 07
	00 00		 movzx	 edx, BYTE PTR ?ZtConfig@@3VcZtConfigs@@A+1796
  000eb	52		 push	 edx
  000ec	0f b6 15 00 07
	00 00		 movzx	 edx, BYTE PTR ?ZtConfig@@3VcZtConfigs@@A+1792
  000f3	6a 00		 push	 0
  000f5	52		 push	 edx
  000f6	0f b6 94 0e 44
	01 00 00	 movzx	 edx, BYTE PTR [esi+ecx+324]
  000fe	50		 push	 eax
  000ff	0f b6 84 0e 46
	01 00 00	 movzx	 eax, BYTE PTR [esi+ecx+326]
  00107	50		 push	 eax
  00108	0f b6 84 0e 49
	01 00 00	 movzx	 eax, BYTE PTR [esi+ecx+329]
  00110	8b 0c 0e	 mov	 ecx, DWORD PTR [esi+ecx]
  00113	52		 push	 edx
  00114	50		 push	 eax
  00115	51		 push	 ecx
  00116	e8 00 00 00 00	 call	 ?ItemSerialCreateSend@@YAXHEEEHEEEEEHEE@Z ; ItemSerialCreateSend
  0011b	83 c4 3c	 add	 esp, 60			; 0000003cH
  0011e	5b		 pop	 ebx
$LN15@DropReward:
  0011f	5f		 pop	 edi
$LN11@DropReward:
  00120	5e		 pop	 esi

; 2591 : }

  00121	5d		 pop	 ebp
  00122	c2 04 00	 ret	 4
?DropRewardItem@CIllusionTempleProcess@@QAEXH@Z ENDP	; CIllusionTempleProcess::DropRewardItem
_TEXT	ENDS
PUBLIC	__real@00000000
PUBLIC	?CheckEnterItemPosition@CIllusionTempleProcess@@QAEHHM@Z ; CIllusionTempleProcess::CheckEnterItemPosition
;	COMDAT __real@00000000
CONST	SEGMENT
__real@00000000 DD 000000000r			; 0
; Function compile flags: /Ogtp
CONST	ENDS
;	COMDAT ?CheckEnterItemPosition@CIllusionTempleProcess@@QAEHHM@Z
_TEXT	SEGMENT
_this$ = -8						; size = 4
_loc2$ = -4						; size = 4
_i$216861 = 8						; size = 4
_aIndex$ = 8						; size = 4
_Durability$ = 12					; size = 4
?CheckEnterItemPosition@CIllusionTempleProcess@@QAEHHM@Z PROC ; CIllusionTempleProcess::CheckEnterItemPosition, COMDAT
; _this$ = ecx

; 2594 : {

  00000	55		 push	 ebp
  00001	8b ec		 mov	 ebp, esp
  00003	83 ec 08	 sub	 esp, 8

; 2595 : 	if(OBJMAX_RANGE(aIndex) == FALSE)

  00006	8b 45 08	 mov	 eax, DWORD PTR _aIndex$[ebp]
  00009	56		 push	 esi
  0000a	33 f6		 xor	 esi, esi
  0000c	89 4d f8	 mov	 DWORD PTR _this$[ebp], ecx
  0000f	3b c6		 cmp	 eax, esi
  00011	7c 0e		 jl	 SHORT $LN18@CheckEnter
  00013	33 c9		 xor	 ecx, ecx
  00015	3d 97 3a 00 00	 cmp	 eax, 14999		; 00003a97H
  0001a	0f 9e c1	 setle	 cl
  0001d	3b ce		 cmp	 ecx, esi
  0001f	75 22		 jne	 SHORT $LN10@CheckEnter
$LN18@CheckEnter:

; 2596 : 	{
; 2597 : 		LogAdd("return %s %d", __FILE__, __LINE__);

  00021	68 25 0a 00 00	 push	 2597			; 00000a25H
  00026	68 00 00 00 00	 push	 OFFSET ??_C@_0BK@DMGNFDO@IllusionTempleProcess?4cpp?$AA@
  0002b	68 00 00 00 00	 push	 OFFSET ??_C@_0N@GGPGOPEN@return?5?$CFs?5?$CFd?$AA@
  00030	ff 15 00 00 00
	00		 call	 DWORD PTR ?LogAdd@@3P6AXPADZZA ; LogAdd
  00036	83 c4 0c	 add	 esp, 12			; 0000000cH

; 2598 : 		return -1;

  00039	83 c8 ff	 or	 eax, -1
  0003c	5e		 pop	 esi

; 2630 : }

  0003d	8b e5		 mov	 esp, ebp
  0003f	5d		 pop	 ebp
  00040	c2 08 00	 ret	 8
$LN10@CheckEnter:
  00043	69 c0 50 2b 00
	00		 imul	 eax, 11088		; 00002b50H
  00049	57		 push	 edi

; 2599 : 	}
; 2600 : 
; 2601 : 	int loc2 = -1;

  0004a	c7 45 fc ff ff
	ff ff		 mov	 DWORD PTR _loc2$[ebp], -1

; 2602 : 
; 2603 : 	for( int i = 0; i<INVENTORY_SIZE; i++ )

  00051	89 75 08	 mov	 DWORD PTR _i$216861[ebp], esi
  00054	8d b8 24 0e 00
	00		 lea	 edi, DWORD PTR [eax+3620]
  0005a	53		 push	 ebx
  0005b	eb 03 8d 49 00	 npad	 5
$LL21@CheckEnter:

; 2604 : 	{
; 2605 : 		if( gObj[aIndex].pInventory[i].IsItem() == TRUE )

  00060	a1 00 00 00 00	 mov	 eax, DWORD PTR ?gObj@@3PAUOBJECTSTRUCT@@A ; gObj
  00065	8b 0c 07	 mov	 ecx, DWORD PTR [edi+eax]
  00068	03 ce		 add	 ecx, esi
  0006a	e8 00 00 00 00	 call	 ?IsItem@CItem@@QAEHXZ	; CItem::IsItem
  0006f	83 f8 01	 cmp	 eax, 1
  00072	75 58		 jne	 SHORT $LN8@CheckEnter

; 2606 : 		{
; 2607 : 			if(gObj[aIndex].pInventory[i].m_Type == ITEMGET(13,51) && gObj[aIndex].pInventory[i].m_Level == this->m_btFloorIndex+1) //Blood Scroll

  00074	8b 0d 00 00 00
	00		 mov	 ecx, DWORD PTR ?gObj@@3PAUOBJECTSTRUCT@@A ; gObj
  0007a	8b 0c 0f	 mov	 ecx, DWORD PTR [edi+ecx]
  0007d	0f b7 54 31 06	 movzx	 edx, WORD PTR [ecx+esi+6]
  00082	03 ce		 add	 ecx, esi
  00084	b8 33 1a 00 00	 mov	 eax, 6707		; 00001a33H
  00089	66 3b d0	 cmp	 dx, ax
  0008c	75 22		 jne	 SHORT $LN19@CheckEnter
  0008e	8b 45 f8	 mov	 eax, DWORD PTR _this$[ebp]
  00091	0f b6 80 2c 02
	00 00		 movzx	 eax, BYTE PTR [eax+556]
  00098	0f bf 59 08	 movsx	 ebx, WORD PTR [ecx+8]
  0009c	40		 inc	 eax
  0009d	3b d8		 cmp	 ebx, eax
  0009f	75 0f		 jne	 SHORT $LN19@CheckEnter

; 2608 : 			{
; 2609 : 				if(gObj[aIndex].pInventory[i].m_Durability == Durability)

  000a1	d9 41 24	 fld	 DWORD PTR [ecx+36]
  000a4	d9 45 0c	 fld	 DWORD PTR _Durability$[ebp]
  000a7	da e9		 fucompp
  000a9	df e0		 fnstsw	 ax
  000ab	f6 c4 44	 test	 ah, 68			; 00000044H
  000ae	7b 40		 jnp	 SHORT $LN16@CheckEnter
$LN19@CheckEnter:

; 2612 : 				}
; 2613 : 			}
; 2614 : 			if(gObj[aIndex].pInventory[i].m_Type == ITEMGET(13,61)) //Illusion Temple Ticket (CashShop)

  000b0	b8 3d 1a 00 00	 mov	 eax, 6717		; 00001a3dH
  000b5	66 3b d0	 cmp	 dx, ax
  000b8	75 12		 jne	 SHORT $LN8@CheckEnter

; 2615 : 			{
; 2616 : 				if(gObj[aIndex].pInventory[i].m_Durability > 0.0f)

  000ba	d9 ee		 fldz
  000bc	d8 59 24	 fcomp	 DWORD PTR [ecx+36]
  000bf	df e0		 fnstsw	 ax
  000c1	f6 c4 05	 test	 ah, 5
  000c4	7a 06		 jp	 SHORT $LN8@CheckEnter

; 2617 : 				{
; 2618 : 					loc2 = i;

  000c6	8b 4d 08	 mov	 ecx, DWORD PTR _i$216861[ebp]
  000c9	89 4d fc	 mov	 DWORD PTR _loc2$[ebp], ecx
$LN8@CheckEnter:

; 2602 : 
; 2603 : 	for( int i = 0; i<INVENTORY_SIZE; i++ )

  000cc	ff 45 08	 inc	 DWORD PTR _i$216861[ebp]
  000cf	81 c6 d4 00 00
	00		 add	 esi, 212		; 000000d4H
  000d5	81 fe 70 c3 00
	00		 cmp	 esi, 50032		; 0000c370H
  000db	7c 83		 jl	 SHORT $LL21@CheckEnter

; 2619 : 				}
; 2620 : 			}
; 2621 : 		}
; 2622 : 	}
; 2623 : 
; 2624 : 	if(loc2 >= 0)

  000dd	8b 45 fc	 mov	 eax, DWORD PTR _loc2$[ebp]
  000e0	85 c0		 test	 eax, eax

; 2625 : 	{
; 2626 : 		return loc2;

  000e2	79 03		 jns	 SHORT $LN23@CheckEnter

; 2627 : 	}
; 2628 : 
; 2629 : 	return -1;

  000e4	83 c8 ff	 or	 eax, -1
$LN23@CheckEnter:
  000e7	5b		 pop	 ebx
  000e8	5f		 pop	 edi
  000e9	5e		 pop	 esi

; 2630 : }

  000ea	8b e5		 mov	 esp, ebp
  000ec	5d		 pop	 ebp
  000ed	c2 08 00	 ret	 8
$LN16@CheckEnter:

; 2610 : 				{
; 2611 : 					return i;

  000f0	8b 45 08	 mov	 eax, DWORD PTR _i$216861[ebp]
  000f3	5b		 pop	 ebx
  000f4	5f		 pop	 edi
  000f5	5e		 pop	 esi

; 2630 : }

  000f6	8b e5		 mov	 esp, ebp
  000f8	5d		 pop	 ebp
  000f9	c2 08 00	 ret	 8
?CheckEnterItemPosition@CIllusionTempleProcess@@QAEHHM@Z ENDP ; CIllusionTempleProcess::CheckEnterItemPosition
_TEXT	ENDS
PUBLIC	?CheckEnterItemPosition@CIllusionTempleProcess@@QAEHH@Z ; CIllusionTempleProcess::CheckEnterItemPosition
; Function compile flags: /Ogtp
;	COMDAT ?CheckEnterItemPosition@CIllusionTempleProcess@@QAEHH@Z
_TEXT	SEGMENT
_this$ = -12						; size = 4
tv165 = -8						; size = 4
_loc2$ = -4						; size = 4
_aIndex$ = 8						; size = 4
?CheckEnterItemPosition@CIllusionTempleProcess@@QAEHH@Z PROC ; CIllusionTempleProcess::CheckEnterItemPosition, COMDAT
; _this$ = ecx

; 2633 : {

  00000	55		 push	 ebp
  00001	8b ec		 mov	 ebp, esp
  00003	83 ec 0c	 sub	 esp, 12			; 0000000cH

; 2634 : 	if(OBJMAX_RANGE(aIndex) == FALSE)

  00006	8b 45 08	 mov	 eax, DWORD PTR _aIndex$[ebp]
  00009	89 4d f4	 mov	 DWORD PTR _this$[ebp], ecx
  0000c	85 c0		 test	 eax, eax
  0000e	78 0e		 js	 SHORT $LN19@CheckEnter@2
  00010	33 c9		 xor	 ecx, ecx
  00012	3d 97 3a 00 00	 cmp	 eax, 14999		; 00003a97H
  00017	0f 9e c1	 setle	 cl
  0001a	85 c9		 test	 ecx, ecx
  0001c	75 21		 jne	 SHORT $LN10@CheckEnter@2
$LN19@CheckEnter@2:

; 2635 : 	{
; 2636 : 		LogAdd("return %s %d", __FILE__, __LINE__);

  0001e	68 4c 0a 00 00	 push	 2636			; 00000a4cH
  00023	68 00 00 00 00	 push	 OFFSET ??_C@_0BK@DMGNFDO@IllusionTempleProcess?4cpp?$AA@
  00028	68 00 00 00 00	 push	 OFFSET ??_C@_0N@GGPGOPEN@return?5?$CFs?5?$CFd?$AA@
  0002d	ff 15 00 00 00
	00		 call	 DWORD PTR ?LogAdd@@3P6AXPADZZA ; LogAdd
  00033	83 c4 0c	 add	 esp, 12			; 0000000cH

; 2637 : 		return -1;

  00036	83 c8 ff	 or	 eax, -1

; 2677 : }

  00039	8b e5		 mov	 esp, ebp
  0003b	5d		 pop	 ebp
  0003c	c2 04 00	 ret	 4
$LN10@CheckEnter@2:
  0003f	69 c0 50 2b 00
	00		 imul	 eax, 11088		; 00002b50H
  00045	53		 push	 ebx
  00046	56		 push	 esi

; 2671 : 				}
; 2672 : 			}
; 2673 : 		}
; 2674 : 	}
; 2675 : 
; 2676 : 	return loc2;

  00047	05 24 0e 00 00	 add	 eax, 3620		; 00000e24H
  0004c	57		 push	 edi
  0004d	33 ff		 xor	 edi, edi
  0004f	c7 45 fc ff ff
	ff ff		 mov	 DWORD PTR _loc2$[ebp], -1
  00056	89 45 f8	 mov	 DWORD PTR tv165[ebp], eax
  00059	33 db		 xor	 ebx, ebx
  0005b	eb 03 8d 49 00	 npad	 5
$LL20@CheckEnter@2:

; 2643 : 	{
; 2644 : 		CItem * lpItem = &gObj[aIndex].pInventory[i];

  00060	a1 00 00 00 00	 mov	 eax, DWORD PTR ?gObj@@3PAUOBJECTSTRUCT@@A ; gObj
  00065	8b 4d f8	 mov	 ecx, DWORD PTR tv165[ebp]
  00068	8b 34 01	 mov	 esi, DWORD PTR [ecx+eax]
  0006b	03 f3		 add	 esi, ebx

; 2645 : 
; 2646 : 		if( lpItem->IsItem() == TRUE )

  0006d	8b ce		 mov	 ecx, esi
  0006f	e8 00 00 00 00	 call	 ?IsItem@CItem@@QAEHXZ	; CItem::IsItem
  00074	83 f8 01	 cmp	 eax, 1
  00077	75 7e		 jne	 SHORT $LN8@CheckEnter@2

; 2647 : 		{
; 2648 : 			if(lpItem->m_Type == ITEMGET(13,51) && lpItem->m_Level == this->m_btFloorIndex+1) //Blood Scroll

  00079	ba 33 1a 00 00	 mov	 edx, 6707		; 00001a33H
  0007e	66 39 56 06	 cmp	 WORD PTR [esi+6], dx
  00082	75 38		 jne	 SHORT $LN5@CheckEnter@2
  00084	8b 45 f4	 mov	 eax, DWORD PTR _this$[ebp]
  00087	0f b6 88 2c 02
	00 00		 movzx	 ecx, BYTE PTR [eax+556]
  0008e	0f bf 56 08	 movsx	 edx, WORD PTR [esi+8]
  00092	41		 inc	 ecx
  00093	3b d1		 cmp	 edx, ecx
  00095	75 25		 jne	 SHORT $LN5@CheckEnter@2

; 2649 : 			{
; 2650 : 				if(lpItem->m_Durability > 0.0f)

  00097	d9 ee		 fldz
  00099	d8 5e 24	 fcomp	 DWORD PTR [esi+36]
  0009c	df e0		 fnstsw	 ax
  0009e	f6 c4 05	 test	 ah, 5
  000a1	7b 73		 jnp	 SHORT $LN17@CheckEnter@2

; 2651 : 				{
; 2652 : 					loc2 = i;
; 2653 : 					break;
; 2654 : 				}
; 2655 : 
; 2656 : 				gObjInventoryDeleteItem(aIndex, i);

  000a3	8b 45 08	 mov	 eax, DWORD PTR _aIndex$[ebp]
  000a6	57		 push	 edi
  000a7	50		 push	 eax
  000a8	e8 00 00 00 00	 call	 ?gObjInventoryDeleteItem@@YAEHH@Z ; gObjInventoryDeleteItem

; 2657 : 				GCInventoryItemDeleteSend(aIndex, i, 0);

  000ad	8b 4d 08	 mov	 ecx, DWORD PTR _aIndex$[ebp]
  000b0	6a 00		 push	 0
  000b2	57		 push	 edi
  000b3	51		 push	 ecx
  000b4	e8 00 00 00 00	 call	 ?GCInventoryItemDeleteSend@@YAXHEE@Z ; GCInventoryItemDeleteSend
  000b9	83 c4 14	 add	 esp, 20			; 00000014H
$LN5@CheckEnter@2:

; 2658 : 			}
; 2659 : 			if(lpItem->m_Type == ITEMGET(13,61)) //Illusion Temple Ticket (CashShop)

  000bc	ba 3d 1a 00 00	 mov	 edx, 6717		; 00001a3dH
  000c1	66 39 56 06	 cmp	 WORD PTR [esi+6], dx
  000c5	75 30		 jne	 SHORT $LN8@CheckEnter@2

; 2660 : 			{
; 2661 : 				if(lpItem->m_Durability > 0.0f)

  000c7	d9 ee		 fldz
  000c9	d8 56 24	 fcom	 DWORD PTR [esi+36]
  000cc	df e0		 fnstsw	 ax
  000ce	f6 c4 05	 test	 ah, 5
  000d1	7a 22		 jp	 SHORT $LN22@CheckEnter@2

; 2662 : 				{
; 2663 : 					if(lpItem->m_Durability > 0.0f)

  000d3	d8 5e 24	 fcomp	 DWORD PTR [esi+36]
  000d6	df e0		 fnstsw	 ax
  000d8	f6 c4 05	 test	 ah, 5
  000db	7b 39		 jnp	 SHORT $LN17@CheckEnter@2

; 2666 : 						break;
; 2667 : 					}
; 2668 : 
; 2669 : 					gObjInventoryDeleteItem(aIndex, i);

  000dd	8b 75 08	 mov	 esi, DWORD PTR _aIndex$[ebp]
  000e0	57		 push	 edi
  000e1	56		 push	 esi
  000e2	e8 00 00 00 00	 call	 ?gObjInventoryDeleteItem@@YAEHH@Z ; gObjInventoryDeleteItem

; 2670 : 					GCInventoryItemDeleteSend(aIndex, i, 0);

  000e7	6a 00		 push	 0
  000e9	57		 push	 edi
  000ea	56		 push	 esi
  000eb	e8 00 00 00 00	 call	 ?GCInventoryItemDeleteSend@@YAXHEE@Z ; GCInventoryItemDeleteSend
  000f0	83 c4 14	 add	 esp, 20			; 00000014H
  000f3	eb 02		 jmp	 SHORT $LN8@CheckEnter@2
$LN22@CheckEnter@2:
  000f5	dd d8		 fstp	 ST(0)
$LN8@CheckEnter@2:

; 2638 : 	}
; 2639 : 
; 2640 : 	int loc2 = -1;
; 2641 : 
; 2642 : 	for( int i = 0; i<INVENTORY_SIZE; i++ )

  000f7	81 c3 d4 00 00
	00		 add	 ebx, 212		; 000000d4H
  000fd	47		 inc	 edi
  000fe	81 fb 70 c3 00
	00		 cmp	 ebx, 50032		; 0000c370H
  00104	0f 8c 56 ff ff
	ff		 jl	 $LL20@CheckEnter@2

; 2671 : 				}
; 2672 : 			}
; 2673 : 		}
; 2674 : 	}
; 2675 : 
; 2676 : 	return loc2;

  0010a	8b 45 fc	 mov	 eax, DWORD PTR _loc2$[ebp]
  0010d	5f		 pop	 edi
  0010e	5e		 pop	 esi
  0010f	5b		 pop	 ebx

; 2677 : }

  00110	8b e5		 mov	 esp, ebp
  00112	5d		 pop	 ebp
  00113	c2 04 00	 ret	 4
$LN17@CheckEnter@2:

; 2664 : 					{
; 2665 : 						loc2 = i;

  00116	89 7d fc	 mov	 DWORD PTR _loc2$[ebp], edi

; 2671 : 				}
; 2672 : 			}
; 2673 : 		}
; 2674 : 	}
; 2675 : 
; 2676 : 	return loc2;

  00119	8b c7		 mov	 eax, edi
  0011b	5f		 pop	 edi
  0011c	5e		 pop	 esi
  0011d	5b		 pop	 ebx

; 2677 : }

  0011e	8b e5		 mov	 esp, ebp
  00120	5d		 pop	 ebp
  00121	c2 04 00	 ret	 4
?CheckEnterItemPosition@CIllusionTempleProcess@@QAEHH@Z ENDP ; CIllusionTempleProcess::CheckEnterItemPosition
_TEXT	ENDS
PUBLIC	?DropMonsterItem@CIllusionTempleProcess@@QAEXPAUOBJECTSTRUCT@@@Z ; CIllusionTempleProcess::DropMonsterItem
EXTRN	?IllusionTemple3ItemBag@@3PAVCProbabilityItemBag@@A:DWORD ; IllusionTemple3ItemBag
EXTRN	?IllusionTemple2ItemBag@@3PAVCProbabilityItemBag@@A:DWORD ; IllusionTemple2ItemBag
EXTRN	?DropIllusionTempleEventReward@CProbabilityItemBag@@QAEHHEEE@Z:PROC ; CProbabilityItemBag::DropIllusionTempleEventReward
EXTRN	?IllusionTemple1ItemBag@@3PAVCProbabilityItemBag@@A:DWORD ; IllusionTemple1ItemBag
; Function compile flags: /Ogtp
;	COMDAT ?DropMonsterItem@CIllusionTempleProcess@@QAEXPAUOBJECTSTRUCT@@@Z
_TEXT	SEGMENT
_lpObj$ = 8						; size = 4
?DropMonsterItem@CIllusionTempleProcess@@QAEXPAUOBJECTSTRUCT@@@Z PROC ; CIllusionTempleProcess::DropMonsterItem, COMDAT
; _this$ = ecx

; 2680 : {

  00000	55		 push	 ebp
  00001	8b ec		 mov	 ebp, esp

; 2681 : 	if(this->m_FloorData[lpObj->m_iIllusionTempleIndex].m_iTeamPlayerIndex != lpObj->m_Index)

  00003	8b 45 08	 mov	 eax, DWORD PTR _lpObj$[ebp]
  00006	8b 10		 mov	 edx, DWORD PTR [eax]
  00008	56		 push	 esi
  00009	8b b0 78 20 00
	00		 mov	 esi, DWORD PTR [eax+8312]
  0000f	8d 34 76	 lea	 esi, DWORD PTR [esi+esi*2]
  00012	03 f6		 add	 esi, esi
  00014	39 54 f1 20	 cmp	 DWORD PTR [ecx+esi*8+32], edx
  00018	75 79		 jne	 SHORT $LN4@DropMonste

; 2682 : 	{
; 2683 : 		return;
; 2684 : 	}
; 2685 : 
; 2686 : 	switch(lpObj->MapNumber - MAP_INDEX_ILLUSIONTEMPLE_MIN)

  0001a	8a 88 49 01 00
	00		 mov	 cl, BYTE PTR [eax+329]
  00020	0f b6 f1	 movzx	 esi, cl
  00023	83 c6 d3	 add	 esi, -45		; ffffffd3H
  00026	83 fe 05	 cmp	 esi, 5
  00029	77 68		 ja	 SHORT $LN4@DropMonste
  0002b	ff 24 b5 00 00
	00 00		 jmp	 DWORD PTR $LN10@DropMonste[esi*4]
$LN3@DropMonste:

; 2687 : 	{
; 2688 : 		case 0:
; 2689 : 		case 1:
; 2690 : 			IllusionTemple1ItemBag->DropIllusionTempleEventReward(lpObj->m_Index, lpObj->MapNumber, lpObj->X, lpObj->Y);

  00032	0f b6 b0 46 01
	00 00		 movzx	 esi, BYTE PTR [eax+326]
  00039	0f b6 80 44 01
	00 00		 movzx	 eax, BYTE PTR [eax+324]
  00040	56		 push	 esi
  00041	50		 push	 eax
  00042	51		 push	 ecx
  00043	8b 0d 00 00 00
	00		 mov	 ecx, DWORD PTR ?IllusionTemple1ItemBag@@3PAVCProbabilityItemBag@@A ; IllusionTemple1ItemBag

; 2695 : 			break;
; 2696 : 		case 4:
; 2697 : 		case 5:
; 2698 : 			IllusionTemple3ItemBag->DropIllusionTempleEventReward(lpObj->m_Index, lpObj->MapNumber, lpObj->X, lpObj->Y);

  00049	52		 push	 edx
  0004a	e8 00 00 00 00	 call	 ?DropIllusionTempleEventReward@CProbabilityItemBag@@QAEHHEEE@Z ; CProbabilityItemBag::DropIllusionTempleEventReward
  0004f	5e		 pop	 esi

; 2699 : 			break;
; 2700 : 	}
; 2701 : }

  00050	5d		 pop	 ebp
  00051	c2 04 00	 ret	 4
$LN2@DropMonste:

; 2691 : 			break;
; 2692 : 		case 2:
; 2693 : 		case 3:
; 2694 : 			IllusionTemple2ItemBag->DropIllusionTempleEventReward(lpObj->m_Index, lpObj->MapNumber, lpObj->X, lpObj->Y);

  00054	0f b6 b0 46 01
	00 00		 movzx	 esi, BYTE PTR [eax+326]
  0005b	0f b6 80 44 01
	00 00		 movzx	 eax, BYTE PTR [eax+324]
  00062	56		 push	 esi
  00063	50		 push	 eax
  00064	51		 push	 ecx
  00065	8b 0d 00 00 00
	00		 mov	 ecx, DWORD PTR ?IllusionTemple2ItemBag@@3PAVCProbabilityItemBag@@A ; IllusionTemple2ItemBag

; 2695 : 			break;
; 2696 : 		case 4:
; 2697 : 		case 5:
; 2698 : 			IllusionTemple3ItemBag->DropIllusionTempleEventReward(lpObj->m_Index, lpObj->MapNumber, lpObj->X, lpObj->Y);

  0006b	52		 push	 edx
  0006c	e8 00 00 00 00	 call	 ?DropIllusionTempleEventReward@CProbabilityItemBag@@QAEHHEEE@Z ; CProbabilityItemBag::DropIllusionTempleEventReward
  00071	5e		 pop	 esi

; 2699 : 			break;
; 2700 : 	}
; 2701 : }

  00072	5d		 pop	 ebp
  00073	c2 04 00	 ret	 4
$LN1@DropMonste:

; 2695 : 			break;
; 2696 : 		case 4:
; 2697 : 		case 5:
; 2698 : 			IllusionTemple3ItemBag->DropIllusionTempleEventReward(lpObj->m_Index, lpObj->MapNumber, lpObj->X, lpObj->Y);

  00076	0f b6 b0 46 01
	00 00		 movzx	 esi, BYTE PTR [eax+326]
  0007d	0f b6 80 44 01
	00 00		 movzx	 eax, BYTE PTR [eax+324]
  00084	56		 push	 esi
  00085	50		 push	 eax
  00086	51		 push	 ecx
  00087	8b 0d 00 00 00
	00		 mov	 ecx, DWORD PTR ?IllusionTemple3ItemBag@@3PAVCProbabilityItemBag@@A ; IllusionTemple3ItemBag
  0008d	52		 push	 edx
  0008e	e8 00 00 00 00	 call	 ?DropIllusionTempleEventReward@CProbabilityItemBag@@QAEHHEEE@Z ; CProbabilityItemBag::DropIllusionTempleEventReward
$LN4@DropMonste:
  00093	5e		 pop	 esi

; 2699 : 			break;
; 2700 : 	}
; 2701 : }

  00094	5d		 pop	 ebp
  00095	c2 04 00	 ret	 4
$LN10@DropMonste:
  00098	00 00 00 00	 DD	 $LN3@DropMonste
  0009c	00 00 00 00	 DD	 $LN3@DropMonste
  000a0	00 00 00 00	 DD	 $LN2@DropMonste
  000a4	00 00 00 00	 DD	 $LN2@DropMonste
  000a8	00 00 00 00	 DD	 $LN1@DropMonste
  000ac	00 00 00 00	 DD	 $LN1@DropMonste
?DropMonsterItem@CIllusionTempleProcess@@QAEXPAUOBJECTSTRUCT@@@Z ENDP ; CIllusionTempleProcess::DropMonsterItem
_TEXT	ENDS
PUBLIC	?SendAllUserAnyMsg@CIllusionTempleProcess@@QAEXPAEH@Z ; CIllusionTempleProcess::SendAllUserAnyMsg
; Function compile flags: /Ogtp
;	COMDAT ?SendAllUserAnyMsg@CIllusionTempleProcess@@QAEXPAEH@Z
_TEXT	SEGMENT
_lpMsg$ = 8						; size = 4
_iSize$ = 12						; size = 4
?SendAllUserAnyMsg@CIllusionTempleProcess@@QAEXPAEH@Z PROC ; CIllusionTempleProcess::SendAllUserAnyMsg, COMDAT
; _this$ = ecx

; 2704 : {

  00000	55		 push	 ebp
  00001	8b ec		 mov	 ebp, esp

; 2705 : 	for( int aIndex = OBJ_STARTUSERINDZT; aIndex<OBJMAX; aIndex++ )

  00003	a1 00 00 00 00	 mov	 eax, DWORD PTR ?gObj@@3PAUOBJECTSTRUCT@@A ; gObj
  00008	53		 push	 ebx
  00009	8b 5d 0c	 mov	 ebx, DWORD PTR _iSize$[ebp]
  0000c	56		 push	 esi
  0000d	57		 push	 edi
  0000e	bf b0 36 00 00	 mov	 edi, 14000		; 000036b0H
  00013	be 00 a7 40 09	 mov	 esi, 155232000		; 0940a700H
$LL4@SendAllUse:

; 2706 : 	{
; 2707 : 		if(gObj[aIndex].Connected == PLAYER_PLAYING && gObj[aIndex].Type == OBJ_USER)

  00018	83 7c 06 04 03	 cmp	 DWORD PTR [esi+eax+4], 3
  0001d	75 1b		 jne	 SHORT $LN3@SendAllUse
  0001f	66 83 7c 06 68
	01		 cmp	 WORD PTR [esi+eax+104], 1
  00025	75 13		 jne	 SHORT $LN3@SendAllUse

; 2708 : 		{
; 2709 : 			DataSend(aIndex,lpMsg,iSize);

  00027	8b 45 08	 mov	 eax, DWORD PTR _lpMsg$[ebp]
  0002a	53		 push	 ebx
  0002b	50		 push	 eax
  0002c	57		 push	 edi
  0002d	e8 00 00 00 00	 call	 ?DataSend@@YAHHPAEK@Z	; DataSend
  00032	a1 00 00 00 00	 mov	 eax, DWORD PTR ?gObj@@3PAUOBJECTSTRUCT@@A ; gObj
  00037	83 c4 0c	 add	 esp, 12			; 0000000cH
$LN3@SendAllUse:

; 2705 : 	for( int aIndex = OBJ_STARTUSERINDZT; aIndex<OBJMAX; aIndex++ )

  0003a	81 c6 50 2b 00
	00		 add	 esi, 11088		; 00002b50H
  00040	47		 inc	 edi
  00041	81 fe 80 d7 e9
	09		 cmp	 esi, 166320000		; 09e9d780H
  00047	7c cf		 jl	 SHORT $LL4@SendAllUse
  00049	5f		 pop	 edi
  0004a	5e		 pop	 esi
  0004b	5b		 pop	 ebx

; 2710 : 		}
; 2711 : 	}
; 2712 : }

  0004c	5d		 pop	 ebp
  0004d	c2 08 00	 ret	 8
?SendAllUserAnyMsg@CIllusionTempleProcess@@QAEXPAEH@Z ENDP ; CIllusionTempleProcess::SendAllUserAnyMsg
_TEXT	ENDS
PUBLIC	??_C@_0L@MNKEEMGH@?0?$CI?$CFs?$CJ?$CI?$CFs?$CJ?5?$AA@ ; `string'
PUBLIC	??_C@_0BM@DJAOLMAF@400?5LevelUp?5?$CI?$CFs?$CJ?$CI?$CFs?$CJ?5Party?5?$AA@ ; `string'
PUBLIC	??_C@_0DA@KDBPKGIM@?$FL?$CFs?$FN?$FL?$CFs?$FN?5LevelUp?5PlusStatQuest?5C@ ; `string'
PUBLIC	??_C@_0DB@FGGBOBEB@Experience?5?3?5Map?$FL?$CFd?$FN?9?$CI?$CFd?0?$CFd?$CJ?5?$FL?$CFs@ ; `string'
PUBLIC	_iUserIndex$GSCopy$
PUBLIC	__$ArrayPad$
PUBLIC	?LevelUp@CIllusionTempleProcess@@QAEHHH@Z	; CIllusionTempleProcess::LevelUp
EXTRN	?LevelUp@CAchievements@@QAEXH@Z:PROC		; CAchievements::LevelUp
EXTRN	?g_Achievements@@3VCAchievements@@A:BYTE	; g_Achievements
EXTRN	?gParty@@3VPartyClass@@A:BYTE			; gParty
EXTRN	_sprintf:PROC
EXTRN	?gObjCalcMaxLifePower@@YAXH@Z:PROC		; gObjCalcMaxLifePower
EXTRN	?GCLevelUpMsgSend@@YAXHH@Z:PROC			; GCLevelUpMsgSend
EXTRN	?gObjSetBP@@YAXH@Z:PROC				; gObjSetBP
EXTRN	?gObjNextExpCal@@YAXPAUOBJECTSTRUCT@@@Z:PROC	; gObjNextExpCal
EXTRN	?DCInfo@@3Vclassdef@@A:BYTE			; DCInfo
EXTRN	?GCServerMsgStringSend@@YAXPADHE@Z:PROC		; GCServerMsgStringSend
EXTRN	?gObjSetExpPetItem@@YAXHH@Z:PROC		; gObjSetExpPetItem
EXTRN	?MasterLevelUp@CMasterLevelSystem@@QAEHPAUOBJECTSTRUCT@@AA_J_NH@Z:PROC ; CMasterLevelSystem::MasterLevelUp
EXTRN	?g_MasterLevelSystem@@3VCMasterLevelSystem@@A:BYTE ; g_MasterLevelSystem
;	COMDAT ??_C@_0L@MNKEEMGH@?0?$CI?$CFs?$CJ?$CI?$CFs?$CJ?5?$AA@
CONST	SEGMENT
??_C@_0L@MNKEEMGH@?0?$CI?$CFs?$CJ?$CI?$CFs?$CJ?5?$AA@ DB ',(%s)(%s) ', 00H ; `string'
CONST	ENDS
;	COMDAT ??_C@_0BM@DJAOLMAF@400?5LevelUp?5?$CI?$CFs?$CJ?$CI?$CFs?$CJ?5Party?5?$AA@
CONST	SEGMENT
??_C@_0BM@DJAOLMAF@400?5LevelUp?5?$CI?$CFs?$CJ?$CI?$CFs?$CJ?5Party?5?$AA@ DB '4'
	DB	'00 LevelUp (%s)(%s) Party ', 00H		; `string'
CONST	ENDS
;	COMDAT ??_C@_0DA@KDBPKGIM@?$FL?$CFs?$FN?$FL?$CFs?$FN?5LevelUp?5PlusStatQuest?5C@
CONST	SEGMENT
??_C@_0DA@KDBPKGIM@?$FL?$CFs?$FN?$FL?$CFs?$FN?5LevelUp?5PlusStatQuest?5C@ DB '['
	DB	'%s][%s] LevelUp PlusStatQuest Clear AddStat %d', 00H ; `string'
CONST	ENDS
;	COMDAT ??_C@_0DB@FGGBOBEB@Experience?5?3?5Map?$FL?$CFd?$FN?9?$CI?$CFd?0?$CFd?$CJ?5?$FL?$CFs@
CONST	SEGMENT
??_C@_0DB@FGGBOBEB@Experience?5?3?5Map?$FL?$CFd?$FN?9?$CI?$CFd?0?$CFd?$CJ?5?$FL?$CFs@ DB 'E'
	DB	'xperience : Map[%d]-(%d,%d) [%s][%s](%d) %u %d ', 00H ; `string'
; Function compile flags: /Ogtp
CONST	ENDS
;	COMDAT ?LevelUp@CIllusionTempleProcess@@QAEHHH@Z
_TEXT	SEGMENT
_iUserIndex$GSCopy$ = -268				; size = 4
tv304 = -264						; size = 4
_szMsg$216946 = -260					; size = 256
__$ArrayPad$ = -4					; size = 4
_iUserIndex$ = 8					; size = 4
_iAddExp$ = 12						; size = 4
?LevelUp@CIllusionTempleProcess@@QAEHHH@Z PROC		; CIllusionTempleProcess::LevelUp, COMDAT
; _this$ = ecx

; 2715 : {

  00000	55		 push	 ebp
  00001	8b ec		 mov	 ebp, esp
  00003	81 ec 0c 01 00
	00		 sub	 esp, 268		; 0000010cH
  00009	a1 00 00 00 00	 mov	 eax, DWORD PTR ___security_cookie
  0000e	33 c5		 xor	 eax, ebp
  00010	89 45 fc	 mov	 DWORD PTR __$ArrayPad$[ebp], eax
  00013	57		 push	 edi
  00014	8b 7d 08	 mov	 edi, DWORD PTR _iUserIndex$[ebp]

; 2808 : 		}
; 2809 : 	}
; 2810 : #ifndef FIX_DS_CRASH
; 2811 : 	GJSetCharacterInfo(&gObj[iUserIndex], gObj[iUserIndex].m_Index, 0);
; 2812 : #endif
; 2813 : #if(SYSTEM_ACHIEVEMENTS)
; 2814 : 	g_Achievements.LevelUp(iUserIndex);

  00017	89 bd f4 fe ff
	ff		 mov	 DWORD PTR _iUserIndex$GSCopy$[ebp], edi
  0001d	85 ff		 test	 edi, edi
  0001f	78 0f		 js	 SHORT $LN21@LevelUp

; 2716 : 	if(OBJMAX_RANGE(iUserIndex ) == FALSE)

  00021	33 c0		 xor	 eax, eax
  00023	81 ff 97 3a 00
	00		 cmp	 edi, 14999		; 00003a97H
  00029	0f 9e c0	 setle	 al
  0002c	85 c0		 test	 eax, eax
  0002e	75 13		 jne	 SHORT $LN14@LevelUp
$LN21@LevelUp:

; 2717 : 	{
; 2718 : 		return 0;

  00030	33 c0		 xor	 eax, eax
  00032	5f		 pop	 edi

; 2815 : #endif
; 2816 : 
; 2817 : 	return iLEFT_EXP;
; 2818 : }

  00033	8b 4d fc	 mov	 ecx, DWORD PTR __$ArrayPad$[ebp]
  00036	33 cd		 xor	 ecx, ebp
  00038	e8 00 00 00 00	 call	 @__security_check_cookie@4
  0003d	8b e5		 mov	 esp, ebp
  0003f	5d		 pop	 ebp
  00040	c2 08 00	 ret	 8
$LN14@LevelUp:

; 2719 : 	}
; 2720 : 
; 2721 : 	if(g_MasterLevelSystem.MasterLevelUp(&gObj[iUserIndex], (__int64&)iAddExp,1,0) != 0) //season3 add-on

  00043	8b 0d 00 00 00
	00		 mov	 ecx, DWORD PTR ?gObj@@3PAUOBJECTSTRUCT@@A ; gObj
  00049	56		 push	 esi
  0004a	8b f7		 mov	 esi, edi
  0004c	69 f6 50 2b 00
	00		 imul	 esi, 11088		; 00002b50H
  00052	6a 00		 push	 0
  00054	6a 01		 push	 1
  00056	8d 45 0c	 lea	 eax, DWORD PTR _iAddExp$[ebp]
  00059	8d 14 0e	 lea	 edx, DWORD PTR [esi+ecx]
  0005c	50		 push	 eax
  0005d	52		 push	 edx
  0005e	b9 00 00 00 00	 mov	 ecx, OFFSET ?g_MasterLevelSystem@@3VCMasterLevelSystem@@A ; g_MasterLevelSystem
  00063	e8 00 00 00 00	 call	 ?MasterLevelUp@CMasterLevelSystem@@QAEHPAUOBJECTSTRUCT@@AA_J_NH@Z ; CMasterLevelSystem::MasterLevelUp
  00068	85 c0		 test	 eax, eax
  0006a	74 14		 je	 SHORT $LN13@LevelUp

; 2722 : 	{
; 2723 : 		return 0;

  0006c	5e		 pop	 esi
  0006d	33 c0		 xor	 eax, eax
  0006f	5f		 pop	 edi

; 2815 : #endif
; 2816 : 
; 2817 : 	return iLEFT_EXP;
; 2818 : }

  00070	8b 4d fc	 mov	 ecx, DWORD PTR __$ArrayPad$[ebp]
  00073	33 cd		 xor	 ecx, ebp
  00075	e8 00 00 00 00	 call	 @__security_check_cookie@4
  0007a	8b e5		 mov	 esp, ebp
  0007c	5d		 pop	 ebp
  0007d	c2 08 00	 ret	 8
$LN13@LevelUp:

; 2724 : 	}
; 2725 : 
; 2726 : 
; 2727 : 	gObjSetExpPetItem(iUserIndex, iAddExp);

  00080	8b 45 0c	 mov	 eax, DWORD PTR _iAddExp$[ebp]
  00083	53		 push	 ebx
  00084	50		 push	 eax
  00085	57		 push	 edi
  00086	e8 00 00 00 00	 call	 ?gObjSetExpPetItem@@YAXHH@Z ; gObjSetExpPetItem

; 2728 : 
; 2729 : 	int iLEFT_EXP = 0;
; 2730 : 
; 2731 : 	LogAddTD("Experience : Map[%d]-(%d,%d) [%s][%s](%d) %u %d ", gObj[iUserIndex].MapNumber, gObj[iUserIndex].X, gObj[iUserIndex].X, gObj[iUserIndex].AccountID, gObj[iUserIndex].Name,	gObj[iUserIndex].Level, gObj[iUserIndex].Experience, iAddExp);

  0008b	a1 00 00 00 00	 mov	 eax, DWORD PTR ?gObj@@3PAUOBJECTSTRUCT@@A ; gObj
  00090	8b 55 0c	 mov	 edx, DWORD PTR _iAddExp$[ebp]
  00093	0f bf 8c 06 44
	01 00 00	 movsx	 ecx, WORD PTR [esi+eax+324]
  0009b	52		 push	 edx
  0009c	8b 94 06 c8 00
	00 00		 mov	 edx, DWORD PTR [esi+eax+200]
  000a3	52		 push	 edx
  000a4	0f bf 94 06 be
	00 00 00	 movsx	 edx, WORD PTR [esi+eax+190]
  000ac	52		 push	 edx
  000ad	8d 54 06 77	 lea	 edx, DWORD PTR [esi+eax+119]
  000b1	52		 push	 edx
  000b2	8d 54 06 6c	 lea	 edx, DWORD PTR [esi+eax+108]
  000b6	0f b6 84 06 49
	01 00 00	 movzx	 eax, BYTE PTR [esi+eax+329]
  000be	52		 push	 edx
  000bf	51		 push	 ecx
  000c0	51		 push	 ecx
  000c1	50		 push	 eax
  000c2	68 00 00 00 00	 push	 OFFSET ??_C@_0DB@FGGBOBEB@Experience?5?3?5Map?$FL?$CFd?$FN?9?$CI?$CFd?0?$CFd?$CJ?5?$FL?$CFs@
  000c7	33 db		 xor	 ebx, ebx
  000c9	ff 15 00 00 00
	00		 call	 DWORD PTR ?LogAddTD@@3P6AXPADZZA ; LogAddTD

; 2732 : 
; 2733 : 	#if(ENABLE_CHARLVL1000)
; 2734 : 
; 2735 : 	if(gObj[iUserIndex].Level >= ZtConfig.ZtCustom.MaxLevel)

  000cf	8b 0d 00 00 00
	00		 mov	 ecx, DWORD PTR ?gObj@@3PAUOBJECTSTRUCT@@A ; gObj
  000d5	0f bf 94 0e be
	00 00 00	 movsx	 edx, WORD PTR [esi+ecx+190]
  000dd	83 c4 2c	 add	 esp, 44			; 0000002cH
  000e0	3b 15 24 00 00
	00		 cmp	 edx, DWORD PTR ?ZtConfig@@3VcZtConfigs@@A+36
  000e6	7c 33		 jl	 SHORT $LN12@LevelUp

; 2736 : 	{
; 2737 : 		GCServerMsgStringSend(lMsg.Get(MSGGET(4, 112)), gObj[iUserIndex].m_Index, 1);

  000e8	8b 04 0e	 mov	 eax, DWORD PTR [esi+ecx]
  000eb	6a 01		 push	 1
  000ed	50		 push	 eax
  000ee	68 70 04 00 00	 push	 1136			; 00000470H
  000f3	b9 00 00 00 00	 mov	 ecx, OFFSET ?lMsg@@3VCMsg@@A ; lMsg
  000f8	e8 00 00 00 00	 call	 ?Get@CMsg@@QAEPADH@Z	; CMsg::Get
  000fd	50		 push	 eax
  000fe	e8 00 00 00 00	 call	 ?GCServerMsgStringSend@@YAXPADHE@Z ; GCServerMsgStringSend
  00103	83 c4 0c	 add	 esp, 12			; 0000000cH
  00106	5b		 pop	 ebx
  00107	5e		 pop	 esi

; 2738 : 		return 0;

  00108	33 c0		 xor	 eax, eax
  0010a	5f		 pop	 edi

; 2815 : #endif
; 2816 : 
; 2817 : 	return iLEFT_EXP;
; 2818 : }

  0010b	8b 4d fc	 mov	 ecx, DWORD PTR __$ArrayPad$[ebp]
  0010e	33 cd		 xor	 ecx, ebp
  00110	e8 00 00 00 00	 call	 @__security_check_cookie@4
  00115	8b e5		 mov	 esp, ebp
  00117	5d		 pop	 ebp
  00118	c2 08 00	 ret	 8
$LN12@LevelUp:

; 2739 : 	}
; 2740 : 
; 2741 : 	#else
; 2742 : 
; 2743 : 	if(gObj[iUserIndex].Level >= MAX_CHAR_LEVEL)
; 2744 : 	{
; 2745 : 		GCServerMsgStringSend(lMsg.Get(MSGGET(4, 112)), gObj[iUserIndex].m_Index, 1);
; 2746 : 		return 0;
; 2747 : 	}
; 2748 : 
; 2749 : 	#endif
; 2750 : 
; 2751 : 	if((gObj[iUserIndex].Experience + iAddExp) < gObj[iUserIndex].NextExp)

  0011b	8b bc 0e c8 00
	00 00		 mov	 edi, DWORD PTR [esi+ecx+200]
  00122	8b 55 0c	 mov	 edx, DWORD PTR _iAddExp$[ebp]
  00125	8d 84 0e c8 00
	00 00		 lea	 eax, DWORD PTR [esi+ecx+200]
  0012c	8d 8c 0e cc 00
	00 00		 lea	 ecx, DWORD PTR [esi+ecx+204]
  00133	03 fa		 add	 edi, edx
  00135	3b 39		 cmp	 edi, DWORD PTR [ecx]
  00137	73 07		 jae	 SHORT $LN11@LevelUp

; 2752 : 	{
; 2753 : 		gObj[iUserIndex].Experience += iAddExp;

  00139	01 10		 add	 DWORD PTR [eax], edx

; 2754 : 	}
; 2755 : 	else

  0013b	e9 2d 02 00 00	 jmp	 $LN5@LevelUp
$LN11@LevelUp:

; 2756 : 	{
; 2757 : 		iLEFT_EXP = gObj[iUserIndex].Experience + iAddExp - gObj[iUserIndex].NextExp;

  00140	8b 09		 mov	 ecx, DWORD PTR [ecx]
  00142	8b 18		 mov	 ebx, DWORD PTR [eax]

; 2758 : 		gObj[iUserIndex].Experience = gObj[iUserIndex].NextExp;

  00144	89 08		 mov	 DWORD PTR [eax], ecx

; 2759 : 		gObj[iUserIndex].Level++;

  00146	a1 00 00 00 00	 mov	 eax, DWORD PTR ?gObj@@3PAUOBJECTSTRUCT@@A ; gObj
  0014b	66 ff 84 06 be
	00 00 00	 inc	 WORD PTR [esi+eax+190]
  00153	2b d9		 sub	 ebx, ecx

; 2760 : 
; 2761 : 		if(gObj[iUserIndex].Class == CLASS_DARKLORD || gObj[iUserIndex].Class == CLASS_MAGUMSA)

  00155	8b 0d 00 00 00
	00		 mov	 ecx, DWORD PTR ?gObj@@3PAUOBJECTSTRUCT@@A ; gObj
  0015b	0f b7 84 0e b8
	00 00 00	 movzx	 eax, WORD PTR [esi+ecx+184]
  00163	03 da		 add	 ebx, edx
  00165	83 f8 04	 cmp	 eax, 4
  00168	74 16		 je	 SHORT $LN8@LevelUp
  0016a	83 f8 03	 cmp	 eax, 3
  0016d	74 11		 je	 SHORT $LN8@LevelUp

; 2764 : 		}
; 2765 : 		else
; 2766 : 		{
; 2767 : 			gObj[iUserIndex].LevelUpPoint += 5;

  0016f	83 84 0e c0 00
	00 00 05	 add	 DWORD PTR [esi+ecx+192], 5
  00177	8d 84 0e c0 00
	00 00		 lea	 eax, DWORD PTR [esi+ecx+192]
  0017e	eb 0f		 jmp	 SHORT $LN7@LevelUp
$LN8@LevelUp:

; 2762 : 		{
; 2763 : 			gObj[iUserIndex].LevelUpPoint += 7;

  00180	83 84 0e c0 00
	00 00 07	 add	 DWORD PTR [esi+ecx+192], 7
  00188	8d 84 0e c0 00
	00 00		 lea	 eax, DWORD PTR [esi+ecx+192]
$LN7@LevelUp:

; 2768 : 		}
; 2769 : 
; 2770 : 		if(gObj[iUserIndex].PlusStatQuestClear != false)

  0018f	8b 0d 00 00 00
	00		 mov	 ecx, DWORD PTR ?gObj@@3PAUOBJECTSTRUCT@@A ; gObj
  00195	80 bc 0e a5 00
	00 00 00	 cmp	 BYTE PTR [esi+ecx+165], 0
  0019d	74 39		 je	 SHORT $LN6@LevelUp

; 2771 : 		{
; 2772 : 			gObj[iUserIndex].LevelUpPoint++;

  0019f	ff 84 0e c0 00
	00 00		 inc	 DWORD PTR [esi+ecx+192]
  001a6	8d 84 0e c0 00
	00 00		 lea	 eax, DWORD PTR [esi+ecx+192]

; 2773 : 
; 2774 : 			LogAddTD("[%s][%s] LevelUp PlusStatQuest Clear AddStat %d", gObj[iUserIndex].AccountID, gObj[iUserIndex].Name, gObj[iUserIndex].LevelUpPoint);

  001ad	a1 00 00 00 00	 mov	 eax, DWORD PTR ?gObj@@3PAUOBJECTSTRUCT@@A ; gObj
  001b2	8b 8c 06 c0 00
	00 00		 mov	 ecx, DWORD PTR [esi+eax+192]
  001b9	51		 push	 ecx
  001ba	8d 54 06 77	 lea	 edx, DWORD PTR [esi+eax+119]
  001be	52		 push	 edx
  001bf	8d 44 06 6c	 lea	 eax, DWORD PTR [esi+eax+108]
  001c3	50		 push	 eax
  001c4	68 00 00 00 00	 push	 OFFSET ??_C@_0DA@KDBPKGIM@?$FL?$CFs?$FN?$FL?$CFs?$FN?5LevelUp?5PlusStatQuest?5C@
  001c9	ff 15 00 00 00
	00		 call	 DWORD PTR ?LogAddTD@@3P6AXPADZZA ; LogAddTD
  001cf	8b 0d 00 00 00
	00		 mov	 ecx, DWORD PTR ?gObj@@3PAUOBJECTSTRUCT@@A ; gObj
  001d5	83 c4 10	 add	 esp, 16			; 00000010H
$LN6@LevelUp:

; 2775 : 		}
; 2776 : 
; 2777 : 		gObj[iUserIndex].MaxLife += DCInfo.DefClass[gObj[iUserIndex].Class].LevelLife;

  001d8	8d 84 0e 00 01
	00 00		 lea	 eax, DWORD PTR [esi+ecx+256]
  001df	0f b7 8c 0e b8
	00 00 00	 movzx	 ecx, WORD PTR [esi+ecx+184]
  001e7	69 c9 c8 0b 00
	00		 imul	 ecx, 3016		; 00000bc8H
  001ed	d9 81 10 00 00
	00		 fld	 DWORD PTR ?DCInfo@@3Vclassdef@@A[ecx+16]
  001f3	d8 00		 fadd	 DWORD PTR [eax]
  001f5	d9 18		 fstp	 DWORD PTR [eax]

; 2778 : 		gObj[iUserIndex].MaxMana += DCInfo.DefClass[gObj[iUserIndex].Class].LevelMana;

  001f7	8b 0d 00 00 00
	00		 mov	 ecx, DWORD PTR ?gObj@@3PAUOBJECTSTRUCT@@A ; gObj
  001fd	0f b7 94 0e b8
	00 00 00	 movzx	 edx, WORD PTR [esi+ecx+184]
  00205	69 d2 c8 0b 00
	00		 imul	 edx, 3016		; 00000bc8H
  0020b	8d 84 0e 14 01
	00 00		 lea	 eax, DWORD PTR [esi+ecx+276]
  00212	d9 82 1c 00 00
	00		 fld	 DWORD PTR ?DCInfo@@3Vclassdef@@A[edx+28]
  00218	d8 00		 fadd	 DWORD PTR [eax]
  0021a	d9 18		 fstp	 DWORD PTR [eax]

; 2779 : 		gObj[iUserIndex].Life = gObj[iUserIndex].MaxLife;

  0021c	a1 00 00 00 00	 mov	 eax, DWORD PTR ?gObj@@3PAUOBJECTSTRUCT@@A ; gObj
  00221	d9 84 06 00 01
	00 00		 fld	 DWORD PTR [esi+eax+256]
  00228	d9 9c 06 fc 00
	00 00		 fstp	 DWORD PTR [esi+eax+252]

; 2780 : 		gObj[iUserIndex].Mana = gObj[iUserIndex].MaxMana;

  0022f	a1 00 00 00 00	 mov	 eax, DWORD PTR ?gObj@@3PAUOBJECTSTRUCT@@A ; gObj
  00234	d9 84 06 14 01
	00 00		 fld	 DWORD PTR [esi+eax+276]
  0023b	d9 9c 06 10 01
	00 00		 fstp	 DWORD PTR [esi+eax+272]

; 2781 : 		gObjNextExpCal(&gObj[iUserIndex]);

  00242	a1 00 00 00 00	 mov	 eax, DWORD PTR ?gObj@@3PAUOBJECTSTRUCT@@A ; gObj
  00247	8d 0c 06	 lea	 ecx, DWORD PTR [esi+eax]
  0024a	51		 push	 ecx
  0024b	e8 00 00 00 00	 call	 ?gObjNextExpCal@@YAXPAUOBJECTSTRUCT@@@Z ; gObjNextExpCal

; 2782 : 		gObjSetBP(gObj[iUserIndex].m_Index);

  00250	8b 15 00 00 00
	00		 mov	 edx, DWORD PTR ?gObj@@3PAUOBJECTSTRUCT@@A ; gObj
  00256	8b 04 16	 mov	 eax, DWORD PTR [esi+edx]
  00259	50		 push	 eax
  0025a	e8 00 00 00 00	 call	 ?gObjSetBP@@YAXH@Z	; gObjSetBP

; 2783 : 		GCLevelUpMsgSend(gObj[iUserIndex].m_Index, 1);

  0025f	8b 0d 00 00 00
	00		 mov	 ecx, DWORD PTR ?gObj@@3PAUOBJECTSTRUCT@@A ; gObj
  00265	8b 14 0e	 mov	 edx, DWORD PTR [esi+ecx]
  00268	6a 01		 push	 1
  0026a	52		 push	 edx
  0026b	e8 00 00 00 00	 call	 ?GCLevelUpMsgSend@@YAXHH@Z ; GCLevelUpMsgSend

; 2784 : 		gObjCalcMaxLifePower(gObj[iUserIndex].m_Index);

  00270	a1 00 00 00 00	 mov	 eax, DWORD PTR ?gObj@@3PAUOBJECTSTRUCT@@A ; gObj
  00275	8b 0c 06	 mov	 ecx, DWORD PTR [esi+eax]
  00278	51		 push	 ecx
  00279	e8 00 00 00 00	 call	 ?gObjCalcMaxLifePower@@YAXH@Z ; gObjCalcMaxLifePower

; 2785 : 
; 2786 : 		LogAddTD(lMsg.Get(MSGGET(2, 8)), gObj[iUserIndex].AccountID, gObj[iUserIndex].Name, gObj[iUserIndex].Level);

  0027e	a1 00 00 00 00	 mov	 eax, DWORD PTR ?gObj@@3PAUOBJECTSTRUCT@@A ; gObj
  00283	0f bf 94 06 be
	00 00 00	 movsx	 edx, WORD PTR [esi+eax+190]
  0028b	83 c4 14	 add	 esp, 20			; 00000014H
  0028e	52		 push	 edx
  0028f	8d 4c 06 77	 lea	 ecx, DWORD PTR [esi+eax+119]
  00293	51		 push	 ecx
  00294	8d 54 06 6c	 lea	 edx, DWORD PTR [esi+eax+108]
  00298	52		 push	 edx
  00299	68 08 02 00 00	 push	 520			; 00000208H
  0029e	b9 00 00 00 00	 mov	 ecx, OFFSET ?lMsg@@3VCMsg@@A ; lMsg
  002a3	e8 00 00 00 00	 call	 ?Get@CMsg@@QAEPADH@Z	; CMsg::Get
  002a8	50		 push	 eax
  002a9	ff 15 00 00 00
	00		 call	 DWORD PTR ?LogAddTD@@3P6AXPADZZA ; LogAddTD

; 2787 : 
; 2788 : 		//----------------------------------------------------------------------------------------------
; 2789 : 
; 2790 : 		if( gObj[iUserIndex].Level == 400 && gObj[iUserIndex].PartyNumber >= 0 )

  002af	a1 00 00 00 00	 mov	 eax, DWORD PTR ?gObj@@3PAUOBJECTSTRUCT@@A ; gObj
  002b4	b9 90 01 00 00	 mov	 ecx, 400		; 00000190H
  002b9	83 c4 10	 add	 esp, 16			; 00000010H
  002bc	66 39 8c 06 be
	00 00 00	 cmp	 WORD PTR [esi+eax+190], cx
  002c4	0f 85 a3 00 00
	00		 jne	 $LN5@LevelUp
  002ca	83 bc 06 2c 04
	00 00 00	 cmp	 DWORD PTR [esi+eax+1068], 0
  002d2	0f 8c 95 00 00
	00		 jl	 $LN5@LevelUp

; 2791 : 		{
; 2792 : 			int iPartyNumber = gObj[iUserIndex].PartyNumber;

  002d8	8b bc 06 2c 04
	00 00		 mov	 edi, DWORD PTR [esi+eax+1068]

; 2793 : 			char szMsg[256];
; 2794 : 			sprintf(szMsg,"400 LevelUp (%s)(%s) Party ",gObj[iUserIndex].AccountID,gObj[iUserIndex].Name);

  002df	8d 54 06 77	 lea	 edx, DWORD PTR [esi+eax+119]
  002e3	52		 push	 edx
  002e4	8d 44 06 6c	 lea	 eax, DWORD PTR [esi+eax+108]
  002e8	50		 push	 eax
  002e9	8d 8d fc fe ff
	ff		 lea	 ecx, DWORD PTR _szMsg$216946[ebp]
  002ef	68 00 00 00 00	 push	 OFFSET ??_C@_0BM@DJAOLMAF@400?5LevelUp?5?$CI?$CFs?$CJ?$CI?$CFs?$CJ?5Party?5?$AA@
  002f4	51		 push	 ecx
  002f5	e8 00 00 00 00	 call	 _sprintf
  002fa	6b ff 68	 imul	 edi, 104		; 00000068H
  002fd	83 c4 10	 add	 esp, 16			; 00000010H
  00300	81 c7 0c 00 00
	00		 add	 edi, OFFSET ?gParty@@3VPartyClass@@A+12
  00306	c7 85 f8 fe ff
	ff 0a 00 00 00	 mov	 DWORD PTR tv304[ebp], 10 ; 0000000aH
$LL4@LevelUp:

; 2798 : 			{
; 2799 : 				iPartyNumIndex = gParty.m_PartyS[iPartyNumber].Number[i];

  00310	8b 0f		 mov	 ecx, DWORD PTR [edi]

; 2800 : 
; 2801 : 				if( iPartyNumIndex >= 0  )

  00312	85 c9		 test	 ecx, ecx
  00314	78 3c		 js	 SHORT $LN3@LevelUp

; 2802 : 				{
; 2803 : 					int iSize = strlen(szMsg);

  00316	8d 85 fc fe ff
	ff		 lea	 eax, DWORD PTR _szMsg$216946[ebp]
  0031c	8d 70 01	 lea	 esi, DWORD PTR [eax+1]
  0031f	90		 npad	 1
$LL22@LevelUp:
  00320	8a 10		 mov	 dl, BYTE PTR [eax]
  00322	40		 inc	 eax
  00323	84 d2		 test	 dl, dl
  00325	75 f9		 jne	 SHORT $LL22@LevelUp

; 2804 : 					sprintf(&szMsg[iSize],",(%s)(%s) ",gObj[iPartyNumIndex].AccountID,gObj[iPartyNumIndex].Name);

  00327	69 c9 50 2b 00
	00		 imul	 ecx, 11088		; 00002b50H
  0032d	03 0d 00 00 00
	00		 add	 ecx, DWORD PTR ?gObj@@3PAUOBJECTSTRUCT@@A ; gObj
  00333	2b c6		 sub	 eax, esi
  00335	8d 51 77	 lea	 edx, DWORD PTR [ecx+119]
  00338	52		 push	 edx
  00339	83 c1 6c	 add	 ecx, 108		; 0000006cH
  0033c	51		 push	 ecx
  0033d	8d 84 05 fc fe
	ff ff		 lea	 eax, DWORD PTR _szMsg$216946[ebp+eax]
  00344	68 00 00 00 00	 push	 OFFSET ??_C@_0L@MNKEEMGH@?0?$CI?$CFs?$CJ?$CI?$CFs?$CJ?5?$AA@
  00349	50		 push	 eax
  0034a	e8 00 00 00 00	 call	 _sprintf
  0034f	83 c4 10	 add	 esp, 16			; 00000010H
$LN3@LevelUp:

; 2795 : 			int iPartyNumIndex;
; 2796 : 
; 2797 : 			for( int i = 0; i<MAX_USER_IN_PARTY; i++ )

  00352	83 c7 04	 add	 edi, 4
  00355	ff 8d f8 fe ff
	ff		 dec	 DWORD PTR tv304[ebp]
  0035b	75 b3		 jne	 SHORT $LL4@LevelUp

; 2805 : 				}
; 2806 : 			}
; 2807 : 			LogAddTD(szMsg);

  0035d	8d 8d fc fe ff
	ff		 lea	 ecx, DWORD PTR _szMsg$216946[ebp]
  00363	51		 push	 ecx
  00364	ff 15 00 00 00
	00		 call	 DWORD PTR ?LogAddTD@@3P6AXPADZZA ; LogAddTD
  0036a	83 c4 04	 add	 esp, 4
$LN5@LevelUp:

; 2808 : 		}
; 2809 : 	}
; 2810 : #ifndef FIX_DS_CRASH
; 2811 : 	GJSetCharacterInfo(&gObj[iUserIndex], gObj[iUserIndex].m_Index, 0);
; 2812 : #endif
; 2813 : #if(SYSTEM_ACHIEVEMENTS)
; 2814 : 	g_Achievements.LevelUp(iUserIndex);

  0036d	8b 95 f4 fe ff
	ff		 mov	 edx, DWORD PTR _iUserIndex$GSCopy$[ebp]
  00373	52		 push	 edx
  00374	b9 00 00 00 00	 mov	 ecx, OFFSET ?g_Achievements@@3VCAchievements@@A ; g_Achievements
  00379	e8 00 00 00 00	 call	 ?LevelUp@CAchievements@@QAEXH@Z ; CAchievements::LevelUp

; 2815 : #endif
; 2816 : 
; 2817 : 	return iLEFT_EXP;
; 2818 : }

  0037e	8b 4d fc	 mov	 ecx, DWORD PTR __$ArrayPad$[ebp]
  00381	8b c3		 mov	 eax, ebx
  00383	5b		 pop	 ebx
  00384	5e		 pop	 esi
  00385	33 cd		 xor	 ecx, ebp
  00387	5f		 pop	 edi
  00388	e8 00 00 00 00	 call	 @__security_check_cookie@4
  0038d	8b e5		 mov	 esp, ebp
  0038f	5d		 pop	 ebp
  00390	c2 08 00	 ret	 8
?LevelUp@CIllusionTempleProcess@@QAEHHH@Z ENDP		; CIllusionTempleProcess::LevelUp
_TEXT	ENDS
PUBLIC	?GetRemainTime@CIllusionTempleProcess@@QAEEXZ	; CIllusionTempleProcess::GetRemainTime
; Function compile flags: /Ogtp
;	COMDAT ?GetRemainTime@CIllusionTempleProcess@@QAEEXZ
_TEXT	SEGMENT
?GetRemainTime@CIllusionTempleProcess@@QAEEXZ PROC	; CIllusionTempleProcess::GetRemainTime, COMDAT
; _this$ = ecx

; 2822 : 	if(!this->GetState())

  00000	e8 00 00 00 00	 call	 ?GetState@CIllusionTempleProcess@@QAEEXZ ; CIllusionTempleProcess::GetState
  00005	84 c0		 test	 al, al
  00007	75 07		 jne	 SHORT $LN1@GetRemainT

; 2823 : 	{
; 2824 : 		return this->m_iLeftMinutesBeforeOpen;

  00009	8a 81 98 03 00
	00		 mov	 al, BYTE PTR [ecx+920]

; 2828 : }

  0000f	c3		 ret	 0
$LN1@GetRemainT:

; 2825 : 	}
; 2826 : 
; 2827 : 	return 0;

  00010	32 c0		 xor	 al, al

; 2828 : }

  00012	c3		 ret	 0
?GetRemainTime@CIllusionTempleProcess@@QAEEXZ ENDP	; CIllusionTempleProcess::GetRemainTime
_TEXT	ENDS
PUBLIC	?CheckShieldSpellTime@CIllusionTempleProcess@@QAEHH@Z ; CIllusionTempleProcess::CheckShieldSpellTime
; Function compile flags: /Ogtp
;	COMDAT ?CheckShieldSpellTime@CIllusionTempleProcess@@QAEHH@Z
_TEXT	SEGMENT
_aIndex$ = 8						; size = 4
?CheckShieldSpellTime@CIllusionTempleProcess@@QAEHH@Z PROC ; CIllusionTempleProcess::CheckShieldSpellTime, COMDAT
; _this$ = ecx

; 2831 : {

  00000	55		 push	 ebp
  00001	8b ec		 mov	 ebp, esp

; 2832 : 	if(CHECK_LIMIT( (aIndex), MAX_FLOOR_USER) == FALSE)

  00003	8b 45 08	 mov	 eax, DWORD PTR _aIndex$[ebp]
  00006	85 c0		 test	 eax, eax
  00008	78 28		 js	 SHORT $LN1@CheckShiel
  0000a	33 d2		 xor	 edx, edx
  0000c	83 f8 09	 cmp	 eax, 9
  0000f	0f 9e c2	 setle	 dl
  00012	85 d2		 test	 edx, edx

; 2833 : 	{
; 2834 : 		return FALSE;

  00014	74 1c		 je	 SHORT $LN1@CheckShiel

; 2835 : 	}
; 2836 : 
; 2837 : 	if(this->m_FloorData[aIndex].m_iTeamPlayerIndex != -1)

  00016	8d 04 40	 lea	 eax, DWORD PTR [eax+eax*2]
  00019	03 c0		 add	 eax, eax
  0001b	83 7c c1 20 ff	 cmp	 DWORD PTR [ecx+eax*8+32], -1
  00020	74 10		 je	 SHORT $LN1@CheckShiel

; 2838 : 	{
; 2839 : 		if(this->m_FloorData[aIndex].m_dwShieldSpellTime > 0)

  00022	83 7c c1 28 00	 cmp	 DWORD PTR [ecx+eax*8+40], 0
  00027	76 09		 jbe	 SHORT $LN1@CheckShiel

; 2840 : 		{
; 2841 : 			return TRUE;

  00029	b8 01 00 00 00	 mov	 eax, 1

; 2846 : }

  0002e	5d		 pop	 ebp
  0002f	c2 04 00	 ret	 4
$LN1@CheckShiel:

; 2842 : 		}
; 2843 : 	}
; 2844 : 
; 2845 : 	return FALSE;

  00032	33 c0		 xor	 eax, eax

; 2846 : }

  00034	5d		 pop	 ebp
  00035	c2 04 00	 ret	 4
?CheckShieldSpellTime@CIllusionTempleProcess@@QAEHH@Z ENDP ; CIllusionTempleProcess::CheckShieldSpellTime
_TEXT	ENDS
PUBLIC	?CheckRestrictionSpellTime@CIllusionTempleProcess@@QAEHH@Z ; CIllusionTempleProcess::CheckRestrictionSpellTime
; Function compile flags: /Ogtp
;	COMDAT ?CheckRestrictionSpellTime@CIllusionTempleProcess@@QAEHH@Z
_TEXT	SEGMENT
_aIndex$ = 8						; size = 4
?CheckRestrictionSpellTime@CIllusionTempleProcess@@QAEHH@Z PROC ; CIllusionTempleProcess::CheckRestrictionSpellTime, COMDAT
; _this$ = ecx

; 2849 : {

  00000	55		 push	 ebp
  00001	8b ec		 mov	 ebp, esp

; 2850 : 	if(CHECK_LIMIT( (aIndex), MAX_FLOOR_USER) == FALSE)

  00003	8b 45 08	 mov	 eax, DWORD PTR _aIndex$[ebp]
  00006	85 c0		 test	 eax, eax
  00008	78 28		 js	 SHORT $LN1@CheckRestr
  0000a	33 d2		 xor	 edx, edx
  0000c	83 f8 09	 cmp	 eax, 9
  0000f	0f 9e c2	 setle	 dl
  00012	85 d2		 test	 edx, edx

; 2851 : 	{
; 2852 : 		return FALSE;

  00014	74 1c		 je	 SHORT $LN1@CheckRestr

; 2853 : 	}
; 2854 : 
; 2855 : 	if(this->m_FloorData[aIndex].m_iTeamPlayerIndex != -1)

  00016	8d 04 40	 lea	 eax, DWORD PTR [eax+eax*2]
  00019	03 c0		 add	 eax, eax
  0001b	83 7c c1 20 ff	 cmp	 DWORD PTR [ecx+eax*8+32], -1
  00020	74 10		 je	 SHORT $LN1@CheckRestr

; 2856 : 	{
; 2857 : 		if(this->m_FloorData[aIndex].m_dwRestrictionSpellTime > 0)

  00022	83 7c c1 2c 00	 cmp	 DWORD PTR [ecx+eax*8+44], 0
  00027	76 09		 jbe	 SHORT $LN1@CheckRestr

; 2858 : 		{
; 2859 : 			return TRUE;

  00029	b8 01 00 00 00	 mov	 eax, 1

; 2864 : }

  0002e	5d		 pop	 ebp
  0002f	c2 04 00	 ret	 4
$LN1@CheckRestr:

; 2860 : 		}
; 2861 : 	}
; 2862 : 
; 2863 : 	return FALSE;

  00032	33 c0		 xor	 eax, eax

; 2864 : }

  00034	5d		 pop	 ebp
  00035	c2 04 00	 ret	 4
?CheckRestrictionSpellTime@CIllusionTempleProcess@@QAEHH@Z ENDP ; CIllusionTempleProcess::CheckRestrictionSpellTime
_TEXT	ENDS
PUBLIC	??_C@_0JI@DILJDNAH@?$FLIllusion?5Temple?$FN?5?$CI?$CFd?$CJ?5RewardExp@ ; `string'
PUBLIC	_this$GSCopy$
PUBLIC	__$ArrayPad$
PUBLIC	?SendRewardScore@CIllusionTempleProcess@@QAEXXZ	; CIllusionTempleProcess::SendRewardScore
;	COMDAT ??_C@_0JI@DILJDNAH@?$FLIllusion?5Temple?$FN?5?$CI?$CFd?$CJ?5RewardExp@
CONST	SEGMENT
??_C@_0JI@DILJDNAH@?$FLIllusion?5Temple?$FN?5?$CI?$CFd?$CJ?5RewardExp@ DB '['
	DB	'Illusion Temple] (%d) RewardExp Result  (Account:%s, Name:%s,'
	DB	' Team:%d, Class:%d, UserKillCount:%d, RelicsMoveCount:%d, Rew'
	DB	'ardExp:%d, RankingPoint: %d)', 00H		; `string'
; Function compile flags: /Ogtp
CONST	ENDS
;	COMDAT ?SendRewardScore@CIllusionTempleProcess@@QAEXXZ
_TEXT	SEGMENT
_TempMsg$216985 = -304					; size = 20
_this$GSCopy$ = -284					; size = 4
tv693 = -280						; size = 4
tv182 = -276						; size = 4
_loc2$ = -272						; size = 4
_pMsg$ = -268						; size = 7
_cTEMP_BUF$ = -260					; size = 256
__$ArrayPad$ = -4					; size = 4
?SendRewardScore@CIllusionTempleProcess@@QAEXXZ PROC	; CIllusionTempleProcess::SendRewardScore, COMDAT
; _this$ = ecx

; 2867 : {

  00000	55		 push	 ebp
  00001	8b ec		 mov	 ebp, esp
  00003	81 ec 30 01 00
	00		 sub	 esp, 304		; 00000130H
  00009	a1 00 00 00 00	 mov	 eax, DWORD PTR ___security_cookie
  0000e	33 c5		 xor	 eax, ebp
  00010	89 45 fc	 mov	 DWORD PTR __$ArrayPad$[ebp], eax

; 2868 : 	int loc2 = 0;
; 2869 : 
; 2870 : 	char cTEMP_BUF[256];
; 2871 : 	_ILLUSIONTEMPLE_RANKING_DATA pMsg;
; 2872 : 
; 2873 : 	pMsg.m_btYellowTeamScore = this->m_btYellowTeamScore;

  00013	0f b6 81 d0 03
	00 00		 movzx	 eax, BYTE PTR [ecx+976]

; 2874 : 	pMsg.m_btBlueTeamScore = this->m_btBlueTeamScore;

  0001a	8a 91 d1 03 00
	00		 mov	 dl, BYTE PTR [ecx+977]
  00020	53		 push	 ebx
  00021	88 85 f8 fe ff
	ff		 mov	 BYTE PTR _pMsg$[ebp+4], al

; 2875 : 	pMsg.m_btEnteredUserCount = this->m_iEnteredUserCount;

  00027	0f b6 81 28 02
	00 00		 movzx	 eax, BYTE PTR [ecx+552]
  0002e	56		 push	 esi

; 2882 : 	{
; 2883 : 		_ILLUSIONTEMPLE_PLAYER_RANK_DATA TempMsg;
; 2884 : 
; 2885 : 		if(this->m_FloorData[i].m_iTeamPlayerIndex != -1 && gObj[this->m_FloorData[i].m_iTeamPlayerIndex].Connected > PLAYER_LOGGED)

  0002f	8d 71 20	 lea	 esi, DWORD PTR [ecx+32]
  00032	57		 push	 edi
  00033	89 8d e4 fe ff
	ff		 mov	 DWORD PTR _this$GSCopy$[ebp], ecx
  00039	88 95 f9 fe ff
	ff		 mov	 BYTE PTR _pMsg$[ebp+5], dl
  0003f	88 85 fa fe ff
	ff		 mov	 BYTE PTR _pMsg$[ebp+6], al
  00045	c7 85 f0 fe ff
	ff 07 00 00 00	 mov	 DWORD PTR _loc2$[ebp], 7
  0004f	8d bd 03 ff ff
	ff		 lea	 edi, DWORD PTR _cTEMP_BUF$[ebp+7]
  00055	89 b5 e8 fe ff
	ff		 mov	 DWORD PTR tv693[ebp], esi
  0005b	c7 85 ec fe ff
	ff 0a 00 00 00	 mov	 DWORD PTR tv182[ebp], 10 ; 0000000aH
$LL9@SendReward:
  00065	8b 06		 mov	 eax, DWORD PTR [esi]
  00067	83 f8 ff	 cmp	 eax, -1
  0006a	0f 84 cf 00 00
	00		 je	 $LN8@SendReward
  00070	69 c0 50 2b 00
	00		 imul	 eax, 11088		; 00002b50H
  00076	03 05 00 00 00
	00		 add	 eax, DWORD PTR ?gObj@@3PAUOBJECTSTRUCT@@A ; gObj
  0007c	83 78 04 02	 cmp	 DWORD PTR [eax+4], 2
  00080	0f 8e b9 00 00
	00		 jle	 $LN8@SendReward

; 2886 : 		{
; 2887 : 			memcpy(TempMsg.szCharacterName, gObj[this->m_FloorData[i].m_iTeamPlayerIndex].Name, 10);

  00086	8b 50 7b	 mov	 edx, DWORD PTR [eax+123]
  00089	8b 58 77	 mov	 ebx, DWORD PTR [eax+119]

; 2888 : 			TempMsg.m_btMapNumber = this->m_btFloorIndex + MAP_INDEX_ILLUSIONTEMPLE_MIN;

  0008c	8a 89 2c 02 00
	00		 mov	 cl, BYTE PTR [ecx+556]
  00092	89 95 d4 fe ff
	ff		 mov	 DWORD PTR _TempMsg$216985[ebp+4], edx
  00098	66 8b 50 7f	 mov	 dx, WORD PTR [eax+127]

; 2889 : 			TempMsg.m_btTeamJoinSide = this->m_FloorData[i].m_btTeamJoinSide;
; 2890 : 			TempMsg.m_btClass = gObj[this->m_FloorData[i].m_iTeamPlayerIndex].Class;

  0009c	8a 80 b8 00 00
	00		 mov	 al, BYTE PTR [eax+184]

; 2891 : 			TempMsg.m_dwExpReward = this->m_FloorData[i].m_i64ExpReward;
; 2892 : 
; 2893 : 			memcpy(&cTEMP_BUF[loc2],&TempMsg,sizeof(_ILLUSIONTEMPLE_PLAYER_RANK_DATA));

  000a2	89 1f		 mov	 DWORD PTR [edi], ebx
  000a4	8b 9d d4 fe ff
	ff		 mov	 ebx, DWORD PTR _TempMsg$216985[ebp+4]
  000aa	89 5f 04	 mov	 DWORD PTR [edi+4], ebx
  000ad	66 89 95 d8 fe
	ff ff		 mov	 WORD PTR _TempMsg$216985[ebp+8], dx
  000b4	8d 51 2d	 lea	 edx, DWORD PTR [ecx+45]
  000b7	88 95 da fe ff
	ff		 mov	 BYTE PTR _TempMsg$216985[ebp+10], dl
  000bd	8a 56 04	 mov	 dl, BYTE PTR [esi+4]
  000c0	88 85 dc fe ff
	ff		 mov	 BYTE PTR _TempMsg$216985[ebp+12], al
  000c6	8b 46 18	 mov	 eax, DWORD PTR [esi+24]
  000c9	88 95 db fe ff
	ff		 mov	 BYTE PTR _TempMsg$216985[ebp+11], dl
  000cf	8b 9d d8 fe ff
	ff		 mov	 ebx, DWORD PTR _TempMsg$216985[ebp+8]
  000d5	89 5f 08	 mov	 DWORD PTR [edi+8], ebx
  000d8	8b 9d dc fe ff
	ff		 mov	 ebx, DWORD PTR _TempMsg$216985[ebp+12]
  000de	89 5f 0c	 mov	 DWORD PTR [edi+12], ebx

; 2894 : 
; 2895 : 			loc2 += sizeof(_ILLUSIONTEMPLE_PLAYER_RANK_DATA);
; 2896 : 
; 2897 : 			LogAddTD("[Illusion Temple] (%d) RewardExp Result  (Account:%s, Name:%s, Team:%d, Class:%d, UserKillCount:%d, RelicsMoveCount:%d, RewardExp:%d, RankingPoint: %d)", this->m_btFloorIndex+1, gObj[this->m_FloorData[i].m_iTeamPlayerIndex].AccountID, gObj[this->m_FloorData[i].m_iTeamPlayerIndex].Name, this->m_FloorData[i].m_btTeamJoinSide, gObj[this->m_FloorData[i].m_iTeamPlayerIndex].DbClass, this->m_FloorData[i].m_btUserKillCount, this->m_FloorData[i].m_btPlayerRewardKillCount, this->m_FloorData[i].m_i64ExpReward, this->m_FloorData[i].m_dwRankingPoint);

  000e1	8b 5e 20	 mov	 ebx, DWORD PTR [esi+32]
  000e4	53		 push	 ebx
  000e5	8b 5e 1c	 mov	 ebx, DWORD PTR [esi+28]
  000e8	53		 push	 ebx
  000e9	8b 5e 18	 mov	 ebx, DWORD PTR [esi+24]
  000ec	89 47 10	 mov	 DWORD PTR [edi+16], eax
  000ef	8b 06		 mov	 eax, DWORD PTR [esi]
  000f1	53		 push	 ebx
  000f2	69 c0 50 2b 00
	00		 imul	 eax, 11088		; 00002b50H
  000f8	0f b6 5e 12	 movzx	 ebx, BYTE PTR [esi+18]
  000fc	03 05 00 00 00
	00		 add	 eax, DWORD PTR ?gObj@@3PAUOBJECTSTRUCT@@A ; gObj
  00102	53		 push	 ebx
  00103	0f b6 5e 10	 movzx	 ebx, BYTE PTR [esi+16]
  00107	83 85 f0 fe ff
	ff 14		 add	 DWORD PTR _loc2$[ebp], 20 ; 00000014H
  0010e	53		 push	 ebx
  0010f	0f b6 98 ba 00
	00 00		 movzx	 ebx, BYTE PTR [eax+186]
  00116	53		 push	 ebx
  00117	0f b6 d2	 movzx	 edx, dl
  0011a	52		 push	 edx
  0011b	8d 50 77	 lea	 edx, DWORD PTR [eax+119]
  0011e	52		 push	 edx
  0011f	83 c0 6c	 add	 eax, 108		; 0000006cH
  00122	50		 push	 eax
  00123	0f b6 c1	 movzx	 eax, cl
  00126	40		 inc	 eax
  00127	50		 push	 eax
  00128	68 00 00 00 00	 push	 OFFSET ??_C@_0JI@DILJDNAH@?$FLIllusion?5Temple?$FN?5?$CI?$CFd?$CJ?5RewardExp@
  0012d	83 c7 14	 add	 edi, 20			; 00000014H
  00130	ff 15 00 00 00
	00		 call	 DWORD PTR ?LogAddTD@@3P6AXPADZZA ; LogAddTD
  00136	8b 8d e4 fe ff
	ff		 mov	 ecx, DWORD PTR _this$GSCopy$[ebp]
  0013c	83 c4 2c	 add	 esp, 44			; 0000002cH
$LN8@SendReward:

; 2876 : 
; 2877 : 	loc2 += sizeof(_ILLUSIONTEMPLE_RANKING_DATA);
; 2878 : 
; 2879 : 	int i;
; 2880 : 
; 2881 : 	for(i = 0; i < MAX_FLOOR_USER; i++)

  0013f	83 c6 30	 add	 esi, 48			; 00000030H
  00142	ff 8d ec fe ff
	ff		 dec	 DWORD PTR tv182[ebp]
  00148	0f 85 17 ff ff
	ff		 jne	 $LL9@SendReward

; 2898 : 		}
; 2899 : 	}
; 2900 : 
; 2901 : 	PHeadSubSetB((LPBYTE)&pMsg, 0xBF, 0x04, loc2);

  0014e	8b 8d f0 fe ff
	ff		 mov	 ecx, DWORD PTR _loc2$[ebp]
  00154	51		 push	 ecx
  00155	6a 04		 push	 4
  00157	8d 95 f4 fe ff
	ff		 lea	 edx, DWORD PTR _pMsg$[ebp]
  0015d	68 bf 00 00 00	 push	 191			; 000000bfH
  00162	52		 push	 edx
  00163	e8 00 00 00 00	 call	 ?PHeadSubSetB@@YAXPAEEEH@Z ; PHeadSubSetB

; 2902 : 
; 2903 : 	memcpy(cTEMP_BUF,&pMsg,sizeof(pMsg));

  00168	8b 85 f4 fe ff
	ff		 mov	 eax, DWORD PTR _pMsg$[ebp]
  0016e	66 8b 8d f8 fe
	ff ff		 mov	 cx, WORD PTR _pMsg$[ebp+4]
  00175	8a 95 fa fe ff
	ff		 mov	 dl, BYTE PTR _pMsg$[ebp+6]
  0017b	8b b5 e8 fe ff
	ff		 mov	 esi, DWORD PTR tv693[ebp]
  00181	83 c4 10	 add	 esp, 16			; 00000010H
  00184	89 85 fc fe ff
	ff		 mov	 DWORD PTR _cTEMP_BUF$[ebp], eax
  0018a	66 89 8d 00 ff
	ff ff		 mov	 WORD PTR _cTEMP_BUF$[ebp+4], cx
  00191	88 95 02 ff ff
	ff		 mov	 BYTE PTR _cTEMP_BUF$[ebp+6], dl
  00197	bf 0a 00 00 00	 mov	 edi, 10			; 0000000aH
  0019c	b3 ff		 mov	 bl, 255			; 000000ffH
  0019e	8b ff		 npad	 2
$LL5@SendReward:

; 2906 : 	{
; 2907 : 		if(this->m_FloorData[i].m_btTeamJoinSide == (BYTE)-1)

  001a0	38 5e 04	 cmp	 BYTE PTR [esi+4], bl
  001a3	74 34		 je	 SHORT $LN4@SendReward

; 2908 : 		{
; 2909 : 			continue;
; 2910 : 		}
; 2911 : 
; 2912 : 		if(this->m_FloorData[i].m_iTeamPlayerIndex != -1 && gObj[this->m_FloorData[i].m_iTeamPlayerIndex].Connected > PLAYER_LOGGED)

  001a5	8b 06		 mov	 eax, DWORD PTR [esi]
  001a7	83 f8 ff	 cmp	 eax, -1
  001aa	74 2d		 je	 SHORT $LN4@SendReward
  001ac	8b 15 00 00 00
	00		 mov	 edx, DWORD PTR ?gObj@@3PAUOBJECTSTRUCT@@A ; gObj
  001b2	8b c8		 mov	 ecx, eax
  001b4	69 c9 50 2b 00
	00		 imul	 ecx, 11088		; 00002b50H
  001ba	83 7c 11 04 02	 cmp	 DWORD PTR [ecx+edx+4], 2
  001bf	7e 18		 jle	 SHORT $LN4@SendReward

; 2913 : 		{
; 2914 : 			DataSend(this->m_FloorData[i].m_iTeamPlayerIndex,(LPBYTE)cTEMP_BUF,pMsg.h.size);

  001c1	0f b6 8d f5 fe
	ff ff		 movzx	 ecx, BYTE PTR _pMsg$[ebp+1]
  001c8	51		 push	 ecx
  001c9	8d 95 fc fe ff
	ff		 lea	 edx, DWORD PTR _cTEMP_BUF$[ebp]
  001cf	52		 push	 edx
  001d0	50		 push	 eax
  001d1	e8 00 00 00 00	 call	 ?DataSend@@YAHHPAEK@Z	; DataSend
  001d6	83 c4 0c	 add	 esp, 12			; 0000000cH
$LN4@SendReward:

; 2904 : 
; 2905 : 	for(i = 0; i < MAX_FLOOR_USER; i++)

  001d9	83 c6 30	 add	 esi, 48			; 00000030H
  001dc	4f		 dec	 edi
  001dd	75 c1		 jne	 SHORT $LL5@SendReward

; 2915 : 		}
; 2916 : 	}
; 2917 : }

  001df	8b 4d fc	 mov	 ecx, DWORD PTR __$ArrayPad$[ebp]
  001e2	5f		 pop	 edi
  001e3	5e		 pop	 esi
  001e4	33 cd		 xor	 ecx, ebp
  001e6	5b		 pop	 ebx
  001e7	e8 00 00 00 00	 call	 @__security_check_cookie@4
  001ec	8b e5		 mov	 esp, ebp
  001ee	5d		 pop	 ebp
  001ef	c3		 ret	 0
?SendRewardScore@CIllusionTempleProcess@@QAEXXZ ENDP	; CIllusionTempleProcess::SendRewardScore
_TEXT	ENDS
PUBLIC	?size@?$list@UILLUSIONTEMPLE_START_TIME@@V?$allocator@UILLUSIONTEMPLE_START_TIME@@@std@@@std@@QBEIXZ ; std::list<ILLUSIONTEMPLE_START_TIME,std::allocator<ILLUSIONTEMPLE_START_TIME> >::size
; Function compile flags: /Ogtp
; File d:\program files (x86)\microsoft visual studio 10.0\vc\include\list
