; Listing generated by Microsoft (R) Optimizing Compiler Version 16.00.30319.01 

	TITLE	E:\work\tranet_version\GS\GameServer\IllusionTempleProcess.cpp
	.686P
	.XMM
	include listing.inc
	.model	flat

INCLUDELIB LIBCMT
INCLUDELIB OLDNAMES

_DATA	SEGMENT
_g_iNpcUpDfLevel_CGATE DD 01H
	DD	02H
	DD	02dc6c0H
	DD	02H
	DD	03H
	DD	02dc6c0H
	DD	03H
	DD	04H
	DD	02dc6c0H
_g_iNpcUpDfLevel_CSTATUE DD 01H
	DD	03H
	DD	02dc6c0H
	DD	02H
	DD	05H
	DD	02dc6c0H
	DD	03H
	DD	07H
	DD	02dc6c0H
_g_iNpcUpMaxHP_CGATE DD 02625a0H
	DD	02H
	DD	0f4240H
	DD	03567e0H
	DD	03H
	DD	0f4240H
	DD	04f5880H
	DD	04H
	DD	0f4240H
_g_iNpcUpMaxHP_CSTATUE DD 02191c0H
	DD	03H
	DD	0f4240H
	DD	033e140H
	DD	05H
	DD	0f4240H
	DD	04c4b40H
	DD	07H
	DD	0f4240H
_g_iNpcUpRgLevel_CSTATUE DD 01H
	DD	03H
	DD	04c4b40H
	DD	02H
	DD	05H
	DD	04c4b40H
	DD	03H
	DD	07H
	DD	04c4b40H
_g_iCsUserReSpawnArea DD 023H
	DD	011H
	DD	090H
	DD	030H
	DD	04aH
	DD	090H
	DD	073H
	DD	09aH
	DD	023H
	DD	011H
	DD	090H
	DD	030H
_g_iNpcDefense_CGATE DD 064H
	DD	0b4H
	DD	012cH
	DD	0208H
_g_iNpcDefense_CSTATUE DD 050H
	DD	0b4H
	DD	0154H
	DD	0226H
_g_iCastleWallStepAxisY DD 071H
	DD	0a0H
	DD	0cbH
_g_sttBLOODCASTLE_LEVEL DD 0fH
	DD	050H
	DD	0aH
	DD	03cH
	DD	051H
	DD	082H
	DD	03dH
	DD	06eH
	DD	083H
	DD	0b4H
	DD	06fH
	DD	0a0H
	DD	0b5H
	DD	0e6H
	DD	0a1H
	DD	0d2H
	DD	0e7H
	DD	0118H
	DD	0d3H
	DD	0104H
	DD	0119H
	DD	014aH
	DD	0105H
	DD	0136H
	DD	014bH
	DD	03e8H
	DD	0137H
	DD	03e8H
	DD	0fH
	DD	04afH
	DD	0aH
	DD	04afH
_g_sttCHAOSCASTLE_LEVEL DD 0fH
	DD	031H
	DD	0fH
	DD	01dH
	DD	032H
	DD	077H
	DD	01eH
	DD	063H
	DD	078H
	DD	0b3H
	DD	064H
	DD	09fH
	DD	0b4H
	DD	0efH
	DD	0a0H
	DD	0dbH
	DD	0f0H
	DD	012bH
	DD	0dcH
	DD	0117H
	DD	012cH
	DD	03e8H
	DD	0118H
	DD	03e8H
	DD	03e8H
	DD	04afH
	DD	03e8H
	DD	04afH
_g_iChaosCastle_BlowOutDistance DD 03H
	DD	04H
	DD	03H
	DD	04H
	DD	02H
	DD	03H
	DD	00H
	DD	01H
_g_iChaosCastle_BlowOutDamage DD 0fH
	DD	0fH
	DD	0aH
	DD	05H
_g_iChaosCastle_EnterCost DD 061a8H
	DD	013880H
	DD	0249f0H
	DD	03d090H
	DD	061a80H
	DD	09eb10H
	DD	0f4240H
_g_iChaosCastle_GuardSetValue DD 09c4H
	DD	09c4H
	DD	09c4H
	DD	09c4H
	DD	09c4H
	DD	09c4H
	DD	09c4H
_g_iChaosCastle_MonsterItems DD 01c0dH
	DD	01H
	DD	01c0eH
	DD	02H
	DD	01c0dH
	DD	01H
	DD	01c0eH
	DD	03H
	DD	01c0dH
	DD	01H
	DD	01c0eH
	DD	03H
	DD	01c0dH
	DD	02H
	DD	01c0eH
	DD	02H
	DD	01c0dH
	DD	02H
	DD	01c0eH
	DD	03H
	DD	01c0dH
	DD	02H
	DD	01c0eH
	DD	03H
	DD	01c0dH
	DD	02H
	DD	01c0eH
	DD	04H
_g_iChaosCastle_MonsterItemsNewServer DD 00H
	DD	00H
	DD	01c0eH
	DD	02H
	DD	01c0dH
	DD	01H
	DD	01c0eH
	DD	01H
	DD	01c0dH
	DD	01H
	DD	01c0eH
	DD	02H
	DD	01c0dH
	DD	01H
	DD	01c0eH
	DD	02H
	DD	01c0dH
	DD	02H
	DD	01c0eH
	DD	01H
	DD	01c0dH
	DD	02H
	DD	01c0eH
	DD	02H
	DD	01c0dH
	DD	02H
	DD	01c0eH
	DD	03H
_g_iChaosCastle_GroundAxis DD 017H
	DD	04bH
	DD	02cH
	DD	06cH
_g_iChaosCastle_DamageAxis DD 017H
	DD	04bH
	DD	02cH
	DD	06cH
	DD	019H
	DD	04dH
	DD	02aH
	DD	06aH
	DD	01bH
	DD	04fH
	DD	028H
	DD	068H
	DD	01dH
	DD	051H
	DD	026H
	DD	066H
_g_iChaosCastle_MapHollowZone DD 017H
	DD	04bH
	DD	02cH
	DD	04cH
	DD	02bH
	DD	04dH
	DD	02cH
	DD	06cH
	DD	017H
	DD	06bH
	DD	02aH
	DD	06cH
	DD	017H
	DD	04dH
	DD	018H
	DD	06aH
	DD	017H
	DD	04bH
	DD	02cH
	DD	04cH
	DD	02bH
	DD	04dH
	DD	02cH
	DD	06cH
	DD	017H
	DD	06bH
	DD	02aH
	DD	06cH
	DD	017H
	DD	04dH
	DD	018H
	DD	06aH
	DD	019H
	DD	04dH
	DD	02aH
	DD	04eH
	DD	029H
	DD	04fH
	DD	02aH
	DD	06aH
	DD	019H
	DD	069H
	DD	028H
	DD	06aH
	DD	019H
	DD	04fH
	DD	01aH
	DD	068H
	DD	01bH
	DD	04fH
	DD	028H
	DD	050H
	DD	027H
	DD	051H
	DD	028H
	DD	068H
	DD	01bH
	DD	067H
	DD	026H
	DD	068H
	DD	01bH
	DD	051H
	DD	01cH
	DD	066H
_DATA	ENDS
CONST	SEGMENT
_g_IllusionTemple_Default_Exp DD 0493e0H
	DD	053020H
	DD	05cc60H
	DD	0668a0H
	DD	0704e0H
	DD	07a120H
_g_IllusionTemple_unk0 DD 0c350H
	DD	0ea60H
	DD	011170H
	DD	013880H
	DD	015f90H
	DD	0186a0H
_g_IllusionTemple_unk1 DD 0258H
	DD	04b0H
	DD	0708H
	DD	0960H
	DD	0bb8H
	DD	0dacH
_g_IllusionTemple_unk2 DD 04b0H
	DD	0960H
	DD	0e10H
	DD	012c0H
	DD	01770H
	DD	01c20H
_g_IllusionTemple_Team_Players DD 0aH
	DD	014H
	DD	01eH
	DD	028H
	DD	032H
CONST	ENDS
PUBLIC	??_H@YGXPAXIHP6EPAX0@Z@Z			; `vector constructor iterator'
; Function compile flags: /Ogtp
;	COMDAT ??_H@YGXPAXIHP6EPAX0@Z@Z
_TEXT	SEGMENT
___t$ = 8						; size = 4
___s$ = 12						; size = 4
___n$ = 16						; size = 4
___f$ = 20						; size = 4
??_H@YGXPAXIHP6EPAX0@Z@Z PROC				; `vector constructor iterator', COMDAT
  00000	55		 push	 ebp
  00001	8b ec		 mov	 ebp, esp
  00003	57		 push	 edi
  00004	8b 7d 10	 mov	 edi, DWORD PTR ___n$[ebp]
  00007	4f		 dec	 edi
  00008	78 14		 js	 SHORT $LN1@vector
  0000a	53		 push	 ebx
  0000b	8b 5d 14	 mov	 ebx, DWORD PTR ___f$[ebp]
  0000e	56		 push	 esi
  0000f	8b 75 08	 mov	 esi, DWORD PTR ___t$[ebp]
$LL2@vector:
  00012	8b ce		 mov	 ecx, esi
  00014	ff d3		 call	 ebx
  00016	03 75 0c	 add	 esi, DWORD PTR ___s$[ebp]
  00019	4f		 dec	 edi
  0001a	79 f6		 jns	 SHORT $LL2@vector
  0001c	5e		 pop	 esi
  0001d	5b		 pop	 ebx
$LN1@vector:
  0001e	5f		 pop	 edi
  0001f	5d		 pop	 ebp
  00020	c2 10 00	 ret	 16			; 00000010H
??_H@YGXPAXIHP6EPAX0@Z@Z ENDP				; `vector constructor iterator'
_TEXT	ENDS
PUBLIC	??0_ILLUSIONTEMPLE_FLOOR_DATA@@QAE@XZ		; _ILLUSIONTEMPLE_FLOOR_DATA::_ILLUSIONTEMPLE_FLOOR_DATA
; Function compile flags: /Ogtp
; File e:\work\tranet_version\gs\gameserver\illusiontempleprocess.h
;	COMDAT ??0_ILLUSIONTEMPLE_FLOOR_DATA@@QAE@XZ
_TEXT	SEGMENT
??0_ILLUSIONTEMPLE_FLOOR_DATA@@QAE@XZ PROC		; _ILLUSIONTEMPLE_FLOOR_DATA::_ILLUSIONTEMPLE_FLOOR_DATA, COMDAT
; _this$ = ecx

; 93   : 	_ILLUSIONTEMPLE_FLOOR_DATA()

  00000	8b c1		 mov	 eax, ecx

; 94   : 	{
; 95   : 		m_iTeamPlayerIndex = -1;

  00002	c7 00 ff ff ff
	ff		 mov	 DWORD PTR [eax], -1

; 96   : 		m_btPosNDur = -1;

  00008	c6 40 28 ff	 mov	 BYTE PTR [eax+40], 255	; 000000ffH

; 97   : 	}

  0000c	c3		 ret	 0
??0_ILLUSIONTEMPLE_FLOOR_DATA@@QAE@XZ ENDP		; _ILLUSIONTEMPLE_FLOOR_DATA::_ILLUSIONTEMPLE_FLOOR_DATA
_TEXT	ENDS
PUBLIC	?GetOpenStatus@CIllusionTempleProcess@@QAEHXZ	; CIllusionTempleProcess::GetOpenStatus
; Function compile flags: /Ogtp
;	COMDAT ?GetOpenStatus@CIllusionTempleProcess@@QAEHXZ
_TEXT	SEGMENT
?GetOpenStatus@CIllusionTempleProcess@@QAEHXZ PROC	; CIllusionTempleProcess::GetOpenStatus, COMDAT
; _this$ = ecx

; 281  : 	BOOL GetOpenStatus(){return this->m_bOpenStatus;}

  00000	8b 81 90 03 00
	00		 mov	 eax, DWORD PTR [ecx+912]
  00006	c3		 ret	 0
?GetOpenStatus@CIllusionTempleProcess@@QAEHXZ ENDP	; CIllusionTempleProcess::GetOpenStatus
_TEXT	ENDS
EXTRN	__localtime64:PROC
; Function compile flags: /Ogtp
; File d:\program files (x86)\microsoft visual studio 10.0\vc\include\time.inl
;	COMDAT _localtime
_TEXT	SEGMENT
_localtime PROC						; COMDAT
; __Time$ = eax

; 114  : #pragma warning( push )
; 115  : #pragma warning( disable : 4996 )
; 116  :     return _localtime64(_Time);

  00000	50		 push	 eax
  00001	e8 00 00 00 00	 call	 __localtime64
  00006	83 c4 04	 add	 esp, 4

; 117  : #pragma warning( pop )
; 118  : }

  00009	c3		 ret	 0
_localtime ENDP
_TEXT	ENDS
EXTRN	__time64:PROC
; Function compile flags: /Ogtp
;	COMDAT _time
_TEXT	SEGMENT
_time	PROC						; COMDAT
; __Time$ = eax

; 133  :     return _time64(_Time);

  00000	50		 push	 eax
  00001	e8 00 00 00 00	 call	 __time64
  00006	83 c4 04	 add	 esp, 4

; 134  : }

  00009	c3		 ret	 0
_time	ENDP
_TEXT	ENDS
PUBLIC	??_7CIllusionTempleProcess@@6B@			; CIllusionTempleProcess::`vftable'
PUBLIC	??1CIllusionTempleProcess@@UAE@XZ		; CIllusionTempleProcess::~CIllusionTempleProcess
PUBLIC	??_R4CIllusionTempleProcess@@6B@		; CIllusionTempleProcess::`RTTI Complete Object Locator'
PUBLIC	??_R0?AVCIllusionTempleProcess@@@8		; CIllusionTempleProcess `RTTI Type Descriptor'
PUBLIC	??_R3CIllusionTempleProcess@@8			; CIllusionTempleProcess::`RTTI Class Hierarchy Descriptor'
PUBLIC	??_R2CIllusionTempleProcess@@8			; CIllusionTempleProcess::`RTTI Base Class Array'
PUBLIC	??_R1A@?0A@EA@CIllusionTempleProcess@@8		; CIllusionTempleProcess::`RTTI Base Class Descriptor at (0,-1,0,64)'
EXTRN	__imp__DeleteCriticalSection@4:PROC
EXTRN	??_7type_info@@6B@:QWORD			; type_info::`vftable'
EXTRN	??_ECIllusionTempleProcess@@UAEPAXI@Z:PROC	; CIllusionTempleProcess::`vector deleting destructor'
;	COMDAT ??_R1A@?0A@EA@CIllusionTempleProcess@@8
; File e:\work\tranet_version\gs\gameserver\illusiontempleprocess.cpp
rdata$r	SEGMENT
??_R1A@?0A@EA@CIllusionTempleProcess@@8 DD FLAT:??_R0?AVCIllusionTempleProcess@@@8 ; CIllusionTempleProcess::`RTTI Base Class Descriptor at (0,-1,0,64)'
	DD	00H
	DD	00H
	DD	0ffffffffH
	DD	00H
	DD	040H
	DD	FLAT:??_R3CIllusionTempleProcess@@8
rdata$r	ENDS
;	COMDAT ??_R2CIllusionTempleProcess@@8
rdata$r	SEGMENT
??_R2CIllusionTempleProcess@@8 DD FLAT:??_R1A@?0A@EA@CIllusionTempleProcess@@8 ; CIllusionTempleProcess::`RTTI Base Class Array'
rdata$r	ENDS
;	COMDAT ??_R3CIllusionTempleProcess@@8
rdata$r	SEGMENT
??_R3CIllusionTempleProcess@@8 DD 00H			; CIllusionTempleProcess::`RTTI Class Hierarchy Descriptor'
	DD	00H
	DD	01H
	DD	FLAT:??_R2CIllusionTempleProcess@@8
rdata$r	ENDS
;	COMDAT ??_R0?AVCIllusionTempleProcess@@@8
_DATA	SEGMENT
??_R0?AVCIllusionTempleProcess@@@8 DD FLAT:??_7type_info@@6B@ ; CIllusionTempleProcess `RTTI Type Descriptor'
	DD	00H
	DB	'.?AVCIllusionTempleProcess@@', 00H
_DATA	ENDS
;	COMDAT ??_R4CIllusionTempleProcess@@6B@
rdata$r	SEGMENT
??_R4CIllusionTempleProcess@@6B@ DD 00H			; CIllusionTempleProcess::`RTTI Complete Object Locator'
	DD	00H
	DD	00H
	DD	FLAT:??_R0?AVCIllusionTempleProcess@@@8
	DD	FLAT:??_R3CIllusionTempleProcess@@8
rdata$r	ENDS
;	COMDAT ??_7CIllusionTempleProcess@@6B@
CONST	SEGMENT
??_7CIllusionTempleProcess@@6B@ DD FLAT:??_R4CIllusionTempleProcess@@6B@ ; CIllusionTempleProcess::`vftable'
	DD	FLAT:??_ECIllusionTempleProcess@@UAEPAXI@Z
; Function compile flags: /Ogtp
CONST	ENDS
;	COMDAT ??1CIllusionTempleProcess@@UAE@XZ
_TEXT	SEGMENT
??1CIllusionTempleProcess@@UAE@XZ PROC			; CIllusionTempleProcess::~CIllusionTempleProcess, COMDAT
; _this$ = ecx

; 34   : {

  00000	c7 01 00 00 00
	00		 mov	 DWORD PTR [ecx], OFFSET ??_7CIllusionTempleProcess@@6B@

; 35   : 	DeleteCriticalSection(&this->m_cs);

  00006	83 c1 08	 add	 ecx, 8
  00009	51		 push	 ecx
  0000a	ff 15 00 00 00
	00		 call	 DWORD PTR __imp__DeleteCriticalSection@4

; 36   : }

  00010	c3		 ret	 0
??1CIllusionTempleProcess@@UAE@XZ ENDP			; CIllusionTempleProcess::~CIllusionTempleProcess
_TEXT	ENDS
PUBLIC	??_C@_0N@GGPGOPEN@return?5?$CFs?5?$CFd?$AA@	; `string'
PUBLIC	??_C@_0BK@DMGNFDO@IllusionTempleProcess?4cpp?$AA@ ; `string'
PUBLIC	?InitFloorData@CIllusionTempleProcess@@QAEXH@Z	; CIllusionTempleProcess::InitFloorData
EXTRN	?LogAdd@@3P6AXPADZZA:DWORD			; LogAdd
;	COMDAT ??_C@_0N@GGPGOPEN@return?5?$CFs?5?$CFd?$AA@
CONST	SEGMENT
??_C@_0N@GGPGOPEN@return?5?$CFs?5?$CFd?$AA@ DB 'return %s %d', 00H ; `string'
CONST	ENDS
;	COMDAT ??_C@_0BK@DMGNFDO@IllusionTempleProcess?4cpp?$AA@
CONST	SEGMENT
??_C@_0BK@DMGNFDO@IllusionTempleProcess?4cpp?$AA@ DB 'IllusionTempleProce'
	DB	'ss.cpp', 00H				; `string'
; Function compile flags: /Ogtp
CONST	ENDS
;	COMDAT ?InitFloorData@CIllusionTempleProcess@@QAEXH@Z
_TEXT	SEGMENT
_aIndex$ = 8						; size = 4
?InitFloorData@CIllusionTempleProcess@@QAEXH@Z PROC	; CIllusionTempleProcess::InitFloorData, COMDAT
; _this$ = ecx

; 84   : {

  00000	55		 push	 ebp
  00001	8b ec		 mov	 ebp, esp

; 85   : 	if( OBJMAX_RANGE(aIndex) == FALSE )

  00003	8b 45 08	 mov	 eax, DWORD PTR _aIndex$[ebp]
  00006	33 d2		 xor	 edx, edx
  00008	56		 push	 esi
  00009	8b f1		 mov	 esi, ecx
  0000b	3b c2		 cmp	 eax, edx
  0000d	7c 0e		 jl	 SHORT $LN6@InitFloorD
  0000f	33 c9		 xor	 ecx, ecx
  00011	3d 97 3a 00 00	 cmp	 eax, 14999		; 00003a97H
  00016	0f 9e c1	 setle	 cl
  00019	3b ca		 cmp	 ecx, edx
  0001b	75 1a		 jne	 SHORT $LN1@InitFloorD
$LN6@InitFloorD:

; 86   : 	{
; 87   : 		LogAdd("return %s %d", __FILE__, __LINE__);

  0001d	6a 57		 push	 87			; 00000057H
  0001f	68 00 00 00 00	 push	 OFFSET ??_C@_0BK@DMGNFDO@IllusionTempleProcess?4cpp?$AA@
  00024	68 00 00 00 00	 push	 OFFSET ??_C@_0N@GGPGOPEN@return?5?$CFs?5?$CFd?$AA@
  00029	ff 15 00 00 00
	00		 call	 DWORD PTR ?LogAdd@@3P6AXPADZZA ; LogAdd
  0002f	83 c4 0c	 add	 esp, 12			; 0000000cH
  00032	5e		 pop	 esi

; 107  : }

  00033	5d		 pop	 ebp
  00034	c2 04 00	 ret	 4
$LN1@InitFloorD:

; 88   : 		return;
; 89   : 	}
; 90   : 
; 91   : 	this->m_UserData[aIndex].m_UserIndex = 0;

  00037	89 94 86 00 02
	00 00		 mov	 DWORD PTR [esi+eax*4+512], edx

; 92   : 
; 93   : 	this->m_FloorData[aIndex].m_dwShieldSpellTime = 0;

  0003e	8d 04 40	 lea	 eax, DWORD PTR [eax+eax*2]
  00041	c1 e0 04	 shl	 eax, 4
  00044	03 c6		 add	 eax, esi
  00046	89 50 28	 mov	 DWORD PTR [eax+40], edx

; 94   : 
; 95   : 	this->m_FloorData[aIndex].m_dwRestrictionSpellTime = 0;

  00049	89 50 2c	 mov	 DWORD PTR [eax+44], edx

; 96   : 	this->m_FloorData[aIndex].m_iTeamPlayerIndex = -1;

  0004c	c7 40 20 ff ff
	ff ff		 mov	 DWORD PTR [eax+32], -1

; 97   : 	this->m_FloorData[aIndex].m_btTeamJoinSide = (BYTE)-1;

  00053	c6 40 24 ff	 mov	 BYTE PTR [eax+36], 255	; 000000ffH

; 98   : 	this->m_FloorData[aIndex].m_btUserKillCount = 0;

  00057	89 50 30	 mov	 DWORD PTR [eax+48], edx

; 99   : 	this->m_FloorData[aIndex].m_btMonsterRewardKillCount = 0;
; 100  : 	this->m_FloorData[aIndex].m_btPlayerRewardKillCount = 0;
; 101  : 	this->m_FloorData[aIndex].m_btUsedKillCountPoint = 0;
; 102  : 
; 103  : 	this->m_FloorData[aIndex].m_i64ExpReward = 0;

  0005a	89 50 38	 mov	 DWORD PTR [eax+56], edx
  0005d	89 50 3c	 mov	 DWORD PTR [eax+60], edx

; 104  : 	this->m_FloorData[aIndex].m_dwRankingPoint = 0;

  00060	89 50 40	 mov	 DWORD PTR [eax+64], edx

; 105  : 
; 106  : 	this->m_FloorData[aIndex].m_bDropReward = 0;

  00063	89 50 44	 mov	 DWORD PTR [eax+68], edx
  00066	5e		 pop	 esi

; 107  : }

  00067	5d		 pop	 ebp
  00068	c2 04 00	 ret	 4
?InitFloorData@CIllusionTempleProcess@@QAEXH@Z ENDP	; CIllusionTempleProcess::InitFloorData
_TEXT	ENDS
PUBLIC	?GetState@CIllusionTempleProcess@@QAEEXZ	; CIllusionTempleProcess::GetState
; Function compile flags: /Ogtp
;	COMDAT ?GetState@CIllusionTempleProcess@@QAEEXZ
_TEXT	SEGMENT
?GetState@CIllusionTempleProcess@@QAEEXZ PROC		; CIllusionTempleProcess::GetState, COMDAT
; _this$ = ecx

; 740  : 	return this->m_btState;

  00000	8a 81 2d 02 00
	00		 mov	 al, BYTE PTR [ecx+557]

; 741  : }

  00006	c3		 ret	 0
?GetState@CIllusionTempleProcess@@QAEEXZ ENDP		; CIllusionTempleProcess::GetState
_TEXT	ENDS
PUBLIC	?GetFloorIndex@CIllusionTempleProcess@@QAEHH@Z	; CIllusionTempleProcess::GetFloorIndex
EXTRN	?g_iUseMaxLevelIllusionTemple@@3HA:DWORD	; g_iUseMaxLevelIllusionTemple
EXTRN	?gObj@@3PAUOBJECTSTRUCT@@A:DWORD		; gObj
; Function compile flags: /Ogtp
;	COMDAT ?GetFloorIndex@CIllusionTempleProcess@@QAEHH@Z
_TEXT	SEGMENT
_aIndex$ = 8						; size = 4
?GetFloorIndex@CIllusionTempleProcess@@QAEHH@Z PROC	; CIllusionTempleProcess::GetFloorIndex, COMDAT
; _this$ = ecx

; 987  : {

  00000	55		 push	 ebp
  00001	8b ec		 mov	 ebp, esp

; 988  : 	int loc2 = 0; //?? weird
; 989  : 
; 990  : 	LPOBJ lpObj = &gObj[aIndex];

  00003	8b 4d 08	 mov	 ecx, DWORD PTR _aIndex$[ebp]
  00006	8b c1		 mov	 eax, ecx
  00008	69 c0 50 2b 00
	00		 imul	 eax, 11088		; 00002b50H
  0000e	03 05 00 00 00
	00		 add	 eax, DWORD PTR ?gObj@@3PAUOBJECTSTRUCT@@A ; gObj

; 991  : 
; 992  : 	if( OBJMAX_RANGE(aIndex) == FALSE )

  00014	85 c9		 test	 ecx, ecx
  00016	78 11		 js	 SHORT $LN15@GetFloorIn
  00018	33 d2		 xor	 edx, edx
  0001a	81 f9 97 3a 00
	00		 cmp	 ecx, 14999		; 00003a97H
  00020	0f 9e c2	 setle	 dl
  00023	8b ca		 mov	 ecx, edx
  00025	85 c9		 test	 ecx, ecx
  00027	75 1f		 jne	 SHORT $LN10@GetFloorIn
$LN15@GetFloorIn:

; 993  : 	{
; 994  : 		LogAdd("return %s %d", __FILE__, __LINE__);

  00029	68 e2 03 00 00	 push	 994			; 000003e2H
  0002e	68 00 00 00 00	 push	 OFFSET ??_C@_0BK@DMGNFDO@IllusionTempleProcess?4cpp?$AA@
  00033	68 00 00 00 00	 push	 OFFSET ??_C@_0N@GGPGOPEN@return?5?$CFs?5?$CFd?$AA@
  00038	ff 15 00 00 00
	00		 call	 DWORD PTR ?LogAdd@@3P6AXPADZZA ; LogAdd
  0003e	83 c4 0c	 add	 esp, 12			; 0000000cH
$LN1@GetFloorIn:

; 1005 : 	return -1;

  00041	83 c8 ff	 or	 eax, -1

; 1006 : }

  00044	5d		 pop	 ebp
  00045	c2 04 00	 ret	 4
$LN10@GetFloorIn:

; 995  : 		return -1;
; 996  : 	}
; 997  : 
; 998  : 	if( lpObj->Level < 220 ) return 0;

  00048	0f b7 88 be 00
	00 00		 movzx	 ecx, WORD PTR [eax+190]
  0004f	ba dc 00 00 00	 mov	 edx, 220		; 000000dcH
  00054	66 3b ca	 cmp	 cx, dx
  00057	7d 06		 jge	 SHORT $LN9@GetFloorIn
  00059	33 c0		 xor	 eax, eax

; 1006 : }

  0005b	5d		 pop	 ebp
  0005c	c2 04 00	 ret	 4
$LN9@GetFloorIn:

; 999  : 	if( lpObj->Level < 271 ) return 1;

  0005f	ba 0f 01 00 00	 mov	 edx, 271		; 0000010fH
  00064	66 3b ca	 cmp	 cx, dx
  00067	7d 09		 jge	 SHORT $LN8@GetFloorIn
  00069	b8 01 00 00 00	 mov	 eax, 1

; 1006 : }

  0006e	5d		 pop	 ebp
  0006f	c2 04 00	 ret	 4
$LN8@GetFloorIn:

; 1000 : 	if( lpObj->Level < 321 ) return 2;

  00072	ba 41 01 00 00	 mov	 edx, 321		; 00000141H
  00077	66 3b ca	 cmp	 cx, dx
  0007a	7d 09		 jge	 SHORT $LN7@GetFloorIn
  0007c	b8 02 00 00 00	 mov	 eax, 2

; 1006 : }

  00081	5d		 pop	 ebp
  00082	c2 04 00	 ret	 4
$LN7@GetFloorIn:

; 1001 : 	if( lpObj->Level < 351 ) return 3;

  00085	ba 5f 01 00 00	 mov	 edx, 351		; 0000015fH
  0008a	66 3b ca	 cmp	 cx, dx
  0008d	7d 09		 jge	 SHORT $LN6@GetFloorIn
  0008f	b8 03 00 00 00	 mov	 eax, 3

; 1006 : }

  00094	5d		 pop	 ebp
  00095	c2 04 00	 ret	 4
$LN6@GetFloorIn:

; 1002 : 	if( lpObj->Level < 381 ) return 4;

  00098	ba 7d 01 00 00	 mov	 edx, 381		; 0000017dH
  0009d	66 3b ca	 cmp	 cx, dx
  000a0	7d 09		 jge	 SHORT $LN5@GetFloorIn
  000a2	b8 04 00 00 00	 mov	 eax, 4

; 1006 : }

  000a7	5d		 pop	 ebp
  000a8	c2 04 00	 ret	 4
$LN5@GetFloorIn:

; 1003 : 	if( lpObj->Level <= 400 && lpObj->ChangeUP3rd == 0) return 5;

  000ab	ba 90 01 00 00	 mov	 edx, 400		; 00000190H
  000b0	66 3b ca	 cmp	 cx, dx
  000b3	7f 8c		 jg	 SHORT $LN1@GetFloorIn
  000b5	80 b8 bc 00 00
	00 00		 cmp	 BYTE PTR [eax+188], 0
  000bc	75 09		 jne	 SHORT $LN4@GetFloorIn
  000be	b8 05 00 00 00	 mov	 eax, 5

; 1006 : }

  000c3	5d		 pop	 ebp
  000c4	c2 04 00	 ret	 4
$LN4@GetFloorIn:

; 1004 : 	if( lpObj->Level == 400 && lpObj->ChangeUP3rd != 0){ if(g_iUseMaxLevelIllusionTemple != 0){	return 6;}else{return 5;}};

  000c7	66 3b ca	 cmp	 cx, dx
  000ca	0f 85 71 ff ff
	ff		 jne	 $LN1@GetFloorIn
  000d0	80 b8 bc 00 00
	00 00		 cmp	 BYTE PTR [eax+188], 0
  000d7	0f 84 64 ff ff
	ff		 je	 $LN1@GetFloorIn
  000dd	33 c0		 xor	 eax, eax
  000df	39 05 00 00 00
	00		 cmp	 DWORD PTR ?g_iUseMaxLevelIllusionTemple@@3HA, eax ; g_iUseMaxLevelIllusionTemple
  000e5	0f 95 c0	 setne	 al
  000e8	83 c0 05	 add	 eax, 5

; 1006 : }

  000eb	5d		 pop	 ebp
  000ec	c2 04 00	 ret	 4
?GetFloorIndex@CIllusionTempleProcess@@QAEHH@Z ENDP	; CIllusionTempleProcess::GetFloorIndex
_TEXT	ENDS
PUBLIC	?RemoveInvalid@CIllusionTempleProcess@@QAEXXZ	; CIllusionTempleProcess::RemoveInvalid
EXTRN	__imp__LeaveCriticalSection@4:PROC
EXTRN	?gObjIsConnected@@YAHH@Z:PROC			; gObjIsConnected
EXTRN	__imp__EnterCriticalSection@4:PROC
; Function compile flags: /Ogtp
;	COMDAT ?RemoveInvalid@CIllusionTempleProcess@@QAEXXZ
_TEXT	SEGMENT
tv160 = -4						; size = 4
?RemoveInvalid@CIllusionTempleProcess@@QAEXXZ PROC	; CIllusionTempleProcess::RemoveInvalid, COMDAT
; _this$ = ecx

; 1009 : {

  00000	55		 push	 ebp
  00001	8b ec		 mov	 ebp, esp
  00003	51		 push	 ecx
  00004	53		 push	 ebx
  00005	56		 push	 esi
  00006	8b f1		 mov	 esi, ecx

; 1010 : 	EnterCriticalSection(&m_cs);

  00008	8d 46 08	 lea	 eax, DWORD PTR [esi+8]
  0000b	57		 push	 edi
  0000c	50		 push	 eax
  0000d	89 45 fc	 mov	 DWORD PTR tv160[ebp], eax
  00010	ff 15 00 00 00
	00		 call	 DWORD PTR __imp__EnterCriticalSection@4

; 1011 : 
; 1012 : 	this->m_iEnteredUserCount = 0;

  00016	33 db		 xor	 ebx, ebx
  00018	89 9e 28 02 00
	00		 mov	 DWORD PTR [esi+552], ebx
  0001e	8d 7e 20	 lea	 edi, DWORD PTR [esi+32]
$LL8@RemoveInva:

; 1015 : 	{
; 1016 : 		if( this->m_FloorData[i].m_iTeamPlayerIndex != OBJ_EMPTY )

  00021	8b 07		 mov	 eax, DWORD PTR [edi]
  00023	83 f8 ff	 cmp	 eax, -1
  00026	74 6e		 je	 SHORT $LN7@RemoveInva

; 1017 : 		{
; 1018 : 			if( gObjIsConnected(this->m_FloorData[i].m_iTeamPlayerIndex) == FALSE )

  00028	50		 push	 eax
  00029	e8 00 00 00 00	 call	 ?gObjIsConnected@@YAHH@Z ; gObjIsConnected
  0002e	83 c4 04	 add	 esp, 4
  00031	85 c0		 test	 eax, eax
  00033	75 23		 jne	 SHORT $LN4@RemoveInva

; 1019 : 			{
; 1020 : 				gObj[this->m_FloorData[i].m_iTeamPlayerIndex].m_iIllusionTempleIndex = ILLUSIONTEMPLE_INVALID_INDEX;

  00035	8b 07		 mov	 eax, DWORD PTR [edi]
  00037	8b 0d 00 00 00
	00		 mov	 ecx, DWORD PTR ?gObj@@3PAUOBJECTSTRUCT@@A ; gObj
  0003d	69 c0 50 2b 00
	00		 imul	 eax, 11088		; 00002b50H
  00043	c7 84 08 78 20
	00 00 ff ff ff
	ff		 mov	 DWORD PTR [eax+ecx+8312], -1

; 1021 : 				InitFloorData(i);

  0004e	53		 push	 ebx
  0004f	8b ce		 mov	 ecx, esi
  00051	e8 00 00 00 00	 call	 ?InitFloorData@CIllusionTempleProcess@@QAEXH@Z ; CIllusionTempleProcess::InitFloorData
  00056	eb 3e		 jmp	 SHORT $LN7@RemoveInva
$LN4@RemoveInva:

; 1022 : 			}
; 1023 : 			else if( gObj[this->m_FloorData[i].m_iTeamPlayerIndex].MapNumber != (MAP_INDEX_ILLUSIONTEMPLE + this->m_btFloorIndex) )

  00058	8b 17		 mov	 edx, DWORD PTR [edi]
  0005a	a1 00 00 00 00	 mov	 eax, DWORD PTR ?gObj@@3PAUOBJECTSTRUCT@@A ; gObj
  0005f	69 d2 50 2b 00
	00		 imul	 edx, 11088		; 00002b50H
  00065	0f b6 8e 2c 02
	00 00		 movzx	 ecx, BYTE PTR [esi+556]
  0006c	03 c2		 add	 eax, edx
  0006e	0f b6 90 49 01
	00 00		 movzx	 edx, BYTE PTR [eax+329]
  00075	83 c1 2d	 add	 ecx, 45			; 0000002dH
  00078	3b d1		 cmp	 edx, ecx
  0007a	74 14		 je	 SHORT $LN2@RemoveInva

; 1024 : 			{
; 1025 : 				gObj[this->m_FloorData[i].m_iTeamPlayerIndex].m_iIllusionTempleIndex = ILLUSIONTEMPLE_INVALID_INDEX;
; 1026 : 				this->InitFloorData(i);

  0007c	53		 push	 ebx
  0007d	8b ce		 mov	 ecx, esi
  0007f	c7 80 78 20 00
	00 ff ff ff ff	 mov	 DWORD PTR [eax+8312], -1
  00089	e8 00 00 00 00	 call	 ?InitFloorData@CIllusionTempleProcess@@QAEXH@Z ; CIllusionTempleProcess::InitFloorData

; 1027 : 			}
; 1028 : 			else

  0008e	eb 06		 jmp	 SHORT $LN7@RemoveInva
$LN2@RemoveInva:

; 1029 : 			{
; 1030 : 				this->m_iEnteredUserCount++;

  00090	ff 86 28 02 00
	00		 inc	 DWORD PTR [esi+552]
$LN7@RemoveInva:

; 1013 : 
; 1014 : 	for( int i = 0; i < MAX_FLOOR_USER; i++ )

  00096	43		 inc	 ebx
  00097	83 c7 30	 add	 edi, 48			; 00000030H
  0009a	83 fb 0a	 cmp	 ebx, 10			; 0000000aH
  0009d	7c 82		 jl	 SHORT $LL8@RemoveInva

; 1031 : 			}
; 1032 : 		}
; 1033 : 	}
; 1034 : 
; 1035 : 	LeaveCriticalSection(&m_cs);

  0009f	8b 45 fc	 mov	 eax, DWORD PTR tv160[ebp]
  000a2	50		 push	 eax
  000a3	ff 15 00 00 00
	00		 call	 DWORD PTR __imp__LeaveCriticalSection@4
  000a9	5f		 pop	 edi
  000aa	5e		 pop	 esi
  000ab	5b		 pop	 ebx

; 1036 : }

  000ac	8b e5		 mov	 esp, ebp
  000ae	5d		 pop	 ebp
  000af	c3		 ret	 0
?RemoveInvalid@CIllusionTempleProcess@@QAEXXZ ENDP	; CIllusionTempleProcess::RemoveInvalid
_TEXT	ENDS
PUBLIC	?CheckLeftMinutesBeforeOpen@CIllusionTempleProcess@@QAEEXZ ; CIllusionTempleProcess::CheckLeftMinutesBeforeOpen
; Function compile flags: /Ogtp
;	COMDAT ?CheckLeftMinutesBeforeOpen@CIllusionTempleProcess@@QAEEXZ
_TEXT	SEGMENT
?CheckLeftMinutesBeforeOpen@CIllusionTempleProcess@@QAEEXZ PROC ; CIllusionTempleProcess::CheckLeftMinutesBeforeOpen, COMDAT
; _this$ = ecx

; 1040 : 	if(this->GetState() == 0 && this->GetOpenStatus() == TRUE)

  00000	e8 00 00 00 00	 call	 ?GetState@CIllusionTempleProcess@@QAEEXZ ; CIllusionTempleProcess::GetState
  00005	84 c0		 test	 al, al
  00007	75 10		 jne	 SHORT $LN1@CheckLeftM
  00009	83 b9 90 03 00
	00 01		 cmp	 DWORD PTR [ecx+912], 1
  00010	75 07		 jne	 SHORT $LN1@CheckLeftM

; 1041 : 	{
; 1042 : 		return this->m_iLeftMinutesBeforeOpen;

  00012	8a 81 98 03 00
	00		 mov	 al, BYTE PTR [ecx+920]

; 1045 : }

  00018	c3		 ret	 0
$LN1@CheckLeftM:

; 1043 : 	}
; 1044 : 	return FALSE;

  00019	32 c0		 xor	 al, al

; 1045 : }

  0001b	c3		 ret	 0
?CheckLeftMinutesBeforeOpen@CIllusionTempleProcess@@QAEEXZ ENDP ; CIllusionTempleProcess::CheckLeftMinutesBeforeOpen
_TEXT	ENDS
PUBLIC	?FindItemBallPosition@CIllusionTempleProcess@@QAEHH@Z ; CIllusionTempleProcess::FindItemBallPosition
EXTRN	?IsItem@CItem@@QAEHXZ:PROC			; CItem::IsItem
; Function compile flags: /Ogtp
;	COMDAT ?FindItemBallPosition@CIllusionTempleProcess@@QAEHH@Z
_TEXT	SEGMENT
_aIndex$ = 8						; size = 4
?FindItemBallPosition@CIllusionTempleProcess@@QAEHH@Z PROC ; CIllusionTempleProcess::FindItemBallPosition, COMDAT
; _this$ = ecx

; 1239 : {

  00000	55		 push	 ebp
  00001	8b ec		 mov	 ebp, esp

; 1240 : 	if( OBJMAX_RANGE(aIndex) == FALSE )

  00003	8b 45 08	 mov	 eax, DWORD PTR _aIndex$[ebp]
  00006	85 c0		 test	 eax, eax
  00008	78 0e		 js	 SHORT $LN14@FindItemBa
  0000a	33 c9		 xor	 ecx, ecx
  0000c	3d 97 3a 00 00	 cmp	 eax, 14999		; 00003a97H
  00011	0f 9e c1	 setle	 cl
  00014	85 c9		 test	 ecx, ecx
  00016	75 1f		 jne	 SHORT $LN6@FindItemBa
$LN14@FindItemBa:

; 1241 : 	{
; 1242 : 		LogAdd("return %s %d", __FILE__, __LINE__);

  00018	68 da 04 00 00	 push	 1242			; 000004daH
  0001d	68 00 00 00 00	 push	 OFFSET ??_C@_0BK@DMGNFDO@IllusionTempleProcess?4cpp?$AA@
  00022	68 00 00 00 00	 push	 OFFSET ??_C@_0N@GGPGOPEN@return?5?$CFs?5?$CFd?$AA@
  00027	ff 15 00 00 00
	00		 call	 DWORD PTR ?LogAdd@@3P6AXPADZZA ; LogAdd
  0002d	83 c4 0c	 add	 esp, 12			; 0000000cH

; 1243 : 		return -1;

  00030	83 c8 ff	 or	 eax, -1

; 1257 : }

  00033	5d		 pop	 ebp
  00034	c2 04 00	 ret	 4
$LN6@FindItemBa:
  00037	69 c0 50 2b 00
	00		 imul	 eax, 11088		; 00002b50H
  0003d	53		 push	 ebx
  0003e	56		 push	 esi
  0003f	57		 push	 edi

; 1244 : 	}
; 1245 : 
; 1246 : 	for( int i = 0; i < INVENTORY_SIZE; i++ )

  00040	33 db		 xor	 ebx, ebx
  00042	8d b8 24 0e 00
	00		 lea	 edi, DWORD PTR [eax+3620]
  00048	a1 00 00 00 00	 mov	 eax, DWORD PTR ?gObj@@3PAUOBJECTSTRUCT@@A ; gObj
  0004d	33 f6		 xor	 esi, esi
  0004f	90		 npad	 1
$LL5@FindItemBa:

; 1247 : 	{
; 1248 : 		if( gObj[aIndex].pInventory[i].IsItem() == TRUE )

  00050	8b 0c 07	 mov	 ecx, DWORD PTR [edi+eax]
  00053	03 ce		 add	 ecx, esi
  00055	e8 00 00 00 00	 call	 ?IsItem@CItem@@QAEHXZ	; CItem::IsItem
  0005a	83 f8 01	 cmp	 eax, 1
  0005d	a1 00 00 00 00	 mov	 eax, DWORD PTR ?gObj@@3PAUOBJECTSTRUCT@@A ; gObj
  00062	75 0f		 jne	 SHORT $LN4@FindItemBa

; 1249 : 		{
; 1250 : 			if( gObj[aIndex].pInventory[i].m_Type == ITEMGET(14,64) ) //Ball

  00064	8b 0c 07	 mov	 ecx, DWORD PTR [edi+eax]
  00067	ba 40 1c 00 00	 mov	 edx, 7232		; 00001c40H
  0006c	66 39 54 31 06	 cmp	 WORD PTR [ecx+esi+6], dx
  00071	74 19		 je	 SHORT $LN12@FindItemBa
$LN4@FindItemBa:

; 1244 : 	}
; 1245 : 
; 1246 : 	for( int i = 0; i < INVENTORY_SIZE; i++ )

  00073	81 c6 d4 00 00
	00		 add	 esi, 212		; 000000d4H
  00079	43		 inc	 ebx
  0007a	81 fe 70 c3 00
	00		 cmp	 esi, 50032		; 0000c370H
  00080	7c ce		 jl	 SHORT $LL5@FindItemBa

; 1253 : 			}
; 1254 : 		}
; 1255 : 	}
; 1256 : 	return -1;

  00082	5f		 pop	 edi
  00083	5e		 pop	 esi
  00084	83 c8 ff	 or	 eax, -1
  00087	5b		 pop	 ebx

; 1257 : }

  00088	5d		 pop	 ebp
  00089	c2 04 00	 ret	 4
$LN12@FindItemBa:
  0008c	5f		 pop	 edi
  0008d	5e		 pop	 esi

; 1251 : 			{
; 1252 : 				return i;

  0008e	8b c3		 mov	 eax, ebx
  00090	5b		 pop	 ebx

; 1257 : }

  00091	5d		 pop	 ebp
  00092	c2 04 00	 ret	 4
?FindItemBallPosition@CIllusionTempleProcess@@QAEHH@Z ENDP ; CIllusionTempleProcess::FindItemBallPosition
_TEXT	ENDS
PUBLIC	??_C@_0EC@KBKIJFJA@?$FLIllusion?5Temple?$FN?5?$CI?$CFd?$CJ?5?$CI?$CFs?$CJ?$CI?$CFs?$CJ?5@ ; `string'
PUBLIC	?DeleteRelicsItem@CIllusionTempleProcess@@QAEXPAUOBJECTSTRUCT@@@Z ; CIllusionTempleProcess::DeleteRelicsItem
EXTRN	?LogAddTD@@3P6AXPADZZA:DWORD			; LogAddTD
EXTRN	?GCInventoryItemDeleteSend@@YAXHEE@Z:PROC	; GCInventoryItemDeleteSend
EXTRN	?gObjDeleteItemsCount@@YAHHFFH@Z:PROC		; gObjDeleteItemsCount
;	COMDAT ??_C@_0EC@KBKIJFJA@?$FLIllusion?5Temple?$FN?5?$CI?$CFd?$CJ?5?$CI?$CFs?$CJ?$CI?$CFs?$CJ?5@
CONST	SEGMENT
??_C@_0EC@KBKIJFJA@?$FLIllusion?5Temple?$FN?5?$CI?$CFd?$CJ?5?$CI?$CFs?$CJ?$CI?$CFs?$CJ?5@ DB '['
	DB	'Illusion Temple] (%d) (%s)(%s) to Delete Relics Item [Serial:'
	DB	'%u]', 00H					; `string'
; Function compile flags: /Ogtp
CONST	ENDS
;	COMDAT ?DeleteRelicsItem@CIllusionTempleProcess@@QAEXPAUOBJECTSTRUCT@@@Z
_TEXT	SEGMENT
_lpObj$ = 8						; size = 4
?DeleteRelicsItem@CIllusionTempleProcess@@QAEXPAUOBJECTSTRUCT@@@Z PROC ; CIllusionTempleProcess::DeleteRelicsItem, COMDAT
; _this$ = ecx

; 1260 : {

  00000	55		 push	 ebp
  00001	8b ec		 mov	 ebp, esp
  00003	56		 push	 esi

; 1261 : 	if(lpObj->pInventory[FindItemBallPosition(lpObj->m_Index)].m_Type == ITEMGET(14,64))

  00004	8b 75 08	 mov	 esi, DWORD PTR _lpObj$[ebp]
  00007	8b 06		 mov	 eax, DWORD PTR [esi]
  00009	57		 push	 edi
  0000a	50		 push	 eax
  0000b	8b f9		 mov	 edi, ecx
  0000d	e8 00 00 00 00	 call	 ?FindItemBallPosition@CIllusionTempleProcess@@QAEHH@Z ; CIllusionTempleProcess::FindItemBallPosition
  00012	69 c0 d4 00 00
	00		 imul	 eax, 212		; 000000d4H
  00018	8b 8e 24 0e 00
	00		 mov	 ecx, DWORD PTR [esi+3620]
  0001e	ba 40 1c 00 00	 mov	 edx, 7232		; 00001c40H
  00023	66 39 54 08 06	 cmp	 WORD PTR [eax+ecx+6], dx
  00028	75 5b		 jne	 SHORT $LN1@DeleteReli

; 1262 : 	{
; 1263 : 
; 1264 : 		int ItemType = ITEMGET(14,64);
; 1265 : 		//LogAddTD("[Illusion Temple] (%d) (%s)(%s) to Delete Relics Item [Serial:%u]", this->m_btFloorIndex+1, lpObj->AccountID, lpObj->Name, lpObj->pInventory[this->m_btBallInventoryPosition].m_Number);
; 1266 : 		//gObjInventoryDeleteItem(lpObj->m_Index, iItemPos);
; 1267 : 		//::gObjInventoryDeleteItem(lpObj->m_Index, iItemPos);
; 1268 : 		gObjDeleteItemsCount(lpObj->m_Index,ItemType,0,1);

  0002a	8b 06		 mov	 eax, DWORD PTR [esi]
  0002c	6a 01		 push	 1
  0002e	6a 00		 push	 0
  00030	52		 push	 edx
  00031	50		 push	 eax
  00032	e8 00 00 00 00	 call	 ?gObjDeleteItemsCount@@YAHHFFH@Z ; gObjDeleteItemsCount

; 1269 : 
; 1270 : 		GCInventoryItemDeleteSend(lpObj->m_Index, FindItemBallPosition(lpObj->m_Index), 0);

  00037	8b 0e		 mov	 ecx, DWORD PTR [esi]
  00039	83 c4 10	 add	 esp, 16			; 00000010H
  0003c	6a 00		 push	 0
  0003e	51		 push	 ecx
  0003f	8b cf		 mov	 ecx, edi
  00041	e8 00 00 00 00	 call	 ?FindItemBallPosition@CIllusionTempleProcess@@QAEHH@Z ; CIllusionTempleProcess::FindItemBallPosition
  00046	8b 16		 mov	 edx, DWORD PTR [esi]
  00048	50		 push	 eax
  00049	52		 push	 edx
  0004a	e8 00 00 00 00	 call	 ?GCInventoryItemDeleteSend@@YAXHEE@Z ; GCInventoryItemDeleteSend

; 1271 : 		LogAddTD("[Illusion Temple] (%d) (%s)(%s) to Delete Relics Item [Serial:%u]", this->m_btFloorIndex+1, lpObj->AccountID, lpObj->Name, lpObj->pInventory[this->m_btBallInventoryPosition].m_Number);

  0004f	0f b6 87 bd 03
	00 00		 movzx	 eax, BYTE PTR [edi+957]
  00056	8b 8e 24 0e 00
	00		 mov	 ecx, DWORD PTR [esi+3620]
  0005c	69 c0 d4 00 00
	00		 imul	 eax, 212		; 000000d4H
  00062	8b 14 08	 mov	 edx, DWORD PTR [eax+ecx]
  00065	0f b6 8f 2c 02
	00 00		 movzx	 ecx, BYTE PTR [edi+556]
  0006c	52		 push	 edx
  0006d	8d 46 77	 lea	 eax, DWORD PTR [esi+119]
  00070	50		 push	 eax
  00071	83 c6 6c	 add	 esi, 108		; 0000006cH
  00074	56		 push	 esi
  00075	41		 inc	 ecx
  00076	51		 push	 ecx
  00077	68 00 00 00 00	 push	 OFFSET ??_C@_0EC@KBKIJFJA@?$FLIllusion?5Temple?$FN?5?$CI?$CFd?$CJ?5?$CI?$CFs?$CJ?$CI?$CFs?$CJ?5@
  0007c	ff 15 00 00 00
	00		 call	 DWORD PTR ?LogAddTD@@3P6AXPADZZA ; LogAddTD
  00082	83 c4 20	 add	 esp, 32			; 00000020H
$LN1@DeleteReli:
  00085	5f		 pop	 edi
  00086	5e		 pop	 esi

; 1272 : 	}
; 1273 : }

  00087	5d		 pop	 ebp
  00088	c2 04 00	 ret	 4
?DeleteRelicsItem@CIllusionTempleProcess@@QAEXPAUOBJECTSTRUCT@@@Z ENDP ; CIllusionTempleProcess::DeleteRelicsItem
_TEXT	ENDS
PUBLIC	??_C@_0EA@DBPKHFEA@?$FLIllusion?5Temple?$FN?5?$CI?$CFd?$CJ?5?$CI?$CFs?$CJ?$CI?$CFs?$CJ?5@ ; `string'
PUBLIC	??_C@_0N@HIFAJKLG@?$MA?z?A?V?$LJ?$NO?$MA?$LK?$LM?$LK?$LJ?$LA?$AA@ ; `string'
PUBLIC	_iIndex$GSCopy$
PUBLIC	_this$GSCopy$
PUBLIC	__$ArrayPad$
PUBLIC	?DropRelicsItem@CIllusionTempleProcess@@QAEXH@Z	; CIllusionTempleProcess::DropRelicsItem
EXTRN	?DataSend@@YAHHPAEK@Z:PROC			; DataSend
EXTRN	?Get@CMsg@@QAEPADH@Z:PROC			; CMsg::Get
EXTRN	?lMsg@@3VCMsg@@A:BYTE				; lMsg
EXTRN	?gObjInventoryDeleteItem@@YAEHH@Z:PROC		; gObjInventoryDeleteItem
EXTRN	?ItemDrop@MapClass@@QAEHHHMHHEEEEEKHHHEQAEE@Z:PROC ; MapClass::ItemDrop
EXTRN	?GetAttr@MapClass@@QAEEHH@Z:PROC		; MapClass::GetAttr
EXTRN	?MapC@@3PAVMapClass@@A:BYTE			; MapC
EXTRN	?ItemIsBufExOption@@YAXPAEPAVCItem@@@Z:PROC	; ItemIsBufExOption
EXTRN	?GetItemOptionLevel@CJewelOfHarmonySystem@@QAEEPAVCItem@@@Z:PROC ; CJewelOfHarmonySystem::GetItemOptionLevel
EXTRN	?GetItemStrengthenOption@CJewelOfHarmonySystem@@QAEEPAVCItem@@@Z:PROC ; CJewelOfHarmonySystem::GetItemStrengthenOption
EXTRN	?g_kJewelOfHarmonySystem@@3VCJewelOfHarmonySystem@@A:BYTE ; g_kJewelOfHarmonySystem
EXTRN	?PHeadSetB@@YAXPAEEH@Z:PROC			; PHeadSetB
EXTRN	___security_cookie:DWORD
EXTRN	__fltused:DWORD
EXTRN	@__security_check_cookie@4:PROC
EXTRN	__ftol2_sse:PROC
;	COMDAT ??_C@_0EA@DBPKHFEA@?$FLIllusion?5Temple?$FN?5?$CI?$CFd?$CJ?5?$CI?$CFs?$CJ?$CI?$CFs?$CJ?5@
CONST	SEGMENT
??_C@_0EA@DBPKHFEA@?$FLIllusion?5Temple?$FN?5?$CI?$CFd?$CJ?5?$CI?$CFs?$CJ?$CI?$CFs?$CJ?5@ DB '['
	DB	'Illusion Temple] (%d) (%s)(%s) to Drop Relics Item [Serial:%u'
	DB	']', 00H					; `string'
CONST	ENDS
;	COMDAT ??_C@_0N@HIFAJKLG@?$MA?z?A?V?$LJ?$NO?$MA?$LK?$LM?$LK?$LJ?$LA?$AA@
CONST	SEGMENT
??_C@_0N@HIFAJKLG@?$MA?z?A?V?$LJ?$NO?$MA?$LK?$LM?$LK?$LJ?$LA?$AA@ DB 0c0H
	DB	0faH, 0c1H, 0d6H, 0b9H, 0deH, 0c0H, 0baH, 0bcH, 0baH, 0b9H, 0b0H
	DB	00H						; `string'
; Function compile flags: /Ogtp
CONST	ENDS
;	COMDAT ?DropRelicsItem@CIllusionTempleProcess@@QAEXH@Z
_TEXT	SEGMENT
_lpObj$ = -140						; size = 4
_s_num$ = -136						; size = 4
_NOption$ = -132					; size = 1
_item_number$ = -128					; size = 4
_PetExp$ = -124						; size = 4
_SOption$ = -120					; size = 1
_dur$ = -116						; size = 4
_ItemEffectEx$ = -112					; size = 1
_Option1$ = -108					; size = 1
_Option3$ = -104					; size = 1
_level$ = -100						; size = 4
_iIndex$GSCopy$ = -96					; size = 4
_Option2$ = -92						; size = 1
_this$GSCopy$ = -88					; size = 4
_iItemPos$ = -84					; size = 4
_type$ = -80						; size = 4
_pResult$ = -76						; size = 5
_ItemExOption$ = -66					; size = 1
_ItemExLevel$ = -65					; size = 1
_szItemName$ = -64					; size = 50
_NewOption$ = -12					; size = 8
__$ArrayPad$ = -4					; size = 4
_iIndex$ = 8						; size = 4
?DropRelicsItem@CIllusionTempleProcess@@QAEXH@Z PROC	; CIllusionTempleProcess::DropRelicsItem, COMDAT
; _this$ = ecx

; 1276 : {

  00000	55		 push	 ebp
  00001	8b ec		 mov	 ebp, esp
  00003	81 ec 8c 00 00
	00		 sub	 esp, 140		; 0000008cH
  00009	a1 00 00 00 00	 mov	 eax, DWORD PTR ___security_cookie
  0000e	33 c5		 xor	 eax, ebp
  00010	89 45 fc	 mov	 DWORD PTR __$ArrayPad$[ebp], eax
  00013	53		 push	 ebx
  00014	56		 push	 esi
  00015	8b 75 08	 mov	 esi, DWORD PTR _iIndex$[ebp]
  00018	8b d9		 mov	 ebx, ecx

; 1296 : 	{
; 1297 : 		return;
; 1298 : 	}
; 1299 : 
; 1300 : 	int iItemPos = FindItemBallPosition(lpObj->m_Index); //item position loc3

  0001a	89 5d a8	 mov	 DWORD PTR _this$GSCopy$[ebp], ebx
  0001d	89 75 a0	 mov	 DWORD PTR _iIndex$GSCopy$[ebp], esi
  00020	85 f6		 test	 esi, esi
  00022	78 0f		 js	 SHORT $LN14@DropRelics

; 1277 : 	if( OBJMAX_RANGE(iIndex) == FALSE )

  00024	33 c0		 xor	 eax, eax
  00026	81 fe 97 3a 00
	00		 cmp	 esi, 14999		; 00003a97H
  0002c	0f 9e c0	 setle	 al
  0002f	85 c0		 test	 eax, eax
  00031	75 2a		 jne	 SHORT $LN9@DropRelics
$LN14@DropRelics:

; 1278 : 	{
; 1279 : 		LogAdd("return %s %d", __FILE__, __LINE__);

  00033	68 ff 04 00 00	 push	 1279			; 000004ffH
  00038	68 00 00 00 00	 push	 OFFSET ??_C@_0BK@DMGNFDO@IllusionTempleProcess?4cpp?$AA@
  0003d	68 00 00 00 00	 push	 OFFSET ??_C@_0N@GGPGOPEN@return?5?$CFs?5?$CFd?$AA@
  00042	ff 15 00 00 00
	00		 call	 DWORD PTR ?LogAdd@@3P6AXPADZZA ; LogAdd
  00048	83 c4 0c	 add	 esp, 12			; 0000000cH
  0004b	5e		 pop	 esi
  0004c	5b		 pop	 ebx

; 1374 : }

  0004d	8b 4d fc	 mov	 ecx, DWORD PTR __$ArrayPad$[ebp]
  00050	33 cd		 xor	 ecx, ebp
  00052	e8 00 00 00 00	 call	 @__security_check_cookie@4
  00057	8b e5		 mov	 esp, ebp
  00059	5d		 pop	 ebp
  0005a	c2 04 00	 ret	 4
$LN9@DropRelics:

; 1280 : 		return;
; 1281 : 	}
; 1282 : 
; 1283 : 	if(this->m_iBallPlayerIndex != iIndex)

  0005d	39 b3 b8 03 00
	00		 cmp	 DWORD PTR [ebx+952], esi
  00063	0f 85 7b 03 00
	00		 jne	 $LN10@DropRelics

; 1284 : 	{
; 1285 : 		return;
; 1286 : 	}
; 1287 : 
; 1288 : 	LPOBJ lpObj = &gObj[iIndex]; //loc2

  00069	a1 00 00 00 00	 mov	 eax, DWORD PTR ?gObj@@3PAUOBJECTSTRUCT@@A ; gObj
  0006e	69 f6 50 2b 00
	00		 imul	 esi, 11088		; 00002b50H

; 1289 : 
; 1290 : 	if(FindItemBallPosition(lpObj->m_Index) == -1)

  00074	8b 0c 06	 mov	 ecx, DWORD PTR [esi+eax]
  00077	57		 push	 edi
  00078	8d 3c 06	 lea	 edi, DWORD PTR [esi+eax]
  0007b	51		 push	 ecx
  0007c	8b cb		 mov	 ecx, ebx
  0007e	89 bd 74 ff ff
	ff		 mov	 DWORD PTR _lpObj$[ebp], edi
  00084	e8 00 00 00 00	 call	 ?FindItemBallPosition@CIllusionTempleProcess@@QAEHH@Z ; CIllusionTempleProcess::FindItemBallPosition
  00089	83 f8 ff	 cmp	 eax, -1
  0008c	0f 84 51 03 00
	00		 je	 $LN15@DropRelics

; 1291 : 	{
; 1292 : 		return;
; 1293 : 	}
; 1294 : 
; 1295 : 	if(lpObj->pInventory[FindItemBallPosition(lpObj->m_Index)].m_Type != ITEMGET(14,64))

  00092	8b 17		 mov	 edx, DWORD PTR [edi]
  00094	52		 push	 edx
  00095	8b cb		 mov	 ecx, ebx
  00097	e8 00 00 00 00	 call	 ?FindItemBallPosition@CIllusionTempleProcess@@QAEHH@Z ; CIllusionTempleProcess::FindItemBallPosition
  0009c	69 c0 d4 00 00
	00		 imul	 eax, 212		; 000000d4H
  000a2	8b 8f 24 0e 00
	00		 mov	 ecx, DWORD PTR [edi+3620]
  000a8	ba 40 1c 00 00	 mov	 edx, 7232		; 00001c40H
  000ad	66 39 54 08 06	 cmp	 WORD PTR [eax+ecx+6], dx
  000b2	0f 85 2b 03 00
	00		 jne	 $LN15@DropRelics

; 1296 : 	{
; 1297 : 		return;
; 1298 : 	}
; 1299 : 
; 1300 : 	int iItemPos = FindItemBallPosition(lpObj->m_Index); //item position loc3

  000b8	8b 07		 mov	 eax, DWORD PTR [edi]
  000ba	50		 push	 eax
  000bb	8b cb		 mov	 ecx, ebx
  000bd	e8 00 00 00 00	 call	 ?FindItemBallPosition@CIllusionTempleProcess@@QAEHH@Z ; CIllusionTempleProcess::FindItemBallPosition

; 1301 : 
; 1302 : 	PMSG_ITEMTHROW_RESULT pResult;
; 1303 : 
; 1304 : 	PHeadSetB((LPBYTE)&pResult, 0x23, sizeof(pResult));

  000c2	6a 05		 push	 5
  000c4	8d 4d b4	 lea	 ecx, DWORD PTR _pResult$[ebp]
  000c7	8b d8		 mov	 ebx, eax
  000c9	6a 23		 push	 35			; 00000023H
  000cb	51		 push	 ecx
  000cc	89 5d ac	 mov	 DWORD PTR _iItemPos$[ebp], ebx
  000cf	e8 00 00 00 00	 call	 ?PHeadSetB@@YAXPAEEH@Z	; PHeadSetB

; 1305 : 	pResult.Result = TRUE;
; 1306 : 	pResult.Ipos = iItemPos;
; 1307 : 
; 1308 : 	int map_num = gObj[iIndex].MapNumber;
; 1309 : 	int type = gObj[iIndex].pInventory[iItemPos].m_Type;

  000d4	8b 7d ac	 mov	 edi, DWORD PTR _iItemPos$[ebp]
  000d7	a1 00 00 00 00	 mov	 eax, DWORD PTR ?gObj@@3PAUOBJECTSTRUCT@@A ; gObj
  000dc	69 ff d4 00 00
	00		 imul	 edi, 212		; 000000d4H
  000e2	c6 45 b7 01	 mov	 BYTE PTR _pResult$[ebp+3], 1
  000e6	88 5d b8	 mov	 BYTE PTR _pResult$[ebp+4], bl
  000e9	8b 8c 06 24 0e
	00 00		 mov	 ecx, DWORD PTR [esi+eax+3620]
  000f0	0f b6 9c 06 49
	01 00 00	 movzx	 ebx, BYTE PTR [esi+eax+329]

; 1310 : 	int level = gObj[iIndex].pInventory[iItemPos].m_Level;
; 1311 : 	float dur = gObj[iIndex].pInventory[iItemPos].m_Durability;

  000f8	d9 44 39 24	 fld	 DWORD PTR [ecx+edi+36]
  000fc	0f bf 44 39 06	 movsx	 eax, WORD PTR [ecx+edi+6]
  00101	d9 5d 8c	 fstp	 DWORD PTR _dur$[ebp]
  00104	0f bf 54 39 08	 movsx	 edx, WORD PTR [ecx+edi+8]
  00109	03 cf		 add	 ecx, edi
  0010b	83 c4 0c	 add	 esp, 12			; 0000000cH
  0010e	89 45 b0	 mov	 DWORD PTR _type$[ebp], eax
  00111	89 55 9c	 mov	 DWORD PTR _level$[ebp], edx

; 1312 : 	BOOL ret = gObj[iIndex].pInventory[iItemPos].IsItem();

  00114	e8 00 00 00 00	 call	 ?IsItem@CItem@@QAEHXZ	; CItem::IsItem

; 1313 : 	BYTE Option1 = gObj[iIndex].pInventory[iItemPos].m_Option1;

  00119	a1 00 00 00 00	 mov	 eax, DWORD PTR ?gObj@@3PAUOBJECTSTRUCT@@A ; gObj
  0011e	8b 84 06 24 0e
	00 00		 mov	 eax, DWORD PTR [esi+eax+3620]
  00125	0f b6 94 38 94
	00 00 00	 movzx	 edx, BYTE PTR [eax+edi+148]

; 1314 : 	BYTE Option2 = gObj[iIndex].pInventory[iItemPos].m_Option2;

  0012d	0f b6 8c 38 95
	00 00 00	 movzx	 ecx, BYTE PTR [eax+edi+149]
  00135	03 c7		 add	 eax, edi
  00137	88 55 94	 mov	 BYTE PTR _Option1$[ebp], dl

; 1315 : 	BYTE Option3 = gObj[iIndex].pInventory[iItemPos].m_Option3;

  0013a	0f b6 90 96 00
	00 00		 movzx	 edx, BYTE PTR [eax+150]
  00141	88 4d a4	 mov	 BYTE PTR _Option2$[ebp], cl

; 1316 : 	BYTE NOption = gObj[iIndex].pInventory[iItemPos].m_NewOption;

  00144	0f b6 88 97 00
	00 00		 movzx	 ecx, BYTE PTR [eax+151]
  0014b	88 55 98	 mov	 BYTE PTR _Option3$[ebp], dl

; 1317 : 	DWORD s_num = gObj[iIndex].pInventory[iItemPos].m_Number;

  0014e	8b 10		 mov	 edx, DWORD PTR [eax]
  00150	88 8d 7c ff ff
	ff		 mov	 BYTE PTR _NOption$[ebp], cl

; 1318 : 	BYTE ItemExOption = g_kJewelOfHarmonySystem.GetItemStrengthenOption(&gObj[iIndex].pInventory[iItemPos]);

  00156	50		 push	 eax
  00157	b9 00 00 00 00	 mov	 ecx, OFFSET ?g_kJewelOfHarmonySystem@@3VCJewelOfHarmonySystem@@A ; g_kJewelOfHarmonySystem
  0015c	89 95 78 ff ff
	ff		 mov	 DWORD PTR _s_num$[ebp], edx
  00162	e8 00 00 00 00	 call	 ?GetItemStrengthenOption@CJewelOfHarmonySystem@@QAEEPAVCItem@@@Z ; CJewelOfHarmonySystem::GetItemStrengthenOption
  00167	88 45 be	 mov	 BYTE PTR _ItemExOption$[ebp], al

; 1319 : 	BYTE ItemExLevel = g_kJewelOfHarmonySystem.GetItemOptionLevel(&gObj[iIndex].pInventory[iItemPos]); //loc17

  0016a	a1 00 00 00 00	 mov	 eax, DWORD PTR ?gObj@@3PAUOBJECTSTRUCT@@A ; gObj
  0016f	8b 8c 06 24 0e
	00 00		 mov	 ecx, DWORD PTR [esi+eax+3620]
  00176	03 cf		 add	 ecx, edi
  00178	51		 push	 ecx
  00179	b9 00 00 00 00	 mov	 ecx, OFFSET ?g_kJewelOfHarmonySystem@@3VCJewelOfHarmonySystem@@A ; g_kJewelOfHarmonySystem
  0017e	e8 00 00 00 00	 call	 ?GetItemOptionLevel@CJewelOfHarmonySystem@@QAEEPAVCItem@@@Z ; CJewelOfHarmonySystem::GetItemOptionLevel

; 1320 : 
; 1321 : 	BYTE NewOption[MAX_EXOPTION_SIZE];
; 1322 : 
; 1323 : 	::ItemIsBufExOption(NewOption, &gObj[iIndex].pInventory[iItemPos]);

  00183	8b 15 00 00 00
	00		 mov	 edx, DWORD PTR ?gObj@@3PAUOBJECTSTRUCT@@A ; gObj
  00189	88 45 bf	 mov	 BYTE PTR _ItemExLevel$[ebp], al
  0018c	8b 84 16 24 0e
	00 00		 mov	 eax, DWORD PTR [esi+edx+3620]
  00193	03 c7		 add	 eax, edi
  00195	50		 push	 eax
  00196	8d 4d f4	 lea	 ecx, DWORD PTR _NewOption$[ebp]
  00199	51		 push	 ecx
  0019a	e8 00 00 00 00	 call	 ?ItemIsBufExOption@@YAXPAEPAVCItem@@@Z ; ItemIsBufExOption

; 1324 : 
; 1325 : 	int PetLevel = gObj[iIndex].pInventory[iItemPos].m_PetItem_Level; //loc20

  0019f	8b 0d 00 00 00
	00		 mov	 ecx, DWORD PTR ?gObj@@3PAUOBJECTSTRUCT@@A ; gObj
  001a5	8b 84 0e 24 0e
	00 00		 mov	 eax, DWORD PTR [esi+ecx+3620]

; 1326 : 
; 1327 : 	int PetExp = gObj[iIndex].pInventory[iItemPos].m_PetItem_Exp; //loc21

  001ac	8b 94 38 c0 00
	00 00		 mov	 edx, DWORD PTR [eax+edi+192]
  001b3	03 c7		 add	 eax, edi
  001b5	8b b8 bc 00 00
	00		 mov	 edi, DWORD PTR [eax+188]
  001bb	89 55 84	 mov	 DWORD PTR _PetExp$[ebp], edx

; 1328 : 	BYTE SOption = gObj[iIndex].pInventory[iItemPos].m_SetOption; //loc22

  001be	0f b6 90 ae 00
	00 00		 movzx	 edx, BYTE PTR [eax+174]
  001c5	88 55 88	 mov	 BYTE PTR _SOption$[ebp], dl

; 1329 : 
; 1330 : 	BYTE ItemEffectEx = gObj[iIndex].pInventory[iItemPos].m_ItemOptionEx; //loc23

  001c8	0f b6 90 ca 00
	00 00		 movzx	 edx, BYTE PTR [eax+202]

; 1331 : 	int item_number = gObj[iIndex].pInventory[iItemPos].m_Number; //loc24

  001cf	8b 00		 mov	 eax, DWORD PTR [eax]
  001d1	89 45 80	 mov	 DWORD PTR _item_number$[ebp], eax

; 1332 : 
; 1333 : 	char szItemName[50] = "저주받은성물";

  001d4	a1 04 00 00 00	 mov	 eax, DWORD PTR ??_C@_0N@HIFAJKLG@?$MA?z?A?V?$LJ?$NO?$MA?$LK?$LM?$LK?$LJ?$LA?$AA@+4
  001d9	88 55 90	 mov	 BYTE PTR _ItemEffectEx$[ebp], dl
  001dc	8b 15 00 00 00
	00		 mov	 edx, DWORD PTR ??_C@_0N@HIFAJKLG@?$MA?z?A?V?$LJ?$NO?$MA?$LK?$LM?$LK?$LJ?$LA?$AA@
  001e2	89 45 c4	 mov	 DWORD PTR _szItemName$[ebp+4], eax
  001e5	a0 0c 00 00 00	 mov	 al, BYTE PTR ??_C@_0N@HIFAJKLG@?$MA?z?A?V?$LJ?$NO?$MA?$LK?$LM?$LK?$LJ?$LA?$AA@+12
  001ea	83 c4 08	 add	 esp, 8
  001ed	89 55 c0	 mov	 DWORD PTR _szItemName$[ebp], edx
  001f0	8b 15 08 00 00
	00		 mov	 edx, DWORD PTR ??_C@_0N@HIFAJKLG@?$MA?z?A?V?$LJ?$NO?$MA?$LK?$LM?$LK?$LJ?$LA?$AA@+8
  001f6	88 45 cc	 mov	 BYTE PTR _szItemName$[ebp+12], al
  001f9	33 c0		 xor	 eax, eax
  001fb	89 55 c8	 mov	 DWORD PTR _szItemName$[ebp+8], edx
  001fe	89 45 cd	 mov	 DWORD PTR _szItemName$[ebp+13], eax

; 1334 : 
; 1335 : 	int aAntiLootIndex = -1; //loc38
; 1336 : 	short cX = 0; //loc39
; 1337 : 	short cY = 0; //loc40
; 1338 : 
; 1339 : 	BYTE btMapAttr = MapC[map_num].GetAttr(gObj[iIndex].X, gObj[iIndex].Y);

  00201	69 db 48 3d 05
	00		 imul	 ebx, 343368		; 00053d48H
  00207	89 45 d1	 mov	 DWORD PTR _szItemName$[ebp+17], eax
  0020a	89 45 d5	 mov	 DWORD PTR _szItemName$[ebp+21], eax
  0020d	89 45 d9	 mov	 DWORD PTR _szItemName$[ebp+25], eax
  00210	89 45 dd	 mov	 DWORD PTR _szItemName$[ebp+29], eax
  00213	89 45 e1	 mov	 DWORD PTR _szItemName$[ebp+33], eax
  00216	89 45 e5	 mov	 DWORD PTR _szItemName$[ebp+37], eax
  00219	89 45 e9	 mov	 DWORD PTR _szItemName$[ebp+41], eax
  0021c	89 45 ed	 mov	 DWORD PTR _szItemName$[ebp+45], eax
  0021f	88 45 f1	 mov	 BYTE PTR _szItemName$[ebp+49], al
  00222	0f bf 94 0e 46
	01 00 00	 movsx	 edx, WORD PTR [esi+ecx+326]
  0022a	0f bf 84 0e 44
	01 00 00	 movsx	 eax, WORD PTR [esi+ecx+324]
  00232	52		 push	 edx
  00233	8d 9b 00 00 00
	00		 lea	 ebx, DWORD PTR ?MapC@@3PAVMapClass@@A[ebx]
  00239	50		 push	 eax
  0023a	8b cb		 mov	 ecx, ebx
  0023c	e8 00 00 00 00	 call	 ?GetAttr@MapClass@@QAEEHH@Z ; MapClass::GetAttr

; 1340 : 
; 1341 : 	if((btMapAttr&4) == 4 || (btMapAttr&8) == 8)

  00241	a8 0c		 test	 al, 12			; 0000000cH
  00243	75 18		 jne	 SHORT $LN4@DropRelics

; 1345 : 	}
; 1346 : 	else
; 1347 : 	{
; 1348 : 		cX = gObj[iIndex].X;

  00245	8b 0d 00 00 00
	00		 mov	 ecx, DWORD PTR ?gObj@@3PAUOBJECTSTRUCT@@A ; gObj
  0024b	0f b7 84 0e 44
	01 00 00	 movzx	 eax, WORD PTR [esi+ecx+324]

; 1349 : 		cY = gObj[iIndex].Y;

  00253	0f b7 8c 0e 46
	01 00 00	 movzx	 ecx, WORD PTR [esi+ecx+326]
  0025b	eb 08		 jmp	 SHORT $LN3@DropRelics
$LN4@DropRelics:

; 1342 : 	{
; 1343 : 		cX = 168;

  0025d	b8 a8 00 00 00	 mov	 eax, 168		; 000000a8H

; 1344 : 		cY = 85;

  00262	8d 48 ad	 lea	 ecx, DWORD PTR [eax-83]
$LN3@DropRelics:

; 1350 : 	}
; 1351 : 
; 1352 : 	if ( MapC[map_num].ItemDrop(type, level, dur, cX, cY,Option1, Option2, Option3, NOption, SOption, item_number, aAntiLootIndex, PetLevel, PetExp, ItemEffectEx, NULL, 0xFF) == TRUE )

  00265	8b 55 90	 mov	 edx, DWORD PTR _ItemEffectEx$[ebp]
  00268	d9 45 8c	 fld	 DWORD PTR _dur$[ebp]
  0026b	68 ff 00 00 00	 push	 255			; 000000ffH
  00270	6a 00		 push	 0
  00272	52		 push	 edx
  00273	8b 55 84	 mov	 edx, DWORD PTR _PetExp$[ebp]
  00276	52		 push	 edx
  00277	8b 55 80	 mov	 edx, DWORD PTR _item_number$[ebp]
  0027a	57		 push	 edi
  0027b	6a ff		 push	 -1
  0027d	52		 push	 edx
  0027e	8b 55 88	 mov	 edx, DWORD PTR _SOption$[ebp]
  00281	52		 push	 edx
  00282	8b 95 7c ff ff
	ff		 mov	 edx, DWORD PTR _NOption$[ebp]
  00288	52		 push	 edx
  00289	8b 55 98	 mov	 edx, DWORD PTR _Option3$[ebp]
  0028c	52		 push	 edx
  0028d	8b 55 a4	 mov	 edx, DWORD PTR _Option2$[ebp]
  00290	52		 push	 edx
  00291	8b 55 94	 mov	 edx, DWORD PTR _Option1$[ebp]
  00294	52		 push	 edx
  00295	0f bf c9	 movsx	 ecx, cx
  00298	51		 push	 ecx
  00299	0f bf d0	 movsx	 edx, ax
  0029c	8b 45 9c	 mov	 eax, DWORD PTR _level$[ebp]
  0029f	52		 push	 edx
  002a0	51		 push	 ecx
  002a1	8b 4d b0	 mov	 ecx, DWORD PTR _type$[ebp]
  002a4	d9 1c 24	 fstp	 DWORD PTR [esp]
  002a7	50		 push	 eax
  002a8	51		 push	 ecx
  002a9	8b cb		 mov	 ecx, ebx
  002ab	e8 00 00 00 00	 call	 ?ItemDrop@MapClass@@QAEHHHMHHEEEEEKHHHEQAEE@Z ; MapClass::ItemDrop

; 1353 : 	{
; 1354 : 		LogAddTD("[Illusion Temple] (%d) (%s)(%s) to Drop Relics Item [Serial:%u]",this->m_btFloorIndex+1, lpObj->AccountID, lpObj->Name, lpObj->pInventory[FindItemBallPosition(lpObj->m_Index)].m_Number);

  002b0	8b 5d a8	 mov	 ebx, DWORD PTR _this$GSCopy$[ebp]
  002b3	83 f8 01	 cmp	 eax, 1
  002b6	0f 85 fb 00 00
	00		 jne	 $LN2@DropRelics
  002bc	8b bd 74 ff ff
	ff		 mov	 edi, DWORD PTR _lpObj$[ebp]
  002c2	8b 17		 mov	 edx, DWORD PTR [edi]
  002c4	52		 push	 edx
  002c5	8b cb		 mov	 ecx, ebx
  002c7	e8 00 00 00 00	 call	 ?FindItemBallPosition@CIllusionTempleProcess@@QAEHH@Z ; CIllusionTempleProcess::FindItemBallPosition
  002cc	69 c0 d4 00 00
	00		 imul	 eax, 212		; 000000d4H
  002d2	8b 8f 24 0e 00
	00		 mov	 ecx, DWORD PTR [edi+3620]
  002d8	8b 14 08	 mov	 edx, DWORD PTR [eax+ecx]
  002db	0f b6 8b 2c 02
	00 00		 movzx	 ecx, BYTE PTR [ebx+556]
  002e2	52		 push	 edx
  002e3	8d 47 77	 lea	 eax, DWORD PTR [edi+119]
  002e6	50		 push	 eax
  002e7	83 c7 6c	 add	 edi, 108		; 0000006cH
  002ea	57		 push	 edi
  002eb	41		 inc	 ecx
  002ec	51		 push	 ecx
  002ed	68 00 00 00 00	 push	 OFFSET ??_C@_0EA@DBPKHFEA@?$FLIllusion?5Temple?$FN?5?$CI?$CFd?$CJ?5?$CI?$CFs?$CJ?$CI?$CFs?$CJ?5@
  002f2	ff 15 00 00 00
	00		 call	 DWORD PTR ?LogAddTD@@3P6AXPADZZA ; LogAddTD

; 1355 : 		
; 1356 : 		::gObjInventoryDeleteItem(iIndex, iItemPos);

  002f8	8b 55 ac	 mov	 edx, DWORD PTR _iItemPos$[ebp]
  002fb	8b 45 a0	 mov	 eax, DWORD PTR _iIndex$GSCopy$[ebp]
  002fe	52		 push	 edx
  002ff	50		 push	 eax
  00300	e8 00 00 00 00	 call	 ?gObjInventoryDeleteItem@@YAEHH@Z ; gObjInventoryDeleteItem

; 1357 : 		pResult.Result = TRUE;
; 1358 : 
; 1359 : 		LogAddTD(lMsg.Get(479), gObj[iIndex].AccountID, gObj[iIndex].Name, gObj[iIndex].MapNumber,
; 1360 : 			gObj[iIndex].X, gObj[iIndex].Y, s_num, szItemName, type, level, Option1, Option2, Option3, (int)dur, NewOption[0],
; 1361 : 			NewOption[1], NewOption[2], NewOption[3], NewOption[4], NewOption[5], NewOption[6], SOption,
; 1362 : 			ItemEffectEx>>7, ItemExOption, ItemExLevel);

  00305	0f b6 4d bf	 movzx	 ecx, BYTE PTR _ItemExLevel$[ebp]
  00309	d9 45 8c	 fld	 DWORD PTR _dur$[ebp]
  0030c	0f b6 55 be	 movzx	 edx, BYTE PTR _ItemExOption$[ebp]
  00310	0f b6 45 90	 movzx	 eax, BYTE PTR _ItemEffectEx$[ebp]
  00314	83 c4 1c	 add	 esp, 28			; 0000001cH
  00317	51		 push	 ecx
  00318	0f b6 4d 88	 movzx	 ecx, BYTE PTR _SOption$[ebp]
  0031c	8b 3d 00 00 00
	00		 mov	 edi, DWORD PTR ?gObj@@3PAUOBJECTSTRUCT@@A ; gObj
  00322	52		 push	 edx
  00323	0f b6 55 fa	 movzx	 edx, BYTE PTR _NewOption$[ebp+6]
  00327	c1 e8 07	 shr	 eax, 7
  0032a	50		 push	 eax
  0032b	0f b6 45 f9	 movzx	 eax, BYTE PTR _NewOption$[ebp+5]
  0032f	51		 push	 ecx
  00330	0f b6 4d f8	 movzx	 ecx, BYTE PTR _NewOption$[ebp+4]
  00334	52		 push	 edx
  00335	0f b6 55 f7	 movzx	 edx, BYTE PTR _NewOption$[ebp+3]
  00339	50		 push	 eax
  0033a	0f b6 45 f6	 movzx	 eax, BYTE PTR _NewOption$[ebp+2]
  0033e	51		 push	 ecx
  0033f	0f b6 4d f5	 movzx	 ecx, BYTE PTR _NewOption$[ebp+1]
  00343	52		 push	 edx
  00344	0f b6 55 f4	 movzx	 edx, BYTE PTR _NewOption$[ebp]
  00348	50		 push	 eax
  00349	51		 push	 ecx
  0034a	52		 push	 edx
  0034b	c6 45 b7 01	 mov	 BYTE PTR _pResult$[ebp+3], 1
  0034f	e8 00 00 00 00	 call	 __ftol2_sse
  00354	0f b6 4d a4	 movzx	 ecx, BYTE PTR _Option2$[ebp]
  00358	0f b6 55 94	 movzx	 edx, BYTE PTR _Option1$[ebp]
  0035c	50		 push	 eax
  0035d	0f b6 45 98	 movzx	 eax, BYTE PTR _Option3$[ebp]
  00361	50		 push	 eax
  00362	8b 45 9c	 mov	 eax, DWORD PTR _level$[ebp]
  00365	51		 push	 ecx
  00366	8b 4d b0	 mov	 ecx, DWORD PTR _type$[ebp]
  00369	52		 push	 edx
  0036a	50		 push	 eax
  0036b	8b 85 78 ff ff
	ff		 mov	 eax, DWORD PTR _s_num$[ebp]
  00371	51		 push	 ecx
  00372	0f bf 8c 3e 46
	01 00 00	 movsx	 ecx, WORD PTR [esi+edi+326]
  0037a	8d 55 c0	 lea	 edx, DWORD PTR _szItemName$[ebp]
  0037d	52		 push	 edx
  0037e	0f bf 94 3e 44
	01 00 00	 movsx	 edx, WORD PTR [esi+edi+324]
  00386	50		 push	 eax
  00387	0f b6 84 3e 49
	01 00 00	 movzx	 eax, BYTE PTR [esi+edi+329]
  0038f	51		 push	 ecx
  00390	52		 push	 edx
  00391	50		 push	 eax
  00392	8d 4c 3e 77	 lea	 ecx, DWORD PTR [esi+edi+119]
  00396	51		 push	 ecx
  00397	8d 54 3e 6c	 lea	 edx, DWORD PTR [esi+edi+108]
  0039b	52		 push	 edx
  0039c	68 df 01 00 00	 push	 479			; 000001dfH
  003a1	b9 00 00 00 00	 mov	 ecx, OFFSET ?lMsg@@3VCMsg@@A ; lMsg
  003a6	e8 00 00 00 00	 call	 ?Get@CMsg@@QAEPADH@Z	; CMsg::Get
  003ab	50		 push	 eax
  003ac	ff 15 00 00 00
	00		 call	 DWORD PTR ?LogAddTD@@3P6AXPADZZA ; LogAddTD
  003b2	83 c4 64	 add	 esp, 100		; 00000064H

; 1363 : 	}
; 1364 : 	else

  003b5	eb 04		 jmp	 SHORT $LN1@DropRelics
$LN2@DropRelics:

; 1365 : 	{
; 1366 : 		pResult.Result = FALSE;

  003b7	c6 45 b7 00	 mov	 BYTE PTR _pResult$[ebp+3], 0
$LN1@DropRelics:

; 1367 : 	}
; 1368 : 
; 1369 : 	this->m_iBallPlayerIndex = -1;
; 1370 : 	this->m_btBallInventoryPosition = (BYTE)-1;
; 1371 : 	this->m_btAllowedRegPedestal = (BYTE)-1;
; 1372 : 
; 1373 : 	DataSend(iIndex, (LPBYTE)&pResult, pResult.h.size);

  003bb	0f b6 45 b5	 movzx	 eax, BYTE PTR _pResult$[ebp+1]
  003bf	8b 55 a0	 mov	 edx, DWORD PTR _iIndex$GSCopy$[ebp]
  003c2	50		 push	 eax
  003c3	8d 4d b4	 lea	 ecx, DWORD PTR _pResult$[ebp]
  003c6	51		 push	 ecx
  003c7	52		 push	 edx
  003c8	c7 83 b8 03 00
	00 ff ff ff ff	 mov	 DWORD PTR [ebx+952], -1
  003d2	66 c7 83 bc 03
	00 00 ff ff	 mov	 WORD PTR [ebx+956], 65535 ; 0000ffffH
  003db	e8 00 00 00 00	 call	 ?DataSend@@YAHHPAEK@Z	; DataSend
  003e0	83 c4 0c	 add	 esp, 12			; 0000000cH
$LN15@DropRelics:
  003e3	5f		 pop	 edi
$LN10@DropRelics:

; 1374 : }

  003e4	8b 4d fc	 mov	 ecx, DWORD PTR __$ArrayPad$[ebp]
  003e7	5e		 pop	 esi
  003e8	33 cd		 xor	 ecx, ebp
  003ea	5b		 pop	 ebx
  003eb	e8 00 00 00 00	 call	 @__security_check_cookie@4
  003f0	8b e5		 mov	 esp, ebp
  003f2	5d		 pop	 ebp
  003f3	c2 04 00	 ret	 4
?DropRelicsItem@CIllusionTempleProcess@@QAEXH@Z ENDP	; CIllusionTempleProcess::DropRelicsItem
_TEXT	ENDS
PUBLIC	?UnlockTeamPedestal@CIllusionTempleProcess@@QAEXHE@Z ; CIllusionTempleProcess::UnlockTeamPedestal
; Function compile flags: /Ogtp
;	COMDAT ?UnlockTeamPedestal@CIllusionTempleProcess@@QAEXHE@Z
_TEXT	SEGMENT
_aIndex$ = 8						; size = 4
_pos$ = 12						; size = 1
?UnlockTeamPedestal@CIllusionTempleProcess@@QAEXHE@Z PROC ; CIllusionTempleProcess::UnlockTeamPedestal, COMDAT
; _this$ = ecx

; 1377 : {

  00000	55		 push	 ebp
  00001	8b ec		 mov	 ebp, esp
  00003	56		 push	 esi
  00004	57		 push	 edi

; 1378 : 	if( OBJMAX_RANGE(aIndex) == FALSE )

  00005	8b 7d 08	 mov	 edi, DWORD PTR _aIndex$[ebp]
  00008	8b f1		 mov	 esi, ecx
  0000a	85 ff		 test	 edi, edi
  0000c	78 0f		 js	 SHORT $LN7@UnlockTeam
  0000e	33 c0		 xor	 eax, eax
  00010	81 ff 97 3a 00
	00		 cmp	 edi, 14999		; 00003a97H
  00016	0f 9e c0	 setle	 al
  00019	85 c0		 test	 eax, eax
  0001b	75 1e		 jne	 SHORT $LN2@UnlockTeam
$LN7@UnlockTeam:

; 1379 : 	{
; 1380 : 		LogAdd("return %s %d", __FILE__, __LINE__);

  0001d	68 64 05 00 00	 push	 1380			; 00000564H
  00022	68 00 00 00 00	 push	 OFFSET ??_C@_0BK@DMGNFDO@IllusionTempleProcess?4cpp?$AA@
  00027	68 00 00 00 00	 push	 OFFSET ??_C@_0N@GGPGOPEN@return?5?$CFs?5?$CFd?$AA@
  0002c	ff 15 00 00 00
	00		 call	 DWORD PTR ?LogAdd@@3P6AXPADZZA ; LogAdd
  00032	83 c4 0c	 add	 esp, 12			; 0000000cH
  00035	5f		 pop	 edi
  00036	5e		 pop	 esi

; 1391 : 	}
; 1392 : }

  00037	5d		 pop	 ebp
  00038	c2 08 00	 ret	 8
$LN2@UnlockTeam:

; 1381 : 		return;
; 1382 : 	}
; 1383 : 
; 1384 : 	this->m_iBallPlayerIndex = aIndex;
; 1385 : 	this->m_btBallInventoryPosition = FindItemBallPosition(aIndex);

  0003b	57		 push	 edi
  0003c	89 be b8 03 00
	00		 mov	 DWORD PTR [esi+952], edi
  00042	e8 00 00 00 00	 call	 ?FindItemBallPosition@CIllusionTempleProcess@@QAEHH@Z ; CIllusionTempleProcess::FindItemBallPosition
  00047	88 86 bd 03 00
	00		 mov	 BYTE PTR [esi+957], al

; 1386 : 	//this->m_btBallInventoryPosition = pos;
; 1387 : 
; 1388 : 	if(gObj[aIndex].m_iIllusionTempleIndex != -1 && this->m_FloorData[gObj[aIndex].m_iIllusionTempleIndex].m_iTeamPlayerIndex != -1 && this->m_FloorData[gObj[aIndex].m_iIllusionTempleIndex].m_iTeamPlayerIndex == aIndex)

  0004d	8b 0d 00 00 00
	00		 mov	 ecx, DWORD PTR ?gObj@@3PAUOBJECTSTRUCT@@A ; gObj
  00053	8b c7		 mov	 eax, edi
  00055	69 c0 50 2b 00
	00		 imul	 eax, 11088		; 00002b50H
  0005b	8b 84 08 78 20
	00 00		 mov	 eax, DWORD PTR [eax+ecx+8312]
  00062	83 f8 ff	 cmp	 eax, -1
  00065	74 1c		 je	 SHORT $LN1@UnlockTeam
  00067	8d 0c 40	 lea	 ecx, DWORD PTR [eax+eax*2]
  0006a	03 c9		 add	 ecx, ecx
  0006c	8b 44 ce 20	 mov	 eax, DWORD PTR [esi+ecx*8+32]
  00070	83 f8 ff	 cmp	 eax, -1
  00073	74 0e		 je	 SHORT $LN1@UnlockTeam
  00075	3b c7		 cmp	 eax, edi
  00077	75 0a		 jne	 SHORT $LN1@UnlockTeam

; 1389 : 	{
; 1390 : 		this->m_btAllowedRegPedestal = this->m_FloorData[gObj[aIndex].m_iIllusionTempleIndex].m_btTeamJoinSide;

  00079	8a 44 ce 24	 mov	 al, BYTE PTR [esi+ecx*8+36]
  0007d	88 86 bc 03 00
	00		 mov	 BYTE PTR [esi+956], al
$LN1@UnlockTeam:
  00083	5f		 pop	 edi
  00084	5e		 pop	 esi

; 1391 : 	}
; 1392 : }

  00085	5d		 pop	 ebp
  00086	c2 08 00	 ret	 8
?UnlockTeamPedestal@CIllusionTempleProcess@@QAEXHE@Z ENDP ; CIllusionTempleProcess::UnlockTeamPedestal
_TEXT	ENDS
PUBLIC	__$ArrayPad$
PUBLIC	?GCSendPlayerRelicsCarrier@CIllusionTempleProcess@@QAEXPAUOBJECTSTRUCT@@@Z ; CIllusionTempleProcess::GCSendPlayerRelicsCarrier
EXTRN	?PHeadSubSetB@@YAXPAEEEH@Z:PROC			; PHeadSubSetB
; Function compile flags: /Ogtp
;	COMDAT ?GCSendPlayerRelicsCarrier@CIllusionTempleProcess@@QAEXPAUOBJECTSTRUCT@@@Z
_TEXT	SEGMENT
_pMsg$ = -20						; size = 16
__$ArrayPad$ = -4					; size = 4
_lpObj$ = 8						; size = 4
?GCSendPlayerRelicsCarrier@CIllusionTempleProcess@@QAEXPAUOBJECTSTRUCT@@@Z PROC ; CIllusionTempleProcess::GCSendPlayerRelicsCarrier, COMDAT
; _this$ = ecx

; 1395 : {

  00000	55		 push	 ebp
  00001	8b ec		 mov	 ebp, esp
  00003	83 ec 14	 sub	 esp, 20			; 00000014H
  00006	a1 00 00 00 00	 mov	 eax, DWORD PTR ___security_cookie
  0000b	33 c5		 xor	 eax, ebp
  0000d	89 45 fc	 mov	 DWORD PTR __$ArrayPad$[ebp], eax
  00010	56		 push	 esi
  00011	8b 75 08	 mov	 esi, DWORD PTR _lpObj$[ebp]
  00014	57		 push	 edi

; 1396 : 	PMSG_ANNOUNCE_BALL_PLAYER pMsg;
; 1397 : 
; 1398 : 	PHeadSubSetB((LPBYTE)&pMsg, 0xBF, 0x08, sizeof(pMsg));

  00015	6a 10		 push	 16			; 00000010H
  00017	6a 08		 push	 8
  00019	8d 45 ec	 lea	 eax, DWORD PTR _pMsg$[ebp]
  0001c	68 bf 00 00 00	 push	 191			; 000000bfH
  00021	50		 push	 eax
  00022	8b f9		 mov	 edi, ecx
  00024	e8 00 00 00 00	 call	 ?PHeadSubSetB@@YAXPAEEEH@Z ; PHeadSubSetB

; 1399 : 
; 1400 : 	pMsg.m_sIndex = lpObj->m_Index;

  00029	0f b7 0e	 movzx	 ecx, WORD PTR [esi]

; 1401 : 
; 1402 : 	memcpy(pMsg.chCharacter, lpObj->Name, 10);

  0002c	8b 56 77	 mov	 edx, DWORD PTR [esi+119]
  0002f	8b 46 7b	 mov	 eax, DWORD PTR [esi+123]
  00032	66 89 4d f0	 mov	 WORD PTR _pMsg$[ebp+4], cx
  00036	0f b7 4e 7f	 movzx	 ecx, WORD PTR [esi+127]

; 1405 : 	{
; 1406 : 		if( this->m_FloorData[i].m_iTeamPlayerIndex != OBJ_EMPTY )

  0003a	8d 77 20	 lea	 esi, DWORD PTR [edi+32]
  0003d	83 c4 10	 add	 esp, 16			; 00000010H
  00040	89 55 f2	 mov	 DWORD PTR _pMsg$[ebp+6], edx
  00043	89 45 f6	 mov	 DWORD PTR _pMsg$[ebp+10], eax
  00046	66 89 4d fa	 mov	 WORD PTR _pMsg$[ebp+14], cx
  0004a	bf 0a 00 00 00	 mov	 edi, 10			; 0000000aH
  0004f	90		 npad	 1
$LL5@GCSendPlay:
  00050	8b 06		 mov	 eax, DWORD PTR [esi]
  00052	83 f8 ff	 cmp	 eax, -1
  00055	74 27		 je	 SHORT $LN4@GCSendPlay

; 1407 : 		{
; 1408 : 			if( gObj[this->m_FloorData[i].m_iTeamPlayerIndex].Connected > PLAYER_LOGGED )

  00057	8b 0d 00 00 00
	00		 mov	 ecx, DWORD PTR ?gObj@@3PAUOBJECTSTRUCT@@A ; gObj
  0005d	8b d0		 mov	 edx, eax
  0005f	69 d2 50 2b 00
	00		 imul	 edx, 11088		; 00002b50H
  00065	83 7c 0a 04 02	 cmp	 DWORD PTR [edx+ecx+4], 2
  0006a	7e 12		 jle	 SHORT $LN4@GCSendPlay

; 1409 : 			{
; 1410 : 				DataSend(this->m_FloorData[i].m_iTeamPlayerIndex,(LPBYTE)&pMsg,pMsg.h.size);

  0006c	0f b6 55 ed	 movzx	 edx, BYTE PTR _pMsg$[ebp+1]
  00070	52		 push	 edx
  00071	8d 4d ec	 lea	 ecx, DWORD PTR _pMsg$[ebp]
  00074	51		 push	 ecx
  00075	50		 push	 eax
  00076	e8 00 00 00 00	 call	 ?DataSend@@YAHHPAEK@Z	; DataSend
  0007b	83 c4 0c	 add	 esp, 12			; 0000000cH
$LN4@GCSendPlay:

; 1403 : 
; 1404 : 	for( int i = 0; i < MAX_FLOOR_USER; i++ )

  0007e	83 c6 30	 add	 esi, 48			; 00000030H
  00081	4f		 dec	 edi
  00082	75 cc		 jne	 SHORT $LL5@GCSendPlay

; 1411 : 			}
; 1412 : 		}
; 1413 : 	}
; 1414 : }

  00084	8b 4d fc	 mov	 ecx, DWORD PTR __$ArrayPad$[ebp]
  00087	5f		 pop	 edi
  00088	33 cd		 xor	 ecx, ebp
  0008a	5e		 pop	 esi
  0008b	e8 00 00 00 00	 call	 @__security_check_cookie@4
  00090	8b e5		 mov	 esp, ebp
  00092	5d		 pop	 ebp
  00093	c2 04 00	 ret	 4
?GCSendPlayerRelicsCarrier@CIllusionTempleProcess@@QAEXPAUOBJECTSTRUCT@@@Z ENDP ; CIllusionTempleProcess::GCSendPlayerRelicsCarrier
_TEXT	ENDS
PUBLIC	?TestBattleScene@CIllusionTempleProcess@@QAEXXZ	; CIllusionTempleProcess::TestBattleScene
; Function compile flags: /Ogtp
;	COMDAT ?TestBattleScene@CIllusionTempleProcess@@QAEXXZ
_TEXT	SEGMENT
?TestBattleScene@CIllusionTempleProcess@@QAEXXZ PROC	; CIllusionTempleProcess::TestBattleScene, COMDAT
; _this$ = ecx

; 1418 : 	this->m_iLeftMinutesBeforeOpen = 0;

  00000	c7 81 98 03 00
	00 00 00 00 00	 mov	 DWORD PTR [ecx+920], 0

; 1419 : 	this->m_iEventBattleTimer = 1000;

  0000a	c7 81 9c 03 00
	00 e8 03 00 00	 mov	 DWORD PTR [ecx+924], 1000 ; 000003e8H

; 1420 : }

  00014	c3		 ret	 0
?TestBattleScene@CIllusionTempleProcess@@QAEXXZ ENDP	; CIllusionTempleProcess::TestBattleScene
_TEXT	ENDS
PUBLIC	?SetNPCPosition@CIllusionTempleProcess@@QAEXHH@Z ; CIllusionTempleProcess::SetNPCPosition
; Function compile flags: /Ogtp
;	COMDAT ?SetNPCPosition@CIllusionTempleProcess@@QAEXHH@Z
_TEXT	SEGMENT
_Class$ = 8						; size = 4
_Position$ = 12						; size = 4
?SetNPCPosition@CIllusionTempleProcess@@QAEXHH@Z PROC	; CIllusionTempleProcess::SetNPCPosition, COMDAT
; _this$ = ecx

; 1423 : {

  00000	55		 push	 ebp
  00001	8b ec		 mov	 ebp, esp

; 1424 : 	if(Class == 380)

  00003	8b 45 08	 mov	 eax, DWORD PTR _Class$[ebp]
  00006	3d 7c 01 00 00	 cmp	 eax, 380		; 0000017cH
  0000b	75 32		 jne	 SHORT $LN4@SetNPCPosi

; 1425 : 	{
; 1426 : 		if(this->m_iStatueCount > 2)

  0000d	8b 81 c0 03 00
	00		 mov	 eax, DWORD PTR [ecx+960]
  00013	83 f8 02	 cmp	 eax, 2
  00016	7f 63		 jg	 SHORT $LN1@SetNPCPosi

; 1427 : 		{
; 1428 : 			return;
; 1429 : 		}
; 1430 : 
; 1431 : 		this->m_StatueData[this->m_iStatueCount].m_iStatueIndex = -1;
; 1432 : 		this->m_StatueData[this->m_iStatueCount].m_sStatuePosition = (short)Position;

  00018	66 8b 55 0c	 mov	 dx, WORD PTR _Position$[ebp]
  0001c	c7 84 c1 30 02
	00 00 ff ff ff
	ff		 mov	 DWORD PTR [ecx+eax*8+560], -1
  00027	8b 81 c0 03 00
	00		 mov	 eax, DWORD PTR [ecx+960]
  0002d	66 89 94 c1 34
	02 00 00	 mov	 WORD PTR [ecx+eax*8+564], dx

; 1433 : 
; 1434 : 		this->m_iStatueCount+=1;

  00035	ff 81 c0 03 00
	00		 inc	 DWORD PTR [ecx+960]

; 1449 : 		return;
; 1450 : 	}
; 1451 : }

  0003b	5d		 pop	 ebp
  0003c	c2 08 00	 ret	 8
$LN4@SetNPCPosi:

; 1435 : 		return;
; 1436 : 	}
; 1437 : 
; 1438 : 	if(Class == 383)

  0003f	3d 7f 01 00 00	 cmp	 eax, 383		; 0000017fH
  00044	75 19		 jne	 SHORT $LN2@SetNPCPosi

; 1439 : 	{
; 1440 : 		this->m_iYellowPedestalIndex = -1;
; 1441 : 		this->m_sYellowPedestalPosition = Position;

  00046	66 8b 45 0c	 mov	 ax, WORD PTR _Position$[ebp]
  0004a	c7 81 40 02 00
	00 ff ff ff ff	 mov	 DWORD PTR [ecx+576], -1
  00054	66 89 81 44 02
	00 00		 mov	 WORD PTR [ecx+580], ax

; 1449 : 		return;
; 1450 : 	}
; 1451 : }

  0005b	5d		 pop	 ebp
  0005c	c2 08 00	 ret	 8
$LN2@SetNPCPosi:

; 1442 : 		return;
; 1443 : 	}
; 1444 : 
; 1445 : 	if(Class == 384)

  0005f	3d 80 01 00 00	 cmp	 eax, 384		; 00000180H
  00064	75 15		 jne	 SHORT $LN1@SetNPCPosi

; 1446 : 	{
; 1447 : 		this->m_iBluePedestalIndex = -1;
; 1448 : 		this->m_sBluePedestalPosition = Position;

  00066	66 8b 55 0c	 mov	 dx, WORD PTR _Position$[ebp]
  0006a	c7 81 48 02 00
	00 ff ff ff ff	 mov	 DWORD PTR [ecx+584], -1
  00074	66 89 91 4c 02
	00 00		 mov	 WORD PTR [ecx+588], dx
$LN1@SetNPCPosi:

; 1449 : 		return;
; 1450 : 	}
; 1451 : }

  0007b	5d		 pop	 ebp
  0007c	c2 08 00	 ret	 8
?SetNPCPosition@CIllusionTempleProcess@@QAEXHH@Z ENDP	; CIllusionTempleProcess::SetNPCPosition
_TEXT	ENDS
PUBLIC	?SetMonsterPosition@CIllusionTempleProcess@@QAEXHH@Z ; CIllusionTempleProcess::SetMonsterPosition
; Function compile flags: /Ogtp
;	COMDAT ?SetMonsterPosition@CIllusionTempleProcess@@QAEXHH@Z
_TEXT	SEGMENT
_Class$ = 8						; size = 4
_Position$ = 12						; size = 4
?SetMonsterPosition@CIllusionTempleProcess@@QAEXHH@Z PROC ; CIllusionTempleProcess::SetMonsterPosition, COMDAT
; _this$ = ecx

; 1454 : {

  00000	55		 push	 ebp
  00001	8b ec		 mov	 ebp, esp

; 1455 : 	if(this->m_iMonsterCount > 40)

  00003	8b 81 c4 03 00
	00		 mov	 eax, DWORD PTR [ecx+964]
  00009	83 f8 28	 cmp	 eax, 40			; 00000028H
  0000c	7f 23		 jg	 SHORT $LN2@SetMonster

; 1456 : 	{
; 1457 : 		return;
; 1458 : 	}
; 1459 : 
; 1460 : 	this->m_MonsterData[this->m_iMonsterCount].m_iMonsterIndex = -1;
; 1461 : 	this->m_MonsterData[this->m_iMonsterCount].m_sMonsterPosition = (short)Position;

  0000e	66 8b 55 0c	 mov	 dx, WORD PTR _Position$[ebp]
  00012	c7 84 c1 50 02
	00 00 ff ff ff
	ff		 mov	 DWORD PTR [ecx+eax*8+592], -1
  0001d	8b 81 c4 03 00
	00		 mov	 eax, DWORD PTR [ecx+964]
  00023	66 89 94 c1 54
	02 00 00	 mov	 WORD PTR [ecx+eax*8+596], dx

; 1462 : 
; 1463 : 	this->m_iMonsterCount++;

  0002b	ff 81 c4 03 00
	00		 inc	 DWORD PTR [ecx+964]
$LN2@SetMonster:

; 1464 : }

  00031	5d		 pop	 ebp
  00032	c2 08 00	 ret	 8
?SetMonsterPosition@CIllusionTempleProcess@@QAEXHH@Z ENDP ; CIllusionTempleProcess::SetMonsterPosition
_TEXT	ENDS
PUBLIC	?ClearMonstersData@CIllusionTempleProcess@@QAEXXZ ; CIllusionTempleProcess::ClearMonstersData
; Function compile flags: /Ogtp
;	COMDAT ?ClearMonstersData@CIllusionTempleProcess@@QAEXXZ
_TEXT	SEGMENT
?ClearMonstersData@CIllusionTempleProcess@@QAEXXZ PROC	; CIllusionTempleProcess::ClearMonstersData, COMDAT
; _this$ = ecx

; 1467 : {

  00000	53		 push	 ebx
  00001	56		 push	 esi

; 1468 : 	int i;
; 1469 : 
; 1470 : 	for(i = 0; i< MAX_STATUE_MONSTER; i++)
; 1471 : 	{
; 1472 : 		this->m_StatueData[i].m_iStatueIndex = -1;

  00002	83 ce ff	 or	 esi, -1
  00005	89 b1 30 02 00
	00		 mov	 DWORD PTR [ecx+560], esi

; 1473 : 		this->m_StatueData[i].m_sStatuePosition = -1;

  0000b	8b c6		 mov	 eax, esi
  0000d	66 89 81 34 02
	00 00		 mov	 WORD PTR [ecx+564], ax
  00014	89 b1 38 02 00
	00		 mov	 DWORD PTR [ecx+568], esi
  0001a	8b d6		 mov	 edx, esi
  0001c	66 89 91 3c 02
	00 00		 mov	 WORD PTR [ecx+572], dx

; 1474 : 	}
; 1475 : 
; 1476 : 	this->m_iStatueCount = 0;
; 1477 : 	this->m_iYellowPedestalIndex = -1;
; 1478 : 	this->m_sYellowPedestalPosition = -1;

  00023	66 89 81 44 02
	00 00		 mov	 WORD PTR [ecx+580], ax

; 1479 : 	this->m_iBluePedestalIndex = -1;
; 1480 : 	this->m_sBluePedestalPosition = -1;

  0002a	66 89 91 4c 02
	00 00		 mov	 WORD PTR [ecx+588], dx
  00031	c7 81 c0 03 00
	00 00 00 00 00	 mov	 DWORD PTR [ecx+960], 0
  0003b	89 b1 40 02 00
	00		 mov	 DWORD PTR [ecx+576], esi
  00041	89 b1 48 02 00
	00		 mov	 DWORD PTR [ecx+584], esi
  00047	8d 81 54 02 00
	00		 lea	 eax, DWORD PTR [ecx+596]
  0004d	8d 56 29	 lea	 edx, DWORD PTR [esi+41]
$LL3@ClearMonst:

; 1481 : 
; 1482 : 	for(i = 0; i< MAX_FLOOR_MONSTER; i++)
; 1483 : 	{
; 1484 : 		this->m_MonsterData[i].m_iMonsterIndex = -1;
; 1485 : 		this->m_MonsterData[i].m_sMonsterPosition = -1;

  00050	8b de		 mov	 ebx, esi
  00052	89 70 fc	 mov	 DWORD PTR [eax-4], esi
  00055	66 89 18	 mov	 WORD PTR [eax], bx
  00058	83 c0 08	 add	 eax, 8
  0005b	4a		 dec	 edx
  0005c	75 f2		 jne	 SHORT $LL3@ClearMonst

; 1486 : 	}
; 1487 : 
; 1488 : 	this->m_iMonsterCount = 0;

  0005e	5e		 pop	 esi
  0005f	89 91 c4 03 00
	00		 mov	 DWORD PTR [ecx+964], edx
  00065	5b		 pop	 ebx

; 1489 : }

  00066	c3		 ret	 0
?ClearMonstersData@CIllusionTempleProcess@@QAEXXZ ENDP	; CIllusionTempleProcess::ClearMonstersData
_TEXT	ENDS
PUBLIC	??_C@_0CI@MMAPFAFM@?$FLIllusion?5Temple?$FN?5?$CI?$CFd?$CJ?5Add?5Statu@ ; `string'
PUBLIC	??_C@_0DP@JFMMMCDJ@?$FLIllusion?5Temple?$FN?5?$CI?$CFd?$CJ?5Create?5NP@ ; `string'
PUBLIC	?CreateNPCStatus@CIllusionTempleProcess@@QAEXXZ	; CIllusionTempleProcess::CreateNPCStatus
EXTRN	__imp__GetTickCount@0:PROC
EXTRN	?gObjSetMonster@@YAHHH@Z:PROC			; gObjSetMonster
EXTRN	?gObjSetPosMonster@@YAHHH@Z:PROC		; gObjSetPosMonster
EXTRN	?gObjAddMonster@@YAFH@Z:PROC			; gObjAddMonster
;	COMDAT ??_C@_0CI@MMAPFAFM@?$FLIllusion?5Temple?$FN?5?$CI?$CFd?$CJ?5Add?5Statu@
CONST	SEGMENT
??_C@_0CI@MMAPFAFM@?$FLIllusion?5Temple?$FN?5?$CI?$CFd?$CJ?5Add?5Statu@ DB '['
	DB	'Illusion Temple] (%d) Add Status Error', 00H ; `string'
CONST	ENDS
;	COMDAT ??_C@_0DP@JFMMMCDJ@?$FLIllusion?5Temple?$FN?5?$CI?$CFd?$CJ?5Create?5NP@
CONST	SEGMENT
??_C@_0DP@JFMMMCDJ@?$FLIllusion?5Temple?$FN?5?$CI?$CFd?$CJ?5Create?5NP@ DB '['
	DB	'Illusion Temple] (%d) Create NPC Status Name: %s, (%d: %d/%d)'
	DB	00H						; `string'
; Function compile flags: /Ogtp
CONST	ENDS
;	COMDAT ?CreateNPCStatus@CIllusionTempleProcess@@QAEXXZ
_TEXT	SEGMENT
_i$216409 = -8						; size = 4
tv292 = -4						; size = 4
?CreateNPCStatus@CIllusionTempleProcess@@QAEXXZ PROC	; CIllusionTempleProcess::CreateNPCStatus, COMDAT
; _this$ = ecx

; 1492 : {

  00000	55		 push	 ebp
  00001	8b ec		 mov	 ebp, esp
  00003	83 ec 08	 sub	 esp, 8
  00006	53		 push	 ebx
  00007	8b d9		 mov	 ebx, ecx

; 1493 : 	for( int i = 0; i < this->m_iStatueCount; i++)

  00009	83 bb c0 03 00
	00 00		 cmp	 DWORD PTR [ebx+960], 0
  00010	c7 45 f8 00 00
	00 00		 mov	 DWORD PTR _i$216409[ebp], 0
  00017	0f 8e 15 01 00
	00		 jle	 $LN3@CreateNPCS
  0001d	8d 83 30 02 00
	00		 lea	 eax, DWORD PTR [ebx+560]
  00023	56		 push	 esi
  00024	89 45 fc	 mov	 DWORD PTR tv292[ebp], eax
  00027	57		 push	 edi
  00028	eb 06 8d 9b 00
	00 00 00	 npad	 8
$LL10@CreateNPCS:

; 1494 : 	{
; 1495 : 		int loc3 = gObjAddMonster(this->m_btFloorIndex+MAP_INDEX_ILLUSIONTEMPLE);

  00030	0f b6 8b 2c 02
	00 00		 movzx	 ecx, BYTE PTR [ebx+556]
  00037	83 c1 2d	 add	 ecx, 45			; 0000002dH
  0003a	51		 push	 ecx
  0003b	e8 00 00 00 00	 call	 ?gObjAddMonster@@YAFH@Z	; gObjAddMonster
  00040	0f bf f8	 movsx	 edi, ax
  00043	83 c4 04	 add	 esp, 4

; 1496 : 
; 1497 : 		if(loc3 >= 0)

  00046	85 ff		 test	 edi, edi
  00048	0f 88 b4 00 00
	00		 js	 $LN2@CreateNPCS

; 1498 : 		{
; 1499 : 			::gObjSetPosMonster(loc3, this->m_StatueData[i].m_sStatuePosition);

  0004e	8b 55 fc	 mov	 edx, DWORD PTR tv292[ebp]
  00051	0f bf 42 04	 movsx	 eax, WORD PTR [edx+4]
  00055	50		 push	 eax
  00056	57		 push	 edi
  00057	e8 00 00 00 00	 call	 ?gObjSetPosMonster@@YAHHH@Z ; gObjSetPosMonster

; 1500 : 			::gObjSetMonster(loc3, 380);

  0005c	68 7c 01 00 00	 push	 380			; 0000017cH
  00061	57		 push	 edi
  00062	e8 00 00 00 00	 call	 ?gObjSetMonster@@YAHHH@Z ; gObjSetMonster

; 1501 : 			gObj[loc3].m_PosNum = -1;

  00067	8b 15 00 00 00
	00		 mov	 edx, DWORD PTR ?gObj@@3PAUOBJECTSTRUCT@@A ; gObj
  0006d	8b f7		 mov	 esi, edi
  0006f	69 f6 50 2b 00
	00		 imul	 esi, 11088		; 00002b50H
  00075	83 c9 ff	 or	 ecx, -1
  00078	66 89 8c 16 b0
	03 00 00	 mov	 WORD PTR [esi+edx+944], cx

; 1502 : 			gObj[loc3].Live = 0;

  00080	a1 00 00 00 00	 mov	 eax, DWORD PTR ?gObj@@3PAUOBJECTSTRUCT@@A ; gObj
  00085	c6 44 06 6a 00	 mov	 BYTE PTR [esi+eax+106], 0

; 1503 : 			gObj[loc3].DieRegen = 2;

  0008a	8b 0d 00 00 00
	00		 mov	 ecx, DWORD PTR ?gObj@@3PAUOBJECTSTRUCT@@A ; gObj
  00090	c6 84 0e a2 03
	00 00 02	 mov	 BYTE PTR [esi+ecx+930], 2

; 1504 : 			gObj[loc3].m_State = 4;

  00098	8b 15 00 00 00
	00		 mov	 edx, DWORD PTR ?gObj@@3PAUOBJECTSTRUCT@@A ; gObj
  0009e	83 c4 10	 add	 esp, 16			; 00000010H
  000a1	c7 84 16 20 02
	00 00 04 00 00
	00		 mov	 DWORD PTR [esi+edx+544], 4

; 1505 : 			gObj[loc3].RegenTime = GetTickCount();

  000ac	ff 15 00 00 00
	00		 call	 DWORD PTR __imp__GetTickCount@0
  000b2	8b 0d 00 00 00
	00		 mov	 ecx, DWORD PTR ?gObj@@3PAUOBJECTSTRUCT@@A ; gObj

; 1506 : 			this->m_StatueData[i].m_iStatueIndex = loc3;

  000b8	8b 55 fc	 mov	 edx, DWORD PTR tv292[ebp]
  000bb	89 84 0e a8 03
	00 00		 mov	 DWORD PTR [esi+ecx+936], eax
  000c2	89 3a		 mov	 DWORD PTR [edx], edi

; 1507 : 
; 1508 : 			LogAddTD("[Illusion Temple] (%d) Create NPC Status Name: %s, (%d: %d/%d)", this->m_btFloorIndex+1, gObj[loc3].Name, gObj[loc3].MapNumber, gObj[loc3].X, gObj[loc3].Y);

  000c4	a1 00 00 00 00	 mov	 eax, DWORD PTR ?gObj@@3PAUOBJECTSTRUCT@@A ; gObj
  000c9	0f bf 8c 06 46
	01 00 00	 movsx	 ecx, WORD PTR [esi+eax+326]
  000d1	0f bf 94 06 44
	01 00 00	 movsx	 edx, WORD PTR [esi+eax+324]
  000d9	51		 push	 ecx
  000da	0f b6 8c 06 49
	01 00 00	 movzx	 ecx, BYTE PTR [esi+eax+329]
  000e2	52		 push	 edx
  000e3	8d 54 06 77	 lea	 edx, DWORD PTR [esi+eax+119]
  000e7	0f b6 83 2c 02
	00 00		 movzx	 eax, BYTE PTR [ebx+556]
  000ee	51		 push	 ecx
  000ef	52		 push	 edx
  000f0	40		 inc	 eax
  000f1	50		 push	 eax
  000f2	68 00 00 00 00	 push	 OFFSET ??_C@_0DP@JFMMMCDJ@?$FLIllusion?5Temple?$FN?5?$CI?$CFd?$CJ?5Create?5NP@
  000f7	ff 15 00 00 00
	00		 call	 DWORD PTR ?LogAddTD@@3P6AXPADZZA ; LogAddTD
  000fd	83 c4 18	 add	 esp, 24			; 00000018H

; 1509 : 		}
; 1510 : 		else

  00100	eb 17		 jmp	 SHORT $LN4@CreateNPCS
$LN2@CreateNPCS:

; 1511 : 		{
; 1512 : 			LogAddTD("[Illusion Temple] (%d) Add Status Error", this->m_btFloorIndex+1);

  00102	0f b6 8b 2c 02
	00 00		 movzx	 ecx, BYTE PTR [ebx+556]
  00109	41		 inc	 ecx
  0010a	51		 push	 ecx
  0010b	68 00 00 00 00	 push	 OFFSET ??_C@_0CI@MMAPFAFM@?$FLIllusion?5Temple?$FN?5?$CI?$CFd?$CJ?5Add?5Statu@
  00110	ff 15 00 00 00
	00		 call	 DWORD PTR ?LogAddTD@@3P6AXPADZZA ; LogAddTD
  00116	83 c4 08	 add	 esp, 8
$LN4@CreateNPCS:

; 1493 : 	for( int i = 0; i < this->m_iStatueCount; i++)

  00119	8b 45 f8	 mov	 eax, DWORD PTR _i$216409[ebp]
  0011c	83 45 fc 08	 add	 DWORD PTR tv292[ebp], 8
  00120	40		 inc	 eax
  00121	89 45 f8	 mov	 DWORD PTR _i$216409[ebp], eax
  00124	3b 83 c0 03 00
	00		 cmp	 eax, DWORD PTR [ebx+960]
  0012a	0f 8c 00 ff ff
	ff		 jl	 $LL10@CreateNPCS
  00130	5f		 pop	 edi
  00131	5e		 pop	 esi
$LN3@CreateNPCS:
  00132	5b		 pop	 ebx

; 1513 : 		}
; 1514 : 	}
; 1515 : }

  00133	8b e5		 mov	 esp, ebp
  00135	5d		 pop	 ebp
  00136	c3		 ret	 0
?CreateNPCStatus@CIllusionTempleProcess@@QAEXXZ ENDP	; CIllusionTempleProcess::CreateNPCStatus
_TEXT	ENDS
PUBLIC	??_C@_0DD@CJHIKDCG@?$FLIllusion?5Temple?$FN?5?$CI?$CFd?$CJ?5Add?5Illus@ ; `string'
PUBLIC	??_C@_0EK@PBPNIPFI@?$FLIllusion?5Temple?$FN?5?$CI?$CFd?$CJ?5Create?5NP@ ; `string'
PUBLIC	??_C@_0DB@DDAFNEAA@?$FLIllusion?5Temple?$FN?5?$CI?$CFd?$CJ?5Add?5Allie@ ; `string'
PUBLIC	??_C@_0EI@FFEIEJHB@?$FLIllusion?5Temple?$FN?5?$CI?$CFd?$CJ?5Create?5NP@ ; `string'
PUBLIC	?CreateNPC@CIllusionTempleProcess@@QAEXXZ	; CIllusionTempleProcess::CreateNPC
;	COMDAT ??_C@_0DD@CJHIKDCG@?$FLIllusion?5Temple?$FN?5?$CI?$CFd?$CJ?5Add?5Illus@
CONST	SEGMENT
??_C@_0DD@CJHIKDCG@?$FLIllusion?5Temple?$FN?5?$CI?$CFd?$CJ?5Add?5Illus@ DB '['
	DB	'Illusion Temple] (%d) Add IllusionRelicsBox Error', 00H ; `string'
CONST	ENDS
;	COMDAT ??_C@_0EK@PBPNIPFI@?$FLIllusion?5Temple?$FN?5?$CI?$CFd?$CJ?5Create?5NP@
CONST	SEGMENT
??_C@_0EK@PBPNIPFI@?$FLIllusion?5Temple?$FN?5?$CI?$CFd?$CJ?5Create?5NP@ DB '['
	DB	'Illusion Temple] (%d) Create NPC IllusionRelicsBox Name: %s, '
	DB	'(%d: %d/%d)', 00H				; `string'
CONST	ENDS
;	COMDAT ??_C@_0DB@DDAFNEAA@?$FLIllusion?5Temple?$FN?5?$CI?$CFd?$CJ?5Add?5Allie@
CONST	SEGMENT
??_C@_0DB@DDAFNEAA@?$FLIllusion?5Temple?$FN?5?$CI?$CFd?$CJ?5Add?5Allie@ DB '['
	DB	'Illusion Temple] (%d) Add AlliedRelicsBox Error', 00H ; `string'
CONST	ENDS
;	COMDAT ??_C@_0EI@FFEIEJHB@?$FLIllusion?5Temple?$FN?5?$CI?$CFd?$CJ?5Create?5NP@
CONST	SEGMENT
??_C@_0EI@FFEIEJHB@?$FLIllusion?5Temple?$FN?5?$CI?$CFd?$CJ?5Create?5NP@ DB '['
	DB	'Illusion Temple] (%d) Create NPC AlliedRelicsBox Name: %s, (%'
	DB	'd: %d/%d)', 00H				; `string'
; Function compile flags: /Ogtp
CONST	ENDS
;	COMDAT ?CreateNPC@CIllusionTempleProcess@@QAEXXZ
_TEXT	SEGMENT
?CreateNPC@CIllusionTempleProcess@@QAEXXZ PROC		; CIllusionTempleProcess::CreateNPC, COMDAT
; _this$ = ecx

; 1518 : {

  00000	53		 push	 ebx
  00001	56		 push	 esi
  00002	8b f1		 mov	 esi, ecx

; 1519 : 	int loc2;
; 1520 : 
; 1521 : 	loc2 = gObjAddMonster(this->m_btFloorIndex+MAP_INDEX_ILLUSIONTEMPLE);

  00004	0f b6 86 2c 02
	00 00		 movzx	 eax, BYTE PTR [esi+556]
  0000b	83 c0 2d	 add	 eax, 45			; 0000002dH
  0000e	57		 push	 edi
  0000f	50		 push	 eax
  00010	e8 00 00 00 00	 call	 ?gObjAddMonster@@YAFH@Z	; gObjAddMonster
  00015	0f bf f8	 movsx	 edi, ax
  00018	83 c4 04	 add	 esp, 4

; 1522 : 
; 1523 : 	if(loc2 >= 0)

  0001b	85 ff		 test	 edi, edi
  0001d	0f 88 af 00 00
	00		 js	 $LN4@CreateNPC

; 1524 : 	{
; 1525 : 		::gObjSetPosMonster(loc2, this->m_sYellowPedestalPosition);

  00023	0f bf 8e 44 02
	00 00		 movsx	 ecx, WORD PTR [esi+580]
  0002a	51		 push	 ecx
  0002b	57		 push	 edi
  0002c	e8 00 00 00 00	 call	 ?gObjSetPosMonster@@YAHHH@Z ; gObjSetPosMonster

; 1526 : 		::gObjSetMonster(loc2, 383);

  00031	68 7f 01 00 00	 push	 383			; 0000017fH
  00036	57		 push	 edi
  00037	e8 00 00 00 00	 call	 ?gObjSetMonster@@YAHHH@Z ; gObjSetMonster

; 1527 : 		gObj[loc2].Dir = 1;

  0003c	8b 15 00 00 00
	00		 mov	 edx, DWORD PTR ?gObj@@3PAUOBJECTSTRUCT@@A ; gObj
  00042	8b c7		 mov	 eax, edi
  00044	69 c0 50 2b 00
	00		 imul	 eax, 11088		; 00002b50H
  0004a	bb 01 00 00 00	 mov	 ebx, 1
  0004f	88 9c 10 48 01
	00 00		 mov	 BYTE PTR [eax+edx+328], bl

; 1528 : 		gObj[loc2].m_PosNum = -1;

  00056	8b 15 00 00 00
	00		 mov	 edx, DWORD PTR ?gObj@@3PAUOBJECTSTRUCT@@A ; gObj
  0005c	83 c9 ff	 or	 ecx, -1
  0005f	66 89 8c 10 b0
	03 00 00	 mov	 WORD PTR [eax+edx+944], cx

; 1529 : 		gObj[loc2].Live = 1;

  00067	8b 0d 00 00 00
	00		 mov	 ecx, DWORD PTR ?gObj@@3PAUOBJECTSTRUCT@@A ; gObj
  0006d	88 5c 08 6a	 mov	 BYTE PTR [eax+ecx+106], bl

; 1530 : 		gObj[loc2].DieRegen = 0;

  00071	8b 15 00 00 00
	00		 mov	 edx, DWORD PTR ?gObj@@3PAUOBJECTSTRUCT@@A ; gObj
  00077	c6 84 10 a2 03
	00 00 00	 mov	 BYTE PTR [eax+edx+930], 0

; 1531 : 		gObj[loc2].m_State = 1;

  0007f	8b 0d 00 00 00
	00		 mov	 ecx, DWORD PTR ?gObj@@3PAUOBJECTSTRUCT@@A ; gObj
  00085	89 9c 08 20 02
	00 00		 mov	 DWORD PTR [eax+ecx+544], ebx

; 1532 : 		this->m_iYellowPedestalIndex = loc2;

  0008c	89 be 40 02 00
	00		 mov	 DWORD PTR [esi+576], edi

; 1533 : 
; 1534 : 		LogAddTD("[Illusion Temple] (%d) Create NPC AlliedRelicsBox Name: %s, (%d: %d/%d)", this->m_btFloorIndex+1, gObj[loc2].Name, gObj[loc2].MapNumber, gObj[loc2].X, gObj[loc2].Y);

  00092	8b 0d 00 00 00
	00		 mov	 ecx, DWORD PTR ?gObj@@3PAUOBJECTSTRUCT@@A ; gObj
  00098	0f bf 94 08 46
	01 00 00	 movsx	 edx, WORD PTR [eax+ecx+326]
  000a0	52		 push	 edx
  000a1	0f bf 94 08 44
	01 00 00	 movsx	 edx, WORD PTR [eax+ecx+324]
  000a9	52		 push	 edx
  000aa	0f b6 94 08 49
	01 00 00	 movzx	 edx, BYTE PTR [eax+ecx+329]
  000b2	8d 44 08 77	 lea	 eax, DWORD PTR [eax+ecx+119]
  000b6	0f b6 8e 2c 02
	00 00		 movzx	 ecx, BYTE PTR [esi+556]
  000bd	52		 push	 edx
  000be	50		 push	 eax
  000bf	03 cb		 add	 ecx, ebx
  000c1	51		 push	 ecx
  000c2	68 00 00 00 00	 push	 OFFSET ??_C@_0EI@FFEIEJHB@?$FLIllusion?5Temple?$FN?5?$CI?$CFd?$CJ?5Create?5NP@
  000c7	ff 15 00 00 00
	00		 call	 DWORD PTR ?LogAddTD@@3P6AXPADZZA ; LogAddTD
  000cd	83 c4 28	 add	 esp, 40			; 00000028H

; 1535 : 	}
; 1536 : 	else

  000d0	eb 1d		 jmp	 SHORT $LN3@CreateNPC
$LN4@CreateNPC:

; 1537 : 	{
; 1538 : 		LogAddTD("[Illusion Temple] (%d) Add AlliedRelicsBox Error", this->m_btFloorIndex+1);

  000d2	0f b6 96 2c 02
	00 00		 movzx	 edx, BYTE PTR [esi+556]
  000d9	bb 01 00 00 00	 mov	 ebx, 1
  000de	03 d3		 add	 edx, ebx
  000e0	52		 push	 edx
  000e1	68 00 00 00 00	 push	 OFFSET ??_C@_0DB@DDAFNEAA@?$FLIllusion?5Temple?$FN?5?$CI?$CFd?$CJ?5Add?5Allie@
  000e6	ff 15 00 00 00
	00		 call	 DWORD PTR ?LogAddTD@@3P6AXPADZZA ; LogAddTD
  000ec	83 c4 08	 add	 esp, 8
$LN3@CreateNPC:

; 1539 : 	}
; 1540 : 
; 1541 : 	loc2 = gObjAddMonster(this->m_btFloorIndex+MAP_INDEX_ILLUSIONTEMPLE);

  000ef	0f b6 86 2c 02
	00 00		 movzx	 eax, BYTE PTR [esi+556]
  000f6	83 c0 2d	 add	 eax, 45			; 0000002dH
  000f9	50		 push	 eax
  000fa	e8 00 00 00 00	 call	 ?gObjAddMonster@@YAFH@Z	; gObjAddMonster
  000ff	0f bf f8	 movsx	 edi, ax
  00102	83 c4 04	 add	 esp, 4

; 1542 : 
; 1543 : 	if(loc2 >= 0)

  00105	85 ff		 test	 edi, edi
  00107	0f 88 ac 00 00
	00		 js	 $LN2@CreateNPC

; 1544 : 	{
; 1545 : 		::gObjSetPosMonster(loc2, this->m_sBluePedestalPosition);

  0010d	0f bf 8e 4c 02
	00 00		 movsx	 ecx, WORD PTR [esi+588]
  00114	51		 push	 ecx
  00115	57		 push	 edi
  00116	e8 00 00 00 00	 call	 ?gObjSetPosMonster@@YAHHH@Z ; gObjSetPosMonster

; 1546 : 		::gObjSetMonster(loc2, 384);

  0011b	68 80 01 00 00	 push	 384			; 00000180H
  00120	57		 push	 edi
  00121	e8 00 00 00 00	 call	 ?gObjSetMonster@@YAHHH@Z ; gObjSetMonster

; 1547 : 		gObj[loc2].Dir = 1;

  00126	8b 15 00 00 00
	00		 mov	 edx, DWORD PTR ?gObj@@3PAUOBJECTSTRUCT@@A ; gObj
  0012c	8b c7		 mov	 eax, edi
  0012e	69 c0 50 2b 00
	00		 imul	 eax, 11088		; 00002b50H
  00134	88 9c 10 48 01
	00 00		 mov	 BYTE PTR [eax+edx+328], bl

; 1548 : 		gObj[loc2].m_PosNum = -1;

  0013b	8b 15 00 00 00
	00		 mov	 edx, DWORD PTR ?gObj@@3PAUOBJECTSTRUCT@@A ; gObj
  00141	83 c9 ff	 or	 ecx, -1
  00144	66 89 8c 10 b0
	03 00 00	 mov	 WORD PTR [eax+edx+944], cx

; 1549 : 		gObj[loc2].Live = 1;

  0014c	8b 0d 00 00 00
	00		 mov	 ecx, DWORD PTR ?gObj@@3PAUOBJECTSTRUCT@@A ; gObj
  00152	88 5c 08 6a	 mov	 BYTE PTR [eax+ecx+106], bl

; 1550 : 		gObj[loc2].DieRegen = 0;

  00156	8b 15 00 00 00
	00		 mov	 edx, DWORD PTR ?gObj@@3PAUOBJECTSTRUCT@@A ; gObj
  0015c	c6 84 10 a2 03
	00 00 00	 mov	 BYTE PTR [eax+edx+930], 0

; 1551 : 		gObj[loc2].m_State = 1;

  00164	8b 0d 00 00 00
	00		 mov	 ecx, DWORD PTR ?gObj@@3PAUOBJECTSTRUCT@@A ; gObj
  0016a	89 9c 08 20 02
	00 00		 mov	 DWORD PTR [eax+ecx+544], ebx

; 1552 : 		this->m_iBluePedestalIndex = loc2;

  00171	89 be 48 02 00
	00		 mov	 DWORD PTR [esi+584], edi

; 1553 : 
; 1554 : 		LogAddTD("[Illusion Temple] (%d) Create NPC IllusionRelicsBox Name: %s, (%d: %d/%d)", this->m_btFloorIndex+1, gObj[loc2].Name, gObj[loc2].MapNumber, gObj[loc2].X, gObj[loc2].Y);

  00177	8b 0d 00 00 00
	00		 mov	 ecx, DWORD PTR ?gObj@@3PAUOBJECTSTRUCT@@A ; gObj
  0017d	0f bf 94 08 46
	01 00 00	 movsx	 edx, WORD PTR [eax+ecx+326]
  00185	52		 push	 edx
  00186	0f bf 94 08 44
	01 00 00	 movsx	 edx, WORD PTR [eax+ecx+324]
  0018e	52		 push	 edx
  0018f	0f b6 94 08 49
	01 00 00	 movzx	 edx, BYTE PTR [eax+ecx+329]
  00197	8d 44 08 77	 lea	 eax, DWORD PTR [eax+ecx+119]
  0019b	0f b6 8e 2c 02
	00 00		 movzx	 ecx, BYTE PTR [esi+556]
  001a2	52		 push	 edx
  001a3	50		 push	 eax
  001a4	03 cb		 add	 ecx, ebx
  001a6	51		 push	 ecx
  001a7	68 00 00 00 00	 push	 OFFSET ??_C@_0EK@PBPNIPFI@?$FLIllusion?5Temple?$FN?5?$CI?$CFd?$CJ?5Create?5NP@
  001ac	ff 15 00 00 00
	00		 call	 DWORD PTR ?LogAddTD@@3P6AXPADZZA ; LogAddTD
  001b2	83 c4 28	 add	 esp, 40			; 00000028H
  001b5	5f		 pop	 edi
  001b6	5e		 pop	 esi
  001b7	5b		 pop	 ebx

; 1559 : 	}
; 1560 : }

  001b8	c3		 ret	 0
$LN2@CreateNPC:

; 1555 : 	}
; 1556 : 	else
; 1557 : 	{
; 1558 : 		LogAddTD("[Illusion Temple] (%d) Add IllusionRelicsBox Error", this->m_btFloorIndex+1);

  001b9	0f b6 96 2c 02
	00 00		 movzx	 edx, BYTE PTR [esi+556]
  001c0	03 d3		 add	 edx, ebx
  001c2	52		 push	 edx
  001c3	68 00 00 00 00	 push	 OFFSET ??_C@_0DD@CJHIKDCG@?$FLIllusion?5Temple?$FN?5?$CI?$CFd?$CJ?5Add?5Illus@
  001c8	ff 15 00 00 00
	00		 call	 DWORD PTR ?LogAddTD@@3P6AXPADZZA ; LogAddTD
  001ce	83 c4 08	 add	 esp, 8
  001d1	5f		 pop	 edi
  001d2	5e		 pop	 esi
  001d3	5b		 pop	 ebx

; 1559 : 	}
; 1560 : }

  001d4	c3		 ret	 0
?CreateNPC@CIllusionTempleProcess@@QAEXXZ ENDP		; CIllusionTempleProcess::CreateNPC
_TEXT	ENDS
PUBLIC	??_C@_0CJ@ILDHLMNE@?$FLIllusion?5Temple?$FN?5?$CI?$CFd?$CJ?5Add?5Monst@ ; `string'
PUBLIC	?CreateMonsterToBattle@CIllusionTempleProcess@@QAEXXZ ; CIllusionTempleProcess::CreateMonsterToBattle
EXTRN	?gMSetBase@@3VCMonsterSetBase@@A:BYTE		; gMSetBase
;	COMDAT ??_C@_0CJ@ILDHLMNE@?$FLIllusion?5Temple?$FN?5?$CI?$CFd?$CJ?5Add?5Monst@
CONST	SEGMENT
??_C@_0CJ@ILDHLMNE@?$FLIllusion?5Temple?$FN?5?$CI?$CFd?$CJ?5Add?5Monst@ DB '['
	DB	'Illusion Temple] (%d) Add Monster Error', 00H ; `string'
; Function compile flags: /Ogtp
CONST	ENDS
;	COMDAT ?CreateMonsterToBattle@CIllusionTempleProcess@@QAEXXZ
_TEXT	SEGMENT
_this$ = -8						; size = 4
_i$216433 = -4						; size = 4
?CreateMonsterToBattle@CIllusionTempleProcess@@QAEXXZ PROC ; CIllusionTempleProcess::CreateMonsterToBattle, COMDAT
; _this$ = ecx

; 1563 : {

  00000	55		 push	 ebp
  00001	8b ec		 mov	 ebp, esp
  00003	83 ec 08	 sub	 esp, 8
  00006	56		 push	 esi
  00007	8b f1		 mov	 esi, ecx

; 1564 : 	for( int i = 0; i < this->m_iMonsterCount; i++)

  00009	83 be c4 03 00
	00 00		 cmp	 DWORD PTR [esi+964], 0
  00010	89 75 f8	 mov	 DWORD PTR _this$[ebp], esi
  00013	c7 45 fc 00 00
	00 00		 mov	 DWORD PTR _i$216433[ebp], 0
  0001a	0f 8e e8 00 00
	00		 jle	 $LN3@CreateMons
  00020	53		 push	 ebx
  00021	57		 push	 edi
  00022	8d 9e 54 02 00
	00		 lea	 ebx, DWORD PTR [esi+596]
  00028	eb 06 8d 9b 00
	00 00 00	 npad	 8
$LL5@CreateMons:

; 1565 : 	{
; 1566 : 		int loc3 = gObjAddMonster(this->m_btFloorIndex+MAP_INDEX_ILLUSIONTEMPLE);

  00030	0f b6 86 2c 02
	00 00		 movzx	 eax, BYTE PTR [esi+556]
  00037	83 c0 2d	 add	 eax, 45			; 0000002dH
  0003a	50		 push	 eax
  0003b	e8 00 00 00 00	 call	 ?gObjAddMonster@@YAFH@Z	; gObjAddMonster
  00040	0f bf f8	 movsx	 edi, ax
  00043	83 c4 04	 add	 esp, 4

; 1567 : 
; 1568 : 		if(loc3 >= 0)

  00046	85 ff		 test	 edi, edi
  00048	0f 88 8b 00 00
	00		 js	 $LN2@CreateMons

; 1569 : 		{
; 1570 : 			::gObjSetPosMonster(loc3, this->m_MonsterData[i].m_sMonsterPosition);

  0004e	0f bf 0b	 movsx	 ecx, WORD PTR [ebx]
  00051	51		 push	 ecx
  00052	57		 push	 edi
  00053	e8 00 00 00 00	 call	 ?gObjSetPosMonster@@YAHHH@Z ; gObjSetPosMonster

; 1571 : 			::gObjSetMonster(loc3, gMSetBase.m_Mp[this->m_MonsterData[i].m_sMonsterPosition].m_Type);

  00058	0f bf 13	 movsx	 edx, WORD PTR [ebx]
  0005b	c1 e2 04	 shl	 edx, 4
  0005e	0f b7 82 06 00
	00 00		 movzx	 eax, WORD PTR ?gMSetBase@@3VCMonsterSetBase@@A[edx+6]
  00065	50		 push	 eax
  00066	57		 push	 edi
  00067	e8 00 00 00 00	 call	 ?gObjSetMonster@@YAHHH@Z ; gObjSetMonster

; 1572 : 			gObj[loc3].Dir = 1;

  0006c	8b 0d 00 00 00
	00		 mov	 ecx, DWORD PTR ?gObj@@3PAUOBJECTSTRUCT@@A ; gObj
  00072	8b f7		 mov	 esi, edi
  00074	69 f6 50 2b 00
	00		 imul	 esi, 11088		; 00002b50H
  0007a	c6 84 0e 48 01
	00 00 01	 mov	 BYTE PTR [esi+ecx+328], 1

; 1573 : 			gObj[loc3].m_PosNum = -1;

  00082	a1 00 00 00 00	 mov	 eax, DWORD PTR ?gObj@@3PAUOBJECTSTRUCT@@A ; gObj
  00087	83 ca ff	 or	 edx, -1
  0008a	66 89 94 06 b0
	03 00 00	 mov	 WORD PTR [esi+eax+944], dx

; 1574 : 			gObj[loc3].Live = 0;

  00092	8b 0d 00 00 00
	00		 mov	 ecx, DWORD PTR ?gObj@@3PAUOBJECTSTRUCT@@A ; gObj
  00098	c6 44 0e 6a 00	 mov	 BYTE PTR [esi+ecx+106], 0

; 1575 : 			gObj[loc3].DieRegen = 0;

  0009d	8b 15 00 00 00
	00		 mov	 edx, DWORD PTR ?gObj@@3PAUOBJECTSTRUCT@@A ; gObj
  000a3	c6 84 16 a2 03
	00 00 00	 mov	 BYTE PTR [esi+edx+930], 0

; 1576 : 			gObj[loc3].m_State = 4;

  000ab	a1 00 00 00 00	 mov	 eax, DWORD PTR ?gObj@@3PAUOBJECTSTRUCT@@A ; gObj
  000b0	83 c4 10	 add	 esp, 16			; 00000010H
  000b3	c7 84 06 20 02
	00 00 04 00 00
	00		 mov	 DWORD PTR [esi+eax+544], 4

; 1577 : 			gObj[loc3].RegenTime = GetTickCount();

  000be	ff 15 00 00 00
	00		 call	 DWORD PTR __imp__GetTickCount@0
  000c4	8b 0d 00 00 00
	00		 mov	 ecx, DWORD PTR ?gObj@@3PAUOBJECTSTRUCT@@A ; gObj
  000ca	89 84 0e a8 03
	00 00		 mov	 DWORD PTR [esi+ecx+936], eax

; 1578 : 			this->m_MonsterData[i].m_iMonsterIndex = loc3;
; 1579 : 		}
; 1580 : 		else

  000d1	8b 75 f8	 mov	 esi, DWORD PTR _this$[ebp]
  000d4	89 7b fc	 mov	 DWORD PTR [ebx-4], edi
  000d7	eb 17		 jmp	 SHORT $LN4@CreateMons
$LN2@CreateMons:

; 1581 : 		{
; 1582 : 			LogAddTD("[Illusion Temple] (%d) Add Monster Error", this->m_btFloorIndex+1);

  000d9	0f b6 96 2c 02
	00 00		 movzx	 edx, BYTE PTR [esi+556]
  000e0	42		 inc	 edx
  000e1	52		 push	 edx
  000e2	68 00 00 00 00	 push	 OFFSET ??_C@_0CJ@ILDHLMNE@?$FLIllusion?5Temple?$FN?5?$CI?$CFd?$CJ?5Add?5Monst@
  000e7	ff 15 00 00 00
	00		 call	 DWORD PTR ?LogAddTD@@3P6AXPADZZA ; LogAddTD
  000ed	83 c4 08	 add	 esp, 8
$LN4@CreateMons:

; 1564 : 	for( int i = 0; i < this->m_iMonsterCount; i++)

  000f0	8b 45 fc	 mov	 eax, DWORD PTR _i$216433[ebp]
  000f3	40		 inc	 eax
  000f4	83 c3 08	 add	 ebx, 8
  000f7	89 45 fc	 mov	 DWORD PTR _i$216433[ebp], eax
  000fa	3b 86 c4 03 00
	00		 cmp	 eax, DWORD PTR [esi+964]
  00100	0f 8c 2a ff ff
	ff		 jl	 $LL5@CreateMons
  00106	5f		 pop	 edi
  00107	5b		 pop	 ebx
$LN3@CreateMons:
  00108	5e		 pop	 esi

; 1583 : 		}
; 1584 : 	}
; 1585 : }

  00109	8b e5		 mov	 esp, ebp
  0010b	5d		 pop	 ebp
  0010c	c3		 ret	 0
?CreateMonsterToBattle@CIllusionTempleProcess@@QAEXXZ ENDP ; CIllusionTempleProcess::CreateMonsterToBattle
_TEXT	ENDS
PUBLIC	??_C@_0CJ@NGMJKIGG@?$FLIllusion?5Temple?$FN?5?$CI?$CFd?$CJ?5Remove?5Al@ ; `string'
PUBLIC	??_C@_0EF@COBKKPEE@?$FLIllusion?5Temple?$FN?5?$CI?$CFd?$CJ?5RemoveIll@ ; `string'
PUBLIC	??_C@_0ED@JCDEDHOA@?$FLIllusion?5Temple?$FN?5?$CI?$CFd?$CJ?5RemoveAll@ ; `string'
PUBLIC	??_C@_0DK@GOBHOKIP@?$FLIllusion?5Temple?$FN?5?$CI?$CFd?$CJ?5RemoveSta@ ; `string'
PUBLIC	?ClearAllBattleObjects@CIllusionTempleProcess@@QAEXXZ ; CIllusionTempleProcess::ClearAllBattleObjects
EXTRN	?gObjDel@@YAFH@Z:PROC				; gObjDel
;	COMDAT ??_C@_0CJ@NGMJKIGG@?$FLIllusion?5Temple?$FN?5?$CI?$CFd?$CJ?5Remove?5Al@
CONST	SEGMENT
??_C@_0CJ@NGMJKIGG@?$FLIllusion?5Temple?$FN?5?$CI?$CFd?$CJ?5Remove?5Al@ DB '['
	DB	'Illusion Temple] (%d) Remove All Object', 00H ; `string'
CONST	ENDS
;	COMDAT ??_C@_0EF@COBKKPEE@?$FLIllusion?5Temple?$FN?5?$CI?$CFd?$CJ?5RemoveIll@
CONST	SEGMENT
??_C@_0EF@COBKKPEE@?$FLIllusion?5Temple?$FN?5?$CI?$CFd?$CJ?5RemoveIll@ DB '['
	DB	'Illusion Temple] (%d) RemoveIllusionRelicsBox Name: %s, (%d: '
	DB	'%d/%d)', 00H				; `string'
CONST	ENDS
;	COMDAT ??_C@_0ED@JCDEDHOA@?$FLIllusion?5Temple?$FN?5?$CI?$CFd?$CJ?5RemoveAll@
CONST	SEGMENT
??_C@_0ED@JCDEDHOA@?$FLIllusion?5Temple?$FN?5?$CI?$CFd?$CJ?5RemoveAll@ DB '['
	DB	'Illusion Temple] (%d) RemoveAlliedRelicsBox Name: %s, (%d: %d'
	DB	'/%d)', 00H					; `string'
CONST	ENDS
;	COMDAT ??_C@_0DK@GOBHOKIP@?$FLIllusion?5Temple?$FN?5?$CI?$CFd?$CJ?5RemoveSta@
CONST	SEGMENT
??_C@_0DK@GOBHOKIP@?$FLIllusion?5Temple?$FN?5?$CI?$CFd?$CJ?5RemoveSta@ DB '['
	DB	'Illusion Temple] (%d) RemoveStatus Name: %s, (%d: %d/%d)', 00H ; `string'
; Function compile flags: /Ogtp
CONST	ENDS
;	COMDAT ?ClearAllBattleObjects@CIllusionTempleProcess@@QAEXXZ
_TEXT	SEGMENT
?ClearAllBattleObjects@CIllusionTempleProcess@@QAEXXZ PROC ; CIllusionTempleProcess::ClearAllBattleObjects, COMDAT
; _this$ = ecx

; 1588 : {

  00000	53		 push	 ebx
  00001	56		 push	 esi
  00002	8b f1		 mov	 esi, ecx

; 1589 : 	int i;
; 1590 : 
; 1591 : 	for(i = 0; i < this->m_iStatueCount; i++)

  00004	33 db		 xor	 ebx, ebx
  00006	57		 push	 edi
  00007	39 9e c0 03 00
	00		 cmp	 DWORD PTR [esi+960], ebx
  0000d	7e 66		 jle	 SHORT $LN18@ClearAllBa
  0000f	8d be 30 02 00
	00		 lea	 edi, DWORD PTR [esi+560]
$LL10@ClearAllBa:

; 1592 : 	{
; 1593 : 		if(this->m_StatueData[i].m_iStatueIndex != -1)

  00015	8b 07		 mov	 eax, DWORD PTR [edi]
  00017	83 f8 ff	 cmp	 eax, -1
  0001a	74 4d		 je	 SHORT $LN9@ClearAllBa

; 1594 : 		{
; 1595 : 			LogAddTD("[Illusion Temple] (%d) RemoveStatus Name: %s, (%d: %d/%d)",this->m_btFloorIndex+1, gObj[this->m_StatueData[i].m_iStatueIndex].Name, gObj[this->m_StatueData[i].m_iStatueIndex].MapNumber, gObj[this->m_StatueData[i].m_iStatueIndex].X, gObj[this->m_StatueData[i].m_iStatueIndex].Y);

  0001c	69 c0 50 2b 00
	00		 imul	 eax, 11088		; 00002b50H
  00022	03 05 00 00 00
	00		 add	 eax, DWORD PTR ?gObj@@3PAUOBJECTSTRUCT@@A ; gObj
  00028	0f bf 90 46 01
	00 00		 movsx	 edx, WORD PTR [eax+326]
  0002f	0f bf 88 44 01
	00 00		 movsx	 ecx, WORD PTR [eax+324]
  00036	52		 push	 edx
  00037	0f b6 90 49 01
	00 00		 movzx	 edx, BYTE PTR [eax+329]
  0003e	51		 push	 ecx
  0003f	52		 push	 edx
  00040	83 c0 77	 add	 eax, 119		; 00000077H
  00043	50		 push	 eax
  00044	0f b6 86 2c 02
	00 00		 movzx	 eax, BYTE PTR [esi+556]
  0004b	40		 inc	 eax
  0004c	50		 push	 eax
  0004d	68 00 00 00 00	 push	 OFFSET ??_C@_0DK@GOBHOKIP@?$FLIllusion?5Temple?$FN?5?$CI?$CFd?$CJ?5RemoveSta@
  00052	ff 15 00 00 00
	00		 call	 DWORD PTR ?LogAddTD@@3P6AXPADZZA ; LogAddTD

; 1596 : 			gObjDel(this->m_StatueData[i].m_iStatueIndex);

  00058	8b 0f		 mov	 ecx, DWORD PTR [edi]
  0005a	51		 push	 ecx
  0005b	e8 00 00 00 00	 call	 ?gObjDel@@YAFH@Z	; gObjDel
  00060	83 c4 1c	 add	 esp, 28			; 0000001cH

; 1597 : 			this->m_StatueData[i].m_iStatueIndex = -1;

  00063	c7 07 ff ff ff
	ff		 mov	 DWORD PTR [edi], -1
$LN9@ClearAllBa:

; 1589 : 	int i;
; 1590 : 
; 1591 : 	for(i = 0; i < this->m_iStatueCount; i++)

  00069	43		 inc	 ebx
  0006a	83 c7 08	 add	 edi, 8
  0006d	3b 9e c0 03 00
	00		 cmp	 ebx, DWORD PTR [esi+960]
  00073	7c a0		 jl	 SHORT $LL10@ClearAllBa
$LN18@ClearAllBa:

; 1598 : 		}
; 1599 : 	}
; 1600 : 
; 1601 : 	if(this->m_iYellowPedestalIndex != -1)

  00075	8b 86 40 02 00
	00		 mov	 eax, DWORD PTR [esi+576]
  0007b	83 f8 ff	 cmp	 eax, -1
  0007e	74 55		 je	 SHORT $LN19@ClearAllBa

; 1602 : 	{
; 1603 : 		LogAddTD("[Illusion Temple] (%d) RemoveAlliedRelicsBox Name: %s, (%d: %d/%d)",this->m_btFloorIndex+1, gObj[this->m_iYellowPedestalIndex].Name, gObj[this->m_iYellowPedestalIndex].MapNumber, gObj[this->m_iYellowPedestalIndex].X, gObj[this->m_iYellowPedestalIndex].Y);

  00080	69 c0 50 2b 00
	00		 imul	 eax, 11088		; 00002b50H
  00086	03 05 00 00 00
	00		 add	 eax, DWORD PTR ?gObj@@3PAUOBJECTSTRUCT@@A ; gObj
  0008c	0f bf 88 46 01
	00 00		 movsx	 ecx, WORD PTR [eax+326]
  00093	0f bf 90 44 01
	00 00		 movsx	 edx, WORD PTR [eax+324]
  0009a	51		 push	 ecx
  0009b	0f b6 88 49 01
	00 00		 movzx	 ecx, BYTE PTR [eax+329]
  000a2	52		 push	 edx
  000a3	0f b6 96 2c 02
	00 00		 movzx	 edx, BYTE PTR [esi+556]
  000aa	51		 push	 ecx
  000ab	83 c0 77	 add	 eax, 119		; 00000077H
  000ae	50		 push	 eax
  000af	42		 inc	 edx
  000b0	52		 push	 edx
  000b1	68 00 00 00 00	 push	 OFFSET ??_C@_0ED@JCDEDHOA@?$FLIllusion?5Temple?$FN?5?$CI?$CFd?$CJ?5RemoveAll@
  000b6	ff 15 00 00 00
	00		 call	 DWORD PTR ?LogAddTD@@3P6AXPADZZA ; LogAddTD

; 1604 : 		gObjDel(this->m_iYellowPedestalIndex);

  000bc	8b 86 40 02 00
	00		 mov	 eax, DWORD PTR [esi+576]
  000c2	50		 push	 eax
  000c3	e8 00 00 00 00	 call	 ?gObjDel@@YAFH@Z	; gObjDel
  000c8	83 c4 1c	 add	 esp, 28			; 0000001cH

; 1605 : 		this->m_iYellowPedestalIndex = -1;

  000cb	c7 86 40 02 00
	00 ff ff ff ff	 mov	 DWORD PTR [esi+576], -1
$LN19@ClearAllBa:

; 1606 : 	}
; 1607 : 
; 1608 : 	if(this->m_iBluePedestalIndex != -1)

  000d5	8b 86 48 02 00
	00		 mov	 eax, DWORD PTR [esi+584]
  000db	83 f8 ff	 cmp	 eax, -1
  000de	74 55		 je	 SHORT $LN5@ClearAllBa

; 1609 : 	{
; 1610 : 		LogAddTD("[Illusion Temple] (%d) RemoveIllusionRelicsBox Name: %s, (%d: %d/%d)",this->m_btFloorIndex+1, gObj[this->m_iBluePedestalIndex].Name, gObj[this->m_iBluePedestalIndex].MapNumber, gObj[this->m_iBluePedestalIndex].X, gObj[this->m_iBluePedestalIndex].Y);

  000e0	69 c0 50 2b 00
	00		 imul	 eax, 11088		; 00002b50H
  000e6	03 05 00 00 00
	00		 add	 eax, DWORD PTR ?gObj@@3PAUOBJECTSTRUCT@@A ; gObj
  000ec	0f bf 90 46 01
	00 00		 movsx	 edx, WORD PTR [eax+326]
  000f3	0f bf 88 44 01
	00 00		 movsx	 ecx, WORD PTR [eax+324]
  000fa	52		 push	 edx
  000fb	0f b6 90 49 01
	00 00		 movzx	 edx, BYTE PTR [eax+329]
  00102	51		 push	 ecx
  00103	52		 push	 edx
  00104	83 c0 77	 add	 eax, 119		; 00000077H
  00107	50		 push	 eax
  00108	0f b6 86 2c 02
	00 00		 movzx	 eax, BYTE PTR [esi+556]
  0010f	40		 inc	 eax
  00110	50		 push	 eax
  00111	68 00 00 00 00	 push	 OFFSET ??_C@_0EF@COBKKPEE@?$FLIllusion?5Temple?$FN?5?$CI?$CFd?$CJ?5RemoveIll@
  00116	ff 15 00 00 00
	00		 call	 DWORD PTR ?LogAddTD@@3P6AXPADZZA ; LogAddTD

; 1611 : 		gObjDel(this->m_iBluePedestalIndex);

  0011c	8b 8e 48 02 00
	00		 mov	 ecx, DWORD PTR [esi+584]
  00122	51		 push	 ecx
  00123	e8 00 00 00 00	 call	 ?gObjDel@@YAFH@Z	; gObjDel
  00128	83 c4 1c	 add	 esp, 28			; 0000001cH

; 1612 : 		this->m_iBluePedestalIndex = -1;

  0012b	c7 86 48 02 00
	00 ff ff ff ff	 mov	 DWORD PTR [esi+584], -1
$LN5@ClearAllBa:

; 1613 : 	}
; 1614 : 
; 1615 : 	for(i = 0; i < this->m_iMonsterCount; i++)

  00135	33 db		 xor	 ebx, ebx
  00137	39 9e c4 03 00
	00		 cmp	 DWORD PTR [esi+964], ebx
  0013d	7e 28		 jle	 SHORT $LN2@ClearAllBa
  0013f	8d be 50 02 00
	00		 lea	 edi, DWORD PTR [esi+592]
$LL4@ClearAllBa:

; 1616 : 	{
; 1617 : 		if(this->m_MonsterData[i].m_iMonsterIndex != -1)

  00145	8b 07		 mov	 eax, DWORD PTR [edi]
  00147	83 f8 ff	 cmp	 eax, -1
  0014a	74 0f		 je	 SHORT $LN3@ClearAllBa

; 1618 : 		{
; 1619 : 			gObjDel(this->m_MonsterData[i].m_iMonsterIndex);

  0014c	50		 push	 eax
  0014d	e8 00 00 00 00	 call	 ?gObjDel@@YAFH@Z	; gObjDel
  00152	83 c4 04	 add	 esp, 4

; 1620 : 			this->m_MonsterData[i].m_iMonsterIndex = -1;

  00155	c7 07 ff ff ff
	ff		 mov	 DWORD PTR [edi], -1
$LN3@ClearAllBa:

; 1613 : 	}
; 1614 : 
; 1615 : 	for(i = 0; i < this->m_iMonsterCount; i++)

  0015b	43		 inc	 ebx
  0015c	83 c7 08	 add	 edi, 8
  0015f	3b 9e c4 03 00
	00		 cmp	 ebx, DWORD PTR [esi+964]
  00165	7c de		 jl	 SHORT $LL4@ClearAllBa
$LN2@ClearAllBa:

; 1621 : 		}
; 1622 : 	}
; 1623 : 
; 1624 : 	LogAddTD("[Illusion Temple] (%d) Remove All Object", this->m_btFloorIndex+1);

  00167	0f b6 96 2c 02
	00 00		 movzx	 edx, BYTE PTR [esi+556]
  0016e	42		 inc	 edx
  0016f	52		 push	 edx
  00170	68 00 00 00 00	 push	 OFFSET ??_C@_0CJ@NGMJKIGG@?$FLIllusion?5Temple?$FN?5?$CI?$CFd?$CJ?5Remove?5Al@
  00175	ff 15 00 00 00
	00		 call	 DWORD PTR ?LogAddTD@@3P6AXPADZZA ; LogAddTD
  0017b	83 c4 08	 add	 esp, 8
  0017e	5f		 pop	 edi
  0017f	5e		 pop	 esi
  00180	5b		 pop	 ebx

; 1625 : }

  00181	c3		 ret	 0
?ClearAllBattleObjects@CIllusionTempleProcess@@QAEXXZ ENDP ; CIllusionTempleProcess::ClearAllBattleObjects
_TEXT	ENDS
PUBLIC	?SetNpcStatueRegen@CIllusionTempleProcess@@QAEXXZ ; CIllusionTempleProcess::SetNpcStatueRegen
; Function compile flags: /Ogtp
;	COMDAT ?SetNpcStatueRegen@CIllusionTempleProcess@@QAEXXZ
_TEXT	SEGMENT
?SetNpcStatueRegen@CIllusionTempleProcess@@QAEXXZ PROC	; CIllusionTempleProcess::SetNpcStatueRegen, COMDAT
; _this$ = ecx

; 1628 : {

  00000	56		 push	 esi
  00001	8b f1		 mov	 esi, ecx

; 1629 : 	this->m_iStatueRegenTickCount = 5000 + GetTickCount(); //Appear after 5 seconds

  00003	ff 15 00 00 00
	00		 call	 DWORD PTR __imp__GetTickCount@0
  00009	05 88 13 00 00	 add	 eax, 5000		; 00001388H
  0000e	89 86 94 03 00
	00		 mov	 DWORD PTR [esi+916], eax
  00014	5e		 pop	 esi

; 1630 : }

  00015	c3		 ret	 0
?SetNpcStatueRegen@CIllusionTempleProcess@@QAEXXZ ENDP	; CIllusionTempleProcess::SetNpcStatueRegen
_TEXT	ENDS
PUBLIC	??_C@_0FD@FFJHAHAN@?$FLIllusion?5Temple?$FN?5?$CI?$CFd?$CJ?5RegenStat@ ; `string'
PUBLIC	?RegenNPCStatus@CIllusionTempleProcess@@QAEXXZ	; CIllusionTempleProcess::RegenNPCStatus
EXTRN	_rand:PROC
;	COMDAT ??_C@_0FD@FFJHAHAN@?$FLIllusion?5Temple?$FN?5?$CI?$CFd?$CJ?5RegenStat@
CONST	SEGMENT
??_C@_0FD@FFJHAHAN@?$FLIllusion?5Temple?$FN?5?$CI?$CFd?$CJ?5RegenStat@ DB '['
	DB	'Illusion Temple] (%d) RegenStatus Name: %s, (%d: %d/%d), PosN'
	DB	'um(%d), connected:%d', 00H			; `string'
; Function compile flags: /Ogtp
CONST	ENDS
;	COMDAT ?RegenNPCStatus@CIllusionTempleProcess@@QAEXXZ
_TEXT	SEGMENT
?RegenNPCStatus@CIllusionTempleProcess@@QAEXXZ PROC	; CIllusionTempleProcess::RegenNPCStatus, COMDAT
; _this$ = ecx

; 1633 : {

  00000	56		 push	 esi
  00001	8b f1		 mov	 esi, ecx

; 1634 : 	if(this->m_iBallPlayerIndex >= 0)

  00003	83 be b8 03 00
	00 00		 cmp	 DWORD PTR [esi+952], 0
  0000a	0f 8d 83 00 00
	00		 jge	 $LN3@RegenNPCSt

; 1635 : 	{
; 1636 : 		return;
; 1637 : 	}
; 1638 : 
; 1639 : 	int loc2 = rand()%this->m_iStatueCount;

  00010	e8 00 00 00 00	 call	 _rand
  00015	99		 cdq
  00016	f7 be c0 03 00
	00		 idiv	 DWORD PTR [esi+960]

; 1640 : 
; 1641 : 	if(this->m_StatueData[loc2].m_iStatueIndex == -1)

  0001c	8b 84 d6 30 02
	00 00		 mov	 eax, DWORD PTR [esi+edx*8+560]
  00023	83 f8 ff	 cmp	 eax, -1
  00026	74 6b		 je	 SHORT $LN3@RegenNPCSt

; 1642 : 	{
; 1643 : 		return;
; 1644 : 	}
; 1645 : 
; 1646 : 	LPOBJ lpObj = &gObj[this->m_StatueData[loc2].m_iStatueIndex];
; 1647 : 
; 1648 : 	lpObj->m_PosNum = this->m_StatueData[loc2].m_sStatuePosition;

  00028	66 8b 8c d6 34
	02 00 00	 mov	 cx, WORD PTR [esi+edx*8+564]
  00030	69 c0 50 2b 00
	00		 imul	 eax, 11088		; 00002b50H
  00036	03 05 00 00 00
	00		 add	 eax, DWORD PTR ?gObj@@3PAUOBJECTSTRUCT@@A ; gObj
  0003c	66 89 88 b0 03
	00 00		 mov	 WORD PTR [eax+944], cx

; 1649 : 	lpObj->DieRegen = 2;

  00043	c6 80 a2 03 00
	00 02		 mov	 BYTE PTR [eax+930], 2

; 1650 : 	this->m_iStatueRegenTickCount = -1;

  0004a	c7 86 94 03 00
	00 ff ff ff ff	 mov	 DWORD PTR [esi+916], -1

; 1651 : 
; 1652 : 	LogAddTD("[Illusion Temple] (%d) RegenStatus Name: %s, (%d: %d/%d), PosNum(%d), connected:%d", this->m_btFloorIndex+1, lpObj->Name, lpObj->MapNumber, lpObj->X, lpObj->Y, lpObj->m_PosNum, lpObj->Connected);

  00054	8b 50 04	 mov	 edx, DWORD PTR [eax+4]
  00057	0f bf 88 b0 03
	00 00		 movsx	 ecx, WORD PTR [eax+944]
  0005e	52		 push	 edx
  0005f	0f bf 90 46 01
	00 00		 movsx	 edx, WORD PTR [eax+326]
  00066	51		 push	 ecx
  00067	0f bf 88 44 01
	00 00		 movsx	 ecx, WORD PTR [eax+324]
  0006e	52		 push	 edx
  0006f	0f b6 90 49 01
	00 00		 movzx	 edx, BYTE PTR [eax+329]
  00076	51		 push	 ecx
  00077	52		 push	 edx
  00078	83 c0 77	 add	 eax, 119		; 00000077H
  0007b	50		 push	 eax
  0007c	0f b6 86 2c 02
	00 00		 movzx	 eax, BYTE PTR [esi+556]
  00083	40		 inc	 eax
  00084	50		 push	 eax
  00085	68 00 00 00 00	 push	 OFFSET ??_C@_0FD@FFJHAHAN@?$FLIllusion?5Temple?$FN?5?$CI?$CFd?$CJ?5RegenStat@
  0008a	ff 15 00 00 00
	00		 call	 DWORD PTR ?LogAddTD@@3P6AXPADZZA ; LogAddTD
  00090	83 c4 20	 add	 esp, 32			; 00000020H
$LN3@RegenNPCSt:
  00093	5e		 pop	 esi

; 1653 : }

  00094	c3		 ret	 0
?RegenNPCStatus@CIllusionTempleProcess@@QAEXXZ ENDP	; CIllusionTempleProcess::RegenNPCStatus
_TEXT	ENDS
PUBLIC	?SetBattleMonstersReady@CIllusionTempleProcess@@QAEXXZ ; CIllusionTempleProcess::SetBattleMonstersReady
; Function compile flags: /Ogtp
;	COMDAT ?SetBattleMonstersReady@CIllusionTempleProcess@@QAEXXZ
_TEXT	SEGMENT
tv1306 = -4						; size = 4
?SetBattleMonstersReady@CIllusionTempleProcess@@QAEXXZ PROC ; CIllusionTempleProcess::SetBattleMonstersReady, COMDAT
; _this$ = ecx

; 1656 : {

  00000	55		 push	 ebp
  00001	8b ec		 mov	 ebp, esp
  00003	51		 push	 ecx
  00004	53		 push	 ebx
  00005	56		 push	 esi

; 1657 : 	for(int i = 0; i < MAX_FLOOR_MONSTER; i++)

  00006	8d 81 50 02 00
	00		 lea	 eax, DWORD PTR [ecx+592]
  0000c	8b 0d 00 00 00
	00		 mov	 ecx, DWORD PTR ?gObj@@3PAUOBJECTSTRUCT@@A ; gObj
  00012	57		 push	 edi
  00013	c7 45 fc 08 00
	00 00		 mov	 DWORD PTR tv1306[ebp], 8
  0001a	83 ce ff	 or	 esi, -1
  0001d	b3 02		 mov	 bl, 2
  0001f	90		 npad	 1
$LL4@SetBattleM:

; 1658 : 	{
; 1659 : 		if(this->m_MonsterData[i].m_iMonsterIndex != -1 && gObj[this->m_MonsterData[i].m_iMonsterIndex].m_PosNum == -1)

  00020	8b 10		 mov	 edx, DWORD PTR [eax]
  00022	3b d6		 cmp	 edx, esi
  00024	74 3f		 je	 SHORT $LN3@SetBattleM
  00026	69 d2 50 2b 00
	00		 imul	 edx, 11088		; 00002b50H
  0002c	66 39 b4 0a b0
	03 00 00	 cmp	 WORD PTR [edx+ecx+944], si
  00034	75 2f		 jne	 SHORT $LN3@SetBattleM

; 1660 : 		{
; 1661 : 			gObj[this->m_MonsterData[i].m_iMonsterIndex].m_PosNum = this->m_MonsterData[i].m_sMonsterPosition; 

  00036	8b 10		 mov	 edx, DWORD PTR [eax]
  00038	66 8b 78 04	 mov	 di, WORD PTR [eax+4]
  0003c	69 d2 50 2b 00
	00		 imul	 edx, 11088		; 00002b50H
  00042	66 89 bc 0a b0
	03 00 00	 mov	 WORD PTR [edx+ecx+944], di

; 1662 : 			gObj[this->m_MonsterData[i].m_iMonsterIndex].DieRegen = 2;

  0004a	8b 08		 mov	 ecx, DWORD PTR [eax]
  0004c	8b 15 00 00 00
	00		 mov	 edx, DWORD PTR ?gObj@@3PAUOBJECTSTRUCT@@A ; gObj
  00052	69 c9 50 2b 00
	00		 imul	 ecx, 11088		; 00002b50H
  00058	88 9c 11 a2 03
	00 00		 mov	 BYTE PTR [ecx+edx+930], bl
  0005f	8b 0d 00 00 00
	00		 mov	 ecx, DWORD PTR ?gObj@@3PAUOBJECTSTRUCT@@A ; gObj
$LN3@SetBattleM:

; 1658 : 	{
; 1659 : 		if(this->m_MonsterData[i].m_iMonsterIndex != -1 && gObj[this->m_MonsterData[i].m_iMonsterIndex].m_PosNum == -1)

  00065	8b 50 08	 mov	 edx, DWORD PTR [eax+8]
  00068	3b d6		 cmp	 edx, esi
  0006a	74 41		 je	 SHORT $LN10@SetBattleM
  0006c	69 d2 50 2b 00
	00		 imul	 edx, 11088		; 00002b50H
  00072	66 39 b4 0a b0
	03 00 00	 cmp	 WORD PTR [edx+ecx+944], si
  0007a	75 31		 jne	 SHORT $LN10@SetBattleM

; 1660 : 		{
; 1661 : 			gObj[this->m_MonsterData[i].m_iMonsterIndex].m_PosNum = this->m_MonsterData[i].m_sMonsterPosition; 

  0007c	8b 50 08	 mov	 edx, DWORD PTR [eax+8]
  0007f	66 8b 78 0c	 mov	 di, WORD PTR [eax+12]
  00083	69 d2 50 2b 00
	00		 imul	 edx, 11088		; 00002b50H
  00089	66 89 bc 0a b0
	03 00 00	 mov	 WORD PTR [edx+ecx+944], di

; 1662 : 			gObj[this->m_MonsterData[i].m_iMonsterIndex].DieRegen = 2;

  00091	8b 48 08	 mov	 ecx, DWORD PTR [eax+8]
  00094	8b 15 00 00 00
	00		 mov	 edx, DWORD PTR ?gObj@@3PAUOBJECTSTRUCT@@A ; gObj
  0009a	69 c9 50 2b 00
	00		 imul	 ecx, 11088		; 00002b50H
  000a0	88 9c 11 a2 03
	00 00		 mov	 BYTE PTR [ecx+edx+930], bl
  000a7	8b 0d 00 00 00
	00		 mov	 ecx, DWORD PTR ?gObj@@3PAUOBJECTSTRUCT@@A ; gObj
$LN10@SetBattleM:

; 1658 : 	{
; 1659 : 		if(this->m_MonsterData[i].m_iMonsterIndex != -1 && gObj[this->m_MonsterData[i].m_iMonsterIndex].m_PosNum == -1)

  000ad	8b 50 10	 mov	 edx, DWORD PTR [eax+16]
  000b0	3b d6		 cmp	 edx, esi
  000b2	74 41		 je	 SHORT $LN11@SetBattleM
  000b4	69 d2 50 2b 00
	00		 imul	 edx, 11088		; 00002b50H
  000ba	66 39 b4 0a b0
	03 00 00	 cmp	 WORD PTR [edx+ecx+944], si
  000c2	75 31		 jne	 SHORT $LN11@SetBattleM

; 1660 : 		{
; 1661 : 			gObj[this->m_MonsterData[i].m_iMonsterIndex].m_PosNum = this->m_MonsterData[i].m_sMonsterPosition; 

  000c4	8b 50 10	 mov	 edx, DWORD PTR [eax+16]
  000c7	66 8b 78 14	 mov	 di, WORD PTR [eax+20]
  000cb	69 d2 50 2b 00
	00		 imul	 edx, 11088		; 00002b50H
  000d1	66 89 bc 0a b0
	03 00 00	 mov	 WORD PTR [edx+ecx+944], di

; 1662 : 			gObj[this->m_MonsterData[i].m_iMonsterIndex].DieRegen = 2;

  000d9	8b 48 10	 mov	 ecx, DWORD PTR [eax+16]
  000dc	8b 15 00 00 00
	00		 mov	 edx, DWORD PTR ?gObj@@3PAUOBJECTSTRUCT@@A ; gObj
  000e2	69 c9 50 2b 00
	00		 imul	 ecx, 11088		; 00002b50H
  000e8	88 9c 11 a2 03
	00 00		 mov	 BYTE PTR [ecx+edx+930], bl
  000ef	8b 0d 00 00 00
	00		 mov	 ecx, DWORD PTR ?gObj@@3PAUOBJECTSTRUCT@@A ; gObj
$LN11@SetBattleM:

; 1658 : 	{
; 1659 : 		if(this->m_MonsterData[i].m_iMonsterIndex != -1 && gObj[this->m_MonsterData[i].m_iMonsterIndex].m_PosNum == -1)

  000f5	8b 50 18	 mov	 edx, DWORD PTR [eax+24]
  000f8	3b d6		 cmp	 edx, esi
  000fa	74 41		 je	 SHORT $LN12@SetBattleM
  000fc	69 d2 50 2b 00
	00		 imul	 edx, 11088		; 00002b50H
  00102	66 39 b4 0a b0
	03 00 00	 cmp	 WORD PTR [edx+ecx+944], si
  0010a	75 31		 jne	 SHORT $LN12@SetBattleM

; 1660 : 		{
; 1661 : 			gObj[this->m_MonsterData[i].m_iMonsterIndex].m_PosNum = this->m_MonsterData[i].m_sMonsterPosition; 

  0010c	8b 50 18	 mov	 edx, DWORD PTR [eax+24]
  0010f	66 8b 78 1c	 mov	 di, WORD PTR [eax+28]
  00113	69 d2 50 2b 00
	00		 imul	 edx, 11088		; 00002b50H
  00119	66 89 bc 0a b0
	03 00 00	 mov	 WORD PTR [edx+ecx+944], di

; 1662 : 			gObj[this->m_MonsterData[i].m_iMonsterIndex].DieRegen = 2;

  00121	8b 48 18	 mov	 ecx, DWORD PTR [eax+24]
  00124	8b 15 00 00 00
	00		 mov	 edx, DWORD PTR ?gObj@@3PAUOBJECTSTRUCT@@A ; gObj
  0012a	69 c9 50 2b 00
	00		 imul	 ecx, 11088		; 00002b50H
  00130	88 9c 11 a2 03
	00 00		 mov	 BYTE PTR [ecx+edx+930], bl
  00137	8b 0d 00 00 00
	00		 mov	 ecx, DWORD PTR ?gObj@@3PAUOBJECTSTRUCT@@A ; gObj
$LN12@SetBattleM:

; 1658 : 	{
; 1659 : 		if(this->m_MonsterData[i].m_iMonsterIndex != -1 && gObj[this->m_MonsterData[i].m_iMonsterIndex].m_PosNum == -1)

  0013d	8b 50 20	 mov	 edx, DWORD PTR [eax+32]
  00140	3b d6		 cmp	 edx, esi
  00142	74 41		 je	 SHORT $LN13@SetBattleM
  00144	69 d2 50 2b 00
	00		 imul	 edx, 11088		; 00002b50H
  0014a	66 39 b4 0a b0
	03 00 00	 cmp	 WORD PTR [edx+ecx+944], si
  00152	75 31		 jne	 SHORT $LN13@SetBattleM

; 1660 : 		{
; 1661 : 			gObj[this->m_MonsterData[i].m_iMonsterIndex].m_PosNum = this->m_MonsterData[i].m_sMonsterPosition; 

  00154	8b 50 20	 mov	 edx, DWORD PTR [eax+32]
  00157	66 8b 78 24	 mov	 di, WORD PTR [eax+36]
  0015b	69 d2 50 2b 00
	00		 imul	 edx, 11088		; 00002b50H
  00161	66 89 bc 0a b0
	03 00 00	 mov	 WORD PTR [edx+ecx+944], di

; 1662 : 			gObj[this->m_MonsterData[i].m_iMonsterIndex].DieRegen = 2;

  00169	8b 48 20	 mov	 ecx, DWORD PTR [eax+32]
  0016c	8b 15 00 00 00
	00		 mov	 edx, DWORD PTR ?gObj@@3PAUOBJECTSTRUCT@@A ; gObj
  00172	69 c9 50 2b 00
	00		 imul	 ecx, 11088		; 00002b50H
  00178	88 9c 11 a2 03
	00 00		 mov	 BYTE PTR [ecx+edx+930], bl
  0017f	8b 0d 00 00 00
	00		 mov	 ecx, DWORD PTR ?gObj@@3PAUOBJECTSTRUCT@@A ; gObj
$LN13@SetBattleM:

; 1657 : 	for(int i = 0; i < MAX_FLOOR_MONSTER; i++)

  00185	83 c0 28	 add	 eax, 40			; 00000028H
  00188	ff 4d fc	 dec	 DWORD PTR tv1306[ebp]
  0018b	0f 85 8f fe ff
	ff		 jne	 $LL4@SetBattleM
  00191	5f		 pop	 edi
  00192	5e		 pop	 esi
  00193	5b		 pop	 ebx

; 1663 : 		}
; 1664 : 	}
; 1665 : }

  00194	8b e5		 mov	 esp, ebp
  00196	5d		 pop	 ebp
  00197	c3		 ret	 0
?SetBattleMonstersReady@CIllusionTempleProcess@@QAEXXZ ENDP ; CIllusionTempleProcess::SetBattleMonstersReady
_TEXT	ENDS
PUBLIC	__$ArrayPad$
PUBLIC	?SendNoticeToAll@CIllusionTempleProcess@@QAEXPAD@Z ; CIllusionTempleProcess::SendNoticeToAll
EXTRN	?MakeNoticeMsg@TNotice@@SAXPAXEPAD@Z:PROC	; TNotice::MakeNoticeMsg
; Function compile flags: /Ogtp
;	COMDAT ?SendNoticeToAll@CIllusionTempleProcess@@QAEXPAD@Z
_TEXT	SEGMENT
_pNotice$ = -276					; size = 272
__$ArrayPad$ = -4					; size = 4
_lpszMsg$ = 8						; size = 4
?SendNoticeToAll@CIllusionTempleProcess@@QAEXPAD@Z PROC	; CIllusionTempleProcess::SendNoticeToAll, COMDAT
; _this$ = ecx

; 1668 : {

  00000	55		 push	 ebp
  00001	8b ec		 mov	 ebp, esp
  00003	81 ec 14 01 00
	00		 sub	 esp, 276		; 00000114H
  00009	a1 00 00 00 00	 mov	 eax, DWORD PTR ___security_cookie
  0000e	33 c5		 xor	 eax, ebp
  00010	89 45 fc	 mov	 DWORD PTR __$ArrayPad$[ebp], eax
  00013	8b 45 08	 mov	 eax, DWORD PTR _lpszMsg$[ebp]
  00016	56		 push	 esi
  00017	57		 push	 edi

; 1669 : 	PMSG_NOTICE pNotice;
; 1670 : 	TNotice::MakeNoticeMsg(&pNotice, 0, lpszMsg);

  00018	50		 push	 eax
  00019	8d 85 ec fe ff
	ff		 lea	 eax, DWORD PTR _pNotice$[ebp]
  0001f	6a 00		 push	 0
  00021	50		 push	 eax
  00022	8b f1		 mov	 esi, ecx
  00024	e8 00 00 00 00	 call	 ?MakeNoticeMsg@TNotice@@SAXPAXEPAD@Z ; TNotice::MakeNoticeMsg
  00029	83 c4 0c	 add	 esp, 12			; 0000000cH

; 1673 : 	{
; 1674 : 		if(this->m_FloorData[i].m_iTeamPlayerIndex != -1 && gObj[this->m_FloorData[i].m_iTeamPlayerIndex].Connected > PLAYER_LOGGED)

  0002c	83 c6 20	 add	 esi, 32			; 00000020H
  0002f	bf 0a 00 00 00	 mov	 edi, 10			; 0000000aH
$LL4@SendNotice:
  00034	8b 06		 mov	 eax, DWORD PTR [esi]
  00036	83 f8 ff	 cmp	 eax, -1
  00039	74 2d		 je	 SHORT $LN3@SendNotice
  0003b	8b 15 00 00 00
	00		 mov	 edx, DWORD PTR ?gObj@@3PAUOBJECTSTRUCT@@A ; gObj
  00041	8b c8		 mov	 ecx, eax
  00043	69 c9 50 2b 00
	00		 imul	 ecx, 11088		; 00002b50H
  00049	83 7c 11 04 02	 cmp	 DWORD PTR [ecx+edx+4], 2
  0004e	7e 18		 jle	 SHORT $LN3@SendNotice

; 1675 : 		{
; 1676 : 			DataSend(this->m_FloorData[i].m_iTeamPlayerIndex,(LPBYTE)&pNotice,pNotice.h.size);

  00050	0f b6 8d ed fe
	ff ff		 movzx	 ecx, BYTE PTR _pNotice$[ebp+1]
  00057	51		 push	 ecx
  00058	8d 95 ec fe ff
	ff		 lea	 edx, DWORD PTR _pNotice$[ebp]
  0005e	52		 push	 edx
  0005f	50		 push	 eax
  00060	e8 00 00 00 00	 call	 ?DataSend@@YAHHPAEK@Z	; DataSend
  00065	83 c4 0c	 add	 esp, 12			; 0000000cH
$LN3@SendNotice:

; 1671 : 
; 1672 : 	for(int i = 0; i < MAX_FLOOR_USER; i++)

  00068	83 c6 30	 add	 esi, 48			; 00000030H
  0006b	4f		 dec	 edi
  0006c	75 c6		 jne	 SHORT $LL4@SendNotice

; 1677 : 		}
; 1678 : 	}
; 1679 : }

  0006e	8b 4d fc	 mov	 ecx, DWORD PTR __$ArrayPad$[ebp]
  00071	5f		 pop	 edi
  00072	33 cd		 xor	 ecx, ebp
  00074	5e		 pop	 esi
  00075	e8 00 00 00 00	 call	 @__security_check_cookie@4
  0007a	8b e5		 mov	 esp, ebp
  0007c	5d		 pop	 ebp
  0007d	c2 04 00	 ret	 4
?SendNoticeToAll@CIllusionTempleProcess@@QAEXPAD@Z ENDP	; CIllusionTempleProcess::SendNoticeToAll
_TEXT	ENDS
PUBLIC	_this$GSCopy$
PUBLIC	__$ArrayPad$
PUBLIC	?OperateMiniMapWork@CIllusionTempleProcess@@QAEXE@Z ; CIllusionTempleProcess::OperateMiniMapWork
; Function compile flags: /Ogtp
;	COMDAT ?OperateMiniMapWork@CIllusionTempleProcess@@QAEXE@Z
_TEXT	SEGMENT
tv1978 = -300						; size = 4
tv245 = -296						; size = 4
_this$GSCopy$ = -292					; size = 4
_iOfs$ = -288						; size = 4
_pMsg$216507 = -284					; size = 6
_pMsgHead$ = -276					; size = 14
_MessageBuff$ = -260					; size = 256
__$ArrayPad$ = -4					; size = 4
_btTeam$ = 8						; size = 1
?OperateMiniMapWork@CIllusionTempleProcess@@QAEXE@Z PROC ; CIllusionTempleProcess::OperateMiniMapWork, COMDAT
; _this$ = ecx

; 1682 : {

  00000	55		 push	 ebp
  00001	8b ec		 mov	 ebp, esp
  00003	81 ec 2c 01 00
	00		 sub	 esp, 300		; 0000012cH
  00009	a1 00 00 00 00	 mov	 eax, DWORD PTR ___security_cookie
  0000e	33 c5		 xor	 eax, ebp
  00010	89 45 fc	 mov	 DWORD PTR __$ArrayPad$[ebp], eax
  00013	53		 push	 ebx
  00014	56		 push	 esi
  00015	57		 push	 edi
  00016	8b f9		 mov	 edi, ecx

; 1683 : 	int	iOfs = 0;
; 1684 : 
; 1685 : 	char MessageBuff[256];
; 1686 : 
; 1687 : 	PMSG_ILLUSIONTEMPLE_TEAMINFO_HEAD	pMsgHead;
; 1688 : 	
; 1689 : 	if( this->m_iEventBattleTimer < 0 )

  00018	83 bf 9c 03 00
	00 00		 cmp	 DWORD PTR [edi+924], 0

; 1747 : 		{
; 1748 : 			this->m_iBlueTeamUserCount = Count;

  0001f	89 bd dc fe ff
	ff		 mov	 DWORD PTR _this$GSCopy$[ebp], edi
  00025	7d 0a		 jge	 SHORT $LN15@OperateMin

; 1690 : 	{
; 1691 : 		this->m_iEventBattleTimer = 0;

  00027	c7 87 9c 03 00
	00 00 00 00 00	 mov	 DWORD PTR [edi+924], 0
$LN15@OperateMin:

; 1692 : 	}
; 1693 : 
; 1694 : 	pMsgHead.m_wTimer = this->m_iEventBattleTimer / 1000;
; 1695 : 		
; 1696 : 	if( this->m_iBallPlayerIndex != OBJ_EMPTY ) //Ball

  00031	8b 35 00 00 00
	00		 mov	 esi, DWORD PTR ?gObj@@3PAUOBJECTSTRUCT@@A ; gObj
  00037	b8 d3 4d 62 10	 mov	 eax, 274877907		; 10624dd3H
  0003c	f7 af 9c 03 00
	00		 imul	 DWORD PTR [edi+924]
  00042	c1 fa 06	 sar	 edx, 6
  00045	8b c2		 mov	 eax, edx
  00047	c1 e8 1f	 shr	 eax, 31			; 0000001fH
  0004a	03 c2		 add	 eax, edx
  0004c	66 89 85 f0 fe
	ff ff		 mov	 WORD PTR _pMsgHead$[ebp+4], ax
  00053	8b 87 b8 03 00
	00		 mov	 eax, DWORD PTR [edi+952]
  00059	83 f8 ff	 cmp	 eax, -1
  0005c	74 2c		 je	 SHORT $LN14@OperateMin

; 1697 : 	{
; 1698 : 		pMsgHead.m_waIndex    = this->m_iBallPlayerIndex;

  0005e	66 8b c8	 mov	 cx, ax

; 1699 : 		pMsgHead.m_btPositionX = gObj[this->m_iBallPlayerIndex].X;

  00061	69 c0 50 2b 00
	00		 imul	 eax, 11088		; 00002b50H
  00067	66 89 8d f2 fe
	ff ff		 mov	 WORD PTR _pMsgHead$[ebp+6], cx
  0006e	8a 94 30 44 01
	00 00		 mov	 dl, BYTE PTR [eax+esi+324]
  00075	88 95 f4 fe ff
	ff		 mov	 BYTE PTR _pMsgHead$[ebp+8], dl

; 1700 : 		pMsgHead.m_btPositionY = gObj[this->m_iBallPlayerIndex].Y;

  0007b	8a 84 30 46 01
	00 00		 mov	 al, BYTE PTR [eax+esi+326]
  00082	88 85 f5 fe ff
	ff		 mov	 BYTE PTR _pMsgHead$[ebp+9], al

; 1701 : 	}
; 1702 : 	else

  00088	eb 0a		 jmp	 SHORT $LN13@OperateMin
$LN14@OperateMin:

; 1703 : 	{
; 1704 : 		pMsgHead.m_waIndex    = OBJ_EMPTY;

  0008a	c7 85 f2 fe ff
	ff ff ff ff ff	 mov	 DWORD PTR _pMsgHead$[ebp+6], -1
$LN13@OperateMin:

; 1705 : 		pMsgHead.m_btPositionX = (BYTE)-1;
; 1706 : 		pMsgHead.m_btPositionY = (BYTE)-1;
; 1707 : 	}
; 1708 : 	
; 1709 : 	pMsgHead.m_btRelicsTeamScore 	= this->m_btYellowTeamScore;
; 1710 : 	pMsgHead.m_btIllusionRelicsScore= this->m_btBlueTeamScore;

  00094	8a 87 d1 03 00
	00		 mov	 al, BYTE PTR [edi+977]
  0009a	8a 97 d0 03 00
	00		 mov	 dl, BYTE PTR [edi+976]

; 1711 : 	pMsgHead.m_btTeam				= btTeam;

  000a0	8a 5d 08	 mov	 bl, BYTE PTR _btTeam$[ebp]
  000a3	88 85 f7 fe ff
	ff		 mov	 BYTE PTR _pMsgHead$[ebp+11], al
  000a9	8d 47 20	 lea	 eax, DWORD PTR [edi+32]
  000ac	88 95 f6 fe ff
	ff		 mov	 BYTE PTR _pMsgHead$[ebp+10], dl
  000b2	88 9d f8 fe ff
	ff		 mov	 BYTE PTR _pMsgHead$[ebp+12], bl

; 1712 : 	
; 1713 : 	iOfs += sizeof(pMsgHead);

  000b8	c7 85 e0 fe ff
	ff 0e 00 00 00	 mov	 DWORD PTR _iOfs$[ebp], 14 ; 0000000eH

; 1714 : 	int Count = 0;

  000c2	33 d2		 xor	 edx, edx
  000c4	8d 8d 0a ff ff
	ff		 lea	 ecx, DWORD PTR _MessageBuff$[ebp+14]
  000ca	89 85 d4 fe ff
	ff		 mov	 DWORD PTR tv1978[ebp], eax
  000d0	c7 85 d8 fe ff
	ff 02 00 00 00	 mov	 DWORD PTR tv245[ebp], 2
  000da	8d 9b 00 00 00
	00		 npad	 6
$LL12@OperateMin:

; 1717 : 	{
; 1718 : 		if( this->m_FloorData[i].m_iTeamPlayerIndex != OBJ_EMPTY && this->m_FloorData[i].m_btTeamJoinSide == btTeam && gObj[this->m_FloorData[i].m_iTeamPlayerIndex].Connected > PLAYER_LOGGED )

  000e0	8b 38		 mov	 edi, DWORD PTR [eax]
  000e2	83 ff ff	 cmp	 edi, -1
  000e5	74 6f		 je	 SHORT $LN11@OperateMin
  000e7	38 58 04	 cmp	 BYTE PTR [eax+4], bl
  000ea	75 6a		 jne	 SHORT $LN11@OperateMin
  000ec	69 ff 50 2b 00
	00		 imul	 edi, 11088		; 00002b50H
  000f2	83 7c 37 04 02	 cmp	 DWORD PTR [edi+esi+4], 2
  000f7	7e 5d		 jle	 SHORT $LN11@OperateMin

; 1719 : 		{
; 1720 : 			PMSG_ILLUSIONTEMPLE_TEAMINFO_MEMBERDATA pMsg;
; 1721 : 
; 1722 : 			pMsg.m_waIndex    = this->m_FloorData[i].m_iTeamPlayerIndex;

  000f9	0f b7 38	 movzx	 edi, WORD PTR [eax]
  000fc	66 89 bd e4 fe
	ff ff		 mov	 WORD PTR _pMsg$216507[ebp], di

; 1723 : 			pMsg.m_btMapNumber = gObj[this->m_FloorData[i].m_iTeamPlayerIndex].MapNumber;

  00103	8b 38		 mov	 edi, DWORD PTR [eax]
  00105	69 ff 50 2b 00
	00		 imul	 edi, 11088		; 00002b50H
  0010b	0f b6 9c 37 49
	01 00 00	 movzx	 ebx, BYTE PTR [edi+esi+329]

; 1724 : 			pMsg.m_btPositionX = gObj[this->m_FloorData[i].m_iTeamPlayerIndex].X;
; 1725 : 			pMsg.m_btPositionY = gObj[this->m_FloorData[i].m_iTeamPlayerIndex].Y;
; 1726 : 			
; 1727 : 			Count++;
; 1728 : 			
; 1729 : 			memcpy((MessageBuff+iOfs), &pMsg, sizeof(pMsg));
; 1730 : 			
; 1731 : 			iOfs += sizeof(pMsg);

  00113	83 85 e0 fe ff
	ff 06		 add	 DWORD PTR _iOfs$[ebp], 6
  0011a	88 9d e6 fe ff
	ff		 mov	 BYTE PTR _pMsg$216507[ebp+2], bl
  00120	0f b6 9c 37 44
	01 00 00	 movzx	 ebx, BYTE PTR [edi+esi+324]
  00128	88 9d e7 fe ff
	ff		 mov	 BYTE PTR _pMsg$216507[ebp+3], bl
  0012e	0f b6 9c 37 46
	01 00 00	 movzx	 ebx, BYTE PTR [edi+esi+326]
  00136	8b bd e4 fe ff
	ff		 mov	 edi, DWORD PTR _pMsg$216507[ebp]
  0013c	89 39		 mov	 DWORD PTR [ecx], edi
  0013e	88 9d e8 fe ff
	ff		 mov	 BYTE PTR _pMsg$216507[ebp+4], bl
  00144	0f b7 bd e8 fe
	ff ff		 movzx	 edi, WORD PTR _pMsg$216507[ebp+4]
  0014b	8a 5d 08	 mov	 bl, BYTE PTR _btTeam$[ebp]
  0014e	42		 inc	 edx
  0014f	66 89 79 04	 mov	 WORD PTR [ecx+4], di
  00153	83 c1 06	 add	 ecx, 6
$LN11@OperateMin:

; 1717 : 	{
; 1718 : 		if( this->m_FloorData[i].m_iTeamPlayerIndex != OBJ_EMPTY && this->m_FloorData[i].m_btTeamJoinSide == btTeam && gObj[this->m_FloorData[i].m_iTeamPlayerIndex].Connected > PLAYER_LOGGED )

  00156	8b 78 30	 mov	 edi, DWORD PTR [eax+48]
  00159	83 ff ff	 cmp	 edi, -1
  0015c	74 71		 je	 SHORT $LN29@OperateMin
  0015e	38 58 34	 cmp	 BYTE PTR [eax+52], bl
  00161	75 6c		 jne	 SHORT $LN29@OperateMin
  00163	69 ff 50 2b 00
	00		 imul	 edi, 11088		; 00002b50H
  00169	83 7c 37 04 02	 cmp	 DWORD PTR [edi+esi+4], 2
  0016e	7e 5f		 jle	 SHORT $LN29@OperateMin

; 1719 : 		{
; 1720 : 			PMSG_ILLUSIONTEMPLE_TEAMINFO_MEMBERDATA pMsg;
; 1721 : 
; 1722 : 			pMsg.m_waIndex    = this->m_FloorData[i].m_iTeamPlayerIndex;

  00170	0f b7 78 30	 movzx	 edi, WORD PTR [eax+48]
  00174	66 89 bd e4 fe
	ff ff		 mov	 WORD PTR _pMsg$216507[ebp], di

; 1723 : 			pMsg.m_btMapNumber = gObj[this->m_FloorData[i].m_iTeamPlayerIndex].MapNumber;

  0017b	8b 78 30	 mov	 edi, DWORD PTR [eax+48]
  0017e	69 ff 50 2b 00
	00		 imul	 edi, 11088		; 00002b50H
  00184	0f b6 9c 37 49
	01 00 00	 movzx	 ebx, BYTE PTR [edi+esi+329]

; 1724 : 			pMsg.m_btPositionX = gObj[this->m_FloorData[i].m_iTeamPlayerIndex].X;
; 1725 : 			pMsg.m_btPositionY = gObj[this->m_FloorData[i].m_iTeamPlayerIndex].Y;
; 1726 : 			
; 1727 : 			Count++;
; 1728 : 			
; 1729 : 			memcpy((MessageBuff+iOfs), &pMsg, sizeof(pMsg));
; 1730 : 			
; 1731 : 			iOfs += sizeof(pMsg);

  0018c	83 85 e0 fe ff
	ff 06		 add	 DWORD PTR _iOfs$[ebp], 6
  00193	88 9d e6 fe ff
	ff		 mov	 BYTE PTR _pMsg$216507[ebp+2], bl
  00199	0f b6 9c 37 44
	01 00 00	 movzx	 ebx, BYTE PTR [edi+esi+324]
  001a1	88 9d e7 fe ff
	ff		 mov	 BYTE PTR _pMsg$216507[ebp+3], bl
  001a7	0f b6 9c 37 46
	01 00 00	 movzx	 ebx, BYTE PTR [edi+esi+326]
  001af	8b bd e4 fe ff
	ff		 mov	 edi, DWORD PTR _pMsg$216507[ebp]
  001b5	89 39		 mov	 DWORD PTR [ecx], edi
  001b7	88 9d e8 fe ff
	ff		 mov	 BYTE PTR _pMsg$216507[ebp+4], bl
  001bd	0f b7 bd e8 fe
	ff ff		 movzx	 edi, WORD PTR _pMsg$216507[ebp+4]
  001c4	8a 5d 08	 mov	 bl, BYTE PTR _btTeam$[ebp]
  001c7	42		 inc	 edx
  001c8	66 89 79 04	 mov	 WORD PTR [ecx+4], di
  001cc	83 c1 06	 add	 ecx, 6
$LN29@OperateMin:

; 1717 : 	{
; 1718 : 		if( this->m_FloorData[i].m_iTeamPlayerIndex != OBJ_EMPTY && this->m_FloorData[i].m_btTeamJoinSide == btTeam && gObj[this->m_FloorData[i].m_iTeamPlayerIndex].Connected > PLAYER_LOGGED )

  001cf	8b 78 60	 mov	 edi, DWORD PTR [eax+96]
  001d2	83 ff ff	 cmp	 edi, -1
  001d5	74 71		 je	 SHORT $LN31@OperateMin
  001d7	38 58 64	 cmp	 BYTE PTR [eax+100], bl
  001da	75 6c		 jne	 SHORT $LN31@OperateMin
  001dc	69 ff 50 2b 00
	00		 imul	 edi, 11088		; 00002b50H
  001e2	83 7c 37 04 02	 cmp	 DWORD PTR [edi+esi+4], 2
  001e7	7e 5f		 jle	 SHORT $LN31@OperateMin

; 1719 : 		{
; 1720 : 			PMSG_ILLUSIONTEMPLE_TEAMINFO_MEMBERDATA pMsg;
; 1721 : 
; 1722 : 			pMsg.m_waIndex    = this->m_FloorData[i].m_iTeamPlayerIndex;

  001e9	0f b7 78 60	 movzx	 edi, WORD PTR [eax+96]
  001ed	66 89 bd e4 fe
	ff ff		 mov	 WORD PTR _pMsg$216507[ebp], di

; 1723 : 			pMsg.m_btMapNumber = gObj[this->m_FloorData[i].m_iTeamPlayerIndex].MapNumber;

  001f4	8b 78 60	 mov	 edi, DWORD PTR [eax+96]
  001f7	69 ff 50 2b 00
	00		 imul	 edi, 11088		; 00002b50H
  001fd	0f b6 9c 37 49
	01 00 00	 movzx	 ebx, BYTE PTR [edi+esi+329]

; 1724 : 			pMsg.m_btPositionX = gObj[this->m_FloorData[i].m_iTeamPlayerIndex].X;
; 1725 : 			pMsg.m_btPositionY = gObj[this->m_FloorData[i].m_iTeamPlayerIndex].Y;
; 1726 : 			
; 1727 : 			Count++;
; 1728 : 			
; 1729 : 			memcpy((MessageBuff+iOfs), &pMsg, sizeof(pMsg));
; 1730 : 			
; 1731 : 			iOfs += sizeof(pMsg);

  00205	83 85 e0 fe ff
	ff 06		 add	 DWORD PTR _iOfs$[ebp], 6
  0020c	88 9d e6 fe ff
	ff		 mov	 BYTE PTR _pMsg$216507[ebp+2], bl
  00212	0f b6 9c 37 44
	01 00 00	 movzx	 ebx, BYTE PTR [edi+esi+324]
  0021a	88 9d e7 fe ff
	ff		 mov	 BYTE PTR _pMsg$216507[ebp+3], bl
  00220	0f b6 9c 37 46
	01 00 00	 movzx	 ebx, BYTE PTR [edi+esi+326]
  00228	8b bd e4 fe ff
	ff		 mov	 edi, DWORD PTR _pMsg$216507[ebp]
  0022e	89 39		 mov	 DWORD PTR [ecx], edi
  00230	88 9d e8 fe ff
	ff		 mov	 BYTE PTR _pMsg$216507[ebp+4], bl
  00236	0f b7 bd e8 fe
	ff ff		 movzx	 edi, WORD PTR _pMsg$216507[ebp+4]
  0023d	8a 5d 08	 mov	 bl, BYTE PTR _btTeam$[ebp]
  00240	42		 inc	 edx
  00241	66 89 79 04	 mov	 WORD PTR [ecx+4], di
  00245	83 c1 06	 add	 ecx, 6
$LN31@OperateMin:

; 1717 : 	{
; 1718 : 		if( this->m_FloorData[i].m_iTeamPlayerIndex != OBJ_EMPTY && this->m_FloorData[i].m_btTeamJoinSide == btTeam && gObj[this->m_FloorData[i].m_iTeamPlayerIndex].Connected > PLAYER_LOGGED )

  00248	8b b8 90 00 00
	00		 mov	 edi, DWORD PTR [eax+144]
  0024e	83 ff ff	 cmp	 edi, -1
  00251	74 7a		 je	 SHORT $LN33@OperateMin
  00253	38 98 94 00 00
	00		 cmp	 BYTE PTR [eax+148], bl
  00259	75 72		 jne	 SHORT $LN33@OperateMin
  0025b	69 ff 50 2b 00
	00		 imul	 edi, 11088		; 00002b50H
  00261	83 7c 37 04 02	 cmp	 DWORD PTR [edi+esi+4], 2
  00266	7e 65		 jle	 SHORT $LN33@OperateMin

; 1719 : 		{
; 1720 : 			PMSG_ILLUSIONTEMPLE_TEAMINFO_MEMBERDATA pMsg;
; 1721 : 
; 1722 : 			pMsg.m_waIndex    = this->m_FloorData[i].m_iTeamPlayerIndex;

  00268	0f b7 b8 90 00
	00 00		 movzx	 edi, WORD PTR [eax+144]
  0026f	66 89 bd e4 fe
	ff ff		 mov	 WORD PTR _pMsg$216507[ebp], di

; 1723 : 			pMsg.m_btMapNumber = gObj[this->m_FloorData[i].m_iTeamPlayerIndex].MapNumber;

  00276	8b b8 90 00 00
	00		 mov	 edi, DWORD PTR [eax+144]
  0027c	69 ff 50 2b 00
	00		 imul	 edi, 11088		; 00002b50H
  00282	0f b6 9c 37 49
	01 00 00	 movzx	 ebx, BYTE PTR [edi+esi+329]

; 1724 : 			pMsg.m_btPositionX = gObj[this->m_FloorData[i].m_iTeamPlayerIndex].X;
; 1725 : 			pMsg.m_btPositionY = gObj[this->m_FloorData[i].m_iTeamPlayerIndex].Y;
; 1726 : 			
; 1727 : 			Count++;
; 1728 : 			
; 1729 : 			memcpy((MessageBuff+iOfs), &pMsg, sizeof(pMsg));
; 1730 : 			
; 1731 : 			iOfs += sizeof(pMsg);

  0028a	83 85 e0 fe ff
	ff 06		 add	 DWORD PTR _iOfs$[ebp], 6
  00291	88 9d e6 fe ff
	ff		 mov	 BYTE PTR _pMsg$216507[ebp+2], bl
  00297	0f b6 9c 37 44
	01 00 00	 movzx	 ebx, BYTE PTR [edi+esi+324]
  0029f	88 9d e7 fe ff
	ff		 mov	 BYTE PTR _pMsg$216507[ebp+3], bl
  002a5	0f b6 9c 37 46
	01 00 00	 movzx	 ebx, BYTE PTR [edi+esi+326]
  002ad	8b bd e4 fe ff
	ff		 mov	 edi, DWORD PTR _pMsg$216507[ebp]
  002b3	89 39		 mov	 DWORD PTR [ecx], edi
  002b5	88 9d e8 fe ff
	ff		 mov	 BYTE PTR _pMsg$216507[ebp+4], bl
  002bb	0f b7 bd e8 fe
	ff ff		 movzx	 edi, WORD PTR _pMsg$216507[ebp+4]
  002c2	8a 5d 08	 mov	 bl, BYTE PTR _btTeam$[ebp]
  002c5	42		 inc	 edx
  002c6	66 89 79 04	 mov	 WORD PTR [ecx+4], di
  002ca	83 c1 06	 add	 ecx, 6
$LN33@OperateMin:

; 1717 : 	{
; 1718 : 		if( this->m_FloorData[i].m_iTeamPlayerIndex != OBJ_EMPTY && this->m_FloorData[i].m_btTeamJoinSide == btTeam && gObj[this->m_FloorData[i].m_iTeamPlayerIndex].Connected > PLAYER_LOGGED )

  002cd	8b b8 c0 00 00
	00		 mov	 edi, DWORD PTR [eax+192]
  002d3	83 ff ff	 cmp	 edi, -1
  002d6	74 7a		 je	 SHORT $LN35@OperateMin
  002d8	38 98 c4 00 00
	00		 cmp	 BYTE PTR [eax+196], bl
  002de	75 72		 jne	 SHORT $LN35@OperateMin
  002e0	69 ff 50 2b 00
	00		 imul	 edi, 11088		; 00002b50H
  002e6	83 7c 37 04 02	 cmp	 DWORD PTR [edi+esi+4], 2
  002eb	7e 65		 jle	 SHORT $LN35@OperateMin

; 1719 : 		{
; 1720 : 			PMSG_ILLUSIONTEMPLE_TEAMINFO_MEMBERDATA pMsg;
; 1721 : 
; 1722 : 			pMsg.m_waIndex    = this->m_FloorData[i].m_iTeamPlayerIndex;

  002ed	0f b7 b8 c0 00
	00 00		 movzx	 edi, WORD PTR [eax+192]
  002f4	66 89 bd e4 fe
	ff ff		 mov	 WORD PTR _pMsg$216507[ebp], di

; 1723 : 			pMsg.m_btMapNumber = gObj[this->m_FloorData[i].m_iTeamPlayerIndex].MapNumber;

  002fb	8b b8 c0 00 00
	00		 mov	 edi, DWORD PTR [eax+192]
  00301	69 ff 50 2b 00
	00		 imul	 edi, 11088		; 00002b50H
  00307	0f b6 9c 37 49
	01 00 00	 movzx	 ebx, BYTE PTR [edi+esi+329]

; 1724 : 			pMsg.m_btPositionX = gObj[this->m_FloorData[i].m_iTeamPlayerIndex].X;
; 1725 : 			pMsg.m_btPositionY = gObj[this->m_FloorData[i].m_iTeamPlayerIndex].Y;
; 1726 : 			
; 1727 : 			Count++;
; 1728 : 			
; 1729 : 			memcpy((MessageBuff+iOfs), &pMsg, sizeof(pMsg));
; 1730 : 			
; 1731 : 			iOfs += sizeof(pMsg);

  0030f	83 85 e0 fe ff
	ff 06		 add	 DWORD PTR _iOfs$[ebp], 6
  00316	88 9d e6 fe ff
	ff		 mov	 BYTE PTR _pMsg$216507[ebp+2], bl
  0031c	0f b6 9c 37 44
	01 00 00	 movzx	 ebx, BYTE PTR [edi+esi+324]
  00324	88 9d e7 fe ff
	ff		 mov	 BYTE PTR _pMsg$216507[ebp+3], bl
  0032a	0f b6 9c 37 46
	01 00 00	 movzx	 ebx, BYTE PTR [edi+esi+326]
  00332	8b bd e4 fe ff
	ff		 mov	 edi, DWORD PTR _pMsg$216507[ebp]
  00338	89 39		 mov	 DWORD PTR [ecx], edi
  0033a	88 9d e8 fe ff
	ff		 mov	 BYTE PTR _pMsg$216507[ebp+4], bl
  00340	0f b7 bd e8 fe
	ff ff		 movzx	 edi, WORD PTR _pMsg$216507[ebp+4]
  00347	8a 5d 08	 mov	 bl, BYTE PTR _btTeam$[ebp]
  0034a	42		 inc	 edx
  0034b	66 89 79 04	 mov	 WORD PTR [ecx+4], di
  0034f	83 c1 06	 add	 ecx, 6
$LN35@OperateMin:

; 1715 : 
; 1716 : 	for(int i = 0; i < MAX_FLOOR_USER; i++ )

  00352	05 f0 00 00 00	 add	 eax, 240		; 000000f0H
  00357	ff 8d d8 fe ff
	ff		 dec	 DWORD PTR tv245[ebp]
  0035d	0f 85 7d fd ff
	ff		 jne	 $LL12@OperateMin

; 1732 : 		}
; 1733 : 	}
; 1734 : 	
; 1735 : 	if( btTeam == 0 )
; 1736 : 	{
; 1737 : 		if( this->m_iYellowTeamUserCount != Count )

  00363	8b 85 dc fe ff
	ff		 mov	 eax, DWORD PTR _this$GSCopy$[ebp]
  00369	84 db		 test	 bl, bl
  0036b	75 1c		 jne	 SHORT $LN8@OperateMin
  0036d	39 90 c8 03 00
	00		 cmp	 DWORD PTR [eax+968], edx
  00373	74 06		 je	 SHORT $LN7@OperateMin

; 1738 : 		{
; 1739 : 			this->m_iYellowTeamUserCount = Count;

  00375	89 90 c8 03 00
	00		 mov	 DWORD PTR [eax+968], edx
$LN7@OperateMin:

; 1740 : 		}
; 1741 : 
; 1742 : 		pMsgHead.m_btCount = this->m_iYellowTeamUserCount;

  0037b	8a 88 c8 03 00
	00		 mov	 cl, BYTE PTR [eax+968]
  00381	88 8d f9 fe ff
	ff		 mov	 BYTE PTR _pMsgHead$[ebp+13], cl

; 1743 : 	}
; 1744 : 	else 

  00387	eb 1a		 jmp	 SHORT $LN6@OperateMin
$LN8@OperateMin:

; 1745 : 	{
; 1746 : 		if( this->m_iBlueTeamUserCount != Count )

  00389	39 90 cc 03 00
	00		 cmp	 DWORD PTR [eax+972], edx
  0038f	74 06		 je	 SHORT $LN5@OperateMin

; 1747 : 		{
; 1748 : 			this->m_iBlueTeamUserCount = Count;

  00391	89 90 cc 03 00
	00		 mov	 DWORD PTR [eax+972], edx
$LN5@OperateMin:

; 1749 : 		}
; 1750 : 		pMsgHead.m_btCount = this->m_iBlueTeamUserCount;

  00397	8a 90 cc 03 00
	00		 mov	 dl, BYTE PTR [eax+972]
  0039d	88 95 f9 fe ff
	ff		 mov	 BYTE PTR _pMsgHead$[ebp+13], dl
$LN6@OperateMin:

; 1751 : 	}
; 1752 : 	
; 1753 : 	PHeadSubSetB((LPBYTE)&pMsgHead, 0xBF, 0x01, iOfs);

  003a3	8b 85 e0 fe ff
	ff		 mov	 eax, DWORD PTR _iOfs$[ebp]
  003a9	50		 push	 eax
  003aa	6a 01		 push	 1
  003ac	8d 8d ec fe ff
	ff		 lea	 ecx, DWORD PTR _pMsgHead$[ebp]
  003b2	68 bf 00 00 00	 push	 191			; 000000bfH
  003b7	51		 push	 ecx
  003b8	e8 00 00 00 00	 call	 ?PHeadSubSetB@@YAXPAEEEH@Z ; PHeadSubSetB

; 1754 : 	
; 1755 : 	memcpy(MessageBuff, &pMsgHead, sizeof(pMsgHead));

  003bd	8b 95 ec fe ff
	ff		 mov	 edx, DWORD PTR _pMsgHead$[ebp]
  003c3	8b 85 f0 fe ff
	ff		 mov	 eax, DWORD PTR _pMsgHead$[ebp+4]
  003c9	8b 8d f4 fe ff
	ff		 mov	 ecx, DWORD PTR _pMsgHead$[ebp+8]
  003cf	8b b5 d4 fe ff
	ff		 mov	 esi, DWORD PTR tv1978[ebp]
  003d5	89 95 fc fe ff
	ff		 mov	 DWORD PTR _MessageBuff$[ebp], edx
  003db	66 8b 95 f8 fe
	ff ff		 mov	 dx, WORD PTR _pMsgHead$[ebp+12]
  003e2	83 c4 10	 add	 esp, 16			; 00000010H
  003e5	89 85 00 ff ff
	ff		 mov	 DWORD PTR _MessageBuff$[ebp+4], eax
  003eb	89 8d 04 ff ff
	ff		 mov	 DWORD PTR _MessageBuff$[ebp+8], ecx
  003f1	66 89 95 08 ff
	ff ff		 mov	 WORD PTR _MessageBuff$[ebp+12], dx
  003f8	bf 0a 00 00 00	 mov	 edi, 10			; 0000000aH
  003fd	8d 49 00	 npad	 3
$LL4@OperateMin:

; 1758 : 	{
; 1759 : 		if( this->m_FloorData[i].m_iTeamPlayerIndex != OBJ_EMPTY && gObj[this->m_FloorData[i].m_iTeamPlayerIndex].Connected > PLAYER_LOGGED && this->m_FloorData[i].m_btTeamJoinSide == btTeam )		

  00400	8b 06		 mov	 eax, DWORD PTR [esi]
  00402	83 f8 ff	 cmp	 eax, -1
  00405	74 32		 je	 SHORT $LN3@OperateMin
  00407	8b 15 00 00 00
	00		 mov	 edx, DWORD PTR ?gObj@@3PAUOBJECTSTRUCT@@A ; gObj
  0040d	8b c8		 mov	 ecx, eax
  0040f	69 c9 50 2b 00
	00		 imul	 ecx, 11088		; 00002b50H
  00415	83 7c 11 04 02	 cmp	 DWORD PTR [ecx+edx+4], 2
  0041a	7e 1d		 jle	 SHORT $LN3@OperateMin
  0041c	38 5e 04	 cmp	 BYTE PTR [esi+4], bl
  0041f	75 18		 jne	 SHORT $LN3@OperateMin

; 1760 : 		{
; 1761 : 			DataSend(this->m_FloorData[i].m_iTeamPlayerIndex, (LPBYTE)MessageBuff, pMsgHead.h.size);

  00421	0f b6 8d ed fe
	ff ff		 movzx	 ecx, BYTE PTR _pMsgHead$[ebp+1]
  00428	51		 push	 ecx
  00429	8d 95 fc fe ff
	ff		 lea	 edx, DWORD PTR _MessageBuff$[ebp]
  0042f	52		 push	 edx
  00430	50		 push	 eax
  00431	e8 00 00 00 00	 call	 ?DataSend@@YAHHPAEK@Z	; DataSend
  00436	83 c4 0c	 add	 esp, 12			; 0000000cH
$LN3@OperateMin:

; 1756 : 	
; 1757 : 	for(int i = 0; i < MAX_FLOOR_USER; i++ )

  00439	83 c6 30	 add	 esi, 48			; 00000030H
  0043c	4f		 dec	 edi
  0043d	75 c1		 jne	 SHORT $LL4@OperateMin

; 1762 : 		}
; 1763 : 	}
; 1764 : }

  0043f	8b 4d fc	 mov	 ecx, DWORD PTR __$ArrayPad$[ebp]
  00442	5f		 pop	 edi
  00443	5e		 pop	 esi
  00444	33 cd		 xor	 ecx, ebp
  00446	5b		 pop	 ebx
  00447	e8 00 00 00 00	 call	 @__security_check_cookie@4
  0044c	8b e5		 mov	 esp, ebp
  0044e	5d		 pop	 ebp
  0044f	c2 04 00	 ret	 4
?OperateMiniMapWork@CIllusionTempleProcess@@QAEXE@Z ENDP ; CIllusionTempleProcess::OperateMiniMapWork
_TEXT	ENDS
PUBLIC	?NotifyTempleInfo@CIllusionTempleProcess@@QAEXEH@Z ; CIllusionTempleProcess::NotifyTempleInfo
; Function compile flags: /Ogtp
;	COMDAT ?NotifyTempleInfo@CIllusionTempleProcess@@QAEXEH@Z
_TEXT	SEGMENT
_pMsg$ = -8						; size = 6
_btState$ = 8						; size = 1
_aIndex$ = 12						; size = 4
?NotifyTempleInfo@CIllusionTempleProcess@@QAEXEH@Z PROC	; CIllusionTempleProcess::NotifyTempleInfo, COMDAT
; _this$ = ecx

; 1767 : {

  00000	55		 push	 ebp
  00001	8b ec		 mov	 ebp, esp
  00003	83 ec 08	 sub	 esp, 8
  00006	56		 push	 esi

; 1768 : 	_ILLUSIONTEMPLE_BARRIER pMsg;
; 1769 : 
; 1770 : 	PHeadSubSetB((LPBYTE)&pMsg, 0xBF, 0x09, sizeof(pMsg));

  00007	6a 06		 push	 6
  00009	6a 09		 push	 9
  0000b	8d 45 f8	 lea	 eax, DWORD PTR _pMsg$[ebp]
  0000e	68 bf 00 00 00	 push	 191			; 000000bfH
  00013	50		 push	 eax
  00014	8b f1		 mov	 esi, ecx
  00016	e8 00 00 00 00	 call	 ?PHeadSubSetB@@YAXPAEEEH@Z ; PHeadSubSetB

; 1771 : 
; 1772 : 	pMsg.m_btFloorIndex = this->m_btFloorIndex;
; 1773 : 	pMsg.m_btState = btState;
; 1774 : 
; 1775 : 	if(aIndex != -1)

  0001b	8b 45 0c	 mov	 eax, DWORD PTR _aIndex$[ebp]
  0001e	8a 8e 2c 02 00
	00		 mov	 cl, BYTE PTR [esi+556]
  00024	8a 55 08	 mov	 dl, BYTE PTR _btState$[ebp]
  00027	83 c4 10	 add	 esp, 16			; 00000010H
  0002a	88 4d fc	 mov	 BYTE PTR _pMsg$[ebp+4], cl
  0002d	88 55 fd	 mov	 BYTE PTR _pMsg$[ebp+5], dl
  00030	83 f8 ff	 cmp	 eax, -1
  00033	74 19		 je	 SHORT $LN5@NotifyTemp

; 1776 : 	{
; 1777 : 		DataSend(aIndex,(LPBYTE)&pMsg,pMsg.h.size);

  00035	0f b6 4d f9	 movzx	 ecx, BYTE PTR _pMsg$[ebp+1]
  00039	51		 push	 ecx
  0003a	8d 55 f8	 lea	 edx, DWORD PTR _pMsg$[ebp]
  0003d	52		 push	 edx
  0003e	50		 push	 eax
  0003f	e8 00 00 00 00	 call	 ?DataSend@@YAHHPAEK@Z	; DataSend
  00044	83 c4 0c	 add	 esp, 12			; 0000000cH
  00047	5e		 pop	 esi

; 1786 : 		}
; 1787 : 	}
; 1788 : }

  00048	8b e5		 mov	 esp, ebp
  0004a	5d		 pop	 ebp
  0004b	c2 08 00	 ret	 8
$LN5@NotifyTemp:
  0004e	57		 push	 edi

; 1778 : 		return;
; 1779 : 	}
; 1780 : 
; 1781 : 	for(int i = 0; i < MAX_FLOOR_USER; i++)

  0004f	83 c6 20	 add	 esi, 32			; 00000020H
  00052	bf 0a 00 00 00	 mov	 edi, 10			; 0000000aH
$LL11@NotifyTemp:

; 1782 : 	{
; 1783 : 		if(this->m_FloorData[i].m_iTeamPlayerIndex != -1 && gObj[this->m_FloorData[i].m_iTeamPlayerIndex].Connected > PLAYER_LOGGED)

  00057	8b 06		 mov	 eax, DWORD PTR [esi]
  00059	83 f8 ff	 cmp	 eax, -1
  0005c	74 27		 je	 SHORT $LN3@NotifyTemp
  0005e	8b 15 00 00 00
	00		 mov	 edx, DWORD PTR ?gObj@@3PAUOBJECTSTRUCT@@A ; gObj
  00064	8b c8		 mov	 ecx, eax
  00066	69 c9 50 2b 00
	00		 imul	 ecx, 11088		; 00002b50H
  0006c	83 7c 11 04 02	 cmp	 DWORD PTR [ecx+edx+4], 2
  00071	7e 12		 jle	 SHORT $LN3@NotifyTemp

; 1784 : 		{
; 1785 : 			DataSend(this->m_FloorData[i].m_iTeamPlayerIndex,(LPBYTE)&pMsg,pMsg.h.size);

  00073	0f b6 4d f9	 movzx	 ecx, BYTE PTR _pMsg$[ebp+1]
  00077	51		 push	 ecx
  00078	8d 55 f8	 lea	 edx, DWORD PTR _pMsg$[ebp]
  0007b	52		 push	 edx
  0007c	50		 push	 eax
  0007d	e8 00 00 00 00	 call	 ?DataSend@@YAHHPAEK@Z	; DataSend
  00082	83 c4 0c	 add	 esp, 12			; 0000000cH
$LN3@NotifyTemp:

; 1778 : 		return;
; 1779 : 	}
; 1780 : 
; 1781 : 	for(int i = 0; i < MAX_FLOOR_USER; i++)

  00085	83 c6 30	 add	 esi, 48			; 00000030H
  00088	4f		 dec	 edi
  00089	75 cc		 jne	 SHORT $LL11@NotifyTemp
  0008b	5f		 pop	 edi
  0008c	5e		 pop	 esi

; 1786 : 		}
; 1787 : 	}
; 1788 : }

  0008d	8b e5		 mov	 esp, ebp
  0008f	5d		 pop	 ebp
  00090	c2 08 00	 ret	 8
?NotifyTempleInfo@CIllusionTempleProcess@@QAEXEH@Z ENDP	; CIllusionTempleProcess::NotifyTempleInfo
_TEXT	ENDS
PUBLIC	?GetUserJoinSide@CIllusionTempleProcess@@QAEEH@Z ; CIllusionTempleProcess::GetUserJoinSide
; Function compile flags: /Ogtp
;	COMDAT ?GetUserJoinSide@CIllusionTempleProcess@@QAEEH@Z
_TEXT	SEGMENT
_aIndex$ = 8						; size = 4
?GetUserJoinSide@CIllusionTempleProcess@@QAEEH@Z PROC	; CIllusionTempleProcess::GetUserJoinSide, COMDAT
; _this$ = ecx

; 1791 : {

  00000	55		 push	 ebp
  00001	8b ec		 mov	 ebp, esp

; 1792 : 	if( OBJMAX_RANGE(aIndex) == FALSE )

  00003	8b 55 08	 mov	 edx, DWORD PTR _aIndex$[ebp]
  00006	85 d2		 test	 edx, edx
  00008	78 0f		 js	 SHORT $LN9@GetUserJoi
  0000a	33 c0		 xor	 eax, eax
  0000c	81 fa 97 3a 00
	00		 cmp	 edx, 14999		; 00003a97H
  00012	0f 9e c0	 setle	 al
  00015	85 c0		 test	 eax, eax
  00017	75 1e		 jne	 SHORT $LN4@GetUserJoi
$LN9@GetUserJoi:

; 1793 : 	{
; 1794 : 		LogAdd("return %s %d", __FILE__, __LINE__);

  00019	68 02 07 00 00	 push	 1794			; 00000702H
  0001e	68 00 00 00 00	 push	 OFFSET ??_C@_0BK@DMGNFDO@IllusionTempleProcess?4cpp?$AA@
  00023	68 00 00 00 00	 push	 OFFSET ??_C@_0N@GGPGOPEN@return?5?$CFs?5?$CFd?$AA@
  00028	ff 15 00 00 00
	00		 call	 DWORD PTR ?LogAdd@@3P6AXPADZZA ; LogAdd
  0002e	83 c4 0c	 add	 esp, 12			; 0000000cH

; 1795 : 		return -1;

  00031	0c ff		 or	 al, 255			; 000000ffH

; 1807 : }

  00033	5d		 pop	 ebp
  00034	c2 04 00	 ret	 4
$LN4@GetUserJoi:

; 1796 : 	}
; 1797 : 
; 1798 : 	if(gObj[aIndex].m_iIllusionTempleIndex != -1)

  00037	8b c2		 mov	 eax, edx
  00039	69 c0 50 2b 00
	00		 imul	 eax, 11088		; 00002b50H
  0003f	56		 push	 esi
  00040	8b 35 00 00 00
	00		 mov	 esi, DWORD PTR ?gObj@@3PAUOBJECTSTRUCT@@A ; gObj
  00046	03 f0		 add	 esi, eax
  00048	8b 86 78 20 00
	00		 mov	 eax, DWORD PTR [esi+8312]
  0004e	83 f8 ff	 cmp	 eax, -1
  00051	74 1b		 je	 SHORT $LN2@GetUserJoi

; 1799 : 	{
; 1800 : 		if(this->m_FloorData[gObj[aIndex].m_iIllusionTempleIndex].m_iTeamPlayerIndex == aIndex || gObj[aIndex].Connected > PLAYER_LOGGED)

  00053	8d 04 40	 lea	 eax, DWORD PTR [eax+eax*2]
  00056	c1 e0 04	 shl	 eax, 4
  00059	03 c1		 add	 eax, ecx
  0005b	39 50 20	 cmp	 DWORD PTR [eax+32], edx
  0005e	74 06		 je	 SHORT $LN1@GetUserJoi
  00060	83 7e 04 02	 cmp	 DWORD PTR [esi+4], 2
  00064	7e 08		 jle	 SHORT $LN2@GetUserJoi
$LN1@GetUserJoi:

; 1801 : 		{
; 1802 : 			return this->m_FloorData[gObj[aIndex].m_iIllusionTempleIndex].m_btTeamJoinSide;

  00066	8a 40 24	 mov	 al, BYTE PTR [eax+36]
  00069	5e		 pop	 esi

; 1807 : }

  0006a	5d		 pop	 ebp
  0006b	c2 04 00	 ret	 4
$LN2@GetUserJoi:

; 1803 : 		}
; 1804 : 	}
; 1805 : 
; 1806 : 	return -1;

  0006e	0c ff		 or	 al, 255			; 000000ffH
  00070	5e		 pop	 esi

; 1807 : }

  00071	5d		 pop	 ebp
  00072	c2 04 00	 ret	 4
?GetUserJoinSide@CIllusionTempleProcess@@QAEEH@Z ENDP	; CIllusionTempleProcess::GetUserJoinSide
_TEXT	ENDS
PUBLIC	?AddKillPointToUser@CIllusionTempleProcess@@QAEEHE@Z ; CIllusionTempleProcess::AddKillPointToUser
; Function compile flags: /Ogtp
;	COMDAT ?AddKillPointToUser@CIllusionTempleProcess@@QAEEHE@Z
_TEXT	SEGMENT
_aIndex$ = 8						; size = 4
_btPoint$ = 12						; size = 1
?AddKillPointToUser@CIllusionTempleProcess@@QAEEHE@Z PROC ; CIllusionTempleProcess::AddKillPointToUser, COMDAT
; _this$ = ecx

; 1810 : {

  00000	55		 push	 ebp
  00001	8b ec		 mov	 ebp, esp
  00003	56		 push	 esi
  00004	57		 push	 edi

; 1811 : 	if( OBJMAX_RANGE(aIndex) == FALSE )

  00005	8b 7d 08	 mov	 edi, DWORD PTR _aIndex$[ebp]
  00008	8b f1		 mov	 esi, ecx
  0000a	85 ff		 test	 edi, edi
  0000c	78 0f		 js	 SHORT $LN10@AddKillPoi
  0000e	33 c0		 xor	 eax, eax
  00010	81 ff 97 3a 00
	00		 cmp	 edi, 14999		; 00003a97H
  00016	0f 9e c0	 setle	 al
  00019	85 c0		 test	 eax, eax
  0001b	75 20		 jne	 SHORT $LN5@AddKillPoi
$LN10@AddKillPoi:

; 1812 : 	{
; 1813 : 		LogAdd("return %s %d", __FILE__, __LINE__);

  0001d	68 15 07 00 00	 push	 1813			; 00000715H
  00022	68 00 00 00 00	 push	 OFFSET ??_C@_0BK@DMGNFDO@IllusionTempleProcess?4cpp?$AA@
  00027	68 00 00 00 00	 push	 OFFSET ??_C@_0N@GGPGOPEN@return?5?$CFs?5?$CFd?$AA@
  0002c	ff 15 00 00 00
	00		 call	 DWORD PTR ?LogAdd@@3P6AXPADZZA ; LogAdd
  00032	83 c4 0c	 add	 esp, 12			; 0000000cH
  00035	5f		 pop	 edi

; 1814 : 		return FALSE;

  00036	32 c0		 xor	 al, al
  00038	5e		 pop	 esi

; 1833 : }

  00039	5d		 pop	 ebp
  0003a	c2 08 00	 ret	 8
$LN5@AddKillPoi:

; 1815 : 	}
; 1816 : 
; 1817 : 	if(gObj[aIndex].m_iIllusionTempleIndex != -1)

  0003d	8b c7		 mov	 eax, edi
  0003f	69 c0 50 2b 00
	00		 imul	 eax, 11088		; 00002b50H
  00045	53		 push	 ebx
  00046	8b 1d 00 00 00
	00		 mov	 ebx, DWORD PTR ?gObj@@3PAUOBJECTSTRUCT@@A ; gObj
  0004c	8b 94 18 78 20
	00 00		 mov	 edx, DWORD PTR [eax+ebx+8312]
  00053	8d 8c 18 78 20
	00 00		 lea	 ecx, DWORD PTR [eax+ebx+8312]
  0005a	83 fa ff	 cmp	 edx, -1
  0005d	74 5f		 je	 SHORT $LN3@AddKillPoi

; 1818 : 	{
; 1819 : 		if(this->m_FloorData[gObj[aIndex].m_iIllusionTempleIndex].m_iTeamPlayerIndex == aIndex || gObj[aIndex].Connected > PLAYER_LOGGED)

  0005f	8d 14 52	 lea	 edx, DWORD PTR [edx+edx*2]
  00062	03 d2		 add	 edx, edx
  00064	39 7c d6 20	 cmp	 DWORD PTR [esi+edx*8+32], edi
  00068	74 07		 je	 SHORT $LN2@AddKillPoi
  0006a	83 7c 18 04 02	 cmp	 DWORD PTR [eax+ebx+4], 2
  0006f	7e 4d		 jle	 SHORT $LN3@AddKillPoi
$LN2@AddKillPoi:

; 1820 : 		{
; 1821 : 			this->m_FloorData[gObj[aIndex].m_iIllusionTempleIndex].m_btKillCountPoint += btPoint;

  00071	8b 11		 mov	 edx, DWORD PTR [ecx]
  00073	8d 0c 52	 lea	 ecx, DWORD PTR [edx+edx*2]
  00076	03 c9		 add	 ecx, ecx
  00078	8d 54 ce 25	 lea	 edx, DWORD PTR [esi+ecx*8+37]
  0007c	8a 4d 0c	 mov	 cl, BYTE PTR _btPoint$[ebp]
  0007f	00 0a		 add	 BYTE PTR [edx], cl

; 1822 : 
; 1823 : 			if(this->m_FloorData[gObj[aIndex].m_iIllusionTempleIndex].m_btKillCountPoint > 90)

  00081	8b 15 00 00 00
	00		 mov	 edx, DWORD PTR ?gObj@@3PAUOBJECTSTRUCT@@A ; gObj
  00087	8b 94 10 78 20
	00 00		 mov	 edx, DWORD PTR [eax+edx+8312]
  0008e	8d 0c 52	 lea	 ecx, DWORD PTR [edx+edx*2]
  00091	03 c9		 add	 ecx, ecx
  00093	80 7c ce 25 5a	 cmp	 BYTE PTR [esi+ecx*8+37], 90 ; 0000005aH
  00098	8d 4c ce 25	 lea	 ecx, DWORD PTR [esi+ecx*8+37]
  0009c	76 03		 jbe	 SHORT $LN1@AddKillPoi

; 1824 : 			{
; 1825 : 				this->m_FloorData[gObj[aIndex].m_iIllusionTempleIndex].m_btKillCountPoint = 90;

  0009e	c6 01 5a	 mov	 BYTE PTR [ecx], 90	; 0000005aH
$LN1@AddKillPoi:

; 1826 : 			}
; 1827 : 
; 1828 : 			return this->m_FloorData[gObj[aIndex].m_iIllusionTempleIndex].m_btKillCountPoint;

  000a1	8b 15 00 00 00
	00		 mov	 edx, DWORD PTR ?gObj@@3PAUOBJECTSTRUCT@@A ; gObj
  000a7	8b 84 10 78 20
	00 00		 mov	 eax, DWORD PTR [eax+edx+8312]
  000ae	8d 04 40	 lea	 eax, DWORD PTR [eax+eax*2]
  000b1	5b		 pop	 ebx
  000b2	03 c0		 add	 eax, eax
  000b4	8a 44 c6 25	 mov	 al, BYTE PTR [esi+eax*8+37]
  000b8	5f		 pop	 edi
  000b9	5e		 pop	 esi

; 1833 : }

  000ba	5d		 pop	 ebp
  000bb	c2 08 00	 ret	 8
$LN3@AddKillPoi:
  000be	5b		 pop	 ebx
  000bf	5f		 pop	 edi

; 1829 : 		}
; 1830 : 	}
; 1831 : 
; 1832 : 	return FALSE;

  000c0	32 c0		 xor	 al, al
  000c2	5e		 pop	 esi

; 1833 : }

  000c3	5d		 pop	 ebp
  000c4	c2 08 00	 ret	 8
?AddKillPointToUser@CIllusionTempleProcess@@QAEEHE@Z ENDP ; CIllusionTempleProcess::AddKillPointToUser
_TEXT	ENDS
PUBLIC	?RemoveKillPointFromUser@CIllusionTempleProcess@@QAEEHE@Z ; CIllusionTempleProcess::RemoveKillPointFromUser
; Function compile flags: /Ogtp
;	COMDAT ?RemoveKillPointFromUser@CIllusionTempleProcess@@QAEEHE@Z
_TEXT	SEGMENT
_aIndex$ = 8						; size = 4
_btPoint$ = 12						; size = 1
?RemoveKillPointFromUser@CIllusionTempleProcess@@QAEEHE@Z PROC ; CIllusionTempleProcess::RemoveKillPointFromUser, COMDAT
; _this$ = ecx

; 1836 : {

  00000	55		 push	 ebp
  00001	8b ec		 mov	 ebp, esp
  00003	56		 push	 esi
  00004	8b f1		 mov	 esi, ecx

; 1837 : 	if( OBJMAX_RANGE(aIndex) == FALSE )

  00006	8b 4d 08	 mov	 ecx, DWORD PTR _aIndex$[ebp]
  00009	85 c9		 test	 ecx, ecx
  0000b	78 0f		 js	 SHORT $LN10@RemoveKill
  0000d	33 c0		 xor	 eax, eax
  0000f	81 f9 97 3a 00
	00		 cmp	 ecx, 14999		; 00003a97H
  00015	0f 9e c0	 setle	 al
  00018	85 c0		 test	 eax, eax
  0001a	75 1f		 jne	 SHORT $LN5@RemoveKill
$LN10@RemoveKill:

; 1838 : 	{
; 1839 : 		LogAdd("return %s %d", __FILE__, __LINE__);

  0001c	68 2f 07 00 00	 push	 1839			; 0000072fH
  00021	68 00 00 00 00	 push	 OFFSET ??_C@_0BK@DMGNFDO@IllusionTempleProcess?4cpp?$AA@
  00026	68 00 00 00 00	 push	 OFFSET ??_C@_0N@GGPGOPEN@return?5?$CFs?5?$CFd?$AA@
  0002b	ff 15 00 00 00
	00		 call	 DWORD PTR ?LogAdd@@3P6AXPADZZA ; LogAdd
  00031	83 c4 0c	 add	 esp, 12			; 0000000cH

; 1840 : 		return FALSE;

  00034	32 c0		 xor	 al, al
  00036	5e		 pop	 esi

; 1856 : }

  00037	5d		 pop	 ebp
  00038	c2 08 00	 ret	 8
$LN5@RemoveKill:

; 1841 : 	}
; 1842 : 
; 1843 : 	if(gObj[aIndex].m_iIllusionTempleIndex != -1)

  0003b	8b c1		 mov	 eax, ecx
  0003d	69 c0 50 2b 00
	00		 imul	 eax, 11088		; 00002b50H
  00043	53		 push	 ebx
  00044	8b 1d 00 00 00
	00		 mov	 ebx, DWORD PTR ?gObj@@3PAUOBJECTSTRUCT@@A ; gObj
  0004a	8b 94 18 78 20
	00 00		 mov	 edx, DWORD PTR [eax+ebx+8312]
  00051	57		 push	 edi
  00052	8d bc 18 78 20
	00 00		 lea	 edi, DWORD PTR [eax+ebx+8312]
  00059	83 fa ff	 cmp	 edx, -1
  0005c	74 47		 je	 SHORT $LN1@RemoveKill

; 1844 : 	{
; 1845 : 		if(this->m_FloorData[gObj[aIndex].m_iIllusionTempleIndex].m_iTeamPlayerIndex == aIndex || gObj[aIndex].Connected > PLAYER_LOGGED)

  0005e	8d 14 52	 lea	 edx, DWORD PTR [edx+edx*2]
  00061	03 d2		 add	 edx, edx
  00063	39 4c d6 20	 cmp	 DWORD PTR [esi+edx*8+32], ecx
  00067	74 07		 je	 SHORT $LN2@RemoveKill
  00069	83 7c 18 04 02	 cmp	 DWORD PTR [eax+ebx+4], 2
  0006e	7e 35		 jle	 SHORT $LN1@RemoveKill
$LN2@RemoveKill:

; 1846 : 		{
; 1847 : 			if(this->m_FloorData[gObj[aIndex].m_iIllusionTempleIndex].m_btKillCountPoint >= btPoint)

  00070	8a 4d 0c	 mov	 cl, BYTE PTR _btPoint$[ebp]
  00073	38 4c d6 25	 cmp	 BYTE PTR [esi+edx*8+37], cl
  00077	72 2c		 jb	 SHORT $LN1@RemoveKill

; 1848 : 			{
; 1849 : 				this->m_FloorData[gObj[aIndex].m_iIllusionTempleIndex].m_btKillCountPoint-= btPoint;

  00079	8b 17		 mov	 edx, DWORD PTR [edi]
  0007b	8d 14 52	 lea	 edx, DWORD PTR [edx+edx*2]
  0007e	03 d2		 add	 edx, edx
  00080	28 4c d6 25	 sub	 BYTE PTR [esi+edx*8+37], cl

; 1850 : 				return this->m_FloorData[gObj[aIndex].m_iIllusionTempleIndex].m_btKillCountPoint;

  00084	8b 0d 00 00 00
	00		 mov	 ecx, DWORD PTR ?gObj@@3PAUOBJECTSTRUCT@@A ; gObj
  0008a	8b 84 08 78 20
	00 00		 mov	 eax, DWORD PTR [eax+ecx+8312]
  00091	8d 54 d6 25	 lea	 edx, DWORD PTR [esi+edx*8+37]
  00095	8d 14 40	 lea	 edx, DWORD PTR [eax+eax*2]
  00098	5f		 pop	 edi
  00099	03 d2		 add	 edx, edx
  0009b	8a 44 d6 25	 mov	 al, BYTE PTR [esi+edx*8+37]
  0009f	5b		 pop	 ebx
  000a0	5e		 pop	 esi

; 1856 : }

  000a1	5d		 pop	 ebp
  000a2	c2 08 00	 ret	 8
$LN1@RemoveKill:
  000a5	5f		 pop	 edi
  000a6	5b		 pop	 ebx

; 1851 : 			}
; 1852 : 		}
; 1853 : 	}
; 1854 : 
; 1855 : 	return FALSE;

  000a7	32 c0		 xor	 al, al
  000a9	5e		 pop	 esi

; 1856 : }

  000aa	5d		 pop	 ebp
  000ab	c2 08 00	 ret	 8
?RemoveKillPointFromUser@CIllusionTempleProcess@@QAEEHE@Z ENDP ; CIllusionTempleProcess::RemoveKillPointFromUser
_TEXT	ENDS
PUBLIC	?GetKillCountPointFromUser@CIllusionTempleProcess@@QAEEH@Z ; CIllusionTempleProcess::GetKillCountPointFromUser
; Function compile flags: /Ogtp
;	COMDAT ?GetKillCountPointFromUser@CIllusionTempleProcess@@QAEEH@Z
_TEXT	SEGMENT
_aIndex$ = 8						; size = 4
?GetKillCountPointFromUser@CIllusionTempleProcess@@QAEEH@Z PROC ; CIllusionTempleProcess::GetKillCountPointFromUser, COMDAT
; _this$ = ecx

; 1859 : {

  00000	55		 push	 ebp
  00001	8b ec		 mov	 ebp, esp

; 1860 : 	if( OBJMAX_RANGE(aIndex) == FALSE )

  00003	8b 55 08	 mov	 edx, DWORD PTR _aIndex$[ebp]
  00006	85 d2		 test	 edx, edx
  00008	78 0f		 js	 SHORT $LN9@GetKillCou
  0000a	33 c0		 xor	 eax, eax
  0000c	81 fa 97 3a 00
	00		 cmp	 edx, 14999		; 00003a97H
  00012	0f 9e c0	 setle	 al
  00015	85 c0		 test	 eax, eax
  00017	75 1e		 jne	 SHORT $LN4@GetKillCou
$LN9@GetKillCou:

; 1861 : 	{
; 1862 : 		LogAdd("return %s %d", __FILE__, __LINE__);

  00019	68 46 07 00 00	 push	 1862			; 00000746H
  0001e	68 00 00 00 00	 push	 OFFSET ??_C@_0BK@DMGNFDO@IllusionTempleProcess?4cpp?$AA@
  00023	68 00 00 00 00	 push	 OFFSET ??_C@_0N@GGPGOPEN@return?5?$CFs?5?$CFd?$AA@
  00028	ff 15 00 00 00
	00		 call	 DWORD PTR ?LogAdd@@3P6AXPADZZA ; LogAdd
  0002e	83 c4 0c	 add	 esp, 12			; 0000000cH

; 1863 : 		return FALSE;

  00031	32 c0		 xor	 al, al

; 1875 : }

  00033	5d		 pop	 ebp
  00034	c2 04 00	 ret	 4
$LN4@GetKillCou:

; 1864 : 	}
; 1865 : 
; 1866 : 	if(gObj[aIndex].m_iIllusionTempleIndex != -1)

  00037	8b c2		 mov	 eax, edx
  00039	69 c0 50 2b 00
	00		 imul	 eax, 11088		; 00002b50H
  0003f	56		 push	 esi
  00040	8b 35 00 00 00
	00		 mov	 esi, DWORD PTR ?gObj@@3PAUOBJECTSTRUCT@@A ; gObj
  00046	03 f0		 add	 esi, eax
  00048	8b 86 78 20 00
	00		 mov	 eax, DWORD PTR [esi+8312]
  0004e	83 f8 ff	 cmp	 eax, -1
  00051	74 1b		 je	 SHORT $LN2@GetKillCou

; 1867 : 	{
; 1868 : 		if(this->m_FloorData[gObj[aIndex].m_iIllusionTempleIndex].m_iTeamPlayerIndex == aIndex || gObj[aIndex].Connected > PLAYER_LOGGED)

  00053	8d 04 40	 lea	 eax, DWORD PTR [eax+eax*2]
  00056	c1 e0 04	 shl	 eax, 4
  00059	03 c1		 add	 eax, ecx
  0005b	39 50 20	 cmp	 DWORD PTR [eax+32], edx
  0005e	74 06		 je	 SHORT $LN1@GetKillCou
  00060	83 7e 04 02	 cmp	 DWORD PTR [esi+4], 2
  00064	7e 08		 jle	 SHORT $LN2@GetKillCou
$LN1@GetKillCou:

; 1869 : 		{
; 1870 : 			return this->m_FloorData[gObj[aIndex].m_iIllusionTempleIndex].m_btKillCountPoint;

  00066	8a 40 25	 mov	 al, BYTE PTR [eax+37]
  00069	5e		 pop	 esi

; 1875 : }

  0006a	5d		 pop	 ebp
  0006b	c2 04 00	 ret	 4
$LN2@GetKillCou:

; 1871 : 		}
; 1872 : 	}
; 1873 : 
; 1874 : 	return FALSE;

  0006e	32 c0		 xor	 al, al
  00070	5e		 pop	 esi

; 1875 : }

  00071	5d		 pop	 ebp
  00072	c2 04 00	 ret	 4
?GetKillCountPointFromUser@CIllusionTempleProcess@@QAEEH@Z ENDP ; CIllusionTempleProcess::GetKillCountPointFromUser
_TEXT	ENDS
PUBLIC	?UpdateKillCountPointFromUser@CIllusionTempleProcess@@QAEHHE@Z ; CIllusionTempleProcess::UpdateKillCountPointFromUser
; Function compile flags: /Ogtp
;	COMDAT ?UpdateKillCountPointFromUser@CIllusionTempleProcess@@QAEHHE@Z
_TEXT	SEGMENT
_aIndex$ = 8						; size = 4
_btPoint$ = 12						; size = 1
?UpdateKillCountPointFromUser@CIllusionTempleProcess@@QAEHHE@Z PROC ; CIllusionTempleProcess::UpdateKillCountPointFromUser, COMDAT
; _this$ = ecx

; 1878 : {

  00000	55		 push	 ebp
  00001	8b ec		 mov	 ebp, esp

; 1879 : 	if( OBJMAX_RANGE(aIndex) == FALSE )

  00003	8b 55 08	 mov	 edx, DWORD PTR _aIndex$[ebp]
  00006	85 d2		 test	 edx, edx
  00008	78 0f		 js	 SHORT $LN9@UpdateKill
  0000a	33 c0		 xor	 eax, eax
  0000c	81 fa 97 3a 00
	00		 cmp	 edx, 14999		; 00003a97H
  00012	0f 9e c0	 setle	 al
  00015	85 c0		 test	 eax, eax
  00017	75 1e		 jne	 SHORT $LN4@UpdateKill
$LN9@UpdateKill:

; 1880 : 	{
; 1881 : 		LogAdd("return %s %d", __FILE__, __LINE__);

  00019	68 59 07 00 00	 push	 1881			; 00000759H
  0001e	68 00 00 00 00	 push	 OFFSET ??_C@_0BK@DMGNFDO@IllusionTempleProcess?4cpp?$AA@
  00023	68 00 00 00 00	 push	 OFFSET ??_C@_0N@GGPGOPEN@return?5?$CFs?5?$CFd?$AA@
  00028	ff 15 00 00 00
	00		 call	 DWORD PTR ?LogAdd@@3P6AXPADZZA ; LogAdd
  0002e	83 c4 0c	 add	 esp, 12			; 0000000cH

; 1882 : 		return FALSE;

  00031	33 c0		 xor	 eax, eax

; 1895 : }

  00033	5d		 pop	 ebp
  00034	c2 08 00	 ret	 8
$LN4@UpdateKill:

; 1883 : 	}
; 1884 : 
; 1885 : 	if(gObj[aIndex].m_iIllusionTempleIndex != -1)

  00037	8b c2		 mov	 eax, edx
  00039	69 c0 50 2b 00
	00		 imul	 eax, 11088		; 00002b50H
  0003f	56		 push	 esi
  00040	8b 35 00 00 00
	00		 mov	 esi, DWORD PTR ?gObj@@3PAUOBJECTSTRUCT@@A ; gObj
  00046	03 f0		 add	 esi, eax
  00048	8b 86 78 20 00
	00		 mov	 eax, DWORD PTR [esi+8312]
  0004e	83 f8 ff	 cmp	 eax, -1
  00051	74 23		 je	 SHORT $LN2@UpdateKill

; 1886 : 	{
; 1887 : 		if(this->m_FloorData[gObj[aIndex].m_iIllusionTempleIndex].m_iTeamPlayerIndex == aIndex || gObj[aIndex].Connected > PLAYER_LOGGED)

  00053	8d 04 40	 lea	 eax, DWORD PTR [eax+eax*2]
  00056	c1 e0 04	 shl	 eax, 4
  00059	03 c1		 add	 eax, ecx
  0005b	39 50 20	 cmp	 DWORD PTR [eax+32], edx
  0005e	74 06		 je	 SHORT $LN1@UpdateKill
  00060	83 7e 04 02	 cmp	 DWORD PTR [esi+4], 2
  00064	7e 10		 jle	 SHORT $LN2@UpdateKill
$LN1@UpdateKill:

; 1888 : 		{
; 1889 : 			this->m_FloorData[gObj[aIndex].m_iIllusionTempleIndex].m_btKillCountPoint = btPoint;

  00066	8a 4d 0c	 mov	 cl, BYTE PTR _btPoint$[ebp]
  00069	88 48 25	 mov	 BYTE PTR [eax+37], cl

; 1890 : 			return TRUE;

  0006c	b8 01 00 00 00	 mov	 eax, 1
  00071	5e		 pop	 esi

; 1895 : }

  00072	5d		 pop	 ebp
  00073	c2 08 00	 ret	 8
$LN2@UpdateKill:

; 1891 : 		}
; 1892 : 	}
; 1893 : 
; 1894 : 	return FALSE;

  00076	33 c0		 xor	 eax, eax
  00078	5e		 pop	 esi

; 1895 : }

  00079	5d		 pop	 ebp
  0007a	c2 08 00	 ret	 8
?UpdateKillCountPointFromUser@CIllusionTempleProcess@@QAEHHE@Z ENDP ; CIllusionTempleProcess::UpdateKillCountPointFromUser
_TEXT	ENDS
PUBLIC	?ResetUserKillCountPoint@CIllusionTempleProcess@@QAEXXZ ; CIllusionTempleProcess::ResetUserKillCountPoint
; Function compile flags: /Ogtp
;	COMDAT ?ResetUserKillCountPoint@CIllusionTempleProcess@@QAEXXZ
_TEXT	SEGMENT
?ResetUserKillCountPoint@CIllusionTempleProcess@@QAEXXZ PROC ; CIllusionTempleProcess::ResetUserKillCountPoint, COMDAT
; _this$ = ecx

; 1899 : 	for(int i = 0; i < MAX_FLOOR_USER; i++)
; 1900 : 	{
; 1901 : 		this->m_FloorData[i].m_btKillCountPoint = MAX_FLOOR_USER;

  00000	b0 0a		 mov	 al, 10			; 0000000aH
  00002	88 41 25	 mov	 BYTE PTR [ecx+37], al
  00005	88 41 55	 mov	 BYTE PTR [ecx+85], al
  00008	88 81 85 00 00
	00		 mov	 BYTE PTR [ecx+133], al
  0000e	88 81 b5 00 00
	00		 mov	 BYTE PTR [ecx+181], al
  00014	88 81 e5 00 00
	00		 mov	 BYTE PTR [ecx+229], al
  0001a	88 81 15 01 00
	00		 mov	 BYTE PTR [ecx+277], al
  00020	88 81 45 01 00
	00		 mov	 BYTE PTR [ecx+325], al
  00026	88 81 75 01 00
	00		 mov	 BYTE PTR [ecx+373], al
  0002c	88 81 a5 01 00
	00		 mov	 BYTE PTR [ecx+421], al
  00032	88 81 d5 01 00
	00		 mov	 BYTE PTR [ecx+469], al

; 1902 : 	}
; 1903 : }

  00038	c3		 ret	 0
?ResetUserKillCountPoint@CIllusionTempleProcess@@QAEXXZ ENDP ; CIllusionTempleProcess::ResetUserKillCountPoint
_TEXT	ENDS
PUBLIC	?IncreaseUserKillCount@CIllusionTempleProcess@@QAEXH@Z ; CIllusionTempleProcess::IncreaseUserKillCount
; Function compile flags: /Ogtp
;	COMDAT ?IncreaseUserKillCount@CIllusionTempleProcess@@QAEXH@Z
_TEXT	SEGMENT
_aIndex$ = 8						; size = 4
?IncreaseUserKillCount@CIllusionTempleProcess@@QAEXH@Z PROC ; CIllusionTempleProcess::IncreaseUserKillCount, COMDAT
; _this$ = ecx

; 1906 : {

  00000	55		 push	 ebp
  00001	8b ec		 mov	 ebp, esp

; 1907 : 	if( OBJMAX_RANGE(aIndex) == FALSE )

  00003	8b 55 08	 mov	 edx, DWORD PTR _aIndex$[ebp]
  00006	85 d2		 test	 edx, edx
  00008	78 0f		 js	 SHORT $LN10@IncreaseUs
  0000a	33 c0		 xor	 eax, eax
  0000c	81 fa 97 3a 00
	00		 cmp	 edx, 14999		; 00003a97H
  00012	0f 9e c0	 setle	 al
  00015	85 c0		 test	 eax, eax
  00017	75 1c		 jne	 SHORT $LN5@IncreaseUs
$LN10@IncreaseUs:

; 1908 : 	{
; 1909 : 		LogAdd("return %s %d", __FILE__, __LINE__);

  00019	68 75 07 00 00	 push	 1909			; 00000775H
  0001e	68 00 00 00 00	 push	 OFFSET ??_C@_0BK@DMGNFDO@IllusionTempleProcess?4cpp?$AA@
  00023	68 00 00 00 00	 push	 OFFSET ??_C@_0N@GGPGOPEN@return?5?$CFs?5?$CFd?$AA@
  00028	ff 15 00 00 00
	00		 call	 DWORD PTR ?LogAdd@@3P6AXPADZZA ; LogAdd
  0002e	83 c4 0c	 add	 esp, 12			; 0000000cH

; 1922 : 		}
; 1923 : 	}
; 1924 : }

  00031	5d		 pop	 ebp
  00032	c2 04 00	 ret	 4
$LN5@IncreaseUs:

; 1910 : 		return;
; 1911 : 	}
; 1912 : 
; 1913 : 	if(gObj[aIndex].m_iIllusionTempleIndex != -1)

  00035	8b c2		 mov	 eax, edx
  00037	69 c0 50 2b 00
	00		 imul	 eax, 11088		; 00002b50H
  0003d	56		 push	 esi
  0003e	8b 35 00 00 00
	00		 mov	 esi, DWORD PTR ?gObj@@3PAUOBJECTSTRUCT@@A ; gObj
  00044	03 f0		 add	 esi, eax
  00046	8b 86 78 20 00
	00		 mov	 eax, DWORD PTR [esi+8312]
  0004c	83 f8 ff	 cmp	 eax, -1
  0004f	74 27		 je	 SHORT $LN11@IncreaseUs

; 1914 : 	{
; 1915 : 		if(this->m_FloorData[gObj[aIndex].m_iIllusionTempleIndex].m_iTeamPlayerIndex == aIndex || gObj[aIndex].Connected > PLAYER_LOGGED)

  00051	8d 04 40	 lea	 eax, DWORD PTR [eax+eax*2]
  00054	03 c0		 add	 eax, eax
  00056	39 54 c1 20	 cmp	 DWORD PTR [ecx+eax*8+32], edx
  0005a	74 06		 je	 SHORT $LN2@IncreaseUs
  0005c	83 7e 04 02	 cmp	 DWORD PTR [esi+4], 2
  00060	7e 16		 jle	 SHORT $LN11@IncreaseUs
$LN2@IncreaseUs:

; 1916 : 		{
; 1917 : 			if(this->m_FloorData[gObj[aIndex].m_iIllusionTempleIndex].m_btUserKillCount > (BYTE)-1)

  00062	80 7c c1 30 ff	 cmp	 BYTE PTR [ecx+eax*8+48], 255 ; 000000ffH
  00067	77 0f		 ja	 SHORT $LN11@IncreaseUs

; 1918 : 			{
; 1919 : 				return;
; 1920 : 			}
; 1921 : 			this->m_FloorData[gObj[aIndex].m_iIllusionTempleIndex].m_btUserKillCount+= 1;

  00069	8b 86 78 20 00
	00		 mov	 eax, DWORD PTR [esi+8312]
  0006f	8d 44 40 03	 lea	 eax, DWORD PTR [eax+eax*2+3]
  00073	03 c0		 add	 eax, eax
  00075	fe 04 c1	 inc	 BYTE PTR [ecx+eax*8]
$LN11@IncreaseUs:
  00078	5e		 pop	 esi

; 1922 : 		}
; 1923 : 	}
; 1924 : }

  00079	5d		 pop	 ebp
  0007a	c2 04 00	 ret	 4
?IncreaseUserKillCount@CIllusionTempleProcess@@QAEXH@Z ENDP ; CIllusionTempleProcess::IncreaseUserKillCount
_TEXT	ENDS
PUBLIC	?IncreaseMonsterKillCount@CIllusionTempleProcess@@QAEXH@Z ; CIllusionTempleProcess::IncreaseMonsterKillCount
; Function compile flags: /Ogtp
;	COMDAT ?IncreaseMonsterKillCount@CIllusionTempleProcess@@QAEXH@Z
_TEXT	SEGMENT
_aIndex$ = 8						; size = 4
?IncreaseMonsterKillCount@CIllusionTempleProcess@@QAEXH@Z PROC ; CIllusionTempleProcess::IncreaseMonsterKillCount, COMDAT
; _this$ = ecx

; 1927 : {

  00000	55		 push	 ebp
  00001	8b ec		 mov	 ebp, esp

; 1928 : 	if( OBJMAX_RANGE(aIndex) == FALSE )

  00003	8b 55 08	 mov	 edx, DWORD PTR _aIndex$[ebp]
  00006	85 d2		 test	 edx, edx
  00008	78 0f		 js	 SHORT $LN10@IncreaseMo
  0000a	33 c0		 xor	 eax, eax
  0000c	81 fa 97 3a 00
	00		 cmp	 edx, 14999		; 00003a97H
  00012	0f 9e c0	 setle	 al
  00015	85 c0		 test	 eax, eax
  00017	75 1c		 jne	 SHORT $LN5@IncreaseMo
$LN10@IncreaseMo:

; 1929 : 	{
; 1930 : 		LogAdd("return %s %d", __FILE__, __LINE__);

  00019	68 8a 07 00 00	 push	 1930			; 0000078aH
  0001e	68 00 00 00 00	 push	 OFFSET ??_C@_0BK@DMGNFDO@IllusionTempleProcess?4cpp?$AA@
  00023	68 00 00 00 00	 push	 OFFSET ??_C@_0N@GGPGOPEN@return?5?$CFs?5?$CFd?$AA@
  00028	ff 15 00 00 00
	00		 call	 DWORD PTR ?LogAdd@@3P6AXPADZZA ; LogAdd
  0002e	83 c4 0c	 add	 esp, 12			; 0000000cH

; 1943 : 		}
; 1944 : 	}
; 1945 : }

  00031	5d		 pop	 ebp
  00032	c2 04 00	 ret	 4
$LN5@IncreaseMo:

; 1931 : 		return;
; 1932 : 	}
; 1933 : 
; 1934 : 	if(gObj[aIndex].m_iIllusionTempleIndex != -1)

  00035	8b c2		 mov	 eax, edx
  00037	69 c0 50 2b 00
	00		 imul	 eax, 11088		; 00002b50H
  0003d	56		 push	 esi
  0003e	8b 35 00 00 00
	00		 mov	 esi, DWORD PTR ?gObj@@3PAUOBJECTSTRUCT@@A ; gObj
  00044	03 f0		 add	 esi, eax
  00046	8b 86 78 20 00
	00		 mov	 eax, DWORD PTR [esi+8312]
  0004c	83 f8 ff	 cmp	 eax, -1
  0004f	74 2b		 je	 SHORT $LN11@IncreaseMo

; 1935 : 	{
; 1936 : 		if(this->m_FloorData[gObj[aIndex].m_iIllusionTempleIndex].m_iTeamPlayerIndex == aIndex || gObj[aIndex].Connected > PLAYER_LOGGED)

  00051	8d 04 40	 lea	 eax, DWORD PTR [eax+eax*2]
  00054	03 c0		 add	 eax, eax
  00056	39 54 c1 20	 cmp	 DWORD PTR [ecx+eax*8+32], edx
  0005a	74 06		 je	 SHORT $LN2@IncreaseMo
  0005c	83 7e 04 02	 cmp	 DWORD PTR [esi+4], 2
  00060	7e 1a		 jle	 SHORT $LN11@IncreaseMo
$LN2@IncreaseMo:

; 1937 : 		{
; 1938 : 			if(this->m_FloorData[gObj[aIndex].m_iIllusionTempleIndex].m_btMonsterRewardKillCount > (BYTE)-1)

  00062	80 7c c1 31 ff	 cmp	 BYTE PTR [ecx+eax*8+49], 255 ; 000000ffH
  00067	77 13		 ja	 SHORT $LN11@IncreaseMo

; 1939 : 			{
; 1940 : 				return;
; 1941 : 			}
; 1942 : 			this->m_FloorData[gObj[aIndex].m_iIllusionTempleIndex].m_btMonsterRewardKillCount+= 1;

  00069	8b 86 78 20 00
	00		 mov	 eax, DWORD PTR [esi+8312]
  0006f	8d 14 40	 lea	 edx, DWORD PTR [eax+eax*2]
  00072	03 d2		 add	 edx, edx
  00074	fe 44 d1 31	 inc	 BYTE PTR [ecx+edx*8+49]
  00078	8d 44 d1 31	 lea	 eax, DWORD PTR [ecx+edx*8+49]
$LN11@IncreaseMo:
  0007c	5e		 pop	 esi

; 1943 : 		}
; 1944 : 	}
; 1945 : }

  0007d	5d		 pop	 ebp
  0007e	c2 04 00	 ret	 4
?IncreaseMonsterKillCount@CIllusionTempleProcess@@QAEXH@Z ENDP ; CIllusionTempleProcess::IncreaseMonsterKillCount
_TEXT	ENDS
PUBLIC	?ResetAllKillCount@CIllusionTempleProcess@@QAEXXZ ; CIllusionTempleProcess::ResetAllKillCount
; Function compile flags: /Ogtp
;	COMDAT ?ResetAllKillCount@CIllusionTempleProcess@@QAEXXZ
_TEXT	SEGMENT
?ResetAllKillCount@CIllusionTempleProcess@@QAEXXZ PROC	; CIllusionTempleProcess::ResetAllKillCount, COMDAT
; _this$ = ecx

; 1949 : 	for(int i = 0; i < MAX_FLOOR_USER; i++)
; 1950 : 	{
; 1951 : 		this->m_FloorData[i].m_btUserKillCount = 0;

  00000	66 c7 41 30 00
	00		 mov	 WORD PTR [ecx+48], 0
  00006	66 c7 41 60 00
	00		 mov	 WORD PTR [ecx+96], 0
  0000c	66 c7 81 90 00
	00 00 00 00	 mov	 WORD PTR [ecx+144], 0
  00015	66 c7 81 c0 00
	00 00 00 00	 mov	 WORD PTR [ecx+192], 0
  0001e	66 c7 81 f0 00
	00 00 00 00	 mov	 WORD PTR [ecx+240], 0
  00027	66 c7 81 20 01
	00 00 00 00	 mov	 WORD PTR [ecx+288], 0
  00030	66 c7 81 50 01
	00 00 00 00	 mov	 WORD PTR [ecx+336], 0
  00039	66 c7 81 80 01
	00 00 00 00	 mov	 WORD PTR [ecx+384], 0
  00042	66 c7 81 b0 01
	00 00 00 00	 mov	 WORD PTR [ecx+432], 0
  0004b	66 c7 81 e0 01
	00 00 00 00	 mov	 WORD PTR [ecx+480], 0

; 1952 : 		this->m_FloorData[i].m_btMonsterRewardKillCount = 0;
; 1953 : 	}
; 1954 : }

  00054	c3		 ret	 0
?ResetAllKillCount@CIllusionTempleProcess@@QAEXXZ ENDP	; CIllusionTempleProcess::ResetAllKillCount
_TEXT	ENDS
PUBLIC	?IncreaseTeamPlayerReward@CIllusionTempleProcess@@QAEXH@Z ; CIllusionTempleProcess::IncreaseTeamPlayerReward
; Function compile flags: /Ogtp
;	COMDAT ?IncreaseTeamPlayerReward@CIllusionTempleProcess@@QAEXH@Z
_TEXT	SEGMENT
_aIndex$ = 8						; size = 4
?IncreaseTeamPlayerReward@CIllusionTempleProcess@@QAEXH@Z PROC ; CIllusionTempleProcess::IncreaseTeamPlayerReward, COMDAT
; _this$ = ecx

; 1957 : {

  00000	55		 push	 ebp
  00001	8b ec		 mov	 ebp, esp

; 1958 : 	if( OBJMAX_RANGE(aIndex) == FALSE )

  00003	8b 55 08	 mov	 edx, DWORD PTR _aIndex$[ebp]
  00006	85 d2		 test	 edx, edx
  00008	78 0f		 js	 SHORT $LN10@IncreaseTe
  0000a	33 c0		 xor	 eax, eax
  0000c	81 fa 97 3a 00
	00		 cmp	 edx, 14999		; 00003a97H
  00012	0f 9e c0	 setle	 al
  00015	85 c0		 test	 eax, eax
  00017	75 1c		 jne	 SHORT $LN5@IncreaseTe
$LN10@IncreaseTe:

; 1959 : 	{
; 1960 : 		LogAdd("return %s %d", __FILE__, __LINE__);

  00019	68 a8 07 00 00	 push	 1960			; 000007a8H
  0001e	68 00 00 00 00	 push	 OFFSET ??_C@_0BK@DMGNFDO@IllusionTempleProcess?4cpp?$AA@
  00023	68 00 00 00 00	 push	 OFFSET ??_C@_0N@GGPGOPEN@return?5?$CFs?5?$CFd?$AA@
  00028	ff 15 00 00 00
	00		 call	 DWORD PTR ?LogAdd@@3P6AXPADZZA ; LogAdd
  0002e	83 c4 0c	 add	 esp, 12			; 0000000cH

; 1973 : 		}
; 1974 : 	}
; 1975 : }

  00031	5d		 pop	 ebp
  00032	c2 04 00	 ret	 4
$LN5@IncreaseTe:

; 1961 : 		return;
; 1962 : 	}
; 1963 : 
; 1964 : 	if(gObj[aIndex].m_iIllusionTempleIndex != -1)

  00035	8b c2		 mov	 eax, edx
  00037	69 c0 50 2b 00
	00		 imul	 eax, 11088		; 00002b50H
  0003d	56		 push	 esi
  0003e	8b 35 00 00 00
	00		 mov	 esi, DWORD PTR ?gObj@@3PAUOBJECTSTRUCT@@A ; gObj
  00044	03 f0		 add	 esi, eax
  00046	8b 86 78 20 00
	00		 mov	 eax, DWORD PTR [esi+8312]
  0004c	83 f8 ff	 cmp	 eax, -1
  0004f	74 2b		 je	 SHORT $LN11@IncreaseTe

; 1965 : 	{
; 1966 : 		if(this->m_FloorData[gObj[aIndex].m_iIllusionTempleIndex].m_iTeamPlayerIndex == aIndex || gObj[aIndex].Connected > PLAYER_LOGGED)

  00051	8d 04 40	 lea	 eax, DWORD PTR [eax+eax*2]
  00054	03 c0		 add	 eax, eax
  00056	39 54 c1 20	 cmp	 DWORD PTR [ecx+eax*8+32], edx
  0005a	74 06		 je	 SHORT $LN2@IncreaseTe
  0005c	83 7e 04 02	 cmp	 DWORD PTR [esi+4], 2
  00060	7e 1a		 jle	 SHORT $LN11@IncreaseTe
$LN2@IncreaseTe:

; 1967 : 		{
; 1968 : 			if(this->m_FloorData[gObj[aIndex].m_iIllusionTempleIndex].m_btPlayerRewardKillCount > (BYTE)-1)

  00062	80 7c c1 32 ff	 cmp	 BYTE PTR [ecx+eax*8+50], 255 ; 000000ffH
  00067	77 13		 ja	 SHORT $LN11@IncreaseTe

; 1969 : 			{
; 1970 : 				return;
; 1971 : 			}
; 1972 : 			this->m_FloorData[gObj[aIndex].m_iIllusionTempleIndex].m_btPlayerRewardKillCount+= 1;

  00069	8b 86 78 20 00
	00		 mov	 eax, DWORD PTR [esi+8312]
  0006f	8d 14 40	 lea	 edx, DWORD PTR [eax+eax*2]
  00072	03 d2		 add	 edx, edx
  00074	fe 44 d1 32	 inc	 BYTE PTR [ecx+edx*8+50]
  00078	8d 44 d1 32	 lea	 eax, DWORD PTR [ecx+edx*8+50]
$LN11@IncreaseTe:
  0007c	5e		 pop	 esi

; 1973 : 		}
; 1974 : 	}
; 1975 : }

  0007d	5d		 pop	 ebp
  0007e	c2 04 00	 ret	 4
?IncreaseTeamPlayerReward@CIllusionTempleProcess@@QAEXH@Z ENDP ; CIllusionTempleProcess::IncreaseTeamPlayerReward
_TEXT	ENDS
PUBLIC	?ResetPlayerReward@CIllusionTempleProcess@@QAEXXZ ; CIllusionTempleProcess::ResetPlayerReward
; Function compile flags: /Ogtp
;	COMDAT ?ResetPlayerReward@CIllusionTempleProcess@@QAEXXZ
_TEXT	SEGMENT
?ResetPlayerReward@CIllusionTempleProcess@@QAEXXZ PROC	; CIllusionTempleProcess::ResetPlayerReward, COMDAT
; _this$ = ecx

; 1979 : 	for(int i = 0; i < MAX_FLOOR_USER; i++)
; 1980 : 	{
; 1981 : 		this->m_FloorData[i].m_btPlayerRewardKillCount = 0;

  00000	32 c0		 xor	 al, al
  00002	88 41 32	 mov	 BYTE PTR [ecx+50], al
  00005	88 41 62	 mov	 BYTE PTR [ecx+98], al
  00008	88 81 92 00 00
	00		 mov	 BYTE PTR [ecx+146], al
  0000e	88 81 c2 00 00
	00		 mov	 BYTE PTR [ecx+194], al
  00014	88 81 f2 00 00
	00		 mov	 BYTE PTR [ecx+242], al
  0001a	88 81 22 01 00
	00		 mov	 BYTE PTR [ecx+290], al
  00020	88 81 52 01 00
	00		 mov	 BYTE PTR [ecx+338], al
  00026	88 81 82 01 00
	00		 mov	 BYTE PTR [ecx+386], al
  0002c	88 81 b2 01 00
	00		 mov	 BYTE PTR [ecx+434], al
  00032	88 81 e2 01 00
	00		 mov	 BYTE PTR [ecx+482], al

; 1982 : 	}
; 1983 : }

  00038	c3		 ret	 0
?ResetPlayerReward@CIllusionTempleProcess@@QAEXXZ ENDP	; CIllusionTempleProcess::ResetPlayerReward
_TEXT	ENDS
PUBLIC	?IncreaseUsedKillCount@CIllusionTempleProcess@@QAEXH@Z ; CIllusionTempleProcess::IncreaseUsedKillCount
; Function compile flags: /Ogtp
;	COMDAT ?IncreaseUsedKillCount@CIllusionTempleProcess@@QAEXH@Z
_TEXT	SEGMENT
_aIndex$ = 8						; size = 4
?IncreaseUsedKillCount@CIllusionTempleProcess@@QAEXH@Z PROC ; CIllusionTempleProcess::IncreaseUsedKillCount, COMDAT
; _this$ = ecx

; 1986 : {

  00000	55		 push	 ebp
  00001	8b ec		 mov	 ebp, esp

; 1987 : 	if( OBJMAX_RANGE(aIndex) == FALSE )

  00003	8b 55 08	 mov	 edx, DWORD PTR _aIndex$[ebp]
  00006	85 d2		 test	 edx, edx
  00008	78 0f		 js	 SHORT $LN10@IncreaseUs@2
  0000a	33 c0		 xor	 eax, eax
  0000c	81 fa 97 3a 00
	00		 cmp	 edx, 14999		; 00003a97H
  00012	0f 9e c0	 setle	 al
  00015	85 c0		 test	 eax, eax
  00017	75 1c		 jne	 SHORT $LN5@IncreaseUs@2
$LN10@IncreaseUs@2:

; 1988 : 	{
; 1989 : 		LogAdd("return %s %d", __FILE__, __LINE__);

  00019	68 c5 07 00 00	 push	 1989			; 000007c5H
  0001e	68 00 00 00 00	 push	 OFFSET ??_C@_0BK@DMGNFDO@IllusionTempleProcess?4cpp?$AA@
  00023	68 00 00 00 00	 push	 OFFSET ??_C@_0N@GGPGOPEN@return?5?$CFs?5?$CFd?$AA@
  00028	ff 15 00 00 00
	00		 call	 DWORD PTR ?LogAdd@@3P6AXPADZZA ; LogAdd
  0002e	83 c4 0c	 add	 esp, 12			; 0000000cH

; 2002 : 		}
; 2003 : 	}
; 2004 : }

  00031	5d		 pop	 ebp
  00032	c2 04 00	 ret	 4
$LN5@IncreaseUs@2:

; 1990 : 		return;
; 1991 : 	}
; 1992 : 
; 1993 : 	if(gObj[aIndex].m_iIllusionTempleIndex != -1)

  00035	8b c2		 mov	 eax, edx
  00037	69 c0 50 2b 00
	00		 imul	 eax, 11088		; 00002b50H
  0003d	56		 push	 esi
  0003e	8b 35 00 00 00
	00		 mov	 esi, DWORD PTR ?gObj@@3PAUOBJECTSTRUCT@@A ; gObj
  00044	03 f0		 add	 esi, eax
  00046	8b 86 78 20 00
	00		 mov	 eax, DWORD PTR [esi+8312]
  0004c	83 f8 ff	 cmp	 eax, -1
  0004f	74 2b		 je	 SHORT $LN11@IncreaseUs@2

; 1994 : 	{
; 1995 : 		if(this->m_FloorData[gObj[aIndex].m_iIllusionTempleIndex].m_iTeamPlayerIndex == aIndex || gObj[aIndex].Connected > PLAYER_LOGGED)

  00051	8d 04 40	 lea	 eax, DWORD PTR [eax+eax*2]
  00054	03 c0		 add	 eax, eax
  00056	39 54 c1 20	 cmp	 DWORD PTR [ecx+eax*8+32], edx
  0005a	74 06		 je	 SHORT $LN2@IncreaseUs@2
  0005c	83 7e 04 02	 cmp	 DWORD PTR [esi+4], 2
  00060	7e 1a		 jle	 SHORT $LN11@IncreaseUs@2
$LN2@IncreaseUs@2:

; 1996 : 		{
; 1997 : 			if(this->m_FloorData[gObj[aIndex].m_iIllusionTempleIndex].m_btUsedKillCountPoint > (BYTE)-1)

  00062	80 7c c1 33 ff	 cmp	 BYTE PTR [ecx+eax*8+51], 255 ; 000000ffH
  00067	77 13		 ja	 SHORT $LN11@IncreaseUs@2

; 1998 : 			{
; 1999 : 				return;
; 2000 : 			}
; 2001 : 			this->m_FloorData[gObj[aIndex].m_iIllusionTempleIndex].m_btUsedKillCountPoint+= 1;

  00069	8b 86 78 20 00
	00		 mov	 eax, DWORD PTR [esi+8312]
  0006f	8d 14 40	 lea	 edx, DWORD PTR [eax+eax*2]
  00072	03 d2		 add	 edx, edx
  00074	fe 44 d1 33	 inc	 BYTE PTR [ecx+edx*8+51]
  00078	8d 44 d1 33	 lea	 eax, DWORD PTR [ecx+edx*8+51]
$LN11@IncreaseUs@2:
  0007c	5e		 pop	 esi

; 2002 : 		}
; 2003 : 	}
; 2004 : }

  0007d	5d		 pop	 ebp
  0007e	c2 04 00	 ret	 4
?IncreaseUsedKillCount@CIllusionTempleProcess@@QAEXH@Z ENDP ; CIllusionTempleProcess::IncreaseUsedKillCount
_TEXT	ENDS
PUBLIC	?ResetUserUsedKillCount@CIllusionTempleProcess@@QAEXXZ ; CIllusionTempleProcess::ResetUserUsedKillCount
; Function compile flags: /Ogtp
;	COMDAT ?ResetUserUsedKillCount@CIllusionTempleProcess@@QAEXXZ
_TEXT	SEGMENT
?ResetUserUsedKillCount@CIllusionTempleProcess@@QAEXXZ PROC ; CIllusionTempleProcess::ResetUserUsedKillCount, COMDAT
; _this$ = ecx

; 2008 : 	for(int i = 0; i < MAX_FLOOR_USER; i++)
; 2009 : 	{
; 2010 : 		this->m_FloorData[i].m_btUsedKillCountPoint = 0;

  00000	32 c0		 xor	 al, al
  00002	88 41 33	 mov	 BYTE PTR [ecx+51], al
  00005	88 41 63	 mov	 BYTE PTR [ecx+99], al
  00008	88 81 93 00 00
	00		 mov	 BYTE PTR [ecx+147], al
  0000e	88 81 c3 00 00
	00		 mov	 BYTE PTR [ecx+195], al
  00014	88 81 f3 00 00
	00		 mov	 BYTE PTR [ecx+243], al
  0001a	88 81 23 01 00
	00		 mov	 BYTE PTR [ecx+291], al
  00020	88 81 53 01 00
	00		 mov	 BYTE PTR [ecx+339], al
  00026	88 81 83 01 00
	00		 mov	 BYTE PTR [ecx+387], al
  0002c	88 81 b3 01 00
	00		 mov	 BYTE PTR [ecx+435], al
  00032	88 81 e3 01 00
	00		 mov	 BYTE PTR [ecx+483], al

; 2011 : 	}
; 2012 : }

  00038	c3		 ret	 0
?ResetUserUsedKillCount@CIllusionTempleProcess@@QAEXXZ ENDP ; CIllusionTempleProcess::ResetUserUsedKillCount
_TEXT	ENDS
PUBLIC	?GCIllusionTempleSkillCancel@CIllusionTempleProcess@@QAEXPAUOBJECTSTRUCT@@G@Z ; CIllusionTempleProcess::GCIllusionTempleSkillCancel
EXTRN	?MsgSendV2@@YAXPAUOBJECTSTRUCT@@PAEH@Z:PROC	; MsgSendV2
; Function compile flags: /Ogtp
;	COMDAT ?GCIllusionTempleSkillCancel@CIllusionTempleProcess@@QAEXPAUOBJECTSTRUCT@@G@Z
_TEXT	SEGMENT
_pMsg$ = -8						; size = 8
_lpObj$ = 8						; size = 4
_skill$ = 12						; size = 2
?GCIllusionTempleSkillCancel@CIllusionTempleProcess@@QAEXPAUOBJECTSTRUCT@@G@Z PROC ; CIllusionTempleProcess::GCIllusionTempleSkillCancel, COMDAT
; _this$ = ecx

; 2176 : {

  00000	55		 push	 ebp
  00001	8b ec		 mov	 ebp, esp
  00003	83 ec 08	 sub	 esp, 8
  00006	56		 push	 esi

; 2177 : 	PMSG_CANCEL_SKILL_STATE pMsg;
; 2178 : 
; 2179 : 	PHeadSubSetB((LPBYTE)&pMsg, 0xBF, 0x07, sizeof(pMsg));

  00007	6a 08		 push	 8
  00009	6a 07		 push	 7
  0000b	8d 45 f8	 lea	 eax, DWORD PTR _pMsg$[ebp]
  0000e	68 bf 00 00 00	 push	 191			; 000000bfH
  00013	50		 push	 eax
  00014	e8 00 00 00 00	 call	 ?PHeadSubSetB@@YAXPAEEEH@Z ; PHeadSubSetB

; 2180 : 
; 2181 : 	pMsg.m_btSkillIDH = SET_NUMBERH(skill);

  00019	8b 45 0c	 mov	 eax, DWORD PTR _skill$[ebp]

; 2182 : 	pMsg.m_btSkillIDL = SET_NUMBERL(skill);
; 2183 : 
; 2184 : 	pMsg.m_wTargetIndex = lpObj->m_Index;

  0001c	8b 75 08	 mov	 esi, DWORD PTR _lpObj$[ebp]
  0001f	66 8b 16	 mov	 dx, WORD PTR [esi]
  00022	8b c8		 mov	 ecx, eax
  00024	88 45 fd	 mov	 BYTE PTR _pMsg$[ebp+5], al

; 2185 : 
; 2186 : 	DataSend(lpObj->m_Index,(LPBYTE)&pMsg,pMsg.h.size);

  00027	0f b6 45 f9	 movzx	 eax, BYTE PTR _pMsg$[ebp+1]
  0002b	c1 e9 08	 shr	 ecx, 8
  0002e	88 4d fc	 mov	 BYTE PTR _pMsg$[ebp+4], cl
  00031	50		 push	 eax
  00032	8d 4d f8	 lea	 ecx, DWORD PTR _pMsg$[ebp]
  00035	66 89 55 fe	 mov	 WORD PTR _pMsg$[ebp+6], dx
  00039	8b 16		 mov	 edx, DWORD PTR [esi]
  0003b	51		 push	 ecx
  0003c	52		 push	 edx
  0003d	e8 00 00 00 00	 call	 ?DataSend@@YAHHPAEK@Z	; DataSend

; 2187 : 	MsgSendV2(lpObj, (LPBYTE)&pMsg, pMsg.h.size);

  00042	0f b6 45 f9	 movzx	 eax, BYTE PTR _pMsg$[ebp+1]
  00046	50		 push	 eax
  00047	8d 4d f8	 lea	 ecx, DWORD PTR _pMsg$[ebp]
  0004a	51		 push	 ecx
  0004b	56		 push	 esi
  0004c	e8 00 00 00 00	 call	 ?MsgSendV2@@YAXPAUOBJECTSTRUCT@@PAEH@Z ; MsgSendV2
  00051	83 c4 28	 add	 esp, 40			; 00000028H
  00054	5e		 pop	 esi

; 2188 : }

  00055	8b e5		 mov	 esp, ebp
  00057	5d		 pop	 ebp
  00058	c2 08 00	 ret	 8
?GCIllusionTempleSkillCancel@CIllusionTempleProcess@@QAEXPAUOBJECTSTRUCT@@G@Z ENDP ; CIllusionTempleProcess::GCIllusionTempleSkillCancel
_TEXT	ENDS
PUBLIC	?ShieldSpell@CIllusionTempleProcess@@QAEHPAUOBJECTSTRUCT@@@Z ; CIllusionTempleProcess::ShieldSpell
EXTRN	?gObjApplyBuffEffectDuration@@YAEPAUOBJECTSTRUCT@@HEHEHH@Z:PROC ; gObjApplyBuffEffectDuration
; Function compile flags: /Ogtp
;	COMDAT ?ShieldSpell@CIllusionTempleProcess@@QAEHPAUOBJECTSTRUCT@@@Z
_TEXT	SEGMENT
_lpObj$ = 8						; size = 4
?ShieldSpell@CIllusionTempleProcess@@QAEHPAUOBJECTSTRUCT@@@Z PROC ; CIllusionTempleProcess::ShieldSpell, COMDAT
; _this$ = ecx

; 2191 : {

  00000	55		 push	 ebp
  00001	8b ec		 mov	 ebp, esp

; 2192 : 	this->m_FloorData[lpObj->m_iIllusionTempleIndex].m_dwShieldSpellTime = 15;

  00003	8b 55 08	 mov	 edx, DWORD PTR _lpObj$[ebp]
  00006	8b 82 78 20 00
	00		 mov	 eax, DWORD PTR [edx+8312]

; 2193 : 	gObjApplyBuffEffectDuration(lpObj, AT_ILLUSION_SHIELD_SPELL, 0, 0, 0, 0, -10); //season 3.0 add-on

  0000c	6a f6		 push	 -10			; fffffff6H
  0000e	6a 00		 push	 0
  00010	6a 00		 push	 0
  00012	6a 00		 push	 0
  00014	6a 00		 push	 0
  00016	8d 04 40	 lea	 eax, DWORD PTR [eax+eax*2]
  00019	03 c0		 add	 eax, eax
  0001b	6a 22		 push	 34			; 00000022H
  0001d	52		 push	 edx
  0001e	c7 44 c1 28 0f
	00 00 00	 mov	 DWORD PTR [ecx+eax*8+40], 15 ; 0000000fH
  00026	e8 00 00 00 00	 call	 ?gObjApplyBuffEffectDuration@@YAEPAUOBJECTSTRUCT@@HEHEHH@Z ; gObjApplyBuffEffectDuration
  0002b	83 c4 1c	 add	 esp, 28			; 0000001cH

; 2194 : 	return TRUE;

  0002e	b8 01 00 00 00	 mov	 eax, 1

; 2195 : }

  00033	5d		 pop	 ebp
  00034	c2 04 00	 ret	 4
?ShieldSpell@CIllusionTempleProcess@@QAEHPAUOBJECTSTRUCT@@@Z ENDP ; CIllusionTempleProcess::ShieldSpell
_TEXT	ENDS
PUBLIC	?RestrictionSpell@CIllusionTempleProcess@@QAEHPAUOBJECTSTRUCT@@0@Z ; CIllusionTempleProcess::RestrictionSpell
EXTRN	?gObjSetPosition@@YAXHHH@Z:PROC			; gObjSetPosition
EXTRN	?gCheckSkillDistance@@YAHHHH@Z:PROC		; gCheckSkillDistance
; Function compile flags: /Ogtp
;	COMDAT ?RestrictionSpell@CIllusionTempleProcess@@QAEHPAUOBJECTSTRUCT@@0@Z
_TEXT	SEGMENT
_lpObj$ = 8						; size = 4
_lpTargetObj$ = 12					; size = 4
?RestrictionSpell@CIllusionTempleProcess@@QAEHPAUOBJECTSTRUCT@@0@Z PROC ; CIllusionTempleProcess::RestrictionSpell, COMDAT
; _this$ = ecx

; 2198 : {

  00000	55		 push	 ebp
  00001	8b ec		 mov	 ebp, esp
  00003	53		 push	 ebx

; 2199 : 	if(gCheckSkillDistance(lpObj->m_Index, lpTargetObj->m_Index, 211) == FALSE)

  00004	8b 5d 08	 mov	 ebx, DWORD PTR _lpObj$[ebp]
  00007	56		 push	 esi
  00008	8b 75 0c	 mov	 esi, DWORD PTR _lpTargetObj$[ebp]
  0000b	8b 06		 mov	 eax, DWORD PTR [esi]
  0000d	57		 push	 edi
  0000e	68 d3 00 00 00	 push	 211			; 000000d3H
  00013	8b f9		 mov	 edi, ecx
  00015	8b 0b		 mov	 ecx, DWORD PTR [ebx]
  00017	50		 push	 eax
  00018	51		 push	 ecx
  00019	e8 00 00 00 00	 call	 ?gCheckSkillDistance@@YAHHHH@Z ; gCheckSkillDistance
  0001e	83 c4 0c	 add	 esp, 12			; 0000000cH
  00021	85 c0		 test	 eax, eax
  00023	75 07		 jne	 SHORT $LN1@Restrictio
  00025	5f		 pop	 edi
  00026	5e		 pop	 esi
  00027	5b		 pop	 ebx

; 2213 : }

  00028	5d		 pop	 ebp
  00029	c2 08 00	 ret	 8
$LN1@Restrictio:

; 2200 : 	{
; 2201 : 		return FALSE;
; 2202 : 	}
; 2203 : 
; 2204 : 	this->m_FloorData[lpTargetObj->m_iIllusionTempleIndex].m_dwRestrictionSpellTime = 15;

  0002c	8b 86 78 20 00
	00		 mov	 eax, DWORD PTR [esi+8312]
  00032	8d 14 40	 lea	 edx, DWORD PTR [eax+eax*2]
  00035	03 d2		 add	 edx, edx

; 2205 : 
; 2206 : 	lpTargetObj->lpAttackObj = lpObj;
; 2207 : 	gObjApplyBuffEffectDuration(lpTargetObj, AT_ILLUSION_RESTRICTION_SPELL, 0, 0, 0, 0, -10); //season 3.0 add-on

  00037	6a f6		 push	 -10			; fffffff6H
  00039	c7 44 d7 2c 0f
	00 00 00	 mov	 DWORD PTR [edi+edx*8+44], 15 ; 0000000fH
  00041	89 9e d4 03 00
	00		 mov	 DWORD PTR [esi+980], ebx
  00047	33 db		 xor	 ebx, ebx
  00049	53		 push	 ebx
  0004a	53		 push	 ebx
  0004b	53		 push	 ebx
  0004c	53		 push	 ebx
  0004d	6a 41		 push	 65			; 00000041H
  0004f	56		 push	 esi
  00050	e8 00 00 00 00	 call	 ?gObjApplyBuffEffectDuration@@YAEPAUOBJECTSTRUCT@@HEHEHH@Z ; gObjApplyBuffEffectDuration

; 2208 : 	lpTargetObj->PathCount = 0;
; 2209 : 	lpTargetObj->PathStartEnd = 0;
; 2210 : 
; 2211 : 	gObjSetPosition(lpTargetObj->m_Index, lpTargetObj->X, lpTargetObj->Y);

  00055	0f bf 86 46 01
	00 00		 movsx	 eax, WORD PTR [esi+326]
  0005c	0f bf 8e 44 01
	00 00		 movsx	 ecx, WORD PTR [esi+324]
  00063	8b 16		 mov	 edx, DWORD PTR [esi]
  00065	50		 push	 eax
  00066	51		 push	 ecx
  00067	52		 push	 edx
  00068	89 9e 84 01 00
	00		 mov	 DWORD PTR [esi+388], ebx
  0006e	88 9e 8c 01 00
	00		 mov	 BYTE PTR [esi+396], bl
  00074	e8 00 00 00 00	 call	 ?gObjSetPosition@@YAXHHH@Z ; gObjSetPosition
  00079	83 c4 28	 add	 esp, 40			; 00000028H
  0007c	5f		 pop	 edi
  0007d	5e		 pop	 esi

; 2212 : 	return TRUE;

  0007e	8d 43 01	 lea	 eax, DWORD PTR [ebx+1]
  00081	5b		 pop	 ebx

; 2213 : }

  00082	5d		 pop	 ebp
  00083	c2 08 00	 ret	 8
?RestrictionSpell@CIllusionTempleProcess@@QAEHPAUOBJECTSTRUCT@@0@Z ENDP ; CIllusionTempleProcess::RestrictionSpell
_TEXT	ENDS
PUBLIC	?ShieldClashSpell@CIllusionTempleProcess@@QAEHPAUOBJECTSTRUCT@@0@Z ; CIllusionTempleProcess::ShieldClashSpell
EXTRN	?GCDamageSend@@YAXHHHHHH@Z:PROC			; GCDamageSend
; Function compile flags: /Ogtp
;	COMDAT ?ShieldClashSpell@CIllusionTempleProcess@@QAEHPAUOBJECTSTRUCT@@0@Z
_TEXT	SEGMENT
_lpObj$ = 8						; size = 4
_lpTargetObj$ = 12					; size = 4
?ShieldClashSpell@CIllusionTempleProcess@@QAEHPAUOBJECTSTRUCT@@0@Z PROC ; CIllusionTempleProcess::ShieldClashSpell, COMDAT
; _this$ = ecx

; 2276 : {

  00000	55		 push	 ebp
  00001	8b ec		 mov	 ebp, esp
  00003	56		 push	 esi

; 2277 : 	int loc2;
; 2278 : 	if(gCheckSkillDistance(lpObj->m_Index, lpTargetObj->m_Index, 213) == FALSE)

  00004	8b 75 0c	 mov	 esi, DWORD PTR _lpTargetObj$[ebp]
  00007	8b 06		 mov	 eax, DWORD PTR [esi]
  00009	57		 push	 edi
  0000a	8b 7d 08	 mov	 edi, DWORD PTR _lpObj$[ebp]
  0000d	8b 0f		 mov	 ecx, DWORD PTR [edi]
  0000f	68 d5 00 00 00	 push	 213			; 000000d5H
  00014	50		 push	 eax
  00015	51		 push	 ecx
  00016	e8 00 00 00 00	 call	 ?gCheckSkillDistance@@YAHHHH@Z ; gCheckSkillDistance
  0001b	83 c4 0c	 add	 esp, 12			; 0000000cH
  0001e	85 c0		 test	 eax, eax
  00020	75 06		 jne	 SHORT $LN2@ShieldClas
  00022	5f		 pop	 edi
  00023	5e		 pop	 esi

; 2297 : }

  00024	5d		 pop	 ebp
  00025	c2 08 00	 ret	 8
$LN2@ShieldClas:

; 2279 : 	{
; 2280 : 		return FALSE;
; 2281 : 	}
; 2282 : 
; 2283 : 	lpTargetObj->lpAttackObj = lpObj;
; 2284 : 
; 2285 : 	if(lpTargetObj->iShield <= 1)

  00028	8b 86 54 01 00
	00		 mov	 eax, DWORD PTR [esi+340]
  0002e	89 be d4 03 00
	00		 mov	 DWORD PTR [esi+980], edi
  00034	83 f8 01	 cmp	 eax, 1
  00037	7f 21		 jg	 SHORT $LN1@ShieldClas

; 2286 : 	{
; 2287 : 		GCDamageSend(lpObj->m_Index, lpTargetObj->m_Index, 0, 0, 0, 0);

  00039	8b 16		 mov	 edx, DWORD PTR [esi]
  0003b	8b 07		 mov	 eax, DWORD PTR [edi]
  0003d	6a 00		 push	 0
  0003f	6a 00		 push	 0
  00041	6a 00		 push	 0
  00043	6a 00		 push	 0
  00045	52		 push	 edx
  00046	50		 push	 eax

; 2288 : 		return TRUE;
; 2289 : 	}
; 2290 : 
; 2291 : 	loc2 = lpTargetObj->iShield / 2;
; 2292 : 
; 2293 : 	lpTargetObj->iShield = loc2;
; 2294 : 
; 2295 : 	GCDamageSend(lpObj->m_Index, lpTargetObj->m_Index, 0, 0, 0, loc2);

  00047	e8 00 00 00 00	 call	 ?GCDamageSend@@YAXHHHHHH@Z ; GCDamageSend
  0004c	83 c4 18	 add	 esp, 24			; 00000018H
  0004f	5f		 pop	 edi

; 2296 : 	return TRUE;

  00050	b8 01 00 00 00	 mov	 eax, 1
  00055	5e		 pop	 esi

; 2297 : }

  00056	5d		 pop	 ebp
  00057	c2 08 00	 ret	 8
$LN1@ShieldClas:

; 2288 : 		return TRUE;
; 2289 : 	}
; 2290 : 
; 2291 : 	loc2 = lpTargetObj->iShield / 2;
; 2292 : 
; 2293 : 	lpTargetObj->iShield = loc2;
; 2294 : 
; 2295 : 	GCDamageSend(lpObj->m_Index, lpTargetObj->m_Index, 0, 0, 0, loc2);

  0005a	8b 0e		 mov	 ecx, DWORD PTR [esi]
  0005c	99		 cdq
  0005d	2b c2		 sub	 eax, edx
  0005f	d1 f8		 sar	 eax, 1
  00061	50		 push	 eax
  00062	6a 00		 push	 0
  00064	6a 00		 push	 0
  00066	6a 00		 push	 0
  00068	89 86 54 01 00
	00		 mov	 DWORD PTR [esi+340], eax
  0006e	8b 17		 mov	 edx, DWORD PTR [edi]
  00070	51		 push	 ecx
  00071	52		 push	 edx
  00072	e8 00 00 00 00	 call	 ?GCDamageSend@@YAXHHHHHH@Z ; GCDamageSend
  00077	83 c4 18	 add	 esp, 24			; 00000018H
  0007a	5f		 pop	 edi

; 2296 : 	return TRUE;

  0007b	b8 01 00 00 00	 mov	 eax, 1
  00080	5e		 pop	 esi

; 2297 : }

  00081	5d		 pop	 ebp
  00082	c2 08 00	 ret	 8
?ShieldClashSpell@CIllusionTempleProcess@@QAEHPAUOBJECTSTRUCT@@0@Z ENDP ; CIllusionTempleProcess::ShieldClashSpell
_TEXT	ENDS
PUBLIC	__$ArrayPad$
PUBLIC	?GCIllusionTempleSkillApply@CIllusionTempleProcess@@QAEXHHGE@Z ; CIllusionTempleProcess::GCIllusionTempleSkillApply
; Function compile flags: /Ogtp
;	COMDAT ?GCIllusionTempleSkillApply@CIllusionTempleProcess@@QAEXHHGE@Z
_TEXT	SEGMENT
_pMsg$ = -16						; size = 12
__$ArrayPad$ = -4					; size = 4
_aIndex$ = 8						; size = 4
_aTargetIndex$ = 12					; size = 4
_skill$ = 16						; size = 2
_btUseType$ = 20					; size = 1
?GCIllusionTempleSkillApply@CIllusionTempleProcess@@QAEXHHGE@Z PROC ; CIllusionTempleProcess::GCIllusionTempleSkillApply, COMDAT
; _this$ = ecx

; 2300 : {

  00000	55		 push	 ebp
  00001	8b ec		 mov	 ebp, esp
  00003	83 ec 10	 sub	 esp, 16			; 00000010H
  00006	a1 00 00 00 00	 mov	 eax, DWORD PTR ___security_cookie
  0000b	33 c5		 xor	 eax, ebp
  0000d	89 45 fc	 mov	 DWORD PTR __$ArrayPad$[ebp], eax
  00010	53		 push	 ebx
  00011	56		 push	 esi
  00012	8b 75 08	 mov	 esi, DWORD PTR _aIndex$[ebp]

; 2301 : 	PMSG_APPLY_SKILL_STATE pMsg;
; 2302 : 
; 2303 : 	PHeadSubSetB((LPBYTE)&pMsg, 0xBF, 0x02, sizeof(pMsg));

  00015	6a 0c		 push	 12			; 0000000cH
  00017	6a 02		 push	 2
  00019	8d 45 f0	 lea	 eax, DWORD PTR _pMsg$[ebp]
  0001c	68 bf 00 00 00	 push	 191			; 000000bfH
  00021	50		 push	 eax
  00022	e8 00 00 00 00	 call	 ?PHeadSubSetB@@YAXPAEEEH@Z ; PHeadSubSetB

; 2304 : 
; 2305 : 	pMsg.m_btType = btUseType;
; 2306 : 	pMsg.m_btSkillIDH = SET_NUMBERH(skill);

  00027	8b 45 10	 mov	 eax, DWORD PTR _skill$[ebp]

; 2307 : 	pMsg.m_btSkillIDL = SET_NUMBERL(skill);
; 2308 : 	pMsg.m_wIndex = aIndex;
; 2309 : 	pMsg.m_wTargetIndex = aTargetIndex;

  0002a	66 8b 55 0c	 mov	 dx, WORD PTR _aTargetIndex$[ebp]
  0002e	8a 5d 14	 mov	 bl, BYTE PTR _btUseType$[ebp]
  00031	8b c8		 mov	 ecx, eax
  00033	88 45 f6	 mov	 BYTE PTR _pMsg$[ebp+6], al

; 2310 : 
; 2311 : 	DataSend(aIndex,(LPBYTE)&pMsg,pMsg.h.size);

  00036	0f b6 45 f1	 movzx	 eax, BYTE PTR _pMsg$[ebp+1]
  0003a	c1 e9 08	 shr	 ecx, 8
  0003d	88 4d f5	 mov	 BYTE PTR _pMsg$[ebp+5], cl
  00040	50		 push	 eax
  00041	8d 4d f0	 lea	 ecx, DWORD PTR _pMsg$[ebp]
  00044	51		 push	 ecx
  00045	56		 push	 esi
  00046	88 5d f4	 mov	 BYTE PTR _pMsg$[ebp+4], bl
  00049	66 89 75 f8	 mov	 WORD PTR _pMsg$[ebp+8], si
  0004d	66 89 55 fa	 mov	 WORD PTR _pMsg$[ebp+10], dx
  00051	e8 00 00 00 00	 call	 ?DataSend@@YAHHPAEK@Z	; DataSend
  00056	83 c4 1c	 add	 esp, 28			; 0000001cH

; 2312 : 
; 2313 : 	if(btUseType == 1)

  00059	80 fb 01	 cmp	 bl, 1
  0005c	75 1e		 jne	 SHORT $LN1@GCIllusion

; 2314 : 	{
; 2315 : 		MsgSendV2(&gObj[aIndex], (LPBYTE)&pMsg, pMsg.h.size);

  0005e	0f b6 55 f1	 movzx	 edx, BYTE PTR _pMsg$[ebp+1]
  00062	69 f6 50 2b 00
	00		 imul	 esi, 11088		; 00002b50H
  00068	03 35 00 00 00
	00		 add	 esi, DWORD PTR ?gObj@@3PAUOBJECTSTRUCT@@A ; gObj
  0006e	52		 push	 edx
  0006f	8d 45 f0	 lea	 eax, DWORD PTR _pMsg$[ebp]
  00072	50		 push	 eax
  00073	56		 push	 esi
  00074	e8 00 00 00 00	 call	 ?MsgSendV2@@YAXPAUOBJECTSTRUCT@@PAEH@Z ; MsgSendV2
  00079	83 c4 0c	 add	 esp, 12			; 0000000cH
$LN1@GCIllusion:

; 2316 : 	}
; 2317 : }

  0007c	8b 4d fc	 mov	 ecx, DWORD PTR __$ArrayPad$[ebp]
  0007f	5e		 pop	 esi
  00080	33 cd		 xor	 ecx, ebp
  00082	5b		 pop	 ebx
  00083	e8 00 00 00 00	 call	 @__security_check_cookie@4
  00088	8b e5		 mov	 esp, ebp
  0008a	5d		 pop	 ebp
  0008b	c2 10 00	 ret	 16			; 00000010H
?GCIllusionTempleSkillApply@CIllusionTempleProcess@@QAEXHHGE@Z ENDP ; CIllusionTempleProcess::GCIllusionTempleSkillApply
_TEXT	ENDS
PUBLIC	?ResetAndClearSkills@CIllusionTempleProcess@@QAEXPAUOBJECTSTRUCT@@@Z ; CIllusionTempleProcess::ResetAndClearSkills
EXTRN	?gObjRemoveBuffEffect@@YAEPAUOBJECTSTRUCT@@H@Z:PROC ; gObjRemoveBuffEffect
EXTRN	?GCSendIllusionTempleKillCount@@YAXHE@Z:PROC	; GCSendIllusionTempleKillCount
; Function compile flags: /Ogtp
;	COMDAT ?ResetAndClearSkills@CIllusionTempleProcess@@QAEXPAUOBJECTSTRUCT@@@Z
_TEXT	SEGMENT
_lpObj$ = 8						; size = 4
?ResetAndClearSkills@CIllusionTempleProcess@@QAEXPAUOBJECTSTRUCT@@@Z PROC ; CIllusionTempleProcess::ResetAndClearSkills, COMDAT
; _this$ = ecx

; 2320 : {

  00000	55		 push	 ebp
  00001	8b ec		 mov	 ebp, esp
  00003	56		 push	 esi

; 2321 : 	if(lpObj->m_iIllusionTempleIndex == -1 || this->m_FloorData[lpObj->m_iIllusionTempleIndex].m_iTeamPlayerIndex != lpObj->m_Index)

  00004	8b 75 08	 mov	 esi, DWORD PTR _lpObj$[ebp]
  00007	57		 push	 edi
  00008	8b f9		 mov	 edi, ecx
  0000a	8b 8e 78 20 00
	00		 mov	 ecx, DWORD PTR [esi+8312]
  00010	83 f9 ff	 cmp	 ecx, -1
  00013	0f 84 9c 00 00
	00		 je	 $LN3@ResetAndCl
  00019	8b 06		 mov	 eax, DWORD PTR [esi]
  0001b	8d 0c 49	 lea	 ecx, DWORD PTR [ecx+ecx*2]
  0001e	03 c9		 add	 ecx, ecx
  00020	39 44 cf 20	 cmp	 DWORD PTR [edi+ecx*8+32], eax
  00024	0f 85 8b 00 00
	00		 jne	 $LN3@ResetAndCl

; 2322 : 	{
; 2323 : 		return;
; 2324 : 	}
; 2325 : 
; 2326 : 	this->DropRelicsItem(lpObj->m_Index);

  0002a	50		 push	 eax
  0002b	8b cf		 mov	 ecx, edi
  0002d	e8 00 00 00 00	 call	 ?DropRelicsItem@CIllusionTempleProcess@@QAEXH@Z ; CIllusionTempleProcess::DropRelicsItem

; 2327 : 
; 2328 : 	this->m_FloorData[lpObj->m_iIllusionTempleIndex].m_btKillCountPoint = 10;

  00032	8b 86 78 20 00
	00		 mov	 eax, DWORD PTR [esi+8312]
  00038	8d 14 40	 lea	 edx, DWORD PTR [eax+eax*2]
  0003b	03 d2		 add	 edx, edx
  0003d	c6 44 d7 25 0a	 mov	 BYTE PTR [edi+edx*8+37], 10 ; 0000000aH

; 2329 : 
; 2330 : 	GCSendIllusionTempleKillCount(lpObj->m_Index, 10);

  00042	8b 06		 mov	 eax, DWORD PTR [esi]
  00044	6a 0a		 push	 10			; 0000000aH
  00046	50		 push	 eax
  00047	e8 00 00 00 00	 call	 ?GCSendIllusionTempleKillCount@@YAXHE@Z ; GCSendIllusionTempleKillCount

; 2331 : 
; 2332 : 	if(this->m_FloorData[lpObj->m_iIllusionTempleIndex].m_dwShieldSpellTime > 0) //Cancel Shield Skill

  0004c	8b 86 78 20 00
	00		 mov	 eax, DWORD PTR [esi+8312]
  00052	8d 0c 40	 lea	 ecx, DWORD PTR [eax+eax*2]
  00055	03 c9		 add	 ecx, ecx
  00057	8d 44 cf 28	 lea	 eax, DWORD PTR [edi+ecx*8+40]
  0005b	83 c4 08	 add	 esp, 8
  0005e	83 38 00	 cmp	 DWORD PTR [eax], 0
  00061	76 1e		 jbe	 SHORT $LN2@ResetAndCl

; 2333 : 	{
; 2334 : 		this->m_FloorData[lpObj->m_iIllusionTempleIndex].m_dwShieldSpellTime = 0;
; 2335 : 		gObjRemoveBuffEffect(lpObj, AT_ILLUSION_SHIELD_SPELL); //season 3.0 add-on

  00063	6a 22		 push	 34			; 00000022H
  00065	56		 push	 esi
  00066	c7 00 00 00 00
	00		 mov	 DWORD PTR [eax], 0
  0006c	e8 00 00 00 00	 call	 ?gObjRemoveBuffEffect@@YAEPAUOBJECTSTRUCT@@H@Z ; gObjRemoveBuffEffect
  00071	83 c4 08	 add	 esp, 8

; 2336 : 		this->GCIllusionTempleSkillCancel(lpObj, 210);

  00074	68 d2 00 00 00	 push	 210			; 000000d2H
  00079	56		 push	 esi
  0007a	8b cf		 mov	 ecx, edi
  0007c	e8 00 00 00 00	 call	 ?GCIllusionTempleSkillCancel@CIllusionTempleProcess@@QAEXPAUOBJECTSTRUCT@@G@Z ; CIllusionTempleProcess::GCIllusionTempleSkillCancel
$LN2@ResetAndCl:

; 2337 : 	}
; 2338 : 
; 2339 : 	if(this->m_FloorData[lpObj->m_iIllusionTempleIndex].m_dwRestrictionSpellTime > 0) //Cancel Stern Skill

  00081	8b 86 78 20 00
	00		 mov	 eax, DWORD PTR [esi+8312]
  00087	8d 14 40	 lea	 edx, DWORD PTR [eax+eax*2]
  0008a	03 d2		 add	 edx, edx
  0008c	83 7c d7 2c 00	 cmp	 DWORD PTR [edi+edx*8+44], 0
  00091	8d 44 d7 2c	 lea	 eax, DWORD PTR [edi+edx*8+44]
  00095	76 1e		 jbe	 SHORT $LN3@ResetAndCl

; 2340 : 	{
; 2341 : 		this->m_FloorData[lpObj->m_iIllusionTempleIndex].m_dwRestrictionSpellTime = 0;
; 2342 : 		gObjRemoveBuffEffect(lpObj, AT_ILLUSION_RESTRICTION_SPELL); //season 3.0 add-on

  00097	6a 41		 push	 65			; 00000041H
  00099	56		 push	 esi
  0009a	c7 00 00 00 00
	00		 mov	 DWORD PTR [eax], 0
  000a0	e8 00 00 00 00	 call	 ?gObjRemoveBuffEffect@@YAEPAUOBJECTSTRUCT@@H@Z ; gObjRemoveBuffEffect
  000a5	83 c4 08	 add	 esp, 8

; 2343 : 		this->GCIllusionTempleSkillCancel(lpObj, 211);

  000a8	68 d3 00 00 00	 push	 211			; 000000d3H
  000ad	56		 push	 esi
  000ae	8b cf		 mov	 ecx, edi
  000b0	e8 00 00 00 00	 call	 ?GCIllusionTempleSkillCancel@CIllusionTempleProcess@@QAEXPAUOBJECTSTRUCT@@G@Z ; CIllusionTempleProcess::GCIllusionTempleSkillCancel
$LN3@ResetAndCl:
  000b5	5f		 pop	 edi
  000b6	5e		 pop	 esi

; 2344 : 	}
; 2345 : }

  000b7	5d		 pop	 ebp
  000b8	c2 04 00	 ret	 4
?ResetAndClearSkills@CIllusionTempleProcess@@QAEXPAUOBJECTSTRUCT@@@Z ENDP ; CIllusionTempleProcess::ResetAndClearSkills
_TEXT	ENDS
PUBLIC	?DropRewardItem@CIllusionTempleProcess@@QAEXH@Z	; CIllusionTempleProcess::DropRewardItem
EXTRN	?ItemSerialCreateSend@@YAXHEEEHEEEEEHEE@Z:PROC	; ItemSerialCreateSend
EXTRN	?ItemGetNumberMake@@YAHHH@Z:PROC		; ItemGetNumberMake
EXTRN	?GenExcOpt@@YAHH@Z:PROC				; GenExcOpt
EXTRN	?ZtConfig@@3VcZtConfigs@@A:BYTE			; ZtConfig
; Function compile flags: /Ogtp
;	COMDAT ?DropRewardItem@CIllusionTempleProcess@@QAEXH@Z
_TEXT	SEGMENT
_aIndex$ = 8						; size = 4
?DropRewardItem@CIllusionTempleProcess@@QAEXH@Z PROC	; CIllusionTempleProcess::DropRewardItem, COMDAT
; _this$ = ecx

; 2530 : {

  00000	55		 push	 ebp
  00001	8b ec		 mov	 ebp, esp
  00003	56		 push	 esi

; 2531 : 	if( OBJMAX_RANGE(aIndex) == FALSE )

  00004	8b 75 08	 mov	 esi, DWORD PTR _aIndex$[ebp]
  00007	85 f6		 test	 esi, esi
  00009	0f 88 11 01 00
	00		 js	 $LN11@DropReward
  0000f	33 c0		 xor	 eax, eax
  00011	81 fe 97 3a 00
	00		 cmp	 esi, 14999		; 00003a97H
  00017	0f 9e c0	 setle	 al
  0001a	85 c0		 test	 eax, eax
  0001c	0f 84 fe 00 00
	00		 je	 $LN11@DropReward

; 2532 : 	{
; 2533 : 		return;
; 2534 : 	}
; 2535 : 
; 2536 : 	if(this->m_FloorData[gObj[aIndex].m_iIllusionTempleIndex].m_iTeamPlayerIndex != gObj[aIndex].m_Index)

  00022	69 f6 50 2b 00
	00		 imul	 esi, 11088		; 00002b50H
  00028	57		 push	 edi
  00029	8b 3d 00 00 00
	00		 mov	 edi, DWORD PTR ?gObj@@3PAUOBJECTSTRUCT@@A ; gObj
  0002f	8b 84 3e 78 20
	00 00		 mov	 eax, DWORD PTR [esi+edi+8312]
  00036	8d 14 40	 lea	 edx, DWORD PTR [eax+eax*2]
  00039	c1 e2 04	 shl	 edx, 4
  0003c	8b 44 0a 20	 mov	 eax, DWORD PTR [edx+ecx+32]
  00040	03 d1		 add	 edx, ecx
  00042	3b 04 3e	 cmp	 eax, DWORD PTR [esi+edi]
  00045	0f 85 d4 00 00
	00		 jne	 $LN15@DropReward

; 2537 : 	{
; 2538 : 		return;
; 2539 : 	}
; 2540 : 
; 2541 : 	if(this->GetState() != 3)

  0004b	e8 00 00 00 00	 call	 ?GetState@CIllusionTempleProcess@@QAEEXZ ; CIllusionTempleProcess::GetState
  00050	3c 03		 cmp	 al, 3
  00052	0f 85 c7 00 00
	00		 jne	 $LN15@DropReward

; 2542 : 	{
; 2543 : 		return;
; 2544 : 	}
; 2545 : 
; 2546 : 	if(this->m_FloorData[gObj[aIndex].m_iIllusionTempleIndex].m_btTeamJoinSide == (BYTE)-1)

  00058	8a 42 24	 mov	 al, BYTE PTR [edx+36]
  0005b	3c ff		 cmp	 al, 255			; 000000ffH
  0005d	0f 84 bc 00 00
	00		 je	 $LN15@DropReward

; 2547 : 	{
; 2548 : 		return;
; 2549 : 	}
; 2550 : 
; 2551 : 	if(this->m_btWinnerTeam == (BYTE)-1)

  00063	8a 89 d2 03 00
	00		 mov	 cl, BYTE PTR [ecx+978]
  00069	80 f9 ff	 cmp	 cl, 255			; 000000ffH
  0006c	0f 84 ad 00 00
	00		 je	 $LN15@DropReward

; 2552 : 	{
; 2553 : 		return;
; 2554 : 	}
; 2555 : 
; 2556 : 	if(this->m_FloorData[gObj[aIndex].m_iIllusionTempleIndex].m_btTeamJoinSide != this->m_btWinnerTeam)

  00072	3a c1		 cmp	 al, cl
  00074	0f 85 a5 00 00
	00		 jne	 $LN15@DropReward

; 2557 : 	{
; 2558 : 		return;
; 2559 : 	}
; 2560 : 
; 2561 : 	if(this->m_FloorData[gObj[aIndex].m_iIllusionTempleIndex].m_bDropReward == 1)

  0007a	b8 01 00 00 00	 mov	 eax, 1
  0007f	39 42 44	 cmp	 DWORD PTR [edx+68], eax
  00082	0f 84 97 00 00
	00		 je	 $LN15@DropReward

; 2562 : 	{
; 2563 : 		return;
; 2564 : 	}
; 2565 : 
; 2566 : 	this->m_FloorData[gObj[aIndex].m_iIllusionTempleIndex].m_bDropReward = 1;

  00088	89 42 44	 mov	 DWORD PTR [edx+68], eax

; 2567 : 	int loc2 = aIndex;
; 2568 : 	//Configs
; 2569 : 	//int Zt_ItDropType	= GetPrivateProfileInt("IllusionTemple","ItDropType",12,"..\\Data\\ZtData\\Events.ini");
; 2570 : 	//int Zt_ItDropID		= GetPrivateProfileInt("IllusionTemple","ItDropID",15,"..\\Data\\ZtData\\Events.ini");
; 2571 : 	//int Zt_ItDropLevel	= GetPrivateProfileInt("IllusionTemple","ItDropLevel",0,"..\\Data\\ZtData\\Events.ini");
; 2572 : 	//int Zt_ItDropSkill	= GetPrivateProfileInt("IllusionTemple","ItDropSkill",0,"..\\Data\\ZtData\\Events.ini");
; 2573 : 	//int Zt_ItDropLuck	= GetPrivateProfileInt("IllusionTemple","ItDropLuck",0,"..\\Data\\ZtData\\Events.ini");
; 2574 : 	//int Zt_ItDropOpt	= GetPrivateProfileInt("IllusionTemple","ItDropOpt",0,"..\\Data\\ZtData\\Events.ini");
; 2575 : 	//int Zt_ItDropExcOpt	= GetPrivateProfileInt("IllusionTemple","ItDropExcOpt",0,"..\\Data\\ZtData\\Events.ini");
; 2576 : 	//int Zt_ItDropAncOpt	= GetPrivateProfileInt("IllusionTemple","ItDropAncOpt",0,"..\\Data\\ZtData\\Events.ini");
; 2577 : 
; 2578 : 	int Exe1 = 0;
; 2579 : 	int Anc1 = 0;
; 2580 : 
; 2581 : 	if ( ZtConfig.Event.Zt_ItDropExcOpt > 0 )

  0008b	a1 10 07 00 00	 mov	 eax, DWORD PTR ?ZtConfig@@3VcZtConfigs@@A+1808
  00090	53		 push	 ebx
  00091	33 db		 xor	 ebx, ebx
  00093	33 ff		 xor	 edi, edi
  00095	85 c0		 test	 eax, eax
  00097	7e 0b		 jle	 SHORT $LN3@DropReward

; 2582 : 		Exe1 = GenExcOpt(ZtConfig.Event.Zt_ItDropExcOpt);

  00099	50		 push	 eax
  0009a	e8 00 00 00 00	 call	 ?GenExcOpt@@YAHH@Z	; GenExcOpt
  0009f	83 c4 04	 add	 esp, 4
  000a2	8b d8		 mov	 ebx, eax
$LN3@DropReward:

; 2583 : 
; 2584 : 	if ( ZtConfig.Event.Zt_ItDropAncOpt == 5 || ZtConfig.Event.Zt_ItDropAncOpt == 10 )

  000a4	a1 14 07 00 00	 mov	 eax, DWORD PTR ?ZtConfig@@3VcZtConfigs@@A+1812
  000a9	83 f8 05	 cmp	 eax, 5
  000ac	74 05		 je	 SHORT $LN1@DropReward
  000ae	83 f8 0a	 cmp	 eax, 10			; 0000000aH
  000b1	75 02		 jne	 SHORT $LN2@DropReward
$LN1@DropReward:

; 2585 : 		Anc1 = ZtConfig.Event.Zt_ItDropAncOpt;

  000b3	8b f8		 mov	 edi, eax
$LN2@DropReward:

; 2586 : 
; 2587 : 	int loc3 = ItemGetNumberMake(ZtConfig.Event.Zt_ItDropType, ZtConfig.Event.Zt_ItDropID);	// Jewel of Chaos

  000b5	8b 0d fc 06 00
	00		 mov	 ecx, DWORD PTR ?ZtConfig@@3VcZtConfigs@@A+1788
  000bb	8b 15 f8 06 00
	00		 mov	 edx, DWORD PTR ?ZtConfig@@3VcZtConfigs@@A+1784
  000c1	51		 push	 ecx
  000c2	52		 push	 edx
  000c3	e8 00 00 00 00	 call	 ?ItemGetNumberMake@@YAHHH@Z ; ItemGetNumberMake

; 2588 : 	ItemSerialCreateSend(gObj[aIndex].m_Index, (BYTE)gObj[aIndex].MapNumber, (BYTE)gObj[aIndex].X, gObj[aIndex].Y,loc3,
; 2589 : 		(BYTE)ZtConfig.Event.Zt_ItDropLevel, 0, (BYTE)ZtConfig.Event.Zt_ItDropSkill, (BYTE)ZtConfig.Event.Zt_ItDropLuck, 
; 2590 : 		(BYTE)ZtConfig.Event.Zt_ItDropOpt, loc2, (BYTE)Exe1, (BYTE)Anc1);

  000c8	8b 55 08	 mov	 edx, DWORD PTR _aIndex$[ebp]
  000cb	8b 0d 00 00 00
	00		 mov	 ecx, DWORD PTR ?gObj@@3PAUOBJECTSTRUCT@@A ; gObj
  000d1	57		 push	 edi
  000d2	53		 push	 ebx
  000d3	52		 push	 edx
  000d4	0f b6 15 0c 07
	00 00		 movzx	 edx, BYTE PTR ?ZtConfig@@3VcZtConfigs@@A+1804
  000db	52		 push	 edx
  000dc	0f b6 15 08 07
	00 00		 movzx	 edx, BYTE PTR ?ZtConfig@@3VcZtConfigs@@A+1800
  000e3	52		 push	 edx
  000e4	0f b6 15 04 07
	00 00		 movzx	 edx, BYTE PTR ?ZtConfig@@3VcZtConfigs@@A+1796
  000eb	52		 push	 edx
  000ec	0f b6 15 00 07
	00 00		 movzx	 edx, BYTE PTR ?ZtConfig@@3VcZtConfigs@@A+1792
  000f3	6a 00		 push	 0
  000f5	52		 push	 edx
  000f6	0f b6 94 0e 44
	01 00 00	 movzx	 edx, BYTE PTR [esi+ecx+324]
  000fe	50		 push	 eax
  000ff	0f b6 84 0e 46
	01 00 00	 movzx	 eax, BYTE PTR [esi+ecx+326]
  00107	50		 push	 eax
  00108	0f b6 84 0e 49
	01 00 00	 movzx	 eax, BYTE PTR [esi+ecx+329]
  00110	8b 0c 0e	 mov	 ecx, DWORD PTR [esi+ecx]
  00113	52		 push	 edx
  00114	50		 push	 eax
  00115	51		 push	 ecx
  00116	e8 00 00 00 00	 call	 ?ItemSerialCreateSend@@YAXHEEEHEEEEEHEE@Z ; ItemSerialCreateSend
  0011b	83 c4 3c	 add	 esp, 60			; 0000003cH
  0011e	5b		 pop	 ebx
$LN15@DropReward:
  0011f	5f		 pop	 edi
$LN11@DropReward:
  00120	5e		 pop	 esi

; 2591 : }

  00121	5d		 pop	 ebp
  00122	c2 04 00	 ret	 4
?DropRewardItem@CIllusionTempleProcess@@QAEXH@Z ENDP	; CIllusionTempleProcess::DropRewardItem
_TEXT	ENDS
PUBLIC	__real@00000000
PUBLIC	?CheckEnterItemPosition@CIllusionTempleProcess@@QAEHHM@Z ; CIllusionTempleProcess::CheckEnterItemPosition
;	COMDAT __real@00000000
CONST	SEGMENT
__real@00000000 DD 000000000r			; 0
; Function compile flags: /Ogtp
CONST	ENDS
;	COMDAT ?CheckEnterItemPosition@CIllusionTempleProcess@@QAEHHM@Z
_TEXT	SEGMENT
_this$ = -8						; size = 4
_loc2$ = -4						; size = 4
_i$216861 = 8						; size = 4
_aIndex$ = 8						; size = 4
_Durability$ = 12					; size = 4
?CheckEnterItemPosition@CIllusionTempleProcess@@QAEHHM@Z PROC ; CIllusionTempleProcess::CheckEnterItemPosition, COMDAT
; _this$ = ecx

; 2594 : {

  00000	55		 push	 ebp
  00001	8b ec		 mov	 ebp, esp
  00003	83 ec 08	 sub	 esp, 8

; 2595 : 	if(OBJMAX_RANGE(aIndex) == FALSE)

  00006	8b 45 08	 mov	 eax, DWORD PTR _aIndex$[ebp]
  00009	56		 push	 esi
  0000a	33 f6		 xor	 esi, esi
  0000c	89 4d f8	 mov	 DWORD PTR _this$[ebp], ecx
  0000f	3b c6		 cmp	 eax, esi
  00011	7c 0e		 jl	 SHORT $LN18@CheckEnter
  00013	33 c9		 xor	 ecx, ecx
  00015	3d 97 3a 00 00	 cmp	 eax, 14999		; 00003a97H
  0001a	0f 9e c1	 setle	 cl
  0001d	3b ce		 cmp	 ecx, esi
  0001f	75 22		 jne	 SHORT $LN10@CheckEnter
$LN18@CheckEnter:

; 2596 : 	{
; 2597 : 		LogAdd("return %s %d", __FILE__, __LINE__);

  00021	68 25 0a 00 00	 push	 2597			; 00000a25H
  00026	68 00 00 00 00	 push	 OFFSET ??_C@_0BK@DMGNFDO@IllusionTempleProcess?4cpp?$AA@
  0002b	68 00 00 00 00	 push	 OFFSET ??_C@_0N@GGPGOPEN@return?5?$CFs?5?$CFd?$AA@
  00030	ff 15 00 00 00
	00		 call	 DWORD PTR ?LogAdd@@3P6AXPADZZA ; LogAdd
  00036	83 c4 0c	 add	 esp, 12			; 0000000cH

; 2598 : 		return -1;

  00039	83 c8 ff	 or	 eax, -1
  0003c	5e		 pop	 esi

; 2630 : }

  0003d	8b e5		 mov	 esp, ebp
  0003f	5d		 pop	 ebp
  00040	c2 08 00	 ret	 8
$LN10@CheckEnter:
  00043	69 c0 50 2b 00
	00		 imul	 eax, 11088		; 00002b50H
  00049	57		 push	 edi

; 2599 : 	}
; 2600 : 
; 2601 : 	int loc2 = -1;

  0004a	c7 45 fc ff ff
	ff ff		 mov	 DWORD PTR _loc2$[ebp], -1

; 2602 : 
; 2603 : 	for( int i = 0; i<INVENTORY_SIZE; i++ )

  00051	89 75 08	 mov	 DWORD PTR _i$216861[ebp], esi
  00054	8d b8 24 0e 00
	00		 lea	 edi, DWORD PTR [eax+3620]
  0005a	53		 push	 ebx
  0005b	eb 03 8d 49 00	 npad	 5
$LL21@CheckEnter:

; 2604 : 	{
; 2605 : 		if( gObj[aIndex].pInventory[i].IsItem() == TRUE )

  00060	a1 00 00 00 00	 mov	 eax, DWORD PTR ?gObj@@3PAUOBJECTSTRUCT@@A ; gObj
  00065	8b 0c 07	 mov	 ecx, DWORD PTR [edi+eax]
  00068	03 ce		 add	 ecx, esi
  0006a	e8 00 00 00 00	 call	 ?IsItem@CItem@@QAEHXZ	; CItem::IsItem
  0006f	83 f8 01	 cmp	 eax, 1
  00072	75 58		 jne	 SHORT $LN8@CheckEnter

; 2606 : 		{
; 2607 : 			if(gObj[aIndex].pInventory[i].m_Type == ITEMGET(13,51) && gObj[aIndex].pInventory[i].m_Level == this->m_btFloorIndex+1) //Blood Scroll

  00074	8b 0d 00 00 00
	00		 mov	 ecx, DWORD PTR ?gObj@@3PAUOBJECTSTRUCT@@A ; gObj
  0007a	8b 0c 0f	 mov	 ecx, DWORD PTR [edi+ecx]
  0007d	0f b7 54 31 06	 movzx	 edx, WORD PTR [ecx+esi+6]
  00082	03 ce		 add	 ecx, esi
  00084	b8 33 1a 00 00	 mov	 eax, 6707		; 00001a33H
  00089	66 3b d0	 cmp	 dx, ax
  0008c	75 22		 jne	 SHORT $LN19@CheckEnter
  0008e	8b 45 f8	 mov	 eax, DWORD PTR _this$[ebp]
  00091	0f b6 80 2c 02
	00 00		 movzx	 eax, BYTE PTR [eax+556]
  00098	0f bf 59 08	 movsx	 ebx, WORD PTR [ecx+8]
  0009c	40		 inc	 eax
  0009d	3b d8		 cmp	 ebx, eax
  0009f	75 0f		 jne	 SHORT $LN19@CheckEnter

; 2608 : 			{
; 2609 : 				if(gObj[aIndex].pInventory[i].m_Durability == Durability)

  000a1	d9 41 24	 fld	 DWORD PTR [ecx+36]
  000a4	d9 45 0c	 fld	 DWORD PTR _Durability$[ebp]
  000a7	da e9		 fucompp
  000a9	df e0		 fnstsw	 ax
  000ab	f6 c4 44	 test	 ah, 68			; 00000044H
  000ae	7b 40		 jnp	 SHORT $LN16@CheckEnter
$LN19@CheckEnter:

; 2612 : 				}
; 2613 : 			}
; 2614 : 			if(gObj[aIndex].pInventory[i].m_Type == ITEMGET(13,61)) //Illusion Temple Ticket (CashShop)

  000b0	b8 3d 1a 00 00	 mov	 eax, 6717		; 00001a3dH
  000b5	66 3b d0	 cmp	 dx, ax
  000b8	75 12		 jne	 SHORT $LN8@CheckEnter

; 2615 : 			{
; 2616 : 				if(gObj[aIndex].pInventory[i].m_Durability > 0.0f)

  000ba	d9 ee		 fldz
  000bc	d8 59 24	 fcomp	 DWORD PTR [ecx+36]
  000bf	df e0		 fnstsw	 ax
  000c1	f6 c4 05	 test	 ah, 5
  000c4	7a 06		 jp	 SHORT $LN8@CheckEnter

; 2617 : 				{
; 2618 : 					loc2 = i;

  000c6	8b 4d 08	 mov	 ecx, DWORD PTR _i$216861[ebp]
  000c9	89 4d fc	 mov	 DWORD PTR _loc2$[ebp], ecx
$LN8@CheckEnter:

; 2602 : 
; 2603 : 	for( int i = 0; i<INVENTORY_SIZE; i++ )

  000cc	ff 45 08	 inc	 DWORD PTR _i$216861[ebp]
  000cf	81 c6 d4 00 00
	00		 add	 esi, 212		; 000000d4H
  000d5	81 fe 70 c3 00
	00		 cmp	 esi, 50032		; 0000c370H
  000db	7c 83		 jl	 SHORT $LL21@CheckEnter

; 2619 : 				}
; 2620 : 			}
; 2621 : 		}
; 2622 : 	}
; 2623 : 
; 2624 : 	if(loc2 >= 0)

  000dd	8b 45 fc	 mov	 eax, DWORD PTR _loc2$[ebp]
  000e0	85 c0		 test	 eax, eax

; 2625 : 	{
; 2626 : 		return loc2;

  000e2	79 03		 jns	 SHORT $LN23@CheckEnter

; 2627 : 	}
; 2628 : 
; 2629 : 	return -1;

  000e4	83 c8 ff	 or	 eax, -1
$LN23@CheckEnter:
  000e7	5b		 pop	 ebx
  000e8	5f		 pop	 edi
  000e9	5e		 pop	 esi

; 2630 : }

  000ea	8b e5		 mov	 esp, ebp
  000ec	5d		 pop	 ebp
  000ed	c2 08 00	 ret	 8
$LN16@CheckEnter:

; 2610 : 				{
; 2611 : 					return i;

  000f0	8b 45 08	 mov	 eax, DWORD PTR _i$216861[ebp]
  000f3	5b		 pop	 ebx
  000f4	5f		 pop	 edi
  000f5	5e		 pop	 esi

; 2630 : }

  000f6	8b e5		 mov	 esp, ebp
  000f8	5d		 pop	 ebp
  000f9	c2 08 00	 ret	 8
?CheckEnterItemPosition@CIllusionTempleProcess@@QAEHHM@Z ENDP ; CIllusionTempleProcess::CheckEnterItemPosition
_TEXT	ENDS
PUBLIC	?CheckEnterItemPosition@CIllusionTempleProcess@@QAEHH@Z ; CIllusionTempleProcess::CheckEnterItemPosition
; Function compile flags: /Ogtp
;	COMDAT ?CheckEnterItemPosition@CIllusionTempleProcess@@QAEHH@Z
_TEXT	SEGMENT
_this$ = -12						; size = 4
tv165 = -8						; size = 4
_loc2$ = -4						; size = 4
_aIndex$ = 8						; size = 4
?CheckEnterItemPosition@CIllusionTempleProcess@@QAEHH@Z PROC ; CIllusionTempleProcess::CheckEnterItemPosition, COMDAT
; _this$ = ecx

; 2633 : {

  00000	55		 push	 ebp
  00001	8b ec		 mov	 ebp, esp
  00003	83 ec 0c	 sub	 esp, 12			; 0000000cH

; 2634 : 	if(OBJMAX_RANGE(aIndex) == FALSE)

  00006	8b 45 08	 mov	 eax, DWORD PTR _aIndex$[ebp]
  00009	89 4d f4	 mov	 DWORD PTR _this$[ebp], ecx
  0000c	85 c0		 test	 eax, eax
  0000e	78 0e		 js	 SHORT $LN19@CheckEnter@2
  00010	33 c9		 xor	 ecx, ecx
  00012	3d 97 3a 00 00	 cmp	 eax, 14999		; 00003a97H
  00017	0f 9e c1	 setle	 cl
  0001a	85 c9		 test	 ecx, ecx
  0001c	75 21		 jne	 SHORT $LN10@CheckEnter@2
$LN19@CheckEnter@2:

; 2635 : 	{
; 2636 : 		LogAdd("return %s %d", __FILE__, __LINE__);

  0001e	68 4c 0a 00 00	 push	 2636			; 00000a4cH
  00023	68 00 00 00 00	 push	 OFFSET ??_C@_0BK@DMGNFDO@IllusionTempleProcess?4cpp?$AA@
  00028	68 00 00 00 00	 push	 OFFSET ??_C@_0N@GGPGOPEN@return?5?$CFs?5?$CFd?$AA@
  0002d	ff 15 00 00 00
	00		 call	 DWORD PTR ?LogAdd@@3P6AXPADZZA ; LogAdd
  00033	83 c4 0c	 add	 esp, 12			; 0000000cH

; 2637 : 		return -1;

  00036	83 c8 ff	 or	 eax, -1

; 2677 : }

  00039	8b e5		 mov	 esp, ebp
  0003b	5d		 pop	 ebp
  0003c	c2 04 00	 ret	 4
$LN10@CheckEnter@2:
  0003f	69 c0 50 2b 00
	00		 imul	 eax, 11088		; 00002b50H
  00045	53		 push	 ebx
  00046	56		 push	 esi

; 2671 : 				}
; 2672 : 			}
; 2673 : 		}
; 2674 : 	}
; 2675 : 
; 2676 : 	return loc2;

  00047	05 24 0e 00 00	 add	 eax, 3620		; 00000e24H
  0004c	57		 push	 edi
  0004d	33 ff		 xor	 edi, edi
  0004f	c7 45 fc ff ff
	ff ff		 mov	 DWORD PTR _loc2$[ebp], -1
  00056	89 45 f8	 mov	 DWORD PTR tv165[ebp], eax
  00059	33 db		 xor	 ebx, ebx
  0005b	eb 03 8d 49 00	 npad	 5
$LL20@CheckEnter@2:

; 2643 : 	{
; 2644 : 		CItem * lpItem = &gObj[aIndex].pInventory[i];

  00060	a1 00 00 00 00	 mov	 eax, DWORD PTR ?gObj@@3PAUOBJECTSTRUCT@@A ; gObj
  00065	8b 4d f8	 mov	 ecx, DWORD PTR tv165[ebp]
  00068	8b 34 01	 mov	 esi, DWORD PTR [ecx+eax]
  0006b	03 f3		 add	 esi, ebx

; 2645 : 
; 2646 : 		if( lpItem->IsItem() == TRUE )

  0006d	8b ce		 mov	 ecx, esi
  0006f	e8 00 00 00 00	 call	 ?IsItem@CItem@@QAEHXZ	; CItem::IsItem
  00074	83 f8 01	 cmp	 eax, 1
  00077	75 7e		 jne	 SHORT $LN8@CheckEnter@2

; 2647 : 		{
; 2648 : 			if(lpItem->m_Type == ITEMGET(13,51) && lpItem->m_Level == this->m_btFloorIndex+1) //Blood Scroll

  00079	ba 33 1a 00 00	 mov	 edx, 6707		; 00001a33H
  0007e	66 39 56 06	 cmp	 WORD PTR [esi+6], dx
  00082	75 38		 jne	 SHORT $LN5@CheckEnter@2
  00084	8b 45 f4	 mov	 eax, DWORD PTR _this$[ebp]
  00087	0f b6 88 2c 02
	00 00		 movzx	 ecx, BYTE PTR [eax+556]
  0008e	0f bf 56 08	 movsx	 edx, WORD PTR [esi+8]
  00092	41		 inc	 ecx
  00093	3b d1		 cmp	 edx, ecx
  00095	75 25		 jne	 SHORT $LN5@CheckEnter@2

; 2649 : 			{
; 2650 : 				if(lpItem->m_Durability > 0.0f)

  00097	d9 ee		 fldz
  00099	d8 5e 24	 fcomp	 DWORD PTR [esi+36]
  0009c	df e0		 fnstsw	 ax
  0009e	f6 c4 05	 test	 ah, 5
  000a1	7b 73		 jnp	 SHORT $LN17@CheckEnter@2

; 2651 : 				{
; 2652 : 					loc2 = i;
; 2653 : 					break;
; 2654 : 				}
; 2655 : 
; 2656 : 				gObjInventoryDeleteItem(aIndex, i);

  000a3	8b 45 08	 mov	 eax, DWORD PTR _aIndex$[ebp]
  000a6	57		 push	 edi
  000a7	50		 push	 eax
  000a8	e8 00 00 00 00	 call	 ?gObjInventoryDeleteItem@@YAEHH@Z ; gObjInventoryDeleteItem

; 2657 : 				GCInventoryItemDeleteSend(aIndex, i, 0);

  000ad	8b 4d 08	 mov	 ecx, DWORD PTR _aIndex$[ebp]
  000b0	6a 00		 push	 0
  000b2	57		 push	 edi
  000b3	51		 push	 ecx
  000b4	e8 00 00 00 00	 call	 ?GCInventoryItemDeleteSend@@YAXHEE@Z ; GCInventoryItemDeleteSend
  000b9	83 c4 14	 add	 esp, 20			; 00000014H
$LN5@CheckEnter@2:

; 2658 : 			}
; 2659 : 			if(lpItem->m_Type == ITEMGET(13,61)) //Illusion Temple Ticket (CashShop)

  000bc	ba 3d 1a 00 00	 mov	 edx, 6717		; 00001a3dH
  000c1	66 39 56 06	 cmp	 WORD PTR [esi+6], dx
  000c5	75 30		 jne	 SHORT $LN8@CheckEnter@2

; 2660 : 			{
; 2661 : 				if(lpItem->m_Durability > 0.0f)

  000c7	d9 ee		 fldz
  000c9	d8 56 24	 fcom	 DWORD PTR [esi+36]
  000cc	df e0		 fnstsw	 ax
  000ce	f6 c4 05	 test	 ah, 5
  000d1	7a 22		 jp	 SHORT $LN22@CheckEnter@2

; 2662 : 				{
; 2663 : 					if(lpItem->m_Durability > 0.0f)

  000d3	d8 5e 24	 fcomp	 DWORD PTR [esi+36]
  000d6	df e0		 fnstsw	 ax
  000d8	f6 c4 05	 test	 ah, 5
  000db	7b 39		 jnp	 SHORT $LN17@CheckEnter@2

; 2666 : 						break;
; 2667 : 					}
; 2668 : 
; 2669 : 					gObjInventoryDeleteItem(aIndex, i);

  000dd	8b 75 08	 mov	 esi, DWORD PTR _aIndex$[ebp]
  000e0	57		 push	 edi
  000e1	56		 push	 esi
  000e2	e8 00 00 00 00	 call	 ?gObjInventoryDeleteItem@@YAEHH@Z ; gObjInventoryDeleteItem

; 2670 : 					GCInventoryItemDeleteSend(aIndex, i, 0);

  000e7	6a 00		 push	 0
  000e9	57		 push	 edi
  000ea	56		 push	 esi
  000eb	e8 00 00 00 00	 call	 ?GCInventoryItemDeleteSend@@YAXHEE@Z ; GCInventoryItemDeleteSend
  000f0	83 c4 14	 add	 esp, 20			; 00000014H
  000f3	eb 02		 jmp	 SHORT $LN8@CheckEnter@2
$LN22@CheckEnter@2:
  000f5	dd d8		 fstp	 ST(0)
$LN8@CheckEnter@2:

; 2638 : 	}
; 2639 : 
; 2640 : 	int loc2 = -1;
; 2641 : 
; 2642 : 	for( int i = 0; i<INVENTORY_SIZE; i++ )

  000f7	81 c3 d4 00 00
	00		 add	 ebx, 212		; 000000d4H
  000fd	47		 inc	 edi
  000fe	81 fb 70 c3 00
	00		 cmp	 ebx, 50032		; 0000c370H
  00104	0f 8c 56 ff ff
	ff		 jl	 $LL20@CheckEnter@2

; 2671 : 				}
; 2672 : 			}
; 2673 : 		}
; 2674 : 	}
; 2675 : 
; 2676 : 	return loc2;

  0010a	8b 45 fc	 mov	 eax, DWORD PTR _loc2$[ebp]
  0010d	5f		 pop	 edi
  0010e	5e		 pop	 esi
  0010f	5b		 pop	 ebx

; 2677 : }

  00110	8b e5		 mov	 esp, ebp
  00112	5d		 pop	 ebp
  00113	c2 04 00	 ret	 4
$LN17@CheckEnter@2:

; 2664 : 					{
; 2665 : 						loc2 = i;

  00116	89 7d fc	 mov	 DWORD PTR _loc2$[ebp], edi

; 2671 : 				}
; 2672 : 			}
; 2673 : 		}
; 2674 : 	}
; 2675 : 
; 2676 : 	return loc2;

  00119	8b c7		 mov	 eax, edi
  0011b	5f		 pop	 edi
  0011c	5e		 pop	 esi
  0011d	5b		 pop	 ebx

; 2677 : }

  0011e	8b e5		 mov	 esp, ebp
  00120	5d		 pop	 ebp
  00121	c2 04 00	 ret	 4
?CheckEnterItemPosition@CIllusionTempleProcess@@QAEHH@Z ENDP ; CIllusionTempleProcess::CheckEnterItemPosition
_TEXT	ENDS
PUBLIC	?DropMonsterItem@CIllusionTempleProcess@@QAEXPAUOBJECTSTRUCT@@@Z ; CIllusionTempleProcess::DropMonsterItem
EXTRN	?IllusionTemple3ItemBag@@3PAVCProbabilityItemBag@@A:DWORD ; IllusionTemple3ItemBag
EXTRN	?IllusionTemple2ItemBag@@3PAVCProbabilityItemBag@@A:DWORD ; IllusionTemple2ItemBag
EXTRN	?DropIllusionTempleEventReward@CProbabilityItemBag@@QAEHHEEE@Z:PROC ; CProbabilityItemBag::DropIllusionTempleEventReward
EXTRN	?IllusionTemple1ItemBag@@3PAVCProbabilityItemBag@@A:DWORD ; IllusionTemple1ItemBag
; Function compile flags: /Ogtp
;	COMDAT ?DropMonsterItem@CIllusionTempleProcess@@QAEXPAUOBJECTSTRUCT@@@Z
_TEXT	SEGMENT
_lpObj$ = 8						; size = 4
?DropMonsterItem@CIllusionTempleProcess@@QAEXPAUOBJECTSTRUCT@@@Z PROC ; CIllusionTempleProcess::DropMonsterItem, COMDAT
; _this$ = ecx

; 2680 : {

  00000	55		 push	 ebp
  00001	8b ec		 mov	 ebp, esp

; 2681 : 	if(this->m_FloorData[lpObj->m_iIllusionTempleIndex].m_iTeamPlayerIndex != lpObj->m_Index)

  00003	8b 45 08	 mov	 eax, DWORD PTR _lpObj$[ebp]
  00006	8b 10		 mov	 edx, DWORD PTR [eax]
  00008	56		 push	 esi
  00009	8b b0 78 20 00
	00		 mov	 esi, DWORD PTR [eax+8312]
  0000f	8d 34 76	 lea	 esi, DWORD PTR [esi+esi*2]
  00012	03 f6		 add	 esi, esi
  00014	39 54 f1 20	 cmp	 DWORD PTR [ecx+esi*8+32], edx
  00018	75 79		 jne	 SHORT $LN4@DropMonste

; 2682 : 	{
; 2683 : 		return;
; 2684 : 	}
; 2685 : 
; 2686 : 	switch(lpObj->MapNumber - MAP_INDEX_ILLUSIONTEMPLE_MIN)

  0001a	8a 88 49 01 00
	00		 mov	 cl, BYTE PTR [eax+329]
  00020	0f b6 f1	 movzx	 esi, cl
  00023	83 c6 d3	 add	 esi, -45		; ffffffd3H
  00026	83 fe 05	 cmp	 esi, 5
  00029	77 68		 ja	 SHORT $LN4@DropMonste
  0002b	ff 24 b5 00 00
	00 00		 jmp	 DWORD PTR $LN10@DropMonste[esi*4]
$LN3@DropMonste:

; 2687 : 	{
; 2688 : 		case 0:
; 2689 : 		case 1:
; 2690 : 			IllusionTemple1ItemBag->DropIllusionTempleEventReward(lpObj->m_Index, lpObj->MapNumber, lpObj->X, lpObj->Y);

  00032	0f b6 b0 46 01
	00 00		 movzx	 esi, BYTE PTR [eax+326]
  00039	0f b6 80 44 01
	00 00		 movzx	 eax, BYTE PTR [eax+324]
  00040	56		 push	 esi
  00041	50		 push	 eax
  00042	51		 push	 ecx
  00043	8b 0d 00 00 00
	00		 mov	 ecx, DWORD PTR ?IllusionTemple1ItemBag@@3PAVCProbabilityItemBag@@A ; IllusionTemple1ItemBag

; 2695 : 			break;
; 2696 : 		case 4:
; 2697 : 		case 5:
; 2698 : 			IllusionTemple3ItemBag->DropIllusionTempleEventReward(lpObj->m_Index, lpObj->MapNumber, lpObj->X, lpObj->Y);

  00049	52		 push	 edx
  0004a	e8 00 00 00 00	 call	 ?DropIllusionTempleEventReward@CProbabilityItemBag@@QAEHHEEE@Z ; CProbabilityItemBag::DropIllusionTempleEventReward
  0004f	5e		 pop	 esi

; 2699 : 			break;
; 2700 : 	}
; 2701 : }

  00050	5d		 pop	 ebp
  00051	c2 04 00	 ret	 4
$LN2@DropMonste:

; 2691 : 			break;
; 2692 : 		case 2:
; 2693 : 		case 3:
; 2694 : 			IllusionTemple2ItemBag->DropIllusionTempleEventReward(lpObj->m_Index, lpObj->MapNumber, lpObj->X, lpObj->Y);

  00054	0f b6 b0 46 01
	00 00		 movzx	 esi, BYTE PTR [eax+326]
  0005b	0f b6 80 44 01
	00 00		 movzx	 eax, BYTE PTR [eax+324]
  00062	56		 push	 esi
  00063	50		 push	 eax
  00064	51		 push	 ecx
  00065	8b 0d 00 00 00
	00		 mov	 ecx, DWORD PTR ?IllusionTemple2ItemBag@@3PAVCProbabilityItemBag@@A ; IllusionTemple2ItemBag

; 2695 : 			break;
; 2696 : 		case 4:
; 2697 : 		case 5:
; 2698 : 			IllusionTemple3ItemBag->DropIllusionTempleEventReward(lpObj->m_Index, lpObj->MapNumber, lpObj->X, lpObj->Y);

  0006b	52		 push	 edx
  0006c	e8 00 00 00 00	 call	 ?DropIllusionTempleEventReward@CProbabilityItemBag@@QAEHHEEE@Z ; CProbabilityItemBag::DropIllusionTempleEventReward
  00071	5e		 pop	 esi

; 2699 : 			break;
; 2700 : 	}
; 2701 : }

  00072	5d		 pop	 ebp
  00073	c2 04 00	 ret	 4
$LN1@DropMonste:

; 2695 : 			break;
; 2696 : 		case 4:
; 2697 : 		case 5:
; 2698 : 			IllusionTemple3ItemBag->DropIllusionTempleEventReward(lpObj->m_Index, lpObj->MapNumber, lpObj->X, lpObj->Y);

  00076	0f b6 b0 46 01
	00 00		 movzx	 esi, BYTE PTR [eax+326]
  0007d	0f b6 80 44 01
	00 00		 movzx	 eax, BYTE PTR [eax+324]
  00084	56		 push	 esi
  00085	50		 push	 eax
  00086	51		 push	 ecx
  00087	8b 0d 00 00 00
	00		 mov	 ecx, DWORD PTR ?IllusionTemple3ItemBag@@3PAVCProbabilityItemBag@@A ; IllusionTemple3ItemBag
  0008d	52		 push	 edx
  0008e	e8 00 00 00 00	 call	 ?DropIllusionTempleEventReward@CProbabilityItemBag@@QAEHHEEE@Z ; CProbabilityItemBag::DropIllusionTempleEventReward
$LN4@DropMonste:
  00093	5e		 pop	 esi

; 2699 : 			break;
; 2700 : 	}
; 2701 : }

  00094	5d		 pop	 ebp
  00095	c2 04 00	 ret	 4
$LN10@DropMonste:
  00098	00 00 00 00	 DD	 $LN3@DropMonste
  0009c	00 00 00 00	 DD	 $LN3@DropMonste
  000a0	00 00 00 00	 DD	 $LN2@DropMonste
  000a4	00 00 00 00	 DD	 $LN2@DropMonste
  000a8	00 00 00 00	 DD	 $LN1@DropMonste
  000ac	00 00 00 00	 DD	 $LN1@DropMonste
?DropMonsterItem@CIllusionTempleProcess@@QAEXPAUOBJECTSTRUCT@@@Z ENDP ; CIllusionTempleProcess::DropMonsterItem
_TEXT	ENDS
PUBLIC	?SendAllUserAnyMsg@CIllusionTempleProcess@@QAEXPAEH@Z ; CIllusionTempleProcess::SendAllUserAnyMsg
; Function compile flags: /Ogtp
;	COMDAT ?SendAllUserAnyMsg@CIllusionTempleProcess@@QAEXPAEH@Z
_TEXT	SEGMENT
_lpMsg$ = 8						; size = 4
_iSize$ = 12						; size = 4
?SendAllUserAnyMsg@CIllusionTempleProcess@@QAEXPAEH@Z PROC ; CIllusionTempleProcess::SendAllUserAnyMsg, COMDAT
; _this$ = ecx

; 2704 : {

  00000	55		 push	 ebp
  00001	8b ec		 mov	 ebp, esp

; 2705 : 	for( int aIndex = OBJ_STARTUSERINDZT; aIndex<OBJMAX; aIndex++ )

  00003	a1 00 00 00 00	 mov	 eax, DWORD PTR ?gObj@@3PAUOBJECTSTRUCT@@A ; gObj
  00008	53		 push	 ebx
  00009	8b 5d 0c	 mov	 ebx, DWORD PTR _iSize$[ebp]
  0000c	56		 push	 esi
  0000d	57		 push	 edi
  0000e	bf b0 36 00 00	 mov	 edi, 14000		; 000036b0H
  00013	be 00 a7 40 09	 mov	 esi, 155232000		; 0940a700H
$LL4@SendAllUse:

; 2706 : 	{
; 2707 : 		if(gObj[aIndex].Connected == PLAYER_PLAYING && gObj[aIndex].Type == OBJ_USER)

  00018	83 7c 06 04 03	 cmp	 DWORD PTR [esi+eax+4], 3
  0001d	75 1b		 jne	 SHORT $LN3@SendAllUse
  0001f	66 83 7c 06 68
	01		 cmp	 WORD PTR [esi+eax+104], 1
  00025	75 13		 jne	 SHORT $LN3@SendAllUse

; 2708 : 		{
; 2709 : 			DataSend(aIndex,lpMsg,iSize);

  00027	8b 45 08	 mov	 eax, DWORD PTR _lpMsg$[ebp]
  0002a	53		 push	 ebx
  0002b	50		 push	 eax
  0002c	57		 push	 edi
  0002d	e8 00 00 00 00	 call	 ?DataSend@@YAHHPAEK@Z	; DataSend
  00032	a1 00 00 00 00	 mov	 eax, DWORD PTR ?gObj@@3PAUOBJECTSTRUCT@@A ; gObj
  00037	83 c4 0c	 add	 esp, 12			; 0000000cH
$LN3@SendAllUse:

; 2705 : 	for( int aIndex = OBJ_STARTUSERINDZT; aIndex<OBJMAX; aIndex++ )

  0003a	81 c6 50 2b 00
	00		 add	 esi, 11088		; 00002b50H
  00040	47		 inc	 edi
  00041	81 fe 80 d7 e9
	09		 cmp	 esi, 166320000		; 09e9d780H
  00047	7c cf		 jl	 SHORT $LL4@SendAllUse
  00049	5f		 pop	 edi
  0004a	5e		 pop	 esi
  0004b	5b		 pop	 ebx

; 2710 : 		}
; 2711 : 	}
; 2712 : }

  0004c	5d		 pop	 ebp
  0004d	c2 08 00	 ret	 8
?SendAllUserAnyMsg@CIllusionTempleProcess@@QAEXPAEH@Z ENDP ; CIllusionTempleProcess::SendAllUserAnyMsg
_TEXT	ENDS
PUBLIC	??_C@_0L@MNKEEMGH@?0?$CI?$CFs?$CJ?$CI?$CFs?$CJ?5?$AA@ ; `string'
PUBLIC	??_C@_0BM@DJAOLMAF@400?5LevelUp?5?$CI?$CFs?$CJ?$CI?$CFs?$CJ?5Party?5?$AA@ ; `string'
PUBLIC	??_C@_0DA@KDBPKGIM@?$FL?$CFs?$FN?$FL?$CFs?$FN?5LevelUp?5PlusStatQuest?5C@ ; `string'
PUBLIC	??_C@_0DB@FGGBOBEB@Experience?5?3?5Map?$FL?$CFd?$FN?9?$CI?$CFd?0?$CFd?$CJ?5?$FL?$CFs@ ; `string'
PUBLIC	_iUserIndex$GSCopy$
PUBLIC	__$ArrayPad$
PUBLIC	?LevelUp@CIllusionTempleProcess@@QAEHHH@Z	; CIllusionTempleProcess::LevelUp
EXTRN	?LevelUp@CAchievements@@QAEXH@Z:PROC		; CAchievements::LevelUp
EXTRN	?g_Achievements@@3VCAchievements@@A:BYTE	; g_Achievements
EXTRN	?gParty@@3VPartyClass@@A:BYTE			; gParty
EXTRN	_sprintf:PROC
EXTRN	?gObjCalcMaxLifePower@@YAXH@Z:PROC		; gObjCalcMaxLifePower
EXTRN	?GCLevelUpMsgSend@@YAXHH@Z:PROC			; GCLevelUpMsgSend
EXTRN	?gObjSetBP@@YAXH@Z:PROC				; gObjSetBP
EXTRN	?gObjNextExpCal@@YAXPAUOBJECTSTRUCT@@@Z:PROC	; gObjNextExpCal
EXTRN	?DCInfo@@3Vclassdef@@A:BYTE			; DCInfo
EXTRN	?GCServerMsgStringSend@@YAXPADHE@Z:PROC		; GCServerMsgStringSend
EXTRN	?gObjSetExpPetItem@@YAXHH@Z:PROC		; gObjSetExpPetItem
EXTRN	?MasterLevelUp@CMasterLevelSystem@@QAEHPAUOBJECTSTRUCT@@AA_J_NH@Z:PROC ; CMasterLevelSystem::MasterLevelUp
EXTRN	?g_MasterLevelSystem@@3VCMasterLevelSystem@@A:BYTE ; g_MasterLevelSystem
;	COMDAT ??_C@_0L@MNKEEMGH@?0?$CI?$CFs?$CJ?$CI?$CFs?$CJ?5?$AA@
CONST	SEGMENT
??_C@_0L@MNKEEMGH@?0?$CI?$CFs?$CJ?$CI?$CFs?$CJ?5?$AA@ DB ',(%s)(%s) ', 00H ; `string'
CONST	ENDS
;	COMDAT ??_C@_0BM@DJAOLMAF@400?5LevelUp?5?$CI?$CFs?$CJ?$CI?$CFs?$CJ?5Party?5?$AA@
CONST	SEGMENT
??_C@_0BM@DJAOLMAF@400?5LevelUp?5?$CI?$CFs?$CJ?$CI?$CFs?$CJ?5Party?5?$AA@ DB '4'
	DB	'00 LevelUp (%s)(%s) Party ', 00H		; `string'
CONST	ENDS
;	COMDAT ??_C@_0DA@KDBPKGIM@?$FL?$CFs?$FN?$FL?$CFs?$FN?5LevelUp?5PlusStatQuest?5C@
CONST	SEGMENT
??_C@_0DA@KDBPKGIM@?$FL?$CFs?$FN?$FL?$CFs?$FN?5LevelUp?5PlusStatQuest?5C@ DB '['
	DB	'%s][%s] LevelUp PlusStatQuest Clear AddStat %d', 00H ; `string'
CONST	ENDS
;	COMDAT ??_C@_0DB@FGGBOBEB@Experience?5?3?5Map?$FL?$CFd?$FN?9?$CI?$CFd?0?$CFd?$CJ?5?$FL?$CFs@
CONST	SEGMENT
??_C@_0DB@FGGBOBEB@Experience?5?3?5Map?$FL?$CFd?$FN?9?$CI?$CFd?0?$CFd?$CJ?5?$FL?$CFs@ DB 'E'
	DB	'xperience : Map[%d]-(%d,%d) [%s][%s](%d) %u %d ', 00H ; `string'
; Function compile flags: /Ogtp
CONST	ENDS
;	COMDAT ?LevelUp@CIllusionTempleProcess@@QAEHHH@Z
_TEXT	SEGMENT
_iUserIndex$GSCopy$ = -268				; size = 4
tv304 = -264						; size = 4
_szMsg$216946 = -260					; size = 256
__$ArrayPad$ = -4					; size = 4
_iUserIndex$ = 8					; size = 4
_iAddExp$ = 12						; size = 4
?LevelUp@CIllusionTempleProcess@@QAEHHH@Z PROC		; CIllusionTempleProcess::LevelUp, COMDAT
; _this$ = ecx

; 2715 : {

  00000	55		 push	 ebp
  00001	8b ec		 mov	 ebp, esp
  00003	81 ec 0c 01 00
	00		 sub	 esp, 268		; 0000010cH
  00009	a1 00 00 00 00	 mov	 eax, DWORD PTR ___security_cookie
  0000e	33 c5		 xor	 eax, ebp
  00010	89 45 fc	 mov	 DWORD PTR __$ArrayPad$[ebp], eax
  00013	57		 push	 edi
  00014	8b 7d 08	 mov	 edi, DWORD PTR _iUserIndex$[ebp]

; 2808 : 		}
; 2809 : 	}
; 2810 : #ifndef FIX_DS_CRASH
; 2811 : 	GJSetCharacterInfo(&gObj[iUserIndex], gObj[iUserIndex].m_Index, 0);
; 2812 : #endif
; 2813 : #if(SYSTEM_ACHIEVEMENTS)
; 2814 : 	g_Achievements.LevelUp(iUserIndex);

  00017	89 bd f4 fe ff
	ff		 mov	 DWORD PTR _iUserIndex$GSCopy$[ebp], edi
  0001d	85 ff		 test	 edi, edi
  0001f	78 0f		 js	 SHORT $LN21@LevelUp

; 2716 : 	if(OBJMAX_RANGE(iUserIndex ) == FALSE)

  00021	33 c0		 xor	 eax, eax
  00023	81 ff 97 3a 00
	00		 cmp	 edi, 14999		; 00003a97H
  00029	0f 9e c0	 setle	 al
  0002c	85 c0		 test	 eax, eax
  0002e	75 13		 jne	 SHORT $LN14@LevelUp
$LN21@LevelUp:

; 2717 : 	{
; 2718 : 		return 0;

  00030	33 c0		 xor	 eax, eax
  00032	5f		 pop	 edi

; 2815 : #endif
; 2816 : 
; 2817 : 	return iLEFT_EXP;
; 2818 : }

  00033	8b 4d fc	 mov	 ecx, DWORD PTR __$ArrayPad$[ebp]
  00036	33 cd		 xor	 ecx, ebp
  00038	e8 00 00 00 00	 call	 @__security_check_cookie@4
  0003d	8b e5		 mov	 esp, ebp
  0003f	5d		 pop	 ebp
  00040	c2 08 00	 ret	 8
$LN14@LevelUp:

; 2719 : 	}
; 2720 : 
; 2721 : 	if(g_MasterLevelSystem.MasterLevelUp(&gObj[iUserIndex], (__int64&)iAddExp,1,0) != 0) //season3 add-on

  00043	8b 0d 00 00 00
	00		 mov	 ecx, DWORD PTR ?gObj@@3PAUOBJECTSTRUCT@@A ; gObj
  00049	56		 push	 esi
  0004a	8b f7		 mov	 esi, edi
  0004c	69 f6 50 2b 00
	00		 imul	 esi, 11088		; 00002b50H
  00052	6a 00		 push	 0
  00054	6a 01		 push	 1
  00056	8d 45 0c	 lea	 eax, DWORD PTR _iAddExp$[ebp]
  00059	8d 14 0e	 lea	 edx, DWORD PTR [esi+ecx]
  0005c	50		 push	 eax
  0005d	52		 push	 edx
  0005e	b9 00 00 00 00	 mov	 ecx, OFFSET ?g_MasterLevelSystem@@3VCMasterLevelSystem@@A ; g_MasterLevelSystem
  00063	e8 00 00 00 00	 call	 ?MasterLevelUp@CMasterLevelSystem@@QAEHPAUOBJECTSTRUCT@@AA_J_NH@Z ; CMasterLevelSystem::MasterLevelUp
  00068	85 c0		 test	 eax, eax
  0006a	74 14		 je	 SHORT $LN13@LevelUp

; 2722 : 	{
; 2723 : 		return 0;

  0006c	5e		 pop	 esi
  0006d	33 c0		 xor	 eax, eax
  0006f	5f		 pop	 edi

; 2815 : #endif
; 2816 : 
; 2817 : 	return iLEFT_EXP;
; 2818 : }

  00070	8b 4d fc	 mov	 ecx, DWORD PTR __$ArrayPad$[ebp]
  00073	33 cd		 xor	 ecx, ebp
  00075	e8 00 00 00 00	 call	 @__security_check_cookie@4
  0007a	8b e5		 mov	 esp, ebp
  0007c	5d		 pop	 ebp
  0007d	c2 08 00	 ret	 8
$LN13@LevelUp:

; 2724 : 	}
; 2725 : 
; 2726 : 
; 2727 : 	gObjSetExpPetItem(iUserIndex, iAddExp);

  00080	8b 45 0c	 mov	 eax, DWORD PTR _iAddExp$[ebp]
  00083	53		 push	 ebx
  00084	50		 push	 eax
  00085	57		 push	 edi
  00086	e8 00 00 00 00	 call	 ?gObjSetExpPetItem@@YAXHH@Z ; gObjSetExpPetItem

; 2728 : 
; 2729 : 	int iLEFT_EXP = 0;
; 2730 : 
; 2731 : 	LogAddTD("Experience : Map[%d]-(%d,%d) [%s][%s](%d) %u %d ", gObj[iUserIndex].MapNumber, gObj[iUserIndex].X, gObj[iUserIndex].X, gObj[iUserIndex].AccountID, gObj[iUserIndex].Name,	gObj[iUserIndex].Level, gObj[iUserIndex].Experience, iAddExp);

  0008b	a1 00 00 00 00	 mov	 eax, DWORD PTR ?gObj@@3PAUOBJECTSTRUCT@@A ; gObj
  00090	8b 55 0c	 mov	 edx, DWORD PTR _iAddExp$[ebp]
  00093	0f bf 8c 06 44
	01 00 00	 movsx	 ecx, WORD PTR [esi+eax+324]
  0009b	52		 push	 edx
  0009c	8b 94 06 c8 00
	00 00		 mov	 edx, DWORD PTR [esi+eax+200]
  000a3	52		 push	 edx
  000a4	0f bf 94 06 be
	00 00 00	 movsx	 edx, WORD PTR [esi+eax+190]
  000ac	52		 push	 edx
  000ad	8d 54 06 77	 lea	 edx, DWORD PTR [esi+eax+119]
  000b1	52		 push	 edx
  000b2	8d 54 06 6c	 lea	 edx, DWORD PTR [esi+eax+108]
  000b6	0f b6 84 06 49
	01 00 00	 movzx	 eax, BYTE PTR [esi+eax+329]
  000be	52		 push	 edx
  000bf	51		 push	 ecx
  000c0	51		 push	 ecx
  000c1	50		 push	 eax
  000c2	68 00 00 00 00	 push	 OFFSET ??_C@_0DB@FGGBOBEB@Experience?5?3?5Map?$FL?$CFd?$FN?9?$CI?$CFd?0?$CFd?$CJ?5?$FL?$CFs@
  000c7	33 db		 xor	 ebx, ebx
  000c9	ff 15 00 00 00
	00		 call	 DWORD PTR ?LogAddTD@@3P6AXPADZZA ; LogAddTD

; 2732 : 
; 2733 : 	#if(ENABLE_CHARLVL1000)
; 2734 : 
; 2735 : 	if(gObj[iUserIndex].Level >= ZtConfig.ZtCustom.MaxLevel)

  000cf	8b 0d 00 00 00
	00		 mov	 ecx, DWORD PTR ?gObj@@3PAUOBJECTSTRUCT@@A ; gObj
  000d5	0f bf 94 0e be
	00 00 00	 movsx	 edx, WORD PTR [esi+ecx+190]
  000dd	83 c4 2c	 add	 esp, 44			; 0000002cH
  000e0	3b 15 24 00 00
	00		 cmp	 edx, DWORD PTR ?ZtConfig@@3VcZtConfigs@@A+36
  000e6	7c 33		 jl	 SHORT $LN12@LevelUp

; 2736 : 	{
; 2737 : 		GCServerMsgStringSend(lMsg.Get(MSGGET(4, 112)), gObj[iUserIndex].m_Index, 1);

  000e8	8b 04 0e	 mov	 eax, DWORD PTR [esi+ecx]
  000eb	6a 01		 push	 1
  000ed	50		 push	 eax
  000ee	68 70 04 00 00	 push	 1136			; 00000470H
  000f3	b9 00 00 00 00	 mov	 ecx, OFFSET ?lMsg@@3VCMsg@@A ; lMsg
  000f8	e8 00 00 00 00	 call	 ?Get@CMsg@@QAEPADH@Z	; CMsg::Get
  000fd	50		 push	 eax
  000fe	e8 00 00 00 00	 call	 ?GCServerMsgStringSend@@YAXPADHE@Z ; GCServerMsgStringSend
  00103	83 c4 0c	 add	 esp, 12			; 0000000cH
  00106	5b		 pop	 ebx
  00107	5e		 pop	 esi

; 2738 : 		return 0;

  00108	33 c0		 xor	 eax, eax
  0010a	5f		 pop	 edi

; 2815 : #endif
; 2816 : 
; 2817 : 	return iLEFT_EXP;
; 2818 : }

  0010b	8b 4d fc	 mov	 ecx, DWORD PTR __$ArrayPad$[ebp]
  0010e	33 cd		 xor	 ecx, ebp
  00110	e8 00 00 00 00	 call	 @__security_check_cookie@4
  00115	8b e5		 mov	 esp, ebp
  00117	5d		 pop	 ebp
  00118	c2 08 00	 ret	 8
$LN12@LevelUp:

; 2739 : 	}
; 2740 : 
; 2741 : 	#else
; 2742 : 
; 2743 : 	if(gObj[iUserIndex].Level >= MAX_CHAR_LEVEL)
; 2744 : 	{
; 2745 : 		GCServerMsgStringSend(lMsg.Get(MSGGET(4, 112)), gObj[iUserIndex].m_Index, 1);
; 2746 : 		return 0;
; 2747 : 	}
; 2748 : 
; 2749 : 	#endif
; 2750 : 
; 2751 : 	if((gObj[iUserIndex].Experience + iAddExp) < gObj[iUserIndex].NextExp)

  0011b	8b bc 0e c8 00
	00 00		 mov	 edi, DWORD PTR [esi+ecx+200]
  00122	8b 55 0c	 mov	 edx, DWORD PTR _iAddExp$[ebp]
  00125	8d 84 0e c8 00
	00 00		 lea	 eax, DWORD PTR [esi+ecx+200]
  0012c	8d 8c 0e cc 00
	00 00		 lea	 ecx, DWORD PTR [esi+ecx+204]
  00133	03 fa		 add	 edi, edx
  00135	3b 39		 cmp	 edi, DWORD PTR [ecx]
  00137	73 07		 jae	 SHORT $LN11@LevelUp

; 2752 : 	{
; 2753 : 		gObj[iUserIndex].Experience += iAddExp;

  00139	01 10		 add	 DWORD PTR [eax], edx

; 2754 : 	}
; 2755 : 	else

  0013b	e9 2d 02 00 00	 jmp	 $LN5@LevelUp
$LN11@LevelUp:

; 2756 : 	{
; 2757 : 		iLEFT_EXP = gObj[iUserIndex].Experience + iAddExp - gObj[iUserIndex].NextExp;

  00140	8b 09		 mov	 ecx, DWORD PTR [ecx]
  00142	8b 18		 mov	 ebx, DWORD PTR [eax]

; 2758 : 		gObj[iUserIndex].Experience = gObj[iUserIndex].NextExp;

  00144	89 08		 mov	 DWORD PTR [eax], ecx

; 2759 : 		gObj[iUserIndex].Level++;

  00146	a1 00 00 00 00	 mov	 eax, DWORD PTR ?gObj@@3PAUOBJECTSTRUCT@@A ; gObj
  0014b	66 ff 84 06 be
	00 00 00	 inc	 WORD PTR [esi+eax+190]
  00153	2b d9		 sub	 ebx, ecx

; 2760 : 
; 2761 : 		if(gObj[iUserIndex].Class == CLASS_DARKLORD || gObj[iUserIndex].Class == CLASS_MAGUMSA)

  00155	8b 0d 00 00 00
	00		 mov	 ecx, DWORD PTR ?gObj@@3PAUOBJECTSTRUCT@@A ; gObj
  0015b	0f b7 84 0e b8
	00 00 00	 movzx	 eax, WORD PTR [esi+ecx+184]
  00163	03 da		 add	 ebx, edx
  00165	83 f8 04	 cmp	 eax, 4
  00168	74 16		 je	 SHORT $LN8@LevelUp
  0016a	83 f8 03	 cmp	 eax, 3
  0016d	74 11		 je	 SHORT $LN8@LevelUp

; 2764 : 		}
; 2765 : 		else
; 2766 : 		{
; 2767 : 			gObj[iUserIndex].LevelUpPoint += 5;

  0016f	83 84 0e c0 00
	00 00 05	 add	 DWORD PTR [esi+ecx+192], 5
  00177	8d 84 0e c0 00
	00 00		 lea	 eax, DWORD PTR [esi+ecx+192]
  0017e	eb 0f		 jmp	 SHORT $LN7@LevelUp
$LN8@LevelUp:

; 2762 : 		{
; 2763 : 			gObj[iUserIndex].LevelUpPoint += 7;

  00180	83 84 0e c0 00
	00 00 07	 add	 DWORD PTR [esi+ecx+192], 7
  00188	8d 84 0e c0 00
	00 00		 lea	 eax, DWORD PTR [esi+ecx+192]
$LN7@LevelUp:

; 2768 : 		}
; 2769 : 
; 2770 : 		if(gObj[iUserIndex].PlusStatQuestClear != false)

  0018f	8b 0d 00 00 00
	00		 mov	 ecx, DWORD PTR ?gObj@@3PAUOBJECTSTRUCT@@A ; gObj
  00195	80 bc 0e a5 00
	00 00 00	 cmp	 BYTE PTR [esi+ecx+165], 0
  0019d	74 39		 je	 SHORT $LN6@LevelUp

; 2771 : 		{
; 2772 : 			gObj[iUserIndex].LevelUpPoint++;

  0019f	ff 84 0e c0 00
	00 00		 inc	 DWORD PTR [esi+ecx+192]
  001a6	8d 84 0e c0 00
	00 00		 lea	 eax, DWORD PTR [esi+ecx+192]

; 2773 : 
; 2774 : 			LogAddTD("[%s][%s] LevelUp PlusStatQuest Clear AddStat %d", gObj[iUserIndex].AccountID, gObj[iUserIndex].Name, gObj[iUserIndex].LevelUpPoint);

  001ad	a1 00 00 00 00	 mov	 eax, DWORD PTR ?gObj@@3PAUOBJECTSTRUCT@@A ; gObj
  001b2	8b 8c 06 c0 00
	00 00		 mov	 ecx, DWORD PTR [esi+eax+192]
  001b9	51		 push	 ecx
  001ba	8d 54 06 77	 lea	 edx, DWORD PTR [esi+eax+119]
  001be	52		 push	 edx
  001bf	8d 44 06 6c	 lea	 eax, DWORD PTR [esi+eax+108]
  001c3	50		 push	 eax
  001c4	68 00 00 00 00	 push	 OFFSET ??_C@_0DA@KDBPKGIM@?$FL?$CFs?$FN?$FL?$CFs?$FN?5LevelUp?5PlusStatQuest?5C@
  001c9	ff 15 00 00 00
	00		 call	 DWORD PTR ?LogAddTD@@3P6AXPADZZA ; LogAddTD
  001cf	8b 0d 00 00 00
	00		 mov	 ecx, DWORD PTR ?gObj@@3PAUOBJECTSTRUCT@@A ; gObj
  001d5	83 c4 10	 add	 esp, 16			; 00000010H
$LN6@LevelUp:

; 2775 : 		}
; 2776 : 
; 2777 : 		gObj[iUserIndex].MaxLife += DCInfo.DefClass[gObj[iUserIndex].Class].LevelLife;

  001d8	8d 84 0e 00 01
	00 00		 lea	 eax, DWORD PTR [esi+ecx+256]
  001df	0f b7 8c 0e b8
	00 00 00	 movzx	 ecx, WORD PTR [esi+ecx+184]
  001e7	69 c9 c8 0b 00
	00		 imul	 ecx, 3016		; 00000bc8H
  001ed	d9 81 10 00 00
	00		 fld	 DWORD PTR ?DCInfo@@3Vclassdef@@A[ecx+16]
  001f3	d8 00		 fadd	 DWORD PTR [eax]
  001f5	d9 18		 fstp	 DWORD PTR [eax]

; 2778 : 		gObj[iUserIndex].MaxMana += DCInfo.DefClass[gObj[iUserIndex].Class].LevelMana;

  001f7	8b 0d 00 00 00
	00		 mov	 ecx, DWORD PTR ?gObj@@3PAUOBJECTSTRUCT@@A ; gObj
  001fd	0f b7 94 0e b8
	00 00 00	 movzx	 edx, WORD PTR [esi+ecx+184]
  00205	69 d2 c8 0b 00
	00		 imul	 edx, 3016		; 00000bc8H
  0020b	8d 84 0e 14 01
	00 00		 lea	 eax, DWORD PTR [esi+ecx+276]
  00212	d9 82 1c 00 00
	00		 fld	 DWORD PTR ?DCInfo@@3Vclassdef@@A[edx+28]
  00218	d8 00		 fadd	 DWORD PTR [eax]
  0021a	d9 18		 fstp	 DWORD PTR [eax]

; 2779 : 		gObj[iUserIndex].Life = gObj[iUserIndex].MaxLife;

  0021c	a1 00 00 00 00	 mov	 eax, DWORD PTR ?gObj@@3PAUOBJECTSTRUCT@@A ; gObj
  00221	d9 84 06 00 01
	00 00		 fld	 DWORD PTR [esi+eax+256]
  00228	d9 9c 06 fc 00
	00 00		 fstp	 DWORD PTR [esi+eax+252]

; 2780 : 		gObj[iUserIndex].Mana = gObj[iUserIndex].MaxMana;

  0022f	a1 00 00 00 00	 mov	 eax, DWORD PTR ?gObj@@3PAUOBJECTSTRUCT@@A ; gObj
  00234	d9 84 06 14 01
	00 00		 fld	 DWORD PTR [esi+eax+276]
  0023b	d9 9c 06 10 01
	00 00		 fstp	 DWORD PTR [esi+eax+272]

; 2781 : 		gObjNextExpCal(&gObj[iUserIndex]);

  00242	a1 00 00 00 00	 mov	 eax, DWORD PTR ?gObj@@3PAUOBJECTSTRUCT@@A ; gObj
  00247	8d 0c 06	 lea	 ecx, DWORD PTR [esi+eax]
  0024a	51		 push	 ecx
  0024b	e8 00 00 00 00	 call	 ?gObjNextExpCal@@YAXPAUOBJECTSTRUCT@@@Z ; gObjNextExpCal

; 2782 : 		gObjSetBP(gObj[iUserIndex].m_Index);

  00250	8b 15 00 00 00
	00		 mov	 edx, DWORD PTR ?gObj@@3PAUOBJECTSTRUCT@@A ; gObj
  00256	8b 04 16	 mov	 eax, DWORD PTR [esi+edx]
  00259	50		 push	 eax
  0025a	e8 00 00 00 00	 call	 ?gObjSetBP@@YAXH@Z	; gObjSetBP

; 2783 : 		GCLevelUpMsgSend(gObj[iUserIndex].m_Index, 1);

  0025f	8b 0d 00 00 00
	00		 mov	 ecx, DWORD PTR ?gObj@@3PAUOBJECTSTRUCT@@A ; gObj
  00265	8b 14 0e	 mov	 edx, DWORD PTR [esi+ecx]
  00268	6a 01		 push	 1
  0026a	52		 push	 edx
  0026b	e8 00 00 00 00	 call	 ?GCLevelUpMsgSend@@YAXHH@Z ; GCLevelUpMsgSend

; 2784 : 		gObjCalcMaxLifePower(gObj[iUserIndex].m_Index);

  00270	a1 00 00 00 00	 mov	 eax, DWORD PTR ?gObj@@3PAUOBJECTSTRUCT@@A ; gObj
  00275	8b 0c 06	 mov	 ecx, DWORD PTR [esi+eax]
  00278	51		 push	 ecx
  00279	e8 00 00 00 00	 call	 ?gObjCalcMaxLifePower@@YAXH@Z ; gObjCalcMaxLifePower

; 2785 : 
; 2786 : 		LogAddTD(lMsg.Get(MSGGET(2, 8)), gObj[iUserIndex].AccountID, gObj[iUserIndex].Name, gObj[iUserIndex].Level);

  0027e	a1 00 00 00 00	 mov	 eax, DWORD PTR ?gObj@@3PAUOBJECTSTRUCT@@A ; gObj
  00283	0f bf 94 06 be
	00 00 00	 movsx	 edx, WORD PTR [esi+eax+190]
  0028b	83 c4 14	 add	 esp, 20			; 00000014H
  0028e	52		 push	 edx
  0028f	8d 4c 06 77	 lea	 ecx, DWORD PTR [esi+eax+119]
  00293	51		 push	 ecx
  00294	8d 54 06 6c	 lea	 edx, DWORD PTR [esi+eax+108]
  00298	52		 push	 edx
  00299	68 08 02 00 00	 push	 520			; 00000208H
  0029e	b9 00 00 00 00	 mov	 ecx, OFFSET ?lMsg@@3VCMsg@@A ; lMsg
  002a3	e8 00 00 00 00	 call	 ?Get@CMsg@@QAEPADH@Z	; CMsg::Get
  002a8	50		 push	 eax
  002a9	ff 15 00 00 00
	00		 call	 DWORD PTR ?LogAddTD@@3P6AXPADZZA ; LogAddTD

; 2787 : 
; 2788 : 		//----------------------------------------------------------------------------------------------
; 2789 : 
; 2790 : 		if( gObj[iUserIndex].Level == 400 && gObj[iUserIndex].PartyNumber >= 0 )

  002af	a1 00 00 00 00	 mov	 eax, DWORD PTR ?gObj@@3PAUOBJECTSTRUCT@@A ; gObj
  002b4	b9 90 01 00 00	 mov	 ecx, 400		; 00000190H
  002b9	83 c4 10	 add	 esp, 16			; 00000010H
  002bc	66 39 8c 06 be
	00 00 00	 cmp	 WORD PTR [esi+eax+190], cx
  002c4	0f 85 a3 00 00
	00		 jne	 $LN5@LevelUp
  002ca	83 bc 06 2c 04
	00 00 00	 cmp	 DWORD PTR [esi+eax+1068], 0
  002d2	0f 8c 95 00 00
	00		 jl	 $LN5@LevelUp

; 2791 : 		{
; 2792 : 			int iPartyNumber = gObj[iUserIndex].PartyNumber;

  002d8	8b bc 06 2c 04
	00 00		 mov	 edi, DWORD PTR [esi+eax+1068]

; 2793 : 			char szMsg[256];
; 2794 : 			sprintf(szMsg,"400 LevelUp (%s)(%s) Party ",gObj[iUserIndex].AccountID,gObj[iUserIndex].Name);

  002df	8d 54 06 77	 lea	 edx, DWORD PTR [esi+eax+119]
  002e3	52		 push	 edx
  002e4	8d 44 06 6c	 lea	 eax, DWORD PTR [esi+eax+108]
  002e8	50		 push	 eax
  002e9	8d 8d fc fe ff
	ff		 lea	 ecx, DWORD PTR _szMsg$216946[ebp]
  002ef	68 00 00 00 00	 push	 OFFSET ??_C@_0BM@DJAOLMAF@400?5LevelUp?5?$CI?$CFs?$CJ?$CI?$CFs?$CJ?5Party?5?$AA@
  002f4	51		 push	 ecx
  002f5	e8 00 00 00 00	 call	 _sprintf
  002fa	6b ff 68	 imul	 edi, 104		; 00000068H
  002fd	83 c4 10	 add	 esp, 16			; 00000010H
  00300	81 c7 0c 00 00
	00		 add	 edi, OFFSET ?gParty@@3VPartyClass@@A+12
  00306	c7 85 f8 fe ff
	ff 0a 00 00 00	 mov	 DWORD PTR tv304[ebp], 10 ; 0000000aH
$LL4@LevelUp:

; 2798 : 			{
; 2799 : 				iPartyNumIndex = gParty.m_PartyS[iPartyNumber].Number[i];

  00310	8b 0f		 mov	 ecx, DWORD PTR [edi]

; 2800 : 
; 2801 : 				if( iPartyNumIndex >= 0  )

  00312	85 c9		 test	 ecx, ecx
  00314	78 3c		 js	 SHORT $LN3@LevelUp

; 2802 : 				{
; 2803 : 					int iSize = strlen(szMsg);

  00316	8d 85 fc fe ff
	ff		 lea	 eax, DWORD PTR _szMsg$216946[ebp]
  0031c	8d 70 01	 lea	 esi, DWORD PTR [eax+1]
  0031f	90		 npad	 1
$LL22@LevelUp:
  00320	8a 10		 mov	 dl, BYTE PTR [eax]
  00322	40		 inc	 eax
  00323	84 d2		 test	 dl, dl
  00325	75 f9		 jne	 SHORT $LL22@LevelUp

; 2804 : 					sprintf(&szMsg[iSize],",(%s)(%s) ",gObj[iPartyNumIndex].AccountID,gObj[iPartyNumIndex].Name);

  00327	69 c9 50 2b 00
	00		 imul	 ecx, 11088		; 00002b50H
  0032d	03 0d 00 00 00
	00		 add	 ecx, DWORD PTR ?gObj@@3PAUOBJECTSTRUCT@@A ; gObj
  00333	2b c6		 sub	 eax, esi
  00335	8d 51 77	 lea	 edx, DWORD PTR [ecx+119]
  00338	52		 push	 edx
  00339	83 c1 6c	 add	 ecx, 108		; 0000006cH
  0033c	51		 push	 ecx
  0033d	8d 84 05 fc fe
	ff ff		 lea	 eax, DWORD PTR _szMsg$216946[ebp+eax]
  00344	68 00 00 00 00	 push	 OFFSET ??_C@_0L@MNKEEMGH@?0?$CI?$CFs?$CJ?$CI?$CFs?$CJ?5?$AA@
  00349	50		 push	 eax
  0034a	e8 00 00 00 00	 call	 _sprintf
  0034f	83 c4 10	 add	 esp, 16			; 00000010H
$LN3@LevelUp:

; 2795 : 			int iPartyNumIndex;
; 2796 : 
; 2797 : 			for( int i = 0; i<MAX_USER_IN_PARTY; i++ )

  00352	83 c7 04	 add	 edi, 4
  00355	ff 8d f8 fe ff
	ff		 dec	 DWORD PTR tv304[ebp]
  0035b	75 b3		 jne	 SHORT $LL4@LevelUp

; 2805 : 				}
; 2806 : 			}
; 2807 : 			LogAddTD(szMsg);

  0035d	8d 8d fc fe ff
	ff		 lea	 ecx, DWORD PTR _szMsg$216946[ebp]
  00363	51		 push	 ecx
  00364	ff 15 00 00 00
	00		 call	 DWORD PTR ?LogAddTD@@3P6AXPADZZA ; LogAddTD
  0036a	83 c4 04	 add	 esp, 4
$LN5@LevelUp:

; 2808 : 		}
; 2809 : 	}
; 2810 : #ifndef FIX_DS_CRASH
; 2811 : 	GJSetCharacterInfo(&gObj[iUserIndex], gObj[iUserIndex].m_Index, 0);
; 2812 : #endif
; 2813 : #if(SYSTEM_ACHIEVEMENTS)
; 2814 : 	g_Achievements.LevelUp(iUserIndex);

  0036d	8b 95 f4 fe ff
	ff		 mov	 edx, DWORD PTR _iUserIndex$GSCopy$[ebp]
  00373	52		 push	 edx
  00374	b9 00 00 00 00	 mov	 ecx, OFFSET ?g_Achievements@@3VCAchievements@@A ; g_Achievements
  00379	e8 00 00 00 00	 call	 ?LevelUp@CAchievements@@QAEXH@Z ; CAchievements::LevelUp

; 2815 : #endif
; 2816 : 
; 2817 : 	return iLEFT_EXP;
; 2818 : }

  0037e	8b 4d fc	 mov	 ecx, DWORD PTR __$ArrayPad$[ebp]
  00381	8b c3		 mov	 eax, ebx
  00383	5b		 pop	 ebx
  00384	5e		 pop	 esi
  00385	33 cd		 xor	 ecx, ebp
  00387	5f		 pop	 edi
  00388	e8 00 00 00 00	 call	 @__security_check_cookie@4
  0038d	8b e5		 mov	 esp, ebp
  0038f	5d		 pop	 ebp
  00390	c2 08 00	 ret	 8
?LevelUp@CIllusionTempleProcess@@QAEHHH@Z ENDP		; CIllusionTempleProcess::LevelUp
_TEXT	ENDS
PUBLIC	?GetRemainTime@CIllusionTempleProcess@@QAEEXZ	; CIllusionTempleProcess::GetRemainTime
; Function compile flags: /Ogtp
;	COMDAT ?GetRemainTime@CIllusionTempleProcess@@QAEEXZ
_TEXT	SEGMENT
?GetRemainTime@CIllusionTempleProcess@@QAEEXZ PROC	; CIllusionTempleProcess::GetRemainTime, COMDAT
; _this$ = ecx

; 2822 : 	if(!this->GetState())

  00000	e8 00 00 00 00	 call	 ?GetState@CIllusionTempleProcess@@QAEEXZ ; CIllusionTempleProcess::GetState
  00005	84 c0		 test	 al, al
  00007	75 07		 jne	 SHORT $LN1@GetRemainT

; 2823 : 	{
; 2824 : 		return this->m_iLeftMinutesBeforeOpen;

  00009	8a 81 98 03 00
	00		 mov	 al, BYTE PTR [ecx+920]

; 2828 : }

  0000f	c3		 ret	 0
$LN1@GetRemainT:

; 2825 : 	}
; 2826 : 
; 2827 : 	return 0;

  00010	32 c0		 xor	 al, al

; 2828 : }

  00012	c3		 ret	 0
?GetRemainTime@CIllusionTempleProcess@@QAEEXZ ENDP	; CIllusionTempleProcess::GetRemainTime
_TEXT	ENDS
PUBLIC	?CheckShieldSpellTime@CIllusionTempleProcess@@QAEHH@Z ; CIllusionTempleProcess::CheckShieldSpellTime
; Function compile flags: /Ogtp
;	COMDAT ?CheckShieldSpellTime@CIllusionTempleProcess@@QAEHH@Z
_TEXT	SEGMENT
_aIndex$ = 8						; size = 4
?CheckShieldSpellTime@CIllusionTempleProcess@@QAEHH@Z PROC ; CIllusionTempleProcess::CheckShieldSpellTime, COMDAT
; _this$ = ecx

; 2831 : {

  00000	55		 push	 ebp
  00001	8b ec		 mov	 ebp, esp

; 2832 : 	if(CHECK_LIMIT( (aIndex), MAX_FLOOR_USER) == FALSE)

  00003	8b 45 08	 mov	 eax, DWORD PTR _aIndex$[ebp]
  00006	85 c0		 test	 eax, eax
  00008	78 28		 js	 SHORT $LN1@CheckShiel
  0000a	33 d2		 xor	 edx, edx
  0000c	83 f8 09	 cmp	 eax, 9
  0000f	0f 9e c2	 setle	 dl
  00012	85 d2		 test	 edx, edx

; 2833 : 	{
; 2834 : 		return FALSE;

  00014	74 1c		 je	 SHORT $LN1@CheckShiel

; 2835 : 	}
; 2836 : 
; 2837 : 	if(this->m_FloorData[aIndex].m_iTeamPlayerIndex != -1)

  00016	8d 04 40	 lea	 eax, DWORD PTR [eax+eax*2]
  00019	03 c0		 add	 eax, eax
  0001b	83 7c c1 20 ff	 cmp	 DWORD PTR [ecx+eax*8+32], -1
  00020	74 10		 je	 SHORT $LN1@CheckShiel

; 2838 : 	{
; 2839 : 		if(this->m_FloorData[aIndex].m_dwShieldSpellTime > 0)

  00022	83 7c c1 28 00	 cmp	 DWORD PTR [ecx+eax*8+40], 0
  00027	76 09		 jbe	 SHORT $LN1@CheckShiel

; 2840 : 		{
; 2841 : 			return TRUE;

  00029	b8 01 00 00 00	 mov	 eax, 1

; 2846 : }

  0002e	5d		 pop	 ebp
  0002f	c2 04 00	 ret	 4
$LN1@CheckShiel:

; 2842 : 		}
; 2843 : 	}
; 2844 : 
; 2845 : 	return FALSE;

  00032	33 c0		 xor	 eax, eax

; 2846 : }

  00034	5d		 pop	 ebp
  00035	c2 04 00	 ret	 4
?CheckShieldSpellTime@CIllusionTempleProcess@@QAEHH@Z ENDP ; CIllusionTempleProcess::CheckShieldSpellTime
_TEXT	ENDS
PUBLIC	?CheckRestrictionSpellTime@CIllusionTempleProcess@@QAEHH@Z ; CIllusionTempleProcess::CheckRestrictionSpellTime
; Function compile flags: /Ogtp
;	COMDAT ?CheckRestrictionSpellTime@CIllusionTempleProcess@@QAEHH@Z
_TEXT	SEGMENT
_aIndex$ = 8						; size = 4
?CheckRestrictionSpellTime@CIllusionTempleProcess@@QAEHH@Z PROC ; CIllusionTempleProcess::CheckRestrictionSpellTime, COMDAT
; _this$ = ecx

; 2849 : {

  00000	55		 push	 ebp
  00001	8b ec		 mov	 ebp, esp

; 2850 : 	if(CHECK_LIMIT( (aIndex), MAX_FLOOR_USER) == FALSE)

  00003	8b 45 08	 mov	 eax, DWORD PTR _aIndex$[ebp]
  00006	85 c0		 test	 eax, eax
  00008	78 28		 js	 SHORT $LN1@CheckRestr
  0000a	33 d2		 xor	 edx, edx
  0000c	83 f8 09	 cmp	 eax, 9
  0000f	0f 9e c2	 setle	 dl
  00012	85 d2		 test	 edx, edx

; 2851 : 	{
; 2852 : 		return FALSE;

  00014	74 1c		 je	 SHORT $LN1@CheckRestr

; 2853 : 	}
; 2854 : 
; 2855 : 	if(this->m_FloorData[aIndex].m_iTeamPlayerIndex != -1)

  00016	8d 04 40	 lea	 eax, DWORD PTR [eax+eax*2]
  00019	03 c0		 add	 eax, eax
  0001b	83 7c c1 20 ff	 cmp	 DWORD PTR [ecx+eax*8+32], -1
  00020	74 10		 je	 SHORT $LN1@CheckRestr

; 2856 : 	{
; 2857 : 		if(this->m_FloorData[aIndex].m_dwRestrictionSpellTime > 0)

  00022	83 7c c1 2c 00	 cmp	 DWORD PTR [ecx+eax*8+44], 0
  00027	76 09		 jbe	 SHORT $LN1@CheckRestr

; 2858 : 		{
; 2859 : 			return TRUE;

  00029	b8 01 00 00 00	 mov	 eax, 1

; 2864 : }

  0002e	5d		 pop	 ebp
  0002f	c2 04 00	 ret	 4
$LN1@CheckRestr:

; 2860 : 		}
; 2861 : 	}
; 2862 : 
; 2863 : 	return FALSE;

  00032	33 c0		 xor	 eax, eax

; 2864 : }

  00034	5d		 pop	 ebp
  00035	c2 04 00	 ret	 4
?CheckRestrictionSpellTime@CIllusionTempleProcess@@QAEHH@Z ENDP ; CIllusionTempleProcess::CheckRestrictionSpellTime
_TEXT	ENDS
PUBLIC	??_C@_0JI@DILJDNAH@?$FLIllusion?5Temple?$FN?5?$CI?$CFd?$CJ?5RewardExp@ ; `string'
PUBLIC	_this$GSCopy$
PUBLIC	__$ArrayPad$
PUBLIC	?SendRewardScore@CIllusionTempleProcess@@QAEXXZ	; CIllusionTempleProcess::SendRewardScore
;	COMDAT ??_C@_0JI@DILJDNAH@?$FLIllusion?5Temple?$FN?5?$CI?$CFd?$CJ?5RewardExp@
CONST	SEGMENT
??_C@_0JI@DILJDNAH@?$FLIllusion?5Temple?$FN?5?$CI?$CFd?$CJ?5RewardExp@ DB '['
	DB	'Illusion Temple] (%d) RewardExp Result  (Account:%s, Name:%s,'
	DB	' Team:%d, Class:%d, UserKillCount:%d, RelicsMoveCount:%d, Rew'
	DB	'ardExp:%d, RankingPoint: %d)', 00H		; `string'
; Function compile flags: /Ogtp
CONST	ENDS
;	COMDAT ?SendRewardScore@CIllusionTempleProcess@@QAEXXZ
_TEXT	SEGMENT
_TempMsg$216985 = -304					; size = 20
_this$GSCopy$ = -284					; size = 4
tv693 = -280						; size = 4
tv182 = -276						; size = 4
_loc2$ = -272						; size = 4
_pMsg$ = -268						; size = 7
_cTEMP_BUF$ = -260					; size = 256
__$ArrayPad$ = -4					; size = 4
?SendRewardScore@CIllusionTempleProcess@@QAEXXZ PROC	; CIllusionTempleProcess::SendRewardScore, COMDAT
; _this$ = ecx

; 2867 : {

  00000	55		 push	 ebp
  00001	8b ec		 mov	 ebp, esp
  00003	81 ec 30 01 00
	00		 sub	 esp, 304		; 00000130H
  00009	a1 00 00 00 00	 mov	 eax, DWORD PTR ___security_cookie
  0000e	33 c5		 xor	 eax, ebp
  00010	89 45 fc	 mov	 DWORD PTR __$ArrayPad$[ebp], eax

; 2868 : 	int loc2 = 0;
; 2869 : 
; 2870 : 	char cTEMP_BUF[256];
; 2871 : 	_ILLUSIONTEMPLE_RANKING_DATA pMsg;
; 2872 : 
; 2873 : 	pMsg.m_btYellowTeamScore = this->m_btYellowTeamScore;

  00013	0f b6 81 d0 03
	00 00		 movzx	 eax, BYTE PTR [ecx+976]

; 2874 : 	pMsg.m_btBlueTeamScore = this->m_btBlueTeamScore;

  0001a	8a 91 d1 03 00
	00		 mov	 dl, BYTE PTR [ecx+977]
  00020	53		 push	 ebx
  00021	88 85 f8 fe ff
	ff		 mov	 BYTE PTR _pMsg$[ebp+4], al

; 2875 : 	pMsg.m_btEnteredUserCount = this->m_iEnteredUserCount;

  00027	0f b6 81 28 02
	00 00		 movzx	 eax, BYTE PTR [ecx+552]
  0002e	56		 push	 esi

; 2882 : 	{
; 2883 : 		_ILLUSIONTEMPLE_PLAYER_RANK_DATA TempMsg;
; 2884 : 
; 2885 : 		if(this->m_FloorData[i].m_iTeamPlayerIndex != -1 && gObj[this->m_FloorData[i].m_iTeamPlayerIndex].Connected > PLAYER_LOGGED)

  0002f	8d 71 20	 lea	 esi, DWORD PTR [ecx+32]
  00032	57		 push	 edi
  00033	89 8d e4 fe ff
	ff		 mov	 DWORD PTR _this$GSCopy$[ebp], ecx
  00039	88 95 f9 fe ff
	ff		 mov	 BYTE PTR _pMsg$[ebp+5], dl
  0003f	88 85 fa fe ff
	ff		 mov	 BYTE PTR _pMsg$[ebp+6], al
  00045	c7 85 f0 fe ff
	ff 07 00 00 00	 mov	 DWORD PTR _loc2$[ebp], 7
  0004f	8d bd 03 ff ff
	ff		 lea	 edi, DWORD PTR _cTEMP_BUF$[ebp+7]
  00055	89 b5 e8 fe ff
	ff		 mov	 DWORD PTR tv693[ebp], esi
  0005b	c7 85 ec fe ff
	ff 0a 00 00 00	 mov	 DWORD PTR tv182[ebp], 10 ; 0000000aH
$LL9@SendReward:
  00065	8b 06		 mov	 eax, DWORD PTR [esi]
  00067	83 f8 ff	 cmp	 eax, -1
  0006a	0f 84 cf 00 00
	00		 je	 $LN8@SendReward
  00070	69 c0 50 2b 00
	00		 imul	 eax, 11088		; 00002b50H
  00076	03 05 00 00 00
	00		 add	 eax, DWORD PTR ?gObj@@3PAUOBJECTSTRUCT@@A ; gObj
  0007c	83 78 04 02	 cmp	 DWORD PTR [eax+4], 2
  00080	0f 8e b9 00 00
	00		 jle	 $LN8@SendReward

; 2886 : 		{
; 2887 : 			memcpy(TempMsg.szCharacterName, gObj[this->m_FloorData[i].m_iTeamPlayerIndex].Name, 10);

  00086	8b 50 7b	 mov	 edx, DWORD PTR [eax+123]
  00089	8b 58 77	 mov	 ebx, DWORD PTR [eax+119]

; 2888 : 			TempMsg.m_btMapNumber = this->m_btFloorIndex + MAP_INDEX_ILLUSIONTEMPLE_MIN;

  0008c	8a 89 2c 02 00
	00		 mov	 cl, BYTE PTR [ecx+556]
  00092	89 95 d4 fe ff
	ff		 mov	 DWORD PTR _TempMsg$216985[ebp+4], edx
  00098	66 8b 50 7f	 mov	 dx, WORD PTR [eax+127]

; 2889 : 			TempMsg.m_btTeamJoinSide = this->m_FloorData[i].m_btTeamJoinSide;
; 2890 : 			TempMsg.m_btClass = gObj[this->m_FloorData[i].m_iTeamPlayerIndex].Class;

  0009c	8a 80 b8 00 00
	00		 mov	 al, BYTE PTR [eax+184]

; 2891 : 			TempMsg.m_dwExpReward = this->m_FloorData[i].m_i64ExpReward;
; 2892 : 
; 2893 : 			memcpy(&cTEMP_BUF[loc2],&TempMsg,sizeof(_ILLUSIONTEMPLE_PLAYER_RANK_DATA));

  000a2	89 1f		 mov	 DWORD PTR [edi], ebx
  000a4	8b 9d d4 fe ff
	ff		 mov	 ebx, DWORD PTR _TempMsg$216985[ebp+4]
  000aa	89 5f 04	 mov	 DWORD PTR [edi+4], ebx
  000ad	66 89 95 d8 fe
	ff ff		 mov	 WORD PTR _TempMsg$216985[ebp+8], dx
  000b4	8d 51 2d	 lea	 edx, DWORD PTR [ecx+45]
  000b7	88 95 da fe ff
	ff		 mov	 BYTE PTR _TempMsg$216985[ebp+10], dl
  000bd	8a 56 04	 mov	 dl, BYTE PTR [esi+4]
  000c0	88 85 dc fe ff
	ff		 mov	 BYTE PTR _TempMsg$216985[ebp+12], al
  000c6	8b 46 18	 mov	 eax, DWORD PTR [esi+24]
  000c9	88 95 db fe ff
	ff		 mov	 BYTE PTR _TempMsg$216985[ebp+11], dl
  000cf	8b 9d d8 fe ff
	ff		 mov	 ebx, DWORD PTR _TempMsg$216985[ebp+8]
  000d5	89 5f 08	 mov	 DWORD PTR [edi+8], ebx
  000d8	8b 9d dc fe ff
	ff		 mov	 ebx, DWORD PTR _TempMsg$216985[ebp+12]
  000de	89 5f 0c	 mov	 DWORD PTR [edi+12], ebx

; 2894 : 
; 2895 : 			loc2 += sizeof(_ILLUSIONTEMPLE_PLAYER_RANK_DATA);
; 2896 : 
; 2897 : 			LogAddTD("[Illusion Temple] (%d) RewardExp Result  (Account:%s, Name:%s, Team:%d, Class:%d, UserKillCount:%d, RelicsMoveCount:%d, RewardExp:%d, RankingPoint: %d)", this->m_btFloorIndex+1, gObj[this->m_FloorData[i].m_iTeamPlayerIndex].AccountID, gObj[this->m_FloorData[i].m_iTeamPlayerIndex].Name, this->m_FloorData[i].m_btTeamJoinSide, gObj[this->m_FloorData[i].m_iTeamPlayerIndex].DbClass, this->m_FloorData[i].m_btUserKillCount, this->m_FloorData[i].m_btPlayerRewardKillCount, this->m_FloorData[i].m_i64ExpReward, this->m_FloorData[i].m_dwRankingPoint);

  000e1	8b 5e 20	 mov	 ebx, DWORD PTR [esi+32]
  000e4	53		 push	 ebx
  000e5	8b 5e 1c	 mov	 ebx, DWORD PTR [esi+28]
  000e8	53		 push	 ebx
  000e9	8b 5e 18	 mov	 ebx, DWORD PTR [esi+24]
  000ec	89 47 10	 mov	 DWORD PTR [edi+16], eax
  000ef	8b 06		 mov	 eax, DWORD PTR [esi]
  000f1	53		 push	 ebx
  000f2	69 c0 50 2b 00
	00		 imul	 eax, 11088		; 00002b50H
  000f8	0f b6 5e 12	 movzx	 ebx, BYTE PTR [esi+18]
  000fc	03 05 00 00 00
	00		 add	 eax, DWORD PTR ?gObj@@3PAUOBJECTSTRUCT@@A ; gObj
  00102	53		 push	 ebx
  00103	0f b6 5e 10	 movzx	 ebx, BYTE PTR [esi+16]
  00107	83 85 f0 fe ff
	ff 14		 add	 DWORD PTR _loc2$[ebp], 20 ; 00000014H
  0010e	53		 push	 ebx
  0010f	0f b6 98 ba 00
	00 00		 movzx	 ebx, BYTE PTR [eax+186]
  00116	53		 push	 ebx
  00117	0f b6 d2	 movzx	 edx, dl
  0011a	52		 push	 edx
  0011b	8d 50 77	 lea	 edx, DWORD PTR [eax+119]
  0011e	52		 push	 edx
  0011f	83 c0 6c	 add	 eax, 108		; 0000006cH
  00122	50		 push	 eax
  00123	0f b6 c1	 movzx	 eax, cl
  00126	40		 inc	 eax
  00127	50		 push	 eax
  00128	68 00 00 00 00	 push	 OFFSET ??_C@_0JI@DILJDNAH@?$FLIllusion?5Temple?$FN?5?$CI?$CFd?$CJ?5RewardExp@
  0012d	83 c7 14	 add	 edi, 20			; 00000014H
  00130	ff 15 00 00 00
	00		 call	 DWORD PTR ?LogAddTD@@3P6AXPADZZA ; LogAddTD
  00136	8b 8d e4 fe ff
	ff		 mov	 ecx, DWORD PTR _this$GSCopy$[ebp]
  0013c	83 c4 2c	 add	 esp, 44			; 0000002cH
$LN8@SendReward:

; 2876 : 
; 2877 : 	loc2 += sizeof(_ILLUSIONTEMPLE_RANKING_DATA);
; 2878 : 
; 2879 : 	int i;
; 2880 : 
; 2881 : 	for(i = 0; i < MAX_FLOOR_USER; i++)

  0013f	83 c6 30	 add	 esi, 48			; 00000030H
  00142	ff 8d ec fe ff
	ff		 dec	 DWORD PTR tv182[ebp]
  00148	0f 85 17 ff ff
	ff		 jne	 $LL9@SendReward

; 2898 : 		}
; 2899 : 	}
; 2900 : 
; 2901 : 	PHeadSubSetB((LPBYTE)&pMsg, 0xBF, 0x04, loc2);

  0014e	8b 8d f0 fe ff
	ff		 mov	 ecx, DWORD PTR _loc2$[ebp]
  00154	51		 push	 ecx
  00155	6a 04		 push	 4
  00157	8d 95 f4 fe ff
	ff		 lea	 edx, DWORD PTR _pMsg$[ebp]
  0015d	68 bf 00 00 00	 push	 191			; 000000bfH
  00162	52		 push	 edx
  00163	e8 00 00 00 00	 call	 ?PHeadSubSetB@@YAXPAEEEH@Z ; PHeadSubSetB

; 2902 : 
; 2903 : 	memcpy(cTEMP_BUF,&pMsg,sizeof(pMsg));

  00168	8b 85 f4 fe ff
	ff		 mov	 eax, DWORD PTR _pMsg$[ebp]
  0016e	66 8b 8d f8 fe
	ff ff		 mov	 cx, WORD PTR _pMsg$[ebp+4]
  00175	8a 95 fa fe ff
	ff		 mov	 dl, BYTE PTR _pMsg$[ebp+6]
  0017b	8b b5 e8 fe ff
	ff		 mov	 esi, DWORD PTR tv693[ebp]
  00181	83 c4 10	 add	 esp, 16			; 00000010H
  00184	89 85 fc fe ff
	ff		 mov	 DWORD PTR _cTEMP_BUF$[ebp], eax
  0018a	66 89 8d 00 ff
	ff ff		 mov	 WORD PTR _cTEMP_BUF$[ebp+4], cx
  00191	88 95 02 ff ff
	ff		 mov	 BYTE PTR _cTEMP_BUF$[ebp+6], dl
  00197	bf 0a 00 00 00	 mov	 edi, 10			; 0000000aH
  0019c	b3 ff		 mov	 bl, 255			; 000000ffH
  0019e	8b ff		 npad	 2
$LL5@SendReward:

; 2906 : 	{
; 2907 : 		if(this->m_FloorData[i].m_btTeamJoinSide == (BYTE)-1)

  001a0	38 5e 04	 cmp	 BYTE PTR [esi+4], bl
  001a3	74 34		 je	 SHORT $LN4@SendReward

; 2908 : 		{
; 2909 : 			continue;
; 2910 : 		}
; 2911 : 
; 2912 : 		if(this->m_FloorData[i].m_iTeamPlayerIndex != -1 && gObj[this->m_FloorData[i].m_iTeamPlayerIndex].Connected > PLAYER_LOGGED)

  001a5	8b 06		 mov	 eax, DWORD PTR [esi]
  001a7	83 f8 ff	 cmp	 eax, -1
  001aa	74 2d		 je	 SHORT $LN4@SendReward
  001ac	8b 15 00 00 00
	00		 mov	 edx, DWORD PTR ?gObj@@3PAUOBJECTSTRUCT@@A ; gObj
  001b2	8b c8		 mov	 ecx, eax
  001b4	69 c9 50 2b 00
	00		 imul	 ecx, 11088		; 00002b50H
  001ba	83 7c 11 04 02	 cmp	 DWORD PTR [ecx+edx+4], 2
  001bf	7e 18		 jle	 SHORT $LN4@SendReward

; 2913 : 		{
; 2914 : 			DataSend(this->m_FloorData[i].m_iTeamPlayerIndex,(LPBYTE)cTEMP_BUF,pMsg.h.size);

  001c1	0f b6 8d f5 fe
	ff ff		 movzx	 ecx, BYTE PTR _pMsg$[ebp+1]
  001c8	51		 push	 ecx
  001c9	8d 95 fc fe ff
	ff		 lea	 edx, DWORD PTR _cTEMP_BUF$[ebp]
  001cf	52		 push	 edx
  001d0	50		 push	 eax
  001d1	e8 00 00 00 00	 call	 ?DataSend@@YAHHPAEK@Z	; DataSend
  001d6	83 c4 0c	 add	 esp, 12			; 0000000cH
$LN4@SendReward:

; 2904 : 
; 2905 : 	for(i = 0; i < MAX_FLOOR_USER; i++)

  001d9	83 c6 30	 add	 esi, 48			; 00000030H
  001dc	4f		 dec	 edi
  001dd	75 c1		 jne	 SHORT $LL5@SendReward

; 2915 : 		}
; 2916 : 	}
; 2917 : }

  001df	8b 4d fc	 mov	 ecx, DWORD PTR __$ArrayPad$[ebp]
  001e2	5f		 pop	 edi
  001e3	5e		 pop	 esi
  001e4	33 cd		 xor	 ecx, ebp
  001e6	5b		 pop	 ebx
  001e7	e8 00 00 00 00	 call	 @__security_check_cookie@4
  001ec	8b e5		 mov	 esp, ebp
  001ee	5d		 pop	 ebp
  001ef	c3		 ret	 0
?SendRewardScore@CIllusionTempleProcess@@QAEXXZ ENDP	; CIllusionTempleProcess::SendRewardScore
_TEXT	ENDS
PUBLIC	?size@?$list@UILLUSIONTEMPLE_START_TIME@@V?$allocator@UILLUSIONTEMPLE_START_TIME@@@std@@@std@@QBEIXZ ; std::list<ILLUSIONTEMPLE_START_TIME,std::allocator<ILLUSIONTEMPLE_START_TIME> >::size
; Function compile flags: /Ogtp
; File d:\program files (x86)\microsoft visual studio 10.0\vc\include\list
;	COMDAT ?size@?$list@UILLUSIONTEMPLE_START_TIME@@V?$allocator@UILLUSIONTEMPLE_START_TIME@@@std@@@std@@QBEIXZ
_TEXT	SEGMENT
?size@?$list@UILLUSIONTEMPLE_START_TIME@@V?$allocator@UILLUSIONTEMPLE_START_TIME@@@std@@@std@@QBEIXZ PROC ; std::list<ILLUSIONTEMPLE_START_TIME,std::allocator<ILLUSIONTEMPLE_START_TIME> >::size, COMDAT
; _this$ = ecx

; 877  : 		return (this->_Mysize);

  00000	8b 41 04	 mov	 eax, DWORD PTR [ecx+4]

; 878  : 		}

  00003	c3		 ret	 0
?size@?$list@UILLUSIONTEMPLE_START_TIME@@V?$allocator@UILLUSIONTEMPLE_START_TIME@@@std@@@std@@QBEIXZ ENDP ; std::list<ILLUSIONTEMPLE_START_TIME,std::allocator<ILLUSIONTEMPLE_START_TIME> >::size
_TEXT	ENDS
PUBLIC	??8?$_List_const_iterator@V?$_List_val@UILLUSIONTEMPLE_START_TIME@@V?$allocator@UILLUSIONTEMPLE_START_TIME@@@std@@@std@@@std@@QBE_NABV01@@Z ; std::_List_const_iterator<std::_List_val<ILLUSIONTEMPLE_START_TIME,std::allocator<ILLUSIONTEMPLE_START_TIME> > >::operator==
; Function compile flags: /Ogtp
;	COMDAT ??8?$_List_const_iterator@V?$_List_val@UILLUSIONTEMPLE_START_TIME@@V?$allocator@UILLUSIONTEMPLE_START_TIME@@@std@@@std@@@std@@QBE_NABV01@@Z
_TEXT	SEGMENT
__Right$ = 8						; size = 4
??8?$_List_const_iterator@V?$_List_val@UILLUSIONTEMPLE_START_TIME@@V?$allocator@UILLUSIONTEMPLE_START_TIME@@@std@@@std@@@std@@QBE_NABV01@@Z PROC ; std::_List_const_iterator<std::_List_val<ILLUSIONTEMPLE_START_TIME,std::allocator<ILLUSIONTEMPLE_START_TIME> > >::operator==, COMDAT
; _this$ = ecx

; 281  : 		{	// test for iterator equality

  00000	55		 push	 ebp
  00001	8b ec		 mov	 ebp, esp

; 282  :  #if _ITERATOR_DEBUG_LEVEL == 2
; 283  : 		if (this->_Getcont() == 0
; 284  : 			|| this->_Getcont() != _Right._Getcont())
; 285  : 			{	// report error
; 286  : 			_DEBUG_ERROR("list iterators incompatible");
; 287  : 			_SCL_SECURE_INVALID_ARGUMENT;
; 288  : 			}
; 289  : 
; 290  :  #elif _ITERATOR_DEBUG_LEVEL == 1
; 291  : 		_SCL_SECURE_VALIDATE(this->_Getcont() != 0
; 292  : 			&& this->_Getcont() == _Right._Getcont());
; 293  :  #endif /* _ITERATOR_DEBUG_LEVEL */
; 294  : 
; 295  : 		return (this->_Ptr == _Right._Ptr);

  00003	8b 01		 mov	 eax, DWORD PTR [ecx]
  00005	8b 55 08	 mov	 edx, DWORD PTR __Right$[ebp]
  00008	33 c9		 xor	 ecx, ecx
  0000a	3b 02		 cmp	 eax, DWORD PTR [edx]
  0000c	0f 94 c0	 sete	 al

; 296  : 		}

  0000f	5d		 pop	 ebp
  00010	c2 04 00	 ret	 4
??8?$_List_const_iterator@V?$_List_val@UILLUSIONTEMPLE_START_TIME@@V?$allocator@UILLUSIONTEMPLE_START_TIME@@@std@@@std@@@std@@QBE_NABV01@@Z ENDP ; std::_List_const_iterator<std::_List_val<ILLUSIONTEMPLE_START_TIME,std::allocator<ILLUSIONTEMPLE_START_TIME> > >::operator==
_TEXT	ENDS
PUBLIC	??9?$_List_const_iterator@V?$_List_val@UILLUSIONTEMPLE_START_TIME@@V?$allocator@UILLUSIONTEMPLE_START_TIME@@@std@@@std@@@std@@QBE_NABV01@@Z ; std::_List_const_iterator<std::_List_val<ILLUSIONTEMPLE_START_TIME,std::allocator<ILLUSIONTEMPLE_START_TIME> > >::operator!=
; Function compile flags: /Ogtp
;	COMDAT ??9?$_List_const_iterator@V?$_List_val@UILLUSIONTEMPLE_START_TIME@@V?$allocator@UILLUSIONTEMPLE_START_TIME@@@std@@@std@@@std@@QBE_NABV01@@Z
_TEXT	SEGMENT
__Right$ = 8						; size = 4
??9?$_List_const_iterator@V?$_List_val@UILLUSIONTEMPLE_START_TIME@@V?$allocator@UILLUSIONTEMPLE_START_TIME@@@std@@@std@@@std@@QBE_NABV01@@Z PROC ; std::_List_const_iterator<std::_List_val<ILLUSIONTEMPLE_START_TIME,std::allocator<ILLUSIONTEMPLE_START_TIME> > >::operator!=, COMDAT
; _this$ = ecx

; 299  : 		{	// test for iterator inequality

  00000	55		 push	 ebp
  00001	8b ec		 mov	 ebp, esp

; 300  : 		return (!(*this == _Right));

  00003	8b 01		 mov	 eax, DWORD PTR [ecx]
  00005	8b 55 08	 mov	 edx, DWORD PTR __Right$[ebp]
  00008	33 c9		 xor	 ecx, ecx
  0000a	3b 02		 cmp	 eax, DWORD PTR [edx]
  0000c	0f 95 c0	 setne	 al

; 301  : 		}

  0000f	5d		 pop	 ebp
  00010	c2 04 00	 ret	 4
??9?$_List_const_iterator@V?$_List_val@UILLUSIONTEMPLE_START_TIME@@V?$allocator@UILLUSIONTEMPLE_START_TIME@@@std@@@std@@@std@@QBE_NABV01@@Z ENDP ; std::_List_const_iterator<std::_List_val<ILLUSIONTEMPLE_START_TIME,std::allocator<ILLUSIONTEMPLE_START_TIME> > >::operator!=
_TEXT	ENDS
PUBLIC	?_Nextnode@?$_List_val@UILLUSIONTEMPLE_START_TIME@@V?$allocator@UILLUSIONTEMPLE_START_TIME@@@std@@@std@@SAAAPAU_Node@?$_List_nod@UILLUSIONTEMPLE_START_TIME@@V?$allocator@UILLUSIONTEMPLE_START_TIME@@@std@@@2@PAU342@@Z ; std::_List_val<ILLUSIONTEMPLE_START_TIME,std::allocator<ILLUSIONTEMPLE_START_TIME> >::_Nextnode
; Function compile flags: /Ogtp
;	COMDAT ?_Nextnode@?$_List_val@UILLUSIONTEMPLE_START_TIME@@V?$allocator@UILLUSIONTEMPLE_START_TIME@@@std@@@std@@SAAAPAU_Node@?$_List_nod@UILLUSIONTEMPLE_START_TIME@@V?$allocator@UILLUSIONTEMPLE_START_TIME@@@std@@@2@PAU342@@Z
_TEXT	SEGMENT
__Pnode$ = 8						; size = 4
?_Nextnode@?$_List_val@UILLUSIONTEMPLE_START_TIME@@V?$allocator@UILLUSIONTEMPLE_START_TIME@@@std@@@std@@SAAAPAU_Node@?$_List_nod@UILLUSIONTEMPLE_START_TIME@@V?$allocator@UILLUSIONTEMPLE_START_TIME@@@std@@@2@PAU342@@Z PROC ; std::_List_val<ILLUSIONTEMPLE_START_TIME,std::allocator<ILLUSIONTEMPLE_START_TIME> >::_Nextnode, COMDAT

; 560  : 		{	// return reference to successor pointer in node

  00000	55		 push	 ebp
  00001	8b ec		 mov	 ebp, esp

; 561  : 		return ((_Nodepref)(*_Pnode)._Next);

  00003	8b 45 08	 mov	 eax, DWORD PTR __Pnode$[ebp]

; 562  : 		}

  00006	5d		 pop	 ebp
  00007	c3		 ret	 0
?_Nextnode@?$_List_val@UILLUSIONTEMPLE_START_TIME@@V?$allocator@UILLUSIONTEMPLE_START_TIME@@@std@@@std@@SAAAPAU_Node@?$_List_nod@UILLUSIONTEMPLE_START_TIME@@V?$allocator@UILLUSIONTEMPLE_START_TIME@@@std@@@2@PAU342@@Z ENDP ; std::_List_val<ILLUSIONTEMPLE_START_TIME,std::allocator<ILLUSIONTEMPLE_START_TIME> >::_Nextnode
_TEXT	ENDS
PUBLIC	??0?$allocator@UILLUSIONTEMPLE_START_TIME@@@std@@QAE@XZ ; std::allocator<ILLUSIONTEMPLE_START_TIME>::allocator<ILLUSIONTEMPLE_START_TIME>
; Function compile flags: /Ogtp
; File d:\program files (x86)\microsoft visual studio 10.0\vc\include\xmemory
;	COMDAT ??0?$allocator@UILLUSIONTEMPLE_START_TIME@@@std@@QAE@XZ
_TEXT	SEGMENT
??0?$allocator@UILLUSIONTEMPLE_START_TIME@@@std@@QAE@XZ PROC ; std::allocator<ILLUSIONTEMPLE_START_TIME>::allocator<ILLUSIONTEMPLE_START_TIME>, COMDAT
; _this$ = ecx

; 161  : 	_ALLOCATOR() _THROW0()

  00000	8b c1		 mov	 eax, ecx

; 162  : 		{	// construct default allocator (do nothing)
; 163  : 		}

  00002	c3		 ret	 0
??0?$allocator@UILLUSIONTEMPLE_START_TIME@@@std@@QAE@XZ ENDP ; std::allocator<ILLUSIONTEMPLE_START_TIME>::allocator<ILLUSIONTEMPLE_START_TIME>
_TEXT	ENDS
PUBLIC	??E?$_List_const_iterator@V?$_List_val@UILLUSIONTEMPLE_START_TIME@@V?$allocator@UILLUSIONTEMPLE_START_TIME@@@std@@@std@@@std@@QAEAAV01@XZ ; std::_List_const_iterator<std::_List_val<ILLUSIONTEMPLE_START_TIME,std::allocator<ILLUSIONTEMPLE_START_TIME> > >::operator++
; Function compile flags: /Ogtp
; File d:\program files (x86)\microsoft visual studio 10.0\vc\include\list
;	COMDAT ??E?$_List_const_iterator@V?$_List_val@UILLUSIONTEMPLE_START_TIME@@V?$allocator@UILLUSIONTEMPLE_START_TIME@@@std@@@std@@@std@@QAEAAV01@XZ
_TEXT	SEGMENT
??E?$_List_const_iterator@V?$_List_val@UILLUSIONTEMPLE_START_TIME@@V?$allocator@UILLUSIONTEMPLE_START_TIME@@@std@@@std@@@std@@QAEAAV01@XZ PROC ; std::_List_const_iterator<std::_List_val<ILLUSIONTEMPLE_START_TIME,std::allocator<ILLUSIONTEMPLE_START_TIME> > >::operator++, COMDAT
; _this$ = ecx

; 221  : 		{	// preincrement

  00000	8b c1		 mov	 eax, ecx

; 222  :  #if _ITERATOR_DEBUG_LEVEL == 2
; 223  : 		if (this->_Getcont() == 0
; 224  : 			|| this->_Ptr == 0
; 225  : 			|| this->_Ptr == ((_Mylist *)this->_Getcont())->_Myhead)
; 226  : 			{	// report error
; 227  : 			_DEBUG_ERROR("list iterator not incrementable");
; 228  : 			_SCL_SECURE_OUT_OF_RANGE;
; 229  : 			}
; 230  : 
; 231  :  #elif _ITERATOR_DEBUG_LEVEL == 1
; 232  : 		_SCL_SECURE_VALIDATE(this->_Getcont() != 0 && this->_Ptr != 0);
; 233  : 		_SCL_SECURE_VALIDATE_RANGE(this->_Ptr !=
; 234  : 			((_Mylist *)this->_Getcont())->_Myhead);
; 235  :  #endif /* _ITERATOR_DEBUG_LEVEL */
; 236  : 
; 237  : 		this->_Ptr = _Mylist::_Nextnode(this->_Ptr);

  00002	8b 08		 mov	 ecx, DWORD PTR [eax]
  00004	8b 11		 mov	 edx, DWORD PTR [ecx]
  00006	89 10		 mov	 DWORD PTR [eax], edx

; 238  : 		return (*this);
; 239  : 		}

  00008	c3		 ret	 0
??E?$_List_const_iterator@V?$_List_val@UILLUSIONTEMPLE_START_TIME@@V?$allocator@UILLUSIONTEMPLE_START_TIME@@@std@@@std@@@std@@QAEAAV01@XZ ENDP ; std::_List_const_iterator<std::_List_val<ILLUSIONTEMPLE_START_TIME,std::allocator<ILLUSIONTEMPLE_START_TIME> > >::operator++
_TEXT	ENDS
PUBLIC	?_Prevnode@?$_List_val@UILLUSIONTEMPLE_START_TIME@@V?$allocator@UILLUSIONTEMPLE_START_TIME@@@std@@@std@@SAAAPAU_Node@?$_List_nod@UILLUSIONTEMPLE_START_TIME@@V?$allocator@UILLUSIONTEMPLE_START_TIME@@@std@@@2@PAU342@@Z ; std::_List_val<ILLUSIONTEMPLE_START_TIME,std::allocator<ILLUSIONTEMPLE_START_TIME> >::_Prevnode
; Function compile flags: /Ogtp
;	COMDAT ?_Prevnode@?$_List_val@UILLUSIONTEMPLE_START_TIME@@V?$allocator@UILLUSIONTEMPLE_START_TIME@@@std@@@std@@SAAAPAU_Node@?$_List_nod@UILLUSIONTEMPLE_START_TIME@@V?$allocator@UILLUSIONTEMPLE_START_TIME@@@std@@@2@PAU342@@Z
_TEXT	SEGMENT
__Pnode$ = 8						; size = 4
?_Prevnode@?$_List_val@UILLUSIONTEMPLE_START_TIME@@V?$allocator@UILLUSIONTEMPLE_START_TIME@@@std@@@std@@SAAAPAU_Node@?$_List_nod@UILLUSIONTEMPLE_START_TIME@@V?$allocator@UILLUSIONTEMPLE_START_TIME@@@std@@@2@PAU342@@Z PROC ; std::_List_val<ILLUSIONTEMPLE_START_TIME,std::allocator<ILLUSIONTEMPLE_START_TIME> >::_Prevnode, COMDAT

; 565  : 		{	// return reference to predecessor pointer in node

  00000	55		 push	 ebp
  00001	8b ec		 mov	 ebp, esp

; 566  : 		return ((_Nodepref)(*_Pnode)._Prev);

  00003	8b 45 08	 mov	 eax, DWORD PTR __Pnode$[ebp]
  00006	83 c0 04	 add	 eax, 4

; 567  : 		}

  00009	5d		 pop	 ebp
  0000a	c3		 ret	 0
?_Prevnode@?$_List_val@UILLUSIONTEMPLE_START_TIME@@V?$allocator@UILLUSIONTEMPLE_START_TIME@@@std@@@std@@SAAAPAU_Node@?$_List_nod@UILLUSIONTEMPLE_START_TIME@@V?$allocator@UILLUSIONTEMPLE_START_TIME@@@std@@@2@PAU342@@Z ENDP ; std::_List_val<ILLUSIONTEMPLE_START_TIME,std::allocator<ILLUSIONTEMPLE_START_TIME> >::_Prevnode
_TEXT	ENDS
PUBLIC	?_Myval@?$_List_val@UILLUSIONTEMPLE_START_TIME@@V?$allocator@UILLUSIONTEMPLE_START_TIME@@@std@@@std@@SAAAUILLUSIONTEMPLE_START_TIME@@PAU_Node@?$_List_nod@UILLUSIONTEMPLE_START_TIME@@V?$allocator@UILLUSIONTEMPLE_START_TIME@@@std@@@2@@Z ; std::_List_val<ILLUSIONTEMPLE_START_TIME,std::allocator<ILLUSIONTEMPLE_START_TIME> >::_Myval
; Function compile flags: /Ogtp
;	COMDAT ?_Myval@?$_List_val@UILLUSIONTEMPLE_START_TIME@@V?$allocator@UILLUSIONTEMPLE_START_TIME@@@std@@@std@@SAAAUILLUSIONTEMPLE_START_TIME@@PAU_Node@?$_List_nod@UILLUSIONTEMPLE_START_TIME@@V?$allocator@UILLUSIONTEMPLE_START_TIME@@@std@@@2@@Z
_TEXT	SEGMENT
__Pnode$ = 8						; size = 4
?_Myval@?$_List_val@UILLUSIONTEMPLE_START_TIME@@V?$allocator@UILLUSIONTEMPLE_START_TIME@@@std@@@std@@SAAAUILLUSIONTEMPLE_START_TIME@@PAU_Node@?$_List_nod@UILLUSIONTEMPLE_START_TIME@@V?$allocator@UILLUSIONTEMPLE_START_TIME@@@std@@@2@@Z PROC ; std::_List_val<ILLUSIONTEMPLE_START_TIME,std::allocator<ILLUSIONTEMPLE_START_TIME> >::_Myval, COMDAT

; 570  : 		{	// return reference to value in node

  00000	55		 push	 ebp
  00001	8b ec		 mov	 ebp, esp

; 571  : 		return ((reference)(*_Pnode)._Myval);

  00003	8b 45 08	 mov	 eax, DWORD PTR __Pnode$[ebp]
  00006	83 c0 08	 add	 eax, 8

; 572  : 		}

  00009	5d		 pop	 ebp
  0000a	c3		 ret	 0
?_Myval@?$_List_val@UILLUSIONTEMPLE_START_TIME@@V?$allocator@UILLUSIONTEMPLE_START_TIME@@@std@@@std@@SAAAUILLUSIONTEMPLE_START_TIME@@PAU_Node@?$_List_nod@UILLUSIONTEMPLE_START_TIME@@V?$allocator@UILLUSIONTEMPLE_START_TIME@@@std@@@2@@Z ENDP ; std::_List_val<ILLUSIONTEMPLE_START_TIME,std::allocator<ILLUSIONTEMPLE_START_TIME> >::_Myval
_TEXT	ENDS
PUBLIC	??0?$allocator@UILLUSIONTEMPLE_START_TIME@@@std@@QAE@ABV01@@Z ; std::allocator<ILLUSIONTEMPLE_START_TIME>::allocator<ILLUSIONTEMPLE_START_TIME>
; Function compile flags: /Ogtp
; File d:\program files (x86)\microsoft visual studio 10.0\vc\include\xmemory
;	COMDAT ??0?$allocator@UILLUSIONTEMPLE_START_TIME@@@std@@QAE@ABV01@@Z
_TEXT	SEGMENT
___formal$ = 8						; size = 4
??0?$allocator@UILLUSIONTEMPLE_START_TIME@@@std@@QAE@ABV01@@Z PROC ; std::allocator<ILLUSIONTEMPLE_START_TIME>::allocator<ILLUSIONTEMPLE_START_TIME>, COMDAT
; _this$ = ecx

; 165  : 	_ALLOCATOR(const _ALLOCATOR<_Ty>&) _THROW0()

  00000	8b c1		 mov	 eax, ecx

; 166  : 		{	// construct by copying (do nothing)
; 167  : 		}

  00002	c2 04 00	 ret	 4
??0?$allocator@UILLUSIONTEMPLE_START_TIME@@@std@@QAE@ABV01@@Z ENDP ; std::allocator<ILLUSIONTEMPLE_START_TIME>::allocator<ILLUSIONTEMPLE_START_TIME>
_TEXT	ENDS
PUBLIC	?deallocate@?$allocator@U_Node@?$_List_nod@UILLUSIONTEMPLE_START_TIME@@V?$allocator@UILLUSIONTEMPLE_START_TIME@@@std@@@std@@@std@@QAEXPAU_Node@?$_List_nod@UILLUSIONTEMPLE_START_TIME@@V?$allocator@UILLUSIONTEMPLE_START_TIME@@@std@@@2@I@Z ; std::allocator<std::_List_nod<ILLUSIONTEMPLE_START_TIME,std::allocator<ILLUSIONTEMPLE_START_TIME> >::_Node>::deallocate
EXTRN	??3@YAXPAX@Z:PROC				; operator delete
; Function compile flags: /Ogtp
;	COMDAT ?deallocate@?$allocator@U_Node@?$_List_nod@UILLUSIONTEMPLE_START_TIME@@V?$allocator@UILLUSIONTEMPLE_START_TIME@@@std@@@std@@@std@@QAEXPAU_Node@?$_List_nod@UILLUSIONTEMPLE_START_TIME@@V?$allocator@UILLUSIONTEMPLE_START_TIME@@@std@@@2@I@Z
_TEXT	SEGMENT
__Ptr$ = 8						; size = 4
___formal$ = 12						; size = 4
?deallocate@?$allocator@U_Node@?$_List_nod@UILLUSIONTEMPLE_START_TIME@@V?$allocator@UILLUSIONTEMPLE_START_TIME@@@std@@@std@@@std@@QAEXPAU_Node@?$_List_nod@UILLUSIONTEMPLE_START_TIME@@V?$allocator@UILLUSIONTEMPLE_START_TIME@@@std@@@2@I@Z PROC ; std::allocator<std::_List_nod<ILLUSIONTEMPLE_START_TIME,std::allocator<ILLUSIONTEMPLE_START_TIME> >::_Node>::deallocate, COMDAT
; _this$ = ecx

; 181  : 		{	// deallocate object at _Ptr, ignore size

  00000	55		 push	 ebp
  00001	8b ec		 mov	 ebp, esp

; 182  : 		::operator delete(_Ptr);

  00003	8b 45 08	 mov	 eax, DWORD PTR __Ptr$[ebp]
  00006	50		 push	 eax
  00007	e8 00 00 00 00	 call	 ??3@YAXPAX@Z		; operator delete
  0000c	83 c4 04	 add	 esp, 4

; 183  : 		}

  0000f	5d		 pop	 ebp
  00010	c2 08 00	 ret	 8
?deallocate@?$allocator@U_Node@?$_List_nod@UILLUSIONTEMPLE_START_TIME@@V?$allocator@UILLUSIONTEMPLE_START_TIME@@@std@@@std@@@std@@QAEXPAU_Node@?$_List_nod@UILLUSIONTEMPLE_START_TIME@@V?$allocator@UILLUSIONTEMPLE_START_TIME@@@std@@@2@I@Z ENDP ; std::allocator<std::_List_nod<ILLUSIONTEMPLE_START_TIME,std::allocator<ILLUSIONTEMPLE_START_TIME> >::_Node>::deallocate
_TEXT	ENDS
PUBLIC	??0?$_List_unchecked_const_iterator@V?$_List_val@UILLUSIONTEMPLE_START_TIME@@V?$allocator@UILLUSIONTEMPLE_START_TIME@@@std@@@std@@U_Iterator_base0@2@@std@@QAE@XZ ; std::_List_unchecked_const_iterator<std::_List_val<ILLUSIONTEMPLE_START_TIME,std::allocator<ILLUSIONTEMPLE_START_TIME> >,std::_Iterator_base0>::_List_unchecked_const_iterator<std::_List_val<ILLUSIONTEMPLE_START_TIME,std::allocator<ILLUSIONTEMPLE_START_TIME> >,std::_Iterator_base0>
; Function compile flags: /Ogtp
; File d:\program files (x86)\microsoft visual studio 10.0\vc\include\list
;	COMDAT ??0?$_List_unchecked_const_iterator@V?$_List_val@UILLUSIONTEMPLE_START_TIME@@V?$allocator@UILLUSIONTEMPLE_START_TIME@@@std@@@std@@U_Iterator_base0@2@@std@@QAE@XZ
_TEXT	SEGMENT
??0?$_List_unchecked_const_iterator@V?$_List_val@UILLUSIONTEMPLE_START_TIME@@V?$allocator@UILLUSIONTEMPLE_START_TIME@@@std@@@std@@U_Iterator_base0@2@@std@@QAE@XZ PROC ; std::_List_unchecked_const_iterator<std::_List_val<ILLUSIONTEMPLE_START_TIME,std::allocator<ILLUSIONTEMPLE_START_TIME> >,std::_Iterator_base0>::_List_unchecked_const_iterator<std::_List_val<ILLUSIONTEMPLE_START_TIME,std::allocator<ILLUSIONTEMPLE_START_TIME> >,std::_Iterator_base0>, COMDAT
; _this$ = ecx

; 36   : 		{	// construct with null node pointer

  00000	8b c1		 mov	 eax, ecx
  00002	c7 00 00 00 00
	00		 mov	 DWORD PTR [eax], 0

; 37   : 		}

  00008	c3		 ret	 0
??0?$_List_unchecked_const_iterator@V?$_List_val@UILLUSIONTEMPLE_START_TIME@@V?$allocator@UILLUSIONTEMPLE_START_TIME@@@std@@@std@@U_Iterator_base0@2@@std@@QAE@XZ ENDP ; std::_List_unchecked_const_iterator<std::_List_val<ILLUSIONTEMPLE_START_TIME,std::allocator<ILLUSIONTEMPLE_START_TIME> >,std::_Iterator_base0>::_List_unchecked_const_iterator<std::_List_val<ILLUSIONTEMPLE_START_TIME,std::allocator<ILLUSIONTEMPLE_START_TIME> >,std::_Iterator_base0>
_TEXT	ENDS
PUBLIC	??$?0UILLUSIONTEMPLE_START_TIME@@@?$allocator@U_Node@?$_List_nod@UILLUSIONTEMPLE_START_TIME@@V?$allocator@UILLUSIONTEMPLE_START_TIME@@@std@@@std@@@std@@QAE@ABV?$allocator@UILLUSIONTEMPLE_START_TIME@@@1@@Z ; std::allocator<std::_List_nod<ILLUSIONTEMPLE_START_TIME,std::allocator<ILLUSIONTEMPLE_START_TIME> >::_Node>::allocator<std::_List_nod<ILLUSIONTEMPLE_START_TIME,std::allocator<ILLUSIONTEMPLE_START_TIME> >::_Node><ILLUSIONTEMPLE_START_TIME>
; Function compile flags: /Ogtp
; File d:\program files (x86)\microsoft visual studio 10.0\vc\include\xmemory
;	COMDAT ??$?0UILLUSIONTEMPLE_START_TIME@@@?$allocator@U_Node@?$_List_nod@UILLUSIONTEMPLE_START_TIME@@V?$allocator@UILLUSIONTEMPLE_START_TIME@@@std@@@std@@@std@@QAE@ABV?$allocator@UILLUSIONTEMPLE_START_TIME@@@1@@Z
_TEXT	SEGMENT
___formal$ = 8						; size = 4
??$?0UILLUSIONTEMPLE_START_TIME@@@?$allocator@U_Node@?$_List_nod@UILLUSIONTEMPLE_START_TIME@@V?$allocator@UILLUSIONTEMPLE_START_TIME@@@std@@@std@@@std@@QAE@ABV?$allocator@UILLUSIONTEMPLE_START_TIME@@@1@@Z PROC ; std::allocator<std::_List_nod<ILLUSIONTEMPLE_START_TIME,std::allocator<ILLUSIONTEMPLE_START_TIME> >::_Node>::allocator<std::_List_nod<ILLUSIONTEMPLE_START_TIME,std::allocator<ILLUSIONTEMPLE_START_TIME> >::_Node><ILLUSIONTEMPLE_START_TIME>, COMDAT
; _this$ = ecx

; 170  : 		_ALLOCATOR(const _ALLOCATOR<_Other>&) _THROW0()

  00000	8b c1		 mov	 eax, ecx

; 171  : 		{	// construct from a related allocator (do nothing)
; 172  : 		}

  00002	c2 04 00	 ret	 4
??$?0UILLUSIONTEMPLE_START_TIME@@@?$allocator@U_Node@?$_List_nod@UILLUSIONTEMPLE_START_TIME@@V?$allocator@UILLUSIONTEMPLE_START_TIME@@@std@@@std@@@std@@QAE@ABV?$allocator@UILLUSIONTEMPLE_START_TIME@@@1@@Z ENDP ; std::allocator<std::_List_nod<ILLUSIONTEMPLE_START_TIME,std::allocator<ILLUSIONTEMPLE_START_TIME> >::_Node>::allocator<std::_List_nod<ILLUSIONTEMPLE_START_TIME,std::allocator<ILLUSIONTEMPLE_START_TIME> >::_Node><ILLUSIONTEMPLE_START_TIME>
_TEXT	ENDS
PUBLIC	??$_Destroy@U_Node@?$_List_nod@UILLUSIONTEMPLE_START_TIME@@V?$allocator@UILLUSIONTEMPLE_START_TIME@@@std@@@std@@@std@@YAXPAU_Node@?$_List_nod@UILLUSIONTEMPLE_START_TIME@@V?$allocator@UILLUSIONTEMPLE_START_TIME@@@std@@@0@@Z ; std::_Destroy<std::_List_nod<ILLUSIONTEMPLE_START_TIME,std::allocator<ILLUSIONTEMPLE_START_TIME> >::_Node>
; Function compile flags: /Ogtp
;	COMDAT ??$_Destroy@U_Node@?$_List_nod@UILLUSIONTEMPLE_START_TIME@@V?$allocator@UILLUSIONTEMPLE_START_TIME@@@std@@@std@@@std@@YAXPAU_Node@?$_List_nod@UILLUSIONTEMPLE_START_TIME@@V?$allocator@UILLUSIONTEMPLE_START_TIME@@@std@@@0@@Z
_TEXT	SEGMENT
__Ptr$ = 8						; size = 4
??$_Destroy@U_Node@?$_List_nod@UILLUSIONTEMPLE_START_TIME@@V?$allocator@UILLUSIONTEMPLE_START_TIME@@@std@@@std@@@std@@YAXPAU_Node@?$_List_nod@UILLUSIONTEMPLE_START_TIME@@V?$allocator@UILLUSIONTEMPLE_START_TIME@@@std@@@0@@Z PROC ; std::_Destroy<std::_List_nod<ILLUSIONTEMPLE_START_TIME,std::allocator<ILLUSIONTEMPLE_START_TIME> >::_Node>, COMDAT

; 63   : 	_Ptr->~_Ty();
; 64   : 	}

  00000	c3		 ret	 0
??$_Destroy@U_Node@?$_List_nod@UILLUSIONTEMPLE_START_TIME@@V?$allocator@UILLUSIONTEMPLE_START_TIME@@@std@@@std@@@std@@YAXPAU_Node@?$_List_nod@UILLUSIONTEMPLE_START_TIME@@V?$allocator@UILLUSIONTEMPLE_START_TIME@@@std@@@0@@Z ENDP ; std::_Destroy<std::_List_nod<ILLUSIONTEMPLE_START_TIME,std::allocator<ILLUSIONTEMPLE_START_TIME> >::_Node>
_TEXT	ENDS
PUBLIC	??_7bad_alloc@std@@6B@				; std::bad_alloc::`vftable'
PUBLIC	??0bad_alloc@std@@QAE@PBD@Z			; std::bad_alloc::bad_alloc
PUBLIC	??_R4bad_alloc@std@@6B@				; std::bad_alloc::`RTTI Complete Object Locator'
PUBLIC	??_R0?AVbad_alloc@std@@@8			; std::bad_alloc `RTTI Type Descriptor'
PUBLIC	??_R3bad_alloc@std@@8				; std::bad_alloc::`RTTI Class Hierarchy Descriptor'
PUBLIC	??_R2bad_alloc@std@@8				; std::bad_alloc::`RTTI Base Class Array'
PUBLIC	??_R1A@?0A@EA@bad_alloc@std@@8			; std::bad_alloc::`RTTI Base Class Descriptor at (0,-1,0,64)'
PUBLIC	??_R1A@?0A@EA@exception@std@@8			; std::exception::`RTTI Base Class Descriptor at (0,-1,0,64)'
PUBLIC	??_R0?AVexception@std@@@8			; std::exception `RTTI Type Descriptor'
PUBLIC	??_R3exception@std@@8				; std::exception::`RTTI Class Hierarchy Descriptor'
PUBLIC	??_R2exception@std@@8				; std::exception::`RTTI Base Class Array'
EXTRN	??0exception@std@@QAE@ABQBD@Z:PROC		; std::exception::exception
EXTRN	??_Ebad_alloc@std@@UAEPAXI@Z:PROC		; std::bad_alloc::`vector deleting destructor'
EXTRN	?what@exception@std@@UBEPBDXZ:PROC		; std::exception::what
;	COMDAT ??_R2exception@std@@8
; File d:\program files (x86)\microsoft visual studio 10.0\vc\include\exception
rdata$r	SEGMENT
??_R2exception@std@@8 DD FLAT:??_R1A@?0A@EA@exception@std@@8 ; std::exception::`RTTI Base Class Array'
rdata$r	ENDS
;	COMDAT ??_R3exception@std@@8
rdata$r	SEGMENT
??_R3exception@std@@8 DD 00H				; std::exception::`RTTI Class Hierarchy Descriptor'
	DD	00H
	DD	01H
	DD	FLAT:??_R2exception@std@@8
rdata$r	ENDS
;	COMDAT ??_R0?AVexception@std@@@8
_DATA	SEGMENT
??_R0?AVexception@std@@@8 DD FLAT:??_7type_info@@6B@	; std::exception `RTTI Type Descriptor'
	DD	00H
	DB	'.?AVexception@std@@', 00H
_DATA	ENDS
;	COMDAT ??_R1A@?0A@EA@exception@std@@8
rdata$r	SEGMENT
??_R1A@?0A@EA@exception@std@@8 DD FLAT:??_R0?AVexception@std@@@8 ; std::exception::`RTTI Base Class Descriptor at (0,-1,0,64)'
	DD	00H
	DD	00H
	DD	0ffffffffH
	DD	00H
	DD	040H
	DD	FLAT:??_R3exception@std@@8
rdata$r	ENDS
;	COMDAT ??_R1A@?0A@EA@bad_alloc@std@@8
rdata$r	SEGMENT
??_R1A@?0A@EA@bad_alloc@std@@8 DD FLAT:??_R0?AVbad_alloc@std@@@8 ; std::bad_alloc::`RTTI Base Class Descriptor at (0,-1,0,64)'
	DD	01H
	DD	00H
	DD	0ffffffffH
	DD	00H
	DD	040H
	DD	FLAT:??_R3bad_alloc@std@@8
rdata$r	ENDS
;	COMDAT ??_R2bad_alloc@std@@8
rdata$r	SEGMENT
??_R2bad_alloc@std@@8 DD FLAT:??_R1A@?0A@EA@bad_alloc@std@@8 ; std::bad_alloc::`RTTI Base Class Array'
	DD	FLAT:??_R1A@?0A@EA@exception@std@@8
rdata$r	ENDS
;	COMDAT ??_R3bad_alloc@std@@8
rdata$r	SEGMENT
??_R3bad_alloc@std@@8 DD 00H				; std::bad_alloc::`RTTI Class Hierarchy Descriptor'
	DD	00H
	DD	02H
	DD	FLAT:??_R2bad_alloc@std@@8
rdata$r	ENDS
;	COMDAT ??_R0?AVbad_alloc@std@@@8
_DATA	SEGMENT
??_R0?AVbad_alloc@std@@@8 DD FLAT:??_7type_info@@6B@	; std::bad_alloc `RTTI Type Descriptor'
	DD	00H
	DB	'.?AVbad_alloc@std@@', 00H
_DATA	ENDS
;	COMDAT ??_R4bad_alloc@std@@6B@
rdata$r	SEGMENT
??_R4bad_alloc@std@@6B@ DD 00H				; std::bad_alloc::`RTTI Complete Object Locator'
	DD	00H
	DD	00H
	DD	FLAT:??_R0?AVbad_alloc@std@@@8
	DD	FLAT:??_R3bad_alloc@std@@8
rdata$r	ENDS
;	COMDAT ??_7bad_alloc@std@@6B@
CONST	SEGMENT
??_7bad_alloc@std@@6B@ DD FLAT:??_R4bad_alloc@std@@6B@	; std::bad_alloc::`vftable'
	DD	FLAT:??_Ebad_alloc@std@@UAEPAXI@Z
	DD	FLAT:?what@exception@std@@UBEPBDXZ
; Function compile flags: /Ogtp
CONST	ENDS
;	COMDAT ??0bad_alloc@std@@QAE@PBD@Z
_TEXT	SEGMENT
__Message$ = 8						; size = 4
??0bad_alloc@std@@QAE@PBD@Z PROC			; std::bad_alloc::bad_alloc, COMDAT
; _this$ = ecx

; 345  : 		{	// construct from message string

  00000	55		 push	 ebp
  00001	8b ec		 mov	 ebp, esp
  00003	56		 push	 esi
  00004	8d 45 08	 lea	 eax, DWORD PTR __Message$[ebp]
  00007	50		 push	 eax
  00008	8b f1		 mov	 esi, ecx
  0000a	e8 00 00 00 00	 call	 ??0exception@std@@QAE@ABQBD@Z ; std::exception::exception
  0000f	c7 06 00 00 00
	00		 mov	 DWORD PTR [esi], OFFSET ??_7bad_alloc@std@@6B@

; 346  : 		}

  00015	8b c6		 mov	 eax, esi
  00017	5e		 pop	 esi
  00018	5d		 pop	 ebp
  00019	c2 04 00	 ret	 4
??0bad_alloc@std@@QAE@PBD@Z ENDP			; std::bad_alloc::bad_alloc
_TEXT	ENDS
PUBLIC	??1bad_alloc@std@@UAE@XZ			; std::bad_alloc::~bad_alloc
EXTRN	??1exception@std@@UAE@XZ:PROC			; std::exception::~exception
; Function compile flags: /Ogtp
;	COMDAT ??1bad_alloc@std@@UAE@XZ
_TEXT	SEGMENT
??1bad_alloc@std@@UAE@XZ PROC				; std::bad_alloc::~bad_alloc, COMDAT
; _this$ = ecx

; 354  : 		{	// destroy the object

  00000	c7 01 00 00 00
	00		 mov	 DWORD PTR [ecx], OFFSET ??_7bad_alloc@std@@6B@

; 355  : 		}

  00006	e9 00 00 00 00	 jmp	 ??1exception@std@@UAE@XZ ; std::exception::~exception
??1bad_alloc@std@@UAE@XZ ENDP				; std::bad_alloc::~bad_alloc
; Function compile flags: /Ogtp
_TEXT	ENDS
;	COMDAT ??_Gbad_alloc@std@@UAEPAXI@Z
_TEXT	SEGMENT
___flags$ = 8						; size = 4
??_Gbad_alloc@std@@UAEPAXI@Z PROC			; std::bad_alloc::`scalar deleting destructor', COMDAT
; _this$ = ecx
  00000	55		 push	 ebp
  00001	8b ec		 mov	 ebp, esp
  00003	56		 push	 esi
  00004	8b f1		 mov	 esi, ecx
  00006	c7 06 00 00 00
	00		 mov	 DWORD PTR [esi], OFFSET ??_7bad_alloc@std@@6B@
  0000c	e8 00 00 00 00	 call	 ??1exception@std@@UAE@XZ ; std::exception::~exception
  00011	f6 45 08 01	 test	 BYTE PTR ___flags$[ebp], 1
  00015	74 09		 je	 SHORT $LN6@scalar
  00017	56		 push	 esi
  00018	e8 00 00 00 00	 call	 ??3@YAXPAX@Z		; operator delete
  0001d	83 c4 04	 add	 esp, 4
$LN6@scalar:
  00020	8b c6		 mov	 eax, esi
  00022	5e		 pop	 esi
  00023	5d		 pop	 ebp
  00024	c2 04 00	 ret	 4
??_Gbad_alloc@std@@UAEPAXI@Z ENDP			; std::bad_alloc::`scalar deleting destructor'
_TEXT	ENDS
PUBLIC	?_Adopt@_Iterator_base0@std@@QAEXPBX@Z		; std::_Iterator_base0::_Adopt
; Function compile flags: /Ogtp
; File d:\program files (x86)\microsoft visual studio 10.0\vc\include\xutility
;	COMDAT ?_Adopt@_Iterator_base0@std@@QAEXPBX@Z
_TEXT	SEGMENT
___formal$ = 8						; size = 4
?_Adopt@_Iterator_base0@std@@QAEXPBX@Z PROC		; std::_Iterator_base0::_Adopt, COMDAT
; _this$ = ecx

; 49   : 		}

  00000	c2 04 00	 ret	 4
?_Adopt@_Iterator_base0@std@@QAEXPBX@Z ENDP		; std::_Iterator_base0::_Adopt
_TEXT	ENDS
PUBLIC	??0CIllusionTempleProcess@@QAE@XZ		; CIllusionTempleProcess::CIllusionTempleProcess
EXTRN	__imp__InitializeCriticalSection@4:PROC
; Function compile flags: /Ogtp
; File e:\work\tranet_version\gs\gameserver\illusiontempleprocess.cpp
;	COMDAT ??0CIllusionTempleProcess@@QAE@XZ
_TEXT	SEGMENT
??0CIllusionTempleProcess@@QAE@XZ PROC			; CIllusionTempleProcess::CIllusionTempleProcess, COMDAT
; _this$ = ecx

; 25   : {

  00000	b0 ff		 mov	 al, 255			; 000000ffH
  00002	56		 push	 esi
  00003	8b f1		 mov	 esi, ecx
  00005	c7 06 00 00 00
	00		 mov	 DWORD PTR [esi], OFFSET ??_7CIllusionTempleProcess@@6B@
  0000b	88 46 48	 mov	 BYTE PTR [esi+72], al
  0000e	88 46 78	 mov	 BYTE PTR [esi+120], al
  00011	88 86 a8 00 00
	00		 mov	 BYTE PTR [esi+168], al
  00017	88 86 d8 00 00
	00		 mov	 BYTE PTR [esi+216], al
  0001d	88 86 08 01 00
	00		 mov	 BYTE PTR [esi+264], al
  00023	88 86 38 01 00
	00		 mov	 BYTE PTR [esi+312], al
  00029	88 86 68 01 00
	00		 mov	 BYTE PTR [esi+360], al
  0002f	88 86 98 01 00
	00		 mov	 BYTE PTR [esi+408], al
  00035	88 86 c8 01 00
	00		 mov	 BYTE PTR [esi+456], al
  0003b	88 86 f8 01 00
	00		 mov	 BYTE PTR [esi+504], al
  00041	57		 push	 edi
  00042	83 cf ff	 or	 edi, -1
  00045	89 7e 20	 mov	 DWORD PTR [esi+32], edi
  00048	89 7e 50	 mov	 DWORD PTR [esi+80], edi
  0004b	89 be 80 00 00
	00		 mov	 DWORD PTR [esi+128], edi
  00051	89 be b0 00 00
	00		 mov	 DWORD PTR [esi+176], edi
  00057	89 be e0 00 00
	00		 mov	 DWORD PTR [esi+224], edi
  0005d	89 be 10 01 00
	00		 mov	 DWORD PTR [esi+272], edi
  00063	89 be 40 01 00
	00		 mov	 DWORD PTR [esi+320], edi
  00069	89 be 70 01 00
	00		 mov	 DWORD PTR [esi+368], edi
  0006f	89 be a0 01 00
	00		 mov	 DWORD PTR [esi+416], edi
  00075	89 be d0 01 00
	00		 mov	 DWORD PTR [esi+464], edi
  0007b	88 86 2c 02 00
	00		 mov	 BYTE PTR [esi+556], al
  00081	33 c0		 xor	 eax, eax
  00083	88 86 2d 02 00
	00		 mov	 BYTE PTR [esi+557], al
  00089	89 86 a4 03 00
	00		 mov	 DWORD PTR [esi+932], eax
  0008f	89 86 c0 03 00
	00		 mov	 DWORD PTR [esi+960], eax
  00095	89 86 c4 03 00
	00		 mov	 DWORD PTR [esi+964], eax

; 26   : 	InitializeCriticalSection(&this->m_cs);

  0009b	8d 46 08	 lea	 eax, DWORD PTR [esi+8]
  0009e	50		 push	 eax
  0009f	ff 15 00 00 00
	00		 call	 DWORD PTR __imp__InitializeCriticalSection@4

; 27   : 
; 28   : 	this->m_iEventBattleTimer = -1;
; 29   : 
; 30   : 	this->ClearMonstersData();

  000a5	8b ce		 mov	 ecx, esi
  000a7	89 be 9c 03 00
	00		 mov	 DWORD PTR [esi+924], edi
  000ad	e8 00 00 00 00	 call	 ?ClearMonstersData@CIllusionTempleProcess@@QAEXXZ ; CIllusionTempleProcess::ClearMonstersData
  000b2	5f		 pop	 edi

; 31   : }

  000b3	8b c6		 mov	 eax, esi
  000b5	5e		 pop	 esi
  000b6	c3		 ret	 0
??0CIllusionTempleProcess@@QAE@XZ ENDP			; CIllusionTempleProcess::CIllusionTempleProcess
; Function compile flags: /Ogtp
_TEXT	ENDS
;	COMDAT ??_GCIllusionTempleProcess@@UAEPAXI@Z
_TEXT	SEGMENT
___flags$ = 8						; size = 4
??_GCIllusionTempleProcess@@UAEPAXI@Z PROC		; CIllusionTempleProcess::`scalar deleting destructor', COMDAT
; _this$ = ecx
  00000	55		 push	 ebp
  00001	8b ec		 mov	 ebp, esp
  00003	56		 push	 esi
  00004	8b f1		 mov	 esi, ecx
  00006	e8 00 00 00 00	 call	 ??1CIllusionTempleProcess@@UAE@XZ ; CIllusionTempleProcess::~CIllusionTempleProcess
  0000b	f6 45 08 01	 test	 BYTE PTR ___flags$[ebp], 1
  0000f	74 09		 je	 SHORT $LN4@scalar@2
  00011	56		 push	 esi
  00012	e8 00 00 00 00	 call	 ??3@YAXPAX@Z		; operator delete
  00017	83 c4 04	 add	 esp, 4
$LN4@scalar@2:
  0001a	8b c6		 mov	 eax, esi
  0001c	5e		 pop	 esi
  0001d	5d		 pop	 ebp
  0001e	c2 04 00	 ret	 4
??_GCIllusionTempleProcess@@UAEPAXI@Z ENDP		; CIllusionTempleProcess::`scalar deleting destructor'
_TEXT	ENDS
PUBLIC	?SetState_READY@CIllusionTempleProcess@@QAEXXZ	; CIllusionTempleProcess::SetState_READY
EXTRN	?m_i_IT_WaitTime@@3HA:DWORD			; m_i_IT_WaitTime
; Function compile flags: /Ogtp
;	COMDAT ?SetState_READY@CIllusionTempleProcess@@QAEXXZ
_TEXT	SEGMENT
?SetState_READY@CIllusionTempleProcess@@QAEXXZ PROC	; CIllusionTempleProcess::SetState_READY, COMDAT
; _this$ = ecx

; 768  : 	this->m_iEventBattleTimer = 1000 * (m_i_IT_WaitTime * 60);

  00000	a1 00 00 00 00	 mov	 eax, DWORD PTR ?m_i_IT_WaitTime@@3HA ; m_i_IT_WaitTime
  00005	53		 push	 ebx
  00006	69 c0 60 ea 00
	00		 imul	 eax, 60000		; 0000ea60H
  0000c	56		 push	 esi
  0000d	57		 push	 edi

; 769  : 
; 770  : 	this->NotifyTempleInfo(1,-1);

  0000e	6a ff		 push	 -1
  00010	8b f1		 mov	 esi, ecx
  00012	6a 01		 push	 1
  00014	89 86 9c 03 00
	00		 mov	 DWORD PTR [esi+924], eax
  0001a	e8 00 00 00 00	 call	 ?NotifyTempleInfo@CIllusionTempleProcess@@QAEXEH@Z ; CIllusionTempleProcess::NotifyTempleInfo
  0001f	8d 7e 20	 lea	 edi, DWORD PTR [esi+32]
  00022	bb 0a 00 00 00	 mov	 ebx, 10			; 0000000aH
$LL5@SetState_R:

; 773  : 	{
; 774  : 		if( this->m_FloorData[i].m_iTeamPlayerIndex != OBJ_EMPTY && gObj[this->m_FloorData[i].m_iTeamPlayerIndex].Connected > PLAYER_LOGGED)

  00027	8b 07		 mov	 eax, DWORD PTR [edi]
  00029	83 f8 ff	 cmp	 eax, -1
  0002c	74 34		 je	 SHORT $LN4@SetState_R
  0002e	8b c8		 mov	 ecx, eax
  00030	69 c9 50 2b 00
	00		 imul	 ecx, 11088		; 00002b50H
  00036	03 0d 00 00 00
	00		 add	 ecx, DWORD PTR ?gObj@@3PAUOBJECTSTRUCT@@A ; gObj
  0003c	83 79 04 02	 cmp	 DWORD PTR [ecx+4], 2
  00040	7e 20		 jle	 SHORT $LN4@SetState_R

; 775  : 		{
; 776  : 			if( gObj[this->m_FloorData[i].m_iTeamPlayerIndex].MapNumber == (this->m_btFloorIndex + MAP_INDEX_ILLUSIONTEMPLE) )

  00042	0f b6 96 2c 02
	00 00		 movzx	 edx, BYTE PTR [esi+556]
  00049	0f b6 89 49 01
	00 00		 movzx	 ecx, BYTE PTR [ecx+329]
  00050	83 c2 2d	 add	 edx, 45			; 0000002dH
  00053	3b ca		 cmp	 ecx, edx
  00055	75 0b		 jne	 SHORT $LN4@SetState_R

; 777  : 			{
; 778  : 				::GCSendIllusionTempleKillCount(this->m_FloorData[i].m_iTeamPlayerIndex, 10); //10 Points

  00057	6a 0a		 push	 10			; 0000000aH
  00059	50		 push	 eax
  0005a	e8 00 00 00 00	 call	 ?GCSendIllusionTempleKillCount@@YAXHE@Z ; GCSendIllusionTempleKillCount
  0005f	83 c4 08	 add	 esp, 8
$LN4@SetState_R:

; 771  : 
; 772  : 	for( int i = 0; i < MAX_FLOOR_USER; i++ )

  00062	83 c7 30	 add	 edi, 48			; 00000030H
  00065	4b		 dec	 ebx
  00066	75 bf		 jne	 SHORT $LL5@SetState_R

; 779  : #if(DEBUG_IT == 1)
; 780  : 				GCServerMsgStringSend("CIllusionTempleProcess::SetState_READY()", this->m_FloorData[i].m_iTeamPlayerIndex, 0);
; 781  : #endif
; 782  : 			}
; 783  : 		}
; 784  : 	}
; 785  : }

  00068	5f		 pop	 edi
  00069	5e		 pop	 esi
  0006a	5b		 pop	 ebx
  0006b	c3		 ret	 0
?SetState_READY@CIllusionTempleProcess@@QAEXXZ ENDP	; CIllusionTempleProcess::SetState_READY
_TEXT	ENDS
PUBLIC	?SetState_PLAYING@CIllusionTempleProcess@@QAEXXZ ; CIllusionTempleProcess::SetState_PLAYING
EXTRN	?m_i_IT_PlayTime@@3HA:DWORD			; m_i_IT_PlayTime
; Function compile flags: /Ogtp
;	COMDAT ?SetState_PLAYING@CIllusionTempleProcess@@QAEXXZ
_TEXT	SEGMENT
?SetState_PLAYING@CIllusionTempleProcess@@QAEXXZ PROC	; CIllusionTempleProcess::SetState_PLAYING, COMDAT
; _this$ = ecx

; 789  : 	this->m_iEventBattleTimer = 1000 * (m_i_IT_PlayTime * 60);

  00000	a1 00 00 00 00	 mov	 eax, DWORD PTR ?m_i_IT_PlayTime@@3HA ; m_i_IT_PlayTime
  00005	69 c0 60 ea 00
	00		 imul	 eax, 60000		; 0000ea60H
  0000b	56		 push	 esi
  0000c	8b f1		 mov	 esi, ecx
  0000e	89 86 9c 03 00
	00		 mov	 DWORD PTR [esi+924], eax

; 790  : 
; 791  : 	this->CreateNPCStatus();

  00014	e8 00 00 00 00	 call	 ?CreateNPCStatus@CIllusionTempleProcess@@QAEXXZ ; CIllusionTempleProcess::CreateNPCStatus

; 792  : 	this->CreateNPC();

  00019	8b ce		 mov	 ecx, esi
  0001b	e8 00 00 00 00	 call	 ?CreateNPC@CIllusionTempleProcess@@QAEXXZ ; CIllusionTempleProcess::CreateNPC

; 793  : 	this->CreateMonsterToBattle();

  00020	8b ce		 mov	 ecx, esi
  00022	e8 00 00 00 00	 call	 ?CreateMonsterToBattle@CIllusionTempleProcess@@QAEXXZ ; CIllusionTempleProcess::CreateMonsterToBattle

; 794  : 	this->SetNpcStatueRegen();

  00027	8b ce		 mov	 ecx, esi
  00029	e8 00 00 00 00	 call	 ?SetNpcStatueRegen@CIllusionTempleProcess@@QAEXXZ ; CIllusionTempleProcess::SetNpcStatueRegen

; 795  : 	this->NotifyTempleInfo(2,-1);

  0002e	6a ff		 push	 -1
  00030	6a 02		 push	 2
  00032	8b ce		 mov	 ecx, esi
  00034	e8 00 00 00 00	 call	 ?NotifyTempleInfo@CIllusionTempleProcess@@QAEXEH@Z ; CIllusionTempleProcess::NotifyTempleInfo
  00039	5e		 pop	 esi

; 796  : 
; 797  : #if(DEBUG_IT == 1)
; 798  : 	for( int i = 0; i < MAX_FLOOR_USER; i++ )
; 799  : 	{
; 800  : 		if( this->m_FloorData[i].m_iTeamPlayerIndex != OBJ_EMPTY && gObj[this->m_FloorData[i].m_iTeamPlayerIndex].Connected > PLAYER_LOGGED)
; 801  : 		{
; 802  : 			if( gObj[this->m_FloorData[i].m_iTeamPlayerIndex].MapNumber == (this->m_btFloorIndex + MAP_INDEX_ILLUSIONTEMPLE) )
; 803  : 			{
; 804  : 				GCServerMsgStringSend("CIllusionTempleProcess::SetState_PLAYING()", this->m_FloorData[i].m_iTeamPlayerIndex, 0);
; 805  : 			}
; 806  : 		}
; 807  : 	}
; 808  : #endif
; 809  : }

  0003a	c3		 ret	 0
?SetState_PLAYING@CIllusionTempleProcess@@QAEXXZ ENDP	; CIllusionTempleProcess::SetState_PLAYING
_TEXT	ENDS
PUBLIC	?SetState_END@CIllusionTempleProcess@@QAEXXZ	; CIllusionTempleProcess::SetState_END
EXTRN	?m_i_IT_RestTime@@3HA:DWORD			; m_i_IT_RestTime
; Function compile flags: /Ogtp
;	COMDAT ?SetState_END@CIllusionTempleProcess@@QAEXXZ
_TEXT	SEGMENT
tv180 = -4						; size = 4
?SetState_END@CIllusionTempleProcess@@QAEXXZ PROC	; CIllusionTempleProcess::SetState_END, COMDAT
; _this$ = ecx

; 812  : {

  00000	55		 push	 ebp
  00001	8b ec		 mov	 ebp, esp
  00003	51		 push	 ecx

; 813  : 	this->m_iEventBattleTimer = 1000 * (m_i_IT_RestTime * 60);

  00004	a1 00 00 00 00	 mov	 eax, DWORD PTR ?m_i_IT_RestTime@@3HA ; m_i_IT_RestTime
  00009	53		 push	 ebx
  0000a	69 c0 60 ea 00
	00		 imul	 eax, 60000		; 0000ea60H
  00010	56		 push	 esi
  00011	57		 push	 edi

; 814  : 
; 815  : 	this->NotifyTempleInfo(3,-1);

  00012	6a ff		 push	 -1
  00014	8b f9		 mov	 edi, ecx
  00016	6a 03		 push	 3
  00018	89 87 9c 03 00
	00		 mov	 DWORD PTR [edi+924], eax
  0001e	e8 00 00 00 00	 call	 ?NotifyTempleInfo@CIllusionTempleProcess@@QAEXEH@Z ; CIllusionTempleProcess::NotifyTempleInfo
  00023	8d 77 20	 lea	 esi, DWORD PTR [edi+32]
  00026	c7 45 fc 0a 00
	00 00		 mov	 DWORD PTR tv180[ebp], 10 ; 0000000aH
  0002d	33 db		 xor	 ebx, ebx
  0002f	90		 npad	 1
$LL7@SetState_E:

; 818  : 	{
; 819  : 		if( this->m_FloorData[i].m_iTeamPlayerIndex != OBJ_EMPTY && gObj[this->m_FloorData[i].m_iTeamPlayerIndex].Connected > PLAYER_LOGGED)

  00030	8b 06		 mov	 eax, DWORD PTR [esi]
  00032	83 f8 ff	 cmp	 eax, -1
  00035	0f 84 9d 00 00
	00		 je	 $LN6@SetState_E
  0003b	8b 0d 00 00 00
	00		 mov	 ecx, DWORD PTR ?gObj@@3PAUOBJECTSTRUCT@@A ; gObj
  00041	69 c0 50 2b 00
	00		 imul	 eax, 11088		; 00002b50H
  00047	83 7c 08 04 02	 cmp	 DWORD PTR [eax+ecx+4], 2
  0004c	0f 8e 86 00 00
	00		 jle	 $LN6@SetState_E

; 820  : 		{
; 821  : 			if( gObj[this->m_FloorData[i].m_iTeamPlayerIndex].MapNumber == (this->m_btFloorIndex + MAP_INDEX_ILLUSIONTEMPLE) )

  00052	0f b6 97 2c 02
	00 00		 movzx	 edx, BYTE PTR [edi+556]
  00059	0f b6 8c 08 49
	01 00 00	 movzx	 ecx, BYTE PTR [eax+ecx+329]
  00061	83 c2 2d	 add	 edx, 45			; 0000002dH
  00064	3b ca		 cmp	 ecx, edx
  00066	75 70		 jne	 SHORT $LN6@SetState_E

; 822  : 			{
; 823  : 				if(this->m_FloorData[i].m_dwShieldSpellTime > 0)

  00068	39 5e 08	 cmp	 DWORD PTR [esi+8], ebx
  0006b	76 2f		 jbe	 SHORT $LN12@SetState_E

; 824  : 				{
; 825  : 					this->m_FloorData[i].m_dwShieldSpellTime = 0;

  0006d	89 5e 08	 mov	 DWORD PTR [esi+8], ebx

; 826  : 					gObjRemoveBuffEffect(&gObj[this->m_FloorData[i].m_iTeamPlayerIndex], AT_ILLUSION_SHIELD_SPELL); //season 3.0 add-on

  00070	03 05 00 00 00
	00		 add	 eax, DWORD PTR ?gObj@@3PAUOBJECTSTRUCT@@A ; gObj
  00076	6a 22		 push	 34			; 00000022H
  00078	50		 push	 eax
  00079	e8 00 00 00 00	 call	 ?gObjRemoveBuffEffect@@YAEPAUOBJECTSTRUCT@@H@Z ; gObjRemoveBuffEffect

; 827  : 					this->GCIllusionTempleSkillCancel(&gObj[this->m_FloorData[i].m_iTeamPlayerIndex], 210);

  0007e	8b 06		 mov	 eax, DWORD PTR [esi]
  00080	69 c0 50 2b 00
	00		 imul	 eax, 11088		; 00002b50H
  00086	03 05 00 00 00
	00		 add	 eax, DWORD PTR ?gObj@@3PAUOBJECTSTRUCT@@A ; gObj
  0008c	83 c4 08	 add	 esp, 8
  0008f	68 d2 00 00 00	 push	 210			; 000000d2H
  00094	50		 push	 eax
  00095	8b cf		 mov	 ecx, edi
  00097	e8 00 00 00 00	 call	 ?GCIllusionTempleSkillCancel@CIllusionTempleProcess@@QAEXPAUOBJECTSTRUCT@@G@Z ; CIllusionTempleProcess::GCIllusionTempleSkillCancel
$LN12@SetState_E:

; 828  : 				}
; 829  : 
; 830  : 				if(this->m_FloorData[i].m_dwRestrictionSpellTime > 0)

  0009c	39 5e 0c	 cmp	 DWORD PTR [esi+12], ebx
  0009f	76 37		 jbe	 SHORT $LN6@SetState_E

; 831  : 				{
; 832  : 					this->m_FloorData[i].m_dwRestrictionSpellTime = 0;
; 833  : 					gObjRemoveBuffEffect(&gObj[this->m_FloorData[i].m_iTeamPlayerIndex], AT_ILLUSION_RESTRICTION_SPELL); //season 3.0 add-on

  000a1	8b 0e		 mov	 ecx, DWORD PTR [esi]
  000a3	69 c9 50 2b 00
	00		 imul	 ecx, 11088		; 00002b50H
  000a9	89 5e 0c	 mov	 DWORD PTR [esi+12], ebx
  000ac	03 0d 00 00 00
	00		 add	 ecx, DWORD PTR ?gObj@@3PAUOBJECTSTRUCT@@A ; gObj
  000b2	6a 41		 push	 65			; 00000041H
  000b4	51		 push	 ecx
  000b5	e8 00 00 00 00	 call	 ?gObjRemoveBuffEffect@@YAEPAUOBJECTSTRUCT@@H@Z ; gObjRemoveBuffEffect

; 834  : 					this->GCIllusionTempleSkillCancel(&gObj[this->m_FloorData[i].m_iTeamPlayerIndex], 211);

  000ba	8b 16		 mov	 edx, DWORD PTR [esi]
  000bc	69 d2 50 2b 00
	00		 imul	 edx, 11088		; 00002b50H
  000c2	03 15 00 00 00
	00		 add	 edx, DWORD PTR ?gObj@@3PAUOBJECTSTRUCT@@A ; gObj
  000c8	83 c4 08	 add	 esp, 8
  000cb	68 d3 00 00 00	 push	 211			; 000000d3H
  000d0	52		 push	 edx
  000d1	8b cf		 mov	 ecx, edi
  000d3	e8 00 00 00 00	 call	 ?GCIllusionTempleSkillCancel@CIllusionTempleProcess@@QAEXPAUOBJECTSTRUCT@@G@Z ; CIllusionTempleProcess::GCIllusionTempleSkillCancel
$LN6@SetState_E:

; 816  : 
; 817  : 	for( int i = 0; i < MAX_FLOOR_USER; i++ )

  000d8	83 c6 30	 add	 esi, 48			; 00000030H
  000db	ff 4d fc	 dec	 DWORD PTR tv180[ebp]
  000de	0f 85 4c ff ff
	ff		 jne	 $LL7@SetState_E

; 835  : 				}
; 836  : #if(DEBUG_IT == 1)
; 837  : 				GCServerMsgStringSend("CIllusionTempleProcess::SetState_END()", this->m_FloorData[i].m_iTeamPlayerIndex, 0);
; 838  : #endif
; 839  : 			}
; 840  : 		}
; 841  : 	}
; 842  : 
; 843  : 	this->ClearAllBattleObjects();

  000e4	8b cf		 mov	 ecx, edi
  000e6	e8 00 00 00 00	 call	 ?ClearAllBattleObjects@CIllusionTempleProcess@@QAEXXZ ; CIllusionTempleProcess::ClearAllBattleObjects
  000eb	5f		 pop	 edi
  000ec	5e		 pop	 esi
  000ed	5b		 pop	 ebx

; 844  : }

  000ee	8b e5		 mov	 esp, ebp
  000f0	5d		 pop	 ebp
  000f1	c3		 ret	 0
?SetState_END@CIllusionTempleProcess@@QAEXXZ ENDP	; CIllusionTempleProcess::SetState_END
_TEXT	ENDS
PUBLIC	??_C@_0CG@IGMLEOMK@Enter?5Error?3?5IllusionTempleIndex@ ; `string'
PUBLIC	?AddBattleUser@CIllusionTempleProcess@@QAEHHEE@Z ; CIllusionTempleProcess::AddBattleUser
;	COMDAT ??_C@_0CG@IGMLEOMK@Enter?5Error?3?5IllusionTempleIndex@
CONST	SEGMENT
??_C@_0CG@IGMLEOMK@Enter?5Error?3?5IllusionTempleIndex@ DB 'Enter Error: '
	DB	'IllusionTempleIndex Fail', 00H		; `string'
; Function compile flags: /Ogtp
CONST	ENDS
;	COMDAT ?AddBattleUser@CIllusionTempleProcess@@QAEHHEE@Z
_TEXT	SEGMENT
tv212 = -4						; size = 4
tv196 = 8						; size = 4
_aIndex$ = 8						; size = 4
_pos$ = 12						; size = 1
_pos_dur$ = 16						; size = 1
?AddBattleUser@CIllusionTempleProcess@@QAEHHEE@Z PROC	; CIllusionTempleProcess::AddBattleUser, COMDAT
; _this$ = ecx

; 847  : {

  00000	55		 push	 ebp
  00001	8b ec		 mov	 ebp, esp
  00003	51		 push	 ecx
  00004	53		 push	 ebx

; 848  : 	int loc2;
; 849  : 	int loc3;
; 850  : 
; 851  : 	if( OBJMAX_RANGE(aIndex) == FALSE )

  00005	8b 5d 08	 mov	 ebx, DWORD PTR _aIndex$[ebp]
  00008	56		 push	 esi
  00009	8b f1		 mov	 esi, ecx
  0000b	85 db		 test	 ebx, ebx
  0000d	78 0f		 js	 SHORT $LN17@AddBattleU
  0000f	33 c0		 xor	 eax, eax
  00011	81 fb 97 3a 00
	00		 cmp	 ebx, 14999		; 00003a97H
  00017	0f 9e c0	 setle	 al
  0001a	85 c0		 test	 eax, eax
  0001c	75 22		 jne	 SHORT $LN9@AddBattleU
$LN17@AddBattleU:

; 852  : 	{
; 853  : 		LogAdd("return %s %d", __FILE__, __LINE__);

  0001e	68 55 03 00 00	 push	 853			; 00000355H
  00023	68 00 00 00 00	 push	 OFFSET ??_C@_0BK@DMGNFDO@IllusionTempleProcess?4cpp?$AA@
  00028	68 00 00 00 00	 push	 OFFSET ??_C@_0N@GGPGOPEN@return?5?$CFs?5?$CFd?$AA@
  0002d	ff 15 00 00 00
	00		 call	 DWORD PTR ?LogAdd@@3P6AXPADZZA ; LogAdd
  00033	83 c4 0c	 add	 esp, 12			; 0000000cH
$LN19@AddBattleU:

; 854  : 		return FALSE;

  00036	5e		 pop	 esi
  00037	33 c0		 xor	 eax, eax
  00039	5b		 pop	 ebx

; 899  : }

  0003a	8b e5		 mov	 esp, ebp
  0003c	5d		 pop	 ebp
  0003d	c2 0c 00	 ret	 12			; 0000000cH
$LN9@AddBattleU:

; 855  : 	}
; 856  : 
; 857  : 	if(this->GetState() >= 1)

  00040	e8 00 00 00 00	 call	 ?GetState@CIllusionTempleProcess@@QAEEXZ ; CIllusionTempleProcess::GetState
  00045	3c 01		 cmp	 al, 1

; 858  : 	{
; 859  : 		return FALSE;

  00047	73 ed		 jae	 SHORT $LN19@AddBattleU

; 860  : 	}
; 861  : 
; 862  : 	if(gObj[aIndex].m_iIllusionTempleIndex != -1)

  00049	8b 0d 00 00 00
	00		 mov	 ecx, DWORD PTR ?gObj@@3PAUOBJECTSTRUCT@@A ; gObj
  0004f	8b c3		 mov	 eax, ebx
  00051	69 c0 50 2b 00
	00		 imul	 eax, 11088		; 00002b50H
  00057	83 bc 08 78 20
	00 00 ff	 cmp	 DWORD PTR [eax+ecx+8312], -1
  0005f	89 45 08	 mov	 DWORD PTR tv196[ebp], eax
  00062	74 18		 je	 SHORT $LN7@AddBattleU

; 863  : 	{
; 864  : 		LogAddTD("Enter Error: IllusionTempleIndex Fail");

  00064	68 00 00 00 00	 push	 OFFSET ??_C@_0CG@IGMLEOMK@Enter?5Error?3?5IllusionTempleIndex@
  00069	ff 15 00 00 00
	00		 call	 DWORD PTR ?LogAddTD@@3P6AXPADZZA ; LogAddTD
  0006f	83 c4 04	 add	 esp, 4
  00072	5e		 pop	 esi

; 865  : 		return FALSE;

  00073	33 c0		 xor	 eax, eax
  00075	5b		 pop	 ebx

; 899  : }

  00076	8b e5		 mov	 esp, ebp
  00078	5d		 pop	 ebp
  00079	c2 0c 00	 ret	 12			; 0000000cH
$LN7@AddBattleU:
  0007c	57		 push	 edi

; 866  : 	}
; 867  : 
; 868  : 	loc2 = this->FindItemBallPosition(aIndex);

  0007d	53		 push	 ebx
  0007e	8b ce		 mov	 ecx, esi
  00080	e8 00 00 00 00	 call	 ?FindItemBallPosition@CIllusionTempleProcess@@QAEHH@Z ; CIllusionTempleProcess::FindItemBallPosition
  00085	8b f8		 mov	 edi, eax

; 869  : 
; 870  : 	if(loc2 >= 0)

  00087	85 ff		 test	 edi, edi
  00089	78 36		 js	 SHORT $LN18@AddBattleU

; 871  : 	{
; 872  : 		if( gObj[aIndex].pInventory[loc2].m_Type == ITEMGET(14,64) ) //Ball

  0008b	8b 4d 08	 mov	 ecx, DWORD PTR tv196[ebp]
  0008e	a1 00 00 00 00	 mov	 eax, DWORD PTR ?gObj@@3PAUOBJECTSTRUCT@@A ; gObj
  00093	8b 84 01 24 0e
	00 00		 mov	 eax, DWORD PTR [ecx+eax+3620]
  0009a	8b d7		 mov	 edx, edi
  0009c	69 d2 d4 00 00
	00		 imul	 edx, 212		; 000000d4H
  000a2	b9 40 1c 00 00	 mov	 ecx, 7232		; 00001c40H
  000a7	66 39 4c 10 06	 cmp	 WORD PTR [eax+edx+6], cx
  000ac	75 13		 jne	 SHORT $LN18@AddBattleU

; 873  : 		{
; 874  : 			::gObjInventoryDeleteItem(aIndex, loc2);

  000ae	57		 push	 edi
  000af	53		 push	 ebx
  000b0	e8 00 00 00 00	 call	 ?gObjInventoryDeleteItem@@YAEHH@Z ; gObjInventoryDeleteItem

; 875  : 			::GCInventoryItemDeleteSend(aIndex, loc2, 0);

  000b5	6a 00		 push	 0
  000b7	57		 push	 edi
  000b8	53		 push	 ebx
  000b9	e8 00 00 00 00	 call	 ?GCInventoryItemDeleteSend@@YAXHEE@Z ; GCInventoryItemDeleteSend
  000be	83 c4 14	 add	 esp, 20			; 00000014H
$LN18@AddBattleU:

; 876  : 		}
; 877  : 	}
; 878  : 
; 879  : 	loc3 = 0;
; 880  : 
; 881  : 	EnterCriticalSection(&this->m_cs);

  000c1	8d 46 08	 lea	 eax, DWORD PTR [esi+8]
  000c4	50		 push	 eax
  000c5	33 ff		 xor	 edi, edi
  000c7	89 45 fc	 mov	 DWORD PTR tv212[ebp], eax
  000ca	ff 15 00 00 00
	00		 call	 DWORD PTR __imp__EnterCriticalSection@4

; 882  : 
; 883  : 	for( int i = 0; i < MAX_FLOOR_USER; i++ )

  000d0	33 c0		 xor	 eax, eax
  000d2	8d 4e 20	 lea	 ecx, DWORD PTR [esi+32]
$LL4@AddBattleU:

; 884  : 	{
; 885  : 		if( this->m_FloorData[i].m_iTeamPlayerIndex == OBJ_EMPTY )

  000d5	83 39 ff	 cmp	 DWORD PTR [ecx], -1
  000d8	74 0b		 je	 SHORT $LN15@AddBattleU

; 882  : 
; 883  : 	for( int i = 0; i < MAX_FLOOR_USER; i++ )

  000da	40		 inc	 eax
  000db	83 c1 30	 add	 ecx, 48			; 00000030H
  000de	83 f8 0a	 cmp	 eax, 10			; 0000000aH
  000e1	7c f2		 jl	 SHORT $LL4@AddBattleU

; 884  : 	{
; 885  : 		if( this->m_FloorData[i].m_iTeamPlayerIndex == OBJ_EMPTY )

  000e3	eb 2c		 jmp	 SHORT $LN2@AddBattleU
$LN15@AddBattleU:

; 886  : 		{
; 887  : 			this->m_FloorData[i].m_iTeamPlayerIndex = aIndex;

  000e5	8d 0c 40	 lea	 ecx, DWORD PTR [eax+eax*2]
  000e8	c1 e1 04	 shl	 ecx, 4
  000eb	03 ce		 add	 ecx, esi
  000ed	89 59 20	 mov	 DWORD PTR [ecx+32], ebx

; 888  : 			this->m_iEnteredUserCount++;

  000f0	bf 01 00 00 00	 mov	 edi, 1
  000f5	01 be 28 02 00
	00		 add	 DWORD PTR [esi+552], edi

; 889  : 			gObj[aIndex].m_iIllusionTempleIndex = i;

  000fb	8b 15 00 00 00
	00		 mov	 edx, DWORD PTR ?gObj@@3PAUOBJECTSTRUCT@@A ; gObj
  00101	8b 75 08	 mov	 esi, DWORD PTR tv196[ebp]
  00104	89 84 16 78 20
	00 00		 mov	 DWORD PTR [esi+edx+8312], eax

; 890  : 			loc3 = 1;
; 891  : 			this->m_FloorData[i].m_btPosNDur = pos_dur; //webzen fix for ticket durability

  0010b	8a 45 10	 mov	 al, BYTE PTR _pos_dur$[ebp]
  0010e	88 41 48	 mov	 BYTE PTR [ecx+72], al
$LN2@AddBattleU:

; 892  : 			break;
; 893  : 		}
; 894  : 	}
; 895  : 
; 896  : 	LeaveCriticalSection(&this->m_cs);

  00111	8b 4d fc	 mov	 ecx, DWORD PTR tv212[ebp]
  00114	51		 push	 ecx
  00115	ff 15 00 00 00
	00		 call	 DWORD PTR __imp__LeaveCriticalSection@4

; 897  : 
; 898  : 	return loc3;

  0011b	8b c7		 mov	 eax, edi
  0011d	5f		 pop	 edi
  0011e	5e		 pop	 esi
  0011f	5b		 pop	 ebx

; 899  : }

  00120	8b e5		 mov	 esp, ebp
  00122	5d		 pop	 ebp
  00123	c2 0c 00	 ret	 12			; 0000000cH
?AddBattleUser@CIllusionTempleProcess@@QAEHHEE@Z ENDP	; CIllusionTempleProcess::AddBattleUser
_TEXT	ENDS
PUBLIC	??_C@_0CL@PJKIAECJ@?$FLIllusion?5Temple?$FN?5?$CI?$CFd?$CJ?5LeaveUser@ ; `string'
PUBLIC	__real@3f800000
PUBLIC	?LeaveBattleUser@CIllusionTempleProcess@@QAEHH@Z ; CIllusionTempleProcess::LeaveBattleUser
EXTRN	?gObjViewportListProtocolCreate@@YAXPAUOBJECTSTRUCT@@@Z:PROC ; gObjViewportListProtocolCreate
EXTRN	?CGPartyDelUser@@YAXPAUPMSG_PARTYDELUSER@@H@Z:PROC ; CGPartyDelUser
EXTRN	?GetIndex@PartyClass@@QAEHHHH@Z:PROC		; PartyClass::GetIndex
;	COMDAT ??_C@_0CL@PJKIAECJ@?$FLIllusion?5Temple?$FN?5?$CI?$CFd?$CJ?5LeaveUser@
CONST	SEGMENT
??_C@_0CL@PJKIAECJ@?$FLIllusion?5Temple?$FN?5?$CI?$CFd?$CJ?5LeaveUser@ DB '['
	DB	'Illusion Temple] (%d) LeaveUser: (%s)(%s)', 00H ; `string'
CONST	ENDS
;	COMDAT __real@3f800000
CONST	SEGMENT
__real@3f800000 DD 03f800000r			; 1
; Function compile flags: /Ogtp
CONST	ENDS
;	COMDAT ?LeaveBattleUser@CIllusionTempleProcess@@QAEHH@Z
_TEXT	SEGMENT
tv323 = -8						; size = 4
_lpItem$216148 = -4					; size = 4
tv332 = 8						; size = 4
_pMsg$216159 = 8					; size = 4
_aIndex$ = 8						; size = 4
?LeaveBattleUser@CIllusionTempleProcess@@QAEHH@Z PROC	; CIllusionTempleProcess::LeaveBattleUser, COMDAT
; _this$ = ecx

; 902  : {

  00000	55		 push	 ebp
  00001	8b ec		 mov	 ebp, esp
  00003	83 ec 08	 sub	 esp, 8
  00006	53		 push	 ebx

; 903  : 	if( OBJMAX_RANGE(aIndex) == FALSE )

  00007	8b 5d 08	 mov	 ebx, DWORD PTR _aIndex$[ebp]
  0000a	57		 push	 edi
  0000b	8b f9		 mov	 edi, ecx
  0000d	85 db		 test	 ebx, ebx
  0000f	78 0f		 js	 SHORT $LN19@LeaveBattl
  00011	33 c0		 xor	 eax, eax
  00013	81 fb 97 3a 00
	00		 cmp	 ebx, 14999		; 00003a97H
  00019	0f 9e c0	 setle	 al
  0001c	85 c0		 test	 eax, eax
  0001e	75 22		 jne	 SHORT $LN14@LeaveBattl
$LN19@LeaveBattl:

; 904  : 	{
; 905  : 		LogAdd("return %s %d", __FILE__, __LINE__);

  00020	68 89 03 00 00	 push	 905			; 00000389H
  00025	68 00 00 00 00	 push	 OFFSET ??_C@_0BK@DMGNFDO@IllusionTempleProcess?4cpp?$AA@
  0002a	68 00 00 00 00	 push	 OFFSET ??_C@_0N@GGPGOPEN@return?5?$CFs?5?$CFd?$AA@
  0002f	ff 15 00 00 00
	00		 call	 DWORD PTR ?LogAdd@@3P6AXPADZZA ; LogAdd
  00035	83 c4 0c	 add	 esp, 12			; 0000000cH
  00038	5f		 pop	 edi

; 906  : 		return FALSE;

  00039	33 c0		 xor	 eax, eax
  0003b	5b		 pop	 ebx

; 984  : }

  0003c	8b e5		 mov	 esp, ebp
  0003e	5d		 pop	 ebp
  0003f	c2 04 00	 ret	 4
$LN14@LeaveBattl:

; 907  : 	}
; 908  : 
; 909  : 	EnterCriticalSection(&this->m_cs);

  00042	8d 47 08	 lea	 eax, DWORD PTR [edi+8]
  00045	56		 push	 esi
  00046	50		 push	 eax
  00047	89 45 f8	 mov	 DWORD PTR tv323[ebp], eax
  0004a	ff 15 00 00 00
	00		 call	 DWORD PTR __imp__EnterCriticalSection@4

; 910  : 
; 911  : 	if(gObj[aIndex].m_iIllusionTempleIndex != -1)

  00050	8b 0d 00 00 00
	00		 mov	 ecx, DWORD PTR ?gObj@@3PAUOBJECTSTRUCT@@A ; gObj
  00056	8b f3		 mov	 esi, ebx
  00058	69 f6 50 2b 00
	00		 imul	 esi, 11088		; 00002b50H
  0005e	8b 84 0e 78 20
	00 00		 mov	 eax, DWORD PTR [esi+ecx+8312]
  00065	83 f8 ff	 cmp	 eax, -1
  00068	0f 84 5e 01 00
	00		 je	 $LN22@LeaveBattl

; 912  : 	{
; 913  : 		if(aIndex == this->m_FloorData[gObj[aIndex].m_iIllusionTempleIndex].m_iTeamPlayerIndex)

  0006e	8d 04 40	 lea	 eax, DWORD PTR [eax+eax*2]
  00071	03 c0		 add	 eax, eax
  00073	8d 44 c7 20	 lea	 eax, DWORD PTR [edi+eax*8+32]
  00077	89 45 08	 mov	 DWORD PTR tv332[ebp], eax
  0007a	3b 18		 cmp	 ebx, DWORD PTR [eax]
  0007c	0f 85 4a 01 00
	00		 jne	 $LN22@LeaveBattl

; 914  : 		{
; 915  : 			_ILLUSIONTEMPLE_FLOOR_DATA * FloorData = &this->m_FloorData[gObj[aIndex].m_iIllusionTempleIndex];
; 916  : 
; 917  : 			if(FloorData->m_btPosNDur > -1)

  00082	0f b6 40 28	 movzx	 eax, BYTE PTR [eax+40]
  00086	83 f8 ff	 cmp	 eax, -1
  00089	7e 4e		 jle	 SHORT $LN20@LeaveBattl

; 918  : 			{
; 919  : 				CItem * lpItem = &gObj[aIndex].pInventory[FloorData->m_btPosNDur];

  0008b	69 c0 d4 00 00
	00		 imul	 eax, 212		; 000000d4H
  00091	03 84 0e 24 0e
	00 00		 add	 eax, DWORD PTR [esi+ecx+3620]
  00098	89 45 fc	 mov	 DWORD PTR _lpItem$216148[ebp], eax

; 920  : 
; 921  : 				if(lpItem != NULL)

  0009b	74 3c		 je	 SHORT $LN20@LeaveBattl

; 922  : 				{
; 923  : 					if(lpItem->IsItem() == TRUE)

  0009d	8b c8		 mov	 ecx, eax
  0009f	e8 00 00 00 00	 call	 ?IsItem@CItem@@QAEHXZ	; CItem::IsItem
  000a4	83 f8 01	 cmp	 eax, 1
  000a7	75 30		 jne	 SHORT $LN20@LeaveBattl

; 924  : 					{
; 925  : 						if(lpItem->m_Durability < 1.0f)

  000a9	d9 e8		 fld1
  000ab	8b 4d fc	 mov	 ecx, DWORD PTR _lpItem$216148[ebp]
  000ae	d8 59 24	 fcomp	 DWORD PTR [ecx+36]
  000b1	df e0		 fnstsw	 ax
  000b3	f6 c4 41	 test	 ah, 65			; 00000041H
  000b6	75 21		 jne	 SHORT $LN20@LeaveBattl

; 926  : 						{
; 927  : 							gObjInventoryDeleteItem(aIndex, FloorData->m_btPosNDur);

  000b8	8b 55 08	 mov	 edx, DWORD PTR tv332[ebp]
  000bb	0f b6 42 28	 movzx	 eax, BYTE PTR [edx+40]
  000bf	50		 push	 eax
  000c0	53		 push	 ebx
  000c1	e8 00 00 00 00	 call	 ?gObjInventoryDeleteItem@@YAEHH@Z ; gObjInventoryDeleteItem

; 928  : 							GCInventoryItemDeleteSend(aIndex, FloorData->m_btPosNDur, 0);

  000c6	8b 4d 08	 mov	 ecx, DWORD PTR tv332[ebp]
  000c9	0f b6 51 28	 movzx	 edx, BYTE PTR [ecx+40]
  000cd	6a 00		 push	 0
  000cf	52		 push	 edx
  000d0	53		 push	 ebx
  000d1	e8 00 00 00 00	 call	 ?GCInventoryItemDeleteSend@@YAXHEE@Z ; GCInventoryItemDeleteSend
  000d6	83 c4 14	 add	 esp, 20			; 00000014H
$LN20@LeaveBattl:

; 929  : 						}
; 930  : 					}
; 931  : 				}
; 932  : 			}
; 933  : 
; 934  : 			if(this->m_FloorData[gObj[aIndex].m_iIllusionTempleIndex].m_dwShieldSpellTime > 0)

  000d9	a1 00 00 00 00	 mov	 eax, DWORD PTR ?gObj@@3PAUOBJECTSTRUCT@@A ; gObj
  000de	8d 0c 06	 lea	 ecx, DWORD PTR [esi+eax]
  000e1	8b 81 78 20 00
	00		 mov	 eax, DWORD PTR [ecx+8312]
  000e7	8d 14 40	 lea	 edx, DWORD PTR [eax+eax*2]
  000ea	03 d2		 add	 edx, edx
  000ec	83 7c d7 28 00	 cmp	 DWORD PTR [edi+edx*8+40], 0
  000f1	76 20		 jbe	 SHORT $LN7@LeaveBattl

; 935  : 			{
; 936  : 				gObjRemoveBuffEffect(&gObj[aIndex], AT_ILLUSION_SHIELD_SPELL); //season 3.0 add-on

  000f3	6a 22		 push	 34			; 00000022H
  000f5	51		 push	 ecx
  000f6	e8 00 00 00 00	 call	 ?gObjRemoveBuffEffect@@YAEPAUOBJECTSTRUCT@@H@Z ; gObjRemoveBuffEffect

; 937  : 				this->GCIllusionTempleSkillCancel(&gObj[aIndex], 210);

  000fb	a1 00 00 00 00	 mov	 eax, DWORD PTR ?gObj@@3PAUOBJECTSTRUCT@@A ; gObj
  00100	83 c4 08	 add	 esp, 8
  00103	8d 0c 06	 lea	 ecx, DWORD PTR [esi+eax]
  00106	68 d2 00 00 00	 push	 210			; 000000d2H
  0010b	51		 push	 ecx
  0010c	8b cf		 mov	 ecx, edi
  0010e	e8 00 00 00 00	 call	 ?GCIllusionTempleSkillCancel@CIllusionTempleProcess@@QAEXPAUOBJECTSTRUCT@@G@Z ; CIllusionTempleProcess::GCIllusionTempleSkillCancel
$LN7@LeaveBattl:

; 938  : 			}
; 939  : 
; 940  : 			if(this->m_FloorData[gObj[aIndex].m_iIllusionTempleIndex].m_dwRestrictionSpellTime > 0)

  00113	8b 15 00 00 00
	00		 mov	 edx, DWORD PTR ?gObj@@3PAUOBJECTSTRUCT@@A ; gObj
  00119	8b 84 16 78 20
	00 00		 mov	 eax, DWORD PTR [esi+edx+8312]
  00120	8d 0c 16	 lea	 ecx, DWORD PTR [esi+edx]
  00123	8d 04 40	 lea	 eax, DWORD PTR [eax+eax*2]
  00126	03 c0		 add	 eax, eax
  00128	83 7c c7 2c 00	 cmp	 DWORD PTR [edi+eax*8+44], 0
  0012d	76 21		 jbe	 SHORT $LN6@LeaveBattl

; 941  : 			{
; 942  : 				gObjRemoveBuffEffect(&gObj[aIndex], AT_ILLUSION_RESTRICTION_SPELL); //season 3.0 add-on

  0012f	6a 41		 push	 65			; 00000041H
  00131	51		 push	 ecx
  00132	e8 00 00 00 00	 call	 ?gObjRemoveBuffEffect@@YAEPAUOBJECTSTRUCT@@H@Z ; gObjRemoveBuffEffect

; 943  : 				this->GCIllusionTempleSkillCancel(&gObj[aIndex], 211);

  00137	8b 0d 00 00 00
	00		 mov	 ecx, DWORD PTR ?gObj@@3PAUOBJECTSTRUCT@@A ; gObj
  0013d	83 c4 08	 add	 esp, 8
  00140	8d 14 0e	 lea	 edx, DWORD PTR [esi+ecx]
  00143	68 d3 00 00 00	 push	 211			; 000000d3H
  00148	52		 push	 edx
  00149	8b cf		 mov	 ecx, edi
  0014b	e8 00 00 00 00	 call	 ?GCIllusionTempleSkillCancel@CIllusionTempleProcess@@QAEXPAUOBJECTSTRUCT@@G@Z ; CIllusionTempleProcess::GCIllusionTempleSkillCancel
$LN6@LeaveBattl:

; 944  : 			}
; 945  : 
; 946  : 			if(this->m_FloorData[gObj[aIndex].m_iIllusionTempleIndex].m_btTeamJoinSide == 0)

  00150	a1 00 00 00 00	 mov	 eax, DWORD PTR ?gObj@@3PAUOBJECTSTRUCT@@A ; gObj
  00155	8b 84 06 78 20
	00 00		 mov	 eax, DWORD PTR [esi+eax+8312]
  0015c	8d 0c 40	 lea	 ecx, DWORD PTR [eax+eax*2]
  0015f	03 c9		 add	 ecx, ecx
  00161	8a 44 cf 24	 mov	 al, BYTE PTR [edi+ecx*8+36]
  00165	84 c0		 test	 al, al
  00167	75 08		 jne	 SHORT $LN5@LeaveBattl

; 947  : 			{
; 948  : 				this->m_iYellowTeamUserCount--;

  00169	ff 8f c8 03 00
	00		 dec	 DWORD PTR [edi+968]
  0016f	eb 0a		 jmp	 SHORT $LN3@LeaveBattl
$LN5@LeaveBattl:

; 949  : 			}
; 950  : 			else if(this->m_FloorData[gObj[aIndex].m_iIllusionTempleIndex].m_btTeamJoinSide == 1)

  00171	3c 01		 cmp	 al, 1
  00173	75 06		 jne	 SHORT $LN3@LeaveBattl

; 951  : 			{
; 952  : 				this->m_iBlueTeamUserCount--;

  00175	ff 8f cc 03 00
	00		 dec	 DWORD PTR [edi+972]
$LN3@LeaveBattl:

; 953  : 			}
; 954  : 
; 955  : 			this->InitFloorData(gObj[aIndex].m_iIllusionTempleIndex);

  0017b	8b 15 00 00 00
	00		 mov	 edx, DWORD PTR ?gObj@@3PAUOBJECTSTRUCT@@A ; gObj
  00181	8b 84 16 78 20
	00 00		 mov	 eax, DWORD PTR [esi+edx+8312]
  00188	50		 push	 eax
  00189	8b cf		 mov	 ecx, edi
  0018b	e8 00 00 00 00	 call	 ?InitFloorData@CIllusionTempleProcess@@QAEXH@Z ; CIllusionTempleProcess::InitFloorData

; 956  : 
; 957  : 			gObj[aIndex].m_iIllusionTempleIndex = -1;

  00190	8b 0d 00 00 00
	00		 mov	 ecx, DWORD PTR ?gObj@@3PAUOBJECTSTRUCT@@A ; gObj
  00196	83 c8 ff	 or	 eax, -1
  00199	89 84 0e 78 20
	00 00		 mov	 DWORD PTR [esi+ecx+8312], eax

; 958  : 
; 959  : 			this->m_iEnteredUserCount--;

  001a0	01 87 28 02 00
	00		 add	 DWORD PTR [edi+552], eax

; 960  : 
; 961  : 			LogAddTD("[Illusion Temple] (%d) LeaveUser: (%s)(%s)", this->m_btFloorIndex+1, gObj[aIndex].AccountID, gObj[aIndex].Name);

  001a6	a1 00 00 00 00	 mov	 eax, DWORD PTR ?gObj@@3PAUOBJECTSTRUCT@@A ; gObj
  001ab	0f b6 8f 2c 02
	00 00		 movzx	 ecx, BYTE PTR [edi+556]
  001b2	8d 54 06 77	 lea	 edx, DWORD PTR [esi+eax+119]
  001b6	52		 push	 edx
  001b7	8d 44 06 6c	 lea	 eax, DWORD PTR [esi+eax+108]
  001bb	50		 push	 eax
  001bc	41		 inc	 ecx
  001bd	51		 push	 ecx
  001be	68 00 00 00 00	 push	 OFFSET ??_C@_0CL@PJKIAECJ@?$FLIllusion?5Temple?$FN?5?$CI?$CFd?$CJ?5LeaveUser@
  001c3	ff 15 00 00 00
	00		 call	 DWORD PTR ?LogAddTD@@3P6AXPADZZA ; LogAddTD
  001c9	83 c4 10	 add	 esp, 16			; 00000010H
$LN22@LeaveBattl:

; 962  : 		}
; 963  : 	}
; 964  : 
; 965  : 	LeaveCriticalSection(&this->m_cs);

  001cc	8b 55 f8	 mov	 edx, DWORD PTR tv323[ebp]
  001cf	52		 push	 edx
  001d0	ff 15 00 00 00
	00		 call	 DWORD PTR __imp__LeaveCriticalSection@4

; 966  : 
; 967  : 	if(gObj[aIndex].PartyNumber >= 0)

  001d6	a1 00 00 00 00	 mov	 eax, DWORD PTR ?gObj@@3PAUOBJECTSTRUCT@@A ; gObj
  001db	83 bc 06 2c 04
	00 00 00	 cmp	 DWORD PTR [esi+eax+1068], 0
  001e3	8d 8c 06 2c 04
	00 00		 lea	 ecx, DWORD PTR [esi+eax+1068]
  001ea	7c 38		 jl	 SHORT $LN1@LeaveBattl

; 968  : 	{
; 969  : 		PMSG_PARTYDELUSER pMsg;
; 970  : 
; 971  : 		int Index = gParty.GetIndex(gObj[aIndex].PartyNumber, gObj[aIndex].m_Index, gObj[aIndex].DBNumber);

  001ec	8b 54 06 2c	 mov	 edx, DWORD PTR [esi+eax+44]
  001f0	8b 04 06	 mov	 eax, DWORD PTR [esi+eax]
  001f3	8b 09		 mov	 ecx, DWORD PTR [ecx]
  001f5	52		 push	 edx
  001f6	50		 push	 eax
  001f7	51		 push	 ecx
  001f8	b9 00 00 00 00	 mov	 ecx, OFFSET ?gParty@@3VPartyClass@@A ; gParty
  001fd	e8 00 00 00 00	 call	 ?GetIndex@PartyClass@@QAEHHHH@Z ; PartyClass::GetIndex

; 972  : 
; 973  : 		if(Index >= 0)

  00202	85 c0		 test	 eax, eax
  00204	78 19		 js	 SHORT $LN21@LeaveBattl

; 974  : 		{
; 975  : 			pMsg.Number = Index;
; 976  : 			CGPartyDelUser(&pMsg, gObj[aIndex].m_Index);

  00206	8b 15 00 00 00
	00		 mov	 edx, DWORD PTR ?gObj@@3PAUOBJECTSTRUCT@@A ; gObj
  0020c	88 45 0b	 mov	 BYTE PTR _pMsg$216159[ebp+3], al
  0020f	8b 04 16	 mov	 eax, DWORD PTR [esi+edx]
  00212	50		 push	 eax
  00213	8d 4d 08	 lea	 ecx, DWORD PTR _pMsg$216159[ebp]
  00216	51		 push	 ecx
  00217	e8 00 00 00 00	 call	 ?CGPartyDelUser@@YAXPAUPMSG_PARTYDELUSER@@H@Z ; CGPartyDelUser
  0021c	83 c4 08	 add	 esp, 8
$LN21@LeaveBattl:
  0021f	a1 00 00 00 00	 mov	 eax, DWORD PTR ?gObj@@3PAUOBJECTSTRUCT@@A ; gObj
$LN1@LeaveBattl:

; 977  : 		}
; 978  : 	}
; 979  : 
; 980  : 	gObj[aIndex].m_Change = -1;

  00224	c7 84 06 54 04
	00 00 ff ff ff
	ff		 mov	 DWORD PTR [esi+eax+1108], -1

; 981  : 	gObjViewportListProtocolCreate(&gObj[aIndex]);

  0022f	03 35 00 00 00
	00		 add	 esi, DWORD PTR ?gObj@@3PAUOBJECTSTRUCT@@A ; gObj
  00235	56		 push	 esi
  00236	e8 00 00 00 00	 call	 ?gObjViewportListProtocolCreate@@YAXPAUOBJECTSTRUCT@@@Z ; gObjViewportListProtocolCreate
  0023b	83 c4 04	 add	 esp, 4
  0023e	5e		 pop	 esi
  0023f	5f		 pop	 edi

; 982  : 
; 983  : 	return TRUE;

  00240	b8 01 00 00 00	 mov	 eax, 1
  00245	5b		 pop	 ebx

; 984  : }

  00246	8b e5		 mov	 esp, ebp
  00248	5d		 pop	 ebp
  00249	c2 04 00	 ret	 4
?LeaveBattleUser@CIllusionTempleProcess@@QAEHH@Z ENDP	; CIllusionTempleProcess::LeaveBattleUser
_TEXT	ENDS
PUBLIC	??_C@_0DN@KNCFCJAC@?$FLIllusion?5Temple?$FN?5?$CI?$CFd?$CJ?5?$FL?$CFs?$FN?$FL?$CFs?$FN?5@ ; `string'
PUBLIC	?NpcStatueProc@CIllusionTempleProcess@@QAEXPAUOBJECTSTRUCT@@0@Z ; CIllusionTempleProcess::NpcStatueProc
EXTRN	?gObjLifeCheck@@YAXPAUOBJECTSTRUCT@@0HHHHGH@Z:PROC ; gObjLifeCheck
;	COMDAT ??_C@_0DN@KNCFCJAC@?$FLIllusion?5Temple?$FN?5?$CI?$CFd?$CJ?5?$FL?$CFs?$FN?$FL?$CFs?$FN?5@
CONST	SEGMENT
??_C@_0DN@KNCFCJAC@?$FLIllusion?5Temple?$FN?5?$CI?$CFd?$CJ?5?$FL?$CFs?$FN?$FL?$CFs?$FN?5@ DB '['
	DB	'Illusion Temple] (%d) [%s][%s] Click To Status (X:%d, Y:%d)', 00H ; `string'
; Function compile flags: /Ogtp
CONST	ENDS
;	COMDAT ?NpcStatueProc@CIllusionTempleProcess@@QAEXPAUOBJECTSTRUCT@@0@Z
_TEXT	SEGMENT
_lpObj$ = 8						; size = 4
_lpTargetObj$ = 12					; size = 4
?NpcStatueProc@CIllusionTempleProcess@@QAEXPAUOBJECTSTRUCT@@0@Z PROC ; CIllusionTempleProcess::NpcStatueProc, COMDAT
; _this$ = ecx

; 1157 : {

  00000	55		 push	 ebp
  00001	8b ec		 mov	 ebp, esp
  00003	53		 push	 ebx
  00004	56		 push	 esi

; 1158 : 	if(lpObj->m_State == 0 || lpObj->m_PosNum == -1)

  00005	8b 75 08	 mov	 esi, DWORD PTR _lpObj$[ebp]
  00008	83 be 20 02 00
	00 00		 cmp	 DWORD PTR [esi+544], 0
  0000f	8b d9		 mov	 ebx, ecx
  00011	0f 84 e6 00 00
	00		 je	 $LN1@NpcStatueP
  00017	66 83 be b0 03
	00 00 ff	 cmp	 WORD PTR [esi+944], -1
  0001f	0f 84 d8 00 00
	00		 je	 $LN1@NpcStatueP

; 1159 : 	{
; 1160 : 		return;
; 1161 : 	}
; 1162 : 
; 1163 : 	if( (abs(lpTargetObj->Y - lpObj->Y)) > 3 || (abs(lpTargetObj->X - lpObj->X)) > 3)

  00025	0f bf 8e 46 01
	00 00		 movsx	 ecx, WORD PTR [esi+326]
  0002c	57		 push	 edi
  0002d	8b 7d 0c	 mov	 edi, DWORD PTR _lpTargetObj$[ebp]
  00030	0f bf 87 46 01
	00 00		 movsx	 eax, WORD PTR [edi+326]
  00037	2b c1		 sub	 eax, ecx
  00039	99		 cdq
  0003a	33 c2		 xor	 eax, edx
  0003c	2b c2		 sub	 eax, edx
  0003e	83 f8 03	 cmp	 eax, 3
  00041	0f 8f b5 00 00
	00		 jg	 $LN7@NpcStatueP
  00047	0f bf 96 44 01
	00 00		 movsx	 edx, WORD PTR [esi+324]
  0004e	0f bf 87 44 01
	00 00		 movsx	 eax, WORD PTR [edi+324]
  00055	2b c2		 sub	 eax, edx
  00057	99		 cdq
  00058	33 c2		 xor	 eax, edx
  0005a	2b c2		 sub	 eax, edx
  0005c	83 f8 03	 cmp	 eax, 3
  0005f	0f 8f 97 00 00
	00		 jg	 $LN7@NpcStatueP

; 1164 : 	{
; 1165 : 		return;
; 1166 : 	}
; 1167 : 
; 1168 : 	lpObj->m_PosNum = -1;
; 1169 : 	lpObj->Life = 0;

  00065	d9 ee		 fldz

; 1170 : 
; 1171 : 	gObjLifeCheck(lpObj, lpTargetObj, 0, 1, 0, 0, 0, 0);

  00067	6a 00		 push	 0
  00069	6a 00		 push	 0
  0006b	d9 9e fc 00 00
	00		 fstp	 DWORD PTR [esi+252]
  00071	6a 00		 push	 0
  00073	6a 00		 push	 0
  00075	6a 01		 push	 1
  00077	6a 00		 push	 0
  00079	83 c8 ff	 or	 eax, -1
  0007c	57		 push	 edi
  0007d	56		 push	 esi
  0007e	66 89 86 b0 03
	00 00		 mov	 WORD PTR [esi+944], ax
  00085	e8 00 00 00 00	 call	 ?gObjLifeCheck@@YAXPAUOBJECTSTRUCT@@0HHHHGH@Z ; gObjLifeCheck

; 1172 : 
; 1173 : 	float loc2 = 0;
; 1174 : 	int loc3 = 0;
; 1175 : 	int loc4 = 0;
; 1176 : 	int loc5 = 0;
; 1177 : 	int loc6 = 0;
; 1178 : 	int loc7 = 0;
; 1179 : 	int loc8 = 0;
; 1180 : 	int loc9 = 0;
; 1181 : 	int loc10 = 0;
; 1182 : 
; 1183 : 	loc3 = ItemGetNumberMake(14, 64);	//Ball

  0008a	6a 40		 push	 64			; 00000040H
  0008c	6a 0e		 push	 14			; 0000000eH
  0008e	e8 00 00 00 00	 call	 ?ItemGetNumberMake@@YAHHH@Z ; ItemGetNumberMake

; 1184 : 	loc5 = 0;
; 1185 : 	loc6 = 0;
; 1186 : 	loc7 = 0;
; 1187 : 	loc4 = 0;
; 1188 : 
; 1189 : 	ItemSerialCreateSend(lpTargetObj->m_Index, (BYTE)lpTargetObj->MapNumber, (BYTE)lpObj->X, (BYTE)lpObj->Y, loc3, (BYTE)loc4, (BYTE)loc2, (BYTE)loc5, (BYTE)loc6, (BYTE)loc7, lpTargetObj->m_Index, (BYTE)loc10, 0);

  00093	8b 0f		 mov	 ecx, DWORD PTR [edi]
  00095	0f b6 96 46 01
	00 00		 movzx	 edx, BYTE PTR [esi+326]
  0009c	6a 00		 push	 0
  0009e	6a 00		 push	 0
  000a0	51		 push	 ecx
  000a1	6a 00		 push	 0
  000a3	6a 00		 push	 0
  000a5	6a 00		 push	 0
  000a7	6a 00		 push	 0
  000a9	6a 00		 push	 0
  000ab	50		 push	 eax
  000ac	0f b6 86 44 01
	00 00		 movzx	 eax, BYTE PTR [esi+324]
  000b3	52		 push	 edx
  000b4	0f b6 97 49 01
	00 00		 movzx	 edx, BYTE PTR [edi+329]
  000bb	50		 push	 eax
  000bc	52		 push	 edx
  000bd	51		 push	 ecx
  000be	e8 00 00 00 00	 call	 ?ItemSerialCreateSend@@YAXHEEEHEEEEEHEE@Z ; ItemSerialCreateSend

; 1190 : 
; 1191 : 	LogAddTD("[Illusion Temple] (%d) [%s][%s] Click To Status (X:%d, Y:%d)", this->m_btFloorIndex+1, lpTargetObj->AccountID, lpTargetObj->Name, lpObj->X, lpObj->Y);

  000c3	0f bf 86 46 01
	00 00		 movsx	 eax, WORD PTR [esi+326]
  000ca	0f bf 8e 44 01
	00 00		 movsx	 ecx, WORD PTR [esi+324]
  000d1	83 c4 5c	 add	 esp, 92			; 0000005cH
  000d4	50		 push	 eax
  000d5	0f b6 83 2c 02
	00 00		 movzx	 eax, BYTE PTR [ebx+556]
  000dc	51		 push	 ecx
  000dd	8d 57 77	 lea	 edx, DWORD PTR [edi+119]
  000e0	52		 push	 edx
  000e1	83 c7 6c	 add	 edi, 108		; 0000006cH
  000e4	57		 push	 edi
  000e5	40		 inc	 eax
  000e6	50		 push	 eax
  000e7	68 00 00 00 00	 push	 OFFSET ??_C@_0DN@KNCFCJAC@?$FLIllusion?5Temple?$FN?5?$CI?$CFd?$CJ?5?$FL?$CFs?$FN?$FL?$CFs?$FN?5@
  000ec	ff 15 00 00 00
	00		 call	 DWORD PTR ?LogAddTD@@3P6AXPADZZA ; LogAddTD
  000f2	83 c4 18	 add	 esp, 24			; 00000018H

; 1192 : 
; 1193 : 	this->SetBattleMonstersReady();

  000f5	8b cb		 mov	 ecx, ebx
  000f7	e8 00 00 00 00	 call	 ?SetBattleMonstersReady@CIllusionTempleProcess@@QAEXXZ ; CIllusionTempleProcess::SetBattleMonstersReady
$LN7@NpcStatueP:
  000fc	5f		 pop	 edi
$LN1@NpcStatueP:
  000fd	5e		 pop	 esi
  000fe	5b		 pop	 ebx

; 1194 : }

  000ff	5d		 pop	 ebp
  00100	c2 08 00	 ret	 8
?NpcStatueProc@CIllusionTempleProcess@@QAEXPAUOBJECTSTRUCT@@0@Z ENDP ; CIllusionTempleProcess::NpcStatueProc
_TEXT	ENDS
PUBLIC	??_C@_0EM@NAJEPMDL@?$FLIllusion?5Temple?$FN?5?$CI?$CFd?$CJ?5Increase?5@ ; `string'
PUBLIC	?NpcAlliedPedestalProc@CIllusionTempleProcess@@QAEXPAUOBJECTSTRUCT@@0@Z ; CIllusionTempleProcess::NpcAlliedPedestalProc
;	COMDAT ??_C@_0EM@NAJEPMDL@?$FLIllusion?5Temple?$FN?5?$CI?$CFd?$CJ?5Increase?5@
CONST	SEGMENT
??_C@_0EM@NAJEPMDL@?$FLIllusion?5Temple?$FN?5?$CI?$CFd?$CJ?5Increase?5@ DB '['
	DB	'Illusion Temple] (%d) Increase AlliedTeam Relics Point: (%s)('
	DB	'%s)(Score:%d)', 00H				; `string'
; Function compile flags: /Ogtp
CONST	ENDS
;	COMDAT ?NpcAlliedPedestalProc@CIllusionTempleProcess@@QAEXPAUOBJECTSTRUCT@@0@Z
_TEXT	SEGMENT
_lpObj$ = 8						; size = 4
_lpTargetObj$ = 12					; size = 4
?NpcAlliedPedestalProc@CIllusionTempleProcess@@QAEXPAUOBJECTSTRUCT@@0@Z PROC ; CIllusionTempleProcess::NpcAlliedPedestalProc, COMDAT
; _this$ = ecx

; 1197 : {

  00000	55		 push	 ebp
  00001	8b ec		 mov	 ebp, esp
  00003	56		 push	 esi
  00004	8b f1		 mov	 esi, ecx

; 1198 : 	if(this->m_btAllowedRegPedestal == (BYTE)-1 || this->m_btAllowedRegPedestal != 0 || lpTargetObj->m_Index != this->m_iBallPlayerIndex)

  00006	8a 86 bc 03 00
	00		 mov	 al, BYTE PTR [esi+956]
  0000c	3c ff		 cmp	 al, 255			; 000000ffH
  0000e	0f 84 8e 00 00
	00		 je	 $LN2@NpcAlliedP
  00014	84 c0		 test	 al, al
  00016	0f 85 86 00 00
	00		 jne	 $LN2@NpcAlliedP
  0001c	57		 push	 edi
  0001d	8b 7d 0c	 mov	 edi, DWORD PTR _lpTargetObj$[ebp]
  00020	8b 07		 mov	 eax, DWORD PTR [edi]
  00022	3b 86 b8 03 00
	00		 cmp	 eax, DWORD PTR [esi+952]
  00028	75 77		 jne	 SHORT $LN6@NpcAlliedP

; 1199 : 	{
; 1200 : 		return;
; 1201 : 	}
; 1202 : 
; 1203 : 	if(lpTargetObj->pInventory[FindItemBallPosition(lpTargetObj->m_Index)].m_Type == ITEMGET(14,64))

  0002a	50		 push	 eax
  0002b	e8 00 00 00 00	 call	 ?FindItemBallPosition@CIllusionTempleProcess@@QAEHH@Z ; CIllusionTempleProcess::FindItemBallPosition
  00030	69 c0 d4 00 00
	00		 imul	 eax, 212		; 000000d4H
  00036	8b 8f 24 0e 00
	00		 mov	 ecx, DWORD PTR [edi+3620]
  0003c	ba 40 1c 00 00	 mov	 edx, 7232		; 00001c40H
  00041	66 39 54 08 06	 cmp	 WORD PTR [eax+ecx+6], dx
  00046	75 52		 jne	 SHORT $LN1@NpcAlliedP

; 1204 : 	{
; 1205 : 		this->m_btYellowTeamScore++;

  00048	fe 86 d0 03 00
	00		 inc	 BYTE PTR [esi+976]

; 1206 : 		this->DeleteRelicsItem(lpTargetObj);

  0004e	57		 push	 edi
  0004f	8b ce		 mov	 ecx, esi
  00051	e8 00 00 00 00	 call	 ?DeleteRelicsItem@CIllusionTempleProcess@@QAEXPAUOBJECTSTRUCT@@@Z ; CIllusionTempleProcess::DeleteRelicsItem

; 1207 : 		this->m_btAllowedRegPedestal = (BYTE) -1;
; 1208 : 		this->m_iBallPlayerIndex = -1;

  00056	c7 86 b8 03 00
	00 ff ff ff ff	 mov	 DWORD PTR [esi+952], -1
  00060	66 c7 86 bc 03
	00 00 ff ff	 mov	 WORD PTR [esi+956], 65535 ; 0000ffffH

; 1209 : 		this->m_btBallInventoryPosition = (BYTE) -1;
; 1210 : 		this->IncreaseTeamPlayerReward(lpTargetObj->m_Index);

  00069	8b 07		 mov	 eax, DWORD PTR [edi]
  0006b	50		 push	 eax
  0006c	8b ce		 mov	 ecx, esi
  0006e	e8 00 00 00 00	 call	 ?IncreaseTeamPlayerReward@CIllusionTempleProcess@@QAEXH@Z ; CIllusionTempleProcess::IncreaseTeamPlayerReward

; 1211 : 
; 1212 : 		LogAddTD("[Illusion Temple] (%d) Increase AlliedTeam Relics Point: (%s)(%s)(Score:%d)", this->m_btFloorIndex+1, lpTargetObj->AccountID, lpTargetObj->Name, this->m_btYellowTeamScore);

  00073	0f b6 8e d0 03
	00 00		 movzx	 ecx, BYTE PTR [esi+976]
  0007a	0f b6 86 2c 02
	00 00		 movzx	 eax, BYTE PTR [esi+556]
  00081	51		 push	 ecx
  00082	8d 57 77	 lea	 edx, DWORD PTR [edi+119]
  00085	52		 push	 edx
  00086	83 c7 6c	 add	 edi, 108		; 0000006cH
  00089	57		 push	 edi
  0008a	40		 inc	 eax
  0008b	50		 push	 eax
  0008c	68 00 00 00 00	 push	 OFFSET ??_C@_0EM@NAJEPMDL@?$FLIllusion?5Temple?$FN?5?$CI?$CFd?$CJ?5Increase?5@
  00091	ff 15 00 00 00
	00		 call	 DWORD PTR ?LogAddTD@@3P6AXPADZZA ; LogAddTD
  00097	83 c4 14	 add	 esp, 20			; 00000014H
$LN1@NpcAlliedP:

; 1213 : 	}
; 1214 : 	this->SetNpcStatueRegen();

  0009a	8b ce		 mov	 ecx, esi
  0009c	e8 00 00 00 00	 call	 ?SetNpcStatueRegen@CIllusionTempleProcess@@QAEXXZ ; CIllusionTempleProcess::SetNpcStatueRegen
$LN6@NpcAlliedP:
  000a1	5f		 pop	 edi
$LN2@NpcAlliedP:
  000a2	5e		 pop	 esi

; 1215 : }

  000a3	5d		 pop	 ebp
  000a4	c2 08 00	 ret	 8
?NpcAlliedPedestalProc@CIllusionTempleProcess@@QAEXPAUOBJECTSTRUCT@@0@Z ENDP ; CIllusionTempleProcess::NpcAlliedPedestalProc
_TEXT	ENDS
PUBLIC	??_C@_0EO@HGHKGJCL@?$FLIllusion?5Temple?$FN?5?$CI?$CFd?$CJ?5Increase?5@ ; `string'
PUBLIC	?NpcRelicsPedestalProc@CIllusionTempleProcess@@QAEXPAUOBJECTSTRUCT@@0@Z ; CIllusionTempleProcess::NpcRelicsPedestalProc
;	COMDAT ??_C@_0EO@HGHKGJCL@?$FLIllusion?5Temple?$FN?5?$CI?$CFd?$CJ?5Increase?5@
CONST	SEGMENT
??_C@_0EO@HGHKGJCL@?$FLIllusion?5Temple?$FN?5?$CI?$CFd?$CJ?5Increase?5@ DB '['
	DB	'Illusion Temple] (%d) Increase IllusionTeam Relics Point: (%s'
	DB	')(%s)(Score:%d)', 00H			; `string'
; Function compile flags: /Ogtp
CONST	ENDS
;	COMDAT ?NpcRelicsPedestalProc@CIllusionTempleProcess@@QAEXPAUOBJECTSTRUCT@@0@Z
_TEXT	SEGMENT
_lpObj$ = 8						; size = 4
_lpTargetObj$ = 12					; size = 4
?NpcRelicsPedestalProc@CIllusionTempleProcess@@QAEXPAUOBJECTSTRUCT@@0@Z PROC ; CIllusionTempleProcess::NpcRelicsPedestalProc, COMDAT
; _this$ = ecx

; 1218 : {

  00000	55		 push	 ebp
  00001	8b ec		 mov	 ebp, esp
  00003	56		 push	 esi
  00004	8b f1		 mov	 esi, ecx

; 1219 : 	if(this->m_btAllowedRegPedestal == (BYTE)-1 || this->m_btAllowedRegPedestal != 1 || lpTargetObj->m_Index != this->m_iBallPlayerIndex)

  00006	8a 86 bc 03 00
	00		 mov	 al, BYTE PTR [esi+956]
  0000c	3c ff		 cmp	 al, 255			; 000000ffH
  0000e	0f 84 8e 00 00
	00		 je	 $LN2@NpcRelicsP
  00014	3c 01		 cmp	 al, 1
  00016	0f 85 86 00 00
	00		 jne	 $LN2@NpcRelicsP
  0001c	57		 push	 edi
  0001d	8b 7d 0c	 mov	 edi, DWORD PTR _lpTargetObj$[ebp]
  00020	8b 07		 mov	 eax, DWORD PTR [edi]
  00022	3b 86 b8 03 00
	00		 cmp	 eax, DWORD PTR [esi+952]
  00028	75 77		 jne	 SHORT $LN6@NpcRelicsP

; 1220 : 	{
; 1221 : 		return;
; 1222 : 	}
; 1223 : 
; 1224 : 	if(lpTargetObj->pInventory[FindItemBallPosition(lpTargetObj->m_Index)].m_Type == ITEMGET(14,64))

  0002a	50		 push	 eax
  0002b	e8 00 00 00 00	 call	 ?FindItemBallPosition@CIllusionTempleProcess@@QAEHH@Z ; CIllusionTempleProcess::FindItemBallPosition
  00030	69 c0 d4 00 00
	00		 imul	 eax, 212		; 000000d4H
  00036	8b 8f 24 0e 00
	00		 mov	 ecx, DWORD PTR [edi+3620]
  0003c	ba 40 1c 00 00	 mov	 edx, 7232		; 00001c40H
  00041	66 39 54 08 06	 cmp	 WORD PTR [eax+ecx+6], dx
  00046	75 52		 jne	 SHORT $LN1@NpcRelicsP

; 1225 : 	{
; 1226 : 		this->m_btBlueTeamScore++;

  00048	fe 86 d1 03 00
	00		 inc	 BYTE PTR [esi+977]

; 1227 : 		this->DeleteRelicsItem(lpTargetObj);

  0004e	57		 push	 edi
  0004f	8b ce		 mov	 ecx, esi
  00051	e8 00 00 00 00	 call	 ?DeleteRelicsItem@CIllusionTempleProcess@@QAEXPAUOBJECTSTRUCT@@@Z ; CIllusionTempleProcess::DeleteRelicsItem

; 1228 : 		this->m_btAllowedRegPedestal = (BYTE) -1;
; 1229 : 		this->m_iBallPlayerIndex = -1;

  00056	c7 86 b8 03 00
	00 ff ff ff ff	 mov	 DWORD PTR [esi+952], -1
  00060	66 c7 86 bc 03
	00 00 ff ff	 mov	 WORD PTR [esi+956], 65535 ; 0000ffffH

; 1230 : 		this->m_btBallInventoryPosition = (BYTE) -1;
; 1231 : 		this->IncreaseTeamPlayerReward(lpTargetObj->m_Index);

  00069	8b 07		 mov	 eax, DWORD PTR [edi]
  0006b	50		 push	 eax
  0006c	8b ce		 mov	 ecx, esi
  0006e	e8 00 00 00 00	 call	 ?IncreaseTeamPlayerReward@CIllusionTempleProcess@@QAEXH@Z ; CIllusionTempleProcess::IncreaseTeamPlayerReward

; 1232 : 
; 1233 : 		LogAddTD("[Illusion Temple] (%d) Increase IllusionTeam Relics Point: (%s)(%s)(Score:%d)", this->m_btFloorIndex+1, lpTargetObj->AccountID, lpTargetObj->Name, this->m_btBlueTeamScore);

  00073	0f b6 8e d1 03
	00 00		 movzx	 ecx, BYTE PTR [esi+977]
  0007a	0f b6 86 2c 02
	00 00		 movzx	 eax, BYTE PTR [esi+556]
  00081	51		 push	 ecx
  00082	8d 57 77	 lea	 edx, DWORD PTR [edi+119]
  00085	52		 push	 edx
  00086	83 c7 6c	 add	 edi, 108		; 0000006cH
  00089	57		 push	 edi
  0008a	40		 inc	 eax
  0008b	50		 push	 eax
  0008c	68 00 00 00 00	 push	 OFFSET ??_C@_0EO@HGHKGJCL@?$FLIllusion?5Temple?$FN?5?$CI?$CFd?$CJ?5Increase?5@
  00091	ff 15 00 00 00
	00		 call	 DWORD PTR ?LogAddTD@@3P6AXPADZZA ; LogAddTD
  00097	83 c4 14	 add	 esp, 20			; 00000014H
$LN1@NpcRelicsP:

; 1234 : 	}
; 1235 : 	this->SetNpcStatueRegen();

  0009a	8b ce		 mov	 ecx, esi
  0009c	e8 00 00 00 00	 call	 ?SetNpcStatueRegen@CIllusionTempleProcess@@QAEXXZ ; CIllusionTempleProcess::SetNpcStatueRegen
$LN6@NpcRelicsP:
  000a1	5f		 pop	 edi
$LN2@NpcRelicsP:
  000a2	5e		 pop	 esi

; 1236 : }

  000a3	5d		 pop	 ebp
  000a4	c2 08 00	 ret	 8
?NpcRelicsPedestalProc@CIllusionTempleProcess@@QAEXPAUOBJECTSTRUCT@@0@Z ENDP ; CIllusionTempleProcess::NpcRelicsPedestalProc
_TEXT	ENDS
PUBLIC	?SkillSecondProc@CIllusionTempleProcess@@QAEXPAUOBJECTSTRUCT@@@Z ; CIllusionTempleProcess::SkillSecondProc
; Function compile flags: /Ogtp
;	COMDAT ?SkillSecondProc@CIllusionTempleProcess@@QAEXPAUOBJECTSTRUCT@@@Z
_TEXT	SEGMENT
_lpObj$ = 8						; size = 4
?SkillSecondProc@CIllusionTempleProcess@@QAEXPAUOBJECTSTRUCT@@@Z PROC ; CIllusionTempleProcess::SkillSecondProc, COMDAT
; _this$ = ecx

; 2144 : {

  00000	55		 push	 ebp
  00001	8b ec		 mov	 ebp, esp
  00003	56		 push	 esi

; 2145 : 	if(this->m_FloorData[lpObj->m_iIllusionTempleIndex].m_iTeamPlayerIndex != lpObj->m_Index)

  00004	8b 75 08	 mov	 esi, DWORD PTR _lpObj$[ebp]
  00007	8b 86 78 20 00
	00		 mov	 eax, DWORD PTR [esi+8312]
  0000d	8d 04 40	 lea	 eax, DWORD PTR [eax+eax*2]
  00010	57		 push	 edi
  00011	03 c0		 add	 eax, eax
  00013	8b f9		 mov	 edi, ecx
  00015	8b 4c c7 20	 mov	 ecx, DWORD PTR [edi+eax*8+32]
  00019	3b 0e		 cmp	 ecx, DWORD PTR [esi]
  0001b	0f 85 ad 00 00
	00		 jne	 $LN1@SkillSecon

; 2146 : 	{
; 2147 : 		return;
; 2148 : 	}
; 2149 : 
; 2150 : 	if(this->m_FloorData[lpObj->m_iIllusionTempleIndex].m_dwShieldSpellTime > 0)

  00021	83 7c c7 28 00	 cmp	 DWORD PTR [edi+eax*8+40], 0
  00026	76 50		 jbe	 SHORT $LN8@SkillSecon

; 2151 : 	{
; 2152 : 		this->m_FloorData[lpObj->m_iIllusionTempleIndex].m_dwShieldSpellTime--;

  00028	8b 86 78 20 00
	00		 mov	 eax, DWORD PTR [esi+8312]
  0002e	8d 14 40	 lea	 edx, DWORD PTR [eax+eax*2]
  00031	03 d2		 add	 edx, edx
  00033	ff 4c d7 28	 dec	 DWORD PTR [edi+edx*8+40]
  00037	8d 44 d7 28	 lea	 eax, DWORD PTR [edi+edx*8+40]

; 2153 : 
; 2154 : 		if(this->m_FloorData[lpObj->m_iIllusionTempleIndex].m_dwShieldSpellTime <= 0)

  0003b	8b 86 78 20 00
	00		 mov	 eax, DWORD PTR [esi+8312]
  00041	8d 04 40	 lea	 eax, DWORD PTR [eax+eax*2]
  00044	03 c0		 add	 eax, eax
  00046	83 7c c7 28 00	 cmp	 DWORD PTR [edi+eax*8+40], 0
  0004b	77 2b		 ja	 SHORT $LN8@SkillSecon

; 2155 : 		{
; 2156 : 			this->m_FloorData[lpObj->m_iIllusionTempleIndex].m_dwShieldSpellTime = 0;

  0004d	8b 86 78 20 00
	00		 mov	 eax, DWORD PTR [esi+8312]
  00053	8d 0c 40	 lea	 ecx, DWORD PTR [eax+eax*2]
  00056	03 c9		 add	 ecx, ecx

; 2157 : 			gObjRemoveBuffEffect(lpObj, AT_ILLUSION_SHIELD_SPELL); //season 3.0 add-on

  00058	6a 22		 push	 34			; 00000022H
  0005a	56		 push	 esi
  0005b	c7 44 cf 28 00
	00 00 00	 mov	 DWORD PTR [edi+ecx*8+40], 0
  00063	e8 00 00 00 00	 call	 ?gObjRemoveBuffEffect@@YAEPAUOBJECTSTRUCT@@H@Z ; gObjRemoveBuffEffect
  00068	83 c4 08	 add	 esp, 8

; 2158 : 			this->GCIllusionTempleSkillCancel(lpObj, 210);

  0006b	68 d2 00 00 00	 push	 210			; 000000d2H
  00070	56		 push	 esi
  00071	8b cf		 mov	 ecx, edi
  00073	e8 00 00 00 00	 call	 ?GCIllusionTempleSkillCancel@CIllusionTempleProcess@@QAEXPAUOBJECTSTRUCT@@G@Z ; CIllusionTempleProcess::GCIllusionTempleSkillCancel
$LN8@SkillSecon:

; 2159 : 		}
; 2160 : 	}
; 2161 : 	
; 2162 : 	if(this->m_FloorData[lpObj->m_iIllusionTempleIndex].m_dwRestrictionSpellTime > 0)

  00078	8b 86 78 20 00
	00		 mov	 eax, DWORD PTR [esi+8312]
  0007e	8d 14 40	 lea	 edx, DWORD PTR [eax+eax*2]
  00081	03 d2		 add	 edx, edx
  00083	83 7c d7 2c 00	 cmp	 DWORD PTR [edi+edx*8+44], 0
  00088	76 44		 jbe	 SHORT $LN1@SkillSecon

; 2163 : 	{
; 2164 : 		this->m_FloorData[lpObj->m_iIllusionTempleIndex].m_dwRestrictionSpellTime--;

  0008a	8d 04 40	 lea	 eax, DWORD PTR [eax+eax*2]
  0008d	03 c0		 add	 eax, eax
  0008f	ff 4c c7 2c	 dec	 DWORD PTR [edi+eax*8+44]
  00093	8d 44 c7 2c	 lea	 eax, DWORD PTR [edi+eax*8+44]

; 2165 : 
; 2166 : 		if(this->m_FloorData[lpObj->m_iIllusionTempleIndex].m_dwRestrictionSpellTime <= 0)

  00097	8b 86 78 20 00
	00		 mov	 eax, DWORD PTR [esi+8312]
  0009d	8d 0c 40	 lea	 ecx, DWORD PTR [eax+eax*2]
  000a0	03 c9		 add	 ecx, ecx
  000a2	83 7c cf 2c 00	 cmp	 DWORD PTR [edi+ecx*8+44], 0
  000a7	77 25		 ja	 SHORT $LN1@SkillSecon

; 2167 : 		{
; 2168 : 			this->m_FloorData[lpObj->m_iIllusionTempleIndex].m_dwRestrictionSpellTime = 0;

  000a9	8d 14 40	 lea	 edx, DWORD PTR [eax+eax*2]
  000ac	03 d2		 add	 edx, edx

; 2169 : 			gObjRemoveBuffEffect(lpObj, AT_ILLUSION_RESTRICTION_SPELL); //season 3.0 add-on

  000ae	6a 41		 push	 65			; 00000041H
  000b0	56		 push	 esi
  000b1	c7 44 d7 2c 00
	00 00 00	 mov	 DWORD PTR [edi+edx*8+44], 0
  000b9	e8 00 00 00 00	 call	 ?gObjRemoveBuffEffect@@YAEPAUOBJECTSTRUCT@@H@Z ; gObjRemoveBuffEffect
  000be	83 c4 08	 add	 esp, 8

; 2170 : 			this->GCIllusionTempleSkillCancel(lpObj, 211);

  000c1	68 d3 00 00 00	 push	 211			; 000000d3H
  000c6	56		 push	 esi
  000c7	8b cf		 mov	 ecx, edi
  000c9	e8 00 00 00 00	 call	 ?GCIllusionTempleSkillCancel@CIllusionTempleProcess@@QAEXPAUOBJECTSTRUCT@@G@Z ; CIllusionTempleProcess::GCIllusionTempleSkillCancel
$LN1@SkillSecon:
  000ce	5f		 pop	 edi
  000cf	5e		 pop	 esi

; 2171 : 		}
; 2172 : 	}
; 2173 : }

  000d0	5d		 pop	 ebp
  000d1	c2 04 00	 ret	 4
?SkillSecondProc@CIllusionTempleProcess@@QAEXPAUOBJECTSTRUCT@@@Z ENDP ; CIllusionTempleProcess::SkillSecondProc
_TEXT	ENDS
PUBLIC	?PursuitSpell@CIllusionTempleProcess@@QAEHPAUOBJECTSTRUCT@@@Z ; CIllusionTempleProcess::PursuitSpell
EXTRN	?gObjTeleportMagicUse@@YAXHEE@Z:PROC		; gObjTeleportMagicUse
EXTRN	?gObjCheckTeleportArea@@YAHHEE@Z:PROC		; gObjCheckTeleportArea
EXTRN	?gObjSearchActiveEffect@@YAEPAUOBJECTSTRUCT@@H@Z:PROC ; gObjSearchActiveEffect
; Function compile flags: /Ogtp
;	COMDAT ?PursuitSpell@CIllusionTempleProcess@@QAEHPAUOBJECTSTRUCT@@@Z
_TEXT	SEGMENT
_loc5$ = -4						; size = 4
_lpObj$ = 8						; size = 4
?PursuitSpell@CIllusionTempleProcess@@QAEHPAUOBJECTSTRUCT@@@Z PROC ; CIllusionTempleProcess::PursuitSpell, COMDAT
; _this$ = ecx

; 2216 : {

  00000	55		 push	 ebp
  00001	8b ec		 mov	 ebp, esp
  00003	51		 push	 ecx
  00004	53		 push	 ebx

; 2217 : 	int loc2;
; 2218 : 
; 2219 : 	if(gObjSearchActiveEffect(lpObj, AT_STUN) == TRUE) //season 3.0 add-on

  00005	8b 5d 08	 mov	 ebx, DWORD PTR _lpObj$[ebp]
  00008	57		 push	 edi
  00009	6a 3d		 push	 61			; 0000003dH
  0000b	53		 push	 ebx
  0000c	8b f9		 mov	 edi, ecx
  0000e	e8 00 00 00 00	 call	 ?gObjSearchActiveEffect@@YAEPAUOBJECTSTRUCT@@H@Z ; gObjSearchActiveEffect
  00013	83 c4 08	 add	 esp, 8
  00016	3c 01		 cmp	 al, 1
  00018	75 1c		 jne	 SHORT $LN8@PursuitSpe
$LN17@PursuitSpe:

; 2220 : 	{
; 2221 : 		this->GCIllusionTempleSkillApply(lpObj->m_Index, lpObj->m_Index, 212, 0);

  0001a	8b 1b		 mov	 ebx, DWORD PTR [ebx]
  0001c	6a 00		 push	 0
  0001e	68 d4 00 00 00	 push	 212			; 000000d4H
  00023	53		 push	 ebx
  00024	53		 push	 ebx
  00025	8b cf		 mov	 ecx, edi
  00027	e8 00 00 00 00	 call	 ?GCIllusionTempleSkillApply@CIllusionTempleProcess@@QAEXHHGE@Z ; CIllusionTempleProcess::GCIllusionTempleSkillApply
  0002c	5f		 pop	 edi

; 2222 : 		return FALSE;

  0002d	33 c0		 xor	 eax, eax
  0002f	5b		 pop	 ebx

; 2273 : }

  00030	8b e5		 mov	 esp, ebp
  00032	5d		 pop	 ebp
  00033	c2 04 00	 ret	 4
$LN8@PursuitSpe:

; 2223 : 	}
; 2224 : 
; 2225 : 	if(gObjSearchActiveEffect(lpObj, AT_SLEEP) == TRUE) //season 3.0 add-on

  00036	6a 48		 push	 72			; 00000048H
  00038	53		 push	 ebx
  00039	e8 00 00 00 00	 call	 ?gObjSearchActiveEffect@@YAEPAUOBJECTSTRUCT@@H@Z ; gObjSearchActiveEffect
  0003e	83 c4 08	 add	 esp, 8
  00041	3c 01		 cmp	 al, 1

; 2226 : 	{
; 2227 : 		this->GCIllusionTempleSkillApply(lpObj->m_Index, lpObj->m_Index, 212, 0);
; 2228 : 		return FALSE;

  00043	74 d5		 je	 SHORT $LN17@PursuitSpe

; 2229 : 	}
; 2230 : 
; 2231 : 	loc2 = this->m_iBallPlayerIndex;

  00045	56		 push	 esi
  00046	8b b7 b8 03 00
	00		 mov	 esi, DWORD PTR [edi+952]

; 2232 : 
; 2233 : 	if(loc2 == -1)
; 2234 : 	{
; 2235 : 		this->GCIllusionTempleSkillApply(lpObj->m_Index, lpObj->m_Index, 212, 0);

  0004c	8b cf		 mov	 ecx, edi
  0004e	83 fe ff	 cmp	 esi, -1
  00051	75 1b		 jne	 SHORT $LN6@PursuitSpe
  00053	8b 1b		 mov	 ebx, DWORD PTR [ebx]
  00055	6a 00		 push	 0
  00057	68 d4 00 00 00	 push	 212			; 000000d4H
  0005c	53		 push	 ebx
  0005d	53		 push	 ebx
  0005e	e8 00 00 00 00	 call	 ?GCIllusionTempleSkillApply@CIllusionTempleProcess@@QAEXHHGE@Z ; CIllusionTempleProcess::GCIllusionTempleSkillApply
  00063	5e		 pop	 esi
  00064	5f		 pop	 edi

; 2236 : 		return FALSE;

  00065	33 c0		 xor	 eax, eax
  00067	5b		 pop	 ebx

; 2273 : }

  00068	8b e5		 mov	 esp, ebp
  0006a	5d		 pop	 ebp
  0006b	c2 04 00	 ret	 4
$LN6@PursuitSpe:

; 2237 : 	}
; 2238 : 
; 2239 : 	if(loc2 == lpObj->m_Index)

  0006e	8b 03		 mov	 eax, DWORD PTR [ebx]
  00070	3b f0		 cmp	 esi, eax
  00072	75 19		 jne	 SHORT $LN5@PursuitSpe

; 2240 : 	{
; 2241 : 		this->GCIllusionTempleSkillApply(lpObj->m_Index, lpObj->m_Index, 212, 0);

  00074	6a 00		 push	 0
  00076	68 d4 00 00 00	 push	 212			; 000000d4H
  0007b	50		 push	 eax
  0007c	50		 push	 eax
  0007d	e8 00 00 00 00	 call	 ?GCIllusionTempleSkillApply@CIllusionTempleProcess@@QAEXHHGE@Z ; CIllusionTempleProcess::GCIllusionTempleSkillApply
  00082	5e		 pop	 esi
  00083	5f		 pop	 edi

; 2242 : 		return FALSE;

  00084	33 c0		 xor	 eax, eax
  00086	5b		 pop	 ebx

; 2273 : }

  00087	8b e5		 mov	 esp, ebp
  00089	5d		 pop	 ebp
  0008a	c2 04 00	 ret	 4
$LN5@PursuitSpe:

; 2243 : 	}
; 2244 : 
; 2245 : 	this->GCIllusionTempleSkillApply(lpObj->m_Index, lpObj->m_Index, 212, 1);

  0008d	6a 01		 push	 1
  0008f	68 d4 00 00 00	 push	 212			; 000000d4H
  00094	50		 push	 eax
  00095	50		 push	 eax
  00096	e8 00 00 00 00	 call	 ?GCIllusionTempleSkillApply@CIllusionTempleProcess@@QAEXHHGE@Z ; CIllusionTempleProcess::GCIllusionTempleSkillApply
  0009b	69 f6 50 2b 00
	00		 imul	 esi, 11088		; 00002b50H

; 2246 : 
; 2247 : 	int loc3 = 0;
; 2248 : 	int loc4 = 0;
; 2249 : 	int loc5 = 50; //ebp14

  000a1	c7 45 fc 32 00
	00 00		 mov	 DWORD PTR _loc5$[ebp], 50 ; 00000032H
$LL4@PursuitSpe:

; 2250 : 	int loc6 = 0;
; 2251 : 
; 2252 : 	while(loc5-- != 0)

  000a8	ff 4d fc	 dec	 DWORD PTR _loc5$[ebp]

; 2253 : 	{
; 2254 : 		loc3 = gObj[loc2].X + rand()%3 - 1;

  000ab	e8 00 00 00 00	 call	 _rand
  000b0	99		 cdq
  000b1	b9 03 00 00 00	 mov	 ecx, 3
  000b6	f7 f9		 idiv	 ecx
  000b8	a1 00 00 00 00	 mov	 eax, DWORD PTR ?gObj@@3PAUOBJECTSTRUCT@@A ; gObj
  000bd	0f bf 8c 06 44
	01 00 00	 movsx	 ecx, WORD PTR [esi+eax+324]
  000c5	8d 7c 0a ff	 lea	 edi, DWORD PTR [edx+ecx-1]

; 2255 : 		loc4 = gObj[loc2].Y + rand()%3 - 1;

  000c9	e8 00 00 00 00	 call	 _rand
  000ce	99		 cdq
  000cf	b9 03 00 00 00	 mov	 ecx, 3
  000d4	f7 f9		 idiv	 ecx
  000d6	a1 00 00 00 00	 mov	 eax, DWORD PTR ?gObj@@3PAUOBJECTSTRUCT@@A ; gObj
  000db	0f bf 8c 06 46
	01 00 00	 movsx	 ecx, WORD PTR [esi+eax+326]
  000e3	8d 5c 0a ff	 lea	 ebx, DWORD PTR [edx+ecx-1]

; 2256 : 
; 2257 : 		if(gObjCheckTeleportArea(lpObj->m_Index,loc3,loc4))

  000e7	8b 55 08	 mov	 edx, DWORD PTR _lpObj$[ebp]
  000ea	8b 02		 mov	 eax, DWORD PTR [edx]
  000ec	53		 push	 ebx
  000ed	57		 push	 edi
  000ee	50		 push	 eax
  000ef	e8 00 00 00 00	 call	 ?gObjCheckTeleportArea@@YAHHEE@Z ; gObjCheckTeleportArea
  000f4	83 c4 0c	 add	 esp, 12			; 0000000cH
  000f7	85 c0		 test	 eax, eax
  000f9	75 1a		 jne	 SHORT $LN1@PursuitSpe

; 2250 : 	int loc6 = 0;
; 2251 : 
; 2252 : 	while(loc5-- != 0)

  000fb	39 45 fc	 cmp	 DWORD PTR _loc5$[ebp], eax
  000fe	75 a8		 jne	 SHORT $LL4@PursuitSpe

; 2258 : 		{
; 2259 : 			loc6 = 1;
; 2260 : 			break;
; 2261 : 		}
; 2262 : 	}
; 2263 : 
; 2264 : 	if(loc6 == 0)
; 2265 : 	{
; 2266 : 		loc3 = gObj[loc2].X;

  00100	a1 00 00 00 00	 mov	 eax, DWORD PTR ?gObj@@3PAUOBJECTSTRUCT@@A ; gObj
  00105	0f bf bc 06 44
	01 00 00	 movsx	 edi, WORD PTR [esi+eax+324]

; 2267 : 		loc4 = gObj[loc2].Y;

  0010d	0f bf 9c 06 46
	01 00 00	 movsx	 ebx, WORD PTR [esi+eax+326]
$LN1@PursuitSpe:

; 2268 : 	}
; 2269 : 
; 2270 : 	gObjTeleportMagicUse(lpObj->m_Index,loc3,loc4);

  00115	8b 4d 08	 mov	 ecx, DWORD PTR _lpObj$[ebp]
  00118	8b 11		 mov	 edx, DWORD PTR [ecx]
  0011a	53		 push	 ebx
  0011b	57		 push	 edi
  0011c	52		 push	 edx
  0011d	e8 00 00 00 00	 call	 ?gObjTeleportMagicUse@@YAXHEE@Z ; gObjTeleportMagicUse
  00122	83 c4 0c	 add	 esp, 12			; 0000000cH
  00125	5e		 pop	 esi
  00126	5f		 pop	 edi

; 2271 : 
; 2272 : 	return TRUE;

  00127	b8 01 00 00 00	 mov	 eax, 1
  0012c	5b		 pop	 ebx

; 2273 : }

  0012d	8b e5		 mov	 esp, ebp
  0012f	5d		 pop	 ebp
  00130	c2 04 00	 ret	 4
?PursuitSpell@CIllusionTempleProcess@@QAEHPAUOBJECTSTRUCT@@@Z ENDP ; CIllusionTempleProcess::PursuitSpell
_TEXT	ENDS
PUBLIC	??_C@_0DM@JLNJCFEN@?$FLIllusion?5Temple?$FN?5?$CI?$CFd?$CJ?5Result?5?$CIW@ ; `string'
PUBLIC	__$ArrayPad$
PUBLIC	?CalcSendRewardEXP@CIllusionTempleProcess@@QAEXXZ ; CIllusionTempleProcess::CalcSendRewardEXP
EXTRN	?DataSendEventChip@@YAXPADH@Z:PROC		; DataSendEventChip
EXTRN	?gGameServerCode@@3FA:WORD			; gGameServerCode
EXTRN	?g_iSaveIllusionTempleRankingPoint@@3HA:DWORD	; g_iSaveIllusionTempleRankingPoint
EXTRN	?GCKillPlayerExtSend@@YAXHH_JHH@Z:PROC		; GCKillPlayerExtSend
EXTRN	?CheckIsMasterLevelCharacter@CMasterLevelSystem@@QAEHPAUOBJECTSTRUCT@@@Z:PROC ; CMasterLevelSystem::CheckIsMasterLevelCharacter
EXTRN	?GetCount@PartyClass@@QAEHH@Z:PROC		; PartyClass::GetCount
EXTRN	?gObjUserSetExp@@YAXPAUOBJECTSTRUCT@@AA_J@Z:PROC ; gObjUserSetExp
EXTRN	?gObjSealUserSetExp@@YAXPAUOBJECTSTRUCT@@AA_JH@Z:PROC ; gObjSealUserSetExp
EXTRN	?g_iIllusionTempleRewardPercent@@3HA:DWORD	; g_iIllusionTempleRewardPercent
EXTRN	?g_iIllusionTempleRewardPercentMaster@@3HA:DWORD ; g_iIllusionTempleRewardPercentMaster
EXTRN	?g_iIllusionTempleMinUseSkillCnt@@3HA:DWORD	; g_iIllusionTempleMinUseSkillCnt
EXTRN	_memset:PROC
EXTRN	__alldiv:PROC
EXTRN	__allmul:PROC
;	COMDAT ??_C@_0DM@JLNJCFEN@?$FLIllusion?5Temple?$FN?5?$CI?$CFd?$CJ?5Result?5?$CIW@
CONST	SEGMENT
??_C@_0DM@JLNJCFEN@?$FLIllusion?5Temple?$FN?5?$CI?$CFd?$CJ?5Result?5?$CIW@ DB '['
	DB	'Illusion Temple] (%d) Result (WinTeam: %d)(Score:[%d][%d])', 00H ; `string'
; Function compile flags: /Ogtp
CONST	ENDS
;	COMDAT ?CalcSendRewardEXP@CIllusionTempleProcess@@QAEXXZ
_TEXT	SEGMENT
_loc3$ = -80						; size = 4
_loc2$ = -76						; size = 4
tv1270 = -72						; size = 4
_iIndex$216811 = -72					; size = 4
_iPartyCount$216803 = -72				; size = 4
tv683 = -68						; size = 4
tv615 = -68						; size = 4
tv597 = -68						; size = 4
tv1261 = -61						; size = 1
_RankMsg$216821 = -60					; size = 56
__$ArrayPad$ = -4					; size = 4
?CalcSendRewardEXP@CIllusionTempleProcess@@QAEXXZ PROC	; CIllusionTempleProcess::CalcSendRewardEXP, COMDAT
; _this$ = ecx

; 2348 : {

  00000	55		 push	 ebp
  00001	8b ec		 mov	 ebp, esp
  00003	83 ec 50	 sub	 esp, 80			; 00000050H
  00006	a1 00 00 00 00	 mov	 eax, DWORD PTR ___security_cookie
  0000b	33 c5		 xor	 eax, ebp
  0000d	89 45 fc	 mov	 DWORD PTR __$ArrayPad$[ebp], eax
  00010	53		 push	 ebx
  00011	56		 push	 esi
  00012	57		 push	 edi
  00013	8b f9		 mov	 edi, ecx

; 2349 : 	this->RemoveInvalid();

  00015	e8 00 00 00 00	 call	 ?RemoveInvalid@CIllusionTempleProcess@@QAEXXZ ; CIllusionTempleProcess::RemoveInvalid

; 2350 : 
; 2351 : 	int loc2 = 0;
; 2352 : 	int loc3 = 0;
; 2353 : 
; 2354 : 	if(this->m_btYellowTeamScore >= 2 && this->m_btYellowTeamScore > this->m_btBlueTeamScore) //Yellow

  0001a	8a 9f d0 03 00
	00		 mov	 bl, BYTE PTR [edi+976]
  00020	80 fb 02	 cmp	 bl, 2
  00023	72 56		 jb	 SHORT $LN36@CalcSendRe
  00025	8a 8f d1 03 00
	00		 mov	 cl, BYTE PTR [edi+977]
  0002b	3a d9		 cmp	 bl, cl
  0002d	76 4c		 jbe	 SHORT $LN36@CalcSendRe

; 2355 : 	{
; 2356 : 		this->m_btWinnerTeam = 0;
; 2357 : 
; 2358 : 		loc2 = (g_IllusionTemple_Default_Exp[this->m_btFloorIndex]+((this->m_btYellowTeamScore-this->m_btBlueTeamScore)*g_IllusionTemple_unk0[this->m_btFloorIndex])) * 2;

  0002f	0f b6 87 2c 02
	00 00		 movzx	 eax, BYTE PTR [edi+556]
  00036	0f b6 db	 movzx	 ebx, bl
  00039	0f b6 d1	 movzx	 edx, cl
  0003c	2b da		 sub	 ebx, edx
  0003e	c6 87 d2 03 00
	00 00		 mov	 BYTE PTR [edi+978], 0
  00045	8b 34 85 00 00
	00 00		 mov	 esi, DWORD PTR _g_IllusionTemple_unk0[eax*4]
  0004c	8b 14 85 00 00
	00 00		 mov	 edx, DWORD PTR _g_IllusionTemple_Default_Exp[eax*4]
  00053	0f af de	 imul	 ebx, esi
  00056	03 da		 add	 ebx, edx
  00058	03 db		 add	 ebx, ebx
  0005a	89 5d b4	 mov	 DWORD PTR _loc2$[ebp], ebx

; 2359 : 
; 2360 : 		if(this->m_btBlueTeamScore == 0)

  0005d	84 c9		 test	 cl, cl
  0005f	75 08		 jne	 SHORT $LN35@CalcSendRe

; 2361 : 		{
; 2362 : 			loc3 = g_IllusionTemple_Default_Exp[this->m_btFloorIndex];

  00061	89 55 b0	 mov	 DWORD PTR _loc3$[ebp], edx

; 2363 : 		}
; 2364 : 		else

  00064	e9 a8 00 00 00	 jmp	 $LN25@CalcSendRe
$LN35@CalcSendRe:

; 2365 : 		{
; 2366 : 			loc3 = g_IllusionTemple_Default_Exp[this->m_btFloorIndex]+(this->m_btBlueTeamScore*g_IllusionTemple_unk0[this->m_btFloorIndex]);

  00069	0f b6 d1	 movzx	 edx, cl
  0006c	0f af f2	 imul	 esi, edx
  0006f	03 34 85 00 00
	00 00		 add	 esi, DWORD PTR _g_IllusionTemple_Default_Exp[eax*4]

; 2367 : 		}

  00076	e9 93 00 00 00	 jmp	 $LN50@CalcSendRe
$LN36@CalcSendRe:

; 2368 : 
; 2369 : 	}
; 2370 : 	else if(this->m_btBlueTeamScore >= 2 && this->m_btYellowTeamScore < this->m_btBlueTeamScore) //Blue

  0007b	8a 8f d1 03 00
	00		 mov	 cl, BYTE PTR [edi+977]
  00081	80 f9 02	 cmp	 cl, 2
  00084	72 49		 jb	 SHORT $LN32@CalcSendRe
  00086	3a d9		 cmp	 bl, cl
  00088	73 45		 jae	 SHORT $LN32@CalcSendRe

; 2371 : 	{
; 2372 : 		this->m_btWinnerTeam = 1;
; 2373 : 
; 2374 : 		loc3 = (g_IllusionTemple_Default_Exp[this->m_btFloorIndex]+((this->m_btBlueTeamScore-this->m_btYellowTeamScore)*g_IllusionTemple_unk0[this->m_btFloorIndex])) * 2;

  0008a	0f b6 87 2c 02
	00 00		 movzx	 eax, BYTE PTR [edi+556]
  00091	0f b6 db	 movzx	 ebx, bl
  00094	0f b6 d1	 movzx	 edx, cl
  00097	2b d3		 sub	 edx, ebx
  00099	c6 87 d2 03 00
	00 01		 mov	 BYTE PTR [edi+978], 1
  000a0	8b 34 85 00 00
	00 00		 mov	 esi, DWORD PTR _g_IllusionTemple_unk0[eax*4]
  000a7	0f af d6	 imul	 edx, esi
  000aa	89 5d bc	 mov	 DWORD PTR tv683[ebp], ebx
  000ad	8b 1c 85 00 00
	00 00		 mov	 ebx, DWORD PTR _g_IllusionTemple_Default_Exp[eax*4]
  000b4	03 d3		 add	 edx, ebx
  000b6	03 d2		 add	 edx, edx
  000b8	89 55 b0	 mov	 DWORD PTR _loc3$[ebp], edx

; 2375 : 
; 2376 : 		if(this->m_btBlueTeamScore == 0) //Must be m_btYellowTeamScore

  000bb	84 c9		 test	 cl, cl
  000bd	75 05		 jne	 SHORT $LN31@CalcSendRe

; 2377 : 		{
; 2378 : 			loc2 = g_IllusionTemple_Default_Exp[this->m_btFloorIndex];

  000bf	89 5d b4	 mov	 DWORD PTR _loc2$[ebp], ebx

; 2379 : 
; 2380 : 		}
; 2381 : 		else

  000c2	eb 4d		 jmp	 SHORT $LN25@CalcSendRe
$LN31@CalcSendRe:

; 2382 : 		{
; 2383 : 			loc2 = g_IllusionTemple_Default_Exp[this->m_btFloorIndex]+(this->m_btYellowTeamScore*g_IllusionTemple_unk0[this->m_btFloorIndex]);

  000c4	0f af 75 bc	 imul	 esi, DWORD PTR tv683[ebp]
  000c8	03 de		 add	 ebx, esi
  000ca	89 5d b4	 mov	 DWORD PTR _loc2$[ebp], ebx

; 2384 : 		}
; 2385 : 
; 2386 : 	}
; 2387 : 	else

  000cd	eb 42		 jmp	 SHORT $LN25@CalcSendRe
$LN32@CalcSendRe:

; 2388 : 	{
; 2389 : 		if(this->m_btYellowTeamScore == 0)
; 2390 : 		{
; 2391 : 			loc2 = g_IllusionTemple_Default_Exp[this->m_btFloorIndex];

  000cf	0f b6 87 2c 02
	00 00		 movzx	 eax, BYTE PTR [edi+556]
  000d6	8b 14 85 00 00
	00 00		 mov	 edx, DWORD PTR _g_IllusionTemple_Default_Exp[eax*4]
  000dd	84 db		 test	 bl, bl
  000df	75 07		 jne	 SHORT $LN28@CalcSendRe
  000e1	8b da		 mov	 ebx, edx
  000e3	89 55 b4	 mov	 DWORD PTR _loc2$[ebp], edx

; 2392 : 		}
; 2393 : 		else

  000e6	eb 10		 jmp	 SHORT $LN27@CalcSendRe
$LN28@CalcSendRe:

; 2394 : 		{
; 2395 : 			loc2 = g_IllusionTemple_Default_Exp[this->m_btFloorIndex]+(this->m_btYellowTeamScore*g_IllusionTemple_unk0[this->m_btFloorIndex]);

  000e8	0f b6 db	 movzx	 ebx, bl
  000eb	0f af 1c 85 00
	00 00 00	 imul	 ebx, DWORD PTR _g_IllusionTemple_unk0[eax*4]
  000f3	03 da		 add	 ebx, edx
  000f5	89 5d b4	 mov	 DWORD PTR _loc2$[ebp], ebx
$LN27@CalcSendRe:

; 2396 : 		}
; 2397 : 
; 2398 : 		if(this->m_btBlueTeamScore == 0)

  000f8	84 c9		 test	 cl, cl
  000fa	75 05		 jne	 SHORT $LN26@CalcSendRe

; 2399 : 		{
; 2400 : 			loc3 = g_IllusionTemple_Default_Exp[this->m_btFloorIndex];

  000fc	89 55 b0	 mov	 DWORD PTR _loc3$[ebp], edx

; 2401 : 		}
; 2402 : 		else

  000ff	eb 10		 jmp	 SHORT $LN25@CalcSendRe
$LN26@CalcSendRe:

; 2403 : 		{
; 2404 : 			loc3 = g_IllusionTemple_Default_Exp[this->m_btFloorIndex]+(this->m_btBlueTeamScore*g_IllusionTemple_unk0[this->m_btFloorIndex]);

  00101	0f b6 f1	 movzx	 esi, cl
  00104	0f af 34 85 00
	00 00 00	 imul	 esi, DWORD PTR _g_IllusionTemple_unk0[eax*4]
  0010c	03 f2		 add	 esi, edx
$LN50@CalcSendRe:
  0010e	89 75 b0	 mov	 DWORD PTR _loc3$[ebp], esi
$LN25@CalcSendRe:

; 2405 : 		}
; 2406 : 	}
; 2407 : 
; 2408 : 	LogAddTD("[Illusion Temple] (%d) Result (WinTeam: %d)(Score:[%d][%d])", this->m_btFloorIndex+1, this->m_btWinnerTeam, this->m_btYellowTeamScore, this->m_btBlueTeamScore);

  00111	0f b6 97 d0 03
	00 00		 movzx	 edx, BYTE PTR [edi+976]
  00118	0f b6 c9	 movzx	 ecx, cl
  0011b	51		 push	 ecx
  0011c	0f b6 8f d2 03
	00 00		 movzx	 ecx, BYTE PTR [edi+978]
  00123	52		 push	 edx
  00124	51		 push	 ecx
  00125	40		 inc	 eax
  00126	50		 push	 eax
  00127	68 00 00 00 00	 push	 OFFSET ??_C@_0DM@JLNJCFEN@?$FLIllusion?5Temple?$FN?5?$CI?$CFd?$CJ?5Result?5?$CIW@
  0012c	ff 15 00 00 00
	00		 call	 DWORD PTR ?LogAddTD@@3P6AXPADZZA ; LogAddTD
  00132	83 c4 14	 add	 esp, 20			; 00000014H
  00135	8d 77 38	 lea	 esi, DWORD PTR [edi+56]
  00138	c7 45 bc 0a 00
	00 00		 mov	 DWORD PTR tv615[ebp], 10 ; 0000000aH
  0013f	90		 npad	 1
$LL24@CalcSendRe:

; 2413 : 	{
; 2414 : 		if(this->m_FloorData[i].m_btTeamJoinSide == (BYTE)-1)

  00140	8a 46 ec	 mov	 al, BYTE PTR [esi-20]
  00143	88 45 c3	 mov	 BYTE PTR tv1261[ebp], al
  00146	3c ff		 cmp	 al, 255			; 000000ffH
  00148	0f 84 87 01 00
	00		 je	 $LN23@CalcSendRe

; 2415 : 		{
; 2416 : 			continue;
; 2417 : 		}
; 2418 : 
; 2419 : 		if(this->m_FloorData[i].m_iTeamPlayerIndex != -1 && gObj[this->m_FloorData[i].m_iTeamPlayerIndex].Connected > PLAYER_LOGGED && gObj[this->m_FloorData[i].m_iTeamPlayerIndex].MapNumber == this->m_btFloorIndex+MAP_INDEX_ILLUSIONTEMPLE &&	this->m_FloorData[i].m_btUsedKillCountPoint >= g_iIllusionTempleMinUseSkillCnt)

  0014e	8b 4e e8	 mov	 ecx, DWORD PTR [esi-24]
  00151	83 f9 ff	 cmp	 ecx, -1
  00154	0f 84 7b 01 00
	00		 je	 $LN23@CalcSendRe
  0015a	a1 00 00 00 00	 mov	 eax, DWORD PTR ?gObj@@3PAUOBJECTSTRUCT@@A ; gObj
  0015f	69 c9 50 2b 00
	00		 imul	 ecx, 11088		; 00002b50H
  00165	83 7c 01 04 02	 cmp	 DWORD PTR [ecx+eax+4], 2
  0016a	89 4d b8	 mov	 DWORD PTR tv1270[ebp], ecx
  0016d	0f 8e 62 01 00
	00		 jle	 $LN23@CalcSendRe
  00173	0f b6 94 01 49
	01 00 00	 movzx	 edx, BYTE PTR [ecx+eax+329]
  0017b	0f b6 87 2c 02
	00 00		 movzx	 eax, BYTE PTR [edi+556]
  00182	83 c0 2d	 add	 eax, 45			; 0000002dH
  00185	3b d0		 cmp	 edx, eax
  00187	0f 85 48 01 00
	00		 jne	 $LN23@CalcSendRe
  0018d	0f b6 56 fb	 movzx	 edx, BYTE PTR [esi-5]
  00191	3b 15 00 00 00
	00		 cmp	 edx, DWORD PTR ?g_iIllusionTempleMinUseSkillCnt@@3HA ; g_iIllusionTempleMinUseSkillCnt
  00197	0f 8c 38 01 00
	00		 jl	 $LN23@CalcSendRe

; 2420 : 		{
; 2421 : 			switch(this->m_FloorData[i].m_btTeamJoinSide)

  0019d	0f b6 45 c3	 movzx	 eax, BYTE PTR tv1261[ebp]
  001a1	83 e8 00	 sub	 eax, 0
  001a4	74 08		 je	 SHORT $LN17@CalcSendRe
  001a6	48		 dec	 eax
  001a7	75 0d		 jne	 SHORT $LN47@CalcSendRe

; 2425 : 					break;
; 2426 : 
; 2427 : 				case 1:
; 2428 : 					this->m_FloorData[i].m_i64ExpReward = loc3;

  001a9	8b 45 b0	 mov	 eax, DWORD PTR _loc3$[ebp]

; 2429 : 					break;

  001ac	eb 02		 jmp	 SHORT $LN51@CalcSendRe
$LN17@CalcSendRe:

; 2422 : 			{
; 2423 : 				case 0:
; 2424 : 					this->m_FloorData[i].m_i64ExpReward = loc2;

  001ae	8b c3		 mov	 eax, ebx
$LN51@CalcSendRe:
  001b0	99		 cdq
  001b1	89 56 04	 mov	 DWORD PTR [esi+4], edx
  001b4	89 06		 mov	 DWORD PTR [esi], eax
$LN47@CalcSendRe:

; 2430 : 			}
; 2431 : 
; 2432 : 			if(gObj[this->m_FloorData[i].m_iTeamPlayerIndex].ChangeUP3rd != 0) //season4 add-on

  001b6	a1 00 00 00 00	 mov	 eax, DWORD PTR ?gObj@@3PAUOBJECTSTRUCT@@A ; gObj
  001bb	80 bc 01 bc 00
	00 00 00	 cmp	 BYTE PTR [ecx+eax+188], 0

; 2433 : 			{
; 2434 : 				this->m_FloorData[i].m_i64ExpReward = this->m_FloorData[i].m_i64ExpReward*g_iIllusionTempleRewardPercentMaster/100;

  001c3	8b 4e 04	 mov	 ecx, DWORD PTR [esi+4]
  001c6	a1 00 00 00 00	 mov	 eax, DWORD PTR ?g_iIllusionTempleRewardPercentMaster@@3HA ; g_iIllusionTempleRewardPercentMaster
  001cb	51		 push	 ecx
  001cc	8b 0e		 mov	 ecx, DWORD PTR [esi]
  001ce	51		 push	 ecx
  001cf	75 05		 jne	 SHORT $LN52@CalcSendRe

; 2435 : 			}
; 2436 : 			else
; 2437 : 			{
; 2438 : 				this->m_FloorData[i].m_i64ExpReward = this->m_FloorData[i].m_i64ExpReward*g_iIllusionTempleRewardPercent/100;

  001d1	a1 00 00 00 00	 mov	 eax, DWORD PTR ?g_iIllusionTempleRewardPercent@@3HA ; g_iIllusionTempleRewardPercent
$LN52@CalcSendRe:
  001d6	99		 cdq
  001d7	52		 push	 edx
  001d8	50		 push	 eax
  001d9	e8 00 00 00 00	 call	 __allmul
  001de	6a 00		 push	 0
  001e0	6a 64		 push	 100			; 00000064H
  001e2	52		 push	 edx
  001e3	50		 push	 eax
  001e4	e8 00 00 00 00	 call	 __alldiv
  001e9	89 06		 mov	 DWORD PTR [esi], eax

; 2439 : 			}
; 2440 : 
; 2441 : 			gObjSealUserSetExp(&gObj[this->m_FloorData[i].m_iTeamPlayerIndex], this->m_FloorData[i].m_i64ExpReward, TRUE); //Seal Exp

  001eb	8b 45 b8	 mov	 eax, DWORD PTR tv1270[ebp]
  001ee	89 56 04	 mov	 DWORD PTR [esi+4], edx
  001f1	03 05 00 00 00
	00		 add	 eax, DWORD PTR ?gObj@@3PAUOBJECTSTRUCT@@A ; gObj
  001f7	6a 01		 push	 1
  001f9	56		 push	 esi
  001fa	50		 push	 eax
  001fb	e8 00 00 00 00	 call	 ?gObjSealUserSetExp@@YAXPAUOBJECTSTRUCT@@AA_JH@Z ; gObjSealUserSetExp

; 2442 : 			gObjUserSetExp(&gObj[this->m_FloorData[i].m_iTeamPlayerIndex],this->m_FloorData[i].m_i64ExpReward);	//Panda Use

  00200	8b 4e e8	 mov	 ecx, DWORD PTR [esi-24]
  00203	69 c9 50 2b 00
	00		 imul	 ecx, 11088		; 00002b50H
  00209	03 0d 00 00 00
	00		 add	 ecx, DWORD PTR ?gObj@@3PAUOBJECTSTRUCT@@A ; gObj
  0020f	56		 push	 esi
  00210	51		 push	 ecx
  00211	e8 00 00 00 00	 call	 ?gObjUserSetExp@@YAXPAUOBJECTSTRUCT@@AA_J@Z ; gObjUserSetExp

; 2443 : 
; 2444 : 			int iPartyCount = 0; //loc5
; 2445 : 
; 2446 : 			if(gObj[this->m_FloorData[i].m_iTeamPlayerIndex].PartyNumber >= 0)

  00216	8b 56 e8	 mov	 edx, DWORD PTR [esi-24]
  00219	a1 00 00 00 00	 mov	 eax, DWORD PTR ?gObj@@3PAUOBJECTSTRUCT@@A ; gObj
  0021e	69 d2 50 2b 00
	00		 imul	 edx, 11088		; 00002b50H
  00224	8b 84 02 2c 04
	00 00		 mov	 eax, DWORD PTR [edx+eax+1068]
  0022b	83 c4 14	 add	 esp, 20			; 00000014H
  0022e	85 c0		 test	 eax, eax
  00230	78 10		 js	 SHORT $LN13@CalcSendRe

; 2447 : 			{
; 2448 : 				iPartyCount = gParty.GetCount(gObj[this->m_FloorData[i].m_iTeamPlayerIndex].PartyNumber);

  00232	50		 push	 eax
  00233	b9 00 00 00 00	 mov	 ecx, OFFSET ?gParty@@3VPartyClass@@A ; gParty
  00238	e8 00 00 00 00	 call	 ?GetCount@PartyClass@@QAEHH@Z ; PartyClass::GetCount
  0023d	89 45 b8	 mov	 DWORD PTR _iPartyCount$216803[ebp], eax

; 2449 : 			}
; 2450 : 			else

  00240	eb 07		 jmp	 SHORT $LN12@CalcSendRe
$LN13@CalcSendRe:

; 2451 : 			{
; 2452 : 				iPartyCount = 1;

  00242	c7 45 b8 01 00
	00 00		 mov	 DWORD PTR _iPartyCount$216803[ebp], 1
$LN12@CalcSendRe:

; 2453 : 			}
; 2454 : 
; 2455 : 			this->m_FloorData[i].m_dwRankingPoint = ( this->m_FloorData[i].m_i64ExpReward + ( this->m_FloorData[i].m_btUserKillCount * g_IllusionTemple_unk1[this->m_btFloorIndex] ) + ( this->m_FloorData[i].m_btPlayerRewardKillCount * g_IllusionTemple_unk2[this->m_btFloorIndex] ) + g_IllusionTemple_Team_Players[iPartyCount] );

  00249	0f b6 8f 2c 02
	00 00		 movzx	 ecx, BYTE PTR [edi+556]
  00250	0f b6 46 fa	 movzx	 eax, BYTE PTR [esi-6]
  00254	0f b6 5e f8	 movzx	 ebx, BYTE PTR [esi-8]
  00258	8b 16		 mov	 edx, DWORD PTR [esi]
  0025a	03 c9		 add	 ecx, ecx
  0025c	0f af 84 09 00
	00 00 00	 imul	 eax, DWORD PTR _g_IllusionTemple_unk2[ecx+ecx]
  00264	0f af 9c 09 00
	00 00 00	 imul	 ebx, DWORD PTR _g_IllusionTemple_unk1[ecx+ecx]
  0026c	03 c9		 add	 ecx, ecx
  0026e	8b 4d b8	 mov	 ecx, DWORD PTR _iPartyCount$216803[ebp]
  00271	03 c3		 add	 eax, ebx
  00273	03 04 8d 00 00
	00 00		 add	 eax, DWORD PTR _g_IllusionTemple_Team_Players[ecx*4]

; 2456 : 
; 2457 : 			int loc6 = this->m_FloorData[i].m_i64ExpReward;
; 2458 : 			int loc7 = 0;

  0027a	33 db		 xor	 ebx, ebx
  0027c	03 c2		 add	 eax, edx
  0027e	89 46 08	 mov	 DWORD PTR [esi+8], eax
  00281	8b c2		 mov	 eax, edx

; 2459 : 
; 2460 : 			while(loc6 > 0)

  00283	85 c0		 test	 eax, eax
  00285	7e 12		 jle	 SHORT $LN10@CalcSendRe
$LL11@CalcSendRe:

; 2461 : 			{
; 2462 : 				loc7 = loc6;
; 2463 : 				loc6 = this->LevelUp(this->m_FloorData[i].m_iTeamPlayerIndex, loc6);

  00287	8b 56 e8	 mov	 edx, DWORD PTR [esi-24]
  0028a	50		 push	 eax
  0028b	52		 push	 edx
  0028c	8b cf		 mov	 ecx, edi
  0028e	8b d8		 mov	 ebx, eax
  00290	e8 00 00 00 00	 call	 ?LevelUp@CIllusionTempleProcess@@QAEHHH@Z ; CIllusionTempleProcess::LevelUp
  00295	85 c0		 test	 eax, eax
  00297	7f ee		 jg	 SHORT $LL11@CalcSendRe
$LN10@CalcSendRe:

; 2464 : 			}
; 2465 : 
; 2466 : 			int iIndex = this->m_FloorData[i].m_iTeamPlayerIndex;

  00299	8b 46 e8	 mov	 eax, DWORD PTR [esi-24]
  0029c	89 45 b8	 mov	 DWORD PTR _iIndex$216811[ebp], eax

; 2467 : 
; 2468 : 			if(g_MasterLevelSystem.CheckIsMasterLevelCharacter(&gObj[iIndex]) == FALSE)

  0029f	69 c0 50 2b 00
	00		 imul	 eax, 11088		; 00002b50H
  002a5	03 05 00 00 00
	00		 add	 eax, DWORD PTR ?gObj@@3PAUOBJECTSTRUCT@@A ; gObj
  002ab	b9 00 00 00 00	 mov	 ecx, OFFSET ?g_MasterLevelSystem@@3VCMasterLevelSystem@@A ; g_MasterLevelSystem
  002b0	50		 push	 eax
  002b1	e8 00 00 00 00	 call	 ?CheckIsMasterLevelCharacter@CMasterLevelSystem@@QAEHPAUOBJECTSTRUCT@@@Z ; CMasterLevelSystem::CheckIsMasterLevelCharacter
  002b6	85 c0		 test	 eax, eax
  002b8	75 18		 jne	 SHORT $LN45@CalcSendRe

; 2469 : 			{
; 2470 : 				GCKillPlayerExtSend(iIndex, (WORD)-1, loc7, 0, 0);

  002ba	50		 push	 eax
  002bb	50		 push	 eax
  002bc	8b c3		 mov	 eax, ebx
  002be	99		 cdq
  002bf	52		 push	 edx
  002c0	50		 push	 eax
  002c1	8b 45 b8	 mov	 eax, DWORD PTR _iIndex$216811[ebp]
  002c4	68 ff ff 00 00	 push	 65535			; 0000ffffH
  002c9	50		 push	 eax
  002ca	e8 00 00 00 00	 call	 ?GCKillPlayerExtSend@@YAXHH_JHH@Z ; GCKillPlayerExtSend
  002cf	83 c4 18	 add	 esp, 24			; 00000018H
$LN45@CalcSendRe:
  002d2	8b 5d b4	 mov	 ebx, DWORD PTR _loc2$[ebp]
$LN23@CalcSendRe:

; 2409 : 
; 2410 : 	int i; //loc4
; 2411 : 
; 2412 : 	for(i = 0;i < MAX_FLOOR_USER;i++)

  002d5	83 c6 30	 add	 esi, 48			; 00000030H
  002d8	ff 4d bc	 dec	 DWORD PTR tv615[ebp]
  002db	0f 85 5f fe ff
	ff		 jne	 $LL24@CalcSendRe

; 2471 : 			}
; 2472 : 		}
; 2473 : 	}
; 2474 : 
; 2475 : 	if(g_iSaveIllusionTempleRankingPoint != FALSE)

  002e1	83 3d 00 00 00
	00 00		 cmp	 DWORD PTR ?g_iSaveIllusionTempleRankingPoint@@3HA, 0 ; g_iSaveIllusionTempleRankingPoint
  002e8	0f 84 17 01 00
	00		 je	 $LN5@CalcSendRe

; 2476 : 	{
; 2477 : 		for(i = 0;i < MAX_FLOOR_USER;i++)

  002ee	8d 5f 20	 lea	 ebx, DWORD PTR [edi+32]
  002f1	c7 45 bc 0a 00
	00 00		 mov	 DWORD PTR tv597[ebp], 10 ; 0000000aH
  002f8	eb 06 8d 9b 00
	00 00 00	 npad	 8
$LL49@CalcSendRe:

; 2478 : 		{
; 2479 : 			if(this->m_FloorData[i].m_iTeamPlayerIndex != -1 && gObj[this->m_FloorData[i].m_iTeamPlayerIndex].Connected > PLAYER_LOGGED)

  00300	8b 33		 mov	 esi, DWORD PTR [ebx]
  00302	83 fe ff	 cmp	 esi, -1
  00305	0f 84 ee 00 00
	00		 je	 $LN6@CalcSendRe
  0030b	69 f6 50 2b 00
	00		 imul	 esi, 11088		; 00002b50H
  00311	03 35 00 00 00
	00		 add	 esi, DWORD PTR ?gObj@@3PAUOBJECTSTRUCT@@A ; gObj
  00317	83 7e 04 02	 cmp	 DWORD PTR [esi+4], 2
  0031b	0f 8e d8 00 00
	00		 jle	 $LN6@CalcSendRe

; 2480 : 			{
; 2481 : 				if(this->m_FloorData[i].m_btTeamJoinSide == (BYTE)-1)

  00321	80 7b 04 ff	 cmp	 BYTE PTR [ebx+4], 255	; 000000ffH
  00325	0f 84 ce 00 00
	00		 je	 $LN6@CalcSendRe

; 2482 : 				{
; 2483 : 					continue;
; 2484 : 				}
; 2485 : 
; 2486 : 				PMSG_ILLUSIONTEMPLE_RANKING_UPDATE RankMsg = {0}; //optimization

  0032b	6a 37		 push	 55			; 00000037H
  0032d	8d 55 c5	 lea	 edx, DWORD PTR _RankMsg$216821[ebp+1]
  00330	6a 00		 push	 0
  00332	52		 push	 edx
  00333	e8 00 00 00 00	 call	 _memset

; 2487 : 
; 2488 : 				RankMsg.h.c = 0xC1;
; 2489 : 				RankMsg.h.headcode = 0x26;
; 2490 : 				RankMsg.h.size = sizeof(RankMsg);
; 2491 : 
; 2492 : 				RankMsg.aIndex = this->m_FloorData[i].m_iTeamPlayerIndex;

  00338	0f b7 03	 movzx	 eax, WORD PTR [ebx]
  0033b	66 89 45 c8	 mov	 WORD PTR _RankMsg$216821[ebp+4], ax
  0033f	c6 45 c4 c1	 mov	 BYTE PTR _RankMsg$216821[ebp], 193 ; 000000c1H
  00343	66 c7 45 c5 38
	26		 mov	 WORD PTR _RankMsg$216821[ebp+1], 9784 ; 00002638H

; 2493 : 
; 2494 : 				memcpy(RankMsg.AccountID,gObj[this->m_FloorData[i].m_iTeamPlayerIndex].AccountID,10);

  00349	8b 4e 6c	 mov	 ecx, DWORD PTR [esi+108]
  0034c	89 4d ca	 mov	 DWORD PTR _RankMsg$216821[ebp+6], ecx
  0034f	8b 56 70	 mov	 edx, DWORD PTR [esi+112]
  00352	89 55 ce	 mov	 DWORD PTR _RankMsg$216821[ebp+10], edx
  00355	0f b7 46 74	 movzx	 eax, WORD PTR [esi+116]
  00359	66 89 45 d2	 mov	 WORD PTR _RankMsg$216821[ebp+14], ax

; 2495 : 
; 2496 : 				RankMsg.AccountID[11] = '\0';

  0035d	c6 45 d5 00	 mov	 BYTE PTR _RankMsg$216821[ebp+17], 0

; 2497 : 
; 2498 : 				memcpy(RankMsg.Name,gObj[this->m_FloorData[i].m_iTeamPlayerIndex].Name,10);

  00361	8b 4e 77	 mov	 ecx, DWORD PTR [esi+119]
  00364	89 4d d5	 mov	 DWORD PTR _RankMsg$216821[ebp+17], ecx
  00367	8b 56 7b	 mov	 edx, DWORD PTR [esi+123]

; 2499 : 
; 2500 : 				RankMsg.Name[11] = '\0';
; 2501 : 
; 2502 : 				RankMsg.ServerCode = gGameServerCode / 20;

  0036a	0f bf 0d 00 00
	00 00		 movsx	 ecx, WORD PTR ?gGameServerCode@@3FA ; gGameServerCode
  00371	89 55 d9	 mov	 DWORD PTR _RankMsg$216821[ebp+21], edx
  00374	0f b7 46 7f	 movzx	 eax, WORD PTR [esi+127]
  00378	66 89 45 dd	 mov	 WORD PTR _RankMsg$216821[ebp+25], ax
  0037c	b8 67 66 66 66	 mov	 eax, 1717986919		; 66666667H
  00381	f7 e9		 imul	 ecx

; 2503 : 
; 2504 : 				RankMsg.iIllusionIndex = this->m_btFloorIndex+1;
; 2505 : 
; 2506 : 				RankMsg.iDbClass = gObj[this->m_FloorData[i].m_iTeamPlayerIndex].DbClass;

  00383	8b 03		 mov	 eax, DWORD PTR [ebx]
  00385	c1 fa 03	 sar	 edx, 3
  00388	69 c0 50 2b 00
	00		 imul	 eax, 11088		; 00002b50H
  0038e	8b ca		 mov	 ecx, edx
  00390	c1 e9 1f	 shr	 ecx, 31			; 0000001fH
  00393	03 ca		 add	 ecx, edx
  00395	0f b6 97 2c 02
	00 00		 movzx	 edx, BYTE PTR [edi+556]
  0039c	66 89 4d e0	 mov	 WORD PTR _RankMsg$216821[ebp+28], cx
  003a0	8b 0d 00 00 00
	00		 mov	 ecx, DWORD PTR ?gObj@@3PAUOBJECTSTRUCT@@A ; gObj
  003a6	42		 inc	 edx
  003a7	89 55 e4	 mov	 DWORD PTR _RankMsg$216821[ebp+32], edx
  003aa	0f b6 94 08 ba
	00 00 00	 movzx	 edx, BYTE PTR [eax+ecx+186]
  003b2	89 55 e8	 mov	 DWORD PTR _RankMsg$216821[ebp+36], edx

; 2507 : 
; 2508 : 				RankMsg.iLevel = gObj[this->m_FloorData[i].m_iTeamPlayerIndex].Level;

  003b5	0f bf 84 08 be
	00 00 00	 movsx	 eax, WORD PTR [eax+ecx+190]
  003bd	89 45 ec	 mov	 DWORD PTR _RankMsg$216821[ebp+40], eax

; 2509 : 
; 2510 : 				if(this->m_btWinnerTeam == (BYTE)-1)

  003c0	8a 87 d2 03 00
	00		 mov	 al, BYTE PTR [edi+978]
  003c6	83 c4 0c	 add	 esp, 12			; 0000000cH
  003c9	3c ff		 cmp	 al, 255			; 000000ffH
  003cb	75 06		 jne	 SHORT $LN2@CalcSendRe

; 2511 : 				{
; 2512 : 					RankMsg.IsWinner = false;

  003cd	c6 45 f0 00	 mov	 BYTE PTR _RankMsg$216821[ebp+44], 0

; 2513 : 				}
; 2514 : 				else

  003d1	eb 09		 jmp	 SHORT $LN1@CalcSendRe
$LN2@CalcSendRe:

; 2515 : 				{
; 2516 : 					RankMsg.IsWinner = (this->m_FloorData[i].m_btTeamJoinSide == this->m_btWinnerTeam);

  003d3	38 43 04	 cmp	 BYTE PTR [ebx+4], al
  003d6	0f 94 c1	 sete	 cl
  003d9	88 4d f0	 mov	 BYTE PTR _RankMsg$216821[ebp+44], cl
$LN1@CalcSendRe:

; 2517 : 				}
; 2518 : 
; 2519 : 				RankMsg.RankingPoint = this->m_FloorData[i].m_dwRankingPoint;

  003dc	8b 53 20	 mov	 edx, DWORD PTR [ebx+32]
  003df	89 55 f8	 mov	 DWORD PTR _RankMsg$216821[ebp+52], edx

; 2520 : 			
; 2521 : 				RankMsg.iPcBang = gObj[this->m_FloorData[i].m_iTeamPlayerIndex].m_iPcBangRoom;

  003e2	8b 86 c4 1f 00
	00		 mov	 eax, DWORD PTR [esi+8132]

; 2522 : 
; 2523 : 				DataSendEventChip((char*)&RankMsg,sizeof(RankMsg));

  003e8	8d 4d c4	 lea	 ecx, DWORD PTR _RankMsg$216821[ebp]
  003eb	6a 38		 push	 56			; 00000038H
  003ed	51		 push	 ecx
  003ee	89 45 f4	 mov	 DWORD PTR _RankMsg$216821[ebp+48], eax
  003f1	e8 00 00 00 00	 call	 ?DataSendEventChip@@YAXPADH@Z ; DataSendEventChip
  003f6	83 c4 08	 add	 esp, 8
$LN6@CalcSendRe:

; 2476 : 	{
; 2477 : 		for(i = 0;i < MAX_FLOOR_USER;i++)

  003f9	83 c3 30	 add	 ebx, 48			; 00000030H
  003fc	ff 4d bc	 dec	 DWORD PTR tv597[ebp]
  003ff	0f 85 fb fe ff
	ff		 jne	 $LL49@CalcSendRe
$LN5@CalcSendRe:

; 2524 : 			}
; 2525 : 		}
; 2526 : 	}
; 2527 : }

  00405	8b 4d fc	 mov	 ecx, DWORD PTR __$ArrayPad$[ebp]
  00408	5f		 pop	 edi
  00409	5e		 pop	 esi
  0040a	33 cd		 xor	 ecx, ebp
  0040c	5b		 pop	 ebx
  0040d	e8 00 00 00 00	 call	 @__security_check_cookie@4
  00412	8b e5		 mov	 esp, ebp
  00414	5d		 pop	 ebp
  00415	c3		 ret	 0
?CalcSendRewardEXP@CIllusionTempleProcess@@QAEXXZ ENDP	; CIllusionTempleProcess::CalcSendRewardEXP
_TEXT	ENDS
PUBLIC	??E?$_List_iterator@V?$_List_val@UILLUSIONTEMPLE_START_TIME@@V?$allocator@UILLUSIONTEMPLE_START_TIME@@@std@@@std@@@std@@QAEAAV01@XZ ; std::_List_iterator<std::_List_val<ILLUSIONTEMPLE_START_TIME,std::allocator<ILLUSIONTEMPLE_START_TIME> > >::operator++
; Function compile flags: /Ogtp
; File d:\program files (x86)\microsoft visual studio 10.0\vc\include\list
;	COMDAT ??E?$_List_iterator@V?$_List_val@UILLUSIONTEMPLE_START_TIME@@V?$allocator@UILLUSIONTEMPLE_START_TIME@@@std@@@std@@@std@@QAEAAV01@XZ
_TEXT	SEGMENT
??E?$_List_iterator@V?$_List_val@UILLUSIONTEMPLE_START_TIME@@V?$allocator@UILLUSIONTEMPLE_START_TIME@@@std@@@std@@@std@@QAEAAV01@XZ PROC ; std::_List_iterator<std::_List_val<ILLUSIONTEMPLE_START_TIME,std::allocator<ILLUSIONTEMPLE_START_TIME> > >::operator++, COMDAT
; _this$ = ecx

; 369  : 		{	// preincrement

  00000	8b c1		 mov	 eax, ecx

; 370  : 		++(*(_Mybase *)this);

  00002	8b 08		 mov	 ecx, DWORD PTR [eax]
  00004	8b 11		 mov	 edx, DWORD PTR [ecx]
  00006	89 10		 mov	 DWORD PTR [eax], edx

; 371  : 		return (*this);
; 372  : 		}

  00008	c3		 ret	 0
??E?$_List_iterator@V?$_List_val@UILLUSIONTEMPLE_START_TIME@@V?$allocator@UILLUSIONTEMPLE_START_TIME@@@std@@@std@@@std@@QAEAAV01@XZ ENDP ; std::_List_iterator<std::_List_val<ILLUSIONTEMPLE_START_TIME,std::allocator<ILLUSIONTEMPLE_START_TIME> > >::operator++
_TEXT	ENDS
PUBLIC	??E?$_List_iterator@V?$_List_val@UILLUSIONTEMPLE_START_TIME@@V?$allocator@UILLUSIONTEMPLE_START_TIME@@@std@@@std@@@std@@QAE?AV01@H@Z ; std::_List_iterator<std::_List_val<ILLUSIONTEMPLE_START_TIME,std::allocator<ILLUSIONTEMPLE_START_TIME> > >::operator++
; Function compile flags: /Ogtp
;	COMDAT ??E?$_List_iterator@V?$_List_val@UILLUSIONTEMPLE_START_TIME@@V?$allocator@UILLUSIONTEMPLE_START_TIME@@@std@@@std@@@std@@QAE?AV01@H@Z
_TEXT	SEGMENT
___$ReturnUdt$ = 8					; size = 4
___formal$ = 12						; size = 4
??E?$_List_iterator@V?$_List_val@UILLUSIONTEMPLE_START_TIME@@V?$allocator@UILLUSIONTEMPLE_START_TIME@@@std@@@std@@@std@@QAE?AV01@H@Z PROC ; std::_List_iterator<std::_List_val<ILLUSIONTEMPLE_START_TIME,std::allocator<ILLUSIONTEMPLE_START_TIME> > >::operator++, COMDAT
; _this$ = ecx

; 375  : 		{	// postincrement

  00000	55		 push	 ebp
  00001	8b ec		 mov	 ebp, esp

; 376  : 		_Myiter _Tmp = *this;

  00003	8b 11		 mov	 edx, DWORD PTR [ecx]
  00005	8b 45 08	 mov	 eax, DWORD PTR ___$ReturnUdt$[ebp]
  00008	89 10		 mov	 DWORD PTR [eax], edx

; 377  : 		++*this;

  0000a	8b 12		 mov	 edx, DWORD PTR [edx]
  0000c	89 11		 mov	 DWORD PTR [ecx], edx

; 378  : 		return (_Tmp);
; 379  : 		}

  0000e	5d		 pop	 ebp
  0000f	c2 08 00	 ret	 8
??E?$_List_iterator@V?$_List_val@UILLUSIONTEMPLE_START_TIME@@V?$allocator@UILLUSIONTEMPLE_START_TIME@@@std@@@std@@@std@@QAE?AV01@H@Z ENDP ; std::_List_iterator<std::_List_val<ILLUSIONTEMPLE_START_TIME,std::allocator<ILLUSIONTEMPLE_START_TIME> > >::operator++
_TEXT	ENDS
PUBLIC	??1?$_List_val@UILLUSIONTEMPLE_START_TIME@@V?$allocator@UILLUSIONTEMPLE_START_TIME@@@std@@@std@@QAE@XZ ; std::_List_val<ILLUSIONTEMPLE_START_TIME,std::allocator<ILLUSIONTEMPLE_START_TIME> >::~_List_val<ILLUSIONTEMPLE_START_TIME,std::allocator<ILLUSIONTEMPLE_START_TIME> >
; Function compile flags: /Ogtp
;	COMDAT ??1?$_List_val@UILLUSIONTEMPLE_START_TIME@@V?$allocator@UILLUSIONTEMPLE_START_TIME@@@std@@@std@@QAE@XZ
_TEXT	SEGMENT
??1?$_List_val@UILLUSIONTEMPLE_START_TIME@@V?$allocator@UILLUSIONTEMPLE_START_TIME@@@std@@@std@@QAE@XZ PROC ; std::_List_val<ILLUSIONTEMPLE_START_TIME,std::allocator<ILLUSIONTEMPLE_START_TIME> >::~_List_val<ILLUSIONTEMPLE_START_TIME,std::allocator<ILLUSIONTEMPLE_START_TIME> >, COMDAT
; _this$ = ecx

; 502  : 		this->_Alnod.deallocate(this->_Myhead, 1);

  00000	8b 01		 mov	 eax, DWORD PTR [ecx]
  00002	50		 push	 eax
  00003	e8 00 00 00 00	 call	 ??3@YAXPAX@Z		; operator delete
  00008	59		 pop	 ecx

; 503  : 		}

  00009	c3		 ret	 0
??1?$_List_val@UILLUSIONTEMPLE_START_TIME@@V?$allocator@UILLUSIONTEMPLE_START_TIME@@@std@@@std@@QAE@XZ ENDP ; std::_List_val<ILLUSIONTEMPLE_START_TIME,std::allocator<ILLUSIONTEMPLE_START_TIME> >::~_List_val<ILLUSIONTEMPLE_START_TIME,std::allocator<ILLUSIONTEMPLE_START_TIME> >
_TEXT	ENDS
PUBLIC	??0?$_List_const_iterator@V?$_List_val@UILLUSIONTEMPLE_START_TIME@@V?$allocator@UILLUSIONTEMPLE_START_TIME@@@std@@@std@@@std@@QAE@XZ ; std::_List_const_iterator<std::_List_val<ILLUSIONTEMPLE_START_TIME,std::allocator<ILLUSIONTEMPLE_START_TIME> > >::_List_const_iterator<std::_List_val<ILLUSIONTEMPLE_START_TIME,std::allocator<ILLUSIONTEMPLE_START_TIME> > >
; Function compile flags: /Ogtp
;	COMDAT ??0?$_List_const_iterator@V?$_List_val@UILLUSIONTEMPLE_START_TIME@@V?$allocator@UILLUSIONTEMPLE_START_TIME@@@std@@@std@@@std@@QAE@XZ
_TEXT	SEGMENT
??0?$_List_const_iterator@V?$_List_val@UILLUSIONTEMPLE_START_TIME@@V?$allocator@UILLUSIONTEMPLE_START_TIME@@@std@@@std@@@std@@QAE@XZ PROC ; std::_List_const_iterator<std::_List_val<ILLUSIONTEMPLE_START_TIME,std::allocator<ILLUSIONTEMPLE_START_TIME> > >::_List_const_iterator<std::_List_val<ILLUSIONTEMPLE_START_TIME,std::allocator<ILLUSIONTEMPLE_START_TIME> > >, COMDAT
; _this$ = ecx

; 179  : 		{	// construct with null node pointer

  00000	8b c1		 mov	 eax, ecx
  00002	c7 00 00 00 00
	00		 mov	 DWORD PTR [eax], 0

; 180  : 		}

  00008	c3		 ret	 0
??0?$_List_const_iterator@V?$_List_val@UILLUSIONTEMPLE_START_TIME@@V?$allocator@UILLUSIONTEMPLE_START_TIME@@@std@@@std@@@std@@QAE@XZ ENDP ; std::_List_const_iterator<std::_List_val<ILLUSIONTEMPLE_START_TIME,std::allocator<ILLUSIONTEMPLE_START_TIME> > >::_List_const_iterator<std::_List_val<ILLUSIONTEMPLE_START_TIME,std::allocator<ILLUSIONTEMPLE_START_TIME> > >
_TEXT	ENDS
PUBLIC	??D?$_List_const_iterator@V?$_List_val@UILLUSIONTEMPLE_START_TIME@@V?$allocator@UILLUSIONTEMPLE_START_TIME@@@std@@@std@@@std@@QBEABUILLUSIONTEMPLE_START_TIME@@XZ ; std::_List_const_iterator<std::_List_val<ILLUSIONTEMPLE_START_TIME,std::allocator<ILLUSIONTEMPLE_START_TIME> > >::operator*
; Function compile flags: /Ogtp
;	COMDAT ??D?$_List_const_iterator@V?$_List_val@UILLUSIONTEMPLE_START_TIME@@V?$allocator@UILLUSIONTEMPLE_START_TIME@@@std@@@std@@@std@@QBEABUILLUSIONTEMPLE_START_TIME@@XZ
_TEXT	SEGMENT
??D?$_List_const_iterator@V?$_List_val@UILLUSIONTEMPLE_START_TIME@@V?$allocator@UILLUSIONTEMPLE_START_TIME@@@std@@@std@@@std@@QBEABUILLUSIONTEMPLE_START_TIME@@XZ PROC ; std::_List_const_iterator<std::_List_val<ILLUSIONTEMPLE_START_TIME,std::allocator<ILLUSIONTEMPLE_START_TIME> > >::operator*, COMDAT
; _this$ = ecx

; 202  :  #if _ITERATOR_DEBUG_LEVEL == 2
; 203  : 		if (this->_Getcont() == 0
; 204  : 			|| this->_Ptr == 0
; 205  : 			|| this->_Ptr == ((_Mylist *)this->_Getcont())->_Myhead)
; 206  : 			{	// report error
; 207  : 			_DEBUG_ERROR("list iterator not dereferencable");
; 208  : 			_SCL_SECURE_OUT_OF_RANGE;
; 209  : 			}
; 210  : 
; 211  :  #elif _ITERATOR_DEBUG_LEVEL == 1
; 212  : 		_SCL_SECURE_VALIDATE(this->_Getcont() != 0 && this->_Ptr != 0);
; 213  : 		_SCL_SECURE_VALIDATE_RANGE(this->_Ptr !=
; 214  : 			((_Mylist *)this->_Getcont())->_Myhead);
; 215  :  #endif /* _ITERATOR_DEBUG_LEVEL */
; 216  : 
; 217  : 		return (_Mylist::_Myval(this->_Ptr));

  00000	8b 01		 mov	 eax, DWORD PTR [ecx]
  00002	83 c0 08	 add	 eax, 8

; 218  : 		}

  00005	c3		 ret	 0
??D?$_List_const_iterator@V?$_List_val@UILLUSIONTEMPLE_START_TIME@@V?$allocator@UILLUSIONTEMPLE_START_TIME@@@std@@@std@@@std@@QBEABUILLUSIONTEMPLE_START_TIME@@XZ ENDP ; std::_List_const_iterator<std::_List_val<ILLUSIONTEMPLE_START_TIME,std::allocator<ILLUSIONTEMPLE_START_TIME> > >::operator*
_TEXT	ENDS
PUBLIC	??0?$_List_nod@UILLUSIONTEMPLE_START_TIME@@V?$allocator@UILLUSIONTEMPLE_START_TIME@@@std@@@std@@QAE@V?$allocator@UILLUSIONTEMPLE_START_TIME@@@1@@Z ; std::_List_nod<ILLUSIONTEMPLE_START_TIME,std::allocator<ILLUSIONTEMPLE_START_TIME> >::_List_nod<ILLUSIONTEMPLE_START_TIME,std::allocator<ILLUSIONTEMPLE_START_TIME> >
; Function compile flags: /Ogtp
;	COMDAT ??0?$_List_nod@UILLUSIONTEMPLE_START_TIME@@V?$allocator@UILLUSIONTEMPLE_START_TIME@@@std@@@std@@QAE@V?$allocator@UILLUSIONTEMPLE_START_TIME@@@1@@Z
_TEXT	SEGMENT
__Al$ = 8						; size = 1
??0?$_List_nod@UILLUSIONTEMPLE_START_TIME@@V?$allocator@UILLUSIONTEMPLE_START_TIME@@@std@@@std@@QAE@V?$allocator@UILLUSIONTEMPLE_START_TIME@@@1@@Z PROC ; std::_List_nod<ILLUSIONTEMPLE_START_TIME,std::allocator<ILLUSIONTEMPLE_START_TIME> >::_List_nod<ILLUSIONTEMPLE_START_TIME,std::allocator<ILLUSIONTEMPLE_START_TIME> >, COMDAT
; _this$ = ecx

; 438  : 		{	// construct allocators from _Al

  00000	8b c1		 mov	 eax, ecx

; 439  : 		}

  00002	c2 04 00	 ret	 4
??0?$_List_nod@UILLUSIONTEMPLE_START_TIME@@V?$allocator@UILLUSIONTEMPLE_START_TIME@@@std@@@std@@QAE@V?$allocator@UILLUSIONTEMPLE_START_TIME@@@1@@Z ENDP ; std::_List_nod<ILLUSIONTEMPLE_START_TIME,std::allocator<ILLUSIONTEMPLE_START_TIME> >::_List_nod<ILLUSIONTEMPLE_START_TIME,std::allocator<ILLUSIONTEMPLE_START_TIME> >
_TEXT	ENDS
PUBLIC	??0?$_List_unchecked_const_iterator@V?$_List_val@UILLUSIONTEMPLE_START_TIME@@V?$allocator@UILLUSIONTEMPLE_START_TIME@@@std@@@std@@U_Iterator_base0@2@@std@@QAE@PAU_Node@?$_List_nod@UILLUSIONTEMPLE_START_TIME@@V?$allocator@UILLUSIONTEMPLE_START_TIME@@@std@@@1@PBV?$_List_val@UILLUSIONTEMPLE_START_TIME@@V?$allocator@UILLUSIONTEMPLE_START_TIME@@@std@@@1@@Z ; std::_List_unchecked_const_iterator<std::_List_val<ILLUSIONTEMPLE_START_TIME,std::allocator<ILLUSIONTEMPLE_START_TIME> >,std::_Iterator_base0>::_List_unchecked_const_iterator<std::_List_val<ILLUSIONTEMPLE_START_TIME,std::allocator<ILLUSIONTEMPLE_START_TIME> >,std::_Iterator_base0>
; Function compile flags: /Ogtp
;	COMDAT ??0?$_List_unchecked_const_iterator@V?$_List_val@UILLUSIONTEMPLE_START_TIME@@V?$allocator@UILLUSIONTEMPLE_START_TIME@@@std@@@std@@U_Iterator_base0@2@@std@@QAE@PAU_Node@?$_List_nod@UILLUSIONTEMPLE_START_TIME@@V?$allocator@UILLUSIONTEMPLE_START_TIME@@@std@@@1@PBV?$_List_val@UILLUSIONTEMPLE_START_TIME@@V?$allocator@UILLUSIONTEMPLE_START_TIME@@@std@@@1@@Z
_TEXT	SEGMENT
__Pnode$ = 8						; size = 4
__Plist$ = 12						; size = 4
??0?$_List_unchecked_const_iterator@V?$_List_val@UILLUSIONTEMPLE_START_TIME@@V?$allocator@UILLUSIONTEMPLE_START_TIME@@@std@@@std@@U_Iterator_base0@2@@std@@QAE@PAU_Node@?$_List_nod@UILLUSIONTEMPLE_START_TIME@@V?$allocator@UILLUSIONTEMPLE_START_TIME@@@std@@@1@PBV?$_List_val@UILLUSIONTEMPLE_START_TIME@@V?$allocator@UILLUSIONTEMPLE_START_TIME@@@std@@@1@@Z PROC ; std::_List_unchecked_const_iterator<std::_List_val<ILLUSIONTEMPLE_START_TIME,std::allocator<ILLUSIONTEMPLE_START_TIME> >,std::_Iterator_base0>::_List_unchecked_const_iterator<std::_List_val<ILLUSIONTEMPLE_START_TIME,std::allocator<ILLUSIONTEMPLE_START_TIME> >,std::_Iterator_base0>, COMDAT
; _this$ = ecx

; 41   : 		{	// construct with node pointer _Pnode

  00000	55		 push	 ebp
  00001	8b ec		 mov	 ebp, esp
  00003	8b c1		 mov	 eax, ecx
  00005	8b 4d 08	 mov	 ecx, DWORD PTR __Pnode$[ebp]
  00008	89 08		 mov	 DWORD PTR [eax], ecx

; 42   : 		this->_Adopt(_Plist);
; 43   : 		}

  0000a	5d		 pop	 ebp
  0000b	c2 08 00	 ret	 8
??0?$_List_unchecked_const_iterator@V?$_List_val@UILLUSIONTEMPLE_START_TIME@@V?$allocator@UILLUSIONTEMPLE_START_TIME@@@std@@@std@@U_Iterator_base0@2@@std@@QAE@PAU_Node@?$_List_nod@UILLUSIONTEMPLE_START_TIME@@V?$allocator@UILLUSIONTEMPLE_START_TIME@@@std@@@1@PBV?$_List_val@UILLUSIONTEMPLE_START_TIME@@V?$allocator@UILLUSIONTEMPLE_START_TIME@@@std@@@1@@Z ENDP ; std::_List_unchecked_const_iterator<std::_List_val<ILLUSIONTEMPLE_START_TIME,std::allocator<ILLUSIONTEMPLE_START_TIME> >,std::_Iterator_base0>::_List_unchecked_const_iterator<std::_List_val<ILLUSIONTEMPLE_START_TIME,std::allocator<ILLUSIONTEMPLE_START_TIME> >,std::_Iterator_base0>
_TEXT	ENDS
PUBLIC	__TI2?AVbad_alloc@std@@
PUBLIC	??$_Allocate@U_Node@?$_List_nod@UILLUSIONTEMPLE_START_TIME@@V?$allocator@UILLUSIONTEMPLE_START_TIME@@@std@@@std@@@std@@YAPAU_Node@?$_List_nod@UILLUSIONTEMPLE_START_TIME@@V?$allocator@UILLUSIONTEMPLE_START_TIME@@@std@@@0@IPAU120@@Z ; std::_Allocate<std::_List_nod<ILLUSIONTEMPLE_START_TIME,std::allocator<ILLUSIONTEMPLE_START_TIME> >::_Node>
PUBLIC	__CTA2?AVbad_alloc@std@@
PUBLIC	__CT??_R0?AVbad_alloc@std@@@8??0bad_alloc@std@@QAE@ABV01@@Z12
PUBLIC	??0bad_alloc@std@@QAE@ABV01@@Z			; std::bad_alloc::bad_alloc
PUBLIC	__CT??_R0?AVexception@std@@@8??0exception@std@@QAE@ABV01@@Z12
EXTRN	??2@YAPAXI@Z:PROC				; operator new
EXTRN	__CxxThrowException@8:PROC
EXTRN	??0exception@std@@QAE@ABV01@@Z:PROC		; std::exception::exception
;	COMDAT __CT??_R0?AVexception@std@@@8??0exception@std@@QAE@ABV01@@Z12
; File d:\program files (x86)\microsoft visual studio 10.0\vc\include\exception
xdata$x	SEGMENT
__CT??_R0?AVexception@std@@@8??0exception@std@@QAE@ABV01@@Z12 DD 00H
	DD	FLAT:??_R0?AVexception@std@@@8
	DD	00H
	DD	0ffffffffH
	ORG $+4
	DD	0cH
	DD	FLAT:??0exception@std@@QAE@ABV01@@Z
xdata$x	ENDS
;	COMDAT __CT??_R0?AVbad_alloc@std@@@8??0bad_alloc@std@@QAE@ABV01@@Z12
xdata$x	SEGMENT
__CT??_R0?AVbad_alloc@std@@@8??0bad_alloc@std@@QAE@ABV01@@Z12 DD 00H
	DD	FLAT:??_R0?AVbad_alloc@std@@@8
	DD	00H
	DD	0ffffffffH
	ORG $+4
	DD	0cH
	DD	FLAT:??0bad_alloc@std@@QAE@ABV01@@Z
xdata$x	ENDS
;	COMDAT __CTA2?AVbad_alloc@std@@
xdata$x	SEGMENT
__CTA2?AVbad_alloc@std@@ DD 02H
	DD	FLAT:__CT??_R0?AVbad_alloc@std@@@8??0bad_alloc@std@@QAE@ABV01@@Z12
	DD	FLAT:__CT??_R0?AVexception@std@@@8??0exception@std@@QAE@ABV01@@Z12
xdata$x	ENDS
;	COMDAT __TI2?AVbad_alloc@std@@
xdata$x	SEGMENT
__TI2?AVbad_alloc@std@@ DD 00H
	DD	FLAT:??1bad_alloc@std@@UAE@XZ
	DD	00H
	DD	FLAT:__CTA2?AVbad_alloc@std@@
; Function compile flags: /Ogtp
; File d:\program files (x86)\microsoft visual studio 10.0\vc\include\xmemory
xdata$x	ENDS
;	COMDAT ??$_Allocate@U_Node@?$_List_nod@UILLUSIONTEMPLE_START_TIME@@V?$allocator@UILLUSIONTEMPLE_START_TIME@@@std@@@std@@@std@@YAPAU_Node@?$_List_nod@UILLUSIONTEMPLE_START_TIME@@V?$allocator@UILLUSIONTEMPLE_START_TIME@@@std@@@0@IPAU120@@Z
_TEXT	SEGMENT
$T218222 = -12						; size = 12
$T218227 = 8						; size = 4
__Count$ = 8						; size = 4
___formal$ = 12						; size = 4
??$_Allocate@U_Node@?$_List_nod@UILLUSIONTEMPLE_START_TIME@@V?$allocator@UILLUSIONTEMPLE_START_TIME@@@std@@@std@@@std@@YAPAU_Node@?$_List_nod@UILLUSIONTEMPLE_START_TIME@@V?$allocator@UILLUSIONTEMPLE_START_TIME@@@std@@@0@IPAU120@@Z PROC ; std::_Allocate<std::_List_nod<ILLUSIONTEMPLE_START_TIME,std::allocator<ILLUSIONTEMPLE_START_TIME> >::_Node>, COMDAT

; 30   : 	{	// allocate storage for _Count elements of type _Ty

  00000	55		 push	 ebp
  00001	8b ec		 mov	 ebp, esp

; 31   : 	void *_Ptr = 0;
; 32   : 
; 33   : 	if (_Count <= 0)

  00003	8b 4d 08	 mov	 ecx, DWORD PTR __Count$[ebp]
  00006	83 ec 0c	 sub	 esp, 12			; 0000000cH
  00009	33 c0		 xor	 eax, eax
  0000b	85 c9		 test	 ecx, ecx

; 34   : 		_Count = 0;
; 35   : 	else if (((_SIZT)(-1) / sizeof (_Ty) < _Count)

  0000d	74 40		 je	 SHORT $LN5@Allocate

; 36   : 		|| (_Ptr = ::operator new(_Count * sizeof (_Ty))) == 0)

  0000f	81 f9 ff ff ff
	0f		 cmp	 ecx, 268435455		; 0fffffffH
  00015	77 10		 ja	 SHORT $LN1@Allocate
  00017	c1 e1 04	 shl	 ecx, 4
  0001a	51		 push	 ecx
  0001b	e8 00 00 00 00	 call	 ??2@YAPAXI@Z		; operator new
  00020	83 c4 04	 add	 esp, 4
  00023	85 c0		 test	 eax, eax

; 38   : 
; 39   : 	return ((_Ty _FARQ *)_Ptr);

  00025	75 28		 jne	 SHORT $LN5@Allocate
$LN1@Allocate:

; 37   : 		_THROW_NCEE(bad_alloc, 0);

  00027	8d 45 08	 lea	 eax, DWORD PTR $T218227[ebp]
  0002a	50		 push	 eax
  0002b	8d 4d f4	 lea	 ecx, DWORD PTR $T218222[ebp]
  0002e	c7 45 08 00 00
	00 00		 mov	 DWORD PTR $T218227[ebp], 0
  00035	e8 00 00 00 00	 call	 ??0exception@std@@QAE@ABQBD@Z ; std::exception::exception
  0003a	68 00 00 00 00	 push	 OFFSET __TI2?AVbad_alloc@std@@
  0003f	8d 4d f4	 lea	 ecx, DWORD PTR $T218222[ebp]
  00042	51		 push	 ecx
  00043	c7 45 f4 00 00
	00 00		 mov	 DWORD PTR $T218222[ebp], OFFSET ??_7bad_alloc@std@@6B@
  0004a	e8 00 00 00 00	 call	 __CxxThrowException@8
$LN10@Allocate:
$LN5@Allocate:

; 40   : 	}

  0004f	8b e5		 mov	 esp, ebp
  00051	5d		 pop	 ebp
  00052	c3		 ret	 0
$LN9@Allocate:
??$_Allocate@U_Node@?$_List_nod@UILLUSIONTEMPLE_START_TIME@@V?$allocator@UILLUSIONTEMPLE_START_TIME@@@std@@@std@@@std@@YAPAU_Node@?$_List_nod@UILLUSIONTEMPLE_START_TIME@@V?$allocator@UILLUSIONTEMPLE_START_TIME@@@std@@@0@IPAU120@@Z ENDP ; std::_Allocate<std::_List_nod<ILLUSIONTEMPLE_START_TIME,std::allocator<ILLUSIONTEMPLE_START_TIME> >::_Node>
; Function compile flags: /Ogtp
_TEXT	ENDS
;	COMDAT ??0bad_alloc@std@@QAE@ABV01@@Z
_TEXT	SEGMENT
___that$ = 8						; size = 4
??0bad_alloc@std@@QAE@ABV01@@Z PROC			; std::bad_alloc::bad_alloc, COMDAT
; _this$ = ecx
  00000	55		 push	 ebp
  00001	8b ec		 mov	 ebp, esp
  00003	8b 45 08	 mov	 eax, DWORD PTR ___that$[ebp]
  00006	56		 push	 esi
  00007	50		 push	 eax
  00008	8b f1		 mov	 esi, ecx
  0000a	e8 00 00 00 00	 call	 ??0exception@std@@QAE@ABV01@@Z ; std::exception::exception
  0000f	c7 06 00 00 00
	00		 mov	 DWORD PTR [esi], OFFSET ??_7bad_alloc@std@@6B@
  00015	8b c6		 mov	 eax, esi
  00017	5e		 pop	 esi
  00018	5d		 pop	 ebp
  00019	c2 04 00	 ret	 4
??0bad_alloc@std@@QAE@ABV01@@Z ENDP			; std::bad_alloc::bad_alloc
_TEXT	ENDS
PUBLIC	?destroy@?$allocator@U_Node@?$_List_nod@UILLUSIONTEMPLE_START_TIME@@V?$allocator@UILLUSIONTEMPLE_START_TIME@@@std@@@std@@@std@@QAEXPAU_Node@?$_List_nod@UILLUSIONTEMPLE_START_TIME@@V?$allocator@UILLUSIONTEMPLE_START_TIME@@@std@@@2@@Z ; std::allocator<std::_List_nod<ILLUSIONTEMPLE_START_TIME,std::allocator<ILLUSIONTEMPLE_START_TIME> >::_Node>::destroy
; Function compile flags: /Ogtp
;	COMDAT ?destroy@?$allocator@U_Node@?$_List_nod@UILLUSIONTEMPLE_START_TIME@@V?$allocator@UILLUSIONTEMPLE_START_TIME@@@std@@@std@@@std@@QAEXPAU_Node@?$_List_nod@UILLUSIONTEMPLE_START_TIME@@V?$allocator@UILLUSIONTEMPLE_START_TIME@@@std@@@2@@Z
_TEXT	SEGMENT
__Ptr$ = 8						; size = 4
?destroy@?$allocator@U_Node@?$_List_nod@UILLUSIONTEMPLE_START_TIME@@V?$allocator@UILLUSIONTEMPLE_START_TIME@@@std@@@std@@@std@@QAEXPAU_Node@?$_List_nod@UILLUSIONTEMPLE_START_TIME@@V?$allocator@UILLUSIONTEMPLE_START_TIME@@@std@@@2@@Z PROC ; std::allocator<std::_List_nod<ILLUSIONTEMPLE_START_TIME,std::allocator<ILLUSIONTEMPLE_START_TIME> >::_Node>::destroy, COMDAT
; _this$ = ecx

; 213  : 		_Destroy(_Ptr);
; 214  : 		}

  00000	c2 04 00	 ret	 4
?destroy@?$allocator@U_Node@?$_List_nod@UILLUSIONTEMPLE_START_TIME@@V?$allocator@UILLUSIONTEMPLE_START_TIME@@@std@@@std@@@std@@QAEXPAU_Node@?$_List_nod@UILLUSIONTEMPLE_START_TIME@@V?$allocator@UILLUSIONTEMPLE_START_TIME@@@std@@@2@@Z ENDP ; std::allocator<std::_List_nod<ILLUSIONTEMPLE_START_TIME,std::allocator<ILLUSIONTEMPLE_START_TIME> >::_Node>::destroy
_TEXT	ENDS
PUBLIC	??_C@_0DG@DAAGPJBE@?$FLIllusion?5Temple?$FN?5?$CI?$CFd?$CJ?5Use?5Skill@ ; `string'
PUBLIC	??_C@_0DM@DBHFAIH@?$FLIllusion?5Temple?$FN?5?$CI?$CFd?$CJ?5Use?5Skill@ ; `string'
PUBLIC	?RunningSkill@CIllusionTempleProcess@@QAEXHGHE@Z ; CIllusionTempleProcess::RunningSkill
EXTRN	?CheckKillCount@CMagicDamage@@QAEHHH@Z:PROC	; CMagicDamage::CheckKillCount
EXTRN	?MagicDamageC@@3VCMagicDamage@@A:BYTE		; MagicDamageC
;	COMDAT ??_C@_0DG@DAAGPJBE@?$FLIllusion?5Temple?$FN?5?$CI?$CFd?$CJ?5Use?5Skill@
; File e:\work\tranet_version\gs\gameserver\illusiontempleprocess.cpp
CONST	SEGMENT
??_C@_0DG@DAAGPJBE@?$FLIllusion?5Temple?$FN?5?$CI?$CFd?$CJ?5Use?5Skill@ DB '['
	DB	'Illusion Temple] (%d) Use Skill (%d), (%s)(%s), (%d)', 00H ; `string'
CONST	ENDS
;	COMDAT ??_C@_0DM@DBHFAIH@?$FLIllusion?5Temple?$FN?5?$CI?$CFd?$CJ?5Use?5Skill@
CONST	SEGMENT
??_C@_0DM@DBHFAIH@?$FLIllusion?5Temple?$FN?5?$CI?$CFd?$CJ?5Use?5Skill@ DB '['
	DB	'Illusion Temple] (%d) Use Skill KillCount Error (Skill:%d)', 00H ; `string'
; Function compile flags: /Ogtp
CONST	ENDS
;	COMDAT ?RunningSkill@CIllusionTempleProcess@@QAEXHGHE@Z
_TEXT	SEGMENT
_lpTargetObj$ = -4					; size = 4
_aIndex$ = 8						; size = 4
_skill$ = 12						; size = 2
_ebp14$ = 16						; size = 4
_aTargetIndex$ = 16					; size = 4
_btDir$ = 20						; size = 1
?RunningSkill@CIllusionTempleProcess@@QAEXHGHE@Z PROC	; CIllusionTempleProcess::RunningSkill, COMDAT
; _this$ = ecx

; 2015 : {

  00000	55		 push	 ebp
  00001	8b ec		 mov	 ebp, esp
  00003	51		 push	 ecx
  00004	56		 push	 esi

; 2016 : 	if( OBJMAX_RANGE(aIndex) == FALSE )

  00005	8b 75 08	 mov	 esi, DWORD PTR _aIndex$[ebp]
  00008	57		 push	 edi
  00009	8b f9		 mov	 edi, ecx
  0000b	85 f6		 test	 esi, esi
  0000d	78 0f		 js	 SHORT $LN30@RunningSki
  0000f	33 c0		 xor	 eax, eax
  00011	81 fe 97 3a 00
	00		 cmp	 esi, 14999		; 00003a97H
  00017	0f 9e c0	 setle	 al
  0001a	85 c0		 test	 eax, eax
  0001c	75 20		 jne	 SHORT $LN23@RunningSki
$LN30@RunningSki:

; 2017 : 	{
; 2018 : 		LogAdd("return %s %d", __FILE__, __LINE__);

  0001e	68 e2 07 00 00	 push	 2018			; 000007e2H
$LN37@RunningSki:
  00023	68 00 00 00 00	 push	 OFFSET ??_C@_0BK@DMGNFDO@IllusionTempleProcess?4cpp?$AA@
  00028	68 00 00 00 00	 push	 OFFSET ??_C@_0N@GGPGOPEN@return?5?$CFs?5?$CFd?$AA@
  0002d	ff 15 00 00 00
	00		 call	 DWORD PTR ?LogAdd@@3P6AXPADZZA ; LogAdd
  00033	83 c4 0c	 add	 esp, 12			; 0000000cH
  00036	5f		 pop	 edi
  00037	5e		 pop	 esi

; 2140 : 	}
; 2141 : }

  00038	8b e5		 mov	 esp, ebp
  0003a	5d		 pop	 ebp
  0003b	c2 10 00	 ret	 16			; 00000010H
$LN23@RunningSki:

; 2019 : 		return;
; 2020 : 	}
; 2021 : 
; 2022 : 	LPOBJ lpObj;
; 2023 : 	LPOBJ lpTargetObj;
; 2024 : 	
; 2025 : 	if( OBJMAX_RANGE(aTargetIndex) == FALSE )

  0003e	8b 45 10	 mov	 eax, DWORD PTR _aTargetIndex$[ebp]
  00041	85 c0		 test	 eax, eax
  00043	78 0e		 js	 SHORT $LN31@RunningSki
  00045	33 c9		 xor	 ecx, ecx
  00047	3d 97 3a 00 00	 cmp	 eax, 14999		; 00003a97H
  0004c	0f 9e c1	 setle	 cl
  0004f	85 c9		 test	 ecx, ecx
  00051	75 07		 jne	 SHORT $LN22@RunningSki
$LN31@RunningSki:

; 2026 : 	{
; 2027 : 		LogAdd("return %s %d", __FILE__, __LINE__);

  00053	68 eb 07 00 00	 push	 2027			; 000007ebH

; 2028 : 		return;

  00058	eb c9		 jmp	 SHORT $LN37@RunningSki
$LN22@RunningSki:

; 2029 : 	}
; 2030 : 
; 2031 : 	lpObj = &gObj[aIndex]; //ebp-8

  0005a	8b 0d 00 00 00
	00		 mov	 ecx, DWORD PTR ?gObj@@3PAUOBJECTSTRUCT@@A ; gObj

; 2032 : 	lpTargetObj = &gObj[aTargetIndex];

  00060	69 c0 50 2b 00
	00		 imul	 eax, 11088		; 00002b50H
  00066	69 f6 50 2b 00
	00		 imul	 esi, 11088		; 00002b50H
  0006c	8d 14 01	 lea	 edx, DWORD PTR [ecx+eax]
  0006f	03 f1		 add	 esi, ecx

; 2033 : 
; 2034 : 	if(this->GetState() != 2)

  00071	8b cf		 mov	 ecx, edi
  00073	89 55 fc	 mov	 DWORD PTR _lpTargetObj$[ebp], edx
  00076	e8 00 00 00 00	 call	 ?GetState@CIllusionTempleProcess@@QAEEXZ ; CIllusionTempleProcess::GetState
  0007b	b9 02 00 00 00	 mov	 ecx, 2
  00080	3a c1		 cmp	 al, cl

; 2035 : 	{
; 2036 : 		this->GCIllusionTempleSkillApply(lpObj->m_Index, lpTargetObj->m_Index, skill, 0);
; 2037 : 		return;

  00082	0f 85 69 02 00
	00		 jne	 $LN19@RunningSki

; 2038 : 	}
; 2039 : 
; 2040 : 	if(lpObj->Connected <= PLAYER_LOGGED || lpTargetObj->Connected <= PLAYER_LOGGED)

  00088	39 4e 04	 cmp	 DWORD PTR [esi+4], ecx
  0008b	0f 8e 60 02 00
	00		 jle	 $LN19@RunningSki
  00091	39 4a 04	 cmp	 DWORD PTR [edx+4], ecx
  00094	0f 8e 57 02 00
	00		 jle	 $LN19@RunningSki

; 2043 : 		return;
; 2044 : 	}
; 2045 : 
; 2046 : 	if(lpObj->MapNumber != lpTargetObj->MapNumber)

  0009a	8a 86 49 01 00
	00		 mov	 al, BYTE PTR [esi+329]
  000a0	3a 82 49 01 00
	00		 cmp	 al, BYTE PTR [edx+329]
  000a6	74 1b		 je	 SHORT $LN18@RunningSki

; 2047 : 	{
; 2048 : 		this->GCIllusionTempleSkillApply(lpObj->m_Index, lpTargetObj->m_Index, skill, 0);

  000a8	8b 4d 0c	 mov	 ecx, DWORD PTR _skill$[ebp]
  000ab	8b 12		 mov	 edx, DWORD PTR [edx]
  000ad	8b 06		 mov	 eax, DWORD PTR [esi]
  000af	6a 00		 push	 0
  000b1	51		 push	 ecx
  000b2	52		 push	 edx
  000b3	50		 push	 eax
  000b4	8b cf		 mov	 ecx, edi
  000b6	e8 00 00 00 00	 call	 ?GCIllusionTempleSkillApply@CIllusionTempleProcess@@QAEXHHGE@Z ; CIllusionTempleProcess::GCIllusionTempleSkillApply
  000bb	5f		 pop	 edi
  000bc	5e		 pop	 esi

; 2140 : 	}
; 2141 : }

  000bd	8b e5		 mov	 esp, ebp
  000bf	5d		 pop	 ebp
  000c0	c2 10 00	 ret	 16			; 00000010H
$LN18@RunningSki:

; 2049 : 		return;
; 2050 : 	}
; 2051 : 
; 2052 : 	if(lpObj->m_iIllusionTempleIndex == -1 || lpTargetObj->m_iIllusionTempleIndex == -1)

  000c3	83 c8 ff	 or	 eax, -1
  000c6	39 86 78 20 00
	00		 cmp	 DWORD PTR [esi+8312], eax
  000cc	0f 84 1f 02 00
	00		 je	 $LN19@RunningSki
  000d2	39 82 78 20 00
	00		 cmp	 DWORD PTR [edx+8312], eax
  000d8	0f 84 13 02 00
	00		 je	 $LN19@RunningSki

; 2053 : 	{
; 2054 : 		this->GCIllusionTempleSkillApply(lpObj->m_Index, lpTargetObj->m_Index, skill, 0);
; 2055 : 		return;
; 2056 : 	}
; 2057 : 
; 2058 : 	int ebp10 = -1; //loc4
; 2059 : 	int ebp14 = 1; //loc5
; 2060 : 
; 2061 : 	switch(skill)

  000de	0f b7 45 0c	 movzx	 eax, WORD PTR _skill$[ebp]
  000e2	05 2e ff ff ff	 add	 eax, -210		; ffffff2eH
  000e7	53		 push	 ebx
  000e8	83 f8 03	 cmp	 eax, 3
  000eb	0f 87 ec 01 00
	00		 ja	 $LN5@RunningSki
  000f1	ff 24 85 00 00
	00 00		 jmp	 DWORD PTR $LN38@RunningSki[eax*4]
$LN13@RunningSki:

; 2062 : 	{
; 2063 : 		case 210:
; 2064 : 			{
; 2065 : 				ebp10 = MagicDamageC.CheckKillCount(210, this->GetKillCountPointFromUser(lpObj->m_Index) );

  000f8	8b 0e		 mov	 ecx, DWORD PTR [esi]
  000fa	51		 push	 ecx
  000fb	8b cf		 mov	 ecx, edi
  000fd	e8 00 00 00 00	 call	 ?GetKillCountPointFromUser@CIllusionTempleProcess@@QAEEH@Z ; CIllusionTempleProcess::GetKillCountPointFromUser
  00102	0f b6 d0	 movzx	 edx, al
  00105	52		 push	 edx
  00106	68 d2 00 00 00	 push	 210			; 000000d2H
  0010b	b9 00 00 00 00	 mov	 ecx, OFFSET ?MagicDamageC@@3VCMagicDamage@@A ; MagicDamageC
  00110	e8 00 00 00 00	 call	 ?CheckKillCount@CMagicDamage@@QAEHHH@Z ; CMagicDamage::CheckKillCount
  00115	8b d8		 mov	 ebx, eax

; 2066 : 				
; 2067 : 				if(ebp10 < 0)

  00117	85 db		 test	 ebx, ebx
  00119	79 25		 jns	 SHORT $LN12@RunningSki

; 2068 : 				{
; 2069 : 					ebp14 = 0;
; 2070 : 					LogAddTD("[Illusion Temple] (%d) Use Skill KillCount Error (Skill:%d)", this->m_btFloorIndex+1, skill);

  0011b	0f b7 45 0c	 movzx	 eax, WORD PTR _skill$[ebp]
  0011f	50		 push	 eax
  00120	0f b6 87 2c 02
	00 00		 movzx	 eax, BYTE PTR [edi+556]
  00127	40		 inc	 eax
  00128	50		 push	 eax
  00129	68 00 00 00 00	 push	 OFFSET ??_C@_0DM@DBHFAIH@?$FLIllusion?5Temple?$FN?5?$CI?$CFd?$CJ?5Use?5Skill@
  0012e	c7 45 10 00 00
	00 00		 mov	 DWORD PTR _ebp14$[ebp], 0
  00135	ff 15 00 00 00
	00		 call	 DWORD PTR ?LogAddTD@@3P6AXPADZZA ; LogAddTD
  0013b	83 c4 0c	 add	 esp, 12			; 0000000cH

; 2071 : 					break;

  0013e	eb 59		 jmp	 SHORT $LN32@RunningSki
$LN12@RunningSki:

; 2072 : 				}
; 2073 : 				ebp14 = this->ShieldSpell(lpObj);

  00140	56		 push	 esi
  00141	8b cf		 mov	 ecx, edi
  00143	e8 00 00 00 00	 call	 ?ShieldSpell@CIllusionTempleProcess@@QAEHPAUOBJECTSTRUCT@@@Z ; CIllusionTempleProcess::ShieldSpell
$LN35@RunningSki:

; 2085 : 				}
; 2086 : 				ebp14 = this->RestrictionSpell(lpObj, lpTargetObj);

  00148	89 45 10	 mov	 DWORD PTR _ebp14$[ebp], eax

; 2117 : 			break;
; 2118 : 	}
; 2119 : 
; 2120 : 	if(ebp14 == 1)

  0014b	83 f8 01	 cmp	 eax, 1
  0014e	75 49		 jne	 SHORT $LN32@RunningSki

; 2121 : 	{
; 2122 : 		int ebp18 = this->UpdateKillCountPointFromUser(aIndex, ebp10);

  00150	8b 45 08	 mov	 eax, DWORD PTR _aIndex$[ebp]
  00153	53		 push	 ebx
  00154	50		 push	 eax
  00155	8b cf		 mov	 ecx, edi
  00157	e8 00 00 00 00	 call	 ?UpdateKillCountPointFromUser@CIllusionTempleProcess@@QAEHHE@Z ; CIllusionTempleProcess::UpdateKillCountPointFromUser

; 2123 : 		GCSendIllusionTempleKillCount(aIndex, ebp10);

  0015c	8b 4d 08	 mov	 ecx, DWORD PTR _aIndex$[ebp]
  0015f	53		 push	 ebx
  00160	51		 push	 ecx
  00161	e8 00 00 00 00	 call	 ?GCSendIllusionTempleKillCount@@YAXHE@Z ; GCSendIllusionTempleKillCount

; 2124 : 		this->IncreaseUsedKillCount(aIndex);

  00166	8b 55 08	 mov	 edx, DWORD PTR _aIndex$[ebp]
  00169	83 c4 08	 add	 esp, 8
  0016c	52		 push	 edx
  0016d	8b cf		 mov	 ecx, edi
  0016f	e8 00 00 00 00	 call	 ?IncreaseUsedKillCount@CIllusionTempleProcess@@QAEXH@Z ; CIllusionTempleProcess::IncreaseUsedKillCount

; 2125 : 		LogAddTD("[Illusion Temple] (%d) Use Skill (%d), (%s)(%s), (%d)",this->m_btFloorIndex+1, skill, lpObj->AccountID, lpObj->Name, ebp10);

  00174	0f b6 97 2c 02
	00 00		 movzx	 edx, BYTE PTR [edi+556]
  0017b	53		 push	 ebx
  0017c	8d 46 77	 lea	 eax, DWORD PTR [esi+119]
  0017f	50		 push	 eax
  00180	0f b7 45 0c	 movzx	 eax, WORD PTR _skill$[ebp]
  00184	8d 4e 6c	 lea	 ecx, DWORD PTR [esi+108]
  00187	51		 push	 ecx
  00188	50		 push	 eax
  00189	42		 inc	 edx
  0018a	52		 push	 edx
  0018b	68 00 00 00 00	 push	 OFFSET ??_C@_0DG@DAAGPJBE@?$FLIllusion?5Temple?$FN?5?$CI?$CFd?$CJ?5Use?5Skill@
  00190	ff 15 00 00 00
	00		 call	 DWORD PTR ?LogAddTD@@3P6AXPADZZA ; LogAddTD
  00196	83 c4 18	 add	 esp, 24			; 00000018H
$LN32@RunningSki:
  00199	8b 55 fc	 mov	 edx, DWORD PTR _lpTargetObj$[ebp]
$LN4@RunningSki:

; 2126 : 	}
; 2127 : 
; 2128 : 	if(skill != 212 )

  0019c	8b 45 0c	 mov	 eax, DWORD PTR _skill$[ebp]
  0019f	b9 d4 00 00 00	 mov	 ecx, 212		; 000000d4H
  001a4	5b		 pop	 ebx
  001a5	66 3b c1	 cmp	 ax, cx
  001a8	0f 84 3b 01 00
	00		 je	 $LN33@RunningSki

; 2129 : 	{
; 2130 : 		if(ebp14 == 1)

  001ae	83 7d 10 01	 cmp	 DWORD PTR _ebp14$[ebp], 1
  001b2	0f 85 31 01 00
	00		 jne	 $LN33@RunningSki

; 2131 : 		{
; 2132 : 			this->GCIllusionTempleSkillApply(lpObj->m_Index, lpTargetObj->m_Index, skill, 1);

  001b8	8b 12		 mov	 edx, DWORD PTR [edx]
  001ba	6a 01		 push	 1
  001bc	50		 push	 eax
  001bd	8b 06		 mov	 eax, DWORD PTR [esi]
  001bf	52		 push	 edx
  001c0	50		 push	 eax
  001c1	8b cf		 mov	 ecx, edi
  001c3	e8 00 00 00 00	 call	 ?GCIllusionTempleSkillApply@CIllusionTempleProcess@@QAEXHHGE@Z ; CIllusionTempleProcess::GCIllusionTempleSkillApply
  001c8	5f		 pop	 edi
  001c9	5e		 pop	 esi

; 2140 : 	}
; 2141 : }

  001ca	8b e5		 mov	 esp, ebp
  001cc	5d		 pop	 ebp
  001cd	c2 10 00	 ret	 16			; 00000010H
$LN11@RunningSki:

; 2074 : 			}
; 2075 : 			break;
; 2076 : 		case 211:
; 2077 : 			{
; 2078 : 				ebp10 = MagicDamageC.CheckKillCount(211, this->GetKillCountPointFromUser(lpObj->m_Index) );

  001d0	8b 0e		 mov	 ecx, DWORD PTR [esi]
  001d2	51		 push	 ecx
  001d3	8b cf		 mov	 ecx, edi
  001d5	e8 00 00 00 00	 call	 ?GetKillCountPointFromUser@CIllusionTempleProcess@@QAEEH@Z ; CIllusionTempleProcess::GetKillCountPointFromUser
  001da	0f b6 d0	 movzx	 edx, al
  001dd	52		 push	 edx
  001de	68 d3 00 00 00	 push	 211			; 000000d3H
  001e3	b9 00 00 00 00	 mov	 ecx, OFFSET ?MagicDamageC@@3VCMagicDamage@@A ; MagicDamageC
  001e8	e8 00 00 00 00	 call	 ?CheckKillCount@CMagicDamage@@QAEHHH@Z ; CMagicDamage::CheckKillCount
  001ed	8b d8		 mov	 ebx, eax

; 2079 : 				
; 2080 : 				if(ebp10 < 0)

  001ef	85 db		 test	 ebx, ebx
  001f1	79 25		 jns	 SHORT $LN10@RunningSki

; 2081 : 				{
; 2082 : 					ebp14 = 0;
; 2083 : 					LogAddTD("[Illusion Temple] (%d) Use Skill KillCount Error (Skill:%d)", this->m_btFloorIndex+1, skill);

  001f3	0f b7 45 0c	 movzx	 eax, WORD PTR _skill$[ebp]
  001f7	50		 push	 eax
  001f8	0f b6 87 2c 02
	00 00		 movzx	 eax, BYTE PTR [edi+556]
  001ff	40		 inc	 eax
  00200	50		 push	 eax
  00201	68 00 00 00 00	 push	 OFFSET ??_C@_0DM@DBHFAIH@?$FLIllusion?5Temple?$FN?5?$CI?$CFd?$CJ?5Use?5Skill@
  00206	c7 45 10 00 00
	00 00		 mov	 DWORD PTR _ebp14$[ebp], 0
  0020d	ff 15 00 00 00
	00		 call	 DWORD PTR ?LogAddTD@@3P6AXPADZZA ; LogAddTD
  00213	83 c4 0c	 add	 esp, 12			; 0000000cH

; 2084 : 					break;

  00216	eb 81		 jmp	 SHORT $LN32@RunningSki
$LN10@RunningSki:

; 2085 : 				}
; 2086 : 				ebp14 = this->RestrictionSpell(lpObj, lpTargetObj);

  00218	8b 4d fc	 mov	 ecx, DWORD PTR _lpTargetObj$[ebp]
  0021b	51		 push	 ecx
  0021c	56		 push	 esi
  0021d	8b cf		 mov	 ecx, edi
  0021f	e8 00 00 00 00	 call	 ?RestrictionSpell@CIllusionTempleProcess@@QAEHPAUOBJECTSTRUCT@@0@Z ; CIllusionTempleProcess::RestrictionSpell

; 2087 : 			}
; 2088 : 			break;

  00224	e9 1f ff ff ff	 jmp	 $LN35@RunningSki
$LN9@RunningSki:

; 2089 : 		case 212:
; 2090 : 			{
; 2091 : 				ebp10 = MagicDamageC.CheckKillCount(212, this->GetKillCountPointFromUser(lpObj->m_Index) );

  00229	8b 16		 mov	 edx, DWORD PTR [esi]
  0022b	52		 push	 edx
  0022c	8b cf		 mov	 ecx, edi
  0022e	e8 00 00 00 00	 call	 ?GetKillCountPointFromUser@CIllusionTempleProcess@@QAEEH@Z ; CIllusionTempleProcess::GetKillCountPointFromUser
  00233	0f b6 c0	 movzx	 eax, al
  00236	50		 push	 eax
  00237	68 d4 00 00 00	 push	 212			; 000000d4H
  0023c	b9 00 00 00 00	 mov	 ecx, OFFSET ?MagicDamageC@@3VCMagicDamage@@A ; MagicDamageC
  00241	e8 00 00 00 00	 call	 ?CheckKillCount@CMagicDamage@@QAEHHH@Z ; CMagicDamage::CheckKillCount
  00246	8b d8		 mov	 ebx, eax

; 2092 : 				
; 2093 : 				if(ebp10 < 0)

  00248	85 db		 test	 ebx, ebx
  0024a	79 28		 jns	 SHORT $LN8@RunningSki

; 2094 : 				{
; 2095 : 					ebp14 = 0;
; 2096 : 					LogAddTD("[Illusion Temple] (%d) Use Skill KillCount Error (Skill:%d)", this->m_btFloorIndex+1, skill);

  0024c	0f b7 45 0c	 movzx	 eax, WORD PTR _skill$[ebp]
  00250	0f b6 8f 2c 02
	00 00		 movzx	 ecx, BYTE PTR [edi+556]
  00257	50		 push	 eax
  00258	41		 inc	 ecx
  00259	51		 push	 ecx
  0025a	68 00 00 00 00	 push	 OFFSET ??_C@_0DM@DBHFAIH@?$FLIllusion?5Temple?$FN?5?$CI?$CFd?$CJ?5Use?5Skill@
  0025f	c7 45 10 00 00
	00 00		 mov	 DWORD PTR _ebp14$[ebp], 0
  00266	ff 15 00 00 00
	00		 call	 DWORD PTR ?LogAddTD@@3P6AXPADZZA ; LogAddTD
  0026c	83 c4 0c	 add	 esp, 12			; 0000000cH

; 2097 : 					break;

  0026f	e9 25 ff ff ff	 jmp	 $LN32@RunningSki
$LN8@RunningSki:

; 2098 : 				}
; 2099 : 				ebp14 = this->PursuitSpell(lpObj);

  00274	56		 push	 esi
  00275	8b cf		 mov	 ecx, edi
  00277	e8 00 00 00 00	 call	 ?PursuitSpell@CIllusionTempleProcess@@QAEHPAUOBJECTSTRUCT@@@Z ; CIllusionTempleProcess::PursuitSpell

; 2100 : 			}
; 2101 : 			break;

  0027c	e9 c7 fe ff ff	 jmp	 $LN35@RunningSki
$LN7@RunningSki:

; 2102 : 		case 213:
; 2103 : 			{
; 2104 : 				ebp10 = MagicDamageC.CheckKillCount(213, this->GetKillCountPointFromUser(lpObj->m_Index) );

  00281	8b 16		 mov	 edx, DWORD PTR [esi]
  00283	52		 push	 edx
  00284	8b cf		 mov	 ecx, edi
  00286	e8 00 00 00 00	 call	 ?GetKillCountPointFromUser@CIllusionTempleProcess@@QAEEH@Z ; CIllusionTempleProcess::GetKillCountPointFromUser
  0028b	0f b6 c0	 movzx	 eax, al
  0028e	50		 push	 eax
  0028f	68 d5 00 00 00	 push	 213			; 000000d5H
  00294	b9 00 00 00 00	 mov	 ecx, OFFSET ?MagicDamageC@@3VCMagicDamage@@A ; MagicDamageC
  00299	e8 00 00 00 00	 call	 ?CheckKillCount@CMagicDamage@@QAEHHH@Z ; CMagicDamage::CheckKillCount
  0029e	8b d8		 mov	 ebx, eax

; 2105 : 				
; 2106 : 				if(ebp10 < 0)

  002a0	85 db		 test	 ebx, ebx
  002a2	79 28		 jns	 SHORT $LN6@RunningSki

; 2107 : 				{
; 2108 : 					ebp14 = 0;
; 2109 : 					LogAddTD("[Illusion Temple] (%d) Use Skill KillCount Error (Skill:%d)", this->m_btFloorIndex+1, skill);

  002a4	0f b7 45 0c	 movzx	 eax, WORD PTR _skill$[ebp]
  002a8	0f b6 8f 2c 02
	00 00		 movzx	 ecx, BYTE PTR [edi+556]
  002af	50		 push	 eax
  002b0	41		 inc	 ecx
  002b1	51		 push	 ecx
  002b2	68 00 00 00 00	 push	 OFFSET ??_C@_0DM@DBHFAIH@?$FLIllusion?5Temple?$FN?5?$CI?$CFd?$CJ?5Use?5Skill@
  002b7	c7 45 10 00 00
	00 00		 mov	 DWORD PTR _ebp14$[ebp], 0
  002be	ff 15 00 00 00
	00		 call	 DWORD PTR ?LogAddTD@@3P6AXPADZZA ; LogAddTD
  002c4	83 c4 0c	 add	 esp, 12			; 0000000cH

; 2110 : 					break;

  002c7	e9 cd fe ff ff	 jmp	 $LN32@RunningSki
$LN6@RunningSki:

; 2111 : 				}
; 2112 : 				ebp14 = this->ShieldClashSpell(lpObj, lpTargetObj);

  002cc	8b 55 fc	 mov	 edx, DWORD PTR _lpTargetObj$[ebp]
  002cf	52		 push	 edx
  002d0	56		 push	 esi
  002d1	8b cf		 mov	 ecx, edi
  002d3	e8 00 00 00 00	 call	 ?ShieldClashSpell@CIllusionTempleProcess@@QAEHPAUOBJECTSTRUCT@@0@Z ; CIllusionTempleProcess::ShieldClashSpell

; 2113 : 			}
; 2114 : 			break;

  002d8	e9 6b fe ff ff	 jmp	 $LN35@RunningSki
$LN5@RunningSki:

; 2115 : 		default:
; 2116 : 			ebp14 = 0;

  002dd	c7 45 10 00 00
	00 00		 mov	 DWORD PTR _ebp14$[ebp], 0

; 2117 : 			break;
; 2118 : 	}
; 2119 : 
; 2120 : 	if(ebp14 == 1)

  002e4	e9 b3 fe ff ff	 jmp	 $LN4@RunningSki
$LN33@RunningSki:

; 2133 : 			return;
; 2134 : 		}
; 2135 : 	}
; 2136 : 
; 2137 : 	if(ebp14 == 0)

  002e9	83 7d 10 00	 cmp	 DWORD PTR _ebp14$[ebp], 0
  002ed	75 15		 jne	 SHORT $LN1@RunningSki

; 2138 : 	{
; 2139 : 		this->GCIllusionTempleSkillApply(lpObj->m_Index, lpTargetObj->m_Index, skill, 0);

  002ef	eb 03		 jmp	 SHORT $LN36@RunningSki
$LN19@RunningSki:

; 2041 : 	{
; 2042 : 		this->GCIllusionTempleSkillApply(lpObj->m_Index, lpTargetObj->m_Index, skill, 0);

  002f1	8b 45 0c	 mov	 eax, DWORD PTR _skill$[ebp]
$LN36@RunningSki:
  002f4	8b 0a		 mov	 ecx, DWORD PTR [edx]
  002f6	8b 16		 mov	 edx, DWORD PTR [esi]
  002f8	6a 00		 push	 0
  002fa	50		 push	 eax
  002fb	51		 push	 ecx
  002fc	52		 push	 edx
  002fd	8b cf		 mov	 ecx, edi
  002ff	e8 00 00 00 00	 call	 ?GCIllusionTempleSkillApply@CIllusionTempleProcess@@QAEXHHGE@Z ; CIllusionTempleProcess::GCIllusionTempleSkillApply
$LN1@RunningSki:
  00304	5f		 pop	 edi
  00305	5e		 pop	 esi

; 2140 : 	}
; 2141 : }

  00306	8b e5		 mov	 esp, ebp
  00308	5d		 pop	 ebp
  00309	c2 10 00	 ret	 16			; 00000010H
$LN38@RunningSki:
  0030c	00 00 00 00	 DD	 $LN13@RunningSki
  00310	00 00 00 00	 DD	 $LN11@RunningSki
  00314	00 00 00 00	 DD	 $LN9@RunningSki
  00318	00 00 00 00	 DD	 $LN7@RunningSki
?RunningSkill@CIllusionTempleProcess@@QAEXHGHE@Z ENDP	; CIllusionTempleProcess::RunningSkill
_TEXT	ENDS
PUBLIC	??0?$_List_iterator@V?$_List_val@UILLUSIONTEMPLE_START_TIME@@V?$allocator@UILLUSIONTEMPLE_START_TIME@@@std@@@std@@@std@@QAE@XZ ; std::_List_iterator<std::_List_val<ILLUSIONTEMPLE_START_TIME,std::allocator<ILLUSIONTEMPLE_START_TIME> > >::_List_iterator<std::_List_val<ILLUSIONTEMPLE_START_TIME,std::allocator<ILLUSIONTEMPLE_START_TIME> > >
; Function compile flags: /Ogtp
; File d:\program files (x86)\microsoft visual studio 10.0\vc\include\list
;	COMDAT ??0?$_List_iterator@V?$_List_val@UILLUSIONTEMPLE_START_TIME@@V?$allocator@UILLUSIONTEMPLE_START_TIME@@@std@@@std@@@std@@QAE@XZ
_TEXT	SEGMENT
??0?$_List_iterator@V?$_List_val@UILLUSIONTEMPLE_START_TIME@@V?$allocator@UILLUSIONTEMPLE_START_TIME@@@std@@@std@@@std@@QAE@XZ PROC ; std::_List_iterator<std::_List_val<ILLUSIONTEMPLE_START_TIME,std::allocator<ILLUSIONTEMPLE_START_TIME> > >::_List_iterator<std::_List_val<ILLUSIONTEMPLE_START_TIME,std::allocator<ILLUSIONTEMPLE_START_TIME> > >, COMDAT
; _this$ = ecx

; 336  : 	_List_iterator()

  00000	8b c1		 mov	 eax, ecx
  00002	c7 00 00 00 00
	00		 mov	 DWORD PTR [eax], 0

; 337  : 		{	// construct with null node
; 338  : 		}

  00008	c3		 ret	 0
??0?$_List_iterator@V?$_List_val@UILLUSIONTEMPLE_START_TIME@@V?$allocator@UILLUSIONTEMPLE_START_TIME@@@std@@@std@@@std@@QAE@XZ ENDP ; std::_List_iterator<std::_List_val<ILLUSIONTEMPLE_START_TIME,std::allocator<ILLUSIONTEMPLE_START_TIME> > >::_List_iterator<std::_List_val<ILLUSIONTEMPLE_START_TIME,std::allocator<ILLUSIONTEMPLE_START_TIME> > >
_TEXT	ENDS
PUBLIC	??D?$_List_iterator@V?$_List_val@UILLUSIONTEMPLE_START_TIME@@V?$allocator@UILLUSIONTEMPLE_START_TIME@@@std@@@std@@@std@@QBEAAUILLUSIONTEMPLE_START_TIME@@XZ ; std::_List_iterator<std::_List_val<ILLUSIONTEMPLE_START_TIME,std::allocator<ILLUSIONTEMPLE_START_TIME> > >::operator*
; Function compile flags: /Ogtp
;	COMDAT ??D?$_List_iterator@V?$_List_val@UILLUSIONTEMPLE_START_TIME@@V?$allocator@UILLUSIONTEMPLE_START_TIME@@@std@@@std@@@std@@QBEAAUILLUSIONTEMPLE_START_TIME@@XZ
_TEXT	SEGMENT
??D?$_List_iterator@V?$_List_val@UILLUSIONTEMPLE_START_TIME@@V?$allocator@UILLUSIONTEMPLE_START_TIME@@@std@@@std@@@std@@QBEAAUILLUSIONTEMPLE_START_TIME@@XZ PROC ; std::_List_iterator<std::_List_val<ILLUSIONTEMPLE_START_TIME,std::allocator<ILLUSIONTEMPLE_START_TIME> > >::operator*, COMDAT
; _this$ = ecx

; 360  : 		return ((reference)**(_Mybase *)this);

  00000	8b 01		 mov	 eax, DWORD PTR [ecx]
  00002	83 c0 08	 add	 eax, 8

; 361  : 		}

  00005	c3		 ret	 0
??D?$_List_iterator@V?$_List_val@UILLUSIONTEMPLE_START_TIME@@V?$allocator@UILLUSIONTEMPLE_START_TIME@@@std@@@std@@@std@@QBEAAUILLUSIONTEMPLE_START_TIME@@XZ ENDP ; std::_List_iterator<std::_List_val<ILLUSIONTEMPLE_START_TIME,std::allocator<ILLUSIONTEMPLE_START_TIME> > >::operator*
_TEXT	ENDS
PUBLIC	?allocate@?$allocator@U_Node@?$_List_nod@UILLUSIONTEMPLE_START_TIME@@V?$allocator@UILLUSIONTEMPLE_START_TIME@@@std@@@std@@@std@@QAEPAU_Node@?$_List_nod@UILLUSIONTEMPLE_START_TIME@@V?$allocator@UILLUSIONTEMPLE_START_TIME@@@std@@@2@I@Z ; std::allocator<std::_List_nod<ILLUSIONTEMPLE_START_TIME,std::allocator<ILLUSIONTEMPLE_START_TIME> >::_Node>::allocate
; Function compile flags: /Ogtp
; File d:\program files (x86)\microsoft visual studio 10.0\vc\include\xmemory
;	COMDAT ?allocate@?$allocator@U_Node@?$_List_nod@UILLUSIONTEMPLE_START_TIME@@V?$allocator@UILLUSIONTEMPLE_START_TIME@@@std@@@std@@@std@@QAEPAU_Node@?$_List_nod@UILLUSIONTEMPLE_START_TIME@@V?$allocator@UILLUSIONTEMPLE_START_TIME@@@std@@@2@I@Z
_TEXT	SEGMENT
$T218285 = -12						; size = 12
$T218283 = 8						; size = 4
__Count$ = 8						; size = 4
?allocate@?$allocator@U_Node@?$_List_nod@UILLUSIONTEMPLE_START_TIME@@V?$allocator@UILLUSIONTEMPLE_START_TIME@@@std@@@std@@@std@@QAEPAU_Node@?$_List_nod@UILLUSIONTEMPLE_START_TIME@@V?$allocator@UILLUSIONTEMPLE_START_TIME@@@std@@@2@I@Z PROC ; std::allocator<std::_List_nod<ILLUSIONTEMPLE_START_TIME,std::allocator<ILLUSIONTEMPLE_START_TIME> >::_Node>::allocate, COMDAT
; _this$ = ecx

; 186  : 		{	// allocate array of _Count elements

  00000	55		 push	 ebp
  00001	8b ec		 mov	 ebp, esp

; 187  : 		return (_Allocate(_Count, (pointer)0));

  00003	8b 4d 08	 mov	 ecx, DWORD PTR __Count$[ebp]
  00006	83 ec 0c	 sub	 esp, 12			; 0000000cH
  00009	33 c0		 xor	 eax, eax
  0000b	85 c9		 test	 ecx, ecx
  0000d	74 40		 je	 SHORT $LN1@allocate
  0000f	81 f9 ff ff ff
	0f		 cmp	 ecx, 268435455		; 0fffffffH
  00015	77 10		 ja	 SHORT $LN3@allocate
  00017	c1 e1 04	 shl	 ecx, 4
  0001a	51		 push	 ecx
  0001b	e8 00 00 00 00	 call	 ??2@YAPAXI@Z		; operator new
  00020	83 c4 04	 add	 esp, 4
  00023	85 c0		 test	 eax, eax
  00025	75 28		 jne	 SHORT $LN1@allocate
$LN3@allocate:
  00027	8d 45 08	 lea	 eax, DWORD PTR $T218283[ebp]
  0002a	50		 push	 eax
  0002b	8d 4d f4	 lea	 ecx, DWORD PTR $T218285[ebp]
  0002e	c7 45 08 00 00
	00 00		 mov	 DWORD PTR $T218283[ebp], 0
  00035	e8 00 00 00 00	 call	 ??0exception@std@@QAE@ABQBD@Z ; std::exception::exception
  0003a	68 00 00 00 00	 push	 OFFSET __TI2?AVbad_alloc@std@@
  0003f	8d 4d f4	 lea	 ecx, DWORD PTR $T218285[ebp]
  00042	51		 push	 ecx
  00043	c7 45 f4 00 00
	00 00		 mov	 DWORD PTR $T218285[ebp], OFFSET ??_7bad_alloc@std@@6B@
  0004a	e8 00 00 00 00	 call	 __CxxThrowException@8
$LN13@allocate:
$LN1@allocate:

; 188  : 		}

  0004f	8b e5		 mov	 esp, ebp
  00051	5d		 pop	 ebp
  00052	c2 04 00	 ret	 4
$LN12@allocate:
?allocate@?$allocator@U_Node@?$_List_nod@UILLUSIONTEMPLE_START_TIME@@V?$allocator@UILLUSIONTEMPLE_START_TIME@@@std@@@std@@@std@@QAEPAU_Node@?$_List_nod@UILLUSIONTEMPLE_START_TIME@@V?$allocator@UILLUSIONTEMPLE_START_TIME@@@std@@@2@I@Z ENDP ; std::allocator<std::_List_nod<ILLUSIONTEMPLE_START_TIME,std::allocator<ILLUSIONTEMPLE_START_TIME> >::_Node>::allocate
_TEXT	ENDS
PUBLIC	??0?$_List_const_iterator@V?$_List_val@UILLUSIONTEMPLE_START_TIME@@V?$allocator@UILLUSIONTEMPLE_START_TIME@@@std@@@std@@@std@@QAE@PAU_Node@?$_List_nod@UILLUSIONTEMPLE_START_TIME@@V?$allocator@UILLUSIONTEMPLE_START_TIME@@@std@@@1@PBV?$_List_val@UILLUSIONTEMPLE_START_TIME@@V?$allocator@UILLUSIONTEMPLE_START_TIME@@@std@@@1@@Z ; std::_List_const_iterator<std::_List_val<ILLUSIONTEMPLE_START_TIME,std::allocator<ILLUSIONTEMPLE_START_TIME> > >::_List_const_iterator<std::_List_val<ILLUSIONTEMPLE_START_TIME,std::allocator<ILLUSIONTEMPLE_START_TIME> > >
; Function compile flags: /Ogtp
; File d:\program files (x86)\microsoft visual studio 10.0\vc\include\list
;	COMDAT ??0?$_List_const_iterator@V?$_List_val@UILLUSIONTEMPLE_START_TIME@@V?$allocator@UILLUSIONTEMPLE_START_TIME@@@std@@@std@@@std@@QAE@PAU_Node@?$_List_nod@UILLUSIONTEMPLE_START_TIME@@V?$allocator@UILLUSIONTEMPLE_START_TIME@@@std@@@1@PBV?$_List_val@UILLUSIONTEMPLE_START_TIME@@V?$allocator@UILLUSIONTEMPLE_START_TIME@@@std@@@1@@Z
_TEXT	SEGMENT
__Pnode$ = 8						; size = 4
__Plist$ = 12						; size = 4
??0?$_List_const_iterator@V?$_List_val@UILLUSIONTEMPLE_START_TIME@@V?$allocator@UILLUSIONTEMPLE_START_TIME@@@std@@@std@@@std@@QAE@PAU_Node@?$_List_nod@UILLUSIONTEMPLE_START_TIME@@V?$allocator@UILLUSIONTEMPLE_START_TIME@@@std@@@1@PBV?$_List_val@UILLUSIONTEMPLE_START_TIME@@V?$allocator@UILLUSIONTEMPLE_START_TIME@@@std@@@1@@Z PROC ; std::_List_const_iterator<std::_List_val<ILLUSIONTEMPLE_START_TIME,std::allocator<ILLUSIONTEMPLE_START_TIME> > >::_List_const_iterator<std::_List_val<ILLUSIONTEMPLE_START_TIME,std::allocator<ILLUSIONTEMPLE_START_TIME> > >, COMDAT
; _this$ = ecx

; 184  : 		{	// construct with node pointer _Pnode

  00000	55		 push	 ebp
  00001	8b ec		 mov	 ebp, esp
  00003	8b c1		 mov	 eax, ecx
  00005	8b 4d 08	 mov	 ecx, DWORD PTR __Pnode$[ebp]
  00008	89 08		 mov	 DWORD PTR [eax], ecx

; 185  : 		}

  0000a	5d		 pop	 ebp
  0000b	c2 08 00	 ret	 8
??0?$_List_const_iterator@V?$_List_val@UILLUSIONTEMPLE_START_TIME@@V?$allocator@UILLUSIONTEMPLE_START_TIME@@@std@@@std@@@std@@QAE@PAU_Node@?$_List_nod@UILLUSIONTEMPLE_START_TIME@@V?$allocator@UILLUSIONTEMPLE_START_TIME@@@std@@@1@PBV?$_List_val@UILLUSIONTEMPLE_START_TIME@@V?$allocator@UILLUSIONTEMPLE_START_TIME@@@std@@@1@@Z ENDP ; std::_List_const_iterator<std::_List_val<ILLUSIONTEMPLE_START_TIME,std::allocator<ILLUSIONTEMPLE_START_TIME> > >::_List_const_iterator<std::_List_val<ILLUSIONTEMPLE_START_TIME,std::allocator<ILLUSIONTEMPLE_START_TIME> > >
_TEXT	ENDS
PUBLIC	??$_Dest_val@V?$allocator@U_Node@?$_List_nod@UILLUSIONTEMPLE_START_TIME@@V?$allocator@UILLUSIONTEMPLE_START_TIME@@@std@@@std@@@std@@U_Node@?$_List_nod@UILLUSIONTEMPLE_START_TIME@@V?$allocator@UILLUSIONTEMPLE_START_TIME@@@std@@@2@@std@@YAXAAV?$allocator@U_Node@?$_List_nod@UILLUSIONTEMPLE_START_TIME@@V?$allocator@UILLUSIONTEMPLE_START_TIME@@@std@@@std@@@0@PAU_Node@?$_List_nod@UILLUSIONTEMPLE_START_TIME@@V?$allocator@UILLUSIONTEMPLE_START_TIME@@@std@@@0@@Z ; std::_Dest_val<std::allocator<std::_List_nod<ILLUSIONTEMPLE_START_TIME,std::allocator<ILLUSIONTEMPLE_START_TIME> >::_Node>,std::_List_nod<ILLUSIONTEMPLE_START_TIME,std::allocator<ILLUSIONTEMPLE_START_TIME> >::_Node>
; Function compile flags: /Ogtp
; File d:\program files (x86)\microsoft visual studio 10.0\vc\include\xmemory
;	COMDAT ??$_Dest_val@V?$allocator@U_Node@?$_List_nod@UILLUSIONTEMPLE_START_TIME@@V?$allocator@UILLUSIONTEMPLE_START_TIME@@@std@@@std@@@std@@U_Node@?$_List_nod@UILLUSIONTEMPLE_START_TIME@@V?$allocator@UILLUSIONTEMPLE_START_TIME@@@std@@@2@@std@@YAXAAV?$allocator@U_Node@?$_List_nod@UILLUSIONTEMPLE_START_TIME@@V?$allocator@UILLUSIONTEMPLE_START_TIME@@@std@@@std@@@0@PAU_Node@?$_List_nod@UILLUSIONTEMPLE_START_TIME@@V?$allocator@UILLUSIONTEMPLE_START_TIME@@@std@@@0@@Z
_TEXT	SEGMENT
__Alval$ = 8						; size = 4
__Pdest$ = 12						; size = 4
??$_Dest_val@V?$allocator@U_Node@?$_List_nod@UILLUSIONTEMPLE_START_TIME@@V?$allocator@UILLUSIONTEMPLE_START_TIME@@@std@@@std@@@std@@U_Node@?$_List_nod@UILLUSIONTEMPLE_START_TIME@@V?$allocator@UILLUSIONTEMPLE_START_TIME@@@std@@@2@@std@@YAXAAV?$allocator@U_Node@?$_List_nod@UILLUSIONTEMPLE_START_TIME@@V?$allocator@UILLUSIONTEMPLE_START_TIME@@@std@@@std@@@0@PAU_Node@?$_List_nod@UILLUSIONTEMPLE_START_TIME@@V?$allocator@UILLUSIONTEMPLE_START_TIME@@@std@@@0@@Z PROC ; std::_Dest_val<std::allocator<std::_List_nod<ILLUSIONTEMPLE_START_TIME,std::allocator<ILLUSIONTEMPLE_START_TIME> >::_Node>,std::_List_nod<ILLUSIONTEMPLE_START_TIME,std::allocator<ILLUSIONTEMPLE_START_TIME> >::_Node>, COMDAT

; 287  : 	_Alval.destroy(_Pdest);
; 288  : 	}

  00000	c3		 ret	 0
??$_Dest_val@V?$allocator@U_Node@?$_List_nod@UILLUSIONTEMPLE_START_TIME@@V?$allocator@UILLUSIONTEMPLE_START_TIME@@@std@@@std@@@std@@U_Node@?$_List_nod@UILLUSIONTEMPLE_START_TIME@@V?$allocator@UILLUSIONTEMPLE_START_TIME@@@std@@@2@@std@@YAXAAV?$allocator@U_Node@?$_List_nod@UILLUSIONTEMPLE_START_TIME@@V?$allocator@UILLUSIONTEMPLE_START_TIME@@@std@@@std@@@0@PAU_Node@?$_List_nod@UILLUSIONTEMPLE_START_TIME@@V?$allocator@UILLUSIONTEMPLE_START_TIME@@@std@@@0@@Z ENDP ; std::_Dest_val<std::allocator<std::_List_nod<ILLUSIONTEMPLE_START_TIME,std::allocator<ILLUSIONTEMPLE_START_TIME> >::_Node>,std::_List_nod<ILLUSIONTEMPLE_START_TIME,std::allocator<ILLUSIONTEMPLE_START_TIME> >::_Node>
_TEXT	ENDS
PUBLIC	??0?$_List_val@UILLUSIONTEMPLE_START_TIME@@V?$allocator@UILLUSIONTEMPLE_START_TIME@@@std@@@std@@QAE@V?$allocator@UILLUSIONTEMPLE_START_TIME@@@1@@Z ; std::_List_val<ILLUSIONTEMPLE_START_TIME,std::allocator<ILLUSIONTEMPLE_START_TIME> >::_List_val<ILLUSIONTEMPLE_START_TIME,std::allocator<ILLUSIONTEMPLE_START_TIME> >
; Function compile flags: /Ogtp
; File d:\program files (x86)\microsoft visual studio 10.0\vc\include\list
;	COMDAT ??0?$_List_val@UILLUSIONTEMPLE_START_TIME@@V?$allocator@UILLUSIONTEMPLE_START_TIME@@@std@@@std@@QAE@V?$allocator@UILLUSIONTEMPLE_START_TIME@@@1@@Z
_TEXT	SEGMENT
$T218356 = -16						; size = 12
$T218339 = -4						; size = 4
__Al$ = 8						; size = 1
??0?$_List_val@UILLUSIONTEMPLE_START_TIME@@V?$allocator@UILLUSIONTEMPLE_START_TIME@@@std@@@std@@QAE@V?$allocator@UILLUSIONTEMPLE_START_TIME@@@1@@Z PROC ; std::_List_val<ILLUSIONTEMPLE_START_TIME,std::allocator<ILLUSIONTEMPLE_START_TIME> >::_List_val<ILLUSIONTEMPLE_START_TIME,std::allocator<ILLUSIONTEMPLE_START_TIME> >, COMDAT
; _this$ = ecx

; 493  : 		{	// construct base, and allocator from _Al

  00000	55		 push	 ebp
  00001	8b ec		 mov	 ebp, esp
  00003	83 ec 10	 sub	 esp, 16			; 00000010H
  00006	56		 push	 esi
  00007	8b f1		 mov	 esi, ecx

; 494  : 		this->_Mysize = 0;
; 495  : 		this->_Myhead = this->_Alnod.allocate(1);

  00009	6a 10		 push	 16			; 00000010H
  0000b	c7 46 04 00 00
	00 00		 mov	 DWORD PTR [esi+4], 0
  00012	e8 00 00 00 00	 call	 ??2@YAPAXI@Z		; operator new
  00017	83 c4 04	 add	 esp, 4
  0001a	85 c0		 test	 eax, eax
  0001c	74 12		 je	 SHORT $LN13@List_val
  0001e	89 06		 mov	 DWORD PTR [esi], eax

; 496  : 		this->_Nextnode(this->_Myhead) = this->_Myhead;

  00020	89 00		 mov	 DWORD PTR [eax], eax

; 497  : 		this->_Prevnode(this->_Myhead) = this->_Myhead;

  00022	8b 06		 mov	 eax, DWORD PTR [esi]
  00024	89 40 04	 mov	 DWORD PTR [eax+4], eax

; 498  : 		}

  00027	8b c6		 mov	 eax, esi
  00029	5e		 pop	 esi
  0002a	8b e5		 mov	 esp, ebp
  0002c	5d		 pop	 ebp
  0002d	c2 04 00	 ret	 4

; 494  : 		this->_Mysize = 0;
; 495  : 		this->_Myhead = this->_Alnod.allocate(1);

$LN13@List_val:
  00030	8d 45 fc	 lea	 eax, DWORD PTR $T218339[ebp]
  00033	50		 push	 eax
  00034	8d 4d f0	 lea	 ecx, DWORD PTR $T218356[ebp]
  00037	c7 45 fc 00 00
	00 00		 mov	 DWORD PTR $T218339[ebp], 0
  0003e	e8 00 00 00 00	 call	 ??0exception@std@@QAE@ABQBD@Z ; std::exception::exception
  00043	68 00 00 00 00	 push	 OFFSET __TI2?AVbad_alloc@std@@
  00048	8d 4d f0	 lea	 ecx, DWORD PTR $T218356[ebp]
  0004b	51		 push	 ecx
  0004c	c7 45 f0 00 00
	00 00		 mov	 DWORD PTR $T218356[ebp], OFFSET ??_7bad_alloc@std@@6B@
  00053	e8 00 00 00 00	 call	 __CxxThrowException@8
$LN29@List_val:
$LN28@List_val:
  00058	cc		 int	 3
??0?$_List_val@UILLUSIONTEMPLE_START_TIME@@V?$allocator@UILLUSIONTEMPLE_START_TIME@@@std@@@std@@QAE@V?$allocator@UILLUSIONTEMPLE_START_TIME@@@1@@Z ENDP ; std::_List_val<ILLUSIONTEMPLE_START_TIME,std::allocator<ILLUSIONTEMPLE_START_TIME> >::_List_val<ILLUSIONTEMPLE_START_TIME,std::allocator<ILLUSIONTEMPLE_START_TIME> >
_TEXT	ENDS
PUBLIC	??0?$_List_iterator@V?$_List_val@UILLUSIONTEMPLE_START_TIME@@V?$allocator@UILLUSIONTEMPLE_START_TIME@@@std@@@std@@@std@@QAE@PAU_Node@?$_List_nod@UILLUSIONTEMPLE_START_TIME@@V?$allocator@UILLUSIONTEMPLE_START_TIME@@@std@@@1@PBV?$_List_val@UILLUSIONTEMPLE_START_TIME@@V?$allocator@UILLUSIONTEMPLE_START_TIME@@@std@@@1@@Z ; std::_List_iterator<std::_List_val<ILLUSIONTEMPLE_START_TIME,std::allocator<ILLUSIONTEMPLE_START_TIME> > >::_List_iterator<std::_List_val<ILLUSIONTEMPLE_START_TIME,std::allocator<ILLUSIONTEMPLE_START_TIME> > >
; Function compile flags: /Ogtp
;	COMDAT ??0?$_List_iterator@V?$_List_val@UILLUSIONTEMPLE_START_TIME@@V?$allocator@UILLUSIONTEMPLE_START_TIME@@@std@@@std@@@std@@QAE@PAU_Node@?$_List_nod@UILLUSIONTEMPLE_START_TIME@@V?$allocator@UILLUSIONTEMPLE_START_TIME@@@std@@@1@PBV?$_List_val@UILLUSIONTEMPLE_START_TIME@@V?$allocator@UILLUSIONTEMPLE_START_TIME@@@std@@@1@@Z
_TEXT	SEGMENT
__Pnode$ = 8						; size = 4
__Plist$ = 12						; size = 4
??0?$_List_iterator@V?$_List_val@UILLUSIONTEMPLE_START_TIME@@V?$allocator@UILLUSIONTEMPLE_START_TIME@@@std@@@std@@@std@@QAE@PAU_Node@?$_List_nod@UILLUSIONTEMPLE_START_TIME@@V?$allocator@UILLUSIONTEMPLE_START_TIME@@@std@@@1@PBV?$_List_val@UILLUSIONTEMPLE_START_TIME@@V?$allocator@UILLUSIONTEMPLE_START_TIME@@@std@@@1@@Z PROC ; std::_List_iterator<std::_List_val<ILLUSIONTEMPLE_START_TIME,std::allocator<ILLUSIONTEMPLE_START_TIME> > >::_List_iterator<std::_List_val<ILLUSIONTEMPLE_START_TIME,std::allocator<ILLUSIONTEMPLE_START_TIME> > >, COMDAT
; _this$ = ecx

; 342  : 		{	// construct with node pointer _Pnode

  00000	55		 push	 ebp
  00001	8b ec		 mov	 ebp, esp
  00003	8b c1		 mov	 eax, ecx
  00005	8b 4d 08	 mov	 ecx, DWORD PTR __Pnode$[ebp]
  00008	89 08		 mov	 DWORD PTR [eax], ecx

; 343  : 		}

  0000a	5d		 pop	 ebp
  0000b	c2 08 00	 ret	 8
??0?$_List_iterator@V?$_List_val@UILLUSIONTEMPLE_START_TIME@@V?$allocator@UILLUSIONTEMPLE_START_TIME@@@std@@@std@@@std@@QAE@PAU_Node@?$_List_nod@UILLUSIONTEMPLE_START_TIME@@V?$allocator@UILLUSIONTEMPLE_START_TIME@@@std@@@1@PBV?$_List_val@UILLUSIONTEMPLE_START_TIME@@V?$allocator@UILLUSIONTEMPLE_START_TIME@@@std@@@1@@Z ENDP ; std::_List_iterator<std::_List_val<ILLUSIONTEMPLE_START_TIME,std::allocator<ILLUSIONTEMPLE_START_TIME> > >::_List_iterator<std::_List_val<ILLUSIONTEMPLE_START_TIME,std::allocator<ILLUSIONTEMPLE_START_TIME> > >
_TEXT	ENDS
PUBLIC	?clear@?$list@UILLUSIONTEMPLE_START_TIME@@V?$allocator@UILLUSIONTEMPLE_START_TIME@@@std@@@std@@QAEXXZ ; std::list<ILLUSIONTEMPLE_START_TIME,std::allocator<ILLUSIONTEMPLE_START_TIME> >::clear
; Function compile flags: /Ogtp
;	COMDAT ?clear@?$list@UILLUSIONTEMPLE_START_TIME@@V?$allocator@UILLUSIONTEMPLE_START_TIME@@@std@@@std@@QAEXXZ
_TEXT	SEGMENT
?clear@?$list@UILLUSIONTEMPLE_START_TIME@@V?$allocator@UILLUSIONTEMPLE_START_TIME@@@std@@@std@@QAEXXZ PROC ; std::list<ILLUSIONTEMPLE_START_TIME,std::allocator<ILLUSIONTEMPLE_START_TIME> >::clear, COMDAT
; _this$ = ecx

; 1096 : 		{	// erase all

  00000	56		 push	 esi
  00001	8b f1		 mov	 esi, ecx

; 1097 :  #if _ITERATOR_DEBUG_LEVEL == 2
; 1098 : 		this->_Orphan_ptr(*this, 0);
; 1099 :  #endif /* _ITERATOR_DEBUG_LEVEL == 2 */
; 1100 : 
; 1101 : 		_Nodeptr _Pnext;
; 1102 : 		_Nodeptr _Pnode = this->_Nextnode(this->_Myhead);

  00003	8b 0e		 mov	 ecx, DWORD PTR [esi]
  00005	8b 01		 mov	 eax, DWORD PTR [ecx]

; 1103 : 		this->_Nextnode(this->_Myhead) = this->_Myhead;

  00007	89 09		 mov	 DWORD PTR [ecx], ecx

; 1104 : 		this->_Prevnode(this->_Myhead) = this->_Myhead;

  00009	8b 0e		 mov	 ecx, DWORD PTR [esi]
  0000b	89 49 04	 mov	 DWORD PTR [ecx+4], ecx

; 1105 : 		this->_Mysize = 0;

  0000e	c7 46 04 00 00
	00 00		 mov	 DWORD PTR [esi+4], 0

; 1106 : 
; 1107 : 		for (; _Pnode != this->_Myhead; _Pnode = _Pnext)

  00015	3b 06		 cmp	 eax, DWORD PTR [esi]
  00017	74 19		 je	 SHORT $LN1@clear
  00019	57		 push	 edi
  0001a	8d 9b 00 00 00
	00		 npad	 6
$LL3@clear:

; 1108 : 			{	// delete an element
; 1109 : 			_Pnext = this->_Nextnode(_Pnode);

  00020	8b 38		 mov	 edi, DWORD PTR [eax]

; 1110 : 
; 1111 : 			_Dest_val(this->_Alnod, _Pnode);
; 1112 : 			this->_Alnod.deallocate(_Pnode, 1);

  00022	50		 push	 eax
  00023	e8 00 00 00 00	 call	 ??3@YAXPAX@Z		; operator delete
  00028	83 c4 04	 add	 esp, 4
  0002b	8b c7		 mov	 eax, edi
  0002d	3b 3e		 cmp	 edi, DWORD PTR [esi]
  0002f	75 ef		 jne	 SHORT $LL3@clear
  00031	5f		 pop	 edi
$LN1@clear:
  00032	5e		 pop	 esi

; 1113 : 			}
; 1114 : 		}

  00033	c3		 ret	 0
?clear@?$list@UILLUSIONTEMPLE_START_TIME@@V?$allocator@UILLUSIONTEMPLE_START_TIME@@@std@@@std@@QAEXXZ ENDP ; std::list<ILLUSIONTEMPLE_START_TIME,std::allocator<ILLUSIONTEMPLE_START_TIME> >::clear
_TEXT	ENDS
PUBLIC	??0?$list@UILLUSIONTEMPLE_START_TIME@@V?$allocator@UILLUSIONTEMPLE_START_TIME@@@std@@@std@@QAE@XZ ; std::list<ILLUSIONTEMPLE_START_TIME,std::allocator<ILLUSIONTEMPLE_START_TIME> >::list<ILLUSIONTEMPLE_START_TIME,std::allocator<ILLUSIONTEMPLE_START_TIME> >
; Function compile flags: /Ogtp
;	COMDAT ??0?$list@UILLUSIONTEMPLE_START_TIME@@V?$allocator@UILLUSIONTEMPLE_START_TIME@@@std@@@std@@QAE@XZ
_TEXT	SEGMENT
$T218504 = -16						; size = 12
$T218450 = -4						; size = 4
??0?$list@UILLUSIONTEMPLE_START_TIME@@V?$allocator@UILLUSIONTEMPLE_START_TIME@@@std@@@std@@QAE@XZ PROC ; std::list<ILLUSIONTEMPLE_START_TIME,std::allocator<ILLUSIONTEMPLE_START_TIME> >::list<ILLUSIONTEMPLE_START_TIME,std::allocator<ILLUSIONTEMPLE_START_TIME> >, COMDAT
; _this$ = ecx

; 607  : 		{	// construct empty list

  00000	55		 push	 ebp
  00001	8b ec		 mov	 ebp, esp
  00003	83 ec 10	 sub	 esp, 16			; 00000010H
  00006	56		 push	 esi
  00007	8b f1		 mov	 esi, ecx
  00009	6a 10		 push	 16			; 00000010H
  0000b	c7 46 04 00 00
	00 00		 mov	 DWORD PTR [esi+4], 0
  00012	e8 00 00 00 00	 call	 ??2@YAPAXI@Z		; operator new
  00017	83 c4 04	 add	 esp, 4
  0001a	85 c0		 test	 eax, eax
  0001c	74 10		 je	 SHORT $LN18@list
  0001e	89 06		 mov	 DWORD PTR [esi], eax
  00020	89 00		 mov	 DWORD PTR [eax], eax
  00022	8b 06		 mov	 eax, DWORD PTR [esi]
  00024	89 40 04	 mov	 DWORD PTR [eax+4], eax

; 608  : 		}

  00027	8b c6		 mov	 eax, esi
  00029	5e		 pop	 esi
  0002a	8b e5		 mov	 esp, ebp
  0002c	5d		 pop	 ebp
  0002d	c3		 ret	 0

; 607  : 		{	// construct empty list

$LN18@list:
  0002e	8d 45 fc	 lea	 eax, DWORD PTR $T218450[ebp]
  00031	50		 push	 eax
  00032	8d 4d f0	 lea	 ecx, DWORD PTR $T218504[ebp]
  00035	c7 45 fc 00 00
	00 00		 mov	 DWORD PTR $T218450[ebp], 0
  0003c	e8 00 00 00 00	 call	 ??0exception@std@@QAE@ABQBD@Z ; std::exception::exception
  00041	68 00 00 00 00	 push	 OFFSET __TI2?AVbad_alloc@std@@
  00046	8d 4d f0	 lea	 ecx, DWORD PTR $T218504[ebp]
  00049	51		 push	 ecx
  0004a	c7 45 f0 00 00
	00 00		 mov	 DWORD PTR $T218504[ebp], OFFSET ??_7bad_alloc@std@@6B@
  00051	e8 00 00 00 00	 call	 __CxxThrowException@8
$LN35@list:
$LN34@list:
  00056	cc		 int	 3
??0?$list@UILLUSIONTEMPLE_START_TIME@@V?$allocator@UILLUSIONTEMPLE_START_TIME@@@std@@@std@@QAE@XZ ENDP ; std::list<ILLUSIONTEMPLE_START_TIME,std::allocator<ILLUSIONTEMPLE_START_TIME> >::list<ILLUSIONTEMPLE_START_TIME,std::allocator<ILLUSIONTEMPLE_START_TIME> >
_TEXT	ENDS
PUBLIC	?begin@?$list@UILLUSIONTEMPLE_START_TIME@@V?$allocator@UILLUSIONTEMPLE_START_TIME@@@std@@@std@@QAE?AV?$_List_iterator@V?$_List_val@UILLUSIONTEMPLE_START_TIME@@V?$allocator@UILLUSIONTEMPLE_START_TIME@@@std@@@std@@@2@XZ ; std::list<ILLUSIONTEMPLE_START_TIME,std::allocator<ILLUSIONTEMPLE_START_TIME> >::begin
; Function compile flags: /Ogtp
;	COMDAT ?begin@?$list@UILLUSIONTEMPLE_START_TIME@@V?$allocator@UILLUSIONTEMPLE_START_TIME@@@std@@@std@@QAE?AV?$_List_iterator@V?$_List_val@UILLUSIONTEMPLE_START_TIME@@V?$allocator@UILLUSIONTEMPLE_START_TIME@@@std@@@std@@@2@XZ
_TEXT	SEGMENT
___$ReturnUdt$ = 8					; size = 4
?begin@?$list@UILLUSIONTEMPLE_START_TIME@@V?$allocator@UILLUSIONTEMPLE_START_TIME@@@std@@@std@@QAE?AV?$_List_iterator@V?$_List_val@UILLUSIONTEMPLE_START_TIME@@V?$allocator@UILLUSIONTEMPLE_START_TIME@@@std@@@std@@@2@XZ PROC ; std::list<ILLUSIONTEMPLE_START_TIME,std::allocator<ILLUSIONTEMPLE_START_TIME> >::begin, COMDAT
; _this$ = ecx

; 781  : 		{	// return iterator for beginning of mutable sequence

  00000	55		 push	 ebp
  00001	8b ec		 mov	 ebp, esp

; 782  : 		return (iterator(this->_Nextnode(this->_Myhead), this));

  00003	8b 01		 mov	 eax, DWORD PTR [ecx]
  00005	8b 08		 mov	 ecx, DWORD PTR [eax]
  00007	8b 45 08	 mov	 eax, DWORD PTR ___$ReturnUdt$[ebp]
  0000a	89 08		 mov	 DWORD PTR [eax], ecx

; 783  : 		}

  0000c	5d		 pop	 ebp
  0000d	c2 04 00	 ret	 4
?begin@?$list@UILLUSIONTEMPLE_START_TIME@@V?$allocator@UILLUSIONTEMPLE_START_TIME@@@std@@@std@@QAE?AV?$_List_iterator@V?$_List_val@UILLUSIONTEMPLE_START_TIME@@V?$allocator@UILLUSIONTEMPLE_START_TIME@@@std@@@std@@@2@XZ ENDP ; std::list<ILLUSIONTEMPLE_START_TIME,std::allocator<ILLUSIONTEMPLE_START_TIME> >::begin
_TEXT	ENDS
PUBLIC	?end@?$list@UILLUSIONTEMPLE_START_TIME@@V?$allocator@UILLUSIONTEMPLE_START_TIME@@@std@@@std@@QAE?AV?$_List_iterator@V?$_List_val@UILLUSIONTEMPLE_START_TIME@@V?$allocator@UILLUSIONTEMPLE_START_TIME@@@std@@@std@@@2@XZ ; std::list<ILLUSIONTEMPLE_START_TIME,std::allocator<ILLUSIONTEMPLE_START_TIME> >::end
; Function compile flags: /Ogtp
;	COMDAT ?end@?$list@UILLUSIONTEMPLE_START_TIME@@V?$allocator@UILLUSIONTEMPLE_START_TIME@@@std@@@std@@QAE?AV?$_List_iterator@V?$_List_val@UILLUSIONTEMPLE_START_TIME@@V?$allocator@UILLUSIONTEMPLE_START_TIME@@@std@@@std@@@2@XZ
_TEXT	SEGMENT
___$ReturnUdt$ = 8					; size = 4
?end@?$list@UILLUSIONTEMPLE_START_TIME@@V?$allocator@UILLUSIONTEMPLE_START_TIME@@@std@@@std@@QAE?AV?$_List_iterator@V?$_List_val@UILLUSIONTEMPLE_START_TIME@@V?$allocator@UILLUSIONTEMPLE_START_TIME@@@std@@@std@@@2@XZ PROC ; std::list<ILLUSIONTEMPLE_START_TIME,std::allocator<ILLUSIONTEMPLE_START_TIME> >::end, COMDAT
; _this$ = ecx

; 791  : 		{	// return iterator for end of mutable sequence

  00000	55		 push	 ebp
  00001	8b ec		 mov	 ebp, esp

; 792  : 		return (iterator(this->_Myhead, this));

  00003	8b 09		 mov	 ecx, DWORD PTR [ecx]
  00005	8b 45 08	 mov	 eax, DWORD PTR ___$ReturnUdt$[ebp]
  00008	89 08		 mov	 DWORD PTR [eax], ecx

; 793  : 		}

  0000a	5d		 pop	 ebp
  0000b	c2 04 00	 ret	 4
?end@?$list@UILLUSIONTEMPLE_START_TIME@@V?$allocator@UILLUSIONTEMPLE_START_TIME@@@std@@@std@@QAE?AV?$_List_iterator@V?$_List_val@UILLUSIONTEMPLE_START_TIME@@V?$allocator@UILLUSIONTEMPLE_START_TIME@@@std@@@std@@@2@XZ ENDP ; std::list<ILLUSIONTEMPLE_START_TIME,std::allocator<ILLUSIONTEMPLE_START_TIME> >::end
_TEXT	ENDS
PUBLIC	?_Tidy@?$list@UILLUSIONTEMPLE_START_TIME@@V?$allocator@UILLUSIONTEMPLE_START_TIME@@@std@@@std@@QAEXXZ ; std::list<ILLUSIONTEMPLE_START_TIME,std::allocator<ILLUSIONTEMPLE_START_TIME> >::_Tidy
; Function compile flags: /Ogtp
;	COMDAT ?_Tidy@?$list@UILLUSIONTEMPLE_START_TIME@@V?$allocator@UILLUSIONTEMPLE_START_TIME@@@std@@@std@@QAEXXZ
_TEXT	SEGMENT
?_Tidy@?$list@UILLUSIONTEMPLE_START_TIME@@V?$allocator@UILLUSIONTEMPLE_START_TIME@@@std@@@std@@QAEXXZ PROC ; std::list<ILLUSIONTEMPLE_START_TIME,std::allocator<ILLUSIONTEMPLE_START_TIME> >::_Tidy, COMDAT
; _this$ = ecx

; 1496 : 		{	// free all storage

  00000	56		 push	 esi
  00001	8b f1		 mov	 esi, ecx

; 1497 : 		clear();

  00003	8b 0e		 mov	 ecx, DWORD PTR [esi]
  00005	8b 01		 mov	 eax, DWORD PTR [ecx]
  00007	89 09		 mov	 DWORD PTR [ecx], ecx
  00009	8b 0e		 mov	 ecx, DWORD PTR [esi]
  0000b	89 49 04	 mov	 DWORD PTR [ecx+4], ecx
  0000e	c7 46 04 00 00
	00 00		 mov	 DWORD PTR [esi+4], 0
  00015	3b 06		 cmp	 eax, DWORD PTR [esi]
  00017	74 19		 je	 SHORT $LN3@Tidy
  00019	57		 push	 edi
  0001a	8d 9b 00 00 00
	00		 npad	 6
$LL5@Tidy:
  00020	8b 38		 mov	 edi, DWORD PTR [eax]
  00022	50		 push	 eax
  00023	e8 00 00 00 00	 call	 ??3@YAXPAX@Z		; operator delete
  00028	83 c4 04	 add	 esp, 4
  0002b	8b c7		 mov	 eax, edi
  0002d	3b 3e		 cmp	 edi, DWORD PTR [esi]
  0002f	75 ef		 jne	 SHORT $LL5@Tidy
  00031	5f		 pop	 edi
$LN3@Tidy:
  00032	5e		 pop	 esi

; 1498 : 		}

  00033	c3		 ret	 0
?_Tidy@?$list@UILLUSIONTEMPLE_START_TIME@@V?$allocator@UILLUSIONTEMPLE_START_TIME@@@std@@@std@@QAEXXZ ENDP ; std::list<ILLUSIONTEMPLE_START_TIME,std::allocator<ILLUSIONTEMPLE_START_TIME> >::_Tidy
_TEXT	ENDS
PUBLIC	??_C@_0DG@NJOPLNIL@?$FLIllusion?5Temple?$FN?5?$CI?$CFd?$CJ?5Sync?5Open@ ; `string'
PUBLIC	??_C@_0CM@GMBNLABJ@Error?5?3?5Illusion?5Temple?5StartTim@ ; `string'
PUBLIC	?CheckSync@CIllusionTempleProcess@@QAEXXZ	; CIllusionTempleProcess::CheckSync
EXTRN	?m_i_IT_OpenTime@@3HA:DWORD			; m_i_IT_OpenTime
EXTRN	?MsgBox@@YAXPADZZ:PROC				; MsgBox
;	COMDAT ??_C@_0DG@NJOPLNIL@?$FLIllusion?5Temple?$FN?5?$CI?$CFd?$CJ?5Sync?5Open@
CONST	SEGMENT
??_C@_0DG@NJOPLNIL@?$FLIllusion?5Temple?$FN?5?$CI?$CFd?$CJ?5Sync?5Open@ DB '['
	DB	'Illusion Temple] (%d) Sync Open Time. [%d]min remain', 00H ; `string'
CONST	ENDS
;	COMDAT ??_C@_0CM@GMBNLABJ@Error?5?3?5Illusion?5Temple?5StartTim@
CONST	SEGMENT
??_C@_0CM@GMBNLABJ@Error?5?3?5Illusion?5Temple?5StartTim@ DB 'Error : Ill'
	DB	'usion Temple StartTime size is 0', 00H	; `string'
; Function compile flags: /Ogtp
; File e:\work\tranet_version\gs\gameserver\illusiontempleprocess.cpp
CONST	ENDS
;	COMDAT ?CheckSync@CIllusionTempleProcess@@QAEXXZ
_TEXT	SEGMENT
_WebzenVar2$ = -28					; size = 8
_ltime$ = -28						; size = 8
_WebzenVar1$ = -20					; size = 8
_loc12$ = -12						; size = 4
_today$ = -12						; size = 4
_this$ = -8						; size = 4
_CurrentTime$ = -4					; size = 4
?CheckSync@CIllusionTempleProcess@@QAEXXZ PROC		; CIllusionTempleProcess::CheckSync, COMDAT
; _this$ = ecx

; 110  : {

  00000	55		 push	 ebp
  00001	8b ec		 mov	 ebp, esp
  00003	83 ec 1c	 sub	 esp, 28			; 0000001cH

; 111  : 	std::list<ILLUSIONTEMPLE_START_TIME>::iterator it;
; 112  : 	ILLUSIONTEMPLE_START_TIME WebzenVar1;
; 113  : 	ILLUSIONTEMPLE_START_TIME WebzenVar2;
; 114  : 	int BaseTime = 0;
; 115  : 	int CheckTime = 0;
; 116  : 	DWORD CurrentTime = 0;
; 117  : 	
; 118  : 	tm * today;
; 119  : 	time_t ltime;
; 120  : 
; 121  : 	int loc12;
; 122  : 	int loc13;
; 123  : 
; 124  : 	if(m_listIllusionTempleOpenTime.size() == 0)

  00006	83 3d 04 00 00
	00 00		 cmp	 DWORD PTR ?m_listIllusionTempleOpenTime@@3V?$list@UILLUSIONTEMPLE_START_TIME@@V?$allocator@UILLUSIONTEMPLE_START_TIME@@@std@@@std@@A+4, 0
  0000d	89 4d f8	 mov	 DWORD PTR _this$[ebp], ecx
  00010	75 11		 jne	 SHORT $LN16@CheckSync

; 125  : 	{
; 126  : 		MsgBox("Error : Illusion Temple StartTime size is 0");

  00012	68 00 00 00 00	 push	 OFFSET ??_C@_0CM@GMBNLABJ@Error?5?3?5Illusion?5Temple?5StartTim@
  00017	e8 00 00 00 00	 call	 ?MsgBox@@YAXPADZZ	; MsgBox
  0001c	83 c4 04	 add	 esp, 4

; 202  : }

  0001f	8b e5		 mov	 esp, ebp
  00021	5d		 pop	 ebp
  00022	c3		 ret	 0
$LN16@CheckSync:
  00023	53		 push	 ebx
  00024	56		 push	 esi

; 127  : 		return;
; 128  : 	}
; 129  : 
; 130  : 	time(&ltime);

  00025	8d 45 e4	 lea	 eax, DWORD PTR _ltime$[ebp]
  00028	57		 push	 edi
  00029	50		 push	 eax
  0002a	e8 00 00 00 00	 call	 __time64

; 131  : 	today = localtime(&ltime);

  0002f	8d 4d e4	 lea	 ecx, DWORD PTR _ltime$[ebp]
  00032	51		 push	 ecx
  00033	e8 00 00 00 00	 call	 __localtime64

; 132  : 
; 133  : 	
; 134  : 	CurrentTime = (today->tm_hour * 60) + today->tm_min;
; 135  : 	WebzenVar1 = *m_listIllusionTempleOpenTime.begin();

  00038	8b 35 00 00 00
	00		 mov	 esi, DWORD PTR ?m_listIllusionTempleOpenTime@@3V?$list@UILLUSIONTEMPLE_START_TIME@@V?$allocator@UILLUSIONTEMPLE_START_TIME@@@std@@@std@@A
  0003e	8b f8		 mov	 edi, eax
  00040	8b 47 08	 mov	 eax, DWORD PTR [edi+8]
  00043	8b d0		 mov	 edx, eax
  00045	c1 e2 04	 shl	 edx, 4
  00048	2b d0		 sub	 edx, eax
  0004a	8b 47 04	 mov	 eax, DWORD PTR [edi+4]
  0004d	8d 0c 90	 lea	 ecx, DWORD PTR [eax+edx*4]
  00050	8b 06		 mov	 eax, DWORD PTR [esi]
  00052	8b 50 0c	 mov	 edx, DWORD PTR [eax+12]
  00055	83 c4 08	 add	 esp, 8
  00058	89 4d fc	 mov	 DWORD PTR _CurrentTime$[ebp], ecx
  0005b	8b 48 08	 mov	 ecx, DWORD PTR [eax+8]
  0005e	89 7d f4	 mov	 DWORD PTR _today$[ebp], edi
  00061	89 55 f0	 mov	 DWORD PTR _WebzenVar1$[ebp+4], edx

; 136  : 
; 137  : 	for( it = m_listIllusionTempleOpenTime.begin(); it != m_listIllusionTempleOpenTime.end(); ++it )

  00064	3b c6		 cmp	 eax, esi
  00066	0f 84 08 01 00
	00		 je	 $LN163@CheckSync
  0006c	8d 64 24 00	 npad	 4
$LL63@CheckSync:

; 138  : 	{
; 139  : 		WebzenVar2 = *it;

  00070	8b 50 08	 mov	 edx, DWORD PTR [eax+8]

; 140  : 		BaseTime = (WebzenVar1.m_iHour * 60) + WebzenVar1.m_iMinute;

  00073	8b 7d f0	 mov	 edi, DWORD PTR _WebzenVar1$[ebp+4]
  00076	8b 58 0c	 mov	 ebx, DWORD PTR [eax+12]
  00079	8b f1		 mov	 esi, ecx
  0007b	c1 e6 04	 shl	 esi, 4
  0007e	2b f1		 sub	 esi, ecx
  00080	8d 3c b7	 lea	 edi, DWORD PTR [edi+esi*4]

; 141  : 		CheckTime =	(WebzenVar2.m_iHour * 60) + WebzenVar2.m_iMinute;

  00083	8b f2		 mov	 esi, edx
  00085	c1 e6 04	 shl	 esi, 4
  00088	2b f2		 sub	 esi, edx
  0008a	8d 34 b3	 lea	 esi, DWORD PTR [ebx+esi*4]

; 142  : 
; 143  : 		if( BaseTime == CheckTime )

  0008d	3b fe		 cmp	 edi, esi
  0008f	0f 85 b4 00 00
	00		 jne	 $LN12@CheckSync

; 144  : 		{
; 145  : 			if( CurrentTime < CheckTime )

  00095	39 75 fc	 cmp	 DWORD PTR _CurrentTime$[ebp], esi
  00098	0f 83 c1 00 00
	00		 jae	 $LN14@CheckSync
$LN164@CheckSync:

; 146  : 			{
; 147  : 				WebzenVar2 = *it;

  0009e	8b 35 00 00 00
	00		 mov	 esi, DWORD PTR ?m_listIllusionTempleOpenTime@@3V?$list@UILLUSIONTEMPLE_START_TIME@@V?$allocator@UILLUSIONTEMPLE_START_TIME@@@std@@@std@@A
$LN166@CheckSync:
  000a4	8b 7d f4	 mov	 edi, DWORD PTR _today$[ebp]
$LN160@CheckSync:

; 160  : 		}
; 161  : 	}
; 162  : 
; 163  : 	for(loc12 = 2;loc12--;)

  000a7	c7 45 f4 02 00
	00 00		 mov	 DWORD PTR _loc12$[ebp], 2
  000ae	8b ff		 npad	 2
$LL8@CheckSync:
  000b0	ff 4d f4	 dec	 DWORD PTR _loc12$[ebp]

; 164  : 	{
; 165  : 		if(it == m_listIllusionTempleOpenTime.end())

  000b3	3b c6		 cmp	 eax, esi
  000b5	75 08		 jne	 SHORT $LN6@CheckSync

; 166  : 		{
; 167  : 			it = m_listIllusionTempleOpenTime.begin();

  000b7	8b 06		 mov	 eax, DWORD PTR [esi]

; 168  : 
; 169  : 			WebzenVar2 = (*it);

  000b9	8b 50 08	 mov	 edx, DWORD PTR [eax+8]
  000bc	8b 58 0c	 mov	 ebx, DWORD PTR [eax+12]
$LN6@CheckSync:

; 170  : 		}
; 171  : 
; 172  : 		CheckTime = WebzenVar2.m_iHour*60+WebzenVar2.m_iMinute;
; 173  : 
; 174  : 		if(today->tm_hour <= WebzenVar2.m_iHour)
; 175  : 		{
; 176  : 			this->m_iLeftMinutesBeforeOpen = CheckTime - CurrentTime;

  000bf	8b 75 f8	 mov	 esi, DWORD PTR _this$[ebp]
  000c2	8b ca		 mov	 ecx, edx
  000c4	c1 e1 04	 shl	 ecx, 4
  000c7	2b ca		 sub	 ecx, edx
  000c9	8d 0c 8b	 lea	 ecx, DWORD PTR [ebx+ecx*4]
  000cc	2b 4d fc	 sub	 ecx, DWORD PTR _CurrentTime$[ebp]
  000cf	39 57 08	 cmp	 DWORD PTR [edi+8], edx

; 177  : 		}
; 178  : 		else

  000d2	7e 06		 jle	 SHORT $LN167@CheckSync

; 179  : 		{
; 180  : 			this->m_iLeftMinutesBeforeOpen = 1440-CurrentTime+CheckTime;

  000d4	81 c1 a0 05 00
	00		 add	 ecx, 1440		; 000005a0H
$LN167@CheckSync:
  000da	89 8e 98 03 00
	00		 mov	 DWORD PTR [esi+920], ecx

; 181  : 		}
; 182  : 
; 183  : 		if(this->m_iLeftMinutesBeforeOpen <= m_i_IT_OpenTime)

  000e0	8b 8e 98 03 00
	00		 mov	 ecx, DWORD PTR [esi+920]
  000e6	3b 0d 00 00 00
	00		 cmp	 ecx, DWORD PTR ?m_i_IT_OpenTime@@3HA ; m_i_IT_OpenTime
  000ec	7f 1b		 jg	 SHORT $LN3@CheckSync

; 184  : 		{
; 185  : 			it++;

  000ee	8b 00		 mov	 eax, DWORD PTR [eax]

; 186  : 
; 187  : 			if(it != m_listIllusionTempleOpenTime.end())

  000f0	8b 35 00 00 00
	00		 mov	 esi, DWORD PTR ?m_listIllusionTempleOpenTime@@3V?$list@UILLUSIONTEMPLE_START_TIME@@V?$allocator@UILLUSIONTEMPLE_START_TIME@@@std@@@std@@A
  000f6	3b c6		 cmp	 eax, esi
  000f8	74 06		 je	 SHORT $LN2@CheckSync

; 188  : 			{
; 189  : 				WebzenVar2 = (*it);

  000fa	8b 50 08	 mov	 edx, DWORD PTR [eax+8]
  000fd	8b 58 0c	 mov	 ebx, DWORD PTR [eax+12]
$LN2@CheckSync:

; 160  : 		}
; 161  : 	}
; 162  : 
; 163  : 	for(loc12 = 2;loc12--;)

  00100	83 7d f4 00	 cmp	 DWORD PTR _loc12$[ebp], 0
  00104	75 aa		 jne	 SHORT $LL8@CheckSync
  00106	8b 75 f8	 mov	 esi, DWORD PTR _this$[ebp]
$LN3@CheckSync:

; 190  : 			}
; 191  : 		}
; 192  : 		else
; 193  : 		{
; 194  : 			break;
; 195  : 		}
; 196  : 	}
; 197  : 
; 198  : 	loc13 = GetTickCount();

  00109	ff 15 00 00 00
	00		 call	 DWORD PTR __imp__GetTickCount@0

; 199  : 	this->m_iOpenTickCount = loc13 + (60000 - (today->tm_sec * 1000));
; 200  : 
; 201  : 	LogAddTD("[Illusion Temple] (%d) Sync Open Time. [%d]min remain", this->m_btFloorIndex+1, this->m_iLeftMinutesBeforeOpen);

  0010f	0f b6 8e 2c 02
	00 00		 movzx	 ecx, BYTE PTR [esi+556]
  00116	ba 3c 00 00 00	 mov	 edx, 60			; 0000003cH
  0011b	2b 17		 sub	 edx, DWORD PTR [edi]
  0011d	41		 inc	 ecx
  0011e	69 d2 e8 03 00
	00		 imul	 edx, 1000		; 000003e8H
  00124	03 d0		 add	 edx, eax
  00126	8b 86 98 03 00
	00		 mov	 eax, DWORD PTR [esi+920]
  0012c	50		 push	 eax
  0012d	51		 push	 ecx
  0012e	68 00 00 00 00	 push	 OFFSET ??_C@_0DG@NJOPLNIL@?$FLIllusion?5Temple?$FN?5?$CI?$CFd?$CJ?5Sync?5Open@
  00133	89 96 a4 03 00
	00		 mov	 DWORD PTR [esi+932], edx
  00139	ff 15 00 00 00
	00		 call	 DWORD PTR ?LogAddTD@@3P6AXPADZZA ; LogAddTD
  0013f	83 c4 0c	 add	 esp, 12			; 0000000cH
  00142	5f		 pop	 edi
  00143	5e		 pop	 esi
  00144	5b		 pop	 ebx

; 202  : }

  00145	8b e5		 mov	 esp, ebp
  00147	5d		 pop	 ebp
  00148	c3		 ret	 0
$LN12@CheckSync:

; 148  : 				break;
; 149  : 			}
; 150  : 			continue;
; 151  : 		}
; 152  : 		
; 153  : 		if( CurrentTime >= BaseTime && CurrentTime < CheckTime )

  00149	8b 4d fc	 mov	 ecx, DWORD PTR _CurrentTime$[ebp]
  0014c	3b cf		 cmp	 ecx, edi
  0014e	72 08		 jb	 SHORT $LN10@CheckSync
  00150	3b ce		 cmp	 ecx, esi
  00152	0f 82 46 ff ff
	ff		 jb	 $LN164@CheckSync
$LN10@CheckSync:

; 154  : 		{
; 155  : 			break;
; 156  : 		}
; 157  : 		else
; 158  : 		{
; 159  : 			WebzenVar1 = *it;

  00158	8b f3		 mov	 esi, ebx
  0015a	8b ca		 mov	 ecx, edx
  0015c	89 75 f0	 mov	 DWORD PTR _WebzenVar1$[ebp+4], esi
$LN14@CheckSync:

; 136  : 
; 137  : 	for( it = m_listIllusionTempleOpenTime.begin(); it != m_listIllusionTempleOpenTime.end(); ++it )

  0015f	8b 00		 mov	 eax, DWORD PTR [eax]
  00161	8b 35 00 00 00
	00		 mov	 esi, DWORD PTR ?m_listIllusionTempleOpenTime@@3V?$list@UILLUSIONTEMPLE_START_TIME@@V?$allocator@UILLUSIONTEMPLE_START_TIME@@@std@@@std@@A
  00167	3b c6		 cmp	 eax, esi
  00169	0f 85 01 ff ff
	ff		 jne	 $LL63@CheckSync

; 148  : 				break;
; 149  : 			}
; 150  : 			continue;
; 151  : 		}
; 152  : 		
; 153  : 		if( CurrentTime >= BaseTime && CurrentTime < CheckTime )

  0016f	e9 30 ff ff ff	 jmp	 $LN166@CheckSync
$LN163@CheckSync:

; 146  : 			{
; 147  : 				WebzenVar2 = *it;

  00174	8b 5d e8	 mov	 ebx, DWORD PTR _WebzenVar2$[ebp+4]
  00177	8b 55 e4	 mov	 edx, DWORD PTR _WebzenVar2$[ebp]
  0017a	e9 28 ff ff ff	 jmp	 $LN160@CheckSync
?CheckSync@CIllusionTempleProcess@@QAEXXZ ENDP		; CIllusionTempleProcess::CheckSync
_TEXT	ENDS
PUBLIC	?RemainTime@CIllusionTempleProcess@@QAEEXZ	; CIllusionTempleProcess::RemainTime
; Function compile flags: /Ogtp
;	COMDAT ?RemainTime@CIllusionTempleProcess@@QAEEXZ
_TEXT	SEGMENT
_WebzenVar2$216208 = -40				; size = 8
_ltime$216213 = -40					; size = 8
_WebzenVar1$216207 = -32				; size = 8
_this$ = -24						; size = 4
_today$216212 = -20					; size = 4
tv622 = -16						; size = 4
tv629 = -12						; size = 4
_loc12$216214 = -12					; size = 4
_CurrentTime$216211 = -8				; size = 4
_loc2$ = -1						; size = 1
?RemainTime@CIllusionTempleProcess@@QAEEXZ PROC		; CIllusionTempleProcess::RemainTime, COMDAT
; _this$ = ecx

; 1048 : {

  00000	55		 push	 ebp
  00001	8b ec		 mov	 ebp, esp
  00003	83 ec 28	 sub	 esp, 40			; 00000028H
  00006	89 4d e8	 mov	 DWORD PTR _this$[ebp], ecx

; 1049 : 	BYTE loc2 = 0;
; 1050 : 	
; 1051 : 	if(this->GetState() == 0 && this->GetOpenStatus() == TRUE)

  00009	e8 00 00 00 00	 call	 ?GetState@CIllusionTempleProcess@@QAEEXZ ; CIllusionTempleProcess::GetState
  0000e	84 c0		 test	 al, al
  00010	75 10		 jne	 SHORT $LN20@RemainTime
  00012	83 b9 90 03 00
	00 01		 cmp	 DWORD PTR [ecx+912], 1
  00019	75 07		 jne	 SHORT $LN20@RemainTime

; 1052 : 	{
; 1053 : 		loc2 = 0;

  0001b	88 45 ff	 mov	 BYTE PTR _loc2$[ebp], al

; 1154 : }

  0001e	8b e5		 mov	 esp, ebp
  00020	5d		 pop	 ebp
  00021	c3		 ret	 0
$LN20@RemainTime:

; 1054 : 	}
; 1055 : 	else if(this->GetState() == 0 && this->GetOpenStatus() == FALSE)

  00022	e8 00 00 00 00	 call	 ?GetState@CIllusionTempleProcess@@QAEEXZ ; CIllusionTempleProcess::GetState
  00027	84 c0		 test	 al, al
  00029	75 1c		 jne	 SHORT $LN173@RemainTime
  0002b	83 b9 90 03 00
	00 00		 cmp	 DWORD PTR [ecx+912], 0
  00032	75 13		 jne	 SHORT $LN173@RemainTime

; 1056 : 	{
; 1057 : 		loc2 = this->m_iLeftMinutesBeforeOpen - m_i_IT_OpenTime;

  00034	8a 81 98 03 00
	00		 mov	 al, BYTE PTR [ecx+920]
  0003a	2a 05 00 00 00
	00		 sub	 al, BYTE PTR ?m_i_IT_OpenTime@@3HA
  00040	88 45 ff	 mov	 BYTE PTR _loc2$[ebp], al

; 1154 : }

  00043	8b e5		 mov	 esp, ebp
  00045	5d		 pop	 ebp
  00046	c3		 ret	 0
$LN173@RemainTime:

; 1058 : 	}
; 1059 : 	else
; 1060 : 	{
; 1061 : 		std::list<ILLUSIONTEMPLE_START_TIME>::iterator it; //loc2 -> ebp 4
; 1062 : 		ILLUSIONTEMPLE_START_TIME WebzenVar1; //loc 3-4 -> ebp C
; 1063 : 		ILLUSIONTEMPLE_START_TIME WebzenVar2; //loc 5-6 -> epb 14
; 1064 : 		int BaseTime = 0; // loc7 -> ebp 18
; 1065 : 		int CheckTime = 0; // loc8 -> ebp 1C
; 1066 : 		DWORD CurrentTime = 0;	// loc9 -> ebp 20
; 1067 : 		
; 1068 : 		tm * today; //loc10 -> ebp 28
; 1069 : 		time_t ltime; //loc11 -> ebp 2c
; 1070 : 
; 1071 : 		int loc12; //loc12 -> ebp30
; 1072 : 		int loc13; //loc13 -> ebp34
; 1073 : 
; 1074 : 		if(m_listIllusionTempleOpenTime.size() == 0)

  00047	83 3d 04 00 00
	00 00		 cmp	 DWORD PTR ?m_listIllusionTempleOpenTime@@3V?$list@UILLUSIONTEMPLE_START_TIME@@V?$allocator@UILLUSIONTEMPLE_START_TIME@@@std@@@std@@A+4, 0
  0004e	75 13		 jne	 SHORT $LN16@RemainTime

; 1075 : 		{
; 1076 : 			MsgBox("Error : Illusion Temple StartTime size is 0");

  00050	68 00 00 00 00	 push	 OFFSET ??_C@_0CM@GMBNLABJ@Error?5?3?5Illusion?5Temple?5StartTim@
  00055	e8 00 00 00 00	 call	 ?MsgBox@@YAXPADZZ	; MsgBox
  0005a	83 c4 04	 add	 esp, 4

; 1077 : 			return FALSE;

  0005d	32 c0		 xor	 al, al

; 1154 : }

  0005f	8b e5		 mov	 esp, ebp
  00061	5d		 pop	 ebp
  00062	c3		 ret	 0
$LN16@RemainTime:
  00063	53		 push	 ebx
  00064	56		 push	 esi

; 1078 : 		}
; 1079 : 
; 1080 : 		time(&ltime); //

  00065	8d 45 d8	 lea	 eax, DWORD PTR _ltime$216213[ebp]
  00068	57		 push	 edi
  00069	50		 push	 eax
  0006a	e8 00 00 00 00	 call	 __time64

; 1081 : 		today = localtime(&ltime); //

  0006f	8d 4d d8	 lea	 ecx, DWORD PTR _ltime$216213[ebp]
  00072	51		 push	 ecx
  00073	e8 00 00 00 00	 call	 __localtime64

; 1082 : 
; 1083 : 		
; 1084 : 		CurrentTime = (today->tm_hour * 60) + today->tm_min;

  00078	8b 48 08	 mov	 ecx, DWORD PTR [eax+8]
  0007b	8b d1		 mov	 edx, ecx
  0007d	c1 e2 04	 shl	 edx, 4
  00080	89 45 ec	 mov	 DWORD PTR _today$216212[ebp], eax
  00083	8b 40 04	 mov	 eax, DWORD PTR [eax+4]
  00086	2b d1		 sub	 edx, ecx
  00088	89 4d f0	 mov	 DWORD PTR tv622[ebp], ecx
  0008b	8d 0c 90	 lea	 ecx, DWORD PTR [eax+edx*4]

; 1085 : 		WebzenVar1 = *m_listIllusionTempleOpenTime.begin();

  0008e	8b 15 00 00 00
	00		 mov	 edx, DWORD PTR ?m_listIllusionTempleOpenTime@@3V?$list@UILLUSIONTEMPLE_START_TIME@@V?$allocator@UILLUSIONTEMPLE_START_TIME@@@std@@@std@@A
  00094	8b 3a		 mov	 edi, DWORD PTR [edx]
  00096	8b 47 0c	 mov	 eax, DWORD PTR [edi+12]
  00099	89 45 e4	 mov	 DWORD PTR _WebzenVar1$216207[ebp+4], eax

; 1086 : 
; 1087 : 		for( it = m_listIllusionTempleOpenTime.begin(); it != m_listIllusionTempleOpenTime.end(); ++it ) //for identical

  0009c	8b c7		 mov	 eax, edi
  0009e	83 c4 08	 add	 esp, 8
  000a1	89 4d f8	 mov	 DWORD PTR _CurrentTime$216211[ebp], ecx
  000a4	8b 4f 08	 mov	 ecx, DWORD PTR [edi+8]
  000a7	89 7d f4	 mov	 DWORD PTR tv629[ebp], edi
  000aa	3b c2		 cmp	 eax, edx
  000ac	0f 84 a1 00 00
	00		 je	 $LN171@RemainTime
$LL175@RemainTime:

; 1088 : 		{
; 1089 : 			WebzenVar2 = *it; // loc5-6
; 1090 : 			BaseTime = (WebzenVar1.m_iHour * 60) + WebzenVar1.m_iMinute;

  000b2	8b 7d e4	 mov	 edi, DWORD PTR _WebzenVar1$216207[ebp+4]
  000b5	8b 70 08	 mov	 esi, DWORD PTR [eax+8]
  000b8	8b 58 0c	 mov	 ebx, DWORD PTR [eax+12]
  000bb	8b d1		 mov	 edx, ecx
  000bd	c1 e2 04	 shl	 edx, 4
  000c0	2b d1		 sub	 edx, ecx
  000c2	8d 14 97	 lea	 edx, DWORD PTR [edi+edx*4]

; 1091 : 			CheckTime =	(WebzenVar2.m_iHour * 60) + WebzenVar2.m_iMinute;

  000c5	8b fe		 mov	 edi, esi
  000c7	c1 e7 04	 shl	 edi, 4
  000ca	2b fe		 sub	 edi, esi
  000cc	8d 3c bb	 lea	 edi, DWORD PTR [ebx+edi*4]

; 1092 : 
; 1093 : 			if( BaseTime == CheckTime )

  000cf	3b d7		 cmp	 edx, edi
  000d1	75 5f		 jne	 SHORT $LN12@RemainTime

; 1094 : 			{
; 1095 : 				if( CurrentTime < CheckTime )

  000d3	39 7d f8	 cmp	 DWORD PTR _CurrentTime$216211[ebp], edi
  000d6	73 6b		 jae	 SHORT $LN14@RemainTime
$LN172@RemainTime:

; 1096 : 				{
; 1097 : 					WebzenVar2 = *it;

  000d8	8b 7d f4	 mov	 edi, DWORD PTR tv629[ebp]
$LN168@RemainTime:

; 1110 : 			}
; 1111 : 		}
; 1112 : 
; 1113 : 		for(loc12 = 2;loc12--;)

  000db	c7 45 f4 02 00
	00 00		 mov	 DWORD PTR _loc12$216214[ebp], 2
$LL8@RemainTime:
  000e2	ff 4d f4	 dec	 DWORD PTR _loc12$216214[ebp]

; 1114 : 		{
; 1115 : 			if(it == m_listIllusionTempleOpenTime.end())

  000e5	3b 05 00 00 00
	00		 cmp	 eax, DWORD PTR ?m_listIllusionTempleOpenTime@@3V?$list@UILLUSIONTEMPLE_START_TIME@@V?$allocator@UILLUSIONTEMPLE_START_TIME@@@std@@@std@@A
  000eb	75 08		 jne	 SHORT $LN6@RemainTime

; 1116 : 			{
; 1117 : 				it = m_listIllusionTempleOpenTime.begin();

  000ed	8b c7		 mov	 eax, edi

; 1118 : 
; 1119 : 				WebzenVar2 = (*it);

  000ef	8b 70 08	 mov	 esi, DWORD PTR [eax+8]
  000f2	8b 58 0c	 mov	 ebx, DWORD PTR [eax+12]
$LN6@RemainTime:

; 1120 : 			}
; 1121 : 
; 1122 : 			CheckTime = WebzenVar2.m_iHour*60+WebzenVar2.m_iMinute;

  000f5	8b ce		 mov	 ecx, esi
  000f7	c1 e1 04	 shl	 ecx, 4
  000fa	2b ce		 sub	 ecx, esi
  000fc	8d 0c 8b	 lea	 ecx, DWORD PTR [ebx+ecx*4]

; 1123 : 
; 1124 : 			if(today->tm_hour <= WebzenVar2.m_iHour)
; 1125 : 			{
; 1126 : 				loc2 = CheckTime - CurrentTime;

  000ff	2a 4d f8	 sub	 cl, BYTE PTR _CurrentTime$216211[ebp]
  00102	39 75 f0	 cmp	 DWORD PTR tv622[ebp], esi

; 1127 : 			}
; 1128 : 			else

  00105	7e 03		 jle	 SHORT $LN176@RemainTime

; 1129 : 			{
; 1130 : 				loc2 = 1440-CurrentTime+CheckTime;

  00107	80 e9 60	 sub	 cl, 96			; 00000060H
$LN176@RemainTime:

; 1131 : 			}
; 1132 : 
; 1133 : 			if(loc2 <= m_i_IT_OpenTime)

  0010a	0f b6 d1	 movzx	 edx, cl
  0010d	88 4d ff	 mov	 BYTE PTR _loc2$[ebp], cl
  00110	8b 0d 00 00 00
	00		 mov	 ecx, DWORD PTR ?m_i_IT_OpenTime@@3HA ; m_i_IT_OpenTime
  00116	3b d1		 cmp	 edx, ecx
  00118	7f 41		 jg	 SHORT $LN3@RemainTime

; 1134 : 			{
; 1135 : 				it++;

  0011a	8b 00		 mov	 eax, DWORD PTR [eax]

; 1136 : 
; 1137 : 				if(it != m_listIllusionTempleOpenTime.end())

  0011c	3b 05 00 00 00
	00		 cmp	 eax, DWORD PTR ?m_listIllusionTempleOpenTime@@3V?$list@UILLUSIONTEMPLE_START_TIME@@V?$allocator@UILLUSIONTEMPLE_START_TIME@@@std@@@std@@A
  00122	74 06		 je	 SHORT $LN2@RemainTime

; 1138 : 				{
; 1139 : 					WebzenVar2 = (*it);

  00124	8b 70 08	 mov	 esi, DWORD PTR [eax+8]
  00127	8b 58 0c	 mov	 ebx, DWORD PTR [eax+12]
$LN2@RemainTime:

; 1110 : 			}
; 1111 : 		}
; 1112 : 
; 1113 : 		for(loc12 = 2;loc12--;)

  0012a	83 7d f4 00	 cmp	 DWORD PTR _loc12$216214[ebp], 0
  0012e	75 b2		 jne	 SHORT $LL8@RemainTime

; 1098 : 					break;
; 1099 : 				}
; 1100 : 				continue;
; 1101 : 			}
; 1102 : 			
; 1103 : 			if( CurrentTime >= BaseTime && CurrentTime < CheckTime )

  00130	eb 2c		 jmp	 SHORT $LN170@RemainTime
$LN12@RemainTime:
  00132	39 55 f8	 cmp	 DWORD PTR _CurrentTime$216211[ebp], edx
  00135	72 05		 jb	 SHORT $LN10@RemainTime
  00137	39 7d f8	 cmp	 DWORD PTR _CurrentTime$216211[ebp], edi
  0013a	72 9c		 jb	 SHORT $LN172@RemainTime
$LN10@RemainTime:

; 1104 : 			{
; 1105 : 				break;
; 1106 : 			}
; 1107 : 			else
; 1108 : 			{
; 1109 : 				WebzenVar1 = *it;

  0013c	8b d3		 mov	 edx, ebx
  0013e	8b ce		 mov	 ecx, esi
  00140	89 55 e4	 mov	 DWORD PTR _WebzenVar1$216207[ebp+4], edx
$LN14@RemainTime:

; 1086 : 
; 1087 : 		for( it = m_listIllusionTempleOpenTime.begin(); it != m_listIllusionTempleOpenTime.end(); ++it ) //for identical

  00143	8b 00		 mov	 eax, DWORD PTR [eax]
  00145	3b 05 00 00 00
	00		 cmp	 eax, DWORD PTR ?m_listIllusionTempleOpenTime@@3V?$list@UILLUSIONTEMPLE_START_TIME@@V?$allocator@UILLUSIONTEMPLE_START_TIME@@@std@@@std@@A
  0014b	0f 85 61 ff ff
	ff		 jne	 $LL175@RemainTime

; 1098 : 					break;
; 1099 : 				}
; 1100 : 				continue;
; 1101 : 			}
; 1102 : 			
; 1103 : 			if( CurrentTime >= BaseTime && CurrentTime < CheckTime )

  00151	eb 85		 jmp	 SHORT $LN172@RemainTime
$LN171@RemainTime:

; 1096 : 				{
; 1097 : 					WebzenVar2 = *it;

  00153	8b 5d dc	 mov	 ebx, DWORD PTR _WebzenVar2$216208[ebp+4]
  00156	8b 75 d8	 mov	 esi, DWORD PTR _WebzenVar2$216208[ebp]
  00159	eb 80		 jmp	 SHORT $LN168@RemainTime
$LN3@RemainTime:

; 1140 : 				}
; 1141 : 			}
; 1142 : 			else
; 1143 : 			{
; 1144 : 				loc2 -= m_i_IT_OpenTime;

  0015b	28 4d ff	 sub	 BYTE PTR _loc2$[ebp], cl
$LN170@RemainTime:

; 1145 : 				break;
; 1146 : 			}
; 1147 : 		}
; 1148 : 
; 1149 : 		loc13 = GetTickCount();

  0015e	ff 15 00 00 00
	00		 call	 DWORD PTR __imp__GetTickCount@0

; 1150 : 		this->m_iOpenTickCount = loc13 + (60000 - (today->tm_sec * 1000));

  00164	8b 55 ec	 mov	 edx, DWORD PTR _today$216212[ebp]
  00167	b9 3c 00 00 00	 mov	 ecx, 60			; 0000003cH
  0016c	2b 0a		 sub	 ecx, DWORD PTR [edx]
  0016e	5f		 pop	 edi
  0016f	69 c9 e8 03 00
	00		 imul	 ecx, 1000		; 000003e8H
  00175	03 c8		 add	 ecx, eax
  00177	8b 45 e8	 mov	 eax, DWORD PTR _this$[ebp]
  0017a	5e		 pop	 esi
  0017b	89 88 a4 03 00
	00		 mov	 DWORD PTR [eax+932], ecx

; 1151 : 	}
; 1152 : 
; 1153 : 	return loc2;

  00181	8a 45 ff	 mov	 al, BYTE PTR _loc2$[ebp]
  00184	5b		 pop	 ebx

; 1154 : }

  00185	8b e5		 mov	 esp, ebp
  00187	5d		 pop	 ebp
  00188	c3		 ret	 0
?RemainTime@CIllusionTempleProcess@@QAEEXZ ENDP		; CIllusionTempleProcess::RemainTime
_TEXT	ENDS
PUBLIC	??1?$list@UILLUSIONTEMPLE_START_TIME@@V?$allocator@UILLUSIONTEMPLE_START_TIME@@@std@@@std@@QAE@XZ ; std::list<ILLUSIONTEMPLE_START_TIME,std::allocator<ILLUSIONTEMPLE_START_TIME> >::~list<ILLUSIONTEMPLE_START_TIME,std::allocator<ILLUSIONTEMPLE_START_TIME> >
; Function compile flags: /Ogtp
; File d:\program files (x86)\microsoft visual studio 10.0\vc\include\list
;	COMDAT ??1?$list@UILLUSIONTEMPLE_START_TIME@@V?$allocator@UILLUSIONTEMPLE_START_TIME@@@std@@@std@@QAE@XZ
_TEXT	SEGMENT
??1?$list@UILLUSIONTEMPLE_START_TIME@@V?$allocator@UILLUSIONTEMPLE_START_TIME@@@std@@@std@@QAE@XZ PROC ; std::list<ILLUSIONTEMPLE_START_TIME,std::allocator<ILLUSIONTEMPLE_START_TIME> >::~list<ILLUSIONTEMPLE_START_TIME,std::allocator<ILLUSIONTEMPLE_START_TIME> >, COMDAT
; _this$ = ecx

; 769  : 		{	// destroy the object

  00000	56		 push	 esi
  00001	8b f1		 mov	 esi, ecx

; 770  : 		_Tidy();

  00003	8b 0e		 mov	 ecx, DWORD PTR [esi]
  00005	8b 01		 mov	 eax, DWORD PTR [ecx]
  00007	89 09		 mov	 DWORD PTR [ecx], ecx
  00009	8b 0e		 mov	 ecx, DWORD PTR [esi]
  0000b	89 49 04	 mov	 DWORD PTR [ecx+4], ecx
  0000e	c7 46 04 00 00
	00 00		 mov	 DWORD PTR [esi+4], 0
  00015	3b 06		 cmp	 eax, DWORD PTR [esi]
  00017	74 19		 je	 SHORT $LN6@list@2
  00019	57		 push	 edi
  0001a	8d 9b 00 00 00
	00		 npad	 6
$LL8@list@2:
  00020	8b 38		 mov	 edi, DWORD PTR [eax]
  00022	50		 push	 eax
  00023	e8 00 00 00 00	 call	 ??3@YAXPAX@Z		; operator delete
  00028	83 c4 04	 add	 esp, 4
  0002b	8b c7		 mov	 eax, edi
  0002d	3b 3e		 cmp	 edi, DWORD PTR [esi]
  0002f	75 ef		 jne	 SHORT $LL8@list@2
  00031	5f		 pop	 edi
$LN6@list@2:

; 771  : 		}

  00032	8b 06		 mov	 eax, DWORD PTR [esi]
  00034	50		 push	 eax
  00035	e8 00 00 00 00	 call	 ??3@YAXPAX@Z		; operator delete
  0003a	83 c4 04	 add	 esp, 4
  0003d	5e		 pop	 esi
  0003e	c3		 ret	 0
??1?$list@UILLUSIONTEMPLE_START_TIME@@V?$allocator@UILLUSIONTEMPLE_START_TIME@@@std@@@std@@QAE@XZ ENDP ; std::list<ILLUSIONTEMPLE_START_TIME,std::allocator<ILLUSIONTEMPLE_START_TIME> >::~list<ILLUSIONTEMPLE_START_TIME,std::allocator<ILLUSIONTEMPLE_START_TIME> >
_TEXT	ENDS
PUBLIC	?Init@CIllusionTempleProcess@@QAEXH@Z		; CIllusionTempleProcess::Init
; Function compile flags: /Ogtp
; File e:\work\tranet_version\gs\gameserver\illusiontempleprocess.cpp
;	COMDAT ?Init@CIllusionTempleProcess@@QAEXH@Z
_TEXT	SEGMENT
_FloorIndex$ = 8					; size = 4
?Init@CIllusionTempleProcess@@QAEXH@Z PROC		; CIllusionTempleProcess::Init, COMDAT
; _this$ = ecx

; 39   : {

  00000	55		 push	 ebp
  00001	8b ec		 mov	 ebp, esp
  00003	53		 push	 ebx
  00004	56		 push	 esi
  00005	8b f1		 mov	 esi, ecx

; 40   : 	if(this->m_btFloorIndex == (BYTE)-1)

  00007	80 be 2c 02 00
	00 ff		 cmp	 BYTE PTR [esi+556], 255	; 000000ffH
  0000e	57		 push	 edi
  0000f	75 09		 jne	 SHORT $LN7@Init

; 41   : 	{
; 42   : 		this->m_btFloorIndex = FloorIndex;

  00011	8a 45 08	 mov	 al, BYTE PTR _FloorIndex$[ebp]
  00014	88 86 2c 02 00
	00		 mov	 BYTE PTR [esi+556], al
$LN7@Init:

; 43   : 	}
; 44   : 	
; 45   : 	int i;
; 46   : 	for(i = 0; i < MAX_FLOOR_USER; i++ )

  0001a	33 db		 xor	 ebx, ebx
  0001c	33 ff		 xor	 edi, edi
  0001e	8b ff		 npad	 2
$LL6@Init:

; 47   : 	{
; 48   : 		this->InitFloorData(i);

  00020	57		 push	 edi
  00021	8b ce		 mov	 ecx, esi
  00023	e8 00 00 00 00	 call	 ?InitFloorData@CIllusionTempleProcess@@QAEXH@Z ; CIllusionTempleProcess::InitFloorData
  00028	47		 inc	 edi
  00029	83 ff 0a	 cmp	 edi, 10			; 0000000aH
  0002c	7c f2		 jl	 SHORT $LL6@Init

; 49   : 	}
; 50   : 
; 51   : 	this->m_iCloseTickCount = GetTickCount();

  0002e	ff 15 00 00 00
	00		 call	 DWORD PTR __imp__GetTickCount@0
  00034	89 86 a0 03 00
	00		 mov	 DWORD PTR [esi+928], eax

; 52   : 	this->m_iBallPlayerIndex = -1;

  0003a	83 c8 ff	 or	 eax, -1

; 53   : 	this->m_btBallInventoryPosition = (BYTE)-1;
; 54   : 	this->m_btAllowedRegPedestal = (BYTE)-1;
; 55   : 	this->m_iYellowTeamUserCount = 0;
; 56   : 	this->m_iBlueTeamUserCount = 0;
; 57   : 	this->m_btYellowTeamScore = 0;
; 58   : 	this->m_btBlueTeamScore = 0;
; 59   : 	this->m_iStatueRegenTickCount = -1;
; 60   : 	this->m_btWinnerTeam = (BYTE)-1;
; 61   : 	this->m_bOpenStatus = FALSE;
; 62   : 	this->m_iEventBattleTimer = -1;
; 63   : 	this->m_bIllusionTempleEventEnded = FALSE;
; 64   : 	this->m_bMsgBeforeEnterTemple = FALSE;
; 65   : 	this->m_bMsgBeforeEnterBattle = FALSE;
; 66   : 	this->m_iLeftMinutesBeforeEnd = 0;
; 67   : 
; 68   : 	this->ResetUserKillCountPoint();

  0003d	8b ce		 mov	 ecx, esi
  0003f	89 86 b8 03 00
	00		 mov	 DWORD PTR [esi+952], eax
  00045	66 c7 86 bc 03
	00 00 ff ff	 mov	 WORD PTR [esi+956], 65535 ; 0000ffffH
  0004e	89 9e c8 03 00
	00		 mov	 DWORD PTR [esi+968], ebx
  00054	89 9e cc 03 00
	00		 mov	 DWORD PTR [esi+972], ebx
  0005a	66 89 9e d0 03
	00 00		 mov	 WORD PTR [esi+976], bx
  00061	89 86 94 03 00
	00		 mov	 DWORD PTR [esi+916], eax
  00067	c6 86 d2 03 00
	00 ff		 mov	 BYTE PTR [esi+978], 255	; 000000ffH
  0006e	89 9e 90 03 00
	00		 mov	 DWORD PTR [esi+912], ebx
  00074	89 86 9c 03 00
	00		 mov	 DWORD PTR [esi+924], eax
  0007a	89 9e ac 03 00
	00		 mov	 DWORD PTR [esi+940], ebx
  00080	89 9e b0 03 00
	00		 mov	 DWORD PTR [esi+944], ebx
  00086	89 9e b4 03 00
	00		 mov	 DWORD PTR [esi+948], ebx
  0008c	89 9e a8 03 00
	00		 mov	 DWORD PTR [esi+936], ebx
  00092	e8 00 00 00 00	 call	 ?ResetUserKillCountPoint@CIllusionTempleProcess@@QAEXXZ ; CIllusionTempleProcess::ResetUserKillCountPoint

; 69   : 
; 70   : 	this->CheckSync();

  00097	e8 00 00 00 00	 call	 ?CheckSync@CIllusionTempleProcess@@QAEXXZ ; CIllusionTempleProcess::CheckSync

; 71   : 
; 72   : 	this->m_bTimeCheckSync = FALSE;

  0009c	89 9e e4 03 00
	00		 mov	 DWORD PTR [esi+996], ebx
  000a2	8d 86 da 03 00
	00		 lea	 eax, DWORD PTR [esi+986]
  000a8	b9 07 00 00 00	 mov	 ecx, 7
  000ad	8d 49 00	 npad	 3
$LL3@Init:

; 73   : 
; 74   : 	for( i = 0; i < MAX_TYPE_PLAYER; i++ )
; 75   : 	{
; 76   : 		this->m_btYellowTeamClassCount[i] = 0;

  000b0	88 58 f9	 mov	 BYTE PTR [eax-7], bl

; 77   : 		this->m_btBlueTeamClassCount[i] = 0;

  000b3	88 18		 mov	 BYTE PTR [eax], bl
  000b5	40		 inc	 eax
  000b6	49		 dec	 ecx
  000b7	75 f7		 jne	 SHORT $LL3@Init

; 78   : 	}
; 79   : 
; 80   : 	this->m_bScoreRankSet = FALSE;

  000b9	5f		 pop	 edi
  000ba	89 9e e8 03 00
	00		 mov	 DWORD PTR [esi+1000], ebx
  000c0	5e		 pop	 esi
  000c1	5b		 pop	 ebx

; 81   : }

  000c2	5d		 pop	 ebp
  000c3	c2 04 00	 ret	 4
?Init@CIllusionTempleProcess@@QAEXH@Z ENDP		; CIllusionTempleProcess::Init
_TEXT	ENDS
PUBLIC	?SetState_NONE@CIllusionTempleProcess@@QAEXXZ	; CIllusionTempleProcess::SetState_NONE
EXTRN	?gObjMoveGate@@YAHHH@Z:PROC			; gObjMoveGate
; Function compile flags: /Ogtp
;	COMDAT ?SetState_NONE@CIllusionTempleProcess@@QAEXXZ
_TEXT	SEGMENT
?SetState_NONE@CIllusionTempleProcess@@QAEXXZ PROC	; CIllusionTempleProcess::SetState_NONE, COMDAT
; _this$ = ecx

; 744  : {

  00000	53		 push	 ebx
  00001	56		 push	 esi
  00002	57		 push	 edi

; 745  : 	this->NotifyTempleInfo(0,-1);

  00003	6a ff		 push	 -1
  00005	6a 00		 push	 0
  00007	8b f9		 mov	 edi, ecx
  00009	e8 00 00 00 00	 call	 ?NotifyTempleInfo@CIllusionTempleProcess@@QAEXEH@Z ; CIllusionTempleProcess::NotifyTempleInfo
  0000e	8d 77 20	 lea	 esi, DWORD PTR [edi+32]
  00011	bb 0a 00 00 00	 mov	 ebx, 10			; 0000000aH
$LL6@SetState_N:

; 748  : 	{
; 749  : 		if( this->m_FloorData[i].m_iTeamPlayerIndex != OBJ_EMPTY )

  00016	8b 06		 mov	 eax, DWORD PTR [esi]
  00018	83 f8 ff	 cmp	 eax, -1
  0001b	74 37		 je	 SHORT $LN5@SetState_N

; 750  : 		{
; 751  : 			if( gObj[this->m_FloorData[i].m_iTeamPlayerIndex].Connected > PLAYER_LOGGED )

  0001d	8b c8		 mov	 ecx, eax
  0001f	69 c9 50 2b 00
	00		 imul	 ecx, 11088		; 00002b50H
  00025	03 0d 00 00 00
	00		 add	 ecx, DWORD PTR ?gObj@@3PAUOBJECTSTRUCT@@A ; gObj
  0002b	83 79 04 02	 cmp	 DWORD PTR [ecx+4], 2
  0002f	7e 23		 jle	 SHORT $LN5@SetState_N

; 752  : 			{
; 753  : 				if( gObj[this->m_FloorData[i].m_iTeamPlayerIndex].MapNumber == (this->m_btFloorIndex + MAP_INDEX_ILLUSIONTEMPLE) )

  00031	0f b6 97 2c 02
	00 00		 movzx	 edx, BYTE PTR [edi+556]
  00038	0f b6 89 49 01
	00 00		 movzx	 ecx, BYTE PTR [ecx+329]
  0003f	83 c2 2d	 add	 edx, 45			; 0000002dH
  00042	3b ca		 cmp	 ecx, edx
  00044	75 0e		 jne	 SHORT $LN5@SetState_N

; 754  : 				{
; 755  : 					gObjMoveGate(this->m_FloorData[i].m_iTeamPlayerIndex, 267); //Elbeland

  00046	68 0b 01 00 00	 push	 267			; 0000010bH
  0004b	50		 push	 eax
  0004c	e8 00 00 00 00	 call	 ?gObjMoveGate@@YAHHH@Z	; gObjMoveGate
  00051	83 c4 08	 add	 esp, 8
$LN5@SetState_N:

; 746  : 
; 747  : 	for( int i = 0; i < MAX_FLOOR_USER; i++ )

  00054	83 c6 30	 add	 esi, 48			; 00000030H
  00057	4b		 dec	 ebx
  00058	75 bc		 jne	 SHORT $LL6@SetState_N

; 756  : #if(DEBUG_IT == 1)
; 757  : 				GCServerMsgStringSend("CIllusionTempleProcess::SetState_NONE()", this->m_FloorData[i].m_iTeamPlayerIndex, 0);
; 758  : #endif
; 759  : 				}
; 760  : 			}
; 761  : 		}
; 762  : 	}
; 763  : 	this->Init(this->m_btFloorIndex);

  0005a	0f b6 97 2c 02
	00 00		 movzx	 edx, BYTE PTR [edi+556]
  00061	52		 push	 edx
  00062	8b cf		 mov	 ecx, edi
  00064	e8 00 00 00 00	 call	 ?Init@CIllusionTempleProcess@@QAEXH@Z ; CIllusionTempleProcess::Init
  00069	5f		 pop	 edi
  0006a	5e		 pop	 esi
  0006b	5b		 pop	 ebx

; 764  : }

  0006c	c3		 ret	 0
?SetState_NONE@CIllusionTempleProcess@@QAEXXZ ENDP	; CIllusionTempleProcess::SetState_NONE
_TEXT	ENDS
PUBLIC	?SetState@CIllusionTempleProcess@@QAEXE@Z	; CIllusionTempleProcess::SetState
; Function compile flags: /Ogtp
;	COMDAT ?SetState@CIllusionTempleProcess@@QAEXE@Z
_TEXT	SEGMENT
_State$ = 8						; size = 1
?SetState@CIllusionTempleProcess@@QAEXE@Z PROC		; CIllusionTempleProcess::SetState, COMDAT
; _this$ = ecx

; 718  : {

  00000	55		 push	 ebp
  00001	8b ec		 mov	 ebp, esp

; 719  : 	this->m_btState = State;

  00003	8a 45 08	 mov	 al, BYTE PTR _State$[ebp]
  00006	88 81 2d 02 00
	00		 mov	 BYTE PTR [ecx+557], al

; 720  : 
; 721  : 	switch( State )

  0000c	0f b6 c0	 movzx	 eax, al
  0000f	83 f8 03	 cmp	 eax, 3
  00012	77 27		 ja	 SHORT $LN5@SetState
  00014	ff 24 85 00 00
	00 00		 jmp	 DWORD PTR $LN9@SetState[eax*4]
$LN4@SetState:

; 722  : 	{
; 723  : 		case 0: //Closed waiting for Open
; 724  : 			this->SetState_NONE();

  0001b	e8 00 00 00 00	 call	 ?SetState_NONE@CIllusionTempleProcess@@QAEXXZ ; CIllusionTempleProcess::SetState_NONE

; 734  : 			break;
; 735  : 	}
; 736  : }

  00020	5d		 pop	 ebp
  00021	c2 04 00	 ret	 4
$LN3@SetState:

; 725  : 			break;
; 726  : 		case 1: //Playing (inside temple before battle)
; 727  : 			this->SetState_READY();

  00024	e8 00 00 00 00	 call	 ?SetState_READY@CIllusionTempleProcess@@QAEXXZ ; CIllusionTempleProcess::SetState_READY

; 734  : 			break;
; 735  : 	}
; 736  : }

  00029	5d		 pop	 ebp
  0002a	c2 04 00	 ret	 4
$LN2@SetState:

; 728  : 			break;
; 729  : 		case 2: //Battle of 15 minutes
; 730  : 			this->SetState_PLAYING();

  0002d	e8 00 00 00 00	 call	 ?SetState_PLAYING@CIllusionTempleProcess@@QAEXXZ ; CIllusionTempleProcess::SetState_PLAYING

; 734  : 			break;
; 735  : 	}
; 736  : }

  00032	5d		 pop	 ebp
  00033	c2 04 00	 ret	 4
$LN1@SetState:

; 731  : 			break;
; 732  : 		case 3: //After Battle (Score waiting minutes)
; 733  : 			this->SetState_END();

  00036	e8 00 00 00 00	 call	 ?SetState_END@CIllusionTempleProcess@@QAEXXZ ; CIllusionTempleProcess::SetState_END
$LN5@SetState:

; 734  : 			break;
; 735  : 	}
; 736  : }

  0003b	5d		 pop	 ebp
  0003c	c2 04 00	 ret	 4
  0003f	90		 npad	 1
$LN9@SetState:
  00040	00 00 00 00	 DD	 $LN4@SetState
  00044	00 00 00 00	 DD	 $LN3@SetState
  00048	00 00 00 00	 DD	 $LN2@SetState
  0004c	00 00 00 00	 DD	 $LN1@SetState
?SetState@CIllusionTempleProcess@@QAEXE@Z ENDP		; CIllusionTempleProcess::SetState
_TEXT	ENDS
PUBLIC	??_C@_0FL@NAKEGMLC@?$FLIllusion?5Temple?$FN?5?$CI?$CFd?$CJ?5Illusion?5@ ; `string'
PUBLIC	??_C@_0FJ@NIONHBBL@?$FLIllusion?5Temple?$FN?5?$CI?$CFd?$CJ?5Allied?5Te@ ; `string'
PUBLIC	??_C@_0L@BPBFEMAA@?$CI?$CFs?$CJ?0?$CI?$CFs?$CJ?5?$AA@ ; `string'
PUBLIC	??_C@_0DD@OHOGJPCE@?$FLIllusion?5Temple?$FN?5?$CI?$CFd?$CJ?5Party?5Add@ ; `string'
PUBLIC	??_C@_0DG@NEAACFEP@?$FLIllusion?5Temple?$FN?5?$CI?$CFd?$CJ?5Party?5Cre@ ; `string'
PUBLIC	??_C@_0CI@JGHENCNJ@?$FLIllusion?5Temple?$FN?5?$CI?$CFd?$CJ?5?$FLIllusion@ ; `string'
PUBLIC	??_C@_0CF@JIFCGMEK@?$FLIllusion?5Temple?$FN?5?$CI?$CFd?$CJ?5?$FLAlliedTe@ ; `string'
PUBLIC	??_C@_0EH@FBNKCLFD@?$FLIllusion?5Temple?$FN?5?$CI?$CFd?$CJ?5Failed?5to@ ; `string'
PUBLIC	??_C@_0EI@LKEJODBE@?$FLIllusion?5Temple?$FN?5?$CI?$CFd?$CJ?5Payback?5t@ ; `string'
PUBLIC	??_C@_0EK@LHEOMBJM@?$FLIllusion?5Temple?$FN?5?$CI?$CFd?$CJ?5Payback?5t@ ; `string'
PUBLIC	__real@3ff0000000000000
PUBLIC	__$ArrayPad$
PUBLIC	?ProcState_Closed@CIllusionTempleProcess@@QAEXH@Z ; CIllusionTempleProcess::ProcState_Closed
EXTRN	?CGPartyListAll@@YAXH@Z:PROC			; CGPartyListAll
EXTRN	?Add@PartyClass@@QAEHHHHH@Z:PROC		; PartyClass::Add
EXTRN	?Create@PartyClass@@QAEHHHH@Z:PROC		; PartyClass::Create
EXTRN	?GCItemDurSend@@YAXHEEE@Z:PROC			; GCItemDurSend
EXTRN	?MakeNoticeMsgEx@TNotice@@SAXPAXEPADZZ:PROC	; TNotice::MakeNoticeMsgEx
;	COMDAT ??_C@_0FL@NAKEGMLC@?$FLIllusion?5Temple?$FN?5?$CI?$CFd?$CJ?5Illusion?5@
CONST	SEGMENT
??_C@_0FL@NAKEGMLC@?$FLIllusion?5Temple?$FN?5?$CI?$CFd?$CJ?5Illusion?5@ DB '['
	DB	'Illusion Temple] (%d) Illusion Team ', 0b9H, 0fdH, 0bbH, 0e7H
	DB	'(%d),', 0b1H, 0e2H, 0bbH, 0e7H, '(%d), ', 0bfH, 0e4H, 0c1H, 0a4H
	DB	'(%d), ', 0b8H, 0b6H, 0b0H, 0cbH, 0bbH, 0e7H, '(%d), ', 0b4H, 0d9H
	DB	0c5H, 0a9H, 0b7H, 0ceH, 0b5H, 0e5H, '(%d)', 00H ; `string'
CONST	ENDS
;	COMDAT ??_C@_0FJ@NIONHBBL@?$FLIllusion?5Temple?$FN?5?$CI?$CFd?$CJ?5Allied?5Te@
CONST	SEGMENT
??_C@_0FJ@NIONHBBL@?$FLIllusion?5Temple?$FN?5?$CI?$CFd?$CJ?5Allied?5Te@ DB '['
	DB	'Illusion Temple] (%d) Allied Team ', 0b9H, 0fdH, 0bbH, 0e7H, '('
	DB	'%d),', 0b1H, 0e2H, 0bbH, 0e7H, '(%d), ', 0bfH, 0e4H, 0c1H, 0a4H
	DB	'(%d), ', 0b8H, 0b6H, 0b0H, 0cbH, 0bbH, 0e7H, '(%d), ', 0b4H, 0d9H
	DB	0c5H, 0a9H, 0b7H, 0ceH, 0b5H, 0e5H, '(%d)', 00H ; `string'
CONST	ENDS
;	COMDAT ??_C@_0L@BPBFEMAA@?$CI?$CFs?$CJ?0?$CI?$CFs?$CJ?5?$AA@
CONST	SEGMENT
??_C@_0L@BPBFEMAA@?$CI?$CFs?$CJ?0?$CI?$CFs?$CJ?5?$AA@ DB '(%s),(%s) ', 00H ; `string'
CONST	ENDS
;	COMDAT ??_C@_0DD@OHOGJPCE@?$FLIllusion?5Temple?$FN?5?$CI?$CFd?$CJ?5Party?5Add@
CONST	SEGMENT
??_C@_0DD@OHOGJPCE@?$FLIllusion?5Temple?$FN?5?$CI?$CFd?$CJ?5Party?5Add@ DB '['
	DB	'Illusion Temple] (%d) Party Add Error, (Team: %d)', 00H ; `string'
CONST	ENDS
;	COMDAT ??_C@_0DG@NEAACFEP@?$FLIllusion?5Temple?$FN?5?$CI?$CFd?$CJ?5Party?5Cre@
CONST	SEGMENT
??_C@_0DG@NEAACFEP@?$FLIllusion?5Temple?$FN?5?$CI?$CFd?$CJ?5Party?5Cre@ DB '['
	DB	'Illusion Temple] (%d) Party Create Error, (Team: %d)', 00H ; `string'
CONST	ENDS
;	COMDAT ??_C@_0CI@JGHENCNJ@?$FLIllusion?5Temple?$FN?5?$CI?$CFd?$CJ?5?$FLIllusion@
CONST	SEGMENT
??_C@_0CI@JGHENCNJ@?$FLIllusion?5Temple?$FN?5?$CI?$CFd?$CJ?5?$FLIllusion@ DB '['
	DB	'Illusion Temple] (%d) [IllusiondTeam] ', 00H ; `string'
CONST	ENDS
;	COMDAT ??_C@_0CF@JIFCGMEK@?$FLIllusion?5Temple?$FN?5?$CI?$CFd?$CJ?5?$FLAlliedTe@
CONST	SEGMENT
??_C@_0CF@JIFCGMEK@?$FLIllusion?5Temple?$FN?5?$CI?$CFd?$CJ?5?$FLAlliedTe@ DB '['
	DB	'Illusion Temple] (%d) [AlliedTeam] ', 00H	; `string'
CONST	ENDS
;	COMDAT ??_C@_0EH@FBNKCLFD@?$FLIllusion?5Temple?$FN?5?$CI?$CFd?$CJ?5Failed?5to@
CONST	SEGMENT
??_C@_0EH@FBNKCLFD@?$FLIllusion?5Temple?$FN?5?$CI?$CFd?$CJ?5Failed?5to@ DB '['
	DB	'Illusion Temple] (%d) Failed to Start Illusion Temple (UserCo'
	DB	'unt: %d)', 00H				; `string'
CONST	ENDS
;	COMDAT ??_C@_0EI@LKEJODBE@?$FLIllusion?5Temple?$FN?5?$CI?$CFd?$CJ?5Payback?5t@
CONST	SEGMENT
??_C@_0EI@LKEJODBE@?$FLIllusion?5Temple?$FN?5?$CI?$CFd?$CJ?5Payback?5t@ DB '['
	DB	'Illusion Temple] (%d) Payback to User Failed (%s)(%s) Scroll '
	DB	'Not Found', 00H				; `string'
CONST	ENDS
;	COMDAT ??_C@_0EK@LHEOMBJM@?$FLIllusion?5Temple?$FN?5?$CI?$CFd?$CJ?5Payback?5t@
CONST	SEGMENT
??_C@_0EK@LHEOMBJM@?$FLIllusion?5Temple?$FN?5?$CI?$CFd?$CJ?5Payback?5t@ DB '['
	DB	'Illusion Temple] (%d) Payback to User (%s)(%s) ', 0c7H, 0c7H, 0c0H
	DB	0c7H, ' ', 0b5H, 0ceH, 0b7H, 0e7H, 0b8H, 0b6H, 0b8H, 0aeH, ' ('
	DB	'Serial:%u)', 00H				; `string'
CONST	ENDS
;	COMDAT __real@3ff0000000000000
CONST	SEGMENT
__real@3ff0000000000000 DQ 03ff0000000000000r	; 1
; Function compile flags: /Ogtp
CONST	ENDS
;	COMDAT ?ProcState_Closed@CIllusionTempleProcess@@QAEXH@Z
_TEXT	SEGMENT
tv2578 = -548						; size = 4
tv911 = -544						; size = 4
_loc274$215963 = -544					; size = 4
_loc144$215957 = -540					; size = 4
_i$215905 = -540					; size = 4
tv2644 = -538						; size = 2
tv2630 = -538						; size = 2
tv2641 = -536						; size = 4
tv2639 = -536						; size = 4
tv2627 = -536						; size = 4
tv2625 = -536						; size = 4
_loc145$215958 = -536					; size = 4
_pMsg$215903 = -536					; size = 4
_pNotice$215932 = -532					; size = 272
_pNotice$215891 = -532					; size = 272
_szTemp1$215961 = -516					; size = 256
_szTemp0$215959 = -260					; size = 256
__$ArrayPad$ = -4					; size = 4
_iTick$ = 8						; size = 4
?ProcState_Closed@CIllusionTempleProcess@@QAEXH@Z PROC	; CIllusionTempleProcess::ProcState_Closed, COMDAT
; _this$ = ecx

; 218  : {

  00000	55		 push	 ebp
  00001	8b ec		 mov	 ebp, esp
  00003	81 ec 24 02 00
	00		 sub	 esp, 548		; 00000224H
  00009	a1 00 00 00 00	 mov	 eax, DWORD PTR ___security_cookie
  0000e	33 c5		 xor	 eax, ebp
  00010	89 45 fc	 mov	 DWORD PTR __$ArrayPad$[ebp], eax
  00013	53		 push	 ebx
  00014	56		 push	 esi

; 219  : 	int loc2 = iTick - this->m_iCloseTickCount;

  00015	8b 75 08	 mov	 esi, DWORD PTR _iTick$[ebp]
  00018	57		 push	 edi
  00019	8b f9		 mov	 edi, ecx
  0001b	8b de		 mov	 ebx, esi
  0001d	2b 9f a0 03 00
	00		 sub	 ebx, DWORD PTR [edi+928]

; 220  : 
; 221  : 	if(this->m_iOpenTickCount < iTick)

  00023	39 b7 a4 03 00
	00		 cmp	 DWORD PTR [edi+932], esi
  00029	7d 65		 jge	 SHORT $LN69@ProcState_

; 222  : 	{
; 223  : 		this->m_iLeftMinutesBeforeOpen--;

  0002b	ff 8f 98 03 00
	00		 dec	 DWORD PTR [edi+920]
  00031	8b 87 98 03 00
	00		 mov	 eax, DWORD PTR [edi+920]

; 224  : 		this->m_iOpenTickCount = iTick + 60000;

  00037	8d 8e 60 ea 00
	00		 lea	 ecx, DWORD PTR [esi+60000]
  0003d	89 8f a4 03 00
	00		 mov	 DWORD PTR [edi+932], ecx

; 225  : 
; 226  : 		if(this->m_iLeftMinutesBeforeOpen <= m_i_IT_OpenTime)

  00043	3b 05 00 00 00
	00		 cmp	 eax, DWORD PTR ?m_i_IT_OpenTime@@3HA ; m_i_IT_OpenTime
  00049	7f 45		 jg	 SHORT $LN69@ProcState_

; 227  : 		{
; 228  : 			if(this->m_iLeftMinutesBeforeOpen > 0)

  0004b	85 c0		 test	 eax, eax
  0004d	7e 41		 jle	 SHORT $LN69@ProcState_

; 229  : 			{
; 230  : 				if(this->m_btFloorIndex == 0)

  0004f	80 bf 2c 02 00
	00 00		 cmp	 BYTE PTR [edi+556], 0
  00056	75 38		 jne	 SHORT $LN69@ProcState_

; 231  : 				{
; 232  : 					PMSG_NOTICE pNotice;
; 233  : 					TNotice::MakeNoticeMsgEx(&pNotice, 0, lMsg.Get(3394), this->m_iLeftMinutesBeforeOpen);

  00058	50		 push	 eax
  00059	68 42 0d 00 00	 push	 3394			; 00000d42H
  0005e	b9 00 00 00 00	 mov	 ecx, OFFSET ?lMsg@@3VCMsg@@A ; lMsg
  00063	e8 00 00 00 00	 call	 ?Get@CMsg@@QAEPADH@Z	; CMsg::Get
  00068	50		 push	 eax
  00069	8d 95 ec fd ff
	ff		 lea	 edx, DWORD PTR _pNotice$215891[ebp]
  0006f	6a 00		 push	 0
  00071	52		 push	 edx
  00072	e8 00 00 00 00	 call	 ?MakeNoticeMsgEx@TNotice@@SAXPAXEPADZZ ; TNotice::MakeNoticeMsgEx

; 234  : 					this->SendAllUserAnyMsg((LPBYTE)&pNotice, pNotice.h.size);

  00077	0f b6 85 ed fd
	ff ff		 movzx	 eax, BYTE PTR _pNotice$215891[ebp+1]
  0007e	83 c4 10	 add	 esp, 16			; 00000010H
  00081	50		 push	 eax
  00082	8d 8d ec fd ff
	ff		 lea	 ecx, DWORD PTR _pNotice$215891[ebp]
  00088	51		 push	 ecx
  00089	8b cf		 mov	 ecx, edi
  0008b	e8 00 00 00 00	 call	 ?SendAllUserAnyMsg@CIllusionTempleProcess@@QAEXPAEH@Z ; CIllusionTempleProcess::SendAllUserAnyMsg
$LN69@ProcState_:

; 235  : 				}
; 236  : 			}
; 237  : 		}
; 238  : 	}
; 239  : 
; 240  : 	if(loc2 >= 1000)

  00090	81 fb e8 03 00
	00		 cmp	 ebx, 1000		; 000003e8H
  00096	0f 8c ba 01 00
	00		 jl	 $LN50@ProcState_

; 241  : 	{
; 242  : 		if(this->m_iEventBattleTimer > 0)

  0009c	8b 87 9c 03 00
	00		 mov	 eax, DWORD PTR [edi+924]
  000a2	85 c0		 test	 eax, eax
  000a4	7e 08		 jle	 SHORT $LN67@ProcState_

; 243  : 		{
; 244  : 			this->m_iEventBattleTimer -= loc2;

  000a6	2b c3		 sub	 eax, ebx
  000a8	89 87 9c 03 00
	00		 mov	 DWORD PTR [edi+924], eax
$LN67@ProcState_:

; 245  : 		}
; 246  : 
; 247  : 		this->m_iCloseTickCount = iTick;
; 248  : 
; 249  : 		if(this->m_iLeftMinutesBeforeOpen <= m_i_IT_OpenTime+1)

  000ae	8b 87 98 03 00
	00		 mov	 eax, DWORD PTR [edi+920]
  000b4	89 b7 a0 03 00
	00		 mov	 DWORD PTR [edi+928], esi
  000ba	8b 0d 00 00 00
	00		 mov	 ecx, DWORD PTR ?m_i_IT_OpenTime@@3HA ; m_i_IT_OpenTime
  000c0	8d 51 01	 lea	 edx, DWORD PTR [ecx+1]
  000c3	3b c2		 cmp	 eax, edx
  000c5	7f 1c		 jg	 SHORT $LN65@ProcState_

; 250  : 		{
; 251  : 			if(this->m_iEventBattleTimer == -1)

  000c7	83 bf 9c 03 00
	00 ff		 cmp	 DWORD PTR [edi+924], -1
  000ce	75 13		 jne	 SHORT $LN65@ProcState_

; 252  : 			{
; 253  : 				this->m_iEventBattleTimer = 1000 * ( (m_i_IT_OpenTime+1) * 60);

  000d0	41		 inc	 ecx
  000d1	69 c9 60 ea 00
	00		 imul	 ecx, 60000		; 0000ea60H
  000d7	89 8f 9c 03 00
	00		 mov	 DWORD PTR [edi+924], ecx
  000dd	8b 0d 00 00 00
	00		 mov	 ecx, DWORD PTR ?m_i_IT_OpenTime@@3HA ; m_i_IT_OpenTime
$LN65@ProcState_:

; 254  : 			}
; 255  : 		}
; 256  : 
; 257  : 		if(this->m_iLeftMinutesBeforeOpen <= m_i_IT_OpenTime)

  000e3	3b c1		 cmp	 eax, ecx
  000e5	7f 1f		 jg	 SHORT $LN62@ProcState_

; 258  : 		{
; 259  : 			if(this->m_iEventBattleTimer > 5000)

  000e7	81 bf 9c 03 00
	00 88 13 00 00	 cmp	 DWORD PTR [edi+924], 5000 ; 00001388H
  000f1	7e 13		 jle	 SHORT $LN62@ProcState_

; 260  : 			{
; 261  : 				if(this->m_bOpenStatus == FALSE)

  000f3	83 bf 90 03 00
	00 00		 cmp	 DWORD PTR [edi+912], 0
  000fa	75 0a		 jne	 SHORT $LN62@ProcState_

; 262  : 				{
; 263  : 					this->m_bOpenStatus = TRUE;

  000fc	c7 87 90 03 00
	00 01 00 00 00	 mov	 DWORD PTR [edi+912], 1
$LN62@ProcState_:

; 264  : 				}
; 265  : 			}
; 266  : 		}
; 267  : 
; 268  : 		if(this->m_iEventBattleTimer <= 30000 && this->m_iEventBattleTimer > 0)

  00106	8b 87 9c 03 00
	00		 mov	 eax, DWORD PTR [edi+924]
  0010c	3d 30 75 00 00	 cmp	 eax, 30000		; 00007530H
  00111	0f 8f e0 00 00
	00		 jg	 $LN56@ProcState_
  00117	85 c0		 test	 eax, eax
  00119	0f 8e d8 00 00
	00		 jle	 $LN56@ProcState_

; 269  : 		{
; 270  : 			if(this->m_btFloorIndex == 0)

  0011f	80 bf 2c 02 00
	00 00		 cmp	 BYTE PTR [edi+556], 0
  00126	0f 85 cb 00 00
	00		 jne	 $LN56@ProcState_

; 271  : 			{
; 272  : 				if(this->m_bMsgBeforeEnterTemple == FALSE)

  0012c	83 bf b0 03 00
	00 00		 cmp	 DWORD PTR [edi+944], 0
  00133	0f 85 be 00 00
	00		 jne	 $LN56@ProcState_

; 273  : 				{
; 274  : 					this->m_bMsgBeforeEnterTemple = TRUE;
; 275  : 
; 276  : 					PMSG_SET_DEVILSQUARE pMsg;
; 277  : 
; 278  : 					PHeadSetB((LPBYTE)&pMsg, 0x92, sizeof(pMsg));

  00139	6a 04		 push	 4
  0013b	8d 85 e8 fd ff
	ff		 lea	 eax, DWORD PTR _pMsg$215903[ebp]
  00141	68 92 00 00 00	 push	 146			; 00000092H
  00146	50		 push	 eax
  00147	c7 87 b0 03 00
	00 01 00 00 00	 mov	 DWORD PTR [edi+944], 1
  00151	e8 00 00 00 00	 call	 ?PHeadSetB@@YAXPAEEH@Z	; PHeadSetB
  00156	8b 35 00 00 00
	00		 mov	 esi, DWORD PTR ?gObj@@3PAUOBJECTSTRUCT@@A ; gObj
  0015c	83 c4 0c	 add	 esp, 12			; 0000000cH

; 279  : 					pMsg.Type = 14;

  0015f	c6 85 eb fd ff
	ff 0e		 mov	 BYTE PTR _pMsg$215903[ebp+3], 14 ; 0000000eH

; 280  : 
; 281  : 					for (int i= OBJ_STARTUSERINDZT;i<OBJMAX;i++)

  00166	c7 85 e4 fd ff
	ff b0 36 00 00	 mov	 DWORD PTR _i$215905[ebp], 14000 ; 000036b0H
  00170	bb 00 a7 40 09	 mov	 ebx, 155232000		; 0940a700H
  00175	ba 01 00 00 00	 mov	 edx, 1
  0017a	8d 9b 00 00 00
	00		 npad	 6
$LL58@ProcState_:

; 282  : 					{
; 283  : 						if ( gObj[i].Connected == PLAYER_PLAYING && gObj[i].Type == OBJ_USER)

  00180	83 7c 33 04 03	 cmp	 DWORD PTR [ebx+esi+4], 3
  00185	75 5c		 jne	 SHORT $LN57@ProcState_
  00187	66 39 54 33 68	 cmp	 WORD PTR [ebx+esi+104], dx
  0018c	75 55		 jne	 SHORT $LN57@ProcState_

; 284  : 						{
; 285  : 							if ( BC_MAP_RANGE(gObj[i].MapNumber) == FALSE )

  0018e	8a 84 33 49 01
	00 00		 mov	 al, BYTE PTR [ebx+esi+329]
  00195	3c 34		 cmp	 al, 52			; 00000034H
  00197	74 4a		 je	 SHORT $LN57@ProcState_
  00199	3c 0b		 cmp	 al, 11			; 0000000bH
  0019b	72 0c		 jb	 SHORT $LN97@ProcState_
  0019d	b9 11 00 00 00	 mov	 ecx, 17			; 00000011H
  001a2	3a c8		 cmp	 cl, al
  001a4	1b c9		 sbb	 ecx, ecx
  001a6	41		 inc	 ecx
  001a7	75 3a		 jne	 SHORT $LN57@ProcState_
$LN97@ProcState_:

; 286  : 							{
; 287  : 								if ( CC_MAP_RANGE(gObj[i].MapNumber) == FALSE )

  001a9	3c 35		 cmp	 al, 53			; 00000035H
  001ab	74 36		 je	 SHORT $LN57@ProcState_
  001ad	3c 12		 cmp	 al, 18			; 00000012H
  001af	72 09		 jb	 SHORT $LN90@ProcState_
  001b1	b1 17		 mov	 cl, 23			; 00000017H
  001b3	3a c8		 cmp	 cl, al
  001b5	1b c0		 sbb	 eax, eax
  001b7	40		 inc	 eax
  001b8	75 29		 jne	 SHORT $LN57@ProcState_
$LN90@ProcState_:

; 288  : 								{
; 289  : 									DataSend(i, (LPBYTE)&pMsg, pMsg.h.size);

  001ba	0f b6 95 e9 fd
	ff ff		 movzx	 edx, BYTE PTR _pMsg$215903[ebp+1]
  001c1	8b 8d e4 fd ff
	ff		 mov	 ecx, DWORD PTR _i$215905[ebp]
  001c7	52		 push	 edx
  001c8	8d 85 e8 fd ff
	ff		 lea	 eax, DWORD PTR _pMsg$215903[ebp]
  001ce	50		 push	 eax
  001cf	51		 push	 ecx
  001d0	e8 00 00 00 00	 call	 ?DataSend@@YAHHPAEK@Z	; DataSend
  001d5	8b 35 00 00 00
	00		 mov	 esi, DWORD PTR ?gObj@@3PAUOBJECTSTRUCT@@A ; gObj
  001db	83 c4 0c	 add	 esp, 12			; 0000000cH
  001de	ba 01 00 00 00	 mov	 edx, 1
$LN57@ProcState_:

; 280  : 
; 281  : 					for (int i= OBJ_STARTUSERINDZT;i<OBJMAX;i++)

  001e3	01 95 e4 fd ff
	ff		 add	 DWORD PTR _i$215905[ebp], edx
  001e9	81 c3 50 2b 00
	00		 add	 ebx, 11088		; 00002b50H
  001ef	81 fb 80 d7 e9
	09		 cmp	 ebx, 166320000		; 09e9d780H
  001f5	7c 89		 jl	 SHORT $LL58@ProcState_
$LN56@ProcState_:

; 290  : 								}
; 291  : 							}
; 292  : 						}
; 293  : 					}
; 294  : 				}
; 295  : 			}
; 296  : 		}
; 297  : 
; 298  : 		if(this->m_iEventBattleTimer <= 5000)

  001f7	81 bf 9c 03 00
	00 88 13 00 00	 cmp	 DWORD PTR [edi+924], 5000 ; 00001388H
  00201	7f 53		 jg	 SHORT $LN50@ProcState_

; 299  : 		{
; 300  : 			if(this->m_bOpenStatus == TRUE)

  00203	83 bf 90 03 00
	00 01		 cmp	 DWORD PTR [edi+912], 1
  0020a	75 4a		 jne	 SHORT $LN50@ProcState_

; 301  : 			{
; 302  : 				this->m_bOpenStatus = FALSE;
; 303  : 
; 304  : 				if(this->m_btFloorIndex == 0)

  0020c	80 bf 2c 02 00
	00 00		 cmp	 BYTE PTR [edi+556], 0
  00213	c7 87 90 03 00
	00 00 00 00 00	 mov	 DWORD PTR [edi+912], 0
  0021d	75 37		 jne	 SHORT $LN50@ProcState_

; 305  : 				{
; 306  : 					PMSG_NOTICE pNotice;
; 307  : 					TNotice::MakeNoticeMsgEx(&pNotice, 0, lMsg.Get(3395));

  0021f	68 43 0d 00 00	 push	 3395			; 00000d43H
  00224	b9 00 00 00 00	 mov	 ecx, OFFSET ?lMsg@@3VCMsg@@A ; lMsg
  00229	e8 00 00 00 00	 call	 ?Get@CMsg@@QAEPADH@Z	; CMsg::Get
  0022e	50		 push	 eax
  0022f	8d 95 ec fd ff
	ff		 lea	 edx, DWORD PTR _pNotice$215932[ebp]
  00235	6a 00		 push	 0
  00237	52		 push	 edx
  00238	e8 00 00 00 00	 call	 ?MakeNoticeMsgEx@TNotice@@SAXPAXEPADZZ ; TNotice::MakeNoticeMsgEx

; 308  : 					this->SendAllUserAnyMsg((LPBYTE)&pNotice, pNotice.h.size);

  0023d	0f b6 85 ed fd
	ff ff		 movzx	 eax, BYTE PTR _pNotice$215932[ebp+1]
  00244	83 c4 0c	 add	 esp, 12			; 0000000cH
  00247	50		 push	 eax
  00248	8d 8d ec fd ff
	ff		 lea	 ecx, DWORD PTR _pNotice$215932[ebp]
  0024e	51		 push	 ecx
  0024f	8b cf		 mov	 ecx, edi
  00251	e8 00 00 00 00	 call	 ?SendAllUserAnyMsg@CIllusionTempleProcess@@QAEXPAEH@Z ; CIllusionTempleProcess::SendAllUserAnyMsg
$LN50@ProcState_:

; 309  : 				}
; 310  : 			}
; 311  : 		}
; 312  : 	}
; 313  : 
; 314  : 
; 315  : 	if(this->m_iLeftMinutesBeforeOpen <= 0)

  00256	83 bf 98 03 00
	00 00		 cmp	 DWORD PTR [edi+920], 0
  0025d	0f 8f da 07 00
	00		 jg	 $LN48@ProcState_

; 316  : 	{
; 317  : 		if(this->m_iEventBattleTimer <= 0)

  00263	83 bf 9c 03 00
	00 00		 cmp	 DWORD PTR [edi+924], 0
  0026a	0f 8f cd 07 00
	00		 jg	 $LN48@ProcState_

; 318  : 		{
; 319  : 			this->m_bOpenStatus = FALSE;
; 320  : 
; 321  : 			this->RemoveInvalid();

  00270	8b cf		 mov	 ecx, edi
  00272	c7 87 90 03 00
	00 00 00 00 00	 mov	 DWORD PTR [edi+912], 0
  0027c	e8 00 00 00 00	 call	 ?RemoveInvalid@CIllusionTempleProcess@@QAEXXZ ; CIllusionTempleProcess::RemoveInvalid

; 322  : 
; 323  : 			//int Zt_IllusionTemplPlaerMin = GetPrivateProfileInt("IllusionTemple","ItMinPlayers",4,"..\\Data\\ZtData\\Events.ini");
; 324  : 
; 325  : 			if(this->m_iEnteredUserCount < ZtConfig.Event.Zt_IllusionTemplPlaerMin) //UserCount

  00281	8b 97 28 02 00
	00		 mov	 edx, DWORD PTR [edi+552]
  00287	3b 15 f4 06 00
	00		 cmp	 edx, DWORD PTR ?ZtConfig@@3VcZtConfigs@@A+1780
  0028d	0f 8d 17 02 00
	00		 jge	 $LN47@ProcState_

; 326  : 			{
; 327  : 				for( int n = 0; n < MAX_FLOOR_USER; n++ )

  00293	8d 5f 20	 lea	 ebx, DWORD PTR [edi+32]
  00296	c7 85 e0 fd ff
	ff 0a 00 00 00	 mov	 DWORD PTR tv911[ebp], 10 ; 0000000aH
$LL46@ProcState_:

; 328  : 				{
; 329  : 					if( this->m_FloorData[n].m_iTeamPlayerIndex != OBJ_EMPTY && gObj[this->m_FloorData[n].m_iTeamPlayerIndex].Connected > PLAYER_LOGGED)

  002a0	8b 03		 mov	 eax, DWORD PTR [ebx]
  002a2	83 f8 ff	 cmp	 eax, -1
  002a5	0f 84 b6 01 00
	00		 je	 $LN45@ProcState_
  002ab	69 c0 50 2b 00
	00		 imul	 eax, 11088		; 00002b50H
  002b1	03 05 00 00 00
	00		 add	 eax, DWORD PTR ?gObj@@3PAUOBJECTSTRUCT@@A ; gObj
  002b7	83 78 04 02	 cmp	 DWORD PTR [eax+4], 2
  002bb	0f 8e a0 01 00
	00		 jle	 $LN45@ProcState_

; 330  : 					{
; 331  : 						if( gObj[this->m_FloorData[n].m_iTeamPlayerIndex].MapNumber == (this->m_btFloorIndex + MAP_INDEX_ILLUSIONTEMPLE) )

  002c1	0f b6 8f 2c 02
	00 00		 movzx	 ecx, BYTE PTR [edi+556]
  002c8	0f b6 90 49 01
	00 00		 movzx	 edx, BYTE PTR [eax+329]
  002cf	8d 71 2d	 lea	 esi, DWORD PTR [ecx+45]
  002d2	3b d6		 cmp	 edx, esi
  002d4	0f 85 87 01 00
	00		 jne	 $LN45@ProcState_

; 332  : 						{
; 333  : 							int loc142 = this->m_FloorData[n].m_btPosNDur;

  002da	0f b6 53 28	 movzx	 edx, BYTE PTR [ebx+40]

; 334  : 
; 335  : 							if(loc142 > -1)

  002de	83 fa ff	 cmp	 edx, -1
  002e1	0f 8e 44 01 00
	00		 jle	 $LN41@ProcState_

; 336  : 							{
; 337  : 								if(gObj[this->m_FloorData[n].m_iTeamPlayerIndex].pInventory[loc142].m_Type == ITEMGET(13,51))

  002e7	8b 80 24 0e 00
	00		 mov	 eax, DWORD PTR [eax+3620]
  002ed	8b f2		 mov	 esi, edx
  002ef	69 f6 d4 00 00
	00		 imul	 esi, 212		; 000000d4H
  002f5	0f b7 44 30 06	 movzx	 eax, WORD PTR [eax+esi+6]
  002fa	b9 33 1a 00 00	 mov	 ecx, 6707		; 00001a33H
  002ff	66 3b c1	 cmp	 ax, cx
  00302	75 65		 jne	 SHORT $LN40@ProcState_

; 338  : 								{
; 339  : 									gObj[this->m_FloorData[n].m_iTeamPlayerIndex].pInventory[loc142].m_Durability = 1.0f;

  00304	8b 03		 mov	 eax, DWORD PTR [ebx]
  00306	d9 e8		 fld1
  00308	8b 0d 00 00 00
	00		 mov	 ecx, DWORD PTR ?gObj@@3PAUOBJECTSTRUCT@@A ; gObj
  0030e	69 c0 50 2b 00
	00		 imul	 eax, 11088		; 00002b50H

; 340  : 									GCItemDurSend(gObj[this->m_FloorData[n].m_iTeamPlayerIndex].m_Index, (BYTE)loc142,  (BYTE)gObj[this->m_FloorData[n].m_iTeamPlayerIndex].pInventory[loc142].m_Durability, 0);

  00314	d9 bd e6 fd ff
	ff		 fnstcw	 WORD PTR tv2644[ebp]
  0031a	8b 84 08 24 0e
	00 00		 mov	 eax, DWORD PTR [eax+ecx+3620]
  00321	d9 5c 30 24	 fstp	 DWORD PTR [eax+esi+36]
  00325	8b 0b		 mov	 ecx, DWORD PTR [ebx]
  00327	69 c9 50 2b 00
	00		 imul	 ecx, 11088		; 00002b50H
  0032d	03 0d 00 00 00
	00		 add	 ecx, DWORD PTR ?gObj@@3PAUOBJECTSTRUCT@@A ; gObj
  00333	8b 81 24 0e 00
	00		 mov	 eax, DWORD PTR [ecx+3620]
  00339	d9 44 30 24	 fld	 DWORD PTR [eax+esi+36]
  0033d	0f b7 85 e6 fd
	ff ff		 movzx	 eax, WORD PTR tv2644[ebp]
  00344	0d 00 0c 00 00	 or	 eax, 3072		; 00000c00H
  00349	89 85 e8 fd ff
	ff		 mov	 DWORD PTR tv2641[ebp], eax
  0034f	d9 ad e8 fd ff
	ff		 fldcw	 WORD PTR tv2641[ebp]
  00355	db 9d e8 fd ff
	ff		 fistp	 DWORD PTR tv2639[ebp]
  0035b	8a 85 e8 fd ff
	ff		 mov	 al, BYTE PTR tv2639[ebp]
  00361	d9 ad e6 fd ff
	ff		 fldcw	 WORD PTR tv2644[ebp]
  00367	eb 75		 jmp	 SHORT $LN121@ProcState_
$LN40@ProcState_:

; 341  : 								}
; 342  : 								else if(gObj[this->m_FloorData[n].m_iTeamPlayerIndex].pInventory[loc142].m_Type == ITEMGET(13,61))

  00369	b9 3d 1a 00 00	 mov	 ecx, 6717		; 00001a3dH
  0036e	66 3b c1	 cmp	 ax, cx
  00371	75 7d		 jne	 SHORT $LN94@ProcState_

; 343  : 								{
; 344  : 									gObj[this->m_FloorData[n].m_iTeamPlayerIndex].pInventory[loc142].m_Durability += 1.0f;

  00373	8b 03		 mov	 eax, DWORD PTR [ebx]

; 345  : 									GCItemDurSend(gObj[this->m_FloorData[n].m_iTeamPlayerIndex].m_Index, (BYTE)loc142,  (BYTE)gObj[this->m_FloorData[n].m_iTeamPlayerIndex].pInventory[loc142].m_Durability, 0);

  00375	d9 bd e6 fd ff
	ff		 fnstcw	 WORD PTR tv2630[ebp]
  0037b	8b 0d 00 00 00
	00		 mov	 ecx, DWORD PTR ?gObj@@3PAUOBJECTSTRUCT@@A ; gObj
  00381	69 c0 50 2b 00
	00		 imul	 eax, 11088		; 00002b50H
  00387	8b 84 08 24 0e
	00 00		 mov	 eax, DWORD PTR [eax+ecx+3620]
  0038e	8d 44 30 24	 lea	 eax, DWORD PTR [eax+esi+36]
  00392	d9 00		 fld	 DWORD PTR [eax]
  00394	dc 05 00 00 00
	00		 fadd	 QWORD PTR __real@3ff0000000000000
  0039a	d9 18		 fstp	 DWORD PTR [eax]
  0039c	8b 0b		 mov	 ecx, DWORD PTR [ebx]
  0039e	69 c9 50 2b 00
	00		 imul	 ecx, 11088		; 00002b50H
  003a4	03 0d 00 00 00
	00		 add	 ecx, DWORD PTR ?gObj@@3PAUOBJECTSTRUCT@@A ; gObj
  003aa	8b 81 24 0e 00
	00		 mov	 eax, DWORD PTR [ecx+3620]
  003b0	d9 44 30 24	 fld	 DWORD PTR [eax+esi+36]
  003b4	0f b7 85 e6 fd
	ff ff		 movzx	 eax, WORD PTR tv2630[ebp]
  003bb	0d 00 0c 00 00	 or	 eax, 3072		; 00000c00H
  003c0	89 85 e8 fd ff
	ff		 mov	 DWORD PTR tv2627[ebp], eax
  003c6	d9 ad e8 fd ff
	ff		 fldcw	 WORD PTR tv2627[ebp]
  003cc	db 9d e8 fd ff
	ff		 fistp	 DWORD PTR tv2625[ebp]
  003d2	8a 85 e8 fd ff
	ff		 mov	 al, BYTE PTR tv2625[ebp]
  003d8	d9 ad e6 fd ff
	ff		 fldcw	 WORD PTR tv2630[ebp]
$LN121@ProcState_:
  003de	8b 09		 mov	 ecx, DWORD PTR [ecx]
  003e0	0f b6 c0	 movzx	 eax, al
  003e3	6a 00		 push	 0
  003e5	50		 push	 eax
  003e6	52		 push	 edx
  003e7	51		 push	 ecx
  003e8	e8 00 00 00 00	 call	 ?GCItemDurSend@@YAXHEEE@Z ; GCItemDurSend
  003ed	83 c4 10	 add	 esp, 16			; 00000010H
$LN94@ProcState_:

; 346  : 								}
; 347  : 
; 348  : 								LogAddTD("[Illusion Temple] (%d) Payback to User (%s)(%s) 피의 두루마리 (Serial:%u)", this->m_btFloorIndex+1, gObj[this->m_FloorData[n].m_iTeamPlayerIndex].AccountID, gObj[this->m_FloorData[n].m_iTeamPlayerIndex].Name, gObj[this->m_FloorData[n].m_iTeamPlayerIndex].pInventory[loc142].m_Number);

  003f0	8b 13		 mov	 edx, DWORD PTR [ebx]
  003f2	a1 00 00 00 00	 mov	 eax, DWORD PTR ?gObj@@3PAUOBJECTSTRUCT@@A ; gObj
  003f7	69 d2 50 2b 00
	00		 imul	 edx, 11088		; 00002b50H
  003fd	8b 8c 10 24 0e
	00 00		 mov	 ecx, DWORD PTR [eax+edx+3620]
  00404	03 c2		 add	 eax, edx
  00406	8b 14 31	 mov	 edx, DWORD PTR [ecx+esi]
  00409	52		 push	 edx
  0040a	0f b6 97 2c 02
	00 00		 movzx	 edx, BYTE PTR [edi+556]
  00411	8d 48 77	 lea	 ecx, DWORD PTR [eax+119]
  00414	51		 push	 ecx
  00415	83 c0 6c	 add	 eax, 108		; 0000006cH
  00418	50		 push	 eax
  00419	42		 inc	 edx
  0041a	52		 push	 edx
  0041b	68 00 00 00 00	 push	 OFFSET ??_C@_0EK@LHEOMBJM@?$FLIllusion?5Temple?$FN?5?$CI?$CFd?$CJ?5Payback?5t@
  00420	ff 15 00 00 00
	00		 call	 DWORD PTR ?LogAddTD@@3P6AXPADZZA ; LogAddTD
  00426	83 c4 14	 add	 esp, 20			; 00000014H

; 349  : 							}
; 350  : 							else

  00429	eb 26		 jmp	 SHORT $LN37@ProcState_
$LN41@ProcState_:

; 351  : 							{
; 352  : 								LogAddTD("[Illusion Temple] (%d) Payback to User Failed (%s)(%s) Scroll Not Found", this->m_btFloorIndex+1, gObj[this->m_FloorData[n].m_iTeamPlayerIndex].AccountID, gObj[this->m_FloorData[n].m_iTeamPlayerIndex].Name);

  0042b	8b 03		 mov	 eax, DWORD PTR [ebx]
  0042d	69 c0 50 2b 00
	00		 imul	 eax, 11088		; 00002b50H
  00433	03 05 00 00 00
	00		 add	 eax, DWORD PTR ?gObj@@3PAUOBJECTSTRUCT@@A ; gObj
  00439	41		 inc	 ecx
  0043a	8d 50 77	 lea	 edx, DWORD PTR [eax+119]
  0043d	52		 push	 edx
  0043e	83 c0 6c	 add	 eax, 108		; 0000006cH
  00441	50		 push	 eax
  00442	51		 push	 ecx
  00443	68 00 00 00 00	 push	 OFFSET ??_C@_0EI@LKEJODBE@?$FLIllusion?5Temple?$FN?5?$CI?$CFd?$CJ?5Payback?5t@
  00448	ff 15 00 00 00
	00		 call	 DWORD PTR ?LogAddTD@@3P6AXPADZZA ; LogAddTD
  0044e	83 c4 10	 add	 esp, 16			; 00000010H
$LN37@ProcState_:

; 353  : 							}
; 354  : 							gObjMoveGate(this->m_FloorData[n].m_iTeamPlayerIndex, 267); //Elbeland

  00451	8b 03		 mov	 eax, DWORD PTR [ebx]
  00453	68 0b 01 00 00	 push	 267			; 0000010bH
  00458	50		 push	 eax
  00459	e8 00 00 00 00	 call	 ?gObjMoveGate@@YAHHH@Z	; gObjMoveGate
  0045e	83 c4 08	 add	 esp, 8
$LN45@ProcState_:

; 326  : 			{
; 327  : 				for( int n = 0; n < MAX_FLOOR_USER; n++ )

  00461	83 c3 30	 add	 ebx, 48			; 00000030H
  00464	ff 8d e0 fd ff
	ff		 dec	 DWORD PTR tv911[ebp]
  0046a	0f 85 30 fe ff
	ff		 jne	 $LL46@ProcState_

; 355  : 						}
; 356  : 					}
; 357  : 				}
; 358  : 
; 359  : 				LogAddTD("[Illusion Temple] (%d) Failed to Start Illusion Temple (UserCount: %d)", this->m_btFloorIndex+1, this->m_iEnteredUserCount);

  00470	0f b6 97 2c 02
	00 00		 movzx	 edx, BYTE PTR [edi+556]
  00477	8b 8f 28 02 00
	00		 mov	 ecx, DWORD PTR [edi+552]
  0047d	51		 push	 ecx
  0047e	42		 inc	 edx
  0047f	52		 push	 edx
  00480	68 00 00 00 00	 push	 OFFSET ??_C@_0EH@FBNKCLFD@?$FLIllusion?5Temple?$FN?5?$CI?$CFd?$CJ?5Failed?5to@
  00485	ff 15 00 00 00
	00		 call	 DWORD PTR ?LogAddTD@@3P6AXPADZZA ; LogAddTD
  0048b	83 c4 0c	 add	 esp, 12			; 0000000cH

; 360  : 				this->SetState(3);

  0048e	6a 03		 push	 3
  00490	8b cf		 mov	 ecx, edi
  00492	e8 00 00 00 00	 call	 ?SetState@CIllusionTempleProcess@@QAEXE@Z ; CIllusionTempleProcess::SetState
  00497	5f		 pop	 edi
  00498	5e		 pop	 esi
  00499	5b		 pop	 ebx

; 537  : 		}
; 538  : 	}
; 539  : }

  0049a	8b 4d fc	 mov	 ecx, DWORD PTR __$ArrayPad$[ebp]
  0049d	33 cd		 xor	 ecx, ebp
  0049f	e8 00 00 00 00	 call	 @__security_check_cookie@4
  004a4	8b e5		 mov	 esp, ebp
  004a6	5d		 pop	 ebp
  004a7	c2 04 00	 ret	 4
$LN47@ProcState_:

; 361  : 				return;
; 362  : 			}
; 363  : 			
; 364  : 			int loc143 = 0;
; 365  : 			int loc144 = -1;

  004aa	83 c8 ff	 or	 eax, -1
  004ad	89 85 e4 fd ff
	ff		 mov	 DWORD PTR _loc144$215957[ebp], eax

; 366  : 			int loc145 = -1;

  004b3	89 85 e8 fd ff
	ff		 mov	 DWORD PTR _loc145$215958[ebp], eax

; 367  : 
; 368  : 			char szTemp0[256];
; 369  : 			sprintf(szTemp0,"[Illusion Temple] (%d) [AlliedTeam] ", this->m_btFloorIndex+1);

  004b9	0f b6 87 2c 02
	00 00		 movzx	 eax, BYTE PTR [edi+556]
  004c0	40		 inc	 eax
  004c1	50		 push	 eax
  004c2	8d 8d fc fe ff
	ff		 lea	 ecx, DWORD PTR _szTemp0$215959[ebp]
  004c8	68 00 00 00 00	 push	 OFFSET ??_C@_0CF@JIFCGMEK@?$FLIllusion?5Temple?$FN?5?$CI?$CFd?$CJ?5?$FLAlliedTe@
  004cd	51		 push	 ecx
  004ce	e8 00 00 00 00	 call	 _sprintf

; 370  : 
; 371  : 			char szTemp1[256];
; 372  : 			sprintf(szTemp1,"[Illusion Temple] (%d) [IllusiondTeam] ", this->m_btFloorIndex+1);

  004d3	0f b6 97 2c 02
	00 00		 movzx	 edx, BYTE PTR [edi+556]
  004da	42		 inc	 edx
  004db	52		 push	 edx
  004dc	8d 85 fc fd ff
	ff		 lea	 eax, DWORD PTR _szTemp1$215961[ebp]
  004e2	68 00 00 00 00	 push	 OFFSET ??_C@_0CI@JGHENCNJ@?$FLIllusion?5Temple?$FN?5?$CI?$CFd?$CJ?5?$FLIllusion@
  004e7	50		 push	 eax
  004e8	e8 00 00 00 00	 call	 _sprintf
  004ed	83 c4 18	 add	 esp, 24			; 00000018H

; 373  : 
; 374  : 			for( int loc274 = 0; loc274 < MAX_FLOOR_USER; loc274++)

  004f0	c7 85 e0 fd ff
	ff 00 00 00 00	 mov	 DWORD PTR _loc274$215963[ebp], 0
  004fa	8d 77 20	 lea	 esi, DWORD PTR [edi+32]
  004fd	8d 49 00	 npad	 3
$LL93@ProcState_:

; 375  : 			{
; 376  : 				if( this->m_FloorData[loc274].m_iTeamPlayerIndex != OBJ_EMPTY && gObj[this->m_FloorData[loc274].m_iTeamPlayerIndex].m_iIllusionTempleIndex == loc274)

  00500	8b 0e		 mov	 ecx, DWORD PTR [esi]
  00502	d9 ee		 fldz
  00504	83 f9 ff	 cmp	 ecx, -1
  00507	0f 84 5c 04 00
	00		 je	 $LN106@ProcState_
  0050d	a1 00 00 00 00	 mov	 eax, DWORD PTR ?gObj@@3PAUOBJECTSTRUCT@@A ; gObj
  00512	8b d1		 mov	 edx, ecx
  00514	69 d2 50 2b 00
	00		 imul	 edx, 11088		; 00002b50H
  0051a	03 c2		 add	 eax, edx
  0051c	8b 95 e0 fd ff
	ff		 mov	 edx, DWORD PTR _loc274$215963[ebp]
  00522	39 90 78 20 00
	00		 cmp	 DWORD PTR [eax+8312], edx
  00528	0f 85 3b 04 00
	00		 jne	 $LN106@ProcState_

; 377  : 				{
; 378  : 					if( gObj[this->m_FloorData[loc274].m_iTeamPlayerIndex].Class >= MAX_TYPE_PLAYER || gObj[this->m_FloorData[loc274].m_iTeamPlayerIndex].Class < 0)

  0052e	66 83 b8 b8 00
	00 00 07	 cmp	 WORD PTR [eax+184], 7
  00536	0f 83 2d 04 00
	00		 jae	 $LN106@ProcState_

; 379  : 					{
; 380  : 						continue;
; 381  : 					}
; 382  : 
; 383  : 					int loc275 = this->m_FloorData[loc274].m_btPosNDur; //season 3.0 changed

  0053c	0f b6 5e 28	 movzx	 ebx, BYTE PTR [esi+40]

; 384  : 
; 385  : 					if(loc275 > -1)

  00540	83 fb ff	 cmp	 ebx, -1
  00543	7e 79		 jle	 SHORT $LN118@ProcState_

; 386  : 					{
; 387  : 						if(gObj[this->m_FloorData[loc274].m_iTeamPlayerIndex].pInventory[loc275].m_Durability <= 0.0f) //season 3.0 add-on

  00545	8b 80 24 0e 00
	00		 mov	 eax, DWORD PTR [eax+3620]
  0054b	8b d3		 mov	 edx, ebx
  0054d	69 d2 d4 00 00
	00		 imul	 edx, 212		; 000000d4H
  00553	d8 54 02 24	 fcom	 DWORD PTR [edx+eax+36]
  00557	03 d0		 add	 edx, eax
  00559	89 95 dc fd ff
	ff		 mov	 DWORD PTR tv2578[ebp], edx
  0055f	df e0		 fnstsw	 ax
  00561	f6 c4 01	 test	 ah, 1
  00564	75 58		 jne	 SHORT $LN118@ProcState_

; 388  : 						{
; 389  : 							if(gObj[this->m_FloorData[loc274].m_iTeamPlayerIndex].pInventory[loc275].m_Type == ITEMGET(13,51))

  00566	0f b7 42 06	 movzx	 eax, WORD PTR [edx+6]
  0056a	ba 33 1a 00 00	 mov	 edx, 6707		; 00001a33H
  0056f	66 3b c2	 cmp	 ax, dx
  00572	75 19		 jne	 SHORT $LN28@ProcState_

; 390  : 							{
; 391  : 								gObjInventoryDeleteItem(this->m_FloorData[loc274].m_iTeamPlayerIndex, loc275);

  00574	53		 push	 ebx
  00575	dd d8		 fstp	 ST(0)
  00577	51		 push	 ecx
  00578	e8 00 00 00 00	 call	 ?gObjInventoryDeleteItem@@YAEHH@Z ; gObjInventoryDeleteItem

; 392  : 								GCInventoryItemDeleteSend(this->m_FloorData[loc274].m_iTeamPlayerIndex, loc275, 0);

  0057d	8b 06		 mov	 eax, DWORD PTR [esi]
  0057f	6a 00		 push	 0
  00581	53		 push	 ebx
  00582	50		 push	 eax
  00583	e8 00 00 00 00	 call	 ?GCInventoryItemDeleteSend@@YAXHEE@Z ; GCInventoryItemDeleteSend
  00588	83 c4 14	 add	 esp, 20			; 00000014H
  0058b	eb 33		 jmp	 SHORT $LN95@ProcState_
$LN28@ProcState_:

; 393  : 							}
; 394  : 							else if(gObj[this->m_FloorData[loc274].m_iTeamPlayerIndex].pInventory[loc275].m_Type == ITEMGET(13,61))

  0058d	ba 3d 1a 00 00	 mov	 edx, 6717		; 00001a3dH
  00592	66 3b c2	 cmp	 ax, dx
  00595	75 27		 jne	 SHORT $LN118@ProcState_

; 395  : 							{
; 396  : 								if(gObj[this->m_FloorData[loc274].m_iTeamPlayerIndex].pInventory[loc275].m_Durability <= 0.0f)

  00597	8b 85 dc fd ff
	ff		 mov	 eax, DWORD PTR tv2578[ebp]
  0059d	d8 58 24	 fcomp	 DWORD PTR [eax+36]
  005a0	df e0		 fnstsw	 ax
  005a2	f6 c4 01	 test	 ah, 1
  005a5	75 19		 jne	 SHORT $LN95@ProcState_

; 397  : 								{
; 398  : 									gObjInventoryDeleteItem(this->m_FloorData[loc274].m_iTeamPlayerIndex, loc275);

  005a7	53		 push	 ebx
  005a8	51		 push	 ecx
  005a9	e8 00 00 00 00	 call	 ?gObjInventoryDeleteItem@@YAEHH@Z ; gObjInventoryDeleteItem

; 399  : 									GCInventoryItemDeleteSend(this->m_FloorData[loc274].m_iTeamPlayerIndex, loc275, 0);

  005ae	8b 0e		 mov	 ecx, DWORD PTR [esi]
  005b0	6a 00		 push	 0
  005b2	53		 push	 ebx
  005b3	51		 push	 ecx
  005b4	e8 00 00 00 00	 call	 ?GCInventoryItemDeleteSend@@YAXHEE@Z ; GCInventoryItemDeleteSend
  005b9	83 c4 14	 add	 esp, 20			; 00000014H
  005bc	eb 02		 jmp	 SHORT $LN95@ProcState_
$LN118@ProcState_:

; 393  : 							}
; 394  : 							else if(gObj[this->m_FloorData[loc274].m_iTeamPlayerIndex].pInventory[loc275].m_Type == ITEMGET(13,61))

  005be	dd d8		 fstp	 ST(0)
$LN95@ProcState_:

; 400  : 								}
; 401  : 							}
; 402  : 						}
; 403  : 					}
; 404  : 
; 405  : 					if(this->m_btYellowTeamClassCount[gObj[this->m_FloorData[loc274].m_iTeamPlayerIndex].Class] == this->m_btBlueTeamClassCount[gObj[this->m_FloorData[loc274].m_iTeamPlayerIndex].Class])

  005c0	8b 16		 mov	 edx, DWORD PTR [esi]
  005c2	a1 00 00 00 00	 mov	 eax, DWORD PTR ?gObj@@3PAUOBJECTSTRUCT@@A ; gObj
  005c7	69 d2 50 2b 00
	00		 imul	 edx, 11088		; 00002b50H
  005cd	8d 8c 02 b8 00
	00 00		 lea	 ecx, DWORD PTR [edx+eax+184]
  005d4	0f b7 01	 movzx	 eax, WORD PTR [ecx]
  005d7	8a 94 38 d3 03
	00 00		 mov	 dl, BYTE PTR [eax+edi+979]
  005de	3a 94 38 da 03
	00 00		 cmp	 dl, BYTE PTR [eax+edi+986]
  005e5	75 28		 jne	 SHORT $LN24@ProcState_

; 406  : 					{
; 407  : 						if(this->m_iYellowTeamUserCount == this->m_iBlueTeamUserCount)

  005e7	8b 87 c8 03 00
	00		 mov	 eax, DWORD PTR [edi+968]
  005ed	8b 8f cc 03 00
	00		 mov	 ecx, DWORD PTR [edi+972]
  005f3	3b c1		 cmp	 eax, ecx
  005f5	75 13		 jne	 SHORT $LN123@ProcState_

; 408  : 						{
; 409  : 							this->m_FloorData[loc274].m_btTeamJoinSide = rand()%2;

  005f7	e8 00 00 00 00	 call	 _rand
  005fc	25 01 00 00 80	 and	 eax, -2147483647	; 80000001H
  00601	79 42		 jns	 SHORT $LN120@ProcState_
  00603	48		 dec	 eax
  00604	83 c8 fe	 or	 eax, -2			; fffffffeH
  00607	40		 inc	 eax
  00608	eb 3b		 jmp	 SHORT $LN120@ProcState_
$LN123@ProcState_:

; 410  : 						}
; 411  : 						else if(this->m_iYellowTeamUserCount > this->m_iBlueTeamUserCount)

  0060a	0f 9f c0	 setg	 al

; 412  : 						{
; 413  : 							this->m_FloorData[loc274].m_btTeamJoinSide = 1;
; 414  : 						}
; 415  : 						else
; 416  : 						{
; 417  : 							this->m_FloorData[loc274].m_btTeamJoinSide = 0;
; 418  : 						}

  0060d	eb 36		 jmp	 SHORT $LN120@ProcState_
$LN24@ProcState_:

; 419  : 					}
; 420  : 					else if(this->m_btYellowTeamClassCount[gObj[this->m_FloorData[loc274].m_iTeamPlayerIndex].Class] < this->m_btBlueTeamClassCount[gObj[this->m_FloorData[loc274].m_iTeamPlayerIndex].Class])

  0060f	0f b7 01	 movzx	 eax, WORD PTR [ecx]
  00612	8a 94 38 d3 03
	00 00		 mov	 dl, BYTE PTR [eax+edi+979]
  00619	3a 94 38 da 03
	00 00		 cmp	 dl, BYTE PTR [eax+edi+986]
  00620	73 14		 jae	 SHORT $LN18@ProcState_

; 421  : 					{
; 422  : 						if(this->m_iYellowTeamUserCount > this->m_iBlueTeamUserCount)

  00622	8b 87 c8 03 00
	00		 mov	 eax, DWORD PTR [edi+968]
  00628	3b 87 cc 03 00
	00		 cmp	 eax, DWORD PTR [edi+972]
  0062e	0f 9f c1	 setg	 cl
  00631	88 4e 04	 mov	 BYTE PTR [esi+4], cl

; 423  : 						{
; 424  : 							this->m_FloorData[loc274].m_btTeamJoinSide = 1;
; 425  : 						}
; 426  : 						else
; 427  : 						{
; 428  : 							this->m_FloorData[loc274].m_btTeamJoinSide = 0;
; 429  : 						}

  00634	eb 12		 jmp	 SHORT $LN14@ProcState_
$LN18@ProcState_:

; 430  : 					}
; 431  : 					else if(this->m_iYellowTeamUserCount < this->m_iBlueTeamUserCount)

  00636	8b 97 c8 03 00
	00		 mov	 edx, DWORD PTR [edi+968]
  0063c	3b 97 cc 03 00
	00		 cmp	 edx, DWORD PTR [edi+972]
  00642	0f 9d c0	 setge	 al
$LN120@ProcState_:
  00645	88 46 04	 mov	 BYTE PTR [esi+4], al
$LN14@ProcState_:

; 432  : 					{
; 433  : 						this->m_FloorData[loc274].m_btTeamJoinSide = 0;
; 434  : 					}
; 435  : 					else
; 436  : 					{
; 437  : 						this->m_FloorData[loc274].m_btTeamJoinSide = 1;
; 438  : 					}
; 439  : 
; 440  : 					if(this->m_FloorData[loc274].m_btTeamJoinSide == 0)
; 441  : 					{
; 442  : 						this->m_FloorData[loc274].m_btTeamJoinSide = 0; //wtf??
; 443  : 						this->m_btYellowTeamClassCount[gObj[this->m_FloorData[loc274].m_iTeamPlayerIndex].Class]++;

  00648	8b 0e		 mov	 ecx, DWORD PTR [esi]
  0064a	69 c9 50 2b 00
	00		 imul	 ecx, 11088		; 00002b50H
  00650	80 7e 04 00	 cmp	 BYTE PTR [esi+4], 0
  00654	0f 85 89 01 00
	00		 jne	 $LN12@ProcState_
  0065a	c6 46 04 00	 mov	 BYTE PTR [esi+4], 0
  0065e	8b 15 00 00 00
	00		 mov	 edx, DWORD PTR ?gObj@@3PAUOBJECTSTRUCT@@A ; gObj
  00664	0f b7 84 11 b8
	00 00 00	 movzx	 eax, WORD PTR [ecx+edx+184]
  0066c	fe 84 38 d3 03
	00 00		 inc	 BYTE PTR [eax+edi+979]

; 444  : 
; 445  : 						if(loc144 == -1 && gObj[this->m_FloorData[loc274].m_iTeamPlayerIndex].PartyNumber < 0)

  00673	83 bd e4 fd ff
	ff ff		 cmp	 DWORD PTR _loc144$215957[ebp], -1
  0067a	8b 15 00 00 00
	00		 mov	 edx, DWORD PTR ?gObj@@3PAUOBJECTSTRUCT@@A ; gObj
  00680	8d 84 38 d3 03
	00 00		 lea	 eax, DWORD PTR [eax+edi+979]
  00687	75 6c		 jne	 SHORT $LN11@ProcState_
  00689	8b 0e		 mov	 ecx, DWORD PTR [esi]
  0068b	8b c1		 mov	 eax, ecx
  0068d	69 c0 50 2b 00
	00		 imul	 eax, 11088		; 00002b50H
  00693	03 c2		 add	 eax, edx
  00695	83 b8 2c 04 00
	00 00		 cmp	 DWORD PTR [eax+1068], 0
  0069c	7d 57		 jge	 SHORT $LN11@ProcState_

; 446  : 						{
; 447  : 							loc144 = gParty.Create(this->m_FloorData[loc274].m_iTeamPlayerIndex, gObj[this->m_FloorData[loc274].m_iTeamPlayerIndex].DBNumber, gObj[this->m_FloorData[loc274].m_iTeamPlayerIndex].Level);

  0069e	0f bf 90 be 00
	00 00		 movsx	 edx, WORD PTR [eax+190]
  006a5	8b 40 2c	 mov	 eax, DWORD PTR [eax+44]
  006a8	52		 push	 edx
  006a9	50		 push	 eax
  006aa	51		 push	 ecx
  006ab	b9 00 00 00 00	 mov	 ecx, OFFSET ?gParty@@3VPartyClass@@A ; gParty
  006b0	e8 00 00 00 00	 call	 ?Create@PartyClass@@QAEHHHH@Z ; PartyClass::Create
  006b5	8b d8		 mov	 ebx, eax
  006b7	89 9d e4 fd ff
	ff		 mov	 DWORD PTR _loc144$215957[ebp], ebx

; 448  : 
; 449  : 							if(loc144 == -1)

  006bd	83 fb ff	 cmp	 ebx, -1
  006c0	75 1c		 jne	 SHORT $LN10@ProcState_

; 450  : 							{
; 451  : 								LogAddTD("[Illusion Temple] (%d) Party Create Error, (Team: %d)", this->m_btFloorIndex+1, this->m_FloorData[loc274].m_btTeamJoinSide);	

  006c2	0f b6 4e 04	 movzx	 ecx, BYTE PTR [esi+4]
  006c6	0f b6 97 2c 02
	00 00		 movzx	 edx, BYTE PTR [edi+556]
  006cd	51		 push	 ecx
  006ce	42		 inc	 edx
  006cf	52		 push	 edx
  006d0	68 00 00 00 00	 push	 OFFSET ??_C@_0DG@NEAACFEP@?$FLIllusion?5Temple?$FN?5?$CI?$CFd?$CJ?5Party?5Cre@
  006d5	ff 15 00 00 00
	00		 call	 DWORD PTR ?LogAddTD@@3P6AXPADZZA ; LogAddTD
  006db	83 c4 0c	 add	 esp, 12			; 0000000cH
$LN10@ProcState_:

; 452  : 							}
; 453  : 							gObj[this->m_FloorData[loc274].m_iTeamPlayerIndex].PartyNumber = loc144;

  006de	8b 06		 mov	 eax, DWORD PTR [esi]
  006e0	8b 0d 00 00 00
	00		 mov	 ecx, DWORD PTR ?gObj@@3PAUOBJECTSTRUCT@@A ; gObj
  006e6	69 c0 50 2b 00
	00		 imul	 eax, 11088		; 00002b50H
  006ec	89 9c 08 2c 04
	00 00		 mov	 DWORD PTR [eax+ecx+1068], ebx

; 454  : 						}
; 455  : 						else

  006f3	eb 60		 jmp	 SHORT $LN7@ProcState_
$LN11@ProcState_:

; 456  : 						{
; 457  : 							int loc276 = gParty.Add(loc144, this->m_FloorData[loc274].m_iTeamPlayerIndex, gObj[this->m_FloorData[loc274].m_iTeamPlayerIndex].DBNumber, gObj[this->m_FloorData[loc274].m_iTeamPlayerIndex].Level);

  006f5	8b 06		 mov	 eax, DWORD PTR [esi]
  006f7	8b 9d e4 fd ff
	ff		 mov	 ebx, DWORD PTR _loc144$215957[ebp]
  006fd	8b c8		 mov	 ecx, eax
  006ff	69 c9 50 2b 00
	00		 imul	 ecx, 11088		; 00002b50H
  00705	03 ca		 add	 ecx, edx

; 458  : 
; 459  : 							if(loc276 >= 0)

  00707	0f bf 91 be 00
	00 00		 movsx	 edx, WORD PTR [ecx+190]
  0070e	8b 49 2c	 mov	 ecx, DWORD PTR [ecx+44]
  00711	52		 push	 edx
  00712	51		 push	 ecx
  00713	50		 push	 eax
  00714	53		 push	 ebx
  00715	b9 00 00 00 00	 mov	 ecx, OFFSET ?gParty@@3VPartyClass@@A ; gParty
  0071a	e8 00 00 00 00	 call	 ?Add@PartyClass@@QAEHHHHH@Z ; PartyClass::Add
  0071f	85 c0		 test	 eax, eax
  00721	78 16		 js	 SHORT $LN8@ProcState_

; 460  : 							{
; 461  : 								gObj[this->m_FloorData[loc274].m_iTeamPlayerIndex].PartyNumber = loc144;

  00723	8b 16		 mov	 edx, DWORD PTR [esi]
  00725	a1 00 00 00 00	 mov	 eax, DWORD PTR ?gObj@@3PAUOBJECTSTRUCT@@A ; gObj
  0072a	69 d2 50 2b 00
	00		 imul	 edx, 11088		; 00002b50H
  00730	89 9c 02 2c 04
	00 00		 mov	 DWORD PTR [edx+eax+1068], ebx

; 462  : 							}
; 463  : 							else

  00737	eb 1c		 jmp	 SHORT $LN7@ProcState_
$LN8@ProcState_:

; 464  : 							{
; 465  : 								LogAddTD("[Illusion Temple] (%d) Party Add Error, (Team: %d)", this->m_btFloorIndex+1, this->m_FloorData[loc274].m_btTeamJoinSide);

  00739	0f b6 4e 04	 movzx	 ecx, BYTE PTR [esi+4]
  0073d	0f b6 97 2c 02
	00 00		 movzx	 edx, BYTE PTR [edi+556]
  00744	51		 push	 ecx
  00745	42		 inc	 edx
  00746	52		 push	 edx
  00747	68 00 00 00 00	 push	 OFFSET ??_C@_0DD@OHOGJPCE@?$FLIllusion?5Temple?$FN?5?$CI?$CFd?$CJ?5Party?5Add@
  0074c	ff 15 00 00 00
	00		 call	 DWORD PTR ?LogAddTD@@3P6AXPADZZA ; LogAddTD
  00752	83 c4 0c	 add	 esp, 12			; 0000000cH
$LN7@ProcState_:

; 466  : 							}
; 467  : 						}
; 468  : 
; 469  : 						gObjMoveGate(this->m_FloorData[loc274].m_iTeamPlayerIndex, this->m_btFloorIndex+148); //Temple

  00755	0f b6 87 2c 02
	00 00		 movzx	 eax, BYTE PTR [edi+556]
  0075c	8b 0e		 mov	 ecx, DWORD PTR [esi]
  0075e	05 94 00 00 00	 add	 eax, 148		; 00000094H
  00763	50		 push	 eax
  00764	51		 push	 ecx
  00765	e8 00 00 00 00	 call	 ?gObjMoveGate@@YAHHH@Z	; gObjMoveGate

; 470  : 						gObj[this->m_FloorData[loc274].m_iTeamPlayerIndex].m_Change = 404; //"MU Allies"

  0076a	8b 16		 mov	 edx, DWORD PTR [esi]
  0076c	a1 00 00 00 00	 mov	 eax, DWORD PTR ?gObj@@3PAUOBJECTSTRUCT@@A ; gObj
  00771	69 d2 50 2b 00
	00		 imul	 edx, 11088		; 00002b50H
  00777	c7 84 02 54 04
	00 00 94 01 00
	00		 mov	 DWORD PTR [edx+eax+1108], 404 ; 00000194H

; 471  : 						gObjViewportListProtocolCreate(&gObj[this->m_FloorData[loc274].m_iTeamPlayerIndex]);

  00782	8b 0e		 mov	 ecx, DWORD PTR [esi]
  00784	69 c9 50 2b 00
	00		 imul	 ecx, 11088		; 00002b50H
  0078a	03 0d 00 00 00
	00		 add	 ecx, DWORD PTR ?gObj@@3PAUOBJECTSTRUCT@@A ; gObj
  00790	51		 push	 ecx
  00791	e8 00 00 00 00	 call	 ?gObjViewportListProtocolCreate@@YAXPAUOBJECTSTRUCT@@@Z ; gObjViewportListProtocolCreate

; 472  : 
; 473  : 						this->m_iYellowTeamUserCount++;
; 474  : 						loc143++;
; 475  : 
; 476  : 						int loc277 = strlen(szTemp0);

  00796	8d 85 fc fe ff
	ff		 lea	 eax, DWORD PTR _szTemp0$215959[ebp]
  0079c	83 c4 0c	 add	 esp, 12			; 0000000cH
  0079f	ff 87 c8 03 00
	00		 inc	 DWORD PTR [edi+968]
  007a5	8d 50 01	 lea	 edx, DWORD PTR [eax+1]
$LL91@ProcState_:
  007a8	8a 08		 mov	 cl, BYTE PTR [eax]
  007aa	40		 inc	 eax
  007ab	84 c9		 test	 cl, cl
  007ad	75 f9		 jne	 SHORT $LL91@ProcState_

; 477  : 
; 478  : 						sprintf(&szTemp0[loc277],"(%s),(%s) ",gObj[this->m_FloorData[loc274].m_iTeamPlayerIndex].AccountID,gObj[this->m_FloorData[loc274].m_iTeamPlayerIndex].Name);

  007af	8b 0d 00 00 00
	00		 mov	 ecx, DWORD PTR ?gObj@@3PAUOBJECTSTRUCT@@A ; gObj
  007b5	2b c2		 sub	 eax, edx
  007b7	8b 16		 mov	 edx, DWORD PTR [esi]
  007b9	69 d2 50 2b 00
	00		 imul	 edx, 11088		; 00002b50H
  007bf	03 ca		 add	 ecx, edx
  007c1	8d 51 77	 lea	 edx, DWORD PTR [ecx+119]
  007c4	52		 push	 edx
  007c5	83 c1 6c	 add	 ecx, 108		; 0000006cH
  007c8	51		 push	 ecx
  007c9	8d 84 05 fc fe
	ff ff		 lea	 eax, DWORD PTR _szTemp0$215959[ebp+eax]
  007d0	68 00 00 00 00	 push	 OFFSET ??_C@_0L@BPBFEMAA@?$CI?$CFs?$CJ?0?$CI?$CFs?$CJ?5?$AA@
  007d5	50		 push	 eax
  007d6	e8 00 00 00 00	 call	 _sprintf
  007db	83 c4 10	 add	 esp, 16			; 00000010H

; 479  : 					}
; 480  : 					else

  007de	e9 88 01 00 00	 jmp	 $LN35@ProcState_
$LN12@ProcState_:

; 481  : 					{
; 482  : 						this->m_FloorData[loc274].m_btTeamJoinSide = 1;

  007e3	c6 46 04 01	 mov	 BYTE PTR [esi+4], 1

; 483  : 
; 484  : 						this->m_btBlueTeamClassCount[gObj[this->m_FloorData[loc274].m_iTeamPlayerIndex].Class]++;

  007e7	8b 15 00 00 00
	00		 mov	 edx, DWORD PTR ?gObj@@3PAUOBJECTSTRUCT@@A ; gObj
  007ed	0f b7 84 11 b8
	00 00 00	 movzx	 eax, WORD PTR [ecx+edx+184]
  007f5	fe 84 38 da 03
	00 00		 inc	 BYTE PTR [eax+edi+986]

; 485  : 
; 486  : 						if(loc145 == -1 && gObj[this->m_FloorData[loc274].m_iTeamPlayerIndex].PartyNumber < 0)

  007fc	83 bd e8 fd ff
	ff ff		 cmp	 DWORD PTR _loc145$215958[ebp], -1
  00803	8b 15 00 00 00
	00		 mov	 edx, DWORD PTR ?gObj@@3PAUOBJECTSTRUCT@@A ; gObj
  00809	8d 84 38 da 03
	00 00		 lea	 eax, DWORD PTR [eax+edi+986]
  00810	75 6c		 jne	 SHORT $LN5@ProcState_
  00812	8b 0e		 mov	 ecx, DWORD PTR [esi]
  00814	8b c1		 mov	 eax, ecx
  00816	69 c0 50 2b 00
	00		 imul	 eax, 11088		; 00002b50H
  0081c	03 c2		 add	 eax, edx
  0081e	83 b8 2c 04 00
	00 00		 cmp	 DWORD PTR [eax+1068], 0
  00825	7d 57		 jge	 SHORT $LN5@ProcState_

; 487  : 						{
; 488  : 							loc145 = gParty.Create(this->m_FloorData[loc274].m_iTeamPlayerIndex, gObj[this->m_FloorData[loc274].m_iTeamPlayerIndex].DBNumber, gObj[this->m_FloorData[loc274].m_iTeamPlayerIndex].Level);

  00827	0f bf 90 be 00
	00 00		 movsx	 edx, WORD PTR [eax+190]
  0082e	8b 40 2c	 mov	 eax, DWORD PTR [eax+44]
  00831	52		 push	 edx
  00832	50		 push	 eax
  00833	51		 push	 ecx
  00834	b9 00 00 00 00	 mov	 ecx, OFFSET ?gParty@@3VPartyClass@@A ; gParty
  00839	e8 00 00 00 00	 call	 ?Create@PartyClass@@QAEHHHH@Z ; PartyClass::Create
  0083e	8b d8		 mov	 ebx, eax
  00840	89 9d e8 fd ff
	ff		 mov	 DWORD PTR _loc145$215958[ebp], ebx

; 489  : 
; 490  : 							if(loc145 == -1)

  00846	83 fb ff	 cmp	 ebx, -1
  00849	75 1c		 jne	 SHORT $LN4@ProcState_

; 491  : 							{
; 492  : 								LogAddTD("[Illusion Temple] (%d) Party Create Error, (Team: %d)", this->m_btFloorIndex+1, this->m_FloorData[loc274].m_btTeamJoinSide);	

  0084b	0f b6 4e 04	 movzx	 ecx, BYTE PTR [esi+4]
  0084f	0f b6 97 2c 02
	00 00		 movzx	 edx, BYTE PTR [edi+556]
  00856	51		 push	 ecx
  00857	42		 inc	 edx
  00858	52		 push	 edx
  00859	68 00 00 00 00	 push	 OFFSET ??_C@_0DG@NEAACFEP@?$FLIllusion?5Temple?$FN?5?$CI?$CFd?$CJ?5Party?5Cre@
  0085e	ff 15 00 00 00
	00		 call	 DWORD PTR ?LogAddTD@@3P6AXPADZZA ; LogAddTD
  00864	83 c4 0c	 add	 esp, 12			; 0000000cH
$LN4@ProcState_:

; 493  : 							}
; 494  : 
; 495  : 							gObj[this->m_FloorData[loc274].m_iTeamPlayerIndex].PartyNumber = loc145;

  00867	8b 06		 mov	 eax, DWORD PTR [esi]
  00869	8b 0d 00 00 00
	00		 mov	 ecx, DWORD PTR ?gObj@@3PAUOBJECTSTRUCT@@A ; gObj
  0086f	69 c0 50 2b 00
	00		 imul	 eax, 11088		; 00002b50H
  00875	89 9c 08 2c 04
	00 00		 mov	 DWORD PTR [eax+ecx+1068], ebx

; 496  : 						}
; 497  : 						else

  0087c	eb 60		 jmp	 SHORT $LN1@ProcState_
$LN5@ProcState_:

; 498  : 						{
; 499  : 							int loc278 = gParty.Add(loc145, this->m_FloorData[loc274].m_iTeamPlayerIndex, gObj[this->m_FloorData[loc274].m_iTeamPlayerIndex].DBNumber, gObj[this->m_FloorData[loc274].m_iTeamPlayerIndex].Level);

  0087e	8b 06		 mov	 eax, DWORD PTR [esi]
  00880	8b 9d e8 fd ff
	ff		 mov	 ebx, DWORD PTR _loc145$215958[ebp]
  00886	8b c8		 mov	 ecx, eax
  00888	69 c9 50 2b 00
	00		 imul	 ecx, 11088		; 00002b50H
  0088e	03 ca		 add	 ecx, edx

; 500  : 
; 501  : 							if(loc278 >= 0)

  00890	0f bf 91 be 00
	00 00		 movsx	 edx, WORD PTR [ecx+190]
  00897	8b 49 2c	 mov	 ecx, DWORD PTR [ecx+44]
  0089a	52		 push	 edx
  0089b	51		 push	 ecx
  0089c	50		 push	 eax
  0089d	53		 push	 ebx
  0089e	b9 00 00 00 00	 mov	 ecx, OFFSET ?gParty@@3VPartyClass@@A ; gParty
  008a3	e8 00 00 00 00	 call	 ?Add@PartyClass@@QAEHHHHH@Z ; PartyClass::Add
  008a8	85 c0		 test	 eax, eax
  008aa	78 16		 js	 SHORT $LN2@ProcState_

; 502  : 							{
; 503  : 								gObj[this->m_FloorData[loc274].m_iTeamPlayerIndex].PartyNumber = loc145;

  008ac	8b 16		 mov	 edx, DWORD PTR [esi]
  008ae	a1 00 00 00 00	 mov	 eax, DWORD PTR ?gObj@@3PAUOBJECTSTRUCT@@A ; gObj
  008b3	69 d2 50 2b 00
	00		 imul	 edx, 11088		; 00002b50H
  008b9	89 9c 02 2c 04
	00 00		 mov	 DWORD PTR [edx+eax+1068], ebx

; 504  : 							}
; 505  : 							else

  008c0	eb 1c		 jmp	 SHORT $LN1@ProcState_
$LN2@ProcState_:

; 506  : 							{
; 507  : 								LogAddTD("[Illusion Temple] (%d) Party Add Error, (Team: %d)", this->m_btFloorIndex+1, this->m_FloorData[loc274].m_btTeamJoinSide);

  008c2	0f b6 4e 04	 movzx	 ecx, BYTE PTR [esi+4]
  008c6	0f b6 97 2c 02
	00 00		 movzx	 edx, BYTE PTR [edi+556]
  008cd	51		 push	 ecx
  008ce	42		 inc	 edx
  008cf	52		 push	 edx
  008d0	68 00 00 00 00	 push	 OFFSET ??_C@_0DD@OHOGJPCE@?$FLIllusion?5Temple?$FN?5?$CI?$CFd?$CJ?5Party?5Add@
  008d5	ff 15 00 00 00
	00		 call	 DWORD PTR ?LogAddTD@@3P6AXPADZZA ; LogAddTD
  008db	83 c4 0c	 add	 esp, 12			; 0000000cH
$LN1@ProcState_:

; 508  : 							}
; 509  : 						}
; 510  : 
; 511  : 						gObjMoveGate(this->m_FloorData[loc274].m_iTeamPlayerIndex, this->m_btFloorIndex+154); //Temple

  008de	0f b6 87 2c 02
	00 00		 movzx	 eax, BYTE PTR [edi+556]
  008e5	8b 0e		 mov	 ecx, DWORD PTR [esi]
  008e7	05 9a 00 00 00	 add	 eax, 154		; 0000009aH
  008ec	50		 push	 eax
  008ed	51		 push	 ecx
  008ee	e8 00 00 00 00	 call	 ?gObjMoveGate@@YAHHH@Z	; gObjMoveGate

; 512  : 						gObj[this->m_FloorData[loc274].m_iTeamPlayerIndex].m_Change = 405; //"Illusion Sorcerer"

  008f3	8b 16		 mov	 edx, DWORD PTR [esi]
  008f5	a1 00 00 00 00	 mov	 eax, DWORD PTR ?gObj@@3PAUOBJECTSTRUCT@@A ; gObj
  008fa	69 d2 50 2b 00
	00		 imul	 edx, 11088		; 00002b50H
  00900	c7 84 02 54 04
	00 00 95 01 00
	00		 mov	 DWORD PTR [edx+eax+1108], 405 ; 00000195H

; 513  : 						gObjViewportListProtocolCreate(&gObj[this->m_FloorData[loc274].m_iTeamPlayerIndex]);

  0090b	8b 0e		 mov	 ecx, DWORD PTR [esi]
  0090d	69 c9 50 2b 00
	00		 imul	 ecx, 11088		; 00002b50H
  00913	03 0d 00 00 00
	00		 add	 ecx, DWORD PTR ?gObj@@3PAUOBJECTSTRUCT@@A ; gObj
  00919	51		 push	 ecx
  0091a	e8 00 00 00 00	 call	 ?gObjViewportListProtocolCreate@@YAXPAUOBJECTSTRUCT@@@Z ; gObjViewportListProtocolCreate

; 514  : 
; 515  : 						this->m_iBlueTeamUserCount++;
; 516  : 						loc143++;
; 517  : 
; 518  : 						int loc279 = strlen(szTemp1);

  0091f	8d 85 fc fd ff
	ff		 lea	 eax, DWORD PTR _szTemp1$215961[ebp]
  00925	83 c4 0c	 add	 esp, 12			; 0000000cH
  00928	ff 87 cc 03 00
	00		 inc	 DWORD PTR [edi+972]
  0092e	8d 50 01	 lea	 edx, DWORD PTR [eax+1]
$LL92@ProcState_:
  00931	8a 08		 mov	 cl, BYTE PTR [eax]
  00933	40		 inc	 eax
  00934	84 c9		 test	 cl, cl
  00936	75 f9		 jne	 SHORT $LL92@ProcState_

; 519  : 
; 520  : 						sprintf(&szTemp1[loc279],"(%s),(%s) ",gObj[this->m_FloorData[loc274].m_iTeamPlayerIndex].AccountID,gObj[this->m_FloorData[loc274].m_iTeamPlayerIndex].Name);

  00938	8b 0d 00 00 00
	00		 mov	 ecx, DWORD PTR ?gObj@@3PAUOBJECTSTRUCT@@A ; gObj
  0093e	2b c2		 sub	 eax, edx
  00940	8b 16		 mov	 edx, DWORD PTR [esi]
  00942	69 d2 50 2b 00
	00		 imul	 edx, 11088		; 00002b50H
  00948	03 ca		 add	 ecx, edx
  0094a	8d 51 77	 lea	 edx, DWORD PTR [ecx+119]
  0094d	52		 push	 edx
  0094e	83 c1 6c	 add	 ecx, 108		; 0000006cH
  00951	51		 push	 ecx
  00952	8d 84 05 fc fd
	ff ff		 lea	 eax, DWORD PTR _szTemp1$215961[ebp+eax]
  00959	68 00 00 00 00	 push	 OFFSET ??_C@_0L@BPBFEMAA@?$CI?$CFs?$CJ?0?$CI?$CFs?$CJ?5?$AA@
  0095e	50		 push	 eax
  0095f	e8 00 00 00 00	 call	 _sprintf
  00964	83 c4 10	 add	 esp, 16			; 00000010H
  00967	eb 02		 jmp	 SHORT $LN35@ProcState_
$LN106@ProcState_:

; 377  : 				{
; 378  : 					if( gObj[this->m_FloorData[loc274].m_iTeamPlayerIndex].Class >= MAX_TYPE_PLAYER || gObj[this->m_FloorData[loc274].m_iTeamPlayerIndex].Class < 0)

  00969	dd d8		 fstp	 ST(0)
$LN35@ProcState_:

; 373  : 
; 374  : 			for( int loc274 = 0; loc274 < MAX_FLOOR_USER; loc274++)

  0096b	8b 85 e0 fd ff
	ff		 mov	 eax, DWORD PTR _loc274$215963[ebp]
  00971	40		 inc	 eax
  00972	83 c6 30	 add	 esi, 48			; 00000030H
  00975	89 85 e0 fd ff
	ff		 mov	 DWORD PTR _loc274$215963[ebp], eax
  0097b	83 f8 0a	 cmp	 eax, 10			; 0000000aH
  0097e	0f 8c 7c fb ff
	ff		 jl	 $LL93@ProcState_

; 521  : 					}
; 522  : 				}
; 523  : 			}
; 524  : 
; 525  : 			CGPartyListAll(loc144);

  00984	8b 8d e4 fd ff
	ff		 mov	 ecx, DWORD PTR _loc144$215957[ebp]
  0098a	51		 push	 ecx
  0098b	e8 00 00 00 00	 call	 ?CGPartyListAll@@YAXH@Z	; CGPartyListAll

; 526  : 			CGPartyListAll(loc145);

  00990	8b 95 e8 fd ff
	ff		 mov	 edx, DWORD PTR _loc145$215958[ebp]
  00996	52		 push	 edx
  00997	e8 00 00 00 00	 call	 ?CGPartyListAll@@YAXH@Z	; CGPartyListAll
  0099c	83 c4 08	 add	 esp, 8

; 527  : 
; 528  : 			this->SetState(1);

  0099f	6a 01		 push	 1
  009a1	8b cf		 mov	 ecx, edi
  009a3	e8 00 00 00 00	 call	 ?SetState@CIllusionTempleProcess@@QAEXE@Z ; CIllusionTempleProcess::SetState

; 529  : 
; 530  : 			LogAddTD("[Illusion Temple] (%d) Allied Team 법사(%d),기사(%d), 요정(%d), 마검사(%d), 다크로드(%d)", this->m_btFloorIndex+1, this->m_btYellowTeamClassCount[0], this->m_btYellowTeamClassCount[1], this->m_btYellowTeamClassCount[2], this->m_btYellowTeamClassCount[3], this->m_btYellowTeamClassCount[4]);

  009a8	0f b6 87 d7 03
	00 00		 movzx	 eax, BYTE PTR [edi+983]
  009af	0f b6 8f d6 03
	00 00		 movzx	 ecx, BYTE PTR [edi+982]
  009b6	0f b6 97 d5 03
	00 00		 movzx	 edx, BYTE PTR [edi+981]
  009bd	50		 push	 eax
  009be	0f b6 87 d4 03
	00 00		 movzx	 eax, BYTE PTR [edi+980]
  009c5	51		 push	 ecx
  009c6	0f b6 8f d3 03
	00 00		 movzx	 ecx, BYTE PTR [edi+979]
  009cd	52		 push	 edx
  009ce	0f b6 97 2c 02
	00 00		 movzx	 edx, BYTE PTR [edi+556]
  009d5	50		 push	 eax
  009d6	51		 push	 ecx
  009d7	42		 inc	 edx
  009d8	52		 push	 edx
  009d9	68 00 00 00 00	 push	 OFFSET ??_C@_0FJ@NIONHBBL@?$FLIllusion?5Temple?$FN?5?$CI?$CFd?$CJ?5Allied?5Te@
  009de	ff 15 00 00 00
	00		 call	 DWORD PTR ?LogAddTD@@3P6AXPADZZA ; LogAddTD

; 531  : 
; 532  : 			LogAddTD(szTemp0);

  009e4	8d 85 fc fe ff
	ff		 lea	 eax, DWORD PTR _szTemp0$215959[ebp]
  009ea	50		 push	 eax
  009eb	ff 15 00 00 00
	00		 call	 DWORD PTR ?LogAddTD@@3P6AXPADZZA ; LogAddTD

; 533  : 
; 534  : 			LogAddTD("[Illusion Temple] (%d) Illusion Team 법사(%d),기사(%d), 요정(%d), 마검사(%d), 다크로드(%d)", this->m_btFloorIndex+1, this->m_btBlueTeamClassCount[0], this->m_btBlueTeamClassCount[1], this->m_btBlueTeamClassCount[2], this->m_btBlueTeamClassCount[3], this->m_btBlueTeamClassCount[4]);

  009f1	0f b6 8f de 03
	00 00		 movzx	 ecx, BYTE PTR [edi+990]
  009f8	0f b6 97 dd 03
	00 00		 movzx	 edx, BYTE PTR [edi+989]
  009ff	0f b6 87 dc 03
	00 00		 movzx	 eax, BYTE PTR [edi+988]
  00a06	51		 push	 ecx
  00a07	0f b6 8f db 03
	00 00		 movzx	 ecx, BYTE PTR [edi+987]
  00a0e	52		 push	 edx
  00a0f	0f b6 97 da 03
	00 00		 movzx	 edx, BYTE PTR [edi+986]
  00a16	50		 push	 eax
  00a17	0f b6 87 2c 02
	00 00		 movzx	 eax, BYTE PTR [edi+556]
  00a1e	51		 push	 ecx
  00a1f	52		 push	 edx
  00a20	40		 inc	 eax
  00a21	50		 push	 eax
  00a22	68 00 00 00 00	 push	 OFFSET ??_C@_0FL@NAKEGMLC@?$FLIllusion?5Temple?$FN?5?$CI?$CFd?$CJ?5Illusion?5@
  00a27	ff 15 00 00 00
	00		 call	 DWORD PTR ?LogAddTD@@3P6AXPADZZA ; LogAddTD

; 535  : 
; 536  : 			LogAddTD(szTemp1);

  00a2d	8d 8d fc fd ff
	ff		 lea	 ecx, DWORD PTR _szTemp1$215961[ebp]
  00a33	51		 push	 ecx
  00a34	ff 15 00 00 00
	00		 call	 DWORD PTR ?LogAddTD@@3P6AXPADZZA ; LogAddTD
  00a3a	83 c4 40	 add	 esp, 64			; 00000040H
$LN48@ProcState_:

; 537  : 		}
; 538  : 	}
; 539  : }

  00a3d	8b 4d fc	 mov	 ecx, DWORD PTR __$ArrayPad$[ebp]
  00a40	5f		 pop	 edi
  00a41	5e		 pop	 esi
  00a42	33 cd		 xor	 ecx, ebp
  00a44	5b		 pop	 ebx
  00a45	e8 00 00 00 00	 call	 @__security_check_cookie@4
  00a4a	8b e5		 mov	 esp, ebp
  00a4c	5d		 pop	 ebp
  00a4d	c2 04 00	 ret	 4
?ProcState_Closed@CIllusionTempleProcess@@QAEXH@Z ENDP	; CIllusionTempleProcess::ProcState_Closed
_TEXT	ENDS
PUBLIC	?ProcState_Waiting@CIllusionTempleProcess@@QAEXH@Z ; CIllusionTempleProcess::ProcState_Waiting
; Function compile flags: /Ogtp
;	COMDAT ?ProcState_Waiting@CIllusionTempleProcess@@QAEXH@Z
_TEXT	SEGMENT
_pMsg$216019 = 8					; size = 4
_iTick$ = 8						; size = 4
?ProcState_Waiting@CIllusionTempleProcess@@QAEXH@Z PROC	; CIllusionTempleProcess::ProcState_Waiting, COMDAT
; _this$ = ecx

; 542  : {

  00000	55		 push	 ebp
  00001	8b ec		 mov	 ebp, esp
  00003	56		 push	 esi
  00004	8b f1		 mov	 esi, ecx

; 543  : 	int loc2 = iTick - this->m_iCloseTickCount;

  00006	8b 4d 08	 mov	 ecx, DWORD PTR _iTick$[ebp]
  00009	8b c1		 mov	 eax, ecx
  0000b	2b 86 a0 03 00
	00		 sub	 eax, DWORD PTR [esi+928]

; 544  : 
; 545  : 	if(loc2 >= 1000)

  00011	3d e8 03 00 00	 cmp	 eax, 1000		; 000003e8H
  00016	0f 8c a4 00 00
	00		 jl	 $LN16@ProcState_@2

; 546  : 	{
; 547  : 		this->m_iEventBattleTimer -= loc2;

  0001c	29 86 9c 03 00
	00		 sub	 DWORD PTR [esi+924], eax
  00022	8b 86 9c 03 00
	00		 mov	 eax, DWORD PTR [esi+924]

; 548  : 		this->m_iCloseTickCount = iTick;

  00028	89 8e a0 03 00
	00		 mov	 DWORD PTR [esi+928], ecx

; 549  : 
; 550  : 		if(this->m_iEventBattleTimer <= 30000)

  0002e	3d 30 75 00 00	 cmp	 eax, 30000		; 00007530H
  00033	0f 8f 87 00 00
	00		 jg	 $LN16@ProcState_@2

; 551  : 		{
; 552  : 			if(this->m_iEventBattleTimer > 0)

  00039	85 c0		 test	 eax, eax
  0003b	0f 8e 7f 00 00
	00		 jle	 $LN16@ProcState_@2

; 553  : 			{
; 554  : 				if(this->m_bMsgBeforeEnterBattle == FALSE)

  00041	83 be b4 03 00
	00 00		 cmp	 DWORD PTR [esi+948], 0
  00048	75 76		 jne	 SHORT $LN16@ProcState_@2

; 555  : 				{
; 556  : 					this->m_bMsgBeforeEnterBattle = TRUE;
; 557  : 
; 558  : 					PMSG_SET_DEVILSQUARE pMsg;
; 559  : 
; 560  : 					PHeadSetB((LPBYTE)&pMsg, 0x92, sizeof(pMsg));

  0004a	53		 push	 ebx
  0004b	57		 push	 edi
  0004c	6a 04		 push	 4
  0004e	8d 45 08	 lea	 eax, DWORD PTR _pMsg$216019[ebp]
  00051	68 92 00 00 00	 push	 146			; 00000092H
  00056	50		 push	 eax
  00057	c7 86 b4 03 00
	00 01 00 00 00	 mov	 DWORD PTR [esi+948], 1
  00061	e8 00 00 00 00	 call	 ?PHeadSetB@@YAXPAEEH@Z	; PHeadSetB
  00066	83 c4 0c	 add	 esp, 12			; 0000000cH

; 561  : 					pMsg.Type = 15;

  00069	c6 45 0b 0f	 mov	 BYTE PTR _pMsg$216019[ebp+3], 15 ; 0000000fH
  0006d	8d 7e 20	 lea	 edi, DWORD PTR [esi+32]
  00070	bb 0a 00 00 00	 mov	 ebx, 10			; 0000000aH
$LL7@ProcState_@2:

; 564  : 					{
; 565  : 						if( this->m_FloorData[i].m_iTeamPlayerIndex != OBJ_EMPTY && gObj[this->m_FloorData[i].m_iTeamPlayerIndex].Connected > PLAYER_LOGGED)

  00075	8b 0f		 mov	 ecx, DWORD PTR [edi]
  00077	83 f9 ff	 cmp	 ecx, -1
  0007a	74 3c		 je	 SHORT $LN6@ProcState_@2
  0007c	a1 00 00 00 00	 mov	 eax, DWORD PTR ?gObj@@3PAUOBJECTSTRUCT@@A ; gObj
  00081	8b d1		 mov	 edx, ecx
  00083	69 d2 50 2b 00
	00		 imul	 edx, 11088		; 00002b50H
  00089	03 c2		 add	 eax, edx
  0008b	83 78 04 02	 cmp	 DWORD PTR [eax+4], 2
  0008f	7e 27		 jle	 SHORT $LN6@ProcState_@2

; 566  : 						{
; 567  : 							if( gObj[this->m_FloorData[i].m_iTeamPlayerIndex].MapNumber == (this->m_btFloorIndex + MAP_INDEX_ILLUSIONTEMPLE) )

  00091	0f b6 96 2c 02
	00 00		 movzx	 edx, BYTE PTR [esi+556]
  00098	0f b6 80 49 01
	00 00		 movzx	 eax, BYTE PTR [eax+329]
  0009f	83 c2 2d	 add	 edx, 45			; 0000002dH
  000a2	3b c2		 cmp	 eax, edx
  000a4	75 12		 jne	 SHORT $LN6@ProcState_@2

; 568  : 							{
; 569  : 								DataSend(this->m_FloorData[i].m_iTeamPlayerIndex, (LPBYTE)&pMsg, pMsg.h.size);

  000a6	0f b6 55 09	 movzx	 edx, BYTE PTR _pMsg$216019[ebp+1]
  000aa	52		 push	 edx
  000ab	8d 45 08	 lea	 eax, DWORD PTR _pMsg$216019[ebp]
  000ae	50		 push	 eax
  000af	51		 push	 ecx
  000b0	e8 00 00 00 00	 call	 ?DataSend@@YAHHPAEK@Z	; DataSend
  000b5	83 c4 0c	 add	 esp, 12			; 0000000cH
$LN6@ProcState_@2:

; 562  : 
; 563  : 					for( int i = 0; i < MAX_FLOOR_USER; i++ )

  000b8	83 c7 30	 add	 edi, 48			; 00000030H
  000bb	4b		 dec	 ebx
  000bc	75 b7		 jne	 SHORT $LL7@ProcState_@2
  000be	5f		 pop	 edi
  000bf	5b		 pop	 ebx
$LN16@ProcState_@2:

; 570  : 							}
; 571  : 						}
; 572  : 					}
; 573  : 				}
; 574  : 			}
; 575  : 		}
; 576  : 	}
; 577  : 
; 578  : 	if(this->m_iEnteredUserCount == 0)

  000c0	83 be 28 02 00
	00 00		 cmp	 DWORD PTR [esi+552], 0
  000c7	75 0e		 jne	 SHORT $LN2@ProcState_@2

; 579  : 	{
; 580  : 		this->SetState(3);

  000c9	6a 03		 push	 3
  000cb	8b ce		 mov	 ecx, esi
  000cd	e8 00 00 00 00	 call	 ?SetState@CIllusionTempleProcess@@QAEXE@Z ; CIllusionTempleProcess::SetState
  000d2	5e		 pop	 esi

; 589  : 	}
; 590  : }

  000d3	5d		 pop	 ebp
  000d4	c2 04 00	 ret	 4
$LN2@ProcState_@2:

; 581  : 		return;
; 582  : 	}
; 583  : 
; 584  : 	if(this->m_iEventBattleTimer <= 0)

  000d7	83 be 9c 03 00
	00 00		 cmp	 DWORD PTR [esi+924], 0
  000de	7f 1b		 jg	 SHORT $LN1@ProcState_@2

; 585  : 	{
; 586  : 		this->SetState(2);

  000e0	6a 02		 push	 2
  000e2	8b ce		 mov	 ecx, esi
  000e4	e8 00 00 00 00	 call	 ?SetState@CIllusionTempleProcess@@QAEXE@Z ; CIllusionTempleProcess::SetState

; 587  : 		this->OperateMiniMapWork(0);

  000e9	6a 00		 push	 0
  000eb	8b ce		 mov	 ecx, esi
  000ed	e8 00 00 00 00	 call	 ?OperateMiniMapWork@CIllusionTempleProcess@@QAEXE@Z ; CIllusionTempleProcess::OperateMiniMapWork

; 588  : 		this->OperateMiniMapWork(1);

  000f2	6a 01		 push	 1
  000f4	8b ce		 mov	 ecx, esi
  000f6	e8 00 00 00 00	 call	 ?OperateMiniMapWork@CIllusionTempleProcess@@QAEXE@Z ; CIllusionTempleProcess::OperateMiniMapWork
$LN1@ProcState_@2:
  000fb	5e		 pop	 esi

; 589  : 	}
; 590  : }

  000fc	5d		 pop	 ebp
  000fd	c2 04 00	 ret	 4
?ProcState_Waiting@CIllusionTempleProcess@@QAEXH@Z ENDP	; CIllusionTempleProcess::ProcState_Waiting
_TEXT	ENDS
PUBLIC	?ProcState_Playing@CIllusionTempleProcess@@QAEXH@Z ; CIllusionTempleProcess::ProcState_Playing
; Function compile flags: /Ogtp
;	COMDAT ?ProcState_Playing@CIllusionTempleProcess@@QAEXH@Z
_TEXT	SEGMENT
_iTick$ = 8						; size = 4
?ProcState_Playing@CIllusionTempleProcess@@QAEXH@Z PROC	; CIllusionTempleProcess::ProcState_Playing, COMDAT
; _this$ = ecx

; 593  : {

  00000	55		 push	 ebp
  00001	8b ec		 mov	 ebp, esp
  00003	56		 push	 esi
  00004	57		 push	 edi

; 594  : 	int loc2 = iTick - this->m_iCloseTickCount;

  00005	8b 7d 08	 mov	 edi, DWORD PTR _iTick$[ebp]
  00008	8b f1		 mov	 esi, ecx
  0000a	8b c7		 mov	 eax, edi
  0000c	2b 86 a0 03 00
	00		 sub	 eax, DWORD PTR [esi+928]

; 595  : 
; 596  : 	if(loc2 >= 1000)

  00012	3d e8 03 00 00	 cmp	 eax, 1000		; 000003e8H
  00017	7c 3c		 jl	 SHORT $LN8@ProcState_@3

; 597  : 	{
; 598  : 		this->m_iEventBattleTimer -= loc2;

  00019	29 86 9c 03 00
	00		 sub	 DWORD PTR [esi+924], eax
  0001f	8b 86 9c 03 00
	00		 mov	 eax, DWORD PTR [esi+924]

; 599  : 		this->m_iCloseTickCount = iTick;

  00025	89 be a0 03 00
	00		 mov	 DWORD PTR [esi+928], edi

; 600  : 
; 601  : 		if(this->m_iEventBattleTimer > 0)

  0002b	85 c0		 test	 eax, eax
  0002d	7e 10		 jle	 SHORT $LN9@ProcState_@3

; 602  : 		{
; 603  : 			this->OperateMiniMapWork(0);

  0002f	6a 00		 push	 0
  00031	e8 00 00 00 00	 call	 ?OperateMiniMapWork@CIllusionTempleProcess@@QAEXE@Z ; CIllusionTempleProcess::OperateMiniMapWork

; 604  : 			this->OperateMiniMapWork(1);

  00036	6a 01		 push	 1
  00038	8b ce		 mov	 ecx, esi
  0003a	e8 00 00 00 00	 call	 ?OperateMiniMapWork@CIllusionTempleProcess@@QAEXE@Z ; CIllusionTempleProcess::OperateMiniMapWork
$LN9@ProcState_@3:

; 605  : 		}
; 606  : 
; 607  : 		if(this->m_iStatueRegenTickCount != -1 && this->m_iStatueRegenTickCount < iTick)

  0003f	8b 86 94 03 00
	00		 mov	 eax, DWORD PTR [esi+916]
  00045	83 f8 ff	 cmp	 eax, -1
  00048	74 0b		 je	 SHORT $LN8@ProcState_@3
  0004a	3b c7		 cmp	 eax, edi
  0004c	7d 07		 jge	 SHORT $LN8@ProcState_@3

; 608  : 		{
; 609  : 			this->RegenNPCStatus();

  0004e	8b ce		 mov	 ecx, esi
  00050	e8 00 00 00 00	 call	 ?RegenNPCStatus@CIllusionTempleProcess@@QAEXXZ ; CIllusionTempleProcess::RegenNPCStatus
$LN8@ProcState_@3:

; 610  : 		}
; 611  : 	}
; 612  : 
; 613  : 	if(this->m_iEnteredUserCount == 0)

  00055	83 be 28 02 00
	00 00		 cmp	 DWORD PTR [esi+552], 0

; 614  : 	{
; 615  : 		this->SetState(3);
; 616  : 		return;

  0005c	74 77		 je	 SHORT $LN13@ProcState_@3

; 617  : 	}
; 618  : 
; 619  : 	if(this->m_iEventBattleTimer <= 0 || this->m_btYellowTeamScore >= 7 || this->m_btBlueTeamScore >= 7 || this->m_iYellowTeamUserCount == 0 || this->m_iBlueTeamUserCount == 0)

  0005e	8b 8e 9c 03 00
	00		 mov	 ecx, DWORD PTR [esi+924]
  00064	b0 07		 mov	 al, 7
  00066	85 c9		 test	 ecx, ecx
  00068	7e 22		 jle	 SHORT $LN5@ProcState_@3
  0006a	38 86 d0 03 00
	00		 cmp	 BYTE PTR [esi+976], al
  00070	73 2a		 jae	 SHORT $LN3@ProcState_@3
  00072	38 86 d1 03 00
	00		 cmp	 BYTE PTR [esi+977], al
  00078	73 12		 jae	 SHORT $LN5@ProcState_@3
  0007a	83 be c8 03 00
	00 00		 cmp	 DWORD PTR [esi+968], 0
  00081	74 09		 je	 SHORT $LN5@ProcState_@3
  00083	83 be cc 03 00
	00 00		 cmp	 DWORD PTR [esi+972], 0
  0008a	75 52		 jne	 SHORT $LN6@ProcState_@3
$LN5@ProcState_@3:

; 620  : 	{
; 621  : 		if(this->m_btYellowTeamScore >= 7 || this->m_btBlueTeamScore >= 7)

  0008c	38 86 d0 03 00
	00		 cmp	 BYTE PTR [esi+976], al
  00092	73 08		 jae	 SHORT $LN3@ProcState_@3
  00094	38 86 d1 03 00
	00		 cmp	 BYTE PTR [esi+977], al
  0009a	72 27		 jb	 SHORT $LN1@ProcState_@3
$LN3@ProcState_@3:

; 622  : 		{
; 623  : 			if(this->m_iEventBattleTimer <= 0)

  0009c	85 c9		 test	 ecx, ecx
  0009e	7f 0c		 jg	 SHORT $LN2@ProcState_@3

; 624  : 			{
; 625  : 				this->m_iLeftMinutesBeforeEnd = 0;

  000a0	c7 86 a8 03 00
	00 00 00 00 00	 mov	 DWORD PTR [esi+936], 0

; 626  : 			}
; 627  : 			else

  000aa	eb 17		 jmp	 SHORT $LN1@ProcState_@3
$LN2@ProcState_@3:

; 628  : 			{
; 629  : 				this->m_iLeftMinutesBeforeEnd = this->m_iEventBattleTimer / 1000;

  000ac	b8 d3 4d 62 10	 mov	 eax, 274877907		; 10624dd3H
  000b1	f7 e9		 imul	 ecx
  000b3	c1 fa 06	 sar	 edx, 6
  000b6	8b c2		 mov	 eax, edx
  000b8	c1 e8 1f	 shr	 eax, 31			; 0000001fH
  000bb	03 c2		 add	 eax, edx
  000bd	89 86 a8 03 00
	00		 mov	 DWORD PTR [esi+936], eax
$LN1@ProcState_@3:

; 630  : 			}
; 631  : 		}
; 632  : 
; 633  : 		this->OperateMiniMapWork(0); //A-Team

  000c3	6a 00		 push	 0
  000c5	8b ce		 mov	 ecx, esi
  000c7	e8 00 00 00 00	 call	 ?OperateMiniMapWork@CIllusionTempleProcess@@QAEXE@Z ; CIllusionTempleProcess::OperateMiniMapWork

; 634  : 		this->OperateMiniMapWork(1); //B-Team

  000cc	6a 01		 push	 1
  000ce	8b ce		 mov	 ecx, esi
  000d0	e8 00 00 00 00	 call	 ?OperateMiniMapWork@CIllusionTempleProcess@@QAEXE@Z ; CIllusionTempleProcess::OperateMiniMapWork
$LN13@ProcState_@3:

; 635  : 
; 636  : 		this->SetState(3);

  000d5	6a 03		 push	 3
  000d7	8b ce		 mov	 ecx, esi
  000d9	e8 00 00 00 00	 call	 ?SetState@CIllusionTempleProcess@@QAEXE@Z ; CIllusionTempleProcess::SetState
$LN6@ProcState_@3:
  000de	5f		 pop	 edi
  000df	5e		 pop	 esi

; 637  : 	}
; 638  : }

  000e0	5d		 pop	 ebp
  000e1	c2 04 00	 ret	 4
?ProcState_Playing@CIllusionTempleProcess@@QAEXH@Z ENDP	; CIllusionTempleProcess::ProcState_Playing
_TEXT	ENDS
PUBLIC	?ProcState_Playend@CIllusionTempleProcess@@QAEXH@Z ; CIllusionTempleProcess::ProcState_Playend
; Function compile flags: /Ogtp
;	COMDAT ?ProcState_Playend@CIllusionTempleProcess@@QAEXH@Z
_TEXT	SEGMENT
tv178 = -4						; size = 4
_iTick$ = 8						; size = 4
?ProcState_Playend@CIllusionTempleProcess@@QAEXH@Z PROC	; CIllusionTempleProcess::ProcState_Playend, COMDAT
; _this$ = ecx

; 641  : {

  00000	55		 push	 ebp
  00001	8b ec		 mov	 ebp, esp
  00003	51		 push	 ecx
  00004	53		 push	 ebx

; 642  : 	int loc2 = iTick - this->m_iCloseTickCount;

  00005	8b 5d 08	 mov	 ebx, DWORD PTR _iTick$[ebp]
  00008	56		 push	 esi
  00009	8b f1		 mov	 esi, ecx
  0000b	8b c3		 mov	 eax, ebx
  0000d	2b 86 a0 03 00
	00		 sub	 eax, DWORD PTR [esi+928]
  00013	57		 push	 edi

; 643  : 
; 644  : 	if(loc2 >= 1000)

  00014	3d e8 03 00 00	 cmp	 eax, 1000		; 000003e8H
  00019	0f 8c 7c 01 00
	00		 jl	 $LN24@ProcState_@4

; 645  : 	{
; 646  : 		this->m_iEventBattleTimer -= loc2;

  0001f	29 86 9c 03 00
	00		 sub	 DWORD PTR [esi+924], eax
  00025	8b 8e 9c 03 00
	00		 mov	 ecx, DWORD PTR [esi+924]

; 647  : 		this->m_iCloseTickCount = iTick;

  0002b	89 9e a0 03 00
	00		 mov	 DWORD PTR [esi+928], ebx

; 648  : 
; 649  : 		if(this->m_iEventBattleTimer <= 1000 * (m_i_IT_RestTime * 60) - 3000)

  00031	a1 00 00 00 00	 mov	 eax, DWORD PTR ?m_i_IT_RestTime@@3HA ; m_i_IT_RestTime
  00036	8b d0		 mov	 edx, eax
  00038	69 d2 60 ea 00
	00		 imul	 edx, 60000		; 0000ea60H
  0003e	81 ea b8 0b 00
	00		 sub	 edx, 3000		; 00000bb8H
  00044	3b ca		 cmp	 ecx, edx
  00046	0f 8f 54 01 00
	00		 jg	 $LN28@ProcState_@4

; 650  : 		{
; 651  : 			if(this->m_iEventBattleTimer > 0)

  0004c	85 c9		 test	 ecx, ecx
  0004e	0f 8e 4c 01 00
	00		 jle	 $LN28@ProcState_@4

; 652  : 			{
; 653  : 				if(this->m_bIllusionTempleEventEnded == FALSE)

  00054	83 be ac 03 00
	00 00		 cmp	 DWORD PTR [esi+940], 0
  0005b	0f 85 3f 01 00
	00		 jne	 $LN28@ProcState_@4

; 654  : 				{
; 655  : 					this->m_bIllusionTempleEventEnded = TRUE;

  00061	c7 86 ac 03 00
	00 01 00 00 00	 mov	 DWORD PTR [esi+940], 1
  0006b	8d 7e 20	 lea	 edi, DWORD PTR [esi+32]
  0006e	c7 45 fc 0a 00
	00 00		 mov	 DWORD PTR tv178[ebp], 10 ; 0000000aH
$LL15@ProcState_@4:

; 658  : 					{
; 659  : 						if( this->m_FloorData[i].m_iTeamPlayerIndex != OBJ_EMPTY && gObj[this->m_FloorData[i].m_iTeamPlayerIndex].Connected > PLAYER_LOGGED)

  00075	8b 07		 mov	 eax, DWORD PTR [edi]
  00077	83 f8 ff	 cmp	 eax, -1
  0007a	74 7b		 je	 SHORT $LN14@ProcState_@4
  0007c	8b c8		 mov	 ecx, eax
  0007e	69 c9 50 2b 00
	00		 imul	 ecx, 11088		; 00002b50H
  00084	03 0d 00 00 00
	00		 add	 ecx, DWORD PTR ?gObj@@3PAUOBJECTSTRUCT@@A ; gObj
  0008a	83 79 04 02	 cmp	 DWORD PTR [ecx+4], 2
  0008e	7e 67		 jle	 SHORT $LN14@ProcState_@4

; 660  : 						{
; 661  : 							if( gObj[this->m_FloorData[i].m_iTeamPlayerIndex].MapNumber == (this->m_btFloorIndex + MAP_INDEX_ILLUSIONTEMPLE) )

  00090	0f b6 96 2c 02
	00 00		 movzx	 edx, BYTE PTR [esi+556]
  00097	0f b6 89 49 01
	00 00		 movzx	 ecx, BYTE PTR [ecx+329]
  0009e	8d 5a 2d	 lea	 ebx, DWORD PTR [edx+45]
  000a1	3b cb		 cmp	 ecx, ebx
  000a3	75 4f		 jne	 SHORT $LN26@ProcState_@4

; 662  : 							{
; 663  : 								if(this->m_FloorData[i].m_btTeamJoinSide == 0)

  000a5	8a 4f 04	 mov	 cl, BYTE PTR [edi+4]
  000a8	84 c9		 test	 cl, cl
  000aa	75 08		 jne	 SHORT $LN10@ProcState_@4

; 664  : 								{
; 665  : 									gObjMoveGate(this->m_FloorData[i].m_iTeamPlayerIndex, this->m_btFloorIndex + 148); //Battle Map Scene

  000ac	81 c2 94 00 00
	00		 add	 edx, 148		; 00000094H
  000b2	eb 0b		 jmp	 SHORT $LN29@ProcState_@4
$LN10@ProcState_@4:

; 666  : 								}
; 667  : 								else if(this->m_FloorData[i].m_btTeamJoinSide == 1)

  000b4	80 f9 01	 cmp	 cl, 1
  000b7	75 10		 jne	 SHORT $LN25@ProcState_@4

; 668  : 								{
; 669  : 									gObjMoveGate(this->m_FloorData[i].m_iTeamPlayerIndex, this->m_btFloorIndex + 154); //Battle Map Scene

  000b9	81 c2 9a 00 00
	00		 add	 edx, 154		; 0000009aH
$LN29@ProcState_@4:
  000bf	52		 push	 edx
  000c0	50		 push	 eax
  000c1	e8 00 00 00 00	 call	 ?gObjMoveGate@@YAHHH@Z	; gObjMoveGate
  000c6	83 c4 08	 add	 esp, 8
$LN25@ProcState_@4:

; 670  : 								}
; 671  : 
; 672  : 								gObjSetPosition(this->m_FloorData[i].m_iTeamPlayerIndex, gObj[this->m_FloorData[i].m_iTeamPlayerIndex].X, gObj[this->m_FloorData[i].m_iTeamPlayerIndex].Y);

  000c9	8b 07		 mov	 eax, DWORD PTR [edi]
  000cb	8b 0d 00 00 00
	00		 mov	 ecx, DWORD PTR ?gObj@@3PAUOBJECTSTRUCT@@A ; gObj
  000d1	8b d0		 mov	 edx, eax
  000d3	69 d2 50 2b 00
	00		 imul	 edx, 11088		; 00002b50H
  000d9	03 ca		 add	 ecx, edx
  000db	0f bf 91 46 01
	00 00		 movsx	 edx, WORD PTR [ecx+326]
  000e2	0f bf 89 44 01
	00 00		 movsx	 ecx, WORD PTR [ecx+324]
  000e9	52		 push	 edx
  000ea	51		 push	 ecx
  000eb	50		 push	 eax
  000ec	e8 00 00 00 00	 call	 ?gObjSetPosition@@YAXHHH@Z ; gObjSetPosition
  000f1	83 c4 0c	 add	 esp, 12			; 0000000cH
$LN26@ProcState_@4:
  000f4	8b 5d 08	 mov	 ebx, DWORD PTR _iTick$[ebp]
$LN14@ProcState_@4:

; 656  : 
; 657  : 					for( int i = 0; i < MAX_FLOOR_USER; i++ )

  000f7	83 c7 30	 add	 edi, 48			; 00000030H
  000fa	ff 4d fc	 dec	 DWORD PTR tv178[ebp]
  000fd	0f 85 72 ff ff
	ff		 jne	 $LL15@ProcState_@4

; 673  : 							}
; 674  : 						}
; 675  : 					}
; 676  : 
; 677  : 					if(this->m_iBallPlayerIndex >= 0 && FindItemBallPosition(iTick) >= 0)

  00103	83 be b8 03 00
	00 00		 cmp	 DWORD PTR [esi+952], 0
  0010a	0f 8c 84 00 00
	00		 jl	 $LN6@ProcState_@4
  00110	53		 push	 ebx
  00111	8b ce		 mov	 ecx, esi
  00113	e8 00 00 00 00	 call	 ?FindItemBallPosition@CIllusionTempleProcess@@QAEHH@Z ; CIllusionTempleProcess::FindItemBallPosition
  00118	85 c0		 test	 eax, eax
  0011a	78 78		 js	 SHORT $LN6@ProcState_@4

; 678  : 					{
; 679  : 						if(gObj[this->m_iBallPlayerIndex].pInventory[FindItemBallPosition(iTick)].m_Type == ITEMGET(14,64))

  0011c	53		 push	 ebx
  0011d	8b ce		 mov	 ecx, esi
  0011f	e8 00 00 00 00	 call	 ?FindItemBallPosition@CIllusionTempleProcess@@QAEHH@Z ; CIllusionTempleProcess::FindItemBallPosition
  00124	69 c0 d4 00 00
	00		 imul	 eax, 212		; 000000d4H
  0012a	8b 96 b8 03 00
	00		 mov	 edx, DWORD PTR [esi+952]
  00130	8b 0d 00 00 00
	00		 mov	 ecx, DWORD PTR ?gObj@@3PAUOBJECTSTRUCT@@A ; gObj
  00136	69 d2 50 2b 00
	00		 imul	 edx, 11088		; 00002b50H
  0013c	8b 94 0a 24 0e
	00 00		 mov	 edx, DWORD PTR [edx+ecx+3620]
  00143	b9 40 1c 00 00	 mov	 ecx, 7232		; 00001c40H
  00148	66 39 4c 10 06	 cmp	 WORD PTR [eax+edx+6], cx
  0014d	75 45		 jne	 SHORT $LN6@ProcState_@4

; 680  : 						{
; 681  : 							::gObjInventoryDeleteItem(this->m_iBallPlayerIndex, FindItemBallPosition(iTick));

  0014f	53		 push	 ebx
  00150	8b ce		 mov	 ecx, esi
  00152	e8 00 00 00 00	 call	 ?FindItemBallPosition@CIllusionTempleProcess@@QAEHH@Z ; CIllusionTempleProcess::FindItemBallPosition
  00157	8b 96 b8 03 00
	00		 mov	 edx, DWORD PTR [esi+952]
  0015d	50		 push	 eax
  0015e	52		 push	 edx
  0015f	e8 00 00 00 00	 call	 ?gObjInventoryDeleteItem@@YAEHH@Z ; gObjInventoryDeleteItem
  00164	83 c4 08	 add	 esp, 8

; 682  : 							::GCInventoryItemDeleteSend(this->m_iBallPlayerIndex, FindItemBallPosition(iTick), 0);

  00167	6a 00		 push	 0
  00169	53		 push	 ebx
  0016a	8b ce		 mov	 ecx, esi
  0016c	e8 00 00 00 00	 call	 ?FindItemBallPosition@CIllusionTempleProcess@@QAEHH@Z ; CIllusionTempleProcess::FindItemBallPosition
  00171	50		 push	 eax
  00172	8b 86 b8 03 00
	00		 mov	 eax, DWORD PTR [esi+952]
  00178	50		 push	 eax
  00179	e8 00 00 00 00	 call	 ?GCInventoryItemDeleteSend@@YAXHEE@Z ; GCInventoryItemDeleteSend
  0017e	83 c4 0c	 add	 esp, 12			; 0000000cH

; 683  : 
; 684  : 							this->m_iBallPlayerIndex = -1;

  00181	c7 86 b8 03 00
	00 ff ff ff ff	 mov	 DWORD PTR [esi+952], -1

; 685  : 							this->m_btBallInventoryPosition = (BYTE)-1;

  0018b	66 c7 86 bc 03
	00 00 ff ff	 mov	 WORD PTR [esi+956], 65535 ; 0000ffffH
$LN6@ProcState_@4:

; 686  : 							this->m_btAllowedRegPedestal = (BYTE)-1;
; 687  : 						}
; 688  : 					}
; 689  : 
; 690  : 					this->CalcSendRewardEXP();

  00194	8b ce		 mov	 ecx, esi
  00196	e8 00 00 00 00	 call	 ?CalcSendRewardEXP@CIllusionTempleProcess@@QAEXXZ ; CIllusionTempleProcess::CalcSendRewardEXP
$LN24@ProcState_@4:
  0019b	a1 00 00 00 00	 mov	 eax, DWORD PTR ?m_i_IT_RestTime@@3HA ; m_i_IT_RestTime
$LN28@ProcState_@4:

; 691  : 				}
; 692  : 			}
; 693  : 		}
; 694  : 	}
; 695  : 
; 696  : 	if(this->m_iEventBattleTimer <= 1000 * (m_i_IT_RestTime * 60) - 6000)

  001a0	8b 8e 9c 03 00
	00		 mov	 ecx, DWORD PTR [esi+924]
  001a6	69 c0 60 ea 00
	00		 imul	 eax, 60000		; 0000ea60H
  001ac	2d 70 17 00 00	 sub	 eax, 6000		; 00001770H
  001b1	3b c8		 cmp	 ecx, eax
  001b3	7f 27		 jg	 SHORT $LN2@ProcState_@4

; 697  : 	{
; 698  : 		if(this->m_iEventBattleTimer > 0)

  001b5	85 c9		 test	 ecx, ecx
  001b7	7e 23		 jle	 SHORT $LN2@ProcState_@4

; 699  : 		{
; 700  : 			if(this->m_bIllusionTempleEventEnded == TRUE)

  001b9	bf 01 00 00 00	 mov	 edi, 1
  001be	39 be ac 03 00
	00		 cmp	 DWORD PTR [esi+940], edi
  001c4	75 16		 jne	 SHORT $LN2@ProcState_@4

; 701  : 			{
; 702  : 				if(this->m_bScoreRankSet == FALSE)

  001c6	83 be e8 03 00
	00 00		 cmp	 DWORD PTR [esi+1000], 0
  001cd	75 0d		 jne	 SHORT $LN2@ProcState_@4

; 703  : 				{
; 704  : 					this->SendRewardScore();

  001cf	8b ce		 mov	 ecx, esi
  001d1	e8 00 00 00 00	 call	 ?SendRewardScore@CIllusionTempleProcess@@QAEXXZ ; CIllusionTempleProcess::SendRewardScore

; 705  : 					this->m_bScoreRankSet = TRUE;

  001d6	89 be e8 03 00
	00		 mov	 DWORD PTR [esi+1000], edi
$LN2@ProcState_@4:

; 706  : 				}
; 707  : 			}
; 708  : 		}
; 709  : 	}
; 710  : 
; 711  : 	if(this->m_iEventBattleTimer <= 0)

  001dc	83 be 9c 03 00
	00 00		 cmp	 DWORD PTR [esi+924], 0
  001e3	7f 09		 jg	 SHORT $LN1@ProcState_@4

; 712  : 	{
; 713  : 		this->SetState(0);

  001e5	6a 00		 push	 0
  001e7	8b ce		 mov	 ecx, esi
  001e9	e8 00 00 00 00	 call	 ?SetState@CIllusionTempleProcess@@QAEXE@Z ; CIllusionTempleProcess::SetState
$LN1@ProcState_@4:
  001ee	5f		 pop	 edi
  001ef	5e		 pop	 esi
  001f0	5b		 pop	 ebx

; 714  : 	}
; 715  : }

  001f1	8b e5		 mov	 esp, ebp
  001f3	5d		 pop	 ebp
  001f4	c2 04 00	 ret	 4
?ProcState_Playend@CIllusionTempleProcess@@QAEXH@Z ENDP	; CIllusionTempleProcess::ProcState_Playend
_TEXT	ENDS
PUBLIC	?Run@CIllusionTempleProcess@@QAEXH@Z		; CIllusionTempleProcess::Run
; Function compile flags: /Ogtp
;	COMDAT ?Run@CIllusionTempleProcess@@QAEXH@Z
_TEXT	SEGMENT
_iTick$ = 8						; size = 4
?Run@CIllusionTempleProcess@@QAEXH@Z PROC		; CIllusionTempleProcess::Run, COMDAT
; _this$ = ecx

; 205  : {

  00000	55		 push	 ebp
  00001	8b ec		 mov	 ebp, esp

; 206  : 	BYTE State = this->m_btState;

  00003	0f b6 81 2d 02
	00 00		 movzx	 eax, BYTE PTR [ecx+557]

; 207  : 
; 208  : 	switch ( State )

  0000a	83 f8 03	 cmp	 eax, 3
  0000d	77 1f		 ja	 SHORT $LN5@Run
  0000f	ff 24 85 00 00
	00 00		 jmp	 DWORD PTR $LN11@Run[eax*4]
$LN4@Run:

; 214  : 	}
; 215  : }

  00016	5d		 pop	 ebp

; 209  : 	{	
; 210  : 		case 0:	this->ProcState_Closed(iTick);		break;

  00017	e9 00 00 00 00	 jmp	 ?ProcState_Closed@CIllusionTempleProcess@@QAEXH@Z ; CIllusionTempleProcess::ProcState_Closed
$LN3@Run:

; 214  : 	}
; 215  : }

  0001c	5d		 pop	 ebp

; 211  : 		case 1:	this->ProcState_Waiting(iTick);		break;

  0001d	e9 00 00 00 00	 jmp	 ?ProcState_Waiting@CIllusionTempleProcess@@QAEXH@Z ; CIllusionTempleProcess::ProcState_Waiting
$LN2@Run:

; 214  : 	}
; 215  : }

  00022	5d		 pop	 ebp

; 212  : 		case 2:	this->ProcState_Playing(iTick);		break;

  00023	e9 00 00 00 00	 jmp	 ?ProcState_Playing@CIllusionTempleProcess@@QAEXH@Z ; CIllusionTempleProcess::ProcState_Playing
$LN1@Run:

; 214  : 	}
; 215  : }

  00028	5d		 pop	 ebp

; 213  : 		case 3: this->ProcState_Playend(iTick);		break;

  00029	e9 00 00 00 00	 jmp	 ?ProcState_Playend@CIllusionTempleProcess@@QAEXH@Z ; CIllusionTempleProcess::ProcState_Playend
$LN5@Run:

; 214  : 	}
; 215  : }

  0002e	5d		 pop	 ebp
  0002f	c2 04 00	 ret	 4
  00032	8b ff		 npad	 2
$LN11@Run:
  00034	00 00 00 00	 DD	 $LN4@Run
  00038	00 00 00 00	 DD	 $LN3@Run
  0003c	00 00 00 00	 DD	 $LN2@Run
  00040	00 00 00 00	 DD	 $LN1@Run
?Run@CIllusionTempleProcess@@QAEXH@Z ENDP		; CIllusionTempleProcess::Run
_TEXT	ENDS
EXTRN	_atexit:PROC
; Function compile flags: /Ogtp
;	COMDAT ??__Em_listIllusionTempleOpenTime@@YAXXZ
text$yc	SEGMENT
$T219754 = -16						; size = 12
$T219668 = -4						; size = 4
??__Em_listIllusionTempleOpenTime@@YAXXZ PROC		; `dynamic initializer for 'm_listIllusionTempleOpenTime'', COMDAT

; 22   : std::list<ILLUSIONTEMPLE_START_TIME> m_listIllusionTempleOpenTime;

  00000	55		 push	 ebp
  00001	8b ec		 mov	 ebp, esp
  00003	83 ec 10	 sub	 esp, 16			; 00000010H
  00006	6a 10		 push	 16			; 00000010H
  00008	e8 00 00 00 00	 call	 ??2@YAPAXI@Z		; operator new
  0000d	83 c4 04	 add	 esp, 4
  00010	85 c0		 test	 eax, eax
  00012	74 20		 je	 SHORT $LN20@dynamic
  00014	a3 00 00 00 00	 mov	 DWORD PTR ?m_listIllusionTempleOpenTime@@3V?$list@UILLUSIONTEMPLE_START_TIME@@V?$allocator@UILLUSIONTEMPLE_START_TIME@@@std@@@std@@A, eax
  00019	89 00		 mov	 DWORD PTR [eax], eax
  0001b	a1 00 00 00 00	 mov	 eax, DWORD PTR ?m_listIllusionTempleOpenTime@@3V?$list@UILLUSIONTEMPLE_START_TIME@@V?$allocator@UILLUSIONTEMPLE_START_TIME@@@std@@@std@@A
  00020	68 00 00 00 00	 push	 OFFSET ??__Fm_listIllusionTempleOpenTime@@YAXXZ ; `dynamic atexit destructor for 'm_listIllusionTempleOpenTime''
  00025	89 40 04	 mov	 DWORD PTR [eax+4], eax
  00028	e8 00 00 00 00	 call	 _atexit
  0002d	83 c4 04	 add	 esp, 4
  00030	8b e5		 mov	 esp, ebp
  00032	5d		 pop	 ebp
  00033	c3		 ret	 0
$LN20@dynamic:
  00034	8d 45 fc	 lea	 eax, DWORD PTR $T219668[ebp]
  00037	50		 push	 eax
  00038	8d 4d f0	 lea	 ecx, DWORD PTR $T219754[ebp]
  0003b	c7 45 fc 00 00
	00 00		 mov	 DWORD PTR $T219668[ebp], 0
  00042	e8 00 00 00 00	 call	 ??0exception@std@@QAE@ABQBD@Z ; std::exception::exception
  00047	68 00 00 00 00	 push	 OFFSET __TI2?AVbad_alloc@std@@
  0004c	8d 4d f0	 lea	 ecx, DWORD PTR $T219754[ebp]
  0004f	51		 push	 ecx
  00050	c7 45 f0 00 00
	00 00		 mov	 DWORD PTR $T219754[ebp], OFFSET ??_7bad_alloc@std@@6B@
  00057	e8 00 00 00 00	 call	 __CxxThrowException@8
$LN38@dynamic:
$LN37@dynamic:
  0005c	cc		 int	 3
??__Em_listIllusionTempleOpenTime@@YAXXZ ENDP		; `dynamic initializer for 'm_listIllusionTempleOpenTime''
; Function compile flags: /Ogtp
text$yc	ENDS
;	COMDAT ??__Fm_listIllusionTempleOpenTime@@YAXXZ
text$yd	SEGMENT
??__Fm_listIllusionTempleOpenTime@@YAXXZ PROC		; `dynamic atexit destructor for 'm_listIllusionTempleOpenTime'', COMDAT
  00000	8b 0d 00 00 00
	00		 mov	 ecx, DWORD PTR ?m_listIllusionTempleOpenTime@@3V?$list@UILLUSIONTEMPLE_START_TIME@@V?$allocator@UILLUSIONTEMPLE_START_TIME@@@std@@@std@@A
  00006	8b 01		 mov	 eax, DWORD PTR [ecx]
  00008	89 09		 mov	 DWORD PTR [ecx], ecx
  0000a	8b 0d 00 00 00
	00		 mov	 ecx, DWORD PTR ?m_listIllusionTempleOpenTime@@3V?$list@UILLUSIONTEMPLE_START_TIME@@V?$allocator@UILLUSIONTEMPLE_START_TIME@@@std@@@std@@A
  00010	89 49 04	 mov	 DWORD PTR [ecx+4], ecx
  00013	8b 0d 00 00 00
	00		 mov	 ecx, DWORD PTR ?m_listIllusionTempleOpenTime@@3V?$list@UILLUSIONTEMPLE_START_TIME@@V?$allocator@UILLUSIONTEMPLE_START_TIME@@@std@@@std@@A
  00019	c7 05 04 00 00
	00 00 00 00 00	 mov	 DWORD PTR ?m_listIllusionTempleOpenTime@@3V?$list@UILLUSIONTEMPLE_START_TIME@@V?$allocator@UILLUSIONTEMPLE_START_TIME@@@std@@@std@@A+4, 0
  00023	3b c1		 cmp	 eax, ecx
  00025	74 19		 je	 SHORT $LN7@dynamic@2
  00027	56		 push	 esi
$LL9@dynamic@2:
  00028	8b 30		 mov	 esi, DWORD PTR [eax]
  0002a	50		 push	 eax
  0002b	e8 00 00 00 00	 call	 ??3@YAXPAX@Z		; operator delete
  00030	8b 0d 00 00 00
	00		 mov	 ecx, DWORD PTR ?m_listIllusionTempleOpenTime@@3V?$list@UILLUSIONTEMPLE_START_TIME@@V?$allocator@UILLUSIONTEMPLE_START_TIME@@@std@@@std@@A
  00036	83 c4 04	 add	 esp, 4
  00039	8b c6		 mov	 eax, esi
  0003b	3b f1		 cmp	 esi, ecx
  0003d	75 e9		 jne	 SHORT $LL9@dynamic@2
  0003f	5e		 pop	 esi
$LN7@dynamic@2:
  00040	51		 push	 ecx
  00041	e8 00 00 00 00	 call	 ??3@YAXPAX@Z		; operator delete
  00046	59		 pop	 ecx
  00047	c3		 ret	 0
??__Fm_listIllusionTempleOpenTime@@YAXXZ ENDP		; `dynamic atexit destructor for 'm_listIllusionTempleOpenTime''
text$yd	ENDS
PUBLIC	?m_listIllusionTempleOpenTime@@3V?$list@UILLUSIONTEMPLE_START_TIME@@V?$allocator@UILLUSIONTEMPLE_START_TIME@@@std@@@std@@A ; m_listIllusionTempleOpenTime
_BSS	SEGMENT
?m_listIllusionTempleOpenTime@@3V?$list@UILLUSIONTEMPLE_START_TIME@@V?$allocator@UILLUSIONTEMPLE_START_TIME@@@std@@@std@@A DB 0cH DUP (?) ; m_listIllusionTempleOpenTime
_BSS	ENDS
CRT$XCU	SEGMENT
_m_listIllusionTempleOpenTime$initializer$ DD FLAT:??__Em_listIllusionTempleOpenTime@@YAXXZ
CRT$XCU	ENDS
END
