; Listing generated by Microsoft (R) Optimizing Compiler Version 16.00.30319.01 

	TITLE	E:\work\tranet_version\GS\GameServer\ImperialBattleOfDestler.cpp
	.686P
	.XMM
	include listing.inc
	.model	flat

INCLUDELIB LIBCMT
INCLUDELIB OLDNAMES

_DATA	SEGMENT
_g_sttBLOODCASTLE_LEVEL DD 0fH
	DD	050H
	DD	0aH
	DD	03cH
	DD	051H
	DD	082H
	DD	03dH
	DD	06eH
	DD	083H
	DD	0b4H
	DD	06fH
	DD	0a0H
	DD	0b5H
	DD	0e6H
	DD	0a1H
	DD	0d2H
	DD	0e7H
	DD	0118H
	DD	0d3H
	DD	0104H
	DD	0119H
	DD	014aH
	DD	0105H
	DD	0136H
	DD	014bH
	DD	03e8H
	DD	0137H
	DD	03e8H
	DD	0fH
	DD	04afH
	DD	0aH
	DD	04afH
_DATA	ENDS
CONST	SEGMENT
_g_DestlerGate DD 020dH
	DD	0eaH
	DD	01dH
	DD	01H
	DD	020cH
	DD	0e9H
	DD	037H
	DD	01H
	DD	020dH
	DD	0d8H
	DD	050H
	DD	03H
	DD	020dH
	DD	0c2H
	DD	019H
	DD	03H
	DD	020cH
	DD	0a6H
	DD	019H
	DD	03H
	DD	020dH
	DD	09aH
	DD	035H
	DD	01H
	DD	020dH
	DD	0b4H
	DD	04fH
	DD	01H
	ORG $+32
_g_DestlerMapAttr DD 0e8H
	DD	01cH
	DD	0ecH
	DD	021H
	DD	0e7H
	DD	037H
	DD	0eaH
	DD	03bH
	DD	0d4H
	DD	04fH
	DD	0d8H
	DD	050H
	DD	0beH
	DD	018H
	DD	0c2H
	DD	01aH
	DD	0a2H
	DD	018H
	DD	0a8H
	DD	01aH
	DD	09aH
	DD	035H
	DD	09cH
	DD	039H
	DD	0b3H
	DD	04fH
	DD	0b5H
	DD	055H
	ORG $+32
_g_DestlerTrap DD 0e8H
	DD	03dH
	DD	0e1H
	DD	042H
	DD	0dbH
	DD	044H
	DD	0dcH
	DD	04bH
	DD	0dcH
	DD	053H
	DD	0a0H
	DD	019H
	DD	09bH
	DD	01bH
	DD	09bH
	DD	020H
	DD	09bH
	DD	025H
	DD	09bH
	DD	02cH
	DD	09bH
	DD	032H
	ORG $+8
CONST	ENDS
PUBLIC	??_H@YGXPAXIHP6EPAX0@Z@Z			; `vector constructor iterator'
; Function compile flags: /Ogtp
;	COMDAT ??_H@YGXPAXIHP6EPAX0@Z@Z
_TEXT	SEGMENT
___t$ = 8						; size = 4
___s$ = 12						; size = 4
___n$ = 16						; size = 4
___f$ = 20						; size = 4
??_H@YGXPAXIHP6EPAX0@Z@Z PROC				; `vector constructor iterator', COMDAT
  00000	55		 push	 ebp
  00001	8b ec		 mov	 ebp, esp
  00003	57		 push	 edi
  00004	8b 7d 10	 mov	 edi, DWORD PTR ___n$[ebp]
  00007	4f		 dec	 edi
  00008	78 14		 js	 SHORT $LN1@vector
  0000a	53		 push	 ebx
  0000b	8b 5d 14	 mov	 ebx, DWORD PTR ___f$[ebp]
  0000e	56		 push	 esi
  0000f	8b 75 08	 mov	 esi, DWORD PTR ___t$[ebp]
$LL2@vector:
  00012	8b ce		 mov	 ecx, esi
  00014	ff d3		 call	 ebx
  00016	03 75 0c	 add	 esi, DWORD PTR ___s$[ebp]
  00019	4f		 dec	 edi
  0001a	79 f6		 jns	 SHORT $LL2@vector
  0001c	5e		 pop	 esi
  0001d	5b		 pop	 ebx
$LN1@vector:
  0001e	5f		 pop	 edi
  0001f	5d		 pop	 ebp
  00020	c2 10 00	 ret	 16			; 00000010H
??_H@YGXPAXIHP6EPAX0@Z@Z ENDP				; `vector constructor iterator'
_TEXT	ENDS
PUBLIC	?Reset@BATTLEOFDESTLER_DATA@@QAEXXZ		; BATTLEOFDESTLER_DATA::Reset
; Function compile flags: /Ogtp
; File e:\work\tranet_version\gs\gameserver\imperialbattleofdestler.h
;	COMDAT ?Reset@BATTLEOFDESTLER_DATA@@QAEXXZ
_TEXT	SEGMENT
?Reset@BATTLEOFDESTLER_DATA@@QAEXXZ PROC		; BATTLEOFDESTLER_DATA::Reset, COMDAT
; _this$ = ecx

; 19   : 		for(int i=0;i<3;++i)
; 20   : 		{
; 21   : 			this->AIGroups[i] = -1;

  00000	83 c8 ff	 or	 eax, -1
  00003	89 01		 mov	 DWORD PTR [ecx], eax
  00005	89 41 04	 mov	 DWORD PTR [ecx+4], eax
  00008	89 41 08	 mov	 DWORD PTR [ecx+8], eax

; 22   : 		}
; 23   : 		for(int n=0;n<9;++n)
; 24   : 		{
; 25   : 			this->GateIndex[n] = -1;

  0000b	89 41 10	 mov	 DWORD PTR [ecx+16], eax
  0000e	89 41 14	 mov	 DWORD PTR [ecx+20], eax
  00011	89 41 18	 mov	 DWORD PTR [ecx+24], eax
  00014	89 41 1c	 mov	 DWORD PTR [ecx+28], eax
  00017	89 41 20	 mov	 DWORD PTR [ecx+32], eax
  0001a	89 41 24	 mov	 DWORD PTR [ecx+36], eax
  0001d	89 41 28	 mov	 DWORD PTR [ecx+40], eax
  00020	89 41 2c	 mov	 DWORD PTR [ecx+44], eax
  00023	89 41 30	 mov	 DWORD PTR [ecx+48], eax

; 26   : 		}
; 27   : 		this->CurrentLeaderIndex = -1;

  00026	89 41 0c	 mov	 DWORD PTR [ecx+12], eax

; 28   : 		this->MonsterCount = 0;

  00029	c7 41 40 00 00
	00 00		 mov	 DWORD PTR [ecx+64], 0

; 29   : 		this->TrapIndex = -1;

  00030	89 41 48	 mov	 DWORD PTR [ecx+72], eax

; 30   : 		this->NotifyCount = -1;

  00033	c6 41 50 ff	 mov	 BYTE PTR [ecx+80], 255	; 000000ffH

; 31   : 	}

  00037	c3		 ret	 0
?Reset@BATTLEOFDESTLER_DATA@@QAEXXZ ENDP		; BATTLEOFDESTLER_DATA::Reset
_TEXT	ENDS
PUBLIC	?SetSuccessValue@CImperialBattleOfDestler@@QAEX_N@Z ; CImperialBattleOfDestler::SetSuccessValue
; Function compile flags: /Ogtp
;	COMDAT ?SetSuccessValue@CImperialBattleOfDestler@@QAEX_N@Z
_TEXT	SEGMENT
_SuccessValue$ = 8					; size = 1
?SetSuccessValue@CImperialBattleOfDestler@@QAEX_N@Z PROC ; CImperialBattleOfDestler::SetSuccessValue, COMDAT
; _this$ = ecx

; 81   : 	void SetSuccessValue(bool SuccessValue) { this->SuccessValue = SuccessValue; }

  00000	55		 push	 ebp
  00001	8b ec		 mov	 ebp, esp
  00003	8a 45 08	 mov	 al, BYTE PTR _SuccessValue$[ebp]
  00006	88 41 59	 mov	 BYTE PTR [ecx+89], al
  00009	5d		 pop	 ebp
  0000a	c2 04 00	 ret	 4
?SetSuccessValue@CImperialBattleOfDestler@@QAEX_N@Z ENDP ; CImperialBattleOfDestler::SetSuccessValue
_TEXT	ENDS
PUBLIC	?GetIndex@CImperialBattleUser@@QAEHXZ		; CImperialBattleUser::GetIndex
; Function compile flags: /Ogtp
; File e:\work\tranet_version\gs\gameserver\imperialbattleuser.h
;	COMDAT ?GetIndex@CImperialBattleUser@@QAEHXZ
_TEXT	SEGMENT
?GetIndex@CImperialBattleUser@@QAEHXZ PROC		; CImperialBattleUser::GetIndex, COMDAT
; _this$ = ecx

; 23   : 		return this->m_iIndex;

  00000	8b 41 04	 mov	 eax, DWORD PTR [ecx+4]

; 24   : 	}

  00003	c3		 ret	 0
?GetIndex@CImperialBattleUser@@QAEHXZ ENDP		; CImperialBattleUser::GetIndex
_TEXT	ENDS
PUBLIC	??_7CImperialBattleOfDestler@@6B@		; CImperialBattleOfDestler::`vftable'
PUBLIC	??1CImperialBattleOfDestler@@UAE@XZ		; CImperialBattleOfDestler::~CImperialBattleOfDestler
PUBLIC	??_R4CImperialBattleOfDestler@@6B@		; CImperialBattleOfDestler::`RTTI Complete Object Locator'
PUBLIC	??_R0?AVCImperialBattleOfDestler@@@8		; CImperialBattleOfDestler `RTTI Type Descriptor'
PUBLIC	??_R3CImperialBattleOfDestler@@8		; CImperialBattleOfDestler::`RTTI Class Hierarchy Descriptor'
PUBLIC	??_R2CImperialBattleOfDestler@@8		; CImperialBattleOfDestler::`RTTI Base Class Array'
PUBLIC	??_R1A@?0A@EA@CImperialBattleOfDestler@@8	; CImperialBattleOfDestler::`RTTI Base Class Descriptor at (0,-1,0,64)'
EXTRN	??_7type_info@@6B@:QWORD			; type_info::`vftable'
EXTRN	??_ECImperialBattleOfDestler@@UAEPAXI@Z:PROC	; CImperialBattleOfDestler::`vector deleting destructor'
;	COMDAT ??_R1A@?0A@EA@CImperialBattleOfDestler@@8
; File e:\work\tranet_version\gs\gameserver\imperialbattleofdestler.cpp
rdata$r	SEGMENT
??_R1A@?0A@EA@CImperialBattleOfDestler@@8 DD FLAT:??_R0?AVCImperialBattleOfDestler@@@8 ; CImperialBattleOfDestler::`RTTI Base Class Descriptor at (0,-1,0,64)'
	DD	00H
	DD	00H
	DD	0ffffffffH
	DD	00H
	DD	040H
	DD	FLAT:??_R3CImperialBattleOfDestler@@8
rdata$r	ENDS
;	COMDAT ??_R2CImperialBattleOfDestler@@8
rdata$r	SEGMENT
??_R2CImperialBattleOfDestler@@8 DD FLAT:??_R1A@?0A@EA@CImperialBattleOfDestler@@8 ; CImperialBattleOfDestler::`RTTI Base Class Array'
rdata$r	ENDS
;	COMDAT ??_R3CImperialBattleOfDestler@@8
rdata$r	SEGMENT
??_R3CImperialBattleOfDestler@@8 DD 00H			; CImperialBattleOfDestler::`RTTI Class Hierarchy Descriptor'
	DD	00H
	DD	01H
	DD	FLAT:??_R2CImperialBattleOfDestler@@8
rdata$r	ENDS
;	COMDAT ??_R0?AVCImperialBattleOfDestler@@@8
_DATA	SEGMENT
??_R0?AVCImperialBattleOfDestler@@@8 DD FLAT:??_7type_info@@6B@ ; CImperialBattleOfDestler `RTTI Type Descriptor'
	DD	00H
	DB	'.?AVCImperialBattleOfDestler@@', 00H
_DATA	ENDS
;	COMDAT ??_R4CImperialBattleOfDestler@@6B@
rdata$r	SEGMENT
??_R4CImperialBattleOfDestler@@6B@ DD 00H		; CImperialBattleOfDestler::`RTTI Complete Object Locator'
	DD	00H
	DD	00H
	DD	FLAT:??_R0?AVCImperialBattleOfDestler@@@8
	DD	FLAT:??_R3CImperialBattleOfDestler@@8
rdata$r	ENDS
;	COMDAT ??_7CImperialBattleOfDestler@@6B@
CONST	SEGMENT
??_7CImperialBattleOfDestler@@6B@ DD FLAT:??_R4CImperialBattleOfDestler@@6B@ ; CImperialBattleOfDestler::`vftable'
	DD	FLAT:??_ECImperialBattleOfDestler@@UAEPAXI@Z
; Function compile flags: /Ogtp
CONST	ENDS
;	COMDAT ??1CImperialBattleOfDestler@@UAE@XZ
_TEXT	SEGMENT
??1CImperialBattleOfDestler@@UAE@XZ PROC		; CImperialBattleOfDestler::~CImperialBattleOfDestler, COMDAT
; _this$ = ecx

; 18   : {

  00000	c7 01 00 00 00
	00		 mov	 DWORD PTR [ecx], OFFSET ??_7CImperialBattleOfDestler@@6B@

; 19   : }

  00006	c3		 ret	 0
??1CImperialBattleOfDestler@@UAE@XZ ENDP		; CImperialBattleOfDestler::~CImperialBattleOfDestler
_TEXT	ENDS
PUBLIC	?ResetData@CImperialBattleOfDestler@@QAEXXZ	; CImperialBattleOfDestler::ResetData
; Function compile flags: /Ogtp
;	COMDAT ?ResetData@CImperialBattleOfDestler@@QAEXXZ
_TEXT	SEGMENT
?ResetData@CImperialBattleOfDestler@@QAEXXZ PROC	; CImperialBattleOfDestler::ResetData, COMDAT
; _this$ = ecx

; 23   : 	this->m_BattleData.Reset();

  00000	83 c8 ff	 or	 eax, -1
  00003	89 41 04	 mov	 DWORD PTR [ecx+4], eax
  00006	89 41 08	 mov	 DWORD PTR [ecx+8], eax
  00009	89 41 0c	 mov	 DWORD PTR [ecx+12], eax
  0000c	89 41 14	 mov	 DWORD PTR [ecx+20], eax
  0000f	89 41 18	 mov	 DWORD PTR [ecx+24], eax
  00012	89 41 1c	 mov	 DWORD PTR [ecx+28], eax
  00015	89 41 20	 mov	 DWORD PTR [ecx+32], eax
  00018	89 41 24	 mov	 DWORD PTR [ecx+36], eax
  0001b	89 41 28	 mov	 DWORD PTR [ecx+40], eax
  0001e	89 41 2c	 mov	 DWORD PTR [ecx+44], eax
  00021	89 41 30	 mov	 DWORD PTR [ecx+48], eax
  00024	89 41 34	 mov	 DWORD PTR [ecx+52], eax
  00027	89 41 10	 mov	 DWORD PTR [ecx+16], eax
  0002a	c7 41 44 00 00
	00 00		 mov	 DWORD PTR [ecx+68], 0
  00031	89 41 4c	 mov	 DWORD PTR [ecx+76], eax
  00034	c6 41 54 ff	 mov	 BYTE PTR [ecx+84], 255	; 000000ffH

; 24   : }

  00038	c3		 ret	 0
?ResetData@CImperialBattleOfDestler@@QAEXXZ ENDP	; CImperialBattleOfDestler::ResetData
_TEXT	ENDS
PUBLIC	??_C@_0DI@COHHDLG@?$FL?5IMPERIAL?5FORT?5?$FN?5?$FL?5BattleOfDest@ ; `string'
PUBLIC	?SetState_NONE@CImperialBattleOfDestler@@QAEXXZ	; CImperialBattleOfDestler::SetState_NONE
EXTRN	?DelGroupInstance@TMonsterAIGroup@@SAHH@Z:PROC	; TMonsterAIGroup::DelGroupInstance
EXTRN	?LogAddC@@3P6AXEPADZZA:DWORD			; LogAddC
;	COMDAT ??_C@_0DI@COHHDLG@?$FL?5IMPERIAL?5FORT?5?$FN?5?$FL?5BattleOfDest@
CONST	SEGMENT
??_C@_0DI@COHHDLG@?$FL?5IMPERIAL?5FORT?5?$FN?5?$FL?5BattleOfDest@ DB '[ I'
	DB	'MPERIAL FORT ] [ BattleOfDestler ] State(%d) -> NONE', 00H ; `string'
; Function compile flags: /Ogtp
CONST	ENDS
;	COMDAT ?SetState_NONE@CImperialBattleOfDestler@@QAEXXZ
_TEXT	SEGMENT
?SetState_NONE@CImperialBattleOfDestler@@QAEXXZ PROC	; CImperialBattleOfDestler::SetState_NONE, COMDAT
; _this$ = ecx

; 58   : {

  00000	56		 push	 esi
  00001	8b f1		 mov	 esi, ecx

; 59   : 	LogAddC(2, "[ IMPERIAL FORT ] [ BattleOfDestler ] State(%d) -> NONE", this->m_BattleData.CurrentState);

  00003	8b 46 40	 mov	 eax, DWORD PTR [esi+64]
  00006	50		 push	 eax
  00007	68 00 00 00 00	 push	 OFFSET ??_C@_0DI@COHHDLG@?$FL?5IMPERIAL?5FORT?5?$FN?5?$FL?5BattleOfDest@
  0000c	6a 02		 push	 2
  0000e	ff 15 00 00 00
	00		 call	 DWORD PTR ?LogAddC@@3P6AXEPADZZA ; LogAddC
  00014	83 c4 0c	 add	 esp, 12			; 0000000cH

; 60   : 	this->ResetData();

  00017	8b ce		 mov	 ecx, esi
  00019	e8 00 00 00 00	 call	 ?ResetData@CImperialBattleOfDestler@@QAEXXZ ; CImperialBattleOfDestler::ResetData

; 61   : 	TMonsterAIGroup::DelGroupInstance(24);

  0001e	6a 18		 push	 24			; 00000018H
  00020	e8 00 00 00 00	 call	 ?DelGroupInstance@TMonsterAIGroup@@SAHH@Z ; TMonsterAIGroup::DelGroupInstance

; 62   : 	TMonsterAIGroup::DelGroupInstance(25);

  00025	6a 19		 push	 25			; 00000019H
  00027	e8 00 00 00 00	 call	 ?DelGroupInstance@TMonsterAIGroup@@SAHH@Z ; TMonsterAIGroup::DelGroupInstance

; 63   : 	TMonsterAIGroup::DelGroupInstance(26);

  0002c	6a 1a		 push	 26			; 0000001aH
  0002e	e8 00 00 00 00	 call	 ?DelGroupInstance@TMonsterAIGroup@@SAHH@Z ; TMonsterAIGroup::DelGroupInstance
  00033	83 c4 0c	 add	 esp, 12			; 0000000cH

; 64   : 	this->m_BattleData.CurrentState = BATTLEOFDESTLER_STATE_NONE;

  00036	c7 46 40 00 00
	00 00		 mov	 DWORD PTR [esi+64], 0
  0003d	5e		 pop	 esi

; 65   : }

  0003e	c3		 ret	 0
?SetState_NONE@CImperialBattleOfDestler@@QAEXXZ ENDP	; CImperialBattleOfDestler::SetState_NONE
_TEXT	ENDS
PUBLIC	??_C@_0DH@KAHKAMGA@?$FL?5IMPERIAL?5FORT?5?$FN?5?$FL?5BattleOfDest@ ; `string'
PUBLIC	?SetState_END@CImperialBattleOfDestler@@QAEXXZ	; CImperialBattleOfDestler::SetState_END
;	COMDAT ??_C@_0DH@KAHKAMGA@?$FL?5IMPERIAL?5FORT?5?$FN?5?$FL?5BattleOfDest@
CONST	SEGMENT
??_C@_0DH@KAHKAMGA@?$FL?5IMPERIAL?5FORT?5?$FN?5?$FL?5BattleOfDest@ DB '[ '
	DB	'IMPERIAL FORT ] [ BattleOfDestler ] State(%d) -> END', 00H ; `string'
; Function compile flags: /Ogtp
CONST	ENDS
;	COMDAT ?SetState_END@CImperialBattleOfDestler@@QAEXXZ
_TEXT	SEGMENT
?SetState_END@CImperialBattleOfDestler@@QAEXXZ PROC	; CImperialBattleOfDestler::SetState_END, COMDAT
; _this$ = ecx

; 224  : {

  00000	56		 push	 esi
  00001	8b f1		 mov	 esi, ecx

; 225  : 	LogAddC(2, "[ IMPERIAL FORT ] [ BattleOfDestler ] State(%d) -> END", this->m_BattleData.CurrentState);

  00003	8b 46 40	 mov	 eax, DWORD PTR [esi+64]
  00006	50		 push	 eax
  00007	68 00 00 00 00	 push	 OFFSET ??_C@_0DH@KAHKAMGA@?$FL?5IMPERIAL?5FORT?5?$FN?5?$FL?5BattleOfDest@
  0000c	6a 02		 push	 2
  0000e	ff 15 00 00 00
	00		 call	 DWORD PTR ?LogAddC@@3P6AXEPADZZA ; LogAddC
  00014	83 c4 0c	 add	 esp, 12			; 0000000cH

; 226  : 	this->m_BattleData.CurrentState = BATTLEOFDESTLER_STATE_END;

  00017	c7 46 40 07 00
	00 00		 mov	 DWORD PTR [esi+64], 7
  0001e	5e		 pop	 esi

; 227  : 
; 228  : 
; 229  : 
; 230  : 	return;
; 231  : }

  0001f	c3		 ret	 0
?SetState_END@CImperialBattleOfDestler@@QAEXXZ ENDP	; CImperialBattleOfDestler::SetState_END
_TEXT	ENDS
PUBLIC	?ProcState_END@CImperialBattleOfDestler@@QAEXXZ	; CImperialBattleOfDestler::ProcState_END
; Function compile flags: /Ogtp
;	COMDAT ?ProcState_END@CImperialBattleOfDestler@@QAEXXZ
_TEXT	SEGMENT
?ProcState_END@CImperialBattleOfDestler@@QAEXXZ PROC	; CImperialBattleOfDestler::ProcState_END, COMDAT
; _this$ = ecx

; 471  : 	return;
; 472  : }

  00000	c3		 ret	 0
?ProcState_END@CImperialBattleOfDestler@@QAEXXZ ENDP	; CImperialBattleOfDestler::ProcState_END
_TEXT	ENDS
PUBLIC	?GetEventTime@CImperialBattleOfDestler@@QAEHXZ	; CImperialBattleOfDestler::GetEventTime
; Function compile flags: /Ogtp
;	COMDAT ?GetEventTime@CImperialBattleOfDestler@@QAEHXZ
_TEXT	SEGMENT
?GetEventTime@CImperialBattleOfDestler@@QAEHXZ PROC	; CImperialBattleOfDestler::GetEventTime, COMDAT
; _this$ = ecx

; 476  : 	return this->m_BattleData.Time / 1000;

  00000	8b 49 38	 mov	 ecx, DWORD PTR [ecx+56]
  00003	b8 d3 4d 62 10	 mov	 eax, 274877907		; 10624dd3H
  00008	f7 e9		 imul	 ecx
  0000a	c1 fa 06	 sar	 edx, 6
  0000d	8b c2		 mov	 eax, edx
  0000f	c1 e8 1f	 shr	 eax, 31			; 0000001fH
  00012	03 c2		 add	 eax, edx

; 477  : }

  00014	c3		 ret	 0
?GetEventTime@CImperialBattleOfDestler@@QAEHXZ ENDP	; CImperialBattleOfDestler::GetEventTime
_TEXT	ENDS
PUBLIC	?GetEventState@CImperialBattleOfDestler@@QAEHXZ	; CImperialBattleOfDestler::GetEventState
; Function compile flags: /Ogtp
;	COMDAT ?GetEventState@CImperialBattleOfDestler@@QAEHXZ
_TEXT	SEGMENT
?GetEventState@CImperialBattleOfDestler@@QAEHXZ PROC	; CImperialBattleOfDestler::GetEventState, COMDAT
; _this$ = ecx

; 481  : 	int CurrState = this->m_BattleData.CurrentState;

  00000	8b 41 40	 mov	 eax, DWORD PTR [ecx+64]

; 482  : 	if(CurrState == 1 || CurrState == 3 || CurrState == 5)

  00003	83 f8 01	 cmp	 eax, 1
  00006	74 2a		 je	 SHORT $LN6@GetEventSt
  00008	83 f8 03	 cmp	 eax, 3
  0000b	74 25		 je	 SHORT $LN6@GetEventSt
  0000d	83 f8 05	 cmp	 eax, 5
  00010	74 20		 je	 SHORT $LN6@GetEventSt

; 485  : 	}
; 486  : 	else if(CurrState == 2 || CurrState == 4 || CurrState == 6)

  00012	83 f8 02	 cmp	 eax, 2
  00015	74 15		 je	 SHORT $LN3@GetEventSt
  00017	83 f8 04	 cmp	 eax, 4
  0001a	74 10		 je	 SHORT $LN3@GetEventSt
  0001c	83 f8 06	 cmp	 eax, 6
  0001f	74 0b		 je	 SHORT $LN3@GetEventSt

; 489  : 	}
; 490  : 	else if(CurrState == 7)

  00021	83 e8 07	 sub	 eax, 7
  00024	f7 d8		 neg	 eax
  00026	1b c0		 sbb	 eax, eax
  00028	83 e0 03	 and	 eax, 3

; 491  : 	{
; 492  : 		return 0;
; 493  : 	}
; 494  : 	return 3;
; 495  : }

  0002b	c3		 ret	 0
$LN3@GetEventSt:

; 487  : 	{
; 488  : 		return 2;

  0002c	b8 02 00 00 00	 mov	 eax, 2

; 491  : 	{
; 492  : 		return 0;
; 493  : 	}
; 494  : 	return 3;
; 495  : }

  00031	c3		 ret	 0
$LN6@GetEventSt:

; 483  : 	{
; 484  : 		return 1;

  00032	b8 01 00 00 00	 mov	 eax, 1

; 491  : 	{
; 492  : 		return 0;
; 493  : 	}
; 494  : 	return 3;
; 495  : }

  00037	c3		 ret	 0
?GetEventState@CImperialBattleOfDestler@@QAEHXZ ENDP	; CImperialBattleOfDestler::GetEventState
_TEXT	ENDS
PUBLIC	?SendImperialPlayers@CImperialBattleOfDestler@@QAEXPAEH@Z ; CImperialBattleOfDestler::SendImperialPlayers
EXTRN	?DataSend@@YAHHPAEK@Z:PROC			; DataSend
EXTRN	?gObj@@3PAUOBJECTSTRUCT@@A:DWORD		; gObj
EXTRN	?GetUserCount@CImperialBattleUserMng@@QAEHXZ:PROC ; CImperialBattleUserMng::GetUserCount
EXTRN	?g_ImperialBattleUserMng@@3VCImperialBattleUserMng@@A:BYTE ; g_ImperialBattleUserMng
; Function compile flags: /Ogtp
;	COMDAT ?SendImperialPlayers@CImperialBattleOfDestler@@QAEXPAEH@Z
_TEXT	SEGMENT
_lpMsg$ = 8						; size = 4
_iSize$ = 12						; size = 4
?SendImperialPlayers@CImperialBattleOfDestler@@QAEXPAEH@Z PROC ; CImperialBattleOfDestler::SendImperialPlayers, COMDAT
; _this$ = ecx

; 498  : {

  00000	55		 push	 ebp
  00001	8b ec		 mov	 ebp, esp
  00003	57		 push	 edi

; 499  : 	int index;
; 500  : 	for(int i=0; i < g_ImperialBattleUserMng.GetUserCount();++i)

  00004	b9 00 00 00 00	 mov	 ecx, OFFSET ?g_ImperialBattleUserMng@@3VCImperialBattleUserMng@@A ; g_ImperialBattleUserMng
  00009	33 ff		 xor	 edi, edi
  0000b	e8 00 00 00 00	 call	 ?GetUserCount@CImperialBattleUserMng@@QAEHXZ ; CImperialBattleUserMng::GetUserCount
  00010	85 c0		 test	 eax, eax
  00012	7e 53		 jle	 SHORT $LN2@SendImperi
  00014	53		 push	 ebx
  00015	8b 5d 0c	 mov	 ebx, DWORD PTR _iSize$[ebp]
  00018	56		 push	 esi
  00019	be 08 00 00 00	 mov	 esi, OFFSET ?g_ImperialBattleUserMng@@3VCImperialBattleUserMng@@A+8
  0001e	8b ff		 npad	 2
$LL4@SendImperi:

; 501  : 	{
; 502  : 		index = g_ImperialBattleUserMng.m_BattleUser[i].GetIndex();

  00020	8b 0e		 mov	 ecx, DWORD PTR [esi]

; 503  : 
; 504  : 		if(IMPERIAL_MAP_RANGE(gObj[index].MapNumber))

  00022	8b 15 00 00 00
	00		 mov	 edx, DWORD PTR ?gObj@@3PAUOBJECTSTRUCT@@A ; gObj
  00028	8b c1		 mov	 eax, ecx
  0002a	69 c0 50 2b 00
	00		 imul	 eax, 11088		; 00002b50H
  00030	0f b6 84 10 49
	01 00 00	 movzx	 eax, BYTE PTR [eax+edx+329]
  00038	3c 45		 cmp	 al, 69			; 00000045H
  0003a	72 17		 jb	 SHORT $LN3@SendImperi
  0003c	b2 48		 mov	 dl, 72			; 00000048H
  0003e	3a d0		 cmp	 dl, al
  00040	1b c0		 sbb	 eax, eax
  00042	40		 inc	 eax
  00043	74 0e		 je	 SHORT $LN3@SendImperi

; 505  : 		{
; 506  : 			DataSend(index, lpMsg, iSize);

  00045	8b 45 08	 mov	 eax, DWORD PTR _lpMsg$[ebp]
  00048	53		 push	 ebx
  00049	50		 push	 eax
  0004a	51		 push	 ecx
  0004b	e8 00 00 00 00	 call	 ?DataSend@@YAHHPAEK@Z	; DataSend
  00050	83 c4 0c	 add	 esp, 12			; 0000000cH
$LN3@SendImperi:

; 499  : 	int index;
; 500  : 	for(int i=0; i < g_ImperialBattleUserMng.GetUserCount();++i)

  00053	b9 00 00 00 00	 mov	 ecx, OFFSET ?g_ImperialBattleUserMng@@3VCImperialBattleUserMng@@A ; g_ImperialBattleUserMng
  00058	47		 inc	 edi
  00059	83 c6 0c	 add	 esi, 12			; 0000000cH
  0005c	e8 00 00 00 00	 call	 ?GetUserCount@CImperialBattleUserMng@@QAEHXZ ; CImperialBattleUserMng::GetUserCount
  00061	3b f8		 cmp	 edi, eax
  00063	7c bb		 jl	 SHORT $LL4@SendImperi
  00065	5e		 pop	 esi
  00066	5b		 pop	 ebx
$LN2@SendImperi:
  00067	5f		 pop	 edi

; 507  : 		}	
; 508  : 	}
; 509  : }

  00068	5d		 pop	 ebp
  00069	c2 08 00	 ret	 8
?SendImperialPlayers@CImperialBattleOfDestler@@QAEXPAEH@Z ENDP ; CImperialBattleOfDestler::SendImperialPlayers
_TEXT	ENDS
PUBLIC	__$ArrayPad$
PUBLIC	?SendEventInterface@CImperialBattleOfDestler@@QAEXXZ ; CImperialBattleOfDestler::SendEventInterface
EXTRN	?PHeadSubSetB@@YAXPAEEEH@Z:PROC			; PHeadSubSetB
EXTRN	___security_cookie:DWORD
EXTRN	@__security_check_cookie@4:PROC
; Function compile flags: /Ogtp
;	COMDAT ?SendEventInterface@CImperialBattleOfDestler@@QAEXXZ
_TEXT	SEGMENT
_pMsg$ = -20						; size = 16
__$ArrayPad$ = -4					; size = 4
?SendEventInterface@CImperialBattleOfDestler@@QAEXXZ PROC ; CImperialBattleOfDestler::SendEventInterface, COMDAT
; _this$ = ecx

; 512  : {

  00000	55		 push	 ebp
  00001	8b ec		 mov	 ebp, esp
  00003	83 ec 14	 sub	 esp, 20			; 00000014H
  00006	a1 00 00 00 00	 mov	 eax, DWORD PTR ___security_cookie
  0000b	33 c5		 xor	 eax, ebp
  0000d	89 45 fc	 mov	 DWORD PTR __$ArrayPad$[ebp], eax
  00010	56		 push	 esi

; 513  : 	PMSG_FORT_TIMER pMsg;
; 514  : 
; 515  : 	PHeadSubSetB((LPBYTE)&pMsg,0xF7,0x04,sizeof(pMsg));

  00011	6a 10		 push	 16			; 00000010H
  00013	6a 04		 push	 4
  00015	8d 45 ec	 lea	 eax, DWORD PTR _pMsg$[ebp]
  00018	68 f7 00 00 00	 push	 247			; 000000f7H
  0001d	50		 push	 eax
  0001e	8b f1		 mov	 esi, ecx
  00020	e8 00 00 00 00	 call	 ?PHeadSubSetB@@YAXPAEEEH@Z ; PHeadSubSetB
  00025	83 c4 10	 add	 esp, 16			; 00000010H

; 516  : 
; 517  : 	int Time = this->GetEventTime() * 4;

  00028	8b ce		 mov	 ecx, esi
  0002a	e8 00 00 00 00	 call	 ?GetEventTime@CImperialBattleOfDestler@@QAEHXZ ; CImperialBattleOfDestler::GetEventTime
  0002f	8b d0		 mov	 edx, eax
  00031	03 d2		 add	 edx, edx

; 518  : 
; 519  : 	pMsg.Status = this->GetEventState();

  00033	8b ce		 mov	 ecx, esi
  00035	03 d2		 add	 edx, edx
  00037	e8 00 00 00 00	 call	 ?GetEventState@CImperialBattleOfDestler@@QAEHXZ ; CImperialBattleOfDestler::GetEventState
  0003c	88 45 f0	 mov	 BYTE PTR _pMsg$[ebp+4], al

; 520  : 	pMsg.Unk1 = 1;

  0003f	b0 01		 mov	 al, 1

; 521  : 	pMsg.Unk2 = 1;
; 522  : 	pMsg.Unk3 = 0;

  00041	32 c0		 xor	 al, al

; 523  : 	pMsg.Unk5 = 0;
; 524  : 	pMsg.TimerH = HIBYTE(Time);

  00043	8b ca		 mov	 ecx, edx
  00045	c1 e9 08	 shr	 ecx, 8

; 525  : 	pMsg.TimerL = LOBYTE(Time);
; 526  : 	pMsg.Unk4 = 0;

  00048	88 45 f7	 mov	 BYTE PTR _pMsg$[ebp+11], al

; 527  : 	pMsg.Monster = this->m_BattleData.MonsterCount;
; 528  : 
; 529  : 	this->SendImperialPlayers((LPBYTE)&pMsg, pMsg.h.size);

  0004b	0f b6 45 ed	 movzx	 eax, BYTE PTR _pMsg$[ebp+1]
  0004f	88 4d f6	 mov	 BYTE PTR _pMsg$[ebp+10], cl
  00052	50		 push	 eax
  00053	8d 4d ec	 lea	 ecx, DWORD PTR _pMsg$[ebp]
  00056	88 55 f5	 mov	 BYTE PTR _pMsg$[ebp+9], dl
  00059	8b 56 44	 mov	 edx, DWORD PTR [esi+68]
  0005c	51		 push	 ecx
  0005d	8b ce		 mov	 ecx, esi
  0005f	c7 45 f1 01 01
	00 00		 mov	 DWORD PTR _pMsg$[ebp+5], 257 ; 00000101H
  00066	89 55 f8	 mov	 DWORD PTR _pMsg$[ebp+12], edx
  00069	e8 00 00 00 00	 call	 ?SendImperialPlayers@CImperialBattleOfDestler@@QAEXPAEH@Z ; CImperialBattleOfDestler::SendImperialPlayers

; 530  : }

  0006e	8b 4d fc	 mov	 ecx, DWORD PTR __$ArrayPad$[ebp]
  00071	33 cd		 xor	 ecx, ebp
  00073	5e		 pop	 esi
  00074	e8 00 00 00 00	 call	 @__security_check_cookie@4
  00079	8b e5		 mov	 esp, ebp
  0007b	5d		 pop	 ebp
  0007c	c3		 ret	 0
?SendEventInterface@CImperialBattleOfDestler@@QAEXXZ ENDP ; CImperialBattleOfDestler::SendEventInterface
_TEXT	ENDS
PUBLIC	__$ArrayPad$
PUBLIC	?SetMapAttr@CImperialBattleOfDestler@@QAEXH@Z	; CImperialBattleOfDestler::SetMapAttr
; Function compile flags: /Ogtp
;	COMDAT ?SetMapAttr@CImperialBattleOfDestler@@QAEXH@Z
_TEXT	SEGMENT
_Buff$ = -260						; size = 256
__$ArrayPad$ = -4					; size = 4
_Gate$ = 8						; size = 4
?SetMapAttr@CImperialBattleOfDestler@@QAEXH@Z PROC	; CImperialBattleOfDestler::SetMapAttr, COMDAT
; _this$ = ecx

; 533  : {

  00000	55		 push	 ebp
  00001	8b ec		 mov	 ebp, esp
  00003	81 ec 04 01 00
	00		 sub	 esp, 260		; 00000104H
  00009	a1 00 00 00 00	 mov	 eax, DWORD PTR ___security_cookie
  0000e	33 c5		 xor	 eax, ebp
  00010	89 45 fc	 mov	 DWORD PTR __$ArrayPad$[ebp], eax

; 534  : 	char Buff[256];
; 535  : 	short PacketSize = 0;
; 536  : 	PMSG_SETMAPATTR_COUNT * lpMsg = (PMSG_SETMAPATTR_COUNT *)(Buff);
; 537  : 	PMSG_SETMAPATTR * lpMsgBody = (PMSG_SETMAPATTR *)(Buff + sizeof(PMSG_SETMAPATTR_COUNT));
; 538  : 
; 539  : 	lpMsgBody[0].btX = g_DestlerMapAttr[Gate].StartX;

  00013	8b 45 08	 mov	 eax, DWORD PTR _Gate$[ebp]
  00016	c1 e0 04	 shl	 eax, 4
  00019	0f b6 90 00 00
	00 00		 movzx	 edx, BYTE PTR _g_DestlerMapAttr[eax]
  00020	88 95 03 ff ff
	ff		 mov	 BYTE PTR _Buff$[ebp+7], dl

; 540  : 	lpMsgBody[0].btY = g_DestlerMapAttr[Gate].StartY;

  00026	0f b6 90 04 00
	00 00		 movzx	 edx, BYTE PTR _g_DestlerMapAttr[eax+4]
  0002d	88 95 04 ff ff
	ff		 mov	 BYTE PTR _Buff$[ebp+8], dl

; 541  : 	lpMsgBody[1].btX = g_DestlerMapAttr[Gate].EndX;

  00033	0f b6 90 08 00
	00 00		 movzx	 edx, BYTE PTR _g_DestlerMapAttr[eax+8]

; 542  : 	lpMsgBody[1].btY = g_DestlerMapAttr[Gate].EndY;

  0003a	8a 80 0c 00 00
	00		 mov	 al, BYTE PTR _g_DestlerMapAttr[eax+12]
  00040	88 95 05 ff ff
	ff		 mov	 BYTE PTR _Buff$[ebp+9], dl
  00046	88 85 06 ff ff
	ff		 mov	 BYTE PTR _Buff$[ebp+10], al

; 543  : 
; 544  : 	PacketSize = (sizeof(PMSG_SETMAPATTR_COUNT)+6*sizeof(PMSG_SETMAPATTR));
; 545  : 
; 546  : 	lpMsg->btMapAttr = 16;
; 547  : 	lpMsg->btMapSetType = 1;
; 548  : 	lpMsg->btCount = 1;
; 549  : 	lpMsg->btType = 0;
; 550  : 
; 551  : 	lpMsg->h.c = 0xC1;
; 552  : 	lpMsg->h.headcode = 0x46;
; 553  : 	lpMsg->h.size = PacketSize;
; 554  : 
; 555  : 	this->SendImperialPlayers((LPBYTE)Buff, PacketSize);

  0004c	6a 13		 push	 19			; 00000013H
  0004e	8d 95 fc fe ff
	ff		 lea	 edx, DWORD PTR _Buff$[ebp]
  00054	b0 01		 mov	 al, 1
  00056	52		 push	 edx
  00057	88 85 02 ff ff
	ff		 mov	 BYTE PTR _Buff$[ebp+6], al
  0005d	c7 85 fe fe ff
	ff 46 00 10 01	 mov	 DWORD PTR _Buff$[ebp+2], 17825862 ; 01100046H
  00067	66 c7 85 fc fe
	ff ff c1 13	 mov	 WORD PTR _Buff$[ebp], 5057 ; 000013c1H
  00070	e8 00 00 00 00	 call	 ?SendImperialPlayers@CImperialBattleOfDestler@@QAEXPAEH@Z ; CImperialBattleOfDestler::SendImperialPlayers

; 556  : }

  00075	8b 4d fc	 mov	 ecx, DWORD PTR __$ArrayPad$[ebp]
  00078	33 cd		 xor	 ecx, ebp
  0007a	e8 00 00 00 00	 call	 @__security_check_cookie@4
  0007f	8b e5		 mov	 esp, ebp
  00081	5d		 pop	 ebp
  00082	c2 04 00	 ret	 4
?SetMapAttr@CImperialBattleOfDestler@@QAEXH@Z ENDP	; CImperialBattleOfDestler::SetMapAttr
_TEXT	ENDS
PUBLIC	?MonsterProc@CImperialBattleOfDestler@@QAEXXZ	; CImperialBattleOfDestler::MonsterProc
EXTRN	?FindGroupMemberObjectIndex@TMonsterAIGroup@@SAHHH@Z:PROC ; TMonsterAIGroup::FindGroupMemberObjectIndex
EXTRN	?s_iMonsterAIGroupMemberCount@TMonsterAIGroup@@2PAHA:BYTE ; TMonsterAIGroup::s_iMonsterAIGroupMemberCount
; Function compile flags: /Ogtp
;	COMDAT ?MonsterProc@CImperialBattleOfDestler@@QAEXXZ
_TEXT	SEGMENT
?MonsterProc@CImperialBattleOfDestler@@QAEXXZ PROC	; CImperialBattleOfDestler::MonsterProc, COMDAT
; _this$ = ecx

; 559  : {

  00000	53		 push	 ebx
  00001	56		 push	 esi
  00002	8b f1		 mov	 esi, ecx

; 560  : 	short alivecount = 0;
; 561  : 	for(int i=0;i<TMonsterAIGroup::s_iMonsterAIGroupMemberCount[this->m_BattleData.CurrentAIGroup];++i)

  00004	8b 46 48	 mov	 eax, DWORD PTR [esi+72]
  00007	57		 push	 edi
  00008	33 db		 xor	 ebx, ebx
  0000a	33 ff		 xor	 edi, edi
  0000c	39 1c 85 00 00
	00 00		 cmp	 DWORD PTR ?s_iMonsterAIGroupMemberCount@TMonsterAIGroup@@2PAHA[eax*4], ebx
  00013	7e 38		 jle	 SHORT $LN9@MonsterPro
$LL4@MonsterPro:

; 562  : 	{
; 563  : 		if(gObj[TMonsterAIGroup::FindGroupMemberObjectIndex(this->m_BattleData.CurrentAIGroup, i)].Live == true)

  00015	8b 4e 48	 mov	 ecx, DWORD PTR [esi+72]
  00018	57		 push	 edi
  00019	51		 push	 ecx
  0001a	e8 00 00 00 00	 call	 ?FindGroupMemberObjectIndex@TMonsterAIGroup@@SAHHH@Z ; TMonsterAIGroup::FindGroupMemberObjectIndex
  0001f	69 c0 50 2b 00
	00		 imul	 eax, 11088		; 00002b50H
  00025	8b 15 00 00 00
	00		 mov	 edx, DWORD PTR ?gObj@@3PAUOBJECTSTRUCT@@A ; gObj
  0002b	83 c4 08	 add	 esp, 8
  0002e	80 7c 10 6a 01	 cmp	 BYTE PTR [eax+edx+106], 1
  00033	75 01		 jne	 SHORT $LN3@MonsterPro

; 564  : 		{
; 565  : 			++alivecount;

  00035	43		 inc	 ebx
$LN3@MonsterPro:

; 560  : 	short alivecount = 0;
; 561  : 	for(int i=0;i<TMonsterAIGroup::s_iMonsterAIGroupMemberCount[this->m_BattleData.CurrentAIGroup];++i)

  00036	8b 46 48	 mov	 eax, DWORD PTR [esi+72]
  00039	47		 inc	 edi
  0003a	3b 3c 85 00 00
	00 00		 cmp	 edi, DWORD PTR ?s_iMonsterAIGroupMemberCount@TMonsterAIGroup@@2PAHA[eax*4]
  00041	7c d2		 jl	 SHORT $LL4@MonsterPro

; 566  : 		}
; 567  : 	}
; 568  : 	this->m_BattleData.MonsterCount = alivecount;

  00043	0f bf cb	 movsx	 ecx, bx
  00046	5f		 pop	 edi
  00047	89 4e 44	 mov	 DWORD PTR [esi+68], ecx
  0004a	5e		 pop	 esi
  0004b	5b		 pop	 ebx

; 569  : }

  0004c	c3		 ret	 0
$LN9@MonsterPro:

; 566  : 		}
; 567  : 	}
; 568  : 	this->m_BattleData.MonsterCount = alivecount;

  0004d	0f bf d3	 movsx	 edx, bx
  00050	5f		 pop	 edi
  00051	89 56 44	 mov	 DWORD PTR [esi+68], edx
  00054	5e		 pop	 esi
  00055	5b		 pop	 ebx

; 569  : }

  00056	c3		 ret	 0
?MonsterProc@CImperialBattleOfDestler@@QAEXXZ ENDP	; CImperialBattleOfDestler::MonsterProc
_TEXT	ENDS
PUBLIC	?OperatePortalGate@CImperialBattleOfDestler@@QAEX_N0H@Z ; CImperialBattleOfDestler::OperatePortalGate
; Function compile flags: /Ogtp
;	COMDAT ?OperatePortalGate@CImperialBattleOfDestler@@QAEX_N0H@Z
_TEXT	SEGMENT
_Block$ = 8						; size = 1
_ForAll$ = 12						; size = 1
_aIndex$ = 16						; size = 4
?OperatePortalGate@CImperialBattleOfDestler@@QAEX_N0H@Z PROC ; CImperialBattleOfDestler::OperatePortalGate, COMDAT
; _this$ = ecx

; 573  : 	return;
; 574  : }

  00000	c2 0c 00	 ret	 12			; 0000000cH
?OperatePortalGate@CImperialBattleOfDestler@@QAEX_N0H@Z ENDP ; CImperialBattleOfDestler::OperatePortalGate
_TEXT	ENDS
PUBLIC	__$ArrayPad$
PUBLIC	?SendEventState@CImperialBattleOfDestler@@QAEXXZ ; CImperialBattleOfDestler::SendEventState
; Function compile flags: /Ogtp
;	COMDAT ?SendEventState@CImperialBattleOfDestler@@QAEXXZ
_TEXT	SEGMENT
_State$ = -20						; size = 4
_pMsg$ = -16						; size = 12
__$ArrayPad$ = -4					; size = 4
?SendEventState@CImperialBattleOfDestler@@QAEXXZ PROC	; CImperialBattleOfDestler::SendEventState, COMDAT
; _this$ = ecx

; 606  : {

  00000	55		 push	 ebp
  00001	8b ec		 mov	 ebp, esp
  00003	83 ec 14	 sub	 esp, 20			; 00000014H
  00006	a1 00 00 00 00	 mov	 eax, DWORD PTR ___security_cookie
  0000b	33 c5		 xor	 eax, ebp
  0000d	89 45 fc	 mov	 DWORD PTR __$ArrayPad$[ebp], eax
  00010	56		 push	 esi

; 607  : 	PMSG_FORT_ENTER_RESULT pMsg;
; 608  : 
; 609  : 	PHeadSubSetB((LPBYTE)&pMsg, 0xF7, 0x02, sizeof(pMsg));

  00011	6a 0c		 push	 12			; 0000000cH
  00013	6a 02		 push	 2
  00015	8d 45 f0	 lea	 eax, DWORD PTR _pMsg$[ebp]
  00018	68 f7 00 00 00	 push	 247			; 000000f7H
  0001d	50		 push	 eax
  0001e	8b f1		 mov	 esi, ecx
  00020	e8 00 00 00 00	 call	 ?PHeadSubSetB@@YAXPAEEEH@Z ; PHeadSubSetB

; 610  : 
; 611  : 	pMsg.EntryTime = 0;
; 612  : 	pMsg.Day = 1;
; 613  : 	pMsg.Result = 0;
; 614  : 	
; 615  : 	int State;
; 616  : 
; 617  : 	if(this->m_BattleData.CurrentState == 1 || this->m_BattleData.CurrentState == 2)

  00025	8b 46 40	 mov	 eax, DWORD PTR [esi+64]
  00028	33 c9		 xor	 ecx, ecx
  0002a	83 c4 10	 add	 esp, 16			; 00000010H
  0002d	66 89 4d fa	 mov	 WORD PTR _pMsg$[ebp+10], cx
  00031	66 c7 45 f4 00
	01		 mov	 WORD PTR _pMsg$[ebp+4], 256 ; 00000100H
  00037	83 f8 01	 cmp	 eax, 1
  0003a	74 27		 je	 SHORT $LN7@SendEventS
  0003c	83 f8 02	 cmp	 eax, 2
  0003f	74 22		 je	 SHORT $LN7@SendEventS

; 620  : 	}
; 621  : 	else if(this->m_BattleData.CurrentState == 3 || this->m_BattleData.CurrentState == 4)

  00041	83 f8 03	 cmp	 eax, 3
  00044	74 16		 je	 SHORT $LN4@SendEventS
  00046	83 f8 04	 cmp	 eax, 4
  00049	74 11		 je	 SHORT $LN4@SendEventS

; 624  : 	}
; 625  : 	else if(this->m_BattleData.CurrentState == 5 || this->m_BattleData.CurrentState == 6)

  0004b	83 f8 05	 cmp	 eax, 5
  0004e	74 05		 je	 SHORT $LN1@SendEventS
  00050	83 f8 06	 cmp	 eax, 6
  00053	75 15		 jne	 SHORT $LN11@SendEventS
$LN1@SendEventS:

; 626  : 	{
; 627  : 		State = 3;

  00055	b8 03 00 00 00	 mov	 eax, 3
  0005a	eb 11		 jmp	 SHORT $LN2@SendEventS
$LN4@SendEventS:

; 622  : 	{
; 623  : 		State = 2;

  0005c	b8 02 00 00 00	 mov	 eax, 2
  00061	eb 0a		 jmp	 SHORT $LN2@SendEventS
$LN7@SendEventS:

; 618  : 	{
; 619  : 		State = 1;

  00063	b8 01 00 00 00	 mov	 eax, 1
  00068	eb 03		 jmp	 SHORT $LN2@SendEventS
$LN11@SendEventS:
  0006a	8a 45 ec	 mov	 al, BYTE PTR _State$[ebp]
$LN2@SendEventS:

; 628  : 	}
; 629  : 
; 630  : 	pMsg.State = State;
; 631  : 	pMsg.Unk = 3;
; 632  : 
; 633  : 	this->SendImperialPlayers((LPBYTE)&pMsg, pMsg.h.size);

  0006d	0f b6 55 f1	 movzx	 edx, BYTE PTR _pMsg$[ebp+1]
  00071	88 45 f6	 mov	 BYTE PTR _pMsg$[ebp+6], al
  00074	52		 push	 edx
  00075	8d 45 f0	 lea	 eax, DWORD PTR _pMsg$[ebp]
  00078	50		 push	 eax
  00079	8b ce		 mov	 ecx, esi
  0007b	c6 45 f7 03	 mov	 BYTE PTR _pMsg$[ebp+7], 3
  0007f	e8 00 00 00 00	 call	 ?SendImperialPlayers@CImperialBattleOfDestler@@QAEXPAEH@Z ; CImperialBattleOfDestler::SendImperialPlayers

; 634  : }

  00084	8b 4d fc	 mov	 ecx, DWORD PTR __$ArrayPad$[ebp]
  00087	33 cd		 xor	 ecx, ebp
  00089	5e		 pop	 esi
  0008a	e8 00 00 00 00	 call	 @__security_check_cookie@4
  0008f	8b e5		 mov	 esp, ebp
  00091	5d		 pop	 ebp
  00092	c3		 ret	 0
?SendEventState@CImperialBattleOfDestler@@QAEXXZ ENDP	; CImperialBattleOfDestler::SendEventState
_TEXT	ENDS
PUBLIC	??0CImperialBattleOfDestler@@QAE@XZ		; CImperialBattleOfDestler::CImperialBattleOfDestler
; Function compile flags: /Ogtp
;	COMDAT ??0CImperialBattleOfDestler@@QAE@XZ
_TEXT	SEGMENT
??0CImperialBattleOfDestler@@QAE@XZ PROC		; CImperialBattleOfDestler::CImperialBattleOfDestler, COMDAT
; _this$ = ecx

; 13   : {

  00000	c7 01 00 00 00
	00		 mov	 DWORD PTR [ecx], OFFSET ??_7CImperialBattleOfDestler@@6B@

; 14   : 	this->ResetData();

  00006	e8 00 00 00 00	 call	 ?ResetData@CImperialBattleOfDestler@@QAEXXZ ; CImperialBattleOfDestler::ResetData

; 15   : }

  0000b	8b c1		 mov	 eax, ecx
  0000d	c3		 ret	 0
??0CImperialBattleOfDestler@@QAE@XZ ENDP		; CImperialBattleOfDestler::CImperialBattleOfDestler
_TEXT	ENDS
EXTRN	??3@YAXPAX@Z:PROC				; operator delete
; Function compile flags: /Ogtp
;	COMDAT ??_GCImperialBattleOfDestler@@UAEPAXI@Z
_TEXT	SEGMENT
___flags$ = 8						; size = 4
??_GCImperialBattleOfDestler@@UAEPAXI@Z PROC		; CImperialBattleOfDestler::`scalar deleting destructor', COMDAT
; _this$ = ecx
  00000	55		 push	 ebp
  00001	8b ec		 mov	 ebp, esp
  00003	56		 push	 esi
  00004	8b f1		 mov	 esi, ecx
  00006	e8 00 00 00 00	 call	 ??1CImperialBattleOfDestler@@UAE@XZ ; CImperialBattleOfDestler::~CImperialBattleOfDestler
  0000b	f6 45 08 01	 test	 BYTE PTR ___flags$[ebp], 1
  0000f	74 09		 je	 SHORT $LN4@scalar
  00011	56		 push	 esi
  00012	e8 00 00 00 00	 call	 ??3@YAXPAX@Z		; operator delete
  00017	83 c4 04	 add	 esp, 4
$LN4@scalar:
  0001a	8b c6		 mov	 eax, esi
  0001c	5e		 pop	 esi
  0001d	5d		 pop	 ebp
  0001e	c2 04 00	 ret	 4
??_GCImperialBattleOfDestler@@UAEPAXI@Z ENDP		; CImperialBattleOfDestler::`scalar deleting destructor'
_TEXT	ENDS
PUBLIC	??_C@_0EG@ENNGPEMC@?$FL?5IMPERIAL?5FORT?5?$FN?5?$FL?5BattleOfDest@ ; `string'
PUBLIC	??_C@_0DM@EIBALHIL@?$FL?5IMPERIAL?5FORT?5?$FN?5?$FL?5BattleOfDest@ ; `string'
PUBLIC	?SetState_STANDBY1@CImperialBattleOfDestler@@QAEXXZ ; CImperialBattleOfDestler::SetState_STANDBY1
EXTRN	?Init@TMonsterAIGroup@@SAXH@Z:PROC		; TMonsterAIGroup::Init
EXTRN	__imp__GetTickCount@0:PROC
EXTRN	?LogAddTD@@3P6AXPADZZA:DWORD			; LogAddTD
EXTRN	?gObjSetMonster@@YAHHH@Z:PROC			; gObjSetMonster
EXTRN	?gObjAddMonster@@YAFH@Z:PROC			; gObjAddMonster
;	COMDAT ??_C@_0EG@ENNGPEMC@?$FL?5IMPERIAL?5FORT?5?$FN?5?$FL?5BattleOfDest@
CONST	SEGMENT
??_C@_0EG@ENNGPEMC@?$FL?5IMPERIAL?5FORT?5?$FN?5?$FL?5BattleOfDest@ DB '[ '
	DB	'IMPERIAL FORT ] [ BattleOfDestler ] Create Gate Index: %d Cla'
	DB	'ss: %d', 00H				; `string'
CONST	ENDS
;	COMDAT ??_C@_0DM@EIBALHIL@?$FL?5IMPERIAL?5FORT?5?$FN?5?$FL?5BattleOfDest@
CONST	SEGMENT
??_C@_0DM@EIBALHIL@?$FL?5IMPERIAL?5FORT?5?$FN?5?$FL?5BattleOfDest@ DB '[ '
	DB	'IMPERIAL FORT ] [ BattleOfDestler ] State(%d) -> STANDBY1', 00H ; `string'
; Function compile flags: /Ogtp
CONST	ENDS
;	COMDAT ?SetState_STANDBY1@CImperialBattleOfDestler@@QAEXXZ
_TEXT	SEGMENT
?SetState_STANDBY1@CImperialBattleOfDestler@@QAEXXZ PROC ; CImperialBattleOfDestler::SetState_STANDBY1, COMDAT
; _this$ = ecx

; 69   : {

  00000	53		 push	 ebx
  00001	56		 push	 esi
  00002	8b d9		 mov	 ebx, ecx

; 70   : 	LogAddC(2, "[ IMPERIAL FORT ] [ BattleOfDestler ] State(%d) -> STANDBY1", this->m_BattleData.CurrentState);

  00004	8b 43 40	 mov	 eax, DWORD PTR [ebx+64]
  00007	57		 push	 edi
  00008	50		 push	 eax
  00009	68 00 00 00 00	 push	 OFFSET ??_C@_0DM@EIBALHIL@?$FL?5IMPERIAL?5FORT?5?$FN?5?$FL?5BattleOfDest@
  0000e	6a 02		 push	 2
  00010	ff 15 00 00 00
	00		 call	 DWORD PTR ?LogAddC@@3P6AXEPADZZA ; LogAddC
  00016	83 c4 0c	 add	 esp, 12			; 0000000cH
  00019	bf 04 00 00 00	 mov	 edi, OFFSET _g_DestlerGate+4
  0001e	8d 73 14	 lea	 esi, DWORD PTR [ebx+20]
$LL4@SetState_S:

; 72   : 	{
; 73   : 		this->m_BattleData.GateIndex[i] = gObjAddMonster(69);

  00021	6a 45		 push	 69			; 00000045H
  00023	e8 00 00 00 00	 call	 ?gObjAddMonster@@YAFH@Z	; gObjAddMonster
  00028	98		 cwde
  00029	83 c4 04	 add	 esp, 4
  0002c	89 06		 mov	 DWORD PTR [esi], eax

; 74   : 		if(this->m_BattleData.GateIndex[i] >= 0)

  0002e	85 c0		 test	 eax, eax
  00030	0f 88 47 01 00
	00		 js	 $LN3@SetState_S

; 75   : 		{
; 76   : 			gObj[this->m_BattleData.GateIndex[i]].MapNumber = 69;

  00036	8b 0d 00 00 00
	00		 mov	 ecx, DWORD PTR ?gObj@@3PAUOBJECTSTRUCT@@A ; gObj
  0003c	69 c0 50 2b 00
	00		 imul	 eax, 11088		; 00002b50H
  00042	c6 84 08 49 01
	00 00 45	 mov	 BYTE PTR [eax+ecx+329], 69 ; 00000045H

; 77   : 			gObj[this->m_BattleData.GateIndex[i]].X = g_DestlerGate[i].X;

  0004a	8b 16		 mov	 edx, DWORD PTR [esi]
  0004c	0f b7 07	 movzx	 eax, WORD PTR [edi]
  0004f	69 d2 50 2b 00
	00		 imul	 edx, 11088		; 00002b50H
  00055	8b 0d 00 00 00
	00		 mov	 ecx, DWORD PTR ?gObj@@3PAUOBJECTSTRUCT@@A ; gObj
  0005b	66 89 84 0a 44
	01 00 00	 mov	 WORD PTR [edx+ecx+324], ax

; 78   : 			gObj[this->m_BattleData.GateIndex[i]].Y = g_DestlerGate[i].Y;

  00063	8b 16		 mov	 edx, DWORD PTR [esi]
  00065	0f b7 47 04	 movzx	 eax, WORD PTR [edi+4]
  00069	69 d2 50 2b 00
	00		 imul	 edx, 11088		; 00002b50H
  0006f	8b 0d 00 00 00
	00		 mov	 ecx, DWORD PTR ?gObj@@3PAUOBJECTSTRUCT@@A ; gObj
  00075	66 89 84 0a 46
	01 00 00	 mov	 WORD PTR [edx+ecx+326], ax

; 79   : 			gObj[this->m_BattleData.GateIndex[i]].Dir = g_DestlerGate[i].Dir;

  0007d	8b 16		 mov	 edx, DWORD PTR [esi]
  0007f	0f b6 47 08	 movzx	 eax, BYTE PTR [edi+8]
  00083	69 d2 50 2b 00
	00		 imul	 edx, 11088		; 00002b50H
  00089	8b 0d 00 00 00
	00		 mov	 ecx, DWORD PTR ?gObj@@3PAUOBJECTSTRUCT@@A ; gObj
  0008f	88 84 0a 48 01
	00 00		 mov	 BYTE PTR [edx+ecx+328], al

; 80   : 			gObj[this->m_BattleData.GateIndex[i]].TX = g_DestlerGate[i].X;

  00096	8b 16		 mov	 edx, DWORD PTR [esi]
  00098	0f b7 07	 movzx	 eax, WORD PTR [edi]
  0009b	69 d2 50 2b 00
	00		 imul	 edx, 11088		; 00002b50H
  000a1	8b 0d 00 00 00
	00		 mov	 ecx, DWORD PTR ?gObj@@3PAUOBJECTSTRUCT@@A ; gObj
  000a7	66 89 84 0a 7c
	01 00 00	 mov	 WORD PTR [edx+ecx+380], ax

; 81   : 			gObj[this->m_BattleData.GateIndex[i]].TY = g_DestlerGate[i].Y;

  000af	8b 16		 mov	 edx, DWORD PTR [esi]
  000b1	0f b7 47 04	 movzx	 eax, WORD PTR [edi+4]
  000b5	69 d2 50 2b 00
	00		 imul	 edx, 11088		; 00002b50H
  000bb	8b 0d 00 00 00
	00		 mov	 ecx, DWORD PTR ?gObj@@3PAUOBJECTSTRUCT@@A ; gObj
  000c1	66 89 84 0a 7e
	01 00 00	 mov	 WORD PTR [edx+ecx+382], ax

; 82   : 			gObj[this->m_BattleData.GateIndex[i]].StartX = g_DestlerGate[i].X;

  000c9	8b 16		 mov	 edx, DWORD PTR [esi]
  000cb	0f b6 07	 movzx	 eax, BYTE PTR [edi]
  000ce	69 d2 50 2b 00
	00		 imul	 edx, 11088		; 00002b50H
  000d4	8b 0d 00 00 00
	00		 mov	 ecx, DWORD PTR ?gObj@@3PAUOBJECTSTRUCT@@A ; gObj
  000da	88 84 0a 76 01
	00 00		 mov	 BYTE PTR [edx+ecx+374], al

; 83   : 			gObj[this->m_BattleData.GateIndex[i]].StartY = g_DestlerGate[i].Y;

  000e1	8b 16		 mov	 edx, DWORD PTR [esi]
  000e3	0f b6 47 04	 movzx	 eax, BYTE PTR [edi+4]
  000e7	69 d2 50 2b 00
	00		 imul	 edx, 11088		; 00002b50H
  000ed	8b 0d 00 00 00
	00		 mov	 ecx, DWORD PTR ?gObj@@3PAUOBJECTSTRUCT@@A ; gObj
  000f3	88 84 0a 77 01
	00 00		 mov	 BYTE PTR [edx+ecx+375], al

; 84   : 			gObj[this->m_BattleData.GateIndex[i]].m_OldX = g_DestlerGate[i].X;

  000fa	8b 16		 mov	 edx, DWORD PTR [esi]
  000fc	0f b7 07	 movzx	 eax, WORD PTR [edi]
  000ff	69 d2 50 2b 00
	00		 imul	 edx, 11088		; 00002b50H
  00105	8b 0d 00 00 00
	00		 mov	 ecx, DWORD PTR ?gObj@@3PAUOBJECTSTRUCT@@A ; gObj
  0010b	66 89 84 0a 78
	01 00 00	 mov	 WORD PTR [edx+ecx+376], ax

; 85   : 			gObj[this->m_BattleData.GateIndex[i]].m_OldY = g_DestlerGate[i].Y;

  00113	8b 16		 mov	 edx, DWORD PTR [esi]
  00115	0f b7 47 04	 movzx	 eax, WORD PTR [edi+4]
  00119	69 d2 50 2b 00
	00		 imul	 edx, 11088		; 00002b50H
  0011f	8b 0d 00 00 00
	00		 mov	 ecx, DWORD PTR ?gObj@@3PAUOBJECTSTRUCT@@A ; gObj
  00125	66 89 84 0a 7a
	01 00 00	 mov	 WORD PTR [edx+ecx+378], ax

; 86   : 			gObjSetMonster(this->m_BattleData.GateIndex[i], g_DestlerGate[i].Class);

  0012d	8b 57 fc	 mov	 edx, DWORD PTR [edi-4]
  00130	8b 06		 mov	 eax, DWORD PTR [esi]
  00132	52		 push	 edx
  00133	50		 push	 eax
  00134	e8 00 00 00 00	 call	 ?gObjSetMonster@@YAHHH@Z ; gObjSetMonster

; 87   : 			gObj[this->m_BattleData.GateIndex[i]].m_ImmuneToHarmCount = 200; // IMMUNITY FOR GATES

  00139	8b 0e		 mov	 ecx, DWORD PTR [esi]
  0013b	a1 00 00 00 00	 mov	 eax, DWORD PTR ?gObj@@3PAUOBJECTSTRUCT@@A ; gObj
  00140	69 c9 50 2b 00
	00		 imul	 ecx, 11088		; 00002b50H
  00146	ba c8 00 00 00	 mov	 edx, 200		; 000000c8H
  0014b	66 89 94 01 84
	22 00 00	 mov	 WORD PTR [ecx+eax+8836], dx

; 88   : 			gObj[this->m_BattleData.GateIndex[i]].m_ImmuneToMagicCount = 200; // IMMUNITY FOR GATES

  00153	8b 0e		 mov	 ecx, DWORD PTR [esi]
  00155	a1 00 00 00 00	 mov	 eax, DWORD PTR ?gObj@@3PAUOBJECTSTRUCT@@A ; gObj
  0015a	69 c9 50 2b 00
	00		 imul	 ecx, 11088		; 00002b50H
  00160	66 89 94 01 82
	22 00 00	 mov	 WORD PTR [ecx+eax+8834], dx

; 89   : 
; 90   : 			LogAddTD("[ IMPERIAL FORT ] [ BattleOfDestler ] Create Gate Index: %d Class: %d",
; 91   : 				this->m_BattleData.GateIndex[i], g_DestlerGate[i].Class);

  00168	8b 4f fc	 mov	 ecx, DWORD PTR [edi-4]
  0016b	8b 16		 mov	 edx, DWORD PTR [esi]
  0016d	51		 push	 ecx
  0016e	52		 push	 edx
  0016f	68 00 00 00 00	 push	 OFFSET ??_C@_0EG@ENNGPEMC@?$FL?5IMPERIAL?5FORT?5?$FN?5?$FL?5BattleOfDest@
  00174	ff 15 00 00 00
	00		 call	 DWORD PTR ?LogAddTD@@3P6AXPADZZA ; LogAddTD
  0017a	83 c4 14	 add	 esp, 20			; 00000014H
$LN3@SetState_S:

; 71   : 	for(int i=0;i<3;++i)

  0017d	83 c7 10	 add	 edi, 16			; 00000010H
  00180	83 c6 04	 add	 esi, 4
  00183	81 ff 34 00 00
	00		 cmp	 edi, OFFSET _g_DestlerGate+52
  00189	0f 8c 92 fe ff
	ff		 jl	 $LL4@SetState_S

; 92   : 		}
; 93   : 	}
; 94   : 	this->m_BattleData.Time = 60000;

  0018f	c7 43 38 60 ea
	00 00		 mov	 DWORD PTR [ebx+56], 60000 ; 0000ea60H

; 95   : 	this->m_BattleData.TickCount = GetTickCount();

  00196	ff 15 00 00 00
	00		 call	 DWORD PTR __imp__GetTickCount@0

; 96   : 	TMonsterAIGroup::Init(24);

  0019c	6a 18		 push	 24			; 00000018H
  0019e	89 43 3c	 mov	 DWORD PTR [ebx+60], eax
  001a1	e8 00 00 00 00	 call	 ?Init@TMonsterAIGroup@@SAXH@Z ; TMonsterAIGroup::Init
  001a6	83 c4 04	 add	 esp, 4
  001a9	5f		 pop	 edi
  001aa	5e		 pop	 esi

; 97   : 	this->m_BattleData.MonsterCount = 0;

  001ab	c7 43 44 00 00
	00 00		 mov	 DWORD PTR [ebx+68], 0

; 98   : 	this->m_BattleData.CurrentAIGroup = 24;

  001b2	c7 43 48 18 00
	00 00		 mov	 DWORD PTR [ebx+72], 24	; 00000018H

; 99   : 	this->m_BattleData.CurrentState = BATTLEOFDESTLER_STATE_STANDBY1;

  001b9	c7 43 40 01 00
	00 00		 mov	 DWORD PTR [ebx+64], 1

; 100  : 	this->SendEventState();

  001c0	8b cb		 mov	 ecx, ebx
  001c2	5b		 pop	 ebx
  001c3	e9 00 00 00 00	 jmp	 ?SendEventState@CImperialBattleOfDestler@@QAEXXZ ; CImperialBattleOfDestler::SendEventState
?SetState_STANDBY1@CImperialBattleOfDestler@@QAEXXZ ENDP ; CImperialBattleOfDestler::SetState_STANDBY1
_TEXT	ENDS
PUBLIC	??_C@_0DM@GDDNOEEI@?$FL?5IMPERIAL?5FORT?5?$FN?5?$FL?5BattleOfDest@ ; `string'
PUBLIC	?SetState_STANDBY2@CImperialBattleOfDestler@@QAEXXZ ; CImperialBattleOfDestler::SetState_STANDBY2
;	COMDAT ??_C@_0DM@GDDNOEEI@?$FL?5IMPERIAL?5FORT?5?$FN?5?$FL?5BattleOfDest@
CONST	SEGMENT
??_C@_0DM@GDDNOEEI@?$FL?5IMPERIAL?5FORT?5?$FN?5?$FL?5BattleOfDest@ DB '[ '
	DB	'IMPERIAL FORT ] [ BattleOfDestler ] State(%d) -> STANDBY2', 00H ; `string'
; Function compile flags: /Ogtp
CONST	ENDS
;	COMDAT ?SetState_STANDBY2@CImperialBattleOfDestler@@QAEXXZ
_TEXT	SEGMENT
?SetState_STANDBY2@CImperialBattleOfDestler@@QAEXXZ PROC ; CImperialBattleOfDestler::SetState_STANDBY2, COMDAT
; _this$ = ecx

; 104  : {

  00000	53		 push	 ebx
  00001	56		 push	 esi
  00002	8b d9		 mov	 ebx, ecx

; 105  : 	LogAddC(2, "[ IMPERIAL FORT ] [ BattleOfDestler ] State(%d) -> STANDBY2", this->m_BattleData.CurrentState);

  00004	8b 43 40	 mov	 eax, DWORD PTR [ebx+64]
  00007	57		 push	 edi
  00008	50		 push	 eax
  00009	68 00 00 00 00	 push	 OFFSET ??_C@_0DM@GDDNOEEI@?$FL?5IMPERIAL?5FORT?5?$FN?5?$FL?5BattleOfDest@
  0000e	6a 02		 push	 2
  00010	ff 15 00 00 00
	00		 call	 DWORD PTR ?LogAddC@@3P6AXEPADZZA ; LogAddC
  00016	83 c4 0c	 add	 esp, 12			; 0000000cH
  00019	bf 34 00 00 00	 mov	 edi, OFFSET _g_DestlerGate+52
  0001e	8d 73 20	 lea	 esi, DWORD PTR [ebx+32]
$LL4@SetState_S@2:

; 107  : 	{
; 108  : 		this->m_BattleData.GateIndex[i] = gObjAddMonster(69);

  00021	6a 45		 push	 69			; 00000045H
  00023	e8 00 00 00 00	 call	 ?gObjAddMonster@@YAFH@Z	; gObjAddMonster
  00028	98		 cwde
  00029	83 c4 04	 add	 esp, 4
  0002c	89 06		 mov	 DWORD PTR [esi], eax

; 109  : 		if(this->m_BattleData.GateIndex[i] >= 0)

  0002e	85 c0		 test	 eax, eax
  00030	0f 88 47 01 00
	00		 js	 $LN3@SetState_S@2

; 110  : 		{
; 111  : 			gObj[this->m_BattleData.GateIndex[i]].MapNumber = 69;

  00036	8b 0d 00 00 00
	00		 mov	 ecx, DWORD PTR ?gObj@@3PAUOBJECTSTRUCT@@A ; gObj
  0003c	69 c0 50 2b 00
	00		 imul	 eax, 11088		; 00002b50H
  00042	c6 84 08 49 01
	00 00 45	 mov	 BYTE PTR [eax+ecx+329], 69 ; 00000045H

; 112  : 			gObj[this->m_BattleData.GateIndex[i]].X = g_DestlerGate[i].X;

  0004a	8b 16		 mov	 edx, DWORD PTR [esi]
  0004c	0f b7 07	 movzx	 eax, WORD PTR [edi]
  0004f	69 d2 50 2b 00
	00		 imul	 edx, 11088		; 00002b50H
  00055	8b 0d 00 00 00
	00		 mov	 ecx, DWORD PTR ?gObj@@3PAUOBJECTSTRUCT@@A ; gObj
  0005b	66 89 84 0a 44
	01 00 00	 mov	 WORD PTR [edx+ecx+324], ax

; 113  : 			gObj[this->m_BattleData.GateIndex[i]].Y = g_DestlerGate[i].Y;

  00063	8b 16		 mov	 edx, DWORD PTR [esi]
  00065	0f b7 47 04	 movzx	 eax, WORD PTR [edi+4]
  00069	69 d2 50 2b 00
	00		 imul	 edx, 11088		; 00002b50H
  0006f	8b 0d 00 00 00
	00		 mov	 ecx, DWORD PTR ?gObj@@3PAUOBJECTSTRUCT@@A ; gObj
  00075	66 89 84 0a 46
	01 00 00	 mov	 WORD PTR [edx+ecx+326], ax

; 114  : 			gObj[this->m_BattleData.GateIndex[i]].Dir = g_DestlerGate[i].Dir;

  0007d	8b 16		 mov	 edx, DWORD PTR [esi]
  0007f	0f b6 47 08	 movzx	 eax, BYTE PTR [edi+8]
  00083	69 d2 50 2b 00
	00		 imul	 edx, 11088		; 00002b50H
  00089	8b 0d 00 00 00
	00		 mov	 ecx, DWORD PTR ?gObj@@3PAUOBJECTSTRUCT@@A ; gObj
  0008f	88 84 0a 48 01
	00 00		 mov	 BYTE PTR [edx+ecx+328], al

; 115  : 			gObj[this->m_BattleData.GateIndex[i]].TX = g_DestlerGate[i].X;

  00096	8b 16		 mov	 edx, DWORD PTR [esi]
  00098	0f b7 07	 movzx	 eax, WORD PTR [edi]
  0009b	69 d2 50 2b 00
	00		 imul	 edx, 11088		; 00002b50H
  000a1	8b 0d 00 00 00
	00		 mov	 ecx, DWORD PTR ?gObj@@3PAUOBJECTSTRUCT@@A ; gObj
  000a7	66 89 84 0a 7c
	01 00 00	 mov	 WORD PTR [edx+ecx+380], ax

; 116  : 			gObj[this->m_BattleData.GateIndex[i]].TY = g_DestlerGate[i].Y;

  000af	8b 16		 mov	 edx, DWORD PTR [esi]
  000b1	0f b7 47 04	 movzx	 eax, WORD PTR [edi+4]
  000b5	69 d2 50 2b 00
	00		 imul	 edx, 11088		; 00002b50H
  000bb	8b 0d 00 00 00
	00		 mov	 ecx, DWORD PTR ?gObj@@3PAUOBJECTSTRUCT@@A ; gObj
  000c1	66 89 84 0a 7e
	01 00 00	 mov	 WORD PTR [edx+ecx+382], ax

; 117  : 			gObj[this->m_BattleData.GateIndex[i]].StartX = g_DestlerGate[i].X;

  000c9	8b 16		 mov	 edx, DWORD PTR [esi]
  000cb	0f b6 07	 movzx	 eax, BYTE PTR [edi]
  000ce	69 d2 50 2b 00
	00		 imul	 edx, 11088		; 00002b50H
  000d4	8b 0d 00 00 00
	00		 mov	 ecx, DWORD PTR ?gObj@@3PAUOBJECTSTRUCT@@A ; gObj
  000da	88 84 0a 76 01
	00 00		 mov	 BYTE PTR [edx+ecx+374], al

; 118  : 			gObj[this->m_BattleData.GateIndex[i]].StartY = g_DestlerGate[i].Y;

  000e1	8b 16		 mov	 edx, DWORD PTR [esi]
  000e3	0f b6 47 04	 movzx	 eax, BYTE PTR [edi+4]
  000e7	69 d2 50 2b 00
	00		 imul	 edx, 11088		; 00002b50H
  000ed	8b 0d 00 00 00
	00		 mov	 ecx, DWORD PTR ?gObj@@3PAUOBJECTSTRUCT@@A ; gObj
  000f3	88 84 0a 77 01
	00 00		 mov	 BYTE PTR [edx+ecx+375], al

; 119  : 			gObj[this->m_BattleData.GateIndex[i]].m_OldX = g_DestlerGate[i].X;

  000fa	8b 16		 mov	 edx, DWORD PTR [esi]
  000fc	0f b7 07	 movzx	 eax, WORD PTR [edi]
  000ff	69 d2 50 2b 00
	00		 imul	 edx, 11088		; 00002b50H
  00105	8b 0d 00 00 00
	00		 mov	 ecx, DWORD PTR ?gObj@@3PAUOBJECTSTRUCT@@A ; gObj
  0010b	66 89 84 0a 78
	01 00 00	 mov	 WORD PTR [edx+ecx+376], ax

; 120  : 			gObj[this->m_BattleData.GateIndex[i]].m_OldY = g_DestlerGate[i].Y;

  00113	8b 16		 mov	 edx, DWORD PTR [esi]
  00115	0f b7 47 04	 movzx	 eax, WORD PTR [edi+4]
  00119	69 d2 50 2b 00
	00		 imul	 edx, 11088		; 00002b50H
  0011f	8b 0d 00 00 00
	00		 mov	 ecx, DWORD PTR ?gObj@@3PAUOBJECTSTRUCT@@A ; gObj
  00125	66 89 84 0a 7a
	01 00 00	 mov	 WORD PTR [edx+ecx+378], ax

; 121  : 			gObjSetMonster(this->m_BattleData.GateIndex[i], g_DestlerGate[i].Class);

  0012d	8b 57 fc	 mov	 edx, DWORD PTR [edi-4]
  00130	8b 06		 mov	 eax, DWORD PTR [esi]
  00132	52		 push	 edx
  00133	50		 push	 eax
  00134	e8 00 00 00 00	 call	 ?gObjSetMonster@@YAHHH@Z ; gObjSetMonster

; 122  : 			gObj[this->m_BattleData.GateIndex[i]].m_ImmuneToHarmCount = 200; // IMMUNITY FOR GATES

  00139	8b 0e		 mov	 ecx, DWORD PTR [esi]
  0013b	a1 00 00 00 00	 mov	 eax, DWORD PTR ?gObj@@3PAUOBJECTSTRUCT@@A ; gObj
  00140	69 c9 50 2b 00
	00		 imul	 ecx, 11088		; 00002b50H
  00146	ba c8 00 00 00	 mov	 edx, 200		; 000000c8H
  0014b	66 89 94 01 84
	22 00 00	 mov	 WORD PTR [ecx+eax+8836], dx

; 123  : 			gObj[this->m_BattleData.GateIndex[i]].m_ImmuneToMagicCount = 200; // IMMUNITY FOR GATES

  00153	8b 0e		 mov	 ecx, DWORD PTR [esi]
  00155	a1 00 00 00 00	 mov	 eax, DWORD PTR ?gObj@@3PAUOBJECTSTRUCT@@A ; gObj
  0015a	69 c9 50 2b 00
	00		 imul	 ecx, 11088		; 00002b50H
  00160	66 89 94 01 82
	22 00 00	 mov	 WORD PTR [ecx+eax+8834], dx

; 124  : 
; 125  : 			LogAddTD("[ IMPERIAL FORT ] [ BattleOfDestler ] Create Gate Index: %d Class: %d",
; 126  : 				this->m_BattleData.GateIndex[i], g_DestlerGate[i].Class);

  00168	8b 4f fc	 mov	 ecx, DWORD PTR [edi-4]
  0016b	8b 16		 mov	 edx, DWORD PTR [esi]
  0016d	51		 push	 ecx
  0016e	52		 push	 edx
  0016f	68 00 00 00 00	 push	 OFFSET ??_C@_0EG@ENNGPEMC@?$FL?5IMPERIAL?5FORT?5?$FN?5?$FL?5BattleOfDest@
  00174	ff 15 00 00 00
	00		 call	 DWORD PTR ?LogAddTD@@3P6AXPADZZA ; LogAddTD
  0017a	83 c4 14	 add	 esp, 20			; 00000014H
$LN3@SetState_S@2:

; 106  : 	for(int i=3;i<6;++i)

  0017d	83 c7 10	 add	 edi, 16			; 00000010H
  00180	83 c6 04	 add	 esi, 4
  00183	81 ff 64 00 00
	00		 cmp	 edi, OFFSET _g_DestlerGate+100
  00189	0f 8c 92 fe ff
	ff		 jl	 $LL4@SetState_S@2

; 127  : 		}
; 128  : 	}
; 129  : 	this->m_BattleData.Time = 60000;

  0018f	c7 43 38 60 ea
	00 00		 mov	 DWORD PTR [ebx+56], 60000 ; 0000ea60H

; 130  : 	this->m_BattleData.TickCount = GetTickCount();

  00196	ff 15 00 00 00
	00		 call	 DWORD PTR __imp__GetTickCount@0

; 131  : 	TMonsterAIGroup::DelGroupInstance(24);

  0019c	6a 18		 push	 24			; 00000018H
  0019e	89 43 3c	 mov	 DWORD PTR [ebx+60], eax
  001a1	e8 00 00 00 00	 call	 ?DelGroupInstance@TMonsterAIGroup@@SAHH@Z ; TMonsterAIGroup::DelGroupInstance

; 132  : 	TMonsterAIGroup::Init(25);

  001a6	6a 19		 push	 25			; 00000019H
  001a8	e8 00 00 00 00	 call	 ?Init@TMonsterAIGroup@@SAXH@Z ; TMonsterAIGroup::Init
  001ad	83 c4 08	 add	 esp, 8
  001b0	5f		 pop	 edi
  001b1	5e		 pop	 esi

; 133  : 	this->m_BattleData.MonsterCount = 0;

  001b2	c7 43 44 00 00
	00 00		 mov	 DWORD PTR [ebx+68], 0

; 134  : 	this->m_BattleData.CurrentAIGroup = 25;

  001b9	c7 43 48 19 00
	00 00		 mov	 DWORD PTR [ebx+72], 25	; 00000019H

; 135  : 	this->m_BattleData.CurrentState = BATTLEOFDESTLER_STATE_STANDBY2;

  001c0	c7 43 40 03 00
	00 00		 mov	 DWORD PTR [ebx+64], 3

; 136  : 	this->SendEventState();

  001c7	8b cb		 mov	 ecx, ebx
  001c9	5b		 pop	 ebx
  001ca	e9 00 00 00 00	 jmp	 ?SendEventState@CImperialBattleOfDestler@@QAEXXZ ; CImperialBattleOfDestler::SendEventState
?SetState_STANDBY2@CImperialBattleOfDestler@@QAEXXZ ENDP ; CImperialBattleOfDestler::SetState_STANDBY2
_TEXT	ENDS
PUBLIC	??_C@_0CL@KEAFHCPG@?$FL?5IMPERIAL?5FORT?5?$FN?5Create?5BOSS?5?$CFs@ ; `string'
PUBLIC	??_C@_0DM@HKCGNFAJ@?$FL?5IMPERIAL?5FORT?5?$FN?5?$FL?5BattleOfDest@ ; `string'
PUBLIC	?SetState_STANDBY3@CImperialBattleOfDestler@@QAEXXZ ; CImperialBattleOfDestler::SetState_STANDBY3
EXTRN	?FindGroupLeader@TMonsterAIGroup@@SAHH@Z:PROC	; TMonsterAIGroup::FindGroupLeader
;	COMDAT ??_C@_0CL@KEAFHCPG@?$FL?5IMPERIAL?5FORT?5?$FN?5Create?5BOSS?5?$CFs@
CONST	SEGMENT
??_C@_0CL@KEAFHCPG@?$FL?5IMPERIAL?5FORT?5?$FN?5Create?5BOSS?5?$CFs@ DB '['
	DB	' IMPERIAL FORT ] Create BOSS %s Index: %d', 00H ; `string'
CONST	ENDS
;	COMDAT ??_C@_0DM@HKCGNFAJ@?$FL?5IMPERIAL?5FORT?5?$FN?5?$FL?5BattleOfDest@
CONST	SEGMENT
??_C@_0DM@HKCGNFAJ@?$FL?5IMPERIAL?5FORT?5?$FN?5?$FL?5BattleOfDest@ DB '[ '
	DB	'IMPERIAL FORT ] [ BattleOfDestler ] State(%d) -> STANDBY3', 00H ; `string'
; Function compile flags: /Ogtp
CONST	ENDS
;	COMDAT ?SetState_STANDBY3@CImperialBattleOfDestler@@QAEXXZ
_TEXT	SEGMENT
?SetState_STANDBY3@CImperialBattleOfDestler@@QAEXXZ PROC ; CImperialBattleOfDestler::SetState_STANDBY3, COMDAT
; _this$ = ecx

; 140  : {

  00000	56		 push	 esi
  00001	8b f1		 mov	 esi, ecx

; 141  : 	LogAddC(2, "[ IMPERIAL FORT ] [ BattleOfDestler ] State(%d) -> STANDBY3", this->m_BattleData.CurrentState);

  00003	8b 46 40	 mov	 eax, DWORD PTR [esi+64]
  00006	50		 push	 eax
  00007	68 00 00 00 00	 push	 OFFSET ??_C@_0DM@HKCGNFAJ@?$FL?5IMPERIAL?5FORT?5?$FN?5?$FL?5BattleOfDest@
  0000c	6a 02		 push	 2
  0000e	ff 15 00 00 00
	00		 call	 DWORD PTR ?LogAddC@@3P6AXEPADZZA ; LogAddC

; 142  : 	this->m_BattleData.GateIndex[6] = gObjAddMonster(69);

  00014	6a 45		 push	 69			; 00000045H
  00016	e8 00 00 00 00	 call	 ?gObjAddMonster@@YAFH@Z	; gObjAddMonster
  0001b	98		 cwde
  0001c	89 46 2c	 mov	 DWORD PTR [esi+44], eax

; 143  : 	gObj[this->m_BattleData.GateIndex[6]].MapNumber = 69;

  0001f	69 c0 50 2b 00
	00		 imul	 eax, 11088		; 00002b50H
  00025	8b 0d 00 00 00
	00		 mov	 ecx, DWORD PTR ?gObj@@3PAUOBJECTSTRUCT@@A ; gObj
  0002b	c6 84 08 49 01
	00 00 45	 mov	 BYTE PTR [eax+ecx+329], 69 ; 00000045H

; 144  : 	gObj[this->m_BattleData.GateIndex[6]].X = g_DestlerGate[6].X;

  00033	8b 56 2c	 mov	 edx, DWORD PTR [esi+44]
  00036	8b 0d 00 00 00
	00		 mov	 ecx, DWORD PTR ?gObj@@3PAUOBJECTSTRUCT@@A ; gObj
  0003c	69 d2 50 2b 00
	00		 imul	 edx, 11088		; 00002b50H
  00042	b8 b4 00 00 00	 mov	 eax, 180		; 000000b4H
  00047	66 89 84 0a 44
	01 00 00	 mov	 WORD PTR [edx+ecx+324], ax

; 145  : 	gObj[this->m_BattleData.GateIndex[6]].Y = g_DestlerGate[6].Y;

  0004f	8b 56 2c	 mov	 edx, DWORD PTR [esi+44]
  00052	8b 0d 00 00 00
	00		 mov	 ecx, DWORD PTR ?gObj@@3PAUOBJECTSTRUCT@@A ; gObj
  00058	69 d2 50 2b 00
	00		 imul	 edx, 11088		; 00002b50H
  0005e	b8 4f 00 00 00	 mov	 eax, 79			; 0000004fH
  00063	66 89 84 0a 46
	01 00 00	 mov	 WORD PTR [edx+ecx+326], ax

; 146  : 	gObj[this->m_BattleData.GateIndex[6]].Dir = g_DestlerGate[6].Dir;

  0006b	8b 56 2c	 mov	 edx, DWORD PTR [esi+44]
  0006e	a1 00 00 00 00	 mov	 eax, DWORD PTR ?gObj@@3PAUOBJECTSTRUCT@@A ; gObj
  00073	69 d2 50 2b 00
	00		 imul	 edx, 11088		; 00002b50H
  00079	c6 84 02 48 01
	00 00 01	 mov	 BYTE PTR [edx+eax+328], 1

; 147  : 	gObj[this->m_BattleData.GateIndex[6]].TX = g_DestlerGate[6].X;

  00081	8b 4e 2c	 mov	 ecx, DWORD PTR [esi+44]
  00084	a1 00 00 00 00	 mov	 eax, DWORD PTR ?gObj@@3PAUOBJECTSTRUCT@@A ; gObj
  00089	69 c9 50 2b 00
	00		 imul	 ecx, 11088		; 00002b50H
  0008f	ba b4 00 00 00	 mov	 edx, 180		; 000000b4H
  00094	66 89 94 01 7c
	01 00 00	 mov	 WORD PTR [ecx+eax+380], dx

; 148  : 	gObj[this->m_BattleData.GateIndex[6]].TY = g_DestlerGate[6].Y;

  0009c	8b 4e 2c	 mov	 ecx, DWORD PTR [esi+44]
  0009f	a1 00 00 00 00	 mov	 eax, DWORD PTR ?gObj@@3PAUOBJECTSTRUCT@@A ; gObj
  000a4	69 c9 50 2b 00
	00		 imul	 ecx, 11088		; 00002b50H
  000aa	ba 4f 00 00 00	 mov	 edx, 79			; 0000004fH
  000af	66 89 94 01 7e
	01 00 00	 mov	 WORD PTR [ecx+eax+382], dx

; 149  : 	gObj[this->m_BattleData.GateIndex[6]].StartX = g_DestlerGate[6].X;

  000b7	8b 4e 2c	 mov	 ecx, DWORD PTR [esi+44]
  000ba	8b 15 00 00 00
	00		 mov	 edx, DWORD PTR ?gObj@@3PAUOBJECTSTRUCT@@A ; gObj
  000c0	69 c9 50 2b 00
	00		 imul	 ecx, 11088		; 00002b50H
  000c6	c6 84 11 76 01
	00 00 b4	 mov	 BYTE PTR [ecx+edx+374], 180 ; 000000b4H

; 150  : 	gObj[this->m_BattleData.GateIndex[6]].StartY = g_DestlerGate[6].Y;

  000ce	8b 46 2c	 mov	 eax, DWORD PTR [esi+44]
  000d1	8b 0d 00 00 00
	00		 mov	 ecx, DWORD PTR ?gObj@@3PAUOBJECTSTRUCT@@A ; gObj
  000d7	69 c0 50 2b 00
	00		 imul	 eax, 11088		; 00002b50H
  000dd	c6 84 08 77 01
	00 00 4f	 mov	 BYTE PTR [eax+ecx+375], 79 ; 0000004fH

; 151  : 	gObj[this->m_BattleData.GateIndex[6]].m_OldX = g_DestlerGate[6].X;

  000e5	8b 56 2c	 mov	 edx, DWORD PTR [esi+44]
  000e8	8b 0d 00 00 00
	00		 mov	 ecx, DWORD PTR ?gObj@@3PAUOBJECTSTRUCT@@A ; gObj
  000ee	69 d2 50 2b 00
	00		 imul	 edx, 11088		; 00002b50H
  000f4	b8 b4 00 00 00	 mov	 eax, 180		; 000000b4H
  000f9	66 89 84 0a 78
	01 00 00	 mov	 WORD PTR [edx+ecx+376], ax

; 152  : 	gObj[this->m_BattleData.GateIndex[6]].m_OldY = g_DestlerGate[6].Y;

  00101	8b 56 2c	 mov	 edx, DWORD PTR [esi+44]
  00104	8b 0d 00 00 00
	00		 mov	 ecx, DWORD PTR ?gObj@@3PAUOBJECTSTRUCT@@A ; gObj
  0010a	69 d2 50 2b 00
	00		 imul	 edx, 11088		; 00002b50H
  00110	b8 4f 00 00 00	 mov	 eax, 79			; 0000004fH
  00115	66 89 84 0a 7a
	01 00 00	 mov	 WORD PTR [edx+ecx+378], ax

; 153  : 	gObjSetMonster(this->m_BattleData.GateIndex[6], g_DestlerGate[6].Class);

  0011d	8b 56 2c	 mov	 edx, DWORD PTR [esi+44]
  00120	68 0d 02 00 00	 push	 525			; 0000020dH
  00125	52		 push	 edx
  00126	e8 00 00 00 00	 call	 ?gObjSetMonster@@YAHHH@Z ; gObjSetMonster

; 154  : 	gObj[this->m_BattleData.GateIndex[6]].m_ImmuneToHarmCount = 200; // IMMUNITY FOR GATES

  0012b	8b 46 2c	 mov	 eax, DWORD PTR [esi+44]
  0012e	8b 15 00 00 00
	00		 mov	 edx, DWORD PTR ?gObj@@3PAUOBJECTSTRUCT@@A ; gObj
  00134	69 c0 50 2b 00
	00		 imul	 eax, 11088		; 00002b50H
  0013a	b9 c8 00 00 00	 mov	 ecx, 200		; 000000c8H
  0013f	66 89 8c 10 84
	22 00 00	 mov	 WORD PTR [eax+edx+8836], cx

; 155  : 	gObj[this->m_BattleData.GateIndex[6]].m_ImmuneToMagicCount = 200; // IMMUNITY FOR GATES

  00147	8b 46 2c	 mov	 eax, DWORD PTR [esi+44]
  0014a	8b 15 00 00 00
	00		 mov	 edx, DWORD PTR ?gObj@@3PAUOBJECTSTRUCT@@A ; gObj
  00150	69 c0 50 2b 00
	00		 imul	 eax, 11088		; 00002b50H
  00156	66 89 8c 10 82
	22 00 00	 mov	 WORD PTR [eax+edx+8834], cx

; 156  : 
; 157  : 	LogAddTD("[ IMPERIAL FORT ] [ BattleOfDestler ] Create Gate Index: %d Class: %d",
; 158  : 		this->m_BattleData.GateIndex[6], g_DestlerGate[6].Class);

  0015e	8b 46 2c	 mov	 eax, DWORD PTR [esi+44]
  00161	68 0d 02 00 00	 push	 525			; 0000020dH
  00166	50		 push	 eax
  00167	68 00 00 00 00	 push	 OFFSET ??_C@_0EG@ENNGPEMC@?$FL?5IMPERIAL?5FORT?5?$FN?5?$FL?5BattleOfDest@
  0016c	ff 15 00 00 00
	00		 call	 DWORD PTR ?LogAddTD@@3P6AXPADZZA ; LogAddTD
  00172	83 c4 24	 add	 esp, 36			; 00000024H

; 159  : 
; 160  : 	this->m_BattleData.Time = 60000;

  00175	c7 46 38 60 ea
	00 00		 mov	 DWORD PTR [esi+56], 60000 ; 0000ea60H

; 161  : 	this->m_BattleData.TickCount = GetTickCount();

  0017c	ff 15 00 00 00
	00		 call	 DWORD PTR __imp__GetTickCount@0

; 162  : 	TMonsterAIGroup::DelGroupInstance(25);

  00182	6a 19		 push	 25			; 00000019H
  00184	89 46 3c	 mov	 DWORD PTR [esi+60], eax
  00187	e8 00 00 00 00	 call	 ?DelGroupInstance@TMonsterAIGroup@@SAHH@Z ; TMonsterAIGroup::DelGroupInstance

; 163  : 	TMonsterAIGroup::Init(26);

  0018c	6a 1a		 push	 26			; 0000001aH
  0018e	e8 00 00 00 00	 call	 ?Init@TMonsterAIGroup@@SAXH@Z ; TMonsterAIGroup::Init

; 164  : 	this->m_BattleData.MonsterCount = 0;
; 165  : 	this->m_BattleData.CurrentLeaderIndex = TMonsterAIGroup::FindGroupLeader(26);

  00193	6a 1a		 push	 26			; 0000001aH
  00195	c7 46 44 00 00
	00 00		 mov	 DWORD PTR [esi+68], 0
  0019c	e8 00 00 00 00	 call	 ?FindGroupLeader@TMonsterAIGroup@@SAHH@Z ; TMonsterAIGroup::FindGroupLeader

; 166  : 	LogAddTD("[ IMPERIAL FORT ] Create BOSS %s Index: %d", gObj[this->m_BattleData.CurrentLeaderIndex].Name, this->m_BattleData.CurrentLeaderIndex);

  001a1	50		 push	 eax
  001a2	89 46 10	 mov	 DWORD PTR [esi+16], eax
  001a5	69 c0 50 2b 00
	00		 imul	 eax, 11088		; 00002b50H
  001ab	8b 0d 00 00 00
	00		 mov	 ecx, DWORD PTR ?gObj@@3PAUOBJECTSTRUCT@@A ; gObj
  001b1	8d 54 08 77	 lea	 edx, DWORD PTR [eax+ecx+119]
  001b5	52		 push	 edx
  001b6	68 00 00 00 00	 push	 OFFSET ??_C@_0CL@KEAFHCPG@?$FL?5IMPERIAL?5FORT?5?$FN?5Create?5BOSS?5?$CFs@
  001bb	ff 15 00 00 00
	00		 call	 DWORD PTR ?LogAddTD@@3P6AXPADZZA ; LogAddTD
  001c1	83 c4 18	 add	 esp, 24			; 00000018H

; 167  : 	this->m_BattleData.CurrentAIGroup = 26;

  001c4	c7 46 48 1a 00
	00 00		 mov	 DWORD PTR [esi+72], 26	; 0000001aH

; 168  : 	this->m_BattleData.CurrentState = BATTLEOFDESTLER_STATE_STANDBY3;

  001cb	c7 46 40 05 00
	00 00		 mov	 DWORD PTR [esi+64], 5

; 169  : 	this->SendEventState();

  001d2	8b ce		 mov	 ecx, esi
  001d4	5e		 pop	 esi
  001d5	e9 00 00 00 00	 jmp	 ?SendEventState@CImperialBattleOfDestler@@QAEXXZ ; CImperialBattleOfDestler::SendEventState
?SetState_STANDBY3@CImperialBattleOfDestler@@QAEXXZ ENDP ; CImperialBattleOfDestler::SetState_STANDBY3
_TEXT	ENDS
PUBLIC	??_C@_0P@PLCJDIGB@Quest?5Started?$CB?$AA@	; `string'
PUBLIC	??_C@_0DK@GLFBGEPF@?$FL?5IMPERIAL?5FORT?5?$FN?5?$FL?5BattleOfDest@ ; `string'
PUBLIC	__$ArrayPad$
PUBLIC	?SetState_PHAZE1@CImperialBattleOfDestler@@QAEXXZ ; CImperialBattleOfDestler::SetState_PHAZE1
EXTRN	?MakeNoticeMsg@TNotice@@SAXPAXEPAD@Z:PROC	; TNotice::MakeNoticeMsg
EXTRN	?ChangeAIOrder@TMonsterAIGroup@@SAXHH@Z:PROC	; TMonsterAIGroup::ChangeAIOrder
;	COMDAT ??_C@_0P@PLCJDIGB@Quest?5Started?$CB?$AA@
CONST	SEGMENT
??_C@_0P@PLCJDIGB@Quest?5Started?$CB?$AA@ DB 'Quest Started!', 00H ; `string'
CONST	ENDS
;	COMDAT ??_C@_0DK@GLFBGEPF@?$FL?5IMPERIAL?5FORT?5?$FN?5?$FL?5BattleOfDest@
CONST	SEGMENT
??_C@_0DK@GLFBGEPF@?$FL?5IMPERIAL?5FORT?5?$FN?5?$FL?5BattleOfDest@ DB '[ '
	DB	'IMPERIAL FORT ] [ BattleOfDestler ] State(%d) -> PHAZE1', 00H ; `string'
; Function compile flags: /Ogtp
CONST	ENDS
;	COMDAT ?SetState_PHAZE1@CImperialBattleOfDestler@@QAEXXZ
_TEXT	SEGMENT
_pNotice$ = -276					; size = 272
__$ArrayPad$ = -4					; size = 4
?SetState_PHAZE1@CImperialBattleOfDestler@@QAEXXZ PROC	; CImperialBattleOfDestler::SetState_PHAZE1, COMDAT
; _this$ = ecx

; 173  : {

  00000	55		 push	 ebp
  00001	8b ec		 mov	 ebp, esp
  00003	81 ec 14 01 00
	00		 sub	 esp, 276		; 00000114H
  00009	a1 00 00 00 00	 mov	 eax, DWORD PTR ___security_cookie
  0000e	33 c5		 xor	 eax, ebp
  00010	89 45 fc	 mov	 DWORD PTR __$ArrayPad$[ebp], eax
  00013	56		 push	 esi
  00014	8b f1		 mov	 esi, ecx

; 174  : 	LogAddC(2, "[ IMPERIAL FORT ] [ BattleOfDestler ] State(%d) -> PHAZE1", this->m_BattleData.CurrentState);

  00016	8b 46 40	 mov	 eax, DWORD PTR [esi+64]
  00019	50		 push	 eax
  0001a	68 00 00 00 00	 push	 OFFSET ??_C@_0DK@GLFBGEPF@?$FL?5IMPERIAL?5FORT?5?$FN?5?$FL?5BattleOfDest@
  0001f	6a 02		 push	 2
  00021	ff 15 00 00 00
	00		 call	 DWORD PTR ?LogAddC@@3P6AXEPADZZA ; LogAddC

; 175  : 	gObj[this->m_BattleData.GateIndex[0]].m_ImmuneToHarmCount = 0;

  00027	8b 4e 14	 mov	 ecx, DWORD PTR [esi+20]
  0002a	a1 00 00 00 00	 mov	 eax, DWORD PTR ?gObj@@3PAUOBJECTSTRUCT@@A ; gObj
  0002f	69 c9 50 2b 00
	00		 imul	 ecx, 11088		; 00002b50H
  00035	33 d2		 xor	 edx, edx
  00037	66 89 94 01 84
	22 00 00	 mov	 WORD PTR [ecx+eax+8836], dx

; 176  : 	gObj[this->m_BattleData.GateIndex[0]].m_ImmuneToMagicCount = 0; // REMOVE IMMUNITY

  0003f	8b 4e 14	 mov	 ecx, DWORD PTR [esi+20]
  00042	a1 00 00 00 00	 mov	 eax, DWORD PTR ?gObj@@3PAUOBJECTSTRUCT@@A ; gObj
  00047	69 c9 50 2b 00
	00		 imul	 ecx, 11088		; 00002b50H
  0004d	66 89 94 01 82
	22 00 00	 mov	 WORD PTR [ecx+eax+8834], dx
  00055	83 c4 0c	 add	 esp, 12			; 0000000cH

; 177  : 	this->m_BattleData.Time = 600000;

  00058	c7 46 38 c0 27
	09 00		 mov	 DWORD PTR [esi+56], 600000 ; 000927c0H

; 178  : 	this->m_BattleData.TickCount = GetTickCount();

  0005f	ff 15 00 00 00
	00		 call	 DWORD PTR __imp__GetTickCount@0

; 179  : 	TMonsterAIGroup::ChangeAIOrder(24, 1);

  00065	6a 01		 push	 1
  00067	6a 18		 push	 24			; 00000018H
  00069	89 46 3c	 mov	 DWORD PTR [esi+60], eax
  0006c	e8 00 00 00 00	 call	 ?ChangeAIOrder@TMonsterAIGroup@@SAXHH@Z ; TMonsterAIGroup::ChangeAIOrder

; 180  : 	this->m_BattleData.MonsterCount = TMonsterAIGroup::s_iMonsterAIGroupMemberCount[24];

  00071	8b 0d 60 00 00
	00		 mov	 ecx, DWORD PTR ?s_iMonsterAIGroupMemberCount@TMonsterAIGroup@@2PAHA+96

; 181  : 	this->m_BattleData.PhazeStep = 0;
; 182  : 	this->m_BattleData.NotifyCount = -1;
; 183  : 	PMSG_NOTICE pNotice;
; 184  : 	TNotice::MakeNoticeMsg(&pNotice, 0, "Quest Started!");

  00077	68 00 00 00 00	 push	 OFFSET ??_C@_0P@PLCJDIGB@Quest?5Started?$CB?$AA@
  0007c	8d 95 ec fe ff
	ff		 lea	 edx, DWORD PTR _pNotice$[ebp]
  00082	6a 00		 push	 0
  00084	52		 push	 edx
  00085	89 4e 44	 mov	 DWORD PTR [esi+68], ecx
  00088	c7 46 50 00 00
	00 00		 mov	 DWORD PTR [esi+80], 0
  0008f	c6 46 54 ff	 mov	 BYTE PTR [esi+84], 255	; 000000ffH
  00093	e8 00 00 00 00	 call	 ?MakeNoticeMsg@TNotice@@SAXPAXEPAD@Z ; TNotice::MakeNoticeMsg

; 185  : 	this->SendImperialPlayers((LPBYTE)&pNotice, pNotice.h.size);

  00098	0f b6 85 ed fe
	ff ff		 movzx	 eax, BYTE PTR _pNotice$[ebp+1]
  0009f	83 c4 14	 add	 esp, 20			; 00000014H
  000a2	50		 push	 eax
  000a3	8d 8d ec fe ff
	ff		 lea	 ecx, DWORD PTR _pNotice$[ebp]
  000a9	51		 push	 ecx
  000aa	8b ce		 mov	 ecx, esi
  000ac	e8 00 00 00 00	 call	 ?SendImperialPlayers@CImperialBattleOfDestler@@QAEXPAEH@Z ; CImperialBattleOfDestler::SendImperialPlayers

; 186  : 	this->m_BattleData.CurrentState = BATTLEOFDESTLER_STATE_PHAZE1;
; 187  : }

  000b1	8b 4d fc	 mov	 ecx, DWORD PTR __$ArrayPad$[ebp]
  000b4	c7 46 40 02 00
	00 00		 mov	 DWORD PTR [esi+64], 2
  000bb	33 cd		 xor	 ecx, ebp
  000bd	5e		 pop	 esi
  000be	e8 00 00 00 00	 call	 @__security_check_cookie@4
  000c3	8b e5		 mov	 esp, ebp
  000c5	5d		 pop	 ebp
  000c6	c3		 ret	 0
?SetState_PHAZE1@CImperialBattleOfDestler@@QAEXXZ ENDP	; CImperialBattleOfDestler::SetState_PHAZE1
_TEXT	ENDS
PUBLIC	??_C@_0DK@EAHMDHDG@?$FL?5IMPERIAL?5FORT?5?$FN?5?$FL?5BattleOfDest@ ; `string'
PUBLIC	__$ArrayPad$
PUBLIC	?SetState_PHAZE2@CImperialBattleOfDestler@@QAEXXZ ; CImperialBattleOfDestler::SetState_PHAZE2
;	COMDAT ??_C@_0DK@EAHMDHDG@?$FL?5IMPERIAL?5FORT?5?$FN?5?$FL?5BattleOfDest@
CONST	SEGMENT
??_C@_0DK@EAHMDHDG@?$FL?5IMPERIAL?5FORT?5?$FN?5?$FL?5BattleOfDest@ DB '[ '
	DB	'IMPERIAL FORT ] [ BattleOfDestler ] State(%d) -> PHAZE2', 00H ; `string'
; Function compile flags: /Ogtp
CONST	ENDS
;	COMDAT ?SetState_PHAZE2@CImperialBattleOfDestler@@QAEXXZ
_TEXT	SEGMENT
_pNotice$ = -276					; size = 272
__$ArrayPad$ = -4					; size = 4
?SetState_PHAZE2@CImperialBattleOfDestler@@QAEXXZ PROC	; CImperialBattleOfDestler::SetState_PHAZE2, COMDAT
; _this$ = ecx

; 190  : {

  00000	55		 push	 ebp
  00001	8b ec		 mov	 ebp, esp
  00003	81 ec 14 01 00
	00		 sub	 esp, 276		; 00000114H
  00009	a1 00 00 00 00	 mov	 eax, DWORD PTR ___security_cookie
  0000e	33 c5		 xor	 eax, ebp
  00010	89 45 fc	 mov	 DWORD PTR __$ArrayPad$[ebp], eax
  00013	56		 push	 esi
  00014	8b f1		 mov	 esi, ecx

; 191  : 	LogAddC(2, "[ IMPERIAL FORT ] [ BattleOfDestler ] State(%d) -> PHAZE2", this->m_BattleData.CurrentState);

  00016	8b 46 40	 mov	 eax, DWORD PTR [esi+64]
  00019	50		 push	 eax
  0001a	68 00 00 00 00	 push	 OFFSET ??_C@_0DK@EAHMDHDG@?$FL?5IMPERIAL?5FORT?5?$FN?5?$FL?5BattleOfDest@
  0001f	6a 02		 push	 2
  00021	ff 15 00 00 00
	00		 call	 DWORD PTR ?LogAddC@@3P6AXEPADZZA ; LogAddC

; 192  : 	gObj[this->m_BattleData.GateIndex[3]].m_ImmuneToHarmCount = 0;

  00027	8b 4e 20	 mov	 ecx, DWORD PTR [esi+32]
  0002a	a1 00 00 00 00	 mov	 eax, DWORD PTR ?gObj@@3PAUOBJECTSTRUCT@@A ; gObj
  0002f	69 c9 50 2b 00
	00		 imul	 ecx, 11088		; 00002b50H
  00035	33 d2		 xor	 edx, edx
  00037	66 89 94 01 84
	22 00 00	 mov	 WORD PTR [ecx+eax+8836], dx

; 193  : 	gObj[this->m_BattleData.GateIndex[3]].m_ImmuneToMagicCount = 0; // REMOVE IMMUNITY

  0003f	8b 4e 20	 mov	 ecx, DWORD PTR [esi+32]
  00042	a1 00 00 00 00	 mov	 eax, DWORD PTR ?gObj@@3PAUOBJECTSTRUCT@@A ; gObj
  00047	69 c9 50 2b 00
	00		 imul	 ecx, 11088		; 00002b50H
  0004d	66 89 94 01 82
	22 00 00	 mov	 WORD PTR [ecx+eax+8834], dx
  00055	83 c4 0c	 add	 esp, 12			; 0000000cH

; 194  : 	this->m_BattleData.Time = 600000;

  00058	c7 46 38 c0 27
	09 00		 mov	 DWORD PTR [esi+56], 600000 ; 000927c0H

; 195  : 	this->m_BattleData.TickCount = GetTickCount();

  0005f	ff 15 00 00 00
	00		 call	 DWORD PTR __imp__GetTickCount@0

; 196  : 	TMonsterAIGroup::ChangeAIOrder(25, 1);

  00065	6a 01		 push	 1
  00067	6a 19		 push	 25			; 00000019H
  00069	89 46 3c	 mov	 DWORD PTR [esi+60], eax
  0006c	e8 00 00 00 00	 call	 ?ChangeAIOrder@TMonsterAIGroup@@SAXHH@Z ; TMonsterAIGroup::ChangeAIOrder

; 197  : 	this->m_BattleData.MonsterCount = TMonsterAIGroup::s_iMonsterAIGroupMemberCount[25];

  00071	8b 0d 64 00 00
	00		 mov	 ecx, DWORD PTR ?s_iMonsterAIGroupMemberCount@TMonsterAIGroup@@2PAHA+100

; 198  : 	this->m_BattleData.PhazeStep = 0;
; 199  : 	this->m_BattleData.NotifyCount = -1;
; 200  : 	PMSG_NOTICE pNotice;
; 201  : 	TNotice::MakeNoticeMsg(&pNotice, 0, "Quest Started!");

  00077	68 00 00 00 00	 push	 OFFSET ??_C@_0P@PLCJDIGB@Quest?5Started?$CB?$AA@
  0007c	8d 95 ec fe ff
	ff		 lea	 edx, DWORD PTR _pNotice$[ebp]
  00082	6a 00		 push	 0
  00084	52		 push	 edx
  00085	89 4e 44	 mov	 DWORD PTR [esi+68], ecx
  00088	c7 46 50 00 00
	00 00		 mov	 DWORD PTR [esi+80], 0
  0008f	c6 46 54 ff	 mov	 BYTE PTR [esi+84], 255	; 000000ffH
  00093	e8 00 00 00 00	 call	 ?MakeNoticeMsg@TNotice@@SAXPAXEPAD@Z ; TNotice::MakeNoticeMsg

; 202  : 	this->SendImperialPlayers((LPBYTE)&pNotice, pNotice.h.size);

  00098	0f b6 85 ed fe
	ff ff		 movzx	 eax, BYTE PTR _pNotice$[ebp+1]
  0009f	83 c4 14	 add	 esp, 20			; 00000014H
  000a2	50		 push	 eax
  000a3	8d 8d ec fe ff
	ff		 lea	 ecx, DWORD PTR _pNotice$[ebp]
  000a9	51		 push	 ecx
  000aa	8b ce		 mov	 ecx, esi
  000ac	e8 00 00 00 00	 call	 ?SendImperialPlayers@CImperialBattleOfDestler@@QAEXPAEH@Z ; CImperialBattleOfDestler::SendImperialPlayers

; 203  : 	this->m_BattleData.CurrentState = BATTLEOFDESTLER_STATE_PHAZE2;
; 204  : }

  000b1	8b 4d fc	 mov	 ecx, DWORD PTR __$ArrayPad$[ebp]
  000b4	c7 46 40 04 00
	00 00		 mov	 DWORD PTR [esi+64], 4
  000bb	33 cd		 xor	 ecx, ebp
  000bd	5e		 pop	 esi
  000be	e8 00 00 00 00	 call	 @__security_check_cookie@4
  000c3	8b e5		 mov	 esp, ebp
  000c5	5d		 pop	 ebp
  000c6	c3		 ret	 0
?SetState_PHAZE2@CImperialBattleOfDestler@@QAEXXZ ENDP	; CImperialBattleOfDestler::SetState_PHAZE2
_TEXT	ENDS
PUBLIC	??_C@_0DK@FJGHAGHH@?$FL?5IMPERIAL?5FORT?5?$FN?5?$FL?5BattleOfDest@ ; `string'
PUBLIC	__$ArrayPad$
PUBLIC	?SetState_PHAZE3@CImperialBattleOfDestler@@QAEXXZ ; CImperialBattleOfDestler::SetState_PHAZE3
;	COMDAT ??_C@_0DK@FJGHAGHH@?$FL?5IMPERIAL?5FORT?5?$FN?5?$FL?5BattleOfDest@
CONST	SEGMENT
??_C@_0DK@FJGHAGHH@?$FL?5IMPERIAL?5FORT?5?$FN?5?$FL?5BattleOfDest@ DB '[ '
	DB	'IMPERIAL FORT ] [ BattleOfDestler ] State(%d) -> PHAZE3', 00H ; `string'
; Function compile flags: /Ogtp
CONST	ENDS
;	COMDAT ?SetState_PHAZE3@CImperialBattleOfDestler@@QAEXXZ
_TEXT	SEGMENT
_pNotice$ = -276					; size = 272
__$ArrayPad$ = -4					; size = 4
?SetState_PHAZE3@CImperialBattleOfDestler@@QAEXXZ PROC	; CImperialBattleOfDestler::SetState_PHAZE3, COMDAT
; _this$ = ecx

; 207  : {

  00000	55		 push	 ebp
  00001	8b ec		 mov	 ebp, esp
  00003	81 ec 14 01 00
	00		 sub	 esp, 276		; 00000114H
  00009	a1 00 00 00 00	 mov	 eax, DWORD PTR ___security_cookie
  0000e	33 c5		 xor	 eax, ebp
  00010	89 45 fc	 mov	 DWORD PTR __$ArrayPad$[ebp], eax
  00013	56		 push	 esi
  00014	8b f1		 mov	 esi, ecx

; 208  : 	LogAddC(2, "[ IMPERIAL FORT ] [ BattleOfDestler ] State(%d) -> PHAZE3", this->m_BattleData.CurrentState);

  00016	8b 46 40	 mov	 eax, DWORD PTR [esi+64]
  00019	50		 push	 eax
  0001a	68 00 00 00 00	 push	 OFFSET ??_C@_0DK@FJGHAGHH@?$FL?5IMPERIAL?5FORT?5?$FN?5?$FL?5BattleOfDest@
  0001f	6a 02		 push	 2
  00021	ff 15 00 00 00
	00		 call	 DWORD PTR ?LogAddC@@3P6AXEPADZZA ; LogAddC

; 209  : 	gObj[this->m_BattleData.GateIndex[6]].m_ImmuneToHarmCount = 0;

  00027	8b 4e 2c	 mov	 ecx, DWORD PTR [esi+44]
  0002a	a1 00 00 00 00	 mov	 eax, DWORD PTR ?gObj@@3PAUOBJECTSTRUCT@@A ; gObj
  0002f	69 c9 50 2b 00
	00		 imul	 ecx, 11088		; 00002b50H
  00035	33 d2		 xor	 edx, edx
  00037	66 89 94 01 84
	22 00 00	 mov	 WORD PTR [ecx+eax+8836], dx

; 210  : 	gObj[this->m_BattleData.GateIndex[6]].m_ImmuneToMagicCount = 0; // REMOVE IMMUNITY

  0003f	8b 4e 2c	 mov	 ecx, DWORD PTR [esi+44]
  00042	a1 00 00 00 00	 mov	 eax, DWORD PTR ?gObj@@3PAUOBJECTSTRUCT@@A ; gObj
  00047	69 c9 50 2b 00
	00		 imul	 ecx, 11088		; 00002b50H
  0004d	66 89 94 01 82
	22 00 00	 mov	 WORD PTR [ecx+eax+8834], dx
  00055	83 c4 0c	 add	 esp, 12			; 0000000cH

; 211  : 	this->m_BattleData.Time = 600000;

  00058	c7 46 38 c0 27
	09 00		 mov	 DWORD PTR [esi+56], 600000 ; 000927c0H

; 212  : 	this->m_BattleData.TickCount = GetTickCount();

  0005f	ff 15 00 00 00
	00		 call	 DWORD PTR __imp__GetTickCount@0

; 213  : 	TMonsterAIGroup::ChangeAIOrder(26, 1);

  00065	6a 01		 push	 1
  00067	6a 1a		 push	 26			; 0000001aH
  00069	89 46 3c	 mov	 DWORD PTR [esi+60], eax
  0006c	e8 00 00 00 00	 call	 ?ChangeAIOrder@TMonsterAIGroup@@SAXHH@Z ; TMonsterAIGroup::ChangeAIOrder

; 214  : 	this->m_BattleData.MonsterCount = TMonsterAIGroup::s_iMonsterAIGroupMemberCount[26];

  00071	8b 0d 68 00 00
	00		 mov	 ecx, DWORD PTR ?s_iMonsterAIGroupMemberCount@TMonsterAIGroup@@2PAHA+104

; 215  : 	this->m_BattleData.PhazeStep = 0;
; 216  : 	this->m_BattleData.NotifyCount = -1;
; 217  : 	PMSG_NOTICE pNotice;
; 218  : 	TNotice::MakeNoticeMsg(&pNotice, 0, "Quest Started!");

  00077	68 00 00 00 00	 push	 OFFSET ??_C@_0P@PLCJDIGB@Quest?5Started?$CB?$AA@
  0007c	8d 95 ec fe ff
	ff		 lea	 edx, DWORD PTR _pNotice$[ebp]
  00082	6a 00		 push	 0
  00084	52		 push	 edx
  00085	89 4e 44	 mov	 DWORD PTR [esi+68], ecx
  00088	c7 46 50 00 00
	00 00		 mov	 DWORD PTR [esi+80], 0
  0008f	c6 46 54 ff	 mov	 BYTE PTR [esi+84], 255	; 000000ffH
  00093	e8 00 00 00 00	 call	 ?MakeNoticeMsg@TNotice@@SAXPAXEPAD@Z ; TNotice::MakeNoticeMsg

; 219  : 	this->SendImperialPlayers((LPBYTE)&pNotice, pNotice.h.size);

  00098	0f b6 85 ed fe
	ff ff		 movzx	 eax, BYTE PTR _pNotice$[ebp+1]
  0009f	83 c4 14	 add	 esp, 20			; 00000014H
  000a2	50		 push	 eax
  000a3	8d 8d ec fe ff
	ff		 lea	 ecx, DWORD PTR _pNotice$[ebp]
  000a9	51		 push	 ecx
  000aa	8b ce		 mov	 ecx, esi
  000ac	e8 00 00 00 00	 call	 ?SendImperialPlayers@CImperialBattleOfDestler@@QAEXPAEH@Z ; CImperialBattleOfDestler::SendImperialPlayers

; 220  : 	this->m_BattleData.CurrentState = BATTLEOFDESTLER_STATE_PHAZE3;
; 221  : }

  000b1	8b 4d fc	 mov	 ecx, DWORD PTR __$ArrayPad$[ebp]
  000b4	c7 46 40 06 00
	00 00		 mov	 DWORD PTR [esi+64], 6
  000bb	33 cd		 xor	 ecx, ebp
  000bd	5e		 pop	 esi
  000be	e8 00 00 00 00	 call	 @__security_check_cookie@4
  000c3	8b e5		 mov	 esp, ebp
  000c5	5d		 pop	 ebp
  000c6	c3		 ret	 0
?SetState_PHAZE3@CImperialBattleOfDestler@@QAEXXZ ENDP	; CImperialBattleOfDestler::SetState_PHAZE3
_TEXT	ENDS
PUBLIC	??_C@_0CH@LFMFLPDA@Portal?5will?5be?5closed?5after?5?$CFd?5m@ ; `string'
PUBLIC	__$ArrayPad$
PUBLIC	?ProcState_PHAZE1@CImperialBattleOfDestler@@QAEXXZ ; CImperialBattleOfDestler::ProcState_PHAZE1
EXTRN	?MakeNoticeMsgEx@TNotice@@SAXPAXEPADZZ:PROC	; TNotice::MakeNoticeMsgEx
EXTRN	?gObjAttack@@YAHPAUOBJECTSTRUCT@@0PAVCMagicInf@@HEHHEE@Z:PROC ; gObjAttack
;	COMDAT ??_C@_0CH@LFMFLPDA@Portal?5will?5be?5closed?5after?5?$CFd?5m@
; File e:\work\tranet_version\gs\gameserver\imperialbattleuser.h
CONST	SEGMENT
??_C@_0CH@LFMFLPDA@Portal?5will?5be?5closed?5after?5?$CFd?5m@ DB 'Portal '
	DB	'will be closed after %d minutes', 00H	; `string'
; Function compile flags: /Ogtp
; File e:\work\tranet_version\gs\gameserver\imperialbattleofdestler.cpp
CONST	ENDS
;	COMDAT ?ProcState_PHAZE1@CImperialBattleOfDestler@@QAEXXZ
_TEXT	SEGMENT
_n$204266 = -284					; size = 4
tv564 = -280						; size = 4
_pNotice$204272 = -276					; size = 272
__$ArrayPad$ = -4					; size = 4
?ProcState_PHAZE1@CImperialBattleOfDestler@@QAEXXZ PROC	; CImperialBattleOfDestler::ProcState_PHAZE1, COMDAT
; _this$ = ecx

; 283  : {

  00000	55		 push	 ebp
  00001	8b ec		 mov	 ebp, esp
  00003	81 ec 1c 01 00
	00		 sub	 esp, 284		; 0000011cH
  00009	a1 00 00 00 00	 mov	 eax, DWORD PTR ___security_cookie
  0000e	33 c5		 xor	 eax, ebp
  00010	89 45 fc	 mov	 DWORD PTR __$ArrayPad$[ebp], eax
  00013	56		 push	 esi
  00014	57		 push	 edi

; 284  : 	int Tick = GetTickCount() - this->m_BattleData.TickCount;

  00015	8b 3d 00 00 00
	00		 mov	 edi, DWORD PTR __imp__GetTickCount@0
  0001b	8b f1		 mov	 esi, ecx
  0001d	ff d7		 call	 edi
  0001f	2b 46 3c	 sub	 eax, DWORD PTR [esi+60]

; 285  : 	if(Tick >= 1000)

  00022	3d e8 03 00 00	 cmp	 eax, 1000		; 000003e8H
  00027	0f 8c 3a 02 00
	00		 jl	 $LN1@ProcState_

; 286  : 	{
; 287  : 		this->m_BattleData.Time -= Tick;

  0002d	29 46 38	 sub	 DWORD PTR [esi+56], eax

; 288  : 		this->m_BattleData.TickCount = GetTickCount();

  00030	ff d7		 call	 edi

; 289  : 
; 290  : 		this->SendEventInterface();

  00032	8b ce		 mov	 ecx, esi
  00034	89 46 3c	 mov	 DWORD PTR [esi+60], eax
  00037	e8 00 00 00 00	 call	 ?SendEventInterface@CImperialBattleOfDestler@@QAEXXZ ; CImperialBattleOfDestler::SendEventInterface

; 291  : 		this->MonsterProc();

  0003c	8b ce		 mov	 ecx, esi
  0003e	e8 00 00 00 00	 call	 ?MonsterProc@CImperialBattleOfDestler@@QAEXXZ ; CImperialBattleOfDestler::MonsterProc
  00043	c7 85 e8 fe ff
	ff 00 00 00 00	 mov	 DWORD PTR tv564[ebp], 0
  0004d	53		 push	 ebx
  0004e	8b ff		 npad	 2
$LL33@ProcState_:

; 294  : 		{
; 295  : 			for(int n=0;n<g_ImperialBattleUserMng.GetUserCount();++n)

  00050	b9 00 00 00 00	 mov	 ecx, OFFSET ?g_ImperialBattleUserMng@@3VCImperialBattleUserMng@@A ; g_ImperialBattleUserMng
  00055	c7 85 e4 fe ff
	ff 00 00 00 00	 mov	 DWORD PTR _n$204266[ebp], 0
  0005f	e8 00 00 00 00	 call	 ?GetUserCount@CImperialBattleUserMng@@QAEHXZ ; CImperialBattleUserMng::GetUserCount
  00064	85 c0		 test	 eax, eax
  00066	0f 8e 9e 00 00
	00		 jle	 $LN11@ProcState_
  0006c	bf 08 00 00 00	 mov	 edi, OFFSET ?g_ImperialBattleUserMng@@3VCImperialBattleUserMng@@A+8
$LL30@ProcState_:

; 296  : 			{
; 297  : 
; 298  : 				if(gObj[g_ImperialBattleUserMng.m_BattleUser[n].GetIndex()].X >= g_DestlerTrap[i].X-5 && gObj[g_ImperialBattleUserMng.m_BattleUser[n].GetIndex()].X <= g_DestlerTrap[i].X+5
; 299  : 					&& gObj[g_ImperialBattleUserMng.m_BattleUser[n].GetIndex()].Y >= g_DestlerTrap[i].Y-5 && gObj[g_ImperialBattleUserMng.m_BattleUser[n].GetIndex()].Y <= g_DestlerTrap[i].Y+5)

  00071	8b 07		 mov	 eax, DWORD PTR [edi]
  00073	8b 95 e8 fe ff
	ff		 mov	 edx, DWORD PTR tv564[ebp]
  00079	69 c0 50 2b 00
	00		 imul	 eax, 11088		; 00002b50H
  0007f	03 05 00 00 00
	00		 add	 eax, DWORD PTR ?gObj@@3PAUOBJECTSTRUCT@@A ; gObj
  00085	8b 92 00 00 00
	00		 mov	 edx, DWORD PTR _g_DestlerTrap[edx]
  0008b	0f bf 88 44 01
	00 00		 movsx	 ecx, WORD PTR [eax+324]
  00092	8d 5a fb	 lea	 ebx, DWORD PTR [edx-5]
  00095	3b cb		 cmp	 ecx, ebx
  00097	7c 4f		 jl	 SHORT $LN8@ProcState_
  00099	83 c2 05	 add	 edx, 5
  0009c	3b ca		 cmp	 ecx, edx
  0009e	7f 48		 jg	 SHORT $LN8@ProcState_
  000a0	8b 95 e8 fe ff
	ff		 mov	 edx, DWORD PTR tv564[ebp]
  000a6	0f bf 88 46 01
	00 00		 movsx	 ecx, WORD PTR [eax+326]
  000ad	8b 92 04 00 00
	00		 mov	 edx, DWORD PTR _g_DestlerTrap[edx+4]
  000b3	8d 5a fb	 lea	 ebx, DWORD PTR [edx-5]
  000b6	3b cb		 cmp	 ecx, ebx
  000b8	7c 2e		 jl	 SHORT $LN8@ProcState_
  000ba	83 c2 05	 add	 edx, 5
  000bd	3b ca		 cmp	 ecx, edx
  000bf	7f 27		 jg	 SHORT $LN8@ProcState_

; 300  : 				{
; 301  : 					gObjAttack(&gObj[this->m_BattleData.TrapIndex], &gObj[g_ImperialBattleUserMng.m_BattleUser[n].GetIndex()], NULL, 0, 0, 0, 0,0,0);

  000c1	6a 00		 push	 0
  000c3	6a 00		 push	 0
  000c5	6a 00		 push	 0
  000c7	6a 00		 push	 0
  000c9	6a 00		 push	 0
  000cb	6a 00		 push	 0
  000cd	6a 00		 push	 0
  000cf	50		 push	 eax
  000d0	8b 46 4c	 mov	 eax, DWORD PTR [esi+76]
  000d3	69 c0 50 2b 00
	00		 imul	 eax, 11088		; 00002b50H
  000d9	03 05 00 00 00
	00		 add	 eax, DWORD PTR ?gObj@@3PAUOBJECTSTRUCT@@A ; gObj
  000df	50		 push	 eax
  000e0	e8 00 00 00 00	 call	 ?gObjAttack@@YAHPAUOBJECTSTRUCT@@0PAVCMagicInf@@HEHHEE@Z ; gObjAttack
  000e5	83 c4 24	 add	 esp, 36			; 00000024H
$LN8@ProcState_:

; 294  : 		{
; 295  : 			for(int n=0;n<g_ImperialBattleUserMng.GetUserCount();++n)

  000e8	8b 9d e4 fe ff
	ff		 mov	 ebx, DWORD PTR _n$204266[ebp]
  000ee	43		 inc	 ebx
  000ef	b9 00 00 00 00	 mov	 ecx, OFFSET ?g_ImperialBattleUserMng@@3VCImperialBattleUserMng@@A ; g_ImperialBattleUserMng
  000f4	89 9d e4 fe ff
	ff		 mov	 DWORD PTR _n$204266[ebp], ebx
  000fa	83 c7 0c	 add	 edi, 12			; 0000000cH
  000fd	e8 00 00 00 00	 call	 ?GetUserCount@CImperialBattleUserMng@@QAEHXZ ; CImperialBattleUserMng::GetUserCount
  00102	3b d8		 cmp	 ebx, eax
  00104	0f 8c 67 ff ff
	ff		 jl	 $LL30@ProcState_
$LN11@ProcState_:

; 292  : 
; 293  : 		for(int i=0;i<12;++i)

  0010a	8b 85 e8 fe ff
	ff		 mov	 eax, DWORD PTR tv564[ebp]
  00110	83 c0 08	 add	 eax, 8
  00113	89 85 e8 fe ff
	ff		 mov	 DWORD PTR tv564[ebp], eax
  00119	83 f8 60	 cmp	 eax, 96			; 00000060H
  0011c	0f 8c 2e ff ff
	ff		 jl	 $LL33@ProcState_

; 302  : 				}
; 303  : 			}
; 304  : 		}
; 305  : 
; 306  : 		if(this->m_BattleData.Time > 0 && (this->m_BattleData.Time/60000) !=this->m_BattleData.NotifyCount)

  00122	8b 4e 38	 mov	 ecx, DWORD PTR [esi+56]
  00125	5b		 pop	 ebx
  00126	85 c9		 test	 ecx, ecx
  00128	7e 55		 jle	 SHORT $LN32@ProcState_
  0012a	b8 73 b2 e7 45	 mov	 eax, 1172812403		; 45e7b273H
  0012f	f7 e9		 imul	 ecx
  00131	0f b6 4e 54	 movzx	 ecx, BYTE PTR [esi+84]
  00135	c1 fa 0e	 sar	 edx, 14			; 0000000eH
  00138	8b c2		 mov	 eax, edx
  0013a	c1 e8 1f	 shr	 eax, 31			; 0000001fH
  0013d	03 c2		 add	 eax, edx
  0013f	3b c1		 cmp	 eax, ecx
  00141	74 3c		 je	 SHORT $LN32@ProcState_

; 307  : 		{
; 308  : 			this->m_BattleData.NotifyCount = this->m_BattleData.Time / 60000;
; 309  : 			PMSG_NOTICE pNotice;
; 310  : 			TNotice::MakeNoticeMsgEx(&pNotice, 0, "Portal will be closed after %d minutes", this->m_BattleData.NotifyCount+1);

  00143	0f b6 d0	 movzx	 edx, al
  00146	bf 01 00 00 00	 mov	 edi, 1
  0014b	03 d7		 add	 edx, edi
  0014d	52		 push	 edx
  0014e	68 00 00 00 00	 push	 OFFSET ??_C@_0CH@LFMFLPDA@Portal?5will?5be?5closed?5after?5?$CFd?5m@
  00153	88 46 54	 mov	 BYTE PTR [esi+84], al
  00156	8d 85 ec fe ff
	ff		 lea	 eax, DWORD PTR _pNotice$204272[ebp]
  0015c	6a 00		 push	 0
  0015e	50		 push	 eax
  0015f	e8 00 00 00 00	 call	 ?MakeNoticeMsgEx@TNotice@@SAXPAXEPADZZ ; TNotice::MakeNoticeMsgEx

; 311  : 			this->SendImperialPlayers((LPBYTE)&pNotice, pNotice.h.size);

  00164	0f b6 8d ed fe
	ff ff		 movzx	 ecx, BYTE PTR _pNotice$204272[ebp+1]
  0016b	83 c4 10	 add	 esp, 16			; 00000010H
  0016e	51		 push	 ecx
  0016f	8d 95 ec fe ff
	ff		 lea	 edx, DWORD PTR _pNotice$204272[ebp]
  00175	52		 push	 edx
  00176	8b ce		 mov	 ecx, esi
  00178	e8 00 00 00 00	 call	 ?SendImperialPlayers@CImperialBattleOfDestler@@QAEXPAEH@Z ; CImperialBattleOfDestler::SendImperialPlayers
  0017d	eb 05		 jmp	 SHORT $LN5@ProcState_
$LN32@ProcState_:
  0017f	bf 01 00 00 00	 mov	 edi, 1
$LN5@ProcState_:

; 312  : 		}
; 313  : 
; 314  : 		if(gObj[this->m_BattleData.GateIndex[0]].Live == false && this->m_BattleData.PhazeStep == 0)

  00184	8b 4e 14	 mov	 ecx, DWORD PTR [esi+20]
  00187	a1 00 00 00 00	 mov	 eax, DWORD PTR ?gObj@@3PAUOBJECTSTRUCT@@A ; gObj
  0018c	69 c9 50 2b 00
	00		 imul	 ecx, 11088		; 00002b50H
  00192	80 7c 01 6a 00	 cmp	 BYTE PTR [ecx+eax+106], 0
  00197	75 17		 jne	 SHORT $LN4@ProcState_
  00199	83 7e 50 00	 cmp	 DWORD PTR [esi+80], 0
  0019d	75 11		 jne	 SHORT $LN4@ProcState_

; 315  : 		{
; 316  : 			this->SetMapAttr(0);

  0019f	6a 00		 push	 0
  001a1	8b ce		 mov	 ecx, esi
  001a3	e8 00 00 00 00	 call	 ?SetMapAttr@CImperialBattleOfDestler@@QAEXH@Z ; CImperialBattleOfDestler::SetMapAttr

; 317  : 			this->m_BattleData.PhazeStep++;

  001a8	01 7e 50	 add	 DWORD PTR [esi+80], edi
  001ab	a1 00 00 00 00	 mov	 eax, DWORD PTR ?gObj@@3PAUOBJECTSTRUCT@@A ; gObj
$LN4@ProcState_:

; 318  : 		}
; 319  : 
; 320  : 		if(this->m_BattleData.MonsterCount <= 0 && this->m_BattleData.PhazeStep == 1)

  001b0	83 7e 44 00	 cmp	 DWORD PTR [esi+68], 0
  001b4	7f 39		 jg	 SHORT $LN3@ProcState_
  001b6	39 7e 50	 cmp	 DWORD PTR [esi+80], edi
  001b9	75 34		 jne	 SHORT $LN3@ProcState_

; 321  : 		{
; 322  : 			gObj[this->m_BattleData.GateIndex[1]].m_ImmuneToHarmCount = 0;

  001bb	8b 56 18	 mov	 edx, DWORD PTR [esi+24]
  001be	69 d2 50 2b 00
	00		 imul	 edx, 11088		; 00002b50H
  001c4	33 c9		 xor	 ecx, ecx
  001c6	66 89 8c 02 84
	22 00 00	 mov	 WORD PTR [edx+eax+8836], cx

; 323  : 			gObj[this->m_BattleData.GateIndex[1]].m_ImmuneToMagicCount = 0;

  001ce	8b 56 18	 mov	 edx, DWORD PTR [esi+24]
  001d1	8b 0d 00 00 00
	00		 mov	 ecx, DWORD PTR ?gObj@@3PAUOBJECTSTRUCT@@A ; gObj
  001d7	69 d2 50 2b 00
	00		 imul	 edx, 11088		; 00002b50H
  001dd	33 c0		 xor	 eax, eax
  001df	66 89 84 0a 82
	22 00 00	 mov	 WORD PTR [edx+ecx+8834], ax

; 324  : 			this->m_BattleData.PhazeStep++;

  001e7	01 7e 50	 add	 DWORD PTR [esi+80], edi
  001ea	a1 00 00 00 00	 mov	 eax, DWORD PTR ?gObj@@3PAUOBJECTSTRUCT@@A ; gObj
$LN3@ProcState_:

; 325  : 		}
; 326  : 		if(gObj[this->m_BattleData.GateIndex[1]].Live == false && this->m_BattleData.PhazeStep == 2)

  001ef	8b 56 18	 mov	 edx, DWORD PTR [esi+24]
  001f2	69 d2 50 2b 00
	00		 imul	 edx, 11088		; 00002b50H
  001f8	80 7c 02 6a 00	 cmp	 BYTE PTR [edx+eax+106], 0
  001fd	75 42		 jne	 SHORT $LN2@ProcState_
  001ff	83 7e 50 02	 cmp	 DWORD PTR [esi+80], 2
  00203	75 3c		 jne	 SHORT $LN2@ProcState_

; 327  : 		{
; 328  : 			gObj[this->m_BattleData.GateIndex[2]].m_ImmuneToHarmCount = 0;

  00205	8b 4e 1c	 mov	 ecx, DWORD PTR [esi+28]
  00208	69 c9 50 2b 00
	00		 imul	 ecx, 11088		; 00002b50H
  0020e	33 d2		 xor	 edx, edx
  00210	66 89 94 01 84
	22 00 00	 mov	 WORD PTR [ecx+eax+8836], dx

; 329  : 			gObj[this->m_BattleData.GateIndex[2]].m_ImmuneToMagicCount = 0;

  00218	8b 46 1c	 mov	 eax, DWORD PTR [esi+28]
  0021b	8b 15 00 00 00
	00		 mov	 edx, DWORD PTR ?gObj@@3PAUOBJECTSTRUCT@@A ; gObj
  00221	69 c0 50 2b 00
	00		 imul	 eax, 11088		; 00002b50H
  00227	33 c9		 xor	 ecx, ecx
  00229	66 89 8c 10 82
	22 00 00	 mov	 WORD PTR [eax+edx+8834], cx

; 330  : 			this->SetMapAttr(1);

  00231	57		 push	 edi
  00232	8b ce		 mov	 ecx, esi
  00234	e8 00 00 00 00	 call	 ?SetMapAttr@CImperialBattleOfDestler@@QAEXH@Z ; CImperialBattleOfDestler::SetMapAttr

; 331  : 			this->m_BattleData.PhazeStep++;

  00239	01 7e 50	 add	 DWORD PTR [esi+80], edi
  0023c	a1 00 00 00 00	 mov	 eax, DWORD PTR ?gObj@@3PAUOBJECTSTRUCT@@A ; gObj
$LN2@ProcState_:

; 332  : 		}
; 333  : 		if(gObj[this->m_BattleData.GateIndex[2]].Live == false && this->m_BattleData.PhazeStep == 3)

  00241	8b 4e 1c	 mov	 ecx, DWORD PTR [esi+28]
  00244	69 c9 50 2b 00
	00		 imul	 ecx, 11088		; 00002b50H
  0024a	80 7c 01 6a 00	 cmp	 BYTE PTR [ecx+eax+106], 0
  0024f	75 16		 jne	 SHORT $LN1@ProcState_
  00251	83 7e 50 03	 cmp	 DWORD PTR [esi+80], 3
  00255	75 10		 jne	 SHORT $LN1@ProcState_

; 334  : 		{
; 335  : 			this->SetMapAttr(2);

  00257	6a 02		 push	 2
  00259	8b ce		 mov	 ecx, esi
  0025b	e8 00 00 00 00	 call	 ?SetMapAttr@CImperialBattleOfDestler@@QAEXH@Z ; CImperialBattleOfDestler::SetMapAttr

; 336  : 			this->PortalSetState = false;
; 337  : 			this->m_BattleData.PhazeStep++;

  00260	01 7e 50	 add	 DWORD PTR [esi+80], edi
  00263	c6 46 58 00	 mov	 BYTE PTR [esi+88], 0
$LN1@ProcState_:

; 338  : 		}
; 339  : 	}
; 340  : }

  00267	8b 4d fc	 mov	 ecx, DWORD PTR __$ArrayPad$[ebp]
  0026a	5f		 pop	 edi
  0026b	33 cd		 xor	 ecx, ebp
  0026d	5e		 pop	 esi
  0026e	e8 00 00 00 00	 call	 @__security_check_cookie@4
  00273	8b e5		 mov	 esp, ebp
  00275	5d		 pop	 ebp
  00276	c3		 ret	 0
?ProcState_PHAZE1@CImperialBattleOfDestler@@QAEXXZ ENDP	; CImperialBattleOfDestler::ProcState_PHAZE1
_TEXT	ENDS
PUBLIC	__$ArrayPad$
PUBLIC	?ProcState_PHAZE2@CImperialBattleOfDestler@@QAEXXZ ; CImperialBattleOfDestler::ProcState_PHAZE2
; Function compile flags: /Ogtp
;	COMDAT ?ProcState_PHAZE2@CImperialBattleOfDestler@@QAEXXZ
_TEXT	SEGMENT
_n$204294 = -284					; size = 4
tv564 = -280						; size = 4
_pNotice$204300 = -276					; size = 272
__$ArrayPad$ = -4					; size = 4
?ProcState_PHAZE2@CImperialBattleOfDestler@@QAEXXZ PROC	; CImperialBattleOfDestler::ProcState_PHAZE2, COMDAT
; _this$ = ecx

; 360  : {

  00000	55		 push	 ebp
  00001	8b ec		 mov	 ebp, esp
  00003	81 ec 1c 01 00
	00		 sub	 esp, 284		; 0000011cH
  00009	a1 00 00 00 00	 mov	 eax, DWORD PTR ___security_cookie
  0000e	33 c5		 xor	 eax, ebp
  00010	89 45 fc	 mov	 DWORD PTR __$ArrayPad$[ebp], eax
  00013	56		 push	 esi
  00014	57		 push	 edi

; 361  : 	int Tick = GetTickCount() - this->m_BattleData.TickCount;

  00015	8b 3d 00 00 00
	00		 mov	 edi, DWORD PTR __imp__GetTickCount@0
  0001b	8b f1		 mov	 esi, ecx
  0001d	ff d7		 call	 edi
  0001f	2b 46 3c	 sub	 eax, DWORD PTR [esi+60]

; 362  : 	if(Tick >= 1000)

  00022	3d e8 03 00 00	 cmp	 eax, 1000		; 000003e8H
  00027	0f 8c 3b 02 00
	00		 jl	 $LN1@ProcState_@2

; 363  : 	{
; 364  : 		this->m_BattleData.Time -= Tick;

  0002d	29 46 38	 sub	 DWORD PTR [esi+56], eax

; 365  : 		this->m_BattleData.TickCount = GetTickCount();

  00030	ff d7		 call	 edi

; 366  : 
; 367  : 		this->SendEventInterface();

  00032	8b ce		 mov	 ecx, esi
  00034	89 46 3c	 mov	 DWORD PTR [esi+60], eax
  00037	e8 00 00 00 00	 call	 ?SendEventInterface@CImperialBattleOfDestler@@QAEXXZ ; CImperialBattleOfDestler::SendEventInterface

; 368  : 		this->MonsterProc();

  0003c	8b ce		 mov	 ecx, esi
  0003e	e8 00 00 00 00	 call	 ?MonsterProc@CImperialBattleOfDestler@@QAEXXZ ; CImperialBattleOfDestler::MonsterProc
  00043	c7 85 e8 fe ff
	ff 00 00 00 00	 mov	 DWORD PTR tv564[ebp], 0
  0004d	53		 push	 ebx
  0004e	8b ff		 npad	 2
$LL33@ProcState_@2:

; 371  : 		{
; 372  : 			for(int n=0;n<g_ImperialBattleUserMng.GetUserCount();++n)

  00050	b9 00 00 00 00	 mov	 ecx, OFFSET ?g_ImperialBattleUserMng@@3VCImperialBattleUserMng@@A ; g_ImperialBattleUserMng
  00055	c7 85 e4 fe ff
	ff 00 00 00 00	 mov	 DWORD PTR _n$204294[ebp], 0
  0005f	e8 00 00 00 00	 call	 ?GetUserCount@CImperialBattleUserMng@@QAEHXZ ; CImperialBattleUserMng::GetUserCount
  00064	85 c0		 test	 eax, eax
  00066	0f 8e 9e 00 00
	00		 jle	 $LN11@ProcState_@2
  0006c	bf 08 00 00 00	 mov	 edi, OFFSET ?g_ImperialBattleUserMng@@3VCImperialBattleUserMng@@A+8
$LL30@ProcState_@2:

; 373  : 			{
; 374  : 
; 375  : 				if(gObj[g_ImperialBattleUserMng.m_BattleUser[n].GetIndex()].X >= g_DestlerTrap[i].X-5 && gObj[g_ImperialBattleUserMng.m_BattleUser[n].GetIndex()].X <= g_DestlerTrap[i].X+5
; 376  : 					&& gObj[g_ImperialBattleUserMng.m_BattleUser[n].GetIndex()].Y >= g_DestlerTrap[i].Y-5 && gObj[g_ImperialBattleUserMng.m_BattleUser[n].GetIndex()].Y <= g_DestlerTrap[i].Y+5)

  00071	8b 07		 mov	 eax, DWORD PTR [edi]
  00073	8b 95 e8 fe ff
	ff		 mov	 edx, DWORD PTR tv564[ebp]
  00079	69 c0 50 2b 00
	00		 imul	 eax, 11088		; 00002b50H
  0007f	03 05 00 00 00
	00		 add	 eax, DWORD PTR ?gObj@@3PAUOBJECTSTRUCT@@A ; gObj
  00085	8b 92 00 00 00
	00		 mov	 edx, DWORD PTR _g_DestlerTrap[edx]
  0008b	0f bf 88 44 01
	00 00		 movsx	 ecx, WORD PTR [eax+324]
  00092	8d 5a fb	 lea	 ebx, DWORD PTR [edx-5]
  00095	3b cb		 cmp	 ecx, ebx
  00097	7c 4f		 jl	 SHORT $LN8@ProcState_@2
  00099	83 c2 05	 add	 edx, 5
  0009c	3b ca		 cmp	 ecx, edx
  0009e	7f 48		 jg	 SHORT $LN8@ProcState_@2
  000a0	8b 95 e8 fe ff
	ff		 mov	 edx, DWORD PTR tv564[ebp]
  000a6	0f bf 88 46 01
	00 00		 movsx	 ecx, WORD PTR [eax+326]
  000ad	8b 92 04 00 00
	00		 mov	 edx, DWORD PTR _g_DestlerTrap[edx+4]
  000b3	8d 5a fb	 lea	 ebx, DWORD PTR [edx-5]
  000b6	3b cb		 cmp	 ecx, ebx
  000b8	7c 2e		 jl	 SHORT $LN8@ProcState_@2
  000ba	83 c2 05	 add	 edx, 5
  000bd	3b ca		 cmp	 ecx, edx
  000bf	7f 27		 jg	 SHORT $LN8@ProcState_@2

; 377  : 				{
; 378  : 					gObjAttack(&gObj[this->m_BattleData.TrapIndex], &gObj[g_ImperialBattleUserMng.m_BattleUser[n].GetIndex()], NULL, 0, 0, 0, 0,0,0);

  000c1	6a 00		 push	 0
  000c3	6a 00		 push	 0
  000c5	6a 00		 push	 0
  000c7	6a 00		 push	 0
  000c9	6a 00		 push	 0
  000cb	6a 00		 push	 0
  000cd	6a 00		 push	 0
  000cf	50		 push	 eax
  000d0	8b 46 4c	 mov	 eax, DWORD PTR [esi+76]
  000d3	69 c0 50 2b 00
	00		 imul	 eax, 11088		; 00002b50H
  000d9	03 05 00 00 00
	00		 add	 eax, DWORD PTR ?gObj@@3PAUOBJECTSTRUCT@@A ; gObj
  000df	50		 push	 eax
  000e0	e8 00 00 00 00	 call	 ?gObjAttack@@YAHPAUOBJECTSTRUCT@@0PAVCMagicInf@@HEHHEE@Z ; gObjAttack
  000e5	83 c4 24	 add	 esp, 36			; 00000024H
$LN8@ProcState_@2:

; 371  : 		{
; 372  : 			for(int n=0;n<g_ImperialBattleUserMng.GetUserCount();++n)

  000e8	8b 9d e4 fe ff
	ff		 mov	 ebx, DWORD PTR _n$204294[ebp]
  000ee	43		 inc	 ebx
  000ef	b9 00 00 00 00	 mov	 ecx, OFFSET ?g_ImperialBattleUserMng@@3VCImperialBattleUserMng@@A ; g_ImperialBattleUserMng
  000f4	89 9d e4 fe ff
	ff		 mov	 DWORD PTR _n$204294[ebp], ebx
  000fa	83 c7 0c	 add	 edi, 12			; 0000000cH
  000fd	e8 00 00 00 00	 call	 ?GetUserCount@CImperialBattleUserMng@@QAEHXZ ; CImperialBattleUserMng::GetUserCount
  00102	3b d8		 cmp	 ebx, eax
  00104	0f 8c 67 ff ff
	ff		 jl	 $LL30@ProcState_@2
$LN11@ProcState_@2:

; 369  : 
; 370  : 		for(int i=0;i<12;++i)

  0010a	8b 85 e8 fe ff
	ff		 mov	 eax, DWORD PTR tv564[ebp]
  00110	83 c0 08	 add	 eax, 8
  00113	89 85 e8 fe ff
	ff		 mov	 DWORD PTR tv564[ebp], eax
  00119	83 f8 60	 cmp	 eax, 96			; 00000060H
  0011c	0f 8c 2e ff ff
	ff		 jl	 $LL33@ProcState_@2

; 379  : 				}
; 380  : 			}
; 381  : 		}
; 382  : 
; 383  : 		if(this->m_BattleData.Time > 0 && (this->m_BattleData.Time/60000) !=this->m_BattleData.NotifyCount)

  00122	8b 4e 38	 mov	 ecx, DWORD PTR [esi+56]
  00125	5b		 pop	 ebx
  00126	85 c9		 test	 ecx, ecx
  00128	7e 55		 jle	 SHORT $LN32@ProcState_@2
  0012a	b8 73 b2 e7 45	 mov	 eax, 1172812403		; 45e7b273H
  0012f	f7 e9		 imul	 ecx
  00131	0f b6 4e 54	 movzx	 ecx, BYTE PTR [esi+84]
  00135	c1 fa 0e	 sar	 edx, 14			; 0000000eH
  00138	8b c2		 mov	 eax, edx
  0013a	c1 e8 1f	 shr	 eax, 31			; 0000001fH
  0013d	03 c2		 add	 eax, edx
  0013f	3b c1		 cmp	 eax, ecx
  00141	74 3c		 je	 SHORT $LN32@ProcState_@2

; 384  : 		{
; 385  : 			this->m_BattleData.NotifyCount = this->m_BattleData.Time / 60000;
; 386  : 			PMSG_NOTICE pNotice;
; 387  : 			TNotice::MakeNoticeMsgEx(&pNotice, 0, "Portal will be closed after %d minutes", this->m_BattleData.NotifyCount+1);

  00143	0f b6 d0	 movzx	 edx, al
  00146	bf 01 00 00 00	 mov	 edi, 1
  0014b	03 d7		 add	 edx, edi
  0014d	52		 push	 edx
  0014e	68 00 00 00 00	 push	 OFFSET ??_C@_0CH@LFMFLPDA@Portal?5will?5be?5closed?5after?5?$CFd?5m@
  00153	88 46 54	 mov	 BYTE PTR [esi+84], al
  00156	8d 85 ec fe ff
	ff		 lea	 eax, DWORD PTR _pNotice$204300[ebp]
  0015c	6a 00		 push	 0
  0015e	50		 push	 eax
  0015f	e8 00 00 00 00	 call	 ?MakeNoticeMsgEx@TNotice@@SAXPAXEPADZZ ; TNotice::MakeNoticeMsgEx

; 388  : 			this->SendImperialPlayers((LPBYTE)&pNotice, pNotice.h.size);

  00164	0f b6 8d ed fe
	ff ff		 movzx	 ecx, BYTE PTR _pNotice$204300[ebp+1]
  0016b	83 c4 10	 add	 esp, 16			; 00000010H
  0016e	51		 push	 ecx
  0016f	8d 95 ec fe ff
	ff		 lea	 edx, DWORD PTR _pNotice$204300[ebp]
  00175	52		 push	 edx
  00176	8b ce		 mov	 ecx, esi
  00178	e8 00 00 00 00	 call	 ?SendImperialPlayers@CImperialBattleOfDestler@@QAEXPAEH@Z ; CImperialBattleOfDestler::SendImperialPlayers
  0017d	eb 05		 jmp	 SHORT $LN5@ProcState_@2
$LN32@ProcState_@2:
  0017f	bf 01 00 00 00	 mov	 edi, 1
$LN5@ProcState_@2:

; 389  : 		}
; 390  : 
; 391  : 		if(gObj[this->m_BattleData.GateIndex[3]].Live == false && this->m_BattleData.PhazeStep == 0)

  00184	8b 4e 20	 mov	 ecx, DWORD PTR [esi+32]
  00187	a1 00 00 00 00	 mov	 eax, DWORD PTR ?gObj@@3PAUOBJECTSTRUCT@@A ; gObj
  0018c	69 c9 50 2b 00
	00		 imul	 ecx, 11088		; 00002b50H
  00192	80 7c 01 6a 00	 cmp	 BYTE PTR [ecx+eax+106], 0
  00197	75 17		 jne	 SHORT $LN4@ProcState_@2
  00199	83 7e 50 00	 cmp	 DWORD PTR [esi+80], 0
  0019d	75 11		 jne	 SHORT $LN4@ProcState_@2

; 392  : 		{
; 393  : 			this->SetMapAttr(3);

  0019f	6a 03		 push	 3
  001a1	8b ce		 mov	 ecx, esi
  001a3	e8 00 00 00 00	 call	 ?SetMapAttr@CImperialBattleOfDestler@@QAEXH@Z ; CImperialBattleOfDestler::SetMapAttr

; 394  : 			this->m_BattleData.PhazeStep++;

  001a8	01 7e 50	 add	 DWORD PTR [esi+80], edi
  001ab	a1 00 00 00 00	 mov	 eax, DWORD PTR ?gObj@@3PAUOBJECTSTRUCT@@A ; gObj
$LN4@ProcState_@2:

; 395  : 		}
; 396  : 
; 397  : 		if(this->m_BattleData.MonsterCount <= 0 && this->m_BattleData.PhazeStep == 1)

  001b0	83 7e 44 00	 cmp	 DWORD PTR [esi+68], 0
  001b4	7f 39		 jg	 SHORT $LN3@ProcState_@2
  001b6	39 7e 50	 cmp	 DWORD PTR [esi+80], edi
  001b9	75 34		 jne	 SHORT $LN3@ProcState_@2

; 398  : 		{
; 399  : 			gObj[this->m_BattleData.GateIndex[4]].m_ImmuneToHarmCount = 0;

  001bb	8b 56 24	 mov	 edx, DWORD PTR [esi+36]
  001be	69 d2 50 2b 00
	00		 imul	 edx, 11088		; 00002b50H
  001c4	33 c9		 xor	 ecx, ecx
  001c6	66 89 8c 02 84
	22 00 00	 mov	 WORD PTR [edx+eax+8836], cx

; 400  : 			gObj[this->m_BattleData.GateIndex[4]].m_ImmuneToMagicCount = 0;

  001ce	8b 56 24	 mov	 edx, DWORD PTR [esi+36]
  001d1	8b 0d 00 00 00
	00		 mov	 ecx, DWORD PTR ?gObj@@3PAUOBJECTSTRUCT@@A ; gObj
  001d7	69 d2 50 2b 00
	00		 imul	 edx, 11088		; 00002b50H
  001dd	33 c0		 xor	 eax, eax
  001df	66 89 84 0a 82
	22 00 00	 mov	 WORD PTR [edx+ecx+8834], ax

; 401  : 			this->m_BattleData.PhazeStep++;

  001e7	01 7e 50	 add	 DWORD PTR [esi+80], edi
  001ea	a1 00 00 00 00	 mov	 eax, DWORD PTR ?gObj@@3PAUOBJECTSTRUCT@@A ; gObj
$LN3@ProcState_@2:

; 402  : 		}
; 403  : 		if(gObj[this->m_BattleData.GateIndex[4]].Live == false && this->m_BattleData.PhazeStep == 2)

  001ef	8b 56 24	 mov	 edx, DWORD PTR [esi+36]
  001f2	69 d2 50 2b 00
	00		 imul	 edx, 11088		; 00002b50H
  001f8	80 7c 02 6a 00	 cmp	 BYTE PTR [edx+eax+106], 0
  001fd	75 43		 jne	 SHORT $LN2@ProcState_@2
  001ff	83 7e 50 02	 cmp	 DWORD PTR [esi+80], 2
  00203	75 3d		 jne	 SHORT $LN2@ProcState_@2

; 404  : 		{
; 405  : 			gObj[this->m_BattleData.GateIndex[5]].m_ImmuneToHarmCount = 0;

  00205	8b 4e 28	 mov	 ecx, DWORD PTR [esi+40]
  00208	69 c9 50 2b 00
	00		 imul	 ecx, 11088		; 00002b50H
  0020e	33 d2		 xor	 edx, edx
  00210	66 89 94 01 84
	22 00 00	 mov	 WORD PTR [ecx+eax+8836], dx

; 406  : 			gObj[this->m_BattleData.GateIndex[5]].m_ImmuneToMagicCount = 0;

  00218	8b 46 28	 mov	 eax, DWORD PTR [esi+40]
  0021b	8b 15 00 00 00
	00		 mov	 edx, DWORD PTR ?gObj@@3PAUOBJECTSTRUCT@@A ; gObj
  00221	69 c0 50 2b 00
	00		 imul	 eax, 11088		; 00002b50H
  00227	33 c9		 xor	 ecx, ecx
  00229	66 89 8c 10 82
	22 00 00	 mov	 WORD PTR [eax+edx+8834], cx

; 407  : 			this->SetMapAttr(4);

  00231	6a 04		 push	 4
  00233	8b ce		 mov	 ecx, esi
  00235	e8 00 00 00 00	 call	 ?SetMapAttr@CImperialBattleOfDestler@@QAEXH@Z ; CImperialBattleOfDestler::SetMapAttr

; 408  : 			this->m_BattleData.PhazeStep++;

  0023a	01 7e 50	 add	 DWORD PTR [esi+80], edi
  0023d	a1 00 00 00 00	 mov	 eax, DWORD PTR ?gObj@@3PAUOBJECTSTRUCT@@A ; gObj
$LN2@ProcState_@2:

; 409  : 		}
; 410  : 		if(gObj[this->m_BattleData.GateIndex[5]].Live == false && this->m_BattleData.PhazeStep == 3)

  00242	8b 4e 28	 mov	 ecx, DWORD PTR [esi+40]
  00245	69 c9 50 2b 00
	00		 imul	 ecx, 11088		; 00002b50H
  0024b	80 7c 01 6a 00	 cmp	 BYTE PTR [ecx+eax+106], 0
  00250	75 16		 jne	 SHORT $LN1@ProcState_@2
  00252	83 7e 50 03	 cmp	 DWORD PTR [esi+80], 3
  00256	75 10		 jne	 SHORT $LN1@ProcState_@2

; 411  : 		{
; 412  : 			this->SetMapAttr(5);

  00258	6a 05		 push	 5
  0025a	8b ce		 mov	 ecx, esi
  0025c	e8 00 00 00 00	 call	 ?SetMapAttr@CImperialBattleOfDestler@@QAEXH@Z ; CImperialBattleOfDestler::SetMapAttr

; 413  : 			this->PortalSetState = false;
; 414  : 			this->m_BattleData.PhazeStep++;

  00261	01 7e 50	 add	 DWORD PTR [esi+80], edi
  00264	c6 46 58 00	 mov	 BYTE PTR [esi+88], 0
$LN1@ProcState_@2:

; 415  : 		}
; 416  : 	}
; 417  : }

  00268	8b 4d fc	 mov	 ecx, DWORD PTR __$ArrayPad$[ebp]
  0026b	5f		 pop	 edi
  0026c	33 cd		 xor	 ecx, ebp
  0026e	5e		 pop	 esi
  0026f	e8 00 00 00 00	 call	 @__security_check_cookie@4
  00274	8b e5		 mov	 esp, ebp
  00276	5d		 pop	 ebp
  00277	c3		 ret	 0
?ProcState_PHAZE2@CImperialBattleOfDestler@@QAEXXZ ENDP	; CImperialBattleOfDestler::ProcState_PHAZE2
_TEXT	ENDS
PUBLIC	?SetState@CImperialBattleOfDestler@@QAEXH@Z	; CImperialBattleOfDestler::SetState
; Function compile flags: /Ogtp
;	COMDAT ?SetState@CImperialBattleOfDestler@@QAEXH@Z
_TEXT	SEGMENT
_iState$ = 8						; size = 4
?SetState@CImperialBattleOfDestler@@QAEXH@Z PROC	; CImperialBattleOfDestler::SetState, COMDAT
; _this$ = ecx

; 27   : {

  00000	55		 push	 ebp
  00001	8b ec		 mov	 ebp, esp

; 28   : 	switch ( iState )

  00003	8b 45 08	 mov	 eax, DWORD PTR _iState$[ebp]
  00006	83 f8 07	 cmp	 eax, 7
  00009	77 4b		 ja	 SHORT $LN9@SetState
  0000b	ff 24 85 00 00
	00 00		 jmp	 DWORD PTR $LN13@SetState[eax*4]
$LN8@SetState:

; 29   : 	{
; 30   : 		case 0:
; 31   : 			this->SetState_NONE();

  00012	e8 00 00 00 00	 call	 ?SetState_NONE@CImperialBattleOfDestler@@QAEXXZ ; CImperialBattleOfDestler::SetState_NONE

; 53   : 			break;
; 54   : 	}
; 55   : }

  00017	5d		 pop	 ebp
  00018	c2 04 00	 ret	 4
$LN7@SetState:

; 32   : 			break;
; 33   : 		case 1:
; 34   : 			this->SetState_STANDBY1();

  0001b	e8 00 00 00 00	 call	 ?SetState_STANDBY1@CImperialBattleOfDestler@@QAEXXZ ; CImperialBattleOfDestler::SetState_STANDBY1

; 53   : 			break;
; 54   : 	}
; 55   : }

  00020	5d		 pop	 ebp
  00021	c2 04 00	 ret	 4
$LN6@SetState:

; 35   : 			break;
; 36   : 		case 2:
; 37   : 			this->SetState_PHAZE1();

  00024	e8 00 00 00 00	 call	 ?SetState_PHAZE1@CImperialBattleOfDestler@@QAEXXZ ; CImperialBattleOfDestler::SetState_PHAZE1

; 53   : 			break;
; 54   : 	}
; 55   : }

  00029	5d		 pop	 ebp
  0002a	c2 04 00	 ret	 4
$LN5@SetState:

; 38   : 			break;
; 39   : 		case 3:
; 40   : 			this->SetState_STANDBY2();

  0002d	e8 00 00 00 00	 call	 ?SetState_STANDBY2@CImperialBattleOfDestler@@QAEXXZ ; CImperialBattleOfDestler::SetState_STANDBY2

; 53   : 			break;
; 54   : 	}
; 55   : }

  00032	5d		 pop	 ebp
  00033	c2 04 00	 ret	 4
$LN4@SetState:

; 41   : 			break;
; 42   : 		case 4:
; 43   : 			this->SetState_PHAZE2();

  00036	e8 00 00 00 00	 call	 ?SetState_PHAZE2@CImperialBattleOfDestler@@QAEXXZ ; CImperialBattleOfDestler::SetState_PHAZE2

; 53   : 			break;
; 54   : 	}
; 55   : }

  0003b	5d		 pop	 ebp
  0003c	c2 04 00	 ret	 4
$LN3@SetState:

; 44   : 			break;
; 45   : 		case 5: 
; 46   : 			this->SetState_STANDBY3();

  0003f	e8 00 00 00 00	 call	 ?SetState_STANDBY3@CImperialBattleOfDestler@@QAEXXZ ; CImperialBattleOfDestler::SetState_STANDBY3

; 53   : 			break;
; 54   : 	}
; 55   : }

  00044	5d		 pop	 ebp
  00045	c2 04 00	 ret	 4
$LN2@SetState:

; 47   : 			break;
; 48   : 		case 6:
; 49   : 			this->SetState_PHAZE3();

  00048	e8 00 00 00 00	 call	 ?SetState_PHAZE3@CImperialBattleOfDestler@@QAEXXZ ; CImperialBattleOfDestler::SetState_PHAZE3

; 53   : 			break;
; 54   : 	}
; 55   : }

  0004d	5d		 pop	 ebp
  0004e	c2 04 00	 ret	 4
$LN1@SetState:

; 50   : 			break;
; 51   : 		case 7:
; 52   : 			this->SetState_END();

  00051	e8 00 00 00 00	 call	 ?SetState_END@CImperialBattleOfDestler@@QAEXXZ ; CImperialBattleOfDestler::SetState_END
$LN9@SetState:

; 53   : 			break;
; 54   : 	}
; 55   : }

  00056	5d		 pop	 ebp
  00057	c2 04 00	 ret	 4
  0005a	8b ff		 npad	 2
$LN13@SetState:
  0005c	00 00 00 00	 DD	 $LN8@SetState
  00060	00 00 00 00	 DD	 $LN7@SetState
  00064	00 00 00 00	 DD	 $LN6@SetState
  00068	00 00 00 00	 DD	 $LN5@SetState
  0006c	00 00 00 00	 DD	 $LN4@SetState
  00070	00 00 00 00	 DD	 $LN3@SetState
  00074	00 00 00 00	 DD	 $LN2@SetState
  00078	00 00 00 00	 DD	 $LN1@SetState
?SetState@CImperialBattleOfDestler@@QAEXH@Z ENDP	; CImperialBattleOfDestler::SetState
_TEXT	ENDS
PUBLIC	?ProcState_STANDBY1@CImperialBattleOfDestler@@QAEXXZ ; CImperialBattleOfDestler::ProcState_STANDBY1
; Function compile flags: /Ogtp
;	COMDAT ?ProcState_STANDBY1@CImperialBattleOfDestler@@QAEXXZ
_TEXT	SEGMENT
?ProcState_STANDBY1@CImperialBattleOfDestler@@QAEXXZ PROC ; CImperialBattleOfDestler::ProcState_STANDBY1, COMDAT
; _this$ = ecx

; 266  : {

  00000	56		 push	 esi
  00001	57		 push	 edi

; 267  : 	int Tick = GetTickCount() - this->m_BattleData.TickCount;

  00002	8b 3d 00 00 00
	00		 mov	 edi, DWORD PTR __imp__GetTickCount@0
  00008	8b f1		 mov	 esi, ecx
  0000a	ff d7		 call	 edi
  0000c	2b 46 3c	 sub	 eax, DWORD PTR [esi+60]

; 268  : 	if(Tick >= 1000)

  0000f	3d e8 03 00 00	 cmp	 eax, 1000		; 000003e8H
  00014	7c 1e		 jl	 SHORT $LN1@ProcState_@3

; 269  : 	{
; 270  : 		this->m_BattleData.Time -= Tick;

  00016	29 46 38	 sub	 DWORD PTR [esi+56], eax

; 271  : 		this->m_BattleData.TickCount = GetTickCount();

  00019	ff d7		 call	 edi

; 272  : 
; 273  : 		this->SendEventInterface();

  0001b	8b ce		 mov	 ecx, esi
  0001d	89 46 3c	 mov	 DWORD PTR [esi+60], eax
  00020	e8 00 00 00 00	 call	 ?SendEventInterface@CImperialBattleOfDestler@@QAEXXZ ; CImperialBattleOfDestler::SendEventInterface

; 274  : 
; 275  : 		if(this->m_BattleData.Time <= 0)

  00025	83 7e 38 00	 cmp	 DWORD PTR [esi+56], 0
  00029	7f 09		 jg	 SHORT $LN1@ProcState_@3

; 276  : 		{
; 277  : 			this->SetState(BATTLEOFDESTLER_STATE_PHAZE1);

  0002b	6a 02		 push	 2
  0002d	8b ce		 mov	 ecx, esi
  0002f	e8 00 00 00 00	 call	 ?SetState@CImperialBattleOfDestler@@QAEXH@Z ; CImperialBattleOfDestler::SetState
$LN1@ProcState_@3:

; 278  : 		}
; 279  : 	}
; 280  : }

  00034	5f		 pop	 edi
  00035	5e		 pop	 esi
  00036	c3		 ret	 0
?ProcState_STANDBY1@CImperialBattleOfDestler@@QAEXXZ ENDP ; CImperialBattleOfDestler::ProcState_STANDBY1
_TEXT	ENDS
PUBLIC	?ProcState_STANDBY2@CImperialBattleOfDestler@@QAEXXZ ; CImperialBattleOfDestler::ProcState_STANDBY2
; Function compile flags: /Ogtp
;	COMDAT ?ProcState_STANDBY2@CImperialBattleOfDestler@@QAEXXZ
_TEXT	SEGMENT
?ProcState_STANDBY2@CImperialBattleOfDestler@@QAEXXZ PROC ; CImperialBattleOfDestler::ProcState_STANDBY2, COMDAT
; _this$ = ecx

; 343  : {

  00000	56		 push	 esi
  00001	57		 push	 edi

; 344  : 	int Tick = GetTickCount() - this->m_BattleData.TickCount;

  00002	8b 3d 00 00 00
	00		 mov	 edi, DWORD PTR __imp__GetTickCount@0
  00008	8b f1		 mov	 esi, ecx
  0000a	ff d7		 call	 edi
  0000c	2b 46 3c	 sub	 eax, DWORD PTR [esi+60]

; 345  : 	if(Tick >= 1000)

  0000f	3d e8 03 00 00	 cmp	 eax, 1000		; 000003e8H
  00014	7c 1e		 jl	 SHORT $LN1@ProcState_@4

; 346  : 	{
; 347  : 		this->m_BattleData.Time -= Tick;

  00016	29 46 38	 sub	 DWORD PTR [esi+56], eax

; 348  : 		this->m_BattleData.TickCount = GetTickCount();

  00019	ff d7		 call	 edi

; 349  : 
; 350  : 		this->SendEventInterface();

  0001b	8b ce		 mov	 ecx, esi
  0001d	89 46 3c	 mov	 DWORD PTR [esi+60], eax
  00020	e8 00 00 00 00	 call	 ?SendEventInterface@CImperialBattleOfDestler@@QAEXXZ ; CImperialBattleOfDestler::SendEventInterface

; 351  : 
; 352  : 		if(this->m_BattleData.Time <= 0)

  00025	83 7e 38 00	 cmp	 DWORD PTR [esi+56], 0
  00029	7f 09		 jg	 SHORT $LN1@ProcState_@4

; 353  : 		{
; 354  : 			this->SetState(BATTLEOFDESTLER_STATE_PHAZE2);

  0002b	6a 04		 push	 4
  0002d	8b ce		 mov	 ecx, esi
  0002f	e8 00 00 00 00	 call	 ?SetState@CImperialBattleOfDestler@@QAEXH@Z ; CImperialBattleOfDestler::SetState
$LN1@ProcState_@4:

; 355  : 		}
; 356  : 	}
; 357  : }

  00034	5f		 pop	 edi
  00035	5e		 pop	 esi
  00036	c3		 ret	 0
?ProcState_STANDBY2@CImperialBattleOfDestler@@QAEXXZ ENDP ; CImperialBattleOfDestler::ProcState_STANDBY2
_TEXT	ENDS
PUBLIC	?ProcState_STANDBY3@CImperialBattleOfDestler@@QAEXXZ ; CImperialBattleOfDestler::ProcState_STANDBY3
; Function compile flags: /Ogtp
;	COMDAT ?ProcState_STANDBY3@CImperialBattleOfDestler@@QAEXXZ
_TEXT	SEGMENT
?ProcState_STANDBY3@CImperialBattleOfDestler@@QAEXXZ PROC ; CImperialBattleOfDestler::ProcState_STANDBY3, COMDAT
; _this$ = ecx

; 420  : {

  00000	56		 push	 esi
  00001	57		 push	 edi

; 421  : 	int Tick = GetTickCount() - this->m_BattleData.TickCount;

  00002	8b 3d 00 00 00
	00		 mov	 edi, DWORD PTR __imp__GetTickCount@0
  00008	8b f1		 mov	 esi, ecx
  0000a	ff d7		 call	 edi
  0000c	2b 46 3c	 sub	 eax, DWORD PTR [esi+60]

; 422  : 	if(Tick >= 1000)

  0000f	3d e8 03 00 00	 cmp	 eax, 1000		; 000003e8H
  00014	7c 1e		 jl	 SHORT $LN1@ProcState_@5

; 423  : 	{
; 424  : 		this->m_BattleData.Time -= Tick;

  00016	29 46 38	 sub	 DWORD PTR [esi+56], eax

; 425  : 		this->m_BattleData.TickCount = GetTickCount();

  00019	ff d7		 call	 edi

; 426  : 
; 427  : 		this->SendEventInterface();

  0001b	8b ce		 mov	 ecx, esi
  0001d	89 46 3c	 mov	 DWORD PTR [esi+60], eax
  00020	e8 00 00 00 00	 call	 ?SendEventInterface@CImperialBattleOfDestler@@QAEXXZ ; CImperialBattleOfDestler::SendEventInterface

; 428  : 
; 429  : 		if(this->m_BattleData.Time <= 0)

  00025	83 7e 38 00	 cmp	 DWORD PTR [esi+56], 0
  00029	7f 09		 jg	 SHORT $LN1@ProcState_@5

; 430  : 		{
; 431  : 			this->SetState(BATTLEOFDESTLER_STATE_PHAZE3);

  0002b	6a 06		 push	 6
  0002d	8b ce		 mov	 ecx, esi
  0002f	e8 00 00 00 00	 call	 ?SetState@CImperialBattleOfDestler@@QAEXH@Z ; CImperialBattleOfDestler::SetState
$LN1@ProcState_@5:

; 432  : 		}
; 433  : 	}
; 434  : }

  00034	5f		 pop	 edi
  00035	5e		 pop	 esi
  00036	c3		 ret	 0
?ProcState_STANDBY3@CImperialBattleOfDestler@@QAEXXZ ENDP ; CImperialBattleOfDestler::ProcState_STANDBY3
_TEXT	ENDS
PUBLIC	??_C@_0BJ@NGPECLFD@?$CFd?5minutes?5to?5escape?5?$CFs?$CB?$AA@ ; `string'
PUBLIC	__$ArrayPad$
PUBLIC	?ProcState_PHAZE3@CImperialBattleOfDestler@@QAEXXZ ; CImperialBattleOfDestler::ProcState_PHAZE3
;	COMDAT ??_C@_0BJ@NGPECLFD@?$CFd?5minutes?5to?5escape?5?$CFs?$CB?$AA@
; File e:\work\tranet_version\gs\gameserver\imperialbattleofdestler.h
CONST	SEGMENT
??_C@_0BJ@NGPECLFD@?$CFd?5minutes?5to?5escape?5?$CFs?$CB?$AA@ DB '%d minu'
	DB	'tes to escape %s!', 00H			; `string'
; Function compile flags: /Ogtp
; File e:\work\tranet_version\gs\gameserver\imperialbattleofdestler.cpp
CONST	ENDS
;	COMDAT ?ProcState_PHAZE3@CImperialBattleOfDestler@@QAEXXZ
_TEXT	SEGMENT
_pNotice$204318 = -276					; size = 272
__$ArrayPad$ = -4					; size = 4
?ProcState_PHAZE3@CImperialBattleOfDestler@@QAEXXZ PROC	; CImperialBattleOfDestler::ProcState_PHAZE3, COMDAT
; _this$ = ecx

; 437  : {

  00000	55		 push	 ebp
  00001	8b ec		 mov	 ebp, esp
  00003	81 ec 14 01 00
	00		 sub	 esp, 276		; 00000114H
  00009	a1 00 00 00 00	 mov	 eax, DWORD PTR ___security_cookie
  0000e	33 c5		 xor	 eax, ebp
  00010	89 45 fc	 mov	 DWORD PTR __$ArrayPad$[ebp], eax
  00013	56		 push	 esi
  00014	57		 push	 edi

; 438  : 	int Tick = GetTickCount() - this->m_BattleData.TickCount;

  00015	8b 3d 00 00 00
	00		 mov	 edi, DWORD PTR __imp__GetTickCount@0
  0001b	8b f1		 mov	 esi, ecx
  0001d	ff d7		 call	 edi
  0001f	2b 46 3c	 sub	 eax, DWORD PTR [esi+60]

; 439  : 	if(Tick >= 1000)

  00022	3d e8 03 00 00	 cmp	 eax, 1000		; 000003e8H
  00027	0f 8c c9 00 00
	00		 jl	 $LN1@ProcState_@6

; 440  : 	{
; 441  : 		this->m_BattleData.Time -= Tick;

  0002d	29 46 38	 sub	 DWORD PTR [esi+56], eax

; 442  : 		this->m_BattleData.TickCount = GetTickCount();

  00030	ff d7		 call	 edi

; 443  : 
; 444  : 		this->SendEventInterface();

  00032	8b ce		 mov	 ecx, esi
  00034	89 46 3c	 mov	 DWORD PTR [esi+60], eax
  00037	e8 00 00 00 00	 call	 ?SendEventInterface@CImperialBattleOfDestler@@QAEXXZ ; CImperialBattleOfDestler::SendEventInterface

; 445  : 		this->MonsterProc();

  0003c	8b ce		 mov	 ecx, esi
  0003e	e8 00 00 00 00	 call	 ?MonsterProc@CImperialBattleOfDestler@@QAEXXZ ; CImperialBattleOfDestler::MonsterProc

; 446  : 
; 447  : 		if(this->m_BattleData.Time > 0 && (this->m_BattleData.Time/60000) !=this->m_BattleData.NotifyCount)

  00043	8b 4e 38	 mov	 ecx, DWORD PTR [esi+56]
  00046	85 c9		 test	 ecx, ecx
  00048	7e 61		 jle	 SHORT $LN3@ProcState_@6
  0004a	b8 73 b2 e7 45	 mov	 eax, 1172812403		; 45e7b273H
  0004f	f7 e9		 imul	 ecx
  00051	0f b6 4e 54	 movzx	 ecx, BYTE PTR [esi+84]
  00055	c1 fa 0e	 sar	 edx, 14			; 0000000eH
  00058	8b c2		 mov	 eax, edx
  0005a	c1 e8 1f	 shr	 eax, 31			; 0000001fH
  0005d	03 c2		 add	 eax, edx
  0005f	3b c1		 cmp	 eax, ecx
  00061	74 48		 je	 SHORT $LN3@ProcState_@6

; 448  : 		{
; 449  : 			this->m_BattleData.NotifyCount = this->m_BattleData.Time / 60000;
; 450  : 			PMSG_NOTICE pNotice;
; 451  : 			TNotice::MakeNoticeMsgEx(&pNotice, 0, "%d minutes to escape %s!", this->m_BattleData.NotifyCount+1, gObj[this->m_BattleData.CurrentLeaderIndex].Name);

  00063	8b 56 10	 mov	 edx, DWORD PTR [esi+16]
  00066	69 d2 50 2b 00
	00		 imul	 edx, 11088		; 00002b50H
  0006c	88 46 54	 mov	 BYTE PTR [esi+84], al
  0006f	8b 0d 00 00 00
	00		 mov	 ecx, DWORD PTR ?gObj@@3PAUOBJECTSTRUCT@@A ; gObj
  00075	0f b6 c0	 movzx	 eax, al
  00078	8d 54 0a 77	 lea	 edx, DWORD PTR [edx+ecx+119]
  0007c	52		 push	 edx
  0007d	40		 inc	 eax
  0007e	50		 push	 eax
  0007f	68 00 00 00 00	 push	 OFFSET ??_C@_0BJ@NGPECLFD@?$CFd?5minutes?5to?5escape?5?$CFs?$CB?$AA@
  00084	8d 8d ec fe ff
	ff		 lea	 ecx, DWORD PTR _pNotice$204318[ebp]
  0008a	6a 00		 push	 0
  0008c	51		 push	 ecx
  0008d	e8 00 00 00 00	 call	 ?MakeNoticeMsgEx@TNotice@@SAXPAXEPADZZ ; TNotice::MakeNoticeMsgEx

; 452  : 			this->SendImperialPlayers((LPBYTE)&pNotice, pNotice.h.size);

  00092	0f b6 95 ed fe
	ff ff		 movzx	 edx, BYTE PTR _pNotice$204318[ebp+1]
  00099	83 c4 14	 add	 esp, 20			; 00000014H
  0009c	52		 push	 edx
  0009d	8d 85 ec fe ff
	ff		 lea	 eax, DWORD PTR _pNotice$204318[ebp]
  000a3	50		 push	 eax
  000a4	8b ce		 mov	 ecx, esi
  000a6	e8 00 00 00 00	 call	 ?SendImperialPlayers@CImperialBattleOfDestler@@QAEXPAEH@Z ; CImperialBattleOfDestler::SendImperialPlayers
$LN3@ProcState_@6:

; 453  : 		}
; 454  : 
; 455  : 		if(gObj[this->m_BattleData.GateIndex[6]].Live == false && this->m_BattleData.PhazeStep == 0)

  000ab	8b 4e 2c	 mov	 ecx, DWORD PTR [esi+44]
  000ae	8b 15 00 00 00
	00		 mov	 edx, DWORD PTR ?gObj@@3PAUOBJECTSTRUCT@@A ; gObj
  000b4	69 c9 50 2b 00
	00		 imul	 ecx, 11088		; 00002b50H
  000ba	80 7c 11 6a 00	 cmp	 BYTE PTR [ecx+edx+106], 0
  000bf	75 12		 jne	 SHORT $LN2@ProcState_@6
  000c1	83 7e 50 00	 cmp	 DWORD PTR [esi+80], 0
  000c5	75 0c		 jne	 SHORT $LN2@ProcState_@6

; 456  : 		{
; 457  : 			this->SetMapAttr(6);

  000c7	6a 06		 push	 6
  000c9	8b ce		 mov	 ecx, esi
  000cb	e8 00 00 00 00	 call	 ?SetMapAttr@CImperialBattleOfDestler@@QAEXH@Z ; CImperialBattleOfDestler::SetMapAttr

; 458  : 			this->m_BattleData.PhazeStep++;

  000d0	ff 46 50	 inc	 DWORD PTR [esi+80]
$LN2@ProcState_@6:

; 459  : 		}
; 460  : 
; 461  : 		if(gObj[this->m_BattleData.CurrentLeaderIndex].Live == false)

  000d3	8b 46 10	 mov	 eax, DWORD PTR [esi+16]
  000d6	8b 0d 00 00 00
	00		 mov	 ecx, DWORD PTR ?gObj@@3PAUOBJECTSTRUCT@@A ; gObj
  000dc	69 c0 50 2b 00
	00		 imul	 eax, 11088		; 00002b50H
  000e2	80 7c 08 6a 00	 cmp	 BYTE PTR [eax+ecx+106], 0
  000e7	75 0d		 jne	 SHORT $LN1@ProcState_@6

; 462  : 		{
; 463  : 			this->SetSuccessValue(true);
; 464  : 			this->SetState(BATTLEOFDESTLER_STATE_END);

  000e9	6a 07		 push	 7
  000eb	8b ce		 mov	 ecx, esi
  000ed	c6 46 59 01	 mov	 BYTE PTR [esi+89], 1
  000f1	e8 00 00 00 00	 call	 ?SetState@CImperialBattleOfDestler@@QAEXH@Z ; CImperialBattleOfDestler::SetState
$LN1@ProcState_@6:

; 465  : 		}
; 466  : 	}
; 467  : }

  000f6	8b 4d fc	 mov	 ecx, DWORD PTR __$ArrayPad$[ebp]
  000f9	5f		 pop	 edi
  000fa	33 cd		 xor	 ecx, ebp
  000fc	5e		 pop	 esi
  000fd	e8 00 00 00 00	 call	 @__security_check_cookie@4
  00102	8b e5		 mov	 esp, ebp
  00104	5d		 pop	 ebp
  00105	c3		 ret	 0
?ProcState_PHAZE3@CImperialBattleOfDestler@@QAEXXZ ENDP	; CImperialBattleOfDestler::ProcState_PHAZE3
_TEXT	ENDS
PUBLIC	?SetNextState@CImperialBattleOfDestler@@QAEXXZ	; CImperialBattleOfDestler::SetNextState
; Function compile flags: /Ogtp
;	COMDAT ?SetNextState@CImperialBattleOfDestler@@QAEXXZ
_TEXT	SEGMENT
?SetNextState@CImperialBattleOfDestler@@QAEXXZ PROC	; CImperialBattleOfDestler::SetNextState, COMDAT
; _this$ = ecx

; 578  : 	int iNextState = this->m_BattleData.CurrentState + 1;

  00000	8b 41 40	 mov	 eax, DWORD PTR [ecx+64]
  00003	40		 inc	 eax

; 579  : 
; 580  : 	if ( iNextState >= BATTLEOFDESTLER_STATE_END )

  00004	83 f8 07	 cmp	 eax, 7
  00007	7c 02		 jl	 SHORT $LN1@SetNextSta

; 581  : 	{
; 582  : 		iNextState = BATTLEOFDESTLER_STATE_NONE;

  00009	33 c0		 xor	 eax, eax
$LN1@SetNextSta:

; 583  : 	}
; 584  : 
; 585  : 	this->SetState(iNextState);

  0000b	50		 push	 eax
  0000c	e8 00 00 00 00	 call	 ?SetState@CImperialBattleOfDestler@@QAEXH@Z ; CImperialBattleOfDestler::SetState

; 586  : }

  00011	c3		 ret	 0
?SetNextState@CImperialBattleOfDestler@@QAEXXZ ENDP	; CImperialBattleOfDestler::SetNextState
_TEXT	ENDS
PUBLIC	?EnterPortal@CImperialBattleOfDestler@@QAE_NPAUOBJECTSTRUCT@@@Z ; CImperialBattleOfDestler::EnterPortal
; Function compile flags: /Ogtp
;	COMDAT ?EnterPortal@CImperialBattleOfDestler@@QAE_NPAUOBJECTSTRUCT@@@Z
_TEXT	SEGMENT
_lpObj$ = 8						; size = 4
?EnterPortal@CImperialBattleOfDestler@@QAE_NPAUOBJECTSTRUCT@@@Z PROC ; CImperialBattleOfDestler::EnterPortal, COMDAT
; _this$ = ecx

; 589  : {

  00000	56		 push	 esi
  00001	8b f1		 mov	 esi, ecx

; 590  : 	if(this->m_BattleData.MonsterCount > 0)

  00003	83 7e 44 00	 cmp	 DWORD PTR [esi+68], 0
  00007	7e 06		 jle	 SHORT $LN2@EnterPorta

; 591  : 		return false;

  00009	32 c0		 xor	 al, al
  0000b	5e		 pop	 esi

; 603  : }

  0000c	c2 04 00	 ret	 4
$LN2@EnterPorta:

; 592  : 	
; 593  : 	//if(this->m_BattleData.PhazeStep != 4)	//DeBug
; 594  : 		//return false;
; 595  : 
; 596  : 	if(!this->PortalSetState)

  0000f	80 7e 58 00	 cmp	 BYTE PTR [esi+88], 0
  00013	75 09		 jne	 SHORT $LN1@EnterPorta

; 597  : 	{
; 598  : 		this->SetNextState();

  00015	e8 00 00 00 00	 call	 ?SetNextState@CImperialBattleOfDestler@@QAEXXZ ; CImperialBattleOfDestler::SetNextState

; 599  : 		this->PortalSetState = true;

  0001a	c6 46 58 01	 mov	 BYTE PTR [esi+88], 1
$LN1@EnterPorta:

; 600  : 	}
; 601  : 
; 602  : 	return true;

  0001e	b0 01		 mov	 al, 1
  00020	5e		 pop	 esi

; 603  : }

  00021	c2 04 00	 ret	 4
?EnterPortal@CImperialBattleOfDestler@@QAE_NPAUOBJECTSTRUCT@@@Z ENDP ; CImperialBattleOfDestler::EnterPortal
_TEXT	ENDS
PUBLIC	?Run@CImperialBattleOfDestler@@QAEXXZ		; CImperialBattleOfDestler::Run
; Function compile flags: /Ogtp
;	COMDAT ?Run@CImperialBattleOfDestler@@QAEXXZ
_TEXT	SEGMENT
?Run@CImperialBattleOfDestler@@QAEXXZ PROC		; CImperialBattleOfDestler::Run, COMDAT
; _this$ = ecx

; 237  : 	switch ( this->m_BattleData.CurrentState )

  00000	8b 41 40	 mov	 eax, DWORD PTR [ecx+64]
  00003	83 f8 07	 cmp	 eax, 7
  00006	77 25		 ja	 SHORT $LN1@Run
  00008	ff 24 85 00 00
	00 00		 jmp	 DWORD PTR $LN14@Run[eax*4]
$LN7@Run:

; 238  : 	{
; 239  : 		case 0:
; 240  : 			return;
; 241  : 		case 1:
; 242  : 			this->ProcState_STANDBY1();

  0000f	e9 00 00 00 00	 jmp	 ?ProcState_STANDBY1@CImperialBattleOfDestler@@QAEXXZ ; CImperialBattleOfDestler::ProcState_STANDBY1
$LN6@Run:

; 243  : 			break;
; 244  : 		case 2:
; 245  : 			this->ProcState_PHAZE1();

  00014	e9 00 00 00 00	 jmp	 ?ProcState_PHAZE1@CImperialBattleOfDestler@@QAEXXZ ; CImperialBattleOfDestler::ProcState_PHAZE1
$LN5@Run:

; 246  : 			break;
; 247  : 		case 3:
; 248  : 			this->ProcState_STANDBY2();

  00019	e9 00 00 00 00	 jmp	 ?ProcState_STANDBY2@CImperialBattleOfDestler@@QAEXXZ ; CImperialBattleOfDestler::ProcState_STANDBY2
$LN4@Run:

; 249  : 			break;
; 250  : 		case 4:
; 251  : 			this->ProcState_PHAZE2();

  0001e	e9 00 00 00 00	 jmp	 ?ProcState_PHAZE2@CImperialBattleOfDestler@@QAEXXZ ; CImperialBattleOfDestler::ProcState_PHAZE2
$LN3@Run:

; 252  : 			break;
; 253  : 		case 5:
; 254  : 			this->ProcState_STANDBY3();

  00023	e9 00 00 00 00	 jmp	 ?ProcState_STANDBY3@CImperialBattleOfDestler@@QAEXXZ ; CImperialBattleOfDestler::ProcState_STANDBY3
$LN2@Run:

; 255  : 			break;
; 256  : 		case 6:
; 257  : 			this->ProcState_PHAZE3();

  00028	e9 00 00 00 00	 jmp	 ?ProcState_PHAZE3@CImperialBattleOfDestler@@QAEXXZ ; CImperialBattleOfDestler::ProcState_PHAZE3
$LN1@Run:

; 258  : 			break;
; 259  : 		case 7:
; 260  : 			this->ProcState_END();
; 261  : 			break;
; 262  : 	}
; 263  : }

  0002d	c3		 ret	 0
  0002e	8b ff		 npad	 2
$LN14@Run:
  00030	00 00 00 00	 DD	 $LN1@Run
  00034	00 00 00 00	 DD	 $LN7@Run
  00038	00 00 00 00	 DD	 $LN6@Run
  0003c	00 00 00 00	 DD	 $LN5@Run
  00040	00 00 00 00	 DD	 $LN4@Run
  00044	00 00 00 00	 DD	 $LN3@Run
  00048	00 00 00 00	 DD	 $LN2@Run
  0004c	00 00 00 00	 DD	 $LN1@Run
?Run@CImperialBattleOfDestler@@QAEXXZ ENDP		; CImperialBattleOfDestler::Run
_TEXT	ENDS
END
