; Listing generated by Microsoft (R) Optimizing Compiler Version 16.00.30319.01 

	TITLE	E:\work\tranet_version\GS\GameServer\ItemSystemFor380.cpp
	.686P
	.XMM
	include listing.inc
	.model	flat

INCLUDELIB LIBCMT
INCLUDELIB OLDNAMES

_DATA	SEGMENT
_g_iNpcUpDfLevel_CGATE DD 01H
	DD	02H
	DD	02dc6c0H
	DD	02H
	DD	03H
	DD	02dc6c0H
	DD	03H
	DD	04H
	DD	02dc6c0H
_g_iNpcUpDfLevel_CSTATUE DD 01H
	DD	03H
	DD	02dc6c0H
	DD	02H
	DD	05H
	DD	02dc6c0H
	DD	03H
	DD	07H
	DD	02dc6c0H
_g_iNpcUpMaxHP_CGATE DD 02625a0H
	DD	02H
	DD	0f4240H
	DD	03567e0H
	DD	03H
	DD	0f4240H
	DD	04f5880H
	DD	04H
	DD	0f4240H
_g_iNpcUpMaxHP_CSTATUE DD 02191c0H
	DD	03H
	DD	0f4240H
	DD	033e140H
	DD	05H
	DD	0f4240H
	DD	04c4b40H
	DD	07H
	DD	0f4240H
_g_iNpcUpRgLevel_CSTATUE DD 01H
	DD	03H
	DD	04c4b40H
	DD	02H
	DD	05H
	DD	04c4b40H
	DD	03H
	DD	07H
	DD	04c4b40H
_g_iCsUserReSpawnArea DD 023H
	DD	011H
	DD	090H
	DD	030H
	DD	04aH
	DD	090H
	DD	073H
	DD	09aH
	DD	023H
	DD	011H
	DD	090H
	DD	030H
_g_iNpcDefense_CGATE DD 064H
	DD	0b4H
	DD	012cH
	DD	0208H
_g_iNpcDefense_CSTATUE DD 050H
	DD	0b4H
	DD	0154H
	DD	0226H
_g_iCastleWallStepAxisY DD 071H
	DD	0a0H
	DD	0cbH
_DATA	ENDS
PUBLIC	??_H@YGXPAXIHP6EPAX0@Z@Z			; `vector constructor iterator'
; Function compile flags: /Ogtp
;	COMDAT ??_H@YGXPAXIHP6EPAX0@Z@Z
_TEXT	SEGMENT
___t$ = 8						; size = 4
___s$ = 12						; size = 4
___n$ = 16						; size = 4
___f$ = 20						; size = 4
??_H@YGXPAXIHP6EPAX0@Z@Z PROC				; `vector constructor iterator', COMDAT
  00000	55		 push	 ebp
  00001	8b ec		 mov	 ebp, esp
  00003	57		 push	 edi
  00004	8b 7d 10	 mov	 edi, DWORD PTR ___n$[ebp]
  00007	4f		 dec	 edi
  00008	78 14		 js	 SHORT $LN1@vector
  0000a	53		 push	 ebx
  0000b	8b 5d 14	 mov	 ebx, DWORD PTR ___f$[ebp]
  0000e	56		 push	 esi
  0000f	8b 75 08	 mov	 esi, DWORD PTR ___t$[ebp]
$LL2@vector:
  00012	8b ce		 mov	 ecx, esi
  00014	ff d3		 call	 ebx
  00016	03 75 0c	 add	 esi, DWORD PTR ___s$[ebp]
  00019	4f		 dec	 edi
  0001a	79 f6		 jns	 SHORT $LL2@vector
  0001c	5e		 pop	 esi
  0001d	5b		 pop	 ebx
$LN1@vector:
  0001e	5f		 pop	 edi
  0001f	5d		 pop	 ebp
  00020	c2 10 00	 ret	 16			; 00000010H
??_H@YGXPAXIHP6EPAX0@Z@Z ENDP				; `vector constructor iterator'
_TEXT	ENDS
PUBLIC	__$ArrayPad$
EXTRN	_isalnum:PROC
EXTRN	_isalpha:PROC
EXTRN	_atof:PROC
EXTRN	_isdigit:PROC
EXTRN	_getc:PROC
EXTRN	_ungetc:PROC
EXTRN	_isspace:PROC
EXTRN	_fgetc:PROC
EXTRN	___security_cookie:DWORD
EXTRN	__fltused:DWORD
EXTRN	@__security_check_cookie@4:PROC
_BSS	SEGMENT
_CurrentToken DD 01H DUP (?)
_TokenNumber DD	01H DUP (?)
_SMDFile DD	01H DUP (?)
_TokenString DB	064H DUP (?)
; Function compile flags: /Ogtp
; File e:\work\tranet_version\gs\include\readscript.h
_BSS	ENDS
;	COMDAT ?GetToken@@YA?AW4SMDToken@@XZ
_TEXT	SEGMENT
_TempString$ = -104					; size = 100
__$ArrayPad$ = -4					; size = 4
?GetToken@@YA?AW4SMDToken@@XZ PROC			; GetToken, COMDAT

; 24   : {

  00000	55		 push	 ebp
  00001	8b ec		 mov	 ebp, esp
  00003	83 ec 68	 sub	 esp, 104		; 00000068H
  00006	a1 00 00 00 00	 mov	 eax, DWORD PTR ___security_cookie
  0000b	33 c5		 xor	 eax, ebp
  0000d	89 45 fc	 mov	 DWORD PTR __$ArrayPad$[ebp], eax

; 25   : 	char ch;
; 26   : 	char* p;
; 27   : 	char TempString[100];
; 28   : 
; 29   : 	TokenString[0]=0;

  00010	c6 05 00 00 00
	00 00		 mov	 BYTE PTR _TokenString, 0
  00017	53		 push	 ebx
  00018	eb 06 8d 9b 00
	00 00 00	 npad	 8
$LL31@GetToken:

; 30   : 
; 31   : 	do
; 32   : 	{
; 33   : 		if ((ch=fgetc(SMDFile)) == -1)

  00020	a1 00 00 00 00	 mov	 eax, DWORD PTR _SMDFile
  00025	50		 push	 eax
  00026	e8 00 00 00 00	 call	 _fgetc
  0002b	8a d8		 mov	 bl, al
  0002d	83 c4 04	 add	 esp, 4
  00030	80 fb ff	 cmp	 bl, -1
  00033	74 64		 je	 SHORT $LN39@GetToken

; 36   : 		}
; 37   : 		else
; 38   : 		{	
; 39   : 			if (ch=='/')		// this is /

  00035	80 fb 2f	 cmp	 bl, 47			; 0000002fH
  00038	75 31		 jne	 SHORT $LN30@GetToken

; 40   : 			{
; 41   : 				if((ch=fgetc(SMDFile)) == '/')

  0003a	8b 0d 00 00 00
	00		 mov	 ecx, DWORD PTR _SMDFile
  00040	51		 push	 ecx
  00041	e8 00 00 00 00	 call	 _fgetc
  00046	8a d8		 mov	 bl, al
  00048	83 c4 04	 add	 esp, 4
  0004b	80 fb 2f	 cmp	 bl, 47			; 0000002fH
  0004e	75 1b		 jne	 SHORT $LN30@GetToken
$LL24@GetToken:

; 42   : 				{
; 43   : 					while ((ch != '\n') && (ch != -1))	// End of Line (EOL)

  00050	80 fb ff	 cmp	 bl, -1
  00053	74 44		 je	 SHORT $LN39@GetToken

; 44   : 					{
; 45   : 						ch=fgetc(SMDFile);

  00055	8b 15 00 00 00
	00		 mov	 edx, DWORD PTR _SMDFile
  0005b	52		 push	 edx
  0005c	e8 00 00 00 00	 call	 _fgetc
  00061	8a d8		 mov	 bl, al
  00063	83 c4 04	 add	 esp, 4
  00066	80 fb 0a	 cmp	 bl, 10			; 0000000aH
  00069	75 e5		 jne	 SHORT $LL24@GetToken
$LN30@GetToken:

; 46   : 					}
; 47   : 	
; 48   : 					if (ch == -1)
; 49   : 					{
; 50   : 						return END;	// End of FILE
; 51   : 					}
; 52   : 				}
; 53   : 			}
; 54   : 		}
; 55   : 	}
; 56   : 	while (isspace(ch) != 0);

  0006b	0f be c3	 movsx	 eax, bl
  0006e	50		 push	 eax
  0006f	e8 00 00 00 00	 call	 _isspace
  00074	83 c4 04	 add	 esp, 4
  00077	85 c0		 test	 eax, eax
  00079	75 a5		 jne	 SHORT $LL31@GetToken

; 57   : 
; 58   : 	
; 59   : 	switch(ch)

  0007b	0f be c3	 movsx	 eax, bl
  0007e	8d 48 de	 lea	 ecx, DWORD PTR [eax-34]
  00081	56		 push	 esi
  00082	83 f9 5b	 cmp	 ecx, 91			; 0000005bH
  00085	0f 87 2b 01 00
	00		 ja	 $LN6@GetToken
  0008b	0f b6 89 00 00
	00 00		 movzx	 ecx, BYTE PTR $LN46@GetToken[ecx]
  00092	ff 24 8d 00 00
	00 00		 jmp	 DWORD PTR $LN50@GetToken[ecx*4]
$LN39@GetToken:

; 34   : 		{
; 35   : 			return END;	// End of FILE (EOF)

  00099	b8 02 00 00 00	 mov	 eax, 2
  0009e	5b		 pop	 ebx

; 147  : 		}
; 148  : 		break;
; 149  : 
; 150  : 	}
; 151  : 
; 152  : 	return NAME;
; 153  : }

  0009f	8b 4d fc	 mov	 ecx, DWORD PTR __$ArrayPad$[ebp]
  000a2	33 cd		 xor	 ecx, ebp
  000a4	e8 00 00 00 00	 call	 @__security_check_cookie@4
  000a9	8b e5		 mov	 esp, ebp
  000ab	5d		 pop	 ebp
  000ac	c3		 ret	 0
$LN19@GetToken:

; 60   : 	{
; 61   : 
; 62   : 	case 0x23:	// #
; 63   : 		return CurrentToken=COMMAND;

  000ad	b8 23 00 00 00	 mov	 eax, 35			; 00000023H
  000b2	e9 99 01 00 00	 jmp	 $LN48@GetToken
$LN18@GetToken:

; 64   : 		break;
; 65   : 	
; 66   : 	case 0x3B:	// ;
; 67   : 		return CurrentToken=SEMICOLON;

  000b7	b8 3b 00 00 00	 mov	 eax, 59			; 0000003bH
  000bc	e9 8f 01 00 00	 jmp	 $LN48@GetToken
$LN17@GetToken:

; 68   : 		break;
; 69   : 	
; 70   : 	case 0x2C:	// ,
; 71   : 
; 72   : 		return CurrentToken=COMMA;

  000c1	b8 2c 00 00 00	 mov	 eax, 44			; 0000002cH
  000c6	e9 85 01 00 00	 jmp	 $LN48@GetToken
$LN16@GetToken:

; 73   : 		break;
; 74   : 	
; 75   : 	case 0x7B:	// {
; 76   : 		return CurrentToken = LP;

  000cb	b8 7b 00 00 00	 mov	 eax, 123		; 0000007bH
  000d0	e9 7b 01 00 00	 jmp	 $LN48@GetToken
$LN15@GetToken:

; 77   : 		break;
; 78   : 
; 79   : 	case 0x7D:	// }
; 80   : 		return CurrentToken = RP;

  000d5	b8 7d 00 00 00	 mov	 eax, 125		; 0000007dH
  000da	e9 71 01 00 00	 jmp	 $LN48@GetToken
$LN14@GetToken:

; 81   : 		break;
; 82   : 	// Nice Index Table :)	by Deathway
; 83   : 	// Numbers Case
; 84   : 	case 0x2D:	//-
; 85   : 	case 0x2E:	//.
; 86   : 	case '0':	//0
; 87   : 	case '1':	//1
; 88   : 	case '2':	//2
; 89   : 	case '3':	//3
; 90   : 	case '4':	//4		
; 91   : 	case '5':	//5
; 92   : 	case '6':	//6
; 93   : 	case '7':	//7
; 94   : 	case '8':	//8
; 95   : 	case '9':	//9
; 96   : 		ungetc(ch, SMDFile);

  000df	8b 15 00 00 00
	00		 mov	 edx, DWORD PTR _SMDFile
  000e5	52		 push	 edx
  000e6	50		 push	 eax
  000e7	e8 00 00 00 00	 call	 _ungetc

; 97   : 		p = TempString;
; 98   : 		
; 99   : 		while (((ch=getc(SMDFile)) != -1) && ((ch == 0x2E) || (isdigit(ch) != 0) || (ch == 0x2D)))  // 2e '.'  2D '-'

  000ec	a1 00 00 00 00	 mov	 eax, DWORD PTR _SMDFile
  000f1	50		 push	 eax
  000f2	8d 75 98	 lea	 esi, DWORD PTR _TempString$[ebp]
  000f5	e8 00 00 00 00	 call	 _getc
  000fa	8a d8		 mov	 bl, al
  000fc	83 c4 0c	 add	 esp, 12			; 0000000cH
  000ff	80 fb ff	 cmp	 bl, -1
  00102	74 33		 je	 SHORT $LN12@GetToken
$LL13@GetToken:
  00104	80 fb 2e	 cmp	 bl, 46			; 0000002eH
  00107	74 15		 je	 SHORT $LN11@GetToken
  00109	0f be cb	 movsx	 ecx, bl
  0010c	51		 push	 ecx
  0010d	e8 00 00 00 00	 call	 _isdigit
  00112	83 c4 04	 add	 esp, 4
  00115	85 c0		 test	 eax, eax
  00117	75 05		 jne	 SHORT $LN11@GetToken
  00119	80 fb 2d	 cmp	 bl, 45			; 0000002dH
  0011c	75 19		 jne	 SHORT $LN12@GetToken
$LN11@GetToken:
  0011e	8b 15 00 00 00
	00		 mov	 edx, DWORD PTR _SMDFile

; 100  : 		{
; 101  : 			*p = ch;	// Construct a String

  00124	88 1e		 mov	 BYTE PTR [esi], bl
  00126	52		 push	 edx

; 102  : 			p++;

  00127	46		 inc	 esi
  00128	e8 00 00 00 00	 call	 _getc
  0012d	8a d8		 mov	 bl, al
  0012f	83 c4 04	 add	 esp, 4
  00132	80 fb ff	 cmp	 bl, -1
  00135	75 cd		 jne	 SHORT $LL13@GetToken
$LN12@GetToken:

; 103  : 		}		
; 104  : 		*p = 0;
; 105  : 		TokenNumber = atof( TempString);	// Select the first Byte as Main ID

  00137	8d 45 98	 lea	 eax, DWORD PTR _TempString$[ebp]
  0013a	50		 push	 eax
  0013b	c6 06 00	 mov	 BYTE PTR [esi], 0
  0013e	e8 00 00 00 00	 call	 _atof
  00143	d9 1d 00 00 00
	00		 fstp	 DWORD PTR _TokenNumber
  00149	83 c4 04	 add	 esp, 4
  0014c	5e		 pop	 esi

; 106  : 		return CurrentToken  = NUMBER ;

  0014d	c7 05 00 00 00
	00 01 00 00 00	 mov	 DWORD PTR _CurrentToken, 1
  00157	b8 01 00 00 00	 mov	 eax, 1
  0015c	5b		 pop	 ebx

; 147  : 		}
; 148  : 		break;
; 149  : 
; 150  : 	}
; 151  : 
; 152  : 	return NAME;
; 153  : }

  0015d	8b 4d fc	 mov	 ecx, DWORD PTR __$ArrayPad$[ebp]
  00160	33 cd		 xor	 ecx, ebp
  00162	e8 00 00 00 00	 call	 @__security_check_cookie@4
  00167	8b e5		 mov	 esp, ebp
  00169	5d		 pop	 ebp
  0016a	c3		 ret	 0
$LN10@GetToken:

; 107  : 		break;
; 108  : 
; 109  : 	case '\"':	// "	String Case
; 110  : 		p=&TokenString[0];
; 111  : 		
; 112  : 		while (((ch=getc(SMDFile)) != -1 ) && (ch != 0x22))	// nice

  0016b	8b 0d 00 00 00
	00		 mov	 ecx, DWORD PTR _SMDFile
  00171	51		 push	 ecx
  00172	be 00 00 00 00	 mov	 esi, OFFSET _TokenString
  00177	e8 00 00 00 00	 call	 _getc
  0017c	83 c4 04	 add	 esp, 4
  0017f	3c ff		 cmp	 al, -1
  00181	74 1e		 je	 SHORT $LN8@GetToken
$LL9@GetToken:
  00183	3c 22		 cmp	 al, 34			; 00000022H
  00185	0f 84 a1 00 00
	00		 je	 $LN7@GetToken
  0018b	8b 15 00 00 00
	00		 mov	 edx, DWORD PTR _SMDFile

; 113  : 		{
; 114  : 			*p = ch;

  00191	88 06		 mov	 BYTE PTR [esi], al
  00193	52		 push	 edx

; 115  : 			p++;

  00194	46		 inc	 esi
  00195	e8 00 00 00 00	 call	 _getc
  0019a	83 c4 04	 add	 esp, 4
  0019d	3c ff		 cmp	 al, -1
  0019f	75 e2		 jne	 SHORT $LL9@GetToken
$LN8@GetToken:

; 116  : 		}
; 117  : 		if (ch != 0x22 )

  001a1	3c 22		 cmp	 al, 34			; 00000022H
  001a3	0f 84 83 00 00
	00		 je	 $LN7@GetToken

; 118  : 		{
; 119  : 			ungetc(ch, SMDFile);

  001a9	8b 0d 00 00 00
	00		 mov	 ecx, DWORD PTR _SMDFile
  001af	0f be d0	 movsx	 edx, al
  001b2	51		 push	 ecx
  001b3	52		 push	 edx

; 120  : 		}
; 121  : 		*p = 0;
; 122  : 		return CurrentToken = NAME;

  001b4	eb 6e		 jmp	 SHORT $LN49@GetToken
$LN6@GetToken:

; 123  : 		break;
; 124  : 
; 125  : 	default:	// Others
; 126  : 		if (isalpha(ch))

  001b6	50		 push	 eax
  001b7	e8 00 00 00 00	 call	 _isalpha
  001bc	83 c4 04	 add	 esp, 4
  001bf	85 c0		 test	 eax, eax
  001c1	0f 84 84 00 00
	00		 je	 $LN5@GetToken

; 127  : 		{
; 128  : 			p=&TokenString[0];
; 129  : 			*p=ch;
; 130  : 			p++;
; 131  : 
; 132  : 			while ( ((ch=getc(SMDFile)) != -1) && ( (ch == 0x2E) || (ch == 0x5F) || (isalnum(ch) != 0) ) )

  001c7	a1 00 00 00 00	 mov	 eax, DWORD PTR _SMDFile
  001cc	50		 push	 eax
  001cd	88 1d 00 00 00
	00		 mov	 BYTE PTR _TokenString, bl
  001d3	be 01 00 00 00	 mov	 esi, OFFSET _TokenString+1
  001d8	e8 00 00 00 00	 call	 _getc
  001dd	8a d8		 mov	 bl, al
  001df	83 c4 04	 add	 esp, 4
  001e2	80 fb ff	 cmp	 bl, -1
  001e5	74 33		 je	 SHORT $LN3@GetToken
$LL4@GetToken:
  001e7	80 fb 2e	 cmp	 bl, 46			; 0000002eH
  001ea	74 15		 je	 SHORT $LN2@GetToken
  001ec	80 fb 5f	 cmp	 bl, 95			; 0000005fH
  001ef	74 10		 je	 SHORT $LN2@GetToken
  001f1	0f be cb	 movsx	 ecx, bl
  001f4	51		 push	 ecx
  001f5	e8 00 00 00 00	 call	 _isalnum
  001fa	83 c4 04	 add	 esp, 4
  001fd	85 c0		 test	 eax, eax
  001ff	74 19		 je	 SHORT $LN3@GetToken
$LN2@GetToken:
  00201	8b 15 00 00 00
	00		 mov	 edx, DWORD PTR _SMDFile

; 133  : 			{
; 134  : 				*p=ch;

  00207	88 1e		 mov	 BYTE PTR [esi], bl
  00209	52		 push	 edx

; 135  : 				p++;

  0020a	46		 inc	 esi
  0020b	e8 00 00 00 00	 call	 _getc
  00210	8a d8		 mov	 bl, al
  00212	83 c4 04	 add	 esp, 4
  00215	80 fb ff	 cmp	 bl, -1
  00218	75 cd		 jne	 SHORT $LL4@GetToken
$LN3@GetToken:

; 136  : 				
; 137  : 			}
; 138  : 
; 139  : 			ungetc(ch, SMDFile);

  0021a	a1 00 00 00 00	 mov	 eax, DWORD PTR _SMDFile
  0021f	0f be cb	 movsx	 ecx, bl
  00222	50		 push	 eax
  00223	51		 push	 ecx
$LN49@GetToken:
  00224	e8 00 00 00 00	 call	 _ungetc
  00229	83 c4 08	 add	 esp, 8
$LN7@GetToken:

; 140  : 			*p=0;

  0022c	c6 06 00	 mov	 BYTE PTR [esi], 0
  0022f	5e		 pop	 esi

; 141  : 			CurrentToken=NAME;

  00230	c7 05 00 00 00
	00 00 00 00 00	 mov	 DWORD PTR _CurrentToken, 0

; 142  : 			return CurrentToken;

  0023a	33 c0		 xor	 eax, eax
  0023c	5b		 pop	 ebx

; 147  : 		}
; 148  : 		break;
; 149  : 
; 150  : 	}
; 151  : 
; 152  : 	return NAME;
; 153  : }

  0023d	8b 4d fc	 mov	 ecx, DWORD PTR __$ArrayPad$[ebp]
  00240	33 cd		 xor	 ecx, ebp
  00242	e8 00 00 00 00	 call	 @__security_check_cookie@4
  00247	8b e5		 mov	 esp, ebp
  00249	5d		 pop	 ebp
  0024a	c3		 ret	 0
$LN5@GetToken:

; 143  : 		}
; 144  : 		else
; 145  : 		{
; 146  : 			return CurrentToken = SMD_ERROR; // '<'

  0024b	b8 3c 00 00 00	 mov	 eax, 60			; 0000003cH
$LN48@GetToken:

; 147  : 		}
; 148  : 		break;
; 149  : 
; 150  : 	}
; 151  : 
; 152  : 	return NAME;
; 153  : }

  00250	8b 4d fc	 mov	 ecx, DWORD PTR __$ArrayPad$[ebp]
  00253	5e		 pop	 esi
  00254	33 cd		 xor	 ecx, ebp
  00256	a3 00 00 00 00	 mov	 DWORD PTR _CurrentToken, eax
  0025b	5b		 pop	 ebx
  0025c	e8 00 00 00 00	 call	 @__security_check_cookie@4
  00261	8b e5		 mov	 esp, ebp
  00263	5d		 pop	 ebp
  00264	c3		 ret	 0
  00265	8d 49 00	 npad	 3
$LN50@GetToken:
  00268	00 00 00 00	 DD	 $LN10@GetToken
  0026c	00 00 00 00	 DD	 $LN19@GetToken
  00270	00 00 00 00	 DD	 $LN17@GetToken
  00274	00 00 00 00	 DD	 $LN14@GetToken
  00278	00 00 00 00	 DD	 $LN18@GetToken
  0027c	00 00 00 00	 DD	 $LN16@GetToken
  00280	00 00 00 00	 DD	 $LN15@GetToken
  00284	00 00 00 00	 DD	 $LN6@GetToken
$LN46@GetToken:
  00288	00		 DB	 0
  00289	01		 DB	 1
  0028a	07		 DB	 7
  0028b	07		 DB	 7
  0028c	07		 DB	 7
  0028d	07		 DB	 7
  0028e	07		 DB	 7
  0028f	07		 DB	 7
  00290	07		 DB	 7
  00291	07		 DB	 7
  00292	02		 DB	 2
  00293	03		 DB	 3
  00294	03		 DB	 3
  00295	07		 DB	 7
  00296	03		 DB	 3
  00297	03		 DB	 3
  00298	03		 DB	 3
  00299	03		 DB	 3
  0029a	03		 DB	 3
  0029b	03		 DB	 3
  0029c	03		 DB	 3
  0029d	03		 DB	 3
  0029e	03		 DB	 3
  0029f	03		 DB	 3
  002a0	07		 DB	 7
  002a1	04		 DB	 4
  002a2	07		 DB	 7
  002a3	07		 DB	 7
  002a4	07		 DB	 7
  002a5	07		 DB	 7
  002a6	07		 DB	 7
  002a7	07		 DB	 7
  002a8	07		 DB	 7
  002a9	07		 DB	 7
  002aa	07		 DB	 7
  002ab	07		 DB	 7
  002ac	07		 DB	 7
  002ad	07		 DB	 7
  002ae	07		 DB	 7
  002af	07		 DB	 7
  002b0	07		 DB	 7
  002b1	07		 DB	 7
  002b2	07		 DB	 7
  002b3	07		 DB	 7
  002b4	07		 DB	 7
  002b5	07		 DB	 7
  002b6	07		 DB	 7
  002b7	07		 DB	 7
  002b8	07		 DB	 7
  002b9	07		 DB	 7
  002ba	07		 DB	 7
  002bb	07		 DB	 7
  002bc	07		 DB	 7
  002bd	07		 DB	 7
  002be	07		 DB	 7
  002bf	07		 DB	 7
  002c0	07		 DB	 7
  002c1	07		 DB	 7
  002c2	07		 DB	 7
  002c3	07		 DB	 7
  002c4	07		 DB	 7
  002c5	07		 DB	 7
  002c6	07		 DB	 7
  002c7	07		 DB	 7
  002c8	07		 DB	 7
  002c9	07		 DB	 7
  002ca	07		 DB	 7
  002cb	07		 DB	 7
  002cc	07		 DB	 7
  002cd	07		 DB	 7
  002ce	07		 DB	 7
  002cf	07		 DB	 7
  002d0	07		 DB	 7
  002d1	07		 DB	 7
  002d2	07		 DB	 7
  002d3	07		 DB	 7
  002d4	07		 DB	 7
  002d5	07		 DB	 7
  002d6	07		 DB	 7
  002d7	07		 DB	 7
  002d8	07		 DB	 7
  002d9	07		 DB	 7
  002da	07		 DB	 7
  002db	07		 DB	 7
  002dc	07		 DB	 7
  002dd	07		 DB	 7
  002de	07		 DB	 7
  002df	07		 DB	 7
  002e0	07		 DB	 7
  002e1	05		 DB	 5
  002e2	07		 DB	 7
  002e3	06		 DB	 6
?GetToken@@YA?AW4SMDToken@@XZ ENDP			; GetToken
_TEXT	ENDS
PUBLIC	??_7CItemSystemFor380@@6B@			; CItemSystemFor380::`vftable'
PUBLIC	??0CItemSystemFor380@@QAE@XZ			; CItemSystemFor380::CItemSystemFor380
PUBLIC	??_R4CItemSystemFor380@@6B@			; CItemSystemFor380::`RTTI Complete Object Locator'
PUBLIC	??_R0?AVCItemSystemFor380@@@8			; CItemSystemFor380 `RTTI Type Descriptor'
PUBLIC	??_R3CItemSystemFor380@@8			; CItemSystemFor380::`RTTI Class Hierarchy Descriptor'
PUBLIC	??_R2CItemSystemFor380@@8			; CItemSystemFor380::`RTTI Base Class Array'
PUBLIC	??_R1A@?0A@EA@CItemSystemFor380@@8		; CItemSystemFor380::`RTTI Base Class Descriptor at (0,-1,0,64)'
EXTRN	_memset:PROC
EXTRN	??_7type_info@@6B@:QWORD			; type_info::`vftable'
EXTRN	??_ECItemSystemFor380@@UAEPAXI@Z:PROC		; CItemSystemFor380::`vector deleting destructor'
;	COMDAT ??_R1A@?0A@EA@CItemSystemFor380@@8
; File e:\work\tranet_version\gs\gameserver\itemsystemfor380.cpp
rdata$r	SEGMENT
??_R1A@?0A@EA@CItemSystemFor380@@8 DD FLAT:??_R0?AVCItemSystemFor380@@@8 ; CItemSystemFor380::`RTTI Base Class Descriptor at (0,-1,0,64)'
	DD	00H
	DD	00H
	DD	0ffffffffH
	DD	00H
	DD	040H
	DD	FLAT:??_R3CItemSystemFor380@@8
rdata$r	ENDS
;	COMDAT ??_R2CItemSystemFor380@@8
rdata$r	SEGMENT
??_R2CItemSystemFor380@@8 DD FLAT:??_R1A@?0A@EA@CItemSystemFor380@@8 ; CItemSystemFor380::`RTTI Base Class Array'
rdata$r	ENDS
;	COMDAT ??_R3CItemSystemFor380@@8
rdata$r	SEGMENT
??_R3CItemSystemFor380@@8 DD 00H			; CItemSystemFor380::`RTTI Class Hierarchy Descriptor'
	DD	00H
	DD	01H
	DD	FLAT:??_R2CItemSystemFor380@@8
rdata$r	ENDS
;	COMDAT ??_R0?AVCItemSystemFor380@@@8
_DATA	SEGMENT
??_R0?AVCItemSystemFor380@@@8 DD FLAT:??_7type_info@@6B@ ; CItemSystemFor380 `RTTI Type Descriptor'
	DD	00H
	DB	'.?AVCItemSystemFor380@@', 00H
_DATA	ENDS
;	COMDAT ??_R4CItemSystemFor380@@6B@
rdata$r	SEGMENT
??_R4CItemSystemFor380@@6B@ DD 00H			; CItemSystemFor380::`RTTI Complete Object Locator'
	DD	00H
	DD	00H
	DD	FLAT:??_R0?AVCItemSystemFor380@@@8
	DD	FLAT:??_R3CItemSystemFor380@@8
rdata$r	ENDS
;	COMDAT ??_7CItemSystemFor380@@6B@
CONST	SEGMENT
??_7CItemSystemFor380@@6B@ DD FLAT:??_R4CItemSystemFor380@@6B@ ; CItemSystemFor380::`vftable'
	DD	FLAT:??_ECItemSystemFor380@@UAEPAXI@Z
; Function compile flags: /Ogtp
CONST	ENDS
;	COMDAT ??0CItemSystemFor380@@QAE@XZ
_TEXT	SEGMENT
??0CItemSystemFor380@@QAE@XZ PROC			; CItemSystemFor380::CItemSystemFor380, COMDAT
; _this$ = ecx

; 21   : {

  00000	56		 push	 esi
  00001	8b f1		 mov	 esi, ecx

; 22   : 	memset(this->m_itemOption, 0, sizeof(this->m_itemOption));

  00003	68 00 00 02 00	 push	 131072			; 00020000H
  00008	8d 46 04	 lea	 eax, DWORD PTR [esi+4]
  0000b	6a 00		 push	 0
  0000d	50		 push	 eax
  0000e	c7 06 00 00 00
	00		 mov	 DWORD PTR [esi], OFFSET ??_7CItemSystemFor380@@6B@
  00014	e8 00 00 00 00	 call	 _memset
  00019	83 c4 0c	 add	 esp, 12			; 0000000cH

; 23   : }

  0001c	8b c6		 mov	 eax, esi
  0001e	5e		 pop	 esi
  0001f	c3		 ret	 0
??0CItemSystemFor380@@QAE@XZ ENDP			; CItemSystemFor380::CItemSystemFor380
_TEXT	ENDS
PUBLIC	??1CItemSystemFor380@@UAE@XZ			; CItemSystemFor380::~CItemSystemFor380
; Function compile flags: /Ogtp
;	COMDAT ??1CItemSystemFor380@@UAE@XZ
_TEXT	SEGMENT
??1CItemSystemFor380@@UAE@XZ PROC			; CItemSystemFor380::~CItemSystemFor380, COMDAT
; _this$ = ecx

; 26   : {

  00000	c7 01 00 00 00
	00		 mov	 DWORD PTR [ecx], OFFSET ??_7CItemSystemFor380@@6B@

; 27   : 	return;
; 28   : }

  00006	c3		 ret	 0
??1CItemSystemFor380@@UAE@XZ ENDP			; CItemSystemFor380::~CItemSystemFor380
_TEXT	ENDS
PUBLIC	??_C@_0BB@NEOEMLNM@MixRateForGrade3?$AA@	; `string'
PUBLIC	??_C@_0BB@MNPPPKJN@MixRateForGrade2?$AA@	; `string'
PUBLIC	??_C@_0BB@OGNCKJFO@MixRateForGrade1?$AA@	; `string'
PUBLIC	??_C@_0O@OBABOJH@NeedZenForMix?$AA@		; `string'
PUBLIC	??_C@_0BL@NIODIINL@CountOfSuhoOfHarmonyForMix?$AA@ ; `string'
PUBLIC	??_C@_0BM@LEJPEKJC@CountOfJewelOfHarmonyForMix?$AA@ ; `string'
PUBLIC	??_C@_0P@EMJDPFDH@GameServerInfo?$AA@		; `string'
PUBLIC	??_C@_0BE@IOGDNNHO@System380ItemSystem?$AA@	; `string'
PUBLIC	??_C@_0BB@IGLHFEOF@commonserver?4cfg?$AA@	; `string'
PUBLIC	?_InitOption@CItemSystemFor380@@QAEXXZ		; CItemSystemFor380::_InitOption
EXTRN	__imp__GetPrivateProfileIntA@16:PROC
EXTRN	?GetNewPath@CDirPath@@QAEPADPAD@Z:PROC		; CDirPath::GetNewPath
EXTRN	?gDirPath@@3VCDirPath@@A:BYTE			; gDirPath
;	COMDAT ??_C@_0BB@NEOEMLNM@MixRateForGrade3?$AA@
CONST	SEGMENT
??_C@_0BB@NEOEMLNM@MixRateForGrade3?$AA@ DB 'MixRateForGrade3', 00H ; `string'
CONST	ENDS
;	COMDAT ??_C@_0BB@MNPPPKJN@MixRateForGrade2?$AA@
CONST	SEGMENT
??_C@_0BB@MNPPPKJN@MixRateForGrade2?$AA@ DB 'MixRateForGrade2', 00H ; `string'
CONST	ENDS
;	COMDAT ??_C@_0BB@OGNCKJFO@MixRateForGrade1?$AA@
CONST	SEGMENT
??_C@_0BB@OGNCKJFO@MixRateForGrade1?$AA@ DB 'MixRateForGrade1', 00H ; `string'
CONST	ENDS
;	COMDAT ??_C@_0O@OBABOJH@NeedZenForMix?$AA@
CONST	SEGMENT
??_C@_0O@OBABOJH@NeedZenForMix?$AA@ DB 'NeedZenForMix', 00H ; `string'
CONST	ENDS
;	COMDAT ??_C@_0BL@NIODIINL@CountOfSuhoOfHarmonyForMix?$AA@
CONST	SEGMENT
??_C@_0BL@NIODIINL@CountOfSuhoOfHarmonyForMix?$AA@ DB 'CountOfSuhoOfHarmo'
	DB	'nyForMix', 00H				; `string'
CONST	ENDS
;	COMDAT ??_C@_0BM@LEJPEKJC@CountOfJewelOfHarmonyForMix?$AA@
CONST	SEGMENT
??_C@_0BM@LEJPEKJC@CountOfJewelOfHarmonyForMix?$AA@ DB 'CountOfJewelOfHar'
	DB	'monyForMix', 00H				; `string'
CONST	ENDS
;	COMDAT ??_C@_0P@EMJDPFDH@GameServerInfo?$AA@
CONST	SEGMENT
??_C@_0P@EMJDPFDH@GameServerInfo?$AA@ DB 'GameServerInfo', 00H ; `string'
CONST	ENDS
;	COMDAT ??_C@_0BE@IOGDNNHO@System380ItemSystem?$AA@
CONST	SEGMENT
??_C@_0BE@IOGDNNHO@System380ItemSystem?$AA@ DB 'System380ItemSystem', 00H ; `string'
CONST	ENDS
;	COMDAT ??_C@_0BB@IGLHFEOF@commonserver?4cfg?$AA@
CONST	SEGMENT
??_C@_0BB@IGLHFEOF@commonserver?4cfg?$AA@ DB 'commonserver.cfg', 00H ; `string'
; Function compile flags: /Ogtp
CONST	ENDS
;	COMDAT ?_InitOption@CItemSystemFor380@@QAEXXZ
_TEXT	SEGMENT
?_InitOption@CItemSystemFor380@@QAEXXZ PROC		; CItemSystemFor380::_InitOption, COMDAT
; _this$ = ecx

; 32   : {

  00000	56		 push	 esi
  00001	57		 push	 edi
  00002	8b f1		 mov	 esi, ecx

; 33   : 	memset(this->m_itemOption, 0, sizeof(this->m_itemOption));

  00004	68 00 00 02 00	 push	 131072			; 00020000H
  00009	8d 46 04	 lea	 eax, DWORD PTR [esi+4]
  0000c	6a 00		 push	 0
  0000e	50		 push	 eax
  0000f	e8 00 00 00 00	 call	 _memset
  00014	83 c4 0c	 add	 esp, 12			; 0000000cH

; 34   : 
; 35   : 	this->m_iNeedJewelOfHarmonyCount = 1;
; 36   : 	this->m_iNeedJewelOfSuhoCount = 1;
; 37   : 	this->m_iNeedZenFor380Option = 10000000;
; 38   : 	this->m_iRateSuccessRateForMix1 = 50;
; 39   : 	this->m_iRateSuccessRateForMix2 = 60;
; 40   : 	this->m_iRateSuccessRateForMix3 = 100;
; 41   : 
; 42   : 	this->m_bSystemFor380ItemOption = GetPrivateProfileInt("GameServerInfo", "System380ItemSystem", 0, gDirPath.GetNewPath("commonserver.cfg"));

  00017	68 00 00 00 00	 push	 OFFSET ??_C@_0BB@IGLHFEOF@commonserver?4cfg?$AA@
  0001c	b9 00 00 00 00	 mov	 ecx, OFFSET ?gDirPath@@3VCDirPath@@A ; gDirPath
  00021	c7 86 08 00 02
	00 01 00 00 00	 mov	 DWORD PTR [esi+131080], 1
  0002b	c7 86 0c 00 02
	00 01 00 00 00	 mov	 DWORD PTR [esi+131084], 1
  00035	c7 86 10 00 02
	00 80 96 98 00	 mov	 DWORD PTR [esi+131088], 10000000 ; 00989680H
  0003f	c7 86 14 00 02
	00 32 00 00 00	 mov	 DWORD PTR [esi+131092], 50 ; 00000032H
  00049	c7 86 18 00 02
	00 3c 00 00 00	 mov	 DWORD PTR [esi+131096], 60 ; 0000003cH
  00053	c7 86 1c 00 02
	00 64 00 00 00	 mov	 DWORD PTR [esi+131100], 100 ; 00000064H
  0005d	e8 00 00 00 00	 call	 ?GetNewPath@CDirPath@@QAEPADPAD@Z ; CDirPath::GetNewPath
  00062	8b 3d 00 00 00
	00		 mov	 edi, DWORD PTR __imp__GetPrivateProfileIntA@16
  00068	50		 push	 eax
  00069	6a 00		 push	 0
  0006b	68 00 00 00 00	 push	 OFFSET ??_C@_0BE@IOGDNNHO@System380ItemSystem?$AA@
  00070	68 00 00 00 00	 push	 OFFSET ??_C@_0P@EMJDPFDH@GameServerInfo?$AA@
  00075	ff d7		 call	 edi

; 43   : 	this->m_iNeedJewelOfHarmonyCount = GetPrivateProfileInt("GameServerInfo", "CountOfJewelOfHarmonyForMix", 1, gDirPath.GetNewPath("commonserver.cfg"));

  00077	68 00 00 00 00	 push	 OFFSET ??_C@_0BB@IGLHFEOF@commonserver?4cfg?$AA@
  0007c	b9 00 00 00 00	 mov	 ecx, OFFSET ?gDirPath@@3VCDirPath@@A ; gDirPath
  00081	89 86 04 00 02
	00		 mov	 DWORD PTR [esi+131076], eax
  00087	e8 00 00 00 00	 call	 ?GetNewPath@CDirPath@@QAEPADPAD@Z ; CDirPath::GetNewPath
  0008c	50		 push	 eax
  0008d	6a 01		 push	 1
  0008f	68 00 00 00 00	 push	 OFFSET ??_C@_0BM@LEJPEKJC@CountOfJewelOfHarmonyForMix?$AA@
  00094	68 00 00 00 00	 push	 OFFSET ??_C@_0P@EMJDPFDH@GameServerInfo?$AA@
  00099	ff d7		 call	 edi

; 44   : 	this->m_iNeedJewelOfSuhoCount = GetPrivateProfileInt("GameServerInfo", "CountOfSuhoOfHarmonyForMix", 1, gDirPath.GetNewPath("commonserver.cfg"));

  0009b	68 00 00 00 00	 push	 OFFSET ??_C@_0BB@IGLHFEOF@commonserver?4cfg?$AA@
  000a0	b9 00 00 00 00	 mov	 ecx, OFFSET ?gDirPath@@3VCDirPath@@A ; gDirPath
  000a5	89 86 08 00 02
	00		 mov	 DWORD PTR [esi+131080], eax
  000ab	e8 00 00 00 00	 call	 ?GetNewPath@CDirPath@@QAEPADPAD@Z ; CDirPath::GetNewPath
  000b0	50		 push	 eax
  000b1	6a 01		 push	 1
  000b3	68 00 00 00 00	 push	 OFFSET ??_C@_0BL@NIODIINL@CountOfSuhoOfHarmonyForMix?$AA@
  000b8	68 00 00 00 00	 push	 OFFSET ??_C@_0P@EMJDPFDH@GameServerInfo?$AA@
  000bd	ff d7		 call	 edi

; 45   : 	this->m_iNeedZenFor380Option = GetPrivateProfileInt("GameServerInfo", "NeedZenForMix", 10000000, gDirPath.GetNewPath("commonserver.cfg"));

  000bf	68 00 00 00 00	 push	 OFFSET ??_C@_0BB@IGLHFEOF@commonserver?4cfg?$AA@
  000c4	b9 00 00 00 00	 mov	 ecx, OFFSET ?gDirPath@@3VCDirPath@@A ; gDirPath
  000c9	89 86 0c 00 02
	00		 mov	 DWORD PTR [esi+131084], eax
  000cf	e8 00 00 00 00	 call	 ?GetNewPath@CDirPath@@QAEPADPAD@Z ; CDirPath::GetNewPath
  000d4	50		 push	 eax
  000d5	68 80 96 98 00	 push	 10000000		; 00989680H
  000da	68 00 00 00 00	 push	 OFFSET ??_C@_0O@OBABOJH@NeedZenForMix?$AA@
  000df	68 00 00 00 00	 push	 OFFSET ??_C@_0P@EMJDPFDH@GameServerInfo?$AA@
  000e4	ff d7		 call	 edi

; 46   : 	this->m_iRateSuccessRateForMix1 = GetPrivateProfileInt("GameServerInfo", "MixRateForGrade1", 50, gDirPath.GetNewPath("commonserver.cfg"));

  000e6	68 00 00 00 00	 push	 OFFSET ??_C@_0BB@IGLHFEOF@commonserver?4cfg?$AA@
  000eb	b9 00 00 00 00	 mov	 ecx, OFFSET ?gDirPath@@3VCDirPath@@A ; gDirPath
  000f0	89 86 10 00 02
	00		 mov	 DWORD PTR [esi+131088], eax
  000f6	e8 00 00 00 00	 call	 ?GetNewPath@CDirPath@@QAEPADPAD@Z ; CDirPath::GetNewPath
  000fb	50		 push	 eax
  000fc	6a 32		 push	 50			; 00000032H
  000fe	68 00 00 00 00	 push	 OFFSET ??_C@_0BB@OGNCKJFO@MixRateForGrade1?$AA@
  00103	68 00 00 00 00	 push	 OFFSET ??_C@_0P@EMJDPFDH@GameServerInfo?$AA@
  00108	ff d7		 call	 edi

; 47   : 	this->m_iRateSuccessRateForMix2 = GetPrivateProfileInt("GameServerInfo", "MixRateForGrade2", 60, gDirPath.GetNewPath("commonserver.cfg"));

  0010a	68 00 00 00 00	 push	 OFFSET ??_C@_0BB@IGLHFEOF@commonserver?4cfg?$AA@
  0010f	b9 00 00 00 00	 mov	 ecx, OFFSET ?gDirPath@@3VCDirPath@@A ; gDirPath
  00114	89 86 14 00 02
	00		 mov	 DWORD PTR [esi+131092], eax
  0011a	e8 00 00 00 00	 call	 ?GetNewPath@CDirPath@@QAEPADPAD@Z ; CDirPath::GetNewPath
  0011f	50		 push	 eax
  00120	6a 3c		 push	 60			; 0000003cH
  00122	68 00 00 00 00	 push	 OFFSET ??_C@_0BB@MNPPPKJN@MixRateForGrade2?$AA@
  00127	68 00 00 00 00	 push	 OFFSET ??_C@_0P@EMJDPFDH@GameServerInfo?$AA@
  0012c	ff d7		 call	 edi

; 48   : 	this->m_iRateSuccessRateForMix3 = GetPrivateProfileInt("GameServerInfo", "MixRateForGrade3", 60, gDirPath.GetNewPath("commonserver.cfg"));

  0012e	68 00 00 00 00	 push	 OFFSET ??_C@_0BB@IGLHFEOF@commonserver?4cfg?$AA@
  00133	b9 00 00 00 00	 mov	 ecx, OFFSET ?gDirPath@@3VCDirPath@@A ; gDirPath
  00138	89 86 18 00 02
	00		 mov	 DWORD PTR [esi+131096], eax
  0013e	e8 00 00 00 00	 call	 ?GetNewPath@CDirPath@@QAEPADPAD@Z ; CDirPath::GetNewPath
  00143	50		 push	 eax
  00144	6a 3c		 push	 60			; 0000003cH
  00146	68 00 00 00 00	 push	 OFFSET ??_C@_0BB@NEOEMLNM@MixRateForGrade3?$AA@
  0014b	68 00 00 00 00	 push	 OFFSET ??_C@_0P@EMJDPFDH@GameServerInfo?$AA@
  00150	ff d7		 call	 edi
  00152	5f		 pop	 edi
  00153	89 86 1c 00 02
	00		 mov	 DWORD PTR [esi+131100], eax
  00159	5e		 pop	 esi

; 49   : }

  0015a	c3		 ret	 0
?_InitOption@CItemSystemFor380@@QAEXXZ ENDP		; CItemSystemFor380::_InitOption
_TEXT	ENDS
PUBLIC	??_C@_03JBJLGPFL@end?$AA@			; `string'
PUBLIC	??_C@_01KDCPPGHE@r?$AA@				; `string'
PUBLIC	?Load380ItemOptionInfo@CItemSystemFor380@@QAEHPAD@Z ; CItemSystemFor380::Load380ItemOptionInfo
EXTRN	_fclose:PROC
EXTRN	_fopen:PROC
EXTRN	__ftol2_sse:PROC
;	COMDAT ??_C@_03JBJLGPFL@end?$AA@
CONST	SEGMENT
??_C@_03JBJLGPFL@end?$AA@ DB 'end', 00H			; `string'
CONST	ENDS
;	COMDAT ??_C@_01KDCPPGHE@r?$AA@
CONST	SEGMENT
??_C@_01KDCPPGHE@r?$AA@ DB 'r', 00H			; `string'
; Function compile flags: /Ogtp
CONST	ENDS
;	COMDAT ?Load380ItemOptionInfo@CItemSystemFor380@@QAEHPAD@Z
_TEXT	SEGMENT
tv161 = -8						; size = 4
tv155 = -8						; size = 4
tv144 = -8						; size = 4
tv142 = -8						; size = 4
tv138 = -8						; size = 4
tv88 = -8						; size = 4
tv84 = -8						; size = 4
tv77 = -8						; size = 4
_Index$209404 = -4					; size = 4
_filename$ = 8						; size = 4
tv164 = 10						; size = 2
tv150 = 10						; size = 2
tv131 = 10						; size = 2
tv79 = 10						; size = 2
?Load380ItemOptionInfo@CItemSystemFor380@@QAEHPAD@Z PROC ; CItemSystemFor380::Load380ItemOptionInfo, COMDAT
; _this$ = ecx

; 55   : {

  00000	55		 push	 ebp
  00001	8b ec		 mov	 ebp, esp

; 56   : 	enum SMDToken Token;
; 57   : 	SMDFile = fopen(filename, "r");

  00003	8b 45 08	 mov	 eax, DWORD PTR _filename$[ebp]
  00006	83 ec 08	 sub	 esp, 8
  00009	57		 push	 edi
  0000a	68 00 00 00 00	 push	 OFFSET ??_C@_01KDCPPGHE@r?$AA@
  0000f	50		 push	 eax
  00010	8b f9		 mov	 edi, ecx
  00012	e8 00 00 00 00	 call	 _fopen
  00017	83 c4 08	 add	 esp, 8
  0001a	a3 00 00 00 00	 mov	 DWORD PTR _SMDFile, eax

; 58   : 
; 59   : 	if ( SMDFile == NULL )

  0001f	85 c0		 test	 eax, eax
  00021	75 07		 jne	 SHORT $LN10@Load380Ite
  00023	5f		 pop	 edi

; 119  : 
; 120  : 	return TRUE;
; 121  : }

  00024	8b e5		 mov	 esp, ebp
  00026	5d		 pop	 ebp
  00027	c2 04 00	 ret	 4
$LN10@Load380Ite:

; 60   : 		return FALSE;
; 61   : 
; 62   : 	this->_InitOption();

  0002a	8b cf		 mov	 ecx, edi
  0002c	e8 00 00 00 00	 call	 ?_InitOption@CItemSystemFor380@@QAEXXZ ; CItemSystemFor380::_InitOption

; 63   : 
; 64   : 
; 65   : 	while ( true )
; 66   : 	{
; 67   : 		Token = (SMDToken)GetToken();

  00031	e8 00 00 00 00	 call	 ?GetToken@@YA?AW4SMDToken@@XZ ; GetToken

; 68   : 
; 69   : 		if ( Token == END )

  00036	83 f8 02	 cmp	 eax, 2
  00039	74 14		 je	 SHORT $LN23@Load380Ite
  0003b	eb 03 8d 49 00	 npad	 5
$LL9@Load380Ite:

; 70   : 			break;
; 71   : 
; 72   : 		if ( Token == NUMBER )

  00040	83 f8 01	 cmp	 eax, 1
  00043	74 25		 je	 SHORT $LN17@Load380Ite

; 68   : 
; 69   : 		if ( Token == END )

  00045	e8 00 00 00 00	 call	 ?GetToken@@YA?AW4SMDToken@@XZ ; GetToken
  0004a	83 f8 02	 cmp	 eax, 2
  0004d	75 f1		 jne	 SHORT $LL9@Load380Ite
$LN23@Load380Ite:

; 115  : 		}
; 116  : 	}
; 117  : 
; 118  : 	fclose(SMDFile);

  0004f	8b 0d 00 00 00
	00		 mov	 ecx, DWORD PTR _SMDFile
  00055	51		 push	 ecx
  00056	e8 00 00 00 00	 call	 _fclose
  0005b	83 c4 04	 add	 esp, 4
  0005e	b8 01 00 00 00	 mov	 eax, 1
  00063	5f		 pop	 edi

; 119  : 
; 120  : 	return TRUE;
; 121  : }

  00064	8b e5		 mov	 esp, ebp
  00066	5d		 pop	 ebp
  00067	c2 04 00	 ret	 4
$LN17@Load380Ite:

; 73   : 		{
; 74   : 			int Index = (int)TokenNumber;

  0006a	d9 05 00 00 00
	00		 fld	 DWORD PTR _TokenNumber
  00070	e8 00 00 00 00	 call	 __ftol2_sse
  00075	53		 push	 ebx
  00076	89 45 fc	 mov	 DWORD PTR _Index$209404[ebp], eax
  00079	56		 push	 esi
  0007a	8d 9b 00 00 00
	00		 npad	 6
$LL5@Load380Ite:

; 75   : 
; 76   : 			while ( true )
; 77   : 			{
; 78   : 				if ( Index == 0 )

  00080	83 7d fc 00	 cmp	 DWORD PTR _Index$209404[ebp], 0
  00084	75 fa		 jne	 SHORT $LL5@Load380Ite

; 79   : 				{
; 80   : 					Token = (SMDToken)GetToken();

  00086	e8 00 00 00 00	 call	 ?GetToken@@YA?AW4SMDToken@@XZ ; GetToken

; 81   : 					int _type = (int)TokenNumber;

  0008b	d9 05 00 00 00
	00		 fld	 DWORD PTR _TokenNumber
  00091	8b f0		 mov	 esi, eax
  00093	e8 00 00 00 00	 call	 __ftol2_sse
  00098	8b d8		 mov	 ebx, eax

; 82   : 
; 83   : 					if ( Token == NAME )

  0009a	85 f6		 test	 esi, esi
  0009c	75 37		 jne	 SHORT $LN1@Load380Ite

; 84   : 					{
; 85   : 						if ( !strcmp("end", TokenString))

  0009e	b9 00 00 00 00	 mov	 ecx, OFFSET _TokenString
  000a3	b8 00 00 00 00	 mov	 eax, OFFSET ??_C@_03JBJLGPFL@end?$AA@
$LL19@Load380Ite:
  000a8	8a 10		 mov	 dl, BYTE PTR [eax]
  000aa	3a 11		 cmp	 dl, BYTE PTR [ecx]
  000ac	75 1a		 jne	 SHORT $LN20@Load380Ite
  000ae	84 d2		 test	 dl, dl
  000b0	74 12		 je	 SHORT $LN21@Load380Ite
  000b2	8a 50 01	 mov	 dl, BYTE PTR [eax+1]
  000b5	3a 51 01	 cmp	 dl, BYTE PTR [ecx+1]
  000b8	75 0e		 jne	 SHORT $LN20@Load380Ite
  000ba	83 c0 02	 add	 eax, 2
  000bd	83 c1 02	 add	 ecx, 2
  000c0	84 d2		 test	 dl, dl
  000c2	75 e4		 jne	 SHORT $LL19@Load380Ite
$LN21@Load380Ite:
  000c4	33 c0		 xor	 eax, eax
  000c6	eb 05		 jmp	 SHORT $LN22@Load380Ite
$LN20@Load380Ite:
  000c8	1b c0		 sbb	 eax, eax
  000ca	83 d8 ff	 sbb	 eax, -1
$LN22@Load380Ite:
  000cd	85 c0		 test	 eax, eax
  000cf	0f 84 dc 00 00
	00		 je	 $LN18@Load380Ite
$LN1@Load380Ite:

; 88   : 						}
; 89   : 					}
; 90   : 
; 91   : 					Token = (SMDToken)GetToken();

  000d5	e8 00 00 00 00	 call	 ?GetToken@@YA?AW4SMDToken@@XZ ; GetToken

; 92   : 					int _index = (int)TokenNumber;

  000da	d9 05 00 00 00
	00		 fld	 DWORD PTR _TokenNumber
  000e0	e8 00 00 00 00	 call	 __ftol2_sse

; 93   : 
; 94   : 					ITEMOPTION_FOR380ITEM * p = &this->m_itemOption[ITEMGET(_type, _index)];

  000e5	8b d3		 mov	 edx, ebx
  000e7	c1 e2 09	 shl	 edx, 9
  000ea	03 d0		 add	 edx, eax
  000ec	c1 e2 04	 shl	 edx, 4
  000ef	8d 74 3a 04	 lea	 esi, DWORD PTR [edx+edi+4]

; 95   : 					p->IsLoad = TRUE;

  000f3	c7 06 01 00 00
	00		 mov	 DWORD PTR [esi], 1

; 96   : 					p->m_Type = _type;

  000f9	88 5e 04	 mov	 BYTE PTR [esi+4], bl

; 97   : 					p->m_Index = _index;

  000fc	88 46 05	 mov	 BYTE PTR [esi+5], al

; 98   : 
; 99   : 					Token = (SMDToken)GetToken();

  000ff	e8 00 00 00 00	 call	 ?GetToken@@YA?AW4SMDToken@@XZ ; GetToken

; 100  : 					p->m_Option1 = (BYTE)TokenNumber;

  00104	d9 05 00 00 00
	00		 fld	 DWORD PTR _TokenNumber
  0010a	d9 7d 0a	 fnstcw	 WORD PTR tv164[ebp]
  0010d	0f b7 45 0a	 movzx	 eax, WORD PTR tv164[ebp]
  00111	0d 00 0c 00 00	 or	 eax, 3072		; 00000c00H
  00116	89 45 f8	 mov	 DWORD PTR tv161[ebp], eax
  00119	d9 6d f8	 fldcw	 WORD PTR tv161[ebp]
  0011c	db 5d f8	 fistp	 DWORD PTR tv138[ebp]
  0011f	8a 45 f8	 mov	 al, BYTE PTR tv138[ebp]
  00122	88 46 06	 mov	 BYTE PTR [esi+6], al
  00125	d9 6d 0a	 fldcw	 WORD PTR tv164[ebp]

; 101  : 
; 102  : 					Token = (SMDToken)GetToken();

  00128	e8 00 00 00 00	 call	 ?GetToken@@YA?AW4SMDToken@@XZ ; GetToken

; 103  : 					p->m_Value1 = (WORD)TokenNumber;

  0012d	d9 05 00 00 00
	00		 fld	 DWORD PTR _TokenNumber
  00133	d9 7d 0a	 fnstcw	 WORD PTR tv131[ebp]
  00136	0f b7 45 0a	 movzx	 eax, WORD PTR tv131[ebp]
  0013a	0d 00 0c 00 00	 or	 eax, 3072		; 00000c00H
  0013f	89 45 f8	 mov	 DWORD PTR tv84[ebp], eax
  00142	d9 6d f8	 fldcw	 WORD PTR tv84[ebp]
  00145	db 5d f8	 fistp	 DWORD PTR tv77[ebp]
  00148	66 8b 4d f8	 mov	 cx, WORD PTR tv77[ebp]
  0014c	66 89 4e 08	 mov	 WORD PTR [esi+8], cx
  00150	d9 6d 0a	 fldcw	 WORD PTR tv131[ebp]

; 104  : 
; 105  : 					Token = (SMDToken)GetToken();

  00153	e8 00 00 00 00	 call	 ?GetToken@@YA?AW4SMDToken@@XZ ; GetToken

; 106  : 					p->m_Option2 = (BYTE)TokenNumber;

  00158	d9 05 00 00 00
	00		 fld	 DWORD PTR _TokenNumber
  0015e	d9 7d 0a	 fnstcw	 WORD PTR tv150[ebp]
  00161	0f b7 45 0a	 movzx	 eax, WORD PTR tv150[ebp]
  00165	0d 00 0c 00 00	 or	 eax, 3072		; 00000c00H
  0016a	89 45 f8	 mov	 DWORD PTR tv144[ebp], eax
  0016d	d9 6d f8	 fldcw	 WORD PTR tv144[ebp]
  00170	db 5d f8	 fistp	 DWORD PTR tv88[ebp]
  00173	8a 55 f8	 mov	 dl, BYTE PTR tv88[ebp]
  00176	88 56 0a	 mov	 BYTE PTR [esi+10], dl
  00179	d9 6d 0a	 fldcw	 WORD PTR tv150[ebp]

; 107  : 
; 108  : 					Token = (SMDToken)GetToken();

  0017c	e8 00 00 00 00	 call	 ?GetToken@@YA?AW4SMDToken@@XZ ; GetToken

; 109  : 					p->m_Value2 = (WORD)TokenNumber;

  00181	d9 05 00 00 00
	00		 fld	 DWORD PTR _TokenNumber
  00187	d9 7d 0a	 fnstcw	 WORD PTR tv79[ebp]
  0018a	0f b7 45 0a	 movzx	 eax, WORD PTR tv79[ebp]
  0018e	0d 00 0c 00 00	 or	 eax, 3072		; 00000c00H
  00193	89 45 f8	 mov	 DWORD PTR tv142[ebp], eax
  00196	d9 6d f8	 fldcw	 WORD PTR tv142[ebp]
  00199	db 5d f8	 fistp	 DWORD PTR tv155[ebp]
  0019c	66 8b 45 f8	 mov	 ax, WORD PTR tv155[ebp]
  001a0	66 89 46 0c	 mov	 WORD PTR [esi+12], ax
  001a4	d9 6d 0a	 fldcw	 WORD PTR tv79[ebp]

; 110  : 
; 111  : 					Token = (SMDToken)GetToken();

  001a7	e8 00 00 00 00	 call	 ?GetToken@@YA?AW4SMDToken@@XZ ; GetToken

; 112  : 					int iTime = (int)TokenNumber;
; 113  : 				}
; 114  : 			}

  001ac	e9 cf fe ff ff	 jmp	 $LL5@Load380Ite
$LN18@Load380Ite:
  001b1	5e		 pop	 esi
  001b2	5b		 pop	 ebx

; 86   : 						{
; 87   : 							return TRUE;

  001b3	b8 01 00 00 00	 mov	 eax, 1
  001b8	5f		 pop	 edi

; 119  : 
; 120  : 	return TRUE;
; 121  : }

  001b9	8b e5		 mov	 esp, ebp
  001bb	5d		 pop	 ebp
  001bc	c2 04 00	 ret	 4
?Load380ItemOptionInfo@CItemSystemFor380@@QAEHPAD@Z ENDP ; CItemSystemFor380::Load380ItemOptionInfo
_TEXT	ENDS
PUBLIC	??_C@_0DA@DNNIILED@?$FL380Item?$FN?5OptionItem?5Check?5error@ ; `string'
PUBLIC	?Is380Item@CItemSystemFor380@@QAEHPBVCItem@@@Z	; CItemSystemFor380::Is380Item
EXTRN	?LogAdd@@3P6AXPADZZA:DWORD			; LogAdd
;	COMDAT ??_C@_0DA@DNNIILED@?$FL380Item?$FN?5OptionItem?5Check?5error@
CONST	SEGMENT
??_C@_0DA@DNNIILED@?$FL380Item?$FN?5OptionItem?5Check?5error@ DB '[380Ite'
	DB	'm] OptionItem Check error: (iItemNum:%d)', 00H ; `string'
; Function compile flags: /Ogtp
CONST	ENDS
;	COMDAT ?Is380Item@CItemSystemFor380@@QAEHPBVCItem@@@Z
_TEXT	SEGMENT
_pItem$ = 8						; size = 4
?Is380Item@CItemSystemFor380@@QAEHPBVCItem@@@Z PROC	; CItemSystemFor380::Is380Item, COMDAT
; _this$ = ecx

; 129  : {

  00000	55		 push	 ebp
  00001	8b ec		 mov	 ebp, esp

; 130  : 	if ( pItem->m_Type < 0 || pItem->m_Type > MAX_ITEMS-1 )

  00003	8b 45 08	 mov	 eax, DWORD PTR _pItem$[ebp]
  00006	0f b7 40 06	 movzx	 eax, WORD PTR [eax+6]
  0000a	66 85 c0	 test	 ax, ax
  0000d	78 1c		 js	 SHORT $LN2@Is380Item
  0000f	ba ff 1f 00 00	 mov	 edx, 8191		; 00001fffH
  00014	66 3b c2	 cmp	 ax, dx
  00017	7f 12		 jg	 SHORT $LN2@Is380Item

; 134  : 	}
; 135  : 
; 136  : 	if ( this->m_itemOption[pItem->m_Type ].IsLoad == FALSE )

  00019	98		 cwde
  0001a	33 d2		 xor	 edx, edx
  0001c	03 c0		 add	 eax, eax
  0001e	39 54 c1 04	 cmp	 DWORD PTR [ecx+eax*8+4], edx
  00022	0f 95 c2	 setne	 dl
  00025	8b c2		 mov	 eax, edx

; 137  : 		return FALSE;
; 138  : 
; 139  : 	return TRUE;
; 140  : }

  00027	5d		 pop	 ebp
  00028	c2 04 00	 ret	 4
$LN2@Is380Item:

; 131  : 	{
; 132  : 		LogAdd("[380Item] OptionItem Check error: (iItemNum:%d)", pItem->m_Type);

  0002b	98		 cwde
  0002c	50		 push	 eax
  0002d	68 00 00 00 00	 push	 OFFSET ??_C@_0DA@DNNIILED@?$FL380Item?$FN?5OptionItem?5Check?5error@
  00032	ff 15 00 00 00
	00		 call	 DWORD PTR ?LogAdd@@3P6AXPADZZA ; LogAdd
  00038	83 c4 08	 add	 esp, 8

; 133  : 		return FALSE;

  0003b	33 c0		 xor	 eax, eax

; 137  : 		return FALSE;
; 138  : 
; 139  : 	return TRUE;
; 140  : }

  0003d	5d		 pop	 ebp
  0003e	c2 04 00	 ret	 4
?Is380Item@CItemSystemFor380@@QAEHPBVCItem@@@Z ENDP	; CItemSystemFor380::Is380Item
_TEXT	ENDS
PUBLIC	?Is380OptionItem@CItemSystemFor380@@QAEHPBVCItem@@@Z ; CItemSystemFor380::Is380OptionItem
; Function compile flags: /Ogtp
;	COMDAT ?Is380OptionItem@CItemSystemFor380@@QAEHPBVCItem@@@Z
_TEXT	SEGMENT
_pItem$ = 8						; size = 4
?Is380OptionItem@CItemSystemFor380@@QAEHPBVCItem@@@Z PROC ; CItemSystemFor380::Is380OptionItem, COMDAT
; _this$ = ecx

; 144  : {

  00000	55		 push	 ebp
  00001	8b ec		 mov	 ebp, esp
  00003	56		 push	 esi

; 145  : 	if ( this->Is380Item(pItem) == FALSE )

  00004	8b 75 08	 mov	 esi, DWORD PTR _pItem$[ebp]
  00007	56		 push	 esi
  00008	e8 00 00 00 00	 call	 ?Is380Item@CItemSystemFor380@@QAEHPBVCItem@@@Z ; CItemSystemFor380::Is380Item
  0000d	85 c0		 test	 eax, eax
  0000f	75 05		 jne	 SHORT $LN2@Is380Optio
  00011	5e		 pop	 esi

; 151  : 		return FALSE;
; 152  : 
; 153  : 	return TRUE;
; 154  : }

  00012	5d		 pop	 ebp
  00013	c2 04 00	 ret	 4
$LN2@Is380Optio:

; 146  : 		return FALSE;
; 147  : 
; 148  : 	BYTE bResult = (pItem->m_ItemOptionEx & 0x80) >> 7;
; 149  : 
; 150  : 	if ( bResult != 1 )

  00016	8a 86 ca 00 00
	00		 mov	 al, BYTE PTR [esi+202]
  0001c	24 80		 and	 al, 128			; 00000080H
  0001e	33 c9		 xor	 ecx, ecx
  00020	3c 80		 cmp	 al, 128			; 00000080H
  00022	0f 94 c1	 sete	 cl
  00025	5e		 pop	 esi
  00026	8b c1		 mov	 eax, ecx

; 151  : 		return FALSE;
; 152  : 
; 153  : 	return TRUE;
; 154  : }

  00028	5d		 pop	 ebp
  00029	c2 04 00	 ret	 4
?Is380OptionItem@CItemSystemFor380@@QAEHPBVCItem@@@Z ENDP ; CItemSystemFor380::Is380OptionItem
_TEXT	ENDS
PUBLIC	?InitEffectValue@CItemSystemFor380@@QAEXPAUITEMOPTION_FOR380ITEM_EFFECT@@@Z ; CItemSystemFor380::InitEffectValue
; Function compile flags: /Ogtp
;	COMDAT ?InitEffectValue@CItemSystemFor380@@QAEXPAUITEMOPTION_FOR380ITEM_EFFECT@@@Z
_TEXT	SEGMENT
_pItemEffect$ = 8					; size = 4
?InitEffectValue@CItemSystemFor380@@QAEXPAUITEMOPTION_FOR380ITEM_EFFECT@@@Z PROC ; CItemSystemFor380::InitEffectValue, COMDAT
; _this$ = ecx

; 158  : {

  00000	55		 push	 ebp
  00001	8b ec		 mov	 ebp, esp

; 159  : 	pItemEffect->OpAddAttackSuccessRatePVP = 0;

  00003	8b 45 08	 mov	 eax, DWORD PTR _pItemEffect$[ebp]
  00006	33 c9		 xor	 ecx, ecx
  00008	89 08		 mov	 DWORD PTR [eax], ecx

; 160  : 	pItemEffect->OpAddDamage = 0;
; 161  : 	pItemEffect->OpAddDefenseSuccessRatePvP = 0;

  0000a	89 48 04	 mov	 DWORD PTR [eax+4], ecx

; 162  : 	pItemEffect->OpAddDefense = 0;
; 163  : 	pItemEffect->OpAddMaxHP = 0;

  0000d	89 48 08	 mov	 DWORD PTR [eax+8], ecx

; 164  : 	pItemEffect->OpAddMaxSD = 0;
; 165  : 	pItemEffect->OpRefillOn  = 0;

  00010	89 48 0c	 mov	 DWORD PTR [eax+12], ecx

; 166  : 	pItemEffect->OpAddRefillSD = 0;
; 167  : }

  00013	5d		 pop	 ebp
  00014	c2 04 00	 ret	 4
?InitEffectValue@CItemSystemFor380@@QAEXPAUITEMOPTION_FOR380ITEM_EFFECT@@@Z ENDP ; CItemSystemFor380::InitEffectValue
_TEXT	ENDS
PUBLIC	?_CalcItemEffectValue@CItemSystemFor380@@QAEHHHPAUITEMOPTION_FOR380ITEM_EFFECT@@@Z ; CItemSystemFor380::_CalcItemEffectValue
; Function compile flags: /Ogtp
;	COMDAT ?_CalcItemEffectValue@CItemSystemFor380@@QAEHHHPAUITEMOPTION_FOR380ITEM_EFFECT@@@Z
_TEXT	SEGMENT
_iItemOptionType$ = 8					; size = 4
_iItemEffectValue$ = 12					; size = 4
_pItemEffect$ = 16					; size = 4
?_CalcItemEffectValue@CItemSystemFor380@@QAEHHHPAUITEMOPTION_FOR380ITEM_EFFECT@@@Z PROC ; CItemSystemFor380::_CalcItemEffectValue, COMDAT
; _this$ = ecx

; 206  : {

  00000	55		 push	 ebp
  00001	8b ec		 mov	 ebp, esp

; 207  : 	if ( iItemOptionType == 0 )

  00003	8b 4d 08	 mov	 ecx, DWORD PTR _iItemOptionType$[ebp]
  00006	85 c9		 test	 ecx, ecx

; 208  : 		return FALSE;

  00008	0f 84 85 00 00
	00		 je	 $LN1@CalcItemEf

; 209  : 
; 210  : 	BOOL bResult = TRUE;
; 211  : 
; 212  : 	switch ( iItemOptionType )

  0000e	49		 dec	 ecx
  0000f	b8 01 00 00 00	 mov	 eax, 1
  00014	83 f9 07	 cmp	 ecx, 7
  00017	77 7a		 ja	 SHORT $LN1@CalcItemEf
  00019	ff 24 8d 00 00
	00 00		 jmp	 DWORD PTR $LN15@CalcItemEf[ecx*4]
$LN9@CalcItemEf:

; 213  : 	{
; 214  : 		//case ITEMOPTION_FOR380ITEM_EFFECT_NONE:
; 215  : 		case ITEMOPTION_FOR380ITEM_EFFECT_OPADDATTACKSUCCESSRATEPVP:
; 216  : 			pItemEffect->OpAddAttackSuccessRatePVP += iItemEffectValue;

  00020	8b 4d 10	 mov	 ecx, DWORD PTR _pItemEffect$[ebp]
  00023	66 8b 55 0c	 mov	 dx, WORD PTR _iItemEffectValue$[ebp]
  00027	66 01 11	 add	 WORD PTR [ecx], dx

; 249  : 			break;
; 250  : 	}
; 251  : 
; 252  : 	return bResult;
; 253  : }

  0002a	5d		 pop	 ebp
  0002b	c2 0c 00	 ret	 12			; 0000000cH
$LN8@CalcItemEf:

; 217  : 			//DebugLog("380효과 : 공격성공율상승 %d\n", iItemEffectValue);
; 218  : 			break;
; 219  : 		case ITEMOPTION_FOR380ITEM_EFFECT_OPADDDAMAGE:
; 220  : 			pItemEffect->OpAddDamage += iItemEffectValue;

  0002e	8b 4d 10	 mov	 ecx, DWORD PTR _pItemEffect$[ebp]
  00031	66 8b 55 0c	 mov	 dx, WORD PTR _iItemEffectValue$[ebp]
  00035	66 01 51 02	 add	 WORD PTR [ecx+2], dx

; 249  : 			break;
; 250  : 	}
; 251  : 
; 252  : 	return bResult;
; 253  : }

  00039	5d		 pop	 ebp
  0003a	c2 0c 00	 ret	 12			; 0000000cH
$LN7@CalcItemEf:

; 221  : 			//DebugLog("380효과 : 데미지 상승 %d\n", iItemEffectValue);
; 222  : 			break;
; 223  : 		case ITEMOPTION_FOR380ITEM_EFFECT_OPADDDEFENSESUCCESSRATEPVP:
; 224  : 			pItemEffect->OpAddDefenseSuccessRatePvP += iItemEffectValue;

  0003d	8b 4d 10	 mov	 ecx, DWORD PTR _pItemEffect$[ebp]
  00040	66 8b 55 0c	 mov	 dx, WORD PTR _iItemEffectValue$[ebp]
  00044	66 01 51 04	 add	 WORD PTR [ecx+4], dx

; 249  : 			break;
; 250  : 	}
; 251  : 
; 252  : 	return bResult;
; 253  : }

  00048	5d		 pop	 ebp
  00049	c2 0c 00	 ret	 12			; 0000000cH
$LN6@CalcItemEf:

; 225  : 			//DebugLog("380효과 : 방어성공율상승 %d\n", iItemEffectValue);
; 226  : 			break;
; 227  : 		case ITEMOPTION_FOR380ITEM_EFFECT_OPADDDEFENSE:
; 228  : 			pItemEffect->OpAddDefense += iItemEffectValue;

  0004c	8b 4d 10	 mov	 ecx, DWORD PTR _pItemEffect$[ebp]
  0004f	66 8b 55 0c	 mov	 dx, WORD PTR _iItemEffectValue$[ebp]
  00053	66 01 51 06	 add	 WORD PTR [ecx+6], dx

; 249  : 			break;
; 250  : 	}
; 251  : 
; 252  : 	return bResult;
; 253  : }

  00057	5d		 pop	 ebp
  00058	c2 0c 00	 ret	 12			; 0000000cH
$LN5@CalcItemEf:

; 229  : 			//DebugLog("380효과 : 방어력 상승 %d\n", iItemEffectValue);
; 230  : 			break;
; 231  : 		case ITEMOPTION_FOR380ITEM_EFFECT_OPADDMAXHP:
; 232  : 			pItemEffect->OpAddMaxHP += iItemEffectValue;

  0005b	8b 4d 10	 mov	 ecx, DWORD PTR _pItemEffect$[ebp]
  0005e	66 8b 55 0c	 mov	 dx, WORD PTR _iItemEffectValue$[ebp]
  00062	66 01 51 08	 add	 WORD PTR [ecx+8], dx

; 249  : 			break;
; 250  : 	}
; 251  : 
; 252  : 	return bResult;
; 253  : }

  00066	5d		 pop	 ebp
  00067	c2 0c 00	 ret	 12			; 0000000cH
$LN4@CalcItemEf:

; 233  : 			//DebugLog("380효과 : 최대 HP 상승 %d\n", iItemEffectValue);
; 234  : 			break;
; 235  : 		case ITEMOPTION_FOR380ITEM_EFFECT_OPADDMAXSD:
; 236  : 			pItemEffect->OpAddMaxSD += iItemEffectValue;

  0006a	8b 4d 10	 mov	 ecx, DWORD PTR _pItemEffect$[ebp]
  0006d	66 8b 55 0c	 mov	 dx, WORD PTR _iItemEffectValue$[ebp]
  00071	66 01 51 0a	 add	 WORD PTR [ecx+10], dx

; 249  : 			break;
; 250  : 	}
; 251  : 
; 252  : 	return bResult;
; 253  : }

  00075	5d		 pop	 ebp
  00076	c2 0c 00	 ret	 12			; 0000000cH
$LN3@CalcItemEf:

; 237  : 			//DebugLog("380효과 : 최대 SD 상승 %d\n", iItemEffectValue);
; 238  : 			break;
; 239  : 		case ITEMOPTION_FOR380ITEM_EFFECT_OPREFILLON:
; 240  : 			pItemEffect->OpRefillOn += 1;

  00079	8b 4d 10	 mov	 ecx, DWORD PTR _pItemEffect$[ebp]
  0007c	66 01 41 0c	 add	 WORD PTR [ecx+12], ax

; 249  : 			break;
; 250  : 	}
; 251  : 
; 252  : 	return bResult;
; 253  : }

  00080	5d		 pop	 ebp
  00081	c2 0c 00	 ret	 12			; 0000000cH
$LN2@CalcItemEf:

; 241  : 			//DebugLog("380효과 : SD 자동 회복 %d\n", iItemEffectValue);
; 242  : 			break;
; 243  : 		case ITEMOPTION_FOR380ITEM_EFFECT_OPADDREFILLSD:
; 244  : 			pItemEffect->OpAddRefillSD += iItemEffectValue;

  00084	8b 4d 10	 mov	 ecx, DWORD PTR _pItemEffect$[ebp]
  00087	66 8b 55 0c	 mov	 dx, WORD PTR _iItemEffectValue$[ebp]
  0008b	66 01 51 0e	 add	 WORD PTR [ecx+14], dx

; 249  : 			break;
; 250  : 	}
; 251  : 
; 252  : 	return bResult;
; 253  : }

  0008f	5d		 pop	 ebp
  00090	c2 0c 00	 ret	 12			; 0000000cH
$LN1@CalcItemEf:

; 245  : 			//DebugLog("380효과 : SD자동회복량 증가 %d\n", iItemEffectValue);
; 246  : 			break;
; 247  : 		default:
; 248  : 			bResult = FALSE;

  00093	33 c0		 xor	 eax, eax

; 249  : 			break;
; 250  : 	}
; 251  : 
; 252  : 	return bResult;
; 253  : }

  00095	5d		 pop	 ebp
  00096	c2 0c 00	 ret	 12			; 0000000cH
  00099	8d 49 00	 npad	 3
$LN15@CalcItemEf:
  0009c	00 00 00 00	 DD	 $LN9@CalcItemEf
  000a0	00 00 00 00	 DD	 $LN8@CalcItemEf
  000a4	00 00 00 00	 DD	 $LN7@CalcItemEf
  000a8	00 00 00 00	 DD	 $LN6@CalcItemEf
  000ac	00 00 00 00	 DD	 $LN5@CalcItemEf
  000b0	00 00 00 00	 DD	 $LN4@CalcItemEf
  000b4	00 00 00 00	 DD	 $LN3@CalcItemEf
  000b8	00 00 00 00	 DD	 $LN2@CalcItemEf
?_CalcItemEffectValue@CItemSystemFor380@@QAEHHHPAUITEMOPTION_FOR380ITEM_EFFECT@@@Z ENDP ; CItemSystemFor380::_CalcItemEffectValue
_TEXT	ENDS
PUBLIC	?_SetOption@CItemSystemFor380@@QAEHPAVCItem@@H@Z ; CItemSystemFor380::_SetOption
; Function compile flags: /Ogtp
;	COMDAT ?_SetOption@CItemSystemFor380@@QAEHPAVCItem@@H@Z
_TEXT	SEGMENT
_pItem$ = 8						; size = 4
_bOption$ = 12						; size = 4
?_SetOption@CItemSystemFor380@@QAEHPAVCItem@@H@Z PROC	; CItemSystemFor380::_SetOption, COMDAT
; _this$ = ecx

; 267  : {

  00000	55		 push	 ebp
  00001	8b ec		 mov	 ebp, esp
  00003	56		 push	 esi

; 268  : 	if ( !this->Is380Item(pItem) )

  00004	8b 75 08	 mov	 esi, DWORD PTR _pItem$[ebp]
  00007	56		 push	 esi
  00008	e8 00 00 00 00	 call	 ?Is380Item@CItemSystemFor380@@QAEHPBVCItem@@@Z ; CItemSystemFor380::Is380Item
  0000d	85 c0		 test	 eax, eax
  0000f	75 05		 jne	 SHORT $LN3@SetOption
  00011	5e		 pop	 esi

; 275  : 
; 276  : 	return TRUE;
; 277  : }

  00012	5d		 pop	 ebp
  00013	c2 08 00	 ret	 8
$LN3@SetOption:

; 269  : 		return FALSE;
; 270  : 
; 271  : 	if ( bOption  == TRUE )

  00016	b8 01 00 00 00	 mov	 eax, 1
  0001b	39 45 0c	 cmp	 DWORD PTR _bOption$[ebp], eax
  0001e	75 0c		 jne	 SHORT $LN2@SetOption

; 272  : 		pItem->m_ItemOptionEx |= 0x80;

  00020	80 8e ca 00 00
	00 80		 or	 BYTE PTR [esi+202], 128	; 00000080H
  00027	5e		 pop	 esi

; 275  : 
; 276  : 	return TRUE;
; 277  : }

  00028	5d		 pop	 ebp
  00029	c2 08 00	 ret	 8
$LN2@SetOption:

; 273  : 	else
; 274  : 		pItem->m_ItemOptionEx &= ~0x80;

  0002c	80 a6 ca 00 00
	00 7f		 and	 BYTE PTR [esi+202], 127	; 0000007fH
  00033	5e		 pop	 esi

; 275  : 
; 276  : 	return TRUE;
; 277  : }

  00034	5d		 pop	 ebp
  00035	c2 08 00	 ret	 8
?_SetOption@CItemSystemFor380@@QAEHPAVCItem@@H@Z ENDP	; CItemSystemFor380::_SetOption
_TEXT	ENDS
PUBLIC	?SetOptionItemByMacro@CItemSystemFor380@@QAEXPAUOBJECTSTRUCT@@EH@Z ; CItemSystemFor380::SetOptionItemByMacro
; Function compile flags: /Ogtp
;	COMDAT ?SetOptionItemByMacro@CItemSystemFor380@@QAEXPAUOBJECTSTRUCT@@EH@Z
_TEXT	SEGMENT
_lpObj$ = 8						; size = 4
_invenrotyTargetPos$ = 12				; size = 1
_bOption$ = 16						; size = 4
?SetOptionItemByMacro@CItemSystemFor380@@QAEXPAUOBJECTSTRUCT@@EH@Z PROC ; CItemSystemFor380::SetOptionItemByMacro, COMDAT
; _this$ = ecx

; 283  : 	// HERE GOES A MACRO
; 284  : 	return;
; 285  : 	CItem * pItem=NULL;
; 286  : }

  00000	c2 0c 00	 ret	 12			; 0000000cH
?SetOptionItemByMacro@CItemSystemFor380@@QAEXPAUOBJECTSTRUCT@@EH@Z ENDP ; CItemSystemFor380::SetOptionItemByMacro
_TEXT	ENDS
PUBLIC	??_C@_0DP@LHPKHLIF@?$FL380Item?$FN?$FLItemMix?$FN?5Mix?5Fail?5?$FL?$CFs?$FN@ ; `string'
PUBLIC	??_C@_0GD@FNEHGIAM@?$FL380Item?$FN?$FLItemMix?$FN?5Mix?5Success?5?$FL@ ; `string'
PUBLIC	??_C@_0CA@CBDBEMLE@?$FL380Item?$FN?$FLItem?5Mix?$FN?5?9?5Mix?5Start?$AA@ ; `string'
PUBLIC	??_C@_0BC@IFIOIDM@380Item?$FN?$FLItem?5Mix?$AA@	; `string'
PUBLIC	_this$GSCopy$
PUBLIC	__$ArrayPad$
PUBLIC	?ChaosMix380ItemOption@CItemSystemFor380@@QAEHPAUOBJECTSTRUCT@@@Z ; CItemSystemFor380::ChaosMix380ItemOption
EXTRN	?DataSend@@YAHHPAEK@Z:PROC			; DataSend
EXTRN	?GCUserChaosBoxSend@@YAXPAUOBJECTSTRUCT@@H@Z:PROC ; GCUserChaosBoxSend
EXTRN	?Clear@CItem@@QAEXXZ:PROC			; CItem::Clear
EXTRN	_rand:PROC
EXTRN	?LogAddTD@@3P6AXPADZZA:DWORD			; LogAddTD
EXTRN	?LogChaosItem@CMixSystem@@QAEXPAUOBJECTSTRUCT@@PAD@Z:PROC ; CMixSystem::LogChaosItem
EXTRN	?g_MixSystem@@3VCMixSystem@@A:BYTE		; g_MixSystem
EXTRN	?GCMoneySend@@YAXHK@Z:PROC			; GCMoneySend
EXTRN	?AddTributeMoney@CCastleSiegeSync@@QAEXH@Z:PROC	; CCastleSiegeSync::AddTributeMoney
EXTRN	?GetTaxRateChaos@CCastleSiegeSync@@QAEHH@Z:PROC	; CCastleSiegeSync::GetTaxRateChaos
EXTRN	?g_CastleSiegeSync@@3VCCastleSiegeSync@@A:BYTE	; g_CastleSiegeSync
EXTRN	?IsJewelOfHarmonyPurity@CJewelOfHarmonySystem@@QAEHF@Z:PROC ; CJewelOfHarmonySystem::IsJewelOfHarmonyPurity
EXTRN	?g_kJewelOfHarmonySystem@@3VCJewelOfHarmonySystem@@A:BYTE ; g_kJewelOfHarmonySystem
EXTRN	?IsItem@CItem@@QAEHXZ:PROC			; CItem::IsItem
EXTRN	?PHeadSetB@@YAXPAEEH@Z:PROC			; PHeadSetB
EXTRN	?GCServerMsgStringSend@@YAXPADHE@Z:PROC		; GCServerMsgStringSend
EXTRN	?Get@CMsg@@QAEPADH@Z:PROC			; CMsg::Get
EXTRN	?lMsg@@3VCMsg@@A:BYTE				; lMsg
;	COMDAT ??_C@_0DP@LHPKHLIF@?$FL380Item?$FN?$FLItemMix?$FN?5Mix?5Fail?5?$FL?$CFs?$FN@
CONST	SEGMENT
??_C@_0DP@LHPKHLIF@?$FL380Item?$FN?$FLItemMix?$FN?5Mix?5Fail?5?$FL?$CFs?$FN@ DB '['
	DB	'380Item][ItemMix] Mix Fail [%s][%s], Money(%d-%d) Rate(%d/%d)'
	DB	00H						; `string'
CONST	ENDS
;	COMDAT ??_C@_0GD@FNEHGIAM@?$FL380Item?$FN?$FLItemMix?$FN?5Mix?5Success?5?$FL@
CONST	SEGMENT
??_C@_0GD@FNEHGIAM@?$FL380Item?$FN?$FLItemMix?$FN?5Mix?5Success?5?$FL@ DB '['
	DB	'380Item][ItemMix] Mix Success [%s][%s], Money(%d-%d) Rate(%d/'
	DB	'%d) Option(%d,%d) OptionValue(%d,%d)', 00H	; `string'
CONST	ENDS
;	COMDAT ??_C@_0CA@CBDBEMLE@?$FL380Item?$FN?$FLItem?5Mix?$FN?5?9?5Mix?5Start?$AA@
CONST	SEGMENT
??_C@_0CA@CBDBEMLE@?$FL380Item?$FN?$FLItem?5Mix?$FN?5?9?5Mix?5Start?$AA@ DB '['
	DB	'380Item][Item Mix] - Mix Start', 00H	; `string'
CONST	ENDS
;	COMDAT ??_C@_0BC@IFIOIDM@380Item?$FN?$FLItem?5Mix?$AA@
CONST	SEGMENT
??_C@_0BC@IFIOIDM@380Item?$FN?$FLItem?5Mix?$AA@ DB '380Item][Item Mix', 00H ; `string'
; Function compile flags: /Ogtp
CONST	ENDS
;	COMDAT ?ChaosMix380ItemOption@CItemSystemFor380@@QAEHPAUOBJECTSTRUCT@@@Z
_TEXT	SEGMENT
_iInvalidItemCount$ = -56				; size = 4
_iValidItemCount$ = -52					; size = 4
_iJewelOfHarmony$ = -48					; size = 4
_iPosOfJewelOfHarmony$ = -44				; size = 4
_iCharmOfLuckCount$ = -40				; size = 4
_iPosOfJewelOfSuho$ = -36				; size = 4
_pTargetItem$ = -32					; size = 4
_this$GSCopy$ = -28					; size = 4
_iRate$ = -24						; size = 4
_iJewelOfSuho$ = -24					; size = 4
_pMsg$ = -20						; size = 16
__$ArrayPad$ = -4					; size = 4
_lpObj$ = 8						; size = 4
?ChaosMix380ItemOption@CItemSystemFor380@@QAEHPAUOBJECTSTRUCT@@@Z PROC ; CItemSystemFor380::ChaosMix380ItemOption, COMDAT
; _this$ = ecx

; 289  : {

  00000	55		 push	 ebp
  00001	8b ec		 mov	 ebp, esp
  00003	83 ec 38	 sub	 esp, 56			; 00000038H
  00006	a1 00 00 00 00	 mov	 eax, DWORD PTR ___security_cookie
  0000b	33 c5		 xor	 eax, ebp
  0000d	89 45 fc	 mov	 DWORD PTR __$ArrayPad$[ebp], eax

; 290  : 	if ( this->m_bSystemFor380ItemOption != TRUE )

  00010	b8 01 00 00 00	 mov	 eax, 1
  00015	56		 push	 esi
  00016	8b 75 08	 mov	 esi, DWORD PTR _lpObj$[ebp]

; 419  : 	}
; 420  : 	else
; 421  : 	{
; 422  : 		GCUserChaosBoxSend(lpObj, 0);

  00019	89 4d e4	 mov	 DWORD PTR _this$GSCopy$[ebp], ecx
  0001c	39 81 04 00 02
	00		 cmp	 DWORD PTR [ecx+131076], eax
  00022	74 36		 je	 SHORT $LN25@ChaosMix38

; 291  : 	{
; 292  : 		GCServerMsgStringSend(lMsg.Get(MSGGET(13,55)), lpObj->m_Index, 1);

  00024	50		 push	 eax
  00025	8b 06		 mov	 eax, DWORD PTR [esi]
  00027	50		 push	 eax
  00028	68 37 0d 00 00	 push	 3383			; 00000d37H
  0002d	b9 00 00 00 00	 mov	 ecx, OFFSET ?lMsg@@3VCMsg@@A ; lMsg
  00032	e8 00 00 00 00	 call	 ?Get@CMsg@@QAEPADH@Z	; CMsg::Get
  00037	50		 push	 eax
  00038	e8 00 00 00 00	 call	 ?GCServerMsgStringSend@@YAXPADHE@Z ; GCServerMsgStringSend
  0003d	83 c4 0c	 add	 esp, 12			; 0000000cH

; 293  : 		lpObj->bIsChaosMixCompleted = false;

  00040	c6 86 79 12 00
	00 00		 mov	 BYTE PTR [esi+4729], 0

; 294  : 
; 295  : 		return FALSE;

  00047	33 c0		 xor	 eax, eax
  00049	5e		 pop	 esi

; 433  : }

  0004a	8b 4d fc	 mov	 ecx, DWORD PTR __$ArrayPad$[ebp]
  0004d	33 cd		 xor	 ecx, ebp
  0004f	e8 00 00 00 00	 call	 @__security_check_cookie@4
  00054	8b e5		 mov	 esp, ebp
  00056	5d		 pop	 ebp
  00057	c2 04 00	 ret	 4
$LN25@ChaosMix38:
  0005a	53		 push	 ebx
  0005b	57		 push	 edi

; 296  : 	}
; 297  : 
; 298  : 	lpObj->ChaosLock = TRUE;
; 299  : 
; 300  : 	int iValidItemCount = 0;

  0005c	33 ff		 xor	 edi, edi

; 301  : 	int iJewelOfHarmony = 0;
; 302  : 	int iJewelOfSuho = 0;
; 303  : 	int iInvalidItemCount = 0;
; 304  : 	int iMixPrice = 0;
; 305  : 	int iCharmOfLuckCount = 0;
; 306  : 
; 307  : 	PMSG_CHAOSMIXRESULT pMsg;
; 308  : 
; 309  : 	PHeadSetB((LPBYTE)&pMsg, 0x86, sizeof(pMsg));

  0005e	6a 10		 push	 16			; 00000010H
  00060	8d 4d ec	 lea	 ecx, DWORD PTR _pMsg$[ebp]
  00063	68 86 00 00 00	 push	 134			; 00000086H
  00068	51		 push	 ecx
  00069	89 86 88 0e 00
	00		 mov	 DWORD PTR [esi+3720], eax
  0006f	89 7d cc	 mov	 DWORD PTR _iValidItemCount$[ebp], edi
  00072	89 7d d0	 mov	 DWORD PTR _iJewelOfHarmony$[ebp], edi
  00075	89 7d e8	 mov	 DWORD PTR _iJewelOfSuho$[ebp], edi
  00078	89 7d c8	 mov	 DWORD PTR _iInvalidItemCount$[ebp], edi
  0007b	89 7d d8	 mov	 DWORD PTR _iCharmOfLuckCount$[ebp], edi
  0007e	e8 00 00 00 00	 call	 ?PHeadSetB@@YAXPAEEH@Z	; PHeadSetB

; 310  : 	pMsg.Result = 0;
; 311  : 	CItem * pTargetItem = NULL;
; 312  : 	int iPosOfJewelOfHarmony= -1;

  00083	83 c8 ff	 or	 eax, -1
  00086	83 c4 0c	 add	 esp, 12			; 0000000cH
  00089	c6 45 ef 00	 mov	 BYTE PTR _pMsg$[ebp+3], 0
  0008d	89 7d e0	 mov	 DWORD PTR _pTargetItem$[ebp], edi
  00090	89 45 d4	 mov	 DWORD PTR _iPosOfJewelOfHarmony$[ebp], eax

; 313  : 	int iPosOfJewelOfSuho= -1;

  00093	89 45 dc	 mov	 DWORD PTR _iPosOfJewelOfSuho$[ebp], eax

; 314  : 
; 315  : 	for ( int n=0;n<CHAOS_BOX_SIZE;n++)

  00096	33 db		 xor	 ebx, ebx
  00098	eb 06 8d 9b 00
	00 00 00	 npad	 8
$LL24@ChaosMix38:

; 316  : 	{
; 317  : 	if ( lpObj->pChaosBox[n].IsItem() == TRUE )

  000a0	8b 8e 78 0e 00
	00		 mov	 ecx, DWORD PTR [esi+3704]
  000a6	03 cf		 add	 ecx, edi
  000a8	e8 00 00 00 00	 call	 ?IsItem@CItem@@QAEHXZ	; CItem::IsItem
  000ad	83 f8 01	 cmp	 eax, 1
  000b0	0f 85 ad 00 00
	00		 jne	 $LN23@ChaosMix38

; 318  : 	{
; 319  : 		if ( this->Is380Item(&lpObj->pChaosBox[n]) == TRUE &&
; 320  : 			this->Is380OptionItem(&lpObj->pChaosBox[n]) == FALSE &&
; 321  : 			 lpObj->pChaosBox[n].m_Level > 3 &&
; 322  : 			 (lpObj->pChaosBox[n].m_Option3<<2) > 3)

  000b6	8b 96 78 0e 00
	00		 mov	 edx, DWORD PTR [esi+3704]
  000bc	8b 4d e4	 mov	 ecx, DWORD PTR _this$GSCopy$[ebp]
  000bf	03 d7		 add	 edx, edi
  000c1	52		 push	 edx
  000c2	e8 00 00 00 00	 call	 ?Is380Item@CItemSystemFor380@@QAEHPBVCItem@@@Z ; CItemSystemFor380::Is380Item
  000c7	83 f8 01	 cmp	 eax, 1
  000ca	75 3c		 jne	 SHORT $LN20@ChaosMix38
  000cc	8b 86 78 0e 00
	00		 mov	 eax, DWORD PTR [esi+3704]
  000d2	8b 4d e4	 mov	 ecx, DWORD PTR _this$GSCopy$[ebp]
  000d5	03 c7		 add	 eax, edi
  000d7	50		 push	 eax
  000d8	e8 00 00 00 00	 call	 ?Is380OptionItem@CItemSystemFor380@@QAEHPBVCItem@@@Z ; CItemSystemFor380::Is380OptionItem
  000dd	85 c0		 test	 eax, eax
  000df	75 27		 jne	 SHORT $LN20@ChaosMix38
  000e1	8b 86 78 0e 00
	00		 mov	 eax, DWORD PTR [esi+3704]
  000e7	03 c7		 add	 eax, edi
  000e9	66 83 78 08 03	 cmp	 WORD PTR [eax+8], 3
  000ee	7e 18		 jle	 SHORT $LN20@ChaosMix38
  000f0	0f b6 90 96 00
	00 00		 movzx	 edx, BYTE PTR [eax+150]
  000f7	03 d2		 add	 edx, edx
  000f9	03 d2		 add	 edx, edx
  000fb	83 fa 03	 cmp	 edx, 3
  000fe	7e 08		 jle	 SHORT $LN20@ChaosMix38

; 323  : 		{
; 324  : 			iValidItemCount++;

  00100	ff 45 cc	 inc	 DWORD PTR _iValidItemCount$[ebp]

; 325  : 			pTargetItem = &lpObj->pChaosBox[n];

  00103	89 45 e0	 mov	 DWORD PTR _pTargetItem$[ebp], eax
  00106	eb 5b		 jmp	 SHORT $LN23@ChaosMix38
$LN20@ChaosMix38:

; 326  : 		}
; 327  : 		else if ( g_kJewelOfHarmonySystem.IsJewelOfHarmonyPurity(lpObj->pChaosBox[n].m_Type) == TRUE )

  00108	8b 86 78 0e 00
	00		 mov	 eax, DWORD PTR [esi+3704]
  0010e	0f b7 4c 38 06	 movzx	 ecx, WORD PTR [eax+edi+6]
  00113	51		 push	 ecx
  00114	b9 00 00 00 00	 mov	 ecx, OFFSET ?g_kJewelOfHarmonySystem@@3VCJewelOfHarmonySystem@@A ; g_kJewelOfHarmonySystem
  00119	e8 00 00 00 00	 call	 ?IsJewelOfHarmonyPurity@CJewelOfHarmonySystem@@QAEHF@Z ; CJewelOfHarmonySystem::IsJewelOfHarmonyPurity
  0011e	83 f8 01	 cmp	 eax, 1
  00121	75 08		 jne	 SHORT $LN18@ChaosMix38

; 328  : 		{
; 329  : 			iJewelOfHarmony++;

  00123	ff 45 d0	 inc	 DWORD PTR _iJewelOfHarmony$[ebp]

; 330  : 			iPosOfJewelOfHarmony = n;

  00126	89 5d d4	 mov	 DWORD PTR _iPosOfJewelOfHarmony$[ebp], ebx
  00129	eb 38		 jmp	 SHORT $LN23@ChaosMix38
$LN18@ChaosMix38:

; 331  : 		}
; 332  : 		else if ( lpObj->pChaosBox[n].m_Type == ITEMGET(14, 31) )

  0012b	8b 8e 78 0e 00
	00		 mov	 ecx, DWORD PTR [esi+3704]
  00131	0f b7 44 39 06	 movzx	 eax, WORD PTR [ecx+edi+6]
  00136	ba 1f 1c 00 00	 mov	 edx, 7199		; 00001c1fH
  0013b	66 3b c2	 cmp	 ax, dx
  0013e	75 08		 jne	 SHORT $LN16@ChaosMix38

; 333  : 		{
; 334  : 			iJewelOfSuho++;

  00140	ff 45 e8	 inc	 DWORD PTR _iJewelOfSuho$[ebp]

; 335  : 			iPosOfJewelOfSuho = n;

  00143	89 5d dc	 mov	 DWORD PTR _iPosOfJewelOfSuho$[ebp], ebx
  00146	eb 1b		 jmp	 SHORT $LN23@ChaosMix38
$LN16@ChaosMix38:

; 336  : 		}
; 337  : 		else if ( lpObj->pChaosBox[n].m_Type == ITEMGET(14,53) )

  00148	ba 35 1c 00 00	 mov	 edx, 7221		; 00001c35H
  0014d	66 3b c2	 cmp	 ax, dx
  00150	75 0e		 jne	 SHORT $LN14@ChaosMix38

; 338  : 		{
; 339  : 			iCharmOfLuckCount += (int)lpObj->pChaosBox[n].m_Durability;

  00152	d9 44 39 24	 fld	 DWORD PTR [ecx+edi+36]
  00156	e8 00 00 00 00	 call	 __ftol2_sse
  0015b	01 45 d8	 add	 DWORD PTR _iCharmOfLuckCount$[ebp], eax

; 340  : 		}
; 341  : 		else

  0015e	eb 03		 jmp	 SHORT $LN23@ChaosMix38
$LN14@ChaosMix38:

; 342  : 		{
; 343  : 			iInvalidItemCount++;

  00160	ff 45 c8	 inc	 DWORD PTR _iInvalidItemCount$[ebp]
$LN23@ChaosMix38:

; 314  : 
; 315  : 	for ( int n=0;n<CHAOS_BOX_SIZE;n++)

  00163	b8 01 00 00 00	 mov	 eax, 1
  00168	81 c7 d4 00 00
	00		 add	 edi, 212		; 000000d4H
  0016e	03 d8		 add	 ebx, eax
  00170	81 ff 80 1a 00
	00		 cmp	 edi, 6784		; 00001a80H
  00176	0f 8c 24 ff ff
	ff		 jl	 $LL24@ChaosMix38

; 344  : 		}
; 345  : 	}
; 346  : 	}
; 347  : 
; 348  : 	if ( iInvalidItemCount ||
; 349  : 		 iValidItemCount != 1 ||
; 350  : 		 iJewelOfHarmony != 1 ||
; 351  : 		 iJewelOfSuho != 1 ||
; 352  : 		 pTargetItem == NULL ||		
; 353  : 		 iPosOfJewelOfHarmony == -1 ||
; 354  : 		 iPosOfJewelOfSuho == -1 ||
; 355  : 		 iCharmOfLuckCount > 10 )

  0017c	83 7d c8 00	 cmp	 DWORD PTR _iInvalidItemCount$[ebp], 0
  00180	0f 85 0a 02 00
	00		 jne	 $LN11@ChaosMix38
  00186	39 45 cc	 cmp	 DWORD PTR _iValidItemCount$[ebp], eax
  00189	0f 85 01 02 00
	00		 jne	 $LN11@ChaosMix38
  0018f	39 45 d0	 cmp	 DWORD PTR _iJewelOfHarmony$[ebp], eax
  00192	0f 85 f8 01 00
	00		 jne	 $LN11@ChaosMix38
  00198	39 45 e8	 cmp	 DWORD PTR _iJewelOfSuho$[ebp], eax
  0019b	0f 85 ef 01 00
	00		 jne	 $LN11@ChaosMix38
  001a1	83 7d e0 00	 cmp	 DWORD PTR _pTargetItem$[ebp], 0
  001a5	0f 84 e5 01 00
	00		 je	 $LN11@ChaosMix38
  001ab	83 c8 ff	 or	 eax, -1
  001ae	39 45 d4	 cmp	 DWORD PTR _iPosOfJewelOfHarmony$[ebp], eax
  001b1	0f 84 d9 01 00
	00		 je	 $LN11@ChaosMix38
  001b7	39 45 dc	 cmp	 DWORD PTR _iPosOfJewelOfSuho$[ebp], eax
  001ba	0f 84 d0 01 00
	00		 je	 $LN11@ChaosMix38
  001c0	83 7d d8 0a	 cmp	 DWORD PTR _iCharmOfLuckCount$[ebp], 10 ; 0000000aH
  001c4	0f 8f c6 01 00
	00		 jg	 $LN11@ChaosMix38

; 361  : 	}
; 362  : 
; 363  : 	iMixPrice = this->m_iNeedZenFor380Option;
; 364  : 	int iChaosTaxMoney =  iMixPrice * g_CastleSiegeSync.GetTaxRateChaos(lpObj->m_Index) / 100;

  001ca	8b 0e		 mov	 ecx, DWORD PTR [esi]
  001cc	8b 45 e4	 mov	 eax, DWORD PTR _this$GSCopy$[ebp]
  001cf	8b 98 10 00 02
	00		 mov	 ebx, DWORD PTR [eax+131088]
  001d5	51		 push	 ecx
  001d6	b9 00 00 00 00	 mov	 ecx, OFFSET ?g_CastleSiegeSync@@3VCCastleSiegeSync@@A ; g_CastleSiegeSync
  001db	e8 00 00 00 00	 call	 ?GetTaxRateChaos@CCastleSiegeSync@@QAEHH@Z ; CCastleSiegeSync::GetTaxRateChaos
  001e0	8b c8		 mov	 ecx, eax
  001e2	0f af cb	 imul	 ecx, ebx
  001e5	b8 1f 85 eb 51	 mov	 eax, 1374389535		; 51eb851fH
  001ea	f7 e9		 imul	 ecx
  001ec	c1 fa 05	 sar	 edx, 5
  001ef	8b c2		 mov	 eax, edx
  001f1	c1 e8 1f	 shr	 eax, 31			; 0000001fH
  001f4	03 c2		 add	 eax, edx

; 365  : 
; 366  : 	if ( iChaosTaxMoney < 0 )

  001f6	79 02		 jns	 SHORT $LN30@ChaosMix38

; 367  : 		iChaosTaxMoney = 0;

  001f8	33 c0		 xor	 eax, eax
$LN30@ChaosMix38:

; 368  : 
; 369  : 	iMixPrice += iChaosTaxMoney;

  001fa	03 d8		 add	 ebx, eax

; 370  : 
; 371  : 	if ( iMixPrice < 0 )

  001fc	79 02		 jns	 SHORT $LN31@ChaosMix38

; 372  : 		iMixPrice = 0;

  001fe	33 db		 xor	 ebx, ebx
$LN31@ChaosMix38:

; 373  : 
; 374  : 	if ( lpObj->Money < iMixPrice )

  00200	8b 8e f0 00 00
	00		 mov	 ecx, DWORD PTR [esi+240]
  00206	3b cb		 cmp	 ecx, ebx
  00208	7d 15		 jge	 SHORT $LN8@ChaosMix38

; 375  : 	{
; 376  : 		pMsg.Result = 2;
; 377  : 		DataSend(lpObj->m_Index, (LPBYTE)&pMsg, pMsg.h.size);

  0020a	0f b6 55 ed	 movzx	 edx, BYTE PTR _pMsg$[ebp+1]
  0020e	8b 0e		 mov	 ecx, DWORD PTR [esi]
  00210	52		 push	 edx
  00211	8d 45 ec	 lea	 eax, DWORD PTR _pMsg$[ebp]
  00214	50		 push	 eax
  00215	c6 45 ef 02	 mov	 BYTE PTR _pMsg$[ebp+3], 2
  00219	51		 push	 ecx

; 378  : 		lpObj->ChaosLock = FALSE;
; 379  : 
; 380  : 		return FALSE;

  0021a	e9 7d 01 00 00	 jmp	 $LN34@ChaosMix38
$LN8@ChaosMix38:

; 381  : 	}
; 382  : 
; 383  : 	lpObj->Money -= iMixPrice;

  0021f	2b cb		 sub	 ecx, ebx
  00221	89 8e f0 00 00
	00		 mov	 DWORD PTR [esi+240], ecx

; 384  : 	g_CastleSiegeSync.AddTributeMoney(iChaosTaxMoney);

  00227	50		 push	 eax
  00228	b9 00 00 00 00	 mov	 ecx, OFFSET ?g_CastleSiegeSync@@3VCCastleSiegeSync@@A ; g_CastleSiegeSync
  0022d	e8 00 00 00 00	 call	 ?AddTributeMoney@CCastleSiegeSync@@QAEXH@Z ; CCastleSiegeSync::AddTributeMoney

; 385  : 	
; 386  : 	GCMoneySend(lpObj->m_Index, lpObj->Money);

  00232	8b 96 f0 00 00
	00		 mov	 edx, DWORD PTR [esi+240]
  00238	8b 06		 mov	 eax, DWORD PTR [esi]
  0023a	52		 push	 edx
  0023b	50		 push	 eax
  0023c	e8 00 00 00 00	 call	 ?GCMoneySend@@YAXHK@Z	; GCMoneySend
  00241	83 c4 08	 add	 esp, 8

; 387  : 	g_MixSystem.LogChaosItem(lpObj, "380Item][Item Mix"); //LogChaosItem(lpObj, "380Item][Item Mix");

  00244	68 00 00 00 00	 push	 OFFSET ??_C@_0BC@IFIOIDM@380Item?$FN?$FLItem?5Mix?$AA@
  00249	56		 push	 esi
  0024a	b9 00 00 00 00	 mov	 ecx, OFFSET ?g_MixSystem@@3VCMixSystem@@A ; g_MixSystem
  0024f	e8 00 00 00 00	 call	 ?LogChaosItem@CMixSystem@@QAEXPAUOBJECTSTRUCT@@PAD@Z ; CMixSystem::LogChaosItem

; 388  : 	LogAddTD("[380Item][Item Mix] - Mix Start");

  00254	68 00 00 00 00	 push	 OFFSET ??_C@_0CA@CBDBEMLE@?$FL380Item?$FN?$FLItem?5Mix?$FN?5?9?5Mix?5Start?$AA@
  00259	ff 15 00 00 00
	00		 call	 DWORD PTR ?LogAddTD@@3P6AXPADZZA ; LogAddTD
  0025f	83 c4 04	 add	 esp, 4

; 389  : 
; 390  : 	int iRate =	rand() % 100;

  00262	e8 00 00 00 00	 call	 _rand
  00267	99		 cdq
  00268	b9 64 00 00 00	 mov	 ecx, 100		; 00000064H
  0026d	f7 f9		 idiv	 ecx

; 391  : 	int iRateSuccess = this->m_iRateSuccessRateForMix1;

  0026f	8b 4d e4	 mov	 ecx, DWORD PTR _this$GSCopy$[ebp]
  00272	8b b9 14 00 02
	00		 mov	 edi, DWORD PTR [ecx+131092]
  00278	89 55 e8	 mov	 DWORD PTR _iRate$[ebp], edx

; 392  : 
; 393  : 	if ( pTargetItem->m_Level < 7 )

  0027b	8b 55 e0	 mov	 edx, DWORD PTR _pTargetItem$[ebp]
  0027e	0f b7 42 08	 movzx	 eax, WORD PTR [edx+8]
  00282	66 83 f8 07	 cmp	 ax, 7

; 394  : 		iRateSuccess = this->m_iRateSuccessRateForMix1;

  00286	7c 1a		 jl	 SHORT $LN3@ChaosMix38

; 395  : 	else if ( pTargetItem->m_Level < 10 )

  00288	66 83 f8 0a	 cmp	 ax, 10			; 0000000aH
  0028c	7d 08		 jge	 SHORT $LN5@ChaosMix38

; 396  : 		iRateSuccess = this->m_iRateSuccessRateForMix2;

  0028e	8b b9 18 00 02
	00		 mov	 edi, DWORD PTR [ecx+131096]
  00294	eb 0c		 jmp	 SHORT $LN3@ChaosMix38
$LN5@ChaosMix38:

; 397  : 	else if ( pTargetItem->m_Level < 14 )

  00296	66 83 f8 0e	 cmp	 ax, 14			; 0000000eH
  0029a	7d 06		 jge	 SHORT $LN3@ChaosMix38

; 398  : 		iRateSuccess = this->m_iRateSuccessRateForMix3;

  0029c	8b b9 1c 00 02
	00		 mov	 edi, DWORD PTR [ecx+131100]
$LN3@ChaosMix38:

; 399  : 
; 400  : 	iRateSuccess += iCharmOfLuckCount;
; 401  : 
; 402  : 	lpObj->pChaosBox[iPosOfJewelOfHarmony].Clear();

  002a2	8b 4d d4	 mov	 ecx, DWORD PTR _iPosOfJewelOfHarmony$[ebp]
  002a5	03 7d d8	 add	 edi, DWORD PTR _iCharmOfLuckCount$[ebp]
  002a8	69 c9 d4 00 00
	00		 imul	 ecx, 212		; 000000d4H
  002ae	03 8e 78 0e 00
	00		 add	 ecx, DWORD PTR [esi+3704]
  002b4	e8 00 00 00 00	 call	 ?Clear@CItem@@QAEXXZ	; CItem::Clear

; 403  : 	lpObj->pChaosBoxMap[iPosOfJewelOfHarmony] = -1;

  002b9	8b 86 7c 0e 00
	00		 mov	 eax, DWORD PTR [esi+3708]
  002bf	8b 4d d4	 mov	 ecx, DWORD PTR _iPosOfJewelOfHarmony$[ebp]
  002c2	c6 04 01 ff	 mov	 BYTE PTR [ecx+eax], 255	; 000000ffH

; 404  : 	lpObj->pChaosBox[iPosOfJewelOfSuho].Clear();

  002c6	8b 4d dc	 mov	 ecx, DWORD PTR _iPosOfJewelOfSuho$[ebp]
  002c9	69 c9 d4 00 00
	00		 imul	 ecx, 212		; 000000d4H
  002cf	03 8e 78 0e 00
	00		 add	 ecx, DWORD PTR [esi+3704]
  002d5	e8 00 00 00 00	 call	 ?Clear@CItem@@QAEXXZ	; CItem::Clear

; 405  : 	lpObj->pChaosBoxMap[iPosOfJewelOfSuho] = -1;

  002da	8b 96 7c 0e 00
	00		 mov	 edx, DWORD PTR [esi+3708]
  002e0	8b 45 dc	 mov	 eax, DWORD PTR _iPosOfJewelOfSuho$[ebp]
  002e3	c6 04 10 ff	 mov	 BYTE PTR [eax+edx], 255	; 000000ffH

; 406  : 
; 407  : 	if ( iRate < iRateSuccess )

  002e7	39 7d e8	 cmp	 DWORD PTR _iRate$[ebp], edi
  002ea	7d 61		 jge	 SHORT $LN2@ChaosMix38

; 408  : 	{
; 409  : 		this->_SetOption(pTargetItem, TRUE);

  002ec	8b 4d e0	 mov	 ecx, DWORD PTR _pTargetItem$[ebp]
  002ef	6a 01		 push	 1
  002f1	51		 push	 ecx
  002f2	8b 4d e4	 mov	 ecx, DWORD PTR _this$GSCopy$[ebp]
  002f5	e8 00 00 00 00	 call	 ?_SetOption@CItemSystemFor380@@QAEHPAVCItem@@H@Z ; CItemSystemFor380::_SetOption

; 410  : 		GCUserChaosBoxSend(lpObj, 0);

  002fa	6a 00		 push	 0
  002fc	56		 push	 esi
  002fd	e8 00 00 00 00	 call	 ?GCUserChaosBoxSend@@YAXPAUOBJECTSTRUCT@@H@Z ; GCUserChaosBoxSend

; 411  : 
; 412  : 		LogAddTD("[380Item][ItemMix] Mix Success [%s][%s], Money(%d-%d) Rate(%d/%d) Option(%d,%d) OptionValue(%d,%d)",
; 413  : 			lpObj->AccountID, lpObj->Name, lpObj->Money,
; 414  : 			iMixPrice, iRate, iRateSuccess,
; 415  : 			this->m_itemOption[(pTargetItem->m_Type )].m_Option1,
; 416  : 			this->m_itemOption[(pTargetItem->m_Type )].m_Option2,
; 417  : 			this->m_itemOption[(pTargetItem->m_Type )].m_Value1,
; 418  : 			this->m_itemOption[(pTargetItem->m_Type )].m_Value2);

  00302	8b 55 e0	 mov	 edx, DWORD PTR _pTargetItem$[ebp]
  00305	0f bf 42 06	 movsx	 eax, WORD PTR [edx+6]
  00309	c1 e0 04	 shl	 eax, 4
  0030c	03 45 e4	 add	 eax, DWORD PTR _this$GSCopy$[ebp]
  0030f	0f b7 50 10	 movzx	 edx, WORD PTR [eax+16]
  00313	0f b7 48 0c	 movzx	 ecx, WORD PTR [eax+12]
  00317	52		 push	 edx
  00318	0f b6 50 0e	 movzx	 edx, BYTE PTR [eax+14]
  0031c	0f b6 40 0a	 movzx	 eax, BYTE PTR [eax+10]
  00320	51		 push	 ecx
  00321	8b 4d e8	 mov	 ecx, DWORD PTR _iRate$[ebp]
  00324	52		 push	 edx
  00325	8b 96 f0 00 00
	00		 mov	 edx, DWORD PTR [esi+240]
  0032b	50		 push	 eax
  0032c	57		 push	 edi
  0032d	51		 push	 ecx
  0032e	53		 push	 ebx
  0032f	52		 push	 edx
  00330	8d 46 77	 lea	 eax, DWORD PTR [esi+119]
  00333	50		 push	 eax
  00334	8d 4e 6c	 lea	 ecx, DWORD PTR [esi+108]
  00337	51		 push	 ecx
  00338	68 00 00 00 00	 push	 OFFSET ??_C@_0GD@FNEHGIAM@?$FL380Item?$FN?$FLItemMix?$FN?5Mix?5Success?5?$FL@
  0033d	ff 15 00 00 00
	00		 call	 DWORD PTR ?LogAddTD@@3P6AXPADZZA ; LogAddTD
  00343	83 c4 34	 add	 esp, 52			; 00000034H

; 428  : 
; 429  : 	}
; 430  : 
; 431  : 	lpObj->ChaosLock = FALSE;
; 432  : 	return TRUE;

  00346	b8 01 00 00 00	 mov	 eax, 1
  0034b	eb 59		 jmp	 SHORT $LN35@ChaosMix38
$LN2@ChaosMix38:

; 419  : 	}
; 420  : 	else
; 421  : 	{
; 422  : 		GCUserChaosBoxSend(lpObj, 0);

  0034d	6a 00		 push	 0
  0034f	56		 push	 esi
  00350	e8 00 00 00 00	 call	 ?GCUserChaosBoxSend@@YAXPAUOBJECTSTRUCT@@H@Z ; GCUserChaosBoxSend

; 423  : 		DataSend(lpObj->m_Index, (LPBYTE)&pMsg, pMsg.h.size);

  00355	0f b6 55 ed	 movzx	 edx, BYTE PTR _pMsg$[ebp+1]
  00359	8b 0e		 mov	 ecx, DWORD PTR [esi]
  0035b	52		 push	 edx
  0035c	8d 45 ec	 lea	 eax, DWORD PTR _pMsg$[ebp]
  0035f	50		 push	 eax
  00360	51		 push	 ecx
  00361	e8 00 00 00 00	 call	 ?DataSend@@YAHHPAEK@Z	; DataSend

; 424  : 
; 425  : 		LogAddTD("[380Item][ItemMix] Mix Fail [%s][%s], Money(%d-%d) Rate(%d/%d)",
; 426  : 			lpObj->AccountID, lpObj->Name, lpObj->Money,
; 427  : 			iMixPrice, iRate, iRateSuccess);

  00366	8b 55 e8	 mov	 edx, DWORD PTR _iRate$[ebp]
  00369	8b 86 f0 00 00
	00		 mov	 eax, DWORD PTR [esi+240]
  0036f	57		 push	 edi
  00370	52		 push	 edx
  00371	53		 push	 ebx
  00372	50		 push	 eax
  00373	8d 4e 77	 lea	 ecx, DWORD PTR [esi+119]
  00376	51		 push	 ecx
  00377	8d 56 6c	 lea	 edx, DWORD PTR [esi+108]
  0037a	52		 push	 edx
  0037b	68 00 00 00 00	 push	 OFFSET ??_C@_0DP@LHPKHLIF@?$FL380Item?$FN?$FLItemMix?$FN?5Mix?5Fail?5?$FL?$CFs?$FN@
  00380	ff 15 00 00 00
	00		 call	 DWORD PTR ?LogAddTD@@3P6AXPADZZA ; LogAddTD
  00386	83 c4 30	 add	 esp, 48			; 00000030H

; 428  : 
; 429  : 	}
; 430  : 
; 431  : 	lpObj->ChaosLock = FALSE;
; 432  : 	return TRUE;

  00389	b8 01 00 00 00	 mov	 eax, 1
  0038e	eb 16		 jmp	 SHORT $LN35@ChaosMix38
$LN11@ChaosMix38:

; 356  : 	{
; 357  : 		DataSend(lpObj->m_Index, (LPBYTE)&pMsg, pMsg.h.size);

  00390	0f b6 45 ed	 movzx	 eax, BYTE PTR _pMsg$[ebp+1]
  00394	8b 16		 mov	 edx, DWORD PTR [esi]
  00396	50		 push	 eax
  00397	8d 4d ec	 lea	 ecx, DWORD PTR _pMsg$[ebp]
  0039a	51		 push	 ecx
  0039b	52		 push	 edx
$LN34@ChaosMix38:
  0039c	e8 00 00 00 00	 call	 ?DataSend@@YAHHPAEK@Z	; DataSend
  003a1	83 c4 0c	 add	 esp, 12			; 0000000cH

; 358  : 		lpObj->ChaosLock = FALSE;
; 359  : 
; 360  : 		return FALSE;

  003a4	33 c0		 xor	 eax, eax
$LN35@ChaosMix38:

; 433  : }

  003a6	8b 4d fc	 mov	 ecx, DWORD PTR __$ArrayPad$[ebp]
  003a9	5f		 pop	 edi
  003aa	5b		 pop	 ebx
  003ab	c7 86 88 0e 00
	00 00 00 00 00	 mov	 DWORD PTR [esi+3720], 0
  003b5	33 cd		 xor	 ecx, ebp
  003b7	5e		 pop	 esi
  003b8	e8 00 00 00 00	 call	 @__security_check_cookie@4
  003bd	8b e5		 mov	 esp, ebp
  003bf	5d		 pop	 ebp
  003c0	c2 04 00	 ret	 4
?ChaosMix380ItemOption@CItemSystemFor380@@QAEHPAUOBJECTSTRUCT@@@Z ENDP ; CItemSystemFor380::ChaosMix380ItemOption
_TEXT	ENDS
EXTRN	??3@YAXPAX@Z:PROC				; operator delete
; Function compile flags: /Ogtp
;	COMDAT ??_GCItemSystemFor380@@UAEPAXI@Z
_TEXT	SEGMENT
___flags$ = 8						; size = 4
??_GCItemSystemFor380@@UAEPAXI@Z PROC			; CItemSystemFor380::`scalar deleting destructor', COMDAT
; _this$ = ecx
  00000	55		 push	 ebp
  00001	8b ec		 mov	 ebp, esp
  00003	56		 push	 esi
  00004	8b f1		 mov	 esi, ecx
  00006	e8 00 00 00 00	 call	 ??1CItemSystemFor380@@UAE@XZ ; CItemSystemFor380::~CItemSystemFor380
  0000b	f6 45 08 01	 test	 BYTE PTR ___flags$[ebp], 1
  0000f	74 09		 je	 SHORT $LN4@scalar
  00011	56		 push	 esi
  00012	e8 00 00 00 00	 call	 ??3@YAXPAX@Z		; operator delete
  00017	83 c4 04	 add	 esp, 4
$LN4@scalar:
  0001a	8b c6		 mov	 eax, esi
  0001c	5e		 pop	 esi
  0001d	5d		 pop	 ebp
  0001e	c2 04 00	 ret	 4
??_GCItemSystemFor380@@UAEPAXI@Z ENDP			; CItemSystemFor380::`scalar deleting destructor'
_TEXT	ENDS
PUBLIC	?ApplyFor380Option@CItemSystemFor380@@QAEHPAUOBJECTSTRUCT@@@Z ; CItemSystemFor380::ApplyFor380Option
; Function compile flags: /Ogtp
;	COMDAT ?ApplyFor380Option@CItemSystemFor380@@QAEHPAUOBJECTSTRUCT@@@Z
_TEXT	SEGMENT
tv257 = -8						; size = 4
_iOption2$209462 = -1					; size = 1
_lpObj$ = 8						; size = 4
?ApplyFor380Option@CItemSystemFor380@@QAEHPAUOBJECTSTRUCT@@@Z PROC ; CItemSystemFor380::ApplyFor380Option, COMDAT
; _this$ = ecx

; 172  : {

  00000	55		 push	 ebp
  00001	8b ec		 mov	 ebp, esp
  00003	83 ec 08	 sub	 esp, 8
  00006	53		 push	 ebx

; 173  : 	ITEMOPTION_FOR380ITEM_EFFECT * pItemEffect = &lpObj->m_ItemOptionExFor380;

  00007	8b 5d 08	 mov	 ebx, DWORD PTR _lpObj$[ebp]
  0000a	56		 push	 esi
  0000b	57		 push	 edi
  0000c	81 c3 fe 1f 00
	00		 add	 ebx, 8190		; 00001ffeH

; 174  : 	this->InitEffectValue(pItemEffect);

  00012	53		 push	 ebx
  00013	8b f9		 mov	 edi, ecx
  00015	e8 00 00 00 00	 call	 ?InitEffectValue@CItemSystemFor380@@QAEXPAUITEMOPTION_FOR380ITEM_EFFECT@@@Z ; CItemSystemFor380::InitEffectValue
  0001a	c7 45 f8 00 00
	00 00		 mov	 DWORD PTR tv257[ebp], 0
$LL9@ApplyFor38:

; 178  : 	{
; 179  : 		CItem * pItem = &lpObj->pInventory[iItemIndex];

  00021	8b 45 08	 mov	 eax, DWORD PTR _lpObj$[ebp]
  00024	8b b0 24 0e 00
	00		 mov	 esi, DWORD PTR [eax+3620]
  0002a	03 75 f8	 add	 esi, DWORD PTR tv257[ebp]

; 180  : 
; 181  : 		if ( pItem->IsItem() &&
; 182  : 			 pItem->m_IsValidItem &&
; 183  : 			 this->Is380OptionItem(pItem) == TRUE )

  0002d	8b ce		 mov	 ecx, esi
  0002f	e8 00 00 00 00	 call	 ?IsItem@CItem@@QAEHXZ	; CItem::IsItem
  00034	85 c0		 test	 eax, eax
  00036	74 4c		 je	 SHORT $LN3@ApplyFor38
  00038	80 be b0 00 00
	00 00		 cmp	 BYTE PTR [esi+176], 0
  0003f	74 43		 je	 SHORT $LN3@ApplyFor38
  00041	56		 push	 esi
  00042	8b cf		 mov	 ecx, edi
  00044	e8 00 00 00 00	 call	 ?Is380OptionItem@CItemSystemFor380@@QAEHPBVCItem@@@Z ; CItemSystemFor380::Is380OptionItem
  00049	83 f8 01	 cmp	 eax, 1
  0004c	75 36		 jne	 SHORT $LN3@ApplyFor38

; 184  : 		{
; 185  : 			BYTE iOption1, iOption2;
; 186  : 			WORD iValue1, iValue2;
; 187  : 
; 188  : 			iOption1 = this->m_itemOption[pItem->m_Type ].m_Option1;
; 189  : 			iValue1 = this->m_itemOption[pItem->m_Type ].m_Value1;
; 190  : 			iOption2 = this->m_itemOption[pItem->m_Type ].m_Option2;

  0004e	0f bf 46 06	 movsx	 eax, WORD PTR [esi+6]
  00052	c1 e0 04	 shl	 eax, 4
  00055	8a 54 38 0e	 mov	 dl, BYTE PTR [eax+edi+14]

; 191  : 			iValue2 = this->m_itemOption[pItem->m_Type ].m_Value2;
; 192  : 			BOOL bResult = FALSE;
; 193  : 			bResult = this->_CalcItemEffectValue(iOption1, iValue1, pItemEffect);

  00059	0f b7 4c 38 0c	 movzx	 ecx, WORD PTR [eax+edi+12]
  0005e	0f b7 74 38 10	 movzx	 esi, WORD PTR [eax+edi+16]
  00063	03 c7		 add	 eax, edi
  00065	88 55 ff	 mov	 BYTE PTR _iOption2$209462[ebp], dl
  00068	0f b6 50 0a	 movzx	 edx, BYTE PTR [eax+10]
  0006c	53		 push	 ebx
  0006d	51		 push	 ecx
  0006e	52		 push	 edx
  0006f	8b cf		 mov	 ecx, edi
  00071	e8 00 00 00 00	 call	 ?_CalcItemEffectValue@CItemSystemFor380@@QAEHHHPAUITEMOPTION_FOR380ITEM_EFFECT@@@Z ; CItemSystemFor380::_CalcItemEffectValue

; 194  : 			bResult |= this->_CalcItemEffectValue(iOption2, iValue2, pItemEffect);

  00076	0f b6 4d ff	 movzx	 ecx, BYTE PTR _iOption2$209462[ebp]
  0007a	53		 push	 ebx
  0007b	56		 push	 esi
  0007c	51		 push	 ecx
  0007d	8b cf		 mov	 ecx, edi
  0007f	e8 00 00 00 00	 call	 ?_CalcItemEffectValue@CItemSystemFor380@@QAEHHHPAUITEMOPTION_FOR380ITEM_EFFECT@@@Z ; CItemSystemFor380::_CalcItemEffectValue
$LN3@ApplyFor38:

; 175  : 	int iItemIndex = 0;
; 176  : 
; 177  : 	for ( iItemIndex = 0; iItemIndex < INVETORY_WEAR_SIZE ; iItemIndex++)

  00084	8b 45 f8	 mov	 eax, DWORD PTR tv257[ebp]
  00087	05 d4 00 00 00	 add	 eax, 212		; 000000d4H
  0008c	89 45 f8	 mov	 DWORD PTR tv257[ebp], eax
  0008f	3d f0 09 00 00	 cmp	 eax, 2544		; 000009f0H
  00094	7c 8b		 jl	 SHORT $LL9@ApplyFor38

; 195  : 		}
; 196  : 	}
; 197  : 
; 198  : 	lpObj->AddLife += pItemEffect->OpAddMaxHP;

  00096	0f bf 53 08	 movsx	 edx, WORD PTR [ebx+8]
  0009a	8b 45 08	 mov	 eax, DWORD PTR _lpObj$[ebp]
  0009d	01 90 4c 01 00
	00		 add	 DWORD PTR [eax+332], edx

; 199  : 	lpObj->iAddShield += pItemEffect->OpAddMaxSD;

  000a3	0f bf 4b 0a	 movsx	 ecx, WORD PTR [ebx+10]
  000a7	01 88 5c 01 00
	00		 add	 DWORD PTR [eax+348], ecx
  000ad	5f		 pop	 edi
  000ae	5e		 pop	 esi

; 200  : 
; 201  : 	return TRUE;

  000af	b8 01 00 00 00	 mov	 eax, 1
  000b4	5b		 pop	 ebx

; 202  : }

  000b5	8b e5		 mov	 esp, ebp
  000b7	5d		 pop	 ebp
  000b8	c2 04 00	 ret	 4
?ApplyFor380Option@CItemSystemFor380@@QAEHPAUOBJECTSTRUCT@@@Z ENDP ; CItemSystemFor380::ApplyFor380Option
_TEXT	ENDS
EXTRN	_atexit:PROC
; Function compile flags: /Ogtp
;	COMDAT ??__Eg_kItemSystemFor380@@YAXXZ
text$yc	SEGMENT
??__Eg_kItemSystemFor380@@YAXXZ PROC			; `dynamic initializer for 'g_kItemSystemFor380'', COMDAT

; 15   : CItemSystemFor380 g_kItemSystemFor380;

  00000	b9 00 00 00 00	 mov	 ecx, OFFSET ?g_kItemSystemFor380@@3VCItemSystemFor380@@A ; g_kItemSystemFor380
  00005	e8 00 00 00 00	 call	 ??0CItemSystemFor380@@QAE@XZ ; CItemSystemFor380::CItemSystemFor380
  0000a	68 00 00 00 00	 push	 OFFSET ??__Fg_kItemSystemFor380@@YAXXZ ; `dynamic atexit destructor for 'g_kItemSystemFor380''
  0000f	e8 00 00 00 00	 call	 _atexit
  00014	59		 pop	 ecx
  00015	c3		 ret	 0
??__Eg_kItemSystemFor380@@YAXXZ ENDP			; `dynamic initializer for 'g_kItemSystemFor380''
; Function compile flags: /Ogtp
text$yc	ENDS
;	COMDAT ??__Fg_kItemSystemFor380@@YAXXZ
text$yd	SEGMENT
??__Fg_kItemSystemFor380@@YAXXZ PROC			; `dynamic atexit destructor for 'g_kItemSystemFor380'', COMDAT
  00000	b9 00 00 00 00	 mov	 ecx, OFFSET ?g_kItemSystemFor380@@3VCItemSystemFor380@@A ; g_kItemSystemFor380
  00005	e9 00 00 00 00	 jmp	 ??1CItemSystemFor380@@UAE@XZ ; CItemSystemFor380::~CItemSystemFor380
??__Fg_kItemSystemFor380@@YAXXZ ENDP			; `dynamic atexit destructor for 'g_kItemSystemFor380''
text$yd	ENDS
PUBLIC	?g_kItemSystemFor380@@3VCItemSystemFor380@@A	; g_kItemSystemFor380
_BSS	SEGMENT
?g_kItemSystemFor380@@3VCItemSystemFor380@@A DB 020020H DUP (?) ; g_kItemSystemFor380
_BSS	ENDS
CRT$XCU	SEGMENT
_g_kItemSystemFor380$initializer$ DD FLAT:??__Eg_kItemSystemFor380@@YAXXZ
CRT$XCU	ENDS
END
