; Listing generated by Microsoft (R) Optimizing Compiler Version 16.00.30319.01 

	TITLE	E:\work\tranet_version\GS\GameServer\ItemRank.cpp
	.686P
	.XMM
	include listing.inc
	.model	flat

INCLUDELIB LIBCMT
INCLUDELIB OLDNAMES

_DATA	SEGMENT
_g_iNpcUpDfLevel_CGATE DD 01H
	DD	02H
	DD	02dc6c0H
	DD	02H
	DD	03H
	DD	02dc6c0H
	DD	03H
	DD	04H
	DD	02dc6c0H
_g_iNpcUpDfLevel_CSTATUE DD 01H
	DD	03H
	DD	02dc6c0H
	DD	02H
	DD	05H
	DD	02dc6c0H
	DD	03H
	DD	07H
	DD	02dc6c0H
_g_iNpcUpMaxHP_CGATE DD 02625a0H
	DD	02H
	DD	0f4240H
	DD	03567e0H
	DD	03H
	DD	0f4240H
	DD	04f5880H
	DD	04H
	DD	0f4240H
_g_iNpcUpMaxHP_CSTATUE DD 02191c0H
	DD	03H
	DD	0f4240H
	DD	033e140H
	DD	05H
	DD	0f4240H
	DD	04c4b40H
	DD	07H
	DD	0f4240H
_g_iNpcUpRgLevel_CSTATUE DD 01H
	DD	03H
	DD	04c4b40H
	DD	02H
	DD	05H
	DD	04c4b40H
	DD	03H
	DD	07H
	DD	04c4b40H
_g_iCsUserReSpawnArea DD 023H
	DD	011H
	DD	090H
	DD	030H
	DD	04aH
	DD	090H
	DD	073H
	DD	09aH
	DD	023H
	DD	011H
	DD	090H
	DD	030H
_g_iNpcDefense_CGATE DD 064H
	DD	0b4H
	DD	012cH
	DD	0208H
_g_iNpcDefense_CSTATUE DD 050H
	DD	0b4H
	DD	0154H
	DD	0226H
_g_iCastleWallStepAxisY DD 071H
	DD	0a0H
	DD	0cbH
_DATA	ENDS
PUBLIC	?set@PBMSG_HEAD2@@QAEXPAEEEE@Z			; PBMSG_HEAD2::set
; Function compile flags: /Ogtp
; File e:\work\tranet_version\gs\include\prodef.h
;	COMDAT ?set@PBMSG_HEAD2@@QAEXPAEEEE@Z
_TEXT	SEGMENT
_lpBuf$ = 8						; size = 4
_head$ = 12						; size = 1
_sub$ = 16						; size = 1
_size$ = 20						; size = 1
?set@PBMSG_HEAD2@@QAEXPAEEEE@Z PROC			; PBMSG_HEAD2::set, COMDAT
; _this$ = ecx

; 104  : 	{

  00000	55		 push	 ebp
  00001	8b ec		 mov	 ebp, esp

; 105  : 		lpBuf[0] = 0xC1;

  00003	8b 45 08	 mov	 eax, DWORD PTR _lpBuf$[ebp]

; 106  : 		lpBuf[1] = size;

  00006	8a 4d 14	 mov	 cl, BYTE PTR _size$[ebp]

; 107  : 		lpBuf[2] = head;

  00009	8a 55 0c	 mov	 dl, BYTE PTR _head$[ebp]
  0000c	88 48 01	 mov	 BYTE PTR [eax+1], cl

; 108  : 		lpBuf[3] = sub;

  0000f	8a 4d 10	 mov	 cl, BYTE PTR _sub$[ebp]
  00012	c6 00 c1	 mov	 BYTE PTR [eax], 193	; 000000c1H
  00015	88 50 02	 mov	 BYTE PTR [eax+2], dl
  00018	88 48 03	 mov	 BYTE PTR [eax+3], cl

; 109  : 	};

  0001b	5d		 pop	 ebp
  0001c	c2 10 00	 ret	 16			; 00000010H
?set@PBMSG_HEAD2@@QAEXPAEEEE@Z ENDP			; PBMSG_HEAD2::set
_TEXT	ENDS
PUBLIC	??0ItemRank_Data@@QAE@XZ			; ItemRank_Data::ItemRank_Data
; Function compile flags: /Ogtp
; File e:\work\tranet_version\gs\gameserver\itemrank.h
;	COMDAT ??0ItemRank_Data@@QAE@XZ
_TEXT	SEGMENT
??0ItemRank_Data@@QAE@XZ PROC				; ItemRank_Data::ItemRank_Data, COMDAT
; _this$ = ecx

; 14   : 	ItemRank_Data()

  00000	8b c1		 mov	 eax, ecx

; 15   : 	{
; 16   : 		ZeroMemory(this, sizeof(*this));

  00002	33 c9		 xor	 ecx, ecx
  00004	89 08		 mov	 DWORD PTR [eax], ecx
  00006	66 89 48 04	 mov	 WORD PTR [eax+4], cx
  0000a	88 48 06	 mov	 BYTE PTR [eax+6], cl

; 17   : 	}

  0000d	c3		 ret	 0
??0ItemRank_Data@@QAE@XZ ENDP				; ItemRank_Data::ItemRank_Data
_TEXT	ENDS
PUBLIC	??0ItemRank_List@@QAE@XZ			; ItemRank_List::ItemRank_List
; Function compile flags: /Ogtp
;	COMDAT ??0ItemRank_List@@QAE@XZ
_TEXT	SEGMENT
??0ItemRank_List@@QAE@XZ PROC				; ItemRank_List::ItemRank_List, COMDAT
; _this$ = ecx

; 25   : 	ItemRank_List()

  00000	8b c1		 mov	 eax, ecx

; 26   : 	{
; 27   : 		ZeroMemory(this, sizeof(*this));

  00002	33 c9		 xor	 ecx, ecx
  00004	89 08		 mov	 DWORD PTR [eax], ecx
  00006	66 89 48 04	 mov	 WORD PTR [eax+4], cx

; 28   : 	}

  0000a	c3		 ret	 0
??0ItemRank_List@@QAE@XZ ENDP				; ItemRank_List::ItemRank_List
_TEXT	ENDS
PUBLIC	__$ArrayPad$
EXTRN	_isalnum:PROC
EXTRN	_isalpha:PROC
EXTRN	_atof:PROC
EXTRN	_isdigit:PROC
EXTRN	_getc:PROC
EXTRN	_ungetc:PROC
EXTRN	_isspace:PROC
EXTRN	_fgetc:PROC
EXTRN	___security_cookie:DWORD
EXTRN	__fltused:DWORD
EXTRN	@__security_check_cookie@4:PROC
_BSS	SEGMENT
_CurrentToken DD 01H DUP (?)
_TokenNumber DD	01H DUP (?)
_SMDFile DD	01H DUP (?)
_TokenString DB	064H DUP (?)
; Function compile flags: /Ogtp
; File e:\work\tranet_version\gs\include\readscript.h
_BSS	ENDS
;	COMDAT ?GetToken@@YA?AW4SMDToken@@XZ
_TEXT	SEGMENT
_TempString$ = -104					; size = 100
__$ArrayPad$ = -4					; size = 4
?GetToken@@YA?AW4SMDToken@@XZ PROC			; GetToken, COMDAT

; 24   : {

  00000	55		 push	 ebp
  00001	8b ec		 mov	 ebp, esp
  00003	83 ec 68	 sub	 esp, 104		; 00000068H
  00006	a1 00 00 00 00	 mov	 eax, DWORD PTR ___security_cookie
  0000b	33 c5		 xor	 eax, ebp
  0000d	89 45 fc	 mov	 DWORD PTR __$ArrayPad$[ebp], eax

; 25   : 	char ch;
; 26   : 	char* p;
; 27   : 	char TempString[100];
; 28   : 
; 29   : 	TokenString[0]=0;

  00010	c6 05 00 00 00
	00 00		 mov	 BYTE PTR _TokenString, 0
  00017	53		 push	 ebx
  00018	eb 06 8d 9b 00
	00 00 00	 npad	 8
$LL31@GetToken:

; 30   : 
; 31   : 	do
; 32   : 	{
; 33   : 		if ((ch=fgetc(SMDFile)) == -1)

  00020	a1 00 00 00 00	 mov	 eax, DWORD PTR _SMDFile
  00025	50		 push	 eax
  00026	e8 00 00 00 00	 call	 _fgetc
  0002b	8a d8		 mov	 bl, al
  0002d	83 c4 04	 add	 esp, 4
  00030	80 fb ff	 cmp	 bl, -1
  00033	74 64		 je	 SHORT $LN39@GetToken

; 36   : 		}
; 37   : 		else
; 38   : 		{	
; 39   : 			if (ch=='/')		// this is /

  00035	80 fb 2f	 cmp	 bl, 47			; 0000002fH
  00038	75 31		 jne	 SHORT $LN30@GetToken

; 40   : 			{
; 41   : 				if((ch=fgetc(SMDFile)) == '/')

  0003a	8b 0d 00 00 00
	00		 mov	 ecx, DWORD PTR _SMDFile
  00040	51		 push	 ecx
  00041	e8 00 00 00 00	 call	 _fgetc
  00046	8a d8		 mov	 bl, al
  00048	83 c4 04	 add	 esp, 4
  0004b	80 fb 2f	 cmp	 bl, 47			; 0000002fH
  0004e	75 1b		 jne	 SHORT $LN30@GetToken
$LL24@GetToken:

; 42   : 				{
; 43   : 					while ((ch != '\n') && (ch != -1))	// End of Line (EOL)

  00050	80 fb ff	 cmp	 bl, -1
  00053	74 44		 je	 SHORT $LN39@GetToken

; 44   : 					{
; 45   : 						ch=fgetc(SMDFile);

  00055	8b 15 00 00 00
	00		 mov	 edx, DWORD PTR _SMDFile
  0005b	52		 push	 edx
  0005c	e8 00 00 00 00	 call	 _fgetc
  00061	8a d8		 mov	 bl, al
  00063	83 c4 04	 add	 esp, 4
  00066	80 fb 0a	 cmp	 bl, 10			; 0000000aH
  00069	75 e5		 jne	 SHORT $LL24@GetToken
$LN30@GetToken:

; 46   : 					}
; 47   : 	
; 48   : 					if (ch == -1)
; 49   : 					{
; 50   : 						return END;	// End of FILE
; 51   : 					}
; 52   : 				}
; 53   : 			}
; 54   : 		}
; 55   : 	}
; 56   : 	while (isspace(ch) != 0);

  0006b	0f be c3	 movsx	 eax, bl
  0006e	50		 push	 eax
  0006f	e8 00 00 00 00	 call	 _isspace
  00074	83 c4 04	 add	 esp, 4
  00077	85 c0		 test	 eax, eax
  00079	75 a5		 jne	 SHORT $LL31@GetToken

; 57   : 
; 58   : 	
; 59   : 	switch(ch)

  0007b	0f be c3	 movsx	 eax, bl
  0007e	8d 48 de	 lea	 ecx, DWORD PTR [eax-34]
  00081	56		 push	 esi
  00082	83 f9 5b	 cmp	 ecx, 91			; 0000005bH
  00085	0f 87 2b 01 00
	00		 ja	 $LN6@GetToken
  0008b	0f b6 89 00 00
	00 00		 movzx	 ecx, BYTE PTR $LN46@GetToken[ecx]
  00092	ff 24 8d 00 00
	00 00		 jmp	 DWORD PTR $LN50@GetToken[ecx*4]
$LN39@GetToken:

; 34   : 		{
; 35   : 			return END;	// End of FILE (EOF)

  00099	b8 02 00 00 00	 mov	 eax, 2
  0009e	5b		 pop	 ebx

; 147  : 		}
; 148  : 		break;
; 149  : 
; 150  : 	}
; 151  : 
; 152  : 	return NAME;
; 153  : }

  0009f	8b 4d fc	 mov	 ecx, DWORD PTR __$ArrayPad$[ebp]
  000a2	33 cd		 xor	 ecx, ebp
  000a4	e8 00 00 00 00	 call	 @__security_check_cookie@4
  000a9	8b e5		 mov	 esp, ebp
  000ab	5d		 pop	 ebp
  000ac	c3		 ret	 0
$LN19@GetToken:

; 60   : 	{
; 61   : 
; 62   : 	case 0x23:	// #
; 63   : 		return CurrentToken=COMMAND;

  000ad	b8 23 00 00 00	 mov	 eax, 35			; 00000023H
  000b2	e9 99 01 00 00	 jmp	 $LN48@GetToken
$LN18@GetToken:

; 64   : 		break;
; 65   : 	
; 66   : 	case 0x3B:	// ;
; 67   : 		return CurrentToken=SEMICOLON;

  000b7	b8 3b 00 00 00	 mov	 eax, 59			; 0000003bH
  000bc	e9 8f 01 00 00	 jmp	 $LN48@GetToken
$LN17@GetToken:

; 68   : 		break;
; 69   : 	
; 70   : 	case 0x2C:	// ,
; 71   : 
; 72   : 		return CurrentToken=COMMA;

  000c1	b8 2c 00 00 00	 mov	 eax, 44			; 0000002cH
  000c6	e9 85 01 00 00	 jmp	 $LN48@GetToken
$LN16@GetToken:

; 73   : 		break;
; 74   : 	
; 75   : 	case 0x7B:	// {
; 76   : 		return CurrentToken = LP;

  000cb	b8 7b 00 00 00	 mov	 eax, 123		; 0000007bH
  000d0	e9 7b 01 00 00	 jmp	 $LN48@GetToken
$LN15@GetToken:

; 77   : 		break;
; 78   : 
; 79   : 	case 0x7D:	// }
; 80   : 		return CurrentToken = RP;

  000d5	b8 7d 00 00 00	 mov	 eax, 125		; 0000007dH
  000da	e9 71 01 00 00	 jmp	 $LN48@GetToken
$LN14@GetToken:

; 81   : 		break;
; 82   : 	// Nice Index Table :)	by Deathway
; 83   : 	// Numbers Case
; 84   : 	case 0x2D:	//-
; 85   : 	case 0x2E:	//.
; 86   : 	case '0':	//0
; 87   : 	case '1':	//1
; 88   : 	case '2':	//2
; 89   : 	case '3':	//3
; 90   : 	case '4':	//4		
; 91   : 	case '5':	//5
; 92   : 	case '6':	//6
; 93   : 	case '7':	//7
; 94   : 	case '8':	//8
; 95   : 	case '9':	//9
; 96   : 		ungetc(ch, SMDFile);

  000df	8b 15 00 00 00
	00		 mov	 edx, DWORD PTR _SMDFile
  000e5	52		 push	 edx
  000e6	50		 push	 eax
  000e7	e8 00 00 00 00	 call	 _ungetc

; 97   : 		p = TempString;
; 98   : 		
; 99   : 		while (((ch=getc(SMDFile)) != -1) && ((ch == 0x2E) || (isdigit(ch) != 0) || (ch == 0x2D)))  // 2e '.'  2D '-'

  000ec	a1 00 00 00 00	 mov	 eax, DWORD PTR _SMDFile
  000f1	50		 push	 eax
  000f2	8d 75 98	 lea	 esi, DWORD PTR _TempString$[ebp]
  000f5	e8 00 00 00 00	 call	 _getc
  000fa	8a d8		 mov	 bl, al
  000fc	83 c4 0c	 add	 esp, 12			; 0000000cH
  000ff	80 fb ff	 cmp	 bl, -1
  00102	74 33		 je	 SHORT $LN12@GetToken
$LL13@GetToken:
  00104	80 fb 2e	 cmp	 bl, 46			; 0000002eH
  00107	74 15		 je	 SHORT $LN11@GetToken
  00109	0f be cb	 movsx	 ecx, bl
  0010c	51		 push	 ecx
  0010d	e8 00 00 00 00	 call	 _isdigit
  00112	83 c4 04	 add	 esp, 4
  00115	85 c0		 test	 eax, eax
  00117	75 05		 jne	 SHORT $LN11@GetToken
  00119	80 fb 2d	 cmp	 bl, 45			; 0000002dH
  0011c	75 19		 jne	 SHORT $LN12@GetToken
$LN11@GetToken:
  0011e	8b 15 00 00 00
	00		 mov	 edx, DWORD PTR _SMDFile

; 100  : 		{
; 101  : 			*p = ch;	// Construct a String

  00124	88 1e		 mov	 BYTE PTR [esi], bl
  00126	52		 push	 edx

; 102  : 			p++;

  00127	46		 inc	 esi
  00128	e8 00 00 00 00	 call	 _getc
  0012d	8a d8		 mov	 bl, al
  0012f	83 c4 04	 add	 esp, 4
  00132	80 fb ff	 cmp	 bl, -1
  00135	75 cd		 jne	 SHORT $LL13@GetToken
$LN12@GetToken:

; 103  : 		}		
; 104  : 		*p = 0;
; 105  : 		TokenNumber = atof( TempString);	// Select the first Byte as Main ID

  00137	8d 45 98	 lea	 eax, DWORD PTR _TempString$[ebp]
  0013a	50		 push	 eax
  0013b	c6 06 00	 mov	 BYTE PTR [esi], 0
  0013e	e8 00 00 00 00	 call	 _atof
  00143	d9 1d 00 00 00
	00		 fstp	 DWORD PTR _TokenNumber
  00149	83 c4 04	 add	 esp, 4
  0014c	5e		 pop	 esi

; 106  : 		return CurrentToken  = NUMBER ;

  0014d	c7 05 00 00 00
	00 01 00 00 00	 mov	 DWORD PTR _CurrentToken, 1
  00157	b8 01 00 00 00	 mov	 eax, 1
  0015c	5b		 pop	 ebx

; 147  : 		}
; 148  : 		break;
; 149  : 
; 150  : 	}
; 151  : 
; 152  : 	return NAME;
; 153  : }

  0015d	8b 4d fc	 mov	 ecx, DWORD PTR __$ArrayPad$[ebp]
  00160	33 cd		 xor	 ecx, ebp
  00162	e8 00 00 00 00	 call	 @__security_check_cookie@4
  00167	8b e5		 mov	 esp, ebp
  00169	5d		 pop	 ebp
  0016a	c3		 ret	 0
$LN10@GetToken:

; 107  : 		break;
; 108  : 
; 109  : 	case '\"':	// "	String Case
; 110  : 		p=&TokenString[0];
; 111  : 		
; 112  : 		while (((ch=getc(SMDFile)) != -1 ) && (ch != 0x22))	// nice

  0016b	8b 0d 00 00 00
	00		 mov	 ecx, DWORD PTR _SMDFile
  00171	51		 push	 ecx
  00172	be 00 00 00 00	 mov	 esi, OFFSET _TokenString
  00177	e8 00 00 00 00	 call	 _getc
  0017c	83 c4 04	 add	 esp, 4
  0017f	3c ff		 cmp	 al, -1
  00181	74 1e		 je	 SHORT $LN8@GetToken
$LL9@GetToken:
  00183	3c 22		 cmp	 al, 34			; 00000022H
  00185	0f 84 a1 00 00
	00		 je	 $LN7@GetToken
  0018b	8b 15 00 00 00
	00		 mov	 edx, DWORD PTR _SMDFile

; 113  : 		{
; 114  : 			*p = ch;

  00191	88 06		 mov	 BYTE PTR [esi], al
  00193	52		 push	 edx

; 115  : 			p++;

  00194	46		 inc	 esi
  00195	e8 00 00 00 00	 call	 _getc
  0019a	83 c4 04	 add	 esp, 4
  0019d	3c ff		 cmp	 al, -1
  0019f	75 e2		 jne	 SHORT $LL9@GetToken
$LN8@GetToken:

; 116  : 		}
; 117  : 		if (ch != 0x22 )

  001a1	3c 22		 cmp	 al, 34			; 00000022H
  001a3	0f 84 83 00 00
	00		 je	 $LN7@GetToken

; 118  : 		{
; 119  : 			ungetc(ch, SMDFile);

  001a9	8b 0d 00 00 00
	00		 mov	 ecx, DWORD PTR _SMDFile
  001af	0f be d0	 movsx	 edx, al
  001b2	51		 push	 ecx
  001b3	52		 push	 edx

; 120  : 		}
; 121  : 		*p = 0;
; 122  : 		return CurrentToken = NAME;

  001b4	eb 6e		 jmp	 SHORT $LN49@GetToken
$LN6@GetToken:

; 123  : 		break;
; 124  : 
; 125  : 	default:	// Others
; 126  : 		if (isalpha(ch))

  001b6	50		 push	 eax
  001b7	e8 00 00 00 00	 call	 _isalpha
  001bc	83 c4 04	 add	 esp, 4
  001bf	85 c0		 test	 eax, eax
  001c1	0f 84 84 00 00
	00		 je	 $LN5@GetToken

; 127  : 		{
; 128  : 			p=&TokenString[0];
; 129  : 			*p=ch;
; 130  : 			p++;
; 131  : 
; 132  : 			while ( ((ch=getc(SMDFile)) != -1) && ( (ch == 0x2E) || (ch == 0x5F) || (isalnum(ch) != 0) ) )

  001c7	a1 00 00 00 00	 mov	 eax, DWORD PTR _SMDFile
  001cc	50		 push	 eax
  001cd	88 1d 00 00 00
	00		 mov	 BYTE PTR _TokenString, bl
  001d3	be 01 00 00 00	 mov	 esi, OFFSET _TokenString+1
  001d8	e8 00 00 00 00	 call	 _getc
  001dd	8a d8		 mov	 bl, al
  001df	83 c4 04	 add	 esp, 4
  001e2	80 fb ff	 cmp	 bl, -1
  001e5	74 33		 je	 SHORT $LN3@GetToken
$LL4@GetToken:
  001e7	80 fb 2e	 cmp	 bl, 46			; 0000002eH
  001ea	74 15		 je	 SHORT $LN2@GetToken
  001ec	80 fb 5f	 cmp	 bl, 95			; 0000005fH
  001ef	74 10		 je	 SHORT $LN2@GetToken
  001f1	0f be cb	 movsx	 ecx, bl
  001f4	51		 push	 ecx
  001f5	e8 00 00 00 00	 call	 _isalnum
  001fa	83 c4 04	 add	 esp, 4
  001fd	85 c0		 test	 eax, eax
  001ff	74 19		 je	 SHORT $LN3@GetToken
$LN2@GetToken:
  00201	8b 15 00 00 00
	00		 mov	 edx, DWORD PTR _SMDFile

; 133  : 			{
; 134  : 				*p=ch;

  00207	88 1e		 mov	 BYTE PTR [esi], bl
  00209	52		 push	 edx

; 135  : 				p++;

  0020a	46		 inc	 esi
  0020b	e8 00 00 00 00	 call	 _getc
  00210	8a d8		 mov	 bl, al
  00212	83 c4 04	 add	 esp, 4
  00215	80 fb ff	 cmp	 bl, -1
  00218	75 cd		 jne	 SHORT $LL4@GetToken
$LN3@GetToken:

; 136  : 				
; 137  : 			}
; 138  : 
; 139  : 			ungetc(ch, SMDFile);

  0021a	a1 00 00 00 00	 mov	 eax, DWORD PTR _SMDFile
  0021f	0f be cb	 movsx	 ecx, bl
  00222	50		 push	 eax
  00223	51		 push	 ecx
$LN49@GetToken:
  00224	e8 00 00 00 00	 call	 _ungetc
  00229	83 c4 08	 add	 esp, 8
$LN7@GetToken:

; 140  : 			*p=0;

  0022c	c6 06 00	 mov	 BYTE PTR [esi], 0
  0022f	5e		 pop	 esi

; 141  : 			CurrentToken=NAME;

  00230	c7 05 00 00 00
	00 00 00 00 00	 mov	 DWORD PTR _CurrentToken, 0

; 142  : 			return CurrentToken;

  0023a	33 c0		 xor	 eax, eax
  0023c	5b		 pop	 ebx

; 147  : 		}
; 148  : 		break;
; 149  : 
; 150  : 	}
; 151  : 
; 152  : 	return NAME;
; 153  : }

  0023d	8b 4d fc	 mov	 ecx, DWORD PTR __$ArrayPad$[ebp]
  00240	33 cd		 xor	 ecx, ebp
  00242	e8 00 00 00 00	 call	 @__security_check_cookie@4
  00247	8b e5		 mov	 esp, ebp
  00249	5d		 pop	 ebp
  0024a	c3		 ret	 0
$LN5@GetToken:

; 143  : 		}
; 144  : 		else
; 145  : 		{
; 146  : 			return CurrentToken = SMD_ERROR; // '<'

  0024b	b8 3c 00 00 00	 mov	 eax, 60			; 0000003cH
$LN48@GetToken:

; 147  : 		}
; 148  : 		break;
; 149  : 
; 150  : 	}
; 151  : 
; 152  : 	return NAME;
; 153  : }

  00250	8b 4d fc	 mov	 ecx, DWORD PTR __$ArrayPad$[ebp]
  00253	5e		 pop	 esi
  00254	33 cd		 xor	 ecx, ebp
  00256	a3 00 00 00 00	 mov	 DWORD PTR _CurrentToken, eax
  0025b	5b		 pop	 ebx
  0025c	e8 00 00 00 00	 call	 @__security_check_cookie@4
  00261	8b e5		 mov	 esp, ebp
  00263	5d		 pop	 ebp
  00264	c3		 ret	 0
  00265	8d 49 00	 npad	 3
$LN50@GetToken:
  00268	00 00 00 00	 DD	 $LN10@GetToken
  0026c	00 00 00 00	 DD	 $LN19@GetToken
  00270	00 00 00 00	 DD	 $LN17@GetToken
  00274	00 00 00 00	 DD	 $LN14@GetToken
  00278	00 00 00 00	 DD	 $LN18@GetToken
  0027c	00 00 00 00	 DD	 $LN16@GetToken
  00280	00 00 00 00	 DD	 $LN15@GetToken
  00284	00 00 00 00	 DD	 $LN6@GetToken
$LN46@GetToken:
  00288	00		 DB	 0
  00289	01		 DB	 1
  0028a	07		 DB	 7
  0028b	07		 DB	 7
  0028c	07		 DB	 7
  0028d	07		 DB	 7
  0028e	07		 DB	 7
  0028f	07		 DB	 7
  00290	07		 DB	 7
  00291	07		 DB	 7
  00292	02		 DB	 2
  00293	03		 DB	 3
  00294	03		 DB	 3
  00295	07		 DB	 7
  00296	03		 DB	 3
  00297	03		 DB	 3
  00298	03		 DB	 3
  00299	03		 DB	 3
  0029a	03		 DB	 3
  0029b	03		 DB	 3
  0029c	03		 DB	 3
  0029d	03		 DB	 3
  0029e	03		 DB	 3
  0029f	03		 DB	 3
  002a0	07		 DB	 7
  002a1	04		 DB	 4
  002a2	07		 DB	 7
  002a3	07		 DB	 7
  002a4	07		 DB	 7
  002a5	07		 DB	 7
  002a6	07		 DB	 7
  002a7	07		 DB	 7
  002a8	07		 DB	 7
  002a9	07		 DB	 7
  002aa	07		 DB	 7
  002ab	07		 DB	 7
  002ac	07		 DB	 7
  002ad	07		 DB	 7
  002ae	07		 DB	 7
  002af	07		 DB	 7
  002b0	07		 DB	 7
  002b1	07		 DB	 7
  002b2	07		 DB	 7
  002b3	07		 DB	 7
  002b4	07		 DB	 7
  002b5	07		 DB	 7
  002b6	07		 DB	 7
  002b7	07		 DB	 7
  002b8	07		 DB	 7
  002b9	07		 DB	 7
  002ba	07		 DB	 7
  002bb	07		 DB	 7
  002bc	07		 DB	 7
  002bd	07		 DB	 7
  002be	07		 DB	 7
  002bf	07		 DB	 7
  002c0	07		 DB	 7
  002c1	07		 DB	 7
  002c2	07		 DB	 7
  002c3	07		 DB	 7
  002c4	07		 DB	 7
  002c5	07		 DB	 7
  002c6	07		 DB	 7
  002c7	07		 DB	 7
  002c8	07		 DB	 7
  002c9	07		 DB	 7
  002ca	07		 DB	 7
  002cb	07		 DB	 7
  002cc	07		 DB	 7
  002cd	07		 DB	 7
  002ce	07		 DB	 7
  002cf	07		 DB	 7
  002d0	07		 DB	 7
  002d1	07		 DB	 7
  002d2	07		 DB	 7
  002d3	07		 DB	 7
  002d4	07		 DB	 7
  002d5	07		 DB	 7
  002d6	07		 DB	 7
  002d7	07		 DB	 7
  002d8	07		 DB	 7
  002d9	07		 DB	 7
  002da	07		 DB	 7
  002db	07		 DB	 7
  002dc	07		 DB	 7
  002dd	07		 DB	 7
  002de	07		 DB	 7
  002df	07		 DB	 7
  002e0	07		 DB	 7
  002e1	05		 DB	 5
  002e2	07		 DB	 7
  002e3	06		 DB	 6
?GetToken@@YA?AW4SMDToken@@XZ ENDP			; GetToken
_TEXT	ENDS
PUBLIC	??2@YAPAXIPAX@Z					; operator new
; Function compile flags: /Ogtp
; File d:\program files (x86)\microsoft visual studio 10.0\vc\include\new.h
;	COMDAT ??2@YAPAXIPAX@Z
_TEXT	SEGMENT
___formal$ = 8						; size = 4
__Where$ = 12						; size = 4
??2@YAPAXIPAX@Z PROC					; operator new, COMDAT

; 81   :         {return (_Where); }

  00000	55		 push	 ebp
  00001	8b ec		 mov	 ebp, esp
  00003	8b 45 0c	 mov	 eax, DWORD PTR __Where$[ebp]
  00006	5d		 pop	 ebp
  00007	c3		 ret	 0
??2@YAPAXIPAX@Z ENDP					; operator new
_TEXT	ENDS
PUBLIC	??3@YAXPAX0@Z					; operator delete
; Function compile flags: /Ogtp
;	COMDAT ??3@YAXPAX0@Z
_TEXT	SEGMENT
___formal$ = 8						; size = 4
___formal$ = 12						; size = 4
??3@YAXPAX0@Z PROC					; operator delete, COMDAT

; 83   :         {return; }

  00000	c3		 ret	 0
??3@YAXPAX0@Z ENDP					; operator delete
_TEXT	ENDS
PUBLIC	??_H@YGXPAXIHP6EPAX0@Z@Z			; `vector constructor iterator'
; Function compile flags: /Ogtp
;	COMDAT ??_H@YGXPAXIHP6EPAX0@Z@Z
_TEXT	SEGMENT
___t$ = 8						; size = 4
___s$ = 12						; size = 4
___n$ = 16						; size = 4
___f$ = 20						; size = 4
??_H@YGXPAXIHP6EPAX0@Z@Z PROC				; `vector constructor iterator', COMDAT
  00000	55		 push	 ebp
  00001	8b ec		 mov	 ebp, esp
  00003	57		 push	 edi
  00004	8b 7d 10	 mov	 edi, DWORD PTR ___n$[ebp]
  00007	4f		 dec	 edi
  00008	78 14		 js	 SHORT $LN1@vector
  0000a	53		 push	 ebx
  0000b	8b 5d 14	 mov	 ebx, DWORD PTR ___f$[ebp]
  0000e	56		 push	 esi
  0000f	8b 75 08	 mov	 esi, DWORD PTR ___t$[ebp]
$LL2@vector:
  00012	8b ce		 mov	 ecx, esi
  00014	ff d3		 call	 ebx
  00016	03 75 0c	 add	 esi, DWORD PTR ___s$[ebp]
  00019	4f		 dec	 edi
  0001a	79 f6		 jns	 SHORT $LL2@vector
  0001c	5e		 pop	 esi
  0001d	5b		 pop	 ebx
$LN1@vector:
  0001e	5f		 pop	 edi
  0001f	5d		 pop	 ebp
  00020	c2 10 00	 ret	 16			; 00000010H
??_H@YGXPAXIHP6EPAX0@Z@Z ENDP				; `vector constructor iterator'
_TEXT	ENDS
PUBLIC	?GCRankInit@ItemRank@@QAEXH@Z			; ItemRank::GCRankInit
EXTRN	?DataSend@@YAHHPAEK@Z:PROC			; DataSend
; Function compile flags: /Ogtp
; File e:\work\tranet_version\gs\gameserver\itemrank.cpp
;	COMDAT ?GCRankInit@ItemRank@@QAEXH@Z
_TEXT	SEGMENT
_pMsg$ = -8						; size = 5
_aUserIndex$ = 8					; size = 4
?GCRankInit@ItemRank@@QAEXH@Z PROC			; ItemRank::GCRankInit, COMDAT
; _this$ = ecx

; 269  : {

  00000	55		 push	 ebp
  00001	8b ec		 mov	 ebp, esp

; 270  : 	if(!OBJMAX_RANGE(aUserIndex))

  00003	8b 45 08	 mov	 eax, DWORD PTR _aUserIndex$[ebp]
  00006	83 ec 08	 sub	 esp, 8
  00009	85 c0		 test	 eax, eax
  0000b	78 28		 js	 SHORT $LN2@GCRankInit
  0000d	33 c9		 xor	 ecx, ecx
  0000f	3d 97 3a 00 00	 cmp	 eax, 14999		; 00003a97H
  00014	0f 9e c1	 setle	 cl
  00017	85 c9		 test	 ecx, ecx
  00019	74 1a		 je	 SHORT $LN2@GCRankInit

; 271  : 	{
; 272  : 		return;
; 273  : 	}
; 274  : 
; 275  : 	PMSG_INITRANK pMsg;
; 276  : 	pMsg.h.set((LPBYTE)&pMsg, 0xFB, 0x51, sizeof(pMsg));
; 277  : 	pMsg.Result = 1;
; 278  : 	DataSend(aUserIndex, (LPBYTE)&pMsg, pMsg.h.size);

  0001b	6a 05		 push	 5
  0001d	8d 4d f8	 lea	 ecx, DWORD PTR _pMsg$[ebp]
  00020	51		 push	 ecx
  00021	50		 push	 eax
  00022	c7 45 f8 c1 05
	fb 51		 mov	 DWORD PTR _pMsg$[ebp], 1375405505 ; 51fb05c1H
  00029	c6 45 fc 01	 mov	 BYTE PTR _pMsg$[ebp+4], 1
  0002d	e8 00 00 00 00	 call	 ?DataSend@@YAHHPAEK@Z	; DataSend
  00032	83 c4 0c	 add	 esp, 12			; 0000000cH
$LN2@GCRankInit:

; 279  : }

  00035	8b e5		 mov	 esp, ebp
  00037	5d		 pop	 ebp
  00038	c2 04 00	 ret	 4
?GCRankInit@ItemRank@@QAEXH@Z ENDP			; ItemRank::GCRankInit
_TEXT	ENDS
PUBLIC	?size@?$vector@UItemRank_Data@@V?$allocator@UItemRank_Data@@@std@@@std@@QBEIXZ ; std::vector<ItemRank_Data,std::allocator<ItemRank_Data> >::size
; Function compile flags: /Ogtp
; File d:\program files (x86)\microsoft visual studio 10.0\vc\include\vector
;	COMDAT ?size@?$vector@UItemRank_Data@@V?$allocator@UItemRank_Data@@@std@@@std@@QBEIXZ
_TEXT	SEGMENT
?size@?$vector@UItemRank_Data@@V?$allocator@UItemRank_Data@@@std@@@std@@QBEIXZ PROC ; std::vector<ItemRank_Data,std::allocator<ItemRank_Data> >::size, COMDAT
; _this$ = ecx

; 878  : 		{	// return length of sequence

  00000	56		 push	 esi

; 879  : 		return (this->_Mylast - this->_Myfirst);

  00001	8b 71 04	 mov	 esi, DWORD PTR [ecx+4]
  00004	2b 31		 sub	 esi, DWORD PTR [ecx]
  00006	b8 93 24 49 92	 mov	 eax, -1840700269	; 92492493H
  0000b	f7 ee		 imul	 esi
  0000d	03 d6		 add	 edx, esi
  0000f	c1 fa 02	 sar	 edx, 2
  00012	8b c2		 mov	 eax, edx
  00014	c1 e8 1f	 shr	 eax, 31			; 0000001fH
  00017	03 c2		 add	 eax, edx
  00019	5e		 pop	 esi

; 880  : 		}

  0001a	c3		 ret	 0
?size@?$vector@UItemRank_Data@@V?$allocator@UItemRank_Data@@@std@@@std@@QBEIXZ ENDP ; std::vector<ItemRank_Data,std::allocator<ItemRank_Data> >::size
_TEXT	ENDS
PUBLIC	??A?$vector@UItemRank_Data@@V?$allocator@UItemRank_Data@@@std@@@std@@QAEAAUItemRank_Data@@I@Z ; std::vector<ItemRank_Data,std::allocator<ItemRank_Data> >::operator[]
; Function compile flags: /Ogtp
;	COMDAT ??A?$vector@UItemRank_Data@@V?$allocator@UItemRank_Data@@@std@@@std@@QAEAAUItemRank_Data@@I@Z
_TEXT	SEGMENT
__Pos$ = 8						; size = 4
??A?$vector@UItemRank_Data@@V?$allocator@UItemRank_Data@@@std@@@std@@QAEAAUItemRank_Data@@I@Z PROC ; std::vector<ItemRank_Data,std::allocator<ItemRank_Data> >::operator[], COMDAT
; _this$ = ecx

; 928  : 		{	// subscript mutable sequence

  00000	55		 push	 ebp
  00001	8b ec		 mov	 ebp, esp

; 929  :  #if _ITERATOR_DEBUG_LEVEL == 2
; 930  : 		if (size() <= _Pos)
; 931  : 			{	// report error
; 932  : 			_DEBUG_ERROR("vector subscript out of range");
; 933  : 			_SCL_SECURE_OUT_OF_RANGE;
; 934  : 			}
; 935  : 
; 936  :  #elif _ITERATOR_DEBUG_LEVEL == 1
; 937  : 		_SCL_SECURE_VALIDATE_RANGE(_Pos < size());
; 938  :  #endif /* _ITERATOR_DEBUG_LEVEL */
; 939  : 
; 940  : 		return (*(this->_Myfirst + _Pos));

  00003	8b 55 08	 mov	 edx, DWORD PTR __Pos$[ebp]
  00006	8d 04 d5 00 00
	00 00		 lea	 eax, DWORD PTR [edx*8]
  0000d	2b c2		 sub	 eax, edx
  0000f	03 01		 add	 eax, DWORD PTR [ecx]

; 941  : 		}

  00011	5d		 pop	 ebp
  00012	c2 04 00	 ret	 4
??A?$vector@UItemRank_Data@@V?$allocator@UItemRank_Data@@@std@@@std@@QAEAAUItemRank_Data@@I@Z ENDP ; std::vector<ItemRank_Data,std::allocator<ItemRank_Data> >::operator[]
_TEXT	ENDS
PUBLIC	?size@?$vector@UItemRank_List@@V?$allocator@UItemRank_List@@@std@@@std@@QBEIXZ ; std::vector<ItemRank_List,std::allocator<ItemRank_List> >::size
; Function compile flags: /Ogtp
;	COMDAT ?size@?$vector@UItemRank_List@@V?$allocator@UItemRank_List@@@std@@@std@@QBEIXZ
_TEXT	SEGMENT
?size@?$vector@UItemRank_List@@V?$allocator@UItemRank_List@@@std@@@std@@QBEIXZ PROC ; std::vector<ItemRank_List,std::allocator<ItemRank_List> >::size, COMDAT
; _this$ = ecx

; 879  : 		return (this->_Mylast - this->_Myfirst);

  00000	8b 51 04	 mov	 edx, DWORD PTR [ecx+4]
  00003	2b 11		 sub	 edx, DWORD PTR [ecx]
  00005	b8 ab aa aa 2a	 mov	 eax, 715827883		; 2aaaaaabH
  0000a	f7 ea		 imul	 edx
  0000c	8b c2		 mov	 eax, edx
  0000e	c1 e8 1f	 shr	 eax, 31			; 0000001fH
  00011	03 c2		 add	 eax, edx

; 880  : 		}

  00013	c3		 ret	 0
?size@?$vector@UItemRank_List@@V?$allocator@UItemRank_List@@@std@@@std@@QBEIXZ ENDP ; std::vector<ItemRank_List,std::allocator<ItemRank_List> >::size
_TEXT	ENDS
PUBLIC	??A?$vector@UItemRank_List@@V?$allocator@UItemRank_List@@@std@@@std@@QAEAAUItemRank_List@@I@Z ; std::vector<ItemRank_List,std::allocator<ItemRank_List> >::operator[]
; Function compile flags: /Ogtp
;	COMDAT ??A?$vector@UItemRank_List@@V?$allocator@UItemRank_List@@@std@@@std@@QAEAAUItemRank_List@@I@Z
_TEXT	SEGMENT
__Pos$ = 8						; size = 4
??A?$vector@UItemRank_List@@V?$allocator@UItemRank_List@@@std@@@std@@QAEAAUItemRank_List@@I@Z PROC ; std::vector<ItemRank_List,std::allocator<ItemRank_List> >::operator[], COMDAT
; _this$ = ecx

; 928  : 		{	// subscript mutable sequence

  00000	55		 push	 ebp
  00001	8b ec		 mov	 ebp, esp

; 929  :  #if _ITERATOR_DEBUG_LEVEL == 2
; 930  : 		if (size() <= _Pos)
; 931  : 			{	// report error
; 932  : 			_DEBUG_ERROR("vector subscript out of range");
; 933  : 			_SCL_SECURE_OUT_OF_RANGE;
; 934  : 			}
; 935  : 
; 936  :  #elif _ITERATOR_DEBUG_LEVEL == 1
; 937  : 		_SCL_SECURE_VALIDATE_RANGE(_Pos < size());
; 938  :  #endif /* _ITERATOR_DEBUG_LEVEL */
; 939  : 
; 940  : 		return (*(this->_Myfirst + _Pos));

  00003	8b 45 08	 mov	 eax, DWORD PTR __Pos$[ebp]
  00006	8b 09		 mov	 ecx, DWORD PTR [ecx]
  00008	8d 04 40	 lea	 eax, DWORD PTR [eax+eax*2]
  0000b	8d 04 41	 lea	 eax, DWORD PTR [ecx+eax*2]

; 941  : 		}

  0000e	5d		 pop	 ebp
  0000f	c2 04 00	 ret	 4
??A?$vector@UItemRank_List@@V?$allocator@UItemRank_List@@@std@@@std@@QAEAAUItemRank_List@@I@Z ENDP ; std::vector<ItemRank_List,std::allocator<ItemRank_List> >::operator[]
_TEXT	ENDS
PUBLIC	?_Inside@?$vector@UItemRank_Data@@V?$allocator@UItemRank_Data@@@std@@@std@@IBE_NPBUItemRank_Data@@@Z ; std::vector<ItemRank_Data,std::allocator<ItemRank_Data> >::_Inside
; Function compile flags: /Ogtp
;	COMDAT ?_Inside@?$vector@UItemRank_Data@@V?$allocator@UItemRank_Data@@@std@@@std@@IBE_NPBUItemRank_Data@@@Z
_TEXT	SEGMENT
__Ptr$ = 8						; size = 4
?_Inside@?$vector@UItemRank_Data@@V?$allocator@UItemRank_Data@@@std@@@std@@IBE_NPBUItemRank_Data@@@Z PROC ; std::vector<ItemRank_Data,std::allocator<ItemRank_Data> >::_Inside, COMDAT
; _this$ = ecx

; 1285 : 		{	// test if _Ptr points inside vector

  00000	55		 push	 ebp
  00001	8b ec		 mov	 ebp, esp

; 1286 : 		return (_Ptr < this->_Mylast && this->_Myfirst <= _Ptr);

  00003	8b 45 08	 mov	 eax, DWORD PTR __Ptr$[ebp]
  00006	3b 41 04	 cmp	 eax, DWORD PTR [ecx+4]
  00009	73 0d		 jae	 SHORT $LN3@Inside
  0000b	39 01		 cmp	 DWORD PTR [ecx], eax
  0000d	77 09		 ja	 SHORT $LN3@Inside
  0000f	b8 01 00 00 00	 mov	 eax, 1

; 1287 : 		}

  00014	5d		 pop	 ebp
  00015	c2 04 00	 ret	 4
$LN3@Inside:

; 1286 : 		return (_Ptr < this->_Mylast && this->_Myfirst <= _Ptr);

  00018	33 c0		 xor	 eax, eax

; 1287 : 		}

  0001a	5d		 pop	 ebp
  0001b	c2 04 00	 ret	 4
?_Inside@?$vector@UItemRank_Data@@V?$allocator@UItemRank_Data@@@std@@@std@@IBE_NPBUItemRank_Data@@@Z ENDP ; std::vector<ItemRank_Data,std::allocator<ItemRank_Data> >::_Inside
_TEXT	ENDS
PUBLIC	?_Orphan_range@?$vector@UItemRank_Data@@V?$allocator@UItemRank_Data@@@std@@@std@@IBEXPAUItemRank_Data@@0@Z ; std::vector<ItemRank_Data,std::allocator<ItemRank_Data> >::_Orphan_range
; Function compile flags: /Ogtp
;	COMDAT ?_Orphan_range@?$vector@UItemRank_Data@@V?$allocator@UItemRank_Data@@@std@@@std@@IBEXPAUItemRank_Data@@0@Z
_TEXT	SEGMENT
___formal$ = 8						; size = 4
___formal$ = 12						; size = 4
?_Orphan_range@?$vector@UItemRank_Data@@V?$allocator@UItemRank_Data@@@std@@@std@@IBEXPAUItemRank_Data@@0@Z PROC ; std::vector<ItemRank_Data,std::allocator<ItemRank_Data> >::_Orphan_range, COMDAT
; _this$ = ecx

; 1454 : 		}

  00000	c2 08 00	 ret	 8
?_Orphan_range@?$vector@UItemRank_Data@@V?$allocator@UItemRank_Data@@@std@@@std@@IBEXPAUItemRank_Data@@0@Z ENDP ; std::vector<ItemRank_Data,std::allocator<ItemRank_Data> >::_Orphan_range
_TEXT	ENDS
PUBLIC	??1?$_Vector_val@UItemRank_Data@@V?$allocator@UItemRank_Data@@@std@@@std@@QAE@XZ ; std::_Vector_val<ItemRank_Data,std::allocator<ItemRank_Data> >::~_Vector_val<ItemRank_Data,std::allocator<ItemRank_Data> >
; Function compile flags: /Ogtp
;	COMDAT ??1?$_Vector_val@UItemRank_Data@@V?$allocator@UItemRank_Data@@@std@@@std@@QAE@XZ
_TEXT	SEGMENT
??1?$_Vector_val@UItemRank_Data@@V?$allocator@UItemRank_Data@@@std@@@std@@QAE@XZ PROC ; std::_Vector_val<ItemRank_Data,std::allocator<ItemRank_Data> >::~_Vector_val<ItemRank_Data,std::allocator<ItemRank_Data> >, COMDAT
; _this$ = ecx

; 434  : 		}

  00000	c3		 ret	 0
??1?$_Vector_val@UItemRank_Data@@V?$allocator@UItemRank_Data@@@std@@@std@@QAE@XZ ENDP ; std::_Vector_val<ItemRank_Data,std::allocator<ItemRank_Data> >::~_Vector_val<ItemRank_Data,std::allocator<ItemRank_Data> >
_TEXT	ENDS
PUBLIC	??0?$allocator@UItemRank_Data@@@std@@QAE@XZ	; std::allocator<ItemRank_Data>::allocator<ItemRank_Data>
; Function compile flags: /Ogtp
; File d:\program files (x86)\microsoft visual studio 10.0\vc\include\xmemory
;	COMDAT ??0?$allocator@UItemRank_Data@@@std@@QAE@XZ
_TEXT	SEGMENT
??0?$allocator@UItemRank_Data@@@std@@QAE@XZ PROC	; std::allocator<ItemRank_Data>::allocator<ItemRank_Data>, COMDAT
; _this$ = ecx

; 161  : 	_ALLOCATOR() _THROW0()

  00000	8b c1		 mov	 eax, ecx

; 162  : 		{	// construct default allocator (do nothing)
; 163  : 		}

  00002	c3		 ret	 0
??0?$allocator@UItemRank_Data@@@std@@QAE@XZ ENDP	; std::allocator<ItemRank_Data>::allocator<ItemRank_Data>
_TEXT	ENDS
PUBLIC	?_Inside@?$vector@UItemRank_List@@V?$allocator@UItemRank_List@@@std@@@std@@IBE_NPBUItemRank_List@@@Z ; std::vector<ItemRank_List,std::allocator<ItemRank_List> >::_Inside
; Function compile flags: /Ogtp
; File d:\program files (x86)\microsoft visual studio 10.0\vc\include\vector
;	COMDAT ?_Inside@?$vector@UItemRank_List@@V?$allocator@UItemRank_List@@@std@@@std@@IBE_NPBUItemRank_List@@@Z
_TEXT	SEGMENT
__Ptr$ = 8						; size = 4
?_Inside@?$vector@UItemRank_List@@V?$allocator@UItemRank_List@@@std@@@std@@IBE_NPBUItemRank_List@@@Z PROC ; std::vector<ItemRank_List,std::allocator<ItemRank_List> >::_Inside, COMDAT
; _this$ = ecx

; 1285 : 		{	// test if _Ptr points inside vector

  00000	55		 push	 ebp
  00001	8b ec		 mov	 ebp, esp

; 1286 : 		return (_Ptr < this->_Mylast && this->_Myfirst <= _Ptr);

  00003	8b 45 08	 mov	 eax, DWORD PTR __Ptr$[ebp]
  00006	3b 41 04	 cmp	 eax, DWORD PTR [ecx+4]
  00009	73 0d		 jae	 SHORT $LN3@Inside@2
  0000b	39 01		 cmp	 DWORD PTR [ecx], eax
  0000d	77 09		 ja	 SHORT $LN3@Inside@2
  0000f	b8 01 00 00 00	 mov	 eax, 1

; 1287 : 		}

  00014	5d		 pop	 ebp
  00015	c2 04 00	 ret	 4
$LN3@Inside@2:

; 1286 : 		return (_Ptr < this->_Mylast && this->_Myfirst <= _Ptr);

  00018	33 c0		 xor	 eax, eax

; 1287 : 		}

  0001a	5d		 pop	 ebp
  0001b	c2 04 00	 ret	 4
?_Inside@?$vector@UItemRank_List@@V?$allocator@UItemRank_List@@@std@@@std@@IBE_NPBUItemRank_List@@@Z ENDP ; std::vector<ItemRank_List,std::allocator<ItemRank_List> >::_Inside
_TEXT	ENDS
PUBLIC	?_Orphan_range@?$vector@UItemRank_List@@V?$allocator@UItemRank_List@@@std@@@std@@IBEXPAUItemRank_List@@0@Z ; std::vector<ItemRank_List,std::allocator<ItemRank_List> >::_Orphan_range
; Function compile flags: /Ogtp
;	COMDAT ?_Orphan_range@?$vector@UItemRank_List@@V?$allocator@UItemRank_List@@@std@@@std@@IBEXPAUItemRank_List@@0@Z
_TEXT	SEGMENT
___formal$ = 8						; size = 4
___formal$ = 12						; size = 4
?_Orphan_range@?$vector@UItemRank_List@@V?$allocator@UItemRank_List@@@std@@@std@@IBEXPAUItemRank_List@@0@Z PROC ; std::vector<ItemRank_List,std::allocator<ItemRank_List> >::_Orphan_range, COMDAT
; _this$ = ecx

; 1454 : 		}

  00000	c2 08 00	 ret	 8
?_Orphan_range@?$vector@UItemRank_List@@V?$allocator@UItemRank_List@@@std@@@std@@IBEXPAUItemRank_List@@0@Z ENDP ; std::vector<ItemRank_List,std::allocator<ItemRank_List> >::_Orphan_range
_TEXT	ENDS
PUBLIC	??1?$_Vector_val@UItemRank_List@@V?$allocator@UItemRank_List@@@std@@@std@@QAE@XZ ; std::_Vector_val<ItemRank_List,std::allocator<ItemRank_List> >::~_Vector_val<ItemRank_List,std::allocator<ItemRank_List> >
; Function compile flags: /Ogtp
;	COMDAT ??1?$_Vector_val@UItemRank_List@@V?$allocator@UItemRank_List@@@std@@@std@@QAE@XZ
_TEXT	SEGMENT
??1?$_Vector_val@UItemRank_List@@V?$allocator@UItemRank_List@@@std@@@std@@QAE@XZ PROC ; std::_Vector_val<ItemRank_List,std::allocator<ItemRank_List> >::~_Vector_val<ItemRank_List,std::allocator<ItemRank_List> >, COMDAT
; _this$ = ecx

; 434  : 		}

  00000	c3		 ret	 0
??1?$_Vector_val@UItemRank_List@@V?$allocator@UItemRank_List@@@std@@@std@@QAE@XZ ENDP ; std::_Vector_val<ItemRank_List,std::allocator<ItemRank_List> >::~_Vector_val<ItemRank_List,std::allocator<ItemRank_List> >
_TEXT	ENDS
PUBLIC	??0?$allocator@UItemRank_List@@@std@@QAE@XZ	; std::allocator<ItemRank_List>::allocator<ItemRank_List>
; Function compile flags: /Ogtp
; File d:\program files (x86)\microsoft visual studio 10.0\vc\include\xmemory
;	COMDAT ??0?$allocator@UItemRank_List@@@std@@QAE@XZ
_TEXT	SEGMENT
??0?$allocator@UItemRank_List@@@std@@QAE@XZ PROC	; std::allocator<ItemRank_List>::allocator<ItemRank_List>, COMDAT
; _this$ = ecx

; 161  : 	_ALLOCATOR() _THROW0()

  00000	8b c1		 mov	 eax, ecx

; 162  : 		{	// construct default allocator (do nothing)
; 163  : 		}

  00002	c3		 ret	 0
??0?$allocator@UItemRank_List@@@std@@QAE@XZ ENDP	; std::allocator<ItemRank_List>::allocator<ItemRank_List>
_TEXT	ENDS
PUBLIC	?capacity@?$vector@UItemRank_Data@@V?$allocator@UItemRank_Data@@@std@@@std@@QBEIXZ ; std::vector<ItemRank_Data,std::allocator<ItemRank_Data> >::capacity
; Function compile flags: /Ogtp
; File d:\program files (x86)\microsoft visual studio 10.0\vc\include\vector
;	COMDAT ?capacity@?$vector@UItemRank_Data@@V?$allocator@UItemRank_Data@@@std@@@std@@QBEIXZ
_TEXT	SEGMENT
?capacity@?$vector@UItemRank_Data@@V?$allocator@UItemRank_Data@@@std@@@std@@QBEIXZ PROC ; std::vector<ItemRank_Data,std::allocator<ItemRank_Data> >::capacity, COMDAT
; _this$ = ecx

; 776  : 		{	// return current length of allocated storage

  00000	56		 push	 esi

; 777  : 		return (this->_Myend - this->_Myfirst);

  00001	8b 71 08	 mov	 esi, DWORD PTR [ecx+8]
  00004	2b 31		 sub	 esi, DWORD PTR [ecx]
  00006	b8 93 24 49 92	 mov	 eax, -1840700269	; 92492493H
  0000b	f7 ee		 imul	 esi
  0000d	03 d6		 add	 edx, esi
  0000f	c1 fa 02	 sar	 edx, 2
  00012	8b c2		 mov	 eax, edx
  00014	c1 e8 1f	 shr	 eax, 31			; 0000001fH
  00017	03 c2		 add	 eax, edx
  00019	5e		 pop	 esi

; 778  : 		}

  0001a	c3		 ret	 0
?capacity@?$vector@UItemRank_Data@@V?$allocator@UItemRank_Data@@@std@@@std@@QBEIXZ ENDP ; std::vector<ItemRank_Data,std::allocator<ItemRank_Data> >::capacity
_TEXT	ENDS
PUBLIC	??_C@_0BD@OLBABOEK@vector?$DMT?$DO?5too?5long?$AA@ ; `string'
PUBLIC	?_Xlen@?$vector@UItemRank_Data@@V?$allocator@UItemRank_Data@@@std@@@std@@IBEXXZ ; std::vector<ItemRank_Data,std::allocator<ItemRank_Data> >::_Xlen
EXTRN	?_Xlength_error@std@@YAXPBD@Z:PROC		; std::_Xlength_error
;	COMDAT ??_C@_0BD@OLBABOEK@vector?$DMT?$DO?5too?5long?$AA@
CONST	SEGMENT
??_C@_0BD@OLBABOEK@vector?$DMT?$DO?5too?5long?$AA@ DB 'vector<T> too long'
	DB	00H						; `string'
; Function compile flags: /Ogtp
CONST	ENDS
;	COMDAT ?_Xlen@?$vector@UItemRank_Data@@V?$allocator@UItemRank_Data@@@std@@@std@@IBEXXZ
_TEXT	SEGMENT
?_Xlen@?$vector@UItemRank_Data@@V?$allocator@UItemRank_Data@@@std@@@std@@IBEXXZ PROC ; std::vector<ItemRank_Data,std::allocator<ItemRank_Data> >::_Xlen, COMDAT
; _this$ = ecx

; 1427 : 		_Xlength_error("vector<T> too long");

  00000	68 00 00 00 00	 push	 OFFSET ??_C@_0BD@OLBABOEK@vector?$DMT?$DO?5too?5long?$AA@
  00005	e8 00 00 00 00	 call	 ?_Xlength_error@std@@YAXPBD@Z ; std::_Xlength_error
$LN4@Xlen:
$LN3@Xlen:
  0000a	cc		 int	 3
?_Xlen@?$vector@UItemRank_Data@@V?$allocator@UItemRank_Data@@@std@@@std@@IBEXXZ ENDP ; std::vector<ItemRank_Data,std::allocator<ItemRank_Data> >::_Xlen
_TEXT	ENDS
PUBLIC	??0?$allocator@UItemRank_Data@@@std@@QAE@ABV01@@Z ; std::allocator<ItemRank_Data>::allocator<ItemRank_Data>
; Function compile flags: /Ogtp
; File d:\program files (x86)\microsoft visual studio 10.0\vc\include\xmemory
;	COMDAT ??0?$allocator@UItemRank_Data@@@std@@QAE@ABV01@@Z
_TEXT	SEGMENT
___formal$ = 8						; size = 4
??0?$allocator@UItemRank_Data@@@std@@QAE@ABV01@@Z PROC	; std::allocator<ItemRank_Data>::allocator<ItemRank_Data>, COMDAT
; _this$ = ecx

; 165  : 	_ALLOCATOR(const _ALLOCATOR<_Ty>&) _THROW0()

  00000	8b c1		 mov	 eax, ecx

; 166  : 		{	// construct by copying (do nothing)
; 167  : 		}

  00002	c2 04 00	 ret	 4
??0?$allocator@UItemRank_Data@@@std@@QAE@ABV01@@Z ENDP	; std::allocator<ItemRank_Data>::allocator<ItemRank_Data>
_TEXT	ENDS
PUBLIC	?deallocate@?$allocator@UItemRank_Data@@@std@@QAEXPAUItemRank_Data@@I@Z ; std::allocator<ItemRank_Data>::deallocate
EXTRN	??3@YAXPAX@Z:PROC				; operator delete
; Function compile flags: /Ogtp
;	COMDAT ?deallocate@?$allocator@UItemRank_Data@@@std@@QAEXPAUItemRank_Data@@I@Z
_TEXT	SEGMENT
__Ptr$ = 8						; size = 4
___formal$ = 12						; size = 4
?deallocate@?$allocator@UItemRank_Data@@@std@@QAEXPAUItemRank_Data@@I@Z PROC ; std::allocator<ItemRank_Data>::deallocate, COMDAT
; _this$ = ecx

; 181  : 		{	// deallocate object at _Ptr, ignore size

  00000	55		 push	 ebp
  00001	8b ec		 mov	 ebp, esp

; 182  : 		::operator delete(_Ptr);

  00003	8b 45 08	 mov	 eax, DWORD PTR __Ptr$[ebp]
  00006	50		 push	 eax
  00007	e8 00 00 00 00	 call	 ??3@YAXPAX@Z		; operator delete
  0000c	83 c4 04	 add	 esp, 4

; 183  : 		}

  0000f	5d		 pop	 ebp
  00010	c2 08 00	 ret	 8
?deallocate@?$allocator@UItemRank_Data@@@std@@QAEXPAUItemRank_Data@@I@Z ENDP ; std::allocator<ItemRank_Data>::deallocate
_TEXT	ENDS
PUBLIC	?capacity@?$vector@UItemRank_List@@V?$allocator@UItemRank_List@@@std@@@std@@QBEIXZ ; std::vector<ItemRank_List,std::allocator<ItemRank_List> >::capacity
; Function compile flags: /Ogtp
; File d:\program files (x86)\microsoft visual studio 10.0\vc\include\vector
;	COMDAT ?capacity@?$vector@UItemRank_List@@V?$allocator@UItemRank_List@@@std@@@std@@QBEIXZ
_TEXT	SEGMENT
?capacity@?$vector@UItemRank_List@@V?$allocator@UItemRank_List@@@std@@@std@@QBEIXZ PROC ; std::vector<ItemRank_List,std::allocator<ItemRank_List> >::capacity, COMDAT
; _this$ = ecx

; 777  : 		return (this->_Myend - this->_Myfirst);

  00000	8b 51 08	 mov	 edx, DWORD PTR [ecx+8]
  00003	2b 11		 sub	 edx, DWORD PTR [ecx]
  00005	b8 ab aa aa 2a	 mov	 eax, 715827883		; 2aaaaaabH
  0000a	f7 ea		 imul	 edx
  0000c	8b c2		 mov	 eax, edx
  0000e	c1 e8 1f	 shr	 eax, 31			; 0000001fH
  00011	03 c2		 add	 eax, edx

; 778  : 		}

  00013	c3		 ret	 0
?capacity@?$vector@UItemRank_List@@V?$allocator@UItemRank_List@@@std@@@std@@QBEIXZ ENDP ; std::vector<ItemRank_List,std::allocator<ItemRank_List> >::capacity
_TEXT	ENDS
PUBLIC	?_Xlen@?$vector@UItemRank_List@@V?$allocator@UItemRank_List@@@std@@@std@@IBEXXZ ; std::vector<ItemRank_List,std::allocator<ItemRank_List> >::_Xlen
; Function compile flags: /Ogtp
;	COMDAT ?_Xlen@?$vector@UItemRank_List@@V?$allocator@UItemRank_List@@@std@@@std@@IBEXXZ
_TEXT	SEGMENT
?_Xlen@?$vector@UItemRank_List@@V?$allocator@UItemRank_List@@@std@@@std@@IBEXXZ PROC ; std::vector<ItemRank_List,std::allocator<ItemRank_List> >::_Xlen, COMDAT
; _this$ = ecx

; 1427 : 		_Xlength_error("vector<T> too long");

  00000	68 00 00 00 00	 push	 OFFSET ??_C@_0BD@OLBABOEK@vector?$DMT?$DO?5too?5long?$AA@
  00005	e8 00 00 00 00	 call	 ?_Xlength_error@std@@YAXPBD@Z ; std::_Xlength_error
$LN4@Xlen@2:
$LN3@Xlen@2:
  0000a	cc		 int	 3
?_Xlen@?$vector@UItemRank_List@@V?$allocator@UItemRank_List@@@std@@@std@@IBEXXZ ENDP ; std::vector<ItemRank_List,std::allocator<ItemRank_List> >::_Xlen
_TEXT	ENDS
PUBLIC	??0?$allocator@UItemRank_List@@@std@@QAE@ABV01@@Z ; std::allocator<ItemRank_List>::allocator<ItemRank_List>
; Function compile flags: /Ogtp
; File d:\program files (x86)\microsoft visual studio 10.0\vc\include\xmemory
;	COMDAT ??0?$allocator@UItemRank_List@@@std@@QAE@ABV01@@Z
_TEXT	SEGMENT
___formal$ = 8						; size = 4
??0?$allocator@UItemRank_List@@@std@@QAE@ABV01@@Z PROC	; std::allocator<ItemRank_List>::allocator<ItemRank_List>, COMDAT
; _this$ = ecx

; 165  : 	_ALLOCATOR(const _ALLOCATOR<_Ty>&) _THROW0()

  00000	8b c1		 mov	 eax, ecx

; 166  : 		{	// construct by copying (do nothing)
; 167  : 		}

  00002	c2 04 00	 ret	 4
??0?$allocator@UItemRank_List@@@std@@QAE@ABV01@@Z ENDP	; std::allocator<ItemRank_List>::allocator<ItemRank_List>
_TEXT	ENDS
PUBLIC	?deallocate@?$allocator@UItemRank_List@@@std@@QAEXPAUItemRank_List@@I@Z ; std::allocator<ItemRank_List>::deallocate
; Function compile flags: /Ogtp
;	COMDAT ?deallocate@?$allocator@UItemRank_List@@@std@@QAEXPAUItemRank_List@@I@Z
_TEXT	SEGMENT
__Ptr$ = 8						; size = 4
___formal$ = 12						; size = 4
?deallocate@?$allocator@UItemRank_List@@@std@@QAEXPAUItemRank_List@@I@Z PROC ; std::allocator<ItemRank_List>::deallocate, COMDAT
; _this$ = ecx

; 181  : 		{	// deallocate object at _Ptr, ignore size

  00000	55		 push	 ebp
  00001	8b ec		 mov	 ebp, esp

; 182  : 		::operator delete(_Ptr);

  00003	8b 45 08	 mov	 eax, DWORD PTR __Ptr$[ebp]
  00006	50		 push	 eax
  00007	e8 00 00 00 00	 call	 ??3@YAXPAX@Z		; operator delete
  0000c	83 c4 04	 add	 esp, 4

; 183  : 		}

  0000f	5d		 pop	 ebp
  00010	c2 08 00	 ret	 8
?deallocate@?$allocator@UItemRank_List@@@std@@QAEXPAUItemRank_List@@I@Z ENDP ; std::allocator<ItemRank_List>::deallocate
_TEXT	ENDS
PUBLIC	?max_size@?$allocator@UItemRank_Data@@@std@@QBEIXZ ; std::allocator<ItemRank_Data>::max_size
; Function compile flags: /Ogtp
;	COMDAT ?max_size@?$allocator@UItemRank_Data@@@std@@QBEIXZ
_TEXT	SEGMENT
?max_size@?$allocator@UItemRank_Data@@@std@@QBEIXZ PROC	; std::allocator<ItemRank_Data>::max_size, COMDAT
; _this$ = ecx

; 218  : 		_SIZT _Count = (_SIZT)(-1) / sizeof (_Ty);
; 219  : 		return (0 < _Count ? _Count : 1);

  00000	b8 24 49 92 24	 mov	 eax, 613566756		; 24924924H

; 220  : 		}

  00005	c3		 ret	 0
?max_size@?$allocator@UItemRank_Data@@@std@@QBEIXZ ENDP	; std::allocator<ItemRank_Data>::max_size
_TEXT	ENDS
PUBLIC	?max_size@?$allocator@UItemRank_List@@@std@@QBEIXZ ; std::allocator<ItemRank_List>::max_size
; Function compile flags: /Ogtp
;	COMDAT ?max_size@?$allocator@UItemRank_List@@@std@@QBEIXZ
_TEXT	SEGMENT
?max_size@?$allocator@UItemRank_List@@@std@@QBEIXZ PROC	; std::allocator<ItemRank_List>::max_size, COMDAT
; _this$ = ecx

; 218  : 		_SIZT _Count = (_SIZT)(-1) / sizeof (_Ty);
; 219  : 		return (0 < _Count ? _Count : 1);

  00000	b8 aa aa aa 2a	 mov	 eax, 715827882		; 2aaaaaaaH

; 220  : 		}

  00005	c3		 ret	 0
?max_size@?$allocator@UItemRank_List@@@std@@QBEIXZ ENDP	; std::allocator<ItemRank_List>::max_size
_TEXT	ENDS
PUBLIC	?_Compat@?$_Vector_const_iterator@V?$_Vector_val@UItemRank_Data@@V?$allocator@UItemRank_Data@@@std@@@std@@@std@@QBEXABV12@@Z ; std::_Vector_const_iterator<std::_Vector_val<ItemRank_Data,std::allocator<ItemRank_Data> > >::_Compat
; Function compile flags: /Ogtp
; File d:\program files (x86)\microsoft visual studio 10.0\vc\include\vector
;	COMDAT ?_Compat@?$_Vector_const_iterator@V?$_Vector_val@UItemRank_Data@@V?$allocator@UItemRank_Data@@@std@@@std@@@std@@QBEXABV12@@Z
_TEXT	SEGMENT
___formal$ = 8						; size = 4
?_Compat@?$_Vector_const_iterator@V?$_Vector_val@UItemRank_Data@@V?$allocator@UItemRank_Data@@@std@@@std@@@std@@QBEXABV12@@Z PROC ; std::_Vector_const_iterator<std::_Vector_val<ItemRank_Data,std::allocator<ItemRank_Data> > >::_Compat, COMDAT
; _this$ = ecx

; 253  : 		}

  00000	c2 04 00	 ret	 4
?_Compat@?$_Vector_const_iterator@V?$_Vector_val@UItemRank_Data@@V?$allocator@UItemRank_Data@@@std@@@std@@@std@@QBEXABV12@@Z ENDP ; std::_Vector_const_iterator<std::_Vector_val<ItemRank_Data,std::allocator<ItemRank_Data> > >::_Compat
_TEXT	ENDS
PUBLIC	?_Compat@?$_Vector_const_iterator@V?$_Vector_val@UItemRank_List@@V?$allocator@UItemRank_List@@@std@@@std@@@std@@QBEXABV12@@Z ; std::_Vector_const_iterator<std::_Vector_val<ItemRank_List,std::allocator<ItemRank_List> > >::_Compat
; Function compile flags: /Ogtp
;	COMDAT ?_Compat@?$_Vector_const_iterator@V?$_Vector_val@UItemRank_List@@V?$allocator@UItemRank_List@@@std@@@std@@@std@@QBEXABV12@@Z
_TEXT	SEGMENT
___formal$ = 8						; size = 4
?_Compat@?$_Vector_const_iterator@V?$_Vector_val@UItemRank_List@@V?$allocator@UItemRank_List@@@std@@@std@@@std@@QBEXABV12@@Z PROC ; std::_Vector_const_iterator<std::_Vector_val<ItemRank_List,std::allocator<ItemRank_List> > >::_Compat, COMDAT
; _this$ = ecx

; 253  : 		}

  00000	c2 04 00	 ret	 4
?_Compat@?$_Vector_const_iterator@V?$_Vector_val@UItemRank_List@@V?$allocator@UItemRank_List@@@std@@@std@@@std@@QBEXABV12@@Z ENDP ; std::_Vector_const_iterator<std::_Vector_val<ItemRank_List,std::allocator<ItemRank_List> > >::_Compat
_TEXT	ENDS
PUBLIC	??$addressof@$$CBUItemRank_Data@@@std@@YAPBUItemRank_Data@@ABU1@@Z ; std::addressof<ItemRank_Data const >
; Function compile flags: /Ogtp
; File d:\program files (x86)\microsoft visual studio 10.0\vc\include\xmemory
;	COMDAT ??$addressof@$$CBUItemRank_Data@@@std@@YAPBUItemRank_Data@@ABU1@@Z
_TEXT	SEGMENT
__Val$ = 8						; size = 4
??$addressof@$$CBUItemRank_Data@@@std@@YAPBUItemRank_Data@@ABU1@@Z PROC ; std::addressof<ItemRank_Data const >, COMDAT

; 110  : 	{	// return address of _Val

  00000	55		 push	 ebp
  00001	8b ec		 mov	 ebp, esp

; 111  : 	return ((_Ty *) &(char&)_Val);

  00003	8b 45 08	 mov	 eax, DWORD PTR __Val$[ebp]

; 112  : 	}

  00006	5d		 pop	 ebp
  00007	c3		 ret	 0
??$addressof@$$CBUItemRank_Data@@@std@@YAPBUItemRank_Data@@ABU1@@Z ENDP ; std::addressof<ItemRank_Data const >
_TEXT	ENDS
PUBLIC	??$addressof@$$CBUItemRank_List@@@std@@YAPBUItemRank_List@@ABU1@@Z ; std::addressof<ItemRank_List const >
; Function compile flags: /Ogtp
;	COMDAT ??$addressof@$$CBUItemRank_List@@@std@@YAPBUItemRank_List@@ABU1@@Z
_TEXT	SEGMENT
__Val$ = 8						; size = 4
??$addressof@$$CBUItemRank_List@@@std@@YAPBUItemRank_List@@ABU1@@Z PROC ; std::addressof<ItemRank_List const >, COMDAT

; 110  : 	{	// return address of _Val

  00000	55		 push	 ebp
  00001	8b ec		 mov	 ebp, esp

; 111  : 	return ((_Ty *) &(char&)_Val);

  00003	8b 45 08	 mov	 eax, DWORD PTR __Val$[ebp]

; 112  : 	}

  00006	5d		 pop	 ebp
  00007	c3		 ret	 0
??$addressof@$$CBUItemRank_List@@@std@@YAPBUItemRank_List@@ABU1@@Z ENDP ; std::addressof<ItemRank_List const >
_TEXT	ENDS
PUBLIC	??$forward@AAUItemRank_Data@@@std@@YAAAUItemRank_Data@@AAU1@@Z ; std::forward<ItemRank_Data &>
; Function compile flags: /Ogtp
; File d:\program files (x86)\microsoft visual studio 10.0\vc\include\utility
;	COMDAT ??$forward@AAUItemRank_Data@@@std@@YAAAUItemRank_Data@@AAU1@@Z
_TEXT	SEGMENT
__Arg$ = 8						; size = 4
??$forward@AAUItemRank_Data@@@std@@YAAAUItemRank_Data@@AAU1@@Z PROC ; std::forward<ItemRank_Data &>, COMDAT

; 78   : 	{	// forward _Arg, given explicitly specified type parameter

  00000	55		 push	 ebp
  00001	8b ec		 mov	 ebp, esp

; 79   : 	return ((_Ty&&)_Arg);

  00003	8b 45 08	 mov	 eax, DWORD PTR __Arg$[ebp]

; 80   : 	}

  00006	5d		 pop	 ebp
  00007	c3		 ret	 0
??$forward@AAUItemRank_Data@@@std@@YAAAUItemRank_Data@@AAU1@@Z ENDP ; std::forward<ItemRank_Data &>
_TEXT	ENDS
PUBLIC	??$construct@AAUItemRank_Data@@@?$allocator@UItemRank_Data@@@std@@QAEXPAUItemRank_Data@@AAU2@@Z ; std::allocator<ItemRank_Data>::construct<ItemRank_Data &>
; Function compile flags: /Ogtp
; File d:\program files (x86)\microsoft visual studio 10.0\vc\include\xmemory
;	COMDAT ??$construct@AAUItemRank_Data@@@?$allocator@UItemRank_Data@@@std@@QAEXPAUItemRank_Data@@AAU2@@Z
_TEXT	SEGMENT
__Ptr$ = 8						; size = 4
__Val$ = 12						; size = 4
??$construct@AAUItemRank_Data@@@?$allocator@UItemRank_Data@@@std@@QAEXPAUItemRank_Data@@AAU2@@Z PROC ; std::allocator<ItemRank_Data>::construct<ItemRank_Data &>, COMDAT
; _this$ = ecx

; 206  : 		void construct(pointer _Ptr, _Other&& _Val)

  00000	55		 push	 ebp
  00001	8b ec		 mov	 ebp, esp

; 207  : 		{	// construct object at _Ptr with value _Val
; 208  : 		::new ((void _FARQ *)_Ptr) _Ty(_STD forward<_Other>(_Val));

  00003	8b 45 08	 mov	 eax, DWORD PTR __Ptr$[ebp]
  00006	85 c0		 test	 eax, eax
  00008	74 15		 je	 SHORT $LN3@construct
  0000a	8b 4d 0c	 mov	 ecx, DWORD PTR __Val$[ebp]
  0000d	8b 11		 mov	 edx, DWORD PTR [ecx]
  0000f	89 10		 mov	 DWORD PTR [eax], edx
  00011	66 8b 51 04	 mov	 dx, WORD PTR [ecx+4]
  00015	66 89 50 04	 mov	 WORD PTR [eax+4], dx
  00019	8a 49 06	 mov	 cl, BYTE PTR [ecx+6]
  0001c	88 48 06	 mov	 BYTE PTR [eax+6], cl
$LN3@construct:

; 209  : 		}

  0001f	5d		 pop	 ebp
  00020	c2 08 00	 ret	 8
??$construct@AAUItemRank_Data@@@?$allocator@UItemRank_Data@@@std@@QAEXPAUItemRank_Data@@AAU2@@Z ENDP ; std::allocator<ItemRank_Data>::construct<ItemRank_Data &>
_TEXT	ENDS
PUBLIC	??$forward@ABUItemRank_Data@@@std@@YAABUItemRank_Data@@ABU1@@Z ; std::forward<ItemRank_Data const &>
; Function compile flags: /Ogtp
; File d:\program files (x86)\microsoft visual studio 10.0\vc\include\utility
;	COMDAT ??$forward@ABUItemRank_Data@@@std@@YAABUItemRank_Data@@ABU1@@Z
_TEXT	SEGMENT
__Arg$ = 8						; size = 4
??$forward@ABUItemRank_Data@@@std@@YAABUItemRank_Data@@ABU1@@Z PROC ; std::forward<ItemRank_Data const &>, COMDAT

; 78   : 	{	// forward _Arg, given explicitly specified type parameter

  00000	55		 push	 ebp
  00001	8b ec		 mov	 ebp, esp

; 79   : 	return ((_Ty&&)_Arg);

  00003	8b 45 08	 mov	 eax, DWORD PTR __Arg$[ebp]

; 80   : 	}

  00006	5d		 pop	 ebp
  00007	c3		 ret	 0
??$forward@ABUItemRank_Data@@@std@@YAABUItemRank_Data@@ABU1@@Z ENDP ; std::forward<ItemRank_Data const &>
_TEXT	ENDS
PUBLIC	??$forward@AAUItemRank_List@@@std@@YAAAUItemRank_List@@AAU1@@Z ; std::forward<ItemRank_List &>
; Function compile flags: /Ogtp
;	COMDAT ??$forward@AAUItemRank_List@@@std@@YAAAUItemRank_List@@AAU1@@Z
_TEXT	SEGMENT
__Arg$ = 8						; size = 4
??$forward@AAUItemRank_List@@@std@@YAAAUItemRank_List@@AAU1@@Z PROC ; std::forward<ItemRank_List &>, COMDAT

; 78   : 	{	// forward _Arg, given explicitly specified type parameter

  00000	55		 push	 ebp
  00001	8b ec		 mov	 ebp, esp

; 79   : 	return ((_Ty&&)_Arg);

  00003	8b 45 08	 mov	 eax, DWORD PTR __Arg$[ebp]

; 80   : 	}

  00006	5d		 pop	 ebp
  00007	c3		 ret	 0
??$forward@AAUItemRank_List@@@std@@YAAAUItemRank_List@@AAU1@@Z ENDP ; std::forward<ItemRank_List &>
_TEXT	ENDS
PUBLIC	??$construct@AAUItemRank_List@@@?$allocator@UItemRank_List@@@std@@QAEXPAUItemRank_List@@AAU2@@Z ; std::allocator<ItemRank_List>::construct<ItemRank_List &>
; Function compile flags: /Ogtp
; File d:\program files (x86)\microsoft visual studio 10.0\vc\include\xmemory
;	COMDAT ??$construct@AAUItemRank_List@@@?$allocator@UItemRank_List@@@std@@QAEXPAUItemRank_List@@AAU2@@Z
_TEXT	SEGMENT
__Ptr$ = 8						; size = 4
__Val$ = 12						; size = 4
??$construct@AAUItemRank_List@@@?$allocator@UItemRank_List@@@std@@QAEXPAUItemRank_List@@AAU2@@Z PROC ; std::allocator<ItemRank_List>::construct<ItemRank_List &>, COMDAT
; _this$ = ecx

; 206  : 		void construct(pointer _Ptr, _Other&& _Val)

  00000	55		 push	 ebp
  00001	8b ec		 mov	 ebp, esp

; 207  : 		{	// construct object at _Ptr with value _Val
; 208  : 		::new ((void _FARQ *)_Ptr) _Ty(_STD forward<_Other>(_Val));

  00003	8b 45 08	 mov	 eax, DWORD PTR __Ptr$[ebp]
  00006	85 c0		 test	 eax, eax
  00008	74 0f		 je	 SHORT $LN3@construct@2
  0000a	8b 4d 0c	 mov	 ecx, DWORD PTR __Val$[ebp]
  0000d	8b 11		 mov	 edx, DWORD PTR [ecx]
  0000f	89 10		 mov	 DWORD PTR [eax], edx
  00011	66 8b 49 04	 mov	 cx, WORD PTR [ecx+4]
  00015	66 89 48 04	 mov	 WORD PTR [eax+4], cx
$LN3@construct@2:

; 209  : 		}

  00019	5d		 pop	 ebp
  0001a	c2 08 00	 ret	 8
??$construct@AAUItemRank_List@@@?$allocator@UItemRank_List@@@std@@QAEXPAUItemRank_List@@AAU2@@Z ENDP ; std::allocator<ItemRank_List>::construct<ItemRank_List &>
_TEXT	ENDS
PUBLIC	??$forward@ABUItemRank_List@@@std@@YAABUItemRank_List@@ABU1@@Z ; std::forward<ItemRank_List const &>
; Function compile flags: /Ogtp
; File d:\program files (x86)\microsoft visual studio 10.0\vc\include\utility
;	COMDAT ??$forward@ABUItemRank_List@@@std@@YAABUItemRank_List@@ABU1@@Z
_TEXT	SEGMENT
__Arg$ = 8						; size = 4
??$forward@ABUItemRank_List@@@std@@YAABUItemRank_List@@ABU1@@Z PROC ; std::forward<ItemRank_List const &>, COMDAT

; 78   : 	{	// forward _Arg, given explicitly specified type parameter

  00000	55		 push	 ebp
  00001	8b ec		 mov	 ebp, esp

; 79   : 	return ((_Ty&&)_Arg);

  00003	8b 45 08	 mov	 eax, DWORD PTR __Arg$[ebp]

; 80   : 	}

  00006	5d		 pop	 ebp
  00007	c3		 ret	 0
??$forward@ABUItemRank_List@@@std@@YAABUItemRank_List@@ABU1@@Z ENDP ; std::forward<ItemRank_List const &>
_TEXT	ENDS
PUBLIC	??$_Ptr_cat@UItemRank_Data@@U1@@std@@YA?AU_Nonscalar_ptr_iterator_tag@0@PAUItemRank_Data@@0@Z ; std::_Ptr_cat<ItemRank_Data,ItemRank_Data>
; Function compile flags: /Ogtp
; File d:\program files (x86)\microsoft visual studio 10.0\vc\include\xutility
;	COMDAT ??$_Ptr_cat@UItemRank_Data@@U1@@std@@YA?AU_Nonscalar_ptr_iterator_tag@0@PAUItemRank_Data@@0@Z
_TEXT	SEGMENT
__Cat$ = -1						; size = 1
___formal$ = 8						; size = 4
___formal$ = 12						; size = 4
??$_Ptr_cat@UItemRank_Data@@U1@@std@@YA?AU_Nonscalar_ptr_iterator_tag@0@PAUItemRank_Data@@0@Z PROC ; std::_Ptr_cat<ItemRank_Data,ItemRank_Data>, COMDAT

; 516  : 	{	// return pointer category from pointers

  00000	55		 push	 ebp
  00001	8b ec		 mov	 ebp, esp
  00003	51		 push	 ecx

; 517  : 	typename _Ptr_cat_helper<_Elem1, _Elem2>::_Type _Cat;
; 518  : 	return (_Cat);

  00004	8a 45 ff	 mov	 al, BYTE PTR __Cat$[ebp]

; 519  : 	}

  00007	8b e5		 mov	 esp, ebp
  00009	5d		 pop	 ebp
  0000a	c3		 ret	 0
??$_Ptr_cat@UItemRank_Data@@U1@@std@@YA?AU_Nonscalar_ptr_iterator_tag@0@PAUItemRank_Data@@0@Z ENDP ; std::_Ptr_cat<ItemRank_Data,ItemRank_Data>
_TEXT	ENDS
PUBLIC	??$_Ptr_cat@UItemRank_List@@U1@@std@@YA?AU_Nonscalar_ptr_iterator_tag@0@PAUItemRank_List@@0@Z ; std::_Ptr_cat<ItemRank_List,ItemRank_List>
; Function compile flags: /Ogtp
;	COMDAT ??$_Ptr_cat@UItemRank_List@@U1@@std@@YA?AU_Nonscalar_ptr_iterator_tag@0@PAUItemRank_List@@0@Z
_TEXT	SEGMENT
__Cat$ = -1						; size = 1
___formal$ = 8						; size = 4
___formal$ = 12						; size = 4
??$_Ptr_cat@UItemRank_List@@U1@@std@@YA?AU_Nonscalar_ptr_iterator_tag@0@PAUItemRank_List@@0@Z PROC ; std::_Ptr_cat<ItemRank_List,ItemRank_List>, COMDAT

; 516  : 	{	// return pointer category from pointers

  00000	55		 push	 ebp
  00001	8b ec		 mov	 ebp, esp
  00003	51		 push	 ecx

; 517  : 	typename _Ptr_cat_helper<_Elem1, _Elem2>::_Type _Cat;
; 518  : 	return (_Cat);

  00004	8a 45 ff	 mov	 al, BYTE PTR __Cat$[ebp]

; 519  : 	}

  00007	8b e5		 mov	 esp, ebp
  00009	5d		 pop	 ebp
  0000a	c3		 ret	 0
??$_Ptr_cat@UItemRank_List@@U1@@std@@YA?AU_Nonscalar_ptr_iterator_tag@0@PAUItemRank_List@@0@Z ENDP ; std::_Ptr_cat<ItemRank_List,ItemRank_List>
_TEXT	ENDS
PUBLIC	??$_Construct@UItemRank_Data@@ABU1@@std@@YAXPAUItemRank_Data@@ABU1@@Z ; std::_Construct<ItemRank_Data,ItemRank_Data const &>
; Function compile flags: /Ogtp
; File d:\program files (x86)\microsoft visual studio 10.0\vc\include\xmemory
;	COMDAT ??$_Construct@UItemRank_Data@@ABU1@@std@@YAXPAUItemRank_Data@@ABU1@@Z
_TEXT	SEGMENT
__Ptr$ = 8						; size = 4
__Val$ = 12						; size = 4
??$_Construct@UItemRank_Data@@ABU1@@std@@YAXPAUItemRank_Data@@ABU1@@Z PROC ; std::_Construct<ItemRank_Data,ItemRank_Data const &>, COMDAT

; 46   : 	{	// construct object at _Ptr with value _Val

  00000	55		 push	 ebp
  00001	8b ec		 mov	 ebp, esp

; 47   : 	void _FARQ *_Vptr = _Ptr;
; 48   : 	::new (_Vptr) _Ty1(_STD forward<_Ty2>(_Val));

  00003	8b 45 08	 mov	 eax, DWORD PTR __Ptr$[ebp]
  00006	85 c0		 test	 eax, eax
  00008	74 15		 je	 SHORT $LN3@Construct
  0000a	8b 4d 0c	 mov	 ecx, DWORD PTR __Val$[ebp]
  0000d	8b 11		 mov	 edx, DWORD PTR [ecx]
  0000f	89 10		 mov	 DWORD PTR [eax], edx
  00011	66 8b 51 04	 mov	 dx, WORD PTR [ecx+4]
  00015	66 89 50 04	 mov	 WORD PTR [eax+4], dx
  00019	8a 49 06	 mov	 cl, BYTE PTR [ecx+6]
  0001c	88 48 06	 mov	 BYTE PTR [eax+6], cl
$LN3@Construct:

; 49   : 	}

  0001f	5d		 pop	 ebp
  00020	c3		 ret	 0
??$_Construct@UItemRank_Data@@ABU1@@std@@YAXPAUItemRank_Data@@ABU1@@Z ENDP ; std::_Construct<ItemRank_Data,ItemRank_Data const &>
_TEXT	ENDS
PUBLIC	??$_Construct@UItemRank_List@@ABU1@@std@@YAXPAUItemRank_List@@ABU1@@Z ; std::_Construct<ItemRank_List,ItemRank_List const &>
; Function compile flags: /Ogtp
;	COMDAT ??$_Construct@UItemRank_List@@ABU1@@std@@YAXPAUItemRank_List@@ABU1@@Z
_TEXT	SEGMENT
__Ptr$ = 8						; size = 4
__Val$ = 12						; size = 4
??$_Construct@UItemRank_List@@ABU1@@std@@YAXPAUItemRank_List@@ABU1@@Z PROC ; std::_Construct<ItemRank_List,ItemRank_List const &>, COMDAT

; 46   : 	{	// construct object at _Ptr with value _Val

  00000	55		 push	 ebp
  00001	8b ec		 mov	 ebp, esp

; 47   : 	void _FARQ *_Vptr = _Ptr;
; 48   : 	::new (_Vptr) _Ty1(_STD forward<_Ty2>(_Val));

  00003	8b 45 08	 mov	 eax, DWORD PTR __Ptr$[ebp]
  00006	85 c0		 test	 eax, eax
  00008	74 0f		 je	 SHORT $LN3@Construct@2
  0000a	8b 4d 0c	 mov	 ecx, DWORD PTR __Val$[ebp]
  0000d	8b 11		 mov	 edx, DWORD PTR [ecx]
  0000f	89 10		 mov	 DWORD PTR [eax], edx
  00011	66 8b 49 04	 mov	 cx, WORD PTR [ecx+4]
  00015	66 89 48 04	 mov	 WORD PTR [eax+4], cx
$LN3@Construct@2:

; 49   : 	}

  00019	5d		 pop	 ebp
  0001a	c3		 ret	 0
??$_Construct@UItemRank_List@@ABU1@@std@@YAXPAUItemRank_List@@ABU1@@Z ENDP ; std::_Construct<ItemRank_List,ItemRank_List const &>
_TEXT	ENDS
PUBLIC	??$move@AAUItemRank_Data@@@std@@YA$$QAUItemRank_Data@@AAU1@@Z ; std::move<ItemRank_Data &>
; Function compile flags: /Ogtp
; File d:\program files (x86)\microsoft visual studio 10.0\vc\include\utility
;	COMDAT ??$move@AAUItemRank_Data@@@std@@YA$$QAUItemRank_Data@@AAU1@@Z
_TEXT	SEGMENT
__Arg$ = 8						; size = 4
??$move@AAUItemRank_Data@@@std@@YA$$QAUItemRank_Data@@AAU1@@Z PROC ; std::move<ItemRank_Data &>, COMDAT

; 86   : 	{	// forward _Arg as movable

  00000	55		 push	 ebp
  00001	8b ec		 mov	 ebp, esp

; 87   : 	return ((typename tr1::_Remove_reference<_Ty>::_Type&&)_Arg);

  00003	8b 45 08	 mov	 eax, DWORD PTR __Arg$[ebp]

; 88   : 	}

  00006	5d		 pop	 ebp
  00007	c3		 ret	 0
??$move@AAUItemRank_Data@@@std@@YA$$QAUItemRank_Data@@AAU1@@Z ENDP ; std::move<ItemRank_Data &>
_TEXT	ENDS
PUBLIC	??$move@AAUItemRank_List@@@std@@YA$$QAUItemRank_List@@AAU1@@Z ; std::move<ItemRank_List &>
; Function compile flags: /Ogtp
;	COMDAT ??$move@AAUItemRank_List@@@std@@YA$$QAUItemRank_List@@AAU1@@Z
_TEXT	SEGMENT
__Arg$ = 8						; size = 4
??$move@AAUItemRank_List@@@std@@YA$$QAUItemRank_List@@AAU1@@Z PROC ; std::move<ItemRank_List &>, COMDAT

; 86   : 	{	// forward _Arg as movable

  00000	55		 push	 ebp
  00001	8b ec		 mov	 ebp, esp

; 87   : 	return ((typename tr1::_Remove_reference<_Ty>::_Type&&)_Arg);

  00003	8b 45 08	 mov	 eax, DWORD PTR __Arg$[ebp]

; 88   : 	}

  00006	5d		 pop	 ebp
  00007	c3		 ret	 0
??$move@AAUItemRank_List@@@std@@YA$$QAUItemRank_List@@AAU1@@Z ENDP ; std::move<ItemRank_List &>
_TEXT	ENDS
PUBLIC	??$_Val_type@PAUItemRank_Data@@@std@@YAPAUItemRank_Data@@PAU1@@Z ; std::_Val_type<ItemRank_Data *>
; Function compile flags: /Ogtp
; File d:\program files (x86)\microsoft visual studio 10.0\vc\include\xutility
;	COMDAT ??$_Val_type@PAUItemRank_Data@@@std@@YAPAUItemRank_Data@@PAU1@@Z
_TEXT	SEGMENT
___formal$ = 8						; size = 4
??$_Val_type@PAUItemRank_Data@@@std@@YAPAUItemRank_Data@@PAU1@@Z PROC ; std::_Val_type<ItemRank_Data *>, COMDAT

; 790  : 	return (0);

  00000	33 c0		 xor	 eax, eax

; 791  : 	}

  00002	c3		 ret	 0
??$_Val_type@PAUItemRank_Data@@@std@@YAPAUItemRank_Data@@PAU1@@Z ENDP ; std::_Val_type<ItemRank_Data *>
_TEXT	ENDS
PUBLIC	??$_Val_type@PAUItemRank_List@@@std@@YAPAUItemRank_List@@PAU1@@Z ; std::_Val_type<ItemRank_List *>
; Function compile flags: /Ogtp
;	COMDAT ??$_Val_type@PAUItemRank_List@@@std@@YAPAUItemRank_List@@PAU1@@Z
_TEXT	SEGMENT
___formal$ = 8						; size = 4
??$_Val_type@PAUItemRank_List@@@std@@YAPAUItemRank_List@@PAU1@@Z PROC ; std::_Val_type<ItemRank_List *>, COMDAT

; 790  : 	return (0);

  00000	33 c0		 xor	 eax, eax

; 791  : 	}

  00002	c3		 ret	 0
??$_Val_type@PAUItemRank_List@@@std@@YAPAUItemRank_List@@PAU1@@Z ENDP ; std::_Val_type<ItemRank_List *>
_TEXT	ENDS
PUBLIC	??$_Destroy@UItemRank_Data@@@std@@YAXPAUItemRank_Data@@@Z ; std::_Destroy<ItemRank_Data>
; Function compile flags: /Ogtp
; File d:\program files (x86)\microsoft visual studio 10.0\vc\include\xmemory
;	COMDAT ??$_Destroy@UItemRank_Data@@@std@@YAXPAUItemRank_Data@@@Z
_TEXT	SEGMENT
__Ptr$ = 8						; size = 4
??$_Destroy@UItemRank_Data@@@std@@YAXPAUItemRank_Data@@@Z PROC ; std::_Destroy<ItemRank_Data>, COMDAT

; 63   : 	_Ptr->~_Ty();
; 64   : 	}

  00000	c3		 ret	 0
??$_Destroy@UItemRank_Data@@@std@@YAXPAUItemRank_Data@@@Z ENDP ; std::_Destroy<ItemRank_Data>
_TEXT	ENDS
PUBLIC	??$_Destroy@UItemRank_List@@@std@@YAXPAUItemRank_List@@@Z ; std::_Destroy<ItemRank_List>
; Function compile flags: /Ogtp
;	COMDAT ??$_Destroy@UItemRank_List@@@std@@YAXPAUItemRank_List@@@Z
_TEXT	SEGMENT
__Ptr$ = 8						; size = 4
??$_Destroy@UItemRank_List@@@std@@YAXPAUItemRank_List@@@Z PROC ; std::_Destroy<ItemRank_List>, COMDAT

; 63   : 	_Ptr->~_Ty();
; 64   : 	}

  00000	c3		 ret	 0
??$_Destroy@UItemRank_List@@@std@@YAXPAUItemRank_List@@@Z ENDP ; std::_Destroy<ItemRank_List>
_TEXT	ENDS
PUBLIC	??$forward@UItemRank_Data@@@std@@YA$$QAUItemRank_Data@@AAU1@@Z ; std::forward<ItemRank_Data>
; Function compile flags: /Ogtp
; File d:\program files (x86)\microsoft visual studio 10.0\vc\include\utility
;	COMDAT ??$forward@UItemRank_Data@@@std@@YA$$QAUItemRank_Data@@AAU1@@Z
_TEXT	SEGMENT
__Arg$ = 8						; size = 4
??$forward@UItemRank_Data@@@std@@YA$$QAUItemRank_Data@@AAU1@@Z PROC ; std::forward<ItemRank_Data>, COMDAT

; 78   : 	{	// forward _Arg, given explicitly specified type parameter

  00000	55		 push	 ebp
  00001	8b ec		 mov	 ebp, esp

; 79   : 	return ((_Ty&&)_Arg);

  00003	8b 45 08	 mov	 eax, DWORD PTR __Arg$[ebp]

; 80   : 	}

  00006	5d		 pop	 ebp
  00007	c3		 ret	 0
??$forward@UItemRank_Data@@@std@@YA$$QAUItemRank_Data@@AAU1@@Z ENDP ; std::forward<ItemRank_Data>
_TEXT	ENDS
PUBLIC	??$forward@UItemRank_List@@@std@@YA$$QAUItemRank_List@@AAU1@@Z ; std::forward<ItemRank_List>
; Function compile flags: /Ogtp
;	COMDAT ??$forward@UItemRank_List@@@std@@YA$$QAUItemRank_List@@AAU1@@Z
_TEXT	SEGMENT
__Arg$ = 8						; size = 4
??$forward@UItemRank_List@@@std@@YA$$QAUItemRank_List@@AAU1@@Z PROC ; std::forward<ItemRank_List>, COMDAT

; 78   : 	{	// forward _Arg, given explicitly specified type parameter

  00000	55		 push	 ebp
  00001	8b ec		 mov	 ebp, esp

; 79   : 	return ((_Ty&&)_Arg);

  00003	8b 45 08	 mov	 eax, DWORD PTR __Arg$[ebp]

; 80   : 	}

  00006	5d		 pop	 ebp
  00007	c3		 ret	 0
??$forward@UItemRank_List@@@std@@YA$$QAUItemRank_List@@AAU1@@Z ENDP ; std::forward<ItemRank_List>
_TEXT	ENDS
PUBLIC	??_7bad_alloc@std@@6B@				; std::bad_alloc::`vftable'
PUBLIC	??0bad_alloc@std@@QAE@PBD@Z			; std::bad_alloc::bad_alloc
PUBLIC	??_R4bad_alloc@std@@6B@				; std::bad_alloc::`RTTI Complete Object Locator'
PUBLIC	??_R0?AVbad_alloc@std@@@8			; std::bad_alloc `RTTI Type Descriptor'
PUBLIC	??_R3bad_alloc@std@@8				; std::bad_alloc::`RTTI Class Hierarchy Descriptor'
PUBLIC	??_R2bad_alloc@std@@8				; std::bad_alloc::`RTTI Base Class Array'
PUBLIC	??_R1A@?0A@EA@bad_alloc@std@@8			; std::bad_alloc::`RTTI Base Class Descriptor at (0,-1,0,64)'
PUBLIC	??_R1A@?0A@EA@exception@std@@8			; std::exception::`RTTI Base Class Descriptor at (0,-1,0,64)'
PUBLIC	??_R0?AVexception@std@@@8			; std::exception `RTTI Type Descriptor'
PUBLIC	??_R3exception@std@@8				; std::exception::`RTTI Class Hierarchy Descriptor'
PUBLIC	??_R2exception@std@@8				; std::exception::`RTTI Base Class Array'
EXTRN	??0exception@std@@QAE@ABQBD@Z:PROC		; std::exception::exception
EXTRN	??_7type_info@@6B@:QWORD			; type_info::`vftable'
EXTRN	??_Ebad_alloc@std@@UAEPAXI@Z:PROC		; std::bad_alloc::`vector deleting destructor'
EXTRN	?what@exception@std@@UBEPBDXZ:PROC		; std::exception::what
;	COMDAT ??_R2exception@std@@8
; File d:\program files (x86)\microsoft visual studio 10.0\vc\include\exception
rdata$r	SEGMENT
??_R2exception@std@@8 DD FLAT:??_R1A@?0A@EA@exception@std@@8 ; std::exception::`RTTI Base Class Array'
rdata$r	ENDS
;	COMDAT ??_R3exception@std@@8
rdata$r	SEGMENT
??_R3exception@std@@8 DD 00H				; std::exception::`RTTI Class Hierarchy Descriptor'
	DD	00H
	DD	01H
	DD	FLAT:??_R2exception@std@@8
rdata$r	ENDS
;	COMDAT ??_R0?AVexception@std@@@8
_DATA	SEGMENT
??_R0?AVexception@std@@@8 DD FLAT:??_7type_info@@6B@	; std::exception `RTTI Type Descriptor'
	DD	00H
	DB	'.?AVexception@std@@', 00H
_DATA	ENDS
;	COMDAT ??_R1A@?0A@EA@exception@std@@8
rdata$r	SEGMENT
??_R1A@?0A@EA@exception@std@@8 DD FLAT:??_R0?AVexception@std@@@8 ; std::exception::`RTTI Base Class Descriptor at (0,-1,0,64)'
	DD	00H
	DD	00H
	DD	0ffffffffH
	DD	00H
	DD	040H
	DD	FLAT:??_R3exception@std@@8
rdata$r	ENDS
;	COMDAT ??_R1A@?0A@EA@bad_alloc@std@@8
rdata$r	SEGMENT
??_R1A@?0A@EA@bad_alloc@std@@8 DD FLAT:??_R0?AVbad_alloc@std@@@8 ; std::bad_alloc::`RTTI Base Class Descriptor at (0,-1,0,64)'
	DD	01H
	DD	00H
	DD	0ffffffffH
	DD	00H
	DD	040H
	DD	FLAT:??_R3bad_alloc@std@@8
rdata$r	ENDS
;	COMDAT ??_R2bad_alloc@std@@8
rdata$r	SEGMENT
??_R2bad_alloc@std@@8 DD FLAT:??_R1A@?0A@EA@bad_alloc@std@@8 ; std::bad_alloc::`RTTI Base Class Array'
	DD	FLAT:??_R1A@?0A@EA@exception@std@@8
rdata$r	ENDS
;	COMDAT ??_R3bad_alloc@std@@8
rdata$r	SEGMENT
??_R3bad_alloc@std@@8 DD 00H				; std::bad_alloc::`RTTI Class Hierarchy Descriptor'
	DD	00H
	DD	02H
	DD	FLAT:??_R2bad_alloc@std@@8
rdata$r	ENDS
;	COMDAT ??_R0?AVbad_alloc@std@@@8
_DATA	SEGMENT
??_R0?AVbad_alloc@std@@@8 DD FLAT:??_7type_info@@6B@	; std::bad_alloc `RTTI Type Descriptor'
	DD	00H
	DB	'.?AVbad_alloc@std@@', 00H
_DATA	ENDS
;	COMDAT ??_R4bad_alloc@std@@6B@
rdata$r	SEGMENT
??_R4bad_alloc@std@@6B@ DD 00H				; std::bad_alloc::`RTTI Complete Object Locator'
	DD	00H
	DD	00H
	DD	FLAT:??_R0?AVbad_alloc@std@@@8
	DD	FLAT:??_R3bad_alloc@std@@8
rdata$r	ENDS
;	COMDAT ??_7bad_alloc@std@@6B@
CONST	SEGMENT
??_7bad_alloc@std@@6B@ DD FLAT:??_R4bad_alloc@std@@6B@	; std::bad_alloc::`vftable'
	DD	FLAT:??_Ebad_alloc@std@@UAEPAXI@Z
	DD	FLAT:?what@exception@std@@UBEPBDXZ
; Function compile flags: /Ogtp
CONST	ENDS
;	COMDAT ??0bad_alloc@std@@QAE@PBD@Z
_TEXT	SEGMENT
__Message$ = 8						; size = 4
??0bad_alloc@std@@QAE@PBD@Z PROC			; std::bad_alloc::bad_alloc, COMDAT
; _this$ = ecx

; 345  : 		{	// construct from message string

  00000	55		 push	 ebp
  00001	8b ec		 mov	 ebp, esp
  00003	56		 push	 esi
  00004	8d 45 08	 lea	 eax, DWORD PTR __Message$[ebp]
  00007	50		 push	 eax
  00008	8b f1		 mov	 esi, ecx
  0000a	e8 00 00 00 00	 call	 ??0exception@std@@QAE@ABQBD@Z ; std::exception::exception
  0000f	c7 06 00 00 00
	00		 mov	 DWORD PTR [esi], OFFSET ??_7bad_alloc@std@@6B@

; 346  : 		}

  00015	8b c6		 mov	 eax, esi
  00017	5e		 pop	 esi
  00018	5d		 pop	 ebp
  00019	c2 04 00	 ret	 4
??0bad_alloc@std@@QAE@PBD@Z ENDP			; std::bad_alloc::bad_alloc
_TEXT	ENDS
PUBLIC	??1bad_alloc@std@@UAE@XZ			; std::bad_alloc::~bad_alloc
EXTRN	??1exception@std@@UAE@XZ:PROC			; std::exception::~exception
; Function compile flags: /Ogtp
;	COMDAT ??1bad_alloc@std@@UAE@XZ
_TEXT	SEGMENT
??1bad_alloc@std@@UAE@XZ PROC				; std::bad_alloc::~bad_alloc, COMDAT
; _this$ = ecx

; 354  : 		{	// destroy the object

  00000	c7 01 00 00 00
	00		 mov	 DWORD PTR [ecx], OFFSET ??_7bad_alloc@std@@6B@

; 355  : 		}

  00006	e9 00 00 00 00	 jmp	 ??1exception@std@@UAE@XZ ; std::exception::~exception
??1bad_alloc@std@@UAE@XZ ENDP				; std::bad_alloc::~bad_alloc
; Function compile flags: /Ogtp
_TEXT	ENDS
;	COMDAT ??_Gbad_alloc@std@@UAEPAXI@Z
_TEXT	SEGMENT
___flags$ = 8						; size = 4
??_Gbad_alloc@std@@UAEPAXI@Z PROC			; std::bad_alloc::`scalar deleting destructor', COMDAT
; _this$ = ecx
  00000	55		 push	 ebp
  00001	8b ec		 mov	 ebp, esp
  00003	56		 push	 esi
  00004	8b f1		 mov	 esi, ecx
  00006	c7 06 00 00 00
	00		 mov	 DWORD PTR [esi], OFFSET ??_7bad_alloc@std@@6B@
  0000c	e8 00 00 00 00	 call	 ??1exception@std@@UAE@XZ ; std::exception::~exception
  00011	f6 45 08 01	 test	 BYTE PTR ___flags$[ebp], 1
  00015	74 09		 je	 SHORT $LN6@scalar
  00017	56		 push	 esi
  00018	e8 00 00 00 00	 call	 ??3@YAXPAX@Z		; operator delete
  0001d	83 c4 04	 add	 esp, 4
$LN6@scalar:
  00020	8b c6		 mov	 eax, esi
  00022	5e		 pop	 esi
  00023	5d		 pop	 ebp
  00024	c2 04 00	 ret	 4
??_Gbad_alloc@std@@UAEPAXI@Z ENDP			; std::bad_alloc::`scalar deleting destructor'
_TEXT	ENDS
PUBLIC	?_Orphan_all@_Container_base0@std@@QAEXXZ	; std::_Container_base0::_Orphan_all
; Function compile flags: /Ogtp
; File d:\program files (x86)\microsoft visual studio 10.0\vc\include\xutility
;	COMDAT ?_Orphan_all@_Container_base0@std@@QAEXXZ
_TEXT	SEGMENT
?_Orphan_all@_Container_base0@std@@QAEXXZ PROC		; std::_Container_base0::_Orphan_all, COMDAT
; _this$ = ecx

; 38   : 		}

  00000	c3		 ret	 0
?_Orphan_all@_Container_base0@std@@QAEXXZ ENDP		; std::_Container_base0::_Orphan_all
_TEXT	ENDS
PUBLIC	?_Adopt@_Iterator_base0@std@@QAEXPBX@Z		; std::_Iterator_base0::_Adopt
; Function compile flags: /Ogtp
;	COMDAT ?_Adopt@_Iterator_base0@std@@QAEXPBX@Z
_TEXT	SEGMENT
___formal$ = 8						; size = 4
?_Adopt@_Iterator_base0@std@@QAEXPBX@Z PROC		; std::_Iterator_base0::_Adopt, COMDAT
; _this$ = ecx

; 49   : 		}

  00000	c2 04 00	 ret	 4
?_Adopt@_Iterator_base0@std@@QAEXPBX@Z ENDP		; std::_Iterator_base0::_Adopt
_TEXT	ENDS
PUBLIC	?IsDataRank@ItemRank@@QAE_NE@Z			; ItemRank::IsDataRank
; Function compile flags: /Ogtp
; File e:\work\tranet_version\gs\gameserver\itemrank.cpp
;	COMDAT ?IsDataRank@ItemRank@@QAE_NE@Z
_TEXT	SEGMENT
_RankID$ = 8						; size = 1
?IsDataRank@ItemRank@@QAE_NE@Z PROC			; ItemRank::IsDataRank, COMDAT
; _this$ = ecx

; 224  : {

  00000	55		 push	 ebp
  00001	8b ec		 mov	 ebp, esp
  00003	56		 push	 esi

; 225  : 	for(int i = 0; i < this->m_Data.size(); i++)

  00004	8b 71 08	 mov	 esi, DWORD PTR [ecx+8]
  00007	2b 71 04	 sub	 esi, DWORD PTR [ecx+4]
  0000a	b8 93 24 49 92	 mov	 eax, -1840700269	; 92492493H
  0000f	f7 ee		 imul	 esi
  00011	03 d6		 add	 edx, esi
  00013	c1 fa 02	 sar	 edx, 2
  00016	8b c2		 mov	 eax, edx
  00018	57		 push	 edi
  00019	c1 e8 1f	 shr	 eax, 31			; 0000001fH
  0001c	33 ff		 xor	 edi, edi
  0001e	03 c2		 add	 eax, edx
  00020	74 12		 je	 SHORT $LN2@IsDataRank
  00022	8b 49 04	 mov	 ecx, DWORD PTR [ecx+4]
  00025	8a 55 08	 mov	 dl, BYTE PTR _RankID$[ebp]
$LL4@IsDataRank:

; 226  : 	{
; 227  : 		if(this->m_Data[i].RankID == RankID)

  00028	38 11		 cmp	 BYTE PTR [ecx], dl
  0002a	74 10		 je	 SHORT $LN12@IsDataRank

; 225  : 	for(int i = 0; i < this->m_Data.size(); i++)

  0002c	47		 inc	 edi
  0002d	83 c1 07	 add	 ecx, 7
  00030	3b f8		 cmp	 edi, eax
  00032	72 f4		 jb	 SHORT $LL4@IsDataRank
$LN2@IsDataRank:
  00034	5f		 pop	 edi

; 230  : 		}
; 231  : 	}
; 232  : 
; 233  : 	return false;

  00035	32 c0		 xor	 al, al
  00037	5e		 pop	 esi

; 234  : }

  00038	5d		 pop	 ebp
  00039	c2 04 00	 ret	 4
$LN12@IsDataRank:
  0003c	5f		 pop	 edi

; 228  : 		{
; 229  : 			return true;

  0003d	b0 01		 mov	 al, 1
  0003f	5e		 pop	 esi

; 234  : }

  00040	5d		 pop	 ebp
  00041	c2 04 00	 ret	 4
?IsDataRank@ItemRank@@QAE_NE@Z ENDP			; ItemRank::IsDataRank
_TEXT	ENDS
PUBLIC	?GetRankValueOption@ItemRank@@QAEHHE@Z		; ItemRank::GetRankValueOption
; Function compile flags: /Ogtp
;	COMDAT ?GetRankValueOption@ItemRank@@QAEHHE@Z
_TEXT	SEGMENT
_iResult$ = -4						; size = 4
_id$ = 8						; size = 4
_OptionType$ = 12					; size = 1
?GetRankValueOption@ItemRank@@QAEHHE@Z PROC		; ItemRank::GetRankValueOption, COMDAT
; _this$ = ecx

; 237  : {

  00000	55		 push	 ebp
  00001	8b ec		 mov	 ebp, esp
  00003	51		 push	 ecx

; 238  : 	int iRankID = -1;
; 239  : 	int iResult = -1;
; 240  : 
; 241  : 	if(id < 0)

  00004	8b 45 08	 mov	 eax, DWORD PTR _id$[ebp]
  00007	c7 45 fc ff ff
	ff ff		 mov	 DWORD PTR _iResult$[ebp], -1
  0000e	85 c0		 test	 eax, eax
  00010	79 08		 jns	 SHORT $LN6@GetRankVal

; 242  : 	{
; 243  : 		iResult = 0;
; 244  : 		return iResult;

  00012	33 c0		 xor	 eax, eax

; 266  : }

  00014	8b e5		 mov	 esp, ebp
  00016	5d		 pop	 ebp
  00017	c2 08 00	 ret	 8
$LN6@GetRankVal:

; 245  : 	}
; 246  : 
; 247  : 	iRankID = this->m_ItemList[id].RankID;

  0001a	8b 51 14	 mov	 edx, DWORD PTR [ecx+20]
  0001d	8d 04 40	 lea	 eax, DWORD PTR [eax+eax*2]
  00020	53		 push	 ebx
  00021	0f b6 1c 42	 movzx	 ebx, BYTE PTR [edx+eax*2]

; 248  : 
; 249  : 	//if(iRankID <= 0)
; 250  : 	if(iRankID < 0)

  00025	85 db		 test	 ebx, ebx
  00027	79 09		 jns	 SHORT $LN5@GetRankVal

; 251  : 	{
; 252  : 		iResult = 0;
; 253  : 		return iResult;

  00029	33 c0		 xor	 eax, eax
  0002b	5b		 pop	 ebx

; 266  : }

  0002c	8b e5		 mov	 esp, ebp
  0002e	5d		 pop	 ebp
  0002f	c2 08 00	 ret	 8
$LN5@GetRankVal:
  00032	56		 push	 esi

; 254  : 	}
; 255  : 
; 256  : 	for(int i = 0; i < this->m_Data.size(); i++)

  00033	8b 71 08	 mov	 esi, DWORD PTR [ecx+8]
  00036	2b 71 04	 sub	 esi, DWORD PTR [ecx+4]
  00039	b8 93 24 49 92	 mov	 eax, -1840700269	; 92492493H
  0003e	f7 ee		 imul	 esi
  00040	03 d6		 add	 edx, esi
  00042	c1 fa 02	 sar	 edx, 2
  00045	8b c2		 mov	 eax, edx
  00047	57		 push	 edi
  00048	c1 e8 1f	 shr	 eax, 31			; 0000001fH
  0004b	33 ff		 xor	 edi, edi
  0004d	03 c2		 add	 eax, edx
  0004f	74 37		 je	 SHORT $LN20@GetRankVal
  00051	8b 49 04	 mov	 ecx, DWORD PTR [ecx+4]
  00054	8b d1		 mov	 edx, ecx
$LL4@GetRankVal:

; 257  : 	{
; 258  : 		if(this->m_Data[i].RankID == iRankID)

  00056	0f b6 32	 movzx	 esi, BYTE PTR [edx]
  00059	3b f3		 cmp	 esi, ebx
  0005b	74 14		 je	 SHORT $LN18@GetRankVal

; 254  : 	}
; 255  : 
; 256  : 	for(int i = 0; i < this->m_Data.size(); i++)

  0005d	47		 inc	 edi
  0005e	83 c2 07	 add	 edx, 7
  00061	3b f8		 cmp	 edi, eax
  00063	72 f1		 jb	 SHORT $LL4@GetRankVal

; 261  : 			break;
; 262  : 		}
; 263  : 	}
; 264  : 
; 265  : 	return iResult;

  00065	8b 45 fc	 mov	 eax, DWORD PTR _iResult$[ebp]
  00068	5f		 pop	 edi
  00069	5e		 pop	 esi
  0006a	5b		 pop	 ebx

; 266  : }

  0006b	8b e5		 mov	 esp, ebp
  0006d	5d		 pop	 ebp
  0006e	c2 08 00	 ret	 8
$LN18@GetRankVal:

; 259  : 		{
; 260  : 			iResult = this->m_Data[i].OptionValue[OptionType];

  00071	0f b6 55 0c	 movzx	 edx, BYTE PTR _OptionType$[ebp]
  00075	8d 04 fd 00 00
	00 00		 lea	 eax, DWORD PTR [edi*8]
  0007c	2b c7		 sub	 eax, edi
  0007e	03 c1		 add	 eax, ecx
  00080	0f b6 44 02 01	 movzx	 eax, BYTE PTR [edx+eax+1]
  00085	89 45 fc	 mov	 DWORD PTR _iResult$[ebp], eax
$LN20@GetRankVal:

; 261  : 			break;
; 262  : 		}
; 263  : 	}
; 264  : 
; 265  : 	return iResult;

  00088	8b 45 fc	 mov	 eax, DWORD PTR _iResult$[ebp]
  0008b	5f		 pop	 edi
  0008c	5e		 pop	 esi
  0008d	5b		 pop	 ebx

; 266  : }

  0008e	8b e5		 mov	 esp, ebp
  00090	5d		 pop	 ebp
  00091	c2 08 00	 ret	 8
?GetRankValueOption@ItemRank@@QAEHHE@Z ENDP		; ItemRank::GetRankValueOption
_TEXT	ENDS
PUBLIC	__$ArrayPad$
PUBLIC	?GCRankData@ItemRank@@QAEXH@Z			; ItemRank::GCRankData
; Function compile flags: /Ogtp
;	COMDAT ?GCRankData@ItemRank@@QAEXH@Z
_TEXT	SEGMENT
_pMsg$210119 = -16					; size = 11
__$ArrayPad$ = -4					; size = 4
_aUserIndex$ = 8					; size = 4
?GCRankData@ItemRank@@QAEXH@Z PROC			; ItemRank::GCRankData, COMDAT
; _this$ = ecx

; 282  : {

  00000	55		 push	 ebp
  00001	8b ec		 mov	 ebp, esp
  00003	83 ec 10	 sub	 esp, 16			; 00000010H
  00006	a1 00 00 00 00	 mov	 eax, DWORD PTR ___security_cookie
  0000b	33 c5		 xor	 eax, ebp
  0000d	89 45 fc	 mov	 DWORD PTR __$ArrayPad$[ebp], eax
  00010	56		 push	 esi
  00011	8b f1		 mov	 esi, ecx

; 283  : 	if(!OBJMAX_RANGE(aUserIndex))

  00013	8b 4d 08	 mov	 ecx, DWORD PTR _aUserIndex$[ebp]
  00016	85 c9		 test	 ecx, ecx
  00018	0f 88 a6 00 00
	00		 js	 $LN1@GCRankData
  0001e	33 c0		 xor	 eax, eax
  00020	81 f9 97 3a 00
	00		 cmp	 ecx, 14999		; 00003a97H
  00026	0f 9e c0	 setle	 al
  00029	85 c0		 test	 eax, eax
  0002b	0f 84 93 00 00
	00		 je	 $LN1@GCRankData

; 284  : 	{
; 285  : 		return;
; 286  : 	}
; 287  : 
; 288  : 	for(int i = 0; i < this->m_Data.size(); i++)

  00031	53		 push	 ebx
  00032	8b 5e 08	 mov	 ebx, DWORD PTR [esi+8]
  00035	2b 5e 04	 sub	 ebx, DWORD PTR [esi+4]
  00038	b8 93 24 49 92	 mov	 eax, -1840700269	; 92492493H
  0003d	f7 eb		 imul	 ebx
  0003f	03 d3		 add	 edx, ebx
  00041	c1 fa 02	 sar	 edx, 2
  00044	8b c2		 mov	 eax, edx
  00046	57		 push	 edi
  00047	c1 e8 1f	 shr	 eax, 31			; 0000001fH
  0004a	33 ff		 xor	 edi, edi
  0004c	03 c2		 add	 eax, edx
  0004e	74 72		 je	 SHORT $LN30@GCRankData
  00050	33 db		 xor	 ebx, ebx
  00052	eb 03		 jmp	 SHORT $LN3@GCRankData
$LL29@GCRankData:
  00054	8b 4d 08	 mov	 ecx, DWORD PTR _aUserIndex$[ebp]
$LN3@GCRankData:

; 289  : 	{
; 290  : 		PMSG_DATARANK pMsg;
; 291  : 		pMsg.h.set((LPBYTE)&pMsg, 0xFB, 0x52, sizeof(pMsg));
; 292  : 		pMsg.RankID = this->m_Data[i].RankID;

  00057	8b 46 04	 mov	 eax, DWORD PTR [esi+4]
  0005a	03 c3		 add	 eax, ebx
  0005c	c7 45 f0 c1 0b
	fb 52		 mov	 DWORD PTR _pMsg$210119[ebp], 1392184257 ; 52fb0bc1H
  00063	0f b6 10	 movzx	 edx, BYTE PTR [eax]
  00066	88 55 f4	 mov	 BYTE PTR _pMsg$210119[ebp+4], dl

; 293  : 		pMsg.OptionValue[0] = this->m_Data[i].OptionValue[0];

  00069	0f b6 50 01	 movzx	 edx, BYTE PTR [eax+1]
  0006d	88 55 f5	 mov	 BYTE PTR _pMsg$210119[ebp+5], dl

; 294  : 		pMsg.OptionValue[1] = this->m_Data[i].OptionValue[1];

  00070	0f b6 50 02	 movzx	 edx, BYTE PTR [eax+2]
  00074	88 55 f6	 mov	 BYTE PTR _pMsg$210119[ebp+6], dl

; 295  : 		pMsg.OptionValue[2] = this->m_Data[i].OptionValue[2];

  00077	0f b6 50 03	 movzx	 edx, BYTE PTR [eax+3]
  0007b	88 55 f7	 mov	 BYTE PTR _pMsg$210119[ebp+7], dl

; 296  : 		pMsg.OptionValue[3] = this->m_Data[i].OptionValue[3];

  0007e	0f b6 50 04	 movzx	 edx, BYTE PTR [eax+4]
  00082	88 55 f8	 mov	 BYTE PTR _pMsg$210119[ebp+8], dl

; 297  : 		pMsg.OptionValue[4] = this->m_Data[i].OptionValue[4];

  00085	0f b6 50 05	 movzx	 edx, BYTE PTR [eax+5]
  00089	88 55 f9	 mov	 BYTE PTR _pMsg$210119[ebp+9], dl

; 298  : 		pMsg.OptionValue[5] = this->m_Data[i].OptionValue[5];

  0008c	8a 40 06	 mov	 al, BYTE PTR [eax+6]

; 299  : 		DataSend(aUserIndex, (LPBYTE)&pMsg, pMsg.h.size);

  0008f	6a 0b		 push	 11			; 0000000bH
  00091	8d 55 f0	 lea	 edx, DWORD PTR _pMsg$210119[ebp]
  00094	52		 push	 edx
  00095	51		 push	 ecx
  00096	88 45 fa	 mov	 BYTE PTR _pMsg$210119[ebp+10], al
  00099	e8 00 00 00 00	 call	 ?DataSend@@YAHHPAEK@Z	; DataSend
  0009e	8b 4e 08	 mov	 ecx, DWORD PTR [esi+8]
  000a1	2b 4e 04	 sub	 ecx, DWORD PTR [esi+4]
  000a4	b8 93 24 49 92	 mov	 eax, -1840700269	; 92492493H
  000a9	f7 e9		 imul	 ecx
  000ab	03 d1		 add	 edx, ecx
  000ad	c1 fa 02	 sar	 edx, 2
  000b0	8b c2		 mov	 eax, edx
  000b2	c1 e8 1f	 shr	 eax, 31			; 0000001fH
  000b5	47		 inc	 edi
  000b6	03 c2		 add	 eax, edx
  000b8	83 c4 0c	 add	 esp, 12			; 0000000cH
  000bb	83 c3 07	 add	 ebx, 7
  000be	3b f8		 cmp	 edi, eax
  000c0	72 92		 jb	 SHORT $LL29@GCRankData
$LN30@GCRankData:
  000c2	5f		 pop	 edi
  000c3	5b		 pop	 ebx
$LN1@GCRankData:

; 300  : 	}
; 301  : }

  000c4	8b 4d fc	 mov	 ecx, DWORD PTR __$ArrayPad$[ebp]
  000c7	33 cd		 xor	 ecx, ebp
  000c9	5e		 pop	 esi
  000ca	e8 00 00 00 00	 call	 @__security_check_cookie@4
  000cf	8b e5		 mov	 esp, ebp
  000d1	5d		 pop	 ebp
  000d2	c2 04 00	 ret	 4
?GCRankData@ItemRank@@QAEXH@Z ENDP			; ItemRank::GCRankData
_TEXT	ENDS
PUBLIC	__$ArrayPad$
PUBLIC	?GCRankList@ItemRank@@QAEXH@Z			; ItemRank::GCRankList
; Function compile flags: /Ogtp
;	COMDAT ?GCRankList@ItemRank@@QAEXH@Z
_TEXT	SEGMENT
_pMsg$210131 = -16					; size = 10
__$ArrayPad$ = -4					; size = 4
_aUserIndex$ = 8					; size = 4
?GCRankList@ItemRank@@QAEXH@Z PROC			; ItemRank::GCRankList, COMDAT
; _this$ = ecx

; 304  : {

  00000	55		 push	 ebp
  00001	8b ec		 mov	 ebp, esp
  00003	83 ec 10	 sub	 esp, 16			; 00000010H
  00006	a1 00 00 00 00	 mov	 eax, DWORD PTR ___security_cookie
  0000b	33 c5		 xor	 eax, ebp
  0000d	89 45 fc	 mov	 DWORD PTR __$ArrayPad$[ebp], eax
  00010	56		 push	 esi
  00011	8b f1		 mov	 esi, ecx

; 305  : 	if(!OBJMAX_RANGE(aUserIndex))

  00013	8b 4d 08	 mov	 ecx, DWORD PTR _aUserIndex$[ebp]
  00016	85 c9		 test	 ecx, ecx
  00018	0f 88 82 00 00
	00		 js	 $LN1@GCRankList
  0001e	33 c0		 xor	 eax, eax
  00020	81 f9 97 3a 00
	00		 cmp	 ecx, 14999		; 00003a97H
  00026	0f 9e c0	 setle	 al
  00029	85 c0		 test	 eax, eax
  0002b	74 73		 je	 SHORT $LN1@GCRankList

; 306  : 	{
; 307  : 		return;
; 308  : 	}
; 309  : 
; 310  : 	for(int i = 0; i < this->m_ItemList.size(); i++)

  0002d	8b 56 18	 mov	 edx, DWORD PTR [esi+24]
  00030	2b 56 14	 sub	 edx, DWORD PTR [esi+20]
  00033	b8 ab aa aa 2a	 mov	 eax, 715827883		; 2aaaaaabH
  00038	f7 ea		 imul	 edx
  0003a	8b c2		 mov	 eax, edx
  0003c	57		 push	 edi
  0003d	c1 e8 1f	 shr	 eax, 31			; 0000001fH
  00040	33 ff		 xor	 edi, edi
  00042	03 c2		 add	 eax, edx
  00044	74 59		 je	 SHORT $LN22@GCRankList
  00046	53		 push	 ebx
  00047	33 db		 xor	 ebx, ebx
  00049	eb 08		 jmp	 SHORT $LN3@GCRankList
  0004b	eb 03 8d 49 00	 npad	 5
$LL21@GCRankList:
  00050	8b 4d 08	 mov	 ecx, DWORD PTR _aUserIndex$[ebp]
$LN3@GCRankList:

; 311  : 	{
; 312  : 		PMSG_LISTRANK pMsg;
; 313  : 		pMsg.h.set((LPBYTE)&pMsg, 0xFB, 0x53, sizeof(pMsg));
; 314  : 		pMsg.RankID = this->m_ItemList[i].RankID;

  00053	8b 46 14	 mov	 eax, DWORD PTR [esi+20]
  00056	c7 45 f0 c1 0a
	fb 53		 mov	 DWORD PTR _pMsg$210131[ebp], 1408961217 ; 53fb0ac1H
  0005d	8a 14 18	 mov	 dl, BYTE PTR [eax+ebx]
  00060	88 55 f4	 mov	 BYTE PTR _pMsg$210131[ebp+4], dl

; 315  : 		pMsg.ItemType = this->m_ItemList[i].ItemType;

  00063	66 8b 54 18 02	 mov	 dx, WORD PTR [eax+ebx+2]
  00068	66 89 55 f6	 mov	 WORD PTR _pMsg$210131[ebp+6], dx

; 316  : 		pMsg.MinLevel = this->m_ItemList[i].MinLevel;

  0006c	8a 44 18 04	 mov	 al, BYTE PTR [eax+ebx+4]

; 317  : 		DataSend(aUserIndex, (LPBYTE)&pMsg, pMsg.h.size);

  00070	6a 0a		 push	 10			; 0000000aH
  00072	8d 55 f0	 lea	 edx, DWORD PTR _pMsg$210131[ebp]
  00075	52		 push	 edx
  00076	51		 push	 ecx
  00077	88 45 f8	 mov	 BYTE PTR _pMsg$210131[ebp+8], al
  0007a	e8 00 00 00 00	 call	 ?DataSend@@YAHHPAEK@Z	; DataSend
  0007f	8b 4e 18	 mov	 ecx, DWORD PTR [esi+24]
  00082	2b 4e 14	 sub	 ecx, DWORD PTR [esi+20]
  00085	b8 ab aa aa 2a	 mov	 eax, 715827883		; 2aaaaaabH
  0008a	f7 e9		 imul	 ecx
  0008c	8b c2		 mov	 eax, edx
  0008e	c1 e8 1f	 shr	 eax, 31			; 0000001fH
  00091	47		 inc	 edi
  00092	03 c2		 add	 eax, edx
  00094	83 c4 0c	 add	 esp, 12			; 0000000cH
  00097	83 c3 06	 add	 ebx, 6
  0009a	3b f8		 cmp	 edi, eax
  0009c	72 b2		 jb	 SHORT $LL21@GCRankList
  0009e	5b		 pop	 ebx
$LN22@GCRankList:
  0009f	5f		 pop	 edi
$LN1@GCRankList:

; 318  : 	}
; 319  : }

  000a0	8b 4d fc	 mov	 ecx, DWORD PTR __$ArrayPad$[ebp]
  000a3	33 cd		 xor	 ecx, ebp
  000a5	5e		 pop	 esi
  000a6	e8 00 00 00 00	 call	 @__security_check_cookie@4
  000ab	8b e5		 mov	 esp, ebp
  000ad	5d		 pop	 ebp
  000ae	c2 04 00	 ret	 4
?GCRankList@ItemRank@@QAEXH@Z ENDP			; ItemRank::GCRankList
_TEXT	ENDS
PUBLIC	??0?$_Vector_val@UItemRank_Data@@V?$allocator@UItemRank_Data@@@std@@@std@@QAE@V?$allocator@UItemRank_Data@@@1@@Z ; std::_Vector_val<ItemRank_Data,std::allocator<ItemRank_Data> >::_Vector_val<ItemRank_Data,std::allocator<ItemRank_Data> >
; Function compile flags: /Ogtp
; File d:\program files (x86)\microsoft visual studio 10.0\vc\include\vector
;	COMDAT ??0?$_Vector_val@UItemRank_Data@@V?$allocator@UItemRank_Data@@@std@@@std@@QAE@V?$allocator@UItemRank_Data@@@1@@Z
_TEXT	SEGMENT
__Al$ = 8						; size = 1
??0?$_Vector_val@UItemRank_Data@@V?$allocator@UItemRank_Data@@@std@@@std@@QAE@V?$allocator@UItemRank_Data@@@1@@Z PROC ; std::_Vector_val<ItemRank_Data,std::allocator<ItemRank_Data> >::_Vector_val<ItemRank_Data,std::allocator<ItemRank_Data> >, COMDAT
; _this$ = ecx

; 426  : 		{	// construct allocator from _Al

  00000	8b c1		 mov	 eax, ecx

; 427  : 		_Myfirst = 0;

  00002	33 c9		 xor	 ecx, ecx
  00004	89 08		 mov	 DWORD PTR [eax], ecx

; 428  : 		_Mylast = 0;

  00006	89 48 04	 mov	 DWORD PTR [eax+4], ecx

; 429  : 		_Myend = 0;

  00009	89 48 08	 mov	 DWORD PTR [eax+8], ecx

; 430  : 		}

  0000c	c2 04 00	 ret	 4
??0?$_Vector_val@UItemRank_Data@@V?$allocator@UItemRank_Data@@@std@@@std@@QAE@V?$allocator@UItemRank_Data@@@1@@Z ENDP ; std::_Vector_val<ItemRank_Data,std::allocator<ItemRank_Data> >::_Vector_val<ItemRank_Data,std::allocator<ItemRank_Data> >
_TEXT	ENDS
PUBLIC	??0?$_Vector_val@UItemRank_List@@V?$allocator@UItemRank_List@@@std@@@std@@QAE@V?$allocator@UItemRank_List@@@1@@Z ; std::_Vector_val<ItemRank_List,std::allocator<ItemRank_List> >::_Vector_val<ItemRank_List,std::allocator<ItemRank_List> >
; Function compile flags: /Ogtp
;	COMDAT ??0?$_Vector_val@UItemRank_List@@V?$allocator@UItemRank_List@@@std@@@std@@QAE@V?$allocator@UItemRank_List@@@1@@Z
_TEXT	SEGMENT
__Al$ = 8						; size = 1
??0?$_Vector_val@UItemRank_List@@V?$allocator@UItemRank_List@@@std@@@std@@QAE@V?$allocator@UItemRank_List@@@1@@Z PROC ; std::_Vector_val<ItemRank_List,std::allocator<ItemRank_List> >::_Vector_val<ItemRank_List,std::allocator<ItemRank_List> >, COMDAT
; _this$ = ecx

; 426  : 		{	// construct allocator from _Al

  00000	8b c1		 mov	 eax, ecx

; 427  : 		_Myfirst = 0;

  00002	33 c9		 xor	 ecx, ecx
  00004	89 08		 mov	 DWORD PTR [eax], ecx

; 428  : 		_Mylast = 0;

  00006	89 48 04	 mov	 DWORD PTR [eax+4], ecx

; 429  : 		_Myend = 0;

  00009	89 48 08	 mov	 DWORD PTR [eax+8], ecx

; 430  : 		}

  0000c	c2 04 00	 ret	 4
??0?$_Vector_val@UItemRank_List@@V?$allocator@UItemRank_List@@@std@@@std@@QAE@V?$allocator@UItemRank_List@@@1@@Z ENDP ; std::_Vector_val<ItemRank_List,std::allocator<ItemRank_List> >::_Vector_val<ItemRank_List,std::allocator<ItemRank_List> >
_TEXT	ENDS
PUBLIC	?max_size@?$vector@UItemRank_Data@@V?$allocator@UItemRank_Data@@@std@@@std@@QBEIXZ ; std::vector<ItemRank_Data,std::allocator<ItemRank_Data> >::max_size
; Function compile flags: /Ogtp
;	COMDAT ?max_size@?$vector@UItemRank_Data@@V?$allocator@UItemRank_Data@@@std@@@std@@QBEIXZ
_TEXT	SEGMENT
?max_size@?$vector@UItemRank_Data@@V?$allocator@UItemRank_Data@@@std@@@std@@QBEIXZ PROC ; std::vector<ItemRank_Data,std::allocator<ItemRank_Data> >::max_size, COMDAT
; _this$ = ecx

; 884  : 		return (this->_Alval.max_size());

  00000	b8 24 49 92 24	 mov	 eax, 613566756		; 24924924H

; 885  : 		}

  00005	c3		 ret	 0
?max_size@?$vector@UItemRank_Data@@V?$allocator@UItemRank_Data@@@std@@@std@@QBEIXZ ENDP ; std::vector<ItemRank_Data,std::allocator<ItemRank_Data> >::max_size
_TEXT	ENDS
PUBLIC	?_Grow_to@?$vector@UItemRank_Data@@V?$allocator@UItemRank_Data@@@std@@@std@@IBEII@Z ; std::vector<ItemRank_Data,std::allocator<ItemRank_Data> >::_Grow_to
; Function compile flags: /Ogtp
;	COMDAT ?_Grow_to@?$vector@UItemRank_Data@@V?$allocator@UItemRank_Data@@@std@@@std@@IBEII@Z
_TEXT	SEGMENT
__Count$ = 8						; size = 4
?_Grow_to@?$vector@UItemRank_Data@@V?$allocator@UItemRank_Data@@@std@@@std@@IBEII@Z PROC ; std::vector<ItemRank_Data,std::allocator<ItemRank_Data> >::_Grow_to, COMDAT
; _this$ = ecx

; 1274 : 		{	// grow by 50% or at least to _Count

  00000	55		 push	 ebp
  00001	8b ec		 mov	 ebp, esp
  00003	56		 push	 esi

; 1275 : 		size_type _Capacity = capacity();

  00004	8b 71 08	 mov	 esi, DWORD PTR [ecx+8]
  00007	2b 31		 sub	 esi, DWORD PTR [ecx]
  00009	b8 93 24 49 92	 mov	 eax, -1840700269	; 92492493H
  0000e	f7 ee		 imul	 esi
  00010	03 d6		 add	 edx, esi
  00012	c1 fa 02	 sar	 edx, 2
  00015	8b c2		 mov	 eax, edx
  00017	c1 e8 1f	 shr	 eax, 31			; 0000001fH
  0001a	03 c2		 add	 eax, edx

; 1276 : 
; 1277 : 		_Capacity = max_size() - _Capacity / 2 < _Capacity
; 1278 : 			? 0 : _Capacity + _Capacity / 2;	// try to grow by 50%

  0001c	8b c8		 mov	 ecx, eax
  0001e	d1 e9		 shr	 ecx, 1
  00020	ba 24 49 92 24	 mov	 edx, 613566756		; 24924924H
  00025	2b d1		 sub	 edx, ecx
  00027	5e		 pop	 esi
  00028	3b d0		 cmp	 edx, eax
  0002a	73 04		 jae	 SHORT $LN4@Grow_to
  0002c	33 c0		 xor	 eax, eax
  0002e	eb 02		 jmp	 SHORT $LN5@Grow_to
$LN4@Grow_to:
  00030	03 c1		 add	 eax, ecx
$LN5@Grow_to:

; 1279 : 		if (_Capacity < _Count)

  00032	8b 4d 08	 mov	 ecx, DWORD PTR __Count$[ebp]
  00035	3b c1		 cmp	 eax, ecx
  00037	73 02		 jae	 SHORT $LN1@Grow_to

; 1280 : 			_Capacity = _Count;
; 1281 : 		return (_Capacity);

  00039	8b c1		 mov	 eax, ecx
$LN1@Grow_to:

; 1282 : 		}

  0003b	5d		 pop	 ebp
  0003c	c2 04 00	 ret	 4
?_Grow_to@?$vector@UItemRank_Data@@V?$allocator@UItemRank_Data@@@std@@@std@@IBEII@Z ENDP ; std::vector<ItemRank_Data,std::allocator<ItemRank_Data> >::_Grow_to
_TEXT	ENDS
PUBLIC	?max_size@?$vector@UItemRank_List@@V?$allocator@UItemRank_List@@@std@@@std@@QBEIXZ ; std::vector<ItemRank_List,std::allocator<ItemRank_List> >::max_size
; Function compile flags: /Ogtp
;	COMDAT ?max_size@?$vector@UItemRank_List@@V?$allocator@UItemRank_List@@@std@@@std@@QBEIXZ
_TEXT	SEGMENT
?max_size@?$vector@UItemRank_List@@V?$allocator@UItemRank_List@@@std@@@std@@QBEIXZ PROC ; std::vector<ItemRank_List,std::allocator<ItemRank_List> >::max_size, COMDAT
; _this$ = ecx

; 884  : 		return (this->_Alval.max_size());

  00000	b8 aa aa aa 2a	 mov	 eax, 715827882		; 2aaaaaaaH

; 885  : 		}

  00005	c3		 ret	 0
?max_size@?$vector@UItemRank_List@@V?$allocator@UItemRank_List@@@std@@@std@@QBEIXZ ENDP ; std::vector<ItemRank_List,std::allocator<ItemRank_List> >::max_size
_TEXT	ENDS
PUBLIC	?_Grow_to@?$vector@UItemRank_List@@V?$allocator@UItemRank_List@@@std@@@std@@IBEII@Z ; std::vector<ItemRank_List,std::allocator<ItemRank_List> >::_Grow_to
; Function compile flags: /Ogtp
;	COMDAT ?_Grow_to@?$vector@UItemRank_List@@V?$allocator@UItemRank_List@@@std@@@std@@IBEII@Z
_TEXT	SEGMENT
__Count$ = 8						; size = 4
?_Grow_to@?$vector@UItemRank_List@@V?$allocator@UItemRank_List@@@std@@@std@@IBEII@Z PROC ; std::vector<ItemRank_List,std::allocator<ItemRank_List> >::_Grow_to, COMDAT
; _this$ = ecx

; 1274 : 		{	// grow by 50% or at least to _Count

  00000	55		 push	 ebp
  00001	8b ec		 mov	 ebp, esp

; 1275 : 		size_type _Capacity = capacity();

  00003	8b 51 08	 mov	 edx, DWORD PTR [ecx+8]
  00006	2b 11		 sub	 edx, DWORD PTR [ecx]
  00008	b8 ab aa aa 2a	 mov	 eax, 715827883		; 2aaaaaabH
  0000d	f7 ea		 imul	 edx
  0000f	8b c2		 mov	 eax, edx
  00011	c1 e8 1f	 shr	 eax, 31			; 0000001fH
  00014	03 c2		 add	 eax, edx

; 1276 : 
; 1277 : 		_Capacity = max_size() - _Capacity / 2 < _Capacity
; 1278 : 			? 0 : _Capacity + _Capacity / 2;	// try to grow by 50%

  00016	8b c8		 mov	 ecx, eax
  00018	d1 e9		 shr	 ecx, 1
  0001a	ba aa aa aa 2a	 mov	 edx, 715827882		; 2aaaaaaaH
  0001f	2b d1		 sub	 edx, ecx
  00021	3b d0		 cmp	 edx, eax
  00023	73 04		 jae	 SHORT $LN4@Grow_to@2
  00025	33 c0		 xor	 eax, eax
  00027	eb 02		 jmp	 SHORT $LN5@Grow_to@2
$LN4@Grow_to@2:
  00029	03 c1		 add	 eax, ecx
$LN5@Grow_to@2:

; 1279 : 		if (_Capacity < _Count)

  0002b	8b 4d 08	 mov	 ecx, DWORD PTR __Count$[ebp]
  0002e	3b c1		 cmp	 eax, ecx
  00030	73 02		 jae	 SHORT $LN1@Grow_to@2

; 1280 : 			_Capacity = _Count;
; 1281 : 		return (_Capacity);

  00032	8b c1		 mov	 eax, ecx
$LN1@Grow_to@2:

; 1282 : 		}

  00034	5d		 pop	 ebp
  00035	c2 04 00	 ret	 4
?_Grow_to@?$vector@UItemRank_List@@V?$allocator@UItemRank_List@@@std@@@std@@IBEII@Z ENDP ; std::vector<ItemRank_List,std::allocator<ItemRank_List> >::_Grow_to
_TEXT	ENDS
PUBLIC	??0?$_Vector_const_iterator@V?$_Vector_val@UItemRank_Data@@V?$allocator@UItemRank_Data@@@std@@@std@@@std@@QAE@PAUItemRank_Data@@PBU_Container_base0@1@@Z ; std::_Vector_const_iterator<std::_Vector_val<ItemRank_Data,std::allocator<ItemRank_Data> > >::_Vector_const_iterator<std::_Vector_val<ItemRank_Data,std::allocator<ItemRank_Data> > >
; Function compile flags: /Ogtp
;	COMDAT ??0?$_Vector_const_iterator@V?$_Vector_val@UItemRank_Data@@V?$allocator@UItemRank_Data@@@std@@@std@@@std@@QAE@PAUItemRank_Data@@PBU_Container_base0@1@@Z
_TEXT	SEGMENT
__Parg$ = 8						; size = 4
__Pvector$ = 12						; size = 4
??0?$_Vector_const_iterator@V?$_Vector_val@UItemRank_Data@@V?$allocator@UItemRank_Data@@@std@@@std@@@std@@QAE@PAUItemRank_Data@@PBU_Container_base0@1@@Z PROC ; std::_Vector_const_iterator<std::_Vector_val<ItemRank_Data,std::allocator<ItemRank_Data> > >::_Vector_const_iterator<std::_Vector_val<ItemRank_Data,std::allocator<ItemRank_Data> > >, COMDAT
; _this$ = ecx

; 45   : 		{	// construct with pointer _Parg

  00000	55		 push	 ebp
  00001	8b ec		 mov	 ebp, esp
  00003	8b c1		 mov	 eax, ecx
  00005	8b 4d 08	 mov	 ecx, DWORD PTR __Parg$[ebp]
  00008	89 08		 mov	 DWORD PTR [eax], ecx

; 46   : 		this->_Adopt(_Pvector);
; 47   : 		}

  0000a	5d		 pop	 ebp
  0000b	c2 08 00	 ret	 8
??0?$_Vector_const_iterator@V?$_Vector_val@UItemRank_Data@@V?$allocator@UItemRank_Data@@@std@@@std@@@std@@QAE@PAUItemRank_Data@@PBU_Container_base0@1@@Z ENDP ; std::_Vector_const_iterator<std::_Vector_val<ItemRank_Data,std::allocator<ItemRank_Data> > >::_Vector_const_iterator<std::_Vector_val<ItemRank_Data,std::allocator<ItemRank_Data> > >
_TEXT	ENDS
PUBLIC	??8?$_Vector_const_iterator@V?$_Vector_val@UItemRank_Data@@V?$allocator@UItemRank_Data@@@std@@@std@@@std@@QBE_NABV01@@Z ; std::_Vector_const_iterator<std::_Vector_val<ItemRank_Data,std::allocator<ItemRank_Data> > >::operator==
; Function compile flags: /Ogtp
;	COMDAT ??8?$_Vector_const_iterator@V?$_Vector_val@UItemRank_Data@@V?$allocator@UItemRank_Data@@@std@@@std@@@std@@QBE_NABV01@@Z
_TEXT	SEGMENT
__Right$ = 8						; size = 4
??8?$_Vector_const_iterator@V?$_Vector_val@UItemRank_Data@@V?$allocator@UItemRank_Data@@@std@@@std@@@std@@QBE_NABV01@@Z PROC ; std::_Vector_const_iterator<std::_Vector_val<ItemRank_Data,std::allocator<ItemRank_Data> > >::operator==, COMDAT
; _this$ = ecx

; 201  : 		{	// test for iterator equality

  00000	55		 push	 ebp
  00001	8b ec		 mov	 ebp, esp

; 202  : 		_Compat(_Right);
; 203  : 		return (this->_Ptr == _Right._Ptr);

  00003	8b 01		 mov	 eax, DWORD PTR [ecx]
  00005	8b 55 08	 mov	 edx, DWORD PTR __Right$[ebp]
  00008	33 c9		 xor	 ecx, ecx
  0000a	3b 02		 cmp	 eax, DWORD PTR [edx]
  0000c	0f 94 c0	 sete	 al

; 204  : 		}

  0000f	5d		 pop	 ebp
  00010	c2 04 00	 ret	 4
??8?$_Vector_const_iterator@V?$_Vector_val@UItemRank_Data@@V?$allocator@UItemRank_Data@@@std@@@std@@@std@@QBE_NABV01@@Z ENDP ; std::_Vector_const_iterator<std::_Vector_val<ItemRank_Data,std::allocator<ItemRank_Data> > >::operator==
_TEXT	ENDS
PUBLIC	??0?$_Vector_const_iterator@V?$_Vector_val@UItemRank_List@@V?$allocator@UItemRank_List@@@std@@@std@@@std@@QAE@PAUItemRank_List@@PBU_Container_base0@1@@Z ; std::_Vector_const_iterator<std::_Vector_val<ItemRank_List,std::allocator<ItemRank_List> > >::_Vector_const_iterator<std::_Vector_val<ItemRank_List,std::allocator<ItemRank_List> > >
; Function compile flags: /Ogtp
;	COMDAT ??0?$_Vector_const_iterator@V?$_Vector_val@UItemRank_List@@V?$allocator@UItemRank_List@@@std@@@std@@@std@@QAE@PAUItemRank_List@@PBU_Container_base0@1@@Z
_TEXT	SEGMENT
__Parg$ = 8						; size = 4
__Pvector$ = 12						; size = 4
??0?$_Vector_const_iterator@V?$_Vector_val@UItemRank_List@@V?$allocator@UItemRank_List@@@std@@@std@@@std@@QAE@PAUItemRank_List@@PBU_Container_base0@1@@Z PROC ; std::_Vector_const_iterator<std::_Vector_val<ItemRank_List,std::allocator<ItemRank_List> > >::_Vector_const_iterator<std::_Vector_val<ItemRank_List,std::allocator<ItemRank_List> > >, COMDAT
; _this$ = ecx

; 45   : 		{	// construct with pointer _Parg

  00000	55		 push	 ebp
  00001	8b ec		 mov	 ebp, esp
  00003	8b c1		 mov	 eax, ecx
  00005	8b 4d 08	 mov	 ecx, DWORD PTR __Parg$[ebp]
  00008	89 08		 mov	 DWORD PTR [eax], ecx

; 46   : 		this->_Adopt(_Pvector);
; 47   : 		}

  0000a	5d		 pop	 ebp
  0000b	c2 08 00	 ret	 8
??0?$_Vector_const_iterator@V?$_Vector_val@UItemRank_List@@V?$allocator@UItemRank_List@@@std@@@std@@@std@@QAE@PAUItemRank_List@@PBU_Container_base0@1@@Z ENDP ; std::_Vector_const_iterator<std::_Vector_val<ItemRank_List,std::allocator<ItemRank_List> > >::_Vector_const_iterator<std::_Vector_val<ItemRank_List,std::allocator<ItemRank_List> > >
_TEXT	ENDS
PUBLIC	??8?$_Vector_const_iterator@V?$_Vector_val@UItemRank_List@@V?$allocator@UItemRank_List@@@std@@@std@@@std@@QBE_NABV01@@Z ; std::_Vector_const_iterator<std::_Vector_val<ItemRank_List,std::allocator<ItemRank_List> > >::operator==
; Function compile flags: /Ogtp
;	COMDAT ??8?$_Vector_const_iterator@V?$_Vector_val@UItemRank_List@@V?$allocator@UItemRank_List@@@std@@@std@@@std@@QBE_NABV01@@Z
_TEXT	SEGMENT
__Right$ = 8						; size = 4
??8?$_Vector_const_iterator@V?$_Vector_val@UItemRank_List@@V?$allocator@UItemRank_List@@@std@@@std@@@std@@QBE_NABV01@@Z PROC ; std::_Vector_const_iterator<std::_Vector_val<ItemRank_List,std::allocator<ItemRank_List> > >::operator==, COMDAT
; _this$ = ecx

; 201  : 		{	// test for iterator equality

  00000	55		 push	 ebp
  00001	8b ec		 mov	 ebp, esp

; 202  : 		_Compat(_Right);
; 203  : 		return (this->_Ptr == _Right._Ptr);

  00003	8b 01		 mov	 eax, DWORD PTR [ecx]
  00005	8b 55 08	 mov	 edx, DWORD PTR __Right$[ebp]
  00008	33 c9		 xor	 ecx, ecx
  0000a	3b 02		 cmp	 eax, DWORD PTR [edx]
  0000c	0f 94 c0	 sete	 al

; 204  : 		}

  0000f	5d		 pop	 ebp
  00010	c2 04 00	 ret	 4
??8?$_Vector_const_iterator@V?$_Vector_val@UItemRank_List@@V?$allocator@UItemRank_List@@@std@@@std@@@std@@QBE_NABV01@@Z ENDP ; std::_Vector_const_iterator<std::_Vector_val<ItemRank_List,std::allocator<ItemRank_List> > >::operator==
_TEXT	ENDS
PUBLIC	??$_Cons_val@V?$allocator@UItemRank_Data@@@std@@UItemRank_Data@@AAU3@@std@@YAXAAV?$allocator@UItemRank_Data@@@0@PAUItemRank_Data@@AAU2@@Z ; std::_Cons_val<std::allocator<ItemRank_Data>,ItemRank_Data,ItemRank_Data &>
; Function compile flags: /Ogtp
; File d:\program files (x86)\microsoft visual studio 10.0\vc\include\xmemory
;	COMDAT ??$_Cons_val@V?$allocator@UItemRank_Data@@@std@@UItemRank_Data@@AAU3@@std@@YAXAAV?$allocator@UItemRank_Data@@@0@PAUItemRank_Data@@AAU2@@Z
_TEXT	SEGMENT
__Alval$ = 8						; size = 4
__Pdest$ = 12						; size = 4
__Src$ = 16						; size = 4
??$_Cons_val@V?$allocator@UItemRank_Data@@@std@@UItemRank_Data@@AAU3@@std@@YAXAAV?$allocator@UItemRank_Data@@@0@PAUItemRank_Data@@AAU2@@Z PROC ; std::_Cons_val<std::allocator<ItemRank_Data>,ItemRank_Data,ItemRank_Data &>, COMDAT

; 279  : 	{	// construct using allocator

  00000	55		 push	 ebp
  00001	8b ec		 mov	 ebp, esp

; 280  : 	_Alval.construct(_Pdest, _STD forward<_Ty2>(_Src));

  00003	8b 45 0c	 mov	 eax, DWORD PTR __Pdest$[ebp]
  00006	85 c0		 test	 eax, eax
  00008	74 15		 je	 SHORT $LN7@Cons_val
  0000a	8b 4d 10	 mov	 ecx, DWORD PTR __Src$[ebp]
  0000d	8b 11		 mov	 edx, DWORD PTR [ecx]
  0000f	89 10		 mov	 DWORD PTR [eax], edx
  00011	66 8b 51 04	 mov	 dx, WORD PTR [ecx+4]
  00015	66 89 50 04	 mov	 WORD PTR [eax+4], dx
  00019	8a 49 06	 mov	 cl, BYTE PTR [ecx+6]
  0001c	88 48 06	 mov	 BYTE PTR [eax+6], cl
$LN7@Cons_val:

; 281  : 	}

  0001f	5d		 pop	 ebp
  00020	c3		 ret	 0
??$_Cons_val@V?$allocator@UItemRank_Data@@@std@@UItemRank_Data@@AAU3@@std@@YAXAAV?$allocator@UItemRank_Data@@@0@PAUItemRank_Data@@AAU2@@Z ENDP ; std::_Cons_val<std::allocator<ItemRank_Data>,ItemRank_Data,ItemRank_Data &>
_TEXT	ENDS
PUBLIC	??$_Cons_val@V?$allocator@UItemRank_List@@@std@@UItemRank_List@@AAU3@@std@@YAXAAV?$allocator@UItemRank_List@@@0@PAUItemRank_List@@AAU2@@Z ; std::_Cons_val<std::allocator<ItemRank_List>,ItemRank_List,ItemRank_List &>
; Function compile flags: /Ogtp
;	COMDAT ??$_Cons_val@V?$allocator@UItemRank_List@@@std@@UItemRank_List@@AAU3@@std@@YAXAAV?$allocator@UItemRank_List@@@0@PAUItemRank_List@@AAU2@@Z
_TEXT	SEGMENT
__Alval$ = 8						; size = 4
__Pdest$ = 12						; size = 4
__Src$ = 16						; size = 4
??$_Cons_val@V?$allocator@UItemRank_List@@@std@@UItemRank_List@@AAU3@@std@@YAXAAV?$allocator@UItemRank_List@@@0@PAUItemRank_List@@AAU2@@Z PROC ; std::_Cons_val<std::allocator<ItemRank_List>,ItemRank_List,ItemRank_List &>, COMDAT

; 279  : 	{	// construct using allocator

  00000	55		 push	 ebp
  00001	8b ec		 mov	 ebp, esp

; 280  : 	_Alval.construct(_Pdest, _STD forward<_Ty2>(_Src));

  00003	8b 45 0c	 mov	 eax, DWORD PTR __Pdest$[ebp]
  00006	85 c0		 test	 eax, eax
  00008	74 0f		 je	 SHORT $LN7@Cons_val@2
  0000a	8b 4d 10	 mov	 ecx, DWORD PTR __Src$[ebp]
  0000d	8b 11		 mov	 edx, DWORD PTR [ecx]
  0000f	89 10		 mov	 DWORD PTR [eax], edx
  00011	66 8b 49 04	 mov	 cx, WORD PTR [ecx+4]
  00015	66 89 48 04	 mov	 WORD PTR [eax+4], cx
$LN7@Cons_val@2:

; 281  : 	}

  00019	5d		 pop	 ebp
  0001a	c3		 ret	 0
??$_Cons_val@V?$allocator@UItemRank_List@@@std@@UItemRank_List@@AAU3@@std@@YAXAAV?$allocator@UItemRank_List@@@0@PAUItemRank_List@@AAU2@@Z ENDP ; std::_Cons_val<std::allocator<ItemRank_List>,ItemRank_List,ItemRank_List &>
_TEXT	ENDS
PUBLIC	__TI2?AVbad_alloc@std@@
PUBLIC	??$_Allocate@UItemRank_Data@@@std@@YAPAUItemRank_Data@@IPAU1@@Z ; std::_Allocate<ItemRank_Data>
PUBLIC	__CTA2?AVbad_alloc@std@@
PUBLIC	__CT??_R0?AVbad_alloc@std@@@8??0bad_alloc@std@@QAE@ABV01@@Z12
PUBLIC	??0bad_alloc@std@@QAE@ABV01@@Z			; std::bad_alloc::bad_alloc
PUBLIC	__CT??_R0?AVexception@std@@@8??0exception@std@@QAE@ABV01@@Z12
EXTRN	??2@YAPAXI@Z:PROC				; operator new
EXTRN	__CxxThrowException@8:PROC
EXTRN	??0exception@std@@QAE@ABV01@@Z:PROC		; std::exception::exception
;	COMDAT __CT??_R0?AVexception@std@@@8??0exception@std@@QAE@ABV01@@Z12
; File d:\program files (x86)\microsoft visual studio 10.0\vc\include\exception
xdata$x	SEGMENT
__CT??_R0?AVexception@std@@@8??0exception@std@@QAE@ABV01@@Z12 DD 00H
	DD	FLAT:??_R0?AVexception@std@@@8
	DD	00H
	DD	0ffffffffH
	ORG $+4
	DD	0cH
	DD	FLAT:??0exception@std@@QAE@ABV01@@Z
xdata$x	ENDS
;	COMDAT __CT??_R0?AVbad_alloc@std@@@8??0bad_alloc@std@@QAE@ABV01@@Z12
xdata$x	SEGMENT
__CT??_R0?AVbad_alloc@std@@@8??0bad_alloc@std@@QAE@ABV01@@Z12 DD 00H
	DD	FLAT:??_R0?AVbad_alloc@std@@@8
	DD	00H
	DD	0ffffffffH
	ORG $+4
	DD	0cH
	DD	FLAT:??0bad_alloc@std@@QAE@ABV01@@Z
xdata$x	ENDS
;	COMDAT __CTA2?AVbad_alloc@std@@
xdata$x	SEGMENT
__CTA2?AVbad_alloc@std@@ DD 02H
	DD	FLAT:__CT??_R0?AVbad_alloc@std@@@8??0bad_alloc@std@@QAE@ABV01@@Z12
	DD	FLAT:__CT??_R0?AVexception@std@@@8??0exception@std@@QAE@ABV01@@Z12
xdata$x	ENDS
;	COMDAT __TI2?AVbad_alloc@std@@
xdata$x	SEGMENT
__TI2?AVbad_alloc@std@@ DD 00H
	DD	FLAT:??1bad_alloc@std@@UAE@XZ
	DD	00H
	DD	FLAT:__CTA2?AVbad_alloc@std@@
; Function compile flags: /Ogtp
; File d:\program files (x86)\microsoft visual studio 10.0\vc\include\xmemory
xdata$x	ENDS
;	COMDAT ??$_Allocate@UItemRank_Data@@@std@@YAPAUItemRank_Data@@IPAU1@@Z
_TEXT	SEGMENT
$T212424 = -12						; size = 12
$T212429 = 8						; size = 4
__Count$ = 8						; size = 4
___formal$ = 12						; size = 4
??$_Allocate@UItemRank_Data@@@std@@YAPAUItemRank_Data@@IPAU1@@Z PROC ; std::_Allocate<ItemRank_Data>, COMDAT

; 30   : 	{	// allocate storage for _Count elements of type _Ty

  00000	55		 push	 ebp
  00001	8b ec		 mov	 ebp, esp

; 31   : 	void *_Ptr = 0;
; 32   : 
; 33   : 	if (_Count <= 0)

  00003	8b 4d 08	 mov	 ecx, DWORD PTR __Count$[ebp]
  00006	83 ec 0c	 sub	 esp, 12			; 0000000cH
  00009	33 c0		 xor	 eax, eax
  0000b	85 c9		 test	 ecx, ecx

; 34   : 		_Count = 0;
; 35   : 	else if (((_SIZT)(-1) / sizeof (_Ty) < _Count)

  0000d	74 46		 je	 SHORT $LN5@Allocate

; 36   : 		|| (_Ptr = ::operator new(_Count * sizeof (_Ty))) == 0)

  0000f	81 f9 24 49 92
	24		 cmp	 ecx, 613566756		; 24924924H
  00015	77 16		 ja	 SHORT $LN1@Allocate
  00017	8d 04 cd 00 00
	00 00		 lea	 eax, DWORD PTR [ecx*8]
  0001e	2b c1		 sub	 eax, ecx
  00020	50		 push	 eax
  00021	e8 00 00 00 00	 call	 ??2@YAPAXI@Z		; operator new
  00026	83 c4 04	 add	 esp, 4
  00029	85 c0		 test	 eax, eax

; 38   : 
; 39   : 	return ((_Ty _FARQ *)_Ptr);

  0002b	75 28		 jne	 SHORT $LN5@Allocate
$LN1@Allocate:

; 37   : 		_THROW_NCEE(bad_alloc, 0);

  0002d	8d 4d 08	 lea	 ecx, DWORD PTR $T212429[ebp]
  00030	51		 push	 ecx
  00031	8d 4d f4	 lea	 ecx, DWORD PTR $T212424[ebp]
  00034	c7 45 08 00 00
	00 00		 mov	 DWORD PTR $T212429[ebp], 0
  0003b	e8 00 00 00 00	 call	 ??0exception@std@@QAE@ABQBD@Z ; std::exception::exception
  00040	68 00 00 00 00	 push	 OFFSET __TI2?AVbad_alloc@std@@
  00045	8d 55 f4	 lea	 edx, DWORD PTR $T212424[ebp]
  00048	52		 push	 edx
  00049	c7 45 f4 00 00
	00 00		 mov	 DWORD PTR $T212424[ebp], OFFSET ??_7bad_alloc@std@@6B@
  00050	e8 00 00 00 00	 call	 __CxxThrowException@8
$LN10@Allocate:
$LN5@Allocate:

; 40   : 	}

  00055	8b e5		 mov	 esp, ebp
  00057	5d		 pop	 ebp
  00058	c3		 ret	 0
$LN9@Allocate:
??$_Allocate@UItemRank_Data@@@std@@YAPAUItemRank_Data@@IPAU1@@Z ENDP ; std::_Allocate<ItemRank_Data>
; Function compile flags: /Ogtp
_TEXT	ENDS
;	COMDAT ??0bad_alloc@std@@QAE@ABV01@@Z
_TEXT	SEGMENT
___that$ = 8						; size = 4
??0bad_alloc@std@@QAE@ABV01@@Z PROC			; std::bad_alloc::bad_alloc, COMDAT
; _this$ = ecx
  00000	55		 push	 ebp
  00001	8b ec		 mov	 ebp, esp
  00003	8b 45 08	 mov	 eax, DWORD PTR ___that$[ebp]
  00006	56		 push	 esi
  00007	50		 push	 eax
  00008	8b f1		 mov	 esi, ecx
  0000a	e8 00 00 00 00	 call	 ??0exception@std@@QAE@ABV01@@Z ; std::exception::exception
  0000f	c7 06 00 00 00
	00		 mov	 DWORD PTR [esi], OFFSET ??_7bad_alloc@std@@6B@
  00015	8b c6		 mov	 eax, esi
  00017	5e		 pop	 esi
  00018	5d		 pop	 ebp
  00019	c2 04 00	 ret	 4
??0bad_alloc@std@@QAE@ABV01@@Z ENDP			; std::bad_alloc::bad_alloc
_TEXT	ENDS
PUBLIC	??$_Allocate@UItemRank_List@@@std@@YAPAUItemRank_List@@IPAU1@@Z ; std::_Allocate<ItemRank_List>
; Function compile flags: /Ogtp
;	COMDAT ??$_Allocate@UItemRank_List@@@std@@YAPAUItemRank_List@@IPAU1@@Z
_TEXT	SEGMENT
$T212437 = -12						; size = 12
$T212441 = 8						; size = 4
__Count$ = 8						; size = 4
___formal$ = 12						; size = 4
??$_Allocate@UItemRank_List@@@std@@YAPAUItemRank_List@@IPAU1@@Z PROC ; std::_Allocate<ItemRank_List>, COMDAT

; 30   : 	{	// allocate storage for _Count elements of type _Ty

  00000	55		 push	 ebp
  00001	8b ec		 mov	 ebp, esp

; 31   : 	void *_Ptr = 0;
; 32   : 
; 33   : 	if (_Count <= 0)

  00003	8b 4d 08	 mov	 ecx, DWORD PTR __Count$[ebp]
  00006	83 ec 0c	 sub	 esp, 12			; 0000000cH
  00009	33 c0		 xor	 eax, eax
  0000b	85 c9		 test	 ecx, ecx

; 34   : 		_Count = 0;
; 35   : 	else if (((_SIZT)(-1) / sizeof (_Ty) < _Count)

  0000d	74 42		 je	 SHORT $LN5@Allocate@2

; 36   : 		|| (_Ptr = ::operator new(_Count * sizeof (_Ty))) == 0)

  0000f	81 f9 aa aa aa
	2a		 cmp	 ecx, 715827882		; 2aaaaaaaH
  00015	77 12		 ja	 SHORT $LN1@Allocate@2
  00017	8d 04 49	 lea	 eax, DWORD PTR [ecx+ecx*2]
  0001a	03 c0		 add	 eax, eax
  0001c	50		 push	 eax
  0001d	e8 00 00 00 00	 call	 ??2@YAPAXI@Z		; operator new
  00022	83 c4 04	 add	 esp, 4
  00025	85 c0		 test	 eax, eax

; 38   : 
; 39   : 	return ((_Ty _FARQ *)_Ptr);

  00027	75 28		 jne	 SHORT $LN5@Allocate@2
$LN1@Allocate@2:

; 37   : 		_THROW_NCEE(bad_alloc, 0);

  00029	8d 4d 08	 lea	 ecx, DWORD PTR $T212441[ebp]
  0002c	51		 push	 ecx
  0002d	8d 4d f4	 lea	 ecx, DWORD PTR $T212437[ebp]
  00030	c7 45 08 00 00
	00 00		 mov	 DWORD PTR $T212441[ebp], 0
  00037	e8 00 00 00 00	 call	 ??0exception@std@@QAE@ABQBD@Z ; std::exception::exception
  0003c	68 00 00 00 00	 push	 OFFSET __TI2?AVbad_alloc@std@@
  00041	8d 55 f4	 lea	 edx, DWORD PTR $T212437[ebp]
  00044	52		 push	 edx
  00045	c7 45 f4 00 00
	00 00		 mov	 DWORD PTR $T212437[ebp], OFFSET ??_7bad_alloc@std@@6B@
  0004c	e8 00 00 00 00	 call	 __CxxThrowException@8
$LN10@Allocate@2:
$LN5@Allocate@2:

; 40   : 	}

  00051	8b e5		 mov	 esp, ebp
  00053	5d		 pop	 ebp
  00054	c3		 ret	 0
$LN9@Allocate@2:
??$_Allocate@UItemRank_List@@@std@@YAPAUItemRank_List@@IPAU1@@Z ENDP ; std::_Allocate<ItemRank_List>
_TEXT	ENDS
PUBLIC	?construct@?$allocator@UItemRank_Data@@@std@@QAEXPAUItemRank_Data@@ABU3@@Z ; std::allocator<ItemRank_Data>::construct
; Function compile flags: /Ogtp
;	COMDAT ?construct@?$allocator@UItemRank_Data@@@std@@QAEXPAUItemRank_Data@@ABU3@@Z
_TEXT	SEGMENT
__Ptr$ = 8						; size = 4
__Val$ = 12						; size = 4
?construct@?$allocator@UItemRank_Data@@@std@@QAEXPAUItemRank_Data@@ABU3@@Z PROC ; std::allocator<ItemRank_Data>::construct, COMDAT
; _this$ = ecx

; 196  : 		{	// construct object at _Ptr with value _Val

  00000	55		 push	 ebp
  00001	8b ec		 mov	 ebp, esp

; 197  : 		_Construct(_Ptr, _Val);

  00003	8b 45 08	 mov	 eax, DWORD PTR __Ptr$[ebp]
  00006	85 c0		 test	 eax, eax
  00008	74 15		 je	 SHORT $LN5@construct@3
  0000a	8b 4d 0c	 mov	 ecx, DWORD PTR __Val$[ebp]
  0000d	8b 11		 mov	 edx, DWORD PTR [ecx]
  0000f	89 10		 mov	 DWORD PTR [eax], edx
  00011	66 8b 51 04	 mov	 dx, WORD PTR [ecx+4]
  00015	66 89 50 04	 mov	 WORD PTR [eax+4], dx
  00019	8a 49 06	 mov	 cl, BYTE PTR [ecx+6]
  0001c	88 48 06	 mov	 BYTE PTR [eax+6], cl
$LN5@construct@3:

; 198  : 		}

  0001f	5d		 pop	 ebp
  00020	c2 08 00	 ret	 8
?construct@?$allocator@UItemRank_Data@@@std@@QAEXPAUItemRank_Data@@ABU3@@Z ENDP ; std::allocator<ItemRank_Data>::construct
_TEXT	ENDS
PUBLIC	?construct@?$allocator@UItemRank_List@@@std@@QAEXPAUItemRank_List@@ABU3@@Z ; std::allocator<ItemRank_List>::construct
; Function compile flags: /Ogtp
;	COMDAT ?construct@?$allocator@UItemRank_List@@@std@@QAEXPAUItemRank_List@@ABU3@@Z
_TEXT	SEGMENT
__Ptr$ = 8						; size = 4
__Val$ = 12						; size = 4
?construct@?$allocator@UItemRank_List@@@std@@QAEXPAUItemRank_List@@ABU3@@Z PROC ; std::allocator<ItemRank_List>::construct, COMDAT
; _this$ = ecx

; 196  : 		{	// construct object at _Ptr with value _Val

  00000	55		 push	 ebp
  00001	8b ec		 mov	 ebp, esp

; 197  : 		_Construct(_Ptr, _Val);

  00003	8b 45 08	 mov	 eax, DWORD PTR __Ptr$[ebp]
  00006	85 c0		 test	 eax, eax
  00008	74 0f		 je	 SHORT $LN5@construct@4
  0000a	8b 4d 0c	 mov	 ecx, DWORD PTR __Val$[ebp]
  0000d	8b 11		 mov	 edx, DWORD PTR [ecx]
  0000f	89 10		 mov	 DWORD PTR [eax], edx
  00011	66 8b 49 04	 mov	 cx, WORD PTR [ecx+4]
  00015	66 89 48 04	 mov	 WORD PTR [eax+4], cx
$LN5@construct@4:

; 198  : 		}

  00019	5d		 pop	 ebp
  0001a	c2 08 00	 ret	 8
?construct@?$allocator@UItemRank_List@@@std@@QAEXPAUItemRank_List@@ABU3@@Z ENDP ; std::allocator<ItemRank_List>::construct
_TEXT	ENDS
PUBLIC	??$_Move@PAUItemRank_Data@@PAU1@@std@@YAPAUItemRank_Data@@PAU1@00U_Nonscalar_ptr_iterator_tag@0@@Z ; std::_Move<ItemRank_Data *,ItemRank_Data *>
; Function compile flags: /Ogtp
; File d:\program files (x86)\microsoft visual studio 10.0\vc\include\xutility
;	COMDAT ??$_Move@PAUItemRank_Data@@PAU1@@std@@YAPAUItemRank_Data@@PAU1@00U_Nonscalar_ptr_iterator_tag@0@@Z
_TEXT	SEGMENT
__First$ = 8						; size = 4
__Last$ = 12						; size = 4
__Dest$ = 16						; size = 4
___formal$ = 20						; size = 1
??$_Move@PAUItemRank_Data@@PAU1@@std@@YAPAUItemRank_Data@@PAU1@00U_Nonscalar_ptr_iterator_tag@0@@Z PROC ; std::_Move<ItemRank_Data *,ItemRank_Data *>, COMDAT

; 2512 : 	{	// move [_First, _Last) to [_Dest, ...), arbitrary iterators

  00000	55		 push	 ebp
  00001	8b ec		 mov	 ebp, esp

; 2513 : 	for (; _First != _Last; ++_Dest, ++_First)

  00003	8b 4d 08	 mov	 ecx, DWORD PTR __First$[ebp]
  00006	8b 45 10	 mov	 eax, DWORD PTR __Dest$[ebp]
  00009	56		 push	 esi
  0000a	8b 75 0c	 mov	 esi, DWORD PTR __Last$[ebp]
  0000d	3b ce		 cmp	 ecx, esi
  0000f	74 1c		 je	 SHORT $LN1@Move
$LL3@Move:

; 2514 : 		*_Dest = _STD move(*_First);

  00011	8b 11		 mov	 edx, DWORD PTR [ecx]
  00013	89 10		 mov	 DWORD PTR [eax], edx
  00015	66 8b 51 04	 mov	 dx, WORD PTR [ecx+4]
  00019	66 89 50 04	 mov	 WORD PTR [eax+4], dx
  0001d	8a 51 06	 mov	 dl, BYTE PTR [ecx+6]
  00020	88 50 06	 mov	 BYTE PTR [eax+6], dl
  00023	83 c1 07	 add	 ecx, 7
  00026	83 c0 07	 add	 eax, 7
  00029	3b ce		 cmp	 ecx, esi
  0002b	75 e4		 jne	 SHORT $LL3@Move
$LN1@Move:
  0002d	5e		 pop	 esi

; 2515 : 	return (_Dest);
; 2516 : 	}

  0002e	5d		 pop	 ebp
  0002f	c3		 ret	 0
??$_Move@PAUItemRank_Data@@PAU1@@std@@YAPAUItemRank_Data@@PAU1@00U_Nonscalar_ptr_iterator_tag@0@@Z ENDP ; std::_Move<ItemRank_Data *,ItemRank_Data *>
_TEXT	ENDS
PUBLIC	??$_Move@PAUItemRank_List@@PAU1@@std@@YAPAUItemRank_List@@PAU1@00U_Nonscalar_ptr_iterator_tag@0@@Z ; std::_Move<ItemRank_List *,ItemRank_List *>
; Function compile flags: /Ogtp
;	COMDAT ??$_Move@PAUItemRank_List@@PAU1@@std@@YAPAUItemRank_List@@PAU1@00U_Nonscalar_ptr_iterator_tag@0@@Z
_TEXT	SEGMENT
__First$ = 8						; size = 4
__Last$ = 12						; size = 4
__Dest$ = 16						; size = 4
___formal$ = 20						; size = 1
??$_Move@PAUItemRank_List@@PAU1@@std@@YAPAUItemRank_List@@PAU1@00U_Nonscalar_ptr_iterator_tag@0@@Z PROC ; std::_Move<ItemRank_List *,ItemRank_List *>, COMDAT

; 2512 : 	{	// move [_First, _Last) to [_Dest, ...), arbitrary iterators

  00000	55		 push	 ebp
  00001	8b ec		 mov	 ebp, esp

; 2513 : 	for (; _First != _Last; ++_Dest, ++_First)

  00003	8b 4d 08	 mov	 ecx, DWORD PTR __First$[ebp]
  00006	8b 55 0c	 mov	 edx, DWORD PTR __Last$[ebp]
  00009	8b 45 10	 mov	 eax, DWORD PTR __Dest$[ebp]
  0000c	3b ca		 cmp	 ecx, edx
  0000e	74 18		 je	 SHORT $LN1@Move@2
  00010	56		 push	 esi
$LL3@Move@2:

; 2514 : 		*_Dest = _STD move(*_First);

  00011	8b 31		 mov	 esi, DWORD PTR [ecx]
  00013	89 30		 mov	 DWORD PTR [eax], esi
  00015	66 8b 71 04	 mov	 si, WORD PTR [ecx+4]
  00019	66 89 70 04	 mov	 WORD PTR [eax+4], si
  0001d	83 c1 06	 add	 ecx, 6
  00020	83 c0 06	 add	 eax, 6
  00023	3b ca		 cmp	 ecx, edx
  00025	75 ea		 jne	 SHORT $LL3@Move@2
  00027	5e		 pop	 esi
$LN1@Move@2:

; 2515 : 	return (_Dest);
; 2516 : 	}

  00028	5d		 pop	 ebp
  00029	c3		 ret	 0
??$_Move@PAUItemRank_List@@PAU1@@std@@YAPAUItemRank_List@@PAU1@00U_Nonscalar_ptr_iterator_tag@0@@Z ENDP ; std::_Move<ItemRank_List *,ItemRank_List *>
_TEXT	ENDS
PUBLIC	?destroy@?$allocator@UItemRank_Data@@@std@@QAEXPAUItemRank_Data@@@Z ; std::allocator<ItemRank_Data>::destroy
; Function compile flags: /Ogtp
; File d:\program files (x86)\microsoft visual studio 10.0\vc\include\xmemory
;	COMDAT ?destroy@?$allocator@UItemRank_Data@@@std@@QAEXPAUItemRank_Data@@@Z
_TEXT	SEGMENT
__Ptr$ = 8						; size = 4
?destroy@?$allocator@UItemRank_Data@@@std@@QAEXPAUItemRank_Data@@@Z PROC ; std::allocator<ItemRank_Data>::destroy, COMDAT
; _this$ = ecx

; 213  : 		_Destroy(_Ptr);
; 214  : 		}

  00000	c2 04 00	 ret	 4
?destroy@?$allocator@UItemRank_Data@@@std@@QAEXPAUItemRank_Data@@@Z ENDP ; std::allocator<ItemRank_Data>::destroy
_TEXT	ENDS
PUBLIC	?destroy@?$allocator@UItemRank_List@@@std@@QAEXPAUItemRank_List@@@Z ; std::allocator<ItemRank_List>::destroy
; Function compile flags: /Ogtp
;	COMDAT ?destroy@?$allocator@UItemRank_List@@@std@@QAEXPAUItemRank_List@@@Z
_TEXT	SEGMENT
__Ptr$ = 8						; size = 4
?destroy@?$allocator@UItemRank_List@@@std@@QAEXPAUItemRank_List@@@Z PROC ; std::allocator<ItemRank_List>::destroy, COMDAT
; _this$ = ecx

; 213  : 		_Destroy(_Ptr);
; 214  : 		}

  00000	c2 04 00	 ret	 4
?destroy@?$allocator@UItemRank_List@@@std@@QAEXPAUItemRank_List@@@Z ENDP ; std::allocator<ItemRank_List>::destroy
_TEXT	ENDS
PUBLIC	?construct@?$allocator@UItemRank_Data@@@std@@QAEXPAUItemRank_Data@@$$QAU3@@Z ; std::allocator<ItemRank_Data>::construct
; Function compile flags: /Ogtp
;	COMDAT ?construct@?$allocator@UItemRank_Data@@@std@@QAEXPAUItemRank_Data@@$$QAU3@@Z
_TEXT	SEGMENT
__Ptr$ = 8						; size = 4
__Val$ = 12						; size = 4
?construct@?$allocator@UItemRank_Data@@@std@@QAEXPAUItemRank_Data@@$$QAU3@@Z PROC ; std::allocator<ItemRank_Data>::construct, COMDAT
; _this$ = ecx

; 201  : 		{	// construct object at _Ptr with value _Val

  00000	55		 push	 ebp
  00001	8b ec		 mov	 ebp, esp

; 202  : 		::new ((void _FARQ *)_Ptr) _Ty(_STD forward<_Ty>(_Val));

  00003	8b 45 08	 mov	 eax, DWORD PTR __Ptr$[ebp]
  00006	85 c0		 test	 eax, eax
  00008	74 15		 je	 SHORT $LN3@construct@5
  0000a	8b 4d 0c	 mov	 ecx, DWORD PTR __Val$[ebp]
  0000d	8b 11		 mov	 edx, DWORD PTR [ecx]
  0000f	89 10		 mov	 DWORD PTR [eax], edx
  00011	66 8b 51 04	 mov	 dx, WORD PTR [ecx+4]
  00015	66 89 50 04	 mov	 WORD PTR [eax+4], dx
  00019	8a 49 06	 mov	 cl, BYTE PTR [ecx+6]
  0001c	88 48 06	 mov	 BYTE PTR [eax+6], cl
$LN3@construct@5:

; 203  : 		}

  0001f	5d		 pop	 ebp
  00020	c2 08 00	 ret	 8
?construct@?$allocator@UItemRank_Data@@@std@@QAEXPAUItemRank_Data@@$$QAU3@@Z ENDP ; std::allocator<ItemRank_Data>::construct
_TEXT	ENDS
PUBLIC	?construct@?$allocator@UItemRank_List@@@std@@QAEXPAUItemRank_List@@$$QAU3@@Z ; std::allocator<ItemRank_List>::construct
; Function compile flags: /Ogtp
;	COMDAT ?construct@?$allocator@UItemRank_List@@@std@@QAEXPAUItemRank_List@@$$QAU3@@Z
_TEXT	SEGMENT
__Ptr$ = 8						; size = 4
__Val$ = 12						; size = 4
?construct@?$allocator@UItemRank_List@@@std@@QAEXPAUItemRank_List@@$$QAU3@@Z PROC ; std::allocator<ItemRank_List>::construct, COMDAT
; _this$ = ecx

; 201  : 		{	// construct object at _Ptr with value _Val

  00000	55		 push	 ebp
  00001	8b ec		 mov	 ebp, esp

; 202  : 		::new ((void _FARQ *)_Ptr) _Ty(_STD forward<_Ty>(_Val));

  00003	8b 45 08	 mov	 eax, DWORD PTR __Ptr$[ebp]
  00006	85 c0		 test	 eax, eax
  00008	74 0f		 je	 SHORT $LN3@construct@6
  0000a	8b 4d 0c	 mov	 ecx, DWORD PTR __Val$[ebp]
  0000d	8b 11		 mov	 edx, DWORD PTR [ecx]
  0000f	89 10		 mov	 DWORD PTR [eax], edx
  00011	66 8b 49 04	 mov	 cx, WORD PTR [ecx+4]
  00015	66 89 48 04	 mov	 WORD PTR [eax+4], cx
$LN3@construct@6:

; 203  : 		}

  00019	5d		 pop	 ebp
  0001a	c2 08 00	 ret	 8
?construct@?$allocator@UItemRank_List@@@std@@QAEXPAUItemRank_List@@$$QAU3@@Z ENDP ; std::allocator<ItemRank_List>::construct
_TEXT	ENDS
PUBLIC	?IsRankItem@ItemRank@@QAEHGE@Z			; ItemRank::IsRankItem
; Function compile flags: /Ogtp
; File e:\work\tranet_version\gs\gameserver\itemrank.cpp
;	COMDAT ?IsRankItem@ItemRank@@QAEHGE@Z
_TEXT	SEGMENT
_this$ = -12						; size = 4
_iID$ = -8						; size = 4
_iMaxLevel$ = -4					; size = 4
_ItemType$ = 8						; size = 2
_ItemLevel$ = 12					; size = 1
?IsRankItem@ItemRank@@QAEHGE@Z PROC			; ItemRank::IsRankItem, COMDAT
; _this$ = ecx

; 187  : {

  00000	55		 push	 ebp
  00001	8b ec		 mov	 ebp, esp
  00003	83 ec 0c	 sub	 esp, 12			; 0000000cH
  00006	53		 push	 ebx
  00007	8b d9		 mov	 ebx, ecx

; 189  : 	int iMaxLevel = 0;
; 190  : 
; 191  : 	for(int i = 0; i < this->m_ItemList.size(); i++)

  00009	8b 4b 18	 mov	 ecx, DWORD PTR [ebx+24]
  0000c	2b 4b 14	 sub	 ecx, DWORD PTR [ebx+20]
  0000f	b8 ab aa aa 2a	 mov	 eax, 715827883		; 2aaaaaabH
  00014	f7 e9		 imul	 ecx
  00016	56		 push	 esi
  00017	8b f2		 mov	 esi, edx
  00019	57		 push	 edi
  0001a	33 ff		 xor	 edi, edi
  0001c	c1 ee 1f	 shr	 esi, 31			; 0000001fH
  0001f	03 f2		 add	 esi, edx
  00021	89 5d f4	 mov	 DWORD PTR _this$[ebp], ebx
  00024	c7 45 f8 ff ff
	ff ff		 mov	 DWORD PTR _iID$[ebp], -1
  0002b	89 7d fc	 mov	 DWORD PTR _iMaxLevel$[ebp], edi
  0002e	74 43		 je	 SHORT $LN25@IsRankItem

; 188  : 	int iID = -1;

  00030	8b 5b 14	 mov	 ebx, DWORD PTR [ebx+20]
$LL8@IsRankItem:

; 192  : 	{
; 193  : 		if(this->m_ItemList[i].ItemType != ItemType)

  00033	66 8b 45 08	 mov	 ax, WORD PTR _ItemType$[ebp]
  00037	66 39 43 02	 cmp	 WORD PTR [ebx+2], ax
  0003b	75 26		 jne	 SHORT $LN7@IsRankItem

; 194  : 		{
; 195  : 			continue;
; 196  : 		}
; 197  : 
; 198  : 		if(!this->IsDataRank(this->m_ItemList[i].RankID)) 

  0003d	0f b6 0b	 movzx	 ecx, BYTE PTR [ebx]
  00040	51		 push	 ecx
  00041	8b 4d f4	 mov	 ecx, DWORD PTR _this$[ebp]
  00044	e8 00 00 00 00	 call	 ?IsDataRank@ItemRank@@QAE_NE@Z ; ItemRank::IsDataRank
  00049	84 c0		 test	 al, al
  0004b	74 16		 je	 SHORT $LN7@IsRankItem

; 199  : 		{
; 200  : 			continue;
; 201  : 		}
; 202  : 
; 203  : 		if(this->m_ItemList[i].MinLevel > ItemLevel)

  0004d	8a 43 04	 mov	 al, BYTE PTR [ebx+4]
  00050	3a 45 0c	 cmp	 al, BYTE PTR _ItemLevel$[ebp]
  00053	77 0e		 ja	 SHORT $LN7@IsRankItem

; 204  : 		{
; 205  : 			continue;
; 206  : 		}
; 207  : 
; 208  : 		if(this->m_ItemList[i].MinLevel >= iMaxLevel)

  00055	0f b6 c0	 movzx	 eax, al
  00058	3b 45 fc	 cmp	 eax, DWORD PTR _iMaxLevel$[ebp]
  0005b	7c 06		 jl	 SHORT $LN7@IsRankItem

; 209  : 		{
; 210  : 			iMaxLevel = this->m_ItemList[i].MinLevel;

  0005d	89 45 fc	 mov	 DWORD PTR _iMaxLevel$[ebp], eax

; 211  : 			iID = i;

  00060	89 7d f8	 mov	 DWORD PTR _iID$[ebp], edi
$LN7@IsRankItem:

; 189  : 	int iMaxLevel = 0;
; 190  : 
; 191  : 	for(int i = 0; i < this->m_ItemList.size(); i++)

  00063	47		 inc	 edi
  00064	83 c3 06	 add	 ebx, 6
  00067	3b fe		 cmp	 edi, esi
  00069	72 c8		 jb	 SHORT $LL8@IsRankItem

; 212  : 		}
; 213  : 	}
; 214  : 
; 215  : 	if(iID == -1)

  0006b	8b 45 f8	 mov	 eax, DWORD PTR _iID$[ebp]
  0006e	83 f8 ff	 cmp	 eax, -1
  00071	75 03		 jne	 SHORT $LN9@IsRankItem
$LN25@IsRankItem:

; 216  : 	{
; 217  : 		return -1;

  00073	83 c8 ff	 or	 eax, -1
$LN9@IsRankItem:
  00076	5f		 pop	 edi
  00077	5e		 pop	 esi
  00078	5b		 pop	 ebx

; 218  : 	}
; 219  : 
; 220  : 	return iID;
; 221  : }

  00079	8b e5		 mov	 esp, ebp
  0007b	5d		 pop	 ebp
  0007c	c2 08 00	 ret	 8
?IsRankItem@ItemRank@@QAEHGE@Z ENDP			; ItemRank::IsRankItem
_TEXT	ENDS
PUBLIC	??0?$vector@UItemRank_Data@@V?$allocator@UItemRank_Data@@@std@@@std@@QAE@XZ ; std::vector<ItemRank_Data,std::allocator<ItemRank_Data> >::vector<ItemRank_Data,std::allocator<ItemRank_Data> >
; Function compile flags: /Ogtp
; File d:\program files (x86)\microsoft visual studio 10.0\vc\include\vector
;	COMDAT ??0?$vector@UItemRank_Data@@V?$allocator@UItemRank_Data@@@std@@@std@@QAE@XZ
_TEXT	SEGMENT
??0?$vector@UItemRank_Data@@V?$allocator@UItemRank_Data@@@std@@@std@@QAE@XZ PROC ; std::vector<ItemRank_Data,std::allocator<ItemRank_Data> >::vector<ItemRank_Data,std::allocator<ItemRank_Data> >, COMDAT
; _this$ = ecx

; 507  : 		{	// construct empty vector

  00000	8b c1		 mov	 eax, ecx
  00002	33 c9		 xor	 ecx, ecx
  00004	89 08		 mov	 DWORD PTR [eax], ecx
  00006	89 48 04	 mov	 DWORD PTR [eax+4], ecx
  00009	89 48 08	 mov	 DWORD PTR [eax+8], ecx

; 508  : 		}

  0000c	c3		 ret	 0
??0?$vector@UItemRank_Data@@V?$allocator@UItemRank_Data@@@std@@@std@@QAE@XZ ENDP ; std::vector<ItemRank_Data,std::allocator<ItemRank_Data> >::vector<ItemRank_Data,std::allocator<ItemRank_Data> >
_TEXT	ENDS
PUBLIC	??0?$vector@UItemRank_List@@V?$allocator@UItemRank_List@@@std@@@std@@QAE@XZ ; std::vector<ItemRank_List,std::allocator<ItemRank_List> >::vector<ItemRank_List,std::allocator<ItemRank_List> >
; Function compile flags: /Ogtp
;	COMDAT ??0?$vector@UItemRank_List@@V?$allocator@UItemRank_List@@@std@@@std@@QAE@XZ
_TEXT	SEGMENT
??0?$vector@UItemRank_List@@V?$allocator@UItemRank_List@@@std@@@std@@QAE@XZ PROC ; std::vector<ItemRank_List,std::allocator<ItemRank_List> >::vector<ItemRank_List,std::allocator<ItemRank_List> >, COMDAT
; _this$ = ecx

; 507  : 		{	// construct empty vector

  00000	8b c1		 mov	 eax, ecx
  00002	33 c9		 xor	 ecx, ecx
  00004	89 08		 mov	 DWORD PTR [eax], ecx
  00006	89 48 04	 mov	 DWORD PTR [eax+4], ecx
  00009	89 48 08	 mov	 DWORD PTR [eax+8], ecx

; 508  : 		}

  0000c	c3		 ret	 0
??0?$vector@UItemRank_List@@V?$allocator@UItemRank_List@@@std@@@std@@QAE@XZ ENDP ; std::vector<ItemRank_List,std::allocator<ItemRank_List> >::vector<ItemRank_List,std::allocator<ItemRank_List> >
_TEXT	ENDS
PUBLIC	??0?$_Vector_iterator@V?$_Vector_val@UItemRank_Data@@V?$allocator@UItemRank_Data@@@std@@@std@@@std@@QAE@PAUItemRank_Data@@PBU_Container_base0@1@@Z ; std::_Vector_iterator<std::_Vector_val<ItemRank_Data,std::allocator<ItemRank_Data> > >::_Vector_iterator<std::_Vector_val<ItemRank_Data,std::allocator<ItemRank_Data> > >
; Function compile flags: /Ogtp
;	COMDAT ??0?$_Vector_iterator@V?$_Vector_val@UItemRank_Data@@V?$allocator@UItemRank_Data@@@std@@@std@@@std@@QAE@PAUItemRank_Data@@PBU_Container_base0@1@@Z
_TEXT	SEGMENT
__Parg$ = 8						; size = 4
__Pvector$ = 12						; size = 4
??0?$_Vector_iterator@V?$_Vector_val@UItemRank_Data@@V?$allocator@UItemRank_Data@@@std@@@std@@@std@@QAE@PAUItemRank_Data@@PBU_Container_base0@1@@Z PROC ; std::_Vector_iterator<std::_Vector_val<ItemRank_Data,std::allocator<ItemRank_Data> > >::_Vector_iterator<std::_Vector_val<ItemRank_Data,std::allocator<ItemRank_Data> > >, COMDAT
; _this$ = ecx

; 304  : 		{	// construct with pointer _Parg

  00000	55		 push	 ebp
  00001	8b ec		 mov	 ebp, esp
  00003	8b c1		 mov	 eax, ecx
  00005	8b 4d 08	 mov	 ecx, DWORD PTR __Parg$[ebp]
  00008	89 08		 mov	 DWORD PTR [eax], ecx

; 305  : 		}

  0000a	5d		 pop	 ebp
  0000b	c2 08 00	 ret	 8
??0?$_Vector_iterator@V?$_Vector_val@UItemRank_Data@@V?$allocator@UItemRank_Data@@@std@@@std@@@std@@QAE@PAUItemRank_Data@@PBU_Container_base0@1@@Z ENDP ; std::_Vector_iterator<std::_Vector_val<ItemRank_Data,std::allocator<ItemRank_Data> > >::_Vector_iterator<std::_Vector_val<ItemRank_Data,std::allocator<ItemRank_Data> > >
_TEXT	ENDS
PUBLIC	??9?$_Vector_const_iterator@V?$_Vector_val@UItemRank_Data@@V?$allocator@UItemRank_Data@@@std@@@std@@@std@@QBE_NABV01@@Z ; std::_Vector_const_iterator<std::_Vector_val<ItemRank_Data,std::allocator<ItemRank_Data> > >::operator!=
; Function compile flags: /Ogtp
;	COMDAT ??9?$_Vector_const_iterator@V?$_Vector_val@UItemRank_Data@@V?$allocator@UItemRank_Data@@@std@@@std@@@std@@QBE_NABV01@@Z
_TEXT	SEGMENT
__Right$ = 8						; size = 4
??9?$_Vector_const_iterator@V?$_Vector_val@UItemRank_Data@@V?$allocator@UItemRank_Data@@@std@@@std@@@std@@QBE_NABV01@@Z PROC ; std::_Vector_const_iterator<std::_Vector_val<ItemRank_Data,std::allocator<ItemRank_Data> > >::operator!=, COMDAT
; _this$ = ecx

; 207  : 		{	// test for iterator inequality

  00000	55		 push	 ebp
  00001	8b ec		 mov	 ebp, esp

; 208  : 		return (!(*this == _Right));

  00003	8b 01		 mov	 eax, DWORD PTR [ecx]
  00005	8b 55 08	 mov	 edx, DWORD PTR __Right$[ebp]
  00008	33 c9		 xor	 ecx, ecx
  0000a	3b 02		 cmp	 eax, DWORD PTR [edx]
  0000c	0f 95 c0	 setne	 al

; 209  : 		}

  0000f	5d		 pop	 ebp
  00010	c2 04 00	 ret	 4
??9?$_Vector_const_iterator@V?$_Vector_val@UItemRank_Data@@V?$allocator@UItemRank_Data@@@std@@@std@@@std@@QBE_NABV01@@Z ENDP ; std::_Vector_const_iterator<std::_Vector_val<ItemRank_Data,std::allocator<ItemRank_Data> > >::operator!=
_TEXT	ENDS
PUBLIC	??0?$_Vector_iterator@V?$_Vector_val@UItemRank_List@@V?$allocator@UItemRank_List@@@std@@@std@@@std@@QAE@PAUItemRank_List@@PBU_Container_base0@1@@Z ; std::_Vector_iterator<std::_Vector_val<ItemRank_List,std::allocator<ItemRank_List> > >::_Vector_iterator<std::_Vector_val<ItemRank_List,std::allocator<ItemRank_List> > >
; Function compile flags: /Ogtp
;	COMDAT ??0?$_Vector_iterator@V?$_Vector_val@UItemRank_List@@V?$allocator@UItemRank_List@@@std@@@std@@@std@@QAE@PAUItemRank_List@@PBU_Container_base0@1@@Z
_TEXT	SEGMENT
__Parg$ = 8						; size = 4
__Pvector$ = 12						; size = 4
??0?$_Vector_iterator@V?$_Vector_val@UItemRank_List@@V?$allocator@UItemRank_List@@@std@@@std@@@std@@QAE@PAUItemRank_List@@PBU_Container_base0@1@@Z PROC ; std::_Vector_iterator<std::_Vector_val<ItemRank_List,std::allocator<ItemRank_List> > >::_Vector_iterator<std::_Vector_val<ItemRank_List,std::allocator<ItemRank_List> > >, COMDAT
; _this$ = ecx

; 304  : 		{	// construct with pointer _Parg

  00000	55		 push	 ebp
  00001	8b ec		 mov	 ebp, esp
  00003	8b c1		 mov	 eax, ecx
  00005	8b 4d 08	 mov	 ecx, DWORD PTR __Parg$[ebp]
  00008	89 08		 mov	 DWORD PTR [eax], ecx

; 305  : 		}

  0000a	5d		 pop	 ebp
  0000b	c2 08 00	 ret	 8
??0?$_Vector_iterator@V?$_Vector_val@UItemRank_List@@V?$allocator@UItemRank_List@@@std@@@std@@@std@@QAE@PAUItemRank_List@@PBU_Container_base0@1@@Z ENDP ; std::_Vector_iterator<std::_Vector_val<ItemRank_List,std::allocator<ItemRank_List> > >::_Vector_iterator<std::_Vector_val<ItemRank_List,std::allocator<ItemRank_List> > >
_TEXT	ENDS
PUBLIC	??9?$_Vector_const_iterator@V?$_Vector_val@UItemRank_List@@V?$allocator@UItemRank_List@@@std@@@std@@@std@@QBE_NABV01@@Z ; std::_Vector_const_iterator<std::_Vector_val<ItemRank_List,std::allocator<ItemRank_List> > >::operator!=
; Function compile flags: /Ogtp
;	COMDAT ??9?$_Vector_const_iterator@V?$_Vector_val@UItemRank_List@@V?$allocator@UItemRank_List@@@std@@@std@@@std@@QBE_NABV01@@Z
_TEXT	SEGMENT
__Right$ = 8						; size = 4
??9?$_Vector_const_iterator@V?$_Vector_val@UItemRank_List@@V?$allocator@UItemRank_List@@@std@@@std@@@std@@QBE_NABV01@@Z PROC ; std::_Vector_const_iterator<std::_Vector_val<ItemRank_List,std::allocator<ItemRank_List> > >::operator!=, COMDAT
; _this$ = ecx

; 207  : 		{	// test for iterator inequality

  00000	55		 push	 ebp
  00001	8b ec		 mov	 ebp, esp

; 208  : 		return (!(*this == _Right));

  00003	8b 01		 mov	 eax, DWORD PTR [ecx]
  00005	8b 55 08	 mov	 edx, DWORD PTR __Right$[ebp]
  00008	33 c9		 xor	 ecx, ecx
  0000a	3b 02		 cmp	 eax, DWORD PTR [edx]
  0000c	0f 95 c0	 setne	 al

; 209  : 		}

  0000f	5d		 pop	 ebp
  00010	c2 04 00	 ret	 4
??9?$_Vector_const_iterator@V?$_Vector_val@UItemRank_List@@V?$allocator@UItemRank_List@@@std@@@std@@@std@@QBE_NABV01@@Z ENDP ; std::_Vector_const_iterator<std::_Vector_val<ItemRank_List,std::allocator<ItemRank_List> > >::operator!=
_TEXT	ENDS
PUBLIC	?allocate@?$allocator@UItemRank_Data@@@std@@QAEPAUItemRank_Data@@I@Z ; std::allocator<ItemRank_Data>::allocate
; Function compile flags: /Ogtp
; File d:\program files (x86)\microsoft visual studio 10.0\vc\include\xmemory
;	COMDAT ?allocate@?$allocator@UItemRank_Data@@@std@@QAEPAUItemRank_Data@@I@Z
_TEXT	SEGMENT
$T212659 = -12						; size = 12
$T212651 = 8						; size = 4
__Count$ = 8						; size = 4
?allocate@?$allocator@UItemRank_Data@@@std@@QAEPAUItemRank_Data@@I@Z PROC ; std::allocator<ItemRank_Data>::allocate, COMDAT
; _this$ = ecx

; 186  : 		{	// allocate array of _Count elements

  00000	55		 push	 ebp
  00001	8b ec		 mov	 ebp, esp

; 187  : 		return (_Allocate(_Count, (pointer)0));

  00003	8b 4d 08	 mov	 ecx, DWORD PTR __Count$[ebp]
  00006	83 ec 0c	 sub	 esp, 12			; 0000000cH
  00009	33 c0		 xor	 eax, eax
  0000b	85 c9		 test	 ecx, ecx
  0000d	74 46		 je	 SHORT $LN1@allocate
  0000f	81 f9 24 49 92
	24		 cmp	 ecx, 613566756		; 24924924H
  00015	77 16		 ja	 SHORT $LN3@allocate
  00017	8d 04 cd 00 00
	00 00		 lea	 eax, DWORD PTR [ecx*8]
  0001e	2b c1		 sub	 eax, ecx
  00020	50		 push	 eax
  00021	e8 00 00 00 00	 call	 ??2@YAPAXI@Z		; operator new
  00026	83 c4 04	 add	 esp, 4
  00029	85 c0		 test	 eax, eax
  0002b	75 28		 jne	 SHORT $LN1@allocate
$LN3@allocate:
  0002d	8d 4d 08	 lea	 ecx, DWORD PTR $T212651[ebp]
  00030	51		 push	 ecx
  00031	8d 4d f4	 lea	 ecx, DWORD PTR $T212659[ebp]
  00034	c7 45 08 00 00
	00 00		 mov	 DWORD PTR $T212651[ebp], 0
  0003b	e8 00 00 00 00	 call	 ??0exception@std@@QAE@ABQBD@Z ; std::exception::exception
  00040	68 00 00 00 00	 push	 OFFSET __TI2?AVbad_alloc@std@@
  00045	8d 55 f4	 lea	 edx, DWORD PTR $T212659[ebp]
  00048	52		 push	 edx
  00049	c7 45 f4 00 00
	00 00		 mov	 DWORD PTR $T212659[ebp], OFFSET ??_7bad_alloc@std@@6B@
  00050	e8 00 00 00 00	 call	 __CxxThrowException@8
$LN13@allocate:
$LN1@allocate:

; 188  : 		}

  00055	8b e5		 mov	 esp, ebp
  00057	5d		 pop	 ebp
  00058	c2 04 00	 ret	 4
$LN12@allocate:
?allocate@?$allocator@UItemRank_Data@@@std@@QAEPAUItemRank_Data@@I@Z ENDP ; std::allocator<ItemRank_Data>::allocate
_TEXT	ENDS
PUBLIC	?allocate@?$allocator@UItemRank_List@@@std@@QAEPAUItemRank_List@@I@Z ; std::allocator<ItemRank_List>::allocate
; Function compile flags: /Ogtp
;	COMDAT ?allocate@?$allocator@UItemRank_List@@@std@@QAEPAUItemRank_List@@I@Z
_TEXT	SEGMENT
$T212682 = -12						; size = 12
$T212674 = 8						; size = 4
__Count$ = 8						; size = 4
?allocate@?$allocator@UItemRank_List@@@std@@QAEPAUItemRank_List@@I@Z PROC ; std::allocator<ItemRank_List>::allocate, COMDAT
; _this$ = ecx

; 186  : 		{	// allocate array of _Count elements

  00000	55		 push	 ebp
  00001	8b ec		 mov	 ebp, esp

; 187  : 		return (_Allocate(_Count, (pointer)0));

  00003	8b 4d 08	 mov	 ecx, DWORD PTR __Count$[ebp]
  00006	83 ec 0c	 sub	 esp, 12			; 0000000cH
  00009	33 c0		 xor	 eax, eax
  0000b	85 c9		 test	 ecx, ecx
  0000d	74 42		 je	 SHORT $LN1@allocate@2
  0000f	81 f9 aa aa aa
	2a		 cmp	 ecx, 715827882		; 2aaaaaaaH
  00015	77 12		 ja	 SHORT $LN3@allocate@2
  00017	8d 04 49	 lea	 eax, DWORD PTR [ecx+ecx*2]
  0001a	03 c0		 add	 eax, eax
  0001c	50		 push	 eax
  0001d	e8 00 00 00 00	 call	 ??2@YAPAXI@Z		; operator new
  00022	83 c4 04	 add	 esp, 4
  00025	85 c0		 test	 eax, eax
  00027	75 28		 jne	 SHORT $LN1@allocate@2
$LN3@allocate@2:
  00029	8d 4d 08	 lea	 ecx, DWORD PTR $T212674[ebp]
  0002c	51		 push	 ecx
  0002d	8d 4d f4	 lea	 ecx, DWORD PTR $T212682[ebp]
  00030	c7 45 08 00 00
	00 00		 mov	 DWORD PTR $T212674[ebp], 0
  00037	e8 00 00 00 00	 call	 ??0exception@std@@QAE@ABQBD@Z ; std::exception::exception
  0003c	68 00 00 00 00	 push	 OFFSET __TI2?AVbad_alloc@std@@
  00041	8d 55 f4	 lea	 edx, DWORD PTR $T212682[ebp]
  00044	52		 push	 edx
  00045	c7 45 f4 00 00
	00 00		 mov	 DWORD PTR $T212682[ebp], OFFSET ??_7bad_alloc@std@@6B@
  0004c	e8 00 00 00 00	 call	 __CxxThrowException@8
$LN13@allocate@2:
$LN1@allocate@2:

; 188  : 		}

  00051	8b e5		 mov	 esp, ebp
  00053	5d		 pop	 ebp
  00054	c2 04 00	 ret	 4
$LN12@allocate@2:
?allocate@?$allocator@UItemRank_List@@@std@@QAEPAUItemRank_List@@I@Z ENDP ; std::allocator<ItemRank_List>::allocate
_TEXT	ENDS
PUBLIC	??$_Cons_val@V?$allocator@UItemRank_Data@@@std@@UItemRank_Data@@ABU3@@std@@YAXAAV?$allocator@UItemRank_Data@@@0@PAUItemRank_Data@@ABU2@@Z ; std::_Cons_val<std::allocator<ItemRank_Data>,ItemRank_Data,ItemRank_Data const &>
; Function compile flags: /Ogtp
;	COMDAT ??$_Cons_val@V?$allocator@UItemRank_Data@@@std@@UItemRank_Data@@ABU3@@std@@YAXAAV?$allocator@UItemRank_Data@@@0@PAUItemRank_Data@@ABU2@@Z
_TEXT	SEGMENT
__Alval$ = 8						; size = 4
__Pdest$ = 12						; size = 4
__Src$ = 16						; size = 4
??$_Cons_val@V?$allocator@UItemRank_Data@@@std@@UItemRank_Data@@ABU3@@std@@YAXAAV?$allocator@UItemRank_Data@@@0@PAUItemRank_Data@@ABU2@@Z PROC ; std::_Cons_val<std::allocator<ItemRank_Data>,ItemRank_Data,ItemRank_Data const &>, COMDAT

; 279  : 	{	// construct using allocator

  00000	55		 push	 ebp
  00001	8b ec		 mov	 ebp, esp

; 280  : 	_Alval.construct(_Pdest, _STD forward<_Ty2>(_Src));

  00003	8b 45 0c	 mov	 eax, DWORD PTR __Pdest$[ebp]
  00006	85 c0		 test	 eax, eax
  00008	74 15		 je	 SHORT $LN9@Cons_val@3
  0000a	8b 4d 10	 mov	 ecx, DWORD PTR __Src$[ebp]
  0000d	8b 11		 mov	 edx, DWORD PTR [ecx]
  0000f	89 10		 mov	 DWORD PTR [eax], edx
  00011	66 8b 51 04	 mov	 dx, WORD PTR [ecx+4]
  00015	66 89 50 04	 mov	 WORD PTR [eax+4], dx
  00019	8a 49 06	 mov	 cl, BYTE PTR [ecx+6]
  0001c	88 48 06	 mov	 BYTE PTR [eax+6], cl
$LN9@Cons_val@3:

; 281  : 	}

  0001f	5d		 pop	 ebp
  00020	c3		 ret	 0
??$_Cons_val@V?$allocator@UItemRank_Data@@@std@@UItemRank_Data@@ABU3@@std@@YAXAAV?$allocator@UItemRank_Data@@@0@PAUItemRank_Data@@ABU2@@Z ENDP ; std::_Cons_val<std::allocator<ItemRank_Data>,ItemRank_Data,ItemRank_Data const &>
_TEXT	ENDS
PUBLIC	??$_Cons_val@V?$allocator@UItemRank_List@@@std@@UItemRank_List@@ABU3@@std@@YAXAAV?$allocator@UItemRank_List@@@0@PAUItemRank_List@@ABU2@@Z ; std::_Cons_val<std::allocator<ItemRank_List>,ItemRank_List,ItemRank_List const &>
; Function compile flags: /Ogtp
;	COMDAT ??$_Cons_val@V?$allocator@UItemRank_List@@@std@@UItemRank_List@@ABU3@@std@@YAXAAV?$allocator@UItemRank_List@@@0@PAUItemRank_List@@ABU2@@Z
_TEXT	SEGMENT
__Alval$ = 8						; size = 4
__Pdest$ = 12						; size = 4
__Src$ = 16						; size = 4
??$_Cons_val@V?$allocator@UItemRank_List@@@std@@UItemRank_List@@ABU3@@std@@YAXAAV?$allocator@UItemRank_List@@@0@PAUItemRank_List@@ABU2@@Z PROC ; std::_Cons_val<std::allocator<ItemRank_List>,ItemRank_List,ItemRank_List const &>, COMDAT

; 279  : 	{	// construct using allocator

  00000	55		 push	 ebp
  00001	8b ec		 mov	 ebp, esp

; 280  : 	_Alval.construct(_Pdest, _STD forward<_Ty2>(_Src));

  00003	8b 45 0c	 mov	 eax, DWORD PTR __Pdest$[ebp]
  00006	85 c0		 test	 eax, eax
  00008	74 0f		 je	 SHORT $LN9@Cons_val@4
  0000a	8b 4d 10	 mov	 ecx, DWORD PTR __Src$[ebp]
  0000d	8b 11		 mov	 edx, DWORD PTR [ecx]
  0000f	89 10		 mov	 DWORD PTR [eax], edx
  00011	66 8b 49 04	 mov	 cx, WORD PTR [ecx+4]
  00015	66 89 48 04	 mov	 WORD PTR [eax+4], cx
$LN9@Cons_val@4:

; 281  : 	}

  00019	5d		 pop	 ebp
  0001a	c3		 ret	 0
??$_Cons_val@V?$allocator@UItemRank_List@@@std@@UItemRank_List@@ABU3@@std@@YAXAAV?$allocator@UItemRank_List@@@0@PAUItemRank_List@@ABU2@@Z ENDP ; std::_Cons_val<std::allocator<ItemRank_List>,ItemRank_List,ItemRank_List const &>
_TEXT	ENDS
PUBLIC	??$_Move@PAUItemRank_Data@@PAU1@@std@@YAPAUItemRank_Data@@PAU1@00@Z ; std::_Move<ItemRank_Data *,ItemRank_Data *>
; Function compile flags: /Ogtp
; File d:\program files (x86)\microsoft visual studio 10.0\vc\include\xutility
;	COMDAT ??$_Move@PAUItemRank_Data@@PAU1@@std@@YAPAUItemRank_Data@@PAU1@00@Z
_TEXT	SEGMENT
__First$ = 8						; size = 4
__Last$ = 12						; size = 4
__Dest$ = 16						; size = 4
??$_Move@PAUItemRank_Data@@PAU1@@std@@YAPAUItemRank_Data@@PAU1@00@Z PROC ; std::_Move<ItemRank_Data *,ItemRank_Data *>, COMDAT

; 2533 : 	{	// move [_First, _Last) to [_Dest, ...), unchecked

  00000	55		 push	 ebp
  00001	8b ec		 mov	 ebp, esp

; 2534 : 	return (_Move(_First, _Last,
; 2535 : 		_Dest, _Ptr_cat(_First, _Dest)));

  00003	8b 4d 08	 mov	 ecx, DWORD PTR __First$[ebp]
  00006	8b 45 10	 mov	 eax, DWORD PTR __Dest$[ebp]
  00009	56		 push	 esi
  0000a	8b 75 0c	 mov	 esi, DWORD PTR __Last$[ebp]
  0000d	3b ce		 cmp	 ecx, esi
  0000f	74 1c		 je	 SHORT $LN5@Move@3
$LL7@Move@3:
  00011	8b 11		 mov	 edx, DWORD PTR [ecx]
  00013	89 10		 mov	 DWORD PTR [eax], edx
  00015	66 8b 51 04	 mov	 dx, WORD PTR [ecx+4]
  00019	66 89 50 04	 mov	 WORD PTR [eax+4], dx
  0001d	8a 51 06	 mov	 dl, BYTE PTR [ecx+6]
  00020	88 50 06	 mov	 BYTE PTR [eax+6], dl
  00023	83 c1 07	 add	 ecx, 7
  00026	83 c0 07	 add	 eax, 7
  00029	3b ce		 cmp	 ecx, esi
  0002b	75 e4		 jne	 SHORT $LL7@Move@3
$LN5@Move@3:
  0002d	5e		 pop	 esi

; 2536 : 	}

  0002e	5d		 pop	 ebp
  0002f	c3		 ret	 0
??$_Move@PAUItemRank_Data@@PAU1@@std@@YAPAUItemRank_Data@@PAU1@00@Z ENDP ; std::_Move<ItemRank_Data *,ItemRank_Data *>
_TEXT	ENDS
PUBLIC	??$_Move@PAUItemRank_List@@PAU1@@std@@YAPAUItemRank_List@@PAU1@00@Z ; std::_Move<ItemRank_List *,ItemRank_List *>
; Function compile flags: /Ogtp
;	COMDAT ??$_Move@PAUItemRank_List@@PAU1@@std@@YAPAUItemRank_List@@PAU1@00@Z
_TEXT	SEGMENT
__First$ = 8						; size = 4
__Last$ = 12						; size = 4
__Dest$ = 16						; size = 4
??$_Move@PAUItemRank_List@@PAU1@@std@@YAPAUItemRank_List@@PAU1@00@Z PROC ; std::_Move<ItemRank_List *,ItemRank_List *>, COMDAT

; 2533 : 	{	// move [_First, _Last) to [_Dest, ...), unchecked

  00000	55		 push	 ebp
  00001	8b ec		 mov	 ebp, esp

; 2534 : 	return (_Move(_First, _Last,
; 2535 : 		_Dest, _Ptr_cat(_First, _Dest)));

  00003	8b 4d 08	 mov	 ecx, DWORD PTR __First$[ebp]
  00006	8b 55 0c	 mov	 edx, DWORD PTR __Last$[ebp]
  00009	8b 45 10	 mov	 eax, DWORD PTR __Dest$[ebp]
  0000c	3b ca		 cmp	 ecx, edx
  0000e	74 18		 je	 SHORT $LN5@Move@4
  00010	56		 push	 esi
$LL7@Move@4:
  00011	8b 31		 mov	 esi, DWORD PTR [ecx]
  00013	89 30		 mov	 DWORD PTR [eax], esi
  00015	66 8b 71 04	 mov	 si, WORD PTR [ecx+4]
  00019	66 89 70 04	 mov	 WORD PTR [eax+4], si
  0001d	83 c1 06	 add	 ecx, 6
  00020	83 c0 06	 add	 eax, 6
  00023	3b ca		 cmp	 ecx, edx
  00025	75 ea		 jne	 SHORT $LL7@Move@4
  00027	5e		 pop	 esi
$LN5@Move@4:

; 2536 : 	}

  00028	5d		 pop	 ebp
  00029	c3		 ret	 0
??$_Move@PAUItemRank_List@@PAU1@@std@@YAPAUItemRank_List@@PAU1@00@Z ENDP ; std::_Move<ItemRank_List *,ItemRank_List *>
_TEXT	ENDS
PUBLIC	??$_Dest_val@V?$allocator@UItemRank_Data@@@std@@UItemRank_Data@@@std@@YAXAAV?$allocator@UItemRank_Data@@@0@PAUItemRank_Data@@@Z ; std::_Dest_val<std::allocator<ItemRank_Data>,ItemRank_Data>
; Function compile flags: /Ogtp
; File d:\program files (x86)\microsoft visual studio 10.0\vc\include\xmemory
;	COMDAT ??$_Dest_val@V?$allocator@UItemRank_Data@@@std@@UItemRank_Data@@@std@@YAXAAV?$allocator@UItemRank_Data@@@0@PAUItemRank_Data@@@Z
_TEXT	SEGMENT
__Alval$ = 8						; size = 4
__Pdest$ = 12						; size = 4
??$_Dest_val@V?$allocator@UItemRank_Data@@@std@@UItemRank_Data@@@std@@YAXAAV?$allocator@UItemRank_Data@@@0@PAUItemRank_Data@@@Z PROC ; std::_Dest_val<std::allocator<ItemRank_Data>,ItemRank_Data>, COMDAT

; 287  : 	_Alval.destroy(_Pdest);
; 288  : 	}

  00000	c3		 ret	 0
??$_Dest_val@V?$allocator@UItemRank_Data@@@std@@UItemRank_Data@@@std@@YAXAAV?$allocator@UItemRank_Data@@@0@PAUItemRank_Data@@@Z ENDP ; std::_Dest_val<std::allocator<ItemRank_Data>,ItemRank_Data>
_TEXT	ENDS
PUBLIC	??$_Dest_val@V?$allocator@UItemRank_List@@@std@@UItemRank_List@@@std@@YAXAAV?$allocator@UItemRank_List@@@0@PAUItemRank_List@@@Z ; std::_Dest_val<std::allocator<ItemRank_List>,ItemRank_List>
; Function compile flags: /Ogtp
;	COMDAT ??$_Dest_val@V?$allocator@UItemRank_List@@@std@@UItemRank_List@@@std@@YAXAAV?$allocator@UItemRank_List@@@0@PAUItemRank_List@@@Z
_TEXT	SEGMENT
__Alval$ = 8						; size = 4
__Pdest$ = 12						; size = 4
??$_Dest_val@V?$allocator@UItemRank_List@@@std@@UItemRank_List@@@std@@YAXAAV?$allocator@UItemRank_List@@@0@PAUItemRank_List@@@Z PROC ; std::_Dest_val<std::allocator<ItemRank_List>,ItemRank_List>, COMDAT

; 287  : 	_Alval.destroy(_Pdest);
; 288  : 	}

  00000	c3		 ret	 0
??$_Dest_val@V?$allocator@UItemRank_List@@@std@@UItemRank_List@@@std@@YAXAAV?$allocator@UItemRank_List@@@0@PAUItemRank_List@@@Z ENDP ; std::_Dest_val<std::allocator<ItemRank_List>,ItemRank_List>
_TEXT	ENDS
PUBLIC	??$_Cons_val@V?$allocator@UItemRank_Data@@@std@@UItemRank_Data@@U3@@std@@YAXAAV?$allocator@UItemRank_Data@@@0@PAUItemRank_Data@@$$QAU2@@Z ; std::_Cons_val<std::allocator<ItemRank_Data>,ItemRank_Data,ItemRank_Data>
; Function compile flags: /Ogtp
;	COMDAT ??$_Cons_val@V?$allocator@UItemRank_Data@@@std@@UItemRank_Data@@U3@@std@@YAXAAV?$allocator@UItemRank_Data@@@0@PAUItemRank_Data@@$$QAU2@@Z
_TEXT	SEGMENT
__Alval$ = 8						; size = 4
__Pdest$ = 12						; size = 4
__Src$ = 16						; size = 4
??$_Cons_val@V?$allocator@UItemRank_Data@@@std@@UItemRank_Data@@U3@@std@@YAXAAV?$allocator@UItemRank_Data@@@0@PAUItemRank_Data@@$$QAU2@@Z PROC ; std::_Cons_val<std::allocator<ItemRank_Data>,ItemRank_Data,ItemRank_Data>, COMDAT

; 279  : 	{	// construct using allocator

  00000	55		 push	 ebp
  00001	8b ec		 mov	 ebp, esp

; 280  : 	_Alval.construct(_Pdest, _STD forward<_Ty2>(_Src));

  00003	8b 45 0c	 mov	 eax, DWORD PTR __Pdest$[ebp]
  00006	85 c0		 test	 eax, eax
  00008	74 15		 je	 SHORT $LN7@Cons_val@5
  0000a	8b 4d 10	 mov	 ecx, DWORD PTR __Src$[ebp]
  0000d	8b 11		 mov	 edx, DWORD PTR [ecx]
  0000f	89 10		 mov	 DWORD PTR [eax], edx
  00011	66 8b 51 04	 mov	 dx, WORD PTR [ecx+4]
  00015	66 89 50 04	 mov	 WORD PTR [eax+4], dx
  00019	8a 49 06	 mov	 cl, BYTE PTR [ecx+6]
  0001c	88 48 06	 mov	 BYTE PTR [eax+6], cl
$LN7@Cons_val@5:

; 281  : 	}

  0001f	5d		 pop	 ebp
  00020	c3		 ret	 0
??$_Cons_val@V?$allocator@UItemRank_Data@@@std@@UItemRank_Data@@U3@@std@@YAXAAV?$allocator@UItemRank_Data@@@0@PAUItemRank_Data@@$$QAU2@@Z ENDP ; std::_Cons_val<std::allocator<ItemRank_Data>,ItemRank_Data,ItemRank_Data>
_TEXT	ENDS
PUBLIC	??$_Cons_val@V?$allocator@UItemRank_List@@@std@@UItemRank_List@@U3@@std@@YAXAAV?$allocator@UItemRank_List@@@0@PAUItemRank_List@@$$QAU2@@Z ; std::_Cons_val<std::allocator<ItemRank_List>,ItemRank_List,ItemRank_List>
; Function compile flags: /Ogtp
;	COMDAT ??$_Cons_val@V?$allocator@UItemRank_List@@@std@@UItemRank_List@@U3@@std@@YAXAAV?$allocator@UItemRank_List@@@0@PAUItemRank_List@@$$QAU2@@Z
_TEXT	SEGMENT
__Alval$ = 8						; size = 4
__Pdest$ = 12						; size = 4
__Src$ = 16						; size = 4
??$_Cons_val@V?$allocator@UItemRank_List@@@std@@UItemRank_List@@U3@@std@@YAXAAV?$allocator@UItemRank_List@@@0@PAUItemRank_List@@$$QAU2@@Z PROC ; std::_Cons_val<std::allocator<ItemRank_List>,ItemRank_List,ItemRank_List>, COMDAT

; 279  : 	{	// construct using allocator

  00000	55		 push	 ebp
  00001	8b ec		 mov	 ebp, esp

; 280  : 	_Alval.construct(_Pdest, _STD forward<_Ty2>(_Src));

  00003	8b 45 0c	 mov	 eax, DWORD PTR __Pdest$[ebp]
  00006	85 c0		 test	 eax, eax
  00008	74 0f		 je	 SHORT $LN7@Cons_val@6
  0000a	8b 4d 10	 mov	 ecx, DWORD PTR __Src$[ebp]
  0000d	8b 11		 mov	 edx, DWORD PTR [ecx]
  0000f	89 10		 mov	 DWORD PTR [eax], edx
  00011	66 8b 49 04	 mov	 cx, WORD PTR [ecx+4]
  00015	66 89 48 04	 mov	 WORD PTR [eax+4], cx
$LN7@Cons_val@6:

; 281  : 	}

  00019	5d		 pop	 ebp
  0001a	c3		 ret	 0
??$_Cons_val@V?$allocator@UItemRank_List@@@std@@UItemRank_List@@U3@@std@@YAXAAV?$allocator@UItemRank_List@@@0@PAUItemRank_List@@$$QAU2@@Z ENDP ; std::_Cons_val<std::allocator<ItemRank_List>,ItemRank_List,ItemRank_List>
_TEXT	ENDS
PUBLIC	?begin@?$vector@UItemRank_Data@@V?$allocator@UItemRank_Data@@@std@@@std@@QAE?AV?$_Vector_iterator@V?$_Vector_val@UItemRank_Data@@V?$allocator@UItemRank_Data@@@std@@@std@@@2@XZ ; std::vector<ItemRank_Data,std::allocator<ItemRank_Data> >::begin
; Function compile flags: /Ogtp
; File d:\program files (x86)\microsoft visual studio 10.0\vc\include\vector
;	COMDAT ?begin@?$vector@UItemRank_Data@@V?$allocator@UItemRank_Data@@@std@@@std@@QAE?AV?$_Vector_iterator@V?$_Vector_val@UItemRank_Data@@V?$allocator@UItemRank_Data@@@std@@@std@@@2@XZ
_TEXT	SEGMENT
___$ReturnUdt$ = 8					; size = 4
?begin@?$vector@UItemRank_Data@@V?$allocator@UItemRank_Data@@@std@@@std@@QAE?AV?$_Vector_iterator@V?$_Vector_val@UItemRank_Data@@V?$allocator@UItemRank_Data@@@std@@@std@@@2@XZ PROC ; std::vector<ItemRank_Data,std::allocator<ItemRank_Data> >::begin, COMDAT
; _this$ = ecx

; 781  : 		{	// return iterator for beginning of mutable sequence

  00000	55		 push	 ebp
  00001	8b ec		 mov	 ebp, esp

; 782  : 		return (iterator(this->_Myfirst, this));

  00003	8b 09		 mov	 ecx, DWORD PTR [ecx]
  00005	8b 45 08	 mov	 eax, DWORD PTR ___$ReturnUdt$[ebp]
  00008	89 08		 mov	 DWORD PTR [eax], ecx

; 783  : 		}

  0000a	5d		 pop	 ebp
  0000b	c2 04 00	 ret	 4
?begin@?$vector@UItemRank_Data@@V?$allocator@UItemRank_Data@@@std@@@std@@QAE?AV?$_Vector_iterator@V?$_Vector_val@UItemRank_Data@@V?$allocator@UItemRank_Data@@@std@@@std@@@2@XZ ENDP ; std::vector<ItemRank_Data,std::allocator<ItemRank_Data> >::begin
_TEXT	ENDS
PUBLIC	?end@?$vector@UItemRank_Data@@V?$allocator@UItemRank_Data@@@std@@@std@@QAE?AV?$_Vector_iterator@V?$_Vector_val@UItemRank_Data@@V?$allocator@UItemRank_Data@@@std@@@std@@@2@XZ ; std::vector<ItemRank_Data,std::allocator<ItemRank_Data> >::end
; Function compile flags: /Ogtp
;	COMDAT ?end@?$vector@UItemRank_Data@@V?$allocator@UItemRank_Data@@@std@@@std@@QAE?AV?$_Vector_iterator@V?$_Vector_val@UItemRank_Data@@V?$allocator@UItemRank_Data@@@std@@@std@@@2@XZ
_TEXT	SEGMENT
___$ReturnUdt$ = 8					; size = 4
?end@?$vector@UItemRank_Data@@V?$allocator@UItemRank_Data@@@std@@@std@@QAE?AV?$_Vector_iterator@V?$_Vector_val@UItemRank_Data@@V?$allocator@UItemRank_Data@@@std@@@std@@@2@XZ PROC ; std::vector<ItemRank_Data,std::allocator<ItemRank_Data> >::end, COMDAT
; _this$ = ecx

; 791  : 		{	// return iterator for end of mutable sequence

  00000	55		 push	 ebp
  00001	8b ec		 mov	 ebp, esp

; 792  : 		return (iterator(this->_Mylast, this));

  00003	8b 49 04	 mov	 ecx, DWORD PTR [ecx+4]
  00006	8b 45 08	 mov	 eax, DWORD PTR ___$ReturnUdt$[ebp]
  00009	89 08		 mov	 DWORD PTR [eax], ecx

; 793  : 		}

  0000b	5d		 pop	 ebp
  0000c	c2 04 00	 ret	 4
?end@?$vector@UItemRank_Data@@V?$allocator@UItemRank_Data@@@std@@@std@@QAE?AV?$_Vector_iterator@V?$_Vector_val@UItemRank_Data@@V?$allocator@UItemRank_Data@@@std@@@std@@@2@XZ ENDP ; std::vector<ItemRank_Data,std::allocator<ItemRank_Data> >::end
_TEXT	ENDS
PUBLIC	?begin@?$vector@UItemRank_List@@V?$allocator@UItemRank_List@@@std@@@std@@QAE?AV?$_Vector_iterator@V?$_Vector_val@UItemRank_List@@V?$allocator@UItemRank_List@@@std@@@std@@@2@XZ ; std::vector<ItemRank_List,std::allocator<ItemRank_List> >::begin
; Function compile flags: /Ogtp
;	COMDAT ?begin@?$vector@UItemRank_List@@V?$allocator@UItemRank_List@@@std@@@std@@QAE?AV?$_Vector_iterator@V?$_Vector_val@UItemRank_List@@V?$allocator@UItemRank_List@@@std@@@std@@@2@XZ
_TEXT	SEGMENT
___$ReturnUdt$ = 8					; size = 4
?begin@?$vector@UItemRank_List@@V?$allocator@UItemRank_List@@@std@@@std@@QAE?AV?$_Vector_iterator@V?$_Vector_val@UItemRank_List@@V?$allocator@UItemRank_List@@@std@@@std@@@2@XZ PROC ; std::vector<ItemRank_List,std::allocator<ItemRank_List> >::begin, COMDAT
; _this$ = ecx

; 781  : 		{	// return iterator for beginning of mutable sequence

  00000	55		 push	 ebp
  00001	8b ec		 mov	 ebp, esp

; 782  : 		return (iterator(this->_Myfirst, this));

  00003	8b 09		 mov	 ecx, DWORD PTR [ecx]
  00005	8b 45 08	 mov	 eax, DWORD PTR ___$ReturnUdt$[ebp]
  00008	89 08		 mov	 DWORD PTR [eax], ecx

; 783  : 		}

  0000a	5d		 pop	 ebp
  0000b	c2 04 00	 ret	 4
?begin@?$vector@UItemRank_List@@V?$allocator@UItemRank_List@@@std@@@std@@QAE?AV?$_Vector_iterator@V?$_Vector_val@UItemRank_List@@V?$allocator@UItemRank_List@@@std@@@std@@@2@XZ ENDP ; std::vector<ItemRank_List,std::allocator<ItemRank_List> >::begin
_TEXT	ENDS
PUBLIC	?end@?$vector@UItemRank_List@@V?$allocator@UItemRank_List@@@std@@@std@@QAE?AV?$_Vector_iterator@V?$_Vector_val@UItemRank_List@@V?$allocator@UItemRank_List@@@std@@@std@@@2@XZ ; std::vector<ItemRank_List,std::allocator<ItemRank_List> >::end
; Function compile flags: /Ogtp
;	COMDAT ?end@?$vector@UItemRank_List@@V?$allocator@UItemRank_List@@@std@@@std@@QAE?AV?$_Vector_iterator@V?$_Vector_val@UItemRank_List@@V?$allocator@UItemRank_List@@@std@@@std@@@2@XZ
_TEXT	SEGMENT
___$ReturnUdt$ = 8					; size = 4
?end@?$vector@UItemRank_List@@V?$allocator@UItemRank_List@@@std@@@std@@QAE?AV?$_Vector_iterator@V?$_Vector_val@UItemRank_List@@V?$allocator@UItemRank_List@@@std@@@std@@@2@XZ PROC ; std::vector<ItemRank_List,std::allocator<ItemRank_List> >::end, COMDAT
; _this$ = ecx

; 791  : 		{	// return iterator for end of mutable sequence

  00000	55		 push	 ebp
  00001	8b ec		 mov	 ebp, esp

; 792  : 		return (iterator(this->_Mylast, this));

  00003	8b 49 04	 mov	 ecx, DWORD PTR [ecx+4]
  00006	8b 45 08	 mov	 eax, DWORD PTR ___$ReturnUdt$[ebp]
  00009	89 08		 mov	 DWORD PTR [eax], ecx

; 793  : 		}

  0000b	5d		 pop	 ebp
  0000c	c2 04 00	 ret	 4
?end@?$vector@UItemRank_List@@V?$allocator@UItemRank_List@@@std@@@std@@QAE?AV?$_Vector_iterator@V?$_Vector_val@UItemRank_List@@V?$allocator@UItemRank_List@@@std@@@std@@@2@XZ ENDP ; std::vector<ItemRank_List,std::allocator<ItemRank_List> >::end
_TEXT	ENDS
PUBLIC	?_Make_iter@?$vector@UItemRank_Data@@V?$allocator@UItemRank_Data@@@std@@@std@@QBE?AV?$_Vector_iterator@V?$_Vector_val@UItemRank_Data@@V?$allocator@UItemRank_Data@@@std@@@std@@@2@V?$_Vector_const_iterator@V?$_Vector_val@UItemRank_Data@@V?$allocator@UItemRank_Data@@@std@@@std@@@2@@Z ; std::vector<ItemRank_Data,std::allocator<ItemRank_Data> >::_Make_iter
; Function compile flags: /Ogtp
;	COMDAT ?_Make_iter@?$vector@UItemRank_Data@@V?$allocator@UItemRank_Data@@@std@@@std@@QBE?AV?$_Vector_iterator@V?$_Vector_val@UItemRank_Data@@V?$allocator@UItemRank_Data@@@std@@@std@@@2@V?$_Vector_const_iterator@V?$_Vector_val@UItemRank_Data@@V?$allocator@UItemRank_Data@@@std@@@std@@@2@@Z
_TEXT	SEGMENT
___$ReturnUdt$ = 8					; size = 4
__Where$ = 12						; size = 4
?_Make_iter@?$vector@UItemRank_Data@@V?$allocator@UItemRank_Data@@@std@@@std@@QBE?AV?$_Vector_iterator@V?$_Vector_val@UItemRank_Data@@V?$allocator@UItemRank_Data@@@std@@@std@@@2@V?$_Vector_const_iterator@V?$_Vector_val@UItemRank_Data@@V?$allocator@UItemRank_Data@@@std@@@std@@@2@@Z PROC ; std::vector<ItemRank_Data,std::allocator<ItemRank_Data> >::_Make_iter, COMDAT
; _this$ = ecx

; 801  : 		{	// make iterator from const_iterator

  00000	55		 push	 ebp
  00001	8b ec		 mov	 ebp, esp

; 802  : 		return (iterator(_Where._Ptr, this));

  00003	8b 45 08	 mov	 eax, DWORD PTR ___$ReturnUdt$[ebp]
  00006	8b 4d 0c	 mov	 ecx, DWORD PTR __Where$[ebp]
  00009	89 08		 mov	 DWORD PTR [eax], ecx

; 803  : 		}

  0000b	5d		 pop	 ebp
  0000c	c2 08 00	 ret	 8
?_Make_iter@?$vector@UItemRank_Data@@V?$allocator@UItemRank_Data@@@std@@@std@@QBE?AV?$_Vector_iterator@V?$_Vector_val@UItemRank_Data@@V?$allocator@UItemRank_Data@@@std@@@std@@@2@V?$_Vector_const_iterator@V?$_Vector_val@UItemRank_Data@@V?$allocator@UItemRank_Data@@@std@@@std@@@2@@Z ENDP ; std::vector<ItemRank_Data,std::allocator<ItemRank_Data> >::_Make_iter
_TEXT	ENDS
PUBLIC	?_Make_iter@?$vector@UItemRank_List@@V?$allocator@UItemRank_List@@@std@@@std@@QBE?AV?$_Vector_iterator@V?$_Vector_val@UItemRank_List@@V?$allocator@UItemRank_List@@@std@@@std@@@2@V?$_Vector_const_iterator@V?$_Vector_val@UItemRank_List@@V?$allocator@UItemRank_List@@@std@@@std@@@2@@Z ; std::vector<ItemRank_List,std::allocator<ItemRank_List> >::_Make_iter
; Function compile flags: /Ogtp
;	COMDAT ?_Make_iter@?$vector@UItemRank_List@@V?$allocator@UItemRank_List@@@std@@@std@@QBE?AV?$_Vector_iterator@V?$_Vector_val@UItemRank_List@@V?$allocator@UItemRank_List@@@std@@@std@@@2@V?$_Vector_const_iterator@V?$_Vector_val@UItemRank_List@@V?$allocator@UItemRank_List@@@std@@@std@@@2@@Z
_TEXT	SEGMENT
___$ReturnUdt$ = 8					; size = 4
__Where$ = 12						; size = 4
?_Make_iter@?$vector@UItemRank_List@@V?$allocator@UItemRank_List@@@std@@@std@@QBE?AV?$_Vector_iterator@V?$_Vector_val@UItemRank_List@@V?$allocator@UItemRank_List@@@std@@@std@@@2@V?$_Vector_const_iterator@V?$_Vector_val@UItemRank_List@@V?$allocator@UItemRank_List@@@std@@@std@@@2@@Z PROC ; std::vector<ItemRank_List,std::allocator<ItemRank_List> >::_Make_iter, COMDAT
; _this$ = ecx

; 801  : 		{	// make iterator from const_iterator

  00000	55		 push	 ebp
  00001	8b ec		 mov	 ebp, esp

; 802  : 		return (iterator(_Where._Ptr, this));

  00003	8b 45 08	 mov	 eax, DWORD PTR ___$ReturnUdt$[ebp]
  00006	8b 4d 0c	 mov	 ecx, DWORD PTR __Where$[ebp]
  00009	89 08		 mov	 DWORD PTR [eax], ecx

; 803  : 		}

  0000b	5d		 pop	 ebp
  0000c	c2 08 00	 ret	 8
?_Make_iter@?$vector@UItemRank_List@@V?$allocator@UItemRank_List@@@std@@@std@@QBE?AV?$_Vector_iterator@V?$_Vector_val@UItemRank_List@@V?$allocator@UItemRank_List@@@std@@@std@@@2@V?$_Vector_const_iterator@V?$_Vector_val@UItemRank_List@@V?$allocator@UItemRank_List@@@std@@@std@@@2@@Z ENDP ; std::vector<ItemRank_List,std::allocator<ItemRank_List> >::_Make_iter
_TEXT	ENDS
PUBLIC	??$_Destroy_range@V?$allocator@UItemRank_Data@@@std@@@std@@YAXPAUItemRank_Data@@0AAV?$allocator@UItemRank_Data@@@0@U_Nonscalar_ptr_iterator_tag@0@@Z ; std::_Destroy_range<std::allocator<ItemRank_Data> >
; Function compile flags: /Ogtp
; File d:\program files (x86)\microsoft visual studio 10.0\vc\include\xmemory
;	COMDAT ??$_Destroy_range@V?$allocator@UItemRank_Data@@@std@@@std@@YAXPAUItemRank_Data@@0AAV?$allocator@UItemRank_Data@@@0@U_Nonscalar_ptr_iterator_tag@0@@Z
_TEXT	SEGMENT
__First$ = 8						; size = 4
__Last$ = 12						; size = 4
__Al$ = 16						; size = 4
___formal$ = 20						; size = 1
??$_Destroy_range@V?$allocator@UItemRank_Data@@@std@@@std@@YAXPAUItemRank_Data@@0AAV?$allocator@UItemRank_Data@@@0@U_Nonscalar_ptr_iterator_tag@0@@Z PROC ; std::_Destroy_range<std::allocator<ItemRank_Data> >, COMDAT

; 96   : 	for (; _First != _Last; ++_First)
; 97   : 		_Dest_val(_Al, _First);
; 98   : 	}

  00000	c3		 ret	 0
??$_Destroy_range@V?$allocator@UItemRank_Data@@@std@@@std@@YAXPAUItemRank_Data@@0AAV?$allocator@UItemRank_Data@@@0@U_Nonscalar_ptr_iterator_tag@0@@Z ENDP ; std::_Destroy_range<std::allocator<ItemRank_Data> >
_TEXT	ENDS
PUBLIC	??$_Destroy_range@V?$allocator@UItemRank_List@@@std@@@std@@YAXPAUItemRank_List@@0AAV?$allocator@UItemRank_List@@@0@U_Nonscalar_ptr_iterator_tag@0@@Z ; std::_Destroy_range<std::allocator<ItemRank_List> >
; Function compile flags: /Ogtp
;	COMDAT ??$_Destroy_range@V?$allocator@UItemRank_List@@@std@@@std@@YAXPAUItemRank_List@@0AAV?$allocator@UItemRank_List@@@0@U_Nonscalar_ptr_iterator_tag@0@@Z
_TEXT	SEGMENT
__First$ = 8						; size = 4
__Last$ = 12						; size = 4
__Al$ = 16						; size = 4
___formal$ = 20						; size = 1
??$_Destroy_range@V?$allocator@UItemRank_List@@@std@@@std@@YAXPAUItemRank_List@@0AAV?$allocator@UItemRank_List@@@0@U_Nonscalar_ptr_iterator_tag@0@@Z PROC ; std::_Destroy_range<std::allocator<ItemRank_List> >, COMDAT

; 96   : 	for (; _First != _Last; ++_First)
; 97   : 		_Dest_val(_Al, _First);
; 98   : 	}

  00000	c3		 ret	 0
??$_Destroy_range@V?$allocator@UItemRank_List@@@std@@@std@@YAXPAUItemRank_List@@0AAV?$allocator@UItemRank_List@@@0@U_Nonscalar_ptr_iterator_tag@0@@Z ENDP ; std::_Destroy_range<std::allocator<ItemRank_List> >
_TEXT	ENDS
PUBLIC	??$_Uninit_move@PAUItemRank_Data@@PAU1@V?$allocator@UItemRank_Data@@@std@@U1@@std@@YAPAUItemRank_Data@@PAU1@00AAV?$allocator@UItemRank_Data@@@0@0U_Nonscalar_ptr_iterator_tag@0@@Z ; std::_Uninit_move<ItemRank_Data *,ItemRank_Data *,std::allocator<ItemRank_Data>,ItemRank_Data>
; Function compile flags: /Ogtp
; File d:\program files (x86)\microsoft visual studio 10.0\vc\include\memory
;	COMDAT ??$_Uninit_move@PAUItemRank_Data@@PAU1@V?$allocator@UItemRank_Data@@@std@@U1@@std@@YAPAUItemRank_Data@@PAU1@00AAV?$allocator@UItemRank_Data@@@0@0U_Nonscalar_ptr_iterator_tag@0@@Z
_TEXT	SEGMENT
__First$ = 8						; size = 4
__Last$ = 12						; size = 4
__Dest$ = 16						; size = 4
__Al$ = 20						; size = 4
___formal$ = 24						; size = 4
___formal$ = 28						; size = 1
??$_Uninit_move@PAUItemRank_Data@@PAU1@V?$allocator@UItemRank_Data@@@std@@U1@@std@@YAPAUItemRank_Data@@PAU1@00AAV?$allocator@UItemRank_Data@@@0@0U_Nonscalar_ptr_iterator_tag@0@@Z PROC ; std::_Uninit_move<ItemRank_Data *,ItemRank_Data *,std::allocator<ItemRank_Data>,ItemRank_Data>, COMDAT

; 424  : 	{	// move [_First, _Last) to raw _Dest, using _Al, arbitrary type

  00000	55		 push	 ebp
  00001	8b ec		 mov	 ebp, esp
  00003	53		 push	 ebx

; 425  : 	_DEBUG_RANGE(_First, _Last);
; 426  : 	_DEBUG_POINTER(_Dest);
; 427  : 	_FwdIt _Next = _Dest;
; 428  : 
; 429  : 	_TRY_BEGIN
; 430  : 	for (; _First != _Last; ++_Dest, ++_First)

  00004	8b 5d 0c	 mov	 ebx, DWORD PTR __Last$[ebp]
  00007	56		 push	 esi
  00008	8b 75 08	 mov	 esi, DWORD PTR __First$[ebp]
  0000b	3b f3		 cmp	 esi, ebx
  0000d	74 23		 je	 SHORT $LN17@Uninit_mov
  0000f	57		 push	 edi
  00010	8b 7d 10	 mov	 edi, DWORD PTR __Dest$[ebp]
$LL6@Uninit_mov:

; 431  : 		_Cons_val(_Al, _Dest, (_Valty &&)*_First);

  00013	8b 45 14	 mov	 eax, DWORD PTR __Al$[ebp]
  00016	56		 push	 esi
  00017	57		 push	 edi
  00018	50		 push	 eax
  00019	e8 00 00 00 00	 call	 ??$_Cons_val@V?$allocator@UItemRank_Data@@@std@@UItemRank_Data@@U3@@std@@YAXAAV?$allocator@UItemRank_Data@@@0@PAUItemRank_Data@@$$QAU2@@Z ; std::_Cons_val<std::allocator<ItemRank_Data>,ItemRank_Data,ItemRank_Data>
  0001e	83 c6 07	 add	 esi, 7
  00021	83 c4 0c	 add	 esp, 12			; 0000000cH
  00024	83 c7 07	 add	 edi, 7
  00027	3b f3		 cmp	 esi, ebx
  00029	75 e8		 jne	 SHORT $LL6@Uninit_mov

; 432  : 	_CATCH_ALL
; 433  : 	for (; _Next != _Dest; ++_Next)
; 434  : 		_Dest_val(_Al, _Next);
; 435  : 	_RERAISE;
; 436  : 	_CATCH_END
; 437  : 	return (_Dest);

  0002b	8b c7		 mov	 eax, edi
  0002d	5f		 pop	 edi
  0002e	5e		 pop	 esi
  0002f	5b		 pop	 ebx

; 438  : 	}

  00030	5d		 pop	 ebp
  00031	c3		 ret	 0
$LN17@Uninit_mov:

; 432  : 	_CATCH_ALL
; 433  : 	for (; _Next != _Dest; ++_Next)
; 434  : 		_Dest_val(_Al, _Next);
; 435  : 	_RERAISE;
; 436  : 	_CATCH_END
; 437  : 	return (_Dest);

  00032	8b 45 10	 mov	 eax, DWORD PTR __Dest$[ebp]
  00035	5e		 pop	 esi
  00036	5b		 pop	 ebx

; 438  : 	}

  00037	5d		 pop	 ebp
  00038	c3		 ret	 0
??$_Uninit_move@PAUItemRank_Data@@PAU1@V?$allocator@UItemRank_Data@@@std@@U1@@std@@YAPAUItemRank_Data@@PAU1@00AAV?$allocator@UItemRank_Data@@@0@0U_Nonscalar_ptr_iterator_tag@0@@Z ENDP ; std::_Uninit_move<ItemRank_Data *,ItemRank_Data *,std::allocator<ItemRank_Data>,ItemRank_Data>
_TEXT	ENDS
PUBLIC	??$_Uninit_move@PAUItemRank_List@@PAU1@V?$allocator@UItemRank_List@@@std@@U1@@std@@YAPAUItemRank_List@@PAU1@00AAV?$allocator@UItemRank_List@@@0@0U_Nonscalar_ptr_iterator_tag@0@@Z ; std::_Uninit_move<ItemRank_List *,ItemRank_List *,std::allocator<ItemRank_List>,ItemRank_List>
; Function compile flags: /Ogtp
;	COMDAT ??$_Uninit_move@PAUItemRank_List@@PAU1@V?$allocator@UItemRank_List@@@std@@U1@@std@@YAPAUItemRank_List@@PAU1@00AAV?$allocator@UItemRank_List@@@0@0U_Nonscalar_ptr_iterator_tag@0@@Z
_TEXT	SEGMENT
__First$ = 8						; size = 4
__Last$ = 12						; size = 4
__Dest$ = 16						; size = 4
__Al$ = 20						; size = 4
___formal$ = 24						; size = 4
___formal$ = 28						; size = 1
??$_Uninit_move@PAUItemRank_List@@PAU1@V?$allocator@UItemRank_List@@@std@@U1@@std@@YAPAUItemRank_List@@PAU1@00AAV?$allocator@UItemRank_List@@@0@0U_Nonscalar_ptr_iterator_tag@0@@Z PROC ; std::_Uninit_move<ItemRank_List *,ItemRank_List *,std::allocator<ItemRank_List>,ItemRank_List>, COMDAT

; 424  : 	{	// move [_First, _Last) to raw _Dest, using _Al, arbitrary type

  00000	55		 push	 ebp
  00001	8b ec		 mov	 ebp, esp
  00003	53		 push	 ebx

; 425  : 	_DEBUG_RANGE(_First, _Last);
; 426  : 	_DEBUG_POINTER(_Dest);
; 427  : 	_FwdIt _Next = _Dest;
; 428  : 
; 429  : 	_TRY_BEGIN
; 430  : 	for (; _First != _Last; ++_Dest, ++_First)

  00004	8b 5d 0c	 mov	 ebx, DWORD PTR __Last$[ebp]
  00007	56		 push	 esi
  00008	8b 75 08	 mov	 esi, DWORD PTR __First$[ebp]
  0000b	3b f3		 cmp	 esi, ebx
  0000d	74 23		 je	 SHORT $LN17@Uninit_mov@2
  0000f	57		 push	 edi
  00010	8b 7d 10	 mov	 edi, DWORD PTR __Dest$[ebp]
$LL6@Uninit_mov@2:

; 431  : 		_Cons_val(_Al, _Dest, (_Valty &&)*_First);

  00013	8b 45 14	 mov	 eax, DWORD PTR __Al$[ebp]
  00016	56		 push	 esi
  00017	57		 push	 edi
  00018	50		 push	 eax
  00019	e8 00 00 00 00	 call	 ??$_Cons_val@V?$allocator@UItemRank_List@@@std@@UItemRank_List@@U3@@std@@YAXAAV?$allocator@UItemRank_List@@@0@PAUItemRank_List@@$$QAU2@@Z ; std::_Cons_val<std::allocator<ItemRank_List>,ItemRank_List,ItemRank_List>
  0001e	83 c6 06	 add	 esi, 6
  00021	83 c4 0c	 add	 esp, 12			; 0000000cH
  00024	83 c7 06	 add	 edi, 6
  00027	3b f3		 cmp	 esi, ebx
  00029	75 e8		 jne	 SHORT $LL6@Uninit_mov@2

; 432  : 	_CATCH_ALL
; 433  : 	for (; _Next != _Dest; ++_Next)
; 434  : 		_Dest_val(_Al, _Next);
; 435  : 	_RERAISE;
; 436  : 	_CATCH_END
; 437  : 	return (_Dest);

  0002b	8b c7		 mov	 eax, edi
  0002d	5f		 pop	 edi
  0002e	5e		 pop	 esi
  0002f	5b		 pop	 ebx

; 438  : 	}

  00030	5d		 pop	 ebp
  00031	c3		 ret	 0
$LN17@Uninit_mov@2:

; 432  : 	_CATCH_ALL
; 433  : 	for (; _Next != _Dest; ++_Next)
; 434  : 		_Dest_val(_Al, _Next);
; 435  : 	_RERAISE;
; 436  : 	_CATCH_END
; 437  : 	return (_Dest);

  00032	8b 45 10	 mov	 eax, DWORD PTR __Dest$[ebp]
  00035	5e		 pop	 esi
  00036	5b		 pop	 ebx

; 438  : 	}

  00037	5d		 pop	 ebp
  00038	c3		 ret	 0
??$_Uninit_move@PAUItemRank_List@@PAU1@V?$allocator@UItemRank_List@@@std@@U1@@std@@YAPAUItemRank_List@@PAU1@00AAV?$allocator@UItemRank_List@@@0@0U_Nonscalar_ptr_iterator_tag@0@@Z ENDP ; std::_Uninit_move<ItemRank_List *,ItemRank_List *,std::allocator<ItemRank_List>,ItemRank_List>
_TEXT	ENDS
PUBLIC	??$_Destroy_range@V?$allocator@UItemRank_Data@@@std@@@std@@YAXPAUItemRank_Data@@0AAV?$allocator@UItemRank_Data@@@0@@Z ; std::_Destroy_range<std::allocator<ItemRank_Data> >
; Function compile flags: /Ogtp
; File d:\program files (x86)\microsoft visual studio 10.0\vc\include\xmemory
;	COMDAT ??$_Destroy_range@V?$allocator@UItemRank_Data@@@std@@@std@@YAXPAUItemRank_Data@@0AAV?$allocator@UItemRank_Data@@@0@@Z
_TEXT	SEGMENT
__First$ = 8						; size = 4
__Last$ = 12						; size = 4
__Al$ = 16						; size = 4
??$_Destroy_range@V?$allocator@UItemRank_Data@@@std@@@std@@YAXPAUItemRank_Data@@0AAV?$allocator@UItemRank_Data@@@0@@Z PROC ; std::_Destroy_range<std::allocator<ItemRank_Data> >, COMDAT

; 88   : 	_Destroy_range(_First, _Last, _Al, _Ptr_cat(_First, _Last));
; 89   : 	}

  00000	c3		 ret	 0
??$_Destroy_range@V?$allocator@UItemRank_Data@@@std@@@std@@YAXPAUItemRank_Data@@0AAV?$allocator@UItemRank_Data@@@0@@Z ENDP ; std::_Destroy_range<std::allocator<ItemRank_Data> >
_TEXT	ENDS
PUBLIC	??$_Destroy_range@V?$allocator@UItemRank_List@@@std@@@std@@YAXPAUItemRank_List@@0AAV?$allocator@UItemRank_List@@@0@@Z ; std::_Destroy_range<std::allocator<ItemRank_List> >
; Function compile flags: /Ogtp
;	COMDAT ??$_Destroy_range@V?$allocator@UItemRank_List@@@std@@@std@@YAXPAUItemRank_List@@0AAV?$allocator@UItemRank_List@@@0@@Z
_TEXT	SEGMENT
__First$ = 8						; size = 4
__Last$ = 12						; size = 4
__Al$ = 16						; size = 4
??$_Destroy_range@V?$allocator@UItemRank_List@@@std@@@std@@YAXPAUItemRank_List@@0AAV?$allocator@UItemRank_List@@@0@@Z PROC ; std::_Destroy_range<std::allocator<ItemRank_List> >, COMDAT

; 88   : 	_Destroy_range(_First, _Last, _Al, _Ptr_cat(_First, _Last));
; 89   : 	}

  00000	c3		 ret	 0
??$_Destroy_range@V?$allocator@UItemRank_List@@@std@@@std@@YAXPAUItemRank_List@@0AAV?$allocator@UItemRank_List@@@0@@Z ENDP ; std::_Destroy_range<std::allocator<ItemRank_List> >
_TEXT	ENDS
PUBLIC	??$_Uninitialized_move@PAUItemRank_Data@@PAU1@V?$allocator@UItemRank_Data@@@std@@@std@@YAPAUItemRank_Data@@PAU1@00AAV?$allocator@UItemRank_Data@@@0@@Z ; std::_Uninitialized_move<ItemRank_Data *,ItemRank_Data *,std::allocator<ItemRank_Data> >
; Function compile flags: /Ogtp
; File d:\program files (x86)\microsoft visual studio 10.0\vc\include\memory
;	COMDAT ??$_Uninitialized_move@PAUItemRank_Data@@PAU1@V?$allocator@UItemRank_Data@@@std@@@std@@YAPAUItemRank_Data@@PAU1@00AAV?$allocator@UItemRank_Data@@@0@@Z
_TEXT	SEGMENT
__Cat$213040 = -4					; size = 1
__First$ = 8						; size = 4
__Last$ = 12						; size = 4
__Dest$ = 16						; size = 4
__Al$ = 20						; size = 4
??$_Uninitialized_move@PAUItemRank_Data@@PAU1@V?$allocator@UItemRank_Data@@@std@@@std@@YAPAUItemRank_Data@@PAU1@00AAV?$allocator@UItemRank_Data@@@0@@Z PROC ; std::_Uninitialized_move<ItemRank_Data *,ItemRank_Data *,std::allocator<ItemRank_Data> >, COMDAT

; 469  : 	{	// move [_First, _Last) to raw _Dest, using _Al

  00000	55		 push	 ebp
  00001	8b ec		 mov	 ebp, esp
  00003	51		 push	 ecx

; 470  : 	return (_Uninit_move(_First, _Last, _Dest, _Al,
; 471  : 		_Val_type(_First), _Ptr_cat(_First, _Dest)));

  00004	8b 45 fc	 mov	 eax, DWORD PTR __Cat$213040[ebp]
  00007	8b 4d 14	 mov	 ecx, DWORD PTR __Al$[ebp]
  0000a	8b 55 10	 mov	 edx, DWORD PTR __Dest$[ebp]
  0000d	50		 push	 eax
  0000e	8b 45 0c	 mov	 eax, DWORD PTR __Last$[ebp]
  00011	6a 00		 push	 0
  00013	51		 push	 ecx
  00014	8b 4d 08	 mov	 ecx, DWORD PTR __First$[ebp]
  00017	52		 push	 edx
  00018	50		 push	 eax
  00019	51		 push	 ecx
  0001a	e8 00 00 00 00	 call	 ??$_Uninit_move@PAUItemRank_Data@@PAU1@V?$allocator@UItemRank_Data@@@std@@U1@@std@@YAPAUItemRank_Data@@PAU1@00AAV?$allocator@UItemRank_Data@@@0@0U_Nonscalar_ptr_iterator_tag@0@@Z ; std::_Uninit_move<ItemRank_Data *,ItemRank_Data *,std::allocator<ItemRank_Data>,ItemRank_Data>
  0001f	83 c4 18	 add	 esp, 24			; 00000018H

; 472  : 	}

  00022	8b e5		 mov	 esp, ebp
  00024	5d		 pop	 ebp
  00025	c3		 ret	 0
??$_Uninitialized_move@PAUItemRank_Data@@PAU1@V?$allocator@UItemRank_Data@@@std@@@std@@YAPAUItemRank_Data@@PAU1@00AAV?$allocator@UItemRank_Data@@@0@@Z ENDP ; std::_Uninitialized_move<ItemRank_Data *,ItemRank_Data *,std::allocator<ItemRank_Data> >
_TEXT	ENDS
PUBLIC	??$_Uninitialized_move@PAUItemRank_List@@PAU1@V?$allocator@UItemRank_List@@@std@@@std@@YAPAUItemRank_List@@PAU1@00AAV?$allocator@UItemRank_List@@@0@@Z ; std::_Uninitialized_move<ItemRank_List *,ItemRank_List *,std::allocator<ItemRank_List> >
; Function compile flags: /Ogtp
;	COMDAT ??$_Uninitialized_move@PAUItemRank_List@@PAU1@V?$allocator@UItemRank_List@@@std@@@std@@YAPAUItemRank_List@@PAU1@00AAV?$allocator@UItemRank_List@@@0@@Z
_TEXT	SEGMENT
__Cat$213050 = -4					; size = 1
__First$ = 8						; size = 4
__Last$ = 12						; size = 4
__Dest$ = 16						; size = 4
__Al$ = 20						; size = 4
??$_Uninitialized_move@PAUItemRank_List@@PAU1@V?$allocator@UItemRank_List@@@std@@@std@@YAPAUItemRank_List@@PAU1@00AAV?$allocator@UItemRank_List@@@0@@Z PROC ; std::_Uninitialized_move<ItemRank_List *,ItemRank_List *,std::allocator<ItemRank_List> >, COMDAT

; 469  : 	{	// move [_First, _Last) to raw _Dest, using _Al

  00000	55		 push	 ebp
  00001	8b ec		 mov	 ebp, esp
  00003	51		 push	 ecx

; 470  : 	return (_Uninit_move(_First, _Last, _Dest, _Al,
; 471  : 		_Val_type(_First), _Ptr_cat(_First, _Dest)));

  00004	8b 45 fc	 mov	 eax, DWORD PTR __Cat$213050[ebp]
  00007	8b 4d 14	 mov	 ecx, DWORD PTR __Al$[ebp]
  0000a	8b 55 10	 mov	 edx, DWORD PTR __Dest$[ebp]
  0000d	50		 push	 eax
  0000e	8b 45 0c	 mov	 eax, DWORD PTR __Last$[ebp]
  00011	6a 00		 push	 0
  00013	51		 push	 ecx
  00014	8b 4d 08	 mov	 ecx, DWORD PTR __First$[ebp]
  00017	52		 push	 edx
  00018	50		 push	 eax
  00019	51		 push	 ecx
  0001a	e8 00 00 00 00	 call	 ??$_Uninit_move@PAUItemRank_List@@PAU1@V?$allocator@UItemRank_List@@@std@@U1@@std@@YAPAUItemRank_List@@PAU1@00AAV?$allocator@UItemRank_List@@@0@0U_Nonscalar_ptr_iterator_tag@0@@Z ; std::_Uninit_move<ItemRank_List *,ItemRank_List *,std::allocator<ItemRank_List>,ItemRank_List>
  0001f	83 c4 18	 add	 esp, 24			; 00000018H

; 472  : 	}

  00022	8b e5		 mov	 esp, ebp
  00024	5d		 pop	 ebp
  00025	c3		 ret	 0
??$_Uninitialized_move@PAUItemRank_List@@PAU1@V?$allocator@UItemRank_List@@@std@@@std@@YAPAUItemRank_List@@PAU1@00AAV?$allocator@UItemRank_List@@@0@@Z ENDP ; std::_Uninitialized_move<ItemRank_List *,ItemRank_List *,std::allocator<ItemRank_List> >
_TEXT	ENDS
PUBLIC	?_Destroy@?$vector@UItemRank_Data@@V?$allocator@UItemRank_Data@@@std@@@std@@IAEXPAUItemRank_Data@@0@Z ; std::vector<ItemRank_Data,std::allocator<ItemRank_Data> >::_Destroy
; Function compile flags: /Ogtp
; File d:\program files (x86)\microsoft visual studio 10.0\vc\include\vector
;	COMDAT ?_Destroy@?$vector@UItemRank_Data@@V?$allocator@UItemRank_Data@@@std@@@std@@IAEXPAUItemRank_Data@@0@Z
_TEXT	SEGMENT
__First$ = 8						; size = 4
__Last$ = 12						; size = 4
?_Destroy@?$vector@UItemRank_Data@@V?$allocator@UItemRank_Data@@@std@@@std@@IAEXPAUItemRank_Data@@0@Z PROC ; std::vector<ItemRank_Data,std::allocator<ItemRank_Data> >::_Destroy, COMDAT
; _this$ = ecx

; 1270 : 		_Destroy_range(_First, _Last, this->_Alval);
; 1271 : 		}

  00000	c2 08 00	 ret	 8
?_Destroy@?$vector@UItemRank_Data@@V?$allocator@UItemRank_Data@@@std@@@std@@IAEXPAUItemRank_Data@@0@Z ENDP ; std::vector<ItemRank_Data,std::allocator<ItemRank_Data> >::_Destroy
_TEXT	ENDS
PUBLIC	?_Destroy@?$vector@UItemRank_List@@V?$allocator@UItemRank_List@@@std@@@std@@IAEXPAUItemRank_List@@0@Z ; std::vector<ItemRank_List,std::allocator<ItemRank_List> >::_Destroy
; Function compile flags: /Ogtp
;	COMDAT ?_Destroy@?$vector@UItemRank_List@@V?$allocator@UItemRank_List@@@std@@@std@@IAEXPAUItemRank_List@@0@Z
_TEXT	SEGMENT
__First$ = 8						; size = 4
__Last$ = 12						; size = 4
?_Destroy@?$vector@UItemRank_List@@V?$allocator@UItemRank_List@@@std@@@std@@IAEXPAUItemRank_List@@0@Z PROC ; std::vector<ItemRank_List,std::allocator<ItemRank_List> >::_Destroy, COMDAT
; _this$ = ecx

; 1270 : 		_Destroy_range(_First, _Last, this->_Alval);
; 1271 : 		}

  00000	c2 08 00	 ret	 8
?_Destroy@?$vector@UItemRank_List@@V?$allocator@UItemRank_List@@@std@@@std@@IAEXPAUItemRank_List@@0@Z ENDP ; std::vector<ItemRank_List,std::allocator<ItemRank_List> >::_Destroy
_TEXT	ENDS
PUBLIC	??$_Umove@PAUItemRank_Data@@@?$vector@UItemRank_Data@@V?$allocator@UItemRank_Data@@@std@@@std@@IAEPAUItemRank_Data@@PAU2@00@Z ; std::vector<ItemRank_Data,std::allocator<ItemRank_Data> >::_Umove<ItemRank_Data *>
; Function compile flags: /Ogtp
;	COMDAT ??$_Umove@PAUItemRank_Data@@@?$vector@UItemRank_Data@@V?$allocator@UItemRank_Data@@@std@@@std@@IAEPAUItemRank_Data@@PAU2@00@Z
_TEXT	SEGMENT
__First$ = 8						; size = 4
__Last$ = 12						; size = 4
__Cat$213075 = 16					; size = 1
__Ptr$ = 16						; size = 4
??$_Umove@PAUItemRank_Data@@@?$vector@UItemRank_Data@@V?$allocator@UItemRank_Data@@@std@@@std@@IAEPAUItemRank_Data@@PAU2@00@Z PROC ; std::vector<ItemRank_Data,std::allocator<ItemRank_Data> >::_Umove<ItemRank_Data *>, COMDAT
; _this$ = ecx

; 1322 : 		pointer _Umove(_Iter _First, _Iter _Last, pointer _Ptr)

  00000	55		 push	 ebp
  00001	8b ec		 mov	 ebp, esp

; 1323 : 		{	// move initializing [_First, _Last), using allocator
; 1324 : 		return (_Uninitialized_move(_First, _Last,
; 1325 : 			_Ptr, this->_Alval));

  00003	8b 45 10	 mov	 eax, DWORD PTR __Cat$213075[ebp]
  00006	8b 55 0c	 mov	 edx, DWORD PTR __Last$[ebp]
  00009	50		 push	 eax
  0000a	8b 45 08	 mov	 eax, DWORD PTR __First$[ebp]
  0000d	6a 00		 push	 0
  0000f	83 c1 0c	 add	 ecx, 12			; 0000000cH
  00012	51		 push	 ecx
  00013	8b 4d 10	 mov	 ecx, DWORD PTR __Ptr$[ebp]
  00016	51		 push	 ecx
  00017	52		 push	 edx
  00018	50		 push	 eax
  00019	e8 00 00 00 00	 call	 ??$_Uninit_move@PAUItemRank_Data@@PAU1@V?$allocator@UItemRank_Data@@@std@@U1@@std@@YAPAUItemRank_Data@@PAU1@00AAV?$allocator@UItemRank_Data@@@0@0U_Nonscalar_ptr_iterator_tag@0@@Z ; std::_Uninit_move<ItemRank_Data *,ItemRank_Data *,std::allocator<ItemRank_Data>,ItemRank_Data>
  0001e	83 c4 18	 add	 esp, 24			; 00000018H

; 1326 : 		}

  00021	5d		 pop	 ebp
  00022	c2 0c 00	 ret	 12			; 0000000cH
??$_Umove@PAUItemRank_Data@@@?$vector@UItemRank_Data@@V?$allocator@UItemRank_Data@@@std@@@std@@IAEPAUItemRank_Data@@PAU2@00@Z ENDP ; std::vector<ItemRank_Data,std::allocator<ItemRank_Data> >::_Umove<ItemRank_Data *>
_TEXT	ENDS
PUBLIC	??$_Umove@PAUItemRank_List@@@?$vector@UItemRank_List@@V?$allocator@UItemRank_List@@@std@@@std@@IAEPAUItemRank_List@@PAU2@00@Z ; std::vector<ItemRank_List,std::allocator<ItemRank_List> >::_Umove<ItemRank_List *>
; Function compile flags: /Ogtp
;	COMDAT ??$_Umove@PAUItemRank_List@@@?$vector@UItemRank_List@@V?$allocator@UItemRank_List@@@std@@@std@@IAEPAUItemRank_List@@PAU2@00@Z
_TEXT	SEGMENT
__First$ = 8						; size = 4
__Last$ = 12						; size = 4
__Cat$213094 = 16					; size = 1
__Ptr$ = 16						; size = 4
??$_Umove@PAUItemRank_List@@@?$vector@UItemRank_List@@V?$allocator@UItemRank_List@@@std@@@std@@IAEPAUItemRank_List@@PAU2@00@Z PROC ; std::vector<ItemRank_List,std::allocator<ItemRank_List> >::_Umove<ItemRank_List *>, COMDAT
; _this$ = ecx

; 1322 : 		pointer _Umove(_Iter _First, _Iter _Last, pointer _Ptr)

  00000	55		 push	 ebp
  00001	8b ec		 mov	 ebp, esp

; 1323 : 		{	// move initializing [_First, _Last), using allocator
; 1324 : 		return (_Uninitialized_move(_First, _Last,
; 1325 : 			_Ptr, this->_Alval));

  00003	8b 45 10	 mov	 eax, DWORD PTR __Cat$213094[ebp]
  00006	8b 55 0c	 mov	 edx, DWORD PTR __Last$[ebp]
  00009	50		 push	 eax
  0000a	8b 45 08	 mov	 eax, DWORD PTR __First$[ebp]
  0000d	6a 00		 push	 0
  0000f	83 c1 0c	 add	 ecx, 12			; 0000000cH
  00012	51		 push	 ecx
  00013	8b 4d 10	 mov	 ecx, DWORD PTR __Ptr$[ebp]
  00016	51		 push	 ecx
  00017	52		 push	 edx
  00018	50		 push	 eax
  00019	e8 00 00 00 00	 call	 ??$_Uninit_move@PAUItemRank_List@@PAU1@V?$allocator@UItemRank_List@@@std@@U1@@std@@YAPAUItemRank_List@@PAU1@00AAV?$allocator@UItemRank_List@@@0@0U_Nonscalar_ptr_iterator_tag@0@@Z ; std::_Uninit_move<ItemRank_List *,ItemRank_List *,std::allocator<ItemRank_List>,ItemRank_List>
  0001e	83 c4 18	 add	 esp, 24			; 00000018H

; 1326 : 		}

  00021	5d		 pop	 ebp
  00022	c2 0c 00	 ret	 12			; 0000000cH
??$_Umove@PAUItemRank_List@@@?$vector@UItemRank_List@@V?$allocator@UItemRank_List@@@std@@@std@@IAEPAUItemRank_List@@PAU2@00@Z ENDP ; std::vector<ItemRank_List,std::allocator<ItemRank_List> >::_Umove<ItemRank_List *>
_TEXT	ENDS
PUBLIC	?erase@?$vector@UItemRank_Data@@V?$allocator@UItemRank_Data@@@std@@@std@@QAE?AV?$_Vector_iterator@V?$_Vector_val@UItemRank_Data@@V?$allocator@UItemRank_Data@@@std@@@std@@@2@V?$_Vector_const_iterator@V?$_Vector_val@UItemRank_Data@@V?$allocator@UItemRank_Data@@@std@@@std@@@2@0@Z ; std::vector<ItemRank_Data,std::allocator<ItemRank_Data> >::erase
; Function compile flags: /Ogtp
;	COMDAT ?erase@?$vector@UItemRank_Data@@V?$allocator@UItemRank_Data@@@std@@@std@@QAE?AV?$_Vector_iterator@V?$_Vector_val@UItemRank_Data@@V?$allocator@UItemRank_Data@@@std@@@std@@@2@V?$_Vector_const_iterator@V?$_Vector_val@UItemRank_Data@@V?$allocator@UItemRank_Data@@@std@@@std@@@2@0@Z
_TEXT	SEGMENT
___$ReturnUdt$ = 8					; size = 4
__First_arg$ = 12					; size = 4
__Last_arg$ = 16					; size = 4
?erase@?$vector@UItemRank_Data@@V?$allocator@UItemRank_Data@@@std@@@std@@QAE?AV?$_Vector_iterator@V?$_Vector_val@UItemRank_Data@@V?$allocator@UItemRank_Data@@@std@@@std@@@2@V?$_Vector_const_iterator@V?$_Vector_val@UItemRank_Data@@V?$allocator@UItemRank_Data@@@std@@@std@@@2@0@Z PROC ; std::vector<ItemRank_Data,std::allocator<ItemRank_Data> >::erase, COMDAT
; _this$ = ecx

; 1190 : 		{	// erase [_First, _Last)

  00000	55		 push	 ebp
  00001	8b ec		 mov	 ebp, esp

; 1191 : 		iterator _First = _Make_iter(_First_arg);
; 1192 : 		iterator _Last = _Make_iter(_Last_arg);
; 1193 : 
; 1194 : 		if (_First != _Last)

  00003	8b 55 10	 mov	 edx, DWORD PTR __Last_arg$[ebp]
  00006	8b 45 08	 mov	 eax, DWORD PTR ___$ReturnUdt$[ebp]
  00009	56		 push	 esi
  0000a	8b 75 0c	 mov	 esi, DWORD PTR __First_arg$[ebp]
  0000d	89 30		 mov	 DWORD PTR [eax], esi
  0000f	3b f2		 cmp	 esi, edx
  00011	74 2e		 je	 SHORT $LN1@erase

; 1195 : 			{	// worth doing, copy down over hole
; 1196 :  #if _ITERATOR_DEBUG_LEVEL == 2
; 1197 : 			if (_Last < _First || _VICONT(_First) != this
; 1198 : 				|| _VIPTR(_First) < this->_Myfirst
; 1199 : 				|| this->_Mylast < _VIPTR(_Last))
; 1200 : 				_DEBUG_ERROR("vector erase iterator outside range");
; 1201 : 			pointer _Ptr = _Move(_VIPTR(_Last), this->_Mylast,
; 1202 : 				_VIPTR(_First));
; 1203 : 			_Orphan_range(_VIPTR(_First), this->_Mylast);
; 1204 : 
; 1205 :  #else /* _ITERATOR_DEBUG_LEVEL == 2 */
; 1206 : 			pointer _Ptr = _Move(_VIPTR(_Last), this->_Mylast,
; 1207 : 				_VIPTR(_First));

  00013	57		 push	 edi
  00014	8b 79 04	 mov	 edi, DWORD PTR [ecx+4]
  00017	3b d7		 cmp	 edx, edi
  00019	74 22		 je	 SHORT $LN30@erase
  0001b	53		 push	 ebx
  0001c	8d 64 24 00	 npad	 4
$LL32@erase:
  00020	8b 1a		 mov	 ebx, DWORD PTR [edx]
  00022	89 1e		 mov	 DWORD PTR [esi], ebx
  00024	66 8b 5a 04	 mov	 bx, WORD PTR [edx+4]
  00028	66 89 5e 04	 mov	 WORD PTR [esi+4], bx
  0002c	8a 5a 06	 mov	 bl, BYTE PTR [edx+6]
  0002f	88 5e 06	 mov	 BYTE PTR [esi+6], bl
  00032	83 c2 07	 add	 edx, 7
  00035	83 c6 07	 add	 esi, 7
  00038	3b d7		 cmp	 edx, edi
  0003a	75 e4		 jne	 SHORT $LL32@erase
  0003c	5b		 pop	 ebx
$LN30@erase:

; 1208 :  #endif /* _ITERATOR_DEBUG_LEVEL == 2 */
; 1209 : 
; 1210 : 			_Destroy(_Ptr, this->_Mylast);
; 1211 : 			this->_Mylast = _Ptr;

  0003d	89 71 04	 mov	 DWORD PTR [ecx+4], esi
  00040	5f		 pop	 edi
$LN1@erase:
  00041	5e		 pop	 esi

; 1212 : 			}
; 1213 : 		return (_First);
; 1214 : 		}

  00042	5d		 pop	 ebp
  00043	c2 0c 00	 ret	 12			; 0000000cH
?erase@?$vector@UItemRank_Data@@V?$allocator@UItemRank_Data@@@std@@@std@@QAE?AV?$_Vector_iterator@V?$_Vector_val@UItemRank_Data@@V?$allocator@UItemRank_Data@@@std@@@std@@@2@V?$_Vector_const_iterator@V?$_Vector_val@UItemRank_Data@@V?$allocator@UItemRank_Data@@@std@@@std@@@2@0@Z ENDP ; std::vector<ItemRank_Data,std::allocator<ItemRank_Data> >::erase
_TEXT	ENDS
PUBLIC	?_Tidy@?$vector@UItemRank_Data@@V?$allocator@UItemRank_Data@@@std@@@std@@IAEXXZ ; std::vector<ItemRank_Data,std::allocator<ItemRank_Data> >::_Tidy
; Function compile flags: /Ogtp
;	COMDAT ?_Tidy@?$vector@UItemRank_Data@@V?$allocator@UItemRank_Data@@@std@@@std@@IAEXXZ
_TEXT	SEGMENT
?_Tidy@?$vector@UItemRank_Data@@V?$allocator@UItemRank_Data@@@std@@@std@@IAEXXZ PROC ; std::vector<ItemRank_Data,std::allocator<ItemRank_Data> >::_Tidy, COMDAT
; _this$ = ecx

; 1301 : 		{	// free all storage

  00000	56		 push	 esi
  00001	8b f1		 mov	 esi, ecx

; 1302 : 		if (this->_Myfirst != 0)

  00003	8b 06		 mov	 eax, DWORD PTR [esi]
  00005	85 c0		 test	 eax, eax
  00007	74 09		 je	 SHORT $LN6@Tidy

; 1303 : 			{	// something to free, destroy and deallocate it
; 1304 : 			this->_Orphan_all();
; 1305 : 			_Destroy(this->_Myfirst, this->_Mylast);
; 1306 : 			this->_Alval.deallocate(this->_Myfirst,
; 1307 : 				this->_Myend - this->_Myfirst);

  00009	50		 push	 eax
  0000a	e8 00 00 00 00	 call	 ??3@YAXPAX@Z		; operator delete
  0000f	83 c4 04	 add	 esp, 4
$LN6@Tidy:

; 1308 : 			}
; 1309 : 		this->_Myfirst = 0;

  00012	c7 06 00 00 00
	00		 mov	 DWORD PTR [esi], 0

; 1310 : 		this->_Mylast = 0;

  00018	c7 46 04 00 00
	00 00		 mov	 DWORD PTR [esi+4], 0

; 1311 : 		this->_Myend = 0;

  0001f	c7 46 08 00 00
	00 00		 mov	 DWORD PTR [esi+8], 0
  00026	5e		 pop	 esi

; 1312 : 		}

  00027	c3		 ret	 0
?_Tidy@?$vector@UItemRank_Data@@V?$allocator@UItemRank_Data@@@std@@@std@@IAEXXZ ENDP ; std::vector<ItemRank_Data,std::allocator<ItemRank_Data> >::_Tidy
_TEXT	ENDS
PUBLIC	?erase@?$vector@UItemRank_List@@V?$allocator@UItemRank_List@@@std@@@std@@QAE?AV?$_Vector_iterator@V?$_Vector_val@UItemRank_List@@V?$allocator@UItemRank_List@@@std@@@std@@@2@V?$_Vector_const_iterator@V?$_Vector_val@UItemRank_List@@V?$allocator@UItemRank_List@@@std@@@std@@@2@0@Z ; std::vector<ItemRank_List,std::allocator<ItemRank_List> >::erase
; Function compile flags: /Ogtp
;	COMDAT ?erase@?$vector@UItemRank_List@@V?$allocator@UItemRank_List@@@std@@@std@@QAE?AV?$_Vector_iterator@V?$_Vector_val@UItemRank_List@@V?$allocator@UItemRank_List@@@std@@@std@@@2@V?$_Vector_const_iterator@V?$_Vector_val@UItemRank_List@@V?$allocator@UItemRank_List@@@std@@@std@@@2@0@Z
_TEXT	SEGMENT
___$ReturnUdt$ = 8					; size = 4
__First_arg$ = 12					; size = 4
__Last_arg$ = 16					; size = 4
?erase@?$vector@UItemRank_List@@V?$allocator@UItemRank_List@@@std@@@std@@QAE?AV?$_Vector_iterator@V?$_Vector_val@UItemRank_List@@V?$allocator@UItemRank_List@@@std@@@std@@@2@V?$_Vector_const_iterator@V?$_Vector_val@UItemRank_List@@V?$allocator@UItemRank_List@@@std@@@std@@@2@0@Z PROC ; std::vector<ItemRank_List,std::allocator<ItemRank_List> >::erase, COMDAT
; _this$ = ecx

; 1190 : 		{	// erase [_First, _Last)

  00000	55		 push	 ebp
  00001	8b ec		 mov	 ebp, esp

; 1191 : 		iterator _First = _Make_iter(_First_arg);
; 1192 : 		iterator _Last = _Make_iter(_Last_arg);
; 1193 : 
; 1194 : 		if (_First != _Last)

  00003	8b 55 10	 mov	 edx, DWORD PTR __Last_arg$[ebp]
  00006	8b 45 08	 mov	 eax, DWORD PTR ___$ReturnUdt$[ebp]
  00009	56		 push	 esi
  0000a	8b 75 0c	 mov	 esi, DWORD PTR __First_arg$[ebp]
  0000d	89 30		 mov	 DWORD PTR [eax], esi
  0000f	3b f2		 cmp	 esi, edx
  00011	74 28		 je	 SHORT $LN1@erase@2

; 1195 : 			{	// worth doing, copy down over hole
; 1196 :  #if _ITERATOR_DEBUG_LEVEL == 2
; 1197 : 			if (_Last < _First || _VICONT(_First) != this
; 1198 : 				|| _VIPTR(_First) < this->_Myfirst
; 1199 : 				|| this->_Mylast < _VIPTR(_Last))
; 1200 : 				_DEBUG_ERROR("vector erase iterator outside range");
; 1201 : 			pointer _Ptr = _Move(_VIPTR(_Last), this->_Mylast,
; 1202 : 				_VIPTR(_First));
; 1203 : 			_Orphan_range(_VIPTR(_First), this->_Mylast);
; 1204 : 
; 1205 :  #else /* _ITERATOR_DEBUG_LEVEL == 2 */
; 1206 : 			pointer _Ptr = _Move(_VIPTR(_Last), this->_Mylast,
; 1207 : 				_VIPTR(_First));

  00013	57		 push	 edi
  00014	8b 79 04	 mov	 edi, DWORD PTR [ecx+4]
  00017	3b d7		 cmp	 edx, edi
  00019	74 1c		 je	 SHORT $LN30@erase@2
  0001b	53		 push	 ebx
  0001c	8d 64 24 00	 npad	 4
$LL32@erase@2:
  00020	8b 1a		 mov	 ebx, DWORD PTR [edx]
  00022	89 1e		 mov	 DWORD PTR [esi], ebx
  00024	66 8b 5a 04	 mov	 bx, WORD PTR [edx+4]
  00028	66 89 5e 04	 mov	 WORD PTR [esi+4], bx
  0002c	83 c2 06	 add	 edx, 6
  0002f	83 c6 06	 add	 esi, 6
  00032	3b d7		 cmp	 edx, edi
  00034	75 ea		 jne	 SHORT $LL32@erase@2
  00036	5b		 pop	 ebx
$LN30@erase@2:

; 1208 :  #endif /* _ITERATOR_DEBUG_LEVEL == 2 */
; 1209 : 
; 1210 : 			_Destroy(_Ptr, this->_Mylast);
; 1211 : 			this->_Mylast = _Ptr;

  00037	89 71 04	 mov	 DWORD PTR [ecx+4], esi
  0003a	5f		 pop	 edi
$LN1@erase@2:
  0003b	5e		 pop	 esi

; 1212 : 			}
; 1213 : 		return (_First);
; 1214 : 		}

  0003c	5d		 pop	 ebp
  0003d	c2 0c 00	 ret	 12			; 0000000cH
?erase@?$vector@UItemRank_List@@V?$allocator@UItemRank_List@@@std@@@std@@QAE?AV?$_Vector_iterator@V?$_Vector_val@UItemRank_List@@V?$allocator@UItemRank_List@@@std@@@std@@@2@V?$_Vector_const_iterator@V?$_Vector_val@UItemRank_List@@V?$allocator@UItemRank_List@@@std@@@std@@@2@0@Z ENDP ; std::vector<ItemRank_List,std::allocator<ItemRank_List> >::erase
_TEXT	ENDS
PUBLIC	?_Tidy@?$vector@UItemRank_List@@V?$allocator@UItemRank_List@@@std@@@std@@IAEXXZ ; std::vector<ItemRank_List,std::allocator<ItemRank_List> >::_Tidy
; Function compile flags: /Ogtp
;	COMDAT ?_Tidy@?$vector@UItemRank_List@@V?$allocator@UItemRank_List@@@std@@@std@@IAEXXZ
_TEXT	SEGMENT
?_Tidy@?$vector@UItemRank_List@@V?$allocator@UItemRank_List@@@std@@@std@@IAEXXZ PROC ; std::vector<ItemRank_List,std::allocator<ItemRank_List> >::_Tidy, COMDAT
; _this$ = ecx

; 1301 : 		{	// free all storage

  00000	56		 push	 esi
  00001	8b f1		 mov	 esi, ecx

; 1302 : 		if (this->_Myfirst != 0)

  00003	8b 06		 mov	 eax, DWORD PTR [esi]
  00005	85 c0		 test	 eax, eax
  00007	74 09		 je	 SHORT $LN6@Tidy@2

; 1303 : 			{	// something to free, destroy and deallocate it
; 1304 : 			this->_Orphan_all();
; 1305 : 			_Destroy(this->_Myfirst, this->_Mylast);
; 1306 : 			this->_Alval.deallocate(this->_Myfirst,
; 1307 : 				this->_Myend - this->_Myfirst);

  00009	50		 push	 eax
  0000a	e8 00 00 00 00	 call	 ??3@YAXPAX@Z		; operator delete
  0000f	83 c4 04	 add	 esp, 4
$LN6@Tidy@2:

; 1308 : 			}
; 1309 : 		this->_Myfirst = 0;

  00012	c7 06 00 00 00
	00		 mov	 DWORD PTR [esi], 0

; 1310 : 		this->_Mylast = 0;

  00018	c7 46 04 00 00
	00 00		 mov	 DWORD PTR [esi+4], 0

; 1311 : 		this->_Myend = 0;

  0001f	c7 46 08 00 00
	00 00		 mov	 DWORD PTR [esi+8], 0
  00026	5e		 pop	 esi

; 1312 : 		}

  00027	c3		 ret	 0
?_Tidy@?$vector@UItemRank_List@@V?$allocator@UItemRank_List@@@std@@@std@@IAEXXZ ENDP ; std::vector<ItemRank_List,std::allocator<ItemRank_List> >::_Tidy
_TEXT	ENDS
PUBLIC	?reserve@?$vector@UItemRank_Data@@V?$allocator@UItemRank_Data@@@std@@@std@@QAEXI@Z ; std::vector<ItemRank_Data,std::allocator<ItemRank_Data> >::reserve
EXTRN	___CxxFrameHandler3:PROC
;	COMDAT xdata$x
; File d:\program files (x86)\microsoft visual studio 10.0\vc\include\xutility
xdata$x	SEGMENT
__catchsym$?reserve@?$vector@UItemRank_Data@@V?$allocator@UItemRank_Data@@@std@@@std@@QAEXI@Z$2 DD 040H
	DD	00H
	DD	00H
	DD	FLAT:__catch$?reserve@?$vector@UItemRank_Data@@V?$allocator@UItemRank_Data@@@std@@@std@@QAEXI@Z$0
__unwindtable$?reserve@?$vector@UItemRank_Data@@V?$allocator@UItemRank_Data@@@std@@@std@@QAEXI@Z DD 0ffffffffH
	DD	00H
	DD	0ffffffffH
	DD	00H
__tryblocktable$?reserve@?$vector@UItemRank_Data@@V?$allocator@UItemRank_Data@@@std@@@std@@QAEXI@Z DD 00H
	DD	00H
	DD	01H
	DD	01H
	DD	FLAT:__catchsym$?reserve@?$vector@UItemRank_Data@@V?$allocator@UItemRank_Data@@@std@@@std@@QAEXI@Z$2
__ehfuncinfo$?reserve@?$vector@UItemRank_Data@@V?$allocator@UItemRank_Data@@@std@@@std@@QAEXI@Z DD 019930522H
	DD	02H
	DD	FLAT:__unwindtable$?reserve@?$vector@UItemRank_Data@@V?$allocator@UItemRank_Data@@@std@@@std@@QAEXI@Z
	DD	01H
	DD	FLAT:__tryblocktable$?reserve@?$vector@UItemRank_Data@@V?$allocator@UItemRank_Data@@@std@@@std@@QAEXI@Z
	DD	2 DUP(00H)
	DD	00H
	DD	01H
; Function compile flags: /Ogtp
; File d:\program files (x86)\microsoft visual studio 10.0\vc\include\vector
xdata$x	ENDS
;	COMDAT ?reserve@?$vector@UItemRank_Data@@V?$allocator@UItemRank_Data@@@std@@@std@@QAEXI@Z
_TEXT	SEGMENT
__Ptr$210611 = -20					; size = 4
__$EHRec$ = -16						; size = 16
__Cat$213379 = 8					; size = 1
__Count$ = 8						; size = 4
?reserve@?$vector@UItemRank_Data@@V?$allocator@UItemRank_Data@@@std@@@std@@QAEXI@Z PROC ; std::vector<ItemRank_Data,std::allocator<ItemRank_Data> >::reserve, COMDAT
; _this$ = ecx

; 746  : 		{	// determine new minimum length of allocated storage

  00000	55		 push	 ebp
  00001	8b ec		 mov	 ebp, esp
  00003	6a ff		 push	 -1
  00005	68 00 00 00 00	 push	 __ehhandler$?reserve@?$vector@UItemRank_Data@@V?$allocator@UItemRank_Data@@@std@@@std@@QAEXI@Z
  0000a	64 a1 00 00 00
	00		 mov	 eax, DWORD PTR fs:0
  00010	50		 push	 eax
  00011	83 ec 08	 sub	 esp, 8
  00014	53		 push	 ebx
  00015	56		 push	 esi
  00016	57		 push	 edi
  00017	a1 00 00 00 00	 mov	 eax, DWORD PTR ___security_cookie
  0001c	33 c5		 xor	 eax, ebp
  0001e	50		 push	 eax
  0001f	8d 45 f4	 lea	 eax, DWORD PTR __$EHRec$[ebp+4]
  00022	64 a3 00 00 00
	00		 mov	 DWORD PTR fs:0, eax
  00028	89 65 f0	 mov	 DWORD PTR __$EHRec$[ebp], esp
  0002b	8b f1		 mov	 esi, ecx

; 747  : 		if (max_size() < _Count)

  0002d	8b 5d 08	 mov	 ebx, DWORD PTR __Count$[ebp]
  00030	81 fb 24 49 92
	24		 cmp	 ebx, 613566756		; 24924924H
  00036	76 0a		 jbe	 SHORT $LN5@reserve

; 748  : 			_Xlen();	// result too long

  00038	68 00 00 00 00	 push	 OFFSET ??_C@_0BD@OLBABOEK@vector?$DMT?$DO?5too?5long?$AA@
  0003d	e8 00 00 00 00	 call	 ?_Xlength_error@std@@YAXPBD@Z ; std::_Xlength_error
$LN42@reserve:
$LN5@reserve:

; 749  : 		else if (capacity() < _Count)

  00042	8b 4e 08	 mov	 ecx, DWORD PTR [esi+8]
  00045	2b 0e		 sub	 ecx, DWORD PTR [esi]
  00047	b8 93 24 49 92	 mov	 eax, -1840700269	; 92492493H
  0004c	f7 e9		 imul	 ecx
  0004e	03 d1		 add	 edx, ecx
  00050	c1 fa 02	 sar	 edx, 2
  00053	8b c2		 mov	 eax, edx
  00055	c1 e8 1f	 shr	 eax, 31			; 0000001fH
  00058	03 c2		 add	 eax, edx
  0005a	3b c3		 cmp	 eax, ebx
  0005c	73 77		 jae	 SHORT $LN3@reserve

; 750  : 			{	// not enough room, reallocate
; 751  : 			pointer _Ptr = this->_Alval.allocate(_Count);

  0005e	8d 7e 0c	 lea	 edi, DWORD PTR [esi+12]
  00061	53		 push	 ebx
  00062	8b cf		 mov	 ecx, edi
  00064	e8 00 00 00 00	 call	 ?allocate@?$allocator@UItemRank_Data@@@std@@QAEPAUItemRank_Data@@I@Z ; std::allocator<ItemRank_Data>::allocate

; 752  : 
; 753  : 			_TRY_BEGIN
; 754  : 			_Umove(this->_Myfirst, this->_Mylast, _Ptr);

  00069	8b 5d 08	 mov	 ebx, DWORD PTR __Cat$213379[ebp]
  0006c	8b 4e 04	 mov	 ecx, DWORD PTR [esi+4]
  0006f	8b 16		 mov	 edx, DWORD PTR [esi]
  00071	53		 push	 ebx
  00072	6a 00		 push	 0
  00074	57		 push	 edi
  00075	50		 push	 eax
  00076	51		 push	 ecx
  00077	52		 push	 edx
  00078	89 45 ec	 mov	 DWORD PTR __Ptr$210611[ebp], eax
  0007b	c7 45 fc 00 00
	00 00		 mov	 DWORD PTR __$EHRec$[ebp+12], 0
  00082	e8 00 00 00 00	 call	 ??$_Uninit_move@PAUItemRank_Data@@PAU1@V?$allocator@UItemRank_Data@@@std@@U1@@std@@YAPAUItemRank_Data@@PAU1@00AAV?$allocator@UItemRank_Data@@@0@0U_Nonscalar_ptr_iterator_tag@0@@Z ; std::_Uninit_move<ItemRank_Data *,ItemRank_Data *,std::allocator<ItemRank_Data>,ItemRank_Data>

; 758  : 			_CATCH_END
; 759  : 
; 760  : 			size_type _Size = size();

  00087	8b 1e		 mov	 ebx, DWORD PTR [esi]
  00089	8b 4e 04	 mov	 ecx, DWORD PTR [esi+4]
  0008c	2b cb		 sub	 ecx, ebx
  0008e	b8 93 24 49 92	 mov	 eax, -1840700269	; 92492493H
  00093	f7 e9		 imul	 ecx
  00095	03 d1		 add	 edx, ecx
  00097	c1 fa 02	 sar	 edx, 2
  0009a	8b fa		 mov	 edi, edx
  0009c	c1 ef 1f	 shr	 edi, 31			; 0000001fH
  0009f	83 c4 18	 add	 esp, 24			; 00000018H
  000a2	03 fa		 add	 edi, edx

; 761  : 			if (this->_Myfirst != 0)

  000a4	85 db		 test	 ebx, ebx
  000a6	74 09		 je	 SHORT $LN35@reserve

; 762  : 				{	// destroy and deallocate old array
; 763  : 				_Destroy(this->_Myfirst, this->_Mylast);
; 764  : 				this->_Alval.deallocate(this->_Myfirst,
; 765  : 					this->_Myend - this->_Myfirst);

  000a8	53		 push	 ebx
  000a9	e8 00 00 00 00	 call	 ??3@YAXPAX@Z		; operator delete
  000ae	83 c4 04	 add	 esp, 4
$LN35@reserve:

; 766  : 				}
; 767  : 
; 768  : 			this->_Orphan_all();
; 769  : 			this->_Myend = _Ptr + _Count;

  000b1	8b 45 08	 mov	 eax, DWORD PTR __Count$[ebp]
  000b4	8d 0c c5 00 00
	00 00		 lea	 ecx, DWORD PTR [eax*8]
  000bb	2b c8		 sub	 ecx, eax
  000bd	8b 45 ec	 mov	 eax, DWORD PTR __Ptr$210611[ebp]

; 770  : 			this->_Mylast = _Ptr + _Size;

  000c0	8d 14 fd 00 00
	00 00		 lea	 edx, DWORD PTR [edi*8]
  000c7	03 c8		 add	 ecx, eax
  000c9	2b d7		 sub	 edx, edi
  000cb	03 d0		 add	 edx, eax
  000cd	89 4e 08	 mov	 DWORD PTR [esi+8], ecx
  000d0	89 56 04	 mov	 DWORD PTR [esi+4], edx

; 771  : 			this->_Myfirst = _Ptr;

  000d3	89 06		 mov	 DWORD PTR [esi], eax
$LN3@reserve:

; 772  : 			}
; 773  : 		}

  000d5	8b 4d f4	 mov	 ecx, DWORD PTR __$EHRec$[ebp+4]
  000d8	64 89 0d 00 00
	00 00		 mov	 DWORD PTR fs:0, ecx
  000df	59		 pop	 ecx
  000e0	5f		 pop	 edi
  000e1	5e		 pop	 esi
  000e2	5b		 pop	 ebx
  000e3	8b e5		 mov	 esp, ebp
  000e5	5d		 pop	 ebp
  000e6	c2 04 00	 ret	 4
__catch$?reserve@?$vector@UItemRank_Data@@V?$allocator@UItemRank_Data@@@std@@@std@@QAEXI@Z$0:

; 755  : 			_CATCH_ALL
; 756  : 			this->_Alval.deallocate(_Ptr, _Count);

  000e9	8b 45 ec	 mov	 eax, DWORD PTR __Ptr$210611[ebp]
  000ec	50		 push	 eax
  000ed	e8 00 00 00 00	 call	 ??3@YAXPAX@Z		; operator delete
  000f2	83 c4 04	 add	 esp, 4

; 757  : 			_RERAISE;

  000f5	6a 00		 push	 0
  000f7	6a 00		 push	 0
  000f9	e8 00 00 00 00	 call	 __CxxThrowException@8
$LN43@reserve:
$LN41@reserve:
  000fe	cc		 int	 3
_TEXT	ENDS
;	COMDAT text$x
text$x	SEGMENT
__ehhandler$?reserve@?$vector@UItemRank_Data@@V?$allocator@UItemRank_Data@@@std@@@std@@QAEXI@Z:
  00000	8b 54 24 08	 mov	 edx, DWORD PTR [esp+8]
  00004	8d 42 0c	 lea	 eax, DWORD PTR [edx+12]
  00007	8b 4a e8	 mov	 ecx, DWORD PTR [edx-24]
  0000a	33 c8		 xor	 ecx, eax
  0000c	e8 00 00 00 00	 call	 @__security_check_cookie@4
  00011	b8 00 00 00 00	 mov	 eax, OFFSET __ehfuncinfo$?reserve@?$vector@UItemRank_Data@@V?$allocator@UItemRank_Data@@@std@@@std@@QAEXI@Z
  00016	e9 00 00 00 00	 jmp	 ___CxxFrameHandler3
text$x	ENDS
?reserve@?$vector@UItemRank_Data@@V?$allocator@UItemRank_Data@@@std@@@std@@QAEXI@Z ENDP ; std::vector<ItemRank_Data,std::allocator<ItemRank_Data> >::reserve
PUBLIC	?reserve@?$vector@UItemRank_List@@V?$allocator@UItemRank_List@@@std@@@std@@QAEXI@Z ; std::vector<ItemRank_List,std::allocator<ItemRank_List> >::reserve
;	COMDAT xdata$x
; File d:\program files (x86)\microsoft visual studio 10.0\vc\include\xutility
xdata$x	SEGMENT
__catchsym$?reserve@?$vector@UItemRank_List@@V?$allocator@UItemRank_List@@@std@@@std@@QAEXI@Z$2 DD 040H
	DD	00H
	DD	00H
	DD	FLAT:__catch$?reserve@?$vector@UItemRank_List@@V?$allocator@UItemRank_List@@@std@@@std@@QAEXI@Z$0
__unwindtable$?reserve@?$vector@UItemRank_List@@V?$allocator@UItemRank_List@@@std@@@std@@QAEXI@Z DD 0ffffffffH
	DD	00H
	DD	0ffffffffH
	DD	00H
__tryblocktable$?reserve@?$vector@UItemRank_List@@V?$allocator@UItemRank_List@@@std@@@std@@QAEXI@Z DD 00H
	DD	00H
	DD	01H
	DD	01H
	DD	FLAT:__catchsym$?reserve@?$vector@UItemRank_List@@V?$allocator@UItemRank_List@@@std@@@std@@QAEXI@Z$2
__ehfuncinfo$?reserve@?$vector@UItemRank_List@@V?$allocator@UItemRank_List@@@std@@@std@@QAEXI@Z DD 019930522H
	DD	02H
	DD	FLAT:__unwindtable$?reserve@?$vector@UItemRank_List@@V?$allocator@UItemRank_List@@@std@@@std@@QAEXI@Z
	DD	01H
	DD	FLAT:__tryblocktable$?reserve@?$vector@UItemRank_List@@V?$allocator@UItemRank_List@@@std@@@std@@QAEXI@Z
	DD	2 DUP(00H)
	DD	00H
	DD	01H
; Function compile flags: /Ogtp
; File d:\program files (x86)\microsoft visual studio 10.0\vc\include\vector
xdata$x	ENDS
;	COMDAT ?reserve@?$vector@UItemRank_List@@V?$allocator@UItemRank_List@@@std@@@std@@QAEXI@Z
_TEXT	SEGMENT
__Ptr$210652 = -20					; size = 4
__$EHRec$ = -16						; size = 16
__Cat$213465 = 8					; size = 1
__Count$ = 8						; size = 4
?reserve@?$vector@UItemRank_List@@V?$allocator@UItemRank_List@@@std@@@std@@QAEXI@Z PROC ; std::vector<ItemRank_List,std::allocator<ItemRank_List> >::reserve, COMDAT
; _this$ = ecx

; 746  : 		{	// determine new minimum length of allocated storage

  00000	55		 push	 ebp
  00001	8b ec		 mov	 ebp, esp
  00003	6a ff		 push	 -1
  00005	68 00 00 00 00	 push	 __ehhandler$?reserve@?$vector@UItemRank_List@@V?$allocator@UItemRank_List@@@std@@@std@@QAEXI@Z
  0000a	64 a1 00 00 00
	00		 mov	 eax, DWORD PTR fs:0
  00010	50		 push	 eax
  00011	83 ec 08	 sub	 esp, 8
  00014	53		 push	 ebx
  00015	56		 push	 esi
  00016	57		 push	 edi
  00017	a1 00 00 00 00	 mov	 eax, DWORD PTR ___security_cookie
  0001c	33 c5		 xor	 eax, ebp
  0001e	50		 push	 eax
  0001f	8d 45 f4	 lea	 eax, DWORD PTR __$EHRec$[ebp+4]
  00022	64 a3 00 00 00
	00		 mov	 DWORD PTR fs:0, eax
  00028	89 65 f0	 mov	 DWORD PTR __$EHRec$[ebp], esp
  0002b	8b f1		 mov	 esi, ecx

; 747  : 		if (max_size() < _Count)

  0002d	8b 5d 08	 mov	 ebx, DWORD PTR __Count$[ebp]
  00030	81 fb aa aa aa
	2a		 cmp	 ebx, 715827882		; 2aaaaaaaH
  00036	76 0a		 jbe	 SHORT $LN5@reserve@2

; 748  : 			_Xlen();	// result too long

  00038	68 00 00 00 00	 push	 OFFSET ??_C@_0BD@OLBABOEK@vector?$DMT?$DO?5too?5long?$AA@
  0003d	e8 00 00 00 00	 call	 ?_Xlength_error@std@@YAXPBD@Z ; std::_Xlength_error
$LN42@reserve@2:
$LN5@reserve@2:

; 749  : 		else if (capacity() < _Count)

  00042	8b 4e 08	 mov	 ecx, DWORD PTR [esi+8]
  00045	2b 0e		 sub	 ecx, DWORD PTR [esi]
  00047	b8 ab aa aa 2a	 mov	 eax, 715827883		; 2aaaaaabH
  0004c	f7 e9		 imul	 ecx
  0004e	8b c2		 mov	 eax, edx
  00050	c1 e8 1f	 shr	 eax, 31			; 0000001fH
  00053	03 c2		 add	 eax, edx
  00055	3b c3		 cmp	 eax, ebx
  00057	73 68		 jae	 SHORT $LN3@reserve@2

; 750  : 			{	// not enough room, reallocate
; 751  : 			pointer _Ptr = this->_Alval.allocate(_Count);

  00059	8d 7e 0c	 lea	 edi, DWORD PTR [esi+12]
  0005c	53		 push	 ebx
  0005d	8b cf		 mov	 ecx, edi
  0005f	e8 00 00 00 00	 call	 ?allocate@?$allocator@UItemRank_List@@@std@@QAEPAUItemRank_List@@I@Z ; std::allocator<ItemRank_List>::allocate

; 752  : 
; 753  : 			_TRY_BEGIN
; 754  : 			_Umove(this->_Myfirst, this->_Mylast, _Ptr);

  00064	8b 5d 08	 mov	 ebx, DWORD PTR __Cat$213465[ebp]
  00067	8b 4e 04	 mov	 ecx, DWORD PTR [esi+4]
  0006a	8b 16		 mov	 edx, DWORD PTR [esi]
  0006c	53		 push	 ebx
  0006d	6a 00		 push	 0
  0006f	57		 push	 edi
  00070	50		 push	 eax
  00071	51		 push	 ecx
  00072	52		 push	 edx
  00073	89 45 ec	 mov	 DWORD PTR __Ptr$210652[ebp], eax
  00076	c7 45 fc 00 00
	00 00		 mov	 DWORD PTR __$EHRec$[ebp+12], 0
  0007d	e8 00 00 00 00	 call	 ??$_Uninit_move@PAUItemRank_List@@PAU1@V?$allocator@UItemRank_List@@@std@@U1@@std@@YAPAUItemRank_List@@PAU1@00AAV?$allocator@UItemRank_List@@@0@0U_Nonscalar_ptr_iterator_tag@0@@Z ; std::_Uninit_move<ItemRank_List *,ItemRank_List *,std::allocator<ItemRank_List>,ItemRank_List>

; 758  : 			_CATCH_END
; 759  : 
; 760  : 			size_type _Size = size();

  00082	8b 1e		 mov	 ebx, DWORD PTR [esi]
  00084	8b 4e 04	 mov	 ecx, DWORD PTR [esi+4]
  00087	2b cb		 sub	 ecx, ebx
  00089	b8 ab aa aa 2a	 mov	 eax, 715827883		; 2aaaaaabH
  0008e	f7 e9		 imul	 ecx
  00090	8b fa		 mov	 edi, edx
  00092	c1 ef 1f	 shr	 edi, 31			; 0000001fH
  00095	83 c4 18	 add	 esp, 24			; 00000018H
  00098	03 fa		 add	 edi, edx

; 761  : 			if (this->_Myfirst != 0)

  0009a	85 db		 test	 ebx, ebx
  0009c	74 09		 je	 SHORT $LN35@reserve@2

; 762  : 				{	// destroy and deallocate old array
; 763  : 				_Destroy(this->_Myfirst, this->_Mylast);
; 764  : 				this->_Alval.deallocate(this->_Myfirst,
; 765  : 					this->_Myend - this->_Myfirst);

  0009e	53		 push	 ebx
  0009f	e8 00 00 00 00	 call	 ??3@YAXPAX@Z		; operator delete
  000a4	83 c4 04	 add	 esp, 4
$LN35@reserve@2:

; 766  : 				}
; 767  : 
; 768  : 			this->_Orphan_all();
; 769  : 			this->_Myend = _Ptr + _Count;

  000a7	8b 45 08	 mov	 eax, DWORD PTR __Count$[ebp]
  000aa	8d 0c 40	 lea	 ecx, DWORD PTR [eax+eax*2]
  000ad	8b 45 ec	 mov	 eax, DWORD PTR __Ptr$210652[ebp]
  000b0	8d 14 48	 lea	 edx, DWORD PTR [eax+ecx*2]

; 770  : 			this->_Mylast = _Ptr + _Size;

  000b3	8d 0c 7f	 lea	 ecx, DWORD PTR [edi+edi*2]
  000b6	89 56 08	 mov	 DWORD PTR [esi+8], edx
  000b9	8d 14 48	 lea	 edx, DWORD PTR [eax+ecx*2]
  000bc	89 56 04	 mov	 DWORD PTR [esi+4], edx

; 771  : 			this->_Myfirst = _Ptr;

  000bf	89 06		 mov	 DWORD PTR [esi], eax
$LN3@reserve@2:

; 772  : 			}
; 773  : 		}

  000c1	8b 4d f4	 mov	 ecx, DWORD PTR __$EHRec$[ebp+4]
  000c4	64 89 0d 00 00
	00 00		 mov	 DWORD PTR fs:0, ecx
  000cb	59		 pop	 ecx
  000cc	5f		 pop	 edi
  000cd	5e		 pop	 esi
  000ce	5b		 pop	 ebx
  000cf	8b e5		 mov	 esp, ebp
  000d1	5d		 pop	 ebp
  000d2	c2 04 00	 ret	 4
__catch$?reserve@?$vector@UItemRank_List@@V?$allocator@UItemRank_List@@@std@@@std@@QAEXI@Z$0:

; 755  : 			_CATCH_ALL
; 756  : 			this->_Alval.deallocate(_Ptr, _Count);

  000d5	8b 45 ec	 mov	 eax, DWORD PTR __Ptr$210652[ebp]
  000d8	50		 push	 eax
  000d9	e8 00 00 00 00	 call	 ??3@YAXPAX@Z		; operator delete
  000de	83 c4 04	 add	 esp, 4

; 757  : 			_RERAISE;

  000e1	6a 00		 push	 0
  000e3	6a 00		 push	 0
  000e5	e8 00 00 00 00	 call	 __CxxThrowException@8
$LN43@reserve@2:
$LN41@reserve@2:
  000ea	cc		 int	 3
_TEXT	ENDS
;	COMDAT text$x
text$x	SEGMENT
__ehhandler$?reserve@?$vector@UItemRank_List@@V?$allocator@UItemRank_List@@@std@@@std@@QAEXI@Z:
  00000	8b 54 24 08	 mov	 edx, DWORD PTR [esp+8]
  00004	8d 42 0c	 lea	 eax, DWORD PTR [edx+12]
  00007	8b 4a e8	 mov	 ecx, DWORD PTR [edx-24]
  0000a	33 c8		 xor	 ecx, eax
  0000c	e8 00 00 00 00	 call	 @__security_check_cookie@4
  00011	b8 00 00 00 00	 mov	 eax, OFFSET __ehfuncinfo$?reserve@?$vector@UItemRank_List@@V?$allocator@UItemRank_List@@@std@@@std@@QAEXI@Z
  00016	e9 00 00 00 00	 jmp	 ___CxxFrameHandler3
text$x	ENDS
?reserve@?$vector@UItemRank_List@@V?$allocator@UItemRank_List@@@std@@@std@@QAEXI@Z ENDP ; std::vector<ItemRank_List,std::allocator<ItemRank_List> >::reserve
PUBLIC	??1?$vector@UItemRank_Data@@V?$allocator@UItemRank_Data@@@std@@@std@@QAE@XZ ; std::vector<ItemRank_Data,std::allocator<ItemRank_Data> >::~vector<ItemRank_Data,std::allocator<ItemRank_Data> >
; Function compile flags: /Ogtp
;	COMDAT ??1?$vector@UItemRank_Data@@V?$allocator@UItemRank_Data@@@std@@@std@@QAE@XZ
_TEXT	SEGMENT
??1?$vector@UItemRank_Data@@V?$allocator@UItemRank_Data@@@std@@@std@@QAE@XZ PROC ; std::vector<ItemRank_Data,std::allocator<ItemRank_Data> >::~vector<ItemRank_Data,std::allocator<ItemRank_Data> >, COMDAT
; _this$ = ecx

; 704  : 		{	// destroy the object

  00000	56		 push	 esi
  00001	8b f1		 mov	 esi, ecx

; 705  : 		_Tidy();

  00003	8b 06		 mov	 eax, DWORD PTR [esi]
  00005	85 c0		 test	 eax, eax
  00007	74 09		 je	 SHORT $LN8@vector@2
  00009	50		 push	 eax
  0000a	e8 00 00 00 00	 call	 ??3@YAXPAX@Z		; operator delete
  0000f	83 c4 04	 add	 esp, 4
$LN8@vector@2:
  00012	c7 06 00 00 00
	00		 mov	 DWORD PTR [esi], 0
  00018	c7 46 04 00 00
	00 00		 mov	 DWORD PTR [esi+4], 0
  0001f	c7 46 08 00 00
	00 00		 mov	 DWORD PTR [esi+8], 0
  00026	5e		 pop	 esi

; 706  : 		}

  00027	c3		 ret	 0
??1?$vector@UItemRank_Data@@V?$allocator@UItemRank_Data@@@std@@@std@@QAE@XZ ENDP ; std::vector<ItemRank_Data,std::allocator<ItemRank_Data> >::~vector<ItemRank_Data,std::allocator<ItemRank_Data> >
_TEXT	ENDS
PUBLIC	?clear@?$vector@UItemRank_Data@@V?$allocator@UItemRank_Data@@@std@@@std@@QAEXXZ ; std::vector<ItemRank_Data,std::allocator<ItemRank_Data> >::clear
; Function compile flags: /Ogtp
;	COMDAT ?clear@?$vector@UItemRank_Data@@V?$allocator@UItemRank_Data@@@std@@@std@@QAEXXZ
_TEXT	SEGMENT
?clear@?$vector@UItemRank_Data@@V?$allocator@UItemRank_Data@@@std@@@std@@QAEXXZ PROC ; std::vector<ItemRank_Data,std::allocator<ItemRank_Data> >::clear, COMDAT
; _this$ = ecx

; 1217 : 		{	// erase all

  00000	56		 push	 esi
  00001	57		 push	 edi
  00002	8b f9		 mov	 edi, ecx

; 1218 : 		erase(begin(), end());

  00004	8b 17		 mov	 edx, DWORD PTR [edi]
  00006	8b 77 04	 mov	 esi, DWORD PTR [edi+4]
  00009	3b d6		 cmp	 edx, esi
  0000b	74 25		 je	 SHORT $LN19@clear
  0000d	8b c6		 mov	 eax, esi
  0000f	3b f6		 cmp	 esi, esi
  00011	74 1c		 je	 SHORT $LN48@clear
$LL50@clear:
  00013	8b 08		 mov	 ecx, DWORD PTR [eax]
  00015	89 0a		 mov	 DWORD PTR [edx], ecx
  00017	66 8b 48 04	 mov	 cx, WORD PTR [eax+4]
  0001b	66 89 4a 04	 mov	 WORD PTR [edx+4], cx
  0001f	8a 48 06	 mov	 cl, BYTE PTR [eax+6]
  00022	88 4a 06	 mov	 BYTE PTR [edx+6], cl
  00025	83 c0 07	 add	 eax, 7
  00028	83 c2 07	 add	 edx, 7
  0002b	3b c6		 cmp	 eax, esi
  0002d	75 e4		 jne	 SHORT $LL50@clear
$LN48@clear:
  0002f	89 57 04	 mov	 DWORD PTR [edi+4], edx
$LN19@clear:

; 1219 : 		}

  00032	5f		 pop	 edi
  00033	5e		 pop	 esi
  00034	c3		 ret	 0
?clear@?$vector@UItemRank_Data@@V?$allocator@UItemRank_Data@@@std@@@std@@QAEXXZ ENDP ; std::vector<ItemRank_Data,std::allocator<ItemRank_Data> >::clear
_TEXT	ENDS
PUBLIC	??1?$vector@UItemRank_List@@V?$allocator@UItemRank_List@@@std@@@std@@QAE@XZ ; std::vector<ItemRank_List,std::allocator<ItemRank_List> >::~vector<ItemRank_List,std::allocator<ItemRank_List> >
; Function compile flags: /Ogtp
;	COMDAT ??1?$vector@UItemRank_List@@V?$allocator@UItemRank_List@@@std@@@std@@QAE@XZ
_TEXT	SEGMENT
??1?$vector@UItemRank_List@@V?$allocator@UItemRank_List@@@std@@@std@@QAE@XZ PROC ; std::vector<ItemRank_List,std::allocator<ItemRank_List> >::~vector<ItemRank_List,std::allocator<ItemRank_List> >, COMDAT
; _this$ = ecx

; 704  : 		{	// destroy the object

  00000	56		 push	 esi
  00001	8b f1		 mov	 esi, ecx

; 705  : 		_Tidy();

  00003	8b 06		 mov	 eax, DWORD PTR [esi]
  00005	85 c0		 test	 eax, eax
  00007	74 09		 je	 SHORT $LN8@vector@3
  00009	50		 push	 eax
  0000a	e8 00 00 00 00	 call	 ??3@YAXPAX@Z		; operator delete
  0000f	83 c4 04	 add	 esp, 4
$LN8@vector@3:
  00012	c7 06 00 00 00
	00		 mov	 DWORD PTR [esi], 0
  00018	c7 46 04 00 00
	00 00		 mov	 DWORD PTR [esi+4], 0
  0001f	c7 46 08 00 00
	00 00		 mov	 DWORD PTR [esi+8], 0
  00026	5e		 pop	 esi

; 706  : 		}

  00027	c3		 ret	 0
??1?$vector@UItemRank_List@@V?$allocator@UItemRank_List@@@std@@@std@@QAE@XZ ENDP ; std::vector<ItemRank_List,std::allocator<ItemRank_List> >::~vector<ItemRank_List,std::allocator<ItemRank_List> >
_TEXT	ENDS
PUBLIC	?clear@?$vector@UItemRank_List@@V?$allocator@UItemRank_List@@@std@@@std@@QAEXXZ ; std::vector<ItemRank_List,std::allocator<ItemRank_List> >::clear
; Function compile flags: /Ogtp
;	COMDAT ?clear@?$vector@UItemRank_List@@V?$allocator@UItemRank_List@@@std@@@std@@QAEXXZ
_TEXT	SEGMENT
?clear@?$vector@UItemRank_List@@V?$allocator@UItemRank_List@@@std@@@std@@QAEXXZ PROC ; std::vector<ItemRank_List,std::allocator<ItemRank_List> >::clear, COMDAT
; _this$ = ecx

; 1218 : 		erase(begin(), end());

  00000	8b 11		 mov	 edx, DWORD PTR [ecx]
  00002	56		 push	 esi
  00003	8b 71 04	 mov	 esi, DWORD PTR [ecx+4]
  00006	3b d6		 cmp	 edx, esi
  00008	74 21		 je	 SHORT $LN19@clear@2
  0000a	8b c6		 mov	 eax, esi
  0000c	3b f6		 cmp	 esi, esi
  0000e	74 18		 je	 SHORT $LN48@clear@2
  00010	57		 push	 edi
$LL50@clear@2:
  00011	8b 38		 mov	 edi, DWORD PTR [eax]
  00013	89 3a		 mov	 DWORD PTR [edx], edi
  00015	66 8b 78 04	 mov	 di, WORD PTR [eax+4]
  00019	66 89 7a 04	 mov	 WORD PTR [edx+4], di
  0001d	83 c0 06	 add	 eax, 6
  00020	83 c2 06	 add	 edx, 6
  00023	3b c6		 cmp	 eax, esi
  00025	75 ea		 jne	 SHORT $LL50@clear@2
  00027	5f		 pop	 edi
$LN48@clear@2:
  00028	89 51 04	 mov	 DWORD PTR [ecx+4], edx
$LN19@clear@2:
  0002b	5e		 pop	 esi

; 1219 : 		}

  0002c	c3		 ret	 0
?clear@?$vector@UItemRank_List@@V?$allocator@UItemRank_List@@@std@@@std@@QAEXXZ ENDP ; std::vector<ItemRank_List,std::allocator<ItemRank_List> >::clear
_TEXT	ENDS
PUBLIC	?_Reserve@?$vector@UItemRank_Data@@V?$allocator@UItemRank_Data@@@std@@@std@@IAEXI@Z ; std::vector<ItemRank_Data,std::allocator<ItemRank_Data> >::_Reserve
; Function compile flags: /Ogtp
;	COMDAT ?_Reserve@?$vector@UItemRank_Data@@V?$allocator@UItemRank_Data@@@std@@@std@@IAEXI@Z
_TEXT	SEGMENT
__Count$ = 8						; size = 4
?_Reserve@?$vector@UItemRank_Data@@V?$allocator@UItemRank_Data@@@std@@@std@@IAEXI@Z PROC ; std::vector<ItemRank_Data,std::allocator<ItemRank_Data> >::_Reserve, COMDAT
; _this$ = ecx

; 1290 : 		{	// ensure room for _Count new elements, grow exponentially

  00000	55		 push	 ebp
  00001	8b ec		 mov	 ebp, esp
  00003	53		 push	 ebx

; 1291 : 		size_type _Size = size();

  00004	8b 19		 mov	 ebx, DWORD PTR [ecx]
  00006	56		 push	 esi
  00007	8b 71 04	 mov	 esi, DWORD PTR [ecx+4]
  0000a	2b f3		 sub	 esi, ebx
  0000c	b8 93 24 49 92	 mov	 eax, -1840700269	; 92492493H
  00011	f7 ee		 imul	 esi

; 1292 : 		if (max_size() - _Count < _Size)

  00013	8b 45 08	 mov	 eax, DWORD PTR __Count$[ebp]
  00016	03 d6		 add	 edx, esi
  00018	c1 fa 02	 sar	 edx, 2
  0001b	8b f2		 mov	 esi, edx
  0001d	c1 ee 1f	 shr	 esi, 31			; 0000001fH
  00020	03 f2		 add	 esi, edx
  00022	ba 24 49 92 24	 mov	 edx, 613566756		; 24924924H
  00027	2b d0		 sub	 edx, eax
  00029	57		 push	 edi
  0002a	3b d6		 cmp	 edx, esi
  0002c	73 0a		 jae	 SHORT $LN4@Reserve

; 1293 : 			_Xlen();

  0002e	68 00 00 00 00	 push	 OFFSET ??_C@_0BD@OLBABOEK@vector?$DMT?$DO?5too?5long?$AA@
  00033	e8 00 00 00 00	 call	 ?_Xlength_error@std@@YAXPBD@Z ; std::_Xlength_error
$LN34@Reserve:
$LN4@Reserve:

; 1294 : 		else if ((_Size += _Count) <= capacity())

  00038	8b 79 08	 mov	 edi, DWORD PTR [ecx+8]
  0003b	03 f0		 add	 esi, eax
  0003d	2b fb		 sub	 edi, ebx
  0003f	b8 93 24 49 92	 mov	 eax, -1840700269	; 92492493H
  00044	f7 ef		 imul	 edi
  00046	03 d7		 add	 edx, edi
  00048	c1 fa 02	 sar	 edx, 2
  0004b	8b c2		 mov	 eax, edx
  0004d	c1 e8 1f	 shr	 eax, 31			; 0000001fH
  00050	03 c2		 add	 eax, edx
  00052	3b f0		 cmp	 esi, eax
  00054	76 21		 jbe	 SHORT $LN1@Reserve

; 1295 : 			;
; 1296 : 		else
; 1297 : 			reserve(_Grow_to(_Size));

  00056	8b d0		 mov	 edx, eax
  00058	d1 ea		 shr	 edx, 1
  0005a	bf 24 49 92 24	 mov	 edi, 613566756		; 24924924H
  0005f	2b fa		 sub	 edi, edx
  00061	3b f8		 cmp	 edi, eax
  00063	73 04		 jae	 SHORT $LN23@Reserve
  00065	33 c0		 xor	 eax, eax
  00067	eb 02		 jmp	 SHORT $LN24@Reserve
$LN23@Reserve:
  00069	03 c2		 add	 eax, edx
$LN24@Reserve:
  0006b	3b c6		 cmp	 eax, esi
  0006d	73 02		 jae	 SHORT $LN20@Reserve
  0006f	8b c6		 mov	 eax, esi
$LN20@Reserve:
  00071	50		 push	 eax
  00072	e8 00 00 00 00	 call	 ?reserve@?$vector@UItemRank_Data@@V?$allocator@UItemRank_Data@@@std@@@std@@QAEXI@Z ; std::vector<ItemRank_Data,std::allocator<ItemRank_Data> >::reserve
$LN1@Reserve:
  00077	5f		 pop	 edi
  00078	5e		 pop	 esi
  00079	5b		 pop	 ebx

; 1298 : 		}

  0007a	5d		 pop	 ebp
  0007b	c2 04 00	 ret	 4
$LN33@Reserve:
?_Reserve@?$vector@UItemRank_Data@@V?$allocator@UItemRank_Data@@@std@@@std@@IAEXI@Z ENDP ; std::vector<ItemRank_Data,std::allocator<ItemRank_Data> >::_Reserve
_TEXT	ENDS
PUBLIC	?_Reserve@?$vector@UItemRank_List@@V?$allocator@UItemRank_List@@@std@@@std@@IAEXI@Z ; std::vector<ItemRank_List,std::allocator<ItemRank_List> >::_Reserve
; Function compile flags: /Ogtp
;	COMDAT ?_Reserve@?$vector@UItemRank_List@@V?$allocator@UItemRank_List@@@std@@@std@@IAEXI@Z
_TEXT	SEGMENT
__Count$ = 8						; size = 4
?_Reserve@?$vector@UItemRank_List@@V?$allocator@UItemRank_List@@@std@@@std@@IAEXI@Z PROC ; std::vector<ItemRank_List,std::allocator<ItemRank_List> >::_Reserve, COMDAT
; _this$ = ecx

; 1290 : 		{	// ensure room for _Count new elements, grow exponentially

  00000	55		 push	 ebp
  00001	8b ec		 mov	 ebp, esp

; 1291 : 		size_type _Size = size();

  00003	8b 51 04	 mov	 edx, DWORD PTR [ecx+4]
  00006	56		 push	 esi
  00007	57		 push	 edi
  00008	8b 39		 mov	 edi, DWORD PTR [ecx]
  0000a	2b d7		 sub	 edx, edi
  0000c	b8 ab aa aa 2a	 mov	 eax, 715827883		; 2aaaaaabH
  00011	f7 ea		 imul	 edx

; 1292 : 		if (max_size() - _Count < _Size)

  00013	8b 45 08	 mov	 eax, DWORD PTR __Count$[ebp]
  00016	8b f2		 mov	 esi, edx
  00018	c1 ee 1f	 shr	 esi, 31			; 0000001fH
  0001b	03 f2		 add	 esi, edx
  0001d	ba aa aa aa 2a	 mov	 edx, 715827882		; 2aaaaaaaH
  00022	2b d0		 sub	 edx, eax
  00024	3b d6		 cmp	 edx, esi
  00026	73 0a		 jae	 SHORT $LN4@Reserve@2

; 1293 : 			_Xlen();

  00028	68 00 00 00 00	 push	 OFFSET ??_C@_0BD@OLBABOEK@vector?$DMT?$DO?5too?5long?$AA@
  0002d	e8 00 00 00 00	 call	 ?_Xlength_error@std@@YAXPBD@Z ; std::_Xlength_error
$LN34@Reserve@2:
$LN4@Reserve@2:

; 1294 : 		else if ((_Size += _Count) <= capacity())

  00032	8b 51 08	 mov	 edx, DWORD PTR [ecx+8]
  00035	03 f0		 add	 esi, eax
  00037	2b d7		 sub	 edx, edi
  00039	b8 ab aa aa 2a	 mov	 eax, 715827883		; 2aaaaaabH
  0003e	f7 ea		 imul	 edx
  00040	8b c2		 mov	 eax, edx
  00042	c1 e8 1f	 shr	 eax, 31			; 0000001fH
  00045	03 c2		 add	 eax, edx
  00047	3b f0		 cmp	 esi, eax
  00049	76 21		 jbe	 SHORT $LN1@Reserve@2

; 1295 : 			;
; 1296 : 		else
; 1297 : 			reserve(_Grow_to(_Size));

  0004b	8b d0		 mov	 edx, eax
  0004d	d1 ea		 shr	 edx, 1
  0004f	bf aa aa aa 2a	 mov	 edi, 715827882		; 2aaaaaaaH
  00054	2b fa		 sub	 edi, edx
  00056	3b f8		 cmp	 edi, eax
  00058	73 04		 jae	 SHORT $LN23@Reserve@2
  0005a	33 c0		 xor	 eax, eax
  0005c	eb 02		 jmp	 SHORT $LN24@Reserve@2
$LN23@Reserve@2:
  0005e	03 c2		 add	 eax, edx
$LN24@Reserve@2:
  00060	3b c6		 cmp	 eax, esi
  00062	73 02		 jae	 SHORT $LN20@Reserve@2
  00064	8b c6		 mov	 eax, esi
$LN20@Reserve@2:
  00066	50		 push	 eax
  00067	e8 00 00 00 00	 call	 ?reserve@?$vector@UItemRank_List@@V?$allocator@UItemRank_List@@@std@@@std@@QAEXI@Z ; std::vector<ItemRank_List,std::allocator<ItemRank_List> >::reserve
$LN1@Reserve@2:
  0006c	5f		 pop	 edi
  0006d	5e		 pop	 esi

; 1298 : 		}

  0006e	5d		 pop	 ebp
  0006f	c2 04 00	 ret	 4
$LN33@Reserve@2:
?_Reserve@?$vector@UItemRank_List@@V?$allocator@UItemRank_List@@@std@@@std@@IAEXI@Z ENDP ; std::vector<ItemRank_List,std::allocator<ItemRank_List> >::_Reserve
_TEXT	ENDS
PUBLIC	??1ItemRank@@QAE@XZ				; ItemRank::~ItemRank
; Function compile flags: /Ogtp
; File e:\work\tranet_version\gs\gameserver\itemrank.cpp
;	COMDAT ??1ItemRank@@QAE@XZ
_TEXT	SEGMENT
??1ItemRank@@QAE@XZ PROC				; ItemRank::~ItemRank, COMDAT
; _this$ = ecx

; 19   : {

  00000	56		 push	 esi
  00001	8b f1		 mov	 esi, ecx

; 20   : }

  00003	8b 46 14	 mov	 eax, DWORD PTR [esi+20]
  00006	57		 push	 edi
  00007	33 ff		 xor	 edi, edi
  00009	3b c7		 cmp	 eax, edi
  0000b	74 09		 je	 SHORT $LN12@ItemRank
  0000d	50		 push	 eax
  0000e	e8 00 00 00 00	 call	 ??3@YAXPAX@Z		; operator delete
  00013	83 c4 04	 add	 esp, 4
$LN12@ItemRank:
  00016	89 7e 14	 mov	 DWORD PTR [esi+20], edi
  00019	89 7e 18	 mov	 DWORD PTR [esi+24], edi
  0001c	89 7e 1c	 mov	 DWORD PTR [esi+28], edi
  0001f	8b 46 04	 mov	 eax, DWORD PTR [esi+4]
  00022	3b c7		 cmp	 eax, edi
  00024	74 09		 je	 SHORT $LN23@ItemRank
  00026	50		 push	 eax
  00027	e8 00 00 00 00	 call	 ??3@YAXPAX@Z		; operator delete
  0002c	83 c4 04	 add	 esp, 4
$LN23@ItemRank:
  0002f	89 7e 04	 mov	 DWORD PTR [esi+4], edi
  00032	89 7e 08	 mov	 DWORD PTR [esi+8], edi
  00035	89 7e 0c	 mov	 DWORD PTR [esi+12], edi
  00038	5f		 pop	 edi
  00039	5e		 pop	 esi
  0003a	c3		 ret	 0
??1ItemRank@@QAE@XZ ENDP				; ItemRank::~ItemRank
_TEXT	ENDS
PUBLIC	?Init@ItemRank@@QAEXXZ				; ItemRank::Init
; Function compile flags: /Ogtp
;	COMDAT ?Init@ItemRank@@QAEXXZ
_TEXT	SEGMENT
?Init@ItemRank@@QAEXXZ PROC				; ItemRank::Init, COMDAT
; _this$ = ecx

; 23   : {

  00000	56		 push	 esi
  00001	57		 push	 edi
  00002	8b f9		 mov	 edi, ecx

; 24   : 	this->bEnable = false;

  00004	c6 07 00	 mov	 BYTE PTR [edi], 0

; 25   : 	this->m_Data.clear();

  00007	8b 57 04	 mov	 edx, DWORD PTR [edi+4]
  0000a	8b 77 08	 mov	 esi, DWORD PTR [edi+8]
  0000d	3b d6		 cmp	 edx, esi
  0000f	74 25		 je	 SHORT $LN21@Init
  00011	8b c6		 mov	 eax, esi
  00013	3b f6		 cmp	 esi, esi
  00015	74 1c		 je	 SHORT $LN50@Init
$LL52@Init:
  00017	8b 08		 mov	 ecx, DWORD PTR [eax]
  00019	89 0a		 mov	 DWORD PTR [edx], ecx
  0001b	66 8b 48 04	 mov	 cx, WORD PTR [eax+4]
  0001f	66 89 4a 04	 mov	 WORD PTR [edx+4], cx
  00023	8a 48 06	 mov	 cl, BYTE PTR [eax+6]
  00026	88 4a 06	 mov	 BYTE PTR [edx+6], cl
  00029	83 c0 07	 add	 eax, 7
  0002c	83 c2 07	 add	 edx, 7
  0002f	3b c6		 cmp	 eax, esi
  00031	75 e4		 jne	 SHORT $LL52@Init
$LN50@Init:
  00033	89 57 08	 mov	 DWORD PTR [edi+8], edx
$LN21@Init:

; 26   : 	this->m_ItemList.clear();

  00036	8b 57 14	 mov	 edx, DWORD PTR [edi+20]
  00039	8b 77 18	 mov	 esi, DWORD PTR [edi+24]
  0003c	3b d6		 cmp	 edx, esi
  0003e	74 1f		 je	 SHORT $LN75@Init
  00040	8b c6		 mov	 eax, esi
  00042	3b f6		 cmp	 esi, esi
  00044	74 16		 je	 SHORT $LN104@Init
$LL106@Init:
  00046	8b 08		 mov	 ecx, DWORD PTR [eax]
  00048	89 0a		 mov	 DWORD PTR [edx], ecx
  0004a	66 8b 48 04	 mov	 cx, WORD PTR [eax+4]
  0004e	66 89 4a 04	 mov	 WORD PTR [edx+4], cx
  00052	83 c0 06	 add	 eax, 6
  00055	83 c2 06	 add	 edx, 6
  00058	3b c6		 cmp	 eax, esi
  0005a	75 ea		 jne	 SHORT $LL106@Init
$LN104@Init:
  0005c	89 57 18	 mov	 DWORD PTR [edi+24], edx
$LN75@Init:

; 27   : }

  0005f	5f		 pop	 edi
  00060	5e		 pop	 esi
  00061	c3		 ret	 0
?Init@ItemRank@@QAEXXZ ENDP				; ItemRank::Init
_TEXT	ENDS
PUBLIC	?push_back@?$vector@UItemRank_Data@@V?$allocator@UItemRank_Data@@@std@@@std@@QAEXABUItemRank_Data@@@Z ; std::vector<ItemRank_Data,std::allocator<ItemRank_Data> >::push_back
; Function compile flags: /Ogtp
; File d:\program files (x86)\microsoft visual studio 10.0\vc\include\vector
;	COMDAT ?push_back@?$vector@UItemRank_Data@@V?$allocator@UItemRank_Data@@@std@@@std@@QAEXABUItemRank_Data@@@Z
_TEXT	SEGMENT
__Val$ = 8						; size = 4
?push_back@?$vector@UItemRank_Data@@V?$allocator@UItemRank_Data@@@std@@@std@@QAEXABUItemRank_Data@@@Z PROC ; std::vector<ItemRank_Data,std::allocator<ItemRank_Data> >::push_back, COMDAT
; _this$ = ecx

; 976  : 		{	// insert element at end

  00000	55		 push	 ebp
  00001	8b ec		 mov	 ebp, esp
  00003	56		 push	 esi
  00004	8b f1		 mov	 esi, ecx

; 977  : 		if (_Inside(_STD addressof(_Val)))

  00006	8b 4e 04	 mov	 ecx, DWORD PTR [esi+4]
  00009	57		 push	 edi
  0000a	8b 7d 08	 mov	 edi, DWORD PTR __Val$[ebp]
  0000d	3b f9		 cmp	 edi, ecx
  0000f	73 4f		 jae	 SHORT $LN4@push_back
  00011	8b 06		 mov	 eax, DWORD PTR [esi]
  00013	3b c7		 cmp	 eax, edi
  00015	77 49		 ja	 SHORT $LN4@push_back

; 978  : 			{	// push back an element
; 979  : 			size_type _Idx = _STD addressof(_Val) - this->_Myfirst;

  00017	2b f8		 sub	 edi, eax
  00019	b8 93 24 49 92	 mov	 eax, -1840700269	; 92492493H
  0001e	f7 ef		 imul	 edi
  00020	03 d7		 add	 edx, edi
  00022	c1 fa 02	 sar	 edx, 2
  00025	8b fa		 mov	 edi, edx
  00027	c1 ef 1f	 shr	 edi, 31			; 0000001fH
  0002a	03 fa		 add	 edi, edx

; 980  : 			if (this->_Mylast == this->_Myend)

  0002c	3b 4e 08	 cmp	 ecx, DWORD PTR [esi+8]
  0002f	75 09		 jne	 SHORT $LN3@push_back

; 981  : 				_Reserve(1);

  00031	6a 01		 push	 1
  00033	8b ce		 mov	 ecx, esi
  00035	e8 00 00 00 00	 call	 ?_Reserve@?$vector@UItemRank_Data@@V?$allocator@UItemRank_Data@@@std@@@std@@IAEXI@Z ; std::vector<ItemRank_Data,std::allocator<ItemRank_Data> >::_Reserve
$LN3@push_back:

; 982  : 			_Orphan_range(this->_Mylast, this->_Mylast);
; 983  : 			_Cons_val(this->_Alval,
; 984  : 				this->_Mylast,
; 985  : 				this->_Myfirst[_Idx]);

  0003a	8b 4e 04	 mov	 ecx, DWORD PTR [esi+4]
  0003d	8d 04 fd 00 00
	00 00		 lea	 eax, DWORD PTR [edi*8]
  00044	2b c7		 sub	 eax, edi
  00046	03 06		 add	 eax, DWORD PTR [esi]
  00048	8d 56 0c	 lea	 edx, DWORD PTR [esi+12]
  0004b	50		 push	 eax
  0004c	51		 push	 ecx
  0004d	52		 push	 edx
  0004e	e8 00 00 00 00	 call	 ??$_Cons_val@V?$allocator@UItemRank_Data@@@std@@UItemRank_Data@@AAU3@@std@@YAXAAV?$allocator@UItemRank_Data@@@0@PAUItemRank_Data@@AAU2@@Z ; std::_Cons_val<std::allocator<ItemRank_Data>,ItemRank_Data,ItemRank_Data &>

; 992  : 			_Orphan_range(this->_Mylast, this->_Mylast);
; 993  : 			_Cons_val(this->_Alval,
; 994  : 				this->_Mylast,
; 995  : 				_Val);

  00053	83 c4 0c	 add	 esp, 12			; 0000000cH

; 996  : 			++this->_Mylast;

  00056	83 46 04 07	 add	 DWORD PTR [esi+4], 7
  0005a	5f		 pop	 edi
  0005b	5e		 pop	 esi

; 997  : 			}
; 998  : 		}

  0005c	5d		 pop	 ebp
  0005d	c2 04 00	 ret	 4
$LN4@push_back:

; 986  : 			++this->_Mylast;
; 987  : 			}
; 988  : 		else
; 989  : 			{	// push back a non-element
; 990  : 			if (this->_Mylast == this->_Myend)

  00060	3b 4e 08	 cmp	 ecx, DWORD PTR [esi+8]
  00063	75 09		 jne	 SHORT $LN1@push_back

; 991  : 				_Reserve(1);

  00065	6a 01		 push	 1
  00067	8b ce		 mov	 ecx, esi
  00069	e8 00 00 00 00	 call	 ?_Reserve@?$vector@UItemRank_Data@@V?$allocator@UItemRank_Data@@@std@@@std@@IAEXI@Z ; std::vector<ItemRank_Data,std::allocator<ItemRank_Data> >::_Reserve
$LN1@push_back:

; 992  : 			_Orphan_range(this->_Mylast, this->_Mylast);
; 993  : 			_Cons_val(this->_Alval,
; 994  : 				this->_Mylast,
; 995  : 				_Val);

  0006e	8b 46 04	 mov	 eax, DWORD PTR [esi+4]
  00071	57		 push	 edi
  00072	50		 push	 eax
  00073	8d 4e 0c	 lea	 ecx, DWORD PTR [esi+12]
  00076	51		 push	 ecx
  00077	e8 00 00 00 00	 call	 ??$_Cons_val@V?$allocator@UItemRank_Data@@@std@@UItemRank_Data@@ABU3@@std@@YAXAAV?$allocator@UItemRank_Data@@@0@PAUItemRank_Data@@ABU2@@Z ; std::_Cons_val<std::allocator<ItemRank_Data>,ItemRank_Data,ItemRank_Data const &>
  0007c	83 c4 0c	 add	 esp, 12			; 0000000cH

; 996  : 			++this->_Mylast;

  0007f	83 46 04 07	 add	 DWORD PTR [esi+4], 7
  00083	5f		 pop	 edi
  00084	5e		 pop	 esi

; 997  : 			}
; 998  : 		}

  00085	5d		 pop	 ebp
  00086	c2 04 00	 ret	 4
?push_back@?$vector@UItemRank_Data@@V?$allocator@UItemRank_Data@@@std@@@std@@QAEXABUItemRank_Data@@@Z ENDP ; std::vector<ItemRank_Data,std::allocator<ItemRank_Data> >::push_back
_TEXT	ENDS
PUBLIC	?push_back@?$vector@UItemRank_List@@V?$allocator@UItemRank_List@@@std@@@std@@QAEXABUItemRank_List@@@Z ; std::vector<ItemRank_List,std::allocator<ItemRank_List> >::push_back
; Function compile flags: /Ogtp
;	COMDAT ?push_back@?$vector@UItemRank_List@@V?$allocator@UItemRank_List@@@std@@@std@@QAEXABUItemRank_List@@@Z
_TEXT	SEGMENT
__Val$ = 8						; size = 4
?push_back@?$vector@UItemRank_List@@V?$allocator@UItemRank_List@@@std@@@std@@QAEXABUItemRank_List@@@Z PROC ; std::vector<ItemRank_List,std::allocator<ItemRank_List> >::push_back, COMDAT
; _this$ = ecx

; 976  : 		{	// insert element at end

  00000	55		 push	 ebp
  00001	8b ec		 mov	 ebp, esp
  00003	56		 push	 esi
  00004	8b f1		 mov	 esi, ecx

; 977  : 		if (_Inside(_STD addressof(_Val)))

  00006	8b 4e 04	 mov	 ecx, DWORD PTR [esi+4]
  00009	57		 push	 edi
  0000a	8b 7d 08	 mov	 edi, DWORD PTR __Val$[ebp]
  0000d	3b f9		 cmp	 edi, ecx
  0000f	73 47		 jae	 SHORT $LN4@push_back@2
  00011	8b 06		 mov	 eax, DWORD PTR [esi]
  00013	3b c7		 cmp	 eax, edi
  00015	77 41		 ja	 SHORT $LN4@push_back@2

; 978  : 			{	// push back an element
; 979  : 			size_type _Idx = _STD addressof(_Val) - this->_Myfirst;

  00017	2b f8		 sub	 edi, eax
  00019	b8 ab aa aa 2a	 mov	 eax, 715827883		; 2aaaaaabH
  0001e	f7 ef		 imul	 edi
  00020	8b fa		 mov	 edi, edx
  00022	c1 ef 1f	 shr	 edi, 31			; 0000001fH
  00025	03 fa		 add	 edi, edx

; 980  : 			if (this->_Mylast == this->_Myend)

  00027	3b 4e 08	 cmp	 ecx, DWORD PTR [esi+8]
  0002a	75 09		 jne	 SHORT $LN3@push_back@2

; 981  : 				_Reserve(1);

  0002c	6a 01		 push	 1
  0002e	8b ce		 mov	 ecx, esi
  00030	e8 00 00 00 00	 call	 ?_Reserve@?$vector@UItemRank_List@@V?$allocator@UItemRank_List@@@std@@@std@@IAEXI@Z ; std::vector<ItemRank_List,std::allocator<ItemRank_List> >::_Reserve
$LN3@push_back@2:

; 982  : 			_Orphan_range(this->_Mylast, this->_Mylast);
; 983  : 			_Cons_val(this->_Alval,
; 984  : 				this->_Mylast,
; 985  : 				this->_Myfirst[_Idx]);

  00035	8b 0e		 mov	 ecx, DWORD PTR [esi]
  00037	8d 04 7f	 lea	 eax, DWORD PTR [edi+edi*2]
  0003a	8d 14 41	 lea	 edx, DWORD PTR [ecx+eax*2]
  0003d	8b 46 04	 mov	 eax, DWORD PTR [esi+4]
  00040	52		 push	 edx
  00041	50		 push	 eax
  00042	8d 4e 0c	 lea	 ecx, DWORD PTR [esi+12]
  00045	51		 push	 ecx
  00046	e8 00 00 00 00	 call	 ??$_Cons_val@V?$allocator@UItemRank_List@@@std@@UItemRank_List@@AAU3@@std@@YAXAAV?$allocator@UItemRank_List@@@0@PAUItemRank_List@@AAU2@@Z ; std::_Cons_val<std::allocator<ItemRank_List>,ItemRank_List,ItemRank_List &>

; 992  : 			_Orphan_range(this->_Mylast, this->_Mylast);
; 993  : 			_Cons_val(this->_Alval,
; 994  : 				this->_Mylast,
; 995  : 				_Val);

  0004b	83 c4 0c	 add	 esp, 12			; 0000000cH

; 996  : 			++this->_Mylast;

  0004e	83 46 04 06	 add	 DWORD PTR [esi+4], 6
  00052	5f		 pop	 edi
  00053	5e		 pop	 esi

; 997  : 			}
; 998  : 		}

  00054	5d		 pop	 ebp
  00055	c2 04 00	 ret	 4
$LN4@push_back@2:

; 986  : 			++this->_Mylast;
; 987  : 			}
; 988  : 		else
; 989  : 			{	// push back a non-element
; 990  : 			if (this->_Mylast == this->_Myend)

  00058	3b 4e 08	 cmp	 ecx, DWORD PTR [esi+8]
  0005b	75 09		 jne	 SHORT $LN1@push_back@2

; 991  : 				_Reserve(1);

  0005d	6a 01		 push	 1
  0005f	8b ce		 mov	 ecx, esi
  00061	e8 00 00 00 00	 call	 ?_Reserve@?$vector@UItemRank_List@@V?$allocator@UItemRank_List@@@std@@@std@@IAEXI@Z ; std::vector<ItemRank_List,std::allocator<ItemRank_List> >::_Reserve
$LN1@push_back@2:

; 992  : 			_Orphan_range(this->_Mylast, this->_Mylast);
; 993  : 			_Cons_val(this->_Alval,
; 994  : 				this->_Mylast,
; 995  : 				_Val);

  00066	8b 56 04	 mov	 edx, DWORD PTR [esi+4]
  00069	57		 push	 edi
  0006a	52		 push	 edx
  0006b	8d 46 0c	 lea	 eax, DWORD PTR [esi+12]
  0006e	50		 push	 eax
  0006f	e8 00 00 00 00	 call	 ??$_Cons_val@V?$allocator@UItemRank_List@@@std@@UItemRank_List@@ABU3@@std@@YAXAAV?$allocator@UItemRank_List@@@0@PAUItemRank_List@@ABU2@@Z ; std::_Cons_val<std::allocator<ItemRank_List>,ItemRank_List,ItemRank_List const &>
  00074	83 c4 0c	 add	 esp, 12			; 0000000cH

; 996  : 			++this->_Mylast;

  00077	83 46 04 06	 add	 DWORD PTR [esi+4], 6
  0007b	5f		 pop	 edi
  0007c	5e		 pop	 esi

; 997  : 			}
; 998  : 		}

  0007d	5d		 pop	 ebp
  0007e	c2 04 00	 ret	 4
?push_back@?$vector@UItemRank_List@@V?$allocator@UItemRank_List@@@std@@@std@@QAEXABUItemRank_List@@@Z ENDP ; std::vector<ItemRank_List,std::allocator<ItemRank_List> >::push_back
_TEXT	ENDS
PUBLIC	??0ItemRank@@QAE@XZ				; ItemRank::ItemRank
; Function compile flags: /Ogtp
; File e:\work\tranet_version\gs\gameserver\itemrank.cpp
;	COMDAT ??0ItemRank@@QAE@XZ
_TEXT	SEGMENT
??0ItemRank@@QAE@XZ PROC				; ItemRank::ItemRank, COMDAT
; _this$ = ecx

; 14   : {

  00000	33 c0		 xor	 eax, eax
  00002	56		 push	 esi
  00003	8b f1		 mov	 esi, ecx
  00005	89 46 04	 mov	 DWORD PTR [esi+4], eax
  00008	89 46 08	 mov	 DWORD PTR [esi+8], eax
  0000b	89 46 0c	 mov	 DWORD PTR [esi+12], eax
  0000e	89 46 14	 mov	 DWORD PTR [esi+20], eax
  00011	89 46 18	 mov	 DWORD PTR [esi+24], eax
  00014	89 46 1c	 mov	 DWORD PTR [esi+28], eax

; 15   : 	this->Init();

  00017	e8 00 00 00 00	 call	 ?Init@ItemRank@@QAEXXZ	; ItemRank::Init

; 16   : }

  0001c	8b c6		 mov	 eax, esi
  0001e	5e		 pop	 esi
  0001f	c3		 ret	 0
??0ItemRank@@QAE@XZ ENDP				; ItemRank::ItemRank
_TEXT	ENDS
PUBLIC	??_C@_0O@CEHBAEMJ@?$CFs?5file?5load?$CB?$AA@	; `string'
PUBLIC	??_C@_0DC@NONPIKIO@?$FLItemRank?$FN?5Invalid?5RankID?5?$CIItem?3@ ; `string'
PUBLIC	??_C@_0DF@JJHKLIKG@?$FLItemRank?$FN?5Invalid?5RankID?5?$CIItem?3@ ; `string'
PUBLIC	??_C@_03JBJLGPFL@end?$AA@			; `string'
PUBLIC	??_C@_0BN@FFFKDJNJ@?$FLItemRank?$FN?5?$CFs?5file?5not?5found?$AA@ ; `string'
PUBLIC	_File$GSCopy$
PUBLIC	_this$GSCopy$
PUBLIC	??_C@_01KDCPPGHE@r?$AA@				; `string'
PUBLIC	__$ArrayPad$
PUBLIC	?Read@ItemRank@@QAEXPAD@Z			; ItemRank::Read
EXTRN	?LogAdd@@3P6AXPADZZA:DWORD			; LogAdd
EXTRN	_fclose:PROC
EXTRN	?MsgBox@@YAXPADZZ:PROC				; MsgBox
EXTRN	_fopen:PROC
EXTRN	__ftol2_sse:PROC
;	COMDAT ??_C@_0O@CEHBAEMJ@?$CFs?5file?5load?$CB?$AA@
; File e:\work\tranet_version\gs\gameserver\itemrank.h
CONST	SEGMENT
??_C@_0O@CEHBAEMJ@?$CFs?5file?5load?$CB?$AA@ DB '%s file load!', 00H ; `string'
CONST	ENDS
;	COMDAT ??_C@_0DC@NONPIKIO@?$FLItemRank?$FN?5Invalid?5RankID?5?$CIItem?3@
CONST	SEGMENT
??_C@_0DC@NONPIKIO@?$FLItemRank?$FN?5Invalid?5RankID?5?$CIItem?3@ DB '[It'
	DB	'emRank] Invalid RankID (Item: %d - RankID: %d)', 00H ; `string'
CONST	ENDS
;	COMDAT ??_C@_0DF@JJHKLIKG@?$FLItemRank?$FN?5Invalid?5RankID?5?$CIItem?3@
CONST	SEGMENT
??_C@_0DF@JJHKLIKG@?$FLItemRank?$FN?5Invalid?5RankID?5?$CIItem?3@ DB '[It'
	DB	'emRank] Invalid RankID (Item: %d/%d - RankID: %d)', 00H ; `string'
CONST	ENDS
;	COMDAT ??_C@_03JBJLGPFL@end?$AA@
CONST	SEGMENT
??_C@_03JBJLGPFL@end?$AA@ DB 'end', 00H			; `string'
CONST	ENDS
;	COMDAT ??_C@_0BN@FFFKDJNJ@?$FLItemRank?$FN?5?$CFs?5file?5not?5found?$AA@
CONST	SEGMENT
??_C@_0BN@FFFKDJNJ@?$FLItemRank?$FN?5?$CFs?5file?5not?5found?$AA@ DB '[It'
	DB	'emRank] %s file not found', 00H		; `string'
CONST	ENDS
;	COMDAT ??_C@_01KDCPPGHE@r?$AA@
CONST	SEGMENT
??_C@_01KDCPPGHE@r?$AA@ DB 'r', 00H			; `string'
; Function compile flags: /Ogtp
; File e:\work\tranet_version\gs\gameserver\itemrank.cpp
CONST	ENDS
;	COMDAT ?Read@ItemRank@@QAEXPAD@Z
_TEXT	SEGMENT
_File$GSCopy$ = -44					; size = 4
_this$GSCopy$ = -40					; size = 4
_lpData$210061 = -36					; size = 6
_lpData$210041 = -28					; size = 6
tv398 = -20						; size = 4
tv396 = -20						; size = 4
tv320 = -20						; size = 4
tv318 = -20						; size = 4
tv312 = -20						; size = 4
tv310 = -20						; size = 4
tv304 = -20						; size = 4
tv301 = -20						; size = 4
tv294 = -20						; size = 4
tv291 = -20						; size = 4
tv285 = -20						; size = 4
tv280 = -20						; size = 4
tv277 = -20						; size = 4
tv270 = -20						; size = 4
tv222 = -20						; size = 4
tv216 = -20						; size = 4
tv191 = -20						; size = 4
tv189 = -20						; size = 4
_ItemLevel$210054 = -20					; size = 4
tv393 = -14						; size = 2
tv323 = -14						; size = 2
tv315 = -14						; size = 2
tv307 = -14						; size = 2
tv298 = -14						; size = 2
tv288 = -14						; size = 2
tv273 = -14						; size = 2
tv194 = -14						; size = 2
tv77 = -14						; size = 2
_lpData$210034 = -12					; size = 7
__$ArrayPad$ = -4					; size = 4
_File$ = 8						; size = 4
?Read@ItemRank@@QAEXPAD@Z PROC				; ItemRank::Read, COMDAT
; _this$ = ecx

; 44   : {

  00000	55		 push	 ebp
  00001	8b ec		 mov	 ebp, esp
  00003	83 ec 2c	 sub	 esp, 44			; 0000002cH
  00006	a1 00 00 00 00	 mov	 eax, DWORD PTR ___security_cookie
  0000b	33 c5		 xor	 eax, ebp
  0000d	89 45 fc	 mov	 DWORD PTR __$ArrayPad$[ebp], eax
  00010	56		 push	 esi
  00011	57		 push	 edi
  00012	8b 7d 08	 mov	 edi, DWORD PTR _File$[ebp]
  00015	8b f1		 mov	 esi, ecx

; 45   : 	SMDToken Token;
; 46   : 	SMDFile = fopen(File, "r");

  00017	68 00 00 00 00	 push	 OFFSET ??_C@_01KDCPPGHE@r?$AA@
  0001c	57		 push	 edi

; 167  : 				{
; 168  : 					ItemRank_List lpData;

  0001d	89 75 d8	 mov	 DWORD PTR _this$GSCopy$[ebp], esi
  00020	89 7d d4	 mov	 DWORD PTR _File$GSCopy$[ebp], edi
  00023	e8 00 00 00 00	 call	 _fopen
  00028	83 c4 08	 add	 esp, 8
  0002b	a3 00 00 00 00	 mov	 DWORD PTR _SMDFile, eax
  00030	85 c0		 test	 eax, eax
  00032	75 20		 jne	 SHORT $LN35@Read

; 47   : 
; 48   : 	if( !SMDFile )
; 49   : 	{
; 50   : 		MsgBox("[ItemRank] %s file not found", File);

  00034	57		 push	 edi
  00035	68 00 00 00 00	 push	 OFFSET ??_C@_0BN@FFFKDJNJ@?$FLItemRank?$FN?5?$CFs?5file?5not?5found?$AA@
  0003a	e8 00 00 00 00	 call	 ?MsgBox@@YAXPADZZ	; MsgBox
  0003f	83 c4 08	 add	 esp, 8
  00042	5f		 pop	 edi
  00043	5e		 pop	 esi

; 184  : }

  00044	8b 4d fc	 mov	 ecx, DWORD PTR __$ArrayPad$[ebp]
  00047	33 cd		 xor	 ecx, ebp
  00049	e8 00 00 00 00	 call	 @__security_check_cookie@4
  0004e	8b e5		 mov	 esp, ebp
  00050	5d		 pop	 ebp
  00051	c2 04 00	 ret	 4
$LN35@Read:

; 51   : 		return;
; 52   : 	}
; 53   : 
; 54   : 	while(true)
; 55   : 	{
; 56   : 		SMDToken Token = GetToken();

  00054	e8 00 00 00 00	 call	 ?GetToken@@YA?AW4SMDToken@@XZ ; GetToken

; 57   : 
; 58   : 		if( Token == END )

  00059	83 f8 02	 cmp	 eax, 2
  0005c	0f 84 35 04 00
	00		 je	 $LN43@Read
  00062	53		 push	 ebx
$LL22@Read:

; 59   : 		{
; 60   : 			break;
; 61   : 		}
; 62   : 
; 63   : 		int Type = (int)TokenNumber;

  00063	d9 05 00 00 00
	00		 fld	 DWORD PTR _TokenNumber
  00069	e8 00 00 00 00	 call	 __ftol2_sse

; 64   : 
; 65   : 		if( Type == 0 ) //RankList

  0006e	85 c0		 test	 eax, eax
  00070	0f 85 bc 01 00
	00		 jne	 $LN19@Read

; 66   : 		{
; 67   : 			while(true)
; 68   : 			{
; 69   : 				Token = GetToken();

  00076	e8 00 00 00 00	 call	 ?GetToken@@YA?AW4SMDToken@@XZ ; GetToken

; 70   : 
; 71   : 				if(!strcmp("end", TokenString))

  0007b	b9 00 00 00 00	 mov	 ecx, OFFSET _TokenString
  00080	b8 00 00 00 00	 mov	 eax, OFFSET ??_C@_03JBJLGPFL@end?$AA@
$LL47@Read:
  00085	8a 10		 mov	 dl, BYTE PTR [eax]
  00087	3a 11		 cmp	 dl, BYTE PTR [ecx]
  00089	75 1a		 jne	 SHORT $LN48@Read
  0008b	84 d2		 test	 dl, dl
  0008d	74 12		 je	 SHORT $LN49@Read
  0008f	8a 50 01	 mov	 dl, BYTE PTR [eax+1]
  00092	3a 51 01	 cmp	 dl, BYTE PTR [ecx+1]
  00095	75 0e		 jne	 SHORT $LN48@Read
  00097	83 c0 02	 add	 eax, 2
  0009a	83 c1 02	 add	 ecx, 2
  0009d	84 d2		 test	 dl, dl
  0009f	75 e4		 jne	 SHORT $LL47@Read
$LN49@Read:
  000a1	33 c0		 xor	 eax, eax
  000a3	eb 05		 jmp	 SHORT $LN50@Read
$LN48@Read:
  000a5	1b c0		 sbb	 eax, eax
  000a7	83 d8 ff	 sbb	 eax, -1
$LN50@Read:
  000aa	85 c0		 test	 eax, eax
  000ac	0f 84 d3 03 00
	00		 je	 $LN42@Read
$LL18@Read:

; 72   : 				{
; 73   : 					break;
; 74   : 				}
; 75   : 
; 76   : 				ItemRank_Data lpData;
; 77   : 
; 78   : 				lpData.RankID = TokenNumber;

  000b2	d9 05 00 00 00
	00		 fld	 DWORD PTR _TokenNumber
  000b8	33 c0		 xor	 eax, eax
  000ba	89 45 f4	 mov	 DWORD PTR _lpData$210034[ebp], eax
  000bd	d9 7d f2	 fnstcw	 WORD PTR tv323[ebp]
  000c0	66 89 45 f8	 mov	 WORD PTR _lpData$210034[ebp+4], ax
  000c4	88 45 fa	 mov	 BYTE PTR _lpData$210034[ebp+6], al
  000c7	0f b7 45 f2	 movzx	 eax, WORD PTR tv323[ebp]
  000cb	0d 00 0c 00 00	 or	 eax, 3072		; 00000c00H
  000d0	89 45 ec	 mov	 DWORD PTR tv320[ebp], eax
  000d3	d9 6d ec	 fldcw	 WORD PTR tv320[ebp]
  000d6	db 5d ec	 fistp	 DWORD PTR tv318[ebp]
  000d9	0f b6 45 ec	 movzx	 eax, BYTE PTR tv318[ebp]
  000dd	88 45 f4	 mov	 BYTE PTR _lpData$210034[ebp], al
  000e0	d9 6d f2	 fldcw	 WORD PTR tv323[ebp]

; 79   : 
; 80   : 				Token = GetToken();

  000e3	e8 00 00 00 00	 call	 ?GetToken@@YA?AW4SMDToken@@XZ ; GetToken

; 81   : 				lpData.OptionValue[0] = TokenNumber;

  000e8	d9 05 00 00 00
	00		 fld	 DWORD PTR _TokenNumber
  000ee	d9 7d f2	 fnstcw	 WORD PTR tv315[ebp]
  000f1	0f b7 45 f2	 movzx	 eax, WORD PTR tv315[ebp]
  000f5	0d 00 0c 00 00	 or	 eax, 3072		; 00000c00H
  000fa	89 45 ec	 mov	 DWORD PTR tv312[ebp], eax
  000fd	d9 6d ec	 fldcw	 WORD PTR tv312[ebp]
  00100	db 5d ec	 fistp	 DWORD PTR tv310[ebp]
  00103	0f b6 4d ec	 movzx	 ecx, BYTE PTR tv310[ebp]
  00107	88 4d f5	 mov	 BYTE PTR _lpData$210034[ebp+1], cl
  0010a	d9 6d f2	 fldcw	 WORD PTR tv315[ebp]

; 82   : 
; 83   : 				Token = GetToken();

  0010d	e8 00 00 00 00	 call	 ?GetToken@@YA?AW4SMDToken@@XZ ; GetToken

; 84   : 				lpData.OptionValue[1] = TokenNumber;

  00112	d9 05 00 00 00
	00		 fld	 DWORD PTR _TokenNumber
  00118	d9 7d f2	 fnstcw	 WORD PTR tv307[ebp]
  0011b	0f b7 45 f2	 movzx	 eax, WORD PTR tv307[ebp]
  0011f	0d 00 0c 00 00	 or	 eax, 3072		; 00000c00H
  00124	89 45 ec	 mov	 DWORD PTR tv304[ebp], eax
  00127	d9 6d ec	 fldcw	 WORD PTR tv304[ebp]
  0012a	db 5d ec	 fistp	 DWORD PTR tv301[ebp]
  0012d	0f b6 55 ec	 movzx	 edx, BYTE PTR tv301[ebp]
  00131	88 55 f6	 mov	 BYTE PTR _lpData$210034[ebp+2], dl
  00134	d9 6d f2	 fldcw	 WORD PTR tv307[ebp]

; 85   : 
; 86   : 				Token = GetToken();

  00137	e8 00 00 00 00	 call	 ?GetToken@@YA?AW4SMDToken@@XZ ; GetToken

; 87   : 				lpData.OptionValue[2] = TokenNumber;

  0013c	d9 05 00 00 00
	00		 fld	 DWORD PTR _TokenNumber
  00142	d9 7d f2	 fnstcw	 WORD PTR tv298[ebp]
  00145	0f b7 45 f2	 movzx	 eax, WORD PTR tv298[ebp]
  00149	0d 00 0c 00 00	 or	 eax, 3072		; 00000c00H
  0014e	89 45 ec	 mov	 DWORD PTR tv294[ebp], eax
  00151	d9 6d ec	 fldcw	 WORD PTR tv294[ebp]
  00154	db 5d ec	 fistp	 DWORD PTR tv291[ebp]
  00157	0f b6 45 ec	 movzx	 eax, BYTE PTR tv291[ebp]
  0015b	88 45 f7	 mov	 BYTE PTR _lpData$210034[ebp+3], al
  0015e	d9 6d f2	 fldcw	 WORD PTR tv298[ebp]

; 88   : 
; 89   : 				Token = GetToken();

  00161	e8 00 00 00 00	 call	 ?GetToken@@YA?AW4SMDToken@@XZ ; GetToken

; 90   : 				lpData.OptionValue[3] = TokenNumber;

  00166	d9 05 00 00 00
	00		 fld	 DWORD PTR _TokenNumber
  0016c	d9 7d f2	 fnstcw	 WORD PTR tv288[ebp]
  0016f	0f b7 45 f2	 movzx	 eax, WORD PTR tv288[ebp]
  00173	0d 00 0c 00 00	 or	 eax, 3072		; 00000c00H
  00178	89 45 ec	 mov	 DWORD PTR tv280[ebp], eax
  0017b	d9 6d ec	 fldcw	 WORD PTR tv280[ebp]
  0017e	db 5d ec	 fistp	 DWORD PTR tv277[ebp]
  00181	0f b6 4d ec	 movzx	 ecx, BYTE PTR tv277[ebp]
  00185	88 4d f8	 mov	 BYTE PTR _lpData$210034[ebp+4], cl
  00188	d9 6d f2	 fldcw	 WORD PTR tv288[ebp]

; 91   : 
; 92   : 				Token = GetToken();

  0018b	e8 00 00 00 00	 call	 ?GetToken@@YA?AW4SMDToken@@XZ ; GetToken

; 93   : 				lpData.OptionValue[4] = TokenNumber;

  00190	d9 05 00 00 00
	00		 fld	 DWORD PTR _TokenNumber
  00196	d9 7d f2	 fnstcw	 WORD PTR tv273[ebp]
  00199	0f b7 45 f2	 movzx	 eax, WORD PTR tv273[ebp]
  0019d	0d 00 0c 00 00	 or	 eax, 3072		; 00000c00H
  001a2	89 45 ec	 mov	 DWORD PTR tv270[ebp], eax
  001a5	d9 6d ec	 fldcw	 WORD PTR tv270[ebp]
  001a8	db 5d ec	 fistp	 DWORD PTR tv216[ebp]
  001ab	0f b6 55 ec	 movzx	 edx, BYTE PTR tv216[ebp]
  001af	88 55 f9	 mov	 BYTE PTR _lpData$210034[ebp+5], dl
  001b2	d9 6d f2	 fldcw	 WORD PTR tv273[ebp]

; 94   : 
; 95   : 				Token = GetToken();

  001b5	e8 00 00 00 00	 call	 ?GetToken@@YA?AW4SMDToken@@XZ ; GetToken

; 96   : 				lpData.OptionValue[5] = TokenNumber;
; 97   : 
; 98   : 				this->m_Data.push_back(lpData);

  001ba	8d 4d f4	 lea	 ecx, DWORD PTR _lpData$210034[ebp]
  001bd	d9 05 00 00 00
	00		 fld	 DWORD PTR _TokenNumber
  001c3	d9 7d f2	 fnstcw	 WORD PTR tv194[ebp]
  001c6	0f b7 45 f2	 movzx	 eax, WORD PTR tv194[ebp]
  001ca	0d 00 0c 00 00	 or	 eax, 3072		; 00000c00H
  001cf	89 45 ec	 mov	 DWORD PTR tv191[ebp], eax
  001d2	d9 6d ec	 fldcw	 WORD PTR tv191[ebp]
  001d5	db 5d ec	 fistp	 DWORD PTR tv189[ebp]
  001d8	0f b6 45 ec	 movzx	 eax, BYTE PTR tv189[ebp]
  001dc	88 45 fa	 mov	 BYTE PTR _lpData$210034[ebp+6], al
  001df	d9 6d f2	 fldcw	 WORD PTR tv194[ebp]
  001e2	51		 push	 ecx
  001e3	8d 4e 04	 lea	 ecx, DWORD PTR [esi+4]
  001e6	e8 00 00 00 00	 call	 ?push_back@?$vector@UItemRank_Data@@V?$allocator@UItemRank_Data@@@std@@@std@@QAEXABUItemRank_Data@@@Z ; std::vector<ItemRank_Data,std::allocator<ItemRank_Data> >::push_back
  001eb	e8 00 00 00 00	 call	 ?GetToken@@YA?AW4SMDToken@@XZ ; GetToken
  001f0	b9 00 00 00 00	 mov	 ecx, OFFSET _TokenString
  001f5	b8 00 00 00 00	 mov	 eax, OFFSET ??_C@_03JBJLGPFL@end?$AA@
  001fa	8d 9b 00 00 00
	00		 npad	 6
$LL51@Read:

; 70   : 
; 71   : 				if(!strcmp("end", TokenString))

  00200	8a 10		 mov	 dl, BYTE PTR [eax]
  00202	3a 11		 cmp	 dl, BYTE PTR [ecx]
  00204	75 1a		 jne	 SHORT $LN52@Read
  00206	84 d2		 test	 dl, dl
  00208	74 12		 je	 SHORT $LN53@Read
  0020a	8a 50 01	 mov	 dl, BYTE PTR [eax+1]
  0020d	3a 51 01	 cmp	 dl, BYTE PTR [ecx+1]
  00210	75 0e		 jne	 SHORT $LN52@Read
  00212	83 c0 02	 add	 eax, 2
  00215	83 c1 02	 add	 ecx, 2
  00218	84 d2		 test	 dl, dl
  0021a	75 e4		 jne	 SHORT $LL51@Read
$LN53@Read:
  0021c	33 c0		 xor	 eax, eax
  0021e	eb 05		 jmp	 SHORT $LN54@Read
$LN52@Read:
  00220	1b c0		 sbb	 eax, eax
  00222	83 d8 ff	 sbb	 eax, -1
$LN54@Read:
  00225	85 c0		 test	 eax, eax
  00227	0f 85 85 fe ff
	ff		 jne	 $LL18@Read

; 99   : 			}
; 100  : 		}
; 101  : 		else if( Type == 1 ) //ItemList

  0022d	e9 53 02 00 00	 jmp	 $LN42@Read
$LN19@Read:
  00232	83 f8 01	 cmp	 eax, 1
  00235	0f 85 3c 01 00
	00		 jne	 $LN14@Read

; 102  : 		{
; 103  : 			while(true)
; 104  : 			{
; 105  : 				Token = GetToken();

  0023b	e8 00 00 00 00	 call	 ?GetToken@@YA?AW4SMDToken@@XZ ; GetToken

; 106  : 
; 107  : 				if(!strcmp("end", TokenString))

  00240	b9 00 00 00 00	 mov	 ecx, OFFSET _TokenString
  00245	b8 00 00 00 00	 mov	 eax, OFFSET ??_C@_03JBJLGPFL@end?$AA@
  0024a	8d 9b 00 00 00
	00		 npad	 6
$LL55@Read:
  00250	8a 10		 mov	 dl, BYTE PTR [eax]
  00252	3a 11		 cmp	 dl, BYTE PTR [ecx]
  00254	75 1a		 jne	 SHORT $LN56@Read
  00256	84 d2		 test	 dl, dl
  00258	74 12		 je	 SHORT $LN57@Read
  0025a	8a 50 01	 mov	 dl, BYTE PTR [eax+1]
  0025d	3a 51 01	 cmp	 dl, BYTE PTR [ecx+1]
  00260	75 0e		 jne	 SHORT $LN56@Read
  00262	83 c0 02	 add	 eax, 2
  00265	83 c1 02	 add	 ecx, 2
  00268	84 d2		 test	 dl, dl
  0026a	75 e4		 jne	 SHORT $LL55@Read
$LN57@Read:
  0026c	33 c0		 xor	 eax, eax
  0026e	eb 05		 jmp	 SHORT $LN58@Read
$LN56@Read:
  00270	1b c0		 sbb	 eax, eax
  00272	83 d8 ff	 sbb	 eax, -1
$LN58@Read:
  00275	85 c0		 test	 eax, eax
  00277	0f 84 08 02 00
	00		 je	 $LN42@Read
  0027d	8d 49 00	 npad	 3
$LL13@Read:

; 108  : 				{
; 109  : 					break;
; 110  : 				}
; 111  : 
; 112  : 				ItemRank_List lpData;
; 113  : 				int ItemType = -1, ItemIndex = -1;
; 114  : 
; 115  : 				lpData.RankID = TokenNumber;

  00280	d9 05 00 00 00
	00		 fld	 DWORD PTR _TokenNumber
  00286	33 c0		 xor	 eax, eax
  00288	89 45 e4	 mov	 DWORD PTR _lpData$210041[ebp], eax
  0028b	d9 7d f2	 fnstcw	 WORD PTR tv77[ebp]
  0028e	66 89 45 e8	 mov	 WORD PTR _lpData$210041[ebp+4], ax
  00292	0f b7 45 f2	 movzx	 eax, WORD PTR tv77[ebp]
  00296	0d 00 0c 00 00	 or	 eax, 3072		; 00000c00H
  0029b	89 45 ec	 mov	 DWORD PTR tv222[ebp], eax
  0029e	d9 6d ec	 fldcw	 WORD PTR tv222[ebp]
  002a1	db 5d ec	 fistp	 DWORD PTR tv285[ebp]
  002a4	8a 55 ec	 mov	 dl, BYTE PTR tv285[ebp]
  002a7	88 55 e4	 mov	 BYTE PTR _lpData$210041[ebp], dl
  002aa	d9 6d f2	 fldcw	 WORD PTR tv77[ebp]

; 116  : 
; 117  : 				Token = GetToken();

  002ad	e8 00 00 00 00	 call	 ?GetToken@@YA?AW4SMDToken@@XZ ; GetToken

; 118  : 				ItemType = TokenNumber;

  002b2	d9 05 00 00 00
	00		 fld	 DWORD PTR _TokenNumber
  002b8	e8 00 00 00 00	 call	 __ftol2_sse
  002bd	8b f8		 mov	 edi, eax

; 119  : 
; 120  : 				Token = GetToken();

  002bf	e8 00 00 00 00	 call	 ?GetToken@@YA?AW4SMDToken@@XZ ; GetToken

; 121  : 				ItemIndex = TokenNumber;

  002c4	d9 05 00 00 00
	00		 fld	 DWORD PTR _TokenNumber
  002ca	e8 00 00 00 00	 call	 __ftol2_sse
  002cf	8b d8		 mov	 ebx, eax

; 122  : 
; 123  : 				Token = GetToken();

  002d1	e8 00 00 00 00	 call	 ?GetToken@@YA?AW4SMDToken@@XZ ; GetToken

; 124  : 				lpData.MinLevel = TokenNumber;

  002d6	d9 05 00 00 00
	00		 fld	 DWORD PTR _TokenNumber
  002dc	d9 7d f2	 fnstcw	 WORD PTR tv393[ebp]

; 125  : 
; 126  : 				lpData.ItemType = ITEMGET(ItemType, ItemIndex);

  002df	8b cf		 mov	 ecx, edi
  002e1	0f b7 45 f2	 movzx	 eax, WORD PTR tv393[ebp]
  002e5	0d 00 0c 00 00	 or	 eax, 3072		; 00000c00H
  002ea	89 45 ec	 mov	 DWORD PTR tv396[ebp], eax
  002ed	c1 e1 09	 shl	 ecx, 9
  002f0	03 cb		 add	 ecx, ebx
  002f2	d9 6d ec	 fldcw	 WORD PTR tv396[ebp]
  002f5	66 89 4d e6	 mov	 WORD PTR _lpData$210041[ebp+2], cx

; 127  : 
; 128  : 				if(!this->IsDataRank(lpData.RankID))

  002f9	8b 55 e4	 mov	 edx, DWORD PTR _lpData$210041[ebp]
  002fc	52		 push	 edx
  002fd	8b ce		 mov	 ecx, esi
  002ff	db 5d ec	 fistp	 DWORD PTR tv398[ebp]
  00302	8a 45 ec	 mov	 al, BYTE PTR tv398[ebp]
  00305	88 45 e8	 mov	 BYTE PTR _lpData$210041[ebp+4], al
  00308	d9 6d f2	 fldcw	 WORD PTR tv393[ebp]
  0030b	e8 00 00 00 00	 call	 ?IsDataRank@ItemRank@@QAE_NE@Z ; ItemRank::IsDataRank
  00310	84 c0		 test	 al, al
  00312	75 16		 jne	 SHORT $LN10@Read

; 129  : 				{
; 130  : 					MsgBox("[ItemRank] Invalid RankID (Item: %d/%d - RankID: %d)", 
; 131  : 						ItemType, ItemIndex, lpData.RankID);

  00314	0f b6 45 e4	 movzx	 eax, BYTE PTR _lpData$210041[ebp]
  00318	50		 push	 eax
  00319	53		 push	 ebx
  0031a	57		 push	 edi
  0031b	68 00 00 00 00	 push	 OFFSET ??_C@_0DF@JJHKLIKG@?$FLItemRank?$FN?5Invalid?5RankID?5?$CIItem?3@
  00320	e8 00 00 00 00	 call	 ?MsgBox@@YAXPADZZ	; MsgBox
  00325	83 c4 10	 add	 esp, 16			; 00000010H

; 132  : 					continue;

  00328	eb 0c		 jmp	 SHORT $LN45@Read
$LN10@Read:

; 133  : 				}
; 134  : 
; 135  : 				this->m_ItemList.push_back(lpData);

  0032a	8d 4d e4	 lea	 ecx, DWORD PTR _lpData$210041[ebp]
  0032d	51		 push	 ecx
  0032e	8d 4e 14	 lea	 ecx, DWORD PTR [esi+20]
  00331	e8 00 00 00 00	 call	 ?push_back@?$vector@UItemRank_List@@V?$allocator@UItemRank_List@@@std@@@std@@QAEXABUItemRank_List@@@Z ; std::vector<ItemRank_List,std::allocator<ItemRank_List> >::push_back
$LN45@Read:

; 106  : 
; 107  : 				if(!strcmp("end", TokenString))

  00336	e8 00 00 00 00	 call	 ?GetToken@@YA?AW4SMDToken@@XZ ; GetToken
  0033b	b9 00 00 00 00	 mov	 ecx, OFFSET _TokenString
  00340	b8 00 00 00 00	 mov	 eax, OFFSET ??_C@_03JBJLGPFL@end?$AA@
$LL59@Read:
  00345	8a 10		 mov	 dl, BYTE PTR [eax]
  00347	3a 11		 cmp	 dl, BYTE PTR [ecx]
  00349	75 1a		 jne	 SHORT $LN60@Read
  0034b	84 d2		 test	 dl, dl
  0034d	74 12		 je	 SHORT $LN61@Read
  0034f	8a 50 01	 mov	 dl, BYTE PTR [eax+1]
  00352	3a 51 01	 cmp	 dl, BYTE PTR [ecx+1]
  00355	75 0e		 jne	 SHORT $LN60@Read
  00357	83 c0 02	 add	 eax, 2
  0035a	83 c1 02	 add	 ecx, 2
  0035d	84 d2		 test	 dl, dl
  0035f	75 e4		 jne	 SHORT $LL59@Read
$LN61@Read:
  00361	33 c0		 xor	 eax, eax
  00363	eb 05		 jmp	 SHORT $LN62@Read
$LN60@Read:
  00365	1b c0		 sbb	 eax, eax
  00367	83 d8 ff	 sbb	 eax, -1
$LN62@Read:
  0036a	85 c0		 test	 eax, eax
  0036c	0f 85 0e ff ff
	ff		 jne	 $LL13@Read

; 136  : 			}
; 137  : 		}
; 138  : 		else if( Type == 2 ) //SetList

  00372	e9 0e 01 00 00	 jmp	 $LN42@Read
$LN14@Read:
  00377	83 f8 02	 cmp	 eax, 2
  0037a	0f 85 05 01 00
	00		 jne	 $LN42@Read

; 139  : 		{
; 140  : 			while(true)
; 141  : 			{
; 142  : 				Token = GetToken();

  00380	e8 00 00 00 00	 call	 ?GetToken@@YA?AW4SMDToken@@XZ ; GetToken

; 143  : 
; 144  : 				if(!strcmp("end", TokenString))

  00385	b9 00 00 00 00	 mov	 ecx, OFFSET _TokenString
  0038a	b8 00 00 00 00	 mov	 eax, OFFSET ??_C@_03JBJLGPFL@end?$AA@
  0038f	90		 npad	 1
$LL63@Read:
  00390	8a 10		 mov	 dl, BYTE PTR [eax]
  00392	3a 11		 cmp	 dl, BYTE PTR [ecx]
  00394	75 1a		 jne	 SHORT $LN64@Read
  00396	84 d2		 test	 dl, dl
  00398	74 12		 je	 SHORT $LN65@Read
  0039a	8a 50 01	 mov	 dl, BYTE PTR [eax+1]
  0039d	3a 51 01	 cmp	 dl, BYTE PTR [ecx+1]
  003a0	75 0e		 jne	 SHORT $LN64@Read
  003a2	83 c0 02	 add	 eax, 2
  003a5	83 c1 02	 add	 ecx, 2
  003a8	84 d2		 test	 dl, dl
  003aa	75 e4		 jne	 SHORT $LL63@Read
$LN65@Read:
  003ac	33 c0		 xor	 eax, eax
  003ae	eb 05		 jmp	 SHORT $LN66@Read
$LN64@Read:
  003b0	1b c0		 sbb	 eax, eax
  003b2	83 d8 ff	 sbb	 eax, -1
$LN66@Read:
  003b5	85 c0		 test	 eax, eax
  003b7	0f 84 c8 00 00
	00		 je	 $LN42@Read
  003bd	8d 49 00	 npad	 3
$LL7@Read:

; 145  : 				{
; 146  : 					break;
; 147  : 				}
; 148  : 
; 149  : 				int ItemIndex = -1, ItemRankID = -1, ItemLevel = 0;
; 150  : 
; 151  : 				ItemRankID = TokenNumber;

  003c0	d9 05 00 00 00
	00		 fld	 DWORD PTR _TokenNumber
  003c6	e8 00 00 00 00	 call	 __ftol2_sse
  003cb	8b d8		 mov	 ebx, eax

; 152  : 
; 153  : 				Token = GetToken();

  003cd	e8 00 00 00 00	 call	 ?GetToken@@YA?AW4SMDToken@@XZ ; GetToken

; 154  : 				ItemIndex = TokenNumber;

  003d2	d9 05 00 00 00
	00		 fld	 DWORD PTR _TokenNumber
  003d8	e8 00 00 00 00	 call	 __ftol2_sse
  003dd	8b f8		 mov	 edi, eax

; 155  : 
; 156  : 				Token = GetToken();

  003df	e8 00 00 00 00	 call	 ?GetToken@@YA?AW4SMDToken@@XZ ; GetToken

; 157  : 				ItemLevel = TokenNumber;

  003e4	d9 05 00 00 00
	00		 fld	 DWORD PTR _TokenNumber
  003ea	e8 00 00 00 00	 call	 __ftol2_sse

; 158  : 
; 159  : 				if(!this->IsDataRank(ItemRankID))

  003ef	53		 push	 ebx
  003f0	8b ce		 mov	 ecx, esi
  003f2	89 45 ec	 mov	 DWORD PTR _ItemLevel$210054[ebp], eax
  003f5	e8 00 00 00 00	 call	 ?IsDataRank@ItemRank@@QAE_NE@Z ; ItemRank::IsDataRank
  003fa	84 c0		 test	 al, al
  003fc	75 11		 jne	 SHORT $LN4@Read

; 160  : 				{
; 161  : 					MsgBox("[ItemRank] Invalid RankID (Item: %d - RankID: %d)", 
; 162  : 						ItemIndex, ItemRankID);

  003fe	53		 push	 ebx
  003ff	57		 push	 edi
  00400	68 00 00 00 00	 push	 OFFSET ??_C@_0DC@NONPIKIO@?$FLItemRank?$FN?5Invalid?5RankID?5?$CIItem?3@
  00405	e8 00 00 00 00	 call	 ?MsgBox@@YAXPADZZ	; MsgBox
  0040a	83 c4 0c	 add	 esp, 12			; 0000000cH

; 163  : 					continue;

  0040d	eb 3a		 jmp	 SHORT $LN1@Read
$LN4@Read:

; 164  : 				}
; 165  : 
; 166  : 				for(int i = 7; i < 12; i++)

  0040f	be 07 00 00 00	 mov	 esi, 7
$LL71@Read:

; 169  : 
; 170  : 					lpData.RankID = ItemRankID;
; 171  : 
; 172  : 					lpData.MinLevel = ItemLevel;

  00414	8a 55 ec	 mov	 dl, BYTE PTR _ItemLevel$210054[ebp]
  00417	33 c0		 xor	 eax, eax
  00419	89 45 dc	 mov	 DWORD PTR _lpData$210061[ebp], eax
  0041c	66 89 45 e0	 mov	 WORD PTR _lpData$210061[ebp+4], ax

; 173  : 
; 174  : 					lpData.ItemType = ITEMGET(i, ItemIndex);
; 175  : 
; 176  : 					this->m_ItemList.push_back(lpData);

  00420	8d 4d dc	 lea	 ecx, DWORD PTR _lpData$210061[ebp]
  00423	8b c6		 mov	 eax, esi
  00425	51		 push	 ecx
  00426	8b 4d d8	 mov	 ecx, DWORD PTR _this$GSCopy$[ebp]
  00429	c1 e0 09	 shl	 eax, 9
  0042c	03 c7		 add	 eax, edi
  0042e	83 c1 14	 add	 ecx, 20			; 00000014H
  00431	88 5d dc	 mov	 BYTE PTR _lpData$210061[ebp], bl
  00434	88 55 e0	 mov	 BYTE PTR _lpData$210061[ebp+4], dl
  00437	66 89 45 de	 mov	 WORD PTR _lpData$210061[ebp+2], ax
  0043b	e8 00 00 00 00	 call	 ?push_back@?$vector@UItemRank_List@@V?$allocator@UItemRank_List@@@std@@@std@@QAEXABUItemRank_List@@@Z ; std::vector<ItemRank_List,std::allocator<ItemRank_List> >::push_back
  00440	46		 inc	 esi
  00441	83 fe 0c	 cmp	 esi, 12			; 0000000cH
  00444	7c ce		 jl	 SHORT $LL71@Read

; 164  : 				}
; 165  : 
; 166  : 				for(int i = 7; i < 12; i++)

  00446	8b 75 d8	 mov	 esi, DWORD PTR _this$GSCopy$[ebp]
$LN1@Read:

; 139  : 		{
; 140  : 			while(true)
; 141  : 			{
; 142  : 				Token = GetToken();

  00449	e8 00 00 00 00	 call	 ?GetToken@@YA?AW4SMDToken@@XZ ; GetToken

; 143  : 
; 144  : 				if(!strcmp("end", TokenString))

  0044e	b9 00 00 00 00	 mov	 ecx, OFFSET _TokenString
  00453	b8 00 00 00 00	 mov	 eax, OFFSET ??_C@_03JBJLGPFL@end?$AA@
$LL67@Read:
  00458	8a 10		 mov	 dl, BYTE PTR [eax]
  0045a	3a 11		 cmp	 dl, BYTE PTR [ecx]
  0045c	75 1a		 jne	 SHORT $LN68@Read
  0045e	84 d2		 test	 dl, dl
  00460	74 12		 je	 SHORT $LN69@Read
  00462	8a 50 01	 mov	 dl, BYTE PTR [eax+1]
  00465	3a 51 01	 cmp	 dl, BYTE PTR [ecx+1]
  00468	75 0e		 jne	 SHORT $LN68@Read
  0046a	83 c0 02	 add	 eax, 2
  0046d	83 c1 02	 add	 ecx, 2
  00470	84 d2		 test	 dl, dl
  00472	75 e4		 jne	 SHORT $LL67@Read
$LN69@Read:
  00474	33 c0		 xor	 eax, eax
  00476	eb 05		 jmp	 SHORT $LN70@Read
$LN68@Read:
  00478	1b c0		 sbb	 eax, eax
  0047a	83 d8 ff	 sbb	 eax, -1
$LN70@Read:
  0047d	85 c0		 test	 eax, eax
  0047f	0f 85 3b ff ff
	ff		 jne	 $LL7@Read
$LN42@Read:

; 51   : 		return;
; 52   : 	}
; 53   : 
; 54   : 	while(true)
; 55   : 	{
; 56   : 		SMDToken Token = GetToken();

  00485	e8 00 00 00 00	 call	 ?GetToken@@YA?AW4SMDToken@@XZ ; GetToken

; 57   : 
; 58   : 		if( Token == END )

  0048a	83 f8 02	 cmp	 eax, 2
  0048d	0f 85 d0 fb ff
	ff		 jne	 $LL22@Read
  00493	8b 7d d4	 mov	 edi, DWORD PTR _File$GSCopy$[ebp]
  00496	5b		 pop	 ebx
$LN43@Read:

; 177  : 				}
; 178  : 			}
; 179  : 		}
; 180  : 	}
; 181  : 
; 182  : 	fclose(SMDFile);

  00497	8b 15 00 00 00
	00		 mov	 edx, DWORD PTR _SMDFile
  0049d	52		 push	 edx
  0049e	e8 00 00 00 00	 call	 _fclose

; 183  : 	LogAdd("%s file load!", File);

  004a3	57		 push	 edi
  004a4	68 00 00 00 00	 push	 OFFSET ??_C@_0O@CEHBAEMJ@?$CFs?5file?5load?$CB?$AA@
  004a9	ff 15 00 00 00
	00		 call	 DWORD PTR ?LogAdd@@3P6AXPADZZA ; LogAdd

; 184  : }

