; Listing generated by Microsoft (R) Optimizing Compiler Version 16.00.30319.01 

	TITLE	E:\work\tranet_version\GS\GameServer\JewelOfHarmonySystem.cpp
	.686P
	.XMM
	include listing.inc
	.model	flat

INCLUDELIB LIBCMT
INCLUDELIB OLDNAMES

_DATA	SEGMENT
_g_iNpcUpDfLevel_CGATE DD 01H
	DD	02H
	DD	02dc6c0H
	DD	02H
	DD	03H
	DD	02dc6c0H
	DD	03H
	DD	04H
	DD	02dc6c0H
_g_iNpcUpDfLevel_CSTATUE DD 01H
	DD	03H
	DD	02dc6c0H
	DD	02H
	DD	05H
	DD	02dc6c0H
	DD	03H
	DD	07H
	DD	02dc6c0H
_g_iNpcUpMaxHP_CGATE DD 02625a0H
	DD	02H
	DD	0f4240H
	DD	03567e0H
	DD	03H
	DD	0f4240H
	DD	04f5880H
	DD	04H
	DD	0f4240H
_g_iNpcUpMaxHP_CSTATUE DD 02191c0H
	DD	03H
	DD	0f4240H
	DD	033e140H
	DD	05H
	DD	0f4240H
	DD	04c4b40H
	DD	07H
	DD	0f4240H
_g_iNpcUpRgLevel_CSTATUE DD 01H
	DD	03H
	DD	04c4b40H
	DD	02H
	DD	05H
	DD	04c4b40H
	DD	03H
	DD	07H
	DD	04c4b40H
_g_iCsUserReSpawnArea DD 023H
	DD	011H
	DD	090H
	DD	030H
	DD	04aH
	DD	090H
	DD	073H
	DD	09aH
	DD	023H
	DD	011H
	DD	090H
	DD	030H
_g_iNpcDefense_CGATE DD 064H
	DD	0b4H
	DD	012cH
	DD	0208H
_g_iNpcDefense_CSTATUE DD 050H
	DD	0b4H
	DD	0154H
	DD	0226H
_g_iCastleWallStepAxisY DD 071H
	DD	0a0H
	DD	0cbH
_DATA	ENDS
PUBLIC	??2@YAPAXIPAX@Z					; operator new
; Function compile flags: /Ogtp
; File d:\program files (x86)\microsoft visual studio 10.0\vc\include\new.h
;	COMDAT ??2@YAPAXIPAX@Z
_TEXT	SEGMENT
___formal$ = 8						; size = 4
__Where$ = 12						; size = 4
??2@YAPAXIPAX@Z PROC					; operator new, COMDAT

; 81   :         {return (_Where); }

  00000	55		 push	 ebp
  00001	8b ec		 mov	 ebp, esp
  00003	8b 45 0c	 mov	 eax, DWORD PTR __Where$[ebp]
  00006	5d		 pop	 ebp
  00007	c3		 ret	 0
??2@YAPAXIPAX@Z ENDP					; operator new
_TEXT	ENDS
PUBLIC	??3@YAXPAX0@Z					; operator delete
; Function compile flags: /Ogtp
;	COMDAT ??3@YAXPAX0@Z
_TEXT	SEGMENT
___formal$ = 8						; size = 4
___formal$ = 12						; size = 4
??3@YAXPAX0@Z PROC					; operator delete, COMDAT

; 83   :         {return; }

  00000	c3		 ret	 0
??3@YAXPAX0@Z ENDP					; operator delete
_TEXT	ENDS
PUBLIC	??_H@YGXPAXIHP6EPAX0@Z@Z			; `vector constructor iterator'
; Function compile flags: /Ogtp
;	COMDAT ??_H@YGXPAXIHP6EPAX0@Z@Z
_TEXT	SEGMENT
___t$ = 8						; size = 4
___s$ = 12						; size = 4
___n$ = 16						; size = 4
___f$ = 20						; size = 4
??_H@YGXPAXIHP6EPAX0@Z@Z PROC				; `vector constructor iterator', COMDAT
  00000	55		 push	 ebp
  00001	8b ec		 mov	 ebp, esp
  00003	57		 push	 edi
  00004	8b 7d 10	 mov	 edi, DWORD PTR ___n$[ebp]
  00007	4f		 dec	 edi
  00008	78 14		 js	 SHORT $LN1@vector
  0000a	53		 push	 ebx
  0000b	8b 5d 14	 mov	 ebx, DWORD PTR ___f$[ebp]
  0000e	56		 push	 esi
  0000f	8b 75 08	 mov	 esi, DWORD PTR ___t$[ebp]
$LL2@vector:
  00012	8b ce		 mov	 ecx, esi
  00014	ff d3		 call	 ebx
  00016	03 75 0c	 add	 esi, DWORD PTR ___s$[ebp]
  00019	4f		 dec	 edi
  0001a	79 f6		 jns	 SHORT $LL2@vector
  0001c	5e		 pop	 esi
  0001d	5b		 pop	 ebx
$LN1@vector:
  0001e	5f		 pop	 edi
  0001f	5d		 pop	 ebp
  00020	c2 10 00	 ret	 16			; 00000010H
??_H@YGXPAXIHP6EPAX0@Z@Z ENDP				; `vector constructor iterator'
_TEXT	ENDS
PUBLIC	__$ArrayPad$
EXTRN	_isalnum:PROC
EXTRN	_isalpha:PROC
EXTRN	_atof:PROC
EXTRN	_isdigit:PROC
EXTRN	_getc:PROC
EXTRN	_ungetc:PROC
EXTRN	_isspace:PROC
EXTRN	_fgetc:PROC
EXTRN	___security_cookie:DWORD
EXTRN	__fltused:DWORD
EXTRN	@__security_check_cookie@4:PROC
_BSS	SEGMENT
_CurrentToken DD 01H DUP (?)
_TokenNumber DD	01H DUP (?)
_SMDFile DD	01H DUP (?)
_TokenString DB	064H DUP (?)
; Function compile flags: /Ogtp
; File e:\work\tranet_version\gs\include\readscript.h
_BSS	ENDS
;	COMDAT ?GetToken@@YA?AW4SMDToken@@XZ
_TEXT	SEGMENT
_TempString$ = -104					; size = 100
__$ArrayPad$ = -4					; size = 4
?GetToken@@YA?AW4SMDToken@@XZ PROC			; GetToken, COMDAT

; 24   : {

  00000	55		 push	 ebp
  00001	8b ec		 mov	 ebp, esp
  00003	83 ec 68	 sub	 esp, 104		; 00000068H
  00006	a1 00 00 00 00	 mov	 eax, DWORD PTR ___security_cookie
  0000b	33 c5		 xor	 eax, ebp
  0000d	89 45 fc	 mov	 DWORD PTR __$ArrayPad$[ebp], eax

; 25   : 	char ch;
; 26   : 	char* p;
; 27   : 	char TempString[100];
; 28   : 
; 29   : 	TokenString[0]=0;

  00010	c6 05 00 00 00
	00 00		 mov	 BYTE PTR _TokenString, 0
  00017	53		 push	 ebx
  00018	eb 06 8d 9b 00
	00 00 00	 npad	 8
$LL31@GetToken:

; 30   : 
; 31   : 	do
; 32   : 	{
; 33   : 		if ((ch=fgetc(SMDFile)) == -1)

  00020	a1 00 00 00 00	 mov	 eax, DWORD PTR _SMDFile
  00025	50		 push	 eax
  00026	e8 00 00 00 00	 call	 _fgetc
  0002b	8a d8		 mov	 bl, al
  0002d	83 c4 04	 add	 esp, 4
  00030	80 fb ff	 cmp	 bl, -1
  00033	74 64		 je	 SHORT $LN39@GetToken

; 36   : 		}
; 37   : 		else
; 38   : 		{	
; 39   : 			if (ch=='/')		// this is /

  00035	80 fb 2f	 cmp	 bl, 47			; 0000002fH
  00038	75 31		 jne	 SHORT $LN30@GetToken

; 40   : 			{
; 41   : 				if((ch=fgetc(SMDFile)) == '/')

  0003a	8b 0d 00 00 00
	00		 mov	 ecx, DWORD PTR _SMDFile
  00040	51		 push	 ecx
  00041	e8 00 00 00 00	 call	 _fgetc
  00046	8a d8		 mov	 bl, al
  00048	83 c4 04	 add	 esp, 4
  0004b	80 fb 2f	 cmp	 bl, 47			; 0000002fH
  0004e	75 1b		 jne	 SHORT $LN30@GetToken
$LL24@GetToken:

; 42   : 				{
; 43   : 					while ((ch != '\n') && (ch != -1))	// End of Line (EOL)

  00050	80 fb ff	 cmp	 bl, -1
  00053	74 44		 je	 SHORT $LN39@GetToken

; 44   : 					{
; 45   : 						ch=fgetc(SMDFile);

  00055	8b 15 00 00 00
	00		 mov	 edx, DWORD PTR _SMDFile
  0005b	52		 push	 edx
  0005c	e8 00 00 00 00	 call	 _fgetc
  00061	8a d8		 mov	 bl, al
  00063	83 c4 04	 add	 esp, 4
  00066	80 fb 0a	 cmp	 bl, 10			; 0000000aH
  00069	75 e5		 jne	 SHORT $LL24@GetToken
$LN30@GetToken:

; 46   : 					}
; 47   : 	
; 48   : 					if (ch == -1)
; 49   : 					{
; 50   : 						return END;	// End of FILE
; 51   : 					}
; 52   : 				}
; 53   : 			}
; 54   : 		}
; 55   : 	}
; 56   : 	while (isspace(ch) != 0);

  0006b	0f be c3	 movsx	 eax, bl
  0006e	50		 push	 eax
  0006f	e8 00 00 00 00	 call	 _isspace
  00074	83 c4 04	 add	 esp, 4
  00077	85 c0		 test	 eax, eax
  00079	75 a5		 jne	 SHORT $LL31@GetToken

; 57   : 
; 58   : 	
; 59   : 	switch(ch)

  0007b	0f be c3	 movsx	 eax, bl
  0007e	8d 48 de	 lea	 ecx, DWORD PTR [eax-34]
  00081	56		 push	 esi
  00082	83 f9 5b	 cmp	 ecx, 91			; 0000005bH
  00085	0f 87 2b 01 00
	00		 ja	 $LN6@GetToken
  0008b	0f b6 89 00 00
	00 00		 movzx	 ecx, BYTE PTR $LN46@GetToken[ecx]
  00092	ff 24 8d 00 00
	00 00		 jmp	 DWORD PTR $LN50@GetToken[ecx*4]
$LN39@GetToken:

; 34   : 		{
; 35   : 			return END;	// End of FILE (EOF)

  00099	b8 02 00 00 00	 mov	 eax, 2
  0009e	5b		 pop	 ebx

; 147  : 		}
; 148  : 		break;
; 149  : 
; 150  : 	}
; 151  : 
; 152  : 	return NAME;
; 153  : }

  0009f	8b 4d fc	 mov	 ecx, DWORD PTR __$ArrayPad$[ebp]
  000a2	33 cd		 xor	 ecx, ebp
  000a4	e8 00 00 00 00	 call	 @__security_check_cookie@4
  000a9	8b e5		 mov	 esp, ebp
  000ab	5d		 pop	 ebp
  000ac	c3		 ret	 0
$LN19@GetToken:

; 60   : 	{
; 61   : 
; 62   : 	case 0x23:	// #
; 63   : 		return CurrentToken=COMMAND;

  000ad	b8 23 00 00 00	 mov	 eax, 35			; 00000023H
  000b2	e9 99 01 00 00	 jmp	 $LN48@GetToken
$LN18@GetToken:

; 64   : 		break;
; 65   : 	
; 66   : 	case 0x3B:	// ;
; 67   : 		return CurrentToken=SEMICOLON;

  000b7	b8 3b 00 00 00	 mov	 eax, 59			; 0000003bH
  000bc	e9 8f 01 00 00	 jmp	 $LN48@GetToken
$LN17@GetToken:

; 68   : 		break;
; 69   : 	
; 70   : 	case 0x2C:	// ,
; 71   : 
; 72   : 		return CurrentToken=COMMA;

  000c1	b8 2c 00 00 00	 mov	 eax, 44			; 0000002cH
  000c6	e9 85 01 00 00	 jmp	 $LN48@GetToken
$LN16@GetToken:

; 73   : 		break;
; 74   : 	
; 75   : 	case 0x7B:	// {
; 76   : 		return CurrentToken = LP;

  000cb	b8 7b 00 00 00	 mov	 eax, 123		; 0000007bH
  000d0	e9 7b 01 00 00	 jmp	 $LN48@GetToken
$LN15@GetToken:

; 77   : 		break;
; 78   : 
; 79   : 	case 0x7D:	// }
; 80   : 		return CurrentToken = RP;

  000d5	b8 7d 00 00 00	 mov	 eax, 125		; 0000007dH
  000da	e9 71 01 00 00	 jmp	 $LN48@GetToken
$LN14@GetToken:

; 81   : 		break;
; 82   : 	// Nice Index Table :)	by Deathway
; 83   : 	// Numbers Case
; 84   : 	case 0x2D:	//-
; 85   : 	case 0x2E:	//.
; 86   : 	case '0':	//0
; 87   : 	case '1':	//1
; 88   : 	case '2':	//2
; 89   : 	case '3':	//3
; 90   : 	case '4':	//4		
; 91   : 	case '5':	//5
; 92   : 	case '6':	//6
; 93   : 	case '7':	//7
; 94   : 	case '8':	//8
; 95   : 	case '9':	//9
; 96   : 		ungetc(ch, SMDFile);

  000df	8b 15 00 00 00
	00		 mov	 edx, DWORD PTR _SMDFile
  000e5	52		 push	 edx
  000e6	50		 push	 eax
  000e7	e8 00 00 00 00	 call	 _ungetc

; 97   : 		p = TempString;
; 98   : 		
; 99   : 		while (((ch=getc(SMDFile)) != -1) && ((ch == 0x2E) || (isdigit(ch) != 0) || (ch == 0x2D)))  // 2e '.'  2D '-'

  000ec	a1 00 00 00 00	 mov	 eax, DWORD PTR _SMDFile
  000f1	50		 push	 eax
  000f2	8d 75 98	 lea	 esi, DWORD PTR _TempString$[ebp]
  000f5	e8 00 00 00 00	 call	 _getc
  000fa	8a d8		 mov	 bl, al
  000fc	83 c4 0c	 add	 esp, 12			; 0000000cH
  000ff	80 fb ff	 cmp	 bl, -1
  00102	74 33		 je	 SHORT $LN12@GetToken
$LL13@GetToken:
  00104	80 fb 2e	 cmp	 bl, 46			; 0000002eH
  00107	74 15		 je	 SHORT $LN11@GetToken
  00109	0f be cb	 movsx	 ecx, bl
  0010c	51		 push	 ecx
  0010d	e8 00 00 00 00	 call	 _isdigit
  00112	83 c4 04	 add	 esp, 4
  00115	85 c0		 test	 eax, eax
  00117	75 05		 jne	 SHORT $LN11@GetToken
  00119	80 fb 2d	 cmp	 bl, 45			; 0000002dH
  0011c	75 19		 jne	 SHORT $LN12@GetToken
$LN11@GetToken:
  0011e	8b 15 00 00 00
	00		 mov	 edx, DWORD PTR _SMDFile

; 100  : 		{
; 101  : 			*p = ch;	// Construct a String

  00124	88 1e		 mov	 BYTE PTR [esi], bl
  00126	52		 push	 edx

; 102  : 			p++;

  00127	46		 inc	 esi
  00128	e8 00 00 00 00	 call	 _getc
  0012d	8a d8		 mov	 bl, al
  0012f	83 c4 04	 add	 esp, 4
  00132	80 fb ff	 cmp	 bl, -1
  00135	75 cd		 jne	 SHORT $LL13@GetToken
$LN12@GetToken:

; 103  : 		}		
; 104  : 		*p = 0;
; 105  : 		TokenNumber = atof( TempString);	// Select the first Byte as Main ID

  00137	8d 45 98	 lea	 eax, DWORD PTR _TempString$[ebp]
  0013a	50		 push	 eax
  0013b	c6 06 00	 mov	 BYTE PTR [esi], 0
  0013e	e8 00 00 00 00	 call	 _atof
  00143	d9 1d 00 00 00
	00		 fstp	 DWORD PTR _TokenNumber
  00149	83 c4 04	 add	 esp, 4
  0014c	5e		 pop	 esi

; 106  : 		return CurrentToken  = NUMBER ;

  0014d	c7 05 00 00 00
	00 01 00 00 00	 mov	 DWORD PTR _CurrentToken, 1
  00157	b8 01 00 00 00	 mov	 eax, 1
  0015c	5b		 pop	 ebx

; 147  : 		}
; 148  : 		break;
; 149  : 
; 150  : 	}
; 151  : 
; 152  : 	return NAME;
; 153  : }

  0015d	8b 4d fc	 mov	 ecx, DWORD PTR __$ArrayPad$[ebp]
  00160	33 cd		 xor	 ecx, ebp
  00162	e8 00 00 00 00	 call	 @__security_check_cookie@4
  00167	8b e5		 mov	 esp, ebp
  00169	5d		 pop	 ebp
  0016a	c3		 ret	 0
$LN10@GetToken:

; 107  : 		break;
; 108  : 
; 109  : 	case '\"':	// "	String Case
; 110  : 		p=&TokenString[0];
; 111  : 		
; 112  : 		while (((ch=getc(SMDFile)) != -1 ) && (ch != 0x22))	// nice

  0016b	8b 0d 00 00 00
	00		 mov	 ecx, DWORD PTR _SMDFile
  00171	51		 push	 ecx
  00172	be 00 00 00 00	 mov	 esi, OFFSET _TokenString
  00177	e8 00 00 00 00	 call	 _getc
  0017c	83 c4 04	 add	 esp, 4
  0017f	3c ff		 cmp	 al, -1
  00181	74 1e		 je	 SHORT $LN8@GetToken
$LL9@GetToken:
  00183	3c 22		 cmp	 al, 34			; 00000022H
  00185	0f 84 a1 00 00
	00		 je	 $LN7@GetToken
  0018b	8b 15 00 00 00
	00		 mov	 edx, DWORD PTR _SMDFile

; 113  : 		{
; 114  : 			*p = ch;

  00191	88 06		 mov	 BYTE PTR [esi], al
  00193	52		 push	 edx

; 115  : 			p++;

  00194	46		 inc	 esi
  00195	e8 00 00 00 00	 call	 _getc
  0019a	83 c4 04	 add	 esp, 4
  0019d	3c ff		 cmp	 al, -1
  0019f	75 e2		 jne	 SHORT $LL9@GetToken
$LN8@GetToken:

; 116  : 		}
; 117  : 		if (ch != 0x22 )

  001a1	3c 22		 cmp	 al, 34			; 00000022H
  001a3	0f 84 83 00 00
	00		 je	 $LN7@GetToken

; 118  : 		{
; 119  : 			ungetc(ch, SMDFile);

  001a9	8b 0d 00 00 00
	00		 mov	 ecx, DWORD PTR _SMDFile
  001af	0f be d0	 movsx	 edx, al
  001b2	51		 push	 ecx
  001b3	52		 push	 edx

; 120  : 		}
; 121  : 		*p = 0;
; 122  : 		return CurrentToken = NAME;

  001b4	eb 6e		 jmp	 SHORT $LN49@GetToken
$LN6@GetToken:

; 123  : 		break;
; 124  : 
; 125  : 	default:	// Others
; 126  : 		if (isalpha(ch))

  001b6	50		 push	 eax
  001b7	e8 00 00 00 00	 call	 _isalpha
  001bc	83 c4 04	 add	 esp, 4
  001bf	85 c0		 test	 eax, eax
  001c1	0f 84 84 00 00
	00		 je	 $LN5@GetToken

; 127  : 		{
; 128  : 			p=&TokenString[0];
; 129  : 			*p=ch;
; 130  : 			p++;
; 131  : 
; 132  : 			while ( ((ch=getc(SMDFile)) != -1) && ( (ch == 0x2E) || (ch == 0x5F) || (isalnum(ch) != 0) ) )

  001c7	a1 00 00 00 00	 mov	 eax, DWORD PTR _SMDFile
  001cc	50		 push	 eax
  001cd	88 1d 00 00 00
	00		 mov	 BYTE PTR _TokenString, bl
  001d3	be 01 00 00 00	 mov	 esi, OFFSET _TokenString+1
  001d8	e8 00 00 00 00	 call	 _getc
  001dd	8a d8		 mov	 bl, al
  001df	83 c4 04	 add	 esp, 4
  001e2	80 fb ff	 cmp	 bl, -1
  001e5	74 33		 je	 SHORT $LN3@GetToken
$LL4@GetToken:
  001e7	80 fb 2e	 cmp	 bl, 46			; 0000002eH
  001ea	74 15		 je	 SHORT $LN2@GetToken
  001ec	80 fb 5f	 cmp	 bl, 95			; 0000005fH
  001ef	74 10		 je	 SHORT $LN2@GetToken
  001f1	0f be cb	 movsx	 ecx, bl
  001f4	51		 push	 ecx
  001f5	e8 00 00 00 00	 call	 _isalnum
  001fa	83 c4 04	 add	 esp, 4
  001fd	85 c0		 test	 eax, eax
  001ff	74 19		 je	 SHORT $LN3@GetToken
$LN2@GetToken:
  00201	8b 15 00 00 00
	00		 mov	 edx, DWORD PTR _SMDFile

; 133  : 			{
; 134  : 				*p=ch;

  00207	88 1e		 mov	 BYTE PTR [esi], bl
  00209	52		 push	 edx

; 135  : 				p++;

  0020a	46		 inc	 esi
  0020b	e8 00 00 00 00	 call	 _getc
  00210	8a d8		 mov	 bl, al
  00212	83 c4 04	 add	 esp, 4
  00215	80 fb ff	 cmp	 bl, -1
  00218	75 cd		 jne	 SHORT $LL4@GetToken
$LN3@GetToken:

; 136  : 				
; 137  : 			}
; 138  : 
; 139  : 			ungetc(ch, SMDFile);

  0021a	a1 00 00 00 00	 mov	 eax, DWORD PTR _SMDFile
  0021f	0f be cb	 movsx	 ecx, bl
  00222	50		 push	 eax
  00223	51		 push	 ecx
$LN49@GetToken:
  00224	e8 00 00 00 00	 call	 _ungetc
  00229	83 c4 08	 add	 esp, 8
$LN7@GetToken:

; 140  : 			*p=0;

  0022c	c6 06 00	 mov	 BYTE PTR [esi], 0
  0022f	5e		 pop	 esi

; 141  : 			CurrentToken=NAME;

  00230	c7 05 00 00 00
	00 00 00 00 00	 mov	 DWORD PTR _CurrentToken, 0

; 142  : 			return CurrentToken;

  0023a	33 c0		 xor	 eax, eax
  0023c	5b		 pop	 ebx

; 147  : 		}
; 148  : 		break;
; 149  : 
; 150  : 	}
; 151  : 
; 152  : 	return NAME;
; 153  : }

  0023d	8b 4d fc	 mov	 ecx, DWORD PTR __$ArrayPad$[ebp]
  00240	33 cd		 xor	 ecx, ebp
  00242	e8 00 00 00 00	 call	 @__security_check_cookie@4
  00247	8b e5		 mov	 esp, ebp
  00249	5d		 pop	 ebp
  0024a	c3		 ret	 0
$LN5@GetToken:

; 143  : 		}
; 144  : 		else
; 145  : 		{
; 146  : 			return CurrentToken = SMD_ERROR; // '<'

  0024b	b8 3c 00 00 00	 mov	 eax, 60			; 0000003cH
$LN48@GetToken:

; 147  : 		}
; 148  : 		break;
; 149  : 
; 150  : 	}
; 151  : 
; 152  : 	return NAME;
; 153  : }

  00250	8b 4d fc	 mov	 ecx, DWORD PTR __$ArrayPad$[ebp]
  00253	5e		 pop	 esi
  00254	33 cd		 xor	 ecx, ebp
  00256	a3 00 00 00 00	 mov	 DWORD PTR _CurrentToken, eax
  0025b	5b		 pop	 ebx
  0025c	e8 00 00 00 00	 call	 @__security_check_cookie@4
  00261	8b e5		 mov	 esp, ebp
  00263	5d		 pop	 ebp
  00264	c3		 ret	 0
  00265	8d 49 00	 npad	 3
$LN50@GetToken:
  00268	00 00 00 00	 DD	 $LN10@GetToken
  0026c	00 00 00 00	 DD	 $LN19@GetToken
  00270	00 00 00 00	 DD	 $LN17@GetToken
  00274	00 00 00 00	 DD	 $LN14@GetToken
  00278	00 00 00 00	 DD	 $LN18@GetToken
  0027c	00 00 00 00	 DD	 $LN16@GetToken
  00280	00 00 00 00	 DD	 $LN15@GetToken
  00284	00 00 00 00	 DD	 $LN6@GetToken
$LN46@GetToken:
  00288	00		 DB	 0
  00289	01		 DB	 1
  0028a	07		 DB	 7
  0028b	07		 DB	 7
  0028c	07		 DB	 7
  0028d	07		 DB	 7
  0028e	07		 DB	 7
  0028f	07		 DB	 7
  00290	07		 DB	 7
  00291	07		 DB	 7
  00292	02		 DB	 2
  00293	03		 DB	 3
  00294	03		 DB	 3
  00295	07		 DB	 7
  00296	03		 DB	 3
  00297	03		 DB	 3
  00298	03		 DB	 3
  00299	03		 DB	 3
  0029a	03		 DB	 3
  0029b	03		 DB	 3
  0029c	03		 DB	 3
  0029d	03		 DB	 3
  0029e	03		 DB	 3
  0029f	03		 DB	 3
  002a0	07		 DB	 7
  002a1	04		 DB	 4
  002a2	07		 DB	 7
  002a3	07		 DB	 7
  002a4	07		 DB	 7
  002a5	07		 DB	 7
  002a6	07		 DB	 7
  002a7	07		 DB	 7
  002a8	07		 DB	 7
  002a9	07		 DB	 7
  002aa	07		 DB	 7
  002ab	07		 DB	 7
  002ac	07		 DB	 7
  002ad	07		 DB	 7
  002ae	07		 DB	 7
  002af	07		 DB	 7
  002b0	07		 DB	 7
  002b1	07		 DB	 7
  002b2	07		 DB	 7
  002b3	07		 DB	 7
  002b4	07		 DB	 7
  002b5	07		 DB	 7
  002b6	07		 DB	 7
  002b7	07		 DB	 7
  002b8	07		 DB	 7
  002b9	07		 DB	 7
  002ba	07		 DB	 7
  002bb	07		 DB	 7
  002bc	07		 DB	 7
  002bd	07		 DB	 7
  002be	07		 DB	 7
  002bf	07		 DB	 7
  002c0	07		 DB	 7
  002c1	07		 DB	 7
  002c2	07		 DB	 7
  002c3	07		 DB	 7
  002c4	07		 DB	 7
  002c5	07		 DB	 7
  002c6	07		 DB	 7
  002c7	07		 DB	 7
  002c8	07		 DB	 7
  002c9	07		 DB	 7
  002ca	07		 DB	 7
  002cb	07		 DB	 7
  002cc	07		 DB	 7
  002cd	07		 DB	 7
  002ce	07		 DB	 7
  002cf	07		 DB	 7
  002d0	07		 DB	 7
  002d1	07		 DB	 7
  002d2	07		 DB	 7
  002d3	07		 DB	 7
  002d4	07		 DB	 7
  002d5	07		 DB	 7
  002d6	07		 DB	 7
  002d7	07		 DB	 7
  002d8	07		 DB	 7
  002d9	07		 DB	 7
  002da	07		 DB	 7
  002db	07		 DB	 7
  002dc	07		 DB	 7
  002dd	07		 DB	 7
  002de	07		 DB	 7
  002df	07		 DB	 7
  002e0	07		 DB	 7
  002e1	05		 DB	 5
  002e2	07		 DB	 7
  002e3	06		 DB	 6
?GetToken@@YA?AW4SMDToken@@XZ ENDP			; GetToken
_TEXT	ENDS
PUBLIC	??_C@_0BL@JDFNNPPK@SmeltingItemSuccessRateExt?$AA@ ; `string'
PUBLIC	??_C@_0BL@LGPEKII@SmeltingItemSuccessRateNor?$AA@ ; `string'
PUBLIC	??_C@_0BG@GJJLECKD@StrengthenSuccessRate?$AA@	; `string'
PUBLIC	??_C@_0BA@OLOLOLHH@SmeltingNeedZen?$AA@		; `string'
PUBLIC	??_C@_0CB@OIIHNAJJ@SmeltingStoneSuccesRateExcellent@ ; `string'
PUBLIC	??_C@_0BO@BGJDAANF@SmeltingStoneSuccesRateNormal?$AA@ ; `string'
PUBLIC	??_C@_0O@COBODJFF@PurityNeedZen?$AA@		; `string'
PUBLIC	??_C@_0BC@OHFAIMAL@PuritySuccessRate?$AA@	; `string'
PUBLIC	??_C@_0BJ@HOKIFFK@SmeltItemBySmeltingStone?$AA@	; `string'
PUBLIC	??_C@_0P@HFALALIA@StrengthenItem?$AA@		; `string'
PUBLIC	??_C@_0BG@LKPLCOLG@RestoreStrengthenItem?$AA@	; `string'
PUBLIC	??_C@_0BF@IHPDJEFP@MixSmeltingStoneItem?$AA@	; `string'
PUBLIC	??_C@_0P@EMJDPFDH@GameServerInfo?$AA@		; `string'
PUBLIC	??_C@_0BD@KNEMDBBP@PurityHarmonyJewel?$AA@	; `string'
PUBLIC	??_C@_0BB@IGLHFEOF@commonserver?4cfg?$AA@	; `string'
PUBLIC	?_InitOption@CJewelOfHarmonySystem@@QAEXXZ	; CJewelOfHarmonySystem::_InitOption
EXTRN	__imp__GetPrivateProfileIntA@16:PROC
EXTRN	?GetNewPath@CDirPath@@QAEPADPAD@Z:PROC		; CDirPath::GetNewPath
EXTRN	?gDirPath@@3VCDirPath@@A:BYTE			; gDirPath
EXTRN	_memset:PROC
;	COMDAT ??_C@_0BL@JDFNNPPK@SmeltingItemSuccessRateExt?$AA@
; File e:\work\tranet_version\gs\gameserver\jewelofharmonysystem.cpp
CONST	SEGMENT
??_C@_0BL@JDFNNPPK@SmeltingItemSuccessRateExt?$AA@ DB 'SmeltingItemSucces'
	DB	'sRateExt', 00H				; `string'
CONST	ENDS
;	COMDAT ??_C@_0BL@LGPEKII@SmeltingItemSuccessRateNor?$AA@
CONST	SEGMENT
??_C@_0BL@LGPEKII@SmeltingItemSuccessRateNor?$AA@ DB 'SmeltingItemSuccess'
	DB	'RateNor', 00H				; `string'
CONST	ENDS
;	COMDAT ??_C@_0BG@GJJLECKD@StrengthenSuccessRate?$AA@
CONST	SEGMENT
??_C@_0BG@GJJLECKD@StrengthenSuccessRate?$AA@ DB 'StrengthenSuccessRate', 00H ; `string'
CONST	ENDS
;	COMDAT ??_C@_0BA@OLOLOLHH@SmeltingNeedZen?$AA@
CONST	SEGMENT
??_C@_0BA@OLOLOLHH@SmeltingNeedZen?$AA@ DB 'SmeltingNeedZen', 00H ; `string'
CONST	ENDS
;	COMDAT ??_C@_0CB@OIIHNAJJ@SmeltingStoneSuccesRateExcellent@
CONST	SEGMENT
??_C@_0CB@OIIHNAJJ@SmeltingStoneSuccesRateExcellent@ DB 'SmeltingStoneSuc'
	DB	'cesRateExcellent', 00H			; `string'
CONST	ENDS
;	COMDAT ??_C@_0BO@BGJDAANF@SmeltingStoneSuccesRateNormal?$AA@
CONST	SEGMENT
??_C@_0BO@BGJDAANF@SmeltingStoneSuccesRateNormal?$AA@ DB 'SmeltingStoneSu'
	DB	'ccesRateNormal', 00H			; `string'
CONST	ENDS
;	COMDAT ??_C@_0O@COBODJFF@PurityNeedZen?$AA@
CONST	SEGMENT
??_C@_0O@COBODJFF@PurityNeedZen?$AA@ DB 'PurityNeedZen', 00H ; `string'
CONST	ENDS
;	COMDAT ??_C@_0BC@OHFAIMAL@PuritySuccessRate?$AA@
CONST	SEGMENT
??_C@_0BC@OHFAIMAL@PuritySuccessRate?$AA@ DB 'PuritySuccessRate', 00H ; `string'
CONST	ENDS
;	COMDAT ??_C@_0BJ@HOKIFFK@SmeltItemBySmeltingStone?$AA@
CONST	SEGMENT
??_C@_0BJ@HOKIFFK@SmeltItemBySmeltingStone?$AA@ DB 'SmeltItemBySmeltingSt'
	DB	'one', 00H					; `string'
CONST	ENDS
;	COMDAT ??_C@_0P@HFALALIA@StrengthenItem?$AA@
CONST	SEGMENT
??_C@_0P@HFALALIA@StrengthenItem?$AA@ DB 'StrengthenItem', 00H ; `string'
CONST	ENDS
;	COMDAT ??_C@_0BG@LKPLCOLG@RestoreStrengthenItem?$AA@
CONST	SEGMENT
??_C@_0BG@LKPLCOLG@RestoreStrengthenItem?$AA@ DB 'RestoreStrengthenItem', 00H ; `string'
CONST	ENDS
;	COMDAT ??_C@_0BF@IHPDJEFP@MixSmeltingStoneItem?$AA@
CONST	SEGMENT
??_C@_0BF@IHPDJEFP@MixSmeltingStoneItem?$AA@ DB 'MixSmeltingStoneItem', 00H ; `string'
CONST	ENDS
;	COMDAT ??_C@_0P@EMJDPFDH@GameServerInfo?$AA@
CONST	SEGMENT
??_C@_0P@EMJDPFDH@GameServerInfo?$AA@ DB 'GameServerInfo', 00H ; `string'
CONST	ENDS
;	COMDAT ??_C@_0BD@KNEMDBBP@PurityHarmonyJewel?$AA@
CONST	SEGMENT
??_C@_0BD@KNEMDBBP@PurityHarmonyJewel?$AA@ DB 'PurityHarmonyJewel', 00H ; `string'
CONST	ENDS
;	COMDAT ??_C@_0BB@IGLHFEOF@commonserver?4cfg?$AA@
CONST	SEGMENT
??_C@_0BB@IGLHFEOF@commonserver?4cfg?$AA@ DB 'commonserver.cfg', 00H ; `string'
; Function compile flags: /Ogtp
CONST	ENDS
;	COMDAT ?_InitOption@CJewelOfHarmonySystem@@QAEXXZ
_TEXT	SEGMENT
?_InitOption@CJewelOfHarmonySystem@@QAEXXZ PROC		; CJewelOfHarmonySystem::_InitOption, COMDAT
; _this$ = ecx

; 37   : {

  00000	56		 push	 esi
  00001	8b f1		 mov	 esi, ecx
  00003	57		 push	 edi

; 38   : 	this->JEWEL_OF_HARMONY_ITEMINDEX = ITEMGET(14,41);
; 39   : 	this->JEWEL_OF_HARMONY_PURITY_ITEMINDEX = ITEMGET(14,42);
; 40   : 	this->JEWEL_OF_HARMONY_SMELT_NOR_ITEMINDEX = ITEMGET(14,43);
; 41   : 	this->JEWEL_OF_HARMONY_SMELT_EXT_ITEMINDEX = ITEMGET(14,44);
; 42   : 
; 43   : 	memset(this->m_itemOption, 0, sizeof(this->m_itemOption));

  00004	68 00 53 00 00	 push	 21248			; 00005300H
  00009	8d 46 18	 lea	 eax, DWORD PTR [esi+24]
  0000c	6a 00		 push	 0
  0000e	50		 push	 eax
  0000f	c7 46 08 29 1c
	00 00		 mov	 DWORD PTR [esi+8], 7209	; 00001c29H
  00016	c7 46 0c 2a 1c
	00 00		 mov	 DWORD PTR [esi+12], 7210 ; 00001c2aH
  0001d	c7 46 10 2b 1c
	00 00		 mov	 DWORD PTR [esi+16], 7211 ; 00001c2bH
  00024	c7 46 14 2c 1c
	00 00		 mov	 DWORD PTR [esi+20], 7212 ; 00001c2cH
  0002b	e8 00 00 00 00	 call	 _memset
  00030	83 c4 0c	 add	 esp, 12			; 0000000cH

; 44   : 
; 45   : 	this->m_bSystemPrutiyJewel = GetPrivateProfileInt("GameServerInfo", "PurityHarmonyJewel", 0, gDirPath.GetNewPath("commonserver.cfg"));

  00033	68 00 00 00 00	 push	 OFFSET ??_C@_0BB@IGLHFEOF@commonserver?4cfg?$AA@
  00038	b9 00 00 00 00	 mov	 ecx, OFFSET ?gDirPath@@3VCDirPath@@A ; gDirPath
  0003d	e8 00 00 00 00	 call	 ?GetNewPath@CDirPath@@QAEPADPAD@Z ; CDirPath::GetNewPath
  00042	8b 3d 00 00 00
	00		 mov	 edi, DWORD PTR __imp__GetPrivateProfileIntA@16
  00048	50		 push	 eax
  00049	6a 00		 push	 0
  0004b	68 00 00 00 00	 push	 OFFSET ??_C@_0BD@KNEMDBBP@PurityHarmonyJewel?$AA@
  00050	68 00 00 00 00	 push	 OFFSET ??_C@_0P@EMJDPFDH@GameServerInfo?$AA@
  00055	ff d7		 call	 edi

; 46   : 	this->m_bSystemMixSmeltingStone = GetPrivateProfileInt("GameServerInfo", "MixSmeltingStoneItem", 0, gDirPath.GetNewPath("commonserver.cfg"));

  00057	68 00 00 00 00	 push	 OFFSET ??_C@_0BB@IGLHFEOF@commonserver?4cfg?$AA@
  0005c	b9 00 00 00 00	 mov	 ecx, OFFSET ?gDirPath@@3VCDirPath@@A ; gDirPath
  00061	89 86 18 53 00
	00		 mov	 DWORD PTR [esi+21272], eax
  00067	e8 00 00 00 00	 call	 ?GetNewPath@CDirPath@@QAEPADPAD@Z ; CDirPath::GetNewPath
  0006c	50		 push	 eax
  0006d	6a 00		 push	 0
  0006f	68 00 00 00 00	 push	 OFFSET ??_C@_0BF@IHPDJEFP@MixSmeltingStoneItem?$AA@
  00074	68 00 00 00 00	 push	 OFFSET ??_C@_0P@EMJDPFDH@GameServerInfo?$AA@
  00079	ff d7		 call	 edi

; 47   : 	this->m_bSystemRestoreStrengthen = GetPrivateProfileInt("GameServerInfo", "RestoreStrengthenItem", 0, gDirPath.GetNewPath("commonserver.cfg"));

  0007b	68 00 00 00 00	 push	 OFFSET ??_C@_0BB@IGLHFEOF@commonserver?4cfg?$AA@
  00080	b9 00 00 00 00	 mov	 ecx, OFFSET ?gDirPath@@3VCDirPath@@A ; gDirPath
  00085	89 86 1c 53 00
	00		 mov	 DWORD PTR [esi+21276], eax
  0008b	e8 00 00 00 00	 call	 ?GetNewPath@CDirPath@@QAEPADPAD@Z ; CDirPath::GetNewPath
  00090	50		 push	 eax
  00091	6a 00		 push	 0
  00093	68 00 00 00 00	 push	 OFFSET ??_C@_0BG@LKPLCOLG@RestoreStrengthenItem?$AA@
  00098	68 00 00 00 00	 push	 OFFSET ??_C@_0P@EMJDPFDH@GameServerInfo?$AA@
  0009d	ff d7		 call	 edi

; 48   : 	this->m_bSystemStrengthenItem = GetPrivateProfileInt("GameServerInfo", "StrengthenItem", 0, gDirPath.GetNewPath("commonserver.cfg"));

  0009f	68 00 00 00 00	 push	 OFFSET ??_C@_0BB@IGLHFEOF@commonserver?4cfg?$AA@
  000a4	b9 00 00 00 00	 mov	 ecx, OFFSET ?gDirPath@@3VCDirPath@@A ; gDirPath
  000a9	89 86 20 53 00
	00		 mov	 DWORD PTR [esi+21280], eax
  000af	e8 00 00 00 00	 call	 ?GetNewPath@CDirPath@@QAEPADPAD@Z ; CDirPath::GetNewPath
  000b4	50		 push	 eax
  000b5	6a 00		 push	 0
  000b7	68 00 00 00 00	 push	 OFFSET ??_C@_0P@HFALALIA@StrengthenItem?$AA@
  000bc	68 00 00 00 00	 push	 OFFSET ??_C@_0P@EMJDPFDH@GameServerInfo?$AA@
  000c1	ff d7		 call	 edi

; 49   : 	this->m_bSystemSmeltingItem = GetPrivateProfileInt("GameServerInfo", "SmeltItemBySmeltingStone", 0, gDirPath.GetNewPath("commonserver.cfg"));

  000c3	68 00 00 00 00	 push	 OFFSET ??_C@_0BB@IGLHFEOF@commonserver?4cfg?$AA@
  000c8	b9 00 00 00 00	 mov	 ecx, OFFSET ?gDirPath@@3VCDirPath@@A ; gDirPath
  000cd	89 86 24 53 00
	00		 mov	 DWORD PTR [esi+21284], eax
  000d3	e8 00 00 00 00	 call	 ?GetNewPath@CDirPath@@QAEPADPAD@Z ; CDirPath::GetNewPath
  000d8	50		 push	 eax
  000d9	6a 00		 push	 0
  000db	68 00 00 00 00	 push	 OFFSET ??_C@_0BJ@HOKIFFK@SmeltItemBySmeltingStone?$AA@
  000e0	68 00 00 00 00	 push	 OFFSET ??_C@_0P@EMJDPFDH@GameServerInfo?$AA@
  000e5	ff d7		 call	 edi

; 50   : 
; 51   : 	this->m_iRatePuritySuccess = GetPrivateProfileInt("GameServerInfo", "PuritySuccessRate", 0, gDirPath.GetNewPath("commonserver.cfg"));

  000e7	68 00 00 00 00	 push	 OFFSET ??_C@_0BB@IGLHFEOF@commonserver?4cfg?$AA@
  000ec	b9 00 00 00 00	 mov	 ecx, OFFSET ?gDirPath@@3VCDirPath@@A ; gDirPath
  000f1	89 86 28 53 00
	00		 mov	 DWORD PTR [esi+21288], eax
  000f7	e8 00 00 00 00	 call	 ?GetNewPath@CDirPath@@QAEPADPAD@Z ; CDirPath::GetNewPath
  000fc	50		 push	 eax
  000fd	6a 00		 push	 0
  000ff	68 00 00 00 00	 push	 OFFSET ??_C@_0BC@OHFAIMAL@PuritySuccessRate?$AA@
  00104	68 00 00 00 00	 push	 OFFSET ??_C@_0P@EMJDPFDH@GameServerInfo?$AA@
  00109	ff d7		 call	 edi

; 52   : 	this->m_iZenForPurity = GetPrivateProfileInt("GameServerInfo", "PurityNeedZen", 0, gDirPath.GetNewPath("commonserver.cfg"));

  0010b	68 00 00 00 00	 push	 OFFSET ??_C@_0BB@IGLHFEOF@commonserver?4cfg?$AA@
  00110	b9 00 00 00 00	 mov	 ecx, OFFSET ?gDirPath@@3VCDirPath@@A ; gDirPath
  00115	89 86 2c 53 00
	00		 mov	 DWORD PTR [esi+21292], eax
  0011b	e8 00 00 00 00	 call	 ?GetNewPath@CDirPath@@QAEPADPAD@Z ; CDirPath::GetNewPath
  00120	50		 push	 eax
  00121	6a 00		 push	 0
  00123	68 00 00 00 00	 push	 OFFSET ??_C@_0O@COBODJFF@PurityNeedZen?$AA@
  00128	68 00 00 00 00	 push	 OFFSET ??_C@_0P@EMJDPFDH@GameServerInfo?$AA@
  0012d	ff d7		 call	 edi

; 53   : 	this->m_iRateMixSmeltingStoneNor = GetPrivateProfileInt("GameServerInfo", "SmeltingStoneSuccesRateNormal", 0, gDirPath.GetNewPath("commonserver.cfg"));

  0012f	68 00 00 00 00	 push	 OFFSET ??_C@_0BB@IGLHFEOF@commonserver?4cfg?$AA@
  00134	b9 00 00 00 00	 mov	 ecx, OFFSET ?gDirPath@@3VCDirPath@@A ; gDirPath
  00139	89 86 30 53 00
	00		 mov	 DWORD PTR [esi+21296], eax
  0013f	e8 00 00 00 00	 call	 ?GetNewPath@CDirPath@@QAEPADPAD@Z ; CDirPath::GetNewPath
  00144	50		 push	 eax
  00145	6a 00		 push	 0
  00147	68 00 00 00 00	 push	 OFFSET ??_C@_0BO@BGJDAANF@SmeltingStoneSuccesRateNormal?$AA@
  0014c	68 00 00 00 00	 push	 OFFSET ??_C@_0P@EMJDPFDH@GameServerInfo?$AA@
  00151	ff d7		 call	 edi

; 54   : 	this->m_iRateMixSmeltingStoneExt = GetPrivateProfileInt("GameServerInfo", "SmeltingStoneSuccesRateExcellent", 0, gDirPath.GetNewPath("commonserver.cfg"));

  00153	68 00 00 00 00	 push	 OFFSET ??_C@_0BB@IGLHFEOF@commonserver?4cfg?$AA@
  00158	b9 00 00 00 00	 mov	 ecx, OFFSET ?gDirPath@@3VCDirPath@@A ; gDirPath
  0015d	89 86 34 53 00
	00		 mov	 DWORD PTR [esi+21300], eax
  00163	e8 00 00 00 00	 call	 ?GetNewPath@CDirPath@@QAEPADPAD@Z ; CDirPath::GetNewPath
  00168	50		 push	 eax
  00169	6a 00		 push	 0
  0016b	68 00 00 00 00	 push	 OFFSET ??_C@_0CB@OIIHNAJJ@SmeltingStoneSuccesRateExcellent@
  00170	68 00 00 00 00	 push	 OFFSET ??_C@_0P@EMJDPFDH@GameServerInfo?$AA@
  00175	ff d7		 call	 edi

; 55   : 	this->m_iZenForMixSmeltingStone = GetPrivateProfileInt("GameServerInfo", "SmeltingNeedZen", 0, gDirPath.GetNewPath("commonserver.cfg"));

  00177	68 00 00 00 00	 push	 OFFSET ??_C@_0BB@IGLHFEOF@commonserver?4cfg?$AA@
  0017c	b9 00 00 00 00	 mov	 ecx, OFFSET ?gDirPath@@3VCDirPath@@A ; gDirPath
  00181	89 86 38 53 00
	00		 mov	 DWORD PTR [esi+21304], eax
  00187	e8 00 00 00 00	 call	 ?GetNewPath@CDirPath@@QAEPADPAD@Z ; CDirPath::GetNewPath
  0018c	50		 push	 eax
  0018d	6a 00		 push	 0
  0018f	68 00 00 00 00	 push	 OFFSET ??_C@_0BA@OLOLOLHH@SmeltingNeedZen?$AA@
  00194	68 00 00 00 00	 push	 OFFSET ??_C@_0P@EMJDPFDH@GameServerInfo?$AA@
  00199	ff d7		 call	 edi

; 56   : 	this->m_iRateStrengthenSuccess = GetPrivateProfileInt("GameServerInfo", "StrengthenSuccessRate", 0, gDirPath.GetNewPath("commonserver.cfg"));

  0019b	68 00 00 00 00	 push	 OFFSET ??_C@_0BB@IGLHFEOF@commonserver?4cfg?$AA@
  001a0	b9 00 00 00 00	 mov	 ecx, OFFSET ?gDirPath@@3VCDirPath@@A ; gDirPath
  001a5	89 86 3c 53 00
	00		 mov	 DWORD PTR [esi+21308], eax
  001ab	e8 00 00 00 00	 call	 ?GetNewPath@CDirPath@@QAEPADPAD@Z ; CDirPath::GetNewPath
  001b0	50		 push	 eax
  001b1	6a 00		 push	 0
  001b3	68 00 00 00 00	 push	 OFFSET ??_C@_0BG@GJJLECKD@StrengthenSuccessRate?$AA@
  001b8	68 00 00 00 00	 push	 OFFSET ??_C@_0P@EMJDPFDH@GameServerInfo?$AA@
  001bd	ff d7		 call	 edi

; 57   : 	this->m_iRateSmeltingSuccessNor = GetPrivateProfileInt("GameServerInfo", "SmeltingItemSuccessRateNor", 0, gDirPath.GetNewPath("commonserver.cfg"));

  001bf	68 00 00 00 00	 push	 OFFSET ??_C@_0BB@IGLHFEOF@commonserver?4cfg?$AA@
  001c4	b9 00 00 00 00	 mov	 ecx, OFFSET ?gDirPath@@3VCDirPath@@A ; gDirPath
  001c9	89 86 40 53 00
	00		 mov	 DWORD PTR [esi+21312], eax
  001cf	e8 00 00 00 00	 call	 ?GetNewPath@CDirPath@@QAEPADPAD@Z ; CDirPath::GetNewPath
  001d4	50		 push	 eax
  001d5	6a 00		 push	 0
  001d7	68 00 00 00 00	 push	 OFFSET ??_C@_0BL@LGPEKII@SmeltingItemSuccessRateNor?$AA@
  001dc	68 00 00 00 00	 push	 OFFSET ??_C@_0P@EMJDPFDH@GameServerInfo?$AA@
  001e1	ff d7		 call	 edi

; 58   : 	this->m_iRateSmeltingSuccessExt = GetPrivateProfileInt("GameServerInfo", "SmeltingItemSuccessRateExt", 0, gDirPath.GetNewPath("commonserver.cfg"));

  001e3	68 00 00 00 00	 push	 OFFSET ??_C@_0BB@IGLHFEOF@commonserver?4cfg?$AA@
  001e8	b9 00 00 00 00	 mov	 ecx, OFFSET ?gDirPath@@3VCDirPath@@A ; gDirPath
  001ed	89 86 44 53 00
	00		 mov	 DWORD PTR [esi+21316], eax
  001f3	e8 00 00 00 00	 call	 ?GetNewPath@CDirPath@@QAEPADPAD@Z ; CDirPath::GetNewPath
  001f8	50		 push	 eax
  001f9	6a 00		 push	 0
  001fb	68 00 00 00 00	 push	 OFFSET ??_C@_0BL@JDFNNPPK@SmeltingItemSuccessRateExt?$AA@
  00200	68 00 00 00 00	 push	 OFFSET ??_C@_0P@EMJDPFDH@GameServerInfo?$AA@
  00205	ff d7		 call	 edi
  00207	5f		 pop	 edi
  00208	89 86 48 53 00
	00		 mov	 DWORD PTR [esi+21320], eax
  0020e	5e		 pop	 esi

; 59   : }

  0020f	c3		 ret	 0
?_InitOption@CJewelOfHarmonySystem@@QAEXXZ ENDP		; CJewelOfHarmonySystem::_InitOption
_TEXT	ENDS
PUBLIC	??_C@_03JBJLGPFL@end?$AA@			; `string'
PUBLIC	??_C@_01KDCPPGHE@r?$AA@				; `string'
PUBLIC	?LoadScript@CJewelOfHarmonySystem@@QAEHPAD@Z	; CJewelOfHarmonySystem::LoadScript
EXTRN	_fopen:PROC
EXTRN	__ftol2_sse:PROC
;	COMDAT ??_C@_03JBJLGPFL@end?$AA@
CONST	SEGMENT
??_C@_03JBJLGPFL@end?$AA@ DB 'end', 00H			; `string'
CONST	ENDS
;	COMDAT ??_C@_01KDCPPGHE@r?$AA@
CONST	SEGMENT
??_C@_01KDCPPGHE@r?$AA@ DB 'r', 00H			; `string'
; Function compile flags: /Ogtp
CONST	ENDS
;	COMDAT ?LoadScript@CJewelOfHarmonySystem@@QAEHPAD@Z
_TEXT	SEGMENT
_this$ = -16						; size = 4
tv230 = -12						; size = 8
tv256 = -8						; size = 4
tv254 = -8						; size = 4
tv248 = -8						; size = 4
tv246 = -8						; size = 4
tv240 = -8						; size = 4
tv238 = -8						; size = 4
tv232 = -8						; size = 4
_Type$211666 = -4					; size = 4
_lpszFileName$ = 8					; size = 4
tv259 = 10						; size = 2
tv251 = 10						; size = 2
tv243 = 10						; size = 2
tv235 = 10						; size = 2
?LoadScript@CJewelOfHarmonySystem@@QAEHPAD@Z PROC	; CJewelOfHarmonySystem::LoadScript, COMDAT
; _this$ = ecx

; 65   : {

  00000	55		 push	 ebp
  00001	8b ec		 mov	 ebp, esp
  00003	83 ec 10	 sub	 esp, 16			; 00000010H

; 66   : 	SMDToken Token;
; 67   : 	SMDFile = fopen(lpszFileName, "r");

  00006	8b 45 08	 mov	 eax, DWORD PTR _lpszFileName$[ebp]
  00009	57		 push	 edi
  0000a	8b f9		 mov	 edi, ecx
  0000c	68 00 00 00 00	 push	 OFFSET ??_C@_01KDCPPGHE@r?$AA@
  00011	50		 push	 eax
  00012	89 7d f0	 mov	 DWORD PTR _this$[ebp], edi
  00015	e8 00 00 00 00	 call	 _fopen
  0001a	83 c4 08	 add	 esp, 8
  0001d	a3 00 00 00 00	 mov	 DWORD PTR _SMDFile, eax

; 68   : 
; 69   : 	if ( SMDFile == NULL )

  00022	85 c0		 test	 eax, eax
  00024	75 07		 jne	 SHORT $LN12@LoadScript
  00026	5f		 pop	 edi

; 124  : }

  00027	8b e5		 mov	 esp, ebp
  00029	5d		 pop	 ebp
  0002a	c2 04 00	 ret	 4
$LN12@LoadScript:

; 70   : 		return FALSE;
; 71   : 
; 72   : 	this->_InitOption();

  0002d	8b cf		 mov	 ecx, edi
  0002f	e8 00 00 00 00	 call	 ?_InitOption@CJewelOfHarmonySystem@@QAEXXZ ; CJewelOfHarmonySystem::_InitOption

; 73   : 
; 74   : 
; 75   : 	while ( true )
; 76   : 	{
; 77   : 		Token = (SMDToken)GetToken();

  00034	e8 00 00 00 00	 call	 ?GetToken@@YA?AW4SMDToken@@XZ ; GetToken

; 78   : 
; 79   : 		if ( Token == END )

  00039	83 f8 02	 cmp	 eax, 2
  0003c	0f 84 6a 01 00
	00		 je	 $LN29@LoadScript
  00042	53		 push	 ebx
  00043	56		 push	 esi
$LL11@LoadScript:

; 80   : 			break;
; 81   : 
; 82   : 		if ( Token == NUMBER )

  00044	83 f8 01	 cmp	 eax, 1
  00047	0f 85 4f 01 00
	00		 jne	 $LN31@LoadScript

; 83   : 		{
; 84   : 			int Type = (int)TokenNumber;

  0004d	d9 05 00 00 00
	00		 fld	 DWORD PTR _TokenNumber
  00053	e8 00 00 00 00	 call	 __ftol2_sse
  00058	89 45 fc	 mov	 DWORD PTR _Type$211666[ebp], eax
  0005b	eb 03 8d 49 00	 npad	 5
$LL7@LoadScript:

; 85   : 
; 86   : 			while ( true )
; 87   : 			{
; 88   : 				Token = (SMDToken)GetToken();

  00060	e8 00 00 00 00	 call	 ?GetToken@@YA?AW4SMDToken@@XZ ; GetToken

; 89   : 				int Index = (int)TokenNumber;

  00065	d9 05 00 00 00
	00		 fld	 DWORD PTR _TokenNumber
  0006b	8b f0		 mov	 esi, eax
  0006d	e8 00 00 00 00	 call	 __ftol2_sse

; 90   : 
; 91   : 				if ( Token == NAME )

  00072	85 f6		 test	 esi, esi
  00074	75 37		 jne	 SHORT $LN28@LoadScript

; 92   : 				{
; 93   : 					if ( !strcmp("end", TokenString))

  00076	ba 00 00 00 00	 mov	 edx, OFFSET _TokenString
  0007b	b9 00 00 00 00	 mov	 ecx, OFFSET ??_C@_03JBJLGPFL@end?$AA@
$LL24@LoadScript:
  00080	8a 19		 mov	 bl, BYTE PTR [ecx]
  00082	3a 1a		 cmp	 bl, BYTE PTR [edx]
  00084	75 1a		 jne	 SHORT $LN25@LoadScript
  00086	84 db		 test	 bl, bl
  00088	74 12		 je	 SHORT $LN26@LoadScript
  0008a	8a 59 01	 mov	 bl, BYTE PTR [ecx+1]
  0008d	3a 5a 01	 cmp	 bl, BYTE PTR [edx+1]
  00090	75 0e		 jne	 SHORT $LN25@LoadScript
  00092	83 c1 02	 add	 ecx, 2
  00095	83 c2 02	 add	 edx, 2
  00098	84 db		 test	 bl, bl
  0009a	75 e4		 jne	 SHORT $LL24@LoadScript
$LN26@LoadScript:
  0009c	33 c9		 xor	 ecx, ecx
  0009e	eb 05		 jmp	 SHORT $LN27@LoadScript
$LN25@LoadScript:
  000a0	1b c9		 sbb	 ecx, ecx
  000a2	83 d9 ff	 sbb	 ecx, -1
$LN27@LoadScript:
  000a5	85 c9		 test	 ecx, ecx
  000a7	0f 84 ef 00 00
	00		 je	 $LN31@LoadScript
$LN28@LoadScript:

; 94   : 					{
; 95   : 						break;
; 96   : 					}
; 97   : 				}
; 98   : 
; 99   : 				JEWELOFHARMONY_ITEM_OPTION * p = &this->m_itemOption[Type][Index];

  000ad	8b 4d fc	 mov	 ecx, DWORD PTR _Type$211666[ebp]
  000b0	c1 e1 04	 shl	 ecx, 4
  000b3	03 c8		 add	 ecx, eax
  000b5	69 c9 4c 01 00
	00		 imul	 ecx, 332		; 0000014cH
  000bb	8d 7c 39 18	 lea	 edi, DWORD PTR [ecx+edi+24]

; 100  : 				
; 101  : 				Token = (SMDToken)GetToken();

  000bf	e8 00 00 00 00	 call	 ?GetToken@@YA?AW4SMDToken@@XZ ; GetToken

; 102  : 				strcpy(p->szOptionName, TokenString);

  000c4	b8 00 00 00 00	 mov	 eax, OFFSET _TokenString
  000c9	8b d7		 mov	 edx, edi
  000cb	2b d0		 sub	 edx, eax
  000cd	8d 49 00	 npad	 3
$LL15@LoadScript:
  000d0	8a 08		 mov	 cl, BYTE PTR [eax]
  000d2	88 4c 02 4c	 mov	 BYTE PTR [edx+eax+76], cl
  000d6	40		 inc	 eax
  000d7	84 c9		 test	 cl, cl
  000d9	75 f5		 jne	 SHORT $LL15@LoadScript

; 103  : 
; 104  : 				Token = (SMDToken)GetToken();

  000db	e8 00 00 00 00	 call	 ?GetToken@@YA?AW4SMDToken@@XZ ; GetToken

; 105  : 				p->iRandomWeight = (BYTE)TokenNumber;

  000e0	d9 05 00 00 00
	00		 fld	 DWORD PTR _TokenNumber
  000e6	d9 7d 0a	 fnstcw	 WORD PTR tv259[ebp]
  000e9	0f b7 45 0a	 movzx	 eax, WORD PTR tv259[ebp]
  000ed	0d 00 0c 00 00	 or	 eax, 3072		; 00000c00H
  000f2	89 45 f8	 mov	 DWORD PTR tv256[ebp], eax
  000f5	d9 6d f8	 fldcw	 WORD PTR tv256[ebp]
  000f8	db 5d f8	 fistp	 DWORD PTR tv254[ebp]
  000fb	8a 45 f8	 mov	 al, BYTE PTR tv254[ebp]
  000fe	88 47 04	 mov	 BYTE PTR [edi+4], al
  00101	d9 6d 0a	 fldcw	 WORD PTR tv259[ebp]

; 106  : 
; 107  : 				Token = (SMDToken)GetToken();

  00104	e8 00 00 00 00	 call	 ?GetToken@@YA?AW4SMDToken@@XZ ; GetToken
  00109	8d 5f 14	 lea	 ebx, DWORD PTR [edi+20]

; 108  : 				p->iRequireLevel = (BYTE)TokenNumber;

  0010c	d9 05 00 00 00
	00		 fld	 DWORD PTR _TokenNumber
  00112	d9 7d 0a	 fnstcw	 WORD PTR tv251[ebp]
  00115	0f b7 45 0a	 movzx	 eax, WORD PTR tv251[ebp]
  00119	0d 00 0c 00 00	 or	 eax, 3072		; 00000c00H
  0011e	89 45 f8	 mov	 DWORD PTR tv248[ebp], eax

; 109  : 
; 110  : 				for ( int i=0;i<MAX_JOH_ITEM_OPTION;i++)

  00121	33 f6		 xor	 esi, esi
  00123	d9 6d f8	 fldcw	 WORD PTR tv248[ebp]
  00126	db 5d f8	 fistp	 DWORD PTR tv246[ebp]
  00129	8a 4d f8	 mov	 cl, BYTE PTR tv246[ebp]
  0012c	88 4f 05	 mov	 BYTE PTR [edi+5], cl
  0012f	d9 6d 0a	 fldcw	 WORD PTR tv251[ebp]
$LL3@LoadScript:

; 111  : 				{
; 112  : 					Token = (SMDToken)GetToken();

  00132	e8 00 00 00 00	 call	 ?GetToken@@YA?AW4SMDToken@@XZ ; GetToken

; 113  : 					p->iItemEffectValue[i] = (BYTE)TokenNumber;

  00137	d9 05 00 00 00
	00		 fld	 DWORD PTR _TokenNumber
  0013d	d9 7d 0a	 fnstcw	 WORD PTR tv243[ebp]
  00140	0f b7 45 0a	 movzx	 eax, WORD PTR tv243[ebp]
  00144	0d 00 0c 00 00	 or	 eax, 3072		; 00000c00H
  00149	89 45 f8	 mov	 DWORD PTR tv240[ebp], eax
  0014c	d9 6d f8	 fldcw	 WORD PTR tv240[ebp]
  0014f	db 5d f8	 fistp	 DWORD PTR tv238[ebp]
  00152	8a 55 f8	 mov	 dl, BYTE PTR tv238[ebp]
  00155	88 54 37 06	 mov	 BYTE PTR [edi+esi+6], dl
  00159	d9 6d 0a	 fldcw	 WORD PTR tv243[ebp]

; 114  : 
; 115  : 					Token = (SMDToken)GetToken();

  0015c	e8 00 00 00 00	 call	 ?GetToken@@YA?AW4SMDToken@@XZ ; GetToken
  00161	46		 inc	 esi
  00162	83 c3 04	 add	 ebx, 4

; 116  : 					p->iZenForRestore[i] = (DWORD)TokenNumber;

  00165	d9 05 00 00 00
	00		 fld	 DWORD PTR _TokenNumber
  0016b	d9 7d 0a	 fnstcw	 WORD PTR tv235[ebp]
  0016e	0f b7 45 0a	 movzx	 eax, WORD PTR tv235[ebp]
  00172	0d 00 0c 00 00	 or	 eax, 3072		; 00000c00H
  00177	89 45 f8	 mov	 DWORD PTR tv232[ebp], eax
  0017a	d9 6d f8	 fldcw	 WORD PTR tv232[ebp]
  0017d	df 7d f4	 fistp	 QWORD PTR tv230[ebp]
  00180	8b 45 f4	 mov	 eax, DWORD PTR tv230[ebp]
  00183	89 43 fc	 mov	 DWORD PTR [ebx-4], eax
  00186	d9 6d 0a	 fldcw	 WORD PTR tv235[ebp]
  00189	83 fe 0e	 cmp	 esi, 14			; 0000000eH
  0018c	7c a4		 jl	 SHORT $LL3@LoadScript

; 117  : 				}
; 118  : 
; 119  : 				p->bValid = TRUE;

  0018e	c7 07 01 00 00
	00		 mov	 DWORD PTR [edi], 1

; 120  : 			}

  00194	8b 7d f0	 mov	 edi, DWORD PTR _this$[ebp]
  00197	e9 c4 fe ff ff	 jmp	 $LL7@LoadScript
$LN31@LoadScript:

; 73   : 
; 74   : 
; 75   : 	while ( true )
; 76   : 	{
; 77   : 		Token = (SMDToken)GetToken();

  0019c	e8 00 00 00 00	 call	 ?GetToken@@YA?AW4SMDToken@@XZ ; GetToken

; 78   : 
; 79   : 		if ( Token == END )

  001a1	83 f8 02	 cmp	 eax, 2
  001a4	0f 85 9a fe ff
	ff		 jne	 $LL11@LoadScript
  001aa	5e		 pop	 esi
  001ab	5b		 pop	 ebx
$LN29@LoadScript:

; 121  : 		}
; 122  : 	}
; 123  : 	return TRUE;

  001ac	b8 01 00 00 00	 mov	 eax, 1
  001b1	5f		 pop	 edi

; 124  : }

  001b2	8b e5		 mov	 esp, ebp
  001b4	5d		 pop	 ebp
  001b5	c2 04 00	 ret	 4
?LoadScript@CJewelOfHarmonySystem@@QAEHPAD@Z ENDP	; CJewelOfHarmonySystem::LoadScript
_TEXT	ENDS
PUBLIC	?IsJewelOfHarmonyOriginal@CJewelOfHarmonySystem@@QAEHF@Z ; CJewelOfHarmonySystem::IsJewelOfHarmonyOriginal
; Function compile flags: /Ogtp
;	COMDAT ?IsJewelOfHarmonyOriginal@CJewelOfHarmonySystem@@QAEHF@Z
_TEXT	SEGMENT
_type$ = 8						; size = 2
?IsJewelOfHarmonyOriginal@CJewelOfHarmonySystem@@QAEHF@Z PROC ; CJewelOfHarmonySystem::IsJewelOfHarmonyOriginal, COMDAT
; _this$ = ecx

; 178  : {

  00000	55		 push	 ebp
  00001	8b ec		 mov	 ebp, esp

; 179  : 	BOOL bRet = FALSE;
; 180  : 
; 181  : 	if ( type == this->JEWEL_OF_HARMONY_ITEMINDEX )

  00003	0f bf 55 08	 movsx	 edx, WORD PTR _type$[ebp]
  00007	33 c0		 xor	 eax, eax
  00009	3b 51 08	 cmp	 edx, DWORD PTR [ecx+8]
  0000c	75 05		 jne	 SHORT $LN1@IsJewelOfH

; 182  : 		bRet = TRUE;

  0000e	b8 01 00 00 00	 mov	 eax, 1
$LN1@IsJewelOfH:

; 183  : 
; 184  : 	return bRet;
; 185  : }

  00013	5d		 pop	 ebp
  00014	c2 04 00	 ret	 4
?IsJewelOfHarmonyOriginal@CJewelOfHarmonySystem@@QAEHF@Z ENDP ; CJewelOfHarmonySystem::IsJewelOfHarmonyOriginal
_TEXT	ENDS
PUBLIC	?IsJewelOfHarmonyPurity@CJewelOfHarmonySystem@@QAEHF@Z ; CJewelOfHarmonySystem::IsJewelOfHarmonyPurity
; Function compile flags: /Ogtp
;	COMDAT ?IsJewelOfHarmonyPurity@CJewelOfHarmonySystem@@QAEHF@Z
_TEXT	SEGMENT
_type$ = 8						; size = 2
?IsJewelOfHarmonyPurity@CJewelOfHarmonySystem@@QAEHF@Z PROC ; CJewelOfHarmonySystem::IsJewelOfHarmonyPurity, COMDAT
; _this$ = ecx

; 190  : {

  00000	55		 push	 ebp
  00001	8b ec		 mov	 ebp, esp

; 191  : 	BOOL bRet = FALSE;
; 192  : 
; 193  : 	if ( type == this->JEWEL_OF_HARMONY_PURITY_ITEMINDEX )

  00003	0f bf 55 08	 movsx	 edx, WORD PTR _type$[ebp]
  00007	33 c0		 xor	 eax, eax
  00009	3b 51 0c	 cmp	 edx, DWORD PTR [ecx+12]
  0000c	75 05		 jne	 SHORT $LN1@IsJewelOfH@2

; 194  : 		bRet = TRUE;

  0000e	b8 01 00 00 00	 mov	 eax, 1
$LN1@IsJewelOfH@2:

; 195  : 
; 196  : 	return bRet;
; 197  : }

  00013	5d		 pop	 ebp
  00014	c2 04 00	 ret	 4
?IsJewelOfHarmonyPurity@CJewelOfHarmonySystem@@QAEHF@Z ENDP ; CJewelOfHarmonySystem::IsJewelOfHarmonyPurity
_TEXT	ENDS
PUBLIC	?_IsJewelOfHarmonySmeltingItemNor@CJewelOfHarmonySystem@@QAEHF@Z ; CJewelOfHarmonySystem::_IsJewelOfHarmonySmeltingItemNor
; Function compile flags: /Ogtp
;	COMDAT ?_IsJewelOfHarmonySmeltingItemNor@CJewelOfHarmonySystem@@QAEHF@Z
_TEXT	SEGMENT
_type$ = 8						; size = 2
?_IsJewelOfHarmonySmeltingItemNor@CJewelOfHarmonySystem@@QAEHF@Z PROC ; CJewelOfHarmonySystem::_IsJewelOfHarmonySmeltingItemNor, COMDAT
; _this$ = ecx

; 214  : {

  00000	55		 push	 ebp
  00001	8b ec		 mov	 ebp, esp

; 215  : 	BOOL bRet = FALSE;
; 216  : 
; 217  : 	if ( type == this->JEWEL_OF_HARMONY_SMELT_NOR_ITEMINDEX )

  00003	0f bf 55 08	 movsx	 edx, WORD PTR _type$[ebp]
  00007	33 c0		 xor	 eax, eax
  00009	3b 51 10	 cmp	 edx, DWORD PTR [ecx+16]
  0000c	75 05		 jne	 SHORT $LN1@IsJewelOfH@3

; 218  : 		bRet = TRUE;

  0000e	b8 01 00 00 00	 mov	 eax, 1
$LN1@IsJewelOfH@3:

; 219  : 
; 220  : 	return bRet;
; 221  : }

  00013	5d		 pop	 ebp
  00014	c2 04 00	 ret	 4
?_IsJewelOfHarmonySmeltingItemNor@CJewelOfHarmonySystem@@QAEHF@Z ENDP ; CJewelOfHarmonySystem::_IsJewelOfHarmonySmeltingItemNor
_TEXT	ENDS
PUBLIC	?_IsJewelOfHarmonySmeltingItemExt@CJewelOfHarmonySystem@@QAEHF@Z ; CJewelOfHarmonySystem::_IsJewelOfHarmonySmeltingItemExt
; Function compile flags: /Ogtp
;	COMDAT ?_IsJewelOfHarmonySmeltingItemExt@CJewelOfHarmonySystem@@QAEHF@Z
_TEXT	SEGMENT
_type$ = 8						; size = 2
?_IsJewelOfHarmonySmeltingItemExt@CJewelOfHarmonySystem@@QAEHF@Z PROC ; CJewelOfHarmonySystem::_IsJewelOfHarmonySmeltingItemExt, COMDAT
; _this$ = ecx

; 226  : {

  00000	55		 push	 ebp
  00001	8b ec		 mov	 ebp, esp

; 227  : 	BOOL bRet = FALSE;
; 228  : 
; 229  : 	if ( type == this->JEWEL_OF_HARMONY_SMELT_EXT_ITEMINDEX )

  00003	0f bf 55 08	 movsx	 edx, WORD PTR _type$[ebp]
  00007	33 c0		 xor	 eax, eax
  00009	3b 51 14	 cmp	 edx, DWORD PTR [ecx+20]
  0000c	75 05		 jne	 SHORT $LN1@IsJewelOfH@4

; 230  : 		bRet = TRUE;

  0000e	b8 01 00 00 00	 mov	 eax, 1
$LN1@IsJewelOfH@4:

; 231  : 
; 232  : 	return bRet;
; 233  : }

  00013	5d		 pop	 ebp
  00014	c2 04 00	 ret	 4
?_IsJewelOfHarmonySmeltingItemExt@CJewelOfHarmonySystem@@QAEHF@Z ENDP ; CJewelOfHarmonySystem::_IsJewelOfHarmonySmeltingItemExt
_TEXT	ENDS
PUBLIC	??_C@_0CJ@MMJIHELL@?$FLJewelOfHarmony?$FN?$FLPuritySystem?$FN?5E@ ; `string'
PUBLIC	?SetEnableToUsePuritySystem@CJewelOfHarmonySystem@@QAEXH@Z ; CJewelOfHarmonySystem::SetEnableToUsePuritySystem
EXTRN	?LogAddTD@@3P6AXPADZZA:DWORD			; LogAddTD
;	COMDAT ??_C@_0CJ@MMJIHELL@?$FLJewelOfHarmony?$FN?$FLPuritySystem?$FN?5E@
CONST	SEGMENT
??_C@_0CJ@MMJIHELL@?$FLJewelOfHarmony?$FN?$FLPuritySystem?$FN?5E@ DB '[Je'
	DB	'welOfHarmony][PuritySystem] Enable %d', 00H	; `string'
; Function compile flags: /Ogtp
CONST	ENDS
;	COMDAT ?SetEnableToUsePuritySystem@CJewelOfHarmonySystem@@QAEXH@Z
_TEXT	SEGMENT
_bEnable$ = 8						; size = 4
?SetEnableToUsePuritySystem@CJewelOfHarmonySystem@@QAEXH@Z PROC ; CJewelOfHarmonySystem::SetEnableToUsePuritySystem, COMDAT
; _this$ = ecx

; 239  : {

  00000	55		 push	 ebp
  00001	8b ec		 mov	 ebp, esp

; 240  : 	this->m_bEnable = bEnable;

  00003	8b 45 08	 mov	 eax, DWORD PTR _bEnable$[ebp]

; 241  : 
; 242  : 	LogAddTD("[JewelOfHarmony][PuritySystem] Enable %d", bEnable);

  00006	50		 push	 eax
  00007	68 00 00 00 00	 push	 OFFSET ??_C@_0CJ@MMJIHELL@?$FLJewelOfHarmony?$FN?$FLPuritySystem?$FN?5E@
  0000c	89 41 04	 mov	 DWORD PTR [ecx+4], eax
  0000f	ff 15 00 00 00
	00		 call	 DWORD PTR ?LogAddTD@@3P6AXPADZZA ; LogAddTD
  00015	83 c4 08	 add	 esp, 8

; 243  : }

  00018	5d		 pop	 ebp
  00019	c2 04 00	 ret	 4
?SetEnableToUsePuritySystem@CJewelOfHarmonySystem@@QAEXH@Z ENDP ; CJewelOfHarmonySystem::SetEnableToUsePuritySystem
_TEXT	ENDS
PUBLIC	?IsEnableToUsePuritySystem@CJewelOfHarmonySystem@@QAEHXZ ; CJewelOfHarmonySystem::IsEnableToUsePuritySystem
; Function compile flags: /Ogtp
;	COMDAT ?IsEnableToUsePuritySystem@CJewelOfHarmonySystem@@QAEHXZ
_TEXT	SEGMENT
?IsEnableToUsePuritySystem@CJewelOfHarmonySystem@@QAEHXZ PROC ; CJewelOfHarmonySystem::IsEnableToUsePuritySystem, COMDAT
; _this$ = ecx

; 247  : 	return this->m_bEnable;

  00000	8b 41 04	 mov	 eax, DWORD PTR [ecx+4]

; 248  : }

  00003	c3		 ret	 0
?IsEnableToUsePuritySystem@CJewelOfHarmonySystem@@QAEHXZ ENDP ; CJewelOfHarmonySystem::IsEnableToUsePuritySystem
_TEXT	ENDS
PUBLIC	??_C@_0DJ@NHFKNAAA@?$FLJewelOfHarmony?$FN?$FLPurity?$FN?5Purity?5@ ; `string'
PUBLIC	??_C@_0DM@HFGEEFMN@?$FLJewelOfHarmony?$FN?$FLPurity?$FN?5Purity?5@ ; `string'
PUBLIC	??_C@_0CF@BJBDMPPO@?$FLJewelOfHarmony?$FN?$FLPurity?$FN?5?9?5Mix?5S@ ; `string'
PUBLIC	??_C@_0BH@BHDMJJEI@JewelOfHarmony?$FN?$FLPurity?$AA@ ; `string'
PUBLIC	??_C@_0CK@BCOFIMEK@?$FLJewelOfHarmony?$FN?$FL?$CFs?$FN?$FL?$CFs?$FN?5Not?5Pur@ ; `string'
PUBLIC	__$ArrayPad$
PUBLIC	?PurityJewelOfHarmony@CJewelOfHarmonySystem@@QAEXPAUOBJECTSTRUCT@@@Z ; CJewelOfHarmonySystem::PurityJewelOfHarmony
EXTRN	?DataSend@@YAHHPAEK@Z:PROC			; DataSend
EXTRN	?GCUserChaosBoxSend@@YAXPAUOBJECTSTRUCT@@H@Z:PROC ; GCUserChaosBoxSend
EXTRN	?ChaosBoxInit@CMixSystem@@QAEHPAUOBJECTSTRUCT@@@Z:PROC ; CMixSystem::ChaosBoxInit
EXTRN	?gObjInventoryCommit@@YAHH@Z:PROC		; gObjInventoryCommit
EXTRN	?ItemSerialCreateSend@@YAXHEEEHEEEEEHEE@Z:PROC	; ItemSerialCreateSend
EXTRN	_rand:PROC
EXTRN	?LogChaosItem@CMixSystem@@QAEXPAUOBJECTSTRUCT@@PAD@Z:PROC ; CMixSystem::LogChaosItem
EXTRN	?g_MixSystem@@3VCMixSystem@@A:BYTE		; g_MixSystem
EXTRN	?GCMoneySend@@YAXHK@Z:PROC			; GCMoneySend
EXTRN	?AddTributeMoney@CCastleSiegeSync@@QAEXH@Z:PROC	; CCastleSiegeSync::AddTributeMoney
EXTRN	?GetTaxRateChaos@CCastleSiegeSync@@QAEHH@Z:PROC	; CCastleSiegeSync::GetTaxRateChaos
EXTRN	?g_CastleSiegeSync@@3VCCastleSiegeSync@@A:BYTE	; g_CastleSiegeSync
EXTRN	?IsItem@CItem@@QAEHXZ:PROC			; CItem::IsItem
EXTRN	?PHeadSetB@@YAXPAEEH@Z:PROC			; PHeadSetB
EXTRN	?GCServerMsgStringSend@@YAXPADHE@Z:PROC		; GCServerMsgStringSend
EXTRN	?Get@CMsg@@QAEPADH@Z:PROC			; CMsg::Get
EXTRN	?lMsg@@3VCMsg@@A:BYTE				; lMsg
;	COMDAT ??_C@_0DJ@NHFKNAAA@?$FLJewelOfHarmony?$FN?$FLPurity?$FN?5Purity?5@
CONST	SEGMENT
??_C@_0DJ@NHFKNAAA@?$FLJewelOfHarmony?$FN?$FLPurity?$FN?5Purity?5@ DB '[J'
	DB	'ewelOfHarmony][Purity] Purity Fail [%s][%s] Rate %d/%d', 00H ; `string'
CONST	ENDS
;	COMDAT ??_C@_0DM@HFGEEFMN@?$FLJewelOfHarmony?$FN?$FLPurity?$FN?5Purity?5@
CONST	SEGMENT
??_C@_0DM@HFGEEFMN@?$FLJewelOfHarmony?$FN?$FLPurity?$FN?5Purity?5@ DB '[J'
	DB	'ewelOfHarmony][Purity] Purity Success [%s][%s] Rate %d/%d', 00H ; `string'
CONST	ENDS
;	COMDAT ??_C@_0CF@BJBDMPPO@?$FLJewelOfHarmony?$FN?$FLPurity?$FN?5?9?5Mix?5S@
CONST	SEGMENT
??_C@_0CF@BJBDMPPO@?$FLJewelOfHarmony?$FN?$FLPurity?$FN?5?9?5Mix?5S@ DB '['
	DB	'JewelOfHarmony][Purity] - Mix Start', 00H	; `string'
CONST	ENDS
;	COMDAT ??_C@_0BH@BHDMJJEI@JewelOfHarmony?$FN?$FLPurity?$AA@
CONST	SEGMENT
??_C@_0BH@BHDMJJEI@JewelOfHarmony?$FN?$FLPurity?$AA@ DB 'JewelOfHarmony]['
	DB	'Purity', 00H				; `string'
CONST	ENDS
;	COMDAT ??_C@_0CK@BCOFIMEK@?$FLJewelOfHarmony?$FN?$FL?$CFs?$FN?$FL?$CFs?$FN?5Not?5Pur@
CONST	SEGMENT
??_C@_0CK@BCOFIMEK@?$FLJewelOfHarmony?$FN?$FL?$CFs?$FN?$FL?$CFs?$FN?5Not?5Pur@ DB '['
	DB	'JewelOfHarmony][%s][%s] Not Purtiy Time ', 00H ; `string'
; Function compile flags: /Ogtp
CONST	ENDS
;	COMDAT ?PurityJewelOfHarmony@CJewelOfHarmonySystem@@QAEXPAUOBJECTSTRUCT@@@Z
_TEXT	SEGMENT
_iInvalidItemCount$ = -28				; size = 4
_iJewelOfHarmonyItemCount$ = -24			; size = 4
_pMsg$ = -20						; size = 16
__$ArrayPad$ = -4					; size = 4
_lpObj$ = 8						; size = 4
?PurityJewelOfHarmony@CJewelOfHarmonySystem@@QAEXPAUOBJECTSTRUCT@@@Z PROC ; CJewelOfHarmonySystem::PurityJewelOfHarmony, COMDAT
; _this$ = ecx

; 253  : {

  00000	55		 push	 ebp
  00001	8b ec		 mov	 ebp, esp
  00003	83 ec 1c	 sub	 esp, 28			; 0000001cH
  00006	a1 00 00 00 00	 mov	 eax, DWORD PTR ___security_cookie
  0000b	33 c5		 xor	 eax, ebp
  0000d	89 45 fc	 mov	 DWORD PTR __$ArrayPad$[ebp], eax
  00010	53		 push	 ebx
  00011	8b d9		 mov	 ebx, ecx

; 254  : 	if ( this->m_bSystemPrutiyJewel != TRUE )

  00013	ba 01 00 00 00	 mov	 edx, 1
  00018	56		 push	 esi
  00019	8b 75 08	 mov	 esi, DWORD PTR _lpObj$[ebp]
  0001c	39 93 18 53 00
	00		 cmp	 DWORD PTR [ebx+21272], edx
  00022	74 2e		 je	 SHORT $LN15@PurityJewe

; 255  : 	{
; 256  : 		GCServerMsgStringSend(lMsg.Get(MSGGET(13, 50)), lpObj->m_Index, 1);

  00024	8b 06		 mov	 eax, DWORD PTR [esi]
  00026	52		 push	 edx
  00027	50		 push	 eax
  00028	68 32 0d 00 00	 push	 3378			; 00000d32H
  0002d	b9 00 00 00 00	 mov	 ecx, OFFSET ?lMsg@@3VCMsg@@A ; lMsg
  00032	e8 00 00 00 00	 call	 ?Get@CMsg@@QAEPADH@Z	; CMsg::Get
  00037	50		 push	 eax
  00038	e8 00 00 00 00	 call	 ?GCServerMsgStringSend@@YAXPADHE@Z ; GCServerMsgStringSend
  0003d	83 c4 0c	 add	 esp, 12			; 0000000cH
  00040	5e		 pop	 esi
  00041	5b		 pop	 ebx

; 348  : }

  00042	8b 4d fc	 mov	 ecx, DWORD PTR __$ArrayPad$[ebp]
  00045	33 cd		 xor	 ecx, ebp
  00047	e8 00 00 00 00	 call	 @__security_check_cookie@4
  0004c	8b e5		 mov	 esp, ebp
  0004e	5d		 pop	 ebp
  0004f	c2 04 00	 ret	 4
$LN15@PurityJewe:

; 257  : 		return;
; 258  : 	}
; 259  : 
; 260  : 	if ( this->IsEnableToUsePuritySystem() == FALSE )

  00052	e8 00 00 00 00	 call	 ?IsEnableToUsePuritySystem@CJewelOfHarmonySystem@@QAEHXZ ; CJewelOfHarmonySystem::IsEnableToUsePuritySystem
  00057	85 c0		 test	 eax, eax
  00059	75 41		 jne	 SHORT $LN14@PurityJewe

; 261  : 	{
; 262  : 		GCServerMsgStringSend(lMsg.Get(MSGGET(13, 50)), lpObj->m_Index, 1);

  0005b	8b 0e		 mov	 ecx, DWORD PTR [esi]
  0005d	52		 push	 edx
  0005e	51		 push	 ecx
  0005f	68 32 0d 00 00	 push	 3378			; 00000d32H
  00064	b9 00 00 00 00	 mov	 ecx, OFFSET ?lMsg@@3VCMsg@@A ; lMsg
  00069	e8 00 00 00 00	 call	 ?Get@CMsg@@QAEPADH@Z	; CMsg::Get
  0006e	50		 push	 eax
  0006f	e8 00 00 00 00	 call	 ?GCServerMsgStringSend@@YAXPADHE@Z ; GCServerMsgStringSend

; 263  : 		LogAddTD("[JewelOfHarmony][%s][%s] Not Purtiy Time ", lpObj->AccountID, lpObj->Name);

  00074	8d 56 77	 lea	 edx, DWORD PTR [esi+119]
  00077	52		 push	 edx
  00078	83 c6 6c	 add	 esi, 108		; 0000006cH
  0007b	56		 push	 esi
  0007c	68 00 00 00 00	 push	 OFFSET ??_C@_0CK@BCOFIMEK@?$FLJewelOfHarmony?$FN?$FL?$CFs?$FN?$FL?$CFs?$FN?5Not?5Pur@
  00081	ff 15 00 00 00
	00		 call	 DWORD PTR ?LogAddTD@@3P6AXPADZZA ; LogAddTD
  00087	83 c4 18	 add	 esp, 24			; 00000018H
  0008a	5e		 pop	 esi
  0008b	5b		 pop	 ebx

; 348  : }

  0008c	8b 4d fc	 mov	 ecx, DWORD PTR __$ArrayPad$[ebp]
  0008f	33 cd		 xor	 ecx, ebp
  00091	e8 00 00 00 00	 call	 @__security_check_cookie@4
  00096	8b e5		 mov	 esp, ebp
  00098	5d		 pop	 ebp
  00099	c2 04 00	 ret	 4
$LN14@PurityJewe:
  0009c	57		 push	 edi

; 264  : 		return;
; 265  : 	}
; 266  : 
; 267  : 	lpObj->ChaosLock = TRUE;
; 268  : 	// Chaos Lock was Enabled
; 269  : 		int iJewelOfHarmonyItemCount = 0;
; 270  : 		int iInvalidItemCount = 0;
; 271  : 		int iChaosMixPrice = 0;
; 272  : 		PMSG_CHAOSMIXRESULT pMsg;
; 273  : 		PHeadSetB((LPBYTE)&pMsg, 0x86, sizeof(PMSG_CHAOSMIXRESULT));

  0009d	6a 10		 push	 16			; 00000010H
  0009f	8d 45 ec	 lea	 eax, DWORD PTR _pMsg$[ebp]
  000a2	33 ff		 xor	 edi, edi
  000a4	68 86 00 00 00	 push	 134			; 00000086H
  000a9	50		 push	 eax
  000aa	89 96 88 0e 00
	00		 mov	 DWORD PTR [esi+3720], edx
  000b0	89 7d e8	 mov	 DWORD PTR _iJewelOfHarmonyItemCount$[ebp], edi
  000b3	89 7d e4	 mov	 DWORD PTR _iInvalidItemCount$[ebp], edi
  000b6	e8 00 00 00 00	 call	 ?PHeadSetB@@YAXPAEEH@Z	; PHeadSetB
  000bb	83 c4 0c	 add	 esp, 12			; 0000000cH

; 274  : 
; 275  : 		pMsg.Result = CB_ERROR;

  000be	c6 45 ef 00	 mov	 BYTE PTR _pMsg$[ebp+3], 0
$LL13@PurityJewe:

; 278  : 		{
; 279  : 			if ( lpObj->pChaosBox[n].IsItem() == TRUE )

  000c2	8b 8e 78 0e 00
	00		 mov	 ecx, DWORD PTR [esi+3704]
  000c8	03 cf		 add	 ecx, edi
  000ca	e8 00 00 00 00	 call	 ?IsItem@CItem@@QAEHXZ	; CItem::IsItem
  000cf	b9 01 00 00 00	 mov	 ecx, 1
  000d4	3b c1		 cmp	 eax, ecx
  000d6	75 18		 jne	 SHORT $LN12@PurityJewe

; 280  : 			{
; 281  : 				if ( lpObj->pChaosBox[n].m_Type == this->JEWEL_OF_HARMONY_ITEMINDEX )

  000d8	8b 96 78 0e 00
	00		 mov	 edx, DWORD PTR [esi+3704]
  000de	0f bf 44 17 06	 movsx	 eax, WORD PTR [edi+edx+6]
  000e3	3b 43 08	 cmp	 eax, DWORD PTR [ebx+8]
  000e6	75 05		 jne	 SHORT $LN9@PurityJewe

; 282  : 				{
; 283  : 					iJewelOfHarmonyItemCount++;

  000e8	01 4d e8	 add	 DWORD PTR _iJewelOfHarmonyItemCount$[ebp], ecx

; 284  : 				}
; 285  : 				else

  000eb	eb 03		 jmp	 SHORT $LN12@PurityJewe
$LN9@PurityJewe:

; 286  : 				{
; 287  : 					iInvalidItemCount++;

  000ed	01 4d e4	 add	 DWORD PTR _iInvalidItemCount$[ebp], ecx
$LN12@PurityJewe:

; 276  : 
; 277  : 		for ( int n =0;n<CHAOS_BOX_SIZE;n++)

  000f0	81 c7 d4 00 00
	00		 add	 edi, 212		; 000000d4H
  000f6	81 ff 80 1a 00
	00		 cmp	 edi, 6784		; 00001a80H
  000fc	7c c4		 jl	 SHORT $LL13@PurityJewe

; 288  : 				}
; 289  : 			}
; 290  : 		}
; 291  : 
; 292  : 		if ( iInvalidItemCount > 0 || iJewelOfHarmonyItemCount !=1 )

  000fe	83 7d e4 00	 cmp	 DWORD PTR _iInvalidItemCount$[ebp], 0
  00102	0f 8f 45 01 00
	00		 jg	 $LN6@PurityJewe
  00108	39 4d e8	 cmp	 DWORD PTR _iJewelOfHarmonyItemCount$[ebp], ecx
  0010b	0f 85 3c 01 00
	00		 jne	 $LN6@PurityJewe

; 295  : 			lpObj->ChaosLock = FALSE;
; 296  : 			return;
; 297  : 		}
; 298  : 
; 299  : 		iChaosMixPrice = this->m_iZenForPurity;
; 300  : 		int iChaosTaxMoney = iChaosMixPrice * g_CastleSiegeSync.GetTaxRateChaos(lpObj->m_Index) / 100;

  00111	8b 0e		 mov	 ecx, DWORD PTR [esi]
  00113	8b bb 30 53 00
	00		 mov	 edi, DWORD PTR [ebx+21296]
  00119	51		 push	 ecx
  0011a	b9 00 00 00 00	 mov	 ecx, OFFSET ?g_CastleSiegeSync@@3VCCastleSiegeSync@@A ; g_CastleSiegeSync
  0011f	e8 00 00 00 00	 call	 ?GetTaxRateChaos@CCastleSiegeSync@@QAEHH@Z ; CCastleSiegeSync::GetTaxRateChaos
  00124	8b c8		 mov	 ecx, eax
  00126	0f af cf	 imul	 ecx, edi
  00129	b8 1f 85 eb 51	 mov	 eax, 1374389535		; 51eb851fH
  0012e	f7 e9		 imul	 ecx
  00130	c1 fa 05	 sar	 edx, 5
  00133	8b c2		 mov	 eax, edx
  00135	c1 e8 1f	 shr	 eax, 31			; 0000001fH
  00138	03 c2		 add	 eax, edx

; 301  : 
; 302  : 		if (iChaosTaxMoney < 0 )

  0013a	79 02		 jns	 SHORT $LN20@PurityJewe

; 303  : 			iChaosTaxMoney = 0;

  0013c	33 c0		 xor	 eax, eax
$LN20@PurityJewe:

; 304  : 
; 305  : 		iChaosMixPrice += iChaosTaxMoney;

  0013e	03 f8		 add	 edi, eax

; 306  : 
; 307  : 		if ( iChaosMixPrice < 0 )

  00140	79 02		 jns	 SHORT $LN4@PurityJewe

; 308  : 			iChaosMixPrice = 0;

  00142	33 ff		 xor	 edi, edi
$LN4@PurityJewe:

; 309  : 
; 310  : 		if ( lpObj->Money < iChaosMixPrice )

  00144	8b 8e f0 00 00
	00		 mov	 ecx, DWORD PTR [esi+240]
  0014a	3b cf		 cmp	 ecx, edi
  0014c	7d 15		 jge	 SHORT $LN3@PurityJewe

; 311  : 		{
; 312  : 			pMsg.Result = CB_NOT_ENOUGH_ZEN;
; 313  : 			DataSend(lpObj->m_Index, (LPBYTE)&pMsg, pMsg.h.size);

  0014e	0f b6 55 ed	 movzx	 edx, BYTE PTR _pMsg$[ebp+1]
  00152	8b 0e		 mov	 ecx, DWORD PTR [esi]
  00154	52		 push	 edx
  00155	8d 45 ec	 lea	 eax, DWORD PTR _pMsg$[ebp]
  00158	50		 push	 eax
  00159	c6 45 ef 02	 mov	 BYTE PTR _pMsg$[ebp+3], 2
  0015d	51		 push	 ecx

; 314  : 			lpObj->ChaosLock = FALSE;
; 315  : 			return;

  0015e	e9 f6 00 00 00	 jmp	 $LN22@PurityJewe
$LN3@PurityJewe:

; 316  : 		}
; 317  : 
; 318  : 		lpObj->Money -= iChaosMixPrice;

  00163	2b cf		 sub	 ecx, edi
  00165	89 8e f0 00 00
	00		 mov	 DWORD PTR [esi+240], ecx

; 319  : 		g_CastleSiegeSync.AddTributeMoney(iChaosTaxMoney);

  0016b	50		 push	 eax
  0016c	b9 00 00 00 00	 mov	 ecx, OFFSET ?g_CastleSiegeSync@@3VCCastleSiegeSync@@A ; g_CastleSiegeSync
  00171	e8 00 00 00 00	 call	 ?AddTributeMoney@CCastleSiegeSync@@QAEXH@Z ; CCastleSiegeSync::AddTributeMoney

; 320  : 		GCMoneySend(lpObj->m_Index, lpObj->Money);

  00176	8b 96 f0 00 00
	00		 mov	 edx, DWORD PTR [esi+240]
  0017c	8b 06		 mov	 eax, DWORD PTR [esi]
  0017e	52		 push	 edx
  0017f	50		 push	 eax
  00180	e8 00 00 00 00	 call	 ?GCMoneySend@@YAXHK@Z	; GCMoneySend
  00185	83 c4 08	 add	 esp, 8

; 321  : 		g_MixSystem.LogChaosItem(lpObj, "JewelOfHarmony][Purity"); //LogChaosItem(lpObj, "JewelOfHarmony][Purity");

  00188	68 00 00 00 00	 push	 OFFSET ??_C@_0BH@BHDMJJEI@JewelOfHarmony?$FN?$FLPurity?$AA@
  0018d	56		 push	 esi
  0018e	b9 00 00 00 00	 mov	 ecx, OFFSET ?g_MixSystem@@3VCMixSystem@@A ; g_MixSystem
  00193	e8 00 00 00 00	 call	 ?LogChaosItem@CMixSystem@@QAEXPAUOBJECTSTRUCT@@PAD@Z ; CMixSystem::LogChaosItem

; 322  : 
; 323  : 		LogAddTD("[JewelOfHarmony][Purity] - Mix Start");

  00198	68 00 00 00 00	 push	 OFFSET ??_C@_0CF@BJBDMPPO@?$FLJewelOfHarmony?$FN?$FLPurity?$FN?5?9?5Mix?5S@
  0019d	ff 15 00 00 00
	00		 call	 DWORD PTR ?LogAddTD@@3P6AXPADZZA ; LogAddTD
  001a3	83 c4 04	 add	 esp, 4

; 324  : 
; 325  : 
; 326  : 		int iRate = rand() % 100;

  001a6	e8 00 00 00 00	 call	 _rand
  001ab	99		 cdq
  001ac	b9 64 00 00 00	 mov	 ecx, 100		; 00000064H
  001b1	f7 f9		 idiv	 ecx
  001b3	8b fa		 mov	 edi, edx

; 327  : 
; 328  : 		if ( iRate < this->m_iRatePuritySuccess )

  001b5	3b bb 2c 53 00
	00		 cmp	 edi, DWORD PTR [ebx+21292]
  001bb	7d 4c		 jge	 SHORT $LN2@PurityJewe

; 329  : 		{
; 330  : 			int iItemType = this->JEWEL_OF_HARMONY_PURITY_ITEMINDEX;
; 331  : 			ItemSerialCreateSend(lpObj->m_Index, -1, 0, 0, iItemType, 0, 1, 0, 0, 0, lpObj->m_Index, 0, 0);

  001bd	8b 06		 mov	 eax, DWORD PTR [esi]
  001bf	8b 53 0c	 mov	 edx, DWORD PTR [ebx+12]
  001c2	6a 00		 push	 0
  001c4	6a 00		 push	 0
  001c6	50		 push	 eax
  001c7	6a 00		 push	 0
  001c9	6a 00		 push	 0
  001cb	6a 00		 push	 0
  001cd	6a 01		 push	 1
  001cf	6a 00		 push	 0
  001d1	52		 push	 edx
  001d2	6a 00		 push	 0
  001d4	6a 00		 push	 0
  001d6	68 ff 00 00 00	 push	 255			; 000000ffH
  001db	50		 push	 eax
  001dc	e8 00 00 00 00	 call	 ?ItemSerialCreateSend@@YAXHEEEHEEEEEHEE@Z ; ItemSerialCreateSend

; 332  : 			gObjInventoryCommit(lpObj->m_Index);

  001e1	8b 06		 mov	 eax, DWORD PTR [esi]
  001e3	50		 push	 eax
  001e4	e8 00 00 00 00	 call	 ?gObjInventoryCommit@@YAHH@Z ; gObjInventoryCommit

; 333  : 
; 334  : 			LogAddTD("[JewelOfHarmony][Purity] Purity Success [%s][%s] Rate %d/%d",
; 335  : 				lpObj->AccountID, lpObj->Name, iRate, this->m_iRatePuritySuccess);

  001e9	8b 8b 2c 53 00
	00		 mov	 ecx, DWORD PTR [ebx+21292]
  001ef	51		 push	 ecx
  001f0	57		 push	 edi
  001f1	8d 56 77	 lea	 edx, DWORD PTR [esi+119]
  001f4	52		 push	 edx
  001f5	8d 46 6c	 lea	 eax, DWORD PTR [esi+108]
  001f8	50		 push	 eax
  001f9	68 00 00 00 00	 push	 OFFSET ??_C@_0DM@HFGEEFMN@?$FLJewelOfHarmony?$FN?$FLPurity?$FN?5Purity?5@
  001fe	ff 15 00 00 00
	00		 call	 DWORD PTR ?LogAddTD@@3P6AXPADZZA ; LogAddTD
  00204	83 c4 4c	 add	 esp, 76			; 0000004cH

; 336  : 		}
; 337  : 		else

  00207	eb 58		 jmp	 SHORT $LN1@PurityJewe
$LN2@PurityJewe:

; 338  : 		{
; 339  : 			g_MixSystem.ChaosBoxInit(lpObj); //ChaosBoxInit(lpObj);

  00209	56		 push	 esi
  0020a	b9 00 00 00 00	 mov	 ecx, OFFSET ?g_MixSystem@@3VCMixSystem@@A ; g_MixSystem
  0020f	e8 00 00 00 00	 call	 ?ChaosBoxInit@CMixSystem@@QAEHPAUOBJECTSTRUCT@@@Z ; CMixSystem::ChaosBoxInit

; 340  : 			GCUserChaosBoxSend(lpObj, 0);

  00214	6a 00		 push	 0
  00216	56		 push	 esi
  00217	e8 00 00 00 00	 call	 ?GCUserChaosBoxSend@@YAXPAUOBJECTSTRUCT@@H@Z ; GCUserChaosBoxSend

; 341  : 			DataSend(lpObj->m_Index, (LPBYTE)&pMsg, pMsg.h.size);

  0021c	0f b6 4d ed	 movzx	 ecx, BYTE PTR _pMsg$[ebp+1]
  00220	8b 06		 mov	 eax, DWORD PTR [esi]
  00222	51		 push	 ecx
  00223	8d 55 ec	 lea	 edx, DWORD PTR _pMsg$[ebp]
  00226	52		 push	 edx
  00227	50		 push	 eax
  00228	e8 00 00 00 00	 call	 ?DataSend@@YAHHPAEK@Z	; DataSend

; 342  : 
; 343  : 			LogAddTD("[JewelOfHarmony][Purity] Purity Fail [%s][%s] Rate %d/%d",
; 344  : 				lpObj->AccountID, lpObj->Name, iRate, this->m_iRatePuritySuccess);

  0022d	8b 8b 2c 53 00
	00		 mov	 ecx, DWORD PTR [ebx+21292]
  00233	51		 push	 ecx
  00234	57		 push	 edi
  00235	8d 56 77	 lea	 edx, DWORD PTR [esi+119]
  00238	52		 push	 edx
  00239	8d 46 6c	 lea	 eax, DWORD PTR [esi+108]
  0023c	50		 push	 eax
  0023d	68 00 00 00 00	 push	 OFFSET ??_C@_0DJ@NHFKNAAA@?$FLJewelOfHarmony?$FN?$FLPurity?$FN?5Purity?5@
  00242	ff 15 00 00 00
	00		 call	 DWORD PTR ?LogAddTD@@3P6AXPADZZA ; LogAddTD
  00248	83 c4 28	 add	 esp, 40			; 00000028H

; 345  : 		}
; 346  : 	// Chaos Lock was Disabled
; 347  : 	lpObj->ChaosLock = FALSE;

  0024b	eb 14		 jmp	 SHORT $LN1@PurityJewe
$LN6@PurityJewe:

; 293  : 		{
; 294  : 			DataSend(lpObj->m_Index, (LPBYTE)&pMsg, pMsg.h.size);

  0024d	0f b6 4d ed	 movzx	 ecx, BYTE PTR _pMsg$[ebp+1]
  00251	8b 06		 mov	 eax, DWORD PTR [esi]
  00253	51		 push	 ecx
  00254	8d 55 ec	 lea	 edx, DWORD PTR _pMsg$[ebp]
  00257	52		 push	 edx
  00258	50		 push	 eax
$LN22@PurityJewe:
  00259	e8 00 00 00 00	 call	 ?DataSend@@YAHHPAEK@Z	; DataSend
  0025e	83 c4 0c	 add	 esp, 12			; 0000000cH
$LN1@PurityJewe:

; 348  : }

  00261	8b 4d fc	 mov	 ecx, DWORD PTR __$ArrayPad$[ebp]
  00264	5f		 pop	 edi
  00265	c7 86 88 0e 00
	00 00 00 00 00	 mov	 DWORD PTR [esi+3720], 0
  0026f	5e		 pop	 esi
  00270	33 cd		 xor	 ecx, ebp
  00272	5b		 pop	 ebx
  00273	e8 00 00 00 00	 call	 @__security_check_cookie@4
  00278	8b e5		 mov	 esp, ebp
  0027a	5d		 pop	 ebp
  0027b	c2 04 00	 ret	 4
?PurityJewelOfHarmony@CJewelOfHarmonySystem@@QAEXPAUOBJECTSTRUCT@@@Z ENDP ; CJewelOfHarmonySystem::PurityJewelOfHarmony
_TEXT	ENDS
PUBLIC	?GetItemStrengthenOption@CJewelOfHarmonySystem@@QAEEPAVCItem@@@Z ; CJewelOfHarmonySystem::GetItemStrengthenOption
; Function compile flags: /Ogtp
;	COMDAT ?GetItemStrengthenOption@CJewelOfHarmonySystem@@QAEEPAVCItem@@@Z
_TEXT	SEGMENT
_pItem$ = 8						; size = 4
?GetItemStrengthenOption@CJewelOfHarmonySystem@@QAEEPAVCItem@@@Z PROC ; CJewelOfHarmonySystem::GetItemStrengthenOption, COMDAT
; _this$ = ecx

; 353  : {

  00000	55		 push	 ebp
  00001	8b ec		 mov	 ebp, esp

; 354  : 	return ( pItem->m_JewelOfHarmonyOption & 0xF0 ) >> 4;

  00003	8b 45 08	 mov	 eax, DWORD PTR _pItem$[ebp]
  00006	0f b6 80 c4 00
	00 00		 movzx	 eax, BYTE PTR [eax+196]
  0000d	c1 e8 04	 shr	 eax, 4

; 355  : }

  00010	5d		 pop	 ebp
  00011	c2 04 00	 ret	 4
?GetItemStrengthenOption@CJewelOfHarmonySystem@@QAEEPAVCItem@@@Z ENDP ; CJewelOfHarmonySystem::GetItemStrengthenOption
_TEXT	ENDS
PUBLIC	?_GetItemOptionLevel@CJewelOfHarmonySystem@@QAEEPAVCItem@@@Z ; CJewelOfHarmonySystem::_GetItemOptionLevel
; Function compile flags: /Ogtp
;	COMDAT ?_GetItemOptionLevel@CJewelOfHarmonySystem@@QAEEPAVCItem@@@Z
_TEXT	SEGMENT
_pItem$ = 8						; size = 4
?_GetItemOptionLevel@CJewelOfHarmonySystem@@QAEEPAVCItem@@@Z PROC ; CJewelOfHarmonySystem::_GetItemOptionLevel, COMDAT
; _this$ = ecx

; 364  : {

  00000	55		 push	 ebp
  00001	8b ec		 mov	 ebp, esp

; 365  : 	return ( pItem->m_JewelOfHarmonyOption & 0x0F ) ;

  00003	8b 45 08	 mov	 eax, DWORD PTR _pItem$[ebp]
  00006	0f b6 80 c4 00
	00 00		 movzx	 eax, BYTE PTR [eax+196]
  0000d	83 e0 0f	 and	 eax, 15			; 0000000fH

; 366  : }

  00010	5d		 pop	 ebp
  00011	c2 04 00	 ret	 4
?_GetItemOptionLevel@CJewelOfHarmonySystem@@QAEEPAVCItem@@@Z ENDP ; CJewelOfHarmonySystem::_GetItemOptionLevel
_TEXT	ENDS
PUBLIC	?IsStrengthenByJewelOfHarmony@CJewelOfHarmonySystem@@QAEHPAVCItem@@@Z ; CJewelOfHarmonySystem::IsStrengthenByJewelOfHarmony
; Function compile flags: /Ogtp
;	COMDAT ?IsStrengthenByJewelOfHarmony@CJewelOfHarmonySystem@@QAEHPAVCItem@@@Z
_TEXT	SEGMENT
_pItem$ = 8						; size = 4
?IsStrengthenByJewelOfHarmony@CJewelOfHarmonySystem@@QAEHPAVCItem@@@Z PROC ; CJewelOfHarmonySystem::IsStrengthenByJewelOfHarmony, COMDAT
; _this$ = ecx

; 370  : {

  00000	55		 push	 ebp
  00001	8b ec		 mov	 ebp, esp

; 371  : 	if ( this->GetItemStrengthenOption(pItem) >0  )

  00003	8b 45 08	 mov	 eax, DWORD PTR _pItem$[ebp]
  00006	50		 push	 eax
  00007	e8 00 00 00 00	 call	 ?GetItemStrengthenOption@CJewelOfHarmonySystem@@QAEEPAVCItem@@@Z ; CJewelOfHarmonySystem::GetItemStrengthenOption
  0000c	32 c9		 xor	 cl, cl
  0000e	3a c8		 cmp	 cl, al
  00010	1b c0		 sbb	 eax, eax
  00012	f7 d8		 neg	 eax

; 372  : 		return TRUE;
; 373  : 
; 374  : 	return FALSE;
; 375  : }

  00014	5d		 pop	 ebp
  00015	c2 04 00	 ret	 4
?IsStrengthenByJewelOfHarmony@CJewelOfHarmonySystem@@QAEHPAVCItem@@@Z ENDP ; CJewelOfHarmonySystem::IsStrengthenByJewelOfHarmony
_TEXT	ENDS
PUBLIC	?IsActive@CJewelOfHarmonySystem@@QAEHPAVCItem@@@Z ; CJewelOfHarmonySystem::IsActive
; Function compile flags: /Ogtp
;	COMDAT ?IsActive@CJewelOfHarmonySystem@@QAEHPAVCItem@@@Z
_TEXT	SEGMENT
_pItem$ = 8						; size = 4
?IsActive@CJewelOfHarmonySystem@@QAEHPAVCItem@@@Z PROC	; CJewelOfHarmonySystem::IsActive, COMDAT
; _this$ = ecx

; 379  : {

  00000	55		 push	 ebp
  00001	8b ec		 mov	 ebp, esp
  00003	56		 push	 esi

; 380  : 	if ( this->IsStrengthenByJewelOfHarmony(pItem) == FALSE )

  00004	8b 75 08	 mov	 esi, DWORD PTR _pItem$[ebp]
  00007	56		 push	 esi
  00008	8b d1		 mov	 edx, ecx
  0000a	e8 00 00 00 00	 call	 ?IsStrengthenByJewelOfHarmony@CJewelOfHarmonySystem@@QAEHPAVCItem@@@Z ; CJewelOfHarmonySystem::IsStrengthenByJewelOfHarmony
  0000f	85 c0		 test	 eax, eax
  00011	75 05		 jne	 SHORT $LN2@IsActive
  00013	5e		 pop	 esi

; 386  : 		return FALSE;
; 387  : 
; 388  : 	return TRUE;
; 389  : }

  00014	5d		 pop	 ebp
  00015	c2 04 00	 ret	 4
$LN2@IsActive:

; 381  : 		return FALSE;
; 382  : 
; 383  : 	int iOptionLevel = this->_GetItemOptionLevel(pItem);

  00018	56		 push	 esi
  00019	8b ca		 mov	 ecx, edx
  0001b	e8 00 00 00 00	 call	 ?_GetItemOptionLevel@CJewelOfHarmonySystem@@QAEEPAVCItem@@@Z ; CJewelOfHarmonySystem::_GetItemOptionLevel

; 384  : 
; 385  : 	if ( pItem->m_Level < iOptionLevel )

  00020	0f b6 c0	 movzx	 eax, al
  00023	33 c9		 xor	 ecx, ecx
  00025	66 39 46 08	 cmp	 WORD PTR [esi+8], ax
  00029	5e		 pop	 esi
  0002a	0f 9d c1	 setge	 cl
  0002d	8b c1		 mov	 eax, ecx

; 386  : 		return FALSE;
; 387  : 
; 388  : 	return TRUE;
; 389  : }

  0002f	5d		 pop	 ebp
  00030	c2 04 00	 ret	 4
?IsActive@CJewelOfHarmonySystem@@QAEHPAVCItem@@@Z ENDP	; CJewelOfHarmonySystem::IsActive
_TEXT	ENDS
PUBLIC	?_GetItemType@CJewelOfHarmonySystem@@QAEHPAVCItem@@@Z ; CJewelOfHarmonySystem::_GetItemType
; Function compile flags: /Ogtp
;	COMDAT ?_GetItemType@CJewelOfHarmonySystem@@QAEHPAVCItem@@@Z
_TEXT	SEGMENT
_pItem$ = 8						; size = 4
?_GetItemType@CJewelOfHarmonySystem@@QAEHPAVCItem@@@Z PROC ; CJewelOfHarmonySystem::_GetItemType, COMDAT
; _this$ = ecx

; 407  : {

  00000	55		 push	 ebp
  00001	8b ec		 mov	 ebp, esp

; 408  : 	int iItemType = JEWELOFHARMONY_ITEM_TYPE_NULL;
; 409  : 
; 410  : 
; 411  : 	if ( (pItem->m_Type >= ITEMGET(0,0) && pItem->m_Type <ITEMGET(4,0)) || (pItem->m_Type >= ITEMGET(4,0) && pItem->m_Type <ITEMGET(4,7)) || (pItem->m_Type >= ITEMGET(4,8) && pItem->m_Type <ITEMGET(4,15)) || (pItem->m_Type >= ITEMGET(4,16) && pItem->m_Type <ITEMGET(5,0)) )

  00003	8b 4d 08	 mov	 ecx, DWORD PTR _pItem$[ebp]
  00006	0f b7 49 06	 movzx	 ecx, WORD PTR [ecx+6]
  0000a	33 c0		 xor	 eax, eax
  0000c	66 85 c9	 test	 cx, cx
  0000f	78 0a		 js	 SHORT $LN5@GetItemTyp
  00011	ba 00 08 00 00	 mov	 edx, 2048		; 00000800H
  00016	66 3b ca	 cmp	 cx, dx
  00019	7c 3c		 jl	 SHORT $LN6@GetItemTyp
$LN5@GetItemTyp:
  0001b	ba 00 08 00 00	 mov	 edx, 2048		; 00000800H
  00020	66 3b ca	 cmp	 cx, dx
  00023	7c 0a		 jl	 SHORT $LN4@GetItemTyp
  00025	ba 07 08 00 00	 mov	 edx, 2055		; 00000807H
  0002a	66 3b ca	 cmp	 cx, dx
  0002d	7c 28		 jl	 SHORT $LN6@GetItemTyp
$LN4@GetItemTyp:
  0002f	ba 08 08 00 00	 mov	 edx, 2056		; 00000808H
  00034	66 3b ca	 cmp	 cx, dx
  00037	7c 0a		 jl	 SHORT $LN3@GetItemTyp
  00039	ba 0f 08 00 00	 mov	 edx, 2063		; 0000080fH
  0003e	66 3b ca	 cmp	 cx, dx
  00041	7c 14		 jl	 SHORT $LN6@GetItemTyp
$LN3@GetItemTyp:
  00043	ba 10 08 00 00	 mov	 edx, 2064		; 00000810H
  00048	66 3b ca	 cmp	 cx, dx
  0004b	7c 0f		 jl	 SHORT $LN7@GetItemTyp
  0004d	ba 00 0a 00 00	 mov	 edx, 2560		; 00000a00H
  00052	66 3b ca	 cmp	 cx, dx
  00055	7d 05		 jge	 SHORT $LN7@GetItemTyp
$LN6@GetItemTyp:

; 412  : 		iItemType =JEWELOFHARMONY_ITEM_TYPE_WEAPON;

  00057	b8 01 00 00 00	 mov	 eax, 1
$LN7@GetItemTyp:

; 413  : 
; 414  : 	if (pItem->m_Type >= ITEMGET(5,0) && pItem->m_Type <ITEMGET(6,0) )

  0005c	ba 00 0a 00 00	 mov	 edx, 2560		; 00000a00H
  00061	66 3b ca	 cmp	 cx, dx
  00064	7c 0f		 jl	 SHORT $LN2@GetItemTyp
  00066	ba 00 0c 00 00	 mov	 edx, 3072		; 00000c00H
  0006b	66 3b ca	 cmp	 cx, dx
  0006e	7d 05		 jge	 SHORT $LN2@GetItemTyp

; 415  : 		iItemType =JEWELOFHARMONY_ITEM_TYPE_STAFF;

  00070	b8 02 00 00 00	 mov	 eax, 2
$LN2@GetItemTyp:

; 416  : 
; 417  : 	if (pItem->m_Type >= ITEMGET(6,0) && pItem->m_Type <ITEMGET(12,0) )

  00075	ba 00 0c 00 00	 mov	 edx, 3072		; 00000c00H
  0007a	66 3b ca	 cmp	 cx, dx
  0007d	7c 0f		 jl	 SHORT $LN1@GetItemTyp
  0007f	ba 00 18 00 00	 mov	 edx, 6144		; 00001800H
  00084	66 3b ca	 cmp	 cx, dx
  00087	7d 05		 jge	 SHORT $LN1@GetItemTyp

; 418  : 		iItemType =JEWELOFHARMONY_ITEM_TYPE_DEFENSE;

  00089	b8 03 00 00 00	 mov	 eax, 3
$LN1@GetItemTyp:

; 419  : 
; 420  : 	return iItemType;
; 421  : }

  0008e	5d		 pop	 ebp
  0008f	c2 04 00	 ret	 4
?_GetItemType@CJewelOfHarmonySystem@@QAEHPAVCItem@@@Z ENDP ; CJewelOfHarmonySystem::_GetItemType
_TEXT	ENDS
PUBLIC	?_GetSelectRandomOption@CJewelOfHarmonySystem@@QAEHPAVCItem@@H@Z ; CJewelOfHarmonySystem::_GetSelectRandomOption
EXTRN	?GetRandomValue@TRandomPoolMgr@@QAEHW4eRandomPoolSelectType@@@Z:PROC ; TRandomPoolMgr::GetRandomValue
EXTRN	?AddValue@TRandomPoolMgr@@QAE_NHH@Z:PROC	; TRandomPoolMgr::AddValue
EXTRN	?InitPool@TRandomPoolMgr@@QAEXXZ:PROC		; TRandomPoolMgr::InitPool
; Function compile flags: /Ogtp
;	COMDAT ?_GetSelectRandomOption@CJewelOfHarmonySystem@@QAEHPAVCItem@@H@Z
_TEXT	SEGMENT
_pItem$ = 8						; size = 4
tv161 = 12						; size = 4
_iItemType$ = 12					; size = 4
?_GetSelectRandomOption@CJewelOfHarmonySystem@@QAEHPAVCItem@@H@Z PROC ; CJewelOfHarmonySystem::_GetSelectRandomOption, COMDAT
; _this$ = ecx

; 427  : {

  00000	55		 push	 ebp
  00001	8b ec		 mov	 ebp, esp
  00003	53		 push	 ebx
  00004	56		 push	 esi

; 428  : 	if ( iItemType == 0 )

  00005	8b 75 0c	 mov	 esi, DWORD PTR _iItemType$[ebp]
  00008	8b d9		 mov	 ebx, ecx
  0000a	85 f6		 test	 esi, esi
  0000c	75 08		 jne	 SHORT $LN12@GetSelectR

; 429  : 		return iItemType;

  0000e	5e		 pop	 esi
  0000f	33 c0		 xor	 eax, eax
  00011	5b		 pop	 ebx

; 458  : 	return iItemOption;
; 459  : }

  00012	5d		 pop	 ebp
  00013	c2 08 00	 ret	 8
$LN12@GetSelectR:

; 430  : 
; 431  : 	int iItemOption = AT_JEWELOFHARMONY_NOT_STRENGTHEN_ITEM;
; 432  : 	this->m_kRandomPool.InitPool();

  00016	8d 8b 5c 53 00
	00		 lea	 ecx, DWORD PTR [ebx+21340]
  0001c	57		 push	 edi
  0001d	89 4d 0c	 mov	 DWORD PTR tv161[ebp], ecx
  00020	e8 00 00 00 00	 call	 ?InitPool@TRandomPoolMgr@@QAEXXZ ; TRandomPoolMgr::InitPool
  00025	69 f6 c0 14 00
	00		 imul	 esi, 5312		; 000014c0H
  0002b	8d b4 1e 69 01
	00 00		 lea	 esi, DWORD PTR [esi+ebx+361]
  00032	8b 5d 08	 mov	 ebx, DWORD PTR _pItem$[ebp]

; 433  : 
; 434  : 	for ( int idx =1;idx<MAX_JOH_ITEM_INDEX;idx++)

  00035	bf 01 00 00 00	 mov	 edi, 1
  0003a	8d 9b 00 00 00
	00		 npad	 6
$LL11@GetSelectR:

; 435  : 	{
; 436  : 		if ( this->m_itemOption[iItemType][idx].bValid == FALSE )

  00040	83 7e fb 00	 cmp	 DWORD PTR [esi-5], 0
  00044	74 17		 je	 SHORT $LN10@GetSelectR

; 437  : 			continue;
; 438  : 
; 439  : 		if ( pItem->m_Level < this->m_itemOption[iItemType][idx].iRequireLevel )

  00046	0f b6 06	 movzx	 eax, BYTE PTR [esi]
  00049	66 39 43 08	 cmp	 WORD PTR [ebx+8], ax
  0004d	7c 0e		 jl	 SHORT $LN10@GetSelectR

; 440  : 			continue;
; 441  : 
; 442  : 		if ( iItemOption == AT_JEWELOFHARMONY_STAFF_DECREASE_REQUIRE_STR || iItemOption == AT_JEWELOFHARMONY_WEAPON_DECREASE_REQUIRE_STR)
; 443  : 		{
; 444  : 			if ( pItem->m_RequireStrength == 0 )
; 445  : 				continue;
; 446  : 		}
; 447  : 
; 448  : 		if ( iItemOption == AT_JEWELOFHARMONY_STAFF_DECREASE_REQUIRE_DEX || iItemOption == AT_JEWELOFHARMONY_WEAPON_DECREASE_REQUIRE_DEX)
; 449  : 		{
; 450  : 			if ( pItem->m_RequireDexterity == 0 )
; 451  : 				continue;
; 452  : 		}
; 453  : 
; 454  : 		this->m_kRandomPool.AddValue(idx, this->m_itemOption[iItemType][idx].iRandomWeight);

  0004f	0f b6 4e ff	 movzx	 ecx, BYTE PTR [esi-1]
  00053	51		 push	 ecx
  00054	8b 4d 0c	 mov	 ecx, DWORD PTR tv161[ebp]
  00057	57		 push	 edi
  00058	e8 00 00 00 00	 call	 ?AddValue@TRandomPoolMgr@@QAE_NHH@Z ; TRandomPoolMgr::AddValue
$LN10@GetSelectR:

; 433  : 
; 434  : 	for ( int idx =1;idx<MAX_JOH_ITEM_INDEX;idx++)

  0005d	47		 inc	 edi
  0005e	81 c6 4c 01 00
	00		 add	 esi, 332		; 0000014cH
  00064	83 ff 10	 cmp	 edi, 16			; 00000010H
  00067	7c d7		 jl	 SHORT $LL11@GetSelectR

; 455  : 	}
; 456  : 
; 457  : 	iItemOption = this->m_kRandomPool.GetRandomValue(eRANDOMPOOL_BY_WEIGHT);

  00069	8b 4d 0c	 mov	 ecx, DWORD PTR tv161[ebp]
  0006c	6a 01		 push	 1
  0006e	e8 00 00 00 00	 call	 ?GetRandomValue@TRandomPoolMgr@@QAEHW4eRandomPoolSelectType@@@Z ; TRandomPoolMgr::GetRandomValue
  00073	5f		 pop	 edi
  00074	5e		 pop	 esi
  00075	5b		 pop	 ebx

; 458  : 	return iItemOption;
; 459  : }

  00076	5d		 pop	 ebp
  00077	c2 08 00	 ret	 8
?_GetSelectRandomOption@CJewelOfHarmonySystem@@QAEHPAVCItem@@H@Z ENDP ; CJewelOfHarmonySystem::_GetSelectRandomOption
_TEXT	ENDS
PUBLIC	?_MakeOption@CJewelOfHarmonySystem@@QAEHPAVCItem@@EE@Z ; CJewelOfHarmonySystem::_MakeOption
; Function compile flags: /Ogtp
;	COMDAT ?_MakeOption@CJewelOfHarmonySystem@@QAEHPAVCItem@@EE@Z
_TEXT	SEGMENT
_pItem$ = 8						; size = 4
_btOptionType$ = 12					; size = 1
_btOptionLevel$ = 16					; size = 1
?_MakeOption@CJewelOfHarmonySystem@@QAEHPAVCItem@@EE@Z PROC ; CJewelOfHarmonySystem::_MakeOption, COMDAT
; _this$ = ecx

; 577  : {

  00000	55		 push	 ebp
  00001	8b ec		 mov	 ebp, esp

; 578  : 	pItem->m_JewelOfHarmonyOption = AT_JEWELOFHARMONY_NOT_STRENGTHEN_ITEM;
; 579  : 	pItem->m_JewelOfHarmonyOption |= btOptionType << 4;

  00003	8a 45 0c	 mov	 al, BYTE PTR _btOptionType$[ebp]

; 580  : 	pItem->m_JewelOfHarmonyOption |= btOptionLevel & 0x0F;

  00006	8a 4d 10	 mov	 cl, BYTE PTR _btOptionLevel$[ebp]
  00009	8b 55 08	 mov	 edx, DWORD PTR _pItem$[ebp]
  0000c	c0 e0 04	 shl	 al, 4
  0000f	80 e1 0f	 and	 cl, 15			; 0000000fH
  00012	0a c1		 or	 al, cl
  00014	88 82 c4 00 00
	00		 mov	 BYTE PTR [edx+196], al

; 581  : 
; 582  : 	return TRUE;

  0001a	b8 01 00 00 00	 mov	 eax, 1

; 583  : }

  0001f	5d		 pop	 ebp
  00020	c2 0c 00	 ret	 12			; 0000000cH
?_MakeOption@CJewelOfHarmonySystem@@QAEHPAVCItem@@EE@Z ENDP ; CJewelOfHarmonySystem::_MakeOption
_TEXT	ENDS
PUBLIC	?StrengthenItemByMacro@CJewelOfHarmonySystem@@QAEXPAUOBJECTSTRUCT@@EEE@Z ; CJewelOfHarmonySystem::StrengthenItemByMacro
; Function compile flags: /Ogtp
;	COMDAT ?StrengthenItemByMacro@CJewelOfHarmonySystem@@QAEXPAUOBJECTSTRUCT@@EEE@Z
_TEXT	SEGMENT
_lpObj$ = 8						; size = 4
_invenrotyTargetPos$ = 12				; size = 1
_btOptionType$ = 16					; size = 1
_btOptionLevel$ = 20					; size = 1
?StrengthenItemByMacro@CJewelOfHarmonySystem@@QAEXPAUOBJECTSTRUCT@@EEE@Z PROC ; CJewelOfHarmonySystem::StrengthenItemByMacro, COMDAT
; _this$ = ecx

; 590  : 	return;
; 591  : 	
; 592  : 	int iType;
; 593  : 	CItem * pItem;
; 594  : 	char szMsg[256];
; 595  : 	{
; 596  : 		char szMsg[256];
; 597  : 	}
; 598  : 	{
; 599  : 		char szMsg[256];
; 600  : 	}
; 601  : 	{
; 602  : 		char szMsg[256];
; 603  : 	}
; 604  : 	{
; 605  : 		BYTE iValue;
; 606  : 	}
; 607  : 	{
; 608  : 		
; 609  : 		char szMsg[256];
; 610  : 	}
; 611  : 	{
; 612  : 		char szMsg[256];
; 613  : 	}
; 614  : 	{
; 615  : 		char szMsg[256];
; 616  : 	}
; 617  : 	{
; 618  : 		char szMsg	[256];
; 619  : 	}
; 620  : }

  00000	c2 10 00	 ret	 16			; 00000010H
?StrengthenItemByMacro@CJewelOfHarmonySystem@@QAEXPAUOBJECTSTRUCT@@EEE@Z ENDP ; CJewelOfHarmonySystem::StrengthenItemByMacro
_TEXT	ENDS
PUBLIC	??_C@_0DM@KFGLPALB@?H?$LP?$LA?z?5?3?5?$CF20s?5?5?5?5type?3?$CFd?0?5option?3?$CF@ ; `string'
PUBLIC	__$ArrayPad$
PUBLIC	?ShowStrengthenOption@CJewelOfHarmonySystem@@QAEEPAVCItem@@@Z ; CJewelOfHarmonySystem::ShowStrengthenOption
EXTRN	__imp__OutputDebugStringA@4:PROC
EXTRN	_sprintf:PROC
;	COMDAT ??_C@_0DM@KFGLPALB@?H?$LP?$LA?z?5?3?5?$CF20s?5?5?5?5type?3?$CFd?0?5option?3?$CF@
CONST	SEGMENT
??_C@_0DM@KFGLPALB@?H?$LP?$LA?z?5?3?5?$CF20s?5?5?5?5type?3?$CFd?0?5option?3?$CF@ DB 0c8H
	DB	0bfH, 0b0H, 0faH, ' : %20s    type:%d, option:%d optionLevel %'
	DB	'd value %d ', 0aH, 00H			; `string'
; Function compile flags: /Ogtp
CONST	ENDS
;	COMDAT ?ShowStrengthenOption@CJewelOfHarmonySystem@@QAEEPAVCItem@@@Z
_TEXT	SEGMENT
_buf$ = -260						; size = 256
__$ArrayPad$ = -4					; size = 4
_pItem$ = 8						; size = 4
?ShowStrengthenOption@CJewelOfHarmonySystem@@QAEEPAVCItem@@@Z PROC ; CJewelOfHarmonySystem::ShowStrengthenOption, COMDAT
; _this$ = ecx

; 624  : {

  00000	55		 push	 ebp
  00001	8b ec		 mov	 ebp, esp
  00003	81 ec 04 01 00
	00		 sub	 esp, 260		; 00000104H
  00009	a1 00 00 00 00	 mov	 eax, DWORD PTR ___security_cookie
  0000e	33 c5		 xor	 eax, ebp
  00010	89 45 fc	 mov	 DWORD PTR __$ArrayPad$[ebp], eax
  00013	56		 push	 esi
  00014	57		 push	 edi
  00015	8b 7d 08	 mov	 edi, DWORD PTR _pItem$[ebp]

; 625  : 	BYTE bResult = -1;
; 626  : 
; 627  : 	if ( this->IsStrengthenByJewelOfHarmony(pItem) == FALSE )

  00018	57		 push	 edi
  00019	8b f1		 mov	 esi, ecx
  0001b	e8 00 00 00 00	 call	 ?IsStrengthenByJewelOfHarmony@CJewelOfHarmonySystem@@QAEHPAVCItem@@@Z ; CJewelOfHarmonySystem::IsStrengthenByJewelOfHarmony
  00020	85 c0		 test	 eax, eax
  00022	75 14		 jne	 SHORT $LN1@ShowStreng

; 628  : 		return bResult;

  00024	5f		 pop	 edi
  00025	0c ff		 or	 al, 255			; 000000ffH
  00027	5e		 pop	 esi

; 640  : 	return bResult;
; 641  : }

  00028	8b 4d fc	 mov	 ecx, DWORD PTR __$ArrayPad$[ebp]
  0002b	33 cd		 xor	 ecx, ebp
  0002d	e8 00 00 00 00	 call	 @__security_check_cookie@4
  00032	8b e5		 mov	 esp, ebp
  00034	5d		 pop	 ebp
  00035	c2 04 00	 ret	 4
$LN1@ShowStreng:
  00038	53		 push	 ebx

; 629  : 
; 630  : 	int type = this->_GetItemType(pItem);

  00039	57		 push	 edi
  0003a	8b ce		 mov	 ecx, esi
  0003c	e8 00 00 00 00	 call	 ?_GetItemType@CJewelOfHarmonySystem@@QAEHPAVCItem@@@Z ; CJewelOfHarmonySystem::_GetItemType

; 631  : 	bResult = this->GetItemStrengthenOption(pItem);

  00041	57		 push	 edi
  00042	8b ce		 mov	 ecx, esi
  00044	8b d0		 mov	 edx, eax
  00046	e8 00 00 00 00	 call	 ?GetItemStrengthenOption@CJewelOfHarmonySystem@@QAEEPAVCItem@@@Z ; CJewelOfHarmonySystem::GetItemStrengthenOption

; 632  : 	int iItemOptionLevel = this->_GetItemOptionLevel(pItem);

  0004b	57		 push	 edi
  0004c	8a d8		 mov	 bl, al
  0004e	e8 00 00 00 00	 call	 ?_GetItemOptionLevel@CJewelOfHarmonySystem@@QAEEPAVCItem@@@Z ; CJewelOfHarmonySystem::_GetItemOptionLevel

; 633  : 	
; 634  : 	char buf[256];
; 635  : 	sprintf(buf, " : %20s    type:%d, option:%d optionLevel %d value %d \n", 
; 636  : 		this->m_itemOption[type][bResult].szOptionName, type,
; 637  : 		bResult, iItemOptionLevel, this->m_itemOption[type][bResult].iItemEffectValue[iItemOptionLevel]);

  00053	0f b6 cb	 movzx	 ecx, bl
  00056	8b fa		 mov	 edi, edx
  00058	c1 e7 04	 shl	 edi, 4
  0005b	03 f9		 add	 edi, ecx
  0005d	69 ff 4c 01 00
	00		 imul	 edi, 332		; 0000014cH
  00063	0f b6 c0	 movzx	 eax, al
  00066	03 f7		 add	 esi, edi
  00068	0f b6 7c 06 1e	 movzx	 edi, BYTE PTR [esi+eax+30]
  0006d	57		 push	 edi
  0006e	50		 push	 eax
  0006f	51		 push	 ecx
  00070	52		 push	 edx
  00071	83 c6 64	 add	 esi, 100		; 00000064H
  00074	56		 push	 esi
  00075	8d 85 fc fe ff
	ff		 lea	 eax, DWORD PTR _buf$[ebp]
  0007b	68 00 00 00 00	 push	 OFFSET ??_C@_0DM@KFGLPALB@?H?$LP?$LA?z?5?3?5?$CF20s?5?5?5?5type?3?$CFd?0?5option?3?$CF@
  00080	50		 push	 eax
  00081	e8 00 00 00 00	 call	 _sprintf
  00086	83 c4 1c	 add	 esp, 28			; 0000001cH

; 638  : 	
; 639  : 	OutputDebugString(buf);

  00089	8d 8d fc fe ff
	ff		 lea	 ecx, DWORD PTR _buf$[ebp]
  0008f	51		 push	 ecx
  00090	ff 15 00 00 00
	00		 call	 DWORD PTR __imp__OutputDebugStringA@4

; 640  : 	return bResult;
; 641  : }

  00096	8b 4d fc	 mov	 ecx, DWORD PTR __$ArrayPad$[ebp]
  00099	8a c3		 mov	 al, bl
  0009b	5b		 pop	 ebx
  0009c	5f		 pop	 edi
  0009d	33 cd		 xor	 ecx, ebp
  0009f	5e		 pop	 esi
  000a0	e8 00 00 00 00	 call	 @__security_check_cookie@4
  000a5	8b e5		 mov	 esp, ebp
  000a7	5d		 pop	 ebp
  000a8	c2 04 00	 ret	 4
?ShowStrengthenOption@CJewelOfHarmonySystem@@QAEEPAVCItem@@@Z ENDP ; CJewelOfHarmonySystem::ShowStrengthenOption
_TEXT	ENDS
PUBLIC	?MakeCharSetData@CJewelOfHarmonySystem@@QAEEPAUOBJECTSTRUCT@@@Z ; CJewelOfHarmonySystem::MakeCharSetData
; Function compile flags: /Ogtp
;	COMDAT ?MakeCharSetData@CJewelOfHarmonySystem@@QAEEPAUOBJECTSTRUCT@@@Z
_TEXT	SEGMENT
_lpObj$ = 8						; size = 4
?MakeCharSetData@CJewelOfHarmonySystem@@QAEEPAUOBJECTSTRUCT@@@Z PROC ; CJewelOfHarmonySystem::MakeCharSetData, COMDAT
; _this$ = ecx

; 646  : {

  00000	55		 push	 ebp
  00001	8b ec		 mov	 ebp, esp

; 647  : 	BYTE btResult = 0;
; 648  : 
; 649  : 	if ( this->IsActive(&lpObj->pInventory[0]) == TRUE )

  00003	8b 45 08	 mov	 eax, DWORD PTR _lpObj$[ebp]
  00006	53		 push	 ebx
  00007	56		 push	 esi
  00008	57		 push	 edi
  00009	8b b8 24 0e 00
	00		 mov	 edi, DWORD PTR [eax+3620]
  0000f	57		 push	 edi
  00010	8b f1		 mov	 esi, ecx
  00012	32 db		 xor	 bl, bl
  00014	e8 00 00 00 00	 call	 ?IsActive@CJewelOfHarmonySystem@@QAEHPAVCItem@@@Z ; CJewelOfHarmonySystem::IsActive
  00019	83 f8 01	 cmp	 eax, 1
  0001c	75 2a		 jne	 SHORT $LN7@MakeCharSe

; 650  : 	{
; 651  : 		int iOptionLevel = this->_GetItemOptionLevel(&lpObj->pInventory[0]);

  0001e	57		 push	 edi
  0001f	8b ce		 mov	 ecx, esi
  00021	e8 00 00 00 00	 call	 ?_GetItemOptionLevel@CJewelOfHarmonySystem@@QAEEPAVCItem@@@Z ; CJewelOfHarmonySystem::_GetItemOptionLevel
  00026	0f b6 c0	 movzx	 eax, al

; 652  : 
; 653  : 		if ( iOptionLevel > 5 && iOptionLevel < 9 )

  00029	8d 48 fa	 lea	 ecx, DWORD PTR [eax-6]
  0002c	83 f9 02	 cmp	 ecx, 2
  0002f	77 04		 ja	 SHORT $LN11@MakeCharSe

; 654  : 			btResult |= 0x40;

  00031	b3 40		 mov	 bl, 64			; 00000040H
  00033	eb 13		 jmp	 SHORT $LN7@MakeCharSe
$LN11@MakeCharSe:

; 655  : 		else if ( iOptionLevel > 8 && iOptionLevel < 13 )

  00035	8d 50 f7	 lea	 edx, DWORD PTR [eax-9]
  00038	83 fa 03	 cmp	 edx, 3
  0003b	77 04		 ja	 SHORT $LN9@MakeCharSe

; 656  : 			btResult |= 0x80;

  0003d	b3 80		 mov	 bl, 128			; 00000080H
  0003f	eb 07		 jmp	 SHORT $LN7@MakeCharSe
$LN9@MakeCharSe:

; 657  : 		else if ( iOptionLevel > 12 )

  00041	83 f8 0c	 cmp	 eax, 12			; 0000000cH
  00044	7e 02		 jle	 SHORT $LN7@MakeCharSe

; 658  : 			btResult |= 0xC0;

  00046	b3 c0		 mov	 bl, 192			; 000000c0H
$LN7@MakeCharSe:

; 659  : 	}
; 660  : 
; 661  : 	if ( this->IsActive(&lpObj->pInventory[1]) == TRUE )

  00048	81 c7 d4 00 00
	00		 add	 edi, 212		; 000000d4H
  0004e	57		 push	 edi
  0004f	8b ce		 mov	 ecx, esi
  00051	e8 00 00 00 00	 call	 ?IsActive@CJewelOfHarmonySystem@@QAEHPAVCItem@@@Z ; CJewelOfHarmonySystem::IsActive
  00056	83 f8 01	 cmp	 eax, 1
  00059	75 3b		 jne	 SHORT $LN16@MakeCharSe

; 662  : 	{
; 663  : 		int iOptionLevel = this->_GetItemOptionLevel(&lpObj->pInventory[1]);

  0005b	57		 push	 edi
  0005c	8b ce		 mov	 ecx, esi
  0005e	e8 00 00 00 00	 call	 ?_GetItemOptionLevel@CJewelOfHarmonySystem@@QAEEPAVCItem@@@Z ; CJewelOfHarmonySystem::_GetItemOptionLevel
  00063	0f b6 c0	 movzx	 eax, al

; 664  : 
; 665  : 		if ( iOptionLevel > 5 && iOptionLevel < 9 )

  00066	8d 48 fa	 lea	 ecx, DWORD PTR [eax-6]
  00069	83 f9 02	 cmp	 ecx, 2
  0006c	77 0c		 ja	 SHORT $LN5@MakeCharSe

; 666  : 			btResult |= 0x10;

  0006e	5f		 pop	 edi
  0006f	80 cb 10	 or	 bl, 16			; 00000010H
  00072	5e		 pop	 esi

; 671  : 	}
; 672  : 
; 673  : 	return btResult;

  00073	8a c3		 mov	 al, bl
  00075	5b		 pop	 ebx

; 674  : }

  00076	5d		 pop	 ebp
  00077	c2 04 00	 ret	 4
$LN5@MakeCharSe:

; 667  : 		else if ( iOptionLevel > 8 && iOptionLevel < 13 )

  0007a	8d 50 f7	 lea	 edx, DWORD PTR [eax-9]
  0007d	83 fa 03	 cmp	 edx, 3
  00080	77 0c		 ja	 SHORT $LN3@MakeCharSe

; 668  : 			btResult |= 0x20;

  00082	5f		 pop	 edi
  00083	80 cb 20	 or	 bl, 32			; 00000020H
  00086	5e		 pop	 esi

; 671  : 	}
; 672  : 
; 673  : 	return btResult;

  00087	8a c3		 mov	 al, bl
  00089	5b		 pop	 ebx

; 674  : }

  0008a	5d		 pop	 ebp
  0008b	c2 04 00	 ret	 4
$LN3@MakeCharSe:

; 669  : 		else if ( iOptionLevel > 12 )

  0008e	83 f8 0c	 cmp	 eax, 12			; 0000000cH
  00091	7e 03		 jle	 SHORT $LN16@MakeCharSe

; 670  : 			btResult |= 0x30;

  00093	80 cb 30	 or	 bl, 48			; 00000030H
$LN16@MakeCharSe:
  00096	5f		 pop	 edi
  00097	5e		 pop	 esi

; 671  : 	}
; 672  : 
; 673  : 	return btResult;

  00098	8a c3		 mov	 al, bl
  0009a	5b		 pop	 ebx

; 674  : }

  0009b	5d		 pop	 ebp
  0009c	c2 04 00	 ret	 4
?MakeCharSetData@CJewelOfHarmonySystem@@QAEEPAUOBJECTSTRUCT@@@Z ENDP ; CJewelOfHarmonySystem::MakeCharSetData
_TEXT	ENDS
PUBLIC	?GetItemEffectValue@CJewelOfHarmonySystem@@QAEHPAVCItem@@H@Z ; CJewelOfHarmonySystem::GetItemEffectValue
; Function compile flags: /Ogtp
;	COMDAT ?GetItemEffectValue@CJewelOfHarmonySystem@@QAEHPAVCItem@@H@Z
_TEXT	SEGMENT
_pItem$ = 8						; size = 4
_iOptionType$ = 12					; size = 4
?GetItemEffectValue@CJewelOfHarmonySystem@@QAEHPAVCItem@@H@Z PROC ; CJewelOfHarmonySystem::GetItemEffectValue, COMDAT
; _this$ = ecx

; 722  : {

  00000	55		 push	 ebp
  00001	8b ec		 mov	 ebp, esp
  00003	53		 push	 ebx

; 723  : 	int iItemType = this->_GetItemType(pItem);

  00004	8b 5d 08	 mov	 ebx, DWORD PTR _pItem$[ebp]
  00007	56		 push	 esi
  00008	53		 push	 ebx
  00009	8b f1		 mov	 esi, ecx
  0000b	e8 00 00 00 00	 call	 ?_GetItemType@CJewelOfHarmonySystem@@QAEHPAVCItem@@@Z ; CJewelOfHarmonySystem::_GetItemType
  00010	8b d0		 mov	 edx, eax

; 724  : 
; 725  : 	if ( iItemType == JEWELOFHARMONY_ITEM_TYPE_NULL )

  00012	85 d2		 test	 edx, edx
  00014	75 06		 jne	 SHORT $LN4@GetItemEff
  00016	5e		 pop	 esi
  00017	5b		 pop	 ebx

; 742  : }

  00018	5d		 pop	 ebp
  00019	c2 08 00	 ret	 8
$LN4@GetItemEff:
  0001c	57		 push	 edi

; 726  : 		return 0;
; 727  : 
; 728  : 	int iItemOptionType = AT_JEWELOFHARMONY_NOT_STRENGTHEN_ITEM;
; 729  : 
; 730  : 	iItemOptionType = this->GetItemStrengthenOption(pItem);

  0001d	53		 push	 ebx
  0001e	8b ce		 mov	 ecx, esi
  00020	e8 00 00 00 00	 call	 ?GetItemStrengthenOption@CJewelOfHarmonySystem@@QAEEPAVCItem@@@Z ; CJewelOfHarmonySystem::GetItemStrengthenOption
  00025	0f b6 f8	 movzx	 edi, al

; 731  : 
; 732  : 	if ( iItemOptionType == AT_JEWELOFHARMONY_NOT_STRENGTHEN_ITEM ||iItemOptionType != iOptionType )

  00028	84 c0		 test	 al, al
  0002a	74 2c		 je	 SHORT $LN2@GetItemEff
  0002c	3b 7d 0c	 cmp	 edi, DWORD PTR _iOptionType$[ebp]
  0002f	75 27		 jne	 SHORT $LN2@GetItemEff

; 734  : 
; 735  : 	int iItemOptionLevel = this->_GetItemOptionLevel(pItem);

  00031	53		 push	 ebx
  00032	e8 00 00 00 00	 call	 ?_GetItemOptionLevel@CJewelOfHarmonySystem@@QAEEPAVCItem@@@Z ; CJewelOfHarmonySystem::_GetItemOptionLevel
  00037	0f b6 c0	 movzx	 eax, al

; 736  : 
; 737  : 	if ( iItemOptionLevel >= MAX_JOH_ITEM_OPTION )

  0003a	83 f8 0e	 cmp	 eax, 14			; 0000000eH

; 738  : 		return 0;

  0003d	7d 19		 jge	 SHORT $LN2@GetItemEff

; 739  : 
; 740  : 	int iItemEffectValue = this->m_itemOption[iItemType][iItemOptionType].iItemEffectValue[iItemOptionLevel];
; 741  : 	return iItemEffectValue;

  0003f	c1 e2 04	 shl	 edx, 4
  00042	03 d7		 add	 edx, edi
  00044	69 d2 4c 01 00
	00		 imul	 edx, 332		; 0000014cH
  0004a	03 d0		 add	 edx, eax
  0004c	0f b6 44 32 1e	 movzx	 eax, BYTE PTR [edx+esi+30]
  00051	5f		 pop	 edi
  00052	5e		 pop	 esi
  00053	5b		 pop	 ebx

; 742  : }

  00054	5d		 pop	 ebp
  00055	c2 08 00	 ret	 8
$LN2@GetItemEff:
  00058	5f		 pop	 edi
  00059	5e		 pop	 esi

; 733  : 		return 0;

  0005a	33 c0		 xor	 eax, eax
  0005c	5b		 pop	 ebx

; 742  : }

  0005d	5d		 pop	 ebp
  0005e	c2 08 00	 ret	 8
?GetItemEffectValue@CJewelOfHarmonySystem@@QAEHPAVCItem@@H@Z ENDP ; CJewelOfHarmonySystem::GetItemEffectValue
_TEXT	ENDS
PUBLIC	?_CalcItemEffectValue@CJewelOfHarmonySystem@@QAEHPAVCItem@@PAUJEWELOFHARMONY_ITEM_EFFECT@@@Z ; CJewelOfHarmonySystem::_CalcItemEffectValue
; Function compile flags: /Ogtp
;	COMDAT ?_CalcItemEffectValue@CJewelOfHarmonySystem@@QAEHPAVCItem@@PAUJEWELOFHARMONY_ITEM_EFFECT@@@Z
_TEXT	SEGMENT
_iItemOptionLevel$ = 8					; size = 4
_pItem$ = 8						; size = 4
_pItemEffect$ = 12					; size = 4
?_CalcItemEffectValue@CJewelOfHarmonySystem@@QAEHPAVCItem@@PAUJEWELOFHARMONY_ITEM_EFFECT@@@Z PROC ; CJewelOfHarmonySystem::_CalcItemEffectValue, COMDAT
; _this$ = ecx

; 747  : {

  00000	55		 push	 ebp
  00001	8b ec		 mov	 ebp, esp
  00003	53		 push	 ebx

; 748  : 	int iItemType = this->_GetItemType(pItem);

  00004	8b 5d 08	 mov	 ebx, DWORD PTR _pItem$[ebp]
  00007	56		 push	 esi
  00008	57		 push	 edi
  00009	53		 push	 ebx
  0000a	8b f1		 mov	 esi, ecx
  0000c	e8 00 00 00 00	 call	 ?_GetItemType@CJewelOfHarmonySystem@@QAEHPAVCItem@@@Z ; CJewelOfHarmonySystem::_GetItemType
  00011	8b f8		 mov	 edi, eax

; 749  : 
; 750  : 	if ( iItemType == JEWELOFHARMONY_ITEM_TYPE_NULL )

  00013	85 ff		 test	 edi, edi

; 751  : 		return 0;

  00015	0f 84 8f 01 00
	00		 je	 $LN26@CalcItemEf

; 752  : 
; 753  : 	int iItemOptionType = AT_JEWELOFHARMONY_NOT_STRENGTHEN_ITEM;
; 754  : 
; 755  : 	iItemOptionType = this->GetItemStrengthenOption(pItem);

  0001b	53		 push	 ebx
  0001c	8b ce		 mov	 ecx, esi
  0001e	e8 00 00 00 00	 call	 ?GetItemStrengthenOption@CJewelOfHarmonySystem@@QAEEPAVCItem@@@Z ; CJewelOfHarmonySystem::GetItemStrengthenOption
  00023	0f b6 d8	 movzx	 ebx, al

; 756  : 
; 757  : 	if ( iItemOptionType == AT_JEWELOFHARMONY_NOT_STRENGTHEN_ITEM )

  00026	84 c0		 test	 al, al

; 758  : 		return 0;

  00028	0f 84 7c 01 00
	00		 je	 $LN26@CalcItemEf

; 759  : 
; 760  : 	int iItemOptionLevel = this->_GetItemOptionLevel(pItem);

  0002e	8b 55 08	 mov	 edx, DWORD PTR _pItem$[ebp]
  00031	52		 push	 edx
  00032	e8 00 00 00 00	 call	 ?_GetItemOptionLevel@CJewelOfHarmonySystem@@QAEEPAVCItem@@@Z ; CJewelOfHarmonySystem::_GetItemOptionLevel
  00037	0f b6 c0	 movzx	 eax, al
  0003a	89 45 08	 mov	 DWORD PTR _iItemOptionLevel$[ebp], eax

; 761  : 
; 762  : 	if ( iItemOptionLevel >= MAX_JOH_ITEM_OPTION )

  0003d	83 f8 0e	 cmp	 eax, 14			; 0000000eH

; 763  : 		return 0;

  00040	0f 8d 64 01 00
	00		 jge	 $LN26@CalcItemEf

; 764  : 
; 765  : 
; 766  : 	if ( this->IsActive(pItem) == FALSE )

  00046	52		 push	 edx
  00047	e8 00 00 00 00	 call	 ?IsActive@CJewelOfHarmonySystem@@QAEHPAVCItem@@@Z ; CJewelOfHarmonySystem::IsActive
  0004c	85 c0		 test	 eax, eax

; 767  : 		return FALSE;

  0004e	0f 84 56 01 00
	00		 je	 $LN26@CalcItemEf

; 768  : 
; 769  : 	int iItemEffectValue = this->m_itemOption[iItemType][iItemOptionType].iItemEffectValue[iItemOptionLevel];

  00054	8b c7		 mov	 eax, edi
  00056	c1 e0 04	 shl	 eax, 4
  00059	03 c3		 add	 eax, ebx
  0005b	69 c0 4c 01 00
	00		 imul	 eax, 332		; 0000014cH
  00061	03 45 08	 add	 eax, DWORD PTR _iItemOptionLevel$[ebp]

; 770  : 
; 771  : 	BOOL bResult = TRUE;
; 772  : 
; 773  : 	switch ( iItemType )

  00064	8b d7		 mov	 edx, edi
  00066	4a		 dec	 edx
  00067	0f b6 4c 30 1e	 movzx	 ecx, BYTE PTR [eax+esi+30]
  0006c	b8 01 00 00 00	 mov	 eax, 1
  00071	0f 84 b2 00 00
	00		 je	 $LN39@CalcItemEf
  00077	4a		 dec	 edx
  00078	0f 84 8a 00 00
	00		 je	 $LN25@CalcItemEf
  0007e	4a		 dec	 edx

; 868  : 					break;
; 869  : 				default:
; 870  : 					bResult = FALSE;
; 871  : 			}
; 872  : 			break;
; 873  : 
; 874  : 		default:
; 875  : 			bResult = FALSE;

  0007f	0f 85 25 01 00
	00		 jne	 $LN26@CalcItemEf

; 817  : 					break;
; 818  : 				case AT_JEWELOFHARMONY_STAFF_DECREASE_REQUIRE_STR:
; 819  : 					break;
; 820  : 				case AT_JEWELOFHARMONY_STAFF_DECREASE_REQUIRE_DEX:
; 821  : 					break;
; 822  : 				case AT_JEWELOFHARMONY_STAFF_IMPROVE_SKILLDAMAGE:
; 823  : 					pItemEffect->HJOpAddSkillAttack += iItemEffectValue;
; 824  : 					break;
; 825  : 				case AT_JEWELOFHARMONY_STAFF_IMPROVE_CRITICALDAMAGE:
; 826  : 					pItemEffect->HJOpAddCriticalDamage += iItemEffectValue;
; 827  : 					break;
; 828  : 				case AT_JEWELOFHARMONY_STAFF_DECREASE_SD_RATE:
; 829  : 					pItemEffect->HJOpDecreaseSDRate += iItemEffectValue;
; 830  : 					break;
; 831  : 				case AT_JEWELOFHARMONY_STAFF_IMPROVE_ATTACKSUCCESRATE_PVP:
; 832  : 					pItemEffect->HJOpAddAttackSuccessRatePVP += iItemEffectValue;
; 833  : 					break;
; 834  : 				case AT_JEWELOFHARMONY_STAFF_IMPROVE_IGNORE_SD_RATE:
; 835  : 					pItemEffect->HJOpAddIgnoreSDRate += iItemEffectValue;
; 836  : 					break;
; 837  : 				default:
; 838  : 					bResult = FALSE;
; 839  : 			}
; 840  : 			break;
; 841  : 
; 842  : 		case JEWELOFHARMONY_ITEM_TYPE_DEFENSE:
; 843  : 			switch (iItemOptionType)

  00085	8d 53 ff	 lea	 edx, DWORD PTR [ebx-1]
  00088	83 fa 07	 cmp	 edx, 7
  0008b	0f 87 19 01 00
	00		 ja	 $LN26@CalcItemEf
  00091	ff 24 95 00 00
	00 00		 jmp	 DWORD PTR $LN50@CalcItemEf[edx*4]
$LN10@CalcItemEf:

; 844  : 			{
; 845  : 				case AT_JEWELOFHARMONY_DEFENSE_IMPROVE_DEFENSE:
; 846  : 					pItemEffect->HJOpAddDefense += iItemEffectValue;

  00098	8b 55 0c	 mov	 edx, DWORD PTR _pItemEffect$[ebp]
  0009b	66 01 4a 16	 add	 WORD PTR [edx+22], cx
  0009f	5f		 pop	 edi
  000a0	5e		 pop	 esi
  000a1	5b		 pop	 ebx

; 876  : 	}
; 877  : 
; 878  : 	return bResult;
; 879  : }

  000a2	5d		 pop	 ebp
  000a3	c2 08 00	 ret	 8
$LN9@CalcItemEf:

; 847  : 					break;
; 848  : 				case AT_JEWELOFHARMONY_DEFENSE_IMPROVE_MAX_AG:
; 849  : 					pItemEffect->HJOpAddMaxAG += iItemEffectValue;

  000a6	8b 55 0c	 mov	 edx, DWORD PTR _pItemEffect$[ebp]
  000a9	66 01 4a 18	 add	 WORD PTR [edx+24], cx
  000ad	5f		 pop	 edi
  000ae	5e		 pop	 esi
  000af	5b		 pop	 ebx

; 876  : 	}
; 877  : 
; 878  : 	return bResult;
; 879  : }

  000b0	5d		 pop	 ebp
  000b1	c2 08 00	 ret	 8
$LN8@CalcItemEf:

; 850  : 					break;
; 851  : 				case AT_JEWELOFHARMONY_DEFENSE_IMPROVE_MAX_HP:
; 852  : 					pItemEffect->HJOpAddMaxHP += iItemEffectValue;

  000b4	8b 55 0c	 mov	 edx, DWORD PTR _pItemEffect$[ebp]
  000b7	66 01 4a 1a	 add	 WORD PTR [edx+26], cx
  000bb	5f		 pop	 edi
  000bc	5e		 pop	 esi
  000bd	5b		 pop	 ebx

; 876  : 	}
; 877  : 
; 878  : 	return bResult;
; 879  : }

  000be	5d		 pop	 ebp
  000bf	c2 08 00	 ret	 8
$LN7@CalcItemEf:

; 853  : 					break;
; 854  : 				case AT_JEWELOFHARMONY_DEFENSE_IMPROVE_AUTO_REFILL_HP:
; 855  : 					pItemEffect->HJOpAddRefillHP += iItemEffectValue;

  000c2	8b 55 0c	 mov	 edx, DWORD PTR _pItemEffect$[ebp]
  000c5	66 01 4a 1c	 add	 WORD PTR [edx+28], cx
  000c9	5f		 pop	 edi
  000ca	5e		 pop	 esi
  000cb	5b		 pop	 ebx

; 876  : 	}
; 877  : 
; 878  : 	return bResult;
; 879  : }

  000cc	5d		 pop	 ebp
  000cd	c2 08 00	 ret	 8
$LN6@CalcItemEf:

; 856  : 					break;
; 857  : 				case AT_JEWELOFHARMONY_DEFENSE_IMPROVE_AUTO_REFILL_MP:
; 858  : 					pItemEffect->HJOpAddRefillMP += iItemEffectValue;

  000d0	8b 55 0c	 mov	 edx, DWORD PTR _pItemEffect$[ebp]
  000d3	66 01 4a 1e	 add	 WORD PTR [edx+30], cx
  000d7	5f		 pop	 edi
  000d8	5e		 pop	 esi
  000d9	5b		 pop	 ebx

; 876  : 	}
; 877  : 
; 878  : 	return bResult;
; 879  : }

  000da	5d		 pop	 ebp
  000db	c2 08 00	 ret	 8
$LN5@CalcItemEf:

; 859  : 					break;
; 860  : 				case AT_JEWELOFHARMONY_DEFENSE_IMPROVE_BLOCKSUCCESRATE_PVP:
; 861  : 					pItemEffect->HJOpAddDefenseSuccessRatePvP += iItemEffectValue;

  000de	8b 55 0c	 mov	 edx, DWORD PTR _pItemEffect$[ebp]
  000e1	66 01 4a 20	 add	 WORD PTR [edx+32], cx
  000e5	5f		 pop	 edi
  000e6	5e		 pop	 esi
  000e7	5b		 pop	 ebx

; 876  : 	}
; 877  : 
; 878  : 	return bResult;
; 879  : }

  000e8	5d		 pop	 ebp
  000e9	c2 08 00	 ret	 8
$LN4@CalcItemEf:

; 862  : 					break;
; 863  : 				case AT_JEWELOFHARMONY_DEFENSE_IMPROVE_DAMAGE_DECREASE:
; 864  : 					pItemEffect->HJOpAddDamageDecrease += iItemEffectValue;

  000ec	8b 55 0c	 mov	 edx, DWORD PTR _pItemEffect$[ebp]
  000ef	66 01 4a 22	 add	 WORD PTR [edx+34], cx
  000f3	5f		 pop	 edi
  000f4	5e		 pop	 esi
  000f5	5b		 pop	 ebx

; 876  : 	}
; 877  : 
; 878  : 	return bResult;
; 879  : }

  000f6	5d		 pop	 ebp
  000f7	c2 08 00	 ret	 8
$LN3@CalcItemEf:

; 865  : 					break;
; 866  : 				case AT_JEWELOFHARMONY_DEFENSE_IMPROVE_SD_RATE:
; 867  : 					pItemEffect->HJOpAddSDRate += iItemEffectValue;

  000fa	8b 55 0c	 mov	 edx, DWORD PTR _pItemEffect$[ebp]
  000fd	66 01 4a 24	 add	 WORD PTR [edx+36], cx
  00101	5f		 pop	 edi
  00102	5e		 pop	 esi
  00103	5b		 pop	 ebx

; 876  : 	}
; 877  : 
; 878  : 	return bResult;
; 879  : }

  00104	5d		 pop	 ebp
  00105	c2 08 00	 ret	 8
$LN25@CalcItemEf:

; 809  : 			}
; 810  : 			break;
; 811  : 
; 812  : 		case JEWELOFHARMONY_ITEM_TYPE_STAFF:
; 813  : 			switch (iItemOptionType)

  00108	8d 53 ff	 lea	 edx, DWORD PTR [ebx-1]
  0010b	83 fa 07	 cmp	 edx, 7
  0010e	0f 87 96 00 00
	00		 ja	 $LN26@CalcItemEf
  00114	ff 24 95 00 00
	00 00		 jmp	 DWORD PTR $LN51@CalcItemEf[edx*4]
$LN22@CalcItemEf:

; 814  : 			{
; 815  : 				case AT_JEWELOFHARMONY_STAFF_IMPROVE_MAGICDAMAGE:
; 816  : 					pItemEffect->HJOpAddMagicPower += iItemEffectValue;

  0011b	8b 55 0c	 mov	 edx, DWORD PTR _pItemEffect$[ebp]
  0011e	66 01 4a 14	 add	 WORD PTR [edx+20], cx
  00122	5f		 pop	 edi
  00123	5e		 pop	 esi
  00124	5b		 pop	 ebx

; 876  : 	}
; 877  : 
; 878  : 	return bResult;
; 879  : }

  00125	5d		 pop	 ebp
  00126	c2 08 00	 ret	 8
$LN39@CalcItemEf:

; 774  : 	{
; 775  : 		case JEWELOFHARMONY_ITEM_TYPE_WEAPON:
; 776  : 			switch (iItemOptionType)

  00129	8d 53 ff	 lea	 edx, DWORD PTR [ebx-1]
  0012c	83 fa 09	 cmp	 edx, 9
  0012f	77 79		 ja	 SHORT $LN26@CalcItemEf
  00131	ff 24 95 00 00
	00 00		 jmp	 DWORD PTR $LN52@CalcItemEf[edx*4]
$LN36@CalcItemEf:

; 777  : 			{
; 778  : 				case AT_JEWELOFHARMONY_WEAPON_IMPROVE_MINATTACKDAMAGE:
; 779  : 					pItemEffect->HJOpAddMinAttackDamage += iItemEffectValue;

  00138	8b 55 0c	 mov	 edx, DWORD PTR _pItemEffect$[ebp]
  0013b	66 01 0a	 add	 WORD PTR [edx], cx
  0013e	5f		 pop	 edi
  0013f	5e		 pop	 esi
  00140	5b		 pop	 ebx

; 876  : 	}
; 877  : 
; 878  : 	return bResult;
; 879  : }

  00141	5d		 pop	 ebp
  00142	c2 08 00	 ret	 8
$LN35@CalcItemEf:

; 780  : 					break;
; 781  : 				case AT_JEWELOFHARMONY_WEAPON_IMPROVE_MAXATTACKDAMAGE:
; 782  : 					pItemEffect->HJOpAddMaxAttackDamage += iItemEffectValue;

  00145	8b 55 0c	 mov	 edx, DWORD PTR _pItemEffect$[ebp]
  00148	66 01 4a 02	 add	 WORD PTR [edx+2], cx
  0014c	5f		 pop	 edi
  0014d	5e		 pop	 esi
  0014e	5b		 pop	 ebx

; 876  : 	}
; 877  : 
; 878  : 	return bResult;
; 879  : }

  0014f	5d		 pop	 ebp
  00150	c2 08 00	 ret	 8
$LN32@CalcItemEf:

; 783  : 					break;
; 784  : 				case AT_JEWELOFHARMONY_WEAPON_DECREASE_REQUIRE_STR:
; 785  : 					break;
; 786  : 				case AT_JEWELOFHARMONY_WEAPON_DECREASE_REQUIRE_DEX:
; 787  : 					break;
; 788  : 				case AT_JEWELOFHARMONY_WEAPON_IMPROVE_ATTACKDAMAGE_BOTH:
; 789  : 					pItemEffect->HJOpAddMinAttackDamage += iItemEffectValue;

  00153	8b 55 0c	 mov	 edx, DWORD PTR _pItemEffect$[ebp]
  00156	66 01 0a	 add	 WORD PTR [edx], cx

; 790  : 					pItemEffect->HJOpAddMaxAttackDamage += iItemEffectValue;

  00159	66 01 4a 02	 add	 WORD PTR [edx+2], cx
  0015d	5f		 pop	 edi
  0015e	5e		 pop	 esi
  0015f	5b		 pop	 ebx

; 876  : 	}
; 877  : 
; 878  : 	return bResult;
; 879  : }

  00160	5d		 pop	 ebp
  00161	c2 08 00	 ret	 8
$LN31@CalcItemEf:

; 791  : 					break;
; 792  : 				case AT_JEWELOFHARMONY_WEAPON_IMPROVE_CRITICALDAMAGE:
; 793  : 					pItemEffect->HJOpAddCriticalDamage += iItemEffectValue;

  00164	8b 55 0c	 mov	 edx, DWORD PTR _pItemEffect$[ebp]
  00167	66 01 4a 0a	 add	 WORD PTR [edx+10], cx
  0016b	5f		 pop	 edi
  0016c	5e		 pop	 esi
  0016d	5b		 pop	 ebx

; 876  : 	}
; 877  : 
; 878  : 	return bResult;
; 879  : }

  0016e	5d		 pop	 ebp
  0016f	c2 08 00	 ret	 8
$LN30@CalcItemEf:

; 794  : 					break;
; 795  : 				case AT_JEWELOFHARMONY_WEAPON_IMPROVE_SKILLDAMAGE:
; 796  : 					pItemEffect->HJOpAddSkillAttack += iItemEffectValue;

  00172	8b 55 0c	 mov	 edx, DWORD PTR _pItemEffect$[ebp]
  00175	66 01 4a 0c	 add	 WORD PTR [edx+12], cx
  00179	5f		 pop	 edi
  0017a	5e		 pop	 esi
  0017b	5b		 pop	 ebx

; 876  : 	}
; 877  : 
; 878  : 	return bResult;
; 879  : }

  0017c	5d		 pop	 ebp
  0017d	c2 08 00	 ret	 8
$LN29@CalcItemEf:

; 797  : 					break;
; 798  : 				case AT_JEWELOFHARMONY_WEAPON_IMPROVE_ATTACKSUCCESRATE_PVP:
; 799  : 					pItemEffect->HJOpAddAttackSuccessRatePVP += iItemEffectValue;

  00180	8b 55 0c	 mov	 edx, DWORD PTR _pItemEffect$[ebp]
  00183	66 01 4a 0e	 add	 WORD PTR [edx+14], cx
  00187	5f		 pop	 edi
  00188	5e		 pop	 esi
  00189	5b		 pop	 ebx

; 876  : 	}
; 877  : 
; 878  : 	return bResult;
; 879  : }

  0018a	5d		 pop	 ebp
  0018b	c2 08 00	 ret	 8
$LN28@CalcItemEf:

; 800  : 					break;
; 801  : 				case AT_JEWELOFHARMONY_WEAPON_DECREASE_SD_RATE:
; 802  : 					pItemEffect->HJOpDecreaseSDRate += iItemEffectValue;

  0018e	8b 55 0c	 mov	 edx, DWORD PTR _pItemEffect$[ebp]
  00191	66 01 4a 10	 add	 WORD PTR [edx+16], cx
  00195	5f		 pop	 edi
  00196	5e		 pop	 esi
  00197	5b		 pop	 ebx

; 876  : 	}
; 877  : 
; 878  : 	return bResult;
; 879  : }

  00198	5d		 pop	 ebp
  00199	c2 08 00	 ret	 8
$LN27@CalcItemEf:

; 803  : 					break;
; 804  : 				case AT_JEWELOFHARMONY_WEAPON_IMPROVE_IGNORE_SD_RATE:
; 805  : 					pItemEffect->HJOpAddIgnoreSDRate += iItemEffectValue;

  0019c	8b 55 0c	 mov	 edx, DWORD PTR _pItemEffect$[ebp]
  0019f	66 01 4a 12	 add	 WORD PTR [edx+18], cx
  001a3	5f		 pop	 edi
  001a4	5e		 pop	 esi
  001a5	5b		 pop	 ebx

; 876  : 	}
; 877  : 
; 878  : 	return bResult;
; 879  : }

  001a6	5d		 pop	 ebp
  001a7	c2 08 00	 ret	 8
$LN26@CalcItemEf:

; 806  : 					break;
; 807  : 				default:
; 808  : 					bResult = FALSE;

  001aa	33 c0		 xor	 eax, eax
$LN46@CalcItemEf:
  001ac	5f		 pop	 edi
  001ad	5e		 pop	 esi
  001ae	5b		 pop	 ebx

; 876  : 	}
; 877  : 
; 878  : 	return bResult;
; 879  : }

  001af	5d		 pop	 ebp
  001b0	c2 08 00	 ret	 8
  001b3	90		 npad	 1
$LN50@CalcItemEf:
  001b4	00 00 00 00	 DD	 $LN10@CalcItemEf
  001b8	00 00 00 00	 DD	 $LN9@CalcItemEf
  001bc	00 00 00 00	 DD	 $LN8@CalcItemEf
  001c0	00 00 00 00	 DD	 $LN7@CalcItemEf
  001c4	00 00 00 00	 DD	 $LN6@CalcItemEf
  001c8	00 00 00 00	 DD	 $LN5@CalcItemEf
  001cc	00 00 00 00	 DD	 $LN4@CalcItemEf
  001d0	00 00 00 00	 DD	 $LN3@CalcItemEf
$LN51@CalcItemEf:
  001d4	00 00 00 00	 DD	 $LN22@CalcItemEf
  001d8	00 00 00 00	 DD	 $LN46@CalcItemEf
  001dc	00 00 00 00	 DD	 $LN46@CalcItemEf
  001e0	00 00 00 00	 DD	 $LN30@CalcItemEf
  001e4	00 00 00 00	 DD	 $LN31@CalcItemEf
  001e8	00 00 00 00	 DD	 $LN28@CalcItemEf
  001ec	00 00 00 00	 DD	 $LN29@CalcItemEf
  001f0	00 00 00 00	 DD	 $LN27@CalcItemEf
$LN52@CalcItemEf:
  001f4	00 00 00 00	 DD	 $LN36@CalcItemEf
  001f8	00 00 00 00	 DD	 $LN35@CalcItemEf
  001fc	00 00 00 00	 DD	 $LN46@CalcItemEf
  00200	00 00 00 00	 DD	 $LN46@CalcItemEf
  00204	00 00 00 00	 DD	 $LN32@CalcItemEf
  00208	00 00 00 00	 DD	 $LN31@CalcItemEf
  0020c	00 00 00 00	 DD	 $LN30@CalcItemEf
  00210	00 00 00 00	 DD	 $LN29@CalcItemEf
  00214	00 00 00 00	 DD	 $LN28@CalcItemEf
  00218	00 00 00 00	 DD	 $LN27@CalcItemEf
?_CalcItemEffectValue@CJewelOfHarmonySystem@@QAEHPAVCItem@@PAUJEWELOFHARMONY_ITEM_EFFECT@@@Z ENDP ; CJewelOfHarmonySystem::_CalcItemEffectValue
_TEXT	ENDS
PUBLIC	?InitEffectValue@CJewelOfHarmonySystem@@QAEXPAUJEWELOFHARMONY_ITEM_EFFECT@@@Z ; CJewelOfHarmonySystem::InitEffectValue
; Function compile flags: /Ogtp
;	COMDAT ?InitEffectValue@CJewelOfHarmonySystem@@QAEXPAUJEWELOFHARMONY_ITEM_EFFECT@@@Z
_TEXT	SEGMENT
_pItemEffect$ = 8					; size = 4
?InitEffectValue@CJewelOfHarmonySystem@@QAEXPAUJEWELOFHARMONY_ITEM_EFFECT@@@Z PROC ; CJewelOfHarmonySystem::InitEffectValue, COMDAT
; _this$ = ecx

; 884  : {

  00000	55		 push	 ebp
  00001	8b ec		 mov	 ebp, esp

; 885  : 	pItemEffect->HJOpAddMinAttackDamage = 0;

  00003	8b 45 08	 mov	 eax, DWORD PTR _pItemEffect$[ebp]
  00006	33 c9		 xor	 ecx, ecx
  00008	89 08		 mov	 DWORD PTR [eax], ecx

; 886  : 	pItemEffect->HJOpAddMaxAttackDamage = 0;
; 887  : 	pItemEffect->HJOpRequireStr = 0;

  0000a	89 48 04	 mov	 DWORD PTR [eax+4], ecx

; 888  : 	pItemEffect->HJOpRequireDex = 0;
; 889  : 	pItemEffect->HJOpAddAttackDamage = 0;

  0000d	89 48 08	 mov	 DWORD PTR [eax+8], ecx

; 890  : 	pItemEffect->HJOpAddCriticalDamage = 0;
; 891  : 	pItemEffect->HJOpAddSkillAttack = 0;

  00010	89 48 0c	 mov	 DWORD PTR [eax+12], ecx

; 892  : 	pItemEffect->HJOpAddAttackSuccessRatePVP = 0;
; 893  : 	pItemEffect->HJOpDecreaseSDRate = 0;

  00013	89 48 10	 mov	 DWORD PTR [eax+16], ecx

; 894  : 	pItemEffect->HJOpAddIgnoreSDRate = 0;
; 895  : 	pItemEffect->HJOpAddMagicPower = 0;

  00016	89 48 14	 mov	 DWORD PTR [eax+20], ecx

; 896  : 	pItemEffect->HJOpAddDefense = 0;
; 897  : 	pItemEffect->HJOpAddMaxAG = 0;

  00019	89 48 18	 mov	 DWORD PTR [eax+24], ecx

; 898  : 	pItemEffect->HJOpAddMaxHP = 0;
; 899  : 	pItemEffect->HJOpAddRefillHP = 0;

  0001c	89 48 1c	 mov	 DWORD PTR [eax+28], ecx

; 900  : 	pItemEffect->HJOpAddRefillMP = 0;
; 901  : 	pItemEffect->HJOpAddDefenseSuccessRatePvP = 0;

  0001f	89 48 20	 mov	 DWORD PTR [eax+32], ecx

; 902  : 	pItemEffect->HJOpAddDamageDecrease = 0;
; 903  : 	pItemEffect->HJOpAddSDRate = 0;

  00022	66 89 48 24	 mov	 WORD PTR [eax+36], cx

; 904  : }

  00026	5d		 pop	 ebp
  00027	c2 04 00	 ret	 4
?InitEffectValue@CJewelOfHarmonySystem@@QAEXPAUJEWELOFHARMONY_ITEM_EFFECT@@@Z ENDP ; CJewelOfHarmonySystem::InitEffectValue
_TEXT	ENDS
PUBLIC	?_GetZenForRestoreItem@CJewelOfHarmonySystem@@QAEHPAVCItem@@@Z ; CJewelOfHarmonySystem::_GetZenForRestoreItem
; Function compile flags: /Ogtp
;	COMDAT ?_GetZenForRestoreItem@CJewelOfHarmonySystem@@QAEHPAVCItem@@@Z
_TEXT	SEGMENT
_pItem$ = 8						; size = 4
?_GetZenForRestoreItem@CJewelOfHarmonySystem@@QAEHPAVCItem@@@Z PROC ; CJewelOfHarmonySystem::_GetZenForRestoreItem, COMDAT
; _this$ = ecx

; 1177 : {

  00000	55		 push	 ebp
  00001	8b ec		 mov	 ebp, esp
  00003	56		 push	 esi
  00004	57		 push	 edi

; 1178 : 	int iItemType = this->_GetItemType(pItem);

  00005	8b 7d 08	 mov	 edi, DWORD PTR _pItem$[ebp]
  00008	57		 push	 edi
  00009	8b f1		 mov	 esi, ecx
  0000b	e8 00 00 00 00	 call	 ?_GetItemType@CJewelOfHarmonySystem@@QAEHPAVCItem@@@Z ; CJewelOfHarmonySystem::_GetItemType
  00010	8b d0		 mov	 edx, eax

; 1179 : 
; 1180 : 	if ( iItemType == JEWELOFHARMONY_ITEM_TYPE_NULL )

  00012	85 d2		 test	 edx, edx
  00014	75 09		 jne	 SHORT $LN3@GetZenForR

; 1181 : 		return -1;

  00016	5f		 pop	 edi
  00017	83 c8 ff	 or	 eax, -1
  0001a	5e		 pop	 esi

; 1196 : }

  0001b	5d		 pop	 ebp
  0001c	c2 04 00	 ret	 4
$LN3@GetZenForR:
  0001f	53		 push	 ebx

; 1182 : 
; 1183 : 	int iItemOptionType = AT_JEWELOFHARMONY_NOT_STRENGTHEN_ITEM;
; 1184 : 	iItemOptionType = this->GetItemStrengthenOption(pItem);

  00020	57		 push	 edi
  00021	8b ce		 mov	 ecx, esi
  00023	e8 00 00 00 00	 call	 ?GetItemStrengthenOption@CJewelOfHarmonySystem@@QAEEPAVCItem@@@Z ; CJewelOfHarmonySystem::GetItemStrengthenOption
  00028	0f b6 d8	 movzx	 ebx, al

; 1185 : 
; 1186 : 	if ( iItemOptionType == AT_JEWELOFHARMONY_NOT_STRENGTHEN_ITEM )

  0002b	84 c0		 test	 al, al

; 1187 : 		return -1;

  0002d	74 0e		 je	 SHORT $LN7@GetZenForR

; 1188 : 
; 1189 : 	int iItemOptionLevel = this->_GetItemOptionLevel(pItem);

  0002f	57		 push	 edi
  00030	e8 00 00 00 00	 call	 ?_GetItemOptionLevel@CJewelOfHarmonySystem@@QAEEPAVCItem@@@Z ; CJewelOfHarmonySystem::_GetItemOptionLevel
  00035	0f b6 c0	 movzx	 eax, al

; 1190 : 
; 1191 : 	if ( iItemOptionLevel >= MAX_JOH_ITEM_OPTION )

  00038	83 f8 0e	 cmp	 eax, 14			; 0000000eH
  0003b	7c 0a		 jl	 SHORT $LN1@GetZenForR
$LN7@GetZenForR:
  0003d	5b		 pop	 ebx
  0003e	5f		 pop	 edi

; 1192 : 		return -1;

  0003f	83 c8 ff	 or	 eax, -1
  00042	5e		 pop	 esi

; 1196 : }

  00043	5d		 pop	 ebp
  00044	c2 04 00	 ret	 4
$LN1@GetZenForR:

; 1193 : 
; 1194 : 	int iZenForRestore = this->m_itemOption[iItemType][iItemOptionType].iZenForRestore[iItemOptionLevel];
; 1195 : 	return iZenForRestore;

  00047	c1 e2 04	 shl	 edx, 4
  0004a	03 d3		 add	 edx, ebx
  0004c	6b d2 53	 imul	 edx, 83			; 00000053H
  0004f	5b		 pop	 ebx
  00050	03 d0		 add	 edx, eax
  00052	8b 44 96 2c	 mov	 eax, DWORD PTR [esi+edx*4+44]
  00056	5f		 pop	 edi
  00057	5e		 pop	 esi

; 1196 : }

  00058	5d		 pop	 ebp
  00059	c2 04 00	 ret	 4
?_GetZenForRestoreItem@CJewelOfHarmonySystem@@QAEHPAVCItem@@@Z ENDP ; CJewelOfHarmonySystem::_GetZenForRestoreItem
_TEXT	ENDS
PUBLIC	??_C@_0IP@PGENAODE@?$FLJewelOfHarmony?$FN?$FLRestore?5Item?$FN?5R@ ; `string'
PUBLIC	??_C@_0CP@EJFBEOFL@?$FLJewelOfHarmony?$FN?$FLRestore?5Item?$FN?5?9@ ; `string'
PUBLIC	??_C@_0BN@GBDPAFPP@JewelOfHarmony?$FN?$FLRestore?5Item?$AA@ ; `string'
PUBLIC	_this$GSCopy$
PUBLIC	__$ArrayPad$
PUBLIC	?RestoreStrengthenItem@CJewelOfHarmonySystem@@QAEHPAUOBJECTSTRUCT@@@Z ; CJewelOfHarmonySystem::RestoreStrengthenItem
EXTRN	?GetName@CItem@@QAEPADXZ:PROC			; CItem::GetName
;	COMDAT ??_C@_0IP@PGENAODE@?$FLJewelOfHarmony?$FN?$FLRestore?5Item?$FN?5R@
CONST	SEGMENT
??_C@_0IP@PGENAODE@?$FLJewelOfHarmony?$FN?$FLRestore?5Item?$FN?5R@ DB '[J'
	DB	'ewelOfHarmony][Restore Item] Restore Strengthened Item [%s][%'
	DB	's] Name[%s] ItemType[%d] Serial[%u] OptionType[%d] OptionLeve'
	DB	'l [%d] Money %d-%d', 00H			; `string'
CONST	ENDS
;	COMDAT ??_C@_0CP@EJFBEOFL@?$FLJewelOfHarmony?$FN?$FLRestore?5Item?$FN?5?9@
CONST	SEGMENT
??_C@_0CP@EJFBEOFL@?$FLJewelOfHarmony?$FN?$FLRestore?5Item?$FN?5?9@ DB '['
	DB	'JewelOfHarmony][Restore Item] - Restore Start', 00H ; `string'
CONST	ENDS
;	COMDAT ??_C@_0BN@GBDPAFPP@JewelOfHarmony?$FN?$FLRestore?5Item?$AA@
CONST	SEGMENT
??_C@_0BN@GBDPAFPP@JewelOfHarmony?$FN?$FLRestore?5Item?$AA@ DB 'JewelOfHa'
	DB	'rmony][Restore Item', 00H			; `string'
; Function compile flags: /Ogtp
CONST	ENDS
;	COMDAT ?RestoreStrengthenItem@CJewelOfHarmonySystem@@QAEHPAUOBJECTSTRUCT@@@Z
_TEXT	SEGMENT
_iItemOption$ = -32					; size = 4
_this$GSCopy$ = -28					; size = 4
_iItemOptionLevel$ = -24				; size = 4
_iStrengtenItemCount$ = -24				; size = 4
_pMsg$ = -20						; size = 16
__$ArrayPad$ = -4					; size = 4
_lpObj$ = 8						; size = 4
?RestoreStrengthenItem@CJewelOfHarmonySystem@@QAEHPAUOBJECTSTRUCT@@@Z PROC ; CJewelOfHarmonySystem::RestoreStrengthenItem, COMDAT
; _this$ = ecx

; 1200 : {

  00000	55		 push	 ebp
  00001	8b ec		 mov	 ebp, esp
  00003	83 ec 20	 sub	 esp, 32			; 00000020H
  00006	a1 00 00 00 00	 mov	 eax, DWORD PTR ___security_cookie
  0000b	33 c5		 xor	 eax, ebp
  0000d	89 45 fc	 mov	 DWORD PTR __$ArrayPad$[ebp], eax
  00010	56		 push	 esi
  00011	8b 75 08	 mov	 esi, DWORD PTR _lpObj$[ebp]
  00014	57		 push	 edi

; 1201 : 	if ( this->m_bSystemRestoreStrengthen != TRUE )

  00015	bf 01 00 00 00	 mov	 edi, 1

; 1266 : 	}
; 1267 : 
; 1268 : 	lpObj->Money -= JEWEL_OF_HARMONY_RETORE_NEEDZEN;

  0001a	89 4d e4	 mov	 DWORD PTR _this$GSCopy$[ebp], ecx
  0001d	39 b9 20 53 00
	00		 cmp	 DWORD PTR [ecx+21280], edi
  00023	74 30		 je	 SHORT $LN11@RestoreStr

; 1202 : 	{
; 1203 : 		GCServerMsgStringSend(lMsg.Get(MSGGET(13,54)), lpObj->m_Index, 1);

  00025	8b 06		 mov	 eax, DWORD PTR [esi]
  00027	57		 push	 edi
  00028	50		 push	 eax
  00029	68 36 0d 00 00	 push	 3382			; 00000d36H
  0002e	b9 00 00 00 00	 mov	 ecx, OFFSET ?lMsg@@3VCMsg@@A ; lMsg
  00033	e8 00 00 00 00	 call	 ?Get@CMsg@@QAEPADH@Z	; CMsg::Get
  00038	50		 push	 eax
  00039	e8 00 00 00 00	 call	 ?GCServerMsgStringSend@@YAXPADHE@Z ; GCServerMsgStringSend
  0003e	83 c4 0c	 add	 esp, 12			; 0000000cH

; 1204 : 		return TRUE;

  00041	8b c7		 mov	 eax, edi
  00043	5f		 pop	 edi
  00044	5e		 pop	 esi

; 1285 : }

  00045	8b 4d fc	 mov	 ecx, DWORD PTR __$ArrayPad$[ebp]
  00048	33 cd		 xor	 ecx, ebp
  0004a	e8 00 00 00 00	 call	 @__security_check_cookie@4
  0004f	8b e5		 mov	 esp, ebp
  00051	5d		 pop	 ebp
  00052	c2 04 00	 ret	 4
$LN11@RestoreStr:
  00055	53		 push	 ebx

; 1205 : 	}
; 1206 : 
; 1207 : 	lpObj->ChaosLock = TRUE;
; 1208 : 
; 1209 : 	PMSG_CHAOSMIXRESULT pMsg;
; 1210 : 
; 1211 : 	PHeadSetB((LPBYTE)&pMsg, 0x86, sizeof(pMsg));

  00056	6a 10		 push	 16			; 00000010H
  00058	8d 4d ec	 lea	 ecx, DWORD PTR _pMsg$[ebp]
  0005b	68 86 00 00 00	 push	 134			; 00000086H
  00060	51		 push	 ecx
  00061	89 be 88 0e 00
	00		 mov	 DWORD PTR [esi+3720], edi
  00067	e8 00 00 00 00	 call	 ?PHeadSetB@@YAXPAEEH@Z	; PHeadSetB

; 1212 : 	pMsg.Result = 0;
; 1213 : 	int iStrengtenItemCount = 0;

  0006c	33 db		 xor	 ebx, ebx
  0006e	83 c4 0c	 add	 esp, 12			; 0000000cH
  00071	c6 45 ef 00	 mov	 BYTE PTR _pMsg$[ebp+3], 0
  00075	89 5d e8	 mov	 DWORD PTR _iStrengtenItemCount$[ebp], ebx

; 1214 : 	int iInvalidItemCount = 0;
; 1215 : 	CItem * pItem = NULL;

  00078	33 ff		 xor	 edi, edi
  0007a	8d 9b 00 00 00
	00		 npad	 6
$LL10@RestoreStr:

; 1218 : 	{
; 1219 : 		if ( lpObj->pChaosBox[n].IsItem() == TRUE )

  00080	8b 8e 78 0e 00
	00		 mov	 ecx, DWORD PTR [esi+3704]
  00086	03 cb		 add	 ecx, ebx
  00088	e8 00 00 00 00	 call	 ?IsItem@CItem@@QAEHXZ	; CItem::IsItem
  0008d	83 f8 01	 cmp	 eax, 1
  00090	75 1b		 jne	 SHORT $LN9@RestoreStr

; 1220 : 		{
; 1221 : 			if ( this->IsStrengthenByJewelOfHarmony(&lpObj->pChaosBox[n]) == TRUE )

  00092	8b 96 78 0e 00
	00		 mov	 edx, DWORD PTR [esi+3704]
  00098	8b 4d e4	 mov	 ecx, DWORD PTR _this$GSCopy$[ebp]
  0009b	03 d3		 add	 edx, ebx
  0009d	52		 push	 edx
  0009e	e8 00 00 00 00	 call	 ?IsStrengthenByJewelOfHarmony@CJewelOfHarmonySystem@@QAEHPAVCItem@@@Z ; CJewelOfHarmonySystem::IsStrengthenByJewelOfHarmony
  000a3	83 f8 01	 cmp	 eax, 1
  000a6	75 05		 jne	 SHORT $LN9@RestoreStr

; 1222 : 			{
; 1223 : 				iStrengtenItemCount++;

  000a8	ff 45 e8	 inc	 DWORD PTR _iStrengtenItemCount$[ebp]

; 1224 : 				pItem = &lpObj->pChaosBox[n];

  000ab	8b fa		 mov	 edi, edx
$LN9@RestoreStr:

; 1216 : 
; 1217 : 	for ( int n=0;n<CHAOS_BOX_SIZE;n++)

  000ad	81 c3 d4 00 00
	00		 add	 ebx, 212		; 000000d4H
  000b3	81 fb 80 1a 00
	00		 cmp	 ebx, 6784		; 00001a80H
  000b9	7c c5		 jl	 SHORT $LL10@RestoreStr

; 1225 : 			}
; 1226 : 		}
; 1227 : 	}
; 1228 : 
; 1229 : 	if ( iStrengtenItemCount != 1 )

  000bb	83 7d e8 01	 cmp	 DWORD PTR _iStrengtenItemCount$[ebp], 1
  000bf	74 1b		 je	 SHORT $LN5@RestoreStr
$LN20@RestoreStr:

; 1230 : 	{
; 1231 : 		DataSend(lpObj->m_Index, (LPBYTE)&pMsg, pMsg.h.size);

  000c1	0f b6 45 ed	 movzx	 eax, BYTE PTR _pMsg$[ebp+1]
  000c5	8b 16		 mov	 edx, DWORD PTR [esi]
  000c7	50		 push	 eax
  000c8	8d 4d ec	 lea	 ecx, DWORD PTR _pMsg$[ebp]
  000cb	51		 push	 ecx
  000cc	52		 push	 edx
  000cd	e8 00 00 00 00	 call	 ?DataSend@@YAHHPAEK@Z	; DataSend
  000d2	83 c4 0c	 add	 esp, 12			; 0000000cH

; 1232 : 		lpObj->ChaosLock = FALSE;
; 1233 : 
; 1234 : 		return FALSE;

  000d5	33 c0		 xor	 eax, eax
  000d7	e9 13 01 00 00	 jmp	 $LN19@RestoreStr
$LN5@RestoreStr:

; 1235 : 	}
; 1236 : 	
; 1237 : 	int iItemOption = this->GetItemStrengthenOption(pItem);

  000dc	8b 4d e4	 mov	 ecx, DWORD PTR _this$GSCopy$[ebp]
  000df	57		 push	 edi
  000e0	e8 00 00 00 00	 call	 ?GetItemStrengthenOption@CJewelOfHarmonySystem@@QAEEPAVCItem@@@Z ; CJewelOfHarmonySystem::GetItemStrengthenOption
  000e5	0f b6 c0	 movzx	 eax, al

; 1238 : 	int iItemOptionLevel = this->_GetItemOptionLevel(pItem);

  000e8	57		 push	 edi
  000e9	89 45 e0	 mov	 DWORD PTR _iItemOption$[ebp], eax
  000ec	e8 00 00 00 00	 call	 ?_GetItemOptionLevel@CJewelOfHarmonySystem@@QAEEPAVCItem@@@Z ; CJewelOfHarmonySystem::_GetItemOptionLevel
  000f1	0f b6 d0	 movzx	 edx, al

; 1239 : 	int JEWEL_OF_HARMONY_RETORE_NEEDZEN = this->_GetZenForRestoreItem(pItem);

  000f4	57		 push	 edi
  000f5	89 55 e8	 mov	 DWORD PTR _iItemOptionLevel$[ebp], edx
  000f8	e8 00 00 00 00	 call	 ?_GetZenForRestoreItem@CJewelOfHarmonySystem@@QAEHPAVCItem@@@Z ; CJewelOfHarmonySystem::_GetZenForRestoreItem
  000fd	8b d8		 mov	 ebx, eax

; 1240 : 
; 1241 : 	if ( JEWEL_OF_HARMONY_RETORE_NEEDZEN < 0 ) 

  000ff	85 db		 test	 ebx, ebx

; 1242 : 	{
; 1243 : 		DataSend(lpObj->m_Index, (LPBYTE)&pMsg, pMsg.h.size);
; 1244 : 		lpObj->ChaosLock = FALSE;
; 1245 : 
; 1246 : 		return FALSE;

  00101	78 be		 js	 SHORT $LN20@RestoreStr

; 1247 : 	}
; 1248 : 
; 1249 : 	int iChaosTaxMoney = JEWEL_OF_HARMONY_RETORE_NEEDZEN * g_CastleSiegeSync.GetTaxRateChaos(lpObj->m_Index) / 100;

  00103	8b 06		 mov	 eax, DWORD PTR [esi]
  00105	50		 push	 eax
  00106	b9 00 00 00 00	 mov	 ecx, OFFSET ?g_CastleSiegeSync@@3VCCastleSiegeSync@@A ; g_CastleSiegeSync
  0010b	e8 00 00 00 00	 call	 ?GetTaxRateChaos@CCastleSiegeSync@@QAEHH@Z ; CCastleSiegeSync::GetTaxRateChaos
  00110	8b c8		 mov	 ecx, eax
  00112	0f af cb	 imul	 ecx, ebx
  00115	b8 1f 85 eb 51	 mov	 eax, 1374389535		; 51eb851fH
  0011a	f7 e9		 imul	 ecx
  0011c	c1 fa 05	 sar	 edx, 5
  0011f	8b ca		 mov	 ecx, edx
  00121	c1 e9 1f	 shr	 ecx, 31			; 0000001fH
  00124	03 ca		 add	 ecx, edx

; 1250 : 
; 1251 : 	if ( iChaosTaxMoney < 0 )

  00126	79 02		 jns	 SHORT $LN16@RestoreStr

; 1252 : 		iChaosTaxMoney = 0;

  00128	33 c9		 xor	 ecx, ecx
$LN16@RestoreStr:

; 1253 : 
; 1254 : 	JEWEL_OF_HARMONY_RETORE_NEEDZEN += iChaosTaxMoney;

  0012a	03 d9		 add	 ebx, ecx

; 1255 : 
; 1256 : 	if ( JEWEL_OF_HARMONY_RETORE_NEEDZEN < 0 )

  0012c	79 02		 jns	 SHORT $LN2@RestoreStr

; 1257 : 		JEWEL_OF_HARMONY_RETORE_NEEDZEN = 0;

  0012e	33 db		 xor	 ebx, ebx
$LN2@RestoreStr:

; 1258 : 
; 1259 : 	if ( lpObj->Money < JEWEL_OF_HARMONY_RETORE_NEEDZEN )

  00130	8b 86 f0 00 00
	00		 mov	 eax, DWORD PTR [esi+240]
  00136	3b c3		 cmp	 eax, ebx
  00138	7d 1f		 jge	 SHORT $LN1@RestoreStr

; 1260 : 	{
; 1261 : 		pMsg.Result = 2;
; 1262 : 		DataSend(lpObj->m_Index, (LPBYTE)&pMsg, pMsg.h.size);

  0013a	0f b6 4d ed	 movzx	 ecx, BYTE PTR _pMsg$[ebp+1]
  0013e	8b 06		 mov	 eax, DWORD PTR [esi]
  00140	51		 push	 ecx
  00141	8d 55 ec	 lea	 edx, DWORD PTR _pMsg$[ebp]
  00144	52		 push	 edx
  00145	50		 push	 eax
  00146	c6 45 ef 02	 mov	 BYTE PTR _pMsg$[ebp+3], 2
  0014a	e8 00 00 00 00	 call	 ?DataSend@@YAHHPAEK@Z	; DataSend
  0014f	83 c4 0c	 add	 esp, 12			; 0000000cH

; 1263 : 		lpObj->ChaosLock = FALSE;
; 1264 : 
; 1265 : 		return FALSE;

  00152	33 c0		 xor	 eax, eax
  00154	e9 96 00 00 00	 jmp	 $LN19@RestoreStr
$LN1@RestoreStr:

; 1266 : 	}
; 1267 : 
; 1268 : 	lpObj->Money -= JEWEL_OF_HARMONY_RETORE_NEEDZEN;

  00159	2b c3		 sub	 eax, ebx

; 1269 : 	g_CastleSiegeSync.AddTributeMoney(iChaosTaxMoney);

  0015b	51		 push	 ecx
  0015c	b9 00 00 00 00	 mov	 ecx, OFFSET ?g_CastleSiegeSync@@3VCCastleSiegeSync@@A ; g_CastleSiegeSync
  00161	89 86 f0 00 00
	00		 mov	 DWORD PTR [esi+240], eax
  00167	e8 00 00 00 00	 call	 ?AddTributeMoney@CCastleSiegeSync@@QAEXH@Z ; CCastleSiegeSync::AddTributeMoney

; 1270 : 	GCMoneySend(lpObj->m_Index, lpObj->Money);

  0016c	8b 8e f0 00 00
	00		 mov	 ecx, DWORD PTR [esi+240]
  00172	8b 16		 mov	 edx, DWORD PTR [esi]
  00174	51		 push	 ecx
  00175	52		 push	 edx
  00176	e8 00 00 00 00	 call	 ?GCMoneySend@@YAXHK@Z	; GCMoneySend
  0017b	83 c4 08	 add	 esp, 8

; 1271 : 	g_MixSystem.LogChaosItem(lpObj, "JewelOfHarmony][Restore Item"); //LogChaosItem(lpObj, "JewelOfHarmony][Restore Item");

  0017e	68 00 00 00 00	 push	 OFFSET ??_C@_0BN@GBDPAFPP@JewelOfHarmony?$FN?$FLRestore?5Item?$AA@
  00183	56		 push	 esi
  00184	b9 00 00 00 00	 mov	 ecx, OFFSET ?g_MixSystem@@3VCMixSystem@@A ; g_MixSystem
  00189	e8 00 00 00 00	 call	 ?LogChaosItem@CMixSystem@@QAEXPAUOBJECTSTRUCT@@PAD@Z ; CMixSystem::LogChaosItem

; 1272 : 	LogAddTD("[JewelOfHarmony][Restore Item] - Restore Start");

  0018e	68 00 00 00 00	 push	 OFFSET ??_C@_0CP@EJFBEOFL@?$FLJewelOfHarmony?$FN?$FLRestore?5Item?$FN?5?9@
  00193	ff 15 00 00 00
	00		 call	 DWORD PTR ?LogAddTD@@3P6AXPADZZA ; LogAddTD

; 1273 : 
; 1274 : 	LogAddTD("[JewelOfHarmony][Restore Item] Restore Strengthened Item [%s][%s] Name[%s] ItemType[%d] Serial[%u] OptionType[%d] OptionLevel [%d] Money %d-%d",
; 1275 : 		lpObj->AccountID, lpObj->Name, pItem->GetName(), pItem->m_Type,
; 1276 : 		pItem->m_Number, iItemOption, iItemOptionLevel, 
; 1277 : 		lpObj->Money, JEWEL_OF_HARMONY_RETORE_NEEDZEN);

  00199	8b 86 f0 00 00
	00		 mov	 eax, DWORD PTR [esi+240]
  0019f	8b 4d e8	 mov	 ecx, DWORD PTR _iItemOptionLevel$[ebp]
  001a2	8b 55 e0	 mov	 edx, DWORD PTR _iItemOption$[ebp]
  001a5	83 c4 04	 add	 esp, 4
  001a8	53		 push	 ebx
  001a9	50		 push	 eax
  001aa	8b 07		 mov	 eax, DWORD PTR [edi]
  001ac	51		 push	 ecx
  001ad	0f bf 4f 06	 movsx	 ecx, WORD PTR [edi+6]
  001b1	52		 push	 edx
  001b2	50		 push	 eax
  001b3	51		 push	 ecx
  001b4	8b cf		 mov	 ecx, edi
  001b6	e8 00 00 00 00	 call	 ?GetName@CItem@@QAEPADXZ ; CItem::GetName
  001bb	50		 push	 eax
  001bc	8d 56 77	 lea	 edx, DWORD PTR [esi+119]
  001bf	52		 push	 edx
  001c0	8d 46 6c	 lea	 eax, DWORD PTR [esi+108]
  001c3	50		 push	 eax
  001c4	68 00 00 00 00	 push	 OFFSET ??_C@_0IP@PGENAODE@?$FLJewelOfHarmony?$FN?$FLRestore?5Item?$FN?5R@
  001c9	ff 15 00 00 00
	00		 call	 DWORD PTR ?LogAddTD@@3P6AXPADZZA ; LogAddTD

; 1278 : 
; 1279 : 	pItem->m_JewelOfHarmonyOption = 0;
; 1280 : 	GCUserChaosBoxSend(lpObj, 0);

  001cf	6a 00		 push	 0
  001d1	56		 push	 esi
  001d2	c6 87 c4 00 00
	00 00		 mov	 BYTE PTR [edi+196], 0
  001d9	e8 00 00 00 00	 call	 ?GCUserChaosBoxSend@@YAXPAUOBJECTSTRUCT@@H@Z ; GCUserChaosBoxSend

; 1281 : 	this->ShowStrengthenOption(pItem);

  001de	8b 4d e4	 mov	 ecx, DWORD PTR _this$GSCopy$[ebp]
  001e1	83 c4 30	 add	 esp, 48			; 00000030H
  001e4	57		 push	 edi
  001e5	e8 00 00 00 00	 call	 ?ShowStrengthenOption@CJewelOfHarmonySystem@@QAEEPAVCItem@@@Z ; CJewelOfHarmonySystem::ShowStrengthenOption

; 1282 : 	lpObj->ChaosLock = FALSE;
; 1283 : 
; 1284 : 	return TRUE;

  001ea	b8 01 00 00 00	 mov	 eax, 1
$LN19@RestoreStr:

; 1285 : }

  001ef	8b 4d fc	 mov	 ecx, DWORD PTR __$ArrayPad$[ebp]
  001f2	5b		 pop	 ebx
  001f3	5f		 pop	 edi
  001f4	c7 86 88 0e 00
	00 00 00 00 00	 mov	 DWORD PTR [esi+3720], 0
  001fe	33 cd		 xor	 ecx, ebp
  00200	5e		 pop	 esi
  00201	e8 00 00 00 00	 call	 @__security_check_cookie@4
  00206	8b e5		 mov	 esp, ebp
  00208	5d		 pop	 ebp
  00209	c2 04 00	 ret	 4
?RestoreStrengthenItem@CJewelOfHarmonySystem@@QAEHPAUOBJECTSTRUCT@@@Z ENDP ; CJewelOfHarmonySystem::RestoreStrengthenItem
_TEXT	ENDS
PUBLIC	??_C@_0DM@ODMCBHME@?$FLJewelOfHarmony?$FN?$FL?$CFs?$FN?$FL?$CFs?$FN?5Open?5Ch@ ; `string'
PUBLIC	??_C@_0CI@BLEFGBBC@?$FLJewelOfHarmony?$FN?$FL?$CFs?$FN?$FL?$CFs?$FN?5Open?5Ch@ ; `string'
PUBLIC	??_C@_0ED@FEDKDEDK@?$FLJewelOfHarmony?$FN?$FL?$CFs?$FN?$FL?$CFs?$FN?5is?5Alre@ ; `string'
PUBLIC	__$ArrayPad$
PUBLIC	?NpcJewelOfHarmony@CJewelOfHarmonySystem@@QAEHPAUOBJECTSTRUCT@@0@Z ; CJewelOfHarmonySystem::NpcJewelOfHarmony
EXTRN	?GCAnsCsMapSvrTaxInfo@@YAXHEE@Z:PROC		; GCAnsCsMapSvrTaxInfo
EXTRN	?gObjWarehouseTextSave@@YAXPAUOBJECTSTRUCT@@@Z:PROC ; gObjWarehouseTextSave
EXTRN	?gObjItemTextSave@@YAXPAUOBJECTSTRUCT@@@Z:PROC	; gObjItemTextSave
EXTRN	?gObjInventoryTrans@@YAHH@Z:PROC		; gObjInventoryTrans
EXTRN	?LogAdd@@3P6AXPADZZA:DWORD			; LogAdd
EXTRN	?bCanChaosBox@@3HA:DWORD			; bCanChaosBox
EXTRN	?ChatTargetSend@@YAXPAUOBJECTSTRUCT@@PADH@Z:PROC ; ChatTargetSend
;	COMDAT ??_C@_0DM@ODMCBHME@?$FLJewelOfHarmony?$FN?$FL?$CFs?$FN?$FL?$CFs?$FN?5Open?5Ch@
CONST	SEGMENT
??_C@_0DM@ODMCBHME@?$FLJewelOfHarmony?$FN?$FL?$CFs?$FN?$FL?$CFs?$FN?5Open?5Ch@ DB '['
	DB	'JewelOfHarmony][%s][%s] Open Chaos Box Failed NpcType [%d]', 00H ; `string'
CONST	ENDS
;	COMDAT ??_C@_0CI@BLEFGBBC@?$FLJewelOfHarmony?$FN?$FL?$CFs?$FN?$FL?$CFs?$FN?5Open?5Ch@
CONST	SEGMENT
??_C@_0CI@BLEFGBBC@?$FLJewelOfHarmony?$FN?$FL?$CFs?$FN?$FL?$CFs?$FN?5Open?5Ch@ DB '['
	DB	'JewelOfHarmony][%s][%s] Open Chaos Box', 00H ; `string'
CONST	ENDS
;	COMDAT ??_C@_0ED@FEDKDEDK@?$FLJewelOfHarmony?$FN?$FL?$CFs?$FN?$FL?$CFs?$FN?5is?5Alre@
CONST	SEGMENT
??_C@_0ED@FEDKDEDK@?$FLJewelOfHarmony?$FN?$FL?$CFs?$FN?$FL?$CFs?$FN?5is?5Alre@ DB '['
	DB	'JewelOfHarmony][%s][%s] is Already Opening PShop, ChaosBox Fa'
	DB	'iled', 00H					; `string'
; Function compile flags: /Ogtp
CONST	ENDS
;	COMDAT ?NpcJewelOfHarmony@CJewelOfHarmonySystem@@QAEHPAUOBJECTSTRUCT@@0@Z
_TEXT	SEGMENT
_pResult$ = -16						; size = 11
__$ArrayPad$ = -4					; size = 4
_lpNpc$ = 8						; size = 4
_lpObj$ = 12						; size = 4
?NpcJewelOfHarmony@CJewelOfHarmonySystem@@QAEHPAUOBJECTSTRUCT@@0@Z PROC ; CJewelOfHarmonySystem::NpcJewelOfHarmony, COMDAT
; _this$ = ecx

; 1289 : {

  00000	55		 push	 ebp
  00001	8b ec		 mov	 ebp, esp
  00003	83 ec 10	 sub	 esp, 16			; 00000010H
  00006	a1 00 00 00 00	 mov	 eax, DWORD PTR ___security_cookie
  0000b	33 c5		 xor	 eax, ebp
  0000d	89 45 fc	 mov	 DWORD PTR __$ArrayPad$[ebp], eax
  00010	56		 push	 esi
  00011	8b 75 0c	 mov	 esi, DWORD PTR _lpObj$[ebp]

; 1290 : 	if ( lpObj->m_IfState.use > 0 )

  00014	8b 96 1c 0e 00
	00		 mov	 edx, DWORD PTR [esi+3612]
  0001a	57		 push	 edi
  0001b	8b 7d 08	 mov	 edi, DWORD PTR _lpNpc$[ebp]
  0001e	f6 c2 03	 test	 dl, 3
  00021	76 17		 jbe	 SHORT $LN13@NpcJewelOf

; 1291 : 		return TRUE;

  00023	5f		 pop	 edi
  00024	b8 01 00 00 00	 mov	 eax, 1
  00029	5e		 pop	 esi

; 1377 : }

  0002a	8b 4d fc	 mov	 ecx, DWORD PTR __$ArrayPad$[ebp]
  0002d	33 cd		 xor	 ecx, ebp
  0002f	e8 00 00 00 00	 call	 @__security_check_cookie@4
  00034	8b e5		 mov	 esp, ebp
  00036	5d		 pop	 ebp
  00037	c2 08 00	 ret	 8
$LN13@NpcJewelOf:

; 1292 : 
; 1293 : 	PMSG_TALKRESULT pResult;
; 1294 : 
; 1295 : 	pResult.h.c = 0xC3;
; 1296 : 	pResult.h.headcode = 0x30;
; 1297 : 	pResult.h.size = sizeof(pResult);
; 1298 : 	
; 1299 : 	if ( lpNpc->Class == 368 )

  0003a	0f b7 87 b8 00
	00 00		 movzx	 eax, WORD PTR [edi+184]
  00041	53		 push	 ebx
  00042	bb 70 01 00 00	 mov	 ebx, 368		; 00000170H
  00047	c6 45 f0 c3	 mov	 BYTE PTR _pResult$[ebp], 195 ; 000000c3H
  0004b	66 c7 45 f1 0b
	30		 mov	 WORD PTR _pResult$[ebp+1], 12299 ; 0000300bH
  00051	66 3b c3	 cmp	 ax, bx
  00054	75 79		 jne	 SHORT $LN12@NpcJewelOf

; 1300 : 	{
; 1301 : 		pResult.result = 17;
; 1302 : 		pResult.level1 = this->m_iRatePuritySuccess;

  00056	8a 81 2c 53 00
	00		 mov	 al, BYTE PTR [ecx+21292]

; 1303 : 
; 1304 : 		if ( this->m_bSystemPrutiyJewel != TRUE )

  0005c	bb 01 00 00 00	 mov	 ebx, 1
  00061	c6 45 f3 11	 mov	 BYTE PTR _pResult$[ebp+3], 17 ; 00000011H
  00065	88 45 f4	 mov	 BYTE PTR _pResult$[ebp+4], al
  00068	39 99 18 53 00
	00		 cmp	 DWORD PTR [ecx+21272], ebx
  0006e	74 0e		 je	 SHORT $LN11@NpcJewelOf

; 1305 : 		{
; 1306 : 			GCServerMsgStringSend(lMsg.Get(MSGGET(13,50)), lpObj->m_Index, 1);

  00070	8b 0e		 mov	 ecx, DWORD PTR [esi]
  00072	53		 push	 ebx
  00073	51		 push	 ecx
  00074	68 32 0d 00 00	 push	 3378			; 00000d32H

; 1307 : 			return TRUE;

  00079	e9 38 01 00 00	 jmp	 $LN17@NpcJewelOf
$LN11@NpcJewelOf:

; 1308 : 		}
; 1309 : 
; 1310 : 		if ( !this->IsEnableToUsePuritySystem() )

  0007e	e8 00 00 00 00	 call	 ?IsEnableToUsePuritySystem@CJewelOfHarmonySystem@@QAEHXZ ; CJewelOfHarmonySystem::IsEnableToUsePuritySystem
  00083	85 c0		 test	 eax, eax
  00085	0f 85 f8 00 00
	00		 jne	 $LN4@NpcJewelOf

; 1311 : 		{
; 1312 : 			GCServerMsgStringSend(lMsg.Get(MSGGET(13,50)), lpObj->m_Index, 1);

  0008b	8b 16		 mov	 edx, DWORD PTR [esi]
  0008d	53		 push	 ebx
  0008e	52		 push	 edx
  0008f	68 32 0d 00 00	 push	 3378			; 00000d32H
  00094	b9 00 00 00 00	 mov	 ecx, OFFSET ?lMsg@@3VCMsg@@A ; lMsg
  00099	e8 00 00 00 00	 call	 ?Get@CMsg@@QAEPADH@Z	; CMsg::Get
  0009e	50		 push	 eax
  0009f	e8 00 00 00 00	 call	 ?GCServerMsgStringSend@@YAXPADHE@Z ; GCServerMsgStringSend

; 1313 : 			LogAddTD("[JewelOfHarmony][%s][%s] Not Purtiy Time ",
; 1314 : 				lpObj->AccountID, lpObj->Name);

  000a4	8d 46 77	 lea	 eax, DWORD PTR [esi+119]
  000a7	50		 push	 eax
  000a8	83 c6 6c	 add	 esi, 108		; 0000006cH
  000ab	56		 push	 esi
  000ac	68 00 00 00 00	 push	 OFFSET ??_C@_0CK@BCOFIMEK@?$FLJewelOfHarmony?$FN?$FL?$CFs?$FN?$FL?$CFs?$FN?5Not?5Pur@
  000b1	ff 15 00 00 00
	00		 call	 DWORD PTR ?LogAddTD@@3P6AXPADZZA ; LogAddTD
  000b7	83 c4 18	 add	 esp, 24			; 00000018H

; 1315 : 
; 1316 : 			return TRUE;

  000ba	8b c3		 mov	 eax, ebx
  000bc	5b		 pop	 ebx
  000bd	5f		 pop	 edi
  000be	5e		 pop	 esi

; 1377 : }

  000bf	8b 4d fc	 mov	 ecx, DWORD PTR __$ArrayPad$[ebp]
  000c2	33 cd		 xor	 ecx, ebp
  000c4	e8 00 00 00 00	 call	 @__security_check_cookie@4
  000c9	8b e5		 mov	 esp, ebp
  000cb	5d		 pop	 ebp
  000cc	c2 08 00	 ret	 8
$LN12@NpcJewelOf:

; 1317 : 		}
; 1318 : 	}
; 1319 : 	else  if ( lpNpc->Class == 369 )

  000cf	bb 71 01 00 00	 mov	 ebx, 369		; 00000171H
  000d4	66 3b c3	 cmp	 ax, bx
  000d7	75 5a		 jne	 SHORT $LN8@NpcJewelOf

; 1320 : 	{
; 1321 : 		pResult.result = 18;
; 1322 : 		pResult.level1 = this->m_iRateMixSmeltingStoneNor;

  000d9	0f b6 81 34 53
	00 00		 movzx	 eax, BYTE PTR [ecx+21300]
  000e0	88 45 f4	 mov	 BYTE PTR _pResult$[ebp+4], al

; 1323 : 		pResult.level2 = this->m_iRateMixSmeltingStoneExt;

  000e3	0f b6 81 38 53
	00 00		 movzx	 eax, BYTE PTR [ecx+21304]

; 1324 : 
; 1325 : 		if ( this->m_bSystemMixSmeltingStone != TRUE )

  000ea	bb 01 00 00 00	 mov	 ebx, 1
  000ef	c6 45 f3 12	 mov	 BYTE PTR _pResult$[ebp+3], 18 ; 00000012H
  000f3	88 45 f5	 mov	 BYTE PTR _pResult$[ebp+5], al
  000f6	39 99 1c 53 00
	00		 cmp	 DWORD PTR [ecx+21276], ebx
  000fc	0f 84 81 00 00
	00		 je	 $LN4@NpcJewelOf

; 1326 : 		{
; 1327 : 			ChatTargetSend(lpNpc, lMsg.Get(MSGGET(13,53)), lpObj->m_Index);

  00102	8b 0e		 mov	 ecx, DWORD PTR [esi]
  00104	51		 push	 ecx
  00105	68 35 0d 00 00	 push	 3381			; 00000d35H
  0010a	b9 00 00 00 00	 mov	 ecx, OFFSET ?lMsg@@3VCMsg@@A ; lMsg
  0010f	e8 00 00 00 00	 call	 ?Get@CMsg@@QAEPADH@Z	; CMsg::Get
  00114	50		 push	 eax
  00115	57		 push	 edi
  00116	e8 00 00 00 00	 call	 ?ChatTargetSend@@YAXPAUOBJECTSTRUCT@@PADH@Z ; ChatTargetSend
  0011b	83 c4 0c	 add	 esp, 12			; 0000000cH

; 1328 : 			return TRUE;

  0011e	8b c3		 mov	 eax, ebx
  00120	5b		 pop	 ebx
  00121	5f		 pop	 edi
  00122	5e		 pop	 esi

; 1377 : }

  00123	8b 4d fc	 mov	 ecx, DWORD PTR __$ArrayPad$[ebp]
  00126	33 cd		 xor	 ecx, ebp
  00128	e8 00 00 00 00	 call	 @__security_check_cookie@4
  0012d	8b e5		 mov	 esp, ebp
  0012f	5d		 pop	 ebp
  00130	c2 08 00	 ret	 8
$LN8@NpcJewelOf:

; 1329 : 		}
; 1330 : 	}
; 1331 : 	else if ( lpNpc->Class == 370 )

  00133	bb 72 01 00 00	 mov	 ebx, 370		; 00000172H
  00138	66 3b c3	 cmp	 ax, bx
  0013b	0f 85 1d 01 00
	00		 jne	 $LN5@NpcJewelOf

; 1332 : 	{
; 1333 : 		pResult.result = 19;
; 1334 : 
; 1335 : 		if ( this->m_bSystemRestoreStrengthen != TRUE )

  00141	bb 01 00 00 00	 mov	 ebx, 1
  00146	c6 45 f3 13	 mov	 BYTE PTR _pResult$[ebp+3], 19 ; 00000013H
  0014a	39 99 20 53 00
	00		 cmp	 DWORD PTR [ecx+21280], ebx
  00150	74 31		 je	 SHORT $LN4@NpcJewelOf

; 1336 : 		{
; 1337 : 			ChatTargetSend(lpNpc, lMsg.Get(MSGGET(13,54)), lpObj->m_Index);

  00152	8b 16		 mov	 edx, DWORD PTR [esi]
  00154	52		 push	 edx
  00155	68 36 0d 00 00	 push	 3382			; 00000d36H
  0015a	b9 00 00 00 00	 mov	 ecx, OFFSET ?lMsg@@3VCMsg@@A ; lMsg
  0015f	e8 00 00 00 00	 call	 ?Get@CMsg@@QAEPADH@Z	; CMsg::Get
  00164	50		 push	 eax
  00165	57		 push	 edi
  00166	e8 00 00 00 00	 call	 ?ChatTargetSend@@YAXPAUOBJECTSTRUCT@@PADH@Z ; ChatTargetSend
  0016b	83 c4 0c	 add	 esp, 12			; 0000000cH

; 1338 : 			return TRUE;

  0016e	8b c3		 mov	 eax, ebx
  00170	5b		 pop	 ebx
  00171	5f		 pop	 edi
  00172	5e		 pop	 esi

; 1377 : }

  00173	8b 4d fc	 mov	 ecx, DWORD PTR __$ArrayPad$[ebp]
  00176	33 cd		 xor	 ecx, ebp
  00178	e8 00 00 00 00	 call	 @__security_check_cookie@4
  0017d	8b e5		 mov	 esp, ebp
  0017f	5d		 pop	 ebp
  00180	c2 08 00	 ret	 8
$LN4@NpcJewelOf:

; 1345 : 
; 1346 : 		return TRUE;
; 1347 : 	}
; 1348 : 
; 1349 : 	if ( bCanChaosBox == TRUE )

  00183	39 1d 00 00 00
	00		 cmp	 DWORD PTR ?bCanChaosBox@@3HA, ebx ; bCanChaosBox
  00189	0f 85 ba 00 00
	00		 jne	 $LN2@NpcJewelOf

; 1350 : 	{
; 1351 : 		if ( lpObj->m_bPShopOpen == true )

  0018f	38 9e c4 0e 00
	00		 cmp	 BYTE PTR [esi+3780], bl
  00195	75 47		 jne	 SHORT $LN1@NpcJewelOf

; 1352 : 		{
; 1353 : 			LogAdd("[JewelOfHarmony][%s][%s] is Already Opening PShop, ChaosBox Failed",
; 1354 : 				lpObj->AccountID, lpObj->Name);

  00197	8d 46 77	 lea	 eax, DWORD PTR [esi+119]
  0019a	50		 push	 eax
  0019b	8d 4e 6c	 lea	 ecx, DWORD PTR [esi+108]
  0019e	51		 push	 ecx
  0019f	68 00 00 00 00	 push	 OFFSET ??_C@_0ED@FEDKDEDK@?$FLJewelOfHarmony?$FN?$FL?$CFs?$FN?$FL?$CFs?$FN?5is?5Alre@
  001a4	ff 15 00 00 00
	00		 call	 DWORD PTR ?LogAdd@@3P6AXPADZZA ; LogAdd

; 1355 : 
; 1356 : 			GCServerMsgStringSend(lMsg.Get(MSGGET(4,194)), lpObj->m_Index, 1);

  001aa	8b 16		 mov	 edx, DWORD PTR [esi]
  001ac	83 c4 0c	 add	 esp, 12			; 0000000cH
  001af	53		 push	 ebx
  001b0	52		 push	 edx
  001b1	68 c2 04 00 00	 push	 1218			; 000004c2H
$LN17@NpcJewelOf:
  001b6	b9 00 00 00 00	 mov	 ecx, OFFSET ?lMsg@@3VCMsg@@A ; lMsg
  001bb	e8 00 00 00 00	 call	 ?Get@CMsg@@QAEPADH@Z	; CMsg::Get
  001c0	50		 push	 eax
  001c1	e8 00 00 00 00	 call	 ?GCServerMsgStringSend@@YAXPADHE@Z ; GCServerMsgStringSend
  001c6	83 c4 0c	 add	 esp, 12			; 0000000cH

; 1357 : 			return TRUE;

  001c9	8b c3		 mov	 eax, ebx
  001cb	5b		 pop	 ebx
  001cc	5f		 pop	 edi
  001cd	5e		 pop	 esi

; 1377 : }

  001ce	8b 4d fc	 mov	 ecx, DWORD PTR __$ArrayPad$[ebp]
  001d1	33 cd		 xor	 ecx, ebp
  001d3	e8 00 00 00 00	 call	 @__security_check_cookie@4
  001d8	8b e5		 mov	 esp, ebp
  001da	5d		 pop	 ebp
  001db	c2 08 00	 ret	 8
$LN1@NpcJewelOf:

; 1358 : 		}
; 1359 : 
; 1360 : 		lpObj->m_IfState.type = 7;
; 1361 : 		lpObj->m_IfState.state = 0;
; 1362 : 		lpObj->m_IfState.use = 1;
; 1363 : 		lpObj->bIsChaosMixCompleted = false;
; 1364 : 
; 1365 : 		DataSend(lpObj->m_Index, (LPBYTE)&pResult, pResult.h.size);

  001de	8b 0e		 mov	 ecx, DWORD PTR [esi]
  001e0	6a 0b		 push	 11			; 0000000bH
  001e2	8d 45 f0	 lea	 eax, DWORD PTR _pResult$[ebp]
  001e5	81 e2 c1 01 ff
	ff		 and	 edx, -65087		; ffff01c1H
  001eb	50		 push	 eax
  001ec	81 ca c1 01 00
	00		 or	 edx, 449		; 000001c1H
  001f2	51		 push	 ecx
  001f3	89 96 1c 0e 00
	00		 mov	 DWORD PTR [esi+3612], edx
  001f9	c6 86 79 12 00
	00 00		 mov	 BYTE PTR [esi+4729], 0
  00200	e8 00 00 00 00	 call	 ?DataSend@@YAHHPAEK@Z	; DataSend

; 1366 : 		gObjInventoryTrans(lpObj->m_Index);

  00205	8b 16		 mov	 edx, DWORD PTR [esi]
  00207	52		 push	 edx
  00208	e8 00 00 00 00	 call	 ?gObjInventoryTrans@@YAHH@Z ; gObjInventoryTrans

; 1367 : 
; 1368 : 		LogAddTD("[JewelOfHarmony][%s][%s] Open Chaos Box",
; 1369 : 			lpObj->AccountID, lpObj->Name);

  0020d	8d 46 77	 lea	 eax, DWORD PTR [esi+119]
  00210	50		 push	 eax
  00211	8d 4e 6c	 lea	 ecx, DWORD PTR [esi+108]
  00214	51		 push	 ecx
  00215	68 00 00 00 00	 push	 OFFSET ??_C@_0CI@BLEFGBBC@?$FLJewelOfHarmony?$FN?$FL?$CFs?$FN?$FL?$CFs?$FN?5Open?5Ch@
  0021a	ff 15 00 00 00
	00		 call	 DWORD PTR ?LogAddTD@@3P6AXPADZZA ; LogAddTD

; 1370 : 
; 1371 : 		gObjItemTextSave(lpObj);

  00220	56		 push	 esi
  00221	e8 00 00 00 00	 call	 ?gObjItemTextSave@@YAXPAUOBJECTSTRUCT@@@Z ; gObjItemTextSave

; 1372 : 		gObjWarehouseTextSave(lpObj);

  00226	56		 push	 esi
  00227	e8 00 00 00 00	 call	 ?gObjWarehouseTextSave@@YAXPAUOBJECTSTRUCT@@@Z ; gObjWarehouseTextSave

; 1373 : 		GCAnsCsMapSvrTaxInfo(lpObj->m_Index, 1, g_CastleSiegeSync.GetTaxRateChaos(lpObj->m_Index));

  0022c	8b 16		 mov	 edx, DWORD PTR [esi]
  0022e	83 c4 24	 add	 esp, 36			; 00000024H
  00231	52		 push	 edx
  00232	b9 00 00 00 00	 mov	 ecx, OFFSET ?g_CastleSiegeSync@@3VCCastleSiegeSync@@A ; g_CastleSiegeSync
  00237	e8 00 00 00 00	 call	 ?GetTaxRateChaos@CCastleSiegeSync@@QAEHH@Z ; CCastleSiegeSync::GetTaxRateChaos
  0023c	50		 push	 eax
  0023d	8b 06		 mov	 eax, DWORD PTR [esi]
  0023f	53		 push	 ebx
  00240	50		 push	 eax
  00241	e8 00 00 00 00	 call	 ?GCAnsCsMapSvrTaxInfo@@YAXHEE@Z ; GCAnsCsMapSvrTaxInfo
  00246	83 c4 0c	 add	 esp, 12			; 0000000cH
$LN2@NpcJewelOf:

; 1374 : 	}
; 1375 : 
; 1376 : 	return TRUE;

  00249	8b c3		 mov	 eax, ebx
  0024b	5b		 pop	 ebx
  0024c	5f		 pop	 edi
  0024d	5e		 pop	 esi

; 1377 : }

  0024e	8b 4d fc	 mov	 ecx, DWORD PTR __$ArrayPad$[ebp]
  00251	33 cd		 xor	 ecx, ebp
  00253	e8 00 00 00 00	 call	 @__security_check_cookie@4
  00258	8b e5		 mov	 esp, ebp
  0025a	5d		 pop	 ebp
  0025b	c2 08 00	 ret	 8
$LN5@NpcJewelOf:

; 1339 : 		}
; 1340 : 	}
; 1341 : 	else
; 1342 : 	{
; 1343 : 		LogAddTD("[JewelOfHarmony][%s][%s] Open Chaos Box Failed NpcType [%d]",
; 1344 : 			lpObj->AccountID, lpObj->Name, lpNpc->Class);

  0025e	50		 push	 eax
  0025f	8d 56 77	 lea	 edx, DWORD PTR [esi+119]
  00262	52		 push	 edx
  00263	83 c6 6c	 add	 esi, 108		; 0000006cH
  00266	56		 push	 esi
  00267	68 00 00 00 00	 push	 OFFSET ??_C@_0DM@ODMCBHME@?$FLJewelOfHarmony?$FN?$FL?$CFs?$FN?$FL?$CFs?$FN?5Open?5Ch@
  0026c	ff 15 00 00 00
	00		 call	 DWORD PTR ?LogAddTD@@3P6AXPADZZA ; LogAddTD

; 1377 : }

  00272	8b 4d fc	 mov	 ecx, DWORD PTR __$ArrayPad$[ebp]
  00275	83 c4 10	 add	 esp, 16			; 00000010H
  00278	5b		 pop	 ebx
  00279	5f		 pop	 edi
  0027a	33 cd		 xor	 ecx, ebp
  0027c	b8 01 00 00 00	 mov	 eax, 1
  00281	5e		 pop	 esi
  00282	e8 00 00 00 00	 call	 @__security_check_cookie@4
  00287	8b e5		 mov	 esp, ebp
  00289	5d		 pop	 ebp
  0028a	c2 08 00	 ret	 8
?NpcJewelOfHarmony@CJewelOfHarmonySystem@@QAEHPAUOBJECTSTRUCT@@0@Z ENDP ; CJewelOfHarmonySystem::NpcJewelOfHarmony
_TEXT	ENDS
PUBLIC	?IsEnableToTrade@CJewelOfHarmonySystem@@QAEHPAUOBJECTSTRUCT@@@Z ; CJewelOfHarmonySystem::IsEnableToTrade
; Function compile flags: /Ogtp
;	COMDAT ?IsEnableToTrade@CJewelOfHarmonySystem@@QAEHPAUOBJECTSTRUCT@@@Z
_TEXT	SEGMENT
_bRet$ = -4						; size = 4
_lpObj$ = 8						; size = 4
?IsEnableToTrade@CJewelOfHarmonySystem@@QAEHPAUOBJECTSTRUCT@@@Z PROC ; CJewelOfHarmonySystem::IsEnableToTrade, COMDAT
; _this$ = ecx

; 1382 : {

  00000	55		 push	 ebp
  00001	8b ec		 mov	 ebp, esp
  00003	51		 push	 ecx
  00004	53		 push	 ebx
  00005	56		 push	 esi
  00006	57		 push	 edi

; 1383 : 	BOOL bRet = TRUE;

  00007	8b 7d 08	 mov	 edi, DWORD PTR _lpObj$[ebp]
  0000a	8b d9		 mov	 ebx, ecx
  0000c	c7 45 fc 01 00
	00 00		 mov	 DWORD PTR _bRet$[ebp], 1
  00013	33 f6		 xor	 esi, esi
  00015	eb 09 8d a4 24
	00 00 00 00 8b
	ff		 npad	 11
$LL5@IsEnableTo:

; 1386 : 	{
; 1387 : 		if ( lpObj->Trade[n].IsItem() == TRUE )

  00020	8b 8f 4c 0e 00
	00		 mov	 ecx, DWORD PTR [edi+3660]
  00026	03 ce		 add	 ecx, esi
  00028	e8 00 00 00 00	 call	 ?IsItem@CItem@@QAEHXZ	; CItem::IsItem
  0002d	83 f8 01	 cmp	 eax, 1
  00030	75 1c		 jne	 SHORT $LN4@IsEnableTo

; 1388 : 		{
; 1389 : 			if ( this->IsStrengthenByJewelOfHarmony(&lpObj->Trade[n]) == TRUE )

  00032	8b 87 4c 0e 00
	00		 mov	 eax, DWORD PTR [edi+3660]
  00038	03 c6		 add	 eax, esi
  0003a	50		 push	 eax
  0003b	8b cb		 mov	 ecx, ebx
  0003d	e8 00 00 00 00	 call	 ?IsStrengthenByJewelOfHarmony@CJewelOfHarmonySystem@@QAEHPAVCItem@@@Z ; CJewelOfHarmonySystem::IsStrengthenByJewelOfHarmony
  00042	83 f8 01	 cmp	 eax, 1
  00045	75 07		 jne	 SHORT $LN4@IsEnableTo

; 1390 : 			{
; 1391 : 				bRet = FALSE;

  00047	c7 45 fc 00 00
	00 00		 mov	 DWORD PTR _bRet$[ebp], 0
$LN4@IsEnableTo:

; 1384 : 
; 1385 : 	for ( int n=0;n<TRADE_BOX_SIZE;n++)

  0004e	81 c6 d4 00 00
	00		 add	 esi, 212		; 000000d4H
  00054	81 fe 80 1a 00
	00		 cmp	 esi, 6784		; 00001a80H
  0005a	7c c4		 jl	 SHORT $LL5@IsEnableTo

; 1392 : 			}
; 1393 : 		}
; 1394 : 	}
; 1395 : 
; 1396 : 	return bRet;

  0005c	8b 45 fc	 mov	 eax, DWORD PTR _bRet$[ebp]
  0005f	5f		 pop	 edi
  00060	5e		 pop	 esi
  00061	5b		 pop	 ebx

; 1397 : }

  00062	8b e5		 mov	 esp, ebp
  00064	5d		 pop	 ebp
  00065	c2 04 00	 ret	 4
?IsEnableToTrade@CJewelOfHarmonySystem@@QAEHPAUOBJECTSTRUCT@@@Z ENDP ; CJewelOfHarmonySystem::IsEnableToTrade
_TEXT	ENDS
PUBLIC	??_C@_0IM@HNPECCPL@?$FLLuckyItem?$FN?$FLStrengthen?5Item?$FN?5Str@ ; `string'
PUBLIC	??_C@_0HA@NENOIDMG@?$FLLuckyItem?$FN?$FLStrengthen?5Item?$FN?5Str@ ; `string'
PUBLIC	??_C@_0HN@OPIFLCLD@?$FLLuckyItem?$FN?$FLStrengthen?5Item?$FN?5Str@ ; `string'
PUBLIC	??_C@_0HI@MLKDMOMN@?$FLLuckyItem?$FN?$FLStrengthen?5Item?$FN?5Str@ ; `string'
PUBLIC	??_C@_0DK@IGAHEKOO@?$FLLuckyItem?$FN?$FLStrengthen?5Item?$FN?5Alr@ ; `string'
PUBLIC	?StrengthenItemByJewelOfRise@CJewelOfHarmonySystem@@QAEHPAUOBJECTSTRUCT@@HH@Z ; CJewelOfHarmonySystem::StrengthenItemByJewelOfRise
EXTRN	?Convert@CItem@@QAEXHEEEEEEPAEEEE@Z:PROC	; CItem::Convert
EXTRN	?ItemGetDurability@@YAHHHHH@Z:PROC		; ItemGetDurability
EXTRN	?IsExtItem@CItem@@QAEHXZ:PROC			; CItem::IsExtItem
EXTRN	?IsSetItem@CItem@@QAEHXZ:PROC			; CItem::IsSetItem
EXTRN	?gObjMakePreviewCharSet@@YAXH@Z:PROC		; gObjMakePreviewCharSet
EXTRN	?IsLuckyItemEquipment@LuckyItemManager@@QAEHH@Z:PROC ; LuckyItemManager::IsLuckyItemEquipment
EXTRN	?g_LuckyItemManager@@3ULuckyItemManager@@A:BYTE	; g_LuckyItemManager
;	COMDAT ??_C@_0IM@HNPECCPL@?$FLLuckyItem?$FN?$FLStrengthen?5Item?$FN?5Str@
CONST	SEGMENT
??_C@_0IM@HNPECCPL@?$FLLuckyItem?$FN?$FLStrengthen?5Item?$FN?5Str@ DB '[L'
	DB	'uckyItem][Strengthen Item] Strengthen Success [%s][%s] Name[%'
	DB	's] Type[%d] Serial[%u] JewelSerial(%u) Rate (%d/%d) Option %d'
	DB	' OptionLevel %d', 00H			; `string'
CONST	ENDS
;	COMDAT ??_C@_0HA@NENOIDMG@?$FLLuckyItem?$FN?$FLStrengthen?5Item?$FN?5Str@
CONST	SEGMENT
??_C@_0HA@NENOIDMG@?$FLLuckyItem?$FN?$FLStrengthen?5Item?$FN?5Str@ DB '[L'
	DB	'uckyItem][Strengthen Item] Strengthen Fail [%s][%s] Name[%s] '
	DB	'Type[%d] Serial[%u] JewelSerial(%u) Rate (%d/%d)', 00H ; `string'
CONST	ENDS
;	COMDAT ??_C@_0HN@OPIFLCLD@?$FLLuckyItem?$FN?$FLStrengthen?5Item?$FN?5Str@
CONST	SEGMENT
??_C@_0HN@OPIFLCLD@?$FLLuckyItem?$FN?$FLStrengthen?5Item?$FN?5Str@ DB '[L'
	DB	'uckyItem][Strengthen Item] Strengthen Fail - NOT OPTION [%s]['
	DB	'%s] Name[%s] Type[%d] Serial[%u] JewelSerial(%u) ItemType[%d]'
	DB	00H						; `string'
CONST	ENDS
;	COMDAT ??_C@_0HI@MLKDMOMN@?$FLLuckyItem?$FN?$FLStrengthen?5Item?$FN?5Str@
CONST	SEGMENT
??_C@_0HI@MLKDMOMN@?$FLLuckyItem?$FN?$FLStrengthen?5Item?$FN?5Str@ DB '[L'
	DB	'uckyItem][Strengthen Item] Strengthen Fail [%s][%s] Name[%s] '
	DB	'Type[%d] Serial[%u] JewelSerial(%u) Invalid ItemType[%d]', 00H ; `string'
CONST	ENDS
;	COMDAT ??_C@_0DK@IGAHEKOO@?$FLLuckyItem?$FN?$FLStrengthen?5Item?$FN?5Alr@
CONST	SEGMENT
??_C@_0DK@IGAHEKOO@?$FLLuckyItem?$FN?$FLStrengthen?5Item?$FN?5Alr@ DB '[L'
	DB	'uckyItem][Strengthen Item] Already Strengtened [%s][%s]', 00H ; `string'
; Function compile flags: /Ogtp
CONST	ENDS
;	COMDAT ?StrengthenItemByJewelOfRise@CJewelOfHarmonySystem@@QAEHPAUOBJECTSTRUCT@@HH@Z
_TEXT	SEGMENT
_iSuccessRate$ = -12					; size = 4
_iItemOption$ = -8					; size = 4
_this$ = -4						; size = 4
tv425 = 8						; size = 4
tv404 = 8						; size = 4
_levelitemdur$ = 8					; size = 4
_lpObj$ = 8						; size = 4
tv395 = 12						; size = 4
_source$ = 12						; size = 4
_iItemOptionLevel$ = 16					; size = 4
_iItemType$ = 16					; size = 4
_target$ = 16						; size = 4
?StrengthenItemByJewelOfRise@CJewelOfHarmonySystem@@QAEHPAUOBJECTSTRUCT@@HH@Z PROC ; CJewelOfHarmonySystem::StrengthenItemByJewelOfRise, COMDAT
; _this$ = ecx

; 1400 : {

  00000	55		 push	 ebp
  00001	8b ec		 mov	 ebp, esp
  00003	83 ec 0c	 sub	 esp, 12			; 0000000cH

; 1401 : 	if ( this->m_bSystemStrengthenItem == FALSE )

  00006	83 b9 24 53 00
	00 00		 cmp	 DWORD PTR [ecx+21284], 0
  0000d	89 4d fc	 mov	 DWORD PTR _this$[ebp], ecx
  00010	75 28		 jne	 SHORT $LN12@Strengthen

; 1402 : 	{
; 1403 : 		GCServerMsgStringSend(lMsg.Get(MSGGET(13, 52)), lpObj->m_Index, 1);

  00012	8b 45 08	 mov	 eax, DWORD PTR _lpObj$[ebp]
  00015	8b 08		 mov	 ecx, DWORD PTR [eax]
  00017	6a 01		 push	 1
  00019	51		 push	 ecx
  0001a	68 34 0d 00 00	 push	 3380			; 00000d34H
  0001f	b9 00 00 00 00	 mov	 ecx, OFFSET ?lMsg@@3VCMsg@@A ; lMsg
  00024	e8 00 00 00 00	 call	 ?Get@CMsg@@QAEPADH@Z	; CMsg::Get
  00029	50		 push	 eax
  0002a	e8 00 00 00 00	 call	 ?GCServerMsgStringSend@@YAXPADHE@Z ; GCServerMsgStringSend
  0002f	83 c4 0c	 add	 esp, 12			; 0000000cH
$LN10@Strengthen:

; 1404 : 		return FALSE;

  00032	33 c0		 xor	 eax, eax

; 1492 : 
; 1493 : 
; 1494 : 	return TRUE;
; 1495 : }

  00034	8b e5		 mov	 esp, ebp
  00036	5d		 pop	 ebp
  00037	c2 0c 00	 ret	 12			; 0000000cH
$LN12@Strengthen:

; 1405 : 	}
; 1406 : 
; 1407 : 	if ( source < 0 || source > MAIN_INVENTORY_SIZE-1 )

  0003a	8b 45 0c	 mov	 eax, DWORD PTR _source$[ebp]
  0003d	3d cb 00 00 00	 cmp	 eax, 203		; 000000cbH
  00042	77 ee		 ja	 SHORT $LN10@Strengthen

; 1408 : 		return FALSE;
; 1409 : 
; 1410 : 	if ( target < 0 || target > MAIN_INVENTORY_SIZE-1 )

  00044	53		 push	 ebx
  00045	8b 5d 10	 mov	 ebx, DWORD PTR _target$[ebp]
  00048	81 fb cb 00 00
	00		 cmp	 ebx, 203		; 000000cbH
  0004e	0f 87 e5 02 00
	00		 ja	 $LN8@Strengthen

; 1412 : 
; 1413 : 	if ( lpObj->pInventory[source].IsItem() == FALSE )

  00054	69 c0 d4 00 00
	00		 imul	 eax, 212		; 000000d4H
  0005a	56		 push	 esi
  0005b	8b 75 08	 mov	 esi, DWORD PTR _lpObj$[ebp]
  0005e	8b 8e 24 0e 00
	00		 mov	 ecx, DWORD PTR [esi+3620]
  00064	03 c8		 add	 ecx, eax
  00066	89 45 0c	 mov	 DWORD PTR tv395[ebp], eax
  00069	e8 00 00 00 00	 call	 ?IsItem@CItem@@QAEHXZ	; CItem::IsItem
  0006e	85 c0		 test	 eax, eax

; 1414 : 		return FALSE;

  00070	74 17		 je	 SHORT $LN20@Strengthen

; 1415 : 
; 1416 : 	if ( lpObj->pInventory[target].IsItem() == FALSE )

  00072	8b 8e 24 0e 00
	00		 mov	 ecx, DWORD PTR [esi+3620]
  00078	69 db d4 00 00
	00		 imul	 ebx, 212		; 000000d4H
  0007e	03 cb		 add	 ecx, ebx
  00080	e8 00 00 00 00	 call	 ?IsItem@CItem@@QAEHXZ	; CItem::IsItem
  00085	85 c0		 test	 eax, eax
  00087	75 0a		 jne	 SHORT $LN6@Strengthen
$LN20@Strengthen:
  00089	5e		 pop	 esi

; 1417 : 		return FALSE;

  0008a	33 c0		 xor	 eax, eax
  0008c	5b		 pop	 ebx

; 1492 : 
; 1493 : 
; 1494 : 	return TRUE;
; 1495 : }

  0008d	8b e5		 mov	 esp, ebp
  0008f	5d		 pop	 ebp
  00090	c2 0c 00	 ret	 12			; 0000000cH
$LN6@Strengthen:
  00093	57		 push	 edi

; 1418 : 
; 1419 : 	CItem * pSource = &lpObj->pInventory[source];

  00094	8b be 24 0e 00
	00		 mov	 edi, DWORD PTR [esi+3620]

; 1420 : 	CItem * pTarget = &lpObj->pInventory[target];
; 1421 : 
; 1422 : #ifdef LUCKYITEM
; 1423 : 	if( g_LuckyItemManager.IsLuckyItemEquipment(pTarget->m_Type) )

  0009a	0f bf 54 1f 06	 movsx	 edx, WORD PTR [edi+ebx+6]
  0009f	89 7d 08	 mov	 DWORD PTR tv404[ebp], edi
  000a2	03 fb		 add	 edi, ebx
  000a4	52		 push	 edx
  000a5	b9 00 00 00 00	 mov	 ecx, OFFSET ?g_LuckyItemManager@@3ULuckyItemManager@@A ; g_LuckyItemManager
  000aa	e8 00 00 00 00	 call	 ?IsLuckyItemEquipment@LuckyItemManager@@QAEHH@Z ; LuckyItemManager::IsLuckyItemEquipment
  000af	85 c0		 test	 eax, eax

; 1424 : 	{
; 1425 : 		return false;

  000b1	0f 85 c1 00 00
	00		 jne	 $LN18@Strengthen

; 1426 : 	}
; 1427 : #endif
; 1428 : 	if ( this->IsStrengthenByJewelOfHarmony(pTarget) == TRUE )

  000b7	8b 55 fc	 mov	 edx, DWORD PTR _this$[ebp]
  000ba	57		 push	 edi
  000bb	8b ca		 mov	 ecx, edx
  000bd	e8 00 00 00 00	 call	 ?IsStrengthenByJewelOfHarmony@CJewelOfHarmonySystem@@QAEHPAVCItem@@@Z ; CJewelOfHarmonySystem::IsStrengthenByJewelOfHarmony
  000c2	83 f8 01	 cmp	 eax, 1
  000c5	75 21		 jne	 SHORT $LN4@Strengthen

; 1429 : 	{
; 1430 : 		LogAddTD("[LuckyItem][Strengthen Item] Already Strengtened [%s][%s]",
; 1431 : 			lpObj->AccountID, lpObj->Name);

  000c7	8d 46 77	 lea	 eax, DWORD PTR [esi+119]
  000ca	50		 push	 eax
  000cb	83 c6 6c	 add	 esi, 108		; 0000006cH
  000ce	56		 push	 esi
  000cf	68 00 00 00 00	 push	 OFFSET ??_C@_0DK@IGAHEKOO@?$FLLuckyItem?$FN?$FLStrengthen?5Item?$FN?5Alr@
  000d4	ff 15 00 00 00
	00		 call	 DWORD PTR ?LogAddTD@@3P6AXPADZZA ; LogAddTD
  000da	83 c4 0c	 add	 esp, 12			; 0000000cH
  000dd	5f		 pop	 edi
  000de	5e		 pop	 esi

; 1432 : 
; 1433 : 		return FALSE;

  000df	33 c0		 xor	 eax, eax
  000e1	5b		 pop	 ebx

; 1492 : 
; 1493 : 
; 1494 : 	return TRUE;
; 1495 : }

  000e2	8b e5		 mov	 esp, ebp
  000e4	5d		 pop	 ebp
  000e5	c2 0c 00	 ret	 12			; 0000000cH
$LN4@Strengthen:

; 1434 : 	}
; 1435 : 
; 1436 : 	int iItemType = this->_GetItemType(pTarget);

  000e8	57		 push	 edi
  000e9	8b ca		 mov	 ecx, edx
  000eb	e8 00 00 00 00	 call	 ?_GetItemType@CJewelOfHarmonySystem@@QAEHPAVCItem@@@Z ; CJewelOfHarmonySystem::_GetItemType
  000f0	89 45 10	 mov	 DWORD PTR _iItemType$[ebp], eax

; 1437 : 
; 1438 : 	if ( iItemType == JEWELOFHARMONY_ITEM_TYPE_NULL )

  000f3	85 c0		 test	 eax, eax
  000f5	75 3c		 jne	 SHORT $LN3@Strengthen

; 1439 : 	{
; 1440 : 		LogAddTD("[LuckyItem][Strengthen Item] Strengthen Fail [%s][%s] Name[%s] Type[%d] Serial[%u] JewelSerial(%u) Invalid ItemType[%d]",
; 1441 : 			lpObj->AccountID, lpObj->Name, pTarget->GetName(), pTarget->m_Type,
; 1442 : 			pTarget->m_Number, pSource->m_Number, iItemType);

  000f7	8b 4d 08	 mov	 ecx, DWORD PTR tv404[ebp]
  000fa	8b 55 0c	 mov	 edx, DWORD PTR tv395[ebp]
  000fd	50		 push	 eax
  000fe	8b 04 11	 mov	 eax, DWORD PTR [ecx+edx]
  00101	8b 0f		 mov	 ecx, DWORD PTR [edi]
  00103	0f bf 57 06	 movsx	 edx, WORD PTR [edi+6]
  00107	50		 push	 eax
  00108	51		 push	 ecx
  00109	52		 push	 edx
  0010a	8b cf		 mov	 ecx, edi
  0010c	e8 00 00 00 00	 call	 ?GetName@CItem@@QAEPADXZ ; CItem::GetName
  00111	50		 push	 eax
  00112	8d 46 77	 lea	 eax, DWORD PTR [esi+119]
  00115	50		 push	 eax
  00116	83 c6 6c	 add	 esi, 108		; 0000006cH
  00119	56		 push	 esi
  0011a	68 00 00 00 00	 push	 OFFSET ??_C@_0HI@MLKDMOMN@?$FLLuckyItem?$FN?$FLStrengthen?5Item?$FN?5Str@
  0011f	ff 15 00 00 00
	00		 call	 DWORD PTR ?LogAddTD@@3P6AXPADZZA ; LogAddTD
  00125	83 c4 20	 add	 esp, 32			; 00000020H
  00128	5f		 pop	 edi
  00129	5e		 pop	 esi

; 1443 : 		
; 1444 : 		return FALSE;

  0012a	33 c0		 xor	 eax, eax
  0012c	5b		 pop	 ebx

; 1492 : 
; 1493 : 
; 1494 : 	return TRUE;
; 1495 : }

  0012d	8b e5		 mov	 esp, ebp
  0012f	5d		 pop	 ebp
  00130	c2 0c 00	 ret	 12			; 0000000cH
$LN3@Strengthen:

; 1445 : 	}
; 1446 : 
; 1447 : 	int iItemOption = this->_GetSelectRandomOption(pTarget, iItemType);

  00133	8b 4d fc	 mov	 ecx, DWORD PTR _this$[ebp]
  00136	50		 push	 eax
  00137	57		 push	 edi
  00138	e8 00 00 00 00	 call	 ?_GetSelectRandomOption@CJewelOfHarmonySystem@@QAEHPAVCItem@@H@Z ; CJewelOfHarmonySystem::_GetSelectRandomOption

; 1448 : 
; 1449 : 	if ( iItemOption == AT_JEWELOFHARMONY_NOT_STRENGTHEN_ITEM )
; 1450 : 	{
; 1451 : 		LogAddTD("[LuckyItem][Strengthen Item] Strengthen Fail - NOT OPTION [%s][%s] Name[%s] Type[%d] Serial[%u] JewelSerial(%u) ItemType[%d]",
; 1452 : 			lpObj->AccountID, lpObj->Name, pTarget->GetName(), pTarget->m_Type,
; 1453 : 			pTarget->m_Number, pSource->m_Number, iItemType);

  0013d	8b 4d 10	 mov	 ecx, DWORD PTR _iItemType$[ebp]
  00140	89 45 f8	 mov	 DWORD PTR _iItemOption$[ebp], eax
  00143	85 c0		 test	 eax, eax
  00145	75 3c		 jne	 SHORT $LN2@Strengthen
  00147	8b 55 08	 mov	 edx, DWORD PTR tv404[ebp]
  0014a	8b 45 0c	 mov	 eax, DWORD PTR tv395[ebp]
  0014d	51		 push	 ecx
  0014e	8b 0c 02	 mov	 ecx, DWORD PTR [edx+eax]
  00151	8b 17		 mov	 edx, DWORD PTR [edi]
  00153	0f bf 47 06	 movsx	 eax, WORD PTR [edi+6]
  00157	51		 push	 ecx
  00158	52		 push	 edx
  00159	50		 push	 eax
  0015a	8b cf		 mov	 ecx, edi
  0015c	e8 00 00 00 00	 call	 ?GetName@CItem@@QAEPADXZ ; CItem::GetName
  00161	50		 push	 eax
  00162	8d 4e 77	 lea	 ecx, DWORD PTR [esi+119]
  00165	51		 push	 ecx
  00166	83 c6 6c	 add	 esi, 108		; 0000006cH
  00169	56		 push	 esi
  0016a	68 00 00 00 00	 push	 OFFSET ??_C@_0HN@OPIFLCLD@?$FLLuckyItem?$FN?$FLStrengthen?5Item?$FN?5Str@
  0016f	ff 15 00 00 00
	00		 call	 DWORD PTR ?LogAddTD@@3P6AXPADZZA ; LogAddTD
  00175	83 c4 20	 add	 esp, 32			; 00000020H
$LN18@Strengthen:

; 1454 : 		
; 1455 : 		return FALSE;

  00178	5f		 pop	 edi
  00179	5e		 pop	 esi
  0017a	33 c0		 xor	 eax, eax
  0017c	5b		 pop	 ebx

; 1492 : 
; 1493 : 
; 1494 : 	return TRUE;
; 1495 : }

  0017d	8b e5		 mov	 esp, ebp
  0017f	5d		 pop	 ebp
  00180	c2 0c 00	 ret	 12			; 0000000cH
$LN2@Strengthen:

; 1456 : 	}
; 1457 : 
; 1458 : 	int iItemOptionLevel = this->m_itemOption[iItemType][iItemOption].iRequireLevel;

  00183	8b 55 fc	 mov	 edx, DWORD PTR _this$[ebp]
  00186	c1 e1 04	 shl	 ecx, 4
  00189	03 c8		 add	 ecx, eax
  0018b	69 c9 4c 01 00
	00		 imul	 ecx, 332		; 0000014cH
  00191	0f b6 44 11 1d	 movzx	 eax, BYTE PTR [ecx+edx+29]
  00196	89 45 10	 mov	 DWORD PTR _iItemOptionLevel$[ebp], eax

; 1459 : 	int iSuccessRate = rand() % 100;

  00199	e8 00 00 00 00	 call	 _rand
  0019e	99		 cdq
  0019f	b9 64 00 00 00	 mov	 ecx, 100		; 00000064H
  001a4	f7 f9		 idiv	 ecx

; 1460 : 
; 1461 : 	if ( iSuccessRate >= this->m_iRateStrengthenSuccess )

  001a6	8b 4d fc	 mov	 ecx, DWORD PTR _this$[ebp]
  001a9	8b 81 40 53 00
	00		 mov	 eax, DWORD PTR [ecx+21312]
  001af	89 55 f4	 mov	 DWORD PTR _iSuccessRate$[ebp], edx
  001b2	3b d0		 cmp	 edx, eax
  001b4	7c 5d		 jl	 SHORT $LN1@Strengthen

; 1462 : 	{
; 1463 : 		LogAddTD("[LuckyItem][Strengthen Item] Strengthen Fail [%s][%s] Name[%s] Type[%d] Serial[%u] JewelSerial(%u) Rate (%d/%d)",
; 1464 : 			lpObj->AccountID, lpObj->Name, pTarget->GetName(), pTarget->m_Type,
; 1465 : 			pTarget->m_Number, pSource->m_Number, iSuccessRate, this->m_iRateStrengthenSuccess);

  001b6	50		 push	 eax
  001b7	8b 45 0c	 mov	 eax, DWORD PTR tv395[ebp]
  001ba	52		 push	 edx
  001bb	8b 55 08	 mov	 edx, DWORD PTR tv404[ebp]
  001be	8b 0c 02	 mov	 ecx, DWORD PTR [edx+eax]
  001c1	8b 17		 mov	 edx, DWORD PTR [edi]
  001c3	0f bf 47 06	 movsx	 eax, WORD PTR [edi+6]
  001c7	51		 push	 ecx
  001c8	52		 push	 edx
  001c9	50		 push	 eax
  001ca	8b cf		 mov	 ecx, edi
  001cc	e8 00 00 00 00	 call	 ?GetName@CItem@@QAEPADXZ ; CItem::GetName
  001d1	50		 push	 eax
  001d2	8d 4e 77	 lea	 ecx, DWORD PTR [esi+119]
  001d5	51		 push	 ecx
  001d6	8d 56 6c	 lea	 edx, DWORD PTR [esi+108]
  001d9	52		 push	 edx
  001da	68 00 00 00 00	 push	 OFFSET ??_C@_0HA@NENOIDMG@?$FLLuckyItem?$FN?$FLStrengthen?5Item?$FN?5Str@
  001df	ff 15 00 00 00
	00		 call	 DWORD PTR ?LogAddTD@@3P6AXPADZZA ; LogAddTD

; 1466 : 		GCServerMsgStringSend(lMsg.Get(MSGGET(13, 45)), lpObj->m_Index, 1);

  001e5	8b 06		 mov	 eax, DWORD PTR [esi]
  001e7	83 c4 24	 add	 esp, 36			; 00000024H
  001ea	6a 01		 push	 1
  001ec	50		 push	 eax
  001ed	68 2d 0d 00 00	 push	 3373			; 00000d2dH
  001f2	b9 00 00 00 00	 mov	 ecx, OFFSET ?lMsg@@3VCMsg@@A ; lMsg
  001f7	e8 00 00 00 00	 call	 ?Get@CMsg@@QAEPADH@Z	; CMsg::Get
  001fc	50		 push	 eax
  001fd	e8 00 00 00 00	 call	 ?GCServerMsgStringSend@@YAXPADHE@Z ; GCServerMsgStringSend
  00202	83 c4 0c	 add	 esp, 12			; 0000000cH
  00205	5f		 pop	 edi
  00206	5e		 pop	 esi

; 1467 : 		return TRUE;

  00207	b8 01 00 00 00	 mov	 eax, 1
  0020c	5b		 pop	 ebx

; 1492 : 
; 1493 : 
; 1494 : 	return TRUE;
; 1495 : }

  0020d	8b e5		 mov	 esp, ebp
  0020f	5d		 pop	 ebp
  00210	c2 0c 00	 ret	 12			; 0000000cH
$LN1@Strengthen:

; 1468 : 	}
; 1469 : 
; 1470 : 
; 1471 : 	this->_MakeOption(pTarget, iItemOption, iItemOptionLevel);

  00213	8b 55 10	 mov	 edx, DWORD PTR _iItemOptionLevel$[ebp]
  00216	8b 45 f8	 mov	 eax, DWORD PTR _iItemOption$[ebp]
  00219	52		 push	 edx
  0021a	50		 push	 eax
  0021b	57		 push	 edi
  0021c	e8 00 00 00 00	 call	 ?_MakeOption@CJewelOfHarmonySystem@@QAEHPAVCItem@@EE@Z ; CJewelOfHarmonySystem::_MakeOption

; 1472 : 
; 1473 : 	LogAddTD("[LuckyItem][Strengthen Item] Strengthen Success [%s][%s] Name[%s] Type[%d] Serial[%u] JewelSerial(%u) Rate (%d/%d) Option %d OptionLevel %d",
; 1474 : 		lpObj->AccountID, lpObj->Name, pTarget->GetName(), pTarget->m_Type, pTarget->m_Number,
; 1475 : 		pSource->m_Number, iSuccessRate, this->m_iRateStrengthenSuccess,
; 1476 : 		iItemOption, iItemOptionLevel);

  00221	8b 4d 10	 mov	 ecx, DWORD PTR _iItemOptionLevel$[ebp]
  00224	8b 55 f8	 mov	 edx, DWORD PTR _iItemOption$[ebp]
  00227	8b 45 fc	 mov	 eax, DWORD PTR _this$[ebp]
  0022a	51		 push	 ecx
  0022b	8b 88 40 53 00
	00		 mov	 ecx, DWORD PTR [eax+21312]
  00231	8b 45 08	 mov	 eax, DWORD PTR tv404[ebp]
  00234	52		 push	 edx
  00235	8b 55 f4	 mov	 edx, DWORD PTR _iSuccessRate$[ebp]
  00238	51		 push	 ecx
  00239	8b 4d 0c	 mov	 ecx, DWORD PTR tv395[ebp]
  0023c	52		 push	 edx
  0023d	8b 14 08	 mov	 edx, DWORD PTR [eax+ecx]
  00240	0f bf 4f 06	 movsx	 ecx, WORD PTR [edi+6]
  00244	8b 07		 mov	 eax, DWORD PTR [edi]
  00246	52		 push	 edx
  00247	50		 push	 eax
  00248	51		 push	 ecx
  00249	8b cf		 mov	 ecx, edi
  0024b	e8 00 00 00 00	 call	 ?GetName@CItem@@QAEPADXZ ; CItem::GetName
  00250	50		 push	 eax
  00251	8d 56 77	 lea	 edx, DWORD PTR [esi+119]
  00254	52		 push	 edx
  00255	8d 46 6c	 lea	 eax, DWORD PTR [esi+108]
  00258	50		 push	 eax
  00259	68 00 00 00 00	 push	 OFFSET ??_C@_0IM@HNPECCPL@?$FLLuckyItem?$FN?$FLStrengthen?5Item?$FN?5Str@
  0025e	ff 15 00 00 00
	00		 call	 DWORD PTR ?LogAddTD@@3P6AXPADZZA ; LogAddTD

; 1477 : 
; 1478 : 	GCServerMsgStringSend(lMsg.Get(MSGGET(13, 46)), lpObj->m_Index, 1);

  00264	8b 0e		 mov	 ecx, DWORD PTR [esi]
  00266	83 c4 2c	 add	 esp, 44			; 0000002cH
  00269	6a 01		 push	 1
  0026b	51		 push	 ecx
  0026c	68 2e 0d 00 00	 push	 3374			; 00000d2eH
  00271	b9 00 00 00 00	 mov	 ecx, OFFSET ?lMsg@@3VCMsg@@A ; lMsg
  00276	e8 00 00 00 00	 call	 ?Get@CMsg@@QAEPADH@Z	; CMsg::Get
  0027b	50		 push	 eax
  0027c	e8 00 00 00 00	 call	 ?GCServerMsgStringSend@@YAXPADHE@Z ; GCServerMsgStringSend

; 1479 : 
; 1480 : 	gObjMakePreviewCharSet(lpObj->m_Index);

  00281	8b 16		 mov	 edx, DWORD PTR [esi]
  00283	52		 push	 edx
  00284	e8 00 00 00 00	 call	 ?gObjMakePreviewCharSet@@YAXH@Z ; gObjMakePreviewCharSet

; 1481 : 
; 1482 : 	float levelitemdur = ItemGetDurability(lpObj->pInventory[target].m_Type,
; 1483 : 		lpObj->pInventory[target].m_Level, lpObj->pInventory[target].IsExtItem(),
; 1484 : 		lpObj->pInventory[target].IsSetItem());

  00289	8b 86 24 0e 00
	00		 mov	 eax, DWORD PTR [esi+3620]
  0028f	83 c4 10	 add	 esp, 16			; 00000010H
  00292	8d 0c 03	 lea	 ecx, DWORD PTR [ebx+eax]
  00295	8d 3c 18	 lea	 edi, DWORD PTR [eax+ebx]
  00298	e8 00 00 00 00	 call	 ?IsSetItem@CItem@@QAEHXZ ; CItem::IsSetItem
  0029d	8b 8e 24 0e 00
	00		 mov	 ecx, DWORD PTR [esi+3620]
  002a3	50		 push	 eax
  002a4	03 cb		 add	 ecx, ebx
  002a6	e8 00 00 00 00	 call	 ?IsExtItem@CItem@@QAEHXZ ; CItem::IsExtItem
  002ab	0f bf 4f 08	 movsx	 ecx, WORD PTR [edi+8]
  002af	0f bf 57 06	 movsx	 edx, WORD PTR [edi+6]
  002b3	50		 push	 eax
  002b4	51		 push	 ecx
  002b5	52		 push	 edx
  002b6	e8 00 00 00 00	 call	 ?ItemGetDurability@@YAHHHHH@Z ; ItemGetDurability
  002bb	89 45 08	 mov	 DWORD PTR tv425[ebp], eax

; 1485 : 
; 1486 : 	lpObj->pInventory[target].m_Durability = levelitemdur * lpObj->pInventory[target].m_Durability / lpObj->pInventory[target].m_BaseDurability;

  002be	8b 86 24 0e 00
	00		 mov	 eax, DWORD PTR [esi+3620]
  002c4	db 45 08	 fild	 DWORD PTR tv425[ebp]
  002c7	83 c4 10	 add	 esp, 16			; 00000010H

; 1487 : 
; 1488 : 	lpObj->pInventory[target].Convert(lpObj->pInventory[target].m_Type,
; 1489 : 		lpObj->pInventory[target].m_Option1, lpObj->pInventory[target].m_Option2,
; 1490 : 		lpObj->pInventory[target].m_Option3, lpObj->pInventory[target].m_NewOption,
; 1491 : 		lpObj->pInventory[target].m_SetOption, lpObj->pInventory[target].m_ItemOptionEx, NULL, 0xFF, 0, 3);

  002ca	6a 03		 push	 3
  002cc	6a 00		 push	 0
  002ce	d9 5d 08	 fstp	 DWORD PTR _levelitemdur$[ebp]
  002d1	68 ff 00 00 00	 push	 255			; 000000ffH
  002d6	d9 44 18 24	 fld	 DWORD PTR [eax+ebx+36]
  002da	6a 00		 push	 0
  002dc	d8 4d 08	 fmul	 DWORD PTR _levelitemdur$[ebp]
  002df	d8 74 18 2c	 fdiv	 DWORD PTR [eax+ebx+44]
  002e3	d9 5c 18 24	 fstp	 DWORD PTR [eax+ebx+36]
  002e7	8b 8e 24 0e 00
	00		 mov	 ecx, DWORD PTR [esi+3620]
  002ed	0f b6 94 19 ca
	00 00 00	 movzx	 edx, BYTE PTR [ecx+ebx+202]
  002f5	0f b6 84 19 ae
	00 00 00	 movzx	 eax, BYTE PTR [ecx+ebx+174]
  002fd	03 cb		 add	 ecx, ebx
  002ff	52		 push	 edx
  00300	0f b6 91 97 00
	00 00		 movzx	 edx, BYTE PTR [ecx+151]
  00307	50		 push	 eax
  00308	0f b6 81 96 00
	00 00		 movzx	 eax, BYTE PTR [ecx+150]
  0030f	52		 push	 edx
  00310	0f b6 91 95 00
	00 00		 movzx	 edx, BYTE PTR [ecx+149]
  00317	50		 push	 eax
  00318	0f b6 81 94 00
	00 00		 movzx	 eax, BYTE PTR [ecx+148]
  0031f	52		 push	 edx
  00320	0f bf 51 06	 movsx	 edx, WORD PTR [ecx+6]
  00324	50		 push	 eax
  00325	52		 push	 edx
  00326	e8 00 00 00 00	 call	 ?Convert@CItem@@QAEXHEEEEEEPAEEEE@Z ; CItem::Convert
  0032b	5f		 pop	 edi
  0032c	5e		 pop	 esi
  0032d	b8 01 00 00 00	 mov	 eax, 1
  00332	5b		 pop	 ebx

; 1492 : 
; 1493 : 
; 1494 : 	return TRUE;
; 1495 : }

  00333	8b e5		 mov	 esp, ebp
  00335	5d		 pop	 ebp
  00336	c2 0c 00	 ret	 12			; 0000000cH
$LN8@Strengthen:

; 1411 : 		return FALSE;

  00339	33 c0		 xor	 eax, eax
  0033b	5b		 pop	 ebx

; 1492 : 
; 1493 : 
; 1494 : 	return TRUE;
; 1495 : }

  0033c	8b e5		 mov	 esp, ebp
  0033e	5d		 pop	 ebp
  0033f	c2 0c 00	 ret	 12			; 0000000cH
?StrengthenItemByJewelOfRise@CJewelOfHarmonySystem@@QAEHPAUOBJECTSTRUCT@@HH@Z ENDP ; CJewelOfHarmonySystem::StrengthenItemByJewelOfRise
_TEXT	ENDS
PUBLIC	??0?$allocator@U?$pair@$$CBHH@std@@@std@@QAE@XZ	; std::allocator<std::pair<int const ,int> >::allocator<std::pair<int const ,int> >
; Function compile flags: /Ogtp
; File d:\program files (x86)\microsoft visual studio 10.0\vc\include\xmemory
;	COMDAT ??0?$allocator@U?$pair@$$CBHH@std@@@std@@QAE@XZ
_TEXT	SEGMENT
??0?$allocator@U?$pair@$$CBHH@std@@@std@@QAE@XZ PROC	; std::allocator<std::pair<int const ,int> >::allocator<std::pair<int const ,int> >, COMDAT
; _this$ = ecx

; 161  : 	_ALLOCATOR() _THROW0()

  00000	8b c1		 mov	 eax, ecx

; 162  : 		{	// construct default allocator (do nothing)
; 163  : 		}

  00002	c3		 ret	 0
??0?$allocator@U?$pair@$$CBHH@std@@@std@@QAE@XZ ENDP	; std::allocator<std::pair<int const ,int> >::allocator<std::pair<int const ,int> >
_TEXT	ENDS
PUBLIC	??R?$less@H@std@@QBE_NABH0@Z			; std::less<int>::operator()
; Function compile flags: /Ogtp
; File d:\program files (x86)\microsoft visual studio 10.0\vc\include\xfunctional
;	COMDAT ??R?$less@H@std@@QBE_NABH0@Z
_TEXT	SEGMENT
__Left$ = 8						; size = 4
__Right$ = 12						; size = 4
??R?$less@H@std@@QBE_NABH0@Z PROC			; std::less<int>::operator(), COMDAT
; _this$ = ecx

; 124  : 		{	// apply operator< to operands

  00000	55		 push	 ebp
  00001	8b ec		 mov	 ebp, esp

; 125  : 		return (_Left < _Right);

  00003	8b 45 08	 mov	 eax, DWORD PTR __Left$[ebp]
  00006	8b 08		 mov	 ecx, DWORD PTR [eax]
  00008	8b 55 0c	 mov	 edx, DWORD PTR __Right$[ebp]
  0000b	33 c0		 xor	 eax, eax
  0000d	3b 0a		 cmp	 ecx, DWORD PTR [edx]
  0000f	0f 9c c0	 setl	 al

; 126  : 		}

  00012	5d		 pop	 ebp
  00013	c2 08 00	 ret	 8
??R?$less@H@std@@QBE_NABH0@Z ENDP			; std::less<int>::operator()
_TEXT	ENDS
PUBLIC	??8?$_Tree_const_iterator@V?$_Tree_val@V?$_Tmap_traits@HHU?$less@H@std@@V?$allocator@U?$pair@$$CBHH@std@@@2@$0A@@std@@@std@@@std@@QBE_NABV01@@Z ; std::_Tree_const_iterator<std::_Tree_val<std::_Tmap_traits<int,int,std::less<int>,std::allocator<std::pair<int const ,int> >,0> > >::operator==
; Function compile flags: /Ogtp
; File d:\program files (x86)\microsoft visual studio 10.0\vc\include\xtree
;	COMDAT ??8?$_Tree_const_iterator@V?$_Tree_val@V?$_Tmap_traits@HHU?$less@H@std@@V?$allocator@U?$pair@$$CBHH@std@@@2@$0A@@std@@@std@@@std@@QBE_NABV01@@Z
_TEXT	SEGMENT
__Right$ = 8						; size = 4
??8?$_Tree_const_iterator@V?$_Tree_val@V?$_Tmap_traits@HHU?$less@H@std@@V?$allocator@U?$pair@$$CBHH@std@@@2@$0A@@std@@@std@@@std@@QBE_NABV01@@Z PROC ; std::_Tree_const_iterator<std::_Tree_val<std::_Tmap_traits<int,int,std::less<int>,std::allocator<std::pair<int const ,int> >,0> > >::operator==, COMDAT
; _this$ = ecx

; 316  : 		{	// test for iterator equality

  00000	55		 push	 ebp
  00001	8b ec		 mov	 ebp, esp

; 317  :  #if _ITERATOR_DEBUG_LEVEL == 2
; 318  : 		if (this->_Getcont() == 0
; 319  : 			|| this->_Getcont() != _Right._Getcont())
; 320  : 			{	// report error
; 321  : 			_DEBUG_ERROR("map/set iterators incompatible");
; 322  : 			_SCL_SECURE_INVALID_ARGUMENT;
; 323  : 			}
; 324  : 
; 325  :  #elif _ITERATOR_DEBUG_LEVEL == 1
; 326  : 		_SCL_SECURE_VALIDATE(this->_Getcont() != 0
; 327  : 			&& this->_Getcont() == _Right._Getcont());
; 328  :  #endif /* _ITERATOR_DEBUG_LEVEL */
; 329  : 
; 330  : 		return (this->_Ptr == _Right._Ptr);

  00003	8b 01		 mov	 eax, DWORD PTR [ecx]
  00005	8b 55 08	 mov	 edx, DWORD PTR __Right$[ebp]
  00008	33 c9		 xor	 ecx, ecx
  0000a	3b 02		 cmp	 eax, DWORD PTR [edx]
  0000c	0f 94 c0	 sete	 al

; 331  : 		}

  0000f	5d		 pop	 ebp
  00010	c2 04 00	 ret	 4
??8?$_Tree_const_iterator@V?$_Tree_val@V?$_Tmap_traits@HHU?$less@H@std@@V?$allocator@U?$pair@$$CBHH@std@@@2@$0A@@std@@@std@@@std@@QBE_NABV01@@Z ENDP ; std::_Tree_const_iterator<std::_Tree_val<std::_Tmap_traits<int,int,std::less<int>,std::allocator<std::pair<int const ,int> >,0> > >::operator==
_TEXT	ENDS
PUBLIC	?_Mynode@?$_Tree_unchecked_const_iterator@V?$_Tree_val@V?$_Tmap_traits@HHU?$less@H@std@@V?$allocator@U?$pair@$$CBHH@std@@@2@$0A@@std@@@std@@U_Iterator_base0@2@@std@@QBEPAU_Node@?$_Tree_nod@V?$_Tmap_traits@HHU?$less@H@std@@V?$allocator@U?$pair@$$CBHH@std@@@2@$0A@@std@@@2@XZ ; std::_Tree_unchecked_const_iterator<std::_Tree_val<std::_Tmap_traits<int,int,std::less<int>,std::allocator<std::pair<int const ,int> >,0> >,std::_Iterator_base0>::_Mynode
; Function compile flags: /Ogtp
;	COMDAT ?_Mynode@?$_Tree_unchecked_const_iterator@V?$_Tree_val@V?$_Tmap_traits@HHU?$less@H@std@@V?$allocator@U?$pair@$$CBHH@std@@@2@$0A@@std@@@std@@U_Iterator_base0@2@@std@@QBEPAU_Node@?$_Tree_nod@V?$_Tmap_traits@HHU?$less@H@std@@V?$allocator@U?$pair@$$CBHH@std@@@2@$0A@@std@@@2@XZ
_TEXT	SEGMENT
?_Mynode@?$_Tree_unchecked_const_iterator@V?$_Tree_val@V?$_Tmap_traits@HHU?$less@H@std@@V?$allocator@U?$pair@$$CBHH@std@@@2@$0A@@std@@@std@@U_Iterator_base0@2@@std@@QBEPAU_Node@?$_Tree_nod@V?$_Tmap_traits@HHU?$less@H@std@@V?$allocator@U?$pair@$$CBHH@std@@@2@$0A@@std@@@2@XZ PROC ; std::_Tree_unchecked_const_iterator<std::_Tree_val<std::_Tmap_traits<int,int,std::less<int>,std::allocator<std::pair<int const ,int> >,0> >,std::_Iterator_base0>::_Mynode, COMDAT
; _this$ = ecx

; 122  : 		return (_Ptr);

  00000	8b 01		 mov	 eax, DWORD PTR [ecx]

; 123  : 		}

  00002	c3		 ret	 0
?_Mynode@?$_Tree_unchecked_const_iterator@V?$_Tree_val@V?$_Tmap_traits@HHU?$less@H@std@@V?$allocator@U?$pair@$$CBHH@std@@@2@$0A@@std@@@std@@U_Iterator_base0@2@@std@@QBEPAU_Node@?$_Tree_nod@V?$_Tmap_traits@HHU?$less@H@std@@V?$allocator@U?$pair@$$CBHH@std@@@2@$0A@@std@@@2@XZ ENDP ; std::_Tree_unchecked_const_iterator<std::_Tree_val<std::_Tmap_traits<int,int,std::less<int>,std::allocator<std::pair<int const ,int> >,0> >,std::_Iterator_base0>::_Mynode
_TEXT	ENDS
PUBLIC	?_Isnil@?$_Tree_val@V?$_Tmap_traits@HHU?$less@H@std@@V?$allocator@U?$pair@$$CBHH@std@@@2@$0A@@std@@@std@@SAAADPAU_Node@?$_Tree_nod@V?$_Tmap_traits@HHU?$less@H@std@@V?$allocator@U?$pair@$$CBHH@std@@@2@$0A@@std@@@2@@Z ; std::_Tree_val<std::_Tmap_traits<int,int,std::less<int>,std::allocator<std::pair<int const ,int> >,0> >::_Isnil
; Function compile flags: /Ogtp
;	COMDAT ?_Isnil@?$_Tree_val@V?$_Tmap_traits@HHU?$less@H@std@@V?$allocator@U?$pair@$$CBHH@std@@@2@$0A@@std@@@std@@SAAADPAU_Node@?$_Tree_nod@V?$_Tmap_traits@HHU?$less@H@std@@V?$allocator@U?$pair@$$CBHH@std@@@2@$0A@@std@@@2@@Z
_TEXT	SEGMENT
__Pnode$ = 8						; size = 4
?_Isnil@?$_Tree_val@V?$_Tmap_traits@HHU?$less@H@std@@V?$allocator@U?$pair@$$CBHH@std@@@2@$0A@@std@@@std@@SAAADPAU_Node@?$_Tree_nod@V?$_Tmap_traits@HHU?$less@H@std@@V?$allocator@U?$pair@$$CBHH@std@@@2@$0A@@std@@@2@@Z PROC ; std::_Tree_val<std::_Tmap_traits<int,int,std::less<int>,std::allocator<std::pair<int const ,int> >,0> >::_Isnil, COMDAT

; 611  : 		{	// return reference to nil flag in node

  00000	55		 push	 ebp
  00001	8b ec		 mov	 ebp, esp

; 612  : 		return ((char&)(*_Pnode)._Isnil);

  00003	8b 45 08	 mov	 eax, DWORD PTR __Pnode$[ebp]
  00006	83 c0 15	 add	 eax, 21			; 00000015H

; 613  : 		}

  00009	5d		 pop	 ebp
  0000a	c3		 ret	 0
?_Isnil@?$_Tree_val@V?$_Tmap_traits@HHU?$less@H@std@@V?$allocator@U?$pair@$$CBHH@std@@@2@$0A@@std@@@std@@SAAADPAU_Node@?$_Tree_nod@V?$_Tmap_traits@HHU?$less@H@std@@V?$allocator@U?$pair@$$CBHH@std@@@2@$0A@@std@@@2@@Z ENDP ; std::_Tree_val<std::_Tmap_traits<int,int,std::less<int>,std::allocator<std::pair<int const ,int> >,0> >::_Isnil
_TEXT	ENDS
PUBLIC	?_Left@?$_Tree_val@V?$_Tmap_traits@HHU?$less@H@std@@V?$allocator@U?$pair@$$CBHH@std@@@2@$0A@@std@@@std@@SAAAPAU_Node@?$_Tree_nod@V?$_Tmap_traits@HHU?$less@H@std@@V?$allocator@U?$pair@$$CBHH@std@@@2@$0A@@std@@@2@PAU342@@Z ; std::_Tree_val<std::_Tmap_traits<int,int,std::less<int>,std::allocator<std::pair<int const ,int> >,0> >::_Left
; Function compile flags: /Ogtp
;	COMDAT ?_Left@?$_Tree_val@V?$_Tmap_traits@HHU?$less@H@std@@V?$allocator@U?$pair@$$CBHH@std@@@2@$0A@@std@@@std@@SAAAPAU_Node@?$_Tree_nod@V?$_Tmap_traits@HHU?$less@H@std@@V?$allocator@U?$pair@$$CBHH@std@@@2@$0A@@std@@@2@PAU342@@Z
_TEXT	SEGMENT
__Pnode$ = 8						; size = 4
?_Left@?$_Tree_val@V?$_Tmap_traits@HHU?$less@H@std@@V?$allocator@U?$pair@$$CBHH@std@@@2@$0A@@std@@@std@@SAAAPAU_Node@?$_Tree_nod@V?$_Tmap_traits@HHU?$less@H@std@@V?$allocator@U?$pair@$$CBHH@std@@@2@$0A@@std@@@2@PAU342@@Z PROC ; std::_Tree_val<std::_Tmap_traits<int,int,std::less<int>,std::allocator<std::pair<int const ,int> >,0> >::_Left, COMDAT

; 621  : 		{	// return reference to left pointer in node

  00000	55		 push	 ebp
  00001	8b ec		 mov	 ebp, esp

; 622  : 		return ((_Nodepref)(*_Pnode)._Left);

  00003	8b 45 08	 mov	 eax, DWORD PTR __Pnode$[ebp]

; 623  : 		}

  00006	5d		 pop	 ebp
  00007	c3		 ret	 0
?_Left@?$_Tree_val@V?$_Tmap_traits@HHU?$less@H@std@@V?$allocator@U?$pair@$$CBHH@std@@@2@$0A@@std@@@std@@SAAAPAU_Node@?$_Tree_nod@V?$_Tmap_traits@HHU?$less@H@std@@V?$allocator@U?$pair@$$CBHH@std@@@2@$0A@@std@@@2@PAU342@@Z ENDP ; std::_Tree_val<std::_Tmap_traits<int,int,std::less<int>,std::allocator<std::pair<int const ,int> >,0> >::_Left
_TEXT	ENDS
PUBLIC	?_Parent@?$_Tree_val@V?$_Tmap_traits@HHU?$less@H@std@@V?$allocator@U?$pair@$$CBHH@std@@@2@$0A@@std@@@std@@SAAAPAU_Node@?$_Tree_nod@V?$_Tmap_traits@HHU?$less@H@std@@V?$allocator@U?$pair@$$CBHH@std@@@2@$0A@@std@@@2@PAU342@@Z ; std::_Tree_val<std::_Tmap_traits<int,int,std::less<int>,std::allocator<std::pair<int const ,int> >,0> >::_Parent
; Function compile flags: /Ogtp
;	COMDAT ?_Parent@?$_Tree_val@V?$_Tmap_traits@HHU?$less@H@std@@V?$allocator@U?$pair@$$CBHH@std@@@2@$0A@@std@@@std@@SAAAPAU_Node@?$_Tree_nod@V?$_Tmap_traits@HHU?$less@H@std@@V?$allocator@U?$pair@$$CBHH@std@@@2@$0A@@std@@@2@PAU342@@Z
_TEXT	SEGMENT
__Pnode$ = 8						; size = 4
?_Parent@?$_Tree_val@V?$_Tmap_traits@HHU?$less@H@std@@V?$allocator@U?$pair@$$CBHH@std@@@2@$0A@@std@@@std@@SAAAPAU_Node@?$_Tree_nod@V?$_Tmap_traits@HHU?$less@H@std@@V?$allocator@U?$pair@$$CBHH@std@@@2@$0A@@std@@@2@PAU342@@Z PROC ; std::_Tree_val<std::_Tmap_traits<int,int,std::less<int>,std::allocator<std::pair<int const ,int> >,0> >::_Parent, COMDAT

; 626  : 		{	// return reference to parent pointer in node

  00000	55		 push	 ebp
  00001	8b ec		 mov	 ebp, esp

; 627  : 		return ((_Nodepref)(*_Pnode)._Parent);

  00003	8b 45 08	 mov	 eax, DWORD PTR __Pnode$[ebp]
  00006	83 c0 04	 add	 eax, 4

; 628  : 		}

  00009	5d		 pop	 ebp
  0000a	c3		 ret	 0
?_Parent@?$_Tree_val@V?$_Tmap_traits@HHU?$less@H@std@@V?$allocator@U?$pair@$$CBHH@std@@@2@$0A@@std@@@std@@SAAAPAU_Node@?$_Tree_nod@V?$_Tmap_traits@HHU?$less@H@std@@V?$allocator@U?$pair@$$CBHH@std@@@2@$0A@@std@@@2@PAU342@@Z ENDP ; std::_Tree_val<std::_Tmap_traits<int,int,std::less<int>,std::allocator<std::pair<int const ,int> >,0> >::_Parent
_TEXT	ENDS
PUBLIC	?_Right@?$_Tree_val@V?$_Tmap_traits@HHU?$less@H@std@@V?$allocator@U?$pair@$$CBHH@std@@@2@$0A@@std@@@std@@SAAAPAU_Node@?$_Tree_nod@V?$_Tmap_traits@HHU?$less@H@std@@V?$allocator@U?$pair@$$CBHH@std@@@2@$0A@@std@@@2@PAU342@@Z ; std::_Tree_val<std::_Tmap_traits<int,int,std::less<int>,std::allocator<std::pair<int const ,int> >,0> >::_Right
; Function compile flags: /Ogtp
;	COMDAT ?_Right@?$_Tree_val@V?$_Tmap_traits@HHU?$less@H@std@@V?$allocator@U?$pair@$$CBHH@std@@@2@$0A@@std@@@std@@SAAAPAU_Node@?$_Tree_nod@V?$_Tmap_traits@HHU?$less@H@std@@V?$allocator@U?$pair@$$CBHH@std@@@2@$0A@@std@@@2@PAU342@@Z
_TEXT	SEGMENT
__Pnode$ = 8						; size = 4
?_Right@?$_Tree_val@V?$_Tmap_traits@HHU?$less@H@std@@V?$allocator@U?$pair@$$CBHH@std@@@2@$0A@@std@@@std@@SAAAPAU_Node@?$_Tree_nod@V?$_Tmap_traits@HHU?$less@H@std@@V?$allocator@U?$pair@$$CBHH@std@@@2@$0A@@std@@@2@PAU342@@Z PROC ; std::_Tree_val<std::_Tmap_traits<int,int,std::less<int>,std::allocator<std::pair<int const ,int> >,0> >::_Right, COMDAT

; 631  : 		{	// return reference to right pointer in node

  00000	55		 push	 ebp
  00001	8b ec		 mov	 ebp, esp

; 632  : 		return ((_Nodepref)(*_Pnode)._Right);

  00003	8b 45 08	 mov	 eax, DWORD PTR __Pnode$[ebp]
  00006	83 c0 08	 add	 eax, 8

; 633  : 		}

  00009	5d		 pop	 ebp
  0000a	c3		 ret	 0
?_Right@?$_Tree_val@V?$_Tmap_traits@HHU?$less@H@std@@V?$allocator@U?$pair@$$CBHH@std@@@2@$0A@@std@@@std@@SAAAPAU_Node@?$_Tree_nod@V?$_Tmap_traits@HHU?$less@H@std@@V?$allocator@U?$pair@$$CBHH@std@@@2@$0A@@std@@@2@PAU342@@Z ENDP ; std::_Tree_val<std::_Tmap_traits<int,int,std::less<int>,std::allocator<std::pair<int const ,int> >,0> >::_Right
_TEXT	ENDS
PUBLIC	?_Myval@?$_Tree_val@V?$_Tmap_traits@HHU?$less@H@std@@V?$allocator@U?$pair@$$CBHH@std@@@2@$0A@@std@@@std@@SAAAU?$pair@$$CBHH@2@PAU_Node@?$_Tree_nod@V?$_Tmap_traits@HHU?$less@H@std@@V?$allocator@U?$pair@$$CBHH@std@@@2@$0A@@std@@@2@@Z ; std::_Tree_val<std::_Tmap_traits<int,int,std::less<int>,std::allocator<std::pair<int const ,int> >,0> >::_Myval
; Function compile flags: /Ogtp
;	COMDAT ?_Myval@?$_Tree_val@V?$_Tmap_traits@HHU?$less@H@std@@V?$allocator@U?$pair@$$CBHH@std@@@2@$0A@@std@@@std@@SAAAU?$pair@$$CBHH@2@PAU_Node@?$_Tree_nod@V?$_Tmap_traits@HHU?$less@H@std@@V?$allocator@U?$pair@$$CBHH@std@@@2@$0A@@std@@@2@@Z
_TEXT	SEGMENT
__Pnode$ = 8						; size = 4
?_Myval@?$_Tree_val@V?$_Tmap_traits@HHU?$less@H@std@@V?$allocator@U?$pair@$$CBHH@std@@@2@$0A@@std@@@std@@SAAAU?$pair@$$CBHH@2@PAU_Node@?$_Tree_nod@V?$_Tmap_traits@HHU?$less@H@std@@V?$allocator@U?$pair@$$CBHH@std@@@2@$0A@@std@@@2@@Z PROC ; std::_Tree_val<std::_Tmap_traits<int,int,std::less<int>,std::allocator<std::pair<int const ,int> >,0> >::_Myval, COMDAT

; 636  : 		{	// return reference to value in node

  00000	55		 push	 ebp
  00001	8b ec		 mov	 ebp, esp

; 637  : 		return ((reference)(*_Pnode)._Myval);

  00003	8b 45 08	 mov	 eax, DWORD PTR __Pnode$[ebp]
  00006	83 c0 0c	 add	 eax, 12			; 0000000cH

; 638  : 		}

  00009	5d		 pop	 ebp
  0000a	c3		 ret	 0
?_Myval@?$_Tree_val@V?$_Tmap_traits@HHU?$less@H@std@@V?$allocator@U?$pair@$$CBHH@std@@@2@$0A@@std@@@std@@SAAAU?$pair@$$CBHH@2@PAU_Node@?$_Tree_nod@V?$_Tmap_traits@HHU?$less@H@std@@V?$allocator@U?$pair@$$CBHH@std@@@2@$0A@@std@@@2@@Z ENDP ; std::_Tree_val<std::_Tmap_traits<int,int,std::less<int>,std::allocator<std::pair<int const ,int> >,0> >::_Myval
_TEXT	ENDS
PUBLIC	??0?$allocator@U?$pair@$$CBHH@std@@@std@@QAE@ABV01@@Z ; std::allocator<std::pair<int const ,int> >::allocator<std::pair<int const ,int> >
; Function compile flags: /Ogtp
; File d:\program files (x86)\microsoft visual studio 10.0\vc\include\xmemory
;	COMDAT ??0?$allocator@U?$pair@$$CBHH@std@@@std@@QAE@ABV01@@Z
_TEXT	SEGMENT
___formal$ = 8						; size = 4
??0?$allocator@U?$pair@$$CBHH@std@@@std@@QAE@ABV01@@Z PROC ; std::allocator<std::pair<int const ,int> >::allocator<std::pair<int const ,int> >, COMDAT
; _this$ = ecx

; 165  : 	_ALLOCATOR(const _ALLOCATOR<_Ty>&) _THROW0()

  00000	8b c1		 mov	 eax, ecx

; 166  : 		{	// construct by copying (do nothing)
; 167  : 		}

  00002	c2 04 00	 ret	 4
??0?$allocator@U?$pair@$$CBHH@std@@@std@@QAE@ABV01@@Z ENDP ; std::allocator<std::pair<int const ,int> >::allocator<std::pair<int const ,int> >
_TEXT	ENDS
PUBLIC	?deallocate@?$allocator@U_Node@?$_Tree_nod@V?$_Tmap_traits@HHU?$less@H@std@@V?$allocator@U?$pair@$$CBHH@std@@@2@$0A@@std@@@std@@@std@@QAEXPAU_Node@?$_Tree_nod@V?$_Tmap_traits@HHU?$less@H@std@@V?$allocator@U?$pair@$$CBHH@std@@@2@$0A@@std@@@2@I@Z ; std::allocator<std::_Tree_nod<std::_Tmap_traits<int,int,std::less<int>,std::allocator<std::pair<int const ,int> >,0> >::_Node>::deallocate
EXTRN	??3@YAXPAX@Z:PROC				; operator delete
; Function compile flags: /Ogtp
;	COMDAT ?deallocate@?$allocator@U_Node@?$_Tree_nod@V?$_Tmap_traits@HHU?$less@H@std@@V?$allocator@U?$pair@$$CBHH@std@@@2@$0A@@std@@@std@@@std@@QAEXPAU_Node@?$_Tree_nod@V?$_Tmap_traits@HHU?$less@H@std@@V?$allocator@U?$pair@$$CBHH@std@@@2@$0A@@std@@@2@I@Z
_TEXT	SEGMENT
__Ptr$ = 8						; size = 4
___formal$ = 12						; size = 4
?deallocate@?$allocator@U_Node@?$_Tree_nod@V?$_Tmap_traits@HHU?$less@H@std@@V?$allocator@U?$pair@$$CBHH@std@@@2@$0A@@std@@@std@@@std@@QAEXPAU_Node@?$_Tree_nod@V?$_Tmap_traits@HHU?$less@H@std@@V?$allocator@U?$pair@$$CBHH@std@@@2@$0A@@std@@@2@I@Z PROC ; std::allocator<std::_Tree_nod<std::_Tmap_traits<int,int,std::less<int>,std::allocator<std::pair<int const ,int> >,0> >::_Node>::deallocate, COMDAT
; _this$ = ecx

; 181  : 		{	// deallocate object at _Ptr, ignore size

  00000	55		 push	 ebp
  00001	8b ec		 mov	 ebp, esp

; 182  : 		::operator delete(_Ptr);

  00003	8b 45 08	 mov	 eax, DWORD PTR __Ptr$[ebp]
  00006	50		 push	 eax
  00007	e8 00 00 00 00	 call	 ??3@YAXPAX@Z		; operator delete
  0000c	83 c4 04	 add	 esp, 4

; 183  : 		}

  0000f	5d		 pop	 ebp
  00010	c2 08 00	 ret	 8
?deallocate@?$allocator@U_Node@?$_Tree_nod@V?$_Tmap_traits@HHU?$less@H@std@@V?$allocator@U?$pair@$$CBHH@std@@@2@$0A@@std@@@std@@@std@@QAEXPAU_Node@?$_Tree_nod@V?$_Tmap_traits@HHU?$less@H@std@@V?$allocator@U?$pair@$$CBHH@std@@@2@$0A@@std@@@2@I@Z ENDP ; std::allocator<std::_Tree_nod<std::_Tmap_traits<int,int,std::less<int>,std::allocator<std::pair<int const ,int> >,0> >::_Node>::deallocate
_TEXT	ENDS
PUBLIC	??D?$_Tree_const_iterator@V?$_Tree_val@V?$_Tmap_traits@HHU?$less@H@std@@V?$allocator@U?$pair@$$CBHH@std@@@2@$0A@@std@@@std@@@std@@QBEABU?$pair@$$CBHH@1@XZ ; std::_Tree_const_iterator<std::_Tree_val<std::_Tmap_traits<int,int,std::less<int>,std::allocator<std::pair<int const ,int> >,0> > >::operator*
; Function compile flags: /Ogtp
; File d:\program files (x86)\microsoft visual studio 10.0\vc\include\xtree
;	COMDAT ??D?$_Tree_const_iterator@V?$_Tree_val@V?$_Tmap_traits@HHU?$less@H@std@@V?$allocator@U?$pair@$$CBHH@std@@@2@$0A@@std@@@std@@@std@@QBEABU?$pair@$$CBHH@1@XZ
_TEXT	SEGMENT
??D?$_Tree_const_iterator@V?$_Tree_val@V?$_Tmap_traits@HHU?$less@H@std@@V?$allocator@U?$pair@$$CBHH@std@@@2@$0A@@std@@@std@@@std@@QBEABU?$pair@$$CBHH@1@XZ PROC ; std::_Tree_const_iterator<std::_Tree_val<std::_Tmap_traits<int,int,std::less<int>,std::allocator<std::pair<int const ,int> >,0> > >::operator*, COMDAT
; _this$ = ecx

; 231  :  #if _ITERATOR_DEBUG_LEVEL == 2
; 232  : 		if (this->_Getcont() == 0
; 233  : 			|| this->_Ptr == 0
; 234  : 			|| this->_Ptr == ((_Mytree *)this->_Getcont())->_Myhead)
; 235  : 			{	// report error
; 236  : 			_DEBUG_ERROR("map/set iterator not dereferencable");
; 237  : 			_SCL_SECURE_OUT_OF_RANGE;
; 238  : 			}
; 239  : 
; 240  :  #elif _ITERATOR_DEBUG_LEVEL == 1
; 241  : 		_SCL_SECURE_VALIDATE(this->_Getcont() != 0 && this->_Ptr != 0);
; 242  : 		_SCL_SECURE_VALIDATE_RANGE(this->_Ptr !=
; 243  : 			((_Mytree *)this->_Getcont())->_Myhead);
; 244  :  #endif /* _ITERATOR_DEBUG_LEVEL */
; 245  : 
; 246  : 		return (_Mytree::_Myval(this->_Ptr));

  00000	8b 01		 mov	 eax, DWORD PTR [ecx]
  00002	83 c0 0c	 add	 eax, 12			; 0000000cH

; 247  : 		}

  00005	c3		 ret	 0
??D?$_Tree_const_iterator@V?$_Tree_val@V?$_Tmap_traits@HHU?$less@H@std@@V?$allocator@U?$pair@$$CBHH@std@@@2@$0A@@std@@@std@@@std@@QBEABU?$pair@$$CBHH@1@XZ ENDP ; std::_Tree_const_iterator<std::_Tree_val<std::_Tmap_traits<int,int,std::less<int>,std::allocator<std::pair<int const ,int> >,0> > >::operator*
_TEXT	ENDS
PUBLIC	?_Color@?$_Tree_val@V?$_Tmap_traits@HHU?$less@H@std@@V?$allocator@U?$pair@$$CBHH@std@@@2@$0A@@std@@@std@@SAAADPAU_Node@?$_Tree_nod@V?$_Tmap_traits@HHU?$less@H@std@@V?$allocator@U?$pair@$$CBHH@std@@@2@$0A@@std@@@2@@Z ; std::_Tree_val<std::_Tmap_traits<int,int,std::less<int>,std::allocator<std::pair<int const ,int> >,0> >::_Color
; Function compile flags: /Ogtp
;	COMDAT ?_Color@?$_Tree_val@V?$_Tmap_traits@HHU?$less@H@std@@V?$allocator@U?$pair@$$CBHH@std@@@2@$0A@@std@@@std@@SAAADPAU_Node@?$_Tree_nod@V?$_Tmap_traits@HHU?$less@H@std@@V?$allocator@U?$pair@$$CBHH@std@@@2@$0A@@std@@@2@@Z
_TEXT	SEGMENT
__Pnode$ = 8						; size = 4
?_Color@?$_Tree_val@V?$_Tmap_traits@HHU?$less@H@std@@V?$allocator@U?$pair@$$CBHH@std@@@2@$0A@@std@@@std@@SAAADPAU_Node@?$_Tree_nod@V?$_Tmap_traits@HHU?$less@H@std@@V?$allocator@U?$pair@$$CBHH@std@@@2@$0A@@std@@@2@@Z PROC ; std::_Tree_val<std::_Tmap_traits<int,int,std::less<int>,std::allocator<std::pair<int const ,int> >,0> >::_Color, COMDAT

; 606  : 		{	// return reference to color in node

  00000	55		 push	 ebp
  00001	8b ec		 mov	 ebp, esp

; 607  : 		return ((char&)(*_Pnode)._Color);

  00003	8b 45 08	 mov	 eax, DWORD PTR __Pnode$[ebp]
  00006	83 c0 14	 add	 eax, 20			; 00000014H

; 608  : 		}

  00009	5d		 pop	 ebp
  0000a	c3		 ret	 0
?_Color@?$_Tree_val@V?$_Tmap_traits@HHU?$less@H@std@@V?$allocator@U?$pair@$$CBHH@std@@@2@$0A@@std@@@std@@SAAADPAU_Node@?$_Tree_nod@V?$_Tmap_traits@HHU?$less@H@std@@V?$allocator@U?$pair@$$CBHH@std@@@2@$0A@@std@@@2@@Z ENDP ; std::_Tree_val<std::_Tmap_traits<int,int,std::less<int>,std::allocator<std::pair<int const ,int> >,0> >::_Color
_TEXT	ENDS
PUBLIC	?_Max@?$_Tree_val@V?$_Tmap_traits@HHU?$less@H@std@@V?$allocator@U?$pair@$$CBHH@std@@@2@$0A@@std@@@std@@SAPAU_Node@?$_Tree_nod@V?$_Tmap_traits@HHU?$less@H@std@@V?$allocator@U?$pair@$$CBHH@std@@@2@$0A@@std@@@2@PAU342@@Z ; std::_Tree_val<std::_Tmap_traits<int,int,std::less<int>,std::allocator<std::pair<int const ,int> >,0> >::_Max
; Function compile flags: /Ogtp
;	COMDAT ?_Max@?$_Tree_val@V?$_Tmap_traits@HHU?$less@H@std@@V?$allocator@U?$pair@$$CBHH@std@@@2@$0A@@std@@@std@@SAPAU_Node@?$_Tree_nod@V?$_Tmap_traits@HHU?$less@H@std@@V?$allocator@U?$pair@$$CBHH@std@@@2@$0A@@std@@@2@PAU342@@Z
_TEXT	SEGMENT
__Pnode$ = 8						; size = 4
?_Max@?$_Tree_val@V?$_Tmap_traits@HHU?$less@H@std@@V?$allocator@U?$pair@$$CBHH@std@@@2@$0A@@std@@@std@@SAPAU_Node@?$_Tree_nod@V?$_Tmap_traits@HHU?$less@H@std@@V?$allocator@U?$pair@$$CBHH@std@@@2@$0A@@std@@@2@PAU342@@Z PROC ; std::_Tree_val<std::_Tmap_traits<int,int,std::less<int>,std::allocator<std::pair<int const ,int> >,0> >::_Max, COMDAT

; 641  : 		{	// return rightmost node in subtree at _Pnode

  00000	55		 push	 ebp
  00001	8b ec		 mov	 ebp, esp

; 642  : 		while (!_Isnil(_Right(_Pnode)))

  00003	8b 45 08	 mov	 eax, DWORD PTR __Pnode$[ebp]
  00006	8b 48 08	 mov	 ecx, DWORD PTR [eax+8]
  00009	80 79 15 00	 cmp	 BYTE PTR [ecx+21], 0
  0000d	75 0c		 jne	 SHORT $LN1@Max
  0000f	90		 npad	 1
$LL2@Max:

; 643  : 			_Pnode = _Right(_Pnode);

  00010	8b c1		 mov	 eax, ecx
  00012	8b 48 08	 mov	 ecx, DWORD PTR [eax+8]
  00015	80 79 15 00	 cmp	 BYTE PTR [ecx+21], 0
  00019	74 f5		 je	 SHORT $LL2@Max
$LN1@Max:

; 644  : 		return (_Pnode);
; 645  : 		}

  0001b	5d		 pop	 ebp
  0001c	c3		 ret	 0
?_Max@?$_Tree_val@V?$_Tmap_traits@HHU?$less@H@std@@V?$allocator@U?$pair@$$CBHH@std@@@2@$0A@@std@@@std@@SAPAU_Node@?$_Tree_nod@V?$_Tmap_traits@HHU?$less@H@std@@V?$allocator@U?$pair@$$CBHH@std@@@2@$0A@@std@@@2@PAU342@@Z ENDP ; std::_Tree_val<std::_Tmap_traits<int,int,std::less<int>,std::allocator<std::pair<int const ,int> >,0> >::_Max
_TEXT	ENDS
PUBLIC	?_Min@?$_Tree_val@V?$_Tmap_traits@HHU?$less@H@std@@V?$allocator@U?$pair@$$CBHH@std@@@2@$0A@@std@@@std@@SAPAU_Node@?$_Tree_nod@V?$_Tmap_traits@HHU?$less@H@std@@V?$allocator@U?$pair@$$CBHH@std@@@2@$0A@@std@@@2@PAU342@@Z ; std::_Tree_val<std::_Tmap_traits<int,int,std::less<int>,std::allocator<std::pair<int const ,int> >,0> >::_Min
; Function compile flags: /Ogtp
;	COMDAT ?_Min@?$_Tree_val@V?$_Tmap_traits@HHU?$less@H@std@@V?$allocator@U?$pair@$$CBHH@std@@@2@$0A@@std@@@std@@SAPAU_Node@?$_Tree_nod@V?$_Tmap_traits@HHU?$less@H@std@@V?$allocator@U?$pair@$$CBHH@std@@@2@$0A@@std@@@2@PAU342@@Z
_TEXT	SEGMENT
__Pnode$ = 8						; size = 4
?_Min@?$_Tree_val@V?$_Tmap_traits@HHU?$less@H@std@@V?$allocator@U?$pair@$$CBHH@std@@@2@$0A@@std@@@std@@SAPAU_Node@?$_Tree_nod@V?$_Tmap_traits@HHU?$less@H@std@@V?$allocator@U?$pair@$$CBHH@std@@@2@$0A@@std@@@2@PAU342@@Z PROC ; std::_Tree_val<std::_Tmap_traits<int,int,std::less<int>,std::allocator<std::pair<int const ,int> >,0> >::_Min, COMDAT

; 648  : 		{	// return leftmost node in subtree at _Pnode

  00000	55		 push	 ebp
  00001	8b ec		 mov	 ebp, esp

; 649  : 		while (!_Isnil(_Left(_Pnode)))

  00003	8b 45 08	 mov	 eax, DWORD PTR __Pnode$[ebp]
  00006	8b 08		 mov	 ecx, DWORD PTR [eax]
  00008	80 79 15 00	 cmp	 BYTE PTR [ecx+21], 0
  0000c	75 0c		 jne	 SHORT $LN1@Min
  0000e	8b ff		 npad	 2
$LL2@Min:

; 650  : 			_Pnode = _Left(_Pnode);

  00010	8b c1		 mov	 eax, ecx
  00012	8b 08		 mov	 ecx, DWORD PTR [eax]
  00014	80 79 15 00	 cmp	 BYTE PTR [ecx+21], 0
  00018	74 f6		 je	 SHORT $LL2@Min
$LN1@Min:

; 651  : 		return (_Pnode);
; 652  : 		}

  0001a	5d		 pop	 ebp
  0001b	c3		 ret	 0
?_Min@?$_Tree_val@V?$_Tmap_traits@HHU?$less@H@std@@V?$allocator@U?$pair@$$CBHH@std@@@2@$0A@@std@@@std@@SAPAU_Node@?$_Tree_nod@V?$_Tmap_traits@HHU?$less@H@std@@V?$allocator@U?$pair@$$CBHH@std@@@2@$0A@@std@@@2@PAU342@@Z ENDP ; std::_Tree_val<std::_Tmap_traits<int,int,std::less<int>,std::allocator<std::pair<int const ,int> >,0> >::_Min
_TEXT	ENDS
PUBLIC	??0?$_Tmap_traits@HHU?$less@H@std@@V?$allocator@U?$pair@$$CBHH@std@@@2@$0A@@std@@QAE@U?$less@H@1@@Z ; std::_Tmap_traits<int,int,std::less<int>,std::allocator<std::pair<int const ,int> >,0>::_Tmap_traits<int,int,std::less<int>,std::allocator<std::pair<int const ,int> >,0>
; Function compile flags: /Ogtp
; File d:\program files (x86)\microsoft visual studio 10.0\vc\include\map
;	COMDAT ??0?$_Tmap_traits@HHU?$less@H@std@@V?$allocator@U?$pair@$$CBHH@std@@@2@$0A@@std@@QAE@U?$less@H@1@@Z
_TEXT	SEGMENT
__Parg$ = 8						; size = 1
??0?$_Tmap_traits@HHU?$less@H@std@@V?$allocator@U?$pair@$$CBHH@std@@@2@$0A@@std@@QAE@U?$less@H@1@@Z PROC ; std::_Tmap_traits<int,int,std::less<int>,std::allocator<std::pair<int const ,int> >,0>::_Tmap_traits<int,int,std::less<int>,std::allocator<std::pair<int const ,int> >,0>, COMDAT
; _this$ = ecx

; 40   : 		{	// construct with specified comparator

  00000	8b c1		 mov	 eax, ecx

; 41   : 		}

  00002	c2 04 00	 ret	 4
??0?$_Tmap_traits@HHU?$less@H@std@@V?$allocator@U?$pair@$$CBHH@std@@@2@$0A@@std@@QAE@U?$less@H@1@@Z ENDP ; std::_Tmap_traits<int,int,std::less<int>,std::allocator<std::pair<int const ,int> >,0>::_Tmap_traits<int,int,std::less<int>,std::allocator<std::pair<int const ,int> >,0>
_TEXT	ENDS
PUBLIC	??E?$_Tree_unchecked_const_iterator@V?$_Tree_val@V?$_Tmap_traits@HHU?$less@H@std@@V?$allocator@U?$pair@$$CBHH@std@@@2@$0A@@std@@@std@@U_Iterator_base0@2@@std@@QAEAAV01@XZ ; std::_Tree_unchecked_const_iterator<std::_Tree_val<std::_Tmap_traits<int,int,std::less<int>,std::allocator<std::pair<int const ,int> >,0> >,std::_Iterator_base0>::operator++
; Function compile flags: /Ogtp
; File d:\program files (x86)\microsoft visual studio 10.0\vc\include\xtree
;	COMDAT ??E?$_Tree_unchecked_const_iterator@V?$_Tree_val@V?$_Tmap_traits@HHU?$less@H@std@@V?$allocator@U?$pair@$$CBHH@std@@@2@$0A@@std@@@std@@U_Iterator_base0@2@@std@@QAEAAV01@XZ
_TEXT	SEGMENT
??E?$_Tree_unchecked_const_iterator@V?$_Tree_val@V?$_Tmap_traits@HHU?$less@H@std@@V?$allocator@U?$pair@$$CBHH@std@@@2@$0A@@std@@@std@@U_Iterator_base0@2@@std@@QAEAAV01@XZ PROC ; std::_Tree_unchecked_const_iterator<std::_Tree_val<std::_Tmap_traits<int,int,std::less<int>,std::allocator<std::pair<int const ,int> >,0> >,std::_Iterator_base0>::operator++, COMDAT
; _this$ = ecx

; 58   : 		{	// preincrement

  00000	8b c1		 mov	 eax, ecx

; 59   : 		if (_Mytree::_Isnil(_Ptr))

  00002	8b 10		 mov	 edx, DWORD PTR [eax]
  00004	80 7a 15 00	 cmp	 BYTE PTR [edx+21], 0
  00008	75 40		 jne	 SHORT $LN3@operator

; 60   : 			;	// end() shouldn't be incremented, don't move
; 61   : 		else if (!_Mytree::_Isnil(_Mytree::_Right(_Ptr)))

  0000a	8b 4a 08	 mov	 ecx, DWORD PTR [edx+8]
  0000d	80 79 15 00	 cmp	 BYTE PTR [ecx+21], 0
  00011	75 1a		 jne	 SHORT $LN34@operator

; 62   : 			_Ptr = _Mytree::_Min(
; 63   : 				_Mytree::_Right(_Ptr));	// ==> smallest of right subtree

  00013	8b 11		 mov	 edx, DWORD PTR [ecx]
  00015	80 7a 15 00	 cmp	 BYTE PTR [edx+21], 0
  00019	75 0f		 jne	 SHORT $LN17@operator
  0001b	eb 03 8d 49 00	 npad	 5
$LL18@operator:
  00020	8b ca		 mov	 ecx, edx
  00022	8b 11		 mov	 edx, DWORD PTR [ecx]
  00024	80 7a 15 00	 cmp	 BYTE PTR [edx+21], 0
  00028	74 f6		 je	 SHORT $LL18@operator
$LN17@operator:
  0002a	89 08		 mov	 DWORD PTR [eax], ecx

; 71   : 			}
; 72   : 		return (*this);
; 73   : 		}

  0002c	c3		 ret	 0
$LN34@operator:

; 64   : 		else
; 65   : 			{	// climb looking for right subtree
; 66   : 			_Nodeptr _Pnode;
; 67   : 			while (!_Mytree::_Isnil(_Pnode = _Mytree::_Parent(_Ptr))
; 68   : 				&& _Ptr == _Mytree::_Right(_Pnode))

  0002d	8b 52 04	 mov	 edx, DWORD PTR [edx+4]
  00030	80 7a 15 00	 cmp	 BYTE PTR [edx+21], 0
  00034	75 12		 jne	 SHORT $LN1@operator
$LL2@operator:
  00036	8b 08		 mov	 ecx, DWORD PTR [eax]
  00038	3b 4a 08	 cmp	 ecx, DWORD PTR [edx+8]
  0003b	75 0b		 jne	 SHORT $LN1@operator

; 69   : 				_Ptr = _Pnode;	// ==> parent while right subtree

  0003d	89 10		 mov	 DWORD PTR [eax], edx
  0003f	8b 52 04	 mov	 edx, DWORD PTR [edx+4]
  00042	80 7a 15 00	 cmp	 BYTE PTR [edx+21], 0
  00046	74 ee		 je	 SHORT $LL2@operator
$LN1@operator:

; 70   : 			_Ptr = _Pnode;	// ==> parent (head if end())

  00048	89 10		 mov	 DWORD PTR [eax], edx
$LN3@operator:

; 71   : 			}
; 72   : 		return (*this);
; 73   : 		}

  0004a	c3		 ret	 0
??E?$_Tree_unchecked_const_iterator@V?$_Tree_val@V?$_Tmap_traits@HHU?$less@H@std@@V?$allocator@U?$pair@$$CBHH@std@@@2@$0A@@std@@@std@@U_Iterator_base0@2@@std@@QAEAAV01@XZ ENDP ; std::_Tree_unchecked_const_iterator<std::_Tree_val<std::_Tmap_traits<int,int,std::less<int>,std::allocator<std::pair<int const ,int> >,0> >,std::_Iterator_base0>::operator++
_TEXT	ENDS
PUBLIC	??$addressof@U?$pair@$$CBHH@std@@@std@@YAPAU?$pair@$$CBHH@0@AAU10@@Z ; std::addressof<std::pair<int const ,int> >
; Function compile flags: /Ogtp
; File d:\program files (x86)\microsoft visual studio 10.0\vc\include\xmemory
;	COMDAT ??$addressof@U?$pair@$$CBHH@std@@@std@@YAPAU?$pair@$$CBHH@0@AAU10@@Z
_TEXT	SEGMENT
__Val$ = 8						; size = 4
??$addressof@U?$pair@$$CBHH@std@@@std@@YAPAU?$pair@$$CBHH@0@AAU10@@Z PROC ; std::addressof<std::pair<int const ,int> >, COMDAT

; 110  : 	{	// return address of _Val

  00000	55		 push	 ebp
  00001	8b ec		 mov	 ebp, esp

; 111  : 	return ((_Ty *) &(char&)_Val);

  00003	8b 45 08	 mov	 eax, DWORD PTR __Val$[ebp]

; 112  : 	}

  00006	5d		 pop	 ebp
  00007	c3		 ret	 0
??$addressof@U?$pair@$$CBHH@std@@@std@@YAPAU?$pair@$$CBHH@0@AAU10@@Z ENDP ; std::addressof<std::pair<int const ,int> >
_TEXT	ENDS
PUBLIC	??$_Kfn@$$CBHH@?$_Tmap_traits@HHU?$less@H@std@@V?$allocator@U?$pair@$$CBHH@std@@@2@$0A@@std@@SAABHABU?$pair@$$CBHH@1@@Z ; std::_Tmap_traits<int,int,std::less<int>,std::allocator<std::pair<int const ,int> >,0>::_Kfn<int const ,int>
; Function compile flags: /Ogtp
; File d:\program files (x86)\microsoft visual studio 10.0\vc\include\map
;	COMDAT ??$_Kfn@$$CBHH@?$_Tmap_traits@HHU?$less@H@std@@V?$allocator@U?$pair@$$CBHH@std@@@2@$0A@@std@@SAABHABU?$pair@$$CBHH@1@@Z
_TEXT	SEGMENT
__Val$ = 8						; size = 4
??$_Kfn@$$CBHH@?$_Tmap_traits@HHU?$less@H@std@@V?$allocator@U?$pair@$$CBHH@std@@@2@$0A@@std@@SAABHABU?$pair@$$CBHH@1@@Z PROC ; std::_Tmap_traits<int,int,std::less<int>,std::allocator<std::pair<int const ,int> >,0>::_Kfn<int const ,int>, COMDAT

; 66   : 		static const _Kty& _Kfn(const _STD pair<_Ty1, _Ty2>& _Val)

  00000	55		 push	 ebp
  00001	8b ec		 mov	 ebp, esp

; 67   : 		{	// extract key from element value
; 68   : 		return (_Val.first);

  00003	8b 45 08	 mov	 eax, DWORD PTR __Val$[ebp]

; 69   : 		}

  00006	5d		 pop	 ebp
  00007	c3		 ret	 0
??$_Kfn@$$CBHH@?$_Tmap_traits@HHU?$less@H@std@@V?$allocator@U?$pair@$$CBHH@std@@@2@$0A@@std@@SAABHABU?$pair@$$CBHH@1@@Z ENDP ; std::_Tmap_traits<int,int,std::less<int>,std::allocator<std::pair<int const ,int> >,0>::_Kfn<int const ,int>
_TEXT	ENDS
PUBLIC	??$move@AAH@std@@YA$$QAHAAH@Z			; std::move<int &>
; Function compile flags: /Ogtp
; File d:\program files (x86)\microsoft visual studio 10.0\vc\include\utility
;	COMDAT ??$move@AAH@std@@YA$$QAHAAH@Z
_TEXT	SEGMENT
__Arg$ = 8						; size = 4
??$move@AAH@std@@YA$$QAHAAH@Z PROC			; std::move<int &>, COMDAT

; 86   : 	{	// forward _Arg as movable

  00000	55		 push	 ebp
  00001	8b ec		 mov	 ebp, esp

; 87   : 	return ((typename tr1::_Remove_reference<_Ty>::_Type&&)_Arg);

  00003	8b 45 08	 mov	 eax, DWORD PTR __Arg$[ebp]

; 88   : 	}

  00006	5d		 pop	 ebp
  00007	c3		 ret	 0
??$move@AAH@std@@YA$$QAHAAH@Z ENDP			; std::move<int &>
_TEXT	ENDS
PUBLIC	??$?0U?$pair@$$CBHH@std@@@?$allocator@U_Node@?$_Tree_nod@V?$_Tmap_traits@HHU?$less@H@std@@V?$allocator@U?$pair@$$CBHH@std@@@2@$0A@@std@@@std@@@std@@QAE@ABV?$allocator@U?$pair@$$CBHH@std@@@1@@Z ; std::allocator<std::_Tree_nod<std::_Tmap_traits<int,int,std::less<int>,std::allocator<std::pair<int const ,int> >,0> >::_Node>::allocator<std::_Tree_nod<std::_Tmap_traits<int,int,std::less<int>,std::allocator<std::pair<int const ,int> >,0> >::_Node><std::pair<int const ,int> >
; Function compile flags: /Ogtp
; File d:\program files (x86)\microsoft visual studio 10.0\vc\include\xmemory
;	COMDAT ??$?0U?$pair@$$CBHH@std@@@?$allocator@U_Node@?$_Tree_nod@V?$_Tmap_traits@HHU?$less@H@std@@V?$allocator@U?$pair@$$CBHH@std@@@2@$0A@@std@@@std@@@std@@QAE@ABV?$allocator@U?$pair@$$CBHH@std@@@1@@Z
_TEXT	SEGMENT
___formal$ = 8						; size = 4
??$?0U?$pair@$$CBHH@std@@@?$allocator@U_Node@?$_Tree_nod@V?$_Tmap_traits@HHU?$less@H@std@@V?$allocator@U?$pair@$$CBHH@std@@@2@$0A@@std@@@std@@@std@@QAE@ABV?$allocator@U?$pair@$$CBHH@std@@@1@@Z PROC ; std::allocator<std::_Tree_nod<std::_Tmap_traits<int,int,std::less<int>,std::allocator<std::pair<int const ,int> >,0> >::_Node>::allocator<std::_Tree_nod<std::_Tmap_traits<int,int,std::less<int>,std::allocator<std::pair<int const ,int> >,0> >::_Node><std::pair<int const ,int> >, COMDAT
; _this$ = ecx

; 170  : 		_ALLOCATOR(const _ALLOCATOR<_Other>&) _THROW0()

  00000	8b c1		 mov	 eax, ecx

; 171  : 		{	// construct from a related allocator (do nothing)
; 172  : 		}

  00002	c2 04 00	 ret	 4
??$?0U?$pair@$$CBHH@std@@@?$allocator@U_Node@?$_Tree_nod@V?$_Tmap_traits@HHU?$less@H@std@@V?$allocator@U?$pair@$$CBHH@std@@@2@$0A@@std@@@std@@@std@@QAE@ABV?$allocator@U?$pair@$$CBHH@std@@@1@@Z ENDP ; std::allocator<std::_Tree_nod<std::_Tmap_traits<int,int,std::less<int>,std::allocator<std::pair<int const ,int> >,0> >::_Node>::allocator<std::_Tree_nod<std::_Tmap_traits<int,int,std::less<int>,std::allocator<std::pair<int const ,int> >,0> >::_Node><std::pair<int const ,int> >
_TEXT	ENDS
PUBLIC	?size@?$_Tree@V?$_Tmap_traits@HHU?$less@H@std@@V?$allocator@U?$pair@$$CBHH@std@@@2@$0A@@std@@@std@@QBEIXZ ; std::_Tree<std::_Tmap_traits<int,int,std::less<int>,std::allocator<std::pair<int const ,int> >,0> >::size
; Function compile flags: /Ogtp
; File d:\program files (x86)\microsoft visual studio 10.0\vc\include\xtree
;	COMDAT ?size@?$_Tree@V?$_Tmap_traits@HHU?$less@H@std@@V?$allocator@U?$pair@$$CBHH@std@@@2@$0A@@std@@@std@@QBEIXZ
_TEXT	SEGMENT
?size@?$_Tree@V?$_Tmap_traits@HHU?$less@H@std@@V?$allocator@U?$pair@$$CBHH@std@@@2@$0A@@std@@@std@@QBEIXZ PROC ; std::_Tree<std::_Tmap_traits<int,int,std::less<int>,std::allocator<std::pair<int const ,int> >,0> >::size, COMDAT
; _this$ = ecx

; 869  : 		return (this->_Mysize);

  00000	8b 41 08	 mov	 eax, DWORD PTR [ecx+8]

; 870  : 		}

  00003	c3		 ret	 0
?size@?$_Tree@V?$_Tmap_traits@HHU?$less@H@std@@V?$allocator@U?$pair@$$CBHH@std@@@2@$0A@@std@@@std@@QBEIXZ ENDP ; std::_Tree<std::_Tmap_traits<int,int,std::less<int>,std::allocator<std::pair<int const ,int> >,0> >::size
_TEXT	ENDS
PUBLIC	??0?$_Tree_unchecked_const_iterator@V?$_Tree_val@V?$_Tmap_traits@HHU?$less@H@std@@V?$allocator@U?$pair@$$CBHH@std@@@2@$0A@@std@@@std@@U_Iterator_base0@2@@std@@QAE@XZ ; std::_Tree_unchecked_const_iterator<std::_Tree_val<std::_Tmap_traits<int,int,std::less<int>,std::allocator<std::pair<int const ,int> >,0> >,std::_Iterator_base0>::_Tree_unchecked_const_iterator<std::_Tree_val<std::_Tmap_traits<int,int,std::less<int>,std::allocator<std::pair<int const ,int> >,0> >,std::_Iterator_base0>
; Function compile flags: /Ogtp
;	COMDAT ??0?$_Tree_unchecked_const_iterator@V?$_Tree_val@V?$_Tmap_traits@HHU?$less@H@std@@V?$allocator@U?$pair@$$CBHH@std@@@2@$0A@@std@@@std@@U_Iterator_base0@2@@std@@QAE@XZ
_TEXT	SEGMENT
??0?$_Tree_unchecked_const_iterator@V?$_Tree_val@V?$_Tmap_traits@HHU?$less@H@std@@V?$allocator@U?$pair@$$CBHH@std@@@2@$0A@@std@@@std@@U_Iterator_base0@2@@std@@QAE@XZ PROC ; std::_Tree_unchecked_const_iterator<std::_Tree_val<std::_Tmap_traits<int,int,std::less<int>,std::allocator<std::pair<int const ,int> >,0> >,std::_Iterator_base0>::_Tree_unchecked_const_iterator<std::_Tree_val<std::_Tmap_traits<int,int,std::less<int>,std::allocator<std::pair<int const ,int> >,0> >,std::_Iterator_base0>, COMDAT
; _this$ = ecx

; 38   : 		{	// construct with null node pointer

  00000	8b c1		 mov	 eax, ecx
  00002	c7 00 00 00 00
	00		 mov	 DWORD PTR [eax], 0

; 39   : 		}

  00008	c3		 ret	 0
??0?$_Tree_unchecked_const_iterator@V?$_Tree_val@V?$_Tmap_traits@HHU?$less@H@std@@V?$allocator@U?$pair@$$CBHH@std@@@2@$0A@@std@@@std@@U_Iterator_base0@2@@std@@QAE@XZ ENDP ; std::_Tree_unchecked_const_iterator<std::_Tree_val<std::_Tmap_traits<int,int,std::less<int>,std::allocator<std::pair<int const ,int> >,0> >,std::_Iterator_base0>::_Tree_unchecked_const_iterator<std::_Tree_val<std::_Tmap_traits<int,int,std::less<int>,std::allocator<std::pair<int const ,int> >,0> >,std::_Iterator_base0>
_TEXT	ENDS
PUBLIC	??F?$_Tree_unchecked_const_iterator@V?$_Tree_val@V?$_Tmap_traits@HHU?$less@H@std@@V?$allocator@U?$pair@$$CBHH@std@@@2@$0A@@std@@@std@@U_Iterator_base0@2@@std@@QAEAAV01@XZ ; std::_Tree_unchecked_const_iterator<std::_Tree_val<std::_Tmap_traits<int,int,std::less<int>,std::allocator<std::pair<int const ,int> >,0> >,std::_Iterator_base0>::operator--
; Function compile flags: /Ogtp
;	COMDAT ??F?$_Tree_unchecked_const_iterator@V?$_Tree_val@V?$_Tmap_traits@HHU?$less@H@std@@V?$allocator@U?$pair@$$CBHH@std@@@2@$0A@@std@@@std@@U_Iterator_base0@2@@std@@QAEAAV01@XZ
_TEXT	SEGMENT
??F?$_Tree_unchecked_const_iterator@V?$_Tree_val@V?$_Tmap_traits@HHU?$less@H@std@@V?$allocator@U?$pair@$$CBHH@std@@@2@$0A@@std@@@std@@U_Iterator_base0@2@@std@@QAEAAV01@XZ PROC ; std::_Tree_unchecked_const_iterator<std::_Tree_val<std::_Tmap_traits<int,int,std::less<int>,std::allocator<std::pair<int const ,int> >,0> >,std::_Iterator_base0>::operator--, COMDAT
; _this$ = ecx

; 83   : 		{	// predecrement

  00000	8b c1		 mov	 eax, ecx

; 84   : 		if (_Mytree::_Isnil(_Ptr))

  00002	8b 08		 mov	 ecx, DWORD PTR [eax]
  00004	80 79 15 00	 cmp	 BYTE PTR [ecx+21], 0
  00008	74 06		 je	 SHORT $LN8@operator@2

; 85   : 			_Ptr = _Mytree::_Right(_Ptr);	// end() ==> rightmost

  0000a	8b 49 08	 mov	 ecx, DWORD PTR [ecx+8]
  0000d	89 08		 mov	 DWORD PTR [eax], ecx

; 99   : 			}
; 100  : 		return (*this);
; 101  : 		}

  0000f	c3		 ret	 0
$LN8@operator@2:

; 86   : 		else if (!_Mytree::_Isnil(_Mytree::_Left(_Ptr)))

  00010	8b 11		 mov	 edx, DWORD PTR [ecx]
  00012	80 7a 15 00	 cmp	 BYTE PTR [edx+21], 0
  00016	75 17		 jne	 SHORT $LN40@operator@2

; 87   : 			_Ptr = _Mytree::_Max(
; 88   : 				_Mytree::_Left(_Ptr));	// ==> largest of left subtree

  00018	8b 4a 08	 mov	 ecx, DWORD PTR [edx+8]
  0001b	80 79 15 00	 cmp	 BYTE PTR [ecx+21], 0
  0001f	75 30		 jne	 SHORT $LN21@operator@2
$LL22@operator@2:
  00021	8b d1		 mov	 edx, ecx
  00023	8b 4a 08	 mov	 ecx, DWORD PTR [edx+8]
  00026	80 79 15 00	 cmp	 BYTE PTR [ecx+21], 0
  0002a	74 f5		 je	 SHORT $LL22@operator@2

; 96   : 				;	// begin() shouldn't be decremented, don't move
; 97   : 			else
; 98   : 				_Ptr = _Pnode;	// ==> parent if not head

  0002c	89 10		 mov	 DWORD PTR [eax], edx

; 99   : 			}
; 100  : 		return (*this);
; 101  : 		}

  0002e	c3		 ret	 0
$LN40@operator@2:

; 89   : 		else
; 90   : 			{	// climb looking for left subtree
; 91   : 			_Nodeptr _Pnode;
; 92   : 			while (!_Mytree::_Isnil(_Pnode = _Mytree::_Parent(_Ptr))
; 93   : 				&& _Ptr == _Mytree::_Left(_Pnode))

  0002f	8b 51 04	 mov	 edx, DWORD PTR [ecx+4]
  00032	80 7a 15 00	 cmp	 BYTE PTR [edx+21], 0
  00036	75 11		 jne	 SHORT $LN3@operator@2
$LL4@operator@2:
  00038	8b 08		 mov	 ecx, DWORD PTR [eax]
  0003a	3b 0a		 cmp	 ecx, DWORD PTR [edx]
  0003c	75 0b		 jne	 SHORT $LN3@operator@2

; 94   : 				_Ptr = _Pnode;	// ==> parent while left subtree

  0003e	89 10		 mov	 DWORD PTR [eax], edx
  00040	8b 52 04	 mov	 edx, DWORD PTR [edx+4]
  00043	80 7a 15 00	 cmp	 BYTE PTR [edx+21], 0
  00047	74 ef		 je	 SHORT $LL4@operator@2
$LN3@operator@2:

; 95   : 			if (_Mytree::_Isnil(_Ptr))

  00049	8b 08		 mov	 ecx, DWORD PTR [eax]
  0004b	80 79 15 00	 cmp	 BYTE PTR [ecx+21], 0
  0004f	75 02		 jne	 SHORT $LN1@operator@2

; 87   : 			_Ptr = _Mytree::_Max(
; 88   : 				_Mytree::_Left(_Ptr));	// ==> largest of left subtree

$LN21@operator@2:

; 96   : 				;	// begin() shouldn't be decremented, don't move
; 97   : 			else
; 98   : 				_Ptr = _Pnode;	// ==> parent if not head

  00051	89 10		 mov	 DWORD PTR [eax], edx
$LN1@operator@2:

; 99   : 			}
; 100  : 		return (*this);
; 101  : 		}

  00053	c3		 ret	 0
??F?$_Tree_unchecked_const_iterator@V?$_Tree_val@V?$_Tmap_traits@HHU?$less@H@std@@V?$allocator@U?$pair@$$CBHH@std@@@2@$0A@@std@@@std@@U_Iterator_base0@2@@std@@QAEAAV01@XZ ENDP ; std::_Tree_unchecked_const_iterator<std::_Tree_val<std::_Tmap_traits<int,int,std::less<int>,std::allocator<std::pair<int const ,int> >,0> >,std::_Iterator_base0>::operator--
_TEXT	ENDS
PUBLIC	?max_size@?$allocator@U?$pair@$$CBHH@std@@@std@@QBEIXZ ; std::allocator<std::pair<int const ,int> >::max_size
; Function compile flags: /Ogtp
; File d:\program files (x86)\microsoft visual studio 10.0\vc\include\xmemory
;	COMDAT ?max_size@?$allocator@U?$pair@$$CBHH@std@@@std@@QBEIXZ
_TEXT	SEGMENT
?max_size@?$allocator@U?$pair@$$CBHH@std@@@std@@QBEIXZ PROC ; std::allocator<std::pair<int const ,int> >::max_size, COMDAT
; _this$ = ecx

; 218  : 		_SIZT _Count = (_SIZT)(-1) / sizeof (_Ty);
; 219  : 		return (0 < _Count ? _Count : 1);

  00000	b8 ff ff ff 1f	 mov	 eax, 536870911		; 1fffffffH

; 220  : 		}

  00005	c3		 ret	 0
?max_size@?$allocator@U?$pair@$$CBHH@std@@@std@@QBEIXZ ENDP ; std::allocator<std::pair<int const ,int> >::max_size
_TEXT	ENDS
PUBLIC	??$forward@U?$pair@$$CBHH@std@@@std@@YA$$QAU?$pair@$$CBHH@0@AAU10@@Z ; std::forward<std::pair<int const ,int> >
; Function compile flags: /Ogtp
; File d:\program files (x86)\microsoft visual studio 10.0\vc\include\utility
;	COMDAT ??$forward@U?$pair@$$CBHH@std@@@std@@YA$$QAU?$pair@$$CBHH@0@AAU10@@Z
_TEXT	SEGMENT
__Arg$ = 8						; size = 4
??$forward@U?$pair@$$CBHH@std@@@std@@YA$$QAU?$pair@$$CBHH@0@AAU10@@Z PROC ; std::forward<std::pair<int const ,int> >, COMDAT

; 78   : 	{	// forward _Arg, given explicitly specified type parameter

  00000	55		 push	 ebp
  00001	8b ec		 mov	 ebp, esp

; 79   : 	return ((_Ty&&)_Arg);

  00003	8b 45 08	 mov	 eax, DWORD PTR __Arg$[ebp]

; 80   : 	}

  00006	5d		 pop	 ebp
  00007	c3		 ret	 0
??$forward@U?$pair@$$CBHH@std@@@std@@YA$$QAU?$pair@$$CBHH@0@AAU10@@Z ENDP ; std::forward<std::pair<int const ,int> >
_TEXT	ENDS
PUBLIC	??$_Move@AAD@std@@YA$$QADAAD@Z			; std::_Move<char &>
; Function compile flags: /Ogtp
;	COMDAT ??$_Move@AAD@std@@YA$$QADAAD@Z
_TEXT	SEGMENT
__Arg$ = 8						; size = 4
??$_Move@AAD@std@@YA$$QADAAD@Z PROC			; std::_Move<char &>, COMDAT

; 94   : 	{	// forward _Arg as movable

  00000	55		 push	 ebp
  00001	8b ec		 mov	 ebp, esp

; 95   : 	return ((typename tr1::_Remove_reference<_Ty>::_Type&&)_Arg);

  00003	8b 45 08	 mov	 eax, DWORD PTR __Arg$[ebp]

; 96   : 	}

  00006	5d		 pop	 ebp
  00007	c3		 ret	 0
??$_Move@AAD@std@@YA$$QADAAD@Z ENDP			; std::_Move<char &>
_TEXT	ENDS
PUBLIC	??$_Destroy@U?$pair@$$CBHH@std@@@std@@YAXPAU?$pair@$$CBHH@0@@Z ; std::_Destroy<std::pair<int const ,int> >
; Function compile flags: /Ogtp
; File d:\program files (x86)\microsoft visual studio 10.0\vc\include\xmemory
;	COMDAT ??$_Destroy@U?$pair@$$CBHH@std@@@std@@YAXPAU?$pair@$$CBHH@0@@Z
_TEXT	SEGMENT
__Ptr$ = 8						; size = 4
??$_Destroy@U?$pair@$$CBHH@std@@@std@@YAXPAU?$pair@$$CBHH@0@@Z PROC ; std::_Destroy<std::pair<int const ,int> >, COMDAT

; 63   : 	_Ptr->~_Ty();
; 64   : 	}

  00000	c3		 ret	 0
??$_Destroy@U?$pair@$$CBHH@std@@@std@@YAXPAU?$pair@$$CBHH@0@@Z ENDP ; std::_Destroy<std::pair<int const ,int> >
_TEXT	ENDS
PUBLIC	??$move@AAV?$_Tree_iterator@V?$_Tree_val@V?$_Tmap_traits@HHU?$less@H@std@@V?$allocator@U?$pair@$$CBHH@std@@@2@$0A@@std@@@std@@@std@@@std@@YA$$QAV?$_Tree_iterator@V?$_Tree_val@V?$_Tmap_traits@HHU?$less@H@std@@V?$allocator@U?$pair@$$CBHH@std@@@2@$0A@@std@@@std@@@0@AAV10@@Z ; std::move<std::_Tree_iterator<std::_Tree_val<std::_Tmap_traits<int,int,std::less<int>,std::allocator<std::pair<int const ,int> >,0> > > &>
; Function compile flags: /Ogtp
; File d:\program files (x86)\microsoft visual studio 10.0\vc\include\utility
;	COMDAT ??$move@AAV?$_Tree_iterator@V?$_Tree_val@V?$_Tmap_traits@HHU?$less@H@std@@V?$allocator@U?$pair@$$CBHH@std@@@2@$0A@@std@@@std@@@std@@@std@@YA$$QAV?$_Tree_iterator@V?$_Tree_val@V?$_Tmap_traits@HHU?$less@H@std@@V?$allocator@U?$pair@$$CBHH@std@@@2@$0A@@std@@@std@@@0@AAV10@@Z
_TEXT	SEGMENT
__Arg$ = 8						; size = 4
??$move@AAV?$_Tree_iterator@V?$_Tree_val@V?$_Tmap_traits@HHU?$less@H@std@@V?$allocator@U?$pair@$$CBHH@std@@@2@$0A@@std@@@std@@@std@@@std@@YA$$QAV?$_Tree_iterator@V?$_Tree_val@V?$_Tmap_traits@HHU?$less@H@std@@V?$allocator@U?$pair@$$CBHH@std@@@2@$0A@@std@@@std@@@0@AAV10@@Z PROC ; std::move<std::_Tree_iterator<std::_Tree_val<std::_Tmap_traits<int,int,std::less<int>,std::allocator<std::pair<int const ,int> >,0> > > &>, COMDAT

; 86   : 	{	// forward _Arg as movable

  00000	55		 push	 ebp
  00001	8b ec		 mov	 ebp, esp

; 87   : 	return ((typename tr1::_Remove_reference<_Ty>::_Type&&)_Arg);

  00003	8b 45 08	 mov	 eax, DWORD PTR __Arg$[ebp]

; 88   : 	}

  00006	5d		 pop	 ebp
  00007	c3		 ret	 0
??$move@AAV?$_Tree_iterator@V?$_Tree_val@V?$_Tmap_traits@HHU?$less@H@std@@V?$allocator@U?$pair@$$CBHH@std@@@2@$0A@@std@@@std@@@std@@@std@@YA$$QAV?$_Tree_iterator@V?$_Tree_val@V?$_Tmap_traits@HHU?$less@H@std@@V?$allocator@U?$pair@$$CBHH@std@@@2@$0A@@std@@@std@@@0@AAV10@@Z ENDP ; std::move<std::_Tree_iterator<std::_Tree_val<std::_Tmap_traits<int,int,std::less<int>,std::allocator<std::pair<int const ,int> >,0> > > &>
_TEXT	ENDS
PUBLIC	??$move@AA_N@std@@YA$$QA_NAA_N@Z		; std::move<bool &>
; Function compile flags: /Ogtp
;	COMDAT ??$move@AA_N@std@@YA$$QA_NAA_N@Z
_TEXT	SEGMENT
__Arg$ = 8						; size = 4
??$move@AA_N@std@@YA$$QA_NAA_N@Z PROC			; std::move<bool &>, COMDAT

; 86   : 	{	// forward _Arg as movable

  00000	55		 push	 ebp
  00001	8b ec		 mov	 ebp, esp

; 87   : 	return ((typename tr1::_Remove_reference<_Ty>::_Type&&)_Arg);

  00003	8b 45 08	 mov	 eax, DWORD PTR __Arg$[ebp]

; 88   : 	}

  00006	5d		 pop	 ebp
  00007	c3		 ret	 0
??$move@AA_N@std@@YA$$QA_NAA_N@Z ENDP			; std::move<bool &>
_TEXT	ENDS
PUBLIC	??$forward@AAV?$_Tree_iterator@V?$_Tree_val@V?$_Tmap_traits@HHU?$less@H@std@@V?$allocator@U?$pair@$$CBHH@std@@@2@$0A@@std@@@std@@@std@@@std@@YAAAV?$_Tree_iterator@V?$_Tree_val@V?$_Tmap_traits@HHU?$less@H@std@@V?$allocator@U?$pair@$$CBHH@std@@@2@$0A@@std@@@std@@@0@AAV10@@Z ; std::forward<std::_Tree_iterator<std::_Tree_val<std::_Tmap_traits<int,int,std::less<int>,std::allocator<std::pair<int const ,int> >,0> > > &>
; Function compile flags: /Ogtp
;	COMDAT ??$forward@AAV?$_Tree_iterator@V?$_Tree_val@V?$_Tmap_traits@HHU?$less@H@std@@V?$allocator@U?$pair@$$CBHH@std@@@2@$0A@@std@@@std@@@std@@@std@@YAAAV?$_Tree_iterator@V?$_Tree_val@V?$_Tmap_traits@HHU?$less@H@std@@V?$allocator@U?$pair@$$CBHH@std@@@2@$0A@@std@@@std@@@0@AAV10@@Z
_TEXT	SEGMENT
__Arg$ = 8						; size = 4
??$forward@AAV?$_Tree_iterator@V?$_Tree_val@V?$_Tmap_traits@HHU?$less@H@std@@V?$allocator@U?$pair@$$CBHH@std@@@2@$0A@@std@@@std@@@std@@@std@@YAAAV?$_Tree_iterator@V?$_Tree_val@V?$_Tmap_traits@HHU?$less@H@std@@V?$allocator@U?$pair@$$CBHH@std@@@2@$0A@@std@@@std@@@0@AAV10@@Z PROC ; std::forward<std::_Tree_iterator<std::_Tree_val<std::_Tmap_traits<int,int,std::less<int>,std::allocator<std::pair<int const ,int> >,0> > > &>, COMDAT

; 78   : 	{	// forward _Arg, given explicitly specified type parameter

  00000	55		 push	 ebp
  00001	8b ec		 mov	 ebp, esp

; 79   : 	return ((_Ty&&)_Arg);

  00003	8b 45 08	 mov	 eax, DWORD PTR __Arg$[ebp]

; 80   : 	}

  00006	5d		 pop	 ebp
  00007	c3		 ret	 0
??$forward@AAV?$_Tree_iterator@V?$_Tree_val@V?$_Tmap_traits@HHU?$less@H@std@@V?$allocator@U?$pair@$$CBHH@std@@@2@$0A@@std@@@std@@@std@@@std@@YAAAV?$_Tree_iterator@V?$_Tree_val@V?$_Tmap_traits@HHU?$less@H@std@@V?$allocator@U?$pair@$$CBHH@std@@@2@$0A@@std@@@std@@@0@AAV10@@Z ENDP ; std::forward<std::_Tree_iterator<std::_Tree_val<std::_Tmap_traits<int,int,std::less<int>,std::allocator<std::pair<int const ,int> >,0> > > &>
_TEXT	ENDS
PUBLIC	??$forward@_N@std@@YA$$QA_NAA_N@Z		; std::forward<bool>
; Function compile flags: /Ogtp
;	COMDAT ??$forward@_N@std@@YA$$QA_NAA_N@Z
_TEXT	SEGMENT
__Arg$ = 8						; size = 4
??$forward@_N@std@@YA$$QA_NAA_N@Z PROC			; std::forward<bool>, COMDAT

; 78   : 	{	// forward _Arg, given explicitly specified type parameter

  00000	55		 push	 ebp
  00001	8b ec		 mov	 ebp, esp

; 79   : 	return ((_Ty&&)_Arg);

  00003	8b 45 08	 mov	 eax, DWORD PTR __Arg$[ebp]

; 80   : 	}

  00006	5d		 pop	 ebp
  00007	c3		 ret	 0
??$forward@_N@std@@YA$$QA_NAA_N@Z ENDP			; std::forward<bool>
_TEXT	ENDS
PUBLIC	??$?0AAV?$_Tree_iterator@V?$_Tree_val@V?$_Tmap_traits@HHU?$less@H@std@@V?$allocator@U?$pair@$$CBHH@std@@@2@$0A@@std@@@std@@@std@@_N@?$_Pair_base@V?$_Tree_iterator@V?$_Tree_val@V?$_Tmap_traits@HHU?$less@H@std@@V?$allocator@U?$pair@$$CBHH@std@@@2@$0A@@std@@@std@@@std@@_N@std@@QAE@AAV?$_Tree_iterator@V?$_Tree_val@V?$_Tmap_traits@HHU?$less@H@std@@V?$allocator@U?$pair@$$CBHH@std@@@2@$0A@@std@@@std@@@1@$$QA_N@Z ; std::_Pair_base<std::_Tree_iterator<std::_Tree_val<std::_Tmap_traits<int,int,std::less<int>,std::allocator<std::pair<int const ,int> >,0> > >,bool>::_Pair_base<std::_Tree_iterator<std::_Tree_val<std::_Tmap_traits<int,int,std::less<int>,std::allocator<std::pair<int const ,int> >,0> > >,bool><std::_Tree_iterator<std::_Tree_val<std::_Tmap_traits<int,int,std::less<int>,std::allocator<std::pair<int const ,int> >,0> > > &,bool>
; Function compile flags: /Ogtp
;	COMDAT ??$?0AAV?$_Tree_iterator@V?$_Tree_val@V?$_Tmap_traits@HHU?$less@H@std@@V?$allocator@U?$pair@$$CBHH@std@@@2@$0A@@std@@@std@@@std@@_N@?$_Pair_base@V?$_Tree_iterator@V?$_Tree_val@V?$_Tmap_traits@HHU?$less@H@std@@V?$allocator@U?$pair@$$CBHH@std@@@2@$0A@@std@@@std@@@std@@_N@std@@QAE@AAV?$_Tree_iterator@V?$_Tree_val@V?$_Tmap_traits@HHU?$less@H@std@@V?$allocator@U?$pair@$$CBHH@std@@@2@$0A@@std@@@std@@@1@$$QA_N@Z
_TEXT	SEGMENT
__Val1$ = 8						; size = 4
__Val2$ = 12						; size = 4
??$?0AAV?$_Tree_iterator@V?$_Tree_val@V?$_Tmap_traits@HHU?$less@H@std@@V?$allocator@U?$pair@$$CBHH@std@@@2@$0A@@std@@@std@@@std@@_N@?$_Pair_base@V?$_Tree_iterator@V?$_Tree_val@V?$_Tmap_traits@HHU?$less@H@std@@V?$allocator@U?$pair@$$CBHH@std@@@2@$0A@@std@@@std@@@std@@_N@std@@QAE@AAV?$_Tree_iterator@V?$_Tree_val@V?$_Tmap_traits@HHU?$less@H@std@@V?$allocator@U?$pair@$$CBHH@std@@@2@$0A@@std@@@std@@@1@$$QA_N@Z PROC ; std::_Pair_base<std::_Tree_iterator<std::_Tree_val<std::_Tmap_traits<int,int,std::less<int>,std::allocator<std::pair<int const ,int> >,0> > >,bool>::_Pair_base<std::_Tree_iterator<std::_Tree_val<std::_Tmap_traits<int,int,std::less<int>,std::allocator<std::pair<int const ,int> >,0> > >,bool><std::_Tree_iterator<std::_Tree_val<std::_Tmap_traits<int,int,std::less<int>,std::allocator<std::pair<int const ,int> >,0> > > &,bool>, COMDAT
; _this$ = ecx

; 163  : 		{	// construct from moved values

  00000	55		 push	 ebp
  00001	8b ec		 mov	 ebp, esp
  00003	8b c1		 mov	 eax, ecx
  00005	8b 4d 08	 mov	 ecx, DWORD PTR __Val1$[ebp]
  00008	8b 11		 mov	 edx, DWORD PTR [ecx]
  0000a	8b 4d 0c	 mov	 ecx, DWORD PTR __Val2$[ebp]
  0000d	89 10		 mov	 DWORD PTR [eax], edx
  0000f	8a 11		 mov	 dl, BYTE PTR [ecx]
  00011	88 50 04	 mov	 BYTE PTR [eax+4], dl

; 164  : 		}

  00014	5d		 pop	 ebp
  00015	c2 08 00	 ret	 8
??$?0AAV?$_Tree_iterator@V?$_Tree_val@V?$_Tmap_traits@HHU?$less@H@std@@V?$allocator@U?$pair@$$CBHH@std@@@2@$0A@@std@@@std@@@std@@_N@?$_Pair_base@V?$_Tree_iterator@V?$_Tree_val@V?$_Tmap_traits@HHU?$less@H@std@@V?$allocator@U?$pair@$$CBHH@std@@@2@$0A@@std@@@std@@@std@@_N@std@@QAE@AAV?$_Tree_iterator@V?$_Tree_val@V?$_Tmap_traits@HHU?$less@H@std@@V?$allocator@U?$pair@$$CBHH@std@@@2@$0A@@std@@@std@@@1@$$QA_N@Z ENDP ; std::_Pair_base<std::_Tree_iterator<std::_Tree_val<std::_Tmap_traits<int,int,std::less<int>,std::allocator<std::pair<int const ,int> >,0> > >,bool>::_Pair_base<std::_Tree_iterator<std::_Tree_val<std::_Tmap_traits<int,int,std::less<int>,std::allocator<std::pair<int const ,int> >,0> > >,bool><std::_Tree_iterator<std::_Tree_val<std::_Tmap_traits<int,int,std::less<int>,std::allocator<std::pair<int const ,int> >,0> > > &,bool>
_TEXT	ENDS
PUBLIC	??$forward@$$CBH@std@@YA$$QBHABH@Z		; std::forward<int const >
; Function compile flags: /Ogtp
;	COMDAT ??$forward@$$CBH@std@@YA$$QBHABH@Z
_TEXT	SEGMENT
__Arg$ = 8						; size = 4
??$forward@$$CBH@std@@YA$$QBHABH@Z PROC			; std::forward<int const >, COMDAT

; 78   : 	{	// forward _Arg, given explicitly specified type parameter

  00000	55		 push	 ebp
  00001	8b ec		 mov	 ebp, esp

; 79   : 	return ((_Ty&&)_Arg);

  00003	8b 45 08	 mov	 eax, DWORD PTR __Arg$[ebp]

; 80   : 	}

  00006	5d		 pop	 ebp
  00007	c3		 ret	 0
??$forward@$$CBH@std@@YA$$QBHABH@Z ENDP			; std::forward<int const >
_TEXT	ENDS
PUBLIC	??$forward@H@std@@YA$$QAHAAH@Z			; std::forward<int>
; Function compile flags: /Ogtp
;	COMDAT ??$forward@H@std@@YA$$QAHAAH@Z
_TEXT	SEGMENT
__Arg$ = 8						; size = 4
??$forward@H@std@@YA$$QAHAAH@Z PROC			; std::forward<int>, COMDAT

; 78   : 	{	// forward _Arg, given explicitly specified type parameter

  00000	55		 push	 ebp
  00001	8b ec		 mov	 ebp, esp

; 79   : 	return ((_Ty&&)_Arg);

  00003	8b 45 08	 mov	 eax, DWORD PTR __Arg$[ebp]

; 80   : 	}

  00006	5d		 pop	 ebp
  00007	c3		 ret	 0
??$forward@H@std@@YA$$QAHAAH@Z ENDP			; std::forward<int>
_TEXT	ENDS
PUBLIC	??$move@ABH@std@@YA$$QBHABH@Z			; std::move<int const &>
; Function compile flags: /Ogtp
;	COMDAT ??$move@ABH@std@@YA$$QBHABH@Z
_TEXT	SEGMENT
__Arg$ = 8						; size = 4
??$move@ABH@std@@YA$$QBHABH@Z PROC			; std::move<int const &>, COMDAT

; 86   : 	{	// forward _Arg as movable

  00000	55		 push	 ebp
  00001	8b ec		 mov	 ebp, esp

; 87   : 	return ((typename tr1::_Remove_reference<_Ty>::_Type&&)_Arg);

  00003	8b 45 08	 mov	 eax, DWORD PTR __Arg$[ebp]

; 88   : 	}

  00006	5d		 pop	 ebp
  00007	c3		 ret	 0
??$move@ABH@std@@YA$$QBHABH@Z ENDP			; std::move<int const &>
_TEXT	ENDS
PUBLIC	??_7bad_alloc@std@@6B@				; std::bad_alloc::`vftable'
PUBLIC	??0bad_alloc@std@@QAE@PBD@Z			; std::bad_alloc::bad_alloc
PUBLIC	??_R4bad_alloc@std@@6B@				; std::bad_alloc::`RTTI Complete Object Locator'
PUBLIC	??_R0?AVbad_alloc@std@@@8			; std::bad_alloc `RTTI Type Descriptor'
PUBLIC	??_R3bad_alloc@std@@8				; std::bad_alloc::`RTTI Class Hierarchy Descriptor'
PUBLIC	??_R2bad_alloc@std@@8				; std::bad_alloc::`RTTI Base Class Array'
PUBLIC	??_R1A@?0A@EA@bad_alloc@std@@8			; std::bad_alloc::`RTTI Base Class Descriptor at (0,-1,0,64)'
PUBLIC	??_R1A@?0A@EA@exception@std@@8			; std::exception::`RTTI Base Class Descriptor at (0,-1,0,64)'
PUBLIC	??_R0?AVexception@std@@@8			; std::exception `RTTI Type Descriptor'
PUBLIC	??_R3exception@std@@8				; std::exception::`RTTI Class Hierarchy Descriptor'
PUBLIC	??_R2exception@std@@8				; std::exception::`RTTI Base Class Array'
EXTRN	??0exception@std@@QAE@ABQBD@Z:PROC		; std::exception::exception
EXTRN	??_7type_info@@6B@:QWORD			; type_info::`vftable'
EXTRN	??_Ebad_alloc@std@@UAEPAXI@Z:PROC		; std::bad_alloc::`vector deleting destructor'
EXTRN	?what@exception@std@@UBEPBDXZ:PROC		; std::exception::what
;	COMDAT ??_R2exception@std@@8
; File d:\program files (x86)\microsoft visual studio 10.0\vc\include\exception
rdata$r	SEGMENT
??_R2exception@std@@8 DD FLAT:??_R1A@?0A@EA@exception@std@@8 ; std::exception::`RTTI Base Class Array'
rdata$r	ENDS
;	COMDAT ??_R3exception@std@@8
rdata$r	SEGMENT
??_R3exception@std@@8 DD 00H				; std::exception::`RTTI Class Hierarchy Descriptor'
	DD	00H
	DD	01H
	DD	FLAT:??_R2exception@std@@8
rdata$r	ENDS
;	COMDAT ??_R0?AVexception@std@@@8
_DATA	SEGMENT
??_R0?AVexception@std@@@8 DD FLAT:??_7type_info@@6B@	; std::exception `RTTI Type Descriptor'
	DD	00H
	DB	'.?AVexception@std@@', 00H
_DATA	ENDS
;	COMDAT ??_R1A@?0A@EA@exception@std@@8
rdata$r	SEGMENT
??_R1A@?0A@EA@exception@std@@8 DD FLAT:??_R0?AVexception@std@@@8 ; std::exception::`RTTI Base Class Descriptor at (0,-1,0,64)'
	DD	00H
	DD	00H
	DD	0ffffffffH
	DD	00H
	DD	040H
	DD	FLAT:??_R3exception@std@@8
rdata$r	ENDS
;	COMDAT ??_R1A@?0A@EA@bad_alloc@std@@8
rdata$r	SEGMENT
??_R1A@?0A@EA@bad_alloc@std@@8 DD FLAT:??_R0?AVbad_alloc@std@@@8 ; std::bad_alloc::`RTTI Base Class Descriptor at (0,-1,0,64)'
	DD	01H
	DD	00H
	DD	0ffffffffH
	DD	00H
	DD	040H
	DD	FLAT:??_R3bad_alloc@std@@8
rdata$r	ENDS
;	COMDAT ??_R2bad_alloc@std@@8
rdata$r	SEGMENT
??_R2bad_alloc@std@@8 DD FLAT:??_R1A@?0A@EA@bad_alloc@std@@8 ; std::bad_alloc::`RTTI Base Class Array'
	DD	FLAT:??_R1A@?0A@EA@exception@std@@8
rdata$r	ENDS
;	COMDAT ??_R3bad_alloc@std@@8
rdata$r	SEGMENT
??_R3bad_alloc@std@@8 DD 00H				; std::bad_alloc::`RTTI Class Hierarchy Descriptor'
	DD	00H
	DD	02H
	DD	FLAT:??_R2bad_alloc@std@@8
rdata$r	ENDS
;	COMDAT ??_R0?AVbad_alloc@std@@@8
_DATA	SEGMENT
??_R0?AVbad_alloc@std@@@8 DD FLAT:??_7type_info@@6B@	; std::bad_alloc `RTTI Type Descriptor'
	DD	00H
	DB	'.?AVbad_alloc@std@@', 00H
_DATA	ENDS
;	COMDAT ??_R4bad_alloc@std@@6B@
rdata$r	SEGMENT
??_R4bad_alloc@std@@6B@ DD 00H				; std::bad_alloc::`RTTI Complete Object Locator'
	DD	00H
	DD	00H
	DD	FLAT:??_R0?AVbad_alloc@std@@@8
	DD	FLAT:??_R3bad_alloc@std@@8
rdata$r	ENDS
;	COMDAT ??_7bad_alloc@std@@6B@
CONST	SEGMENT
??_7bad_alloc@std@@6B@ DD FLAT:??_R4bad_alloc@std@@6B@	; std::bad_alloc::`vftable'
	DD	FLAT:??_Ebad_alloc@std@@UAEPAXI@Z
	DD	FLAT:?what@exception@std@@UBEPBDXZ
; Function compile flags: /Ogtp
CONST	ENDS
;	COMDAT ??0bad_alloc@std@@QAE@PBD@Z
_TEXT	SEGMENT
__Message$ = 8						; size = 4
??0bad_alloc@std@@QAE@PBD@Z PROC			; std::bad_alloc::bad_alloc, COMDAT
; _this$ = ecx

; 345  : 		{	// construct from message string

  00000	55		 push	 ebp
  00001	8b ec		 mov	 ebp, esp
  00003	56		 push	 esi
  00004	8d 45 08	 lea	 eax, DWORD PTR __Message$[ebp]
  00007	50		 push	 eax
  00008	8b f1		 mov	 esi, ecx
  0000a	e8 00 00 00 00	 call	 ??0exception@std@@QAE@ABQBD@Z ; std::exception::exception
  0000f	c7 06 00 00 00
	00		 mov	 DWORD PTR [esi], OFFSET ??_7bad_alloc@std@@6B@

; 346  : 		}

  00015	8b c6		 mov	 eax, esi
  00017	5e		 pop	 esi
  00018	5d		 pop	 ebp
  00019	c2 04 00	 ret	 4
??0bad_alloc@std@@QAE@PBD@Z ENDP			; std::bad_alloc::bad_alloc
_TEXT	ENDS
PUBLIC	??1bad_alloc@std@@UAE@XZ			; std::bad_alloc::~bad_alloc
EXTRN	??1exception@std@@UAE@XZ:PROC			; std::exception::~exception
; Function compile flags: /Ogtp
;	COMDAT ??1bad_alloc@std@@UAE@XZ
_TEXT	SEGMENT
??1bad_alloc@std@@UAE@XZ PROC				; std::bad_alloc::~bad_alloc, COMDAT
; _this$ = ecx

; 354  : 		{	// destroy the object

  00000	c7 01 00 00 00
	00		 mov	 DWORD PTR [ecx], OFFSET ??_7bad_alloc@std@@6B@

; 355  : 		}

  00006	e9 00 00 00 00	 jmp	 ??1exception@std@@UAE@XZ ; std::exception::~exception
??1bad_alloc@std@@UAE@XZ ENDP				; std::bad_alloc::~bad_alloc
; Function compile flags: /Ogtp
_TEXT	ENDS
;	COMDAT ??_Gbad_alloc@std@@UAEPAXI@Z
_TEXT	SEGMENT
___flags$ = 8						; size = 4
??_Gbad_alloc@std@@UAEPAXI@Z PROC			; std::bad_alloc::`scalar deleting destructor', COMDAT
; _this$ = ecx
  00000	55		 push	 ebp
  00001	8b ec		 mov	 ebp, esp
  00003	56		 push	 esi
  00004	8b f1		 mov	 esi, ecx
  00006	c7 06 00 00 00
	00		 mov	 DWORD PTR [esi], OFFSET ??_7bad_alloc@std@@6B@
  0000c	e8 00 00 00 00	 call	 ??1exception@std@@UAE@XZ ; std::exception::~exception
  00011	f6 45 08 01	 test	 BYTE PTR ___flags$[ebp], 1
  00015	74 09		 je	 SHORT $LN6@scalar
  00017	56		 push	 esi
  00018	e8 00 00 00 00	 call	 ??3@YAXPAX@Z		; operator delete
  0001d	83 c4 04	 add	 esp, 4
$LN6@scalar:
  00020	8b c6		 mov	 eax, esi
  00022	5e		 pop	 esi
  00023	5d		 pop	 ebp
  00024	c2 04 00	 ret	 4
??_Gbad_alloc@std@@UAEPAXI@Z ENDP			; std::bad_alloc::`scalar deleting destructor'
_TEXT	ENDS
PUBLIC	?_Adopt@_Iterator_base0@std@@QAEXPBX@Z		; std::_Iterator_base0::_Adopt
; Function compile flags: /Ogtp
; File d:\program files (x86)\microsoft visual studio 10.0\vc\include\xutility
;	COMDAT ?_Adopt@_Iterator_base0@std@@QAEXPBX@Z
_TEXT	SEGMENT
___formal$ = 8						; size = 4
?_Adopt@_Iterator_base0@std@@QAEXPBX@Z PROC		; std::_Iterator_base0::_Adopt, COMDAT
; _this$ = ecx

; 49   : 		}

  00000	c2 04 00	 ret	 4
?_Adopt@_Iterator_base0@std@@QAEXPBX@Z ENDP		; std::_Iterator_base0::_Adopt
_TEXT	ENDS
PUBLIC	?IsJewelOfHarmonySmeltingItems@CJewelOfHarmonySystem@@QAEHF@Z ; CJewelOfHarmonySystem::IsJewelOfHarmonySmeltingItems
; Function compile flags: /Ogtp
; File e:\work\tranet_version\gs\gameserver\jewelofharmonysystem.cpp
;	COMDAT ?IsJewelOfHarmonySmeltingItems@CJewelOfHarmonySystem@@QAEHF@Z
_TEXT	SEGMENT
_type$ = 8						; size = 2
?IsJewelOfHarmonySmeltingItems@CJewelOfHarmonySystem@@QAEHF@Z PROC ; CJewelOfHarmonySystem::IsJewelOfHarmonySmeltingItems, COMDAT
; _this$ = ecx

; 203  : {

  00000	55		 push	 ebp
  00001	8b ec		 mov	 ebp, esp
  00003	56		 push	 esi

; 204  : 	BOOL bRet = FALSE;
; 205  : 
; 206  : 	if ( this->_IsJewelOfHarmonySmeltingItemNor(type) == TRUE || this->_IsJewelOfHarmonySmeltingItemExt(type) == TRUE )

  00004	8b 75 08	 mov	 esi, DWORD PTR _type$[ebp]
  00007	57		 push	 edi
  00008	56		 push	 esi
  00009	33 ff		 xor	 edi, edi
  0000b	e8 00 00 00 00	 call	 ?_IsJewelOfHarmonySmeltingItemNor@CJewelOfHarmonySystem@@QAEHF@Z ; CJewelOfHarmonySystem::_IsJewelOfHarmonySmeltingItemNor
  00010	83 f8 01	 cmp	 eax, 1
  00013	74 0b		 je	 SHORT $LN1@IsJewelOfH@5
  00015	56		 push	 esi
  00016	e8 00 00 00 00	 call	 ?_IsJewelOfHarmonySmeltingItemExt@CJewelOfHarmonySystem@@QAEHF@Z ; CJewelOfHarmonySystem::_IsJewelOfHarmonySmeltingItemExt
  0001b	83 f8 01	 cmp	 eax, 1
  0001e	75 0b		 jne	 SHORT $LN5@IsJewelOfH@5
$LN1@IsJewelOfH@5:
  00020	5f		 pop	 edi

; 207  : 		bRet = TRUE;

  00021	b8 01 00 00 00	 mov	 eax, 1
  00026	5e		 pop	 esi

; 210  : }

  00027	5d		 pop	 ebp
  00028	c2 04 00	 ret	 4
$LN5@IsJewelOfH@5:

; 208  : 
; 209  : 	return bRet;

  0002b	8b c7		 mov	 eax, edi
  0002d	5f		 pop	 edi
  0002e	5e		 pop	 esi

; 210  : }

  0002f	5d		 pop	 ebp
  00030	c2 04 00	 ret	 4
?IsJewelOfHarmonySmeltingItems@CJewelOfHarmonySystem@@QAEHF@Z ENDP ; CJewelOfHarmonySystem::IsJewelOfHarmonySmeltingItems
_TEXT	ENDS
PUBLIC	?GetItemOptionLevel@CJewelOfHarmonySystem@@QAEEPAVCItem@@@Z ; CJewelOfHarmonySystem::GetItemOptionLevel
; Function compile flags: /Ogtp
;	COMDAT ?GetItemOptionLevel@CJewelOfHarmonySystem@@QAEEPAVCItem@@@Z
_TEXT	SEGMENT
_pItem$ = 8						; size = 4
?GetItemOptionLevel@CJewelOfHarmonySystem@@QAEEPAVCItem@@@Z PROC ; CJewelOfHarmonySystem::GetItemOptionLevel, COMDAT
; _this$ = ecx

; 358  : {

  00000	55		 push	 ebp
  00001	8b ec		 mov	 ebp, esp

; 360  : }

  00003	5d		 pop	 ebp

; 359  : 	return this->_GetItemOptionLevel(pItem);

  00004	e9 00 00 00 00	 jmp	 ?_GetItemOptionLevel@CJewelOfHarmonySystem@@QAEEPAVCItem@@@Z ; CJewelOfHarmonySystem::_GetItemOptionLevel
?GetItemOptionLevel@CJewelOfHarmonySystem@@QAEEPAVCItem@@@Z ENDP ; CJewelOfHarmonySystem::GetItemOptionLevel
_TEXT	ENDS
PUBLIC	?_GetItemOptionRequireLevel@CJewelOfHarmonySystem@@QAEEPAVCItem@@@Z ; CJewelOfHarmonySystem::_GetItemOptionRequireLevel
; Function compile flags: /Ogtp
;	COMDAT ?_GetItemOptionRequireLevel@CJewelOfHarmonySystem@@QAEEPAVCItem@@@Z
_TEXT	SEGMENT
_pItem$ = 8						; size = 4
?_GetItemOptionRequireLevel@CJewelOfHarmonySystem@@QAEEPAVCItem@@@Z PROC ; CJewelOfHarmonySystem::_GetItemOptionRequireLevel, COMDAT
; _this$ = ecx

; 393  : {

  00000	55		 push	 ebp
  00001	8b ec		 mov	 ebp, esp
  00003	56		 push	 esi
  00004	57		 push	 edi

; 394  : 	int iItemType = this->_GetItemType(pItem);

  00005	8b 7d 08	 mov	 edi, DWORD PTR _pItem$[ebp]
  00008	57		 push	 edi
  00009	8b f1		 mov	 esi, ecx
  0000b	e8 00 00 00 00	 call	 ?_GetItemType@CJewelOfHarmonySystem@@QAEHPAVCItem@@@Z ; CJewelOfHarmonySystem::_GetItemType

; 395  : 	BYTE iItemOption = this->GetItemStrengthenOption(pItem);

  00010	57		 push	 edi
  00011	8b ce		 mov	 ecx, esi
  00013	8b d0		 mov	 edx, eax
  00015	e8 00 00 00 00	 call	 ?GetItemStrengthenOption@CJewelOfHarmonySystem@@QAEEPAVCItem@@@Z ; CJewelOfHarmonySystem::GetItemStrengthenOption

; 396  : 
; 397  : 	if ( iItemType == 0 || iItemOption > MAX_JOH_ITEM_OPTION+1 || iItemOption == 0 )

  0001a	85 d2		 test	 edx, edx
  0001c	74 20		 je	 SHORT $LN1@GetItemOpt
  0001e	3c 0f		 cmp	 al, 15			; 0000000fH
  00020	77 1c		 ja	 SHORT $LN1@GetItemOpt
  00022	84 c0		 test	 al, al
  00024	74 18		 je	 SHORT $LN1@GetItemOpt

; 399  : 
; 400  : 	return this->m_itemOption[iItemType][iItemOption].iRequireLevel;

  00026	0f b6 c0	 movzx	 eax, al
  00029	c1 e2 04	 shl	 edx, 4
  0002c	03 d0		 add	 edx, eax
  0002e	69 d2 4c 01 00
	00		 imul	 edx, 332		; 0000014cH
  00034	8a 44 32 1d	 mov	 al, BYTE PTR [edx+esi+29]
  00038	5f		 pop	 edi
  00039	5e		 pop	 esi

; 401  : }

  0003a	5d		 pop	 ebp
  0003b	c2 04 00	 ret	 4
$LN1@GetItemOpt:
  0003e	5f		 pop	 edi

; 398  : 		return 0;

  0003f	32 c0		 xor	 al, al
  00041	5e		 pop	 esi

; 401  : }

  00042	5d		 pop	 ebp
  00043	c2 04 00	 ret	 4
?_GetItemOptionRequireLevel@CJewelOfHarmonySystem@@QAEEPAVCItem@@@Z ENDP ; CJewelOfHarmonySystem::_GetItemOptionRequireLevel
_TEXT	ENDS
PUBLIC	??_C@_0JB@GPNNHBFH@?$FLJewelOfHarmony?$FN?$FLStrengthen?5Item@ ; `string'
PUBLIC	??_C@_0HF@LLJODOCN@?$FLJewelOfHarmony?$FN?$FLStrengthen?5Item@ ; `string'
PUBLIC	??_C@_0IC@LKDAOMEB@?$FLJewelOfHarmony?$FN?$FLStrengthen?5Item@ ; `string'
PUBLIC	??_C@_0HN@EAIBDDGK@?$FLJewelOfHarmony?$FN?$FLStrengthen?5Item@ ; `string'
PUBLIC	??_C@_0EO@NFBPNNC@?$FLJewelOfHarmony?$FN?$FLStrengthen?5Item@ ; `string'
PUBLIC	??_C@_0DP@KNLFIGGJ@?$FLJewelOfHarmony?$FN?$FLStrengthen?5Item@ ; `string'
PUBLIC	?StrengthenItemByJewelOfHarmony@CJewelOfHarmonySystem@@QAEHPAUOBJECTSTRUCT@@HH@Z ; CJewelOfHarmonySystem::StrengthenItemByJewelOfHarmony
EXTRN	?ZtAddJoHtoAnc@@3HA:DWORD			; ZtAddJoHtoAnc
;	COMDAT ??_C@_0JB@GPNNHBFH@?$FLJewelOfHarmony?$FN?$FLStrengthen?5Item@
CONST	SEGMENT
??_C@_0JB@GPNNHBFH@?$FLJewelOfHarmony?$FN?$FLStrengthen?5Item@ DB '[Jewel'
	DB	'OfHarmony][Strengthen Item] Strengthen Success [%s][%s] Name['
	DB	'%s] Type[%d] Serial[%u] JewelSerial(%u) Rate (%d/%d) Option %'
	DB	'd OptionLevel %d', 00H			; `string'
CONST	ENDS
;	COMDAT ??_C@_0HF@LLJODOCN@?$FLJewelOfHarmony?$FN?$FLStrengthen?5Item@
CONST	SEGMENT
??_C@_0HF@LLJODOCN@?$FLJewelOfHarmony?$FN?$FLStrengthen?5Item@ DB '[Jewel'
	DB	'OfHarmony][Strengthen Item] Strengthen Fail [%s][%s] Name[%s]'
	DB	' Type[%d] Serial[%u] JewelSerial(%u) Rate (%d/%d)', 00H ; `string'
CONST	ENDS
;	COMDAT ??_C@_0IC@LKDAOMEB@?$FLJewelOfHarmony?$FN?$FLStrengthen?5Item@
CONST	SEGMENT
??_C@_0IC@LKDAOMEB@?$FLJewelOfHarmony?$FN?$FLStrengthen?5Item@ DB '[Jewel'
	DB	'OfHarmony][Strengthen Item] Strengthen Fail - NOT OPTION [%s]'
	DB	'[%s] Name[%s] Type[%d] Serial[%u] JewelSerial(%u) ItemType[%d'
	DB	']', 00H					; `string'
CONST	ENDS
;	COMDAT ??_C@_0HN@EAIBDDGK@?$FLJewelOfHarmony?$FN?$FLStrengthen?5Item@
CONST	SEGMENT
??_C@_0HN@EAIBDDGK@?$FLJewelOfHarmony?$FN?$FLStrengthen?5Item@ DB '[Jewel'
	DB	'OfHarmony][Strengthen Item] Strengthen Fail [%s][%s] Name[%s]'
	DB	' Type[%d] Serial[%u] JewelSerial(%u) Invalid ItemType[%d]', 00H ; `string'
CONST	ENDS
;	COMDAT ??_C@_0EO@NFBPNNC@?$FLJewelOfHarmony?$FN?$FLStrengthen?5Item@
CONST	SEGMENT
??_C@_0EO@NFBPNNC@?$FLJewelOfHarmony?$FN?$FLStrengthen?5Item@ DB '[JewelO'
	DB	'fHarmony][Strengthen Item] SetItem not enable to Strengthened'
	DB	' [%s][%s]', 00H				; `string'
CONST	ENDS
;	COMDAT ??_C@_0DP@KNLFIGGJ@?$FLJewelOfHarmony?$FN?$FLStrengthen?5Item@
CONST	SEGMENT
??_C@_0DP@KNLFIGGJ@?$FLJewelOfHarmony?$FN?$FLStrengthen?5Item@ DB '[Jewel'
	DB	'OfHarmony][Strengthen Item] Already Strengtened [%s][%s]', 00H ; `string'
; Function compile flags: /Ogtp
CONST	ENDS
;	COMDAT ?StrengthenItemByJewelOfHarmony@CJewelOfHarmonySystem@@QAEHPAUOBJECTSTRUCT@@HH@Z
_TEXT	SEGMENT
_iSuccessRate$ = -12					; size = 4
_iItemOption$ = -8					; size = 4
_this$ = -4						; size = 4
tv457 = 8						; size = 4
tv436 = 8						; size = 4
_levelitemdur$ = 8					; size = 4
_lpObj$ = 8						; size = 4
tv427 = 12						; size = 4
_source$ = 12						; size = 4
_iItemOptionLevel$ = 16					; size = 4
_iItemType$ = 16					; size = 4
_target$ = 16						; size = 4
?StrengthenItemByJewelOfHarmony@CJewelOfHarmonySystem@@QAEHPAUOBJECTSTRUCT@@HH@Z PROC ; CJewelOfHarmonySystem::StrengthenItemByJewelOfHarmony, COMDAT
; _this$ = ecx

; 464  : {

  00000	55		 push	 ebp
  00001	8b ec		 mov	 ebp, esp
  00003	83 ec 0c	 sub	 esp, 12			; 0000000cH

; 465  : 	if ( this->m_bSystemStrengthenItem == FALSE )

  00006	83 b9 24 53 00
	00 00		 cmp	 DWORD PTR [ecx+21284], 0
  0000d	89 4d fc	 mov	 DWORD PTR _this$[ebp], ecx
  00010	75 28		 jne	 SHORT $LN14@Strengthen@2

; 466  : 	{
; 467  : 		GCServerMsgStringSend(lMsg.Get(MSGGET(13, 52)), lpObj->m_Index, 1);

  00012	8b 45 08	 mov	 eax, DWORD PTR _lpObj$[ebp]
  00015	8b 08		 mov	 ecx, DWORD PTR [eax]
  00017	6a 01		 push	 1
  00019	51		 push	 ecx
  0001a	68 34 0d 00 00	 push	 3380			; 00000d34H
  0001f	b9 00 00 00 00	 mov	 ecx, OFFSET ?lMsg@@3VCMsg@@A ; lMsg
  00024	e8 00 00 00 00	 call	 ?Get@CMsg@@QAEPADH@Z	; CMsg::Get
  00029	50		 push	 eax
  0002a	e8 00 00 00 00	 call	 ?GCServerMsgStringSend@@YAXPADHE@Z ; GCServerMsgStringSend
  0002f	83 c4 0c	 add	 esp, 12			; 0000000cH
$LN12@Strengthen@2:

; 468  : 		return FALSE;

  00032	33 c0		 xor	 eax, eax

; 569  : 
; 570  : 
; 571  : 	return TRUE;
; 572  : }

  00034	8b e5		 mov	 esp, ebp
  00036	5d		 pop	 ebp
  00037	c2 0c 00	 ret	 12			; 0000000cH
$LN14@Strengthen@2:

; 469  : 	}
; 470  : 
; 471  : 	if ( source < 0 || source > MAIN_INVENTORY_SIZE-1 )

  0003a	8b 45 0c	 mov	 eax, DWORD PTR _source$[ebp]
  0003d	3d cb 00 00 00	 cmp	 eax, 203		; 000000cbH
  00042	77 ee		 ja	 SHORT $LN12@Strengthen@2

; 472  : 		return FALSE;
; 473  : 
; 474  : 	if ( target < 0 || target > MAIN_INVENTORY_SIZE-1 )

  00044	53		 push	 ebx
  00045	8b 5d 10	 mov	 ebx, DWORD PTR _target$[ebp]
  00048	81 fb cb 00 00
	00		 cmp	 ebx, 203		; 000000cbH
  0004e	0f 87 36 03 00
	00		 ja	 $LN10@Strengthen@2

; 476  : 
; 477  : 	if ( lpObj->pInventory[source].IsItem() == FALSE )

  00054	69 c0 d4 00 00
	00		 imul	 eax, 212		; 000000d4H
  0005a	56		 push	 esi
  0005b	8b 75 08	 mov	 esi, DWORD PTR _lpObj$[ebp]
  0005e	8b 8e 24 0e 00
	00		 mov	 ecx, DWORD PTR [esi+3620]
  00064	03 c8		 add	 ecx, eax
  00066	89 45 0c	 mov	 DWORD PTR tv427[ebp], eax
  00069	e8 00 00 00 00	 call	 ?IsItem@CItem@@QAEHXZ	; CItem::IsItem
  0006e	85 c0		 test	 eax, eax

; 478  : 		return FALSE;

  00070	74 17		 je	 SHORT $LN23@Strengthen@2

; 479  : 
; 480  : 	if ( lpObj->pInventory[target].IsItem() == FALSE )

  00072	8b 8e 24 0e 00
	00		 mov	 ecx, DWORD PTR [esi+3620]
  00078	69 db d4 00 00
	00		 imul	 ebx, 212		; 000000d4H
  0007e	03 cb		 add	 ecx, ebx
  00080	e8 00 00 00 00	 call	 ?IsItem@CItem@@QAEHXZ	; CItem::IsItem
  00085	85 c0		 test	 eax, eax
  00087	75 0a		 jne	 SHORT $LN8@Strengthen@2
$LN23@Strengthen@2:
  00089	5e		 pop	 esi

; 481  : 		return FALSE;

  0008a	33 c0		 xor	 eax, eax
  0008c	5b		 pop	 ebx

; 569  : 
; 570  : 
; 571  : 	return TRUE;
; 572  : }

  0008d	8b e5		 mov	 esp, ebp
  0008f	5d		 pop	 ebp
  00090	c2 0c 00	 ret	 12			; 0000000cH
$LN8@Strengthen@2:
  00093	57		 push	 edi

; 482  : 
; 483  : 	CItem * pSource = &lpObj->pInventory[source];

  00094	8b be 24 0e 00
	00		 mov	 edi, DWORD PTR [esi+3620]

; 484  : 	CItem * pTarget = &lpObj->pInventory[target];
; 485  : 
; 486  : #ifdef LUCKYITEM
; 487  : 	if( g_LuckyItemManager.IsLuckyItemEquipment(pTarget->m_Type) )

  0009a	0f bf 54 1f 06	 movsx	 edx, WORD PTR [edi+ebx+6]
  0009f	89 7d 08	 mov	 DWORD PTR tv436[ebp], edi
  000a2	03 fb		 add	 edi, ebx
  000a4	52		 push	 edx
  000a5	b9 00 00 00 00	 mov	 ecx, OFFSET ?g_LuckyItemManager@@3ULuckyItemManager@@A ; g_LuckyItemManager
  000aa	e8 00 00 00 00	 call	 ?IsLuckyItemEquipment@LuckyItemManager@@QAEHH@Z ; LuckyItemManager::IsLuckyItemEquipment
  000af	85 c0		 test	 eax, eax

; 488  : 	{
; 489  : 		return false;

  000b1	0f 85 0f 01 00
	00		 jne	 $LN21@Strengthen@2

; 490  : 	}
; 491  : #endif
; 492  : 
; 493  : 	if ( this->IsStrengthenByJewelOfHarmony(pTarget) == TRUE )

  000b7	8b 4d fc	 mov	 ecx, DWORD PTR _this$[ebp]
  000ba	57		 push	 edi
  000bb	e8 00 00 00 00	 call	 ?IsStrengthenByJewelOfHarmony@CJewelOfHarmonySystem@@QAEHPAVCItem@@@Z ; CJewelOfHarmonySystem::IsStrengthenByJewelOfHarmony
  000c0	83 f8 01	 cmp	 eax, 1
  000c3	75 21		 jne	 SHORT $LN6@Strengthen@2

; 494  : 	{
; 495  : 		LogAddTD("[JewelOfHarmony][Strengthen Item] Already Strengtened [%s][%s]",
; 496  : 			lpObj->AccountID, lpObj->Name);

  000c5	8d 46 77	 lea	 eax, DWORD PTR [esi+119]
  000c8	50		 push	 eax
  000c9	83 c6 6c	 add	 esi, 108		; 0000006cH
  000cc	56		 push	 esi
  000cd	68 00 00 00 00	 push	 OFFSET ??_C@_0DP@KNLFIGGJ@?$FLJewelOfHarmony?$FN?$FLStrengthen?5Item@
  000d2	ff 15 00 00 00
	00		 call	 DWORD PTR ?LogAddTD@@3P6AXPADZZA ; LogAddTD
  000d8	83 c4 0c	 add	 esp, 12			; 0000000cH
  000db	5f		 pop	 edi
  000dc	5e		 pop	 esi

; 497  : 
; 498  : 		return FALSE;

  000dd	33 c0		 xor	 eax, eax
  000df	5b		 pop	 ebx

; 569  : 
; 570  : 
; 571  : 	return TRUE;
; 572  : }

  000e0	8b e5		 mov	 esp, ebp
  000e2	5d		 pop	 ebp
  000e3	c2 0c 00	 ret	 12			; 0000000cH
$LN6@Strengthen@2:

; 499  : 	}
; 500  : 	//int ZtAddJoHtoAnc = GetPrivateProfileInt("Items","AddJoHtoAnc",1,"..\\Data\\ZtData\\CommonServer.ini");
; 501  : 	if(!ZtAddJoHtoAnc)

  000e6	83 3d 00 00 00
	00 00		 cmp	 DWORD PTR ?ZtAddJoHtoAnc@@3HA, 0 ; ZtAddJoHtoAnc
  000ed	75 46		 jne	 SHORT $LN17@Strengthen@2

; 502  : 	{
; 503  : 		if (pTarget->IsSetItem() != FALSE)

  000ef	8b cf		 mov	 ecx, edi
  000f1	e8 00 00 00 00	 call	 ?IsSetItem@CItem@@QAEHXZ ; CItem::IsSetItem
  000f6	85 c0		 test	 eax, eax
  000f8	74 3b		 je	 SHORT $LN17@Strengthen@2

; 504  : 		{
; 505  : 			GCServerMsgStringSend(lMsg.Get(MSGGET(13, 44)), lpObj->m_Index, 1);

  000fa	8b 0e		 mov	 ecx, DWORD PTR [esi]
  000fc	6a 01		 push	 1
  000fe	51		 push	 ecx
  000ff	68 2c 0d 00 00	 push	 3372			; 00000d2cH
  00104	b9 00 00 00 00	 mov	 ecx, OFFSET ?lMsg@@3VCMsg@@A ; lMsg
  00109	e8 00 00 00 00	 call	 ?Get@CMsg@@QAEPADH@Z	; CMsg::Get
  0010e	50		 push	 eax
  0010f	e8 00 00 00 00	 call	 ?GCServerMsgStringSend@@YAXPADHE@Z ; GCServerMsgStringSend

; 506  : 			LogAddTD("[JewelOfHarmony][Strengthen Item] SetItem not enable to Strengthened [%s][%s]",
; 507  : 				lpObj->AccountID, lpObj->Name);

  00114	8d 56 77	 lea	 edx, DWORD PTR [esi+119]
  00117	52		 push	 edx
  00118	83 c6 6c	 add	 esi, 108		; 0000006cH
  0011b	56		 push	 esi
  0011c	68 00 00 00 00	 push	 OFFSET ??_C@_0EO@NFBPNNC@?$FLJewelOfHarmony?$FN?$FLStrengthen?5Item@
  00121	ff 15 00 00 00
	00		 call	 DWORD PTR ?LogAddTD@@3P6AXPADZZA ; LogAddTD
  00127	83 c4 18	 add	 esp, 24			; 00000018H
  0012a	5f		 pop	 edi
  0012b	5e		 pop	 esi

; 508  : 	
; 509  : 			return FALSE;

  0012c	33 c0		 xor	 eax, eax
  0012e	5b		 pop	 ebx

; 569  : 
; 570  : 
; 571  : 	return TRUE;
; 572  : }

  0012f	8b e5		 mov	 esp, ebp
  00131	5d		 pop	 ebp
  00132	c2 0c 00	 ret	 12			; 0000000cH
$LN17@Strengthen@2:

; 510  : 		}
; 511  : 	}
; 512  : 
; 513  : 	int iItemType = this->_GetItemType(pTarget);

  00135	8b 4d fc	 mov	 ecx, DWORD PTR _this$[ebp]
  00138	57		 push	 edi
  00139	e8 00 00 00 00	 call	 ?_GetItemType@CJewelOfHarmonySystem@@QAEHPAVCItem@@@Z ; CJewelOfHarmonySystem::_GetItemType
  0013e	89 45 10	 mov	 DWORD PTR _iItemType$[ebp], eax

; 514  : 
; 515  : 	if ( iItemType == JEWELOFHARMONY_ITEM_TYPE_NULL )

  00141	85 c0		 test	 eax, eax
  00143	75 3c		 jne	 SHORT $LN3@Strengthen@2

; 516  : 	{
; 517  : 		LogAddTD("[JewelOfHarmony][Strengthen Item] Strengthen Fail [%s][%s] Name[%s] Type[%d] Serial[%u] JewelSerial(%u) Invalid ItemType[%d]",
; 518  : 			lpObj->AccountID, lpObj->Name, pTarget->GetName(), pTarget->m_Type,
; 519  : 			pTarget->m_Number, pSource->m_Number, iItemType);

  00145	8b 4d 0c	 mov	 ecx, DWORD PTR tv427[ebp]
  00148	50		 push	 eax
  00149	8b 45 08	 mov	 eax, DWORD PTR tv436[ebp]
  0014c	8b 14 08	 mov	 edx, DWORD PTR [eax+ecx]
  0014f	0f bf 4f 06	 movsx	 ecx, WORD PTR [edi+6]
  00153	8b 07		 mov	 eax, DWORD PTR [edi]
  00155	52		 push	 edx
  00156	50		 push	 eax
  00157	51		 push	 ecx
  00158	8b cf		 mov	 ecx, edi
  0015a	e8 00 00 00 00	 call	 ?GetName@CItem@@QAEPADXZ ; CItem::GetName
  0015f	50		 push	 eax
  00160	8d 56 77	 lea	 edx, DWORD PTR [esi+119]
  00163	52		 push	 edx
  00164	83 c6 6c	 add	 esi, 108		; 0000006cH
  00167	56		 push	 esi
  00168	68 00 00 00 00	 push	 OFFSET ??_C@_0HN@EAIBDDGK@?$FLJewelOfHarmony?$FN?$FLStrengthen?5Item@
  0016d	ff 15 00 00 00
	00		 call	 DWORD PTR ?LogAddTD@@3P6AXPADZZA ; LogAddTD
  00173	83 c4 20	 add	 esp, 32			; 00000020H
  00176	5f		 pop	 edi
  00177	5e		 pop	 esi

; 520  : 		
; 521  : 		return FALSE;

  00178	33 c0		 xor	 eax, eax
  0017a	5b		 pop	 ebx

; 569  : 
; 570  : 
; 571  : 	return TRUE;
; 572  : }

  0017b	8b e5		 mov	 esp, ebp
  0017d	5d		 pop	 ebp
  0017e	c2 0c 00	 ret	 12			; 0000000cH
$LN3@Strengthen@2:

; 522  : 	}
; 523  : 
; 524  : 	int iItemOption = this->_GetSelectRandomOption(pTarget, iItemType);

  00181	8b 4d fc	 mov	 ecx, DWORD PTR _this$[ebp]
  00184	50		 push	 eax
  00185	57		 push	 edi
  00186	e8 00 00 00 00	 call	 ?_GetSelectRandomOption@CJewelOfHarmonySystem@@QAEHPAVCItem@@H@Z ; CJewelOfHarmonySystem::_GetSelectRandomOption
  0018b	89 45 f8	 mov	 DWORD PTR _iItemOption$[ebp], eax

; 525  : 
; 526  : 	if ( iItemOption == AT_JEWELOFHARMONY_NOT_STRENGTHEN_ITEM )

  0018e	85 c0		 test	 eax, eax
  00190	75 3f		 jne	 SHORT $LN2@Strengthen@2

; 527  : 	{
; 528  : 		LogAddTD("[JewelOfHarmony][Strengthen Item] Strengthen Fail - NOT OPTION [%s][%s] Name[%s] Type[%d] Serial[%u] JewelSerial(%u) ItemType[%d]",
; 529  : 			lpObj->AccountID, lpObj->Name, pTarget->GetName(), pTarget->m_Type,
; 530  : 			pTarget->m_Number, pSource->m_Number, iItemType);

  00192	8b 45 10	 mov	 eax, DWORD PTR _iItemType$[ebp]
  00195	8b 4d 08	 mov	 ecx, DWORD PTR tv436[ebp]
  00198	8b 55 0c	 mov	 edx, DWORD PTR tv427[ebp]
  0019b	50		 push	 eax
  0019c	8b 04 11	 mov	 eax, DWORD PTR [ecx+edx]
  0019f	8b 0f		 mov	 ecx, DWORD PTR [edi]
  001a1	0f bf 57 06	 movsx	 edx, WORD PTR [edi+6]
  001a5	50		 push	 eax
  001a6	51		 push	 ecx
  001a7	52		 push	 edx
  001a8	8b cf		 mov	 ecx, edi
  001aa	e8 00 00 00 00	 call	 ?GetName@CItem@@QAEPADXZ ; CItem::GetName
  001af	50		 push	 eax
  001b0	8d 46 77	 lea	 eax, DWORD PTR [esi+119]
  001b3	50		 push	 eax
  001b4	83 c6 6c	 add	 esi, 108		; 0000006cH
  001b7	56		 push	 esi
  001b8	68 00 00 00 00	 push	 OFFSET ??_C@_0IC@LKDAOMEB@?$FLJewelOfHarmony?$FN?$FLStrengthen?5Item@
  001bd	ff 15 00 00 00
	00		 call	 DWORD PTR ?LogAddTD@@3P6AXPADZZA ; LogAddTD
  001c3	83 c4 20	 add	 esp, 32			; 00000020H
$LN21@Strengthen@2:

; 531  : 		
; 532  : 		return FALSE;

  001c6	5f		 pop	 edi
  001c7	5e		 pop	 esi
  001c8	33 c0		 xor	 eax, eax
  001ca	5b		 pop	 ebx

; 569  : 
; 570  : 
; 571  : 	return TRUE;
; 572  : }

  001cb	8b e5		 mov	 esp, ebp
  001cd	5d		 pop	 ebp
  001ce	c2 0c 00	 ret	 12			; 0000000cH
$LN2@Strengthen@2:

; 533  : 	}
; 534  : 
; 535  : 	int iItemOptionLevel = this->m_itemOption[iItemType][iItemOption].iRequireLevel;

  001d1	8b 4d 10	 mov	 ecx, DWORD PTR _iItemType$[ebp]
  001d4	8b 55 fc	 mov	 edx, DWORD PTR _this$[ebp]
  001d7	c1 e1 04	 shl	 ecx, 4
  001da	03 c8		 add	 ecx, eax
  001dc	69 c9 4c 01 00
	00		 imul	 ecx, 332		; 0000014cH
  001e2	0f b6 44 11 1d	 movzx	 eax, BYTE PTR [ecx+edx+29]
  001e7	89 45 10	 mov	 DWORD PTR _iItemOptionLevel$[ebp], eax

; 536  : 	int iSuccessRate = rand() % 100;

  001ea	e8 00 00 00 00	 call	 _rand
  001ef	99		 cdq
  001f0	b9 64 00 00 00	 mov	 ecx, 100		; 00000064H
  001f5	f7 f9		 idiv	 ecx

; 537  : 
; 538  : 	if ( iSuccessRate >= this->m_iRateStrengthenSuccess )

  001f7	8b 4d fc	 mov	 ecx, DWORD PTR _this$[ebp]
  001fa	8b 81 40 53 00
	00		 mov	 eax, DWORD PTR [ecx+21312]
  00200	89 55 f4	 mov	 DWORD PTR _iSuccessRate$[ebp], edx
  00203	3b d0		 cmp	 edx, eax
  00205	7c 5d		 jl	 SHORT $LN1@Strengthen@2

; 539  : 	{
; 540  : 		LogAddTD("[JewelOfHarmony][Strengthen Item] Strengthen Fail [%s][%s] Name[%s] Type[%d] Serial[%u] JewelSerial(%u) Rate (%d/%d)",
; 541  : 			lpObj->AccountID, lpObj->Name, pTarget->GetName(), pTarget->m_Type,
; 542  : 			pTarget->m_Number, pSource->m_Number, iSuccessRate, this->m_iRateStrengthenSuccess);

  00207	50		 push	 eax
  00208	8b 45 0c	 mov	 eax, DWORD PTR tv427[ebp]
  0020b	52		 push	 edx
  0020c	8b 55 08	 mov	 edx, DWORD PTR tv436[ebp]
  0020f	8b 0c 02	 mov	 ecx, DWORD PTR [edx+eax]
  00212	8b 17		 mov	 edx, DWORD PTR [edi]
  00214	0f bf 47 06	 movsx	 eax, WORD PTR [edi+6]
  00218	51		 push	 ecx
  00219	52		 push	 edx
  0021a	50		 push	 eax
  0021b	8b cf		 mov	 ecx, edi
  0021d	e8 00 00 00 00	 call	 ?GetName@CItem@@QAEPADXZ ; CItem::GetName
  00222	50		 push	 eax
  00223	8d 4e 77	 lea	 ecx, DWORD PTR [esi+119]
  00226	51		 push	 ecx
  00227	8d 56 6c	 lea	 edx, DWORD PTR [esi+108]
  0022a	52		 push	 edx
  0022b	68 00 00 00 00	 push	 OFFSET ??_C@_0HF@LLJODOCN@?$FLJewelOfHarmony?$FN?$FLStrengthen?5Item@
  00230	ff 15 00 00 00
	00		 call	 DWORD PTR ?LogAddTD@@3P6AXPADZZA ; LogAddTD

; 543  : 		GCServerMsgStringSend(lMsg.Get(MSGGET(13, 45)), lpObj->m_Index, 1);

  00236	8b 06		 mov	 eax, DWORD PTR [esi]
  00238	83 c4 24	 add	 esp, 36			; 00000024H
  0023b	6a 01		 push	 1
  0023d	50		 push	 eax
  0023e	68 2d 0d 00 00	 push	 3373			; 00000d2dH
  00243	b9 00 00 00 00	 mov	 ecx, OFFSET ?lMsg@@3VCMsg@@A ; lMsg
  00248	e8 00 00 00 00	 call	 ?Get@CMsg@@QAEPADH@Z	; CMsg::Get
  0024d	50		 push	 eax
  0024e	e8 00 00 00 00	 call	 ?GCServerMsgStringSend@@YAXPADHE@Z ; GCServerMsgStringSend
  00253	83 c4 0c	 add	 esp, 12			; 0000000cH
  00256	5f		 pop	 edi
  00257	5e		 pop	 esi

; 544  : 		return TRUE;

  00258	b8 01 00 00 00	 mov	 eax, 1
  0025d	5b		 pop	 ebx

; 569  : 
; 570  : 
; 571  : 	return TRUE;
; 572  : }

  0025e	8b e5		 mov	 esp, ebp
  00260	5d		 pop	 ebp
  00261	c2 0c 00	 ret	 12			; 0000000cH
$LN1@Strengthen@2:

; 545  : 	}
; 546  : 
; 547  : 
; 548  : 	this->_MakeOption(pTarget, iItemOption, iItemOptionLevel);

  00264	8b 55 10	 mov	 edx, DWORD PTR _iItemOptionLevel$[ebp]
  00267	8b 45 f8	 mov	 eax, DWORD PTR _iItemOption$[ebp]
  0026a	52		 push	 edx
  0026b	50		 push	 eax
  0026c	57		 push	 edi
  0026d	e8 00 00 00 00	 call	 ?_MakeOption@CJewelOfHarmonySystem@@QAEHPAVCItem@@EE@Z ; CJewelOfHarmonySystem::_MakeOption

; 549  : 
; 550  : 	LogAddTD("[JewelOfHarmony][Strengthen Item] Strengthen Success [%s][%s] Name[%s] Type[%d] Serial[%u] JewelSerial(%u) Rate (%d/%d) Option %d OptionLevel %d", //season 2.5 changed -> identical
; 551  : 		lpObj->AccountID, lpObj->Name, pTarget->GetName(), pTarget->m_Type, pTarget->m_Number,
; 552  : 		pSource->m_Number, iSuccessRate, this->m_iRateStrengthenSuccess,
; 553  : 		iItemOption, iItemOptionLevel);

  00272	8b 4d 10	 mov	 ecx, DWORD PTR _iItemOptionLevel$[ebp]
  00275	8b 55 f8	 mov	 edx, DWORD PTR _iItemOption$[ebp]
  00278	8b 45 fc	 mov	 eax, DWORD PTR _this$[ebp]
  0027b	51		 push	 ecx
  0027c	8b 88 40 53 00
	00		 mov	 ecx, DWORD PTR [eax+21312]
  00282	8b 45 08	 mov	 eax, DWORD PTR tv436[ebp]
  00285	52		 push	 edx
  00286	8b 55 f4	 mov	 edx, DWORD PTR _iSuccessRate$[ebp]
  00289	51		 push	 ecx
  0028a	8b 4d 0c	 mov	 ecx, DWORD PTR tv427[ebp]
  0028d	52		 push	 edx
  0028e	8b 14 08	 mov	 edx, DWORD PTR [eax+ecx]
  00291	0f bf 4f 06	 movsx	 ecx, WORD PTR [edi+6]
  00295	8b 07		 mov	 eax, DWORD PTR [edi]
  00297	52		 push	 edx
  00298	50		 push	 eax
  00299	51		 push	 ecx
  0029a	8b cf		 mov	 ecx, edi
  0029c	e8 00 00 00 00	 call	 ?GetName@CItem@@QAEPADXZ ; CItem::GetName
  002a1	50		 push	 eax
  002a2	8d 56 77	 lea	 edx, DWORD PTR [esi+119]
  002a5	52		 push	 edx
  002a6	8d 46 6c	 lea	 eax, DWORD PTR [esi+108]
  002a9	50		 push	 eax
  002aa	68 00 00 00 00	 push	 OFFSET ??_C@_0JB@GPNNHBFH@?$FLJewelOfHarmony?$FN?$FLStrengthen?5Item@
  002af	ff 15 00 00 00
	00		 call	 DWORD PTR ?LogAddTD@@3P6AXPADZZA ; LogAddTD

; 554  : 
; 555  : 	GCServerMsgStringSend(lMsg.Get(MSGGET(13, 46)), lpObj->m_Index, 1);

  002b5	8b 0e		 mov	 ecx, DWORD PTR [esi]
  002b7	83 c4 2c	 add	 esp, 44			; 0000002cH
  002ba	6a 01		 push	 1
  002bc	51		 push	 ecx
  002bd	68 2e 0d 00 00	 push	 3374			; 00000d2eH
  002c2	b9 00 00 00 00	 mov	 ecx, OFFSET ?lMsg@@3VCMsg@@A ; lMsg
  002c7	e8 00 00 00 00	 call	 ?Get@CMsg@@QAEPADH@Z	; CMsg::Get
  002cc	50		 push	 eax
  002cd	e8 00 00 00 00	 call	 ?GCServerMsgStringSend@@YAXPADHE@Z ; GCServerMsgStringSend

; 556  : 
; 557  : 	gObjMakePreviewCharSet(lpObj->m_Index);

  002d2	8b 16		 mov	 edx, DWORD PTR [esi]
  002d4	52		 push	 edx
  002d5	e8 00 00 00 00	 call	 ?gObjMakePreviewCharSet@@YAXH@Z ; gObjMakePreviewCharSet

; 558  : 
; 559  : 	float levelitemdur = (float)ItemGetDurability(lpObj->pInventory[target].m_Type,
; 560  : 		lpObj->pInventory[target].m_Level, lpObj->pInventory[target].IsExtItem(),
; 561  : 		lpObj->pInventory[target].IsSetItem());

  002da	8b 86 24 0e 00
	00		 mov	 eax, DWORD PTR [esi+3620]
  002e0	83 c4 10	 add	 esp, 16			; 00000010H
  002e3	8d 0c 03	 lea	 ecx, DWORD PTR [ebx+eax]
  002e6	8d 3c 18	 lea	 edi, DWORD PTR [eax+ebx]
  002e9	e8 00 00 00 00	 call	 ?IsSetItem@CItem@@QAEHXZ ; CItem::IsSetItem
  002ee	8b 8e 24 0e 00
	00		 mov	 ecx, DWORD PTR [esi+3620]
  002f4	50		 push	 eax
  002f5	03 cb		 add	 ecx, ebx
  002f7	e8 00 00 00 00	 call	 ?IsExtItem@CItem@@QAEHXZ ; CItem::IsExtItem
  002fc	0f bf 4f 08	 movsx	 ecx, WORD PTR [edi+8]
  00300	0f bf 57 06	 movsx	 edx, WORD PTR [edi+6]
  00304	50		 push	 eax
  00305	51		 push	 ecx
  00306	52		 push	 edx
  00307	e8 00 00 00 00	 call	 ?ItemGetDurability@@YAHHHHH@Z ; ItemGetDurability
  0030c	89 45 08	 mov	 DWORD PTR tv457[ebp], eax

; 562  : 
; 563  : 	lpObj->pInventory[target].m_Durability = levelitemdur * lpObj->pInventory[target].m_Durability / lpObj->pInventory[target].m_BaseDurability;

  0030f	8b 86 24 0e 00
	00		 mov	 eax, DWORD PTR [esi+3620]
  00315	db 45 08	 fild	 DWORD PTR tv457[ebp]
  00318	83 c4 10	 add	 esp, 16			; 00000010H

; 564  : 
; 565  : 	lpObj->pInventory[target].Convert(lpObj->pInventory[target].m_Type,
; 566  : 		lpObj->pInventory[target].m_Option1, lpObj->pInventory[target].m_Option2,
; 567  : 		lpObj->pInventory[target].m_Option3, lpObj->pInventory[target].m_NewOption,
; 568  : 		lpObj->pInventory[target].m_SetOption, lpObj->pInventory[target].m_ItemOptionEx, NULL, 0xFF, 0, 3);

  0031b	6a 03		 push	 3
  0031d	6a 00		 push	 0
  0031f	d9 5d 08	 fstp	 DWORD PTR _levelitemdur$[ebp]
  00322	68 ff 00 00 00	 push	 255			; 000000ffH
  00327	d9 44 18 24	 fld	 DWORD PTR [eax+ebx+36]
  0032b	6a 00		 push	 0
  0032d	d8 4d 08	 fmul	 DWORD PTR _levelitemdur$[ebp]
  00330	d8 74 18 2c	 fdiv	 DWORD PTR [eax+ebx+44]
  00334	d9 5c 18 24	 fstp	 DWORD PTR [eax+ebx+36]
  00338	8b 8e 24 0e 00
	00		 mov	 ecx, DWORD PTR [esi+3620]
  0033e	0f b6 94 19 ca
	00 00 00	 movzx	 edx, BYTE PTR [ecx+ebx+202]
  00346	0f b6 84 19 ae
	00 00 00	 movzx	 eax, BYTE PTR [ecx+ebx+174]
  0034e	03 cb		 add	 ecx, ebx
  00350	52		 push	 edx
  00351	0f b6 91 97 00
	00 00		 movzx	 edx, BYTE PTR [ecx+151]
  00358	50		 push	 eax
  00359	0f b6 81 96 00
	00 00		 movzx	 eax, BYTE PTR [ecx+150]
  00360	52		 push	 edx
  00361	0f b6 91 95 00
	00 00		 movzx	 edx, BYTE PTR [ecx+149]
  00368	50		 push	 eax
  00369	0f b6 81 94 00
	00 00		 movzx	 eax, BYTE PTR [ecx+148]
  00370	52		 push	 edx
  00371	0f bf 51 06	 movsx	 edx, WORD PTR [ecx+6]
  00375	50		 push	 eax
  00376	52		 push	 edx
  00377	e8 00 00 00 00	 call	 ?Convert@CItem@@QAEXHEEEEEEPAEEEE@Z ; CItem::Convert
  0037c	5f		 pop	 edi
  0037d	5e		 pop	 esi
  0037e	b8 01 00 00 00	 mov	 eax, 1
  00383	5b		 pop	 ebx

; 569  : 
; 570  : 
; 571  : 	return TRUE;
; 572  : }

  00384	8b e5		 mov	 esp, ebp
  00386	5d		 pop	 ebp
  00387	c2 0c 00	 ret	 12			; 0000000cH
$LN10@Strengthen@2:

; 475  : 		return FALSE;

  0038a	33 c0		 xor	 eax, eax
  0038c	5b		 pop	 ebx

; 569  : 
; 570  : 
; 571  : 	return TRUE;
; 572  : }

  0038d	8b e5		 mov	 esp, ebp
  0038f	5d		 pop	 ebp
  00390	c2 0c 00	 ret	 12			; 0000000cH
?StrengthenItemByJewelOfHarmony@CJewelOfHarmonySystem@@QAEHPAUOBJECTSTRUCT@@HH@Z ENDP ; CJewelOfHarmonySystem::StrengthenItemByJewelOfHarmony
_TEXT	ENDS
PUBLIC	?SetApplyStrengthenItem@CJewelOfHarmonySystem@@QAEXPAUOBJECTSTRUCT@@@Z ; CJewelOfHarmonySystem::SetApplyStrengthenItem
; Function compile flags: /Ogtp
;	COMDAT ?SetApplyStrengthenItem@CJewelOfHarmonySystem@@QAEXPAUOBJECTSTRUCT@@@Z
_TEXT	SEGMENT
_this$ = -4						; size = 4
_lpObj$ = 8						; size = 4
?SetApplyStrengthenItem@CJewelOfHarmonySystem@@QAEXPAUOBJECTSTRUCT@@@Z PROC ; CJewelOfHarmonySystem::SetApplyStrengthenItem, COMDAT
; _this$ = ecx

; 678  : {

  00000	55		 push	 ebp
  00001	8b ec		 mov	 ebp, esp
  00003	51		 push	 ecx
  00004	53		 push	 ebx
  00005	56		 push	 esi

; 679  : 	JEWELOFHARMONY_ITEM_EFFECT * pItemEffect = &lpObj->m_JewelOfHarmonyEffect;

  00006	8b 75 08	 mov	 esi, DWORD PTR _lpObj$[ebp]
  00009	57		 push	 edi
  0000a	8d be d8 1f 00
	00		 lea	 edi, DWORD PTR [esi+8152]

; 680  : 
; 681  : 	this->InitEffectValue(pItemEffect);

  00010	57		 push	 edi
  00011	89 4d fc	 mov	 DWORD PTR _this$[ebp], ecx
  00014	e8 00 00 00 00	 call	 ?InitEffectValue@CJewelOfHarmonySystem@@QAEXPAUJEWELOFHARMONY_ITEM_EFFECT@@@Z ; CJewelOfHarmonySystem::InitEffectValue
  00019	33 db		 xor	 ebx, ebx
  0001b	eb 03 8d 49 00	 npad	 5
$LL5@SetApplySt:

; 686  : 	{
; 687  : 		if ( lpObj->pInventory[iItemIndex].IsItem() != FALSE )

  00020	8b 8e 24 0e 00
	00		 mov	 ecx, DWORD PTR [esi+3620]
  00026	03 cb		 add	 ecx, ebx
  00028	e8 00 00 00 00	 call	 ?IsItem@CItem@@QAEHXZ	; CItem::IsItem
  0002d	85 c0		 test	 eax, eax
  0002f	74 1b		 je	 SHORT $LN4@SetApplySt

; 688  : 		{
; 689  : 			if ( lpObj->pInventory[iItemIndex].m_IsValidItem !=  false )

  00031	8b 86 24 0e 00
	00		 mov	 eax, DWORD PTR [esi+3620]
  00037	03 c3		 add	 eax, ebx
  00039	80 b8 b0 00 00
	00 00		 cmp	 BYTE PTR [eax+176], 0
  00040	74 0a		 je	 SHORT $LN4@SetApplySt

; 690  : 			{
; 691  : 				BOOL bResult = this->_CalcItemEffectValue(&lpObj->pInventory[iItemIndex], pItemEffect);

  00042	8b 4d fc	 mov	 ecx, DWORD PTR _this$[ebp]
  00045	57		 push	 edi
  00046	50		 push	 eax
  00047	e8 00 00 00 00	 call	 ?_CalcItemEffectValue@CJewelOfHarmonySystem@@QAEHPAVCItem@@PAUJEWELOFHARMONY_ITEM_EFFECT@@@Z ; CJewelOfHarmonySystem::_CalcItemEffectValue
$LN4@SetApplySt:

; 682  : 
; 683  : 	int iItemIndex = 0;
; 684  : 
; 685  : 	for ( iItemIndex =0;iItemIndex <INVETORY_WEAR_SIZE ; iItemIndex++)

  0004c	81 c3 d4 00 00
	00		 add	 ebx, 212		; 000000d4H
  00052	81 fb f0 09 00
	00		 cmp	 ebx, 2544		; 000009f0H
  00058	7c c6		 jl	 SHORT $LL5@SetApplySt

; 692  : 			}
; 693  : 		}
; 694  : 	}
; 695  : 
; 696  : 	lpObj->m_AttackDamageMinLeft += pItemEffect->HJOpAddMinAttackDamage;

  0005a	0f bf 0f	 movsx	 ecx, WORD PTR [edi]
  0005d	01 8e 7c 04 00
	00		 add	 DWORD PTR [esi+1148], ecx

; 697  : 	lpObj->m_AttackDamageMinLeft += pItemEffect->HJOpAddAttackDamage;

  00063	0f bf 57 08	 movsx	 edx, WORD PTR [edi+8]
  00067	03 96 7c 04 00
	00		 add	 edx, DWORD PTR [esi+1148]
  0006d	89 96 7c 04 00
	00		 mov	 DWORD PTR [esi+1148], edx

; 698  : 	lpObj->m_AttackDamageMinRight += pItemEffect->HJOpAddMinAttackDamage;

  00073	0f bf 07	 movsx	 eax, WORD PTR [edi]
  00076	01 86 84 04 00
	00		 add	 DWORD PTR [esi+1156], eax

; 699  : 	lpObj->m_AttackDamageMinRight += pItemEffect->HJOpAddAttackDamage;

  0007c	0f bf 4f 08	 movsx	 ecx, WORD PTR [edi+8]
  00080	03 8e 84 04 00
	00		 add	 ecx, DWORD PTR [esi+1156]
  00086	89 8e 84 04 00
	00		 mov	 DWORD PTR [esi+1156], ecx

; 700  : 
; 701  : 	lpObj->m_AttackDamageMaxLeft += pItemEffect->HJOpAddMaxAttackDamage;

  0008c	0f bf 57 02	 movsx	 edx, WORD PTR [edi+2]
  00090	01 96 78 04 00
	00		 add	 DWORD PTR [esi+1144], edx

; 702  : 	lpObj->m_AttackDamageMaxLeft += pItemEffect->HJOpAddAttackDamage;

  00096	0f bf 4f 08	 movsx	 ecx, WORD PTR [edi+8]
  0009a	03 8e 78 04 00
	00		 add	 ecx, DWORD PTR [esi+1144]
  000a0	89 8e 78 04 00
	00		 mov	 DWORD PTR [esi+1144], ecx

; 703  : 	lpObj->m_AttackDamageMaxRight += pItemEffect->HJOpAddMaxAttackDamage;

  000a6	0f bf 57 02	 movsx	 edx, WORD PTR [edi+2]
  000aa	01 96 80 04 00
	00		 add	 DWORD PTR [esi+1152], edx

; 704  : 	lpObj->m_AttackDamageMaxRight += pItemEffect->HJOpAddAttackDamage;

  000b0	0f bf 4f 08	 movsx	 ecx, WORD PTR [edi+8]
  000b4	03 8e 80 04 00
	00		 add	 ecx, DWORD PTR [esi+1152]
  000ba	89 8e 80 04 00
	00		 mov	 DWORD PTR [esi+1152], ecx

; 705  : 
; 706  : 	lpObj->m_MagicDamageMin += pItemEffect->HJOpAddMagicPower;

  000c0	0f bf 57 14	 movsx	 edx, WORD PTR [edi+20]
  000c4	01 96 68 04 00
	00		 add	 DWORD PTR [esi+1128], edx

; 707  : 	lpObj->m_MagicDamageMax += pItemEffect->HJOpAddMagicPower;

  000ca	0f bf 47 14	 movsx	 eax, WORD PTR [edi+20]
  000ce	01 86 6c 04 00
	00		 add	 DWORD PTR [esi+1132], eax

; 708  : 
; 709  : 	lpObj->m_Defense += pItemEffect->HJOpAddDefense * 10 / 20;

  000d4	0f bf 47 16	 movsx	 eax, WORD PTR [edi+22]
  000d8	8d 0c 80	 lea	 ecx, DWORD PTR [eax+eax*4]
  000db	03 c9		 add	 ecx, ecx
  000dd	b8 67 66 66 66	 mov	 eax, 1717986919		; 66666667H
  000e2	f7 e9		 imul	 ecx
  000e4	c1 fa 03	 sar	 edx, 3
  000e7	8b ca		 mov	 ecx, edx
  000e9	c1 e9 1f	 shr	 ecx, 31			; 0000001fH
  000ec	03 ca		 add	 ecx, edx
  000ee	01 8e 94 04 00
	00		 add	 DWORD PTR [esi+1172], ecx

; 710  : 
; 711  : 	lpObj->AddBP += pItemEffect->HJOpAddMaxAG;

  000f4	0f bf 57 18	 movsx	 edx, WORD PTR [edi+24]
  000f8	01 96 30 01 00
	00		 add	 DWORD PTR [esi+304], edx

; 712  : 	
; 713  : 	lpObj->AddLife += pItemEffect->HJOpAddMaxHP;

  000fe	0f bf 47 1a	 movsx	 eax, WORD PTR [edi+26]
  00102	01 86 4c 01 00
	00		 add	 DWORD PTR [esi+332], eax

; 714  : 
; 715  : 	lpObj->DamageMinus += pItemEffect->HJOpAddDamageDecrease;

  00108	8a 4f 22	 mov	 cl, BYTE PTR [edi+34]
  0010b	00 8e 70 01 00
	00		 add	 BYTE PTR [esi+368], cl
  00111	5f		 pop	 edi
  00112	5e		 pop	 esi
  00113	5b		 pop	 ebx

; 716  : }

  00114	8b e5		 mov	 esp, ebp
  00116	5d		 pop	 ebp
  00117	c2 04 00	 ret	 4
?SetApplyStrengthenItem@CJewelOfHarmonySystem@@QAEXPAUOBJECTSTRUCT@@@Z ENDP ; CJewelOfHarmonySystem::SetApplyStrengthenItem
_TEXT	ENDS
PUBLIC	??_C@_0JL@BOGENCJH@?$FLJewelOfHarmony?$FN?$FLSmelt?5Item?$FN?5Sme@ ; `string'
PUBLIC	??_C@_0IN@CGDKLAAB@?$FLJewelOfHarmony?$FN?$FLSmelt?5Item?$FN?5Sme@ ; `string'
PUBLIC	??_C@_0GD@LODEDAHC@?$FLJewelOfHarmony?$FN?$FLSmelt?5Item?$FN?5Alr@ ; `string'
PUBLIC	??_C@_0DK@EJIJHEJO@?$FLJewelOfHarmony?$FN?$FLSmelt?5Item?$FN?5Not@ ; `string'
PUBLIC	?SmeltItemBySmeltingStone@CJewelOfHarmonySystem@@QAEHPAUOBJECTSTRUCT@@HH@Z ; CJewelOfHarmonySystem::SmeltItemBySmeltingStone
;	COMDAT ??_C@_0JL@BOGENCJH@?$FLJewelOfHarmony?$FN?$FLSmelt?5Item?$FN?5Sme@
CONST	SEGMENT
??_C@_0JL@BOGENCJH@?$FLJewelOfHarmony?$FN?$FLSmelt?5Item?$FN?5Sme@ DB '[J'
	DB	'ewelOfHarmony][Smelt Item] Smelt Item Success by Normal[%d] ['
	DB	'%s][%s] Name[%s] Type [%d] Serial [%u] JewelSerial(%u) Rate(%'
	DB	'd/%d) Option(%d) Level(%d->%d)', 00H	; `string'
CONST	ENDS
;	COMDAT ??_C@_0IN@CGDKLAAB@?$FLJewelOfHarmony?$FN?$FLSmelt?5Item?$FN?5Sme@
CONST	SEGMENT
??_C@_0IN@CGDKLAAB@?$FLJewelOfHarmony?$FN?$FLSmelt?5Item?$FN?5Sme@ DB '[J'
	DB	'ewelOfHarmony][Smelt Item] Smelt Item Fail by Normal[%d] [%s]'
	DB	'[%s] Name[%s] Type [%d] Serial [%u] JewelSerial(%u) Rate(%d/%'
	DB	'd) Level(%d->%d)', 00H			; `string'
CONST	ENDS
;	COMDAT ??_C@_0GD@LODEDAHC@?$FLJewelOfHarmony?$FN?$FLSmelt?5Item?$FN?5Alr@
CONST	SEGMENT
??_C@_0GD@LODEDAHC@?$FLJewelOfHarmony?$FN?$FLSmelt?5Item?$FN?5Alr@ DB '[J'
	DB	'ewelOfHarmony][Smelt Item] Already Have Max OptionLevel [%s]['
	DB	'%s] OptionLevel [%d] ItemLevel [%d]', 00H	; `string'
CONST	ENDS
;	COMDAT ??_C@_0DK@EJIJHEJO@?$FLJewelOfHarmony?$FN?$FLSmelt?5Item?$FN?5Not@
CONST	SEGMENT
??_C@_0DK@EJIJHEJO@?$FLJewelOfHarmony?$FN?$FLSmelt?5Item?$FN?5Not@ DB '[J'
	DB	'ewelOfHarmony][Smelt Item] Not Strengthen Item [%s][%s]', 00H ; `string'
; Function compile flags: /Ogtp
CONST	ENDS
;	COMDAT ?SmeltItemBySmeltingStone@CJewelOfHarmonySystem@@QAEHPAUOBJECTSTRUCT@@HH@Z
_TEXT	SEGMENT
_iItemOptionNewLevel$212460 = -16			; size = 4
_iItemOptionNewLevel$212457 = -16			; size = 4
_bIsNormalSmeltingStone$ = -12				; size = 4
tv363 = -8						; size = 4
tv372 = -4						; size = 4
_iItemOptionLevel$ = 8					; size = 4
_lpObj$ = 8						; size = 4
_iRateSmeltingSuccess$ = 12				; size = 4
_source$ = 12						; size = 4
_iSuccessRate$ = 16					; size = 4
_target$ = 16						; size = 4
?SmeltItemBySmeltingStone@CJewelOfHarmonySystem@@QAEHPAUOBJECTSTRUCT@@HH@Z PROC ; CJewelOfHarmonySystem::SmeltItemBySmeltingStone, COMDAT
; _this$ = ecx

; 1059 : {

  00000	55		 push	 ebp
  00001	8b ec		 mov	 ebp, esp
  00003	83 ec 10	 sub	 esp, 16			; 00000010H
  00006	53		 push	 ebx
  00007	8b d9		 mov	 ebx, ecx

; 1060 : 	if ( this->m_bSystemSmeltingItem == FALSE )

  00009	83 bb 28 53 00
	00 00		 cmp	 DWORD PTR [ebx+21288], 0
  00010	75 29		 jne	 SHORT $LN20@SmeltItemB

; 1061 : 	{
; 1062 : 		GCServerMsgStringSend(lMsg.Get(MSGGET(13,51)), lpObj->m_Index, 1);

  00012	8b 45 08	 mov	 eax, DWORD PTR _lpObj$[ebp]
  00015	8b 08		 mov	 ecx, DWORD PTR [eax]
  00017	6a 01		 push	 1
  00019	51		 push	 ecx
  0001a	68 33 0d 00 00	 push	 3379			; 00000d33H
  0001f	b9 00 00 00 00	 mov	 ecx, OFFSET ?lMsg@@3VCMsg@@A ; lMsg
  00024	e8 00 00 00 00	 call	 ?Get@CMsg@@QAEPADH@Z	; CMsg::Get
  00029	50		 push	 eax
  0002a	e8 00 00 00 00	 call	 ?GCServerMsgStringSend@@YAXPADHE@Z ; GCServerMsgStringSend
  0002f	83 c4 0c	 add	 esp, 12			; 0000000cH
$LN18@SmeltItemB:

; 1063 : 		return FALSE;

  00032	33 c0		 xor	 eax, eax
  00034	5b		 pop	 ebx

; 1173 : }

  00035	8b e5		 mov	 esp, ebp
  00037	5d		 pop	 ebp
  00038	c2 0c 00	 ret	 12			; 0000000cH
$LN20@SmeltItemB:

; 1064 : 	}
; 1065 : 
; 1066 : 	if ( source < 0 || source > MAIN_INVENTORY_SIZE-1 )

  0003b	8b 45 0c	 mov	 eax, DWORD PTR _source$[ebp]
  0003e	3d cb 00 00 00	 cmp	 eax, 203		; 000000cbH
  00043	77 ed		 ja	 SHORT $LN18@SmeltItemB

; 1067 : 		return FALSE;
; 1068 : 
; 1069 : 	if ( target < 0 || target > MAIN_INVENTORY_SIZE-1 )

  00045	56		 push	 esi
  00046	8b 75 10	 mov	 esi, DWORD PTR _target$[ebp]
  00049	81 fe cb 00 00
	00		 cmp	 esi, 203		; 000000cbH
  0004f	0f 87 ba 02 00
	00		 ja	 $LN16@SmeltItemB

; 1071 : 
; 1072 : 	if ( lpObj->pInventory[source].IsItem() == FALSE )

  00055	69 c0 d4 00 00
	00		 imul	 eax, 212		; 000000d4H
  0005b	57		 push	 edi
  0005c	8b 7d 08	 mov	 edi, DWORD PTR _lpObj$[ebp]
  0005f	8b 8f 24 0e 00
	00		 mov	 ecx, DWORD PTR [edi+3620]
  00065	03 c8		 add	 ecx, eax
  00067	89 45 f8	 mov	 DWORD PTR tv363[ebp], eax
  0006a	e8 00 00 00 00	 call	 ?IsItem@CItem@@QAEHXZ	; CItem::IsItem
  0006f	85 c0		 test	 eax, eax

; 1073 : 		return FALSE;

  00071	74 4d		 je	 SHORT $LN26@SmeltItemB

; 1074 : 
; 1075 : 	if ( lpObj->pInventory[target].IsItem() == FALSE )

  00073	8b 8f 24 0e 00
	00		 mov	 ecx, DWORD PTR [edi+3620]
  00079	69 f6 d4 00 00
	00		 imul	 esi, 212		; 000000d4H
  0007f	03 ce		 add	 ecx, esi
  00081	e8 00 00 00 00	 call	 ?IsItem@CItem@@QAEHXZ	; CItem::IsItem
  00086	85 c0		 test	 eax, eax

; 1076 : 		return FALSE;

  00088	74 36		 je	 SHORT $LN26@SmeltItemB

; 1077 : 
; 1078 : 	//if ( lpObj->pInventory[target].m_Level >= 13 )
; 1079 : 	//	return FALSE;
; 1080 : 
; 1081 : 	CItem * pSource = &lpObj->pInventory[source];

  0008a	8b 87 24 0e 00
	00		 mov	 eax, DWORD PTR [edi+3620]

; 1082 : 	CItem * pTarget = &lpObj->pInventory[target];

  00090	03 f0		 add	 esi, eax

; 1083 : 	//int ZtAddJoHtoAnc = GetPrivateProfileInt("Items","AddJoHtoAnc",1,"..\\Data\\ZtData\\CommonServer.ini");
; 1084 : 	if(!ZtAddJoHtoAnc)

  00092	83 3d 00 00 00
	00 00		 cmp	 DWORD PTR ?ZtAddJoHtoAnc@@3HA, 0 ; ZtAddJoHtoAnc
  00099	89 45 fc	 mov	 DWORD PTR tv372[ebp], eax
  0009c	75 2d		 jne	 SHORT $LN12@SmeltItemB

; 1085 : 	{
; 1086 : 		if ( !this->IsStrengthenByJewelOfHarmony(pTarget)  )

  0009e	56		 push	 esi
  0009f	8b cb		 mov	 ecx, ebx
  000a1	e8 00 00 00 00	 call	 ?IsStrengthenByJewelOfHarmony@CJewelOfHarmonySystem@@QAEHPAVCItem@@@Z ; CJewelOfHarmonySystem::IsStrengthenByJewelOfHarmony
  000a6	85 c0		 test	 eax, eax
  000a8	75 21		 jne	 SHORT $LN12@SmeltItemB

; 1087 : 		{
; 1088 : 			LogAddTD("[JewelOfHarmony][Smelt Item] Not Strengthen Item [%s][%s]",
; 1089 : 				lpObj->AccountID, lpObj->Name);

  000aa	8d 57 77	 lea	 edx, DWORD PTR [edi+119]
  000ad	52		 push	 edx
  000ae	83 c7 6c	 add	 edi, 108		; 0000006cH
  000b1	57		 push	 edi
  000b2	68 00 00 00 00	 push	 OFFSET ??_C@_0DK@EJIJHEJO@?$FLJewelOfHarmony?$FN?$FLSmelt?5Item?$FN?5Not@
  000b7	ff 15 00 00 00
	00		 call	 DWORD PTR ?LogAddTD@@3P6AXPADZZA ; LogAddTD
  000bd	83 c4 0c	 add	 esp, 12			; 0000000cH
$LN26@SmeltItemB:

; 1118 : 
; 1119 : 		return FALSE;

  000c0	5f		 pop	 edi
  000c1	5e		 pop	 esi
  000c2	33 c0		 xor	 eax, eax
  000c4	5b		 pop	 ebx

; 1173 : }

  000c5	8b e5		 mov	 esp, ebp
  000c7	5d		 pop	 ebp
  000c8	c2 0c 00	 ret	 12			; 0000000cH
$LN12@SmeltItemB:

; 1090 : 	
; 1091 : 			return FALSE;
; 1092 : 		}
; 1093 : 	}
; 1094 : 	int iItemOptionLevel = this->_GetItemOptionLevel(pTarget);

  000cb	56		 push	 esi
  000cc	8b cb		 mov	 ecx, ebx
  000ce	e8 00 00 00 00	 call	 ?_GetItemOptionLevel@CJewelOfHarmonySystem@@QAEEPAVCItem@@@Z ; CJewelOfHarmonySystem::_GetItemOptionLevel
  000d3	0f b6 c0	 movzx	 eax, al
  000d6	89 45 08	 mov	 DWORD PTR _iItemOptionLevel$[ebp], eax

; 1095 : 
; 1096 : 	if( iItemOptionLevel >= 13 )	//1.01.00

  000d9	83 f8 0d	 cmp	 eax, 13			; 0000000dH
  000dc	7c 29		 jl	 SHORT $LN11@SmeltItemB

; 1097 : 	{
; 1098 : 		GCServerMsgStringSend(lMsg.Get(MSGGET(13,41)), lpObj->m_Index, 1);

  000de	8b 07		 mov	 eax, DWORD PTR [edi]
  000e0	6a 01		 push	 1
  000e2	50		 push	 eax
  000e3	68 29 0d 00 00	 push	 3369			; 00000d29H
  000e8	b9 00 00 00 00	 mov	 ecx, OFFSET ?lMsg@@3VCMsg@@A ; lMsg
  000ed	e8 00 00 00 00	 call	 ?Get@CMsg@@QAEPADH@Z	; CMsg::Get
  000f2	50		 push	 eax
  000f3	e8 00 00 00 00	 call	 ?GCServerMsgStringSend@@YAXPADHE@Z ; GCServerMsgStringSend

; 1099 : 		LogAddTD("[JewelOfHarmony][Smelt Item] Already Have Max OptionLevel [%s][%s] OptionLevel [%d] ItemLevel [%d]",
; 1100 : 			lpObj->AccountID, lpObj->Name, iItemOptionLevel, pTarget->m_Level);

  000f8	0f bf 4e 08	 movsx	 ecx, WORD PTR [esi+8]
  000fc	8b 55 08	 mov	 edx, DWORD PTR _iItemOptionLevel$[ebp]
  000ff	51		 push	 ecx
  00100	52		 push	 edx
  00101	8d 47 77	 lea	 eax, DWORD PTR [edi+119]
  00104	50		 push	 eax

; 1101 : 		return false;

  00105	eb 2f		 jmp	 SHORT $LN27@SmeltItemB
$LN11@SmeltItemB:

; 1102 : 	}
; 1103 : 		
; 1104 : 
; 1105 : 	if ( iItemOptionLevel >= pTarget->m_Level )

  00107	0f bf 4e 08	 movsx	 ecx, WORD PTR [esi+8]
  0010b	3b c1		 cmp	 eax, ecx
  0010d	7c 44		 jl	 SHORT $LN10@SmeltItemB

; 1106 : 	{
; 1107 : 		if ( iItemOptionLevel >= 13 )	//Season 5 +15 Items
; 1108 : 		{
; 1109 : 			GCServerMsgStringSend(lMsg.Get(MSGGET(13,41)), lpObj->m_Index, 1);
; 1110 : 		}
; 1111 : 		else
; 1112 : 		{
; 1113 : 			GCServerMsgStringSend(lMsg.Get(MSGGET(13,40)), lpObj->m_Index, 1);

  0010f	8b 17		 mov	 edx, DWORD PTR [edi]
  00111	6a 01		 push	 1
  00113	52		 push	 edx
  00114	68 28 0d 00 00	 push	 3368			; 00000d28H
  00119	b9 00 00 00 00	 mov	 ecx, OFFSET ?lMsg@@3VCMsg@@A ; lMsg
  0011e	e8 00 00 00 00	 call	 ?Get@CMsg@@QAEPADH@Z	; CMsg::Get
  00123	50		 push	 eax
  00124	e8 00 00 00 00	 call	 ?GCServerMsgStringSend@@YAXPADHE@Z ; GCServerMsgStringSend

; 1114 : 		}
; 1115 : 
; 1116 : 		LogAddTD("[JewelOfHarmony][Smelt Item] Already Have Max OptionLevel [%s][%s] OptionLevel [%d] ItemLevel [%d]",
; 1117 : 			lpObj->AccountID, lpObj->Name, iItemOptionLevel, pTarget->m_Level);

  00129	0f bf 46 08	 movsx	 eax, WORD PTR [esi+8]
  0012d	8b 4d 08	 mov	 ecx, DWORD PTR _iItemOptionLevel$[ebp]
  00130	50		 push	 eax
  00131	51		 push	 ecx
  00132	8d 57 77	 lea	 edx, DWORD PTR [edi+119]
  00135	52		 push	 edx
$LN27@SmeltItemB:
  00136	83 c7 6c	 add	 edi, 108		; 0000006cH
  00139	57		 push	 edi
  0013a	68 00 00 00 00	 push	 OFFSET ??_C@_0GD@LODEDAHC@?$FLJewelOfHarmony?$FN?$FLSmelt?5Item?$FN?5Alr@
  0013f	ff 15 00 00 00
	00		 call	 DWORD PTR ?LogAddTD@@3P6AXPADZZA ; LogAddTD
  00145	83 c4 20	 add	 esp, 32			; 00000020H
  00148	5f		 pop	 edi
  00149	5e		 pop	 esi

; 1118 : 
; 1119 : 		return FALSE;

  0014a	33 c0		 xor	 eax, eax
  0014c	5b		 pop	 ebx

; 1173 : }

  0014d	8b e5		 mov	 esp, ebp
  0014f	5d		 pop	 ebp
  00150	c2 0c 00	 ret	 12			; 0000000cH
$LN10@SmeltItemB:

; 1120 : 	}
; 1121 : 
; 1122 : 	if ( this->_GetItemType(pTarget) == JEWELOFHARMONY_ITEM_TYPE_WEAPON )

  00153	56		 push	 esi
  00154	8b cb		 mov	 ecx, ebx
  00156	e8 00 00 00 00	 call	 ?_GetItemType@CJewelOfHarmonySystem@@QAEHPAVCItem@@@Z ; CJewelOfHarmonySystem::_GetItemType
  0015b	83 f8 01	 cmp	 eax, 1
  0015e	75 54		 jne	 SHORT $LN5@SmeltItemB

; 1123 : 	{
; 1124 : 		if ( this->GetItemStrengthenOption(pTarget) == AT_JEWELOFHARMONY_WEAPON_IMPROVE_MINATTACKDAMAGE )

  00160	56		 push	 esi
  00161	8b cb		 mov	 ecx, ebx
  00163	e8 00 00 00 00	 call	 ?GetItemStrengthenOption@CJewelOfHarmonySystem@@QAEEPAVCItem@@@Z ; CJewelOfHarmonySystem::GetItemStrengthenOption
  00168	3c 01		 cmp	 al, 1
  0016a	75 48		 jne	 SHORT $LN5@SmeltItemB

; 1125 : 		{
; 1126 : 			int iNextLevel = this->_GetItemOptionLevel(pTarget)+1;

  0016c	56		 push	 esi
  0016d	e8 00 00 00 00	 call	 ?_GetItemOptionLevel@CJewelOfHarmonySystem@@QAEEPAVCItem@@@Z ; CJewelOfHarmonySystem::_GetItemOptionLevel

; 1127 : 			BYTE iValue = this->m_itemOption[JEWELOFHARMONY_ITEM_TYPE_WEAPON][AT_JEWELOFHARMONY_WEAPON_IMPROVE_MINATTACKDAMAGE].iItemEffectValue[iNextLevel];
; 1128 : 
; 1129 : 			if ( (pTarget->m_DamageMin+iValue) > (pTarget->m_DamageMax-1) )

  00172	0f b7 56 10	 movzx	 edx, WORD PTR [esi+16]
  00176	0f b6 c0	 movzx	 eax, al
  00179	0f b6 8c 18 2b
	16 00 00	 movzx	 ecx, BYTE PTR [eax+ebx+5675]
  00181	0f b7 46 12	 movzx	 eax, WORD PTR [esi+18]
  00185	03 ca		 add	 ecx, edx
  00187	48		 dec	 eax
  00188	3b c8		 cmp	 ecx, eax
  0018a	7e 28		 jle	 SHORT $LN5@SmeltItemB

; 1130 : 			{
; 1131 : 				GCServerMsgStringSend(lMsg.Get(MSGGET(13,41)), lpObj->m_Index, 1);

  0018c	8b 0f		 mov	 ecx, DWORD PTR [edi]
  0018e	6a 01		 push	 1
  00190	51		 push	 ecx
  00191	68 29 0d 00 00	 push	 3369			; 00000d29H
  00196	b9 00 00 00 00	 mov	 ecx, OFFSET ?lMsg@@3VCMsg@@A ; lMsg
  0019b	e8 00 00 00 00	 call	 ?Get@CMsg@@QAEPADH@Z	; CMsg::Get
  001a0	50		 push	 eax
  001a1	e8 00 00 00 00	 call	 ?GCServerMsgStringSend@@YAXPADHE@Z ; GCServerMsgStringSend
  001a6	83 c4 0c	 add	 esp, 12			; 0000000cH
  001a9	5f		 pop	 edi
  001aa	5e		 pop	 esi
  001ab	33 c0		 xor	 eax, eax
  001ad	5b		 pop	 ebx

; 1173 : }

  001ae	8b e5		 mov	 esp, ebp
  001b0	5d		 pop	 ebp
  001b1	c2 0c 00	 ret	 12			; 0000000cH
$LN5@SmeltItemB:

; 1132 : 				return FALSE;
; 1133 : 			}
; 1134 : 		}
; 1135 : 	}
; 1136 : 
; 1137 : 	int iSuccessRate = rand() % 100;

  001b4	e8 00 00 00 00	 call	 _rand
  001b9	99		 cdq
  001ba	b9 64 00 00 00	 mov	 ecx, 100		; 00000064H
  001bf	f7 f9		 idiv	 ecx

; 1138 : 	int iRateSmeltingSuccess = 0;
; 1139 : 	BOOL bIsNormalSmeltingStone = this->_IsJewelOfHarmonySmeltingItemNor(pSource->m_Type);

  001c1	8b 45 f8	 mov	 eax, DWORD PTR tv363[ebp]
  001c4	89 55 10	 mov	 DWORD PTR _iSuccessRate$[ebp], edx
  001c7	8b 55 fc	 mov	 edx, DWORD PTR tv372[ebp]
  001ca	0f b7 4c 02 06	 movzx	 ecx, WORD PTR [edx+eax+6]
  001cf	51		 push	 ecx
  001d0	8b cb		 mov	 ecx, ebx
  001d2	e8 00 00 00 00	 call	 ?_IsJewelOfHarmonySmeltingItemNor@CJewelOfHarmonySystem@@QAEHF@Z ; CJewelOfHarmonySystem::_IsJewelOfHarmonySmeltingItemNor
  001d7	89 45 f4	 mov	 DWORD PTR _bIsNormalSmeltingStone$[ebp], eax

; 1140 : 
; 1141 : 	if ( bIsNormalSmeltingStone == TRUE )

  001da	83 f8 01	 cmp	 eax, 1
  001dd	75 0b		 jne	 SHORT $LN4@SmeltItemB

; 1142 : 		iRateSmeltingSuccess = this->m_iRateSmeltingSuccessNor;

  001df	8b 93 44 53 00
	00		 mov	 edx, DWORD PTR [ebx+21316]
  001e5	89 55 0c	 mov	 DWORD PTR _iRateSmeltingSuccess$[ebp], edx

; 1143 : 	else

  001e8	eb 09		 jmp	 SHORT $LN3@SmeltItemB
$LN4@SmeltItemB:

; 1144 : 		iRateSmeltingSuccess = this->m_iRateSmeltingSuccessExt;

  001ea	8b 83 48 53 00
	00		 mov	 eax, DWORD PTR [ebx+21320]
  001f0	89 45 0c	 mov	 DWORD PTR _iRateSmeltingSuccess$[ebp], eax
$LN3@SmeltItemB:

; 1145 : 
; 1146 : 	if ( iSuccessRate >= iRateSmeltingSuccess )

  001f3	8b 4d 0c	 mov	 ecx, DWORD PTR _iRateSmeltingSuccess$[ebp]

; 1147 : 	{
; 1148 : 		int iItemOptionNewLevel = _GetItemOptionRequireLevel(pTarget);

  001f6	56		 push	 esi
  001f7	39 4d 10	 cmp	 DWORD PTR _iSuccessRate$[ebp], ecx
  001fa	7c 76		 jl	 SHORT $LN2@SmeltItemB
  001fc	8b cb		 mov	 ecx, ebx
  001fe	e8 00 00 00 00	 call	 ?_GetItemOptionRequireLevel@CJewelOfHarmonySystem@@QAEEPAVCItem@@@Z ; CJewelOfHarmonySystem::_GetItemOptionRequireLevel

; 1149 : 		pTarget->m_JewelOfHarmonyOption = pTarget->m_JewelOfHarmonyOption & 0xF0;
; 1150 : 		pTarget->m_JewelOfHarmonyOption |= iItemOptionNewLevel & 0x0F;

  00203	8a 96 c4 00 00
	00		 mov	 dl, BYTE PTR [esi+196]
  00209	0f b6 c0	 movzx	 eax, al
  0020c	32 d0		 xor	 dl, al
  0020e	80 e2 0f	 and	 dl, 15			; 0000000fH
  00211	30 96 c4 00 00
	00		 xor	 BYTE PTR [esi+196], dl

; 1151 : 		this->ShowStrengthenOption(pTarget);

  00217	56		 push	 esi
  00218	8b cb		 mov	 ecx, ebx
  0021a	89 45 f0	 mov	 DWORD PTR _iItemOptionNewLevel$212457[ebp], eax
  0021d	e8 00 00 00 00	 call	 ?ShowStrengthenOption@CJewelOfHarmonySystem@@QAEEPAVCItem@@@Z ; CJewelOfHarmonySystem::ShowStrengthenOption

; 1152 : 
; 1153 : 		LogAddTD("[JewelOfHarmony][Smelt Item] Smelt Item Fail by Normal[%d] [%s][%s] Name[%s] Type [%d] Serial [%u] JewelSerial(%u) Rate(%d/%d) Level(%d->%d)",
; 1154 : 			bIsNormalSmeltingStone, lpObj->AccountID, lpObj->Name, pTarget->GetName(), pTarget->m_Type,
; 1155 : 			pTarget->m_Number, pSource->m_Number, iSuccessRate, iRateSmeltingSuccess, iItemOptionLevel, iItemOptionNewLevel);

  00222	8b 45 f0	 mov	 eax, DWORD PTR _iItemOptionNewLevel$212457[ebp]
  00225	8b 4d 08	 mov	 ecx, DWORD PTR _iItemOptionLevel$[ebp]
  00228	8b 55 0c	 mov	 edx, DWORD PTR _iRateSmeltingSuccess$[ebp]
  0022b	50		 push	 eax
  0022c	8b 45 10	 mov	 eax, DWORD PTR _iSuccessRate$[ebp]
  0022f	51		 push	 ecx
  00230	8b 4d fc	 mov	 ecx, DWORD PTR tv372[ebp]
  00233	52		 push	 edx
  00234	8b 55 f8	 mov	 edx, DWORD PTR tv363[ebp]
  00237	50		 push	 eax
  00238	8b 04 11	 mov	 eax, DWORD PTR [ecx+edx]
  0023b	8b 0e		 mov	 ecx, DWORD PTR [esi]
  0023d	0f bf 56 06	 movsx	 edx, WORD PTR [esi+6]
  00241	50		 push	 eax
  00242	51		 push	 ecx
  00243	52		 push	 edx
  00244	8b ce		 mov	 ecx, esi
  00246	e8 00 00 00 00	 call	 ?GetName@CItem@@QAEPADXZ ; CItem::GetName
  0024b	8b 55 f4	 mov	 edx, DWORD PTR _bIsNormalSmeltingStone$[ebp]
  0024e	50		 push	 eax
  0024f	8d 47 77	 lea	 eax, DWORD PTR [edi+119]
  00252	50		 push	 eax
  00253	8d 4f 6c	 lea	 ecx, DWORD PTR [edi+108]
  00256	51		 push	 ecx
  00257	52		 push	 edx
  00258	68 00 00 00 00	 push	 OFFSET ??_C@_0IN@CGDKLAAB@?$FLJewelOfHarmony?$FN?$FLSmelt?5Item?$FN?5Sme@
  0025d	ff 15 00 00 00
	00		 call	 DWORD PTR ?LogAddTD@@3P6AXPADZZA ; LogAddTD

; 1156 : 		GCServerMsgStringSend(lMsg.Get(MSGGET(13, 47)), lpObj->m_Index, 1);

  00263	8b 07		 mov	 eax, DWORD PTR [edi]
  00265	83 c4 30	 add	 esp, 48			; 00000030H
  00268	6a 01		 push	 1
  0026a	50		 push	 eax
  0026b	68 2f 0d 00 00	 push	 3375			; 00000d2fH

; 1157 : 	}
; 1158 : 	else

  00270	eb 7c		 jmp	 SHORT $LN25@SmeltItemB
$LN2@SmeltItemB:

; 1159 : 	{
; 1160 : 		int iItemOptionNewLevel = iItemOptionLevel+1;
; 1161 : 		pTarget->m_JewelOfHarmonyOption = pTarget->m_JewelOfHarmonyOption & 0xF0;
; 1162 : 		pTarget->m_JewelOfHarmonyOption |= iItemOptionNewLevel & 0x0F;

  00272	8a 8e c4 00 00
	00		 mov	 cl, BYTE PTR [esi+196]
  00278	8b 45 08	 mov	 eax, DWORD PTR _iItemOptionLevel$[ebp]
  0027b	40		 inc	 eax
  0027c	32 c8		 xor	 cl, al
  0027e	80 e1 0f	 and	 cl, 15			; 0000000fH
  00281	30 8e c4 00 00
	00		 xor	 BYTE PTR [esi+196], cl

; 1163 : 		this->ShowStrengthenOption(pTarget);

  00287	8b cb		 mov	 ecx, ebx
  00289	89 45 f0	 mov	 DWORD PTR _iItemOptionNewLevel$212460[ebp], eax
  0028c	e8 00 00 00 00	 call	 ?ShowStrengthenOption@CJewelOfHarmonySystem@@QAEEPAVCItem@@@Z ; CJewelOfHarmonySystem::ShowStrengthenOption

; 1164 : 		int iItemOptionType = this->GetItemStrengthenOption(pTarget); //loc12

  00291	56		 push	 esi
  00292	8b cb		 mov	 ecx, ebx
  00294	e8 00 00 00 00	 call	 ?GetItemStrengthenOption@CJewelOfHarmonySystem@@QAEEPAVCItem@@@Z ; CJewelOfHarmonySystem::GetItemStrengthenOption

; 1165 : 
; 1166 : 		LogAddTD("[JewelOfHarmony][Smelt Item] Smelt Item Success by Normal[%d] [%s][%s] Name[%s] Type [%d] Serial [%u] JewelSerial(%u) Rate(%d/%d) Option(%d) Level(%d->%d)",
; 1167 : 			bIsNormalSmeltingStone, lpObj->AccountID, lpObj->Name, pTarget->GetName(), pTarget->m_Type,
; 1168 : 			pTarget->m_Number, pSource->m_Number, iSuccessRate, iRateSmeltingSuccess, iItemOptionType, iItemOptionLevel, iItemOptionNewLevel & 0x0F);

  00299	8b 4d f0	 mov	 ecx, DWORD PTR _iItemOptionNewLevel$212460[ebp]
  0029c	8b 55 08	 mov	 edx, DWORD PTR _iItemOptionLevel$[ebp]
  0029f	83 e1 0f	 and	 ecx, 15			; 0000000fH
  002a2	51		 push	 ecx
  002a3	8b 4d 10	 mov	 ecx, DWORD PTR _iSuccessRate$[ebp]
  002a6	52		 push	 edx
  002a7	8b 55 fc	 mov	 edx, DWORD PTR tv372[ebp]
  002aa	0f b6 c0	 movzx	 eax, al
  002ad	50		 push	 eax
  002ae	8b 45 0c	 mov	 eax, DWORD PTR _iRateSmeltingSuccess$[ebp]
  002b1	50		 push	 eax
  002b2	8b 45 f8	 mov	 eax, DWORD PTR tv363[ebp]
  002b5	51		 push	 ecx
  002b6	8b 0c 02	 mov	 ecx, DWORD PTR [edx+eax]
  002b9	8b 16		 mov	 edx, DWORD PTR [esi]
  002bb	0f bf 46 06	 movsx	 eax, WORD PTR [esi+6]
  002bf	51		 push	 ecx
  002c0	52		 push	 edx
  002c1	50		 push	 eax
  002c2	8b ce		 mov	 ecx, esi
  002c4	e8 00 00 00 00	 call	 ?GetName@CItem@@QAEPADXZ ; CItem::GetName
  002c9	50		 push	 eax
  002ca	8b 45 f4	 mov	 eax, DWORD PTR _bIsNormalSmeltingStone$[ebp]
  002cd	8d 4f 77	 lea	 ecx, DWORD PTR [edi+119]
  002d0	51		 push	 ecx
  002d1	8d 57 6c	 lea	 edx, DWORD PTR [edi+108]
  002d4	52		 push	 edx
  002d5	50		 push	 eax
  002d6	68 00 00 00 00	 push	 OFFSET ??_C@_0JL@BOGENCJH@?$FLJewelOfHarmony?$FN?$FLSmelt?5Item?$FN?5Sme@
  002db	ff 15 00 00 00
	00		 call	 DWORD PTR ?LogAddTD@@3P6AXPADZZA ; LogAddTD

; 1169 : 		GCServerMsgStringSend(lMsg.Get(MSGGET(13, 48)), lpObj->m_Index, 1);

  002e1	8b 0f		 mov	 ecx, DWORD PTR [edi]
  002e3	83 c4 34	 add	 esp, 52			; 00000034H
  002e6	6a 01		 push	 1
  002e8	51		 push	 ecx
  002e9	68 30 0d 00 00	 push	 3376			; 00000d30H
$LN25@SmeltItemB:
  002ee	b9 00 00 00 00	 mov	 ecx, OFFSET ?lMsg@@3VCMsg@@A ; lMsg
  002f3	e8 00 00 00 00	 call	 ?Get@CMsg@@QAEPADH@Z	; CMsg::Get
  002f8	50		 push	 eax
  002f9	e8 00 00 00 00	 call	 ?GCServerMsgStringSend@@YAXPADHE@Z ; GCServerMsgStringSend
  002fe	83 c4 0c	 add	 esp, 12			; 0000000cH
  00301	5f		 pop	 edi
  00302	5e		 pop	 esi

; 1170 : 	}
; 1171 : 
; 1172 : 	return TRUE;

  00303	b8 01 00 00 00	 mov	 eax, 1
  00308	5b		 pop	 ebx

; 1173 : }

  00309	8b e5		 mov	 esp, ebp
  0030b	5d		 pop	 ebp
  0030c	c2 0c 00	 ret	 12			; 0000000cH
$LN16@SmeltItemB:
  0030f	5e		 pop	 esi

; 1070 : 		return FALSE;

  00310	33 c0		 xor	 eax, eax
  00312	5b		 pop	 ebx

; 1173 : }

  00313	8b e5		 mov	 esp, ebp
  00315	5d		 pop	 ebp
  00316	c2 0c 00	 ret	 12			; 0000000cH
?SmeltItemBySmeltingStone@CJewelOfHarmonySystem@@QAEHPAUOBJECTSTRUCT@@HH@Z ENDP ; CJewelOfHarmonySystem::SmeltItemBySmeltingStone
_TEXT	ENDS
PUBLIC	??9?$_Tree_const_iterator@V?$_Tree_val@V?$_Tmap_traits@HHU?$less@H@std@@V?$allocator@U?$pair@$$CBHH@std@@@2@$0A@@std@@@std@@@std@@QBE_NABV01@@Z ; std::_Tree_const_iterator<std::_Tree_val<std::_Tmap_traits<int,int,std::less<int>,std::allocator<std::pair<int const ,int> >,0> > >::operator!=
; Function compile flags: /Ogtp
; File d:\program files (x86)\microsoft visual studio 10.0\vc\include\xtree
;	COMDAT ??9?$_Tree_const_iterator@V?$_Tree_val@V?$_Tmap_traits@HHU?$less@H@std@@V?$allocator@U?$pair@$$CBHH@std@@@2@$0A@@std@@@std@@@std@@QBE_NABV01@@Z
_TEXT	SEGMENT
__Right$ = 8						; size = 4
??9?$_Tree_const_iterator@V?$_Tree_val@V?$_Tmap_traits@HHU?$less@H@std@@V?$allocator@U?$pair@$$CBHH@std@@@2@$0A@@std@@@std@@@std@@QBE_NABV01@@Z PROC ; std::_Tree_const_iterator<std::_Tree_val<std::_Tmap_traits<int,int,std::less<int>,std::allocator<std::pair<int const ,int> >,0> > >::operator!=, COMDAT
; _this$ = ecx

; 334  : 		{	// test for iterator inequality

  00000	55		 push	 ebp
  00001	8b ec		 mov	 ebp, esp

; 335  : 		return (!(*this == _Right));

  00003	8b 01		 mov	 eax, DWORD PTR [ecx]
  00005	8b 55 08	 mov	 edx, DWORD PTR __Right$[ebp]
  00008	33 c9		 xor	 ecx, ecx
  0000a	3b 02		 cmp	 eax, DWORD PTR [edx]
  0000c	0f 95 c0	 setne	 al

; 336  : 		}

  0000f	5d		 pop	 ebp
  00010	c2 04 00	 ret	 4
??9?$_Tree_const_iterator@V?$_Tree_val@V?$_Tmap_traits@HHU?$less@H@std@@V?$allocator@U?$pair@$$CBHH@std@@@2@$0A@@std@@@std@@@std@@QBE_NABV01@@Z ENDP ; std::_Tree_const_iterator<std::_Tree_val<std::_Tmap_traits<int,int,std::less<int>,std::allocator<std::pair<int const ,int> >,0> > >::operator!=
_TEXT	ENDS
PUBLIC	?_Lmost@?$_Tree@V?$_Tmap_traits@HHU?$less@H@std@@V?$allocator@U?$pair@$$CBHH@std@@@2@$0A@@std@@@std@@IBEAAPAU_Node@?$_Tree_nod@V?$_Tmap_traits@HHU?$less@H@std@@V?$allocator@U?$pair@$$CBHH@std@@@2@$0A@@std@@@2@XZ ; std::_Tree<std::_Tmap_traits<int,int,std::less<int>,std::allocator<std::pair<int const ,int> >,0> >::_Lmost
; Function compile flags: /Ogtp
;	COMDAT ?_Lmost@?$_Tree@V?$_Tmap_traits@HHU?$less@H@std@@V?$allocator@U?$pair@$$CBHH@std@@@2@$0A@@std@@@std@@IBEAAPAU_Node@?$_Tree_nod@V?$_Tmap_traits@HHU?$less@H@std@@V?$allocator@U?$pair@$$CBHH@std@@@2@$0A@@std@@@2@XZ
_TEXT	SEGMENT
?_Lmost@?$_Tree@V?$_Tmap_traits@HHU?$less@H@std@@V?$allocator@U?$pair@$$CBHH@std@@@2@$0A@@std@@@std@@IBEAAPAU_Node@?$_Tree_nod@V?$_Tmap_traits@HHU?$less@H@std@@V?$allocator@U?$pair@$$CBHH@std@@@2@$0A@@std@@@2@XZ PROC ; std::_Tree<std::_Tmap_traits<int,int,std::less<int>,std::allocator<std::pair<int const ,int> >,0> >::_Lmost, COMDAT
; _this$ = ecx

; 1759 : 		return (this->_Left(this->_Myhead));

  00000	8b 41 04	 mov	 eax, DWORD PTR [ecx+4]

; 1760 : 		}

  00003	c3		 ret	 0
?_Lmost@?$_Tree@V?$_Tmap_traits@HHU?$less@H@std@@V?$allocator@U?$pair@$$CBHH@std@@@2@$0A@@std@@@std@@IBEAAPAU_Node@?$_Tree_nod@V?$_Tmap_traits@HHU?$less@H@std@@V?$allocator@U?$pair@$$CBHH@std@@@2@$0A@@std@@@2@XZ ENDP ; std::_Tree<std::_Tmap_traits<int,int,std::less<int>,std::allocator<std::pair<int const ,int> >,0> >::_Lmost
_TEXT	ENDS
PUBLIC	?_Rmost@?$_Tree@V?$_Tmap_traits@HHU?$less@H@std@@V?$allocator@U?$pair@$$CBHH@std@@@2@$0A@@std@@@std@@IBEAAPAU_Node@?$_Tree_nod@V?$_Tmap_traits@HHU?$less@H@std@@V?$allocator@U?$pair@$$CBHH@std@@@2@$0A@@std@@@2@XZ ; std::_Tree<std::_Tmap_traits<int,int,std::less<int>,std::allocator<std::pair<int const ,int> >,0> >::_Rmost
; Function compile flags: /Ogtp
;	COMDAT ?_Rmost@?$_Tree@V?$_Tmap_traits@HHU?$less@H@std@@V?$allocator@U?$pair@$$CBHH@std@@@2@$0A@@std@@@std@@IBEAAPAU_Node@?$_Tree_nod@V?$_Tmap_traits@HHU?$less@H@std@@V?$allocator@U?$pair@$$CBHH@std@@@2@$0A@@std@@@2@XZ
_TEXT	SEGMENT
?_Rmost@?$_Tree@V?$_Tmap_traits@HHU?$less@H@std@@V?$allocator@U?$pair@$$CBHH@std@@@2@$0A@@std@@@std@@IBEAAPAU_Node@?$_Tree_nod@V?$_Tmap_traits@HHU?$less@H@std@@V?$allocator@U?$pair@$$CBHH@std@@@2@$0A@@std@@@2@XZ PROC ; std::_Tree<std::_Tmap_traits<int,int,std::less<int>,std::allocator<std::pair<int const ,int> >,0> >::_Rmost, COMDAT
; _this$ = ecx

; 1784 : 		return (this->_Right(this->_Myhead));

  00000	8b 41 04	 mov	 eax, DWORD PTR [ecx+4]
  00003	83 c0 08	 add	 eax, 8

; 1785 : 		}

  00006	c3		 ret	 0
?_Rmost@?$_Tree@V?$_Tmap_traits@HHU?$less@H@std@@V?$allocator@U?$pair@$$CBHH@std@@@2@$0A@@std@@@std@@IBEAAPAU_Node@?$_Tree_nod@V?$_Tmap_traits@HHU?$less@H@std@@V?$allocator@U?$pair@$$CBHH@std@@@2@$0A@@std@@@2@XZ ENDP ; std::_Tree<std::_Tmap_traits<int,int,std::less<int>,std::allocator<std::pair<int const ,int> >,0> >::_Rmost
_TEXT	ENDS
PUBLIC	?_Root@?$_Tree@V?$_Tmap_traits@HHU?$less@H@std@@V?$allocator@U?$pair@$$CBHH@std@@@2@$0A@@std@@@std@@IBEAAPAU_Node@?$_Tree_nod@V?$_Tmap_traits@HHU?$less@H@std@@V?$allocator@U?$pair@$$CBHH@std@@@2@$0A@@std@@@2@XZ ; std::_Tree<std::_Tmap_traits<int,int,std::less<int>,std::allocator<std::pair<int const ,int> >,0> >::_Root
; Function compile flags: /Ogtp
;	COMDAT ?_Root@?$_Tree@V?$_Tmap_traits@HHU?$less@H@std@@V?$allocator@U?$pair@$$CBHH@std@@@2@$0A@@std@@@std@@IBEAAPAU_Node@?$_Tree_nod@V?$_Tmap_traits@HHU?$less@H@std@@V?$allocator@U?$pair@$$CBHH@std@@@2@$0A@@std@@@2@XZ
_TEXT	SEGMENT
?_Root@?$_Tree@V?$_Tmap_traits@HHU?$less@H@std@@V?$allocator@U?$pair@$$CBHH@std@@@2@$0A@@std@@@std@@IBEAAPAU_Node@?$_Tree_nod@V?$_Tmap_traits@HHU?$less@H@std@@V?$allocator@U?$pair@$$CBHH@std@@@2@$0A@@std@@@2@XZ PROC ; std::_Tree<std::_Tmap_traits<int,int,std::less<int>,std::allocator<std::pair<int const ,int> >,0> >::_Root, COMDAT
; _this$ = ecx

; 1789 : 		return (this->_Parent(this->_Myhead));

  00000	8b 41 04	 mov	 eax, DWORD PTR [ecx+4]
  00003	83 c0 04	 add	 eax, 4

; 1790 : 		}

  00006	c3		 ret	 0
?_Root@?$_Tree@V?$_Tmap_traits@HHU?$less@H@std@@V?$allocator@U?$pair@$$CBHH@std@@@2@$0A@@std@@@std@@IBEAAPAU_Node@?$_Tree_nod@V?$_Tmap_traits@HHU?$less@H@std@@V?$allocator@U?$pair@$$CBHH@std@@@2@$0A@@std@@@2@XZ ENDP ; std::_Tree<std::_Tmap_traits<int,int,std::less<int>,std::allocator<std::pair<int const ,int> >,0> >::_Root
_TEXT	ENDS
PUBLIC	??1?$_Tree_val@V?$_Tmap_traits@HHU?$less@H@std@@V?$allocator@U?$pair@$$CBHH@std@@@2@$0A@@std@@@std@@QAE@XZ ; std::_Tree_val<std::_Tmap_traits<int,int,std::less<int>,std::allocator<std::pair<int const ,int> >,0> >::~_Tree_val<std::_Tmap_traits<int,int,std::less<int>,std::allocator<std::pair<int const ,int> >,0> >
; Function compile flags: /Ogtp
;	COMDAT ??1?$_Tree_val@V?$_Tmap_traits@HHU?$less@H@std@@V?$allocator@U?$pair@$$CBHH@std@@@2@$0A@@std@@@std@@QAE@XZ
_TEXT	SEGMENT
??1?$_Tree_val@V?$_Tmap_traits@HHU?$less@H@std@@V?$allocator@U?$pair@$$CBHH@std@@@2@$0A@@std@@@std@@QAE@XZ PROC ; std::_Tree_val<std::_Tmap_traits<int,int,std::less<int>,std::allocator<std::pair<int const ,int> >,0> >::~_Tree_val<std::_Tmap_traits<int,int,std::less<int>,std::allocator<std::pair<int const ,int> >,0> >, COMDAT
; _this$ = ecx

; 555  : 		this->_Alnod.deallocate(this->_Myhead, 1);

  00000	8b 41 04	 mov	 eax, DWORD PTR [ecx+4]
  00003	50		 push	 eax
  00004	e8 00 00 00 00	 call	 ??3@YAXPAX@Z		; operator delete
  00009	59		 pop	 ecx

; 556  : 		}

  0000a	c3		 ret	 0
??1?$_Tree_val@V?$_Tmap_traits@HHU?$less@H@std@@V?$allocator@U?$pair@$$CBHH@std@@@2@$0A@@std@@@std@@QAE@XZ ENDP ; std::_Tree_val<std::_Tmap_traits<int,int,std::less<int>,std::allocator<std::pair<int const ,int> >,0> >::~_Tree_val<std::_Tmap_traits<int,int,std::less<int>,std::allocator<std::pair<int const ,int> >,0> >
_TEXT	ENDS
PUBLIC	?_Key@?$_Tree_val@V?$_Tmap_traits@HHU?$less@H@std@@V?$allocator@U?$pair@$$CBHH@std@@@2@$0A@@std@@@std@@SAAAHPAU_Node@?$_Tree_nod@V?$_Tmap_traits@HHU?$less@H@std@@V?$allocator@U?$pair@$$CBHH@std@@@2@$0A@@std@@@2@@Z ; std::_Tree_val<std::_Tmap_traits<int,int,std::less<int>,std::allocator<std::pair<int const ,int> >,0> >::_Key
; Function compile flags: /Ogtp
;	COMDAT ?_Key@?$_Tree_val@V?$_Tmap_traits@HHU?$less@H@std@@V?$allocator@U?$pair@$$CBHH@std@@@2@$0A@@std@@@std@@SAAAHPAU_Node@?$_Tree_nod@V?$_Tmap_traits@HHU?$less@H@std@@V?$allocator@U?$pair@$$CBHH@std@@@2@$0A@@std@@@2@@Z
_TEXT	SEGMENT
__Pnode$ = 8						; size = 4
?_Key@?$_Tree_val@V?$_Tmap_traits@HHU?$less@H@std@@V?$allocator@U?$pair@$$CBHH@std@@@2@$0A@@std@@@std@@SAAAHPAU_Node@?$_Tree_nod@V?$_Tmap_traits@HHU?$less@H@std@@V?$allocator@U?$pair@$$CBHH@std@@@2@$0A@@std@@@2@@Z PROC ; std::_Tree_val<std::_Tmap_traits<int,int,std::less<int>,std::allocator<std::pair<int const ,int> >,0> >::_Key, COMDAT

; 616  : 		{	// return reference to key in node

  00000	55		 push	 ebp
  00001	8b ec		 mov	 ebp, esp

; 617  : 		return ((key_type&)_Traits::_Kfn(_Myval(_Pnode)));

  00003	8b 45 08	 mov	 eax, DWORD PTR __Pnode$[ebp]
  00006	83 c0 0c	 add	 eax, 12			; 0000000cH

; 618  : 		}

  00009	5d		 pop	 ebp
  0000a	c3		 ret	 0
?_Key@?$_Tree_val@V?$_Tmap_traits@HHU?$less@H@std@@V?$allocator@U?$pair@$$CBHH@std@@@2@$0A@@std@@@std@@SAAAHPAU_Node@?$_Tree_nod@V?$_Tmap_traits@HHU?$less@H@std@@V?$allocator@U?$pair@$$CBHH@std@@@2@$0A@@std@@@2@@Z ENDP ; std::_Tree_val<std::_Tmap_traits<int,int,std::less<int>,std::allocator<std::pair<int const ,int> >,0> >::_Key
_TEXT	ENDS
PUBLIC	??D?$_Tree_iterator@V?$_Tree_val@V?$_Tmap_traits@HHU?$less@H@std@@V?$allocator@U?$pair@$$CBHH@std@@@2@$0A@@std@@@std@@@std@@QBEAAU?$pair@$$CBHH@1@XZ ; std::_Tree_iterator<std::_Tree_val<std::_Tmap_traits<int,int,std::less<int>,std::allocator<std::pair<int const ,int> >,0> > >::operator*
; Function compile flags: /Ogtp
;	COMDAT ??D?$_Tree_iterator@V?$_Tree_val@V?$_Tmap_traits@HHU?$less@H@std@@V?$allocator@U?$pair@$$CBHH@std@@@2@$0A@@std@@@std@@@std@@QBEAAU?$pair@$$CBHH@1@XZ
_TEXT	SEGMENT
??D?$_Tree_iterator@V?$_Tree_val@V?$_Tmap_traits@HHU?$less@H@std@@V?$allocator@U?$pair@$$CBHH@std@@@2@$0A@@std@@@std@@@std@@QBEAAU?$pair@$$CBHH@1@XZ PROC ; std::_Tree_iterator<std::_Tree_val<std::_Tmap_traits<int,int,std::less<int>,std::allocator<std::pair<int const ,int> >,0> > >::operator*, COMDAT
; _this$ = ecx

; 396  : 		return ((reference)**(_Mybase *)this);

  00000	8b 01		 mov	 eax, DWORD PTR [ecx]
  00002	83 c0 0c	 add	 eax, 12			; 0000000cH

; 397  : 		}

  00005	c3		 ret	 0
??D?$_Tree_iterator@V?$_Tree_val@V?$_Tmap_traits@HHU?$less@H@std@@V?$allocator@U?$pair@$$CBHH@std@@@2@$0A@@std@@@std@@@std@@QBEAAU?$pair@$$CBHH@1@XZ ENDP ; std::_Tree_iterator<std::_Tree_val<std::_Tmap_traits<int,int,std::less<int>,std::allocator<std::pair<int const ,int> >,0> > >::operator*
_TEXT	ENDS
PUBLIC	?_Lbound@?$_Tree@V?$_Tmap_traits@HHU?$less@H@std@@V?$allocator@U?$pair@$$CBHH@std@@@2@$0A@@std@@@std@@IAEPAU_Node@?$_Tree_nod@V?$_Tmap_traits@HHU?$less@H@std@@V?$allocator@U?$pair@$$CBHH@std@@@2@$0A@@std@@@2@ABH@Z ; std::_Tree<std::_Tmap_traits<int,int,std::less<int>,std::allocator<std::pair<int const ,int> >,0> >::_Lbound
; Function compile flags: /Ogtp
;	COMDAT ?_Lbound@?$_Tree@V?$_Tmap_traits@HHU?$less@H@std@@V?$allocator@U?$pair@$$CBHH@std@@@2@$0A@@std@@@std@@IAEPAU_Node@?$_Tree_nod@V?$_Tmap_traits@HHU?$less@H@std@@V?$allocator@U?$pair@$$CBHH@std@@@2@$0A@@std@@@2@ABH@Z
_TEXT	SEGMENT
__Keyval$ = 8						; size = 4
?_Lbound@?$_Tree@V?$_Tmap_traits@HHU?$less@H@std@@V?$allocator@U?$pair@$$CBHH@std@@@2@$0A@@std@@@std@@IAEPAU_Node@?$_Tree_nod@V?$_Tmap_traits@HHU?$less@H@std@@V?$allocator@U?$pair@$$CBHH@std@@@2@$0A@@std@@@2@ABH@Z PROC ; std::_Tree<std::_Tmap_traits<int,int,std::less<int>,std::allocator<std::pair<int const ,int> >,0> >::_Lbound, COMDAT
; _this$ = ecx

; 1741 : 		{	// find leftmost node not less than _Keyval

  00000	55		 push	 ebp
  00001	8b ec		 mov	 ebp, esp

; 1742 : 		_Nodeptr _Pnode = _Root();

  00003	8b 41 04	 mov	 eax, DWORD PTR [ecx+4]
  00006	8b 48 04	 mov	 ecx, DWORD PTR [eax+4]

; 1743 : 		_Nodeptr _Wherenode = this->_Myhead;	// end() if search fails
; 1744 : 
; 1745 : 		while (!this->_Isnil(_Pnode))

  00009	80 79 15 00	 cmp	 BYTE PTR [ecx+21], 0
  0000d	75 19		 jne	 SHORT $LN3@Lbound
  0000f	8b 55 08	 mov	 edx, DWORD PTR __Keyval$[ebp]
  00012	8b 12		 mov	 edx, DWORD PTR [edx]
$LL4@Lbound:

; 1746 : 			if (_DEBUG_LT_PRED(this->comp, this->_Key(_Pnode), _Keyval))

  00014	39 51 0c	 cmp	 DWORD PTR [ecx+12], edx
  00017	7d 05		 jge	 SHORT $LN2@Lbound

; 1747 : 				_Pnode = this->_Right(_Pnode);	// descend right subtree

  00019	8b 49 08	 mov	 ecx, DWORD PTR [ecx+8]

; 1748 : 			else

  0001c	eb 04		 jmp	 SHORT $LN1@Lbound
$LN2@Lbound:

; 1749 : 				{	// _Pnode not less than _Keyval, remember it
; 1750 : 				_Wherenode = _Pnode;

  0001e	8b c1		 mov	 eax, ecx

; 1751 : 				_Pnode = this->_Left(_Pnode);	// descend left subtree

  00020	8b 09		 mov	 ecx, DWORD PTR [ecx]
$LN1@Lbound:

; 1743 : 		_Nodeptr _Wherenode = this->_Myhead;	// end() if search fails
; 1744 : 
; 1745 : 		while (!this->_Isnil(_Pnode))

  00022	80 79 15 00	 cmp	 BYTE PTR [ecx+21], 0
  00026	74 ec		 je	 SHORT $LL4@Lbound
$LN3@Lbound:

; 1752 : 				}
; 1753 : 
; 1754 : 		return (_Wherenode);	// return best remembered candidate
; 1755 : 		}

  00028	5d		 pop	 ebp
  00029	c2 04 00	 ret	 4
?_Lbound@?$_Tree@V?$_Tmap_traits@HHU?$less@H@std@@V?$allocator@U?$pair@$$CBHH@std@@@2@$0A@@std@@@std@@IAEPAU_Node@?$_Tree_nod@V?$_Tmap_traits@HHU?$less@H@std@@V?$allocator@U?$pair@$$CBHH@std@@@2@$0A@@std@@@2@ABH@Z ENDP ; std::_Tree<std::_Tmap_traits<int,int,std::less<int>,std::allocator<std::pair<int const ,int> >,0> >::_Lbound
_TEXT	ENDS
PUBLIC	??0?$_Pair_base@$$CBHH@std@@QAE@ABH$$QAH@Z	; std::_Pair_base<int const ,int>::_Pair_base<int const ,int>
; Function compile flags: /Ogtp
; File d:\program files (x86)\microsoft visual studio 10.0\vc\include\utility
;	COMDAT ??0?$_Pair_base@$$CBHH@std@@QAE@ABH$$QAH@Z
_TEXT	SEGMENT
__Val1$ = 8						; size = 4
__Val2$ = 12						; size = 4
??0?$_Pair_base@$$CBHH@std@@QAE@ABH$$QAH@Z PROC		; std::_Pair_base<int const ,int>::_Pair_base<int const ,int>, COMDAT
; _this$ = ecx

; 150  : 		{	// construct from specified values

  00000	55		 push	 ebp
  00001	8b ec		 mov	 ebp, esp
  00003	8b c1		 mov	 eax, ecx
  00005	8b 4d 08	 mov	 ecx, DWORD PTR __Val1$[ebp]
  00008	8b 11		 mov	 edx, DWORD PTR [ecx]
  0000a	8b 4d 0c	 mov	 ecx, DWORD PTR __Val2$[ebp]
  0000d	89 10		 mov	 DWORD PTR [eax], edx
  0000f	8b 11		 mov	 edx, DWORD PTR [ecx]
  00011	89 50 04	 mov	 DWORD PTR [eax+4], edx

; 151  : 		}

  00014	5d		 pop	 ebp
  00015	c2 08 00	 ret	 8
??0?$_Pair_base@$$CBHH@std@@QAE@ABH$$QAH@Z ENDP		; std::_Pair_base<int const ,int>::_Pair_base<int const ,int>
_TEXT	ENDS
PUBLIC	??0?$_Tree_nod@V?$_Tmap_traits@HHU?$less@H@std@@V?$allocator@U?$pair@$$CBHH@std@@@2@$0A@@std@@@std@@QAE@ABU?$less@H@1@V?$allocator@U?$pair@$$CBHH@std@@@1@@Z ; std::_Tree_nod<std::_Tmap_traits<int,int,std::less<int>,std::allocator<std::pair<int const ,int> >,0> >::_Tree_nod<std::_Tmap_traits<int,int,std::less<int>,std::allocator<std::pair<int const ,int> >,0> >
; Function compile flags: /Ogtp
; File d:\program files (x86)\microsoft visual studio 10.0\vc\include\xtree
;	COMDAT ??0?$_Tree_nod@V?$_Tmap_traits@HHU?$less@H@std@@V?$allocator@U?$pair@$$CBHH@std@@@2@$0A@@std@@@std@@QAE@ABU?$less@H@1@V?$allocator@U?$pair@$$CBHH@std@@@1@@Z
_TEXT	SEGMENT
__Parg$ = 8						; size = 4
__Al$ = 12						; size = 1
??0?$_Tree_nod@V?$_Tmap_traits@HHU?$less@H@std@@V?$allocator@U?$pair@$$CBHH@std@@@2@$0A@@std@@@std@@QAE@ABU?$less@H@1@V?$allocator@U?$pair@$$CBHH@std@@@1@@Z PROC ; std::_Tree_nod<std::_Tmap_traits<int,int,std::less<int>,std::allocator<std::pair<int const ,int> >,0> >::_Tree_nod<std::_Tmap_traits<int,int,std::less<int>,std::allocator<std::pair<int const ,int> >,0> >, COMDAT
; _this$ = ecx

; 482  : 		{	// construct traits from _Parg and allocators from _Al

  00000	8b c1		 mov	 eax, ecx

; 483  : 		}

  00002	c2 08 00	 ret	 8
??0?$_Tree_nod@V?$_Tmap_traits@HHU?$less@H@std@@V?$allocator@U?$pair@$$CBHH@std@@@2@$0A@@std@@@std@@QAE@ABU?$less@H@1@V?$allocator@U?$pair@$$CBHH@std@@@1@@Z ENDP ; std::_Tree_nod<std::_Tmap_traits<int,int,std::less<int>,std::allocator<std::pair<int const ,int> >,0> >::_Tree_nod<std::_Tmap_traits<int,int,std::less<int>,std::allocator<std::pair<int const ,int> >,0> >
_TEXT	ENDS
PUBLIC	??0?$_Tree_unchecked_const_iterator@V?$_Tree_val@V?$_Tmap_traits@HHU?$less@H@std@@V?$allocator@U?$pair@$$CBHH@std@@@2@$0A@@std@@@std@@U_Iterator_base0@2@@std@@QAE@PAU_Node@?$_Tree_nod@V?$_Tmap_traits@HHU?$less@H@std@@V?$allocator@U?$pair@$$CBHH@std@@@2@$0A@@std@@@1@PBV?$_Tree_val@V?$_Tmap_traits@HHU?$less@H@std@@V?$allocator@U?$pair@$$CBHH@std@@@2@$0A@@std@@@1@@Z ; std::_Tree_unchecked_const_iterator<std::_Tree_val<std::_Tmap_traits<int,int,std::less<int>,std::allocator<std::pair<int const ,int> >,0> >,std::_Iterator_base0>::_Tree_unchecked_const_iterator<std::_Tree_val<std::_Tmap_traits<int,int,std::less<int>,std::allocator<std::pair<int const ,int> >,0> >,std::_Iterator_base0>
; Function compile flags: /Ogtp
;	COMDAT ??0?$_Tree_unchecked_const_iterator@V?$_Tree_val@V?$_Tmap_traits@HHU?$less@H@std@@V?$allocator@U?$pair@$$CBHH@std@@@2@$0A@@std@@@std@@U_Iterator_base0@2@@std@@QAE@PAU_Node@?$_Tree_nod@V?$_Tmap_traits@HHU?$less@H@std@@V?$allocator@U?$pair@$$CBHH@std@@@2@$0A@@std@@@1@PBV?$_Tree_val@V?$_Tmap_traits@HHU?$less@H@std@@V?$allocator@U?$pair@$$CBHH@std@@@2@$0A@@std@@@1@@Z
_TEXT	SEGMENT
__Pnode$ = 8						; size = 4
__Plist$ = 12						; size = 4
??0?$_Tree_unchecked_const_iterator@V?$_Tree_val@V?$_Tmap_traits@HHU?$less@H@std@@V?$allocator@U?$pair@$$CBHH@std@@@2@$0A@@std@@@std@@U_Iterator_base0@2@@std@@QAE@PAU_Node@?$_Tree_nod@V?$_Tmap_traits@HHU?$less@H@std@@V?$allocator@U?$pair@$$CBHH@std@@@2@$0A@@std@@@1@PBV?$_Tree_val@V?$_Tmap_traits@HHU?$less@H@std@@V?$allocator@U?$pair@$$CBHH@std@@@2@$0A@@std@@@1@@Z PROC ; std::_Tree_unchecked_const_iterator<std::_Tree_val<std::_Tmap_traits<int,int,std::less<int>,std::allocator<std::pair<int const ,int> >,0> >,std::_Iterator_base0>::_Tree_unchecked_const_iterator<std::_Tree_val<std::_Tmap_traits<int,int,std::less<int>,std::allocator<std::pair<int const ,int> >,0> >,std::_Iterator_base0>, COMDAT
; _this$ = ecx

; 43   : 		{	// construct with node pointer _Pnode

  00000	55		 push	 ebp
  00001	8b ec		 mov	 ebp, esp
  00003	8b c1		 mov	 eax, ecx
  00005	8b 4d 08	 mov	 ecx, DWORD PTR __Pnode$[ebp]
  00008	89 08		 mov	 DWORD PTR [eax], ecx

; 44   : 		this->_Adopt(_Plist);
; 45   : 		}

  0000a	5d		 pop	 ebp
  0000b	c2 08 00	 ret	 8
??0?$_Tree_unchecked_const_iterator@V?$_Tree_val@V?$_Tmap_traits@HHU?$less@H@std@@V?$allocator@U?$pair@$$CBHH@std@@@2@$0A@@std@@@std@@U_Iterator_base0@2@@std@@QAE@PAU_Node@?$_Tree_nod@V?$_Tmap_traits@HHU?$less@H@std@@V?$allocator@U?$pair@$$CBHH@std@@@2@$0A@@std@@@1@PBV?$_Tree_val@V?$_Tmap_traits@HHU?$less@H@std@@V?$allocator@U?$pair@$$CBHH@std@@@2@$0A@@std@@@1@@Z ENDP ; std::_Tree_unchecked_const_iterator<std::_Tree_val<std::_Tmap_traits<int,int,std::less<int>,std::allocator<std::pair<int const ,int> >,0> >,std::_Iterator_base0>::_Tree_unchecked_const_iterator<std::_Tree_val<std::_Tmap_traits<int,int,std::less<int>,std::allocator<std::pair<int const ,int> >,0> >,std::_Iterator_base0>
_TEXT	ENDS
PUBLIC	?_Lrotate@?$_Tree@V?$_Tmap_traits@HHU?$less@H@std@@V?$allocator@U?$pair@$$CBHH@std@@@2@$0A@@std@@@std@@IAEXPAU_Node@?$_Tree_nod@V?$_Tmap_traits@HHU?$less@H@std@@V?$allocator@U?$pair@$$CBHH@std@@@2@$0A@@std@@@2@@Z ; std::_Tree<std::_Tmap_traits<int,int,std::less<int>,std::allocator<std::pair<int const ,int> >,0> >::_Lrotate
; Function compile flags: /Ogtp
;	COMDAT ?_Lrotate@?$_Tree@V?$_Tmap_traits@HHU?$less@H@std@@V?$allocator@U?$pair@$$CBHH@std@@@2@$0A@@std@@@std@@IAEXPAU_Node@?$_Tree_nod@V?$_Tmap_traits@HHU?$less@H@std@@V?$allocator@U?$pair@$$CBHH@std@@@2@$0A@@std@@@2@@Z
_TEXT	SEGMENT
__Wherenode$ = 8					; size = 4
?_Lrotate@?$_Tree@V?$_Tmap_traits@HHU?$less@H@std@@V?$allocator@U?$pair@$$CBHH@std@@@2@$0A@@std@@@std@@IAEXPAU_Node@?$_Tree_nod@V?$_Tmap_traits@HHU?$less@H@std@@V?$allocator@U?$pair@$$CBHH@std@@@2@$0A@@std@@@2@@Z PROC ; std::_Tree<std::_Tmap_traits<int,int,std::less<int>,std::allocator<std::pair<int const ,int> >,0> >::_Lrotate, COMDAT
; _this$ = ecx

; 1763 : 		{	// promote right node to root of subtree

  00000	55		 push	 ebp
  00001	8b ec		 mov	 ebp, esp

; 1764 : 		_Nodeptr _Pnode = this->_Right(_Wherenode);

  00003	8b 55 08	 mov	 edx, DWORD PTR __Wherenode$[ebp]
  00006	8b 42 08	 mov	 eax, DWORD PTR [edx+8]
  00009	56		 push	 esi

; 1765 : 		this->_Right(_Wherenode) = this->_Left(_Pnode);

  0000a	8b 30		 mov	 esi, DWORD PTR [eax]
  0000c	89 72 08	 mov	 DWORD PTR [edx+8], esi

; 1766 : 
; 1767 : 		if (!this->_Isnil(this->_Left(_Pnode)))

  0000f	8b 30		 mov	 esi, DWORD PTR [eax]
  00011	80 7e 15 00	 cmp	 BYTE PTR [esi+21], 0
  00015	75 03		 jne	 SHORT $LN5@Lrotate

; 1768 : 			this->_Parent(this->_Left(_Pnode)) = _Wherenode;

  00017	89 56 04	 mov	 DWORD PTR [esi+4], edx
$LN5@Lrotate:

; 1769 : 		this->_Parent(_Pnode) = this->_Parent(_Wherenode);

  0001a	8b 72 04	 mov	 esi, DWORD PTR [edx+4]
  0001d	89 70 04	 mov	 DWORD PTR [eax+4], esi

; 1770 : 
; 1771 : 		if (_Wherenode == _Root())

  00020	8b 49 04	 mov	 ecx, DWORD PTR [ecx+4]
  00023	5e		 pop	 esi
  00024	3b 51 04	 cmp	 edx, DWORD PTR [ecx+4]
  00027	75 0c		 jne	 SHORT $LN4@Lrotate

; 1772 : 			_Root() = _Pnode;

  00029	89 41 04	 mov	 DWORD PTR [ecx+4], eax

; 1777 : 
; 1778 : 		this->_Left(_Pnode) = _Wherenode;

  0002c	89 10		 mov	 DWORD PTR [eax], edx

; 1779 : 		this->_Parent(_Wherenode) = _Pnode;

  0002e	89 42 04	 mov	 DWORD PTR [edx+4], eax

; 1780 : 		}

  00031	5d		 pop	 ebp
  00032	c2 04 00	 ret	 4
$LN4@Lrotate:

; 1773 : 		else if (_Wherenode == this->_Left(this->_Parent(_Wherenode)))

  00035	8b 4a 04	 mov	 ecx, DWORD PTR [edx+4]
  00038	3b 11		 cmp	 edx, DWORD PTR [ecx]
  0003a	75 0b		 jne	 SHORT $LN2@Lrotate

; 1774 : 			this->_Left(this->_Parent(_Wherenode)) = _Pnode;

  0003c	89 01		 mov	 DWORD PTR [ecx], eax

; 1777 : 
; 1778 : 		this->_Left(_Pnode) = _Wherenode;

  0003e	89 10		 mov	 DWORD PTR [eax], edx

; 1779 : 		this->_Parent(_Wherenode) = _Pnode;

  00040	89 42 04	 mov	 DWORD PTR [edx+4], eax

; 1780 : 		}

  00043	5d		 pop	 ebp
  00044	c2 04 00	 ret	 4
$LN2@Lrotate:

; 1775 : 		else
; 1776 : 			this->_Right(this->_Parent(_Wherenode)) = _Pnode;

  00047	89 41 08	 mov	 DWORD PTR [ecx+8], eax

; 1777 : 
; 1778 : 		this->_Left(_Pnode) = _Wherenode;

  0004a	89 10		 mov	 DWORD PTR [eax], edx

; 1779 : 		this->_Parent(_Wherenode) = _Pnode;

  0004c	89 42 04	 mov	 DWORD PTR [edx+4], eax

; 1780 : 		}

  0004f	5d		 pop	 ebp
  00050	c2 04 00	 ret	 4
?_Lrotate@?$_Tree@V?$_Tmap_traits@HHU?$less@H@std@@V?$allocator@U?$pair@$$CBHH@std@@@2@$0A@@std@@@std@@IAEXPAU_Node@?$_Tree_nod@V?$_Tmap_traits@HHU?$less@H@std@@V?$allocator@U?$pair@$$CBHH@std@@@2@$0A@@std@@@2@@Z ENDP ; std::_Tree<std::_Tmap_traits<int,int,std::less<int>,std::allocator<std::pair<int const ,int> >,0> >::_Lrotate
_TEXT	ENDS
PUBLIC	?_Rrotate@?$_Tree@V?$_Tmap_traits@HHU?$less@H@std@@V?$allocator@U?$pair@$$CBHH@std@@@2@$0A@@std@@@std@@IAEXPAU_Node@?$_Tree_nod@V?$_Tmap_traits@HHU?$less@H@std@@V?$allocator@U?$pair@$$CBHH@std@@@2@$0A@@std@@@2@@Z ; std::_Tree<std::_Tmap_traits<int,int,std::less<int>,std::allocator<std::pair<int const ,int> >,0> >::_Rrotate
; Function compile flags: /Ogtp
;	COMDAT ?_Rrotate@?$_Tree@V?$_Tmap_traits@HHU?$less@H@std@@V?$allocator@U?$pair@$$CBHH@std@@@2@$0A@@std@@@std@@IAEXPAU_Node@?$_Tree_nod@V?$_Tmap_traits@HHU?$less@H@std@@V?$allocator@U?$pair@$$CBHH@std@@@2@$0A@@std@@@2@@Z
_TEXT	SEGMENT
__Wherenode$ = 8					; size = 4
?_Rrotate@?$_Tree@V?$_Tmap_traits@HHU?$less@H@std@@V?$allocator@U?$pair@$$CBHH@std@@@2@$0A@@std@@@std@@IAEXPAU_Node@?$_Tree_nod@V?$_Tmap_traits@HHU?$less@H@std@@V?$allocator@U?$pair@$$CBHH@std@@@2@$0A@@std@@@2@@Z PROC ; std::_Tree<std::_Tmap_traits<int,int,std::less<int>,std::allocator<std::pair<int const ,int> >,0> >::_Rrotate, COMDAT
; _this$ = ecx

; 1793 : 		{	// promote left node to root of subtree

  00000	55		 push	 ebp
  00001	8b ec		 mov	 ebp, esp

; 1794 : 		_Nodeptr _Pnode = this->_Left(_Wherenode);

  00003	8b 55 08	 mov	 edx, DWORD PTR __Wherenode$[ebp]
  00006	8b 02		 mov	 eax, DWORD PTR [edx]
  00008	56		 push	 esi

; 1795 : 		this->_Left(_Wherenode) = this->_Right(_Pnode);

  00009	8b 70 08	 mov	 esi, DWORD PTR [eax+8]
  0000c	89 32		 mov	 DWORD PTR [edx], esi

; 1796 : 
; 1797 : 		if (!this->_Isnil(this->_Right(_Pnode)))

  0000e	8b 70 08	 mov	 esi, DWORD PTR [eax+8]
  00011	80 7e 15 00	 cmp	 BYTE PTR [esi+21], 0
  00015	75 03		 jne	 SHORT $LN5@Rrotate

; 1798 : 			this->_Parent(this->_Right(_Pnode)) = _Wherenode;

  00017	89 56 04	 mov	 DWORD PTR [esi+4], edx
$LN5@Rrotate:

; 1799 : 		this->_Parent(_Pnode) = this->_Parent(_Wherenode);

  0001a	8b 72 04	 mov	 esi, DWORD PTR [edx+4]
  0001d	89 70 04	 mov	 DWORD PTR [eax+4], esi

; 1800 : 
; 1801 : 		if (_Wherenode == _Root())

  00020	8b 49 04	 mov	 ecx, DWORD PTR [ecx+4]
  00023	5e		 pop	 esi
  00024	3b 51 04	 cmp	 edx, DWORD PTR [ecx+4]
  00027	75 0d		 jne	 SHORT $LN4@Rrotate

; 1802 : 			_Root() = _Pnode;

  00029	89 41 04	 mov	 DWORD PTR [ecx+4], eax

; 1807 : 
; 1808 : 		this->_Right(_Pnode) = _Wherenode;

  0002c	89 50 08	 mov	 DWORD PTR [eax+8], edx

; 1809 : 		this->_Parent(_Wherenode) = _Pnode;

  0002f	89 42 04	 mov	 DWORD PTR [edx+4], eax

; 1810 : 		}

  00032	5d		 pop	 ebp
  00033	c2 04 00	 ret	 4
$LN4@Rrotate:

; 1803 : 		else if (_Wherenode == this->_Right(this->_Parent(_Wherenode)))

  00036	8b 4a 04	 mov	 ecx, DWORD PTR [edx+4]
  00039	3b 51 08	 cmp	 edx, DWORD PTR [ecx+8]
  0003c	75 0d		 jne	 SHORT $LN2@Rrotate

; 1804 : 			this->_Right(this->_Parent(_Wherenode)) = _Pnode;

  0003e	89 41 08	 mov	 DWORD PTR [ecx+8], eax

; 1807 : 
; 1808 : 		this->_Right(_Pnode) = _Wherenode;

  00041	89 50 08	 mov	 DWORD PTR [eax+8], edx

; 1809 : 		this->_Parent(_Wherenode) = _Pnode;

  00044	89 42 04	 mov	 DWORD PTR [edx+4], eax

; 1810 : 		}

  00047	5d		 pop	 ebp
  00048	c2 04 00	 ret	 4
$LN2@Rrotate:

; 1805 : 		else
; 1806 : 			this->_Left(this->_Parent(_Wherenode)) = _Pnode;

  0004b	89 01		 mov	 DWORD PTR [ecx], eax

; 1807 : 
; 1808 : 		this->_Right(_Pnode) = _Wherenode;

  0004d	89 50 08	 mov	 DWORD PTR [eax+8], edx

; 1809 : 		this->_Parent(_Wherenode) = _Pnode;

  00050	89 42 04	 mov	 DWORD PTR [edx+4], eax

; 1810 : 		}

  00053	5d		 pop	 ebp
  00054	c2 04 00	 ret	 4
?_Rrotate@?$_Tree@V?$_Tmap_traits@HHU?$less@H@std@@V?$allocator@U?$pair@$$CBHH@std@@@2@$0A@@std@@@std@@IAEXPAU_Node@?$_Tree_nod@V?$_Tmap_traits@HHU?$less@H@std@@V?$allocator@U?$pair@$$CBHH@std@@@2@$0A@@std@@@2@@Z ENDP ; std::_Tree<std::_Tmap_traits<int,int,std::less<int>,std::allocator<std::pair<int const ,int> >,0> >::_Rrotate
_TEXT	ENDS
PUBLIC	??E?$_Tree_const_iterator@V?$_Tree_val@V?$_Tmap_traits@HHU?$less@H@std@@V?$allocator@U?$pair@$$CBHH@std@@@2@$0A@@std@@@std@@@std@@QAEAAV01@XZ ; std::_Tree_const_iterator<std::_Tree_val<std::_Tmap_traits<int,int,std::less<int>,std::allocator<std::pair<int const ,int> >,0> > >::operator++
; Function compile flags: /Ogtp
;	COMDAT ??E?$_Tree_const_iterator@V?$_Tree_val@V?$_Tmap_traits@HHU?$less@H@std@@V?$allocator@U?$pair@$$CBHH@std@@@2@$0A@@std@@@std@@@std@@QAEAAV01@XZ
_TEXT	SEGMENT
??E?$_Tree_const_iterator@V?$_Tree_val@V?$_Tmap_traits@HHU?$less@H@std@@V?$allocator@U?$pair@$$CBHH@std@@@2@$0A@@std@@@std@@@std@@QAEAAV01@XZ PROC ; std::_Tree_const_iterator<std::_Tree_val<std::_Tmap_traits<int,int,std::less<int>,std::allocator<std::pair<int const ,int> >,0> > >::operator++, COMDAT
; _this$ = ecx

; 250  : 		{	// preincrement

  00000	56		 push	 esi
  00001	8b f1		 mov	 esi, ecx

; 251  :  #if _ITERATOR_DEBUG_LEVEL == 2
; 252  : 		if (this->_Getcont() == 0
; 253  : 			|| this->_Ptr == 0
; 254  : 			|| _Mytree::_Isnil(this->_Ptr))
; 255  : 			{	// report error
; 256  : 			_DEBUG_ERROR("map/set iterator not incrementable");
; 257  : 			_SCL_SECURE_OUT_OF_RANGE;
; 258  : 			}
; 259  : 
; 260  :  #elif _ITERATOR_DEBUG_LEVEL == 1
; 261  : 		_SCL_SECURE_VALIDATE(this->_Getcont() != 0 && this->_Ptr != 0);
; 262  : 		_SCL_SECURE_VALIDATE_RANGE(!_Mytree::_Isnil(this->_Ptr));
; 263  :  #endif /* _ITERATOR_DEBUG_LEVEL */
; 264  : 
; 265  : 		++(*(_Mybase *)this);

  00003	e8 00 00 00 00	 call	 ??E?$_Tree_unchecked_const_iterator@V?$_Tree_val@V?$_Tmap_traits@HHU?$less@H@std@@V?$allocator@U?$pair@$$CBHH@std@@@2@$0A@@std@@@std@@U_Iterator_base0@2@@std@@QAEAAV01@XZ ; std::_Tree_unchecked_const_iterator<std::_Tree_val<std::_Tmap_traits<int,int,std::less<int>,std::allocator<std::pair<int const ,int> >,0> >,std::_Iterator_base0>::operator++

; 266  : 		return (*this);

  00008	8b c6		 mov	 eax, esi
  0000a	5e		 pop	 esi

; 267  : 		}

  0000b	c3		 ret	 0
??E?$_Tree_const_iterator@V?$_Tree_val@V?$_Tmap_traits@HHU?$less@H@std@@V?$allocator@U?$pair@$$CBHH@std@@@2@$0A@@std@@@std@@@std@@QAEAAV01@XZ ENDP ; std::_Tree_const_iterator<std::_Tree_val<std::_Tmap_traits<int,int,std::less<int>,std::allocator<std::pair<int const ,int> >,0> > >::operator++
_TEXT	ENDS
PUBLIC	??$swap@D@std@@YAXAAD0@Z			; std::swap<char>
; Function compile flags: /Ogtp
; File d:\program files (x86)\microsoft visual studio 10.0\vc\include\utility
;	COMDAT ??$swap@D@std@@YAXAAD0@Z
_TEXT	SEGMENT
__Left$ = 8						; size = 4
__Right$ = 12						; size = 4
??$swap@D@std@@YAXAAD0@Z PROC				; std::swap<char>, COMDAT

; 101  : 	{	// exchange values stored at _Left and _Right

  00000	55		 push	 ebp
  00001	8b ec		 mov	 ebp, esp

; 102  : 	_Ty _Tmp = _Move(_Left);

  00003	8b 45 08	 mov	 eax, DWORD PTR __Left$[ebp]
  00006	8a 08		 mov	 cl, BYTE PTR [eax]
  00008	56		 push	 esi

; 103  : 	_Left = _Move(_Right);

  00009	8b 75 0c	 mov	 esi, DWORD PTR __Right$[ebp]
  0000c	8a 16		 mov	 dl, BYTE PTR [esi]
  0000e	88 10		 mov	 BYTE PTR [eax], dl

; 104  : 	_Right = _Move(_Tmp);

  00010	88 0e		 mov	 BYTE PTR [esi], cl
  00012	5e		 pop	 esi

; 105  : 	}

  00013	5d		 pop	 ebp
  00014	c3		 ret	 0
??$swap@D@std@@YAXAAD0@Z ENDP				; std::swap<char>
_TEXT	ENDS
PUBLIC	__TI2?AVbad_alloc@std@@
PUBLIC	??$_Allocate@U_Node@?$_Tree_nod@V?$_Tmap_traits@HHU?$less@H@std@@V?$allocator@U?$pair@$$CBHH@std@@@2@$0A@@std@@@std@@@std@@YAPAU_Node@?$_Tree_nod@V?$_Tmap_traits@HHU?$less@H@std@@V?$allocator@U?$pair@$$CBHH@std@@@2@$0A@@std@@@0@IPAU120@@Z ; std::_Allocate<std::_Tree_nod<std::_Tmap_traits<int,int,std::less<int>,std::allocator<std::pair<int const ,int> >,0> >::_Node>
PUBLIC	__CTA2?AVbad_alloc@std@@
PUBLIC	__CT??_R0?AVbad_alloc@std@@@8??0bad_alloc@std@@QAE@ABV01@@Z12
PUBLIC	??0bad_alloc@std@@QAE@ABV01@@Z			; std::bad_alloc::bad_alloc
PUBLIC	__CT??_R0?AVexception@std@@@8??0exception@std@@QAE@ABV01@@Z12
EXTRN	??2@YAPAXI@Z:PROC				; operator new
EXTRN	__CxxThrowException@8:PROC
EXTRN	??0exception@std@@QAE@ABV01@@Z:PROC		; std::exception::exception
;	COMDAT __CT??_R0?AVexception@std@@@8??0exception@std@@QAE@ABV01@@Z12
; File d:\program files (x86)\microsoft visual studio 10.0\vc\include\exception
xdata$x	SEGMENT
__CT??_R0?AVexception@std@@@8??0exception@std@@QAE@ABV01@@Z12 DD 00H
	DD	FLAT:??_R0?AVexception@std@@@8
	DD	00H
	DD	0ffffffffH
	ORG $+4
	DD	0cH
	DD	FLAT:??0exception@std@@QAE@ABV01@@Z
xdata$x	ENDS
;	COMDAT __CT??_R0?AVbad_alloc@std@@@8??0bad_alloc@std@@QAE@ABV01@@Z12
xdata$x	SEGMENT
__CT??_R0?AVbad_alloc@std@@@8??0bad_alloc@std@@QAE@ABV01@@Z12 DD 00H
	DD	FLAT:??_R0?AVbad_alloc@std@@@8
	DD	00H
	DD	0ffffffffH
	ORG $+4
	DD	0cH
	DD	FLAT:??0bad_alloc@std@@QAE@ABV01@@Z
xdata$x	ENDS
;	COMDAT __CTA2?AVbad_alloc@std@@
xdata$x	SEGMENT
__CTA2?AVbad_alloc@std@@ DD 02H
	DD	FLAT:__CT??_R0?AVbad_alloc@std@@@8??0bad_alloc@std@@QAE@ABV01@@Z12
	DD	FLAT:__CT??_R0?AVexception@std@@@8??0exception@std@@QAE@ABV01@@Z12
xdata$x	ENDS
;	COMDAT __TI2?AVbad_alloc@std@@
xdata$x	SEGMENT
__TI2?AVbad_alloc@std@@ DD 00H
	DD	FLAT:??1bad_alloc@std@@UAE@XZ
	DD	00H
	DD	FLAT:__CTA2?AVbad_alloc@std@@
; Function compile flags: /Ogtp
; File d:\program files (x86)\microsoft visual studio 10.0\vc\include\xmemory
xdata$x	ENDS
;	COMDAT ??$_Allocate@U_Node@?$_Tree_nod@V?$_Tmap_traits@HHU?$less@H@std@@V?$allocator@U?$pair@$$CBHH@std@@@2@$0A@@std@@@std@@@std@@YAPAU_Node@?$_Tree_nod@V?$_Tmap_traits@HHU?$less@H@std@@V?$allocator@U?$pair@$$CBHH@std@@@2@$0A@@std@@@0@IPAU120@@Z
_TEXT	SEGMENT
$T214526 = -12						; size = 12
$T214531 = 8						; size = 4
__Count$ = 8						; size = 4
___formal$ = 12						; size = 4
??$_Allocate@U_Node@?$_Tree_nod@V?$_Tmap_traits@HHU?$less@H@std@@V?$allocator@U?$pair@$$CBHH@std@@@2@$0A@@std@@@std@@@std@@YAPAU_Node@?$_Tree_nod@V?$_Tmap_traits@HHU?$less@H@std@@V?$allocator@U?$pair@$$CBHH@std@@@2@$0A@@std@@@0@IPAU120@@Z PROC ; std::_Allocate<std::_Tree_nod<std::_Tmap_traits<int,int,std::less<int>,std::allocator<std::pair<int const ,int> >,0> >::_Node>, COMDAT

; 30   : 	{	// allocate storage for _Count elements of type _Ty

  00000	55		 push	 ebp
  00001	8b ec		 mov	 ebp, esp

; 31   : 	void *_Ptr = 0;
; 32   : 
; 33   : 	if (_Count <= 0)

  00003	8b 4d 08	 mov	 ecx, DWORD PTR __Count$[ebp]
  00006	83 ec 0c	 sub	 esp, 12			; 0000000cH
  00009	33 c0		 xor	 eax, eax
  0000b	85 c9		 test	 ecx, ecx

; 34   : 		_Count = 0;
; 35   : 	else if (((_SIZT)(-1) / sizeof (_Ty) < _Count)

  0000d	74 46		 je	 SHORT $LN5@Allocate

; 36   : 		|| (_Ptr = ::operator new(_Count * sizeof (_Ty))) == 0)

  0000f	81 f9 aa aa aa
	0a		 cmp	 ecx, 178956970		; 0aaaaaaaH
  00015	77 16		 ja	 SHORT $LN1@Allocate
  00017	8d 04 49	 lea	 eax, DWORD PTR [ecx+ecx*2]
  0001a	03 c0		 add	 eax, eax
  0001c	03 c0		 add	 eax, eax
  0001e	03 c0		 add	 eax, eax
  00020	50		 push	 eax
  00021	e8 00 00 00 00	 call	 ??2@YAPAXI@Z		; operator new
  00026	83 c4 04	 add	 esp, 4
  00029	85 c0		 test	 eax, eax

; 38   : 
; 39   : 	return ((_Ty _FARQ *)_Ptr);

  0002b	75 28		 jne	 SHORT $LN5@Allocate
$LN1@Allocate:

; 37   : 		_THROW_NCEE(bad_alloc, 0);

  0002d	8d 4d 08	 lea	 ecx, DWORD PTR $T214531[ebp]
  00030	51		 push	 ecx
  00031	8d 4d f4	 lea	 ecx, DWORD PTR $T214526[ebp]
  00034	c7 45 08 00 00
	00 00		 mov	 DWORD PTR $T214531[ebp], 0
  0003b	e8 00 00 00 00	 call	 ??0exception@std@@QAE@ABQBD@Z ; std::exception::exception
  00040	68 00 00 00 00	 push	 OFFSET __TI2?AVbad_alloc@std@@
  00045	8d 55 f4	 lea	 edx, DWORD PTR $T214526[ebp]
  00048	52		 push	 edx
  00049	c7 45 f4 00 00
	00 00		 mov	 DWORD PTR $T214526[ebp], OFFSET ??_7bad_alloc@std@@6B@
  00050	e8 00 00 00 00	 call	 __CxxThrowException@8
$LN10@Allocate:
$LN5@Allocate:

; 40   : 	}

  00055	8b e5		 mov	 esp, ebp
  00057	5d		 pop	 ebp
  00058	c3		 ret	 0
$LN9@Allocate:
??$_Allocate@U_Node@?$_Tree_nod@V?$_Tmap_traits@HHU?$less@H@std@@V?$allocator@U?$pair@$$CBHH@std@@@2@$0A@@std@@@std@@@std@@YAPAU_Node@?$_Tree_nod@V?$_Tmap_traits@HHU?$less@H@std@@V?$allocator@U?$pair@$$CBHH@std@@@2@$0A@@std@@@0@IPAU120@@Z ENDP ; std::_Allocate<std::_Tree_nod<std::_Tmap_traits<int,int,std::less<int>,std::allocator<std::pair<int const ,int> >,0> >::_Node>
; Function compile flags: /Ogtp
_TEXT	ENDS
;	COMDAT ??0bad_alloc@std@@QAE@ABV01@@Z
_TEXT	SEGMENT
___that$ = 8						; size = 4
??0bad_alloc@std@@QAE@ABV01@@Z PROC			; std::bad_alloc::bad_alloc, COMDAT
; _this$ = ecx
  00000	55		 push	 ebp
  00001	8b ec		 mov	 ebp, esp
  00003	8b 45 08	 mov	 eax, DWORD PTR ___that$[ebp]
  00006	56		 push	 esi
  00007	50		 push	 eax
  00008	8b f1		 mov	 esi, ecx
  0000a	e8 00 00 00 00	 call	 ??0exception@std@@QAE@ABV01@@Z ; std::exception::exception
  0000f	c7 06 00 00 00
	00		 mov	 DWORD PTR [esi], OFFSET ??_7bad_alloc@std@@6B@
  00015	8b c6		 mov	 eax, esi
  00017	5e		 pop	 esi
  00018	5d		 pop	 ebp
  00019	c2 04 00	 ret	 4
??0bad_alloc@std@@QAE@ABV01@@Z ENDP			; std::bad_alloc::bad_alloc
_TEXT	ENDS
PUBLIC	?destroy@?$allocator@U?$pair@$$CBHH@std@@@std@@QAEXPAU?$pair@$$CBHH@2@@Z ; std::allocator<std::pair<int const ,int> >::destroy
; Function compile flags: /Ogtp
;	COMDAT ?destroy@?$allocator@U?$pair@$$CBHH@std@@@std@@QAEXPAU?$pair@$$CBHH@2@@Z
_TEXT	SEGMENT
__Ptr$ = 8						; size = 4
?destroy@?$allocator@U?$pair@$$CBHH@std@@@std@@QAEXPAU?$pair@$$CBHH@2@@Z PROC ; std::allocator<std::pair<int const ,int> >::destroy, COMDAT
; _this$ = ecx

; 213  : 		_Destroy(_Ptr);
; 214  : 		}

  00000	c2 04 00	 ret	 4
?destroy@?$allocator@U?$pair@$$CBHH@std@@@std@@QAEXPAU?$pair@$$CBHH@2@@Z ENDP ; std::allocator<std::pair<int const ,int> >::destroy
_TEXT	ENDS
PUBLIC	??0?$_Tree_const_iterator@V?$_Tree_val@V?$_Tmap_traits@HHU?$less@H@std@@V?$allocator@U?$pair@$$CBHH@std@@@2@$0A@@std@@@std@@@std@@QAE@XZ ; std::_Tree_const_iterator<std::_Tree_val<std::_Tmap_traits<int,int,std::less<int>,std::allocator<std::pair<int const ,int> >,0> > >::_Tree_const_iterator<std::_Tree_val<std::_Tmap_traits<int,int,std::less<int>,std::allocator<std::pair<int const ,int> >,0> > >
; Function compile flags: /Ogtp
; File d:\program files (x86)\microsoft visual studio 10.0\vc\include\xtree
;	COMDAT ??0?$_Tree_const_iterator@V?$_Tree_val@V?$_Tmap_traits@HHU?$less@H@std@@V?$allocator@U?$pair@$$CBHH@std@@@2@$0A@@std@@@std@@@std@@QAE@XZ
_TEXT	SEGMENT
??0?$_Tree_const_iterator@V?$_Tree_val@V?$_Tmap_traits@HHU?$less@H@std@@V?$allocator@U?$pair@$$CBHH@std@@@2@$0A@@std@@@std@@@std@@QAE@XZ PROC ; std::_Tree_const_iterator<std::_Tree_val<std::_Tmap_traits<int,int,std::less<int>,std::allocator<std::pair<int const ,int> >,0> > >::_Tree_const_iterator<std::_Tree_val<std::_Tmap_traits<int,int,std::less<int>,std::allocator<std::pair<int const ,int> >,0> > >, COMDAT
; _this$ = ecx

; 208  : 		{	// construct with null node pointer

  00000	8b c1		 mov	 eax, ecx
  00002	c7 00 00 00 00
	00		 mov	 DWORD PTR [eax], 0

; 209  : 		}

  00008	c3		 ret	 0
??0?$_Tree_const_iterator@V?$_Tree_val@V?$_Tmap_traits@HHU?$less@H@std@@V?$allocator@U?$pair@$$CBHH@std@@@2@$0A@@std@@@std@@@std@@QAE@XZ ENDP ; std::_Tree_const_iterator<std::_Tree_val<std::_Tmap_traits<int,int,std::less<int>,std::allocator<std::pair<int const ,int> >,0> > >::_Tree_const_iterator<std::_Tree_val<std::_Tmap_traits<int,int,std::less<int>,std::allocator<std::pair<int const ,int> >,0> > >
_TEXT	ENDS
PUBLIC	??F?$_Tree_const_iterator@V?$_Tree_val@V?$_Tmap_traits@HHU?$less@H@std@@V?$allocator@U?$pair@$$CBHH@std@@@2@$0A@@std@@@std@@@std@@QAEAAV01@XZ ; std::_Tree_const_iterator<std::_Tree_val<std::_Tmap_traits<int,int,std::less<int>,std::allocator<std::pair<int const ,int> >,0> > >::operator--
; Function compile flags: /Ogtp
;	COMDAT ??F?$_Tree_const_iterator@V?$_Tree_val@V?$_Tmap_traits@HHU?$less@H@std@@V?$allocator@U?$pair@$$CBHH@std@@@2@$0A@@std@@@std@@@std@@QAEAAV01@XZ
_TEXT	SEGMENT
??F?$_Tree_const_iterator@V?$_Tree_val@V?$_Tmap_traits@HHU?$less@H@std@@V?$allocator@U?$pair@$$CBHH@std@@@2@$0A@@std@@@std@@@std@@QAEAAV01@XZ PROC ; std::_Tree_const_iterator<std::_Tree_val<std::_Tmap_traits<int,int,std::less<int>,std::allocator<std::pair<int const ,int> >,0> > >::operator--, COMDAT
; _this$ = ecx

; 277  : 		{	// predecrement

  00000	56		 push	 esi
  00001	8b f1		 mov	 esi, ecx

; 278  :  #if _ITERATOR_DEBUG_LEVEL == 2
; 279  : 		if (this->_Getcont() == 0
; 280  : 			|| this->_Ptr == 0)
; 281  : 			{	// report error
; 282  : 			_DEBUG_ERROR("map/set iterator not decrementable");
; 283  : 			_SCL_SECURE_OUT_OF_RANGE;
; 284  : 			}
; 285  : 
; 286  : 		_Nodeptr _Ptrsav = this->_Ptr;
; 287  : 		--(*(_Mybase *)this);
; 288  : 		if (_Ptrsav == this->_Ptr)
; 289  : 			{	// report error
; 290  : 			_DEBUG_ERROR("map/set iterator not decrementable");
; 291  : 			_SCL_SECURE_OUT_OF_RANGE;
; 292  : 			}
; 293  : 
; 294  :  #elif _ITERATOR_DEBUG_LEVEL == 1
; 295  : 		_SCL_SECURE_VALIDATE(this->_Getcont() != 0 && this->_Ptr != 0);
; 296  : 
; 297  : 		_Nodeptr _Ptrsav = this->_Ptr;
; 298  : 		--(*(_Mybase *)this);
; 299  : 		_SCL_SECURE_VALIDATE(_Ptrsav != this->_Ptr);
; 300  : 
; 301  :  #else /* _ITERATOR_DEBUG_LEVEL == 0 */
; 302  : 		--(*(_Mybase *)this);

  00003	e8 00 00 00 00	 call	 ??F?$_Tree_unchecked_const_iterator@V?$_Tree_val@V?$_Tmap_traits@HHU?$less@H@std@@V?$allocator@U?$pair@$$CBHH@std@@@2@$0A@@std@@@std@@U_Iterator_base0@2@@std@@QAEAAV01@XZ ; std::_Tree_unchecked_const_iterator<std::_Tree_val<std::_Tmap_traits<int,int,std::less<int>,std::allocator<std::pair<int const ,int> >,0> >,std::_Iterator_base0>::operator--

; 303  :  #endif /* _ITERATOR_DEBUG_LEVEL */
; 304  : 
; 305  : 		return (*this);

  00008	8b c6		 mov	 eax, esi
  0000a	5e		 pop	 esi

; 306  : 		}

  0000b	c3		 ret	 0
??F?$_Tree_const_iterator@V?$_Tree_val@V?$_Tmap_traits@HHU?$less@H@std@@V?$allocator@U?$pair@$$CBHH@std@@@2@$0A@@std@@@std@@@std@@QAEAAV01@XZ ENDP ; std::_Tree_const_iterator<std::_Tree_val<std::_Tmap_traits<int,int,std::less<int>,std::allocator<std::pair<int const ,int> >,0> > >::operator--
_TEXT	ENDS
PUBLIC	?max_size@?$_Tree@V?$_Tmap_traits@HHU?$less@H@std@@V?$allocator@U?$pair@$$CBHH@std@@@2@$0A@@std@@@std@@QBEIXZ ; std::_Tree<std::_Tmap_traits<int,int,std::less<int>,std::allocator<std::pair<int const ,int> >,0> >::max_size
; Function compile flags: /Ogtp
;	COMDAT ?max_size@?$_Tree@V?$_Tmap_traits@HHU?$less@H@std@@V?$allocator@U?$pair@$$CBHH@std@@@2@$0A@@std@@@std@@QBEIXZ
_TEXT	SEGMENT
?max_size@?$_Tree@V?$_Tmap_traits@HHU?$less@H@std@@V?$allocator@U?$pair@$$CBHH@std@@@2@$0A@@std@@@std@@QBEIXZ PROC ; std::_Tree<std::_Tmap_traits<int,int,std::less<int>,std::allocator<std::pair<int const ,int> >,0> >::max_size, COMDAT
; _this$ = ecx

; 874  : 		return (this->_Alval.max_size());

  00000	b8 ff ff ff 1f	 mov	 eax, 536870911		; 1fffffffH

; 875  : 		}

  00005	c3		 ret	 0
?max_size@?$_Tree@V?$_Tmap_traits@HHU?$less@H@std@@V?$allocator@U?$pair@$$CBHH@std@@@2@$0A@@std@@@std@@QBEIXZ ENDP ; std::_Tree<std::_Tmap_traits<int,int,std::less<int>,std::allocator<std::pair<int const ,int> >,0> >::max_size
_TEXT	ENDS
PUBLIC	??F?$_Tree_iterator@V?$_Tree_val@V?$_Tmap_traits@HHU?$less@H@std@@V?$allocator@U?$pair@$$CBHH@std@@@2@$0A@@std@@@std@@@std@@QAEAAV01@XZ ; std::_Tree_iterator<std::_Tree_val<std::_Tmap_traits<int,int,std::less<int>,std::allocator<std::pair<int const ,int> >,0> > >::operator--
; Function compile flags: /Ogtp
;	COMDAT ??F?$_Tree_iterator@V?$_Tree_val@V?$_Tmap_traits@HHU?$less@H@std@@V?$allocator@U?$pair@$$CBHH@std@@@2@$0A@@std@@@std@@@std@@QAEAAV01@XZ
_TEXT	SEGMENT
??F?$_Tree_iterator@V?$_Tree_val@V?$_Tmap_traits@HHU?$less@H@std@@V?$allocator@U?$pair@$$CBHH@std@@@2@$0A@@std@@@std@@@std@@QAEAAV01@XZ PROC ; std::_Tree_iterator<std::_Tree_val<std::_Tmap_traits<int,int,std::less<int>,std::allocator<std::pair<int const ,int> >,0> > >::operator--, COMDAT
; _this$ = ecx

; 418  : 		{	// predecrement

  00000	56		 push	 esi
  00001	8b f1		 mov	 esi, ecx

; 419  : 		--(*(_Mybase *)this);

  00003	e8 00 00 00 00	 call	 ??F?$_Tree_unchecked_const_iterator@V?$_Tree_val@V?$_Tmap_traits@HHU?$less@H@std@@V?$allocator@U?$pair@$$CBHH@std@@@2@$0A@@std@@@std@@U_Iterator_base0@2@@std@@QAEAAV01@XZ ; std::_Tree_unchecked_const_iterator<std::_Tree_val<std::_Tmap_traits<int,int,std::less<int>,std::allocator<std::pair<int const ,int> >,0> >,std::_Iterator_base0>::operator--

; 420  : 		return (*this);

  00008	8b c6		 mov	 eax, esi
  0000a	5e		 pop	 esi

; 421  : 		}

  0000b	c3		 ret	 0
??F?$_Tree_iterator@V?$_Tree_val@V?$_Tmap_traits@HHU?$less@H@std@@V?$allocator@U?$pair@$$CBHH@std@@@2@$0A@@std@@@std@@@std@@QAEAAV01@XZ ENDP ; std::_Tree_iterator<std::_Tree_val<std::_Tmap_traits<int,int,std::less<int>,std::allocator<std::pair<int const ,int> >,0> > >::operator--
_TEXT	ENDS
PUBLIC	??0?$_Pair_base@V?$_Tree_iterator@V?$_Tree_val@V?$_Tmap_traits@HHU?$less@H@std@@V?$allocator@U?$pair@$$CBHH@std@@@2@$0A@@std@@@std@@@std@@_N@std@@QAE@$$QAV?$_Tree_iterator@V?$_Tree_val@V?$_Tmap_traits@HHU?$less@H@std@@V?$allocator@U?$pair@$$CBHH@std@@@2@$0A@@std@@@std@@@1@$$QA_N@Z ; std::_Pair_base<std::_Tree_iterator<std::_Tree_val<std::_Tmap_traits<int,int,std::less<int>,std::allocator<std::pair<int const ,int> >,0> > >,bool>::_Pair_base<std::_Tree_iterator<std::_Tree_val<std::_Tmap_traits<int,int,std::less<int>,std::allocator<std::pair<int const ,int> >,0> > >,bool>
; Function compile flags: /Ogtp
; File d:\program files (x86)\microsoft visual studio 10.0\vc\include\utility
;	COMDAT ??0?$_Pair_base@V?$_Tree_iterator@V?$_Tree_val@V?$_Tmap_traits@HHU?$less@H@std@@V?$allocator@U?$pair@$$CBHH@std@@@2@$0A@@std@@@std@@@std@@_N@std@@QAE@$$QAV?$_Tree_iterator@V?$_Tree_val@V?$_Tmap_traits@HHU?$less@H@std@@V?$allocator@U?$pair@$$CBHH@std@@@2@$0A@@std@@@std@@@1@$$QA_N@Z
_TEXT	SEGMENT
__Val1$ = 8						; size = 4
__Val2$ = 12						; size = 4
??0?$_Pair_base@V?$_Tree_iterator@V?$_Tree_val@V?$_Tmap_traits@HHU?$less@H@std@@V?$allocator@U?$pair@$$CBHH@std@@@2@$0A@@std@@@std@@@std@@_N@std@@QAE@$$QAV?$_Tree_iterator@V?$_Tree_val@V?$_Tmap_traits@HHU?$less@H@std@@V?$allocator@U?$pair@$$CBHH@std@@@2@$0A@@std@@@std@@@1@$$QA_N@Z PROC ; std::_Pair_base<std::_Tree_iterator<std::_Tree_val<std::_Tmap_traits<int,int,std::less<int>,std::allocator<std::pair<int const ,int> >,0> > >,bool>::_Pair_base<std::_Tree_iterator<std::_Tree_val<std::_Tmap_traits<int,int,std::less<int>,std::allocator<std::pair<int const ,int> >,0> > >,bool>, COMDAT
; _this$ = ecx

; 145  : 		{	// construct from specified values

  00000	55		 push	 ebp
  00001	8b ec		 mov	 ebp, esp
  00003	8b c1		 mov	 eax, ecx
  00005	8b 4d 08	 mov	 ecx, DWORD PTR __Val1$[ebp]
  00008	8b 11		 mov	 edx, DWORD PTR [ecx]
  0000a	8b 4d 0c	 mov	 ecx, DWORD PTR __Val2$[ebp]
  0000d	89 10		 mov	 DWORD PTR [eax], edx
  0000f	8a 11		 mov	 dl, BYTE PTR [ecx]
  00011	88 50 04	 mov	 BYTE PTR [eax+4], dl

; 146  : 		}

  00014	5d		 pop	 ebp
  00015	c2 08 00	 ret	 8
??0?$_Pair_base@V?$_Tree_iterator@V?$_Tree_val@V?$_Tmap_traits@HHU?$less@H@std@@V?$allocator@U?$pair@$$CBHH@std@@@2@$0A@@std@@@std@@@std@@_N@std@@QAE@$$QAV?$_Tree_iterator@V?$_Tree_val@V?$_Tmap_traits@HHU?$less@H@std@@V?$allocator@U?$pair@$$CBHH@std@@@2@$0A@@std@@@std@@@1@$$QA_N@Z ENDP ; std::_Pair_base<std::_Tree_iterator<std::_Tree_val<std::_Tmap_traits<int,int,std::less<int>,std::allocator<std::pair<int const ,int> >,0> > >,bool>::_Pair_base<std::_Tree_iterator<std::_Tree_val<std::_Tmap_traits<int,int,std::less<int>,std::allocator<std::pair<int const ,int> >,0> > >,bool>
_TEXT	ENDS
PUBLIC	??$?0AAV?$_Tree_iterator@V?$_Tree_val@V?$_Tmap_traits@HHU?$less@H@std@@V?$allocator@U?$pair@$$CBHH@std@@@2@$0A@@std@@@std@@@std@@_N@?$pair@V?$_Tree_iterator@V?$_Tree_val@V?$_Tmap_traits@HHU?$less@H@std@@V?$allocator@U?$pair@$$CBHH@std@@@2@$0A@@std@@@std@@@std@@_N@std@@QAE@AAV?$_Tree_iterator@V?$_Tree_val@V?$_Tmap_traits@HHU?$less@H@std@@V?$allocator@U?$pair@$$CBHH@std@@@2@$0A@@std@@@std@@@1@$$QA_N@Z ; std::pair<std::_Tree_iterator<std::_Tree_val<std::_Tmap_traits<int,int,std::less<int>,std::allocator<std::pair<int const ,int> >,0> > >,bool>::pair<std::_Tree_iterator<std::_Tree_val<std::_Tmap_traits<int,int,std::less<int>,std::allocator<std::pair<int const ,int> >,0> > >,bool><std::_Tree_iterator<std::_Tree_val<std::_Tmap_traits<int,int,std::less<int>,std::allocator<std::pair<int const ,int> >,0> > > &,bool>
; Function compile flags: /Ogtp
;	COMDAT ??$?0AAV?$_Tree_iterator@V?$_Tree_val@V?$_Tmap_traits@HHU?$less@H@std@@V?$allocator@U?$pair@$$CBHH@std@@@2@$0A@@std@@@std@@@std@@_N@?$pair@V?$_Tree_iterator@V?$_Tree_val@V?$_Tmap_traits@HHU?$less@H@std@@V?$allocator@U?$pair@$$CBHH@std@@@2@$0A@@std@@@std@@@std@@_N@std@@QAE@AAV?$_Tree_iterator@V?$_Tree_val@V?$_Tmap_traits@HHU?$less@H@std@@V?$allocator@U?$pair@$$CBHH@std@@@2@$0A@@std@@@std@@@1@$$QA_N@Z
_TEXT	SEGMENT
__Val1$ = 8						; size = 4
__Val2$ = 12						; size = 4
??$?0AAV?$_Tree_iterator@V?$_Tree_val@V?$_Tmap_traits@HHU?$less@H@std@@V?$allocator@U?$pair@$$CBHH@std@@@2@$0A@@std@@@std@@@std@@_N@?$pair@V?$_Tree_iterator@V?$_Tree_val@V?$_Tmap_traits@HHU?$less@H@std@@V?$allocator@U?$pair@$$CBHH@std@@@2@$0A@@std@@@std@@@std@@_N@std@@QAE@AAV?$_Tree_iterator@V?$_Tree_val@V?$_Tmap_traits@HHU?$less@H@std@@V?$allocator@U?$pair@$$CBHH@std@@@2@$0A@@std@@@std@@@1@$$QA_N@Z PROC ; std::pair<std::_Tree_iterator<std::_Tree_val<std::_Tmap_traits<int,int,std::less<int>,std::allocator<std::pair<int const ,int> >,0> > >,bool>::pair<std::_Tree_iterator<std::_Tree_val<std::_Tmap_traits<int,int,std::less<int>,std::allocator<std::pair<int const ,int> >,0> > >,bool><std::_Tree_iterator<std::_Tree_val<std::_Tmap_traits<int,int,std::less<int>,std::allocator<std::pair<int const ,int> >,0> > > &,bool>, COMDAT
; _this$ = ecx

; 247  : 		{	// construct from moved values

  00000	55		 push	 ebp
  00001	8b ec		 mov	 ebp, esp
  00003	8b c1		 mov	 eax, ecx
  00005	8b 4d 08	 mov	 ecx, DWORD PTR __Val1$[ebp]
  00008	8b 11		 mov	 edx, DWORD PTR [ecx]
  0000a	8b 4d 0c	 mov	 ecx, DWORD PTR __Val2$[ebp]
  0000d	89 10		 mov	 DWORD PTR [eax], edx
  0000f	8a 11		 mov	 dl, BYTE PTR [ecx]
  00011	88 50 04	 mov	 BYTE PTR [eax+4], dl

; 248  : 		}

  00014	5d		 pop	 ebp
  00015	c2 08 00	 ret	 8
??$?0AAV?$_Tree_iterator@V?$_Tree_val@V?$_Tmap_traits@HHU?$less@H@std@@V?$allocator@U?$pair@$$CBHH@std@@@2@$0A@@std@@@std@@@std@@_N@?$pair@V?$_Tree_iterator@V?$_Tree_val@V?$_Tmap_traits@HHU?$less@H@std@@V?$allocator@U?$pair@$$CBHH@std@@@2@$0A@@std@@@std@@@std@@_N@std@@QAE@AAV?$_Tree_iterator@V?$_Tree_val@V?$_Tmap_traits@HHU?$less@H@std@@V?$allocator@U?$pair@$$CBHH@std@@@2@$0A@@std@@@std@@@1@$$QA_N@Z ENDP ; std::pair<std::_Tree_iterator<std::_Tree_val<std::_Tmap_traits<int,int,std::less<int>,std::allocator<std::pair<int const ,int> >,0> > >,bool>::pair<std::_Tree_iterator<std::_Tree_val<std::_Tmap_traits<int,int,std::less<int>,std::allocator<std::pair<int const ,int> >,0> > >,bool><std::_Tree_iterator<std::_Tree_val<std::_Tmap_traits<int,int,std::less<int>,std::allocator<std::pair<int const ,int> >,0> > > &,bool>
_TEXT	ENDS
PUBLIC	??0?$_Pair_base@$$CBHH@std@@QAE@$$QBH$$QAH@Z	; std::_Pair_base<int const ,int>::_Pair_base<int const ,int>
; Function compile flags: /Ogtp
;	COMDAT ??0?$_Pair_base@$$CBHH@std@@QAE@$$QBH$$QAH@Z
_TEXT	SEGMENT
__Val1$ = 8						; size = 4
__Val2$ = 12						; size = 4
??0?$_Pair_base@$$CBHH@std@@QAE@$$QBH$$QAH@Z PROC	; std::_Pair_base<int const ,int>::_Pair_base<int const ,int>, COMDAT
; _this$ = ecx

; 145  : 		{	// construct from specified values

  00000	55		 push	 ebp
  00001	8b ec		 mov	 ebp, esp
  00003	8b c1		 mov	 eax, ecx
  00005	8b 4d 08	 mov	 ecx, DWORD PTR __Val1$[ebp]
  00008	8b 11		 mov	 edx, DWORD PTR [ecx]
  0000a	8b 4d 0c	 mov	 ecx, DWORD PTR __Val2$[ebp]
  0000d	89 10		 mov	 DWORD PTR [eax], edx
  0000f	8b 11		 mov	 edx, DWORD PTR [ecx]
  00011	89 50 04	 mov	 DWORD PTR [eax+4], edx

; 146  : 		}

  00014	5d		 pop	 ebp
  00015	c2 08 00	 ret	 8
??0?$_Pair_base@$$CBHH@std@@QAE@$$QBH$$QAH@Z ENDP	; std::_Pair_base<int const ,int>::_Pair_base<int const ,int>
_TEXT	ENDS
PUBLIC	??C?$_Tree_iterator@V?$_Tree_val@V?$_Tmap_traits@HHU?$less@H@std@@V?$allocator@U?$pair@$$CBHH@std@@@2@$0A@@std@@@std@@@std@@QBEPAU?$pair@$$CBHH@1@XZ ; std::_Tree_iterator<std::_Tree_val<std::_Tmap_traits<int,int,std::less<int>,std::allocator<std::pair<int const ,int> >,0> > >::operator->
; Function compile flags: /Ogtp
; File d:\program files (x86)\microsoft visual studio 10.0\vc\include\xtree
;	COMDAT ??C?$_Tree_iterator@V?$_Tree_val@V?$_Tmap_traits@HHU?$less@H@std@@V?$allocator@U?$pair@$$CBHH@std@@@2@$0A@@std@@@std@@@std@@QBEPAU?$pair@$$CBHH@1@XZ
_TEXT	SEGMENT
??C?$_Tree_iterator@V?$_Tree_val@V?$_Tmap_traits@HHU?$less@H@std@@V?$allocator@U?$pair@$$CBHH@std@@@2@$0A@@std@@@std@@@std@@QBEPAU?$pair@$$CBHH@1@XZ PROC ; std::_Tree_iterator<std::_Tree_val<std::_Tmap_traits<int,int,std::less<int>,std::allocator<std::pair<int const ,int> >,0> > >::operator->, COMDAT
; _this$ = ecx

; 401  : 		return (&**this);

  00000	8b 01		 mov	 eax, DWORD PTR [ecx]
  00002	83 c0 0c	 add	 eax, 12			; 0000000cH

; 402  : 		}

  00005	c3		 ret	 0
??C?$_Tree_iterator@V?$_Tree_val@V?$_Tmap_traits@HHU?$less@H@std@@V?$allocator@U?$pair@$$CBHH@std@@@2@$0A@@std@@@std@@@std@@QBEPAU?$pair@$$CBHH@1@XZ ENDP ; std::_Tree_iterator<std::_Tree_val<std::_Tmap_traits<int,int,std::less<int>,std::allocator<std::pair<int const ,int> >,0> > >::operator->
_TEXT	ENDS
PUBLIC	??0?$pair@$$CBHH@std@@QAE@ABH$$QAH@Z		; std::pair<int const ,int>::pair<int const ,int>
; Function compile flags: /Ogtp
; File d:\program files (x86)\microsoft visual studio 10.0\vc\include\utility
;	COMDAT ??0?$pair@$$CBHH@std@@QAE@ABH$$QAH@Z
_TEXT	SEGMENT
__Val1$ = 8						; size = 4
__Val2$ = 12						; size = 4
??0?$pair@$$CBHH@std@@QAE@ABH$$QAH@Z PROC		; std::pair<int const ,int>::pair<int const ,int>, COMDAT
; _this$ = ecx

; 233  : 		{	// construct from specified values

  00000	55		 push	 ebp
  00001	8b ec		 mov	 ebp, esp
  00003	8b c1		 mov	 eax, ecx
  00005	8b 4d 08	 mov	 ecx, DWORD PTR __Val1$[ebp]
  00008	8b 11		 mov	 edx, DWORD PTR [ecx]
  0000a	8b 4d 0c	 mov	 ecx, DWORD PTR __Val2$[ebp]
  0000d	89 10		 mov	 DWORD PTR [eax], edx
  0000f	8b 11		 mov	 edx, DWORD PTR [ecx]
  00011	89 50 04	 mov	 DWORD PTR [eax+4], edx

; 234  : 		}

  00014	5d		 pop	 ebp
  00015	c2 08 00	 ret	 8
??0?$pair@$$CBHH@std@@QAE@ABH$$QAH@Z ENDP		; std::pair<int const ,int>::pair<int const ,int>
_TEXT	ENDS
PUBLIC	??0?$_Tree_const_iterator@V?$_Tree_val@V?$_Tmap_traits@HHU?$less@H@std@@V?$allocator@U?$pair@$$CBHH@std@@@2@$0A@@std@@@std@@@std@@QAE@PAU_Node@?$_Tree_nod@V?$_Tmap_traits@HHU?$less@H@std@@V?$allocator@U?$pair@$$CBHH@std@@@2@$0A@@std@@@1@PBV?$_Tree_val@V?$_Tmap_traits@HHU?$less@H@std@@V?$allocator@U?$pair@$$CBHH@std@@@2@$0A@@std@@@1@@Z ; std::_Tree_const_iterator<std::_Tree_val<std::_Tmap_traits<int,int,std::less<int>,std::allocator<std::pair<int const ,int> >,0> > >::_Tree_const_iterator<std::_Tree_val<std::_Tmap_traits<int,int,std::less<int>,std::allocator<std::pair<int const ,int> >,0> > >
; Function compile flags: /Ogtp
; File d:\program files (x86)\microsoft visual studio 10.0\vc\include\xtree
;	COMDAT ??0?$_Tree_const_iterator@V?$_Tree_val@V?$_Tmap_traits@HHU?$less@H@std@@V?$allocator@U?$pair@$$CBHH@std@@@2@$0A@@std@@@std@@@std@@QAE@PAU_Node@?$_Tree_nod@V?$_Tmap_traits@HHU?$less@H@std@@V?$allocator@U?$pair@$$CBHH@std@@@2@$0A@@std@@@1@PBV?$_Tree_val@V?$_Tmap_traits@HHU?$less@H@std@@V?$allocator@U?$pair@$$CBHH@std@@@2@$0A@@std@@@1@@Z
_TEXT	SEGMENT
__Pnode$ = 8						; size = 4
__Plist$ = 12						; size = 4
??0?$_Tree_const_iterator@V?$_Tree_val@V?$_Tmap_traits@HHU?$less@H@std@@V?$allocator@U?$pair@$$CBHH@std@@@2@$0A@@std@@@std@@@std@@QAE@PAU_Node@?$_Tree_nod@V?$_Tmap_traits@HHU?$less@H@std@@V?$allocator@U?$pair@$$CBHH@std@@@2@$0A@@std@@@1@PBV?$_Tree_val@V?$_Tmap_traits@HHU?$less@H@std@@V?$allocator@U?$pair@$$CBHH@std@@@2@$0A@@std@@@1@@Z PROC ; std::_Tree_const_iterator<std::_Tree_val<std::_Tmap_traits<int,int,std::less<int>,std::allocator<std::pair<int const ,int> >,0> > >::_Tree_const_iterator<std::_Tree_val<std::_Tmap_traits<int,int,std::less<int>,std::allocator<std::pair<int const ,int> >,0> > >, COMDAT
; _this$ = ecx

; 213  : 		{	// construct with node pointer _Pnode

  00000	55		 push	 ebp
  00001	8b ec		 mov	 ebp, esp
  00003	8b c1		 mov	 eax, ecx
  00005	8b 4d 08	 mov	 ecx, DWORD PTR __Pnode$[ebp]
  00008	89 08		 mov	 DWORD PTR [eax], ecx

; 214  : 		}

  0000a	5d		 pop	 ebp
  0000b	c2 08 00	 ret	 8
??0?$_Tree_const_iterator@V?$_Tree_val@V?$_Tmap_traits@HHU?$less@H@std@@V?$allocator@U?$pair@$$CBHH@std@@@2@$0A@@std@@@std@@@std@@QAE@PAU_Node@?$_Tree_nod@V?$_Tmap_traits@HHU?$less@H@std@@V?$allocator@U?$pair@$$CBHH@std@@@2@$0A@@std@@@1@PBV?$_Tree_val@V?$_Tmap_traits@HHU?$less@H@std@@V?$allocator@U?$pair@$$CBHH@std@@@2@$0A@@std@@@1@@Z ENDP ; std::_Tree_const_iterator<std::_Tree_val<std::_Tmap_traits<int,int,std::less<int>,std::allocator<std::pair<int const ,int> >,0> > >::_Tree_const_iterator<std::_Tree_val<std::_Tmap_traits<int,int,std::less<int>,std::allocator<std::pair<int const ,int> >,0> > >
_TEXT	ENDS
PUBLIC	?allocate@?$allocator@U_Node@?$_Tree_nod@V?$_Tmap_traits@HHU?$less@H@std@@V?$allocator@U?$pair@$$CBHH@std@@@2@$0A@@std@@@std@@@std@@QAEPAU_Node@?$_Tree_nod@V?$_Tmap_traits@HHU?$less@H@std@@V?$allocator@U?$pair@$$CBHH@std@@@2@$0A@@std@@@2@I@Z ; std::allocator<std::_Tree_nod<std::_Tmap_traits<int,int,std::less<int>,std::allocator<std::pair<int const ,int> >,0> >::_Node>::allocate
; Function compile flags: /Ogtp
; File d:\program files (x86)\microsoft visual studio 10.0\vc\include\xmemory
;	COMDAT ?allocate@?$allocator@U_Node@?$_Tree_nod@V?$_Tmap_traits@HHU?$less@H@std@@V?$allocator@U?$pair@$$CBHH@std@@@2@$0A@@std@@@std@@@std@@QAEPAU_Node@?$_Tree_nod@V?$_Tmap_traits@HHU?$less@H@std@@V?$allocator@U?$pair@$$CBHH@std@@@2@$0A@@std@@@2@I@Z
_TEXT	SEGMENT
$T214662 = -12						; size = 12
$T214654 = 8						; size = 4
__Count$ = 8						; size = 4
?allocate@?$allocator@U_Node@?$_Tree_nod@V?$_Tmap_traits@HHU?$less@H@std@@V?$allocator@U?$pair@$$CBHH@std@@@2@$0A@@std@@@std@@@std@@QAEPAU_Node@?$_Tree_nod@V?$_Tmap_traits@HHU?$less@H@std@@V?$allocator@U?$pair@$$CBHH@std@@@2@$0A@@std@@@2@I@Z PROC ; std::allocator<std::_Tree_nod<std::_Tmap_traits<int,int,std::less<int>,std::allocator<std::pair<int const ,int> >,0> >::_Node>::allocate, COMDAT
; _this$ = ecx

; 186  : 		{	// allocate array of _Count elements

  00000	55		 push	 ebp
  00001	8b ec		 mov	 ebp, esp

; 187  : 		return (_Allocate(_Count, (pointer)0));

  00003	8b 4d 08	 mov	 ecx, DWORD PTR __Count$[ebp]
  00006	83 ec 0c	 sub	 esp, 12			; 0000000cH
  00009	33 c0		 xor	 eax, eax
  0000b	85 c9		 test	 ecx, ecx
  0000d	74 46		 je	 SHORT $LN1@allocate
  0000f	81 f9 aa aa aa
	0a		 cmp	 ecx, 178956970		; 0aaaaaaaH
  00015	77 16		 ja	 SHORT $LN3@allocate
  00017	8d 04 49	 lea	 eax, DWORD PTR [ecx+ecx*2]
  0001a	03 c0		 add	 eax, eax
  0001c	03 c0		 add	 eax, eax
  0001e	03 c0		 add	 eax, eax
  00020	50		 push	 eax
  00021	e8 00 00 00 00	 call	 ??2@YAPAXI@Z		; operator new
  00026	83 c4 04	 add	 esp, 4
  00029	85 c0		 test	 eax, eax
  0002b	75 28		 jne	 SHORT $LN1@allocate
$LN3@allocate:
  0002d	8d 4d 08	 lea	 ecx, DWORD PTR $T214654[ebp]
  00030	51		 push	 ecx
  00031	8d 4d f4	 lea	 ecx, DWORD PTR $T214662[ebp]
  00034	c7 45 08 00 00
	00 00		 mov	 DWORD PTR $T214654[ebp], 0
  0003b	e8 00 00 00 00	 call	 ??0exception@std@@QAE@ABQBD@Z ; std::exception::exception
  00040	68 00 00 00 00	 push	 OFFSET __TI2?AVbad_alloc@std@@
  00045	8d 55 f4	 lea	 edx, DWORD PTR $T214662[ebp]
  00048	52		 push	 edx
  00049	c7 45 f4 00 00
	00 00		 mov	 DWORD PTR $T214662[ebp], OFFSET ??_7bad_alloc@std@@6B@
  00050	e8 00 00 00 00	 call	 __CxxThrowException@8
$LN13@allocate:
$LN1@allocate:

; 188  : 		}

  00055	8b e5		 mov	 esp, ebp
  00057	5d		 pop	 ebp
  00058	c2 04 00	 ret	 4
$LN12@allocate:
?allocate@?$allocator@U_Node@?$_Tree_nod@V?$_Tmap_traits@HHU?$less@H@std@@V?$allocator@U?$pair@$$CBHH@std@@@2@$0A@@std@@@std@@@std@@QAEPAU_Node@?$_Tree_nod@V?$_Tmap_traits@HHU?$less@H@std@@V?$allocator@U?$pair@$$CBHH@std@@@2@$0A@@std@@@2@I@Z ENDP ; std::allocator<std::_Tree_nod<std::_Tmap_traits<int,int,std::less<int>,std::allocator<std::pair<int const ,int> >,0> >::_Node>::allocate
_TEXT	ENDS
PUBLIC	??E?$_Tree_const_iterator@V?$_Tree_val@V?$_Tmap_traits@HHU?$less@H@std@@V?$allocator@U?$pair@$$CBHH@std@@@2@$0A@@std@@@std@@@std@@QAE?AV01@H@Z ; std::_Tree_const_iterator<std::_Tree_val<std::_Tmap_traits<int,int,std::less<int>,std::allocator<std::pair<int const ,int> >,0> > >::operator++
; Function compile flags: /Ogtp
; File d:\program files (x86)\microsoft visual studio 10.0\vc\include\xtree
;	COMDAT ??E?$_Tree_const_iterator@V?$_Tree_val@V?$_Tmap_traits@HHU?$less@H@std@@V?$allocator@U?$pair@$$CBHH@std@@@2@$0A@@std@@@std@@@std@@QAE?AV01@H@Z
_TEXT	SEGMENT
___$ReturnUdt$ = 8					; size = 4
___formal$ = 12						; size = 4
??E?$_Tree_const_iterator@V?$_Tree_val@V?$_Tmap_traits@HHU?$less@H@std@@V?$allocator@U?$pair@$$CBHH@std@@@2@$0A@@std@@@std@@@std@@QAE?AV01@H@Z PROC ; std::_Tree_const_iterator<std::_Tree_val<std::_Tmap_traits<int,int,std::less<int>,std::allocator<std::pair<int const ,int> >,0> > >::operator++, COMDAT
; _this$ = ecx

; 270  : 		{	// postincrement

  00000	55		 push	 ebp
  00001	8b ec		 mov	 ebp, esp

; 271  : 		_Myiter _Tmp = *this;

  00003	8b 01		 mov	 eax, DWORD PTR [ecx]
  00005	56		 push	 esi
  00006	8b 75 08	 mov	 esi, DWORD PTR ___$ReturnUdt$[ebp]
  00009	89 06		 mov	 DWORD PTR [esi], eax

; 272  : 		++*this;

  0000b	e8 00 00 00 00	 call	 ??E?$_Tree_unchecked_const_iterator@V?$_Tree_val@V?$_Tmap_traits@HHU?$less@H@std@@V?$allocator@U?$pair@$$CBHH@std@@@2@$0A@@std@@@std@@U_Iterator_base0@2@@std@@QAEAAV01@XZ ; std::_Tree_unchecked_const_iterator<std::_Tree_val<std::_Tmap_traits<int,int,std::less<int>,std::allocator<std::pair<int const ,int> >,0> >,std::_Iterator_base0>::operator++

; 273  : 		return (_Tmp);

  00010	8b c6		 mov	 eax, esi
  00012	5e		 pop	 esi

; 274  : 		}

  00013	5d		 pop	 ebp
  00014	c2 08 00	 ret	 8
??E?$_Tree_const_iterator@V?$_Tree_val@V?$_Tmap_traits@HHU?$less@H@std@@V?$allocator@U?$pair@$$CBHH@std@@@2@$0A@@std@@@std@@@std@@QAE?AV01@H@Z ENDP ; std::_Tree_const_iterator<std::_Tree_val<std::_Tmap_traits<int,int,std::less<int>,std::allocator<std::pair<int const ,int> >,0> > >::operator++
_TEXT	ENDS
PUBLIC	??$_Dest_val@V?$allocator@U?$pair@$$CBHH@std@@@std@@U?$pair@$$CBHH@2@@std@@YAXAAV?$allocator@U?$pair@$$CBHH@std@@@0@PAU?$pair@$$CBHH@0@@Z ; std::_Dest_val<std::allocator<std::pair<int const ,int> >,std::pair<int const ,int> >
; Function compile flags: /Ogtp
; File d:\program files (x86)\microsoft visual studio 10.0\vc\include\xmemory
;	COMDAT ??$_Dest_val@V?$allocator@U?$pair@$$CBHH@std@@@std@@U?$pair@$$CBHH@2@@std@@YAXAAV?$allocator@U?$pair@$$CBHH@std@@@0@PAU?$pair@$$CBHH@0@@Z
_TEXT	SEGMENT
__Alval$ = 8						; size = 4
__Pdest$ = 12						; size = 4
??$_Dest_val@V?$allocator@U?$pair@$$CBHH@std@@@std@@U?$pair@$$CBHH@2@@std@@YAXAAV?$allocator@U?$pair@$$CBHH@std@@@0@PAU?$pair@$$CBHH@0@@Z PROC ; std::_Dest_val<std::allocator<std::pair<int const ,int> >,std::pair<int const ,int> >, COMDAT

; 287  : 	_Alval.destroy(_Pdest);
; 288  : 	}

  00000	c3		 ret	 0
??$_Dest_val@V?$allocator@U?$pair@$$CBHH@std@@@std@@U?$pair@$$CBHH@2@@std@@YAXAAV?$allocator@U?$pair@$$CBHH@std@@@0@PAU?$pair@$$CBHH@0@@Z ENDP ; std::_Dest_val<std::allocator<std::pair<int const ,int> >,std::pair<int const ,int> >
_TEXT	ENDS
PUBLIC	??0?$pair@V?$_Tree_iterator@V?$_Tree_val@V?$_Tmap_traits@HHU?$less@H@std@@V?$allocator@U?$pair@$$CBHH@std@@@2@$0A@@std@@@std@@@std@@_N@std@@QAE@$$QAV?$_Tree_iterator@V?$_Tree_val@V?$_Tmap_traits@HHU?$less@H@std@@V?$allocator@U?$pair@$$CBHH@std@@@2@$0A@@std@@@std@@@1@$$QA_N@Z ; std::pair<std::_Tree_iterator<std::_Tree_val<std::_Tmap_traits<int,int,std::less<int>,std::allocator<std::pair<int const ,int> >,0> > >,bool>::pair<std::_Tree_iterator<std::_Tree_val<std::_Tmap_traits<int,int,std::less<int>,std::allocator<std::pair<int const ,int> >,0> > >,bool>
; Function compile flags: /Ogtp
; File d:\program files (x86)\microsoft visual studio 10.0\vc\include\utility
;	COMDAT ??0?$pair@V?$_Tree_iterator@V?$_Tree_val@V?$_Tmap_traits@HHU?$less@H@std@@V?$allocator@U?$pair@$$CBHH@std@@@2@$0A@@std@@@std@@@std@@_N@std@@QAE@$$QAV?$_Tree_iterator@V?$_Tree_val@V?$_Tmap_traits@HHU?$less@H@std@@V?$allocator@U?$pair@$$CBHH@std@@@2@$0A@@std@@@std@@@1@$$QA_N@Z
_TEXT	SEGMENT
__Val1$ = 8						; size = 4
__Val2$ = 12						; size = 4
??0?$pair@V?$_Tree_iterator@V?$_Tree_val@V?$_Tmap_traits@HHU?$less@H@std@@V?$allocator@U?$pair@$$CBHH@std@@@2@$0A@@std@@@std@@@std@@_N@std@@QAE@$$QAV?$_Tree_iterator@V?$_Tree_val@V?$_Tmap_traits@HHU?$less@H@std@@V?$allocator@U?$pair@$$CBHH@std@@@2@$0A@@std@@@std@@@1@$$QA_N@Z PROC ; std::pair<std::_Tree_iterator<std::_Tree_val<std::_Tmap_traits<int,int,std::less<int>,std::allocator<std::pair<int const ,int> >,0> > >,bool>::pair<std::_Tree_iterator<std::_Tree_val<std::_Tmap_traits<int,int,std::less<int>,std::allocator<std::pair<int const ,int> >,0> > >,bool>, COMDAT
; _this$ = ecx

; 227  : 		{	// construct from specified values

  00000	55		 push	 ebp
  00001	8b ec		 mov	 ebp, esp
  00003	8b c1		 mov	 eax, ecx
  00005	8b 4d 08	 mov	 ecx, DWORD PTR __Val1$[ebp]
  00008	8b 11		 mov	 edx, DWORD PTR [ecx]
  0000a	8b 4d 0c	 mov	 ecx, DWORD PTR __Val2$[ebp]
  0000d	89 10		 mov	 DWORD PTR [eax], edx
  0000f	8a 11		 mov	 dl, BYTE PTR [ecx]
  00011	88 50 04	 mov	 BYTE PTR [eax+4], dl

; 228  : 		}

  00014	5d		 pop	 ebp
  00015	c2 08 00	 ret	 8
??0?$pair@V?$_Tree_iterator@V?$_Tree_val@V?$_Tmap_traits@HHU?$less@H@std@@V?$allocator@U?$pair@$$CBHH@std@@@2@$0A@@std@@@std@@@std@@_N@std@@QAE@$$QAV?$_Tree_iterator@V?$_Tree_val@V?$_Tmap_traits@HHU?$less@H@std@@V?$allocator@U?$pair@$$CBHH@std@@@2@$0A@@std@@@std@@@1@$$QA_N@Z ENDP ; std::pair<std::_Tree_iterator<std::_Tree_val<std::_Tmap_traits<int,int,std::less<int>,std::allocator<std::pair<int const ,int> >,0> > >,bool>::pair<std::_Tree_iterator<std::_Tree_val<std::_Tmap_traits<int,int,std::less<int>,std::allocator<std::pair<int const ,int> >,0> > >,bool>
_TEXT	ENDS
PUBLIC	?_Buynode@?$_Tree_val@V?$_Tmap_traits@HHU?$less@H@std@@V?$allocator@U?$pair@$$CBHH@std@@@2@$0A@@std@@@std@@QAEPAU_Node@?$_Tree_nod@V?$_Tmap_traits@HHU?$less@H@std@@V?$allocator@U?$pair@$$CBHH@std@@@2@$0A@@std@@@2@XZ ; std::_Tree_val<std::_Tmap_traits<int,int,std::less<int>,std::allocator<std::pair<int const ,int> >,0> >::_Buynode
; Function compile flags: /Ogtp
; File d:\program files (x86)\microsoft visual studio 10.0\vc\include\xtree
;	COMDAT ?_Buynode@?$_Tree_val@V?$_Tmap_traits@HHU?$less@H@std@@V?$allocator@U?$pair@$$CBHH@std@@@2@$0A@@std@@@std@@QAEPAU_Node@?$_Tree_nod@V?$_Tmap_traits@HHU?$less@H@std@@V?$allocator@U?$pair@$$CBHH@std@@@2@$0A@@std@@@2@XZ
_TEXT	SEGMENT
$T214729 = -16						; size = 12
$T214707 = -4						; size = 4
?_Buynode@?$_Tree_val@V?$_Tmap_traits@HHU?$less@H@std@@V?$allocator@U?$pair@$$CBHH@std@@@2@$0A@@std@@@std@@QAEPAU_Node@?$_Tree_nod@V?$_Tmap_traits@HHU?$less@H@std@@V?$allocator@U?$pair@$$CBHH@std@@@2@$0A@@std@@@2@XZ PROC ; std::_Tree_val<std::_Tmap_traits<int,int,std::less<int>,std::allocator<std::pair<int const ,int> >,0> >::_Buynode, COMDAT
; _this$ = ecx

; 559  : 		{	// allocate a node

  00000	55		 push	 ebp
  00001	8b ec		 mov	 ebp, esp
  00003	83 ec 10	 sub	 esp, 16			; 00000010H
  00006	56		 push	 esi

; 560  : 		_Nodeptr _Wherenode = this->_Alnod.allocate(1);

  00007	6a 18		 push	 24			; 00000018H
  00009	8b f1		 mov	 esi, ecx
  0000b	e8 00 00 00 00	 call	 ??2@YAPAXI@Z		; operator new
  00010	33 c9		 xor	 ecx, ecx
  00012	83 c4 04	 add	 esp, 4
  00015	3b c1		 cmp	 eax, ecx
  00017	74 1a		 je	 SHORT $LN5@Buynode

; 561  : 
; 562  : 		this->_Left(_Wherenode) = this->_Myhead;

  00019	8b 56 04	 mov	 edx, DWORD PTR [esi+4]
  0001c	89 10		 mov	 DWORD PTR [eax], edx

; 563  : 		this->_Parent(_Wherenode) = this->_Myhead;

  0001e	8b 56 04	 mov	 edx, DWORD PTR [esi+4]
  00021	89 50 04	 mov	 DWORD PTR [eax+4], edx

; 564  : 		this->_Right(_Wherenode) = this->_Myhead;

  00024	8b 56 04	 mov	 edx, DWORD PTR [esi+4]
  00027	89 50 08	 mov	 DWORD PTR [eax+8], edx

; 565  : 		this->_Color(_Wherenode) = this->_Red;

  0002a	66 89 48 14	 mov	 WORD PTR [eax+20], cx
  0002e	5e		 pop	 esi

; 566  : 		this->_Isnil(_Wherenode) = false;
; 567  : 		return (_Wherenode);
; 568  : 		}

  0002f	8b e5		 mov	 esp, ebp
  00031	5d		 pop	 ebp
  00032	c3		 ret	 0

; 560  : 		_Nodeptr _Wherenode = this->_Alnod.allocate(1);

$LN5@Buynode:
  00033	8d 45 fc	 lea	 eax, DWORD PTR $T214707[ebp]
  00036	89 4d fc	 mov	 DWORD PTR $T214707[ebp], ecx
  00039	50		 push	 eax
  0003a	8d 4d f0	 lea	 ecx, DWORD PTR $T214729[ebp]
  0003d	e8 00 00 00 00	 call	 ??0exception@std@@QAE@ABQBD@Z ; std::exception::exception
  00042	68 00 00 00 00	 push	 OFFSET __TI2?AVbad_alloc@std@@
  00047	8d 4d f0	 lea	 ecx, DWORD PTR $T214729[ebp]
  0004a	51		 push	 ecx
  0004b	c7 45 f0 00 00
	00 00		 mov	 DWORD PTR $T214729[ebp], OFFSET ??_7bad_alloc@std@@6B@
  00052	e8 00 00 00 00	 call	 __CxxThrowException@8
$LN27@Buynode:
$LN26@Buynode:
  00057	cc		 int	 3
?_Buynode@?$_Tree_val@V?$_Tmap_traits@HHU?$less@H@std@@V?$allocator@U?$pair@$$CBHH@std@@@2@$0A@@std@@@std@@QAEPAU_Node@?$_Tree_nod@V?$_Tmap_traits@HHU?$less@H@std@@V?$allocator@U?$pair@$$CBHH@std@@@2@$0A@@std@@@2@XZ ENDP ; std::_Tree_val<std::_Tmap_traits<int,int,std::less<int>,std::allocator<std::pair<int const ,int> >,0> >::_Buynode
_TEXT	ENDS
PUBLIC	??$?0$$CBHH@?$pair@$$CBHH@std@@QAE@$$QAU01@@Z	; std::pair<int const ,int>::pair<int const ,int><int const ,int>
; Function compile flags: /Ogtp
; File d:\program files (x86)\microsoft visual studio 10.0\vc\include\utility
;	COMDAT ??$?0$$CBHH@?$pair@$$CBHH@std@@QAE@$$QAU01@@Z
_TEXT	SEGMENT
__Right$ = 8						; size = 4
??$?0$$CBHH@?$pair@$$CBHH@std@@QAE@$$QAU01@@Z PROC	; std::pair<int const ,int>::pair<int const ,int><int const ,int>, COMDAT
; _this$ = ecx

; 255  : 		{	// construct from moved compatible pair

  00000	55		 push	 ebp
  00001	8b ec		 mov	 ebp, esp
  00003	8b c1		 mov	 eax, ecx
  00005	8b 4d 08	 mov	 ecx, DWORD PTR __Right$[ebp]
  00008	8b 11		 mov	 edx, DWORD PTR [ecx]
  0000a	89 10		 mov	 DWORD PTR [eax], edx
  0000c	8b 49 04	 mov	 ecx, DWORD PTR [ecx+4]
  0000f	89 48 04	 mov	 DWORD PTR [eax+4], ecx

; 256  : 		}

  00012	5d		 pop	 ebp
  00013	c2 04 00	 ret	 4
??$?0$$CBHH@?$pair@$$CBHH@std@@QAE@$$QAU01@@Z ENDP	; std::pair<int const ,int>::pair<int const ,int><int const ,int>
_TEXT	ENDS
PUBLIC	?_Erase@?$_Tree@V?$_Tmap_traits@HHU?$less@H@std@@V?$allocator@U?$pair@$$CBHH@std@@@2@$0A@@std@@@std@@IAEXPAU_Node@?$_Tree_nod@V?$_Tmap_traits@HHU?$less@H@std@@V?$allocator@U?$pair@$$CBHH@std@@@2@$0A@@std@@@2@@Z ; std::_Tree<std::_Tmap_traits<int,int,std::less<int>,std::allocator<std::pair<int const ,int> >,0> >::_Erase
; Function compile flags: /Ogtp
; File d:\program files (x86)\microsoft visual studio 10.0\vc\include\xtree
;	COMDAT ?_Erase@?$_Tree@V?$_Tmap_traits@HHU?$less@H@std@@V?$allocator@U?$pair@$$CBHH@std@@@2@$0A@@std@@@std@@IAEXPAU_Node@?$_Tree_nod@V?$_Tmap_traits@HHU?$less@H@std@@V?$allocator@U?$pair@$$CBHH@std@@@2@$0A@@std@@@2@@Z
_TEXT	SEGMENT
__Rootnode$ = 8						; size = 4
?_Erase@?$_Tree@V?$_Tmap_traits@HHU?$less@H@std@@V?$allocator@U?$pair@$$CBHH@std@@@2@$0A@@std@@@std@@IAEXPAU_Node@?$_Tree_nod@V?$_Tmap_traits@HHU?$less@H@std@@V?$allocator@U?$pair@$$CBHH@std@@@2@$0A@@std@@@2@@Z PROC ; std::_Tree<std::_Tmap_traits<int,int,std::less<int>,std::allocator<std::pair<int const ,int> >,0> >::_Erase, COMDAT
; _this$ = ecx

; 1610 : 		{	// free entire subtree, recursively

  00000	55		 push	 ebp
  00001	8b ec		 mov	 ebp, esp
  00003	53		 push	 ebx
  00004	56		 push	 esi
  00005	57		 push	 edi

; 1611 : 		for (_Nodeptr _Pnode = _Rootnode;

  00006	8b 7d 08	 mov	 edi, DWORD PTR __Rootnode$[ebp]

; 1612 : 			!this->_Isnil(_Pnode); _Rootnode = _Pnode)

  00009	80 7f 15 00	 cmp	 BYTE PTR [edi+21], 0
  0000d	8b d9		 mov	 ebx, ecx
  0000f	8b f7		 mov	 esi, edi
  00011	75 1e		 jne	 SHORT $LN1@Erase
$LL3@Erase:

; 1613 : 			{	// free subtrees, then node
; 1614 : 			_Erase(this->_Right(_Pnode));

  00013	8b 46 08	 mov	 eax, DWORD PTR [esi+8]
  00016	50		 push	 eax
  00017	8b cb		 mov	 ecx, ebx
  00019	e8 00 00 00 00	 call	 ?_Erase@?$_Tree@V?$_Tmap_traits@HHU?$less@H@std@@V?$allocator@U?$pair@$$CBHH@std@@@2@$0A@@std@@@std@@IAEXPAU_Node@?$_Tree_nod@V?$_Tmap_traits@HHU?$less@H@std@@V?$allocator@U?$pair@$$CBHH@std@@@2@$0A@@std@@@2@@Z ; std::_Tree<std::_Tmap_traits<int,int,std::less<int>,std::allocator<std::pair<int const ,int> >,0> >::_Erase

; 1615 : 			_Pnode = this->_Left(_Pnode);

  0001e	8b 36		 mov	 esi, DWORD PTR [esi]

; 1616 : 			_Dest_val(this->_Alval,
; 1617 : 				_STD addressof(this->_Myval(_Rootnode)));
; 1618 : 
; 1619 : 			this->_Alnod.deallocate(_Rootnode, 1);

  00020	57		 push	 edi
  00021	e8 00 00 00 00	 call	 ??3@YAXPAX@Z		; operator delete
  00026	83 c4 04	 add	 esp, 4
  00029	80 7e 15 00	 cmp	 BYTE PTR [esi+21], 0
  0002d	8b fe		 mov	 edi, esi
  0002f	74 e2		 je	 SHORT $LL3@Erase
$LN1@Erase:
  00031	5f		 pop	 edi
  00032	5e		 pop	 esi
  00033	5b		 pop	 ebx

; 1620 : 			}
; 1621 : 		}

  00034	5d		 pop	 ebp
  00035	c2 04 00	 ret	 4
?_Erase@?$_Tree@V?$_Tmap_traits@HHU?$less@H@std@@V?$allocator@U?$pair@$$CBHH@std@@@2@$0A@@std@@@std@@IAEXPAU_Node@?$_Tree_nod@V?$_Tmap_traits@HHU?$less@H@std@@V?$allocator@U?$pair@$$CBHH@std@@@2@$0A@@std@@@2@@Z ENDP ; std::_Tree<std::_Tmap_traits<int,int,std::less<int>,std::allocator<std::pair<int const ,int> >,0> >::_Erase
_TEXT	ENDS
PUBLIC	??0?$_Tree_iterator@V?$_Tree_val@V?$_Tmap_traits@HHU?$less@H@std@@V?$allocator@U?$pair@$$CBHH@std@@@2@$0A@@std@@@std@@@std@@QAE@PAU_Node@?$_Tree_nod@V?$_Tmap_traits@HHU?$less@H@std@@V?$allocator@U?$pair@$$CBHH@std@@@2@$0A@@std@@@1@PBV?$_Tree_val@V?$_Tmap_traits@HHU?$less@H@std@@V?$allocator@U?$pair@$$CBHH@std@@@2@$0A@@std@@@1@@Z ; std::_Tree_iterator<std::_Tree_val<std::_Tmap_traits<int,int,std::less<int>,std::allocator<std::pair<int const ,int> >,0> > >::_Tree_iterator<std::_Tree_val<std::_Tmap_traits<int,int,std::less<int>,std::allocator<std::pair<int const ,int> >,0> > >
; Function compile flags: /Ogtp
;	COMDAT ??0?$_Tree_iterator@V?$_Tree_val@V?$_Tmap_traits@HHU?$less@H@std@@V?$allocator@U?$pair@$$CBHH@std@@@2@$0A@@std@@@std@@@std@@QAE@PAU_Node@?$_Tree_nod@V?$_Tmap_traits@HHU?$less@H@std@@V?$allocator@U?$pair@$$CBHH@std@@@2@$0A@@std@@@1@PBV?$_Tree_val@V?$_Tmap_traits@HHU?$less@H@std@@V?$allocator@U?$pair@$$CBHH@std@@@2@$0A@@std@@@1@@Z
_TEXT	SEGMENT
__Pnode$ = 8						; size = 4
__Plist$ = 12						; size = 4
??0?$_Tree_iterator@V?$_Tree_val@V?$_Tmap_traits@HHU?$less@H@std@@V?$allocator@U?$pair@$$CBHH@std@@@2@$0A@@std@@@std@@@std@@QAE@PAU_Node@?$_Tree_nod@V?$_Tmap_traits@HHU?$less@H@std@@V?$allocator@U?$pair@$$CBHH@std@@@2@$0A@@std@@@1@PBV?$_Tree_val@V?$_Tmap_traits@HHU?$less@H@std@@V?$allocator@U?$pair@$$CBHH@std@@@2@$0A@@std@@@1@@Z PROC ; std::_Tree_iterator<std::_Tree_val<std::_Tmap_traits<int,int,std::less<int>,std::allocator<std::pair<int const ,int> >,0> > >::_Tree_iterator<std::_Tree_val<std::_Tmap_traits<int,int,std::less<int>,std::allocator<std::pair<int const ,int> >,0> > >, COMDAT
; _this$ = ecx

; 378  : 		{	// construct with node pointer _Pnode

  00000	55		 push	 ebp
  00001	8b ec		 mov	 ebp, esp
  00003	8b c1		 mov	 eax, ecx
  00005	8b 4d 08	 mov	 ecx, DWORD PTR __Pnode$[ebp]
  00008	89 08		 mov	 DWORD PTR [eax], ecx

; 379  : 		}

  0000a	5d		 pop	 ebp
  0000b	c2 08 00	 ret	 8
??0?$_Tree_iterator@V?$_Tree_val@V?$_Tmap_traits@HHU?$less@H@std@@V?$allocator@U?$pair@$$CBHH@std@@@2@$0A@@std@@@std@@@std@@QAE@PAU_Node@?$_Tree_nod@V?$_Tmap_traits@HHU?$less@H@std@@V?$allocator@U?$pair@$$CBHH@std@@@2@$0A@@std@@@1@PBV?$_Tree_val@V?$_Tmap_traits@HHU?$less@H@std@@V?$allocator@U?$pair@$$CBHH@std@@@2@$0A@@std@@@1@@Z ENDP ; std::_Tree_iterator<std::_Tree_val<std::_Tmap_traits<int,int,std::less<int>,std::allocator<std::pair<int const ,int> >,0> > >::_Tree_iterator<std::_Tree_val<std::_Tmap_traits<int,int,std::less<int>,std::allocator<std::pair<int const ,int> >,0> > >
_TEXT	ENDS
PUBLIC	?begin@?$_Tree@V?$_Tmap_traits@HHU?$less@H@std@@V?$allocator@U?$pair@$$CBHH@std@@@2@$0A@@std@@@std@@QAE?AV?$_Tree_iterator@V?$_Tree_val@V?$_Tmap_traits@HHU?$less@H@std@@V?$allocator@U?$pair@$$CBHH@std@@@2@$0A@@std@@@std@@@2@XZ ; std::_Tree<std::_Tmap_traits<int,int,std::less<int>,std::allocator<std::pair<int const ,int> >,0> >::begin
; Function compile flags: /Ogtp
;	COMDAT ?begin@?$_Tree@V?$_Tmap_traits@HHU?$less@H@std@@V?$allocator@U?$pair@$$CBHH@std@@@2@$0A@@std@@@std@@QAE?AV?$_Tree_iterator@V?$_Tree_val@V?$_Tmap_traits@HHU?$less@H@std@@V?$allocator@U?$pair@$$CBHH@std@@@2@$0A@@std@@@std@@@2@XZ
_TEXT	SEGMENT
___$ReturnUdt$ = 8					; size = 4
?begin@?$_Tree@V?$_Tmap_traits@HHU?$less@H@std@@V?$allocator@U?$pair@$$CBHH@std@@@2@$0A@@std@@@std@@QAE?AV?$_Tree_iterator@V?$_Tree_val@V?$_Tmap_traits@HHU?$less@H@std@@V?$allocator@U?$pair@$$CBHH@std@@@2@$0A@@std@@@std@@@2@XZ PROC ; std::_Tree<std::_Tmap_traits<int,int,std::less<int>,std::allocator<std::pair<int const ,int> >,0> >::begin, COMDAT
; _this$ = ecx

; 806  : 		{	// return iterator for beginning of mutable sequence

  00000	55		 push	 ebp
  00001	8b ec		 mov	 ebp, esp

; 807  : 		return (iterator(_Lmost(), this));

  00003	8b 41 04	 mov	 eax, DWORD PTR [ecx+4]
  00006	8b 08		 mov	 ecx, DWORD PTR [eax]
  00008	8b 45 08	 mov	 eax, DWORD PTR ___$ReturnUdt$[ebp]
  0000b	89 08		 mov	 DWORD PTR [eax], ecx

; 808  : 		}

  0000d	5d		 pop	 ebp
  0000e	c2 04 00	 ret	 4
?begin@?$_Tree@V?$_Tmap_traits@HHU?$less@H@std@@V?$allocator@U?$pair@$$CBHH@std@@@2@$0A@@std@@@std@@QAE?AV?$_Tree_iterator@V?$_Tree_val@V?$_Tmap_traits@HHU?$less@H@std@@V?$allocator@U?$pair@$$CBHH@std@@@2@$0A@@std@@@std@@@2@XZ ENDP ; std::_Tree<std::_Tmap_traits<int,int,std::less<int>,std::allocator<std::pair<int const ,int> >,0> >::begin
_TEXT	ENDS
PUBLIC	??0?$_Tree_val@V?$_Tmap_traits@HHU?$less@H@std@@V?$allocator@U?$pair@$$CBHH@std@@@2@$0A@@std@@@std@@QAE@ABU?$less@H@1@V?$allocator@U?$pair@$$CBHH@std@@@1@@Z ; std::_Tree_val<std::_Tmap_traits<int,int,std::less<int>,std::allocator<std::pair<int const ,int> >,0> >::_Tree_val<std::_Tmap_traits<int,int,std::less<int>,std::allocator<std::pair<int const ,int> >,0> >
; Function compile flags: /Ogtp
;	COMDAT ??0?$_Tree_val@V?$_Tmap_traits@HHU?$less@H@std@@V?$allocator@U?$pair@$$CBHH@std@@@2@$0A@@std@@@std@@QAE@ABU?$less@H@1@V?$allocator@U?$pair@$$CBHH@std@@@1@@Z
_TEXT	SEGMENT
$T214902 = -16						; size = 12
$T214880 = -4						; size = 4
__Parg$ = 8						; size = 4
__Al$ = 12						; size = 1
??0?$_Tree_val@V?$_Tmap_traits@HHU?$less@H@std@@V?$allocator@U?$pair@$$CBHH@std@@@2@$0A@@std@@@std@@QAE@ABU?$less@H@1@V?$allocator@U?$pair@$$CBHH@std@@@1@@Z PROC ; std::_Tree_val<std::_Tmap_traits<int,int,std::less<int>,std::allocator<std::pair<int const ,int> >,0> >::_Tree_val<std::_Tmap_traits<int,int,std::less<int>,std::allocator<std::pair<int const ,int> >,0> >, COMDAT
; _this$ = ecx

; 542  : 		{	// construct base, and allocator from _Al

  00000	55		 push	 ebp
  00001	8b ec		 mov	 ebp, esp
  00003	83 ec 10	 sub	 esp, 16			; 00000010H
  00006	56		 push	 esi
  00007	8b f1		 mov	 esi, ecx

; 543  : 		this->_Mysize = 0;
; 544  : 		this->_Myhead = this->_Alnod.allocate(1);

  00009	6a 18		 push	 24			; 00000018H
  0000b	c7 46 08 00 00
	00 00		 mov	 DWORD PTR [esi+8], 0
  00012	e8 00 00 00 00	 call	 ??2@YAPAXI@Z		; operator new
  00017	83 c4 04	 add	 esp, 4
  0001a	85 c0		 test	 eax, eax
  0001c	74 28		 je	 SHORT $LN15@Tree_val
  0001e	89 46 04	 mov	 DWORD PTR [esi+4], eax

; 545  : 
; 546  : 		this->_Left(this->_Myhead) = this->_Myhead;

  00021	89 00		 mov	 DWORD PTR [eax], eax

; 547  : 		this->_Parent(this->_Myhead) = this->_Myhead;

  00023	8b 46 04	 mov	 eax, DWORD PTR [esi+4]
  00026	89 40 04	 mov	 DWORD PTR [eax+4], eax

; 548  : 		this->_Right(this->_Myhead) = this->_Myhead;

  00029	8b 46 04	 mov	 eax, DWORD PTR [esi+4]
  0002c	89 40 08	 mov	 DWORD PTR [eax+8], eax

; 549  : 		this->_Color(this->_Myhead) = this->_Black;

  0002f	8b 4e 04	 mov	 ecx, DWORD PTR [esi+4]
  00032	b0 01		 mov	 al, 1
  00034	88 41 14	 mov	 BYTE PTR [ecx+20], al

; 550  : 		this->_Isnil(this->_Myhead) = true;

  00037	8b 56 04	 mov	 edx, DWORD PTR [esi+4]
  0003a	88 42 15	 mov	 BYTE PTR [edx+21], al

; 551  : 		}

  0003d	8b c6		 mov	 eax, esi
  0003f	5e		 pop	 esi
  00040	8b e5		 mov	 esp, ebp
  00042	5d		 pop	 ebp
  00043	c2 08 00	 ret	 8

; 543  : 		this->_Mysize = 0;
; 544  : 		this->_Myhead = this->_Alnod.allocate(1);

$LN15@Tree_val:
  00046	8d 45 fc	 lea	 eax, DWORD PTR $T214880[ebp]
  00049	50		 push	 eax
  0004a	8d 4d f0	 lea	 ecx, DWORD PTR $T214902[ebp]
  0004d	c7 45 fc 00 00
	00 00		 mov	 DWORD PTR $T214880[ebp], 0
  00054	e8 00 00 00 00	 call	 ??0exception@std@@QAE@ABQBD@Z ; std::exception::exception
  00059	68 00 00 00 00	 push	 OFFSET __TI2?AVbad_alloc@std@@
  0005e	8d 4d f0	 lea	 ecx, DWORD PTR $T214902[ebp]
  00061	51		 push	 ecx
  00062	c7 45 f0 00 00
	00 00		 mov	 DWORD PTR $T214902[ebp], OFFSET ??_7bad_alloc@std@@6B@
  00069	e8 00 00 00 00	 call	 __CxxThrowException@8
$LN37@Tree_val:
$LN36@Tree_val:
  0006e	cc		 int	 3
??0?$_Tree_val@V?$_Tmap_traits@HHU?$less@H@std@@V?$allocator@U?$pair@$$CBHH@std@@@2@$0A@@std@@@std@@QAE@ABU?$less@H@1@V?$allocator@U?$pair@$$CBHH@std@@@1@@Z ENDP ; std::_Tree_val<std::_Tmap_traits<int,int,std::less<int>,std::allocator<std::pair<int const ,int> >,0> >::_Tree_val<std::_Tmap_traits<int,int,std::less<int>,std::allocator<std::pair<int const ,int> >,0> >
_TEXT	ENDS
PUBLIC	??_C@_0BM@PAPJHAGI@invalid?5map?1set?$DMT?$DO?5iterator?$AA@ ; `string'
PUBLIC	?erase@?$_Tree@V?$_Tmap_traits@HHU?$less@H@std@@V?$allocator@U?$pair@$$CBHH@std@@@2@$0A@@std@@@std@@QAE?AV?$_Tree_iterator@V?$_Tree_val@V?$_Tmap_traits@HHU?$less@H@std@@V?$allocator@U?$pair@$$CBHH@std@@@2@$0A@@std@@@std@@@2@V?$_Tree_const_iterator@V?$_Tree_val@V?$_Tmap_traits@HHU?$less@H@std@@V?$allocator@U?$pair@$$CBHH@std@@@2@$0A@@std@@@std@@@2@@Z ; std::_Tree<std::_Tmap_traits<int,int,std::less<int>,std::allocator<std::pair<int const ,int> >,0> >::erase
EXTRN	?_Xout_of_range@std@@YAXPBD@Z:PROC		; std::_Xout_of_range
;	COMDAT ??_C@_0BM@PAPJHAGI@invalid?5map?1set?$DMT?$DO?5iterator?$AA@
; File d:\program files (x86)\microsoft visual studio 10.0\vc\include\xutility
CONST	SEGMENT
??_C@_0BM@PAPJHAGI@invalid?5map?1set?$DMT?$DO?5iterator?$AA@ DB 'invalid '
	DB	'map/set<T> iterator', 00H			; `string'
; Function compile flags: /Ogtp
; File d:\program files (x86)\microsoft visual studio 10.0\vc\include\xtree
CONST	ENDS
;	COMDAT ?erase@?$_Tree@V?$_Tmap_traits@HHU?$less@H@std@@V?$allocator@U?$pair@$$CBHH@std@@@2@$0A@@std@@@std@@QAE?AV?$_Tree_iterator@V?$_Tree_val@V?$_Tmap_traits@HHU?$less@H@std@@V?$allocator@U?$pair@$$CBHH@std@@@2@$0A@@std@@@std@@@2@V?$_Tree_const_iterator@V?$_Tree_val@V?$_Tmap_traits@HHU?$less@H@std@@V?$allocator@U?$pair@$$CBHH@std@@@2@$0A@@std@@@std@@@2@@Z
_TEXT	SEGMENT
tv795 = -12						; size = 4
__Erasednode$ = -8					; size = 4
_this$ = -4						; size = 4
___$ReturnUdt$ = 8					; size = 4
__Where$ = 12						; size = 4
?erase@?$_Tree@V?$_Tmap_traits@HHU?$less@H@std@@V?$allocator@U?$pair@$$CBHH@std@@@2@$0A@@std@@@std@@QAE?AV?$_Tree_iterator@V?$_Tree_val@V?$_Tmap_traits@HHU?$less@H@std@@V?$allocator@U?$pair@$$CBHH@std@@@2@$0A@@std@@@std@@@2@V?$_Tree_const_iterator@V?$_Tree_val@V?$_Tmap_traits@HHU?$less@H@std@@V?$allocator@U?$pair@$$CBHH@std@@@2@$0A@@std@@@std@@@2@@Z PROC ; std::_Tree<std::_Tmap_traits<int,int,std::less<int>,std::allocator<std::pair<int const ,int> >,0> >::erase, COMDAT
; _this$ = ecx

; 1195 : 		{	// erase element at _Where

  00000	55		 push	 ebp
  00001	8b ec		 mov	 ebp, esp
  00003	83 ec 0c	 sub	 esp, 12			; 0000000cH
  00006	53		 push	 ebx

; 1196 :  #if _ITERATOR_DEBUG_LEVEL == 2
; 1197 : 		if (_Where._Getcont() != this || this->_Isnil(_Where._Mynode()))
; 1198 : 			_DEBUG_ERROR("map/set erase iterator outside range");
; 1199 : 		_Nodeptr _Erasednode = _Where._Mynode();	// node to erase
; 1200 : 		++_Where;	// save successor iterator for return
; 1201 : 		_Orphan_ptr(*this, _Erasednode);
; 1202 : 
; 1203 :  #else /* _ITERATOR_DEBUG_LEVEL == 2 */
; 1204 : 		if (this->_Isnil(_Where._Mynode()))

  00007	8b 5d 0c	 mov	 ebx, DWORD PTR __Where$[ebp]
  0000a	80 7b 15 00	 cmp	 BYTE PTR [ebx+21], 0
  0000e	56		 push	 esi
  0000f	57		 push	 edi
  00010	89 4d fc	 mov	 DWORD PTR _this$[ebp], ecx
  00013	74 0a		 je	 SHORT $LN40@erase

; 1205 : 			_Xout_of_range("invalid map/set<T> iterator");

  00015	68 00 00 00 00	 push	 OFFSET ??_C@_0BM@PAPJHAGI@invalid?5map?1set?$DMT?$DO?5iterator?$AA@
  0001a	e8 00 00 00 00	 call	 ?_Xout_of_range@std@@YAXPBD@Z ; std::_Xout_of_range
$LN295@erase:
$LN40@erase:

; 1206 : 		_Nodeptr _Erasednode = _Where._Mynode();	// node to erase
; 1207 : 		++_Where;	// save successor iterator for return

  0001f	8d 4d 0c	 lea	 ecx, DWORD PTR __Where$[ebp]
  00022	89 5d f8	 mov	 DWORD PTR __Erasednode$[ebp], ebx
  00025	e8 00 00 00 00	 call	 ??E?$_Tree_unchecked_const_iterator@V?$_Tree_val@V?$_Tmap_traits@HHU?$less@H@std@@V?$allocator@U?$pair@$$CBHH@std@@@2@$0A@@std@@@std@@U_Iterator_base0@2@@std@@QAEAAV01@XZ ; std::_Tree_unchecked_const_iterator<std::_Tree_val<std::_Tmap_traits<int,int,std::less<int>,std::allocator<std::pair<int const ,int> >,0> >,std::_Iterator_base0>::operator++

; 1208 :  #endif /* _ITERATOR_DEBUG_LEVEL == 2 */
; 1209 : 
; 1210 : 		_Nodeptr _Fixnode;	// the node to recolor as needed
; 1211 : 		_Nodeptr _Fixnodeparent;	// parent of _Fixnode (which may be nil)
; 1212 : 		_Nodeptr _Pnode = _Erasednode;
; 1213 : 
; 1214 : 		if (this->_Isnil(this->_Left(_Pnode)))

  0002a	8b 0b		 mov	 ecx, DWORD PTR [ebx]
  0002c	80 79 15 00	 cmp	 BYTE PTR [ecx+21], 0
  00030	74 05		 je	 SHORT $LN39@erase

; 1215 : 			_Fixnode = this->_Right(_Pnode);	// stitch up right subtree

  00032	8b 7b 08	 mov	 edi, DWORD PTR [ebx+8]

; 1216 : 		else if (this->_Isnil(this->_Right(_Pnode)))

  00035	eb 17		 jmp	 SHORT $LN291@erase
$LN39@erase:
  00037	8b 43 08	 mov	 eax, DWORD PTR [ebx+8]
  0003a	80 78 15 00	 cmp	 BYTE PTR [eax+21], 0
  0003e	74 04		 je	 SHORT $LN37@erase

; 1217 : 			_Fixnode = this->_Left(_Pnode);	// stitch up left subtree

  00040	8b f9		 mov	 edi, ecx

; 1218 : 		else

  00042	eb 0a		 jmp	 SHORT $LN291@erase
$LN37@erase:

; 1219 : 			{	// two subtrees, must lift successor node to replace erased
; 1220 : 			_Pnode = _Where._Mynode();	// _Pnode is successor node

  00044	8b 45 0c	 mov	 eax, DWORD PTR __Where$[ebp]

; 1221 : 			_Fixnode = this->_Right(_Pnode);	// _Fixnode is only subtree

  00047	8b 78 08	 mov	 edi, DWORD PTR [eax+8]

; 1222 : 			}
; 1223 : 
; 1224 : 		if (_Pnode == _Erasednode)

  0004a	3b c3		 cmp	 eax, ebx
  0004c	75 72		 jne	 SHORT $LN35@erase
$LN291@erase:

; 1225 : 			{	// at most one subtree, relink it
; 1226 : 			_Fixnodeparent = this->_Parent(_Erasednode);
; 1227 : 			if (!this->_Isnil(_Fixnode))

  0004e	80 7f 15 00	 cmp	 BYTE PTR [edi+21], 0
  00052	8b 73 04	 mov	 esi, DWORD PTR [ebx+4]
  00055	75 03		 jne	 SHORT $LN34@erase

; 1228 : 				this->_Parent(_Fixnode) = _Fixnodeparent;	// link up

  00057	89 77 04	 mov	 DWORD PTR [edi+4], esi
$LN34@erase:

; 1229 : 
; 1230 : 			if (_Root() == _Erasednode)

  0005a	8b 4d fc	 mov	 ecx, DWORD PTR _this$[ebp]
  0005d	8b 41 04	 mov	 eax, DWORD PTR [ecx+4]
  00060	39 58 04	 cmp	 DWORD PTR [eax+4], ebx
  00063	75 05		 jne	 SHORT $LN33@erase

; 1231 : 				_Root() = _Fixnode;	// link down from root

  00065	89 78 04	 mov	 DWORD PTR [eax+4], edi

; 1232 : 			else if (this->_Left(_Fixnodeparent) == _Erasednode)

  00068	eb 0b		 jmp	 SHORT $LN30@erase
$LN33@erase:
  0006a	39 1e		 cmp	 DWORD PTR [esi], ebx
  0006c	75 04		 jne	 SHORT $LN31@erase

; 1233 : 				this->_Left(_Fixnodeparent) = _Fixnode;	// link down to left

  0006e	89 3e		 mov	 DWORD PTR [esi], edi

; 1234 : 			else

  00070	eb 03		 jmp	 SHORT $LN30@erase
$LN31@erase:

; 1235 : 				this->_Right(_Fixnodeparent) =
; 1236 : 					_Fixnode;	// link down to right

  00072	89 7e 08	 mov	 DWORD PTR [esi+8], edi
$LN30@erase:

; 1237 : 
; 1238 : 			if (_Lmost() == _Erasednode)

  00075	8b 41 04	 mov	 eax, DWORD PTR [ecx+4]
  00078	39 18		 cmp	 DWORD PTR [eax], ebx
  0007a	75 1b		 jne	 SHORT $LN29@erase

; 1239 : 				_Lmost() = this->_Isnil(_Fixnode)
; 1240 : 					? _Fixnodeparent	// smallest is parent of erased node
; 1241 : 					: this->_Min(_Fixnode);	// smallest in relinked subtree

  0007c	80 7f 15 00	 cmp	 BYTE PTR [edi+21], 0
  00080	74 04		 je	 SHORT $LN43@erase
  00082	8b c6		 mov	 eax, esi
  00084	eb 0c		 jmp	 SHORT $LN44@erase
$LN43@erase:
  00086	57		 push	 edi
  00087	e8 00 00 00 00	 call	 ?_Min@?$_Tree_val@V?$_Tmap_traits@HHU?$less@H@std@@V?$allocator@U?$pair@$$CBHH@std@@@2@$0A@@std@@@std@@SAPAU_Node@?$_Tree_nod@V?$_Tmap_traits@HHU?$less@H@std@@V?$allocator@U?$pair@$$CBHH@std@@@2@$0A@@std@@@2@PAU342@@Z ; std::_Tree_val<std::_Tmap_traits<int,int,std::less<int>,std::allocator<std::pair<int const ,int> >,0> >::_Min
  0008c	8b 4d fc	 mov	 ecx, DWORD PTR _this$[ebp]
  0008f	83 c4 04	 add	 esp, 4
$LN44@erase:
  00092	8b 51 04	 mov	 edx, DWORD PTR [ecx+4]
  00095	89 02		 mov	 DWORD PTR [edx], eax
$LN29@erase:

; 1242 : 
; 1243 : 			if (_Rmost() == _Erasednode)

  00097	8b 49 04	 mov	 ecx, DWORD PTR [ecx+4]
  0009a	89 4d f4	 mov	 DWORD PTR tv795[ebp], ecx
  0009d	39 59 08	 cmp	 DWORD PTR [ecx+8], ebx
  000a0	75 78		 jne	 SHORT $LN165@erase

; 1244 : 				_Rmost() = this->_Isnil(_Fixnode)
; 1245 : 					? _Fixnodeparent	// largest is parent of erased node
; 1246 : 					: this->_Max(_Fixnode);	// largest in relinked subtree

  000a2	80 7f 15 00	 cmp	 BYTE PTR [edi+21], 0
  000a6	74 07		 je	 SHORT $LN45@erase
  000a8	8b c6		 mov	 eax, esi
  000aa	89 41 08	 mov	 DWORD PTR [ecx+8], eax

; 1247 : 			}
; 1248 : 		else

  000ad	eb 6b		 jmp	 SHORT $LN165@erase
$LN45@erase:

; 1244 : 				_Rmost() = this->_Isnil(_Fixnode)
; 1245 : 					? _Fixnodeparent	// largest is parent of erased node
; 1246 : 					: this->_Max(_Fixnode);	// largest in relinked subtree

  000af	57		 push	 edi
  000b0	e8 00 00 00 00	 call	 ?_Max@?$_Tree_val@V?$_Tmap_traits@HHU?$less@H@std@@V?$allocator@U?$pair@$$CBHH@std@@@2@$0A@@std@@@std@@SAPAU_Node@?$_Tree_nod@V?$_Tmap_traits@HHU?$less@H@std@@V?$allocator@U?$pair@$$CBHH@std@@@2@$0A@@std@@@2@PAU342@@Z ; std::_Tree_val<std::_Tmap_traits<int,int,std::less<int>,std::allocator<std::pair<int const ,int> >,0> >::_Max
  000b5	8b 4d f4	 mov	 ecx, DWORD PTR tv795[ebp]
  000b8	83 c4 04	 add	 esp, 4
  000bb	89 41 08	 mov	 DWORD PTR [ecx+8], eax

; 1247 : 			}
; 1248 : 		else

  000be	eb 5a		 jmp	 SHORT $LN165@erase
$LN35@erase:

; 1249 : 			{	// erased has two subtrees, _Pnode is successor to erased
; 1250 : 			this->_Parent(this->_Left(_Erasednode)) =
; 1251 : 				_Pnode;	// link left up

  000c0	89 41 04	 mov	 DWORD PTR [ecx+4], eax

; 1252 : 			this->_Left(_Pnode) =
; 1253 : 				this->_Left(_Erasednode);	// link successor down

  000c3	8b 0b		 mov	 ecx, DWORD PTR [ebx]
  000c5	89 08		 mov	 DWORD PTR [eax], ecx

; 1254 : 
; 1255 : 			if (_Pnode == this->_Right(_Erasednode))

  000c7	3b 43 08	 cmp	 eax, DWORD PTR [ebx+8]
  000ca	75 04		 jne	 SHORT $LN26@erase

; 1256 : 				_Fixnodeparent = _Pnode;	// successor is next to erased

  000cc	8b f0		 mov	 esi, eax

; 1257 : 			else

  000ce	eb 1a		 jmp	 SHORT $LN25@erase
$LN26@erase:

; 1258 : 				{	// successor further down, link in place of erased
; 1259 : 				_Fixnodeparent =
; 1260 : 					this->_Parent(_Pnode);	// parent is successor's
; 1261 : 				if (!this->_Isnil(_Fixnode))

  000d0	80 7f 15 00	 cmp	 BYTE PTR [edi+21], 0
  000d4	8b 70 04	 mov	 esi, DWORD PTR [eax+4]
  000d7	75 03		 jne	 SHORT $LN24@erase

; 1262 : 					this->_Parent(_Fixnode) = _Fixnodeparent;	// link fix up

  000d9	89 77 04	 mov	 DWORD PTR [edi+4], esi
$LN24@erase:

; 1263 : 				this->_Left(_Fixnodeparent) = _Fixnode;	// link fix down

  000dc	89 3e		 mov	 DWORD PTR [esi], edi

; 1264 : 				this->_Right(_Pnode) =
; 1265 : 					this->_Right(_Erasednode);	// link next down

  000de	8b 4b 08	 mov	 ecx, DWORD PTR [ebx+8]
  000e1	89 48 08	 mov	 DWORD PTR [eax+8], ecx

; 1266 : 				this->_Parent(this->_Right(_Erasednode)) =
; 1267 : 					_Pnode;	// right up

  000e4	8b 53 08	 mov	 edx, DWORD PTR [ebx+8]
  000e7	89 42 04	 mov	 DWORD PTR [edx+4], eax
$LN25@erase:

; 1268 : 				}
; 1269 : 
; 1270 : 			if (_Root() == _Erasednode)

  000ea	8b 4d fc	 mov	 ecx, DWORD PTR _this$[ebp]
  000ed	8b 49 04	 mov	 ecx, DWORD PTR [ecx+4]
  000f0	39 59 04	 cmp	 DWORD PTR [ecx+4], ebx
  000f3	75 05		 jne	 SHORT $LN23@erase

; 1271 : 				_Root() = _Pnode;	// link down from root

  000f5	89 41 04	 mov	 DWORD PTR [ecx+4], eax

; 1272 : 			else if (this->_Left(this->_Parent(_Erasednode)) == _Erasednode)

  000f8	eb 0e		 jmp	 SHORT $LN20@erase
$LN23@erase:
  000fa	8b 4b 04	 mov	 ecx, DWORD PTR [ebx+4]
  000fd	39 19		 cmp	 DWORD PTR [ecx], ebx
  000ff	75 04		 jne	 SHORT $LN21@erase

; 1273 : 				this->_Left(this->_Parent(_Erasednode)) =
; 1274 : 					_Pnode;	// link down to left

  00101	89 01		 mov	 DWORD PTR [ecx], eax

; 1275 : 			else

  00103	eb 03		 jmp	 SHORT $LN20@erase
$LN21@erase:

; 1276 : 				this->_Right(this->_Parent(_Erasednode)) =
; 1277 : 					_Pnode;	// link down to right

  00105	89 41 08	 mov	 DWORD PTR [ecx+8], eax
$LN20@erase:

; 1278 : 
; 1279 : 			this->_Parent(_Pnode) =
; 1280 : 				this->_Parent(_Erasednode);	// link successor up

  00108	8b 53 04	 mov	 edx, DWORD PTR [ebx+4]
  0010b	89 50 04	 mov	 DWORD PTR [eax+4], edx

; 1281 : 			_STD swap(this->_Color(_Pnode),
; 1282 : 				this->_Color(_Erasednode));	// recolor it

  0010e	8a 53 14	 mov	 dl, BYTE PTR [ebx+20]
  00111	8a 48 14	 mov	 cl, BYTE PTR [eax+20]
  00114	88 50 14	 mov	 BYTE PTR [eax+20], dl
  00117	88 4b 14	 mov	 BYTE PTR [ebx+20], cl
$LN165@erase:

; 1283 : 			}
; 1284 : 
; 1285 : 		if (this->_Color(_Erasednode) == this->_Black)

  0011a	8b 45 f8	 mov	 eax, DWORD PTR __Erasednode$[ebp]
  0011d	b3 01		 mov	 bl, 1
  0011f	38 58 14	 cmp	 BYTE PTR [eax+20], bl
  00122	0f 85 fa 00 00
	00		 jne	 $LN19@erase

; 1286 : 			{	// erasing black link, must recolor/rebalance tree
; 1287 : 			for (; _Fixnode != _Root()
; 1288 : 				&& this->_Color(_Fixnode) == this->_Black;
; 1289 : 				_Fixnodeparent = this->_Parent(_Fixnode))

  00128	8b 4d fc	 mov	 ecx, DWORD PTR _this$[ebp]
  0012b	8b 51 04	 mov	 edx, DWORD PTR [ecx+4]
  0012e	3b 7a 04	 cmp	 edi, DWORD PTR [edx+4]
  00131	0f 84 e8 00 00
	00		 je	 $LN16@erase
$LL18@erase:
  00137	38 5f 14	 cmp	 BYTE PTR [edi+20], bl
  0013a	0f 85 df 00 00
	00		 jne	 $LN16@erase

; 1290 : 				if (_Fixnode == this->_Left(_Fixnodeparent))

  00140	8b 06		 mov	 eax, DWORD PTR [esi]
  00142	3b f8		 cmp	 edi, eax
  00144	75 65		 jne	 SHORT $LN15@erase

; 1291 : 					{	// fixup left subtree
; 1292 : 					_Pnode = this->_Right(_Fixnodeparent);

  00146	8b 46 08	 mov	 eax, DWORD PTR [esi+8]

; 1293 : 					if (this->_Color(_Pnode) == this->_Red)

  00149	80 78 14 00	 cmp	 BYTE PTR [eax+20], 0
  0014d	75 13		 jne	 SHORT $LN14@erase

; 1294 : 						{	// rotate red up from right subtree
; 1295 : 						this->_Color(_Pnode) = this->_Black;

  0014f	88 58 14	 mov	 BYTE PTR [eax+20], bl

; 1296 : 						this->_Color(_Fixnodeparent) = this->_Red;
; 1297 : 						_Lrotate(_Fixnodeparent);

  00152	56		 push	 esi
  00153	c6 46 14 00	 mov	 BYTE PTR [esi+20], 0
  00157	e8 00 00 00 00	 call	 ?_Lrotate@?$_Tree@V?$_Tmap_traits@HHU?$less@H@std@@V?$allocator@U?$pair@$$CBHH@std@@@2@$0A@@std@@@std@@IAEXPAU_Node@?$_Tree_nod@V?$_Tmap_traits@HHU?$less@H@std@@V?$allocator@U?$pair@$$CBHH@std@@@2@$0A@@std@@@2@@Z ; std::_Tree<std::_Tmap_traits<int,int,std::less<int>,std::allocator<std::pair<int const ,int> >,0> >::_Lrotate

; 1298 : 						_Pnode = this->_Right(_Fixnodeparent);

  0015c	8b 46 08	 mov	 eax, DWORD PTR [esi+8]
  0015f	8b 4d fc	 mov	 ecx, DWORD PTR _this$[ebp]
$LN14@erase:

; 1299 : 						}
; 1300 : 
; 1301 : 					if (this->_Isnil(_Pnode))

  00162	80 78 15 00	 cmp	 BYTE PTR [eax+21], 0

; 1302 : 						_Fixnode = _Fixnodeparent;	// shouldn't happen
; 1303 : 					else if (this->_Color(this->_Left(_Pnode)) == this->_Black

  00166	75 74		 jne	 SHORT $LN293@erase

; 1304 : 						&& this->_Color(this->_Right(_Pnode)) == this->_Black)

  00168	8b 10		 mov	 edx, DWORD PTR [eax]
  0016a	38 5a 14	 cmp	 BYTE PTR [edx+20], bl
  0016d	75 08		 jne	 SHORT $LN11@erase
  0016f	8b 50 08	 mov	 edx, DWORD PTR [eax+8]
  00172	38 5a 14	 cmp	 BYTE PTR [edx+20], bl
  00175	74 61		 je	 SHORT $LN294@erase
$LN11@erase:

; 1305 : 						{	// redden right subtree with black children
; 1306 : 						this->_Color(_Pnode) = this->_Red;
; 1307 : 						_Fixnode = _Fixnodeparent;
; 1308 : 						}
; 1309 : 					else
; 1310 : 						{	// must rearrange right subtree
; 1311 : 						if (this->_Color(this->_Right(_Pnode))
; 1312 : 							== this->_Black)

  00177	8b 50 08	 mov	 edx, DWORD PTR [eax+8]
  0017a	38 5a 14	 cmp	 BYTE PTR [edx+20], bl
  0017d	75 15		 jne	 SHORT $LN9@erase

; 1313 : 							{	// rotate red up from left sub-subtree
; 1314 : 							this->_Color(this->_Left(_Pnode)) = this->_Black;

  0017f	8b 10		 mov	 edx, DWORD PTR [eax]
  00181	88 5a 14	 mov	 BYTE PTR [edx+20], bl

; 1315 : 							this->_Color(_Pnode) = this->_Red;
; 1316 : 							_Rrotate(_Pnode);

  00184	50		 push	 eax
  00185	c6 40 14 00	 mov	 BYTE PTR [eax+20], 0
  00189	e8 00 00 00 00	 call	 ?_Rrotate@?$_Tree@V?$_Tmap_traits@HHU?$less@H@std@@V?$allocator@U?$pair@$$CBHH@std@@@2@$0A@@std@@@std@@IAEXPAU_Node@?$_Tree_nod@V?$_Tmap_traits@HHU?$less@H@std@@V?$allocator@U?$pair@$$CBHH@std@@@2@$0A@@std@@@2@@Z ; std::_Tree<std::_Tmap_traits<int,int,std::less<int>,std::allocator<std::pair<int const ,int> >,0> >::_Rrotate

; 1317 : 							_Pnode = this->_Right(_Fixnodeparent);

  0018e	8b 46 08	 mov	 eax, DWORD PTR [esi+8]
  00191	8b 4d fc	 mov	 ecx, DWORD PTR _this$[ebp]
$LN9@erase:

; 1318 : 							}
; 1319 : 
; 1320 : 						this->_Color(_Pnode) = this->_Color(_Fixnodeparent);

  00194	8a 56 14	 mov	 dl, BYTE PTR [esi+20]
  00197	88 50 14	 mov	 BYTE PTR [eax+20], dl

; 1321 : 						this->_Color(_Fixnodeparent) = this->_Black;

  0019a	88 5e 14	 mov	 BYTE PTR [esi+20], bl

; 1322 : 						this->_Color(this->_Right(_Pnode)) = this->_Black;

  0019d	8b 40 08	 mov	 eax, DWORD PTR [eax+8]

; 1323 : 						_Lrotate(_Fixnodeparent);

  001a0	56		 push	 esi
  001a1	88 58 14	 mov	 BYTE PTR [eax+20], bl
  001a4	e8 00 00 00 00	 call	 ?_Lrotate@?$_Tree@V?$_Tmap_traits@HHU?$less@H@std@@V?$allocator@U?$pair@$$CBHH@std@@@2@$0A@@std@@@std@@IAEXPAU_Node@?$_Tree_nod@V?$_Tmap_traits@HHU?$less@H@std@@V?$allocator@U?$pair@$$CBHH@std@@@2@$0A@@std@@@2@@Z ; std::_Tree<std::_Tmap_traits<int,int,std::less<int>,std::allocator<std::pair<int const ,int> >,0> >::_Lrotate

; 1324 : 						break;	// tree now recolored/rebalanced

  001a9	eb 74		 jmp	 SHORT $LN16@erase
$LN15@erase:

; 1325 : 						}
; 1326 : 					}
; 1327 : 				else
; 1328 : 					{	// fixup right subtree
; 1329 : 					_Pnode = this->_Left(_Fixnodeparent);
; 1330 : 					if (this->_Color(_Pnode) == this->_Red)

  001ab	80 78 14 00	 cmp	 BYTE PTR [eax+20], 0
  001af	75 12		 jne	 SHORT $LN7@erase

; 1331 : 						{	// rotate red up from left subtree
; 1332 : 						this->_Color(_Pnode) = this->_Black;

  001b1	88 58 14	 mov	 BYTE PTR [eax+20], bl

; 1333 : 						this->_Color(_Fixnodeparent) = this->_Red;
; 1334 : 						_Rrotate(_Fixnodeparent);

  001b4	56		 push	 esi
  001b5	c6 46 14 00	 mov	 BYTE PTR [esi+20], 0
  001b9	e8 00 00 00 00	 call	 ?_Rrotate@?$_Tree@V?$_Tmap_traits@HHU?$less@H@std@@V?$allocator@U?$pair@$$CBHH@std@@@2@$0A@@std@@@std@@IAEXPAU_Node@?$_Tree_nod@V?$_Tmap_traits@HHU?$less@H@std@@V?$allocator@U?$pair@$$CBHH@std@@@2@$0A@@std@@@2@@Z ; std::_Tree<std::_Tmap_traits<int,int,std::less<int>,std::allocator<std::pair<int const ,int> >,0> >::_Rrotate

; 1335 : 						_Pnode = this->_Left(_Fixnodeparent);

  001be	8b 06		 mov	 eax, DWORD PTR [esi]
  001c0	8b 4d fc	 mov	 ecx, DWORD PTR _this$[ebp]
$LN7@erase:

; 1336 : 						}
; 1337 : 					if (this->_Isnil(_Pnode))

  001c3	80 78 15 00	 cmp	 BYTE PTR [eax+21], 0

; 1338 : 						_Fixnode = _Fixnodeparent;	// shouldn't happen
; 1339 : 					else if (this->_Color(this->_Right(_Pnode)) ==

  001c7	75 13		 jne	 SHORT $LN293@erase

; 1340 : 						this->_Black
; 1341 : 						&& this->_Color(this->_Left(_Pnode)) == this->_Black)

  001c9	8b 50 08	 mov	 edx, DWORD PTR [eax+8]
  001cc	38 5a 14	 cmp	 BYTE PTR [edx+20], bl
  001cf	75 1e		 jne	 SHORT $LN4@erase
  001d1	8b 10		 mov	 edx, DWORD PTR [eax]
  001d3	38 5a 14	 cmp	 BYTE PTR [edx+20], bl
  001d6	75 17		 jne	 SHORT $LN4@erase
$LN294@erase:

; 1342 : 						{	// redden left subtree with black children
; 1343 : 						this->_Color(_Pnode) = this->_Red;

  001d8	c6 40 14 00	 mov	 BYTE PTR [eax+20], 0
$LN293@erase:

; 1286 : 			{	// erasing black link, must recolor/rebalance tree
; 1287 : 			for (; _Fixnode != _Root()
; 1288 : 				&& this->_Color(_Fixnode) == this->_Black;
; 1289 : 				_Fixnodeparent = this->_Parent(_Fixnode))

  001dc	8b 41 04	 mov	 eax, DWORD PTR [ecx+4]

; 1344 : 						_Fixnode = _Fixnodeparent;

  001df	8b fe		 mov	 edi, esi
  001e1	8b 76 04	 mov	 esi, DWORD PTR [esi+4]
  001e4	3b 78 04	 cmp	 edi, DWORD PTR [eax+4]
  001e7	0f 85 4a ff ff
	ff		 jne	 $LL18@erase

; 1286 : 			{	// erasing black link, must recolor/rebalance tree
; 1287 : 			for (; _Fixnode != _Root()
; 1288 : 				&& this->_Color(_Fixnode) == this->_Black;
; 1289 : 				_Fixnodeparent = this->_Parent(_Fixnode))

  001ed	eb 30		 jmp	 SHORT $LN16@erase
$LN4@erase:

; 1345 : 						}
; 1346 : 					else
; 1347 : 						{	// must rearrange left subtree
; 1348 : 						if (this->_Color(this->_Left(_Pnode)) == this->_Black)

  001ef	8b 10		 mov	 edx, DWORD PTR [eax]
  001f1	38 5a 14	 cmp	 BYTE PTR [edx+20], bl
  001f4	75 15		 jne	 SHORT $LN2@erase

; 1349 : 							{	// rotate red up from right sub-subtree
; 1350 : 							this->_Color(this->_Right(_Pnode)) = this->_Black;

  001f6	8b 50 08	 mov	 edx, DWORD PTR [eax+8]
  001f9	88 5a 14	 mov	 BYTE PTR [edx+20], bl

; 1351 : 							this->_Color(_Pnode) = this->_Red;
; 1352 : 							_Lrotate(_Pnode);

  001fc	50		 push	 eax
  001fd	c6 40 14 00	 mov	 BYTE PTR [eax+20], 0
  00201	e8 00 00 00 00	 call	 ?_Lrotate@?$_Tree@V?$_Tmap_traits@HHU?$less@H@std@@V?$allocator@U?$pair@$$CBHH@std@@@2@$0A@@std@@@std@@IAEXPAU_Node@?$_Tree_nod@V?$_Tmap_traits@HHU?$less@H@std@@V?$allocator@U?$pair@$$CBHH@std@@@2@$0A@@std@@@2@@Z ; std::_Tree<std::_Tmap_traits<int,int,std::less<int>,std::allocator<std::pair<int const ,int> >,0> >::_Lrotate

; 1353 : 							_Pnode = this->_Left(_Fixnodeparent);

  00206	8b 06		 mov	 eax, DWORD PTR [esi]
  00208	8b 4d fc	 mov	 ecx, DWORD PTR _this$[ebp]
$LN2@erase:

; 1354 : 							}
; 1355 : 
; 1356 : 						this->_Color(_Pnode) = this->_Color(_Fixnodeparent);

  0020b	8a 56 14	 mov	 dl, BYTE PTR [esi+20]
  0020e	88 50 14	 mov	 BYTE PTR [eax+20], dl

; 1357 : 						this->_Color(_Fixnodeparent) = this->_Black;

  00211	88 5e 14	 mov	 BYTE PTR [esi+20], bl

; 1358 : 						this->_Color(this->_Left(_Pnode)) = this->_Black;

  00214	8b 00		 mov	 eax, DWORD PTR [eax]

; 1359 : 						_Rrotate(_Fixnodeparent);

  00216	56		 push	 esi
  00217	88 58 14	 mov	 BYTE PTR [eax+20], bl
  0021a	e8 00 00 00 00	 call	 ?_Rrotate@?$_Tree@V?$_Tmap_traits@HHU?$less@H@std@@V?$allocator@U?$pair@$$CBHH@std@@@2@$0A@@std@@@std@@IAEXPAU_Node@?$_Tree_nod@V?$_Tmap_traits@HHU?$less@H@std@@V?$allocator@U?$pair@$$CBHH@std@@@2@$0A@@std@@@2@@Z ; std::_Tree<std::_Tmap_traits<int,int,std::less<int>,std::allocator<std::pair<int const ,int> >,0> >::_Rrotate
$LN16@erase:

; 1360 : 						break;	// tree now recolored/rebalanced
; 1361 : 						}
; 1362 : 					}
; 1363 : 
; 1364 : 			this->_Color(_Fixnode) = this->_Black;	// stopping node is black

  0021f	88 5f 14	 mov	 BYTE PTR [edi+20], bl
$LN19@erase:

; 1365 : 			}
; 1366 : 
; 1367 : 		_Dest_val(this->_Alval,
; 1368 : 			_STD addressof(this->_Myval(_Erasednode)));	// delete erased node
; 1369 : 
; 1370 : 		this->_Alnod.deallocate(_Erasednode, 1);

  00222	8b 4d f8	 mov	 ecx, DWORD PTR __Erasednode$[ebp]
  00225	51		 push	 ecx
  00226	e8 00 00 00 00	 call	 ??3@YAXPAX@Z		; operator delete

; 1371 : 
; 1372 : 		if (0 < this->_Mysize)

  0022b	8b 4d fc	 mov	 ecx, DWORD PTR _this$[ebp]
  0022e	8b 41 08	 mov	 eax, DWORD PTR [ecx+8]
  00231	83 c4 04	 add	 esp, 4
  00234	5f		 pop	 edi
  00235	5e		 pop	 esi
  00236	5b		 pop	 ebx
  00237	85 c0		 test	 eax, eax
  00239	74 04		 je	 SHORT $LN1@erase

; 1373 : 			--this->_Mysize;

  0023b	48		 dec	 eax
  0023c	89 41 08	 mov	 DWORD PTR [ecx+8], eax
$LN1@erase:

; 1374 : 
; 1375 : 		return (iterator(_Where._Ptr, this));	// return successor iterator

  0023f	8b 45 08	 mov	 eax, DWORD PTR ___$ReturnUdt$[ebp]
  00242	8b 55 0c	 mov	 edx, DWORD PTR __Where$[ebp]
  00245	89 10		 mov	 DWORD PTR [eax], edx

; 1376 : 		}

  00247	8b e5		 mov	 esp, ebp
  00249	5d		 pop	 ebp
  0024a	c2 08 00	 ret	 8
$LN292@erase:
?erase@?$_Tree@V?$_Tmap_traits@HHU?$less@H@std@@V?$allocator@U?$pair@$$CBHH@std@@@2@$0A@@std@@@std@@QAE?AV?$_Tree_iterator@V?$_Tree_val@V?$_Tmap_traits@HHU?$less@H@std@@V?$allocator@U?$pair@$$CBHH@std@@@2@$0A@@std@@@std@@@2@V?$_Tree_const_iterator@V?$_Tree_val@V?$_Tmap_traits@HHU?$less@H@std@@V?$allocator@U?$pair@$$CBHH@std@@@2@$0A@@std@@@std@@@2@@Z ENDP ; std::_Tree<std::_Tmap_traits<int,int,std::less<int>,std::allocator<std::pair<int const ,int> >,0> >::erase
_TEXT	ENDS
PUBLIC	??_C@_0BE@JONHPENG@map?1set?$DMT?$DO?5too?5long?$AA@ ; `string'
PUBLIC	?_Insert@?$_Tree@V?$_Tmap_traits@HHU?$less@H@std@@V?$allocator@U?$pair@$$CBHH@std@@@2@$0A@@std@@@std@@IAE?AV?$_Tree_iterator@V?$_Tree_val@V?$_Tmap_traits@HHU?$less@H@std@@V?$allocator@U?$pair@$$CBHH@std@@@2@$0A@@std@@@std@@@2@_NPAU_Node@?$_Tree_nod@V?$_Tmap_traits@HHU?$less@H@std@@V?$allocator@U?$pair@$$CBHH@std@@@2@$0A@@std@@@2@1@Z ; std::_Tree<std::_Tmap_traits<int,int,std::less<int>,std::allocator<std::pair<int const ,int> >,0> >::_Insert
EXTRN	?_Xlength_error@std@@YAXPBD@Z:PROC		; std::_Xlength_error
;	COMDAT ??_C@_0BE@JONHPENG@map?1set?$DMT?$DO?5too?5long?$AA@
; File d:\program files (x86)\microsoft visual studio 10.0\vc\include\xutility
CONST	SEGMENT
??_C@_0BE@JONHPENG@map?1set?$DMT?$DO?5too?5long?$AA@ DB 'map/set<T> too l'
	DB	'ong', 00H					; `string'
; Function compile flags: /Ogtp
; File d:\program files (x86)\microsoft visual studio 10.0\vc\include\xtree
CONST	ENDS
;	COMDAT ?_Insert@?$_Tree@V?$_Tmap_traits@HHU?$less@H@std@@V?$allocator@U?$pair@$$CBHH@std@@@2@$0A@@std@@@std@@IAE?AV?$_Tree_iterator@V?$_Tree_val@V?$_Tmap_traits@HHU?$less@H@std@@V?$allocator@U?$pair@$$CBHH@std@@@2@$0A@@std@@@std@@@2@_NPAU_Node@?$_Tree_nod@V?$_Tmap_traits@HHU?$less@H@std@@V?$allocator@U?$pair@$$CBHH@std@@@2@$0A@@std@@@2@1@Z
_TEXT	SEGMENT
___$ReturnUdt$ = 8					; size = 4
__Addleft$ = 12						; size = 1
__Wherenode$ = 16					; size = 4
__Newnode$ = 20						; size = 4
?_Insert@?$_Tree@V?$_Tmap_traits@HHU?$less@H@std@@V?$allocator@U?$pair@$$CBHH@std@@@2@$0A@@std@@@std@@IAE?AV?$_Tree_iterator@V?$_Tree_val@V?$_Tmap_traits@HHU?$less@H@std@@V?$allocator@U?$pair@$$CBHH@std@@@2@$0A@@std@@@std@@@2@_NPAU_Node@?$_Tree_nod@V?$_Tmap_traits@HHU?$less@H@std@@V?$allocator@U?$pair@$$CBHH@std@@@2@$0A@@std@@@2@1@Z PROC ; std::_Tree<std::_Tmap_traits<int,int,std::less<int>,std::allocator<std::pair<int const ,int> >,0> >::_Insert, COMDAT
; _this$ = ecx

; 1631 : 		{	// add node with value next to _Wherenode, to left if _Addleft

  00000	55		 push	 ebp
  00001	8b ec		 mov	 ebp, esp

; 1632 : 		if (max_size() - 1 <= this->_Mysize)

  00003	8b 41 08	 mov	 eax, DWORD PTR [ecx+8]
  00006	3d fe ff ff 1f	 cmp	 eax, 536870910		; 1ffffffeH
  0000b	72 16		 jb	 SHORT $LN17@Insert

; 1633 : 			{	// tree would get too big, fail
; 1634 : 			_Dest_val(this->_Alval,
; 1635 : 				_STD addressof(this->_Myval(_Newnode)));
; 1636 : 
; 1637 : 			this->_Alnod.deallocate(_Newnode, 1);

  0000d	8b 45 14	 mov	 eax, DWORD PTR __Newnode$[ebp]
  00010	50		 push	 eax
  00011	e8 00 00 00 00	 call	 ??3@YAXPAX@Z		; operator delete
  00016	83 c4 04	 add	 esp, 4

; 1638 : 
; 1639 : 			_Xlength_error("map/set<T> too long");

  00019	68 00 00 00 00	 push	 OFFSET ??_C@_0BE@JONHPENG@map?1set?$DMT?$DO?5too?5long?$AA@
  0001e	e8 00 00 00 00	 call	 ?_Xlength_error@std@@YAXPBD@Z ; std::_Xlength_error
$LN377@Insert:
$LN17@Insert:

; 1640 : 			}
; 1641 : 		++this->_Mysize;

  00023	40		 inc	 eax
  00024	53		 push	 ebx
  00025	89 41 08	 mov	 DWORD PTR [ecx+8], eax

; 1642 : 		_Newnode->_Parent = _Wherenode;

  00028	8b 45 10	 mov	 eax, DWORD PTR __Wherenode$[ebp]
  0002b	57		 push	 edi
  0002c	8b 7d 14	 mov	 edi, DWORD PTR __Newnode$[ebp]
  0002f	89 47 04	 mov	 DWORD PTR [edi+4], eax

; 1643 : 
; 1644 : 		if (_Wherenode == this->_Myhead)

  00032	8b 51 04	 mov	 edx, DWORD PTR [ecx+4]
  00035	32 db		 xor	 bl, bl
  00037	3b c2		 cmp	 eax, edx
  00039	75 10		 jne	 SHORT $LN16@Insert

; 1645 : 			{	// first node in tree, just set head values
; 1646 : 			_Root() = _Newnode;

  0003b	89 7a 04	 mov	 DWORD PTR [edx+4], edi

; 1647 : 			_Lmost() = _Newnode;

  0003e	8b 51 04	 mov	 edx, DWORD PTR [ecx+4]
  00041	89 3a		 mov	 DWORD PTR [edx], edi

; 1648 : 			_Rmost() = _Newnode;

  00043	8b 41 04	 mov	 eax, DWORD PTR [ecx+4]
  00046	89 78 08	 mov	 DWORD PTR [eax+8], edi
  00049	eb 20		 jmp	 SHORT $LN11@Insert
$LN16@Insert:

; 1649 : 			}
; 1650 : 		else if (_Addleft)

  0004b	38 5d 0c	 cmp	 BYTE PTR __Addleft$[ebp], bl
  0004e	74 0d		 je	 SHORT $LN14@Insert

; 1651 : 			{	// add to left of _Wherenode
; 1652 : 			this->_Left(_Wherenode) = _Newnode;

  00050	89 38		 mov	 DWORD PTR [eax], edi

; 1653 : 			if (_Wherenode == _Lmost())

  00052	8b 51 04	 mov	 edx, DWORD PTR [ecx+4]
  00055	3b 02		 cmp	 eax, DWORD PTR [edx]
  00057	75 12		 jne	 SHORT $LN11@Insert

; 1654 : 				_Lmost() = _Newnode;

  00059	89 3a		 mov	 DWORD PTR [edx], edi

; 1655 : 			}
; 1656 : 		else

  0005b	eb 0e		 jmp	 SHORT $LN11@Insert
$LN14@Insert:

; 1657 : 			{	// add to right of _Wherenode
; 1658 : 			this->_Right(_Wherenode) = _Newnode;

  0005d	89 78 08	 mov	 DWORD PTR [eax+8], edi

; 1659 : 			if (_Wherenode == _Rmost())

  00060	8b 51 04	 mov	 edx, DWORD PTR [ecx+4]
  00063	3b 42 08	 cmp	 eax, DWORD PTR [edx+8]
  00066	75 03		 jne	 SHORT $LN11@Insert

; 1660 : 				_Rmost() = _Newnode;

  00068	89 7a 08	 mov	 DWORD PTR [edx+8], edi
$LN11@Insert:

; 1661 : 			}
; 1662 : 
; 1663 : 		for (_Nodeptr _Pnode = _Newnode;
; 1664 : 			this->_Color(this->_Parent(_Pnode)) == this->_Red; )

  0006b	8b 57 04	 mov	 edx, DWORD PTR [edi+4]
  0006e	8b c7		 mov	 eax, edi
  00070	38 5a 14	 cmp	 BYTE PTR [edx+20], bl
  00073	0f 85 97 01 00
	00		 jne	 $LN9@Insert
  00079	56		 push	 esi
  0007a	8d 9b 00 00 00
	00		 npad	 6
$LL10@Insert:

; 1665 : 			if (this->_Parent(_Pnode)
; 1666 : 				== this->_Left(this->_Parent(this->_Parent(_Pnode))))

  00080	8b 50 04	 mov	 edx, DWORD PTR [eax+4]
  00083	8b 72 04	 mov	 esi, DWORD PTR [edx+4]
  00086	3b 16		 cmp	 edx, DWORD PTR [esi]
  00088	0f 85 c1 00 00
	00		 jne	 $LN8@Insert

; 1667 : 				{	// fixup red-red in left subtree
; 1668 : 				_Wherenode =
; 1669 : 					this->_Right(this->_Parent(this->_Parent(_Pnode)));

  0008e	8b 76 08	 mov	 esi, DWORD PTR [esi+8]

; 1670 : 				if (this->_Color(_Wherenode) == this->_Red)

  00091	38 5e 14	 cmp	 BYTE PTR [esi+20], bl
  00094	75 1c		 jne	 SHORT $LN7@Insert

; 1671 : 					{	// parent has two red children, blacken both
; 1672 : 					this->_Color(this->_Parent(_Pnode)) = this->_Black;

  00096	c6 42 14 01	 mov	 BYTE PTR [edx+20], 1

; 1673 : 					this->_Color(_Wherenode) = this->_Black;

  0009a	c6 46 14 01	 mov	 BYTE PTR [esi+20], 1

; 1674 : 					this->_Color(this->_Parent(this->_Parent(_Pnode)))
; 1675 : 						= this->_Red;

  0009e	8b 50 04	 mov	 edx, DWORD PTR [eax+4]
  000a1	8b 52 04	 mov	 edx, DWORD PTR [edx+4]
  000a4	88 5a 14	 mov	 BYTE PTR [edx+20], bl

; 1676 : 					_Pnode = this->_Parent(this->_Parent(_Pnode));

  000a7	8b 40 04	 mov	 eax, DWORD PTR [eax+4]
  000aa	8b 40 04	 mov	 eax, DWORD PTR [eax+4]

; 1677 : 					}
; 1678 : 				else

  000ad	e9 51 01 00 00	 jmp	 $LN316@Insert
$LN7@Insert:

; 1679 : 					{	// parent has red and black children
; 1680 : 					if (_Pnode == this->_Right(this->_Parent(_Pnode)))

  000b2	3b 42 08	 cmp	 eax, DWORD PTR [edx+8]
  000b5	75 3a		 jne	 SHORT $LN111@Insert

; 1681 : 						{	// rotate right child to left
; 1682 : 						_Pnode = this->_Parent(_Pnode);

  000b7	8b c2		 mov	 eax, edx

; 1683 : 						_Lrotate(_Pnode);

  000b9	8b 50 08	 mov	 edx, DWORD PTR [eax+8]
  000bc	8b 32		 mov	 esi, DWORD PTR [edx]
  000be	89 70 08	 mov	 DWORD PTR [eax+8], esi
  000c1	8b 32		 mov	 esi, DWORD PTR [edx]
  000c3	38 5e 15	 cmp	 BYTE PTR [esi+21], bl
  000c6	75 03		 jne	 SHORT $LN110@Insert
  000c8	89 46 04	 mov	 DWORD PTR [esi+4], eax
$LN110@Insert:
  000cb	8b 70 04	 mov	 esi, DWORD PTR [eax+4]
  000ce	89 72 04	 mov	 DWORD PTR [edx+4], esi
  000d1	8b 71 04	 mov	 esi, DWORD PTR [ecx+4]
  000d4	3b 46 04	 cmp	 eax, DWORD PTR [esi+4]
  000d7	75 05		 jne	 SHORT $LN109@Insert
  000d9	89 56 04	 mov	 DWORD PTR [esi+4], edx
  000dc	eb 0e		 jmp	 SHORT $LN106@Insert
$LN109@Insert:
  000de	8b 70 04	 mov	 esi, DWORD PTR [eax+4]
  000e1	3b 06		 cmp	 eax, DWORD PTR [esi]
  000e3	75 04		 jne	 SHORT $LN107@Insert
  000e5	89 16		 mov	 DWORD PTR [esi], edx
  000e7	eb 03		 jmp	 SHORT $LN106@Insert
$LN107@Insert:
  000e9	89 56 08	 mov	 DWORD PTR [esi+8], edx
$LN106@Insert:
  000ec	89 02		 mov	 DWORD PTR [edx], eax
  000ee	89 50 04	 mov	 DWORD PTR [eax+4], edx
$LN111@Insert:

; 1684 : 						}
; 1685 : 					this->_Color(this->_Parent(_Pnode)) =
; 1686 : 						this->_Black;	// propagate red up

  000f1	8b 50 04	 mov	 edx, DWORD PTR [eax+4]
  000f4	c6 42 14 01	 mov	 BYTE PTR [edx+20], 1

; 1687 : 					this->_Color(this->_Parent(this->_Parent(_Pnode))) =
; 1688 : 						this->_Red;

  000f8	8b 50 04	 mov	 edx, DWORD PTR [eax+4]
  000fb	8b 52 04	 mov	 edx, DWORD PTR [edx+4]
  000fe	88 5a 14	 mov	 BYTE PTR [edx+20], bl

; 1689 : 					_Rrotate(this->_Parent(this->_Parent(_Pnode)));

  00101	8b 50 04	 mov	 edx, DWORD PTR [eax+4]
  00104	8b 52 04	 mov	 edx, DWORD PTR [edx+4]
  00107	8b 32		 mov	 esi, DWORD PTR [edx]
  00109	8b 7e 08	 mov	 edi, DWORD PTR [esi+8]
  0010c	89 3a		 mov	 DWORD PTR [edx], edi
  0010e	8b 7e 08	 mov	 edi, DWORD PTR [esi+8]
  00111	38 5f 15	 cmp	 BYTE PTR [edi+21], bl
  00114	75 03		 jne	 SHORT $LN173@Insert
  00116	89 57 04	 mov	 DWORD PTR [edi+4], edx
$LN173@Insert:
  00119	8b 7a 04	 mov	 edi, DWORD PTR [edx+4]
  0011c	89 7e 04	 mov	 DWORD PTR [esi+4], edi
  0011f	8b 79 04	 mov	 edi, DWORD PTR [ecx+4]
  00122	3b 57 04	 cmp	 edx, DWORD PTR [edi+4]
  00125	75 0b		 jne	 SHORT $LN172@Insert
  00127	89 77 04	 mov	 DWORD PTR [edi+4], esi
  0012a	89 56 08	 mov	 DWORD PTR [esi+8], edx

; 1690 : 					}
; 1691 : 				}
; 1692 : 			else

  0012d	e9 cb 00 00 00	 jmp	 $LN376@Insert

; 1689 : 					_Rrotate(this->_Parent(this->_Parent(_Pnode)));

$LN172@Insert:
  00132	8b 7a 04	 mov	 edi, DWORD PTR [edx+4]
  00135	3b 57 08	 cmp	 edx, DWORD PTR [edi+8]
  00138	75 0b		 jne	 SHORT $LN170@Insert
  0013a	89 77 08	 mov	 DWORD PTR [edi+8], esi
  0013d	89 56 08	 mov	 DWORD PTR [esi+8], edx

; 1690 : 					}
; 1691 : 				}
; 1692 : 			else

  00140	e9 b8 00 00 00	 jmp	 $LN376@Insert

; 1689 : 					_Rrotate(this->_Parent(this->_Parent(_Pnode)));

$LN170@Insert:
  00145	89 37		 mov	 DWORD PTR [edi], esi
  00147	89 56 08	 mov	 DWORD PTR [esi+8], edx

; 1690 : 					}
; 1691 : 				}
; 1692 : 			else

  0014a	e9 ae 00 00 00	 jmp	 $LN376@Insert
$LN8@Insert:

; 1693 : 				{	// fixup red-red in right subtree
; 1694 : 				_Wherenode =
; 1695 : 					this->_Left(this->_Parent(this->_Parent(_Pnode)));

  0014f	8b 36		 mov	 esi, DWORD PTR [esi]

; 1696 : 				if (this->_Color(_Wherenode) == this->_Red)

  00151	38 5e 14	 cmp	 BYTE PTR [esi+20], bl
  00154	75 1c		 jne	 SHORT $LN3@Insert

; 1697 : 					{	// parent has two red children, blacken both
; 1698 : 					this->_Color(this->_Parent(_Pnode)) = this->_Black;

  00156	c6 42 14 01	 mov	 BYTE PTR [edx+20], 1

; 1699 : 					this->_Color(_Wherenode) = this->_Black;

  0015a	c6 46 14 01	 mov	 BYTE PTR [esi+20], 1

; 1700 : 					this->_Color(this->_Parent(this->_Parent(_Pnode))) =
; 1701 : 						this->_Red;

  0015e	8b 50 04	 mov	 edx, DWORD PTR [eax+4]
  00161	8b 52 04	 mov	 edx, DWORD PTR [edx+4]
  00164	88 5a 14	 mov	 BYTE PTR [edx+20], bl

; 1702 : 					_Pnode = this->_Parent(this->_Parent(_Pnode));

  00167	8b 40 04	 mov	 eax, DWORD PTR [eax+4]
  0016a	8b 40 04	 mov	 eax, DWORD PTR [eax+4]

; 1703 : 					}
; 1704 : 				else

  0016d	e9 91 00 00 00	 jmp	 $LN316@Insert
$LN3@Insert:

; 1705 : 					{	// parent has red and black children
; 1706 : 					if (_Pnode == this->_Left(this->_Parent(_Pnode)))

  00172	3b 02		 cmp	 eax, DWORD PTR [edx]
  00174	75 3c		 jne	 SHORT $LN253@Insert

; 1707 : 						{	// rotate left child to right
; 1708 : 						_Pnode = this->_Parent(_Pnode);

  00176	8b c2		 mov	 eax, edx

; 1709 : 						_Rrotate(_Pnode);

  00178	8b 10		 mov	 edx, DWORD PTR [eax]
  0017a	8b 72 08	 mov	 esi, DWORD PTR [edx+8]
  0017d	89 30		 mov	 DWORD PTR [eax], esi
  0017f	8b 72 08	 mov	 esi, DWORD PTR [edx+8]
  00182	38 5e 15	 cmp	 BYTE PTR [esi+21], bl
  00185	75 03		 jne	 SHORT $LN252@Insert
  00187	89 46 04	 mov	 DWORD PTR [esi+4], eax
$LN252@Insert:
  0018a	8b 70 04	 mov	 esi, DWORD PTR [eax+4]
  0018d	89 72 04	 mov	 DWORD PTR [edx+4], esi
  00190	8b 71 04	 mov	 esi, DWORD PTR [ecx+4]
  00193	3b 46 04	 cmp	 eax, DWORD PTR [esi+4]
  00196	75 05		 jne	 SHORT $LN251@Insert
  00198	89 56 04	 mov	 DWORD PTR [esi+4], edx
  0019b	eb 0f		 jmp	 SHORT $LN248@Insert
$LN251@Insert:
  0019d	8b 70 04	 mov	 esi, DWORD PTR [eax+4]
  001a0	3b 46 08	 cmp	 eax, DWORD PTR [esi+8]
  001a3	75 05		 jne	 SHORT $LN249@Insert
  001a5	89 56 08	 mov	 DWORD PTR [esi+8], edx
  001a8	eb 02		 jmp	 SHORT $LN248@Insert
$LN249@Insert:
  001aa	89 16		 mov	 DWORD PTR [esi], edx
$LN248@Insert:
  001ac	89 42 08	 mov	 DWORD PTR [edx+8], eax
  001af	89 50 04	 mov	 DWORD PTR [eax+4], edx
$LN253@Insert:

; 1710 : 						}
; 1711 : 					this->_Color(this->_Parent(_Pnode)) =
; 1712 : 						this->_Black;	// propagate red up

  001b2	8b 50 04	 mov	 edx, DWORD PTR [eax+4]
  001b5	c6 42 14 01	 mov	 BYTE PTR [edx+20], 1

; 1713 : 					this->_Color(this->_Parent(this->_Parent(_Pnode))) =
; 1714 : 						this->_Red;

  001b9	8b 50 04	 mov	 edx, DWORD PTR [eax+4]
  001bc	8b 52 04	 mov	 edx, DWORD PTR [edx+4]
  001bf	88 5a 14	 mov	 BYTE PTR [edx+20], bl

; 1715 : 					_Lrotate(this->_Parent(this->_Parent(_Pnode)));

  001c2	8b 50 04	 mov	 edx, DWORD PTR [eax+4]
  001c5	8b 52 04	 mov	 edx, DWORD PTR [edx+4]
  001c8	8b 72 08	 mov	 esi, DWORD PTR [edx+8]
  001cb	8b 3e		 mov	 edi, DWORD PTR [esi]
  001cd	89 7a 08	 mov	 DWORD PTR [edx+8], edi
  001d0	8b 3e		 mov	 edi, DWORD PTR [esi]
  001d2	38 5f 15	 cmp	 BYTE PTR [edi+21], bl
  001d5	75 03		 jne	 SHORT $LN315@Insert
  001d7	89 57 04	 mov	 DWORD PTR [edi+4], edx
$LN315@Insert:
  001da	8b 7a 04	 mov	 edi, DWORD PTR [edx+4]
  001dd	89 7e 04	 mov	 DWORD PTR [esi+4], edi
  001e0	8b 79 04	 mov	 edi, DWORD PTR [ecx+4]
  001e3	3b 57 04	 cmp	 edx, DWORD PTR [edi+4]
  001e6	75 05		 jne	 SHORT $LN314@Insert
  001e8	89 77 04	 mov	 DWORD PTR [edi+4], esi
  001eb	eb 0e		 jmp	 SHORT $LN311@Insert
$LN314@Insert:
  001ed	8b 7a 04	 mov	 edi, DWORD PTR [edx+4]
  001f0	3b 17		 cmp	 edx, DWORD PTR [edi]
  001f2	75 04		 jne	 SHORT $LN312@Insert
  001f4	89 37		 mov	 DWORD PTR [edi], esi
  001f6	eb 03		 jmp	 SHORT $LN311@Insert
$LN312@Insert:
  001f8	89 77 08	 mov	 DWORD PTR [edi+8], esi
$LN311@Insert:
  001fb	89 16		 mov	 DWORD PTR [esi], edx
$LN376@Insert:
  001fd	8b 7d 14	 mov	 edi, DWORD PTR __Newnode$[ebp]
  00200	89 72 04	 mov	 DWORD PTR [edx+4], esi
$LN316@Insert:

; 1661 : 			}
; 1662 : 
; 1663 : 		for (_Nodeptr _Pnode = _Newnode;
; 1664 : 			this->_Color(this->_Parent(_Pnode)) == this->_Red; )

  00203	8b 50 04	 mov	 edx, DWORD PTR [eax+4]
  00206	38 5a 14	 cmp	 BYTE PTR [edx+20], bl
  00209	0f 84 71 fe ff
	ff		 je	 $LL10@Insert
  0020f	5e		 pop	 esi
$LN9@Insert:

; 1716 : 					}
; 1717 : 				}
; 1718 : 
; 1719 : 		this->_Color(_Root()) = this->_Black;	// root is always black

  00210	8b 41 04	 mov	 eax, DWORD PTR [ecx+4]
  00213	8b 48 04	 mov	 ecx, DWORD PTR [eax+4]

; 1720 : 		return (iterator(_Newnode, this));

  00216	8b 45 08	 mov	 eax, DWORD PTR ___$ReturnUdt$[ebp]
  00219	89 38		 mov	 DWORD PTR [eax], edi
  0021b	5f		 pop	 edi
  0021c	c6 41 14 01	 mov	 BYTE PTR [ecx+20], 1
  00220	5b		 pop	 ebx

; 1721 : 		}

  00221	5d		 pop	 ebp
  00222	c2 10 00	 ret	 16			; 00000010H
$LN375@Insert:
?_Insert@?$_Tree@V?$_Tmap_traits@HHU?$less@H@std@@V?$allocator@U?$pair@$$CBHH@std@@@2@$0A@@std@@@std@@IAE?AV?$_Tree_iterator@V?$_Tree_val@V?$_Tmap_traits@HHU?$less@H@std@@V?$allocator@U?$pair@$$CBHH@std@@@2@$0A@@std@@@std@@@2@_NPAU_Node@?$_Tree_nod@V?$_Tmap_traits@HHU?$less@H@std@@V?$allocator@U?$pair@$$CBHH@std@@@2@$0A@@std@@@2@1@Z ENDP ; std::_Tree<std::_Tmap_traits<int,int,std::less<int>,std::allocator<std::pair<int const ,int> >,0> >::_Insert
_TEXT	ENDS
PUBLIC	?construct@?$allocator@U?$pair@$$CBHH@std@@@std@@QAEXPAU?$pair@$$CBHH@2@$$QAU32@@Z ; std::allocator<std::pair<int const ,int> >::construct
; Function compile flags: /Ogtp
; File d:\program files (x86)\microsoft visual studio 10.0\vc\include\xmemory
;	COMDAT ?construct@?$allocator@U?$pair@$$CBHH@std@@@std@@QAEXPAU?$pair@$$CBHH@2@$$QAU32@@Z
_TEXT	SEGMENT
__Ptr$ = 8						; size = 4
__Val$ = 12						; size = 4
?construct@?$allocator@U?$pair@$$CBHH@std@@@std@@QAEXPAU?$pair@$$CBHH@2@$$QAU32@@Z PROC ; std::allocator<std::pair<int const ,int> >::construct, COMDAT
; _this$ = ecx

; 201  : 		{	// construct object at _Ptr with value _Val

  00000	55		 push	 ebp
  00001	8b ec		 mov	 ebp, esp

; 202  : 		::new ((void _FARQ *)_Ptr) _Ty(_STD forward<_Ty>(_Val));

  00003	8b 45 08	 mov	 eax, DWORD PTR __Ptr$[ebp]
  00006	85 c0		 test	 eax, eax
  00008	74 0d		 je	 SHORT $LN3@construct
  0000a	8b 4d 0c	 mov	 ecx, DWORD PTR __Val$[ebp]
  0000d	8b 11		 mov	 edx, DWORD PTR [ecx]
  0000f	89 10		 mov	 DWORD PTR [eax], edx
  00011	8b 49 04	 mov	 ecx, DWORD PTR [ecx+4]
  00014	89 48 04	 mov	 DWORD PTR [eax+4], ecx
$LN3@construct:

; 203  : 		}

  00017	5d		 pop	 ebp
  00018	c2 08 00	 ret	 8
?construct@?$allocator@U?$pair@$$CBHH@std@@@std@@QAEXPAU?$pair@$$CBHH@2@$$QAU32@@Z ENDP ; std::allocator<std::pair<int const ,int> >::construct
_TEXT	ENDS
PUBLIC	?end@?$_Tree@V?$_Tmap_traits@HHU?$less@H@std@@V?$allocator@U?$pair@$$CBHH@std@@@2@$0A@@std@@@std@@QAE?AV?$_Tree_iterator@V?$_Tree_val@V?$_Tmap_traits@HHU?$less@H@std@@V?$allocator@U?$pair@$$CBHH@std@@@2@$0A@@std@@@std@@@2@XZ ; std::_Tree<std::_Tmap_traits<int,int,std::less<int>,std::allocator<std::pair<int const ,int> >,0> >::end
; Function compile flags: /Ogtp
; File d:\program files (x86)\microsoft visual studio 10.0\vc\include\xtree
;	COMDAT ?end@?$_Tree@V?$_Tmap_traits@HHU?$less@H@std@@V?$allocator@U?$pair@$$CBHH@std@@@2@$0A@@std@@@std@@QAE?AV?$_Tree_iterator@V?$_Tree_val@V?$_Tmap_traits@HHU?$less@H@std@@V?$allocator@U?$pair@$$CBHH@std@@@2@$0A@@std@@@std@@@2@XZ
_TEXT	SEGMENT
___$ReturnUdt$ = 8					; size = 4
?end@?$_Tree@V?$_Tmap_traits@HHU?$less@H@std@@V?$allocator@U?$pair@$$CBHH@std@@@2@$0A@@std@@@std@@QAE?AV?$_Tree_iterator@V?$_Tree_val@V?$_Tmap_traits@HHU?$less@H@std@@V?$allocator@U?$pair@$$CBHH@std@@@2@$0A@@std@@@std@@@2@XZ PROC ; std::_Tree<std::_Tmap_traits<int,int,std::less<int>,std::allocator<std::pair<int const ,int> >,0> >::end, COMDAT
; _this$ = ecx

; 816  : 		{	// return iterator for end of mutable sequence

  00000	55		 push	 ebp
  00001	8b ec		 mov	 ebp, esp

; 817  : 		return (iterator(this->_Myhead, this));

  00003	8b 49 04	 mov	 ecx, DWORD PTR [ecx+4]
  00006	8b 45 08	 mov	 eax, DWORD PTR ___$ReturnUdt$[ebp]
  00009	89 08		 mov	 DWORD PTR [eax], ecx

; 818  : 		}

  0000b	5d		 pop	 ebp
  0000c	c2 04 00	 ret	 4
?end@?$_Tree@V?$_Tmap_traits@HHU?$less@H@std@@V?$allocator@U?$pair@$$CBHH@std@@@2@$0A@@std@@@std@@QAE?AV?$_Tree_iterator@V?$_Tree_val@V?$_Tmap_traits@HHU?$less@H@std@@V?$allocator@U?$pair@$$CBHH@std@@@2@$0A@@std@@@std@@@2@XZ ENDP ; std::_Tree<std::_Tmap_traits<int,int,std::less<int>,std::allocator<std::pair<int const ,int> >,0> >::end
_TEXT	ENDS
PUBLIC	?clear@?$_Tree@V?$_Tmap_traits@HHU?$less@H@std@@V?$allocator@U?$pair@$$CBHH@std@@@2@$0A@@std@@@std@@QAEXXZ ; std::_Tree<std::_Tmap_traits<int,int,std::less<int>,std::allocator<std::pair<int const ,int> >,0> >::clear
; Function compile flags: /Ogtp
;	COMDAT ?clear@?$_Tree@V?$_Tmap_traits@HHU?$less@H@std@@V?$allocator@U?$pair@$$CBHH@std@@@2@$0A@@std@@@std@@QAEXXZ
_TEXT	SEGMENT
?clear@?$_Tree@V?$_Tmap_traits@HHU?$less@H@std@@V?$allocator@U?$pair@$$CBHH@std@@@2@$0A@@std@@@std@@QAEXXZ PROC ; std::_Tree<std::_Tmap_traits<int,int,std::less<int>,std::allocator<std::pair<int const ,int> >,0> >::clear, COMDAT
; _this$ = ecx

; 1410 : 		{	// erase all

  00000	53		 push	 ebx
  00001	56		 push	 esi
  00002	57		 push	 edi
  00003	8b f9		 mov	 edi, ecx

; 1411 :  #if _ITERATOR_DEBUG_LEVEL == 2
; 1412 : 		this->_Orphan_ptr(*this, 0);
; 1413 :  #endif /* _ITERATOR_DEBUG_LEVEL == 2 */
; 1414 : 
; 1415 : 		_Erase(_Root());

  00005	8b 47 04	 mov	 eax, DWORD PTR [edi+4]
  00008	8b 58 04	 mov	 ebx, DWORD PTR [eax+4]
  0000b	80 7b 15 00	 cmp	 BYTE PTR [ebx+21], 0
  0000f	8b f3		 mov	 esi, ebx
  00011	75 1e		 jne	 SHORT $LN7@clear
$LL9@clear:
  00013	8b 4e 08	 mov	 ecx, DWORD PTR [esi+8]
  00016	51		 push	 ecx
  00017	8b cf		 mov	 ecx, edi
  00019	e8 00 00 00 00	 call	 ?_Erase@?$_Tree@V?$_Tmap_traits@HHU?$less@H@std@@V?$allocator@U?$pair@$$CBHH@std@@@2@$0A@@std@@@std@@IAEXPAU_Node@?$_Tree_nod@V?$_Tmap_traits@HHU?$less@H@std@@V?$allocator@U?$pair@$$CBHH@std@@@2@$0A@@std@@@2@@Z ; std::_Tree<std::_Tmap_traits<int,int,std::less<int>,std::allocator<std::pair<int const ,int> >,0> >::_Erase
  0001e	8b 36		 mov	 esi, DWORD PTR [esi]
  00020	53		 push	 ebx
  00021	e8 00 00 00 00	 call	 ??3@YAXPAX@Z		; operator delete
  00026	83 c4 04	 add	 esp, 4
  00029	80 7e 15 00	 cmp	 BYTE PTR [esi+21], 0
  0002d	8b de		 mov	 ebx, esi
  0002f	74 e2		 je	 SHORT $LL9@clear
$LN7@clear:

; 1416 : 		_Root() = this->_Myhead;

  00031	8b 47 04	 mov	 eax, DWORD PTR [edi+4]
  00034	89 40 04	 mov	 DWORD PTR [eax+4], eax

; 1417 : 		_Lmost() = this->_Myhead;

  00037	8b 47 04	 mov	 eax, DWORD PTR [edi+4]
  0003a	89 00		 mov	 DWORD PTR [eax], eax

; 1418 : 		_Rmost() = this->_Myhead;

  0003c	8b 47 04	 mov	 eax, DWORD PTR [edi+4]
  0003f	89 40 08	 mov	 DWORD PTR [eax+8], eax

; 1419 : 		this->_Mysize = 0;

  00042	c7 47 08 00 00
	00 00		 mov	 DWORD PTR [edi+8], 0
  00049	5f		 pop	 edi
  0004a	5e		 pop	 esi
  0004b	5b		 pop	 ebx

; 1420 : 		}

  0004c	c3		 ret	 0
?clear@?$_Tree@V?$_Tmap_traits@HHU?$less@H@std@@V?$allocator@U?$pair@$$CBHH@std@@@2@$0A@@std@@@std@@QAEXXZ ENDP ; std::_Tree<std::_Tmap_traits<int,int,std::less<int>,std::allocator<std::pair<int const ,int> >,0> >::clear
_TEXT	ENDS
PUBLIC	??0?$_Tree@V?$_Tmap_traits@HHU?$less@H@std@@V?$allocator@U?$pair@$$CBHH@std@@@2@$0A@@std@@@std@@QAE@ABU?$less@H@1@ABV?$allocator@U?$pair@$$CBHH@std@@@1@@Z ; std::_Tree<std::_Tmap_traits<int,int,std::less<int>,std::allocator<std::pair<int const ,int> >,0> >::_Tree<std::_Tmap_traits<int,int,std::less<int>,std::allocator<std::pair<int const ,int> >,0> >
; Function compile flags: /Ogtp
;	COMDAT ??0?$_Tree@V?$_Tmap_traits@HHU?$less@H@std@@V?$allocator@U?$pair@$$CBHH@std@@@2@$0A@@std@@@std@@QAE@ABU?$less@H@1@ABV?$allocator@U?$pair@$$CBHH@std@@@1@@Z
_TEXT	SEGMENT
$T216362 = -16						; size = 12
$T216298 = -4						; size = 4
__Parg$ = 8						; size = 4
__Al$ = 12						; size = 4
??0?$_Tree@V?$_Tmap_traits@HHU?$less@H@std@@V?$allocator@U?$pair@$$CBHH@std@@@2@$0A@@std@@@std@@QAE@ABU?$less@H@1@ABV?$allocator@U?$pair@$$CBHH@std@@@1@@Z PROC ; std::_Tree<std::_Tmap_traits<int,int,std::less<int>,std::allocator<std::pair<int const ,int> >,0> >::_Tree<std::_Tmap_traits<int,int,std::less<int>,std::allocator<std::pair<int const ,int> >,0> >, COMDAT
; _this$ = ecx

; 698  : 		{	// construct empty tree

  00000	55		 push	 ebp
  00001	8b ec		 mov	 ebp, esp
  00003	83 ec 10	 sub	 esp, 16			; 00000010H
  00006	56		 push	 esi
  00007	8b f1		 mov	 esi, ecx
  00009	6a 18		 push	 24			; 00000018H
  0000b	c7 46 08 00 00
	00 00		 mov	 DWORD PTR [esi+8], 0
  00012	e8 00 00 00 00	 call	 ??2@YAPAXI@Z		; operator new
  00017	83 c4 04	 add	 esp, 4
  0001a	85 c0		 test	 eax, eax
  0001c	74 28		 je	 SHORT $LN20@Tree
  0001e	89 46 04	 mov	 DWORD PTR [esi+4], eax
  00021	89 00		 mov	 DWORD PTR [eax], eax
  00023	8b 46 04	 mov	 eax, DWORD PTR [esi+4]
  00026	89 40 04	 mov	 DWORD PTR [eax+4], eax
  00029	8b 46 04	 mov	 eax, DWORD PTR [esi+4]
  0002c	89 40 08	 mov	 DWORD PTR [eax+8], eax
  0002f	8b 4e 04	 mov	 ecx, DWORD PTR [esi+4]
  00032	b0 01		 mov	 al, 1
  00034	88 41 14	 mov	 BYTE PTR [ecx+20], al
  00037	8b 56 04	 mov	 edx, DWORD PTR [esi+4]
  0003a	88 42 15	 mov	 BYTE PTR [edx+21], al

; 699  : 		}

  0003d	8b c6		 mov	 eax, esi
  0003f	5e		 pop	 esi
  00040	8b e5		 mov	 esp, ebp
  00042	5d		 pop	 ebp
  00043	c2 08 00	 ret	 8

; 698  : 		{	// construct empty tree

$LN20@Tree:
  00046	8d 45 fc	 lea	 eax, DWORD PTR $T216298[ebp]
  00049	50		 push	 eax
  0004a	8d 4d f0	 lea	 ecx, DWORD PTR $T216362[ebp]
  0004d	c7 45 fc 00 00
	00 00		 mov	 DWORD PTR $T216298[ebp], 0
  00054	e8 00 00 00 00	 call	 ??0exception@std@@QAE@ABQBD@Z ; std::exception::exception
  00059	68 00 00 00 00	 push	 OFFSET __TI2?AVbad_alloc@std@@
  0005e	8d 4d f0	 lea	 ecx, DWORD PTR $T216362[ebp]
  00061	51		 push	 ecx
  00062	c7 45 f0 00 00
	00 00		 mov	 DWORD PTR $T216362[ebp], OFFSET ??_7bad_alloc@std@@6B@
  00069	e8 00 00 00 00	 call	 __CxxThrowException@8
$LN43@Tree:
$LN42@Tree:
  0006e	cc		 int	 3
??0?$_Tree@V?$_Tmap_traits@HHU?$less@H@std@@V?$allocator@U?$pair@$$CBHH@std@@@2@$0A@@std@@@std@@QAE@ABU?$less@H@1@ABV?$allocator@U?$pair@$$CBHH@std@@@1@@Z ENDP ; std::_Tree<std::_Tmap_traits<int,int,std::less<int>,std::allocator<std::pair<int const ,int> >,0> >::_Tree<std::_Tmap_traits<int,int,std::less<int>,std::allocator<std::pair<int const ,int> >,0> >
_TEXT	ENDS
PUBLIC	?lower_bound@?$_Tree@V?$_Tmap_traits@HHU?$less@H@std@@V?$allocator@U?$pair@$$CBHH@std@@@2@$0A@@std@@@std@@QAE?AV?$_Tree_iterator@V?$_Tree_val@V?$_Tmap_traits@HHU?$less@H@std@@V?$allocator@U?$pair@$$CBHH@std@@@2@$0A@@std@@@std@@@2@ABH@Z ; std::_Tree<std::_Tmap_traits<int,int,std::less<int>,std::allocator<std::pair<int const ,int> >,0> >::lower_bound
; Function compile flags: /Ogtp
;	COMDAT ?lower_bound@?$_Tree@V?$_Tmap_traits@HHU?$less@H@std@@V?$allocator@U?$pair@$$CBHH@std@@@2@$0A@@std@@@std@@QAE?AV?$_Tree_iterator@V?$_Tree_val@V?$_Tmap_traits@HHU?$less@H@std@@V?$allocator@U?$pair@$$CBHH@std@@@2@$0A@@std@@@std@@@2@ABH@Z
_TEXT	SEGMENT
___$ReturnUdt$ = 8					; size = 4
__Keyval$ = 12						; size = 4
?lower_bound@?$_Tree@V?$_Tmap_traits@HHU?$less@H@std@@V?$allocator@U?$pair@$$CBHH@std@@@2@$0A@@std@@@std@@QAE?AV?$_Tree_iterator@V?$_Tree_val@V?$_Tmap_traits@HHU?$less@H@std@@V?$allocator@U?$pair@$$CBHH@std@@@2@$0A@@std@@@std@@@2@ABH@Z PROC ; std::_Tree<std::_Tmap_traits<int,int,std::less<int>,std::allocator<std::pair<int const ,int> >,0> >::lower_bound, COMDAT
; _this$ = ecx

; 1449 : 		{	// find leftmost node not less than _Keyval in mutable tree

  00000	55		 push	 ebp
  00001	8b ec		 mov	 ebp, esp

; 1450 : 		return (iterator(_Lbound(_Keyval), this));

  00003	8b 49 04	 mov	 ecx, DWORD PTR [ecx+4]
  00006	8b 41 04	 mov	 eax, DWORD PTR [ecx+4]
  00009	80 78 15 00	 cmp	 BYTE PTR [eax+21], 0
  0000d	75 19		 jne	 SHORT $LN36@lower_boun
  0000f	8b 55 0c	 mov	 edx, DWORD PTR __Keyval$[ebp]
  00012	8b 12		 mov	 edx, DWORD PTR [edx]
$LL6@lower_boun:
  00014	39 50 0c	 cmp	 DWORD PTR [eax+12], edx
  00017	7d 05		 jge	 SHORT $LN4@lower_boun
  00019	8b 40 08	 mov	 eax, DWORD PTR [eax+8]
  0001c	eb 04		 jmp	 SHORT $LN3@lower_boun
$LN4@lower_boun:
  0001e	8b c8		 mov	 ecx, eax
  00020	8b 00		 mov	 eax, DWORD PTR [eax]
$LN3@lower_boun:
  00022	80 78 15 00	 cmp	 BYTE PTR [eax+21], 0
  00026	74 ec		 je	 SHORT $LL6@lower_boun
$LN36@lower_boun:
  00028	8b 45 08	 mov	 eax, DWORD PTR ___$ReturnUdt$[ebp]
  0002b	89 08		 mov	 DWORD PTR [eax], ecx

; 1451 : 		}

  0002d	5d		 pop	 ebp
  0002e	c2 08 00	 ret	 8
?lower_bound@?$_Tree@V?$_Tmap_traits@HHU?$less@H@std@@V?$allocator@U?$pair@$$CBHH@std@@@2@$0A@@std@@@std@@QAE?AV?$_Tree_iterator@V?$_Tree_val@V?$_Tmap_traits@HHU?$less@H@std@@V?$allocator@U?$pair@$$CBHH@std@@@2@$0A@@std@@@std@@@2@ABH@Z ENDP ; std::_Tree<std::_Tmap_traits<int,int,std::less<int>,std::allocator<std::pair<int const ,int> >,0> >::lower_bound
_TEXT	ENDS
PUBLIC	?erase@?$_Tree@V?$_Tmap_traits@HHU?$less@H@std@@V?$allocator@U?$pair@$$CBHH@std@@@2@$0A@@std@@@std@@QAE?AV?$_Tree_iterator@V?$_Tree_val@V?$_Tmap_traits@HHU?$less@H@std@@V?$allocator@U?$pair@$$CBHH@std@@@2@$0A@@std@@@std@@@2@V?$_Tree_const_iterator@V?$_Tree_val@V?$_Tmap_traits@HHU?$less@H@std@@V?$allocator@U?$pair@$$CBHH@std@@@2@$0A@@std@@@std@@@2@0@Z ; std::_Tree<std::_Tmap_traits<int,int,std::less<int>,std::allocator<std::pair<int const ,int> >,0> >::erase
; Function compile flags: /Ogtp
;	COMDAT ?erase@?$_Tree@V?$_Tmap_traits@HHU?$less@H@std@@V?$allocator@U?$pair@$$CBHH@std@@@2@$0A@@std@@@std@@QAE?AV?$_Tree_iterator@V?$_Tree_val@V?$_Tmap_traits@HHU?$less@H@std@@V?$allocator@U?$pair@$$CBHH@std@@@2@$0A@@std@@@std@@@2@V?$_Tree_const_iterator@V?$_Tree_val@V?$_Tmap_traits@HHU?$less@H@std@@V?$allocator@U?$pair@$$CBHH@std@@@2@$0A@@std@@@std@@@2@0@Z
_TEXT	SEGMENT
$T216475 = -4						; size = 4
___$ReturnUdt$ = 8					; size = 4
__First$ = 12						; size = 4
__Last$ = 16						; size = 4
?erase@?$_Tree@V?$_Tmap_traits@HHU?$less@H@std@@V?$allocator@U?$pair@$$CBHH@std@@@2@$0A@@std@@@std@@QAE?AV?$_Tree_iterator@V?$_Tree_val@V?$_Tmap_traits@HHU?$less@H@std@@V?$allocator@U?$pair@$$CBHH@std@@@2@$0A@@std@@@std@@@2@V?$_Tree_const_iterator@V?$_Tree_val@V?$_Tmap_traits@HHU?$less@H@std@@V?$allocator@U?$pair@$$CBHH@std@@@2@$0A@@std@@@std@@@2@0@Z PROC ; std::_Tree<std::_Tmap_traits<int,int,std::less<int>,std::allocator<std::pair<int const ,int> >,0> >::erase, COMDAT
; _this$ = ecx

; 1379 : 		{	// erase [_First, _Last)

  00000	55		 push	 ebp
  00001	8b ec		 mov	 ebp, esp
  00003	51		 push	 ecx

; 1380 : 		if (_First == begin() && _Last == end())

  00004	8b 55 10	 mov	 edx, DWORD PTR __Last$[ebp]
  00007	56		 push	 esi
  00008	8b f1		 mov	 esi, ecx
  0000a	8b 46 04	 mov	 eax, DWORD PTR [esi+4]
  0000d	8b 4d 0c	 mov	 ecx, DWORD PTR __First$[ebp]
  00010	3b 08		 cmp	 ecx, DWORD PTR [eax]
  00012	75 1c		 jne	 SHORT $LN97@erase@2
  00014	3b d0		 cmp	 edx, eax
  00016	75 18		 jne	 SHORT $LN97@erase@2

; 1381 : 			{	// erase all
; 1382 : 			clear();

  00018	8b ce		 mov	 ecx, esi
  0001a	e8 00 00 00 00	 call	 ?clear@?$_Tree@V?$_Tmap_traits@HHU?$less@H@std@@V?$allocator@U?$pair@$$CBHH@std@@@2@$0A@@std@@@std@@QAEXXZ ; std::_Tree<std::_Tmap_traits<int,int,std::less<int>,std::allocator<std::pair<int const ,int> >,0> >::clear

; 1383 : 			return (begin());

  0001f	8b 46 04	 mov	 eax, DWORD PTR [esi+4]
  00022	8b 08		 mov	 ecx, DWORD PTR [eax]

; 1389 : 			return (iterator(_First._Ptr, this));

  00024	8b 45 08	 mov	 eax, DWORD PTR ___$ReturnUdt$[ebp]
  00027	89 08		 mov	 DWORD PTR [eax], ecx
  00029	5e		 pop	 esi

; 1390 : 			}
; 1391 : 		}

  0002a	8b e5		 mov	 esp, ebp
  0002c	5d		 pop	 ebp
  0002d	c2 0c 00	 ret	 12			; 0000000cH
$LN97@erase@2:

; 1384 : 			}
; 1385 : 		else
; 1386 : 			{	// partial erase, one at a time
; 1387 : 			while (_First != _Last)

  00030	3b ca		 cmp	 ecx, edx
  00032	74 5e		 je	 SHORT $LN1@erase@2
$LL2@erase@2:

; 1388 : 				erase(_First++);

  00034	80 79 15 00	 cmp	 BYTE PTR [ecx+21], 0
  00038	8b d1		 mov	 edx, ecx
  0003a	75 42		 jne	 SHORT $LN59@erase@2
  0003c	8b 41 08	 mov	 eax, DWORD PTR [ecx+8]
  0003f	80 78 15 00	 cmp	 BYTE PTR [eax+21], 0
  00043	75 1a		 jne	 SHORT $LN99@erase@2
  00045	8b c8		 mov	 ecx, eax
  00047	8b 01		 mov	 eax, DWORD PTR [ecx]
  00049	80 78 15 00	 cmp	 BYTE PTR [eax+21], 0
  0004d	75 0b		 jne	 SHORT $LN73@erase@2
  0004f	90		 npad	 1
$LL74@erase@2:
  00050	8b c8		 mov	 ecx, eax
  00052	8b 01		 mov	 eax, DWORD PTR [ecx]
  00054	80 78 15 00	 cmp	 BYTE PTR [eax+21], 0
  00058	74 f6		 je	 SHORT $LL74@erase@2
$LN73@erase@2:
  0005a	89 4d 0c	 mov	 DWORD PTR __First$[ebp], ecx
  0005d	eb 1f		 jmp	 SHORT $LN59@erase@2
$LN99@erase@2:
  0005f	8b 41 04	 mov	 eax, DWORD PTR [ecx+4]
  00062	80 78 15 00	 cmp	 BYTE PTR [eax+21], 0
  00066	75 13		 jne	 SHORT $LN57@erase@2
$LL58@erase@2:
  00068	3b 48 08	 cmp	 ecx, DWORD PTR [eax+8]
  0006b	75 0e		 jne	 SHORT $LN57@erase@2
  0006d	8b c8		 mov	 ecx, eax
  0006f	89 4d 0c	 mov	 DWORD PTR __First$[ebp], ecx
  00072	8b 40 04	 mov	 eax, DWORD PTR [eax+4]
  00075	80 78 15 00	 cmp	 BYTE PTR [eax+21], 0
  00079	74 ed		 je	 SHORT $LL58@erase@2
$LN57@erase@2:
  0007b	89 45 0c	 mov	 DWORD PTR __First$[ebp], eax
$LN59@erase@2:
  0007e	52		 push	 edx
  0007f	8d 55 fc	 lea	 edx, DWORD PTR $T216475[ebp]
  00082	52		 push	 edx
  00083	8b ce		 mov	 ecx, esi
  00085	e8 00 00 00 00	 call	 ?erase@?$_Tree@V?$_Tmap_traits@HHU?$less@H@std@@V?$allocator@U?$pair@$$CBHH@std@@@2@$0A@@std@@@std@@QAE?AV?$_Tree_iterator@V?$_Tree_val@V?$_Tmap_traits@HHU?$less@H@std@@V?$allocator@U?$pair@$$CBHH@std@@@2@$0A@@std@@@std@@@2@V?$_Tree_const_iterator@V?$_Tree_val@V?$_Tmap_traits@HHU?$less@H@std@@V?$allocator@U?$pair@$$CBHH@std@@@2@$0A@@std@@@std@@@2@@Z ; std::_Tree<std::_Tmap_traits<int,int,std::less<int>,std::allocator<std::pair<int const ,int> >,0> >::erase
  0008a	8b 4d 0c	 mov	 ecx, DWORD PTR __First$[ebp]
  0008d	3b 4d 10	 cmp	 ecx, DWORD PTR __Last$[ebp]
  00090	75 a2		 jne	 SHORT $LL2@erase@2
$LN1@erase@2:

; 1389 : 			return (iterator(_First._Ptr, this));

  00092	8b 45 08	 mov	 eax, DWORD PTR ___$ReturnUdt$[ebp]
  00095	89 08		 mov	 DWORD PTR [eax], ecx
  00097	5e		 pop	 esi

; 1390 : 			}
; 1391 : 		}

  00098	8b e5		 mov	 esp, ebp
  0009a	5d		 pop	 ebp
  0009b	c2 0c 00	 ret	 12			; 0000000cH
?erase@?$_Tree@V?$_Tmap_traits@HHU?$less@H@std@@V?$allocator@U?$pair@$$CBHH@std@@@2@$0A@@std@@@std@@QAE?AV?$_Tree_iterator@V?$_Tree_val@V?$_Tmap_traits@HHU?$less@H@std@@V?$allocator@U?$pair@$$CBHH@std@@@2@$0A@@std@@@std@@@2@V?$_Tree_const_iterator@V?$_Tree_val@V?$_Tmap_traits@HHU?$less@H@std@@V?$allocator@U?$pair@$$CBHH@std@@@2@$0A@@std@@@std@@@2@0@Z ENDP ; std::_Tree<std::_Tmap_traits<int,int,std::less<int>,std::allocator<std::pair<int const ,int> >,0> >::erase
_TEXT	ENDS
PUBLIC	?_Linsert@?$_Tree@V?$_Tmap_traits@HHU?$less@H@std@@V?$allocator@U?$pair@$$CBHH@std@@@2@$0A@@std@@@std@@QAE?AU?$pair@V?$_Tree_iterator@V?$_Tree_val@V?$_Tmap_traits@HHU?$less@H@std@@V?$allocator@U?$pair@$$CBHH@std@@@2@$0A@@std@@@std@@@std@@_N@2@PAU_Node@?$_Tree_nod@V?$_Tmap_traits@HHU?$less@H@std@@V?$allocator@U?$pair@$$CBHH@std@@@2@$0A@@std@@@2@_N@Z ; std::_Tree<std::_Tmap_traits<int,int,std::less<int>,std::allocator<std::pair<int const ,int> >,0> >::_Linsert
; Function compile flags: /Ogtp
;	COMDAT ?_Linsert@?$_Tree@V?$_Tmap_traits@HHU?$less@H@std@@V?$allocator@U?$pair@$$CBHH@std@@@2@$0A@@std@@@std@@QAE?AU?$pair@V?$_Tree_iterator@V?$_Tree_val@V?$_Tmap_traits@HHU?$less@H@std@@V?$allocator@U?$pair@$$CBHH@std@@@2@$0A@@std@@@std@@@std@@_N@2@PAU_Node@?$_Tree_nod@V?$_Tmap_traits@HHU?$less@H@std@@V?$allocator@U?$pair@$$CBHH@std@@@2@$0A@@std@@@2@_N@Z
_TEXT	SEGMENT
__Addleft$ = -4						; size = 1
___$ReturnUdt$ = 8					; size = 4
__Node$ = 12						; size = 4
$T216816 = 16						; size = 4
$T216814 = 16						; size = 4
__Where$213269 = 16					; size = 4
__Leftish$ = 16						; size = 1
?_Linsert@?$_Tree@V?$_Tmap_traits@HHU?$less@H@std@@V?$allocator@U?$pair@$$CBHH@std@@@2@$0A@@std@@@std@@QAE?AU?$pair@V?$_Tree_iterator@V?$_Tree_val@V?$_Tmap_traits@HHU?$less@H@std@@V?$allocator@U?$pair@$$CBHH@std@@@2@$0A@@std@@@std@@@std@@_N@2@PAU_Node@?$_Tree_nod@V?$_Tmap_traits@HHU?$less@H@std@@V?$allocator@U?$pair@$$CBHH@std@@@2@$0A@@std@@@2@_N@Z PROC ; std::_Tree<std::_Tmap_traits<int,int,std::less<int>,std::allocator<std::pair<int const ,int> >,0> >::_Linsert, COMDAT
; _this$ = ecx

; 944  : 		{	// try to insert node at _Node, on left if _Leftish

  00000	55		 push	 ebp
  00001	8b ec		 mov	 ebp, esp
  00003	51		 push	 ecx

; 945  : 		const value_type& _Val = this->_Myval(_Node);
; 946  : 
; 947  : 		_Nodeptr _Trynode = _Root();
; 948  : 		_Nodeptr _Wherenode = this->_Myhead;
; 949  : 		bool _Addleft = true;	// add to left of head if tree empty
; 950  : 		while (!this->_Isnil(_Trynode))

  00004	8b 55 0c	 mov	 edx, DWORD PTR __Node$[ebp]
  00007	53		 push	 ebx
  00008	8b d9		 mov	 ebx, ecx
  0000a	8b 4b 04	 mov	 ecx, DWORD PTR [ebx+4]
  0000d	8b 41 04	 mov	 eax, DWORD PTR [ecx+4]
  00010	80 78 15 00	 cmp	 BYTE PTR [eax+21], 0
  00014	56		 push	 esi
  00015	8b f1		 mov	 esi, ecx
  00017	b1 01		 mov	 cl, 1
  00019	57		 push	 edi
  0001a	88 4d fc	 mov	 BYTE PTR __Addleft$[ebp], cl
  0001d	75 2d		 jne	 SHORT $LN11@Linsert
  0001f	8b 7a 0c	 mov	 edi, DWORD PTR [edx+12]
$LL12@Linsert:

; 951  : 			{	// look for leaf to insert before (_Addleft) or after
; 952  : 			_Wherenode = _Trynode;
; 953  : 			if (_Leftish)

  00022	80 7d 10 00	 cmp	 BYTE PTR __Leftish$[ebp], 0
  00026	8b f0		 mov	 esi, eax
  00028	74 08		 je	 SHORT $LN10@Linsert

; 954  : 				_Addleft = !_DEBUG_LT_PRED(this->comp,

  0002a	39 78 0c	 cmp	 DWORD PTR [eax+12], edi
  0002d	0f 9d c1	 setge	 cl

; 955  : 					this->_Key(_Trynode),
; 956  : 					this->_Kfn(_Val));	// favor left end
; 957  : 			else

  00030	eb 06		 jmp	 SHORT $LN146@Linsert
$LN10@Linsert:

; 958  : 				_Addleft = _DEBUG_LT_PRED(this->comp,

  00032	3b 78 0c	 cmp	 edi, DWORD PTR [eax+12]
  00035	0f 9c c1	 setl	 cl
$LN146@Linsert:
  00038	88 4d fc	 mov	 BYTE PTR __Addleft$[ebp], cl

; 959  : 					this->_Kfn(_Val),
; 960  : 					this->_Key(_Trynode));	// favor right end
; 961  : 			_Trynode = _Addleft ? this->_Left(_Trynode)
; 962  : 				: this->_Right(_Trynode);

  0003b	84 c9		 test	 cl, cl
  0003d	74 04		 je	 SHORT $LN15@Linsert
  0003f	8b 00		 mov	 eax, DWORD PTR [eax]
  00041	eb 03		 jmp	 SHORT $LN16@Linsert
$LN15@Linsert:
  00043	8b 40 08	 mov	 eax, DWORD PTR [eax+8]
$LN16@Linsert:

; 945  : 		const value_type& _Val = this->_Myval(_Node);
; 946  : 
; 947  : 		_Nodeptr _Trynode = _Root();
; 948  : 		_Nodeptr _Wherenode = this->_Myhead;
; 949  : 		bool _Addleft = true;	// add to left of head if tree empty
; 950  : 		while (!this->_Isnil(_Trynode))

  00046	80 78 15 00	 cmp	 BYTE PTR [eax+21], 0
  0004a	74 d6		 je	 SHORT $LL12@Linsert
$LN11@Linsert:

; 963  : 			}
; 964  : 
; 965  : 		if (this->_Multi)
; 966  : 			return (_Pairib(_Insert(_Addleft, _Wherenode, _Node), true));
; 967  : 		else
; 968  : 			{	// insert only if unique
; 969  : 			iterator _Where = iterator(_Wherenode, this);

  0004c	8b fe		 mov	 edi, esi
  0004e	89 7d 10	 mov	 DWORD PTR __Where$213269[ebp], edi

; 970  : 			if (!_Addleft)

  00051	84 c9		 test	 cl, cl
  00053	74 35		 je	 SHORT $LN99@Linsert

; 971  : 				;	// need to test if insert after is okay
; 972  : 			else if (_Where == begin())

  00055	8b 43 04	 mov	 eax, DWORD PTR [ebx+4]

; 973  : 				return (_Pairib(_Insert(true, _Wherenode, _Node), true));

  00058	8d 4d 10	 lea	 ecx, DWORD PTR $T216814[ebp]
  0005b	3b 30		 cmp	 esi, DWORD PTR [eax]
  0005d	75 20		 jne	 SHORT $LN4@Linsert
  0005f	52		 push	 edx
  00060	56		 push	 esi
  00061	6a 01		 push	 1
  00063	51		 push	 ecx
  00064	8b cb		 mov	 ecx, ebx
  00066	e8 00 00 00 00	 call	 ?_Insert@?$_Tree@V?$_Tmap_traits@HHU?$less@H@std@@V?$allocator@U?$pair@$$CBHH@std@@@2@$0A@@std@@@std@@IAE?AV?$_Tree_iterator@V?$_Tree_val@V?$_Tmap_traits@HHU?$less@H@std@@V?$allocator@U?$pair@$$CBHH@std@@@2@$0A@@std@@@std@@@2@_NPAU_Node@?$_Tree_nod@V?$_Tmap_traits@HHU?$less@H@std@@V?$allocator@U?$pair@$$CBHH@std@@@2@$0A@@std@@@2@1@Z ; std::_Tree<std::_Tmap_traits<int,int,std::less<int>,std::allocator<std::pair<int const ,int> >,0> >::_Insert
  0006b	8b 10		 mov	 edx, DWORD PTR [eax]
  0006d	8b 45 08	 mov	 eax, DWORD PTR ___$ReturnUdt$[ebp]
  00070	5f		 pop	 edi
  00071	5e		 pop	 esi
  00072	89 10		 mov	 DWORD PTR [eax], edx
  00074	c6 40 04 01	 mov	 BYTE PTR [eax+4], 1
  00078	5b		 pop	 ebx

; 989  : 				}
; 990  : 			}
; 991  : 		}

  00079	8b e5		 mov	 esp, ebp
  0007b	5d		 pop	 ebp
  0007c	c2 0c 00	 ret	 12			; 0000000cH
$LN4@Linsert:

; 974  : 			else
; 975  : 				--_Where;	// need to test if insert before is okay

  0007f	e8 00 00 00 00	 call	 ??F?$_Tree_unchecked_const_iterator@V?$_Tree_val@V?$_Tmap_traits@HHU?$less@H@std@@V?$allocator@U?$pair@$$CBHH@std@@@2@$0A@@std@@@std@@U_Iterator_base0@2@@std@@QAEAAV01@XZ ; std::_Tree_unchecked_const_iterator<std::_Tree_val<std::_Tmap_traits<int,int,std::less<int>,std::allocator<std::pair<int const ,int> >,0> >,std::_Iterator_base0>::operator--
  00084	8b 7d 10	 mov	 edi, DWORD PTR __Where$213269[ebp]
  00087	8b 55 0c	 mov	 edx, DWORD PTR __Node$[ebp]
$LN99@Linsert:

; 976  : 
; 977  : 			if (_DEBUG_LT_PRED(this->comp,

  0008a	8b 47 0c	 mov	 eax, DWORD PTR [edi+12]

; 978  : 				this->_Key(_Where._Mynode()),
; 979  : 				this->_Kfn(_Val)))
; 980  : 				return (_Pairib(_Insert(_Addleft, _Wherenode, _Node), true));

  0008d	52		 push	 edx
  0008e	3b 42 0c	 cmp	 eax, DWORD PTR [edx+12]
  00091	7d 24		 jge	 SHORT $LN2@Linsert
  00093	8b 4d fc	 mov	 ecx, DWORD PTR __Addleft$[ebp]
  00096	56		 push	 esi
  00097	51		 push	 ecx
  00098	8d 55 10	 lea	 edx, DWORD PTR $T216816[ebp]
  0009b	52		 push	 edx
  0009c	8b cb		 mov	 ecx, ebx
  0009e	e8 00 00 00 00	 call	 ?_Insert@?$_Tree@V?$_Tmap_traits@HHU?$less@H@std@@V?$allocator@U?$pair@$$CBHH@std@@@2@$0A@@std@@@std@@IAE?AV?$_Tree_iterator@V?$_Tree_val@V?$_Tmap_traits@HHU?$less@H@std@@V?$allocator@U?$pair@$$CBHH@std@@@2@$0A@@std@@@std@@@2@_NPAU_Node@?$_Tree_nod@V?$_Tmap_traits@HHU?$less@H@std@@V?$allocator@U?$pair@$$CBHH@std@@@2@$0A@@std@@@2@1@Z ; std::_Tree<std::_Tmap_traits<int,int,std::less<int>,std::allocator<std::pair<int const ,int> >,0> >::_Insert
  000a3	8b 08		 mov	 ecx, DWORD PTR [eax]
  000a5	8b 45 08	 mov	 eax, DWORD PTR ___$ReturnUdt$[ebp]
  000a8	5f		 pop	 edi
  000a9	5e		 pop	 esi
  000aa	89 08		 mov	 DWORD PTR [eax], ecx
  000ac	c6 40 04 01	 mov	 BYTE PTR [eax+4], 1
  000b0	5b		 pop	 ebx

; 989  : 				}
; 990  : 			}
; 991  : 		}

  000b1	8b e5		 mov	 esp, ebp
  000b3	5d		 pop	 ebp
  000b4	c2 0c 00	 ret	 12			; 0000000cH
$LN2@Linsert:

; 981  : 			else
; 982  : 				{	// duplicate, don't insert
; 983  : 				_Dest_val(this->_Alval,
; 984  : 					_STD addressof(this->_Myval(_Node)));
; 985  : 
; 986  : 				this->_Alnod.deallocate(_Node, 1);

  000b7	e8 00 00 00 00	 call	 ??3@YAXPAX@Z		; operator delete

; 987  : 
; 988  : 				return (_Pairib(_Where, false));

  000bc	8b 45 08	 mov	 eax, DWORD PTR ___$ReturnUdt$[ebp]
  000bf	83 c4 04	 add	 esp, 4
  000c2	89 38		 mov	 DWORD PTR [eax], edi
  000c4	5f		 pop	 edi
  000c5	5e		 pop	 esi
  000c6	c6 40 04 00	 mov	 BYTE PTR [eax+4], 0
  000ca	5b		 pop	 ebx

; 989  : 				}
; 990  : 			}
; 991  : 		}

  000cb	8b e5		 mov	 esp, ebp
  000cd	5d		 pop	 ebp
  000ce	c2 0c 00	 ret	 12			; 0000000cH
?_Linsert@?$_Tree@V?$_Tmap_traits@HHU?$less@H@std@@V?$allocator@U?$pair@$$CBHH@std@@@2@$0A@@std@@@std@@QAE?AU?$pair@V?$_Tree_iterator@V?$_Tree_val@V?$_Tmap_traits@HHU?$less@H@std@@V?$allocator@U?$pair@$$CBHH@std@@@2@$0A@@std@@@std@@@std@@_N@2@PAU_Node@?$_Tree_nod@V?$_Tmap_traits@HHU?$less@H@std@@V?$allocator@U?$pair@$$CBHH@std@@@2@$0A@@std@@@2@_N@Z ENDP ; std::_Tree<std::_Tmap_traits<int,int,std::less<int>,std::allocator<std::pair<int const ,int> >,0> >::_Linsert
_TEXT	ENDS
PUBLIC	??$_Cons_val@V?$allocator@U?$pair@$$CBHH@std@@@std@@U?$pair@$$CBHH@2@U32@@std@@YAXAAV?$allocator@U?$pair@$$CBHH@std@@@0@PAU?$pair@$$CBHH@0@$$QAU20@@Z ; std::_Cons_val<std::allocator<std::pair<int const ,int> >,std::pair<int const ,int>,std::pair<int const ,int> >
; Function compile flags: /Ogtp
; File d:\program files (x86)\microsoft visual studio 10.0\vc\include\xmemory
;	COMDAT ??$_Cons_val@V?$allocator@U?$pair@$$CBHH@std@@@std@@U?$pair@$$CBHH@2@U32@@std@@YAXAAV?$allocator@U?$pair@$$CBHH@std@@@0@PAU?$pair@$$CBHH@0@$$QAU20@@Z
_TEXT	SEGMENT
__Alval$ = 8						; size = 4
__Pdest$ = 12						; size = 4
__Src$ = 16						; size = 4
??$_Cons_val@V?$allocator@U?$pair@$$CBHH@std@@@std@@U?$pair@$$CBHH@2@U32@@std@@YAXAAV?$allocator@U?$pair@$$CBHH@std@@@0@PAU?$pair@$$CBHH@0@$$QAU20@@Z PROC ; std::_Cons_val<std::allocator<std::pair<int const ,int> >,std::pair<int const ,int>,std::pair<int const ,int> >, COMDAT

; 279  : 	{	// construct using allocator

  00000	55		 push	 ebp
  00001	8b ec		 mov	 ebp, esp

; 280  : 	_Alval.construct(_Pdest, _STD forward<_Ty2>(_Src));

  00003	8b 45 0c	 mov	 eax, DWORD PTR __Pdest$[ebp]
  00006	85 c0		 test	 eax, eax
  00008	74 0d		 je	 SHORT $LN7@Cons_val
  0000a	8b 4d 10	 mov	 ecx, DWORD PTR __Src$[ebp]
  0000d	8b 11		 mov	 edx, DWORD PTR [ecx]
  0000f	89 10		 mov	 DWORD PTR [eax], edx
  00011	8b 49 04	 mov	 ecx, DWORD PTR [ecx+4]
  00014	89 48 04	 mov	 DWORD PTR [eax+4], ecx
$LN7@Cons_val:

; 281  : 	}

  00017	5d		 pop	 ebp
  00018	c3		 ret	 0
??$_Cons_val@V?$allocator@U?$pair@$$CBHH@std@@@std@@U?$pair@$$CBHH@2@U32@@std@@YAXAAV?$allocator@U?$pair@$$CBHH@std@@@0@PAU?$pair@$$CBHH@0@$$QAU20@@Z ENDP ; std::_Cons_val<std::allocator<std::pair<int const ,int> >,std::pair<int const ,int>,std::pair<int const ,int> >
_TEXT	ENDS
PUBLIC	?find@?$_Tree@V?$_Tmap_traits@HHU?$less@H@std@@V?$allocator@U?$pair@$$CBHH@std@@@2@$0A@@std@@@std@@QAE?AV?$_Tree_iterator@V?$_Tree_val@V?$_Tmap_traits@HHU?$less@H@std@@V?$allocator@U?$pair@$$CBHH@std@@@2@$0A@@std@@@std@@@2@ABH@Z ; std::_Tree<std::_Tmap_traits<int,int,std::less<int>,std::allocator<std::pair<int const ,int> >,0> >::find
; Function compile flags: /Ogtp
; File d:\program files (x86)\microsoft visual studio 10.0\vc\include\xtree
;	COMDAT ?find@?$_Tree@V?$_Tmap_traits@HHU?$less@H@std@@V?$allocator@U?$pair@$$CBHH@std@@@2@$0A@@std@@@std@@QAE?AV?$_Tree_iterator@V?$_Tree_val@V?$_Tmap_traits@HHU?$less@H@std@@V?$allocator@U?$pair@$$CBHH@std@@@2@$0A@@std@@@std@@@2@ABH@Z
_TEXT	SEGMENT
$T217201 = -4						; size = 4
___$ReturnUdt$ = 8					; size = 4
__Where$ = 12						; size = 4
__Keyval$ = 12						; size = 4
?find@?$_Tree@V?$_Tmap_traits@HHU?$less@H@std@@V?$allocator@U?$pair@$$CBHH@std@@@2@$0A@@std@@@std@@QAE?AV?$_Tree_iterator@V?$_Tree_val@V?$_Tmap_traits@HHU?$less@H@std@@V?$allocator@U?$pair@$$CBHH@std@@@2@$0A@@std@@@std@@@2@ABH@Z PROC ; std::_Tree<std::_Tmap_traits<int,int,std::less<int>,std::allocator<std::pair<int const ,int> >,0> >::find, COMDAT
; _this$ = ecx

; 1423 : 		{	// find an element in mutable sequence that matches _Keyval

  00000	55		 push	 ebp
  00001	8b ec		 mov	 ebp, esp
  00003	51		 push	 ecx

; 1424 : 		iterator _Where = lower_bound(_Keyval);

  00004	8b 51 04	 mov	 edx, DWORD PTR [ecx+4]
  00007	8b 42 04	 mov	 eax, DWORD PTR [edx+4]
  0000a	80 78 15 00	 cmp	 BYTE PTR [eax+21], 0
  0000e	57		 push	 edi
  0000f	8b 7d 0c	 mov	 edi, DWORD PTR __Keyval$[ebp]
  00012	75 18		 jne	 SHORT $LN9@find
  00014	56		 push	 esi
  00015	8b 37		 mov	 esi, DWORD PTR [edi]
$LL10@find:
  00017	39 70 0c	 cmp	 DWORD PTR [eax+12], esi
  0001a	7d 05		 jge	 SHORT $LN8@find
  0001c	8b 40 08	 mov	 eax, DWORD PTR [eax+8]
  0001f	eb 04		 jmp	 SHORT $LN7@find
$LN8@find:
  00021	8b d0		 mov	 edx, eax
  00023	8b 00		 mov	 eax, DWORD PTR [eax]
$LN7@find:
  00025	80 78 15 00	 cmp	 BYTE PTR [eax+21], 0
  00029	74 ec		 je	 SHORT $LL10@find
  0002b	5e		 pop	 esi
$LN9@find:

; 1425 : 		return (_Where == end()
; 1426 : 			|| _DEBUG_LT_PRED(this->comp,
; 1427 : 				_Keyval, this->_Key(_Where._Mynode()))
; 1428 : 					? end() : _Where);

  0002c	8b 41 04	 mov	 eax, DWORD PTR [ecx+4]
  0002f	89 55 0c	 mov	 DWORD PTR __Where$[ebp], edx
  00032	3b d0		 cmp	 edx, eax
  00034	74 18		 je	 SHORT $LN3@find
  00036	8b 0f		 mov	 ecx, DWORD PTR [edi]
  00038	3b 4a 0c	 cmp	 ecx, DWORD PTR [edx+12]
  0003b	7c 11		 jl	 SHORT $LN3@find
  0003d	8d 45 0c	 lea	 eax, DWORD PTR __Where$[ebp]
  00040	8b 10		 mov	 edx, DWORD PTR [eax]
  00042	8b 45 08	 mov	 eax, DWORD PTR ___$ReturnUdt$[ebp]
  00045	89 10		 mov	 DWORD PTR [eax], edx
  00047	5f		 pop	 edi

; 1429 : 		}

  00048	8b e5		 mov	 esp, ebp
  0004a	5d		 pop	 ebp
  0004b	c2 08 00	 ret	 8
$LN3@find:

; 1425 : 		return (_Where == end()
; 1426 : 			|| _DEBUG_LT_PRED(this->comp,
; 1427 : 				_Keyval, this->_Key(_Where._Mynode()))
; 1428 : 					? end() : _Where);

  0004e	89 45 fc	 mov	 DWORD PTR $T217201[ebp], eax
  00051	8d 45 fc	 lea	 eax, DWORD PTR $T217201[ebp]
  00054	8b 10		 mov	 edx, DWORD PTR [eax]
  00056	8b 45 08	 mov	 eax, DWORD PTR ___$ReturnUdt$[ebp]
  00059	89 10		 mov	 DWORD PTR [eax], edx
  0005b	5f		 pop	 edi

; 1429 : 		}

  0005c	8b e5		 mov	 esp, ebp
  0005e	5d		 pop	 ebp
  0005f	c2 08 00	 ret	 8
?find@?$_Tree@V?$_Tmap_traits@HHU?$less@H@std@@V?$allocator@U?$pair@$$CBHH@std@@@2@$0A@@std@@@std@@QAE?AV?$_Tree_iterator@V?$_Tree_val@V?$_Tmap_traits@HHU?$less@H@std@@V?$allocator@U?$pair@$$CBHH@std@@@2@$0A@@std@@@std@@@2@ABH@Z ENDP ; std::_Tree<std::_Tmap_traits<int,int,std::less<int>,std::allocator<std::pair<int const ,int> >,0> >::find
_TEXT	ENDS
PUBLIC	?_Tidy@?$_Tree@V?$_Tmap_traits@HHU?$less@H@std@@V?$allocator@U?$pair@$$CBHH@std@@@2@$0A@@std@@@std@@IAEXXZ ; std::_Tree<std::_Tmap_traits<int,int,std::less<int>,std::allocator<std::pair<int const ,int> >,0> >::_Tidy
; Function compile flags: /Ogtp
;	COMDAT ?_Tidy@?$_Tree@V?$_Tmap_traits@HHU?$less@H@std@@V?$allocator@U?$pair@$$CBHH@std@@@2@$0A@@std@@@std@@IAEXXZ
_TEXT	SEGMENT
$T217425 = -4						; size = 4
?_Tidy@?$_Tree@V?$_Tmap_traits@HHU?$less@H@std@@V?$allocator@U?$pair@$$CBHH@std@@@2@$0A@@std@@@std@@IAEXXZ PROC ; std::_Tree<std::_Tmap_traits<int,int,std::less<int>,std::allocator<std::pair<int const ,int> >,0> >::_Tidy, COMDAT
; _this$ = ecx

; 1865 : 		{	// free all storage

  00000	55		 push	 ebp
  00001	8b ec		 mov	 ebp, esp
  00003	51		 push	 ecx

; 1866 : 		erase(begin(), end());

  00004	8b 41 04	 mov	 eax, DWORD PTR [ecx+4]
  00007	8b 10		 mov	 edx, DWORD PTR [eax]
  00009	50		 push	 eax
  0000a	52		 push	 edx
  0000b	8d 45 fc	 lea	 eax, DWORD PTR $T217425[ebp]
  0000e	50		 push	 eax
  0000f	e8 00 00 00 00	 call	 ?erase@?$_Tree@V?$_Tmap_traits@HHU?$less@H@std@@V?$allocator@U?$pair@$$CBHH@std@@@2@$0A@@std@@@std@@QAE?AV?$_Tree_iterator@V?$_Tree_val@V?$_Tmap_traits@HHU?$less@H@std@@V?$allocator@U?$pair@$$CBHH@std@@@2@$0A@@std@@@std@@@2@V?$_Tree_const_iterator@V?$_Tree_val@V?$_Tmap_traits@HHU?$less@H@std@@V?$allocator@U?$pair@$$CBHH@std@@@2@$0A@@std@@@std@@@2@0@Z ; std::_Tree<std::_Tmap_traits<int,int,std::less<int>,std::allocator<std::pair<int const ,int> >,0> >::erase

; 1867 : 		}

  00014	8b e5		 mov	 esp, ebp
  00016	5d		 pop	 ebp
  00017	c3		 ret	 0
?_Tidy@?$_Tree@V?$_Tmap_traits@HHU?$less@H@std@@V?$allocator@U?$pair@$$CBHH@std@@@2@$0A@@std@@@std@@IAEXXZ ENDP ; std::_Tree<std::_Tmap_traits<int,int,std::less<int>,std::allocator<std::pair<int const ,int> >,0> >::_Tidy
_TEXT	ENDS
PUBLIC	?_Insert@?$_Tree@V?$_Tmap_traits@HHU?$less@H@std@@V?$allocator@U?$pair@$$CBHH@std@@@2@$0A@@std@@@std@@QAE?AV?$_Tree_iterator@V?$_Tree_val@V?$_Tmap_traits@HHU?$less@H@std@@V?$allocator@U?$pair@$$CBHH@std@@@2@$0A@@std@@@std@@@2@V?$_Tree_const_iterator@V?$_Tree_val@V?$_Tmap_traits@HHU?$less@H@std@@V?$allocator@U?$pair@$$CBHH@std@@@2@$0A@@std@@@std@@@2@PAU_Node@?$_Tree_nod@V?$_Tmap_traits@HHU?$less@H@std@@V?$allocator@U?$pair@$$CBHH@std@@@2@$0A@@std@@@2@@Z ; std::_Tree<std::_Tmap_traits<int,int,std::less<int>,std::allocator<std::pair<int const ,int> >,0> >::_Insert
; Function compile flags: /Ogtp
;	COMDAT ?_Insert@?$_Tree@V?$_Tmap_traits@HHU?$less@H@std@@V?$allocator@U?$pair@$$CBHH@std@@@2@$0A@@std@@@std@@QAE?AV?$_Tree_iterator@V?$_Tree_val@V?$_Tmap_traits@HHU?$less@H@std@@V?$allocator@U?$pair@$$CBHH@std@@@2@$0A@@std@@@std@@@2@V?$_Tree_const_iterator@V?$_Tree_val@V?$_Tmap_traits@HHU?$less@H@std@@V?$allocator@U?$pair@$$CBHH@std@@@2@$0A@@std@@@std@@@2@PAU_Node@?$_Tree_nod@V?$_Tmap_traits@HHU?$less@H@std@@V?$allocator@U?$pair@$$CBHH@std@@@2@$0A@@std@@@2@@Z
_TEXT	SEGMENT
$T217519 = -8						; size = 8
___$ReturnUdt$ = 8					; size = 4
__Where$ = 12						; size = 4
__Next$ = 16						; size = 4
__Node$ = 16						; size = 4
?_Insert@?$_Tree@V?$_Tmap_traits@HHU?$less@H@std@@V?$allocator@U?$pair@$$CBHH@std@@@2@$0A@@std@@@std@@QAE?AV?$_Tree_iterator@V?$_Tree_val@V?$_Tmap_traits@HHU?$less@H@std@@V?$allocator@U?$pair@$$CBHH@std@@@2@$0A@@std@@@std@@@2@V?$_Tree_const_iterator@V?$_Tree_val@V?$_Tmap_traits@HHU?$less@H@std@@V?$allocator@U?$pair@$$CBHH@std@@@2@$0A@@std@@@std@@@2@PAU_Node@?$_Tree_nod@V?$_Tmap_traits@HHU?$less@H@std@@V?$allocator@U?$pair@$$CBHH@std@@@2@$0A@@std@@@2@@Z PROC ; std::_Tree<std::_Tmap_traits<int,int,std::less<int>,std::allocator<std::pair<int const ,int> >,0> >::_Insert, COMDAT
; _this$ = ecx

; 1089 : 		{	// try to insert node at _Node using _Where as a hint

  00000	55		 push	 ebp
  00001	8b ec		 mov	 ebp, esp
  00003	83 ec 08	 sub	 esp, 8
  00006	56		 push	 esi
  00007	8b f1		 mov	 esi, ecx

; 1090 :  #if _ITERATOR_DEBUG_LEVEL == 2
; 1091 : 		if (_Where._Getcont() != this)
; 1092 : 			_DEBUG_ERROR("map/set insert iterator outside range");
; 1093 :  #endif /* _ITERATOR_DEBUG_LEVEL == 2 */
; 1094 : 
; 1095 : 		const value_type& _Val = this->_Myval(_Node);
; 1096 : 
; 1097 : 		const_iterator _Next;
; 1098 : 		bool _Leftish = false;	// assume nearest point is end of sequence
; 1099 : 
; 1100 : 		if (size() == 0)

  00009	83 7e 08 00	 cmp	 DWORD PTR [esi+8], 0

; 1101 : 			return (_Insert(true, this->_Myhead, _Node));	// empty tree

  0000d	8b 46 04	 mov	 eax, DWORD PTR [esi+4]
  00010	57		 push	 edi
  00011	8b 7d 10	 mov	 edi, DWORD PTR __Node$[ebp]
  00014	75 17		 jne	 SHORT $LN33@Insert@2
  00016	57		 push	 edi
  00017	8b 7d 08	 mov	 edi, DWORD PTR ___$ReturnUdt$[ebp]
  0001a	50		 push	 eax
  0001b	6a 01		 push	 1
  0001d	57		 push	 edi
  0001e	e8 00 00 00 00	 call	 ?_Insert@?$_Tree@V?$_Tmap_traits@HHU?$less@H@std@@V?$allocator@U?$pair@$$CBHH@std@@@2@$0A@@std@@@std@@IAE?AV?$_Tree_iterator@V?$_Tree_val@V?$_Tmap_traits@HHU?$less@H@std@@V?$allocator@U?$pair@$$CBHH@std@@@2@$0A@@std@@@std@@@2@_NPAU_Node@?$_Tree_nod@V?$_Tmap_traits@HHU?$less@H@std@@V?$allocator@U?$pair@$$CBHH@std@@@2@$0A@@std@@@2@1@Z ; std::_Tree<std::_Tmap_traits<int,int,std::less<int>,std::allocator<std::pair<int const ,int> >,0> >::_Insert
  00023	8b c7		 mov	 eax, edi
  00025	5f		 pop	 edi
  00026	5e		 pop	 esi

; 1181 : 		}

  00027	8b e5		 mov	 esp, ebp
  00029	5d		 pop	 ebp
  0002a	c2 0c 00	 ret	 12			; 0000000cH
$LN33@Insert@2:
  0002d	53		 push	 ebx

; 1102 : 		else if (this->_Multi)
; 1103 : 			{	// insert even if duplicate
; 1104 : 			if (_Where == begin())
; 1105 : 				{	// insert at beginning if before first element
; 1106 : 				if (!_DEBUG_LT_PRED(this->comp,
; 1107 : 					this->_Key(_Where._Mynode()), this->_Kfn(_Val)))
; 1108 : 					return (_Insert(true, _Where._Mynode(), _Node));
; 1109 : 				_Leftish = true;	// nearest point is beginning of sequence
; 1110 : 				}
; 1111 : 			else if (_Where == end())
; 1112 : 				{	// insert at end if after last element
; 1113 : 				if (!_DEBUG_LT_PRED(this->comp,
; 1114 : 					this->_Kfn(_Val), this->_Key(_Rmost())))
; 1115 : 					return (_Insert(false, _Rmost(), _Node));
; 1116 : 				}
; 1117 : 			else if (!_DEBUG_LT_PRED(this->comp,
; 1118 : 				this->_Key(_Where._Mynode()), this->_Kfn(_Val))
; 1119 : 				&& !_DEBUG_LT_PRED(this->comp,
; 1120 : 					this->_Kfn(_Val),
; 1121 : 					this->_Key((--(_Next = _Where))._Mynode())))
; 1122 : 				{	// insert before _Where
; 1123 : 				if (this->_Isnil(this->_Right(_Next._Mynode())))
; 1124 : 					return (_Insert(false, _Next._Mynode(), _Node));
; 1125 : 				else
; 1126 : 					return (_Insert(true, _Where._Mynode(), _Node));
; 1127 : 				}
; 1128 : 			else if (!_DEBUG_LT_PRED(this->comp,
; 1129 : 				this->_Kfn(_Val), this->_Key(_Where._Mynode()))
; 1130 : 				&& (++(_Next = _Where) == end()
; 1131 : 					|| !_DEBUG_LT_PRED(this->comp,
; 1132 : 						this->_Key(_Next._Mynode()), this->_Kfn(_Val))))
; 1133 : 				{	// insert after _Where
; 1134 : 				if (this->_Isnil(this->_Right(_Where._Mynode())))
; 1135 : 					return (_Insert(false, _Where._Mynode(), _Node));
; 1136 : 				else
; 1137 : 					return (_Insert(true, _Next._Mynode(), _Node));
; 1138 : 				}
; 1139 : 			else
; 1140 : 				_Leftish = true;	// nearest point is beginning of sequence
; 1141 : 			}
; 1142 : 		else
; 1143 : 			{	// insert only if unique
; 1144 : 			if (_Where == begin())

  0002e	8b 5d 0c	 mov	 ebx, DWORD PTR __Where$[ebp]
  00031	3b 18		 cmp	 ebx, DWORD PTR [eax]
  00033	75 26		 jne	 SHORT $LN14@Insert@2

; 1145 : 				{	// insert at beginning if before first element
; 1146 : 				if (_DEBUG_LT_PRED(this->comp,

  00035	8b 4f 0c	 mov	 ecx, DWORD PTR [edi+12]
  00038	3b 4b 0c	 cmp	 ecx, DWORD PTR [ebx+12]
  0003b	0f 8d f4 00 00
	00		 jge	 $LN333@Insert@2

; 1147 : 					this->_Kfn(_Val), this->_Key(_Where._Mynode())))
; 1148 : 					return (_Insert(true, _Where._Mynode(), _Node));

  00041	57		 push	 edi
  00042	8b 7d 08	 mov	 edi, DWORD PTR ___$ReturnUdt$[ebp]
  00045	53		 push	 ebx
  00046	6a 01		 push	 1
  00048	57		 push	 edi
  00049	8b ce		 mov	 ecx, esi
  0004b	e8 00 00 00 00	 call	 ?_Insert@?$_Tree@V?$_Tmap_traits@HHU?$less@H@std@@V?$allocator@U?$pair@$$CBHH@std@@@2@$0A@@std@@@std@@IAE?AV?$_Tree_iterator@V?$_Tree_val@V?$_Tmap_traits@HHU?$less@H@std@@V?$allocator@U?$pair@$$CBHH@std@@@2@$0A@@std@@@std@@@2@_NPAU_Node@?$_Tree_nod@V?$_Tmap_traits@HHU?$less@H@std@@V?$allocator@U?$pair@$$CBHH@std@@@2@$0A@@std@@@2@1@Z ; std::_Tree<std::_Tmap_traits<int,int,std::less<int>,std::allocator<std::pair<int const ,int> >,0> >::_Insert
  00050	5b		 pop	 ebx
  00051	8b c7		 mov	 eax, edi
  00053	5f		 pop	 edi
  00054	5e		 pop	 esi

; 1181 : 		}

  00055	8b e5		 mov	 esp, ebp
  00057	5d		 pop	 ebp
  00058	c2 0c 00	 ret	 12			; 0000000cH
$LN14@Insert@2:

; 1149 : 				}
; 1150 : 			else if (_Where == end())

  0005b	3b d8		 cmp	 ebx, eax
  0005d	75 27		 jne	 SHORT $LN11@Insert@2

; 1151 : 				{	// insert at end if after last element
; 1152 : 				if (_DEBUG_LT_PRED(this->comp,

  0005f	8b 40 08	 mov	 eax, DWORD PTR [eax+8]
  00062	8b 50 0c	 mov	 edx, DWORD PTR [eax+12]
  00065	3b 57 0c	 cmp	 edx, DWORD PTR [edi+12]
  00068	0f 8d c7 00 00
	00		 jge	 $LN333@Insert@2

; 1153 : 					this->_Key(_Rmost()), this->_Kfn(_Val)))
; 1154 : 					return (_Insert(false, _Rmost(), _Node));

  0006e	57		 push	 edi
  0006f	8b 7d 08	 mov	 edi, DWORD PTR ___$ReturnUdt$[ebp]
  00072	50		 push	 eax
  00073	6a 00		 push	 0
  00075	57		 push	 edi
  00076	e8 00 00 00 00	 call	 ?_Insert@?$_Tree@V?$_Tmap_traits@HHU?$less@H@std@@V?$allocator@U?$pair@$$CBHH@std@@@2@$0A@@std@@@std@@IAE?AV?$_Tree_iterator@V?$_Tree_val@V?$_Tmap_traits@HHU?$less@H@std@@V?$allocator@U?$pair@$$CBHH@std@@@2@$0A@@std@@@std@@@2@_NPAU_Node@?$_Tree_nod@V?$_Tmap_traits@HHU?$less@H@std@@V?$allocator@U?$pair@$$CBHH@std@@@2@$0A@@std@@@2@1@Z ; std::_Tree<std::_Tmap_traits<int,int,std::less<int>,std::allocator<std::pair<int const ,int> >,0> >::_Insert
  0007b	5b		 pop	 ebx
  0007c	8b c7		 mov	 eax, edi
  0007e	5f		 pop	 edi
  0007f	5e		 pop	 esi

; 1181 : 		}

  00080	8b e5		 mov	 esp, ebp
  00082	5d		 pop	 ebp
  00083	c2 0c 00	 ret	 12			; 0000000cH
$LN11@Insert@2:

; 1155 : 				}
; 1156 : 			else if (_DEBUG_LT_PRED(this->comp,
; 1157 : 				this->_Kfn(_Val), this->_Key(_Where._Mynode()))
; 1158 : 				&& _DEBUG_LT_PRED(this->comp,

  00086	8b 47 0c	 mov	 eax, DWORD PTR [edi+12]
  00089	3b 43 0c	 cmp	 eax, DWORD PTR [ebx+12]
  0008c	7d 4d		 jge	 SHORT $LN332@Insert@2
  0008e	8d 4d 10	 lea	 ecx, DWORD PTR __Next$[ebp]
  00091	89 5d 10	 mov	 DWORD PTR __Next$[ebp], ebx
  00094	e8 00 00 00 00	 call	 ??F?$_Tree_unchecked_const_iterator@V?$_Tree_val@V?$_Tmap_traits@HHU?$less@H@std@@V?$allocator@U?$pair@$$CBHH@std@@@2@$0A@@std@@@std@@U_Iterator_base0@2@@std@@QAEAAV01@XZ ; std::_Tree_unchecked_const_iterator<std::_Tree_val<std::_Tmap_traits<int,int,std::less<int>,std::allocator<std::pair<int const ,int> >,0> >,std::_Iterator_base0>::operator--
  00099	8b 45 10	 mov	 eax, DWORD PTR __Next$[ebp]
  0009c	8b 4f 0c	 mov	 ecx, DWORD PTR [edi+12]
  0009f	39 48 0c	 cmp	 DWORD PTR [eax+12], ecx
  000a2	7d 37		 jge	 SHORT $LN332@Insert@2

; 1159 : 					this->_Key((--(_Next = _Where))._Mynode()),
; 1160 : 					this->_Kfn(_Val)))
; 1161 : 				{	// insert before _Where
; 1162 : 				if (this->_Isnil(this->_Right(_Next._Mynode())))

  000a4	8b 48 08	 mov	 ecx, DWORD PTR [eax+8]
  000a7	80 79 15 00	 cmp	 BYTE PTR [ecx+21], 0

; 1163 : 					return (_Insert(false, _Next._Mynode(), _Node));

  000ab	57		 push	 edi
  000ac	8b 7d 08	 mov	 edi, DWORD PTR ___$ReturnUdt$[ebp]
  000af	8b ce		 mov	 ecx, esi
  000b1	74 14		 je	 SHORT $LN7@Insert@2
  000b3	50		 push	 eax
  000b4	6a 00		 push	 0
  000b6	57		 push	 edi
  000b7	e8 00 00 00 00	 call	 ?_Insert@?$_Tree@V?$_Tmap_traits@HHU?$less@H@std@@V?$allocator@U?$pair@$$CBHH@std@@@2@$0A@@std@@@std@@IAE?AV?$_Tree_iterator@V?$_Tree_val@V?$_Tmap_traits@HHU?$less@H@std@@V?$allocator@U?$pair@$$CBHH@std@@@2@$0A@@std@@@std@@@2@_NPAU_Node@?$_Tree_nod@V?$_Tmap_traits@HHU?$less@H@std@@V?$allocator@U?$pair@$$CBHH@std@@@2@$0A@@std@@@2@1@Z ; std::_Tree<std::_Tmap_traits<int,int,std::less<int>,std::allocator<std::pair<int const ,int> >,0> >::_Insert
  000bc	5b		 pop	 ebx
  000bd	8b c7		 mov	 eax, edi
  000bf	5f		 pop	 edi
  000c0	5e		 pop	 esi

; 1181 : 		}

  000c1	8b e5		 mov	 esp, ebp
  000c3	5d		 pop	 ebp
  000c4	c2 0c 00	 ret	 12			; 0000000cH
$LN7@Insert@2:

; 1164 : 				else
; 1165 : 					return (_Insert(true, _Where._Mynode(), _Node));

  000c7	53		 push	 ebx
  000c8	6a 01		 push	 1
  000ca	57		 push	 edi
  000cb	e8 00 00 00 00	 call	 ?_Insert@?$_Tree@V?$_Tmap_traits@HHU?$less@H@std@@V?$allocator@U?$pair@$$CBHH@std@@@2@$0A@@std@@@std@@IAE?AV?$_Tree_iterator@V?$_Tree_val@V?$_Tmap_traits@HHU?$less@H@std@@V?$allocator@U?$pair@$$CBHH@std@@@2@$0A@@std@@@std@@@2@_NPAU_Node@?$_Tree_nod@V?$_Tmap_traits@HHU?$less@H@std@@V?$allocator@U?$pair@$$CBHH@std@@@2@$0A@@std@@@2@1@Z ; std::_Tree<std::_Tmap_traits<int,int,std::less<int>,std::allocator<std::pair<int const ,int> >,0> >::_Insert
  000d0	5b		 pop	 ebx
  000d1	8b c7		 mov	 eax, edi
  000d3	5f		 pop	 edi
  000d4	5e		 pop	 esi

; 1181 : 		}

  000d5	8b e5		 mov	 esp, ebp
  000d7	5d		 pop	 ebp
  000d8	c2 0c 00	 ret	 12			; 0000000cH
$LN332@Insert@2:

; 1166 : 				}
; 1167 : 			else if (_DEBUG_LT_PRED(this->comp,
; 1168 : 				this->_Key(_Where._Mynode()), this->_Kfn(_Val))
; 1169 : 				&& (++(_Next = _Where) == end()
; 1170 : 					|| _DEBUG_LT_PRED(this->comp,

  000db	8b 47 0c	 mov	 eax, DWORD PTR [edi+12]
  000de	39 43 0c	 cmp	 DWORD PTR [ebx+12], eax
  000e1	7d 52		 jge	 SHORT $LN333@Insert@2
  000e3	8d 4d 10	 lea	 ecx, DWORD PTR __Next$[ebp]
  000e6	89 5d 10	 mov	 DWORD PTR __Next$[ebp], ebx
  000e9	e8 00 00 00 00	 call	 ??E?$_Tree_unchecked_const_iterator@V?$_Tree_val@V?$_Tmap_traits@HHU?$less@H@std@@V?$allocator@U?$pair@$$CBHH@std@@@2@$0A@@std@@@std@@U_Iterator_base0@2@@std@@QAEAAV01@XZ ; std::_Tree_unchecked_const_iterator<std::_Tree_val<std::_Tmap_traits<int,int,std::less<int>,std::allocator<std::pair<int const ,int> >,0> >,std::_Iterator_base0>::operator++
  000ee	8b 45 10	 mov	 eax, DWORD PTR __Next$[ebp]
  000f1	3b 46 04	 cmp	 eax, DWORD PTR [esi+4]
  000f4	74 08		 je	 SHORT $LN3@Insert@2
  000f6	8b 4f 0c	 mov	 ecx, DWORD PTR [edi+12]
  000f9	3b 48 0c	 cmp	 ecx, DWORD PTR [eax+12]
  000fc	7d 37		 jge	 SHORT $LN333@Insert@2
$LN3@Insert@2:

; 1171 : 						this->_Kfn(_Val), this->_Key(_Next._Mynode()))))
; 1172 : 				{	// insert after _Where
; 1173 : 				if (this->_Isnil(this->_Right(_Where._Mynode())))

  000fe	8b 53 08	 mov	 edx, DWORD PTR [ebx+8]
  00101	80 7a 15 00	 cmp	 BYTE PTR [edx+21], 0

; 1174 : 					return (_Insert(false, _Where._Mynode(), _Node));

  00105	57		 push	 edi
  00106	8b 7d 08	 mov	 edi, DWORD PTR ___$ReturnUdt$[ebp]
  00109	8b ce		 mov	 ecx, esi
  0010b	74 14		 je	 SHORT $LN2@Insert@2
  0010d	53		 push	 ebx
  0010e	6a 00		 push	 0
  00110	57		 push	 edi
  00111	e8 00 00 00 00	 call	 ?_Insert@?$_Tree@V?$_Tmap_traits@HHU?$less@H@std@@V?$allocator@U?$pair@$$CBHH@std@@@2@$0A@@std@@@std@@IAE?AV?$_Tree_iterator@V?$_Tree_val@V?$_Tmap_traits@HHU?$less@H@std@@V?$allocator@U?$pair@$$CBHH@std@@@2@$0A@@std@@@std@@@2@_NPAU_Node@?$_Tree_nod@V?$_Tmap_traits@HHU?$less@H@std@@V?$allocator@U?$pair@$$CBHH@std@@@2@$0A@@std@@@2@1@Z ; std::_Tree<std::_Tmap_traits<int,int,std::less<int>,std::allocator<std::pair<int const ,int> >,0> >::_Insert
  00116	5b		 pop	 ebx
  00117	8b c7		 mov	 eax, edi
  00119	5f		 pop	 edi
  0011a	5e		 pop	 esi

; 1181 : 		}

  0011b	8b e5		 mov	 esp, ebp
  0011d	5d		 pop	 ebp
  0011e	c2 0c 00	 ret	 12			; 0000000cH
$LN2@Insert@2:

; 1175 : 				else
; 1176 : 					return (_Insert(true, _Next._Mynode(), _Node));

  00121	50		 push	 eax
  00122	6a 01		 push	 1
  00124	57		 push	 edi
  00125	e8 00 00 00 00	 call	 ?_Insert@?$_Tree@V?$_Tmap_traits@HHU?$less@H@std@@V?$allocator@U?$pair@$$CBHH@std@@@2@$0A@@std@@@std@@IAE?AV?$_Tree_iterator@V?$_Tree_val@V?$_Tmap_traits@HHU?$less@H@std@@V?$allocator@U?$pair@$$CBHH@std@@@2@$0A@@std@@@std@@@2@_NPAU_Node@?$_Tree_nod@V?$_Tmap_traits@HHU?$less@H@std@@V?$allocator@U?$pair@$$CBHH@std@@@2@$0A@@std@@@2@1@Z ; std::_Tree<std::_Tmap_traits<int,int,std::less<int>,std::allocator<std::pair<int const ,int> >,0> >::_Insert
  0012a	5b		 pop	 ebx
  0012b	8b c7		 mov	 eax, edi
  0012d	5f		 pop	 edi
  0012e	5e		 pop	 esi

; 1181 : 		}

  0012f	8b e5		 mov	 esp, ebp
  00131	5d		 pop	 ebp
  00132	c2 0c 00	 ret	 12			; 0000000cH
$LN333@Insert@2:

; 1177 : 				}
; 1178 : 			}
; 1179 : 
; 1180 : 		return (_Linsert(_Node, _Leftish).first);	// try usual insert

  00135	6a 00		 push	 0
  00137	57		 push	 edi
  00138	8d 45 f8	 lea	 eax, DWORD PTR $T217519[ebp]
  0013b	50		 push	 eax
  0013c	8b ce		 mov	 ecx, esi
  0013e	e8 00 00 00 00	 call	 ?_Linsert@?$_Tree@V?$_Tmap_traits@HHU?$less@H@std@@V?$allocator@U?$pair@$$CBHH@std@@@2@$0A@@std@@@std@@QAE?AU?$pair@V?$_Tree_iterator@V?$_Tree_val@V?$_Tmap_traits@HHU?$less@H@std@@V?$allocator@U?$pair@$$CBHH@std@@@2@$0A@@std@@@std@@@std@@_N@2@PAU_Node@?$_Tree_nod@V?$_Tmap_traits@HHU?$less@H@std@@V?$allocator@U?$pair@$$CBHH@std@@@2@$0A@@std@@@2@_N@Z ; std::_Tree<std::_Tmap_traits<int,int,std::less<int>,std::allocator<std::pair<int const ,int> >,0> >::_Linsert
  00143	8b 08		 mov	 ecx, DWORD PTR [eax]
  00145	8b 45 08	 mov	 eax, DWORD PTR ___$ReturnUdt$[ebp]
  00148	5b		 pop	 ebx
  00149	5f		 pop	 edi
  0014a	89 08		 mov	 DWORD PTR [eax], ecx
  0014c	5e		 pop	 esi

; 1181 : 		}

  0014d	8b e5		 mov	 esp, ebp
  0014f	5d		 pop	 ebp
  00150	c2 0c 00	 ret	 12			; 0000000cH
?_Insert@?$_Tree@V?$_Tmap_traits@HHU?$less@H@std@@V?$allocator@U?$pair@$$CBHH@std@@@2@$0A@@std@@@std@@QAE?AV?$_Tree_iterator@V?$_Tree_val@V?$_Tmap_traits@HHU?$less@H@std@@V?$allocator@U?$pair@$$CBHH@std@@@2@$0A@@std@@@std@@@2@V?$_Tree_const_iterator@V?$_Tree_val@V?$_Tmap_traits@HHU?$less@H@std@@V?$allocator@U?$pair@$$CBHH@std@@@2@$0A@@std@@@std@@@2@PAU_Node@?$_Tree_nod@V?$_Tmap_traits@HHU?$less@H@std@@V?$allocator@U?$pair@$$CBHH@std@@@2@$0A@@std@@@2@@Z ENDP ; std::_Tree<std::_Tmap_traits<int,int,std::less<int>,std::allocator<std::pair<int const ,int> >,0> >::_Insert
_TEXT	ENDS
PUBLIC	??$_Buynode@U?$pair@$$CBHH@std@@@?$_Tree_val@V?$_Tmap_traits@HHU?$less@H@std@@V?$allocator@U?$pair@$$CBHH@std@@@2@$0A@@std@@@std@@QAEPAU_Node@?$_Tree_nod@V?$_Tmap_traits@HHU?$less@H@std@@V?$allocator@U?$pair@$$CBHH@std@@@2@$0A@@std@@@1@$$QAU?$pair@$$CBHH@1@@Z ; std::_Tree_val<std::_Tmap_traits<int,int,std::less<int>,std::allocator<std::pair<int const ,int> >,0> >::_Buynode<std::pair<int const ,int> >
; Function compile flags: /Ogtp
;	COMDAT ??$_Buynode@U?$pair@$$CBHH@std@@@?$_Tree_val@V?$_Tmap_traits@HHU?$less@H@std@@V?$allocator@U?$pair@$$CBHH@std@@@2@$0A@@std@@@std@@QAEPAU_Node@?$_Tree_nod@V?$_Tmap_traits@HHU?$less@H@std@@V?$allocator@U?$pair@$$CBHH@std@@@2@$0A@@std@@@1@$$QAU?$pair@$$CBHH@1@@Z
_TEXT	SEGMENT
$T218230 = -12						; size = 12
$T218179 = 8						; size = 4
__Val$ = 8						; size = 4
??$_Buynode@U?$pair@$$CBHH@std@@@?$_Tree_val@V?$_Tmap_traits@HHU?$less@H@std@@V?$allocator@U?$pair@$$CBHH@std@@@2@$0A@@std@@@std@@QAEPAU_Node@?$_Tree_nod@V?$_Tmap_traits@HHU?$less@H@std@@V?$allocator@U?$pair@$$CBHH@std@@@2@$0A@@std@@@1@$$QAU?$pair@$$CBHH@1@@Z PROC ; std::_Tree_val<std::_Tmap_traits<int,int,std::less<int>,std::allocator<std::pair<int const ,int> >,0> >::_Buynode<std::pair<int const ,int> >, COMDAT
; _this$ = ecx

; 586  : 		_Nodeptr _Buynode(_Valty&& _Val)

  00000	55		 push	 ebp
  00001	8b ec		 mov	 ebp, esp
  00003	83 ec 0c	 sub	 esp, 12			; 0000000cH
  00006	56		 push	 esi
  00007	57		 push	 edi

; 587  : 		{	// allocate a node with defaults
; 588  : 		_Nodeptr _Wherenode = _Buynode();

  00008	6a 18		 push	 24			; 00000018H
  0000a	8b f9		 mov	 edi, ecx
  0000c	e8 00 00 00 00	 call	 ??2@YAPAXI@Z		; operator new
  00011	8b f0		 mov	 esi, eax
  00013	33 c0		 xor	 eax, eax
  00015	83 c4 04	 add	 esp, 4
  00018	3b f0		 cmp	 esi, eax
  0001a	74 33		 je	 SHORT $LN12@Buynode@2
  0001c	8b 4f 04	 mov	 ecx, DWORD PTR [edi+4]
  0001f	89 0e		 mov	 DWORD PTR [esi], ecx
  00021	8b 57 04	 mov	 edx, DWORD PTR [edi+4]
  00024	89 56 04	 mov	 DWORD PTR [esi+4], edx
  00027	8b 4f 04	 mov	 ecx, DWORD PTR [edi+4]

; 589  : 
; 590  : 		_TRY_BEGIN
; 591  : 		_Cons_val(this->_Alval, _STD addressof(this->_Myval(_Wherenode)),
; 592  : 			_STD forward<_Valty>(_Val));

  0002a	8b 55 08	 mov	 edx, DWORD PTR __Val$[ebp]
  0002d	66 89 46 14	 mov	 WORD PTR [esi+20], ax
  00031	52		 push	 edx
  00032	8d 46 0c	 lea	 eax, DWORD PTR [esi+12]
  00035	50		 push	 eax
  00036	83 c7 0d	 add	 edi, 13			; 0000000dH
  00039	57		 push	 edi
  0003a	89 4e 08	 mov	 DWORD PTR [esi+8], ecx
  0003d	e8 00 00 00 00	 call	 ??$_Cons_val@V?$allocator@U?$pair@$$CBHH@std@@@std@@U?$pair@$$CBHH@2@U32@@std@@YAXAAV?$allocator@U?$pair@$$CBHH@std@@@0@PAU?$pair@$$CBHH@0@$$QAU20@@Z ; std::_Cons_val<std::allocator<std::pair<int const ,int> >,std::pair<int const ,int>,std::pair<int const ,int> >
  00042	83 c4 0c	 add	 esp, 12			; 0000000cH
  00045	5f		 pop	 edi

; 593  : 		_CATCH_ALL
; 594  : 		this->_Alnod.deallocate(_Wherenode, 1);
; 595  : 		_RERAISE;
; 596  : 		_CATCH_END
; 597  : 
; 598  : 		return (_Wherenode);

  00046	8b c6		 mov	 eax, esi
  00048	5e		 pop	 esi

; 599  : 		}

  00049	8b e5		 mov	 esp, ebp
  0004b	5d		 pop	 ebp
  0004c	c2 04 00	 ret	 4

; 587  : 		{	// allocate a node with defaults
; 588  : 		_Nodeptr _Wherenode = _Buynode();

$LN12@Buynode@2:
  0004f	8d 4d 08	 lea	 ecx, DWORD PTR $T218179[ebp]
  00052	51		 push	 ecx
  00053	8d 4d f4	 lea	 ecx, DWORD PTR $T218230[ebp]
  00056	89 45 08	 mov	 DWORD PTR $T218179[ebp], eax
  00059	e8 00 00 00 00	 call	 ??0exception@std@@QAE@ABQBD@Z ; std::exception::exception
  0005e	68 00 00 00 00	 push	 OFFSET __TI2?AVbad_alloc@std@@
  00063	8d 55 f4	 lea	 edx, DWORD PTR $T218230[ebp]
  00066	52		 push	 edx
  00067	c7 45 f4 00 00
	00 00		 mov	 DWORD PTR $T218230[ebp], OFFSET ??_7bad_alloc@std@@6B@
  0006e	e8 00 00 00 00	 call	 __CxxThrowException@8
$LN44@Buynode@2:
$LN43@Buynode@2:
  00073	cc		 int	 3
??$_Buynode@U?$pair@$$CBHH@std@@@?$_Tree_val@V?$_Tmap_traits@HHU?$less@H@std@@V?$allocator@U?$pair@$$CBHH@std@@@2@$0A@@std@@@std@@QAEPAU_Node@?$_Tree_nod@V?$_Tmap_traits@HHU?$less@H@std@@V?$allocator@U?$pair@$$CBHH@std@@@2@$0A@@std@@@1@$$QAU?$pair@$$CBHH@1@@Z ENDP ; std::_Tree_val<std::_Tmap_traits<int,int,std::less<int>,std::allocator<std::pair<int const ,int> >,0> >::_Buynode<std::pair<int const ,int> >
_TEXT	ENDS
PUBLIC	?IsEnableToMakeSmeltingStoneItem@CJewelOfHarmonySystem@@QAEHPAVCItem@@@Z ; CJewelOfHarmonySystem::IsEnableToMakeSmeltingStoneItem
; Function compile flags: /Ogtp
; File e:\work\tranet_version\gs\gameserver\jewelofharmonysystem.cpp
;	COMDAT ?IsEnableToMakeSmeltingStoneItem@CJewelOfHarmonySystem@@QAEHPAVCItem@@@Z
_TEXT	SEGMENT
_iter$ = -4						; size = 4
$T218269 = 8						; size = 4
_pItem$ = 8						; size = 4
?IsEnableToMakeSmeltingStoneItem@CJewelOfHarmonySystem@@QAEHPAVCItem@@@Z PROC ; CJewelOfHarmonySystem::IsEnableToMakeSmeltingStoneItem, COMDAT
; _this$ = ecx

; 910  : {

  00000	55		 push	 ebp
  00001	8b ec		 mov	 ebp, esp
  00003	51		 push	 ecx
  00004	56		 push	 esi
  00005	57		 push	 edi

; 911  : 	if ( this->_GetItemType(pItem) == JEWELOFHARMONY_ITEM_TYPE_NULL )

  00006	8b 7d 08	 mov	 edi, DWORD PTR _pItem$[ebp]
  00009	57		 push	 edi
  0000a	8b f1		 mov	 esi, ecx
  0000c	e8 00 00 00 00	 call	 ?_GetItemType@CJewelOfHarmonySystem@@QAEHPAVCItem@@@Z ; CJewelOfHarmonySystem::_GetItemType
  00011	85 c0		 test	 eax, eax
  00013	75 0a		 jne	 SHORT $LN5@IsEnableTo@2
$LN30@IsEnableTo@2:
  00015	5f		 pop	 edi

; 912  : 		return FALSE;

  00016	33 c0		 xor	 eax, eax
  00018	5e		 pop	 esi

; 932  : }

  00019	8b e5		 mov	 esp, ebp
  0001b	5d		 pop	 ebp
  0001c	c2 04 00	 ret	 4
$LN5@IsEnableTo@2:

; 913  : 
; 914  : 	if ( this->IsStrengthenByJewelOfHarmony(pItem) == TRUE )

  0001f	57		 push	 edi
  00020	8b ce		 mov	 ecx, esi
  00022	e8 00 00 00 00	 call	 ?IsStrengthenByJewelOfHarmony@CJewelOfHarmonySystem@@QAEHPAVCItem@@@Z ; CJewelOfHarmonySystem::IsStrengthenByJewelOfHarmony
  00027	83 f8 01	 cmp	 eax, 1

; 915  : 		return FALSE;

  0002a	74 e9		 je	 SHORT $LN30@IsEnableTo@2

; 916  : 
; 917  : 	if ( pItem->IsSetItem() != FALSE)

  0002c	8b cf		 mov	 ecx, edi
  0002e	e8 00 00 00 00	 call	 ?IsSetItem@CItem@@QAEHXZ ; CItem::IsSetItem
  00033	85 c0		 test	 eax, eax

; 918  : 		return FALSE;

  00035	75 de		 jne	 SHORT $LN30@IsEnableTo@2

; 919  : 
; 920  : 	std::map<int,int>::iterator iter = this->m_mapEnableMixList.find(pItem->m_Type);

  00037	0f bf 47 06	 movsx	 eax, WORD PTR [edi+6]
  0003b	8d 4d 08	 lea	 ecx, DWORD PTR $T218269[ebp]
  0003e	51		 push	 ecx
  0003f	8d 55 fc	 lea	 edx, DWORD PTR _iter$[ebp]
  00042	52		 push	 edx
  00043	8d 8e 4c 53 00
	00		 lea	 ecx, DWORD PTR [esi+21324]
  00049	89 45 08	 mov	 DWORD PTR $T218269[ebp], eax
  0004c	e8 00 00 00 00	 call	 ?find@?$_Tree@V?$_Tmap_traits@HHU?$less@H@std@@V?$allocator@U?$pair@$$CBHH@std@@@2@$0A@@std@@@std@@QAE?AV?$_Tree_iterator@V?$_Tree_val@V?$_Tmap_traits@HHU?$less@H@std@@V?$allocator@U?$pair@$$CBHH@std@@@2@$0A@@std@@@std@@@2@ABH@Z ; std::_Tree<std::_Tmap_traits<int,int,std::less<int>,std::allocator<std::pair<int const ,int> >,0> >::find

; 921  : 
; 922  : 	if ( iter != this->m_mapEnableMixList.end() )

  00051	8b 45 fc	 mov	 eax, DWORD PTR _iter$[ebp]
  00054	3b 86 50 53 00
	00		 cmp	 eax, DWORD PTR [esi+21328]
  0005a	74 09		 je	 SHORT $LN1@IsEnableTo@2

; 923  : 	{
; 924  : 		int reqLevel = iter->second;
; 925  : 
; 926  : 		if ( pItem->m_Level < reqLevel )

  0005c	0f bf 4f 08	 movsx	 ecx, WORD PTR [edi+8]
  00060	3b 48 10	 cmp	 ecx, DWORD PTR [eax+16]

; 927  : 			return FALSE;

  00063	7c b0		 jl	 SHORT $LN30@IsEnableTo@2
$LN1@IsEnableTo@2:
  00065	5f		 pop	 edi

; 928  : 
; 929  : 	}
; 930  : 
; 931  : 	return TRUE;

  00066	b8 01 00 00 00	 mov	 eax, 1
  0006b	5e		 pop	 esi

; 932  : }

  0006c	8b e5		 mov	 esp, ebp
  0006e	5d		 pop	 ebp
  0006f	c2 04 00	 ret	 4
?IsEnableToMakeSmeltingStoneItem@CJewelOfHarmonySystem@@QAEHPAVCItem@@@Z ENDP ; CJewelOfHarmonySystem::IsEnableToMakeSmeltingStoneItem
_TEXT	ENDS
PUBLIC	??_C@_0GI@PEBNKJPD@?$FLJewelOfHarmony?$FN?$FLSmelt?5Item?5Mix?$FN@ ; `string'
PUBLIC	??_C@_0GK@JILNDENM@?$FLJewelOfHarmony?$FN?$FLSmelt?5Item?5Mix?$FN@ ; `string'
PUBLIC	??_C@_0CN@FAMNANK@?$FLJewelOfHarmony?$FN?$FLSmelt?5Item?5Mix?$FN@ ; `string'
PUBLIC	??_C@_0BP@EOIAKNIF@JewelOfHarmony?$FN?$FLSmelt?5Item?5Mix?$AA@ ; `string'
PUBLIC	_this$GSCopy$
PUBLIC	__$ArrayPad$
PUBLIC	?MakeSmeltingStoneItem@CJewelOfHarmonySystem@@QAEHPAUOBJECTSTRUCT@@@Z ; CJewelOfHarmonySystem::MakeSmeltingStoneItem
;	COMDAT ??_C@_0GI@PEBNKJPD@?$FLJewelOfHarmony?$FN?$FLSmelt?5Item?5Mix?$FN@
CONST	SEGMENT
??_C@_0GI@PEBNKJPD@?$FLJewelOfHarmony?$FN?$FLSmelt?5Item?5Mix?$FN@ DB '[J'
	DB	'ewelOfHarmony][Smelt Item Mix] Smelting Stone Normal[%d] Mix '
	DB	'Fail [%s][%s], Money : %d-%d Rate(%d/%d)', 00H ; `string'
CONST	ENDS
;	COMDAT ??_C@_0GK@JILNDENM@?$FLJewelOfHarmony?$FN?$FLSmelt?5Item?5Mix?$FN@
CONST	SEGMENT
??_C@_0GK@JILNDENM@?$FLJewelOfHarmony?$FN?$FLSmelt?5Item?5Mix?$FN@ DB '[J'
	DB	'ewelOfHarmony][Smelt Item Mix] Smelting Stone Normal[%d] Mix '
	DB	'Success [%s][%s], Money(%d-%d) Rate(%d/%d)', 00H ; `string'
CONST	ENDS
;	COMDAT ??_C@_0CN@FAMNANK@?$FLJewelOfHarmony?$FN?$FLSmelt?5Item?5Mix?$FN@
CONST	SEGMENT
??_C@_0CN@FAMNANK@?$FLJewelOfHarmony?$FN?$FLSmelt?5Item?5Mix?$FN@ DB '[Je'
	DB	'welOfHarmony][Smelt Item Mix] - Mix Start', 00H ; `string'
CONST	ENDS
;	COMDAT ??_C@_0BP@EOIAKNIF@JewelOfHarmony?$FN?$FLSmelt?5Item?5Mix?$AA@
CONST	SEGMENT
??_C@_0BP@EOIAKNIF@JewelOfHarmony?$FN?$FLSmelt?5Item?5Mix?$AA@ DB 'JewelO'
	DB	'fHarmony][Smelt Item Mix', 00H		; `string'
; Function compile flags: /Ogtp
CONST	ENDS
;	COMDAT ?MakeSmeltingStoneItem@CJewelOfHarmonySystem@@QAEHPAUOBJECTSTRUCT@@@Z
_TEXT	SEGMENT
_iItemPos$ = -36					; size = 4
_this$GSCopy$ = -32					; size = 4
_JEWEL_OF_HARMONY_MAKE_SMELTINGSTONE_RATE$ = -28	; size = 4
_iInvalidItemCount$ = -28				; size = 4
_bIsItemNormal$ = -24					; size = 4
_iValidItemCount$ = -24					; size = 4
_pMsg$ = -20						; size = 16
__$ArrayPad$ = -4					; size = 4
_lpObj$ = 8						; size = 4
?MakeSmeltingStoneItem@CJewelOfHarmonySystem@@QAEHPAUOBJECTSTRUCT@@@Z PROC ; CJewelOfHarmonySystem::MakeSmeltingStoneItem, COMDAT
; _this$ = ecx

; 935  : {

  00000	55		 push	 ebp
  00001	8b ec		 mov	 ebp, esp
  00003	83 ec 24	 sub	 esp, 36			; 00000024H
  00006	a1 00 00 00 00	 mov	 eax, DWORD PTR ___security_cookie
  0000b	33 c5		 xor	 eax, ebp
  0000d	89 45 fc	 mov	 DWORD PTR __$ArrayPad$[ebp], eax
  00010	56		 push	 esi
  00011	8b 75 08	 mov	 esi, DWORD PTR _lpObj$[ebp]
  00014	57		 push	 edi

; 936  : 	if ( this->m_bSystemMixSmeltingStone != TRUE )

  00015	bf 01 00 00 00	 mov	 edi, 1

; 1039 : 	}
; 1040 : 	else
; 1041 : 	{
; 1042 : 		g_MixSystem.ChaosBoxInit(lpObj); //ChaosBoxInit(lpObj);

  0001a	89 4d e0	 mov	 DWORD PTR _this$GSCopy$[ebp], ecx
  0001d	39 b9 1c 53 00
	00		 cmp	 DWORD PTR [ecx+21276], edi
  00023	74 30		 je	 SHORT $LN18@MakeSmelti

; 937  : 	{
; 938  : 		GCServerMsgStringSend(lMsg.Get(MSGGET(13,53)), lpObj->m_Index, 1);

  00025	8b 06		 mov	 eax, DWORD PTR [esi]
  00027	57		 push	 edi
  00028	50		 push	 eax
  00029	68 35 0d 00 00	 push	 3381			; 00000d35H
  0002e	b9 00 00 00 00	 mov	 ecx, OFFSET ?lMsg@@3VCMsg@@A ; lMsg
  00033	e8 00 00 00 00	 call	 ?Get@CMsg@@QAEPADH@Z	; CMsg::Get
  00038	50		 push	 eax
  00039	e8 00 00 00 00	 call	 ?GCServerMsgStringSend@@YAXPADHE@Z ; GCServerMsgStringSend
  0003e	83 c4 0c	 add	 esp, 12			; 0000000cH

; 939  : 		return TRUE;

  00041	8b c7		 mov	 eax, edi
  00043	5f		 pop	 edi
  00044	5e		 pop	 esi

; 1054 : }

  00045	8b 4d fc	 mov	 ecx, DWORD PTR __$ArrayPad$[ebp]
  00048	33 cd		 xor	 ecx, ebp
  0004a	e8 00 00 00 00	 call	 @__security_check_cookie@4
  0004f	8b e5		 mov	 esp, ebp
  00051	5d		 pop	 ebp
  00052	c2 04 00	 ret	 4
$LN18@MakeSmelti:
  00055	53		 push	 ebx

; 940  : 	}
; 941  : 
; 942  : 	lpObj->ChaosLock = TRUE;
; 943  : 	int iValidItemCount = 0;
; 944  : 	int iInvalidItemCount = 0;
; 945  : 	int iMakeSmeltingStoneMixPrice = 0;
; 946  : 
; 947  : 	PMSG_CHAOSMIXRESULT pMsg;
; 948  : 
; 949  : 	PHeadSetB((LPBYTE)&pMsg, 0x86, sizeof(pMsg));

  00056	6a 10		 push	 16			; 00000010H
  00058	89 be 88 0e 00
	00		 mov	 DWORD PTR [esi+3720], edi
  0005e	8d 4d ec	 lea	 ecx, DWORD PTR _pMsg$[ebp]
  00061	33 ff		 xor	 edi, edi
  00063	68 86 00 00 00	 push	 134			; 00000086H
  00068	51		 push	 ecx
  00069	89 7d e8	 mov	 DWORD PTR _iValidItemCount$[ebp], edi
  0006c	89 7d e4	 mov	 DWORD PTR _iInvalidItemCount$[ebp], edi
  0006f	e8 00 00 00 00	 call	 ?PHeadSetB@@YAXPAEEH@Z	; PHeadSetB
  00074	83 c4 0c	 add	 esp, 12			; 0000000cH

; 950  : 	pMsg.Result = 0;

  00077	c6 45 ef 00	 mov	 BYTE PTR _pMsg$[ebp+3], 0

; 951  : 	int iItemPos = -1;

  0007b	c7 45 dc ff ff
	ff ff		 mov	 DWORD PTR _iItemPos$[ebp], -1

; 952  : 
; 953  : 	for ( int n=0;n<CHAOS_BOX_SIZE;n++)

  00082	33 db		 xor	 ebx, ebx
  00084	eb 0a 8d a4 24
	00 00 00 00 8d
	49 00		 npad	 12
$LL17@MakeSmelti:

; 954  : 	{
; 955  : 		if ( lpObj->pChaosBox[n].IsItem() == TRUE )

  00090	8b 8e 78 0e 00
	00		 mov	 ecx, DWORD PTR [esi+3704]
  00096	03 cf		 add	 ecx, edi
  00098	e8 00 00 00 00	 call	 ?IsItem@CItem@@QAEHXZ	; CItem::IsItem
  0009d	83 f8 01	 cmp	 eax, 1
  000a0	75 25		 jne	 SHORT $LN16@MakeSmelti

; 956  : 		{
; 957  : 			if ( this->IsEnableToMakeSmeltingStoneItem(&lpObj->pChaosBox[n]) == TRUE )

  000a2	8b 96 78 0e 00
	00		 mov	 edx, DWORD PTR [esi+3704]
  000a8	8b 4d e0	 mov	 ecx, DWORD PTR _this$GSCopy$[ebp]
  000ab	03 d7		 add	 edx, edi
  000ad	52		 push	 edx
  000ae	e8 00 00 00 00	 call	 ?IsEnableToMakeSmeltingStoneItem@CJewelOfHarmonySystem@@QAEHPAVCItem@@@Z ; CJewelOfHarmonySystem::IsEnableToMakeSmeltingStoneItem
  000b3	b9 01 00 00 00	 mov	 ecx, 1
  000b8	3b c1		 cmp	 eax, ecx
  000ba	75 08		 jne	 SHORT $LN13@MakeSmelti

; 958  : 			{
; 959  : 				iValidItemCount++;

  000bc	01 4d e8	 add	 DWORD PTR _iValidItemCount$[ebp], ecx

; 960  : 				iItemPos = n;

  000bf	89 5d dc	 mov	 DWORD PTR _iItemPos$[ebp], ebx

; 961  : 			}
; 962  : 			else

  000c2	eb 03		 jmp	 SHORT $LN16@MakeSmelti
$LN13@MakeSmelti:

; 963  : 			{
; 964  : 				iInvalidItemCount++;

  000c4	01 4d e4	 add	 DWORD PTR _iInvalidItemCount$[ebp], ecx
$LN16@MakeSmelti:

; 952  : 
; 953  : 	for ( int n=0;n<CHAOS_BOX_SIZE;n++)

  000c7	81 c7 d4 00 00
	00		 add	 edi, 212		; 000000d4H
  000cd	43		 inc	 ebx
  000ce	81 ff 80 1a 00
	00		 cmp	 edi, 6784		; 00001a80H
  000d4	7c ba		 jl	 SHORT $LL17@MakeSmelti

; 965  : 			}
; 966  : 		}
; 967  : 	}
; 968  : 
; 969  : 	if ( iValidItemCount != 1 ||
; 970  : 		 iInvalidItemCount ||
; 971  : 		 iItemPos == -1 )

  000d6	33 db		 xor	 ebx, ebx
  000d8	83 7d e8 01	 cmp	 DWORD PTR _iValidItemCount$[ebp], 1
  000dc	0f 85 e4 01 00
	00		 jne	 $LN10@MakeSmelti
  000e2	39 5d e4	 cmp	 DWORD PTR _iInvalidItemCount$[ebp], ebx
  000e5	0f 85 db 01 00
	00		 jne	 $LN10@MakeSmelti
  000eb	8b 4d dc	 mov	 ecx, DWORD PTR _iItemPos$[ebp]
  000ee	83 f9 ff	 cmp	 ecx, -1
  000f1	0f 84 cf 01 00
	00		 je	 $LN10@MakeSmelti

; 974  : 		lpObj->ChaosLock = FALSE;
; 975  : 
; 976  : 		return FALSE;
; 977  : 	}
; 978  : 
; 979  : 	int JEWEL_OF_HARMONY_MAKE_SMELTINGSTONE_RATE;
; 980  : 	BOOL bIsItemNormal = TRUE;
; 981  : 
; 982  : 	if ( lpObj->pChaosBox[iItemPos].IsExtItem() == TRUE )

  000f7	69 c9 d4 00 00
	00		 imul	 ecx, 212		; 000000d4H
  000fd	03 8e 78 0e 00
	00		 add	 ecx, DWORD PTR [esi+3704]
  00103	e8 00 00 00 00	 call	 ?IsExtItem@CItem@@QAEHXZ ; CItem::IsExtItem
  00108	83 f8 01	 cmp	 eax, 1
  0010b	75 11		 jne	 SHORT $LN9@MakeSmelti

; 983  : 	{
; 984  : 		bIsItemNormal = FALSE;
; 985  : 		JEWEL_OF_HARMONY_MAKE_SMELTINGSTONE_RATE = this->m_iRateMixSmeltingStoneExt;

  0010d	8b 45 e0	 mov	 eax, DWORD PTR _this$GSCopy$[ebp]
  00110	8b 88 38 53 00
	00		 mov	 ecx, DWORD PTR [eax+21304]
  00116	89 5d e8	 mov	 DWORD PTR _bIsItemNormal$[ebp], ebx
  00119	89 4d e4	 mov	 DWORD PTR _JEWEL_OF_HARMONY_MAKE_SMELTINGSTONE_RATE$[ebp], ecx

; 986  : 	}
; 987  : 	else

  0011c	eb 13		 jmp	 SHORT $LN8@MakeSmelti
$LN9@MakeSmelti:

; 988  : 	{
; 989  : 		bIsItemNormal = TRUE;
; 990  : 		JEWEL_OF_HARMONY_MAKE_SMELTINGSTONE_RATE = this->m_iRateMixSmeltingStoneNor;

  0011e	8b 55 e0	 mov	 edx, DWORD PTR _this$GSCopy$[ebp]
  00121	8b 82 34 53 00
	00		 mov	 eax, DWORD PTR [edx+21300]
  00127	c7 45 e8 01 00
	00 00		 mov	 DWORD PTR _bIsItemNormal$[ebp], 1
  0012e	89 45 e4	 mov	 DWORD PTR _JEWEL_OF_HARMONY_MAKE_SMELTINGSTONE_RATE$[ebp], eax
$LN8@MakeSmelti:

; 991  : 	}
; 992  : 
; 993  : 	iMakeSmeltingStoneMixPrice = this->m_iZenForMixSmeltingStone;

  00131	8b 4d e0	 mov	 ecx, DWORD PTR _this$GSCopy$[ebp]

; 994  : 	int iChaosTaxMoney = iMakeSmeltingStoneMixPrice * g_CastleSiegeSync.GetTaxRateChaos(lpObj->m_Index) / 100;

  00134	8b 16		 mov	 edx, DWORD PTR [esi]
  00136	8b b9 3c 53 00
	00		 mov	 edi, DWORD PTR [ecx+21308]
  0013c	52		 push	 edx
  0013d	b9 00 00 00 00	 mov	 ecx, OFFSET ?g_CastleSiegeSync@@3VCCastleSiegeSync@@A ; g_CastleSiegeSync
  00142	e8 00 00 00 00	 call	 ?GetTaxRateChaos@CCastleSiegeSync@@QAEHH@Z ; CCastleSiegeSync::GetTaxRateChaos
  00147	8b c8		 mov	 ecx, eax
  00149	0f af cf	 imul	 ecx, edi
  0014c	b8 1f 85 eb 51	 mov	 eax, 1374389535		; 51eb851fH
  00151	f7 e9		 imul	 ecx
  00153	c1 fa 05	 sar	 edx, 5
  00156	8b c2		 mov	 eax, edx
  00158	c1 e8 1f	 shr	 eax, 31			; 0000001fH
  0015b	03 c2		 add	 eax, edx

; 995  : 
; 996  : 	if ( iChaosTaxMoney < 0 )

  0015d	79 02		 jns	 SHORT $LN7@MakeSmelti

; 997  : 		iChaosTaxMoney = 0;

  0015f	33 c0		 xor	 eax, eax
$LN7@MakeSmelti:

; 998  : 
; 999  : 	iMakeSmeltingStoneMixPrice += iChaosTaxMoney;

  00161	03 f8		 add	 edi, eax

; 1000 : 
; 1001 : 	if ( iMakeSmeltingStoneMixPrice < 0 )

  00163	79 02		 jns	 SHORT $LN6@MakeSmelti

; 1002 : 		iMakeSmeltingStoneMixPrice = 0;

  00165	33 ff		 xor	 edi, edi
$LN6@MakeSmelti:

; 1003 : 
; 1004 : 	if ( lpObj->Money < iMakeSmeltingStoneMixPrice )

  00167	8b 8e f0 00 00
	00		 mov	 ecx, DWORD PTR [esi+240]
  0016d	3b cf		 cmp	 ecx, edi
  0016f	7d 15		 jge	 SHORT $LN5@MakeSmelti

; 1005 : 	{
; 1006 : 		pMsg.Result = 2;
; 1007 : 		DataSend(lpObj->m_Index, (LPBYTE)&pMsg, pMsg.h.size);

  00171	0f b6 45 ed	 movzx	 eax, BYTE PTR _pMsg$[ebp+1]
  00175	8b 16		 mov	 edx, DWORD PTR [esi]
  00177	50		 push	 eax
  00178	8d 4d ec	 lea	 ecx, DWORD PTR _pMsg$[ebp]
  0017b	51		 push	 ecx
  0017c	c6 45 ef 02	 mov	 BYTE PTR _pMsg$[ebp+3], 2
  00180	52		 push	 edx

; 1008 : 		lpObj->ChaosLock = FALSE;
; 1009 : 
; 1010 : 		return FALSE;

  00181	e9 4c 01 00 00	 jmp	 $LN25@MakeSmelti
$LN5@MakeSmelti:

; 1011 : 	}
; 1012 : 
; 1013 : 	lpObj->Money -= iMakeSmeltingStoneMixPrice;

  00186	2b cf		 sub	 ecx, edi
  00188	89 8e f0 00 00
	00		 mov	 DWORD PTR [esi+240], ecx

; 1014 : 	g_CastleSiegeSync.AddTributeMoney(iChaosTaxMoney);

  0018e	50		 push	 eax
  0018f	b9 00 00 00 00	 mov	 ecx, OFFSET ?g_CastleSiegeSync@@3VCCastleSiegeSync@@A ; g_CastleSiegeSync
  00194	e8 00 00 00 00	 call	 ?AddTributeMoney@CCastleSiegeSync@@QAEXH@Z ; CCastleSiegeSync::AddTributeMoney

; 1015 : 	GCMoneySend(lpObj->m_Index, lpObj->Money);

  00199	8b 86 f0 00 00
	00		 mov	 eax, DWORD PTR [esi+240]
  0019f	8b 0e		 mov	 ecx, DWORD PTR [esi]
  001a1	50		 push	 eax
  001a2	51		 push	 ecx
  001a3	e8 00 00 00 00	 call	 ?GCMoneySend@@YAXHK@Z	; GCMoneySend
  001a8	83 c4 08	 add	 esp, 8

; 1016 : 	g_MixSystem.LogChaosItem(lpObj, "JewelOfHarmony][Smelt Item Mix"); //LogChaosItem(lpObj, "JewelOfHarmony][Smelt Item Mix");

  001ab	68 00 00 00 00	 push	 OFFSET ??_C@_0BP@EOIAKNIF@JewelOfHarmony?$FN?$FLSmelt?5Item?5Mix?$AA@
  001b0	56		 push	 esi
  001b1	b9 00 00 00 00	 mov	 ecx, OFFSET ?g_MixSystem@@3VCMixSystem@@A ; g_MixSystem
  001b6	e8 00 00 00 00	 call	 ?LogChaosItem@CMixSystem@@QAEXPAUOBJECTSTRUCT@@PAD@Z ; CMixSystem::LogChaosItem

; 1017 : 	LogAddTD("[JewelOfHarmony][Smelt Item Mix] - Mix Start");

  001bb	68 00 00 00 00	 push	 OFFSET ??_C@_0CN@FAMNANK@?$FLJewelOfHarmony?$FN?$FLSmelt?5Item?5Mix?$FN@
  001c0	ff 15 00 00 00
	00		 call	 DWORD PTR ?LogAddTD@@3P6AXPADZZA ; LogAddTD
  001c6	83 c4 04	 add	 esp, 4

; 1018 : 
; 1019 : 	int iRate = rand() % 100;

  001c9	e8 00 00 00 00	 call	 _rand
  001ce	99		 cdq
  001cf	b9 64 00 00 00	 mov	 ecx, 100		; 00000064H
  001d4	f7 f9		 idiv	 ecx
  001d6	8b da		 mov	 ebx, edx

; 1020 : 
; 1021 : 	if ( iRate < JEWEL_OF_HARMONY_MAKE_SMELTINGSTONE_RATE )

  001d8	3b 5d e4	 cmp	 ebx, DWORD PTR _JEWEL_OF_HARMONY_MAKE_SMELTINGSTONE_RATE$[ebp]
  001db	7d 7c		 jge	 SHORT $LN4@MakeSmelti

; 1022 : 	{
; 1023 : 		int iItemType;
; 1024 : 
; 1025 : 		if ( bIsItemNormal == TRUE )

  001dd	83 7d e8 01	 cmp	 DWORD PTR _bIsItemNormal$[ebp], 1
  001e1	75 08		 jne	 SHORT $LN3@MakeSmelti

; 1026 : 			iItemType = this->JEWEL_OF_HARMONY_SMELT_NOR_ITEMINDEX;

  001e3	8b 55 e0	 mov	 edx, DWORD PTR _this$GSCopy$[ebp]
  001e6	8b 4a 10	 mov	 ecx, DWORD PTR [edx+16]

; 1027 : 		else

  001e9	eb 06		 jmp	 SHORT $LN2@MakeSmelti
$LN3@MakeSmelti:

; 1028 : 			iItemType = this->JEWEL_OF_HARMONY_SMELT_EXT_ITEMINDEX;

  001eb	8b 45 e0	 mov	 eax, DWORD PTR _this$GSCopy$[ebp]
  001ee	8b 48 14	 mov	 ecx, DWORD PTR [eax+20]
$LN2@MakeSmelti:

; 1029 : 
; 1030 : 		ItemSerialCreateSend(lpObj->m_Index, 255, 0, 0, iItemType, 0,
; 1031 : 							1, 0, 0, 0, lpObj->m_Index, 0, 0);

  001f1	8b 06		 mov	 eax, DWORD PTR [esi]
  001f3	6a 00		 push	 0
  001f5	6a 00		 push	 0
  001f7	50		 push	 eax
  001f8	6a 00		 push	 0
  001fa	6a 00		 push	 0
  001fc	6a 00		 push	 0
  001fe	6a 01		 push	 1
  00200	6a 00		 push	 0
  00202	51		 push	 ecx
  00203	6a 00		 push	 0
  00205	6a 00		 push	 0
  00207	68 ff 00 00 00	 push	 255			; 000000ffH
  0020c	50		 push	 eax
  0020d	e8 00 00 00 00	 call	 ?ItemSerialCreateSend@@YAXHEEEHEEEEEHEE@Z ; ItemSerialCreateSend

; 1032 : 		gObjInventoryCommit(lpObj->m_Index);

  00212	8b 0e		 mov	 ecx, DWORD PTR [esi]
  00214	51		 push	 ecx
  00215	e8 00 00 00 00	 call	 ?gObjInventoryCommit@@YAHH@Z ; gObjInventoryCommit

; 1033 : 
; 1034 : 		LogAddTD("[JewelOfHarmony][Smelt Item Mix] Smelting Stone Normal[%d] Mix Success [%s][%s], Money(%d-%d) Rate(%d/%d)",
; 1035 : 			bIsItemNormal, lpObj->AccountID, lpObj->Name,
; 1036 : 			lpObj->Money, iMakeSmeltingStoneMixPrice, iRate,
; 1037 : 			JEWEL_OF_HARMONY_MAKE_SMELTINGSTONE_RATE);

  0021a	8b 55 e4	 mov	 edx, DWORD PTR _JEWEL_OF_HARMONY_MAKE_SMELTINGSTONE_RATE$[ebp]
  0021d	8b 86 f0 00 00
	00		 mov	 eax, DWORD PTR [esi+240]
  00223	52		 push	 edx
  00224	8b 55 e8	 mov	 edx, DWORD PTR _bIsItemNormal$[ebp]
  00227	53		 push	 ebx
  00228	57		 push	 edi
  00229	50		 push	 eax
  0022a	8d 4e 77	 lea	 ecx, DWORD PTR [esi+119]
  0022d	51		 push	 ecx
  0022e	83 c6 6c	 add	 esi, 108		; 0000006cH
  00231	56		 push	 esi
  00232	52		 push	 edx
  00233	68 00 00 00 00	 push	 OFFSET ??_C@_0GK@JILNDENM@?$FLJewelOfHarmony?$FN?$FLSmelt?5Item?5Mix?$FN@
  00238	ff 15 00 00 00
	00		 call	 DWORD PTR ?LogAddTD@@3P6AXPADZZA ; LogAddTD
  0023e	83 c4 58	 add	 esp, 88			; 00000058H
  00241	5b		 pop	 ebx
  00242	5f		 pop	 edi

; 1038 : 		return TRUE; //season 4.5 add-on

  00243	b8 01 00 00 00	 mov	 eax, 1
  00248	5e		 pop	 esi

; 1054 : }

  00249	8b 4d fc	 mov	 ecx, DWORD PTR __$ArrayPad$[ebp]
  0024c	33 cd		 xor	 ecx, ebp
  0024e	e8 00 00 00 00	 call	 @__security_check_cookie@4
  00253	8b e5		 mov	 esp, ebp
  00255	5d		 pop	 ebp
  00256	c2 04 00	 ret	 4
$LN4@MakeSmelti:

; 1039 : 	}
; 1040 : 	else
; 1041 : 	{
; 1042 : 		g_MixSystem.ChaosBoxInit(lpObj); //ChaosBoxInit(lpObj);

  00259	56		 push	 esi
  0025a	b9 00 00 00 00	 mov	 ecx, OFFSET ?g_MixSystem@@3VCMixSystem@@A ; g_MixSystem
  0025f	e8 00 00 00 00	 call	 ?ChaosBoxInit@CMixSystem@@QAEHPAUOBJECTSTRUCT@@@Z ; CMixSystem::ChaosBoxInit

; 1043 : 		GCUserChaosBoxSend(lpObj, 0);

  00264	6a 00		 push	 0
  00266	56		 push	 esi
  00267	e8 00 00 00 00	 call	 ?GCUserChaosBoxSend@@YAXPAUOBJECTSTRUCT@@H@Z ; GCUserChaosBoxSend

; 1044 : 		DataSend(lpObj->m_Index, (LPBYTE)&pMsg, pMsg.h.size);

  0026c	0f b6 45 ed	 movzx	 eax, BYTE PTR _pMsg$[ebp+1]
  00270	8b 16		 mov	 edx, DWORD PTR [esi]
  00272	50		 push	 eax
  00273	8d 4d ec	 lea	 ecx, DWORD PTR _pMsg$[ebp]
  00276	51		 push	 ecx
  00277	52		 push	 edx
  00278	e8 00 00 00 00	 call	 ?DataSend@@YAHHPAEK@Z	; DataSend

; 1045 : 
; 1046 : 		LogAddTD("[JewelOfHarmony][Smelt Item Mix] Smelting Stone Normal[%d] Mix Fail [%s][%s], Money : %d-%d Rate(%d/%d)",
; 1047 : 			bIsItemNormal, lpObj->AccountID, lpObj->Name,
; 1048 : 			lpObj->Money, iMakeSmeltingStoneMixPrice, iRate,
; 1049 : 			JEWEL_OF_HARMONY_MAKE_SMELTINGSTONE_RATE);

  0027d	8b 45 e4	 mov	 eax, DWORD PTR _JEWEL_OF_HARMONY_MAKE_SMELTINGSTONE_RATE$[ebp]
  00280	8b 8e f0 00 00
	00		 mov	 ecx, DWORD PTR [esi+240]
  00286	50		 push	 eax
  00287	53		 push	 ebx
  00288	57		 push	 edi
  00289	51		 push	 ecx
  0028a	8b 4d e8	 mov	 ecx, DWORD PTR _bIsItemNormal$[ebp]
  0028d	8d 56 77	 lea	 edx, DWORD PTR [esi+119]
  00290	52		 push	 edx
  00291	8d 46 6c	 lea	 eax, DWORD PTR [esi+108]
  00294	50		 push	 eax
  00295	51		 push	 ecx
  00296	68 00 00 00 00	 push	 OFFSET ??_C@_0GI@PEBNKJPD@?$FLJewelOfHarmony?$FN?$FLSmelt?5Item?5Mix?$FN@
  0029b	ff 15 00 00 00
	00		 call	 DWORD PTR ?LogAddTD@@3P6AXPADZZA ; LogAddTD
  002a1	83 c4 34	 add	 esp, 52			; 00000034H
  002a4	5b		 pop	 ebx
  002a5	5f		 pop	 edi

; 1050 : 	}
; 1051 : 
; 1052 : 	lpObj->ChaosLock = FALSE;

  002a6	c7 86 88 0e 00
	00 00 00 00 00	 mov	 DWORD PTR [esi+3720], 0

; 1053 : 	return TRUE;

  002b0	b8 01 00 00 00	 mov	 eax, 1
  002b5	5e		 pop	 esi

; 1054 : }

  002b6	8b 4d fc	 mov	 ecx, DWORD PTR __$ArrayPad$[ebp]
  002b9	33 cd		 xor	 ecx, ebp
  002bb	e8 00 00 00 00	 call	 @__security_check_cookie@4
  002c0	8b e5		 mov	 esp, ebp
  002c2	5d		 pop	 ebp
  002c3	c2 04 00	 ret	 4
$LN10@MakeSmelti:

; 972  : 	{
; 973  : 		DataSend(lpObj->m_Index, (LPBYTE)&pMsg, pMsg.h.size);

  002c6	0f b6 55 ed	 movzx	 edx, BYTE PTR _pMsg$[ebp+1]
  002ca	8b 0e		 mov	 ecx, DWORD PTR [esi]
  002cc	52		 push	 edx
  002cd	8d 45 ec	 lea	 eax, DWORD PTR _pMsg$[ebp]
  002d0	50		 push	 eax
  002d1	51		 push	 ecx
$LN25@MakeSmelti:
  002d2	e8 00 00 00 00	 call	 ?DataSend@@YAHHPAEK@Z	; DataSend

; 1054 : }

  002d7	8b 4d fc	 mov	 ecx, DWORD PTR __$ArrayPad$[ebp]
  002da	83 c4 0c	 add	 esp, 12			; 0000000cH
  002dd	89 9e 88 0e 00
	00		 mov	 DWORD PTR [esi+3720], ebx
  002e3	5b		 pop	 ebx
  002e4	5f		 pop	 edi
  002e5	33 cd		 xor	 ecx, ebp
  002e7	33 c0		 xor	 eax, eax
  002e9	5e		 pop	 esi
  002ea	e8 00 00 00 00	 call	 @__security_check_cookie@4
  002ef	8b e5		 mov	 esp, ebp
  002f1	5d		 pop	 ebp
  002f2	c2 04 00	 ret	 4
?MakeSmeltingStoneItem@CJewelOfHarmonySystem@@QAEHPAUOBJECTSTRUCT@@@Z ENDP ; CJewelOfHarmonySystem::MakeSmeltingStoneItem
_TEXT	ENDS
PUBLIC	??1?$_Tree@V?$_Tmap_traits@HHU?$less@H@std@@V?$allocator@U?$pair@$$CBHH@std@@@2@$0A@@std@@@std@@QAE@XZ ; std::_Tree<std::_Tmap_traits<int,int,std::less<int>,std::allocator<std::pair<int const ,int> >,0> >::~_Tree<std::_Tmap_traits<int,int,std::less<int>,std::allocator<std::pair<int const ,int> >,0> >
EXTRN	___CxxFrameHandler3:PROC
;	COMDAT xdata$x
; File d:\program files (x86)\microsoft visual studio 10.0\vc\include\xmemory
xdata$x	SEGMENT
__unwindtable$??1?$_Tree@V?$_Tmap_traits@HHU?$less@H@std@@V?$allocator@U?$pair@$$CBHH@std@@@2@$0A@@std@@@std@@QAE@XZ DD 0ffffffffH
	DD	FLAT:__unwindfunclet$??1?$_Tree@V?$_Tmap_traits@HHU?$less@H@std@@V?$allocator@U?$pair@$$CBHH@std@@@2@$0A@@std@@@std@@QAE@XZ$0
__ehfuncinfo$??1?$_Tree@V?$_Tmap_traits@HHU?$less@H@std@@V?$allocator@U?$pair@$$CBHH@std@@@2@$0A@@std@@@std@@QAE@XZ DD 019930522H
	DD	01H
	DD	FLAT:__unwindtable$??1?$_Tree@V?$_Tmap_traits@HHU?$less@H@std@@V?$allocator@U?$pair@$$CBHH@std@@@2@$0A@@std@@@std@@QAE@XZ
	DD	2 DUP(00H)
	DD	2 DUP(00H)
	DD	00H
	DD	01H
; Function compile flags: /Ogtp
; File d:\program files (x86)\microsoft visual studio 10.0\vc\include\xtree
xdata$x	ENDS
;	COMDAT ??1?$_Tree@V?$_Tmap_traits@HHU?$less@H@std@@V?$allocator@U?$pair@$$CBHH@std@@@2@$0A@@std@@@std@@QAE@XZ
_TEXT	SEGMENT
$T218449 = -20						; size = 4
_this$ = -16						; size = 4
__$EHRec$ = -12						; size = 12
??1?$_Tree@V?$_Tmap_traits@HHU?$less@H@std@@V?$allocator@U?$pair@$$CBHH@std@@@2@$0A@@std@@@std@@QAE@XZ PROC ; std::_Tree<std::_Tmap_traits<int,int,std::less<int>,std::allocator<std::pair<int const ,int> >,0> >::~_Tree<std::_Tmap_traits<int,int,std::less<int>,std::allocator<std::pair<int const ,int> >,0> >, COMDAT
; _this$ = ecx

; 790  : 		{	// destroy tree

  00000	55		 push	 ebp
  00001	8b ec		 mov	 ebp, esp
  00003	6a ff		 push	 -1
  00005	68 00 00 00 00	 push	 __ehhandler$??1?$_Tree@V?$_Tmap_traits@HHU?$less@H@std@@V?$allocator@U?$pair@$$CBHH@std@@@2@$0A@@std@@@std@@QAE@XZ
  0000a	64 a1 00 00 00
	00		 mov	 eax, DWORD PTR fs:0
  00010	50		 push	 eax
  00011	83 ec 08	 sub	 esp, 8
  00014	56		 push	 esi
  00015	a1 00 00 00 00	 mov	 eax, DWORD PTR ___security_cookie
  0001a	33 c5		 xor	 eax, ebp
  0001c	50		 push	 eax
  0001d	8d 45 f4	 lea	 eax, DWORD PTR __$EHRec$[ebp]
  00020	64 a3 00 00 00
	00		 mov	 DWORD PTR fs:0, eax
  00026	8b f1		 mov	 esi, ecx
  00028	89 75 f0	 mov	 DWORD PTR _this$[ebp], esi

; 791  : 		_Tidy();

  0002b	8b 46 04	 mov	 eax, DWORD PTR [esi+4]
  0002e	8b 08		 mov	 ecx, DWORD PTR [eax]
  00030	50		 push	 eax
  00031	51		 push	 ecx
  00032	8d 45 ec	 lea	 eax, DWORD PTR $T218449[ebp]
  00035	50		 push	 eax
  00036	8b ce		 mov	 ecx, esi
  00038	c7 45 fc 00 00
	00 00		 mov	 DWORD PTR __$EHRec$[ebp+8], 0
  0003f	e8 00 00 00 00	 call	 ?erase@?$_Tree@V?$_Tmap_traits@HHU?$less@H@std@@V?$allocator@U?$pair@$$CBHH@std@@@2@$0A@@std@@@std@@QAE?AV?$_Tree_iterator@V?$_Tree_val@V?$_Tmap_traits@HHU?$less@H@std@@V?$allocator@U?$pair@$$CBHH@std@@@2@$0A@@std@@@std@@@2@V?$_Tree_const_iterator@V?$_Tree_val@V?$_Tmap_traits@HHU?$less@H@std@@V?$allocator@U?$pair@$$CBHH@std@@@2@$0A@@std@@@std@@@2@0@Z ; std::_Tree<std::_Tmap_traits<int,int,std::less<int>,std::allocator<std::pair<int const ,int> >,0> >::erase

; 792  : 		}

  00044	8b 4e 04	 mov	 ecx, DWORD PTR [esi+4]
  00047	51		 push	 ecx
  00048	e8 00 00 00 00	 call	 ??3@YAXPAX@Z		; operator delete
  0004d	83 c4 04	 add	 esp, 4
  00050	8b 4d f4	 mov	 ecx, DWORD PTR __$EHRec$[ebp]
  00053	64 89 0d 00 00
	00 00		 mov	 DWORD PTR fs:0, ecx
  0005a	59		 pop	 ecx
  0005b	5e		 pop	 esi
  0005c	8b e5		 mov	 esp, ebp
  0005e	5d		 pop	 ebp
  0005f	c3		 ret	 0
_TEXT	ENDS
;	COMDAT text$x
text$x	SEGMENT
__unwindfunclet$??1?$_Tree@V?$_Tmap_traits@HHU?$less@H@std@@V?$allocator@U?$pair@$$CBHH@std@@@2@$0A@@std@@@std@@QAE@XZ$0:
  00000	8b 4d f0	 mov	 ecx, DWORD PTR _this$[ebp]
  00003	e9 00 00 00 00	 jmp	 ??1?$_Tree_val@V?$_Tmap_traits@HHU?$less@H@std@@V?$allocator@U?$pair@$$CBHH@std@@@2@$0A@@std@@@std@@QAE@XZ ; std::_Tree_val<std::_Tmap_traits<int,int,std::less<int>,std::allocator<std::pair<int const ,int> >,0> >::~_Tree_val<std::_Tmap_traits<int,int,std::less<int>,std::allocator<std::pair<int const ,int> >,0> >
__ehhandler$??1?$_Tree@V?$_Tmap_traits@HHU?$less@H@std@@V?$allocator@U?$pair@$$CBHH@std@@@2@$0A@@std@@@std@@QAE@XZ:
  00008	8b 54 24 08	 mov	 edx, DWORD PTR [esp+8]
  0000c	8d 42 0c	 lea	 eax, DWORD PTR [edx+12]
  0000f	8b 4a f0	 mov	 ecx, DWORD PTR [edx-16]
  00012	33 c8		 xor	 ecx, eax
  00014	e8 00 00 00 00	 call	 @__security_check_cookie@4
  00019	b8 00 00 00 00	 mov	 eax, OFFSET __ehfuncinfo$??1?$_Tree@V?$_Tmap_traits@HHU?$less@H@std@@V?$allocator@U?$pair@$$CBHH@std@@@2@$0A@@std@@@std@@QAE@XZ
  0001e	e9 00 00 00 00	 jmp	 ___CxxFrameHandler3
text$x	ENDS
??1?$_Tree@V?$_Tmap_traits@HHU?$less@H@std@@V?$allocator@U?$pair@$$CBHH@std@@@2@$0A@@std@@@std@@QAE@XZ ENDP ; std::_Tree<std::_Tmap_traits<int,int,std::less<int>,std::allocator<std::pair<int const ,int> >,0> >::~_Tree<std::_Tmap_traits<int,int,std::less<int>,std::allocator<std::pair<int const ,int> >,0> >
PUBLIC	??$insert@U?$pair@$$CBHH@std@@@?$_Tree@V?$_Tmap_traits@HHU?$less@H@std@@V?$allocator@U?$pair@$$CBHH@std@@@2@$0A@@std@@@std@@QAE?AV?$_Tree_iterator@V?$_Tree_val@V?$_Tmap_traits@HHU?$less@H@std@@V?$allocator@U?$pair@$$CBHH@std@@@2@$0A@@std@@@std@@@1@V?$_Tree_const_iterator@V?$_Tree_val@V?$_Tmap_traits@HHU?$less@H@std@@V?$allocator@U?$pair@$$CBHH@std@@@2@$0A@@std@@@std@@@1@$$QAU?$pair@$$CBHH@1@@Z ; std::_Tree<std::_Tmap_traits<int,int,std::less<int>,std::allocator<std::pair<int const ,int> >,0> >::insert<std::pair<int const ,int> >
; Function compile flags: /Ogtp
;	COMDAT ??$insert@U?$pair@$$CBHH@std@@@?$_Tree@V?$_Tmap_traits@HHU?$less@H@std@@V?$allocator@U?$pair@$$CBHH@std@@@2@$0A@@std@@@std@@QAE?AV?$_Tree_iterator@V?$_Tree_val@V?$_Tmap_traits@HHU?$less@H@std@@V?$allocator@U?$pair@$$CBHH@std@@@2@$0A@@std@@@std@@@1@V?$_Tree_const_iterator@V?$_Tree_val@V?$_Tmap_traits@HHU?$less@H@std@@V?$allocator@U?$pair@$$CBHH@std@@@2@$0A@@std@@@std@@@1@$$QAU?$pair@$$CBHH@1@@Z
_TEXT	SEGMENT
___$ReturnUdt$ = 8					; size = 4
__Where$ = 12						; size = 4
__Val$ = 16						; size = 4
??$insert@U?$pair@$$CBHH@std@@@?$_Tree@V?$_Tmap_traits@HHU?$less@H@std@@V?$allocator@U?$pair@$$CBHH@std@@@2@$0A@@std@@@std@@QAE?AV?$_Tree_iterator@V?$_Tree_val@V?$_Tmap_traits@HHU?$less@H@std@@V?$allocator@U?$pair@$$CBHH@std@@@2@$0A@@std@@@std@@@1@V?$_Tree_const_iterator@V?$_Tree_val@V?$_Tmap_traits@HHU?$less@H@std@@V?$allocator@U?$pair@$$CBHH@std@@@2@$0A@@std@@@std@@@1@$$QAU?$pair@$$CBHH@1@@Z PROC ; std::_Tree<std::_Tmap_traits<int,int,std::less<int>,std::allocator<std::pair<int const ,int> >,0> >::insert<std::pair<int const ,int> >, COMDAT
; _this$ = ecx

; 760  : 		typename _STD tr1::enable_if<!_STD tr1::is_same<const_iterator,

  00000	55		 push	 ebp
  00001	8b ec		 mov	 ebp, esp

; 761  : 			typename _STD tr1::remove_reference<_Valty>::type>::value,
; 762  : 				iterator>::type
; 763  : 		insert(const_iterator _Where,
; 764  : 			_Valty&& _Val)
; 765  : 		{	// try to insert node with value _Val using _Where as a hint
; 766  : 		return (_Insert(_Where,
; 767  : 			this->_Buynode(_STD forward<_Valty>(_Val))));

  00003	8b 45 10	 mov	 eax, DWORD PTR __Val$[ebp]
  00006	56		 push	 esi
  00007	57		 push	 edi
  00008	50		 push	 eax
  00009	8b f1		 mov	 esi, ecx
  0000b	e8 00 00 00 00	 call	 ??$_Buynode@U?$pair@$$CBHH@std@@@?$_Tree_val@V?$_Tmap_traits@HHU?$less@H@std@@V?$allocator@U?$pair@$$CBHH@std@@@2@$0A@@std@@@std@@QAEPAU_Node@?$_Tree_nod@V?$_Tmap_traits@HHU?$less@H@std@@V?$allocator@U?$pair@$$CBHH@std@@@2@$0A@@std@@@1@$$QAU?$pair@$$CBHH@1@@Z ; std::_Tree_val<std::_Tmap_traits<int,int,std::less<int>,std::allocator<std::pair<int const ,int> >,0> >::_Buynode<std::pair<int const ,int> >
  00010	8b 4d 0c	 mov	 ecx, DWORD PTR __Where$[ebp]
  00013	8b 7d 08	 mov	 edi, DWORD PTR ___$ReturnUdt$[ebp]
  00016	50		 push	 eax
  00017	51		 push	 ecx
  00018	57		 push	 edi
  00019	8b ce		 mov	 ecx, esi
  0001b	e8 00 00 00 00	 call	 ?_Insert@?$_Tree@V?$_Tmap_traits@HHU?$less@H@std@@V?$allocator@U?$pair@$$CBHH@std@@@2@$0A@@std@@@std@@QAE?AV?$_Tree_iterator@V?$_Tree_val@V?$_Tmap_traits@HHU?$less@H@std@@V?$allocator@U?$pair@$$CBHH@std@@@2@$0A@@std@@@std@@@2@V?$_Tree_const_iterator@V?$_Tree_val@V?$_Tmap_traits@HHU?$less@H@std@@V?$allocator@U?$pair@$$CBHH@std@@@2@$0A@@std@@@std@@@2@PAU_Node@?$_Tree_nod@V?$_Tmap_traits@HHU?$less@H@std@@V?$allocator@U?$pair@$$CBHH@std@@@2@$0A@@std@@@2@@Z ; std::_Tree<std::_Tmap_traits<int,int,std::less<int>,std::allocator<std::pair<int const ,int> >,0> >::_Insert
  00020	8b c7		 mov	 eax, edi
  00022	5f		 pop	 edi
  00023	5e		 pop	 esi

; 768  : 		}

  00024	5d		 pop	 ebp
  00025	c2 0c 00	 ret	 12			; 0000000cH
??$insert@U?$pair@$$CBHH@std@@@?$_Tree@V?$_Tmap_traits@HHU?$less@H@std@@V?$allocator@U?$pair@$$CBHH@std@@@2@$0A@@std@@@std@@QAE?AV?$_Tree_iterator@V?$_Tree_val@V?$_Tmap_traits@HHU?$less@H@std@@V?$allocator@U?$pair@$$CBHH@std@@@2@$0A@@std@@@std@@@1@V?$_Tree_const_iterator@V?$_Tree_val@V?$_Tmap_traits@HHU?$less@H@std@@V?$allocator@U?$pair@$$CBHH@std@@@2@$0A@@std@@@std@@@1@$$QAU?$pair@$$CBHH@1@@Z ENDP ; std::_Tree<std::_Tmap_traits<int,int,std::less<int>,std::allocator<std::pair<int const ,int> >,0> >::insert<std::pair<int const ,int> >
_TEXT	ENDS
PUBLIC	??1?$map@HHU?$less@H@std@@V?$allocator@U?$pair@$$CBHH@std@@@2@@std@@QAE@XZ ; std::map<int,int,std::less<int>,std::allocator<std::pair<int const ,int> > >::~map<int,int,std::less<int>,std::allocator<std::pair<int const ,int> > >
;	COMDAT xdata$x
xdata$x	SEGMENT
__unwindtable$??1?$map@HHU?$less@H@std@@V?$allocator@U?$pair@$$CBHH@std@@@2@@std@@QAE@XZ DD 0ffffffffH
	DD	FLAT:__unwindfunclet$??1?$map@HHU?$less@H@std@@V?$allocator@U?$pair@$$CBHH@std@@@2@@std@@QAE@XZ$1
__ehfuncinfo$??1?$map@HHU?$less@H@std@@V?$allocator@U?$pair@$$CBHH@std@@@2@@std@@QAE@XZ DD 019930522H
	DD	01H
	DD	FLAT:__unwindtable$??1?$map@HHU?$less@H@std@@V?$allocator@U?$pair@$$CBHH@std@@@2@@std@@QAE@XZ
	DD	2 DUP(00H)
	DD	2 DUP(00H)
	DD	00H
	DD	01H
; Function compile flags: /Ogtp
xdata$x	ENDS
;	COMDAT ??1?$map@HHU?$less@H@std@@V?$allocator@U?$pair@$$CBHH@std@@@2@@std@@QAE@XZ
_TEXT	SEGMENT
$T218638 = -20						; size = 4
_this$ = -16						; size = 4
__$EHRec$ = -12						; size = 12
??1?$map@HHU?$less@H@std@@V?$allocator@U?$pair@$$CBHH@std@@@2@@std@@QAE@XZ PROC ; std::map<int,int,std::less<int>,std::allocator<std::pair<int const ,int> > >::~map<int,int,std::less<int>,std::allocator<std::pair<int const ,int> > >, COMDAT
; _this$ = ecx
  00000	55		 push	 ebp
  00001	8b ec		 mov	 ebp, esp
  00003	6a ff		 push	 -1
  00005	68 00 00 00 00	 push	 __ehhandler$??1?$map@HHU?$less@H@std@@V?$allocator@U?$pair@$$CBHH@std@@@2@@std@@QAE@XZ
  0000a	64 a1 00 00 00
	00		 mov	 eax, DWORD PTR fs:0
  00010	50		 push	 eax
  00011	83 ec 08	 sub	 esp, 8
  00014	56		 push	 esi
  00015	a1 00 00 00 00	 mov	 eax, DWORD PTR ___security_cookie
  0001a	33 c5		 xor	 eax, ebp
  0001c	50		 push	 eax
  0001d	8d 45 f4	 lea	 eax, DWORD PTR __$EHRec$[ebp]
  00020	64 a3 00 00 00
	00		 mov	 DWORD PTR fs:0, eax
  00026	8b f1		 mov	 esi, ecx
  00028	89 75 f0	 mov	 DWORD PTR _this$[ebp], esi
  0002b	8b 46 04	 mov	 eax, DWORD PTR [esi+4]
  0002e	8b 08		 mov	 ecx, DWORD PTR [eax]
  00030	50		 push	 eax
  00031	51		 push	 ecx
  00032	8d 45 ec	 lea	 eax, DWORD PTR $T218638[ebp]
  00035	50		 push	 eax
  00036	8b ce		 mov	 ecx, esi
  00038	c7 45 fc 00 00
	00 00		 mov	 DWORD PTR __$EHRec$[ebp+8], 0
  0003f	e8 00 00 00 00	 call	 ?erase@?$_Tree@V?$_Tmap_traits@HHU?$less@H@std@@V?$allocator@U?$pair@$$CBHH@std@@@2@$0A@@std@@@std@@QAE?AV?$_Tree_iterator@V?$_Tree_val@V?$_Tmap_traits@HHU?$less@H@std@@V?$allocator@U?$pair@$$CBHH@std@@@2@$0A@@std@@@std@@@2@V?$_Tree_const_iterator@V?$_Tree_val@V?$_Tmap_traits@HHU?$less@H@std@@V?$allocator@U?$pair@$$CBHH@std@@@2@$0A@@std@@@std@@@2@0@Z ; std::_Tree<std::_Tmap_traits<int,int,std::less<int>,std::allocator<std::pair<int const ,int> >,0> >::erase
  00044	8b 4e 04	 mov	 ecx, DWORD PTR [esi+4]
  00047	51		 push	 ecx
  00048	e8 00 00 00 00	 call	 ??3@YAXPAX@Z		; operator delete
  0004d	83 c4 04	 add	 esp, 4
  00050	8b 4d f4	 mov	 ecx, DWORD PTR __$EHRec$[ebp]
  00053	64 89 0d 00 00
	00 00		 mov	 DWORD PTR fs:0, ecx
  0005a	59		 pop	 ecx
  0005b	5e		 pop	 esi
  0005c	8b e5		 mov	 esp, ebp
  0005e	5d		 pop	 ebp
  0005f	c3		 ret	 0
_TEXT	ENDS
;	COMDAT text$x
text$x	SEGMENT
__unwindfunclet$??1?$map@HHU?$less@H@std@@V?$allocator@U?$pair@$$CBHH@std@@@2@@std@@QAE@XZ$1:
  00000	8b 4d f0	 mov	 ecx, DWORD PTR _this$[ebp]
  00003	e9 00 00 00 00	 jmp	 ??1?$_Tree_val@V?$_Tmap_traits@HHU?$less@H@std@@V?$allocator@U?$pair@$$CBHH@std@@@2@$0A@@std@@@std@@QAE@XZ ; std::_Tree_val<std::_Tmap_traits<int,int,std::less<int>,std::allocator<std::pair<int const ,int> >,0> >::~_Tree_val<std::_Tmap_traits<int,int,std::less<int>,std::allocator<std::pair<int const ,int> >,0> >
__ehhandler$??1?$map@HHU?$less@H@std@@V?$allocator@U?$pair@$$CBHH@std@@@2@@std@@QAE@XZ:
  00008	8b 54 24 08	 mov	 edx, DWORD PTR [esp+8]
  0000c	8d 42 0c	 lea	 eax, DWORD PTR [edx+12]
  0000f	8b 4a f0	 mov	 ecx, DWORD PTR [edx-16]
  00012	33 c8		 xor	 ecx, eax
  00014	e8 00 00 00 00	 call	 @__security_check_cookie@4
  00019	b8 00 00 00 00	 mov	 eax, OFFSET __ehfuncinfo$??1?$map@HHU?$less@H@std@@V?$allocator@U?$pair@$$CBHH@std@@@2@@std@@QAE@XZ
  0001e	e9 00 00 00 00	 jmp	 ___CxxFrameHandler3
text$x	ENDS
??1?$map@HHU?$less@H@std@@V?$allocator@U?$pair@$$CBHH@std@@@2@@std@@QAE@XZ ENDP ; std::map<int,int,std::less<int>,std::allocator<std::pair<int const ,int> > >::~map<int,int,std::less<int>,std::allocator<std::pair<int const ,int> > >
PUBLIC	??_7CJewelOfHarmonySystem@@6B@			; CJewelOfHarmonySystem::`vftable'
PUBLIC	??1CJewelOfHarmonySystem@@UAE@XZ		; CJewelOfHarmonySystem::~CJewelOfHarmonySystem
PUBLIC	??_R4CJewelOfHarmonySystem@@6B@			; CJewelOfHarmonySystem::`RTTI Complete Object Locator'
PUBLIC	??_R0?AVCJewelOfHarmonySystem@@@8		; CJewelOfHarmonySystem `RTTI Type Descriptor'
PUBLIC	??_R3CJewelOfHarmonySystem@@8			; CJewelOfHarmonySystem::`RTTI Class Hierarchy Descriptor'
PUBLIC	??_R2CJewelOfHarmonySystem@@8			; CJewelOfHarmonySystem::`RTTI Base Class Array'
PUBLIC	??_R1A@?0A@EA@CJewelOfHarmonySystem@@8		; CJewelOfHarmonySystem::`RTTI Base Class Descriptor at (0,-1,0,64)'
EXTRN	??1TRandomPoolMgr@@UAE@XZ:PROC			; TRandomPoolMgr::~TRandomPoolMgr
EXTRN	??_ECJewelOfHarmonySystem@@UAEPAXI@Z:PROC	; CJewelOfHarmonySystem::`vector deleting destructor'
;	COMDAT ??_R1A@?0A@EA@CJewelOfHarmonySystem@@8
; File d:\program files (x86)\microsoft visual studio 10.0\vc\include\xmemory
rdata$r	SEGMENT
??_R1A@?0A@EA@CJewelOfHarmonySystem@@8 DD FLAT:??_R0?AVCJewelOfHarmonySystem@@@8 ; CJewelOfHarmonySystem::`RTTI Base Class Descriptor at (0,-1,0,64)'
	DD	00H
	DD	00H
	DD	0ffffffffH
	DD	00H
	DD	040H
	DD	FLAT:??_R3CJewelOfHarmonySystem@@8
rdata$r	ENDS
;	COMDAT ??_R2CJewelOfHarmonySystem@@8
rdata$r	SEGMENT
??_R2CJewelOfHarmonySystem@@8 DD FLAT:??_R1A@?0A@EA@CJewelOfHarmonySystem@@8 ; CJewelOfHarmonySystem::`RTTI Base Class Array'
rdata$r	ENDS
;	COMDAT ??_R3CJewelOfHarmonySystem@@8
rdata$r	SEGMENT
??_R3CJewelOfHarmonySystem@@8 DD 00H			; CJewelOfHarmonySystem::`RTTI Class Hierarchy Descriptor'
	DD	00H
	DD	01H
	DD	FLAT:??_R2CJewelOfHarmonySystem@@8
rdata$r	ENDS
;	COMDAT ??_R0?AVCJewelOfHarmonySystem@@@8
_DATA	SEGMENT
??_R0?AVCJewelOfHarmonySystem@@@8 DD FLAT:??_7type_info@@6B@ ; CJewelOfHarmonySystem `RTTI Type Descriptor'
	DD	00H
	DB	'.?AVCJewelOfHarmonySystem@@', 00H
_DATA	ENDS
;	COMDAT ??_R4CJewelOfHarmonySystem@@6B@
rdata$r	SEGMENT
??_R4CJewelOfHarmonySystem@@6B@ DD 00H			; CJewelOfHarmonySystem::`RTTI Complete Object Locator'
	DD	00H
	DD	00H
	DD	FLAT:??_R0?AVCJewelOfHarmonySystem@@@8
	DD	FLAT:??_R3CJewelOfHarmonySystem@@8
rdata$r	ENDS
;	COMDAT ??_7CJewelOfHarmonySystem@@6B@
CONST	SEGMENT
??_7CJewelOfHarmonySystem@@6B@ DD FLAT:??_R4CJewelOfHarmonySystem@@6B@ ; CJewelOfHarmonySystem::`vftable'
	DD	FLAT:??_ECJewelOfHarmonySystem@@UAEPAXI@Z
CONST	ENDS
;	COMDAT xdata$x
xdata$x	SEGMENT
__unwindtable$??1CJewelOfHarmonySystem@@UAE@XZ DD 0ffffffffH
	DD	FLAT:__unwindfunclet$??1CJewelOfHarmonySystem@@UAE@XZ$0
	DD	0ffffffffH
	DD	FLAT:__unwindfunclet$??1CJewelOfHarmonySystem@@UAE@XZ$3
__ehfuncinfo$??1CJewelOfHarmonySystem@@UAE@XZ DD 019930522H
	DD	02H
	DD	FLAT:__unwindtable$??1CJewelOfHarmonySystem@@UAE@XZ
	DD	2 DUP(00H)
	DD	2 DUP(00H)
	DD	00H
	DD	01H
; Function compile flags: /Ogtp
; File e:\work\tranet_version\gs\gameserver\jewelofharmonysystem.cpp
xdata$x	ENDS
;	COMDAT ??1CJewelOfHarmonySystem@@UAE@XZ
_TEXT	SEGMENT
$T218859 = -20						; size = 4
$T218890 = -16						; size = 4
_this$ = -16						; size = 4
__$EHRec$ = -12						; size = 12
??1CJewelOfHarmonySystem@@UAE@XZ PROC			; CJewelOfHarmonySystem::~CJewelOfHarmonySystem, COMDAT
; _this$ = ecx

; 30   : {

  00000	55		 push	 ebp
  00001	8b ec		 mov	 ebp, esp
  00003	6a ff		 push	 -1
  00005	68 00 00 00 00	 push	 __ehhandler$??1CJewelOfHarmonySystem@@UAE@XZ
  0000a	64 a1 00 00 00
	00		 mov	 eax, DWORD PTR fs:0
  00010	50		 push	 eax
  00011	83 ec 08	 sub	 esp, 8
  00014	56		 push	 esi
  00015	a1 00 00 00 00	 mov	 eax, DWORD PTR ___security_cookie
  0001a	33 c5		 xor	 eax, ebp
  0001c	50		 push	 eax
  0001d	8d 45 f4	 lea	 eax, DWORD PTR __$EHRec$[ebp]
  00020	64 a3 00 00 00
	00		 mov	 DWORD PTR fs:0, eax
  00026	8b f1		 mov	 esi, ecx
  00028	89 75 f0	 mov	 DWORD PTR _this$[ebp], esi
  0002b	c7 06 00 00 00
	00		 mov	 DWORD PTR [esi], OFFSET ??_7CJewelOfHarmonySystem@@6B@

; 31   : 	return;
; 32   : }

  00031	8d 8e 5c 53 00
	00		 lea	 ecx, DWORD PTR [esi+21340]
  00037	c7 45 fc 00 00
	00 00		 mov	 DWORD PTR __$EHRec$[ebp+8], 0
  0003e	e8 00 00 00 00	 call	 ??1TRandomPoolMgr@@UAE@XZ ; TRandomPoolMgr::~TRandomPoolMgr
  00043	81 c6 4c 53 00
	00		 add	 esi, 21324		; 0000534cH
  00049	89 75 f0	 mov	 DWORD PTR $T218890[ebp], esi
  0004c	8b 46 04	 mov	 eax, DWORD PTR [esi+4]
  0004f	8b 08		 mov	 ecx, DWORD PTR [eax]
  00051	50		 push	 eax
  00052	51		 push	 ecx
  00053	8d 45 ec	 lea	 eax, DWORD PTR $T218859[ebp]
  00056	50		 push	 eax
  00057	8b ce		 mov	 ecx, esi
  00059	c7 45 fc 01 00
	00 00		 mov	 DWORD PTR __$EHRec$[ebp+8], 1
  00060	e8 00 00 00 00	 call	 ?erase@?$_Tree@V?$_Tmap_traits@HHU?$less@H@std@@V?$allocator@U?$pair@$$CBHH@std@@@2@$0A@@std@@@std@@QAE?AV?$_Tree_iterator@V?$_Tree_val@V?$_Tmap_traits@HHU?$less@H@std@@V?$allocator@U?$pair@$$CBHH@std@@@2@$0A@@std@@@std@@@2@V?$_Tree_const_iterator@V?$_Tree_val@V?$_Tmap_traits@HHU?$less@H@std@@V?$allocator@U?$pair@$$CBHH@std@@@2@$0A@@std@@@std@@@2@0@Z ; std::_Tree<std::_Tmap_traits<int,int,std::less<int>,std::allocator<std::pair<int const ,int> >,0> >::erase
  00065	8b 4e 04	 mov	 ecx, DWORD PTR [esi+4]
  00068	51		 push	 ecx
  00069	e8 00 00 00 00	 call	 ??3@YAXPAX@Z		; operator delete
  0006e	83 c4 04	 add	 esp, 4
  00071	8b 4d f4	 mov	 ecx, DWORD PTR __$EHRec$[ebp]
  00074	64 89 0d 00 00
	00 00		 mov	 DWORD PTR fs:0, ecx
  0007b	59		 pop	 ecx
  0007c	5e		 pop	 esi
  0007d	8b e5		 mov	 esp, ebp
  0007f	5d		 pop	 ebp
  00080	c3		 ret	 0
_TEXT	ENDS
;	COMDAT text$x
text$x	SEGMENT
__unwindfunclet$??1CJewelOfHarmonySystem@@UAE@XZ$0:
  00000	8b 4d f0	 mov	 ecx, DWORD PTR _this$[ebp]
  00003	81 c1 4c 53 00
	00		 add	 ecx, 21324		; 0000534cH
  00009	e9 00 00 00 00	 jmp	 ??1?$map@HHU?$less@H@std@@V?$allocator@U?$pair@$$CBHH@std@@@2@@std@@QAE@XZ
__unwindfunclet$??1CJewelOfHarmonySystem@@UAE@XZ$3:
  0000e	8b 4d f0	 mov	 ecx, DWORD PTR $T218890[ebp]
  00011	e9 00 00 00 00	 jmp	 ??1?$_Tree_val@V?$_Tmap_traits@HHU?$less@H@std@@V?$allocator@U?$pair@$$CBHH@std@@@2@$0A@@std@@@std@@QAE@XZ ; std::_Tree_val<std::_Tmap_traits<int,int,std::less<int>,std::allocator<std::pair<int const ,int> >,0> >::~_Tree_val<std::_Tmap_traits<int,int,std::less<int>,std::allocator<std::pair<int const ,int> >,0> >
__ehhandler$??1CJewelOfHarmonySystem@@UAE@XZ:
  00016	8b 54 24 08	 mov	 edx, DWORD PTR [esp+8]
  0001a	8d 42 0c	 lea	 eax, DWORD PTR [edx+12]
  0001d	8b 4a f0	 mov	 ecx, DWORD PTR [edx-16]
  00020	33 c8		 xor	 ecx, eax
  00022	e8 00 00 00 00	 call	 @__security_check_cookie@4
  00027	b8 00 00 00 00	 mov	 eax, OFFSET __ehfuncinfo$??1CJewelOfHarmonySystem@@UAE@XZ
  0002c	e9 00 00 00 00	 jmp	 ___CxxFrameHandler3
text$x	ENDS
??1CJewelOfHarmonySystem@@UAE@XZ ENDP			; CJewelOfHarmonySystem::~CJewelOfHarmonySystem
PUBLIC	??0?$map@HHU?$less@H@std@@V?$allocator@U?$pair@$$CBHH@std@@@2@@std@@QAE@XZ ; std::map<int,int,std::less<int>,std::allocator<std::pair<int const ,int> > >::map<int,int,std::less<int>,std::allocator<std::pair<int const ,int> > >
; Function compile flags: /Ogtp
; File d:\program files (x86)\microsoft visual studio 10.0\vc\include\map
;	COMDAT ??0?$map@HHU?$less@H@std@@V?$allocator@U?$pair@$$CBHH@std@@@2@@std@@QAE@XZ
_TEXT	SEGMENT
$T219050 = -16						; size = 12
$T218943 = -4						; size = 4
??0?$map@HHU?$less@H@std@@V?$allocator@U?$pair@$$CBHH@std@@@2@@std@@QAE@XZ PROC ; std::map<int,int,std::less<int>,std::allocator<std::pair<int const ,int> > >::map<int,int,std::less<int>,std::allocator<std::pair<int const ,int> > >, COMDAT
; _this$ = ecx

; 106  : 		{	// construct empty map from defaults

  00000	55		 push	 ebp
  00001	8b ec		 mov	 ebp, esp
  00003	83 ec 10	 sub	 esp, 16			; 00000010H
  00006	56		 push	 esi
  00007	8b f1		 mov	 esi, ecx
  00009	6a 18		 push	 24			; 00000018H
  0000b	c7 46 08 00 00
	00 00		 mov	 DWORD PTR [esi+8], 0
  00012	e8 00 00 00 00	 call	 ??2@YAPAXI@Z		; operator new
  00017	83 c4 04	 add	 esp, 4
  0001a	85 c0		 test	 eax, eax
  0001c	74 26		 je	 SHORT $LN25@map
  0001e	89 46 04	 mov	 DWORD PTR [esi+4], eax
  00021	89 00		 mov	 DWORD PTR [eax], eax
  00023	8b 46 04	 mov	 eax, DWORD PTR [esi+4]
  00026	89 40 04	 mov	 DWORD PTR [eax+4], eax
  00029	8b 46 04	 mov	 eax, DWORD PTR [esi+4]
  0002c	89 40 08	 mov	 DWORD PTR [eax+8], eax
  0002f	8b 4e 04	 mov	 ecx, DWORD PTR [esi+4]
  00032	b0 01		 mov	 al, 1
  00034	88 41 14	 mov	 BYTE PTR [ecx+20], al
  00037	8b 56 04	 mov	 edx, DWORD PTR [esi+4]
  0003a	88 42 15	 mov	 BYTE PTR [edx+21], al

; 107  : 		}

  0003d	8b c6		 mov	 eax, esi
  0003f	5e		 pop	 esi
  00040	8b e5		 mov	 esp, ebp
  00042	5d		 pop	 ebp
  00043	c3		 ret	 0

; 106  : 		{	// construct empty map from defaults

$LN25@map:
  00044	8d 45 fc	 lea	 eax, DWORD PTR $T218943[ebp]
  00047	50		 push	 eax
  00048	8d 4d f0	 lea	 ecx, DWORD PTR $T219050[ebp]
  0004b	c7 45 fc 00 00
	00 00		 mov	 DWORD PTR $T218943[ebp], 0
  00052	e8 00 00 00 00	 call	 ??0exception@std@@QAE@ABQBD@Z ; std::exception::exception
  00057	68 00 00 00 00	 push	 OFFSET __TI2?AVbad_alloc@std@@
  0005c	8d 4d f0	 lea	 ecx, DWORD PTR $T219050[ebp]
  0005f	51		 push	 ecx
  00060	c7 45 f0 00 00
	00 00		 mov	 DWORD PTR $T219050[ebp], OFFSET ??_7bad_alloc@std@@6B@
  00067	e8 00 00 00 00	 call	 __CxxThrowException@8
$LN49@map:
$LN48@map:
  0006c	cc		 int	 3
??0?$map@HHU?$less@H@std@@V?$allocator@U?$pair@$$CBHH@std@@@2@@std@@QAE@XZ ENDP ; std::map<int,int,std::less<int>,std::allocator<std::pair<int const ,int> > >::map<int,int,std::less<int>,std::allocator<std::pair<int const ,int> > >
_TEXT	ENDS
PUBLIC	??A?$map@HHU?$less@H@std@@V?$allocator@U?$pair@$$CBHH@std@@@2@@std@@QAEAAHABH@Z ; std::map<int,int,std::less<int>,std::allocator<std::pair<int const ,int> > >::operator[]
; Function compile flags: /Ogtp
;	COMDAT ??A?$map@HHU?$less@H@std@@V?$allocator@U?$pair@$$CBHH@std@@@2@@std@@QAEAAHABH@Z
_TEXT	SEGMENT
$T219071 = -8						; size = 8
$T219074 = 8						; size = 4
__Keyval$ = 8						; size = 4
??A?$map@HHU?$less@H@std@@V?$allocator@U?$pair@$$CBHH@std@@@2@@std@@QAEAAHABH@Z PROC ; std::map<int,int,std::less<int>,std::allocator<std::pair<int const ,int> > >::operator[], COMDAT
; _this$ = ecx

; 210  : 		{	// find element matching _Keyval or insert with default mapped

  00000	55		 push	 ebp
  00001	8b ec		 mov	 ebp, esp

; 211  : 		iterator _Where = this->lower_bound(_Keyval);

  00003	8b 55 08	 mov	 edx, DWORD PTR __Keyval$[ebp]
  00006	83 ec 08	 sub	 esp, 8
  00009	56		 push	 esi
  0000a	8b f1		 mov	 esi, ecx
  0000c	8b 4e 04	 mov	 ecx, DWORD PTR [esi+4]
  0000f	8b 41 04	 mov	 eax, DWORD PTR [ecx+4]
  00012	80 78 15 00	 cmp	 BYTE PTR [eax+21], 0
  00016	57		 push	 edi
  00017	8b f9		 mov	 edi, ecx
  00019	75 19		 jne	 SHORT $LN9@operator@3
  0001b	8b 0a		 mov	 ecx, DWORD PTR [edx]
  0001d	8d 49 00	 npad	 3
$LL10@operator@3:
  00020	39 48 0c	 cmp	 DWORD PTR [eax+12], ecx
  00023	7d 05		 jge	 SHORT $LN8@operator@3
  00025	8b 40 08	 mov	 eax, DWORD PTR [eax+8]
  00028	eb 04		 jmp	 SHORT $LN7@operator@3
$LN8@operator@3:
  0002a	8b f8		 mov	 edi, eax
  0002c	8b 00		 mov	 eax, DWORD PTR [eax]
$LN7@operator@3:
  0002e	80 78 15 00	 cmp	 BYTE PTR [eax+21], 0
  00032	74 ec		 je	 SHORT $LL10@operator@3
$LN9@operator@3:

; 212  : 		if (_Where == this->end()
; 213  : 			|| this->comp(_Keyval, this->_Key(_Where._Mynode())))

  00034	3b 7e 04	 cmp	 edi, DWORD PTR [esi+4]
  00037	74 07		 je	 SHORT $LN1@operator@3
  00039	8b 02		 mov	 eax, DWORD PTR [edx]
  0003b	3b 47 0c	 cmp	 eax, DWORD PTR [edi+12]
  0003e	7d 32		 jge	 SHORT $LN80@operator@3
$LN1@operator@3:

; 214  : 			_Where = this->insert(_Where,
; 215  : 				value_type(_Keyval, mapped_type()));

  00040	8b 0a		 mov	 ecx, DWORD PTR [edx]
  00042	8d 55 f8	 lea	 edx, DWORD PTR $T219071[ebp]
  00045	89 4d f8	 mov	 DWORD PTR $T219071[ebp], ecx
  00048	52		 push	 edx
  00049	8b ce		 mov	 ecx, esi
  0004b	c7 45 fc 00 00
	00 00		 mov	 DWORD PTR $T219071[ebp+4], 0
  00052	e8 00 00 00 00	 call	 ??$_Buynode@U?$pair@$$CBHH@std@@@?$_Tree_val@V?$_Tmap_traits@HHU?$less@H@std@@V?$allocator@U?$pair@$$CBHH@std@@@2@$0A@@std@@@std@@QAEPAU_Node@?$_Tree_nod@V?$_Tmap_traits@HHU?$less@H@std@@V?$allocator@U?$pair@$$CBHH@std@@@2@$0A@@std@@@1@$$QAU?$pair@$$CBHH@1@@Z ; std::_Tree_val<std::_Tmap_traits<int,int,std::less<int>,std::allocator<std::pair<int const ,int> >,0> >::_Buynode<std::pair<int const ,int> >
  00057	50		 push	 eax
  00058	57		 push	 edi
  00059	8d 45 08	 lea	 eax, DWORD PTR $T219074[ebp]
  0005c	50		 push	 eax
  0005d	8b ce		 mov	 ecx, esi
  0005f	e8 00 00 00 00	 call	 ?_Insert@?$_Tree@V?$_Tmap_traits@HHU?$less@H@std@@V?$allocator@U?$pair@$$CBHH@std@@@2@$0A@@std@@@std@@QAE?AV?$_Tree_iterator@V?$_Tree_val@V?$_Tmap_traits@HHU?$less@H@std@@V?$allocator@U?$pair@$$CBHH@std@@@2@$0A@@std@@@std@@@2@V?$_Tree_const_iterator@V?$_Tree_val@V?$_Tmap_traits@HHU?$less@H@std@@V?$allocator@U?$pair@$$CBHH@std@@@2@$0A@@std@@@std@@@2@PAU_Node@?$_Tree_nod@V?$_Tmap_traits@HHU?$less@H@std@@V?$allocator@U?$pair@$$CBHH@std@@@2@$0A@@std@@@2@@Z ; std::_Tree<std::_Tmap_traits<int,int,std::less<int>,std::allocator<std::pair<int const ,int> >,0> >::_Insert
  00064	8b 45 08	 mov	 eax, DWORD PTR $T219074[ebp]
  00067	5f		 pop	 edi

; 216  : 		return ((*_Where).second);

  00068	83 c0 10	 add	 eax, 16			; 00000010H
  0006b	5e		 pop	 esi

; 217  : 		}

  0006c	8b e5		 mov	 esp, ebp
  0006e	5d		 pop	 ebp
  0006f	c2 04 00	 ret	 4
$LN80@operator@3:

; 216  : 		return ((*_Where).second);

  00072	8d 47 10	 lea	 eax, DWORD PTR [edi+16]
  00075	5f		 pop	 edi
  00076	5e		 pop	 esi

; 217  : 		}

  00077	8b e5		 mov	 esp, ebp
  00079	5d		 pop	 ebp
  0007a	c2 04 00	 ret	 4
??A?$map@HHU?$less@H@std@@V?$allocator@U?$pair@$$CBHH@std@@@2@@std@@QAEAAHABH@Z ENDP ; std::map<int,int,std::less<int>,std::allocator<std::pair<int const ,int> > >::operator[]
_TEXT	ENDS
PUBLIC	??0CJewelOfHarmonySystem@@QAE@XZ		; CJewelOfHarmonySystem::CJewelOfHarmonySystem
EXTRN	??0TRandomPoolMgr@@QAE@XZ:PROC			; TRandomPoolMgr::TRandomPoolMgr
;	COMDAT xdata$x
; File d:\program files (x86)\microsoft visual studio 10.0\vc\include\xtree
xdata$x	SEGMENT
__unwindtable$??0CJewelOfHarmonySystem@@QAE@XZ DD 0ffffffffH
	DD	FLAT:__unwindfunclet$??0CJewelOfHarmonySystem@@QAE@XZ$0
	DD	00H
	DD	FLAT:__unwindfunclet$??0CJewelOfHarmonySystem@@QAE@XZ$1
__ehfuncinfo$??0CJewelOfHarmonySystem@@QAE@XZ DD 019930522H
	DD	02H
	DD	FLAT:__unwindtable$??0CJewelOfHarmonySystem@@QAE@XZ
	DD	2 DUP(00H)
	DD	2 DUP(00H)
	DD	00H
	DD	01H
; Function compile flags: /Ogtp
; File e:\work\tranet_version\gs\gameserver\jewelofharmonysystem.cpp
xdata$x	ENDS
;	COMDAT ??0CJewelOfHarmonySystem@@QAE@XZ
_TEXT	SEGMENT
$T219499 = -32						; size = 12
_this$ = -20						; size = 4
$T219348 = -16						; size = 4
__$EHRec$ = -12						; size = 12
??0CJewelOfHarmonySystem@@QAE@XZ PROC			; CJewelOfHarmonySystem::CJewelOfHarmonySystem, COMDAT
; _this$ = ecx

; 24   : {

  00000	55		 push	 ebp
  00001	8b ec		 mov	 ebp, esp
  00003	6a ff		 push	 -1
  00005	68 00 00 00 00	 push	 __ehhandler$??0CJewelOfHarmonySystem@@QAE@XZ
  0000a	64 a1 00 00 00
	00		 mov	 eax, DWORD PTR fs:0
  00010	50		 push	 eax
  00011	83 ec 14	 sub	 esp, 20			; 00000014H
  00014	53		 push	 ebx
  00015	56		 push	 esi
  00016	a1 00 00 00 00	 mov	 eax, DWORD PTR ___security_cookie
  0001b	33 c5		 xor	 eax, ebp
  0001d	50		 push	 eax
  0001e	8d 45 f4	 lea	 eax, DWORD PTR __$EHRec$[ebp]
  00021	64 a3 00 00 00
	00		 mov	 DWORD PTR fs:0, eax
  00027	8b f1		 mov	 esi, ecx
  00029	89 75 ec	 mov	 DWORD PTR _this$[ebp], esi
  0002c	c7 06 00 00 00
	00		 mov	 DWORD PTR [esi], OFFSET ??_7CJewelOfHarmonySystem@@6B@
  00032	6a 18		 push	 24			; 00000018H
  00034	c7 86 54 53 00
	00 00 00 00 00	 mov	 DWORD PTR [esi+21332], 0
  0003e	e8 00 00 00 00	 call	 ??2@YAPAXI@Z		; operator new
  00043	83 c4 04	 add	 esp, 4
  00046	85 c0		 test	 eax, eax
  00048	74 63		 je	 SHORT $LN29@CJewelOfHa
  0004a	89 86 50 53 00
	00		 mov	 DWORD PTR [esi+21328], eax
  00050	89 00		 mov	 DWORD PTR [eax], eax
  00052	8b 86 50 53 00
	00		 mov	 eax, DWORD PTR [esi+21328]
  00058	89 40 04	 mov	 DWORD PTR [eax+4], eax
  0005b	8b 86 50 53 00
	00		 mov	 eax, DWORD PTR [esi+21328]
  00061	89 40 08	 mov	 DWORD PTR [eax+8], eax
  00064	8b 86 50 53 00
	00		 mov	 eax, DWORD PTR [esi+21328]
  0006a	bb 01 00 00 00	 mov	 ebx, 1
  0006f	88 58 14	 mov	 BYTE PTR [eax+20], bl
  00072	8b 8e 50 53 00
	00		 mov	 ecx, DWORD PTR [esi+21328]
  00078	88 59 15	 mov	 BYTE PTR [ecx+21], bl
  0007b	8d 8e 5c 53 00
	00		 lea	 ecx, DWORD PTR [esi+21340]
  00081	c7 45 fc 00 00
	00 00		 mov	 DWORD PTR __$EHRec$[ebp+8], 0
  00088	e8 00 00 00 00	 call	 ??0TRandomPoolMgr@@QAE@XZ ; TRandomPoolMgr::TRandomPoolMgr

; 25   : 	this->m_bEnable = TRUE;
; 26   : 	this->_InitOption();

  0008d	8b ce		 mov	 ecx, esi
  0008f	88 5d fc	 mov	 BYTE PTR __$EHRec$[ebp+8], bl
  00092	89 5e 04	 mov	 DWORD PTR [esi+4], ebx
  00095	e8 00 00 00 00	 call	 ?_InitOption@CJewelOfHarmonySystem@@QAEXXZ ; CJewelOfHarmonySystem::_InitOption

; 27   : }

  0009a	8b c6		 mov	 eax, esi
  0009c	8b 4d f4	 mov	 ecx, DWORD PTR __$EHRec$[ebp]
  0009f	64 89 0d 00 00
	00 00		 mov	 DWORD PTR fs:0, ecx
  000a6	59		 pop	 ecx
  000a7	5e		 pop	 esi
  000a8	5b		 pop	 ebx
  000a9	8b e5		 mov	 esp, ebp
  000ab	5d		 pop	 ebp
  000ac	c3		 ret	 0

; 24   : {

$LN29@CJewelOfHa:
  000ad	8d 55 f0	 lea	 edx, DWORD PTR $T219348[ebp]
  000b0	52		 push	 edx
  000b1	8d 4d e0	 lea	 ecx, DWORD PTR $T219499[ebp]
  000b4	c7 45 f0 00 00
	00 00		 mov	 DWORD PTR $T219348[ebp], 0
  000bb	e8 00 00 00 00	 call	 ??0exception@std@@QAE@ABQBD@Z ; std::exception::exception
  000c0	68 00 00 00 00	 push	 OFFSET __TI2?AVbad_alloc@std@@
  000c5	8d 45 e0	 lea	 eax, DWORD PTR $T219499[ebp]
  000c8	50		 push	 eax
  000c9	c7 45 e0 00 00
	00 00		 mov	 DWORD PTR $T219499[ebp], OFFSET ??_7bad_alloc@std@@6B@
  000d0	e8 00 00 00 00	 call	 __CxxThrowException@8
$LN55@CJewelOfHa:
$LN54@CJewelOfHa:
  000d5	cc		 int	 3
_TEXT	ENDS
;	COMDAT text$x
text$x	SEGMENT
__unwindfunclet$??0CJewelOfHarmonySystem@@QAE@XZ$0:
  00000	8b 4d ec	 mov	 ecx, DWORD PTR _this$[ebp]
  00003	81 c1 4c 53 00
	00		 add	 ecx, 21324		; 0000534cH
  00009	e9 00 00 00 00	 jmp	 ??1?$map@HHU?$less@H@std@@V?$allocator@U?$pair@$$CBHH@std@@@2@@std@@QAE@XZ
__unwindfunclet$??0CJewelOfHarmonySystem@@QAE@XZ$1:
  0000e	8b 4d ec	 mov	 ecx, DWORD PTR _this$[ebp]
  00011	81 c1 5c 53 00
	00		 add	 ecx, 21340		; 0000535cH
  00017	e9 00 00 00 00	 jmp	 ??1TRandomPoolMgr@@UAE@XZ ; TRandomPoolMgr::~TRandomPoolMgr
__ehhandler$??0CJewelOfHarmonySystem@@QAE@XZ:
  0001c	8b 54 24 08	 mov	 edx, DWORD PTR [esp+8]
  00020	8d 42 0c	 lea	 eax, DWORD PTR [edx+12]
  00023	8b 4a e0	 mov	 ecx, DWORD PTR [edx-32]
  00026	33 c8		 xor	 ecx, eax
  00028	e8 00 00 00 00	 call	 @__security_check_cookie@4
  0002d	b8 00 00 00 00	 mov	 eax, OFFSET __ehfuncinfo$??0CJewelOfHarmonySystem@@QAE@XZ
  00032	e9 00 00 00 00	 jmp	 ___CxxFrameHandler3
text$x	ENDS
??0CJewelOfHarmonySystem@@QAE@XZ ENDP			; CJewelOfHarmonySystem::CJewelOfHarmonySystem
; Function compile flags: /Ogtp
;	COMDAT ??_GCJewelOfHarmonySystem@@UAEPAXI@Z
_TEXT	SEGMENT
___flags$ = 8						; size = 4
??_GCJewelOfHarmonySystem@@UAEPAXI@Z PROC		; CJewelOfHarmonySystem::`scalar deleting destructor', COMDAT
; _this$ = ecx
  00000	55		 push	 ebp
  00001	8b ec		 mov	 ebp, esp
  00003	56		 push	 esi
  00004	8b f1		 mov	 esi, ecx
  00006	e8 00 00 00 00	 call	 ??1CJewelOfHarmonySystem@@UAE@XZ ; CJewelOfHarmonySystem::~CJewelOfHarmonySystem
  0000b	f6 45 08 01	 test	 BYTE PTR ___flags$[ebp], 1
  0000f	74 09		 je	 SHORT $LN4@scalar@2
  00011	56		 push	 esi
  00012	e8 00 00 00 00	 call	 ??3@YAXPAX@Z		; operator delete
  00017	83 c4 04	 add	 esp, 4
$LN4@scalar@2:
  0001a	8b c6		 mov	 eax, esi
  0001c	5e		 pop	 esi
  0001d	5d		 pop	 ebp
  0001e	c2 04 00	 ret	 4
??_GCJewelOfHarmonySystem@@UAEPAXI@Z ENDP		; CJewelOfHarmonySystem::`scalar deleting destructor'
_TEXT	ENDS
PUBLIC	?LoadScriptOfSmelt@CJewelOfHarmonySystem@@QAEHPAD@Z ; CJewelOfHarmonySystem::LoadScriptOfSmelt
; Function compile flags: /Ogtp
;	COMDAT ?LoadScriptOfSmelt@CJewelOfHarmonySystem@@QAEHPAD@Z
_TEXT	SEGMENT
_idx$211717 = -4					; size = 4
_Type$211703 = 8					; size = 4
_lpszFileName$ = 8					; size = 4
?LoadScriptOfSmelt@CJewelOfHarmonySystem@@QAEHPAD@Z PROC ; CJewelOfHarmonySystem::LoadScriptOfSmelt, COMDAT
; _this$ = ecx

; 128  : {

  00000	55		 push	 ebp
  00001	8b ec		 mov	 ebp, esp
  00003	51		 push	 ecx

; 129  : 	SMDToken Token;
; 130  : 	SMDFile = fopen(lpszFileName, "r");

  00004	8b 45 08	 mov	 eax, DWORD PTR _lpszFileName$[ebp]
  00007	56		 push	 esi
  00008	68 00 00 00 00	 push	 OFFSET ??_C@_01KDCPPGHE@r?$AA@
  0000d	50		 push	 eax
  0000e	8b f1		 mov	 esi, ecx
  00010	e8 00 00 00 00	 call	 _fopen
  00015	83 c4 08	 add	 esp, 8
  00018	a3 00 00 00 00	 mov	 DWORD PTR _SMDFile, eax

; 131  : 
; 132  : 	if ( SMDFile == NULL )

  0001d	85 c0		 test	 eax, eax
  0001f	75 07		 jne	 SHORT $LN9@LoadScript@2
  00021	5e		 pop	 esi

; 173  : }

  00022	8b e5		 mov	 esp, ebp
  00024	5d		 pop	 ebp
  00025	c2 04 00	 ret	 4
$LN9@LoadScript@2:
  00028	53		 push	 ebx

; 133  : 		return FALSE;
; 134  : 
; 135  : 	this->m_mapEnableMixList.clear();

  00029	8d 9e 4c 53 00
	00		 lea	 ebx, DWORD PTR [esi+21324]
  0002f	8b cb		 mov	 ecx, ebx
  00031	e8 00 00 00 00	 call	 ?clear@?$_Tree@V?$_Tmap_traits@HHU?$less@H@std@@V?$allocator@U?$pair@$$CBHH@std@@@2@$0A@@std@@@std@@QAEXXZ ; std::_Tree<std::_Tmap_traits<int,int,std::less<int>,std::allocator<std::pair<int const ,int> >,0> >::clear

; 136  : 
; 137  : 	while ( true )
; 138  : 	{
; 139  : 		Token = (SMDToken)GetToken();

  00036	e8 00 00 00 00	 call	 ?GetToken@@YA?AW4SMDToken@@XZ ; GetToken

; 140  : 
; 141  : 		if ( Token == END )

  0003b	83 f8 02	 cmp	 eax, 2
  0003e	0f 84 a7 00 00
	00		 je	 $LN22@LoadScript@2
  00044	57		 push	 edi
$LL8@LoadScript@2:

; 142  : 			break;
; 143  : 
; 144  : 		if ( Token == NUMBER )

  00045	83 f8 01	 cmp	 eax, 1
  00048	0f 85 8e 00 00
	00		 jne	 $LN21@LoadScript@2

; 145  : 		{
; 146  : 			int Type = (int)TokenNumber;

  0004e	d9 05 00 00 00
	00		 fld	 DWORD PTR _TokenNumber
  00054	e8 00 00 00 00	 call	 __ftol2_sse
  00059	89 45 08	 mov	 DWORD PTR _Type$211703[ebp], eax
  0005c	8d 64 24 00	 npad	 4
$LL4@LoadScript@2:

; 147  : 
; 148  : 			while ( true )
; 149  : 			{
; 150  : 				Token = (SMDToken)GetToken();

  00060	e8 00 00 00 00	 call	 ?GetToken@@YA?AW4SMDToken@@XZ ; GetToken

; 151  : 				int index = (int)TokenNumber;

  00065	d9 05 00 00 00
	00		 fld	 DWORD PTR _TokenNumber
  0006b	8b f0		 mov	 esi, eax
  0006d	e8 00 00 00 00	 call	 __ftol2_sse
  00072	8b f8		 mov	 edi, eax

; 152  : 
; 153  : 				if ( Token == NAME )

  00074	85 f6		 test	 esi, esi
  00076	75 33		 jne	 SHORT $LN1@LoadScript@2

; 154  : 				{
; 155  : 					if ( !strcmp("end", TokenString))

  00078	b9 00 00 00 00	 mov	 ecx, OFFSET _TokenString
  0007d	b8 00 00 00 00	 mov	 eax, OFFSET ??_C@_03JBJLGPFL@end?$AA@
$LL17@LoadScript@2:
  00082	8a 10		 mov	 dl, BYTE PTR [eax]
  00084	3a 11		 cmp	 dl, BYTE PTR [ecx]
  00086	75 1a		 jne	 SHORT $LN18@LoadScript@2
  00088	84 d2		 test	 dl, dl
  0008a	74 12		 je	 SHORT $LN19@LoadScript@2
  0008c	8a 50 01	 mov	 dl, BYTE PTR [eax+1]
  0008f	3a 51 01	 cmp	 dl, BYTE PTR [ecx+1]
  00092	75 0e		 jne	 SHORT $LN18@LoadScript@2
  00094	83 c0 02	 add	 eax, 2
  00097	83 c1 02	 add	 ecx, 2
  0009a	84 d2		 test	 dl, dl
  0009c	75 e4		 jne	 SHORT $LL17@LoadScript@2
$LN19@LoadScript@2:
  0009e	33 c0		 xor	 eax, eax
  000a0	eb 05		 jmp	 SHORT $LN20@LoadScript@2
$LN18@LoadScript@2:
  000a2	1b c0		 sbb	 eax, eax
  000a4	83 d8 ff	 sbb	 eax, -1
$LN20@LoadScript@2:
  000a7	85 c0		 test	 eax, eax
  000a9	74 31		 je	 SHORT $LN21@LoadScript@2
$LN1@LoadScript@2:

; 156  : 					{
; 157  : 						break;
; 158  : 					}
; 159  : 				}
; 160  : 
; 161  : 				Token = (SMDToken)GetToken();

  000ab	e8 00 00 00 00	 call	 ?GetToken@@YA?AW4SMDToken@@XZ ; GetToken

; 162  : 
; 163  : 				Token = (SMDToken)GetToken();

  000b0	e8 00 00 00 00	 call	 ?GetToken@@YA?AW4SMDToken@@XZ ; GetToken

; 164  : 
; 165  : 				int reqLev = (int)TokenNumber;

  000b5	d9 05 00 00 00
	00		 fld	 DWORD PTR _TokenNumber
  000bb	e8 00 00 00 00	 call	 __ftol2_sse

; 166  : 				int idx = ITEMGET(Type, index);

  000c0	8b 4d 08	 mov	 ecx, DWORD PTR _Type$211703[ebp]
  000c3	c1 e1 09	 shl	 ecx, 9
  000c6	03 cf		 add	 ecx, edi

; 167  : 
; 168  : 				this->m_mapEnableMixList[idx]= reqLev;

  000c8	8d 55 fc	 lea	 edx, DWORD PTR _idx$211717[ebp]
  000cb	89 4d fc	 mov	 DWORD PTR _idx$211717[ebp], ecx
  000ce	52		 push	 edx
  000cf	8b cb		 mov	 ecx, ebx
  000d1	8b f0		 mov	 esi, eax
  000d3	e8 00 00 00 00	 call	 ??A?$map@HHU?$less@H@std@@V?$allocator@U?$pair@$$CBHH@std@@@2@@std@@QAEAAHABH@Z ; std::map<int,int,std::less<int>,std::allocator<std::pair<int const ,int> > >::operator[]
  000d8	89 30		 mov	 DWORD PTR [eax], esi

; 169  : 			}

  000da	eb 84		 jmp	 SHORT $LL4@LoadScript@2
$LN21@LoadScript@2:

; 136  : 
; 137  : 	while ( true )
; 138  : 	{
; 139  : 		Token = (SMDToken)GetToken();

  000dc	e8 00 00 00 00	 call	 ?GetToken@@YA?AW4SMDToken@@XZ ; GetToken

; 140  : 
; 141  : 		if ( Token == END )

  000e1	83 f8 02	 cmp	 eax, 2
  000e4	0f 85 5b ff ff
	ff		 jne	 $LL8@LoadScript@2
  000ea	5f		 pop	 edi
$LN22@LoadScript@2:
  000eb	5b		 pop	 ebx

; 170  : 		}
; 171  : 	}
; 172  : 	return TRUE;

  000ec	b8 01 00 00 00	 mov	 eax, 1
  000f1	5e		 pop	 esi

; 173  : }

  000f2	8b e5		 mov	 esp, ebp
  000f4	5d		 pop	 ebp
  000f5	c2 04 00	 ret	 4
?LoadScriptOfSmelt@CJewelOfHarmonySystem@@QAEHPAD@Z ENDP ; CJewelOfHarmonySystem::LoadScriptOfSmelt
_TEXT	ENDS
EXTRN	_atexit:PROC
; Function compile flags: /Ogtp
;	COMDAT ??__Eg_kJewelOfHarmonySystem@@YAXXZ
text$yc	SEGMENT
??__Eg_kJewelOfHarmonySystem@@YAXXZ PROC		; `dynamic initializer for 'g_kJewelOfHarmonySystem'', COMDAT

; 17   : CJewelOfHarmonySystem g_kJewelOfHarmonySystem;

  00000	b9 00 00 00 00	 mov	 ecx, OFFSET ?g_kJewelOfHarmonySystem@@3VCJewelOfHarmonySystem@@A ; g_kJewelOfHarmonySystem
  00005	e8 00 00 00 00	 call	 ??0CJewelOfHarmonySystem@@QAE@XZ ; CJewelOfHarmonySystem::CJewelOfHarmonySystem
  0000a	68 00 00 00 00	 push	 OFFSET ??__Fg_kJewelOfHarmonySystem@@YAXXZ ; `dynamic atexit destructor for 'g_kJewelOfHarmonySystem''
  0000f	e8 00 00 00 00	 call	 _atexit
  00014	59		 pop	 ecx
  00015	c3		 ret	 0
??__Eg_kJewelOfHarmonySystem@@YAXXZ ENDP		; `dynamic initializer for 'g_kJewelOfHarmonySystem''
; Function compile flags: /Ogtp
text$yc	ENDS
;	COMDAT ??__Fg_kJewelOfHarmonySystem@@YAXXZ
text$yd	SEGMENT
??__Fg_kJewelOfHarmonySystem@@YAXXZ PROC		; `dynamic atexit destructor for 'g_kJewelOfHarmonySystem'', COMDAT
  00000	b9 00 00 00 00	 mov	 ecx, OFFSET ?g_kJewelOfHarmonySystem@@3VCJewelOfHarmonySystem@@A ; g_kJewelOfHarmonySystem
  00005	e9 00 00 00 00	 jmp	 ??1CJewelOfHarmonySystem@@UAE@XZ ; CJewelOfHarmonySystem::~CJewelOfHarmonySystem
??__Fg_kJewelOfHarmonySystem@@YAXXZ ENDP		; `dynamic atexit destructor for 'g_kJewelOfHarmonySystem''
text$yd	ENDS
PUBLIC	?g_kJewelOfHarmonySystem@@3VCJewelOfHarmonySystem@@A ; g_kJewelOfHarmonySystem
_BSS	SEGMENT
?g_kJewelOfHarmonySystem@@3VCJewelOfHarmonySystem@@A DB 05374H DUP (?) ; g_kJewelOfHarmonySystem
_BSS	ENDS
CRT$XCU	SEGMENT
_g_kJewelOfHarmonySystem$initializer$ DD FLAT:??__Eg_kJewelOfHarmonySystem@@YAXXZ
CRT$XCU	ENDS
END
