; Listing generated by Microsoft (R) Optimizing Compiler Version 16.00.30319.01 

	TITLE	E:\work\tranet_version\GS\GameServer\KanturuMaya.cpp
	.686P
	.XMM
	include listing.inc
	.model	flat

INCLUDELIB LIBCMT
INCLUDELIB OLDNAMES

PUBLIC	??_H@YGXPAXIHP6EPAX0@Z@Z			; `vector constructor iterator'
; Function compile flags: /Ogtp
;	COMDAT ??_H@YGXPAXIHP6EPAX0@Z@Z
_TEXT	SEGMENT
___t$ = 8						; size = 4
___s$ = 12						; size = 4
___n$ = 16						; size = 4
___f$ = 20						; size = 4
??_H@YGXPAXIHP6EPAX0@Z@Z PROC				; `vector constructor iterator', COMDAT
  00000	55		 push	 ebp
  00001	8b ec		 mov	 ebp, esp
  00003	57		 push	 edi
  00004	8b 7d 10	 mov	 edi, DWORD PTR ___n$[ebp]
  00007	4f		 dec	 edi
  00008	78 14		 js	 SHORT $LN1@vector
  0000a	53		 push	 ebx
  0000b	8b 5d 14	 mov	 ebx, DWORD PTR ___f$[ebp]
  0000e	56		 push	 esi
  0000f	8b 75 08	 mov	 esi, DWORD PTR ___t$[ebp]
$LL2@vector:
  00012	8b ce		 mov	 ecx, esi
  00014	ff d3		 call	 ebx
  00016	03 75 0c	 add	 esi, DWORD PTR ___s$[ebp]
  00019	4f		 dec	 edi
  0001a	79 f6		 jns	 SHORT $LL2@vector
  0001c	5e		 pop	 esi
  0001d	5b		 pop	 ebx
$LN1@vector:
  0001e	5f		 pop	 edi
  0001f	5d		 pop	 ebp
  00020	c2 10 00	 ret	 16			; 00000010H
??_H@YGXPAXIHP6EPAX0@Z@Z ENDP				; `vector constructor iterator'
_TEXT	ENDS
PUBLIC	??_7CKanturuMaya@@6B@				; CKanturuMaya::`vftable'
PUBLIC	??1CKanturuMaya@@UAE@XZ				; CKanturuMaya::~CKanturuMaya
PUBLIC	??_R4CKanturuMaya@@6B@				; CKanturuMaya::`RTTI Complete Object Locator'
PUBLIC	??_R0?AVCKanturuMaya@@@8			; CKanturuMaya `RTTI Type Descriptor'
PUBLIC	??_R3CKanturuMaya@@8				; CKanturuMaya::`RTTI Class Hierarchy Descriptor'
PUBLIC	??_R2CKanturuMaya@@8				; CKanturuMaya::`RTTI Base Class Array'
PUBLIC	??_R1A@?0A@EA@CKanturuMaya@@8			; CKanturuMaya::`RTTI Base Class Descriptor at (0,-1,0,64)'
EXTRN	??_7type_info@@6B@:QWORD			; type_info::`vftable'
EXTRN	??_ECKanturuMaya@@UAEPAXI@Z:PROC		; CKanturuMaya::`vector deleting destructor'
;	COMDAT ??_R1A@?0A@EA@CKanturuMaya@@8
; File e:\work\tranet_version\gs\gameserver\kanturumaya.cpp
rdata$r	SEGMENT
??_R1A@?0A@EA@CKanturuMaya@@8 DD FLAT:??_R0?AVCKanturuMaya@@@8 ; CKanturuMaya::`RTTI Base Class Descriptor at (0,-1,0,64)'
	DD	00H
	DD	00H
	DD	0ffffffffH
	DD	00H
	DD	040H
	DD	FLAT:??_R3CKanturuMaya@@8
rdata$r	ENDS
;	COMDAT ??_R2CKanturuMaya@@8
rdata$r	SEGMENT
??_R2CKanturuMaya@@8 DD FLAT:??_R1A@?0A@EA@CKanturuMaya@@8 ; CKanturuMaya::`RTTI Base Class Array'
rdata$r	ENDS
;	COMDAT ??_R3CKanturuMaya@@8
rdata$r	SEGMENT
??_R3CKanturuMaya@@8 DD 00H				; CKanturuMaya::`RTTI Class Hierarchy Descriptor'
	DD	00H
	DD	01H
	DD	FLAT:??_R2CKanturuMaya@@8
rdata$r	ENDS
;	COMDAT ??_R0?AVCKanturuMaya@@@8
_DATA	SEGMENT
??_R0?AVCKanturuMaya@@@8 DD FLAT:??_7type_info@@6B@	; CKanturuMaya `RTTI Type Descriptor'
	DD	00H
	DB	'.?AVCKanturuMaya@@', 00H
_DATA	ENDS
;	COMDAT ??_R4CKanturuMaya@@6B@
rdata$r	SEGMENT
??_R4CKanturuMaya@@6B@ DD 00H				; CKanturuMaya::`RTTI Complete Object Locator'
	DD	00H
	DD	00H
	DD	FLAT:??_R0?AVCKanturuMaya@@@8
	DD	FLAT:??_R3CKanturuMaya@@8
rdata$r	ENDS
;	COMDAT ??_7CKanturuMaya@@6B@
CONST	SEGMENT
??_7CKanturuMaya@@6B@ DD FLAT:??_R4CKanturuMaya@@6B@	; CKanturuMaya::`vftable'
	DD	FLAT:??_ECKanturuMaya@@UAEPAXI@Z
; Function compile flags: /Ogtp
CONST	ENDS
;	COMDAT ??1CKanturuMaya@@UAE@XZ
_TEXT	SEGMENT
??1CKanturuMaya@@UAE@XZ PROC				; CKanturuMaya::~CKanturuMaya, COMDAT
; _this$ = ecx

; 27   : {

  00000	c7 01 00 00 00
	00		 mov	 DWORD PTR [ecx], OFFSET ??_7CKanturuMaya@@6B@

; 28   : 	return;
; 29   : }

  00006	c3		 ret	 0
??1CKanturuMaya@@UAE@XZ ENDP				; CKanturuMaya::~CKanturuMaya
_TEXT	ENDS
PUBLIC	?Init@CKanturuMaya@@QAEXXZ			; CKanturuMaya::Init
; Function compile flags: /Ogtp
;	COMDAT ?Init@CKanturuMaya@@QAEXXZ
_TEXT	SEGMENT
?Init@CKanturuMaya@@QAEXXZ PROC				; CKanturuMaya::Init, COMDAT
; _this$ = ecx

; 34   : 	this->m_iMayaObjIndex = -1;
; 35   : 	this->m_iMayaSkillTime = 0;

  00000	33 c0		 xor	 eax, eax
  00002	c7 41 04 ff ff
	ff ff		 mov	 DWORD PTR [ecx+4], -1
  00009	89 41 0c	 mov	 DWORD PTR [ecx+12], eax

; 36   : 	this->m_iIceStormCount = 0;

  0000c	89 41 10	 mov	 DWORD PTR [ecx+16], eax

; 37   : }

  0000f	c3		 ret	 0
?Init@CKanturuMaya@@QAEXXZ ENDP				; CKanturuMaya::Init
_TEXT	ENDS
PUBLIC	??_C@_0DH@CAACFEFI@?$FL?5KANTURU?5?$FN?$FL?5IceStorm?5?$FN?5Skill?5Us@ ; `string'
PUBLIC	?KanturuMayaAct_IceStorm@CKanturuMaya@@QAEXH@Z	; CKanturuMaya::KanturuMayaAct_IceStorm
EXTRN	?LogAddTD@@3P6AXPADZZA:DWORD			; LogAddTD
EXTRN	?UseMonsterSkill@TMonsterSkillManager@@SAXHHHHPAVCMagicInf@@@Z:PROC ; TMonsterSkillManager::UseMonsterSkill
EXTRN	?NotifyKanturuWideAreaAttack@CKanturuUtil@@QAEXHHH@Z:PROC ; CKanturuUtil::NotifyKanturuWideAreaAttack
EXTRN	?gObjIsConnected@@YAHH@Z:PROC			; gObjIsConnected
EXTRN	?gObj@@3PAUOBJECTSTRUCT@@A:DWORD		; gObj
EXTRN	_rand:PROC
;	COMDAT ??_C@_0DH@CAACFEFI@?$FL?5KANTURU?5?$FN?$FL?5IceStorm?5?$FN?5Skill?5Us@
CONST	SEGMENT
??_C@_0DH@CAACFEFI@?$FL?5KANTURU?5?$FN?$FL?5IceStorm?5?$FN?5Skill?5Us@ DB '['
	DB	' KANTURU ][ IceStorm ] Skill Using(%d) : Index(%d) %s', 00H ; `string'
; Function compile flags: /Ogtp
CONST	ENDS
;	COMDAT ?KanturuMayaAct_IceStorm@CKanturuMaya@@QAEXH@Z
_TEXT	SEGMENT
_iSkillUsingRate$ = 8					; size = 4
?KanturuMayaAct_IceStorm@CKanturuMaya@@QAEXH@Z PROC	; CKanturuMaya::KanturuMayaAct_IceStorm, COMDAT
; _this$ = ecx

; 41   : {

  00000	55		 push	 ebp
  00001	8b ec		 mov	 ebp, esp
  00003	56		 push	 esi
  00004	8b f1		 mov	 esi, ecx

; 42   : 	if ( (rand()%10000) > iSkillUsingRate )

  00006	e8 00 00 00 00	 call	 _rand
  0000b	99		 cdq
  0000c	b9 10 27 00 00	 mov	 ecx, 10000		; 00002710H
  00011	f7 f9		 idiv	 ecx
  00013	3b 55 08	 cmp	 edx, DWORD PTR _iSkillUsingRate$[ebp]
  00016	0f 8f af 00 00
	00		 jg	 $LN5@KanturuMay

; 43   : 		return;
; 44   : 
; 45   : 	if ( this->m_iMayaObjIndex < 0 || this->m_iMayaObjIndex > OBJMAX )

  0001c	8b 46 04	 mov	 eax, DWORD PTR [esi+4]
  0001f	85 c0		 test	 eax, eax
  00021	0f 88 a4 00 00
	00		 js	 $LN5@KanturuMay
  00027	3d 98 3a 00 00	 cmp	 eax, 15000		; 00003a98H
  0002c	0f 8f 99 00 00
	00		 jg	 $LN5@KanturuMay

; 46   : 		return;
; 47   : 
; 48   : 	for ( int iCount=OBJ_STARTUSERINDZT;iCount < OBJMAX;iCount++)

  00032	53		 push	 ebx
  00033	57		 push	 edi
  00034	bf b0 36 00 00	 mov	 edi, 14000		; 000036b0H
  00039	bb 00 a7 40 09	 mov	 ebx, 155232000		; 0940a700H
  0003e	8b ff		 npad	 2
$LL4@KanturuMay:

; 49   : 	{
; 50   : 		if ( gObj[iCount].Type == OBJ_USER &&
; 51   : 			 gObjIsConnected(iCount) &&
; 52   : 			 gObj[iCount].MapNumber == MAP_INDEX_KANTURU_BOSS )

  00040	8b 15 00 00 00
	00		 mov	 edx, DWORD PTR ?gObj@@3PAUOBJECTSTRUCT@@A ; gObj
  00046	66 83 7c 13 68
	01		 cmp	 WORD PTR [ebx+edx+104], 1
  0004c	75 43		 jne	 SHORT $LN3@KanturuMay
  0004e	57		 push	 edi
  0004f	e8 00 00 00 00	 call	 ?gObjIsConnected@@YAHH@Z ; gObjIsConnected
  00054	83 c4 04	 add	 esp, 4
  00057	85 c0		 test	 eax, eax
  00059	74 36		 je	 SHORT $LN3@KanturuMay
  0005b	a1 00 00 00 00	 mov	 eax, DWORD PTR ?gObj@@3PAUOBJECTSTRUCT@@A ; gObj
  00060	80 bc 03 49 01
	00 00 27	 cmp	 BYTE PTR [ebx+eax+329], 39 ; 00000027H
  00068	75 27		 jne	 SHORT $LN3@KanturuMay

; 53   : 		{
; 54   : 			KANTURU_UTIL.NotifyKanturuWideAreaAttack(this->m_iMayaObjIndex, iCount, 0);

  0006a	8b 4e 04	 mov	 ecx, DWORD PTR [esi+4]
  0006d	6a 00		 push	 0
  0006f	57		 push	 edi
  00070	51		 push	 ecx
  00071	b9 00 00 00 00	 mov	 ecx, OFFSET _KANTURU_UTIL
  00076	e8 00 00 00 00	 call	 ?NotifyKanturuWideAreaAttack@CKanturuUtil@@QAEXHHH@Z ; CKanturuUtil::NotifyKanturuWideAreaAttack

; 55   : 			TMonsterSkillManager::UseMonsterSkill(this->m_iMayaObjIndex, iCount, 31, -1, NULL);

  0007b	8b 56 04	 mov	 edx, DWORD PTR [esi+4]
  0007e	6a 00		 push	 0
  00080	6a ff		 push	 -1
  00082	6a 1f		 push	 31			; 0000001fH
  00084	57		 push	 edi
  00085	52		 push	 edx
  00086	e8 00 00 00 00	 call	 ?UseMonsterSkill@TMonsterSkillManager@@SAXHHHHPAVCMagicInf@@@Z ; TMonsterSkillManager::UseMonsterSkill
  0008b	83 c4 14	 add	 esp, 20			; 00000014H

; 56   : 			this->m_iIceStormCount++;

  0008e	ff 46 10	 inc	 DWORD PTR [esi+16]
$LN3@KanturuMay:

; 46   : 		return;
; 47   : 
; 48   : 	for ( int iCount=OBJ_STARTUSERINDZT;iCount < OBJMAX;iCount++)

  00091	81 c3 50 2b 00
	00		 add	 ebx, 11088		; 00002b50H
  00097	47		 inc	 edi
  00098	81 fb 80 d7 e9
	09		 cmp	 ebx, 166320000		; 09e9d780H
  0009e	7c a0		 jl	 SHORT $LL4@KanturuMay

; 57   : 		}
; 58   : 	}
; 59   : 
; 60   : 	LogAddTD("[ KANTURU ][ IceStorm ] Skill Using(%d) : Index(%d) %s",
; 61   : 		this->m_iIceStormCount, this->m_iMayaObjIndex, gObj[this->m_iMayaObjIndex].Name);

  000a0	8b 46 04	 mov	 eax, DWORD PTR [esi+4]
  000a3	8b 15 00 00 00
	00		 mov	 edx, DWORD PTR ?gObj@@3PAUOBJECTSTRUCT@@A ; gObj
  000a9	8b c8		 mov	 ecx, eax
  000ab	69 c9 50 2b 00
	00		 imul	 ecx, 11088		; 00002b50H
  000b1	8d 4c 11 77	 lea	 ecx, DWORD PTR [ecx+edx+119]
  000b5	8b 56 10	 mov	 edx, DWORD PTR [esi+16]
  000b8	51		 push	 ecx
  000b9	50		 push	 eax
  000ba	52		 push	 edx
  000bb	68 00 00 00 00	 push	 OFFSET ??_C@_0DH@CAACFEFI@?$FL?5KANTURU?5?$FN?$FL?5IceStorm?5?$FN?5Skill?5Us@
  000c0	ff 15 00 00 00
	00		 call	 DWORD PTR ?LogAddTD@@3P6AXPADZZA ; LogAddTD
  000c6	83 c4 10	 add	 esp, 16			; 00000010H
  000c9	5f		 pop	 edi
  000ca	5b		 pop	 ebx
$LN5@KanturuMay:
  000cb	5e		 pop	 esi

; 62   : }

  000cc	5d		 pop	 ebp
  000cd	c2 04 00	 ret	 4
?KanturuMayaAct_IceStorm@CKanturuMaya@@QAEXH@Z ENDP	; CKanturuMaya::KanturuMayaAct_IceStorm
_TEXT	ENDS
PUBLIC	??_C@_0FE@OGKIKCJP@?$FL?5KANTURU?5?$FN?$FL?5BrokenShower?5?$FN?5?$FL?$CFs?$FN@ ; `string'
PUBLIC	??_C@_0DH@LAJGNPGO@?$FL?5KANTURU?5?$FN?$FL?5BrokenShower?5?$FN?5Skil@ ; `string'
PUBLIC	__real@00000000
PUBLIC	?KanturuMayaAct_Hands@CKanturuMaya@@QAEXXZ	; CKanturuMaya::KanturuMayaAct_Hands
EXTRN	?gObjLifeCheck@@YAXPAUOBJECTSTRUCT@@0HHHHGH@Z:PROC ; gObjLifeCheck
EXTRN	__imp__GetTickCount@0:PROC
EXTRN	__fltused:DWORD
EXTRN	__ftol2_sse:PROC
;	COMDAT ??_C@_0FE@OGKIKCJP@?$FL?5KANTURU?5?$FN?$FL?5BrokenShower?5?$FN?5?$FL?$CFs?$FN@
CONST	SEGMENT
??_C@_0FE@OGKIKCJP@?$FL?5KANTURU?5?$FN?$FL?5BrokenShower?5?$FN?5?$FL?$CFs?$FN@ DB '['
	DB	' KANTURU ][ BrokenShower ] [%s][%s] User Dying cause NOT wear'
	DB	'ing MoonStone Pandent', 00H			; `string'
CONST	ENDS
;	COMDAT ??_C@_0DH@LAJGNPGO@?$FL?5KANTURU?5?$FN?$FL?5BrokenShower?5?$FN?5Skil@
CONST	SEGMENT
??_C@_0DH@LAJGNPGO@?$FL?5KANTURU?5?$FN?$FL?5BrokenShower?5?$FN?5Skil@ DB '['
	DB	' KANTURU ][ BrokenShower ] Skill Using : Index(%d) %s', 00H ; `string'
CONST	ENDS
;	COMDAT __real@00000000
CONST	SEGMENT
__real@00000000 DD 000000000r			; 0
; Function compile flags: /Ogtp
CONST	ENDS
;	COMDAT ?KanturuMayaAct_Hands@CKanturuMaya@@QAEXXZ
_TEXT	SEGMENT
_this$ = -8						; size = 4
_iCount$202604 = -4					; size = 4
?KanturuMayaAct_Hands@CKanturuMaya@@QAEXXZ PROC		; CKanturuMaya::KanturuMayaAct_Hands, COMDAT
; _this$ = ecx

; 68   : {

  00000	55		 push	 ebp
  00001	8b ec		 mov	 ebp, esp
  00003	83 ec 08	 sub	 esp, 8
  00006	56		 push	 esi

; 69   : 	int TickCount = GetTickCount() - this->m_iMayaSkillTime;

  00007	8b 35 00 00 00
	00		 mov	 esi, DWORD PTR __imp__GetTickCount@0
  0000d	57		 push	 edi
  0000e	8b f9		 mov	 edi, ecx
  00010	89 7d f8	 mov	 DWORD PTR _this$[ebp], edi
  00013	ff d6		 call	 esi
  00015	2b 47 0c	 sub	 eax, DWORD PTR [edi+12]

; 70   : 
; 71   : 	if ( TickCount < 20000 )

  00018	3d 20 4e 00 00	 cmp	 eax, 20000		; 00004e20H
  0001d	0f 8c e0 00 00
	00		 jl	 $LN8@KanturuMay@2

; 72   : 		return;
; 73   : 
; 74   : 	this->m_iMayaSkillTime = GetTickCount();

  00023	ff d6		 call	 esi
  00025	89 47 0c	 mov	 DWORD PTR [edi+12], eax

; 75   : 
; 76   : 	if ( this->m_iMayaObjIndex < 0 || this->m_iMayaObjIndex > OBJMAX )

  00028	8b 47 04	 mov	 eax, DWORD PTR [edi+4]
  0002b	85 c0		 test	 eax, eax
  0002d	0f 88 d0 00 00
	00		 js	 $LN8@KanturuMay@2
  00033	3d 98 3a 00 00	 cmp	 eax, 15000		; 00003a98H
  00038	0f 8f c5 00 00
	00		 jg	 $LN8@KanturuMay@2

; 77   : 		return;
; 78   : 
; 79   : 	for ( int iCount=OBJ_STARTUSERINDZT;iCount < OBJMAX;iCount++)

  0003e	8b 0d 00 00 00
	00		 mov	 ecx, DWORD PTR ?gObj@@3PAUOBJECTSTRUCT@@A ; gObj
  00044	53		 push	 ebx
  00045	bb b0 36 00 00	 mov	 ebx, 14000		; 000036b0H
  0004a	89 5d fc	 mov	 DWORD PTR _iCount$202604[ebp], ebx
  0004d	be 00 a7 40 09	 mov	 esi, 155232000		; 0940a700H
$LL7@KanturuMay@2:

; 80   : 	{
; 81   : 		if ( gObj[iCount].Type == OBJ_USER &&
; 82   : 			 gObjIsConnected(iCount) &&
; 83   : 			 gObj[iCount].MapNumber == MAP_INDEX_KANTURU_BOSS )

  00052	66 83 7c 0e 68
	01		 cmp	 WORD PTR [esi+ecx+104], 1
  00058	75 73		 jne	 SHORT $LN6@KanturuMay@2
  0005a	53		 push	 ebx
  0005b	e8 00 00 00 00	 call	 ?gObjIsConnected@@YAHH@Z ; gObjIsConnected
  00060	8b 0d 00 00 00
	00		 mov	 ecx, DWORD PTR ?gObj@@3PAUOBJECTSTRUCT@@A ; gObj
  00066	83 c4 04	 add	 esp, 4
  00069	85 c0		 test	 eax, eax
  0006b	74 60		 je	 SHORT $LN6@KanturuMay@2
  0006d	80 bc 0e 49 01
	00 00 27	 cmp	 BYTE PTR [esi+ecx+329], 39 ; 00000027H
  00075	75 56		 jne	 SHORT $LN6@KanturuMay@2

; 84   : 		{
; 85   : 			KANTURU_UTIL.NotifyKanturuWideAreaAttack(this->m_iMayaObjIndex, iCount, 1);

  00077	8b 47 04	 mov	 eax, DWORD PTR [edi+4]
  0007a	6a 01		 push	 1
  0007c	53		 push	 ebx
  0007d	50		 push	 eax
  0007e	b9 00 00 00 00	 mov	 ecx, OFFSET _KANTURU_UTIL
  00083	e8 00 00 00 00	 call	 ?NotifyKanturuWideAreaAttack@CKanturuUtil@@QAEXHHH@Z ; CKanturuUtil::NotifyKanturuWideAreaAttack

; 86   : 			TMonsterSkillManager::UseMonsterSkill(this->m_iMayaObjIndex, iCount, 1, -1, NULL);

  00088	8b 4f 04	 mov	 ecx, DWORD PTR [edi+4]
  0008b	6a 00		 push	 0
  0008d	6a ff		 push	 -1
  0008f	6a 01		 push	 1
  00091	53		 push	 ebx
  00092	51		 push	 ecx
  00093	e8 00 00 00 00	 call	 ?UseMonsterSkill@TMonsterSkillManager@@SAXHHHHPAVCMagicInf@@@Z ; TMonsterSkillManager::UseMonsterSkill

; 87   : //#if(GS_CASTLE==0)
; 88   : 			if ( gObj[iCount].pInventory[10].m_Type == ITEMGET(13,38) &&
; 89   : 				 gObj[iCount].pInventory[10].m_Durability != 0.0f )

  00098	8b 0d 00 00 00
	00		 mov	 ecx, DWORD PTR ?gObj@@3PAUOBJECTSTRUCT@@A ; gObj
  0009e	8b 94 0e 24 0e
	00 00		 mov	 edx, DWORD PTR [esi+ecx+3620]
  000a5	b8 26 1a 00 00	 mov	 eax, 6694		; 00001a26H
  000aa	83 c4 14	 add	 esp, 20			; 00000014H
  000ad	66 39 82 4e 08
	00 00		 cmp	 WORD PTR [edx+2126], ax
  000b4	75 53		 jne	 SHORT $LN16@KanturuMay@2
  000b6	d9 82 6c 08 00
	00		 fld	 DWORD PTR [edx+2156]
  000bc	d9 ee		 fldz
  000be	d9 c0		 fld	 ST(0)
  000c0	dd ea		 fucomp	 ST(2)
  000c2	df e0		 fnstsw	 ax
  000c4	dd d9		 fstp	 ST(1)
  000c6	f6 c4 44	 test	 ah, 68			; 00000044H
  000c9	7b 40		 jnp	 SHORT $LN3@KanturuMay@2
$LN27@KanturuMay@2:

; 97   : 			{
; 98   : 				continue;
; 99   : 			}
; 100  : 
; 101  : 			if ( gObj[iCount].MapNumber == MAP_INDEX_KANTURU_BOSS )

  000cb	dd d8		 fstp	 ST(0)
$LN6@KanturuMay@2:

; 77   : 		return;
; 78   : 
; 79   : 	for ( int iCount=OBJ_STARTUSERINDZT;iCount < OBJMAX;iCount++)

  000cd	43		 inc	 ebx
  000ce	81 c6 50 2b 00
	00		 add	 esi, 11088		; 00002b50H
  000d4	89 5d fc	 mov	 DWORD PTR _iCount$202604[ebp], ebx
  000d7	81 fe 80 d7 e9
	09		 cmp	 esi, 166320000		; 09e9d780H
  000dd	0f 8c 6f ff ff
	ff		 jl	 $LL7@KanturuMay@2

; 111  : 			}
; 112  : //#endif
; 113  : 		}
; 114  : 	}
; 115  : 
; 116  : 	LogAddTD("[ KANTURU ][ BrokenShower ] Skill Using : Index(%d) %s",
; 117  : 		this->m_iMayaObjIndex, gObj[this->m_iMayaObjIndex].Name);

  000e3	8b 7f 04	 mov	 edi, DWORD PTR [edi+4]
  000e6	8b d7		 mov	 edx, edi
  000e8	69 d2 50 2b 00
	00		 imul	 edx, 11088		; 00002b50H
  000ee	8d 44 0a 77	 lea	 eax, DWORD PTR [edx+ecx+119]
  000f2	50		 push	 eax
  000f3	57		 push	 edi
  000f4	68 00 00 00 00	 push	 OFFSET ??_C@_0DH@LAJGNPGO@?$FL?5KANTURU?5?$FN?$FL?5BrokenShower?5?$FN?5Skil@
  000f9	ff 15 00 00 00
	00		 call	 DWORD PTR ?LogAddTD@@3P6AXPADZZA ; LogAddTD
  000ff	83 c4 0c	 add	 esp, 12			; 0000000cH
  00102	5b		 pop	 ebx
$LN8@KanturuMay@2:
  00103	5f		 pop	 edi
  00104	5e		 pop	 esi

; 118  : }

  00105	8b e5		 mov	 esp, ebp
  00107	5d		 pop	 ebp
  00108	c3		 ret	 0
$LN16@KanturuMay@2:

; 87   : //#if(GS_CASTLE==0)
; 88   : 			if ( gObj[iCount].pInventory[10].m_Type == ITEMGET(13,38) &&
; 89   : 				 gObj[iCount].pInventory[10].m_Durability != 0.0f )

  00109	d9 ee		 fldz
$LN3@KanturuMay@2:

; 90   : 			{
; 91   : 				continue;
; 92   : 			}
; 93   : 
; 94   : 
; 95   : 			if ( gObj[iCount].pInventory[11].m_Type == ITEMGET(13,38) &&
; 96   : 				 gObj[iCount].pInventory[11].m_Durability != 0.0f )

  0010b	b8 26 1a 00 00	 mov	 eax, 6694		; 00001a26H
  00110	66 39 82 22 09
	00 00		 cmp	 WORD PTR [edx+2338], ax
  00117	75 11		 jne	 SHORT $LN2@KanturuMay@2
  00119	d9 82 40 09 00
	00		 fld	 DWORD PTR [edx+2368]
  0011f	d9 c1		 fld	 ST(1)
  00121	da e9		 fucompp
  00123	df e0		 fnstsw	 ax
  00125	f6 c4 44	 test	 ah, 68			; 00000044H
  00128	7a a1		 jp	 SHORT $LN27@KanturuMay@2
$LN2@KanturuMay@2:

; 97   : 			{
; 98   : 				continue;
; 99   : 			}
; 100  : 
; 101  : 			if ( gObj[iCount].MapNumber == MAP_INDEX_KANTURU_BOSS )

  0012a	80 bc 0e 49 01
	00 00 27	 cmp	 BYTE PTR [esi+ecx+329], 39 ; 00000027H
  00132	75 97		 jne	 SHORT $LN27@KanturuMay@2

; 102  : 			{
; 103  : 				LPOBJ lpMayaHandObj = &gObj[this->m_iMayaObjIndex];

  00134	8b 7f 04	 mov	 edi, DWORD PTR [edi+4]

; 104  : 				gObj[iCount].Life = 0;

  00137	d9 9c 0e fc 00
	00 00		 fstp	 DWORD PTR [esi+ecx+252]
  0013e	69 ff 50 2b 00
	00		 imul	 edi, 11088		; 00002b50H

; 105  : 
; 106  : 				gObjLifeCheck(&gObj[iCount], lpMayaHandObj, (int)gObj[iCount].Life,
; 107  : 					0, 0, 0, 0, 0);

  00144	6a 00		 push	 0
  00146	6a 00		 push	 0
  00148	03 f9		 add	 edi, ecx
  0014a	8b 0d 00 00 00
	00		 mov	 ecx, DWORD PTR ?gObj@@3PAUOBJECTSTRUCT@@A ; gObj
  00150	6a 00		 push	 0
  00152	8d 1c 0e	 lea	 ebx, DWORD PTR [esi+ecx]
  00155	6a 00		 push	 0
  00157	6a 00		 push	 0
  00159	d9 83 fc 00 00
	00		 fld	 DWORD PTR [ebx+252]
  0015f	e8 00 00 00 00	 call	 __ftol2_sse
  00164	50		 push	 eax
  00165	57		 push	 edi
  00166	53		 push	 ebx
  00167	e8 00 00 00 00	 call	 ?gObjLifeCheck@@YAXPAUOBJECTSTRUCT@@0HHHHGH@Z ; gObjLifeCheck

; 108  : 
; 109  : 				LogAddTD("[ KANTURU ][ BrokenShower ] [%s][%s] User Dying cause NOT wearing MoonStone Pandent",
; 110  : 					gObj[iCount].AccountID, gObj[iCount].Name);

  0016c	a1 00 00 00 00	 mov	 eax, DWORD PTR ?gObj@@3PAUOBJECTSTRUCT@@A ; gObj
  00171	8d 54 06 77	 lea	 edx, DWORD PTR [esi+eax+119]
  00175	52		 push	 edx
  00176	8d 44 06 6c	 lea	 eax, DWORD PTR [esi+eax+108]
  0017a	50		 push	 eax
  0017b	68 00 00 00 00	 push	 OFFSET ??_C@_0FE@OGKIKCJP@?$FL?5KANTURU?5?$FN?$FL?5BrokenShower?5?$FN?5?$FL?$CFs?$FN@
  00180	ff 15 00 00 00
	00		 call	 DWORD PTR ?LogAddTD@@3P6AXPADZZA ; LogAddTD
  00186	8b 0d 00 00 00
	00		 mov	 ecx, DWORD PTR ?gObj@@3PAUOBJECTSTRUCT@@A ; gObj
  0018c	8b 5d fc	 mov	 ebx, DWORD PTR _iCount$202604[ebp]
  0018f	8b 7d f8	 mov	 edi, DWORD PTR _this$[ebp]
  00192	83 c4 2c	 add	 esp, 44			; 0000002cH
  00195	e9 33 ff ff ff	 jmp	 $LN6@KanturuMay@2
?KanturuMayaAct_Hands@CKanturuMaya@@QAEXXZ ENDP		; CKanturuMaya::KanturuMayaAct_Hands
_TEXT	ENDS
PUBLIC	??0CKanturuMaya@@QAE@XZ				; CKanturuMaya::CKanturuMaya
; Function compile flags: /Ogtp
;	COMDAT ??0CKanturuMaya@@QAE@XZ
_TEXT	SEGMENT
??0CKanturuMaya@@QAE@XZ PROC				; CKanturuMaya::CKanturuMaya, COMDAT
; _this$ = ecx

; 22   : {

  00000	c7 01 00 00 00
	00		 mov	 DWORD PTR [ecx], OFFSET ??_7CKanturuMaya@@6B@

; 23   : 	this->Init();

  00006	e8 00 00 00 00	 call	 ?Init@CKanturuMaya@@QAEXXZ ; CKanturuMaya::Init

; 24   : }

  0000b	8b c1		 mov	 eax, ecx
  0000d	c3		 ret	 0
??0CKanturuMaya@@QAE@XZ ENDP				; CKanturuMaya::CKanturuMaya
_TEXT	ENDS
EXTRN	??3@YAXPAX@Z:PROC				; operator delete
; Function compile flags: /Ogtp
;	COMDAT ??_GCKanturuMaya@@UAEPAXI@Z
_TEXT	SEGMENT
___flags$ = 8						; size = 4
??_GCKanturuMaya@@UAEPAXI@Z PROC			; CKanturuMaya::`scalar deleting destructor', COMDAT
; _this$ = ecx
  00000	55		 push	 ebp
  00001	8b ec		 mov	 ebp, esp
  00003	56		 push	 esi
  00004	8b f1		 mov	 esi, ecx
  00006	e8 00 00 00 00	 call	 ??1CKanturuMaya@@UAE@XZ	; CKanturuMaya::~CKanturuMaya
  0000b	f6 45 08 01	 test	 BYTE PTR ___flags$[ebp], 1
  0000f	74 09		 je	 SHORT $LN4@scalar
  00011	56		 push	 esi
  00012	e8 00 00 00 00	 call	 ??3@YAXPAX@Z		; operator delete
  00017	83 c4 04	 add	 esp, 4
$LN4@scalar:
  0001a	8b c6		 mov	 eax, esi
  0001c	5e		 pop	 esi
  0001d	5d		 pop	 ebp
  0001e	c2 04 00	 ret	 4
??_GCKanturuMaya@@UAEPAXI@Z ENDP			; CKanturuMaya::`scalar deleting destructor'
_TEXT	ENDS
EXTRN	_atexit:PROC
EXTRN	??0CKanturuUtil@@QAE@XZ:PROC			; CKanturuUtil::CKanturuUtil
; Function compile flags: /Ogtp
;	COMDAT ??__EKANTURU_UTIL@@YAXXZ
text$yc	SEGMENT
??__EKANTURU_UTIL@@YAXXZ PROC				; `dynamic initializer for 'KANTURU_UTIL'', COMDAT

; 14   : static CKanturuUtil KANTURU_UTIL;

  00000	b9 00 00 00 00	 mov	 ecx, OFFSET _KANTURU_UTIL
  00005	e8 00 00 00 00	 call	 ??0CKanturuUtil@@QAE@XZ	; CKanturuUtil::CKanturuUtil
  0000a	68 00 00 00 00	 push	 OFFSET ??__FKANTURU_UTIL@@YAXXZ ; `dynamic atexit destructor for 'KANTURU_UTIL''
  0000f	e8 00 00 00 00	 call	 _atexit
  00014	59		 pop	 ecx
  00015	c3		 ret	 0
??__EKANTURU_UTIL@@YAXXZ ENDP				; `dynamic initializer for 'KANTURU_UTIL''
text$yc	ENDS
EXTRN	??1CKanturuUtil@@UAE@XZ:PROC			; CKanturuUtil::~CKanturuUtil
; Function compile flags: /Ogtp
;	COMDAT ??__FKANTURU_UTIL@@YAXXZ
text$yd	SEGMENT
??__FKANTURU_UTIL@@YAXXZ PROC				; `dynamic atexit destructor for 'KANTURU_UTIL'', COMDAT
  00000	b9 00 00 00 00	 mov	 ecx, OFFSET _KANTURU_UTIL
  00005	e9 00 00 00 00	 jmp	 ??1CKanturuUtil@@UAE@XZ	; CKanturuUtil::~CKanturuUtil
??__FKANTURU_UTIL@@YAXXZ ENDP				; `dynamic atexit destructor for 'KANTURU_UTIL''
text$yd	ENDS
_BSS	SEGMENT
_KANTURU_UTIL DD 01H DUP (?)
_BSS	ENDS
CRT$XCU	SEGMENT
_KANTURU_UTIL$initializer$ DD FLAT:??__EKANTURU_UTIL@@YAXXZ
CRT$XCU	ENDS
END
