; Listing generated by Microsoft (R) Optimizing Compiler Version 16.00.30319.01 

	TITLE	E:\work\tranet_version\GS\GameServer\KanturuBattleOfMaya.cpp
	.686P
	.XMM
	include listing.inc
	.model	flat

INCLUDELIB LIBCMT
INCLUDELIB OLDNAMES

_DATA	SEGMENT
_g_iNpcUpDfLevel_CGATE DD 01H
	DD	02H
	DD	02dc6c0H
	DD	02H
	DD	03H
	DD	02dc6c0H
	DD	03H
	DD	04H
	DD	02dc6c0H
_g_iNpcUpDfLevel_CSTATUE DD 01H
	DD	03H
	DD	02dc6c0H
	DD	02H
	DD	05H
	DD	02dc6c0H
	DD	03H
	DD	07H
	DD	02dc6c0H
_g_iNpcUpMaxHP_CGATE DD 02625a0H
	DD	02H
	DD	0f4240H
	DD	03567e0H
	DD	03H
	DD	0f4240H
	DD	04f5880H
	DD	04H
	DD	0f4240H
_g_iNpcUpMaxHP_CSTATUE DD 02191c0H
	DD	03H
	DD	0f4240H
	DD	033e140H
	DD	05H
	DD	0f4240H
	DD	04c4b40H
	DD	07H
	DD	0f4240H
_g_iNpcUpRgLevel_CSTATUE DD 01H
	DD	03H
	DD	04c4b40H
	DD	02H
	DD	05H
	DD	04c4b40H
	DD	03H
	DD	07H
	DD	04c4b40H
_g_iCsUserReSpawnArea DD 023H
	DD	011H
	DD	090H
	DD	030H
	DD	04aH
	DD	090H
	DD	073H
	DD	09aH
	DD	023H
	DD	011H
	DD	090H
	DD	030H
_g_iNpcDefense_CGATE DD 064H
	DD	0b4H
	DD	012cH
	DD	0208H
_g_iNpcDefense_CSTATUE DD 050H
	DD	0b4H
	DD	0154H
	DD	0226H
_g_iCastleWallStepAxisY DD 071H
	DD	0a0H
	DD	0cbH
_DATA	ENDS
PUBLIC	?SetStateInfo@CKanturuStateInfo@@QAEXH@Z	; CKanturuStateInfo::SetStateInfo
; Function compile flags: /Ogtp
; File e:\work\tranet_version\gs\gameserver\kanturustateinfo.h
;	COMDAT ?SetStateInfo@CKanturuStateInfo@@QAEXH@Z
_TEXT	SEGMENT
_iStateTimeInfo$ = 8					; size = 4
?SetStateInfo@CKanturuStateInfo@@QAEXH@Z PROC		; CKanturuStateInfo::SetStateInfo, COMDAT
; _this$ = ecx

; 29   : 	{

  00000	55		 push	 ebp
  00001	8b ec		 mov	 ebp, esp

; 30   : 		this->m_iState = iStateTimeInfo;

  00003	8b 45 08	 mov	 eax, DWORD PTR _iStateTimeInfo$[ebp]
  00006	89 41 04	 mov	 DWORD PTR [ecx+4], eax

; 31   : 	}

  00009	5d		 pop	 ebp
  0000a	c2 04 00	 ret	 4
?SetStateInfo@CKanturuStateInfo@@QAEXH@Z ENDP		; CKanturuStateInfo::SetStateInfo
_TEXT	ENDS
PUBLIC	?SetCondition@CKanturuStateInfo@@QAEXH@Z	; CKanturuStateInfo::SetCondition
; Function compile flags: /Ogtp
;	COMDAT ?SetCondition@CKanturuStateInfo@@QAEXH@Z
_TEXT	SEGMENT
_iCondition$ = 8					; size = 4
?SetCondition@CKanturuStateInfo@@QAEXH@Z PROC		; CKanturuStateInfo::SetCondition, COMDAT
; _this$ = ecx

; 34   : 	{

  00000	55		 push	 ebp
  00001	8b ec		 mov	 ebp, esp

; 35   : 		this->m_iCondition = iCondition;

  00003	8b 45 08	 mov	 eax, DWORD PTR _iCondition$[ebp]
  00006	89 41 08	 mov	 DWORD PTR [ecx+8], eax

; 36   : 	}

  00009	5d		 pop	 ebp
  0000a	c2 04 00	 ret	 4
?SetCondition@CKanturuStateInfo@@QAEXH@Z ENDP		; CKanturuStateInfo::SetCondition
_TEXT	ENDS
PUBLIC	?GetCondition@CKanturuStateInfo@@QAEHXZ		; CKanturuStateInfo::GetCondition
; Function compile flags: /Ogtp
;	COMDAT ?GetCondition@CKanturuStateInfo@@QAEHXZ
_TEXT	SEGMENT
?GetCondition@CKanturuStateInfo@@QAEHXZ PROC		; CKanturuStateInfo::GetCondition, COMDAT
; _this$ = ecx

; 41   : 		return this->m_iCondition;

  00000	8b 41 08	 mov	 eax, DWORD PTR [ecx+8]

; 42   : 	}

  00003	c3		 ret	 0
?GetCondition@CKanturuStateInfo@@QAEHXZ ENDP		; CKanturuStateInfo::GetCondition
_TEXT	ENDS
PUBLIC	?SetValue@CKanturuStateInfo@@QAEXH@Z		; CKanturuStateInfo::SetValue
; Function compile flags: /Ogtp
;	COMDAT ?SetValue@CKanturuStateInfo@@QAEXH@Z
_TEXT	SEGMENT
_iValue$ = 8						; size = 4
?SetValue@CKanturuStateInfo@@QAEXH@Z PROC		; CKanturuStateInfo::SetValue, COMDAT
; _this$ = ecx

; 45   : 	{

  00000	55		 push	 ebp
  00001	8b ec		 mov	 ebp, esp

; 46   : 		this->m_iValue = iValue;

  00003	8b 45 08	 mov	 eax, DWORD PTR _iValue$[ebp]
  00006	89 41 0c	 mov	 DWORD PTR [ecx+12], eax

; 47   : 	}

  00009	5d		 pop	 ebp
  0000a	c2 04 00	 ret	 4
?SetValue@CKanturuStateInfo@@QAEXH@Z ENDP		; CKanturuStateInfo::SetValue
_TEXT	ENDS
PUBLIC	?GetValue@CKanturuStateInfo@@QAEHXZ		; CKanturuStateInfo::GetValue
; Function compile flags: /Ogtp
;	COMDAT ?GetValue@CKanturuStateInfo@@QAEHXZ
_TEXT	SEGMENT
?GetValue@CKanturuStateInfo@@QAEHXZ PROC		; CKanturuStateInfo::GetValue, COMDAT
; _this$ = ecx

; 51   : 		return this->m_iValue;

  00000	8b 41 0c	 mov	 eax, DWORD PTR [ecx+12]

; 52   : 	}

  00003	c3		 ret	 0
?GetValue@CKanturuStateInfo@@QAEHXZ ENDP		; CKanturuStateInfo::GetValue
_TEXT	ENDS
PUBLIC	?SetAppliedTime@CKanturuStateInfo@@QAEXXZ	; CKanturuStateInfo::SetAppliedTime
EXTRN	__imp__GetTickCount@0:PROC
; Function compile flags: /Ogtp
;	COMDAT ?SetAppliedTime@CKanturuStateInfo@@QAEXXZ
_TEXT	SEGMENT
?SetAppliedTime@CKanturuStateInfo@@QAEXXZ PROC		; CKanturuStateInfo::SetAppliedTime, COMDAT
; _this$ = ecx

; 54   : 	{

  00000	56		 push	 esi
  00001	8b f1		 mov	 esi, ecx

; 55   : 		this->m_dwAppliedTickCount = GetTickCount();

  00003	ff 15 00 00 00
	00		 call	 DWORD PTR __imp__GetTickCount@0
  00009	89 46 10	 mov	 DWORD PTR [esi+16], eax
  0000c	5e		 pop	 esi

; 56   : 	}

  0000d	c3		 ret	 0
?SetAppliedTime@CKanturuStateInfo@@QAEXXZ ENDP		; CKanturuStateInfo::SetAppliedTime
_TEXT	ENDS
PUBLIC	?GetAppliedTime@CKanturuStateInfo@@QAEHXZ	; CKanturuStateInfo::GetAppliedTime
; Function compile flags: /Ogtp
;	COMDAT ?GetAppliedTime@CKanturuStateInfo@@QAEHXZ
_TEXT	SEGMENT
?GetAppliedTime@CKanturuStateInfo@@QAEHXZ PROC		; CKanturuStateInfo::GetAppliedTime, COMDAT
; _this$ = ecx

; 60   : 		return this->m_dwAppliedTickCount;

  00000	8b 41 10	 mov	 eax, DWORD PTR [ecx+16]

; 61   : 	}

  00003	c3		 ret	 0
?GetAppliedTime@CKanturuStateInfo@@QAEHXZ ENDP		; CKanturuStateInfo::GetAppliedTime
_TEXT	ENDS
PUBLIC	?GetElapsedTime@CKanturuStateInfo@@QAEHXZ	; CKanturuStateInfo::GetElapsedTime
; Function compile flags: /Ogtp
;	COMDAT ?GetElapsedTime@CKanturuStateInfo@@QAEHXZ
_TEXT	SEGMENT
?GetElapsedTime@CKanturuStateInfo@@QAEHXZ PROC		; CKanturuStateInfo::GetElapsedTime, COMDAT
; _this$ = ecx

; 64   : 	{

  00000	56		 push	 esi

; 65   : 		int iElapsedTime = GetTickCount() - this->GetAppliedTime();

  00001	8b 71 10	 mov	 esi, DWORD PTR [ecx+16]
  00004	ff 15 00 00 00
	00		 call	 DWORD PTR __imp__GetTickCount@0
  0000a	2b c6		 sub	 eax, esi
  0000c	5e		 pop	 esi

; 66   : 		return iElapsedTime;
; 67   : 	}

  0000d	c3		 ret	 0
?GetElapsedTime@CKanturuStateInfo@@QAEHXZ ENDP		; CKanturuStateInfo::GetElapsedTime
_TEXT	ENDS
PUBLIC	?GetRemainTime@CKanturuStateInfo@@QAEHXZ	; CKanturuStateInfo::GetRemainTime
; Function compile flags: /Ogtp
;	COMDAT ?GetRemainTime@CKanturuStateInfo@@QAEHXZ
_TEXT	SEGMENT
?GetRemainTime@CKanturuStateInfo@@QAEHXZ PROC		; CKanturuStateInfo::GetRemainTime, COMDAT
; _this$ = ecx

; 70   : 	{

  00000	56		 push	 esi
  00001	8b f1		 mov	 esi, ecx

; 71   : 		int iRemainTime = 0;

  00003	33 c0		 xor	 eax, eax

; 72   : 
; 73   : 		if ( this->GetCondition() == 1 )

  00005	83 7e 08 01	 cmp	 DWORD PTR [esi+8], 1
  00009	75 2b		 jne	 SHORT $LN3@GetRemainT

; 74   : 		{
; 75   : 			iRemainTime = this->m_iValue - this->GetElapsedTime();

  0000b	57		 push	 edi
  0000c	8b 7e 10	 mov	 edi, DWORD PTR [esi+16]
  0000f	ff 15 00 00 00
	00		 call	 DWORD PTR __imp__GetTickCount@0
  00015	8b 4e 0c	 mov	 ecx, DWORD PTR [esi+12]
  00018	2b c7		 sub	 eax, edi
  0001a	2b c8		 sub	 ecx, eax
  0001c	5f		 pop	 edi

; 76   : 
; 77   : 			if ( iRemainTime <= 0 )

  0001d	85 c9		 test	 ecx, ecx
  0001f	7f 04		 jg	 SHORT $LN1@GetRemainT

; 78   : 			{
; 79   : 				return 0;

  00021	33 c0		 xor	 eax, eax
  00023	5e		 pop	 esi

; 83   : 		}
; 84   : 
; 85   : 		return iRemainTime;
; 86   : 	}

  00024	c3		 ret	 0
$LN1@GetRemainT:

; 80   : 			}
; 81   : 
; 82   : 			iRemainTime /= 1000;

  00025	b8 d3 4d 62 10	 mov	 eax, 274877907		; 10624dd3H
  0002a	f7 e9		 imul	 ecx
  0002c	c1 fa 06	 sar	 edx, 6
  0002f	8b c2		 mov	 eax, edx
  00031	c1 e8 1f	 shr	 eax, 31			; 0000001fH
  00034	03 c2		 add	 eax, edx
$LN3@GetRemainT:
  00036	5e		 pop	 esi

; 83   : 		}
; 84   : 
; 85   : 		return iRemainTime;
; 86   : 	}

  00037	c3		 ret	 0
?GetRemainTime@CKanturuStateInfo@@QAEHXZ ENDP		; CKanturuStateInfo::GetRemainTime
_TEXT	ENDS
PUBLIC	?IsTimeOut@CKanturuStateInfo@@QAEHXZ		; CKanturuStateInfo::IsTimeOut
; Function compile flags: /Ogtp
;	COMDAT ?IsTimeOut@CKanturuStateInfo@@QAEHXZ
_TEXT	SEGMENT
?IsTimeOut@CKanturuStateInfo@@QAEHXZ PROC		; CKanturuStateInfo::IsTimeOut, COMDAT
; _this$ = ecx

; 89   : 	{

  00000	56		 push	 esi
  00001	8b f1		 mov	 esi, ecx

; 90   : 		if ( this->GetRemainTime() <= 0 )

  00003	83 7e 08 01	 cmp	 DWORD PTR [esi+8], 1
  00007	75 2b		 jne	 SHORT $LN14@IsTimeOut
  00009	57		 push	 edi
  0000a	8b 7e 10	 mov	 edi, DWORD PTR [esi+16]
  0000d	ff 15 00 00 00
	00		 call	 DWORD PTR __imp__GetTickCount@0
  00013	8b 4e 0c	 mov	 ecx, DWORD PTR [esi+12]
  00016	2b c7		 sub	 eax, edi
  00018	2b c8		 sub	 ecx, eax
  0001a	5f		 pop	 edi
  0001b	85 c9		 test	 ecx, ecx
  0001d	7e 15		 jle	 SHORT $LN14@IsTimeOut
  0001f	b8 d3 4d 62 10	 mov	 eax, 274877907		; 10624dd3H
  00024	f7 e9		 imul	 ecx
  00026	c1 fa 06	 sar	 edx, 6
  00029	8b c2		 mov	 eax, edx
  0002b	c1 e8 1f	 shr	 eax, 31			; 0000001fH
  0002e	03 c2		 add	 eax, edx
  00030	85 c0		 test	 eax, eax
  00032	7f 07		 jg	 SHORT $LN1@IsTimeOut
$LN14@IsTimeOut:

; 91   : 		{
; 92   : 			return TRUE;

  00034	b8 01 00 00 00	 mov	 eax, 1
  00039	5e		 pop	 esi

; 96   : 	}

  0003a	c3		 ret	 0
$LN1@IsTimeOut:

; 93   : 		}
; 94   : 
; 95   : 		return FALSE;

  0003b	33 c0		 xor	 eax, eax
  0003d	5e		 pop	 esi

; 96   : 	}

  0003e	c3		 ret	 0
?IsTimeOut@CKanturuStateInfo@@QAEHXZ ENDP		; CKanturuStateInfo::IsTimeOut
_TEXT	ENDS
PUBLIC	?SetMayaObjIndex@CKanturuMaya@@QAEXH@Z		; CKanturuMaya::SetMayaObjIndex
; Function compile flags: /Ogtp
; File e:\work\tranet_version\gs\gameserver\kanturumaya.h
;	COMDAT ?SetMayaObjIndex@CKanturuMaya@@QAEXH@Z
_TEXT	SEGMENT
_iIndex$ = 8						; size = 4
?SetMayaObjIndex@CKanturuMaya@@QAEXH@Z PROC		; CKanturuMaya::SetMayaObjIndex, COMDAT
; _this$ = ecx

; 23   : 	void SetMayaObjIndex(int iIndex){this->m_iMayaObjIndex = iIndex;}

  00000	55		 push	 ebp
  00001	8b ec		 mov	 ebp, esp
  00003	8b 45 08	 mov	 eax, DWORD PTR _iIndex$[ebp]
  00006	89 41 04	 mov	 DWORD PTR [ecx+4], eax
  00009	5d		 pop	 ebp
  0000a	c2 04 00	 ret	 4
?SetMayaObjIndex@CKanturuMaya@@QAEXH@Z ENDP		; CKanturuMaya::SetMayaObjIndex
_TEXT	ENDS
PUBLIC	?SetBattleOfMayaState@CKanturuBattleOfMaya@@QAEXH@Z ; CKanturuBattleOfMaya::SetBattleOfMayaState
; Function compile flags: /Ogtp
; File e:\work\tranet_version\gs\gameserver\kanturubattleofmaya.h
;	COMDAT ?SetBattleOfMayaState@CKanturuBattleOfMaya@@QAEXH@Z
_TEXT	SEGMENT
_iState$ = 8						; size = 4
?SetBattleOfMayaState@CKanturuBattleOfMaya@@QAEXH@Z PROC ; CKanturuBattleOfMaya::SetBattleOfMayaState, COMDAT
; _this$ = ecx

; 93   : 	void SetBattleOfMayaState(int iState){this->m_iBattleOfMayaState = iState;}

  00000	55		 push	 ebp
  00001	8b ec		 mov	 ebp, esp
  00003	8b 45 08	 mov	 eax, DWORD PTR _iState$[ebp]
  00006	89 41 08	 mov	 DWORD PTR [ecx+8], eax
  00009	5d		 pop	 ebp
  0000a	c2 04 00	 ret	 4
?SetBattleOfMayaState@CKanturuBattleOfMaya@@QAEXH@Z ENDP ; CKanturuBattleOfMaya::SetBattleOfMayaState
_TEXT	ENDS
PUBLIC	?GetBattleOfMayaState@CKanturuBattleOfMaya@@QAEHXZ ; CKanturuBattleOfMaya::GetBattleOfMayaState
; Function compile flags: /Ogtp
;	COMDAT ?GetBattleOfMayaState@CKanturuBattleOfMaya@@QAEHXZ
_TEXT	SEGMENT
?GetBattleOfMayaState@CKanturuBattleOfMaya@@QAEHXZ PROC	; CKanturuBattleOfMaya::GetBattleOfMayaState, COMDAT
; _this$ = ecx

; 94   : 	int GetBattleOfMayaState(){return this->m_iBattleOfMayaState;}

  00000	8b 41 08	 mov	 eax, DWORD PTR [ecx+8]
  00003	c3		 ret	 0
?GetBattleOfMayaState@CKanturuBattleOfMaya@@QAEHXZ ENDP	; CKanturuBattleOfMaya::GetBattleOfMayaState
_TEXT	ENDS
PUBLIC	?SetBattleSceneState@CKanturuBattleOfMaya@@QAEXH@Z ; CKanturuBattleOfMaya::SetBattleSceneState
; Function compile flags: /Ogtp
;	COMDAT ?SetBattleSceneState@CKanturuBattleOfMaya@@QAEXH@Z
_TEXT	SEGMENT
_iScene$ = 8						; size = 4
?SetBattleSceneState@CKanturuBattleOfMaya@@QAEXH@Z PROC	; CKanturuBattleOfMaya::SetBattleSceneState, COMDAT
; _this$ = ecx

; 96   : 	{

  00000	55		 push	 ebp
  00001	8b ec		 mov	 ebp, esp

; 97   : 		this->m_iSceneState = iScene;

  00003	8b 45 08	 mov	 eax, DWORD PTR _iScene$[ebp]
  00006	89 41 0c	 mov	 DWORD PTR [ecx+12], eax

; 98   : 		this->m_bIsSceneSuccess = FALSE;

  00009	c7 81 d8 01 00
	00 00 00 00 00	 mov	 DWORD PTR [ecx+472], 0

; 99   : 	}

  00013	5d		 pop	 ebp
  00014	c2 04 00	 ret	 4
?SetBattleSceneState@CKanturuBattleOfMaya@@QAEXH@Z ENDP	; CKanturuBattleOfMaya::SetBattleSceneState
_TEXT	ENDS
PUBLIC	?GetBattleSceneState@CKanturuBattleOfMaya@@QAEHXZ ; CKanturuBattleOfMaya::GetBattleSceneState
; Function compile flags: /Ogtp
;	COMDAT ?GetBattleSceneState@CKanturuBattleOfMaya@@QAEHXZ
_TEXT	SEGMENT
?GetBattleSceneState@CKanturuBattleOfMaya@@QAEHXZ PROC	; CKanturuBattleOfMaya::GetBattleSceneState, COMDAT
; _this$ = ecx

; 101  : 	int GetBattleSceneState(){return this->m_iSceneState;}

  00000	8b 41 0c	 mov	 eax, DWORD PTR [ecx+12]
  00003	c3		 ret	 0
?GetBattleSceneState@CKanturuBattleOfMaya@@QAEHXZ ENDP	; CKanturuBattleOfMaya::GetBattleSceneState
_TEXT	ENDS
PUBLIC	?SetSuccessValue@CKanturuBattleOfMaya@@QAEXH@Z	; CKanturuBattleOfMaya::SetSuccessValue
; Function compile flags: /Ogtp
;	COMDAT ?SetSuccessValue@CKanturuBattleOfMaya@@QAEXH@Z
_TEXT	SEGMENT
_bIsSuccess$ = 8					; size = 4
?SetSuccessValue@CKanturuBattleOfMaya@@QAEXH@Z PROC	; CKanturuBattleOfMaya::SetSuccessValue, COMDAT
; _this$ = ecx

; 102  : 	void SetSuccessValue(BOOL bIsSuccess){this->m_bIsSucccess = bIsSuccess;}

  00000	55		 push	 ebp
  00001	8b ec		 mov	 ebp, esp
  00003	8b 45 08	 mov	 eax, DWORD PTR _bIsSuccess$[ebp]
  00006	89 81 d4 01 00
	00		 mov	 DWORD PTR [ecx+468], eax
  0000c	5d		 pop	 ebp
  0000d	c2 04 00	 ret	 4
?SetSuccessValue@CKanturuBattleOfMaya@@QAEXH@Z ENDP	; CKanturuBattleOfMaya::SetSuccessValue
_TEXT	ENDS
PUBLIC	?GetSuccessValue@CKanturuBattleOfMaya@@QAEHXZ	; CKanturuBattleOfMaya::GetSuccessValue
; Function compile flags: /Ogtp
;	COMDAT ?GetSuccessValue@CKanturuBattleOfMaya@@QAEHXZ
_TEXT	SEGMENT
?GetSuccessValue@CKanturuBattleOfMaya@@QAEHXZ PROC	; CKanturuBattleOfMaya::GetSuccessValue, COMDAT
; _this$ = ecx

; 103  : 	BOOL GetSuccessValue(){return this->m_bIsSucccess;}

  00000	8b 81 d4 01 00
	00		 mov	 eax, DWORD PTR [ecx+468]
  00006	c3		 ret	 0
?GetSuccessValue@CKanturuBattleOfMaya@@QAEHXZ ENDP	; CKanturuBattleOfMaya::GetSuccessValue
_TEXT	ENDS
PUBLIC	?SetSceneSuccessValue@CKanturuBattleOfMaya@@QAEXH@Z ; CKanturuBattleOfMaya::SetSceneSuccessValue
; Function compile flags: /Ogtp
;	COMDAT ?SetSceneSuccessValue@CKanturuBattleOfMaya@@QAEXH@Z
_TEXT	SEGMENT
_bIsSuccess$ = 8					; size = 4
?SetSceneSuccessValue@CKanturuBattleOfMaya@@QAEXH@Z PROC ; CKanturuBattleOfMaya::SetSceneSuccessValue, COMDAT
; _this$ = ecx

; 104  : 	void SetSceneSuccessValue(BOOL bIsSuccess){this->m_bIsSceneSuccess = bIsSuccess;}

  00000	55		 push	 ebp
  00001	8b ec		 mov	 ebp, esp
  00003	8b 45 08	 mov	 eax, DWORD PTR _bIsSuccess$[ebp]
  00006	89 81 d8 01 00
	00		 mov	 DWORD PTR [ecx+472], eax
  0000c	5d		 pop	 ebp
  0000d	c2 04 00	 ret	 4
?SetSceneSuccessValue@CKanturuBattleOfMaya@@QAEXH@Z ENDP ; CKanturuBattleOfMaya::SetSceneSuccessValue
_TEXT	ENDS
PUBLIC	?GetSceneSuccessValue@CKanturuBattleOfMaya@@QAEHXZ ; CKanturuBattleOfMaya::GetSceneSuccessValue
; Function compile flags: /Ogtp
;	COMDAT ?GetSceneSuccessValue@CKanturuBattleOfMaya@@QAEHXZ
_TEXT	SEGMENT
?GetSceneSuccessValue@CKanturuBattleOfMaya@@QAEHXZ PROC	; CKanturuBattleOfMaya::GetSceneSuccessValue, COMDAT
; _this$ = ecx

; 105  : 	BOOL GetSceneSuccessValue(){return this->m_bIsSceneSuccess;}

  00000	8b 81 d8 01 00
	00		 mov	 eax, DWORD PTR [ecx+472]
  00006	c3		 ret	 0
?GetSceneSuccessValue@CKanturuBattleOfMaya@@QAEHXZ ENDP	; CKanturuBattleOfMaya::GetSceneSuccessValue
_TEXT	ENDS
PUBLIC	?SetEntrancePermit@CKanturuBattleOfMaya@@QAEXH@Z ; CKanturuBattleOfMaya::SetEntrancePermit
; Function compile flags: /Ogtp
;	COMDAT ?SetEntrancePermit@CKanturuBattleOfMaya@@QAEXH@Z
_TEXT	SEGMENT
_bEntrancePermit$ = 8					; size = 4
?SetEntrancePermit@CKanturuBattleOfMaya@@QAEXH@Z PROC	; CKanturuBattleOfMaya::SetEntrancePermit, COMDAT
; _this$ = ecx

; 106  : 	void SetEntrancePermit(BOOL bEntrancePermit){this->m_bEntrancePermit = bEntrancePermit;}

  00000	55		 push	 ebp
  00001	8b ec		 mov	 ebp, esp
  00003	8b 45 08	 mov	 eax, DWORD PTR _bEntrancePermit$[ebp]
  00006	89 81 d0 01 00
	00		 mov	 DWORD PTR [ecx+464], eax
  0000c	5d		 pop	 ebp
  0000d	c2 04 00	 ret	 4
?SetEntrancePermit@CKanturuBattleOfMaya@@QAEXH@Z ENDP	; CKanturuBattleOfMaya::SetEntrancePermit
_TEXT	ENDS
PUBLIC	??_H@YGXPAXIHP6EPAX0@Z@Z			; `vector constructor iterator'
; Function compile flags: /Ogtp
;	COMDAT ??_H@YGXPAXIHP6EPAX0@Z@Z
_TEXT	SEGMENT
___t$ = 8						; size = 4
___s$ = 12						; size = 4
___n$ = 16						; size = 4
___f$ = 20						; size = 4
??_H@YGXPAXIHP6EPAX0@Z@Z PROC				; `vector constructor iterator', COMDAT
  00000	55		 push	 ebp
  00001	8b ec		 mov	 ebp, esp
  00003	57		 push	 edi
  00004	8b 7d 10	 mov	 edi, DWORD PTR ___n$[ebp]
  00007	4f		 dec	 edi
  00008	78 14		 js	 SHORT $LN1@vector
  0000a	53		 push	 ebx
  0000b	8b 5d 14	 mov	 ebx, DWORD PTR ___f$[ebp]
  0000e	56		 push	 esi
  0000f	8b 75 08	 mov	 esi, DWORD PTR ___t$[ebp]
$LL2@vector:
  00012	8b ce		 mov	 ecx, esi
  00014	ff d3		 call	 ebx
  00016	03 75 0c	 add	 esi, DWORD PTR ___s$[ebp]
  00019	4f		 dec	 edi
  0001a	79 f6		 jns	 SHORT $LL2@vector
  0001c	5e		 pop	 esi
  0001d	5b		 pop	 ebx
$LN1@vector:
  0001e	5f		 pop	 edi
  0001f	5d		 pop	 ebp
  00020	c2 10 00	 ret	 16			; 00000010H
??_H@YGXPAXIHP6EPAX0@Z@Z ENDP				; `vector constructor iterator'
_TEXT	ENDS
PUBLIC	?GetAliveMonsterCount@CKanturuMonsterMng@@QAEHXZ ; CKanturuMonsterMng::GetAliveMonsterCount
; Function compile flags: /Ogtp
; File e:\work\tranet_version\gs\gameserver\kanturumonstermng.h
;	COMDAT ?GetAliveMonsterCount@CKanturuMonsterMng@@QAEHXZ
_TEXT	SEGMENT
?GetAliveMonsterCount@CKanturuMonsterMng@@QAEHXZ PROC	; CKanturuMonsterMng::GetAliveMonsterCount, COMDAT
; _this$ = ecx

; 48   : 	int GetAliveMonsterCount(){return this->m_iAliveMonsterCount;}

  00000	8b 81 6c 14 00
	00		 mov	 eax, DWORD PTR [ecx+5228]
  00006	c3		 ret	 0
?GetAliveMonsterCount@CKanturuMonsterMng@@QAEHXZ ENDP	; CKanturuMonsterMng::GetAliveMonsterCount
_TEXT	ENDS
PUBLIC	?GetMayaObjIndex@CKanturuMonsterMng@@QAEHXZ	; CKanturuMonsterMng::GetMayaObjIndex
; Function compile flags: /Ogtp
;	COMDAT ?GetMayaObjIndex@CKanturuMonsterMng@@QAEHXZ
_TEXT	SEGMENT
?GetMayaObjIndex@CKanturuMonsterMng@@QAEHXZ PROC	; CKanturuMonsterMng::GetMayaObjIndex, COMDAT
; _this$ = ecx

; 51   : 	int GetMayaObjIndex(){return this->m_iMayaObjIndex;}

  00000	8b 81 d8 07 00
	00		 mov	 eax, DWORD PTR [ecx+2008]
  00006	c3		 ret	 0
?GetMayaObjIndex@CKanturuMonsterMng@@QAEHXZ ENDP	; CKanturuMonsterMng::GetMayaObjIndex
_TEXT	ENDS
PUBLIC	__$ArrayPad$
EXTRN	_isalnum:PROC
EXTRN	_isalpha:PROC
EXTRN	_atof:PROC
EXTRN	_isdigit:PROC
EXTRN	_getc:PROC
EXTRN	_ungetc:PROC
EXTRN	_isspace:PROC
EXTRN	_fgetc:PROC
EXTRN	___security_cookie:DWORD
EXTRN	__fltused:DWORD
EXTRN	@__security_check_cookie@4:PROC
_BSS	SEGMENT
_CurrentToken DD 01H DUP (?)
_TokenNumber DD	01H DUP (?)
_SMDFile DD	01H DUP (?)
_TokenString DB	064H DUP (?)
; Function compile flags: /Ogtp
; File e:\work\tranet_version\gs\include\readscript.h
_BSS	ENDS
;	COMDAT ?GetToken@@YA?AW4SMDToken@@XZ
_TEXT	SEGMENT
_TempString$ = -104					; size = 100
__$ArrayPad$ = -4					; size = 4
?GetToken@@YA?AW4SMDToken@@XZ PROC			; GetToken, COMDAT

; 24   : {

  00000	55		 push	 ebp
  00001	8b ec		 mov	 ebp, esp
  00003	83 ec 68	 sub	 esp, 104		; 00000068H
  00006	a1 00 00 00 00	 mov	 eax, DWORD PTR ___security_cookie
  0000b	33 c5		 xor	 eax, ebp
  0000d	89 45 fc	 mov	 DWORD PTR __$ArrayPad$[ebp], eax

; 25   : 	char ch;
; 26   : 	char* p;
; 27   : 	char TempString[100];
; 28   : 
; 29   : 	TokenString[0]=0;

  00010	c6 05 00 00 00
	00 00		 mov	 BYTE PTR _TokenString, 0
  00017	53		 push	 ebx
  00018	eb 06 8d 9b 00
	00 00 00	 npad	 8
$LL31@GetToken:

; 30   : 
; 31   : 	do
; 32   : 	{
; 33   : 		if ((ch=fgetc(SMDFile)) == -1)

  00020	a1 00 00 00 00	 mov	 eax, DWORD PTR _SMDFile
  00025	50		 push	 eax
  00026	e8 00 00 00 00	 call	 _fgetc
  0002b	8a d8		 mov	 bl, al
  0002d	83 c4 04	 add	 esp, 4
  00030	80 fb ff	 cmp	 bl, -1
  00033	74 64		 je	 SHORT $LN39@GetToken

; 36   : 		}
; 37   : 		else
; 38   : 		{	
; 39   : 			if (ch=='/')		// this is /

  00035	80 fb 2f	 cmp	 bl, 47			; 0000002fH
  00038	75 31		 jne	 SHORT $LN30@GetToken

; 40   : 			{
; 41   : 				if((ch=fgetc(SMDFile)) == '/')

  0003a	8b 0d 00 00 00
	00		 mov	 ecx, DWORD PTR _SMDFile
  00040	51		 push	 ecx
  00041	e8 00 00 00 00	 call	 _fgetc
  00046	8a d8		 mov	 bl, al
  00048	83 c4 04	 add	 esp, 4
  0004b	80 fb 2f	 cmp	 bl, 47			; 0000002fH
  0004e	75 1b		 jne	 SHORT $LN30@GetToken
$LL24@GetToken:

; 42   : 				{
; 43   : 					while ((ch != '\n') && (ch != -1))	// End of Line (EOL)

  00050	80 fb ff	 cmp	 bl, -1
  00053	74 44		 je	 SHORT $LN39@GetToken

; 44   : 					{
; 45   : 						ch=fgetc(SMDFile);

  00055	8b 15 00 00 00
	00		 mov	 edx, DWORD PTR _SMDFile
  0005b	52		 push	 edx
  0005c	e8 00 00 00 00	 call	 _fgetc
  00061	8a d8		 mov	 bl, al
  00063	83 c4 04	 add	 esp, 4
  00066	80 fb 0a	 cmp	 bl, 10			; 0000000aH
  00069	75 e5		 jne	 SHORT $LL24@GetToken
$LN30@GetToken:

; 46   : 					}
; 47   : 	
; 48   : 					if (ch == -1)
; 49   : 					{
; 50   : 						return END;	// End of FILE
; 51   : 					}
; 52   : 				}
; 53   : 			}
; 54   : 		}
; 55   : 	}
; 56   : 	while (isspace(ch) != 0);

  0006b	0f be c3	 movsx	 eax, bl
  0006e	50		 push	 eax
  0006f	e8 00 00 00 00	 call	 _isspace
  00074	83 c4 04	 add	 esp, 4
  00077	85 c0		 test	 eax, eax
  00079	75 a5		 jne	 SHORT $LL31@GetToken

; 57   : 
; 58   : 	
; 59   : 	switch(ch)

  0007b	0f be c3	 movsx	 eax, bl
  0007e	8d 48 de	 lea	 ecx, DWORD PTR [eax-34]
  00081	56		 push	 esi
  00082	83 f9 5b	 cmp	 ecx, 91			; 0000005bH
  00085	0f 87 2b 01 00
	00		 ja	 $LN6@GetToken
  0008b	0f b6 89 00 00
	00 00		 movzx	 ecx, BYTE PTR $LN46@GetToken[ecx]
  00092	ff 24 8d 00 00
	00 00		 jmp	 DWORD PTR $LN50@GetToken[ecx*4]
$LN39@GetToken:

; 34   : 		{
; 35   : 			return END;	// End of FILE (EOF)

  00099	b8 02 00 00 00	 mov	 eax, 2
  0009e	5b		 pop	 ebx

; 147  : 		}
; 148  : 		break;
; 149  : 
; 150  : 	}
; 151  : 
; 152  : 	return NAME;
; 153  : }

  0009f	8b 4d fc	 mov	 ecx, DWORD PTR __$ArrayPad$[ebp]
  000a2	33 cd		 xor	 ecx, ebp
  000a4	e8 00 00 00 00	 call	 @__security_check_cookie@4
  000a9	8b e5		 mov	 esp, ebp
  000ab	5d		 pop	 ebp
  000ac	c3		 ret	 0
$LN19@GetToken:

; 60   : 	{
; 61   : 
; 62   : 	case 0x23:	// #
; 63   : 		return CurrentToken=COMMAND;

  000ad	b8 23 00 00 00	 mov	 eax, 35			; 00000023H
  000b2	e9 99 01 00 00	 jmp	 $LN48@GetToken
$LN18@GetToken:

; 64   : 		break;
; 65   : 	
; 66   : 	case 0x3B:	// ;
; 67   : 		return CurrentToken=SEMICOLON;

  000b7	b8 3b 00 00 00	 mov	 eax, 59			; 0000003bH
  000bc	e9 8f 01 00 00	 jmp	 $LN48@GetToken
$LN17@GetToken:

; 68   : 		break;
; 69   : 	
; 70   : 	case 0x2C:	// ,
; 71   : 
; 72   : 		return CurrentToken=COMMA;

  000c1	b8 2c 00 00 00	 mov	 eax, 44			; 0000002cH
  000c6	e9 85 01 00 00	 jmp	 $LN48@GetToken
$LN16@GetToken:

; 73   : 		break;
; 74   : 	
; 75   : 	case 0x7B:	// {
; 76   : 		return CurrentToken = LP;

  000cb	b8 7b 00 00 00	 mov	 eax, 123		; 0000007bH
  000d0	e9 7b 01 00 00	 jmp	 $LN48@GetToken
$LN15@GetToken:

; 77   : 		break;
; 78   : 
; 79   : 	case 0x7D:	// }
; 80   : 		return CurrentToken = RP;

  000d5	b8 7d 00 00 00	 mov	 eax, 125		; 0000007dH
  000da	e9 71 01 00 00	 jmp	 $LN48@GetToken
$LN14@GetToken:

; 81   : 		break;
; 82   : 	// Nice Index Table :)	by Deathway
; 83   : 	// Numbers Case
; 84   : 	case 0x2D:	//-
; 85   : 	case 0x2E:	//.
; 86   : 	case '0':	//0
; 87   : 	case '1':	//1
; 88   : 	case '2':	//2
; 89   : 	case '3':	//3
; 90   : 	case '4':	//4		
; 91   : 	case '5':	//5
; 92   : 	case '6':	//6
; 93   : 	case '7':	//7
; 94   : 	case '8':	//8
; 95   : 	case '9':	//9
; 96   : 		ungetc(ch, SMDFile);

  000df	8b 15 00 00 00
	00		 mov	 edx, DWORD PTR _SMDFile
  000e5	52		 push	 edx
  000e6	50		 push	 eax
  000e7	e8 00 00 00 00	 call	 _ungetc

; 97   : 		p = TempString;
; 98   : 		
; 99   : 		while (((ch=getc(SMDFile)) != -1) && ((ch == 0x2E) || (isdigit(ch) != 0) || (ch == 0x2D)))  // 2e '.'  2D '-'

  000ec	a1 00 00 00 00	 mov	 eax, DWORD PTR _SMDFile
  000f1	50		 push	 eax
  000f2	8d 75 98	 lea	 esi, DWORD PTR _TempString$[ebp]
  000f5	e8 00 00 00 00	 call	 _getc
  000fa	8a d8		 mov	 bl, al
  000fc	83 c4 0c	 add	 esp, 12			; 0000000cH
  000ff	80 fb ff	 cmp	 bl, -1
  00102	74 33		 je	 SHORT $LN12@GetToken
$LL13@GetToken:
  00104	80 fb 2e	 cmp	 bl, 46			; 0000002eH
  00107	74 15		 je	 SHORT $LN11@GetToken
  00109	0f be cb	 movsx	 ecx, bl
  0010c	51		 push	 ecx
  0010d	e8 00 00 00 00	 call	 _isdigit
  00112	83 c4 04	 add	 esp, 4
  00115	85 c0		 test	 eax, eax
  00117	75 05		 jne	 SHORT $LN11@GetToken
  00119	80 fb 2d	 cmp	 bl, 45			; 0000002dH
  0011c	75 19		 jne	 SHORT $LN12@GetToken
$LN11@GetToken:
  0011e	8b 15 00 00 00
	00		 mov	 edx, DWORD PTR _SMDFile

; 100  : 		{
; 101  : 			*p = ch;	// Construct a String

  00124	88 1e		 mov	 BYTE PTR [esi], bl
  00126	52		 push	 edx

; 102  : 			p++;

  00127	46		 inc	 esi
  00128	e8 00 00 00 00	 call	 _getc
  0012d	8a d8		 mov	 bl, al
  0012f	83 c4 04	 add	 esp, 4
  00132	80 fb ff	 cmp	 bl, -1
  00135	75 cd		 jne	 SHORT $LL13@GetToken
$LN12@GetToken:

; 103  : 		}		
; 104  : 		*p = 0;
; 105  : 		TokenNumber = atof( TempString);	// Select the first Byte as Main ID

  00137	8d 45 98	 lea	 eax, DWORD PTR _TempString$[ebp]
  0013a	50		 push	 eax
  0013b	c6 06 00	 mov	 BYTE PTR [esi], 0
  0013e	e8 00 00 00 00	 call	 _atof
  00143	d9 1d 00 00 00
	00		 fstp	 DWORD PTR _TokenNumber
  00149	83 c4 04	 add	 esp, 4
  0014c	5e		 pop	 esi

; 106  : 		return CurrentToken  = NUMBER ;

  0014d	c7 05 00 00 00
	00 01 00 00 00	 mov	 DWORD PTR _CurrentToken, 1
  00157	b8 01 00 00 00	 mov	 eax, 1
  0015c	5b		 pop	 ebx

; 147  : 		}
; 148  : 		break;
; 149  : 
; 150  : 	}
; 151  : 
; 152  : 	return NAME;
; 153  : }

  0015d	8b 4d fc	 mov	 ecx, DWORD PTR __$ArrayPad$[ebp]
  00160	33 cd		 xor	 ecx, ebp
  00162	e8 00 00 00 00	 call	 @__security_check_cookie@4
  00167	8b e5		 mov	 esp, ebp
  00169	5d		 pop	 ebp
  0016a	c3		 ret	 0
$LN10@GetToken:

; 107  : 		break;
; 108  : 
; 109  : 	case '\"':	// "	String Case
; 110  : 		p=&TokenString[0];
; 111  : 		
; 112  : 		while (((ch=getc(SMDFile)) != -1 ) && (ch != 0x22))	// nice

  0016b	8b 0d 00 00 00
	00		 mov	 ecx, DWORD PTR _SMDFile
  00171	51		 push	 ecx
  00172	be 00 00 00 00	 mov	 esi, OFFSET _TokenString
  00177	e8 00 00 00 00	 call	 _getc
  0017c	83 c4 04	 add	 esp, 4
  0017f	3c ff		 cmp	 al, -1
  00181	74 1e		 je	 SHORT $LN8@GetToken
$LL9@GetToken:
  00183	3c 22		 cmp	 al, 34			; 00000022H
  00185	0f 84 a1 00 00
	00		 je	 $LN7@GetToken
  0018b	8b 15 00 00 00
	00		 mov	 edx, DWORD PTR _SMDFile

; 113  : 		{
; 114  : 			*p = ch;

  00191	88 06		 mov	 BYTE PTR [esi], al
  00193	52		 push	 edx

; 115  : 			p++;

  00194	46		 inc	 esi
  00195	e8 00 00 00 00	 call	 _getc
  0019a	83 c4 04	 add	 esp, 4
  0019d	3c ff		 cmp	 al, -1
  0019f	75 e2		 jne	 SHORT $LL9@GetToken
$LN8@GetToken:

; 116  : 		}
; 117  : 		if (ch != 0x22 )

  001a1	3c 22		 cmp	 al, 34			; 00000022H
  001a3	0f 84 83 00 00
	00		 je	 $LN7@GetToken

; 118  : 		{
; 119  : 			ungetc(ch, SMDFile);

  001a9	8b 0d 00 00 00
	00		 mov	 ecx, DWORD PTR _SMDFile
  001af	0f be d0	 movsx	 edx, al
  001b2	51		 push	 ecx
  001b3	52		 push	 edx

; 120  : 		}
; 121  : 		*p = 0;
; 122  : 		return CurrentToken = NAME;

  001b4	eb 6e		 jmp	 SHORT $LN49@GetToken
$LN6@GetToken:

; 123  : 		break;
; 124  : 
; 125  : 	default:	// Others
; 126  : 		if (isalpha(ch))

  001b6	50		 push	 eax
  001b7	e8 00 00 00 00	 call	 _isalpha
  001bc	83 c4 04	 add	 esp, 4
  001bf	85 c0		 test	 eax, eax
  001c1	0f 84 84 00 00
	00		 je	 $LN5@GetToken

; 127  : 		{
; 128  : 			p=&TokenString[0];
; 129  : 			*p=ch;
; 130  : 			p++;
; 131  : 
; 132  : 			while ( ((ch=getc(SMDFile)) != -1) && ( (ch == 0x2E) || (ch == 0x5F) || (isalnum(ch) != 0) ) )

  001c7	a1 00 00 00 00	 mov	 eax, DWORD PTR _SMDFile
  001cc	50		 push	 eax
  001cd	88 1d 00 00 00
	00		 mov	 BYTE PTR _TokenString, bl
  001d3	be 01 00 00 00	 mov	 esi, OFFSET _TokenString+1
  001d8	e8 00 00 00 00	 call	 _getc
  001dd	8a d8		 mov	 bl, al
  001df	83 c4 04	 add	 esp, 4
  001e2	80 fb ff	 cmp	 bl, -1
  001e5	74 33		 je	 SHORT $LN3@GetToken
$LL4@GetToken:
  001e7	80 fb 2e	 cmp	 bl, 46			; 0000002eH
  001ea	74 15		 je	 SHORT $LN2@GetToken
  001ec	80 fb 5f	 cmp	 bl, 95			; 0000005fH
  001ef	74 10		 je	 SHORT $LN2@GetToken
  001f1	0f be cb	 movsx	 ecx, bl
  001f4	51		 push	 ecx
  001f5	e8 00 00 00 00	 call	 _isalnum
  001fa	83 c4 04	 add	 esp, 4
  001fd	85 c0		 test	 eax, eax
  001ff	74 19		 je	 SHORT $LN3@GetToken
$LN2@GetToken:
  00201	8b 15 00 00 00
	00		 mov	 edx, DWORD PTR _SMDFile

; 133  : 			{
; 134  : 				*p=ch;

  00207	88 1e		 mov	 BYTE PTR [esi], bl
  00209	52		 push	 edx

; 135  : 				p++;

  0020a	46		 inc	 esi
  0020b	e8 00 00 00 00	 call	 _getc
  00210	8a d8		 mov	 bl, al
  00212	83 c4 04	 add	 esp, 4
  00215	80 fb ff	 cmp	 bl, -1
  00218	75 cd		 jne	 SHORT $LL4@GetToken
$LN3@GetToken:

; 136  : 				
; 137  : 			}
; 138  : 
; 139  : 			ungetc(ch, SMDFile);

  0021a	a1 00 00 00 00	 mov	 eax, DWORD PTR _SMDFile
  0021f	0f be cb	 movsx	 ecx, bl
  00222	50		 push	 eax
  00223	51		 push	 ecx
$LN49@GetToken:
  00224	e8 00 00 00 00	 call	 _ungetc
  00229	83 c4 08	 add	 esp, 8
$LN7@GetToken:

; 140  : 			*p=0;

  0022c	c6 06 00	 mov	 BYTE PTR [esi], 0
  0022f	5e		 pop	 esi

; 141  : 			CurrentToken=NAME;

  00230	c7 05 00 00 00
	00 00 00 00 00	 mov	 DWORD PTR _CurrentToken, 0

; 142  : 			return CurrentToken;

  0023a	33 c0		 xor	 eax, eax
  0023c	5b		 pop	 ebx

; 147  : 		}
; 148  : 		break;
; 149  : 
; 150  : 	}
; 151  : 
; 152  : 	return NAME;
; 153  : }

  0023d	8b 4d fc	 mov	 ecx, DWORD PTR __$ArrayPad$[ebp]
  00240	33 cd		 xor	 ecx, ebp
  00242	e8 00 00 00 00	 call	 @__security_check_cookie@4
  00247	8b e5		 mov	 esp, ebp
  00249	5d		 pop	 ebp
  0024a	c3		 ret	 0
$LN5@GetToken:

; 143  : 		}
; 144  : 		else
; 145  : 		{
; 146  : 			return CurrentToken = SMD_ERROR; // '<'

  0024b	b8 3c 00 00 00	 mov	 eax, 60			; 0000003cH
$LN48@GetToken:

; 147  : 		}
; 148  : 		break;
; 149  : 
; 150  : 	}
; 151  : 
; 152  : 	return NAME;
; 153  : }

  00250	8b 4d fc	 mov	 ecx, DWORD PTR __$ArrayPad$[ebp]
  00253	5e		 pop	 esi
  00254	33 cd		 xor	 ecx, ebp
  00256	a3 00 00 00 00	 mov	 DWORD PTR _CurrentToken, eax
  0025b	5b		 pop	 ebx
  0025c	e8 00 00 00 00	 call	 @__security_check_cookie@4
  00261	8b e5		 mov	 esp, ebp
  00263	5d		 pop	 ebp
  00264	c3		 ret	 0
  00265	8d 49 00	 npad	 3
$LN50@GetToken:
  00268	00 00 00 00	 DD	 $LN10@GetToken
  0026c	00 00 00 00	 DD	 $LN19@GetToken
  00270	00 00 00 00	 DD	 $LN17@GetToken
  00274	00 00 00 00	 DD	 $LN14@GetToken
  00278	00 00 00 00	 DD	 $LN18@GetToken
  0027c	00 00 00 00	 DD	 $LN16@GetToken
  00280	00 00 00 00	 DD	 $LN15@GetToken
  00284	00 00 00 00	 DD	 $LN6@GetToken
$LN46@GetToken:
  00288	00		 DB	 0
  00289	01		 DB	 1
  0028a	07		 DB	 7
  0028b	07		 DB	 7
  0028c	07		 DB	 7
  0028d	07		 DB	 7
  0028e	07		 DB	 7
  0028f	07		 DB	 7
  00290	07		 DB	 7
  00291	07		 DB	 7
  00292	02		 DB	 2
  00293	03		 DB	 3
  00294	03		 DB	 3
  00295	07		 DB	 7
  00296	03		 DB	 3
  00297	03		 DB	 3
  00298	03		 DB	 3
  00299	03		 DB	 3
  0029a	03		 DB	 3
  0029b	03		 DB	 3
  0029c	03		 DB	 3
  0029d	03		 DB	 3
  0029e	03		 DB	 3
  0029f	03		 DB	 3
  002a0	07		 DB	 7
  002a1	04		 DB	 4
  002a2	07		 DB	 7
  002a3	07		 DB	 7
  002a4	07		 DB	 7
  002a5	07		 DB	 7
  002a6	07		 DB	 7
  002a7	07		 DB	 7
  002a8	07		 DB	 7
  002a9	07		 DB	 7
  002aa	07		 DB	 7
  002ab	07		 DB	 7
  002ac	07		 DB	 7
  002ad	07		 DB	 7
  002ae	07		 DB	 7
  002af	07		 DB	 7
  002b0	07		 DB	 7
  002b1	07		 DB	 7
  002b2	07		 DB	 7
  002b3	07		 DB	 7
  002b4	07		 DB	 7
  002b5	07		 DB	 7
  002b6	07		 DB	 7
  002b7	07		 DB	 7
  002b8	07		 DB	 7
  002b9	07		 DB	 7
  002ba	07		 DB	 7
  002bb	07		 DB	 7
  002bc	07		 DB	 7
  002bd	07		 DB	 7
  002be	07		 DB	 7
  002bf	07		 DB	 7
  002c0	07		 DB	 7
  002c1	07		 DB	 7
  002c2	07		 DB	 7
  002c3	07		 DB	 7
  002c4	07		 DB	 7
  002c5	07		 DB	 7
  002c6	07		 DB	 7
  002c7	07		 DB	 7
  002c8	07		 DB	 7
  002c9	07		 DB	 7
  002ca	07		 DB	 7
  002cb	07		 DB	 7
  002cc	07		 DB	 7
  002cd	07		 DB	 7
  002ce	07		 DB	 7
  002cf	07		 DB	 7
  002d0	07		 DB	 7
  002d1	07		 DB	 7
  002d2	07		 DB	 7
  002d3	07		 DB	 7
  002d4	07		 DB	 7
  002d5	07		 DB	 7
  002d6	07		 DB	 7
  002d7	07		 DB	 7
  002d8	07		 DB	 7
  002d9	07		 DB	 7
  002da	07		 DB	 7
  002db	07		 DB	 7
  002dc	07		 DB	 7
  002dd	07		 DB	 7
  002de	07		 DB	 7
  002df	07		 DB	 7
  002e0	07		 DB	 7
  002e1	05		 DB	 5
  002e2	07		 DB	 7
  002e3	06		 DB	 6
?GetToken@@YA?AW4SMDToken@@XZ ENDP			; GetToken
_TEXT	ENDS
PUBLIC	??_7CKanturuBattleOfMaya@@6B@			; CKanturuBattleOfMaya::`vftable'
PUBLIC	??1CKanturuBattleOfMaya@@UAE@XZ			; CKanturuBattleOfMaya::~CKanturuBattleOfMaya
PUBLIC	??_R4CKanturuBattleOfMaya@@6B@			; CKanturuBattleOfMaya::`RTTI Complete Object Locator'
PUBLIC	??_R0?AVCKanturuBattleOfMaya@@@8		; CKanturuBattleOfMaya `RTTI Type Descriptor'
PUBLIC	??_R3CKanturuBattleOfMaya@@8			; CKanturuBattleOfMaya::`RTTI Class Hierarchy Descriptor'
PUBLIC	??_R2CKanturuBattleOfMaya@@8			; CKanturuBattleOfMaya::`RTTI Base Class Array'
PUBLIC	??_R1A@?0A@EA@CKanturuBattleOfMaya@@8		; CKanturuBattleOfMaya::`RTTI Base Class Descriptor at (0,-1,0,64)'
EXTRN	??_M@YGXPAXIHP6EX0@Z@Z:PROC			; `eh vector destructor iterator'
EXTRN	??1CKanturuStateInfo@@UAE@XZ:PROC		; CKanturuStateInfo::~CKanturuStateInfo
EXTRN	??1CKanturuMaya@@UAE@XZ:PROC			; CKanturuMaya::~CKanturuMaya
EXTRN	___CxxFrameHandler3:PROC
EXTRN	??_7type_info@@6B@:QWORD			; type_info::`vftable'
EXTRN	??_ECKanturuBattleOfMaya@@UAEPAXI@Z:PROC	; CKanturuBattleOfMaya::`vector deleting destructor'
;	COMDAT ??_R1A@?0A@EA@CKanturuBattleOfMaya@@8
; File e:\work\tranet_version\gs\gameserver\kanturubattleofmaya.cpp
rdata$r	SEGMENT
??_R1A@?0A@EA@CKanturuBattleOfMaya@@8 DD FLAT:??_R0?AVCKanturuBattleOfMaya@@@8 ; CKanturuBattleOfMaya::`RTTI Base Class Descriptor at (0,-1,0,64)'
	DD	00H
	DD	00H
	DD	0ffffffffH
	DD	00H
	DD	040H
	DD	FLAT:??_R3CKanturuBattleOfMaya@@8
rdata$r	ENDS
;	COMDAT ??_R2CKanturuBattleOfMaya@@8
rdata$r	SEGMENT
??_R2CKanturuBattleOfMaya@@8 DD FLAT:??_R1A@?0A@EA@CKanturuBattleOfMaya@@8 ; CKanturuBattleOfMaya::`RTTI Base Class Array'
rdata$r	ENDS
;	COMDAT ??_R3CKanturuBattleOfMaya@@8
rdata$r	SEGMENT
??_R3CKanturuBattleOfMaya@@8 DD 00H			; CKanturuBattleOfMaya::`RTTI Class Hierarchy Descriptor'
	DD	00H
	DD	01H
	DD	FLAT:??_R2CKanturuBattleOfMaya@@8
rdata$r	ENDS
;	COMDAT ??_R0?AVCKanturuBattleOfMaya@@@8
_DATA	SEGMENT
??_R0?AVCKanturuBattleOfMaya@@@8 DD FLAT:??_7type_info@@6B@ ; CKanturuBattleOfMaya `RTTI Type Descriptor'
	DD	00H
	DB	'.?AVCKanturuBattleOfMaya@@', 00H
_DATA	ENDS
;	COMDAT ??_R4CKanturuBattleOfMaya@@6B@
rdata$r	SEGMENT
??_R4CKanturuBattleOfMaya@@6B@ DD 00H			; CKanturuBattleOfMaya::`RTTI Complete Object Locator'
	DD	00H
	DD	00H
	DD	FLAT:??_R0?AVCKanturuBattleOfMaya@@@8
	DD	FLAT:??_R3CKanturuBattleOfMaya@@8
rdata$r	ENDS
;	COMDAT ??_7CKanturuBattleOfMaya@@6B@
CONST	SEGMENT
??_7CKanturuBattleOfMaya@@6B@ DD FLAT:??_R4CKanturuBattleOfMaya@@6B@ ; CKanturuBattleOfMaya::`vftable'
	DD	FLAT:??_ECKanturuBattleOfMaya@@UAEPAXI@Z
CONST	ENDS
;	COMDAT xdata$x
xdata$x	SEGMENT
__unwindtable$??1CKanturuBattleOfMaya@@UAE@XZ DD 0ffffffffH
	DD	FLAT:__unwindfunclet$??1CKanturuBattleOfMaya@@UAE@XZ$0
	DD	00H
	DD	FLAT:__unwindfunclet$??1CKanturuBattleOfMaya@@UAE@XZ$1
__ehfuncinfo$??1CKanturuBattleOfMaya@@UAE@XZ DD 019930522H
	DD	02H
	DD	FLAT:__unwindtable$??1CKanturuBattleOfMaya@@UAE@XZ
	DD	2 DUP(00H)
	DD	2 DUP(00H)
	DD	00H
	DD	01H
; Function compile flags: /Ogtp
xdata$x	ENDS
;	COMDAT ??1CKanturuBattleOfMaya@@UAE@XZ
_TEXT	SEGMENT
_this$ = -16						; size = 4
__$EHRec$ = -12						; size = 12
??1CKanturuBattleOfMaya@@UAE@XZ PROC			; CKanturuBattleOfMaya::~CKanturuBattleOfMaya, COMDAT
; _this$ = ecx

; 51   : {

  00000	55		 push	 ebp
  00001	8b ec		 mov	 ebp, esp
  00003	6a ff		 push	 -1
  00005	68 00 00 00 00	 push	 __ehhandler$??1CKanturuBattleOfMaya@@UAE@XZ
  0000a	64 a1 00 00 00
	00		 mov	 eax, DWORD PTR fs:0
  00010	50		 push	 eax
  00011	51		 push	 ecx
  00012	56		 push	 esi
  00013	a1 00 00 00 00	 mov	 eax, DWORD PTR ___security_cookie
  00018	33 c5		 xor	 eax, ebp
  0001a	50		 push	 eax
  0001b	8d 45 f4	 lea	 eax, DWORD PTR __$EHRec$[ebp]
  0001e	64 a3 00 00 00
	00		 mov	 DWORD PTR fs:0, eax
  00024	8b f1		 mov	 esi, ecx
  00026	89 75 f0	 mov	 DWORD PTR _this$[ebp], esi
  00029	c7 06 00 00 00
	00		 mov	 DWORD PTR [esi], OFFSET ??_7CKanturuBattleOfMaya@@6B@

; 52   : 	return;
; 53   : }

  0002f	8d 8e dc 01 00
	00		 lea	 ecx, DWORD PTR [esi+476]
  00035	c7 45 fc 01 00
	00 00		 mov	 DWORD PTR __$EHRec$[ebp+8], 1
  0003c	e8 00 00 00 00	 call	 ??1CKanturuMaya@@UAE@XZ	; CKanturuMaya::~CKanturuMaya
  00041	68 00 00 00 00	 push	 OFFSET ??1CKanturuStateInfo@@UAE@XZ ; CKanturuStateInfo::~CKanturuStateInfo
  00046	6a 13		 push	 19			; 00000013H
  00048	6a 14		 push	 20			; 00000014H
  0004a	8d 46 50	 lea	 eax, DWORD PTR [esi+80]
  0004d	50		 push	 eax
  0004e	c6 45 fc 00	 mov	 BYTE PTR __$EHRec$[ebp+8], 0
  00052	e8 00 00 00 00	 call	 ??_M@YGXPAXIHP6EX0@Z@Z
  00057	68 00 00 00 00	 push	 OFFSET ??1CKanturuStateInfo@@UAE@XZ ; CKanturuStateInfo::~CKanturuStateInfo
  0005c	6a 03		 push	 3
  0005e	6a 14		 push	 20			; 00000014H
  00060	83 c6 10	 add	 esi, 16			; 00000010H
  00063	56		 push	 esi
  00064	c7 45 fc ff ff
	ff ff		 mov	 DWORD PTR __$EHRec$[ebp+8], -1
  0006b	e8 00 00 00 00	 call	 ??_M@YGXPAXIHP6EX0@Z@Z
  00070	8b 4d f4	 mov	 ecx, DWORD PTR __$EHRec$[ebp]
  00073	64 89 0d 00 00
	00 00		 mov	 DWORD PTR fs:0, ecx
  0007a	59		 pop	 ecx
  0007b	5e		 pop	 esi
  0007c	8b e5		 mov	 esp, ebp
  0007e	5d		 pop	 ebp
  0007f	c3		 ret	 0
_TEXT	ENDS
;	COMDAT text$x
text$x	SEGMENT
__unwindfunclet$??1CKanturuBattleOfMaya@@UAE@XZ$0:
  00000	68 00 00 00 00	 push	 OFFSET ??1CKanturuStateInfo@@UAE@XZ ; CKanturuStateInfo::~CKanturuStateInfo
  00005	6a 03		 push	 3
  00007	6a 14		 push	 20			; 00000014H
  00009	8b 45 f0	 mov	 eax, DWORD PTR _this$[ebp]
  0000c	83 c0 10	 add	 eax, 16			; 00000010H
  0000f	50		 push	 eax
  00010	e8 00 00 00 00	 call	 ??_M@YGXPAXIHP6EX0@Z@Z
  00015	c3		 ret	 0
__unwindfunclet$??1CKanturuBattleOfMaya@@UAE@XZ$1:
  00016	68 00 00 00 00	 push	 OFFSET ??1CKanturuStateInfo@@UAE@XZ ; CKanturuStateInfo::~CKanturuStateInfo
  0001b	6a 13		 push	 19			; 00000013H
  0001d	6a 14		 push	 20			; 00000014H
  0001f	8b 45 f0	 mov	 eax, DWORD PTR _this$[ebp]
  00022	83 c0 50	 add	 eax, 80			; 00000050H
  00025	50		 push	 eax
  00026	e8 00 00 00 00	 call	 ??_M@YGXPAXIHP6EX0@Z@Z
  0002b	c3		 ret	 0
__ehhandler$??1CKanturuBattleOfMaya@@UAE@XZ:
  0002c	8b 54 24 08	 mov	 edx, DWORD PTR [esp+8]
  00030	8d 42 0c	 lea	 eax, DWORD PTR [edx+12]
  00033	8b 4a f4	 mov	 ecx, DWORD PTR [edx-12]
  00036	33 c8		 xor	 ecx, eax
  00038	e8 00 00 00 00	 call	 @__security_check_cookie@4
  0003d	b8 00 00 00 00	 mov	 eax, OFFSET __ehfuncinfo$??1CKanturuBattleOfMaya@@UAE@XZ
  00042	e9 00 00 00 00	 jmp	 ___CxxFrameHandler3
text$x	ENDS
??1CKanturuBattleOfMaya@@UAE@XZ ENDP			; CKanturuBattleOfMaya::~CKanturuBattleOfMaya
PUBLIC	??_C@_0CO@JFJFDMKA@?$FL?5KANTURU?5?$FN?$FL?5BattleOfMaya?5?$FN?5Stat@ ; `string'
PUBLIC	?SetState_NONE@CKanturuBattleOfMaya@@QAEXXZ	; CKanturuBattleOfMaya::SetState_NONE
EXTRN	?LogAddC@@3P6AXEPADZZA:DWORD			; LogAddC
;	COMDAT ??_C@_0CO@JFJFDMKA@?$FL?5KANTURU?5?$FN?$FL?5BattleOfMaya?5?$FN?5Stat@
; File e:\work\tranet_version\gs\gameserver\kanturubattleofmaya.h
CONST	SEGMENT
??_C@_0CO@JFJFDMKA@?$FL?5KANTURU?5?$FN?$FL?5BattleOfMaya?5?$FN?5Stat@ DB '['
	DB	' KANTURU ][ BattleOfMaya ] State(%d) -> NONE', 00H ; `string'
; Function compile flags: /Ogtp
; File e:\work\tranet_version\gs\gameserver\kanturubattleofmaya.cpp
CONST	ENDS
;	COMDAT ?SetState_NONE@CKanturuBattleOfMaya@@QAEXXZ
_TEXT	SEGMENT
?SetState_NONE@CKanturuBattleOfMaya@@QAEXXZ PROC	; CKanturuBattleOfMaya::SetState_NONE, COMDAT
; _this$ = ecx

; 471  : {

  00000	56		 push	 esi
  00001	8b f1		 mov	 esi, ecx

; 472  : 	LogAddC(5, "[ KANTURU ][ BattleOfMaya ] State(%d) -> NONE",
; 473  : 		this->m_iBattleOfMayaState);

  00003	8b 46 08	 mov	 eax, DWORD PTR [esi+8]
  00006	50		 push	 eax
  00007	68 00 00 00 00	 push	 OFFSET ??_C@_0CO@JFJFDMKA@?$FL?5KANTURU?5?$FN?$FL?5BattleOfMaya?5?$FN?5Stat@
  0000c	6a 05		 push	 5
  0000e	ff 15 00 00 00
	00		 call	 DWORD PTR ?LogAddC@@3P6AXEPADZZA ; LogAddC

; 474  : 
; 475  : 	this->SetBattleOfMayaState(KANTURU_MAYA_NONE);

  00014	33 c0		 xor	 eax, eax
  00016	83 c4 0c	 add	 esp, 12			; 0000000cH
  00019	89 46 08	 mov	 DWORD PTR [esi+8], eax

; 476  : 	this->SetEntrancePermit(FALSE);

  0001c	89 86 d0 01 00
	00		 mov	 DWORD PTR [esi+464], eax
  00022	5e		 pop	 esi

; 477  : }

  00023	c3		 ret	 0
?SetState_NONE@CKanturuBattleOfMaya@@QAEXXZ ENDP	; CKanturuBattleOfMaya::SetState_NONE
_TEXT	ENDS
PUBLIC	??_C@_0DB@LKCCKOPA@?$FL?5KANTURU?5?$FN?$FL?5BattleOfMaya?5?$FN?5Stat@ ; `string'
PUBLIC	?SetState_STANBY1@CKanturuBattleOfMaya@@QAEXXZ	; CKanturuBattleOfMaya::SetState_STANBY1
EXTRN	?ResetAllData@CKanturuBattleUserMng@@QAEXXZ:PROC ; CKanturuBattleUserMng::ResetAllData
EXTRN	?g_KanturuBattleUserMng@@3VCKanturuBattleUserMng@@A:BYTE ; g_KanturuBattleUserMng
EXTRN	?LogAddTD@@3P6AXPADZZA:DWORD			; LogAddTD
;	COMDAT ??_C@_0DB@LKCCKOPA@?$FL?5KANTURU?5?$FN?$FL?5BattleOfMaya?5?$FN?5Stat@
; File e:\work\tranet_version\gs\gameserver\kanturubattleofmaya.h
CONST	SEGMENT
??_C@_0DB@LKCCKOPA@?$FL?5KANTURU?5?$FN?$FL?5BattleOfMaya?5?$FN?5Stat@ DB '['
	DB	' KANTURU ][ BattleOfMaya ] State(%d) -> STANBY1', 00H ; `string'
; Function compile flags: /Ogtp
; File e:\work\tranet_version\gs\gameserver\kanturubattleofmaya.cpp
CONST	ENDS
;	COMDAT ?SetState_STANBY1@CKanturuBattleOfMaya@@QAEXXZ
_TEXT	SEGMENT
?SetState_STANBY1@CKanturuBattleOfMaya@@QAEXXZ PROC	; CKanturuBattleOfMaya::SetState_STANBY1, COMDAT
; _this$ = ecx

; 481  : {

  00000	56		 push	 esi
  00001	8b f1		 mov	 esi, ecx

; 482  : 	LogAddC(5, "[ KANTURU ][ BattleOfMaya ] State(%d) -> STANBY1",
; 483  : 		this->m_iBattleOfMayaState);

  00003	8b 46 08	 mov	 eax, DWORD PTR [esi+8]
  00006	50		 push	 eax
  00007	68 00 00 00 00	 push	 OFFSET ??_C@_0DB@LKCCKOPA@?$FL?5KANTURU?5?$FN?$FL?5BattleOfMaya?5?$FN?5Stat@
  0000c	6a 05		 push	 5
  0000e	ff 15 00 00 00
	00		 call	 DWORD PTR ?LogAddC@@3P6AXEPADZZA ; LogAddC

; 484  : 	LogAddTD("[ KANTURU ][ BattleOfMaya ] State(%d) -> STANBY1",
; 485  : 		this->m_iBattleOfMayaState);

  00014	8b 4e 08	 mov	 ecx, DWORD PTR [esi+8]
  00017	51		 push	 ecx
  00018	68 00 00 00 00	 push	 OFFSET ??_C@_0DB@LKCCKOPA@?$FL?5KANTURU?5?$FN?$FL?5BattleOfMaya?5?$FN?5Stat@
  0001d	ff 15 00 00 00
	00		 call	 DWORD PTR ?LogAddTD@@3P6AXPADZZA ; LogAddTD
  00023	83 c4 14	 add	 esp, 20			; 00000014H

; 486  : 
; 487  : 	this->SetBattleOfMayaState(KANTURU_MAYA_STANBY1);
; 488  : 	g_KanturuBattleUserMng.ResetAllData();

  00026	b9 00 00 00 00	 mov	 ecx, OFFSET ?g_KanturuBattleUserMng@@3VCKanturuBattleUserMng@@A ; g_KanturuBattleUserMng
  0002b	c7 46 08 01 00
	00 00		 mov	 DWORD PTR [esi+8], 1
  00032	e8 00 00 00 00	 call	 ?ResetAllData@CKanturuBattleUserMng@@QAEXXZ ; CKanturuBattleUserMng::ResetAllData

; 489  : 	this->SetEntrancePermit(TRUE);

  00037	c7 86 d0 01 00
	00 01 00 00 00	 mov	 DWORD PTR [esi+464], 1
  00041	5e		 pop	 esi

; 490  : }

  00042	c3		 ret	 0
?SetState_STANBY1@CKanturuBattleOfMaya@@QAEXXZ ENDP	; CKanturuBattleOfMaya::SetState_STANBY1
_TEXT	ENDS
PUBLIC	??_C@_0DB@FGBMJKFB@?$FL?5KANTURU?5?$FN?$FL?5BattleOfMaya?5?$FN?5Stat@ ; `string'
PUBLIC	?SetState_NOTIFY1@CKanturuBattleOfMaya@@QAEXXZ	; CKanturuBattleOfMaya::SetState_NOTIFY1
;	COMDAT ??_C@_0DB@FGBMJKFB@?$FL?5KANTURU?5?$FN?$FL?5BattleOfMaya?5?$FN?5Stat@
; File e:\work\tranet_version\gs\gameserver\kanturubattleofmaya.h
CONST	SEGMENT
??_C@_0DB@FGBMJKFB@?$FL?5KANTURU?5?$FN?$FL?5BattleOfMaya?5?$FN?5Stat@ DB '['
	DB	' KANTURU ][ BattleOfMaya ] State(%d) -> NOTIFY1', 00H ; `string'
; Function compile flags: /Ogtp
; File e:\work\tranet_version\gs\gameserver\kanturubattleofmaya.cpp
CONST	ENDS
;	COMDAT ?SetState_NOTIFY1@CKanturuBattleOfMaya@@QAEXXZ
_TEXT	SEGMENT
?SetState_NOTIFY1@CKanturuBattleOfMaya@@QAEXXZ PROC	; CKanturuBattleOfMaya::SetState_NOTIFY1, COMDAT
; _this$ = ecx

; 494  : {

  00000	56		 push	 esi
  00001	8b f1		 mov	 esi, ecx

; 495  : 	LogAddC(5, "[ KANTURU ][ BattleOfMaya ] State(%d) -> NOTIFY1",
; 496  : 		this->m_iBattleOfMayaState);

  00003	8b 46 08	 mov	 eax, DWORD PTR [esi+8]
  00006	50		 push	 eax
  00007	68 00 00 00 00	 push	 OFFSET ??_C@_0DB@FGBMJKFB@?$FL?5KANTURU?5?$FN?$FL?5BattleOfMaya?5?$FN?5Stat@
  0000c	6a 05		 push	 5
  0000e	ff 15 00 00 00
	00		 call	 DWORD PTR ?LogAddC@@3P6AXEPADZZA ; LogAddC
  00014	83 c4 0c	 add	 esp, 12			; 0000000cH

; 497  : 
; 498  : 	this->SetBattleOfMayaState(KANTURU_MAYA_NOTIFY1);

  00017	c7 46 08 02 00
	00 00		 mov	 DWORD PTR [esi+8], 2

; 499  : 	this->SetEntrancePermit(FALSE);

  0001e	c7 86 d0 01 00
	00 00 00 00 00	 mov	 DWORD PTR [esi+464], 0
  00028	5e		 pop	 esi

; 500  : }

  00029	c3		 ret	 0
?SetState_NOTIFY1@CKanturuBattleOfMaya@@QAEXXZ ENDP	; CKanturuBattleOfMaya::SetState_NOTIFY1
_TEXT	ENDS
PUBLIC	??_C@_0DA@MAGCDIE@?$FL?5KANTURU?5?$FN?$FL?5BattleOfMaya?5?$FN?5Stat@ ; `string'
PUBLIC	?SetState_START1@CKanturuBattleOfMaya@@QAEXXZ	; CKanturuBattleOfMaya::SetState_START1
EXTRN	?SetKanturuMonster@CKanturuMonsterMng@@QAEHH@Z:PROC ; CKanturuMonsterMng::SetKanturuMonster
EXTRN	?g_KanturuMonsterMng@@3VCKanturuMonsterMng@@A:BYTE ; g_KanturuMonsterMng
EXTRN	?NotifyKanturuBattleTime@CKanturuUtil@@QAEXH@Z:PROC ; CKanturuUtil::NotifyKanturuBattleTime
;	COMDAT ??_C@_0DA@MAGCDIE@?$FL?5KANTURU?5?$FN?$FL?5BattleOfMaya?5?$FN?5Stat@
; File e:\work\tranet_version\gs\gameserver\kanturumaya.h
CONST	SEGMENT
??_C@_0DA@MAGCDIE@?$FL?5KANTURU?5?$FN?$FL?5BattleOfMaya?5?$FN?5Stat@ DB '['
	DB	' KANTURU ][ BattleOfMaya ] State(%d) -> START1', 00H ; `string'
; Function compile flags: /Ogtp
; File e:\work\tranet_version\gs\gameserver\kanturubattleofmaya.cpp
CONST	ENDS
;	COMDAT ?SetState_START1@CKanturuBattleOfMaya@@QAEXXZ
_TEXT	SEGMENT
?SetState_START1@CKanturuBattleOfMaya@@QAEXXZ PROC	; CKanturuBattleOfMaya::SetState_START1, COMDAT
; _this$ = ecx

; 505  : {

  00000	56		 push	 esi
  00001	8b f1		 mov	 esi, ecx

; 506  : 	LogAddC(5, "[ KANTURU ][ BattleOfMaya ] State(%d) -> START1",
; 507  : 		this->m_iBattleOfMayaState);

  00003	8b 46 08	 mov	 eax, DWORD PTR [esi+8]
  00006	57		 push	 edi
  00007	50		 push	 eax
  00008	68 00 00 00 00	 push	 OFFSET ??_C@_0DA@MAGCDIE@?$FL?5KANTURU?5?$FN?$FL?5BattleOfMaya?5?$FN?5Stat@
  0000d	6a 05		 push	 5
  0000f	ff 15 00 00 00
	00		 call	 DWORD PTR ?LogAddC@@3P6AXEPADZZA ; LogAddC

; 508  : 
; 509  : 	this->SetBattleOfMayaState(KANTURU_MAYA_START1);
; 510  : 	this->SetBattleSceneState(0);

  00015	33 ff		 xor	 edi, edi
  00017	83 c4 0c	 add	 esp, 12			; 0000000cH
  0001a	c7 46 08 03 00
	00 00		 mov	 DWORD PTR [esi+8], 3
  00021	89 7e 0c	 mov	 DWORD PTR [esi+12], edi

; 511  : 	this->SetEntrancePermit(FALSE);

  00024	89 be d0 01 00
	00		 mov	 DWORD PTR [esi+464], edi

; 512  : 	this->SetSuccessValue(FALSE);

  0002a	89 be d4 01 00
	00		 mov	 DWORD PTR [esi+468], edi

; 513  : 	this->SetSceneSuccessValue(FALSE);

  00030	89 be d8 01 00
	00		 mov	 DWORD PTR [esi+472], edi

; 514  : 	this->m_BattleTimeInfo[this->m_iSceneState].SetAppliedTime();

  00036	ff 15 00 00 00
	00		 call	 DWORD PTR __imp__GetTickCount@0
  0003c	89 46 20	 mov	 DWORD PTR [esi+32], eax

; 515  : 
; 516  : 	if ( this->m_BattleTimeInfo[this->m_iSceneState].GetCondition() == 1 )

  0003f	8b 46 0c	 mov	 eax, DWORD PTR [esi+12]
  00042	8d 0c 80	 lea	 ecx, DWORD PTR [eax+eax*4]
  00045	83 7c 8e 18 01	 cmp	 DWORD PTR [esi+ecx*4+24], 1
  0004a	8d 04 8e	 lea	 eax, DWORD PTR [esi+ecx*4]
  0004d	75 0e		 jne	 SHORT $LN1@SetState_S

; 517  : 	{
; 518  : 		KANTURU_UTIL.NotifyKanturuBattleTime(this->m_BattleTimeInfo[this->m_iSceneState].GetValue());

  0004f	8b 50 1c	 mov	 edx, DWORD PTR [eax+28]
  00052	52		 push	 edx
  00053	b9 00 00 00 00	 mov	 ecx, OFFSET _KANTURU_UTIL
  00058	e8 00 00 00 00	 call	 ?NotifyKanturuBattleTime@CKanturuUtil@@QAEXH@Z ; CKanturuUtil::NotifyKanturuBattleTime
$LN1@SetState_S:

; 519  : 	}
; 520  : 
; 521  : 	g_KanturuMonsterMng.SetKanturuMonster(0);

  0005d	57		 push	 edi
  0005e	b9 00 00 00 00	 mov	 ecx, OFFSET ?g_KanturuMonsterMng@@3VCKanturuMonsterMng@@A ; g_KanturuMonsterMng
  00063	e8 00 00 00 00	 call	 ?SetKanturuMonster@CKanturuMonsterMng@@QAEHH@Z ; CKanturuMonsterMng::SetKanturuMonster

; 522  : 	this->m_KanturuMaya.SetMayaObjIndex(g_KanturuMonsterMng.GetMayaObjIndex());

  00068	a1 d8 07 00 00	 mov	 eax, DWORD PTR ?g_KanturuMonsterMng@@3VCKanturuMonsterMng@@A+2008
  0006d	5f		 pop	 edi
  0006e	89 86 e0 01 00
	00		 mov	 DWORD PTR [esi+480], eax
  00074	5e		 pop	 esi

; 523  : }

  00075	c3		 ret	 0
?SetState_START1@CKanturuBattleOfMaya@@QAEXXZ ENDP	; CKanturuBattleOfMaya::SetState_START1
_TEXT	ENDS
PUBLIC	??_C@_0DD@FHJECEBB@?$FL?5KANTURU?5?$FN?$FL?5BattleOfMaya?5?$FN?5Stat@ ; `string'
PUBLIC	?SetState_END_MAYA1@CKanturuBattleOfMaya@@QAEXXZ ; CKanturuBattleOfMaya::SetState_END_MAYA1
EXTRN	?NotifyKanturuSuccessValue@CKanturuUtil@@QAEXH@Z:PROC ; CKanturuUtil::NotifyKanturuSuccessValue
;	COMDAT ??_C@_0DD@FHJECEBB@?$FL?5KANTURU?5?$FN?$FL?5BattleOfMaya?5?$FN?5Stat@
; File e:\work\tranet_version\gs\gameserver\kanturubattleofmaya.h
CONST	SEGMENT
??_C@_0DD@FHJECEBB@?$FL?5KANTURU?5?$FN?$FL?5BattleOfMaya?5?$FN?5Stat@ DB '['
	DB	' KANTURU ][ BattleOfMaya ] State(%d) -> END_MAYA1', 00H ; `string'
; Function compile flags: /Ogtp
; File e:\work\tranet_version\gs\gameserver\kanturubattleofmaya.cpp
CONST	ENDS
;	COMDAT ?SetState_END_MAYA1@CKanturuBattleOfMaya@@QAEXXZ
_TEXT	SEGMENT
?SetState_END_MAYA1@CKanturuBattleOfMaya@@QAEXXZ PROC	; CKanturuBattleOfMaya::SetState_END_MAYA1, COMDAT
; _this$ = ecx

; 545  : {

  00000	56		 push	 esi
  00001	8b f1		 mov	 esi, ecx

; 546  : 	LogAddC(5, "[ KANTURU ][ BattleOfMaya ] State(%d) -> END_MAYA1",
; 547  : 		this->m_iBattleOfMayaState);

  00003	8b 46 08	 mov	 eax, DWORD PTR [esi+8]
  00006	50		 push	 eax
  00007	68 00 00 00 00	 push	 OFFSET ??_C@_0DD@FHJECEBB@?$FL?5KANTURU?5?$FN?$FL?5BattleOfMaya?5?$FN?5Stat@
  0000c	6a 05		 push	 5
  0000e	ff 15 00 00 00
	00		 call	 DWORD PTR ?LogAddC@@3P6AXEPADZZA ; LogAddC

; 548  : 
; 549  : 	this->SetBattleSceneState(-1);
; 550  : 	this->SetBattleOfMayaState(KANTURU_MAYA_END1);
; 551  : 	this->SetEntrancePermit(FALSE);
; 552  : 	
; 553  : 	KANTURU_UTIL.NotifyKanturuSuccessValue(this->GetSuccessValue());

  00014	8b 8e d4 01 00
	00		 mov	 ecx, DWORD PTR [esi+468]
  0001a	83 c4 0c	 add	 esp, 12			; 0000000cH
  0001d	33 c0		 xor	 eax, eax
  0001f	51		 push	 ecx
  00020	b9 00 00 00 00	 mov	 ecx, OFFSET _KANTURU_UTIL
  00025	c7 46 0c ff ff
	ff ff		 mov	 DWORD PTR [esi+12], -1
  0002c	89 86 d8 01 00
	00		 mov	 DWORD PTR [esi+472], eax
  00032	c7 46 08 05 00
	00 00		 mov	 DWORD PTR [esi+8], 5
  00039	89 86 d0 01 00
	00		 mov	 DWORD PTR [esi+464], eax
  0003f	e8 00 00 00 00	 call	 ?NotifyKanturuSuccessValue@CKanturuUtil@@QAEXH@Z ; CKanturuUtil::NotifyKanturuSuccessValue
  00044	5e		 pop	 esi

; 554  : }

  00045	c3		 ret	 0
?SetState_END_MAYA1@CKanturuBattleOfMaya@@QAEXXZ ENDP	; CKanturuBattleOfMaya::SetState_END_MAYA1
_TEXT	ENDS
PUBLIC	??_C@_0DI@DJGMLH@?$FL?5KANTURU?5?$FN?$FL?5BattleOfMaya?5?$FN?5Stat@ ; `string'
PUBLIC	?SetState_ENDCYCLE_MAYA1@CKanturuBattleOfMaya@@QAEXXZ ; CKanturuBattleOfMaya::SetState_ENDCYCLE_MAYA1
EXTRN	?SendMsgKauturuMapUser@CKanturuUtil@@QAAXPADZZ:PROC ; CKanturuUtil::SendMsgKauturuMapUser
EXTRN	?Get@CMsg@@QAEPADH@Z:PROC			; CMsg::Get
EXTRN	?lMsg@@3VCMsg@@A:BYTE				; lMsg
;	COMDAT ??_C@_0DI@DJGMLH@?$FL?5KANTURU?5?$FN?$FL?5BattleOfMaya?5?$FN?5Stat@
; File e:\work\tranet_version\gs\gameserver\kanturubattleofmaya.h
CONST	SEGMENT
??_C@_0DI@DJGMLH@?$FL?5KANTURU?5?$FN?$FL?5BattleOfMaya?5?$FN?5Stat@ DB '['
	DB	' KANTURU ][ BattleOfMaya ] State(%d) -> ENDCYCLE_MAYA1', 00H ; `string'
; Function compile flags: /Ogtp
; File e:\work\tranet_version\gs\gameserver\kanturubattleofmaya.cpp
CONST	ENDS
;	COMDAT ?SetState_ENDCYCLE_MAYA1@CKanturuBattleOfMaya@@QAEXXZ
_TEXT	SEGMENT
?SetState_ENDCYCLE_MAYA1@CKanturuBattleOfMaya@@QAEXXZ PROC ; CKanturuBattleOfMaya::SetState_ENDCYCLE_MAYA1, COMDAT
; _this$ = ecx

; 558  : {

  00000	56		 push	 esi
  00001	8b f1		 mov	 esi, ecx

; 559  : 	LogAddC(5, "[ KANTURU ][ BattleOfMaya ] State(%d) -> ENDCYCLE_MAYA1",
; 560  : 		this->m_iBattleOfMayaState);

  00003	8b 46 08	 mov	 eax, DWORD PTR [esi+8]
  00006	50		 push	 eax
  00007	68 00 00 00 00	 push	 OFFSET ??_C@_0DI@DJGMLH@?$FL?5KANTURU?5?$FN?$FL?5BattleOfMaya?5?$FN?5Stat@
  0000c	6a 05		 push	 5
  0000e	ff 15 00 00 00
	00		 call	 DWORD PTR ?LogAddC@@3P6AXEPADZZA ; LogAddC
  00014	83 c4 0c	 add	 esp, 12			; 0000000cH

; 561  : 
; 562  : 	this->SetBattleOfMayaState(KANTURU_MAYA_ENDCYCLE1);
; 563  : 	this->SetEntrancePermit(FALSE);
; 564  : 	
; 565  : 	KANTURU_UTIL.SendMsgKauturuMapUser(lMsg.Get(MSGGET(13, 33)));

  00017	68 21 0d 00 00	 push	 3361			; 00000d21H
  0001c	b9 00 00 00 00	 mov	 ecx, OFFSET ?lMsg@@3VCMsg@@A ; lMsg
  00021	c7 46 08 06 00
	00 00		 mov	 DWORD PTR [esi+8], 6
  00028	c7 86 d0 01 00
	00 00 00 00 00	 mov	 DWORD PTR [esi+464], 0
  00032	e8 00 00 00 00	 call	 ?Get@CMsg@@QAEPADH@Z	; CMsg::Get
  00037	50		 push	 eax
  00038	68 00 00 00 00	 push	 OFFSET _KANTURU_UTIL
  0003d	e8 00 00 00 00	 call	 ?SendMsgKauturuMapUser@CKanturuUtil@@QAAXPADZZ ; CKanturuUtil::SendMsgKauturuMapUser
  00042	83 c4 08	 add	 esp, 8
  00045	5e		 pop	 esi

; 566  : }

  00046	c3		 ret	 0
?SetState_ENDCYCLE_MAYA1@CKanturuBattleOfMaya@@QAEXXZ ENDP ; CKanturuBattleOfMaya::SetState_ENDCYCLE_MAYA1
_TEXT	ENDS
PUBLIC	??_C@_0DB@JBAPPNDD@?$FL?5KANTURU?5?$FN?$FL?5BattleOfMaya?5?$FN?5Stat@ ; `string'
PUBLIC	?SetState_STANBY2@CKanturuBattleOfMaya@@QAEXXZ	; CKanturuBattleOfMaya::SetState_STANBY2
;	COMDAT ??_C@_0DB@JBAPPNDD@?$FL?5KANTURU?5?$FN?$FL?5BattleOfMaya?5?$FN?5Stat@
; File e:\work\tranet_version\gs\gameserver\kanturubattleofmaya.h
CONST	SEGMENT
??_C@_0DB@JBAPPNDD@?$FL?5KANTURU?5?$FN?$FL?5BattleOfMaya?5?$FN?5Stat@ DB '['
	DB	' KANTURU ][ BattleOfMaya ] State(%d) -> STANBY2', 00H ; `string'
; Function compile flags: /Ogtp
; File e:\work\tranet_version\gs\gameserver\kanturubattleofmaya.cpp
CONST	ENDS
;	COMDAT ?SetState_STANBY2@CKanturuBattleOfMaya@@QAEXXZ
_TEXT	SEGMENT
?SetState_STANBY2@CKanturuBattleOfMaya@@QAEXXZ PROC	; CKanturuBattleOfMaya::SetState_STANBY2, COMDAT
; _this$ = ecx

; 571  : {

  00000	56		 push	 esi
  00001	8b f1		 mov	 esi, ecx

; 572  : 	LogAddC(5, "[ KANTURU ][ BattleOfMaya ] State(%d) -> STANBY2",
; 573  : 		this->m_iBattleOfMayaState);

  00003	8b 46 08	 mov	 eax, DWORD PTR [esi+8]
  00006	50		 push	 eax
  00007	68 00 00 00 00	 push	 OFFSET ??_C@_0DB@JBAPPNDD@?$FL?5KANTURU?5?$FN?$FL?5BattleOfMaya?5?$FN?5Stat@
  0000c	6a 05		 push	 5
  0000e	ff 15 00 00 00
	00		 call	 DWORD PTR ?LogAddC@@3P6AXEPADZZA ; LogAddC
  00014	83 c4 0c	 add	 esp, 12			; 0000000cH

; 574  : 
; 575  : 	this->SetBattleOfMayaState(KANTURU_MAYA_STANBY2);

  00017	c7 46 08 07 00
	00 00		 mov	 DWORD PTR [esi+8], 7

; 576  : 	this->SetEntrancePermit(TRUE);

  0001e	c7 86 d0 01 00
	00 01 00 00 00	 mov	 DWORD PTR [esi+464], 1
  00028	5e		 pop	 esi

; 577  : }

  00029	c3		 ret	 0
?SetState_STANBY2@CKanturuBattleOfMaya@@QAEXXZ ENDP	; CKanturuBattleOfMaya::SetState_STANBY2
_TEXT	ENDS
PUBLIC	??_C@_0DA@CHCLHAEH@?$FL?5KANTURU?5?$FN?$FL?5BattleOfMaya?5?$FN?5Stat@ ; `string'
PUBLIC	?SetState_START2@CKanturuBattleOfMaya@@QAEXXZ	; CKanturuBattleOfMaya::SetState_START2
;	COMDAT ??_C@_0DA@CHCLHAEH@?$FL?5KANTURU?5?$FN?$FL?5BattleOfMaya?5?$FN?5Stat@
; File e:\work\tranet_version\gs\gameserver\kanturumaya.h
CONST	SEGMENT
??_C@_0DA@CHCLHAEH@?$FL?5KANTURU?5?$FN?$FL?5BattleOfMaya?5?$FN?5Stat@ DB '['
	DB	' KANTURU ][ BattleOfMaya ] State(%d) -> START2', 00H ; `string'
; Function compile flags: /Ogtp
; File e:\work\tranet_version\gs\gameserver\kanturubattleofmaya.cpp
CONST	ENDS
;	COMDAT ?SetState_START2@CKanturuBattleOfMaya@@QAEXXZ
_TEXT	SEGMENT
?SetState_START2@CKanturuBattleOfMaya@@QAEXXZ PROC	; CKanturuBattleOfMaya::SetState_START2, COMDAT
; _this$ = ecx

; 582  : {

  00000	56		 push	 esi
  00001	8b f1		 mov	 esi, ecx

; 583  : 	LogAddC(5, "[ KANTURU ][ BattleOfMaya ] State(%d) -> START2",
; 584  : 		this->m_iBattleOfMayaState);

  00003	8b 46 08	 mov	 eax, DWORD PTR [esi+8]
  00006	50		 push	 eax
  00007	68 00 00 00 00	 push	 OFFSET ??_C@_0DA@CHCLHAEH@?$FL?5KANTURU?5?$FN?$FL?5BattleOfMaya?5?$FN?5Stat@
  0000c	6a 05		 push	 5
  0000e	ff 15 00 00 00
	00		 call	 DWORD PTR ?LogAddC@@3P6AXEPADZZA ; LogAddC
  00014	83 c4 0c	 add	 esp, 12			; 0000000cH

; 585  : 
; 586  : 	this->SetBattleOfMayaState(KANTURU_MAYA_START2);

  00017	c7 46 08 08 00
	00 00		 mov	 DWORD PTR [esi+8], 8

; 587  : 	this->SetEntrancePermit(FALSE);

  0001e	c7 86 d0 01 00
	00 00 00 00 00	 mov	 DWORD PTR [esi+464], 0

; 588  : 	this->SetBattleSceneState(1);

  00028	c7 46 0c 01 00
	00 00		 mov	 DWORD PTR [esi+12], 1

; 589  : 	this->SetSuccessValue(FALSE);

  0002f	c7 86 d4 01 00
	00 00 00 00 00	 mov	 DWORD PTR [esi+468], 0

; 590  : 	this->SetSceneSuccessValue(FALSE);

  00039	c7 86 d8 01 00
	00 00 00 00 00	 mov	 DWORD PTR [esi+472], 0

; 591  : 	this->m_BattleTimeInfo[this->m_iSceneState].SetAppliedTime();

  00043	ff 15 00 00 00
	00		 call	 DWORD PTR __imp__GetTickCount@0
  00049	89 46 34	 mov	 DWORD PTR [esi+52], eax

; 592  : 
; 593  : 	if ( this->m_BattleTimeInfo[this->m_iSceneState].GetCondition() == 1 )

  0004c	8b 46 0c	 mov	 eax, DWORD PTR [esi+12]
  0004f	8d 0c 80	 lea	 ecx, DWORD PTR [eax+eax*4]
  00052	83 7c 8e 18 01	 cmp	 DWORD PTR [esi+ecx*4+24], 1
  00057	8d 04 8e	 lea	 eax, DWORD PTR [esi+ecx*4]
  0005a	75 0e		 jne	 SHORT $LN1@SetState_S@2

; 594  : 	{
; 595  : 		KANTURU_UTIL.NotifyKanturuBattleTime(this->m_BattleTimeInfo[this->m_iSceneState].GetValue());

  0005c	8b 50 1c	 mov	 edx, DWORD PTR [eax+28]
  0005f	52		 push	 edx
  00060	b9 00 00 00 00	 mov	 ecx, OFFSET _KANTURU_UTIL
  00065	e8 00 00 00 00	 call	 ?NotifyKanturuBattleTime@CKanturuUtil@@QAEXH@Z ; CKanturuUtil::NotifyKanturuBattleTime
$LN1@SetState_S@2:

; 596  : 	}
; 597  : 
; 598  : 	g_KanturuMonsterMng.SetKanturuMonster(0);

  0006a	6a 00		 push	 0
  0006c	b9 00 00 00 00	 mov	 ecx, OFFSET ?g_KanturuMonsterMng@@3VCKanturuMonsterMng@@A ; g_KanturuMonsterMng
  00071	e8 00 00 00 00	 call	 ?SetKanturuMonster@CKanturuMonsterMng@@QAEHH@Z ; CKanturuMonsterMng::SetKanturuMonster

; 599  : 	this->m_KanturuMaya.SetMayaObjIndex(g_KanturuMonsterMng.GetMayaObjIndex());

  00076	a1 d8 07 00 00	 mov	 eax, DWORD PTR ?g_KanturuMonsterMng@@3VCKanturuMonsterMng@@A+2008
  0007b	89 86 e0 01 00
	00		 mov	 DWORD PTR [esi+480], eax
  00081	5e		 pop	 esi

; 600  : }

  00082	c3		 ret	 0
?SetState_START2@CKanturuBattleOfMaya@@QAEXXZ ENDP	; CKanturuBattleOfMaya::SetState_START2
_TEXT	ENDS
PUBLIC	??_C@_0DD@HMLJHHNC@?$FL?5KANTURU?5?$FN?$FL?5BattleOfMaya?5?$FN?5Stat@ ; `string'
PUBLIC	?SetState_END_MAYA2@CKanturuBattleOfMaya@@QAEXXZ ; CKanturuBattleOfMaya::SetState_END_MAYA2
;	COMDAT ??_C@_0DD@HMLJHHNC@?$FL?5KANTURU?5?$FN?$FL?5BattleOfMaya?5?$FN?5Stat@
; File e:\work\tranet_version\gs\gameserver\kanturubattleofmaya.h
CONST	SEGMENT
??_C@_0DD@HMLJHHNC@?$FL?5KANTURU?5?$FN?$FL?5BattleOfMaya?5?$FN?5Stat@ DB '['
	DB	' KANTURU ][ BattleOfMaya ] State(%d) -> END_MAYA2', 00H ; `string'
; Function compile flags: /Ogtp
; File e:\work\tranet_version\gs\gameserver\kanturubattleofmaya.cpp
CONST	ENDS
;	COMDAT ?SetState_END_MAYA2@CKanturuBattleOfMaya@@QAEXXZ
_TEXT	SEGMENT
?SetState_END_MAYA2@CKanturuBattleOfMaya@@QAEXXZ PROC	; CKanturuBattleOfMaya::SetState_END_MAYA2, COMDAT
; _this$ = ecx

; 622  : {

  00000	56		 push	 esi
  00001	8b f1		 mov	 esi, ecx

; 623  : 	LogAddC(5, "[ KANTURU ][ BattleOfMaya ] State(%d) -> END_MAYA2",
; 624  : 		this->m_iBattleOfMayaState);

  00003	8b 46 08	 mov	 eax, DWORD PTR [esi+8]
  00006	50		 push	 eax
  00007	68 00 00 00 00	 push	 OFFSET ??_C@_0DD@HMLJHHNC@?$FL?5KANTURU?5?$FN?$FL?5BattleOfMaya?5?$FN?5Stat@
  0000c	6a 05		 push	 5
  0000e	ff 15 00 00 00
	00		 call	 DWORD PTR ?LogAddC@@3P6AXEPADZZA ; LogAddC

; 625  : 
; 626  : 	this->SetBattleSceneState(-1);
; 627  : 	this->SetBattleOfMayaState(KANTURU_MAYA_END2);
; 628  : 	this->SetEntrancePermit(FALSE);
; 629  : 	
; 630  : 	KANTURU_UTIL.NotifyKanturuSuccessValue(this->GetSuccessValue());

  00014	8b 8e d4 01 00
	00		 mov	 ecx, DWORD PTR [esi+468]
  0001a	83 c4 0c	 add	 esp, 12			; 0000000cH
  0001d	33 c0		 xor	 eax, eax
  0001f	51		 push	 ecx
  00020	b9 00 00 00 00	 mov	 ecx, OFFSET _KANTURU_UTIL
  00025	c7 46 0c ff ff
	ff ff		 mov	 DWORD PTR [esi+12], -1
  0002c	89 86 d8 01 00
	00		 mov	 DWORD PTR [esi+472], eax
  00032	c7 46 08 0a 00
	00 00		 mov	 DWORD PTR [esi+8], 10	; 0000000aH
  00039	89 86 d0 01 00
	00		 mov	 DWORD PTR [esi+464], eax
  0003f	e8 00 00 00 00	 call	 ?NotifyKanturuSuccessValue@CKanturuUtil@@QAEXH@Z ; CKanturuUtil::NotifyKanturuSuccessValue
  00044	5e		 pop	 esi

; 631  : }

  00045	c3		 ret	 0
?SetState_END_MAYA2@CKanturuBattleOfMaya@@QAEXXZ ENDP	; CKanturuBattleOfMaya::SetState_END_MAYA2
_TEXT	ENDS
PUBLIC	??_C@_0DI@CLBEDPHE@?$FL?5KANTURU?5?$FN?$FL?5BattleOfMaya?5?$FN?5Stat@ ; `string'
PUBLIC	?SetState_ENDCYCLE_MAYA2@CKanturuBattleOfMaya@@QAEXXZ ; CKanturuBattleOfMaya::SetState_ENDCYCLE_MAYA2
;	COMDAT ??_C@_0DI@CLBEDPHE@?$FL?5KANTURU?5?$FN?$FL?5BattleOfMaya?5?$FN?5Stat@
; File e:\work\tranet_version\gs\gameserver\kanturubattleofmaya.h
CONST	SEGMENT
??_C@_0DI@CLBEDPHE@?$FL?5KANTURU?5?$FN?$FL?5BattleOfMaya?5?$FN?5Stat@ DB '['
	DB	' KANTURU ][ BattleOfMaya ] State(%d) -> ENDCYCLE_MAYA2', 00H ; `string'
; Function compile flags: /Ogtp
; File e:\work\tranet_version\gs\gameserver\kanturubattleofmaya.cpp
CONST	ENDS
;	COMDAT ?SetState_ENDCYCLE_MAYA2@CKanturuBattleOfMaya@@QAEXXZ
_TEXT	SEGMENT
?SetState_ENDCYCLE_MAYA2@CKanturuBattleOfMaya@@QAEXXZ PROC ; CKanturuBattleOfMaya::SetState_ENDCYCLE_MAYA2, COMDAT
; _this$ = ecx

; 635  : {

  00000	56		 push	 esi
  00001	8b f1		 mov	 esi, ecx

; 636  : 	LogAddC(5, "[ KANTURU ][ BattleOfMaya ] State(%d) -> ENDCYCLE_MAYA2",
; 637  : 		this->m_iBattleOfMayaState);

  00003	8b 46 08	 mov	 eax, DWORD PTR [esi+8]
  00006	50		 push	 eax
  00007	68 00 00 00 00	 push	 OFFSET ??_C@_0DI@CLBEDPHE@?$FL?5KANTURU?5?$FN?$FL?5BattleOfMaya?5?$FN?5Stat@
  0000c	6a 05		 push	 5
  0000e	ff 15 00 00 00
	00		 call	 DWORD PTR ?LogAddC@@3P6AXEPADZZA ; LogAddC
  00014	83 c4 0c	 add	 esp, 12			; 0000000cH

; 638  : 
; 639  : 	this->SetBattleOfMayaState(KANTURU_MAYA_ENDCYCLE2);
; 640  : 	this->SetEntrancePermit(FALSE);
; 641  : 	
; 642  : 	KANTURU_UTIL.SendMsgKauturuMapUser(lMsg.Get(MSGGET(13, 33)));

  00017	68 21 0d 00 00	 push	 3361			; 00000d21H
  0001c	b9 00 00 00 00	 mov	 ecx, OFFSET ?lMsg@@3VCMsg@@A ; lMsg
  00021	c7 46 08 0b 00
	00 00		 mov	 DWORD PTR [esi+8], 11	; 0000000bH
  00028	c7 86 d0 01 00
	00 00 00 00 00	 mov	 DWORD PTR [esi+464], 0
  00032	e8 00 00 00 00	 call	 ?Get@CMsg@@QAEPADH@Z	; CMsg::Get
  00037	50		 push	 eax
  00038	68 00 00 00 00	 push	 OFFSET _KANTURU_UTIL
  0003d	e8 00 00 00 00	 call	 ?SendMsgKauturuMapUser@CKanturuUtil@@QAAXPADZZ ; CKanturuUtil::SendMsgKauturuMapUser
  00042	83 c4 08	 add	 esp, 8
  00045	5e		 pop	 esi

; 643  : }

  00046	c3		 ret	 0
?SetState_ENDCYCLE_MAYA2@CKanturuBattleOfMaya@@QAEXXZ ENDP ; CKanturuBattleOfMaya::SetState_ENDCYCLE_MAYA2
_TEXT	ENDS
PUBLIC	??_C@_0DB@IIBEMMHC@?$FL?5KANTURU?5?$FN?$FL?5BattleOfMaya?5?$FN?5Stat@ ; `string'
PUBLIC	?SetState_STANBY3@CKanturuBattleOfMaya@@QAEXXZ	; CKanturuBattleOfMaya::SetState_STANBY3
;	COMDAT ??_C@_0DB@IIBEMMHC@?$FL?5KANTURU?5?$FN?$FL?5BattleOfMaya?5?$FN?5Stat@
; File e:\work\tranet_version\gs\gameserver\kanturubattleofmaya.h
CONST	SEGMENT
??_C@_0DB@IIBEMMHC@?$FL?5KANTURU?5?$FN?$FL?5BattleOfMaya?5?$FN?5Stat@ DB '['
	DB	' KANTURU ][ BattleOfMaya ] State(%d) -> STANBY3', 00H ; `string'
; Function compile flags: /Ogtp
; File e:\work\tranet_version\gs\gameserver\kanturubattleofmaya.cpp
CONST	ENDS
;	COMDAT ?SetState_STANBY3@CKanturuBattleOfMaya@@QAEXXZ
_TEXT	SEGMENT
?SetState_STANBY3@CKanturuBattleOfMaya@@QAEXXZ PROC	; CKanturuBattleOfMaya::SetState_STANBY3, COMDAT
; _this$ = ecx

; 648  : {

  00000	56		 push	 esi
  00001	8b f1		 mov	 esi, ecx

; 649  : 	LogAddC(5, "[ KANTURU ][ BattleOfMaya ] State(%d) -> STANBY3",
; 650  : 		this->m_iBattleOfMayaState);

  00003	8b 46 08	 mov	 eax, DWORD PTR [esi+8]
  00006	50		 push	 eax
  00007	68 00 00 00 00	 push	 OFFSET ??_C@_0DB@IIBEMMHC@?$FL?5KANTURU?5?$FN?$FL?5BattleOfMaya?5?$FN?5Stat@
  0000c	6a 05		 push	 5
  0000e	ff 15 00 00 00
	00		 call	 DWORD PTR ?LogAddC@@3P6AXEPADZZA ; LogAddC
  00014	83 c4 0c	 add	 esp, 12			; 0000000cH

; 651  : 
; 652  : 	this->SetBattleOfMayaState(KANTURU_MAYA_STANBY3);

  00017	c7 46 08 0c 00
	00 00		 mov	 DWORD PTR [esi+8], 12	; 0000000cH

; 653  : 	this->SetEntrancePermit(TRUE);

  0001e	c7 86 d0 01 00
	00 01 00 00 00	 mov	 DWORD PTR [esi+464], 1
  00028	5e		 pop	 esi

; 654  : }

  00029	c3		 ret	 0
?SetState_STANBY3@CKanturuBattleOfMaya@@QAEXXZ ENDP	; CKanturuBattleOfMaya::SetState_STANBY3
_TEXT	ENDS
PUBLIC	??_C@_0DA@DODAEBAG@?$FL?5KANTURU?5?$FN?$FL?5BattleOfMaya?5?$FN?5Stat@ ; `string'
PUBLIC	?SetState_START3@CKanturuBattleOfMaya@@QAEXXZ	; CKanturuBattleOfMaya::SetState_START3
;	COMDAT ??_C@_0DA@DODAEBAG@?$FL?5KANTURU?5?$FN?$FL?5BattleOfMaya?5?$FN?5Stat@
; File e:\work\tranet_version\gs\gameserver\kanturumaya.h
CONST	SEGMENT
??_C@_0DA@DODAEBAG@?$FL?5KANTURU?5?$FN?$FL?5BattleOfMaya?5?$FN?5Stat@ DB '['
	DB	' KANTURU ][ BattleOfMaya ] State(%d) -> START3', 00H ; `string'
; Function compile flags: /Ogtp
; File e:\work\tranet_version\gs\gameserver\kanturubattleofmaya.cpp
CONST	ENDS
;	COMDAT ?SetState_START3@CKanturuBattleOfMaya@@QAEXXZ
_TEXT	SEGMENT
?SetState_START3@CKanturuBattleOfMaya@@QAEXXZ PROC	; CKanturuBattleOfMaya::SetState_START3, COMDAT
; _this$ = ecx

; 659  : {

  00000	56		 push	 esi
  00001	8b f1		 mov	 esi, ecx

; 660  : 	LogAddC(5, "[ KANTURU ][ BattleOfMaya ] State(%d) -> START3",
; 661  : 		this->m_iBattleOfMayaState);

  00003	8b 46 08	 mov	 eax, DWORD PTR [esi+8]
  00006	50		 push	 eax
  00007	68 00 00 00 00	 push	 OFFSET ??_C@_0DA@DODAEBAG@?$FL?5KANTURU?5?$FN?$FL?5BattleOfMaya?5?$FN?5Stat@
  0000c	6a 05		 push	 5
  0000e	ff 15 00 00 00
	00		 call	 DWORD PTR ?LogAddC@@3P6AXEPADZZA ; LogAddC

; 662  : 
; 663  : 	this->SetBattleOfMayaState(KANTURU_MAYA_START3);
; 664  : 	this->SetBattleSceneState(2);
; 665  : 	this->SetEntrancePermit(FALSE);

  00014	33 c0		 xor	 eax, eax
  00016	83 c4 0c	 add	 esp, 12			; 0000000cH
  00019	c7 46 08 0d 00
	00 00		 mov	 DWORD PTR [esi+8], 13	; 0000000dH
  00020	c7 46 0c 02 00
	00 00		 mov	 DWORD PTR [esi+12], 2
  00027	89 86 d0 01 00
	00		 mov	 DWORD PTR [esi+464], eax

; 666  : 	this->SetSuccessValue(FALSE);

  0002d	89 86 d4 01 00
	00		 mov	 DWORD PTR [esi+468], eax

; 667  : 	this->SetSceneSuccessValue(FALSE);

  00033	89 86 d8 01 00
	00		 mov	 DWORD PTR [esi+472], eax

; 668  : 	this->m_BattleTimeInfo[this->m_iSceneState].SetAppliedTime();

  00039	ff 15 00 00 00
	00		 call	 DWORD PTR __imp__GetTickCount@0
  0003f	89 46 48	 mov	 DWORD PTR [esi+72], eax

; 669  : 
; 670  : 	if ( this->m_BattleTimeInfo[this->m_iSceneState].GetCondition() == 1 )

  00042	8b 46 0c	 mov	 eax, DWORD PTR [esi+12]
  00045	8d 0c 80	 lea	 ecx, DWORD PTR [eax+eax*4]
  00048	83 7c 8e 18 01	 cmp	 DWORD PTR [esi+ecx*4+24], 1
  0004d	8d 04 8e	 lea	 eax, DWORD PTR [esi+ecx*4]
  00050	75 0e		 jne	 SHORT $LN1@SetState_S@3

; 671  : 	{
; 672  : 		KANTURU_UTIL.NotifyKanturuBattleTime(this->m_BattleTimeInfo[this->m_iSceneState].GetValue());

  00052	8b 50 1c	 mov	 edx, DWORD PTR [eax+28]
  00055	52		 push	 edx
  00056	b9 00 00 00 00	 mov	 ecx, OFFSET _KANTURU_UTIL
  0005b	e8 00 00 00 00	 call	 ?NotifyKanturuBattleTime@CKanturuUtil@@QAEXH@Z ; CKanturuUtil::NotifyKanturuBattleTime
$LN1@SetState_S@3:

; 673  : 	}
; 674  : 
; 675  : 	g_KanturuMonsterMng.SetKanturuMonster(1);

  00060	6a 01		 push	 1
  00062	b9 00 00 00 00	 mov	 ecx, OFFSET ?g_KanturuMonsterMng@@3VCKanturuMonsterMng@@A ; g_KanturuMonsterMng
  00067	e8 00 00 00 00	 call	 ?SetKanturuMonster@CKanturuMonsterMng@@QAEHH@Z ; CKanturuMonsterMng::SetKanturuMonster

; 676  : 	this->m_KanturuMaya.SetMayaObjIndex(g_KanturuMonsterMng.GetMayaObjIndex());

  0006c	a1 d8 07 00 00	 mov	 eax, DWORD PTR ?g_KanturuMonsterMng@@3VCKanturuMonsterMng@@A+2008
  00071	89 86 e0 01 00
	00		 mov	 DWORD PTR [esi+480], eax
  00077	5e		 pop	 esi

; 677  : }

  00078	c3		 ret	 0
?SetState_START3@CKanturuBattleOfMaya@@QAEXXZ ENDP	; CKanturuBattleOfMaya::SetState_START3
_TEXT	ENDS
PUBLIC	??_C@_0DD@GFKCEGJD@?$FL?5KANTURU?5?$FN?$FL?5BattleOfMaya?5?$FN?5Stat@ ; `string'
PUBLIC	?SetState_END_MAYA3@CKanturuBattleOfMaya@@QAEXXZ ; CKanturuBattleOfMaya::SetState_END_MAYA3
;	COMDAT ??_C@_0DD@GFKCEGJD@?$FL?5KANTURU?5?$FN?$FL?5BattleOfMaya?5?$FN?5Stat@
; File e:\work\tranet_version\gs\gameserver\kanturubattleofmaya.h
CONST	SEGMENT
??_C@_0DD@GFKCEGJD@?$FL?5KANTURU?5?$FN?$FL?5BattleOfMaya?5?$FN?5Stat@ DB '['
	DB	' KANTURU ][ BattleOfMaya ] State(%d) -> END_MAYA3', 00H ; `string'
; Function compile flags: /Ogtp
; File e:\work\tranet_version\gs\gameserver\kanturubattleofmaya.cpp
CONST	ENDS
;	COMDAT ?SetState_END_MAYA3@CKanturuBattleOfMaya@@QAEXXZ
_TEXT	SEGMENT
?SetState_END_MAYA3@CKanturuBattleOfMaya@@QAEXXZ PROC	; CKanturuBattleOfMaya::SetState_END_MAYA3, COMDAT
; _this$ = ecx

; 700  : {

  00000	56		 push	 esi
  00001	8b f1		 mov	 esi, ecx

; 701  : 	LogAddC(5, "[ KANTURU ][ BattleOfMaya ] State(%d) -> END_MAYA3",
; 702  : 		this->m_iBattleOfMayaState);

  00003	8b 46 08	 mov	 eax, DWORD PTR [esi+8]
  00006	50		 push	 eax
  00007	68 00 00 00 00	 push	 OFFSET ??_C@_0DD@GFKCEGJD@?$FL?5KANTURU?5?$FN?$FL?5BattleOfMaya?5?$FN?5Stat@
  0000c	6a 05		 push	 5
  0000e	ff 15 00 00 00
	00		 call	 DWORD PTR ?LogAddC@@3P6AXEPADZZA ; LogAddC

; 703  : 
; 704  : 	this->SetBattleSceneState(-1);
; 705  : 	this->SetBattleOfMayaState(KANTURU_MAYA_END3);
; 706  : 	this->SetEntrancePermit(FALSE);
; 707  : 	
; 708  : 	KANTURU_UTIL.NotifyKanturuSuccessValue(this->GetSuccessValue());

  00014	8b 8e d4 01 00
	00		 mov	 ecx, DWORD PTR [esi+468]
  0001a	83 c4 0c	 add	 esp, 12			; 0000000cH
  0001d	33 c0		 xor	 eax, eax
  0001f	51		 push	 ecx
  00020	b9 00 00 00 00	 mov	 ecx, OFFSET _KANTURU_UTIL
  00025	c7 46 0c ff ff
	ff ff		 mov	 DWORD PTR [esi+12], -1
  0002c	89 86 d8 01 00
	00		 mov	 DWORD PTR [esi+472], eax
  00032	c7 46 08 0f 00
	00 00		 mov	 DWORD PTR [esi+8], 15	; 0000000fH
  00039	89 86 d0 01 00
	00		 mov	 DWORD PTR [esi+464], eax
  0003f	e8 00 00 00 00	 call	 ?NotifyKanturuSuccessValue@CKanturuUtil@@QAEXH@Z ; CKanturuUtil::NotifyKanturuSuccessValue
  00044	5e		 pop	 esi

; 709  : }

  00045	c3		 ret	 0
?SetState_END_MAYA3@CKanturuBattleOfMaya@@QAEXXZ ENDP	; CKanturuBattleOfMaya::SetState_END_MAYA3
_TEXT	ENDS
PUBLIC	??_C@_0DI@DCAPAODF@?$FL?5KANTURU?5?$FN?$FL?5BattleOfMaya?5?$FN?5Stat@ ; `string'
PUBLIC	?SetState_ENDCYCLE_MAYA3@CKanturuBattleOfMaya@@QAEXXZ ; CKanturuBattleOfMaya::SetState_ENDCYCLE_MAYA3
;	COMDAT ??_C@_0DI@DCAPAODF@?$FL?5KANTURU?5?$FN?$FL?5BattleOfMaya?5?$FN?5Stat@
; File e:\work\tranet_version\gs\gameserver\kanturubattleofmaya.h
CONST	SEGMENT
??_C@_0DI@DCAPAODF@?$FL?5KANTURU?5?$FN?$FL?5BattleOfMaya?5?$FN?5Stat@ DB '['
	DB	' KANTURU ][ BattleOfMaya ] State(%d) -> ENDCYCLE_MAYA3', 00H ; `string'
; Function compile flags: /Ogtp
; File e:\work\tranet_version\gs\gameserver\kanturubattleofmaya.cpp
CONST	ENDS
;	COMDAT ?SetState_ENDCYCLE_MAYA3@CKanturuBattleOfMaya@@QAEXXZ
_TEXT	SEGMENT
?SetState_ENDCYCLE_MAYA3@CKanturuBattleOfMaya@@QAEXXZ PROC ; CKanturuBattleOfMaya::SetState_ENDCYCLE_MAYA3, COMDAT
; _this$ = ecx

; 713  : {

  00000	56		 push	 esi
  00001	8b f1		 mov	 esi, ecx

; 714  : 	LogAddC(5, "[ KANTURU ][ BattleOfMaya ] State(%d) -> ENDCYCLE_MAYA3",
; 715  : 		this->m_iBattleOfMayaState);

  00003	8b 46 08	 mov	 eax, DWORD PTR [esi+8]
  00006	50		 push	 eax
  00007	68 00 00 00 00	 push	 OFFSET ??_C@_0DI@DCAPAODF@?$FL?5KANTURU?5?$FN?$FL?5BattleOfMaya?5?$FN?5Stat@
  0000c	6a 05		 push	 5
  0000e	ff 15 00 00 00
	00		 call	 DWORD PTR ?LogAddC@@3P6AXEPADZZA ; LogAddC
  00014	83 c4 0c	 add	 esp, 12			; 0000000cH

; 716  : 
; 717  : 	this->SetBattleOfMayaState(KANTURU_MAYA_ENDCYCLE3);

  00017	c7 46 08 10 00
	00 00		 mov	 DWORD PTR [esi+8], 16	; 00000010H

; 718  : 	this->SetEntrancePermit(FALSE);

  0001e	c7 86 d0 01 00
	00 00 00 00 00	 mov	 DWORD PTR [esi+464], 0
  00028	5e		 pop	 esi

; 719  : }

  00029	c3		 ret	 0
?SetState_ENDCYCLE_MAYA3@CKanturuBattleOfMaya@@QAEXXZ ENDP ; CKanturuBattleOfMaya::SetState_ENDCYCLE_MAYA3
_TEXT	ENDS
PUBLIC	??_C@_0CO@GIDLLKAC@?$FL?5KANTURU?5?$FN?$FL?5BattleOfMaya?5?$FN?5Succ@ ; `string'
PUBLIC	??_C@_0CN@OMJCGL@?$FL?5KANTURU?5?$FN?$FL?5BattleOfMaya?5?$FN?5Stat@ ; `string'
PUBLIC	?SetState_END@CKanturuBattleOfMaya@@QAEXXZ	; CKanturuBattleOfMaya::SetState_END
EXTRN	?SendMsgKanturuBattleUser@CKanturuUtil@@QAAXPADZZ:PROC ; CKanturuUtil::SendMsgKanturuBattleUser
;	COMDAT ??_C@_0CO@GIDLLKAC@?$FL?5KANTURU?5?$FN?$FL?5BattleOfMaya?5?$FN?5Succ@
; File e:\work\tranet_version\gs\gameserver\kanturubattleofmaya.h
CONST	SEGMENT
??_C@_0CO@GIDLLKAC@?$FL?5KANTURU?5?$FN?$FL?5BattleOfMaya?5?$FN?5Succ@ DB '['
	DB	' KANTURU ][ BattleOfMaya ] Success Value[%d]', 00H ; `string'
CONST	ENDS
;	COMDAT ??_C@_0CN@OMJCGL@?$FL?5KANTURU?5?$FN?$FL?5BattleOfMaya?5?$FN?5Stat@
CONST	SEGMENT
??_C@_0CN@OMJCGL@?$FL?5KANTURU?5?$FN?$FL?5BattleOfMaya?5?$FN?5Stat@ DB '['
	DB	' KANTURU ][ BattleOfMaya ] State(%d) -> END', 00H ; `string'
; Function compile flags: /Ogtp
; File e:\work\tranet_version\gs\gameserver\kanturubattleofmaya.cpp
CONST	ENDS
;	COMDAT ?SetState_END@CKanturuBattleOfMaya@@QAEXXZ
_TEXT	SEGMENT
?SetState_END@CKanturuBattleOfMaya@@QAEXXZ PROC		; CKanturuBattleOfMaya::SetState_END, COMDAT
; _this$ = ecx

; 724  : {

  00000	56		 push	 esi
  00001	8b f1		 mov	 esi, ecx

; 725  : 	LogAddC(5, "[ KANTURU ][ BattleOfMaya ] State(%d) -> END",
; 726  : 		this->m_iBattleOfMayaState);

  00003	8b 46 08	 mov	 eax, DWORD PTR [esi+8]
  00006	50		 push	 eax
  00007	68 00 00 00 00	 push	 OFFSET ??_C@_0CN@OMJCGL@?$FL?5KANTURU?5?$FN?$FL?5BattleOfMaya?5?$FN?5Stat@
  0000c	6a 05		 push	 5
  0000e	ff 15 00 00 00
	00		 call	 DWORD PTR ?LogAddC@@3P6AXEPADZZA ; LogAddC

; 727  : 
; 728  : 	this->SetBattleSceneState(-1);

  00014	33 c0		 xor	 eax, eax
  00016	89 86 d8 01 00
	00		 mov	 DWORD PTR [esi+472], eax

; 729  : 	this->SetBattleOfMayaState(KANTURU_MAYA_END);
; 730  : 	this->SetEntrancePermit(FALSE);

  0001c	89 86 d0 01 00
	00		 mov	 DWORD PTR [esi+464], eax

; 731  : 
; 732  : 	if ( this->GetSuccessValue() == TRUE )

  00022	8b 86 d4 01 00
	00		 mov	 eax, DWORD PTR [esi+468]
  00028	83 c4 0c	 add	 esp, 12			; 0000000cH
  0002b	c7 46 0c ff ff
	ff ff		 mov	 DWORD PTR [esi+12], -1
  00032	c7 46 08 11 00
	00 00		 mov	 DWORD PTR [esi+8], 17	; 00000011H
  00039	83 f8 01	 cmp	 eax, 1
  0003c	75 07		 jne	 SHORT $LN2@SetState_E

; 733  : 	{
; 734  : 		KANTURU_UTIL.SendMsgKanturuBattleUser(lMsg.Get(MSGGET(13, 34)));

  0003e	68 22 0d 00 00	 push	 3362			; 00000d22H

; 735  : 	}
; 736  : 	else

  00043	eb 10		 jmp	 SHORT $LN17@SetState_E
$LN2@SetState_E:

; 737  : 	{
; 738  : 		KANTURU_UTIL.NotifyKanturuSuccessValue(this->GetSuccessValue());

  00045	50		 push	 eax
  00046	b9 00 00 00 00	 mov	 ecx, OFFSET _KANTURU_UTIL
  0004b	e8 00 00 00 00	 call	 ?NotifyKanturuSuccessValue@CKanturuUtil@@QAEXH@Z ; CKanturuUtil::NotifyKanturuSuccessValue

; 739  : 		KANTURU_UTIL.SendMsgKanturuBattleUser(lMsg.Get(MSGGET(13, 36)));

  00050	68 24 0d 00 00	 push	 3364			; 00000d24H
$LN17@SetState_E:
  00055	b9 00 00 00 00	 mov	 ecx, OFFSET ?lMsg@@3VCMsg@@A ; lMsg
  0005a	e8 00 00 00 00	 call	 ?Get@CMsg@@QAEPADH@Z	; CMsg::Get
  0005f	50		 push	 eax
  00060	68 00 00 00 00	 push	 OFFSET _KANTURU_UTIL
  00065	e8 00 00 00 00	 call	 ?SendMsgKanturuBattleUser@CKanturuUtil@@QAAXPADZZ ; CKanturuUtil::SendMsgKanturuBattleUser

; 740  : 	}
; 741  : 	
; 742  : 	LogAddC(5, "[ KANTURU ][ BattleOfMaya ] Success Value[%d]",
; 743  : 		this->GetSuccessValue());

  0006a	8b 8e d4 01 00
	00		 mov	 ecx, DWORD PTR [esi+468]
  00070	83 c4 08	 add	 esp, 8
  00073	51		 push	 ecx
  00074	68 00 00 00 00	 push	 OFFSET ??_C@_0CO@GIDLLKAC@?$FL?5KANTURU?5?$FN?$FL?5BattleOfMaya?5?$FN?5Succ@
  00079	6a 05		 push	 5
  0007b	ff 15 00 00 00
	00		 call	 DWORD PTR ?LogAddC@@3P6AXEPADZZA ; LogAddC
  00081	83 c4 0c	 add	 esp, 12			; 0000000cH
  00084	5e		 pop	 esi

; 744  : }

  00085	c3		 ret	 0
?SetState_END@CKanturuBattleOfMaya@@QAEXXZ ENDP		; CKanturuBattleOfMaya::SetState_END
_TEXT	ENDS
PUBLIC	??_C@_0DC@JILDKLPI@?$FL?5KANTURU?5?$FN?$FL?5BattleOfMaya?5?$FN?5Stat@ ; `string'
PUBLIC	?SetState_ENDCYCLE@CKanturuBattleOfMaya@@QAEXXZ	; CKanturuBattleOfMaya::SetState_ENDCYCLE
EXTRN	?MoveAllUser@CKanturuBattleUserMng@@QAEHH@Z:PROC ; CKanturuBattleUserMng::MoveAllUser
;	COMDAT ??_C@_0DC@JILDKLPI@?$FL?5KANTURU?5?$FN?$FL?5BattleOfMaya?5?$FN?5Stat@
; File e:\work\tranet_version\gs\gameserver\kanturubattleofmaya.h
CONST	SEGMENT
??_C@_0DC@JILDKLPI@?$FL?5KANTURU?5?$FN?$FL?5BattleOfMaya?5?$FN?5Stat@ DB '['
	DB	' KANTURU ][ BattleOfMaya ] State(%d) -> ENDCYCLE', 00H ; `string'
; Function compile flags: /Ogtp
; File e:\work\tranet_version\gs\gameserver\kanturubattleofmaya.cpp
CONST	ENDS
;	COMDAT ?SetState_ENDCYCLE@CKanturuBattleOfMaya@@QAEXXZ
_TEXT	SEGMENT
?SetState_ENDCYCLE@CKanturuBattleOfMaya@@QAEXXZ PROC	; CKanturuBattleOfMaya::SetState_ENDCYCLE, COMDAT
; _this$ = ecx

; 749  : {

  00000	56		 push	 esi
  00001	8b f1		 mov	 esi, ecx

; 750  : 	LogAddC(5, "[ KANTURU ][ BattleOfMaya ] State(%d) -> ENDCYCLE",
; 751  : 		this->m_iBattleOfMayaState);

  00003	8b 46 08	 mov	 eax, DWORD PTR [esi+8]
  00006	50		 push	 eax
  00007	68 00 00 00 00	 push	 OFFSET ??_C@_0DC@JILDKLPI@?$FL?5KANTURU?5?$FN?$FL?5BattleOfMaya?5?$FN?5Stat@
  0000c	6a 05		 push	 5
  0000e	ff 15 00 00 00
	00		 call	 DWORD PTR ?LogAddC@@3P6AXEPADZZA ; LogAddC

; 752  : 
; 753  : 	LogAddTD("[ KANTURU ][ BattleOfMaya ] State(%d) -> ENDCYCLE",
; 754  : 		this->m_iBattleOfMayaState);

  00014	8b 4e 08	 mov	 ecx, DWORD PTR [esi+8]
  00017	51		 push	 ecx
  00018	68 00 00 00 00	 push	 OFFSET ??_C@_0DC@JILDKLPI@?$FL?5KANTURU?5?$FN?$FL?5BattleOfMaya?5?$FN?5Stat@
  0001d	ff 15 00 00 00
	00		 call	 DWORD PTR ?LogAddTD@@3P6AXPADZZA ; LogAddTD
  00023	83 c4 14	 add	 esp, 20			; 00000014H

; 755  : 
; 756  : 	this->SetBattleOfMayaState(KANTURU_MAYA_ENDCYCLE);
; 757  : 	this->SetEntrancePermit(FALSE);
; 758  : 
; 759  : 	if ( this->GetSuccessValue() == FALSE )

  00026	83 be d4 01 00
	00 00		 cmp	 DWORD PTR [esi+468], 0
  0002d	c7 46 08 12 00
	00 00		 mov	 DWORD PTR [esi+8], 18	; 00000012H
  00034	c7 86 d0 01 00
	00 00 00 00 00	 mov	 DWORD PTR [esi+464], 0
  0003e	5e		 pop	 esi
  0003f	75 19		 jne	 SHORT $LN1@SetState_E@2

; 760  : 	{
; 761  : 		g_KanturuBattleUserMng.MoveAllUser(137);

  00041	68 89 00 00 00	 push	 137			; 00000089H
  00046	b9 00 00 00 00	 mov	 ecx, OFFSET ?g_KanturuBattleUserMng@@3VCKanturuBattleUserMng@@A ; g_KanturuBattleUserMng
  0004b	e8 00 00 00 00	 call	 ?MoveAllUser@CKanturuBattleUserMng@@QAEHH@Z ; CKanturuBattleUserMng::MoveAllUser

; 762  : 		g_KanturuBattleUserMng.ResetAllData();

  00050	b9 00 00 00 00	 mov	 ecx, OFFSET ?g_KanturuBattleUserMng@@3VCKanturuBattleUserMng@@A ; g_KanturuBattleUserMng
  00055	e9 00 00 00 00	 jmp	 ?ResetAllData@CKanturuBattleUserMng@@QAEXXZ ; CKanturuBattleUserMng::ResetAllData
$LN1@SetState_E@2:

; 763  : 	}
; 764  : }

  0005a	c3		 ret	 0
?SetState_ENDCYCLE@CKanturuBattleOfMaya@@QAEXXZ ENDP	; CKanturuBattleOfMaya::SetState_ENDCYCLE
_TEXT	ENDS
PUBLIC	?ProcState_NONE@CKanturuBattleOfMaya@@QAEXXZ	; CKanturuBattleOfMaya::ProcState_NONE
; Function compile flags: /Ogtp
;	COMDAT ?ProcState_NONE@CKanturuBattleOfMaya@@QAEXXZ
_TEXT	SEGMENT
?ProcState_NONE@CKanturuBattleOfMaya@@QAEXXZ PROC	; CKanturuBattleOfMaya::ProcState_NONE, COMDAT
; _this$ = ecx

; 771  : 	return;
; 772  : }

  00000	c3		 ret	 0
?ProcState_NONE@CKanturuBattleOfMaya@@QAEXXZ ENDP	; CKanturuBattleOfMaya::ProcState_NONE
_TEXT	ENDS
PUBLIC	?ProcState_STANBY1@CKanturuBattleOfMaya@@QAEXXZ	; CKanturuBattleOfMaya::ProcState_STANBY1
; Function compile flags: /Ogtp
;	COMDAT ?ProcState_STANBY1@CKanturuBattleOfMaya@@QAEXXZ
_TEXT	SEGMENT
?ProcState_STANBY1@CKanturuBattleOfMaya@@QAEXXZ PROC	; CKanturuBattleOfMaya::ProcState_STANBY1, COMDAT
; _this$ = ecx

; 777  : 	return;
; 778  : }

  00000	c3		 ret	 0
?ProcState_STANBY1@CKanturuBattleOfMaya@@QAEXXZ ENDP	; CKanturuBattleOfMaya::ProcState_STANBY1
_TEXT	ENDS
PUBLIC	?ProcState_NOTIFY1@CKanturuBattleOfMaya@@QAEXXZ	; CKanturuBattleOfMaya::ProcState_NOTIFY1
; Function compile flags: /Ogtp
;	COMDAT ?ProcState_NOTIFY1@CKanturuBattleOfMaya@@QAEXXZ
_TEXT	SEGMENT
?ProcState_NOTIFY1@CKanturuBattleOfMaya@@QAEXXZ PROC	; CKanturuBattleOfMaya::ProcState_NOTIFY1, COMDAT
; _this$ = ecx

; 783  : 	return;
; 784  : }

  00000	c3		 ret	 0
?ProcState_NOTIFY1@CKanturuBattleOfMaya@@QAEXXZ ENDP	; CKanturuBattleOfMaya::ProcState_NOTIFY1
_TEXT	ENDS
PUBLIC	?ProcState_END_MAYA1@CKanturuBattleOfMaya@@QAEXXZ ; CKanturuBattleOfMaya::ProcState_END_MAYA1
; Function compile flags: /Ogtp
;	COMDAT ?ProcState_END_MAYA1@CKanturuBattleOfMaya@@QAEXXZ
_TEXT	SEGMENT
?ProcState_END_MAYA1@CKanturuBattleOfMaya@@QAEXXZ PROC	; CKanturuBattleOfMaya::ProcState_END_MAYA1, COMDAT
; _this$ = ecx

; 852  : 	return;
; 853  : }

  00000	c3		 ret	 0
?ProcState_END_MAYA1@CKanturuBattleOfMaya@@QAEXXZ ENDP	; CKanturuBattleOfMaya::ProcState_END_MAYA1
_TEXT	ENDS
PUBLIC	?ProcState_ENDCYCLE_MAYA1@CKanturuBattleOfMaya@@QAEXXZ ; CKanturuBattleOfMaya::ProcState_ENDCYCLE_MAYA1
; Function compile flags: /Ogtp
;	COMDAT ?ProcState_ENDCYCLE_MAYA1@CKanturuBattleOfMaya@@QAEXXZ
_TEXT	SEGMENT
?ProcState_ENDCYCLE_MAYA1@CKanturuBattleOfMaya@@QAEXXZ PROC ; CKanturuBattleOfMaya::ProcState_ENDCYCLE_MAYA1, COMDAT
; _this$ = ecx

; 858  : 	return;
; 859  : }

  00000	c3		 ret	 0
?ProcState_ENDCYCLE_MAYA1@CKanturuBattleOfMaya@@QAEXXZ ENDP ; CKanturuBattleOfMaya::ProcState_ENDCYCLE_MAYA1
_TEXT	ENDS
PUBLIC	?ProcState_STANBY2@CKanturuBattleOfMaya@@QAEXXZ	; CKanturuBattleOfMaya::ProcState_STANBY2
; Function compile flags: /Ogtp
;	COMDAT ?ProcState_STANBY2@CKanturuBattleOfMaya@@QAEXXZ
_TEXT	SEGMENT
?ProcState_STANBY2@CKanturuBattleOfMaya@@QAEXXZ PROC	; CKanturuBattleOfMaya::ProcState_STANBY2, COMDAT
; _this$ = ecx

; 864  : 	return;
; 865  : }

  00000	c3		 ret	 0
?ProcState_STANBY2@CKanturuBattleOfMaya@@QAEXXZ ENDP	; CKanturuBattleOfMaya::ProcState_STANBY2
_TEXT	ENDS
PUBLIC	?ProcState_END_MAYA2@CKanturuBattleOfMaya@@QAEXXZ ; CKanturuBattleOfMaya::ProcState_END_MAYA2
; Function compile flags: /Ogtp
;	COMDAT ?ProcState_END_MAYA2@CKanturuBattleOfMaya@@QAEXXZ
_TEXT	SEGMENT
?ProcState_END_MAYA2@CKanturuBattleOfMaya@@QAEXXZ PROC	; CKanturuBattleOfMaya::ProcState_END_MAYA2, COMDAT
; _this$ = ecx

; 934  : 	return;
; 935  : }

  00000	c3		 ret	 0
?ProcState_END_MAYA2@CKanturuBattleOfMaya@@QAEXXZ ENDP	; CKanturuBattleOfMaya::ProcState_END_MAYA2
_TEXT	ENDS
PUBLIC	?ProcState_ENDCYCLE_MAYA2@CKanturuBattleOfMaya@@QAEXXZ ; CKanturuBattleOfMaya::ProcState_ENDCYCLE_MAYA2
; Function compile flags: /Ogtp
;	COMDAT ?ProcState_ENDCYCLE_MAYA2@CKanturuBattleOfMaya@@QAEXXZ
_TEXT	SEGMENT
?ProcState_ENDCYCLE_MAYA2@CKanturuBattleOfMaya@@QAEXXZ PROC ; CKanturuBattleOfMaya::ProcState_ENDCYCLE_MAYA2, COMDAT
; _this$ = ecx

; 940  : 	return;
; 941  : }

  00000	c3		 ret	 0
?ProcState_ENDCYCLE_MAYA2@CKanturuBattleOfMaya@@QAEXXZ ENDP ; CKanturuBattleOfMaya::ProcState_ENDCYCLE_MAYA2
_TEXT	ENDS
PUBLIC	?ProcState_STANBY3@CKanturuBattleOfMaya@@QAEXXZ	; CKanturuBattleOfMaya::ProcState_STANBY3
; Function compile flags: /Ogtp
;	COMDAT ?ProcState_STANBY3@CKanturuBattleOfMaya@@QAEXXZ
_TEXT	SEGMENT
?ProcState_STANBY3@CKanturuBattleOfMaya@@QAEXXZ PROC	; CKanturuBattleOfMaya::ProcState_STANBY3, COMDAT
; _this$ = ecx

; 946  : 	return;
; 947  : }

  00000	c3		 ret	 0
?ProcState_STANBY3@CKanturuBattleOfMaya@@QAEXXZ ENDP	; CKanturuBattleOfMaya::ProcState_STANBY3
_TEXT	ENDS
PUBLIC	?ProcState_END_MAYA3@CKanturuBattleOfMaya@@QAEXXZ ; CKanturuBattleOfMaya::ProcState_END_MAYA3
; Function compile flags: /Ogtp
;	COMDAT ?ProcState_END_MAYA3@CKanturuBattleOfMaya@@QAEXXZ
_TEXT	SEGMENT
?ProcState_END_MAYA3@CKanturuBattleOfMaya@@QAEXXZ PROC	; CKanturuBattleOfMaya::ProcState_END_MAYA3, COMDAT
; _this$ = ecx

; 1018 : 	return;
; 1019 : }

  00000	c3		 ret	 0
?ProcState_END_MAYA3@CKanturuBattleOfMaya@@QAEXXZ ENDP	; CKanturuBattleOfMaya::ProcState_END_MAYA3
_TEXT	ENDS
PUBLIC	?ProcState_ENDCYCLE_MAYA3@CKanturuBattleOfMaya@@QAEXXZ ; CKanturuBattleOfMaya::ProcState_ENDCYCLE_MAYA3
; Function compile flags: /Ogtp
;	COMDAT ?ProcState_ENDCYCLE_MAYA3@CKanturuBattleOfMaya@@QAEXXZ
_TEXT	SEGMENT
?ProcState_ENDCYCLE_MAYA3@CKanturuBattleOfMaya@@QAEXXZ PROC ; CKanturuBattleOfMaya::ProcState_ENDCYCLE_MAYA3, COMDAT
; _this$ = ecx

; 1024 : 	return;
; 1025 : }

  00000	c3		 ret	 0
?ProcState_ENDCYCLE_MAYA3@CKanturuBattleOfMaya@@QAEXXZ ENDP ; CKanturuBattleOfMaya::ProcState_ENDCYCLE_MAYA3
_TEXT	ENDS
PUBLIC	?ProcState_END@CKanturuBattleOfMaya@@QAEXXZ	; CKanturuBattleOfMaya::ProcState_END
; Function compile flags: /Ogtp
;	COMDAT ?ProcState_END@CKanturuBattleOfMaya@@QAEXXZ
_TEXT	SEGMENT
?ProcState_END@CKanturuBattleOfMaya@@QAEXXZ PROC	; CKanturuBattleOfMaya::ProcState_END, COMDAT
; _this$ = ecx

; 1030 : 	return;
; 1031 : }

  00000	c3		 ret	 0
?ProcState_END@CKanturuBattleOfMaya@@QAEXXZ ENDP	; CKanturuBattleOfMaya::ProcState_END
_TEXT	ENDS
PUBLIC	?ProcState_ENDCYCLE@CKanturuBattleOfMaya@@QAEXXZ ; CKanturuBattleOfMaya::ProcState_ENDCYCLE
; Function compile flags: /Ogtp
;	COMDAT ?ProcState_ENDCYCLE@CKanturuBattleOfMaya@@QAEXXZ
_TEXT	SEGMENT
?ProcState_ENDCYCLE@CKanturuBattleOfMaya@@QAEXXZ PROC	; CKanturuBattleOfMaya::ProcState_ENDCYCLE, COMDAT
; _this$ = ecx

; 1036 : 	return;
; 1037 : }

  00000	c3		 ret	 0
?ProcState_ENDCYCLE@CKanturuBattleOfMaya@@QAEXXZ ENDP	; CKanturuBattleOfMaya::ProcState_ENDCYCLE
_TEXT	ENDS
PUBLIC	?GetRemainTime@CKanturuBattleOfMaya@@QAEHXZ	; CKanturuBattleOfMaya::GetRemainTime
; Function compile flags: /Ogtp
;	COMDAT ?GetRemainTime@CKanturuBattleOfMaya@@QAEHXZ
_TEXT	SEGMENT
?GetRemainTime@CKanturuBattleOfMaya@@QAEHXZ PROC	; CKanturuBattleOfMaya::GetRemainTime, COMDAT
; _this$ = ecx

; 1087 : 	int iCurrentState = this->GetBattleOfMayaState();
; 1088 : 	return this->m_StateInfo[iCurrentState].GetRemainTime();

  00000	8b 41 08	 mov	 eax, DWORD PTR [ecx+8]
  00003	8d 44 80 14	 lea	 eax, DWORD PTR [eax+eax*4+20]
  00007	56		 push	 esi
  00008	8d 34 81	 lea	 esi, DWORD PTR [ecx+eax*4]
  0000b	33 c0		 xor	 eax, eax
  0000d	83 7e 08 01	 cmp	 DWORD PTR [esi+8], 1
  00011	75 2b		 jne	 SHORT $LN7@GetRemainT@2
  00013	57		 push	 edi
  00014	8b 7e 10	 mov	 edi, DWORD PTR [esi+16]
  00017	ff 15 00 00 00
	00		 call	 DWORD PTR __imp__GetTickCount@0
  0001d	8b 4e 0c	 mov	 ecx, DWORD PTR [esi+12]
  00020	2b c7		 sub	 eax, edi
  00022	2b c8		 sub	 ecx, eax
  00024	5f		 pop	 edi
  00025	85 c9		 test	 ecx, ecx
  00027	7f 04		 jg	 SHORT $LN5@GetRemainT@2
  00029	33 c0		 xor	 eax, eax
  0002b	5e		 pop	 esi

; 1089 : }

  0002c	c3		 ret	 0

; 1087 : 	int iCurrentState = this->GetBattleOfMayaState();
; 1088 : 	return this->m_StateInfo[iCurrentState].GetRemainTime();

$LN5@GetRemainT@2:
  0002d	b8 d3 4d 62 10	 mov	 eax, 274877907		; 10624dd3H
  00032	f7 e9		 imul	 ecx
  00034	c1 fa 06	 sar	 edx, 6
  00037	8b c2		 mov	 eax, edx
  00039	c1 e8 1f	 shr	 eax, 31			; 0000001fH
  0003c	03 c2		 add	 eax, edx
$LN7@GetRemainT@2:
  0003e	5e		 pop	 esi

; 1089 : }

  0003f	c3		 ret	 0
?GetRemainTime@CKanturuBattleOfMaya@@QAEHXZ ENDP	; CKanturuBattleOfMaya::GetRemainTime
_TEXT	ENDS
PUBLIC	?SetAIMonsterGroup@CKanturuBattleOfMaya@@QAEXH@Z ; CKanturuBattleOfMaya::SetAIMonsterGroup
EXTRN	?ChangeAIOrder@TMonsterAIGroup@@SAXHH@Z:PROC	; TMonsterAIGroup::ChangeAIOrder
EXTRN	?Init@TMonsterAIGroup@@SAXH@Z:PROC		; TMonsterAIGroup::Init
; Function compile flags: /Ogtp
;	COMDAT ?SetAIMonsterGroup@CKanturuBattleOfMaya@@QAEXH@Z
_TEXT	SEGMENT
_iGroupNumber$ = 8					; size = 4
?SetAIMonsterGroup@CKanturuBattleOfMaya@@QAEXH@Z PROC	; CKanturuBattleOfMaya::SetAIMonsterGroup, COMDAT
; _this$ = ecx

; 1118 : {

  00000	55		 push	 ebp
  00001	8b ec		 mov	 ebp, esp
  00003	56		 push	 esi
  00004	57		 push	 edi

; 1119 : 	TMonsterAIGroup::Init(iGroupNumber);

  00005	8b 7d 08	 mov	 edi, DWORD PTR _iGroupNumber$[ebp]
  00008	57		 push	 edi
  00009	8b f1		 mov	 esi, ecx
  0000b	e8 00 00 00 00	 call	 ?Init@TMonsterAIGroup@@SAXH@Z ; TMonsterAIGroup::Init

; 1120 : 	TMonsterAIGroup::ChangeAIOrder(iGroupNumber, 0);

  00010	6a 00		 push	 0
  00012	57		 push	 edi
  00013	e8 00 00 00 00	 call	 ?ChangeAIOrder@TMonsterAIGroup@@SAXHH@Z ; TMonsterAIGroup::ChangeAIOrder
  00018	83 c4 0c	 add	 esp, 12			; 0000000cH

; 1121 : 
; 1122 : 	this->m_iMayaHandAIAppliedTime = GetTickCount();

  0001b	ff 15 00 00 00
	00		 call	 DWORD PTR __imp__GetTickCount@0
  00021	5f		 pop	 edi
  00022	89 86 10 02 00
	00		 mov	 DWORD PTR [esi+528], eax
  00028	5e		 pop	 esi

; 1123 : }

  00029	5d		 pop	 ebp
  0002a	c2 04 00	 ret	 4
?SetAIMonsterGroup@CKanturuBattleOfMaya@@QAEXH@Z ENDP	; CKanturuBattleOfMaya::SetAIMonsterGroup
_TEXT	ENDS
PUBLIC	__real@00000000
PUBLIC	?ResetAIMonster@CKanturuBattleOfMaya@@QAEXXZ	; CKanturuBattleOfMaya::ResetAIMonster
EXTRN	?DelGroupInstance@TMonsterAIGroup@@SAHH@Z:PROC	; TMonsterAIGroup::DelGroupInstance
EXTRN	?gObj@@3PAUOBJECTSTRUCT@@A:DWORD		; gObj
;	COMDAT __real@00000000
CONST	SEGMENT
__real@00000000 DD 000000000r			; 0
; Function compile flags: /Ogtp
CONST	ENDS
;	COMDAT ?ResetAIMonster@CKanturuBattleOfMaya@@QAEXXZ
_TEXT	SEGMENT
?ResetAIMonster@CKanturuBattleOfMaya@@QAEXXZ PROC	; CKanturuBattleOfMaya::ResetAIMonster, COMDAT
; _this$ = ecx

; 1128 : 	if(this->m_iMayaLeftHandObjIndex != -1)//Season 4.5 addon

  00000	d9 ee		 fldz
  00002	53		 push	 ebx
  00003	56		 push	 esi
  00004	57		 push	 edi
  00005	8b f9		 mov	 edi, ecx
  00007	8b 87 f4 01 00
	00		 mov	 eax, DWORD PTR [edi+500]
  0000d	83 f8 ff	 cmp	 eax, -1
  00010	74 13		 je	 SHORT $LN5@ResetAIMon

; 1129 : 	{
; 1130 : 		gObj[this->m_iMayaLeftHandObjIndex].Life = 0;

  00012	8b 0d 00 00 00
	00		 mov	 ecx, DWORD PTR ?gObj@@3PAUOBJECTSTRUCT@@A ; gObj
  00018	69 c0 50 2b 00
	00		 imul	 eax, 11088		; 00002b50H
  0001e	d9 94 08 fc 00
	00 00		 fst	 DWORD PTR [eax+ecx+252]
$LN5@ResetAIMon:

; 1131 : 	}
; 1132 : 
; 1133 : 	if(this->m_iMayaRightHandObjIndex != -1)//Season 4.5 addon

  00025	8b 87 f8 01 00
	00		 mov	 eax, DWORD PTR [edi+504]
  0002b	83 f8 ff	 cmp	 eax, -1
  0002e	74 15		 je	 SHORT $LN14@ResetAIMon

; 1134 : 	{
; 1135 : 		gObj[this->m_iMayaRightHandObjIndex].Life = 0;

  00030	8b 15 00 00 00
	00		 mov	 edx, DWORD PTR ?gObj@@3PAUOBJECTSTRUCT@@A ; gObj
  00036	69 c0 50 2b 00
	00		 imul	 eax, 11088		; 00002b50H
  0003c	d9 9c 10 fc 00
	00 00		 fstp	 DWORD PTR [eax+edx+252]
  00043	eb 02		 jmp	 SHORT $LN4@ResetAIMon
$LN14@ResetAIMon:
  00045	dd d8		 fstp	 ST(0)
$LN4@ResetAIMon:

; 1136 : 	}
; 1137 : 
; 1138 : 	for ( int iCount=0;iCount < KANTURU_MAYA_AI_CHANGE_TIME ; iCount++)

  00047	8d b7 18 02 00
	00		 lea	 esi, DWORD PTR [edi+536]
  0004d	bb 04 00 00 00	 mov	 ebx, 4
$LL3@ResetAIMon:

; 1139 : 	{
; 1140 : 		TMonsterAIGroup::DelGroupInstance(this->m_iMayaHandGroupNumber[iCount]);

  00052	8b 06		 mov	 eax, DWORD PTR [esi]
  00054	50		 push	 eax
  00055	e8 00 00 00 00	 call	 ?DelGroupInstance@TMonsterAIGroup@@SAHH@Z ; TMonsterAIGroup::DelGroupInstance
  0005a	83 c4 04	 add	 esp, 4
  0005d	83 c6 04	 add	 esi, 4
  00060	4b		 dec	 ebx
  00061	75 ef		 jne	 SHORT $LL3@ResetAIMon

; 1141 : 	}
; 1142 : 
; 1143 : 	this->m_iMayaLeftHandObjIndex = -1;

  00063	83 c8 ff	 or	 eax, -1
  00066	89 87 f4 01 00
	00		 mov	 DWORD PTR [edi+500], eax

; 1144 : 	this->m_iMayaRightHandObjIndex = -1;

  0006c	89 87 f8 01 00
	00		 mov	 DWORD PTR [edi+504], eax

; 1145 : 	this->m_iMayaHandAIAppliedTime = 0;

  00072	33 c0		 xor	 eax, eax
  00074	89 87 10 02 00
	00		 mov	 DWORD PTR [edi+528], eax

; 1146 : 	this->m_iMayaHandCurrentAI = 0;

  0007a	89 87 14 02 00
	00		 mov	 DWORD PTR [edi+532], eax
  00080	5f		 pop	 edi
  00081	5e		 pop	 esi
  00082	5b		 pop	 ebx

; 1147 : }

  00083	c3		 ret	 0
?ResetAIMonster@CKanturuBattleOfMaya@@QAEXXZ ENDP	; CKanturuBattleOfMaya::ResetAIMonster
_TEXT	ENDS
PUBLIC	?ChangeAI@CKanturuBattleOfMaya@@QAEXH@Z		; CKanturuBattleOfMaya::ChangeAI
; Function compile flags: /Ogtp
;	COMDAT ?ChangeAI@CKanturuBattleOfMaya@@QAEXH@Z
_TEXT	SEGMENT
_iGroupNumber$ = 8					; size = 4
?ChangeAI@CKanturuBattleOfMaya@@QAEXH@Z PROC		; CKanturuBattleOfMaya::ChangeAI, COMDAT
; _this$ = ecx

; 1152 : {

  00000	55		 push	 ebp
  00001	8b ec		 mov	 ebp, esp
  00003	56		 push	 esi
  00004	57		 push	 edi

; 1153 : 	if ( (GetTickCount() - this->m_iMayaHandAIAppliedTime) >= this->m_iMayaHandAIChangeTime[this->m_iMayaHandCurrentAI] )

  00005	8b 3d 00 00 00
	00		 mov	 edi, DWORD PTR __imp__GetTickCount@0
  0000b	8b f1		 mov	 esi, ecx
  0000d	ff d7		 call	 edi
  0000f	2b 86 10 02 00
	00		 sub	 eax, DWORD PTR [esi+528]
  00015	8b 8e 14 02 00
	00		 mov	 ecx, DWORD PTR [esi+532]
  0001b	3b 84 8e fc 01
	00 00		 cmp	 eax, DWORD PTR [esi+ecx*4+508]
  00022	72 27		 jb	 SHORT $LN1@ChangeAI

; 1154 : 	{
; 1155 : 		this->m_iMayaHandAIAppliedTime = GetTickCount();

  00024	ff d7		 call	 edi
  00026	89 86 10 02 00
	00		 mov	 DWORD PTR [esi+528], eax

; 1156 : 
; 1157 : 		if ( this->m_iMayaHandCurrentAI != KANTURU_MAYA_GROUP_NUMBER )

  0002c	8b 86 14 02 00
	00		 mov	 eax, DWORD PTR [esi+532]
  00032	83 f8 03	 cmp	 eax, 3
  00035	74 14		 je	 SHORT $LN1@ChangeAI

; 1158 : 		{
; 1159 : 			this->m_iMayaHandCurrentAI++;
; 1160 : 			TMonsterAIGroup::ChangeAIOrder(iGroupNumber, this->m_iMayaHandCurrentAI);

  00037	8b 55 08	 mov	 edx, DWORD PTR _iGroupNumber$[ebp]
  0003a	40		 inc	 eax
  0003b	50		 push	 eax
  0003c	52		 push	 edx
  0003d	89 86 14 02 00
	00		 mov	 DWORD PTR [esi+532], eax
  00043	e8 00 00 00 00	 call	 ?ChangeAIOrder@TMonsterAIGroup@@SAXHH@Z ; TMonsterAIGroup::ChangeAIOrder
  00048	83 c4 08	 add	 esp, 8
$LN1@ChangeAI:
  0004b	5f		 pop	 edi
  0004c	5e		 pop	 esi

; 1161 : 		}
; 1162 : 	}
; 1163 : }

  0004d	5d		 pop	 ebp
  0004e	c2 04 00	 ret	 4
?ChangeAI@CKanturuBattleOfMaya@@QAEXH@Z ENDP		; CKanturuBattleOfMaya::ChangeAI
_TEXT	ENDS
PUBLIC	?ResetTimeInfo@CKanturuStateInfo@@QAEXXZ	; CKanturuStateInfo::ResetTimeInfo
; Function compile flags: /Ogtp
; File e:\work\tranet_version\gs\gameserver\kanturustateinfo.h
;	COMDAT ?ResetTimeInfo@CKanturuStateInfo@@QAEXXZ
_TEXT	SEGMENT
?ResetTimeInfo@CKanturuStateInfo@@QAEXXZ PROC		; CKanturuStateInfo::ResetTimeInfo, COMDAT
; _this$ = ecx

; 22   : 		this->SetStateInfo(0);

  00000	33 c0		 xor	 eax, eax
  00002	89 41 04	 mov	 DWORD PTR [ecx+4], eax

; 23   : 		this->SetCondition(0);

  00005	89 41 08	 mov	 DWORD PTR [ecx+8], eax

; 24   : 		this->SetValue(0);

  00008	89 41 0c	 mov	 DWORD PTR [ecx+12], eax

; 25   : 	}

  0000b	c3		 ret	 0
?ResetTimeInfo@CKanturuStateInfo@@QAEXXZ ENDP		; CKanturuStateInfo::ResetTimeInfo
_TEXT	ENDS
EXTRN	??3@YAXPAX@Z:PROC				; operator delete
; Function compile flags: /Ogtp
;	COMDAT ??_GCKanturuBattleOfMaya@@UAEPAXI@Z
_TEXT	SEGMENT
___flags$ = 8						; size = 4
??_GCKanturuBattleOfMaya@@UAEPAXI@Z PROC		; CKanturuBattleOfMaya::`scalar deleting destructor', COMDAT
; _this$ = ecx
  00000	55		 push	 ebp
  00001	8b ec		 mov	 ebp, esp
  00003	56		 push	 esi
  00004	8b f1		 mov	 esi, ecx
  00006	e8 00 00 00 00	 call	 ??1CKanturuBattleOfMaya@@UAE@XZ ; CKanturuBattleOfMaya::~CKanturuBattleOfMaya
  0000b	f6 45 08 01	 test	 BYTE PTR ___flags$[ebp], 1
  0000f	74 09		 je	 SHORT $LN4@scalar
  00011	56		 push	 esi
  00012	e8 00 00 00 00	 call	 ??3@YAXPAX@Z		; operator delete
  00017	83 c4 04	 add	 esp, 4
$LN4@scalar:
  0001a	8b c6		 mov	 eax, esi
  0001c	5e		 pop	 esi
  0001d	5d		 pop	 ebp
  0001e	c2 04 00	 ret	 4
??_GCKanturuBattleOfMaya@@UAEPAXI@Z ENDP		; CKanturuBattleOfMaya::`scalar deleting destructor'
_TEXT	ENDS
PUBLIC	?ResetAllData@CKanturuBattleOfMaya@@QAEXXZ	; CKanturuBattleOfMaya::ResetAllData
; Function compile flags: /Ogtp
; File e:\work\tranet_version\gs\gameserver\kanturubattleofmaya.cpp
;	COMDAT ?ResetAllData@CKanturuBattleOfMaya@@QAEXXZ
_TEXT	SEGMENT
?ResetAllData@CKanturuBattleOfMaya@@QAEXXZ PROC		; CKanturuBattleOfMaya::ResetAllData, COMDAT
; _this$ = ecx

; 58   : 	this->m_bFileDataLoad = FALSE;

  00000	33 d2		 xor	 edx, edx
  00002	89 51 04	 mov	 DWORD PTR [ecx+4], edx

; 59   : 
; 60   : 	for ( int iCount=0;iCount<KANTURU_MAYA_TIME_INFO;iCount++)
; 61   : 	{
; 62   : 		this->m_BattleTimeInfo[iCount].ResetTimeInfo();

  00005	89 51 14	 mov	 DWORD PTR [ecx+20], edx
  00008	89 51 18	 mov	 DWORD PTR [ecx+24], edx
  0000b	89 51 1c	 mov	 DWORD PTR [ecx+28], edx
  0000e	89 51 28	 mov	 DWORD PTR [ecx+40], edx
  00011	89 51 2c	 mov	 DWORD PTR [ecx+44], edx
  00014	89 51 30	 mov	 DWORD PTR [ecx+48], edx
  00017	89 51 3c	 mov	 DWORD PTR [ecx+60], edx
  0001a	56		 push	 esi
  0001b	89 51 40	 mov	 DWORD PTR [ecx+64], edx
  0001e	89 51 44	 mov	 DWORD PTR [ecx+68], edx
  00021	8d 41 58	 lea	 eax, DWORD PTR [ecx+88]
  00024	8d 72 13	 lea	 esi, DWORD PTR [edx+19]
$LL3@ResetAllDa:

; 63   : 	}
; 64   : 
; 65   : 	for (int iCount=0;iCount<KANTURU_MAYA_STATE_INFO;iCount++)
; 66   : 	{
; 67   : 		this->m_StateInfo[iCount].ResetTimeInfo();

  00027	89 50 fc	 mov	 DWORD PTR [eax-4], edx
  0002a	89 10		 mov	 DWORD PTR [eax], edx
  0002c	89 50 04	 mov	 DWORD PTR [eax+4], edx
  0002f	83 c0 14	 add	 eax, 20			; 00000014H
  00032	4e		 dec	 esi
  00033	75 f2		 jne	 SHORT $LL3@ResetAllDa

; 68   : 	}
; 69   : 
; 70   : 	this->m_StateInfoCount = 0;

  00035	89 91 cc 01 00
	00		 mov	 DWORD PTR [ecx+460], edx

; 71   : 	this->m_BattleTimeInfoCount = 0;

  0003b	89 51 4c	 mov	 DWORD PTR [ecx+76], edx

; 72   : 
; 73   : 	this->SetSuccessValue(FALSE);

  0003e	89 91 d4 01 00
	00		 mov	 DWORD PTR [ecx+468], edx

; 74   : 	this->SetSceneSuccessValue(FALSE);

  00044	89 91 d8 01 00
	00		 mov	 DWORD PTR [ecx+472], edx

; 75   : 	this->SetEntrancePermit(FALSE);

  0004a	89 91 d0 01 00
	00		 mov	 DWORD PTR [ecx+464], edx

; 76   : 
; 77   : 	this->m_iMayaHandAIChangeTimeCount = 0;

  00050	89 91 0c 02 00
	00		 mov	 DWORD PTR [ecx+524], edx

; 78   : 	this->m_iMayaHAndGroupNumberCount = 0;

  00056	89 91 24 02 00
	00		 mov	 DWORD PTR [ecx+548], edx

; 79   : 	this->m_iMayaIceStormUsingRate = 0;

  0005c	89 91 28 02 00
	00		 mov	 DWORD PTR [ecx+552], edx
  00062	5e		 pop	 esi

; 80   : }

  00063	c3		 ret	 0
?ResetAllData@CKanturuBattleOfMaya@@QAEXXZ ENDP		; CKanturuBattleOfMaya::ResetAllData
_TEXT	ENDS
PUBLIC	??_C@_0EA@GJKFHDBF@?$FL?5KANTURU?5?$FN?$FL?5BattleOfMaya?5?$FN?5?9?5Fi@ ; `string'
PUBLIC	??_C@_0EC@IDACLHLE@?$FL?5KANTURU?5?$FN?$FL?5BattleOfMaya?5?$FN?5?9?5Lo@ ; `string'
PUBLIC	??_C@_0DJ@DJFAMIGH@?$FL?5KANTURU?5?$FN?$FL?5BattleOfMaya?5?$FN?5IceS@ ; `string'
PUBLIC	??_C@_0EG@MJODBFHP@?$FL?5KANTURU?5?$FN?$FL?5BattleOfMaya?5?$FN?5?9?5Ma@ ; `string'
PUBLIC	??_C@_0EA@DAGPCMG@?$FL?5KANTURU?5?$FN?$FL?5BattleOfMaya?5?$FN?5?9?5Ma@ ; `string'
PUBLIC	??_C@_0EC@DMJEACFN@?$FL?5KANTURU?5?$FN?$FL?5BattleOfMaya?5?$FN?5?9?5Ex@ ; `string'
PUBLIC	??_C@_0DJ@NFMCCNGI@?$FL?5KANTURU?5?$FN?$FL?5BattleOfMaya?5?$FN?5?9?5Ex@ ; `string'
PUBLIC	??_C@_0DE@FILFCBGG@?$FL?5KANTURU?5?$FN?$FL?5BattleOfMaya?5?$FN?5?9?5Ex@ ; `string'
PUBLIC	??_C@_03JBJLGPFL@end?$AA@			; `string'
PUBLIC	??_C@_0CO@FIGOKMGP@?$FL?5KANTURU?5?$FN?$FL?5BattleOfMaya?5?$FN?5?$CFs?5f@ ; `string'
PUBLIC	??_C@_0CN@FHELGPON@?$FL?5KANTURU?5?$FN?$FL?5BattleOfMaya?5?$FN?5?9?5Ca@ ; `string'
PUBLIC	??_C@_01KDCPPGHE@r?$AA@				; `string'
PUBLIC	??_C@_00CNPNBAHC@?$AA@				; `string'
PUBLIC	?LoadData@CKanturuBattleOfMaya@@QAEHPAD@Z	; CKanturuBattleOfMaya::LoadData
EXTRN	_fclose:PROC
EXTRN	?MsgBox@@YAXPADZZ:PROC				; MsgBox
EXTRN	_fopen:PROC
EXTRN	__ftol2_sse:PROC
;	COMDAT ??_C@_0EA@GJKFHDBF@?$FL?5KANTURU?5?$FN?$FL?5BattleOfMaya?5?$FN?5?9?5Fi@
; File e:\work\tranet_version\gs\gameserver\kanturustateinfo.h
CONST	SEGMENT
??_C@_0EA@GJKFHDBF@?$FL?5KANTURU?5?$FN?$FL?5BattleOfMaya?5?$FN?5?9?5Fi@ DB '['
	DB	' KANTURU ][ BattleOfMaya ] - File load error : File Name Erro'
	DB	'r', 00H					; `string'
CONST	ENDS
;	COMDAT ??_C@_0EC@IDACLHLE@?$FL?5KANTURU?5?$FN?$FL?5BattleOfMaya?5?$FN?5?9?5Lo@
CONST	SEGMENT
??_C@_0EC@IDACLHLE@?$FL?5KANTURU?5?$FN?$FL?5BattleOfMaya?5?$FN?5?9?5Lo@ DB '['
	DB	' KANTURU ][ BattleOfMaya ] - Loading Exception Error (%s) Fil'
	DB	'e. ', 00H					; `string'
CONST	ENDS
;	COMDAT ??_C@_0DJ@DJFAMIGH@?$FL?5KANTURU?5?$FN?$FL?5BattleOfMaya?5?$FN?5IceS@
CONST	SEGMENT
??_C@_0DJ@DJFAMIGH@?$FL?5KANTURU?5?$FN?$FL?5BattleOfMaya?5?$FN?5IceS@ DB '['
	DB	' KANTURU ][ BattleOfMaya ] IceStorm Using Rate Load: %d', 00H ; `string'
CONST	ENDS
;	COMDAT ??_C@_0EG@MJODBFHP@?$FL?5KANTURU?5?$FN?$FL?5BattleOfMaya?5?$FN?5?9?5Ma@
CONST	SEGMENT
??_C@_0EG@MJODBFHP@?$FL?5KANTURU?5?$FN?$FL?5BattleOfMaya?5?$FN?5?9?5Ma@ DB '['
	DB	' KANTURU ][ BattleOfMaya ] - Maya IceStorm Using Rate Load Er'
	DB	'ror(%d)', 00H				; `string'
CONST	ENDS
;	COMDAT ??_C@_0EA@DAGPCMG@?$FL?5KANTURU?5?$FN?$FL?5BattleOfMaya?5?$FN?5?9?5Ma@
CONST	SEGMENT
??_C@_0EA@DAGPCMG@?$FL?5KANTURU?5?$FN?$FL?5BattleOfMaya?5?$FN?5?9?5Ma@ DB '['
	DB	' KANTURU ][ BattleOfMaya ] - Maya Hand AI Group Read Error(%d'
	DB	')', 00H					; `string'
CONST	ENDS
;	COMDAT ??_C@_0EC@DMJEACFN@?$FL?5KANTURU?5?$FN?$FL?5BattleOfMaya?5?$FN?5?9?5Ex@
CONST	SEGMENT
??_C@_0EC@DMJEACFN@?$FL?5KANTURU?5?$FN?$FL?5BattleOfMaya?5?$FN?5?9?5Ex@ DB '['
	DB	' KANTURU ][ BattleOfMaya ] - Exceed Maya Hand AI Change Time('
	DB	'%d)', 00H					; `string'
CONST	ENDS
;	COMDAT ??_C@_0DJ@NFMCCNGI@?$FL?5KANTURU?5?$FN?$FL?5BattleOfMaya?5?$FN?5?9?5Ex@
CONST	SEGMENT
??_C@_0DJ@NFMCCNGI@?$FL?5KANTURU?5?$FN?$FL?5BattleOfMaya?5?$FN?5?9?5Ex@ DB '['
	DB	' KANTURU ][ BattleOfMaya ] - Exceed Max State Time (%d)', 00H ; `string'
CONST	ENDS
;	COMDAT ??_C@_0DE@FILFCBGG@?$FL?5KANTURU?5?$FN?$FL?5BattleOfMaya?5?$FN?5?9?5Ex@
CONST	SEGMENT
??_C@_0DE@FILFCBGG@?$FL?5KANTURU?5?$FN?$FL?5BattleOfMaya?5?$FN?5?9?5Ex@ DB '['
	DB	' KANTURU ][ BattleOfMaya ] - Exceed Max Scene (%d)', 00H ; `string'
CONST	ENDS
;	COMDAT ??_C@_03JBJLGPFL@end?$AA@
CONST	SEGMENT
??_C@_03JBJLGPFL@end?$AA@ DB 'end', 00H			; `string'
CONST	ENDS
;	COMDAT ??_C@_0CO@FIGOKMGP@?$FL?5KANTURU?5?$FN?$FL?5BattleOfMaya?5?$FN?5?$CFs?5f@
CONST	SEGMENT
??_C@_0CO@FIGOKMGP@?$FL?5KANTURU?5?$FN?$FL?5BattleOfMaya?5?$FN?5?$CFs?5f@ DB '['
	DB	' KANTURU ][ BattleOfMaya ] %s file is Loaded', 00H ; `string'
CONST	ENDS
;	COMDAT ??_C@_0CN@FHELGPON@?$FL?5KANTURU?5?$FN?$FL?5BattleOfMaya?5?$FN?5?9?5Ca@
CONST	SEGMENT
??_C@_0CN@FHELGPON@?$FL?5KANTURU?5?$FN?$FL?5BattleOfMaya?5?$FN?5?9?5Ca@ DB '['
	DB	' KANTURU ][ BattleOfMaya ] - Can''t Open %s ', 00H ; `string'
CONST	ENDS
;	COMDAT ??_C@_01KDCPPGHE@r?$AA@
CONST	SEGMENT
??_C@_01KDCPPGHE@r?$AA@ DB 'r', 00H			; `string'
CONST	ENDS
;	COMDAT ??_C@_00CNPNBAHC@?$AA@
CONST	SEGMENT
??_C@_00CNPNBAHC@?$AA@ DB 00H				; `string'
CONST	ENDS
;	COMDAT xdata$x
xdata$x	SEGMENT
__catchsym$?LoadData@CKanturuBattleOfMaya@@QAEHPAD@Z$2 DD 040H
	DD	00H
	DD	00H
	DD	FLAT:__catch$?LoadData@CKanturuBattleOfMaya@@QAEHPAD@Z$0
__unwindtable$?LoadData@CKanturuBattleOfMaya@@QAEHPAD@Z DD 0ffffffffH
	DD	00H
	DD	0ffffffffH
	DD	00H
__tryblocktable$?LoadData@CKanturuBattleOfMaya@@QAEHPAD@Z DD 00H
	DD	00H
	DD	01H
	DD	01H
	DD	FLAT:__catchsym$?LoadData@CKanturuBattleOfMaya@@QAEHPAD@Z$2
__ehfuncinfo$?LoadData@CKanturuBattleOfMaya@@QAEHPAD@Z DD 019930522H
	DD	02H
	DD	FLAT:__unwindtable$?LoadData@CKanturuBattleOfMaya@@QAEHPAD@Z
	DD	01H
	DD	FLAT:__tryblocktable$?LoadData@CKanturuBattleOfMaya@@QAEHPAD@Z
	DD	2 DUP(00H)
	DD	00H
	DD	01H
; Function compile flags: /Ogtp
; File e:\work\tranet_version\gs\gameserver\kanturubattleofmaya.cpp
xdata$x	ENDS
;	COMDAT ?LoadData@CKanturuBattleOfMaya@@QAEHPAD@Z
_TEXT	SEGMENT
_this$ = -24						; size = 4
_iType$209967 = -20					; size = 4
__$EHRec$ = -16						; size = 16
_lpszFileName$ = 8					; size = 4
?LoadData@CKanturuBattleOfMaya@@QAEHPAD@Z PROC		; CKanturuBattleOfMaya::LoadData, COMDAT
; _this$ = ecx

; 84   : {

  00000	55		 push	 ebp
  00001	8b ec		 mov	 ebp, esp
  00003	6a ff		 push	 -1
  00005	68 00 00 00 00	 push	 __ehhandler$?LoadData@CKanturuBattleOfMaya@@QAEHPAD@Z
  0000a	64 a1 00 00 00
	00		 mov	 eax, DWORD PTR fs:0
  00010	50		 push	 eax
  00011	83 ec 0c	 sub	 esp, 12			; 0000000cH
  00014	53		 push	 ebx
  00015	56		 push	 esi
  00016	57		 push	 edi
  00017	a1 00 00 00 00	 mov	 eax, DWORD PTR ___security_cookie
  0001c	33 c5		 xor	 eax, ebp
  0001e	50		 push	 eax
  0001f	8d 45 f4	 lea	 eax, DWORD PTR __$EHRec$[ebp+4]
  00022	64 a3 00 00 00
	00		 mov	 DWORD PTR fs:0, eax
  00028	89 65 f0	 mov	 DWORD PTR __$EHRec$[ebp], esp
  0002b	8b d9		 mov	 ebx, ecx
  0002d	89 5d e8	 mov	 DWORD PTR _this$[ebp], ebx

; 85   : 	this->m_bFileDataLoad = FALSE;
; 86   : 
; 87   : 	if ( !lpszFileName || !strcmp(lpszFileName , "") )

  00030	8b 75 08	 mov	 esi, DWORD PTR _lpszFileName$[ebp]
  00033	33 ff		 xor	 edi, edi
  00035	89 7b 04	 mov	 DWORD PTR [ebx+4], edi
  00038	3b f7		 cmp	 esi, edi
  0003a	0f 84 12 04 00
	00		 je	 $LN35@LoadData
  00040	b9 00 00 00 00	 mov	 ecx, OFFSET ??_C@_00CNPNBAHC@?$AA@
  00045	8b c6		 mov	 eax, esi
$LL59@LoadData:
  00047	8a 10		 mov	 dl, BYTE PTR [eax]
  00049	3a 11		 cmp	 dl, BYTE PTR [ecx]
  0004b	75 1a		 jne	 SHORT $LN60@LoadData
  0004d	84 d2		 test	 dl, dl
  0004f	74 12		 je	 SHORT $LN61@LoadData
  00051	8a 50 01	 mov	 dl, BYTE PTR [eax+1]
  00054	3a 51 01	 cmp	 dl, BYTE PTR [ecx+1]
  00057	75 0e		 jne	 SHORT $LN60@LoadData
  00059	83 c0 02	 add	 eax, 2
  0005c	83 c1 02	 add	 ecx, 2
  0005f	84 d2		 test	 dl, dl
  00061	75 e4		 jne	 SHORT $LL59@LoadData
$LN61@LoadData:
  00063	33 c0		 xor	 eax, eax
  00065	eb 05		 jmp	 SHORT $LN62@LoadData
$LN60@LoadData:
  00067	1b c0		 sbb	 eax, eax
  00069	83 d8 ff	 sbb	 eax, -1
$LN62@LoadData:
  0006c	3b c7		 cmp	 eax, edi
  0006e	0f 84 de 03 00
	00		 je	 $LN35@LoadData

; 91   : 	}
; 92   : 
; 93   : 	try
; 94   : 	{
; 95   : 		enum SMDToken Token;
; 96   : 		SMDFile = fopen(lpszFileName, "r");

  00074	68 00 00 00 00	 push	 OFFSET ??_C@_01KDCPPGHE@r?$AA@
  00079	56		 push	 esi
  0007a	89 7d fc	 mov	 DWORD PTR __$EHRec$[ebp+12], edi
  0007d	e8 00 00 00 00	 call	 _fopen
  00082	83 c4 08	 add	 esp, 8
  00085	a3 00 00 00 00	 mov	 DWORD PTR _SMDFile, eax

; 97   : 
; 98   : 		if ( SMDFile == NULL )

  0008a	3b c7		 cmp	 eax, edi
  0008c	75 13		 jne	 SHORT $LN33@LoadData

; 99   : 		{
; 100  : 			MsgBox("[ KANTURU ][ BattleOfMaya ] - Can't Open %s ", lpszFileName);

  0008e	56		 push	 esi
  0008f	68 00 00 00 00	 push	 OFFSET ??_C@_0CN@FHELGPON@?$FL?5KANTURU?5?$FN?$FL?5BattleOfMaya?5?$FN?5?9?5Ca@
  00094	e8 00 00 00 00	 call	 ?MsgBox@@YAXPADZZ	; MsgBox
  00099	83 c4 08	 add	 esp, 8

; 101  : 			return FALSE;

  0009c	e9 be 03 00 00	 jmp	 $LN89@LoadData
$LN33@LoadData:

; 102  : 		}
; 103  : 
; 104  : 		this->ResetAllData();

  000a1	8b cb		 mov	 ecx, ebx
  000a3	e8 00 00 00 00	 call	 ?ResetAllData@CKanturuBattleOfMaya@@QAEXXZ ; CKanturuBattleOfMaya::ResetAllData
$LL32@LoadData:

; 105  : 	
; 106  : 		int iType = -1;
; 107  : 		int iState = 0;
; 108  : 		int iCondition = 0;
; 109  : 		int iValue = 0;
; 110  : 
; 111  : 		while ( true )
; 112  : 		{
; 113  : 			Token = GetToken();

  000a8	e8 00 00 00 00	 call	 ?GetToken@@YA?AW4SMDToken@@XZ ; GetToken

; 114  : 			
; 115  : 			if ( Token == END )

  000ad	83 f8 02	 cmp	 eax, 2
  000b0	75 3d		 jne	 SHORT $LN30@LoadData

; 293  : 
; 294  : 		fclose(SMDFile);

  000b2	a1 00 00 00 00	 mov	 eax, DWORD PTR _SMDFile
  000b7	50		 push	 eax
  000b8	e8 00 00 00 00	 call	 _fclose

; 295  : 		LogAddC(2, "[ KANTURU ][ BattleOfMaya ] %s file is Loaded",
; 296  : 			lpszFileName);

  000bd	8b 4d 08	 mov	 ecx, DWORD PTR _lpszFileName$[ebp]
  000c0	51		 push	 ecx
  000c1	68 00 00 00 00	 push	 OFFSET ??_C@_0CO@FIGOKMGP@?$FL?5KANTURU?5?$FN?$FL?5BattleOfMaya?5?$FN?5?$CFs?5f@
  000c6	6a 02		 push	 2
  000c8	ff 15 00 00 00
	00		 call	 DWORD PTR ?LogAddC@@3P6AXEPADZZA ; LogAddC

; 297  : 
; 298  : 		this->m_bFileDataLoad = TRUE;

  000ce	c7 43 04 01 00
	00 00		 mov	 DWORD PTR [ebx+4], 1

; 304  : 
; 305  : 	return this->m_bFileDataLoad;

  000d5	8b 43 04	 mov	 eax, DWORD PTR [ebx+4]
  000d8	83 c4 10	 add	 esp, 16			; 00000010H

; 306  : }

  000db	8b 4d f4	 mov	 ecx, DWORD PTR __$EHRec$[ebp+4]
  000de	64 89 0d 00 00
	00 00		 mov	 DWORD PTR fs:0, ecx
  000e5	59		 pop	 ecx
  000e6	5f		 pop	 edi
  000e7	5e		 pop	 esi
  000e8	5b		 pop	 ebx
  000e9	8b e5		 mov	 esp, ebp
  000eb	5d		 pop	 ebp
  000ec	c2 04 00	 ret	 4
$LN30@LoadData:

; 116  : 			{
; 117  : 				break;
; 118  : 			}
; 119  : 
; 120  : 			iType = (int)TokenNumber;

  000ef	d9 05 00 00 00
	00		 fld	 DWORD PTR _TokenNumber
  000f5	e8 00 00 00 00	 call	 __ftol2_sse
  000fa	8b f0		 mov	 esi, eax
  000fc	89 75 ec	 mov	 DWORD PTR _iType$209967[ebp], esi
  000ff	90		 npad	 1
$LL29@LoadData:

; 121  : 
; 122  : 			while ( true )
; 123  : 			{
; 124  : 				if ( iType == 2 )
; 125  : 				{
; 126  : 					iState = 0;
; 127  : 					iCondition = 0;
; 128  : 					iValue = 0;
; 129  : 
; 130  : 					Token = GetToken();

  00100	e8 00 00 00 00	 call	 ?GetToken@@YA?AW4SMDToken@@XZ ; GetToken

; 131  : 
; 132  : 					if ( !strcmp("end", TokenString))

  00105	b9 00 00 00 00	 mov	 ecx, OFFSET _TokenString
  0010a	b8 00 00 00 00	 mov	 eax, OFFSET ??_C@_03JBJLGPFL@end?$AA@
  0010f	83 fe 02	 cmp	 esi, 2
  00112	0f 85 ac 00 00
	00		 jne	 $LN27@LoadData
$LL63@LoadData:
  00118	8a 10		 mov	 dl, BYTE PTR [eax]
  0011a	3a 11		 cmp	 dl, BYTE PTR [ecx]
  0011c	75 1a		 jne	 SHORT $LN64@LoadData
  0011e	84 d2		 test	 dl, dl
  00120	74 12		 je	 SHORT $LN65@LoadData
  00122	8a 50 01	 mov	 dl, BYTE PTR [eax+1]
  00125	3a 51 01	 cmp	 dl, BYTE PTR [ecx+1]
  00128	75 0e		 jne	 SHORT $LN64@LoadData
  0012a	83 c0 02	 add	 eax, 2
  0012d	83 c1 02	 add	 ecx, 2
  00130	84 d2		 test	 dl, dl
  00132	75 e4		 jne	 SHORT $LL63@LoadData
$LN65@LoadData:
  00134	33 c0		 xor	 eax, eax
  00136	eb 05		 jmp	 SHORT $LN66@LoadData
$LN64@LoadData:
  00138	1b c0		 sbb	 eax, eax
  0013a	83 d8 ff	 sbb	 eax, -1
$LN66@LoadData:
  0013d	85 c0		 test	 eax, eax
  0013f	0f 84 63 ff ff
	ff		 je	 $LL32@LoadData

; 133  : 					{
; 134  : 						break;
; 135  : 					}
; 136  : 
; 137  : 					iState = (int)TokenNumber;

  00145	d9 05 00 00 00
	00		 fld	 DWORD PTR _TokenNumber
  0014b	e8 00 00 00 00	 call	 __ftol2_sse
  00150	8b f8		 mov	 edi, eax

; 138  : 
; 139  : 					Token = GetToken();

  00152	e8 00 00 00 00	 call	 ?GetToken@@YA?AW4SMDToken@@XZ ; GetToken

; 140  : 					iCondition = (int)TokenNumber;

  00157	d9 05 00 00 00
	00		 fld	 DWORD PTR _TokenNumber
  0015d	e8 00 00 00 00	 call	 __ftol2_sse
  00162	8b f0		 mov	 esi, eax

; 141  : 
; 142  : 					Token = GetToken();

  00164	e8 00 00 00 00	 call	 ?GetToken@@YA?AW4SMDToken@@XZ ; GetToken

; 143  : 					iValue = (int)TokenNumber;

  00169	d9 05 00 00 00
	00		 fld	 DWORD PTR _TokenNumber
  0016f	e8 00 00 00 00	 call	 __ftol2_sse

; 144  : 
; 145  : 					if ( this->m_BattleTimeInfoCount < 0 ||
; 146  : 						 this->m_BattleTimeInfoCount >= KANTURU_MAYA_TIME_INFO )

  00174	8b 4b 4c	 mov	 ecx, DWORD PTR [ebx+76]
  00177	85 c9		 test	 ecx, ecx
  00179	78 36		 js	 SHORT $LN24@LoadData
  0017b	83 f9 03	 cmp	 ecx, 3
  0017e	7d 31		 jge	 SHORT $LN24@LoadData

; 152  : 					}
; 153  : 
; 154  : 					this->m_BattleTimeInfo[this->m_BattleTimeInfoCount].SetStateInfo(iState);

  00180	8d 54 89 05	 lea	 edx, DWORD PTR [ecx+ecx*4+5]
  00184	89 3c 93	 mov	 DWORD PTR [ebx+edx*4], edi

; 155  : 					this->m_BattleTimeInfo[this->m_BattleTimeInfoCount].SetCondition(iCondition);

  00187	8b 4b 4c	 mov	 ecx, DWORD PTR [ebx+76]
  0018a	8d 0c 89	 lea	 ecx, DWORD PTR [ecx+ecx*4]
  0018d	89 74 8b 18	 mov	 DWORD PTR [ebx+ecx*4+24], esi

; 156  : 
; 157  : 					if ( iCondition == 1 )

  00191	83 fe 01	 cmp	 esi, 1
  00194	75 06		 jne	 SHORT $LN23@LoadData

; 158  : 					{
; 159  : 						iValue *= 1000;

  00196	69 c0 e8 03 00
	00		 imul	 eax, 1000		; 000003e8H
$LN23@LoadData:

; 160  : 					}
; 161  : 
; 162  : 					this->m_BattleTimeInfo[this->m_BattleTimeInfoCount].SetValue(iValue);

  0019c	8b 4b 4c	 mov	 ecx, DWORD PTR [ebx+76]

; 163  : 					this->m_BattleTimeInfoCount++;

  0019f	8b 75 ec	 mov	 esi, DWORD PTR _iType$209967[ebp]
  001a2	8d 14 89	 lea	 edx, DWORD PTR [ecx+ecx*4]
  001a5	89 44 93 1c	 mov	 DWORD PTR [ebx+edx*4+28], eax
  001a9	ff 43 4c	 inc	 DWORD PTR [ebx+76]
  001ac	e9 4f ff ff ff	 jmp	 $LL29@LoadData
$LN24@LoadData:

; 147  : 					{
; 148  : 						MsgBox("[ KANTURU ][ BattleOfMaya ] - Exceed Max Scene (%d)",
; 149  : 							this->m_BattleTimeInfoCount);

  001b1	51		 push	 ecx
  001b2	68 00 00 00 00	 push	 OFFSET ??_C@_0DE@FILFCBGG@?$FL?5KANTURU?5?$FN?$FL?5BattleOfMaya?5?$FN?5?9?5Ex@
  001b7	e8 00 00 00 00	 call	 ?MsgBox@@YAXPADZZ	; MsgBox
  001bc	83 c4 08	 add	 esp, 8

; 150  : 
; 151  : 						break;

  001bf	e9 e4 fe ff ff	 jmp	 $LL32@LoadData
$LN27@LoadData:

; 164  : 				}
; 165  : 				else if ( iType == 3 )

  001c4	83 fe 03	 cmp	 esi, 3
  001c7	0f 85 bb 00 00
	00		 jne	 $LN21@LoadData
  001cd	8d 49 00	 npad	 3
$LL67@LoadData:

; 166  : 				{
; 167  : 					iState = 0;
; 168  : 					iCondition = 0;
; 169  : 					iValue = 0;
; 170  : 
; 171  : 					Token = GetToken();
; 172  : 
; 173  : 					if ( !strcmp("end", TokenString))

  001d0	8a 10		 mov	 dl, BYTE PTR [eax]
  001d2	3a 11		 cmp	 dl, BYTE PTR [ecx]
  001d4	75 1a		 jne	 SHORT $LN68@LoadData
  001d6	84 d2		 test	 dl, dl
  001d8	74 12		 je	 SHORT $LN69@LoadData
  001da	8a 50 01	 mov	 dl, BYTE PTR [eax+1]
  001dd	3a 51 01	 cmp	 dl, BYTE PTR [ecx+1]
  001e0	75 0e		 jne	 SHORT $LN68@LoadData
  001e2	83 c0 02	 add	 eax, 2
  001e5	83 c1 02	 add	 ecx, 2
  001e8	84 d2		 test	 dl, dl
  001ea	75 e4		 jne	 SHORT $LL67@LoadData
$LN69@LoadData:
  001ec	33 c0		 xor	 eax, eax
  001ee	eb 05		 jmp	 SHORT $LN70@LoadData
$LN68@LoadData:
  001f0	1b c0		 sbb	 eax, eax
  001f2	83 d8 ff	 sbb	 eax, -1
$LN70@LoadData:
  001f5	85 c0		 test	 eax, eax
  001f7	0f 84 ab fe ff
	ff		 je	 $LL32@LoadData

; 174  : 					{
; 175  : 						break;
; 176  : 					}
; 177  : 
; 178  : 					iState = (int)TokenNumber;

  001fd	d9 05 00 00 00
	00		 fld	 DWORD PTR _TokenNumber
  00203	e8 00 00 00 00	 call	 __ftol2_sse
  00208	8b f8		 mov	 edi, eax

; 179  : 
; 180  : 					Token = GetToken();

  0020a	e8 00 00 00 00	 call	 ?GetToken@@YA?AW4SMDToken@@XZ ; GetToken

; 181  : 					iCondition = (int)TokenNumber;

  0020f	d9 05 00 00 00
	00		 fld	 DWORD PTR _TokenNumber
  00215	e8 00 00 00 00	 call	 __ftol2_sse
  0021a	8b f0		 mov	 esi, eax

; 182  : 
; 183  : 					Token = GetToken();

  0021c	e8 00 00 00 00	 call	 ?GetToken@@YA?AW4SMDToken@@XZ ; GetToken

; 184  : 					iValue = (int)TokenNumber;

  00221	d9 05 00 00 00
	00		 fld	 DWORD PTR _TokenNumber
  00227	e8 00 00 00 00	 call	 __ftol2_sse

; 185  : 
; 186  : 					if ( this->m_StateInfoCount < 0 ||
; 187  : 						 this->m_StateInfoCount >= KANTURU_MAYA_STATE_INFO )

  0022c	8b 8b cc 01 00
	00		 mov	 ecx, DWORD PTR [ebx+460]
  00232	85 c9		 test	 ecx, ecx
  00234	78 3f		 js	 SHORT $LN18@LoadData
  00236	83 f9 13	 cmp	 ecx, 19			; 00000013H
  00239	7d 3a		 jge	 SHORT $LN18@LoadData
  0023b	8d 0c 89	 lea	 ecx, DWORD PTR [ecx+ecx*4]

; 193  : 					}
; 194  : 
; 195  : 					this->m_StateInfo[this->m_StateInfoCount].SetStateInfo(iState);

  0023e	89 7c 8b 54	 mov	 DWORD PTR [ebx+ecx*4+84], edi
  00242	8b 8b cc 01 00
	00		 mov	 ecx, DWORD PTR [ebx+460]
  00248	8d 14 89	 lea	 edx, DWORD PTR [ecx+ecx*4]

; 196  : 					this->m_StateInfo[this->m_StateInfoCount].SetCondition(iCondition);

  0024b	89 74 93 58	 mov	 DWORD PTR [ebx+edx*4+88], esi

; 197  : 
; 198  : 					if ( iCondition == 1 )

  0024f	83 fe 01	 cmp	 esi, 1
  00252	75 06		 jne	 SHORT $LN17@LoadData

; 199  : 					{
; 200  : 						iValue *= 1000;

  00254	69 c0 e8 03 00
	00		 imul	 eax, 1000		; 000003e8H
$LN17@LoadData:
  0025a	8b 8b cc 01 00
	00		 mov	 ecx, DWORD PTR [ebx+460]

; 201  : 					}
; 202  : 
; 203  : 					this->m_StateInfo[this->m_StateInfoCount].SetValue(iValue);
; 204  : 					this->m_StateInfoCount++;

  00260	8b 75 ec	 mov	 esi, DWORD PTR _iType$209967[ebp]
  00263	8d 0c 89	 lea	 ecx, DWORD PTR [ecx+ecx*4]
  00266	89 44 8b 5c	 mov	 DWORD PTR [ebx+ecx*4+92], eax
  0026a	ff 83 cc 01 00
	00		 inc	 DWORD PTR [ebx+460]
  00270	e9 8b fe ff ff	 jmp	 $LL29@LoadData
$LN18@LoadData:

; 188  : 					{
; 189  : 						MsgBox("[ KANTURU ][ BattleOfMaya ] - Exceed Max State Time (%d)",
; 190  : 							this->m_StateInfoCount);

  00275	51		 push	 ecx
  00276	68 00 00 00 00	 push	 OFFSET ??_C@_0DJ@NFMCCNGI@?$FL?5KANTURU?5?$FN?$FL?5BattleOfMaya?5?$FN?5?9?5Ex@
  0027b	e8 00 00 00 00	 call	 ?MsgBox@@YAXPADZZ	; MsgBox
  00280	83 c4 08	 add	 esp, 8

; 191  : 
; 192  : 						break;

  00283	e9 20 fe ff ff	 jmp	 $LL32@LoadData
$LN21@LoadData:

; 205  : 				}
; 206  : 				else if ( iType == 4 )

  00288	83 fe 04	 cmp	 esi, 4
  0028b	75 7b		 jne	 SHORT $LN15@LoadData
  0028d	8d 49 00	 npad	 3
$LL71@LoadData:

; 207  : 				{
; 208  : 					int iValue = 0;
; 209  : 
; 210  : 					Token = GetToken();
; 211  : 
; 212  : 					if ( !strcmp("end", TokenString))

  00290	8a 10		 mov	 dl, BYTE PTR [eax]
  00292	3a 11		 cmp	 dl, BYTE PTR [ecx]
  00294	75 1a		 jne	 SHORT $LN72@LoadData
  00296	84 d2		 test	 dl, dl
  00298	74 12		 je	 SHORT $LN73@LoadData
  0029a	8a 50 01	 mov	 dl, BYTE PTR [eax+1]
  0029d	3a 51 01	 cmp	 dl, BYTE PTR [ecx+1]
  002a0	75 0e		 jne	 SHORT $LN72@LoadData
  002a2	83 c0 02	 add	 eax, 2
  002a5	83 c1 02	 add	 ecx, 2
  002a8	84 d2		 test	 dl, dl
  002aa	75 e4		 jne	 SHORT $LL71@LoadData
$LN73@LoadData:
  002ac	33 c0		 xor	 eax, eax
  002ae	eb 05		 jmp	 SHORT $LN74@LoadData
$LN72@LoadData:
  002b0	1b c0		 sbb	 eax, eax
  002b2	83 d8 ff	 sbb	 eax, -1
$LN74@LoadData:
  002b5	85 c0		 test	 eax, eax
  002b7	0f 84 eb fd ff
	ff		 je	 $LL32@LoadData

; 213  : 					{
; 214  : 						break;
; 215  : 					}
; 216  : 
; 217  : 					iValue = (int)TokenNumber;

  002bd	d9 05 00 00 00
	00		 fld	 DWORD PTR _TokenNumber
  002c3	e8 00 00 00 00	 call	 __ftol2_sse

; 218  : 
; 219  : 					if ( this->m_iMayaHandAIChangeTimeCount < 0 ||
; 220  : 						 this->m_iMayaHandAIChangeTimeCount >= KANTURU_MAYA_AI_CHANGE_TIME )

  002c8	8b 8b 0c 02 00
	00		 mov	 ecx, DWORD PTR [ebx+524]
  002ce	85 c9		 test	 ecx, ecx
  002d0	78 1d		 js	 SHORT $LN12@LoadData
  002d2	83 f9 04	 cmp	 ecx, 4
  002d5	7d 18		 jge	 SHORT $LN12@LoadData

; 226  : 					}
; 227  : 					
; 228  : 					this->m_iMayaHandAIChangeTime[this->m_iMayaHandAIChangeTimeCount] = iValue * 1000;

  002d7	69 c0 e8 03 00
	00		 imul	 eax, 1000		; 000003e8H
  002dd	89 84 8b fc 01
	00 00		 mov	 DWORD PTR [ebx+ecx*4+508], eax

; 229  : 					this->m_iMayaHandAIChangeTimeCount++;

  002e4	ff 83 0c 02 00
	00		 inc	 DWORD PTR [ebx+524]
  002ea	e9 11 fe ff ff	 jmp	 $LL29@LoadData
$LN12@LoadData:

; 221  : 					{
; 222  : 						MsgBox("[ KANTURU ][ BattleOfMaya ] - Exceed Maya Hand AI Change Time(%d)",
; 223  : 							this->m_iMayaHandAIChangeTime);

  002ef	8d 93 fc 01 00
	00		 lea	 edx, DWORD PTR [ebx+508]
  002f5	52		 push	 edx
  002f6	68 00 00 00 00	 push	 OFFSET ??_C@_0EC@DMJEACFN@?$FL?5KANTURU?5?$FN?$FL?5BattleOfMaya?5?$FN?5?9?5Ex@
  002fb	e8 00 00 00 00	 call	 ?MsgBox@@YAXPADZZ	; MsgBox
  00300	83 c4 08	 add	 esp, 8

; 224  : 
; 225  : 						break;

  00303	e9 a0 fd ff ff	 jmp	 $LL32@LoadData
$LN15@LoadData:

; 230  : 				}
; 231  : 				else if ( iType == 5 )

  00308	83 fe 05	 cmp	 esi, 5
  0030b	75 6f		 jne	 SHORT $LN10@LoadData
  0030d	8d 49 00	 npad	 3
$LL75@LoadData:

; 232  : 				{
; 233  : 					int iValue = 0;
; 234  : 
; 235  : 					Token = GetToken();
; 236  : 
; 237  : 					if ( !strcmp("end", TokenString))

  00310	8a 10		 mov	 dl, BYTE PTR [eax]
  00312	3a 11		 cmp	 dl, BYTE PTR [ecx]
  00314	75 1a		 jne	 SHORT $LN76@LoadData
  00316	84 d2		 test	 dl, dl
  00318	74 12		 je	 SHORT $LN77@LoadData
  0031a	8a 50 01	 mov	 dl, BYTE PTR [eax+1]
  0031d	3a 51 01	 cmp	 dl, BYTE PTR [ecx+1]
  00320	75 0e		 jne	 SHORT $LN76@LoadData
  00322	83 c0 02	 add	 eax, 2
  00325	83 c1 02	 add	 ecx, 2
  00328	84 d2		 test	 dl, dl
  0032a	75 e4		 jne	 SHORT $LL75@LoadData
$LN77@LoadData:
  0032c	33 c0		 xor	 eax, eax
  0032e	eb 05		 jmp	 SHORT $LN78@LoadData
$LN76@LoadData:
  00330	1b c0		 sbb	 eax, eax
  00332	83 d8 ff	 sbb	 eax, -1
$LN78@LoadData:
  00335	85 c0		 test	 eax, eax
  00337	0f 84 6b fd ff
	ff		 je	 $LL32@LoadData

; 238  : 					{
; 239  : 						break;
; 240  : 					}
; 241  : 
; 242  : 					iValue = (int)TokenNumber;

  0033d	d9 05 00 00 00
	00		 fld	 DWORD PTR _TokenNumber
  00343	e8 00 00 00 00	 call	 __ftol2_sse

; 243  : 
; 244  : 					if ( this->m_iMayaHAndGroupNumberCount < 0 ||
; 245  : 						 this->m_iMayaHAndGroupNumberCount >= KANTURU_MAYA_GROUP_NUMBER )

  00348	8b 8b 24 02 00
	00		 mov	 ecx, DWORD PTR [ebx+548]
  0034e	85 c9		 test	 ecx, ecx
  00350	78 17		 js	 SHORT $LN7@LoadData
  00352	83 f9 03	 cmp	 ecx, 3
  00355	7d 12		 jge	 SHORT $LN7@LoadData

; 251  : 					}
; 252  : 					
; 253  : 					this->m_iMayaHandGroupNumber[this->m_iMayaHAndGroupNumberCount] = iValue;

  00357	89 84 8b 18 02
	00 00		 mov	 DWORD PTR [ebx+ecx*4+536], eax

; 254  : 					this->m_iMayaHAndGroupNumberCount++;

  0035e	ff 83 24 02 00
	00		 inc	 DWORD PTR [ebx+548]
  00364	e9 97 fd ff ff	 jmp	 $LL29@LoadData
$LN7@LoadData:

; 246  : 					{
; 247  : 						MsgBox("[ KANTURU ][ BattleOfMaya ] - Maya Hand AI Group Read Error(%d)",
; 248  : 							this->m_iMayaHAndGroupNumberCount);

  00369	51		 push	 ecx
  0036a	68 00 00 00 00	 push	 OFFSET ??_C@_0EA@DAGPCMG@?$FL?5KANTURU?5?$FN?$FL?5BattleOfMaya?5?$FN?5?9?5Ma@
  0036f	e8 00 00 00 00	 call	 ?MsgBox@@YAXPADZZ	; MsgBox
  00374	83 c4 08	 add	 esp, 8

; 249  : 
; 250  : 						break;

  00377	e9 2c fd ff ff	 jmp	 $LL32@LoadData
$LN10@LoadData:

; 255  : 				}
; 256  : 				else if ( iType == 6 )

  0037c	83 fe 06	 cmp	 esi, 6
  0037f	0f 85 9b 00 00
	00		 jne	 $LL83@LoadData
$LL79@LoadData:

; 257  : 				{
; 258  : 					int iValue = 0;
; 259  : 
; 260  : 					Token = GetToken();
; 261  : 
; 262  : 					if ( !strcmp("end", TokenString))

  00385	8a 10		 mov	 dl, BYTE PTR [eax]
  00387	3a 11		 cmp	 dl, BYTE PTR [ecx]
  00389	75 1a		 jne	 SHORT $LN80@LoadData
  0038b	84 d2		 test	 dl, dl
  0038d	74 12		 je	 SHORT $LN81@LoadData
  0038f	8a 50 01	 mov	 dl, BYTE PTR [eax+1]
  00392	3a 51 01	 cmp	 dl, BYTE PTR [ecx+1]
  00395	75 0e		 jne	 SHORT $LN80@LoadData
  00397	83 c0 02	 add	 eax, 2
  0039a	83 c1 02	 add	 ecx, 2
  0039d	84 d2		 test	 dl, dl
  0039f	75 e4		 jne	 SHORT $LL79@LoadData
$LN81@LoadData:
  003a1	33 c0		 xor	 eax, eax
  003a3	eb 05		 jmp	 SHORT $LN82@LoadData
$LN80@LoadData:
  003a5	1b c0		 sbb	 eax, eax
  003a7	83 d8 ff	 sbb	 eax, -1
$LN82@LoadData:
  003aa	85 c0		 test	 eax, eax
  003ac	0f 84 f6 fc ff
	ff		 je	 $LL32@LoadData

; 263  : 					{
; 264  : 						break;
; 265  : 					}
; 266  : 
; 267  : 					iValue = (int)TokenNumber;

  003b2	d9 05 00 00 00
	00		 fld	 DWORD PTR _TokenNumber
  003b8	e8 00 00 00 00	 call	 __ftol2_sse

; 268  : 
; 269  : 					if ( iValue < 0 )

  003bd	85 c0		 test	 eax, eax
  003bf	79 13		 jns	 SHORT $LN3@LoadData

; 270  : 					{
; 271  : 						MsgBox("[ KANTURU ][ BattleOfMaya ] - Maya IceStorm Using Rate Load Error(%d)",
; 272  : 							iValue);

  003c1	50		 push	 eax
  003c2	68 00 00 00 00	 push	 OFFSET ??_C@_0EG@MJODBFHP@?$FL?5KANTURU?5?$FN?$FL?5BattleOfMaya?5?$FN?5?9?5Ma@
  003c7	e8 00 00 00 00	 call	 ?MsgBox@@YAXPADZZ	; MsgBox
  003cc	83 c4 08	 add	 esp, 8

; 273  : 
; 274  : 						iValue = 60;

  003cf	b8 3c 00 00 00	 mov	 eax, 60			; 0000003cH
$LN3@LoadData:

; 275  : 					}
; 276  : 					
; 277  : 					this->m_iMayaIceStormUsingRate = iValue;
; 278  : 					
; 279  : 					LogAddTD("[ KANTURU ][ BattleOfMaya ] IceStorm Using Rate Load: %d",
; 280  : 						this->m_iMayaIceStormUsingRate);

  003d4	50		 push	 eax
  003d5	68 00 00 00 00	 push	 OFFSET ??_C@_0DJ@DJFAMIGH@?$FL?5KANTURU?5?$FN?$FL?5BattleOfMaya?5?$FN?5IceS@
  003da	89 83 28 02 00
	00		 mov	 DWORD PTR [ebx+552], eax
  003e0	ff 15 00 00 00
	00		 call	 DWORD PTR ?LogAddTD@@3P6AXPADZZA ; LogAddTD
  003e6	83 c4 08	 add	 esp, 8

; 281  : 				}
; 282  : 				else

  003e9	e9 12 fd ff ff	 jmp	 $LL29@LoadData
__catch$?LoadData@CKanturuBattleOfMaya@@QAEHPAD@Z$0:

; 299  : 	}	// __try
; 300  : 	catch (...)
; 301  : 	{
; 302  : 		MsgBox("[ KANTURU ][ BattleOfMaya ] - Loading Exception Error (%s) File. ", lpszFileName);

  003ee	8b 45 08	 mov	 eax, DWORD PTR _lpszFileName$[ebp]
  003f1	50		 push	 eax
  003f2	68 00 00 00 00	 push	 OFFSET ??_C@_0EC@IDACLHLE@?$FL?5KANTURU?5?$FN?$FL?5BattleOfMaya?5?$FN?5?9?5Lo@
  003f7	e8 00 00 00 00	 call	 ?MsgBox@@YAXPADZZ	; MsgBox
  003fc	83 c4 08	 add	 esp, 8

; 303  : 	}

  003ff	b8 00 00 00 00	 mov	 eax, $LN87@LoadData
  00404	c3		 ret	 0
$LN87@LoadData:
  00405	8b 5d e8	 mov	 ebx, DWORD PTR _this$[ebp]

; 304  : 
; 305  : 	return this->m_bFileDataLoad;

  00408	8b 43 04	 mov	 eax, DWORD PTR [ebx+4]

; 306  : }

  0040b	8b 4d f4	 mov	 ecx, DWORD PTR __$EHRec$[ebp+4]
  0040e	64 89 0d 00 00
	00 00		 mov	 DWORD PTR fs:0, ecx
  00415	59		 pop	 ecx
  00416	5f		 pop	 edi
  00417	5e		 pop	 esi
  00418	5b		 pop	 ebx
  00419	8b e5		 mov	 esp, ebp
  0041b	5d		 pop	 ebp
  0041c	c2 04 00	 ret	 4
  0041f	90		 npad	 1
$LL83@LoadData:

; 283  : 				{
; 284  : 					Token = GetToken();
; 285  : 
; 286  : 					if ( !strcmp("end", TokenString))

  00420	8a 10		 mov	 dl, BYTE PTR [eax]
  00422	3a 11		 cmp	 dl, BYTE PTR [ecx]
  00424	75 1a		 jne	 SHORT $LN84@LoadData
  00426	84 d2		 test	 dl, dl
  00428	74 12		 je	 SHORT $LN85@LoadData
  0042a	8a 50 01	 mov	 dl, BYTE PTR [eax+1]
  0042d	3a 51 01	 cmp	 dl, BYTE PTR [ecx+1]
  00430	75 0e		 jne	 SHORT $LN84@LoadData
  00432	83 c0 02	 add	 eax, 2
  00435	83 c1 02	 add	 ecx, 2
  00438	84 d2		 test	 dl, dl
  0043a	75 e4		 jne	 SHORT $LL83@LoadData
$LN85@LoadData:
  0043c	33 c0		 xor	 eax, eax
  0043e	eb 05		 jmp	 SHORT $LN86@LoadData
$LN84@LoadData:
  00440	1b c0		 sbb	 eax, eax
  00442	83 d8 ff	 sbb	 eax, -1
$LN86@LoadData:
  00445	85 c0		 test	 eax, eax
  00447	0f 85 b3 fc ff
	ff		 jne	 $LL29@LoadData

; 287  : 					{
; 288  : 						break;
; 289  : 					}
; 290  : 				}
; 291  : 			}	// while ( true )
; 292  : 		}	// while ( true )

  0044d	e9 56 fc ff ff	 jmp	 $LL32@LoadData
$LN35@LoadData:

; 88   : 	{
; 89   : 		MsgBox("[ KANTURU ][ BattleOfMaya ] - File load error : File Name Error");

  00452	68 00 00 00 00	 push	 OFFSET ??_C@_0EA@GJKFHDBF@?$FL?5KANTURU?5?$FN?$FL?5BattleOfMaya?5?$FN?5?9?5Fi@
  00457	e8 00 00 00 00	 call	 ?MsgBox@@YAXPADZZ	; MsgBox
  0045c	83 c4 04	 add	 esp, 4
$LN89@LoadData:

; 90   : 		return FALSE;

  0045f	33 c0		 xor	 eax, eax

; 306  : }

  00461	8b 4d f4	 mov	 ecx, DWORD PTR __$EHRec$[ebp+4]
  00464	64 89 0d 00 00
	00 00		 mov	 DWORD PTR fs:0, ecx
  0046b	59		 pop	 ecx
  0046c	5f		 pop	 edi
  0046d	5e		 pop	 esi
  0046e	5b		 pop	 ebx
  0046f	8b e5		 mov	 esp, ebp
  00471	5d		 pop	 ebp
  00472	c2 04 00	 ret	 4
_TEXT	ENDS
;	COMDAT text$x
text$x	SEGMENT
__ehhandler$?LoadData@CKanturuBattleOfMaya@@QAEHPAD@Z:
  00000	8b 54 24 08	 mov	 edx, DWORD PTR [esp+8]
  00004	8d 42 0c	 lea	 eax, DWORD PTR [edx+12]
  00007	8b 4a e4	 mov	 ecx, DWORD PTR [edx-28]
  0000a	33 c8		 xor	 ecx, eax
  0000c	e8 00 00 00 00	 call	 @__security_check_cookie@4
  00011	b8 00 00 00 00	 mov	 eax, OFFSET __ehfuncinfo$?LoadData@CKanturuBattleOfMaya@@QAEHPAD@Z
  00016	e9 00 00 00 00	 jmp	 ___CxxFrameHandler3
text$x	ENDS
?LoadData@CKanturuBattleOfMaya@@QAEHPAD@Z ENDP		; CKanturuBattleOfMaya::LoadData
PUBLIC	??_C@_0CP@ODHNDKFD@?$FL?5KANTURU?5?$FN?$FL?5BattleOfMaya?5?$FN?5Stat@ ; `string'
PUBLIC	?SetState_MAYA1@CKanturuBattleOfMaya@@QAEXXZ	; CKanturuBattleOfMaya::SetState_MAYA1
EXTRN	?FindGroupLeader@TMonsterAIGroup@@SAHH@Z:PROC	; TMonsterAIGroup::FindGroupLeader
;	COMDAT ??_C@_0CP@ODHNDKFD@?$FL?5KANTURU?5?$FN?$FL?5BattleOfMaya?5?$FN?5Stat@
; File e:\work\tranet_version\gs\gameserver\kanturumaya.h
CONST	SEGMENT
??_C@_0CP@ODHNDKFD@?$FL?5KANTURU?5?$FN?$FL?5BattleOfMaya?5?$FN?5Stat@ DB '['
	DB	' KANTURU ][ BattleOfMaya ] State(%d) -> MAYA1', 00H ; `string'
; Function compile flags: /Ogtp
; File e:\work\tranet_version\gs\gameserver\kanturubattleofmaya.cpp
CONST	ENDS
;	COMDAT ?SetState_MAYA1@CKanturuBattleOfMaya@@QAEXXZ
_TEXT	SEGMENT
?SetState_MAYA1@CKanturuBattleOfMaya@@QAEXXZ PROC	; CKanturuBattleOfMaya::SetState_MAYA1, COMDAT
; _this$ = ecx

; 527  : {

  00000	56		 push	 esi
  00001	8b f1		 mov	 esi, ecx

; 528  : 	LogAddC(5, "[ KANTURU ][ BattleOfMaya ] State(%d) -> MAYA1",
; 529  : 		this->m_iBattleOfMayaState);

  00003	8b 46 08	 mov	 eax, DWORD PTR [esi+8]
  00006	50		 push	 eax
  00007	68 00 00 00 00	 push	 OFFSET ??_C@_0CP@ODHNDKFD@?$FL?5KANTURU?5?$FN?$FL?5BattleOfMaya?5?$FN?5Stat@
  0000c	6a 05		 push	 5
  0000e	ff 15 00 00 00
	00		 call	 DWORD PTR ?LogAddC@@3P6AXEPADZZA ; LogAddC

; 530  : 
; 531  : 	this->SetBattleOfMayaState(KANTURU_MAYA1);
; 532  : 	this->SetEntrancePermit(FALSE);

  00014	33 c0		 xor	 eax, eax
  00016	83 c4 0c	 add	 esp, 12			; 0000000cH

; 533  : 	this->SetSuccessValue(FALSE);
; 534  : 	this->SetSceneSuccessValue(FALSE);
; 535  : 	this->m_iMayaHandDieTimeCounter = 0;
; 536  : 	g_KanturuMonsterMng.SetKanturuMonster(3);

  00019	6a 03		 push	 3
  0001b	b9 00 00 00 00	 mov	 ecx, OFFSET ?g_KanturuMonsterMng@@3VCKanturuMonsterMng@@A ; g_KanturuMonsterMng
  00020	c7 46 08 04 00
	00 00		 mov	 DWORD PTR [esi+8], 4
  00027	89 86 d0 01 00
	00		 mov	 DWORD PTR [esi+464], eax
  0002d	89 86 d4 01 00
	00		 mov	 DWORD PTR [esi+468], eax
  00033	89 86 d8 01 00
	00		 mov	 DWORD PTR [esi+472], eax
  00039	89 86 f0 01 00
	00		 mov	 DWORD PTR [esi+496], eax
  0003f	e8 00 00 00 00	 call	 ?SetKanturuMonster@CKanturuMonsterMng@@QAEHH@Z ; CKanturuMonsterMng::SetKanturuMonster

; 537  : 	this->m_KanturuMaya.SetMayaObjIndex(g_KanturuMonsterMng.GetMayaObjIndex());

  00044	8b 0d d8 07 00
	00		 mov	 ecx, DWORD PTR ?g_KanturuMonsterMng@@3VCKanturuMonsterMng@@A+2008

; 538  : 	this->SetAIMonsterGroup(this->m_iMayaHandGroupNumber[0]);

  0004a	8b 96 18 02 00
	00		 mov	 edx, DWORD PTR [esi+536]
  00050	89 8e e0 01 00
	00		 mov	 DWORD PTR [esi+480], ecx
  00056	52		 push	 edx
  00057	8b ce		 mov	 ecx, esi
  00059	e8 00 00 00 00	 call	 ?SetAIMonsterGroup@CKanturuBattleOfMaya@@QAEXH@Z ; CKanturuBattleOfMaya::SetAIMonsterGroup

; 539  : 	this->m_iMayaLeftHandObjIndex = TMonsterAIGroup::FindGroupLeader(this->m_iMayaHandGroupNumber[0]);

  0005e	8b 86 18 02 00
	00		 mov	 eax, DWORD PTR [esi+536]
  00064	50		 push	 eax
  00065	e8 00 00 00 00	 call	 ?FindGroupLeader@TMonsterAIGroup@@SAHH@Z ; TMonsterAIGroup::FindGroupLeader
  0006a	83 c4 04	 add	 esp, 4
  0006d	89 86 f4 01 00
	00		 mov	 DWORD PTR [esi+500], eax
  00073	5e		 pop	 esi

; 540  : }

  00074	c3		 ret	 0
?SetState_MAYA1@CKanturuBattleOfMaya@@QAEXXZ ENDP	; CKanturuBattleOfMaya::SetState_MAYA1
_TEXT	ENDS
PUBLIC	??_C@_0CP@MIFAGJJA@?$FL?5KANTURU?5?$FN?$FL?5BattleOfMaya?5?$FN?5Stat@ ; `string'
PUBLIC	?SetState_MAYA2@CKanturuBattleOfMaya@@QAEXXZ	; CKanturuBattleOfMaya::SetState_MAYA2
;	COMDAT ??_C@_0CP@MIFAGJJA@?$FL?5KANTURU?5?$FN?$FL?5BattleOfMaya?5?$FN?5Stat@
; File e:\work\tranet_version\gs\gameserver\kanturumaya.h
CONST	SEGMENT
??_C@_0CP@MIFAGJJA@?$FL?5KANTURU?5?$FN?$FL?5BattleOfMaya?5?$FN?5Stat@ DB '['
	DB	' KANTURU ][ BattleOfMaya ] State(%d) -> MAYA2', 00H ; `string'
; Function compile flags: /Ogtp
; File e:\work\tranet_version\gs\gameserver\kanturubattleofmaya.cpp
CONST	ENDS
;	COMDAT ?SetState_MAYA2@CKanturuBattleOfMaya@@QAEXXZ
_TEXT	SEGMENT
?SetState_MAYA2@CKanturuBattleOfMaya@@QAEXXZ PROC	; CKanturuBattleOfMaya::SetState_MAYA2, COMDAT
; _this$ = ecx

; 605  : {

  00000	56		 push	 esi
  00001	8b f1		 mov	 esi, ecx

; 606  : 	LogAddC(5, "[ KANTURU ][ BattleOfMaya ] State(%d) -> MAYA2",
; 607  : 		this->m_iBattleOfMayaState);

  00003	8b 46 08	 mov	 eax, DWORD PTR [esi+8]
  00006	50		 push	 eax
  00007	68 00 00 00 00	 push	 OFFSET ??_C@_0CP@MIFAGJJA@?$FL?5KANTURU?5?$FN?$FL?5BattleOfMaya?5?$FN?5Stat@
  0000c	6a 05		 push	 5
  0000e	ff 15 00 00 00
	00		 call	 DWORD PTR ?LogAddC@@3P6AXEPADZZA ; LogAddC

; 608  : 
; 609  : 	this->SetBattleOfMayaState(KANTURU_MAYA2);
; 610  : 	this->SetEntrancePermit(FALSE);

  00014	33 c0		 xor	 eax, eax
  00016	83 c4 0c	 add	 esp, 12			; 0000000cH

; 611  : 	this->SetSuccessValue(FALSE);
; 612  : 	this->SetSceneSuccessValue(FALSE);
; 613  : 	this->m_iMayaHandDieTimeCounter = 0;
; 614  : 	g_KanturuMonsterMng.SetKanturuMonster(4);

  00019	6a 04		 push	 4
  0001b	b9 00 00 00 00	 mov	 ecx, OFFSET ?g_KanturuMonsterMng@@3VCKanturuMonsterMng@@A ; g_KanturuMonsterMng
  00020	c7 46 08 09 00
	00 00		 mov	 DWORD PTR [esi+8], 9
  00027	89 86 d0 01 00
	00		 mov	 DWORD PTR [esi+464], eax
  0002d	89 86 d4 01 00
	00		 mov	 DWORD PTR [esi+468], eax
  00033	89 86 d8 01 00
	00		 mov	 DWORD PTR [esi+472], eax
  00039	89 86 f0 01 00
	00		 mov	 DWORD PTR [esi+496], eax
  0003f	e8 00 00 00 00	 call	 ?SetKanturuMonster@CKanturuMonsterMng@@QAEHH@Z ; CKanturuMonsterMng::SetKanturuMonster

; 615  : 	this->m_KanturuMaya.SetMayaObjIndex(g_KanturuMonsterMng.GetMayaObjIndex());

  00044	8b 0d d8 07 00
	00		 mov	 ecx, DWORD PTR ?g_KanturuMonsterMng@@3VCKanturuMonsterMng@@A+2008

; 616  : 	this->SetAIMonsterGroup(this->m_iMayaHandGroupNumber[1]);

  0004a	8b 96 1c 02 00
	00		 mov	 edx, DWORD PTR [esi+540]
  00050	89 8e e0 01 00
	00		 mov	 DWORD PTR [esi+480], ecx
  00056	52		 push	 edx
  00057	8b ce		 mov	 ecx, esi
  00059	e8 00 00 00 00	 call	 ?SetAIMonsterGroup@CKanturuBattleOfMaya@@QAEXH@Z ; CKanturuBattleOfMaya::SetAIMonsterGroup

; 617  : 	this->m_iMayaRightHandObjIndex = TMonsterAIGroup::FindGroupLeader(this->m_iMayaHandGroupNumber[1]);

  0005e	8b 86 1c 02 00
	00		 mov	 eax, DWORD PTR [esi+540]
  00064	50		 push	 eax
  00065	e8 00 00 00 00	 call	 ?FindGroupLeader@TMonsterAIGroup@@SAHH@Z ; TMonsterAIGroup::FindGroupLeader
  0006a	83 c4 04	 add	 esp, 4
  0006d	89 86 f8 01 00
	00		 mov	 DWORD PTR [esi+504], eax
  00073	5e		 pop	 esi

; 618  : }

  00074	c3		 ret	 0
?SetState_MAYA2@CKanturuBattleOfMaya@@QAEXXZ ENDP	; CKanturuBattleOfMaya::SetState_MAYA2
_TEXT	ENDS
PUBLIC	??_C@_0CP@NBELFINB@?$FL?5KANTURU?5?$FN?$FL?5BattleOfMaya?5?$FN?5Stat@ ; `string'
PUBLIC	?SetState_MAYA3@CKanturuBattleOfMaya@@QAEXXZ	; CKanturuBattleOfMaya::SetState_MAYA3
EXTRN	?FindGroupMemberObjectIndex@TMonsterAIGroup@@SAHHH@Z:PROC ; TMonsterAIGroup::FindGroupMemberObjectIndex
;	COMDAT ??_C@_0CP@NBELFINB@?$FL?5KANTURU?5?$FN?$FL?5BattleOfMaya?5?$FN?5Stat@
; File e:\work\tranet_version\gs\gameserver\kanturumaya.h
CONST	SEGMENT
??_C@_0CP@NBELFINB@?$FL?5KANTURU?5?$FN?$FL?5BattleOfMaya?5?$FN?5Stat@ DB '['
	DB	' KANTURU ][ BattleOfMaya ] State(%d) -> MAYA3', 00H ; `string'
; Function compile flags: /Ogtp
; File e:\work\tranet_version\gs\gameserver\kanturubattleofmaya.cpp
CONST	ENDS
;	COMDAT ?SetState_MAYA3@CKanturuBattleOfMaya@@QAEXXZ
_TEXT	SEGMENT
?SetState_MAYA3@CKanturuBattleOfMaya@@QAEXXZ PROC	; CKanturuBattleOfMaya::SetState_MAYA3, COMDAT
; _this$ = ecx

; 682  : {

  00000	56		 push	 esi
  00001	8b f1		 mov	 esi, ecx

; 683  : 	LogAddC(5, "[ KANTURU ][ BattleOfMaya ] State(%d) -> MAYA3",
; 684  : 		this->m_iBattleOfMayaState);

  00003	8b 46 08	 mov	 eax, DWORD PTR [esi+8]
  00006	50		 push	 eax
  00007	68 00 00 00 00	 push	 OFFSET ??_C@_0CP@NBELFINB@?$FL?5KANTURU?5?$FN?$FL?5BattleOfMaya?5?$FN?5Stat@
  0000c	6a 05		 push	 5
  0000e	ff 15 00 00 00
	00		 call	 DWORD PTR ?LogAddC@@3P6AXEPADZZA ; LogAddC

; 685  : 
; 686  : 	this->SetBattleOfMayaState(KANTURU_MAYA3);
; 687  : 	this->SetEntrancePermit(FALSE);

  00014	33 c0		 xor	 eax, eax
  00016	83 c4 0c	 add	 esp, 12			; 0000000cH

; 688  : 	this->SetSuccessValue(FALSE);
; 689  : 	this->SetSceneSuccessValue(FALSE);
; 690  : 	this->m_iMayaHandDieTimeCounter = 0;
; 691  : 	g_KanturuMonsterMng.SetKanturuMonster(5);

  00019	6a 05		 push	 5
  0001b	b9 00 00 00 00	 mov	 ecx, OFFSET ?g_KanturuMonsterMng@@3VCKanturuMonsterMng@@A ; g_KanturuMonsterMng
  00020	c7 46 08 0e 00
	00 00		 mov	 DWORD PTR [esi+8], 14	; 0000000eH
  00027	89 86 d0 01 00
	00		 mov	 DWORD PTR [esi+464], eax
  0002d	89 86 d4 01 00
	00		 mov	 DWORD PTR [esi+468], eax
  00033	89 86 d8 01 00
	00		 mov	 DWORD PTR [esi+472], eax
  00039	89 86 f0 01 00
	00		 mov	 DWORD PTR [esi+496], eax
  0003f	e8 00 00 00 00	 call	 ?SetKanturuMonster@CKanturuMonsterMng@@QAEHH@Z ; CKanturuMonsterMng::SetKanturuMonster

; 692  : 	this->m_KanturuMaya.SetMayaObjIndex(g_KanturuMonsterMng.GetMayaObjIndex());

  00044	8b 0d d8 07 00
	00		 mov	 ecx, DWORD PTR ?g_KanturuMonsterMng@@3VCKanturuMonsterMng@@A+2008

; 693  : 	this->SetAIMonsterGroup(this->m_iMayaHandGroupNumber[2]);

  0004a	8b 96 20 02 00
	00		 mov	 edx, DWORD PTR [esi+544]
  00050	89 8e e0 01 00
	00		 mov	 DWORD PTR [esi+480], ecx
  00056	52		 push	 edx
  00057	8b ce		 mov	 ecx, esi
  00059	e8 00 00 00 00	 call	 ?SetAIMonsterGroup@CKanturuBattleOfMaya@@QAEXH@Z ; CKanturuBattleOfMaya::SetAIMonsterGroup

; 694  : 	this->m_iMayaLeftHandObjIndex = TMonsterAIGroup::FindGroupLeader(this->m_iMayaHandGroupNumber[2]);

  0005e	8b 86 20 02 00
	00		 mov	 eax, DWORD PTR [esi+544]
  00064	50		 push	 eax
  00065	e8 00 00 00 00	 call	 ?FindGroupLeader@TMonsterAIGroup@@SAHH@Z ; TMonsterAIGroup::FindGroupLeader

; 695  : 	this->m_iMayaRightHandObjIndex = TMonsterAIGroup::FindGroupMemberObjectIndex(this->m_iMayaHandGroupNumber[2], 1);

  0006a	8b 8e 20 02 00
	00		 mov	 ecx, DWORD PTR [esi+544]
  00070	6a 01		 push	 1
  00072	51		 push	 ecx
  00073	89 86 f4 01 00
	00		 mov	 DWORD PTR [esi+500], eax
  00079	e8 00 00 00 00	 call	 ?FindGroupMemberObjectIndex@TMonsterAIGroup@@SAHHH@Z ; TMonsterAIGroup::FindGroupMemberObjectIndex
  0007e	83 c4 0c	 add	 esp, 12			; 0000000cH
  00081	89 86 f8 01 00
	00		 mov	 DWORD PTR [esi+504], eax
  00087	5e		 pop	 esi

; 696  : }

  00088	c3		 ret	 0
?SetState_MAYA3@CKanturuBattleOfMaya@@QAEXXZ ENDP	; CKanturuBattleOfMaya::SetState_MAYA3
_TEXT	ENDS
PUBLIC	??0CKanturuBattleOfMaya@@QAE@XZ			; CKanturuBattleOfMaya::CKanturuBattleOfMaya
EXTRN	??0CKanturuMaya@@QAE@XZ:PROC			; CKanturuMaya::CKanturuMaya
EXTRN	??_L@YGXPAXIHP6EX0@Z1@Z:PROC			; `eh vector constructor iterator'
EXTRN	??0CKanturuStateInfo@@QAE@XZ:PROC		; CKanturuStateInfo::CKanturuStateInfo
;	COMDAT xdata$x
; File e:\work\tranet_version\gs\gameserver\kanturubattleofmaya.h
xdata$x	SEGMENT
__unwindtable$??0CKanturuBattleOfMaya@@QAE@XZ DD 0ffffffffH
	DD	FLAT:__unwindfunclet$??0CKanturuBattleOfMaya@@QAE@XZ$0
	DD	00H
	DD	FLAT:__unwindfunclet$??0CKanturuBattleOfMaya@@QAE@XZ$1
__ehfuncinfo$??0CKanturuBattleOfMaya@@QAE@XZ DD 019930522H
	DD	02H
	DD	FLAT:__unwindtable$??0CKanturuBattleOfMaya@@QAE@XZ
	DD	2 DUP(00H)
	DD	2 DUP(00H)
	DD	00H
	DD	01H
; Function compile flags: /Ogtp
; File e:\work\tranet_version\gs\gameserver\kanturubattleofmaya.cpp
xdata$x	ENDS
;	COMDAT ??0CKanturuBattleOfMaya@@QAE@XZ
_TEXT	SEGMENT
_this$ = -16						; size = 4
__$EHRec$ = -12						; size = 12
??0CKanturuBattleOfMaya@@QAE@XZ PROC			; CKanturuBattleOfMaya::CKanturuBattleOfMaya, COMDAT
; _this$ = ecx

; 24   : {

  00000	55		 push	 ebp
  00001	8b ec		 mov	 ebp, esp
  00003	6a ff		 push	 -1
  00005	68 00 00 00 00	 push	 __ehhandler$??0CKanturuBattleOfMaya@@QAE@XZ
  0000a	64 a1 00 00 00
	00		 mov	 eax, DWORD PTR fs:0
  00010	50		 push	 eax
  00011	51		 push	 ecx
  00012	56		 push	 esi
  00013	57		 push	 edi
  00014	a1 00 00 00 00	 mov	 eax, DWORD PTR ___security_cookie
  00019	33 c5		 xor	 eax, ebp
  0001b	50		 push	 eax
  0001c	8d 45 f4	 lea	 eax, DWORD PTR __$EHRec$[ebp]
  0001f	64 a3 00 00 00
	00		 mov	 DWORD PTR fs:0, eax
  00025	8b f1		 mov	 esi, ecx
  00027	89 75 f0	 mov	 DWORD PTR _this$[ebp], esi
  0002a	68 00 00 00 00	 push	 OFFSET ??1CKanturuStateInfo@@UAE@XZ ; CKanturuStateInfo::~CKanturuStateInfo
  0002f	68 00 00 00 00	 push	 OFFSET ??0CKanturuStateInfo@@QAE@XZ ; CKanturuStateInfo::CKanturuStateInfo
  00034	6a 03		 push	 3
  00036	6a 14		 push	 20			; 00000014H
  00038	8d 46 10	 lea	 eax, DWORD PTR [esi+16]
  0003b	50		 push	 eax
  0003c	c7 06 00 00 00
	00		 mov	 DWORD PTR [esi], OFFSET ??_7CKanturuBattleOfMaya@@6B@
  00042	e8 00 00 00 00	 call	 ??_L@YGXPAXIHP6EX0@Z1@Z
  00047	68 00 00 00 00	 push	 OFFSET ??1CKanturuStateInfo@@UAE@XZ ; CKanturuStateInfo::~CKanturuStateInfo
  0004c	68 00 00 00 00	 push	 OFFSET ??0CKanturuStateInfo@@QAE@XZ ; CKanturuStateInfo::CKanturuStateInfo
  00051	6a 13		 push	 19			; 00000013H
  00053	6a 14		 push	 20			; 00000014H
  00055	8d 4e 50	 lea	 ecx, DWORD PTR [esi+80]
  00058	33 ff		 xor	 edi, edi
  0005a	51		 push	 ecx
  0005b	89 7d fc	 mov	 DWORD PTR __$EHRec$[ebp+8], edi
  0005e	e8 00 00 00 00	 call	 ??_L@YGXPAXIHP6EX0@Z1@Z
  00063	8d 8e dc 01 00
	00		 lea	 ecx, DWORD PTR [esi+476]
  00069	c6 45 fc 01	 mov	 BYTE PTR __$EHRec$[ebp+8], 1
  0006d	e8 00 00 00 00	 call	 ??0CKanturuMaya@@QAE@XZ	; CKanturuMaya::CKanturuMaya

; 25   : 	this->SetBattleOfMayaState(0);
; 26   : 	this->SetBattleSceneState(-1);

  00072	83 c8 ff	 or	 eax, -1
  00075	89 7e 08	 mov	 DWORD PTR [esi+8], edi
  00078	89 46 0c	 mov	 DWORD PTR [esi+12], eax
  0007b	89 be d8 01 00
	00		 mov	 DWORD PTR [esi+472], edi

; 27   : 	this->m_iMayaLeftHandObjIndex = -1;

  00081	89 86 f4 01 00
	00		 mov	 DWORD PTR [esi+500], eax

; 28   : 	this->m_iMayaRightHandObjIndex = -1;

  00087	89 86 f8 01 00
	00		 mov	 DWORD PTR [esi+504], eax

; 29   : 
; 30   : 	for ( int iCount=0;iCount<KANTURU_MAYA_AI_CHANGE_TIME;iCount++)
; 31   : 	{
; 32   : 		this->m_iMayaHandAIChangeTime[iCount] = -1;

  0008d	89 86 fc 01 00
	00		 mov	 DWORD PTR [esi+508], eax
  00093	89 86 00 02 00
	00		 mov	 DWORD PTR [esi+512], eax
  00099	89 86 04 02 00
	00		 mov	 DWORD PTR [esi+516], eax
  0009f	89 86 08 02 00
	00		 mov	 DWORD PTR [esi+520], eax

; 33   : 	}
; 34   : 
; 35   : 	this->m_iMayaHandAIAppliedTime = 0;

  000a5	89 be 10 02 00
	00		 mov	 DWORD PTR [esi+528], edi

; 36   : 	this->m_iMayaHandCurrentAI = 0;

  000ab	89 be 14 02 00
	00		 mov	 DWORD PTR [esi+532], edi

; 37   : 
; 38   : 	for (int iCount=0;iCount<KANTURU_MAYA_GROUP_NUMBER;iCount++)
; 39   : 	{
; 40   : 		this->m_iMayaHandGroupNumber[iCount] = -1;

  000b1	89 86 18 02 00
	00		 mov	 DWORD PTR [esi+536], eax
  000b7	89 86 1c 02 00
	00		 mov	 DWORD PTR [esi+540], eax
  000bd	89 86 20 02 00
	00		 mov	 DWORD PTR [esi+544], eax

; 41   : 	}
; 42   : 
; 43   : 	this->m_iMayaHandDieTimeCounter = 0;
; 44   : 	this->ResetAllData();

  000c3	8b ce		 mov	 ecx, esi
  000c5	89 be f0 01 00
	00		 mov	 DWORD PTR [esi+496], edi
  000cb	e8 00 00 00 00	 call	 ?ResetAllData@CKanturuBattleOfMaya@@QAEXXZ ; CKanturuBattleOfMaya::ResetAllData

; 45   : }

  000d0	8b c6		 mov	 eax, esi
  000d2	8b 4d f4	 mov	 ecx, DWORD PTR __$EHRec$[ebp]
  000d5	64 89 0d 00 00
	00 00		 mov	 DWORD PTR fs:0, ecx
  000dc	59		 pop	 ecx
  000dd	5f		 pop	 edi
  000de	5e		 pop	 esi
  000df	8b e5		 mov	 esp, ebp
  000e1	5d		 pop	 ebp
  000e2	c3		 ret	 0
_TEXT	ENDS
;	COMDAT text$x
text$x	SEGMENT
__unwindfunclet$??0CKanturuBattleOfMaya@@QAE@XZ$0:
  00000	68 00 00 00 00	 push	 OFFSET ??1CKanturuStateInfo@@UAE@XZ ; CKanturuStateInfo::~CKanturuStateInfo
  00005	6a 03		 push	 3
  00007	6a 14		 push	 20			; 00000014H
  00009	8b 45 f0	 mov	 eax, DWORD PTR _this$[ebp]
  0000c	83 c0 10	 add	 eax, 16			; 00000010H
  0000f	50		 push	 eax
  00010	e8 00 00 00 00	 call	 ??_M@YGXPAXIHP6EX0@Z@Z
  00015	c3		 ret	 0
__unwindfunclet$??0CKanturuBattleOfMaya@@QAE@XZ$1:
  00016	68 00 00 00 00	 push	 OFFSET ??1CKanturuStateInfo@@UAE@XZ ; CKanturuStateInfo::~CKanturuStateInfo
  0001b	6a 13		 push	 19			; 00000013H
  0001d	6a 14		 push	 20			; 00000014H
  0001f	8b 45 f0	 mov	 eax, DWORD PTR _this$[ebp]
  00022	83 c0 50	 add	 eax, 80			; 00000050H
  00025	50		 push	 eax
  00026	e8 00 00 00 00	 call	 ??_M@YGXPAXIHP6EX0@Z@Z
  0002b	c3		 ret	 0
__ehhandler$??0CKanturuBattleOfMaya@@QAE@XZ:
  0002c	8b 54 24 08	 mov	 edx, DWORD PTR [esp+8]
  00030	8d 42 0c	 lea	 eax, DWORD PTR [edx+12]
  00033	8b 4a f0	 mov	 ecx, DWORD PTR [edx-16]
  00036	33 c8		 xor	 ecx, eax
  00038	e8 00 00 00 00	 call	 @__security_check_cookie@4
  0003d	b8 00 00 00 00	 mov	 eax, OFFSET __ehfuncinfo$??0CKanturuBattleOfMaya@@QAE@XZ
  00042	e9 00 00 00 00	 jmp	 ___CxxFrameHandler3
text$x	ENDS
??0CKanturuBattleOfMaya@@QAE@XZ ENDP			; CKanturuBattleOfMaya::CKanturuBattleOfMaya
PUBLIC	?SetState@CKanturuBattleOfMaya@@QAEXH@Z		; CKanturuBattleOfMaya::SetState
EXTRN	?NotifyKanturuChangeState@CKanturuUtil@@QAEXHH@Z:PROC ; CKanturuUtil::NotifyKanturuChangeState
EXTRN	?Init@CKanturuMaya@@QAEXXZ:PROC			; CKanturuMaya::Init
EXTRN	?ResetRegenMonsterObjData@CKanturuMonsterMng@@QAEXXZ:PROC ; CKanturuMonsterMng::ResetRegenMonsterObjData
; Function compile flags: /Ogtp
;	COMDAT ?SetState@CKanturuBattleOfMaya@@QAEXH@Z
_TEXT	SEGMENT
_iBattleOfMayaState$ = 8				; size = 4
?SetState@CKanturuBattleOfMaya@@QAEXH@Z PROC		; CKanturuBattleOfMaya::SetState, COMDAT
; _this$ = ecx

; 382  : {

  00000	55		 push	 ebp
  00001	8b ec		 mov	 ebp, esp
  00003	53		 push	 ebx
  00004	56		 push	 esi
  00005	57		 push	 edi

; 383  : 	if ( this->m_StateInfo[iBattleOfMayaState].GetCondition() > 0 )

  00006	8b 7d 08	 mov	 edi, DWORD PTR _iBattleOfMayaState$[ebp]
  00009	8b f1		 mov	 esi, ecx
  0000b	8d 04 bf	 lea	 eax, DWORD PTR [edi+edi*4]
  0000e	83 7c 86 58 00	 cmp	 DWORD PTR [esi+eax*4+88], 0
  00013	8d 1c 86	 lea	 ebx, DWORD PTR [esi+eax*4]
  00016	7e 09		 jle	 SHORT $LN27@SetState

; 384  : 	{
; 385  : 		this->m_StateInfo[iBattleOfMayaState].SetAppliedTime();

  00018	ff 15 00 00 00
	00		 call	 DWORD PTR __imp__GetTickCount@0
  0001e	89 43 60	 mov	 DWORD PTR [ebx+96], eax
$LN27@SetState:

; 386  : 	}
; 387  : 
; 388  : 	g_KanturuMonsterMng.ResetRegenMonsterObjData();

  00021	b9 00 00 00 00	 mov	 ecx, OFFSET ?g_KanturuMonsterMng@@3VCKanturuMonsterMng@@A ; g_KanturuMonsterMng
  00026	e8 00 00 00 00	 call	 ?ResetRegenMonsterObjData@CKanturuMonsterMng@@QAEXXZ ; CKanturuMonsterMng::ResetRegenMonsterObjData

; 389  : 	this->m_KanturuMaya.Init();

  0002b	8d 8e dc 01 00
	00		 lea	 ecx, DWORD PTR [esi+476]
  00031	e8 00 00 00 00	 call	 ?Init@CKanturuMaya@@QAEXXZ ; CKanturuMaya::Init

; 390  : 	this->ResetAIMonster();

  00036	8b ce		 mov	 ecx, esi
  00038	e8 00 00 00 00	 call	 ?ResetAIMonster@CKanturuBattleOfMaya@@QAEXXZ ; CKanturuBattleOfMaya::ResetAIMonster

; 391  : 
; 392  : 	switch ( iBattleOfMayaState )

  0003d	83 ff 12	 cmp	 edi, 18			; 00000012H
  00040	0f 87 bc 00 00
	00		 ja	 $LN20@SetState
  00046	ff 24 bd 00 00
	00 00		 jmp	 DWORD PTR $LN29@SetState[edi*4]
$LN19@SetState:

; 393  : 	{
; 394  : 		case KANTURU_MAYA_NONE:
; 395  : 			this->SetState_NONE();

  0004d	8b ce		 mov	 ecx, esi
  0004f	e8 00 00 00 00	 call	 ?SetState_NONE@CKanturuBattleOfMaya@@QAEXXZ ; CKanturuBattleOfMaya::SetState_NONE

; 396  : 			break;

  00054	e9 a9 00 00 00	 jmp	 $LN20@SetState
$LN18@SetState:

; 397  : 		case KANTURU_MAYA_STANBY1:
; 398  : 			this->SetState_STANBY1();

  00059	8b ce		 mov	 ecx, esi
  0005b	e8 00 00 00 00	 call	 ?SetState_STANBY1@CKanturuBattleOfMaya@@QAEXXZ ; CKanturuBattleOfMaya::SetState_STANBY1

; 399  : 			break;

  00060	e9 9d 00 00 00	 jmp	 $LN20@SetState
$LN17@SetState:

; 400  : 		case KANTURU_MAYA_NOTIFY1:
; 401  : 			this->SetState_NOTIFY1();

  00065	8b ce		 mov	 ecx, esi
  00067	e8 00 00 00 00	 call	 ?SetState_NOTIFY1@CKanturuBattleOfMaya@@QAEXXZ ; CKanturuBattleOfMaya::SetState_NOTIFY1

; 402  : 			break;

  0006c	e9 91 00 00 00	 jmp	 $LN20@SetState
$LN16@SetState:

; 403  : 		case KANTURU_MAYA_START1:
; 404  : 			this->SetState_START1();

  00071	8b ce		 mov	 ecx, esi
  00073	e8 00 00 00 00	 call	 ?SetState_START1@CKanturuBattleOfMaya@@QAEXXZ ; CKanturuBattleOfMaya::SetState_START1

; 405  : 			break;

  00078	e9 85 00 00 00	 jmp	 $LN20@SetState
$LN15@SetState:

; 406  : 		case KANTURU_MAYA1:
; 407  : 			this->SetState_MAYA1();

  0007d	8b ce		 mov	 ecx, esi
  0007f	e8 00 00 00 00	 call	 ?SetState_MAYA1@CKanturuBattleOfMaya@@QAEXXZ ; CKanturuBattleOfMaya::SetState_MAYA1

; 408  : 			break;

  00084	eb 7c		 jmp	 SHORT $LN20@SetState
$LN14@SetState:

; 409  : 		case KANTURU_MAYA_END1:
; 410  : 			this->SetState_END_MAYA1();

  00086	8b ce		 mov	 ecx, esi
  00088	e8 00 00 00 00	 call	 ?SetState_END_MAYA1@CKanturuBattleOfMaya@@QAEXXZ ; CKanturuBattleOfMaya::SetState_END_MAYA1

; 411  : 			break;

  0008d	eb 73		 jmp	 SHORT $LN20@SetState
$LN13@SetState:

; 412  : 		case KANTURU_MAYA_ENDCYCLE1:
; 413  : 			this->SetState_ENDCYCLE_MAYA1();

  0008f	8b ce		 mov	 ecx, esi
  00091	e8 00 00 00 00	 call	 ?SetState_ENDCYCLE_MAYA1@CKanturuBattleOfMaya@@QAEXXZ ; CKanturuBattleOfMaya::SetState_ENDCYCLE_MAYA1

; 414  : 			break;

  00096	eb 6a		 jmp	 SHORT $LN20@SetState
$LN12@SetState:

; 415  : 		case KANTURU_MAYA_STANBY2:
; 416  : 			this->SetState_STANBY2();

  00098	8b ce		 mov	 ecx, esi
  0009a	e8 00 00 00 00	 call	 ?SetState_STANBY2@CKanturuBattleOfMaya@@QAEXXZ ; CKanturuBattleOfMaya::SetState_STANBY2

; 417  : 			break;

  0009f	eb 61		 jmp	 SHORT $LN20@SetState
$LN11@SetState:

; 418  : 		case KANTURU_MAYA_START2:
; 419  : 			this->SetState_START2();

  000a1	8b ce		 mov	 ecx, esi
  000a3	e8 00 00 00 00	 call	 ?SetState_START2@CKanturuBattleOfMaya@@QAEXXZ ; CKanturuBattleOfMaya::SetState_START2

; 420  : 			break;

  000a8	eb 58		 jmp	 SHORT $LN20@SetState
$LN10@SetState:

; 421  : 		case KANTURU_MAYA2:
; 422  : 			this->SetState_MAYA2();

  000aa	8b ce		 mov	 ecx, esi
  000ac	e8 00 00 00 00	 call	 ?SetState_MAYA2@CKanturuBattleOfMaya@@QAEXXZ ; CKanturuBattleOfMaya::SetState_MAYA2

; 423  : 			break;

  000b1	eb 4f		 jmp	 SHORT $LN20@SetState
$LN9@SetState:

; 424  : 		case KANTURU_MAYA_END2:
; 425  : 			this->SetState_END_MAYA2();

  000b3	8b ce		 mov	 ecx, esi
  000b5	e8 00 00 00 00	 call	 ?SetState_END_MAYA2@CKanturuBattleOfMaya@@QAEXXZ ; CKanturuBattleOfMaya::SetState_END_MAYA2

; 426  : 			break;

  000ba	eb 46		 jmp	 SHORT $LN20@SetState
$LN8@SetState:

; 427  : 		case KANTURU_MAYA_ENDCYCLE2:
; 428  : 			this->SetState_ENDCYCLE_MAYA2();

  000bc	8b ce		 mov	 ecx, esi
  000be	e8 00 00 00 00	 call	 ?SetState_ENDCYCLE_MAYA2@CKanturuBattleOfMaya@@QAEXXZ ; CKanturuBattleOfMaya::SetState_ENDCYCLE_MAYA2

; 429  : 			break;

  000c3	eb 3d		 jmp	 SHORT $LN20@SetState
$LN7@SetState:

; 430  : 		case KANTURU_MAYA_STANBY3:
; 431  : 			this->SetState_STANBY3();

  000c5	8b ce		 mov	 ecx, esi
  000c7	e8 00 00 00 00	 call	 ?SetState_STANBY3@CKanturuBattleOfMaya@@QAEXXZ ; CKanturuBattleOfMaya::SetState_STANBY3

; 432  : 			break;

  000cc	eb 34		 jmp	 SHORT $LN20@SetState
$LN6@SetState:

; 433  : 		case KANTURU_MAYA_START3:
; 434  : 			this->SetState_START3();

  000ce	8b ce		 mov	 ecx, esi
  000d0	e8 00 00 00 00	 call	 ?SetState_START3@CKanturuBattleOfMaya@@QAEXXZ ; CKanturuBattleOfMaya::SetState_START3

; 435  : 			break;

  000d5	eb 2b		 jmp	 SHORT $LN20@SetState
$LN5@SetState:

; 436  : 		case KANTURU_MAYA3:
; 437  : 			this->SetState_MAYA3();

  000d7	8b ce		 mov	 ecx, esi
  000d9	e8 00 00 00 00	 call	 ?SetState_MAYA3@CKanturuBattleOfMaya@@QAEXXZ ; CKanturuBattleOfMaya::SetState_MAYA3

; 438  : 			break;

  000de	eb 22		 jmp	 SHORT $LN20@SetState
$LN4@SetState:

; 439  : 		case KANTURU_MAYA_END3:
; 440  : 			this->SetState_END_MAYA3();

  000e0	8b ce		 mov	 ecx, esi
  000e2	e8 00 00 00 00	 call	 ?SetState_END_MAYA3@CKanturuBattleOfMaya@@QAEXXZ ; CKanturuBattleOfMaya::SetState_END_MAYA3

; 441  : 			break;

  000e7	eb 19		 jmp	 SHORT $LN20@SetState
$LN3@SetState:

; 442  : 		case KANTURU_MAYA_ENDCYCLE3:
; 443  : 			this->SetState_ENDCYCLE_MAYA3();

  000e9	8b ce		 mov	 ecx, esi
  000eb	e8 00 00 00 00	 call	 ?SetState_ENDCYCLE_MAYA3@CKanturuBattleOfMaya@@QAEXXZ ; CKanturuBattleOfMaya::SetState_ENDCYCLE_MAYA3

; 444  : 			break;

  000f0	eb 10		 jmp	 SHORT $LN20@SetState
$LN2@SetState:

; 445  : 		case KANTURU_MAYA_END:
; 446  : 			this->SetState_END();

  000f2	8b ce		 mov	 ecx, esi
  000f4	e8 00 00 00 00	 call	 ?SetState_END@CKanturuBattleOfMaya@@QAEXXZ ; CKanturuBattleOfMaya::SetState_END

; 447  : 			break;

  000f9	eb 07		 jmp	 SHORT $LN20@SetState
$LN1@SetState:

; 448  : 		case KANTURU_MAYA_ENDCYCLE:
; 449  : 			this->SetState_ENDCYCLE();

  000fb	8b ce		 mov	 ecx, esi
  000fd	e8 00 00 00 00	 call	 ?SetState_ENDCYCLE@CKanturuBattleOfMaya@@QAEXXZ ; CKanturuBattleOfMaya::SetState_ENDCYCLE
$LN20@SetState:

; 450  : 			break;
; 451  : 	}
; 452  : 
; 453  : 	KANTURU_UTIL.NotifyKanturuChangeState(KANTURU_STATE_BATTLE_OF_MAYA, this->m_iBattleOfMayaState);

  00102	8b 4e 08	 mov	 ecx, DWORD PTR [esi+8]
  00105	51		 push	 ecx
  00106	6a 02		 push	 2
  00108	b9 00 00 00 00	 mov	 ecx, OFFSET _KANTURU_UTIL
  0010d	e8 00 00 00 00	 call	 ?NotifyKanturuChangeState@CKanturuUtil@@QAEXHH@Z ; CKanturuUtil::NotifyKanturuChangeState
  00112	5f		 pop	 edi
  00113	5e		 pop	 esi
  00114	5b		 pop	 ebx

; 454  : }

  00115	5d		 pop	 ebp
  00116	c2 04 00	 ret	 4
  00119	8d 49 00	 npad	 3
$LN29@SetState:
  0011c	00 00 00 00	 DD	 $LN19@SetState
  00120	00 00 00 00	 DD	 $LN18@SetState
  00124	00 00 00 00	 DD	 $LN17@SetState
  00128	00 00 00 00	 DD	 $LN16@SetState
  0012c	00 00 00 00	 DD	 $LN15@SetState
  00130	00 00 00 00	 DD	 $LN14@SetState
  00134	00 00 00 00	 DD	 $LN13@SetState
  00138	00 00 00 00	 DD	 $LN12@SetState
  0013c	00 00 00 00	 DD	 $LN11@SetState
  00140	00 00 00 00	 DD	 $LN10@SetState
  00144	00 00 00 00	 DD	 $LN9@SetState
  00148	00 00 00 00	 DD	 $LN8@SetState
  0014c	00 00 00 00	 DD	 $LN7@SetState
  00150	00 00 00 00	 DD	 $LN6@SetState
  00154	00 00 00 00	 DD	 $LN5@SetState
  00158	00 00 00 00	 DD	 $LN4@SetState
  0015c	00 00 00 00	 DD	 $LN3@SetState
  00160	00 00 00 00	 DD	 $LN2@SetState
  00164	00 00 00 00	 DD	 $LN1@SetState
?SetState@CKanturuBattleOfMaya@@QAEXH@Z ENDP		; CKanturuBattleOfMaya::SetState
_TEXT	ENDS
PUBLIC	?SetNextState@CKanturuBattleOfMaya@@QAEXH@Z	; CKanturuBattleOfMaya::SetNextState
; Function compile flags: /Ogtp
;	COMDAT ?SetNextState@CKanturuBattleOfMaya@@QAEXH@Z
_TEXT	SEGMENT
_iCurrentState$ = 8					; size = 4
?SetNextState@CKanturuBattleOfMaya@@QAEXH@Z PROC	; CKanturuBattleOfMaya::SetNextState, COMDAT
; _this$ = ecx

; 458  : {

  00000	55		 push	 ebp
  00001	8b ec		 mov	 ebp, esp

; 459  : 	int iNextState = iCurrentState + 1;

  00003	8b 45 08	 mov	 eax, DWORD PTR _iCurrentState$[ebp]
  00006	40		 inc	 eax

; 460  : 
; 461  : 	if ( iNextState >= KANTURU_MAYA_STATE_INFO )

  00007	83 f8 13	 cmp	 eax, 19			; 00000013H
  0000a	7c 02		 jl	 SHORT $LN1@SetNextSta

; 462  : 	{
; 463  : 		iNextState = KANTURU_MAYA_NONE;

  0000c	33 c0		 xor	 eax, eax
$LN1@SetNextSta:

; 464  : 	}
; 465  : 
; 466  : 	this->SetState(iNextState);

  0000e	50		 push	 eax
  0000f	e8 00 00 00 00	 call	 ?SetState@CKanturuBattleOfMaya@@QAEXH@Z ; CKanturuBattleOfMaya::SetState

; 467  : }

  00014	5d		 pop	 ebp
  00015	c2 04 00	 ret	 4
?SetNextState@CKanturuBattleOfMaya@@QAEXH@Z ENDP	; CKanturuBattleOfMaya::SetNextState
_TEXT	ENDS
PUBLIC	??_C@_0DH@CMOLGDMA@?$FL?5KANTURU?5?$FN?$FL?5BattleOfMaya?5?$FN?5Succ@ ; `string'
PUBLIC	?ProcState_START1@CKanturuBattleOfMaya@@QAEXXZ	; CKanturuBattleOfMaya::ProcState_START1
EXTRN	?NotifyKanturuUserMonsterCount@CKanturuUtil@@QAEXHH@Z:PROC ; CKanturuUtil::NotifyKanturuUserMonsterCount
EXTRN	?GetUserCount@CKanturuBattleUserMng@@QAEHXZ:PROC ; CKanturuBattleUserMng::GetUserCount
EXTRN	?KanturuMayaAct_IceStorm@CKanturuMaya@@QAEXH@Z:PROC ; CKanturuMaya::KanturuMayaAct_IceStorm
EXTRN	?IsExistAliveMonster@CKanturuMonsterMng@@QAEHXZ:PROC ; CKanturuMonsterMng::IsExistAliveMonster
;	COMDAT ??_C@_0DH@CMOLGDMA@?$FL?5KANTURU?5?$FN?$FL?5BattleOfMaya?5?$FN?5Succ@
; File e:\work\tranet_version\gs\gameserver\kanturumonstermng.h
CONST	SEGMENT
??_C@_0DH@CMOLGDMA@?$FL?5KANTURU?5?$FN?$FL?5BattleOfMaya?5?$FN?5Succ@ DB '['
	DB	' KANTURU ][ BattleOfMaya ] Success!! - DetailState:%d', 00H ; `string'
; Function compile flags: /Ogtp
; File e:\work\tranet_version\gs\gameserver\kanturubattleofmaya.cpp
CONST	ENDS
;	COMDAT ?ProcState_START1@CKanturuBattleOfMaya@@QAEXXZ
_TEXT	SEGMENT
?ProcState_START1@CKanturuBattleOfMaya@@QAEXXZ PROC	; CKanturuBattleOfMaya::ProcState_START1, COMDAT
; _this$ = ecx

; 788  : {

  00000	56		 push	 esi
  00001	8b f1		 mov	 esi, ecx

; 789  : 	if ( g_KanturuMonsterMng.IsExistAliveMonster() == FALSE )

  00003	b9 00 00 00 00	 mov	 ecx, OFFSET ?g_KanturuMonsterMng@@3VCKanturuMonsterMng@@A ; g_KanturuMonsterMng
  00008	e8 00 00 00 00	 call	 ?IsExistAliveMonster@CKanturuMonsterMng@@QAEHXZ ; CKanturuMonsterMng::IsExistAliveMonster
  0000d	85 c0		 test	 eax, eax
  0000f	75 29		 jne	 SHORT $LN2@ProcState_

; 790  : 	{
; 791  : 		this->SetSuccessValue(TRUE);
; 792  : 
; 793  : 		LogAddTD("[ KANTURU ][ BattleOfMaya ] Success!! - DetailState:%d",
; 794  : 			this->m_iBattleOfMayaState);

  00011	8b 46 08	 mov	 eax, DWORD PTR [esi+8]
  00014	50		 push	 eax
  00015	68 00 00 00 00	 push	 OFFSET ??_C@_0DH@CMOLGDMA@?$FL?5KANTURU?5?$FN?$FL?5BattleOfMaya?5?$FN?5Succ@
  0001a	c7 86 d4 01 00
	00 01 00 00 00	 mov	 DWORD PTR [esi+468], 1
  00024	ff 15 00 00 00
	00		 call	 DWORD PTR ?LogAddTD@@3P6AXPADZZA ; LogAddTD

; 795  : 
; 796  : 		this->SetNextState(this->m_iBattleOfMayaState);

  0002a	8b 4e 08	 mov	 ecx, DWORD PTR [esi+8]
  0002d	83 c4 08	 add	 esp, 8
  00030	51		 push	 ecx
  00031	8b ce		 mov	 ecx, esi
  00033	e8 00 00 00 00	 call	 ?SetNextState@CKanturuBattleOfMaya@@QAEXH@Z ; CKanturuBattleOfMaya::SetNextState
  00038	5e		 pop	 esi

; 803  : 	}
; 804  : }

  00039	c3		 ret	 0
$LN2@ProcState_:

; 797  : 	}
; 798  : 	else
; 799  : 	{
; 800  : 		this->m_KanturuMaya.KanturuMayaAct_IceStorm(this->m_iMayaIceStormUsingRate);

  0003a	8b 96 28 02 00
	00		 mov	 edx, DWORD PTR [esi+552]
  00040	52		 push	 edx
  00041	8d 8e dc 01 00
	00		 lea	 ecx, DWORD PTR [esi+476]
  00047	e8 00 00 00 00	 call	 ?KanturuMayaAct_IceStorm@CKanturuMaya@@QAEXH@Z ; CKanturuMaya::KanturuMayaAct_IceStorm

; 801  : 		KANTURU_UTIL.NotifyKanturuUserMonsterCount(g_KanturuMonsterMng.GetAliveMonsterCount(),
; 802  : 			g_KanturuBattleUserMng.GetUserCount());

  0004c	8b 35 6c 14 00
	00		 mov	 esi, DWORD PTR ?g_KanturuMonsterMng@@3VCKanturuMonsterMng@@A+5228
  00052	b9 00 00 00 00	 mov	 ecx, OFFSET ?g_KanturuBattleUserMng@@3VCKanturuBattleUserMng@@A ; g_KanturuBattleUserMng
  00057	e8 00 00 00 00	 call	 ?GetUserCount@CKanturuBattleUserMng@@QAEHXZ ; CKanturuBattleUserMng::GetUserCount
  0005c	50		 push	 eax
  0005d	56		 push	 esi
  0005e	b9 00 00 00 00	 mov	 ecx, OFFSET _KANTURU_UTIL
  00063	e8 00 00 00 00	 call	 ?NotifyKanturuUserMonsterCount@CKanturuUtil@@QAEXHH@Z ; CKanturuUtil::NotifyKanturuUserMonsterCount
  00068	5e		 pop	 esi

; 803  : 	}
; 804  : }

  00069	c3		 ret	 0
?ProcState_START1@CKanturuBattleOfMaya@@QAEXXZ ENDP	; CKanturuBattleOfMaya::ProcState_START1
_TEXT	ENDS
PUBLIC	?ProcState_MAYA1@CKanturuBattleOfMaya@@QAEXXZ	; CKanturuBattleOfMaya::ProcState_MAYA1
EXTRN	?KanturuMayaAct_Hands@CKanturuMaya@@QAEXXZ:PROC	; CKanturuMaya::KanturuMayaAct_Hands
EXTRN	?LogBattleWinnerUserInfo@CKanturuBattleUserMng@@QAEXEH@Z:PROC ; CKanturuBattleUserMng::LogBattleWinnerUserInfo
; Function compile flags: /Ogtp
;	COMDAT ?ProcState_MAYA1@CKanturuBattleOfMaya@@QAEXXZ
_TEXT	SEGMENT
?ProcState_MAYA1@CKanturuBattleOfMaya@@QAEXXZ PROC	; CKanturuBattleOfMaya::ProcState_MAYA1, COMDAT
; _this$ = ecx

; 808  : {

  00000	56		 push	 esi
  00001	8b f1		 mov	 esi, ecx

; 809  : 	if(this->m_iMayaLeftHandObjIndex == -1)//Season 4.5 addon

  00003	8b 86 f4 01 00
	00		 mov	 eax, DWORD PTR [esi+500]
  00009	83 f8 ff	 cmp	 eax, -1
  0000c	0f 84 a1 00 00
	00		 je	 $LN1@ProcState_@2

; 810  : 	{
; 811  : 		return;
; 812  : 	}
; 813  : 
; 814  : 	if ( gObj[this->m_iMayaLeftHandObjIndex].Live == FALSE )

  00012	8b 0d 00 00 00
	00		 mov	 ecx, DWORD PTR ?gObj@@3PAUOBJECTSTRUCT@@A ; gObj
  00018	69 c0 50 2b 00
	00		 imul	 eax, 11088		; 00002b50H
  0001e	80 7c 08 6a 00	 cmp	 BYTE PTR [eax+ecx+106], 0
  00023	0f 85 8c 00 00
	00		 jne	 $LN4@ProcState_@2

; 815  : 	{
; 816  : 		if ( this->m_iMayaHandDieTimeCounter == 0 )

  00029	83 be f0 01 00
	00 00		 cmp	 DWORD PTR [esi+496], 0
  00030	57		 push	 edi
  00031	8b 3d 00 00 00
	00		 mov	 edi, DWORD PTR __imp__GetTickCount@0
  00037	75 5f		 jne	 SHORT $LN3@ProcState_@2

; 817  : 		{
; 818  : 			this->SetSuccessValue(TRUE);
; 819  : 			this->SetSceneSuccessValue(TRUE);
; 820  : 
; 821  : 			LogAddTD("[ KANTURU ][ BattleOfMaya ] Success!! - DetailState:%d",
; 822  : 				this->m_iBattleOfMayaState);

  00039	8b 56 08	 mov	 edx, DWORD PTR [esi+8]
  0003c	53		 push	 ebx
  0003d	b8 01 00 00 00	 mov	 eax, 1
  00042	52		 push	 edx
  00043	68 00 00 00 00	 push	 OFFSET ??_C@_0DH@CMOLGDMA@?$FL?5KANTURU?5?$FN?$FL?5BattleOfMaya?5?$FN?5Succ@
  00048	89 86 d4 01 00
	00		 mov	 DWORD PTR [esi+468], eax
  0004e	89 86 d8 01 00
	00		 mov	 DWORD PTR [esi+472], eax
  00054	ff 15 00 00 00
	00		 call	 DWORD PTR ?LogAddTD@@3P6AXPADZZA ; LogAddTD

; 823  : 
; 824  : 			g_KanturuBattleUserMng.LogBattleWinnerUserInfo(0,
; 825  : 				this->m_BattleTimeInfo[this->m_iSceneState].GetElapsedTime());

  0005a	8b 46 0c	 mov	 eax, DWORD PTR [esi+12]
  0005d	8d 04 80	 lea	 eax, DWORD PTR [eax+eax*4]
  00060	8b 5c 86 20	 mov	 ebx, DWORD PTR [esi+eax*4+32]
  00064	83 c4 08	 add	 esp, 8
  00067	ff d7		 call	 edi
  00069	2b c3		 sub	 eax, ebx
  0006b	50		 push	 eax
  0006c	6a 00		 push	 0
  0006e	b9 00 00 00 00	 mov	 ecx, OFFSET ?g_KanturuBattleUserMng@@3VCKanturuBattleUserMng@@A ; g_KanturuBattleUserMng
  00073	e8 00 00 00 00	 call	 ?LogBattleWinnerUserInfo@CKanturuBattleUserMng@@QAEXEH@Z ; CKanturuBattleUserMng::LogBattleWinnerUserInfo

; 826  : 
; 827  : 			KANTURU_UTIL.NotifyKanturuUserMonsterCount(0,
; 828  : 				g_KanturuBattleUserMng.GetUserCount());

  00078	b9 00 00 00 00	 mov	 ecx, OFFSET ?g_KanturuBattleUserMng@@3VCKanturuBattleUserMng@@A ; g_KanturuBattleUserMng
  0007d	e8 00 00 00 00	 call	 ?GetUserCount@CKanturuBattleUserMng@@QAEHXZ ; CKanturuBattleUserMng::GetUserCount
  00082	50		 push	 eax
  00083	6a 00		 push	 0
  00085	b9 00 00 00 00	 mov	 ecx, OFFSET _KANTURU_UTIL
  0008a	e8 00 00 00 00	 call	 ?NotifyKanturuUserMonsterCount@CKanturuUtil@@QAEXHH@Z ; CKanturuUtil::NotifyKanturuUserMonsterCount

; 829  : 
; 830  : 			this->m_iMayaHandDieTimeCounter = GetTickCount();

  0008f	ff d7		 call	 edi
  00091	89 86 f0 01 00
	00		 mov	 DWORD PTR [esi+496], eax
  00097	5b		 pop	 ebx
$LN3@ProcState_@2:

; 831  : 		}
; 832  : 
; 833  : 		if ( (GetTickCount() - this->m_iMayaHandDieTimeCounter ) >= 3000 )

  00098	ff d7		 call	 edi
  0009a	2b 86 f0 01 00
	00		 sub	 eax, DWORD PTR [esi+496]
  000a0	5f		 pop	 edi
  000a1	3d b8 0b 00 00	 cmp	 eax, 3000		; 00000bb8H
  000a6	72 0b		 jb	 SHORT $LN1@ProcState_@2

; 834  : 		{
; 835  : 			this->SetNextState(this->m_iBattleOfMayaState);

  000a8	8b 4e 08	 mov	 ecx, DWORD PTR [esi+8]
  000ab	51		 push	 ecx
  000ac	8b ce		 mov	 ecx, esi
  000ae	e8 00 00 00 00	 call	 ?SetNextState@CKanturuBattleOfMaya@@QAEXH@Z ; CKanturuBattleOfMaya::SetNextState
$LN1@ProcState_@2:
  000b3	5e		 pop	 esi

; 845  : 	}
; 846  : }

  000b4	c3		 ret	 0
$LN4@ProcState_@2:

; 836  : 		}
; 837  : 	}
; 838  : 	else
; 839  : 	{
; 840  : 		KANTURU_UTIL.NotifyKanturuUserMonsterCount(1,
; 841  : 			g_KanturuBattleUserMng.GetUserCount());

  000b5	b9 00 00 00 00	 mov	 ecx, OFFSET ?g_KanturuBattleUserMng@@3VCKanturuBattleUserMng@@A ; g_KanturuBattleUserMng
  000ba	e8 00 00 00 00	 call	 ?GetUserCount@CKanturuBattleUserMng@@QAEHXZ ; CKanturuBattleUserMng::GetUserCount
  000bf	50		 push	 eax
  000c0	6a 01		 push	 1
  000c2	b9 00 00 00 00	 mov	 ecx, OFFSET _KANTURU_UTIL
  000c7	e8 00 00 00 00	 call	 ?NotifyKanturuUserMonsterCount@CKanturuUtil@@QAEXHH@Z ; CKanturuUtil::NotifyKanturuUserMonsterCount

; 842  : 
; 843  : 		this->ChangeAI(this->m_iMayaHandGroupNumber[0]);

  000cc	8b 96 18 02 00
	00		 mov	 edx, DWORD PTR [esi+536]
  000d2	52		 push	 edx
  000d3	8b ce		 mov	 ecx, esi
  000d5	e8 00 00 00 00	 call	 ?ChangeAI@CKanturuBattleOfMaya@@QAEXH@Z ; CKanturuBattleOfMaya::ChangeAI

; 844  : 		this->m_KanturuMaya.KanturuMayaAct_Hands();

  000da	8d 8e dc 01 00
	00		 lea	 ecx, DWORD PTR [esi+476]
  000e0	5e		 pop	 esi
  000e1	e9 00 00 00 00	 jmp	 ?KanturuMayaAct_Hands@CKanturuMaya@@QAEXXZ ; CKanturuMaya::KanturuMayaAct_Hands
?ProcState_MAYA1@CKanturuBattleOfMaya@@QAEXXZ ENDP	; CKanturuBattleOfMaya::ProcState_MAYA1
_TEXT	ENDS
PUBLIC	?ProcState_START2@CKanturuBattleOfMaya@@QAEXXZ	; CKanturuBattleOfMaya::ProcState_START2
; Function compile flags: /Ogtp
;	COMDAT ?ProcState_START2@CKanturuBattleOfMaya@@QAEXXZ
_TEXT	SEGMENT
?ProcState_START2@CKanturuBattleOfMaya@@QAEXXZ PROC	; CKanturuBattleOfMaya::ProcState_START2, COMDAT
; _this$ = ecx

; 870  : {

  00000	56		 push	 esi
  00001	8b f1		 mov	 esi, ecx

; 871  : 	if ( g_KanturuMonsterMng.IsExistAliveMonster() == FALSE )

  00003	b9 00 00 00 00	 mov	 ecx, OFFSET ?g_KanturuMonsterMng@@3VCKanturuMonsterMng@@A ; g_KanturuMonsterMng
  00008	e8 00 00 00 00	 call	 ?IsExistAliveMonster@CKanturuMonsterMng@@QAEHXZ ; CKanturuMonsterMng::IsExistAliveMonster
  0000d	85 c0		 test	 eax, eax
  0000f	75 29		 jne	 SHORT $LN2@ProcState_@3

; 872  : 	{
; 873  : 		this->SetSuccessValue(TRUE);
; 874  : 
; 875  : 		LogAddTD("[ KANTURU ][ BattleOfMaya ] Success!! - DetailState:%d",
; 876  : 			this->m_iBattleOfMayaState);

  00011	8b 46 08	 mov	 eax, DWORD PTR [esi+8]
  00014	50		 push	 eax
  00015	68 00 00 00 00	 push	 OFFSET ??_C@_0DH@CMOLGDMA@?$FL?5KANTURU?5?$FN?$FL?5BattleOfMaya?5?$FN?5Succ@
  0001a	c7 86 d4 01 00
	00 01 00 00 00	 mov	 DWORD PTR [esi+468], 1
  00024	ff 15 00 00 00
	00		 call	 DWORD PTR ?LogAddTD@@3P6AXPADZZA ; LogAddTD

; 877  : 
; 878  : 		this->SetNextState(this->m_iBattleOfMayaState);

  0002a	8b 4e 08	 mov	 ecx, DWORD PTR [esi+8]
  0002d	83 c4 08	 add	 esp, 8
  00030	51		 push	 ecx
  00031	8b ce		 mov	 ecx, esi
  00033	e8 00 00 00 00	 call	 ?SetNextState@CKanturuBattleOfMaya@@QAEXH@Z ; CKanturuBattleOfMaya::SetNextState
  00038	5e		 pop	 esi

; 885  : 	}
; 886  : }

  00039	c3		 ret	 0
$LN2@ProcState_@3:

; 879  : 	}
; 880  : 	else
; 881  : 	{
; 882  : 		this->m_KanturuMaya.KanturuMayaAct_IceStorm(this->m_iMayaIceStormUsingRate);

  0003a	8b 96 28 02 00
	00		 mov	 edx, DWORD PTR [esi+552]
  00040	52		 push	 edx
  00041	8d 8e dc 01 00
	00		 lea	 ecx, DWORD PTR [esi+476]
  00047	e8 00 00 00 00	 call	 ?KanturuMayaAct_IceStorm@CKanturuMaya@@QAEXH@Z ; CKanturuMaya::KanturuMayaAct_IceStorm

; 883  : 		KANTURU_UTIL.NotifyKanturuUserMonsterCount(g_KanturuMonsterMng.GetAliveMonsterCount(),
; 884  : 			g_KanturuBattleUserMng.GetUserCount());

  0004c	8b 35 6c 14 00
	00		 mov	 esi, DWORD PTR ?g_KanturuMonsterMng@@3VCKanturuMonsterMng@@A+5228
  00052	b9 00 00 00 00	 mov	 ecx, OFFSET ?g_KanturuBattleUserMng@@3VCKanturuBattleUserMng@@A ; g_KanturuBattleUserMng
  00057	e8 00 00 00 00	 call	 ?GetUserCount@CKanturuBattleUserMng@@QAEHXZ ; CKanturuBattleUserMng::GetUserCount
  0005c	50		 push	 eax
  0005d	56		 push	 esi
  0005e	b9 00 00 00 00	 mov	 ecx, OFFSET _KANTURU_UTIL
  00063	e8 00 00 00 00	 call	 ?NotifyKanturuUserMonsterCount@CKanturuUtil@@QAEXHH@Z ; CKanturuUtil::NotifyKanturuUserMonsterCount
  00068	5e		 pop	 esi

; 885  : 	}
; 886  : }

  00069	c3		 ret	 0
?ProcState_START2@CKanturuBattleOfMaya@@QAEXXZ ENDP	; CKanturuBattleOfMaya::ProcState_START2
_TEXT	ENDS
PUBLIC	?ProcState_MAYA2@CKanturuBattleOfMaya@@QAEXXZ	; CKanturuBattleOfMaya::ProcState_MAYA2
; Function compile flags: /Ogtp
;	COMDAT ?ProcState_MAYA2@CKanturuBattleOfMaya@@QAEXXZ
_TEXT	SEGMENT
?ProcState_MAYA2@CKanturuBattleOfMaya@@QAEXXZ PROC	; CKanturuBattleOfMaya::ProcState_MAYA2, COMDAT
; _this$ = ecx

; 891  : {

  00000	56		 push	 esi
  00001	8b f1		 mov	 esi, ecx

; 892  : 	if(this->m_iMayaRightHandObjIndex == -1)//Season 4.5 addon

  00003	8b 86 f8 01 00
	00		 mov	 eax, DWORD PTR [esi+504]
  00009	83 f8 ff	 cmp	 eax, -1
  0000c	0f 84 a1 00 00
	00		 je	 $LN1@ProcState_@4

; 893  : 	{
; 894  : 		return;
; 895  : 	}
; 896  : 
; 897  : 	if ( gObj[this->m_iMayaRightHandObjIndex].Live == FALSE )

  00012	8b 0d 00 00 00
	00		 mov	 ecx, DWORD PTR ?gObj@@3PAUOBJECTSTRUCT@@A ; gObj
  00018	69 c0 50 2b 00
	00		 imul	 eax, 11088		; 00002b50H
  0001e	80 7c 08 6a 00	 cmp	 BYTE PTR [eax+ecx+106], 0
  00023	0f 85 8c 00 00
	00		 jne	 $LN4@ProcState_@4

; 898  : 	{
; 899  : 		if ( this->m_iMayaHandDieTimeCounter == 0 )

  00029	83 be f0 01 00
	00 00		 cmp	 DWORD PTR [esi+496], 0
  00030	57		 push	 edi
  00031	8b 3d 00 00 00
	00		 mov	 edi, DWORD PTR __imp__GetTickCount@0
  00037	75 5f		 jne	 SHORT $LN3@ProcState_@4

; 900  : 		{
; 901  : 			this->SetSuccessValue(TRUE);
; 902  : 			this->SetSceneSuccessValue(TRUE);
; 903  : 
; 904  : 			LogAddTD("[ KANTURU ][ BattleOfMaya ] Success!! - DetailState:%d",
; 905  : 				this->m_iBattleOfMayaState);

  00039	8b 56 08	 mov	 edx, DWORD PTR [esi+8]
  0003c	53		 push	 ebx
  0003d	b8 01 00 00 00	 mov	 eax, 1
  00042	52		 push	 edx
  00043	68 00 00 00 00	 push	 OFFSET ??_C@_0DH@CMOLGDMA@?$FL?5KANTURU?5?$FN?$FL?5BattleOfMaya?5?$FN?5Succ@
  00048	89 86 d4 01 00
	00		 mov	 DWORD PTR [esi+468], eax
  0004e	89 86 d8 01 00
	00		 mov	 DWORD PTR [esi+472], eax
  00054	ff 15 00 00 00
	00		 call	 DWORD PTR ?LogAddTD@@3P6AXPADZZA ; LogAddTD

; 906  : 
; 907  : 			g_KanturuBattleUserMng.LogBattleWinnerUserInfo(1,
; 908  : 				this->m_BattleTimeInfo[this->m_iSceneState].GetElapsedTime());

  0005a	8b 46 0c	 mov	 eax, DWORD PTR [esi+12]
  0005d	8d 04 80	 lea	 eax, DWORD PTR [eax+eax*4]
  00060	8b 5c 86 20	 mov	 ebx, DWORD PTR [esi+eax*4+32]
  00064	83 c4 08	 add	 esp, 8
  00067	ff d7		 call	 edi
  00069	2b c3		 sub	 eax, ebx
  0006b	50		 push	 eax
  0006c	6a 01		 push	 1
  0006e	b9 00 00 00 00	 mov	 ecx, OFFSET ?g_KanturuBattleUserMng@@3VCKanturuBattleUserMng@@A ; g_KanturuBattleUserMng
  00073	e8 00 00 00 00	 call	 ?LogBattleWinnerUserInfo@CKanturuBattleUserMng@@QAEXEH@Z ; CKanturuBattleUserMng::LogBattleWinnerUserInfo

; 909  : 
; 910  : 			KANTURU_UTIL.NotifyKanturuUserMonsterCount(0,
; 911  : 				g_KanturuBattleUserMng.GetUserCount());

  00078	b9 00 00 00 00	 mov	 ecx, OFFSET ?g_KanturuBattleUserMng@@3VCKanturuBattleUserMng@@A ; g_KanturuBattleUserMng
  0007d	e8 00 00 00 00	 call	 ?GetUserCount@CKanturuBattleUserMng@@QAEHXZ ; CKanturuBattleUserMng::GetUserCount
  00082	50		 push	 eax
  00083	6a 00		 push	 0
  00085	b9 00 00 00 00	 mov	 ecx, OFFSET _KANTURU_UTIL
  0008a	e8 00 00 00 00	 call	 ?NotifyKanturuUserMonsterCount@CKanturuUtil@@QAEXHH@Z ; CKanturuUtil::NotifyKanturuUserMonsterCount

; 912  : 
; 913  : 			this->m_iMayaHandDieTimeCounter = GetTickCount();

  0008f	ff d7		 call	 edi
  00091	89 86 f0 01 00
	00		 mov	 DWORD PTR [esi+496], eax
  00097	5b		 pop	 ebx
$LN3@ProcState_@4:

; 914  : 		}
; 915  : 
; 916  : 		if ( (GetTickCount() - this->m_iMayaHandDieTimeCounter ) >= 3000 )

  00098	ff d7		 call	 edi
  0009a	2b 86 f0 01 00
	00		 sub	 eax, DWORD PTR [esi+496]
  000a0	5f		 pop	 edi
  000a1	3d b8 0b 00 00	 cmp	 eax, 3000		; 00000bb8H
  000a6	72 0b		 jb	 SHORT $LN1@ProcState_@4

; 917  : 		{
; 918  : 			this->SetNextState(this->m_iBattleOfMayaState);

  000a8	8b 4e 08	 mov	 ecx, DWORD PTR [esi+8]
  000ab	51		 push	 ecx
  000ac	8b ce		 mov	 ecx, esi
  000ae	e8 00 00 00 00	 call	 ?SetNextState@CKanturuBattleOfMaya@@QAEXH@Z ; CKanturuBattleOfMaya::SetNextState
$LN1@ProcState_@4:
  000b3	5e		 pop	 esi

; 928  : 	}
; 929  : }

  000b4	c3		 ret	 0
$LN4@ProcState_@4:

; 919  : 		}
; 920  : 	}
; 921  : 	else
; 922  : 	{
; 923  : 		KANTURU_UTIL.NotifyKanturuUserMonsterCount(1,
; 924  : 			g_KanturuBattleUserMng.GetUserCount());

  000b5	b9 00 00 00 00	 mov	 ecx, OFFSET ?g_KanturuBattleUserMng@@3VCKanturuBattleUserMng@@A ; g_KanturuBattleUserMng
  000ba	e8 00 00 00 00	 call	 ?GetUserCount@CKanturuBattleUserMng@@QAEHXZ ; CKanturuBattleUserMng::GetUserCount
  000bf	50		 push	 eax
  000c0	6a 01		 push	 1
  000c2	b9 00 00 00 00	 mov	 ecx, OFFSET _KANTURU_UTIL
  000c7	e8 00 00 00 00	 call	 ?NotifyKanturuUserMonsterCount@CKanturuUtil@@QAEXHH@Z ; CKanturuUtil::NotifyKanturuUserMonsterCount

; 925  : 
; 926  : 		this->ChangeAI(this->m_iMayaHandGroupNumber[1]);

  000cc	8b 96 1c 02 00
	00		 mov	 edx, DWORD PTR [esi+540]
  000d2	52		 push	 edx
  000d3	8b ce		 mov	 ecx, esi
  000d5	e8 00 00 00 00	 call	 ?ChangeAI@CKanturuBattleOfMaya@@QAEXH@Z ; CKanturuBattleOfMaya::ChangeAI

; 927  : 		this->m_KanturuMaya.KanturuMayaAct_Hands();

  000da	8d 8e dc 01 00
	00		 lea	 ecx, DWORD PTR [esi+476]
  000e0	5e		 pop	 esi
  000e1	e9 00 00 00 00	 jmp	 ?KanturuMayaAct_Hands@CKanturuMaya@@QAEXXZ ; CKanturuMaya::KanturuMayaAct_Hands
?ProcState_MAYA2@CKanturuBattleOfMaya@@QAEXXZ ENDP	; CKanturuBattleOfMaya::ProcState_MAYA2
_TEXT	ENDS
PUBLIC	?ProcState_START3@CKanturuBattleOfMaya@@QAEXXZ	; CKanturuBattleOfMaya::ProcState_START3
; Function compile flags: /Ogtp
;	COMDAT ?ProcState_START3@CKanturuBattleOfMaya@@QAEXXZ
_TEXT	SEGMENT
?ProcState_START3@CKanturuBattleOfMaya@@QAEXXZ PROC	; CKanturuBattleOfMaya::ProcState_START3, COMDAT
; _this$ = ecx

; 951  : {

  00000	56		 push	 esi
  00001	8b f1		 mov	 esi, ecx

; 952  : 	if ( g_KanturuMonsterMng.IsExistAliveMonster() == FALSE )

  00003	b9 00 00 00 00	 mov	 ecx, OFFSET ?g_KanturuMonsterMng@@3VCKanturuMonsterMng@@A ; g_KanturuMonsterMng
  00008	e8 00 00 00 00	 call	 ?IsExistAliveMonster@CKanturuMonsterMng@@QAEHXZ ; CKanturuMonsterMng::IsExistAliveMonster
  0000d	85 c0		 test	 eax, eax
  0000f	75 29		 jne	 SHORT $LN2@ProcState_@5

; 953  : 	{
; 954  : 		this->SetSuccessValue(TRUE);
; 955  : 
; 956  : 		LogAddTD("[ KANTURU ][ BattleOfMaya ] Success!! - DetailState:%d",
; 957  : 			this->m_iBattleOfMayaState);

  00011	8b 46 08	 mov	 eax, DWORD PTR [esi+8]
  00014	50		 push	 eax
  00015	68 00 00 00 00	 push	 OFFSET ??_C@_0DH@CMOLGDMA@?$FL?5KANTURU?5?$FN?$FL?5BattleOfMaya?5?$FN?5Succ@
  0001a	c7 86 d4 01 00
	00 01 00 00 00	 mov	 DWORD PTR [esi+468], 1
  00024	ff 15 00 00 00
	00		 call	 DWORD PTR ?LogAddTD@@3P6AXPADZZA ; LogAddTD

; 958  : 
; 959  : 		this->SetNextState(this->m_iBattleOfMayaState);

  0002a	8b 4e 08	 mov	 ecx, DWORD PTR [esi+8]
  0002d	83 c4 08	 add	 esp, 8
  00030	51		 push	 ecx
  00031	8b ce		 mov	 ecx, esi
  00033	e8 00 00 00 00	 call	 ?SetNextState@CKanturuBattleOfMaya@@QAEXH@Z ; CKanturuBattleOfMaya::SetNextState
  00038	5e		 pop	 esi

; 966  : 	}
; 967  : }

  00039	c3		 ret	 0
$LN2@ProcState_@5:

; 960  : 	}
; 961  : 	else
; 962  : 	{
; 963  : 		this->m_KanturuMaya.KanturuMayaAct_IceStorm(this->m_iMayaIceStormUsingRate);

  0003a	8b 96 28 02 00
	00		 mov	 edx, DWORD PTR [esi+552]
  00040	52		 push	 edx
  00041	8d 8e dc 01 00
	00		 lea	 ecx, DWORD PTR [esi+476]
  00047	e8 00 00 00 00	 call	 ?KanturuMayaAct_IceStorm@CKanturuMaya@@QAEXH@Z ; CKanturuMaya::KanturuMayaAct_IceStorm

; 964  : 		KANTURU_UTIL.NotifyKanturuUserMonsterCount(g_KanturuMonsterMng.GetAliveMonsterCount(),
; 965  : 			g_KanturuBattleUserMng.GetUserCount());

  0004c	8b 35 6c 14 00
	00		 mov	 esi, DWORD PTR ?g_KanturuMonsterMng@@3VCKanturuMonsterMng@@A+5228
  00052	b9 00 00 00 00	 mov	 ecx, OFFSET ?g_KanturuBattleUserMng@@3VCKanturuBattleUserMng@@A ; g_KanturuBattleUserMng
  00057	e8 00 00 00 00	 call	 ?GetUserCount@CKanturuBattleUserMng@@QAEHXZ ; CKanturuBattleUserMng::GetUserCount
  0005c	50		 push	 eax
  0005d	56		 push	 esi
  0005e	b9 00 00 00 00	 mov	 ecx, OFFSET _KANTURU_UTIL
  00063	e8 00 00 00 00	 call	 ?NotifyKanturuUserMonsterCount@CKanturuUtil@@QAEXHH@Z ; CKanturuUtil::NotifyKanturuUserMonsterCount
  00068	5e		 pop	 esi

; 966  : 	}
; 967  : }

  00069	c3		 ret	 0
?ProcState_START3@CKanturuBattleOfMaya@@QAEXXZ ENDP	; CKanturuBattleOfMaya::ProcState_START3
_TEXT	ENDS
PUBLIC	?ProcState_MAYA3@CKanturuBattleOfMaya@@QAEXXZ	; CKanturuBattleOfMaya::ProcState_MAYA3
; Function compile flags: /Ogtp
;	COMDAT ?ProcState_MAYA3@CKanturuBattleOfMaya@@QAEXXZ
_TEXT	SEGMENT
_iAliveCount$ = -4					; size = 4
?ProcState_MAYA3@CKanturuBattleOfMaya@@QAEXXZ PROC	; CKanturuBattleOfMaya::ProcState_MAYA3, COMDAT
; _this$ = ecx

; 972  : {

  00000	55		 push	 ebp
  00001	8b ec		 mov	 ebp, esp
  00003	51		 push	 ecx
  00004	56		 push	 esi
  00005	8b f1		 mov	 esi, ecx

; 973  : 	int iAliveCount = 0;
; 974  : 
; 975  : 	//Season 4.5 change
; 976  : 	if ( this->m_iMayaLeftHandObjIndex != -1 && gObj[this->m_iMayaLeftHandObjIndex].Live != FALSE )

  00007	8b 86 f4 01 00
	00		 mov	 eax, DWORD PTR [esi+500]
  0000d	8b 0d 00 00 00
	00		 mov	 ecx, DWORD PTR ?gObj@@3PAUOBJECTSTRUCT@@A ; gObj
  00013	c7 45 fc 00 00
	00 00		 mov	 DWORD PTR _iAliveCount$[ebp], 0
  0001a	ba 01 00 00 00	 mov	 edx, 1
  0001f	83 f8 ff	 cmp	 eax, -1
  00022	74 10		 je	 SHORT $LN5@ProcState_@6
  00024	69 c0 50 2b 00
	00		 imul	 eax, 11088		; 00002b50H
  0002a	80 7c 08 6a 00	 cmp	 BYTE PTR [eax+ecx+106], 0
  0002f	74 03		 je	 SHORT $LN5@ProcState_@6

; 977  : 	{
; 978  : 		iAliveCount++;

  00031	89 55 fc	 mov	 DWORD PTR _iAliveCount$[ebp], edx
$LN5@ProcState_@6:

; 979  : 	}
; 980  : 	//Season 4.5 change
; 981  : 	if ( this->m_iMayaRightHandObjIndex != -1 && gObj[this->m_iMayaRightHandObjIndex].Live != FALSE )

  00034	8b 86 f8 01 00
	00		 mov	 eax, DWORD PTR [esi+504]
  0003a	83 f8 ff	 cmp	 eax, -1
  0003d	74 10		 je	 SHORT $LN18@ProcState_@6
  0003f	69 c0 50 2b 00
	00		 imul	 eax, 11088		; 00002b50H
  00045	80 7c 08 6a 00	 cmp	 BYTE PTR [eax+ecx+106], 0
  0004a	74 03		 je	 SHORT $LN18@ProcState_@6

; 982  : 	{
; 983  : 		iAliveCount++;

  0004c	01 55 fc	 add	 DWORD PTR _iAliveCount$[ebp], edx
$LN18@ProcState_@6:

; 984  : 	}
; 985  : 
; 986  : 	if ( iAliveCount == 0 )

  0004f	83 7d fc 00	 cmp	 DWORD PTR _iAliveCount$[ebp], 0
  00053	75 73		 jne	 SHORT $LN17@ProcState_@6

; 987  : 	{
; 988  : 		if ( this->m_iMayaHandDieTimeCounter == 0 )

  00055	83 be f0 01 00
	00 00		 cmp	 DWORD PTR [esi+496], 0
  0005c	57		 push	 edi
  0005d	8b 3d 00 00 00
	00		 mov	 edi, DWORD PTR __imp__GetTickCount@0
  00063	75 43		 jne	 SHORT $LN16@ProcState_@6

; 989  : 		{
; 990  : 			this->SetSuccessValue(TRUE);
; 991  : 			this->SetSceneSuccessValue(TRUE);
; 992  : 
; 993  : 			LogAddTD("[ KANTURU ][ BattleOfMaya ] Success!! - DetailState:%d",
; 994  : 				this->m_iBattleOfMayaState);

  00065	8b 46 08	 mov	 eax, DWORD PTR [esi+8]
  00068	53		 push	 ebx
  00069	50		 push	 eax
  0006a	68 00 00 00 00	 push	 OFFSET ??_C@_0DH@CMOLGDMA@?$FL?5KANTURU?5?$FN?$FL?5BattleOfMaya?5?$FN?5Succ@
  0006f	89 96 d4 01 00
	00		 mov	 DWORD PTR [esi+468], edx
  00075	89 96 d8 01 00
	00		 mov	 DWORD PTR [esi+472], edx
  0007b	ff 15 00 00 00
	00		 call	 DWORD PTR ?LogAddTD@@3P6AXPADZZA ; LogAddTD

; 995  : 
; 996  : 			g_KanturuBattleUserMng.LogBattleWinnerUserInfo(2,
; 997  : 				this->m_BattleTimeInfo[this->m_iSceneState].GetElapsedTime());

  00081	8b 46 0c	 mov	 eax, DWORD PTR [esi+12]
  00084	8d 0c 80	 lea	 ecx, DWORD PTR [eax+eax*4]
  00087	8b 5c 8e 20	 mov	 ebx, DWORD PTR [esi+ecx*4+32]
  0008b	83 c4 08	 add	 esp, 8
  0008e	ff d7		 call	 edi
  00090	2b c3		 sub	 eax, ebx
  00092	50		 push	 eax
  00093	6a 02		 push	 2
  00095	b9 00 00 00 00	 mov	 ecx, OFFSET ?g_KanturuBattleUserMng@@3VCKanturuBattleUserMng@@A ; g_KanturuBattleUserMng
  0009a	e8 00 00 00 00	 call	 ?LogBattleWinnerUserInfo@CKanturuBattleUserMng@@QAEXEH@Z ; CKanturuBattleUserMng::LogBattleWinnerUserInfo

; 998  : 
; 999  : 			this->m_iMayaHandDieTimeCounter = GetTickCount();

  0009f	ff d7		 call	 edi
  000a1	89 86 f0 01 00
	00		 mov	 DWORD PTR [esi+496], eax
  000a7	5b		 pop	 ebx
$LN16@ProcState_@6:

; 1000 : 		}
; 1001 : 
; 1002 : 		if ( (GetTickCount() - this->m_iMayaHandDieTimeCounter ) >= 3000 )

  000a8	ff d7		 call	 edi
  000aa	2b 86 f0 01 00
	00		 sub	 eax, DWORD PTR [esi+496]
  000b0	5f		 pop	 edi
  000b1	3d b8 0b 00 00	 cmp	 eax, 3000		; 00000bb8H
  000b6	72 10		 jb	 SHORT $LN17@ProcState_@6

; 1003 : 		{
; 1004 : 			this->SetNextState(this->m_iBattleOfMayaState);

  000b8	8b 56 08	 mov	 edx, DWORD PTR [esi+8]
  000bb	52		 push	 edx
  000bc	8b ce		 mov	 ecx, esi
  000be	e8 00 00 00 00	 call	 ?SetNextState@CKanturuBattleOfMaya@@QAEXH@Z ; CKanturuBattleOfMaya::SetNextState
  000c3	5e		 pop	 esi

; 1014 : }

  000c4	8b e5		 mov	 esp, ebp
  000c6	5d		 pop	 ebp
  000c7	c3		 ret	 0
$LN17@ProcState_@6:

; 1005 : 			return;
; 1006 : 		}
; 1007 : 	}
; 1008 : 
; 1009 : 	KANTURU_UTIL.NotifyKanturuUserMonsterCount(iAliveCount,
; 1010 : 		g_KanturuBattleUserMng.GetUserCount());

  000c8	b9 00 00 00 00	 mov	 ecx, OFFSET ?g_KanturuBattleUserMng@@3VCKanturuBattleUserMng@@A ; g_KanturuBattleUserMng
  000cd	e8 00 00 00 00	 call	 ?GetUserCount@CKanturuBattleUserMng@@QAEHXZ ; CKanturuBattleUserMng::GetUserCount
  000d2	50		 push	 eax
  000d3	8b 45 fc	 mov	 eax, DWORD PTR _iAliveCount$[ebp]
  000d6	50		 push	 eax
  000d7	b9 00 00 00 00	 mov	 ecx, OFFSET _KANTURU_UTIL
  000dc	e8 00 00 00 00	 call	 ?NotifyKanturuUserMonsterCount@CKanturuUtil@@QAEXHH@Z ; CKanturuUtil::NotifyKanturuUserMonsterCount

; 1011 : 
; 1012 : 	this->ChangeAI(this->m_iMayaHandGroupNumber[2]);

  000e1	8b 8e 20 02 00
	00		 mov	 ecx, DWORD PTR [esi+544]
  000e7	51		 push	 ecx
  000e8	8b ce		 mov	 ecx, esi
  000ea	e8 00 00 00 00	 call	 ?ChangeAI@CKanturuBattleOfMaya@@QAEXH@Z ; CKanturuBattleOfMaya::ChangeAI

; 1013 : 	this->m_KanturuMaya.KanturuMayaAct_Hands();

  000ef	8d 8e dc 01 00
	00		 lea	 ecx, DWORD PTR [esi+476]
  000f5	e8 00 00 00 00	 call	 ?KanturuMayaAct_Hands@CKanturuMaya@@QAEXXZ ; CKanturuMaya::KanturuMayaAct_Hands
  000fa	5e		 pop	 esi

; 1014 : }

  000fb	8b e5		 mov	 esp, ebp
  000fd	5d		 pop	 ebp
  000fe	c3		 ret	 0
?ProcState_MAYA3@CKanturuBattleOfMaya@@QAEXXZ ENDP	; CKanturuBattleOfMaya::ProcState_MAYA3
_TEXT	ENDS
PUBLIC	??_C@_0DM@MNFIKCME@?$FL?5KANTURU?5?$FN?$FL?5BattleOfMaya?5?$FN?5Fail@ ; `string'
PUBLIC	?CheckStateTime@CKanturuBattleOfMaya@@QAEHXZ	; CKanturuBattleOfMaya::CheckStateTime
;	COMDAT ??_C@_0DM@MNFIKCME@?$FL?5KANTURU?5?$FN?$FL?5BattleOfMaya?5?$FN?5Fail@
; File e:\work\tranet_version\gs\gameserver\kanturubattleofmaya.h
CONST	SEGMENT
??_C@_0DM@MNFIKCME@?$FL?5KANTURU?5?$FN?$FL?5BattleOfMaya?5?$FN?5Fail@ DB '['
	DB	' KANTURU ][ BattleOfMaya ] Fail!! TimeOut - DetailState:%d', 00H ; `string'
; Function compile flags: /Ogtp
; File e:\work\tranet_version\gs\gameserver\kanturubattleofmaya.cpp
CONST	ENDS
;	COMDAT ?CheckStateTime@CKanturuBattleOfMaya@@QAEHXZ
_TEXT	SEGMENT
?CheckStateTime@CKanturuBattleOfMaya@@QAEHXZ PROC	; CKanturuBattleOfMaya::CheckStateTime, COMDAT
; _this$ = ecx

; 1041 : {

  00000	56		 push	 esi
  00001	8b f1		 mov	 esi, ecx

; 1042 : 	if ( this->GetBattleOfMayaState() )

  00003	8b 46 08	 mov	 eax, DWORD PTR [esi+8]
  00006	85 c0		 test	 eax, eax
  00008	74 26		 je	 SHORT $LN6@CheckState

; 1043 : 	{
; 1044 : 		if ( this->m_StateInfo[this->m_iBattleOfMayaState].GetCondition() == 1 )

  0000a	8d 0c 80	 lea	 ecx, DWORD PTR [eax+eax*4]
  0000d	83 7c 8e 58 01	 cmp	 DWORD PTR [esi+ecx*4+88], 1
  00012	75 1c		 jne	 SHORT $LN6@CheckState

; 1045 : 		{
; 1046 : 			if ( this->m_StateInfo[this->m_iBattleOfMayaState].IsTimeOut() == TRUE )

  00014	8d 54 80 14	 lea	 edx, DWORD PTR [eax+eax*4+20]
  00018	8d 0c 96	 lea	 ecx, DWORD PTR [esi+edx*4]
  0001b	e8 00 00 00 00	 call	 ?IsTimeOut@CKanturuStateInfo@@QAEHXZ ; CKanturuStateInfo::IsTimeOut
  00020	83 f8 01	 cmp	 eax, 1
  00023	75 0b		 jne	 SHORT $LN6@CheckState

; 1047 : 			{
; 1048 : 				this->SetNextState(this->m_iBattleOfMayaState);

  00025	8b 46 08	 mov	 eax, DWORD PTR [esi+8]
  00028	50		 push	 eax
  00029	8b ce		 mov	 ecx, esi
  0002b	e8 00 00 00 00	 call	 ?SetNextState@CKanturuBattleOfMaya@@QAEXH@Z ; CKanturuBattleOfMaya::SetNextState
$LN6@CheckState:

; 1049 : 			}
; 1050 : 		}
; 1051 : 	}
; 1052 : 
; 1053 : 	if ( this->GetBattleSceneState() != -1 )

  00030	8b 46 0c	 mov	 eax, DWORD PTR [esi+12]
  00033	83 f8 ff	 cmp	 eax, -1
  00036	74 57		 je	 SHORT $LN1@CheckState

; 1054 : 	{
; 1055 : 		if ( this->m_BattleTimeInfo[this->m_iSceneState].GetCondition() != 1 )

  00038	8d 0c 80	 lea	 ecx, DWORD PTR [eax+eax*4]
  0003b	83 7c 8e 18 01	 cmp	 DWORD PTR [esi+ecx*4+24], 1
  00040	8d 04 8e	 lea	 eax, DWORD PTR [esi+ecx*4]

; 1056 : 		{
; 1057 : 			return TRUE;

  00043	75 4a		 jne	 SHORT $LN1@CheckState

; 1058 : 		}
; 1059 : 
; 1060 : 		if ( this->GetSceneSuccessValue() == TRUE )

  00045	83 be d8 01 00
	00 01		 cmp	 DWORD PTR [esi+472], 1

; 1061 : 		{
; 1062 : 			return TRUE;

  0004c	74 41		 je	 SHORT $LN1@CheckState

; 1063 : 		}
; 1064 : 
; 1065 : 		if ( this->m_BattleTimeInfo[this->m_iSceneState].IsTimeOut() == TRUE )

  0004e	8d 48 10	 lea	 ecx, DWORD PTR [eax+16]
  00051	e8 00 00 00 00	 call	 ?IsTimeOut@CKanturuStateInfo@@QAEHXZ ; CKanturuStateInfo::IsTimeOut
  00056	83 f8 01	 cmp	 eax, 1
  00059	75 34		 jne	 SHORT $LN1@CheckState

; 1066 : 		{
; 1067 : 			if ( this->GetBattleOfMayaState() != KANTURU_MAYA_END )

  0005b	8b 46 08	 mov	 eax, DWORD PTR [esi+8]
  0005e	83 f8 11	 cmp	 eax, 17			; 00000011H
  00061	74 2c		 je	 SHORT $LN1@CheckState

; 1068 : 			{
; 1069 : 				this->SetSceneSuccessValue(FALSE);
; 1070 : 				this->SetSuccessValue(FALSE);
; 1071 : 
; 1072 : 				LogAddTD("[ KANTURU ][ BattleOfMaya ] Fail!! TimeOut - DetailState:%d",
; 1073 : 					this->m_iBattleOfMayaState);

  00063	50		 push	 eax
  00064	68 00 00 00 00	 push	 OFFSET ??_C@_0DM@MNFIKCME@?$FL?5KANTURU?5?$FN?$FL?5BattleOfMaya?5?$FN?5Fail@
  00069	c7 86 d8 01 00
	00 00 00 00 00	 mov	 DWORD PTR [esi+472], 0
  00073	c7 86 d4 01 00
	00 00 00 00 00	 mov	 DWORD PTR [esi+468], 0
  0007d	ff 15 00 00 00
	00		 call	 DWORD PTR ?LogAddTD@@3P6AXPADZZA ; LogAddTD
  00083	83 c4 08	 add	 esp, 8

; 1074 : 
; 1075 : 				this->SetState(KANTURU_MAYA_END);

  00086	6a 11		 push	 17			; 00000011H
  00088	8b ce		 mov	 ecx, esi
  0008a	e8 00 00 00 00	 call	 ?SetState@CKanturuBattleOfMaya@@QAEXH@Z ; CKanturuBattleOfMaya::SetState
$LN1@CheckState:

; 1076 : 			}
; 1077 : 		}
; 1078 : 	}
; 1079 : 
; 1080 : 	return TRUE;

  0008f	b8 01 00 00 00	 mov	 eax, 1
  00094	5e		 pop	 esi

; 1081 : }

  00095	c3		 ret	 0
?CheckStateTime@CKanturuBattleOfMaya@@QAEHXZ ENDP	; CKanturuBattleOfMaya::CheckStateTime
_TEXT	ENDS
PUBLIC	??_C@_0EI@LCLHMPAM@?$FL?5KANTURU?5?$FN?$FL?5BattleOfMaya?5?$FN?5Fail@ ; `string'
PUBLIC	?CheckMayaBattleUser@CKanturuBattleOfMaya@@QAEXXZ ; CKanturuBattleOfMaya::CheckMayaBattleUser
EXTRN	?IsEmpty@CKanturuBattleUserMng@@QAEHXZ:PROC	; CKanturuBattleUserMng::IsEmpty
;	COMDAT ??_C@_0EI@LCLHMPAM@?$FL?5KANTURU?5?$FN?$FL?5BattleOfMaya?5?$FN?5Fail@
; File e:\work\tranet_version\gs\gameserver\kanturubattleofmaya.h
CONST	SEGMENT
??_C@_0EI@LCLHMPAM@?$FL?5KANTURU?5?$FN?$FL?5BattleOfMaya?5?$FN?5Fail@ DB '['
	DB	' KANTURU ][ BattleOfMaya ] Fail!! All Battle User Die - Detai'
	DB	'lState:%d', 00H				; `string'
; Function compile flags: /Ogtp
; File e:\work\tranet_version\gs\gameserver\kanturubattleofmaya.cpp
CONST	ENDS
;	COMDAT ?CheckMayaBattleUser@CKanturuBattleOfMaya@@QAEXXZ
_TEXT	SEGMENT
?CheckMayaBattleUser@CKanturuBattleOfMaya@@QAEXXZ PROC	; CKanturuBattleOfMaya::CheckMayaBattleUser, COMDAT
; _this$ = ecx

; 1093 : {

  00000	56		 push	 esi
  00001	8b f1		 mov	 esi, ecx

; 1094 : 	if ( this->GetBattleOfMayaState() == KANTURU_MAYA_NOTIFY1 ||
; 1095 : 		 this->GetBattleOfMayaState() == KANTURU_MAYA_START1 ||
; 1096 : 		 this->GetBattleOfMayaState() == KANTURU_MAYA1 ||
; 1097 : 		 this->GetBattleOfMayaState() == KANTURU_MAYA_START2 ||
; 1098 : 		 this->GetBattleOfMayaState() == KANTURU_MAYA2 ||
; 1099 : 		 this->GetBattleOfMayaState() == KANTURU_MAYA_START3 ||
; 1100 : 		 this->GetBattleOfMayaState() == KANTURU_MAYA3 )

  00003	8b 46 08	 mov	 eax, DWORD PTR [esi+8]
  00006	83 f8 02	 cmp	 eax, 2
  00009	74 1e		 je	 SHORT $LN2@CheckMayaB
  0000b	83 f8 03	 cmp	 eax, 3
  0000e	74 19		 je	 SHORT $LN2@CheckMayaB
  00010	83 f8 04	 cmp	 eax, 4
  00013	74 14		 je	 SHORT $LN2@CheckMayaB
  00015	83 f8 08	 cmp	 eax, 8
  00018	74 0f		 je	 SHORT $LN2@CheckMayaB
  0001a	83 f8 09	 cmp	 eax, 9
  0001d	74 0a		 je	 SHORT $LN2@CheckMayaB
  0001f	83 f8 0d	 cmp	 eax, 13			; 0000000dH
  00022	74 05		 je	 SHORT $LN2@CheckMayaB
  00024	83 f8 0e	 cmp	 eax, 14			; 0000000eH
  00027	75 38		 jne	 SHORT $LN1@CheckMayaB
$LN2@CheckMayaB:

; 1101 : 	{
; 1102 : 		if ( g_KanturuBattleUserMng.IsEmpty() == TRUE )

  00029	b9 00 00 00 00	 mov	 ecx, OFFSET ?g_KanturuBattleUserMng@@3VCKanturuBattleUserMng@@A ; g_KanturuBattleUserMng
  0002e	e8 00 00 00 00	 call	 ?IsEmpty@CKanturuBattleUserMng@@QAEHXZ ; CKanturuBattleUserMng::IsEmpty
  00033	83 f8 01	 cmp	 eax, 1
  00036	75 29		 jne	 SHORT $LN1@CheckMayaB

; 1103 : 		{
; 1104 : 			this->SetSuccessValue(FALSE);

  00038	33 c0		 xor	 eax, eax
  0003a	89 86 d4 01 00
	00		 mov	 DWORD PTR [esi+468], eax

; 1105 : 			this->SetSceneSuccessValue(FALSE);

  00040	89 86 d8 01 00
	00		 mov	 DWORD PTR [esi+472], eax

; 1106 : 
; 1107 : 			LogAddTD("[ KANTURU ][ BattleOfMaya ] Fail!! All Battle User Die - DetailState:%d",
; 1108 : 				this->m_iBattleOfMayaState);

  00046	8b 46 08	 mov	 eax, DWORD PTR [esi+8]
  00049	50		 push	 eax
  0004a	68 00 00 00 00	 push	 OFFSET ??_C@_0EI@LCLHMPAM@?$FL?5KANTURU?5?$FN?$FL?5BattleOfMaya?5?$FN?5Fail@
  0004f	ff 15 00 00 00
	00		 call	 DWORD PTR ?LogAddTD@@3P6AXPADZZA ; LogAddTD
  00055	83 c4 08	 add	 esp, 8

; 1109 : 
; 1110 : 			this->SetState(KANTURU_MAYA_END);

  00058	6a 11		 push	 17			; 00000011H
  0005a	8b ce		 mov	 ecx, esi
  0005c	e8 00 00 00 00	 call	 ?SetState@CKanturuBattleOfMaya@@QAEXH@Z ; CKanturuBattleOfMaya::SetState
$LN1@CheckMayaB:
  00061	5e		 pop	 esi

; 1111 : 		}
; 1112 : 	}
; 1113 : }

  00062	c3		 ret	 0
?CheckMayaBattleUser@CKanturuBattleOfMaya@@QAEXXZ ENDP	; CKanturuBattleOfMaya::CheckMayaBattleUser
_TEXT	ENDS
PUBLIC	?Run@CKanturuBattleOfMaya@@QAEXXZ		; CKanturuBattleOfMaya::Run
EXTRN	?CheckUserState@CKanturuBattleUserMng@@QAEXXZ:PROC ; CKanturuBattleUserMng::CheckUserState
; Function compile flags: /Ogtp
;	COMDAT ?Run@CKanturuBattleOfMaya@@QAEXXZ
_TEXT	SEGMENT
?Run@CKanturuBattleOfMaya@@QAEXXZ PROC			; CKanturuBattleOfMaya::Run, COMDAT
; _this$ = ecx

; 312  : {

  00000	56		 push	 esi
  00001	8b f1		 mov	 esi, ecx

; 313  : 	this->CheckStateTime();

  00003	e8 00 00 00 00	 call	 ?CheckStateTime@CKanturuBattleOfMaya@@QAEHXZ ; CKanturuBattleOfMaya::CheckStateTime

; 314  : 	this->CheckMayaBattleUser();

  00008	8b ce		 mov	 ecx, esi
  0000a	e8 00 00 00 00	 call	 ?CheckMayaBattleUser@CKanturuBattleOfMaya@@QAEXXZ ; CKanturuBattleOfMaya::CheckMayaBattleUser

; 315  : 	g_KanturuBattleUserMng.CheckUserState();

  0000f	b9 00 00 00 00	 mov	 ecx, OFFSET ?g_KanturuBattleUserMng@@3VCKanturuBattleUserMng@@A ; g_KanturuBattleUserMng
  00014	e8 00 00 00 00	 call	 ?CheckUserState@CKanturuBattleUserMng@@QAEXXZ ; CKanturuBattleUserMng::CheckUserState

; 316  : 
; 317  : 	switch ( this->m_iBattleOfMayaState )

  00019	8b 46 08	 mov	 eax, DWORD PTR [esi+8]
  0001c	83 f8 12	 cmp	 eax, 18			; 00000012H
  0001f	77 3e		 ja	 SHORT $LN1@Run
  00021	0f b6 80 00 00
	00 00		 movzx	 eax, BYTE PTR $LN24@Run[eax]
  00028	ff 24 85 00 00
	00 00		 jmp	 DWORD PTR $LN27@Run[eax*4]
$LN16@Run:

; 318  : 	{
; 319  : 		case KANTURU_MAYA_NONE:
; 320  : 			this->ProcState_NONE();
; 321  : 			break;
; 322  : 		case KANTURU_MAYA_STANBY1:
; 323  : 			this->ProcState_STANBY1();
; 324  : 			break;
; 325  : 		case KANTURU_MAYA_NOTIFY1:
; 326  : 			this->ProcState_NOTIFY1();
; 327  : 			break;
; 328  : 		case KANTURU_MAYA_START1:
; 329  : 			this->ProcState_START1();

  0002f	8b ce		 mov	 ecx, esi
  00031	5e		 pop	 esi
  00032	e9 00 00 00 00	 jmp	 ?ProcState_START1@CKanturuBattleOfMaya@@QAEXXZ ; CKanturuBattleOfMaya::ProcState_START1
$LN15@Run:

; 330  : 			break;
; 331  : 		case KANTURU_MAYA1:
; 332  : 			this->ProcState_MAYA1();

  00037	8b ce		 mov	 ecx, esi
  00039	5e		 pop	 esi
  0003a	e9 00 00 00 00	 jmp	 ?ProcState_MAYA1@CKanturuBattleOfMaya@@QAEXXZ ; CKanturuBattleOfMaya::ProcState_MAYA1
$LN11@Run:

; 333  : 			break;
; 334  : 		case KANTURU_MAYA_END1:
; 335  : 			this->ProcState_END_MAYA1();
; 336  : 			break;
; 337  : 		case KANTURU_MAYA_ENDCYCLE1:
; 338  : 			this->ProcState_ENDCYCLE_MAYA1();
; 339  : 			break;
; 340  : 		case KANTURU_MAYA_STANBY2:
; 341  : 			this->ProcState_STANBY2();
; 342  : 			break;
; 343  : 		case KANTURU_MAYA_START2:
; 344  : 			this->ProcState_START2();

  0003f	8b ce		 mov	 ecx, esi
  00041	5e		 pop	 esi
  00042	e9 00 00 00 00	 jmp	 ?ProcState_START2@CKanturuBattleOfMaya@@QAEXXZ ; CKanturuBattleOfMaya::ProcState_START2
$LN10@Run:

; 345  : 			break;
; 346  : 		case KANTURU_MAYA2:
; 347  : 			this->ProcState_MAYA2();

  00047	8b ce		 mov	 ecx, esi
  00049	5e		 pop	 esi
  0004a	e9 00 00 00 00	 jmp	 ?ProcState_MAYA2@CKanturuBattleOfMaya@@QAEXXZ ; CKanturuBattleOfMaya::ProcState_MAYA2
$LN6@Run:

; 348  : 			break;
; 349  : 		case KANTURU_MAYA_END2:
; 350  : 			this->ProcState_END_MAYA2();
; 351  : 			break;
; 352  : 		case KANTURU_MAYA_ENDCYCLE2:
; 353  : 			this->ProcState_ENDCYCLE_MAYA2();
; 354  : 			break;
; 355  : 		case KANTURU_MAYA_STANBY3:
; 356  : 			this->ProcState_STANBY3();
; 357  : 			break;
; 358  : 		case KANTURU_MAYA_START3:
; 359  : 			this->ProcState_START3();

  0004f	8b ce		 mov	 ecx, esi
  00051	5e		 pop	 esi
  00052	e9 00 00 00 00	 jmp	 ?ProcState_START3@CKanturuBattleOfMaya@@QAEXXZ ; CKanturuBattleOfMaya::ProcState_START3
$LN5@Run:

; 360  : 			break;
; 361  : 		case KANTURU_MAYA3:
; 362  : 			this->ProcState_MAYA3();

  00057	8b ce		 mov	 ecx, esi
  00059	5e		 pop	 esi
  0005a	e9 00 00 00 00	 jmp	 ?ProcState_MAYA3@CKanturuBattleOfMaya@@QAEXXZ ; CKanturuBattleOfMaya::ProcState_MAYA3
$LN1@Run:
  0005f	5e		 pop	 esi

; 363  : 			break;
; 364  : 		case KANTURU_MAYA_END3:
; 365  : 			this->ProcState_END_MAYA3();
; 366  : 			break;
; 367  : 		case KANTURU_MAYA_ENDCYCLE3:
; 368  : 			this->ProcState_ENDCYCLE_MAYA3();
; 369  : 			break;
; 370  : 		case KANTURU_MAYA_END:
; 371  : 			this->ProcState_END();
; 372  : 			break;
; 373  : 		case KANTURU_MAYA_ENDCYCLE:
; 374  : 			this->ProcState_ENDCYCLE();
; 375  : 			break;
; 376  : 	}
; 377  : }

  00060	c3		 ret	 0
  00061	8d 49 00	 npad	 3
$LN27@Run:
  00064	00 00 00 00	 DD	 $LN1@Run
  00068	00 00 00 00	 DD	 $LN16@Run
  0006c	00 00 00 00	 DD	 $LN15@Run
  00070	00 00 00 00	 DD	 $LN11@Run
  00074	00 00 00 00	 DD	 $LN10@Run
  00078	00 00 00 00	 DD	 $LN6@Run
  0007c	00 00 00 00	 DD	 $LN5@Run
$LN24@Run:
  00080	00		 DB	 0
  00081	00		 DB	 0
  00082	00		 DB	 0
  00083	01		 DB	 1
  00084	02		 DB	 2
  00085	00		 DB	 0
  00086	00		 DB	 0
  00087	00		 DB	 0
  00088	03		 DB	 3
  00089	04		 DB	 4
  0008a	00		 DB	 0
  0008b	00		 DB	 0
  0008c	00		 DB	 0
  0008d	05		 DB	 5
  0008e	06		 DB	 6
  0008f	00		 DB	 0
  00090	00		 DB	 0
  00091	00		 DB	 0
  00092	00		 DB	 0
?Run@CKanturuBattleOfMaya@@QAEXXZ ENDP			; CKanturuBattleOfMaya::Run
_TEXT	ENDS
EXTRN	_atexit:PROC
EXTRN	??0CKanturuUtil@@QAE@XZ:PROC			; CKanturuUtil::CKanturuUtil
; Function compile flags: /Ogtp
;	COMDAT ??__EKANTURU_UTIL@@YAXXZ
text$yc	SEGMENT
??__EKANTURU_UTIL@@YAXXZ PROC				; `dynamic initializer for 'KANTURU_UTIL'', COMDAT

; 17   : static CKanturuUtil KANTURU_UTIL;

  00000	b9 00 00 00 00	 mov	 ecx, OFFSET _KANTURU_UTIL
  00005	e8 00 00 00 00	 call	 ??0CKanturuUtil@@QAE@XZ	; CKanturuUtil::CKanturuUtil
  0000a	68 00 00 00 00	 push	 OFFSET ??__FKANTURU_UTIL@@YAXXZ ; `dynamic atexit destructor for 'KANTURU_UTIL''
  0000f	e8 00 00 00 00	 call	 _atexit
  00014	59		 pop	 ecx
  00015	c3		 ret	 0
??__EKANTURU_UTIL@@YAXXZ ENDP				; `dynamic initializer for 'KANTURU_UTIL''
text$yc	ENDS
EXTRN	??1CKanturuUtil@@UAE@XZ:PROC			; CKanturuUtil::~CKanturuUtil
; Function compile flags: /Ogtp
;	COMDAT ??__FKANTURU_UTIL@@YAXXZ
text$yd	SEGMENT
??__FKANTURU_UTIL@@YAXXZ PROC				; `dynamic atexit destructor for 'KANTURU_UTIL'', COMDAT
  00000	b9 00 00 00 00	 mov	 ecx, OFFSET _KANTURU_UTIL
  00005	e9 00 00 00 00	 jmp	 ??1CKanturuUtil@@UAE@XZ	; CKanturuUtil::~CKanturuUtil
??__FKANTURU_UTIL@@YAXXZ ENDP				; `dynamic atexit destructor for 'KANTURU_UTIL''
text$yd	ENDS
_BSS	SEGMENT
_KANTURU_UTIL DD 01H DUP (?)
_BSS	ENDS
CRT$XCU	SEGMENT
_KANTURU_UTIL$initializer$ DD FLAT:??__EKANTURU_UTIL@@YAXXZ
CRT$XCU	ENDS
END
