; Listing generated by Microsoft (R) Optimizing Compiler Version 16.00.30319.01 

	TITLE	E:\work\tranet_version\GS\GameServer\KanturuTowerOfRefinement.cpp
	.686P
	.XMM
	include listing.inc
	.model	flat

INCLUDELIB LIBCMT
INCLUDELIB OLDNAMES

_DATA	SEGMENT
_g_iNpcUpDfLevel_CGATE DD 01H
	DD	02H
	DD	02dc6c0H
	DD	02H
	DD	03H
	DD	02dc6c0H
	DD	03H
	DD	04H
	DD	02dc6c0H
_g_iNpcUpDfLevel_CSTATUE DD 01H
	DD	03H
	DD	02dc6c0H
	DD	02H
	DD	05H
	DD	02dc6c0H
	DD	03H
	DD	07H
	DD	02dc6c0H
_g_iNpcUpMaxHP_CGATE DD 02625a0H
	DD	02H
	DD	0f4240H
	DD	03567e0H
	DD	03H
	DD	0f4240H
	DD	04f5880H
	DD	04H
	DD	0f4240H
_g_iNpcUpMaxHP_CSTATUE DD 02191c0H
	DD	03H
	DD	0f4240H
	DD	033e140H
	DD	05H
	DD	0f4240H
	DD	04c4b40H
	DD	07H
	DD	0f4240H
_g_iNpcUpRgLevel_CSTATUE DD 01H
	DD	03H
	DD	04c4b40H
	DD	02H
	DD	05H
	DD	04c4b40H
	DD	03H
	DD	07H
	DD	04c4b40H
_g_iCsUserReSpawnArea DD 023H
	DD	011H
	DD	090H
	DD	030H
	DD	04aH
	DD	090H
	DD	073H
	DD	09aH
	DD	023H
	DD	011H
	DD	090H
	DD	030H
_g_iNpcDefense_CGATE DD 064H
	DD	0b4H
	DD	012cH
	DD	0208H
_g_iNpcDefense_CSTATUE DD 050H
	DD	0b4H
	DD	0154H
	DD	0226H
_g_iCastleWallStepAxisY DD 071H
	DD	0a0H
	DD	0cbH
_DATA	ENDS
PUBLIC	?SetStateInfo@CKanturuStateInfo@@QAEXH@Z	; CKanturuStateInfo::SetStateInfo
; Function compile flags: /Ogtp
; File e:\work\tranet_version\gs\gameserver\kanturustateinfo.h
;	COMDAT ?SetStateInfo@CKanturuStateInfo@@QAEXH@Z
_TEXT	SEGMENT
_iStateTimeInfo$ = 8					; size = 4
?SetStateInfo@CKanturuStateInfo@@QAEXH@Z PROC		; CKanturuStateInfo::SetStateInfo, COMDAT
; _this$ = ecx

; 29   : 	{

  00000	55		 push	 ebp
  00001	8b ec		 mov	 ebp, esp

; 30   : 		this->m_iState = iStateTimeInfo;

  00003	8b 45 08	 mov	 eax, DWORD PTR _iStateTimeInfo$[ebp]
  00006	89 41 04	 mov	 DWORD PTR [ecx+4], eax

; 31   : 	}

  00009	5d		 pop	 ebp
  0000a	c2 04 00	 ret	 4
?SetStateInfo@CKanturuStateInfo@@QAEXH@Z ENDP		; CKanturuStateInfo::SetStateInfo
_TEXT	ENDS
PUBLIC	?SetCondition@CKanturuStateInfo@@QAEXH@Z	; CKanturuStateInfo::SetCondition
; Function compile flags: /Ogtp
;	COMDAT ?SetCondition@CKanturuStateInfo@@QAEXH@Z
_TEXT	SEGMENT
_iCondition$ = 8					; size = 4
?SetCondition@CKanturuStateInfo@@QAEXH@Z PROC		; CKanturuStateInfo::SetCondition, COMDAT
; _this$ = ecx

; 34   : 	{

  00000	55		 push	 ebp
  00001	8b ec		 mov	 ebp, esp

; 35   : 		this->m_iCondition = iCondition;

  00003	8b 45 08	 mov	 eax, DWORD PTR _iCondition$[ebp]
  00006	89 41 08	 mov	 DWORD PTR [ecx+8], eax

; 36   : 	}

  00009	5d		 pop	 ebp
  0000a	c2 04 00	 ret	 4
?SetCondition@CKanturuStateInfo@@QAEXH@Z ENDP		; CKanturuStateInfo::SetCondition
_TEXT	ENDS
PUBLIC	?GetCondition@CKanturuStateInfo@@QAEHXZ		; CKanturuStateInfo::GetCondition
; Function compile flags: /Ogtp
;	COMDAT ?GetCondition@CKanturuStateInfo@@QAEHXZ
_TEXT	SEGMENT
?GetCondition@CKanturuStateInfo@@QAEHXZ PROC		; CKanturuStateInfo::GetCondition, COMDAT
; _this$ = ecx

; 41   : 		return this->m_iCondition;

  00000	8b 41 08	 mov	 eax, DWORD PTR [ecx+8]

; 42   : 	}

  00003	c3		 ret	 0
?GetCondition@CKanturuStateInfo@@QAEHXZ ENDP		; CKanturuStateInfo::GetCondition
_TEXT	ENDS
PUBLIC	?SetValue@CKanturuStateInfo@@QAEXH@Z		; CKanturuStateInfo::SetValue
; Function compile flags: /Ogtp
;	COMDAT ?SetValue@CKanturuStateInfo@@QAEXH@Z
_TEXT	SEGMENT
_iValue$ = 8						; size = 4
?SetValue@CKanturuStateInfo@@QAEXH@Z PROC		; CKanturuStateInfo::SetValue, COMDAT
; _this$ = ecx

; 45   : 	{

  00000	55		 push	 ebp
  00001	8b ec		 mov	 ebp, esp

; 46   : 		this->m_iValue = iValue;

  00003	8b 45 08	 mov	 eax, DWORD PTR _iValue$[ebp]
  00006	89 41 0c	 mov	 DWORD PTR [ecx+12], eax

; 47   : 	}

  00009	5d		 pop	 ebp
  0000a	c2 04 00	 ret	 4
?SetValue@CKanturuStateInfo@@QAEXH@Z ENDP		; CKanturuStateInfo::SetValue
_TEXT	ENDS
PUBLIC	?SetAppliedTime@CKanturuStateInfo@@QAEXXZ	; CKanturuStateInfo::SetAppliedTime
EXTRN	__imp__GetTickCount@0:PROC
; Function compile flags: /Ogtp
;	COMDAT ?SetAppliedTime@CKanturuStateInfo@@QAEXXZ
_TEXT	SEGMENT
?SetAppliedTime@CKanturuStateInfo@@QAEXXZ PROC		; CKanturuStateInfo::SetAppliedTime, COMDAT
; _this$ = ecx

; 54   : 	{

  00000	56		 push	 esi
  00001	8b f1		 mov	 esi, ecx

; 55   : 		this->m_dwAppliedTickCount = GetTickCount();

  00003	ff 15 00 00 00
	00		 call	 DWORD PTR __imp__GetTickCount@0
  00009	89 46 10	 mov	 DWORD PTR [esi+16], eax
  0000c	5e		 pop	 esi

; 56   : 	}

  0000d	c3		 ret	 0
?SetAppliedTime@CKanturuStateInfo@@QAEXXZ ENDP		; CKanturuStateInfo::SetAppliedTime
_TEXT	ENDS
PUBLIC	?GetAppliedTime@CKanturuStateInfo@@QAEHXZ	; CKanturuStateInfo::GetAppliedTime
; Function compile flags: /Ogtp
;	COMDAT ?GetAppliedTime@CKanturuStateInfo@@QAEHXZ
_TEXT	SEGMENT
?GetAppliedTime@CKanturuStateInfo@@QAEHXZ PROC		; CKanturuStateInfo::GetAppliedTime, COMDAT
; _this$ = ecx

; 60   : 		return this->m_dwAppliedTickCount;

  00000	8b 41 10	 mov	 eax, DWORD PTR [ecx+16]

; 61   : 	}

  00003	c3		 ret	 0
?GetAppliedTime@CKanturuStateInfo@@QAEHXZ ENDP		; CKanturuStateInfo::GetAppliedTime
_TEXT	ENDS
PUBLIC	?GetElapsedTime@CKanturuStateInfo@@QAEHXZ	; CKanturuStateInfo::GetElapsedTime
; Function compile flags: /Ogtp
;	COMDAT ?GetElapsedTime@CKanturuStateInfo@@QAEHXZ
_TEXT	SEGMENT
?GetElapsedTime@CKanturuStateInfo@@QAEHXZ PROC		; CKanturuStateInfo::GetElapsedTime, COMDAT
; _this$ = ecx

; 64   : 	{

  00000	56		 push	 esi

; 65   : 		int iElapsedTime = GetTickCount() - this->GetAppliedTime();

  00001	8b 71 10	 mov	 esi, DWORD PTR [ecx+16]
  00004	ff 15 00 00 00
	00		 call	 DWORD PTR __imp__GetTickCount@0
  0000a	2b c6		 sub	 eax, esi
  0000c	5e		 pop	 esi

; 66   : 		return iElapsedTime;
; 67   : 	}

  0000d	c3		 ret	 0
?GetElapsedTime@CKanturuStateInfo@@QAEHXZ ENDP		; CKanturuStateInfo::GetElapsedTime
_TEXT	ENDS
PUBLIC	?GetRemainTime@CKanturuStateInfo@@QAEHXZ	; CKanturuStateInfo::GetRemainTime
; Function compile flags: /Ogtp
;	COMDAT ?GetRemainTime@CKanturuStateInfo@@QAEHXZ
_TEXT	SEGMENT
?GetRemainTime@CKanturuStateInfo@@QAEHXZ PROC		; CKanturuStateInfo::GetRemainTime, COMDAT
; _this$ = ecx

; 70   : 	{

  00000	56		 push	 esi
  00001	8b f1		 mov	 esi, ecx

; 71   : 		int iRemainTime = 0;

  00003	33 c0		 xor	 eax, eax

; 72   : 
; 73   : 		if ( this->GetCondition() == 1 )

  00005	83 7e 08 01	 cmp	 DWORD PTR [esi+8], 1
  00009	75 2b		 jne	 SHORT $LN3@GetRemainT

; 74   : 		{
; 75   : 			iRemainTime = this->m_iValue - this->GetElapsedTime();

  0000b	57		 push	 edi
  0000c	8b 7e 10	 mov	 edi, DWORD PTR [esi+16]
  0000f	ff 15 00 00 00
	00		 call	 DWORD PTR __imp__GetTickCount@0
  00015	8b 4e 0c	 mov	 ecx, DWORD PTR [esi+12]
  00018	2b c7		 sub	 eax, edi
  0001a	2b c8		 sub	 ecx, eax
  0001c	5f		 pop	 edi

; 76   : 
; 77   : 			if ( iRemainTime <= 0 )

  0001d	85 c9		 test	 ecx, ecx
  0001f	7f 04		 jg	 SHORT $LN1@GetRemainT

; 78   : 			{
; 79   : 				return 0;

  00021	33 c0		 xor	 eax, eax
  00023	5e		 pop	 esi

; 83   : 		}
; 84   : 
; 85   : 		return iRemainTime;
; 86   : 	}

  00024	c3		 ret	 0
$LN1@GetRemainT:

; 80   : 			}
; 81   : 
; 82   : 			iRemainTime /= 1000;

  00025	b8 d3 4d 62 10	 mov	 eax, 274877907		; 10624dd3H
  0002a	f7 e9		 imul	 ecx
  0002c	c1 fa 06	 sar	 edx, 6
  0002f	8b c2		 mov	 eax, edx
  00031	c1 e8 1f	 shr	 eax, 31			; 0000001fH
  00034	03 c2		 add	 eax, edx
$LN3@GetRemainT:
  00036	5e		 pop	 esi

; 83   : 		}
; 84   : 
; 85   : 		return iRemainTime;
; 86   : 	}

  00037	c3		 ret	 0
?GetRemainTime@CKanturuStateInfo@@QAEHXZ ENDP		; CKanturuStateInfo::GetRemainTime
_TEXT	ENDS
PUBLIC	?IsTimeOut@CKanturuStateInfo@@QAEHXZ		; CKanturuStateInfo::IsTimeOut
; Function compile flags: /Ogtp
;	COMDAT ?IsTimeOut@CKanturuStateInfo@@QAEHXZ
_TEXT	SEGMENT
?IsTimeOut@CKanturuStateInfo@@QAEHXZ PROC		; CKanturuStateInfo::IsTimeOut, COMDAT
; _this$ = ecx

; 89   : 	{

  00000	56		 push	 esi
  00001	8b f1		 mov	 esi, ecx

; 90   : 		if ( this->GetRemainTime() <= 0 )

  00003	83 7e 08 01	 cmp	 DWORD PTR [esi+8], 1
  00007	75 2b		 jne	 SHORT $LN14@IsTimeOut
  00009	57		 push	 edi
  0000a	8b 7e 10	 mov	 edi, DWORD PTR [esi+16]
  0000d	ff 15 00 00 00
	00		 call	 DWORD PTR __imp__GetTickCount@0
  00013	8b 4e 0c	 mov	 ecx, DWORD PTR [esi+12]
  00016	2b c7		 sub	 eax, edi
  00018	2b c8		 sub	 ecx, eax
  0001a	5f		 pop	 edi
  0001b	85 c9		 test	 ecx, ecx
  0001d	7e 15		 jle	 SHORT $LN14@IsTimeOut
  0001f	b8 d3 4d 62 10	 mov	 eax, 274877907		; 10624dd3H
  00024	f7 e9		 imul	 ecx
  00026	c1 fa 06	 sar	 edx, 6
  00029	8b c2		 mov	 eax, edx
  0002b	c1 e8 1f	 shr	 eax, 31			; 0000001fH
  0002e	03 c2		 add	 eax, edx
  00030	85 c0		 test	 eax, eax
  00032	7f 07		 jg	 SHORT $LN1@IsTimeOut
$LN14@IsTimeOut:

; 91   : 		{
; 92   : 			return TRUE;

  00034	b8 01 00 00 00	 mov	 eax, 1
  00039	5e		 pop	 esi

; 96   : 	}

  0003a	c3		 ret	 0
$LN1@IsTimeOut:

; 93   : 		}
; 94   : 
; 95   : 		return FALSE;

  0003b	33 c0		 xor	 eax, eax
  0003d	5e		 pop	 esi

; 96   : 	}

  0003e	c3		 ret	 0
?IsTimeOut@CKanturuStateInfo@@QAEHXZ ENDP		; CKanturuStateInfo::IsTimeOut
_TEXT	ENDS
PUBLIC	?SetTowerOfRefinementState@CKanturuTowerOfRefinement@@QAEXH@Z ; CKanturuTowerOfRefinement::SetTowerOfRefinementState
; Function compile flags: /Ogtp
; File e:\work\tranet_version\gs\gameserver\kanturutowerofrefinement.h
;	COMDAT ?SetTowerOfRefinementState@CKanturuTowerOfRefinement@@QAEXH@Z
_TEXT	SEGMENT
_iTowerOfRefinement$ = 8				; size = 4
?SetTowerOfRefinementState@CKanturuTowerOfRefinement@@QAEXH@Z PROC ; CKanturuTowerOfRefinement::SetTowerOfRefinementState, COMDAT
; _this$ = ecx

; 51   : 	void SetTowerOfRefinementState(int iTowerOfRefinement){this->m_iTowerOfRefinementState = iTowerOfRefinement;}

  00000	55		 push	 ebp
  00001	8b ec		 mov	 ebp, esp
  00003	8b 45 08	 mov	 eax, DWORD PTR _iTowerOfRefinement$[ebp]
  00006	89 41 04	 mov	 DWORD PTR [ecx+4], eax
  00009	5d		 pop	 ebp
  0000a	c2 04 00	 ret	 4
?SetTowerOfRefinementState@CKanturuTowerOfRefinement@@QAEXH@Z ENDP ; CKanturuTowerOfRefinement::SetTowerOfRefinementState
_TEXT	ENDS
PUBLIC	?GetTowerOfRefinementState@CKanturuTowerOfRefinement@@QAEHXZ ; CKanturuTowerOfRefinement::GetTowerOfRefinementState
; Function compile flags: /Ogtp
;	COMDAT ?GetTowerOfRefinementState@CKanturuTowerOfRefinement@@QAEHXZ
_TEXT	SEGMENT
?GetTowerOfRefinementState@CKanturuTowerOfRefinement@@QAEHXZ PROC ; CKanturuTowerOfRefinement::GetTowerOfRefinementState, COMDAT
; _this$ = ecx

; 52   : 	int GetTowerOfRefinementState(){return this->m_iTowerOfRefinementState;}

  00000	8b 41 04	 mov	 eax, DWORD PTR [ecx+4]
  00003	c3		 ret	 0
?GetTowerOfRefinementState@CKanturuTowerOfRefinement@@QAEHXZ ENDP ; CKanturuTowerOfRefinement::GetTowerOfRefinementState
_TEXT	ENDS
PUBLIC	?SetEntrancePermit@CKanturuTowerOfRefinement@@QAEXH@Z ; CKanturuTowerOfRefinement::SetEntrancePermit
; Function compile flags: /Ogtp
;	COMDAT ?SetEntrancePermit@CKanturuTowerOfRefinement@@QAEXH@Z
_TEXT	SEGMENT
_bEntrancePermit$ = 8					; size = 4
?SetEntrancePermit@CKanturuTowerOfRefinement@@QAEXH@Z PROC ; CKanturuTowerOfRefinement::SetEntrancePermit, COMDAT
; _this$ = ecx

; 53   : 	void SetEntrancePermit(BOOL bEntrancePermit){this->m_bEntrancePermit = bEntrancePermit;}

  00000	55		 push	 ebp
  00001	8b ec		 mov	 ebp, esp
  00003	8b 45 08	 mov	 eax, DWORD PTR _bEntrancePermit$[ebp]
  00006	89 41 08	 mov	 DWORD PTR [ecx+8], eax
  00009	5d		 pop	 ebp
  0000a	c2 04 00	 ret	 4
?SetEntrancePermit@CKanturuTowerOfRefinement@@QAEXH@Z ENDP ; CKanturuTowerOfRefinement::SetEntrancePermit
_TEXT	ENDS
PUBLIC	?SetUseTowerOfRefinement@CKanturuTowerOfRefinement@@QAEXH@Z ; CKanturuTowerOfRefinement::SetUseTowerOfRefinement
; Function compile flags: /Ogtp
;	COMDAT ?SetUseTowerOfRefinement@CKanturuTowerOfRefinement@@QAEXH@Z
_TEXT	SEGMENT
_bUse$ = 8						; size = 4
?SetUseTowerOfRefinement@CKanturuTowerOfRefinement@@QAEXH@Z PROC ; CKanturuTowerOfRefinement::SetUseTowerOfRefinement, COMDAT
; _this$ = ecx

; 55   : 	void SetUseTowerOfRefinement(BOOL bUse){this->m_bIsUseTowerOfRefinement = bUse;}

  00000	55		 push	 ebp
  00001	8b ec		 mov	 ebp, esp
  00003	8b 45 08	 mov	 eax, DWORD PTR _bUse$[ebp]
  00006	89 41 0c	 mov	 DWORD PTR [ecx+12], eax
  00009	5d		 pop	 ebp
  0000a	c2 04 00	 ret	 4
?SetUseTowerOfRefinement@CKanturuTowerOfRefinement@@QAEXH@Z ENDP ; CKanturuTowerOfRefinement::SetUseTowerOfRefinement
_TEXT	ENDS
PUBLIC	??_H@YGXPAXIHP6EPAX0@Z@Z			; `vector constructor iterator'
; Function compile flags: /Ogtp
;	COMDAT ??_H@YGXPAXIHP6EPAX0@Z@Z
_TEXT	SEGMENT
___t$ = 8						; size = 4
___s$ = 12						; size = 4
___n$ = 16						; size = 4
___f$ = 20						; size = 4
??_H@YGXPAXIHP6EPAX0@Z@Z PROC				; `vector constructor iterator', COMDAT
  00000	55		 push	 ebp
  00001	8b ec		 mov	 ebp, esp
  00003	57		 push	 edi
  00004	8b 7d 10	 mov	 edi, DWORD PTR ___n$[ebp]
  00007	4f		 dec	 edi
  00008	78 14		 js	 SHORT $LN1@vector
  0000a	53		 push	 ebx
  0000b	8b 5d 14	 mov	 ebx, DWORD PTR ___f$[ebp]
  0000e	56		 push	 esi
  0000f	8b 75 08	 mov	 esi, DWORD PTR ___t$[ebp]
$LL2@vector:
  00012	8b ce		 mov	 ecx, esi
  00014	ff d3		 call	 ebx
  00016	03 75 0c	 add	 esi, DWORD PTR ___s$[ebp]
  00019	4f		 dec	 edi
  0001a	79 f6		 jns	 SHORT $LL2@vector
  0001c	5e		 pop	 esi
  0001d	5b		 pop	 ebx
$LN1@vector:
  0001e	5f		 pop	 edi
  0001f	5d		 pop	 ebp
  00020	c2 10 00	 ret	 16			; 00000010H
??_H@YGXPAXIHP6EPAX0@Z@Z ENDP				; `vector constructor iterator'
_TEXT	ENDS
PUBLIC	__$ArrayPad$
EXTRN	_isalnum:PROC
EXTRN	_isalpha:PROC
EXTRN	_atof:PROC
EXTRN	_isdigit:PROC
EXTRN	_getc:PROC
EXTRN	_ungetc:PROC
EXTRN	_isspace:PROC
EXTRN	_fgetc:PROC
EXTRN	___security_cookie:DWORD
EXTRN	__fltused:DWORD
EXTRN	@__security_check_cookie@4:PROC
_BSS	SEGMENT
_CurrentToken DD 01H DUP (?)
_TokenNumber DD	01H DUP (?)
_SMDFile DD	01H DUP (?)
_TokenString DB	064H DUP (?)
; Function compile flags: /Ogtp
; File e:\work\tranet_version\gs\include\readscript.h
_BSS	ENDS
;	COMDAT ?GetToken@@YA?AW4SMDToken@@XZ
_TEXT	SEGMENT
_TempString$ = -104					; size = 100
__$ArrayPad$ = -4					; size = 4
?GetToken@@YA?AW4SMDToken@@XZ PROC			; GetToken, COMDAT

; 24   : {

  00000	55		 push	 ebp
  00001	8b ec		 mov	 ebp, esp
  00003	83 ec 68	 sub	 esp, 104		; 00000068H
  00006	a1 00 00 00 00	 mov	 eax, DWORD PTR ___security_cookie
  0000b	33 c5		 xor	 eax, ebp
  0000d	89 45 fc	 mov	 DWORD PTR __$ArrayPad$[ebp], eax

; 25   : 	char ch;
; 26   : 	char* p;
; 27   : 	char TempString[100];
; 28   : 
; 29   : 	TokenString[0]=0;

  00010	c6 05 00 00 00
	00 00		 mov	 BYTE PTR _TokenString, 0
  00017	53		 push	 ebx
  00018	eb 06 8d 9b 00
	00 00 00	 npad	 8
$LL31@GetToken:

; 30   : 
; 31   : 	do
; 32   : 	{
; 33   : 		if ((ch=fgetc(SMDFile)) == -1)

  00020	a1 00 00 00 00	 mov	 eax, DWORD PTR _SMDFile
  00025	50		 push	 eax
  00026	e8 00 00 00 00	 call	 _fgetc
  0002b	8a d8		 mov	 bl, al
  0002d	83 c4 04	 add	 esp, 4
  00030	80 fb ff	 cmp	 bl, -1
  00033	74 64		 je	 SHORT $LN39@GetToken

; 36   : 		}
; 37   : 		else
; 38   : 		{	
; 39   : 			if (ch=='/')		// this is /

  00035	80 fb 2f	 cmp	 bl, 47			; 0000002fH
  00038	75 31		 jne	 SHORT $LN30@GetToken

; 40   : 			{
; 41   : 				if((ch=fgetc(SMDFile)) == '/')

  0003a	8b 0d 00 00 00
	00		 mov	 ecx, DWORD PTR _SMDFile
  00040	51		 push	 ecx
  00041	e8 00 00 00 00	 call	 _fgetc
  00046	8a d8		 mov	 bl, al
  00048	83 c4 04	 add	 esp, 4
  0004b	80 fb 2f	 cmp	 bl, 47			; 0000002fH
  0004e	75 1b		 jne	 SHORT $LN30@GetToken
$LL24@GetToken:

; 42   : 				{
; 43   : 					while ((ch != '\n') && (ch != -1))	// End of Line (EOL)

  00050	80 fb ff	 cmp	 bl, -1
  00053	74 44		 je	 SHORT $LN39@GetToken

; 44   : 					{
; 45   : 						ch=fgetc(SMDFile);

  00055	8b 15 00 00 00
	00		 mov	 edx, DWORD PTR _SMDFile
  0005b	52		 push	 edx
  0005c	e8 00 00 00 00	 call	 _fgetc
  00061	8a d8		 mov	 bl, al
  00063	83 c4 04	 add	 esp, 4
  00066	80 fb 0a	 cmp	 bl, 10			; 0000000aH
  00069	75 e5		 jne	 SHORT $LL24@GetToken
$LN30@GetToken:

; 46   : 					}
; 47   : 	
; 48   : 					if (ch == -1)
; 49   : 					{
; 50   : 						return END;	// End of FILE
; 51   : 					}
; 52   : 				}
; 53   : 			}
; 54   : 		}
; 55   : 	}
; 56   : 	while (isspace(ch) != 0);

  0006b	0f be c3	 movsx	 eax, bl
  0006e	50		 push	 eax
  0006f	e8 00 00 00 00	 call	 _isspace
  00074	83 c4 04	 add	 esp, 4
  00077	85 c0		 test	 eax, eax
  00079	75 a5		 jne	 SHORT $LL31@GetToken

; 57   : 
; 58   : 	
; 59   : 	switch(ch)

  0007b	0f be c3	 movsx	 eax, bl
  0007e	8d 48 de	 lea	 ecx, DWORD PTR [eax-34]
  00081	56		 push	 esi
  00082	83 f9 5b	 cmp	 ecx, 91			; 0000005bH
  00085	0f 87 2b 01 00
	00		 ja	 $LN6@GetToken
  0008b	0f b6 89 00 00
	00 00		 movzx	 ecx, BYTE PTR $LN46@GetToken[ecx]
  00092	ff 24 8d 00 00
	00 00		 jmp	 DWORD PTR $LN50@GetToken[ecx*4]
$LN39@GetToken:

; 34   : 		{
; 35   : 			return END;	// End of FILE (EOF)

  00099	b8 02 00 00 00	 mov	 eax, 2
  0009e	5b		 pop	 ebx

; 147  : 		}
; 148  : 		break;
; 149  : 
; 150  : 	}
; 151  : 
; 152  : 	return NAME;
; 153  : }

  0009f	8b 4d fc	 mov	 ecx, DWORD PTR __$ArrayPad$[ebp]
  000a2	33 cd		 xor	 ecx, ebp
  000a4	e8 00 00 00 00	 call	 @__security_check_cookie@4
  000a9	8b e5		 mov	 esp, ebp
  000ab	5d		 pop	 ebp
  000ac	c3		 ret	 0
$LN19@GetToken:

; 60   : 	{
; 61   : 
; 62   : 	case 0x23:	// #
; 63   : 		return CurrentToken=COMMAND;

  000ad	b8 23 00 00 00	 mov	 eax, 35			; 00000023H
  000b2	e9 99 01 00 00	 jmp	 $LN48@GetToken
$LN18@GetToken:

; 64   : 		break;
; 65   : 	
; 66   : 	case 0x3B:	// ;
; 67   : 		return CurrentToken=SEMICOLON;

  000b7	b8 3b 00 00 00	 mov	 eax, 59			; 0000003bH
  000bc	e9 8f 01 00 00	 jmp	 $LN48@GetToken
$LN17@GetToken:

; 68   : 		break;
; 69   : 	
; 70   : 	case 0x2C:	// ,
; 71   : 
; 72   : 		return CurrentToken=COMMA;

  000c1	b8 2c 00 00 00	 mov	 eax, 44			; 0000002cH
  000c6	e9 85 01 00 00	 jmp	 $LN48@GetToken
$LN16@GetToken:

; 73   : 		break;
; 74   : 	
; 75   : 	case 0x7B:	// {
; 76   : 		return CurrentToken = LP;

  000cb	b8 7b 00 00 00	 mov	 eax, 123		; 0000007bH
  000d0	e9 7b 01 00 00	 jmp	 $LN48@GetToken
$LN15@GetToken:

; 77   : 		break;
; 78   : 
; 79   : 	case 0x7D:	// }
; 80   : 		return CurrentToken = RP;

  000d5	b8 7d 00 00 00	 mov	 eax, 125		; 0000007dH
  000da	e9 71 01 00 00	 jmp	 $LN48@GetToken
$LN14@GetToken:

; 81   : 		break;
; 82   : 	// Nice Index Table :)	by Deathway
; 83   : 	// Numbers Case
; 84   : 	case 0x2D:	//-
; 85   : 	case 0x2E:	//.
; 86   : 	case '0':	//0
; 87   : 	case '1':	//1
; 88   : 	case '2':	//2
; 89   : 	case '3':	//3
; 90   : 	case '4':	//4		
; 91   : 	case '5':	//5
; 92   : 	case '6':	//6
; 93   : 	case '7':	//7
; 94   : 	case '8':	//8
; 95   : 	case '9':	//9
; 96   : 		ungetc(ch, SMDFile);

  000df	8b 15 00 00 00
	00		 mov	 edx, DWORD PTR _SMDFile
  000e5	52		 push	 edx
  000e6	50		 push	 eax
  000e7	e8 00 00 00 00	 call	 _ungetc

; 97   : 		p = TempString;
; 98   : 		
; 99   : 		while (((ch=getc(SMDFile)) != -1) && ((ch == 0x2E) || (isdigit(ch) != 0) || (ch == 0x2D)))  // 2e '.'  2D '-'

  000ec	a1 00 00 00 00	 mov	 eax, DWORD PTR _SMDFile
  000f1	50		 push	 eax
  000f2	8d 75 98	 lea	 esi, DWORD PTR _TempString$[ebp]
  000f5	e8 00 00 00 00	 call	 _getc
  000fa	8a d8		 mov	 bl, al
  000fc	83 c4 0c	 add	 esp, 12			; 0000000cH
  000ff	80 fb ff	 cmp	 bl, -1
  00102	74 33		 je	 SHORT $LN12@GetToken
$LL13@GetToken:
  00104	80 fb 2e	 cmp	 bl, 46			; 0000002eH
  00107	74 15		 je	 SHORT $LN11@GetToken
  00109	0f be cb	 movsx	 ecx, bl
  0010c	51		 push	 ecx
  0010d	e8 00 00 00 00	 call	 _isdigit
  00112	83 c4 04	 add	 esp, 4
  00115	85 c0		 test	 eax, eax
  00117	75 05		 jne	 SHORT $LN11@GetToken
  00119	80 fb 2d	 cmp	 bl, 45			; 0000002dH
  0011c	75 19		 jne	 SHORT $LN12@GetToken
$LN11@GetToken:
  0011e	8b 15 00 00 00
	00		 mov	 edx, DWORD PTR _SMDFile

; 100  : 		{
; 101  : 			*p = ch;	// Construct a String

  00124	88 1e		 mov	 BYTE PTR [esi], bl
  00126	52		 push	 edx

; 102  : 			p++;

  00127	46		 inc	 esi
  00128	e8 00 00 00 00	 call	 _getc
  0012d	8a d8		 mov	 bl, al
  0012f	83 c4 04	 add	 esp, 4
  00132	80 fb ff	 cmp	 bl, -1
  00135	75 cd		 jne	 SHORT $LL13@GetToken
$LN12@GetToken:

; 103  : 		}		
; 104  : 		*p = 0;
; 105  : 		TokenNumber = atof( TempString);	// Select the first Byte as Main ID

  00137	8d 45 98	 lea	 eax, DWORD PTR _TempString$[ebp]
  0013a	50		 push	 eax
  0013b	c6 06 00	 mov	 BYTE PTR [esi], 0
  0013e	e8 00 00 00 00	 call	 _atof
  00143	d9 1d 00 00 00
	00		 fstp	 DWORD PTR _TokenNumber
  00149	83 c4 04	 add	 esp, 4
  0014c	5e		 pop	 esi

; 106  : 		return CurrentToken  = NUMBER ;

  0014d	c7 05 00 00 00
	00 01 00 00 00	 mov	 DWORD PTR _CurrentToken, 1
  00157	b8 01 00 00 00	 mov	 eax, 1
  0015c	5b		 pop	 ebx

; 147  : 		}
; 148  : 		break;
; 149  : 
; 150  : 	}
; 151  : 
; 152  : 	return NAME;
; 153  : }

  0015d	8b 4d fc	 mov	 ecx, DWORD PTR __$ArrayPad$[ebp]
  00160	33 cd		 xor	 ecx, ebp
  00162	e8 00 00 00 00	 call	 @__security_check_cookie@4
  00167	8b e5		 mov	 esp, ebp
  00169	5d		 pop	 ebp
  0016a	c3		 ret	 0
$LN10@GetToken:

; 107  : 		break;
; 108  : 
; 109  : 	case '\"':	// "	String Case
; 110  : 		p=&TokenString[0];
; 111  : 		
; 112  : 		while (((ch=getc(SMDFile)) != -1 ) && (ch != 0x22))	// nice

  0016b	8b 0d 00 00 00
	00		 mov	 ecx, DWORD PTR _SMDFile
  00171	51		 push	 ecx
  00172	be 00 00 00 00	 mov	 esi, OFFSET _TokenString
  00177	e8 00 00 00 00	 call	 _getc
  0017c	83 c4 04	 add	 esp, 4
  0017f	3c ff		 cmp	 al, -1
  00181	74 1e		 je	 SHORT $LN8@GetToken
$LL9@GetToken:
  00183	3c 22		 cmp	 al, 34			; 00000022H
  00185	0f 84 a1 00 00
	00		 je	 $LN7@GetToken
  0018b	8b 15 00 00 00
	00		 mov	 edx, DWORD PTR _SMDFile

; 113  : 		{
; 114  : 			*p = ch;

  00191	88 06		 mov	 BYTE PTR [esi], al
  00193	52		 push	 edx

; 115  : 			p++;

  00194	46		 inc	 esi
  00195	e8 00 00 00 00	 call	 _getc
  0019a	83 c4 04	 add	 esp, 4
  0019d	3c ff		 cmp	 al, -1
  0019f	75 e2		 jne	 SHORT $LL9@GetToken
$LN8@GetToken:

; 116  : 		}
; 117  : 		if (ch != 0x22 )

  001a1	3c 22		 cmp	 al, 34			; 00000022H
  001a3	0f 84 83 00 00
	00		 je	 $LN7@GetToken

; 118  : 		{
; 119  : 			ungetc(ch, SMDFile);

  001a9	8b 0d 00 00 00
	00		 mov	 ecx, DWORD PTR _SMDFile
  001af	0f be d0	 movsx	 edx, al
  001b2	51		 push	 ecx
  001b3	52		 push	 edx

; 120  : 		}
; 121  : 		*p = 0;
; 122  : 		return CurrentToken = NAME;

  001b4	eb 6e		 jmp	 SHORT $LN49@GetToken
$LN6@GetToken:

; 123  : 		break;
; 124  : 
; 125  : 	default:	// Others
; 126  : 		if (isalpha(ch))

  001b6	50		 push	 eax
  001b7	e8 00 00 00 00	 call	 _isalpha
  001bc	83 c4 04	 add	 esp, 4
  001bf	85 c0		 test	 eax, eax
  001c1	0f 84 84 00 00
	00		 je	 $LN5@GetToken

; 127  : 		{
; 128  : 			p=&TokenString[0];
; 129  : 			*p=ch;
; 130  : 			p++;
; 131  : 
; 132  : 			while ( ((ch=getc(SMDFile)) != -1) && ( (ch == 0x2E) || (ch == 0x5F) || (isalnum(ch) != 0) ) )

  001c7	a1 00 00 00 00	 mov	 eax, DWORD PTR _SMDFile
  001cc	50		 push	 eax
  001cd	88 1d 00 00 00
	00		 mov	 BYTE PTR _TokenString, bl
  001d3	be 01 00 00 00	 mov	 esi, OFFSET _TokenString+1
  001d8	e8 00 00 00 00	 call	 _getc
  001dd	8a d8		 mov	 bl, al
  001df	83 c4 04	 add	 esp, 4
  001e2	80 fb ff	 cmp	 bl, -1
  001e5	74 33		 je	 SHORT $LN3@GetToken
$LL4@GetToken:
  001e7	80 fb 2e	 cmp	 bl, 46			; 0000002eH
  001ea	74 15		 je	 SHORT $LN2@GetToken
  001ec	80 fb 5f	 cmp	 bl, 95			; 0000005fH
  001ef	74 10		 je	 SHORT $LN2@GetToken
  001f1	0f be cb	 movsx	 ecx, bl
  001f4	51		 push	 ecx
  001f5	e8 00 00 00 00	 call	 _isalnum
  001fa	83 c4 04	 add	 esp, 4
  001fd	85 c0		 test	 eax, eax
  001ff	74 19		 je	 SHORT $LN3@GetToken
$LN2@GetToken:
  00201	8b 15 00 00 00
	00		 mov	 edx, DWORD PTR _SMDFile

; 133  : 			{
; 134  : 				*p=ch;

  00207	88 1e		 mov	 BYTE PTR [esi], bl
  00209	52		 push	 edx

; 135  : 				p++;

  0020a	46		 inc	 esi
  0020b	e8 00 00 00 00	 call	 _getc
  00210	8a d8		 mov	 bl, al
  00212	83 c4 04	 add	 esp, 4
  00215	80 fb ff	 cmp	 bl, -1
  00218	75 cd		 jne	 SHORT $LL4@GetToken
$LN3@GetToken:

; 136  : 				
; 137  : 			}
; 138  : 
; 139  : 			ungetc(ch, SMDFile);

  0021a	a1 00 00 00 00	 mov	 eax, DWORD PTR _SMDFile
  0021f	0f be cb	 movsx	 ecx, bl
  00222	50		 push	 eax
  00223	51		 push	 ecx
$LN49@GetToken:
  00224	e8 00 00 00 00	 call	 _ungetc
  00229	83 c4 08	 add	 esp, 8
$LN7@GetToken:

; 140  : 			*p=0;

  0022c	c6 06 00	 mov	 BYTE PTR [esi], 0
  0022f	5e		 pop	 esi

; 141  : 			CurrentToken=NAME;

  00230	c7 05 00 00 00
	00 00 00 00 00	 mov	 DWORD PTR _CurrentToken, 0

; 142  : 			return CurrentToken;

  0023a	33 c0		 xor	 eax, eax
  0023c	5b		 pop	 ebx

; 147  : 		}
; 148  : 		break;
; 149  : 
; 150  : 	}
; 151  : 
; 152  : 	return NAME;
; 153  : }

  0023d	8b 4d fc	 mov	 ecx, DWORD PTR __$ArrayPad$[ebp]
  00240	33 cd		 xor	 ecx, ebp
  00242	e8 00 00 00 00	 call	 @__security_check_cookie@4
  00247	8b e5		 mov	 esp, ebp
  00249	5d		 pop	 ebp
  0024a	c3		 ret	 0
$LN5@GetToken:

; 143  : 		}
; 144  : 		else
; 145  : 		{
; 146  : 			return CurrentToken = SMD_ERROR; // '<'

  0024b	b8 3c 00 00 00	 mov	 eax, 60			; 0000003cH
$LN48@GetToken:

; 147  : 		}
; 148  : 		break;
; 149  : 
; 150  : 	}
; 151  : 
; 152  : 	return NAME;
; 153  : }

  00250	8b 4d fc	 mov	 ecx, DWORD PTR __$ArrayPad$[ebp]
  00253	5e		 pop	 esi
  00254	33 cd		 xor	 ecx, ebp
  00256	a3 00 00 00 00	 mov	 DWORD PTR _CurrentToken, eax
  0025b	5b		 pop	 ebx
  0025c	e8 00 00 00 00	 call	 @__security_check_cookie@4
  00261	8b e5		 mov	 esp, ebp
  00263	5d		 pop	 ebp
  00264	c3		 ret	 0
  00265	8d 49 00	 npad	 3
$LN50@GetToken:
  00268	00 00 00 00	 DD	 $LN10@GetToken
  0026c	00 00 00 00	 DD	 $LN19@GetToken
  00270	00 00 00 00	 DD	 $LN17@GetToken
  00274	00 00 00 00	 DD	 $LN14@GetToken
  00278	00 00 00 00	 DD	 $LN18@GetToken
  0027c	00 00 00 00	 DD	 $LN16@GetToken
  00280	00 00 00 00	 DD	 $LN15@GetToken
  00284	00 00 00 00	 DD	 $LN6@GetToken
$LN46@GetToken:
  00288	00		 DB	 0
  00289	01		 DB	 1
  0028a	07		 DB	 7
  0028b	07		 DB	 7
  0028c	07		 DB	 7
  0028d	07		 DB	 7
  0028e	07		 DB	 7
  0028f	07		 DB	 7
  00290	07		 DB	 7
  00291	07		 DB	 7
  00292	02		 DB	 2
  00293	03		 DB	 3
  00294	03		 DB	 3
  00295	07		 DB	 7
  00296	03		 DB	 3
  00297	03		 DB	 3
  00298	03		 DB	 3
  00299	03		 DB	 3
  0029a	03		 DB	 3
  0029b	03		 DB	 3
  0029c	03		 DB	 3
  0029d	03		 DB	 3
  0029e	03		 DB	 3
  0029f	03		 DB	 3
  002a0	07		 DB	 7
  002a1	04		 DB	 4
  002a2	07		 DB	 7
  002a3	07		 DB	 7
  002a4	07		 DB	 7
  002a5	07		 DB	 7
  002a6	07		 DB	 7
  002a7	07		 DB	 7
  002a8	07		 DB	 7
  002a9	07		 DB	 7
  002aa	07		 DB	 7
  002ab	07		 DB	 7
  002ac	07		 DB	 7
  002ad	07		 DB	 7
  002ae	07		 DB	 7
  002af	07		 DB	 7
  002b0	07		 DB	 7
  002b1	07		 DB	 7
  002b2	07		 DB	 7
  002b3	07		 DB	 7
  002b4	07		 DB	 7
  002b5	07		 DB	 7
  002b6	07		 DB	 7
  002b7	07		 DB	 7
  002b8	07		 DB	 7
  002b9	07		 DB	 7
  002ba	07		 DB	 7
  002bb	07		 DB	 7
  002bc	07		 DB	 7
  002bd	07		 DB	 7
  002be	07		 DB	 7
  002bf	07		 DB	 7
  002c0	07		 DB	 7
  002c1	07		 DB	 7
  002c2	07		 DB	 7
  002c3	07		 DB	 7
  002c4	07		 DB	 7
  002c5	07		 DB	 7
  002c6	07		 DB	 7
  002c7	07		 DB	 7
  002c8	07		 DB	 7
  002c9	07		 DB	 7
  002ca	07		 DB	 7
  002cb	07		 DB	 7
  002cc	07		 DB	 7
  002cd	07		 DB	 7
  002ce	07		 DB	 7
  002cf	07		 DB	 7
  002d0	07		 DB	 7
  002d1	07		 DB	 7
  002d2	07		 DB	 7
  002d3	07		 DB	 7
  002d4	07		 DB	 7
  002d5	07		 DB	 7
  002d6	07		 DB	 7
  002d7	07		 DB	 7
  002d8	07		 DB	 7
  002d9	07		 DB	 7
  002da	07		 DB	 7
  002db	07		 DB	 7
  002dc	07		 DB	 7
  002dd	07		 DB	 7
  002de	07		 DB	 7
  002df	07		 DB	 7
  002e0	07		 DB	 7
  002e1	05		 DB	 5
  002e2	07		 DB	 7
  002e3	06		 DB	 6
?GetToken@@YA?AW4SMDToken@@XZ ENDP			; GetToken
_TEXT	ENDS
PUBLIC	??_7CKanturuTowerOfRefinement@@6B@		; CKanturuTowerOfRefinement::`vftable'
PUBLIC	??0CKanturuTowerOfRefinement@@QAE@XZ		; CKanturuTowerOfRefinement::CKanturuTowerOfRefinement
PUBLIC	??_R4CKanturuTowerOfRefinement@@6B@		; CKanturuTowerOfRefinement::`RTTI Complete Object Locator'
PUBLIC	??_R0?AVCKanturuTowerOfRefinement@@@8		; CKanturuTowerOfRefinement `RTTI Type Descriptor'
PUBLIC	??_R3CKanturuTowerOfRefinement@@8		; CKanturuTowerOfRefinement::`RTTI Class Hierarchy Descriptor'
PUBLIC	??_R2CKanturuTowerOfRefinement@@8		; CKanturuTowerOfRefinement::`RTTI Base Class Array'
PUBLIC	??_R1A@?0A@EA@CKanturuTowerOfRefinement@@8	; CKanturuTowerOfRefinement::`RTTI Base Class Descriptor at (0,-1,0,64)'
EXTRN	??_L@YGXPAXIHP6EX0@Z1@Z:PROC			; `eh vector constructor iterator'
EXTRN	??0CKanturuStateInfo@@QAE@XZ:PROC		; CKanturuStateInfo::CKanturuStateInfo
EXTRN	??1CKanturuStateInfo@@UAE@XZ:PROC		; CKanturuStateInfo::~CKanturuStateInfo
EXTRN	??_7type_info@@6B@:QWORD			; type_info::`vftable'
EXTRN	??_ECKanturuTowerOfRefinement@@UAEPAXI@Z:PROC	; CKanturuTowerOfRefinement::`vector deleting destructor'
;	COMDAT ??_R1A@?0A@EA@CKanturuTowerOfRefinement@@8
; File e:\work\tranet_version\gs\gameserver\kanturutowerofrefinement.h
rdata$r	SEGMENT
??_R1A@?0A@EA@CKanturuTowerOfRefinement@@8 DD FLAT:??_R0?AVCKanturuTowerOfRefinement@@@8 ; CKanturuTowerOfRefinement::`RTTI Base Class Descriptor at (0,-1,0,64)'
	DD	00H
	DD	00H
	DD	0ffffffffH
	DD	00H
	DD	040H
	DD	FLAT:??_R3CKanturuTowerOfRefinement@@8
rdata$r	ENDS
;	COMDAT ??_R2CKanturuTowerOfRefinement@@8
rdata$r	SEGMENT
??_R2CKanturuTowerOfRefinement@@8 DD FLAT:??_R1A@?0A@EA@CKanturuTowerOfRefinement@@8 ; CKanturuTowerOfRefinement::`RTTI Base Class Array'
rdata$r	ENDS
;	COMDAT ??_R3CKanturuTowerOfRefinement@@8
rdata$r	SEGMENT
??_R3CKanturuTowerOfRefinement@@8 DD 00H		; CKanturuTowerOfRefinement::`RTTI Class Hierarchy Descriptor'
	DD	00H
	DD	01H
	DD	FLAT:??_R2CKanturuTowerOfRefinement@@8
rdata$r	ENDS
;	COMDAT ??_R0?AVCKanturuTowerOfRefinement@@@8
_DATA	SEGMENT
??_R0?AVCKanturuTowerOfRefinement@@@8 DD FLAT:??_7type_info@@6B@ ; CKanturuTowerOfRefinement `RTTI Type Descriptor'
	DD	00H
	DB	'.?AVCKanturuTowerOfRefinement@@', 00H
_DATA	ENDS
;	COMDAT ??_R4CKanturuTowerOfRefinement@@6B@
rdata$r	SEGMENT
??_R4CKanturuTowerOfRefinement@@6B@ DD 00H		; CKanturuTowerOfRefinement::`RTTI Complete Object Locator'
	DD	00H
	DD	00H
	DD	FLAT:??_R0?AVCKanturuTowerOfRefinement@@@8
	DD	FLAT:??_R3CKanturuTowerOfRefinement@@8
rdata$r	ENDS
;	COMDAT ??_7CKanturuTowerOfRefinement@@6B@
CONST	SEGMENT
??_7CKanturuTowerOfRefinement@@6B@ DD FLAT:??_R4CKanturuTowerOfRefinement@@6B@ ; CKanturuTowerOfRefinement::`vftable'
	DD	FLAT:??_ECKanturuTowerOfRefinement@@UAEPAXI@Z
; Function compile flags: /Ogtp
; File e:\work\tranet_version\gs\gameserver\kanturutowerofrefinement.cpp
CONST	ENDS
;	COMDAT ??0CKanturuTowerOfRefinement@@QAE@XZ
_TEXT	SEGMENT
??0CKanturuTowerOfRefinement@@QAE@XZ PROC		; CKanturuTowerOfRefinement::CKanturuTowerOfRefinement, COMDAT
; _this$ = ecx

; 24   : {

  00000	56		 push	 esi
  00001	68 00 00 00 00	 push	 OFFSET ??1CKanturuStateInfo@@UAE@XZ ; CKanturuStateInfo::~CKanturuStateInfo
  00006	68 00 00 00 00	 push	 OFFSET ??0CKanturuStateInfo@@QAE@XZ ; CKanturuStateInfo::CKanturuStateInfo
  0000b	8b f1		 mov	 esi, ecx
  0000d	6a 06		 push	 6
  0000f	6a 14		 push	 20			; 00000014H
  00011	8d 46 14	 lea	 eax, DWORD PTR [esi+20]
  00014	50		 push	 eax
  00015	c7 06 00 00 00
	00		 mov	 DWORD PTR [esi], OFFSET ??_7CKanturuTowerOfRefinement@@6B@
  0001b	e8 00 00 00 00	 call	 ??_L@YGXPAXIHP6EX0@Z1@Z

; 25   : 	this->SetTowerOfRefinementState(KANTURU_TOWER_OF_REFINEMENT_NONE);

  00020	33 c0		 xor	 eax, eax
  00022	89 46 04	 mov	 DWORD PTR [esi+4], eax

; 26   : 	this->SetEntrancePermit(FALSE);

  00025	89 46 08	 mov	 DWORD PTR [esi+8], eax

; 27   : 	this->SetUseTowerOfRefinement(FALSE);

  00028	89 46 0c	 mov	 DWORD PTR [esi+12], eax

; 28   : 
; 29   : 	this->m_StateInfoCount = 0;

  0002b	89 86 8c 00 00
	00		 mov	 DWORD PTR [esi+140], eax

; 30   : }

  00031	8b c6		 mov	 eax, esi
  00033	5e		 pop	 esi
  00034	c3		 ret	 0
??0CKanturuTowerOfRefinement@@QAE@XZ ENDP		; CKanturuTowerOfRefinement::CKanturuTowerOfRefinement
_TEXT	ENDS
PUBLIC	??1CKanturuTowerOfRefinement@@UAE@XZ		; CKanturuTowerOfRefinement::~CKanturuTowerOfRefinement
EXTRN	??_M@YGXPAXIHP6EX0@Z@Z:PROC			; `eh vector destructor iterator'
; Function compile flags: /Ogtp
;	COMDAT ??1CKanturuTowerOfRefinement@@UAE@XZ
_TEXT	SEGMENT
??1CKanturuTowerOfRefinement@@UAE@XZ PROC		; CKanturuTowerOfRefinement::~CKanturuTowerOfRefinement, COMDAT
; _this$ = ecx

; 34   : 	return;
; 35   : }

  00000	68 00 00 00 00	 push	 OFFSET ??1CKanturuStateInfo@@UAE@XZ ; CKanturuStateInfo::~CKanturuStateInfo
  00005	6a 06		 push	 6
  00007	c7 01 00 00 00
	00		 mov	 DWORD PTR [ecx], OFFSET ??_7CKanturuTowerOfRefinement@@6B@
  0000d	6a 14		 push	 20			; 00000014H
  0000f	83 c1 14	 add	 ecx, 20			; 00000014H
  00012	51		 push	 ecx
  00013	e8 00 00 00 00	 call	 ??_M@YGXPAXIHP6EX0@Z@Z
  00018	c3		 ret	 0
??1CKanturuTowerOfRefinement@@UAE@XZ ENDP		; CKanturuTowerOfRefinement::~CKanturuTowerOfRefinement
_TEXT	ENDS
PUBLIC	?Init@CKanturuTowerOfRefinement@@QAEXXZ		; CKanturuTowerOfRefinement::Init
; Function compile flags: /Ogtp
;	COMDAT ?Init@CKanturuTowerOfRefinement@@QAEXXZ
_TEXT	SEGMENT
?Init@CKanturuTowerOfRefinement@@QAEXXZ PROC		; CKanturuTowerOfRefinement::Init, COMDAT
; _this$ = ecx

; 41   : 	return;
; 42   : }

  00000	c3		 ret	 0
?Init@CKanturuTowerOfRefinement@@QAEXXZ ENDP		; CKanturuTowerOfRefinement::Init
_TEXT	ENDS
PUBLIC	??_C@_0DD@IGCDAKFG@?$FL?5KANTURU?5?$FN?$FL?5TowerOfRefinement?5?$FN@ ; `string'
PUBLIC	?SetState_NONE@CKanturuTowerOfRefinement@@QAEXXZ ; CKanturuTowerOfRefinement::SetState_NONE
EXTRN	?ResetAllData@CKanturuBattleUserMng@@QAEXXZ:PROC ; CKanturuBattleUserMng::ResetAllData
EXTRN	?g_KanturuBattleUserMng@@3VCKanturuBattleUserMng@@A:BYTE ; g_KanturuBattleUserMng
EXTRN	?LogAddC@@3P6AXEPADZZA:DWORD			; LogAddC
;	COMDAT ??_C@_0DD@IGCDAKFG@?$FL?5KANTURU?5?$FN?$FL?5TowerOfRefinement?5?$FN@
; File e:\work\tranet_version\gs\gameserver\kanturutowerofrefinement.h
CONST	SEGMENT
??_C@_0DD@IGCDAKFG@?$FL?5KANTURU?5?$FN?$FL?5TowerOfRefinement?5?$FN@ DB '['
	DB	' KANTURU ][ TowerOfRefinement ] State(%d) -> NONE', 00H ; `string'
; Function compile flags: /Ogtp
; File e:\work\tranet_version\gs\gameserver\kanturutowerofrefinement.cpp
CONST	ENDS
;	COMDAT ?SetState_NONE@CKanturuTowerOfRefinement@@QAEXXZ
_TEXT	SEGMENT
?SetState_NONE@CKanturuTowerOfRefinement@@QAEXXZ PROC	; CKanturuTowerOfRefinement::SetState_NONE, COMDAT
; _this$ = ecx

; 251  : {

  00000	56		 push	 esi
  00001	8b f1		 mov	 esi, ecx

; 252  : 	LogAddC(5, "[ KANTURU ][ TowerOfRefinement ] State(%d) -> NONE",
; 253  : 		this->m_iTowerOfRefinementState);

  00003	8b 46 04	 mov	 eax, DWORD PTR [esi+4]
  00006	50		 push	 eax
  00007	68 00 00 00 00	 push	 OFFSET ??_C@_0DD@IGCDAKFG@?$FL?5KANTURU?5?$FN?$FL?5TowerOfRefinement?5?$FN@
  0000c	6a 05		 push	 5
  0000e	ff 15 00 00 00
	00		 call	 DWORD PTR ?LogAddC@@3P6AXEPADZZA ; LogAddC
  00014	83 c4 0c	 add	 esp, 12			; 0000000cH

; 254  : 
; 255  : 	this->SetTowerOfRefinementState(KANTURU_TOWER_OF_REFINEMENT_NONE);

  00017	33 c0		 xor	 eax, eax
  00019	89 46 04	 mov	 DWORD PTR [esi+4], eax

; 256  : 	this->SetEntrancePermit(FALSE);

  0001c	89 46 08	 mov	 DWORD PTR [esi+8], eax

; 257  : 	this->SetUseTowerOfRefinement(FALSE);

  0001f	89 46 0c	 mov	 DWORD PTR [esi+12], eax

; 258  : 	g_KanturuBattleUserMng.ResetAllData();

  00022	b9 00 00 00 00	 mov	 ecx, OFFSET ?g_KanturuBattleUserMng@@3VCKanturuBattleUserMng@@A ; g_KanturuBattleUserMng
  00027	5e		 pop	 esi
  00028	e9 00 00 00 00	 jmp	 ?ResetAllData@CKanturuBattleUserMng@@QAEXXZ ; CKanturuBattleUserMng::ResetAllData
?SetState_NONE@CKanturuTowerOfRefinement@@QAEXXZ ENDP	; CKanturuTowerOfRefinement::SetState_NONE
_TEXT	ENDS
PUBLIC	??_C@_0DN@EPMMEAPN@?$FL?5KANTURU?5?$FN?$FL?5TowerOfRefinement?5?$FN@ ; `string'
PUBLIC	?SetState_REVITALIZATION@CKanturuTowerOfRefinement@@QAEXXZ ; CKanturuTowerOfRefinement::SetState_REVITALIZATION
;	COMDAT ??_C@_0DN@EPMMEAPN@?$FL?5KANTURU?5?$FN?$FL?5TowerOfRefinement?5?$FN@
; File e:\work\tranet_version\gs\gameserver\kanturutowerofrefinement.h
CONST	SEGMENT
??_C@_0DN@EPMMEAPN@?$FL?5KANTURU?5?$FN?$FL?5TowerOfRefinement?5?$FN@ DB '['
	DB	' KANTURU ][ TowerOfRefinement ] State(%d) -> REVITALIZATION', 00H ; `string'
; Function compile flags: /Ogtp
; File e:\work\tranet_version\gs\gameserver\kanturutowerofrefinement.cpp
CONST	ENDS
;	COMDAT ?SetState_REVITALIZATION@CKanturuTowerOfRefinement@@QAEXXZ
_TEXT	SEGMENT
?SetState_REVITALIZATION@CKanturuTowerOfRefinement@@QAEXXZ PROC ; CKanturuTowerOfRefinement::SetState_REVITALIZATION, COMDAT
; _this$ = ecx

; 263  : {

  00000	56		 push	 esi
  00001	8b f1		 mov	 esi, ecx

; 264  : 	LogAddC(5, "[ KANTURU ][ TowerOfRefinement ] State(%d) -> REVITALIZATION",
; 265  : 		this->m_iTowerOfRefinementState);

  00003	8b 46 04	 mov	 eax, DWORD PTR [esi+4]
  00006	50		 push	 eax
  00007	68 00 00 00 00	 push	 OFFSET ??_C@_0DN@EPMMEAPN@?$FL?5KANTURU?5?$FN?$FL?5TowerOfRefinement?5?$FN@
  0000c	6a 05		 push	 5
  0000e	ff 15 00 00 00
	00		 call	 DWORD PTR ?LogAddC@@3P6AXEPADZZA ; LogAddC

; 266  : 
; 267  : 	this->SetTowerOfRefinementState(KANTURU_TOWER_OF_REFINEMENT_REVITALIZATION);

  00014	b8 01 00 00 00	 mov	 eax, 1
  00019	83 c4 0c	 add	 esp, 12			; 0000000cH
  0001c	89 46 04	 mov	 DWORD PTR [esi+4], eax

; 268  : 	this->SetEntrancePermit(TRUE);

  0001f	89 46 08	 mov	 DWORD PTR [esi+8], eax

; 269  : 	this->SetUseTowerOfRefinement(TRUE);

  00022	89 46 0c	 mov	 DWORD PTR [esi+12], eax
  00025	5e		 pop	 esi

; 270  : }

  00026	c3		 ret	 0
?SetState_REVITALIZATION@CKanturuTowerOfRefinement@@QAEXXZ ENDP ; CKanturuTowerOfRefinement::SetState_REVITALIZATION
_TEXT	ENDS
PUBLIC	??_C@_0DG@EMELBCOM@?$FL?5KANTURU?5?$FN?$FL?5TowerOfRefinement?5?$FN@ ; `string'
PUBLIC	?SetState_NOTIFY1@CKanturuTowerOfRefinement@@QAEXXZ ; CKanturuTowerOfRefinement::SetState_NOTIFY1
EXTRN	?SendMsgKauturuMapUser@CKanturuUtil@@QAAXPADZZ:PROC ; CKanturuUtil::SendMsgKauturuMapUser
EXTRN	?Get@CMsg@@QAEPADH@Z:PROC			; CMsg::Get
EXTRN	?lMsg@@3VCMsg@@A:BYTE				; lMsg
;	COMDAT ??_C@_0DG@EMELBCOM@?$FL?5KANTURU?5?$FN?$FL?5TowerOfRefinement?5?$FN@
; File e:\work\tranet_version\gs\gameserver\kanturutowerofrefinement.h
CONST	SEGMENT
??_C@_0DG@EMELBCOM@?$FL?5KANTURU?5?$FN?$FL?5TowerOfRefinement?5?$FN@ DB '['
	DB	' KANTURU ][ TowerOfRefinement ] State(%d) -> NOTIFY1', 00H ; `string'
; Function compile flags: /Ogtp
; File e:\work\tranet_version\gs\gameserver\kanturutowerofrefinement.cpp
CONST	ENDS
;	COMDAT ?SetState_NOTIFY1@CKanturuTowerOfRefinement@@QAEXXZ
_TEXT	SEGMENT
?SetState_NOTIFY1@CKanturuTowerOfRefinement@@QAEXXZ PROC ; CKanturuTowerOfRefinement::SetState_NOTIFY1, COMDAT
; _this$ = ecx

; 275  : {

  00000	56		 push	 esi
  00001	8b f1		 mov	 esi, ecx

; 276  : 	LogAddC(5, "[ KANTURU ][ TowerOfRefinement ] State(%d) -> NOTIFY1",
; 277  : 		this->m_iTowerOfRefinementState);

  00003	8b 46 04	 mov	 eax, DWORD PTR [esi+4]
  00006	50		 push	 eax
  00007	68 00 00 00 00	 push	 OFFSET ??_C@_0DG@EMELBCOM@?$FL?5KANTURU?5?$FN?$FL?5TowerOfRefinement?5?$FN@
  0000c	6a 05		 push	 5
  0000e	ff 15 00 00 00
	00		 call	 DWORD PTR ?LogAddC@@3P6AXEPADZZA ; LogAddC
  00014	83 c4 0c	 add	 esp, 12			; 0000000cH

; 278  : 
; 279  : 	this->SetTowerOfRefinementState(KANTURU_TOWER_OF_REFINEMENT_NOTIFY1);
; 280  : 	this->SetEntrancePermit(TRUE);

  00017	b8 01 00 00 00	 mov	 eax, 1

; 281  : 	this->SetUseTowerOfRefinement(TRUE);
; 282  : 	KANTURU_UTIL.SendMsgKauturuMapUser(lMsg.Get(MSGGET(13, 29)));

  0001c	68 1d 0d 00 00	 push	 3357			; 00000d1dH
  00021	b9 00 00 00 00	 mov	 ecx, OFFSET ?lMsg@@3VCMsg@@A ; lMsg
  00026	c7 46 04 02 00
	00 00		 mov	 DWORD PTR [esi+4], 2
  0002d	89 46 08	 mov	 DWORD PTR [esi+8], eax
  00030	89 46 0c	 mov	 DWORD PTR [esi+12], eax
  00033	e8 00 00 00 00	 call	 ?Get@CMsg@@QAEPADH@Z	; CMsg::Get
  00038	50		 push	 eax
  00039	68 00 00 00 00	 push	 OFFSET _KANTURU_UTIL
  0003e	e8 00 00 00 00	 call	 ?SendMsgKauturuMapUser@CKanturuUtil@@QAAXPADZZ ; CKanturuUtil::SendMsgKauturuMapUser
  00043	83 c4 08	 add	 esp, 8
  00046	5e		 pop	 esi

; 283  : }

  00047	c3		 ret	 0
?SetState_NOTIFY1@CKanturuTowerOfRefinement@@QAEXXZ ENDP ; CKanturuTowerOfRefinement::SetState_NOTIFY1
_TEXT	ENDS
PUBLIC	??_C@_0DE@FEKJLNCC@?$FL?5KANTURU?5?$FN?$FL?5TowerOfRefinement?5?$FN@ ; `string'
PUBLIC	?SetState_CLOSE@CKanturuTowerOfRefinement@@QAEXXZ ; CKanturuTowerOfRefinement::SetState_CLOSE
;	COMDAT ??_C@_0DE@FEKJLNCC@?$FL?5KANTURU?5?$FN?$FL?5TowerOfRefinement?5?$FN@
; File e:\work\tranet_version\gs\gameserver\kanturutowerofrefinement.h
CONST	SEGMENT
??_C@_0DE@FEKJLNCC@?$FL?5KANTURU?5?$FN?$FL?5TowerOfRefinement?5?$FN@ DB '['
	DB	' KANTURU ][ TowerOfRefinement ] State(%d) -> CLOSE', 00H ; `string'
; Function compile flags: /Ogtp
; File e:\work\tranet_version\gs\gameserver\kanturutowerofrefinement.cpp
CONST	ENDS
;	COMDAT ?SetState_CLOSE@CKanturuTowerOfRefinement@@QAEXXZ
_TEXT	SEGMENT
?SetState_CLOSE@CKanturuTowerOfRefinement@@QAEXXZ PROC	; CKanturuTowerOfRefinement::SetState_CLOSE, COMDAT
; _this$ = ecx

; 288  : {

  00000	56		 push	 esi
  00001	8b f1		 mov	 esi, ecx

; 289  : 	LogAddC(5, "[ KANTURU ][ TowerOfRefinement ] State(%d) -> CLOSE",
; 290  : 		this->m_iTowerOfRefinementState);

  00003	8b 46 04	 mov	 eax, DWORD PTR [esi+4]
  00006	50		 push	 eax
  00007	68 00 00 00 00	 push	 OFFSET ??_C@_0DE@FEKJLNCC@?$FL?5KANTURU?5?$FN?$FL?5TowerOfRefinement?5?$FN@
  0000c	6a 05		 push	 5
  0000e	ff 15 00 00 00
	00		 call	 DWORD PTR ?LogAddC@@3P6AXEPADZZA ; LogAddC
  00014	83 c4 0c	 add	 esp, 12			; 0000000cH

; 291  : 
; 292  : 	this->SetTowerOfRefinementState(KANTURU_TOWER_OF_REFINEMENT_CLOSE);
; 293  : 	this->SetEntrancePermit(FALSE);
; 294  : 	this->SetUseTowerOfRefinement(TRUE);
; 295  : 	KANTURU_UTIL.SendMsgKauturuMapUser(lMsg.Get(MSGGET(13, 30)));

  00017	68 1e 0d 00 00	 push	 3358			; 00000d1eH
  0001c	b9 00 00 00 00	 mov	 ecx, OFFSET ?lMsg@@3VCMsg@@A ; lMsg
  00021	c7 46 04 03 00
	00 00		 mov	 DWORD PTR [esi+4], 3
  00028	c7 46 08 00 00
	00 00		 mov	 DWORD PTR [esi+8], 0
  0002f	c7 46 0c 01 00
	00 00		 mov	 DWORD PTR [esi+12], 1
  00036	e8 00 00 00 00	 call	 ?Get@CMsg@@QAEPADH@Z	; CMsg::Get
  0003b	50		 push	 eax
  0003c	68 00 00 00 00	 push	 OFFSET _KANTURU_UTIL
  00041	e8 00 00 00 00	 call	 ?SendMsgKauturuMapUser@CKanturuUtil@@QAAXPADZZ ; CKanturuUtil::SendMsgKauturuMapUser
  00046	83 c4 08	 add	 esp, 8
  00049	5e		 pop	 esi

; 296  : }

  0004a	c3		 ret	 0
?SetState_CLOSE@CKanturuTowerOfRefinement@@QAEXXZ ENDP	; CKanturuTowerOfRefinement::SetState_CLOSE
_TEXT	ENDS
PUBLIC	??_C@_0DG@GHGGEBCP@?$FL?5KANTURU?5?$FN?$FL?5TowerOfRefinement?5?$FN@ ; `string'
PUBLIC	?SetState_NOTIFY2@CKanturuTowerOfRefinement@@QAEXXZ ; CKanturuTowerOfRefinement::SetState_NOTIFY2
;	COMDAT ??_C@_0DG@GHGGEBCP@?$FL?5KANTURU?5?$FN?$FL?5TowerOfRefinement?5?$FN@
; File e:\work\tranet_version\gs\gameserver\kanturutowerofrefinement.h
CONST	SEGMENT
??_C@_0DG@GHGGEBCP@?$FL?5KANTURU?5?$FN?$FL?5TowerOfRefinement?5?$FN@ DB '['
	DB	' KANTURU ][ TowerOfRefinement ] State(%d) -> NOTIFY2', 00H ; `string'
; Function compile flags: /Ogtp
; File e:\work\tranet_version\gs\gameserver\kanturutowerofrefinement.cpp
CONST	ENDS
;	COMDAT ?SetState_NOTIFY2@CKanturuTowerOfRefinement@@QAEXXZ
_TEXT	SEGMENT
?SetState_NOTIFY2@CKanturuTowerOfRefinement@@QAEXXZ PROC ; CKanturuTowerOfRefinement::SetState_NOTIFY2, COMDAT
; _this$ = ecx

; 301  : {

  00000	56		 push	 esi
  00001	8b f1		 mov	 esi, ecx

; 302  : 	LogAddC(5, "[ KANTURU ][ TowerOfRefinement ] State(%d) -> NOTIFY2",
; 303  : 		this->m_iTowerOfRefinementState);

  00003	8b 46 04	 mov	 eax, DWORD PTR [esi+4]
  00006	50		 push	 eax
  00007	68 00 00 00 00	 push	 OFFSET ??_C@_0DG@GHGGEBCP@?$FL?5KANTURU?5?$FN?$FL?5TowerOfRefinement?5?$FN@
  0000c	6a 05		 push	 5
  0000e	ff 15 00 00 00
	00		 call	 DWORD PTR ?LogAddC@@3P6AXEPADZZA ; LogAddC
  00014	83 c4 0c	 add	 esp, 12			; 0000000cH

; 304  : 
; 305  : 	this->SetTowerOfRefinementState(KANTURU_TOWER_OF_REFINEMENT_NOTIFY2);

  00017	c7 46 04 04 00
	00 00		 mov	 DWORD PTR [esi+4], 4

; 306  : 	this->SetEntrancePermit(FALSE);

  0001e	c7 46 08 00 00
	00 00		 mov	 DWORD PTR [esi+8], 0

; 307  : 	this->SetUseTowerOfRefinement(TRUE);

  00025	c7 46 0c 01 00
	00 00		 mov	 DWORD PTR [esi+12], 1
  0002c	5e		 pop	 esi

; 308  : }

  0002d	c3		 ret	 0
?SetState_NOTIFY2@CKanturuTowerOfRefinement@@QAEXXZ ENDP ; CKanturuTowerOfRefinement::SetState_NOTIFY2
_TEXT	ENDS
PUBLIC	??_C@_0DN@FDKBEMDF@?$FL?5KANTURU?5?$FN?$FL?5TowerOfRefinement?5?$FN@ ; `string'
PUBLIC	??_C@_0DC@NKECDCHD@?$FL?5KANTURU?5?$FN?$FL?5TowerOfRefinement?5?$FN@ ; `string'
PUBLIC	?SetState_END@CKanturuTowerOfRefinement@@QAEXXZ	; CKanturuTowerOfRefinement::SetState_END
EXTRN	?LogAddTD@@3P6AXPADZZA:DWORD			; LogAddTD
EXTRN	?gObjMoveGate@@YAHHH@Z:PROC			; gObjMoveGate
EXTRN	?gObj@@3PAUOBJECTSTRUCT@@A:DWORD		; gObj
;	COMDAT ??_C@_0DN@FDKBEMDF@?$FL?5KANTURU?5?$FN?$FL?5TowerOfRefinement?5?$FN@
; File e:\work\tranet_version\gs\gameserver\kanturutowerofrefinement.h
CONST	SEGMENT
??_C@_0DN@FDKBEMDF@?$FL?5KANTURU?5?$FN?$FL?5TowerOfRefinement?5?$FN@ DB '['
	DB	' KANTURU ][ TowerOfRefinement ] State End:Kick Out [%s][%s]', 00H ; `string'
CONST	ENDS
;	COMDAT ??_C@_0DC@NKECDCHD@?$FL?5KANTURU?5?$FN?$FL?5TowerOfRefinement?5?$FN@
CONST	SEGMENT
??_C@_0DC@NKECDCHD@?$FL?5KANTURU?5?$FN?$FL?5TowerOfRefinement?5?$FN@ DB '['
	DB	' KANTURU ][ TowerOfRefinement ] State(%d) -> END', 00H ; `string'
; Function compile flags: /Ogtp
; File e:\work\tranet_version\gs\gameserver\kanturutowerofrefinement.cpp
CONST	ENDS
;	COMDAT ?SetState_END@CKanturuTowerOfRefinement@@QAEXXZ
_TEXT	SEGMENT
?SetState_END@CKanturuTowerOfRefinement@@QAEXXZ PROC	; CKanturuTowerOfRefinement::SetState_END, COMDAT
; _this$ = ecx

; 313  : {

  00000	56		 push	 esi
  00001	57		 push	 edi
  00002	8b f9		 mov	 edi, ecx

; 314  : 	LogAddC(5, "[ KANTURU ][ TowerOfRefinement ] State(%d) -> END",
; 315  : 		this->m_iTowerOfRefinementState);

  00004	8b 47 04	 mov	 eax, DWORD PTR [edi+4]
  00007	50		 push	 eax
  00008	68 00 00 00 00	 push	 OFFSET ??_C@_0DC@NKECDCHD@?$FL?5KANTURU?5?$FN?$FL?5TowerOfRefinement?5?$FN@
  0000d	6a 05		 push	 5
  0000f	ff 15 00 00 00
	00		 call	 DWORD PTR ?LogAddC@@3P6AXEPADZZA ; LogAddC

; 316  : 
; 317  : 	this->SetTowerOfRefinementState(KANTURU_TOWER_OF_REFINEMENT_END);
; 318  : 	this->SetEntrancePermit(FALSE);

  00015	33 f6		 xor	 esi, esi
  00017	c7 47 04 05 00
	00 00		 mov	 DWORD PTR [edi+4], 5
  0001e	89 77 08	 mov	 DWORD PTR [edi+8], esi

; 319  : 	this->SetUseTowerOfRefinement(FALSE);

  00021	89 77 0c	 mov	 DWORD PTR [edi+12], esi
  00024	a1 00 00 00 00	 mov	 eax, DWORD PTR ?gObj@@3PAUOBJECTSTRUCT@@A ; gObj
  00029	83 c4 0c	 add	 esp, 12			; 0000000cH

; 320  : 
; 321  : 	for ( int iCount=0;iCount<OBJMAX;iCount++)

  0002c	33 ff		 xor	 edi, edi
  0002e	8b ff		 npad	 2
$LL4@SetState_E:

; 322  : 	{
; 323  : 		if ( gObj[iCount].Type == OBJ_USER &&
; 324  : 			 gObj[iCount].MapNumber == MAP_INDEX_KANTURU_BOSS )

  00030	66 83 7c 06 68
	01		 cmp	 WORD PTR [esi+eax+104], 1
  00036	75 37		 jne	 SHORT $LN3@SetState_E
  00038	80 bc 06 49 01
	00 00 27	 cmp	 BYTE PTR [esi+eax+329], 39 ; 00000027H
  00040	75 2d		 jne	 SHORT $LN3@SetState_E

; 325  : 		{
; 326  : 			gObjMoveGate(iCount, 136);

  00042	68 88 00 00 00	 push	 136			; 00000088H
  00047	57		 push	 edi
  00048	e8 00 00 00 00	 call	 ?gObjMoveGate@@YAHHH@Z	; gObjMoveGate

; 327  : 
; 328  : 			LogAddTD("[ KANTURU ][ TowerOfRefinement ] State End:Kick Out [%s][%s]",
; 329  : 				gObj[iCount].AccountID, gObj[iCount].Name);

  0004d	a1 00 00 00 00	 mov	 eax, DWORD PTR ?gObj@@3PAUOBJECTSTRUCT@@A ; gObj
  00052	8d 4c 06 77	 lea	 ecx, DWORD PTR [esi+eax+119]
  00056	51		 push	 ecx
  00057	8d 54 06 6c	 lea	 edx, DWORD PTR [esi+eax+108]
  0005b	52		 push	 edx
  0005c	68 00 00 00 00	 push	 OFFSET ??_C@_0DN@FDKBEMDF@?$FL?5KANTURU?5?$FN?$FL?5TowerOfRefinement?5?$FN@
  00061	ff 15 00 00 00
	00		 call	 DWORD PTR ?LogAddTD@@3P6AXPADZZA ; LogAddTD
  00067	a1 00 00 00 00	 mov	 eax, DWORD PTR ?gObj@@3PAUOBJECTSTRUCT@@A ; gObj
  0006c	83 c4 14	 add	 esp, 20			; 00000014H
$LN3@SetState_E:

; 320  : 
; 321  : 	for ( int iCount=0;iCount<OBJMAX;iCount++)

  0006f	81 c6 50 2b 00
	00		 add	 esi, 11088		; 00002b50H
  00075	47		 inc	 edi
  00076	81 fe 80 d7 e9
	09		 cmp	 esi, 166320000		; 09e9d780H
  0007c	7c b2		 jl	 SHORT $LL4@SetState_E

; 330  : 		}
; 331  : 	}
; 332  : }

  0007e	5f		 pop	 edi
  0007f	5e		 pop	 esi
  00080	c3		 ret	 0
?SetState_END@CKanturuTowerOfRefinement@@QAEXXZ ENDP	; CKanturuTowerOfRefinement::SetState_END
_TEXT	ENDS
PUBLIC	?ProcState_NONE@CKanturuTowerOfRefinement@@QAEXXZ ; CKanturuTowerOfRefinement::ProcState_NONE
; Function compile flags: /Ogtp
;	COMDAT ?ProcState_NONE@CKanturuTowerOfRefinement@@QAEXXZ
_TEXT	SEGMENT
?ProcState_NONE@CKanturuTowerOfRefinement@@QAEXXZ PROC	; CKanturuTowerOfRefinement::ProcState_NONE, COMDAT
; _this$ = ecx

; 338  : 	return;
; 339  : }

  00000	c3		 ret	 0
?ProcState_NONE@CKanturuTowerOfRefinement@@QAEXXZ ENDP	; CKanturuTowerOfRefinement::ProcState_NONE
_TEXT	ENDS
PUBLIC	?ProcState_REVITALIZATION@CKanturuTowerOfRefinement@@QAEXXZ ; CKanturuTowerOfRefinement::ProcState_REVITALIZATION
; Function compile flags: /Ogtp
;	COMDAT ?ProcState_REVITALIZATION@CKanturuTowerOfRefinement@@QAEXXZ
_TEXT	SEGMENT
?ProcState_REVITALIZATION@CKanturuTowerOfRefinement@@QAEXXZ PROC ; CKanturuTowerOfRefinement::ProcState_REVITALIZATION, COMDAT
; _this$ = ecx

; 344  : 	return;
; 345  : }

  00000	c3		 ret	 0
?ProcState_REVITALIZATION@CKanturuTowerOfRefinement@@QAEXXZ ENDP ; CKanturuTowerOfRefinement::ProcState_REVITALIZATION
_TEXT	ENDS
PUBLIC	?ProcState_NOTIFY1@CKanturuTowerOfRefinement@@QAEXXZ ; CKanturuTowerOfRefinement::ProcState_NOTIFY1
; Function compile flags: /Ogtp
;	COMDAT ?ProcState_NOTIFY1@CKanturuTowerOfRefinement@@QAEXXZ
_TEXT	SEGMENT
?ProcState_NOTIFY1@CKanturuTowerOfRefinement@@QAEXXZ PROC ; CKanturuTowerOfRefinement::ProcState_NOTIFY1, COMDAT
; _this$ = ecx

; 350  : 	return;
; 351  : }

  00000	c3		 ret	 0
?ProcState_NOTIFY1@CKanturuTowerOfRefinement@@QAEXXZ ENDP ; CKanturuTowerOfRefinement::ProcState_NOTIFY1
_TEXT	ENDS
PUBLIC	?ProcState_CLOSE@CKanturuTowerOfRefinement@@QAEXXZ ; CKanturuTowerOfRefinement::ProcState_CLOSE
; Function compile flags: /Ogtp
;	COMDAT ?ProcState_CLOSE@CKanturuTowerOfRefinement@@QAEXXZ
_TEXT	SEGMENT
?ProcState_CLOSE@CKanturuTowerOfRefinement@@QAEXXZ PROC	; CKanturuTowerOfRefinement::ProcState_CLOSE, COMDAT
; _this$ = ecx

; 356  : 	return;
; 357  : }

  00000	c3		 ret	 0
?ProcState_CLOSE@CKanturuTowerOfRefinement@@QAEXXZ ENDP	; CKanturuTowerOfRefinement::ProcState_CLOSE
_TEXT	ENDS
PUBLIC	?ProcState_NOTIFY2@CKanturuTowerOfRefinement@@QAEXXZ ; CKanturuTowerOfRefinement::ProcState_NOTIFY2
; Function compile flags: /Ogtp
;	COMDAT ?ProcState_NOTIFY2@CKanturuTowerOfRefinement@@QAEXXZ
_TEXT	SEGMENT
?ProcState_NOTIFY2@CKanturuTowerOfRefinement@@QAEXXZ PROC ; CKanturuTowerOfRefinement::ProcState_NOTIFY2, COMDAT
; _this$ = ecx

; 362  : 	return;
; 363  : }

  00000	c3		 ret	 0
?ProcState_NOTIFY2@CKanturuTowerOfRefinement@@QAEXXZ ENDP ; CKanturuTowerOfRefinement::ProcState_NOTIFY2
_TEXT	ENDS
PUBLIC	?ProcState_END@CKanturuTowerOfRefinement@@QAEXXZ ; CKanturuTowerOfRefinement::ProcState_END
; Function compile flags: /Ogtp
;	COMDAT ?ProcState_END@CKanturuTowerOfRefinement@@QAEXXZ
_TEXT	SEGMENT
?ProcState_END@CKanturuTowerOfRefinement@@QAEXXZ PROC	; CKanturuTowerOfRefinement::ProcState_END, COMDAT
; _this$ = ecx

; 368  : 	return;
; 369  : }

  00000	c3		 ret	 0
?ProcState_END@CKanturuTowerOfRefinement@@QAEXXZ ENDP	; CKanturuTowerOfRefinement::ProcState_END
_TEXT	ENDS
PUBLIC	?GetRemainTime@CKanturuTowerOfRefinement@@QAEHXZ ; CKanturuTowerOfRefinement::GetRemainTime
; Function compile flags: /Ogtp
;	COMDAT ?GetRemainTime@CKanturuTowerOfRefinement@@QAEHXZ
_TEXT	SEGMENT
?GetRemainTime@CKanturuTowerOfRefinement@@QAEHXZ PROC	; CKanturuTowerOfRefinement::GetRemainTime, COMDAT
; _this$ = ecx

; 393  : 	int iCurrentState = this->GetTowerOfRefinementState();
; 394  : 	return this->m_StateInfo[iCurrentState].GetRemainTime();

  00000	8b 41 04	 mov	 eax, DWORD PTR [ecx+4]
  00003	8d 44 80 05	 lea	 eax, DWORD PTR [eax+eax*4+5]
  00007	56		 push	 esi
  00008	8d 34 81	 lea	 esi, DWORD PTR [ecx+eax*4]
  0000b	33 c0		 xor	 eax, eax
  0000d	83 7e 08 01	 cmp	 DWORD PTR [esi+8], 1
  00011	75 2b		 jne	 SHORT $LN7@GetRemainT@2
  00013	57		 push	 edi
  00014	8b 7e 10	 mov	 edi, DWORD PTR [esi+16]
  00017	ff 15 00 00 00
	00		 call	 DWORD PTR __imp__GetTickCount@0
  0001d	8b 4e 0c	 mov	 ecx, DWORD PTR [esi+12]
  00020	2b c7		 sub	 eax, edi
  00022	2b c8		 sub	 ecx, eax
  00024	5f		 pop	 edi
  00025	85 c9		 test	 ecx, ecx
  00027	7f 04		 jg	 SHORT $LN5@GetRemainT@2
  00029	33 c0		 xor	 eax, eax
  0002b	5e		 pop	 esi

; 395  : }

  0002c	c3		 ret	 0

; 393  : 	int iCurrentState = this->GetTowerOfRefinementState();
; 394  : 	return this->m_StateInfo[iCurrentState].GetRemainTime();

$LN5@GetRemainT@2:
  0002d	b8 d3 4d 62 10	 mov	 eax, 274877907		; 10624dd3H
  00032	f7 e9		 imul	 ecx
  00034	c1 fa 06	 sar	 edx, 6
  00037	8b c2		 mov	 eax, edx
  00039	c1 e8 1f	 shr	 eax, 31			; 0000001fH
  0003c	03 c2		 add	 eax, edx
$LN7@GetRemainT@2:
  0003e	5e		 pop	 esi

; 395  : }

  0003f	c3		 ret	 0
?GetRemainTime@CKanturuTowerOfRefinement@@QAEHXZ ENDP	; CKanturuTowerOfRefinement::GetRemainTime
_TEXT	ENDS
PUBLIC	?ResetTimeInfo@CKanturuStateInfo@@QAEXXZ	; CKanturuStateInfo::ResetTimeInfo
; Function compile flags: /Ogtp
; File e:\work\tranet_version\gs\gameserver\kanturustateinfo.h
;	COMDAT ?ResetTimeInfo@CKanturuStateInfo@@QAEXXZ
_TEXT	SEGMENT
?ResetTimeInfo@CKanturuStateInfo@@QAEXXZ PROC		; CKanturuStateInfo::ResetTimeInfo, COMDAT
; _this$ = ecx

; 22   : 		this->SetStateInfo(0);

  00000	33 c0		 xor	 eax, eax
  00002	89 41 04	 mov	 DWORD PTR [ecx+4], eax

; 23   : 		this->SetCondition(0);

  00005	89 41 08	 mov	 DWORD PTR [ecx+8], eax

; 24   : 		this->SetValue(0);

  00008	89 41 0c	 mov	 DWORD PTR [ecx+12], eax

; 25   : 	}

  0000b	c3		 ret	 0
?ResetTimeInfo@CKanturuStateInfo@@QAEXXZ ENDP		; CKanturuStateInfo::ResetTimeInfo
_TEXT	ENDS
EXTRN	??3@YAXPAX@Z:PROC				; operator delete
; Function compile flags: /Ogtp
;	COMDAT ??_GCKanturuTowerOfRefinement@@UAEPAXI@Z
_TEXT	SEGMENT
___flags$ = 8						; size = 4
??_GCKanturuTowerOfRefinement@@UAEPAXI@Z PROC		; CKanturuTowerOfRefinement::`scalar deleting destructor', COMDAT
; _this$ = ecx
  00000	55		 push	 ebp
  00001	8b ec		 mov	 ebp, esp
  00003	56		 push	 esi
  00004	8b f1		 mov	 esi, ecx
  00006	e8 00 00 00 00	 call	 ??1CKanturuTowerOfRefinement@@UAE@XZ ; CKanturuTowerOfRefinement::~CKanturuTowerOfRefinement
  0000b	f6 45 08 01	 test	 BYTE PTR ___flags$[ebp], 1
  0000f	74 09		 je	 SHORT $LN4@scalar
  00011	56		 push	 esi
  00012	e8 00 00 00 00	 call	 ??3@YAXPAX@Z		; operator delete
  00017	83 c4 04	 add	 esp, 4
$LN4@scalar:
  0001a	8b c6		 mov	 eax, esi
  0001c	5e		 pop	 esi
  0001d	5d		 pop	 ebp
  0001e	c2 04 00	 ret	 4
??_GCKanturuTowerOfRefinement@@UAEPAXI@Z ENDP		; CKanturuTowerOfRefinement::`scalar deleting destructor'
_TEXT	ENDS
PUBLIC	?ResetAllData@CKanturuTowerOfRefinement@@QAEXXZ	; CKanturuTowerOfRefinement::ResetAllData
; Function compile flags: /Ogtp
; File e:\work\tranet_version\gs\gameserver\kanturutowerofrefinement.cpp
;	COMDAT ?ResetAllData@CKanturuTowerOfRefinement@@QAEXXZ
_TEXT	SEGMENT
?ResetAllData@CKanturuTowerOfRefinement@@QAEXXZ PROC	; CKanturuTowerOfRefinement::ResetAllData, COMDAT
; _this$ = ecx

; 48   : 	this->m_StateInfoCount = 0;

  00000	33 c0		 xor	 eax, eax
  00002	89 81 8c 00 00
	00		 mov	 DWORD PTR [ecx+140], eax

; 49   : 
; 50   : 	for ( int iCount=0;iCount < KANTURU_TOWER_OF_REFINEMENT_STATE_INFO; iCount++)
; 51   : 	{
; 52   : 		this->m_StateInfo[iCount].ResetTimeInfo();

  00008	89 41 18	 mov	 DWORD PTR [ecx+24], eax
  0000b	89 41 1c	 mov	 DWORD PTR [ecx+28], eax
  0000e	89 41 20	 mov	 DWORD PTR [ecx+32], eax
  00011	89 41 2c	 mov	 DWORD PTR [ecx+44], eax
  00014	89 41 30	 mov	 DWORD PTR [ecx+48], eax
  00017	89 41 34	 mov	 DWORD PTR [ecx+52], eax
  0001a	89 41 40	 mov	 DWORD PTR [ecx+64], eax
  0001d	89 41 44	 mov	 DWORD PTR [ecx+68], eax
  00020	89 41 48	 mov	 DWORD PTR [ecx+72], eax
  00023	89 41 54	 mov	 DWORD PTR [ecx+84], eax
  00026	89 41 58	 mov	 DWORD PTR [ecx+88], eax
  00029	89 41 5c	 mov	 DWORD PTR [ecx+92], eax
  0002c	89 41 68	 mov	 DWORD PTR [ecx+104], eax
  0002f	89 41 6c	 mov	 DWORD PTR [ecx+108], eax
  00032	89 41 70	 mov	 DWORD PTR [ecx+112], eax
  00035	89 41 7c	 mov	 DWORD PTR [ecx+124], eax
  00038	89 81 80 00 00
	00		 mov	 DWORD PTR [ecx+128], eax
  0003e	89 81 84 00 00
	00		 mov	 DWORD PTR [ecx+132], eax

; 53   : 	}
; 54   : }

  00044	c3		 ret	 0
?ResetAllData@CKanturuTowerOfRefinement@@QAEXXZ ENDP	; CKanturuTowerOfRefinement::ResetAllData
_TEXT	ENDS
PUBLIC	??_C@_0EF@DFHHJFBD@?$FL?5KANTURU?5?$FN?$FL?5TowerOfRefinement?5?$FN@ ; `string'
PUBLIC	??_C@_0EH@JMDBALKN@?$FL?5KANTURU?5?$FN?$FL?5TowerOfRefinement?5?$FN@ ; `string'
PUBLIC	??_C@_0DO@BIBDPNOH@?$FL?5KANTURU?5?$FN?$FL?5TowerOfRefinement?5?$FN@ ; `string'
PUBLIC	??_C@_03JBJLGPFL@end?$AA@			; `string'
PUBLIC	??_C@_0DD@ELNIJKJJ@?$FL?5KANTURU?5?$FN?$FL?5TowerOfRefinement?5?$FN@ ; `string'
PUBLIC	??_C@_0DC@INOFMPPF@?$FL?5KANTURU?5?$FN?$FL?5TowerOfRefinement?5?$FN@ ; `string'
PUBLIC	??_C@_01KDCPPGHE@r?$AA@				; `string'
PUBLIC	??_C@_00CNPNBAHC@?$AA@				; `string'
PUBLIC	?LoadData@CKanturuTowerOfRefinement@@QAEHPAD@Z	; CKanturuTowerOfRefinement::LoadData
EXTRN	_fclose:PROC
EXTRN	?MsgBox@@YAXPADZZ:PROC				; MsgBox
EXTRN	__imp__GetLastError@0:PROC
EXTRN	_fopen:PROC
EXTRN	___CxxFrameHandler3:PROC
EXTRN	__ftol2_sse:PROC
;	COMDAT ??_C@_0EF@DFHHJFBD@?$FL?5KANTURU?5?$FN?$FL?5TowerOfRefinement?5?$FN@
; File e:\work\tranet_version\gs\gameserver\kanturustateinfo.h
CONST	SEGMENT
??_C@_0EF@DFHHJFBD@?$FL?5KANTURU?5?$FN?$FL?5TowerOfRefinement?5?$FN@ DB '['
	DB	' KANTURU ][ TowerOfRefinement ] - File load error : File Name'
	DB	' Error', 00H				; `string'
CONST	ENDS
;	COMDAT ??_C@_0EH@JMDBALKN@?$FL?5KANTURU?5?$FN?$FL?5TowerOfRefinement?5?$FN@
CONST	SEGMENT
??_C@_0EH@JMDBALKN@?$FL?5KANTURU?5?$FN?$FL?5TowerOfRefinement?5?$FN@ DB '['
	DB	' KANTURU ][ TowerOfRefinement ] - Loading Exception Error (%s'
	DB	') File. ', 00H				; `string'
CONST	ENDS
;	COMDAT ??_C@_0DO@BIBDPNOH@?$FL?5KANTURU?5?$FN?$FL?5TowerOfRefinement?5?$FN@
CONST	SEGMENT
??_C@_0DO@BIBDPNOH@?$FL?5KANTURU?5?$FN?$FL?5TowerOfRefinement?5?$FN@ DB '['
	DB	' KANTURU ][ TowerOfRefinement ] - Exceed Max State Time (%d)', 00H ; `string'
CONST	ENDS
;	COMDAT ??_C@_03JBJLGPFL@end?$AA@
CONST	SEGMENT
??_C@_03JBJLGPFL@end?$AA@ DB 'end', 00H			; `string'
CONST	ENDS
;	COMDAT ??_C@_0DD@ELNIJKJJ@?$FL?5KANTURU?5?$FN?$FL?5TowerOfRefinement?5?$FN@
CONST	SEGMENT
??_C@_0DD@ELNIJKJJ@?$FL?5KANTURU?5?$FN?$FL?5TowerOfRefinement?5?$FN@ DB '['
	DB	' KANTURU ][ TowerOfRefinement ] %s file is Loaded', 00H ; `string'
CONST	ENDS
;	COMDAT ??_C@_0DC@INOFMPPF@?$FL?5KANTURU?5?$FN?$FL?5TowerOfRefinement?5?$FN@
CONST	SEGMENT
??_C@_0DC@INOFMPPF@?$FL?5KANTURU?5?$FN?$FL?5TowerOfRefinement?5?$FN@ DB '['
	DB	' KANTURU ][ TowerOfRefinement ] - Can''t Open %s ', 00H ; `string'
CONST	ENDS
;	COMDAT ??_C@_01KDCPPGHE@r?$AA@
CONST	SEGMENT
??_C@_01KDCPPGHE@r?$AA@ DB 'r', 00H			; `string'
CONST	ENDS
;	COMDAT ??_C@_00CNPNBAHC@?$AA@
CONST	SEGMENT
??_C@_00CNPNBAHC@?$AA@ DB 00H				; `string'
CONST	ENDS
;	COMDAT xdata$x
xdata$x	SEGMENT
__catchsym$?LoadData@CKanturuTowerOfRefinement@@QAEHPAD@Z$2 DD 040H
	DD	00H
	DD	00H
	DD	FLAT:__catch$?LoadData@CKanturuTowerOfRefinement@@QAEHPAD@Z$0
__unwindtable$?LoadData@CKanturuTowerOfRefinement@@QAEHPAD@Z DD 0ffffffffH
	DD	00H
	DD	0ffffffffH
	DD	00H
__tryblocktable$?LoadData@CKanturuTowerOfRefinement@@QAEHPAD@Z DD 00H
	DD	00H
	DD	01H
	DD	01H
	DD	FLAT:__catchsym$?LoadData@CKanturuTowerOfRefinement@@QAEHPAD@Z$2
__ehfuncinfo$?LoadData@CKanturuTowerOfRefinement@@QAEHPAD@Z DD 019930522H
	DD	02H
	DD	FLAT:__unwindtable$?LoadData@CKanturuTowerOfRefinement@@QAEHPAD@Z
	DD	01H
	DD	FLAT:__tryblocktable$?LoadData@CKanturuTowerOfRefinement@@QAEHPAD@Z
	DD	2 DUP(00H)
	DD	00H
	DD	01H
; Function compile flags: /Ogtp
; File e:\work\tranet_version\gs\gameserver\kanturutowerofrefinement.cpp
xdata$x	ENDS
;	COMDAT ?LoadData@CKanturuTowerOfRefinement@@QAEHPAD@Z
_TEXT	SEGMENT
_this$ = -24						; size = 4
_iType$209869 = -20					; size = 4
__$EHRec$ = -16						; size = 16
_lpszFileName$ = 8					; size = 4
?LoadData@CKanturuTowerOfRefinement@@QAEHPAD@Z PROC	; CKanturuTowerOfRefinement::LoadData, COMDAT
; _this$ = ecx

; 60   : {

  00000	55		 push	 ebp
  00001	8b ec		 mov	 ebp, esp
  00003	6a ff		 push	 -1
  00005	68 00 00 00 00	 push	 __ehhandler$?LoadData@CKanturuTowerOfRefinement@@QAEHPAD@Z
  0000a	64 a1 00 00 00
	00		 mov	 eax, DWORD PTR fs:0
  00010	50		 push	 eax
  00011	83 ec 0c	 sub	 esp, 12			; 0000000cH
  00014	53		 push	 ebx
  00015	56		 push	 esi
  00016	57		 push	 edi
  00017	a1 00 00 00 00	 mov	 eax, DWORD PTR ___security_cookie
  0001c	33 c5		 xor	 eax, ebp
  0001e	50		 push	 eax
  0001f	8d 45 f4	 lea	 eax, DWORD PTR __$EHRec$[ebp+4]
  00022	64 a3 00 00 00
	00		 mov	 DWORD PTR fs:0, eax
  00028	89 65 f0	 mov	 DWORD PTR __$EHRec$[ebp], esp
  0002b	8b d9		 mov	 ebx, ecx
  0002d	89 5d e8	 mov	 DWORD PTR _this$[ebp], ebx

; 61   : 	this->m_bFileDataLoad = FALSE;
; 62   : 
; 63   : 	if ( !lpszFileName || !strcmp(lpszFileName, ""))

  00030	8b 75 08	 mov	 esi, DWORD PTR _lpszFileName$[ebp]
  00033	33 ff		 xor	 edi, edi
  00035	89 7b 10	 mov	 DWORD PTR [ebx+16], edi
  00038	3b f7		 cmp	 esi, edi
  0003a	0f 84 f8 01 00
	00		 je	 $LN15@LoadData
  00040	b9 00 00 00 00	 mov	 ecx, OFFSET ??_C@_00CNPNBAHC@?$AA@
  00045	8b c6		 mov	 eax, esi
$LL33@LoadData:
  00047	8a 10		 mov	 dl, BYTE PTR [eax]
  00049	3a 11		 cmp	 dl, BYTE PTR [ecx]
  0004b	75 1a		 jne	 SHORT $LN34@LoadData
  0004d	84 d2		 test	 dl, dl
  0004f	74 12		 je	 SHORT $LN35@LoadData
  00051	8a 50 01	 mov	 dl, BYTE PTR [eax+1]
  00054	3a 51 01	 cmp	 dl, BYTE PTR [ecx+1]
  00057	75 0e		 jne	 SHORT $LN34@LoadData
  00059	83 c0 02	 add	 eax, 2
  0005c	83 c1 02	 add	 ecx, 2
  0005f	84 d2		 test	 dl, dl
  00061	75 e4		 jne	 SHORT $LL33@LoadData
$LN35@LoadData:
  00063	33 c0		 xor	 eax, eax
  00065	eb 05		 jmp	 SHORT $LN36@LoadData
$LN34@LoadData:
  00067	1b c0		 sbb	 eax, eax
  00069	83 d8 ff	 sbb	 eax, -1
$LN36@LoadData:
  0006c	3b c7		 cmp	 eax, edi
  0006e	0f 84 c4 01 00
	00		 je	 $LN15@LoadData

; 67   : 	}
; 68   : 
; 69   : 	try
; 70   : 	{
; 71   : 		SMDFile = fopen(lpszFileName, "r");

  00074	68 00 00 00 00	 push	 OFFSET ??_C@_01KDCPPGHE@r?$AA@
  00079	56		 push	 esi
  0007a	89 7d fc	 mov	 DWORD PTR __$EHRec$[ebp+12], edi
  0007d	e8 00 00 00 00	 call	 _fopen
  00082	83 c4 08	 add	 esp, 8
  00085	a3 00 00 00 00	 mov	 DWORD PTR _SMDFile, eax

; 72   : 
; 73   : 		if ( SMDFile == NULL )

  0008a	3b c7		 cmp	 eax, edi
  0008c	75 19		 jne	 SHORT $LN13@LoadData

; 74   : 		{
; 75   : 			DWORD dwLastError = GetLastError();

  0008e	ff 15 00 00 00
	00		 call	 DWORD PTR __imp__GetLastError@0

; 76   : 
; 77   : 			MsgBox("[ KANTURU ][ TowerOfRefinement ] - Can't Open %s ",
; 78   : 				lpszFileName);

  00094	56		 push	 esi
  00095	68 00 00 00 00	 push	 OFFSET ??_C@_0DC@INOFMPPF@?$FL?5KANTURU?5?$FN?$FL?5TowerOfRefinement?5?$FN@
  0009a	e8 00 00 00 00	 call	 ?MsgBox@@YAXPADZZ	; MsgBox
  0009f	83 c4 08	 add	 esp, 8

; 79   : 
; 80   : 			return FALSE;

  000a2	e9 9e 01 00 00	 jmp	 $LN47@LoadData
$LN13@LoadData:

; 81   : 		}
; 82   : 
; 83   : 		this->ResetAllData();

  000a7	8b cb		 mov	 ecx, ebx
  000a9	e8 00 00 00 00	 call	 ?ResetAllData@CKanturuTowerOfRefinement@@QAEXXZ ; CKanturuTowerOfRefinement::ResetAllData
  000ae	8b ff		 npad	 2
$LL12@LoadData:

; 84   : 		SMDToken Token;
; 85   : 		int iType = -1;
; 86   : 		int iState = 0;
; 87   : 		int iCondition = 0;
; 88   : 		int iValue = 0;
; 89   : 
; 90   : 		while ( true )
; 91   : 		{
; 92   : 			Token = GetToken();

  000b0	e8 00 00 00 00	 call	 ?GetToken@@YA?AW4SMDToken@@XZ ; GetToken

; 93   : 
; 94   : 			if ( Token == END )

  000b5	83 f8 02	 cmp	 eax, 2
  000b8	75 3d		 jne	 SHORT $LN10@LoadData

; 155  : 
; 156  : 		fclose(SMDFile);

  000ba	a1 00 00 00 00	 mov	 eax, DWORD PTR _SMDFile
  000bf	50		 push	 eax
  000c0	e8 00 00 00 00	 call	 _fclose

; 157  : 
; 158  : 		LogAddC(2, "[ KANTURU ][ TowerOfRefinement ] %s file is Loaded",
; 159  : 			lpszFileName);

  000c5	8b 4d 08	 mov	 ecx, DWORD PTR _lpszFileName$[ebp]
  000c8	51		 push	 ecx
  000c9	68 00 00 00 00	 push	 OFFSET ??_C@_0DD@ELNIJKJJ@?$FL?5KANTURU?5?$FN?$FL?5TowerOfRefinement?5?$FN@
  000ce	6a 02		 push	 2
  000d0	ff 15 00 00 00
	00		 call	 DWORD PTR ?LogAddC@@3P6AXEPADZZA ; LogAddC

; 160  : 
; 161  : 		this->m_bFileDataLoad = TRUE;

  000d6	c7 43 10 01 00
	00 00		 mov	 DWORD PTR [ebx+16], 1

; 167  : 
; 168  : 	return this->m_bFileDataLoad;

  000dd	8b 43 10	 mov	 eax, DWORD PTR [ebx+16]
  000e0	83 c4 10	 add	 esp, 16			; 00000010H

; 169  : }

  000e3	8b 4d f4	 mov	 ecx, DWORD PTR __$EHRec$[ebp+4]
  000e6	64 89 0d 00 00
	00 00		 mov	 DWORD PTR fs:0, ecx
  000ed	59		 pop	 ecx
  000ee	5f		 pop	 edi
  000ef	5e		 pop	 esi
  000f0	5b		 pop	 ebx
  000f1	8b e5		 mov	 esp, ebp
  000f3	5d		 pop	 ebp
  000f4	c2 04 00	 ret	 4
$LN10@LoadData:

; 95   : 			{
; 96   : 				break;
; 97   : 			}
; 98   : 
; 99   : 			iType = (int)TokenNumber;

  000f7	d9 05 00 00 00
	00		 fld	 DWORD PTR _TokenNumber
  000fd	e8 00 00 00 00	 call	 __ftol2_sse
  00102	89 45 ec	 mov	 DWORD PTR _iType$209869[ebp], eax
$LL9@LoadData:

; 100  : 
; 101  : 			while ( true )
; 102  : 			{
; 103  : 				if ( iType == 9 )
; 104  : 				{
; 105  : 					iState = 0;
; 106  : 					iCondition = 0;
; 107  : 					iValue = 0;
; 108  : 
; 109  : 					Token = GetToken();

  00105	e8 00 00 00 00	 call	 ?GetToken@@YA?AW4SMDToken@@XZ ; GetToken
  0010a	83 7d ec 09	 cmp	 DWORD PTR _iType$209869[ebp], 9

; 110  : 
; 111  : 					if ( !strcmp("end", TokenString))

  0010e	b9 00 00 00 00	 mov	 ecx, OFFSET _TokenString
  00113	b8 00 00 00 00	 mov	 eax, OFFSET ??_C@_03JBJLGPFL@end?$AA@
  00118	0f 85 e8 00 00
	00		 jne	 $LL41@LoadData
  0011e	8b ff		 npad	 2
$LL37@LoadData:
  00120	8a 10		 mov	 dl, BYTE PTR [eax]
  00122	3a 11		 cmp	 dl, BYTE PTR [ecx]
  00124	75 1a		 jne	 SHORT $LN38@LoadData
  00126	84 d2		 test	 dl, dl
  00128	74 12		 je	 SHORT $LN39@LoadData
  0012a	8a 50 01	 mov	 dl, BYTE PTR [eax+1]
  0012d	3a 51 01	 cmp	 dl, BYTE PTR [ecx+1]
  00130	75 0e		 jne	 SHORT $LN38@LoadData
  00132	83 c0 02	 add	 eax, 2
  00135	83 c1 02	 add	 ecx, 2
  00138	84 d2		 test	 dl, dl
  0013a	75 e4		 jne	 SHORT $LL37@LoadData
$LN39@LoadData:
  0013c	33 c0		 xor	 eax, eax
  0013e	eb 05		 jmp	 SHORT $LN40@LoadData
$LN38@LoadData:
  00140	1b c0		 sbb	 eax, eax
  00142	83 d8 ff	 sbb	 eax, -1
$LN40@LoadData:
  00145	85 c0		 test	 eax, eax
  00147	0f 84 63 ff ff
	ff		 je	 $LL12@LoadData

; 112  : 					{
; 113  : 						break;
; 114  : 					}
; 115  : 
; 116  : 					iState = (int)TokenNumber;

  0014d	d9 05 00 00 00
	00		 fld	 DWORD PTR _TokenNumber
  00153	e8 00 00 00 00	 call	 __ftol2_sse
  00158	8b f8		 mov	 edi, eax

; 117  : 
; 118  : 					Token = GetToken();

  0015a	e8 00 00 00 00	 call	 ?GetToken@@YA?AW4SMDToken@@XZ ; GetToken

; 119  : 					iCondition = (int)TokenNumber;

  0015f	d9 05 00 00 00
	00		 fld	 DWORD PTR _TokenNumber
  00165	e8 00 00 00 00	 call	 __ftol2_sse
  0016a	8b f0		 mov	 esi, eax

; 120  : 
; 121  : 					Token = GetToken();

  0016c	e8 00 00 00 00	 call	 ?GetToken@@YA?AW4SMDToken@@XZ ; GetToken

; 122  : 					iValue = (int)TokenNumber;

  00171	d9 05 00 00 00
	00		 fld	 DWORD PTR _TokenNumber
  00177	e8 00 00 00 00	 call	 __ftol2_sse

; 123  : 
; 124  : 					if ( this->m_StateInfoCount < 0 || this->m_StateInfoCount >= KANTURU_TOWER_OF_REFINEMENT_STATE_INFO )

  0017c	8b 8b 8c 00 00
	00		 mov	 ecx, DWORD PTR [ebx+140]
  00182	85 c9		 test	 ecx, ecx
  00184	78 3c		 js	 SHORT $LN4@LoadData
  00186	83 f9 06	 cmp	 ecx, 6
  00189	7d 37		 jge	 SHORT $LN4@LoadData

; 130  : 					}
; 131  : 
; 132  : 					this->m_StateInfo[this->m_StateInfoCount].SetStateInfo(iState);

  0018b	8d 14 89	 lea	 edx, DWORD PTR [ecx+ecx*4]
  0018e	89 7c 93 18	 mov	 DWORD PTR [ebx+edx*4+24], edi

; 133  : 					this->m_StateInfo[this->m_StateInfoCount].SetCondition(iCondition);

  00192	8b 8b 8c 00 00
	00		 mov	 ecx, DWORD PTR [ebx+140]
  00198	8d 0c 89	 lea	 ecx, DWORD PTR [ecx+ecx*4]
  0019b	89 74 8b 1c	 mov	 DWORD PTR [ebx+ecx*4+28], esi

; 134  : 
; 135  : 					if ( iCondition == 1 )

  0019f	83 fe 01	 cmp	 esi, 1
  001a2	75 06		 jne	 SHORT $LN3@LoadData

; 136  : 					{
; 137  : 						iValue *= 1000;

  001a4	69 c0 e8 03 00
	00		 imul	 eax, 1000		; 000003e8H
$LN3@LoadData:

; 138  : 					}
; 139  : 
; 140  : 					this->m_StateInfo[this->m_StateInfoCount].SetValue(iValue);

  001aa	8b 8b 8c 00 00
	00		 mov	 ecx, DWORD PTR [ebx+140]
  001b0	8d 14 89	 lea	 edx, DWORD PTR [ecx+ecx*4]
  001b3	89 44 93 20	 mov	 DWORD PTR [ebx+edx*4+32], eax

; 141  : 					this->m_StateInfoCount++;

  001b7	ff 83 8c 00 00
	00		 inc	 DWORD PTR [ebx+140]

; 142  : 				}
; 143  : 				else

  001bd	e9 43 ff ff ff	 jmp	 $LL9@LoadData
$LN4@LoadData:

; 125  : 					{
; 126  : 						MsgBox("[ KANTURU ][ TowerOfRefinement ] - Exceed Max State Time (%d)",
; 127  : 							this->m_StateInfoCount);

  001c2	51		 push	 ecx
  001c3	68 00 00 00 00	 push	 OFFSET ??_C@_0DO@BIBDPNOH@?$FL?5KANTURU?5?$FN?$FL?5TowerOfRefinement?5?$FN@
  001c8	e8 00 00 00 00	 call	 ?MsgBox@@YAXPADZZ	; MsgBox
  001cd	83 c4 08	 add	 esp, 8

; 128  : 
; 129  : 						break;

  001d0	e9 db fe ff ff	 jmp	 $LL12@LoadData
__catch$?LoadData@CKanturuTowerOfRefinement@@QAEHPAD@Z$0:

; 162  : 	}	// __try
; 163  : 	catch(...)
; 164  : 	{
; 165  : 		MsgBox("[ KANTURU ][ TowerOfRefinement ] - Loading Exception Error (%s) File. ", lpszFileName);

  001d5	8b 45 08	 mov	 eax, DWORD PTR _lpszFileName$[ebp]
  001d8	50		 push	 eax
  001d9	68 00 00 00 00	 push	 OFFSET ??_C@_0EH@JMDBALKN@?$FL?5KANTURU?5?$FN?$FL?5TowerOfRefinement?5?$FN@
  001de	e8 00 00 00 00	 call	 ?MsgBox@@YAXPADZZ	; MsgBox
  001e3	83 c4 08	 add	 esp, 8

; 166  : 	}

  001e6	b8 00 00 00 00	 mov	 eax, $LN45@LoadData
  001eb	c3		 ret	 0
$LN45@LoadData:
  001ec	8b 5d e8	 mov	 ebx, DWORD PTR _this$[ebp]

; 167  : 
; 168  : 	return this->m_bFileDataLoad;

  001ef	8b 43 10	 mov	 eax, DWORD PTR [ebx+16]

; 169  : }

  001f2	8b 4d f4	 mov	 ecx, DWORD PTR __$EHRec$[ebp+4]
  001f5	64 89 0d 00 00
	00 00		 mov	 DWORD PTR fs:0, ecx
  001fc	59		 pop	 ecx
  001fd	5f		 pop	 edi
  001fe	5e		 pop	 esi
  001ff	5b		 pop	 ebx
  00200	8b e5		 mov	 esp, ebp
  00202	5d		 pop	 ebp
  00203	c2 04 00	 ret	 4
$LL41@LoadData:

; 144  : 				{
; 145  : 					Token = GetToken();
; 146  : 
; 147  : 					if ( !strcmp("end", TokenString))

  00206	8a 10		 mov	 dl, BYTE PTR [eax]
  00208	3a 11		 cmp	 dl, BYTE PTR [ecx]
  0020a	75 1a		 jne	 SHORT $LN42@LoadData
  0020c	84 d2		 test	 dl, dl
  0020e	74 12		 je	 SHORT $LN43@LoadData
  00210	8a 50 01	 mov	 dl, BYTE PTR [eax+1]
  00213	3a 51 01	 cmp	 dl, BYTE PTR [ecx+1]
  00216	75 0e		 jne	 SHORT $LN42@LoadData
  00218	83 c0 02	 add	 eax, 2
  0021b	83 c1 02	 add	 ecx, 2
  0021e	84 d2		 test	 dl, dl
  00220	75 e4		 jne	 SHORT $LL41@LoadData
$LN43@LoadData:
  00222	33 c0		 xor	 eax, eax
  00224	eb 05		 jmp	 SHORT $LN44@LoadData
$LN42@LoadData:
  00226	1b c0		 sbb	 eax, eax
  00228	83 d8 ff	 sbb	 eax, -1
$LN44@LoadData:
  0022b	85 c0		 test	 eax, eax
  0022d	0f 85 d2 fe ff
	ff		 jne	 $LL9@LoadData

; 148  : 					{
; 149  : 						break;
; 150  : 					}
; 151  : 				}
; 152  : 
; 153  : 			}	// while
; 154  : 		}	// while

  00233	e9 78 fe ff ff	 jmp	 $LL12@LoadData
$LN15@LoadData:

; 64   : 	{
; 65   : 		MsgBox("[ KANTURU ][ TowerOfRefinement ] - File load error : File Name Error");

  00238	68 00 00 00 00	 push	 OFFSET ??_C@_0EF@DFHHJFBD@?$FL?5KANTURU?5?$FN?$FL?5TowerOfRefinement?5?$FN@
  0023d	e8 00 00 00 00	 call	 ?MsgBox@@YAXPADZZ	; MsgBox
  00242	83 c4 04	 add	 esp, 4
$LN47@LoadData:

; 66   : 		return FALSE;

  00245	33 c0		 xor	 eax, eax

; 169  : }

  00247	8b 4d f4	 mov	 ecx, DWORD PTR __$EHRec$[ebp+4]
  0024a	64 89 0d 00 00
	00 00		 mov	 DWORD PTR fs:0, ecx
  00251	59		 pop	 ecx
  00252	5f		 pop	 edi
  00253	5e		 pop	 esi
  00254	5b		 pop	 ebx
  00255	8b e5		 mov	 esp, ebp
  00257	5d		 pop	 ebp
  00258	c2 04 00	 ret	 4
_TEXT	ENDS
;	COMDAT text$x
text$x	SEGMENT
__ehhandler$?LoadData@CKanturuTowerOfRefinement@@QAEHPAD@Z:
  00000	8b 54 24 08	 mov	 edx, DWORD PTR [esp+8]
  00004	8d 42 0c	 lea	 eax, DWORD PTR [edx+12]
  00007	8b 4a e4	 mov	 ecx, DWORD PTR [edx-28]
  0000a	33 c8		 xor	 ecx, eax
  0000c	e8 00 00 00 00	 call	 @__security_check_cookie@4
  00011	b8 00 00 00 00	 mov	 eax, OFFSET __ehfuncinfo$?LoadData@CKanturuTowerOfRefinement@@QAEHPAD@Z
  00016	e9 00 00 00 00	 jmp	 ___CxxFrameHandler3
text$x	ENDS
?LoadData@CKanturuTowerOfRefinement@@QAEHPAD@Z ENDP	; CKanturuTowerOfRefinement::LoadData
PUBLIC	?SetState@CKanturuTowerOfRefinement@@QAEXH@Z	; CKanturuTowerOfRefinement::SetState
EXTRN	?NotifyKanturuChangeState@CKanturuUtil@@QAEXHH@Z:PROC ; CKanturuUtil::NotifyKanturuChangeState
; Function compile flags: /Ogtp
;	COMDAT ?SetState@CKanturuTowerOfRefinement@@QAEXH@Z
_TEXT	SEGMENT
_iTowerOfRefinement$ = 8				; size = 4
?SetState@CKanturuTowerOfRefinement@@QAEXH@Z PROC	; CKanturuTowerOfRefinement::SetState, COMDAT
; _this$ = ecx

; 203  : {

  00000	55		 push	 ebp
  00001	8b ec		 mov	 ebp, esp
  00003	53		 push	 ebx
  00004	56		 push	 esi
  00005	57		 push	 edi

; 204  : 	if ( this->m_StateInfo[iTowerOfRefinement].GetCondition() > 0 )

  00006	8b 7d 08	 mov	 edi, DWORD PTR _iTowerOfRefinement$[ebp]
  00009	8b f1		 mov	 esi, ecx
  0000b	8d 04 bf	 lea	 eax, DWORD PTR [edi+edi*4]
  0000e	83 7c 86 1c 00	 cmp	 DWORD PTR [esi+eax*4+28], 0
  00013	8d 1c 86	 lea	 ebx, DWORD PTR [esi+eax*4]
  00016	7e 09		 jle	 SHORT $LN14@SetState

; 205  : 	{
; 206  : 		this->m_StateInfo[iTowerOfRefinement].SetAppliedTime();

  00018	ff 15 00 00 00
	00		 call	 DWORD PTR __imp__GetTickCount@0
  0001e	89 43 24	 mov	 DWORD PTR [ebx+36], eax
$LN14@SetState:

; 207  : 	}
; 208  : 
; 209  : 	switch ( iTowerOfRefinement )

  00021	83 ff 05	 cmp	 edi, 5
  00024	77 3b		 ja	 SHORT $LN7@SetState
  00026	ff 24 bd 00 00
	00 00		 jmp	 DWORD PTR $LN16@SetState[edi*4]
$LN6@SetState:

; 210  : 	{
; 211  : 		case KANTURU_TOWER_OF_REFINEMENT_NONE:
; 212  : 			this->SetState_NONE();

  0002d	8b ce		 mov	 ecx, esi
  0002f	e8 00 00 00 00	 call	 ?SetState_NONE@CKanturuTowerOfRefinement@@QAEXXZ ; CKanturuTowerOfRefinement::SetState_NONE

; 213  : 			break;

  00034	eb 2b		 jmp	 SHORT $LN7@SetState
$LN5@SetState:

; 214  : 		case KANTURU_TOWER_OF_REFINEMENT_REVITALIZATION:
; 215  : 			this->SetState_REVITALIZATION();

  00036	8b ce		 mov	 ecx, esi
  00038	e8 00 00 00 00	 call	 ?SetState_REVITALIZATION@CKanturuTowerOfRefinement@@QAEXXZ ; CKanturuTowerOfRefinement::SetState_REVITALIZATION

; 216  : 			break;

  0003d	eb 22		 jmp	 SHORT $LN7@SetState
$LN4@SetState:

; 217  : 		case KANTURU_TOWER_OF_REFINEMENT_NOTIFY1:
; 218  : 			this->SetState_NOTIFY1();

  0003f	8b ce		 mov	 ecx, esi
  00041	e8 00 00 00 00	 call	 ?SetState_NOTIFY1@CKanturuTowerOfRefinement@@QAEXXZ ; CKanturuTowerOfRefinement::SetState_NOTIFY1

; 219  : 			break;

  00046	eb 19		 jmp	 SHORT $LN7@SetState
$LN3@SetState:

; 220  : 		case KANTURU_TOWER_OF_REFINEMENT_CLOSE:
; 221  : 			this->SetState_CLOSE();

  00048	8b ce		 mov	 ecx, esi
  0004a	e8 00 00 00 00	 call	 ?SetState_CLOSE@CKanturuTowerOfRefinement@@QAEXXZ ; CKanturuTowerOfRefinement::SetState_CLOSE

; 222  : 			break;

  0004f	eb 10		 jmp	 SHORT $LN7@SetState
$LN2@SetState:

; 223  : 		case KANTURU_TOWER_OF_REFINEMENT_NOTIFY2:
; 224  : 			this->SetState_NOTIFY2();

  00051	8b ce		 mov	 ecx, esi
  00053	e8 00 00 00 00	 call	 ?SetState_NOTIFY2@CKanturuTowerOfRefinement@@QAEXXZ ; CKanturuTowerOfRefinement::SetState_NOTIFY2

; 225  : 			break;

  00058	eb 07		 jmp	 SHORT $LN7@SetState
$LN1@SetState:

; 226  : 		case KANTURU_TOWER_OF_REFINEMENT_END:
; 227  : 			this->SetState_END();

  0005a	8b ce		 mov	 ecx, esi
  0005c	e8 00 00 00 00	 call	 ?SetState_END@CKanturuTowerOfRefinement@@QAEXXZ ; CKanturuTowerOfRefinement::SetState_END
$LN7@SetState:

; 228  : 			break;
; 229  : 	}
; 230  : 
; 231  : 	KANTURU_UTIL.NotifyKanturuChangeState(KANTURU_STATE_TOWER_OF_REFINEMENT, this->m_iTowerOfRefinementState);

  00061	8b 4e 04	 mov	 ecx, DWORD PTR [esi+4]
  00064	51		 push	 ecx
  00065	6a 04		 push	 4
  00067	b9 00 00 00 00	 mov	 ecx, OFFSET _KANTURU_UTIL
  0006c	e8 00 00 00 00	 call	 ?NotifyKanturuChangeState@CKanturuUtil@@QAEXHH@Z ; CKanturuUtil::NotifyKanturuChangeState

; 232  : 	g_KanturuBattleUserMng.ResetAllData();

  00071	b9 00 00 00 00	 mov	 ecx, OFFSET ?g_KanturuBattleUserMng@@3VCKanturuBattleUserMng@@A ; g_KanturuBattleUserMng
  00076	e8 00 00 00 00	 call	 ?ResetAllData@CKanturuBattleUserMng@@QAEXXZ ; CKanturuBattleUserMng::ResetAllData
  0007b	5f		 pop	 edi
  0007c	5e		 pop	 esi
  0007d	5b		 pop	 ebx

; 233  : }

  0007e	5d		 pop	 ebp
  0007f	c2 04 00	 ret	 4
  00082	8b ff		 npad	 2
$LN16@SetState:
  00084	00 00 00 00	 DD	 $LN6@SetState
  00088	00 00 00 00	 DD	 $LN5@SetState
  0008c	00 00 00 00	 DD	 $LN4@SetState
  00090	00 00 00 00	 DD	 $LN3@SetState
  00094	00 00 00 00	 DD	 $LN2@SetState
  00098	00 00 00 00	 DD	 $LN1@SetState
?SetState@CKanturuTowerOfRefinement@@QAEXH@Z ENDP	; CKanturuTowerOfRefinement::SetState
_TEXT	ENDS
PUBLIC	?SetNextState@CKanturuTowerOfRefinement@@QAEXH@Z ; CKanturuTowerOfRefinement::SetNextState
; Function compile flags: /Ogtp
;	COMDAT ?SetNextState@CKanturuTowerOfRefinement@@QAEXH@Z
_TEXT	SEGMENT
_iCurrentState$ = 8					; size = 4
?SetNextState@CKanturuTowerOfRefinement@@QAEXH@Z PROC	; CKanturuTowerOfRefinement::SetNextState, COMDAT
; _this$ = ecx

; 238  : {

  00000	55		 push	 ebp
  00001	8b ec		 mov	 ebp, esp

; 239  : 	int iNextState = iCurrentState + 1;

  00003	8b 45 08	 mov	 eax, DWORD PTR _iCurrentState$[ebp]
  00006	40		 inc	 eax

; 240  : 
; 241  : 	if ( iNextState >= KANTURU_TOWER_OF_REFINEMENT_STATE_INFO )

  00007	83 f8 06	 cmp	 eax, 6
  0000a	7c 02		 jl	 SHORT $LN1@SetNextSta

; 242  : 	{
; 243  : 		iNextState = KANTURU_TOWER_OF_REFINEMENT_NONE;

  0000c	33 c0		 xor	 eax, eax
$LN1@SetNextSta:

; 244  : 	}
; 245  : 
; 246  : 	this->SetState(iNextState);

  0000e	50		 push	 eax
  0000f	e8 00 00 00 00	 call	 ?SetState@CKanturuTowerOfRefinement@@QAEXH@Z ; CKanturuTowerOfRefinement::SetState

; 247  : }

  00014	5d		 pop	 ebp
  00015	c2 04 00	 ret	 4
?SetNextState@CKanturuTowerOfRefinement@@QAEXH@Z ENDP	; CKanturuTowerOfRefinement::SetNextState
_TEXT	ENDS
PUBLIC	?CheckStateTime@CKanturuTowerOfRefinement@@QAEXXZ ; CKanturuTowerOfRefinement::CheckStateTime
; Function compile flags: /Ogtp
;	COMDAT ?CheckStateTime@CKanturuTowerOfRefinement@@QAEXXZ
_TEXT	SEGMENT
?CheckStateTime@CKanturuTowerOfRefinement@@QAEXXZ PROC	; CKanturuTowerOfRefinement::CheckStateTime, COMDAT
; _this$ = ecx

; 374  : {

  00000	56		 push	 esi
  00001	57		 push	 edi
  00002	8b f9		 mov	 edi, ecx

; 375  : 	int iCurrentState = this->GetTowerOfRefinementState();

  00004	8b 77 04	 mov	 esi, DWORD PTR [edi+4]

; 376  : 
; 377  : 	if ( iCurrentState )

  00007	85 f6		 test	 esi, esi
  00009	74 22		 je	 SHORT $LN1@CheckState

; 378  : 	{
; 379  : 		if ( this->m_StateInfo[iCurrentState].GetCondition() == 1 )

  0000b	8d 04 b6	 lea	 eax, DWORD PTR [esi+esi*4]
  0000e	83 7c 87 1c 01	 cmp	 DWORD PTR [edi+eax*4+28], 1
  00013	8d 04 87	 lea	 eax, DWORD PTR [edi+eax*4]
  00016	75 15		 jne	 SHORT $LN1@CheckState

; 380  : 		{
; 381  : 			if ( this->m_StateInfo[iCurrentState].IsTimeOut() == TRUE )

  00018	8d 48 14	 lea	 ecx, DWORD PTR [eax+20]
  0001b	e8 00 00 00 00	 call	 ?IsTimeOut@CKanturuStateInfo@@QAEHXZ ; CKanturuStateInfo::IsTimeOut
  00020	83 f8 01	 cmp	 eax, 1
  00023	75 08		 jne	 SHORT $LN1@CheckState

; 382  : 			{
; 383  : 				this->SetNextState(iCurrentState);

  00025	56		 push	 esi
  00026	8b cf		 mov	 ecx, edi
  00028	e8 00 00 00 00	 call	 ?SetNextState@CKanturuTowerOfRefinement@@QAEXH@Z ; CKanturuTowerOfRefinement::SetNextState
$LN1@CheckState:

; 384  : 			}
; 385  : 		}
; 386  : 	}
; 387  : }

  0002d	5f		 pop	 edi
  0002e	5e		 pop	 esi
  0002f	c3		 ret	 0
?CheckStateTime@CKanturuTowerOfRefinement@@QAEXXZ ENDP	; CKanturuTowerOfRefinement::CheckStateTime
_TEXT	ENDS
PUBLIC	?Run@CKanturuTowerOfRefinement@@QAEXXZ		; CKanturuTowerOfRefinement::Run
; Function compile flags: /Ogtp
;	COMDAT ?Run@CKanturuTowerOfRefinement@@QAEXXZ
_TEXT	SEGMENT
?Run@CKanturuTowerOfRefinement@@QAEXXZ PROC		; CKanturuTowerOfRefinement::Run, COMDAT
; _this$ = ecx

; 175  : 	this->CheckStateTime();

  00000	e9 00 00 00 00	 jmp	 ?CheckStateTime@CKanturuTowerOfRefinement@@QAEXXZ ; CKanturuTowerOfRefinement::CheckStateTime
?Run@CKanturuTowerOfRefinement@@QAEXXZ ENDP		; CKanturuTowerOfRefinement::Run
_TEXT	ENDS
EXTRN	_atexit:PROC
EXTRN	??0CKanturuUtil@@QAE@XZ:PROC			; CKanturuUtil::CKanturuUtil
; Function compile flags: /Ogtp
;	COMDAT ??__EKANTURU_UTIL@@YAXXZ
text$yc	SEGMENT
??__EKANTURU_UTIL@@YAXXZ PROC				; `dynamic initializer for 'KANTURU_UTIL'', COMDAT

; 17   : static CKanturuUtil KANTURU_UTIL;

  00000	b9 00 00 00 00	 mov	 ecx, OFFSET _KANTURU_UTIL
  00005	e8 00 00 00 00	 call	 ??0CKanturuUtil@@QAE@XZ	; CKanturuUtil::CKanturuUtil
  0000a	68 00 00 00 00	 push	 OFFSET ??__FKANTURU_UTIL@@YAXXZ ; `dynamic atexit destructor for 'KANTURU_UTIL''
  0000f	e8 00 00 00 00	 call	 _atexit
  00014	59		 pop	 ecx
  00015	c3		 ret	 0
??__EKANTURU_UTIL@@YAXXZ ENDP				; `dynamic initializer for 'KANTURU_UTIL''
text$yc	ENDS
EXTRN	??1CKanturuUtil@@UAE@XZ:PROC			; CKanturuUtil::~CKanturuUtil
; Function compile flags: /Ogtp
;	COMDAT ??__FKANTURU_UTIL@@YAXXZ
text$yd	SEGMENT
??__FKANTURU_UTIL@@YAXXZ PROC				; `dynamic atexit destructor for 'KANTURU_UTIL'', COMDAT
  00000	b9 00 00 00 00	 mov	 ecx, OFFSET _KANTURU_UTIL
  00005	e9 00 00 00 00	 jmp	 ??1CKanturuUtil@@UAE@XZ	; CKanturuUtil::~CKanturuUtil
??__FKANTURU_UTIL@@YAXXZ ENDP				; `dynamic atexit destructor for 'KANTURU_UTIL''
text$yd	ENDS
_BSS	SEGMENT
_KANTURU_UTIL DD 01H DUP (?)
_BSS	ENDS
CRT$XCU	SEGMENT
_KANTURU_UTIL$initializer$ DD FLAT:??__EKANTURU_UTIL@@YAXXZ
CRT$XCU	ENDS
END
