; Listing generated by Microsoft (R) Optimizing Compiler Version 16.00.30319.01 

	TITLE	E:\work\tranet_version\GS\GameServer\Manager.cpp
	.686P
	.XMM
	include listing.inc
	.model	flat

INCLUDELIB LIBCMT
INCLUDELIB OLDNAMES

_DATA	SEGMENT
_g_iNpcUpDfLevel_CGATE DD 01H
	DD	02H
	DD	02dc6c0H
	DD	02H
	DD	03H
	DD	02dc6c0H
	DD	03H
	DD	04H
	DD	02dc6c0H
_g_iNpcUpDfLevel_CSTATUE DD 01H
	DD	03H
	DD	02dc6c0H
	DD	02H
	DD	05H
	DD	02dc6c0H
	DD	03H
	DD	07H
	DD	02dc6c0H
_g_iNpcUpMaxHP_CGATE DD 02625a0H
	DD	02H
	DD	0f4240H
	DD	03567e0H
	DD	03H
	DD	0f4240H
	DD	04f5880H
	DD	04H
	DD	0f4240H
_g_iNpcUpMaxHP_CSTATUE DD 02191c0H
	DD	03H
	DD	0f4240H
	DD	033e140H
	DD	05H
	DD	0f4240H
	DD	04c4b40H
	DD	07H
	DD	0f4240H
_g_iNpcUpRgLevel_CSTATUE DD 01H
	DD	03H
	DD	04c4b40H
	DD	02H
	DD	05H
	DD	04c4b40H
	DD	03H
	DD	07H
	DD	04c4b40H
_g_iCsUserReSpawnArea DD 023H
	DD	011H
	DD	090H
	DD	030H
	DD	04aH
	DD	090H
	DD	073H
	DD	09aH
	DD	023H
	DD	011H
	DD	090H
	DD	030H
_g_iNpcDefense_CGATE DD 064H
	DD	0b4H
	DD	012cH
	DD	0208H
_g_iNpcDefense_CSTATUE DD 050H
	DD	0b4H
	DD	0154H
	DD	0226H
_g_iCastleWallStepAxisY DD 071H
	DD	0a0H
	DD	0cbH
_DATA	ENDS
PUBLIC	__$ArrayPad$
EXTRN	_isalnum:PROC
EXTRN	_isalpha:PROC
EXTRN	_atof:PROC
EXTRN	_isdigit:PROC
EXTRN	_getc:PROC
EXTRN	_ungetc:PROC
EXTRN	_isspace:PROC
EXTRN	_fgetc:PROC
EXTRN	___security_cookie:DWORD
EXTRN	__fltused:DWORD
EXTRN	@__security_check_cookie@4:PROC
_BSS	SEGMENT
_CurrentToken DD 01H DUP (?)
_TokenNumber DD	01H DUP (?)
_SMDFile DD	01H DUP (?)
_TokenString DB	064H DUP (?)
; Function compile flags: /Ogtp
; File e:\work\tranet_version\gs\include\readscript.h
_BSS	ENDS
;	COMDAT ?GetToken@@YA?AW4SMDToken@@XZ
_TEXT	SEGMENT
_TempString$ = -104					; size = 100
__$ArrayPad$ = -4					; size = 4
?GetToken@@YA?AW4SMDToken@@XZ PROC			; GetToken, COMDAT

; 24   : {

  00000	55		 push	 ebp
  00001	8b ec		 mov	 ebp, esp
  00003	83 ec 68	 sub	 esp, 104		; 00000068H
  00006	a1 00 00 00 00	 mov	 eax, DWORD PTR ___security_cookie
  0000b	33 c5		 xor	 eax, ebp
  0000d	89 45 fc	 mov	 DWORD PTR __$ArrayPad$[ebp], eax

; 25   : 	char ch;
; 26   : 	char* p;
; 27   : 	char TempString[100];
; 28   : 
; 29   : 	TokenString[0]=0;

  00010	c6 05 00 00 00
	00 00		 mov	 BYTE PTR _TokenString, 0
  00017	53		 push	 ebx
  00018	eb 06 8d 9b 00
	00 00 00	 npad	 8
$LL31@GetToken:

; 30   : 
; 31   : 	do
; 32   : 	{
; 33   : 		if ((ch=fgetc(SMDFile)) == -1)

  00020	a1 00 00 00 00	 mov	 eax, DWORD PTR _SMDFile
  00025	50		 push	 eax
  00026	e8 00 00 00 00	 call	 _fgetc
  0002b	8a d8		 mov	 bl, al
  0002d	83 c4 04	 add	 esp, 4
  00030	80 fb ff	 cmp	 bl, -1
  00033	74 64		 je	 SHORT $LN39@GetToken

; 36   : 		}
; 37   : 		else
; 38   : 		{	
; 39   : 			if (ch=='/')		// this is /

  00035	80 fb 2f	 cmp	 bl, 47			; 0000002fH
  00038	75 31		 jne	 SHORT $LN30@GetToken

; 40   : 			{
; 41   : 				if((ch=fgetc(SMDFile)) == '/')

  0003a	8b 0d 00 00 00
	00		 mov	 ecx, DWORD PTR _SMDFile
  00040	51		 push	 ecx
  00041	e8 00 00 00 00	 call	 _fgetc
  00046	8a d8		 mov	 bl, al
  00048	83 c4 04	 add	 esp, 4
  0004b	80 fb 2f	 cmp	 bl, 47			; 0000002fH
  0004e	75 1b		 jne	 SHORT $LN30@GetToken
$LL24@GetToken:

; 42   : 				{
; 43   : 					while ((ch != '\n') && (ch != -1))	// End of Line (EOL)

  00050	80 fb ff	 cmp	 bl, -1
  00053	74 44		 je	 SHORT $LN39@GetToken

; 44   : 					{
; 45   : 						ch=fgetc(SMDFile);

  00055	8b 15 00 00 00
	00		 mov	 edx, DWORD PTR _SMDFile
  0005b	52		 push	 edx
  0005c	e8 00 00 00 00	 call	 _fgetc
  00061	8a d8		 mov	 bl, al
  00063	83 c4 04	 add	 esp, 4
  00066	80 fb 0a	 cmp	 bl, 10			; 0000000aH
  00069	75 e5		 jne	 SHORT $LL24@GetToken
$LN30@GetToken:

; 46   : 					}
; 47   : 	
; 48   : 					if (ch == -1)
; 49   : 					{
; 50   : 						return END;	// End of FILE
; 51   : 					}
; 52   : 				}
; 53   : 			}
; 54   : 		}
; 55   : 	}
; 56   : 	while (isspace(ch) != 0);

  0006b	0f be c3	 movsx	 eax, bl
  0006e	50		 push	 eax
  0006f	e8 00 00 00 00	 call	 _isspace
  00074	83 c4 04	 add	 esp, 4
  00077	85 c0		 test	 eax, eax
  00079	75 a5		 jne	 SHORT $LL31@GetToken

; 57   : 
; 58   : 	
; 59   : 	switch(ch)

  0007b	0f be c3	 movsx	 eax, bl
  0007e	8d 48 de	 lea	 ecx, DWORD PTR [eax-34]
  00081	56		 push	 esi
  00082	83 f9 5b	 cmp	 ecx, 91			; 0000005bH
  00085	0f 87 2b 01 00
	00		 ja	 $LN6@GetToken
  0008b	0f b6 89 00 00
	00 00		 movzx	 ecx, BYTE PTR $LN46@GetToken[ecx]
  00092	ff 24 8d 00 00
	00 00		 jmp	 DWORD PTR $LN50@GetToken[ecx*4]
$LN39@GetToken:

; 34   : 		{
; 35   : 			return END;	// End of FILE (EOF)

  00099	b8 02 00 00 00	 mov	 eax, 2
  0009e	5b		 pop	 ebx

; 147  : 		}
; 148  : 		break;
; 149  : 
; 150  : 	}
; 151  : 
; 152  : 	return NAME;
; 153  : }

  0009f	8b 4d fc	 mov	 ecx, DWORD PTR __$ArrayPad$[ebp]
  000a2	33 cd		 xor	 ecx, ebp
  000a4	e8 00 00 00 00	 call	 @__security_check_cookie@4
  000a9	8b e5		 mov	 esp, ebp
  000ab	5d		 pop	 ebp
  000ac	c3		 ret	 0
$LN19@GetToken:

; 60   : 	{
; 61   : 
; 62   : 	case 0x23:	// #
; 63   : 		return CurrentToken=COMMAND;

  000ad	b8 23 00 00 00	 mov	 eax, 35			; 00000023H
  000b2	e9 99 01 00 00	 jmp	 $LN48@GetToken
$LN18@GetToken:

; 64   : 		break;
; 65   : 	
; 66   : 	case 0x3B:	// ;
; 67   : 		return CurrentToken=SEMICOLON;

  000b7	b8 3b 00 00 00	 mov	 eax, 59			; 0000003bH
  000bc	e9 8f 01 00 00	 jmp	 $LN48@GetToken
$LN17@GetToken:

; 68   : 		break;
; 69   : 	
; 70   : 	case 0x2C:	// ,
; 71   : 
; 72   : 		return CurrentToken=COMMA;

  000c1	b8 2c 00 00 00	 mov	 eax, 44			; 0000002cH
  000c6	e9 85 01 00 00	 jmp	 $LN48@GetToken
$LN16@GetToken:

; 73   : 		break;
; 74   : 	
; 75   : 	case 0x7B:	// {
; 76   : 		return CurrentToken = LP;

  000cb	b8 7b 00 00 00	 mov	 eax, 123		; 0000007bH
  000d0	e9 7b 01 00 00	 jmp	 $LN48@GetToken
$LN15@GetToken:

; 77   : 		break;
; 78   : 
; 79   : 	case 0x7D:	// }
; 80   : 		return CurrentToken = RP;

  000d5	b8 7d 00 00 00	 mov	 eax, 125		; 0000007dH
  000da	e9 71 01 00 00	 jmp	 $LN48@GetToken
$LN14@GetToken:

; 81   : 		break;
; 82   : 	// Nice Index Table :)	by Deathway
; 83   : 	// Numbers Case
; 84   : 	case 0x2D:	//-
; 85   : 	case 0x2E:	//.
; 86   : 	case '0':	//0
; 87   : 	case '1':	//1
; 88   : 	case '2':	//2
; 89   : 	case '3':	//3
; 90   : 	case '4':	//4		
; 91   : 	case '5':	//5
; 92   : 	case '6':	//6
; 93   : 	case '7':	//7
; 94   : 	case '8':	//8
; 95   : 	case '9':	//9
; 96   : 		ungetc(ch, SMDFile);

  000df	8b 15 00 00 00
	00		 mov	 edx, DWORD PTR _SMDFile
  000e5	52		 push	 edx
  000e6	50		 push	 eax
  000e7	e8 00 00 00 00	 call	 _ungetc

; 97   : 		p = TempString;
; 98   : 		
; 99   : 		while (((ch=getc(SMDFile)) != -1) && ((ch == 0x2E) || (isdigit(ch) != 0) || (ch == 0x2D)))  // 2e '.'  2D '-'

  000ec	a1 00 00 00 00	 mov	 eax, DWORD PTR _SMDFile
  000f1	50		 push	 eax
  000f2	8d 75 98	 lea	 esi, DWORD PTR _TempString$[ebp]
  000f5	e8 00 00 00 00	 call	 _getc
  000fa	8a d8		 mov	 bl, al
  000fc	83 c4 0c	 add	 esp, 12			; 0000000cH
  000ff	80 fb ff	 cmp	 bl, -1
  00102	74 33		 je	 SHORT $LN12@GetToken
$LL13@GetToken:
  00104	80 fb 2e	 cmp	 bl, 46			; 0000002eH
  00107	74 15		 je	 SHORT $LN11@GetToken
  00109	0f be cb	 movsx	 ecx, bl
  0010c	51		 push	 ecx
  0010d	e8 00 00 00 00	 call	 _isdigit
  00112	83 c4 04	 add	 esp, 4
  00115	85 c0		 test	 eax, eax
  00117	75 05		 jne	 SHORT $LN11@GetToken
  00119	80 fb 2d	 cmp	 bl, 45			; 0000002dH
  0011c	75 19		 jne	 SHORT $LN12@GetToken
$LN11@GetToken:
  0011e	8b 15 00 00 00
	00		 mov	 edx, DWORD PTR _SMDFile

; 100  : 		{
; 101  : 			*p = ch;	// Construct a String

  00124	88 1e		 mov	 BYTE PTR [esi], bl
  00126	52		 push	 edx

; 102  : 			p++;

  00127	46		 inc	 esi
  00128	e8 00 00 00 00	 call	 _getc
  0012d	8a d8		 mov	 bl, al
  0012f	83 c4 04	 add	 esp, 4
  00132	80 fb ff	 cmp	 bl, -1
  00135	75 cd		 jne	 SHORT $LL13@GetToken
$LN12@GetToken:

; 103  : 		}		
; 104  : 		*p = 0;
; 105  : 		TokenNumber = atof( TempString);	// Select the first Byte as Main ID

  00137	8d 45 98	 lea	 eax, DWORD PTR _TempString$[ebp]
  0013a	50		 push	 eax
  0013b	c6 06 00	 mov	 BYTE PTR [esi], 0
  0013e	e8 00 00 00 00	 call	 _atof
  00143	d9 1d 00 00 00
	00		 fstp	 DWORD PTR _TokenNumber
  00149	83 c4 04	 add	 esp, 4
  0014c	5e		 pop	 esi

; 106  : 		return CurrentToken  = NUMBER ;

  0014d	c7 05 00 00 00
	00 01 00 00 00	 mov	 DWORD PTR _CurrentToken, 1
  00157	b8 01 00 00 00	 mov	 eax, 1
  0015c	5b		 pop	 ebx

; 147  : 		}
; 148  : 		break;
; 149  : 
; 150  : 	}
; 151  : 
; 152  : 	return NAME;
; 153  : }

  0015d	8b 4d fc	 mov	 ecx, DWORD PTR __$ArrayPad$[ebp]
  00160	33 cd		 xor	 ecx, ebp
  00162	e8 00 00 00 00	 call	 @__security_check_cookie@4
  00167	8b e5		 mov	 esp, ebp
  00169	5d		 pop	 ebp
  0016a	c3		 ret	 0
$LN10@GetToken:

; 107  : 		break;
; 108  : 
; 109  : 	case '\"':	// "	String Case
; 110  : 		p=&TokenString[0];
; 111  : 		
; 112  : 		while (((ch=getc(SMDFile)) != -1 ) && (ch != 0x22))	// nice

  0016b	8b 0d 00 00 00
	00		 mov	 ecx, DWORD PTR _SMDFile
  00171	51		 push	 ecx
  00172	be 00 00 00 00	 mov	 esi, OFFSET _TokenString
  00177	e8 00 00 00 00	 call	 _getc
  0017c	83 c4 04	 add	 esp, 4
  0017f	3c ff		 cmp	 al, -1
  00181	74 1e		 je	 SHORT $LN8@GetToken
$LL9@GetToken:
  00183	3c 22		 cmp	 al, 34			; 00000022H
  00185	0f 84 a1 00 00
	00		 je	 $LN7@GetToken
  0018b	8b 15 00 00 00
	00		 mov	 edx, DWORD PTR _SMDFile

; 113  : 		{
; 114  : 			*p = ch;

  00191	88 06		 mov	 BYTE PTR [esi], al
  00193	52		 push	 edx

; 115  : 			p++;

  00194	46		 inc	 esi
  00195	e8 00 00 00 00	 call	 _getc
  0019a	83 c4 04	 add	 esp, 4
  0019d	3c ff		 cmp	 al, -1
  0019f	75 e2		 jne	 SHORT $LL9@GetToken
$LN8@GetToken:

; 116  : 		}
; 117  : 		if (ch != 0x22 )

  001a1	3c 22		 cmp	 al, 34			; 00000022H
  001a3	0f 84 83 00 00
	00		 je	 $LN7@GetToken

; 118  : 		{
; 119  : 			ungetc(ch, SMDFile);

  001a9	8b 0d 00 00 00
	00		 mov	 ecx, DWORD PTR _SMDFile
  001af	0f be d0	 movsx	 edx, al
  001b2	51		 push	 ecx
  001b3	52		 push	 edx

; 120  : 		}
; 121  : 		*p = 0;
; 122  : 		return CurrentToken = NAME;

  001b4	eb 6e		 jmp	 SHORT $LN49@GetToken
$LN6@GetToken:

; 123  : 		break;
; 124  : 
; 125  : 	default:	// Others
; 126  : 		if (isalpha(ch))

  001b6	50		 push	 eax
  001b7	e8 00 00 00 00	 call	 _isalpha
  001bc	83 c4 04	 add	 esp, 4
  001bf	85 c0		 test	 eax, eax
  001c1	0f 84 84 00 00
	00		 je	 $LN5@GetToken

; 127  : 		{
; 128  : 			p=&TokenString[0];
; 129  : 			*p=ch;
; 130  : 			p++;
; 131  : 
; 132  : 			while ( ((ch=getc(SMDFile)) != -1) && ( (ch == 0x2E) || (ch == 0x5F) || (isalnum(ch) != 0) ) )

  001c7	a1 00 00 00 00	 mov	 eax, DWORD PTR _SMDFile
  001cc	50		 push	 eax
  001cd	88 1d 00 00 00
	00		 mov	 BYTE PTR _TokenString, bl
  001d3	be 01 00 00 00	 mov	 esi, OFFSET _TokenString+1
  001d8	e8 00 00 00 00	 call	 _getc
  001dd	8a d8		 mov	 bl, al
  001df	83 c4 04	 add	 esp, 4
  001e2	80 fb ff	 cmp	 bl, -1
  001e5	74 33		 je	 SHORT $LN3@GetToken
$LL4@GetToken:
  001e7	80 fb 2e	 cmp	 bl, 46			; 0000002eH
  001ea	74 15		 je	 SHORT $LN2@GetToken
  001ec	80 fb 5f	 cmp	 bl, 95			; 0000005fH
  001ef	74 10		 je	 SHORT $LN2@GetToken
  001f1	0f be cb	 movsx	 ecx, bl
  001f4	51		 push	 ecx
  001f5	e8 00 00 00 00	 call	 _isalnum
  001fa	83 c4 04	 add	 esp, 4
  001fd	85 c0		 test	 eax, eax
  001ff	74 19		 je	 SHORT $LN3@GetToken
$LN2@GetToken:
  00201	8b 15 00 00 00
	00		 mov	 edx, DWORD PTR _SMDFile

; 133  : 			{
; 134  : 				*p=ch;

  00207	88 1e		 mov	 BYTE PTR [esi], bl
  00209	52		 push	 edx

; 135  : 				p++;

  0020a	46		 inc	 esi
  0020b	e8 00 00 00 00	 call	 _getc
  00210	8a d8		 mov	 bl, al
  00212	83 c4 04	 add	 esp, 4
  00215	80 fb ff	 cmp	 bl, -1
  00218	75 cd		 jne	 SHORT $LL4@GetToken
$LN3@GetToken:

; 136  : 				
; 137  : 			}
; 138  : 
; 139  : 			ungetc(ch, SMDFile);

  0021a	a1 00 00 00 00	 mov	 eax, DWORD PTR _SMDFile
  0021f	0f be cb	 movsx	 ecx, bl
  00222	50		 push	 eax
  00223	51		 push	 ecx
$LN49@GetToken:
  00224	e8 00 00 00 00	 call	 _ungetc
  00229	83 c4 08	 add	 esp, 8
$LN7@GetToken:

; 140  : 			*p=0;

  0022c	c6 06 00	 mov	 BYTE PTR [esi], 0
  0022f	5e		 pop	 esi

; 141  : 			CurrentToken=NAME;

  00230	c7 05 00 00 00
	00 00 00 00 00	 mov	 DWORD PTR _CurrentToken, 0

; 142  : 			return CurrentToken;

  0023a	33 c0		 xor	 eax, eax
  0023c	5b		 pop	 ebx

; 147  : 		}
; 148  : 		break;
; 149  : 
; 150  : 	}
; 151  : 
; 152  : 	return NAME;
; 153  : }

  0023d	8b 4d fc	 mov	 ecx, DWORD PTR __$ArrayPad$[ebp]
  00240	33 cd		 xor	 ecx, ebp
  00242	e8 00 00 00 00	 call	 @__security_check_cookie@4
  00247	8b e5		 mov	 esp, ebp
  00249	5d		 pop	 ebp
  0024a	c3		 ret	 0
$LN5@GetToken:

; 143  : 		}
; 144  : 		else
; 145  : 		{
; 146  : 			return CurrentToken = SMD_ERROR; // '<'

  0024b	b8 3c 00 00 00	 mov	 eax, 60			; 0000003cH
$LN48@GetToken:

; 147  : 		}
; 148  : 		break;
; 149  : 
; 150  : 	}
; 151  : 
; 152  : 	return NAME;
; 153  : }

  00250	8b 4d fc	 mov	 ecx, DWORD PTR __$ArrayPad$[ebp]
  00253	5e		 pop	 esi
  00254	33 cd		 xor	 ecx, ebp
  00256	a3 00 00 00 00	 mov	 DWORD PTR _CurrentToken, eax
  0025b	5b		 pop	 ebx
  0025c	e8 00 00 00 00	 call	 @__security_check_cookie@4
  00261	8b e5		 mov	 esp, ebp
  00263	5d		 pop	 ebp
  00264	c3		 ret	 0
  00265	8d 49 00	 npad	 3
$LN50@GetToken:
  00268	00 00 00 00	 DD	 $LN10@GetToken
  0026c	00 00 00 00	 DD	 $LN19@GetToken
  00270	00 00 00 00	 DD	 $LN17@GetToken
  00274	00 00 00 00	 DD	 $LN14@GetToken
  00278	00 00 00 00	 DD	 $LN18@GetToken
  0027c	00 00 00 00	 DD	 $LN16@GetToken
  00280	00 00 00 00	 DD	 $LN15@GetToken
  00284	00 00 00 00	 DD	 $LN6@GetToken
$LN46@GetToken:
  00288	00		 DB	 0
  00289	01		 DB	 1
  0028a	07		 DB	 7
  0028b	07		 DB	 7
  0028c	07		 DB	 7
  0028d	07		 DB	 7
  0028e	07		 DB	 7
  0028f	07		 DB	 7
  00290	07		 DB	 7
  00291	07		 DB	 7
  00292	02		 DB	 2
  00293	03		 DB	 3
  00294	03		 DB	 3
  00295	07		 DB	 7
  00296	03		 DB	 3
  00297	03		 DB	 3
  00298	03		 DB	 3
  00299	03		 DB	 3
  0029a	03		 DB	 3
  0029b	03		 DB	 3
  0029c	03		 DB	 3
  0029d	03		 DB	 3
  0029e	03		 DB	 3
  0029f	03		 DB	 3
  002a0	07		 DB	 7
  002a1	04		 DB	 4
  002a2	07		 DB	 7
  002a3	07		 DB	 7
  002a4	07		 DB	 7
  002a5	07		 DB	 7
  002a6	07		 DB	 7
  002a7	07		 DB	 7
  002a8	07		 DB	 7
  002a9	07		 DB	 7
  002aa	07		 DB	 7
  002ab	07		 DB	 7
  002ac	07		 DB	 7
  002ad	07		 DB	 7
  002ae	07		 DB	 7
  002af	07		 DB	 7
  002b0	07		 DB	 7
  002b1	07		 DB	 7
  002b2	07		 DB	 7
  002b3	07		 DB	 7
  002b4	07		 DB	 7
  002b5	07		 DB	 7
  002b6	07		 DB	 7
  002b7	07		 DB	 7
  002b8	07		 DB	 7
  002b9	07		 DB	 7
  002ba	07		 DB	 7
  002bb	07		 DB	 7
  002bc	07		 DB	 7
  002bd	07		 DB	 7
  002be	07		 DB	 7
  002bf	07		 DB	 7
  002c0	07		 DB	 7
  002c1	07		 DB	 7
  002c2	07		 DB	 7
  002c3	07		 DB	 7
  002c4	07		 DB	 7
  002c5	07		 DB	 7
  002c6	07		 DB	 7
  002c7	07		 DB	 7
  002c8	07		 DB	 7
  002c9	07		 DB	 7
  002ca	07		 DB	 7
  002cb	07		 DB	 7
  002cc	07		 DB	 7
  002cd	07		 DB	 7
  002ce	07		 DB	 7
  002cf	07		 DB	 7
  002d0	07		 DB	 7
  002d1	07		 DB	 7
  002d2	07		 DB	 7
  002d3	07		 DB	 7
  002d4	07		 DB	 7
  002d5	07		 DB	 7
  002d6	07		 DB	 7
  002d7	07		 DB	 7
  002d8	07		 DB	 7
  002d9	07		 DB	 7
  002da	07		 DB	 7
  002db	07		 DB	 7
  002dc	07		 DB	 7
  002dd	07		 DB	 7
  002de	07		 DB	 7
  002df	07		 DB	 7
  002e0	07		 DB	 7
  002e1	05		 DB	 5
  002e2	07		 DB	 7
  002e3	06		 DB	 6
?GetToken@@YA?AW4SMDToken@@XZ ENDP			; GetToken
_TEXT	ENDS
PUBLIC	??2@YAPAXIPAX@Z					; operator new
; Function compile flags: /Ogtp
; File d:\program files (x86)\microsoft visual studio 10.0\vc\include\new.h
;	COMDAT ??2@YAPAXIPAX@Z
_TEXT	SEGMENT
___formal$ = 8						; size = 4
__Where$ = 12						; size = 4
??2@YAPAXIPAX@Z PROC					; operator new, COMDAT

; 81   :         {return (_Where); }

  00000	55		 push	 ebp
  00001	8b ec		 mov	 ebp, esp
  00003	8b 45 0c	 mov	 eax, DWORD PTR __Where$[ebp]
  00006	5d		 pop	 ebp
  00007	c3		 ret	 0
??2@YAPAXIPAX@Z ENDP					; operator new
_TEXT	ENDS
PUBLIC	??3@YAXPAX0@Z					; operator delete
; Function compile flags: /Ogtp
;	COMDAT ??3@YAXPAX0@Z
_TEXT	SEGMENT
___formal$ = 8						; size = 4
___formal$ = 12						; size = 4
??3@YAXPAX0@Z PROC					; operator delete, COMDAT

; 83   :         {return; }

  00000	c3		 ret	 0
??3@YAXPAX0@Z ENDP					; operator delete
_TEXT	ENDS
PUBLIC	??_H@YGXPAXIHP6EPAX0@Z@Z			; `vector constructor iterator'
; Function compile flags: /Ogtp
;	COMDAT ??_H@YGXPAXIHP6EPAX0@Z@Z
_TEXT	SEGMENT
___t$ = 8						; size = 4
___s$ = 12						; size = 4
___n$ = 16						; size = 4
___f$ = 20						; size = 4
??_H@YGXPAXIHP6EPAX0@Z@Z PROC				; `vector constructor iterator', COMDAT
  00000	55		 push	 ebp
  00001	8b ec		 mov	 ebp, esp
  00003	57		 push	 edi
  00004	8b 7d 10	 mov	 edi, DWORD PTR ___n$[ebp]
  00007	4f		 dec	 edi
  00008	78 14		 js	 SHORT $LN1@vector
  0000a	53		 push	 ebx
  0000b	8b 5d 14	 mov	 ebx, DWORD PTR ___f$[ebp]
  0000e	56		 push	 esi
  0000f	8b 75 08	 mov	 esi, DWORD PTR ___t$[ebp]
$LL2@vector:
  00012	8b ce		 mov	 ecx, esi
  00014	ff d3		 call	 ebx
  00016	03 75 0c	 add	 esi, DWORD PTR ___s$[ebp]
  00019	4f		 dec	 edi
  0001a	79 f6		 jns	 SHORT $LL2@vector
  0001c	5e		 pop	 esi
  0001d	5b		 pop	 ebx
$LN1@vector:
  0001e	5f		 pop	 edi
  0001f	5d		 pop	 ebp
  00020	c2 10 00	 ret	 16			; 00000010H
??_H@YGXPAXIHP6EPAX0@Z@Z ENDP				; `vector constructor iterator'
_TEXT	ENDS
PUBLIC	?_Inside@?$vector@UDARKREVAN_ATTACK_BLOCK@@V?$allocator@UDARKREVAN_ATTACK_BLOCK@@@std@@@std@@IBE_NPBUDARKREVAN_ATTACK_BLOCK@@@Z ; std::vector<DARKREVAN_ATTACK_BLOCK,std::allocator<DARKREVAN_ATTACK_BLOCK> >::_Inside
; Function compile flags: /Ogtp
; File d:\program files (x86)\microsoft visual studio 10.0\vc\include\vector
;	COMDAT ?_Inside@?$vector@UDARKREVAN_ATTACK_BLOCK@@V?$allocator@UDARKREVAN_ATTACK_BLOCK@@@std@@@std@@IBE_NPBUDARKREVAN_ATTACK_BLOCK@@@Z
_TEXT	SEGMENT
__Ptr$ = 8						; size = 4
?_Inside@?$vector@UDARKREVAN_ATTACK_BLOCK@@V?$allocator@UDARKREVAN_ATTACK_BLOCK@@@std@@@std@@IBE_NPBUDARKREVAN_ATTACK_BLOCK@@@Z PROC ; std::vector<DARKREVAN_ATTACK_BLOCK,std::allocator<DARKREVAN_ATTACK_BLOCK> >::_Inside, COMDAT
; _this$ = ecx

; 1285 : 		{	// test if _Ptr points inside vector

  00000	55		 push	 ebp
  00001	8b ec		 mov	 ebp, esp

; 1286 : 		return (_Ptr < this->_Mylast && this->_Myfirst <= _Ptr);

  00003	8b 45 08	 mov	 eax, DWORD PTR __Ptr$[ebp]
  00006	3b 41 04	 cmp	 eax, DWORD PTR [ecx+4]
  00009	73 0d		 jae	 SHORT $LN3@Inside
  0000b	39 01		 cmp	 DWORD PTR [ecx], eax
  0000d	77 09		 ja	 SHORT $LN3@Inside
  0000f	b8 01 00 00 00	 mov	 eax, 1

; 1287 : 		}

  00014	5d		 pop	 ebp
  00015	c2 04 00	 ret	 4
$LN3@Inside:

; 1286 : 		return (_Ptr < this->_Mylast && this->_Myfirst <= _Ptr);

  00018	33 c0		 xor	 eax, eax

; 1287 : 		}

  0001a	5d		 pop	 ebp
  0001b	c2 04 00	 ret	 4
?_Inside@?$vector@UDARKREVAN_ATTACK_BLOCK@@V?$allocator@UDARKREVAN_ATTACK_BLOCK@@@std@@@std@@IBE_NPBUDARKREVAN_ATTACK_BLOCK@@@Z ENDP ; std::vector<DARKREVAN_ATTACK_BLOCK,std::allocator<DARKREVAN_ATTACK_BLOCK> >::_Inside
_TEXT	ENDS
PUBLIC	?_Orphan_range@?$vector@UDARKREVAN_ATTACK_BLOCK@@V?$allocator@UDARKREVAN_ATTACK_BLOCK@@@std@@@std@@IBEXPAUDARKREVAN_ATTACK_BLOCK@@0@Z ; std::vector<DARKREVAN_ATTACK_BLOCK,std::allocator<DARKREVAN_ATTACK_BLOCK> >::_Orphan_range
; Function compile flags: /Ogtp
;	COMDAT ?_Orphan_range@?$vector@UDARKREVAN_ATTACK_BLOCK@@V?$allocator@UDARKREVAN_ATTACK_BLOCK@@@std@@@std@@IBEXPAUDARKREVAN_ATTACK_BLOCK@@0@Z
_TEXT	SEGMENT
___formal$ = 8						; size = 4
___formal$ = 12						; size = 4
?_Orphan_range@?$vector@UDARKREVAN_ATTACK_BLOCK@@V?$allocator@UDARKREVAN_ATTACK_BLOCK@@@std@@@std@@IBEXPAUDARKREVAN_ATTACK_BLOCK@@0@Z PROC ; std::vector<DARKREVAN_ATTACK_BLOCK,std::allocator<DARKREVAN_ATTACK_BLOCK> >::_Orphan_range, COMDAT
; _this$ = ecx

; 1454 : 		}

  00000	c2 08 00	 ret	 8
?_Orphan_range@?$vector@UDARKREVAN_ATTACK_BLOCK@@V?$allocator@UDARKREVAN_ATTACK_BLOCK@@@std@@@std@@IBEXPAUDARKREVAN_ATTACK_BLOCK@@0@Z ENDP ; std::vector<DARKREVAN_ATTACK_BLOCK,std::allocator<DARKREVAN_ATTACK_BLOCK> >::_Orphan_range
_TEXT	ENDS
PUBLIC	??1?$_Vector_val@UDARKREVAN_ATTACK_BLOCK@@V?$allocator@UDARKREVAN_ATTACK_BLOCK@@@std@@@std@@QAE@XZ ; std::_Vector_val<DARKREVAN_ATTACK_BLOCK,std::allocator<DARKREVAN_ATTACK_BLOCK> >::~_Vector_val<DARKREVAN_ATTACK_BLOCK,std::allocator<DARKREVAN_ATTACK_BLOCK> >
; Function compile flags: /Ogtp
;	COMDAT ??1?$_Vector_val@UDARKREVAN_ATTACK_BLOCK@@V?$allocator@UDARKREVAN_ATTACK_BLOCK@@@std@@@std@@QAE@XZ
_TEXT	SEGMENT
??1?$_Vector_val@UDARKREVAN_ATTACK_BLOCK@@V?$allocator@UDARKREVAN_ATTACK_BLOCK@@@std@@@std@@QAE@XZ PROC ; std::_Vector_val<DARKREVAN_ATTACK_BLOCK,std::allocator<DARKREVAN_ATTACK_BLOCK> >::~_Vector_val<DARKREVAN_ATTACK_BLOCK,std::allocator<DARKREVAN_ATTACK_BLOCK> >, COMDAT
; _this$ = ecx

; 434  : 		}

  00000	c3		 ret	 0
??1?$_Vector_val@UDARKREVAN_ATTACK_BLOCK@@V?$allocator@UDARKREVAN_ATTACK_BLOCK@@@std@@@std@@QAE@XZ ENDP ; std::_Vector_val<DARKREVAN_ATTACK_BLOCK,std::allocator<DARKREVAN_ATTACK_BLOCK> >::~_Vector_val<DARKREVAN_ATTACK_BLOCK,std::allocator<DARKREVAN_ATTACK_BLOCK> >
_TEXT	ENDS
PUBLIC	??0?$allocator@UDARKREVAN_ATTACK_BLOCK@@@std@@QAE@XZ ; std::allocator<DARKREVAN_ATTACK_BLOCK>::allocator<DARKREVAN_ATTACK_BLOCK>
; Function compile flags: /Ogtp
; File d:\program files (x86)\microsoft visual studio 10.0\vc\include\xmemory
;	COMDAT ??0?$allocator@UDARKREVAN_ATTACK_BLOCK@@@std@@QAE@XZ
_TEXT	SEGMENT
??0?$allocator@UDARKREVAN_ATTACK_BLOCK@@@std@@QAE@XZ PROC ; std::allocator<DARKREVAN_ATTACK_BLOCK>::allocator<DARKREVAN_ATTACK_BLOCK>, COMDAT
; _this$ = ecx

; 161  : 	_ALLOCATOR() _THROW0()

  00000	8b c1		 mov	 eax, ecx

; 162  : 		{	// construct default allocator (do nothing)
; 163  : 		}

  00002	c3		 ret	 0
??0?$allocator@UDARKREVAN_ATTACK_BLOCK@@@std@@QAE@XZ ENDP ; std::allocator<DARKREVAN_ATTACK_BLOCK>::allocator<DARKREVAN_ATTACK_BLOCK>
_TEXT	ENDS
PUBLIC	?capacity@?$vector@UDARKREVAN_ATTACK_BLOCK@@V?$allocator@UDARKREVAN_ATTACK_BLOCK@@@std@@@std@@QBEIXZ ; std::vector<DARKREVAN_ATTACK_BLOCK,std::allocator<DARKREVAN_ATTACK_BLOCK> >::capacity
; Function compile flags: /Ogtp
; File d:\program files (x86)\microsoft visual studio 10.0\vc\include\vector
;	COMDAT ?capacity@?$vector@UDARKREVAN_ATTACK_BLOCK@@V?$allocator@UDARKREVAN_ATTACK_BLOCK@@@std@@@std@@QBEIXZ
_TEXT	SEGMENT
?capacity@?$vector@UDARKREVAN_ATTACK_BLOCK@@V?$allocator@UDARKREVAN_ATTACK_BLOCK@@@std@@@std@@QBEIXZ PROC ; std::vector<DARKREVAN_ATTACK_BLOCK,std::allocator<DARKREVAN_ATTACK_BLOCK> >::capacity, COMDAT
; _this$ = ecx

; 777  : 		return (this->_Myend - this->_Myfirst);

  00000	8b 41 08	 mov	 eax, DWORD PTR [ecx+8]
  00003	2b 01		 sub	 eax, DWORD PTR [ecx]
  00005	c1 f8 02	 sar	 eax, 2

; 778  : 		}

  00008	c3		 ret	 0
?capacity@?$vector@UDARKREVAN_ATTACK_BLOCK@@V?$allocator@UDARKREVAN_ATTACK_BLOCK@@@std@@@std@@QBEIXZ ENDP ; std::vector<DARKREVAN_ATTACK_BLOCK,std::allocator<DARKREVAN_ATTACK_BLOCK> >::capacity
_TEXT	ENDS
PUBLIC	?size@?$vector@UDARKREVAN_ATTACK_BLOCK@@V?$allocator@UDARKREVAN_ATTACK_BLOCK@@@std@@@std@@QBEIXZ ; std::vector<DARKREVAN_ATTACK_BLOCK,std::allocator<DARKREVAN_ATTACK_BLOCK> >::size
; Function compile flags: /Ogtp
;	COMDAT ?size@?$vector@UDARKREVAN_ATTACK_BLOCK@@V?$allocator@UDARKREVAN_ATTACK_BLOCK@@@std@@@std@@QBEIXZ
_TEXT	SEGMENT
?size@?$vector@UDARKREVAN_ATTACK_BLOCK@@V?$allocator@UDARKREVAN_ATTACK_BLOCK@@@std@@@std@@QBEIXZ PROC ; std::vector<DARKREVAN_ATTACK_BLOCK,std::allocator<DARKREVAN_ATTACK_BLOCK> >::size, COMDAT
; _this$ = ecx

; 879  : 		return (this->_Mylast - this->_Myfirst);

  00000	8b 41 04	 mov	 eax, DWORD PTR [ecx+4]
  00003	2b 01		 sub	 eax, DWORD PTR [ecx]
  00005	c1 f8 02	 sar	 eax, 2

; 880  : 		}

  00008	c3		 ret	 0
?size@?$vector@UDARKREVAN_ATTACK_BLOCK@@V?$allocator@UDARKREVAN_ATTACK_BLOCK@@@std@@@std@@QBEIXZ ENDP ; std::vector<DARKREVAN_ATTACK_BLOCK,std::allocator<DARKREVAN_ATTACK_BLOCK> >::size
_TEXT	ENDS
PUBLIC	??_C@_0BD@OLBABOEK@vector?$DMT?$DO?5too?5long?$AA@ ; `string'
PUBLIC	?_Xlen@?$vector@UDARKREVAN_ATTACK_BLOCK@@V?$allocator@UDARKREVAN_ATTACK_BLOCK@@@std@@@std@@IBEXXZ ; std::vector<DARKREVAN_ATTACK_BLOCK,std::allocator<DARKREVAN_ATTACK_BLOCK> >::_Xlen
EXTRN	?_Xlength_error@std@@YAXPBD@Z:PROC		; std::_Xlength_error
;	COMDAT ??_C@_0BD@OLBABOEK@vector?$DMT?$DO?5too?5long?$AA@
CONST	SEGMENT
??_C@_0BD@OLBABOEK@vector?$DMT?$DO?5too?5long?$AA@ DB 'vector<T> too long'
	DB	00H						; `string'
; Function compile flags: /Ogtp
CONST	ENDS
;	COMDAT ?_Xlen@?$vector@UDARKREVAN_ATTACK_BLOCK@@V?$allocator@UDARKREVAN_ATTACK_BLOCK@@@std@@@std@@IBEXXZ
_TEXT	SEGMENT
?_Xlen@?$vector@UDARKREVAN_ATTACK_BLOCK@@V?$allocator@UDARKREVAN_ATTACK_BLOCK@@@std@@@std@@IBEXXZ PROC ; std::vector<DARKREVAN_ATTACK_BLOCK,std::allocator<DARKREVAN_ATTACK_BLOCK> >::_Xlen, COMDAT
; _this$ = ecx

; 1427 : 		_Xlength_error("vector<T> too long");

  00000	68 00 00 00 00	 push	 OFFSET ??_C@_0BD@OLBABOEK@vector?$DMT?$DO?5too?5long?$AA@
  00005	e8 00 00 00 00	 call	 ?_Xlength_error@std@@YAXPBD@Z ; std::_Xlength_error
$LN4@Xlen:
$LN3@Xlen:
  0000a	cc		 int	 3
?_Xlen@?$vector@UDARKREVAN_ATTACK_BLOCK@@V?$allocator@UDARKREVAN_ATTACK_BLOCK@@@std@@@std@@IBEXXZ ENDP ; std::vector<DARKREVAN_ATTACK_BLOCK,std::allocator<DARKREVAN_ATTACK_BLOCK> >::_Xlen
_TEXT	ENDS
PUBLIC	??0?$allocator@UDARKREVAN_ATTACK_BLOCK@@@std@@QAE@ABV01@@Z ; std::allocator<DARKREVAN_ATTACK_BLOCK>::allocator<DARKREVAN_ATTACK_BLOCK>
; Function compile flags: /Ogtp
; File d:\program files (x86)\microsoft visual studio 10.0\vc\include\xmemory
;	COMDAT ??0?$allocator@UDARKREVAN_ATTACK_BLOCK@@@std@@QAE@ABV01@@Z
_TEXT	SEGMENT
___formal$ = 8						; size = 4
??0?$allocator@UDARKREVAN_ATTACK_BLOCK@@@std@@QAE@ABV01@@Z PROC ; std::allocator<DARKREVAN_ATTACK_BLOCK>::allocator<DARKREVAN_ATTACK_BLOCK>, COMDAT
; _this$ = ecx

; 165  : 	_ALLOCATOR(const _ALLOCATOR<_Ty>&) _THROW0()

  00000	8b c1		 mov	 eax, ecx

; 166  : 		{	// construct by copying (do nothing)
; 167  : 		}

  00002	c2 04 00	 ret	 4
??0?$allocator@UDARKREVAN_ATTACK_BLOCK@@@std@@QAE@ABV01@@Z ENDP ; std::allocator<DARKREVAN_ATTACK_BLOCK>::allocator<DARKREVAN_ATTACK_BLOCK>
_TEXT	ENDS
PUBLIC	?deallocate@?$allocator@UDARKREVAN_ATTACK_BLOCK@@@std@@QAEXPAUDARKREVAN_ATTACK_BLOCK@@I@Z ; std::allocator<DARKREVAN_ATTACK_BLOCK>::deallocate
EXTRN	??3@YAXPAX@Z:PROC				; operator delete
; Function compile flags: /Ogtp
;	COMDAT ?deallocate@?$allocator@UDARKREVAN_ATTACK_BLOCK@@@std@@QAEXPAUDARKREVAN_ATTACK_BLOCK@@I@Z
_TEXT	SEGMENT
__Ptr$ = 8						; size = 4
___formal$ = 12						; size = 4
?deallocate@?$allocator@UDARKREVAN_ATTACK_BLOCK@@@std@@QAEXPAUDARKREVAN_ATTACK_BLOCK@@I@Z PROC ; std::allocator<DARKREVAN_ATTACK_BLOCK>::deallocate, COMDAT
; _this$ = ecx

; 181  : 		{	// deallocate object at _Ptr, ignore size

  00000	55		 push	 ebp
  00001	8b ec		 mov	 ebp, esp

; 182  : 		::operator delete(_Ptr);

  00003	8b 45 08	 mov	 eax, DWORD PTR __Ptr$[ebp]
  00006	50		 push	 eax
  00007	e8 00 00 00 00	 call	 ??3@YAXPAX@Z		; operator delete
  0000c	83 c4 04	 add	 esp, 4

; 183  : 		}

  0000f	5d		 pop	 ebp
  00010	c2 08 00	 ret	 8
?deallocate@?$allocator@UDARKREVAN_ATTACK_BLOCK@@@std@@QAEXPAUDARKREVAN_ATTACK_BLOCK@@I@Z ENDP ; std::allocator<DARKREVAN_ATTACK_BLOCK>::deallocate
_TEXT	ENDS
PUBLIC	?max_size@?$allocator@UDARKREVAN_ATTACK_BLOCK@@@std@@QBEIXZ ; std::allocator<DARKREVAN_ATTACK_BLOCK>::max_size
; Function compile flags: /Ogtp
;	COMDAT ?max_size@?$allocator@UDARKREVAN_ATTACK_BLOCK@@@std@@QBEIXZ
_TEXT	SEGMENT
?max_size@?$allocator@UDARKREVAN_ATTACK_BLOCK@@@std@@QBEIXZ PROC ; std::allocator<DARKREVAN_ATTACK_BLOCK>::max_size, COMDAT
; _this$ = ecx

; 218  : 		_SIZT _Count = (_SIZT)(-1) / sizeof (_Ty);
; 219  : 		return (0 < _Count ? _Count : 1);

  00000	b8 ff ff ff 3f	 mov	 eax, 1073741823		; 3fffffffH

; 220  : 		}

  00005	c3		 ret	 0
?max_size@?$allocator@UDARKREVAN_ATTACK_BLOCK@@@std@@QBEIXZ ENDP ; std::allocator<DARKREVAN_ATTACK_BLOCK>::max_size
_TEXT	ENDS
PUBLIC	?_Compat@?$_Vector_const_iterator@V?$_Vector_val@UDARKREVAN_ATTACK_BLOCK@@V?$allocator@UDARKREVAN_ATTACK_BLOCK@@@std@@@std@@@std@@QBEXABV12@@Z ; std::_Vector_const_iterator<std::_Vector_val<DARKREVAN_ATTACK_BLOCK,std::allocator<DARKREVAN_ATTACK_BLOCK> > >::_Compat
; Function compile flags: /Ogtp
; File d:\program files (x86)\microsoft visual studio 10.0\vc\include\vector
;	COMDAT ?_Compat@?$_Vector_const_iterator@V?$_Vector_val@UDARKREVAN_ATTACK_BLOCK@@V?$allocator@UDARKREVAN_ATTACK_BLOCK@@@std@@@std@@@std@@QBEXABV12@@Z
_TEXT	SEGMENT
___formal$ = 8						; size = 4
?_Compat@?$_Vector_const_iterator@V?$_Vector_val@UDARKREVAN_ATTACK_BLOCK@@V?$allocator@UDARKREVAN_ATTACK_BLOCK@@@std@@@std@@@std@@QBEXABV12@@Z PROC ; std::_Vector_const_iterator<std::_Vector_val<DARKREVAN_ATTACK_BLOCK,std::allocator<DARKREVAN_ATTACK_BLOCK> > >::_Compat, COMDAT
; _this$ = ecx

; 253  : 		}

  00000	c2 04 00	 ret	 4
?_Compat@?$_Vector_const_iterator@V?$_Vector_val@UDARKREVAN_ATTACK_BLOCK@@V?$allocator@UDARKREVAN_ATTACK_BLOCK@@@std@@@std@@@std@@QBEXABV12@@Z ENDP ; std::_Vector_const_iterator<std::_Vector_val<DARKREVAN_ATTACK_BLOCK,std::allocator<DARKREVAN_ATTACK_BLOCK> > >::_Compat
_TEXT	ENDS
PUBLIC	??$addressof@$$CBUDARKREVAN_ATTACK_BLOCK@@@std@@YAPBUDARKREVAN_ATTACK_BLOCK@@ABU1@@Z ; std::addressof<DARKREVAN_ATTACK_BLOCK const >
; Function compile flags: /Ogtp
; File d:\program files (x86)\microsoft visual studio 10.0\vc\include\xmemory
;	COMDAT ??$addressof@$$CBUDARKREVAN_ATTACK_BLOCK@@@std@@YAPBUDARKREVAN_ATTACK_BLOCK@@ABU1@@Z
_TEXT	SEGMENT
__Val$ = 8						; size = 4
??$addressof@$$CBUDARKREVAN_ATTACK_BLOCK@@@std@@YAPBUDARKREVAN_ATTACK_BLOCK@@ABU1@@Z PROC ; std::addressof<DARKREVAN_ATTACK_BLOCK const >, COMDAT

; 110  : 	{	// return address of _Val

  00000	55		 push	 ebp
  00001	8b ec		 mov	 ebp, esp

; 111  : 	return ((_Ty *) &(char&)_Val);

  00003	8b 45 08	 mov	 eax, DWORD PTR __Val$[ebp]

; 112  : 	}

  00006	5d		 pop	 ebp
  00007	c3		 ret	 0
??$addressof@$$CBUDARKREVAN_ATTACK_BLOCK@@@std@@YAPBUDARKREVAN_ATTACK_BLOCK@@ABU1@@Z ENDP ; std::addressof<DARKREVAN_ATTACK_BLOCK const >
_TEXT	ENDS
PUBLIC	??$forward@AAUDARKREVAN_ATTACK_BLOCK@@@std@@YAAAUDARKREVAN_ATTACK_BLOCK@@AAU1@@Z ; std::forward<DARKREVAN_ATTACK_BLOCK &>
; Function compile flags: /Ogtp
; File d:\program files (x86)\microsoft visual studio 10.0\vc\include\utility
;	COMDAT ??$forward@AAUDARKREVAN_ATTACK_BLOCK@@@std@@YAAAUDARKREVAN_ATTACK_BLOCK@@AAU1@@Z
_TEXT	SEGMENT
__Arg$ = 8						; size = 4
??$forward@AAUDARKREVAN_ATTACK_BLOCK@@@std@@YAAAUDARKREVAN_ATTACK_BLOCK@@AAU1@@Z PROC ; std::forward<DARKREVAN_ATTACK_BLOCK &>, COMDAT

; 78   : 	{	// forward _Arg, given explicitly specified type parameter

  00000	55		 push	 ebp
  00001	8b ec		 mov	 ebp, esp

; 79   : 	return ((_Ty&&)_Arg);

  00003	8b 45 08	 mov	 eax, DWORD PTR __Arg$[ebp]

; 80   : 	}

  00006	5d		 pop	 ebp
  00007	c3		 ret	 0
??$forward@AAUDARKREVAN_ATTACK_BLOCK@@@std@@YAAAUDARKREVAN_ATTACK_BLOCK@@AAU1@@Z ENDP ; std::forward<DARKREVAN_ATTACK_BLOCK &>
_TEXT	ENDS
PUBLIC	??$construct@AAUDARKREVAN_ATTACK_BLOCK@@@?$allocator@UDARKREVAN_ATTACK_BLOCK@@@std@@QAEXPAUDARKREVAN_ATTACK_BLOCK@@AAU2@@Z ; std::allocator<DARKREVAN_ATTACK_BLOCK>::construct<DARKREVAN_ATTACK_BLOCK &>
; Function compile flags: /Ogtp
; File d:\program files (x86)\microsoft visual studio 10.0\vc\include\xmemory
;	COMDAT ??$construct@AAUDARKREVAN_ATTACK_BLOCK@@@?$allocator@UDARKREVAN_ATTACK_BLOCK@@@std@@QAEXPAUDARKREVAN_ATTACK_BLOCK@@AAU2@@Z
_TEXT	SEGMENT
__Ptr$ = 8						; size = 4
__Val$ = 12						; size = 4
??$construct@AAUDARKREVAN_ATTACK_BLOCK@@@?$allocator@UDARKREVAN_ATTACK_BLOCK@@@std@@QAEXPAUDARKREVAN_ATTACK_BLOCK@@AAU2@@Z PROC ; std::allocator<DARKREVAN_ATTACK_BLOCK>::construct<DARKREVAN_ATTACK_BLOCK &>, COMDAT
; _this$ = ecx

; 206  : 		void construct(pointer _Ptr, _Other&& _Val)

  00000	55		 push	 ebp
  00001	8b ec		 mov	 ebp, esp

; 207  : 		{	// construct object at _Ptr with value _Val
; 208  : 		::new ((void _FARQ *)_Ptr) _Ty(_STD forward<_Other>(_Val));

  00003	8b 45 08	 mov	 eax, DWORD PTR __Ptr$[ebp]
  00006	85 c0		 test	 eax, eax
  00008	74 07		 je	 SHORT $LN3@construct
  0000a	8b 4d 0c	 mov	 ecx, DWORD PTR __Val$[ebp]
  0000d	8b 11		 mov	 edx, DWORD PTR [ecx]
  0000f	89 10		 mov	 DWORD PTR [eax], edx
$LN3@construct:

; 209  : 		}

  00011	5d		 pop	 ebp
  00012	c2 08 00	 ret	 8
??$construct@AAUDARKREVAN_ATTACK_BLOCK@@@?$allocator@UDARKREVAN_ATTACK_BLOCK@@@std@@QAEXPAUDARKREVAN_ATTACK_BLOCK@@AAU2@@Z ENDP ; std::allocator<DARKREVAN_ATTACK_BLOCK>::construct<DARKREVAN_ATTACK_BLOCK &>
_TEXT	ENDS
PUBLIC	??$forward@ABUDARKREVAN_ATTACK_BLOCK@@@std@@YAABUDARKREVAN_ATTACK_BLOCK@@ABU1@@Z ; std::forward<DARKREVAN_ATTACK_BLOCK const &>
; Function compile flags: /Ogtp
; File d:\program files (x86)\microsoft visual studio 10.0\vc\include\utility
;	COMDAT ??$forward@ABUDARKREVAN_ATTACK_BLOCK@@@std@@YAABUDARKREVAN_ATTACK_BLOCK@@ABU1@@Z
_TEXT	SEGMENT
__Arg$ = 8						; size = 4
??$forward@ABUDARKREVAN_ATTACK_BLOCK@@@std@@YAABUDARKREVAN_ATTACK_BLOCK@@ABU1@@Z PROC ; std::forward<DARKREVAN_ATTACK_BLOCK const &>, COMDAT

; 78   : 	{	// forward _Arg, given explicitly specified type parameter

  00000	55		 push	 ebp
  00001	8b ec		 mov	 ebp, esp

; 79   : 	return ((_Ty&&)_Arg);

  00003	8b 45 08	 mov	 eax, DWORD PTR __Arg$[ebp]

; 80   : 	}

  00006	5d		 pop	 ebp
  00007	c3		 ret	 0
??$forward@ABUDARKREVAN_ATTACK_BLOCK@@@std@@YAABUDARKREVAN_ATTACK_BLOCK@@ABU1@@Z ENDP ; std::forward<DARKREVAN_ATTACK_BLOCK const &>
_TEXT	ENDS
PUBLIC	??$_Ptr_cat@UDARKREVAN_ATTACK_BLOCK@@U1@@std@@YA?AU_Nonscalar_ptr_iterator_tag@0@PAUDARKREVAN_ATTACK_BLOCK@@0@Z ; std::_Ptr_cat<DARKREVAN_ATTACK_BLOCK,DARKREVAN_ATTACK_BLOCK>
; Function compile flags: /Ogtp
; File d:\program files (x86)\microsoft visual studio 10.0\vc\include\xutility
;	COMDAT ??$_Ptr_cat@UDARKREVAN_ATTACK_BLOCK@@U1@@std@@YA?AU_Nonscalar_ptr_iterator_tag@0@PAUDARKREVAN_ATTACK_BLOCK@@0@Z
_TEXT	SEGMENT
__Cat$ = -1						; size = 1
___formal$ = 8						; size = 4
___formal$ = 12						; size = 4
??$_Ptr_cat@UDARKREVAN_ATTACK_BLOCK@@U1@@std@@YA?AU_Nonscalar_ptr_iterator_tag@0@PAUDARKREVAN_ATTACK_BLOCK@@0@Z PROC ; std::_Ptr_cat<DARKREVAN_ATTACK_BLOCK,DARKREVAN_ATTACK_BLOCK>, COMDAT

; 516  : 	{	// return pointer category from pointers

  00000	55		 push	 ebp
  00001	8b ec		 mov	 ebp, esp
  00003	51		 push	 ecx

; 517  : 	typename _Ptr_cat_helper<_Elem1, _Elem2>::_Type _Cat;
; 518  : 	return (_Cat);

  00004	8a 45 ff	 mov	 al, BYTE PTR __Cat$[ebp]

; 519  : 	}

  00007	8b e5		 mov	 esp, ebp
  00009	5d		 pop	 ebp
  0000a	c3		 ret	 0
??$_Ptr_cat@UDARKREVAN_ATTACK_BLOCK@@U1@@std@@YA?AU_Nonscalar_ptr_iterator_tag@0@PAUDARKREVAN_ATTACK_BLOCK@@0@Z ENDP ; std::_Ptr_cat<DARKREVAN_ATTACK_BLOCK,DARKREVAN_ATTACK_BLOCK>
_TEXT	ENDS
PUBLIC	??$_Construct@UDARKREVAN_ATTACK_BLOCK@@ABU1@@std@@YAXPAUDARKREVAN_ATTACK_BLOCK@@ABU1@@Z ; std::_Construct<DARKREVAN_ATTACK_BLOCK,DARKREVAN_ATTACK_BLOCK const &>
; Function compile flags: /Ogtp
; File d:\program files (x86)\microsoft visual studio 10.0\vc\include\xmemory
;	COMDAT ??$_Construct@UDARKREVAN_ATTACK_BLOCK@@ABU1@@std@@YAXPAUDARKREVAN_ATTACK_BLOCK@@ABU1@@Z
_TEXT	SEGMENT
__Ptr$ = 8						; size = 4
__Val$ = 12						; size = 4
??$_Construct@UDARKREVAN_ATTACK_BLOCK@@ABU1@@std@@YAXPAUDARKREVAN_ATTACK_BLOCK@@ABU1@@Z PROC ; std::_Construct<DARKREVAN_ATTACK_BLOCK,DARKREVAN_ATTACK_BLOCK const &>, COMDAT

; 46   : 	{	// construct object at _Ptr with value _Val

  00000	55		 push	 ebp
  00001	8b ec		 mov	 ebp, esp

; 47   : 	void _FARQ *_Vptr = _Ptr;
; 48   : 	::new (_Vptr) _Ty1(_STD forward<_Ty2>(_Val));

  00003	8b 45 08	 mov	 eax, DWORD PTR __Ptr$[ebp]
  00006	85 c0		 test	 eax, eax
  00008	74 07		 je	 SHORT $LN3@Construct
  0000a	8b 4d 0c	 mov	 ecx, DWORD PTR __Val$[ebp]
  0000d	8b 11		 mov	 edx, DWORD PTR [ecx]
  0000f	89 10		 mov	 DWORD PTR [eax], edx
$LN3@Construct:

; 49   : 	}

  00011	5d		 pop	 ebp
  00012	c3		 ret	 0
??$_Construct@UDARKREVAN_ATTACK_BLOCK@@ABU1@@std@@YAXPAUDARKREVAN_ATTACK_BLOCK@@ABU1@@Z ENDP ; std::_Construct<DARKREVAN_ATTACK_BLOCK,DARKREVAN_ATTACK_BLOCK const &>
_TEXT	ENDS
PUBLIC	??$move@AAUDARKREVAN_ATTACK_BLOCK@@@std@@YA$$QAUDARKREVAN_ATTACK_BLOCK@@AAU1@@Z ; std::move<DARKREVAN_ATTACK_BLOCK &>
; Function compile flags: /Ogtp
; File d:\program files (x86)\microsoft visual studio 10.0\vc\include\utility
;	COMDAT ??$move@AAUDARKREVAN_ATTACK_BLOCK@@@std@@YA$$QAUDARKREVAN_ATTACK_BLOCK@@AAU1@@Z
_TEXT	SEGMENT
__Arg$ = 8						; size = 4
??$move@AAUDARKREVAN_ATTACK_BLOCK@@@std@@YA$$QAUDARKREVAN_ATTACK_BLOCK@@AAU1@@Z PROC ; std::move<DARKREVAN_ATTACK_BLOCK &>, COMDAT

; 86   : 	{	// forward _Arg as movable

  00000	55		 push	 ebp
  00001	8b ec		 mov	 ebp, esp

; 87   : 	return ((typename tr1::_Remove_reference<_Ty>::_Type&&)_Arg);

  00003	8b 45 08	 mov	 eax, DWORD PTR __Arg$[ebp]

; 88   : 	}

  00006	5d		 pop	 ebp
  00007	c3		 ret	 0
??$move@AAUDARKREVAN_ATTACK_BLOCK@@@std@@YA$$QAUDARKREVAN_ATTACK_BLOCK@@AAU1@@Z ENDP ; std::move<DARKREVAN_ATTACK_BLOCK &>
_TEXT	ENDS
PUBLIC	??$_Val_type@PAUDARKREVAN_ATTACK_BLOCK@@@std@@YAPAUDARKREVAN_ATTACK_BLOCK@@PAU1@@Z ; std::_Val_type<DARKREVAN_ATTACK_BLOCK *>
; Function compile flags: /Ogtp
; File d:\program files (x86)\microsoft visual studio 10.0\vc\include\xutility
;	COMDAT ??$_Val_type@PAUDARKREVAN_ATTACK_BLOCK@@@std@@YAPAUDARKREVAN_ATTACK_BLOCK@@PAU1@@Z
_TEXT	SEGMENT
___formal$ = 8						; size = 4
??$_Val_type@PAUDARKREVAN_ATTACK_BLOCK@@@std@@YAPAUDARKREVAN_ATTACK_BLOCK@@PAU1@@Z PROC ; std::_Val_type<DARKREVAN_ATTACK_BLOCK *>, COMDAT

; 790  : 	return (0);

  00000	33 c0		 xor	 eax, eax

; 791  : 	}

  00002	c3		 ret	 0
??$_Val_type@PAUDARKREVAN_ATTACK_BLOCK@@@std@@YAPAUDARKREVAN_ATTACK_BLOCK@@PAU1@@Z ENDP ; std::_Val_type<DARKREVAN_ATTACK_BLOCK *>
_TEXT	ENDS
PUBLIC	??$_Destroy@UDARKREVAN_ATTACK_BLOCK@@@std@@YAXPAUDARKREVAN_ATTACK_BLOCK@@@Z ; std::_Destroy<DARKREVAN_ATTACK_BLOCK>
; Function compile flags: /Ogtp
; File d:\program files (x86)\microsoft visual studio 10.0\vc\include\xmemory
;	COMDAT ??$_Destroy@UDARKREVAN_ATTACK_BLOCK@@@std@@YAXPAUDARKREVAN_ATTACK_BLOCK@@@Z
_TEXT	SEGMENT
__Ptr$ = 8						; size = 4
??$_Destroy@UDARKREVAN_ATTACK_BLOCK@@@std@@YAXPAUDARKREVAN_ATTACK_BLOCK@@@Z PROC ; std::_Destroy<DARKREVAN_ATTACK_BLOCK>, COMDAT

; 63   : 	_Ptr->~_Ty();
; 64   : 	}

  00000	c3		 ret	 0
??$_Destroy@UDARKREVAN_ATTACK_BLOCK@@@std@@YAXPAUDARKREVAN_ATTACK_BLOCK@@@Z ENDP ; std::_Destroy<DARKREVAN_ATTACK_BLOCK>
_TEXT	ENDS
PUBLIC	??$forward@UDARKREVAN_ATTACK_BLOCK@@@std@@YA$$QAUDARKREVAN_ATTACK_BLOCK@@AAU1@@Z ; std::forward<DARKREVAN_ATTACK_BLOCK>
; Function compile flags: /Ogtp
; File d:\program files (x86)\microsoft visual studio 10.0\vc\include\utility
;	COMDAT ??$forward@UDARKREVAN_ATTACK_BLOCK@@@std@@YA$$QAUDARKREVAN_ATTACK_BLOCK@@AAU1@@Z
_TEXT	SEGMENT
__Arg$ = 8						; size = 4
??$forward@UDARKREVAN_ATTACK_BLOCK@@@std@@YA$$QAUDARKREVAN_ATTACK_BLOCK@@AAU1@@Z PROC ; std::forward<DARKREVAN_ATTACK_BLOCK>, COMDAT

; 78   : 	{	// forward _Arg, given explicitly specified type parameter

  00000	55		 push	 ebp
  00001	8b ec		 mov	 ebp, esp

; 79   : 	return ((_Ty&&)_Arg);

  00003	8b 45 08	 mov	 eax, DWORD PTR __Arg$[ebp]

; 80   : 	}

  00006	5d		 pop	 ebp
  00007	c3		 ret	 0
??$forward@UDARKREVAN_ATTACK_BLOCK@@@std@@YA$$QAUDARKREVAN_ATTACK_BLOCK@@AAU1@@Z ENDP ; std::forward<DARKREVAN_ATTACK_BLOCK>
_TEXT	ENDS
PUBLIC	??_7bad_alloc@std@@6B@				; std::bad_alloc::`vftable'
PUBLIC	??0bad_alloc@std@@QAE@PBD@Z			; std::bad_alloc::bad_alloc
PUBLIC	??_R4bad_alloc@std@@6B@				; std::bad_alloc::`RTTI Complete Object Locator'
PUBLIC	??_R0?AVbad_alloc@std@@@8			; std::bad_alloc `RTTI Type Descriptor'
PUBLIC	??_R3bad_alloc@std@@8				; std::bad_alloc::`RTTI Class Hierarchy Descriptor'
PUBLIC	??_R2bad_alloc@std@@8				; std::bad_alloc::`RTTI Base Class Array'
PUBLIC	??_R1A@?0A@EA@bad_alloc@std@@8			; std::bad_alloc::`RTTI Base Class Descriptor at (0,-1,0,64)'
PUBLIC	??_R1A@?0A@EA@exception@std@@8			; std::exception::`RTTI Base Class Descriptor at (0,-1,0,64)'
PUBLIC	??_R0?AVexception@std@@@8			; std::exception `RTTI Type Descriptor'
PUBLIC	??_R3exception@std@@8				; std::exception::`RTTI Class Hierarchy Descriptor'
PUBLIC	??_R2exception@std@@8				; std::exception::`RTTI Base Class Array'
EXTRN	??0exception@std@@QAE@ABQBD@Z:PROC		; std::exception::exception
EXTRN	??_7type_info@@6B@:QWORD			; type_info::`vftable'
EXTRN	??_Ebad_alloc@std@@UAEPAXI@Z:PROC		; std::bad_alloc::`vector deleting destructor'
EXTRN	?what@exception@std@@UBEPBDXZ:PROC		; std::exception::what
;	COMDAT ??_R2exception@std@@8
; File d:\program files (x86)\microsoft visual studio 10.0\vc\include\exception
rdata$r	SEGMENT
??_R2exception@std@@8 DD FLAT:??_R1A@?0A@EA@exception@std@@8 ; std::exception::`RTTI Base Class Array'
rdata$r	ENDS
;	COMDAT ??_R3exception@std@@8
rdata$r	SEGMENT
??_R3exception@std@@8 DD 00H				; std::exception::`RTTI Class Hierarchy Descriptor'
	DD	00H
	DD	01H
	DD	FLAT:??_R2exception@std@@8
rdata$r	ENDS
;	COMDAT ??_R0?AVexception@std@@@8
_DATA	SEGMENT
??_R0?AVexception@std@@@8 DD FLAT:??_7type_info@@6B@	; std::exception `RTTI Type Descriptor'
	DD	00H
	DB	'.?AVexception@std@@', 00H
_DATA	ENDS
;	COMDAT ??_R1A@?0A@EA@exception@std@@8
rdata$r	SEGMENT
??_R1A@?0A@EA@exception@std@@8 DD FLAT:??_R0?AVexception@std@@@8 ; std::exception::`RTTI Base Class Descriptor at (0,-1,0,64)'
	DD	00H
	DD	00H
	DD	0ffffffffH
	DD	00H
	DD	040H
	DD	FLAT:??_R3exception@std@@8
rdata$r	ENDS
;	COMDAT ??_R1A@?0A@EA@bad_alloc@std@@8
rdata$r	SEGMENT
??_R1A@?0A@EA@bad_alloc@std@@8 DD FLAT:??_R0?AVbad_alloc@std@@@8 ; std::bad_alloc::`RTTI Base Class Descriptor at (0,-1,0,64)'
	DD	01H
	DD	00H
	DD	0ffffffffH
	DD	00H
	DD	040H
	DD	FLAT:??_R3bad_alloc@std@@8
rdata$r	ENDS
;	COMDAT ??_R2bad_alloc@std@@8
rdata$r	SEGMENT
??_R2bad_alloc@std@@8 DD FLAT:??_R1A@?0A@EA@bad_alloc@std@@8 ; std::bad_alloc::`RTTI Base Class Array'
	DD	FLAT:??_R1A@?0A@EA@exception@std@@8
rdata$r	ENDS
;	COMDAT ??_R3bad_alloc@std@@8
rdata$r	SEGMENT
??_R3bad_alloc@std@@8 DD 00H				; std::bad_alloc::`RTTI Class Hierarchy Descriptor'
	DD	00H
	DD	02H
	DD	FLAT:??_R2bad_alloc@std@@8
rdata$r	ENDS
;	COMDAT ??_R0?AVbad_alloc@std@@@8
_DATA	SEGMENT
??_R0?AVbad_alloc@std@@@8 DD FLAT:??_7type_info@@6B@	; std::bad_alloc `RTTI Type Descriptor'
	DD	00H
	DB	'.?AVbad_alloc@std@@', 00H
_DATA	ENDS
;	COMDAT ??_R4bad_alloc@std@@6B@
rdata$r	SEGMENT
??_R4bad_alloc@std@@6B@ DD 00H				; std::bad_alloc::`RTTI Complete Object Locator'
	DD	00H
	DD	00H
	DD	FLAT:??_R0?AVbad_alloc@std@@@8
	DD	FLAT:??_R3bad_alloc@std@@8
rdata$r	ENDS
;	COMDAT ??_7bad_alloc@std@@6B@
CONST	SEGMENT
??_7bad_alloc@std@@6B@ DD FLAT:??_R4bad_alloc@std@@6B@	; std::bad_alloc::`vftable'
	DD	FLAT:??_Ebad_alloc@std@@UAEPAXI@Z
	DD	FLAT:?what@exception@std@@UBEPBDXZ
; Function compile flags: /Ogtp
CONST	ENDS
;	COMDAT ??0bad_alloc@std@@QAE@PBD@Z
_TEXT	SEGMENT
__Message$ = 8						; size = 4
??0bad_alloc@std@@QAE@PBD@Z PROC			; std::bad_alloc::bad_alloc, COMDAT
; _this$ = ecx

; 345  : 		{	// construct from message string

  00000	55		 push	 ebp
  00001	8b ec		 mov	 ebp, esp
  00003	56		 push	 esi
  00004	8d 45 08	 lea	 eax, DWORD PTR __Message$[ebp]
  00007	50		 push	 eax
  00008	8b f1		 mov	 esi, ecx
  0000a	e8 00 00 00 00	 call	 ??0exception@std@@QAE@ABQBD@Z ; std::exception::exception
  0000f	c7 06 00 00 00
	00		 mov	 DWORD PTR [esi], OFFSET ??_7bad_alloc@std@@6B@

; 346  : 		}

  00015	8b c6		 mov	 eax, esi
  00017	5e		 pop	 esi
  00018	5d		 pop	 ebp
  00019	c2 04 00	 ret	 4
??0bad_alloc@std@@QAE@PBD@Z ENDP			; std::bad_alloc::bad_alloc
_TEXT	ENDS
PUBLIC	??1bad_alloc@std@@UAE@XZ			; std::bad_alloc::~bad_alloc
EXTRN	??1exception@std@@UAE@XZ:PROC			; std::exception::~exception
; Function compile flags: /Ogtp
;	COMDAT ??1bad_alloc@std@@UAE@XZ
_TEXT	SEGMENT
??1bad_alloc@std@@UAE@XZ PROC				; std::bad_alloc::~bad_alloc, COMDAT
; _this$ = ecx

; 354  : 		{	// destroy the object

  00000	c7 01 00 00 00
	00		 mov	 DWORD PTR [ecx], OFFSET ??_7bad_alloc@std@@6B@

; 355  : 		}

  00006	e9 00 00 00 00	 jmp	 ??1exception@std@@UAE@XZ ; std::exception::~exception
??1bad_alloc@std@@UAE@XZ ENDP				; std::bad_alloc::~bad_alloc
; Function compile flags: /Ogtp
_TEXT	ENDS
;	COMDAT ??_Gbad_alloc@std@@UAEPAXI@Z
_TEXT	SEGMENT
___flags$ = 8						; size = 4
??_Gbad_alloc@std@@UAEPAXI@Z PROC			; std::bad_alloc::`scalar deleting destructor', COMDAT
; _this$ = ecx
  00000	55		 push	 ebp
  00001	8b ec		 mov	 ebp, esp
  00003	56		 push	 esi
  00004	8b f1		 mov	 esi, ecx
  00006	c7 06 00 00 00
	00		 mov	 DWORD PTR [esi], OFFSET ??_7bad_alloc@std@@6B@
  0000c	e8 00 00 00 00	 call	 ??1exception@std@@UAE@XZ ; std::exception::~exception
  00011	f6 45 08 01	 test	 BYTE PTR ___flags$[ebp], 1
  00015	74 09		 je	 SHORT $LN6@scalar
  00017	56		 push	 esi
  00018	e8 00 00 00 00	 call	 ??3@YAXPAX@Z		; operator delete
  0001d	83 c4 04	 add	 esp, 4
$LN6@scalar:
  00020	8b c6		 mov	 eax, esi
  00022	5e		 pop	 esi
  00023	5d		 pop	 ebp
  00024	c2 04 00	 ret	 4
??_Gbad_alloc@std@@UAEPAXI@Z ENDP			; std::bad_alloc::`scalar deleting destructor'
_TEXT	ENDS
PUBLIC	?_Orphan_all@_Container_base0@std@@QAEXXZ	; std::_Container_base0::_Orphan_all
; Function compile flags: /Ogtp
; File d:\program files (x86)\microsoft visual studio 10.0\vc\include\xutility
;	COMDAT ?_Orphan_all@_Container_base0@std@@QAEXXZ
_TEXT	SEGMENT
?_Orphan_all@_Container_base0@std@@QAEXXZ PROC		; std::_Container_base0::_Orphan_all, COMDAT
; _this$ = ecx

; 38   : 		}

  00000	c3		 ret	 0
?_Orphan_all@_Container_base0@std@@QAEXXZ ENDP		; std::_Container_base0::_Orphan_all
_TEXT	ENDS
PUBLIC	?_Adopt@_Iterator_base0@std@@QAEXPBX@Z		; std::_Iterator_base0::_Adopt
; Function compile flags: /Ogtp
;	COMDAT ?_Adopt@_Iterator_base0@std@@QAEXPBX@Z
_TEXT	SEGMENT
___formal$ = 8						; size = 4
?_Adopt@_Iterator_base0@std@@QAEXPBX@Z PROC		; std::_Iterator_base0::_Adopt, COMDAT
; _this$ = ecx

; 49   : 		}

  00000	c2 04 00	 ret	 4
?_Adopt@_Iterator_base0@std@@QAEXPBX@Z ENDP		; std::_Iterator_base0::_Adopt
_TEXT	ENDS
PUBLIC	??0?$_Vector_val@UDARKREVAN_ATTACK_BLOCK@@V?$allocator@UDARKREVAN_ATTACK_BLOCK@@@std@@@std@@QAE@V?$allocator@UDARKREVAN_ATTACK_BLOCK@@@1@@Z ; std::_Vector_val<DARKREVAN_ATTACK_BLOCK,std::allocator<DARKREVAN_ATTACK_BLOCK> >::_Vector_val<DARKREVAN_ATTACK_BLOCK,std::allocator<DARKREVAN_ATTACK_BLOCK> >
; Function compile flags: /Ogtp
; File d:\program files (x86)\microsoft visual studio 10.0\vc\include\vector
;	COMDAT ??0?$_Vector_val@UDARKREVAN_ATTACK_BLOCK@@V?$allocator@UDARKREVAN_ATTACK_BLOCK@@@std@@@std@@QAE@V?$allocator@UDARKREVAN_ATTACK_BLOCK@@@1@@Z
_TEXT	SEGMENT
__Al$ = 8						; size = 1
??0?$_Vector_val@UDARKREVAN_ATTACK_BLOCK@@V?$allocator@UDARKREVAN_ATTACK_BLOCK@@@std@@@std@@QAE@V?$allocator@UDARKREVAN_ATTACK_BLOCK@@@1@@Z PROC ; std::_Vector_val<DARKREVAN_ATTACK_BLOCK,std::allocator<DARKREVAN_ATTACK_BLOCK> >::_Vector_val<DARKREVAN_ATTACK_BLOCK,std::allocator<DARKREVAN_ATTACK_BLOCK> >, COMDAT
; _this$ = ecx

; 426  : 		{	// construct allocator from _Al

  00000	8b c1		 mov	 eax, ecx

; 427  : 		_Myfirst = 0;

  00002	33 c9		 xor	 ecx, ecx
  00004	89 08		 mov	 DWORD PTR [eax], ecx

; 428  : 		_Mylast = 0;

  00006	89 48 04	 mov	 DWORD PTR [eax+4], ecx

; 429  : 		_Myend = 0;

  00009	89 48 08	 mov	 DWORD PTR [eax+8], ecx

; 430  : 		}

  0000c	c2 04 00	 ret	 4
??0?$_Vector_val@UDARKREVAN_ATTACK_BLOCK@@V?$allocator@UDARKREVAN_ATTACK_BLOCK@@@std@@@std@@QAE@V?$allocator@UDARKREVAN_ATTACK_BLOCK@@@1@@Z ENDP ; std::_Vector_val<DARKREVAN_ATTACK_BLOCK,std::allocator<DARKREVAN_ATTACK_BLOCK> >::_Vector_val<DARKREVAN_ATTACK_BLOCK,std::allocator<DARKREVAN_ATTACK_BLOCK> >
_TEXT	ENDS
PUBLIC	?max_size@?$vector@UDARKREVAN_ATTACK_BLOCK@@V?$allocator@UDARKREVAN_ATTACK_BLOCK@@@std@@@std@@QBEIXZ ; std::vector<DARKREVAN_ATTACK_BLOCK,std::allocator<DARKREVAN_ATTACK_BLOCK> >::max_size
; Function compile flags: /Ogtp
;	COMDAT ?max_size@?$vector@UDARKREVAN_ATTACK_BLOCK@@V?$allocator@UDARKREVAN_ATTACK_BLOCK@@@std@@@std@@QBEIXZ
_TEXT	SEGMENT
?max_size@?$vector@UDARKREVAN_ATTACK_BLOCK@@V?$allocator@UDARKREVAN_ATTACK_BLOCK@@@std@@@std@@QBEIXZ PROC ; std::vector<DARKREVAN_ATTACK_BLOCK,std::allocator<DARKREVAN_ATTACK_BLOCK> >::max_size, COMDAT
; _this$ = ecx

; 884  : 		return (this->_Alval.max_size());

  00000	b8 ff ff ff 3f	 mov	 eax, 1073741823		; 3fffffffH

; 885  : 		}

  00005	c3		 ret	 0
?max_size@?$vector@UDARKREVAN_ATTACK_BLOCK@@V?$allocator@UDARKREVAN_ATTACK_BLOCK@@@std@@@std@@QBEIXZ ENDP ; std::vector<DARKREVAN_ATTACK_BLOCK,std::allocator<DARKREVAN_ATTACK_BLOCK> >::max_size
_TEXT	ENDS
PUBLIC	?_Grow_to@?$vector@UDARKREVAN_ATTACK_BLOCK@@V?$allocator@UDARKREVAN_ATTACK_BLOCK@@@std@@@std@@IBEII@Z ; std::vector<DARKREVAN_ATTACK_BLOCK,std::allocator<DARKREVAN_ATTACK_BLOCK> >::_Grow_to
; Function compile flags: /Ogtp
;	COMDAT ?_Grow_to@?$vector@UDARKREVAN_ATTACK_BLOCK@@V?$allocator@UDARKREVAN_ATTACK_BLOCK@@@std@@@std@@IBEII@Z
_TEXT	SEGMENT
__Count$ = 8						; size = 4
?_Grow_to@?$vector@UDARKREVAN_ATTACK_BLOCK@@V?$allocator@UDARKREVAN_ATTACK_BLOCK@@@std@@@std@@IBEII@Z PROC ; std::vector<DARKREVAN_ATTACK_BLOCK,std::allocator<DARKREVAN_ATTACK_BLOCK> >::_Grow_to, COMDAT
; _this$ = ecx

; 1274 : 		{	// grow by 50% or at least to _Count

  00000	55		 push	 ebp
  00001	8b ec		 mov	 ebp, esp

; 1275 : 		size_type _Capacity = capacity();

  00003	8b 41 08	 mov	 eax, DWORD PTR [ecx+8]
  00006	2b 01		 sub	 eax, DWORD PTR [ecx]

; 1276 : 
; 1277 : 		_Capacity = max_size() - _Capacity / 2 < _Capacity
; 1278 : 			? 0 : _Capacity + _Capacity / 2;	// try to grow by 50%

  00008	ba ff ff ff 3f	 mov	 edx, 1073741823		; 3fffffffH
  0000d	c1 f8 02	 sar	 eax, 2
  00010	8b c8		 mov	 ecx, eax
  00012	d1 e9		 shr	 ecx, 1
  00014	2b d1		 sub	 edx, ecx
  00016	3b d0		 cmp	 edx, eax
  00018	73 04		 jae	 SHORT $LN4@Grow_to
  0001a	33 c0		 xor	 eax, eax
  0001c	eb 02		 jmp	 SHORT $LN5@Grow_to
$LN4@Grow_to:
  0001e	03 c1		 add	 eax, ecx
$LN5@Grow_to:

; 1279 : 		if (_Capacity < _Count)

  00020	8b 4d 08	 mov	 ecx, DWORD PTR __Count$[ebp]
  00023	3b c1		 cmp	 eax, ecx
  00025	73 02		 jae	 SHORT $LN1@Grow_to

; 1280 : 			_Capacity = _Count;
; 1281 : 		return (_Capacity);

  00027	8b c1		 mov	 eax, ecx
$LN1@Grow_to:

; 1282 : 		}

  00029	5d		 pop	 ebp
  0002a	c2 04 00	 ret	 4
?_Grow_to@?$vector@UDARKREVAN_ATTACK_BLOCK@@V?$allocator@UDARKREVAN_ATTACK_BLOCK@@@std@@@std@@IBEII@Z ENDP ; std::vector<DARKREVAN_ATTACK_BLOCK,std::allocator<DARKREVAN_ATTACK_BLOCK> >::_Grow_to
_TEXT	ENDS
PUBLIC	??0?$_Vector_const_iterator@V?$_Vector_val@UDARKREVAN_ATTACK_BLOCK@@V?$allocator@UDARKREVAN_ATTACK_BLOCK@@@std@@@std@@@std@@QAE@PAUDARKREVAN_ATTACK_BLOCK@@PBU_Container_base0@1@@Z ; std::_Vector_const_iterator<std::_Vector_val<DARKREVAN_ATTACK_BLOCK,std::allocator<DARKREVAN_ATTACK_BLOCK> > >::_Vector_const_iterator<std::_Vector_val<DARKREVAN_ATTACK_BLOCK,std::allocator<DARKREVAN_ATTACK_BLOCK> > >
; Function compile flags: /Ogtp
;	COMDAT ??0?$_Vector_const_iterator@V?$_Vector_val@UDARKREVAN_ATTACK_BLOCK@@V?$allocator@UDARKREVAN_ATTACK_BLOCK@@@std@@@std@@@std@@QAE@PAUDARKREVAN_ATTACK_BLOCK@@PBU_Container_base0@1@@Z
_TEXT	SEGMENT
__Parg$ = 8						; size = 4
__Pvector$ = 12						; size = 4
??0?$_Vector_const_iterator@V?$_Vector_val@UDARKREVAN_ATTACK_BLOCK@@V?$allocator@UDARKREVAN_ATTACK_BLOCK@@@std@@@std@@@std@@QAE@PAUDARKREVAN_ATTACK_BLOCK@@PBU_Container_base0@1@@Z PROC ; std::_Vector_const_iterator<std::_Vector_val<DARKREVAN_ATTACK_BLOCK,std::allocator<DARKREVAN_ATTACK_BLOCK> > >::_Vector_const_iterator<std::_Vector_val<DARKREVAN_ATTACK_BLOCK,std::allocator<DARKREVAN_ATTACK_BLOCK> > >, COMDAT
; _this$ = ecx

; 45   : 		{	// construct with pointer _Parg

  00000	55		 push	 ebp
  00001	8b ec		 mov	 ebp, esp
  00003	8b c1		 mov	 eax, ecx
  00005	8b 4d 08	 mov	 ecx, DWORD PTR __Parg$[ebp]
  00008	89 08		 mov	 DWORD PTR [eax], ecx

; 46   : 		this->_Adopt(_Pvector);
; 47   : 		}

  0000a	5d		 pop	 ebp
  0000b	c2 08 00	 ret	 8
??0?$_Vector_const_iterator@V?$_Vector_val@UDARKREVAN_ATTACK_BLOCK@@V?$allocator@UDARKREVAN_ATTACK_BLOCK@@@std@@@std@@@std@@QAE@PAUDARKREVAN_ATTACK_BLOCK@@PBU_Container_base0@1@@Z ENDP ; std::_Vector_const_iterator<std::_Vector_val<DARKREVAN_ATTACK_BLOCK,std::allocator<DARKREVAN_ATTACK_BLOCK> > >::_Vector_const_iterator<std::_Vector_val<DARKREVAN_ATTACK_BLOCK,std::allocator<DARKREVAN_ATTACK_BLOCK> > >
_TEXT	ENDS
PUBLIC	??8?$_Vector_const_iterator@V?$_Vector_val@UDARKREVAN_ATTACK_BLOCK@@V?$allocator@UDARKREVAN_ATTACK_BLOCK@@@std@@@std@@@std@@QBE_NABV01@@Z ; std::_Vector_const_iterator<std::_Vector_val<DARKREVAN_ATTACK_BLOCK,std::allocator<DARKREVAN_ATTACK_BLOCK> > >::operator==
; Function compile flags: /Ogtp
;	COMDAT ??8?$_Vector_const_iterator@V?$_Vector_val@UDARKREVAN_ATTACK_BLOCK@@V?$allocator@UDARKREVAN_ATTACK_BLOCK@@@std@@@std@@@std@@QBE_NABV01@@Z
_TEXT	SEGMENT
__Right$ = 8						; size = 4
??8?$_Vector_const_iterator@V?$_Vector_val@UDARKREVAN_ATTACK_BLOCK@@V?$allocator@UDARKREVAN_ATTACK_BLOCK@@@std@@@std@@@std@@QBE_NABV01@@Z PROC ; std::_Vector_const_iterator<std::_Vector_val<DARKREVAN_ATTACK_BLOCK,std::allocator<DARKREVAN_ATTACK_BLOCK> > >::operator==, COMDAT
; _this$ = ecx

; 201  : 		{	// test for iterator equality

  00000	55		 push	 ebp
  00001	8b ec		 mov	 ebp, esp

; 202  : 		_Compat(_Right);
; 203  : 		return (this->_Ptr == _Right._Ptr);

  00003	8b 01		 mov	 eax, DWORD PTR [ecx]
  00005	8b 55 08	 mov	 edx, DWORD PTR __Right$[ebp]
  00008	33 c9		 xor	 ecx, ecx
  0000a	3b 02		 cmp	 eax, DWORD PTR [edx]
  0000c	0f 94 c0	 sete	 al

; 204  : 		}

  0000f	5d		 pop	 ebp
  00010	c2 04 00	 ret	 4
??8?$_Vector_const_iterator@V?$_Vector_val@UDARKREVAN_ATTACK_BLOCK@@V?$allocator@UDARKREVAN_ATTACK_BLOCK@@@std@@@std@@@std@@QBE_NABV01@@Z ENDP ; std::_Vector_const_iterator<std::_Vector_val<DARKREVAN_ATTACK_BLOCK,std::allocator<DARKREVAN_ATTACK_BLOCK> > >::operator==
_TEXT	ENDS
PUBLIC	??$_Cons_val@V?$allocator@UDARKREVAN_ATTACK_BLOCK@@@std@@UDARKREVAN_ATTACK_BLOCK@@AAU3@@std@@YAXAAV?$allocator@UDARKREVAN_ATTACK_BLOCK@@@0@PAUDARKREVAN_ATTACK_BLOCK@@AAU2@@Z ; std::_Cons_val<std::allocator<DARKREVAN_ATTACK_BLOCK>,DARKREVAN_ATTACK_BLOCK,DARKREVAN_ATTACK_BLOCK &>
; Function compile flags: /Ogtp
; File d:\program files (x86)\microsoft visual studio 10.0\vc\include\xmemory
;	COMDAT ??$_Cons_val@V?$allocator@UDARKREVAN_ATTACK_BLOCK@@@std@@UDARKREVAN_ATTACK_BLOCK@@AAU3@@std@@YAXAAV?$allocator@UDARKREVAN_ATTACK_BLOCK@@@0@PAUDARKREVAN_ATTACK_BLOCK@@AAU2@@Z
_TEXT	SEGMENT
__Alval$ = 8						; size = 4
__Pdest$ = 12						; size = 4
__Src$ = 16						; size = 4
??$_Cons_val@V?$allocator@UDARKREVAN_ATTACK_BLOCK@@@std@@UDARKREVAN_ATTACK_BLOCK@@AAU3@@std@@YAXAAV?$allocator@UDARKREVAN_ATTACK_BLOCK@@@0@PAUDARKREVAN_ATTACK_BLOCK@@AAU2@@Z PROC ; std::_Cons_val<std::allocator<DARKREVAN_ATTACK_BLOCK>,DARKREVAN_ATTACK_BLOCK,DARKREVAN_ATTACK_BLOCK &>, COMDAT

; 279  : 	{	// construct using allocator

  00000	55		 push	 ebp
  00001	8b ec		 mov	 ebp, esp

; 280  : 	_Alval.construct(_Pdest, _STD forward<_Ty2>(_Src));

  00003	8b 45 0c	 mov	 eax, DWORD PTR __Pdest$[ebp]
  00006	85 c0		 test	 eax, eax
  00008	74 07		 je	 SHORT $LN7@Cons_val
  0000a	8b 4d 10	 mov	 ecx, DWORD PTR __Src$[ebp]
  0000d	8b 11		 mov	 edx, DWORD PTR [ecx]
  0000f	89 10		 mov	 DWORD PTR [eax], edx
$LN7@Cons_val:

; 281  : 	}

  00011	5d		 pop	 ebp
  00012	c3		 ret	 0
??$_Cons_val@V?$allocator@UDARKREVAN_ATTACK_BLOCK@@@std@@UDARKREVAN_ATTACK_BLOCK@@AAU3@@std@@YAXAAV?$allocator@UDARKREVAN_ATTACK_BLOCK@@@0@PAUDARKREVAN_ATTACK_BLOCK@@AAU2@@Z ENDP ; std::_Cons_val<std::allocator<DARKREVAN_ATTACK_BLOCK>,DARKREVAN_ATTACK_BLOCK,DARKREVAN_ATTACK_BLOCK &>
_TEXT	ENDS
PUBLIC	__TI2?AVbad_alloc@std@@
PUBLIC	??$_Allocate@UDARKREVAN_ATTACK_BLOCK@@@std@@YAPAUDARKREVAN_ATTACK_BLOCK@@IPAU1@@Z ; std::_Allocate<DARKREVAN_ATTACK_BLOCK>
PUBLIC	__CTA2?AVbad_alloc@std@@
PUBLIC	__CT??_R0?AVbad_alloc@std@@@8??0bad_alloc@std@@QAE@ABV01@@Z12
PUBLIC	??0bad_alloc@std@@QAE@ABV01@@Z			; std::bad_alloc::bad_alloc
PUBLIC	__CT??_R0?AVexception@std@@@8??0exception@std@@QAE@ABV01@@Z12
EXTRN	??2@YAPAXI@Z:PROC				; operator new
EXTRN	__CxxThrowException@8:PROC
EXTRN	??0exception@std@@QAE@ABV01@@Z:PROC		; std::exception::exception
;	COMDAT __CT??_R0?AVexception@std@@@8??0exception@std@@QAE@ABV01@@Z12
; File d:\program files (x86)\microsoft visual studio 10.0\vc\include\exception
xdata$x	SEGMENT
__CT??_R0?AVexception@std@@@8??0exception@std@@QAE@ABV01@@Z12 DD 00H
	DD	FLAT:??_R0?AVexception@std@@@8
	DD	00H
	DD	0ffffffffH
	ORG $+4
	DD	0cH
	DD	FLAT:??0exception@std@@QAE@ABV01@@Z
xdata$x	ENDS
;	COMDAT __CT??_R0?AVbad_alloc@std@@@8??0bad_alloc@std@@QAE@ABV01@@Z12
xdata$x	SEGMENT
__CT??_R0?AVbad_alloc@std@@@8??0bad_alloc@std@@QAE@ABV01@@Z12 DD 00H
	DD	FLAT:??_R0?AVbad_alloc@std@@@8
	DD	00H
	DD	0ffffffffH
	ORG $+4
	DD	0cH
	DD	FLAT:??0bad_alloc@std@@QAE@ABV01@@Z
xdata$x	ENDS
;	COMDAT __CTA2?AVbad_alloc@std@@
xdata$x	SEGMENT
__CTA2?AVbad_alloc@std@@ DD 02H
	DD	FLAT:__CT??_R0?AVbad_alloc@std@@@8??0bad_alloc@std@@QAE@ABV01@@Z12
	DD	FLAT:__CT??_R0?AVexception@std@@@8??0exception@std@@QAE@ABV01@@Z12
xdata$x	ENDS
;	COMDAT __TI2?AVbad_alloc@std@@
xdata$x	SEGMENT
__TI2?AVbad_alloc@std@@ DD 00H
	DD	FLAT:??1bad_alloc@std@@UAE@XZ
	DD	00H
	DD	FLAT:__CTA2?AVbad_alloc@std@@
; Function compile flags: /Ogtp
; File d:\program files (x86)\microsoft visual studio 10.0\vc\include\xmemory
xdata$x	ENDS
;	COMDAT ??$_Allocate@UDARKREVAN_ATTACK_BLOCK@@@std@@YAPAUDARKREVAN_ATTACK_BLOCK@@IPAU1@@Z
_TEXT	SEGMENT
$T210777 = -12						; size = 12
$T210782 = 8						; size = 4
__Count$ = 8						; size = 4
___formal$ = 12						; size = 4
??$_Allocate@UDARKREVAN_ATTACK_BLOCK@@@std@@YAPAUDARKREVAN_ATTACK_BLOCK@@IPAU1@@Z PROC ; std::_Allocate<DARKREVAN_ATTACK_BLOCK>, COMDAT

; 30   : 	{	// allocate storage for _Count elements of type _Ty

  00000	55		 push	 ebp
  00001	8b ec		 mov	 ebp, esp

; 31   : 	void *_Ptr = 0;
; 32   : 
; 33   : 	if (_Count <= 0)

  00003	8b 4d 08	 mov	 ecx, DWORD PTR __Count$[ebp]
  00006	83 ec 0c	 sub	 esp, 12			; 0000000cH
  00009	33 c0		 xor	 eax, eax
  0000b	85 c9		 test	 ecx, ecx

; 34   : 		_Count = 0;
; 35   : 	else if (((_SIZT)(-1) / sizeof (_Ty) < _Count)

  0000d	74 44		 je	 SHORT $LN5@Allocate

; 36   : 		|| (_Ptr = ::operator new(_Count * sizeof (_Ty))) == 0)

  0000f	81 f9 ff ff ff
	3f		 cmp	 ecx, 1073741823		; 3fffffffH
  00015	77 14		 ja	 SHORT $LN1@Allocate
  00017	8d 04 8d 00 00
	00 00		 lea	 eax, DWORD PTR [ecx*4]
  0001e	50		 push	 eax
  0001f	e8 00 00 00 00	 call	 ??2@YAPAXI@Z		; operator new
  00024	83 c4 04	 add	 esp, 4
  00027	85 c0		 test	 eax, eax

; 38   : 
; 39   : 	return ((_Ty _FARQ *)_Ptr);

  00029	75 28		 jne	 SHORT $LN5@Allocate
$LN1@Allocate:

; 37   : 		_THROW_NCEE(bad_alloc, 0);

  0002b	8d 4d 08	 lea	 ecx, DWORD PTR $T210782[ebp]
  0002e	51		 push	 ecx
  0002f	8d 4d f4	 lea	 ecx, DWORD PTR $T210777[ebp]
  00032	c7 45 08 00 00
	00 00		 mov	 DWORD PTR $T210782[ebp], 0
  00039	e8 00 00 00 00	 call	 ??0exception@std@@QAE@ABQBD@Z ; std::exception::exception
  0003e	68 00 00 00 00	 push	 OFFSET __TI2?AVbad_alloc@std@@
  00043	8d 55 f4	 lea	 edx, DWORD PTR $T210777[ebp]
  00046	52		 push	 edx
  00047	c7 45 f4 00 00
	00 00		 mov	 DWORD PTR $T210777[ebp], OFFSET ??_7bad_alloc@std@@6B@
  0004e	e8 00 00 00 00	 call	 __CxxThrowException@8
$LN10@Allocate:
$LN5@Allocate:

; 40   : 	}

  00053	8b e5		 mov	 esp, ebp
  00055	5d		 pop	 ebp
  00056	c3		 ret	 0
$LN9@Allocate:
??$_Allocate@UDARKREVAN_ATTACK_BLOCK@@@std@@YAPAUDARKREVAN_ATTACK_BLOCK@@IPAU1@@Z ENDP ; std::_Allocate<DARKREVAN_ATTACK_BLOCK>
; Function compile flags: /Ogtp
_TEXT	ENDS
;	COMDAT ??0bad_alloc@std@@QAE@ABV01@@Z
_TEXT	SEGMENT
___that$ = 8						; size = 4
??0bad_alloc@std@@QAE@ABV01@@Z PROC			; std::bad_alloc::bad_alloc, COMDAT
; _this$ = ecx
  00000	55		 push	 ebp
  00001	8b ec		 mov	 ebp, esp
  00003	8b 45 08	 mov	 eax, DWORD PTR ___that$[ebp]
  00006	56		 push	 esi
  00007	50		 push	 eax
  00008	8b f1		 mov	 esi, ecx
  0000a	e8 00 00 00 00	 call	 ??0exception@std@@QAE@ABV01@@Z ; std::exception::exception
  0000f	c7 06 00 00 00
	00		 mov	 DWORD PTR [esi], OFFSET ??_7bad_alloc@std@@6B@
  00015	8b c6		 mov	 eax, esi
  00017	5e		 pop	 esi
  00018	5d		 pop	 ebp
  00019	c2 04 00	 ret	 4
??0bad_alloc@std@@QAE@ABV01@@Z ENDP			; std::bad_alloc::bad_alloc
_TEXT	ENDS
PUBLIC	?construct@?$allocator@UDARKREVAN_ATTACK_BLOCK@@@std@@QAEXPAUDARKREVAN_ATTACK_BLOCK@@ABU3@@Z ; std::allocator<DARKREVAN_ATTACK_BLOCK>::construct
; Function compile flags: /Ogtp
;	COMDAT ?construct@?$allocator@UDARKREVAN_ATTACK_BLOCK@@@std@@QAEXPAUDARKREVAN_ATTACK_BLOCK@@ABU3@@Z
_TEXT	SEGMENT
__Ptr$ = 8						; size = 4
__Val$ = 12						; size = 4
?construct@?$allocator@UDARKREVAN_ATTACK_BLOCK@@@std@@QAEXPAUDARKREVAN_ATTACK_BLOCK@@ABU3@@Z PROC ; std::allocator<DARKREVAN_ATTACK_BLOCK>::construct, COMDAT
; _this$ = ecx

; 196  : 		{	// construct object at _Ptr with value _Val

  00000	55		 push	 ebp
  00001	8b ec		 mov	 ebp, esp

; 197  : 		_Construct(_Ptr, _Val);

  00003	8b 45 08	 mov	 eax, DWORD PTR __Ptr$[ebp]
  00006	85 c0		 test	 eax, eax
  00008	74 07		 je	 SHORT $LN5@construct@2
  0000a	8b 4d 0c	 mov	 ecx, DWORD PTR __Val$[ebp]
  0000d	8b 11		 mov	 edx, DWORD PTR [ecx]
  0000f	89 10		 mov	 DWORD PTR [eax], edx
$LN5@construct@2:

; 198  : 		}

  00011	5d		 pop	 ebp
  00012	c2 08 00	 ret	 8
?construct@?$allocator@UDARKREVAN_ATTACK_BLOCK@@@std@@QAEXPAUDARKREVAN_ATTACK_BLOCK@@ABU3@@Z ENDP ; std::allocator<DARKREVAN_ATTACK_BLOCK>::construct
_TEXT	ENDS
PUBLIC	??$_Move@PAUDARKREVAN_ATTACK_BLOCK@@PAU1@@std@@YAPAUDARKREVAN_ATTACK_BLOCK@@PAU1@00U_Nonscalar_ptr_iterator_tag@0@@Z ; std::_Move<DARKREVAN_ATTACK_BLOCK *,DARKREVAN_ATTACK_BLOCK *>
; Function compile flags: /Ogtp
; File d:\program files (x86)\microsoft visual studio 10.0\vc\include\xutility
;	COMDAT ??$_Move@PAUDARKREVAN_ATTACK_BLOCK@@PAU1@@std@@YAPAUDARKREVAN_ATTACK_BLOCK@@PAU1@00U_Nonscalar_ptr_iterator_tag@0@@Z
_TEXT	SEGMENT
__First$ = 8						; size = 4
__Last$ = 12						; size = 4
__Dest$ = 16						; size = 4
___formal$ = 20						; size = 1
??$_Move@PAUDARKREVAN_ATTACK_BLOCK@@PAU1@@std@@YAPAUDARKREVAN_ATTACK_BLOCK@@PAU1@00U_Nonscalar_ptr_iterator_tag@0@@Z PROC ; std::_Move<DARKREVAN_ATTACK_BLOCK *,DARKREVAN_ATTACK_BLOCK *>, COMDAT

; 2512 : 	{	// move [_First, _Last) to [_Dest, ...), arbitrary iterators

  00000	55		 push	 ebp
  00001	8b ec		 mov	 ebp, esp

; 2513 : 	for (; _First != _Last; ++_Dest, ++_First)

  00003	8b 4d 08	 mov	 ecx, DWORD PTR __First$[ebp]
  00006	8b 55 0c	 mov	 edx, DWORD PTR __Last$[ebp]
  00009	8b 45 10	 mov	 eax, DWORD PTR __Dest$[ebp]
  0000c	3b ca		 cmp	 ecx, edx
  0000e	74 10		 je	 SHORT $LN1@Move
  00010	56		 push	 esi
$LL3@Move:

; 2514 : 		*_Dest = _STD move(*_First);

  00011	8b 31		 mov	 esi, DWORD PTR [ecx]
  00013	89 30		 mov	 DWORD PTR [eax], esi
  00015	83 c1 04	 add	 ecx, 4
  00018	83 c0 04	 add	 eax, 4
  0001b	3b ca		 cmp	 ecx, edx
  0001d	75 f2		 jne	 SHORT $LL3@Move
  0001f	5e		 pop	 esi
$LN1@Move:

; 2515 : 	return (_Dest);
; 2516 : 	}

  00020	5d		 pop	 ebp
  00021	c3		 ret	 0
??$_Move@PAUDARKREVAN_ATTACK_BLOCK@@PAU1@@std@@YAPAUDARKREVAN_ATTACK_BLOCK@@PAU1@00U_Nonscalar_ptr_iterator_tag@0@@Z ENDP ; std::_Move<DARKREVAN_ATTACK_BLOCK *,DARKREVAN_ATTACK_BLOCK *>
_TEXT	ENDS
PUBLIC	?destroy@?$allocator@UDARKREVAN_ATTACK_BLOCK@@@std@@QAEXPAUDARKREVAN_ATTACK_BLOCK@@@Z ; std::allocator<DARKREVAN_ATTACK_BLOCK>::destroy
; Function compile flags: /Ogtp
; File d:\program files (x86)\microsoft visual studio 10.0\vc\include\xmemory
;	COMDAT ?destroy@?$allocator@UDARKREVAN_ATTACK_BLOCK@@@std@@QAEXPAUDARKREVAN_ATTACK_BLOCK@@@Z
_TEXT	SEGMENT
__Ptr$ = 8						; size = 4
?destroy@?$allocator@UDARKREVAN_ATTACK_BLOCK@@@std@@QAEXPAUDARKREVAN_ATTACK_BLOCK@@@Z PROC ; std::allocator<DARKREVAN_ATTACK_BLOCK>::destroy, COMDAT
; _this$ = ecx

; 213  : 		_Destroy(_Ptr);
; 214  : 		}

  00000	c2 04 00	 ret	 4
?destroy@?$allocator@UDARKREVAN_ATTACK_BLOCK@@@std@@QAEXPAUDARKREVAN_ATTACK_BLOCK@@@Z ENDP ; std::allocator<DARKREVAN_ATTACK_BLOCK>::destroy
_TEXT	ENDS
PUBLIC	?construct@?$allocator@UDARKREVAN_ATTACK_BLOCK@@@std@@QAEXPAUDARKREVAN_ATTACK_BLOCK@@$$QAU3@@Z ; std::allocator<DARKREVAN_ATTACK_BLOCK>::construct
; Function compile flags: /Ogtp
;	COMDAT ?construct@?$allocator@UDARKREVAN_ATTACK_BLOCK@@@std@@QAEXPAUDARKREVAN_ATTACK_BLOCK@@$$QAU3@@Z
_TEXT	SEGMENT
__Ptr$ = 8						; size = 4
__Val$ = 12						; size = 4
?construct@?$allocator@UDARKREVAN_ATTACK_BLOCK@@@std@@QAEXPAUDARKREVAN_ATTACK_BLOCK@@$$QAU3@@Z PROC ; std::allocator<DARKREVAN_ATTACK_BLOCK>::construct, COMDAT
; _this$ = ecx

; 201  : 		{	// construct object at _Ptr with value _Val

  00000	55		 push	 ebp
  00001	8b ec		 mov	 ebp, esp

; 202  : 		::new ((void _FARQ *)_Ptr) _Ty(_STD forward<_Ty>(_Val));

  00003	8b 45 08	 mov	 eax, DWORD PTR __Ptr$[ebp]
  00006	85 c0		 test	 eax, eax
  00008	74 07		 je	 SHORT $LN3@construct@3
  0000a	8b 4d 0c	 mov	 ecx, DWORD PTR __Val$[ebp]
  0000d	8b 11		 mov	 edx, DWORD PTR [ecx]
  0000f	89 10		 mov	 DWORD PTR [eax], edx
$LN3@construct@3:

; 203  : 		}

  00011	5d		 pop	 ebp
  00012	c2 08 00	 ret	 8
?construct@?$allocator@UDARKREVAN_ATTACK_BLOCK@@@std@@QAEXPAUDARKREVAN_ATTACK_BLOCK@@$$QAU3@@Z ENDP ; std::allocator<DARKREVAN_ATTACK_BLOCK>::construct
_TEXT	ENDS
PUBLIC	??0?$vector@UDARKREVAN_ATTACK_BLOCK@@V?$allocator@UDARKREVAN_ATTACK_BLOCK@@@std@@@std@@QAE@XZ ; std::vector<DARKREVAN_ATTACK_BLOCK,std::allocator<DARKREVAN_ATTACK_BLOCK> >::vector<DARKREVAN_ATTACK_BLOCK,std::allocator<DARKREVAN_ATTACK_BLOCK> >
; Function compile flags: /Ogtp
; File d:\program files (x86)\microsoft visual studio 10.0\vc\include\vector
;	COMDAT ??0?$vector@UDARKREVAN_ATTACK_BLOCK@@V?$allocator@UDARKREVAN_ATTACK_BLOCK@@@std@@@std@@QAE@XZ
_TEXT	SEGMENT
??0?$vector@UDARKREVAN_ATTACK_BLOCK@@V?$allocator@UDARKREVAN_ATTACK_BLOCK@@@std@@@std@@QAE@XZ PROC ; std::vector<DARKREVAN_ATTACK_BLOCK,std::allocator<DARKREVAN_ATTACK_BLOCK> >::vector<DARKREVAN_ATTACK_BLOCK,std::allocator<DARKREVAN_ATTACK_BLOCK> >, COMDAT
; _this$ = ecx

; 507  : 		{	// construct empty vector

  00000	8b c1		 mov	 eax, ecx
  00002	33 c9		 xor	 ecx, ecx
  00004	89 08		 mov	 DWORD PTR [eax], ecx
  00006	89 48 04	 mov	 DWORD PTR [eax+4], ecx
  00009	89 48 08	 mov	 DWORD PTR [eax+8], ecx

; 508  : 		}

  0000c	c3		 ret	 0
??0?$vector@UDARKREVAN_ATTACK_BLOCK@@V?$allocator@UDARKREVAN_ATTACK_BLOCK@@@std@@@std@@QAE@XZ ENDP ; std::vector<DARKREVAN_ATTACK_BLOCK,std::allocator<DARKREVAN_ATTACK_BLOCK> >::vector<DARKREVAN_ATTACK_BLOCK,std::allocator<DARKREVAN_ATTACK_BLOCK> >
_TEXT	ENDS
PUBLIC	??0?$_Vector_iterator@V?$_Vector_val@UDARKREVAN_ATTACK_BLOCK@@V?$allocator@UDARKREVAN_ATTACK_BLOCK@@@std@@@std@@@std@@QAE@PAUDARKREVAN_ATTACK_BLOCK@@PBU_Container_base0@1@@Z ; std::_Vector_iterator<std::_Vector_val<DARKREVAN_ATTACK_BLOCK,std::allocator<DARKREVAN_ATTACK_BLOCK> > >::_Vector_iterator<std::_Vector_val<DARKREVAN_ATTACK_BLOCK,std::allocator<DARKREVAN_ATTACK_BLOCK> > >
; Function compile flags: /Ogtp
;	COMDAT ??0?$_Vector_iterator@V?$_Vector_val@UDARKREVAN_ATTACK_BLOCK@@V?$allocator@UDARKREVAN_ATTACK_BLOCK@@@std@@@std@@@std@@QAE@PAUDARKREVAN_ATTACK_BLOCK@@PBU_Container_base0@1@@Z
_TEXT	SEGMENT
__Parg$ = 8						; size = 4
__Pvector$ = 12						; size = 4
??0?$_Vector_iterator@V?$_Vector_val@UDARKREVAN_ATTACK_BLOCK@@V?$allocator@UDARKREVAN_ATTACK_BLOCK@@@std@@@std@@@std@@QAE@PAUDARKREVAN_ATTACK_BLOCK@@PBU_Container_base0@1@@Z PROC ; std::_Vector_iterator<std::_Vector_val<DARKREVAN_ATTACK_BLOCK,std::allocator<DARKREVAN_ATTACK_BLOCK> > >::_Vector_iterator<std::_Vector_val<DARKREVAN_ATTACK_BLOCK,std::allocator<DARKREVAN_ATTACK_BLOCK> > >, COMDAT
; _this$ = ecx

; 304  : 		{	// construct with pointer _Parg

  00000	55		 push	 ebp
  00001	8b ec		 mov	 ebp, esp
  00003	8b c1		 mov	 eax, ecx
  00005	8b 4d 08	 mov	 ecx, DWORD PTR __Parg$[ebp]
  00008	89 08		 mov	 DWORD PTR [eax], ecx

; 305  : 		}

  0000a	5d		 pop	 ebp
  0000b	c2 08 00	 ret	 8
??0?$_Vector_iterator@V?$_Vector_val@UDARKREVAN_ATTACK_BLOCK@@V?$allocator@UDARKREVAN_ATTACK_BLOCK@@@std@@@std@@@std@@QAE@PAUDARKREVAN_ATTACK_BLOCK@@PBU_Container_base0@1@@Z ENDP ; std::_Vector_iterator<std::_Vector_val<DARKREVAN_ATTACK_BLOCK,std::allocator<DARKREVAN_ATTACK_BLOCK> > >::_Vector_iterator<std::_Vector_val<DARKREVAN_ATTACK_BLOCK,std::allocator<DARKREVAN_ATTACK_BLOCK> > >
_TEXT	ENDS
PUBLIC	??9?$_Vector_const_iterator@V?$_Vector_val@UDARKREVAN_ATTACK_BLOCK@@V?$allocator@UDARKREVAN_ATTACK_BLOCK@@@std@@@std@@@std@@QBE_NABV01@@Z ; std::_Vector_const_iterator<std::_Vector_val<DARKREVAN_ATTACK_BLOCK,std::allocator<DARKREVAN_ATTACK_BLOCK> > >::operator!=
; Function compile flags: /Ogtp
;	COMDAT ??9?$_Vector_const_iterator@V?$_Vector_val@UDARKREVAN_ATTACK_BLOCK@@V?$allocator@UDARKREVAN_ATTACK_BLOCK@@@std@@@std@@@std@@QBE_NABV01@@Z
_TEXT	SEGMENT
__Right$ = 8						; size = 4
??9?$_Vector_const_iterator@V?$_Vector_val@UDARKREVAN_ATTACK_BLOCK@@V?$allocator@UDARKREVAN_ATTACK_BLOCK@@@std@@@std@@@std@@QBE_NABV01@@Z PROC ; std::_Vector_const_iterator<std::_Vector_val<DARKREVAN_ATTACK_BLOCK,std::allocator<DARKREVAN_ATTACK_BLOCK> > >::operator!=, COMDAT
; _this$ = ecx

; 207  : 		{	// test for iterator inequality

  00000	55		 push	 ebp
  00001	8b ec		 mov	 ebp, esp

; 208  : 		return (!(*this == _Right));

  00003	8b 01		 mov	 eax, DWORD PTR [ecx]
  00005	8b 55 08	 mov	 edx, DWORD PTR __Right$[ebp]
  00008	33 c9		 xor	 ecx, ecx
  0000a	3b 02		 cmp	 eax, DWORD PTR [edx]
  0000c	0f 95 c0	 setne	 al

; 209  : 		}

  0000f	5d		 pop	 ebp
  00010	c2 04 00	 ret	 4
??9?$_Vector_const_iterator@V?$_Vector_val@UDARKREVAN_ATTACK_BLOCK@@V?$allocator@UDARKREVAN_ATTACK_BLOCK@@@std@@@std@@@std@@QBE_NABV01@@Z ENDP ; std::_Vector_const_iterator<std::_Vector_val<DARKREVAN_ATTACK_BLOCK,std::allocator<DARKREVAN_ATTACK_BLOCK> > >::operator!=
_TEXT	ENDS
PUBLIC	?allocate@?$allocator@UDARKREVAN_ATTACK_BLOCK@@@std@@QAEPAUDARKREVAN_ATTACK_BLOCK@@I@Z ; std::allocator<DARKREVAN_ATTACK_BLOCK>::allocate
; Function compile flags: /Ogtp
; File d:\program files (x86)\microsoft visual studio 10.0\vc\include\xmemory
;	COMDAT ?allocate@?$allocator@UDARKREVAN_ATTACK_BLOCK@@@std@@QAEPAUDARKREVAN_ATTACK_BLOCK@@I@Z
_TEXT	SEGMENT
$T210891 = -12						; size = 12
$T210883 = 8						; size = 4
__Count$ = 8						; size = 4
?allocate@?$allocator@UDARKREVAN_ATTACK_BLOCK@@@std@@QAEPAUDARKREVAN_ATTACK_BLOCK@@I@Z PROC ; std::allocator<DARKREVAN_ATTACK_BLOCK>::allocate, COMDAT
; _this$ = ecx

; 186  : 		{	// allocate array of _Count elements

  00000	55		 push	 ebp
  00001	8b ec		 mov	 ebp, esp

; 187  : 		return (_Allocate(_Count, (pointer)0));

  00003	8b 4d 08	 mov	 ecx, DWORD PTR __Count$[ebp]
  00006	83 ec 0c	 sub	 esp, 12			; 0000000cH
  00009	33 c0		 xor	 eax, eax
  0000b	85 c9		 test	 ecx, ecx
  0000d	74 44		 je	 SHORT $LN1@allocate
  0000f	81 f9 ff ff ff
	3f		 cmp	 ecx, 1073741823		; 3fffffffH
  00015	77 14		 ja	 SHORT $LN3@allocate
  00017	8d 04 8d 00 00
	00 00		 lea	 eax, DWORD PTR [ecx*4]
  0001e	50		 push	 eax
  0001f	e8 00 00 00 00	 call	 ??2@YAPAXI@Z		; operator new
  00024	83 c4 04	 add	 esp, 4
  00027	85 c0		 test	 eax, eax
  00029	75 28		 jne	 SHORT $LN1@allocate
$LN3@allocate:
  0002b	8d 4d 08	 lea	 ecx, DWORD PTR $T210883[ebp]
  0002e	51		 push	 ecx
  0002f	8d 4d f4	 lea	 ecx, DWORD PTR $T210891[ebp]
  00032	c7 45 08 00 00
	00 00		 mov	 DWORD PTR $T210883[ebp], 0
  00039	e8 00 00 00 00	 call	 ??0exception@std@@QAE@ABQBD@Z ; std::exception::exception
  0003e	68 00 00 00 00	 push	 OFFSET __TI2?AVbad_alloc@std@@
  00043	8d 55 f4	 lea	 edx, DWORD PTR $T210891[ebp]
  00046	52		 push	 edx
  00047	c7 45 f4 00 00
	00 00		 mov	 DWORD PTR $T210891[ebp], OFFSET ??_7bad_alloc@std@@6B@
  0004e	e8 00 00 00 00	 call	 __CxxThrowException@8
$LN13@allocate:
$LN1@allocate:

; 188  : 		}

  00053	8b e5		 mov	 esp, ebp
  00055	5d		 pop	 ebp
  00056	c2 04 00	 ret	 4
$LN12@allocate:
?allocate@?$allocator@UDARKREVAN_ATTACK_BLOCK@@@std@@QAEPAUDARKREVAN_ATTACK_BLOCK@@I@Z ENDP ; std::allocator<DARKREVAN_ATTACK_BLOCK>::allocate
_TEXT	ENDS
PUBLIC	??$_Cons_val@V?$allocator@UDARKREVAN_ATTACK_BLOCK@@@std@@UDARKREVAN_ATTACK_BLOCK@@ABU3@@std@@YAXAAV?$allocator@UDARKREVAN_ATTACK_BLOCK@@@0@PAUDARKREVAN_ATTACK_BLOCK@@ABU2@@Z ; std::_Cons_val<std::allocator<DARKREVAN_ATTACK_BLOCK>,DARKREVAN_ATTACK_BLOCK,DARKREVAN_ATTACK_BLOCK const &>
; Function compile flags: /Ogtp
;	COMDAT ??$_Cons_val@V?$allocator@UDARKREVAN_ATTACK_BLOCK@@@std@@UDARKREVAN_ATTACK_BLOCK@@ABU3@@std@@YAXAAV?$allocator@UDARKREVAN_ATTACK_BLOCK@@@0@PAUDARKREVAN_ATTACK_BLOCK@@ABU2@@Z
_TEXT	SEGMENT
__Alval$ = 8						; size = 4
__Pdest$ = 12						; size = 4
__Src$ = 16						; size = 4
??$_Cons_val@V?$allocator@UDARKREVAN_ATTACK_BLOCK@@@std@@UDARKREVAN_ATTACK_BLOCK@@ABU3@@std@@YAXAAV?$allocator@UDARKREVAN_ATTACK_BLOCK@@@0@PAUDARKREVAN_ATTACK_BLOCK@@ABU2@@Z PROC ; std::_Cons_val<std::allocator<DARKREVAN_ATTACK_BLOCK>,DARKREVAN_ATTACK_BLOCK,DARKREVAN_ATTACK_BLOCK const &>, COMDAT

; 279  : 	{	// construct using allocator

  00000	55		 push	 ebp
  00001	8b ec		 mov	 ebp, esp

; 280  : 	_Alval.construct(_Pdest, _STD forward<_Ty2>(_Src));

  00003	8b 45 0c	 mov	 eax, DWORD PTR __Pdest$[ebp]
  00006	85 c0		 test	 eax, eax
  00008	74 07		 je	 SHORT $LN9@Cons_val@2
  0000a	8b 4d 10	 mov	 ecx, DWORD PTR __Src$[ebp]
  0000d	8b 11		 mov	 edx, DWORD PTR [ecx]
  0000f	89 10		 mov	 DWORD PTR [eax], edx
$LN9@Cons_val@2:

; 281  : 	}

  00011	5d		 pop	 ebp
  00012	c3		 ret	 0
??$_Cons_val@V?$allocator@UDARKREVAN_ATTACK_BLOCK@@@std@@UDARKREVAN_ATTACK_BLOCK@@ABU3@@std@@YAXAAV?$allocator@UDARKREVAN_ATTACK_BLOCK@@@0@PAUDARKREVAN_ATTACK_BLOCK@@ABU2@@Z ENDP ; std::_Cons_val<std::allocator<DARKREVAN_ATTACK_BLOCK>,DARKREVAN_ATTACK_BLOCK,DARKREVAN_ATTACK_BLOCK const &>
_TEXT	ENDS
PUBLIC	??$_Move@PAUDARKREVAN_ATTACK_BLOCK@@PAU1@@std@@YAPAUDARKREVAN_ATTACK_BLOCK@@PAU1@00@Z ; std::_Move<DARKREVAN_ATTACK_BLOCK *,DARKREVAN_ATTACK_BLOCK *>
; Function compile flags: /Ogtp
; File d:\program files (x86)\microsoft visual studio 10.0\vc\include\xutility
;	COMDAT ??$_Move@PAUDARKREVAN_ATTACK_BLOCK@@PAU1@@std@@YAPAUDARKREVAN_ATTACK_BLOCK@@PAU1@00@Z
_TEXT	SEGMENT
__First$ = 8						; size = 4
__Last$ = 12						; size = 4
__Dest$ = 16						; size = 4
??$_Move@PAUDARKREVAN_ATTACK_BLOCK@@PAU1@@std@@YAPAUDARKREVAN_ATTACK_BLOCK@@PAU1@00@Z PROC ; std::_Move<DARKREVAN_ATTACK_BLOCK *,DARKREVAN_ATTACK_BLOCK *>, COMDAT

; 2533 : 	{	// move [_First, _Last) to [_Dest, ...), unchecked

  00000	55		 push	 ebp
  00001	8b ec		 mov	 ebp, esp

; 2534 : 	return (_Move(_First, _Last,
; 2535 : 		_Dest, _Ptr_cat(_First, _Dest)));

  00003	8b 4d 08	 mov	 ecx, DWORD PTR __First$[ebp]
  00006	8b 55 0c	 mov	 edx, DWORD PTR __Last$[ebp]
  00009	8b 45 10	 mov	 eax, DWORD PTR __Dest$[ebp]
  0000c	3b ca		 cmp	 ecx, edx
  0000e	74 10		 je	 SHORT $LN5@Move@2
  00010	56		 push	 esi
$LL7@Move@2:
  00011	8b 31		 mov	 esi, DWORD PTR [ecx]
  00013	89 30		 mov	 DWORD PTR [eax], esi
  00015	83 c1 04	 add	 ecx, 4
  00018	83 c0 04	 add	 eax, 4
  0001b	3b ca		 cmp	 ecx, edx
  0001d	75 f2		 jne	 SHORT $LL7@Move@2
  0001f	5e		 pop	 esi
$LN5@Move@2:

; 2536 : 	}

  00020	5d		 pop	 ebp
  00021	c3		 ret	 0
??$_Move@PAUDARKREVAN_ATTACK_BLOCK@@PAU1@@std@@YAPAUDARKREVAN_ATTACK_BLOCK@@PAU1@00@Z ENDP ; std::_Move<DARKREVAN_ATTACK_BLOCK *,DARKREVAN_ATTACK_BLOCK *>
_TEXT	ENDS
PUBLIC	??$_Dest_val@V?$allocator@UDARKREVAN_ATTACK_BLOCK@@@std@@UDARKREVAN_ATTACK_BLOCK@@@std@@YAXAAV?$allocator@UDARKREVAN_ATTACK_BLOCK@@@0@PAUDARKREVAN_ATTACK_BLOCK@@@Z ; std::_Dest_val<std::allocator<DARKREVAN_ATTACK_BLOCK>,DARKREVAN_ATTACK_BLOCK>
; Function compile flags: /Ogtp
; File d:\program files (x86)\microsoft visual studio 10.0\vc\include\xmemory
;	COMDAT ??$_Dest_val@V?$allocator@UDARKREVAN_ATTACK_BLOCK@@@std@@UDARKREVAN_ATTACK_BLOCK@@@std@@YAXAAV?$allocator@UDARKREVAN_ATTACK_BLOCK@@@0@PAUDARKREVAN_ATTACK_BLOCK@@@Z
_TEXT	SEGMENT
__Alval$ = 8						; size = 4
__Pdest$ = 12						; size = 4
??$_Dest_val@V?$allocator@UDARKREVAN_ATTACK_BLOCK@@@std@@UDARKREVAN_ATTACK_BLOCK@@@std@@YAXAAV?$allocator@UDARKREVAN_ATTACK_BLOCK@@@0@PAUDARKREVAN_ATTACK_BLOCK@@@Z PROC ; std::_Dest_val<std::allocator<DARKREVAN_ATTACK_BLOCK>,DARKREVAN_ATTACK_BLOCK>, COMDAT

; 287  : 	_Alval.destroy(_Pdest);
; 288  : 	}

  00000	c3		 ret	 0
??$_Dest_val@V?$allocator@UDARKREVAN_ATTACK_BLOCK@@@std@@UDARKREVAN_ATTACK_BLOCK@@@std@@YAXAAV?$allocator@UDARKREVAN_ATTACK_BLOCK@@@0@PAUDARKREVAN_ATTACK_BLOCK@@@Z ENDP ; std::_Dest_val<std::allocator<DARKREVAN_ATTACK_BLOCK>,DARKREVAN_ATTACK_BLOCK>
_TEXT	ENDS
PUBLIC	??$_Cons_val@V?$allocator@UDARKREVAN_ATTACK_BLOCK@@@std@@UDARKREVAN_ATTACK_BLOCK@@U3@@std@@YAXAAV?$allocator@UDARKREVAN_ATTACK_BLOCK@@@0@PAUDARKREVAN_ATTACK_BLOCK@@$$QAU2@@Z ; std::_Cons_val<std::allocator<DARKREVAN_ATTACK_BLOCK>,DARKREVAN_ATTACK_BLOCK,DARKREVAN_ATTACK_BLOCK>
; Function compile flags: /Ogtp
;	COMDAT ??$_Cons_val@V?$allocator@UDARKREVAN_ATTACK_BLOCK@@@std@@UDARKREVAN_ATTACK_BLOCK@@U3@@std@@YAXAAV?$allocator@UDARKREVAN_ATTACK_BLOCK@@@0@PAUDARKREVAN_ATTACK_BLOCK@@$$QAU2@@Z
_TEXT	SEGMENT
__Alval$ = 8						; size = 4
__Pdest$ = 12						; size = 4
__Src$ = 16						; size = 4
??$_Cons_val@V?$allocator@UDARKREVAN_ATTACK_BLOCK@@@std@@UDARKREVAN_ATTACK_BLOCK@@U3@@std@@YAXAAV?$allocator@UDARKREVAN_ATTACK_BLOCK@@@0@PAUDARKREVAN_ATTACK_BLOCK@@$$QAU2@@Z PROC ; std::_Cons_val<std::allocator<DARKREVAN_ATTACK_BLOCK>,DARKREVAN_ATTACK_BLOCK,DARKREVAN_ATTACK_BLOCK>, COMDAT

; 279  : 	{	// construct using allocator

  00000	55		 push	 ebp
  00001	8b ec		 mov	 ebp, esp

; 280  : 	_Alval.construct(_Pdest, _STD forward<_Ty2>(_Src));

  00003	8b 45 0c	 mov	 eax, DWORD PTR __Pdest$[ebp]
  00006	85 c0		 test	 eax, eax
  00008	74 07		 je	 SHORT $LN7@Cons_val@3
  0000a	8b 4d 10	 mov	 ecx, DWORD PTR __Src$[ebp]
  0000d	8b 11		 mov	 edx, DWORD PTR [ecx]
  0000f	89 10		 mov	 DWORD PTR [eax], edx
$LN7@Cons_val@3:

; 281  : 	}

  00011	5d		 pop	 ebp
  00012	c3		 ret	 0
??$_Cons_val@V?$allocator@UDARKREVAN_ATTACK_BLOCK@@@std@@UDARKREVAN_ATTACK_BLOCK@@U3@@std@@YAXAAV?$allocator@UDARKREVAN_ATTACK_BLOCK@@@0@PAUDARKREVAN_ATTACK_BLOCK@@$$QAU2@@Z ENDP ; std::_Cons_val<std::allocator<DARKREVAN_ATTACK_BLOCK>,DARKREVAN_ATTACK_BLOCK,DARKREVAN_ATTACK_BLOCK>
_TEXT	ENDS
PUBLIC	?begin@?$vector@UDARKREVAN_ATTACK_BLOCK@@V?$allocator@UDARKREVAN_ATTACK_BLOCK@@@std@@@std@@QAE?AV?$_Vector_iterator@V?$_Vector_val@UDARKREVAN_ATTACK_BLOCK@@V?$allocator@UDARKREVAN_ATTACK_BLOCK@@@std@@@std@@@2@XZ ; std::vector<DARKREVAN_ATTACK_BLOCK,std::allocator<DARKREVAN_ATTACK_BLOCK> >::begin
; Function compile flags: /Ogtp
; File d:\program files (x86)\microsoft visual studio 10.0\vc\include\vector
;	COMDAT ?begin@?$vector@UDARKREVAN_ATTACK_BLOCK@@V?$allocator@UDARKREVAN_ATTACK_BLOCK@@@std@@@std@@QAE?AV?$_Vector_iterator@V?$_Vector_val@UDARKREVAN_ATTACK_BLOCK@@V?$allocator@UDARKREVAN_ATTACK_BLOCK@@@std@@@std@@@2@XZ
_TEXT	SEGMENT
___$ReturnUdt$ = 8					; size = 4
?begin@?$vector@UDARKREVAN_ATTACK_BLOCK@@V?$allocator@UDARKREVAN_ATTACK_BLOCK@@@std@@@std@@QAE?AV?$_Vector_iterator@V?$_Vector_val@UDARKREVAN_ATTACK_BLOCK@@V?$allocator@UDARKREVAN_ATTACK_BLOCK@@@std@@@std@@@2@XZ PROC ; std::vector<DARKREVAN_ATTACK_BLOCK,std::allocator<DARKREVAN_ATTACK_BLOCK> >::begin, COMDAT
; _this$ = ecx

; 781  : 		{	// return iterator for beginning of mutable sequence

  00000	55		 push	 ebp
  00001	8b ec		 mov	 ebp, esp

; 782  : 		return (iterator(this->_Myfirst, this));

  00003	8b 09		 mov	 ecx, DWORD PTR [ecx]
  00005	8b 45 08	 mov	 eax, DWORD PTR ___$ReturnUdt$[ebp]
  00008	89 08		 mov	 DWORD PTR [eax], ecx

; 783  : 		}

  0000a	5d		 pop	 ebp
  0000b	c2 04 00	 ret	 4
?begin@?$vector@UDARKREVAN_ATTACK_BLOCK@@V?$allocator@UDARKREVAN_ATTACK_BLOCK@@@std@@@std@@QAE?AV?$_Vector_iterator@V?$_Vector_val@UDARKREVAN_ATTACK_BLOCK@@V?$allocator@UDARKREVAN_ATTACK_BLOCK@@@std@@@std@@@2@XZ ENDP ; std::vector<DARKREVAN_ATTACK_BLOCK,std::allocator<DARKREVAN_ATTACK_BLOCK> >::begin
_TEXT	ENDS
PUBLIC	?end@?$vector@UDARKREVAN_ATTACK_BLOCK@@V?$allocator@UDARKREVAN_ATTACK_BLOCK@@@std@@@std@@QAE?AV?$_Vector_iterator@V?$_Vector_val@UDARKREVAN_ATTACK_BLOCK@@V?$allocator@UDARKREVAN_ATTACK_BLOCK@@@std@@@std@@@2@XZ ; std::vector<DARKREVAN_ATTACK_BLOCK,std::allocator<DARKREVAN_ATTACK_BLOCK> >::end
; Function compile flags: /Ogtp
;	COMDAT ?end@?$vector@UDARKREVAN_ATTACK_BLOCK@@V?$allocator@UDARKREVAN_ATTACK_BLOCK@@@std@@@std@@QAE?AV?$_Vector_iterator@V?$_Vector_val@UDARKREVAN_ATTACK_BLOCK@@V?$allocator@UDARKREVAN_ATTACK_BLOCK@@@std@@@std@@@2@XZ
_TEXT	SEGMENT
___$ReturnUdt$ = 8					; size = 4
?end@?$vector@UDARKREVAN_ATTACK_BLOCK@@V?$allocator@UDARKREVAN_ATTACK_BLOCK@@@std@@@std@@QAE?AV?$_Vector_iterator@V?$_Vector_val@UDARKREVAN_ATTACK_BLOCK@@V?$allocator@UDARKREVAN_ATTACK_BLOCK@@@std@@@std@@@2@XZ PROC ; std::vector<DARKREVAN_ATTACK_BLOCK,std::allocator<DARKREVAN_ATTACK_BLOCK> >::end, COMDAT
; _this$ = ecx

; 791  : 		{	// return iterator for end of mutable sequence

  00000	55		 push	 ebp
  00001	8b ec		 mov	 ebp, esp

; 792  : 		return (iterator(this->_Mylast, this));

  00003	8b 49 04	 mov	 ecx, DWORD PTR [ecx+4]
  00006	8b 45 08	 mov	 eax, DWORD PTR ___$ReturnUdt$[ebp]
  00009	89 08		 mov	 DWORD PTR [eax], ecx

; 793  : 		}

  0000b	5d		 pop	 ebp
  0000c	c2 04 00	 ret	 4
?end@?$vector@UDARKREVAN_ATTACK_BLOCK@@V?$allocator@UDARKREVAN_ATTACK_BLOCK@@@std@@@std@@QAE?AV?$_Vector_iterator@V?$_Vector_val@UDARKREVAN_ATTACK_BLOCK@@V?$allocator@UDARKREVAN_ATTACK_BLOCK@@@std@@@std@@@2@XZ ENDP ; std::vector<DARKREVAN_ATTACK_BLOCK,std::allocator<DARKREVAN_ATTACK_BLOCK> >::end
_TEXT	ENDS
PUBLIC	?_Make_iter@?$vector@UDARKREVAN_ATTACK_BLOCK@@V?$allocator@UDARKREVAN_ATTACK_BLOCK@@@std@@@std@@QBE?AV?$_Vector_iterator@V?$_Vector_val@UDARKREVAN_ATTACK_BLOCK@@V?$allocator@UDARKREVAN_ATTACK_BLOCK@@@std@@@std@@@2@V?$_Vector_const_iterator@V?$_Vector_val@UDARKREVAN_ATTACK_BLOCK@@V?$allocator@UDARKREVAN_ATTACK_BLOCK@@@std@@@std@@@2@@Z ; std::vector<DARKREVAN_ATTACK_BLOCK,std::allocator<DARKREVAN_ATTACK_BLOCK> >::_Make_iter
; Function compile flags: /Ogtp
;	COMDAT ?_Make_iter@?$vector@UDARKREVAN_ATTACK_BLOCK@@V?$allocator@UDARKREVAN_ATTACK_BLOCK@@@std@@@std@@QBE?AV?$_Vector_iterator@V?$_Vector_val@UDARKREVAN_ATTACK_BLOCK@@V?$allocator@UDARKREVAN_ATTACK_BLOCK@@@std@@@std@@@2@V?$_Vector_const_iterator@V?$_Vector_val@UDARKREVAN_ATTACK_BLOCK@@V?$allocator@UDARKREVAN_ATTACK_BLOCK@@@std@@@std@@@2@@Z
_TEXT	SEGMENT
___$ReturnUdt$ = 8					; size = 4
__Where$ = 12						; size = 4
?_Make_iter@?$vector@UDARKREVAN_ATTACK_BLOCK@@V?$allocator@UDARKREVAN_ATTACK_BLOCK@@@std@@@std@@QBE?AV?$_Vector_iterator@V?$_Vector_val@UDARKREVAN_ATTACK_BLOCK@@V?$allocator@UDARKREVAN_ATTACK_BLOCK@@@std@@@std@@@2@V?$_Vector_const_iterator@V?$_Vector_val@UDARKREVAN_ATTACK_BLOCK@@V?$allocator@UDARKREVAN_ATTACK_BLOCK@@@std@@@std@@@2@@Z PROC ; std::vector<DARKREVAN_ATTACK_BLOCK,std::allocator<DARKREVAN_ATTACK_BLOCK> >::_Make_iter, COMDAT
; _this$ = ecx

; 801  : 		{	// make iterator from const_iterator

  00000	55		 push	 ebp
  00001	8b ec		 mov	 ebp, esp

; 802  : 		return (iterator(_Where._Ptr, this));

  00003	8b 45 08	 mov	 eax, DWORD PTR ___$ReturnUdt$[ebp]
  00006	8b 4d 0c	 mov	 ecx, DWORD PTR __Where$[ebp]
  00009	89 08		 mov	 DWORD PTR [eax], ecx

; 803  : 		}

  0000b	5d		 pop	 ebp
  0000c	c2 08 00	 ret	 8
?_Make_iter@?$vector@UDARKREVAN_ATTACK_BLOCK@@V?$allocator@UDARKREVAN_ATTACK_BLOCK@@@std@@@std@@QBE?AV?$_Vector_iterator@V?$_Vector_val@UDARKREVAN_ATTACK_BLOCK@@V?$allocator@UDARKREVAN_ATTACK_BLOCK@@@std@@@std@@@2@V?$_Vector_const_iterator@V?$_Vector_val@UDARKREVAN_ATTACK_BLOCK@@V?$allocator@UDARKREVAN_ATTACK_BLOCK@@@std@@@std@@@2@@Z ENDP ; std::vector<DARKREVAN_ATTACK_BLOCK,std::allocator<DARKREVAN_ATTACK_BLOCK> >::_Make_iter
_TEXT	ENDS
PUBLIC	??$_Destroy_range@V?$allocator@UDARKREVAN_ATTACK_BLOCK@@@std@@@std@@YAXPAUDARKREVAN_ATTACK_BLOCK@@0AAV?$allocator@UDARKREVAN_ATTACK_BLOCK@@@0@U_Nonscalar_ptr_iterator_tag@0@@Z ; std::_Destroy_range<std::allocator<DARKREVAN_ATTACK_BLOCK> >
; Function compile flags: /Ogtp
; File d:\program files (x86)\microsoft visual studio 10.0\vc\include\xmemory
;	COMDAT ??$_Destroy_range@V?$allocator@UDARKREVAN_ATTACK_BLOCK@@@std@@@std@@YAXPAUDARKREVAN_ATTACK_BLOCK@@0AAV?$allocator@UDARKREVAN_ATTACK_BLOCK@@@0@U_Nonscalar_ptr_iterator_tag@0@@Z
_TEXT	SEGMENT
__First$ = 8						; size = 4
__Last$ = 12						; size = 4
__Al$ = 16						; size = 4
___formal$ = 20						; size = 1
??$_Destroy_range@V?$allocator@UDARKREVAN_ATTACK_BLOCK@@@std@@@std@@YAXPAUDARKREVAN_ATTACK_BLOCK@@0AAV?$allocator@UDARKREVAN_ATTACK_BLOCK@@@0@U_Nonscalar_ptr_iterator_tag@0@@Z PROC ; std::_Destroy_range<std::allocator<DARKREVAN_ATTACK_BLOCK> >, COMDAT

; 96   : 	for (; _First != _Last; ++_First)
; 97   : 		_Dest_val(_Al, _First);
; 98   : 	}

  00000	c3		 ret	 0
??$_Destroy_range@V?$allocator@UDARKREVAN_ATTACK_BLOCK@@@std@@@std@@YAXPAUDARKREVAN_ATTACK_BLOCK@@0AAV?$allocator@UDARKREVAN_ATTACK_BLOCK@@@0@U_Nonscalar_ptr_iterator_tag@0@@Z ENDP ; std::_Destroy_range<std::allocator<DARKREVAN_ATTACK_BLOCK> >
_TEXT	ENDS
PUBLIC	??$_Uninit_move@PAUDARKREVAN_ATTACK_BLOCK@@PAU1@V?$allocator@UDARKREVAN_ATTACK_BLOCK@@@std@@U1@@std@@YAPAUDARKREVAN_ATTACK_BLOCK@@PAU1@00AAV?$allocator@UDARKREVAN_ATTACK_BLOCK@@@0@0U_Nonscalar_ptr_iterator_tag@0@@Z ; std::_Uninit_move<DARKREVAN_ATTACK_BLOCK *,DARKREVAN_ATTACK_BLOCK *,std::allocator<DARKREVAN_ATTACK_BLOCK>,DARKREVAN_ATTACK_BLOCK>
; Function compile flags: /Ogtp
; File d:\program files (x86)\microsoft visual studio 10.0\vc\include\memory
;	COMDAT ??$_Uninit_move@PAUDARKREVAN_ATTACK_BLOCK@@PAU1@V?$allocator@UDARKREVAN_ATTACK_BLOCK@@@std@@U1@@std@@YAPAUDARKREVAN_ATTACK_BLOCK@@PAU1@00AAV?$allocator@UDARKREVAN_ATTACK_BLOCK@@@0@0U_Nonscalar_ptr_iterator_tag@0@@Z
_TEXT	SEGMENT
__First$ = 8						; size = 4
__Last$ = 12						; size = 4
__Dest$ = 16						; size = 4
__Al$ = 20						; size = 4
___formal$ = 24						; size = 4
___formal$ = 28						; size = 1
??$_Uninit_move@PAUDARKREVAN_ATTACK_BLOCK@@PAU1@V?$allocator@UDARKREVAN_ATTACK_BLOCK@@@std@@U1@@std@@YAPAUDARKREVAN_ATTACK_BLOCK@@PAU1@00AAV?$allocator@UDARKREVAN_ATTACK_BLOCK@@@0@0U_Nonscalar_ptr_iterator_tag@0@@Z PROC ; std::_Uninit_move<DARKREVAN_ATTACK_BLOCK *,DARKREVAN_ATTACK_BLOCK *,std::allocator<DARKREVAN_ATTACK_BLOCK>,DARKREVAN_ATTACK_BLOCK>, COMDAT

; 424  : 	{	// move [_First, _Last) to raw _Dest, using _Al, arbitrary type

  00000	55		 push	 ebp
  00001	8b ec		 mov	 ebp, esp
  00003	53		 push	 ebx

; 425  : 	_DEBUG_RANGE(_First, _Last);
; 426  : 	_DEBUG_POINTER(_Dest);
; 427  : 	_FwdIt _Next = _Dest;
; 428  : 
; 429  : 	_TRY_BEGIN
; 430  : 	for (; _First != _Last; ++_Dest, ++_First)

  00004	8b 5d 0c	 mov	 ebx, DWORD PTR __Last$[ebp]
  00007	56		 push	 esi
  00008	8b 75 08	 mov	 esi, DWORD PTR __First$[ebp]
  0000b	3b f3		 cmp	 esi, ebx
  0000d	74 23		 je	 SHORT $LN17@Uninit_mov
  0000f	57		 push	 edi
  00010	8b 7d 10	 mov	 edi, DWORD PTR __Dest$[ebp]
$LL6@Uninit_mov:

; 431  : 		_Cons_val(_Al, _Dest, (_Valty &&)*_First);

  00013	8b 45 14	 mov	 eax, DWORD PTR __Al$[ebp]
  00016	56		 push	 esi
  00017	57		 push	 edi
  00018	50		 push	 eax
  00019	e8 00 00 00 00	 call	 ??$_Cons_val@V?$allocator@UDARKREVAN_ATTACK_BLOCK@@@std@@UDARKREVAN_ATTACK_BLOCK@@U3@@std@@YAXAAV?$allocator@UDARKREVAN_ATTACK_BLOCK@@@0@PAUDARKREVAN_ATTACK_BLOCK@@$$QAU2@@Z ; std::_Cons_val<std::allocator<DARKREVAN_ATTACK_BLOCK>,DARKREVAN_ATTACK_BLOCK,DARKREVAN_ATTACK_BLOCK>
  0001e	83 c6 04	 add	 esi, 4
  00021	83 c4 0c	 add	 esp, 12			; 0000000cH
  00024	83 c7 04	 add	 edi, 4
  00027	3b f3		 cmp	 esi, ebx
  00029	75 e8		 jne	 SHORT $LL6@Uninit_mov

; 432  : 	_CATCH_ALL
; 433  : 	for (; _Next != _Dest; ++_Next)
; 434  : 		_Dest_val(_Al, _Next);
; 435  : 	_RERAISE;
; 436  : 	_CATCH_END
; 437  : 	return (_Dest);

  0002b	8b c7		 mov	 eax, edi
  0002d	5f		 pop	 edi
  0002e	5e		 pop	 esi
  0002f	5b		 pop	 ebx

; 438  : 	}

  00030	5d		 pop	 ebp
  00031	c3		 ret	 0
$LN17@Uninit_mov:

; 432  : 	_CATCH_ALL
; 433  : 	for (; _Next != _Dest; ++_Next)
; 434  : 		_Dest_val(_Al, _Next);
; 435  : 	_RERAISE;
; 436  : 	_CATCH_END
; 437  : 	return (_Dest);

  00032	8b 45 10	 mov	 eax, DWORD PTR __Dest$[ebp]
  00035	5e		 pop	 esi
  00036	5b		 pop	 ebx

; 438  : 	}

  00037	5d		 pop	 ebp
  00038	c3		 ret	 0
??$_Uninit_move@PAUDARKREVAN_ATTACK_BLOCK@@PAU1@V?$allocator@UDARKREVAN_ATTACK_BLOCK@@@std@@U1@@std@@YAPAUDARKREVAN_ATTACK_BLOCK@@PAU1@00AAV?$allocator@UDARKREVAN_ATTACK_BLOCK@@@0@0U_Nonscalar_ptr_iterator_tag@0@@Z ENDP ; std::_Uninit_move<DARKREVAN_ATTACK_BLOCK *,DARKREVAN_ATTACK_BLOCK *,std::allocator<DARKREVAN_ATTACK_BLOCK>,DARKREVAN_ATTACK_BLOCK>
_TEXT	ENDS
PUBLIC	??$_Destroy_range@V?$allocator@UDARKREVAN_ATTACK_BLOCK@@@std@@@std@@YAXPAUDARKREVAN_ATTACK_BLOCK@@0AAV?$allocator@UDARKREVAN_ATTACK_BLOCK@@@0@@Z ; std::_Destroy_range<std::allocator<DARKREVAN_ATTACK_BLOCK> >
; Function compile flags: /Ogtp
; File d:\program files (x86)\microsoft visual studio 10.0\vc\include\xmemory
;	COMDAT ??$_Destroy_range@V?$allocator@UDARKREVAN_ATTACK_BLOCK@@@std@@@std@@YAXPAUDARKREVAN_ATTACK_BLOCK@@0AAV?$allocator@UDARKREVAN_ATTACK_BLOCK@@@0@@Z
_TEXT	SEGMENT
__First$ = 8						; size = 4
__Last$ = 12						; size = 4
__Al$ = 16						; size = 4
??$_Destroy_range@V?$allocator@UDARKREVAN_ATTACK_BLOCK@@@std@@@std@@YAXPAUDARKREVAN_ATTACK_BLOCK@@0AAV?$allocator@UDARKREVAN_ATTACK_BLOCK@@@0@@Z PROC ; std::_Destroy_range<std::allocator<DARKREVAN_ATTACK_BLOCK> >, COMDAT

; 88   : 	_Destroy_range(_First, _Last, _Al, _Ptr_cat(_First, _Last));
; 89   : 	}

  00000	c3		 ret	 0
??$_Destroy_range@V?$allocator@UDARKREVAN_ATTACK_BLOCK@@@std@@@std@@YAXPAUDARKREVAN_ATTACK_BLOCK@@0AAV?$allocator@UDARKREVAN_ATTACK_BLOCK@@@0@@Z ENDP ; std::_Destroy_range<std::allocator<DARKREVAN_ATTACK_BLOCK> >
_TEXT	ENDS
PUBLIC	??$_Uninitialized_move@PAUDARKREVAN_ATTACK_BLOCK@@PAU1@V?$allocator@UDARKREVAN_ATTACK_BLOCK@@@std@@@std@@YAPAUDARKREVAN_ATTACK_BLOCK@@PAU1@00AAV?$allocator@UDARKREVAN_ATTACK_BLOCK@@@0@@Z ; std::_Uninitialized_move<DARKREVAN_ATTACK_BLOCK *,DARKREVAN_ATTACK_BLOCK *,std::allocator<DARKREVAN_ATTACK_BLOCK> >
; Function compile flags: /Ogtp
; File d:\program files (x86)\microsoft visual studio 10.0\vc\include\memory
;	COMDAT ??$_Uninitialized_move@PAUDARKREVAN_ATTACK_BLOCK@@PAU1@V?$allocator@UDARKREVAN_ATTACK_BLOCK@@@std@@@std@@YAPAUDARKREVAN_ATTACK_BLOCK@@PAU1@00AAV?$allocator@UDARKREVAN_ATTACK_BLOCK@@@0@@Z
_TEXT	SEGMENT
__Cat$211078 = -4					; size = 1
__First$ = 8						; size = 4
__Last$ = 12						; size = 4
__Dest$ = 16						; size = 4
__Al$ = 20						; size = 4
??$_Uninitialized_move@PAUDARKREVAN_ATTACK_BLOCK@@PAU1@V?$allocator@UDARKREVAN_ATTACK_BLOCK@@@std@@@std@@YAPAUDARKREVAN_ATTACK_BLOCK@@PAU1@00AAV?$allocator@UDARKREVAN_ATTACK_BLOCK@@@0@@Z PROC ; std::_Uninitialized_move<DARKREVAN_ATTACK_BLOCK *,DARKREVAN_ATTACK_BLOCK *,std::allocator<DARKREVAN_ATTACK_BLOCK> >, COMDAT

; 469  : 	{	// move [_First, _Last) to raw _Dest, using _Al

  00000	55		 push	 ebp
  00001	8b ec		 mov	 ebp, esp
  00003	51		 push	 ecx

; 470  : 	return (_Uninit_move(_First, _Last, _Dest, _Al,
; 471  : 		_Val_type(_First), _Ptr_cat(_First, _Dest)));

  00004	8b 45 fc	 mov	 eax, DWORD PTR __Cat$211078[ebp]
  00007	8b 4d 14	 mov	 ecx, DWORD PTR __Al$[ebp]
  0000a	8b 55 10	 mov	 edx, DWORD PTR __Dest$[ebp]
  0000d	50		 push	 eax
  0000e	8b 45 0c	 mov	 eax, DWORD PTR __Last$[ebp]
  00011	6a 00		 push	 0
  00013	51		 push	 ecx
  00014	8b 4d 08	 mov	 ecx, DWORD PTR __First$[ebp]
  00017	52		 push	 edx
  00018	50		 push	 eax
  00019	51		 push	 ecx
  0001a	e8 00 00 00 00	 call	 ??$_Uninit_move@PAUDARKREVAN_ATTACK_BLOCK@@PAU1@V?$allocator@UDARKREVAN_ATTACK_BLOCK@@@std@@U1@@std@@YAPAUDARKREVAN_ATTACK_BLOCK@@PAU1@00AAV?$allocator@UDARKREVAN_ATTACK_BLOCK@@@0@0U_Nonscalar_ptr_iterator_tag@0@@Z ; std::_Uninit_move<DARKREVAN_ATTACK_BLOCK *,DARKREVAN_ATTACK_BLOCK *,std::allocator<DARKREVAN_ATTACK_BLOCK>,DARKREVAN_ATTACK_BLOCK>
  0001f	83 c4 18	 add	 esp, 24			; 00000018H

; 472  : 	}

  00022	8b e5		 mov	 esp, ebp
  00024	5d		 pop	 ebp
  00025	c3		 ret	 0
??$_Uninitialized_move@PAUDARKREVAN_ATTACK_BLOCK@@PAU1@V?$allocator@UDARKREVAN_ATTACK_BLOCK@@@std@@@std@@YAPAUDARKREVAN_ATTACK_BLOCK@@PAU1@00AAV?$allocator@UDARKREVAN_ATTACK_BLOCK@@@0@@Z ENDP ; std::_Uninitialized_move<DARKREVAN_ATTACK_BLOCK *,DARKREVAN_ATTACK_BLOCK *,std::allocator<DARKREVAN_ATTACK_BLOCK> >
_TEXT	ENDS
PUBLIC	?_Destroy@?$vector@UDARKREVAN_ATTACK_BLOCK@@V?$allocator@UDARKREVAN_ATTACK_BLOCK@@@std@@@std@@IAEXPAUDARKREVAN_ATTACK_BLOCK@@0@Z ; std::vector<DARKREVAN_ATTACK_BLOCK,std::allocator<DARKREVAN_ATTACK_BLOCK> >::_Destroy
; Function compile flags: /Ogtp
; File d:\program files (x86)\microsoft visual studio 10.0\vc\include\vector
;	COMDAT ?_Destroy@?$vector@UDARKREVAN_ATTACK_BLOCK@@V?$allocator@UDARKREVAN_ATTACK_BLOCK@@@std@@@std@@IAEXPAUDARKREVAN_ATTACK_BLOCK@@0@Z
_TEXT	SEGMENT
__First$ = 8						; size = 4
__Last$ = 12						; size = 4
?_Destroy@?$vector@UDARKREVAN_ATTACK_BLOCK@@V?$allocator@UDARKREVAN_ATTACK_BLOCK@@@std@@@std@@IAEXPAUDARKREVAN_ATTACK_BLOCK@@0@Z PROC ; std::vector<DARKREVAN_ATTACK_BLOCK,std::allocator<DARKREVAN_ATTACK_BLOCK> >::_Destroy, COMDAT
; _this$ = ecx

; 1270 : 		_Destroy_range(_First, _Last, this->_Alval);
; 1271 : 		}

  00000	c2 08 00	 ret	 8
?_Destroy@?$vector@UDARKREVAN_ATTACK_BLOCK@@V?$allocator@UDARKREVAN_ATTACK_BLOCK@@@std@@@std@@IAEXPAUDARKREVAN_ATTACK_BLOCK@@0@Z ENDP ; std::vector<DARKREVAN_ATTACK_BLOCK,std::allocator<DARKREVAN_ATTACK_BLOCK> >::_Destroy
_TEXT	ENDS
PUBLIC	??$_Umove@PAUDARKREVAN_ATTACK_BLOCK@@@?$vector@UDARKREVAN_ATTACK_BLOCK@@V?$allocator@UDARKREVAN_ATTACK_BLOCK@@@std@@@std@@IAEPAUDARKREVAN_ATTACK_BLOCK@@PAU2@00@Z ; std::vector<DARKREVAN_ATTACK_BLOCK,std::allocator<DARKREVAN_ATTACK_BLOCK> >::_Umove<DARKREVAN_ATTACK_BLOCK *>
; Function compile flags: /Ogtp
;	COMDAT ??$_Umove@PAUDARKREVAN_ATTACK_BLOCK@@@?$vector@UDARKREVAN_ATTACK_BLOCK@@V?$allocator@UDARKREVAN_ATTACK_BLOCK@@@std@@@std@@IAEPAUDARKREVAN_ATTACK_BLOCK@@PAU2@00@Z
_TEXT	SEGMENT
__First$ = 8						; size = 4
__Last$ = 12						; size = 4
__Cat$211100 = 16					; size = 1
__Ptr$ = 16						; size = 4
??$_Umove@PAUDARKREVAN_ATTACK_BLOCK@@@?$vector@UDARKREVAN_ATTACK_BLOCK@@V?$allocator@UDARKREVAN_ATTACK_BLOCK@@@std@@@std@@IAEPAUDARKREVAN_ATTACK_BLOCK@@PAU2@00@Z PROC ; std::vector<DARKREVAN_ATTACK_BLOCK,std::allocator<DARKREVAN_ATTACK_BLOCK> >::_Umove<DARKREVAN_ATTACK_BLOCK *>, COMDAT
; _this$ = ecx

; 1322 : 		pointer _Umove(_Iter _First, _Iter _Last, pointer _Ptr)

  00000	55		 push	 ebp
  00001	8b ec		 mov	 ebp, esp

; 1323 : 		{	// move initializing [_First, _Last), using allocator
; 1324 : 		return (_Uninitialized_move(_First, _Last,
; 1325 : 			_Ptr, this->_Alval));

  00003	8b 45 10	 mov	 eax, DWORD PTR __Cat$211100[ebp]
  00006	8b 55 0c	 mov	 edx, DWORD PTR __Last$[ebp]
  00009	50		 push	 eax
  0000a	8b 45 08	 mov	 eax, DWORD PTR __First$[ebp]
  0000d	6a 00		 push	 0
  0000f	83 c1 0c	 add	 ecx, 12			; 0000000cH
  00012	51		 push	 ecx
  00013	8b 4d 10	 mov	 ecx, DWORD PTR __Ptr$[ebp]
  00016	51		 push	 ecx
  00017	52		 push	 edx
  00018	50		 push	 eax
  00019	e8 00 00 00 00	 call	 ??$_Uninit_move@PAUDARKREVAN_ATTACK_BLOCK@@PAU1@V?$allocator@UDARKREVAN_ATTACK_BLOCK@@@std@@U1@@std@@YAPAUDARKREVAN_ATTACK_BLOCK@@PAU1@00AAV?$allocator@UDARKREVAN_ATTACK_BLOCK@@@0@0U_Nonscalar_ptr_iterator_tag@0@@Z ; std::_Uninit_move<DARKREVAN_ATTACK_BLOCK *,DARKREVAN_ATTACK_BLOCK *,std::allocator<DARKREVAN_ATTACK_BLOCK>,DARKREVAN_ATTACK_BLOCK>
  0001e	83 c4 18	 add	 esp, 24			; 00000018H

; 1326 : 		}

  00021	5d		 pop	 ebp
  00022	c2 0c 00	 ret	 12			; 0000000cH
??$_Umove@PAUDARKREVAN_ATTACK_BLOCK@@@?$vector@UDARKREVAN_ATTACK_BLOCK@@V?$allocator@UDARKREVAN_ATTACK_BLOCK@@@std@@@std@@IAEPAUDARKREVAN_ATTACK_BLOCK@@PAU2@00@Z ENDP ; std::vector<DARKREVAN_ATTACK_BLOCK,std::allocator<DARKREVAN_ATTACK_BLOCK> >::_Umove<DARKREVAN_ATTACK_BLOCK *>
_TEXT	ENDS
PUBLIC	?erase@?$vector@UDARKREVAN_ATTACK_BLOCK@@V?$allocator@UDARKREVAN_ATTACK_BLOCK@@@std@@@std@@QAE?AV?$_Vector_iterator@V?$_Vector_val@UDARKREVAN_ATTACK_BLOCK@@V?$allocator@UDARKREVAN_ATTACK_BLOCK@@@std@@@std@@@2@V?$_Vector_const_iterator@V?$_Vector_val@UDARKREVAN_ATTACK_BLOCK@@V?$allocator@UDARKREVAN_ATTACK_BLOCK@@@std@@@std@@@2@0@Z ; std::vector<DARKREVAN_ATTACK_BLOCK,std::allocator<DARKREVAN_ATTACK_BLOCK> >::erase
; Function compile flags: /Ogtp
;	COMDAT ?erase@?$vector@UDARKREVAN_ATTACK_BLOCK@@V?$allocator@UDARKREVAN_ATTACK_BLOCK@@@std@@@std@@QAE?AV?$_Vector_iterator@V?$_Vector_val@UDARKREVAN_ATTACK_BLOCK@@V?$allocator@UDARKREVAN_ATTACK_BLOCK@@@std@@@std@@@2@V?$_Vector_const_iterator@V?$_Vector_val@UDARKREVAN_ATTACK_BLOCK@@V?$allocator@UDARKREVAN_ATTACK_BLOCK@@@std@@@std@@@2@0@Z
_TEXT	SEGMENT
___$ReturnUdt$ = 8					; size = 4
__First_arg$ = 12					; size = 4
__Last_arg$ = 16					; size = 4
?erase@?$vector@UDARKREVAN_ATTACK_BLOCK@@V?$allocator@UDARKREVAN_ATTACK_BLOCK@@@std@@@std@@QAE?AV?$_Vector_iterator@V?$_Vector_val@UDARKREVAN_ATTACK_BLOCK@@V?$allocator@UDARKREVAN_ATTACK_BLOCK@@@std@@@std@@@2@V?$_Vector_const_iterator@V?$_Vector_val@UDARKREVAN_ATTACK_BLOCK@@V?$allocator@UDARKREVAN_ATTACK_BLOCK@@@std@@@std@@@2@0@Z PROC ; std::vector<DARKREVAN_ATTACK_BLOCK,std::allocator<DARKREVAN_ATTACK_BLOCK> >::erase, COMDAT
; _this$ = ecx

; 1190 : 		{	// erase [_First, _Last)

  00000	55		 push	 ebp
  00001	8b ec		 mov	 ebp, esp

; 1191 : 		iterator _First = _Make_iter(_First_arg);
; 1192 : 		iterator _Last = _Make_iter(_Last_arg);
; 1193 : 
; 1194 : 		if (_First != _Last)

  00003	8b 55 10	 mov	 edx, DWORD PTR __Last_arg$[ebp]
  00006	8b 45 08	 mov	 eax, DWORD PTR ___$ReturnUdt$[ebp]
  00009	56		 push	 esi
  0000a	8b 75 0c	 mov	 esi, DWORD PTR __First_arg$[ebp]
  0000d	89 30		 mov	 DWORD PTR [eax], esi
  0000f	3b f2		 cmp	 esi, edx
  00011	74 20		 je	 SHORT $LN1@erase

; 1195 : 			{	// worth doing, copy down over hole
; 1196 :  #if _ITERATOR_DEBUG_LEVEL == 2
; 1197 : 			if (_Last < _First || _VICONT(_First) != this
; 1198 : 				|| _VIPTR(_First) < this->_Myfirst
; 1199 : 				|| this->_Mylast < _VIPTR(_Last))
; 1200 : 				_DEBUG_ERROR("vector erase iterator outside range");
; 1201 : 			pointer _Ptr = _Move(_VIPTR(_Last), this->_Mylast,
; 1202 : 				_VIPTR(_First));
; 1203 : 			_Orphan_range(_VIPTR(_First), this->_Mylast);
; 1204 : 
; 1205 :  #else /* _ITERATOR_DEBUG_LEVEL == 2 */
; 1206 : 			pointer _Ptr = _Move(_VIPTR(_Last), this->_Mylast,
; 1207 : 				_VIPTR(_First));

  00013	57		 push	 edi
  00014	8b 79 04	 mov	 edi, DWORD PTR [ecx+4]
  00017	3b d7		 cmp	 edx, edi
  00019	74 14		 je	 SHORT $LN30@erase
  0001b	53		 push	 ebx
  0001c	8d 64 24 00	 npad	 4
$LL32@erase:
  00020	8b 1a		 mov	 ebx, DWORD PTR [edx]
  00022	89 1e		 mov	 DWORD PTR [esi], ebx
  00024	83 c2 04	 add	 edx, 4
  00027	83 c6 04	 add	 esi, 4
  0002a	3b d7		 cmp	 edx, edi
  0002c	75 f2		 jne	 SHORT $LL32@erase
  0002e	5b		 pop	 ebx
$LN30@erase:

; 1208 :  #endif /* _ITERATOR_DEBUG_LEVEL == 2 */
; 1209 : 
; 1210 : 			_Destroy(_Ptr, this->_Mylast);
; 1211 : 			this->_Mylast = _Ptr;

  0002f	89 71 04	 mov	 DWORD PTR [ecx+4], esi
  00032	5f		 pop	 edi
$LN1@erase:
  00033	5e		 pop	 esi

; 1212 : 			}
; 1213 : 		return (_First);
; 1214 : 		}

  00034	5d		 pop	 ebp
  00035	c2 0c 00	 ret	 12			; 0000000cH
?erase@?$vector@UDARKREVAN_ATTACK_BLOCK@@V?$allocator@UDARKREVAN_ATTACK_BLOCK@@@std@@@std@@QAE?AV?$_Vector_iterator@V?$_Vector_val@UDARKREVAN_ATTACK_BLOCK@@V?$allocator@UDARKREVAN_ATTACK_BLOCK@@@std@@@std@@@2@V?$_Vector_const_iterator@V?$_Vector_val@UDARKREVAN_ATTACK_BLOCK@@V?$allocator@UDARKREVAN_ATTACK_BLOCK@@@std@@@std@@@2@0@Z ENDP ; std::vector<DARKREVAN_ATTACK_BLOCK,std::allocator<DARKREVAN_ATTACK_BLOCK> >::erase
_TEXT	ENDS
PUBLIC	?_Tidy@?$vector@UDARKREVAN_ATTACK_BLOCK@@V?$allocator@UDARKREVAN_ATTACK_BLOCK@@@std@@@std@@IAEXXZ ; std::vector<DARKREVAN_ATTACK_BLOCK,std::allocator<DARKREVAN_ATTACK_BLOCK> >::_Tidy
; Function compile flags: /Ogtp
;	COMDAT ?_Tidy@?$vector@UDARKREVAN_ATTACK_BLOCK@@V?$allocator@UDARKREVAN_ATTACK_BLOCK@@@std@@@std@@IAEXXZ
_TEXT	SEGMENT
?_Tidy@?$vector@UDARKREVAN_ATTACK_BLOCK@@V?$allocator@UDARKREVAN_ATTACK_BLOCK@@@std@@@std@@IAEXXZ PROC ; std::vector<DARKREVAN_ATTACK_BLOCK,std::allocator<DARKREVAN_ATTACK_BLOCK> >::_Tidy, COMDAT
; _this$ = ecx

; 1301 : 		{	// free all storage

  00000	56		 push	 esi
  00001	8b f1		 mov	 esi, ecx

; 1302 : 		if (this->_Myfirst != 0)

  00003	8b 06		 mov	 eax, DWORD PTR [esi]
  00005	85 c0		 test	 eax, eax
  00007	74 09		 je	 SHORT $LN6@Tidy

; 1303 : 			{	// something to free, destroy and deallocate it
; 1304 : 			this->_Orphan_all();
; 1305 : 			_Destroy(this->_Myfirst, this->_Mylast);
; 1306 : 			this->_Alval.deallocate(this->_Myfirst,
; 1307 : 				this->_Myend - this->_Myfirst);

  00009	50		 push	 eax
  0000a	e8 00 00 00 00	 call	 ??3@YAXPAX@Z		; operator delete
  0000f	83 c4 04	 add	 esp, 4
$LN6@Tidy:

; 1308 : 			}
; 1309 : 		this->_Myfirst = 0;

  00012	c7 06 00 00 00
	00		 mov	 DWORD PTR [esi], 0

; 1310 : 		this->_Mylast = 0;

  00018	c7 46 04 00 00
	00 00		 mov	 DWORD PTR [esi+4], 0

; 1311 : 		this->_Myend = 0;

  0001f	c7 46 08 00 00
	00 00		 mov	 DWORD PTR [esi+8], 0
  00026	5e		 pop	 esi

; 1312 : 		}

  00027	c3		 ret	 0
?_Tidy@?$vector@UDARKREVAN_ATTACK_BLOCK@@V?$allocator@UDARKREVAN_ATTACK_BLOCK@@@std@@@std@@IAEXXZ ENDP ; std::vector<DARKREVAN_ATTACK_BLOCK,std::allocator<DARKREVAN_ATTACK_BLOCK> >::_Tidy
_TEXT	ENDS
PUBLIC	?reserve@?$vector@UDARKREVAN_ATTACK_BLOCK@@V?$allocator@UDARKREVAN_ATTACK_BLOCK@@@std@@@std@@QAEXI@Z ; std::vector<DARKREVAN_ATTACK_BLOCK,std::allocator<DARKREVAN_ATTACK_BLOCK> >::reserve
EXTRN	___CxxFrameHandler3:PROC
;	COMDAT xdata$x
; File d:\program files (x86)\microsoft visual studio 10.0\vc\include\xutility
xdata$x	SEGMENT
__catchsym$?reserve@?$vector@UDARKREVAN_ATTACK_BLOCK@@V?$allocator@UDARKREVAN_ATTACK_BLOCK@@@std@@@std@@QAEXI@Z$2 DD 040H
	DD	00H
	DD	00H
	DD	FLAT:__catch$?reserve@?$vector@UDARKREVAN_ATTACK_BLOCK@@V?$allocator@UDARKREVAN_ATTACK_BLOCK@@@std@@@std@@QAEXI@Z$0
__unwindtable$?reserve@?$vector@UDARKREVAN_ATTACK_BLOCK@@V?$allocator@UDARKREVAN_ATTACK_BLOCK@@@std@@@std@@QAEXI@Z DD 0ffffffffH
	DD	00H
	DD	0ffffffffH
	DD	00H
__tryblocktable$?reserve@?$vector@UDARKREVAN_ATTACK_BLOCK@@V?$allocator@UDARKREVAN_ATTACK_BLOCK@@@std@@@std@@QAEXI@Z DD 00H
	DD	00H
	DD	01H
	DD	01H
	DD	FLAT:__catchsym$?reserve@?$vector@UDARKREVAN_ATTACK_BLOCK@@V?$allocator@UDARKREVAN_ATTACK_BLOCK@@@std@@@std@@QAEXI@Z$2
__ehfuncinfo$?reserve@?$vector@UDARKREVAN_ATTACK_BLOCK@@V?$allocator@UDARKREVAN_ATTACK_BLOCK@@@std@@@std@@QAEXI@Z DD 019930522H
	DD	02H
	DD	FLAT:__unwindtable$?reserve@?$vector@UDARKREVAN_ATTACK_BLOCK@@V?$allocator@UDARKREVAN_ATTACK_BLOCK@@@std@@@std@@QAEXI@Z
	DD	01H
	DD	FLAT:__tryblocktable$?reserve@?$vector@UDARKREVAN_ATTACK_BLOCK@@V?$allocator@UDARKREVAN_ATTACK_BLOCK@@@std@@@std@@QAEXI@Z
	DD	2 DUP(00H)
	DD	00H
	DD	01H
; Function compile flags: /Ogtp
; File d:\program files (x86)\microsoft visual studio 10.0\vc\include\vector
xdata$x	ENDS
;	COMDAT ?reserve@?$vector@UDARKREVAN_ATTACK_BLOCK@@V?$allocator@UDARKREVAN_ATTACK_BLOCK@@@std@@@std@@QAEXI@Z
_TEXT	SEGMENT
__Ptr$209865 = -20					; size = 4
__$EHRec$ = -16						; size = 16
__Cat$211271 = 8					; size = 1
__Count$ = 8						; size = 4
?reserve@?$vector@UDARKREVAN_ATTACK_BLOCK@@V?$allocator@UDARKREVAN_ATTACK_BLOCK@@@std@@@std@@QAEXI@Z PROC ; std::vector<DARKREVAN_ATTACK_BLOCK,std::allocator<DARKREVAN_ATTACK_BLOCK> >::reserve, COMDAT
; _this$ = ecx

; 746  : 		{	// determine new minimum length of allocated storage

  00000	55		 push	 ebp
  00001	8b ec		 mov	 ebp, esp
  00003	6a ff		 push	 -1
  00005	68 00 00 00 00	 push	 __ehhandler$?reserve@?$vector@UDARKREVAN_ATTACK_BLOCK@@V?$allocator@UDARKREVAN_ATTACK_BLOCK@@@std@@@std@@QAEXI@Z
  0000a	64 a1 00 00 00
	00		 mov	 eax, DWORD PTR fs:0
  00010	50		 push	 eax
  00011	83 ec 08	 sub	 esp, 8
  00014	53		 push	 ebx
  00015	56		 push	 esi
  00016	57		 push	 edi
  00017	a1 00 00 00 00	 mov	 eax, DWORD PTR ___security_cookie
  0001c	33 c5		 xor	 eax, ebp
  0001e	50		 push	 eax
  0001f	8d 45 f4	 lea	 eax, DWORD PTR __$EHRec$[ebp+4]
  00022	64 a3 00 00 00
	00		 mov	 DWORD PTR fs:0, eax
  00028	89 65 f0	 mov	 DWORD PTR __$EHRec$[ebp], esp
  0002b	8b f1		 mov	 esi, ecx

; 747  : 		if (max_size() < _Count)

  0002d	8b 45 08	 mov	 eax, DWORD PTR __Count$[ebp]
  00030	3d ff ff ff 3f	 cmp	 eax, 1073741823		; 3fffffffH
  00035	76 0a		 jbe	 SHORT $LN5@reserve

; 748  : 			_Xlen();	// result too long

  00037	68 00 00 00 00	 push	 OFFSET ??_C@_0BD@OLBABOEK@vector?$DMT?$DO?5too?5long?$AA@
  0003c	e8 00 00 00 00	 call	 ?_Xlength_error@std@@YAXPBD@Z ; std::_Xlength_error
$LN42@reserve:
$LN5@reserve:

; 749  : 		else if (capacity() < _Count)

  00041	8b 4e 08	 mov	 ecx, DWORD PTR [esi+8]
  00044	2b 0e		 sub	 ecx, DWORD PTR [esi]
  00046	c1 f9 02	 sar	 ecx, 2
  00049	3b c8		 cmp	 ecx, eax
  0004b	73 56		 jae	 SHORT $LN3@reserve

; 750  : 			{	// not enough room, reallocate
; 751  : 			pointer _Ptr = this->_Alval.allocate(_Count);

  0004d	8d 7e 0c	 lea	 edi, DWORD PTR [esi+12]
  00050	50		 push	 eax
  00051	8b cf		 mov	 ecx, edi
  00053	e8 00 00 00 00	 call	 ?allocate@?$allocator@UDARKREVAN_ATTACK_BLOCK@@@std@@QAEPAUDARKREVAN_ATTACK_BLOCK@@I@Z ; std::allocator<DARKREVAN_ATTACK_BLOCK>::allocate

; 752  : 
; 753  : 			_TRY_BEGIN
; 754  : 			_Umove(this->_Myfirst, this->_Mylast, _Ptr);

  00058	8b 55 08	 mov	 edx, DWORD PTR __Cat$211271[ebp]
  0005b	8b 0e		 mov	 ecx, DWORD PTR [esi]
  0005d	52		 push	 edx
  0005e	6a 00		 push	 0
  00060	8b d8		 mov	 ebx, eax
  00062	8b 46 04	 mov	 eax, DWORD PTR [esi+4]
  00065	57		 push	 edi
  00066	53		 push	 ebx
  00067	50		 push	 eax
  00068	51		 push	 ecx
  00069	89 5d ec	 mov	 DWORD PTR __Ptr$209865[ebp], ebx
  0006c	c7 45 fc 00 00
	00 00		 mov	 DWORD PTR __$EHRec$[ebp+12], 0
  00073	e8 00 00 00 00	 call	 ??$_Uninit_move@PAUDARKREVAN_ATTACK_BLOCK@@PAU1@V?$allocator@UDARKREVAN_ATTACK_BLOCK@@@std@@U1@@std@@YAPAUDARKREVAN_ATTACK_BLOCK@@PAU1@00AAV?$allocator@UDARKREVAN_ATTACK_BLOCK@@@0@0U_Nonscalar_ptr_iterator_tag@0@@Z ; std::_Uninit_move<DARKREVAN_ATTACK_BLOCK *,DARKREVAN_ATTACK_BLOCK *,std::allocator<DARKREVAN_ATTACK_BLOCK>,DARKREVAN_ATTACK_BLOCK>

; 758  : 			_CATCH_END
; 759  : 
; 760  : 			size_type _Size = size();

  00078	8b 06		 mov	 eax, DWORD PTR [esi]
  0007a	8b 7e 04	 mov	 edi, DWORD PTR [esi+4]
  0007d	2b f8		 sub	 edi, eax
  0007f	83 c4 18	 add	 esp, 24			; 00000018H
  00082	c1 ff 02	 sar	 edi, 2

; 761  : 			if (this->_Myfirst != 0)

  00085	85 c0		 test	 eax, eax
  00087	74 09		 je	 SHORT $LN35@reserve

; 762  : 				{	// destroy and deallocate old array
; 763  : 				_Destroy(this->_Myfirst, this->_Mylast);
; 764  : 				this->_Alval.deallocate(this->_Myfirst,
; 765  : 					this->_Myend - this->_Myfirst);

  00089	50		 push	 eax
  0008a	e8 00 00 00 00	 call	 ??3@YAXPAX@Z		; operator delete
  0008f	83 c4 04	 add	 esp, 4
$LN35@reserve:

; 766  : 				}
; 767  : 
; 768  : 			this->_Orphan_all();
; 769  : 			this->_Myend = _Ptr + _Count;

  00092	8b 45 08	 mov	 eax, DWORD PTR __Count$[ebp]
  00095	8d 0c 83	 lea	 ecx, DWORD PTR [ebx+eax*4]

; 770  : 			this->_Mylast = _Ptr + _Size;

  00098	8d 14 bb	 lea	 edx, DWORD PTR [ebx+edi*4]
  0009b	89 4e 08	 mov	 DWORD PTR [esi+8], ecx
  0009e	89 56 04	 mov	 DWORD PTR [esi+4], edx

; 771  : 			this->_Myfirst = _Ptr;

  000a1	89 1e		 mov	 DWORD PTR [esi], ebx
$LN3@reserve:

; 772  : 			}
; 773  : 		}

  000a3	8b 4d f4	 mov	 ecx, DWORD PTR __$EHRec$[ebp+4]
  000a6	64 89 0d 00 00
	00 00		 mov	 DWORD PTR fs:0, ecx
  000ad	59		 pop	 ecx
  000ae	5f		 pop	 edi
  000af	5e		 pop	 esi
  000b0	5b		 pop	 ebx
  000b1	8b e5		 mov	 esp, ebp
  000b3	5d		 pop	 ebp
  000b4	c2 04 00	 ret	 4
__catch$?reserve@?$vector@UDARKREVAN_ATTACK_BLOCK@@V?$allocator@UDARKREVAN_ATTACK_BLOCK@@@std@@@std@@QAEXI@Z$0:

; 755  : 			_CATCH_ALL
; 756  : 			this->_Alval.deallocate(_Ptr, _Count);

  000b7	8b 45 ec	 mov	 eax, DWORD PTR __Ptr$209865[ebp]
  000ba	50		 push	 eax
  000bb	e8 00 00 00 00	 call	 ??3@YAXPAX@Z		; operator delete
  000c0	83 c4 04	 add	 esp, 4

; 757  : 			_RERAISE;

  000c3	6a 00		 push	 0
  000c5	6a 00		 push	 0
  000c7	e8 00 00 00 00	 call	 __CxxThrowException@8
$LN43@reserve:
$LN41@reserve:
  000cc	cc		 int	 3
_TEXT	ENDS
;	COMDAT text$x
text$x	SEGMENT
__ehhandler$?reserve@?$vector@UDARKREVAN_ATTACK_BLOCK@@V?$allocator@UDARKREVAN_ATTACK_BLOCK@@@std@@@std@@QAEXI@Z:
  00000	8b 54 24 08	 mov	 edx, DWORD PTR [esp+8]
  00004	8d 42 0c	 lea	 eax, DWORD PTR [edx+12]
  00007	8b 4a e8	 mov	 ecx, DWORD PTR [edx-24]
  0000a	33 c8		 xor	 ecx, eax
  0000c	e8 00 00 00 00	 call	 @__security_check_cookie@4
  00011	b8 00 00 00 00	 mov	 eax, OFFSET __ehfuncinfo$?reserve@?$vector@UDARKREVAN_ATTACK_BLOCK@@V?$allocator@UDARKREVAN_ATTACK_BLOCK@@@std@@@std@@QAEXI@Z
  00016	e9 00 00 00 00	 jmp	 ___CxxFrameHandler3
text$x	ENDS
?reserve@?$vector@UDARKREVAN_ATTACK_BLOCK@@V?$allocator@UDARKREVAN_ATTACK_BLOCK@@@std@@@std@@QAEXI@Z ENDP ; std::vector<DARKREVAN_ATTACK_BLOCK,std::allocator<DARKREVAN_ATTACK_BLOCK> >::reserve
PUBLIC	??1?$vector@UDARKREVAN_ATTACK_BLOCK@@V?$allocator@UDARKREVAN_ATTACK_BLOCK@@@std@@@std@@QAE@XZ ; std::vector<DARKREVAN_ATTACK_BLOCK,std::allocator<DARKREVAN_ATTACK_BLOCK> >::~vector<DARKREVAN_ATTACK_BLOCK,std::allocator<DARKREVAN_ATTACK_BLOCK> >
; Function compile flags: /Ogtp
;	COMDAT ??1?$vector@UDARKREVAN_ATTACK_BLOCK@@V?$allocator@UDARKREVAN_ATTACK_BLOCK@@@std@@@std@@QAE@XZ
_TEXT	SEGMENT
??1?$vector@UDARKREVAN_ATTACK_BLOCK@@V?$allocator@UDARKREVAN_ATTACK_BLOCK@@@std@@@std@@QAE@XZ PROC ; std::vector<DARKREVAN_ATTACK_BLOCK,std::allocator<DARKREVAN_ATTACK_BLOCK> >::~vector<DARKREVAN_ATTACK_BLOCK,std::allocator<DARKREVAN_ATTACK_BLOCK> >, COMDAT
; _this$ = ecx

; 704  : 		{	// destroy the object

  00000	56		 push	 esi
  00001	8b f1		 mov	 esi, ecx

; 705  : 		_Tidy();

  00003	8b 06		 mov	 eax, DWORD PTR [esi]
  00005	85 c0		 test	 eax, eax
  00007	74 09		 je	 SHORT $LN8@vector@2
  00009	50		 push	 eax
  0000a	e8 00 00 00 00	 call	 ??3@YAXPAX@Z		; operator delete
  0000f	83 c4 04	 add	 esp, 4
$LN8@vector@2:
  00012	c7 06 00 00 00
	00		 mov	 DWORD PTR [esi], 0
  00018	c7 46 04 00 00
	00 00		 mov	 DWORD PTR [esi+4], 0
  0001f	c7 46 08 00 00
	00 00		 mov	 DWORD PTR [esi+8], 0
  00026	5e		 pop	 esi

; 706  : 		}

  00027	c3		 ret	 0
??1?$vector@UDARKREVAN_ATTACK_BLOCK@@V?$allocator@UDARKREVAN_ATTACK_BLOCK@@@std@@@std@@QAE@XZ ENDP ; std::vector<DARKREVAN_ATTACK_BLOCK,std::allocator<DARKREVAN_ATTACK_BLOCK> >::~vector<DARKREVAN_ATTACK_BLOCK,std::allocator<DARKREVAN_ATTACK_BLOCK> >
_TEXT	ENDS
PUBLIC	?clear@?$vector@UDARKREVAN_ATTACK_BLOCK@@V?$allocator@UDARKREVAN_ATTACK_BLOCK@@@std@@@std@@QAEXXZ ; std::vector<DARKREVAN_ATTACK_BLOCK,std::allocator<DARKREVAN_ATTACK_BLOCK> >::clear
; Function compile flags: /Ogtp
;	COMDAT ?clear@?$vector@UDARKREVAN_ATTACK_BLOCK@@V?$allocator@UDARKREVAN_ATTACK_BLOCK@@@std@@@std@@QAEXXZ
_TEXT	SEGMENT
?clear@?$vector@UDARKREVAN_ATTACK_BLOCK@@V?$allocator@UDARKREVAN_ATTACK_BLOCK@@@std@@@std@@QAEXXZ PROC ; std::vector<DARKREVAN_ATTACK_BLOCK,std::allocator<DARKREVAN_ATTACK_BLOCK> >::clear, COMDAT
; _this$ = ecx

; 1218 : 		erase(begin(), end());

  00000	8b 51 04	 mov	 edx, DWORD PTR [ecx+4]
  00003	56		 push	 esi
  00004	8b 31		 mov	 esi, DWORD PTR [ecx]
  00006	3b f2		 cmp	 esi, edx
  00008	74 19		 je	 SHORT $LN19@clear
  0000a	8b c2		 mov	 eax, edx
  0000c	3b d2		 cmp	 edx, edx
  0000e	74 10		 je	 SHORT $LN48@clear
  00010	57		 push	 edi
$LL50@clear:
  00011	8b 38		 mov	 edi, DWORD PTR [eax]
  00013	89 3e		 mov	 DWORD PTR [esi], edi
  00015	83 c0 04	 add	 eax, 4
  00018	83 c6 04	 add	 esi, 4
  0001b	3b c2		 cmp	 eax, edx
  0001d	75 f2		 jne	 SHORT $LL50@clear
  0001f	5f		 pop	 edi
$LN48@clear:
  00020	89 71 04	 mov	 DWORD PTR [ecx+4], esi
$LN19@clear:
  00023	5e		 pop	 esi

; 1219 : 		}

  00024	c3		 ret	 0
?clear@?$vector@UDARKREVAN_ATTACK_BLOCK@@V?$allocator@UDARKREVAN_ATTACK_BLOCK@@@std@@@std@@QAEXXZ ENDP ; std::vector<DARKREVAN_ATTACK_BLOCK,std::allocator<DARKREVAN_ATTACK_BLOCK> >::clear
_TEXT	ENDS
PUBLIC	?_Reserve@?$vector@UDARKREVAN_ATTACK_BLOCK@@V?$allocator@UDARKREVAN_ATTACK_BLOCK@@@std@@@std@@IAEXI@Z ; std::vector<DARKREVAN_ATTACK_BLOCK,std::allocator<DARKREVAN_ATTACK_BLOCK> >::_Reserve
; Function compile flags: /Ogtp
;	COMDAT ?_Reserve@?$vector@UDARKREVAN_ATTACK_BLOCK@@V?$allocator@UDARKREVAN_ATTACK_BLOCK@@@std@@@std@@IAEXI@Z
_TEXT	SEGMENT
__Count$ = 8						; size = 4
?_Reserve@?$vector@UDARKREVAN_ATTACK_BLOCK@@V?$allocator@UDARKREVAN_ATTACK_BLOCK@@@std@@@std@@IAEXI@Z PROC ; std::vector<DARKREVAN_ATTACK_BLOCK,std::allocator<DARKREVAN_ATTACK_BLOCK> >::_Reserve, COMDAT
; _this$ = ecx

; 1290 : 		{	// ensure room for _Count new elements, grow exponentially

  00000	55		 push	 ebp
  00001	8b ec		 mov	 ebp, esp

; 1291 : 		size_type _Size = size();

  00003	8b 41 04	 mov	 eax, DWORD PTR [ecx+4]

; 1292 : 		if (max_size() - _Count < _Size)

  00006	8b 55 08	 mov	 edx, DWORD PTR __Count$[ebp]
  00009	56		 push	 esi
  0000a	8b 31		 mov	 esi, DWORD PTR [ecx]
  0000c	57		 push	 edi
  0000d	2b c6		 sub	 eax, esi
  0000f	bf ff ff ff 3f	 mov	 edi, 1073741823		; 3fffffffH
  00014	c1 f8 02	 sar	 eax, 2
  00017	2b fa		 sub	 edi, edx
  00019	3b f8		 cmp	 edi, eax
  0001b	73 0a		 jae	 SHORT $LN4@Reserve

; 1293 : 			_Xlen();

  0001d	68 00 00 00 00	 push	 OFFSET ??_C@_0BD@OLBABOEK@vector?$DMT?$DO?5too?5long?$AA@
  00022	e8 00 00 00 00	 call	 ?_Xlength_error@std@@YAXPBD@Z ; std::_Xlength_error
$LN34@Reserve:
$LN4@Reserve:

; 1294 : 		else if ((_Size += _Count) <= capacity())

  00027	03 c2		 add	 eax, edx
  00029	8b 51 08	 mov	 edx, DWORD PTR [ecx+8]
  0002c	2b d6		 sub	 edx, esi
  0002e	c1 fa 02	 sar	 edx, 2
  00031	3b c2		 cmp	 eax, edx
  00033	76 21		 jbe	 SHORT $LN1@Reserve

; 1295 : 			;
; 1296 : 		else
; 1297 : 			reserve(_Grow_to(_Size));

  00035	8b f2		 mov	 esi, edx
  00037	d1 ee		 shr	 esi, 1
  00039	bf ff ff ff 3f	 mov	 edi, 1073741823		; 3fffffffH
  0003e	2b fe		 sub	 edi, esi
  00040	3b fa		 cmp	 edi, edx
  00042	73 04		 jae	 SHORT $LN23@Reserve
  00044	33 d2		 xor	 edx, edx
  00046	eb 02		 jmp	 SHORT $LN24@Reserve
$LN23@Reserve:
  00048	03 d6		 add	 edx, esi
$LN24@Reserve:
  0004a	3b d0		 cmp	 edx, eax
  0004c	73 02		 jae	 SHORT $LN20@Reserve
  0004e	8b d0		 mov	 edx, eax
$LN20@Reserve:
  00050	52		 push	 edx
  00051	e8 00 00 00 00	 call	 ?reserve@?$vector@UDARKREVAN_ATTACK_BLOCK@@V?$allocator@UDARKREVAN_ATTACK_BLOCK@@@std@@@std@@QAEXI@Z ; std::vector<DARKREVAN_ATTACK_BLOCK,std::allocator<DARKREVAN_ATTACK_BLOCK> >::reserve
$LN1@Reserve:
  00056	5f		 pop	 edi
  00057	5e		 pop	 esi

; 1298 : 		}

  00058	5d		 pop	 ebp
  00059	c2 04 00	 ret	 4
$LN33@Reserve:
?_Reserve@?$vector@UDARKREVAN_ATTACK_BLOCK@@V?$allocator@UDARKREVAN_ATTACK_BLOCK@@@std@@@std@@IAEXI@Z ENDP ; std::vector<DARKREVAN_ATTACK_BLOCK,std::allocator<DARKREVAN_ATTACK_BLOCK> >::_Reserve
_TEXT	ENDS
PUBLIC	??0CManager@@QAE@XZ				; CManager::CManager
; Function compile flags: /Ogtp
; File e:\work\tranet_version\gs\gameserver\manager.cpp
;	COMDAT ??0CManager@@QAE@XZ
_TEXT	SEGMENT
??0CManager@@QAE@XZ PROC				; CManager::CManager, COMDAT
; _this$ = ecx

; 13   : {

  00000	8b c1		 mov	 eax, ecx
  00002	33 c9		 xor	 ecx, ecx
  00004	89 08		 mov	 DWORD PTR [eax], ecx
  00006	89 48 04	 mov	 DWORD PTR [eax+4], ecx
  00009	89 48 08	 mov	 DWORD PTR [eax+8], ecx

; 14   : 	this->m_DarkRevenAttackBlock.clear();
; 15   : }

  0000c	c3		 ret	 0
??0CManager@@QAE@XZ ENDP				; CManager::CManager
_TEXT	ENDS
PUBLIC	??1CManager@@QAE@XZ				; CManager::~CManager
; Function compile flags: /Ogtp
;	COMDAT ??1CManager@@QAE@XZ
_TEXT	SEGMENT
??1CManager@@QAE@XZ PROC				; CManager::~CManager, COMDAT
; _this$ = ecx

; 18   : {

  00000	56		 push	 esi
  00001	8b f1		 mov	 esi, ecx

; 19   : }

  00003	8b 06		 mov	 eax, DWORD PTR [esi]
  00005	85 c0		 test	 eax, eax
  00007	74 09		 je	 SHORT $LN11@CManager
  00009	50		 push	 eax
  0000a	e8 00 00 00 00	 call	 ??3@YAXPAX@Z		; operator delete
  0000f	83 c4 04	 add	 esp, 4
$LN11@CManager:
  00012	c7 06 00 00 00
	00		 mov	 DWORD PTR [esi], 0
  00018	c7 46 04 00 00
	00 00		 mov	 DWORD PTR [esi+4], 0
  0001f	c7 46 08 00 00
	00 00		 mov	 DWORD PTR [esi+8], 0
  00026	5e		 pop	 esi
  00027	c3		 ret	 0
??1CManager@@QAE@XZ ENDP				; CManager::~CManager
_TEXT	ENDS
PUBLIC	?push_back@?$vector@UDARKREVAN_ATTACK_BLOCK@@V?$allocator@UDARKREVAN_ATTACK_BLOCK@@@std@@@std@@QAEXABUDARKREVAN_ATTACK_BLOCK@@@Z ; std::vector<DARKREVAN_ATTACK_BLOCK,std::allocator<DARKREVAN_ATTACK_BLOCK> >::push_back
; Function compile flags: /Ogtp
; File d:\program files (x86)\microsoft visual studio 10.0\vc\include\vector
;	COMDAT ?push_back@?$vector@UDARKREVAN_ATTACK_BLOCK@@V?$allocator@UDARKREVAN_ATTACK_BLOCK@@@std@@@std@@QAEXABUDARKREVAN_ATTACK_BLOCK@@@Z
_TEXT	SEGMENT
__Val$ = 8						; size = 4
?push_back@?$vector@UDARKREVAN_ATTACK_BLOCK@@V?$allocator@UDARKREVAN_ATTACK_BLOCK@@@std@@@std@@QAEXABUDARKREVAN_ATTACK_BLOCK@@@Z PROC ; std::vector<DARKREVAN_ATTACK_BLOCK,std::allocator<DARKREVAN_ATTACK_BLOCK> >::push_back, COMDAT
; _this$ = ecx

; 976  : 		{	// insert element at end

  00000	55		 push	 ebp
  00001	8b ec		 mov	 ebp, esp
  00003	56		 push	 esi
  00004	8b f1		 mov	 esi, ecx

; 977  : 		if (_Inside(_STD addressof(_Val)))

  00006	8b 46 04	 mov	 eax, DWORD PTR [esi+4]
  00009	57		 push	 edi
  0000a	8b 7d 08	 mov	 edi, DWORD PTR __Val$[ebp]
  0000d	3b f8		 cmp	 edi, eax
  0000f	73 39		 jae	 SHORT $LN4@push_back
  00011	8b 0e		 mov	 ecx, DWORD PTR [esi]
  00013	3b cf		 cmp	 ecx, edi
  00015	77 33		 ja	 SHORT $LN4@push_back

; 978  : 			{	// push back an element
; 979  : 			size_type _Idx = _STD addressof(_Val) - this->_Myfirst;

  00017	2b f9		 sub	 edi, ecx
  00019	c1 ff 02	 sar	 edi, 2

; 980  : 			if (this->_Mylast == this->_Myend)

  0001c	3b 46 08	 cmp	 eax, DWORD PTR [esi+8]
  0001f	75 09		 jne	 SHORT $LN3@push_back

; 981  : 				_Reserve(1);

  00021	6a 01		 push	 1
  00023	8b ce		 mov	 ecx, esi
  00025	e8 00 00 00 00	 call	 ?_Reserve@?$vector@UDARKREVAN_ATTACK_BLOCK@@V?$allocator@UDARKREVAN_ATTACK_BLOCK@@@std@@@std@@IAEXI@Z ; std::vector<DARKREVAN_ATTACK_BLOCK,std::allocator<DARKREVAN_ATTACK_BLOCK> >::_Reserve
$LN3@push_back:

; 982  : 			_Orphan_range(this->_Mylast, this->_Mylast);
; 983  : 			_Cons_val(this->_Alval,
; 984  : 				this->_Mylast,
; 985  : 				this->_Myfirst[_Idx]);

  0002a	8b 06		 mov	 eax, DWORD PTR [esi]
  0002c	8b 56 04	 mov	 edx, DWORD PTR [esi+4]
  0002f	8d 0c b8	 lea	 ecx, DWORD PTR [eax+edi*4]
  00032	51		 push	 ecx
  00033	52		 push	 edx
  00034	8d 46 0c	 lea	 eax, DWORD PTR [esi+12]
  00037	50		 push	 eax
  00038	e8 00 00 00 00	 call	 ??$_Cons_val@V?$allocator@UDARKREVAN_ATTACK_BLOCK@@@std@@UDARKREVAN_ATTACK_BLOCK@@AAU3@@std@@YAXAAV?$allocator@UDARKREVAN_ATTACK_BLOCK@@@0@PAUDARKREVAN_ATTACK_BLOCK@@AAU2@@Z ; std::_Cons_val<std::allocator<DARKREVAN_ATTACK_BLOCK>,DARKREVAN_ATTACK_BLOCK,DARKREVAN_ATTACK_BLOCK &>

; 992  : 			_Orphan_range(this->_Mylast, this->_Mylast);
; 993  : 			_Cons_val(this->_Alval,
; 994  : 				this->_Mylast,
; 995  : 				_Val);

  0003d	83 c4 0c	 add	 esp, 12			; 0000000cH

; 996  : 			++this->_Mylast;

  00040	83 46 04 04	 add	 DWORD PTR [esi+4], 4
  00044	5f		 pop	 edi
  00045	5e		 pop	 esi

; 997  : 			}
; 998  : 		}

  00046	5d		 pop	 ebp
  00047	c2 04 00	 ret	 4
$LN4@push_back:

; 986  : 			++this->_Mylast;
; 987  : 			}
; 988  : 		else
; 989  : 			{	// push back a non-element
; 990  : 			if (this->_Mylast == this->_Myend)

  0004a	3b 46 08	 cmp	 eax, DWORD PTR [esi+8]
  0004d	75 09		 jne	 SHORT $LN1@push_back

; 991  : 				_Reserve(1);

  0004f	6a 01		 push	 1
  00051	8b ce		 mov	 ecx, esi
  00053	e8 00 00 00 00	 call	 ?_Reserve@?$vector@UDARKREVAN_ATTACK_BLOCK@@V?$allocator@UDARKREVAN_ATTACK_BLOCK@@@std@@@std@@IAEXI@Z ; std::vector<DARKREVAN_ATTACK_BLOCK,std::allocator<DARKREVAN_ATTACK_BLOCK> >::_Reserve
$LN1@push_back:

; 992  : 			_Orphan_range(this->_Mylast, this->_Mylast);
; 993  : 			_Cons_val(this->_Alval,
; 994  : 				this->_Mylast,
; 995  : 				_Val);

  00058	8b 4e 04	 mov	 ecx, DWORD PTR [esi+4]
  0005b	57		 push	 edi
  0005c	51		 push	 ecx
  0005d	8d 56 0c	 lea	 edx, DWORD PTR [esi+12]
  00060	52		 push	 edx
  00061	e8 00 00 00 00	 call	 ??$_Cons_val@V?$allocator@UDARKREVAN_ATTACK_BLOCK@@@std@@UDARKREVAN_ATTACK_BLOCK@@ABU3@@std@@YAXAAV?$allocator@UDARKREVAN_ATTACK_BLOCK@@@0@PAUDARKREVAN_ATTACK_BLOCK@@ABU2@@Z ; std::_Cons_val<std::allocator<DARKREVAN_ATTACK_BLOCK>,DARKREVAN_ATTACK_BLOCK,DARKREVAN_ATTACK_BLOCK const &>
  00066	83 c4 0c	 add	 esp, 12			; 0000000cH

; 996  : 			++this->_Mylast;

  00069	83 46 04 04	 add	 DWORD PTR [esi+4], 4
  0006d	5f		 pop	 edi
  0006e	5e		 pop	 esi

; 997  : 			}
; 998  : 		}

  0006f	5d		 pop	 ebp
  00070	c2 04 00	 ret	 4
?push_back@?$vector@UDARKREVAN_ATTACK_BLOCK@@V?$allocator@UDARKREVAN_ATTACK_BLOCK@@@std@@@std@@QAEXABUDARKREVAN_ATTACK_BLOCK@@@Z ENDP ; std::vector<DARKREVAN_ATTACK_BLOCK,std::allocator<DARKREVAN_ATTACK_BLOCK> >::push_back
_TEXT	ENDS
PUBLIC	??_C@_0O@CEHBAEMJ@?$CFs?5file?5load?$CB?$AA@	; `string'
PUBLIC	??_C@_03JBJLGPFL@end?$AA@			; `string'
PUBLIC	??_C@_01KDCPPGHE@r?$AA@				; `string'
PUBLIC	?Read@CManager@@QAEXPAD@Z			; CManager::Read
EXTRN	_fclose:PROC
EXTRN	?LogAdd@@3P6AXPADZZA:DWORD			; LogAdd
EXTRN	?Get@CMsg@@QAEPADH@Z:PROC			; CMsg::Get
EXTRN	?lMsg@@3VCMsg@@A:BYTE				; lMsg
EXTRN	_fopen:PROC
EXTRN	__ftol2_sse:PROC
;	COMDAT ??_C@_0O@CEHBAEMJ@?$CFs?5file?5load?$CB?$AA@
CONST	SEGMENT
??_C@_0O@CEHBAEMJ@?$CFs?5file?5load?$CB?$AA@ DB '%s file load!', 00H ; `string'
CONST	ENDS
;	COMDAT ??_C@_03JBJLGPFL@end?$AA@
CONST	SEGMENT
??_C@_03JBJLGPFL@end?$AA@ DB 'end', 00H			; `string'
CONST	ENDS
;	COMDAT ??_C@_01KDCPPGHE@r?$AA@
CONST	SEGMENT
??_C@_01KDCPPGHE@r?$AA@ DB 'r', 00H			; `string'
; Function compile flags: /Ogtp
; File e:\work\tranet_version\gs\gameserver\manager.cpp
CONST	ENDS
;	COMDAT ?Read@CManager@@QAEXPAD@Z
_TEXT	SEGMENT
_List$209625 = -4					; size = 4
_filename$ = 8						; size = 4
?Read@CManager@@QAEXPAD@Z PROC				; CManager::Read, COMDAT
; _this$ = ecx

; 35   : {

  00000	55		 push	 ebp
  00001	8b ec		 mov	 ebp, esp
  00003	51		 push	 ecx
  00004	56		 push	 esi

; 36   : 	SMDFile = fopen(filename, "r");

  00005	8b 75 08	 mov	 esi, DWORD PTR _filename$[ebp]
  00008	57		 push	 edi
  00009	68 00 00 00 00	 push	 OFFSET ??_C@_01KDCPPGHE@r?$AA@
  0000e	56		 push	 esi
  0000f	8b f9		 mov	 edi, ecx
  00011	e8 00 00 00 00	 call	 _fopen
  00016	83 c4 08	 add	 esp, 8
  00019	a3 00 00 00 00	 mov	 DWORD PTR _SMDFile, eax

; 37   : 
; 38   : 	if(SMDFile == NULL)

  0001e	85 c0		 test	 eax, eax
  00020	75 22		 jne	 SHORT $LN9@Read

; 39   : 	{
; 40   : 		LogAdd(lMsg.Get(MSGGET(1, 198)), filename);

  00022	56		 push	 esi
  00023	68 c6 01 00 00	 push	 454			; 000001c6H
  00028	b9 00 00 00 00	 mov	 ecx, OFFSET ?lMsg@@3VCMsg@@A ; lMsg
  0002d	e8 00 00 00 00	 call	 ?Get@CMsg@@QAEPADH@Z	; CMsg::Get
  00032	50		 push	 eax
  00033	ff 15 00 00 00
	00		 call	 DWORD PTR ?LogAdd@@3P6AXPADZZA ; LogAdd
  00039	83 c4 08	 add	 esp, 8
  0003c	5f		 pop	 edi
  0003d	5e		 pop	 esi

; 87   : }

  0003e	8b e5		 mov	 esp, ebp
  00040	5d		 pop	 ebp
  00041	c2 04 00	 ret	 4
$LN9@Read:

; 41   : 		return;
; 42   : 	}
; 43   : 
; 44   : 	SMDToken Token;
; 45   : 
; 46   : 	int iType = -1;
; 47   : 
; 48   : 	while(true)
; 49   : 	{
; 50   : 		Token = GetToken();

  00044	e8 00 00 00 00	 call	 ?GetToken@@YA?AW4SMDToken@@XZ ; GetToken

; 51   : 
; 52   :         if(Token == END)

  00049	83 f8 02	 cmp	 eax, 2
  0004c	0f 84 56 01 00
	00		 je	 $LN103@Read
  00052	53		 push	 ebx
  00053	bb 04 00 00 00	 mov	 ebx, 4
  00058	eb 06 8d 9b 00
	00 00 00	 npad	 8
$LL8@Read:

; 53   : 		{
; 54   :             break;
; 55   : 		}
; 56   : 
; 57   : 		iType = (int)TokenNumber;

  00060	d9 05 00 00 00
	00		 fld	 DWORD PTR _TokenNumber
  00066	e8 00 00 00 00	 call	 __ftol2_sse

; 58   : 
; 59   : 		if(iType != 0)

  0006b	85 c0		 test	 eax, eax
  0006d	0f 85 34 01 00
	00		 jne	 $LN112@Read
$LL4@Read:

; 60   : 		{
; 61   : 			break;
; 62   : 		}
; 63   : 
; 64   : 		while(true)
; 65   : 		{
; 66   : 			if(iType == 0)
; 67   : 			{
; 68   : 				Token = GetToken();

  00073	e8 00 00 00 00	 call	 ?GetToken@@YA?AW4SMDToken@@XZ ; GetToken

; 69   : 
; 70   : 				if(!strcmp("end", TokenString))

  00078	b9 00 00 00 00	 mov	 ecx, OFFSET _TokenString
  0007d	b8 00 00 00 00	 mov	 eax, OFFSET ??_C@_03JBJLGPFL@end?$AA@
$LL106@Read:
  00082	8a 10		 mov	 dl, BYTE PTR [eax]
  00084	3a 11		 cmp	 dl, BYTE PTR [ecx]
  00086	75 1a		 jne	 SHORT $LN107@Read
  00088	84 d2		 test	 dl, dl
  0008a	74 12		 je	 SHORT $LN111@Read
  0008c	8a 50 01	 mov	 dl, BYTE PTR [eax+1]
  0008f	3a 51 01	 cmp	 dl, BYTE PTR [ecx+1]
  00092	75 0e		 jne	 SHORT $LN107@Read
  00094	83 c0 02	 add	 eax, 2
  00097	83 c1 02	 add	 ecx, 2
  0009a	84 d2		 test	 dl, dl
  0009c	75 e4		 jne	 SHORT $LL106@Read
$LN111@Read:
  0009e	33 c0		 xor	 eax, eax
  000a0	eb 05		 jmp	 SHORT $LN109@Read
$LN107@Read:
  000a2	1b c0		 sbb	 eax, eax
  000a4	83 d8 ff	 sbb	 eax, -1
$LN109@Read:
  000a7	85 c0		 test	 eax, eax
  000a9	0f 84 ea 00 00
	00		 je	 $LN100@Read

; 71   : 				{
; 72   : 					break;
; 73   : 				}
; 74   : 
; 75   : 				DARKREVAN_ATTACK_BLOCK List;
; 76   : 
; 77   : 				List.Map = (int)TokenNumber;

  000af	d9 05 00 00 00
	00		 fld	 DWORD PTR _TokenNumber
  000b5	e8 00 00 00 00	 call	 __ftol2_sse
  000ba	89 45 fc	 mov	 DWORD PTR _List$209625[ebp], eax

; 78   : 
; 79   : 				this->m_DarkRevenAttackBlock.push_back(List);

  000bd	8b 47 04	 mov	 eax, DWORD PTR [edi+4]
  000c0	8d 4d fc	 lea	 ecx, DWORD PTR _List$209625[ebp]
  000c3	3b c8		 cmp	 ecx, eax
  000c5	73 74		 jae	 SHORT $LN15@Read
  000c7	8b 17		 mov	 edx, DWORD PTR [edi]
  000c9	3b d1		 cmp	 edx, ecx
  000cb	77 6e		 ja	 SHORT $LN15@Read
  000cd	8b f1		 mov	 esi, ecx
  000cf	8b 4f 08	 mov	 ecx, DWORD PTR [edi+8]
  000d2	2b f2		 sub	 esi, edx
  000d4	c1 fe 02	 sar	 esi, 2
  000d7	3b c1		 cmp	 eax, ecx
  000d9	75 42		 jne	 SHORT $LN26@Read
  000db	2b c2		 sub	 eax, edx
  000dd	c1 f8 02	 sar	 eax, 2
  000e0	3d fe ff ff 3f	 cmp	 eax, 1073741822		; 3ffffffeH
  000e5	0f 87 e2 00 00
	00		 ja	 $LN101@Read
  000eb	2b ca		 sub	 ecx, edx
  000ed	40		 inc	 eax
  000ee	c1 f9 02	 sar	 ecx, 2
  000f1	3b c1		 cmp	 eax, ecx
  000f3	76 28		 jbe	 SHORT $LN26@Read
  000f5	8b d1		 mov	 edx, ecx
  000f7	d1 ea		 shr	 edx, 1
  000f9	bb ff ff ff 3f	 mov	 ebx, 1073741823		; 3fffffffH
  000fe	2b da		 sub	 ebx, edx
  00100	3b d9		 cmp	 ebx, ecx
  00102	73 04		 jae	 SHORT $LN48@Read
  00104	33 c9		 xor	 ecx, ecx
  00106	eb 02		 jmp	 SHORT $LN49@Read
$LN48@Read:
  00108	03 ca		 add	 ecx, edx
$LN49@Read:
  0010a	3b c8		 cmp	 ecx, eax
  0010c	73 02		 jae	 SHORT $LN45@Read
  0010e	8b c8		 mov	 ecx, eax
$LN45@Read:
  00110	51		 push	 ecx
  00111	8b cf		 mov	 ecx, edi
  00113	e8 00 00 00 00	 call	 ?reserve@?$vector@UDARKREVAN_ATTACK_BLOCK@@V?$allocator@UDARKREVAN_ATTACK_BLOCK@@@std@@@std@@QAEXI@Z ; std::vector<DARKREVAN_ATTACK_BLOCK,std::allocator<DARKREVAN_ATTACK_BLOCK> >::reserve
  00118	bb 04 00 00 00	 mov	 ebx, 4
$LN26@Read:
  0011d	8b 17		 mov	 edx, DWORD PTR [edi]
  0011f	8b 4f 04	 mov	 ecx, DWORD PTR [edi+4]
  00122	8d 04 b2	 lea	 eax, DWORD PTR [edx+esi*4]
  00125	50		 push	 eax
  00126	51		 push	 ecx
  00127	8d 57 0c	 lea	 edx, DWORD PTR [edi+12]
  0012a	52		 push	 edx
  0012b	e8 00 00 00 00	 call	 ??$_Cons_val@V?$allocator@UDARKREVAN_ATTACK_BLOCK@@@std@@UDARKREVAN_ATTACK_BLOCK@@AAU3@@std@@YAXAAV?$allocator@UDARKREVAN_ATTACK_BLOCK@@@0@PAUDARKREVAN_ATTACK_BLOCK@@AAU2@@Z ; std::_Cons_val<std::allocator<DARKREVAN_ATTACK_BLOCK>,DARKREVAN_ATTACK_BLOCK,DARKREVAN_ATTACK_BLOCK &>
  00130	83 c4 0c	 add	 esp, 12			; 0000000cH
  00133	01 5f 04	 add	 DWORD PTR [edi+4], ebx
  00136	e9 38 ff ff ff	 jmp	 $LL4@Read
$LN15@Read:
  0013b	8b 4f 08	 mov	 ecx, DWORD PTR [edi+8]
  0013e	3b c1		 cmp	 eax, ecx
  00140	75 3b		 jne	 SHORT $LN61@Read
  00142	8b 17		 mov	 edx, DWORD PTR [edi]
  00144	2b c2		 sub	 eax, edx
  00146	c1 f8 02	 sar	 eax, 2
  00149	3d fe ff ff 3f	 cmp	 eax, 1073741822		; 3ffffffeH
  0014e	77 7d		 ja	 SHORT $LN101@Read
  00150	2b ca		 sub	 ecx, edx
  00152	40		 inc	 eax
  00153	c1 f9 02	 sar	 ecx, 2
  00156	3b c1		 cmp	 eax, ecx
  00158	76 23		 jbe	 SHORT $LN61@Read
  0015a	8b d1		 mov	 edx, ecx
  0015c	d1 ea		 shr	 edx, 1
  0015e	be ff ff ff 3f	 mov	 esi, 1073741823		; 3fffffffH
  00163	2b f2		 sub	 esi, edx
  00165	3b f1		 cmp	 esi, ecx
  00167	73 04		 jae	 SHORT $LN83@Read
  00169	33 c9		 xor	 ecx, ecx
  0016b	eb 02		 jmp	 SHORT $LN84@Read
$LN83@Read:
  0016d	03 ca		 add	 ecx, edx
$LN84@Read:
  0016f	3b c8		 cmp	 ecx, eax
  00171	73 02		 jae	 SHORT $LN80@Read
  00173	8b c8		 mov	 ecx, eax
$LN80@Read:
  00175	51		 push	 ecx
  00176	8b cf		 mov	 ecx, edi
  00178	e8 00 00 00 00	 call	 ?reserve@?$vector@UDARKREVAN_ATTACK_BLOCK@@V?$allocator@UDARKREVAN_ATTACK_BLOCK@@@std@@@std@@QAEXI@Z ; std::vector<DARKREVAN_ATTACK_BLOCK,std::allocator<DARKREVAN_ATTACK_BLOCK> >::reserve
$LN61@Read:
  0017d	8b 4f 04	 mov	 ecx, DWORD PTR [edi+4]
  00180	8d 45 fc	 lea	 eax, DWORD PTR _List$209625[ebp]
  00183	50		 push	 eax
  00184	51		 push	 ecx
  00185	8d 57 0c	 lea	 edx, DWORD PTR [edi+12]
  00188	52		 push	 edx
  00189	e8 00 00 00 00	 call	 ??$_Cons_val@V?$allocator@UDARKREVAN_ATTACK_BLOCK@@@std@@UDARKREVAN_ATTACK_BLOCK@@ABU3@@std@@YAXAAV?$allocator@UDARKREVAN_ATTACK_BLOCK@@@0@PAUDARKREVAN_ATTACK_BLOCK@@ABU2@@Z ; std::_Cons_val<std::allocator<DARKREVAN_ATTACK_BLOCK>,DARKREVAN_ATTACK_BLOCK,DARKREVAN_ATTACK_BLOCK const &>
  0018e	83 c4 0c	 add	 esp, 12			; 0000000cH
  00191	01 5f 04	 add	 DWORD PTR [edi+4], ebx

; 80   : 			}
; 81   : 		}

  00194	e9 da fe ff ff	 jmp	 $LL4@Read
$LN100@Read:

; 41   : 		return;
; 42   : 	}
; 43   : 
; 44   : 	SMDToken Token;
; 45   : 
; 46   : 	int iType = -1;
; 47   : 
; 48   : 	while(true)
; 49   : 	{
; 50   : 		Token = GetToken();

  00199	e8 00 00 00 00	 call	 ?GetToken@@YA?AW4SMDToken@@XZ ; GetToken

; 51   : 
; 52   :         if(Token == END)

  0019e	83 f8 02	 cmp	 eax, 2
  001a1	0f 85 b9 fe ff
	ff		 jne	 $LL8@Read
$LN112@Read:
  001a7	5b		 pop	 ebx
$LN103@Read:

; 82   : 	}
; 83   : 
; 84   : 	fclose(SMDFile);

  001a8	a1 00 00 00 00	 mov	 eax, DWORD PTR _SMDFile
  001ad	50		 push	 eax
  001ae	e8 00 00 00 00	 call	 _fclose

; 85   : 
; 86   : 	LogAdd("%s file load!", filename);

  001b3	8b 4d 08	 mov	 ecx, DWORD PTR _filename$[ebp]
  001b6	51		 push	 ecx
  001b7	68 00 00 00 00	 push	 OFFSET ??_C@_0O@CEHBAEMJ@?$CFs?5file?5load?$CB?$AA@
  001bc	ff 15 00 00 00
	00		 call	 DWORD PTR ?LogAdd@@3P6AXPADZZA ; LogAdd
  001c2	83 c4 0c	 add	 esp, 12			; 0000000cH
  001c5	5f		 pop	 edi
  001c6	5e		 pop	 esi

; 87   : }

  001c7	8b e5		 mov	 esp, ebp
  001c9	5d		 pop	 ebp
  001ca	c2 04 00	 ret	 4
$LN101@Read:

; 78   : 
; 79   : 				this->m_DarkRevenAttackBlock.push_back(List);

  001cd	68 00 00 00 00	 push	 OFFSET ??_C@_0BD@OLBABOEK@vector?$DMT?$DO?5too?5long?$AA@
  001d2	e8 00 00 00 00	 call	 ?_Xlength_error@std@@YAXPBD@Z ; std::_Xlength_error
$LN114@Read:
$LN113@Read:
  001d7	cc		 int	 3
?Read@CManager@@QAEXPAD@Z ENDP				; CManager::Read
_TEXT	ENDS
PUBLIC	??_C@_0BD@EFNEGMID@ZtData?2Manager?4dat?$AA@	; `string'
PUBLIC	?Load@CManager@@QAEXXZ				; CManager::Load
EXTRN	?GetNewPath@CDirPath@@QAEPADPAD@Z:PROC		; CDirPath::GetNewPath
EXTRN	?gDirPath@@3VCDirPath@@A:BYTE			; gDirPath
EXTRN	?CheckUser@CZtLicense@@QAE_NH@Z:PROC		; CZtLicense::CheckUser
EXTRN	?g_ZtLicense@@3VCZtLicense@@A:BYTE		; g_ZtLicense
;	COMDAT ??_C@_0BD@EFNEGMID@ZtData?2Manager?4dat?$AA@
; File d:\program files (x86)\microsoft visual studio 10.0\vc\include\utility
CONST	SEGMENT
??_C@_0BD@EFNEGMID@ZtData?2Manager?4dat?$AA@ DB 'ZtData\Manager.dat', 00H ; `string'
; Function compile flags: /Ogtp
; File e:\work\tranet_version\gs\gameserver\manager.cpp
CONST	ENDS
;	COMDAT ?Load@CManager@@QAEXXZ
_TEXT	SEGMENT
?Load@CManager@@QAEXXZ PROC				; CManager::Load, COMDAT
; _this$ = ecx

; 22   : {

  00000	56		 push	 esi
  00001	8b f1		 mov	 esi, ecx

; 23   : 	if(g_ZtLicense.CheckUser(eZtUB::Local) || 
; 24   : 		g_ZtLicense.CheckUser(eZtUB::Gredy) || 
; 25   : 		g_ZtLicense.CheckUser(eZtUB::Gredy2) || 
; 26   : 		g_ZtLicense.CheckUser(eZtUB::GredyLocal))

  00003	6a 00		 push	 0
  00005	b9 00 00 00 00	 mov	 ecx, OFFSET ?g_ZtLicense@@3VCZtLicense@@A ; g_ZtLicense
  0000a	e8 00 00 00 00	 call	 ?CheckUser@CZtLicense@@QAE_NH@Z ; CZtLicense::CheckUser
  0000f	84 c0		 test	 al, al
  00011	75 30		 jne	 SHORT $LN1@Load
  00013	6a 20		 push	 32			; 00000020H
  00015	b9 00 00 00 00	 mov	 ecx, OFFSET ?g_ZtLicense@@3VCZtLicense@@A ; g_ZtLicense
  0001a	e8 00 00 00 00	 call	 ?CheckUser@CZtLicense@@QAE_NH@Z ; CZtLicense::CheckUser
  0001f	84 c0		 test	 al, al
  00021	75 20		 jne	 SHORT $LN1@Load
  00023	6a 22		 push	 34			; 00000022H
  00025	b9 00 00 00 00	 mov	 ecx, OFFSET ?g_ZtLicense@@3VCZtLicense@@A ; g_ZtLicense
  0002a	e8 00 00 00 00	 call	 ?CheckUser@CZtLicense@@QAE_NH@Z ; CZtLicense::CheckUser
  0002f	84 c0		 test	 al, al
  00031	75 10		 jne	 SHORT $LN1@Load
  00033	6a 21		 push	 33			; 00000021H
  00035	b9 00 00 00 00	 mov	 ecx, OFFSET ?g_ZtLicense@@3VCZtLicense@@A ; g_ZtLicense
  0003a	e8 00 00 00 00	 call	 ?CheckUser@CZtLicense@@QAE_NH@Z ; CZtLicense::CheckUser
  0003f	84 c0		 test	 al, al
  00041	74 39		 je	 SHORT $LN2@Load
$LN1@Load:

; 27   : 	{
; 28   : 		this->m_DarkRevenAttackBlock.clear();

  00043	8b 16		 mov	 edx, DWORD PTR [esi]
  00045	8b 4e 04	 mov	 ecx, DWORD PTR [esi+4]
  00048	3b d1		 cmp	 edx, ecx
  0004a	74 19		 je	 SHORT $LN23@Load
  0004c	8b c1		 mov	 eax, ecx
  0004e	3b c9		 cmp	 ecx, ecx
  00050	74 10		 je	 SHORT $LN52@Load
  00052	57		 push	 edi
$LL54@Load:
  00053	8b 38		 mov	 edi, DWORD PTR [eax]
  00055	89 3a		 mov	 DWORD PTR [edx], edi
  00057	83 c0 04	 add	 eax, 4
  0005a	83 c2 04	 add	 edx, 4
  0005d	3b c1		 cmp	 eax, ecx
  0005f	75 f2		 jne	 SHORT $LL54@Load
  00061	5f		 pop	 edi
$LN52@Load:
  00062	89 56 04	 mov	 DWORD PTR [esi+4], edx
$LN23@Load:

; 29   : 
; 30   : 		this->Read(gDirPath.GetNewPath("ZtData\\Manager.dat"));

  00065	68 00 00 00 00	 push	 OFFSET ??_C@_0BD@EFNEGMID@ZtData?2Manager?4dat?$AA@
  0006a	b9 00 00 00 00	 mov	 ecx, OFFSET ?gDirPath@@3VCDirPath@@A ; gDirPath
  0006f	e8 00 00 00 00	 call	 ?GetNewPath@CDirPath@@QAEPADPAD@Z ; CDirPath::GetNewPath
  00074	50		 push	 eax
  00075	8b ce		 mov	 ecx, esi
  00077	e8 00 00 00 00	 call	 ?Read@CManager@@QAEXPAD@Z ; CManager::Read
$LN2@Load:
  0007c	5e		 pop	 esi

; 31   : 	}
; 32   : }

  0007d	c3		 ret	 0
?Load@CManager@@QAEXXZ ENDP				; CManager::Load
_TEXT	ENDS
EXTRN	_atexit:PROC
; Function compile flags: /Ogtp
;	COMDAT ??__Eg_Manager@@YAXXZ
text$yc	SEGMENT
??__Eg_Manager@@YAXXZ PROC				; `dynamic initializer for 'g_Manager'', COMDAT

; 10   : CManager g_Manager;

  00000	b9 00 00 00 00	 mov	 ecx, OFFSET ?g_Manager@@3VCManager@@A ; g_Manager
  00005	e8 00 00 00 00	 call	 ??0CManager@@QAE@XZ	; CManager::CManager
  0000a	68 00 00 00 00	 push	 OFFSET ??__Fg_Manager@@YAXXZ ; `dynamic atexit destructor for 'g_Manager''
  0000f	e8 00 00 00 00	 call	 _atexit
  00014	59		 pop	 ecx
  00015	c3		 ret	 0
??__Eg_Manager@@YAXXZ ENDP				; `dynamic initializer for 'g_Manager''
; Function compile flags: /Ogtp
text$yc	ENDS
;	COMDAT ??__Fg_Manager@@YAXXZ
text$yd	SEGMENT
??__Fg_Manager@@YAXXZ PROC				; `dynamic atexit destructor for 'g_Manager'', COMDAT
  00000	b9 00 00 00 00	 mov	 ecx, OFFSET ?g_Manager@@3VCManager@@A ; g_Manager
  00005	e9 00 00 00 00	 jmp	 ??1CManager@@QAE@XZ	; CManager::~CManager
??__Fg_Manager@@YAXXZ ENDP				; `dynamic atexit destructor for 'g_Manager''
text$yd	ENDS
PUBLIC	?g_Manager@@3VCManager@@A			; g_Manager
_BSS	SEGMENT
?g_Manager@@3VCManager@@A DB 010H DUP (?)		; g_Manager
_BSS	ENDS
CRT$XCU	SEGMENT
_g_Manager$initializer$ DD FLAT:??__Eg_Manager@@YAXXZ
CRT$XCU	ENDS
END
