; Listing generated by Microsoft (R) Optimizing Compiler Version 16.00.30319.01 

	TITLE	E:\work\tranet_version\GS\GameServer\MapClass.cpp
	.686P
	.XMM
	include listing.inc
	.model	flat

INCLUDELIB LIBCMT
INCLUDELIB OLDNAMES

_DATA	SEGMENT
_g_iNpcUpDfLevel_CGATE DD 01H
	DD	02H
	DD	02dc6c0H
	DD	02H
	DD	03H
	DD	02dc6c0H
	DD	03H
	DD	04H
	DD	02dc6c0H
_g_iNpcUpDfLevel_CSTATUE DD 01H
	DD	03H
	DD	02dc6c0H
	DD	02H
	DD	05H
	DD	02dc6c0H
	DD	03H
	DD	07H
	DD	02dc6c0H
_g_iNpcUpMaxHP_CGATE DD 02625a0H
	DD	02H
	DD	0f4240H
	DD	03567e0H
	DD	03H
	DD	0f4240H
	DD	04f5880H
	DD	04H
	DD	0f4240H
_g_iNpcUpMaxHP_CSTATUE DD 02191c0H
	DD	03H
	DD	0f4240H
	DD	033e140H
	DD	05H
	DD	0f4240H
	DD	04c4b40H
	DD	07H
	DD	0f4240H
_g_iNpcUpRgLevel_CSTATUE DD 01H
	DD	03H
	DD	04c4b40H
	DD	02H
	DD	05H
	DD	04c4b40H
	DD	03H
	DD	07H
	DD	04c4b40H
_g_iCsUserReSpawnArea DD 023H
	DD	011H
	DD	090H
	DD	030H
	DD	04aH
	DD	090H
	DD	073H
	DD	09aH
	DD	023H
	DD	011H
	DD	090H
	DD	030H
_g_iNpcDefense_CGATE DD 064H
	DD	0b4H
	DD	012cH
	DD	0208H
_g_iNpcDefense_CSTATUE DD 050H
	DD	0b4H
	DD	0154H
	DD	0226H
_g_iCastleWallStepAxisY DD 071H
	DD	0a0H
	DD	0cbH
_g_sttBLOODCASTLE_LEVEL DD 0fH
	DD	050H
	DD	0aH
	DD	03cH
	DD	051H
	DD	082H
	DD	03dH
	DD	06eH
	DD	083H
	DD	0b4H
	DD	06fH
	DD	0a0H
	DD	0b5H
	DD	0e6H
	DD	0a1H
	DD	0d2H
	DD	0e7H
	DD	0118H
	DD	0d3H
	DD	0104H
	DD	0119H
	DD	014aH
	DD	0105H
	DD	0136H
	DD	014bH
	DD	03e8H
	DD	0137H
	DD	03e8H
	DD	0fH
	DD	04afH
	DD	0aH
	DD	04afH
_DATA	ENDS
PUBLIC	?GetDist@PATH@@AAEHHHHH@Z			; PATH::GetDist
; Function compile flags: /Ogtp
; File e:\work\tranet_version\gs\common\zzzpath.h
;	COMDAT ?GetDist@PATH@@AAEHHHHH@Z
_TEXT	SEGMENT
_x1$ = 8						; size = 4
_y1$ = 12						; size = 4
_x2$ = 16						; size = 4
_y2$ = 20						; size = 4
?GetDist@PATH@@AAEHHHHH@Z PROC				; PATH::GetDist, COMDAT
; _this$ = ecx

; 44   : 	{

  00000	55		 push	 ebp
  00001	8b ec		 mov	 ebp, esp

; 45   : 		int distx = x2 - x1;

  00003	8b 4d 10	 mov	 ecx, DWORD PTR _x2$[ebp]

; 46   : 		int disty = y2 - y1;

  00006	8b 45 14	 mov	 eax, DWORD PTR _y2$[ebp]
  00009	2b 4d 08	 sub	 ecx, DWORD PTR _x1$[ebp]
  0000c	2b 45 0c	 sub	 eax, DWORD PTR _y1$[ebp]

; 47   : 		return (distx * distx) + (disty * disty);

  0000f	0f af c9	 imul	 ecx, ecx
  00012	0f af c0	 imul	 eax, eax
  00015	03 c1		 add	 eax, ecx

; 48   : 	}	// line : 23

  00017	5d		 pop	 ebp
  00018	c2 10 00	 ret	 16			; 00000010H
?GetDist@PATH@@AAEHHHHH@Z ENDP				; PATH::GetDist
_TEXT	ENDS
PUBLIC	?VerifyThatOnPath@PATH@@AAEHHH@Z		; PATH::VerifyThatOnPath
; Function compile flags: /Ogtp
;	COMDAT ?VerifyThatOnPath@PATH@@AAEHHH@Z
_TEXT	SEGMENT
_x$ = 8							; size = 4
_y$ = 12						; size = 4
?VerifyThatOnPath@PATH@@AAEHHH@Z PROC			; PATH::VerifyThatOnPath, COMDAT
; _this$ = ecx

; 51   : 	{

  00000	55		 push	 ebp
  00001	8b ec		 mov	 ebp, esp
  00003	8b 51 08	 mov	 edx, DWORD PTR [ecx+8]
  00006	53		 push	 ebx
  00007	56		 push	 esi

; 52   : 		for ( int i = 0 ; i < this->NumPath ; i++ )

  00008	33 c0		 xor	 eax, eax
  0000a	57		 push	 edi
  0000b	85 d2		 test	 edx, edx
  0000d	7e 20		 jle	 SHORT $LN2@VerifyThat
  0000f	8b 75 0c	 mov	 esi, DWORD PTR _y$[ebp]
  00012	8b 7d 08	 mov	 edi, DWORD PTR _x$[ebp]
$LL4@VerifyThat:

; 53   : 		{
; 54   : 			if ( x ==  this->PathX[i] && y == this->PathY[i] )

  00015	0f b6 5c 01 0c	 movzx	 ebx, BYTE PTR [ecx+eax+12]
  0001a	3b fb		 cmp	 edi, ebx
  0001c	75 0c		 jne	 SHORT $LN3@VerifyThat
  0001e	0f b6 9c 08 00
	02 00 00	 movzx	 ebx, BYTE PTR [eax+ecx+512]
  00026	3b f3		 cmp	 esi, ebx
  00028	74 08		 je	 SHORT $LN5@VerifyThat
$LN3@VerifyThat:

; 52   : 		for ( int i = 0 ; i < this->NumPath ; i++ )

  0002a	40		 inc	 eax
  0002b	3b c2		 cmp	 eax, edx
  0002d	7c e6		 jl	 SHORT $LL4@VerifyThat
$LN2@VerifyThat:

; 55   : 			{
; 56   : 				return i;
; 57   : 			}
; 58   : 		}
; 59   : 		return -1;

  0002f	83 c8 ff	 or	 eax, -1
$LN5@VerifyThat:
  00032	5f		 pop	 edi
  00033	5e		 pop	 esi
  00034	5b		 pop	 ebx

; 60   : 	}

  00035	5d		 pop	 ebp
  00036	c2 08 00	 ret	 8
?VerifyThatOnPath@PATH@@AAEHHH@Z ENDP			; PATH::VerifyThatOnPath
_TEXT	ENDS
PUBLIC	?CanWeMoveForward@PATH@@AAEHHH@Z		; PATH::CanWeMoveForward
; Function compile flags: /Ogtp
;	COMDAT ?CanWeMoveForward@PATH@@AAEHHH@Z
_TEXT	SEGMENT
_x$ = 8							; size = 4
_y$ = 12						; size = 4
?CanWeMoveForward@PATH@@AAEHHH@Z PROC			; PATH::CanWeMoveForward, COMDAT
; _this$ = ecx

; 63   : 	{

  00000	55		 push	 ebp
  00001	8b ec		 mov	 ebp, esp

; 64   : 		int which = x+ y * this->Width  ;

  00003	8b 11		 mov	 edx, DWORD PTR [ecx]
  00005	56		 push	 esi
  00006	8b 75 08	 mov	 esi, DWORD PTR _x$[ebp]
  00009	57		 push	 edi
  0000a	8b 7d 0c	 mov	 edi, DWORD PTR _y$[ebp]
  0000d	8b c2		 mov	 eax, edx
  0000f	0f af c7	 imul	 eax, edi
  00012	03 c6		 add	 eax, esi

; 65   : 		
; 66   : 		if ( x >= this->Width || x < 0 || y >= this->Height || y < 0 )

  00014	3b f2		 cmp	 esi, edx
  00016	7d 3a		 jge	 SHORT $LN3@CanWeMoveF
  00018	85 f6		 test	 esi, esi
  0001a	78 36		 js	 SHORT $LN3@CanWeMoveF
  0001c	3b 79 04	 cmp	 edi, DWORD PTR [ecx+4]
  0001f	7d 31		 jge	 SHORT $LN3@CanWeMoveF
  00021	85 ff		 test	 edi, edi
  00023	78 2d		 js	 SHORT $LN3@CanWeMoveF

; 69   : 		}
; 70   : 
; 71   : 		if ( this->Map[which] > 1 || this->HitMap[which] != 0 )

  00025	8b 91 3c 04 00
	00		 mov	 edx, DWORD PTR [ecx+1084]
  0002b	80 3c 10 01	 cmp	 BYTE PTR [eax+edx], 1
  0002f	77 17		 ja	 SHORT $LN1@CanWeMoveF
  00031	8b 91 40 04 00
	00		 mov	 edx, DWORD PTR [ecx+1088]
  00037	80 3c 10 00	 cmp	 BYTE PTR [eax+edx], 0
  0003b	75 0b		 jne	 SHORT $LN1@CanWeMoveF

; 74   : 			return false;
; 75   : 		}
; 76   : 		return TRUE;

  0003d	5f		 pop	 edi
  0003e	b8 01 00 00 00	 mov	 eax, 1
  00043	5e		 pop	 esi

; 77   : 	};	// line : 43

  00044	5d		 pop	 ebp
  00045	c2 08 00	 ret	 8
$LN1@CanWeMoveF:

; 72   : 		{
; 73   : 			this->HitMap[which] = 1;

  00048	8b 89 40 04 00
	00		 mov	 ecx, DWORD PTR [ecx+1088]
  0004e	c6 04 08 01	 mov	 BYTE PTR [eax+ecx], 1
$LN3@CanWeMoveF:

; 67   : 		{
; 68   : 			return false;

  00052	5f		 pop	 edi
  00053	33 c0		 xor	 eax, eax
  00055	5e		 pop	 esi

; 77   : 	};	// line : 43

  00056	5d		 pop	 ebp
  00057	c2 08 00	 ret	 8
?CanWeMoveForward@PATH@@AAEHHH@Z ENDP			; PATH::CanWeMoveForward
_TEXT	ENDS
PUBLIC	?CanWeMoveForward2@PATH@@AAEHHH@Z		; PATH::CanWeMoveForward2
; Function compile flags: /Ogtp
;	COMDAT ?CanWeMoveForward2@PATH@@AAEHHH@Z
_TEXT	SEGMENT
_x$ = 8							; size = 4
_y$ = 12						; size = 4
?CanWeMoveForward2@PATH@@AAEHHH@Z PROC			; PATH::CanWeMoveForward2, COMDAT
; _this$ = ecx

; 80   : 	{

  00000	55		 push	 ebp
  00001	8b ec		 mov	 ebp, esp

; 81   : 		int which = x +  y* this->Width ;

  00003	8b 11		 mov	 edx, DWORD PTR [ecx]
  00005	56		 push	 esi
  00006	8b 75 08	 mov	 esi, DWORD PTR _x$[ebp]
  00009	57		 push	 edi
  0000a	8b 7d 0c	 mov	 edi, DWORD PTR _y$[ebp]
  0000d	8b c2		 mov	 eax, edx
  0000f	0f af c7	 imul	 eax, edi
  00012	03 c6		 add	 eax, esi

; 82   : 		
; 83   : 		if ( x >= this->Width || x < 0 || y >= this->Height || y < 0 )

  00014	3b f2		 cmp	 esi, edx
  00016	7d 3a		 jge	 SHORT $LN3@CanWeMoveF@2
  00018	85 f6		 test	 esi, esi
  0001a	78 36		 js	 SHORT $LN3@CanWeMoveF@2
  0001c	3b 79 04	 cmp	 edi, DWORD PTR [ecx+4]
  0001f	7d 31		 jge	 SHORT $LN3@CanWeMoveF@2
  00021	85 ff		 test	 edi, edi
  00023	78 2d		 js	 SHORT $LN3@CanWeMoveF@2

; 86   : 		}
; 87   : 
; 88   : 		if ( this->Map[which] >= 1 || this->HitMap[which] != 0 )

  00025	8b 91 3c 04 00
	00		 mov	 edx, DWORD PTR [ecx+1084]
  0002b	80 3c 10 01	 cmp	 BYTE PTR [eax+edx], 1
  0002f	73 17		 jae	 SHORT $LN1@CanWeMoveF@2
  00031	8b 91 40 04 00
	00		 mov	 edx, DWORD PTR [ecx+1088]
  00037	80 3c 10 00	 cmp	 BYTE PTR [eax+edx], 0
  0003b	75 0b		 jne	 SHORT $LN1@CanWeMoveF@2

; 91   : 			return false;
; 92   : 		}
; 93   : 		return TRUE;

  0003d	5f		 pop	 edi
  0003e	b8 01 00 00 00	 mov	 eax, 1
  00043	5e		 pop	 esi

; 94   : 	};

  00044	5d		 pop	 ebp
  00045	c2 08 00	 ret	 8
$LN1@CanWeMoveF@2:

; 89   : 		{
; 90   : 			this->HitMap[which] = 1;

  00048	8b 89 40 04 00
	00		 mov	 ecx, DWORD PTR [ecx+1088]
  0004e	c6 04 08 01	 mov	 BYTE PTR [eax+ecx], 1
$LN3@CanWeMoveF@2:

; 84   : 		{
; 85   : 			return false;

  00052	5f		 pop	 edi
  00053	33 c0		 xor	 eax, eax
  00055	5e		 pop	 esi

; 94   : 	};

  00056	5d		 pop	 ebp
  00057	c2 08 00	 ret	 8
?CanWeMoveForward2@PATH@@AAEHHH@Z ENDP			; PATH::CanWeMoveForward2
_TEXT	ENDS
PUBLIC	?CanWeMoveForward3@PATH@@AAEHHH@Z		; PATH::CanWeMoveForward3
; Function compile flags: /Ogtp
;	COMDAT ?CanWeMoveForward3@PATH@@AAEHHH@Z
_TEXT	SEGMENT
_x$ = 8							; size = 4
_y$ = 12						; size = 4
?CanWeMoveForward3@PATH@@AAEHHH@Z PROC			; PATH::CanWeMoveForward3, COMDAT
; _this$ = ecx

; 97   : 	{

  00000	55		 push	 ebp
  00001	8b ec		 mov	 ebp, esp

; 98   : 		int which = x +  y* this->Width ;

  00003	8b 11		 mov	 edx, DWORD PTR [ecx]
  00005	56		 push	 esi
  00006	8b 75 08	 mov	 esi, DWORD PTR _x$[ebp]
  00009	57		 push	 edi
  0000a	8b 7d 0c	 mov	 edi, DWORD PTR _y$[ebp]
  0000d	8b c2		 mov	 eax, edx
  0000f	0f af c7	 imul	 eax, edi
  00012	03 c6		 add	 eax, esi

; 99   : 		
; 100  : 		if ( x >= this->Width || x < 0 || y >= this->Height || y < 0 )

  00014	3b f2		 cmp	 esi, edx
  00016	7d 3a		 jge	 SHORT $LN3@CanWeMoveF@3
  00018	85 f6		 test	 esi, esi
  0001a	78 36		 js	 SHORT $LN3@CanWeMoveF@3
  0001c	3b 79 04	 cmp	 edi, DWORD PTR [ecx+4]
  0001f	7d 31		 jge	 SHORT $LN3@CanWeMoveF@3
  00021	85 ff		 test	 edi, edi
  00023	78 2d		 js	 SHORT $LN3@CanWeMoveF@3

; 103  : 		}
; 104  : 
; 105  : 		if ( this->Map[which] >= 1 || this->HitMap[which] != 0 )

  00025	8b 91 3c 04 00
	00		 mov	 edx, DWORD PTR [ecx+1084]
  0002b	80 3c 10 01	 cmp	 BYTE PTR [eax+edx], 1
  0002f	73 17		 jae	 SHORT $LN1@CanWeMoveF@3
  00031	8b 91 40 04 00
	00		 mov	 edx, DWORD PTR [ecx+1088]
  00037	80 3c 10 00	 cmp	 BYTE PTR [eax+edx], 0
  0003b	75 0b		 jne	 SHORT $LN1@CanWeMoveF@3

; 108  : 			return false;
; 109  : 		}
; 110  : 		return TRUE;

  0003d	5f		 pop	 edi
  0003e	b8 01 00 00 00	 mov	 eax, 1
  00043	5e		 pop	 esi

; 111  : 	};

  00044	5d		 pop	 ebp
  00045	c2 08 00	 ret	 8
$LN1@CanWeMoveF@3:

; 106  : 		{
; 107  : 			this->HitMap[which] = 1;

  00048	8b 89 40 04 00
	00		 mov	 ecx, DWORD PTR [ecx+1088]
  0004e	c6 04 08 01	 mov	 BYTE PTR [eax+ecx], 1
$LN3@CanWeMoveF@3:

; 101  : 		{
; 102  : 			return false;

  00052	5f		 pop	 edi
  00053	33 c0		 xor	 eax, eax
  00055	5e		 pop	 esi

; 111  : 	};

  00056	5d		 pop	 ebp
  00057	c2 08 00	 ret	 8
?CanWeMoveForward3@PATH@@AAEHHH@Z ENDP			; PATH::CanWeMoveForward3
_TEXT	ENDS
PUBLIC	?IsThisSpotOK@PATH@@AAEHHH@Z			; PATH::IsThisSpotOK
; Function compile flags: /Ogtp
;	COMDAT ?IsThisSpotOK@PATH@@AAEHHH@Z
_TEXT	SEGMENT
_x$ = 8							; size = 4
_y$ = 12						; size = 4
?IsThisSpotOK@PATH@@AAEHHH@Z PROC			; PATH::IsThisSpotOK, COMDAT
; _this$ = ecx

; 117  : 	{

  00000	55		 push	 ebp
  00001	8b ec		 mov	 ebp, esp
  00003	56		 push	 esi

; 118  : 		int pos;
; 119  : 
; 120  : 		pos = x+ y * this->Width ;
; 121  : 
; 122  : 		if ( x < 0 || x >= this->Width || y < 0 || y >= this->Width )

  00004	8b 75 08	 mov	 esi, DWORD PTR _x$[ebp]
  00007	85 f6		 test	 esi, esi
  00009	78 29		 js	 SHORT $LN2@IsThisSpot
  0000b	8b 01		 mov	 eax, DWORD PTR [ecx]
  0000d	3b f0		 cmp	 esi, eax
  0000f	7d 23		 jge	 SHORT $LN2@IsThisSpot
  00011	8b 55 0c	 mov	 edx, DWORD PTR _y$[ebp]
  00014	85 d2		 test	 edx, edx
  00016	78 1c		 js	 SHORT $LN2@IsThisSpot
  00018	3b d0		 cmp	 edx, eax
  0001a	7d 18		 jge	 SHORT $LN2@IsThisSpot

; 125  : 		}
; 126  : 		if ( this->HitMap[pos] != 0 )

  0001c	0f af c2	 imul	 eax, edx
  0001f	03 81 40 04 00
	00		 add	 eax, DWORD PTR [ecx+1088]
  00025	33 c9		 xor	 ecx, ecx
  00027	38 0c 30	 cmp	 BYTE PTR [eax+esi], cl
  0002a	5e		 pop	 esi
  0002b	0f 94 c1	 sete	 cl
  0002e	8b c1		 mov	 eax, ecx

; 127  : 		{
; 128  : 			return false;
; 129  : 		}
; 130  : 		return true;
; 131  : 	};	// line : 68

  00030	5d		 pop	 ebp
  00031	c2 08 00	 ret	 8
$LN2@IsThisSpot:

; 123  : 		{
; 124  : 			return false;

  00034	33 c0		 xor	 eax, eax
  00036	5e		 pop	 esi

; 127  : 		{
; 128  : 			return false;
; 129  : 		}
; 130  : 		return true;
; 131  : 	};	// line : 68

  00037	5d		 pop	 ebp
  00038	c2 08 00	 ret	 8
?IsThisSpotOK@PATH@@AAEHHH@Z ENDP			; PATH::IsThisSpotOK
_TEXT	ENDS
PUBLIC	?FindNextDir@PATH@@AAEHHHHHH_N0@Z		; PATH::FindNextDir
; Function compile flags: /Ogtp
;	COMDAT ?FindNextDir@PATH@@AAEHHHHHH_N0@Z
_TEXT	SEGMENT
tv1162 = -12						; size = 4
_endx$188343 = -12					; size = 4
_endx$188334 = -12					; size = 4
_endy$188344 = -8					; size = 4
_endy$188335 = -8					; size = 4
_endy$188326 = -8					; size = 4
_WhichDir$ = -4						; size = 4
_sx$ = 8						; size = 4
tv1077 = 12						; size = 4
$T212335 = 12						; size = 4
_dir2$188359 = 12					; size = 4
_dir$188355 = 12					; size = 4
_sy$ = 12						; size = 4
_dx$ = 16						; size = 4
_dy$ = 20						; size = 4
_dirstart$ = 24						; size = 4
tv761 = 28						; size = 4
tv678 = 28						; size = 4
_endx$188325 = 28					; size = 4
_i$ = 28						; size = 4
_First$ = 28						; size = 1
$T212373 = 32						; size = 4
$T212354 = 32						; size = 4
_ErrorCheck$ = 32					; size = 1
?FindNextDir@PATH@@AAEHHHHHH_N0@Z PROC			; PATH::FindNextDir, COMDAT
; _this$ = ecx

; 136  : 	{

  00000	55		 push	 ebp
  00001	8b ec		 mov	 ebp, esp
  00003	83 ec 0c	 sub	 esp, 12			; 0000000cH

; 137  : 		int MinDist = 10000000;
; 138  : 		long ldir;
; 139  : 		int WhichDir = 0;
; 140  : 		int i;
; 141  : 
; 142  : 		if ( First != 0 )

  00006	80 7d 1c 00	 cmp	 BYTE PTR _First$[ebp], 0
  0000a	8b 55 18	 mov	 edx, DWORD PTR _dirstart$[ebp]
  0000d	53		 push	 ebx
  0000e	56		 push	 esi
  0000f	57		 push	 edi
  00010	bb 80 96 98 00	 mov	 ebx, 10000000		; 00989680H
  00015	c7 45 fc 00 00
	00 00		 mov	 DWORD PTR _WhichDir$[ebp], 0
  0001c	0f 84 15 02 00
	00		 je	 $LN27@FindNextDi

; 143  : 		{
; 144  : 			for ( i = 0 ; i<8 ; i++ )

  00022	bf 02 00 00 00	 mov	 edi, 2
  00027	89 7d f4	 mov	 DWORD PTR tv1162[ebp], edi
  0002a	8d 9b 00 00 00
	00		 npad	 6
$LL127@FindNextDi:

; 145  : 			{
; 146  : 				ldir = i % 8;
; 147  : 				int endx = sx + this->Dir[ldir*2];
; 148  : 				int endy = sy + this->Dir[ldir*2+1];
; 149  : 				int dist = this->GetDist(endx, endy, dx, dy);

  00030	8b 75 10	 mov	 esi, DWORD PTR _dx$[ebp]
  00033	83 c7 fe	 add	 edi, -2			; fffffffeH
  00036	83 e7 07	 and	 edi, 7
  00039	8b 94 f9 f4 03
	00 00		 mov	 edx, DWORD PTR [ecx+edi*8+1012]
  00040	03 55 08	 add	 edx, DWORD PTR _sx$[ebp]
  00043	8b 84 f9 f8 03
	00 00		 mov	 eax, DWORD PTR [ecx+edi*8+1016]
  0004a	03 45 0c	 add	 eax, DWORD PTR _sy$[ebp]
  0004d	2b f2		 sub	 esi, edx
  0004f	89 55 1c	 mov	 DWORD PTR _endx$188325[ebp], edx
  00052	0f af f6	 imul	 esi, esi
  00055	8b 55 14	 mov	 edx, DWORD PTR _dy$[ebp]
  00058	2b d0		 sub	 edx, eax
  0005a	0f af d2	 imul	 edx, edx
  0005d	03 d6		 add	 edx, esi
  0005f	89 45 f8	 mov	 DWORD PTR _endy$188326[ebp], eax

; 150  : 
; 151  : 				if ( MinDist > dist )

  00062	3b da		 cmp	 ebx, edx
  00064	7e 2f		 jle	 SHORT $LN25@FindNextDi

; 152  : 				{
; 153  : 					if ( this->IsThisSpotOK(endx, endy) != FALSE )

  00066	8b 75 1c	 mov	 esi, DWORD PTR _endx$188325[ebp]
  00069	85 f6		 test	 esi, esi
  0006b	78 28		 js	 SHORT $LN25@FindNextDi
  0006d	8b 01		 mov	 eax, DWORD PTR [ecx]
  0006f	3b f0		 cmp	 esi, eax
  00071	7d 22		 jge	 SHORT $LN25@FindNextDi
  00073	8b 75 f8	 mov	 esi, DWORD PTR _endy$188326[ebp]
  00076	85 f6		 test	 esi, esi
  00078	78 1b		 js	 SHORT $LN25@FindNextDi
  0007a	3b f0		 cmp	 esi, eax
  0007c	7d 17		 jge	 SHORT $LN25@FindNextDi
  0007e	0f af c6	 imul	 eax, esi
  00081	03 81 40 04 00
	00		 add	 eax, DWORD PTR [ecx+1088]
  00087	8b 75 1c	 mov	 esi, DWORD PTR _endx$188325[ebp]
  0008a	80 3c 30 00	 cmp	 BYTE PTR [eax+esi], 0
  0008e	75 05		 jne	 SHORT $LN25@FindNextDi

; 154  : 					{
; 155  : 						MinDist = dist;

  00090	8b da		 mov	 ebx, edx

; 156  : 						WhichDir = ldir;

  00092	89 7d fc	 mov	 DWORD PTR _WhichDir$[ebp], edi
$LN25@FindNextDi:

; 145  : 			{
; 146  : 				ldir = i % 8;
; 147  : 				int endx = sx + this->Dir[ldir*2];
; 148  : 				int endy = sy + this->Dir[ldir*2+1];
; 149  : 				int dist = this->GetDist(endx, endy, dx, dy);

  00095	8b 7d f4	 mov	 edi, DWORD PTR tv1162[ebp]
  00098	8b 75 10	 mov	 esi, DWORD PTR _dx$[ebp]
  0009b	4f		 dec	 edi
  0009c	83 e7 07	 and	 edi, 7
  0009f	8b 94 f9 f4 03
	00 00		 mov	 edx, DWORD PTR [ecx+edi*8+1012]
  000a6	03 55 08	 add	 edx, DWORD PTR _sx$[ebp]
  000a9	8b 84 f9 f8 03
	00 00		 mov	 eax, DWORD PTR [ecx+edi*8+1016]
  000b0	03 45 0c	 add	 eax, DWORD PTR _sy$[ebp]
  000b3	2b f2		 sub	 esi, edx
  000b5	89 55 1c	 mov	 DWORD PTR _endx$188325[ebp], edx
  000b8	0f af f6	 imul	 esi, esi
  000bb	8b 55 14	 mov	 edx, DWORD PTR _dy$[ebp]
  000be	2b d0		 sub	 edx, eax
  000c0	0f af d2	 imul	 edx, edx
  000c3	03 d6		 add	 edx, esi
  000c5	89 45 f8	 mov	 DWORD PTR _endy$188326[ebp], eax

; 150  : 
; 151  : 				if ( MinDist > dist )

  000c8	3b da		 cmp	 ebx, edx
  000ca	7e 2f		 jle	 SHORT $LN108@FindNextDi

; 152  : 				{
; 153  : 					if ( this->IsThisSpotOK(endx, endy) != FALSE )

  000cc	8b 75 1c	 mov	 esi, DWORD PTR _endx$188325[ebp]
  000cf	85 f6		 test	 esi, esi
  000d1	78 28		 js	 SHORT $LN108@FindNextDi
  000d3	8b 01		 mov	 eax, DWORD PTR [ecx]
  000d5	3b f0		 cmp	 esi, eax
  000d7	7d 22		 jge	 SHORT $LN108@FindNextDi
  000d9	8b 75 f8	 mov	 esi, DWORD PTR _endy$188326[ebp]
  000dc	85 f6		 test	 esi, esi
  000de	78 1b		 js	 SHORT $LN108@FindNextDi
  000e0	3b f0		 cmp	 esi, eax
  000e2	7d 17		 jge	 SHORT $LN108@FindNextDi
  000e4	0f af c6	 imul	 eax, esi
  000e7	03 81 40 04 00
	00		 add	 eax, DWORD PTR [ecx+1088]
  000ed	8b 75 1c	 mov	 esi, DWORD PTR _endx$188325[ebp]
  000f0	80 3c 30 00	 cmp	 BYTE PTR [eax+esi], 0
  000f4	75 05		 jne	 SHORT $LN108@FindNextDi

; 154  : 					{
; 155  : 						MinDist = dist;

  000f6	8b da		 mov	 ebx, edx

; 156  : 						WhichDir = ldir;

  000f8	89 7d fc	 mov	 DWORD PTR _WhichDir$[ebp], edi
$LN108@FindNextDi:

; 145  : 			{
; 146  : 				ldir = i % 8;
; 147  : 				int endx = sx + this->Dir[ldir*2];
; 148  : 				int endy = sy + this->Dir[ldir*2+1];
; 149  : 				int dist = this->GetDist(endx, endy, dx, dy);

  000fb	8b 7d f4	 mov	 edi, DWORD PTR tv1162[ebp]
  000fe	8b 75 10	 mov	 esi, DWORD PTR _dx$[ebp]
  00101	83 e7 07	 and	 edi, 7
  00104	8b 94 f9 f4 03
	00 00		 mov	 edx, DWORD PTR [ecx+edi*8+1012]
  0010b	03 55 08	 add	 edx, DWORD PTR _sx$[ebp]
  0010e	8b 84 f9 f8 03
	00 00		 mov	 eax, DWORD PTR [ecx+edi*8+1016]
  00115	03 45 0c	 add	 eax, DWORD PTR _sy$[ebp]
  00118	2b f2		 sub	 esi, edx
  0011a	89 55 1c	 mov	 DWORD PTR _endx$188325[ebp], edx
  0011d	0f af f6	 imul	 esi, esi
  00120	8b 55 14	 mov	 edx, DWORD PTR _dy$[ebp]
  00123	2b d0		 sub	 edx, eax
  00125	0f af d2	 imul	 edx, edx
  00128	03 d6		 add	 edx, esi
  0012a	89 45 f8	 mov	 DWORD PTR _endy$188326[ebp], eax

; 150  : 
; 151  : 				if ( MinDist > dist )

  0012d	3b da		 cmp	 ebx, edx
  0012f	7e 2f		 jle	 SHORT $LN112@FindNextDi

; 152  : 				{
; 153  : 					if ( this->IsThisSpotOK(endx, endy) != FALSE )

  00131	8b 75 1c	 mov	 esi, DWORD PTR _endx$188325[ebp]
  00134	85 f6		 test	 esi, esi
  00136	78 28		 js	 SHORT $LN112@FindNextDi
  00138	8b 01		 mov	 eax, DWORD PTR [ecx]
  0013a	3b f0		 cmp	 esi, eax
  0013c	7d 22		 jge	 SHORT $LN112@FindNextDi
  0013e	8b 75 f8	 mov	 esi, DWORD PTR _endy$188326[ebp]
  00141	85 f6		 test	 esi, esi
  00143	78 1b		 js	 SHORT $LN112@FindNextDi
  00145	3b f0		 cmp	 esi, eax
  00147	7d 17		 jge	 SHORT $LN112@FindNextDi
  00149	0f af c6	 imul	 eax, esi
  0014c	03 81 40 04 00
	00		 add	 eax, DWORD PTR [ecx+1088]
  00152	8b 75 1c	 mov	 esi, DWORD PTR _endx$188325[ebp]
  00155	80 3c 30 00	 cmp	 BYTE PTR [eax+esi], 0
  00159	75 05		 jne	 SHORT $LN112@FindNextDi

; 154  : 					{
; 155  : 						MinDist = dist;

  0015b	8b da		 mov	 ebx, edx

; 156  : 						WhichDir = ldir;

  0015d	89 7d fc	 mov	 DWORD PTR _WhichDir$[ebp], edi
$LN112@FindNextDi:

; 145  : 			{
; 146  : 				ldir = i % 8;
; 147  : 				int endx = sx + this->Dir[ldir*2];
; 148  : 				int endy = sy + this->Dir[ldir*2+1];
; 149  : 				int dist = this->GetDist(endx, endy, dx, dy);

  00160	8b 7d f4	 mov	 edi, DWORD PTR tv1162[ebp]
  00163	8b 75 10	 mov	 esi, DWORD PTR _dx$[ebp]
  00166	47		 inc	 edi
  00167	83 e7 07	 and	 edi, 7
  0016a	8b 94 f9 f4 03
	00 00		 mov	 edx, DWORD PTR [ecx+edi*8+1012]
  00171	03 55 08	 add	 edx, DWORD PTR _sx$[ebp]
  00174	8b 84 f9 f8 03
	00 00		 mov	 eax, DWORD PTR [ecx+edi*8+1016]
  0017b	03 45 0c	 add	 eax, DWORD PTR _sy$[ebp]
  0017e	2b f2		 sub	 esi, edx
  00180	89 55 1c	 mov	 DWORD PTR _endx$188325[ebp], edx
  00183	0f af f6	 imul	 esi, esi
  00186	8b 55 14	 mov	 edx, DWORD PTR _dy$[ebp]
  00189	2b d0		 sub	 edx, eax
  0018b	0f af d2	 imul	 edx, edx
  0018e	03 d6		 add	 edx, esi
  00190	89 45 f8	 mov	 DWORD PTR _endy$188326[ebp], eax

; 150  : 
; 151  : 				if ( MinDist > dist )

  00193	3b da		 cmp	 ebx, edx
  00195	7e 2f		 jle	 SHORT $LN128@FindNextDi

; 152  : 				{
; 153  : 					if ( this->IsThisSpotOK(endx, endy) != FALSE )

  00197	8b 75 1c	 mov	 esi, DWORD PTR _endx$188325[ebp]
  0019a	85 f6		 test	 esi, esi
  0019c	78 28		 js	 SHORT $LN128@FindNextDi
  0019e	8b 01		 mov	 eax, DWORD PTR [ecx]
  001a0	3b f0		 cmp	 esi, eax
  001a2	7d 22		 jge	 SHORT $LN128@FindNextDi
  001a4	8b 75 f8	 mov	 esi, DWORD PTR _endy$188326[ebp]
  001a7	85 f6		 test	 esi, esi
  001a9	78 1b		 js	 SHORT $LN128@FindNextDi
  001ab	3b f0		 cmp	 esi, eax
  001ad	7d 17		 jge	 SHORT $LN128@FindNextDi
  001af	0f af c6	 imul	 eax, esi
  001b2	03 81 40 04 00
	00		 add	 eax, DWORD PTR [ecx+1088]
  001b8	8b 75 1c	 mov	 esi, DWORD PTR _endx$188325[ebp]
  001bb	80 3c 30 00	 cmp	 BYTE PTR [eax+esi], 0
  001bf	75 05		 jne	 SHORT $LN128@FindNextDi

; 154  : 					{
; 155  : 						MinDist = dist;

  001c1	8b da		 mov	 ebx, edx

; 156  : 						WhichDir = ldir;

  001c3	89 7d fc	 mov	 DWORD PTR _WhichDir$[ebp], edi
$LN128@FindNextDi:

; 143  : 		{
; 144  : 			for ( i = 0 ; i<8 ; i++ )

  001c6	8b 7d f4	 mov	 edi, DWORD PTR tv1162[ebp]
  001c9	83 c7 04	 add	 edi, 4
  001cc	8d 47 fe	 lea	 eax, DWORD PTR [edi-2]
  001cf	89 7d f4	 mov	 DWORD PTR tv1162[ebp], edi
  001d2	83 f8 08	 cmp	 eax, 8
  001d5	0f 8c 55 fe ff
	ff		 jl	 $LL127@FindNextDi

; 157  : 					}
; 158  : 				}
; 159  : 			}
; 160  : 		}
; 161  : 		else

  001db	8b 75 0c	 mov	 esi, DWORD PTR _sy$[ebp]
  001de	8b 7d 08	 mov	 edi, DWORD PTR _sx$[ebp]
$LN142@FindNextDi:

; 181  : 			{
; 182  : 				for ( i = dirstart+2 ; i <= dirstart+6 ; i++ )

  001e1	8b 55 18	 mov	 edx, DWORD PTR _dirstart$[ebp]
$LN12@FindNextDi:

; 195  : 						}
; 196  : 					}
; 197  : 				}
; 198  : 			}
; 199  : 		}
; 200  : 		int LastDist;
; 201  : 
; 202  : 		this->LastDir = dirstart;

  001e4	89 91 34 04 00
	00		 mov	 DWORD PTR [ecx+1076], edx

; 203  : 		LastDist = this->GetDist(sx, sy, sx + this->Dir[this->LastDir*2], sy + this->Dir[this->LastDir*2+1]);

  001ea	8b 84 d1 f8 03
	00 00		 mov	 eax, DWORD PTR [ecx+edx*8+1016]
  001f1	8b 55 18	 mov	 edx, DWORD PTR _dirstart$[ebp]
  001f4	0f af c0	 imul	 eax, eax
  001f7	89 45 1c	 mov	 DWORD PTR tv678[ebp], eax
  001fa	8b 84 d1 f4 03
	00 00		 mov	 eax, DWORD PTR [ecx+edx*8+1012]
  00201	0f af c0	 imul	 eax, eax
  00204	89 45 0c	 mov	 DWORD PTR tv1077[ebp], eax
  00207	8b 45 1c	 mov	 eax, DWORD PTR tv678[ebp]
  0020a	03 45 0c	 add	 eax, DWORD PTR tv1077[ebp]

; 204  : 
; 205  : 		if ( ( LastDist > MinDist - 6 ) && ( LastDist < MinDist + 6 ) && ( MinDist >= 25 ) )

  0020d	8d 53 fa	 lea	 edx, DWORD PTR [ebx-6]
  00210	3b c2		 cmp	 eax, edx
  00212	0f 8e 5d 01 00
	00		 jle	 $LN143@FindNextDi
  00218	8d 53 06	 lea	 edx, DWORD PTR [ebx+6]
  0021b	3b c2		 cmp	 eax, edx
  0021d	0f 8d 52 01 00
	00		 jge	 $LN143@FindNextDi
  00223	83 fb 19	 cmp	 ebx, 25			; 00000019H
  00226	0f 8c 49 01 00
	00		 jl	 $LN143@FindNextDi

; 206  : 		{
; 207  : 			WhichDir = this->LastDir;

  0022c	8b 45 18	 mov	 eax, DWORD PTR _dirstart$[ebp]
  0022f	89 45 fc	 mov	 DWORD PTR _WhichDir$[ebp], eax
  00232	e9 41 01 00 00	 jmp	 $LN9@FindNextDi
$LN27@FindNextDi:

; 162  : 		{
; 163  : 			for ( i = dirstart+7 ; i <= dirstart+9 ; i++ )

  00237	8b 7d 08	 mov	 edi, DWORD PTR _sx$[ebp]
  0023a	8d 42 07	 lea	 eax, DWORD PTR [edx+7]
  0023d	8d 72 09	 lea	 esi, DWORD PTR [edx+9]
  00240	3b c6		 cmp	 eax, esi
  00242	8b 75 0c	 mov	 esi, DWORD PTR _sy$[ebp]
  00245	89 45 1c	 mov	 DWORD PTR _i$[ebp], eax
  00248	0f 8f 8e 00 00
	00		 jg	 $LN121@FindNextDi
  0024e	8b ff		 npad	 2
$LL20@FindNextDi:

; 164  : 			{
; 165  : 				ldir = i % 8;

  00250	25 07 00 00 80	 and	 eax, -2147483641	; 80000007H
  00255	79 05		 jns	 SHORT $LN145@FindNextDi
  00257	48		 dec	 eax
  00258	83 c8 f8	 or	 eax, -8			; fffffff8H
  0025b	40		 inc	 eax
$LN145@FindNextDi:

; 166  : 				int endx = sx + this->Dir[ldir*2];

  0025c	8b 94 c1 f4 03
	00 00		 mov	 edx, DWORD PTR [ecx+eax*8+1012]
  00263	03 d7		 add	 edx, edi

; 167  : 				int endy = sy + this->Dir[ldir*2+1];

  00265	8b bc c1 f8 03
	00 00		 mov	 edi, DWORD PTR [ecx+eax*8+1016]
  0026c	03 fe		 add	 edi, esi

; 168  : 				int dist = this->GetDist(endx, endy, dx, dy);

  0026e	8b 75 10	 mov	 esi, DWORD PTR _dx$[ebp]
  00271	2b f2		 sub	 esi, edx
  00273	89 55 f4	 mov	 DWORD PTR _endx$188334[ebp], edx
  00276	0f af f6	 imul	 esi, esi
  00279	8b 55 14	 mov	 edx, DWORD PTR _dy$[ebp]
  0027c	2b d7		 sub	 edx, edi
  0027e	0f af d2	 imul	 edx, edx
  00281	03 d6		 add	 edx, esi
  00283	89 7d f8	 mov	 DWORD PTR _endy$188335[ebp], edi

; 169  : 
; 170  : 				if ( MinDist > dist )

  00286	3b da		 cmp	 ebx, edx
  00288	7e 2f		 jle	 SHORT $LN19@FindNextDi

; 171  : 				{
; 172  : 					if ( this->IsThisSpotOK(endx, endy) != FALSE )

  0028a	8b 7d f4	 mov	 edi, DWORD PTR _endx$188334[ebp]
  0028d	85 ff		 test	 edi, edi
  0028f	78 28		 js	 SHORT $LN19@FindNextDi
  00291	8b 31		 mov	 esi, DWORD PTR [ecx]
  00293	3b fe		 cmp	 edi, esi
  00295	7d 22		 jge	 SHORT $LN19@FindNextDi
  00297	8b 7d f8	 mov	 edi, DWORD PTR _endy$188335[ebp]
  0029a	85 ff		 test	 edi, edi
  0029c	78 1b		 js	 SHORT $LN19@FindNextDi
  0029e	3b fe		 cmp	 edi, esi
  002a0	7d 17		 jge	 SHORT $LN19@FindNextDi
  002a2	0f af f7	 imul	 esi, edi
  002a5	03 b1 40 04 00
	00		 add	 esi, DWORD PTR [ecx+1088]
  002ab	8b 7d f4	 mov	 edi, DWORD PTR _endx$188334[ebp]
  002ae	80 3c 3e 00	 cmp	 BYTE PTR [esi+edi], 0
  002b2	75 05		 jne	 SHORT $LN19@FindNextDi

; 173  : 					{
; 174  : 						MinDist = dist;

  002b4	8b da		 mov	 ebx, edx

; 175  : 						WhichDir = ldir;

  002b6	89 45 fc	 mov	 DWORD PTR _WhichDir$[ebp], eax
$LN19@FindNextDi:

; 162  : 		{
; 163  : 			for ( i = dirstart+7 ; i <= dirstart+9 ; i++ )

  002b9	8b 45 1c	 mov	 eax, DWORD PTR _i$[ebp]
  002bc	8b 55 18	 mov	 edx, DWORD PTR _dirstart$[ebp]

; 176  : 					}
; 177  : 				}
; 178  : 			}
; 179  : 
; 180  : 			if ( MinDist == 10000000 )

  002bf	8b 7d 08	 mov	 edi, DWORD PTR _sx$[ebp]
  002c2	40		 inc	 eax
  002c3	8d 72 09	 lea	 esi, DWORD PTR [edx+9]
  002c6	3b c6		 cmp	 eax, esi
  002c8	8b 75 0c	 mov	 esi, DWORD PTR _sy$[ebp]
  002cb	89 45 1c	 mov	 DWORD PTR _i$[ebp], eax
  002ce	7e 80		 jle	 SHORT $LL20@FindNextDi
  002d0	81 fb 80 96 98
	00		 cmp	 ebx, 10000000		; 00989680H
  002d6	0f 85 08 ff ff
	ff		 jne	 $LN12@FindNextDi
$LN121@FindNextDi:

; 181  : 			{
; 182  : 				for ( i = dirstart+2 ; i <= dirstart+6 ; i++ )

  002dc	8d 42 02	 lea	 eax, DWORD PTR [edx+2]
  002df	83 c2 06	 add	 edx, 6
  002e2	89 45 1c	 mov	 DWORD PTR _i$[ebp], eax
  002e5	3b c2		 cmp	 eax, edx
  002e7	0f 8f f4 fe ff
	ff		 jg	 $LN142@FindNextDi
  002ed	8d 49 00	 npad	 3
$LL14@FindNextDi:

; 183  : 				{
; 184  : 					ldir = i % 8;

  002f0	25 07 00 00 80	 and	 eax, -2147483641	; 80000007H
  002f5	79 05		 jns	 SHORT $LN146@FindNextDi
  002f7	48		 dec	 eax
  002f8	83 c8 f8	 or	 eax, -8			; fffffff8H
  002fb	40		 inc	 eax
$LN146@FindNextDi:

; 185  : 					int endx = sx + this->Dir[ldir*2];

  002fc	8b 94 c1 f4 03
	00 00		 mov	 edx, DWORD PTR [ecx+eax*8+1012]
  00303	03 d7		 add	 edx, edi

; 186  : 					int endy = sy + this->Dir[ldir*2+1];

  00305	8b bc c1 f8 03
	00 00		 mov	 edi, DWORD PTR [ecx+eax*8+1016]
  0030c	03 fe		 add	 edi, esi

; 187  : 					int dist = this->GetDist(endx, endy, dx, dy);

  0030e	8b 75 10	 mov	 esi, DWORD PTR _dx$[ebp]
  00311	2b f2		 sub	 esi, edx
  00313	89 55 f4	 mov	 DWORD PTR _endx$188343[ebp], edx
  00316	0f af f6	 imul	 esi, esi
  00319	8b 55 14	 mov	 edx, DWORD PTR _dy$[ebp]
  0031c	2b d7		 sub	 edx, edi
  0031e	0f af d2	 imul	 edx, edx
  00321	03 d6		 add	 edx, esi
  00323	89 7d f8	 mov	 DWORD PTR _endy$188344[ebp], edi

; 188  : 
; 189  : 					if ( MinDist > dist )

  00326	3b da		 cmp	 ebx, edx
  00328	7e 2f		 jle	 SHORT $LN13@FindNextDi

; 190  : 					{
; 191  : 						if ( this->IsThisSpotOK(endx, endy) != FALSE )

  0032a	8b 7d f4	 mov	 edi, DWORD PTR _endx$188343[ebp]
  0032d	85 ff		 test	 edi, edi
  0032f	78 28		 js	 SHORT $LN13@FindNextDi
  00331	8b 31		 mov	 esi, DWORD PTR [ecx]
  00333	3b fe		 cmp	 edi, esi
  00335	7d 22		 jge	 SHORT $LN13@FindNextDi
  00337	8b 7d f8	 mov	 edi, DWORD PTR _endy$188344[ebp]
  0033a	85 ff		 test	 edi, edi
  0033c	78 1b		 js	 SHORT $LN13@FindNextDi
  0033e	3b fe		 cmp	 edi, esi
  00340	7d 17		 jge	 SHORT $LN13@FindNextDi
  00342	0f af f7	 imul	 esi, edi
  00345	03 b1 40 04 00
	00		 add	 esi, DWORD PTR [ecx+1088]
  0034b	8b 7d f4	 mov	 edi, DWORD PTR _endx$188343[ebp]
  0034e	80 3c 3e 00	 cmp	 BYTE PTR [esi+edi], 0
  00352	75 05		 jne	 SHORT $LN13@FindNextDi

; 192  : 						{
; 193  : 							MinDist = dist;

  00354	8b da		 mov	 ebx, edx

; 194  : 							WhichDir = ldir;

  00356	89 45 fc	 mov	 DWORD PTR _WhichDir$[ebp], eax
$LN13@FindNextDi:

; 181  : 			{
; 182  : 				for ( i = dirstart+2 ; i <= dirstart+6 ; i++ )

  00359	8b 45 1c	 mov	 eax, DWORD PTR _i$[ebp]
  0035c	8b 55 18	 mov	 edx, DWORD PTR _dirstart$[ebp]
  0035f	8b 7d 08	 mov	 edi, DWORD PTR _sx$[ebp]
  00362	40		 inc	 eax
  00363	8d 72 06	 lea	 esi, DWORD PTR [edx+6]
  00366	3b c6		 cmp	 eax, esi
  00368	8b 75 0c	 mov	 esi, DWORD PTR _sy$[ebp]
  0036b	89 45 1c	 mov	 DWORD PTR _i$[ebp], eax
  0036e	7e 80		 jle	 SHORT $LL14@FindNextDi
  00370	e9 6f fe ff ff	 jmp	 $LN12@FindNextDi
$LN143@FindNextDi:

; 206  : 		{
; 207  : 			WhichDir = this->LastDir;

  00375	8b 45 fc	 mov	 eax, DWORD PTR _WhichDir$[ebp]
$LN9@FindNextDi:

; 208  : 		}
; 209  : 
; 210  : 		if ( MinDist == 10000000 )

  00378	81 fb 80 96 98
	00		 cmp	 ebx, 10000000		; 00989680H

; 211  : 		{
; 212  : 			return -1;

  0037e	0f 84 4b 01 00
	00		 je	 $LN149@FindNextDi

; 213  : 		}
; 214  : 		
; 215  : 		if ( this->CanWeMoveForward(sx+this->Dir[((WhichDir*2))], sy+this->Dir[((WhichDir*2))+1]) != FALSE )

  00384	8b 9c c1 f8 03
	00 00		 mov	 ebx, DWORD PTR [ecx+eax*8+1016]
  0038b	8b 11		 mov	 edx, DWORD PTR [ecx]
  0038d	8b 84 c1 f4 03
	00 00		 mov	 eax, DWORD PTR [ecx+eax*8+1012]
  00394	03 de		 add	 ebx, esi
  00396	0f af d3	 imul	 edx, ebx
  00399	03 c7		 add	 eax, edi
  0039b	89 45 0c	 mov	 DWORD PTR $T212335[ebp], eax
  0039e	03 d0		 add	 edx, eax
  003a0	8b 01		 mov	 eax, DWORD PTR [ecx]
  003a2	39 45 0c	 cmp	 DWORD PTR $T212335[ebp], eax
  003a5	7d 35		 jge	 SHORT $LN144@FindNextDi
  003a7	83 7d 0c 00	 cmp	 DWORD PTR $T212335[ebp], 0
  003ab	7c 2f		 jl	 SHORT $LN144@FindNextDi
  003ad	3b 59 04	 cmp	 ebx, DWORD PTR [ecx+4]
  003b0	7d 2a		 jge	 SHORT $LN144@FindNextDi
  003b2	85 db		 test	 ebx, ebx
  003b4	78 26		 js	 SHORT $LN144@FindNextDi
  003b6	8b 99 3c 04 00
	00		 mov	 ebx, DWORD PTR [ecx+1084]
  003bc	80 3c 1a 01	 cmp	 BYTE PTR [edx+ebx], 1
  003c0	77 10		 ja	 SHORT $LN53@FindNextDi
  003c2	8b 99 40 04 00
	00		 mov	 ebx, DWORD PTR [ecx+1088]
  003c8	80 3c 13 00	 cmp	 BYTE PTR [ebx+edx], 0
  003cc	0f 84 09 01 00
	00		 je	 $LN124@FindNextDi
$LN53@FindNextDi:
  003d2	8b 81 40 04 00
	00		 mov	 eax, DWORD PTR [ecx+1088]
  003d8	c6 04 02 01	 mov	 BYTE PTR [edx+eax], 1
$LN144@FindNextDi:

; 226  : 		}
; 227  : 
; 228  : 		if ( ErrorCheck != 0 )

  003dc	80 7d 20 00	 cmp	 BYTE PTR _ErrorCheck$[ebp], 0
  003e0	0f 84 da 00 00
	00		 je	 $LN2@FindNextDi

; 229  : 		{
; 230  : 			int dir = WhichDir+7;

  003e6	8b 45 fc	 mov	 eax, DWORD PTR _WhichDir$[ebp]
  003e9	83 c0 07	 add	 eax, 7

; 231  : 
; 232  : 			dir %= 8;

  003ec	25 07 00 00 80	 and	 eax, -2147483641	; 80000007H
  003f1	79 05		 jns	 SHORT $LN147@FindNextDi
  003f3	48		 dec	 eax
  003f4	83 c8 f8	 or	 eax, -8			; fffffff8H
  003f7	40		 inc	 eax
$LN147@FindNextDi:

; 233  : 
; 234  : 			if (this->CanWeMoveForward(sx + this->Dir[dir*2], sy + this->Dir[dir*2+1]) != FALSE )

  003f8	8b 9c c1 f8 03
	00 00		 mov	 ebx, DWORD PTR [ecx+eax*8+1016]
  003ff	8b 11		 mov	 edx, DWORD PTR [ecx]
  00401	03 de		 add	 ebx, esi
  00403	0f af d3	 imul	 edx, ebx
  00406	89 45 0c	 mov	 DWORD PTR _dir$188355[ebp], eax
  00409	8b 84 c1 f4 03
	00 00		 mov	 eax, DWORD PTR [ecx+eax*8+1012]
  00410	03 c7		 add	 eax, edi
  00412	89 45 20	 mov	 DWORD PTR $T212354[ebp], eax
  00415	03 d0		 add	 edx, eax
  00417	8b 01		 mov	 eax, DWORD PTR [ecx]
  00419	39 45 20	 cmp	 DWORD PTR $T212354[ebp], eax
  0041c	7d 35		 jge	 SHORT $LN4@FindNextDi
  0041e	83 7d 20 00	 cmp	 DWORD PTR $T212354[ebp], 0
  00422	7c 2f		 jl	 SHORT $LN4@FindNextDi
  00424	3b 59 04	 cmp	 ebx, DWORD PTR [ecx+4]
  00427	7d 2a		 jge	 SHORT $LN4@FindNextDi
  00429	85 db		 test	 ebx, ebx
  0042b	78 26		 js	 SHORT $LN4@FindNextDi
  0042d	8b 99 3c 04 00
	00		 mov	 ebx, DWORD PTR [ecx+1084]
  00433	80 3c 1a 01	 cmp	 BYTE PTR [edx+ebx], 1
  00437	77 10		 ja	 SHORT $LN65@FindNextDi
  00439	8b 99 40 04 00
	00		 mov	 ebx, DWORD PTR [ecx+1088]
  0043f	80 3c 13 00	 cmp	 BYTE PTR [ebx+edx], 0
  00443	0f 84 e1 00 00
	00		 je	 $LN125@FindNextDi
$LN65@FindNextDi:
  00449	8b 81 40 04 00
	00		 mov	 eax, DWORD PTR [ecx+1088]
  0044f	c6 04 02 01	 mov	 BYTE PTR [edx+eax], 1
$LN4@FindNextDi:

; 244  : 			}
; 245  : 
; 246  : 			int dir2 = WhichDir+9;

  00453	8b 45 fc	 mov	 eax, DWORD PTR _WhichDir$[ebp]
  00456	83 c0 09	 add	 eax, 9

; 247  : 			dir2 %= 8;

  00459	25 07 00 00 80	 and	 eax, -2147483641	; 80000007H
  0045e	79 05		 jns	 SHORT $LN148@FindNextDi
  00460	48		 dec	 eax
  00461	83 c8 f8	 or	 eax, -8			; fffffff8H
  00464	40		 inc	 eax
$LN148@FindNextDi:

; 248  : 			if (CanWeMoveForward(sx+this->Dir[dir2*2], sy+this->Dir[dir2*2+1]) != FALSE )

  00465	8b 9c c1 f8 03
	00 00		 mov	 ebx, DWORD PTR [ecx+eax*8+1016]
  0046c	8b 11		 mov	 edx, DWORD PTR [ecx]
  0046e	03 de		 add	 ebx, esi
  00470	0f af d3	 imul	 edx, ebx
  00473	89 45 0c	 mov	 DWORD PTR _dir2$188359[ebp], eax
  00476	8b 84 c1 f4 03
	00 00		 mov	 eax, DWORD PTR [ecx+eax*8+1012]
  0047d	03 c7		 add	 eax, edi
  0047f	89 45 20	 mov	 DWORD PTR $T212373[ebp], eax
  00482	03 d0		 add	 edx, eax
  00484	8b 01		 mov	 eax, DWORD PTR [ecx]
  00486	39 45 20	 cmp	 DWORD PTR $T212373[ebp], eax
  00489	7d 35		 jge	 SHORT $LN2@FindNextDi
  0048b	83 7d 20 00	 cmp	 DWORD PTR $T212373[ebp], 0
  0048f	7c 2f		 jl	 SHORT $LN2@FindNextDi
  00491	3b 59 04	 cmp	 ebx, DWORD PTR [ecx+4]
  00494	7d 2a		 jge	 SHORT $LN2@FindNextDi
  00496	85 db		 test	 ebx, ebx
  00498	78 26		 js	 SHORT $LN2@FindNextDi
  0049a	8b 99 3c 04 00
	00		 mov	 ebx, DWORD PTR [ecx+1084]
  004a0	80 3c 1a 01	 cmp	 BYTE PTR [edx+ebx], 1
  004a4	77 10		 ja	 SHORT $LN77@FindNextDi
  004a6	8b 99 40 04 00
	00		 mov	 ebx, DWORD PTR [ecx+1088]
  004ac	80 3c 13 00	 cmp	 BYTE PTR [ebx+edx], 0
  004b0	0f 84 c3 00 00
	00		 je	 $LN126@FindNextDi
$LN77@FindNextDi:
  004b6	8b 81 40 04 00
	00		 mov	 eax, DWORD PTR [ecx+1088]
  004bc	c6 04 02 01	 mov	 BYTE PTR [edx+eax], 1
$LN2@FindNextDi:

; 251  : 
; 252  : 				if ( path != -1 )
; 253  : 				{
; 254  : 					this->HitMap[sx + sy * this->Width] = 1;
; 255  : 					this->NumPath = path;
; 256  : 				}
; 257  : 				return dir2;
; 258  : 			}
; 259  : 		}
; 260  : 		
; 261  : 		this->HitMap[sx + sy*this->Width]=1;

  004c0	8b 11		 mov	 edx, DWORD PTR [ecx]
  004c2	0f af d6	 imul	 edx, esi
  004c5	03 91 40 04 00
	00		 add	 edx, DWORD PTR [ecx+1088]
  004cb	c6 04 3a 01	 mov	 BYTE PTR [edx+edi], 1
$LN149@FindNextDi:

; 262  : 		return -1;

  004cf	5f		 pop	 edi
  004d0	5e		 pop	 esi
  004d1	83 c8 ff	 or	 eax, -1
  004d4	5b		 pop	 ebx

; 263  : 	};	// line : 155

  004d5	8b e5		 mov	 esp, ebp
  004d7	5d		 pop	 ebp
  004d8	c2 1c 00	 ret	 28			; 0000001cH
$LN124@FindNextDi:

; 216  : 		{
; 217  : 			int path = this->VerifyThatOnPath(sx, sy);

  004db	33 d2		 xor	 edx, edx
  004dd	39 51 08	 cmp	 DWORD PTR [ecx+8], edx
  004e0	7e 3c		 jle	 SHORT $LN6@FindNextDi
$LL62@FindNextDi:
  004e2	0f b6 5c 11 0c	 movzx	 ebx, BYTE PTR [ecx+edx+12]
  004e7	3b fb		 cmp	 edi, ebx
  004e9	75 0c		 jne	 SHORT $LN61@FindNextDi
  004eb	0f b6 9c 0a 00
	02 00 00	 movzx	 ebx, BYTE PTR [edx+ecx+512]
  004f3	3b f3		 cmp	 esi, ebx
  004f5	74 12		 je	 SHORT $LN63@FindNextDi
$LN61@FindNextDi:
  004f7	42		 inc	 edx
  004f8	3b 51 08	 cmp	 edx, DWORD PTR [ecx+8]
  004fb	7c e5		 jl	 SHORT $LL62@FindNextDi

; 223  : 			}
; 224  : 
; 225  : 			return WhichDir;

  004fd	8b 45 fc	 mov	 eax, DWORD PTR _WhichDir$[ebp]
  00500	5f		 pop	 edi
  00501	5e		 pop	 esi
  00502	5b		 pop	 ebx

; 263  : 	};	// line : 155

  00503	8b e5		 mov	 esp, ebp
  00505	5d		 pop	 ebp
  00506	c2 1c 00	 ret	 28			; 0000001cH

; 216  : 		{
; 217  : 			int path = this->VerifyThatOnPath(sx, sy);

$LN63@FindNextDi:

; 218  : 
; 219  : 			if ( path != -1 )

  00509	83 fa ff	 cmp	 edx, -1
  0050c	74 10		 je	 SHORT $LN6@FindNextDi

; 220  : 			{
; 221  : 				this->HitMap[sx + sy * this->Width ] = 1;

  0050e	0f af c6	 imul	 eax, esi
  00511	03 81 40 04 00
	00		 add	 eax, DWORD PTR [ecx+1088]
  00517	c6 04 38 01	 mov	 BYTE PTR [eax+edi], 1

; 222  : 				this->NumPath = path;

  0051b	89 51 08	 mov	 DWORD PTR [ecx+8], edx
$LN6@FindNextDi:

; 223  : 			}
; 224  : 
; 225  : 			return WhichDir;

  0051e	8b 45 fc	 mov	 eax, DWORD PTR _WhichDir$[ebp]
  00521	5f		 pop	 edi
  00522	5e		 pop	 esi
  00523	5b		 pop	 ebx

; 263  : 	};	// line : 155

  00524	8b e5		 mov	 esp, ebp
  00526	5d		 pop	 ebp
  00527	c2 1c 00	 ret	 28			; 0000001cH
$LN125@FindNextDi:

; 235  : 			{
; 236  : 				int path = this->VerifyThatOnPath(sx, sy);

  0052a	33 d2		 xor	 edx, edx
  0052c	39 51 08	 cmp	 DWORD PTR [ecx+8], edx
  0052f	7e 3c		 jle	 SHORT $LN3@FindNextDi
$LL74@FindNextDi:
  00531	0f b6 5c 11 0c	 movzx	 ebx, BYTE PTR [ecx+edx+12]
  00536	3b fb		 cmp	 edi, ebx
  00538	75 0c		 jne	 SHORT $LN73@FindNextDi
  0053a	0f b6 9c 0a 00
	02 00 00	 movzx	 ebx, BYTE PTR [edx+ecx+512]
  00542	3b f3		 cmp	 esi, ebx
  00544	74 12		 je	 SHORT $LN75@FindNextDi
$LN73@FindNextDi:
  00546	42		 inc	 edx
  00547	3b 51 08	 cmp	 edx, DWORD PTR [ecx+8]
  0054a	7c e5		 jl	 SHORT $LL74@FindNextDi

; 242  : 				}
; 243  : 				return dir;

  0054c	8b 45 0c	 mov	 eax, DWORD PTR _dir$188355[ebp]
  0054f	5f		 pop	 edi
  00550	5e		 pop	 esi
  00551	5b		 pop	 ebx

; 263  : 	};	// line : 155

  00552	8b e5		 mov	 esp, ebp
  00554	5d		 pop	 ebp
  00555	c2 1c 00	 ret	 28			; 0000001cH

; 235  : 			{
; 236  : 				int path = this->VerifyThatOnPath(sx, sy);

$LN75@FindNextDi:

; 237  : 
; 238  : 				if ( path != -1 )

  00558	83 fa ff	 cmp	 edx, -1
  0055b	74 10		 je	 SHORT $LN3@FindNextDi

; 239  : 				{
; 240  : 					this->HitMap[sx  + sy * this->Width] = 1;

  0055d	0f af c6	 imul	 eax, esi
  00560	03 81 40 04 00
	00		 add	 eax, DWORD PTR [ecx+1088]
  00566	c6 04 38 01	 mov	 BYTE PTR [eax+edi], 1

; 241  : 					this->NumPath = path;

  0056a	89 51 08	 mov	 DWORD PTR [ecx+8], edx
$LN3@FindNextDi:

; 242  : 				}
; 243  : 				return dir;

  0056d	8b 45 0c	 mov	 eax, DWORD PTR _dir$188355[ebp]
  00570	5f		 pop	 edi
  00571	5e		 pop	 esi
  00572	5b		 pop	 ebx

; 263  : 	};	// line : 155

  00573	8b e5		 mov	 esp, ebp
  00575	5d		 pop	 ebp
  00576	c2 1c 00	 ret	 28			; 0000001cH
$LN126@FindNextDi:

; 249  : 			{
; 250  : 				int path = this->VerifyThatOnPath(sx, sy);

  00579	33 d2		 xor	 edx, edx
  0057b	39 51 08	 cmp	 DWORD PTR [ecx+8], edx
  0057e	7e ed		 jle	 SHORT $LN3@FindNextDi
$LL86@FindNextDi:
  00580	0f b6 5c 11 0c	 movzx	 ebx, BYTE PTR [ecx+edx+12]
  00585	3b fb		 cmp	 edi, ebx
  00587	75 0c		 jne	 SHORT $LN85@FindNextDi
  00589	0f b6 9c 0a 00
	02 00 00	 movzx	 ebx, BYTE PTR [edx+ecx+512]
  00591	3b f3		 cmp	 esi, ebx
  00593	74 c3		 je	 SHORT $LN75@FindNextDi
$LN85@FindNextDi:
  00595	42		 inc	 edx
  00596	3b 51 08	 cmp	 edx, DWORD PTR [ecx+8]
  00599	7c e5		 jl	 SHORT $LL86@FindNextDi

; 242  : 				}
; 243  : 				return dir;

  0059b	8b 45 0c	 mov	 eax, DWORD PTR _dir$188355[ebp]
  0059e	5f		 pop	 edi
  0059f	5e		 pop	 esi
  005a0	5b		 pop	 ebx

; 263  : 	};	// line : 155

  005a1	8b e5		 mov	 esp, ebp
  005a3	5d		 pop	 ebp
  005a4	c2 1c 00	 ret	 28			; 0000001cH
?FindNextDir@PATH@@AAEHHHHHH_N0@Z ENDP			; PATH::FindNextDir
_TEXT	ENDS
PUBLIC	?FindNextDir2@PATH@@AAEHHHHHH_N0@Z		; PATH::FindNextDir2
; Function compile flags: /Ogtp
;	COMDAT ?FindNextDir2@PATH@@AAEHHHHHH_N0@Z
_TEXT	SEGMENT
tv1162 = -12						; size = 4
_endx$188391 = -12					; size = 4
_endx$188382 = -12					; size = 4
_endy$188392 = -8					; size = 4
_endy$188383 = -8					; size = 4
_endy$188374 = -8					; size = 4
_WhichDir$ = -4						; size = 4
_sx$ = 8						; size = 4
tv1077 = 12						; size = 4
$T212501 = 12						; size = 4
_dir2$188407 = 12					; size = 4
_dir$188403 = 12					; size = 4
_sy$ = 12						; size = 4
_dx$ = 16						; size = 4
_dy$ = 20						; size = 4
_dirstart$ = 24						; size = 4
tv761 = 28						; size = 4
tv678 = 28						; size = 4
_endx$188373 = 28					; size = 4
_i$ = 28						; size = 4
_First$ = 28						; size = 1
$T212539 = 32						; size = 4
$T212520 = 32						; size = 4
_ErrorCheck$ = 32					; size = 1
?FindNextDir2@PATH@@AAEHHHHHH_N0@Z PROC			; PATH::FindNextDir2, COMDAT
; _this$ = ecx

; 266  : 	{

  00000	55		 push	 ebp
  00001	8b ec		 mov	 ebp, esp
  00003	83 ec 0c	 sub	 esp, 12			; 0000000cH

; 267  : 		int MinDist = 10000000;
; 268  : 		long ldir;
; 269  : 		int WhichDir = 0;
; 270  : 		int i;
; 271  : 
; 272  : 		if ( First != 0 )

  00006	80 7d 1c 00	 cmp	 BYTE PTR _First$[ebp], 0
  0000a	8b 55 18	 mov	 edx, DWORD PTR _dirstart$[ebp]
  0000d	53		 push	 ebx
  0000e	56		 push	 esi
  0000f	57		 push	 edi
  00010	bb 80 96 98 00	 mov	 ebx, 10000000		; 00989680H
  00015	c7 45 fc 00 00
	00 00		 mov	 DWORD PTR _WhichDir$[ebp], 0
  0001c	0f 84 15 02 00
	00		 je	 $LN27@FindNextDi@2

; 273  : 		{
; 274  : 			for ( i = 0 ; i<8 ; i++ )

  00022	bf 02 00 00 00	 mov	 edi, 2
  00027	89 7d f4	 mov	 DWORD PTR tv1162[ebp], edi
  0002a	8d 9b 00 00 00
	00		 npad	 6
$LL127@FindNextDi@2:

; 275  : 			{
; 276  : 				ldir = i % 8 ;
; 277  : 				int endx = sx + this->Dir[ldir*2];
; 278  : 				int endy = sy + this->Dir[ldir*2+1];
; 279  : 				int dist = this->GetDist(endx, endy, dx, dy);

  00030	8b 75 10	 mov	 esi, DWORD PTR _dx$[ebp]
  00033	83 c7 fe	 add	 edi, -2			; fffffffeH
  00036	83 e7 07	 and	 edi, 7
  00039	8b 94 f9 f4 03
	00 00		 mov	 edx, DWORD PTR [ecx+edi*8+1012]
  00040	03 55 08	 add	 edx, DWORD PTR _sx$[ebp]
  00043	8b 84 f9 f8 03
	00 00		 mov	 eax, DWORD PTR [ecx+edi*8+1016]
  0004a	03 45 0c	 add	 eax, DWORD PTR _sy$[ebp]
  0004d	2b f2		 sub	 esi, edx
  0004f	89 55 1c	 mov	 DWORD PTR _endx$188373[ebp], edx
  00052	0f af f6	 imul	 esi, esi
  00055	8b 55 14	 mov	 edx, DWORD PTR _dy$[ebp]
  00058	2b d0		 sub	 edx, eax
  0005a	0f af d2	 imul	 edx, edx
  0005d	03 d6		 add	 edx, esi
  0005f	89 45 f8	 mov	 DWORD PTR _endy$188374[ebp], eax

; 280  : 
; 281  : 				if ( MinDist > dist )

  00062	3b da		 cmp	 ebx, edx
  00064	7e 2f		 jle	 SHORT $LN25@FindNextDi@2

; 282  : 				{
; 283  : 					if ( this->IsThisSpotOK(endx, endy) != FALSE )

  00066	8b 75 1c	 mov	 esi, DWORD PTR _endx$188373[ebp]
  00069	85 f6		 test	 esi, esi
  0006b	78 28		 js	 SHORT $LN25@FindNextDi@2
  0006d	8b 01		 mov	 eax, DWORD PTR [ecx]
  0006f	3b f0		 cmp	 esi, eax
  00071	7d 22		 jge	 SHORT $LN25@FindNextDi@2
  00073	8b 75 f8	 mov	 esi, DWORD PTR _endy$188374[ebp]
  00076	85 f6		 test	 esi, esi
  00078	78 1b		 js	 SHORT $LN25@FindNextDi@2
  0007a	3b f0		 cmp	 esi, eax
  0007c	7d 17		 jge	 SHORT $LN25@FindNextDi@2
  0007e	0f af c6	 imul	 eax, esi
  00081	03 81 40 04 00
	00		 add	 eax, DWORD PTR [ecx+1088]
  00087	8b 75 1c	 mov	 esi, DWORD PTR _endx$188373[ebp]
  0008a	80 3c 30 00	 cmp	 BYTE PTR [eax+esi], 0
  0008e	75 05		 jne	 SHORT $LN25@FindNextDi@2

; 284  : 					{
; 285  : 						MinDist = dist;

  00090	8b da		 mov	 ebx, edx

; 286  : 						WhichDir = ldir;

  00092	89 7d fc	 mov	 DWORD PTR _WhichDir$[ebp], edi
$LN25@FindNextDi@2:

; 275  : 			{
; 276  : 				ldir = i % 8 ;
; 277  : 				int endx = sx + this->Dir[ldir*2];
; 278  : 				int endy = sy + this->Dir[ldir*2+1];
; 279  : 				int dist = this->GetDist(endx, endy, dx, dy);

  00095	8b 7d f4	 mov	 edi, DWORD PTR tv1162[ebp]
  00098	8b 75 10	 mov	 esi, DWORD PTR _dx$[ebp]
  0009b	4f		 dec	 edi
  0009c	83 e7 07	 and	 edi, 7
  0009f	8b 94 f9 f4 03
	00 00		 mov	 edx, DWORD PTR [ecx+edi*8+1012]
  000a6	03 55 08	 add	 edx, DWORD PTR _sx$[ebp]
  000a9	8b 84 f9 f8 03
	00 00		 mov	 eax, DWORD PTR [ecx+edi*8+1016]
  000b0	03 45 0c	 add	 eax, DWORD PTR _sy$[ebp]
  000b3	2b f2		 sub	 esi, edx
  000b5	89 55 1c	 mov	 DWORD PTR _endx$188373[ebp], edx
  000b8	0f af f6	 imul	 esi, esi
  000bb	8b 55 14	 mov	 edx, DWORD PTR _dy$[ebp]
  000be	2b d0		 sub	 edx, eax
  000c0	0f af d2	 imul	 edx, edx
  000c3	03 d6		 add	 edx, esi
  000c5	89 45 f8	 mov	 DWORD PTR _endy$188374[ebp], eax

; 280  : 
; 281  : 				if ( MinDist > dist )

  000c8	3b da		 cmp	 ebx, edx
  000ca	7e 2f		 jle	 SHORT $LN108@FindNextDi@2

; 282  : 				{
; 283  : 					if ( this->IsThisSpotOK(endx, endy) != FALSE )

  000cc	8b 75 1c	 mov	 esi, DWORD PTR _endx$188373[ebp]
  000cf	85 f6		 test	 esi, esi
  000d1	78 28		 js	 SHORT $LN108@FindNextDi@2
  000d3	8b 01		 mov	 eax, DWORD PTR [ecx]
  000d5	3b f0		 cmp	 esi, eax
  000d7	7d 22		 jge	 SHORT $LN108@FindNextDi@2
  000d9	8b 75 f8	 mov	 esi, DWORD PTR _endy$188374[ebp]
  000dc	85 f6		 test	 esi, esi
  000de	78 1b		 js	 SHORT $LN108@FindNextDi@2
  000e0	3b f0		 cmp	 esi, eax
  000e2	7d 17		 jge	 SHORT $LN108@FindNextDi@2
  000e4	0f af c6	 imul	 eax, esi
  000e7	03 81 40 04 00
	00		 add	 eax, DWORD PTR [ecx+1088]
  000ed	8b 75 1c	 mov	 esi, DWORD PTR _endx$188373[ebp]
  000f0	80 3c 30 00	 cmp	 BYTE PTR [eax+esi], 0
  000f4	75 05		 jne	 SHORT $LN108@FindNextDi@2

; 284  : 					{
; 285  : 						MinDist = dist;

  000f6	8b da		 mov	 ebx, edx

; 286  : 						WhichDir = ldir;

  000f8	89 7d fc	 mov	 DWORD PTR _WhichDir$[ebp], edi
$LN108@FindNextDi@2:

; 275  : 			{
; 276  : 				ldir = i % 8 ;
; 277  : 				int endx = sx + this->Dir[ldir*2];
; 278  : 				int endy = sy + this->Dir[ldir*2+1];
; 279  : 				int dist = this->GetDist(endx, endy, dx, dy);

  000fb	8b 7d f4	 mov	 edi, DWORD PTR tv1162[ebp]
  000fe	8b 75 10	 mov	 esi, DWORD PTR _dx$[ebp]
  00101	83 e7 07	 and	 edi, 7
  00104	8b 94 f9 f4 03
	00 00		 mov	 edx, DWORD PTR [ecx+edi*8+1012]
  0010b	03 55 08	 add	 edx, DWORD PTR _sx$[ebp]
  0010e	8b 84 f9 f8 03
	00 00		 mov	 eax, DWORD PTR [ecx+edi*8+1016]
  00115	03 45 0c	 add	 eax, DWORD PTR _sy$[ebp]
  00118	2b f2		 sub	 esi, edx
  0011a	89 55 1c	 mov	 DWORD PTR _endx$188373[ebp], edx
  0011d	0f af f6	 imul	 esi, esi
  00120	8b 55 14	 mov	 edx, DWORD PTR _dy$[ebp]
  00123	2b d0		 sub	 edx, eax
  00125	0f af d2	 imul	 edx, edx
  00128	03 d6		 add	 edx, esi
  0012a	89 45 f8	 mov	 DWORD PTR _endy$188374[ebp], eax

; 280  : 
; 281  : 				if ( MinDist > dist )

  0012d	3b da		 cmp	 ebx, edx
  0012f	7e 2f		 jle	 SHORT $LN112@FindNextDi@2

; 282  : 				{
; 283  : 					if ( this->IsThisSpotOK(endx, endy) != FALSE )

  00131	8b 75 1c	 mov	 esi, DWORD PTR _endx$188373[ebp]
  00134	85 f6		 test	 esi, esi
  00136	78 28		 js	 SHORT $LN112@FindNextDi@2
  00138	8b 01		 mov	 eax, DWORD PTR [ecx]
  0013a	3b f0		 cmp	 esi, eax
  0013c	7d 22		 jge	 SHORT $LN112@FindNextDi@2
  0013e	8b 75 f8	 mov	 esi, DWORD PTR _endy$188374[ebp]
  00141	85 f6		 test	 esi, esi
  00143	78 1b		 js	 SHORT $LN112@FindNextDi@2
  00145	3b f0		 cmp	 esi, eax
  00147	7d 17		 jge	 SHORT $LN112@FindNextDi@2
  00149	0f af c6	 imul	 eax, esi
  0014c	03 81 40 04 00
	00		 add	 eax, DWORD PTR [ecx+1088]
  00152	8b 75 1c	 mov	 esi, DWORD PTR _endx$188373[ebp]
  00155	80 3c 30 00	 cmp	 BYTE PTR [eax+esi], 0
  00159	75 05		 jne	 SHORT $LN112@FindNextDi@2

; 284  : 					{
; 285  : 						MinDist = dist;

  0015b	8b da		 mov	 ebx, edx

; 286  : 						WhichDir = ldir;

  0015d	89 7d fc	 mov	 DWORD PTR _WhichDir$[ebp], edi
$LN112@FindNextDi@2:

; 275  : 			{
; 276  : 				ldir = i % 8 ;
; 277  : 				int endx = sx + this->Dir[ldir*2];
; 278  : 				int endy = sy + this->Dir[ldir*2+1];
; 279  : 				int dist = this->GetDist(endx, endy, dx, dy);

  00160	8b 7d f4	 mov	 edi, DWORD PTR tv1162[ebp]
  00163	8b 75 10	 mov	 esi, DWORD PTR _dx$[ebp]
  00166	47		 inc	 edi
  00167	83 e7 07	 and	 edi, 7
  0016a	8b 94 f9 f4 03
	00 00		 mov	 edx, DWORD PTR [ecx+edi*8+1012]
  00171	03 55 08	 add	 edx, DWORD PTR _sx$[ebp]
  00174	8b 84 f9 f8 03
	00 00		 mov	 eax, DWORD PTR [ecx+edi*8+1016]
  0017b	03 45 0c	 add	 eax, DWORD PTR _sy$[ebp]
  0017e	2b f2		 sub	 esi, edx
  00180	89 55 1c	 mov	 DWORD PTR _endx$188373[ebp], edx
  00183	0f af f6	 imul	 esi, esi
  00186	8b 55 14	 mov	 edx, DWORD PTR _dy$[ebp]
  00189	2b d0		 sub	 edx, eax
  0018b	0f af d2	 imul	 edx, edx
  0018e	03 d6		 add	 edx, esi
  00190	89 45 f8	 mov	 DWORD PTR _endy$188374[ebp], eax

; 280  : 
; 281  : 				if ( MinDist > dist )

  00193	3b da		 cmp	 ebx, edx
  00195	7e 2f		 jle	 SHORT $LN128@FindNextDi@2

; 282  : 				{
; 283  : 					if ( this->IsThisSpotOK(endx, endy) != FALSE )

  00197	8b 75 1c	 mov	 esi, DWORD PTR _endx$188373[ebp]
  0019a	85 f6		 test	 esi, esi
  0019c	78 28		 js	 SHORT $LN128@FindNextDi@2
  0019e	8b 01		 mov	 eax, DWORD PTR [ecx]
  001a0	3b f0		 cmp	 esi, eax
  001a2	7d 22		 jge	 SHORT $LN128@FindNextDi@2
  001a4	8b 75 f8	 mov	 esi, DWORD PTR _endy$188374[ebp]
  001a7	85 f6		 test	 esi, esi
  001a9	78 1b		 js	 SHORT $LN128@FindNextDi@2
  001ab	3b f0		 cmp	 esi, eax
  001ad	7d 17		 jge	 SHORT $LN128@FindNextDi@2
  001af	0f af c6	 imul	 eax, esi
  001b2	03 81 40 04 00
	00		 add	 eax, DWORD PTR [ecx+1088]
  001b8	8b 75 1c	 mov	 esi, DWORD PTR _endx$188373[ebp]
  001bb	80 3c 30 00	 cmp	 BYTE PTR [eax+esi], 0
  001bf	75 05		 jne	 SHORT $LN128@FindNextDi@2

; 284  : 					{
; 285  : 						MinDist = dist;

  001c1	8b da		 mov	 ebx, edx

; 286  : 						WhichDir = ldir;

  001c3	89 7d fc	 mov	 DWORD PTR _WhichDir$[ebp], edi
$LN128@FindNextDi@2:

; 273  : 		{
; 274  : 			for ( i = 0 ; i<8 ; i++ )

  001c6	8b 7d f4	 mov	 edi, DWORD PTR tv1162[ebp]
  001c9	83 c7 04	 add	 edi, 4
  001cc	8d 47 fe	 lea	 eax, DWORD PTR [edi-2]
  001cf	89 7d f4	 mov	 DWORD PTR tv1162[ebp], edi
  001d2	83 f8 08	 cmp	 eax, 8
  001d5	0f 8c 55 fe ff
	ff		 jl	 $LL127@FindNextDi@2

; 287  : 					}
; 288  : 				}
; 289  : 			}
; 290  : 		}
; 291  : 		else

  001db	8b 75 0c	 mov	 esi, DWORD PTR _sy$[ebp]
  001de	8b 7d 08	 mov	 edi, DWORD PTR _sx$[ebp]
$LN142@FindNextDi@2:

; 311  : 			{
; 312  : 				for ( i = dirstart+2 ; i <= dirstart+6 ; i++ )

  001e1	8b 55 18	 mov	 edx, DWORD PTR _dirstart$[ebp]
$LN12@FindNextDi@2:

; 325  : 						}
; 326  : 					}
; 327  : 				}
; 328  : 			}
; 329  : 		}
; 330  : 		int LastDist;
; 331  : 
; 332  : 		this->LastDir = dirstart;

  001e4	89 91 34 04 00
	00		 mov	 DWORD PTR [ecx+1076], edx

; 333  : 		LastDist = this->GetDist(sx, sy, sx + this->Dir[this->LastDir*2], sy + this->Dir[this->LastDir*2+1]);

  001ea	8b 84 d1 f8 03
	00 00		 mov	 eax, DWORD PTR [ecx+edx*8+1016]
  001f1	8b 55 18	 mov	 edx, DWORD PTR _dirstart$[ebp]
  001f4	0f af c0	 imul	 eax, eax
  001f7	89 45 1c	 mov	 DWORD PTR tv678[ebp], eax
  001fa	8b 84 d1 f4 03
	00 00		 mov	 eax, DWORD PTR [ecx+edx*8+1012]
  00201	0f af c0	 imul	 eax, eax
  00204	89 45 0c	 mov	 DWORD PTR tv1077[ebp], eax
  00207	8b 45 1c	 mov	 eax, DWORD PTR tv678[ebp]
  0020a	03 45 0c	 add	 eax, DWORD PTR tv1077[ebp]

; 334  : 
; 335  : 		if ( ( LastDist > MinDist - 6 ) && ( LastDist < MinDist + 6 ) && ( MinDist >= 25 ) )

  0020d	8d 53 fa	 lea	 edx, DWORD PTR [ebx-6]
  00210	3b c2		 cmp	 eax, edx
  00212	0f 8e 5d 01 00
	00		 jle	 $LN143@FindNextDi@2
  00218	8d 53 06	 lea	 edx, DWORD PTR [ebx+6]
  0021b	3b c2		 cmp	 eax, edx
  0021d	0f 8d 52 01 00
	00		 jge	 $LN143@FindNextDi@2
  00223	83 fb 19	 cmp	 ebx, 25			; 00000019H
  00226	0f 8c 49 01 00
	00		 jl	 $LN143@FindNextDi@2

; 336  : 		{
; 337  : 			WhichDir = this->LastDir;

  0022c	8b 45 18	 mov	 eax, DWORD PTR _dirstart$[ebp]
  0022f	89 45 fc	 mov	 DWORD PTR _WhichDir$[ebp], eax
  00232	e9 41 01 00 00	 jmp	 $LN9@FindNextDi@2
$LN27@FindNextDi@2:

; 292  : 		{
; 293  : 			for ( i = dirstart+7 ; i <= dirstart+9 ; i++ )

  00237	8b 7d 08	 mov	 edi, DWORD PTR _sx$[ebp]
  0023a	8d 42 07	 lea	 eax, DWORD PTR [edx+7]
  0023d	8d 72 09	 lea	 esi, DWORD PTR [edx+9]
  00240	3b c6		 cmp	 eax, esi
  00242	8b 75 0c	 mov	 esi, DWORD PTR _sy$[ebp]
  00245	89 45 1c	 mov	 DWORD PTR _i$[ebp], eax
  00248	0f 8f 8e 00 00
	00		 jg	 $LN121@FindNextDi@2
  0024e	8b ff		 npad	 2
$LL20@FindNextDi@2:

; 294  : 			{
; 295  : 				ldir = i % 8;

  00250	25 07 00 00 80	 and	 eax, -2147483641	; 80000007H
  00255	79 05		 jns	 SHORT $LN145@FindNextDi@2
  00257	48		 dec	 eax
  00258	83 c8 f8	 or	 eax, -8			; fffffff8H
  0025b	40		 inc	 eax
$LN145@FindNextDi@2:

; 296  : 				int endx = sx + this->Dir[ldir*2];

  0025c	8b 94 c1 f4 03
	00 00		 mov	 edx, DWORD PTR [ecx+eax*8+1012]
  00263	03 d7		 add	 edx, edi

; 297  : 				int endy = sy + this->Dir[ldir*2+1];

  00265	8b bc c1 f8 03
	00 00		 mov	 edi, DWORD PTR [ecx+eax*8+1016]
  0026c	03 fe		 add	 edi, esi

; 298  : 				int dist = this->GetDist(endx, endy, dx, dy);

  0026e	8b 75 10	 mov	 esi, DWORD PTR _dx$[ebp]
  00271	2b f2		 sub	 esi, edx
  00273	89 55 f4	 mov	 DWORD PTR _endx$188382[ebp], edx
  00276	0f af f6	 imul	 esi, esi
  00279	8b 55 14	 mov	 edx, DWORD PTR _dy$[ebp]
  0027c	2b d7		 sub	 edx, edi
  0027e	0f af d2	 imul	 edx, edx
  00281	03 d6		 add	 edx, esi
  00283	89 7d f8	 mov	 DWORD PTR _endy$188383[ebp], edi

; 299  : 
; 300  : 				if ( MinDist > dist )

  00286	3b da		 cmp	 ebx, edx
  00288	7e 2f		 jle	 SHORT $LN19@FindNextDi@2

; 301  : 				{
; 302  : 					if ( this->IsThisSpotOK(endx, endy) != FALSE )

  0028a	8b 7d f4	 mov	 edi, DWORD PTR _endx$188382[ebp]
  0028d	85 ff		 test	 edi, edi
  0028f	78 28		 js	 SHORT $LN19@FindNextDi@2
  00291	8b 31		 mov	 esi, DWORD PTR [ecx]
  00293	3b fe		 cmp	 edi, esi
  00295	7d 22		 jge	 SHORT $LN19@FindNextDi@2
  00297	8b 7d f8	 mov	 edi, DWORD PTR _endy$188383[ebp]
  0029a	85 ff		 test	 edi, edi
  0029c	78 1b		 js	 SHORT $LN19@FindNextDi@2
  0029e	3b fe		 cmp	 edi, esi
  002a0	7d 17		 jge	 SHORT $LN19@FindNextDi@2
  002a2	0f af f7	 imul	 esi, edi
  002a5	03 b1 40 04 00
	00		 add	 esi, DWORD PTR [ecx+1088]
  002ab	8b 7d f4	 mov	 edi, DWORD PTR _endx$188382[ebp]
  002ae	80 3c 3e 00	 cmp	 BYTE PTR [esi+edi], 0
  002b2	75 05		 jne	 SHORT $LN19@FindNextDi@2

; 303  : 					{
; 304  : 						MinDist = dist;

  002b4	8b da		 mov	 ebx, edx

; 305  : 						WhichDir = ldir;

  002b6	89 45 fc	 mov	 DWORD PTR _WhichDir$[ebp], eax
$LN19@FindNextDi@2:

; 292  : 		{
; 293  : 			for ( i = dirstart+7 ; i <= dirstart+9 ; i++ )

  002b9	8b 45 1c	 mov	 eax, DWORD PTR _i$[ebp]
  002bc	8b 55 18	 mov	 edx, DWORD PTR _dirstart$[ebp]

; 306  : 					}
; 307  : 				}
; 308  : 			}
; 309  : 
; 310  : 			if ( MinDist == 10000000 )

  002bf	8b 7d 08	 mov	 edi, DWORD PTR _sx$[ebp]
  002c2	40		 inc	 eax
  002c3	8d 72 09	 lea	 esi, DWORD PTR [edx+9]
  002c6	3b c6		 cmp	 eax, esi
  002c8	8b 75 0c	 mov	 esi, DWORD PTR _sy$[ebp]
  002cb	89 45 1c	 mov	 DWORD PTR _i$[ebp], eax
  002ce	7e 80		 jle	 SHORT $LL20@FindNextDi@2
  002d0	81 fb 80 96 98
	00		 cmp	 ebx, 10000000		; 00989680H
  002d6	0f 85 08 ff ff
	ff		 jne	 $LN12@FindNextDi@2
$LN121@FindNextDi@2:

; 311  : 			{
; 312  : 				for ( i = dirstart+2 ; i <= dirstart+6 ; i++ )

  002dc	8d 42 02	 lea	 eax, DWORD PTR [edx+2]
  002df	83 c2 06	 add	 edx, 6
  002e2	89 45 1c	 mov	 DWORD PTR _i$[ebp], eax
  002e5	3b c2		 cmp	 eax, edx
  002e7	0f 8f f4 fe ff
	ff		 jg	 $LN142@FindNextDi@2
  002ed	8d 49 00	 npad	 3
$LL14@FindNextDi@2:

; 313  : 				{
; 314  : 					ldir = i % 8;

  002f0	25 07 00 00 80	 and	 eax, -2147483641	; 80000007H
  002f5	79 05		 jns	 SHORT $LN146@FindNextDi@2
  002f7	48		 dec	 eax
  002f8	83 c8 f8	 or	 eax, -8			; fffffff8H
  002fb	40		 inc	 eax
$LN146@FindNextDi@2:

; 315  : 					int endx = sx + this->Dir[ldir*2];

  002fc	8b 94 c1 f4 03
	00 00		 mov	 edx, DWORD PTR [ecx+eax*8+1012]
  00303	03 d7		 add	 edx, edi

; 316  : 					int endy = sy + this->Dir[ldir*2+1];

  00305	8b bc c1 f8 03
	00 00		 mov	 edi, DWORD PTR [ecx+eax*8+1016]
  0030c	03 fe		 add	 edi, esi

; 317  : 					int dist = this->GetDist(endx, endy, dx, dy);

  0030e	8b 75 10	 mov	 esi, DWORD PTR _dx$[ebp]
  00311	2b f2		 sub	 esi, edx
  00313	89 55 f4	 mov	 DWORD PTR _endx$188391[ebp], edx
  00316	0f af f6	 imul	 esi, esi
  00319	8b 55 14	 mov	 edx, DWORD PTR _dy$[ebp]
  0031c	2b d7		 sub	 edx, edi
  0031e	0f af d2	 imul	 edx, edx
  00321	03 d6		 add	 edx, esi
  00323	89 7d f8	 mov	 DWORD PTR _endy$188392[ebp], edi

; 318  : 
; 319  : 					if ( MinDist > dist )

  00326	3b da		 cmp	 ebx, edx
  00328	7e 2f		 jle	 SHORT $LN13@FindNextDi@2

; 320  : 					{
; 321  : 						if ( this->IsThisSpotOK(endx, endy) != FALSE )

  0032a	8b 7d f4	 mov	 edi, DWORD PTR _endx$188391[ebp]
  0032d	85 ff		 test	 edi, edi
  0032f	78 28		 js	 SHORT $LN13@FindNextDi@2
  00331	8b 31		 mov	 esi, DWORD PTR [ecx]
  00333	3b fe		 cmp	 edi, esi
  00335	7d 22		 jge	 SHORT $LN13@FindNextDi@2
  00337	8b 7d f8	 mov	 edi, DWORD PTR _endy$188392[ebp]
  0033a	85 ff		 test	 edi, edi
  0033c	78 1b		 js	 SHORT $LN13@FindNextDi@2
  0033e	3b fe		 cmp	 edi, esi
  00340	7d 17		 jge	 SHORT $LN13@FindNextDi@2
  00342	0f af f7	 imul	 esi, edi
  00345	03 b1 40 04 00
	00		 add	 esi, DWORD PTR [ecx+1088]
  0034b	8b 7d f4	 mov	 edi, DWORD PTR _endx$188391[ebp]
  0034e	80 3c 3e 00	 cmp	 BYTE PTR [esi+edi], 0
  00352	75 05		 jne	 SHORT $LN13@FindNextDi@2

; 322  : 						{
; 323  : 							MinDist = dist;

  00354	8b da		 mov	 ebx, edx

; 324  : 							WhichDir = ldir;

  00356	89 45 fc	 mov	 DWORD PTR _WhichDir$[ebp], eax
$LN13@FindNextDi@2:

; 311  : 			{
; 312  : 				for ( i = dirstart+2 ; i <= dirstart+6 ; i++ )

  00359	8b 45 1c	 mov	 eax, DWORD PTR _i$[ebp]
  0035c	8b 55 18	 mov	 edx, DWORD PTR _dirstart$[ebp]
  0035f	8b 7d 08	 mov	 edi, DWORD PTR _sx$[ebp]
  00362	40		 inc	 eax
  00363	8d 72 06	 lea	 esi, DWORD PTR [edx+6]
  00366	3b c6		 cmp	 eax, esi
  00368	8b 75 0c	 mov	 esi, DWORD PTR _sy$[ebp]
  0036b	89 45 1c	 mov	 DWORD PTR _i$[ebp], eax
  0036e	7e 80		 jle	 SHORT $LL14@FindNextDi@2
  00370	e9 6f fe ff ff	 jmp	 $LN12@FindNextDi@2
$LN143@FindNextDi@2:

; 336  : 		{
; 337  : 			WhichDir = this->LastDir;

  00375	8b 45 fc	 mov	 eax, DWORD PTR _WhichDir$[ebp]
$LN9@FindNextDi@2:

; 338  : 		}
; 339  : 
; 340  : 		if ( MinDist == 10000000 )

  00378	81 fb 80 96 98
	00		 cmp	 ebx, 10000000		; 00989680H

; 341  : 		{
; 342  : 			return -1;

  0037e	0f 84 4b 01 00
	00		 je	 $LN149@FindNextDi@2

; 343  : 		}
; 344  : 		
; 345  : 		if ( this->CanWeMoveForward2(sx+this->Dir[WhichDir*2],sy+ this->Dir[WhichDir*2+1]) != FALSE )

  00384	8b 9c c1 f8 03
	00 00		 mov	 ebx, DWORD PTR [ecx+eax*8+1016]
  0038b	8b 11		 mov	 edx, DWORD PTR [ecx]
  0038d	8b 84 c1 f4 03
	00 00		 mov	 eax, DWORD PTR [ecx+eax*8+1012]
  00394	03 de		 add	 ebx, esi
  00396	0f af d3	 imul	 edx, ebx
  00399	03 c7		 add	 eax, edi
  0039b	89 45 0c	 mov	 DWORD PTR $T212501[ebp], eax
  0039e	03 d0		 add	 edx, eax
  003a0	8b 01		 mov	 eax, DWORD PTR [ecx]
  003a2	39 45 0c	 cmp	 DWORD PTR $T212501[ebp], eax
  003a5	7d 35		 jge	 SHORT $LN144@FindNextDi@2
  003a7	83 7d 0c 00	 cmp	 DWORD PTR $T212501[ebp], 0
  003ab	7c 2f		 jl	 SHORT $LN144@FindNextDi@2
  003ad	3b 59 04	 cmp	 ebx, DWORD PTR [ecx+4]
  003b0	7d 2a		 jge	 SHORT $LN144@FindNextDi@2
  003b2	85 db		 test	 ebx, ebx
  003b4	78 26		 js	 SHORT $LN144@FindNextDi@2
  003b6	8b 99 3c 04 00
	00		 mov	 ebx, DWORD PTR [ecx+1084]
  003bc	80 3c 1a 01	 cmp	 BYTE PTR [edx+ebx], 1
  003c0	73 10		 jae	 SHORT $LN53@FindNextDi@2
  003c2	8b 99 40 04 00
	00		 mov	 ebx, DWORD PTR [ecx+1088]
  003c8	80 3c 13 00	 cmp	 BYTE PTR [ebx+edx], 0
  003cc	0f 84 09 01 00
	00		 je	 $LN124@FindNextDi@2
$LN53@FindNextDi@2:
  003d2	8b 81 40 04 00
	00		 mov	 eax, DWORD PTR [ecx+1088]
  003d8	c6 04 02 01	 mov	 BYTE PTR [edx+eax], 1
$LN144@FindNextDi@2:

; 356  : 		}
; 357  : 
; 358  : 		if ( ErrorCheck != 0 )

  003dc	80 7d 20 00	 cmp	 BYTE PTR _ErrorCheck$[ebp], 0
  003e0	0f 84 da 00 00
	00		 je	 $LN2@FindNextDi@2

; 359  : 		{
; 360  : 			int dir = WhichDir+7;

  003e6	8b 45 fc	 mov	 eax, DWORD PTR _WhichDir$[ebp]
  003e9	83 c0 07	 add	 eax, 7

; 361  : 
; 362  : 			dir %= 8;

  003ec	25 07 00 00 80	 and	 eax, -2147483641	; 80000007H
  003f1	79 05		 jns	 SHORT $LN147@FindNextDi@2
  003f3	48		 dec	 eax
  003f4	83 c8 f8	 or	 eax, -8			; fffffff8H
  003f7	40		 inc	 eax
$LN147@FindNextDi@2:

; 363  : 
; 364  : 			if (this->CanWeMoveForward2(sx + this->Dir[dir*2], sy + this->Dir[dir*2+1]) != FALSE )

  003f8	8b 9c c1 f8 03
	00 00		 mov	 ebx, DWORD PTR [ecx+eax*8+1016]
  003ff	8b 11		 mov	 edx, DWORD PTR [ecx]
  00401	03 de		 add	 ebx, esi
  00403	0f af d3	 imul	 edx, ebx
  00406	89 45 0c	 mov	 DWORD PTR _dir$188403[ebp], eax
  00409	8b 84 c1 f4 03
	00 00		 mov	 eax, DWORD PTR [ecx+eax*8+1012]
  00410	03 c7		 add	 eax, edi
  00412	89 45 20	 mov	 DWORD PTR $T212520[ebp], eax
  00415	03 d0		 add	 edx, eax
  00417	8b 01		 mov	 eax, DWORD PTR [ecx]
  00419	39 45 20	 cmp	 DWORD PTR $T212520[ebp], eax
  0041c	7d 35		 jge	 SHORT $LN4@FindNextDi@2
  0041e	83 7d 20 00	 cmp	 DWORD PTR $T212520[ebp], 0
  00422	7c 2f		 jl	 SHORT $LN4@FindNextDi@2
  00424	3b 59 04	 cmp	 ebx, DWORD PTR [ecx+4]
  00427	7d 2a		 jge	 SHORT $LN4@FindNextDi@2
  00429	85 db		 test	 ebx, ebx
  0042b	78 26		 js	 SHORT $LN4@FindNextDi@2
  0042d	8b 99 3c 04 00
	00		 mov	 ebx, DWORD PTR [ecx+1084]
  00433	80 3c 1a 01	 cmp	 BYTE PTR [edx+ebx], 1
  00437	73 10		 jae	 SHORT $LN65@FindNextDi@2
  00439	8b 99 40 04 00
	00		 mov	 ebx, DWORD PTR [ecx+1088]
  0043f	80 3c 13 00	 cmp	 BYTE PTR [ebx+edx], 0
  00443	0f 84 e1 00 00
	00		 je	 $LN125@FindNextDi@2
$LN65@FindNextDi@2:
  00449	8b 81 40 04 00
	00		 mov	 eax, DWORD PTR [ecx+1088]
  0044f	c6 04 02 01	 mov	 BYTE PTR [edx+eax], 1
$LN4@FindNextDi@2:

; 374  : 			}
; 375  : 
; 376  : 			int dir2 = WhichDir+9;

  00453	8b 45 fc	 mov	 eax, DWORD PTR _WhichDir$[ebp]
  00456	83 c0 09	 add	 eax, 9

; 377  : 			dir2 %= 8;

  00459	25 07 00 00 80	 and	 eax, -2147483641	; 80000007H
  0045e	79 05		 jns	 SHORT $LN148@FindNextDi@2
  00460	48		 dec	 eax
  00461	83 c8 f8	 or	 eax, -8			; fffffff8H
  00464	40		 inc	 eax
$LN148@FindNextDi@2:

; 378  : 
; 379  : 			if (CanWeMoveForward2(sx+this->Dir[dir2*2], sy+this->Dir[dir2*2+1]) != FALSE )

  00465	8b 9c c1 f8 03
	00 00		 mov	 ebx, DWORD PTR [ecx+eax*8+1016]
  0046c	8b 11		 mov	 edx, DWORD PTR [ecx]
  0046e	03 de		 add	 ebx, esi
  00470	0f af d3	 imul	 edx, ebx
  00473	89 45 0c	 mov	 DWORD PTR _dir2$188407[ebp], eax
  00476	8b 84 c1 f4 03
	00 00		 mov	 eax, DWORD PTR [ecx+eax*8+1012]
  0047d	03 c7		 add	 eax, edi
  0047f	89 45 20	 mov	 DWORD PTR $T212539[ebp], eax
  00482	03 d0		 add	 edx, eax
  00484	8b 01		 mov	 eax, DWORD PTR [ecx]
  00486	39 45 20	 cmp	 DWORD PTR $T212539[ebp], eax
  00489	7d 35		 jge	 SHORT $LN2@FindNextDi@2
  0048b	83 7d 20 00	 cmp	 DWORD PTR $T212539[ebp], 0
  0048f	7c 2f		 jl	 SHORT $LN2@FindNextDi@2
  00491	3b 59 04	 cmp	 ebx, DWORD PTR [ecx+4]
  00494	7d 2a		 jge	 SHORT $LN2@FindNextDi@2
  00496	85 db		 test	 ebx, ebx
  00498	78 26		 js	 SHORT $LN2@FindNextDi@2
  0049a	8b 99 3c 04 00
	00		 mov	 ebx, DWORD PTR [ecx+1084]
  004a0	80 3c 1a 01	 cmp	 BYTE PTR [edx+ebx], 1
  004a4	73 10		 jae	 SHORT $LN77@FindNextDi@2
  004a6	8b 99 40 04 00
	00		 mov	 ebx, DWORD PTR [ecx+1088]
  004ac	80 3c 13 00	 cmp	 BYTE PTR [ebx+edx], 0
  004b0	0f 84 c3 00 00
	00		 je	 $LN126@FindNextDi@2
$LN77@FindNextDi@2:
  004b6	8b 81 40 04 00
	00		 mov	 eax, DWORD PTR [ecx+1088]
  004bc	c6 04 02 01	 mov	 BYTE PTR [edx+eax], 1
$LN2@FindNextDi@2:

; 382  : 
; 383  : 				if ( path != -1 )
; 384  : 				{
; 385  : 					this->HitMap[sx + sy * this->Width] = 1;
; 386  : 					this->NumPath = path;
; 387  : 				}
; 388  : 				return dir2;
; 389  : 			}
; 390  : 		}
; 391  : 		
; 392  : 		this->HitMap[sx + sy*this->Width]=1;

  004c0	8b 11		 mov	 edx, DWORD PTR [ecx]
  004c2	0f af d6	 imul	 edx, esi
  004c5	03 91 40 04 00
	00		 add	 edx, DWORD PTR [ecx+1088]
  004cb	c6 04 3a 01	 mov	 BYTE PTR [edx+edi], 1
$LN149@FindNextDi@2:

; 393  : 		return -1;

  004cf	5f		 pop	 edi
  004d0	5e		 pop	 esi
  004d1	83 c8 ff	 or	 eax, -1
  004d4	5b		 pop	 ebx

; 394  : 	};

  004d5	8b e5		 mov	 esp, ebp
  004d7	5d		 pop	 ebp
  004d8	c2 1c 00	 ret	 28			; 0000001cH
$LN124@FindNextDi@2:

; 346  : 		{
; 347  : 			int path = this->VerifyThatOnPath(sx, sy);

  004db	33 d2		 xor	 edx, edx
  004dd	39 51 08	 cmp	 DWORD PTR [ecx+8], edx
  004e0	7e 3c		 jle	 SHORT $LN6@FindNextDi@2
$LL62@FindNextDi@2:
  004e2	0f b6 5c 11 0c	 movzx	 ebx, BYTE PTR [ecx+edx+12]
  004e7	3b fb		 cmp	 edi, ebx
  004e9	75 0c		 jne	 SHORT $LN61@FindNextDi@2
  004eb	0f b6 9c 0a 00
	02 00 00	 movzx	 ebx, BYTE PTR [edx+ecx+512]
  004f3	3b f3		 cmp	 esi, ebx
  004f5	74 12		 je	 SHORT $LN63@FindNextDi@2
$LN61@FindNextDi@2:
  004f7	42		 inc	 edx
  004f8	3b 51 08	 cmp	 edx, DWORD PTR [ecx+8]
  004fb	7c e5		 jl	 SHORT $LL62@FindNextDi@2

; 353  : 			}
; 354  : 
; 355  : 			return WhichDir;

  004fd	8b 45 fc	 mov	 eax, DWORD PTR _WhichDir$[ebp]
  00500	5f		 pop	 edi
  00501	5e		 pop	 esi
  00502	5b		 pop	 ebx

; 394  : 	};

  00503	8b e5		 mov	 esp, ebp
  00505	5d		 pop	 ebp
  00506	c2 1c 00	 ret	 28			; 0000001cH

; 346  : 		{
; 347  : 			int path = this->VerifyThatOnPath(sx, sy);

$LN63@FindNextDi@2:

; 348  : 
; 349  : 			if ( path != -1 )

  00509	83 fa ff	 cmp	 edx, -1
  0050c	74 10		 je	 SHORT $LN6@FindNextDi@2

; 350  : 			{
; 351  : 				this->HitMap[sx+ sy * this->Width ] = 1;

  0050e	0f af c6	 imul	 eax, esi
  00511	03 81 40 04 00
	00		 add	 eax, DWORD PTR [ecx+1088]
  00517	c6 04 38 01	 mov	 BYTE PTR [eax+edi], 1

; 352  : 				this->NumPath = path;

  0051b	89 51 08	 mov	 DWORD PTR [ecx+8], edx
$LN6@FindNextDi@2:

; 353  : 			}
; 354  : 
; 355  : 			return WhichDir;

  0051e	8b 45 fc	 mov	 eax, DWORD PTR _WhichDir$[ebp]
  00521	5f		 pop	 edi
  00522	5e		 pop	 esi
  00523	5b		 pop	 ebx

; 394  : 	};

  00524	8b e5		 mov	 esp, ebp
  00526	5d		 pop	 ebp
  00527	c2 1c 00	 ret	 28			; 0000001cH
$LN125@FindNextDi@2:

; 365  : 			{
; 366  : 				int path = this->VerifyThatOnPath(sx, sy);

  0052a	33 d2		 xor	 edx, edx
  0052c	39 51 08	 cmp	 DWORD PTR [ecx+8], edx
  0052f	7e 3c		 jle	 SHORT $LN3@FindNextDi@2
$LL74@FindNextDi@2:
  00531	0f b6 5c 11 0c	 movzx	 ebx, BYTE PTR [ecx+edx+12]
  00536	3b fb		 cmp	 edi, ebx
  00538	75 0c		 jne	 SHORT $LN73@FindNextDi@2
  0053a	0f b6 9c 0a 00
	02 00 00	 movzx	 ebx, BYTE PTR [edx+ecx+512]
  00542	3b f3		 cmp	 esi, ebx
  00544	74 12		 je	 SHORT $LN75@FindNextDi@2
$LN73@FindNextDi@2:
  00546	42		 inc	 edx
  00547	3b 51 08	 cmp	 edx, DWORD PTR [ecx+8]
  0054a	7c e5		 jl	 SHORT $LL74@FindNextDi@2

; 372  : 				}
; 373  : 				return dir;

  0054c	8b 45 0c	 mov	 eax, DWORD PTR _dir$188403[ebp]
  0054f	5f		 pop	 edi
  00550	5e		 pop	 esi
  00551	5b		 pop	 ebx

; 394  : 	};

  00552	8b e5		 mov	 esp, ebp
  00554	5d		 pop	 ebp
  00555	c2 1c 00	 ret	 28			; 0000001cH

; 365  : 			{
; 366  : 				int path = this->VerifyThatOnPath(sx, sy);

$LN75@FindNextDi@2:

; 367  : 
; 368  : 				if ( path != -1 )

  00558	83 fa ff	 cmp	 edx, -1
  0055b	74 10		 je	 SHORT $LN3@FindNextDi@2

; 369  : 				{
; 370  : 					this->HitMap[sx+ sy * this->Width] = 1;

  0055d	0f af c6	 imul	 eax, esi
  00560	03 81 40 04 00
	00		 add	 eax, DWORD PTR [ecx+1088]
  00566	c6 04 38 01	 mov	 BYTE PTR [eax+edi], 1

; 371  : 					this->NumPath = path;

  0056a	89 51 08	 mov	 DWORD PTR [ecx+8], edx
$LN3@FindNextDi@2:

; 372  : 				}
; 373  : 				return dir;

  0056d	8b 45 0c	 mov	 eax, DWORD PTR _dir$188403[ebp]
  00570	5f		 pop	 edi
  00571	5e		 pop	 esi
  00572	5b		 pop	 ebx

; 394  : 	};

  00573	8b e5		 mov	 esp, ebp
  00575	5d		 pop	 ebp
  00576	c2 1c 00	 ret	 28			; 0000001cH
$LN126@FindNextDi@2:

; 380  : 			{
; 381  : 				int path = this->VerifyThatOnPath(sx, sy);

  00579	33 d2		 xor	 edx, edx
  0057b	39 51 08	 cmp	 DWORD PTR [ecx+8], edx
  0057e	7e ed		 jle	 SHORT $LN3@FindNextDi@2
$LL86@FindNextDi@2:
  00580	0f b6 5c 11 0c	 movzx	 ebx, BYTE PTR [ecx+edx+12]
  00585	3b fb		 cmp	 edi, ebx
  00587	75 0c		 jne	 SHORT $LN85@FindNextDi@2
  00589	0f b6 9c 0a 00
	02 00 00	 movzx	 ebx, BYTE PTR [edx+ecx+512]
  00591	3b f3		 cmp	 esi, ebx
  00593	74 c3		 je	 SHORT $LN75@FindNextDi@2
$LN85@FindNextDi@2:
  00595	42		 inc	 edx
  00596	3b 51 08	 cmp	 edx, DWORD PTR [ecx+8]
  00599	7c e5		 jl	 SHORT $LL86@FindNextDi@2

; 372  : 				}
; 373  : 				return dir;

  0059b	8b 45 0c	 mov	 eax, DWORD PTR _dir$188403[ebp]
  0059e	5f		 pop	 edi
  0059f	5e		 pop	 esi
  005a0	5b		 pop	 ebx

; 394  : 	};

  005a1	8b e5		 mov	 esp, ebp
  005a3	5d		 pop	 ebp
  005a4	c2 1c 00	 ret	 28			; 0000001cH
?FindNextDir2@PATH@@AAEHHHHHH_N0@Z ENDP			; PATH::FindNextDir2
_TEXT	ENDS
PUBLIC	?FindNextDir3@PATH@@AAEHHHHHH_N0@Z		; PATH::FindNextDir3
; Function compile flags: /Ogtp
;	COMDAT ?FindNextDir3@PATH@@AAEHHHHHH_N0@Z
_TEXT	SEGMENT
_i$ = -12						; size = 4
_WhichDir$ = -8						; size = 4
_MinDist$ = -4						; size = 4
_sx$ = 8						; size = 4
_sy$ = 12						; size = 4
_dx$ = 16						; size = 4
_dy$ = 20						; size = 4
tv1399 = 24						; size = 4
$T212754 = 24						; size = 4
_dirstart$ = 24						; size = 4
_ldir$ = 28						; size = 4
_First$ = 28						; size = 1
_ErrorCheck$ = 32					; size = 1
?FindNextDir3@PATH@@AAEHHHHHH_N0@Z PROC			; PATH::FindNextDir3, COMDAT
; _this$ = ecx

; 397  : 	{

  00000	55		 push	 ebp
  00001	8b ec		 mov	 ebp, esp
  00003	83 ec 0c	 sub	 esp, 12			; 0000000cH

; 398  : 		int MinDist = 10000000;
; 399  : 		long ldir;
; 400  : 		int WhichDir = 0;
; 401  : 		int i;
; 402  : 
; 403  : 		if ( First != 0 )

  00006	80 7d 1c 00	 cmp	 BYTE PTR _First$[ebp], 0
  0000a	53		 push	 ebx
  0000b	56		 push	 esi
  0000c	57		 push	 edi
  0000d	c7 45 fc 80 96
	98 00		 mov	 DWORD PTR _MinDist$[ebp], 10000000 ; 00989680H
  00014	c7 45 f8 00 00
	00 00		 mov	 DWORD PTR _WhichDir$[ebp], 0
  0001b	0f 84 57 02 00
	00		 je	 $LN26@FindNextDi@3

; 404  : 		{
; 405  : 			for ( i = 0 ; i<8 ; i++ )

  00021	b8 02 00 00 00	 mov	 eax, 2
  00026	89 45 18	 mov	 DWORD PTR tv1399[ebp], eax
  00029	8d a4 24 00 00
	00 00		 npad	 7
$LL158@FindNextDi@3:

; 406  : 			{
; 407  : 				ldir = i % 8 ;
; 408  : 				int endx = sx + this->Dir[ldir*2];
; 409  : 				int endy = sy + this->Dir[ldir*2+1];
; 410  : 				int dist = this->GetDist(endx, endy, dx, dy);

  00030	8b 7d 10	 mov	 edi, DWORD PTR _dx$[ebp]
  00033	8b 55 14	 mov	 edx, DWORD PTR _dy$[ebp]
  00036	83 c0 fe	 add	 eax, -2			; fffffffeH
  00039	83 e0 07	 and	 eax, 7
  0003c	8b b4 c1 f4 03
	00 00		 mov	 esi, DWORD PTR [ecx+eax*8+1012]
  00043	8b 9c c1 f8 03
	00 00		 mov	 ebx, DWORD PTR [ecx+eax*8+1016]
  0004a	03 75 08	 add	 esi, DWORD PTR _sx$[ebp]
  0004d	03 5d 0c	 add	 ebx, DWORD PTR _sy$[ebp]
  00050	2b fe		 sub	 edi, esi
  00052	2b d3		 sub	 edx, ebx
  00054	0f af ff	 imul	 edi, edi
  00057	0f af d2	 imul	 edx, edx
  0005a	03 d7		 add	 edx, edi
  0005c	89 45 1c	 mov	 DWORD PTR _ldir$[ebp], eax

; 411  : 
; 412  : 				if ( MinDist > dist )

  0005f	39 55 fc	 cmp	 DWORD PTR _MinDist$[ebp], edx
  00062	7e 57		 jle	 SHORT $LN24@FindNextDi@3

; 413  : 				{
; 414  : 					if ( this->IsThisSpotOK(endx, endy) != FALSE && this->CanWeMoveForward3(endx, endy) != FALSE)

  00064	85 f6		 test	 esi, esi
  00066	78 53		 js	 SHORT $LN24@FindNextDi@3
  00068	8b 01		 mov	 eax, DWORD PTR [ecx]
  0006a	3b f0		 cmp	 esi, eax
  0006c	7d 4d		 jge	 SHORT $LN24@FindNextDi@3
  0006e	85 db		 test	 ebx, ebx
  00070	78 49		 js	 SHORT $LN24@FindNextDi@3
  00072	3b d8		 cmp	 ebx, eax
  00074	7d 45		 jge	 SHORT $LN24@FindNextDi@3
  00076	8b b9 40 04 00
	00		 mov	 edi, DWORD PTR [ecx+1088]
  0007c	0f af c3	 imul	 eax, ebx
  0007f	03 f8		 add	 edi, eax
  00081	80 3c 37 00	 cmp	 BYTE PTR [edi+esi], 0
  00085	75 34		 jne	 SHORT $LN24@FindNextDi@3
  00087	03 f0		 add	 esi, eax
  00089	3b 59 04	 cmp	 ebx, DWORD PTR [ecx+4]
  0008c	7d 2d		 jge	 SHORT $LN24@FindNextDi@3
  0008e	8b 81 3c 04 00
	00		 mov	 eax, DWORD PTR [ecx+1084]
  00094	80 3c 06 01	 cmp	 BYTE PTR [esi+eax], 1
  00098	73 0c		 jae	 SHORT $LN36@FindNextDi@3
  0009a	8b 81 40 04 00
	00		 mov	 eax, DWORD PTR [ecx+1088]
  000a0	80 3c 30 00	 cmp	 BYTE PTR [eax+esi], 0
  000a4	74 0c		 je	 SHORT $LN142@FindNextDi@3
$LN36@FindNextDi@3:
  000a6	8b 81 40 04 00
	00		 mov	 eax, DWORD PTR [ecx+1088]
  000ac	c6 04 30 01	 mov	 BYTE PTR [eax+esi], 1
  000b0	eb 09		 jmp	 SHORT $LN24@FindNextDi@3
$LN142@FindNextDi@3:

; 415  : 					{
; 416  : 						MinDist = dist;

  000b2	89 55 fc	 mov	 DWORD PTR _MinDist$[ebp], edx

; 417  : 						WhichDir = ldir;

  000b5	8b 55 1c	 mov	 edx, DWORD PTR _ldir$[ebp]
  000b8	89 55 f8	 mov	 DWORD PTR _WhichDir$[ebp], edx
$LN24@FindNextDi@3:

; 406  : 			{
; 407  : 				ldir = i % 8 ;
; 408  : 				int endx = sx + this->Dir[ldir*2];
; 409  : 				int endy = sy + this->Dir[ldir*2+1];
; 410  : 				int dist = this->GetDist(endx, endy, dx, dy);

  000bb	8b 45 18	 mov	 eax, DWORD PTR tv1399[ebp]
  000be	8b 7d 10	 mov	 edi, DWORD PTR _dx$[ebp]
  000c1	8b 55 14	 mov	 edx, DWORD PTR _dy$[ebp]
  000c4	48		 dec	 eax
  000c5	83 e0 07	 and	 eax, 7
  000c8	8b b4 c1 f4 03
	00 00		 mov	 esi, DWORD PTR [ecx+eax*8+1012]
  000cf	8b 9c c1 f8 03
	00 00		 mov	 ebx, DWORD PTR [ecx+eax*8+1016]
  000d6	03 75 08	 add	 esi, DWORD PTR _sx$[ebp]
  000d9	03 5d 0c	 add	 ebx, DWORD PTR _sy$[ebp]
  000dc	2b fe		 sub	 edi, esi
  000de	2b d3		 sub	 edx, ebx
  000e0	0f af ff	 imul	 edi, edi
  000e3	0f af d2	 imul	 edx, edx
  000e6	03 d7		 add	 edx, edi
  000e8	89 45 1c	 mov	 DWORD PTR _ldir$[ebp], eax

; 411  : 
; 412  : 				if ( MinDist > dist )

  000eb	39 55 fc	 cmp	 DWORD PTR _MinDist$[ebp], edx
  000ee	7e 57		 jle	 SHORT $LN126@FindNextDi@3

; 413  : 				{
; 414  : 					if ( this->IsThisSpotOK(endx, endy) != FALSE && this->CanWeMoveForward3(endx, endy) != FALSE)

  000f0	85 f6		 test	 esi, esi
  000f2	78 53		 js	 SHORT $LN126@FindNextDi@3
  000f4	8b 01		 mov	 eax, DWORD PTR [ecx]
  000f6	3b f0		 cmp	 esi, eax
  000f8	7d 4d		 jge	 SHORT $LN126@FindNextDi@3
  000fa	85 db		 test	 ebx, ebx
  000fc	78 49		 js	 SHORT $LN126@FindNextDi@3
  000fe	3b d8		 cmp	 ebx, eax
  00100	7d 45		 jge	 SHORT $LN126@FindNextDi@3
  00102	8b b9 40 04 00
	00		 mov	 edi, DWORD PTR [ecx+1088]
  00108	0f af c3	 imul	 eax, ebx
  0010b	03 f8		 add	 edi, eax
  0010d	80 3c 37 00	 cmp	 BYTE PTR [edi+esi], 0
  00111	75 34		 jne	 SHORT $LN126@FindNextDi@3
  00113	03 f0		 add	 esi, eax
  00115	3b 59 04	 cmp	 ebx, DWORD PTR [ecx+4]
  00118	7d 2d		 jge	 SHORT $LN126@FindNextDi@3
  0011a	8b 81 3c 04 00
	00		 mov	 eax, DWORD PTR [ecx+1084]
  00120	80 3c 06 01	 cmp	 BYTE PTR [esi+eax], 1
  00124	73 0c		 jae	 SHORT $LN123@FindNextDi@3
  00126	8b 81 40 04 00
	00		 mov	 eax, DWORD PTR [ecx+1088]
  0012c	80 3c 30 00	 cmp	 BYTE PTR [eax+esi], 0
  00130	74 0c		 je	 SHORT $LN144@FindNextDi@3
$LN123@FindNextDi@3:
  00132	8b 81 40 04 00
	00		 mov	 eax, DWORD PTR [ecx+1088]
  00138	c6 04 30 01	 mov	 BYTE PTR [eax+esi], 1
  0013c	eb 09		 jmp	 SHORT $LN126@FindNextDi@3
$LN144@FindNextDi@3:

; 415  : 					{
; 416  : 						MinDist = dist;

  0013e	89 55 fc	 mov	 DWORD PTR _MinDist$[ebp], edx

; 417  : 						WhichDir = ldir;

  00141	8b 55 1c	 mov	 edx, DWORD PTR _ldir$[ebp]
  00144	89 55 f8	 mov	 DWORD PTR _WhichDir$[ebp], edx
$LN126@FindNextDi@3:

; 406  : 			{
; 407  : 				ldir = i % 8 ;
; 408  : 				int endx = sx + this->Dir[ldir*2];
; 409  : 				int endy = sy + this->Dir[ldir*2+1];
; 410  : 				int dist = this->GetDist(endx, endy, dx, dy);

  00147	8b 45 18	 mov	 eax, DWORD PTR tv1399[ebp]
  0014a	8b 7d 10	 mov	 edi, DWORD PTR _dx$[ebp]
  0014d	8b 55 14	 mov	 edx, DWORD PTR _dy$[ebp]
  00150	83 e0 07	 and	 eax, 7
  00153	8b b4 c1 f4 03
	00 00		 mov	 esi, DWORD PTR [ecx+eax*8+1012]
  0015a	8b 9c c1 f8 03
	00 00		 mov	 ebx, DWORD PTR [ecx+eax*8+1016]
  00161	03 75 08	 add	 esi, DWORD PTR _sx$[ebp]
  00164	03 5d 0c	 add	 ebx, DWORD PTR _sy$[ebp]
  00167	2b fe		 sub	 edi, esi
  00169	2b d3		 sub	 edx, ebx
  0016b	0f af ff	 imul	 edi, edi
  0016e	0f af d2	 imul	 edx, edx
  00171	03 d7		 add	 edx, edi
  00173	89 45 1c	 mov	 DWORD PTR _ldir$[ebp], eax

; 411  : 
; 412  : 				if ( MinDist > dist )

  00176	39 55 fc	 cmp	 DWORD PTR _MinDist$[ebp], edx
  00179	7e 57		 jle	 SHORT $LN133@FindNextDi@3

; 413  : 				{
; 414  : 					if ( this->IsThisSpotOK(endx, endy) != FALSE && this->CanWeMoveForward3(endx, endy) != FALSE)

  0017b	85 f6		 test	 esi, esi
  0017d	78 53		 js	 SHORT $LN133@FindNextDi@3
  0017f	8b 01		 mov	 eax, DWORD PTR [ecx]
  00181	3b f0		 cmp	 esi, eax
  00183	7d 4d		 jge	 SHORT $LN133@FindNextDi@3
  00185	85 db		 test	 ebx, ebx
  00187	78 49		 js	 SHORT $LN133@FindNextDi@3
  00189	3b d8		 cmp	 ebx, eax
  0018b	7d 45		 jge	 SHORT $LN133@FindNextDi@3
  0018d	8b b9 40 04 00
	00		 mov	 edi, DWORD PTR [ecx+1088]
  00193	0f af c3	 imul	 eax, ebx
  00196	03 f8		 add	 edi, eax
  00198	80 3c 37 00	 cmp	 BYTE PTR [edi+esi], 0
  0019c	75 34		 jne	 SHORT $LN133@FindNextDi@3
  0019e	03 f0		 add	 esi, eax
  001a0	3b 59 04	 cmp	 ebx, DWORD PTR [ecx+4]
  001a3	7d 2d		 jge	 SHORT $LN133@FindNextDi@3
  001a5	8b 81 3c 04 00
	00		 mov	 eax, DWORD PTR [ecx+1084]
  001ab	80 3c 06 01	 cmp	 BYTE PTR [esi+eax], 1
  001af	73 0c		 jae	 SHORT $LN130@FindNextDi@3
  001b1	8b 81 40 04 00
	00		 mov	 eax, DWORD PTR [ecx+1088]
  001b7	80 3c 30 00	 cmp	 BYTE PTR [eax+esi], 0
  001bb	74 0c		 je	 SHORT $LN146@FindNextDi@3
$LN130@FindNextDi@3:
  001bd	8b 81 40 04 00
	00		 mov	 eax, DWORD PTR [ecx+1088]
  001c3	c6 04 30 01	 mov	 BYTE PTR [eax+esi], 1
  001c7	eb 09		 jmp	 SHORT $LN133@FindNextDi@3
$LN146@FindNextDi@3:

; 415  : 					{
; 416  : 						MinDist = dist;

  001c9	89 55 fc	 mov	 DWORD PTR _MinDist$[ebp], edx

; 417  : 						WhichDir = ldir;

  001cc	8b 55 1c	 mov	 edx, DWORD PTR _ldir$[ebp]
  001cf	89 55 f8	 mov	 DWORD PTR _WhichDir$[ebp], edx
$LN133@FindNextDi@3:

; 406  : 			{
; 407  : 				ldir = i % 8 ;
; 408  : 				int endx = sx + this->Dir[ldir*2];
; 409  : 				int endy = sy + this->Dir[ldir*2+1];
; 410  : 				int dist = this->GetDist(endx, endy, dx, dy);

  001d2	8b 55 18	 mov	 edx, DWORD PTR tv1399[ebp]
  001d5	8b 7d 10	 mov	 edi, DWORD PTR _dx$[ebp]
  001d8	42		 inc	 edx
  001d9	83 e2 07	 and	 edx, 7
  001dc	8b b4 d1 f4 03
	00 00		 mov	 esi, DWORD PTR [ecx+edx*8+1012]
  001e3	8b 9c d1 f8 03
	00 00		 mov	 ebx, DWORD PTR [ecx+edx*8+1016]
  001ea	03 75 08	 add	 esi, DWORD PTR _sx$[ebp]
  001ed	03 5d 0c	 add	 ebx, DWORD PTR _sy$[ebp]
  001f0	89 55 1c	 mov	 DWORD PTR _ldir$[ebp], edx
  001f3	8b 55 14	 mov	 edx, DWORD PTR _dy$[ebp]
  001f6	2b d3		 sub	 edx, ebx
  001f8	2b fe		 sub	 edi, esi
  001fa	0f af d2	 imul	 edx, edx
  001fd	0f af ff	 imul	 edi, edi
  00200	03 d7		 add	 edx, edi

; 411  : 
; 412  : 				if ( MinDist > dist )

  00202	39 55 fc	 cmp	 DWORD PTR _MinDist$[ebp], edx
  00205	7e 57		 jle	 SHORT $LN159@FindNextDi@3

; 413  : 				{
; 414  : 					if ( this->IsThisSpotOK(endx, endy) != FALSE && this->CanWeMoveForward3(endx, endy) != FALSE)

  00207	85 f6		 test	 esi, esi
  00209	78 53		 js	 SHORT $LN159@FindNextDi@3
  0020b	8b 01		 mov	 eax, DWORD PTR [ecx]
  0020d	3b f0		 cmp	 esi, eax
  0020f	7d 4d		 jge	 SHORT $LN159@FindNextDi@3
  00211	85 db		 test	 ebx, ebx
  00213	78 49		 js	 SHORT $LN159@FindNextDi@3
  00215	3b d8		 cmp	 ebx, eax
  00217	7d 45		 jge	 SHORT $LN159@FindNextDi@3
  00219	8b b9 40 04 00
	00		 mov	 edi, DWORD PTR [ecx+1088]
  0021f	0f af c3	 imul	 eax, ebx
  00222	03 f8		 add	 edi, eax
  00224	80 3c 37 00	 cmp	 BYTE PTR [edi+esi], 0
  00228	75 34		 jne	 SHORT $LN159@FindNextDi@3
  0022a	03 f0		 add	 esi, eax
  0022c	3b 59 04	 cmp	 ebx, DWORD PTR [ecx+4]
  0022f	7d 2d		 jge	 SHORT $LN159@FindNextDi@3
  00231	8b 81 3c 04 00
	00		 mov	 eax, DWORD PTR [ecx+1084]
  00237	80 3c 06 01	 cmp	 BYTE PTR [esi+eax], 1
  0023b	73 0c		 jae	 SHORT $LN137@FindNextDi@3
  0023d	8b 81 40 04 00
	00		 mov	 eax, DWORD PTR [ecx+1088]
  00243	80 3c 30 00	 cmp	 BYTE PTR [eax+esi], 0
  00247	74 0c		 je	 SHORT $LN148@FindNextDi@3
$LN137@FindNextDi@3:
  00249	8b 81 40 04 00
	00		 mov	 eax, DWORD PTR [ecx+1088]
  0024f	c6 04 30 01	 mov	 BYTE PTR [eax+esi], 1
  00253	eb 09		 jmp	 SHORT $LN159@FindNextDi@3
$LN148@FindNextDi@3:

; 415  : 					{
; 416  : 						MinDist = dist;

  00255	89 55 fc	 mov	 DWORD PTR _MinDist$[ebp], edx

; 417  : 						WhichDir = ldir;

  00258	8b 55 1c	 mov	 edx, DWORD PTR _ldir$[ebp]
  0025b	89 55 f8	 mov	 DWORD PTR _WhichDir$[ebp], edx
$LN159@FindNextDi@3:

; 404  : 		{
; 405  : 			for ( i = 0 ; i<8 ; i++ )

  0025e	8b 45 18	 mov	 eax, DWORD PTR tv1399[ebp]
  00261	83 c0 04	 add	 eax, 4
  00264	8d 50 fe	 lea	 edx, DWORD PTR [eax-2]
  00267	89 45 18	 mov	 DWORD PTR tv1399[ebp], eax
  0026a	83 fa 08	 cmp	 edx, 8
  0026d	0f 8c bd fd ff
	ff		 jl	 $LL158@FindNextDi@3

; 418  : 					}
; 419  : 				}
; 420  : 			}
; 421  : 		}
; 422  : 		else

  00273	e9 80 01 00 00	 jmp	 $LN11@FindNextDi@3
$LN26@FindNextDi@3:

; 423  : 		{
; 424  : 			for ( i = dirstart+7 ; i <= dirstart+9 ; i++ )

  00278	8b 55 18	 mov	 edx, DWORD PTR _dirstart$[ebp]
  0027b	8d 42 07	 lea	 eax, DWORD PTR [edx+7]
  0027e	8d 72 09	 lea	 esi, DWORD PTR [edx+9]
  00281	89 45 f4	 mov	 DWORD PTR _i$[ebp], eax
  00284	3b c6		 cmp	 eax, esi
  00286	0f 8f b7 00 00
	00		 jg	 $LN149@FindNextDi@3
  0028c	8d 64 24 00	 npad	 4
$LL168@FindNextDi@3:

; 425  : 			{
; 426  : 				ldir = i % 8;

  00290	25 07 00 00 80	 and	 eax, -2147483641	; 80000007H
  00295	79 05		 jns	 SHORT $LN175@FindNextDi@3
  00297	48		 dec	 eax
  00298	83 c8 f8	 or	 eax, -8			; fffffff8H
  0029b	40		 inc	 eax
$LN175@FindNextDi@3:

; 427  : 				int endx = sx + this->Dir[ldir*2];

  0029c	8b 94 c1 f4 03
	00 00		 mov	 edx, DWORD PTR [ecx+eax*8+1012]

; 428  : 				int endy = sy + this->Dir[ldir*2+1];

  002a3	8b b4 c1 f8 03
	00 00		 mov	 esi, DWORD PTR [ecx+eax*8+1016]
  002aa	03 55 08	 add	 edx, DWORD PTR _sx$[ebp]
  002ad	03 75 0c	 add	 esi, DWORD PTR _sy$[ebp]

; 429  : 				int dist = this->GetDist(endx, endy, dx, dy);

  002b0	8b 7d 10	 mov	 edi, DWORD PTR _dx$[ebp]
  002b3	89 45 1c	 mov	 DWORD PTR _ldir$[ebp], eax
  002b6	8b 45 14	 mov	 eax, DWORD PTR _dy$[ebp]
  002b9	2b c6		 sub	 eax, esi
  002bb	2b fa		 sub	 edi, edx
  002bd	0f af c0	 imul	 eax, eax
  002c0	0f af ff	 imul	 edi, edi
  002c3	03 c7		 add	 eax, edi

; 430  : 
; 431  : 				if ( MinDist > dist )

  002c5	39 45 fc	 cmp	 DWORD PTR _MinDist$[ebp], eax
  002c8	7e 57		 jle	 SHORT $LN18@FindNextDi@3

; 432  : 				{
; 433  : 					if ( this->IsThisSpotOK(endx, endy) != FALSE && this->CanWeMoveForward3(endx, endy) != FALSE)

  002ca	85 d2		 test	 edx, edx
  002cc	78 53		 js	 SHORT $LN18@FindNextDi@3
  002ce	8b 39		 mov	 edi, DWORD PTR [ecx]
  002d0	3b d7		 cmp	 edx, edi
  002d2	7d 4d		 jge	 SHORT $LN18@FindNextDi@3
  002d4	85 f6		 test	 esi, esi
  002d6	78 49		 js	 SHORT $LN18@FindNextDi@3
  002d8	3b f7		 cmp	 esi, edi
  002da	7d 45		 jge	 SHORT $LN18@FindNextDi@3
  002dc	8b 99 40 04 00
	00		 mov	 ebx, DWORD PTR [ecx+1088]
  002e2	0f af fe	 imul	 edi, esi
  002e5	03 df		 add	 ebx, edi
  002e7	80 3c 13 00	 cmp	 BYTE PTR [ebx+edx], 0
  002eb	75 34		 jne	 SHORT $LN18@FindNextDi@3
  002ed	03 d7		 add	 edx, edi
  002ef	3b 71 04	 cmp	 esi, DWORD PTR [ecx+4]
  002f2	7d 2d		 jge	 SHORT $LN18@FindNextDi@3
  002f4	8b b1 3c 04 00
	00		 mov	 esi, DWORD PTR [ecx+1084]
  002fa	80 3c 32 01	 cmp	 BYTE PTR [edx+esi], 1
  002fe	73 0c		 jae	 SHORT $LN49@FindNextDi@3
  00300	8b b1 40 04 00
	00		 mov	 esi, DWORD PTR [ecx+1088]
  00306	80 3c 16 00	 cmp	 BYTE PTR [esi+edx], 0
  0030a	74 0c		 je	 SHORT $LN151@FindNextDi@3
$LN49@FindNextDi@3:
  0030c	8b 81 40 04 00
	00		 mov	 eax, DWORD PTR [ecx+1088]
  00312	c6 04 10 01	 mov	 BYTE PTR [eax+edx], 1
  00316	eb 09		 jmp	 SHORT $LN18@FindNextDi@3
$LN151@FindNextDi@3:

; 434  : 					{
; 435  : 						MinDist = dist;

  00318	89 45 fc	 mov	 DWORD PTR _MinDist$[ebp], eax

; 436  : 						WhichDir = ldir;

  0031b	8b 45 1c	 mov	 eax, DWORD PTR _ldir$[ebp]
  0031e	89 45 f8	 mov	 DWORD PTR _WhichDir$[ebp], eax
$LN18@FindNextDi@3:

; 423  : 		{
; 424  : 			for ( i = dirstart+7 ; i <= dirstart+9 ; i++ )

  00321	8b 45 f4	 mov	 eax, DWORD PTR _i$[ebp]
  00324	8b 55 18	 mov	 edx, DWORD PTR _dirstart$[ebp]
  00327	40		 inc	 eax
  00328	8d 72 09	 lea	 esi, DWORD PTR [edx+9]
  0032b	89 45 f4	 mov	 DWORD PTR _i$[ebp], eax
  0032e	3b c6		 cmp	 eax, esi
  00330	0f 8e 5a ff ff
	ff		 jle	 $LL168@FindNextDi@3

; 437  : 					}
; 438  : 				}
; 439  : 			}
; 440  : 
; 441  : 			if ( MinDist == 10000000 )

  00336	81 7d fc 80 96
	98 00		 cmp	 DWORD PTR _MinDist$[ebp], 10000000 ; 00989680H
  0033d	0f 85 c2 00 00
	00		 jne	 $LN174@FindNextDi@3
$LN149@FindNextDi@3:

; 442  : 			{
; 443  : 				for ( i = dirstart+2 ; i <= dirstart+6 ; i++ )

  00343	8d 42 02	 lea	 eax, DWORD PTR [edx+2]
  00346	83 c2 06	 add	 edx, 6
  00349	89 45 f4	 mov	 DWORD PTR _i$[ebp], eax
  0034c	89 55 18	 mov	 DWORD PTR $T212754[ebp], edx
  0034f	3b c2		 cmp	 eax, edx
  00351	0f 8f f2 01 00
	00		 jg	 $LN152@FindNextDi@3
$LL163@FindNextDi@3:

; 444  : 				{
; 445  : 					ldir = i % 8;

  00357	25 07 00 00 80	 and	 eax, -2147483641	; 80000007H
  0035c	79 05		 jns	 SHORT $LN176@FindNextDi@3
  0035e	48		 dec	 eax
  0035f	83 c8 f8	 or	 eax, -8			; fffffff8H
  00362	40		 inc	 eax
$LN176@FindNextDi@3:

; 446  : 					int endx = sx + this->Dir[ldir*2];

  00363	8b 94 c1 f4 03
	00 00		 mov	 edx, DWORD PTR [ecx+eax*8+1012]

; 447  : 					int endy = sy + this->Dir[ldir*2+1];

  0036a	8b b4 c1 f8 03
	00 00		 mov	 esi, DWORD PTR [ecx+eax*8+1016]
  00371	03 55 08	 add	 edx, DWORD PTR _sx$[ebp]
  00374	03 75 0c	 add	 esi, DWORD PTR _sy$[ebp]

; 448  : 					int dist = this->GetDist(endx, endy, dx, dy);

  00377	8b 7d 10	 mov	 edi, DWORD PTR _dx$[ebp]
  0037a	89 45 1c	 mov	 DWORD PTR _ldir$[ebp], eax
  0037d	8b 45 14	 mov	 eax, DWORD PTR _dy$[ebp]
  00380	2b c6		 sub	 eax, esi
  00382	2b fa		 sub	 edi, edx
  00384	0f af c0	 imul	 eax, eax
  00387	0f af ff	 imul	 edi, edi
  0038a	03 c7		 add	 eax, edi

; 449  : 
; 450  : 					if ( MinDist > dist )

  0038c	39 45 fc	 cmp	 DWORD PTR _MinDist$[ebp], eax
  0038f	7e 57		 jle	 SHORT $LN12@FindNextDi@3

; 451  : 					{
; 452  : 						if ( this->IsThisSpotOK(endx, endy) != FALSE && this->CanWeMoveForward3(endx, endy) != FALSE)

  00391	85 d2		 test	 edx, edx
  00393	78 53		 js	 SHORT $LN12@FindNextDi@3
  00395	8b 39		 mov	 edi, DWORD PTR [ecx]
  00397	3b d7		 cmp	 edx, edi
  00399	7d 4d		 jge	 SHORT $LN12@FindNextDi@3
  0039b	85 f6		 test	 esi, esi
  0039d	78 49		 js	 SHORT $LN12@FindNextDi@3
  0039f	3b f7		 cmp	 esi, edi
  003a1	7d 45		 jge	 SHORT $LN12@FindNextDi@3
  003a3	8b 99 40 04 00
	00		 mov	 ebx, DWORD PTR [ecx+1088]
  003a9	0f af fe	 imul	 edi, esi
  003ac	03 df		 add	 ebx, edi
  003ae	80 3c 13 00	 cmp	 BYTE PTR [ebx+edx], 0
  003b2	75 34		 jne	 SHORT $LN12@FindNextDi@3
  003b4	03 d7		 add	 edx, edi
  003b6	3b 71 04	 cmp	 esi, DWORD PTR [ecx+4]
  003b9	7d 2d		 jge	 SHORT $LN12@FindNextDi@3
  003bb	8b b1 3c 04 00
	00		 mov	 esi, DWORD PTR [ecx+1084]
  003c1	80 3c 32 01	 cmp	 BYTE PTR [edx+esi], 1
  003c5	73 0c		 jae	 SHORT $LN62@FindNextDi@3
  003c7	8b b1 40 04 00
	00		 mov	 esi, DWORD PTR [ecx+1088]
  003cd	80 3c 16 00	 cmp	 BYTE PTR [esi+edx], 0
  003d1	74 0c		 je	 SHORT $LN154@FindNextDi@3
$LN62@FindNextDi@3:
  003d3	8b 81 40 04 00
	00		 mov	 eax, DWORD PTR [ecx+1088]
  003d9	c6 04 10 01	 mov	 BYTE PTR [eax+edx], 1
  003dd	eb 09		 jmp	 SHORT $LN12@FindNextDi@3
$LN154@FindNextDi@3:

; 453  : 						{
; 454  : 							MinDist = dist;
; 455  : 							WhichDir = ldir;

  003df	8b 55 1c	 mov	 edx, DWORD PTR _ldir$[ebp]
  003e2	89 45 fc	 mov	 DWORD PTR _MinDist$[ebp], eax
  003e5	89 55 f8	 mov	 DWORD PTR _WhichDir$[ebp], edx
$LN12@FindNextDi@3:

; 442  : 			{
; 443  : 				for ( i = dirstart+2 ; i <= dirstart+6 ; i++ )

  003e8	8b 45 f4	 mov	 eax, DWORD PTR _i$[ebp]
  003eb	40		 inc	 eax
  003ec	89 45 f4	 mov	 DWORD PTR _i$[ebp], eax
  003ef	3b 45 18	 cmp	 eax, DWORD PTR $T212754[ebp]
  003f2	0f 8e 5f ff ff
	ff		 jle	 $LL163@FindNextDi@3
$LN11@FindNextDi@3:

; 456  : 						}
; 457  : 					}
; 458  : 				}
; 459  : 			}
; 460  : 		}
; 461  : 		
; 462  : 		if ( MinDist == 10000000 )

  003f8	81 7d fc 80 96
	98 00		 cmp	 DWORD PTR _MinDist$[ebp], 10000000 ; 00989680H

; 463  : 		{
; 464  : 			return -1;

  003ff	0f 84 44 01 00
	00		 je	 $LN152@FindNextDi@3
$LN174@FindNextDi@3:

; 465  : 		}
; 466  : 		
; 467  : 		if ( this->CanWeMoveForward3(sx+this->Dir[WhichDir*2],sy+ this->Dir[WhichDir*2+1]) != FALSE )

  00405	8b 45 f8	 mov	 eax, DWORD PTR _WhichDir$[ebp]
  00408	8b b4 c1 f8 03
	00 00		 mov	 esi, DWORD PTR [ecx+eax*8+1016]
  0040f	8b 94 c1 f4 03
	00 00		 mov	 edx, DWORD PTR [ecx+eax*8+1012]
  00416	8b 39		 mov	 edi, DWORD PTR [ecx]
  00418	8b 5d 0c	 mov	 ebx, DWORD PTR _sy$[ebp]
  0041b	03 55 08	 add	 edx, DWORD PTR _sx$[ebp]
  0041e	03 f3		 add	 esi, ebx
  00420	8b c7		 mov	 eax, edi
  00422	0f af c6	 imul	 eax, esi
  00425	03 c2		 add	 eax, edx
  00427	3b d7		 cmp	 edx, edi
  00429	7d 33		 jge	 SHORT $LN7@FindNextDi@3
  0042b	85 d2		 test	 edx, edx
  0042d	78 2f		 js	 SHORT $LN7@FindNextDi@3
  0042f	3b 71 04	 cmp	 esi, DWORD PTR [ecx+4]
  00432	7d 2a		 jge	 SHORT $LN7@FindNextDi@3
  00434	85 f6		 test	 esi, esi
  00436	78 26		 js	 SHORT $LN7@FindNextDi@3
  00438	8b 91 3c 04 00
	00		 mov	 edx, DWORD PTR [ecx+1084]
  0043e	80 3c 10 01	 cmp	 BYTE PTR [eax+edx], 1
  00442	73 10		 jae	 SHORT $LN68@FindNextDi@3
  00444	8b 91 40 04 00
	00		 mov	 edx, DWORD PTR [ecx+1088]
  0044a	80 3c 02 00	 cmp	 BYTE PTR [edx+eax], 0
  0044e	0f 84 01 01 00
	00		 je	 $LN155@FindNextDi@3
$LN68@FindNextDi@3:
  00454	8b 91 40 04 00
	00		 mov	 edx, DWORD PTR [ecx+1088]
  0045a	c6 04 10 01	 mov	 BYTE PTR [eax+edx], 1
$LN7@FindNextDi@3:

; 478  : 		}
; 479  : 
; 480  : 		if ( ErrorCheck != 0 )

  0045e	80 7d 20 00	 cmp	 BYTE PTR _ErrorCheck$[ebp], 0
  00462	0f 84 ce 00 00
	00		 je	 $LN2@FindNextDi@3

; 481  : 		{
; 482  : 			int dir = WhichDir+7;

  00468	8b 5d f8	 mov	 ebx, DWORD PTR _WhichDir$[ebp]
  0046b	83 c3 07	 add	 ebx, 7

; 483  : 
; 484  : 			dir %= 8;

  0046e	81 e3 07 00 00
	80		 and	 ebx, -2147483641	; 80000007H
  00474	79 05		 jns	 SHORT $LN177@FindNextDi@3
  00476	4b		 dec	 ebx
  00477	83 cb f8	 or	 ebx, -8			; fffffff8H
  0047a	43		 inc	 ebx
$LN177@FindNextDi@3:

; 485  : 
; 486  : 			if (this->CanWeMoveForward3(sx + this->Dir[dir*2], sy + this->Dir[dir*2+1]) != FALSE )

  0047b	8b bc d9 f8 03
	00 00		 mov	 edi, DWORD PTR [ecx+ebx*8+1016]
  00482	8b 01		 mov	 eax, DWORD PTR [ecx]
  00484	03 7d 0c	 add	 edi, DWORD PTR _sy$[ebp]
  00487	8b b4 d9 f4 03
	00 00		 mov	 esi, DWORD PTR [ecx+ebx*8+1012]
  0048e	03 75 08	 add	 esi, DWORD PTR _sx$[ebp]
  00491	8b d0		 mov	 edx, eax
  00493	0f af d7	 imul	 edx, edi
  00496	03 d6		 add	 edx, esi
  00498	3b f0		 cmp	 esi, eax
  0049a	7d 33		 jge	 SHORT $LN4@FindNextDi@3
  0049c	85 f6		 test	 esi, esi
  0049e	78 2f		 js	 SHORT $LN4@FindNextDi@3
  004a0	3b 79 04	 cmp	 edi, DWORD PTR [ecx+4]
  004a3	7d 2a		 jge	 SHORT $LN4@FindNextDi@3
  004a5	85 ff		 test	 edi, edi
  004a7	78 26		 js	 SHORT $LN4@FindNextDi@3
  004a9	8b b1 3c 04 00
	00		 mov	 esi, DWORD PTR [ecx+1084]
  004af	80 3c 32 01	 cmp	 BYTE PTR [edx+esi], 1
  004b3	73 10		 jae	 SHORT $LN80@FindNextDi@3
  004b5	8b b1 40 04 00
	00		 mov	 esi, DWORD PTR [ecx+1088]
  004bb	80 3c 16 00	 cmp	 BYTE PTR [esi+edx], 0
  004bf	0f 84 e3 00 00
	00		 je	 $LN156@FindNextDi@3
$LN80@FindNextDi@3:
  004c5	8b 81 40 04 00
	00		 mov	 eax, DWORD PTR [ecx+1088]
  004cb	c6 04 02 01	 mov	 BYTE PTR [edx+eax], 1
$LN4@FindNextDi@3:

; 496  : 			}
; 497  : 
; 498  : 			int dir2 = WhichDir+9;

  004cf	8b 5d f8	 mov	 ebx, DWORD PTR _WhichDir$[ebp]
  004d2	83 c3 09	 add	 ebx, 9

; 499  : 			dir2 %= 8;

  004d5	81 e3 07 00 00
	80		 and	 ebx, -2147483641	; 80000007H
  004db	79 05		 jns	 SHORT $LN178@FindNextDi@3
  004dd	4b		 dec	 ebx
  004de	83 cb f8	 or	 ebx, -8			; fffffff8H
  004e1	43		 inc	 ebx
$LN178@FindNextDi@3:

; 500  : 
; 501  : 			if (CanWeMoveForward3(sx+this->Dir[dir2*2], sy+this->Dir[dir2*2+1]) != FALSE )

  004e2	8b bc d9 f8 03
	00 00		 mov	 edi, DWORD PTR [ecx+ebx*8+1016]
  004e9	8b 01		 mov	 eax, DWORD PTR [ecx]
  004eb	03 7d 0c	 add	 edi, DWORD PTR _sy$[ebp]
  004ee	8b b4 d9 f4 03
	00 00		 mov	 esi, DWORD PTR [ecx+ebx*8+1012]
  004f5	03 75 08	 add	 esi, DWORD PTR _sx$[ebp]
  004f8	8b d0		 mov	 edx, eax
  004fa	0f af d7	 imul	 edx, edi
  004fd	03 d6		 add	 edx, esi
  004ff	3b f0		 cmp	 esi, eax
  00501	7d 33		 jge	 SHORT $LN2@FindNextDi@3
  00503	85 f6		 test	 esi, esi
  00505	78 2f		 js	 SHORT $LN2@FindNextDi@3
  00507	3b 79 04	 cmp	 edi, DWORD PTR [ecx+4]
  0050a	7d 2a		 jge	 SHORT $LN2@FindNextDi@3
  0050c	85 ff		 test	 edi, edi
  0050e	78 26		 js	 SHORT $LN2@FindNextDi@3
  00510	8b b1 3c 04 00
	00		 mov	 esi, DWORD PTR [ecx+1084]
  00516	80 3c 32 01	 cmp	 BYTE PTR [edx+esi], 1
  0051a	73 10		 jae	 SHORT $LN92@FindNextDi@3
  0051c	8b b1 40 04 00
	00		 mov	 esi, DWORD PTR [ecx+1088]
  00522	80 3c 16 00	 cmp	 BYTE PTR [esi+edx], 0
  00526	0f 84 d1 00 00
	00		 je	 $LN157@FindNextDi@3
$LN92@FindNextDi@3:
  0052c	8b 81 40 04 00
	00		 mov	 eax, DWORD PTR [ecx+1088]
  00532	c6 04 02 01	 mov	 BYTE PTR [edx+eax], 1
$LN2@FindNextDi@3:

; 504  : 
; 505  : 				if ( path != -1 )
; 506  : 				{
; 507  : 					this->HitMap[sx + sy * this->Width] = 1;
; 508  : 					this->NumPath = path;
; 509  : 				}
; 510  : 				return dir2;
; 511  : 			}
; 512  : 		}
; 513  : 		
; 514  : 		this->HitMap[sx + sy*this->Width]=1;

  00536	8b 11		 mov	 edx, DWORD PTR [ecx]
  00538	0f af 55 0c	 imul	 edx, DWORD PTR _sy$[ebp]
  0053c	03 91 40 04 00
	00		 add	 edx, DWORD PTR [ecx+1088]
  00542	8b 45 08	 mov	 eax, DWORD PTR _sx$[ebp]
  00545	c6 04 02 01	 mov	 BYTE PTR [edx+eax], 1
$LN152@FindNextDi@3:

; 515  : 		return -1;

  00549	5f		 pop	 edi
  0054a	5e		 pop	 esi
  0054b	83 c8 ff	 or	 eax, -1
  0054e	5b		 pop	 ebx

; 516  : 	};

  0054f	8b e5		 mov	 esp, ebp
  00551	5d		 pop	 ebp
  00552	c2 1c 00	 ret	 28			; 0000001cH
$LN155@FindNextDi@3:

; 468  : 		{
; 469  : 			int path = this->VerifyThatOnPath(sx, sy);

  00555	33 c0		 xor	 eax, eax
  00557	39 41 08	 cmp	 DWORD PTR [ecx+8], eax
  0055a	7e 40		 jle	 SHORT $LN6@FindNextDi@3
  0055c	8b 55 08	 mov	 edx, DWORD PTR _sx$[ebp]
  0055f	90		 npad	 1
$LL77@FindNextDi@3:
  00560	0f b6 74 08 0c	 movzx	 esi, BYTE PTR [eax+ecx+12]
  00565	3b d6		 cmp	 edx, esi
  00567	75 0c		 jne	 SHORT $LN76@FindNextDi@3
  00569	0f b6 b4 08 00
	02 00 00	 movzx	 esi, BYTE PTR [eax+ecx+512]
  00571	3b de		 cmp	 ebx, esi
  00573	74 12		 je	 SHORT $LN78@FindNextDi@3
$LN76@FindNextDi@3:
  00575	40		 inc	 eax
  00576	3b 41 08	 cmp	 eax, DWORD PTR [ecx+8]
  00579	7c e5		 jl	 SHORT $LL77@FindNextDi@3

; 475  : 			}
; 476  : 
; 477  : 			return WhichDir;

  0057b	8b 45 f8	 mov	 eax, DWORD PTR _WhichDir$[ebp]
  0057e	5f		 pop	 edi
  0057f	5e		 pop	 esi
  00580	5b		 pop	 ebx

; 516  : 	};

  00581	8b e5		 mov	 esp, ebp
  00583	5d		 pop	 ebp
  00584	c2 1c 00	 ret	 28			; 0000001cH

; 468  : 		{
; 469  : 			int path = this->VerifyThatOnPath(sx, sy);

$LN78@FindNextDi@3:

; 470  : 
; 471  : 			if ( path != -1 )

  00587	83 f8 ff	 cmp	 eax, -1
  0058a	74 10		 je	 SHORT $LN6@FindNextDi@3

; 472  : 			{
; 473  : 				this->HitMap[sx+ sy * this->Width ] = 1;

  0058c	0f af fb	 imul	 edi, ebx
  0058f	03 b9 40 04 00
	00		 add	 edi, DWORD PTR [ecx+1088]
  00595	c6 04 17 01	 mov	 BYTE PTR [edi+edx], 1

; 474  : 				this->NumPath = path;

  00599	89 41 08	 mov	 DWORD PTR [ecx+8], eax
$LN6@FindNextDi@3:

; 475  : 			}
; 476  : 
; 477  : 			return WhichDir;

  0059c	8b 45 f8	 mov	 eax, DWORD PTR _WhichDir$[ebp]
  0059f	5f		 pop	 edi
  005a0	5e		 pop	 esi
  005a1	5b		 pop	 ebx

; 516  : 	};

  005a2	8b e5		 mov	 esp, ebp
  005a4	5d		 pop	 ebp
  005a5	c2 1c 00	 ret	 28			; 0000001cH
$LN156@FindNextDi@3:

; 487  : 			{
; 488  : 				int path = this->VerifyThatOnPath(sx, sy);

  005a8	33 d2		 xor	 edx, edx
  005aa	39 51 08	 cmp	 DWORD PTR [ecx+8], edx
  005ad	7e 43		 jle	 SHORT $LN3@FindNextDi@3
  005af	90		 npad	 1
$LL89@FindNextDi@3:
  005b0	0f b6 74 0a 0c	 movzx	 esi, BYTE PTR [edx+ecx+12]
  005b5	39 75 08	 cmp	 DWORD PTR _sx$[ebp], esi
  005b8	75 0f		 jne	 SHORT $LN88@FindNextDi@3
  005ba	0f b6 bc 0a 00
	02 00 00	 movzx	 edi, BYTE PTR [edx+ecx+512]
  005c2	8b 75 0c	 mov	 esi, DWORD PTR _sy$[ebp]
  005c5	3b f7		 cmp	 esi, edi
  005c7	74 11		 je	 SHORT $LN90@FindNextDi@3
$LN88@FindNextDi@3:
  005c9	42		 inc	 edx
  005ca	3b 51 08	 cmp	 edx, DWORD PTR [ecx+8]
  005cd	7c e1		 jl	 SHORT $LL89@FindNextDi@3

; 494  : 				}
; 495  : 				return dir;

  005cf	5f		 pop	 edi
  005d0	5e		 pop	 esi
  005d1	8b c3		 mov	 eax, ebx
  005d3	5b		 pop	 ebx

; 516  : 	};

  005d4	8b e5		 mov	 esp, ebp
  005d6	5d		 pop	 ebp
  005d7	c2 1c 00	 ret	 28			; 0000001cH

; 487  : 			{
; 488  : 				int path = this->VerifyThatOnPath(sx, sy);

$LN90@FindNextDi@3:

; 489  : 
; 490  : 				if ( path != -1 )

  005da	83 fa ff	 cmp	 edx, -1
  005dd	74 13		 je	 SHORT $LN3@FindNextDi@3

; 491  : 				{
; 492  : 					this->HitMap[sx+ sy * this->Width] = 1;

  005df	0f af c6	 imul	 eax, esi
  005e2	03 81 40 04 00
	00		 add	 eax, DWORD PTR [ecx+1088]
  005e8	8b 75 08	 mov	 esi, DWORD PTR _sx$[ebp]
  005eb	c6 04 30 01	 mov	 BYTE PTR [eax+esi], 1

; 493  : 					this->NumPath = path;

  005ef	89 51 08	 mov	 DWORD PTR [ecx+8], edx
$LN3@FindNextDi@3:

; 494  : 				}
; 495  : 				return dir;

  005f2	5f		 pop	 edi
  005f3	5e		 pop	 esi
  005f4	8b c3		 mov	 eax, ebx
  005f6	5b		 pop	 ebx

; 516  : 	};

  005f7	8b e5		 mov	 esp, ebp
  005f9	5d		 pop	 ebp
  005fa	c2 1c 00	 ret	 28			; 0000001cH
$LN157@FindNextDi@3:

; 502  : 			{
; 503  : 				int path = this->VerifyThatOnPath(sx, sy);

  005fd	33 d2		 xor	 edx, edx
  005ff	39 51 08	 cmp	 DWORD PTR [ecx+8], edx
  00602	7e ee		 jle	 SHORT $LN3@FindNextDi@3
$LL101@FindNextDi@3:
  00604	0f b6 74 0a 0c	 movzx	 esi, BYTE PTR [edx+ecx+12]
  00609	39 75 08	 cmp	 DWORD PTR _sx$[ebp], esi
  0060c	75 0f		 jne	 SHORT $LN100@FindNextDi@3
  0060e	0f b6 bc 0a 00
	02 00 00	 movzx	 edi, BYTE PTR [edx+ecx+512]
  00616	8b 75 0c	 mov	 esi, DWORD PTR _sy$[ebp]
  00619	3b f7		 cmp	 esi, edi
  0061b	74 bd		 je	 SHORT $LN90@FindNextDi@3
$LN100@FindNextDi@3:
  0061d	42		 inc	 edx
  0061e	3b 51 08	 cmp	 edx, DWORD PTR [ecx+8]
  00621	7c e1		 jl	 SHORT $LL101@FindNextDi@3

; 494  : 				}
; 495  : 				return dir;

  00623	5f		 pop	 edi
  00624	5e		 pop	 esi
  00625	8b c3		 mov	 eax, ebx
  00627	5b		 pop	 ebx

; 516  : 	};

  00628	8b e5		 mov	 esp, ebp
  0062a	5d		 pop	 ebp
  0062b	c2 1c 00	 ret	 28			; 0000001cH
?FindNextDir3@PATH@@AAEHHHHHH_N0@Z ENDP			; PATH::FindNextDir3
_TEXT	ENDS
PUBLIC	??0PATH@@QAE@XZ					; PATH::PATH
; Function compile flags: /Ogtp
;	COMDAT ??0PATH@@QAE@XZ
_TEXT	SEGMENT
_dir$ = -64						; size = 64
??0PATH@@QAE@XZ PROC					; PATH::PATH, COMDAT
; _this$ = ecx

; 522  : 	PATH() // line : 250

  00000	55		 push	 ebp
  00001	8b ec		 mov	 ebp, esp
  00003	83 ec 40	 sub	 esp, 64			; 00000040H

; 523  : 	{
; 524  : 		 int dir[16] = {-1, -1,

  00006	83 ca ff	 or	 edx, -1
  00009	56		 push	 esi

; 525  : 						0, -1,

  0000a	33 f6		 xor	 esi, esi
  0000c	8b c1		 mov	 eax, ecx

; 526  : 						1, -1,

  0000e	b9 01 00 00 00	 mov	 ecx, 1
  00013	57		 push	 edi
  00014	89 75 c8	 mov	 DWORD PTR _dir$[ebp+8], esi

; 527  : 						1, 0,

  00017	89 75 dc	 mov	 DWORD PTR _dir$[ebp+28], esi

; 528  : 						1, 1,
; 529  : 						0, 1,

  0001a	89 75 e8	 mov	 DWORD PTR _dir$[ebp+40], esi

; 530  : 						-1, 1,
; 531  : 						-1, 0} ;

  0001d	89 75 fc	 mov	 DWORD PTR _dir$[ebp+60], esi
  00020	89 4d d0	 mov	 DWORD PTR _dir$[ebp+16], ecx
  00023	89 4d d8	 mov	 DWORD PTR _dir$[ebp+24], ecx
  00026	89 4d e0	 mov	 DWORD PTR _dir$[ebp+32], ecx
  00029	89 4d e4	 mov	 DWORD PTR _dir$[ebp+36], ecx
  0002c	89 4d ec	 mov	 DWORD PTR _dir$[ebp+44], ecx
  0002f	89 4d f4	 mov	 DWORD PTR _dir$[ebp+52], ecx

; 532  : 
; 533  : 		memcpy(this->Dir, dir, sizeof(dir));

  00032	8d b8 f4 03 00
	00		 lea	 edi, DWORD PTR [eax+1012]
  00038	b9 10 00 00 00	 mov	 ecx, 16			; 00000010H
  0003d	8d 75 c0	 lea	 esi, DWORD PTR _dir$[ebp]
  00040	89 55 c0	 mov	 DWORD PTR _dir$[ebp], edx
  00043	89 55 c4	 mov	 DWORD PTR _dir$[ebp+4], edx
  00046	89 55 cc	 mov	 DWORD PTR _dir$[ebp+12], edx
  00049	89 55 d4	 mov	 DWORD PTR _dir$[ebp+20], edx
  0004c	89 55 f0	 mov	 DWORD PTR _dir$[ebp+48], edx
  0004f	89 55 f8	 mov	 DWORD PTR _dir$[ebp+56], edx
  00052	f3 a5		 rep movsd
  00054	5f		 pop	 edi
  00055	5e		 pop	 esi

; 534  : 	};	// line : 252

  00056	8b e5		 mov	 esp, ebp
  00058	5d		 pop	 ebp
  00059	c3		 ret	 0
??0PATH@@QAE@XZ ENDP					; PATH::PATH
_TEXT	ENDS
PUBLIC	??1PATH@@QAE@XZ					; PATH::~PATH
; Function compile flags: /Ogtp
;	COMDAT ??1PATH@@QAE@XZ
_TEXT	SEGMENT
??1PATH@@QAE@XZ PROC					; PATH::~PATH, COMDAT
; _this$ = ecx

; 538  : 		return;
; 539  : 	};	// line : 255

  00000	c3		 ret	 0
??1PATH@@QAE@XZ ENDP					; PATH::~PATH
_TEXT	ENDS
PUBLIC	?FindPath@PATH@@QAE_NHHHH_N@Z			; PATH::FindPath
EXTRN	_memset:PROC
; Function compile flags: /Ogtp
;	COMDAT ?FindPath@PATH@@QAE_NHHHH_N@Z
_TEXT	SEGMENT
_NumFails$ = -8						; size = 4
_First$ = -4						; size = 1
_startx$ = 8						; size = 4
_starty$ = 12						; size = 4
_endx$ = 16						; size = 4
_endy$ = 20						; size = 4
_ErrorCheck$ = 24					; size = 1
?FindPath@PATH@@QAE_NHHHH_N@Z PROC			; PATH::FindPath, COMDAT
; _this$ = ecx

; 542  : 	{

  00000	55		 push	 ebp
  00001	8b ec		 mov	 ebp, esp
  00003	83 ec 08	 sub	 esp, 8
  00006	53		 push	 ebx
  00007	56		 push	 esi
  00008	8b f1		 mov	 esi, ecx

; 543  : 		this->NumPath = 0;
; 544  : 
; 545  : 		int WhichDir = 0;
; 546  : 		int NumFails = 0;
; 547  : 		bool First;
; 548  : 
; 549  : 		
; 550  : 		memset(this->HitMap, 0, this->Width * this->Height);

  0000a	8b 46 04	 mov	 eax, DWORD PTR [esi+4]
  0000d	0f af 06	 imul	 eax, DWORD PTR [esi]
  00010	8b 8e 40 04 00
	00		 mov	 ecx, DWORD PTR [esi+1088]
  00016	57		 push	 edi
  00017	33 ff		 xor	 edi, edi
  00019	50		 push	 eax
  0001a	57		 push	 edi
  0001b	51		 push	 ecx
  0001c	89 7e 08	 mov	 DWORD PTR [esi+8], edi
  0001f	89 7d f8	 mov	 DWORD PTR _NumFails$[ebp], edi
  00022	e8 00 00 00 00	 call	 _memset

; 551  : 		First = true;

  00027	8b 5d 08	 mov	 ebx, DWORD PTR _startx$[ebp]
  0002a	83 c4 0c	 add	 esp, 12			; 0000000cH
  0002d	c6 45 fc 01	 mov	 BYTE PTR _First$[ebp], 1
$LL11@FindPath:

; 552  : 
; 553  : 		while ( (startx != endx) || (starty != endy) )

  00031	8b 45 10	 mov	 eax, DWORD PTR _endx$[ebp]
  00034	3b d8		 cmp	 ebx, eax
  00036	75 0c		 jne	 SHORT $LN18@FindPath
  00038	8b 55 0c	 mov	 edx, DWORD PTR _starty$[ebp]
  0003b	3b 55 14	 cmp	 edx, DWORD PTR _endy$[ebp]
  0003e	0f 84 8b 00 00
	00		 je	 $LN19@FindPath
$LN18@FindPath:

; 554  : 		{
; 555  : 			WhichDir = this->FindNextDir( startx, starty, endx, endy, WhichDir, First, ErrorCheck);

  00044	8b 4d 18	 mov	 ecx, DWORD PTR _ErrorCheck$[ebp]
  00047	8b 55 fc	 mov	 edx, DWORD PTR _First$[ebp]
  0004a	51		 push	 ecx
  0004b	8b 4d 14	 mov	 ecx, DWORD PTR _endy$[ebp]
  0004e	52		 push	 edx
  0004f	8b 55 0c	 mov	 edx, DWORD PTR _starty$[ebp]
  00052	57		 push	 edi
  00053	51		 push	 ecx
  00054	50		 push	 eax
  00055	52		 push	 edx
  00056	53		 push	 ebx
  00057	8b ce		 mov	 ecx, esi
  00059	e8 00 00 00 00	 call	 ?FindNextDir@PATH@@AAEHHHHHH_N0@Z ; PATH::FindNextDir
  0005e	8b f8		 mov	 edi, eax

; 556  : 			First = 0;

  00060	c6 45 fc 00	 mov	 BYTE PTR _First$[ebp], 0

; 557  : 			
; 558  : 			if ( WhichDir >= 0 )

  00064	85 ff		 test	 edi, edi
  00066	78 2e		 js	 SHORT $LN8@FindPath

; 559  : 			{
; 560  : 				this->PathX[this->NumPath] = startx;

  00068	8b 46 08	 mov	 eax, DWORD PTR [esi+8]
  0006b	88 5c 06 0c	 mov	 BYTE PTR [esi+eax+12], bl

; 561  : 				this->PathY[this->NumPath] = starty;

  0006f	8b 45 0c	 mov	 eax, DWORD PTR _starty$[ebp]
  00072	8b 4e 08	 mov	 ecx, DWORD PTR [esi+8]
  00075	88 84 0e 00 02
	00 00		 mov	 BYTE PTR [esi+ecx+512], al

; 562  : 				startx += this->Dir[WhichDir*2];
; 563  : 				starty += this->Dir[WhichDir*2+1];

  0007c	03 84 fe f8 03
	00 00		 add	 eax, DWORD PTR [esi+edi*8+1016]
  00083	03 9c fe f4 03
	00 00		 add	 ebx, DWORD PTR [esi+edi*8+1012]

; 564  : 				this->NumPath++;

  0008a	ff 46 08	 inc	 DWORD PTR [esi+8]

; 565  : 
; 566  : 				if ( this->NumPath >= 15 )

  0008d	83 7e 08 0f	 cmp	 DWORD PTR [esi+8], 15	; 0000000fH
  00091	89 45 0c	 mov	 DWORD PTR _starty$[ebp], eax

; 569  : 				}
; 570  : 			}

  00094	eb 28		 jmp	 SHORT $LN20@FindPath
$LN8@FindPath:

; 571  : 			else if ( ErrorCheck != false )

  00096	80 7d 18 00	 cmp	 BYTE PTR _ErrorCheck$[ebp], 0
  0009a	74 33		 je	 SHORT $LN19@FindPath

; 572  : 			{
; 573  : 				this->NumPath--;

  0009c	ff 4e 08	 dec	 DWORD PTR [esi+8]
  0009f	8b 46 08	 mov	 eax, DWORD PTR [esi+8]

; 574  : 
; 575  : 				if ( this->NumPath < 0 )

  000a2	78 20		 js	 SHORT $LN15@FindPath

; 576  : 				{
; 577  : 					return false;
; 578  : 				}
; 579  : 
; 580  : 				startx = this->PathX[this->NumPath];
; 581  : 				starty = this->PathY[this->NumPath];

  000a4	0f b6 94 30 00
	02 00 00	 movzx	 edx, BYTE PTR [eax+esi+512]
  000ac	0f b6 5c 30 0c	 movzx	 ebx, BYTE PTR [eax+esi+12]

; 582  : 				NumFails++;

  000b1	8b 45 f8	 mov	 eax, DWORD PTR _NumFails$[ebp]
  000b4	40		 inc	 eax
  000b5	89 55 0c	 mov	 DWORD PTR _starty$[ebp], edx
  000b8	89 45 f8	 mov	 DWORD PTR _NumFails$[ebp], eax

; 583  : 
; 584  : 				if ( NumFails >= 10 )

  000bb	83 f8 0a	 cmp	 eax, 10			; 0000000aH
$LN20@FindPath:
  000be	0f 8c 6d ff ff
	ff		 jl	 $LL11@FindPath
$LN15@FindPath:
  000c4	5f		 pop	 edi
  000c5	5e		 pop	 esi

; 567  : 				{
; 568  : 					return false;

  000c6	32 c0		 xor	 al, al
  000c8	5b		 pop	 ebx

; 601  : 		{
; 602  : 			return false;
; 603  : 		}
; 604  : 
; 605  : 		return true;
; 606  : 	};	// line : 302

  000c9	8b e5		 mov	 esp, ebp
  000cb	5d		 pop	 ebp
  000cc	c2 14 00	 ret	 20			; 00000014H
$LN19@FindPath:

; 585  : 				{
; 586  : 					return false;
; 587  : 				}
; 588  : 			}
; 589  : 			else
; 590  : 			{
; 591  : 				break;
; 592  : 			}
; 593  : 			
; 594  : 		}
; 595  : 
; 596  : 		this->PathX[this->NumPath] = startx;

  000cf	8b 46 08	 mov	 eax, DWORD PTR [esi+8]

; 597  : 		this->PathY[this->NumPath] = starty;

  000d2	8a 55 0c	 mov	 dl, BYTE PTR _starty$[ebp]
  000d5	88 5c 06 0c	 mov	 BYTE PTR [esi+eax+12], bl
  000d9	8b 4e 08	 mov	 ecx, DWORD PTR [esi+8]
  000dc	88 94 0e 00 02
	00 00		 mov	 BYTE PTR [esi+ecx+512], dl

; 598  : 		this->NumPath++;

  000e3	ff 46 08	 inc	 DWORD PTR [esi+8]

; 599  : 
; 600  : 		if ( this->NumPath >= 15 )

  000e6	83 7e 08 0f	 cmp	 DWORD PTR [esi+8], 15	; 0000000fH
  000ea	5f		 pop	 edi
  000eb	5e		 pop	 esi
  000ec	0f 9c c0	 setl	 al
  000ef	5b		 pop	 ebx

; 601  : 		{
; 602  : 			return false;
; 603  : 		}
; 604  : 
; 605  : 		return true;
; 606  : 	};	// line : 302

  000f0	8b e5		 mov	 esp, ebp
  000f2	5d		 pop	 ebp
  000f3	c2 14 00	 ret	 20			; 00000014H
?FindPath@PATH@@QAE_NHHHH_N@Z ENDP			; PATH::FindPath
_TEXT	ENDS
PUBLIC	?FindPath2@PATH@@QAE_NHHHH_N@Z			; PATH::FindPath2
; Function compile flags: /Ogtp
;	COMDAT ?FindPath2@PATH@@QAE_NHHHH_N@Z
_TEXT	SEGMENT
_NumFails$ = -8						; size = 4
_First$ = -4						; size = 1
_startx$ = 8						; size = 4
_starty$ = 12						; size = 4
_endx$ = 16						; size = 4
_endy$ = 20						; size = 4
_ErrorCheck$ = 24					; size = 1
?FindPath2@PATH@@QAE_NHHHH_N@Z PROC			; PATH::FindPath2, COMDAT
; _this$ = ecx

; 609  : 	{

  00000	55		 push	 ebp
  00001	8b ec		 mov	 ebp, esp
  00003	83 ec 08	 sub	 esp, 8
  00006	53		 push	 ebx
  00007	56		 push	 esi
  00008	8b f1		 mov	 esi, ecx

; 610  : 		this->NumPath = 0;
; 611  : 
; 612  : 		int WhichDir=0;
; 613  : 		int NumFails=0;
; 614  : 		bool First;
; 615  : 
; 616  : 		
; 617  : 		memset(this->HitMap, 0, this->Width * this->Height);

  0000a	8b 46 04	 mov	 eax, DWORD PTR [esi+4]
  0000d	0f af 06	 imul	 eax, DWORD PTR [esi]
  00010	8b 8e 40 04 00
	00		 mov	 ecx, DWORD PTR [esi+1088]
  00016	57		 push	 edi
  00017	33 ff		 xor	 edi, edi
  00019	50		 push	 eax
  0001a	57		 push	 edi
  0001b	51		 push	 ecx
  0001c	89 7e 08	 mov	 DWORD PTR [esi+8], edi
  0001f	89 7d f8	 mov	 DWORD PTR _NumFails$[ebp], edi
  00022	e8 00 00 00 00	 call	 _memset

; 618  : 		First = true;

  00027	8b 5d 08	 mov	 ebx, DWORD PTR _startx$[ebp]
  0002a	83 c4 0c	 add	 esp, 12			; 0000000cH
  0002d	c6 45 fc 01	 mov	 BYTE PTR _First$[ebp], 1
$LL11@FindPath2:

; 619  : 
; 620  : 		while ( (startx != endx) || (starty != endy) )

  00031	8b 45 10	 mov	 eax, DWORD PTR _endx$[ebp]
  00034	3b d8		 cmp	 ebx, eax
  00036	75 08		 jne	 SHORT $LN18@FindPath2
  00038	8b 55 0c	 mov	 edx, DWORD PTR _starty$[ebp]
  0003b	3b 55 14	 cmp	 edx, DWORD PTR _endy$[ebp]
  0003e	74 58		 je	 SHORT $LN19@FindPath2
$LN18@FindPath2:

; 621  : 		{
; 622  : 			WhichDir = this->FindNextDir2(startx, starty, endx, endy, WhichDir, First, ErrorCheck);

  00040	8b 4d 18	 mov	 ecx, DWORD PTR _ErrorCheck$[ebp]
  00043	8b 55 fc	 mov	 edx, DWORD PTR _First$[ebp]
  00046	51		 push	 ecx
  00047	8b 4d 14	 mov	 ecx, DWORD PTR _endy$[ebp]
  0004a	52		 push	 edx
  0004b	8b 55 0c	 mov	 edx, DWORD PTR _starty$[ebp]
  0004e	57		 push	 edi
  0004f	51		 push	 ecx
  00050	50		 push	 eax
  00051	52		 push	 edx
  00052	53		 push	 ebx
  00053	8b ce		 mov	 ecx, esi
  00055	e8 00 00 00 00	 call	 ?FindNextDir2@PATH@@AAEHHHHHH_N0@Z ; PATH::FindNextDir2
  0005a	8b f8		 mov	 edi, eax

; 623  : 			First = 0;

  0005c	c6 45 fc 00	 mov	 BYTE PTR _First$[ebp], 0

; 624  : 			
; 625  : 			if ( WhichDir >= 0 )

  00060	85 ff		 test	 edi, edi
  00062	78 5b		 js	 SHORT $LN8@FindPath2

; 626  : 			{
; 627  : 				this->PathX[this->NumPath] = startx;

  00064	8b 46 08	 mov	 eax, DWORD PTR [esi+8]
  00067	88 5c 06 0c	 mov	 BYTE PTR [esi+eax+12], bl

; 628  : 				this->PathY[this->NumPath] = starty;

  0006b	8b 45 0c	 mov	 eax, DWORD PTR _starty$[ebp]
  0006e	8b 4e 08	 mov	 ecx, DWORD PTR [esi+8]
  00071	88 84 0e 00 02
	00 00		 mov	 BYTE PTR [esi+ecx+512], al

; 629  : 				startx += this->Dir[WhichDir*2];
; 630  : 				starty += this->Dir[WhichDir*2+1];

  00078	03 84 fe f8 03
	00 00		 add	 eax, DWORD PTR [esi+edi*8+1016]
  0007f	03 9c fe f4 03
	00 00		 add	 ebx, DWORD PTR [esi+edi*8+1012]

; 631  : 				this->NumPath++;

  00086	ff 46 08	 inc	 DWORD PTR [esi+8]
  00089	89 45 0c	 mov	 DWORD PTR _starty$[ebp], eax
  0008c	8b 46 08	 mov	 eax, DWORD PTR [esi+8]

; 632  : 
; 633  : 				if ( this->NumPath >= 14 )

  0008f	83 f8 0e	 cmp	 eax, 14			; 0000000eH
  00092	7c 9d		 jl	 SHORT $LL11@FindPath2

; 634  : 				{
; 635  : 					this->NumPath--;

  00094	48		 dec	 eax
  00095	89 46 08	 mov	 DWORD PTR [esi+8], eax
$LN19@FindPath2:

; 653  : 				{
; 654  : 					return false;
; 655  : 				}
; 656  : 			}
; 657  : 			else
; 658  : 			{
; 659  : 				break;
; 660  : 			}
; 661  : 			
; 662  : 		}
; 663  : 
; 664  : 		this->PathX[this->NumPath] = startx;

  00098	8b 46 08	 mov	 eax, DWORD PTR [esi+8]

; 665  : 		this->PathY[this->NumPath] = starty;

  0009b	8a 55 0c	 mov	 dl, BYTE PTR _starty$[ebp]
  0009e	88 5c 06 0c	 mov	 BYTE PTR [esi+eax+12], bl
  000a2	8b 4e 08	 mov	 ecx, DWORD PTR [esi+8]
  000a5	88 94 0e 00 02
	00 00		 mov	 BYTE PTR [esi+ecx+512], dl

; 666  : 		this->NumPath++;

  000ac	ff 46 08	 inc	 DWORD PTR [esi+8]

; 667  : 
; 668  : 		if ( this->NumPath >= 15 )

  000af	83 7e 08 0f	 cmp	 DWORD PTR [esi+8], 15	; 0000000fH
  000b3	5f		 pop	 edi
  000b4	5e		 pop	 esi
  000b5	0f 9c c0	 setl	 al
  000b8	5b		 pop	 ebx

; 669  : 		{
; 670  : 			return false;
; 671  : 		}
; 672  : 
; 673  : 		return true;
; 674  : 	};	// line : 351

  000b9	8b e5		 mov	 esp, ebp
  000bb	5d		 pop	 ebp
  000bc	c2 14 00	 ret	 20			; 00000014H
$LN8@FindPath2:

; 636  : 					break;
; 637  : 				}
; 638  : 			}
; 639  : 			else if ( ErrorCheck != FALSE )

  000bf	80 7d 18 00	 cmp	 BYTE PTR _ErrorCheck$[ebp], 0
  000c3	74 d3		 je	 SHORT $LN19@FindPath2

; 640  : 			{
; 641  : 				this->NumPath--;

  000c5	ff 4e 08	 dec	 DWORD PTR [esi+8]
  000c8	8b 46 08	 mov	 eax, DWORD PTR [esi+8]

; 642  : 
; 643  : 				if ( this->NumPath < 0 )

  000cb	78 20		 js	 SHORT $LN16@FindPath2

; 646  : 				}
; 647  : 
; 648  : 				startx = this->PathX[this->NumPath];
; 649  : 				starty = this->PathY[this->NumPath];

  000cd	0f b6 94 30 00
	02 00 00	 movzx	 edx, BYTE PTR [eax+esi+512]
  000d5	0f b6 5c 30 0c	 movzx	 ebx, BYTE PTR [eax+esi+12]

; 650  : 				NumFails++;

  000da	8b 45 f8	 mov	 eax, DWORD PTR _NumFails$[ebp]
  000dd	40		 inc	 eax
  000de	89 55 0c	 mov	 DWORD PTR _starty$[ebp], edx
  000e1	89 45 f8	 mov	 DWORD PTR _NumFails$[ebp], eax

; 651  : 
; 652  : 				if ( NumFails >= 10 )

  000e4	83 f8 0a	 cmp	 eax, 10			; 0000000aH
  000e7	0f 8c 44 ff ff
	ff		 jl	 $LL11@FindPath2
$LN16@FindPath2:
  000ed	5f		 pop	 edi
  000ee	5e		 pop	 esi

; 644  : 				{
; 645  : 					return false;

  000ef	32 c0		 xor	 al, al
  000f1	5b		 pop	 ebx

; 669  : 		{
; 670  : 			return false;
; 671  : 		}
; 672  : 
; 673  : 		return true;
; 674  : 	};	// line : 351

  000f2	8b e5		 mov	 esp, ebp
  000f4	5d		 pop	 ebp
  000f5	c2 14 00	 ret	 20			; 00000014H
?FindPath2@PATH@@QAE_NHHHH_N@Z ENDP			; PATH::FindPath2
_TEXT	ENDS
PUBLIC	?FindPath3@PATH@@QAE_NHHHH_N@Z			; PATH::FindPath3
; Function compile flags: /Ogtp
;	COMDAT ?FindPath3@PATH@@QAE_NHHHH_N@Z
_TEXT	SEGMENT
_NumFails$ = -8						; size = 4
_First$ = -4						; size = 1
_startx$ = 8						; size = 4
_starty$ = 12						; size = 4
_endx$ = 16						; size = 4
_endy$ = 20						; size = 4
_ErrorCheck$ = 24					; size = 1
?FindPath3@PATH@@QAE_NHHHH_N@Z PROC			; PATH::FindPath3, COMDAT
; _this$ = ecx

; 678  : 	{

  00000	55		 push	 ebp
  00001	8b ec		 mov	 ebp, esp
  00003	83 ec 08	 sub	 esp, 8
  00006	53		 push	 ebx
  00007	56		 push	 esi
  00008	8b f1		 mov	 esi, ecx

; 679  : 		this->NumPath = 0;
; 680  : 
; 681  : 		int WhichDir=0;
; 682  : 		int NumFails=0;
; 683  : 		bool First;
; 684  : 
; 685  : 		
; 686  : 		memset(this->HitMap, 0, this->Width * this->Height);

  0000a	8b 46 04	 mov	 eax, DWORD PTR [esi+4]
  0000d	0f af 06	 imul	 eax, DWORD PTR [esi]
  00010	8b 8e 40 04 00
	00		 mov	 ecx, DWORD PTR [esi+1088]
  00016	57		 push	 edi
  00017	33 ff		 xor	 edi, edi
  00019	50		 push	 eax
  0001a	57		 push	 edi
  0001b	51		 push	 ecx
  0001c	89 7e 08	 mov	 DWORD PTR [esi+8], edi
  0001f	89 7d f8	 mov	 DWORD PTR _NumFails$[ebp], edi
  00022	e8 00 00 00 00	 call	 _memset

; 687  : 		First = true;

  00027	8b 5d 08	 mov	 ebx, DWORD PTR _startx$[ebp]
  0002a	83 c4 0c	 add	 esp, 12			; 0000000cH
  0002d	c6 45 fc 01	 mov	 BYTE PTR _First$[ebp], 1
$LL11@FindPath3:

; 688  : 
; 689  : 		while ( (startx != endx) || (starty != endy) )

  00031	8b 45 10	 mov	 eax, DWORD PTR _endx$[ebp]
  00034	3b d8		 cmp	 ebx, eax
  00036	75 08		 jne	 SHORT $LN18@FindPath3
  00038	8b 55 0c	 mov	 edx, DWORD PTR _starty$[ebp]
  0003b	3b 55 14	 cmp	 edx, DWORD PTR _endy$[ebp]
  0003e	74 58		 je	 SHORT $LN19@FindPath3
$LN18@FindPath3:

; 690  : 		{
; 691  : 			WhichDir = this->FindNextDir3(startx, starty, endx, endy, WhichDir, First, ErrorCheck);

  00040	8b 4d 18	 mov	 ecx, DWORD PTR _ErrorCheck$[ebp]
  00043	8b 55 fc	 mov	 edx, DWORD PTR _First$[ebp]
  00046	51		 push	 ecx
  00047	8b 4d 14	 mov	 ecx, DWORD PTR _endy$[ebp]
  0004a	52		 push	 edx
  0004b	8b 55 0c	 mov	 edx, DWORD PTR _starty$[ebp]
  0004e	57		 push	 edi
  0004f	51		 push	 ecx
  00050	50		 push	 eax
  00051	52		 push	 edx
  00052	53		 push	 ebx
  00053	8b ce		 mov	 ecx, esi
  00055	e8 00 00 00 00	 call	 ?FindNextDir3@PATH@@AAEHHHHHH_N0@Z ; PATH::FindNextDir3
  0005a	8b f8		 mov	 edi, eax

; 692  : 			First = 0;

  0005c	c6 45 fc 00	 mov	 BYTE PTR _First$[ebp], 0

; 693  : 			
; 694  : 			if ( WhichDir >= 0 )

  00060	85 ff		 test	 edi, edi
  00062	78 5b		 js	 SHORT $LN8@FindPath3

; 695  : 			{
; 696  : 				this->PathX[this->NumPath] = startx;

  00064	8b 46 08	 mov	 eax, DWORD PTR [esi+8]
  00067	88 5c 06 0c	 mov	 BYTE PTR [esi+eax+12], bl

; 697  : 				this->PathY[this->NumPath] = starty;

  0006b	8b 45 0c	 mov	 eax, DWORD PTR _starty$[ebp]
  0006e	8b 4e 08	 mov	 ecx, DWORD PTR [esi+8]
  00071	88 84 0e 00 02
	00 00		 mov	 BYTE PTR [esi+ecx+512], al

; 698  : 				startx += this->Dir[WhichDir*2];
; 699  : 				starty += this->Dir[WhichDir*2+1];

  00078	03 84 fe f8 03
	00 00		 add	 eax, DWORD PTR [esi+edi*8+1016]
  0007f	03 9c fe f4 03
	00 00		 add	 ebx, DWORD PTR [esi+edi*8+1012]

; 700  : 				this->NumPath++;

  00086	ff 46 08	 inc	 DWORD PTR [esi+8]
  00089	89 45 0c	 mov	 DWORD PTR _starty$[ebp], eax
  0008c	8b 46 08	 mov	 eax, DWORD PTR [esi+8]

; 701  : 
; 702  : 				if ( this->NumPath >= 14 )

  0008f	83 f8 0e	 cmp	 eax, 14			; 0000000eH
  00092	7c 9d		 jl	 SHORT $LL11@FindPath3

; 703  : 				{
; 704  : 					this->NumPath--;

  00094	48		 dec	 eax
  00095	89 46 08	 mov	 DWORD PTR [esi+8], eax
$LN19@FindPath3:

; 722  : 				{
; 723  : 					return false;
; 724  : 				}
; 725  : 			}
; 726  : 			else
; 727  : 			{
; 728  : 				break;
; 729  : 			}
; 730  : 			
; 731  : 		}
; 732  : 
; 733  : 		this->PathX[this->NumPath] = startx;

  00098	8b 46 08	 mov	 eax, DWORD PTR [esi+8]

; 734  : 		this->PathY[this->NumPath] = starty;

  0009b	8a 55 0c	 mov	 dl, BYTE PTR _starty$[ebp]
  0009e	88 5c 06 0c	 mov	 BYTE PTR [esi+eax+12], bl
  000a2	8b 4e 08	 mov	 ecx, DWORD PTR [esi+8]
  000a5	88 94 0e 00 02
	00 00		 mov	 BYTE PTR [esi+ecx+512], dl

; 735  : 		this->NumPath++;

  000ac	ff 46 08	 inc	 DWORD PTR [esi+8]

; 736  : 
; 737  : 		if ( this->NumPath >= 15 )

  000af	83 7e 08 0f	 cmp	 DWORD PTR [esi+8], 15	; 0000000fH
  000b3	5f		 pop	 edi
  000b4	5e		 pop	 esi
  000b5	0f 9c c0	 setl	 al
  000b8	5b		 pop	 ebx

; 738  : 		{
; 739  : 			return false;
; 740  : 		}
; 741  : 
; 742  : 		return true;
; 743  : 	};

  000b9	8b e5		 mov	 esp, ebp
  000bb	5d		 pop	 ebp
  000bc	c2 14 00	 ret	 20			; 00000014H
$LN8@FindPath3:

; 705  : 					break;
; 706  : 				}
; 707  : 			}
; 708  : 			else if ( ErrorCheck != FALSE )

  000bf	80 7d 18 00	 cmp	 BYTE PTR _ErrorCheck$[ebp], 0
  000c3	74 d3		 je	 SHORT $LN19@FindPath3

; 709  : 			{
; 710  : 				this->NumPath--;

  000c5	ff 4e 08	 dec	 DWORD PTR [esi+8]
  000c8	8b 46 08	 mov	 eax, DWORD PTR [esi+8]

; 711  : 
; 712  : 				if ( this->NumPath < 0 )

  000cb	78 20		 js	 SHORT $LN16@FindPath3

; 715  : 				}
; 716  : 
; 717  : 				startx = this->PathX[this->NumPath];
; 718  : 				starty = this->PathY[this->NumPath];

  000cd	0f b6 94 30 00
	02 00 00	 movzx	 edx, BYTE PTR [eax+esi+512]
  000d5	0f b6 5c 30 0c	 movzx	 ebx, BYTE PTR [eax+esi+12]

; 719  : 				NumFails++;

  000da	8b 45 f8	 mov	 eax, DWORD PTR _NumFails$[ebp]
  000dd	40		 inc	 eax
  000de	89 55 0c	 mov	 DWORD PTR _starty$[ebp], edx
  000e1	89 45 f8	 mov	 DWORD PTR _NumFails$[ebp], eax

; 720  : 
; 721  : 				if ( NumFails >= 10 )

  000e4	83 f8 0a	 cmp	 eax, 10			; 0000000aH
  000e7	0f 8c 44 ff ff
	ff		 jl	 $LL11@FindPath3
$LN16@FindPath3:
  000ed	5f		 pop	 edi
  000ee	5e		 pop	 esi

; 713  : 				{
; 714  : 					return false;

  000ef	32 c0		 xor	 al, al
  000f1	5b		 pop	 ebx

; 738  : 		{
; 739  : 			return false;
; 740  : 		}
; 741  : 
; 742  : 		return true;
; 743  : 	};

  000f2	8b e5		 mov	 esp, ebp
  000f4	5d		 pop	 ebp
  000f5	c2 14 00	 ret	 20			; 00000014H
?FindPath3@PATH@@QAE_NHHHH_N@Z ENDP			; PATH::FindPath3
_TEXT	ENDS
PUBLIC	?SetMapDimensions@PATH@@QAEXHHPAE@Z		; PATH::SetMapDimensions
EXTRN	??_U@YAPAXI@Z:PROC				; operator new[]
; Function compile flags: /Ogtp
;	COMDAT ?SetMapDimensions@PATH@@QAEXHHPAE@Z
_TEXT	SEGMENT
_w$ = 8							; size = 4
_h$ = 12						; size = 4
_map$ = 16						; size = 4
?SetMapDimensions@PATH@@QAEXHHPAE@Z PROC		; PATH::SetMapDimensions, COMDAT
; _this$ = ecx

; 747  : 	{

  00000	55		 push	 ebp
  00001	8b ec		 mov	 ebp, esp

; 748  : 		this->Width = w;

  00003	8b 45 08	 mov	 eax, DWORD PTR _w$[ebp]

; 749  : 		this->Height = h;
; 750  : 		this->Map = (LPBYTE)map;

  00006	8b 55 10	 mov	 edx, DWORD PTR _map$[ebp]
  00009	56		 push	 esi
  0000a	8b f1		 mov	 esi, ecx
  0000c	8b 4d 0c	 mov	 ecx, DWORD PTR _h$[ebp]
  0000f	89 06		 mov	 DWORD PTR [esi], eax

; 751  : 		this->HitMap = new BYTE [this->Width * this->Height];

  00011	0f af c1	 imul	 eax, ecx
  00014	50		 push	 eax
  00015	89 4e 04	 mov	 DWORD PTR [esi+4], ecx
  00018	89 96 3c 04 00
	00		 mov	 DWORD PTR [esi+1084], edx
  0001e	e8 00 00 00 00	 call	 ??_U@YAPAXI@Z		; operator new[]
  00023	83 c4 04	 add	 esp, 4
  00026	89 86 40 04 00
	00		 mov	 DWORD PTR [esi+1088], eax
  0002c	5e		 pop	 esi

; 752  : 	};

  0002d	5d		 pop	 ebp
  0002e	c2 0c 00	 ret	 12			; 0000000cH
?SetMapDimensions@PATH@@QAEXHHPAE@Z ENDP		; PATH::SetMapDimensions
_TEXT	ENDS
PUBLIC	?GetPath@PATH@@QAEHXZ				; PATH::GetPath
; Function compile flags: /Ogtp
;	COMDAT ?GetPath@PATH@@QAEHXZ
_TEXT	SEGMENT
?GetPath@PATH@@QAEHXZ PROC				; PATH::GetPath, COMDAT
; _this$ = ecx

; 756  : 		return this->NumPath;

  00000	8b 41 08	 mov	 eax, DWORD PTR [ecx+8]

; 757  : 	};

  00003	c3		 ret	 0
?GetPath@PATH@@QAEHXZ ENDP				; PATH::GetPath
_TEXT	ENDS
PUBLIC	?GetPathX@PATH@@QAEPAEXZ			; PATH::GetPathX
; Function compile flags: /Ogtp
;	COMDAT ?GetPathX@PATH@@QAEPAEXZ
_TEXT	SEGMENT
?GetPathX@PATH@@QAEPAEXZ PROC				; PATH::GetPathX, COMDAT
; _this$ = ecx

; 761  : 		return this->PathX;

  00000	8d 41 0c	 lea	 eax, DWORD PTR [ecx+12]

; 762  : 	};

  00003	c3		 ret	 0
?GetPathX@PATH@@QAEPAEXZ ENDP				; PATH::GetPathX
_TEXT	ENDS
PUBLIC	?GetPathY@PATH@@QAEPAEXZ			; PATH::GetPathY
; Function compile flags: /Ogtp
;	COMDAT ?GetPathY@PATH@@QAEPAEXZ
_TEXT	SEGMENT
?GetPathY@PATH@@QAEPAEXZ PROC				; PATH::GetPathY, COMDAT
; _this$ = ecx

; 766  : 		return this->PathY;

  00000	8d 81 00 02 00
	00		 lea	 eax, DWORD PTR [ecx+512]

; 767  : 	};

  00006	c3		 ret	 0
?GetPathY@PATH@@QAEPAEXZ ENDP				; PATH::GetPathY
_TEXT	ENDS
PUBLIC	??_H@YGXPAXIHP6EPAX0@Z@Z			; `vector constructor iterator'
; Function compile flags: /Ogtp
;	COMDAT ??_H@YGXPAXIHP6EPAX0@Z@Z
_TEXT	SEGMENT
___t$ = 8						; size = 4
___s$ = 12						; size = 4
___n$ = 16						; size = 4
___f$ = 20						; size = 4
??_H@YGXPAXIHP6EPAX0@Z@Z PROC				; `vector constructor iterator', COMDAT
  00000	55		 push	 ebp
  00001	8b ec		 mov	 ebp, esp
  00003	57		 push	 edi
  00004	8b 7d 10	 mov	 edi, DWORD PTR ___n$[ebp]
  00007	4f		 dec	 edi
  00008	78 14		 js	 SHORT $LN1@vector
  0000a	53		 push	 ebx
  0000b	8b 5d 14	 mov	 ebx, DWORD PTR ___f$[ebp]
  0000e	56		 push	 esi
  0000f	8b 75 08	 mov	 esi, DWORD PTR ___t$[ebp]
$LL2@vector:
  00012	8b ce		 mov	 ecx, esi
  00014	ff d3		 call	 ebx
  00016	03 75 0c	 add	 esi, DWORD PTR ___s$[ebp]
  00019	4f		 dec	 edi
  0001a	79 f6		 jns	 SHORT $LL2@vector
  0001c	5e		 pop	 esi
  0001d	5b		 pop	 ebx
$LN1@vector:
  0001e	5f		 pop	 edi
  0001f	5d		 pop	 ebp
  00020	c2 10 00	 ret	 16			; 00000010H
??_H@YGXPAXIHP6EPAX0@Z@Z ENDP				; `vector constructor iterator'
_TEXT	ENDS
PUBLIC	?init@MapClass@@QAEXXZ				; MapClass::init
EXTRN	??2@YAPAXI@Z:PROC				; operator new
; Function compile flags: /Ogtp
; File e:\work\tranet_version\gs\gameserver\mapclass.h
;	COMDAT ?init@MapClass@@QAEXXZ
_TEXT	SEGMENT
_dir$212875 = -68					; size = 64
_this$ = -4						; size = 4
?init@MapClass@@QAEXXZ PROC				; MapClass::init, COMDAT
; _this$ = ecx

; 58   : 	{

  00000	55		 push	 ebp
  00001	8b ec		 mov	 ebp, esp
  00003	83 ec 44	 sub	 esp, 68			; 00000044H
  00006	53		 push	 ebx
  00007	56		 push	 esi
  00008	8b f1		 mov	 esi, ecx

; 59   : 		this->m_attrbuf = 0;

  0000a	33 db		 xor	 ebx, ebx

; 60   : 		this->path = new PATH;

  0000c	68 54 04 00 00	 push	 1108			; 00000454H
  00011	89 75 fc	 mov	 DWORD PTR _this$[ebp], esi
  00014	89 5e 10	 mov	 DWORD PTR [esi+16], ebx
  00017	e8 00 00 00 00	 call	 ??2@YAPAXI@Z		; operator new
  0001c	83 c4 04	 add	 esp, 4
  0001f	3b c3		 cmp	 eax, ebx
  00021	74 5c		 je	 SHORT $LN3@init
  00023	b9 01 00 00 00	 mov	 ecx, 1
  00028	83 ca ff	 or	 edx, -1
  0002b	57		 push	 edi
  0002c	89 4d cc	 mov	 DWORD PTR _dir$212875[ebp+16], ecx
  0002f	89 4d d4	 mov	 DWORD PTR _dir$212875[ebp+24], ecx
  00032	89 4d dc	 mov	 DWORD PTR _dir$212875[ebp+32], ecx
  00035	89 4d e0	 mov	 DWORD PTR _dir$212875[ebp+36], ecx
  00038	89 4d e8	 mov	 DWORD PTR _dir$212875[ebp+44], ecx
  0003b	89 4d f0	 mov	 DWORD PTR _dir$212875[ebp+52], ecx
  0003e	89 5d c4	 mov	 DWORD PTR _dir$212875[ebp+8], ebx
  00041	89 5d d8	 mov	 DWORD PTR _dir$212875[ebp+28], ebx
  00044	89 5d e4	 mov	 DWORD PTR _dir$212875[ebp+40], ebx
  00047	89 5d f8	 mov	 DWORD PTR _dir$212875[ebp+60], ebx
  0004a	8d b8 f4 03 00
	00		 lea	 edi, DWORD PTR [eax+1012]
  00050	b9 10 00 00 00	 mov	 ecx, 16			; 00000010H
  00055	8d 75 bc	 lea	 esi, DWORD PTR _dir$212875[ebp]
  00058	89 55 bc	 mov	 DWORD PTR _dir$212875[ebp], edx
  0005b	89 55 c0	 mov	 DWORD PTR _dir$212875[ebp+4], edx
  0005e	89 55 c8	 mov	 DWORD PTR _dir$212875[ebp+12], edx
  00061	89 55 d0	 mov	 DWORD PTR _dir$212875[ebp+20], edx
  00064	89 55 ec	 mov	 DWORD PTR _dir$212875[ebp+48], edx
  00067	89 55 f4	 mov	 DWORD PTR _dir$212875[ebp+56], edx
  0006a	f3 a5		 rep movsd
  0006c	8b 75 fc	 mov	 esi, DWORD PTR _this$[ebp]
  0006f	5f		 pop	 edi

; 61   : 		this->m_width = 0;

  00070	89 5e 14	 mov	 DWORD PTR [esi+20], ebx

; 62   : 		this->m_height = 0;

  00073	89 5e 18	 mov	 DWORD PTR [esi+24], ebx
  00076	89 46 1c	 mov	 DWORD PTR [esi+28], eax
  00079	5e		 pop	 esi
  0007a	5b		 pop	 ebx

; 63   : 	}

  0007b	8b e5		 mov	 esp, ebp
  0007d	5d		 pop	 ebp
  0007e	c3		 ret	 0
$LN3@init:

; 60   : 		this->path = new PATH;

  0007f	33 c0		 xor	 eax, eax

; 61   : 		this->m_width = 0;

  00081	89 5e 14	 mov	 DWORD PTR [esi+20], ebx

; 62   : 		this->m_height = 0;

  00084	89 5e 18	 mov	 DWORD PTR [esi+24], ebx
  00087	89 46 1c	 mov	 DWORD PTR [esi+28], eax
  0008a	5e		 pop	 esi
  0008b	5b		 pop	 ebx

; 63   : 	}

  0008c	8b e5		 mov	 esp, ebp
  0008e	5d		 pop	 ebp
  0008f	c3		 ret	 0
?init@MapClass@@QAEXXZ ENDP				; MapClass::init
_TEXT	ENDS
PUBLIC	??_GPATH@@QAEPAXI@Z				; PATH::`scalar deleting destructor'
EXTRN	??3@YAXPAX@Z:PROC				; operator delete
; Function compile flags: /Ogtp
;	COMDAT ??_GPATH@@QAEPAXI@Z
_TEXT	SEGMENT
___flags$ = 8						; size = 4
??_GPATH@@QAEPAXI@Z PROC				; PATH::`scalar deleting destructor', COMDAT
; _this$ = ecx
  00000	55		 push	 ebp
  00001	8b ec		 mov	 ebp, esp
  00003	f6 45 08 01	 test	 BYTE PTR ___flags$[ebp], 1
  00007	56		 push	 esi
  00008	8b f1		 mov	 esi, ecx
  0000a	74 09		 je	 SHORT $LN6@scalar
  0000c	56		 push	 esi
  0000d	e8 00 00 00 00	 call	 ??3@YAXPAX@Z		; operator delete
  00012	83 c4 04	 add	 esp, 4
$LN6@scalar:
  00015	8b c6		 mov	 eax, esi
  00017	5e		 pop	 esi
  00018	5d		 pop	 ebp
  00019	c2 04 00	 ret	 4
??_GPATH@@QAEPAXI@Z ENDP				; PATH::`scalar deleting destructor'
_TEXT	ENDS
PUBLIC	??_7MapClass@@6B@				; MapClass::`vftable'
PUBLIC	??0MapClass@@QAE@XZ				; MapClass::MapClass
PUBLIC	??_R4MapClass@@6B@				; MapClass::`RTTI Complete Object Locator'
PUBLIC	??_R0?AVMapClass@@@8				; MapClass `RTTI Type Descriptor'
PUBLIC	??_R3MapClass@@8				; MapClass::`RTTI Class Hierarchy Descriptor'
PUBLIC	??_R2MapClass@@8				; MapClass::`RTTI Base Class Array'
PUBLIC	??_R1A@?0A@EA@MapClass@@8			; MapClass::`RTTI Base Class Descriptor at (0,-1,0,64)'
EXTRN	??_M@YGXPAXIHP6EX0@Z@Z:PROC			; `eh vector destructor iterator'
EXTRN	__imp__SetRect@20:PROC
EXTRN	_rand:PROC
EXTRN	__imp__GetTickCount@0:PROC
EXTRN	??_L@YGXPAXIHP6EX0@Z1@Z:PROC			; `eh vector constructor iterator'
EXTRN	??0CMapItem@@QAE@XZ:PROC			; CMapItem::CMapItem
EXTRN	??1CMapItem@@UAE@XZ:PROC			; CMapItem::~CMapItem
EXTRN	___security_cookie:DWORD
EXTRN	___CxxFrameHandler3:PROC
EXTRN	@__security_check_cookie@4:PROC
EXTRN	??_7type_info@@6B@:QWORD			; type_info::`vftable'
EXTRN	??_EMapClass@@UAEPAXI@Z:PROC			; MapClass::`vector deleting destructor'
;	COMDAT ??_R1A@?0A@EA@MapClass@@8
; File e:\work\tranet_version\gs\gameserver\mapclass.cpp
rdata$r	SEGMENT
??_R1A@?0A@EA@MapClass@@8 DD FLAT:??_R0?AVMapClass@@@8	; MapClass::`RTTI Base Class Descriptor at (0,-1,0,64)'
	DD	00H
	DD	00H
	DD	0ffffffffH
	DD	00H
	DD	040H
	DD	FLAT:??_R3MapClass@@8
rdata$r	ENDS
;	COMDAT ??_R2MapClass@@8
rdata$r	SEGMENT
??_R2MapClass@@8 DD FLAT:??_R1A@?0A@EA@MapClass@@8	; MapClass::`RTTI Base Class Array'
rdata$r	ENDS
;	COMDAT ??_R3MapClass@@8
rdata$r	SEGMENT
??_R3MapClass@@8 DD 00H					; MapClass::`RTTI Class Hierarchy Descriptor'
	DD	00H
	DD	01H
	DD	FLAT:??_R2MapClass@@8
rdata$r	ENDS
;	COMDAT ??_R0?AVMapClass@@@8
_DATA	SEGMENT
??_R0?AVMapClass@@@8 DD FLAT:??_7type_info@@6B@		; MapClass `RTTI Type Descriptor'
	DD	00H
	DB	'.?AVMapClass@@', 00H
_DATA	ENDS
;	COMDAT ??_R4MapClass@@6B@
rdata$r	SEGMENT
??_R4MapClass@@6B@ DD 00H				; MapClass::`RTTI Complete Object Locator'
	DD	00H
	DD	00H
	DD	FLAT:??_R0?AVMapClass@@@8
	DD	FLAT:??_R3MapClass@@8
rdata$r	ENDS
;	COMDAT ??_7MapClass@@6B@
CONST	SEGMENT
??_7MapClass@@6B@ DD FLAT:??_R4MapClass@@6B@		; MapClass::`vftable'
	DD	FLAT:??_EMapClass@@UAEPAXI@Z
CONST	ENDS
;	COMDAT xdata$x
xdata$x	SEGMENT
__unwindtable$??0MapClass@@QAE@XZ DD 0ffffffffH
	DD	FLAT:__unwindfunclet$??0MapClass@@QAE@XZ$0
__ehfuncinfo$??0MapClass@@QAE@XZ DD 019930522H
	DD	01H
	DD	FLAT:__unwindtable$??0MapClass@@QAE@XZ
	DD	2 DUP(00H)
	DD	2 DUP(00H)
	DD	00H
	DD	01H
; Function compile flags: /Ogtp
xdata$x	ENDS
;	COMDAT ??0MapClass@@QAE@XZ
_TEXT	SEGMENT
_this$ = -16						; size = 4
__$EHRec$ = -12						; size = 12
??0MapClass@@QAE@XZ PROC				; MapClass::MapClass, COMDAT
; _this$ = ecx

; 13   : {

  00000	55		 push	 ebp
  00001	8b ec		 mov	 ebp, esp
  00003	6a ff		 push	 -1
  00005	68 00 00 00 00	 push	 __ehhandler$??0MapClass@@QAE@XZ
  0000a	64 a1 00 00 00
	00		 mov	 eax, DWORD PTR fs:0
  00010	50		 push	 eax
  00011	51		 push	 ecx
  00012	56		 push	 esi
  00013	57		 push	 edi
  00014	a1 00 00 00 00	 mov	 eax, DWORD PTR ___security_cookie
  00019	33 c5		 xor	 eax, ebp
  0001b	50		 push	 eax
  0001c	8d 45 f4	 lea	 eax, DWORD PTR __$EHRec$[ebp]
  0001f	64 a3 00 00 00
	00		 mov	 DWORD PTR fs:0, eax
  00025	8b f1		 mov	 esi, ecx
  00027	89 75 f0	 mov	 DWORD PTR _this$[ebp], esi
  0002a	68 00 00 00 00	 push	 OFFSET ??1CMapItem@@UAE@XZ ; CMapItem::~CMapItem
  0002f	68 00 00 00 00	 push	 OFFSET ??0CMapItem@@QAE@XZ ; CMapItem::CMapItem
  00034	68 2c 01 00 00	 push	 300			; 0000012cH
  00039	68 74 04 00 00	 push	 1140			; 00000474H
  0003e	8d 46 20	 lea	 eax, DWORD PTR [esi+32]
  00041	50		 push	 eax
  00042	c7 06 00 00 00
	00		 mov	 DWORD PTR [esi], OFFSET ??_7MapClass@@6B@
  00048	e8 00 00 00 00	 call	 ??_L@YGXPAXIHP6EX0@Z1@Z
  0004d	c7 45 fc 00 00
	00 00		 mov	 DWORD PTR __$EHRec$[ebp+8], 0

; 14   : 	this->m_Weather =0;

  00054	c6 46 04 00	 mov	 BYTE PTR [esi+4], 0

; 15   : 	this->m_WeatherTimer=GetTickCount();

  00058	ff 15 00 00 00
	00		 call	 DWORD PTR __imp__GetTickCount@0
  0005e	89 46 08	 mov	 DWORD PTR [esi+8], eax

; 16   : 	this->m_NextWeatherTimer=(rand()%10000)+10000;

  00061	e8 00 00 00 00	 call	 _rand
  00066	99		 cdq
  00067	b9 10 27 00 00	 mov	 ecx, 10000		; 00002710H
  0006c	f7 f9		 idiv	 ecx
  0006e	03 d1		 add	 edx, ecx

; 17   : 	this->init();

  00070	8b ce		 mov	 ecx, esi
  00072	89 56 0c	 mov	 DWORD PTR [esi+12], edx
  00075	e8 00 00 00 00	 call	 ?init@MapClass@@QAEXXZ	; MapClass::init

; 18   : 	
; 19   : 	SetRect(&this->gRegenRect[0], 130, 116, 151, 137);

  0007a	8b 3d 00 00 00
	00		 mov	 edi, DWORD PTR __imp__SetRect@20
  00080	68 89 00 00 00	 push	 137			; 00000089H
  00085	68 97 00 00 00	 push	 151			; 00000097H
  0008a	6a 74		 push	 116			; 00000074H
  0008c	68 82 00 00 00	 push	 130			; 00000082H
  00091	8d 96 14 38 05
	00		 lea	 edx, DWORD PTR [esi+342036]
  00097	52		 push	 edx
  00098	ff d7		 call	 edi

; 20   : 	SetRect(&this->gRegenRect[1], 106, 236, 112, 243);

  0009a	68 f3 00 00 00	 push	 243			; 000000f3H
  0009f	6a 70		 push	 112			; 00000070H
  000a1	68 ec 00 00 00	 push	 236			; 000000ecH
  000a6	6a 6a		 push	 106			; 0000006aH
  000a8	8d 86 24 38 05
	00		 lea	 eax, DWORD PTR [esi+342052]
  000ae	50		 push	 eax
  000af	ff d7		 call	 edi

; 21   : 	SetRect(&this->gRegenRect[2], 197, 35, 218, 50);

  000b1	6a 32		 push	 50			; 00000032H
  000b3	68 da 00 00 00	 push	 218			; 000000daH
  000b8	6a 23		 push	 35			; 00000023H
  000ba	68 c5 00 00 00	 push	 197			; 000000c5H
  000bf	8d 8e 34 38 05
	00		 lea	 ecx, DWORD PTR [esi+342068]
  000c5	51		 push	 ecx
  000c6	ff d7		 call	 edi

; 22   : 	SetRect(&this->gRegenRect[3], 174, 101, 187, 125);

  000c8	6a 7d		 push	 125			; 0000007dH
  000ca	68 bb 00 00 00	 push	 187			; 000000bbH
  000cf	6a 65		 push	 101			; 00000065H
  000d1	68 ae 00 00 00	 push	 174			; 000000aeH
  000d6	8d 96 44 38 05
	00		 lea	 edx, DWORD PTR [esi+342084]
  000dc	52		 push	 edx
  000dd	ff d7		 call	 edi

; 23   : 	SetRect(&this->gRegenRect[4], 201, 70, 213, 81);

  000df	6a 51		 push	 81			; 00000051H
  000e1	68 d5 00 00 00	 push	 213			; 000000d5H
  000e6	6a 46		 push	 70			; 00000046H
  000e8	68 c9 00 00 00	 push	 201			; 000000c9H
  000ed	8d 86 54 38 05
	00		 lea	 eax, DWORD PTR [esi+342100]
  000f3	50		 push	 eax
  000f4	ff d7		 call	 edi

; 24   : 	SetRect(&this->gRegenRect[5], 89, 135, 90, 136);

  000f6	68 88 00 00 00	 push	 136			; 00000088H
  000fb	6a 5a		 push	 90			; 0000005aH
  000fd	68 87 00 00 00	 push	 135			; 00000087H
  00102	6a 59		 push	 89			; 00000059H
  00104	8d 8e 64 38 05
	00		 lea	 ecx, DWORD PTR [esi+342116]
  0010a	51		 push	 ecx
  0010b	ff d7		 call	 edi

; 25   : 	SetRect(&this->gRegenRect[6], 89, 135, 90, 136);

  0010d	68 88 00 00 00	 push	 136			; 00000088H
  00112	6a 5a		 push	 90			; 0000005aH
  00114	68 87 00 00 00	 push	 135			; 00000087H
  00119	6a 59		 push	 89			; 00000059H
  0011b	8d 96 74 38 05
	00		 lea	 edx, DWORD PTR [esi+342132]
  00121	52		 push	 edx
  00122	ff d7		 call	 edi

; 26   : 	SetRect(&this->gRegenRect[7], 14, 11, 27, 23);

  00124	6a 17		 push	 23			; 00000017H
  00126	6a 1b		 push	 27			; 0000001bH
  00128	6a 0b		 push	 11			; 0000000bH
  0012a	6a 0e		 push	 14			; 0000000eH
  0012c	8d 86 84 38 05
	00		 lea	 eax, DWORD PTR [esi+342148]
  00132	50		 push	 eax
  00133	ff d7		 call	 edi

; 27   : 	SetRect(&this->gRegenRect[8], 187, 54, 203, 69);

  00135	6a 45		 push	 69			; 00000045H
  00137	68 cb 00 00 00	 push	 203			; 000000cbH
  0013c	6a 36		 push	 54			; 00000036H
  0013e	68 bb 00 00 00	 push	 187			; 000000bbH
  00143	8d 8e 94 38 05
	00		 lea	 ecx, DWORD PTR [esi+342164]
  00149	51		 push	 ecx
  0014a	ff d7		 call	 edi

; 28   : 	SetRect(&this->gRegenRect[33], 82, 8, 87, 14);

  0014c	6a 0e		 push	 14			; 0000000eH
  0014e	6a 57		 push	 87			; 00000057H
  00150	6a 08		 push	 8
  00152	6a 52		 push	 82			; 00000052H
  00154	8d 96 24 3a 05
	00		 lea	 edx, DWORD PTR [esi+342564]
  0015a	52		 push	 edx
  0015b	ff d7		 call	 edi

; 29   : 	SetRect(&this->gRegenRect[34], 133, 41, 140, 44);

  0015d	6a 2c		 push	 44			; 0000002cH
  0015f	68 8c 00 00 00	 push	 140			; 0000008cH
  00164	6a 29		 push	 41			; 00000029H
  00166	68 85 00 00 00	 push	 133			; 00000085H
  0016b	8d 86 34 3a 05
	00		 lea	 eax, DWORD PTR [esi+342580]
  00171	50		 push	 eax
  00172	ff d7		 call	 edi

; 30   : 	SetRect(&this->gRegenRect[51], 40, 214, 43, 224); //Elbeland??

  00174	68 e0 00 00 00	 push	 224			; 000000e0H
  00179	6a 2b		 push	 43			; 0000002bH
  0017b	68 d6 00 00 00	 push	 214			; 000000d6H
  00180	6a 28		 push	 40			; 00000028H
  00182	8d 8e 44 3b 05
	00		 lea	 ecx, DWORD PTR [esi+342852]
  00188	51		 push	 ecx
  00189	ff d7		 call	 edi

; 31   : 	this->m_ItemCount=0;

  0018b	c7 86 10 38 05
	00 00 00 00 00	 mov	 DWORD PTR [esi+342032], 0

; 32   : }

  00195	8b c6		 mov	 eax, esi
  00197	8b 4d f4	 mov	 ecx, DWORD PTR __$EHRec$[ebp]
  0019a	64 89 0d 00 00
	00 00		 mov	 DWORD PTR fs:0, ecx
  001a1	59		 pop	 ecx
  001a2	5f		 pop	 edi
  001a3	5e		 pop	 esi
  001a4	8b e5		 mov	 esp, ebp
  001a6	5d		 pop	 ebp
  001a7	c3		 ret	 0
_TEXT	ENDS
;	COMDAT text$x
text$x	SEGMENT
__unwindfunclet$??0MapClass@@QAE@XZ$0:
  00000	68 00 00 00 00	 push	 OFFSET ??1CMapItem@@UAE@XZ ; CMapItem::~CMapItem
  00005	68 2c 01 00 00	 push	 300			; 0000012cH
  0000a	68 74 04 00 00	 push	 1140			; 00000474H
  0000f	8b 45 f0	 mov	 eax, DWORD PTR _this$[ebp]
  00012	83 c0 20	 add	 eax, 32			; 00000020H
  00015	50		 push	 eax
  00016	e8 00 00 00 00	 call	 ??_M@YGXPAXIHP6EX0@Z@Z
  0001b	c3		 ret	 0
__ehhandler$??0MapClass@@QAE@XZ:
  0001c	8b 54 24 08	 mov	 edx, DWORD PTR [esp+8]
  00020	8d 42 0c	 lea	 eax, DWORD PTR [edx+12]
  00023	8b 4a f0	 mov	 ecx, DWORD PTR [edx-16]
  00026	33 c8		 xor	 ecx, eax
  00028	e8 00 00 00 00	 call	 @__security_check_cookie@4
  0002d	b8 00 00 00 00	 mov	 eax, OFFSET __ehfuncinfo$??0MapClass@@QAE@XZ
  00032	e9 00 00 00 00	 jmp	 ___CxxFrameHandler3
text$x	ENDS
??0MapClass@@QAE@XZ ENDP				; MapClass::MapClass
PUBLIC	?MapNumberCheck@@YAHH@Z				; MapNumberCheck
; Function compile flags: /Ogtp
;	COMDAT ?MapNumberCheck@@YAHH@Z
_TEXT	SEGMENT
_map$ = 8						; size = 4
?MapNumberCheck@@YAHH@Z PROC				; MapNumberCheck, COMDAT

; 40   : {

  00000	55		 push	 ebp
  00001	8b ec		 mov	 ebp, esp

; 41   : 	if ( map < 0 || map > MAX_NUMBER_MAP-1 )

  00003	b8 52 00 00 00	 mov	 eax, 82			; 00000052H
  00008	3b 45 08	 cmp	 eax, DWORD PTR _map$[ebp]
  0000b	1b c0		 sbb	 eax, eax
  0000d	40		 inc	 eax

; 42   : 	{
; 43   : 		return FALSE;
; 44   : 	}
; 45   : 	return TRUE;
; 46   : }

  0000e	5d		 pop	 ebp
  0000f	c3		 ret	 0
?MapNumberCheck@@YAHH@Z ENDP				; MapNumberCheck
_TEXT	ENDS
PUBLIC	?GetWeather@MapClass@@QAEEXZ			; MapClass::GetWeather
; Function compile flags: /Ogtp
;	COMDAT ?GetWeather@MapClass@@QAEEXZ
_TEXT	SEGMENT
?GetWeather@MapClass@@QAEEXZ PROC			; MapClass::GetWeather, COMDAT
; _this$ = ecx

; 189  : 	BYTE weather = this->m_Weather<<4;

  00000	8a 41 04	 mov	 al, BYTE PTR [ecx+4]
  00003	c0 e0 04	 shl	 al, 4

; 190  : 	weather |= this->m_WeatherVariation ;

  00006	0a 41 05	 or	 al, BYTE PTR [ecx+5]

; 191  : 	return weather;
; 192  : }

  00009	c3		 ret	 0
?GetWeather@MapClass@@QAEEXZ ENDP			; MapClass::GetWeather
_TEXT	ENDS
PUBLIC	?SetWeather@MapClass@@QAEXEE@Z			; MapClass::SetWeather
EXTRN	?CGWeatherSend@@YAXHE@Z:PROC			; CGWeatherSend
EXTRN	?gObj@@3PAUOBJECTSTRUCT@@A:DWORD		; gObj
; Function compile flags: /Ogtp
;	COMDAT ?SetWeather@MapClass@@QAEXEE@Z
_TEXT	SEGMENT
_weather$ = 8						; size = 1
_a_weather$ = 8						; size = 1
_a_variation$ = 12					; size = 1
?SetWeather@MapClass@@QAEXEE@Z PROC			; MapClass::SetWeather, COMDAT
; _this$ = ecx

; 195  : {

  00000	55		 push	 ebp
  00001	8b ec		 mov	 ebp, esp

; 196  : 	LPOBJ lpObj;
; 197  : 	BYTE weather;
; 198  : 	int n;
; 199  : 
; 200  : 	this->m_Weather = a_weather;

  00003	8a 45 08	 mov	 al, BYTE PTR _a_weather$[ebp]
  00006	53		 push	 ebx
  00007	8b d9		 mov	 ebx, ecx

; 201  : 	this->m_WeatherVariation = a_variation;

  00009	8a 4d 0c	 mov	 cl, BYTE PTR _a_variation$[ebp]
  0000c	88 43 04	 mov	 BYTE PTR [ebx+4], al

; 202  : 	weather = this->m_Weather<<4;

  0000f	c0 e0 04	 shl	 al, 4
  00012	56		 push	 esi

; 203  : 	weather |= this->m_WeatherVariation;

  00013	0a c1		 or	 al, cl
  00015	57		 push	 edi
  00016	88 4b 05	 mov	 BYTE PTR [ebx+5], cl
  00019	88 45 08	 mov	 BYTE PTR _weather$[ebp], al
  0001c	a1 00 00 00 00	 mov	 eax, DWORD PTR ?gObj@@3PAUOBJECTSTRUCT@@A ; gObj

; 204  : 	
; 205  : 	for ( n=OBJ_STARTUSERINDZT ; n<OBJMAX ; n++ )

  00021	bf b0 36 00 00	 mov	 edi, 14000		; 000036b0H
  00026	be 00 a7 40 09	 mov	 esi, 155232000		; 0940a700H
  0002b	eb 03 8d 49 00	 npad	 5
$LL4@SetWeather:

; 206  : 	{
; 207  : 		lpObj = &gObj[n];
; 208  : 
; 209  : 		if ( lpObj->Connected > PLAYER_CONNECTED && lpObj->Live != 0 && lpObj->MapNumber == this->thisMapNumber )

  00030	83 7c 06 04 01	 cmp	 DWORD PTR [esi+eax+4], 1
  00035	7e 29		 jle	 SHORT $LN3@SetWeather
  00037	80 7c 06 6a 00	 cmp	 BYTE PTR [esi+eax+106], 0
  0003c	74 22		 je	 SHORT $LN3@SetWeather
  0003e	0f b6 8c 06 49
	01 00 00	 movzx	 ecx, BYTE PTR [esi+eax+329]
  00046	3b 8b 44 3d 05
	00		 cmp	 ecx, DWORD PTR [ebx+343364]
  0004c	75 12		 jne	 SHORT $LN3@SetWeather

; 210  : 		{
; 211  : 			CGWeatherSend(n, weather);

  0004e	8b 55 08	 mov	 edx, DWORD PTR _weather$[ebp]
  00051	52		 push	 edx
  00052	57		 push	 edi
  00053	e8 00 00 00 00	 call	 ?CGWeatherSend@@YAXHE@Z	; CGWeatherSend
  00058	a1 00 00 00 00	 mov	 eax, DWORD PTR ?gObj@@3PAUOBJECTSTRUCT@@A ; gObj
  0005d	83 c4 08	 add	 esp, 8
$LN3@SetWeather:

; 204  : 	
; 205  : 	for ( n=OBJ_STARTUSERINDZT ; n<OBJMAX ; n++ )

  00060	81 c6 50 2b 00
	00		 add	 esi, 11088		; 00002b50H
  00066	47		 inc	 edi
  00067	81 fe 80 d7 e9
	09		 cmp	 esi, 166320000		; 09e9d780H
  0006d	7c c1		 jl	 SHORT $LL4@SetWeather
  0006f	5f		 pop	 edi
  00070	5e		 pop	 esi
  00071	5b		 pop	 ebx

; 212  : 		}
; 213  : 	}
; 214  : }

  00072	5d		 pop	 ebp
  00073	c2 08 00	 ret	 8
?SetWeather@MapClass@@QAEXEE@Z ENDP			; MapClass::SetWeather
_TEXT	ENDS
PUBLIC	?WeatherVariationProcess@MapClass@@QAEXXZ	; MapClass::WeatherVariationProcess
; Function compile flags: /Ogtp
;	COMDAT ?WeatherVariationProcess@MapClass@@QAEXXZ
_TEXT	SEGMENT
_weather$ = -4						; size = 1
?WeatherVariationProcess@MapClass@@QAEXXZ PROC		; MapClass::WeatherVariationProcess, COMDAT
; _this$ = ecx

; 217  : {

  00000	55		 push	 ebp
  00001	8b ec		 mov	 ebp, esp
  00003	51		 push	 ecx
  00004	56		 push	 esi

; 218  : 	LPOBJ lpObj;
; 219  : 	BYTE weather;
; 220  : 
; 221  : 	if ( (GetTickCount() - this->m_WeatherTimer) > this->m_NextWeatherTimer)

  00005	8b 35 00 00 00
	00		 mov	 esi, DWORD PTR __imp__GetTickCount@0
  0000b	57		 push	 edi
  0000c	8b f9		 mov	 edi, ecx
  0000e	ff d6		 call	 esi
  00010	2b 47 08	 sub	 eax, DWORD PTR [edi+8]
  00013	3b 47 0c	 cmp	 eax, DWORD PTR [edi+12]
  00016	0f 86 94 00 00
	00		 jbe	 $LN2@WeatherVar

; 222  : 	{
; 223  : 		this->m_WeatherTimer = GetTickCount();

  0001c	53		 push	 ebx
  0001d	ff d6		 call	 esi
  0001f	89 47 08	 mov	 DWORD PTR [edi+8], eax

; 224  : 		this->m_NextWeatherTimer = (rand()%10000) + 10000;

  00022	e8 00 00 00 00	 call	 _rand
  00027	99		 cdq
  00028	b9 10 27 00 00	 mov	 ecx, 10000		; 00002710H
  0002d	f7 f9		 idiv	 ecx
  0002f	03 d1		 add	 edx, ecx
  00031	89 57 0c	 mov	 DWORD PTR [edi+12], edx

; 225  : 		this->m_WeatherVariation = rand()%10;

  00034	e8 00 00 00 00	 call	 _rand
  00039	99		 cdq
  0003a	b9 0a 00 00 00	 mov	 ecx, 10			; 0000000aH
  0003f	f7 f9		 idiv	 ecx
  00041	88 57 05	 mov	 BYTE PTR [edi+5], dl

; 226  : 		this->m_Weather = rand()%3;

  00044	e8 00 00 00 00	 call	 _rand
  00049	99		 cdq
  0004a	b9 03 00 00 00	 mov	 ecx, 3
  0004f	f7 f9		 idiv	 ecx

; 227  : 
; 228  : 		weather = this->m_Weather<<4;
; 229  : 		weather |= this->m_WeatherVariation;
; 230  : 
; 231  : 		for (int n=OBJ_STARTUSERINDZT ; n<OBJMAX ; n++ )

  00051	bb b0 36 00 00	 mov	 ebx, 14000		; 000036b0H
  00056	be 00 a7 40 09	 mov	 esi, 155232000		; 0940a700H
  0005b	88 57 04	 mov	 BYTE PTR [edi+4], dl
  0005e	a1 00 00 00 00	 mov	 eax, DWORD PTR ?gObj@@3PAUOBJECTSTRUCT@@A ; gObj
  00063	c0 e2 04	 shl	 dl, 4
  00066	0a 57 05	 or	 dl, BYTE PTR [edi+5]
  00069	88 55 fc	 mov	 BYTE PTR _weather$[ebp], dl
  0006c	8d 64 24 00	 npad	 4
$LL4@WeatherVar:

; 232  : 		{
; 233  : 			lpObj = &gObj[n];
; 234  : 
; 235  : 			if ( lpObj->Connected > PLAYER_CONNECTED && lpObj->Live != 0 && lpObj->MapNumber == this->thisMapNumber )

  00070	83 7c 06 04 01	 cmp	 DWORD PTR [esi+eax+4], 1
  00075	7e 29		 jle	 SHORT $LN3@WeatherVar
  00077	80 7c 06 6a 00	 cmp	 BYTE PTR [esi+eax+106], 0
  0007c	74 22		 je	 SHORT $LN3@WeatherVar
  0007e	0f b6 94 06 49
	01 00 00	 movzx	 edx, BYTE PTR [esi+eax+329]
  00086	3b 97 44 3d 05
	00		 cmp	 edx, DWORD PTR [edi+343364]
  0008c	75 12		 jne	 SHORT $LN3@WeatherVar

; 236  : 			{
; 237  : 				CGWeatherSend(n, weather);

  0008e	8b 45 fc	 mov	 eax, DWORD PTR _weather$[ebp]
  00091	50		 push	 eax
  00092	53		 push	 ebx
  00093	e8 00 00 00 00	 call	 ?CGWeatherSend@@YAXHE@Z	; CGWeatherSend
  00098	a1 00 00 00 00	 mov	 eax, DWORD PTR ?gObj@@3PAUOBJECTSTRUCT@@A ; gObj
  0009d	83 c4 08	 add	 esp, 8
$LN3@WeatherVar:

; 227  : 
; 228  : 		weather = this->m_Weather<<4;
; 229  : 		weather |= this->m_WeatherVariation;
; 230  : 
; 231  : 		for (int n=OBJ_STARTUSERINDZT ; n<OBJMAX ; n++ )

  000a0	81 c6 50 2b 00
	00		 add	 esi, 11088		; 00002b50H
  000a6	43		 inc	 ebx
  000a7	81 fe 80 d7 e9
	09		 cmp	 esi, 166320000		; 09e9d780H
  000ad	7c c1		 jl	 SHORT $LL4@WeatherVar
  000af	5b		 pop	 ebx
$LN2@WeatherVar:
  000b0	5f		 pop	 edi
  000b1	5e		 pop	 esi

; 238  : 			}
; 239  : 		}
; 240  : 	}
; 241  : }

  000b2	8b e5		 mov	 esp, ebp
  000b4	5d		 pop	 ebp
  000b5	c3		 ret	 0
?WeatherVariationProcess@MapClass@@QAEXXZ ENDP		; MapClass::WeatherVariationProcess
_TEXT	ENDS
PUBLIC	?SaveItemInfo@MapClass@@QAEXXZ			; MapClass::SaveItemInfo
; Function compile flags: /Ogtp
;	COMDAT ?SaveItemInfo@MapClass@@QAEXXZ
_TEXT	SEGMENT
?SaveItemInfo@MapClass@@QAEXXZ PROC			; MapClass::SaveItemInfo, COMDAT
; _this$ = ecx

; 245  : 
; 246  : }

  00000	c3		 ret	 0
?SaveItemInfo@MapClass@@QAEXXZ ENDP			; MapClass::SaveItemInfo
_TEXT	ENDS
PUBLIC	?ItemInit@MapClass@@QAEXXZ			; MapClass::ItemInit
; Function compile flags: /Ogtp
;	COMDAT ?ItemInit@MapClass@@QAEXXZ
_TEXT	SEGMENT
?ItemInit@MapClass@@QAEXXZ PROC				; MapClass::ItemInit, COMDAT
; _this$ = ecx

; 250  : 
; 251  : }

  00000	c3		 ret	 0
?ItemInit@MapClass@@QAEXXZ ENDP				; MapClass::ItemInit
_TEXT	ENDS
PUBLIC	??_C@_0N@OIPODJPN@MapClass?4cpp?$AA@		; `string'
PUBLIC	_aIndex$GSCopy$
PUBLIC	__$ArrayPad$
PUBLIC	?ItemGive@MapClass@@QAEHHH_N@Z			; MapClass::ItemGive
EXTRN	?GCServerMsgStringSend@@YAXPADHE@Z:PROC		; GCServerMsgStringSend
EXTRN	__imp__wsprintfA:PROC
EXTRN	?gLootingTime@@3HA:DWORD			; gLootingTime
EXTRN	?IsItem@CItem@@QAEHXZ:PROC			; CItem::IsItem
EXTRN	?LogAdd@@3P6AXPADZZA:DWORD			; LogAdd
EXTRN	?Get@CMsg@@QAEPADH@Z:PROC			; CMsg::Get
EXTRN	?lMsg@@3VCMsg@@A:BYTE				; lMsg
;	COMDAT ??_C@_0N@OIPODJPN@MapClass?4cpp?$AA@
CONST	SEGMENT
??_C@_0N@OIPODJPN@MapClass?4cpp?$AA@ DB 'MapClass.cpp', 00H ; `string'
; Function compile flags: /Ogtp
CONST	ENDS
;	COMDAT ?ItemGive@MapClass@@QAEHHH_N@Z
_TEXT	SEGMENT
_aIndex$GSCopy$ = -264					; size = 4
_szTemp$211927 = -260					; size = 256
__$ArrayPad$ = -4					; size = 4
_aIndex$ = 8						; size = 4
_item_num$ = 12						; size = 4
_bFailNotSend$ = 16					; size = 1
?ItemGive@MapClass@@QAEHHH_N@Z PROC			; MapClass::ItemGive, COMDAT
; _this$ = ecx

; 438  : {

  00000	55		 push	 ebp
  00001	8b ec		 mov	 ebp, esp
  00003	81 ec 08 01 00
	00		 sub	 esp, 264		; 00000108H
  00009	a1 00 00 00 00	 mov	 eax, DWORD PTR ___security_cookie
  0000e	33 c5		 xor	 eax, ebp
  00010	89 45 fc	 mov	 DWORD PTR __$ArrayPad$[ebp], eax
  00013	8b 45 0c	 mov	 eax, DWORD PTR _item_num$[ebp]
  00016	53		 push	 ebx
  00017	8b 5d 08	 mov	 ebx, DWORD PTR _aIndex$[ebp]
  0001a	8b d1		 mov	 edx, ecx

; 532  : 		{
; 533  : 			char szTemp[256];
; 534  : 
; 535  : 			wsprintf(szTemp, lMsg.Get(MSGGET(4, 128)), gObj[aIndex].Name );

  0001c	89 9d f8 fe ff
	ff		 mov	 DWORD PTR _aIndex$GSCopy$[ebp], ebx
  00022	85 c0		 test	 eax, eax
  00024	78 0e		 js	 SHORT $LN38@ItemGive

; 439  : 	if ( ((item_num<0)?FALSE:(item_num>MAX_MAPITEM-1)?FALSE:TRUE) == FALSE ) 

  00026	33 c9		 xor	 ecx, ecx
  00028	3d 2b 01 00 00	 cmp	 eax, 299		; 0000012bH
  0002d	0f 9e c1	 setle	 cl
  00030	85 c9		 test	 ecx, ecx
  00032	75 36		 jne	 SHORT $LN25@ItemGive
$LN38@ItemGive:

; 440  : 	{
; 441  : 		LogAdd(lMsg.Get(MSGGET(1, 206)), __FILE__, __LINE__);

  00034	68 b9 01 00 00	 push	 441			; 000001b9H
  00039	68 00 00 00 00	 push	 OFFSET ??_C@_0N@OIPODJPN@MapClass?4cpp?$AA@
  0003e	68 ce 01 00 00	 push	 462			; 000001ceH
  00043	b9 00 00 00 00	 mov	 ecx, OFFSET ?lMsg@@3VCMsg@@A ; lMsg
  00048	e8 00 00 00 00	 call	 ?Get@CMsg@@QAEPADH@Z	; CMsg::Get
  0004d	50		 push	 eax
  0004e	ff 15 00 00 00
	00		 call	 DWORD PTR ?LogAdd@@3P6AXPADZZA ; LogAdd
  00054	83 c4 0c	 add	 esp, 12			; 0000000cH

; 442  : 		return FALSE;

  00057	33 c0		 xor	 eax, eax
  00059	5b		 pop	 ebx

; 541  : 	}
; 542  : 	else
; 543  : 	{
; 544  : 		this->m_cItem[item_num].m_State = 8;
; 545  : 		this->m_cItem[item_num].Give = true;
; 546  : 		this->m_cItem[item_num].live = false;
; 547  : 
; 548  : 		return TRUE;
; 549  : 	}
; 550  : }

  0005a	8b 4d fc	 mov	 ecx, DWORD PTR __$ArrayPad$[ebp]
  0005d	33 cd		 xor	 ecx, ebp
  0005f	e8 00 00 00 00	 call	 @__security_check_cookie@4
  00064	8b e5		 mov	 esp, ebp
  00066	5d		 pop	 ebp
  00067	c2 0c 00	 ret	 12			; 0000000cH
$LN25@ItemGive:
  0006a	56		 push	 esi

; 443  : 	}
; 444  : 
; 445  : 	if ( gObj[aIndex].MapNumber != this->thisMapNumber )

  0006b	8b 35 00 00 00
	00		 mov	 esi, DWORD PTR ?gObj@@3PAUOBJECTSTRUCT@@A ; gObj
  00071	57		 push	 edi
  00072	8b fb		 mov	 edi, ebx
  00074	69 ff 50 2b 00
	00		 imul	 edi, 11088		; 00002b50H
  0007a	0f b6 8c 37 49
	01 00 00	 movzx	 ecx, BYTE PTR [edi+esi+329]
  00082	3b 8a 44 3d 05
	00		 cmp	 ecx, DWORD PTR [edx+343364]
  00088	74 3e		 je	 SHORT $LN24@ItemGive

; 446  : 	{
; 447  : 		LogAdd(lMsg.Get(MSGGET(1, 207)), __FILE__, __LINE__, gObj[aIndex].MapNumber, gObj[aIndex].Name);

  0008a	8d 44 37 77	 lea	 eax, DWORD PTR [edi+esi+119]
  0008e	50		 push	 eax
  0008f	51		 push	 ecx
  00090	68 bf 01 00 00	 push	 447			; 000001bfH
  00095	68 00 00 00 00	 push	 OFFSET ??_C@_0N@OIPODJPN@MapClass?4cpp?$AA@
  0009a	68 cf 01 00 00	 push	 463			; 000001cfH
  0009f	b9 00 00 00 00	 mov	 ecx, OFFSET ?lMsg@@3VCMsg@@A ; lMsg
  000a4	e8 00 00 00 00	 call	 ?Get@CMsg@@QAEPADH@Z	; CMsg::Get
  000a9	50		 push	 eax
  000aa	ff 15 00 00 00
	00		 call	 DWORD PTR ?LogAdd@@3P6AXPADZZA ; LogAdd
  000b0	83 c4 14	 add	 esp, 20			; 00000014H
$LN19@ItemGive:

; 471  : 	{
; 472  : 		return FALSE;

  000b3	5f		 pop	 edi
  000b4	5e		 pop	 esi
  000b5	33 c0		 xor	 eax, eax
  000b7	5b		 pop	 ebx

; 541  : 	}
; 542  : 	else
; 543  : 	{
; 544  : 		this->m_cItem[item_num].m_State = 8;
; 545  : 		this->m_cItem[item_num].Give = true;
; 546  : 		this->m_cItem[item_num].live = false;
; 547  : 
; 548  : 		return TRUE;
; 549  : 	}
; 550  : }

  000b8	8b 4d fc	 mov	 ecx, DWORD PTR __$ArrayPad$[ebp]
  000bb	33 cd		 xor	 ecx, ebp
  000bd	e8 00 00 00 00	 call	 @__security_check_cookie@4
  000c2	8b e5		 mov	 esp, ebp
  000c4	5d		 pop	 ebp
  000c5	c2 0c 00	 ret	 12			; 0000000cH
$LN24@ItemGive:

; 448  : 		return FALSE;
; 449  : 	}
; 450  : 
; 451  : 	if ( this->m_cItem[item_num].IsItem() == FALSE )

  000c8	69 c0 74 04 00
	00		 imul	 eax, 1140		; 00000474H
  000ce	8d 34 10	 lea	 esi, DWORD PTR [eax+edx]
  000d1	8d 4e 24	 lea	 ecx, DWORD PTR [esi+36]
  000d4	e8 00 00 00 00	 call	 ?IsItem@CItem@@QAEHXZ	; CItem::IsItem
  000d9	85 c0		 test	 eax, eax
  000db	75 30		 jne	 SHORT $LN23@ItemGive

; 452  : 	{
; 453  : 		LogAdd(lMsg.Get(MSGGET(1, 208)), __FILE__, __LINE__,gObj[aIndex].Name);

  000dd	8b 0d 00 00 00
	00		 mov	 ecx, DWORD PTR ?gObj@@3PAUOBJECTSTRUCT@@A ; gObj
  000e3	8d 54 0f 77	 lea	 edx, DWORD PTR [edi+ecx+119]
  000e7	52		 push	 edx
  000e8	68 c5 01 00 00	 push	 453			; 000001c5H
  000ed	68 00 00 00 00	 push	 OFFSET ??_C@_0N@OIPODJPN@MapClass?4cpp?$AA@
  000f2	68 d0 01 00 00	 push	 464			; 000001d0H
  000f7	b9 00 00 00 00	 mov	 ecx, OFFSET ?lMsg@@3VCMsg@@A ; lMsg
  000fc	e8 00 00 00 00	 call	 ?Get@CMsg@@QAEPADH@Z	; CMsg::Get
  00101	50		 push	 eax
  00102	ff 15 00 00 00
	00		 call	 DWORD PTR ?LogAdd@@3P6AXPADZZA ; LogAdd
  00108	83 c4 10	 add	 esp, 16			; 00000010H

; 454  : 		return FALSE;

  0010b	eb a6		 jmp	 SHORT $LN19@ItemGive
$LN23@ItemGive:

; 455  : 	}
; 456  : 
; 457  : 	if ( this->m_cItem[item_num].Give == true )

  0010d	80 be fb 00 00
	00 01		 cmp	 BYTE PTR [esi+251], 1

; 458  : 	{
; 459  : 		return FALSE;

  00114	74 9d		 je	 SHORT $LN19@ItemGive

; 460  : 	}
; 461  : 
; 462  : 	if ( this->m_cItem[item_num].live == false )

  00116	80 be fa 00 00
	00 00		 cmp	 BYTE PTR [esi+250], 0

; 463  : 	{
; 464  : 		return FALSE;

  0011d	74 94		 je	 SHORT $LN19@ItemGive

; 465  : 	}
; 466  : 
; 467  : 	int disx = this->m_cItem[item_num].px - gObj[aIndex].X;

  0011f	8b 15 00 00 00
	00		 mov	 edx, DWORD PTR ?gObj@@3PAUOBJECTSTRUCT@@A ; gObj
  00125	0f bf 8c 17 44
	01 00 00	 movsx	 ecx, WORD PTR [edi+edx+324]
  0012d	0f b6 86 f8 00
	00 00		 movzx	 eax, BYTE PTR [esi+248]

; 468  : 	int disy = this->m_cItem[item_num].py - gObj[aIndex].Y;

  00134	0f bf 94 17 46
	01 00 00	 movsx	 edx, WORD PTR [edi+edx+326]
  0013c	2b c1		 sub	 eax, ecx
  0013e	0f b6 8e f9 00
	00 00		 movzx	 ecx, BYTE PTR [esi+249]

; 469  : 
; 470  : 	if ( disx > 2 || disx < -2 )

  00145	83 c0 02	 add	 eax, 2
  00148	2b ca		 sub	 ecx, edx
  0014a	83 f8 04	 cmp	 eax, 4
  0014d	0f 87 60 ff ff
	ff		 ja	 $LN19@ItemGive

; 473  : 	}
; 474  : 
; 475  : 	if ( disy > 2 || disy < -2 )

  00153	83 c1 02	 add	 ecx, 2
  00156	83 f9 04	 cmp	 ecx, 4
  00159	0f 87 54 ff ff
	ff		 ja	 $LN19@ItemGive

; 476  : 	{
; 477  : 		return FALSE;
; 478  : 	}
; 479  : 
; 480  : 	int lootresult = 1;
; 481  : 
; 482  : 	if ( gLootingTime > 0 )

  0015f	83 3d 00 00 00
	00 00		 cmp	 DWORD PTR ?gLootingTime@@3HA, 0 ; gLootingTime
  00166	0f 8e 10 01 00
	00		 jle	 $LN42@ItemGive

; 483  : 	{
; 484  : 		if ( this->m_cItem[item_num].m_UserIndex != -1 )

  0016c	83 be 04 01 00
	00 ff		 cmp	 DWORD PTR [esi+260], -1
  00173	0f 84 03 01 00
	00		 je	 $LN42@ItemGive

; 485  : 		{
; 486  : 			if ( GetTickCount() < this->m_cItem[item_num].m_LootTime )

  00179	ff 15 00 00 00
	00		 call	 DWORD PTR __imp__GetTickCount@0
  0017f	3b 86 08 01 00
	00		 cmp	 eax, DWORD PTR [esi+264]
  00185	0f 83 f1 00 00
	00		 jae	 $LN42@ItemGive

; 487  : 			{
; 488  : 				if ( aIndex != this->m_cItem[item_num].m_UserIndex )

  0018b	8b 86 04 01 00
	00		 mov	 eax, DWORD PTR [esi+260]
  00191	3b d8		 cmp	 ebx, eax
  00193	0f 84 e3 00 00
	00		 je	 $LN42@ItemGive

; 489  : 				{
; 490  : 					lootresult = 0;
; 491  : 
; 492  : 					//if ( this->m_cItem[item_num].m_QuestItem == false )
; 493  : 					{
; 494  : 						if ( gObj[aIndex].PartyNumber >= 0 )

  00199	8b 1d 00 00 00
	00		 mov	 ebx, DWORD PTR ?gObj@@3PAUOBJECTSTRUCT@@A ; gObj
  0019f	8b 8c 1f 2c 04
	00 00		 mov	 ecx, DWORD PTR [edi+ebx+1068]
  001a6	85 c9		 test	 ecx, ecx
  001a8	0f 88 85 00 00
	00		 js	 $LN39@ItemGive

; 495  : 						{
; 496  : 							if ( gObj[aIndex].PartyNumber == gObj[this->m_cItem[item_num].m_UserIndex].PartyNumber )

  001ae	69 c0 50 2b 00
	00		 imul	 eax, 11088		; 00002b50H
  001b4	3b 8c 18 2c 04
	00 00		 cmp	 ecx, DWORD PTR [eax+ebx+1068]
  001bb	75 76		 jne	 SHORT $LN39@ItemGive

; 497  : 							{
; 498  : 								if ( BC_MAP_RANGE(gObj[aIndex].MapNumber) != FALSE )

  001bd	8a 8c 1f 49 01
	00 00		 mov	 cl, BYTE PTR [edi+ebx+329]
  001c4	80 f9 34	 cmp	 cl, 52			; 00000034H
  001c7	74 11		 je	 SHORT $LN40@ItemGive
  001c9	80 f9 0b	 cmp	 cl, 11			; 0000000bH
  001cc	72 40		 jb	 SHORT $LN10@ItemGive
  001ce	b8 11 00 00 00	 mov	 eax, 17			; 00000011H
  001d3	3a c1		 cmp	 al, cl
  001d5	1b c0		 sbb	 eax, eax
  001d7	40		 inc	 eax
  001d8	74 34		 je	 SHORT $LN10@ItemGive
$LN40@ItemGive:

; 499  : 								{
; 500  : 									if ( this->m_cItem[item_num].m_Type == ITEMGET(12,15) ||( this->m_cItem[item_num].m_Type == ITEMGET(13,19) && ((this->m_cItem[item_num].m_Level < 0)?FALSE:(this->m_cItem[item_num].m_Level > 2)?FALSE:TRUE) != FALSE ) )

  001da	0f b7 46 2a	 movzx	 eax, WORD PTR [esi+42]
  001de	ba 0f 18 00 00	 mov	 edx, 6159		; 0000180fH
  001e3	66 3b c2	 cmp	 ax, dx
  001e6	74 22		 je	 SHORT $LN8@ItemGive
  001e8	ba 13 1a 00 00	 mov	 edx, 6675		; 00001a13H
  001ed	66 3b c2	 cmp	 ax, dx
  001f0	75 1c		 jne	 SHORT $LN10@ItemGive
  001f2	0f b7 46 2c	 movzx	 eax, WORD PTR [esi+44]
  001f6	66 85 c0	 test	 ax, ax
  001f9	78 13		 js	 SHORT $LN10@ItemGive
  001fb	33 d2		 xor	 edx, edx
  001fd	66 83 f8 02	 cmp	 ax, 2
  00201	0f 9e c2	 setle	 dl
  00204	8b c2		 mov	 eax, edx
  00206	85 c0		 test	 eax, eax

; 503  : 									}
; 504  : 									else
; 505  : 									{
; 506  : 										lootresult = 1;

  00208	74 04		 je	 SHORT $LN10@ItemGive
$LN8@ItemGive:

; 501  : 									{
; 502  : 										lootresult = 0;

  0020a	33 d2		 xor	 edx, edx

; 507  : 									}
; 508  : 								}
; 509  : 								else

  0020c	eb 05		 jmp	 SHORT $LN6@ItemGive
$LN10@ItemGive:

; 510  : 								{
; 511  : 									lootresult = 1;

  0020e	ba 01 00 00 00	 mov	 edx, 1
$LN6@ItemGive:

; 512  : 								}
; 513  : 
; 514  : 								if( IT_MAP_RANGE(gObj[aIndex].MapNumber) ) //season 2.5 add-on

  00213	80 f9 2d	 cmp	 cl, 45			; 0000002dH
  00216	72 17		 jb	 SHORT $LN41@ItemGive
  00218	b8 32 00 00 00	 mov	 eax, 50			; 00000032H
  0021d	3a c1		 cmp	 al, cl
  0021f	1b c0		 sbb	 eax, eax
  00221	40		 inc	 eax
  00222	74 0b		 je	 SHORT $LN41@ItemGive

; 515  : 								{
; 516  : 									if(this->m_cItem[item_num].m_Type == ITEMGET(12,15))

  00224	b9 0f 18 00 00	 mov	 ecx, 6159		; 0000180fH
  00229	66 39 4e 2a	 cmp	 WORD PTR [esi+42], cx

; 517  : 									{
; 518  : 										lootresult = 0;
; 519  : 									}
; 520  : 								}
; 521  : 							}
; 522  : 						}
; 523  : 					}
; 524  : 				}
; 525  : 			}
; 526  : 		}
; 527  : 	}
; 528  : 
; 529  : 	if ( lootresult == 0 )

  0022d	74 04		 je	 SHORT $LN39@ItemGive
$LN41@ItemGive:
  0022f	85 d2		 test	 edx, edx
  00231	75 49		 jne	 SHORT $LN42@ItemGive
$LN39@ItemGive:

; 530  : 	{
; 531  : 		if ( bFailNotSend == false )

  00233	80 7d 10 00	 cmp	 BYTE PTR _bFailNotSend$[ebp], 0
  00237	0f 85 76 fe ff
	ff		 jne	 $LN19@ItemGive

; 532  : 		{
; 533  : 			char szTemp[256];
; 534  : 
; 535  : 			wsprintf(szTemp, lMsg.Get(MSGGET(4, 128)), gObj[aIndex].Name );

  0023d	8d 54 1f 77	 lea	 edx, DWORD PTR [edi+ebx+119]
  00241	52		 push	 edx
  00242	68 80 04 00 00	 push	 1152			; 00000480H
  00247	b9 00 00 00 00	 mov	 ecx, OFFSET ?lMsg@@3VCMsg@@A ; lMsg
  0024c	e8 00 00 00 00	 call	 ?Get@CMsg@@QAEPADH@Z	; CMsg::Get
  00251	50		 push	 eax
  00252	8d 85 fc fe ff
	ff		 lea	 eax, DWORD PTR _szTemp$211927[ebp]
  00258	50		 push	 eax
  00259	ff 15 00 00 00
	00		 call	 DWORD PTR __imp__wsprintfA

; 536  : 			::GCServerMsgStringSend(szTemp, aIndex, 1);

  0025f	8b 8d f8 fe ff
	ff		 mov	 ecx, DWORD PTR _aIndex$GSCopy$[ebp]
  00265	6a 01		 push	 1
  00267	51		 push	 ecx
  00268	8d 95 fc fe ff
	ff		 lea	 edx, DWORD PTR _szTemp$211927[ebp]
  0026e	52		 push	 edx
  0026f	e8 00 00 00 00	 call	 ?GCServerMsgStringSend@@YAXPADHE@Z ; GCServerMsgStringSend
  00274	83 c4 18	 add	 esp, 24			; 00000018H

; 537  : 			
; 538  : 		}
; 539  : 
; 540  : 		return FALSE;

  00277	e9 37 fe ff ff	 jmp	 $LN19@ItemGive
$LN42@ItemGive:

; 541  : 	}
; 542  : 	else
; 543  : 	{
; 544  : 		this->m_cItem[item_num].m_State = 8;
; 545  : 		this->m_cItem[item_num].Give = true;
; 546  : 		this->m_cItem[item_num].live = false;
; 547  : 
; 548  : 		return TRUE;
; 549  : 	}
; 550  : }

  0027c	8b 4d fc	 mov	 ecx, DWORD PTR __$ArrayPad$[ebp]
  0027f	5f		 pop	 edi
  00280	c7 86 fc 00 00
	00 08 00 00 00	 mov	 DWORD PTR [esi+252], 8
  0028a	66 c7 86 fa 00
	00 00 00 01	 mov	 WORD PTR [esi+250], 256	; 00000100H
  00293	5e		 pop	 esi
  00294	33 cd		 xor	 ecx, ebp
  00296	b8 01 00 00 00	 mov	 eax, 1
  0029b	5b		 pop	 ebx
  0029c	e8 00 00 00 00	 call	 @__security_check_cookie@4
  002a1	8b e5		 mov	 esp, ebp
  002a3	5d		 pop	 ebp
  002a4	c2 0c 00	 ret	 12			; 0000000cH
?ItemGive@MapClass@@QAEHHH_N@Z ENDP			; MapClass::ItemGive
_TEXT	ENDS
PUBLIC	?StateSetDestroy@MapClass@@QAEXXZ		; MapClass::StateSetDestroy
EXTRN	?SetNpcStatueRegen@CIllusionTempleEvent@@QAEXE@Z:PROC ; CIllusionTempleEvent::SetNpcStatueRegen
EXTRN	?g_IllusionTempleEvent@@3VCIllusionTempleEvent@@A:BYTE ; g_IllusionTempleEvent
EXTRN	?LogAddTD@@3P6AXPADZZA:DWORD			; LogAddTD
EXTRN	?GetName@CItem@@QAEPADXZ:PROC			; CItem::GetName
EXTRN	?Clear@CItem@@QAEXXZ:PROC			; CItem::Clear
; Function compile flags: /Ogtp
;	COMDAT ?StateSetDestroy@MapClass@@QAEXXZ
_TEXT	SEGMENT
_this$ = -12						; size = 4
_CurTime$ = -8						; size = 4
tv533 = -4						; size = 4
?StateSetDestroy@MapClass@@QAEXXZ PROC			; MapClass::StateSetDestroy, COMDAT
; _this$ = ecx

; 589  : {

  00000	55		 push	 ebp
  00001	8b ec		 mov	 ebp, esp
  00003	83 ec 0c	 sub	 esp, 12			; 0000000cH
  00006	53		 push	 ebx
  00007	56		 push	 esi
  00008	8b f1		 mov	 esi, ecx
  0000a	57		 push	 edi
  0000b	89 75 f4	 mov	 DWORD PTR _this$[ebp], esi

; 590  : 	int CurTime = GetTickCount();

  0000e	ff 15 00 00 00
	00		 call	 DWORD PTR __imp__GetTickCount@0
  00014	bb 01 00 00 00	 mov	 ebx, 1
  00019	89 45 f8	 mov	 DWORD PTR _CurTime$[ebp], eax
  0001c	83 c6 24	 add	 esi, 36			; 00000024H
  0001f	c7 45 fc 2c 01
	00 00		 mov	 DWORD PTR tv533[ebp], 300 ; 0000012cH
  00026	8d 7b 07	 lea	 edi, DWORD PTR [ebx+7]
  00029	8d a4 24 00 00
	00 00		 npad	 7
$LL11@StateSetDe:

; 593  : 	{
; 594  : 		if ( this->m_cItem[n].IsItem() != FALSE )

  00030	8b ce		 mov	 ecx, esi
  00032	e8 00 00 00 00	 call	 ?IsItem@CItem@@QAEHXZ	; CItem::IsItem
  00037	85 c0		 test	 eax, eax
  00039	74 2a		 je	 SHORT $LN5@StateSetDe

; 595  : 		{
; 596  : 			if ( this->m_cItem[n].m_State == 1 )

  0003b	8b 86 d8 00 00
	00		 mov	 eax, DWORD PTR [esi+216]
  00041	3b c3		 cmp	 eax, ebx
  00043	75 0c		 jne	 SHORT $LN7@StateSetDe

; 597  : 			{
; 598  : 				this->m_cItem[n].m_State = 2;

  00045	c7 86 d8 00 00
	00 02 00 00 00	 mov	 DWORD PTR [esi+216], 2
  0004f	eb 14		 jmp	 SHORT $LN5@StateSetDe
$LN7@StateSetDe:

; 599  : 			}
; 600  : 			else if ( this->m_cItem[n].m_State == 8 )

  00051	3b c7		 cmp	 eax, edi
  00053	75 10		 jne	 SHORT $LN5@StateSetDe

; 601  : 			{
; 602  : 				this->m_cItem[n].Clear();

  00055	8b ce		 mov	 ecx, esi
  00057	e8 00 00 00 00	 call	 ?Clear@CItem@@QAEXXZ	; CItem::Clear

; 603  : 				this->m_cItem[n].live = 0;

  0005c	66 c7 86 d6 00
	00 00 00 01	 mov	 WORD PTR [esi+214], 256	; 00000100H
$LN5@StateSetDe:

; 604  : 				this->m_cItem[n].Give = 1;
; 605  : 			}
; 606  : 		}
; 607  : 
; 608  : 		if ( this->m_cItem[n].IsItem() != FALSE )

  00065	8b ce		 mov	 ecx, esi
  00067	e8 00 00 00 00	 call	 ?IsItem@CItem@@QAEHXZ	; CItem::IsItem
  0006c	85 c0		 test	 eax, eax
  0006e	74 6c		 je	 SHORT $LN10@StateSetDe

; 609  : 		{
; 610  : 			if ( this->m_cItem[n].m_State != 8 )

  00070	39 be d8 00 00
	00		 cmp	 DWORD PTR [esi+216], edi
  00076	74 64		 je	 SHORT $LN10@StateSetDe

; 611  : 			{
; 612  : 				if ( CurTime > this->m_cItem[n].m_Time )

  00078	8b 45 f8	 mov	 eax, DWORD PTR _CurTime$[ebp]
  0007b	3b 86 dc 00 00
	00		 cmp	 eax, DWORD PTR [esi+220]
  00081	76 59		 jbe	 SHORT $LN10@StateSetDe

; 613  : 				{
; 614  : 					LogAddTD(lMsg.Get(MSGGET(4, 76)), this->m_cItem[n].GetName(), this->m_cItem[n].m_Type, this->m_cItem[n].m_Level, this->m_cItem[n].m_Special[0] , this->m_cItem[n].m_Number);

  00083	8b 0e		 mov	 ecx, DWORD PTR [esi]
  00085	0f b7 56 32	 movzx	 edx, WORD PTR [esi+50]
  00089	0f bf 46 08	 movsx	 eax, WORD PTR [esi+8]
  0008d	51		 push	 ecx
  0008e	0f bf 4e 06	 movsx	 ecx, WORD PTR [esi+6]
  00092	52		 push	 edx
  00093	50		 push	 eax
  00094	51		 push	 ecx
  00095	8b ce		 mov	 ecx, esi
  00097	e8 00 00 00 00	 call	 ?GetName@CItem@@QAEPADXZ ; CItem::GetName
  0009c	50		 push	 eax
  0009d	68 4c 04 00 00	 push	 1100			; 0000044cH
  000a2	b9 00 00 00 00	 mov	 ecx, OFFSET ?lMsg@@3VCMsg@@A ; lMsg
  000a7	e8 00 00 00 00	 call	 ?Get@CMsg@@QAEPADH@Z	; CMsg::Get
  000ac	50		 push	 eax
  000ad	ff 15 00 00 00
	00		 call	 DWORD PTR ?LogAddTD@@3P6AXPADZZA ; LogAddTD

; 615  : 					this->m_cItem[n].m_State = 8;
; 616  : 
; 617  : 					if(this->m_cItem[n].m_Type == ITEMGET(14,64)) //season 2.5 add-on

  000b3	ba 40 1c 00 00	 mov	 edx, 7232		; 00001c40H
  000b8	83 c4 18	 add	 esp, 24			; 00000018H
  000bb	89 be d8 00 00
	00		 mov	 DWORD PTR [esi+216], edi
  000c1	66 39 56 06	 cmp	 WORD PTR [esi+6], dx
  000c5	75 15		 jne	 SHORT $LN10@StateSetDe

; 618  : 					{
; 619  : 						g_IllusionTempleEvent.SetNpcStatueRegen(this->thisMapNumber);

  000c7	8b 45 f4	 mov	 eax, DWORD PTR _this$[ebp]
  000ca	0f b6 88 44 3d
	05 00		 movzx	 ecx, BYTE PTR [eax+343364]
  000d1	51		 push	 ecx
  000d2	b9 00 00 00 00	 mov	 ecx, OFFSET ?g_IllusionTempleEvent@@3VCIllusionTempleEvent@@A ; g_IllusionTempleEvent
  000d7	e8 00 00 00 00	 call	 ?SetNpcStatueRegen@CIllusionTempleEvent@@QAEXE@Z ; CIllusionTempleEvent::SetNpcStatueRegen
$LN10@StateSetDe:

; 591  : 
; 592  : 	for (int n=0;n<MAX_MAPITEM;n++)

  000dc	81 c6 74 04 00
	00		 add	 esi, 1140		; 00000474H
  000e2	29 5d fc	 sub	 DWORD PTR tv533[ebp], ebx
  000e5	0f 85 45 ff ff
	ff		 jne	 $LL11@StateSetDe
  000eb	5f		 pop	 edi
  000ec	5e		 pop	 esi
  000ed	5b		 pop	 ebx

; 620  : 					}
; 621  : 				}
; 622  : 			}
; 623  : 		}
; 624  : 	}
; 625  : }

  000ee	8b e5		 mov	 esp, ebp
  000f0	5d		 pop	 ebp
  000f1	c3		 ret	 0
?StateSetDestroy@MapClass@@QAEXXZ ENDP			; MapClass::StateSetDestroy
_TEXT	ENDS
PUBLIC	??_C@_02JDPG@rb?$AA@				; `string'
PUBLIC	?AttrLoad@MapClass@@QAEHPAD@Z			; MapClass::AttrLoad
EXTRN	?MsgBox@@YAXPADZZ:PROC				; MsgBox
EXTRN	_fclose:PROC
EXTRN	__imp__GlobalAlloc@8:PROC
EXTRN	__imp__GlobalFree@4:PROC
EXTRN	_fread:PROC
EXTRN	_fopen:PROC
;	COMDAT ??_C@_02JDPG@rb?$AA@
; File e:\work\tranet_version\gs\common\zzzpath.h
CONST	SEGMENT
??_C@_02JDPG@rb?$AA@ DB 'rb', 00H			; `string'
; Function compile flags: /Ogtp
; File e:\work\tranet_version\gs\gameserver\mapclass.cpp
CONST	ENDS
;	COMDAT ?AttrLoad@MapClass@@QAEHPAD@Z
_TEXT	SEGMENT
_filename$ = 8						; size = 4
_head$ = 11						; size = 1
?AttrLoad@MapClass@@QAEHPAD@Z PROC			; MapClass::AttrLoad, COMDAT
; _this$ = ecx

; 628  : {

  00000	55		 push	 ebp
  00001	8b ec		 mov	 ebp, esp

; 629  : 	FILE * fp;
; 630  : 	BYTE head;
; 631  : 
; 632  : 	fp = fopen(filename,"rb");

  00003	8b 45 08	 mov	 eax, DWORD PTR _filename$[ebp]
  00006	56		 push	 esi
  00007	57		 push	 edi
  00008	68 00 00 00 00	 push	 OFFSET ??_C@_02JDPG@rb?$AA@
  0000d	50		 push	 eax
  0000e	8b f1		 mov	 esi, ecx
  00010	e8 00 00 00 00	 call	 _fopen
  00015	8b f8		 mov	 edi, eax
  00017	83 c4 08	 add	 esp, 8

; 633  : 
; 634  : 	if ( fp == NULL )

  0001a	85 ff		 test	 edi, edi

; 635  : 	{
; 636  : 		return false;

  0001c	0f 84 d1 00 00
	00		 je	 $LN9@AttrLoad

; 637  : 	}
; 638  : 	
; 639  : 	fread(&head, sizeof(head), 1, fp);

  00022	53		 push	 ebx
  00023	57		 push	 edi
  00024	6a 01		 push	 1
  00026	8d 4d 0b	 lea	 ecx, DWORD PTR _head$[ebp]
  00029	6a 01		 push	 1
  0002b	51		 push	 ecx
  0002c	e8 00 00 00 00	 call	 _fread

; 640  : 	fread(&this->m_width, sizeof(char), 1, fp);

  00031	57		 push	 edi
  00032	6a 01		 push	 1
  00034	8d 5e 14	 lea	 ebx, DWORD PTR [esi+20]
  00037	6a 01		 push	 1
  00039	53		 push	 ebx
  0003a	e8 00 00 00 00	 call	 _fread

; 641  : 	fread(&this->m_height, sizeof(char), 1, fp);

  0003f	57		 push	 edi
  00040	6a 01		 push	 1
  00042	8d 46 18	 lea	 eax, DWORD PTR [esi+24]
  00045	6a 01		 push	 1
  00047	50		 push	 eax
  00048	e8 00 00 00 00	 call	 _fread
  0004d	83 c4 30	 add	 esp, 48			; 00000030H

; 642  : 
; 643  : 	if ( this->m_width > 255 || this->m_height > 255 )

  00050	81 3b ff 00 00
	00		 cmp	 DWORD PTR [ebx], 255	; 000000ffH
  00056	5b		 pop	 ebx
  00057	7f 7c		 jg	 SHORT $LN2@AttrLoad
  00059	81 7e 18 ff 00
	00 00		 cmp	 DWORD PTR [esi+24], 255	; 000000ffH
  00060	7f 73		 jg	 SHORT $LN2@AttrLoad

; 648  : 	}
; 649  : 
; 650  : 	if ( this->m_attrbuf != NULL )

  00062	8b 46 10	 mov	 eax, DWORD PTR [esi+16]
  00065	85 c0		 test	 eax, eax
  00067	74 0e		 je	 SHORT $LN1@AttrLoad

; 651  : 	{
; 652  : 		GlobalFree(this->m_attrbuf);

  00069	50		 push	 eax
  0006a	ff 15 00 00 00
	00		 call	 DWORD PTR __imp__GlobalFree@4

; 653  : 		this->m_attrbuf = NULL;

  00070	c7 46 10 00 00
	00 00		 mov	 DWORD PTR [esi+16], 0
$LN1@AttrLoad:

; 654  : 	}
; 655  : 
; 656  : 	this->m_attrbuf = (LPBYTE)GlobalAlloc(GPTR, 65536);

  00077	68 00 00 01 00	 push	 65536			; 00010000H
  0007c	6a 40		 push	 64			; 00000040H
  0007e	ff 15 00 00 00
	00		 call	 DWORD PTR __imp__GlobalAlloc@8

; 657  : 	fread(this->m_attrbuf, 256, 256, fp);

  00084	57		 push	 edi
  00085	68 00 01 00 00	 push	 256			; 00000100H
  0008a	68 00 01 00 00	 push	 256			; 00000100H
  0008f	50		 push	 eax
  00090	89 46 10	 mov	 DWORD PTR [esi+16], eax
  00093	e8 00 00 00 00	 call	 _fread

; 658  : 	fclose(fp);

  00098	57		 push	 edi
  00099	e8 00 00 00 00	 call	 _fclose

; 659  : 	this->path->SetMapDimensions( 256, 256, (LPBYTE)this->m_attrbuf);

  0009e	8b 46 10	 mov	 eax, DWORD PTR [esi+16]
  000a1	8b 76 1c	 mov	 esi, DWORD PTR [esi+28]
  000a4	68 00 00 01 00	 push	 65536			; 00010000H
  000a9	c7 06 00 01 00
	00		 mov	 DWORD PTR [esi], 256	; 00000100H
  000af	c7 46 04 00 01
	00 00		 mov	 DWORD PTR [esi+4], 256	; 00000100H
  000b6	89 86 3c 04 00
	00		 mov	 DWORD PTR [esi+1084], eax
  000bc	e8 00 00 00 00	 call	 ??_U@YAPAXI@Z		; operator new[]
  000c1	83 c4 18	 add	 esp, 24			; 00000018H
  000c4	89 86 40 04 00
	00		 mov	 DWORD PTR [esi+1088], eax
  000ca	5f		 pop	 edi

; 660  : 	return true;

  000cb	b8 01 00 00 00	 mov	 eax, 1
  000d0	5e		 pop	 esi

; 661  : }

  000d1	5d		 pop	 ebp
  000d2	c2 04 00	 ret	 4
$LN2@AttrLoad:

; 644  : 	{
; 645  : 		MsgBox(lMsg.Get( MSGGET(2, 51)));

  000d5	68 33 02 00 00	 push	 563			; 00000233H
  000da	b9 00 00 00 00	 mov	 ecx, OFFSET ?lMsg@@3VCMsg@@A ; lMsg
  000df	e8 00 00 00 00	 call	 ?Get@CMsg@@QAEPADH@Z	; CMsg::Get
  000e4	50		 push	 eax
  000e5	e8 00 00 00 00	 call	 ?MsgBox@@YAXPADZZ	; MsgBox

; 646  : 		fclose(fp);

  000ea	57		 push	 edi
  000eb	e8 00 00 00 00	 call	 _fclose
  000f0	83 c4 08	 add	 esp, 8
$LN9@AttrLoad:

; 647  : 		return false;

  000f3	5f		 pop	 edi
  000f4	33 c0		 xor	 eax, eax
  000f6	5e		 pop	 esi

; 661  : }

  000f7	5d		 pop	 ebp
  000f8	c2 04 00	 ret	 4
?AttrLoad@MapClass@@QAEHPAD@Z ENDP			; MapClass::AttrLoad
_TEXT	ENDS
PUBLIC	?GetAttr@MapClass@@QAEEHH@Z			; MapClass::GetAttr
; Function compile flags: /Ogtp
;	COMDAT ?GetAttr@MapClass@@QAEEHH@Z
_TEXT	SEGMENT
_x$ = 8							; size = 4
_y$ = 12						; size = 4
?GetAttr@MapClass@@QAEEHH@Z PROC			; MapClass::GetAttr, COMDAT
; _this$ = ecx

; 664  : {

  00000	55		 push	 ebp
  00001	8b ec		 mov	 ebp, esp

; 665  : 	if ( x < 0 )

  00003	8b 55 08	 mov	 edx, DWORD PTR _x$[ebp]
  00006	85 d2		 test	 edx, edx
  00008	79 06		 jns	 SHORT $LN4@GetAttr
$LN9@GetAttr:

; 666  : 	{
; 667  : 		return 4;

  0000a	b0 04		 mov	 al, 4

; 686  : 
; 687  : }

  0000c	5d		 pop	 ebp
  0000d	c2 08 00	 ret	 8
$LN4@GetAttr:

; 668  : 	}
; 669  : 
; 670  : 	if ( y < 0 )

  00010	8b 45 0c	 mov	 eax, DWORD PTR _y$[ebp]
  00013	85 c0		 test	 eax, eax

; 671  : 	{
; 672  : 		return 4;

  00015	78 f3		 js	 SHORT $LN9@GetAttr

; 673  : 	}
; 674  : 
; 675  : 	if ( x > this->m_width -1 )

  00017	56		 push	 esi
  00018	8b 71 14	 mov	 esi, DWORD PTR [ecx+20]
  0001b	4e		 dec	 esi
  0001c	3b d6		 cmp	 edx, esi

; 676  : 	{
; 677  : 		return 4;

  0001e	7f 08		 jg	 SHORT $LN8@GetAttr

; 678  : 	}
; 679  : 
; 680  : 	if ( y > this->m_height -1 )

  00020	8b 71 18	 mov	 esi, DWORD PTR [ecx+24]
  00023	4e		 dec	 esi
  00024	3b c6		 cmp	 eax, esi
  00026	7e 07		 jle	 SHORT $LN1@GetAttr
$LN8@GetAttr:

; 681  : 	{
; 682  : 		return 4;

  00028	b0 04		 mov	 al, 4
  0002a	5e		 pop	 esi

; 686  : 
; 687  : }

  0002b	5d		 pop	 ebp
  0002c	c2 08 00	 ret	 8
$LN1@GetAttr:

; 683  : 	}
; 684  : 
; 685  : 	return this->m_attrbuf[y*256 + x];

  0002f	c1 e0 08	 shl	 eax, 8
  00032	03 41 10	 add	 eax, DWORD PTR [ecx+16]
  00035	5e		 pop	 esi
  00036	8a 04 10	 mov	 al, BYTE PTR [eax+edx]

; 686  : 
; 687  : }

  00039	5d		 pop	 ebp
  0003a	c2 08 00	 ret	 8
?GetAttr@MapClass@@QAEEHH@Z ENDP			; MapClass::GetAttr
_TEXT	ENDS
PUBLIC	?GetStandAttr@MapClass@@QAEHHH@Z		; MapClass::GetStandAttr
; Function compile flags: /Ogtp
;	COMDAT ?GetStandAttr@MapClass@@QAEHHH@Z
_TEXT	SEGMENT
_x$ = 8							; size = 4
_y$ = 12						; size = 4
?GetStandAttr@MapClass@@QAEHHH@Z PROC			; MapClass::GetStandAttr, COMDAT
; _this$ = ecx

; 690  : {

  00000	55		 push	 ebp
  00001	8b ec		 mov	 ebp, esp

; 691  : 	if ( x > (this->m_width-1) )

  00003	8b 41 14	 mov	 eax, DWORD PTR [ecx+20]
  00006	8b 55 08	 mov	 edx, DWORD PTR _x$[ebp]
  00009	48		 dec	 eax
  0000a	3b d0		 cmp	 edx, eax
  0000c	7e 06		 jle	 SHORT $LN5@GetStandAt
$LN8@GetStandAt:

; 692  : 	{
; 693  : 		return FALSE;

  0000e	33 c0		 xor	 eax, eax

; 714  : 	{
; 715  : 		return FALSE;
; 716  : 	}
; 717  : 
; 718  : 	return TRUE;
; 719  : }

  00010	5d		 pop	 ebp
  00011	c2 08 00	 ret	 8
$LN5@GetStandAt:

; 694  : 	}
; 695  : 
; 696  : 	if ( y > (this->m_height-1) )

  00014	8b 45 0c	 mov	 eax, DWORD PTR _y$[ebp]
  00017	56		 push	 esi
  00018	8b 71 18	 mov	 esi, DWORD PTR [ecx+24]
  0001b	4e		 dec	 esi
  0001c	3b c6		 cmp	 eax, esi
  0001e	5e		 pop	 esi

; 697  : 	{
; 698  : 		return FALSE;

  0001f	7f ed		 jg	 SHORT $LN8@GetStandAt

; 699  : 	}
; 700  : 
; 701  : 	BYTE attr = this->m_attrbuf[(y * 256 + x)];

  00021	c1 e0 08	 shl	 eax, 8
  00024	03 41 10	 add	 eax, DWORD PTR [ecx+16]
  00027	8a 04 10	 mov	 al, BYTE PTR [eax+edx]

; 702  : 
; 703  : 	if ( (attr&2) == 2 )

  0002a	a8 02		 test	 al, 2

; 704  : 	{
; 705  : 		return FALSE;

  0002c	75 e0		 jne	 SHORT $LN8@GetStandAt

; 706  : 	}
; 707  : 
; 708  : 	if ( (attr&4) == 4 )

  0002e	a8 04		 test	 al, 4

; 709  : 	{
; 710  : 		return FALSE;

  00030	75 dc		 jne	 SHORT $LN8@GetStandAt

; 711  : 	}
; 712  : 
; 713  : 	if ( (attr&8) == 8 )

  00032	24 08		 and	 al, 8
  00034	33 c9		 xor	 ecx, ecx
  00036	3c 08		 cmp	 al, 8
  00038	0f 95 c1	 setne	 cl
  0003b	8b c1		 mov	 eax, ecx

; 714  : 	{
; 715  : 		return FALSE;
; 716  : 	}
; 717  : 
; 718  : 	return TRUE;
; 719  : }

  0003d	5d		 pop	 ebp
  0003e	c2 08 00	 ret	 8
?GetStandAttr@MapClass@@QAEHHH@Z ENDP			; MapClass::GetStandAttr
_TEXT	ENDS
PUBLIC	?SearchStandAttr@MapClass@@QAEXAAF0@Z		; MapClass::SearchStandAttr
; Function compile flags: /Ogtp
;	COMDAT ?SearchStandAttr@MapClass@@QAEXAAF0@Z
_TEXT	SEGMENT
tv165 = -4						; size = 4
_x$ = 8							; size = 4
_y$ = 12						; size = 4
?SearchStandAttr@MapClass@@QAEXAAF0@Z PROC		; MapClass::SearchStandAttr, COMDAT
; _this$ = ecx

; 722  : {

  00000	55		 push	 ebp
  00001	8b ec		 mov	 ebp, esp
  00003	51		 push	 ecx

; 723  : 	int scount = 10;
; 724  : 	int tx;
; 725  : 	int ty;
; 726  : 	int tindex;
; 727  : 	int subx = 1;
; 728  : 
; 729  : 	tx = x;

  00004	8b 45 08	 mov	 eax, DWORD PTR _x$[ebp]
  00007	0f bf 00	 movsx	 eax, WORD PTR [eax]

; 730  : 	ty = y;

  0000a	8b 55 0c	 mov	 edx, DWORD PTR _y$[ebp]
  0000d	0f bf 12	 movsx	 edx, WORD PTR [edx]
  00010	53		 push	 ebx
  00011	56		 push	 esi

; 731  : 	tindex = y * 256;
; 732  : 
; 733  : 	if ( (tx-10) < 0 )

  00012	8d 58 f6	 lea	 ebx, DWORD PTR [eax-10]
  00015	89 55 fc	 mov	 DWORD PTR tv165[ebp], edx

; 734  : 	{
; 735  : 		subx = 1;
; 736  : 	}
; 737  : 
; 738  : 	if ( (tx+10) > 255 )

  00018	8d 58 0a	 lea	 ebx, DWORD PTR [eax+10]
  0001b	be 0a 00 00 00	 mov	 esi, 10			; 0000000aH
  00020	c1 e2 08	 shl	 edx, 8
  00023	57		 push	 edi
  00024	8d 7e f7	 lea	 edi, DWORD PTR [esi-9]
  00027	81 fb ff 00 00
	00		 cmp	 ebx, 255		; 000000ffH
  0002d	7e 03		 jle	 SHORT $LN13@SearchStan

; 739  : 	{
; 740  : 		subx = -1;

  0002f	83 cf ff	 or	 edi, -1
$LN13@SearchStan:

; 741  : 	}
; 742  : 
; 743  : 	while ( scount-- != 0 )

  00032	8b 49 10	 mov	 ecx, DWORD PTR [ecx+16]
  00035	03 ca		 add	 ecx, edx
$LL3@SearchStan:
  00037	4e		 dec	 esi

; 744  : 	{
; 745  : 		if ( ((this->m_attrbuf[tindex + tx]&4)!= 4) && ((this->m_attrbuf[tindex + tx]&2)!= 2) && ((this->m_attrbuf[tindex + tx]&8)!= 8) )

  00038	f6 04 01 0e	 test	 BYTE PTR [ecx+eax], 14	; 0000000eH
  0003c	74 0f		 je	 SHORT $LN9@SearchStan

; 749  : 			break;
; 750  : 		}
; 751  : 
; 752  : 		tx += subx;

  0003e	03 c7		 add	 eax, edi
  00040	85 f6		 test	 esi, esi
  00042	75 f3		 jne	 SHORT $LL3@SearchStan
  00044	5f		 pop	 edi
  00045	5e		 pop	 esi
  00046	5b		 pop	 ebx

; 753  : 	}
; 754  : }

  00047	8b e5		 mov	 esp, ebp
  00049	5d		 pop	 ebp
  0004a	c2 08 00	 ret	 8
$LN9@SearchStan:

; 746  : 		{
; 747  : 			x = tx;

  0004d	8b 55 08	 mov	 edx, DWORD PTR _x$[ebp]

; 748  : 			y = ty;

  00050	8b 4d 0c	 mov	 ecx, DWORD PTR _y$[ebp]
  00053	5f		 pop	 edi
  00054	66 89 02	 mov	 WORD PTR [edx], ax
  00057	66 8b 45 fc	 mov	 ax, WORD PTR tv165[ebp]
  0005b	5e		 pop	 esi
  0005c	66 89 01	 mov	 WORD PTR [ecx], ax
  0005f	5b		 pop	 ebx

; 753  : 	}
; 754  : }

  00060	8b e5		 mov	 esp, ebp
  00062	5d		 pop	 ebp
  00063	c2 08 00	 ret	 8
?SearchStandAttr@MapClass@@QAEXAAF0@Z ENDP		; MapClass::SearchStandAttr
_TEXT	ENDS
PUBLIC	?SetStandAttr@MapClass@@QAEXHH@Z		; MapClass::SetStandAttr
; Function compile flags: /Ogtp
;	COMDAT ?SetStandAttr@MapClass@@QAEXHH@Z
_TEXT	SEGMENT
_x$ = 8							; size = 4
_y$ = 12						; size = 4
?SetStandAttr@MapClass@@QAEXHH@Z PROC			; MapClass::SetStandAttr, COMDAT
; _this$ = ecx

; 757  : {

  00000	55		 push	 ebp
  00001	8b ec		 mov	 ebp, esp

; 758  : 	if ( x > this->m_width-1 )

  00003	8b 41 14	 mov	 eax, DWORD PTR [ecx+20]
  00006	8b 55 08	 mov	 edx, DWORD PTR _x$[ebp]
  00009	48		 dec	 eax
  0000a	3b d0		 cmp	 edx, eax
  0000c	7f 17		 jg	 SHORT $LN3@SetStandAt

; 759  : 	{
; 760  : 		return;
; 761  : 	}
; 762  : 
; 763  : 	if ( y > this->m_height-1 )

  0000e	8b 45 0c	 mov	 eax, DWORD PTR _y$[ebp]
  00011	56		 push	 esi
  00012	8b 71 18	 mov	 esi, DWORD PTR [ecx+24]
  00015	4e		 dec	 esi
  00016	3b c6		 cmp	 eax, esi
  00018	5e		 pop	 esi
  00019	7f 0a		 jg	 SHORT $LN3@SetStandAt

; 764  : 	{
; 765  : 		return;
; 766  : 	}
; 767  : 
; 768  : 	this->m_attrbuf[y*256+x] |= 2;

  0001b	c1 e0 08	 shl	 eax, 8
  0001e	03 41 10	 add	 eax, DWORD PTR [ecx+16]
  00021	80 0c 10 02	 or	 BYTE PTR [eax+edx], 2
$LN3@SetStandAt:

; 769  : }

  00025	5d		 pop	 ebp
  00026	c2 08 00	 ret	 8
?SetStandAttr@MapClass@@QAEXHH@Z ENDP			; MapClass::SetStandAttr
_TEXT	ENDS
PUBLIC	?ClearStandAttr@MapClass@@QAEXHH@Z		; MapClass::ClearStandAttr
; Function compile flags: /Ogtp
;	COMDAT ?ClearStandAttr@MapClass@@QAEXHH@Z
_TEXT	SEGMENT
_x$ = 8							; size = 4
_y$ = 12						; size = 4
?ClearStandAttr@MapClass@@QAEXHH@Z PROC			; MapClass::ClearStandAttr, COMDAT
; _this$ = ecx

; 772  : {

  00000	55		 push	 ebp
  00001	8b ec		 mov	 ebp, esp
  00003	56		 push	 esi

; 773  : 	if ( ((x<0)?FALSE:(x>(this->m_width-1))?FALSE:TRUE) == FALSE )

  00004	8b 75 08	 mov	 esi, DWORD PTR _x$[ebp]
  00007	85 f6		 test	 esi, esi
  00009	78 42		 js	 SHORT $LN1@ClearStand
  0000b	8b 41 14	 mov	 eax, DWORD PTR [ecx+20]
  0000e	48		 dec	 eax
  0000f	33 d2		 xor	 edx, edx
  00011	3b f0		 cmp	 esi, eax
  00013	0f 9e c2	 setle	 dl
  00016	8b c2		 mov	 eax, edx
  00018	85 c0		 test	 eax, eax
  0001a	74 31		 je	 SHORT $LN1@ClearStand

; 774  : 	{
; 775  : 		return;
; 776  : 	}
; 777  : 
; 778  : 	if ( ((y<0)?FALSE:(y>(this->m_height-1))?FALSE:TRUE) == FALSE )

  0001c	8b 45 0c	 mov	 eax, DWORD PTR _y$[ebp]
  0001f	85 c0		 test	 eax, eax
  00021	78 2a		 js	 SHORT $LN1@ClearStand
  00023	8b 51 18	 mov	 edx, DWORD PTR [ecx+24]
  00026	53		 push	 ebx
  00027	33 db		 xor	 ebx, ebx
  00029	4a		 dec	 edx
  0002a	3b c2		 cmp	 eax, edx
  0002c	0f 9e c3	 setle	 bl
  0002f	8b d3		 mov	 edx, ebx
  00031	5b		 pop	 ebx
  00032	85 d2		 test	 edx, edx
  00034	74 17		 je	 SHORT $LN1@ClearStand

; 779  : 	{
; 780  : 		return;
; 781  : 	}
; 782  : 
; 783  : 	if ( (this->m_attrbuf[y*256+x]&2)==2 )

  00036	8b 51 10	 mov	 edx, DWORD PTR [ecx+16]
  00039	c1 e0 08	 shl	 eax, 8
  0003c	03 d0		 add	 edx, eax
  0003e	f6 04 32 02	 test	 BYTE PTR [edx+esi], 2
  00042	74 09		 je	 SHORT $LN1@ClearStand

; 784  : 	{
; 785  : 		this->m_attrbuf[y*256+x] &= 0xFD;

  00044	8b 49 10	 mov	 ecx, DWORD PTR [ecx+16]
  00047	03 c1		 add	 eax, ecx
  00049	80 24 30 fd	 and	 BYTE PTR [eax+esi], 253	; 000000fdH
$LN1@ClearStand:
  0004d	5e		 pop	 esi

; 786  : 	}
; 787  : }

  0004e	5d		 pop	 ebp
  0004f	c2 08 00	 ret	 8
?ClearStandAttr@MapClass@@QAEXHH@Z ENDP			; MapClass::ClearStandAttr
_TEXT	ENDS
PUBLIC	?PathFinding2@MapClass@@QAE_NHHHHPAUPATH_t@@@Z	; MapClass::PathFinding2
; Function compile flags: /Ogtp
;	COMDAT ?PathFinding2@MapClass@@QAE_NHHHHPAUPATH_t@@@Z
_TEXT	SEGMENT
_sx$ = 8						; size = 4
_sy$ = 12						; size = 4
_tx$ = 16						; size = 4
_ty$ = 20						; size = 4
_a$ = 24						; size = 4
?PathFinding2@MapClass@@QAE_NHHHHPAUPATH_t@@@Z PROC	; MapClass::PathFinding2, COMDAT
; _this$ = ecx

; 790  : {

  00000	55		 push	 ebp
  00001	8b ec		 mov	 ebp, esp

; 791  : 	bool Success = this->path->FindPath(sx, sy, tx, ty, true);

  00003	8b 45 0c	 mov	 eax, DWORD PTR _sy$[ebp]
  00006	53		 push	 ebx
  00007	8b 5d 10	 mov	 ebx, DWORD PTR _tx$[ebp]
  0000a	56		 push	 esi
  0000b	57		 push	 edi
  0000c	8b 7d 14	 mov	 edi, DWORD PTR _ty$[ebp]
  0000f	6a 01		 push	 1
  00011	57		 push	 edi
  00012	53		 push	 ebx
  00013	8b f1		 mov	 esi, ecx
  00015	8b 4d 08	 mov	 ecx, DWORD PTR _sx$[ebp]
  00018	50		 push	 eax
  00019	51		 push	 ecx
  0001a	8b 4e 1c	 mov	 ecx, DWORD PTR [esi+28]
  0001d	e8 00 00 00 00	 call	 ?FindPath@PATH@@QAE_NHHHH_N@Z ; PATH::FindPath

; 792  : 
; 793  : 	if ( Success == false )

  00022	84 c0		 test	 al, al
  00024	75 18		 jne	 SHORT $LN17@PathFindin

; 794  : 	{
; 795  : 		Success = this->path->FindPath(sx, sy, tx, ty, false);

  00026	8b 55 0c	 mov	 edx, DWORD PTR _sy$[ebp]
  00029	8b 45 08	 mov	 eax, DWORD PTR _sx$[ebp]
  0002c	8b 4e 1c	 mov	 ecx, DWORD PTR [esi+28]
  0002f	6a 00		 push	 0
  00031	57		 push	 edi
  00032	53		 push	 ebx
  00033	52		 push	 edx
  00034	50		 push	 eax
  00035	e8 00 00 00 00	 call	 ?FindPath@PATH@@QAE_NHHHH_N@Z ; PATH::FindPath

; 796  : 	}
; 797  : 
; 798  : 	if ( Success != false )

  0003a	84 c0		 test	 al, al
  0003c	74 4c		 je	 SHORT $LN4@PathFindin
$LN17@PathFindin:

; 799  : 	{
; 800  : 		int path = this->path->GetPath();

  0003e	8b 4e 1c	 mov	 ecx, DWORD PTR [esi+28]
  00041	8b 41 08	 mov	 eax, DWORD PTR [ecx+8]

; 801  : 
; 802  : 		if ( path > 1 )

  00044	83 f8 01	 cmp	 eax, 1
  00047	7e 41		 jle	 SHORT $LN4@PathFindin

; 803  : 		{
; 804  : 			a->PathNum = path;

  00049	8b 7d 18	 mov	 edi, DWORD PTR _a$[ebp]
  0004c	89 07		 mov	 DWORD PTR [edi], eax

; 805  : 			BYTE * px = this->path->GetPathX();

  0004e	8b 76 1c	 mov	 esi, DWORD PTR [esi+28]

; 806  : 			BYTE * py = this->path->GetPathY();
; 807  : 
; 808  : 			for (int n=0;n<a->PathNum;n++)

  00051	33 d2		 xor	 edx, edx
  00053	8d 8e 00 02 00
	00		 lea	 ecx, DWORD PTR [esi+512]
  00059	85 c0		 test	 eax, eax
  0005b	7e 1d		 jle	 SHORT $LN1@PathFindin
  0005d	83 c6 0c	 add	 esi, 12			; 0000000cH
  00060	8d 47 40	 lea	 eax, DWORD PTR [edi+64]
  00063	2b f1		 sub	 esi, ecx
$LL3@PathFindin:

; 809  : 			{
; 810  : 				a->PathX[n] = px[n];

  00065	0f b6 1c 0e	 movzx	 ebx, BYTE PTR [esi+ecx]
  00069	89 58 c4	 mov	 DWORD PTR [eax-60], ebx

; 811  : 				a->PathY[n] = py[n];

  0006c	0f b6 19	 movzx	 ebx, BYTE PTR [ecx]
  0006f	89 18		 mov	 DWORD PTR [eax], ebx
  00071	42		 inc	 edx
  00072	83 c0 04	 add	 eax, 4
  00075	41		 inc	 ecx
  00076	3b 17		 cmp	 edx, DWORD PTR [edi]
  00078	7c eb		 jl	 SHORT $LL3@PathFindin
$LN1@PathFindin:

; 812  : 			}
; 813  : 
; 814  : 			a->CurrentPath = 0;

  0007a	c7 47 7c 00 00
	00 00		 mov	 DWORD PTR [edi+124], 0
  00081	5f		 pop	 edi
  00082	5e		 pop	 esi

; 815  : 			return 1;

  00083	b0 01		 mov	 al, 1
  00085	5b		 pop	 ebx

; 821  : }

  00086	5d		 pop	 ebp
  00087	c2 14 00	 ret	 20			; 00000014H
$LN4@PathFindin:
  0008a	5f		 pop	 edi
  0008b	5e		 pop	 esi

; 816  : 		}
; 817  : 
; 818  : 	}
; 819  : 
; 820  : 	return false;

  0008c	32 c0		 xor	 al, al
  0008e	5b		 pop	 ebx

; 821  : }

  0008f	5d		 pop	 ebp
  00090	c2 14 00	 ret	 20			; 00000014H
?PathFinding2@MapClass@@QAE_NHHHHPAUPATH_t@@@Z ENDP	; MapClass::PathFinding2
_TEXT	ENDS
PUBLIC	?TERRAIN_INDEX_REPEAT@@YAHHH@Z			; TERRAIN_INDEX_REPEAT
; Function compile flags: /Ogtp
;	COMDAT ?TERRAIN_INDEX_REPEAT@@YAHHH@Z
_TEXT	SEGMENT
_x$ = 8							; size = 4
_y$ = 12						; size = 4
?TERRAIN_INDEX_REPEAT@@YAHHH@Z PROC			; TERRAIN_INDEX_REPEAT, COMDAT

; 900  : {

  00000	55		 push	 ebp
  00001	8b ec		 mov	 ebp, esp

; 901  : 	return (BYTE)y * 256 + (BYTE)x;

  00003	0f b6 45 0c	 movzx	 eax, BYTE PTR _y$[ebp]
  00007	0f b6 4d 08	 movzx	 ecx, BYTE PTR _x$[ebp]
  0000b	c1 e0 08	 shl	 eax, 8
  0000e	03 c1		 add	 eax, ecx

; 902  : }

  00010	5d		 pop	 ebp
  00011	c3		 ret	 0
?TERRAIN_INDEX_REPEAT@@YAHHH@Z ENDP			; TERRAIN_INDEX_REPEAT
_TEXT	ENDS
PUBLIC	?PathFinding3@MapClass@@QAE_NHHHHPAUPATH_t@@@Z	; MapClass::PathFinding3
; Function compile flags: /Ogtp
;	COMDAT ?PathFinding3@MapClass@@QAE_NHHHHPAUPATH_t@@@Z
_TEXT	SEGMENT
_sx$ = 8						; size = 4
_sy$ = 12						; size = 4
_tx$ = 16						; size = 4
_ty$ = 20						; size = 4
_a$ = 24						; size = 4
?PathFinding3@MapClass@@QAE_NHHHHPAUPATH_t@@@Z PROC	; MapClass::PathFinding3, COMDAT
; _this$ = ecx

; 905  : {

  00000	55		 push	 ebp
  00001	8b ec		 mov	 ebp, esp

; 906  : 	bool Success = this->path->FindPath2(sx, sy, tx, ty, TRUE);

  00003	8b 45 0c	 mov	 eax, DWORD PTR _sy$[ebp]
  00006	53		 push	 ebx
  00007	8b 5d 10	 mov	 ebx, DWORD PTR _tx$[ebp]
  0000a	56		 push	 esi
  0000b	57		 push	 edi
  0000c	8b 7d 14	 mov	 edi, DWORD PTR _ty$[ebp]
  0000f	6a 01		 push	 1
  00011	57		 push	 edi
  00012	53		 push	 ebx
  00013	8b f1		 mov	 esi, ecx
  00015	8b 4d 08	 mov	 ecx, DWORD PTR _sx$[ebp]
  00018	50		 push	 eax
  00019	51		 push	 ecx
  0001a	8b 4e 1c	 mov	 ecx, DWORD PTR [esi+28]
  0001d	e8 00 00 00 00	 call	 ?FindPath2@PATH@@QAE_NHHHH_N@Z ; PATH::FindPath2

; 907  : 
; 908  : 	if ( Success == false )

  00022	84 c0		 test	 al, al
  00024	75 18		 jne	 SHORT $LN17@PathFindin@2

; 909  : 	{
; 910  : 		Success = this->path->FindPath2(sx, sy, tx, ty, FALSE);

  00026	8b 55 0c	 mov	 edx, DWORD PTR _sy$[ebp]
  00029	8b 45 08	 mov	 eax, DWORD PTR _sx$[ebp]
  0002c	8b 4e 1c	 mov	 ecx, DWORD PTR [esi+28]
  0002f	6a 00		 push	 0
  00031	57		 push	 edi
  00032	53		 push	 ebx
  00033	52		 push	 edx
  00034	50		 push	 eax
  00035	e8 00 00 00 00	 call	 ?FindPath2@PATH@@QAE_NHHHH_N@Z ; PATH::FindPath2

; 911  : 	}
; 912  : 
; 913  : 	if ( Success != false )

  0003a	84 c0		 test	 al, al
  0003c	74 4c		 je	 SHORT $LN4@PathFindin@2
$LN17@PathFindin@2:

; 914  : 	{
; 915  : 		int lc3 = this->path->GetPath();

  0003e	8b 4e 1c	 mov	 ecx, DWORD PTR [esi+28]
  00041	8b 41 08	 mov	 eax, DWORD PTR [ecx+8]

; 916  : 
; 917  : 		if ( lc3 > 1 )

  00044	83 f8 01	 cmp	 eax, 1
  00047	7e 41		 jle	 SHORT $LN4@PathFindin@2

; 918  : 		{
; 919  : 			a->PathNum = lc3;

  00049	8b 7d 18	 mov	 edi, DWORD PTR _a$[ebp]
  0004c	89 07		 mov	 DWORD PTR [edi], eax

; 920  : 			BYTE * px = this->path->GetPathX();

  0004e	8b 76 1c	 mov	 esi, DWORD PTR [esi+28]

; 921  : 			BYTE * py = this->path->GetPathY();
; 922  : 
; 923  : 			for (int n=0;n<a->PathNum;n++)

  00051	33 d2		 xor	 edx, edx
  00053	8d 8e 00 02 00
	00		 lea	 ecx, DWORD PTR [esi+512]
  00059	85 c0		 test	 eax, eax
  0005b	7e 1d		 jle	 SHORT $LN1@PathFindin@2
  0005d	83 c6 0c	 add	 esi, 12			; 0000000cH
  00060	8d 47 40	 lea	 eax, DWORD PTR [edi+64]
  00063	2b f1		 sub	 esi, ecx
$LL3@PathFindin@2:

; 924  : 			{
; 925  : 				a->PathX[n] = px[n];

  00065	0f b6 1c 0e	 movzx	 ebx, BYTE PTR [esi+ecx]
  00069	89 58 c4	 mov	 DWORD PTR [eax-60], ebx

; 926  : 				a->PathY[n] = py[n];

  0006c	0f b6 19	 movzx	 ebx, BYTE PTR [ecx]
  0006f	89 18		 mov	 DWORD PTR [eax], ebx
  00071	42		 inc	 edx
  00072	83 c0 04	 add	 eax, 4
  00075	41		 inc	 ecx
  00076	3b 17		 cmp	 edx, DWORD PTR [edi]
  00078	7c eb		 jl	 SHORT $LL3@PathFindin@2
$LN1@PathFindin@2:

; 927  : 			}
; 928  : 
; 929  : 			a->CurrentPath = 0;

  0007a	c7 47 7c 00 00
	00 00		 mov	 DWORD PTR [edi+124], 0
  00081	5f		 pop	 edi
  00082	5e		 pop	 esi

; 930  : 			return 1;

  00083	b0 01		 mov	 al, 1
  00085	5b		 pop	 ebx

; 936  : }

  00086	5d		 pop	 ebp
  00087	c2 14 00	 ret	 20			; 00000014H
$LN4@PathFindin@2:
  0008a	5f		 pop	 edi
  0008b	5e		 pop	 esi

; 931  : 		}
; 932  : 
; 933  : 	}
; 934  : 
; 935  : 	return false;

  0008c	32 c0		 xor	 al, al
  0008e	5b		 pop	 ebx

; 936  : }

  0008f	5d		 pop	 ebp
  00090	c2 14 00	 ret	 20			; 00000014H
?PathFinding3@MapClass@@QAE_NHHHHPAUPATH_t@@@Z ENDP	; MapClass::PathFinding3
_TEXT	ENDS
PUBLIC	?PathFinding4@MapClass@@QAE_NHHHHPAUPATH_t@@@Z	; MapClass::PathFinding4
; Function compile flags: /Ogtp
;	COMDAT ?PathFinding4@MapClass@@QAE_NHHHHPAUPATH_t@@@Z
_TEXT	SEGMENT
_sx$ = 8						; size = 4
_sy$ = 12						; size = 4
_tx$ = 16						; size = 4
_ty$ = 20						; size = 4
_a$ = 24						; size = 4
?PathFinding4@MapClass@@QAE_NHHHHPAUPATH_t@@@Z PROC	; MapClass::PathFinding4, COMDAT
; _this$ = ecx

; 939  : {

  00000	55		 push	 ebp
  00001	8b ec		 mov	 ebp, esp

; 940  : 	bool Success = this->path->FindPath3(sx, sy, tx, ty, true);

  00003	8b 45 0c	 mov	 eax, DWORD PTR _sy$[ebp]
  00006	53		 push	 ebx
  00007	8b 5d 10	 mov	 ebx, DWORD PTR _tx$[ebp]
  0000a	56		 push	 esi
  0000b	57		 push	 edi
  0000c	8b 7d 14	 mov	 edi, DWORD PTR _ty$[ebp]
  0000f	6a 01		 push	 1
  00011	57		 push	 edi
  00012	53		 push	 ebx
  00013	8b f1		 mov	 esi, ecx
  00015	8b 4d 08	 mov	 ecx, DWORD PTR _sx$[ebp]
  00018	50		 push	 eax
  00019	51		 push	 ecx
  0001a	8b 4e 1c	 mov	 ecx, DWORD PTR [esi+28]
  0001d	e8 00 00 00 00	 call	 ?FindPath3@PATH@@QAE_NHHHH_N@Z ; PATH::FindPath3

; 941  : 
; 942  : 	if ( Success == false )

  00022	84 c0		 test	 al, al
  00024	75 18		 jne	 SHORT $LN17@PathFindin@3

; 943  : 	{
; 944  : 		Success = this->path->FindPath3(sx, sy, tx, ty, false);

  00026	8b 55 0c	 mov	 edx, DWORD PTR _sy$[ebp]
  00029	8b 45 08	 mov	 eax, DWORD PTR _sx$[ebp]
  0002c	8b 4e 1c	 mov	 ecx, DWORD PTR [esi+28]
  0002f	6a 00		 push	 0
  00031	57		 push	 edi
  00032	53		 push	 ebx
  00033	52		 push	 edx
  00034	50		 push	 eax
  00035	e8 00 00 00 00	 call	 ?FindPath3@PATH@@QAE_NHHHH_N@Z ; PATH::FindPath3

; 945  : 	}
; 946  : 
; 947  : 	if ( Success != false )

  0003a	84 c0		 test	 al, al
  0003c	74 4c		 je	 SHORT $LN4@PathFindin@3
$LN17@PathFindin@3:

; 948  : 	{
; 949  : 		int lc3 = this->path->GetPath();

  0003e	8b 4e 1c	 mov	 ecx, DWORD PTR [esi+28]
  00041	8b 41 08	 mov	 eax, DWORD PTR [ecx+8]

; 950  : 
; 951  : 		if ( lc3 > 1 )

  00044	83 f8 01	 cmp	 eax, 1
  00047	7e 41		 jle	 SHORT $LN4@PathFindin@3

; 952  : 		{
; 953  : 			a->PathNum = lc3;

  00049	8b 7d 18	 mov	 edi, DWORD PTR _a$[ebp]
  0004c	89 07		 mov	 DWORD PTR [edi], eax

; 954  : 			BYTE * px = this->path->GetPathX();

  0004e	8b 76 1c	 mov	 esi, DWORD PTR [esi+28]

; 955  : 			BYTE * py = this->path->GetPathY();
; 956  : 
; 957  : 			for (int n=0;n<a->PathNum;n++)

  00051	33 d2		 xor	 edx, edx
  00053	8d 8e 00 02 00
	00		 lea	 ecx, DWORD PTR [esi+512]
  00059	85 c0		 test	 eax, eax
  0005b	7e 1d		 jle	 SHORT $LN1@PathFindin@3
  0005d	83 c6 0c	 add	 esi, 12			; 0000000cH
  00060	8d 47 40	 lea	 eax, DWORD PTR [edi+64]
  00063	2b f1		 sub	 esi, ecx
$LL3@PathFindin@3:

; 958  : 			{
; 959  : 				a->PathX[n] = px[n];

  00065	0f b6 1c 0e	 movzx	 ebx, BYTE PTR [esi+ecx]
  00069	89 58 c4	 mov	 DWORD PTR [eax-60], ebx

; 960  : 				a->PathY[n] = py[n];

  0006c	0f b6 19	 movzx	 ebx, BYTE PTR [ecx]
  0006f	89 18		 mov	 DWORD PTR [eax], ebx
  00071	42		 inc	 edx
  00072	83 c0 04	 add	 eax, 4
  00075	41		 inc	 ecx
  00076	3b 17		 cmp	 edx, DWORD PTR [edi]
  00078	7c eb		 jl	 SHORT $LL3@PathFindin@3
$LN1@PathFindin@3:

; 961  : 			}
; 962  : 
; 963  : 			a->CurrentPath = 0;

  0007a	c7 47 7c 00 00
	00 00		 mov	 DWORD PTR [edi+124], 0
  00081	5f		 pop	 edi
  00082	5e		 pop	 esi

; 964  : 			return 1;

  00083	b0 01		 mov	 al, 1
  00085	5b		 pop	 ebx

; 970  : }

  00086	5d		 pop	 ebp
  00087	c2 14 00	 ret	 20			; 00000014H
$LN4@PathFindin@3:
  0008a	5f		 pop	 edi
  0008b	5e		 pop	 esi

; 965  : 		}
; 966  : 
; 967  : 	}
; 968  : 
; 969  : 	return false;

  0008c	32 c0		 xor	 al, al
  0008e	5b		 pop	 ebx

; 970  : }

  0008f	5d		 pop	 ebp
  00090	c2 14 00	 ret	 20			; 00000014H
?PathFinding4@MapClass@@QAE_NHHHHPAUPATH_t@@@Z ENDP	; MapClass::PathFinding4
_TEXT	ENDS
PUBLIC	?CheckWall2@MapClass@@QAEEHHHH@Z		; MapClass::CheckWall2
; Function compile flags: /Ogtp
;	COMDAT ?CheckWall2@MapClass@@QAEEHHHH@Z
_TEXT	SEGMENT
_this$ = -4						; size = 4
_len2$ = 8						; size = 4
_sx1$ = 8						; size = 4
_start$ = 12						; size = 4
_sy1$ = 12						; size = 4
_d1$ = 16						; size = 4
_sx2$ = 16						; size = 4
_d2$ = 20						; size = 4
_sy2$ = 20						; size = 4
?CheckWall2@MapClass@@QAEEHHHH@Z PROC			; MapClass::CheckWall2, COMDAT
; _this$ = ecx

; 973  : {

  00000	55		 push	 ebp
  00001	8b ec		 mov	 ebp, esp
  00003	51		 push	 ecx

; 974  : 	int Index = TERRAIN_INDEX_REPEAT(sx1,sy1);

  00004	8b 55 0c	 mov	 edx, DWORD PTR _sy1$[ebp]
  00007	53		 push	 ebx
  00008	56		 push	 esi
  00009	8b 75 08	 mov	 esi, DWORD PTR _sx1$[ebp]
  0000c	57		 push	 edi
  0000d	52		 push	 edx
  0000e	56		 push	 esi
  0000f	89 4d fc	 mov	 DWORD PTR _this$[ebp], ecx
  00012	e8 00 00 00 00	 call	 ?TERRAIN_INDEX_REPEAT@@YAHHH@Z ; TERRAIN_INDEX_REPEAT

; 975  : 	int nx1;
; 976  : 	int ny1;
; 977  : 	int d1;
; 978  : 	int d2;
; 979  : 	int len1;
; 980  : 	int len2;
; 981  : 	int px1 = sx2 - sx1;
; 982  : 	int py1 = sy2 - sy1;

  00017	8b 4d 14	 mov	 ecx, DWORD PTR _sy2$[ebp]
  0001a	8b d8		 mov	 ebx, eax
  0001c	8b 45 10	 mov	 eax, DWORD PTR _sx2$[ebp]
  0001f	83 c4 08	 add	 esp, 8
  00022	2b ca		 sub	 ecx, edx
  00024	2b c6		 sub	 eax, esi

; 983  : 
; 984  : 	if ( px1 < 0 )

  00026	79 07		 jns	 SHORT $LN14@CheckWall2

; 985  : 	{
; 986  : 		px1 = -px1;

  00028	f7 d8		 neg	 eax

; 987  : 		nx1 = -1;

  0002a	83 cf ff	 or	 edi, -1

; 988  : 	}
; 989  : 	else

  0002d	eb 05		 jmp	 SHORT $LN13@CheckWall2
$LN14@CheckWall2:

; 990  : 	{
; 991  : 		nx1 = 1;

  0002f	bf 01 00 00 00	 mov	 edi, 1
$LN13@CheckWall2:

; 992  : 	}
; 993  : 
; 994  : 	if ( py1 < 0 )

  00034	85 c9		 test	 ecx, ecx
  00036	79 09		 jns	 SHORT $LN12@CheckWall2

; 995  : 	{
; 996  : 		py1 = -py1;

  00038	f7 d9		 neg	 ecx

; 997  : 		ny1 = -256;

  0003a	ba 00 ff ff ff	 mov	 edx, -256		; ffffff00H

; 998  : 	}
; 999  : 	else

  0003f	eb 05		 jmp	 SHORT $LN11@CheckWall2
$LN12@CheckWall2:

; 1000 : 	{
; 1001 : 		ny1 = 256;

  00041	ba 00 01 00 00	 mov	 edx, 256		; 00000100H
$LN11@CheckWall2:

; 1002 : 	}
; 1003 : 
; 1004 : 	if ( px1 > py1 )

  00046	3b c1		 cmp	 eax, ecx
  00048	7e 0d		 jle	 SHORT $LN10@CheckWall2

; 1005 : 	{
; 1006 : 		len1 = px1;

  0004a	8b f0		 mov	 esi, eax

; 1007 : 		len2= py1;

  0004c	89 4d 08	 mov	 DWORD PTR _len2$[ebp], ecx

; 1008 : 		d1 = ny1;

  0004f	89 55 10	 mov	 DWORD PTR _d1$[ebp], edx

; 1009 : 		d2 = nx1;

  00052	89 7d 14	 mov	 DWORD PTR _d2$[ebp], edi

; 1010 : 	}
; 1011 : 	else

  00055	eb 0b		 jmp	 SHORT $LN9@CheckWall2
$LN10@CheckWall2:

; 1012 : 	{
; 1013 : 		len1 = py1;

  00057	8b f1		 mov	 esi, ecx

; 1014 : 		len2 = px1;

  00059	89 45 08	 mov	 DWORD PTR _len2$[ebp], eax

; 1015 : 		d1 = nx1;

  0005c	89 7d 10	 mov	 DWORD PTR _d1$[ebp], edi

; 1016 : 		d2 = ny1;

  0005f	89 55 14	 mov	 DWORD PTR _d2$[ebp], edx
$LN9@CheckWall2:

; 1017 : 	}
; 1018 : 
; 1019 : 	int start = 0;

  00062	33 c9		 xor	 ecx, ecx
  00064	89 4d 0c	 mov	 DWORD PTR _start$[ebp], ecx

; 1020 : 	BOOL error = FALSE;

  00067	33 ff		 xor	 edi, edi
  00069	8d a4 24 00 00
	00 00		 npad	 7
$LL8@CheckWall2:

; 1021 : 	int count = 0;
; 1022 : 	int Shadow = 0;
; 1023 : 
; 1024 : 	do
; 1025 : 	{
; 1026 : 		if ( start == 0 )

  00070	83 7d 0c 00	 cmp	 DWORD PTR _start$[ebp], 0
  00074	75 17		 jne	 SHORT $LN5@CheckWall2

; 1027 : 		{
; 1028 : 			if ( (this->m_attrbuf[Index]&2) == 2 )

  00076	8b 45 fc	 mov	 eax, DWORD PTR _this$[ebp]
  00079	8b 50 10	 mov	 edx, DWORD PTR [eax+16]
  0007c	f6 04 13 02	 test	 BYTE PTR [ebx+edx], 2
  00080	74 12		 je	 SHORT $LN3@CheckWall2

; 1029 : 			{
; 1030 : 				return 2;

  00082	5f		 pop	 edi
  00083	5e		 pop	 esi
  00084	b0 02		 mov	 al, 2
  00086	5b		 pop	 ebx

; 1057 : }

  00087	8b e5		 mov	 esp, ebp
  00089	5d		 pop	 ebp
  0008a	c2 10 00	 ret	 16			; 00000010H
$LN5@CheckWall2:

; 1031 : 			}
; 1032 : 		}
; 1033 : 		else
; 1034 : 		{
; 1035 : 			start = 1;

  0008d	c7 45 0c 01 00
	00 00		 mov	 DWORD PTR _start$[ebp], 1
$LN3@CheckWall2:

; 1036 : 		}
; 1037 : 
; 1038 : 		if ( (this->m_attrbuf[Index]&4) == 4 )

  00094	8b 45 fc	 mov	 eax, DWORD PTR _this$[ebp]
  00097	8b 50 10	 mov	 edx, DWORD PTR [eax+16]
  0009a	f6 04 13 04	 test	 BYTE PTR [ebx+edx], 4
  0009e	75 26		 jne	 SHORT $LN20@CheckWall2

; 1041 : 		}
; 1042 : 
; 1043 : 		error +=len2;

  000a0	03 7d 08	 add	 edi, DWORD PTR _len2$[ebp]

; 1044 : 
; 1045 : 		if ( error > (len1/2) )

  000a3	8b c6		 mov	 eax, esi
  000a5	99		 cdq
  000a6	2b c2		 sub	 eax, edx
  000a8	d1 f8		 sar	 eax, 1
  000aa	3b f8		 cmp	 edi, eax
  000ac	7e 05		 jle	 SHORT $LN1@CheckWall2

; 1046 : 		{
; 1047 : 			Index += d1;

  000ae	03 5d 10	 add	 ebx, DWORD PTR _d1$[ebp]

; 1048 : 			error -= len1;

  000b1	2b fe		 sub	 edi, esi
$LN1@CheckWall2:

; 1049 : 		}
; 1050 : 
; 1051 : 		Index += d2;

  000b3	03 5d 14	 add	 ebx, DWORD PTR _d2$[ebp]

; 1052 : 		count++;

  000b6	41		 inc	 ecx

; 1053 : 	}
; 1054 : 	while ( count <= len1 );

  000b7	3b ce		 cmp	 ecx, esi
  000b9	7e b5		 jle	 SHORT $LL8@CheckWall2

; 1055 : 	
; 1056 : 	return 1;

  000bb	5f		 pop	 edi
  000bc	5e		 pop	 esi
  000bd	b0 01		 mov	 al, 1
  000bf	5b		 pop	 ebx

; 1057 : }

  000c0	8b e5		 mov	 esp, ebp
  000c2	5d		 pop	 ebp
  000c3	c2 10 00	 ret	 16			; 00000010H
$LN20@CheckWall2:
  000c6	5f		 pop	 edi
  000c7	5e		 pop	 esi

; 1039 : 		{
; 1040 : 			return 4;

  000c8	b0 04		 mov	 al, 4
  000ca	5b		 pop	 ebx

; 1057 : }

  000cb	8b e5		 mov	 esp, ebp
  000cd	5d		 pop	 ebp
  000ce	c2 10 00	 ret	 16			; 00000010H
?CheckWall2@MapClass@@QAEEHHHH@Z ENDP			; MapClass::CheckWall2
_TEXT	ENDS
PUBLIC	_sqrtf
EXTRN	__fltused:DWORD
EXTRN	__CIsqrt:PROC
; Function compile flags: /Ogtp
; File d:\program files (x86)\microsoft visual studio 10.0\vc\include\math.h
;	COMDAT _sqrtf
_TEXT	SEGMENT
tv69 = 8						; size = 4
__X$ = 8						; size = 4
_sqrtf	PROC						; COMDAT

; 434  :         {return ((float)sqrt((double)_X)); }

  00000	55		 push	 ebp
  00001	8b ec		 mov	 ebp, esp
  00003	d9 45 08	 fld	 DWORD PTR __X$[ebp]
  00006	e8 00 00 00 00	 call	 __CIsqrt
  0000b	d9 5d 08	 fstp	 DWORD PTR tv69[ebp]
  0000e	d9 45 08	 fld	 DWORD PTR tv69[ebp]
  00011	5d		 pop	 ebp
  00012	c3		 ret	 0
_sqrtf	ENDP
_TEXT	ENDS
PUBLIC	?sqrt@@YAMM@Z					; sqrt
; Function compile flags: /Ogtp
;	COMDAT ?sqrt@@YAMM@Z
_TEXT	SEGMENT
tv73 = 8						; size = 4
__X$ = 8						; size = 4
?sqrt@@YAMM@Z PROC					; sqrt, COMDAT

; 542  :         {return (sqrtf(_X)); }

  00000	55		 push	 ebp
  00001	8b ec		 mov	 ebp, esp
  00003	d9 45 08	 fld	 DWORD PTR __X$[ebp]
  00006	e8 00 00 00 00	 call	 __CIsqrt
  0000b	d9 5d 08	 fstp	 DWORD PTR tv73[ebp]
  0000e	d9 45 08	 fld	 DWORD PTR tv73[ebp]
  00011	5d		 pop	 ebp
  00012	c3		 ret	 0
?sqrt@@YAMM@Z ENDP					; sqrt
_TEXT	ENDS
PUBLIC	?free@MapClass@@QAEXXZ				; MapClass::free
; Function compile flags: /Ogtp
; File e:\work\tranet_version\gs\gameserver\mapclass.h
;	COMDAT ?free@MapClass@@QAEXXZ
_TEXT	SEGMENT
?free@MapClass@@QAEXXZ PROC				; MapClass::free, COMDAT
; _this$ = ecx

; 66   : 	{

  00000	56		 push	 esi
  00001	8b f1		 mov	 esi, ecx

; 67   : 		if ( this->m_attrbuf != 0 )

  00003	8b 46 10	 mov	 eax, DWORD PTR [esi+16]
  00006	85 c0		 test	 eax, eax
  00008	74 0e		 je	 SHORT $LN2@free

; 68   : 		{
; 69   : 			GlobalFree(this->m_attrbuf);

  0000a	50		 push	 eax
  0000b	ff 15 00 00 00
	00		 call	 DWORD PTR __imp__GlobalFree@4

; 70   : 			this->m_attrbuf=0;

  00011	c7 46 10 00 00
	00 00		 mov	 DWORD PTR [esi+16], 0
$LN2@free:

; 71   : 		}
; 72   : 
; 73   : 		if ( this->path != 0 )

  00018	8b 46 1c	 mov	 eax, DWORD PTR [esi+28]
  0001b	85 c0		 test	 eax, eax
  0001d	74 10		 je	 SHORT $LN1@free

; 74   : 		{
; 75   : 			delete this->path;

  0001f	50		 push	 eax
  00020	e8 00 00 00 00	 call	 ??3@YAXPAX@Z		; operator delete
  00025	83 c4 04	 add	 esp, 4

; 76   : 			this->path = 0;

  00028	c7 46 1c 00 00
	00 00		 mov	 DWORD PTR [esi+28], 0
$LN1@free:
  0002f	5e		 pop	 esi

; 77   : 		}
; 78   : 	}

  00030	c3		 ret	 0
?free@MapClass@@QAEXXZ ENDP				; MapClass::free
_TEXT	ENDS
PUBLIC	??1MapClass@@UAE@XZ				; MapClass::~MapClass
; Function compile flags: /Ogtp
; File e:\work\tranet_version\gs\gameserver\mapclass.cpp
;	COMDAT ??1MapClass@@UAE@XZ
_TEXT	SEGMENT
??1MapClass@@UAE@XZ PROC				; MapClass::~MapClass, COMDAT
; _this$ = ecx

; 35   : {

  00000	56		 push	 esi
  00001	8b f1		 mov	 esi, ecx

; 36   : 	this->free();

  00003	8b 46 10	 mov	 eax, DWORD PTR [esi+16]
  00006	c7 06 00 00 00
	00		 mov	 DWORD PTR [esi], OFFSET ??_7MapClass@@6B@
  0000c	85 c0		 test	 eax, eax
  0000e	74 0e		 je	 SHORT $LN5@MapClass
  00010	50		 push	 eax
  00011	ff 15 00 00 00
	00		 call	 DWORD PTR __imp__GlobalFree@4
  00017	c7 46 10 00 00
	00 00		 mov	 DWORD PTR [esi+16], 0
$LN5@MapClass:
  0001e	8b 46 1c	 mov	 eax, DWORD PTR [esi+28]
  00021	85 c0		 test	 eax, eax
  00023	74 10		 je	 SHORT $LN4@MapClass
  00025	50		 push	 eax
  00026	e8 00 00 00 00	 call	 ??3@YAXPAX@Z		; operator delete
  0002b	83 c4 04	 add	 esp, 4
  0002e	c7 46 1c 00 00
	00 00		 mov	 DWORD PTR [esi+28], 0
$LN4@MapClass:

; 37   : }

  00035	68 00 00 00 00	 push	 OFFSET ??1CMapItem@@UAE@XZ ; CMapItem::~CMapItem
  0003a	68 2c 01 00 00	 push	 300			; 0000012cH
  0003f	68 74 04 00 00	 push	 1140			; 00000474H
  00044	83 c6 20	 add	 esi, 32			; 00000020H
  00047	56		 push	 esi
  00048	e8 00 00 00 00	 call	 ??_M@YGXPAXIHP6EX0@Z@Z
  0004d	5e		 pop	 esi
  0004e	c3		 ret	 0
??1MapClass@@UAE@XZ ENDP				; MapClass::~MapClass
_TEXT	ENDS
PUBLIC	?GetLevelPos@MapClass@@QAEXFAAF0@Z		; MapClass::GetLevelPos
EXTRN	__except_handler4:PROC
;	COMDAT xdata$x
xdata$x	SEGMENT
__sehtable$?GetLevelPos@MapClass@@QAEXFAAF0@Z DD 0fffffffeH
	DD	00H
	DD	0ffffffbcH
	DD	00H
	DD	0fffffffeH
	DD	FLAT:$LN8@GetLevelPo
	DD	FLAT:$LN9@GetLevelPo
; Function compile flags: /Ogtp
xdata$x	ENDS
;	COMDAT ?GetLevelPos@MapClass@@QAEXFAAF0@Z
_TEXT	SEGMENT
_y$ = -52						; size = 4
_levelpos$ = -48					; size = 4
_this$ = -44						; size = 4
_loopcount$ = -40					; size = 4
_x$ = -36						; size = 4
_h$ = -32						; size = 4
_w$ = -28						; size = 4
__$SEHRec$ = -24					; size = 24
_level$ = 8						; size = 2
_ox$ = 12						; size = 4
_oy$ = 16						; size = 4
?GetLevelPos@MapClass@@QAEXFAAF0@Z PROC			; MapClass::GetLevelPos, COMDAT
; _this$ = ecx

; 49   : {

  00000	55		 push	 ebp
  00001	8b ec		 mov	 ebp, esp
  00003	6a fe		 push	 -2			; fffffffeH
  00005	68 00 00 00 00	 push	 OFFSET __sehtable$?GetLevelPos@MapClass@@QAEXFAAF0@Z
  0000a	68 00 00 00 00	 push	 OFFSET __except_handler4
  0000f	64 a1 00 00 00
	00		 mov	 eax, DWORD PTR fs:0
  00015	50		 push	 eax
  00016	83 ec 24	 sub	 esp, 36			; 00000024H
  00019	53		 push	 ebx
  0001a	56		 push	 esi
  0001b	57		 push	 edi
  0001c	a1 00 00 00 00	 mov	 eax, DWORD PTR ___security_cookie
  00021	31 45 f8	 xor	 DWORD PTR __$SEHRec$[ebp+16], eax
  00024	33 c5		 xor	 eax, ebp
  00026	50		 push	 eax
  00027	8d 45 f0	 lea	 eax, DWORD PTR __$SEHRec$[ebp+8]
  0002a	64 a3 00 00 00
	00		 mov	 DWORD PTR fs:0, eax
  00030	89 65 e8	 mov	 DWORD PTR __$SEHRec$[ebp], esp
  00033	8b f9		 mov	 edi, ecx
  00035	89 7d d4	 mov	 DWORD PTR _this$[ebp], edi

; 50   : 
; 51   : 	int x;
; 52   : 	int y;
; 53   : 	int levelpos = 0;

  00038	33 db		 xor	 ebx, ebx
  0003a	89 5d d0	 mov	 DWORD PTR _levelpos$[ebp], ebx

; 54   : 	int loopcount = 50;

  0003d	8d 43 32	 lea	 eax, DWORD PTR [ebx+50]
  00040	eb 03		 jmp	 SHORT $LN4@GetLevelPo
$LL13@GetLevelPo:
  00042	8b 45 d8	 mov	 eax, DWORD PTR _loopcount$[ebp]
$LN4@GetLevelPo:

; 55   : 	BYTE attr;
; 56   : 	int w;
; 57   : 	int h;
; 58   : 
; 59   : 	while ( loopcount-- != 0 )

  00045	8b c8		 mov	 ecx, eax
  00047	48		 dec	 eax
  00048	89 45 d8	 mov	 DWORD PTR _loopcount$[ebp], eax
  0004b	85 c9		 test	 ecx, ecx
  0004d	0f 84 c1 00 00
	00		 je	 $LN3@GetLevelPo

; 60   : 	{
; 61   : 		w = this->gRegenRect[levelpos].right - this->gRegenRect[levelpos].left;

  00053	8b f3		 mov	 esi, ebx
  00055	c1 e6 04	 shl	 esi, 4
  00058	03 f7		 add	 esi, edi
  0005a	8b 86 1c 38 05
	00		 mov	 eax, DWORD PTR [esi+342044]
  00060	2b 86 14 38 05
	00		 sub	 eax, DWORD PTR [esi+342036]
  00066	89 45 e4	 mov	 DWORD PTR _w$[ebp], eax

; 62   : 		h = this->gRegenRect[levelpos].bottom - this->gRegenRect[levelpos].top;

  00069	8d 8b 82 53 00
	00		 lea	 ecx, DWORD PTR [ebx+21378]
  0006f	03 c9		 add	 ecx, ecx
  00071	8b 14 cf	 mov	 edx, DWORD PTR [edi+ecx*8]
  00074	2b 96 18 38 05
	00		 sub	 edx, DWORD PTR [esi+342040]
  0007a	89 55 e0	 mov	 DWORD PTR _h$[ebp], edx

; 63   : 
; 64   : 		__try

  0007d	c7 45 fc 00 00
	00 00		 mov	 DWORD PTR __$SEHRec$[ebp+20], 0

; 65   : 		{
; 66   : 			x = (short)(this->gRegenRect[levelpos].left + (rand()%w));

  00084	e8 00 00 00 00	 call	 _rand
  00089	8b 4d e4	 mov	 ecx, DWORD PTR _w$[ebp]
  0008c	99		 cdq
  0008d	f7 f9		 idiv	 ecx
  0008f	66 03 96 14 38
	05 00		 add	 dx, WORD PTR [esi+342036]
  00096	0f bf d2	 movsx	 edx, dx
  00099	89 55 dc	 mov	 DWORD PTR _x$[ebp], edx

; 67   : 			y = (short)(this->gRegenRect[levelpos].top  + (rand()%h));

  0009c	e8 00 00 00 00	 call	 _rand
  000a1	8b 4d e0	 mov	 ecx, DWORD PTR _h$[ebp]
  000a4	99		 cdq
  000a5	f7 f9		 idiv	 ecx
  000a7	66 03 96 18 38
	05 00		 add	 dx, WORD PTR [esi+342040]
  000ae	0f bf f2	 movsx	 esi, dx
  000b1	89 75 cc	 mov	 DWORD PTR _y$[ebp], esi

; 68   : 		}

  000b4	c7 45 fc fe ff
	ff ff		 mov	 DWORD PTR __$SEHRec$[ebp+20], -2 ; fffffffeH
  000bb	eb 1f		 jmp	 SHORT $LN11@GetLevelPo
$LN8@GetLevelPo:
$LN15@GetLevelPo:

; 69   : 		__except(w=1, h=1,1)

  000bd	b8 01 00 00 00	 mov	 eax, 1
  000c2	89 45 e4	 mov	 DWORD PTR _w$[ebp], eax
  000c5	89 45 e0	 mov	 DWORD PTR _h$[ebp], eax
$LN14@GetLevelPo:
$LN10@GetLevelPo:
  000c8	c3		 ret	 0
$LN9@GetLevelPo:
  000c9	8b 65 e8	 mov	 esp, DWORD PTR __$SEHRec$[ebp]

; 70   : 		{
; 71   : 		}

  000cc	c7 45 fc fe ff
	ff ff		 mov	 DWORD PTR __$SEHRec$[ebp+20], -2 ; fffffffeH
  000d3	8b 7d d4	 mov	 edi, DWORD PTR _this$[ebp]
  000d6	8b 5d d0	 mov	 ebx, DWORD PTR _levelpos$[ebp]
  000d9	8b 75 cc	 mov	 esi, DWORD PTR _y$[ebp]
$LN11@GetLevelPo:

; 72   : 
; 73   : 		attr = this->GetAttr(x, y);

  000dc	56		 push	 esi
  000dd	8b 55 dc	 mov	 edx, DWORD PTR _x$[ebp]
  000e0	52		 push	 edx
  000e1	8b cf		 mov	 ecx, edi
  000e3	e8 00 00 00 00	 call	 ?GetAttr@MapClass@@QAEEHH@Z ; MapClass::GetAttr

; 74   : 
; 75   : 		if ( (attr & 4) != 4  && (attr & 8) != 8 ) 

  000e8	a8 0c		 test	 al, 12			; 0000000cH
  000ea	0f 85 52 ff ff
	ff		 jne	 $LL13@GetLevelPo

; 76   : 		{
; 77   : 			ox = x;

  000f0	8b 45 0c	 mov	 eax, DWORD PTR _ox$[ebp]
  000f3	66 8b 4d dc	 mov	 cx, WORD PTR _x$[ebp]
  000f7	66 89 08	 mov	 WORD PTR [eax], cx

; 78   : 			oy = y;

  000fa	8b 55 10	 mov	 edx, DWORD PTR _oy$[ebp]
  000fd	66 89 32	 mov	 WORD PTR [edx], si

; 84   : 	x = this->gRegenRect[levelpos].left;
; 85   : 	y = this->gRegenRect[levelpos].top;
; 86   : }

  00100	8b 4d f0	 mov	 ecx, DWORD PTR __$SEHRec$[ebp+8]
  00103	64 89 0d 00 00
	00 00		 mov	 DWORD PTR fs:0, ecx
  0010a	59		 pop	 ecx
  0010b	5f		 pop	 edi
  0010c	5e		 pop	 esi
  0010d	5b		 pop	 ebx
  0010e	8b e5		 mov	 esp, ebp
  00110	5d		 pop	 ebp
  00111	c2 0c 00	 ret	 12			; 0000000cH
$LN3@GetLevelPo:

; 79   : 			return;
; 80   : 		}
; 81   : 	}
; 82   : 	
; 83   : 	LogAdd( lMsg.Get( MSGGET(1, 204 )) , __FILE__, __LINE__);

  00114	6a 53		 push	 83			; 00000053H
  00116	68 00 00 00 00	 push	 OFFSET ??_C@_0N@OIPODJPN@MapClass?4cpp?$AA@
  0011b	68 cc 01 00 00	 push	 460			; 000001ccH
  00120	b9 00 00 00 00	 mov	 ecx, OFFSET ?lMsg@@3VCMsg@@A ; lMsg
  00125	e8 00 00 00 00	 call	 ?Get@CMsg@@QAEPADH@Z	; CMsg::Get
  0012a	50		 push	 eax
  0012b	ff 15 00 00 00
	00		 call	 DWORD PTR ?LogAdd@@3P6AXPADZZA ; LogAdd
  00131	83 c4 0c	 add	 esp, 12			; 0000000cH

; 84   : 	x = this->gRegenRect[levelpos].left;
; 85   : 	y = this->gRegenRect[levelpos].top;
; 86   : }

  00134	8b 4d f0	 mov	 ecx, DWORD PTR __$SEHRec$[ebp+8]
  00137	64 89 0d 00 00
	00 00		 mov	 DWORD PTR fs:0, ecx
  0013e	59		 pop	 ecx
  0013f	5f		 pop	 edi
  00140	5e		 pop	 esi
  00141	5b		 pop	 ebx
  00142	8b e5		 mov	 esp, ebp
  00144	5d		 pop	 ebp
  00145	c2 0c 00	 ret	 12			; 0000000cH
?GetLevelPos@MapClass@@QAEXFAAF0@Z ENDP			; MapClass::GetLevelPos
_TEXT	ENDS
PUBLIC	?GetRandomLengthPos@MapClass@@QAEXAAF0H@Z	; MapClass::GetRandomLengthPos
; Function compile flags: /Ogtp
;	COMDAT ?GetRandomLengthPos@MapClass@@QAEXAAF0H@Z
_TEXT	SEGMENT
_this$ = -8						; size = 4
_lc$ = -4						; size = 4
_x$ = 8							; size = 4
_y$ = 12						; size = 4
_length$ = 16						; size = 4
?GetRandomLengthPos@MapClass@@QAEXAAF0H@Z PROC		; MapClass::GetRandomLengthPos, COMDAT
; _this$ = ecx

; 89   : {

  00000	55		 push	 ebp
  00001	8b ec		 mov	 ebp, esp
  00003	83 ec 08	 sub	 esp, 8
  00006	53		 push	 ebx

; 90   : 	int lc = 10;
; 91   : 	int px;
; 92   : 	int py;
; 93   : 	BYTE attr;
; 94   : 	int maxlen;
; 95   : 
; 96   : 	if ( length < 1 )

  00007	8b 5d 10	 mov	 ebx, DWORD PTR _length$[ebp]
  0000a	56		 push	 esi
  0000b	57		 push	 edi
  0000c	89 4d f8	 mov	 DWORD PTR _this$[ebp], ecx
  0000f	c7 45 fc 0a 00
	00 00		 mov	 DWORD PTR _lc$[ebp], 10	; 0000000aH
  00016	83 fb 01	 cmp	 ebx, 1
  00019	7d 05		 jge	 SHORT $LL3@GetRandomL

; 97   : 	{
; 98   : 		length = 1;

  0001b	bb 01 00 00 00	 mov	 ebx, 1
$LL3@GetRandomL:

; 99   : 	}
; 100  : 
; 101  : 	maxlen = length*2;
; 102  : 
; 103  : 	while ( lc-- != 0 )

  00020	ff 4d fc	 dec	 DWORD PTR _lc$[ebp]

; 104  : 	{
; 105  : 		px = (x-length)+(rand()%maxlen);

  00023	e8 00 00 00 00	 call	 _rand
  00028	99		 cdq
  00029	8d 3c 1b	 lea	 edi, DWORD PTR [ebx+ebx]
  0002c	f7 ff		 idiv	 edi
  0002e	8b 45 08	 mov	 eax, DWORD PTR _x$[ebp]
  00031	0f bf 30	 movsx	 esi, WORD PTR [eax]
  00034	03 f2		 add	 esi, edx
  00036	2b f3		 sub	 esi, ebx

; 106  : 		py = (y-length)+(rand()%maxlen);

  00038	e8 00 00 00 00	 call	 _rand
  0003d	99		 cdq
  0003e	f7 ff		 idiv	 edi

; 107  : 
; 108  : 		attr = this->GetAttr(px, py);

  00040	8b 4d f8	 mov	 ecx, DWORD PTR _this$[ebp]
  00043	8b fa		 mov	 edi, edx
  00045	8b 55 0c	 mov	 edx, DWORD PTR _y$[ebp]
  00048	0f bf 02	 movsx	 eax, WORD PTR [edx]
  0004b	03 f8		 add	 edi, eax
  0004d	2b fb		 sub	 edi, ebx
  0004f	57		 push	 edi
  00050	56		 push	 esi
  00051	e8 00 00 00 00	 call	 ?GetAttr@MapClass@@QAEEHH@Z ; MapClass::GetAttr

; 109  : 
; 110  : 		if ( (attr & 4) != 4  && (attr & 8) != 8 )

  00056	a8 0c		 test	 al, 12			; 0000000cH
  00058	74 0f		 je	 SHORT $LN8@GetRandomL

; 99   : 	}
; 100  : 
; 101  : 	maxlen = length*2;
; 102  : 
; 103  : 	while ( lc-- != 0 )

  0005a	83 7d fc 00	 cmp	 DWORD PTR _lc$[ebp], 0
  0005e	75 c0		 jne	 SHORT $LL3@GetRandomL
  00060	5f		 pop	 edi
  00061	5e		 pop	 esi
  00062	5b		 pop	 ebx

; 114  : 			return;
; 115  : 		}
; 116  : 	}
; 117  : }

  00063	8b e5		 mov	 esp, ebp
  00065	5d		 pop	 ebp
  00066	c2 0c 00	 ret	 12			; 0000000cH
$LN8@GetRandomL:

; 111  : 		{
; 112  : 			x = px;

  00069	8b 4d 08	 mov	 ecx, DWORD PTR _x$[ebp]

; 113  : 			y = py;

  0006c	8b 55 0c	 mov	 edx, DWORD PTR _y$[ebp]
  0006f	66 89 31	 mov	 WORD PTR [ecx], si
  00072	66 89 3a	 mov	 WORD PTR [edx], di
  00075	5f		 pop	 edi
  00076	5e		 pop	 esi
  00077	5b		 pop	 ebx

; 114  : 			return;
; 115  : 		}
; 116  : 	}
; 117  : }

  00078	8b e5		 mov	 esp, ebp
  0007a	5d		 pop	 ebp
  0007b	c2 0c 00	 ret	 12			; 0000000cH
?GetRandomLengthPos@MapClass@@QAEXAAF0H@Z ENDP		; MapClass::GetRandomLengthPos
_TEXT	ENDS
PUBLIC	?GetMapPos@MapClass@@QAEXFAAF0@Z		; MapClass::GetMapPos
;	COMDAT xdata$x
xdata$x	SEGMENT
__sehtable$?GetMapPos@MapClass@@QAEXFAAF0@Z DD 0fffffffeH
	DD	00H
	DD	0ffffffc0H
	DD	00H
	DD	0fffffffeH
	DD	FLAT:$LN16@GetMapPos
	DD	FLAT:$LN17@GetMapPos
; Function compile flags: /Ogtp
xdata$x	ENDS
;	COMDAT ?GetMapPos@MapClass@@QAEXFAAF0@Z
_TEXT	SEGMENT
_x$ = -48						; size = 4
_y$ = -44						; size = 4
_levelpos$ = -40					; size = 4
_this$ = -36						; size = 4
_h$ = -32						; size = 4
_w$ = -28						; size = 4
__$SEHRec$ = -24					; size = 24
_Map$ = 8						; size = 2
_loopcount$ = 8						; size = 4
_ox$ = 12						; size = 4
_oy$ = 16						; size = 4
?GetMapPos@MapClass@@QAEXFAAF0@Z PROC			; MapClass::GetMapPos, COMDAT
; _this$ = ecx

; 120  : {

  00000	55		 push	 ebp
  00001	8b ec		 mov	 ebp, esp
  00003	6a fe		 push	 -2			; fffffffeH
  00005	68 00 00 00 00	 push	 OFFSET __sehtable$?GetMapPos@MapClass@@QAEXFAAF0@Z
  0000a	68 00 00 00 00	 push	 OFFSET __except_handler4
  0000f	64 a1 00 00 00
	00		 mov	 eax, DWORD PTR fs:0
  00015	50		 push	 eax
  00016	83 ec 20	 sub	 esp, 32			; 00000020H
  00019	53		 push	 ebx
  0001a	56		 push	 esi
  0001b	57		 push	 edi
  0001c	a1 00 00 00 00	 mov	 eax, DWORD PTR ___security_cookie
  00021	31 45 f8	 xor	 DWORD PTR __$SEHRec$[ebp+16], eax
  00024	33 c5		 xor	 eax, ebp
  00026	50		 push	 eax
  00027	8d 45 f0	 lea	 eax, DWORD PTR __$SEHRec$[ebp+8]
  0002a	64 a3 00 00 00
	00		 mov	 DWORD PTR fs:0, eax
  00030	89 65 e8	 mov	 DWORD PTR __$SEHRec$[ebp], esp
  00033	89 4d dc	 mov	 DWORD PTR _this$[ebp], ecx

; 121  : 	if ( Map != 8 )

  00036	8b 45 08	 mov	 eax, DWORD PTR _Map$[ebp]
  00039	66 83 f8 08	 cmp	 ax, 8
  0003d	74 56		 je	 SHORT $LN5@GetMapPos

; 122  : 	{
; 123  : 		if ( Map == 33 )

  0003f	66 83 f8 21	 cmp	 ax, 33			; 00000021H
  00043	75 12		 jne	 SHORT $LN11@GetMapPos

; 124  : 		{
; 125  : 			Map = 33;

  00045	b8 21 00 00 00	 mov	 eax, 33			; 00000021H

; 138  : 		}
; 139  : 	}
; 140  : 
; 141  : 	int x;
; 142  : 	int y;
; 143  : 	int levelpos = Map;

  0004a	0f bf d8	 movsx	 ebx, ax
  0004d	89 5d d8	 mov	 DWORD PTR _levelpos$[ebp], ebx

; 144  : 	int loopcount=50;

  00050	b8 32 00 00 00	 mov	 eax, 50			; 00000032H
  00055	eb 4e		 jmp	 SHORT $LN4@GetMapPos
$LN11@GetMapPos:

; 126  : 		}
; 127  : 		else if ( Map == 34 )

  00057	66 83 f8 22	 cmp	 ax, 34			; 00000022H
  0005b	75 12		 jne	 SHORT $LN9@GetMapPos

; 128  : 		{
; 129  : 			Map = 34;

  0005d	b8 22 00 00 00	 mov	 eax, 34			; 00000022H

; 138  : 		}
; 139  : 	}
; 140  : 
; 141  : 	int x;
; 142  : 	int y;
; 143  : 	int levelpos = Map;

  00062	0f bf d8	 movsx	 ebx, ax
  00065	89 5d d8	 mov	 DWORD PTR _levelpos$[ebp], ebx

; 144  : 	int loopcount=50;

  00068	b8 32 00 00 00	 mov	 eax, 50			; 00000032H
  0006d	eb 36		 jmp	 SHORT $LN4@GetMapPos
$LN9@GetMapPos:

; 130  : 		}
; 131  : 		else if ( Map == 51 )

  0006f	66 83 f8 33	 cmp	 ax, 51			; 00000033H
  00073	75 12		 jne	 SHORT $LN7@GetMapPos

; 132  : 		{
; 133  : 			Map = 51;

  00075	b8 33 00 00 00	 mov	 eax, 51			; 00000033H

; 138  : 		}
; 139  : 	}
; 140  : 
; 141  : 	int x;
; 142  : 	int y;
; 143  : 	int levelpos = Map;

  0007a	0f bf d8	 movsx	 ebx, ax
  0007d	89 5d d8	 mov	 DWORD PTR _levelpos$[ebp], ebx

; 144  : 	int loopcount=50;

  00080	b8 32 00 00 00	 mov	 eax, 50			; 00000032H
  00085	eb 1e		 jmp	 SHORT $LN4@GetMapPos
$LN7@GetMapPos:

; 134  : 		}
; 135  : 		else if ( Map > 4 && Map != 7 )

  00087	66 83 f8 04	 cmp	 ax, 4
  0008b	7e 08		 jle	 SHORT $LN5@GetMapPos
  0008d	66 83 f8 07	 cmp	 ax, 7
  00091	74 02		 je	 SHORT $LN5@GetMapPos

; 136  : 		{
; 137  : 			Map = 0;

  00093	33 c0		 xor	 eax, eax
$LN5@GetMapPos:

; 138  : 		}
; 139  : 	}
; 140  : 
; 141  : 	int x;
; 142  : 	int y;
; 143  : 	int levelpos = Map;

  00095	0f bf d8	 movsx	 ebx, ax
  00098	89 5d d8	 mov	 DWORD PTR _levelpos$[ebp], ebx

; 144  : 	int loopcount=50;

  0009b	b8 32 00 00 00	 mov	 eax, 50			; 00000032H
  000a0	eb 03		 jmp	 SHORT $LN4@GetMapPos
$LL22@GetMapPos:
  000a2	8b 45 08	 mov	 eax, DWORD PTR _loopcount$[ebp]
$LN4@GetMapPos:

; 145  : 	BYTE attr;
; 146  : 	int w;
; 147  : 	int h;
; 148  : 
; 149  : 	while ( loopcount-- != 0 )

  000a5	8b d0		 mov	 edx, eax
  000a7	48		 dec	 eax
  000a8	89 45 08	 mov	 DWORD PTR _loopcount$[ebp], eax
  000ab	85 d2		 test	 edx, edx
  000ad	0f 84 bb 00 00
	00		 je	 $LN3@GetMapPos

; 150  : 	{
; 151  : 		w = this->gRegenRect[levelpos].right - this->gRegenRect[levelpos].left;

  000b3	8b f3		 mov	 esi, ebx
  000b5	c1 e6 04	 shl	 esi, 4
  000b8	03 f1		 add	 esi, ecx
  000ba	8b 96 1c 38 05
	00		 mov	 edx, DWORD PTR [esi+342044]
  000c0	2b 96 14 38 05
	00		 sub	 edx, DWORD PTR [esi+342036]
  000c6	89 55 e4	 mov	 DWORD PTR _w$[ebp], edx

; 152  : 		h = this->gRegenRect[levelpos].bottom - this->gRegenRect[levelpos].top;

  000c9	8d 83 82 53 00
	00		 lea	 eax, DWORD PTR [ebx+21378]
  000cf	03 c0		 add	 eax, eax
  000d1	8b 0c c1	 mov	 ecx, DWORD PTR [ecx+eax*8]
  000d4	2b 8e 18 38 05
	00		 sub	 ecx, DWORD PTR [esi+342040]
  000da	89 4d e0	 mov	 DWORD PTR _h$[ebp], ecx

; 153  : 
; 154  : 		__try

  000dd	c7 45 fc 00 00
	00 00		 mov	 DWORD PTR __$SEHRec$[ebp+20], 0

; 155  : 		{
; 156  : 			x = (short)(this->gRegenRect[levelpos].left + (rand()%w));

  000e4	e8 00 00 00 00	 call	 _rand
  000e9	8b 4d e4	 mov	 ecx, DWORD PTR _w$[ebp]
  000ec	99		 cdq
  000ed	f7 f9		 idiv	 ecx
  000ef	66 03 96 14 38
	05 00		 add	 dx, WORD PTR [esi+342036]
  000f6	0f bf d2	 movsx	 edx, dx
  000f9	89 55 d0	 mov	 DWORD PTR _x$[ebp], edx

; 157  : 			y = (short)(this->gRegenRect[levelpos].top  + (rand()%h));

  000fc	e8 00 00 00 00	 call	 _rand
  00101	8b 4d e0	 mov	 ecx, DWORD PTR _h$[ebp]
  00104	99		 cdq
  00105	f7 f9		 idiv	 ecx
  00107	66 03 96 18 38
	05 00		 add	 dx, WORD PTR [esi+342040]
  0010e	0f bf f2	 movsx	 esi, dx
  00111	89 75 d4	 mov	 DWORD PTR _y$[ebp], esi

; 158  : 		}

  00114	c7 45 fc fe ff
	ff ff		 mov	 DWORD PTR __$SEHRec$[ebp+20], -2 ; fffffffeH
  0011b	eb 1c		 jmp	 SHORT $LN19@GetMapPos
$LN16@GetMapPos:
$LN24@GetMapPos:

; 159  : 		__except(w=1,h=1,1)

  0011d	b8 01 00 00 00	 mov	 eax, 1
  00122	89 45 e4	 mov	 DWORD PTR _w$[ebp], eax
  00125	89 45 e0	 mov	 DWORD PTR _h$[ebp], eax
$LN23@GetMapPos:
$LN18@GetMapPos:
  00128	c3		 ret	 0
$LN17@GetMapPos:
  00129	8b 65 e8	 mov	 esp, DWORD PTR __$SEHRec$[ebp]

; 160  : 		{
; 161  : 		}

  0012c	c7 45 fc fe ff
	ff ff		 mov	 DWORD PTR __$SEHRec$[ebp+20], -2 ; fffffffeH
  00133	8b 5d d8	 mov	 ebx, DWORD PTR _levelpos$[ebp]
  00136	8b 75 d4	 mov	 esi, DWORD PTR _y$[ebp]
$LN19@GetMapPos:

; 162  : 		attr = this->GetAttr(x, y);

  00139	56		 push	 esi
  0013a	8b 7d d0	 mov	 edi, DWORD PTR _x$[ebp]
  0013d	57		 push	 edi
  0013e	8b 4d dc	 mov	 ecx, DWORD PTR _this$[ebp]
  00141	e8 00 00 00 00	 call	 ?GetAttr@MapClass@@QAEEHH@Z ; MapClass::GetAttr

; 163  : 
; 164  : 		if ( (attr & 4) != 4  && (attr & 8) != 8 )

  00146	a8 0c		 test	 al, 12			; 0000000cH
  00148	0f 85 54 ff ff
	ff		 jne	 $LL22@GetMapPos

; 165  : 		{
; 166  : 			ox = x;

  0014e	8b 55 0c	 mov	 edx, DWORD PTR _ox$[ebp]
  00151	66 89 3a	 mov	 WORD PTR [edx], di

; 167  : 			oy = y;

  00154	8b 45 10	 mov	 eax, DWORD PTR _oy$[ebp]
  00157	66 89 30	 mov	 WORD PTR [eax], si

; 173  : 	x = this->gRegenRect[levelpos].left;
; 174  : 	y = this->gRegenRect[levelpos].top;
; 175  : }

  0015a	8b 4d f0	 mov	 ecx, DWORD PTR __$SEHRec$[ebp+8]
  0015d	64 89 0d 00 00
	00 00		 mov	 DWORD PTR fs:0, ecx
  00164	59		 pop	 ecx
  00165	5f		 pop	 edi
  00166	5e		 pop	 esi
  00167	5b		 pop	 ebx
  00168	8b e5		 mov	 esp, ebp
  0016a	5d		 pop	 ebp
  0016b	c2 0c 00	 ret	 12			; 0000000cH
$LN3@GetMapPos:

; 168  : 			return;
; 169  : 		}
; 170  : 	}
; 171  : 				
; 172  : 	LogAdd( lMsg.Get( MSGGET(1, 204 )) , __FILE__, __LINE__);

  0016e	68 ac 00 00 00	 push	 172			; 000000acH
  00173	68 00 00 00 00	 push	 OFFSET ??_C@_0N@OIPODJPN@MapClass?4cpp?$AA@
  00178	68 cc 01 00 00	 push	 460			; 000001ccH
  0017d	b9 00 00 00 00	 mov	 ecx, OFFSET ?lMsg@@3VCMsg@@A ; lMsg
  00182	e8 00 00 00 00	 call	 ?Get@CMsg@@QAEPADH@Z	; CMsg::Get
  00187	50		 push	 eax
  00188	ff 15 00 00 00
	00		 call	 DWORD PTR ?LogAdd@@3P6AXPADZZA ; LogAdd
  0018e	83 c4 0c	 add	 esp, 12			; 0000000cH

; 173  : 	x = this->gRegenRect[levelpos].left;
; 174  : 	y = this->gRegenRect[levelpos].top;
; 175  : }

  00191	8b 4d f0	 mov	 ecx, DWORD PTR __$SEHRec$[ebp+8]
  00194	64 89 0d 00 00
	00 00		 mov	 DWORD PTR fs:0, ecx
  0019b	59		 pop	 ecx
  0019c	5f		 pop	 edi
  0019d	5e		 pop	 esi
  0019e	5b		 pop	 ebx
  0019f	8b e5		 mov	 esp, ebp
  001a1	5d		 pop	 ebp
  001a2	c2 0c 00	 ret	 12			; 0000000cH
?GetMapPos@MapClass@@QAEXFAAF0@Z ENDP			; MapClass::GetMapPos
_TEXT	ENDS
PUBLIC	?LoadMapAttr@MapClass@@QAEXPADH@Z		; MapClass::LoadMapAttr
; Function compile flags: /Ogtp
;	COMDAT ?LoadMapAttr@MapClass@@QAEXPADH@Z
_TEXT	SEGMENT
_filename$ = 8						; size = 4
_MapNumber$ = 12					; size = 4
?LoadMapAttr@MapClass@@QAEXPADH@Z PROC			; MapClass::LoadMapAttr, COMDAT
; _this$ = ecx

; 178  : {

  00000	55		 push	 ebp
  00001	8b ec		 mov	 ebp, esp

; 179  : 	if (this->AttrLoad(filename) == FALSE )

  00003	8b 45 08	 mov	 eax, DWORD PTR _filename$[ebp]
  00006	56		 push	 esi
  00007	50		 push	 eax
  00008	8b f1		 mov	 esi, ecx
  0000a	e8 00 00 00 00	 call	 ?AttrLoad@MapClass@@QAEHPAD@Z ; MapClass::AttrLoad
  0000f	85 c0		 test	 eax, eax
  00011	75 26		 jne	 SHORT $LN4@LoadMapAtt

; 180  : 	{
; 181  : 		MsgBox( lMsg.Get( MSGGET ( 2, 52 )));

  00013	68 34 02 00 00	 push	 564			; 00000234H
  00018	b9 00 00 00 00	 mov	 ecx, OFFSET ?lMsg@@3VCMsg@@A ; lMsg
  0001d	e8 00 00 00 00	 call	 ?Get@CMsg@@QAEPADH@Z	; CMsg::Get
  00022	50		 push	 eax
  00023	e8 00 00 00 00	 call	 ?MsgBox@@YAXPADZZ	; MsgBox

; 182  : 	}
; 183  : 
; 184  : 	this->thisMapNumber = MapNumber;

  00028	8b 4d 0c	 mov	 ecx, DWORD PTR _MapNumber$[ebp]
  0002b	83 c4 04	 add	 esp, 4
  0002e	89 8e 44 3d 05
	00		 mov	 DWORD PTR [esi+343364], ecx
  00034	5e		 pop	 esi

; 185  : }

  00035	5d		 pop	 ebp
  00036	c2 08 00	 ret	 8
$LN4@LoadMapAtt:

; 182  : 	}
; 183  : 
; 184  : 	this->thisMapNumber = MapNumber;

  00039	8b 55 0c	 mov	 edx, DWORD PTR _MapNumber$[ebp]
  0003c	89 96 44 3d 05
	00		 mov	 DWORD PTR [esi+343364], edx
  00042	5e		 pop	 esi

; 185  : }

  00043	5d		 pop	 ebp
  00044	c2 08 00	 ret	 8
?LoadMapAttr@MapClass@@QAEXPADH@Z ENDP			; MapClass::LoadMapAttr
_TEXT	ENDS
PUBLIC	?MonsterItemDrop@MapClass@@QAEHHHMHHEEEEEHKEQAEE@Z ; MapClass::MonsterItemDrop
EXTRN	?CreateItem@CMapItem@@QAEXHHHHMEEEEEKEQAEE@Z:PROC ; CMapItem::CreateItem
; Function compile flags: /Ogtp
;	COMDAT ?MonsterItemDrop@MapClass@@QAEHHHMHHEEEEEHKEQAEE@Z
_TEXT	SEGMENT
_type$ = 8						; size = 4
_level$ = 12						; size = 4
_dur$ = 16						; size = 4
_x$ = 20						; size = 4
_y$ = 24						; size = 4
_Option1$ = 28						; size = 1
_Option2$ = 32						; size = 1
_Option3$ = 36						; size = 1
_NOption$ = 40						; size = 1
_SOption$ = 44						; size = 1
_aIndex$ = 48						; size = 4
_number$ = 52						; size = 4
_ItemEffectEx$ = 56					; size = 1
_SocketOption$ = 60					; size = 4
_SocketIndex$ = 64					; size = 1
?MonsterItemDrop@MapClass@@QAEHHHMHHEEEEEHKEQAEE@Z PROC	; MapClass::MonsterItemDrop, COMDAT
; _this$ = ecx

; 254  : {

  00000	55		 push	 ebp
  00001	8b ec		 mov	 ebp, esp

; 255  : 	int count;
; 256  : 	int counttot=0;
; 257  : 	BYTE attr = this->GetAttr(x, y);

  00003	8b 45 18	 mov	 eax, DWORD PTR _y$[ebp]
  00006	53		 push	 ebx
  00007	56		 push	 esi
  00008	8b f1		 mov	 esi, ecx
  0000a	8b 4d 14	 mov	 ecx, DWORD PTR _x$[ebp]
  0000d	50		 push	 eax
  0000e	51		 push	 ecx
  0000f	8b ce		 mov	 ecx, esi
  00011	33 db		 xor	 ebx, ebx
  00013	e8 00 00 00 00	 call	 ?GetAttr@MapClass@@QAEEHH@Z ; MapClass::GetAttr

; 258  : 
; 259  : 	if ( (attr & 4) == 4  || (attr & 8) == 8 )

  00018	a8 0c		 test	 al, 12			; 0000000cH
  0001a	0f 85 f5 00 00
	00		 jne	 $LN7@MonsterIte

; 262  : 	}
; 263  : 	count = this->m_ItemCount;

  00020	57		 push	 edi
  00021	8b be 10 38 05
	00		 mov	 edi, DWORD PTR [esi+342032]

; 264  : 
; 265  : 	while ( true )
; 266  : 	{
; 267  : 		if ( this->m_cItem[count].IsItem() == FALSE )

  00027	8b d7		 mov	 edx, edi
  00029	69 d2 74 04 00
	00		 imul	 edx, 1140		; 00000474H
  0002f	8d 4c 32 24	 lea	 ecx, DWORD PTR [edx+esi+36]
  00033	e8 00 00 00 00	 call	 ?IsItem@CItem@@QAEHXZ	; CItem::IsItem
  00038	85 c0		 test	 eax, eax
  0003a	74 31		 je	 SHORT $LN12@MonsterIte
  0003c	8d 64 24 00	 npad	 4
$LL6@MonsterIte:

; 279  : 
; 280  : 		}
; 281  : 
; 282  : 		count++;

  00040	47		 inc	 edi

; 283  : 
; 284  : 		if ( count > MAX_MAPITEM-1 )

  00041	81 ff 2b 01 00
	00		 cmp	 edi, 299		; 0000012bH
  00047	7e 02		 jle	 SHORT $LN2@MonsterIte

; 285  : 		{
; 286  : 			count = 0;

  00049	33 ff		 xor	 edi, edi
$LN2@MonsterIte:

; 287  : 		}
; 288  : 
; 289  : 		counttot++;

  0004b	43		 inc	 ebx

; 290  : 
; 291  : 		if ( counttot > MAX_MAPITEM-1 )

  0004c	81 fb 2b 01 00
	00		 cmp	 ebx, 299		; 0000012bH
  00052	0f 8f 90 00 00
	00		 jg	 $LN13@MonsterIte

; 264  : 
; 265  : 	while ( true )
; 266  : 	{
; 267  : 		if ( this->m_cItem[count].IsItem() == FALSE )

  00058	8b c7		 mov	 eax, edi
  0005a	69 c0 74 04 00
	00		 imul	 eax, 1140		; 00000474H
  00060	8d 4c 30 24	 lea	 ecx, DWORD PTR [eax+esi+36]
  00064	e8 00 00 00 00	 call	 ?IsItem@CItem@@QAEHXZ	; CItem::IsItem
  00069	85 c0		 test	 eax, eax
  0006b	75 d3		 jne	 SHORT $LL6@MonsterIte
$LN12@MonsterIte:

; 268  : 		{
; 269  : 			this->m_cItem[count].CreateItem(type, level, x, y, dur, Option1, Option2, Option3, NOption, SOption, number, ItemEffectEx,SocketOption,SocketIndex);

  0006d	8b 55 40	 mov	 edx, DWORD PTR _SocketIndex$[ebp]
  00070	d9 45 10	 fld	 DWORD PTR _dur$[ebp]
  00073	8b 45 3c	 mov	 eax, DWORD PTR _SocketOption$[ebp]
  00076	8b 4d 38	 mov	 ecx, DWORD PTR _ItemEffectEx$[ebp]
  00079	52		 push	 edx
  0007a	8b 55 34	 mov	 edx, DWORD PTR _number$[ebp]
  0007d	50		 push	 eax
  0007e	8b 45 2c	 mov	 eax, DWORD PTR _SOption$[ebp]
  00081	51		 push	 ecx
  00082	8b 4d 28	 mov	 ecx, DWORD PTR _NOption$[ebp]
  00085	52		 push	 edx
  00086	8b 55 24	 mov	 edx, DWORD PTR _Option3$[ebp]
  00089	50		 push	 eax
  0008a	8b 45 20	 mov	 eax, DWORD PTR _Option2$[ebp]
  0008d	51		 push	 ecx
  0008e	8b 4d 1c	 mov	 ecx, DWORD PTR _Option1$[ebp]
  00091	52		 push	 edx
  00092	8b 55 18	 mov	 edx, DWORD PTR _y$[ebp]
  00095	50		 push	 eax
  00096	8b 45 14	 mov	 eax, DWORD PTR _x$[ebp]
  00099	51		 push	 ecx
  0009a	51		 push	 ecx
  0009b	8b 4d 0c	 mov	 ecx, DWORD PTR _level$[ebp]
  0009e	d9 1c 24	 fstp	 DWORD PTR [esp]
  000a1	8b df		 mov	 ebx, edi
  000a3	69 db 74 04 00
	00		 imul	 ebx, 1140		; 00000474H
  000a9	52		 push	 edx
  000aa	8b 55 08	 mov	 edx, DWORD PTR _type$[ebp]
  000ad	50		 push	 eax
  000ae	51		 push	 ecx
  000af	52		 push	 edx
  000b0	8d 4c 33 20	 lea	 ecx, DWORD PTR [ebx+esi+32]
  000b4	e8 00 00 00 00	 call	 ?CreateItem@CMapItem@@QAEXHHHHMEEEEEKEQAEE@Z ; CMapItem::CreateItem

; 270  : 			this->m_cItem[count].m_UserIndex = aIndex;

  000b9	8b 45 30	 mov	 eax, DWORD PTR _aIndex$[ebp]
  000bc	89 84 33 04 01
	00 00		 mov	 DWORD PTR [ebx+esi+260], eax

; 271  : 			this->m_ItemCount++;

  000c3	ff 86 10 38 05
	00		 inc	 DWORD PTR [esi+342032]

; 272  : 
; 273  : 			if ( this->m_ItemCount > MAX_MAPITEM-1 )

  000c9	81 be 10 38 05
	00 2b 01 00 00	 cmp	 DWORD PTR [esi+342032], 299 ; 0000012bH
  000d3	7e 0a		 jle	 SHORT $LN3@MonsterIte

; 274  : 			{
; 275  : 				this->m_ItemCount = 0;

  000d5	c7 86 10 38 05
	00 00 00 00 00	 mov	 DWORD PTR [esi+342032], 0
$LN3@MonsterIte:

; 276  : 			}
; 277  : 
; 278  : 			return count;

  000df	8b c7		 mov	 eax, edi
  000e1	5f		 pop	 edi
  000e2	5e		 pop	 esi
  000e3	5b		 pop	 ebx

; 300  : }

  000e4	5d		 pop	 ebp
  000e5	c2 3c 00	 ret	 60			; 0000003cH
$LN13@MonsterIte:

; 292  : 		{
; 293  : 			break;
; 294  : 		}
; 295  : 	}
; 296  : 
; 297  : 	LogAdd(lMsg.Get(MSGGET(1, 205)), __FILE__, __LINE__ );

  000e8	68 29 01 00 00	 push	 297			; 00000129H
  000ed	68 00 00 00 00	 push	 OFFSET ??_C@_0N@OIPODJPN@MapClass?4cpp?$AA@
  000f2	68 cd 01 00 00	 push	 461			; 000001cdH
  000f7	b9 00 00 00 00	 mov	 ecx, OFFSET ?lMsg@@3VCMsg@@A ; lMsg
  000fc	e8 00 00 00 00	 call	 ?Get@CMsg@@QAEPADH@Z	; CMsg::Get
  00101	50		 push	 eax
  00102	ff 15 00 00 00
	00		 call	 DWORD PTR ?LogAdd@@3P6AXPADZZA ; LogAdd
  00108	83 c4 0c	 add	 esp, 12			; 0000000cH
  0010b	5f		 pop	 edi
  0010c	5e		 pop	 esi

; 298  : 
; 299  : 	return -1;

  0010d	83 c8 ff	 or	 eax, -1
  00110	5b		 pop	 ebx

; 300  : }

  00111	5d		 pop	 ebp
  00112	c2 3c 00	 ret	 60			; 0000003cH
$LN7@MonsterIte:
  00115	5e		 pop	 esi

; 260  : 	{
; 261  : 		return -1;

  00116	83 c8 ff	 or	 eax, -1
  00119	5b		 pop	 ebx

; 300  : }

  0011a	5d		 pop	 ebp
  0011b	c2 3c 00	 ret	 60			; 0000003cH
?MonsterItemDrop@MapClass@@QAEHHHMHHEEEEEHKEQAEE@Z ENDP	; MapClass::MonsterItemDrop
_TEXT	ENDS
PUBLIC	??_C@_0EL@BKCBEOOI@?$FLBlood?5Castle?$FN?5?$CI?$CFd?$CJ?5?$CIAccount?3?$CFs?0@ ; `string'
PUBLIC	?ItemDrop@MapClass@@QAEHHHMHHEEEEEKHHHEQAEE@Z	; MapClass::ItemDrop
EXTRN	?GetBridgeIndex@CBloodCastle@@QAEHH@Z:PROC	; CBloodCastle::GetBridgeIndex
EXTRN	?g_BloodCastle@@3VCBloodCastle@@A:BYTE		; g_BloodCastle
EXTRN	?DropCreateItem@CMapItem@@QAEXHHHHMEEEEEKHHEQAEE@Z:PROC ; CMapItem::DropCreateItem
;	COMDAT ??_C@_0EL@BKCBEOOI@?$FLBlood?5Castle?$FN?5?$CI?$CFd?$CJ?5?$CIAccount?3?$CFs?0@
CONST	SEGMENT
??_C@_0EL@BKCBEOOI@?$FLBlood?5Castle?$FN?5?$CI?$CFd?$CJ?5?$CIAccount?3?$CFs?0@ DB '['
	DB	'Blood Castle] (%d) (Account:%s, Name:%s) Dropped Angel King'''
	DB	's Weapon (%d)', 00H				; `string'
; Function compile flags: /Ogtp
CONST	ENDS
;	COMDAT ?ItemDrop@MapClass@@QAEHHHMHHEEEEEKHHHEQAEE@Z
_TEXT	SEGMENT
_type$ = 8						; size = 4
_level$ = 12						; size = 4
_dur$ = 16						; size = 4
_x$ = 20						; size = 4
_y$ = 24						; size = 4
_Option1$ = 28						; size = 1
_Option2$ = 32						; size = 1
_Option3$ = 36						; size = 1
_NOption$ = 40						; size = 1
_SOption$ = 44						; size = 1
_number$ = 48						; size = 4
_aIndex$ = 52						; size = 4
_PetLevel$ = 56						; size = 4
_PetExp$ = 60						; size = 4
_ItemEffectEx$ = 64					; size = 1
_SocketOption$ = 68					; size = 4
_SocketIndex$ = 72					; size = 1
?ItemDrop@MapClass@@QAEHHHMHHEEEEEKHHHEQAEE@Z PROC	; MapClass::ItemDrop, COMDAT
; _this$ = ecx

; 303  : {

  00000	55		 push	 ebp
  00001	8b ec		 mov	 ebp, esp

; 304  : 	int count;
; 305  : 	int counttot = 0;
; 306  : 	BYTE attr = this->GetAttr(x, y);

  00003	8b 45 18	 mov	 eax, DWORD PTR _y$[ebp]
  00006	53		 push	 ebx
  00007	56		 push	 esi
  00008	8b f1		 mov	 esi, ecx
  0000a	8b 4d 14	 mov	 ecx, DWORD PTR _x$[ebp]
  0000d	50		 push	 eax
  0000e	51		 push	 ecx
  0000f	8b ce		 mov	 ecx, esi
  00011	33 db		 xor	 ebx, ebx
  00013	e8 00 00 00 00	 call	 ?GetAttr@MapClass@@QAEEHH@Z ; MapClass::GetAttr

; 307  : 
; 308  : 	if ( (attr&4) == 4 || (attr&8) == 8 )

  00018	a8 0c		 test	 al, 12			; 0000000cH
  0001a	0f 85 82 01 00
	00		 jne	 $LN13@ItemDrop

; 311  : 	}
; 312  : 
; 313  : 	count = this->m_ItemCount;

  00020	57		 push	 edi
  00021	8b be 10 38 05
	00		 mov	 edi, DWORD PTR [esi+342032]

; 314  : 
; 315  : 	while ( true )
; 316  : 	{
; 317  : 		if ( this->m_cItem[count].IsItem() == FALSE )

  00027	8b d7		 mov	 edx, edi
  00029	69 d2 74 04 00
	00		 imul	 edx, 1140		; 00000474H
  0002f	8d 4c 32 24	 lea	 ecx, DWORD PTR [edx+esi+36]
  00033	e8 00 00 00 00	 call	 ?IsItem@CItem@@QAEHXZ	; CItem::IsItem
  00038	85 c0		 test	 eax, eax
  0003a	74 31		 je	 SHORT $LN24@ItemDrop
  0003c	8d 64 24 00	 npad	 4
$LL12@ItemDrop:

; 358  : 		}
; 359  : 
; 360  : 		count++;

  00040	47		 inc	 edi

; 361  : 
; 362  : 		if ( count > MAX_MAPITEM-1 )

  00041	81 ff 2b 01 00
	00		 cmp	 edi, 299		; 0000012bH
  00047	7e 02		 jle	 SHORT $LN2@ItemDrop

; 363  : 		{
; 364  : 			count = 0;

  00049	33 ff		 xor	 edi, edi
$LN2@ItemDrop:

; 365  : 		}
; 366  : 
; 367  : 		counttot++;

  0004b	43		 inc	 ebx

; 368  : 
; 369  : 		if ( counttot > MAX_MAPITEM-1 )

  0004c	81 fb 2b 01 00
	00		 cmp	 ebx, 299		; 0000012bH
  00052	0f 8f 41 01 00
	00		 jg	 $LN25@ItemDrop

; 314  : 
; 315  : 	while ( true )
; 316  : 	{
; 317  : 		if ( this->m_cItem[count].IsItem() == FALSE )

  00058	8b c7		 mov	 eax, edi
  0005a	69 c0 74 04 00
	00		 imul	 eax, 1140		; 00000474H
  00060	8d 4c 30 24	 lea	 ecx, DWORD PTR [eax+esi+36]
  00064	e8 00 00 00 00	 call	 ?IsItem@CItem@@QAEHXZ	; CItem::IsItem
  00069	85 c0		 test	 eax, eax
  0006b	75 d3		 jne	 SHORT $LL12@ItemDrop
$LN24@ItemDrop:

; 318  : 		{
; 319  : 			this->m_cItem[count].DropCreateItem(type, level, x, y, dur, Option1, Option2, Option3, NOption, SOption, number, PetLevel, PetExp, ItemEffectEx, SocketOption, SocketIndex);

  0006d	8b 4d 48	 mov	 ecx, DWORD PTR _SocketIndex$[ebp]
  00070	d9 45 10	 fld	 DWORD PTR _dur$[ebp]
  00073	69 ff 74 04 00
	00		 imul	 edi, 1140		; 00000474H
  00079	8b 55 44	 mov	 edx, DWORD PTR _SocketOption$[ebp]
  0007c	8b 45 40	 mov	 eax, DWORD PTR _ItemEffectEx$[ebp]
  0007f	51		 push	 ecx
  00080	8b 4d 3c	 mov	 ecx, DWORD PTR _PetExp$[ebp]
  00083	52		 push	 edx
  00084	8b 55 38	 mov	 edx, DWORD PTR _PetLevel$[ebp]
  00087	50		 push	 eax
  00088	8b 45 30	 mov	 eax, DWORD PTR _number$[ebp]
  0008b	51		 push	 ecx
  0008c	8b 4d 2c	 mov	 ecx, DWORD PTR _SOption$[ebp]
  0008f	52		 push	 edx
  00090	8b 55 28	 mov	 edx, DWORD PTR _NOption$[ebp]
  00093	8b 5d 0c	 mov	 ebx, DWORD PTR _level$[ebp]
  00096	50		 push	 eax
  00097	8b 45 24	 mov	 eax, DWORD PTR _Option3$[ebp]
  0009a	51		 push	 ecx
  0009b	8b 4d 20	 mov	 ecx, DWORD PTR _Option2$[ebp]
  0009e	52		 push	 edx
  0009f	8b 55 1c	 mov	 edx, DWORD PTR _Option1$[ebp]
  000a2	50		 push	 eax
  000a3	8b 45 18	 mov	 eax, DWORD PTR _y$[ebp]
  000a6	51		 push	 ecx
  000a7	52		 push	 edx
  000a8	8b 55 08	 mov	 edx, DWORD PTR _type$[ebp]
  000ab	51		 push	 ecx
  000ac	8b 4d 14	 mov	 ecx, DWORD PTR _x$[ebp]
  000af	d9 1c 24	 fstp	 DWORD PTR [esp]
  000b2	50		 push	 eax
  000b3	51		 push	 ecx
  000b4	53		 push	 ebx
  000b5	52		 push	 edx
  000b6	8d 4c 37 20	 lea	 ecx, DWORD PTR [edi+esi+32]
  000ba	e8 00 00 00 00	 call	 ?DropCreateItem@CMapItem@@QAEXHHHHMEEEEEKHHEQAEE@Z ; CMapItem::DropCreateItem

; 320  : 			this->m_cItem[count].m_UserIndex = aIndex;

  000bf	8b 45 34	 mov	 eax, DWORD PTR _aIndex$[ebp]
  000c2	89 84 37 04 01
	00 00		 mov	 DWORD PTR [edi+esi+260], eax

; 321  : 			this->m_ItemCount++;

  000c9	ff 86 10 38 05
	00		 inc	 DWORD PTR [esi+342032]

; 322  : 
; 323  : 			if ( this->m_ItemCount > MAX_MAPITEM-1 )

  000cf	81 be 10 38 05
	00 2b 01 00 00	 cmp	 DWORD PTR [esi+342032], 299 ; 0000012bH
  000d9	7e 0a		 jle	 SHORT $LN27@ItemDrop

; 324  : 			{
; 325  : 				this->m_ItemCount = 0;

  000db	c7 86 10 38 05
	00 00 00 00 00	 mov	 DWORD PTR [esi+342032], 0
$LN27@ItemDrop:

; 326  : 			}
; 327  : 
; 328  : 			if ( BC_MAP_RANGE(this->thisMapNumber) != FALSE )

  000e5	8b b6 44 3d 05
	00		 mov	 esi, DWORD PTR [esi+343364]
  000eb	83 fe 34	 cmp	 esi, 52			; 00000034H
  000ee	74 19		 je	 SHORT $LN28@ItemDrop
  000f0	83 fe 0b	 cmp	 esi, 11			; 0000000bH
  000f3	0f 8c 94 00 00
	00		 jl	 $LN3@ItemDrop
  000f9	33 c0		 xor	 eax, eax
  000fb	83 fe 11	 cmp	 esi, 17			; 00000011H
  000fe	0f 9e c0	 setle	 al
  00101	85 c0		 test	 eax, eax
  00103	0f 84 84 00 00
	00		 je	 $LN3@ItemDrop
$LN28@ItemDrop:

; 329  : 			{
; 330  : 				if ( type == ITEMGET(13,19) )

  00109	81 7d 08 13 1a
	00 00		 cmp	 DWORD PTR _type$[ebp], 6675 ; 00001a13H
  00110	75 7b		 jne	 SHORT $LN3@ItemDrop

; 331  : 				{
; 332  : 					if ( ((level<0)?FALSE:(level>2)?FALSE:TRUE) != FALSE ) //checklimit type not same :)

  00112	85 db		 test	 ebx, ebx
  00114	78 77		 js	 SHORT $LN3@ItemDrop
  00116	33 c0		 xor	 eax, eax
  00118	83 fb 02	 cmp	 ebx, 2
  0011b	0f 9e c0	 setle	 al
  0011e	85 c0		 test	 eax, eax
  00120	74 6b		 je	 SHORT $LN3@ItemDrop

; 333  : 					{
; 334  : 						int iBridgeIndex = g_BloodCastle.GetBridgeIndex(this->thisMapNumber);

  00122	56		 push	 esi
  00123	b9 00 00 00 00	 mov	 ecx, OFFSET ?g_BloodCastle@@3VCBloodCastle@@A ; g_BloodCastle
  00128	e8 00 00 00 00	 call	 ?GetBridgeIndex@CBloodCastle@@QAEHH@Z ; CBloodCastle::GetBridgeIndex

; 335  : 
; 336  : 						if ( g_BloodCastle.m_BridgeData[iBridgeIndex].m_nBC_QUESTITEM_SERIAL != -1 )

  0012d	8b f0		 mov	 esi, eax
  0012f	69 f6 60 04 00
	00		 imul	 esi, 1120		; 00000460H
  00135	8b 8e e8 03 00
	00		 mov	 ecx, DWORD PTR ?g_BloodCastle@@3VCBloodCastle@@A[esi+1000]
  0013b	83 f9 ff	 cmp	 ecx, -1
  0013e	74 4d		 je	 SHORT $LN3@ItemDrop

; 337  : 						{
; 338  : 							if ( number == g_BloodCastle.m_BridgeData[iBridgeIndex].m_nBC_QUESTITEM_SERIAL )

  00140	39 4d 30	 cmp	 DWORD PTR _number$[ebp], ecx
  00143	75 48		 jne	 SHORT $LN3@ItemDrop

; 339  : 							{
; 340  : 								if ( g_BloodCastle.m_BridgeData[iBridgeIndex].m_iBC_QUEST_ITEM_USER_INDEX != -1 )

  00145	8b 8e ec 03 00
	00		 mov	 ecx, DWORD PTR ?g_BloodCastle@@3VCBloodCastle@@A[esi+1004]
  0014b	83 f9 ff	 cmp	 ecx, -1
  0014e	74 3d		 je	 SHORT $LN3@ItemDrop

; 341  : 								{
; 342  : 									LogAddTD("[Blood Castle] (%d) (Account:%s, Name:%s) Dropped Angel King's Weapon (%d)", 
; 343  : 										iBridgeIndex+1, 
; 344  : 										gObj[g_BloodCastle.m_BridgeData[iBridgeIndex].m_iBC_QUEST_ITEM_USER_INDEX ].AccountID, 
; 345  : 										gObj[g_BloodCastle.m_BridgeData[iBridgeIndex].m_iBC_QUEST_ITEM_USER_INDEX].Name, 
; 346  : 										g_BloodCastle.m_BridgeData[iBridgeIndex].m_btBC_QUEST_ITEM_NUMBER);

  00150	0f b6 96 f0 03
	00 00		 movzx	 edx, BYTE PTR ?g_BloodCastle@@3VCBloodCastle@@A[esi+1008]
  00157	69 c9 50 2b 00
	00		 imul	 ecx, 11088		; 00002b50H
  0015d	03 0d 00 00 00
	00		 add	 ecx, DWORD PTR ?gObj@@3PAUOBJECTSTRUCT@@A ; gObj
  00163	52		 push	 edx
  00164	8d 51 77	 lea	 edx, DWORD PTR [ecx+119]
  00167	52		 push	 edx
  00168	83 c1 6c	 add	 ecx, 108		; 0000006cH
  0016b	51		 push	 ecx
  0016c	40		 inc	 eax
  0016d	50		 push	 eax
  0016e	68 00 00 00 00	 push	 OFFSET ??_C@_0EL@BKCBEOOI@?$FLBlood?5Castle?$FN?5?$CI?$CFd?$CJ?5?$CIAccount?3?$CFs?0@
  00173	ff 15 00 00 00
	00		 call	 DWORD PTR ?LogAddTD@@3P6AXPADZZA ; LogAddTD
  00179	83 c4 14	 add	 esp, 20			; 00000014H

; 347  : 
; 348  : 									g_BloodCastle.m_BridgeData[iBridgeIndex].m_iBC_QUEST_ITEM_USER_INDEX = -1;

  0017c	c7 86 ec 03 00
	00 ff ff ff ff	 mov	 DWORD PTR ?g_BloodCastle@@3VCBloodCastle@@A[esi+1004], -1

; 349  : 									g_BloodCastle.m_BridgeData[iBridgeIndex].m_btBC_QUEST_ITEM_NUMBER = 0;									

  00186	c6 86 f0 03 00
	00 00		 mov	 BYTE PTR ?g_BloodCastle@@3VCBloodCastle@@A[esi+1008], 0
$LN3@ItemDrop:

; 350  : 								}
; 351  : 							}
; 352  : 						}
; 353  : 					}
; 354  : 				}
; 355  : 			}
; 356  : 
; 357  : 			return TRUE;

  0018d	5f		 pop	 edi
  0018e	5e		 pop	 esi
  0018f	b8 01 00 00 00	 mov	 eax, 1
  00194	5b		 pop	 ebx

; 372  : 		}
; 373  : 	}
; 374  : 
; 375  : 	LogAdd(lMsg.Get(MSGGET(1, 205)), __FILE__, __LINE__ );
; 376  : 
; 377  : 	return FALSE;
; 378  : }

  00195	5d		 pop	 ebp
  00196	c2 44 00	 ret	 68			; 00000044H
$LN25@ItemDrop:
  00199	5f		 pop	 edi
  0019a	5e		 pop	 esi

; 370  : 		{
; 371  : 			return FALSE;

  0019b	33 c0		 xor	 eax, eax
  0019d	5b		 pop	 ebx

; 372  : 		}
; 373  : 	}
; 374  : 
; 375  : 	LogAdd(lMsg.Get(MSGGET(1, 205)), __FILE__, __LINE__ );
; 376  : 
; 377  : 	return FALSE;
; 378  : }

  0019e	5d		 pop	 ebp
  0019f	c2 44 00	 ret	 68			; 00000044H
$LN13@ItemDrop:
  001a2	5e		 pop	 esi

; 309  : 	{
; 310  : 		return FALSE;

  001a3	33 c0		 xor	 eax, eax
  001a5	5b		 pop	 ebx

; 372  : 		}
; 373  : 	}
; 374  : 
; 375  : 	LogAdd(lMsg.Get(MSGGET(1, 205)), __FILE__, __LINE__ );
; 376  : 
; 377  : 	return FALSE;
; 378  : }

  001a6	5d		 pop	 ebp
  001a7	c2 44 00	 ret	 68			; 00000044H
?ItemDrop@MapClass@@QAEHHHMHHEEEEEKHHHEQAEE@Z ENDP	; MapClass::ItemDrop
_TEXT	ENDS
PUBLIC	?MoneyItemDrop@MapClass@@QAEHHHH@Z		; MapClass::MoneyItemDrop
EXTRN	?gZenDurationTime@@3HA:DWORD			; gZenDurationTime
; Function compile flags: /Ogtp
;	COMDAT ?MoneyItemDrop@MapClass@@QAEHHHH@Z
_TEXT	SEGMENT
_counttot$ = -4						; size = 4
_money$ = 8						; size = 4
_x$ = 12						; size = 4
_y$ = 16						; size = 4
?MoneyItemDrop@MapClass@@QAEHHHH@Z PROC			; MapClass::MoneyItemDrop, COMDAT
; _this$ = ecx

; 381  : {

  00000	55		 push	 ebp
  00001	8b ec		 mov	 ebp, esp
  00003	51		 push	 ecx

; 382  : 	int count;
; 383  : 	int counttot = 0;
; 384  : 
; 385  : 	BYTE attr = this->GetAttr(x, y);

  00004	8b 45 10	 mov	 eax, DWORD PTR _y$[ebp]
  00007	57		 push	 edi
  00008	8b f9		 mov	 edi, ecx
  0000a	8b 4d 0c	 mov	 ecx, DWORD PTR _x$[ebp]
  0000d	50		 push	 eax
  0000e	51		 push	 ecx
  0000f	8b cf		 mov	 ecx, edi
  00011	c7 45 fc 00 00
	00 00		 mov	 DWORD PTR _counttot$[ebp], 0
  00018	e8 00 00 00 00	 call	 ?GetAttr@MapClass@@QAEEHH@Z ; MapClass::GetAttr

; 386  : 
; 387  : 	if ( (attr&4) == 4 || (attr&8) == 8 )

  0001d	a8 0c		 test	 al, 12			; 0000000cH
  0001f	0f 85 e4 00 00
	00		 jne	 $LN7@MoneyItemD

; 390  : 	}
; 391  : 
; 392  : 	count = this->m_ItemCount;

  00025	56		 push	 esi
  00026	8b b7 10 38 05
	00		 mov	 esi, DWORD PTR [edi+342032]

; 393  : 
; 394  : 	while ( true )
; 395  : 	{
; 396  : 		if ( this->m_cItem[count].IsItem() == FALSE )

  0002c	8b d6		 mov	 edx, esi
  0002e	69 d2 74 04 00
	00		 imul	 edx, 1140		; 00000474H
  00034	8d 4c 3a 24	 lea	 ecx, DWORD PTR [edx+edi+36]
  00038	e8 00 00 00 00	 call	 ?IsItem@CItem@@QAEHXZ	; CItem::IsItem
  0003d	85 c0		 test	 eax, eax
  0003f	74 32		 je	 SHORT $LN12@MoneyItemD
$LL6@MoneyItemD:

; 416  : 		}
; 417  : 
; 418  : 		count++;

  00041	46		 inc	 esi

; 419  : 
; 420  : 		if ( count > MAX_MAPITEM-1 )

  00042	81 fe 2b 01 00
	00		 cmp	 esi, 299		; 0000012bH
  00048	7e 02		 jle	 SHORT $LN2@MoneyItemD

; 421  : 		{
; 422  : 			count = 0;

  0004a	33 f6		 xor	 esi, esi
$LN2@MoneyItemD:

; 423  : 		}
; 424  : 
; 425  : 		counttot++;

  0004c	8b 45 fc	 mov	 eax, DWORD PTR _counttot$[ebp]
  0004f	40		 inc	 eax
  00050	89 45 fc	 mov	 DWORD PTR _counttot$[ebp], eax

; 426  : 
; 427  : 		if ( counttot > MAX_MAPITEM-1 )

  00053	3d 2b 01 00 00	 cmp	 eax, 299		; 0000012bH
  00058	0f 8f a1 00 00
	00		 jg	 $LN13@MoneyItemD

; 393  : 
; 394  : 	while ( true )
; 395  : 	{
; 396  : 		if ( this->m_cItem[count].IsItem() == FALSE )

  0005e	8b c6		 mov	 eax, esi
  00060	69 c0 74 04 00
	00		 imul	 eax, 1140		; 00000474H
  00066	8d 4c 38 24	 lea	 ecx, DWORD PTR [eax+edi+36]
  0006a	e8 00 00 00 00	 call	 ?IsItem@CItem@@QAEHXZ	; CItem::IsItem
  0006f	85 c0		 test	 eax, eax
  00071	75 ce		 jne	 SHORT $LL6@MoneyItemD
$LN12@MoneyItemD:

; 397  : 		{
; 398  : 			this->m_cItem[count].m_Type = ITEMGET(14,15);
; 399  : 			this->m_cItem[count].m_SellMoney = money;

  00073	8b 45 08	 mov	 eax, DWORD PTR _money$[ebp]
  00076	69 f6 74 04 00
	00		 imul	 esi, 1140		; 00000474H

; 400  : 			this->m_cItem[count].m_BuyMoney = money;
; 401  : 			this->m_cItem[count].px = x;

  0007c	8a 55 0c	 mov	 dl, BYTE PTR _x$[ebp]
  0007f	03 f7		 add	 esi, edi
  00081	89 86 90 00 00
	00		 mov	 DWORD PTR [esi+144], eax
  00087	89 86 94 00 00
	00		 mov	 DWORD PTR [esi+148], eax

; 402  : 			this->m_cItem[count].py = y;

  0008d	8a 45 10	 mov	 al, BYTE PTR _y$[ebp]
  00090	b9 0f 1c 00 00	 mov	 ecx, 7183		; 00001c0fH
  00095	66 89 4e 2a	 mov	 WORD PTR [esi+42], cx
  00099	88 96 f8 00 00
	00		 mov	 BYTE PTR [esi+248], dl
  0009f	88 86 f9 00 00
	00		 mov	 BYTE PTR [esi+249], al

; 403  : 			this->m_cItem[count].live = 1;

  000a5	66 c7 86 fa 00
	00 00 01 00	 mov	 WORD PTR [esi+250], 1

; 404  : 			this->m_cItem[count].Give = 0;
; 405  : 			this->m_cItem[count].m_State = 1;

  000ae	c7 86 fc 00 00
	00 01 00 00 00	 mov	 DWORD PTR [esi+252], 1

; 406  : 			this->m_cItem[count].m_Time = GetTickCount() + ::gZenDurationTime * 1000;

  000b8	ff 15 00 00 00
	00		 call	 DWORD PTR __imp__GetTickCount@0
  000be	8b 0d 00 00 00
	00		 mov	 ecx, DWORD PTR ?gZenDurationTime@@3HA ; gZenDurationTime
  000c4	69 c9 e8 03 00
	00		 imul	 ecx, 1000		; 000003e8H
  000ca	03 c1		 add	 eax, ecx
  000cc	89 86 00 01 00
	00		 mov	 DWORD PTR [esi+256], eax

; 407  : 			this->m_cItem[count].m_LootTime = 0;

  000d2	33 c0		 xor	 eax, eax
  000d4	89 86 08 01 00
	00		 mov	 DWORD PTR [esi+264], eax

; 408  : 			this->m_ItemCount++;

  000da	ff 87 10 38 05
	00		 inc	 DWORD PTR [edi+342032]

; 409  : 
; 410  : 			if ( this->m_ItemCount > MAX_MAPITEM-1 )

  000e0	81 bf 10 38 05
	00 2b 01 00 00	 cmp	 DWORD PTR [edi+342032], 299 ; 0000012bH
  000ea	7e 06		 jle	 SHORT $LN3@MoneyItemD

; 411  : 			{
; 412  : 				this->m_ItemCount = 0;

  000ec	89 87 10 38 05
	00		 mov	 DWORD PTR [edi+342032], eax
$LN3@MoneyItemD:
  000f2	5e		 pop	 esi

; 413  : 			}
; 414  : 
; 415  : 			return TRUE;

  000f3	b8 01 00 00 00	 mov	 eax, 1
  000f8	5f		 pop	 edi

; 430  : 		}
; 431  : 	}
; 432  : 
; 433  : 	return FALSE;
; 434  : }

  000f9	8b e5		 mov	 esp, ebp
  000fb	5d		 pop	 ebp
  000fc	c2 0c 00	 ret	 12			; 0000000cH
$LN13@MoneyItemD:
  000ff	5e		 pop	 esi

; 428  : 		{
; 429  : 			return FALSE;

  00100	33 c0		 xor	 eax, eax
  00102	5f		 pop	 edi

; 430  : 		}
; 431  : 	}
; 432  : 
; 433  : 	return FALSE;
; 434  : }

  00103	8b e5		 mov	 esp, ebp
  00105	5d		 pop	 ebp
  00106	c2 0c 00	 ret	 12			; 0000000cH
$LN7@MoneyItemD:

; 388  : 	{
; 389  : 		return FALSE;

  00109	33 c0		 xor	 eax, eax
  0010b	5f		 pop	 edi

; 430  : 		}
; 431  : 	}
; 432  : 
; 433  : 	return FALSE;
; 434  : }

  0010c	8b e5		 mov	 esp, ebp
  0010e	5d		 pop	 ebp
  0010f	c2 0c 00	 ret	 12			; 0000000cH
?MoneyItemDrop@MapClass@@QAEHHHH@Z ENDP			; MapClass::MoneyItemDrop
_TEXT	ENDS
PUBLIC	?GetVisibleItemCount@MapClass@@QAEHPAUOBJECTSTRUCT@@H@Z ; MapClass::GetVisibleItemCount
EXTRN	__ftol2_sse:PROC
; Function compile flags: /Ogtp
;	COMDAT ?GetVisibleItemCount@MapClass@@QAEHPAUOBJECTSTRUCT@@H@Z
_TEXT	SEGMENT
_this$ = -8						; size = 4
_itemcount$ = -4					; size = 4
tv407 = 8						; size = 4
tv401 = 8						; size = 4
_lpObj$ = 8						; size = 4
_distance$ = 12						; size = 4
?GetVisibleItemCount@MapClass@@QAEHPAUOBJECTSTRUCT@@H@Z PROC ; MapClass::GetVisibleItemCount, COMDAT
; _this$ = ecx

; 554  : {

  00000	55		 push	 ebp
  00001	8b ec		 mov	 ebp, esp
  00003	83 ec 08	 sub	 esp, 8

; 555  : 	int itemcount = 0;

  00006	33 c0		 xor	 eax, eax
  00008	57		 push	 edi

; 556  : 
; 557  : 	for(int i = 0; i < this->m_ItemCount; i++)

  00009	33 ff		 xor	 edi, edi
  0000b	89 4d f8	 mov	 DWORD PTR _this$[ebp], ecx
  0000e	89 45 fc	 mov	 DWORD PTR _itemcount$[ebp], eax
  00011	39 81 10 38 05
	00		 cmp	 DWORD PTR [ecx+342032], eax
  00017	0f 8e 9e 00 00
	00		 jle	 $LN5@GetVisible

; 555  : 	int itemcount = 0;

  0001d	53		 push	 ebx
  0001e	8b 5d 08	 mov	 ebx, DWORD PTR _lpObj$[ebp]
  00021	56		 push	 esi
  00022	8d b1 f8 00 00
	00		 lea	 esi, DWORD PTR [ecx+248]
  00028	eb 06 8d 9b 00
	00 00 00	 npad	 8
$LL7@GetVisible:

; 558  : 	{
; 559  : 		CMapItem * lpMapItem = &this->m_cItem[i];
; 560  : 
; 561  : 		if ( lpMapItem->IsItem() != FALSE )

  00030	8d 8e 2c ff ff
	ff		 lea	 ecx, DWORD PTR [esi-212]
  00036	e8 00 00 00 00	 call	 ?IsItem@CItem@@QAEHXZ	; CItem::IsItem
  0003b	85 c0		 test	 eax, eax
  0003d	74 61		 je	 SHORT $LN6@GetVisible

; 562  : 		{
; 563  : 			if ( lpMapItem->Give == 0 && lpMapItem->live != 0)

  0003f	80 7e 03 00	 cmp	 BYTE PTR [esi+3], 0
  00043	75 5b		 jne	 SHORT $LN6@GetVisible
  00045	80 7e 02 00	 cmp	 BYTE PTR [esi+2], 0
  00049	74 55		 je	 SHORT $LN6@GetVisible

; 564  : 			{
; 565  : 				if(gLootingTime > 0)

  0004b	83 3d 00 00 00
	00 00		 cmp	 DWORD PTR ?gLootingTime@@3HA, 0 ; gLootingTime
  00052	7e 4c		 jle	 SHORT $LN6@GetVisible

; 566  : 				{
; 567  : 					int tx = lpObj->X - lpMapItem->px;

  00054	0f b6 0e	 movzx	 ecx, BYTE PTR [esi]
  00057	0f bf 83 44 01
	00 00		 movsx	 eax, WORD PTR [ebx+324]

; 568  : 					int ty = lpObj->Y - lpMapItem->py;

  0005e	0f b6 56 01	 movzx	 edx, BYTE PTR [esi+1]
  00062	2b c1		 sub	 eax, ecx
  00064	0f bf 8b 46 01
	00 00		 movsx	 ecx, WORD PTR [ebx+326]

; 569  : 					
; 570  : 					int dis = (int)(sqrt((float) (tx*tx+ty*ty)));

  0006b	0f af c0	 imul	 eax, eax
  0006e	2b ca		 sub	 ecx, edx
  00070	0f af c9	 imul	 ecx, ecx
  00073	03 c8		 add	 ecx, eax

; 571  : 
; 572  : 					if( dis <= distance)

  00075	89 4d 08	 mov	 DWORD PTR tv407[ebp], ecx
  00078	db 45 08	 fild	 DWORD PTR tv407[ebp]
  0007b	e8 00 00 00 00	 call	 __CIsqrt
  00080	d9 5d 08	 fstp	 DWORD PTR tv401[ebp]
  00083	d9 45 08	 fld	 DWORD PTR tv401[ebp]
  00086	e8 00 00 00 00	 call	 __ftol2_sse
  0008b	3b 45 0c	 cmp	 eax, DWORD PTR _distance$[ebp]
  0008e	7f 10		 jg	 SHORT $LN6@GetVisible

; 573  : 					{
; 574  : 						lpMapItem->m_State = 8;
; 575  : 						lpMapItem->Give = true;
; 576  : 						lpMapItem->live = false;
; 577  : 
; 578  : 						itemcount++;

  00090	ff 45 fc	 inc	 DWORD PTR _itemcount$[ebp]
  00093	c7 46 04 08 00
	00 00		 mov	 DWORD PTR [esi+4], 8
  0009a	66 c7 46 02 00
	01		 mov	 WORD PTR [esi+2], 256	; 00000100H
$LN6@GetVisible:

; 556  : 
; 557  : 	for(int i = 0; i < this->m_ItemCount; i++)

  000a0	8b 45 f8	 mov	 eax, DWORD PTR _this$[ebp]
  000a3	47		 inc	 edi
  000a4	81 c6 74 04 00
	00		 add	 esi, 1140		; 00000474H
  000aa	3b b8 10 38 05
	00		 cmp	 edi, DWORD PTR [eax+342032]
  000b0	0f 8c 7a ff ff
	ff		 jl	 $LL7@GetVisible

; 579  : 					}
; 580  : 				}	
; 581  : 			}
; 582  : 		}
; 583  : 	}
; 584  : 
; 585  : 	return itemcount;

  000b6	8b 45 fc	 mov	 eax, DWORD PTR _itemcount$[ebp]
  000b9	5e		 pop	 esi
  000ba	5b		 pop	 ebx
$LN5@GetVisible:
  000bb	5f		 pop	 edi

; 586  : }

  000bc	8b e5		 mov	 esp, ebp
  000be	5d		 pop	 ebp
  000bf	c2 08 00	 ret	 8
?GetVisibleItemCount@MapClass@@QAEHPAUOBJECTSTRUCT@@H@Z ENDP ; MapClass::GetVisibleItemCount
_TEXT	ENDS
PUBLIC	?CheckWall@MapClass@@QAEHHHHH@Z			; MapClass::CheckWall
; Function compile flags: /Ogtp
;	COMDAT ?CheckWall@MapClass@@QAEHHHHH@Z
_TEXT	SEGMENT
_this$ = -4						; size = 4
_len2$ = 8						; size = 4
_sx1$ = 8						; size = 4
_Index$ = 12						; size = 4
_sy1$ = 12						; size = 4
_d1$ = 16						; size = 4
_sx2$ = 16						; size = 4
tv138 = 20						; size = 4
_sy2$ = 20						; size = 4
?CheckWall@MapClass@@QAEHHHHH@Z PROC			; MapClass::CheckWall, COMDAT
; _this$ = ecx

; 826  : {

  00000	55		 push	 ebp
  00001	8b ec		 mov	 ebp, esp
  00003	51		 push	 ecx

; 827  : 	int Index = TERRAIN_INDEX_REPEAT(sx1,sy1);

  00004	8b 55 0c	 mov	 edx, DWORD PTR _sy1$[ebp]
  00007	53		 push	 ebx
  00008	56		 push	 esi
  00009	8b 75 08	 mov	 esi, DWORD PTR _sx1$[ebp]
  0000c	57		 push	 edi
  0000d	52		 push	 edx
  0000e	56		 push	 esi
  0000f	89 4d fc	 mov	 DWORD PTR _this$[ebp], ecx
  00012	e8 00 00 00 00	 call	 ?TERRAIN_INDEX_REPEAT@@YAHHH@Z ; TERRAIN_INDEX_REPEAT

; 828  : 	int nx1;
; 829  : 	int ny1;
; 830  : 	int d1;
; 831  : 	int d2;
; 832  : 	int len1;
; 833  : 	int len2;
; 834  : 	int px1 = sx2 - sx1;
; 835  : 	int py1 = sy2 - sy1;

  00017	8b 4d 14	 mov	 ecx, DWORD PTR _sy2$[ebp]
  0001a	89 45 0c	 mov	 DWORD PTR _Index$[ebp], eax
  0001d	8b 45 10	 mov	 eax, DWORD PTR _sx2$[ebp]
  00020	83 c4 08	 add	 esp, 8
  00023	2b ca		 sub	 ecx, edx
  00025	2b c6		 sub	 eax, esi

; 836  : 
; 837  : 	if ( px1 < 0 )

  00027	79 07		 jns	 SHORT $LN11@CheckWall

; 838  : 	{
; 839  : 		px1 = -px1;

  00029	f7 d8		 neg	 eax

; 840  : 		nx1 = -1;

  0002b	83 cf ff	 or	 edi, -1

; 841  : 	}
; 842  : 	else

  0002e	eb 05		 jmp	 SHORT $LN10@CheckWall
$LN11@CheckWall:

; 843  : 	{
; 844  : 		nx1 = 1;

  00030	bf 01 00 00 00	 mov	 edi, 1
$LN10@CheckWall:

; 845  : 	}
; 846  : 
; 847  : 	if ( py1 < 0 )

  00035	85 c9		 test	 ecx, ecx
  00037	79 09		 jns	 SHORT $LN9@CheckWall

