; Listing generated by Microsoft (R) Optimizing Compiler Version 16.00.30319.01 

	TITLE	E:\work\tranet_version\GS\GameServer\MiniMapZt.cpp
	.686P
	.XMM
	include listing.inc
	.model	flat

INCLUDELIB LIBCMT
INCLUDELIB OLDNAMES

_DATA	SEGMENT
_g_iNpcUpDfLevel_CGATE DD 01H
	DD	02H
	DD	02dc6c0H
	DD	02H
	DD	03H
	DD	02dc6c0H
	DD	03H
	DD	04H
	DD	02dc6c0H
_g_iNpcUpDfLevel_CSTATUE DD 01H
	DD	03H
	DD	02dc6c0H
	DD	02H
	DD	05H
	DD	02dc6c0H
	DD	03H
	DD	07H
	DD	02dc6c0H
_g_iNpcUpMaxHP_CGATE DD 02625a0H
	DD	02H
	DD	0f4240H
	DD	03567e0H
	DD	03H
	DD	0f4240H
	DD	04f5880H
	DD	04H
	DD	0f4240H
_g_iNpcUpMaxHP_CSTATUE DD 02191c0H
	DD	03H
	DD	0f4240H
	DD	033e140H
	DD	05H
	DD	0f4240H
	DD	04c4b40H
	DD	07H
	DD	0f4240H
_g_iNpcUpRgLevel_CSTATUE DD 01H
	DD	03H
	DD	04c4b40H
	DD	02H
	DD	05H
	DD	04c4b40H
	DD	03H
	DD	07H
	DD	04c4b40H
_g_iCsUserReSpawnArea DD 023H
	DD	011H
	DD	090H
	DD	030H
	DD	04aH
	DD	090H
	DD	073H
	DD	09aH
	DD	023H
	DD	011H
	DD	090H
	DD	030H
_g_iNpcDefense_CGATE DD 064H
	DD	0b4H
	DD	012cH
	DD	0208H
_g_iNpcDefense_CSTATUE DD 050H
	DD	0b4H
	DD	0154H
	DD	0226H
_g_iCastleWallStepAxisY DD 071H
	DD	0a0H
	DD	0cbH
_DATA	ENDS
PUBLIC	??2@YAPAXIPAX@Z					; operator new
; Function compile flags: /Ogtp
; File d:\program files (x86)\microsoft visual studio 10.0\vc\include\new.h
;	COMDAT ??2@YAPAXIPAX@Z
_TEXT	SEGMENT
___formal$ = 8						; size = 4
__Where$ = 12						; size = 4
??2@YAPAXIPAX@Z PROC					; operator new, COMDAT

; 81   :         {return (_Where); }

  00000	55		 push	 ebp
  00001	8b ec		 mov	 ebp, esp
  00003	8b 45 0c	 mov	 eax, DWORD PTR __Where$[ebp]
  00006	5d		 pop	 ebp
  00007	c3		 ret	 0
??2@YAPAXIPAX@Z ENDP					; operator new
_TEXT	ENDS
PUBLIC	??3@YAXPAX0@Z					; operator delete
; Function compile flags: /Ogtp
;	COMDAT ??3@YAXPAX0@Z
_TEXT	SEGMENT
___formal$ = 8						; size = 4
___formal$ = 12						; size = 4
??3@YAXPAX0@Z PROC					; operator delete, COMDAT

; 83   :         {return; }

  00000	c3		 ret	 0
??3@YAXPAX0@Z ENDP					; operator delete
_TEXT	ENDS
PUBLIC	??_H@YGXPAXIHP6EPAX0@Z@Z			; `vector constructor iterator'
; Function compile flags: /Ogtp
;	COMDAT ??_H@YGXPAXIHP6EPAX0@Z@Z
_TEXT	SEGMENT
___t$ = 8						; size = 4
___s$ = 12						; size = 4
___n$ = 16						; size = 4
___f$ = 20						; size = 4
??_H@YGXPAXIHP6EPAX0@Z@Z PROC				; `vector constructor iterator', COMDAT
  00000	55		 push	 ebp
  00001	8b ec		 mov	 ebp, esp
  00003	57		 push	 edi
  00004	8b 7d 10	 mov	 edi, DWORD PTR ___n$[ebp]
  00007	4f		 dec	 edi
  00008	78 14		 js	 SHORT $LN1@vector
  0000a	53		 push	 ebx
  0000b	8b 5d 14	 mov	 ebx, DWORD PTR ___f$[ebp]
  0000e	56		 push	 esi
  0000f	8b 75 08	 mov	 esi, DWORD PTR ___t$[ebp]
$LL2@vector:
  00012	8b ce		 mov	 ecx, esi
  00014	ff d3		 call	 ebx
  00016	03 75 0c	 add	 esi, DWORD PTR ___s$[ebp]
  00019	4f		 dec	 edi
  0001a	79 f6		 jns	 SHORT $LL2@vector
  0001c	5e		 pop	 esi
  0001d	5b		 pop	 ebx
$LN1@vector:
  0001e	5f		 pop	 edi
  0001f	5d		 pop	 ebp
  00020	c2 10 00	 ret	 16			; 00000010H
??_H@YGXPAXIHP6EPAX0@Z@Z ENDP				; `vector constructor iterator'
_TEXT	ENDS
PUBLIC	__$ArrayPad$
EXTRN	_isalnum:PROC
EXTRN	_isalpha:PROC
EXTRN	_atof:PROC
EXTRN	_isdigit:PROC
EXTRN	_getc:PROC
EXTRN	_ungetc:PROC
EXTRN	_isspace:PROC
EXTRN	_fgetc:PROC
EXTRN	___security_cookie:DWORD
EXTRN	__fltused:DWORD
EXTRN	@__security_check_cookie@4:PROC
_BSS	SEGMENT
_CurrentToken DD 01H DUP (?)
_TokenNumber DD	01H DUP (?)
_SMDFile DD	01H DUP (?)
_TokenString DB	064H DUP (?)
; Function compile flags: /Ogtp
; File e:\work\tranet_version\gs\include\readscript.h
_BSS	ENDS
;	COMDAT ?GetToken@@YA?AW4SMDToken@@XZ
_TEXT	SEGMENT
_TempString$ = -104					; size = 100
__$ArrayPad$ = -4					; size = 4
?GetToken@@YA?AW4SMDToken@@XZ PROC			; GetToken, COMDAT

; 24   : {

  00000	55		 push	 ebp
  00001	8b ec		 mov	 ebp, esp
  00003	83 ec 68	 sub	 esp, 104		; 00000068H
  00006	a1 00 00 00 00	 mov	 eax, DWORD PTR ___security_cookie
  0000b	33 c5		 xor	 eax, ebp
  0000d	89 45 fc	 mov	 DWORD PTR __$ArrayPad$[ebp], eax

; 25   : 	char ch;
; 26   : 	char* p;
; 27   : 	char TempString[100];
; 28   : 
; 29   : 	TokenString[0]=0;

  00010	c6 05 00 00 00
	00 00		 mov	 BYTE PTR _TokenString, 0
  00017	53		 push	 ebx
  00018	eb 06 8d 9b 00
	00 00 00	 npad	 8
$LL31@GetToken:

; 30   : 
; 31   : 	do
; 32   : 	{
; 33   : 		if ((ch=fgetc(SMDFile)) == -1)

  00020	a1 00 00 00 00	 mov	 eax, DWORD PTR _SMDFile
  00025	50		 push	 eax
  00026	e8 00 00 00 00	 call	 _fgetc
  0002b	8a d8		 mov	 bl, al
  0002d	83 c4 04	 add	 esp, 4
  00030	80 fb ff	 cmp	 bl, -1
  00033	74 64		 je	 SHORT $LN39@GetToken

; 36   : 		}
; 37   : 		else
; 38   : 		{	
; 39   : 			if (ch=='/')		// this is /

  00035	80 fb 2f	 cmp	 bl, 47			; 0000002fH
  00038	75 31		 jne	 SHORT $LN30@GetToken

; 40   : 			{
; 41   : 				if((ch=fgetc(SMDFile)) == '/')

  0003a	8b 0d 00 00 00
	00		 mov	 ecx, DWORD PTR _SMDFile
  00040	51		 push	 ecx
  00041	e8 00 00 00 00	 call	 _fgetc
  00046	8a d8		 mov	 bl, al
  00048	83 c4 04	 add	 esp, 4
  0004b	80 fb 2f	 cmp	 bl, 47			; 0000002fH
  0004e	75 1b		 jne	 SHORT $LN30@GetToken
$LL24@GetToken:

; 42   : 				{
; 43   : 					while ((ch != '\n') && (ch != -1))	// End of Line (EOL)

  00050	80 fb ff	 cmp	 bl, -1
  00053	74 44		 je	 SHORT $LN39@GetToken

; 44   : 					{
; 45   : 						ch=fgetc(SMDFile);

  00055	8b 15 00 00 00
	00		 mov	 edx, DWORD PTR _SMDFile
  0005b	52		 push	 edx
  0005c	e8 00 00 00 00	 call	 _fgetc
  00061	8a d8		 mov	 bl, al
  00063	83 c4 04	 add	 esp, 4
  00066	80 fb 0a	 cmp	 bl, 10			; 0000000aH
  00069	75 e5		 jne	 SHORT $LL24@GetToken
$LN30@GetToken:

; 46   : 					}
; 47   : 	
; 48   : 					if (ch == -1)
; 49   : 					{
; 50   : 						return END;	// End of FILE
; 51   : 					}
; 52   : 				}
; 53   : 			}
; 54   : 		}
; 55   : 	}
; 56   : 	while (isspace(ch) != 0);

  0006b	0f be c3	 movsx	 eax, bl
  0006e	50		 push	 eax
  0006f	e8 00 00 00 00	 call	 _isspace
  00074	83 c4 04	 add	 esp, 4
  00077	85 c0		 test	 eax, eax
  00079	75 a5		 jne	 SHORT $LL31@GetToken

; 57   : 
; 58   : 	
; 59   : 	switch(ch)

  0007b	0f be c3	 movsx	 eax, bl
  0007e	8d 48 de	 lea	 ecx, DWORD PTR [eax-34]
  00081	56		 push	 esi
  00082	83 f9 5b	 cmp	 ecx, 91			; 0000005bH
  00085	0f 87 2b 01 00
	00		 ja	 $LN6@GetToken
  0008b	0f b6 89 00 00
	00 00		 movzx	 ecx, BYTE PTR $LN46@GetToken[ecx]
  00092	ff 24 8d 00 00
	00 00		 jmp	 DWORD PTR $LN50@GetToken[ecx*4]
$LN39@GetToken:

; 34   : 		{
; 35   : 			return END;	// End of FILE (EOF)

  00099	b8 02 00 00 00	 mov	 eax, 2
  0009e	5b		 pop	 ebx

; 147  : 		}
; 148  : 		break;
; 149  : 
; 150  : 	}
; 151  : 
; 152  : 	return NAME;
; 153  : }

  0009f	8b 4d fc	 mov	 ecx, DWORD PTR __$ArrayPad$[ebp]
  000a2	33 cd		 xor	 ecx, ebp
  000a4	e8 00 00 00 00	 call	 @__security_check_cookie@4
  000a9	8b e5		 mov	 esp, ebp
  000ab	5d		 pop	 ebp
  000ac	c3		 ret	 0
$LN19@GetToken:

; 60   : 	{
; 61   : 
; 62   : 	case 0x23:	// #
; 63   : 		return CurrentToken=COMMAND;

  000ad	b8 23 00 00 00	 mov	 eax, 35			; 00000023H
  000b2	e9 99 01 00 00	 jmp	 $LN48@GetToken
$LN18@GetToken:

; 64   : 		break;
; 65   : 	
; 66   : 	case 0x3B:	// ;
; 67   : 		return CurrentToken=SEMICOLON;

  000b7	b8 3b 00 00 00	 mov	 eax, 59			; 0000003bH
  000bc	e9 8f 01 00 00	 jmp	 $LN48@GetToken
$LN17@GetToken:

; 68   : 		break;
; 69   : 	
; 70   : 	case 0x2C:	// ,
; 71   : 
; 72   : 		return CurrentToken=COMMA;

  000c1	b8 2c 00 00 00	 mov	 eax, 44			; 0000002cH
  000c6	e9 85 01 00 00	 jmp	 $LN48@GetToken
$LN16@GetToken:

; 73   : 		break;
; 74   : 	
; 75   : 	case 0x7B:	// {
; 76   : 		return CurrentToken = LP;

  000cb	b8 7b 00 00 00	 mov	 eax, 123		; 0000007bH
  000d0	e9 7b 01 00 00	 jmp	 $LN48@GetToken
$LN15@GetToken:

; 77   : 		break;
; 78   : 
; 79   : 	case 0x7D:	// }
; 80   : 		return CurrentToken = RP;

  000d5	b8 7d 00 00 00	 mov	 eax, 125		; 0000007dH
  000da	e9 71 01 00 00	 jmp	 $LN48@GetToken
$LN14@GetToken:

; 81   : 		break;
; 82   : 	// Nice Index Table :)	by Deathway
; 83   : 	// Numbers Case
; 84   : 	case 0x2D:	//-
; 85   : 	case 0x2E:	//.
; 86   : 	case '0':	//0
; 87   : 	case '1':	//1
; 88   : 	case '2':	//2
; 89   : 	case '3':	//3
; 90   : 	case '4':	//4		
; 91   : 	case '5':	//5
; 92   : 	case '6':	//6
; 93   : 	case '7':	//7
; 94   : 	case '8':	//8
; 95   : 	case '9':	//9
; 96   : 		ungetc(ch, SMDFile);

  000df	8b 15 00 00 00
	00		 mov	 edx, DWORD PTR _SMDFile
  000e5	52		 push	 edx
  000e6	50		 push	 eax
  000e7	e8 00 00 00 00	 call	 _ungetc

; 97   : 		p = TempString;
; 98   : 		
; 99   : 		while (((ch=getc(SMDFile)) != -1) && ((ch == 0x2E) || (isdigit(ch) != 0) || (ch == 0x2D)))  // 2e '.'  2D '-'

  000ec	a1 00 00 00 00	 mov	 eax, DWORD PTR _SMDFile
  000f1	50		 push	 eax
  000f2	8d 75 98	 lea	 esi, DWORD PTR _TempString$[ebp]
  000f5	e8 00 00 00 00	 call	 _getc
  000fa	8a d8		 mov	 bl, al
  000fc	83 c4 0c	 add	 esp, 12			; 0000000cH
  000ff	80 fb ff	 cmp	 bl, -1
  00102	74 33		 je	 SHORT $LN12@GetToken
$LL13@GetToken:
  00104	80 fb 2e	 cmp	 bl, 46			; 0000002eH
  00107	74 15		 je	 SHORT $LN11@GetToken
  00109	0f be cb	 movsx	 ecx, bl
  0010c	51		 push	 ecx
  0010d	e8 00 00 00 00	 call	 _isdigit
  00112	83 c4 04	 add	 esp, 4
  00115	85 c0		 test	 eax, eax
  00117	75 05		 jne	 SHORT $LN11@GetToken
  00119	80 fb 2d	 cmp	 bl, 45			; 0000002dH
  0011c	75 19		 jne	 SHORT $LN12@GetToken
$LN11@GetToken:
  0011e	8b 15 00 00 00
	00		 mov	 edx, DWORD PTR _SMDFile

; 100  : 		{
; 101  : 			*p = ch;	// Construct a String

  00124	88 1e		 mov	 BYTE PTR [esi], bl
  00126	52		 push	 edx

; 102  : 			p++;

  00127	46		 inc	 esi
  00128	e8 00 00 00 00	 call	 _getc
  0012d	8a d8		 mov	 bl, al
  0012f	83 c4 04	 add	 esp, 4
  00132	80 fb ff	 cmp	 bl, -1
  00135	75 cd		 jne	 SHORT $LL13@GetToken
$LN12@GetToken:

; 103  : 		}		
; 104  : 		*p = 0;
; 105  : 		TokenNumber = atof( TempString);	// Select the first Byte as Main ID

  00137	8d 45 98	 lea	 eax, DWORD PTR _TempString$[ebp]
  0013a	50		 push	 eax
  0013b	c6 06 00	 mov	 BYTE PTR [esi], 0
  0013e	e8 00 00 00 00	 call	 _atof
  00143	d9 1d 00 00 00
	00		 fstp	 DWORD PTR _TokenNumber
  00149	83 c4 04	 add	 esp, 4
  0014c	5e		 pop	 esi

; 106  : 		return CurrentToken  = NUMBER ;

  0014d	c7 05 00 00 00
	00 01 00 00 00	 mov	 DWORD PTR _CurrentToken, 1
  00157	b8 01 00 00 00	 mov	 eax, 1
  0015c	5b		 pop	 ebx

; 147  : 		}
; 148  : 		break;
; 149  : 
; 150  : 	}
; 151  : 
; 152  : 	return NAME;
; 153  : }

  0015d	8b 4d fc	 mov	 ecx, DWORD PTR __$ArrayPad$[ebp]
  00160	33 cd		 xor	 ecx, ebp
  00162	e8 00 00 00 00	 call	 @__security_check_cookie@4
  00167	8b e5		 mov	 esp, ebp
  00169	5d		 pop	 ebp
  0016a	c3		 ret	 0
$LN10@GetToken:

; 107  : 		break;
; 108  : 
; 109  : 	case '\"':	// "	String Case
; 110  : 		p=&TokenString[0];
; 111  : 		
; 112  : 		while (((ch=getc(SMDFile)) != -1 ) && (ch != 0x22))	// nice

  0016b	8b 0d 00 00 00
	00		 mov	 ecx, DWORD PTR _SMDFile
  00171	51		 push	 ecx
  00172	be 00 00 00 00	 mov	 esi, OFFSET _TokenString
  00177	e8 00 00 00 00	 call	 _getc
  0017c	83 c4 04	 add	 esp, 4
  0017f	3c ff		 cmp	 al, -1
  00181	74 1e		 je	 SHORT $LN8@GetToken
$LL9@GetToken:
  00183	3c 22		 cmp	 al, 34			; 00000022H
  00185	0f 84 a1 00 00
	00		 je	 $LN7@GetToken
  0018b	8b 15 00 00 00
	00		 mov	 edx, DWORD PTR _SMDFile

; 113  : 		{
; 114  : 			*p = ch;

  00191	88 06		 mov	 BYTE PTR [esi], al
  00193	52		 push	 edx

; 115  : 			p++;

  00194	46		 inc	 esi
  00195	e8 00 00 00 00	 call	 _getc
  0019a	83 c4 04	 add	 esp, 4
  0019d	3c ff		 cmp	 al, -1
  0019f	75 e2		 jne	 SHORT $LL9@GetToken
$LN8@GetToken:

; 116  : 		}
; 117  : 		if (ch != 0x22 )

  001a1	3c 22		 cmp	 al, 34			; 00000022H
  001a3	0f 84 83 00 00
	00		 je	 $LN7@GetToken

; 118  : 		{
; 119  : 			ungetc(ch, SMDFile);

  001a9	8b 0d 00 00 00
	00		 mov	 ecx, DWORD PTR _SMDFile
  001af	0f be d0	 movsx	 edx, al
  001b2	51		 push	 ecx
  001b3	52		 push	 edx

; 120  : 		}
; 121  : 		*p = 0;
; 122  : 		return CurrentToken = NAME;

  001b4	eb 6e		 jmp	 SHORT $LN49@GetToken
$LN6@GetToken:

; 123  : 		break;
; 124  : 
; 125  : 	default:	// Others
; 126  : 		if (isalpha(ch))

  001b6	50		 push	 eax
  001b7	e8 00 00 00 00	 call	 _isalpha
  001bc	83 c4 04	 add	 esp, 4
  001bf	85 c0		 test	 eax, eax
  001c1	0f 84 84 00 00
	00		 je	 $LN5@GetToken

; 127  : 		{
; 128  : 			p=&TokenString[0];
; 129  : 			*p=ch;
; 130  : 			p++;
; 131  : 
; 132  : 			while ( ((ch=getc(SMDFile)) != -1) && ( (ch == 0x2E) || (ch == 0x5F) || (isalnum(ch) != 0) ) )

  001c7	a1 00 00 00 00	 mov	 eax, DWORD PTR _SMDFile
  001cc	50		 push	 eax
  001cd	88 1d 00 00 00
	00		 mov	 BYTE PTR _TokenString, bl
  001d3	be 01 00 00 00	 mov	 esi, OFFSET _TokenString+1
  001d8	e8 00 00 00 00	 call	 _getc
  001dd	8a d8		 mov	 bl, al
  001df	83 c4 04	 add	 esp, 4
  001e2	80 fb ff	 cmp	 bl, -1
  001e5	74 33		 je	 SHORT $LN3@GetToken
$LL4@GetToken:
  001e7	80 fb 2e	 cmp	 bl, 46			; 0000002eH
  001ea	74 15		 je	 SHORT $LN2@GetToken
  001ec	80 fb 5f	 cmp	 bl, 95			; 0000005fH
  001ef	74 10		 je	 SHORT $LN2@GetToken
  001f1	0f be cb	 movsx	 ecx, bl
  001f4	51		 push	 ecx
  001f5	e8 00 00 00 00	 call	 _isalnum
  001fa	83 c4 04	 add	 esp, 4
  001fd	85 c0		 test	 eax, eax
  001ff	74 19		 je	 SHORT $LN3@GetToken
$LN2@GetToken:
  00201	8b 15 00 00 00
	00		 mov	 edx, DWORD PTR _SMDFile

; 133  : 			{
; 134  : 				*p=ch;

  00207	88 1e		 mov	 BYTE PTR [esi], bl
  00209	52		 push	 edx

; 135  : 				p++;

  0020a	46		 inc	 esi
  0020b	e8 00 00 00 00	 call	 _getc
  00210	8a d8		 mov	 bl, al
  00212	83 c4 04	 add	 esp, 4
  00215	80 fb ff	 cmp	 bl, -1
  00218	75 cd		 jne	 SHORT $LL4@GetToken
$LN3@GetToken:

; 136  : 				
; 137  : 			}
; 138  : 
; 139  : 			ungetc(ch, SMDFile);

  0021a	a1 00 00 00 00	 mov	 eax, DWORD PTR _SMDFile
  0021f	0f be cb	 movsx	 ecx, bl
  00222	50		 push	 eax
  00223	51		 push	 ecx
$LN49@GetToken:
  00224	e8 00 00 00 00	 call	 _ungetc
  00229	83 c4 08	 add	 esp, 8
$LN7@GetToken:

; 140  : 			*p=0;

  0022c	c6 06 00	 mov	 BYTE PTR [esi], 0
  0022f	5e		 pop	 esi

; 141  : 			CurrentToken=NAME;

  00230	c7 05 00 00 00
	00 00 00 00 00	 mov	 DWORD PTR _CurrentToken, 0

; 142  : 			return CurrentToken;

  0023a	33 c0		 xor	 eax, eax
  0023c	5b		 pop	 ebx

; 147  : 		}
; 148  : 		break;
; 149  : 
; 150  : 	}
; 151  : 
; 152  : 	return NAME;
; 153  : }

  0023d	8b 4d fc	 mov	 ecx, DWORD PTR __$ArrayPad$[ebp]
  00240	33 cd		 xor	 ecx, ebp
  00242	e8 00 00 00 00	 call	 @__security_check_cookie@4
  00247	8b e5		 mov	 esp, ebp
  00249	5d		 pop	 ebp
  0024a	c3		 ret	 0
$LN5@GetToken:

; 143  : 		}
; 144  : 		else
; 145  : 		{
; 146  : 			return CurrentToken = SMD_ERROR; // '<'

  0024b	b8 3c 00 00 00	 mov	 eax, 60			; 0000003cH
$LN48@GetToken:

; 147  : 		}
; 148  : 		break;
; 149  : 
; 150  : 	}
; 151  : 
; 152  : 	return NAME;
; 153  : }

  00250	8b 4d fc	 mov	 ecx, DWORD PTR __$ArrayPad$[ebp]
  00253	5e		 pop	 esi
  00254	33 cd		 xor	 ecx, ebp
  00256	a3 00 00 00 00	 mov	 DWORD PTR _CurrentToken, eax
  0025b	5b		 pop	 ebx
  0025c	e8 00 00 00 00	 call	 @__security_check_cookie@4
  00261	8b e5		 mov	 esp, ebp
  00263	5d		 pop	 ebp
  00264	c3		 ret	 0
  00265	8d 49 00	 npad	 3
$LN50@GetToken:
  00268	00 00 00 00	 DD	 $LN10@GetToken
  0026c	00 00 00 00	 DD	 $LN19@GetToken
  00270	00 00 00 00	 DD	 $LN17@GetToken
  00274	00 00 00 00	 DD	 $LN14@GetToken
  00278	00 00 00 00	 DD	 $LN18@GetToken
  0027c	00 00 00 00	 DD	 $LN16@GetToken
  00280	00 00 00 00	 DD	 $LN15@GetToken
  00284	00 00 00 00	 DD	 $LN6@GetToken
$LN46@GetToken:
  00288	00		 DB	 0
  00289	01		 DB	 1
  0028a	07		 DB	 7
  0028b	07		 DB	 7
  0028c	07		 DB	 7
  0028d	07		 DB	 7
  0028e	07		 DB	 7
  0028f	07		 DB	 7
  00290	07		 DB	 7
  00291	07		 DB	 7
  00292	02		 DB	 2
  00293	03		 DB	 3
  00294	03		 DB	 3
  00295	07		 DB	 7
  00296	03		 DB	 3
  00297	03		 DB	 3
  00298	03		 DB	 3
  00299	03		 DB	 3
  0029a	03		 DB	 3
  0029b	03		 DB	 3
  0029c	03		 DB	 3
  0029d	03		 DB	 3
  0029e	03		 DB	 3
  0029f	03		 DB	 3
  002a0	07		 DB	 7
  002a1	04		 DB	 4
  002a2	07		 DB	 7
  002a3	07		 DB	 7
  002a4	07		 DB	 7
  002a5	07		 DB	 7
  002a6	07		 DB	 7
  002a7	07		 DB	 7
  002a8	07		 DB	 7
  002a9	07		 DB	 7
  002aa	07		 DB	 7
  002ab	07		 DB	 7
  002ac	07		 DB	 7
  002ad	07		 DB	 7
  002ae	07		 DB	 7
  002af	07		 DB	 7
  002b0	07		 DB	 7
  002b1	07		 DB	 7
  002b2	07		 DB	 7
  002b3	07		 DB	 7
  002b4	07		 DB	 7
  002b5	07		 DB	 7
  002b6	07		 DB	 7
  002b7	07		 DB	 7
  002b8	07		 DB	 7
  002b9	07		 DB	 7
  002ba	07		 DB	 7
  002bb	07		 DB	 7
  002bc	07		 DB	 7
  002bd	07		 DB	 7
  002be	07		 DB	 7
  002bf	07		 DB	 7
  002c0	07		 DB	 7
  002c1	07		 DB	 7
  002c2	07		 DB	 7
  002c3	07		 DB	 7
  002c4	07		 DB	 7
  002c5	07		 DB	 7
  002c6	07		 DB	 7
  002c7	07		 DB	 7
  002c8	07		 DB	 7
  002c9	07		 DB	 7
  002ca	07		 DB	 7
  002cb	07		 DB	 7
  002cc	07		 DB	 7
  002cd	07		 DB	 7
  002ce	07		 DB	 7
  002cf	07		 DB	 7
  002d0	07		 DB	 7
  002d1	07		 DB	 7
  002d2	07		 DB	 7
  002d3	07		 DB	 7
  002d4	07		 DB	 7
  002d5	07		 DB	 7
  002d6	07		 DB	 7
  002d7	07		 DB	 7
  002d8	07		 DB	 7
  002d9	07		 DB	 7
  002da	07		 DB	 7
  002db	07		 DB	 7
  002dc	07		 DB	 7
  002dd	07		 DB	 7
  002de	07		 DB	 7
  002df	07		 DB	 7
  002e0	07		 DB	 7
  002e1	05		 DB	 5
  002e2	07		 DB	 7
  002e3	06		 DB	 6
?GetToken@@YA?AW4SMDToken@@XZ ENDP			; GetToken
_TEXT	ENDS
PUBLIC	?size@?$vector@UMINIMAP_DATA@@V?$allocator@UMINIMAP_DATA@@@std@@@std@@QBEIXZ ; std::vector<MINIMAP_DATA,std::allocator<MINIMAP_DATA> >::size
; Function compile flags: /Ogtp
; File d:\program files (x86)\microsoft visual studio 10.0\vc\include\vector
;	COMDAT ?size@?$vector@UMINIMAP_DATA@@V?$allocator@UMINIMAP_DATA@@@std@@@std@@QBEIXZ
_TEXT	SEGMENT
?size@?$vector@UMINIMAP_DATA@@V?$allocator@UMINIMAP_DATA@@@std@@@std@@QBEIXZ PROC ; std::vector<MINIMAP_DATA,std::allocator<MINIMAP_DATA> >::size, COMDAT
; _this$ = ecx

; 879  : 		return (this->_Mylast - this->_Myfirst);

  00000	8b 51 04	 mov	 edx, DWORD PTR [ecx+4]
  00003	2b 11		 sub	 edx, DWORD PTR [ecx]
  00005	b8 39 8e e3 38	 mov	 eax, 954437177		; 38e38e39H
  0000a	f7 ea		 imul	 edx
  0000c	c1 fa 03	 sar	 edx, 3
  0000f	8b c2		 mov	 eax, edx
  00011	c1 e8 1f	 shr	 eax, 31			; 0000001fH
  00014	03 c2		 add	 eax, edx

; 880  : 		}

  00016	c3		 ret	 0
?size@?$vector@UMINIMAP_DATA@@V?$allocator@UMINIMAP_DATA@@@std@@@std@@QBEIXZ ENDP ; std::vector<MINIMAP_DATA,std::allocator<MINIMAP_DATA> >::size
_TEXT	ENDS
PUBLIC	??A?$vector@UMINIMAP_DATA@@V?$allocator@UMINIMAP_DATA@@@std@@@std@@QAEAAUMINIMAP_DATA@@I@Z ; std::vector<MINIMAP_DATA,std::allocator<MINIMAP_DATA> >::operator[]
; Function compile flags: /Ogtp
;	COMDAT ??A?$vector@UMINIMAP_DATA@@V?$allocator@UMINIMAP_DATA@@@std@@@std@@QAEAAUMINIMAP_DATA@@I@Z
_TEXT	SEGMENT
__Pos$ = 8						; size = 4
??A?$vector@UMINIMAP_DATA@@V?$allocator@UMINIMAP_DATA@@@std@@@std@@QAEAAUMINIMAP_DATA@@I@Z PROC ; std::vector<MINIMAP_DATA,std::allocator<MINIMAP_DATA> >::operator[], COMDAT
; _this$ = ecx

; 928  : 		{	// subscript mutable sequence

  00000	55		 push	 ebp
  00001	8b ec		 mov	 ebp, esp

; 929  :  #if _ITERATOR_DEBUG_LEVEL == 2
; 930  : 		if (size() <= _Pos)
; 931  : 			{	// report error
; 932  : 			_DEBUG_ERROR("vector subscript out of range");
; 933  : 			_SCL_SECURE_OUT_OF_RANGE;
; 934  : 			}
; 935  : 
; 936  :  #elif _ITERATOR_DEBUG_LEVEL == 1
; 937  : 		_SCL_SECURE_VALIDATE_RANGE(_Pos < size());
; 938  :  #endif /* _ITERATOR_DEBUG_LEVEL */
; 939  : 
; 940  : 		return (*(this->_Myfirst + _Pos));

  00003	8b 45 08	 mov	 eax, DWORD PTR __Pos$[ebp]
  00006	8b 09		 mov	 ecx, DWORD PTR [ecx]
  00008	8d 04 c0	 lea	 eax, DWORD PTR [eax+eax*8]
  0000b	8d 04 81	 lea	 eax, DWORD PTR [ecx+eax*4]

; 941  : 		}

  0000e	5d		 pop	 ebp
  0000f	c2 04 00	 ret	 4
??A?$vector@UMINIMAP_DATA@@V?$allocator@UMINIMAP_DATA@@@std@@@std@@QAEAAUMINIMAP_DATA@@I@Z ENDP ; std::vector<MINIMAP_DATA,std::allocator<MINIMAP_DATA> >::operator[]
_TEXT	ENDS
PUBLIC	?_Inside@?$vector@UMINIMAP_DATA@@V?$allocator@UMINIMAP_DATA@@@std@@@std@@IBE_NPBUMINIMAP_DATA@@@Z ; std::vector<MINIMAP_DATA,std::allocator<MINIMAP_DATA> >::_Inside
; Function compile flags: /Ogtp
;	COMDAT ?_Inside@?$vector@UMINIMAP_DATA@@V?$allocator@UMINIMAP_DATA@@@std@@@std@@IBE_NPBUMINIMAP_DATA@@@Z
_TEXT	SEGMENT
__Ptr$ = 8						; size = 4
?_Inside@?$vector@UMINIMAP_DATA@@V?$allocator@UMINIMAP_DATA@@@std@@@std@@IBE_NPBUMINIMAP_DATA@@@Z PROC ; std::vector<MINIMAP_DATA,std::allocator<MINIMAP_DATA> >::_Inside, COMDAT
; _this$ = ecx

; 1285 : 		{	// test if _Ptr points inside vector

  00000	55		 push	 ebp
  00001	8b ec		 mov	 ebp, esp

; 1286 : 		return (_Ptr < this->_Mylast && this->_Myfirst <= _Ptr);

  00003	8b 45 08	 mov	 eax, DWORD PTR __Ptr$[ebp]
  00006	3b 41 04	 cmp	 eax, DWORD PTR [ecx+4]
  00009	73 0d		 jae	 SHORT $LN3@Inside
  0000b	39 01		 cmp	 DWORD PTR [ecx], eax
  0000d	77 09		 ja	 SHORT $LN3@Inside
  0000f	b8 01 00 00 00	 mov	 eax, 1

; 1287 : 		}

  00014	5d		 pop	 ebp
  00015	c2 04 00	 ret	 4
$LN3@Inside:

; 1286 : 		return (_Ptr < this->_Mylast && this->_Myfirst <= _Ptr);

  00018	33 c0		 xor	 eax, eax

; 1287 : 		}

  0001a	5d		 pop	 ebp
  0001b	c2 04 00	 ret	 4
?_Inside@?$vector@UMINIMAP_DATA@@V?$allocator@UMINIMAP_DATA@@@std@@@std@@IBE_NPBUMINIMAP_DATA@@@Z ENDP ; std::vector<MINIMAP_DATA,std::allocator<MINIMAP_DATA> >::_Inside
_TEXT	ENDS
PUBLIC	?_Orphan_range@?$vector@UMINIMAP_DATA@@V?$allocator@UMINIMAP_DATA@@@std@@@std@@IBEXPAUMINIMAP_DATA@@0@Z ; std::vector<MINIMAP_DATA,std::allocator<MINIMAP_DATA> >::_Orphan_range
; Function compile flags: /Ogtp
;	COMDAT ?_Orphan_range@?$vector@UMINIMAP_DATA@@V?$allocator@UMINIMAP_DATA@@@std@@@std@@IBEXPAUMINIMAP_DATA@@0@Z
_TEXT	SEGMENT
___formal$ = 8						; size = 4
___formal$ = 12						; size = 4
?_Orphan_range@?$vector@UMINIMAP_DATA@@V?$allocator@UMINIMAP_DATA@@@std@@@std@@IBEXPAUMINIMAP_DATA@@0@Z PROC ; std::vector<MINIMAP_DATA,std::allocator<MINIMAP_DATA> >::_Orphan_range, COMDAT
; _this$ = ecx

; 1454 : 		}

  00000	c2 08 00	 ret	 8
?_Orphan_range@?$vector@UMINIMAP_DATA@@V?$allocator@UMINIMAP_DATA@@@std@@@std@@IBEXPAUMINIMAP_DATA@@0@Z ENDP ; std::vector<MINIMAP_DATA,std::allocator<MINIMAP_DATA> >::_Orphan_range
_TEXT	ENDS
PUBLIC	??1?$_Vector_val@UMINIMAP_DATA@@V?$allocator@UMINIMAP_DATA@@@std@@@std@@QAE@XZ ; std::_Vector_val<MINIMAP_DATA,std::allocator<MINIMAP_DATA> >::~_Vector_val<MINIMAP_DATA,std::allocator<MINIMAP_DATA> >
; Function compile flags: /Ogtp
;	COMDAT ??1?$_Vector_val@UMINIMAP_DATA@@V?$allocator@UMINIMAP_DATA@@@std@@@std@@QAE@XZ
_TEXT	SEGMENT
??1?$_Vector_val@UMINIMAP_DATA@@V?$allocator@UMINIMAP_DATA@@@std@@@std@@QAE@XZ PROC ; std::_Vector_val<MINIMAP_DATA,std::allocator<MINIMAP_DATA> >::~_Vector_val<MINIMAP_DATA,std::allocator<MINIMAP_DATA> >, COMDAT
; _this$ = ecx

; 434  : 		}

  00000	c3		 ret	 0
??1?$_Vector_val@UMINIMAP_DATA@@V?$allocator@UMINIMAP_DATA@@@std@@@std@@QAE@XZ ENDP ; std::_Vector_val<MINIMAP_DATA,std::allocator<MINIMAP_DATA> >::~_Vector_val<MINIMAP_DATA,std::allocator<MINIMAP_DATA> >
_TEXT	ENDS
PUBLIC	??0?$allocator@UMINIMAP_DATA@@@std@@QAE@XZ	; std::allocator<MINIMAP_DATA>::allocator<MINIMAP_DATA>
; Function compile flags: /Ogtp
; File d:\program files (x86)\microsoft visual studio 10.0\vc\include\xmemory
;	COMDAT ??0?$allocator@UMINIMAP_DATA@@@std@@QAE@XZ
_TEXT	SEGMENT
??0?$allocator@UMINIMAP_DATA@@@std@@QAE@XZ PROC		; std::allocator<MINIMAP_DATA>::allocator<MINIMAP_DATA>, COMDAT
; _this$ = ecx

; 161  : 	_ALLOCATOR() _THROW0()

  00000	8b c1		 mov	 eax, ecx

; 162  : 		{	// construct default allocator (do nothing)
; 163  : 		}

  00002	c3		 ret	 0
??0?$allocator@UMINIMAP_DATA@@@std@@QAE@XZ ENDP		; std::allocator<MINIMAP_DATA>::allocator<MINIMAP_DATA>
_TEXT	ENDS
PUBLIC	?capacity@?$vector@UMINIMAP_DATA@@V?$allocator@UMINIMAP_DATA@@@std@@@std@@QBEIXZ ; std::vector<MINIMAP_DATA,std::allocator<MINIMAP_DATA> >::capacity
; Function compile flags: /Ogtp
; File d:\program files (x86)\microsoft visual studio 10.0\vc\include\vector
;	COMDAT ?capacity@?$vector@UMINIMAP_DATA@@V?$allocator@UMINIMAP_DATA@@@std@@@std@@QBEIXZ
_TEXT	SEGMENT
?capacity@?$vector@UMINIMAP_DATA@@V?$allocator@UMINIMAP_DATA@@@std@@@std@@QBEIXZ PROC ; std::vector<MINIMAP_DATA,std::allocator<MINIMAP_DATA> >::capacity, COMDAT
; _this$ = ecx

; 777  : 		return (this->_Myend - this->_Myfirst);

  00000	8b 51 08	 mov	 edx, DWORD PTR [ecx+8]
  00003	2b 11		 sub	 edx, DWORD PTR [ecx]
  00005	b8 39 8e e3 38	 mov	 eax, 954437177		; 38e38e39H
  0000a	f7 ea		 imul	 edx
  0000c	c1 fa 03	 sar	 edx, 3
  0000f	8b c2		 mov	 eax, edx
  00011	c1 e8 1f	 shr	 eax, 31			; 0000001fH
  00014	03 c2		 add	 eax, edx

; 778  : 		}

  00016	c3		 ret	 0
?capacity@?$vector@UMINIMAP_DATA@@V?$allocator@UMINIMAP_DATA@@@std@@@std@@QBEIXZ ENDP ; std::vector<MINIMAP_DATA,std::allocator<MINIMAP_DATA> >::capacity
_TEXT	ENDS
PUBLIC	??_C@_0BD@OLBABOEK@vector?$DMT?$DO?5too?5long?$AA@ ; `string'
PUBLIC	?_Xlen@?$vector@UMINIMAP_DATA@@V?$allocator@UMINIMAP_DATA@@@std@@@std@@IBEXXZ ; std::vector<MINIMAP_DATA,std::allocator<MINIMAP_DATA> >::_Xlen
EXTRN	?_Xlength_error@std@@YAXPBD@Z:PROC		; std::_Xlength_error
;	COMDAT ??_C@_0BD@OLBABOEK@vector?$DMT?$DO?5too?5long?$AA@
CONST	SEGMENT
??_C@_0BD@OLBABOEK@vector?$DMT?$DO?5too?5long?$AA@ DB 'vector<T> too long'
	DB	00H						; `string'
; Function compile flags: /Ogtp
CONST	ENDS
;	COMDAT ?_Xlen@?$vector@UMINIMAP_DATA@@V?$allocator@UMINIMAP_DATA@@@std@@@std@@IBEXXZ
_TEXT	SEGMENT
?_Xlen@?$vector@UMINIMAP_DATA@@V?$allocator@UMINIMAP_DATA@@@std@@@std@@IBEXXZ PROC ; std::vector<MINIMAP_DATA,std::allocator<MINIMAP_DATA> >::_Xlen, COMDAT
; _this$ = ecx

; 1427 : 		_Xlength_error("vector<T> too long");

  00000	68 00 00 00 00	 push	 OFFSET ??_C@_0BD@OLBABOEK@vector?$DMT?$DO?5too?5long?$AA@
  00005	e8 00 00 00 00	 call	 ?_Xlength_error@std@@YAXPBD@Z ; std::_Xlength_error
$LN4@Xlen:
$LN3@Xlen:
  0000a	cc		 int	 3
?_Xlen@?$vector@UMINIMAP_DATA@@V?$allocator@UMINIMAP_DATA@@@std@@@std@@IBEXXZ ENDP ; std::vector<MINIMAP_DATA,std::allocator<MINIMAP_DATA> >::_Xlen
_TEXT	ENDS
PUBLIC	??0?$allocator@UMINIMAP_DATA@@@std@@QAE@ABV01@@Z ; std::allocator<MINIMAP_DATA>::allocator<MINIMAP_DATA>
; Function compile flags: /Ogtp
; File d:\program files (x86)\microsoft visual studio 10.0\vc\include\xmemory
;	COMDAT ??0?$allocator@UMINIMAP_DATA@@@std@@QAE@ABV01@@Z
_TEXT	SEGMENT
___formal$ = 8						; size = 4
??0?$allocator@UMINIMAP_DATA@@@std@@QAE@ABV01@@Z PROC	; std::allocator<MINIMAP_DATA>::allocator<MINIMAP_DATA>, COMDAT
; _this$ = ecx

; 165  : 	_ALLOCATOR(const _ALLOCATOR<_Ty>&) _THROW0()

  00000	8b c1		 mov	 eax, ecx

; 166  : 		{	// construct by copying (do nothing)
; 167  : 		}

  00002	c2 04 00	 ret	 4
??0?$allocator@UMINIMAP_DATA@@@std@@QAE@ABV01@@Z ENDP	; std::allocator<MINIMAP_DATA>::allocator<MINIMAP_DATA>
_TEXT	ENDS
PUBLIC	?deallocate@?$allocator@UMINIMAP_DATA@@@std@@QAEXPAUMINIMAP_DATA@@I@Z ; std::allocator<MINIMAP_DATA>::deallocate
EXTRN	??3@YAXPAX@Z:PROC				; operator delete
; Function compile flags: /Ogtp
;	COMDAT ?deallocate@?$allocator@UMINIMAP_DATA@@@std@@QAEXPAUMINIMAP_DATA@@I@Z
_TEXT	SEGMENT
__Ptr$ = 8						; size = 4
___formal$ = 12						; size = 4
?deallocate@?$allocator@UMINIMAP_DATA@@@std@@QAEXPAUMINIMAP_DATA@@I@Z PROC ; std::allocator<MINIMAP_DATA>::deallocate, COMDAT
; _this$ = ecx

; 181  : 		{	// deallocate object at _Ptr, ignore size

  00000	55		 push	 ebp
  00001	8b ec		 mov	 ebp, esp

; 182  : 		::operator delete(_Ptr);

  00003	8b 45 08	 mov	 eax, DWORD PTR __Ptr$[ebp]
  00006	50		 push	 eax
  00007	e8 00 00 00 00	 call	 ??3@YAXPAX@Z		; operator delete
  0000c	83 c4 04	 add	 esp, 4

; 183  : 		}

  0000f	5d		 pop	 ebp
  00010	c2 08 00	 ret	 8
?deallocate@?$allocator@UMINIMAP_DATA@@@std@@QAEXPAUMINIMAP_DATA@@I@Z ENDP ; std::allocator<MINIMAP_DATA>::deallocate
_TEXT	ENDS
PUBLIC	?max_size@?$allocator@UMINIMAP_DATA@@@std@@QBEIXZ ; std::allocator<MINIMAP_DATA>::max_size
; Function compile flags: /Ogtp
;	COMDAT ?max_size@?$allocator@UMINIMAP_DATA@@@std@@QBEIXZ
_TEXT	SEGMENT
?max_size@?$allocator@UMINIMAP_DATA@@@std@@QBEIXZ PROC	; std::allocator<MINIMAP_DATA>::max_size, COMDAT
; _this$ = ecx

; 218  : 		_SIZT _Count = (_SIZT)(-1) / sizeof (_Ty);
; 219  : 		return (0 < _Count ? _Count : 1);

  00000	b8 c7 71 1c 07	 mov	 eax, 119304647		; 071c71c7H

; 220  : 		}

  00005	c3		 ret	 0
?max_size@?$allocator@UMINIMAP_DATA@@@std@@QBEIXZ ENDP	; std::allocator<MINIMAP_DATA>::max_size
_TEXT	ENDS
PUBLIC	?_Compat@?$_Vector_const_iterator@V?$_Vector_val@UMINIMAP_DATA@@V?$allocator@UMINIMAP_DATA@@@std@@@std@@@std@@QBEXABV12@@Z ; std::_Vector_const_iterator<std::_Vector_val<MINIMAP_DATA,std::allocator<MINIMAP_DATA> > >::_Compat
; Function compile flags: /Ogtp
; File d:\program files (x86)\microsoft visual studio 10.0\vc\include\vector
;	COMDAT ?_Compat@?$_Vector_const_iterator@V?$_Vector_val@UMINIMAP_DATA@@V?$allocator@UMINIMAP_DATA@@@std@@@std@@@std@@QBEXABV12@@Z
_TEXT	SEGMENT
___formal$ = 8						; size = 4
?_Compat@?$_Vector_const_iterator@V?$_Vector_val@UMINIMAP_DATA@@V?$allocator@UMINIMAP_DATA@@@std@@@std@@@std@@QBEXABV12@@Z PROC ; std::_Vector_const_iterator<std::_Vector_val<MINIMAP_DATA,std::allocator<MINIMAP_DATA> > >::_Compat, COMDAT
; _this$ = ecx

; 253  : 		}

  00000	c2 04 00	 ret	 4
?_Compat@?$_Vector_const_iterator@V?$_Vector_val@UMINIMAP_DATA@@V?$allocator@UMINIMAP_DATA@@@std@@@std@@@std@@QBEXABV12@@Z ENDP ; std::_Vector_const_iterator<std::_Vector_val<MINIMAP_DATA,std::allocator<MINIMAP_DATA> > >::_Compat
_TEXT	ENDS
PUBLIC	??$addressof@$$CBUMINIMAP_DATA@@@std@@YAPBUMINIMAP_DATA@@ABU1@@Z ; std::addressof<MINIMAP_DATA const >
; Function compile flags: /Ogtp
; File d:\program files (x86)\microsoft visual studio 10.0\vc\include\xmemory
;	COMDAT ??$addressof@$$CBUMINIMAP_DATA@@@std@@YAPBUMINIMAP_DATA@@ABU1@@Z
_TEXT	SEGMENT
__Val$ = 8						; size = 4
??$addressof@$$CBUMINIMAP_DATA@@@std@@YAPBUMINIMAP_DATA@@ABU1@@Z PROC ; std::addressof<MINIMAP_DATA const >, COMDAT

; 110  : 	{	// return address of _Val

  00000	55		 push	 ebp
  00001	8b ec		 mov	 ebp, esp

; 111  : 	return ((_Ty *) &(char&)_Val);

  00003	8b 45 08	 mov	 eax, DWORD PTR __Val$[ebp]

; 112  : 	}

  00006	5d		 pop	 ebp
  00007	c3		 ret	 0
??$addressof@$$CBUMINIMAP_DATA@@@std@@YAPBUMINIMAP_DATA@@ABU1@@Z ENDP ; std::addressof<MINIMAP_DATA const >
_TEXT	ENDS
PUBLIC	??$forward@AAUMINIMAP_DATA@@@std@@YAAAUMINIMAP_DATA@@AAU1@@Z ; std::forward<MINIMAP_DATA &>
; Function compile flags: /Ogtp
; File d:\program files (x86)\microsoft visual studio 10.0\vc\include\utility
;	COMDAT ??$forward@AAUMINIMAP_DATA@@@std@@YAAAUMINIMAP_DATA@@AAU1@@Z
_TEXT	SEGMENT
__Arg$ = 8						; size = 4
??$forward@AAUMINIMAP_DATA@@@std@@YAAAUMINIMAP_DATA@@AAU1@@Z PROC ; std::forward<MINIMAP_DATA &>, COMDAT

; 78   : 	{	// forward _Arg, given explicitly specified type parameter

  00000	55		 push	 ebp
  00001	8b ec		 mov	 ebp, esp

; 79   : 	return ((_Ty&&)_Arg);

  00003	8b 45 08	 mov	 eax, DWORD PTR __Arg$[ebp]

; 80   : 	}

  00006	5d		 pop	 ebp
  00007	c3		 ret	 0
??$forward@AAUMINIMAP_DATA@@@std@@YAAAUMINIMAP_DATA@@AAU1@@Z ENDP ; std::forward<MINIMAP_DATA &>
_TEXT	ENDS
PUBLIC	??$construct@AAUMINIMAP_DATA@@@?$allocator@UMINIMAP_DATA@@@std@@QAEXPAUMINIMAP_DATA@@AAU2@@Z ; std::allocator<MINIMAP_DATA>::construct<MINIMAP_DATA &>
; Function compile flags: /Ogtp
; File d:\program files (x86)\microsoft visual studio 10.0\vc\include\xmemory
;	COMDAT ??$construct@AAUMINIMAP_DATA@@@?$allocator@UMINIMAP_DATA@@@std@@QAEXPAUMINIMAP_DATA@@AAU2@@Z
_TEXT	SEGMENT
__Ptr$ = 8						; size = 4
__Val$ = 12						; size = 4
??$construct@AAUMINIMAP_DATA@@@?$allocator@UMINIMAP_DATA@@@std@@QAEXPAUMINIMAP_DATA@@AAU2@@Z PROC ; std::allocator<MINIMAP_DATA>::construct<MINIMAP_DATA &>, COMDAT
; _this$ = ecx

; 206  : 		void construct(pointer _Ptr, _Other&& _Val)

  00000	55		 push	 ebp
  00001	8b ec		 mov	 ebp, esp
  00003	57		 push	 edi

; 207  : 		{	// construct object at _Ptr with value _Val
; 208  : 		::new ((void _FARQ *)_Ptr) _Ty(_STD forward<_Other>(_Val));

  00004	8b 7d 08	 mov	 edi, DWORD PTR __Ptr$[ebp]
  00007	85 ff		 test	 edi, edi
  00009	74 0c		 je	 SHORT $LN3@construct
  0000b	56		 push	 esi
  0000c	8b 75 0c	 mov	 esi, DWORD PTR __Val$[ebp]
  0000f	b9 09 00 00 00	 mov	 ecx, 9
  00014	f3 a5		 rep movsd
  00016	5e		 pop	 esi
$LN3@construct:
  00017	5f		 pop	 edi

; 209  : 		}

  00018	5d		 pop	 ebp
  00019	c2 08 00	 ret	 8
??$construct@AAUMINIMAP_DATA@@@?$allocator@UMINIMAP_DATA@@@std@@QAEXPAUMINIMAP_DATA@@AAU2@@Z ENDP ; std::allocator<MINIMAP_DATA>::construct<MINIMAP_DATA &>
_TEXT	ENDS
PUBLIC	??$forward@ABUMINIMAP_DATA@@@std@@YAABUMINIMAP_DATA@@ABU1@@Z ; std::forward<MINIMAP_DATA const &>
; Function compile flags: /Ogtp
; File d:\program files (x86)\microsoft visual studio 10.0\vc\include\utility
;	COMDAT ??$forward@ABUMINIMAP_DATA@@@std@@YAABUMINIMAP_DATA@@ABU1@@Z
_TEXT	SEGMENT
__Arg$ = 8						; size = 4
??$forward@ABUMINIMAP_DATA@@@std@@YAABUMINIMAP_DATA@@ABU1@@Z PROC ; std::forward<MINIMAP_DATA const &>, COMDAT

; 78   : 	{	// forward _Arg, given explicitly specified type parameter

  00000	55		 push	 ebp
  00001	8b ec		 mov	 ebp, esp

; 79   : 	return ((_Ty&&)_Arg);

  00003	8b 45 08	 mov	 eax, DWORD PTR __Arg$[ebp]

; 80   : 	}

  00006	5d		 pop	 ebp
  00007	c3		 ret	 0
??$forward@ABUMINIMAP_DATA@@@std@@YAABUMINIMAP_DATA@@ABU1@@Z ENDP ; std::forward<MINIMAP_DATA const &>
_TEXT	ENDS
PUBLIC	??$_Ptr_cat@UMINIMAP_DATA@@U1@@std@@YA?AU_Nonscalar_ptr_iterator_tag@0@PAUMINIMAP_DATA@@0@Z ; std::_Ptr_cat<MINIMAP_DATA,MINIMAP_DATA>
; Function compile flags: /Ogtp
; File d:\program files (x86)\microsoft visual studio 10.0\vc\include\xutility
;	COMDAT ??$_Ptr_cat@UMINIMAP_DATA@@U1@@std@@YA?AU_Nonscalar_ptr_iterator_tag@0@PAUMINIMAP_DATA@@0@Z
_TEXT	SEGMENT
__Cat$ = -1						; size = 1
___formal$ = 8						; size = 4
___formal$ = 12						; size = 4
??$_Ptr_cat@UMINIMAP_DATA@@U1@@std@@YA?AU_Nonscalar_ptr_iterator_tag@0@PAUMINIMAP_DATA@@0@Z PROC ; std::_Ptr_cat<MINIMAP_DATA,MINIMAP_DATA>, COMDAT

; 516  : 	{	// return pointer category from pointers

  00000	55		 push	 ebp
  00001	8b ec		 mov	 ebp, esp
  00003	51		 push	 ecx

; 517  : 	typename _Ptr_cat_helper<_Elem1, _Elem2>::_Type _Cat;
; 518  : 	return (_Cat);

  00004	8a 45 ff	 mov	 al, BYTE PTR __Cat$[ebp]

; 519  : 	}

  00007	8b e5		 mov	 esp, ebp
  00009	5d		 pop	 ebp
  0000a	c3		 ret	 0
??$_Ptr_cat@UMINIMAP_DATA@@U1@@std@@YA?AU_Nonscalar_ptr_iterator_tag@0@PAUMINIMAP_DATA@@0@Z ENDP ; std::_Ptr_cat<MINIMAP_DATA,MINIMAP_DATA>
_TEXT	ENDS
PUBLIC	??$_Construct@UMINIMAP_DATA@@ABU1@@std@@YAXPAUMINIMAP_DATA@@ABU1@@Z ; std::_Construct<MINIMAP_DATA,MINIMAP_DATA const &>
; Function compile flags: /Ogtp
; File d:\program files (x86)\microsoft visual studio 10.0\vc\include\xmemory
;	COMDAT ??$_Construct@UMINIMAP_DATA@@ABU1@@std@@YAXPAUMINIMAP_DATA@@ABU1@@Z
_TEXT	SEGMENT
__Ptr$ = 8						; size = 4
__Val$ = 12						; size = 4
??$_Construct@UMINIMAP_DATA@@ABU1@@std@@YAXPAUMINIMAP_DATA@@ABU1@@Z PROC ; std::_Construct<MINIMAP_DATA,MINIMAP_DATA const &>, COMDAT

; 46   : 	{	// construct object at _Ptr with value _Val

  00000	55		 push	 ebp
  00001	8b ec		 mov	 ebp, esp
  00003	57		 push	 edi

; 47   : 	void _FARQ *_Vptr = _Ptr;
; 48   : 	::new (_Vptr) _Ty1(_STD forward<_Ty2>(_Val));

  00004	8b 7d 08	 mov	 edi, DWORD PTR __Ptr$[ebp]
  00007	85 ff		 test	 edi, edi
  00009	74 0c		 je	 SHORT $LN3@Construct
  0000b	56		 push	 esi
  0000c	8b 75 0c	 mov	 esi, DWORD PTR __Val$[ebp]
  0000f	b9 09 00 00 00	 mov	 ecx, 9
  00014	f3 a5		 rep movsd
  00016	5e		 pop	 esi
$LN3@Construct:
  00017	5f		 pop	 edi

; 49   : 	}

  00018	5d		 pop	 ebp
  00019	c3		 ret	 0
??$_Construct@UMINIMAP_DATA@@ABU1@@std@@YAXPAUMINIMAP_DATA@@ABU1@@Z ENDP ; std::_Construct<MINIMAP_DATA,MINIMAP_DATA const &>
_TEXT	ENDS
PUBLIC	??$move@AAUMINIMAP_DATA@@@std@@YA$$QAUMINIMAP_DATA@@AAU1@@Z ; std::move<MINIMAP_DATA &>
; Function compile flags: /Ogtp
; File d:\program files (x86)\microsoft visual studio 10.0\vc\include\utility
;	COMDAT ??$move@AAUMINIMAP_DATA@@@std@@YA$$QAUMINIMAP_DATA@@AAU1@@Z
_TEXT	SEGMENT
__Arg$ = 8						; size = 4
??$move@AAUMINIMAP_DATA@@@std@@YA$$QAUMINIMAP_DATA@@AAU1@@Z PROC ; std::move<MINIMAP_DATA &>, COMDAT

; 86   : 	{	// forward _Arg as movable

  00000	55		 push	 ebp
  00001	8b ec		 mov	 ebp, esp

; 87   : 	return ((typename tr1::_Remove_reference<_Ty>::_Type&&)_Arg);

  00003	8b 45 08	 mov	 eax, DWORD PTR __Arg$[ebp]

; 88   : 	}

  00006	5d		 pop	 ebp
  00007	c3		 ret	 0
??$move@AAUMINIMAP_DATA@@@std@@YA$$QAUMINIMAP_DATA@@AAU1@@Z ENDP ; std::move<MINIMAP_DATA &>
_TEXT	ENDS
PUBLIC	??$_Val_type@PAUMINIMAP_DATA@@@std@@YAPAUMINIMAP_DATA@@PAU1@@Z ; std::_Val_type<MINIMAP_DATA *>
; Function compile flags: /Ogtp
; File d:\program files (x86)\microsoft visual studio 10.0\vc\include\xutility
;	COMDAT ??$_Val_type@PAUMINIMAP_DATA@@@std@@YAPAUMINIMAP_DATA@@PAU1@@Z
_TEXT	SEGMENT
___formal$ = 8						; size = 4
??$_Val_type@PAUMINIMAP_DATA@@@std@@YAPAUMINIMAP_DATA@@PAU1@@Z PROC ; std::_Val_type<MINIMAP_DATA *>, COMDAT

; 790  : 	return (0);

  00000	33 c0		 xor	 eax, eax

; 791  : 	}

  00002	c3		 ret	 0
??$_Val_type@PAUMINIMAP_DATA@@@std@@YAPAUMINIMAP_DATA@@PAU1@@Z ENDP ; std::_Val_type<MINIMAP_DATA *>
_TEXT	ENDS
PUBLIC	??$_Destroy@UMINIMAP_DATA@@@std@@YAXPAUMINIMAP_DATA@@@Z ; std::_Destroy<MINIMAP_DATA>
; Function compile flags: /Ogtp
; File d:\program files (x86)\microsoft visual studio 10.0\vc\include\xmemory
;	COMDAT ??$_Destroy@UMINIMAP_DATA@@@std@@YAXPAUMINIMAP_DATA@@@Z
_TEXT	SEGMENT
__Ptr$ = 8						; size = 4
??$_Destroy@UMINIMAP_DATA@@@std@@YAXPAUMINIMAP_DATA@@@Z PROC ; std::_Destroy<MINIMAP_DATA>, COMDAT

; 63   : 	_Ptr->~_Ty();
; 64   : 	}

  00000	c3		 ret	 0
??$_Destroy@UMINIMAP_DATA@@@std@@YAXPAUMINIMAP_DATA@@@Z ENDP ; std::_Destroy<MINIMAP_DATA>
_TEXT	ENDS
PUBLIC	??$forward@UMINIMAP_DATA@@@std@@YA$$QAUMINIMAP_DATA@@AAU1@@Z ; std::forward<MINIMAP_DATA>
; Function compile flags: /Ogtp
; File d:\program files (x86)\microsoft visual studio 10.0\vc\include\utility
;	COMDAT ??$forward@UMINIMAP_DATA@@@std@@YA$$QAUMINIMAP_DATA@@AAU1@@Z
_TEXT	SEGMENT
__Arg$ = 8						; size = 4
??$forward@UMINIMAP_DATA@@@std@@YA$$QAUMINIMAP_DATA@@AAU1@@Z PROC ; std::forward<MINIMAP_DATA>, COMDAT

; 78   : 	{	// forward _Arg, given explicitly specified type parameter

  00000	55		 push	 ebp
  00001	8b ec		 mov	 ebp, esp

; 79   : 	return ((_Ty&&)_Arg);

  00003	8b 45 08	 mov	 eax, DWORD PTR __Arg$[ebp]

; 80   : 	}

  00006	5d		 pop	 ebp
  00007	c3		 ret	 0
??$forward@UMINIMAP_DATA@@@std@@YA$$QAUMINIMAP_DATA@@AAU1@@Z ENDP ; std::forward<MINIMAP_DATA>
_TEXT	ENDS
PUBLIC	??_7bad_alloc@std@@6B@				; std::bad_alloc::`vftable'
PUBLIC	??0bad_alloc@std@@QAE@PBD@Z			; std::bad_alloc::bad_alloc
PUBLIC	??_R4bad_alloc@std@@6B@				; std::bad_alloc::`RTTI Complete Object Locator'
PUBLIC	??_R0?AVbad_alloc@std@@@8			; std::bad_alloc `RTTI Type Descriptor'
PUBLIC	??_R3bad_alloc@std@@8				; std::bad_alloc::`RTTI Class Hierarchy Descriptor'
PUBLIC	??_R2bad_alloc@std@@8				; std::bad_alloc::`RTTI Base Class Array'
PUBLIC	??_R1A@?0A@EA@bad_alloc@std@@8			; std::bad_alloc::`RTTI Base Class Descriptor at (0,-1,0,64)'
PUBLIC	??_R1A@?0A@EA@exception@std@@8			; std::exception::`RTTI Base Class Descriptor at (0,-1,0,64)'
PUBLIC	??_R0?AVexception@std@@@8			; std::exception `RTTI Type Descriptor'
PUBLIC	??_R3exception@std@@8				; std::exception::`RTTI Class Hierarchy Descriptor'
PUBLIC	??_R2exception@std@@8				; std::exception::`RTTI Base Class Array'
EXTRN	??0exception@std@@QAE@ABQBD@Z:PROC		; std::exception::exception
EXTRN	??_7type_info@@6B@:QWORD			; type_info::`vftable'
EXTRN	??_Ebad_alloc@std@@UAEPAXI@Z:PROC		; std::bad_alloc::`vector deleting destructor'
EXTRN	?what@exception@std@@UBEPBDXZ:PROC		; std::exception::what
;	COMDAT ??_R2exception@std@@8
; File d:\program files (x86)\microsoft visual studio 10.0\vc\include\exception
rdata$r	SEGMENT
??_R2exception@std@@8 DD FLAT:??_R1A@?0A@EA@exception@std@@8 ; std::exception::`RTTI Base Class Array'
rdata$r	ENDS
;	COMDAT ??_R3exception@std@@8
rdata$r	SEGMENT
??_R3exception@std@@8 DD 00H				; std::exception::`RTTI Class Hierarchy Descriptor'
	DD	00H
	DD	01H
	DD	FLAT:??_R2exception@std@@8
rdata$r	ENDS
;	COMDAT ??_R0?AVexception@std@@@8
_DATA	SEGMENT
??_R0?AVexception@std@@@8 DD FLAT:??_7type_info@@6B@	; std::exception `RTTI Type Descriptor'
	DD	00H
	DB	'.?AVexception@std@@', 00H
_DATA	ENDS
;	COMDAT ??_R1A@?0A@EA@exception@std@@8
rdata$r	SEGMENT
??_R1A@?0A@EA@exception@std@@8 DD FLAT:??_R0?AVexception@std@@@8 ; std::exception::`RTTI Base Class Descriptor at (0,-1,0,64)'
	DD	00H
	DD	00H
	DD	0ffffffffH
	DD	00H
	DD	040H
	DD	FLAT:??_R3exception@std@@8
rdata$r	ENDS
;	COMDAT ??_R1A@?0A@EA@bad_alloc@std@@8
rdata$r	SEGMENT
??_R1A@?0A@EA@bad_alloc@std@@8 DD FLAT:??_R0?AVbad_alloc@std@@@8 ; std::bad_alloc::`RTTI Base Class Descriptor at (0,-1,0,64)'
	DD	01H
	DD	00H
	DD	0ffffffffH
	DD	00H
	DD	040H
	DD	FLAT:??_R3bad_alloc@std@@8
rdata$r	ENDS
;	COMDAT ??_R2bad_alloc@std@@8
rdata$r	SEGMENT
??_R2bad_alloc@std@@8 DD FLAT:??_R1A@?0A@EA@bad_alloc@std@@8 ; std::bad_alloc::`RTTI Base Class Array'
	DD	FLAT:??_R1A@?0A@EA@exception@std@@8
rdata$r	ENDS
;	COMDAT ??_R3bad_alloc@std@@8
rdata$r	SEGMENT
??_R3bad_alloc@std@@8 DD 00H				; std::bad_alloc::`RTTI Class Hierarchy Descriptor'
	DD	00H
	DD	02H
	DD	FLAT:??_R2bad_alloc@std@@8
rdata$r	ENDS
;	COMDAT ??_R0?AVbad_alloc@std@@@8
_DATA	SEGMENT
??_R0?AVbad_alloc@std@@@8 DD FLAT:??_7type_info@@6B@	; std::bad_alloc `RTTI Type Descriptor'
	DD	00H
	DB	'.?AVbad_alloc@std@@', 00H
_DATA	ENDS
;	COMDAT ??_R4bad_alloc@std@@6B@
rdata$r	SEGMENT
??_R4bad_alloc@std@@6B@ DD 00H				; std::bad_alloc::`RTTI Complete Object Locator'
	DD	00H
	DD	00H
	DD	FLAT:??_R0?AVbad_alloc@std@@@8
	DD	FLAT:??_R3bad_alloc@std@@8
rdata$r	ENDS
;	COMDAT ??_7bad_alloc@std@@6B@
CONST	SEGMENT
??_7bad_alloc@std@@6B@ DD FLAT:??_R4bad_alloc@std@@6B@	; std::bad_alloc::`vftable'
	DD	FLAT:??_Ebad_alloc@std@@UAEPAXI@Z
	DD	FLAT:?what@exception@std@@UBEPBDXZ
; Function compile flags: /Ogtp
CONST	ENDS
;	COMDAT ??0bad_alloc@std@@QAE@PBD@Z
_TEXT	SEGMENT
__Message$ = 8						; size = 4
??0bad_alloc@std@@QAE@PBD@Z PROC			; std::bad_alloc::bad_alloc, COMDAT
; _this$ = ecx

; 345  : 		{	// construct from message string

  00000	55		 push	 ebp
  00001	8b ec		 mov	 ebp, esp
  00003	56		 push	 esi
  00004	8d 45 08	 lea	 eax, DWORD PTR __Message$[ebp]
  00007	50		 push	 eax
  00008	8b f1		 mov	 esi, ecx
  0000a	e8 00 00 00 00	 call	 ??0exception@std@@QAE@ABQBD@Z ; std::exception::exception
  0000f	c7 06 00 00 00
	00		 mov	 DWORD PTR [esi], OFFSET ??_7bad_alloc@std@@6B@

; 346  : 		}

  00015	8b c6		 mov	 eax, esi
  00017	5e		 pop	 esi
  00018	5d		 pop	 ebp
  00019	c2 04 00	 ret	 4
??0bad_alloc@std@@QAE@PBD@Z ENDP			; std::bad_alloc::bad_alloc
_TEXT	ENDS
PUBLIC	??1bad_alloc@std@@UAE@XZ			; std::bad_alloc::~bad_alloc
EXTRN	??1exception@std@@UAE@XZ:PROC			; std::exception::~exception
; Function compile flags: /Ogtp
;	COMDAT ??1bad_alloc@std@@UAE@XZ
_TEXT	SEGMENT
??1bad_alloc@std@@UAE@XZ PROC				; std::bad_alloc::~bad_alloc, COMDAT
; _this$ = ecx

; 354  : 		{	// destroy the object

  00000	c7 01 00 00 00
	00		 mov	 DWORD PTR [ecx], OFFSET ??_7bad_alloc@std@@6B@

; 355  : 		}

  00006	e9 00 00 00 00	 jmp	 ??1exception@std@@UAE@XZ ; std::exception::~exception
??1bad_alloc@std@@UAE@XZ ENDP				; std::bad_alloc::~bad_alloc
; Function compile flags: /Ogtp
_TEXT	ENDS
;	COMDAT ??_Gbad_alloc@std@@UAEPAXI@Z
_TEXT	SEGMENT
___flags$ = 8						; size = 4
??_Gbad_alloc@std@@UAEPAXI@Z PROC			; std::bad_alloc::`scalar deleting destructor', COMDAT
; _this$ = ecx
  00000	55		 push	 ebp
  00001	8b ec		 mov	 ebp, esp
  00003	56		 push	 esi
  00004	8b f1		 mov	 esi, ecx
  00006	c7 06 00 00 00
	00		 mov	 DWORD PTR [esi], OFFSET ??_7bad_alloc@std@@6B@
  0000c	e8 00 00 00 00	 call	 ??1exception@std@@UAE@XZ ; std::exception::~exception
  00011	f6 45 08 01	 test	 BYTE PTR ___flags$[ebp], 1
  00015	74 09		 je	 SHORT $LN6@scalar
  00017	56		 push	 esi
  00018	e8 00 00 00 00	 call	 ??3@YAXPAX@Z		; operator delete
  0001d	83 c4 04	 add	 esp, 4
$LN6@scalar:
  00020	8b c6		 mov	 eax, esi
  00022	5e		 pop	 esi
  00023	5d		 pop	 ebp
  00024	c2 04 00	 ret	 4
??_Gbad_alloc@std@@UAEPAXI@Z ENDP			; std::bad_alloc::`scalar deleting destructor'
_TEXT	ENDS
PUBLIC	?_Orphan_all@_Container_base0@std@@QAEXXZ	; std::_Container_base0::_Orphan_all
; Function compile flags: /Ogtp
; File d:\program files (x86)\microsoft visual studio 10.0\vc\include\xutility
;	COMDAT ?_Orphan_all@_Container_base0@std@@QAEXXZ
_TEXT	SEGMENT
?_Orphan_all@_Container_base0@std@@QAEXXZ PROC		; std::_Container_base0::_Orphan_all, COMDAT
; _this$ = ecx

; 38   : 		}

  00000	c3		 ret	 0
?_Orphan_all@_Container_base0@std@@QAEXXZ ENDP		; std::_Container_base0::_Orphan_all
_TEXT	ENDS
PUBLIC	?_Adopt@_Iterator_base0@std@@QAEXPBX@Z		; std::_Iterator_base0::_Adopt
; Function compile flags: /Ogtp
;	COMDAT ?_Adopt@_Iterator_base0@std@@QAEXPBX@Z
_TEXT	SEGMENT
___formal$ = 8						; size = 4
?_Adopt@_Iterator_base0@std@@QAEXPBX@Z PROC		; std::_Iterator_base0::_Adopt, COMDAT
; _this$ = ecx

; 49   : 		}

  00000	c2 04 00	 ret	 4
?_Adopt@_Iterator_base0@std@@QAEXPBX@Z ENDP		; std::_Iterator_base0::_Adopt
_TEXT	ENDS
PUBLIC	?GetData@CMiniMapZt@@QAEPAUMINIMAP_DATA@@H@Z	; CMiniMapZt::GetData
; Function compile flags: /Ogtp
; File e:\work\tranet_version\gs\gameserver\minimapzt.cpp
;	COMDAT ?GetData@CMiniMapZt@@QAEPAUMINIMAP_DATA@@H@Z
_TEXT	SEGMENT
_MapNum$ = 8						; size = 4
?GetData@CMiniMapZt@@QAEPAUMINIMAP_DATA@@H@Z PROC	; CMiniMapZt::GetData, COMDAT
; _this$ = ecx

; 319  : {

  00000	55		 push	 ebp
  00001	8b ec		 mov	 ebp, esp

; 320  : 	for(int i = 0; i < this->m_Data.size(); i++)

  00003	8b 51 08	 mov	 edx, DWORD PTR [ecx+8]
  00006	2b 51 04	 sub	 edx, DWORD PTR [ecx+4]
  00009	b8 39 8e e3 38	 mov	 eax, 954437177		; 38e38e39H
  0000e	f7 ea		 imul	 edx
  00010	c1 fa 03	 sar	 edx, 3
  00013	8b c2		 mov	 eax, edx
  00015	56		 push	 esi
  00016	c1 e8 1f	 shr	 eax, 31			; 0000001fH
  00019	33 f6		 xor	 esi, esi
  0001b	03 c2		 add	 eax, edx
  0001d	57		 push	 edi
  0001e	74 14		 je	 SHORT $LN2@GetData
  00020	8b 49 04	 mov	 ecx, DWORD PTR [ecx+4]
  00023	8b 7d 08	 mov	 edi, DWORD PTR _MapNum$[ebp]
  00026	8b d1		 mov	 edx, ecx
$LL4@GetData:

; 321  : 	{
; 322  : 		if(this->m_Data[i].Map == MapNum)

  00028	39 3a		 cmp	 DWORD PTR [edx], edi
  0002a	74 10		 je	 SHORT $LN14@GetData

; 320  : 	for(int i = 0; i < this->m_Data.size(); i++)

  0002c	46		 inc	 esi
  0002d	83 c2 24	 add	 edx, 36			; 00000024H
  00030	3b f0		 cmp	 esi, eax
  00032	72 f4		 jb	 SHORT $LL4@GetData
$LN2@GetData:
  00034	5f		 pop	 edi

; 325  : 		}
; 326  : 	}
; 327  : 
; 328  : 	return false;

  00035	33 c0		 xor	 eax, eax
  00037	5e		 pop	 esi

; 329  : }

  00038	5d		 pop	 ebp
  00039	c2 04 00	 ret	 4
$LN14@GetData:

; 323  : 		{
; 324  : 			return &this->m_Data[i];

  0003c	8d 04 f6	 lea	 eax, DWORD PTR [esi+esi*8]
  0003f	5f		 pop	 edi
  00040	8d 04 81	 lea	 eax, DWORD PTR [ecx+eax*4]
  00043	5e		 pop	 esi

; 329  : }

  00044	5d		 pop	 ebp
  00045	c2 04 00	 ret	 4
?GetData@CMiniMapZt@@QAEPAUMINIMAP_DATA@@H@Z ENDP	; CMiniMapZt::GetData
_TEXT	ENDS
PUBLIC	??0?$_Vector_val@UMINIMAP_DATA@@V?$allocator@UMINIMAP_DATA@@@std@@@std@@QAE@V?$allocator@UMINIMAP_DATA@@@1@@Z ; std::_Vector_val<MINIMAP_DATA,std::allocator<MINIMAP_DATA> >::_Vector_val<MINIMAP_DATA,std::allocator<MINIMAP_DATA> >
; Function compile flags: /Ogtp
; File d:\program files (x86)\microsoft visual studio 10.0\vc\include\vector
;	COMDAT ??0?$_Vector_val@UMINIMAP_DATA@@V?$allocator@UMINIMAP_DATA@@@std@@@std@@QAE@V?$allocator@UMINIMAP_DATA@@@1@@Z
_TEXT	SEGMENT
__Al$ = 8						; size = 1
??0?$_Vector_val@UMINIMAP_DATA@@V?$allocator@UMINIMAP_DATA@@@std@@@std@@QAE@V?$allocator@UMINIMAP_DATA@@@1@@Z PROC ; std::_Vector_val<MINIMAP_DATA,std::allocator<MINIMAP_DATA> >::_Vector_val<MINIMAP_DATA,std::allocator<MINIMAP_DATA> >, COMDAT
; _this$ = ecx

; 426  : 		{	// construct allocator from _Al

  00000	8b c1		 mov	 eax, ecx

; 427  : 		_Myfirst = 0;

  00002	33 c9		 xor	 ecx, ecx
  00004	89 08		 mov	 DWORD PTR [eax], ecx

; 428  : 		_Mylast = 0;

  00006	89 48 04	 mov	 DWORD PTR [eax+4], ecx

; 429  : 		_Myend = 0;

  00009	89 48 08	 mov	 DWORD PTR [eax+8], ecx

; 430  : 		}

  0000c	c2 04 00	 ret	 4
??0?$_Vector_val@UMINIMAP_DATA@@V?$allocator@UMINIMAP_DATA@@@std@@@std@@QAE@V?$allocator@UMINIMAP_DATA@@@1@@Z ENDP ; std::_Vector_val<MINIMAP_DATA,std::allocator<MINIMAP_DATA> >::_Vector_val<MINIMAP_DATA,std::allocator<MINIMAP_DATA> >
_TEXT	ENDS
PUBLIC	?max_size@?$vector@UMINIMAP_DATA@@V?$allocator@UMINIMAP_DATA@@@std@@@std@@QBEIXZ ; std::vector<MINIMAP_DATA,std::allocator<MINIMAP_DATA> >::max_size
; Function compile flags: /Ogtp
;	COMDAT ?max_size@?$vector@UMINIMAP_DATA@@V?$allocator@UMINIMAP_DATA@@@std@@@std@@QBEIXZ
_TEXT	SEGMENT
?max_size@?$vector@UMINIMAP_DATA@@V?$allocator@UMINIMAP_DATA@@@std@@@std@@QBEIXZ PROC ; std::vector<MINIMAP_DATA,std::allocator<MINIMAP_DATA> >::max_size, COMDAT
; _this$ = ecx

; 884  : 		return (this->_Alval.max_size());

  00000	b8 c7 71 1c 07	 mov	 eax, 119304647		; 071c71c7H

; 885  : 		}

  00005	c3		 ret	 0
?max_size@?$vector@UMINIMAP_DATA@@V?$allocator@UMINIMAP_DATA@@@std@@@std@@QBEIXZ ENDP ; std::vector<MINIMAP_DATA,std::allocator<MINIMAP_DATA> >::max_size
_TEXT	ENDS
PUBLIC	?_Grow_to@?$vector@UMINIMAP_DATA@@V?$allocator@UMINIMAP_DATA@@@std@@@std@@IBEII@Z ; std::vector<MINIMAP_DATA,std::allocator<MINIMAP_DATA> >::_Grow_to
; Function compile flags: /Ogtp
;	COMDAT ?_Grow_to@?$vector@UMINIMAP_DATA@@V?$allocator@UMINIMAP_DATA@@@std@@@std@@IBEII@Z
_TEXT	SEGMENT
__Count$ = 8						; size = 4
?_Grow_to@?$vector@UMINIMAP_DATA@@V?$allocator@UMINIMAP_DATA@@@std@@@std@@IBEII@Z PROC ; std::vector<MINIMAP_DATA,std::allocator<MINIMAP_DATA> >::_Grow_to, COMDAT
; _this$ = ecx

; 1274 : 		{	// grow by 50% or at least to _Count

  00000	55		 push	 ebp
  00001	8b ec		 mov	 ebp, esp

; 1275 : 		size_type _Capacity = capacity();

  00003	8b 51 08	 mov	 edx, DWORD PTR [ecx+8]
  00006	2b 11		 sub	 edx, DWORD PTR [ecx]
  00008	b8 39 8e e3 38	 mov	 eax, 954437177		; 38e38e39H
  0000d	f7 ea		 imul	 edx
  0000f	c1 fa 03	 sar	 edx, 3
  00012	8b c2		 mov	 eax, edx
  00014	c1 e8 1f	 shr	 eax, 31			; 0000001fH
  00017	03 c2		 add	 eax, edx

; 1276 : 
; 1277 : 		_Capacity = max_size() - _Capacity / 2 < _Capacity
; 1278 : 			? 0 : _Capacity + _Capacity / 2;	// try to grow by 50%

  00019	8b c8		 mov	 ecx, eax
  0001b	d1 e9		 shr	 ecx, 1
  0001d	ba c7 71 1c 07	 mov	 edx, 119304647		; 071c71c7H
  00022	2b d1		 sub	 edx, ecx
  00024	3b d0		 cmp	 edx, eax
  00026	73 04		 jae	 SHORT $LN4@Grow_to
  00028	33 c0		 xor	 eax, eax
  0002a	eb 02		 jmp	 SHORT $LN5@Grow_to
$LN4@Grow_to:
  0002c	03 c1		 add	 eax, ecx
$LN5@Grow_to:

; 1279 : 		if (_Capacity < _Count)

  0002e	8b 4d 08	 mov	 ecx, DWORD PTR __Count$[ebp]
  00031	3b c1		 cmp	 eax, ecx
  00033	73 02		 jae	 SHORT $LN1@Grow_to

; 1280 : 			_Capacity = _Count;
; 1281 : 		return (_Capacity);

  00035	8b c1		 mov	 eax, ecx
$LN1@Grow_to:

; 1282 : 		}

  00037	5d		 pop	 ebp
  00038	c2 04 00	 ret	 4
?_Grow_to@?$vector@UMINIMAP_DATA@@V?$allocator@UMINIMAP_DATA@@@std@@@std@@IBEII@Z ENDP ; std::vector<MINIMAP_DATA,std::allocator<MINIMAP_DATA> >::_Grow_to
_TEXT	ENDS
PUBLIC	??0?$_Vector_const_iterator@V?$_Vector_val@UMINIMAP_DATA@@V?$allocator@UMINIMAP_DATA@@@std@@@std@@@std@@QAE@PAUMINIMAP_DATA@@PBU_Container_base0@1@@Z ; std::_Vector_const_iterator<std::_Vector_val<MINIMAP_DATA,std::allocator<MINIMAP_DATA> > >::_Vector_const_iterator<std::_Vector_val<MINIMAP_DATA,std::allocator<MINIMAP_DATA> > >
; Function compile flags: /Ogtp
;	COMDAT ??0?$_Vector_const_iterator@V?$_Vector_val@UMINIMAP_DATA@@V?$allocator@UMINIMAP_DATA@@@std@@@std@@@std@@QAE@PAUMINIMAP_DATA@@PBU_Container_base0@1@@Z
_TEXT	SEGMENT
__Parg$ = 8						; size = 4
__Pvector$ = 12						; size = 4
??0?$_Vector_const_iterator@V?$_Vector_val@UMINIMAP_DATA@@V?$allocator@UMINIMAP_DATA@@@std@@@std@@@std@@QAE@PAUMINIMAP_DATA@@PBU_Container_base0@1@@Z PROC ; std::_Vector_const_iterator<std::_Vector_val<MINIMAP_DATA,std::allocator<MINIMAP_DATA> > >::_Vector_const_iterator<std::_Vector_val<MINIMAP_DATA,std::allocator<MINIMAP_DATA> > >, COMDAT
; _this$ = ecx

; 45   : 		{	// construct with pointer _Parg

  00000	55		 push	 ebp
  00001	8b ec		 mov	 ebp, esp
  00003	8b c1		 mov	 eax, ecx
  00005	8b 4d 08	 mov	 ecx, DWORD PTR __Parg$[ebp]
  00008	89 08		 mov	 DWORD PTR [eax], ecx

; 46   : 		this->_Adopt(_Pvector);
; 47   : 		}

  0000a	5d		 pop	 ebp
  0000b	c2 08 00	 ret	 8
??0?$_Vector_const_iterator@V?$_Vector_val@UMINIMAP_DATA@@V?$allocator@UMINIMAP_DATA@@@std@@@std@@@std@@QAE@PAUMINIMAP_DATA@@PBU_Container_base0@1@@Z ENDP ; std::_Vector_const_iterator<std::_Vector_val<MINIMAP_DATA,std::allocator<MINIMAP_DATA> > >::_Vector_const_iterator<std::_Vector_val<MINIMAP_DATA,std::allocator<MINIMAP_DATA> > >
_TEXT	ENDS
PUBLIC	??8?$_Vector_const_iterator@V?$_Vector_val@UMINIMAP_DATA@@V?$allocator@UMINIMAP_DATA@@@std@@@std@@@std@@QBE_NABV01@@Z ; std::_Vector_const_iterator<std::_Vector_val<MINIMAP_DATA,std::allocator<MINIMAP_DATA> > >::operator==
; Function compile flags: /Ogtp
;	COMDAT ??8?$_Vector_const_iterator@V?$_Vector_val@UMINIMAP_DATA@@V?$allocator@UMINIMAP_DATA@@@std@@@std@@@std@@QBE_NABV01@@Z
_TEXT	SEGMENT
__Right$ = 8						; size = 4
??8?$_Vector_const_iterator@V?$_Vector_val@UMINIMAP_DATA@@V?$allocator@UMINIMAP_DATA@@@std@@@std@@@std@@QBE_NABV01@@Z PROC ; std::_Vector_const_iterator<std::_Vector_val<MINIMAP_DATA,std::allocator<MINIMAP_DATA> > >::operator==, COMDAT
; _this$ = ecx

; 201  : 		{	// test for iterator equality

  00000	55		 push	 ebp
  00001	8b ec		 mov	 ebp, esp

; 202  : 		_Compat(_Right);
; 203  : 		return (this->_Ptr == _Right._Ptr);

  00003	8b 01		 mov	 eax, DWORD PTR [ecx]
  00005	8b 55 08	 mov	 edx, DWORD PTR __Right$[ebp]
  00008	33 c9		 xor	 ecx, ecx
  0000a	3b 02		 cmp	 eax, DWORD PTR [edx]
  0000c	0f 94 c0	 sete	 al

; 204  : 		}

  0000f	5d		 pop	 ebp
  00010	c2 04 00	 ret	 4
??8?$_Vector_const_iterator@V?$_Vector_val@UMINIMAP_DATA@@V?$allocator@UMINIMAP_DATA@@@std@@@std@@@std@@QBE_NABV01@@Z ENDP ; std::_Vector_const_iterator<std::_Vector_val<MINIMAP_DATA,std::allocator<MINIMAP_DATA> > >::operator==
_TEXT	ENDS
PUBLIC	??$_Cons_val@V?$allocator@UMINIMAP_DATA@@@std@@UMINIMAP_DATA@@AAU3@@std@@YAXAAV?$allocator@UMINIMAP_DATA@@@0@PAUMINIMAP_DATA@@AAU2@@Z ; std::_Cons_val<std::allocator<MINIMAP_DATA>,MINIMAP_DATA,MINIMAP_DATA &>
; Function compile flags: /Ogtp
; File d:\program files (x86)\microsoft visual studio 10.0\vc\include\xmemory
;	COMDAT ??$_Cons_val@V?$allocator@UMINIMAP_DATA@@@std@@UMINIMAP_DATA@@AAU3@@std@@YAXAAV?$allocator@UMINIMAP_DATA@@@0@PAUMINIMAP_DATA@@AAU2@@Z
_TEXT	SEGMENT
__Alval$ = 8						; size = 4
__Pdest$ = 12						; size = 4
__Src$ = 16						; size = 4
??$_Cons_val@V?$allocator@UMINIMAP_DATA@@@std@@UMINIMAP_DATA@@AAU3@@std@@YAXAAV?$allocator@UMINIMAP_DATA@@@0@PAUMINIMAP_DATA@@AAU2@@Z PROC ; std::_Cons_val<std::allocator<MINIMAP_DATA>,MINIMAP_DATA,MINIMAP_DATA &>, COMDAT

; 279  : 	{	// construct using allocator

  00000	55		 push	 ebp
  00001	8b ec		 mov	 ebp, esp
  00003	57		 push	 edi

; 280  : 	_Alval.construct(_Pdest, _STD forward<_Ty2>(_Src));

  00004	8b 7d 0c	 mov	 edi, DWORD PTR __Pdest$[ebp]
  00007	85 ff		 test	 edi, edi
  00009	74 0c		 je	 SHORT $LN7@Cons_val
  0000b	56		 push	 esi
  0000c	8b 75 10	 mov	 esi, DWORD PTR __Src$[ebp]
  0000f	b9 09 00 00 00	 mov	 ecx, 9
  00014	f3 a5		 rep movsd
  00016	5e		 pop	 esi
$LN7@Cons_val:
  00017	5f		 pop	 edi

; 281  : 	}

  00018	5d		 pop	 ebp
  00019	c3		 ret	 0
??$_Cons_val@V?$allocator@UMINIMAP_DATA@@@std@@UMINIMAP_DATA@@AAU3@@std@@YAXAAV?$allocator@UMINIMAP_DATA@@@0@PAUMINIMAP_DATA@@AAU2@@Z ENDP ; std::_Cons_val<std::allocator<MINIMAP_DATA>,MINIMAP_DATA,MINIMAP_DATA &>
_TEXT	ENDS
PUBLIC	__TI2?AVbad_alloc@std@@
PUBLIC	??$_Allocate@UMINIMAP_DATA@@@std@@YAPAUMINIMAP_DATA@@IPAU1@@Z ; std::_Allocate<MINIMAP_DATA>
PUBLIC	__CTA2?AVbad_alloc@std@@
PUBLIC	__CT??_R0?AVbad_alloc@std@@@8??0bad_alloc@std@@QAE@ABV01@@Z12
PUBLIC	??0bad_alloc@std@@QAE@ABV01@@Z			; std::bad_alloc::bad_alloc
PUBLIC	__CT??_R0?AVexception@std@@@8??0exception@std@@QAE@ABV01@@Z12
EXTRN	??2@YAPAXI@Z:PROC				; operator new
EXTRN	__CxxThrowException@8:PROC
EXTRN	??0exception@std@@QAE@ABV01@@Z:PROC		; std::exception::exception
;	COMDAT __CT??_R0?AVexception@std@@@8??0exception@std@@QAE@ABV01@@Z12
; File d:\program files (x86)\microsoft visual studio 10.0\vc\include\exception
xdata$x	SEGMENT
__CT??_R0?AVexception@std@@@8??0exception@std@@QAE@ABV01@@Z12 DD 00H
	DD	FLAT:??_R0?AVexception@std@@@8
	DD	00H
	DD	0ffffffffH
	ORG $+4
	DD	0cH
	DD	FLAT:??0exception@std@@QAE@ABV01@@Z
xdata$x	ENDS
;	COMDAT __CT??_R0?AVbad_alloc@std@@@8??0bad_alloc@std@@QAE@ABV01@@Z12
xdata$x	SEGMENT
__CT??_R0?AVbad_alloc@std@@@8??0bad_alloc@std@@QAE@ABV01@@Z12 DD 00H
	DD	FLAT:??_R0?AVbad_alloc@std@@@8
	DD	00H
	DD	0ffffffffH
	ORG $+4
	DD	0cH
	DD	FLAT:??0bad_alloc@std@@QAE@ABV01@@Z
xdata$x	ENDS
;	COMDAT __CTA2?AVbad_alloc@std@@
xdata$x	SEGMENT
__CTA2?AVbad_alloc@std@@ DD 02H
	DD	FLAT:__CT??_R0?AVbad_alloc@std@@@8??0bad_alloc@std@@QAE@ABV01@@Z12
	DD	FLAT:__CT??_R0?AVexception@std@@@8??0exception@std@@QAE@ABV01@@Z12
xdata$x	ENDS
;	COMDAT __TI2?AVbad_alloc@std@@
xdata$x	SEGMENT
__TI2?AVbad_alloc@std@@ DD 00H
	DD	FLAT:??1bad_alloc@std@@UAE@XZ
	DD	00H
	DD	FLAT:__CTA2?AVbad_alloc@std@@
; Function compile flags: /Ogtp
; File d:\program files (x86)\microsoft visual studio 10.0\vc\include\xmemory
xdata$x	ENDS
;	COMDAT ??$_Allocate@UMINIMAP_DATA@@@std@@YAPAUMINIMAP_DATA@@IPAU1@@Z
_TEXT	SEGMENT
$T211619 = -12						; size = 12
$T211624 = 8						; size = 4
__Count$ = 8						; size = 4
___formal$ = 12						; size = 4
??$_Allocate@UMINIMAP_DATA@@@std@@YAPAUMINIMAP_DATA@@IPAU1@@Z PROC ; std::_Allocate<MINIMAP_DATA>, COMDAT

; 30   : 	{	// allocate storage for _Count elements of type _Ty

  00000	55		 push	 ebp
  00001	8b ec		 mov	 ebp, esp

; 31   : 	void *_Ptr = 0;
; 32   : 
; 33   : 	if (_Count <= 0)

  00003	8b 4d 08	 mov	 ecx, DWORD PTR __Count$[ebp]
  00006	83 ec 0c	 sub	 esp, 12			; 0000000cH
  00009	33 c0		 xor	 eax, eax
  0000b	85 c9		 test	 ecx, ecx

; 34   : 		_Count = 0;
; 35   : 	else if (((_SIZT)(-1) / sizeof (_Ty) < _Count)

  0000d	74 44		 je	 SHORT $LN5@Allocate

; 36   : 		|| (_Ptr = ::operator new(_Count * sizeof (_Ty))) == 0)

  0000f	81 f9 c7 71 1c
	07		 cmp	 ecx, 119304647		; 071c71c7H
  00015	77 14		 ja	 SHORT $LN1@Allocate
  00017	8d 04 c9	 lea	 eax, DWORD PTR [ecx+ecx*8]
  0001a	03 c0		 add	 eax, eax
  0001c	03 c0		 add	 eax, eax
  0001e	50		 push	 eax
  0001f	e8 00 00 00 00	 call	 ??2@YAPAXI@Z		; operator new
  00024	83 c4 04	 add	 esp, 4
  00027	85 c0		 test	 eax, eax

; 38   : 
; 39   : 	return ((_Ty _FARQ *)_Ptr);

  00029	75 28		 jne	 SHORT $LN5@Allocate
$LN1@Allocate:

; 37   : 		_THROW_NCEE(bad_alloc, 0);

  0002b	8d 4d 08	 lea	 ecx, DWORD PTR $T211624[ebp]
  0002e	51		 push	 ecx
  0002f	8d 4d f4	 lea	 ecx, DWORD PTR $T211619[ebp]
  00032	c7 45 08 00 00
	00 00		 mov	 DWORD PTR $T211624[ebp], 0
  00039	e8 00 00 00 00	 call	 ??0exception@std@@QAE@ABQBD@Z ; std::exception::exception
  0003e	68 00 00 00 00	 push	 OFFSET __TI2?AVbad_alloc@std@@
  00043	8d 55 f4	 lea	 edx, DWORD PTR $T211619[ebp]
  00046	52		 push	 edx
  00047	c7 45 f4 00 00
	00 00		 mov	 DWORD PTR $T211619[ebp], OFFSET ??_7bad_alloc@std@@6B@
  0004e	e8 00 00 00 00	 call	 __CxxThrowException@8
$LN10@Allocate:
$LN5@Allocate:

; 40   : 	}

  00053	8b e5		 mov	 esp, ebp
  00055	5d		 pop	 ebp
  00056	c3		 ret	 0
$LN9@Allocate:
??$_Allocate@UMINIMAP_DATA@@@std@@YAPAUMINIMAP_DATA@@IPAU1@@Z ENDP ; std::_Allocate<MINIMAP_DATA>
; Function compile flags: /Ogtp
_TEXT	ENDS
;	COMDAT ??0bad_alloc@std@@QAE@ABV01@@Z
_TEXT	SEGMENT
___that$ = 8						; size = 4
??0bad_alloc@std@@QAE@ABV01@@Z PROC			; std::bad_alloc::bad_alloc, COMDAT
; _this$ = ecx
  00000	55		 push	 ebp
  00001	8b ec		 mov	 ebp, esp
  00003	8b 45 08	 mov	 eax, DWORD PTR ___that$[ebp]
  00006	56		 push	 esi
  00007	50		 push	 eax
  00008	8b f1		 mov	 esi, ecx
  0000a	e8 00 00 00 00	 call	 ??0exception@std@@QAE@ABV01@@Z ; std::exception::exception
  0000f	c7 06 00 00 00
	00		 mov	 DWORD PTR [esi], OFFSET ??_7bad_alloc@std@@6B@
  00015	8b c6		 mov	 eax, esi
  00017	5e		 pop	 esi
  00018	5d		 pop	 ebp
  00019	c2 04 00	 ret	 4
??0bad_alloc@std@@QAE@ABV01@@Z ENDP			; std::bad_alloc::bad_alloc
_TEXT	ENDS
PUBLIC	?construct@?$allocator@UMINIMAP_DATA@@@std@@QAEXPAUMINIMAP_DATA@@ABU3@@Z ; std::allocator<MINIMAP_DATA>::construct
; Function compile flags: /Ogtp
;	COMDAT ?construct@?$allocator@UMINIMAP_DATA@@@std@@QAEXPAUMINIMAP_DATA@@ABU3@@Z
_TEXT	SEGMENT
__Ptr$ = 8						; size = 4
__Val$ = 12						; size = 4
?construct@?$allocator@UMINIMAP_DATA@@@std@@QAEXPAUMINIMAP_DATA@@ABU3@@Z PROC ; std::allocator<MINIMAP_DATA>::construct, COMDAT
; _this$ = ecx

; 196  : 		{	// construct object at _Ptr with value _Val

  00000	55		 push	 ebp
  00001	8b ec		 mov	 ebp, esp
  00003	57		 push	 edi

; 197  : 		_Construct(_Ptr, _Val);

  00004	8b 7d 08	 mov	 edi, DWORD PTR __Ptr$[ebp]
  00007	85 ff		 test	 edi, edi
  00009	74 0c		 je	 SHORT $LN5@construct@2
  0000b	56		 push	 esi
  0000c	8b 75 0c	 mov	 esi, DWORD PTR __Val$[ebp]
  0000f	b9 09 00 00 00	 mov	 ecx, 9
  00014	f3 a5		 rep movsd
  00016	5e		 pop	 esi
$LN5@construct@2:
  00017	5f		 pop	 edi

; 198  : 		}

  00018	5d		 pop	 ebp
  00019	c2 08 00	 ret	 8
?construct@?$allocator@UMINIMAP_DATA@@@std@@QAEXPAUMINIMAP_DATA@@ABU3@@Z ENDP ; std::allocator<MINIMAP_DATA>::construct
_TEXT	ENDS
PUBLIC	??$_Move@PAUMINIMAP_DATA@@PAU1@@std@@YAPAUMINIMAP_DATA@@PAU1@00U_Nonscalar_ptr_iterator_tag@0@@Z ; std::_Move<MINIMAP_DATA *,MINIMAP_DATA *>
; Function compile flags: /Ogtp
; File d:\program files (x86)\microsoft visual studio 10.0\vc\include\xutility
;	COMDAT ??$_Move@PAUMINIMAP_DATA@@PAU1@@std@@YAPAUMINIMAP_DATA@@PAU1@00U_Nonscalar_ptr_iterator_tag@0@@Z
_TEXT	SEGMENT
__First$ = 8						; size = 4
__Last$ = 12						; size = 4
__Dest$ = 16						; size = 4
___formal$ = 20						; size = 1
??$_Move@PAUMINIMAP_DATA@@PAU1@@std@@YAPAUMINIMAP_DATA@@PAU1@00U_Nonscalar_ptr_iterator_tag@0@@Z PROC ; std::_Move<MINIMAP_DATA *,MINIMAP_DATA *>, COMDAT

; 2512 : 	{	// move [_First, _Last) to [_Dest, ...), arbitrary iterators

  00000	55		 push	 ebp
  00001	8b ec		 mov	 ebp, esp

; 2513 : 	for (; _First != _Last; ++_Dest, ++_First)

  00003	8b 55 08	 mov	 edx, DWORD PTR __First$[ebp]
  00006	8b 45 10	 mov	 eax, DWORD PTR __Dest$[ebp]
  00009	53		 push	 ebx
  0000a	8b 5d 0c	 mov	 ebx, DWORD PTR __Last$[ebp]
  0000d	3b d3		 cmp	 edx, ebx
  0000f	74 19		 je	 SHORT $LN1@Move
  00011	56		 push	 esi
  00012	57		 push	 edi
$LL3@Move:

; 2514 : 		*_Dest = _STD move(*_First);

  00013	8b f2		 mov	 esi, edx
  00015	8b f8		 mov	 edi, eax
  00017	83 c2 24	 add	 edx, 36			; 00000024H
  0001a	b9 09 00 00 00	 mov	 ecx, 9
  0001f	83 c0 24	 add	 eax, 36			; 00000024H
  00022	f3 a5		 rep movsd
  00024	3b d3		 cmp	 edx, ebx
  00026	75 eb		 jne	 SHORT $LL3@Move
  00028	5f		 pop	 edi
  00029	5e		 pop	 esi
$LN1@Move:
  0002a	5b		 pop	 ebx

; 2515 : 	return (_Dest);
; 2516 : 	}

  0002b	5d		 pop	 ebp
  0002c	c3		 ret	 0
??$_Move@PAUMINIMAP_DATA@@PAU1@@std@@YAPAUMINIMAP_DATA@@PAU1@00U_Nonscalar_ptr_iterator_tag@0@@Z ENDP ; std::_Move<MINIMAP_DATA *,MINIMAP_DATA *>
_TEXT	ENDS
PUBLIC	?destroy@?$allocator@UMINIMAP_DATA@@@std@@QAEXPAUMINIMAP_DATA@@@Z ; std::allocator<MINIMAP_DATA>::destroy
; Function compile flags: /Ogtp
; File d:\program files (x86)\microsoft visual studio 10.0\vc\include\xmemory
;	COMDAT ?destroy@?$allocator@UMINIMAP_DATA@@@std@@QAEXPAUMINIMAP_DATA@@@Z
_TEXT	SEGMENT
__Ptr$ = 8						; size = 4
?destroy@?$allocator@UMINIMAP_DATA@@@std@@QAEXPAUMINIMAP_DATA@@@Z PROC ; std::allocator<MINIMAP_DATA>::destroy, COMDAT
; _this$ = ecx

; 213  : 		_Destroy(_Ptr);
; 214  : 		}

  00000	c2 04 00	 ret	 4
?destroy@?$allocator@UMINIMAP_DATA@@@std@@QAEXPAUMINIMAP_DATA@@@Z ENDP ; std::allocator<MINIMAP_DATA>::destroy
_TEXT	ENDS
PUBLIC	?construct@?$allocator@UMINIMAP_DATA@@@std@@QAEXPAUMINIMAP_DATA@@$$QAU3@@Z ; std::allocator<MINIMAP_DATA>::construct
; Function compile flags: /Ogtp
;	COMDAT ?construct@?$allocator@UMINIMAP_DATA@@@std@@QAEXPAUMINIMAP_DATA@@$$QAU3@@Z
_TEXT	SEGMENT
__Ptr$ = 8						; size = 4
__Val$ = 12						; size = 4
?construct@?$allocator@UMINIMAP_DATA@@@std@@QAEXPAUMINIMAP_DATA@@$$QAU3@@Z PROC ; std::allocator<MINIMAP_DATA>::construct, COMDAT
; _this$ = ecx

; 201  : 		{	// construct object at _Ptr with value _Val

  00000	55		 push	 ebp
  00001	8b ec		 mov	 ebp, esp
  00003	57		 push	 edi

; 202  : 		::new ((void _FARQ *)_Ptr) _Ty(_STD forward<_Ty>(_Val));

  00004	8b 7d 08	 mov	 edi, DWORD PTR __Ptr$[ebp]
  00007	85 ff		 test	 edi, edi
  00009	74 0c		 je	 SHORT $LN3@construct@3
  0000b	56		 push	 esi
  0000c	8b 75 0c	 mov	 esi, DWORD PTR __Val$[ebp]
  0000f	b9 09 00 00 00	 mov	 ecx, 9
  00014	f3 a5		 rep movsd
  00016	5e		 pop	 esi
$LN3@construct@3:
  00017	5f		 pop	 edi

; 203  : 		}

  00018	5d		 pop	 ebp
  00019	c2 08 00	 ret	 8
?construct@?$allocator@UMINIMAP_DATA@@@std@@QAEXPAUMINIMAP_DATA@@$$QAU3@@Z ENDP ; std::allocator<MINIMAP_DATA>::construct
_TEXT	ENDS
PUBLIC	__real@47c35000
PUBLIC	_aIndex$GSCopy$
PUBLIC	__$ArrayPad$
PUBLIC	?GCMapSend@CMiniMapZt@@QAEXH@Z			; CMiniMapZt::GCMapSend
EXTRN	?DataSend@@YAHHPAEK@Z:PROC			; DataSend
EXTRN	?SearchUnion@TUnion@@QAEPAVTUnionInfo@@H@Z:PROC	; TUnion::SearchUnion
EXTRN	?UnionManager@@3VTUnion@@A:BYTE			; UnionManager
EXTRN	?gObj@@3PAUOBJECTSTRUCT@@A:DWORD		; gObj
EXTRN	__chkstk:PROC
EXTRN	_memset:PROC
;	COMDAT __real@47c35000
; File e:\work\tranet_version\gs\gameserver\minimapzt.cpp
CONST	SEGMENT
__real@47c35000 DD 047c35000r			; 100000
; Function compile flags: /Ogtp
CONST	ENDS
;	COMDAT ?GCMapSend@CMiniMapZt@@QAEXH@Z
_TEXT	SEGMENT
_aIndex$GSCopy$ = -8232					; size = 4
_lpUser$ = -8228					; size = 4
tv500 = -8224						; size = 4
tv502 = -8220						; size = 4
_iTempSize$ = -8216					; size = 4
_Info$210424 = -8212					; size = 3
_iTempCount$ = -8208					; size = 4
_pData$ = -8204						; size = 4
_btType$210400 = -8197					; size = 1
_byTempData$ = -8196					; size = 8192
__$ArrayPad$ = -4					; size = 4
_aIndex$ = 8						; size = 4
?GCMapSend@CMiniMapZt@@QAEXH@Z PROC			; CMiniMapZt::GCMapSend, COMDAT
; _this$ = ecx

; 129  : {

  00000	55		 push	 ebp
  00001	8b ec		 mov	 ebp, esp
  00003	b8 28 20 00 00	 mov	 eax, 8232		; 00002028H
  00008	e8 00 00 00 00	 call	 __chkstk
  0000d	a1 00 00 00 00	 mov	 eax, DWORD PTR ___security_cookie
  00012	33 c5		 xor	 eax, ebp
  00014	89 45 fc	 mov	 DWORD PTR __$ArrayPad$[ebp], eax
  00017	56		 push	 esi
  00018	8b 75 08	 mov	 esi, DWORD PTR _aIndex$[ebp]

; 273  : 				}
; 274  : 			}
; 275  : 		}
; 276  : 
; 277  : 		MINIMAP_MONSTER Info;
; 278  : 		Info.Type = btType;

  0001b	89 b5 d8 df ff
	ff		 mov	 DWORD PTR _aIndex$GSCopy$[ebp], esi
  00021	85 f6		 test	 esi, esi
  00023	0f 88 37 03 00
	00		 js	 $LN1@GCMapSend

; 130  : 	if(!OBJMAX_RANGE(aIndex))

  00029	33 c0		 xor	 eax, eax
  0002b	81 fe 97 3a 00
	00		 cmp	 esi, 14999		; 00003a97H
  00031	0f 9e c0	 setle	 al
  00034	85 c0		 test	 eax, eax
  00036	0f 84 24 03 00
	00		 je	 $LN1@GCMapSend

; 131  : 	{
; 132  : 		return;
; 133  : 	}
; 134  : 
; 135  : 	LPOBJ lpUser = &gObj[aIndex];

  0003c	69 f6 50 2b 00
	00		 imul	 esi, 11088		; 00002b50H
  00042	03 35 00 00 00
	00		 add	 esi, DWORD PTR ?gObj@@3PAUOBJECTSTRUCT@@A ; gObj

; 136  : 
; 137  : 	if(lpUser->Connected < PLAYER_PLAYING)

  00048	83 7e 04 03	 cmp	 DWORD PTR [esi+4], 3
  0004c	89 b5 dc df ff
	ff		 mov	 DWORD PTR _lpUser$[ebp], esi
  00052	0f 8c 08 03 00
	00		 jl	 $LN1@GCMapSend

; 138  : 	{
; 139  : 		return;
; 140  : 	}
; 141  : 
; 142  : 	if(lpUser->OffExp)

  00058	83 be 98 22 00
	00 00		 cmp	 DWORD PTR [esi+8856], 0
  0005f	0f 85 fb 02 00
	00		 jne	 $LN1@GCMapSend

; 143  : 	{
; 144  : 		return;
; 145  : 	}
; 146  : 
; 147  : 	if(lpUser->OffTrade)

  00065	83 be ac 22 00
	00 00		 cmp	 DWORD PTR [esi+8876], 0
  0006c	0f 85 ee 02 00
	00		 jne	 $LN1@GCMapSend

; 148  : 	{
; 149  : 		return;
; 150  : 	}
; 151  : 
; 152  : #if(OFFLINE_MODE == TRUE)
; 153  : 	if(lpUser->m_OfflineMode)

  00072	80 be d4 28 00
	00 00		 cmp	 BYTE PTR [esi+10452], 0
  00079	0f 85 e1 02 00
	00		 jne	 $LN1@GCMapSend

; 154  : 	{
; 155  : 		return;
; 156  : 	}
; 157  : #endif
; 158  : 
; 159  : 	MINIMAP_DATA * pData = this->GetData(lpUser->MapNumber);

  0007f	0f b6 86 49 01
	00 00		 movzx	 eax, BYTE PTR [esi+329]
  00086	57		 push	 edi
  00087	50		 push	 eax
  00088	e8 00 00 00 00	 call	 ?GetData@CMiniMapZt@@QAEPAUMINIMAP_DATA@@H@Z ; CMiniMapZt::GetData
  0008d	8b f8		 mov	 edi, eax
  0008f	89 bd f4 df ff
	ff		 mov	 DWORD PTR _pData$[ebp], edi

; 160  : 
; 161  : 	if(!pData)

  00095	85 ff		 test	 edi, edi
  00097	0f 84 c2 02 00
	00		 je	 $LN57@GCMapSend

; 162  : 	{
; 163  : 		return;
; 164  : 	}
; 165  : 
; 166  : 	BYTE byTempData[8192];
; 167  : 
; 168  : 	memset(byTempData, 0, sizeof(byTempData));	

  0009d	53		 push	 ebx
  0009e	68 00 20 00 00	 push	 8192			; 00002000H
  000a3	8d 8d fc df ff
	ff		 lea	 ecx, DWORD PTR _byTempData$[ebp]
  000a9	6a 00		 push	 0
  000ab	51		 push	 ecx
  000ac	e8 00 00 00 00	 call	 _memset

; 169  : 
; 170  : 	int iTempSize = 7;
; 171  : 
; 172  : 	int iTempCount = 0;

  000b1	33 c9		 xor	 ecx, ecx
  000b3	83 c4 0c	 add	 esp, 12			; 0000000cH
  000b6	b8 07 00 00 00	 mov	 eax, 7
  000bb	8d 95 03 e0 ff
	ff		 lea	 edx, DWORD PTR _byTempData$[ebp+7]
  000c1	33 db		 xor	 ebx, ebx
  000c3	89 85 e8 df ff
	ff		 mov	 DWORD PTR _iTempSize$[ebp], eax
  000c9	89 8d f0 df ff
	ff		 mov	 DWORD PTR _iTempCount$[ebp], ecx
  000cf	89 95 e0 df ff
	ff		 mov	 DWORD PTR tv500[ebp], edx
  000d5	89 9d e4 df ff
	ff		 mov	 DWORD PTR tv502[ebp], ebx
  000db	eb 03 8d 49 00	 npad	 5
$LL55@GCMapSend:

; 175  : 	{
; 176  : 		LPOBJ lpTemp = &gObj[n];

  000e0	03 1d 00 00 00
	00		 add	 ebx, DWORD PTR ?gObj@@3PAUOBJECTSTRUCT@@A ; gObj

; 177  : 
; 178  : 		if(lpTemp->Connected < PLAYER_PLAYING)

  000e6	83 7b 04 03	 cmp	 DWORD PTR [ebx+4], 3
  000ea	0f 8c 03 02 00
	00		 jl	 $LN26@GCMapSend

; 179  : 		{
; 180  : 			continue;
; 181  : 		}
; 182  : 
; 183  : 		if(lpUser->MapNumber != lpTemp->MapNumber)

  000f0	8a 96 49 01 00
	00		 mov	 dl, BYTE PTR [esi+329]
  000f6	3a 93 49 01 00
	00		 cmp	 dl, BYTE PTR [ebx+329]
  000fc	0f 85 f1 01 00
	00		 jne	 $LN26@GCMapSend

; 184  : 		{
; 185  : 			continue;
; 186  : 		}
; 187  : 
; 188  : 		if(lpUser->m_Index == lpTemp->m_Index)

  00102	8b 16		 mov	 edx, DWORD PTR [esi]
  00104	3b 13		 cmp	 edx, DWORD PTR [ebx]
  00106	0f 84 e7 01 00
	00		 je	 $LN26@GCMapSend

; 189  : 		{
; 190  : 			continue;
; 191  : 		}
; 192  : 
; 193  : 		// ----
; 194  : 
; 195  : 		BYTE btType = eMINIMAP_NONE;
; 196  : 
; 197  : 		if(pData->Player)

  0010c	83 7f 04 00	 cmp	 DWORD PTR [edi+4], 0
  00110	c6 85 fb df ff
	ff 00		 mov	 BYTE PTR _btType$210400[ebp], 0
  00117	74 0e		 je	 SHORT $LN50@GCMapSend

; 198  : 		{
; 199  : 			if(lpTemp->Type == OBJ_USER)

  00119	66 83 7b 68 01	 cmp	 WORD PTR [ebx+104], 1
  0011e	75 07		 jne	 SHORT $LN50@GCMapSend

; 200  : 			{
; 201  : 				btType = eMINIMAP_PLAYER;

  00120	c6 85 fb df ff
	ff 01		 mov	 BYTE PTR _btType$210400[ebp], 1
$LN50@GCMapSend:

; 202  : 			}
; 203  : 		}
; 204  : 
; 205  : 		if(pData->Phonoman)

  00127	83 7f 14 00	 cmp	 DWORD PTR [edi+20], 0
  0012b	74 10		 je	 SHORT $LN18@GCMapSend

; 206  : 		{
; 207  : 			if(lpTemp->m_PK_Level >= 6)

  0012d	80 bb 3d 01 00
	00 06		 cmp	 BYTE PTR [ebx+317], 6
  00134	7c 07		 jl	 SHORT $LN18@GCMapSend

; 208  : 			{
; 209  : 				btType = eMINIMAP_PHONOMAN;

  00136	c6 85 fb df ff
	ff 05		 mov	 BYTE PTR _btType$210400[ebp], 5
$LN18@GCMapSend:

; 210  : 			}
; 211  : 		}
; 212  : 
; 213  : 		_GUILD_INFO_STRUCT * lpGuildUser = lpUser->lpGuild;

  0013d	8b b6 38 04 00
	00		 mov	 esi, DWORD PTR [esi+1080]

; 214  : 		_GUILD_INFO_STRUCT * lpGuildTemp = lpTemp->lpGuild;

  00143	8b bb 38 04 00
	00		 mov	 edi, DWORD PTR [ebx+1080]

; 215  : 
; 216  : 		if(lpGuildUser && lpGuildTemp)

  00149	85 f6		 test	 esi, esi
  0014b	0f 84 c7 00 00
	00		 je	 $LN51@GCMapSend
  00151	85 ff		 test	 edi, edi
  00153	0f 84 bf 00 00
	00		 je	 $LN51@GCMapSend

; 217  : 		{
; 218  : 			if(pData->Guild)

  00159	8b 85 f4 df ff
	ff		 mov	 eax, DWORD PTR _pData$[ebp]
  0015f	83 78 0c 00	 cmp	 DWORD PTR [eax+12], 0
  00163	74 3b		 je	 SHORT $LN15@GCMapSend

; 219  : 			{
; 220  : 				if(!strcmp(lpGuildUser->Name, lpGuildTemp->Name))

  00165	8d 4f 04	 lea	 ecx, DWORD PTR [edi+4]
  00168	8d 46 04	 lea	 eax, DWORD PTR [esi+4]
  0016b	eb 03 8d 49 00	 npad	 5
$LL41@GCMapSend:
  00170	8a 10		 mov	 dl, BYTE PTR [eax]
  00172	3a 11		 cmp	 dl, BYTE PTR [ecx]
  00174	75 1a		 jne	 SHORT $LN42@GCMapSend
  00176	84 d2		 test	 dl, dl
  00178	74 12		 je	 SHORT $LN43@GCMapSend
  0017a	8a 50 01	 mov	 dl, BYTE PTR [eax+1]
  0017d	3a 51 01	 cmp	 dl, BYTE PTR [ecx+1]
  00180	75 0e		 jne	 SHORT $LN42@GCMapSend
  00182	83 c0 02	 add	 eax, 2
  00185	83 c1 02	 add	 ecx, 2
  00188	84 d2		 test	 dl, dl
  0018a	75 e4		 jne	 SHORT $LL41@GCMapSend
$LN43@GCMapSend:
  0018c	33 c0		 xor	 eax, eax
  0018e	eb 05		 jmp	 SHORT $LN44@GCMapSend
$LN42@GCMapSend:
  00190	1b c0		 sbb	 eax, eax
  00192	83 d8 ff	 sbb	 eax, -1
$LN44@GCMapSend:
  00195	85 c0		 test	 eax, eax
  00197	75 07		 jne	 SHORT $LN15@GCMapSend

; 221  : 				{
; 222  : 					btType = eMINIMAP_GUILD;

  00199	c6 85 fb df ff
	ff 03		 mov	 BYTE PTR _btType$210400[ebp], 3
$LN15@GCMapSend:

; 223  : 				}
; 224  : 			}
; 225  : 
; 226  : 
; 227  : 			TUnionInfo * pUnionUser = UnionManager.SearchUnion(lpGuildUser->iGuildUnion);

  001a0	8b 8e 1c 07 00
	00		 mov	 ecx, DWORD PTR [esi+1820]
  001a6	51		 push	 ecx
  001a7	b9 00 00 00 00	 mov	 ecx, OFFSET ?UnionManager@@3VTUnion@@A ; UnionManager
  001ac	e8 00 00 00 00	 call	 ?SearchUnion@TUnion@@QAEPAVTUnionInfo@@H@Z ; TUnion::SearchUnion

; 228  : 			TUnionInfo * pUnionTemp = UnionManager.SearchUnion(lpGuildTemp->iGuildUnion);

  001b1	8b 97 1c 07 00
	00		 mov	 edx, DWORD PTR [edi+1820]
  001b7	52		 push	 edx
  001b8	b9 00 00 00 00	 mov	 ecx, OFFSET ?UnionManager@@3VTUnion@@A ; UnionManager
  001bd	8b f0		 mov	 esi, eax
  001bf	e8 00 00 00 00	 call	 ?SearchUnion@TUnion@@QAEPAVTUnionInfo@@H@Z ; TUnion::SearchUnion

; 229  : 
; 230  : 			if(pData->Alliance)

  001c4	8b bd f4 df ff
	ff		 mov	 edi, DWORD PTR _pData$[ebp]
  001ca	83 7f 10 00	 cmp	 DWORD PTR [edi+16], 0
  001ce	74 40		 je	 SHORT $LN49@GCMapSend

; 231  : 			{
; 232  : 				if(pUnionUser && pUnionTemp)

  001d0	85 f6		 test	 esi, esi
  001d2	74 3c		 je	 SHORT $LN49@GCMapSend
  001d4	85 c0		 test	 eax, eax
  001d6	74 38		 je	 SHORT $LN49@GCMapSend

; 233  : 				{
; 234  : 					if(!strcmp(pUnionUser->m_szMasterGuild, pUnionTemp->m_szMasterGuild))

  001d8	8d 48 10	 lea	 ecx, DWORD PTR [eax+16]
  001db	8d 46 10	 lea	 eax, DWORD PTR [esi+16]
  001de	8b ff		 npad	 2
$LL45@GCMapSend:
  001e0	8a 10		 mov	 dl, BYTE PTR [eax]
  001e2	3a 11		 cmp	 dl, BYTE PTR [ecx]
  001e4	75 1a		 jne	 SHORT $LN46@GCMapSend
  001e6	84 d2		 test	 dl, dl
  001e8	74 12		 je	 SHORT $LN47@GCMapSend
  001ea	8a 50 01	 mov	 dl, BYTE PTR [eax+1]
  001ed	3a 51 01	 cmp	 dl, BYTE PTR [ecx+1]
  001f0	75 0e		 jne	 SHORT $LN46@GCMapSend
  001f2	83 c0 02	 add	 eax, 2
  001f5	83 c1 02	 add	 ecx, 2
  001f8	84 d2		 test	 dl, dl
  001fa	75 e4		 jne	 SHORT $LL45@GCMapSend
$LN47@GCMapSend:
  001fc	33 c0		 xor	 eax, eax
  001fe	eb 05		 jmp	 SHORT $LN48@GCMapSend
$LN46@GCMapSend:
  00200	1b c0		 sbb	 eax, eax
  00202	83 d8 ff	 sbb	 eax, -1
$LN48@GCMapSend:
  00205	85 c0		 test	 eax, eax
  00207	75 07		 jne	 SHORT $LN49@GCMapSend

; 235  : 					{
; 236  : 						btType = eMINIMAP_ALLIANCE;

  00209	c6 85 fb df ff
	ff 04		 mov	 BYTE PTR _btType$210400[ebp], 4
$LN49@GCMapSend:
  00210	8b 8d f0 df ff
	ff		 mov	 ecx, DWORD PTR _iTempCount$[ebp]
  00216	eb 06		 jmp	 SHORT $LN12@GCMapSend
$LN51@GCMapSend:
  00218	8b bd f4 df ff
	ff		 mov	 edi, DWORD PTR _pData$[ebp]
$LN12@GCMapSend:

; 237  : 					}
; 238  : 				}
; 239  : 			}
; 240  : 		}
; 241  : 
; 242  : 		if(pData->Party)

  0021e	83 7f 08 00	 cmp	 DWORD PTR [edi+8], 0
  00222	74 1b		 je	 SHORT $LN10@GCMapSend

; 243  : 		{
; 244  : 			if(lpUser->PartyNumber == lpTemp->PartyNumber)

  00224	8b 85 dc df ff
	ff		 mov	 eax, DWORD PTR _lpUser$[ebp]
  0022a	8b 90 2c 04 00
	00		 mov	 edx, DWORD PTR [eax+1068]
  00230	3b 93 2c 04 00
	00		 cmp	 edx, DWORD PTR [ebx+1068]
  00236	75 07		 jne	 SHORT $LN10@GCMapSend

; 245  : 			{
; 246  : 				btType = eMINIMAP_PARTY;

  00238	c6 85 fb df ff
	ff 02		 mov	 BYTE PTR _btType$210400[ebp], 2
$LN10@GCMapSend:

; 247  : 			}
; 248  : 		}
; 249  : 
; 250  : 		if(pData->NPC)

  0023f	83 7f 18 00	 cmp	 DWORD PTR [edi+24], 0
  00243	74 0e		 je	 SHORT $LN52@GCMapSend

; 251  : 		{
; 252  : 			if(lpTemp->Type == OBJ_NPC)

  00245	66 83 7b 68 03	 cmp	 WORD PTR [ebx+104], 3
  0024a	75 07		 jne	 SHORT $LN52@GCMapSend

; 253  : 			{
; 254  : 				btType = eMINIMAP_NPC;

  0024c	c6 85 fb df ff
	ff 06		 mov	 BYTE PTR _btType$210400[ebp], 6
$LN52@GCMapSend:

; 255  : 			}
; 256  : 		}
; 257  : 
; 258  : 		if(pData->Monster)

  00253	83 7f 1c 00	 cmp	 DWORD PTR [edi+28], 0
  00257	74 0e		 je	 SHORT $LN53@GCMapSend

; 259  : 		{
; 260  : 			if(lpTemp->Type == OBJ_MONSTER)

  00259	66 83 7b 68 02	 cmp	 WORD PTR [ebx+104], 2
  0025e	75 07		 jne	 SHORT $LN53@GCMapSend

; 261  : 			{
; 262  : 				btType = eMINIMAP_MONSTER;

  00260	c6 85 fb df ff
	ff 07		 mov	 BYTE PTR _btType$210400[ebp], 7
$LN53@GCMapSend:

; 263  : 			}
; 264  : 		}
; 265  : 
; 266  : 		if(pData->Boss)

  00267	83 7f 20 00	 cmp	 DWORD PTR [edi+32], 0
  0026b	74 21		 je	 SHORT $LN3@GCMapSend

; 267  : 		{
; 268  : 			if(lpTemp->Type == OBJ_MONSTER)

  0026d	66 83 7b 68 02	 cmp	 WORD PTR [ebx+104], 2
  00272	75 1a		 jne	 SHORT $LN3@GCMapSend

; 269  : 			{
; 270  : 				if(lpTemp->MaxLife >= 100000)

  00274	d9 05 00 00 00
	00		 fld	 DWORD PTR __real@47c35000
  0027a	d8 9b 00 01 00
	00		 fcomp	 DWORD PTR [ebx+256]
  00280	df e0		 fnstsw	 ax
  00282	f6 c4 41	 test	 ah, 65			; 00000041H
  00285	7a 07		 jp	 SHORT $LN3@GCMapSend

; 271  : 				{
; 272  : 					btType = eMINIMAP_BOSS;

  00287	c6 85 fb df ff
	ff 08		 mov	 BYTE PTR _btType$210400[ebp], 8
$LN3@GCMapSend:

; 273  : 				}
; 274  : 			}
; 275  : 		}
; 276  : 
; 277  : 		MINIMAP_MONSTER Info;
; 278  : 		Info.Type = btType;

  0028e	0f b6 85 fb df
	ff ff		 movzx	 eax, BYTE PTR _btType$210400[ebp]

; 279  : 		Info.MapX = lpTemp->X;

  00295	8a 93 44 01 00
	00		 mov	 dl, BYTE PTR [ebx+324]
  0029b	88 85 ec df ff
	ff		 mov	 BYTE PTR _Info$210424[ebp], al

; 280  : 		Info.MapY = lpTemp->Y;

  002a1	8a 83 46 01 00
	00		 mov	 al, BYTE PTR [ebx+326]
  002a7	88 95 ed df ff
	ff		 mov	 BYTE PTR _Info$210424[ebp+1], dl

; 281  : 
; 282  : 		// ----
; 283  : 
; 284  : 		memcpy(&byTempData[iTempSize], &Info, sizeof(Info));

  002ad	8b 95 e0 df ff
	ff		 mov	 edx, DWORD PTR tv500[ebp]
  002b3	66 8b b5 ec df
	ff ff		 mov	 si, WORD PTR _Info$210424[ebp]
  002ba	66 89 32	 mov	 WORD PTR [edx], si
  002bd	88 42 02	 mov	 BYTE PTR [edx+2], al

; 285  : 
; 286  : 		iTempSize += sizeof(Info);

  002c0	8b 85 e8 df ff
	ff		 mov	 eax, DWORD PTR _iTempSize$[ebp]

; 287  : 
; 288  : 		iTempCount++;

  002c6	41		 inc	 ecx
  002c7	83 c0 03	 add	 eax, 3
  002ca	83 c2 03	 add	 edx, 3
  002cd	89 85 e8 df ff
	ff		 mov	 DWORD PTR _iTempSize$[ebp], eax
  002d3	89 95 e0 df ff
	ff		 mov	 DWORD PTR tv500[ebp], edx
  002d9	89 8d f0 df ff
	ff		 mov	 DWORD PTR _iTempCount$[ebp], ecx

; 289  : 
; 290  : 		if(iTempCount >= MINIMAP_MAX)

  002df	81 f9 00 04 00
	00		 cmp	 ecx, 1024		; 00000400H
  002e5	7d 2a		 jge	 SHORT $LN54@GCMapSend
  002e7	8b bd f4 df ff
	ff		 mov	 edi, DWORD PTR _pData$[ebp]
  002ed	8b b5 dc df ff
	ff		 mov	 esi, DWORD PTR _lpUser$[ebp]
$LN26@GCMapSend:

; 173  : 
; 174  : 	for(int n = 0; n < OBJMAX; n++)

  002f3	8b 9d e4 df ff
	ff		 mov	 ebx, DWORD PTR tv502[ebp]
  002f9	81 c3 50 2b 00
	00		 add	 ebx, 11088		; 00002b50H
  002ff	89 9d e4 df ff
	ff		 mov	 DWORD PTR tv502[ebp], ebx
  00305	81 fb 80 d7 e9
	09		 cmp	 ebx, 166320000		; 09e9d780H
  0030b	0f 8c cf fd ff
	ff		 jl	 $LL55@GCMapSend
$LN54@GCMapSend:
  00311	5b		 pop	 ebx

; 291  : 		{
; 292  : 			break;
; 293  : 		}
; 294  : 	}
; 295  : 
; 296  : 	if(iTempCount > 0)

  00312	85 c9		 test	 ecx, ecx
  00314	7e 49		 jle	 SHORT $LN57@GCMapSend

; 297  : 	{
; 298  : 		
; 299  : 		byTempData[0] = 0xC2;
; 300  : 		byTempData[1] = SET_NUMBERH(iTempSize);

  00316	8b d0		 mov	 edx, eax
  00318	c1 ea 08	 shr	 edx, 8

; 301  : 		byTempData[2] = SET_NUMBERL(iTempSize);
; 302  : 		byTempData[3] = 0xFA;
; 303  : 		byTempData[4] = 0xED;
; 304  : 		byTempData[5] = SET_NUMBERH(iTempCount);
; 305  : 		byTempData[6] = SET_NUMBERL(iTempCount);
; 306  : 		
; 307  : 
; 308  : 		//PMSG_MINIMAPZT pMsg;
; 309  : 		//pMsg.h.set((LPBYTE)&pMsg, 0xFA, 0xED, sizeof(iTempSize));
; 310  : 		//pMsg.DataCount = iTempCount;
; 311  : 		//memcpy(&byTempData[0], &pMsg, sizeof(pMsg));
; 312  : 
; 313  : 		DataSend(aIndex, byTempData, iTempSize);

  0031b	50		 push	 eax
  0031c	88 95 fd df ff
	ff		 mov	 BYTE PTR _byTempData$[ebp+1], dl
  00322	88 85 fe df ff
	ff		 mov	 BYTE PTR _byTempData$[ebp+2], al
  00328	8b d1		 mov	 edx, ecx
  0032a	8d 85 fc df ff
	ff		 lea	 eax, DWORD PTR _byTempData$[ebp]
  00330	88 8d 02 e0 ff
	ff		 mov	 BYTE PTR _byTempData$[ebp+6], cl
  00336	8b 8d d8 df ff
	ff		 mov	 ecx, DWORD PTR _aIndex$GSCopy$[ebp]
  0033c	50		 push	 eax
  0033d	c1 ea 08	 shr	 edx, 8
  00340	51		 push	 ecx
  00341	c6 85 fc df ff
	ff c2		 mov	 BYTE PTR _byTempData$[ebp], 194 ; 000000c2H
  00348	66 c7 85 ff df
	ff ff fa ed	 mov	 WORD PTR _byTempData$[ebp+3], 60922 ; 0000edfaH
  00351	88 95 01 e0 ff
	ff		 mov	 BYTE PTR _byTempData$[ebp+5], dl
  00357	e8 00 00 00 00	 call	 ?DataSend@@YAHHPAEK@Z	; DataSend
  0035c	83 c4 0c	 add	 esp, 12			; 0000000cH
$LN57@GCMapSend:
  0035f	5f		 pop	 edi
$LN1@GCMapSend:

; 314  : 	}
; 315  : 
; 316  : }

  00360	8b 4d fc	 mov	 ecx, DWORD PTR __$ArrayPad$[ebp]
  00363	33 cd		 xor	 ecx, ebp
  00365	5e		 pop	 esi
  00366	e8 00 00 00 00	 call	 @__security_check_cookie@4
  0036b	8b e5		 mov	 esp, ebp
  0036d	5d		 pop	 ebp
  0036e	c2 04 00	 ret	 4
?GCMapSend@CMiniMapZt@@QAEXH@Z ENDP			; CMiniMapZt::GCMapSend
_TEXT	ENDS
PUBLIC	??0?$vector@UMINIMAP_DATA@@V?$allocator@UMINIMAP_DATA@@@std@@@std@@QAE@XZ ; std::vector<MINIMAP_DATA,std::allocator<MINIMAP_DATA> >::vector<MINIMAP_DATA,std::allocator<MINIMAP_DATA> >
; Function compile flags: /Ogtp
; File d:\program files (x86)\microsoft visual studio 10.0\vc\include\vector
;	COMDAT ??0?$vector@UMINIMAP_DATA@@V?$allocator@UMINIMAP_DATA@@@std@@@std@@QAE@XZ
_TEXT	SEGMENT
??0?$vector@UMINIMAP_DATA@@V?$allocator@UMINIMAP_DATA@@@std@@@std@@QAE@XZ PROC ; std::vector<MINIMAP_DATA,std::allocator<MINIMAP_DATA> >::vector<MINIMAP_DATA,std::allocator<MINIMAP_DATA> >, COMDAT
; _this$ = ecx

; 507  : 		{	// construct empty vector

  00000	8b c1		 mov	 eax, ecx
  00002	33 c9		 xor	 ecx, ecx
  00004	89 08		 mov	 DWORD PTR [eax], ecx
  00006	89 48 04	 mov	 DWORD PTR [eax+4], ecx
  00009	89 48 08	 mov	 DWORD PTR [eax+8], ecx

; 508  : 		}

  0000c	c3		 ret	 0
??0?$vector@UMINIMAP_DATA@@V?$allocator@UMINIMAP_DATA@@@std@@@std@@QAE@XZ ENDP ; std::vector<MINIMAP_DATA,std::allocator<MINIMAP_DATA> >::vector<MINIMAP_DATA,std::allocator<MINIMAP_DATA> >
_TEXT	ENDS
PUBLIC	??0?$_Vector_iterator@V?$_Vector_val@UMINIMAP_DATA@@V?$allocator@UMINIMAP_DATA@@@std@@@std@@@std@@QAE@PAUMINIMAP_DATA@@PBU_Container_base0@1@@Z ; std::_Vector_iterator<std::_Vector_val<MINIMAP_DATA,std::allocator<MINIMAP_DATA> > >::_Vector_iterator<std::_Vector_val<MINIMAP_DATA,std::allocator<MINIMAP_DATA> > >
; Function compile flags: /Ogtp
;	COMDAT ??0?$_Vector_iterator@V?$_Vector_val@UMINIMAP_DATA@@V?$allocator@UMINIMAP_DATA@@@std@@@std@@@std@@QAE@PAUMINIMAP_DATA@@PBU_Container_base0@1@@Z
_TEXT	SEGMENT
__Parg$ = 8						; size = 4
__Pvector$ = 12						; size = 4
??0?$_Vector_iterator@V?$_Vector_val@UMINIMAP_DATA@@V?$allocator@UMINIMAP_DATA@@@std@@@std@@@std@@QAE@PAUMINIMAP_DATA@@PBU_Container_base0@1@@Z PROC ; std::_Vector_iterator<std::_Vector_val<MINIMAP_DATA,std::allocator<MINIMAP_DATA> > >::_Vector_iterator<std::_Vector_val<MINIMAP_DATA,std::allocator<MINIMAP_DATA> > >, COMDAT
; _this$ = ecx

; 304  : 		{	// construct with pointer _Parg

  00000	55		 push	 ebp
  00001	8b ec		 mov	 ebp, esp
  00003	8b c1		 mov	 eax, ecx
  00005	8b 4d 08	 mov	 ecx, DWORD PTR __Parg$[ebp]
  00008	89 08		 mov	 DWORD PTR [eax], ecx

; 305  : 		}

  0000a	5d		 pop	 ebp
  0000b	c2 08 00	 ret	 8
??0?$_Vector_iterator@V?$_Vector_val@UMINIMAP_DATA@@V?$allocator@UMINIMAP_DATA@@@std@@@std@@@std@@QAE@PAUMINIMAP_DATA@@PBU_Container_base0@1@@Z ENDP ; std::_Vector_iterator<std::_Vector_val<MINIMAP_DATA,std::allocator<MINIMAP_DATA> > >::_Vector_iterator<std::_Vector_val<MINIMAP_DATA,std::allocator<MINIMAP_DATA> > >
_TEXT	ENDS
PUBLIC	??9?$_Vector_const_iterator@V?$_Vector_val@UMINIMAP_DATA@@V?$allocator@UMINIMAP_DATA@@@std@@@std@@@std@@QBE_NABV01@@Z ; std::_Vector_const_iterator<std::_Vector_val<MINIMAP_DATA,std::allocator<MINIMAP_DATA> > >::operator!=
; Function compile flags: /Ogtp
;	COMDAT ??9?$_Vector_const_iterator@V?$_Vector_val@UMINIMAP_DATA@@V?$allocator@UMINIMAP_DATA@@@std@@@std@@@std@@QBE_NABV01@@Z
_TEXT	SEGMENT
__Right$ = 8						; size = 4
??9?$_Vector_const_iterator@V?$_Vector_val@UMINIMAP_DATA@@V?$allocator@UMINIMAP_DATA@@@std@@@std@@@std@@QBE_NABV01@@Z PROC ; std::_Vector_const_iterator<std::_Vector_val<MINIMAP_DATA,std::allocator<MINIMAP_DATA> > >::operator!=, COMDAT
; _this$ = ecx

; 207  : 		{	// test for iterator inequality

  00000	55		 push	 ebp
  00001	8b ec		 mov	 ebp, esp

; 208  : 		return (!(*this == _Right));

  00003	8b 01		 mov	 eax, DWORD PTR [ecx]
  00005	8b 55 08	 mov	 edx, DWORD PTR __Right$[ebp]
  00008	33 c9		 xor	 ecx, ecx
  0000a	3b 02		 cmp	 eax, DWORD PTR [edx]
  0000c	0f 95 c0	 setne	 al

; 209  : 		}

  0000f	5d		 pop	 ebp
  00010	c2 04 00	 ret	 4
??9?$_Vector_const_iterator@V?$_Vector_val@UMINIMAP_DATA@@V?$allocator@UMINIMAP_DATA@@@std@@@std@@@std@@QBE_NABV01@@Z ENDP ; std::_Vector_const_iterator<std::_Vector_val<MINIMAP_DATA,std::allocator<MINIMAP_DATA> > >::operator!=
_TEXT	ENDS
PUBLIC	?allocate@?$allocator@UMINIMAP_DATA@@@std@@QAEPAUMINIMAP_DATA@@I@Z ; std::allocator<MINIMAP_DATA>::allocate
; Function compile flags: /Ogtp
; File d:\program files (x86)\microsoft visual studio 10.0\vc\include\xmemory
;	COMDAT ?allocate@?$allocator@UMINIMAP_DATA@@@std@@QAEPAUMINIMAP_DATA@@I@Z
_TEXT	SEGMENT
$T211764 = -12						; size = 12
$T211756 = 8						; size = 4
__Count$ = 8						; size = 4
?allocate@?$allocator@UMINIMAP_DATA@@@std@@QAEPAUMINIMAP_DATA@@I@Z PROC ; std::allocator<MINIMAP_DATA>::allocate, COMDAT
; _this$ = ecx

; 186  : 		{	// allocate array of _Count elements

  00000	55		 push	 ebp
  00001	8b ec		 mov	 ebp, esp

; 187  : 		return (_Allocate(_Count, (pointer)0));

  00003	8b 4d 08	 mov	 ecx, DWORD PTR __Count$[ebp]
  00006	83 ec 0c	 sub	 esp, 12			; 0000000cH
  00009	33 c0		 xor	 eax, eax
  0000b	85 c9		 test	 ecx, ecx
  0000d	74 44		 je	 SHORT $LN1@allocate
  0000f	81 f9 c7 71 1c
	07		 cmp	 ecx, 119304647		; 071c71c7H
  00015	77 14		 ja	 SHORT $LN3@allocate
  00017	8d 04 c9	 lea	 eax, DWORD PTR [ecx+ecx*8]
  0001a	03 c0		 add	 eax, eax
  0001c	03 c0		 add	 eax, eax
  0001e	50		 push	 eax
  0001f	e8 00 00 00 00	 call	 ??2@YAPAXI@Z		; operator new
  00024	83 c4 04	 add	 esp, 4
  00027	85 c0		 test	 eax, eax
  00029	75 28		 jne	 SHORT $LN1@allocate
$LN3@allocate:
  0002b	8d 4d 08	 lea	 ecx, DWORD PTR $T211756[ebp]
  0002e	51		 push	 ecx
  0002f	8d 4d f4	 lea	 ecx, DWORD PTR $T211764[ebp]
  00032	c7 45 08 00 00
	00 00		 mov	 DWORD PTR $T211756[ebp], 0
  00039	e8 00 00 00 00	 call	 ??0exception@std@@QAE@ABQBD@Z ; std::exception::exception
  0003e	68 00 00 00 00	 push	 OFFSET __TI2?AVbad_alloc@std@@
  00043	8d 55 f4	 lea	 edx, DWORD PTR $T211764[ebp]
  00046	52		 push	 edx
  00047	c7 45 f4 00 00
	00 00		 mov	 DWORD PTR $T211764[ebp], OFFSET ??_7bad_alloc@std@@6B@
  0004e	e8 00 00 00 00	 call	 __CxxThrowException@8
$LN13@allocate:
$LN1@allocate:

; 188  : 		}

  00053	8b e5		 mov	 esp, ebp
  00055	5d		 pop	 ebp
  00056	c2 04 00	 ret	 4
$LN12@allocate:
?allocate@?$allocator@UMINIMAP_DATA@@@std@@QAEPAUMINIMAP_DATA@@I@Z ENDP ; std::allocator<MINIMAP_DATA>::allocate
_TEXT	ENDS
PUBLIC	??$_Cons_val@V?$allocator@UMINIMAP_DATA@@@std@@UMINIMAP_DATA@@ABU3@@std@@YAXAAV?$allocator@UMINIMAP_DATA@@@0@PAUMINIMAP_DATA@@ABU2@@Z ; std::_Cons_val<std::allocator<MINIMAP_DATA>,MINIMAP_DATA,MINIMAP_DATA const &>
; Function compile flags: /Ogtp
;	COMDAT ??$_Cons_val@V?$allocator@UMINIMAP_DATA@@@std@@UMINIMAP_DATA@@ABU3@@std@@YAXAAV?$allocator@UMINIMAP_DATA@@@0@PAUMINIMAP_DATA@@ABU2@@Z
_TEXT	SEGMENT
__Alval$ = 8						; size = 4
__Pdest$ = 12						; size = 4
__Src$ = 16						; size = 4
??$_Cons_val@V?$allocator@UMINIMAP_DATA@@@std@@UMINIMAP_DATA@@ABU3@@std@@YAXAAV?$allocator@UMINIMAP_DATA@@@0@PAUMINIMAP_DATA@@ABU2@@Z PROC ; std::_Cons_val<std::allocator<MINIMAP_DATA>,MINIMAP_DATA,MINIMAP_DATA const &>, COMDAT

; 279  : 	{	// construct using allocator

  00000	55		 push	 ebp
  00001	8b ec		 mov	 ebp, esp
  00003	57		 push	 edi

; 280  : 	_Alval.construct(_Pdest, _STD forward<_Ty2>(_Src));

  00004	8b 7d 0c	 mov	 edi, DWORD PTR __Pdest$[ebp]
  00007	85 ff		 test	 edi, edi
  00009	74 0c		 je	 SHORT $LN9@Cons_val@2
  0000b	56		 push	 esi
  0000c	8b 75 10	 mov	 esi, DWORD PTR __Src$[ebp]
  0000f	b9 09 00 00 00	 mov	 ecx, 9
  00014	f3 a5		 rep movsd
  00016	5e		 pop	 esi
$LN9@Cons_val@2:
  00017	5f		 pop	 edi

; 281  : 	}

  00018	5d		 pop	 ebp
  00019	c3		 ret	 0
??$_Cons_val@V?$allocator@UMINIMAP_DATA@@@std@@UMINIMAP_DATA@@ABU3@@std@@YAXAAV?$allocator@UMINIMAP_DATA@@@0@PAUMINIMAP_DATA@@ABU2@@Z ENDP ; std::_Cons_val<std::allocator<MINIMAP_DATA>,MINIMAP_DATA,MINIMAP_DATA const &>
_TEXT	ENDS
PUBLIC	??$_Move@PAUMINIMAP_DATA@@PAU1@@std@@YAPAUMINIMAP_DATA@@PAU1@00@Z ; std::_Move<MINIMAP_DATA *,MINIMAP_DATA *>
; Function compile flags: /Ogtp
; File d:\program files (x86)\microsoft visual studio 10.0\vc\include\xutility
;	COMDAT ??$_Move@PAUMINIMAP_DATA@@PAU1@@std@@YAPAUMINIMAP_DATA@@PAU1@00@Z
_TEXT	SEGMENT
__First$ = 8						; size = 4
__Last$ = 12						; size = 4
__Dest$ = 16						; size = 4
??$_Move@PAUMINIMAP_DATA@@PAU1@@std@@YAPAUMINIMAP_DATA@@PAU1@00@Z PROC ; std::_Move<MINIMAP_DATA *,MINIMAP_DATA *>, COMDAT

; 2533 : 	{	// move [_First, _Last) to [_Dest, ...), unchecked

  00000	55		 push	 ebp
  00001	8b ec		 mov	 ebp, esp

; 2534 : 	return (_Move(_First, _Last,
; 2535 : 		_Dest, _Ptr_cat(_First, _Dest)));

  00003	8b 55 08	 mov	 edx, DWORD PTR __First$[ebp]
  00006	8b 45 10	 mov	 eax, DWORD PTR __Dest$[ebp]
  00009	53		 push	 ebx
  0000a	8b 5d 0c	 mov	 ebx, DWORD PTR __Last$[ebp]
  0000d	3b d3		 cmp	 edx, ebx
  0000f	74 19		 je	 SHORT $LN5@Move@2
  00011	56		 push	 esi
  00012	57		 push	 edi
$LL7@Move@2:
  00013	8b f2		 mov	 esi, edx
  00015	8b f8		 mov	 edi, eax
  00017	83 c2 24	 add	 edx, 36			; 00000024H
  0001a	b9 09 00 00 00	 mov	 ecx, 9
  0001f	83 c0 24	 add	 eax, 36			; 00000024H
  00022	f3 a5		 rep movsd
  00024	3b d3		 cmp	 edx, ebx
  00026	75 eb		 jne	 SHORT $LL7@Move@2
  00028	5f		 pop	 edi
  00029	5e		 pop	 esi
$LN5@Move@2:
  0002a	5b		 pop	 ebx

; 2536 : 	}

  0002b	5d		 pop	 ebp
  0002c	c3		 ret	 0
??$_Move@PAUMINIMAP_DATA@@PAU1@@std@@YAPAUMINIMAP_DATA@@PAU1@00@Z ENDP ; std::_Move<MINIMAP_DATA *,MINIMAP_DATA *>
_TEXT	ENDS
PUBLIC	??$_Dest_val@V?$allocator@UMINIMAP_DATA@@@std@@UMINIMAP_DATA@@@std@@YAXAAV?$allocator@UMINIMAP_DATA@@@0@PAUMINIMAP_DATA@@@Z ; std::_Dest_val<std::allocator<MINIMAP_DATA>,MINIMAP_DATA>
; Function compile flags: /Ogtp
; File d:\program files (x86)\microsoft visual studio 10.0\vc\include\xmemory
;	COMDAT ??$_Dest_val@V?$allocator@UMINIMAP_DATA@@@std@@UMINIMAP_DATA@@@std@@YAXAAV?$allocator@UMINIMAP_DATA@@@0@PAUMINIMAP_DATA@@@Z
_TEXT	SEGMENT
__Alval$ = 8						; size = 4
__Pdest$ = 12						; size = 4
??$_Dest_val@V?$allocator@UMINIMAP_DATA@@@std@@UMINIMAP_DATA@@@std@@YAXAAV?$allocator@UMINIMAP_DATA@@@0@PAUMINIMAP_DATA@@@Z PROC ; std::_Dest_val<std::allocator<MINIMAP_DATA>,MINIMAP_DATA>, COMDAT

; 287  : 	_Alval.destroy(_Pdest);
; 288  : 	}

  00000	c3		 ret	 0
??$_Dest_val@V?$allocator@UMINIMAP_DATA@@@std@@UMINIMAP_DATA@@@std@@YAXAAV?$allocator@UMINIMAP_DATA@@@0@PAUMINIMAP_DATA@@@Z ENDP ; std::_Dest_val<std::allocator<MINIMAP_DATA>,MINIMAP_DATA>
_TEXT	ENDS
PUBLIC	??$_Cons_val@V?$allocator@UMINIMAP_DATA@@@std@@UMINIMAP_DATA@@U3@@std@@YAXAAV?$allocator@UMINIMAP_DATA@@@0@PAUMINIMAP_DATA@@$$QAU2@@Z ; std::_Cons_val<std::allocator<MINIMAP_DATA>,MINIMAP_DATA,MINIMAP_DATA>
; Function compile flags: /Ogtp
;	COMDAT ??$_Cons_val@V?$allocator@UMINIMAP_DATA@@@std@@UMINIMAP_DATA@@U3@@std@@YAXAAV?$allocator@UMINIMAP_DATA@@@0@PAUMINIMAP_DATA@@$$QAU2@@Z
_TEXT	SEGMENT
__Alval$ = 8						; size = 4
__Pdest$ = 12						; size = 4
__Src$ = 16						; size = 4
??$_Cons_val@V?$allocator@UMINIMAP_DATA@@@std@@UMINIMAP_DATA@@U3@@std@@YAXAAV?$allocator@UMINIMAP_DATA@@@0@PAUMINIMAP_DATA@@$$QAU2@@Z PROC ; std::_Cons_val<std::allocator<MINIMAP_DATA>,MINIMAP_DATA,MINIMAP_DATA>, COMDAT

; 279  : 	{	// construct using allocator

  00000	55		 push	 ebp
  00001	8b ec		 mov	 ebp, esp
  00003	57		 push	 edi

; 280  : 	_Alval.construct(_Pdest, _STD forward<_Ty2>(_Src));

  00004	8b 7d 0c	 mov	 edi, DWORD PTR __Pdest$[ebp]
  00007	85 ff		 test	 edi, edi
  00009	74 0c		 je	 SHORT $LN7@Cons_val@3
  0000b	56		 push	 esi
  0000c	8b 75 10	 mov	 esi, DWORD PTR __Src$[ebp]
  0000f	b9 09 00 00 00	 mov	 ecx, 9
  00014	f3 a5		 rep movsd
  00016	5e		 pop	 esi
$LN7@Cons_val@3:
  00017	5f		 pop	 edi

; 281  : 	}

  00018	5d		 pop	 ebp
  00019	c3		 ret	 0
??$_Cons_val@V?$allocator@UMINIMAP_DATA@@@std@@UMINIMAP_DATA@@U3@@std@@YAXAAV?$allocator@UMINIMAP_DATA@@@0@PAUMINIMAP_DATA@@$$QAU2@@Z ENDP ; std::_Cons_val<std::allocator<MINIMAP_DATA>,MINIMAP_DATA,MINIMAP_DATA>
_TEXT	ENDS
PUBLIC	?Run@CMiniMapZt@@QAEXXZ				; CMiniMapZt::Run
; Function compile flags: /Ogtp
; File e:\work\tranet_version\gs\gameserver\minimapzt.cpp
;	COMDAT ?Run@CMiniMapZt@@QAEXXZ
_TEXT	SEGMENT
?Run@CMiniMapZt@@QAEXXZ PROC				; CMiniMapZt::Run, COMDAT
; _this$ = ecx

; 116  : {

  00000	57		 push	 edi
  00001	8b f9		 mov	 edi, ecx

; 117  : 	if(!this->m_Enable)

  00003	83 3f 00	 cmp	 DWORD PTR [edi], 0
  00006	74 1a		 je	 SHORT $LN1@Run

; 118  : 	{
; 119  : 		return;
; 120  : 	}
; 121  : 
; 122  : 	for(int n = OBJ_STARTUSERINDZT; n < OBJMAX; n++)

  00008	56		 push	 esi
  00009	be b0 36 00 00	 mov	 esi, 14000		; 000036b0H
  0000e	8b ff		 npad	 2
$LL3@Run:

; 123  : 	{
; 124  : 		this->GCMapSend(n);

  00010	56		 push	 esi
  00011	8b cf		 mov	 ecx, edi
  00013	e8 00 00 00 00	 call	 ?GCMapSend@CMiniMapZt@@QAEXH@Z ; CMiniMapZt::GCMapSend
  00018	46		 inc	 esi
  00019	81 fe 98 3a 00
	00		 cmp	 esi, 15000		; 00003a98H
  0001f	7c ef		 jl	 SHORT $LL3@Run
  00021	5e		 pop	 esi
$LN1@Run:
  00022	5f		 pop	 edi

; 125  : 	}	
; 126  : }

  00023	c3		 ret	 0
?Run@CMiniMapZt@@QAEXXZ ENDP				; CMiniMapZt::Run
_TEXT	ENDS
PUBLIC	?begin@?$vector@UMINIMAP_DATA@@V?$allocator@UMINIMAP_DATA@@@std@@@std@@QAE?AV?$_Vector_iterator@V?$_Vector_val@UMINIMAP_DATA@@V?$allocator@UMINIMAP_DATA@@@std@@@std@@@2@XZ ; std::vector<MINIMAP_DATA,std::allocator<MINIMAP_DATA> >::begin
; Function compile flags: /Ogtp
; File d:\program files (x86)\microsoft visual studio 10.0\vc\include\vector
;	COMDAT ?begin@?$vector@UMINIMAP_DATA@@V?$allocator@UMINIMAP_DATA@@@std@@@std@@QAE?AV?$_Vector_iterator@V?$_Vector_val@UMINIMAP_DATA@@V?$allocator@UMINIMAP_DATA@@@std@@@std@@@2@XZ
_TEXT	SEGMENT
___$ReturnUdt$ = 8					; size = 4
?begin@?$vector@UMINIMAP_DATA@@V?$allocator@UMINIMAP_DATA@@@std@@@std@@QAE?AV?$_Vector_iterator@V?$_Vector_val@UMINIMAP_DATA@@V?$allocator@UMINIMAP_DATA@@@std@@@std@@@2@XZ PROC ; std::vector<MINIMAP_DATA,std::allocator<MINIMAP_DATA> >::begin, COMDAT
; _this$ = ecx

; 781  : 		{	// return iterator for beginning of mutable sequence

  00000	55		 push	 ebp
  00001	8b ec		 mov	 ebp, esp

; 782  : 		return (iterator(this->_Myfirst, this));

  00003	8b 09		 mov	 ecx, DWORD PTR [ecx]
  00005	8b 45 08	 mov	 eax, DWORD PTR ___$ReturnUdt$[ebp]
  00008	89 08		 mov	 DWORD PTR [eax], ecx

; 783  : 		}

  0000a	5d		 pop	 ebp
  0000b	c2 04 00	 ret	 4
?begin@?$vector@UMINIMAP_DATA@@V?$allocator@UMINIMAP_DATA@@@std@@@std@@QAE?AV?$_Vector_iterator@V?$_Vector_val@UMINIMAP_DATA@@V?$allocator@UMINIMAP_DATA@@@std@@@std@@@2@XZ ENDP ; std::vector<MINIMAP_DATA,std::allocator<MINIMAP_DATA> >::begin
_TEXT	ENDS
PUBLIC	?end@?$vector@UMINIMAP_DATA@@V?$allocator@UMINIMAP_DATA@@@std@@@std@@QAE?AV?$_Vector_iterator@V?$_Vector_val@UMINIMAP_DATA@@V?$allocator@UMINIMAP_DATA@@@std@@@std@@@2@XZ ; std::vector<MINIMAP_DATA,std::allocator<MINIMAP_DATA> >::end
; Function compile flags: /Ogtp
;	COMDAT ?end@?$vector@UMINIMAP_DATA@@V?$allocator@UMINIMAP_DATA@@@std@@@std@@QAE?AV?$_Vector_iterator@V?$_Vector_val@UMINIMAP_DATA@@V?$allocator@UMINIMAP_DATA@@@std@@@std@@@2@XZ
_TEXT	SEGMENT
___$ReturnUdt$ = 8					; size = 4
?end@?$vector@UMINIMAP_DATA@@V?$allocator@UMINIMAP_DATA@@@std@@@std@@QAE?AV?$_Vector_iterator@V?$_Vector_val@UMINIMAP_DATA@@V?$allocator@UMINIMAP_DATA@@@std@@@std@@@2@XZ PROC ; std::vector<MINIMAP_DATA,std::allocator<MINIMAP_DATA> >::end, COMDAT
; _this$ = ecx

; 791  : 		{	// return iterator for end of mutable sequence

  00000	55		 push	 ebp
  00001	8b ec		 mov	 ebp, esp

; 792  : 		return (iterator(this->_Mylast, this));

  00003	8b 49 04	 mov	 ecx, DWORD PTR [ecx+4]
  00006	8b 45 08	 mov	 eax, DWORD PTR ___$ReturnUdt$[ebp]
  00009	89 08		 mov	 DWORD PTR [eax], ecx

; 793  : 		}

  0000b	5d		 pop	 ebp
  0000c	c2 04 00	 ret	 4
?end@?$vector@UMINIMAP_DATA@@V?$allocator@UMINIMAP_DATA@@@std@@@std@@QAE?AV?$_Vector_iterator@V?$_Vector_val@UMINIMAP_DATA@@V?$allocator@UMINIMAP_DATA@@@std@@@std@@@2@XZ ENDP ; std::vector<MINIMAP_DATA,std::allocator<MINIMAP_DATA> >::end
_TEXT	ENDS
PUBLIC	?_Make_iter@?$vector@UMINIMAP_DATA@@V?$allocator@UMINIMAP_DATA@@@std@@@std@@QBE?AV?$_Vector_iterator@V?$_Vector_val@UMINIMAP_DATA@@V?$allocator@UMINIMAP_DATA@@@std@@@std@@@2@V?$_Vector_const_iterator@V?$_Vector_val@UMINIMAP_DATA@@V?$allocator@UMINIMAP_DATA@@@std@@@std@@@2@@Z ; std::vector<MINIMAP_DATA,std::allocator<MINIMAP_DATA> >::_Make_iter
; Function compile flags: /Ogtp
;	COMDAT ?_Make_iter@?$vector@UMINIMAP_DATA@@V?$allocator@UMINIMAP_DATA@@@std@@@std@@QBE?AV?$_Vector_iterator@V?$_Vector_val@UMINIMAP_DATA@@V?$allocator@UMINIMAP_DATA@@@std@@@std@@@2@V?$_Vector_const_iterator@V?$_Vector_val@UMINIMAP_DATA@@V?$allocator@UMINIMAP_DATA@@@std@@@std@@@2@@Z
_TEXT	SEGMENT
___$ReturnUdt$ = 8					; size = 4
__Where$ = 12						; size = 4
?_Make_iter@?$vector@UMINIMAP_DATA@@V?$allocator@UMINIMAP_DATA@@@std@@@std@@QBE?AV?$_Vector_iterator@V?$_Vector_val@UMINIMAP_DATA@@V?$allocator@UMINIMAP_DATA@@@std@@@std@@@2@V?$_Vector_const_iterator@V?$_Vector_val@UMINIMAP_DATA@@V?$allocator@UMINIMAP_DATA@@@std@@@std@@@2@@Z PROC ; std::vector<MINIMAP_DATA,std::allocator<MINIMAP_DATA> >::_Make_iter, COMDAT
; _this$ = ecx

; 801  : 		{	// make iterator from const_iterator

  00000	55		 push	 ebp
  00001	8b ec		 mov	 ebp, esp

; 802  : 		return (iterator(_Where._Ptr, this));

  00003	8b 45 08	 mov	 eax, DWORD PTR ___$ReturnUdt$[ebp]
  00006	8b 4d 0c	 mov	 ecx, DWORD PTR __Where$[ebp]
  00009	89 08		 mov	 DWORD PTR [eax], ecx

; 803  : 		}

  0000b	5d		 pop	 ebp
  0000c	c2 08 00	 ret	 8
?_Make_iter@?$vector@UMINIMAP_DATA@@V?$allocator@UMINIMAP_DATA@@@std@@@std@@QBE?AV?$_Vector_iterator@V?$_Vector_val@UMINIMAP_DATA@@V?$allocator@UMINIMAP_DATA@@@std@@@std@@@2@V?$_Vector_const_iterator@V?$_Vector_val@UMINIMAP_DATA@@V?$allocator@UMINIMAP_DATA@@@std@@@std@@@2@@Z ENDP ; std::vector<MINIMAP_DATA,std::allocator<MINIMAP_DATA> >::_Make_iter
_TEXT	ENDS
PUBLIC	??$_Destroy_range@V?$allocator@UMINIMAP_DATA@@@std@@@std@@YAXPAUMINIMAP_DATA@@0AAV?$allocator@UMINIMAP_DATA@@@0@U_Nonscalar_ptr_iterator_tag@0@@Z ; std::_Destroy_range<std::allocator<MINIMAP_DATA> >
; Function compile flags: /Ogtp
; File d:\program files (x86)\microsoft visual studio 10.0\vc\include\xmemory
;	COMDAT ??$_Destroy_range@V?$allocator@UMINIMAP_DATA@@@std@@@std@@YAXPAUMINIMAP_DATA@@0AAV?$allocator@UMINIMAP_DATA@@@0@U_Nonscalar_ptr_iterator_tag@0@@Z
_TEXT	SEGMENT
__First$ = 8						; size = 4
__Last$ = 12						; size = 4
__Al$ = 16						; size = 4
___formal$ = 20						; size = 1
??$_Destroy_range@V?$allocator@UMINIMAP_DATA@@@std@@@std@@YAXPAUMINIMAP_DATA@@0AAV?$allocator@UMINIMAP_DATA@@@0@U_Nonscalar_ptr_iterator_tag@0@@Z PROC ; std::_Destroy_range<std::allocator<MINIMAP_DATA> >, COMDAT

; 96   : 	for (; _First != _Last; ++_First)
; 97   : 		_Dest_val(_Al, _First);
; 98   : 	}

  00000	c3		 ret	 0
??$_Destroy_range@V?$allocator@UMINIMAP_DATA@@@std@@@std@@YAXPAUMINIMAP_DATA@@0AAV?$allocator@UMINIMAP_DATA@@@0@U_Nonscalar_ptr_iterator_tag@0@@Z ENDP ; std::_Destroy_range<std::allocator<MINIMAP_DATA> >
_TEXT	ENDS
PUBLIC	??$_Uninit_move@PAUMINIMAP_DATA@@PAU1@V?$allocator@UMINIMAP_DATA@@@std@@U1@@std@@YAPAUMINIMAP_DATA@@PAU1@00AAV?$allocator@UMINIMAP_DATA@@@0@0U_Nonscalar_ptr_iterator_tag@0@@Z ; std::_Uninit_move<MINIMAP_DATA *,MINIMAP_DATA *,std::allocator<MINIMAP_DATA>,MINIMAP_DATA>
; Function compile flags: /Ogtp
; File d:\program files (x86)\microsoft visual studio 10.0\vc\include\memory
;	COMDAT ??$_Uninit_move@PAUMINIMAP_DATA@@PAU1@V?$allocator@UMINIMAP_DATA@@@std@@U1@@std@@YAPAUMINIMAP_DATA@@PAU1@00AAV?$allocator@UMINIMAP_DATA@@@0@0U_Nonscalar_ptr_iterator_tag@0@@Z
_TEXT	SEGMENT
__First$ = 8						; size = 4
__Last$ = 12						; size = 4
__Dest$ = 16						; size = 4
__Al$ = 20						; size = 4
___formal$ = 24						; size = 4
___formal$ = 28						; size = 1
??$_Uninit_move@PAUMINIMAP_DATA@@PAU1@V?$allocator@UMINIMAP_DATA@@@std@@U1@@std@@YAPAUMINIMAP_DATA@@PAU1@00AAV?$allocator@UMINIMAP_DATA@@@0@0U_Nonscalar_ptr_iterator_tag@0@@Z PROC ; std::_Uninit_move<MINIMAP_DATA *,MINIMAP_DATA *,std::allocator<MINIMAP_DATA>,MINIMAP_DATA>, COMDAT

; 424  : 	{	// move [_First, _Last) to raw _Dest, using _Al, arbitrary type

  00000	55		 push	 ebp
  00001	8b ec		 mov	 ebp, esp
  00003	53		 push	 ebx

; 425  : 	_DEBUG_RANGE(_First, _Last);
; 426  : 	_DEBUG_POINTER(_Dest);
; 427  : 	_FwdIt _Next = _Dest;
; 428  : 
; 429  : 	_TRY_BEGIN
; 430  : 	for (; _First != _Last; ++_Dest, ++_First)

  00004	8b 5d 0c	 mov	 ebx, DWORD PTR __Last$[ebp]
  00007	56		 push	 esi
  00008	8b 75 08	 mov	 esi, DWORD PTR __First$[ebp]
  0000b	3b f3		 cmp	 esi, ebx
  0000d	74 23		 je	 SHORT $LN17@Uninit_mov
  0000f	57		 push	 edi
  00010	8b 7d 10	 mov	 edi, DWORD PTR __Dest$[ebp]
$LL6@Uninit_mov:

; 431  : 		_Cons_val(_Al, _Dest, (_Valty &&)*_First);

  00013	8b 45 14	 mov	 eax, DWORD PTR __Al$[ebp]
  00016	56		 push	 esi
  00017	57		 push	 edi
  00018	50		 push	 eax
  00019	e8 00 00 00 00	 call	 ??$_Cons_val@V?$allocator@UMINIMAP_DATA@@@std@@UMINIMAP_DATA@@U3@@std@@YAXAAV?$allocator@UMINIMAP_DATA@@@0@PAUMINIMAP_DATA@@$$QAU2@@Z ; std::_Cons_val<std::allocator<MINIMAP_DATA>,MINIMAP_DATA,MINIMAP_DATA>
  0001e	83 c6 24	 add	 esi, 36			; 00000024H
  00021	83 c4 0c	 add	 esp, 12			; 0000000cH
  00024	83 c7 24	 add	 edi, 36			; 00000024H
  00027	3b f3		 cmp	 esi, ebx
  00029	75 e8		 jne	 SHORT $LL6@Uninit_mov

; 432  : 	_CATCH_ALL
; 433  : 	for (; _Next != _Dest; ++_Next)
; 434  : 		_Dest_val(_Al, _Next);
; 435  : 	_RERAISE;
; 436  : 	_CATCH_END
; 437  : 	return (_Dest);

  0002b	8b c7		 mov	 eax, edi
  0002d	5f		 pop	 edi
  0002e	5e		 pop	 esi
  0002f	5b		 pop	 ebx

; 438  : 	}

  00030	5d		 pop	 ebp
  00031	c3		 ret	 0
$LN17@Uninit_mov:

; 432  : 	_CATCH_ALL
; 433  : 	for (; _Next != _Dest; ++_Next)
; 434  : 		_Dest_val(_Al, _Next);
; 435  : 	_RERAISE;
; 436  : 	_CATCH_END
; 437  : 	return (_Dest);

  00032	8b 45 10	 mov	 eax, DWORD PTR __Dest$[ebp]
  00035	5e		 pop	 esi
  00036	5b		 pop	 ebx

; 438  : 	}

  00037	5d		 pop	 ebp
  00038	c3		 ret	 0
??$_Uninit_move@PAUMINIMAP_DATA@@PAU1@V?$allocator@UMINIMAP_DATA@@@std@@U1@@std@@YAPAUMINIMAP_DATA@@PAU1@00AAV?$allocator@UMINIMAP_DATA@@@0@0U_Nonscalar_ptr_iterator_tag@0@@Z ENDP ; std::_Uninit_move<MINIMAP_DATA *,MINIMAP_DATA *,std::allocator<MINIMAP_DATA>,MINIMAP_DATA>
_TEXT	ENDS
PUBLIC	??$_Destroy_range@V?$allocator@UMINIMAP_DATA@@@std@@@std@@YAXPAUMINIMAP_DATA@@0AAV?$allocator@UMINIMAP_DATA@@@0@@Z ; std::_Destroy_range<std::allocator<MINIMAP_DATA> >
; Function compile flags: /Ogtp
; File d:\program files (x86)\microsoft visual studio 10.0\vc\include\xmemory
;	COMDAT ??$_Destroy_range@V?$allocator@UMINIMAP_DATA@@@std@@@std@@YAXPAUMINIMAP_DATA@@0AAV?$allocator@UMINIMAP_DATA@@@0@@Z
_TEXT	SEGMENT
__First$ = 8						; size = 4
__Last$ = 12						; size = 4
__Al$ = 16						; size = 4
??$_Destroy_range@V?$allocator@UMINIMAP_DATA@@@std@@@std@@YAXPAUMINIMAP_DATA@@0AAV?$allocator@UMINIMAP_DATA@@@0@@Z PROC ; std::_Destroy_range<std::allocator<MINIMAP_DATA> >, COMDAT

; 88   : 	_Destroy_range(_First, _Last, _Al, _Ptr_cat(_First, _Last));
; 89   : 	}

  00000	c3		 ret	 0
??$_Destroy_range@V?$allocator@UMINIMAP_DATA@@@std@@@std@@YAXPAUMINIMAP_DATA@@0AAV?$allocator@UMINIMAP_DATA@@@0@@Z ENDP ; std::_Destroy_range<std::allocator<MINIMAP_DATA> >
_TEXT	ENDS
PUBLIC	??$_Uninitialized_move@PAUMINIMAP_DATA@@PAU1@V?$allocator@UMINIMAP_DATA@@@std@@@std@@YAPAUMINIMAP_DATA@@PAU1@00AAV?$allocator@UMINIMAP_DATA@@@0@@Z ; std::_Uninitialized_move<MINIMAP_DATA *,MINIMAP_DATA *,std::allocator<MINIMAP_DATA> >
; Function compile flags: /Ogtp
; File d:\program files (x86)\microsoft visual studio 10.0\vc\include\memory
;	COMDAT ??$_Uninitialized_move@PAUMINIMAP_DATA@@PAU1@V?$allocator@UMINIMAP_DATA@@@std@@@std@@YAPAUMINIMAP_DATA@@PAU1@00AAV?$allocator@UMINIMAP_DATA@@@0@@Z
_TEXT	SEGMENT
__Cat$211955 = -4					; size = 1
__First$ = 8						; size = 4
__Last$ = 12						; size = 4
__Dest$ = 16						; size = 4
__Al$ = 20						; size = 4
??$_Uninitialized_move@PAUMINIMAP_DATA@@PAU1@V?$allocator@UMINIMAP_DATA@@@std@@@std@@YAPAUMINIMAP_DATA@@PAU1@00AAV?$allocator@UMINIMAP_DATA@@@0@@Z PROC ; std::_Uninitialized_move<MINIMAP_DATA *,MINIMAP_DATA *,std::allocator<MINIMAP_DATA> >, COMDAT

; 469  : 	{	// move [_First, _Last) to raw _Dest, using _Al

  00000	55		 push	 ebp
  00001	8b ec		 mov	 ebp, esp
  00003	51		 push	 ecx

; 470  : 	return (_Uninit_move(_First, _Last, _Dest, _Al,
; 471  : 		_Val_type(_First), _Ptr_cat(_First, _Dest)));

  00004	8b 45 fc	 mov	 eax, DWORD PTR __Cat$211955[ebp]
  00007	8b 4d 14	 mov	 ecx, DWORD PTR __Al$[ebp]
  0000a	8b 55 10	 mov	 edx, DWORD PTR __Dest$[ebp]
  0000d	50		 push	 eax
  0000e	8b 45 0c	 mov	 eax, DWORD PTR __Last$[ebp]
  00011	6a 00		 push	 0
  00013	51		 push	 ecx
  00014	8b 4d 08	 mov	 ecx, DWORD PTR __First$[ebp]
  00017	52		 push	 edx
  00018	50		 push	 eax
  00019	51		 push	 ecx
  0001a	e8 00 00 00 00	 call	 ??$_Uninit_move@PAUMINIMAP_DATA@@PAU1@V?$allocator@UMINIMAP_DATA@@@std@@U1@@std@@YAPAUMINIMAP_DATA@@PAU1@00AAV?$allocator@UMINIMAP_DATA@@@0@0U_Nonscalar_ptr_iterator_tag@0@@Z ; std::_Uninit_move<MINIMAP_DATA *,MINIMAP_DATA *,std::allocator<MINIMAP_DATA>,MINIMAP_DATA>
  0001f	83 c4 18	 add	 esp, 24			; 00000018H

; 472  : 	}

  00022	8b e5		 mov	 esp, ebp
  00024	5d		 pop	 ebp
  00025	c3		 ret	 0
??$_Uninitialized_move@PAUMINIMAP_DATA@@PAU1@V?$allocator@UMINIMAP_DATA@@@std@@@std@@YAPAUMINIMAP_DATA@@PAU1@00AAV?$allocator@UMINIMAP_DATA@@@0@@Z ENDP ; std::_Uninitialized_move<MINIMAP_DATA *,MINIMAP_DATA *,std::allocator<MINIMAP_DATA> >
_TEXT	ENDS
PUBLIC	?_Destroy@?$vector@UMINIMAP_DATA@@V?$allocator@UMINIMAP_DATA@@@std@@@std@@IAEXPAUMINIMAP_DATA@@0@Z ; std::vector<MINIMAP_DATA,std::allocator<MINIMAP_DATA> >::_Destroy
; Function compile flags: /Ogtp
; File d:\program files (x86)\microsoft visual studio 10.0\vc\include\vector
;	COMDAT ?_Destroy@?$vector@UMINIMAP_DATA@@V?$allocator@UMINIMAP_DATA@@@std@@@std@@IAEXPAUMINIMAP_DATA@@0@Z
_TEXT	SEGMENT
__First$ = 8						; size = 4
__Last$ = 12						; size = 4
?_Destroy@?$vector@UMINIMAP_DATA@@V?$allocator@UMINIMAP_DATA@@@std@@@std@@IAEXPAUMINIMAP_DATA@@0@Z PROC ; std::vector<MINIMAP_DATA,std::allocator<MINIMAP_DATA> >::_Destroy, COMDAT
; _this$ = ecx

; 1270 : 		_Destroy_range(_First, _Last, this->_Alval);
; 1271 : 		}

  00000	c2 08 00	 ret	 8
?_Destroy@?$vector@UMINIMAP_DATA@@V?$allocator@UMINIMAP_DATA@@@std@@@std@@IAEXPAUMINIMAP_DATA@@0@Z ENDP ; std::vector<MINIMAP_DATA,std::allocator<MINIMAP_DATA> >::_Destroy
_TEXT	ENDS
PUBLIC	??$_Umove@PAUMINIMAP_DATA@@@?$vector@UMINIMAP_DATA@@V?$allocator@UMINIMAP_DATA@@@std@@@std@@IAEPAUMINIMAP_DATA@@PAU2@00@Z ; std::vector<MINIMAP_DATA,std::allocator<MINIMAP_DATA> >::_Umove<MINIMAP_DATA *>
; Function compile flags: /Ogtp
;	COMDAT ??$_Umove@PAUMINIMAP_DATA@@@?$vector@UMINIMAP_DATA@@V?$allocator@UMINIMAP_DATA@@@std@@@std@@IAEPAUMINIMAP_DATA@@PAU2@00@Z
_TEXT	SEGMENT
__First$ = 8						; size = 4
__Last$ = 12						; size = 4
__Cat$211975 = 16					; size = 1
__Ptr$ = 16						; size = 4
??$_Umove@PAUMINIMAP_DATA@@@?$vector@UMINIMAP_DATA@@V?$allocator@UMINIMAP_DATA@@@std@@@std@@IAEPAUMINIMAP_DATA@@PAU2@00@Z PROC ; std::vector<MINIMAP_DATA,std::allocator<MINIMAP_DATA> >::_Umove<MINIMAP_DATA *>, COMDAT
; _this$ = ecx

; 1322 : 		pointer _Umove(_Iter _First, _Iter _Last, pointer _Ptr)

  00000	55		 push	 ebp
  00001	8b ec		 mov	 ebp, esp

; 1323 : 		{	// move initializing [_First, _Last), using allocator
; 1324 : 		return (_Uninitialized_move(_First, _Last,
; 1325 : 			_Ptr, this->_Alval));

  00003	8b 45 10	 mov	 eax, DWORD PTR __Cat$211975[ebp]
  00006	8b 55 0c	 mov	 edx, DWORD PTR __Last$[ebp]
  00009	50		 push	 eax
  0000a	8b 45 08	 mov	 eax, DWORD PTR __First$[ebp]
  0000d	6a 00		 push	 0
  0000f	83 c1 0c	 add	 ecx, 12			; 0000000cH
  00012	51		 push	 ecx
  00013	8b 4d 10	 mov	 ecx, DWORD PTR __Ptr$[ebp]
  00016	51		 push	 ecx
  00017	52		 push	 edx
  00018	50		 push	 eax
  00019	e8 00 00 00 00	 call	 ??$_Uninit_move@PAUMINIMAP_DATA@@PAU1@V?$allocator@UMINIMAP_DATA@@@std@@U1@@std@@YAPAUMINIMAP_DATA@@PAU1@00AAV?$allocator@UMINIMAP_DATA@@@0@0U_Nonscalar_ptr_iterator_tag@0@@Z ; std::_Uninit_move<MINIMAP_DATA *,MINIMAP_DATA *,std::allocator<MINIMAP_DATA>,MINIMAP_DATA>
  0001e	83 c4 18	 add	 esp, 24			; 00000018H

; 1326 : 		}

  00021	5d		 pop	 ebp
  00022	c2 0c 00	 ret	 12			; 0000000cH
??$_Umove@PAUMINIMAP_DATA@@@?$vector@UMINIMAP_DATA@@V?$allocator@UMINIMAP_DATA@@@std@@@std@@IAEPAUMINIMAP_DATA@@PAU2@00@Z ENDP ; std::vector<MINIMAP_DATA,std::allocator<MINIMAP_DATA> >::_Umove<MINIMAP_DATA *>
_TEXT	ENDS
PUBLIC	?erase@?$vector@UMINIMAP_DATA@@V?$allocator@UMINIMAP_DATA@@@std@@@std@@QAE?AV?$_Vector_iterator@V?$_Vector_val@UMINIMAP_DATA@@V?$allocator@UMINIMAP_DATA@@@std@@@std@@@2@V?$_Vector_const_iterator@V?$_Vector_val@UMINIMAP_DATA@@V?$allocator@UMINIMAP_DATA@@@std@@@std@@@2@0@Z ; std::vector<MINIMAP_DATA,std::allocator<MINIMAP_DATA> >::erase
; Function compile flags: /Ogtp
;	COMDAT ?erase@?$vector@UMINIMAP_DATA@@V?$allocator@UMINIMAP_DATA@@@std@@@std@@QAE?AV?$_Vector_iterator@V?$_Vector_val@UMINIMAP_DATA@@V?$allocator@UMINIMAP_DATA@@@std@@@std@@@2@V?$_Vector_const_iterator@V?$_Vector_val@UMINIMAP_DATA@@V?$allocator@UMINIMAP_DATA@@@std@@@std@@@2@0@Z
_TEXT	SEGMENT
_this$ = -4						; size = 4
___$ReturnUdt$ = 8					; size = 4
__First_arg$ = 12					; size = 4
__Last_arg$ = 16					; size = 4
?erase@?$vector@UMINIMAP_DATA@@V?$allocator@UMINIMAP_DATA@@@std@@@std@@QAE?AV?$_Vector_iterator@V?$_Vector_val@UMINIMAP_DATA@@V?$allocator@UMINIMAP_DATA@@@std@@@std@@@2@V?$_Vector_const_iterator@V?$_Vector_val@UMINIMAP_DATA@@V?$allocator@UMINIMAP_DATA@@@std@@@std@@@2@0@Z PROC ; std::vector<MINIMAP_DATA,std::allocator<MINIMAP_DATA> >::erase, COMDAT
; _this$ = ecx

; 1190 : 		{	// erase [_First, _Last)

  00000	55		 push	 ebp
  00001	8b ec		 mov	 ebp, esp
  00003	51		 push	 ecx

; 1191 : 		iterator _First = _Make_iter(_First_arg);
; 1192 : 		iterator _Last = _Make_iter(_Last_arg);
; 1193 : 
; 1194 : 		if (_First != _Last)

  00004	8b 55 10	 mov	 edx, DWORD PTR __Last_arg$[ebp]
  00007	53		 push	 ebx
  00008	8b 5d 0c	 mov	 ebx, DWORD PTR __First_arg$[ebp]
  0000b	56		 push	 esi
  0000c	8b 75 08	 mov	 esi, DWORD PTR ___$ReturnUdt$[ebp]
  0000f	89 4d fc	 mov	 DWORD PTR _this$[ebp], ecx
  00012	89 1e		 mov	 DWORD PTR [esi], ebx
  00014	3b da		 cmp	 ebx, edx
  00016	74 27		 je	 SHORT $LN39@erase

; 1195 : 			{	// worth doing, copy down over hole
; 1196 :  #if _ITERATOR_DEBUG_LEVEL == 2
; 1197 : 			if (_Last < _First || _VICONT(_First) != this
; 1198 : 				|| _VIPTR(_First) < this->_Myfirst
; 1199 : 				|| this->_Mylast < _VIPTR(_Last))
; 1200 : 				_DEBUG_ERROR("vector erase iterator outside range");
; 1201 : 			pointer _Ptr = _Move(_VIPTR(_Last), this->_Mylast,
; 1202 : 				_VIPTR(_First));
; 1203 : 			_Orphan_range(_VIPTR(_First), this->_Mylast);
; 1204 : 
; 1205 :  #else /* _ITERATOR_DEBUG_LEVEL == 2 */
; 1206 : 			pointer _Ptr = _Move(_VIPTR(_Last), this->_Mylast,
; 1207 : 				_VIPTR(_First));

  00018	8b 41 04	 mov	 eax, DWORD PTR [ecx+4]
  0001b	3b d0		 cmp	 edx, eax
  0001d	74 1d		 je	 SHORT $LN30@erase
  0001f	57		 push	 edi
$LL32@erase:
  00020	8b f2		 mov	 esi, edx
  00022	8b fb		 mov	 edi, ebx
  00024	83 c2 24	 add	 edx, 36			; 00000024H
  00027	b9 09 00 00 00	 mov	 ecx, 9
  0002c	83 c3 24	 add	 ebx, 36			; 00000024H
  0002f	f3 a5		 rep movsd
  00031	3b d0		 cmp	 edx, eax
  00033	75 eb		 jne	 SHORT $LL32@erase
  00035	8b 4d fc	 mov	 ecx, DWORD PTR _this$[ebp]
  00038	8b 75 08	 mov	 esi, DWORD PTR ___$ReturnUdt$[ebp]
  0003b	5f		 pop	 edi
$LN30@erase:

; 1208 :  #endif /* _ITERATOR_DEBUG_LEVEL == 2 */
; 1209 : 
; 1210 : 			_Destroy(_Ptr, this->_Mylast);
; 1211 : 			this->_Mylast = _Ptr;

  0003c	89 59 04	 mov	 DWORD PTR [ecx+4], ebx
$LN39@erase:

; 1212 : 			}
; 1213 : 		return (_First);

  0003f	8b c6		 mov	 eax, esi
  00041	5e		 pop	 esi
  00042	5b		 pop	 ebx

; 1214 : 		}

  00043	8b e5		 mov	 esp, ebp
  00045	5d		 pop	 ebp
  00046	c2 0c 00	 ret	 12			; 0000000cH
?erase@?$vector@UMINIMAP_DATA@@V?$allocator@UMINIMAP_DATA@@@std@@@std@@QAE?AV?$_Vector_iterator@V?$_Vector_val@UMINIMAP_DATA@@V?$allocator@UMINIMAP_DATA@@@std@@@std@@@2@V?$_Vector_const_iterator@V?$_Vector_val@UMINIMAP_DATA@@V?$allocator@UMINIMAP_DATA@@@std@@@std@@@2@0@Z ENDP ; std::vector<MINIMAP_DATA,std::allocator<MINIMAP_DATA> >::erase
_TEXT	ENDS
PUBLIC	?_Tidy@?$vector@UMINIMAP_DATA@@V?$allocator@UMINIMAP_DATA@@@std@@@std@@IAEXXZ ; std::vector<MINIMAP_DATA,std::allocator<MINIMAP_DATA> >::_Tidy
; Function compile flags: /Ogtp
;	COMDAT ?_Tidy@?$vector@UMINIMAP_DATA@@V?$allocator@UMINIMAP_DATA@@@std@@@std@@IAEXXZ
_TEXT	SEGMENT
?_Tidy@?$vector@UMINIMAP_DATA@@V?$allocator@UMINIMAP_DATA@@@std@@@std@@IAEXXZ PROC ; std::vector<MINIMAP_DATA,std::allocator<MINIMAP_DATA> >::_Tidy, COMDAT
; _this$ = ecx

; 1301 : 		{	// free all storage

  00000	56		 push	 esi
  00001	8b f1		 mov	 esi, ecx

; 1302 : 		if (this->_Myfirst != 0)

  00003	8b 06		 mov	 eax, DWORD PTR [esi]
  00005	85 c0		 test	 eax, eax
  00007	74 09		 je	 SHORT $LN6@Tidy

; 1303 : 			{	// something to free, destroy and deallocate it
; 1304 : 			this->_Orphan_all();
; 1305 : 			_Destroy(this->_Myfirst, this->_Mylast);
; 1306 : 			this->_Alval.deallocate(this->_Myfirst,
; 1307 : 				this->_Myend - this->_Myfirst);

  00009	50		 push	 eax
  0000a	e8 00 00 00 00	 call	 ??3@YAXPAX@Z		; operator delete
  0000f	83 c4 04	 add	 esp, 4
$LN6@Tidy:

; 1308 : 			}
; 1309 : 		this->_Myfirst = 0;

  00012	c7 06 00 00 00
	00		 mov	 DWORD PTR [esi], 0

; 1310 : 		this->_Mylast = 0;

  00018	c7 46 04 00 00
	00 00		 mov	 DWORD PTR [esi+4], 0

; 1311 : 		this->_Myend = 0;

  0001f	c7 46 08 00 00
	00 00		 mov	 DWORD PTR [esi+8], 0
  00026	5e		 pop	 esi

; 1312 : 		}

  00027	c3		 ret	 0
?_Tidy@?$vector@UMINIMAP_DATA@@V?$allocator@UMINIMAP_DATA@@@std@@@std@@IAEXXZ ENDP ; std::vector<MINIMAP_DATA,std::allocator<MINIMAP_DATA> >::_Tidy
_TEXT	ENDS
PUBLIC	?reserve@?$vector@UMINIMAP_DATA@@V?$allocator@UMINIMAP_DATA@@@std@@@std@@QAEXI@Z ; std::vector<MINIMAP_DATA,std::allocator<MINIMAP_DATA> >::reserve
EXTRN	___CxxFrameHandler3:PROC
;	COMDAT xdata$x
; File d:\program files (x86)\microsoft visual studio 10.0\vc\include\xutility
xdata$x	SEGMENT
__catchsym$?reserve@?$vector@UMINIMAP_DATA@@V?$allocator@UMINIMAP_DATA@@@std@@@std@@QAEXI@Z$2 DD 040H
	DD	00H
	DD	00H
	DD	FLAT:__catch$?reserve@?$vector@UMINIMAP_DATA@@V?$allocator@UMINIMAP_DATA@@@std@@@std@@QAEXI@Z$0
__unwindtable$?reserve@?$vector@UMINIMAP_DATA@@V?$allocator@UMINIMAP_DATA@@@std@@@std@@QAEXI@Z DD 0ffffffffH
	DD	00H
	DD	0ffffffffH
	DD	00H
__tryblocktable$?reserve@?$vector@UMINIMAP_DATA@@V?$allocator@UMINIMAP_DATA@@@std@@@std@@QAEXI@Z DD 00H
	DD	00H
	DD	01H
	DD	01H
	DD	FLAT:__catchsym$?reserve@?$vector@UMINIMAP_DATA@@V?$allocator@UMINIMAP_DATA@@@std@@@std@@QAEXI@Z$2
__ehfuncinfo$?reserve@?$vector@UMINIMAP_DATA@@V?$allocator@UMINIMAP_DATA@@@std@@@std@@QAEXI@Z DD 019930522H
	DD	02H
	DD	FLAT:__unwindtable$?reserve@?$vector@UMINIMAP_DATA@@V?$allocator@UMINIMAP_DATA@@@std@@@std@@QAEXI@Z
	DD	01H
	DD	FLAT:__tryblocktable$?reserve@?$vector@UMINIMAP_DATA@@V?$allocator@UMINIMAP_DATA@@@std@@@std@@QAEXI@Z
	DD	2 DUP(00H)
	DD	00H
	DD	01H
; Function compile flags: /Ogtp
; File d:\program files (x86)\microsoft visual studio 10.0\vc\include\vector
xdata$x	ENDS
;	COMDAT ?reserve@?$vector@UMINIMAP_DATA@@V?$allocator@UMINIMAP_DATA@@@std@@@std@@QAEXI@Z
_TEXT	SEGMENT
__Ptr$210687 = -20					; size = 4
__$EHRec$ = -16						; size = 16
__Cat$212148 = 8					; size = 1
__Count$ = 8						; size = 4
?reserve@?$vector@UMINIMAP_DATA@@V?$allocator@UMINIMAP_DATA@@@std@@@std@@QAEXI@Z PROC ; std::vector<MINIMAP_DATA,std::allocator<MINIMAP_DATA> >::reserve, COMDAT
; _this$ = ecx

; 746  : 		{	// determine new minimum length of allocated storage

  00000	55		 push	 ebp
  00001	8b ec		 mov	 ebp, esp
  00003	6a ff		 push	 -1
  00005	68 00 00 00 00	 push	 __ehhandler$?reserve@?$vector@UMINIMAP_DATA@@V?$allocator@UMINIMAP_DATA@@@std@@@std@@QAEXI@Z
  0000a	64 a1 00 00 00
	00		 mov	 eax, DWORD PTR fs:0
  00010	50		 push	 eax
  00011	83 ec 08	 sub	 esp, 8
  00014	53		 push	 ebx
  00015	56		 push	 esi
  00016	57		 push	 edi
  00017	a1 00 00 00 00	 mov	 eax, DWORD PTR ___security_cookie
  0001c	33 c5		 xor	 eax, ebp
  0001e	50		 push	 eax
  0001f	8d 45 f4	 lea	 eax, DWORD PTR __$EHRec$[ebp+4]
  00022	64 a3 00 00 00
	00		 mov	 DWORD PTR fs:0, eax
  00028	89 65 f0	 mov	 DWORD PTR __$EHRec$[ebp], esp
  0002b	8b f1		 mov	 esi, ecx

; 747  : 		if (max_size() < _Count)

  0002d	8b 5d 08	 mov	 ebx, DWORD PTR __Count$[ebp]
  00030	81 fb c7 71 1c
	07		 cmp	 ebx, 119304647		; 071c71c7H
  00036	76 0a		 jbe	 SHORT $LN5@reserve

; 748  : 			_Xlen();	// result too long

  00038	68 00 00 00 00	 push	 OFFSET ??_C@_0BD@OLBABOEK@vector?$DMT?$DO?5too?5long?$AA@
  0003d	e8 00 00 00 00	 call	 ?_Xlength_error@std@@YAXPBD@Z ; std::_Xlength_error
$LN42@reserve:
$LN5@reserve:

; 749  : 		else if (capacity() < _Count)

  00042	8b 4e 08	 mov	 ecx, DWORD PTR [esi+8]
  00045	2b 0e		 sub	 ecx, DWORD PTR [esi]
  00047	b8 39 8e e3 38	 mov	 eax, 954437177		; 38e38e39H
  0004c	f7 e9		 imul	 ecx
  0004e	c1 fa 03	 sar	 edx, 3
  00051	8b c2		 mov	 eax, edx
  00053	c1 e8 1f	 shr	 eax, 31			; 0000001fH
  00056	03 c2		 add	 eax, edx
  00058	3b c3		 cmp	 eax, ebx
  0005a	73 6b		 jae	 SHORT $LN3@reserve

; 750  : 			{	// not enough room, reallocate
; 751  : 			pointer _Ptr = this->_Alval.allocate(_Count);

  0005c	8d 7e 0c	 lea	 edi, DWORD PTR [esi+12]
  0005f	53		 push	 ebx
  00060	8b cf		 mov	 ecx, edi
  00062	e8 00 00 00 00	 call	 ?allocate@?$allocator@UMINIMAP_DATA@@@std@@QAEPAUMINIMAP_DATA@@I@Z ; std::allocator<MINIMAP_DATA>::allocate

; 752  : 
; 753  : 			_TRY_BEGIN
; 754  : 			_Umove(this->_Myfirst, this->_Mylast, _Ptr);

  00067	8b 5d 08	 mov	 ebx, DWORD PTR __Cat$212148[ebp]
  0006a	8b 4e 04	 mov	 ecx, DWORD PTR [esi+4]
  0006d	8b 16		 mov	 edx, DWORD PTR [esi]
  0006f	53		 push	 ebx
  00070	6a 00		 push	 0
  00072	57		 push	 edi
  00073	50		 push	 eax
  00074	51		 push	 ecx
  00075	52		 push	 edx
  00076	89 45 ec	 mov	 DWORD PTR __Ptr$210687[ebp], eax
  00079	c7 45 fc 00 00
	00 00		 mov	 DWORD PTR __$EHRec$[ebp+12], 0
  00080	e8 00 00 00 00	 call	 ??$_Uninit_move@PAUMINIMAP_DATA@@PAU1@V?$allocator@UMINIMAP_DATA@@@std@@U1@@std@@YAPAUMINIMAP_DATA@@PAU1@00AAV?$allocator@UMINIMAP_DATA@@@0@0U_Nonscalar_ptr_iterator_tag@0@@Z ; std::_Uninit_move<MINIMAP_DATA *,MINIMAP_DATA *,std::allocator<MINIMAP_DATA>,MINIMAP_DATA>

; 758  : 			_CATCH_END
; 759  : 
; 760  : 			size_type _Size = size();

  00085	8b 1e		 mov	 ebx, DWORD PTR [esi]
  00087	8b 4e 04	 mov	 ecx, DWORD PTR [esi+4]
  0008a	2b cb		 sub	 ecx, ebx
  0008c	b8 39 8e e3 38	 mov	 eax, 954437177		; 38e38e39H
  00091	f7 e9		 imul	 ecx
  00093	c1 fa 03	 sar	 edx, 3
  00096	8b fa		 mov	 edi, edx
  00098	c1 ef 1f	 shr	 edi, 31			; 0000001fH
  0009b	83 c4 18	 add	 esp, 24			; 00000018H
  0009e	03 fa		 add	 edi, edx

; 761  : 			if (this->_Myfirst != 0)

  000a0	85 db		 test	 ebx, ebx
  000a2	74 09		 je	 SHORT $LN35@reserve

; 762  : 				{	// destroy and deallocate old array
; 763  : 				_Destroy(this->_Myfirst, this->_Mylast);
; 764  : 				this->_Alval.deallocate(this->_Myfirst,
; 765  : 					this->_Myend - this->_Myfirst);

  000a4	53		 push	 ebx
  000a5	e8 00 00 00 00	 call	 ??3@YAXPAX@Z		; operator delete
  000aa	83 c4 04	 add	 esp, 4
$LN35@reserve:

; 766  : 				}
; 767  : 
; 768  : 			this->_Orphan_all();
; 769  : 			this->_Myend = _Ptr + _Count;

  000ad	8b 45 08	 mov	 eax, DWORD PTR __Count$[ebp]
  000b0	8d 0c c0	 lea	 ecx, DWORD PTR [eax+eax*8]
  000b3	8b 45 ec	 mov	 eax, DWORD PTR __Ptr$210687[ebp]
  000b6	8d 14 88	 lea	 edx, DWORD PTR [eax+ecx*4]

; 770  : 			this->_Mylast = _Ptr + _Size;

  000b9	8d 0c ff	 lea	 ecx, DWORD PTR [edi+edi*8]
  000bc	89 56 08	 mov	 DWORD PTR [esi+8], edx
  000bf	8d 14 88	 lea	 edx, DWORD PTR [eax+ecx*4]
  000c2	89 56 04	 mov	 DWORD PTR [esi+4], edx

; 771  : 			this->_Myfirst = _Ptr;

  000c5	89 06		 mov	 DWORD PTR [esi], eax
$LN3@reserve:

; 772  : 			}
; 773  : 		}

  000c7	8b 4d f4	 mov	 ecx, DWORD PTR __$EHRec$[ebp+4]
  000ca	64 89 0d 00 00
	00 00		 mov	 DWORD PTR fs:0, ecx
  000d1	59		 pop	 ecx
  000d2	5f		 pop	 edi
  000d3	5e		 pop	 esi
  000d4	5b		 pop	 ebx
  000d5	8b e5		 mov	 esp, ebp
  000d7	5d		 pop	 ebp
  000d8	c2 04 00	 ret	 4
__catch$?reserve@?$vector@UMINIMAP_DATA@@V?$allocator@UMINIMAP_DATA@@@std@@@std@@QAEXI@Z$0:

; 755  : 			_CATCH_ALL
; 756  : 			this->_Alval.deallocate(_Ptr, _Count);

  000db	8b 45 ec	 mov	 eax, DWORD PTR __Ptr$210687[ebp]
  000de	50		 push	 eax
  000df	e8 00 00 00 00	 call	 ??3@YAXPAX@Z		; operator delete
  000e4	83 c4 04	 add	 esp, 4

; 757  : 			_RERAISE;

  000e7	6a 00		 push	 0
  000e9	6a 00		 push	 0
  000eb	e8 00 00 00 00	 call	 __CxxThrowException@8
$LN43@reserve:
$LN41@reserve:
  000f0	cc		 int	 3
_TEXT	ENDS
;	COMDAT text$x
text$x	SEGMENT
__ehhandler$?reserve@?$vector@UMINIMAP_DATA@@V?$allocator@UMINIMAP_DATA@@@std@@@std@@QAEXI@Z:
  00000	8b 54 24 08	 mov	 edx, DWORD PTR [esp+8]
  00004	8d 42 0c	 lea	 eax, DWORD PTR [edx+12]
  00007	8b 4a e8	 mov	 ecx, DWORD PTR [edx-24]
  0000a	33 c8		 xor	 ecx, eax
  0000c	e8 00 00 00 00	 call	 @__security_check_cookie@4
  00011	b8 00 00 00 00	 mov	 eax, OFFSET __ehfuncinfo$?reserve@?$vector@UMINIMAP_DATA@@V?$allocator@UMINIMAP_DATA@@@std@@@std@@QAEXI@Z
  00016	e9 00 00 00 00	 jmp	 ___CxxFrameHandler3
text$x	ENDS
?reserve@?$vector@UMINIMAP_DATA@@V?$allocator@UMINIMAP_DATA@@@std@@@std@@QAEXI@Z ENDP ; std::vector<MINIMAP_DATA,std::allocator<MINIMAP_DATA> >::reserve
PUBLIC	??1?$vector@UMINIMAP_DATA@@V?$allocator@UMINIMAP_DATA@@@std@@@std@@QAE@XZ ; std::vector<MINIMAP_DATA,std::allocator<MINIMAP_DATA> >::~vector<MINIMAP_DATA,std::allocator<MINIMAP_DATA> >
; Function compile flags: /Ogtp
;	COMDAT ??1?$vector@UMINIMAP_DATA@@V?$allocator@UMINIMAP_DATA@@@std@@@std@@QAE@XZ
_TEXT	SEGMENT
??1?$vector@UMINIMAP_DATA@@V?$allocator@UMINIMAP_DATA@@@std@@@std@@QAE@XZ PROC ; std::vector<MINIMAP_DATA,std::allocator<MINIMAP_DATA> >::~vector<MINIMAP_DATA,std::allocator<MINIMAP_DATA> >, COMDAT
; _this$ = ecx

; 704  : 		{	// destroy the object

  00000	56		 push	 esi
  00001	8b f1		 mov	 esi, ecx

; 705  : 		_Tidy();

  00003	8b 06		 mov	 eax, DWORD PTR [esi]
  00005	85 c0		 test	 eax, eax
  00007	74 09		 je	 SHORT $LN8@vector@2
  00009	50		 push	 eax
  0000a	e8 00 00 00 00	 call	 ??3@YAXPAX@Z		; operator delete
  0000f	83 c4 04	 add	 esp, 4
$LN8@vector@2:
  00012	c7 06 00 00 00
	00		 mov	 DWORD PTR [esi], 0
  00018	c7 46 04 00 00
	00 00		 mov	 DWORD PTR [esi+4], 0
  0001f	c7 46 08 00 00
	00 00		 mov	 DWORD PTR [esi+8], 0
  00026	5e		 pop	 esi

; 706  : 		}

  00027	c3		 ret	 0
??1?$vector@UMINIMAP_DATA@@V?$allocator@UMINIMAP_DATA@@@std@@@std@@QAE@XZ ENDP ; std::vector<MINIMAP_DATA,std::allocator<MINIMAP_DATA> >::~vector<MINIMAP_DATA,std::allocator<MINIMAP_DATA> >
_TEXT	ENDS
PUBLIC	?clear@?$vector@UMINIMAP_DATA@@V?$allocator@UMINIMAP_DATA@@@std@@@std@@QAEXXZ ; std::vector<MINIMAP_DATA,std::allocator<MINIMAP_DATA> >::clear
; Function compile flags: /Ogtp
;	COMDAT ?clear@?$vector@UMINIMAP_DATA@@V?$allocator@UMINIMAP_DATA@@@std@@@std@@QAEXXZ
_TEXT	SEGMENT
_this$ = -4						; size = 4
?clear@?$vector@UMINIMAP_DATA@@V?$allocator@UMINIMAP_DATA@@@std@@@std@@QAEXXZ PROC ; std::vector<MINIMAP_DATA,std::allocator<MINIMAP_DATA> >::clear, COMDAT
; _this$ = ecx

; 1217 : 		{	// erase all

  00000	55		 push	 ebp
  00001	8b ec		 mov	 ebp, esp
  00003	51		 push	 ecx

; 1218 : 		erase(begin(), end());

  00004	8b 51 04	 mov	 edx, DWORD PTR [ecx+4]
  00007	53		 push	 ebx
  00008	8b 19		 mov	 ebx, DWORD PTR [ecx]
  0000a	89 4d fc	 mov	 DWORD PTR _this$[ebp], ecx
  0000d	3b da		 cmp	 ebx, edx
  0000f	74 2c		 je	 SHORT $LN19@clear
  00011	8b c2		 mov	 eax, edx
  00013	3b d2		 cmp	 edx, edx
  00015	74 23		 je	 SHORT $LN48@clear
  00017	56		 push	 esi
  00018	57		 push	 edi
  00019	8d a4 24 00 00
	00 00		 npad	 7
$LL50@clear:
  00020	8b f0		 mov	 esi, eax
  00022	8b fb		 mov	 edi, ebx
  00024	83 c0 24	 add	 eax, 36			; 00000024H
  00027	b9 09 00 00 00	 mov	 ecx, 9
  0002c	83 c3 24	 add	 ebx, 36			; 00000024H
  0002f	f3 a5		 rep movsd
  00031	3b c2		 cmp	 eax, edx
  00033	75 eb		 jne	 SHORT $LL50@clear
  00035	8b 4d fc	 mov	 ecx, DWORD PTR _this$[ebp]
  00038	5f		 pop	 edi
  00039	5e		 pop	 esi
$LN48@clear:
  0003a	89 59 04	 mov	 DWORD PTR [ecx+4], ebx
$LN19@clear:
  0003d	5b		 pop	 ebx

; 1219 : 		}

  0003e	8b e5		 mov	 esp, ebp
  00040	5d		 pop	 ebp
  00041	c3		 ret	 0
?clear@?$vector@UMINIMAP_DATA@@V?$allocator@UMINIMAP_DATA@@@std@@@std@@QAEXXZ ENDP ; std::vector<MINIMAP_DATA,std::allocator<MINIMAP_DATA> >::clear
_TEXT	ENDS
PUBLIC	?_Reserve@?$vector@UMINIMAP_DATA@@V?$allocator@UMINIMAP_DATA@@@std@@@std@@IAEXI@Z ; std::vector<MINIMAP_DATA,std::allocator<MINIMAP_DATA> >::_Reserve
; Function compile flags: /Ogtp
;	COMDAT ?_Reserve@?$vector@UMINIMAP_DATA@@V?$allocator@UMINIMAP_DATA@@@std@@@std@@IAEXI@Z
_TEXT	SEGMENT
__Count$ = 8						; size = 4
?_Reserve@?$vector@UMINIMAP_DATA@@V?$allocator@UMINIMAP_DATA@@@std@@@std@@IAEXI@Z PROC ; std::vector<MINIMAP_DATA,std::allocator<MINIMAP_DATA> >::_Reserve, COMDAT
; _this$ = ecx

; 1290 : 		{	// ensure room for _Count new elements, grow exponentially

  00000	55		 push	 ebp
  00001	8b ec		 mov	 ebp, esp

; 1291 : 		size_type _Size = size();

  00003	8b 51 04	 mov	 edx, DWORD PTR [ecx+4]
  00006	56		 push	 esi
  00007	57		 push	 edi
  00008	8b 39		 mov	 edi, DWORD PTR [ecx]
  0000a	2b d7		 sub	 edx, edi
  0000c	b8 39 8e e3 38	 mov	 eax, 954437177		; 38e38e39H
  00011	f7 ea		 imul	 edx

; 1292 : 		if (max_size() - _Count < _Size)

  00013	8b 45 08	 mov	 eax, DWORD PTR __Count$[ebp]
  00016	c1 fa 03	 sar	 edx, 3
  00019	8b f2		 mov	 esi, edx
  0001b	c1 ee 1f	 shr	 esi, 31			; 0000001fH
  0001e	03 f2		 add	 esi, edx
  00020	ba c7 71 1c 07	 mov	 edx, 119304647		; 071c71c7H
  00025	2b d0		 sub	 edx, eax
  00027	3b d6		 cmp	 edx, esi
  00029	73 0a		 jae	 SHORT $LN4@Reserve

; 1293 : 			_Xlen();

  0002b	68 00 00 00 00	 push	 OFFSET ??_C@_0BD@OLBABOEK@vector?$DMT?$DO?5too?5long?$AA@
  00030	e8 00 00 00 00	 call	 ?_Xlength_error@std@@YAXPBD@Z ; std::_Xlength_error
$LN34@Reserve:
$LN4@Reserve:

; 1294 : 		else if ((_Size += _Count) <= capacity())

  00035	8b 51 08	 mov	 edx, DWORD PTR [ecx+8]
  00038	03 f0		 add	 esi, eax
  0003a	2b d7		 sub	 edx, edi
  0003c	b8 39 8e e3 38	 mov	 eax, 954437177		; 38e38e39H
  00041	f7 ea		 imul	 edx
  00043	c1 fa 03	 sar	 edx, 3
  00046	8b c2		 mov	 eax, edx
  00048	c1 e8 1f	 shr	 eax, 31			; 0000001fH
  0004b	03 c2		 add	 eax, edx
  0004d	3b f0		 cmp	 esi, eax
  0004f	76 21		 jbe	 SHORT $LN1@Reserve

; 1295 : 			;
; 1296 : 		else
; 1297 : 			reserve(_Grow_to(_Size));

  00051	8b d0		 mov	 edx, eax
  00053	d1 ea		 shr	 edx, 1
  00055	bf c7 71 1c 07	 mov	 edi, 119304647		; 071c71c7H
  0005a	2b fa		 sub	 edi, edx
  0005c	3b f8		 cmp	 edi, eax
  0005e	73 04		 jae	 SHORT $LN23@Reserve
  00060	33 c0		 xor	 eax, eax
  00062	eb 02		 jmp	 SHORT $LN24@Reserve
$LN23@Reserve:
  00064	03 c2		 add	 eax, edx
$LN24@Reserve:
  00066	3b c6		 cmp	 eax, esi
  00068	73 02		 jae	 SHORT $LN20@Reserve
  0006a	8b c6		 mov	 eax, esi
$LN20@Reserve:
  0006c	50		 push	 eax
  0006d	e8 00 00 00 00	 call	 ?reserve@?$vector@UMINIMAP_DATA@@V?$allocator@UMINIMAP_DATA@@@std@@@std@@QAEXI@Z ; std::vector<MINIMAP_DATA,std::allocator<MINIMAP_DATA> >::reserve
$LN1@Reserve:
  00072	5f		 pop	 edi
  00073	5e		 pop	 esi

; 1298 : 		}

  00074	5d		 pop	 ebp
  00075	c2 04 00	 ret	 4
$LN33@Reserve:
?_Reserve@?$vector@UMINIMAP_DATA@@V?$allocator@UMINIMAP_DATA@@@std@@@std@@IAEXI@Z ENDP ; std::vector<MINIMAP_DATA,std::allocator<MINIMAP_DATA> >::_Reserve
_TEXT	ENDS
PUBLIC	??0CMiniMapZt@@QAE@XZ				; CMiniMapZt::CMiniMapZt
; Function compile flags: /Ogtp
; File e:\work\tranet_version\gs\gameserver\minimapzt.cpp
;	COMDAT ??0CMiniMapZt@@QAE@XZ
_TEXT	SEGMENT
_this$ = -4						; size = 4
??0CMiniMapZt@@QAE@XZ PROC				; CMiniMapZt::CMiniMapZt, COMDAT
; _this$ = ecx

; 16   : {

  00000	55		 push	 ebp
  00001	8b ec		 mov	 ebp, esp
  00003	51		 push	 ecx
  00004	33 c0		 xor	 eax, eax
  00006	53		 push	 ebx

; 17   : 	this->m_Data.clear();

  00007	8b d8		 mov	 ebx, eax
  00009	89 4d fc	 mov	 DWORD PTR _this$[ebp], ecx
  0000c	89 41 04	 mov	 DWORD PTR [ecx+4], eax
  0000f	89 41 08	 mov	 DWORD PTR [ecx+8], eax
  00012	89 41 0c	 mov	 DWORD PTR [ecx+12], eax
  00015	3b c3		 cmp	 eax, ebx
  00017	74 25		 je	 SHORT $LN68@CMiniMapZt
  00019	8b d3		 mov	 edx, ebx
  0001b	3b db		 cmp	 ebx, ebx
  0001d	74 1c		 je	 SHORT $LN59@CMiniMapZt
  0001f	56		 push	 esi
  00020	57		 push	 edi
$LL61@CMiniMapZt:
  00021	8b f2		 mov	 esi, edx
  00023	8b f8		 mov	 edi, eax
  00025	83 c2 24	 add	 edx, 36			; 00000024H
  00028	b9 09 00 00 00	 mov	 ecx, 9
  0002d	83 c0 24	 add	 eax, 36			; 00000024H
  00030	f3 a5		 rep movsd
  00032	3b d3		 cmp	 edx, ebx
  00034	75 eb		 jne	 SHORT $LL61@CMiniMapZt
  00036	8b 4d fc	 mov	 ecx, DWORD PTR _this$[ebp]
  00039	5f		 pop	 edi
  0003a	5e		 pop	 esi
$LN59@CMiniMapZt:
  0003b	89 41 08	 mov	 DWORD PTR [ecx+8], eax
$LN68@CMiniMapZt:

; 18   : }

  0003e	8b c1		 mov	 eax, ecx
  00040	5b		 pop	 ebx
  00041	8b e5		 mov	 esp, ebp
  00043	5d		 pop	 ebp
  00044	c3		 ret	 0
??0CMiniMapZt@@QAE@XZ ENDP				; CMiniMapZt::CMiniMapZt
_TEXT	ENDS
PUBLIC	??1CMiniMapZt@@QAE@XZ				; CMiniMapZt::~CMiniMapZt
; Function compile flags: /Ogtp
;	COMDAT ??1CMiniMapZt@@QAE@XZ
_TEXT	SEGMENT
??1CMiniMapZt@@QAE@XZ PROC				; CMiniMapZt::~CMiniMapZt, COMDAT
; _this$ = ecx

; 21   : {

  00000	56		 push	 esi
  00001	8b f1		 mov	 esi, ecx

; 22   : }

  00003	8b 46 04	 mov	 eax, DWORD PTR [esi+4]
  00006	85 c0		 test	 eax, eax
  00008	74 09		 je	 SHORT $LN11@CMiniMapZt@2
  0000a	50		 push	 eax
  0000b	e8 00 00 00 00	 call	 ??3@YAXPAX@Z		; operator delete
  00010	83 c4 04	 add	 esp, 4
$LN11@CMiniMapZt@2:
  00013	c7 46 04 00 00
	00 00		 mov	 DWORD PTR [esi+4], 0
  0001a	c7 46 08 00 00
	00 00		 mov	 DWORD PTR [esi+8], 0
  00021	c7 46 0c 00 00
	00 00		 mov	 DWORD PTR [esi+12], 0
  00028	5e		 pop	 esi
  00029	c3		 ret	 0
??1CMiniMapZt@@QAE@XZ ENDP				; CMiniMapZt::~CMiniMapZt
_TEXT	ENDS
PUBLIC	?push_back@?$vector@UMINIMAP_DATA@@V?$allocator@UMINIMAP_DATA@@@std@@@std@@QAEXABUMINIMAP_DATA@@@Z ; std::vector<MINIMAP_DATA,std::allocator<MINIMAP_DATA> >::push_back
; Function compile flags: /Ogtp
; File d:\program files (x86)\microsoft visual studio 10.0\vc\include\vector
;	COMDAT ?push_back@?$vector@UMINIMAP_DATA@@V?$allocator@UMINIMAP_DATA@@@std@@@std@@QAEXABUMINIMAP_DATA@@@Z
_TEXT	SEGMENT
__Val$ = 8						; size = 4
?push_back@?$vector@UMINIMAP_DATA@@V?$allocator@UMINIMAP_DATA@@@std@@@std@@QAEXABUMINIMAP_DATA@@@Z PROC ; std::vector<MINIMAP_DATA,std::allocator<MINIMAP_DATA> >::push_back, COMDAT
; _this$ = ecx

; 976  : 		{	// insert element at end

  00000	55		 push	 ebp
  00001	8b ec		 mov	 ebp, esp
  00003	56		 push	 esi
  00004	8b f1		 mov	 esi, ecx

; 977  : 		if (_Inside(_STD addressof(_Val)))

  00006	8b 4e 04	 mov	 ecx, DWORD PTR [esi+4]
  00009	57		 push	 edi
  0000a	8b 7d 08	 mov	 edi, DWORD PTR __Val$[ebp]
  0000d	3b f9		 cmp	 edi, ecx
  0000f	73 4a		 jae	 SHORT $LN4@push_back
  00011	8b 06		 mov	 eax, DWORD PTR [esi]
  00013	3b c7		 cmp	 eax, edi
  00015	77 44		 ja	 SHORT $LN4@push_back

; 978  : 			{	// push back an element
; 979  : 			size_type _Idx = _STD addressof(_Val) - this->_Myfirst;

  00017	2b f8		 sub	 edi, eax
  00019	b8 39 8e e3 38	 mov	 eax, 954437177		; 38e38e39H
  0001e	f7 ef		 imul	 edi
  00020	c1 fa 03	 sar	 edx, 3
  00023	8b fa		 mov	 edi, edx
  00025	c1 ef 1f	 shr	 edi, 31			; 0000001fH
  00028	03 fa		 add	 edi, edx

; 980  : 			if (this->_Mylast == this->_Myend)

  0002a	3b 4e 08	 cmp	 ecx, DWORD PTR [esi+8]
  0002d	75 09		 jne	 SHORT $LN3@push_back

; 981  : 				_Reserve(1);

  0002f	6a 01		 push	 1
  00031	8b ce		 mov	 ecx, esi
  00033	e8 00 00 00 00	 call	 ?_Reserve@?$vector@UMINIMAP_DATA@@V?$allocator@UMINIMAP_DATA@@@std@@@std@@IAEXI@Z ; std::vector<MINIMAP_DATA,std::allocator<MINIMAP_DATA> >::_Reserve
$LN3@push_back:

; 982  : 			_Orphan_range(this->_Mylast, this->_Mylast);
; 983  : 			_Cons_val(this->_Alval,
; 984  : 				this->_Mylast,
; 985  : 				this->_Myfirst[_Idx]);

  00038	8b 0e		 mov	 ecx, DWORD PTR [esi]
  0003a	8d 04 ff	 lea	 eax, DWORD PTR [edi+edi*8]
  0003d	8d 14 81	 lea	 edx, DWORD PTR [ecx+eax*4]
  00040	8b 46 04	 mov	 eax, DWORD PTR [esi+4]
  00043	52		 push	 edx
  00044	50		 push	 eax
  00045	8d 4e 0c	 lea	 ecx, DWORD PTR [esi+12]
  00048	51		 push	 ecx
  00049	e8 00 00 00 00	 call	 ??$_Cons_val@V?$allocator@UMINIMAP_DATA@@@std@@UMINIMAP_DATA@@AAU3@@std@@YAXAAV?$allocator@UMINIMAP_DATA@@@0@PAUMINIMAP_DATA@@AAU2@@Z ; std::_Cons_val<std::allocator<MINIMAP_DATA>,MINIMAP_DATA,MINIMAP_DATA &>

; 992  : 			_Orphan_range(this->_Mylast, this->_Mylast);
; 993  : 			_Cons_val(this->_Alval,
; 994  : 				this->_Mylast,
; 995  : 				_Val);

  0004e	83 c4 0c	 add	 esp, 12			; 0000000cH

; 996  : 			++this->_Mylast;

  00051	83 46 04 24	 add	 DWORD PTR [esi+4], 36	; 00000024H
  00055	5f		 pop	 edi
  00056	5e		 pop	 esi

; 997  : 			}
; 998  : 		}

  00057	5d		 pop	 ebp
  00058	c2 04 00	 ret	 4
$LN4@push_back:

; 986  : 			++this->_Mylast;
; 987  : 			}
; 988  : 		else
; 989  : 			{	// push back a non-element
; 990  : 			if (this->_Mylast == this->_Myend)

  0005b	3b 4e 08	 cmp	 ecx, DWORD PTR [esi+8]
  0005e	75 09		 jne	 SHORT $LN1@push_back

; 991  : 				_Reserve(1);

  00060	6a 01		 push	 1
  00062	8b ce		 mov	 ecx, esi
  00064	e8 00 00 00 00	 call	 ?_Reserve@?$vector@UMINIMAP_DATA@@V?$allocator@UMINIMAP_DATA@@@std@@@std@@IAEXI@Z ; std::vector<MINIMAP_DATA,std::allocator<MINIMAP_DATA> >::_Reserve
$LN1@push_back:

; 992  : 			_Orphan_range(this->_Mylast, this->_Mylast);
; 993  : 			_Cons_val(this->_Alval,
; 994  : 				this->_Mylast,
; 995  : 				_Val);

  00069	8b 56 04	 mov	 edx, DWORD PTR [esi+4]
  0006c	57		 push	 edi
  0006d	52		 push	 edx
  0006e	8d 46 0c	 lea	 eax, DWORD PTR [esi+12]
  00071	50		 push	 eax
  00072	e8 00 00 00 00	 call	 ??$_Cons_val@V?$allocator@UMINIMAP_DATA@@@std@@UMINIMAP_DATA@@ABU3@@std@@YAXAAV?$allocator@UMINIMAP_DATA@@@0@PAUMINIMAP_DATA@@ABU2@@Z ; std::_Cons_val<std::allocator<MINIMAP_DATA>,MINIMAP_DATA,MINIMAP_DATA const &>
  00077	83 c4 0c	 add	 esp, 12			; 0000000cH

; 996  : 			++this->_Mylast;

  0007a	83 46 04 24	 add	 DWORD PTR [esi+4], 36	; 00000024H
  0007e	5f		 pop	 edi
  0007f	5e		 pop	 esi

; 997  : 			}
; 998  : 		}

  00080	5d		 pop	 ebp
  00081	c2 04 00	 ret	 4
?push_back@?$vector@UMINIMAP_DATA@@V?$allocator@UMINIMAP_DATA@@@std@@@std@@QAEXABUMINIMAP_DATA@@@Z ENDP ; std::vector<MINIMAP_DATA,std::allocator<MINIMAP_DATA> >::push_back
_TEXT	ENDS
PUBLIC	??_C@_0O@CEHBAEMJ@?$CFs?5file?5load?$CB?$AA@	; `string'
PUBLIC	??_C@_03JBJLGPFL@end?$AA@			; `string'
PUBLIC	??_C@_0BN@LFPIINPM@?$FLMINI?5MAP?$FN?5?$CFs?5file?5not?5found?$AA@ ; `string'
PUBLIC	??_C@_01KDCPPGHE@r?$AA@				; `string'
PUBLIC	__$ArrayPad$
PUBLIC	?Read@CMiniMapZt@@QAEXPAD@Z			; CMiniMapZt::Read
EXTRN	?LogAdd@@3P6AXPADZZA:DWORD			; LogAdd
EXTRN	_fclose:PROC
EXTRN	?MsgBox@@YAXPADZZ:PROC				; MsgBox
EXTRN	_fopen:PROC
EXTRN	__ftol2_sse:PROC
;	COMDAT ??_C@_0O@CEHBAEMJ@?$CFs?5file?5load?$CB?$AA@
; File e:\work\tranet_version\gs\gameserver\minimapzt.cpp
CONST	SEGMENT
??_C@_0O@CEHBAEMJ@?$CFs?5file?5load?$CB?$AA@ DB '%s file load!', 00H ; `string'
CONST	ENDS
;	COMDAT ??_C@_03JBJLGPFL@end?$AA@
CONST	SEGMENT
??_C@_03JBJLGPFL@end?$AA@ DB 'end', 00H			; `string'
CONST	ENDS
;	COMDAT ??_C@_0BN@LFPIINPM@?$FLMINI?5MAP?$FN?5?$CFs?5file?5not?5found?$AA@
CONST	SEGMENT
??_C@_0BN@LFPIINPM@?$FLMINI?5MAP?$FN?5?$CFs?5file?5not?5found?$AA@ DB '[M'
	DB	'INI MAP] %s file not found', 00H		; `string'
CONST	ENDS
;	COMDAT ??_C@_01KDCPPGHE@r?$AA@
CONST	SEGMENT
??_C@_01KDCPPGHE@r?$AA@ DB 'r', 00H			; `string'
; Function compile flags: /Ogtp
CONST	ENDS
;	COMDAT ?Read@CMiniMapZt@@QAEXPAD@Z
_TEXT	SEGMENT
_list$210367 = -40					; size = 36
__$ArrayPad$ = -4					; size = 4
_filename$ = 8						; size = 4
?Read@CMiniMapZt@@QAEXPAD@Z PROC			; CMiniMapZt::Read, COMDAT
; _this$ = ecx

; 32   : {

  00000	55		 push	 ebp
  00001	8b ec		 mov	 ebp, esp
  00003	83 ec 28	 sub	 esp, 40			; 00000028H
  00006	a1 00 00 00 00	 mov	 eax, DWORD PTR ___security_cookie
  0000b	33 c5		 xor	 eax, ebp
  0000d	89 45 fc	 mov	 DWORD PTR __$ArrayPad$[ebp], eax
  00010	53		 push	 ebx
  00011	8b 5d 08	 mov	 ebx, DWORD PTR _filename$[ebp]
  00014	57		 push	 edi

; 33   : 	SMDToken Token;
; 34   : 
; 35   : 	SMDFile = fopen(filename, "r");

  00015	68 00 00 00 00	 push	 OFFSET ??_C@_01KDCPPGHE@r?$AA@
  0001a	53		 push	 ebx
  0001b	8b f9		 mov	 edi, ecx
  0001d	e8 00 00 00 00	 call	 _fopen
  00022	83 c4 08	 add	 esp, 8
  00025	a3 00 00 00 00	 mov	 DWORD PTR _SMDFile, eax

; 36   : 
; 37   : 	if(!SMDFile)

  0002a	85 c0		 test	 eax, eax
  0002c	75 20		 jne	 SHORT $LN11@Read

; 38   : 	{
; 39   : 		MsgBox("[MINI MAP] %s file not found", filename);

  0002e	53		 push	 ebx
  0002f	68 00 00 00 00	 push	 OFFSET ??_C@_0BN@LFPIINPM@?$FLMINI?5MAP?$FN?5?$CFs?5file?5not?5found?$AA@
  00034	e8 00 00 00 00	 call	 ?MsgBox@@YAXPADZZ	; MsgBox
  00039	83 c4 08	 add	 esp, 8
  0003c	5f		 pop	 edi
  0003d	5b		 pop	 ebx

; 113  : }

  0003e	8b 4d fc	 mov	 ecx, DWORD PTR __$ArrayPad$[ebp]
  00041	33 cd		 xor	 ecx, ebp
  00043	e8 00 00 00 00	 call	 @__security_check_cookie@4
  00048	8b e5		 mov	 esp, ebp
  0004a	5d		 pop	 ebp
  0004b	c2 04 00	 ret	 4
$LN11@Read:

; 40   : 		return;
; 41   : 	}
; 42   : 
; 43   : 	int iType = -1;
; 44   : 
; 45   : 	while(true)
; 46   : 	{
; 47   : 		Token = GetToken();

  0004e	e8 00 00 00 00	 call	 ?GetToken@@YA?AW4SMDToken@@XZ ; GetToken

; 48   : 
; 49   : 		if(Token == END)

  00053	83 f8 02	 cmp	 eax, 2
  00056	0f 84 6b 01 00
	00		 je	 $LN20@Read
  0005c	56		 push	 esi
  0005d	8d 49 00	 npad	 3
$LL10@Read:

; 50   : 		{
; 51   : 			break;
; 52   : 		}
; 53   : 
; 54   : 		iType = TokenNumber;

  00060	d9 05 00 00 00
	00		 fld	 DWORD PTR _TokenNumber
  00066	e8 00 00 00 00	 call	 __ftol2_sse
  0006b	8b f0		 mov	 esi, eax
  0006d	8d 49 00	 npad	 3
$LL7@Read:

; 55   : 
; 56   : 		while(true)
; 57   : 		{
; 58   : 			if(iType == 0)

  00070	85 f6		 test	 esi, esi
  00072	75 4c		 jne	 SHORT $LN5@Read

; 59   : 			{
; 60   : 				Token = GetToken();

  00074	e8 00 00 00 00	 call	 ?GetToken@@YA?AW4SMDToken@@XZ ; GetToken

; 61   : 
; 62   : 				if(strcmp("end", TokenString) == 0)

  00079	b9 00 00 00 00	 mov	 ecx, OFFSET _TokenString
  0007e	b8 00 00 00 00	 mov	 eax, OFFSET ??_C@_03JBJLGPFL@end?$AA@
$LL21@Read:
  00083	8a 10		 mov	 dl, BYTE PTR [eax]
  00085	3a 11		 cmp	 dl, BYTE PTR [ecx]
  00087	75 1a		 jne	 SHORT $LN22@Read
  00089	84 d2		 test	 dl, dl
  0008b	74 12		 je	 SHORT $LN23@Read
  0008d	8a 50 01	 mov	 dl, BYTE PTR [eax+1]
  00090	3a 51 01	 cmp	 dl, BYTE PTR [ecx+1]
  00093	75 0e		 jne	 SHORT $LN22@Read
  00095	83 c0 02	 add	 eax, 2
  00098	83 c1 02	 add	 ecx, 2
  0009b	84 d2		 test	 dl, dl
  0009d	75 e4		 jne	 SHORT $LL21@Read
$LN23@Read:
  0009f	33 c0		 xor	 eax, eax
  000a1	eb 05		 jmp	 SHORT $LN24@Read
$LN22@Read:
  000a3	1b c0		 sbb	 eax, eax
  000a5	83 d8 ff	 sbb	 eax, -1
$LN24@Read:
  000a8	85 c0		 test	 eax, eax
  000aa	0f 84 08 01 00
	00		 je	 $LN18@Read

; 63   : 				{
; 64   : 					break;
; 65   : 				}
; 66   : 
; 67   : 				this->m_Enable = (short)TokenNumber;

  000b0	d9 05 00 00 00
	00		 fld	 DWORD PTR _TokenNumber
  000b6	e8 00 00 00 00	 call	 __ftol2_sse
  000bb	98		 cwde
  000bc	89 07		 mov	 DWORD PTR [edi], eax
  000be	eb b0		 jmp	 SHORT $LL7@Read
$LN5@Read:

; 68   : 			}
; 69   : 			else if(iType == 1)

  000c0	83 fe 01	 cmp	 esi, 1
  000c3	75 ab		 jne	 SHORT $LL7@Read

; 70   : 			{
; 71   : 				Token = GetToken();

  000c5	e8 00 00 00 00	 call	 ?GetToken@@YA?AW4SMDToken@@XZ ; GetToken

; 72   : 
; 73   : 				if(strcmp("end", TokenString) == 0)

  000ca	b9 00 00 00 00	 mov	 ecx, OFFSET _TokenString
  000cf	b8 00 00 00 00	 mov	 eax, OFFSET ??_C@_03JBJLGPFL@end?$AA@
$LL25@Read:
  000d4	8a 10		 mov	 dl, BYTE PTR [eax]
  000d6	3a 11		 cmp	 dl, BYTE PTR [ecx]
  000d8	75 1a		 jne	 SHORT $LN26@Read
  000da	84 d2		 test	 dl, dl
  000dc	74 12		 je	 SHORT $LN27@Read
  000de	8a 50 01	 mov	 dl, BYTE PTR [eax+1]
  000e1	3a 51 01	 cmp	 dl, BYTE PTR [ecx+1]
  000e4	75 0e		 jne	 SHORT $LN26@Read
  000e6	83 c0 02	 add	 eax, 2
  000e9	83 c1 02	 add	 ecx, 2
  000ec	84 d2		 test	 dl, dl
  000ee	75 e4		 jne	 SHORT $LL25@Read
$LN27@Read:
  000f0	33 c0		 xor	 eax, eax
  000f2	eb 05		 jmp	 SHORT $LN28@Read
$LN26@Read:
  000f4	1b c0		 sbb	 eax, eax
  000f6	83 d8 ff	 sbb	 eax, -1
$LN28@Read:
  000f9	85 c0		 test	 eax, eax
  000fb	0f 84 b7 00 00
	00		 je	 $LN18@Read

; 74   : 				{
; 75   : 					break;
; 76   : 				}
; 77   : 
; 78   : 				MINIMAP_DATA list;
; 79   : 
; 80   : 				list.Map = TokenNumber;

  00101	d9 05 00 00 00
	00		 fld	 DWORD PTR _TokenNumber
  00107	e8 00 00 00 00	 call	 __ftol2_sse
  0010c	89 45 d8	 mov	 DWORD PTR _list$210367[ebp], eax

; 81   : 
; 82   : 				Token = GetToken();

  0010f	e8 00 00 00 00	 call	 ?GetToken@@YA?AW4SMDToken@@XZ ; GetToken

; 83   : 				list.Player = TokenNumber;

  00114	d9 05 00 00 00
	00		 fld	 DWORD PTR _TokenNumber
  0011a	e8 00 00 00 00	 call	 __ftol2_sse
  0011f	89 45 dc	 mov	 DWORD PTR _list$210367[ebp+4], eax

; 84   : 
; 85   : 				Token = GetToken();

  00122	e8 00 00 00 00	 call	 ?GetToken@@YA?AW4SMDToken@@XZ ; GetToken

; 86   : 				list.Party = TokenNumber;

  00127	d9 05 00 00 00
	00		 fld	 DWORD PTR _TokenNumber
  0012d	e8 00 00 00 00	 call	 __ftol2_sse
  00132	89 45 e0	 mov	 DWORD PTR _list$210367[ebp+8], eax

; 87   : 
; 88   : 				Token = GetToken();

  00135	e8 00 00 00 00	 call	 ?GetToken@@YA?AW4SMDToken@@XZ ; GetToken

; 89   : 				list.Guild = TokenNumber;

  0013a	d9 05 00 00 00
	00		 fld	 DWORD PTR _TokenNumber
  00140	e8 00 00 00 00	 call	 __ftol2_sse
  00145	89 45 e4	 mov	 DWORD PTR _list$210367[ebp+12], eax

; 90   : 
; 91   : 				Token = GetToken();

  00148	e8 00 00 00 00	 call	 ?GetToken@@YA?AW4SMDToken@@XZ ; GetToken

; 92   : 				list.Alliance = TokenNumber;

  0014d	d9 05 00 00 00
	00		 fld	 DWORD PTR _TokenNumber
  00153	e8 00 00 00 00	 call	 __ftol2_sse
  00158	89 45 e8	 mov	 DWORD PTR _list$210367[ebp+16], eax

; 93   : 
; 94   : 				Token = GetToken();

  0015b	e8 00 00 00 00	 call	 ?GetToken@@YA?AW4SMDToken@@XZ ; GetToken

; 95   : 				list.Phonoman = TokenNumber;

  00160	d9 05 00 00 00
	00		 fld	 DWORD PTR _TokenNumber
  00166	e8 00 00 00 00	 call	 __ftol2_sse
  0016b	89 45 ec	 mov	 DWORD PTR _list$210367[ebp+20], eax

; 96   : 
; 97   : 				Token = GetToken();

  0016e	e8 00 00 00 00	 call	 ?GetToken@@YA?AW4SMDToken@@XZ ; GetToken

; 98   : 				list.NPC = TokenNumber;

  00173	d9 05 00 00 00
	00		 fld	 DWORD PTR _TokenNumber
  00179	e8 00 00 00 00	 call	 __ftol2_sse
  0017e	89 45 f0	 mov	 DWORD PTR _list$210367[ebp+24], eax

; 99   : 
; 100  : 				Token = GetToken();

  00181	e8 00 00 00 00	 call	 ?GetToken@@YA?AW4SMDToken@@XZ ; GetToken

; 101  : 				list.Monster = TokenNumber;

  00186	d9 05 00 00 00
	00		 fld	 DWORD PTR _TokenNumber
  0018c	e8 00 00 00 00	 call	 __ftol2_sse
  00191	89 45 f4	 mov	 DWORD PTR _list$210367[ebp+28], eax

; 102  : 
; 103  : 				Token = GetToken();

  00194	e8 00 00 00 00	 call	 ?GetToken@@YA?AW4SMDToken@@XZ ; GetToken

; 104  : 				list.Boss = TokenNumber;

  00199	d9 05 00 00 00
	00		 fld	 DWORD PTR _TokenNumber
  0019f	e8 00 00 00 00	 call	 __ftol2_sse

; 105  : 
; 106  : 				this->m_Data.push_back(list);

  001a4	8d 4d d8	 lea	 ecx, DWORD PTR _list$210367[ebp]
  001a7	51		 push	 ecx
  001a8	8d 4f 04	 lea	 ecx, DWORD PTR [edi+4]
  001ab	89 45 f8	 mov	 DWORD PTR _list$210367[ebp+32], eax
  001ae	e8 00 00 00 00	 call	 ?push_back@?$vector@UMINIMAP_DATA@@V?$allocator@UMINIMAP_DATA@@@std@@@std@@QAEXABUMINIMAP_DATA@@@Z ; std::vector<MINIMAP_DATA,std::allocator<MINIMAP_DATA> >::push_back

; 107  : 			}
; 108  : 		}	

  001b3	e9 b8 fe ff ff	 jmp	 $LL7@Read
$LN18@Read:

; 40   : 		return;
; 41   : 	}
; 42   : 
; 43   : 	int iType = -1;
; 44   : 
; 45   : 	while(true)
; 46   : 	{
; 47   : 		Token = GetToken();

  001b8	e8 00 00 00 00	 call	 ?GetToken@@YA?AW4SMDToken@@XZ ; GetToken

; 48   : 
; 49   : 		if(Token == END)

  001bd	83 f8 02	 cmp	 eax, 2
  001c0	0f 85 9a fe ff
	ff		 jne	 $LL10@Read
  001c6	5e		 pop	 esi
$LN20@Read:

; 109  : 	}
; 110  : 
; 111  : 	fclose(SMDFile);

  001c7	8b 15 00 00 00
	00		 mov	 edx, DWORD PTR _SMDFile
  001cd	52		 push	 edx
  001ce	e8 00 00 00 00	 call	 _fclose

; 112  : 	LogAdd("%s file load!", filename);

  001d3	53		 push	 ebx
  001d4	68 00 00 00 00	 push	 OFFSET ??_C@_0O@CEHBAEMJ@?$CFs?5file?5load?$CB?$AA@
  001d9	ff 15 00 00 00
	00		 call	 DWORD PTR ?LogAdd@@3P6AXPADZZA ; LogAdd

; 113  : }

  001df	8b 4d fc	 mov	 ecx, DWORD PTR __$ArrayPad$[ebp]
  001e2	83 c4 0c	 add	 esp, 12			; 0000000cH
  001e5	5f		 pop	 edi
  001e6	33 cd		 xor	 ecx, ebp
  001e8	5b		 pop	 ebx
  001e9	e8 00 00 00 00	 call	 @__security_check_cookie@4
  001ee	8b e5		 mov	 esp, ebp
  001f0	5d		 pop	 ebp
  001f1	c2 04 00	 ret	 4
?Read@CMiniMapZt@@QAEXPAD@Z ENDP			; CMiniMapZt::Read
_TEXT	ENDS
PUBLIC	??_C@_0BF@GANBCHCO@ZtData?2MiniMapZt?4dat?$AA@	; `string'
PUBLIC	?Load@CMiniMapZt@@QAEXXZ			; CMiniMapZt::Load
EXTRN	?GetNewPath@CDirPath@@QAEPADPAD@Z:PROC		; CDirPath::GetNewPath
EXTRN	?gDirPath@@3VCDirPath@@A:BYTE			; gDirPath
;	COMDAT ??_C@_0BF@GANBCHCO@ZtData?2MiniMapZt?4dat?$AA@
; File d:\program files (x86)\microsoft visual studio 10.0\vc\include\utility
CONST	SEGMENT
??_C@_0BF@GANBCHCO@ZtData?2MiniMapZt?4dat?$AA@ DB 'ZtData\MiniMapZt.dat', 00H ; `string'
; Function compile flags: /Ogtp
; File e:\work\tranet_version\gs\gameserver\minimapzt.cpp
CONST	ENDS
;	COMDAT ?Load@CMiniMapZt@@QAEXXZ
_TEXT	SEGMENT
_this$ = -4						; size = 4
?Load@CMiniMapZt@@QAEXXZ PROC				; CMiniMapZt::Load, COMDAT
; _this$ = ecx

; 25   : {

  00000	55		 push	 ebp
  00001	8b ec		 mov	 ebp, esp
  00003	51		 push	 ecx
  00004	53		 push	 ebx
  00005	56		 push	 esi
  00006	8b f1		 mov	 esi, ecx

; 26   : 	this->m_Data.clear();

  00008	8b 5e 04	 mov	 ebx, DWORD PTR [esi+4]
  0000b	8b 56 08	 mov	 edx, DWORD PTR [esi+8]
  0000e	89 75 fc	 mov	 DWORD PTR _this$[ebp], esi
  00011	3b da		 cmp	 ebx, edx
  00013	74 27		 je	 SHORT $LN21@Load
  00015	8b c2		 mov	 eax, edx
  00017	3b d2		 cmp	 edx, edx
  00019	74 1e		 je	 SHORT $LN50@Load
  0001b	57		 push	 edi
  0001c	8d 64 24 00	 npad	 4
$LL52@Load:
  00020	8b f0		 mov	 esi, eax
  00022	8b fb		 mov	 edi, ebx
  00024	83 c0 24	 add	 eax, 36			; 00000024H
  00027	b9 09 00 00 00	 mov	 ecx, 9
  0002c	83 c3 24	 add	 ebx, 36			; 00000024H
  0002f	f3 a5		 rep movsd
  00031	3b c2		 cmp	 eax, edx
  00033	75 eb		 jne	 SHORT $LL52@Load
  00035	8b 75 fc	 mov	 esi, DWORD PTR _this$[ebp]
  00038	5f		 pop	 edi
$LN50@Load:
  00039	89 5e 08	 mov	 DWORD PTR [esi+8], ebx
$LN21@Load:

; 27   : 
; 28   : 	this->Read(gDirPath.GetNewPath("ZtData\\MiniMapZt.dat"));

  0003c	68 00 00 00 00	 push	 OFFSET ??_C@_0BF@GANBCHCO@ZtData?2MiniMapZt?4dat?$AA@
  00041	b9 00 00 00 00	 mov	 ecx, OFFSET ?gDirPath@@3VCDirPath@@A ; gDirPath
  00046	e8 00 00 00 00	 call	 ?GetNewPath@CDirPath@@QAEPADPAD@Z ; CDirPath::GetNewPath
  0004b	50		 push	 eax
  0004c	8b ce		 mov	 ecx, esi
  0004e	e8 00 00 00 00	 call	 ?Read@CMiniMapZt@@QAEXPAD@Z ; CMiniMapZt::Read
  00053	5e		 pop	 esi
  00054	5b		 pop	 ebx

; 29   : }

  00055	8b e5		 mov	 esp, ebp
  00057	5d		 pop	 ebp
  00058	c3		 ret	 0
?Load@CMiniMapZt@@QAEXXZ ENDP				; CMiniMapZt::Load
_TEXT	ENDS
EXTRN	_atexit:PROC
; Function compile flags: /Ogtp
;	COMDAT ??__Eg_MiniMapZt@@YAXXZ
text$yc	SEGMENT
??__Eg_MiniMapZt@@YAXXZ PROC				; `dynamic initializer for 'g_MiniMapZt'', COMDAT

; 13   : CMiniMapZt g_MiniMapZt;

  00000	b9 00 00 00 00	 mov	 ecx, OFFSET ?g_MiniMapZt@@3VCMiniMapZt@@A ; g_MiniMapZt
  00005	e8 00 00 00 00	 call	 ??0CMiniMapZt@@QAE@XZ	; CMiniMapZt::CMiniMapZt
  0000a	68 00 00 00 00	 push	 OFFSET ??__Fg_MiniMapZt@@YAXXZ ; `dynamic atexit destructor for 'g_MiniMapZt''
  0000f	e8 00 00 00 00	 call	 _atexit
  00014	59		 pop	 ecx
  00015	c3		 ret	 0
??__Eg_MiniMapZt@@YAXXZ ENDP				; `dynamic initializer for 'g_MiniMapZt''
; Function compile flags: /Ogtp
text$yc	ENDS
;	COMDAT ??__Fg_MiniMapZt@@YAXXZ
text$yd	SEGMENT
??__Fg_MiniMapZt@@YAXXZ PROC				; `dynamic atexit destructor for 'g_MiniMapZt'', COMDAT
  00000	b9 00 00 00 00	 mov	 ecx, OFFSET ?g_MiniMapZt@@3VCMiniMapZt@@A ; g_MiniMapZt
  00005	e9 00 00 00 00	 jmp	 ??1CMiniMapZt@@QAE@XZ	; CMiniMapZt::~CMiniMapZt
??__Fg_MiniMapZt@@YAXXZ ENDP				; `dynamic atexit destructor for 'g_MiniMapZt''
text$yd	ENDS
PUBLIC	?g_MiniMapZt@@3VCMiniMapZt@@A			; g_MiniMapZt
_BSS	SEGMENT
?g_MiniMapZt@@3VCMiniMapZt@@A DB 014H DUP (?)		; g_MiniMapZt
_BSS	ENDS
CRT$XCU	SEGMENT
_g_MiniMapZt$initializer$ DD FLAT:??__Eg_MiniMapZt@@YAXXZ
CRT$XCU	ENDS
END
