; Listing generated by Microsoft (R) Optimizing Compiler Version 16.00.30319.01 

	TITLE	E:\work\tranet_version\GS\GameServer\MixSystem.cpp
	.686P
	.XMM
	include listing.inc
	.model	flat

INCLUDELIB LIBCMT
INCLUDELIB OLDNAMES

_DATA	SEGMENT
_g_iNpcUpDfLevel_CGATE DD 01H
	DD	02H
	DD	02dc6c0H
	DD	02H
	DD	03H
	DD	02dc6c0H
	DD	03H
	DD	04H
	DD	02dc6c0H
_g_iNpcUpDfLevel_CSTATUE DD 01H
	DD	03H
	DD	02dc6c0H
	DD	02H
	DD	05H
	DD	02dc6c0H
	DD	03H
	DD	07H
	DD	02dc6c0H
_g_iNpcUpMaxHP_CGATE DD 02625a0H
	DD	02H
	DD	0f4240H
	DD	03567e0H
	DD	03H
	DD	0f4240H
	DD	04f5880H
	DD	04H
	DD	0f4240H
_g_iNpcUpMaxHP_CSTATUE DD 02191c0H
	DD	03H
	DD	0f4240H
	DD	033e140H
	DD	05H
	DD	0f4240H
	DD	04c4b40H
	DD	07H
	DD	0f4240H
_g_iNpcUpRgLevel_CSTATUE DD 01H
	DD	03H
	DD	04c4b40H
	DD	02H
	DD	05H
	DD	04c4b40H
	DD	03H
	DD	07H
	DD	04c4b40H
_g_iCsUserReSpawnArea DD 023H
	DD	011H
	DD	090H
	DD	030H
	DD	04aH
	DD	090H
	DD	073H
	DD	09aH
	DD	023H
	DD	011H
	DD	090H
	DD	030H
_g_iNpcDefense_CGATE DD 064H
	DD	0b4H
	DD	012cH
	DD	0208H
_g_iNpcDefense_CSTATUE DD 050H
	DD	0b4H
	DD	0154H
	DD	0226H
_g_iCastleWallStepAxisY DD 071H
	DD	0a0H
	DD	0cbH
_g_sttBLOODCASTLE_LEVEL DD 0fH
	DD	050H
	DD	0aH
	DD	03cH
	DD	051H
	DD	082H
	DD	03dH
	DD	06eH
	DD	083H
	DD	0b4H
	DD	06fH
	DD	0a0H
	DD	0b5H
	DD	0e6H
	DD	0a1H
	DD	0d2H
	DD	0e7H
	DD	0118H
	DD	0d3H
	DD	0104H
	DD	0119H
	DD	014aH
	DD	0105H
	DD	0136H
	DD	014bH
	DD	03e8H
	DD	0137H
	DD	03e8H
	DD	0fH
	DD	04afH
	DD	0aH
	DD	04afH
_DATA	ENDS
PUBLIC	??_H@YGXPAXIHP6EPAX0@Z@Z			; `vector constructor iterator'
; Function compile flags: /Ogtp
;	COMDAT ??_H@YGXPAXIHP6EPAX0@Z@Z
_TEXT	SEGMENT
___t$ = 8						; size = 4
___s$ = 12						; size = 4
___n$ = 16						; size = 4
___f$ = 20						; size = 4
??_H@YGXPAXIHP6EPAX0@Z@Z PROC				; `vector constructor iterator', COMDAT
  00000	55		 push	 ebp
  00001	8b ec		 mov	 ebp, esp
  00003	57		 push	 edi
  00004	8b 7d 10	 mov	 edi, DWORD PTR ___n$[ebp]
  00007	4f		 dec	 edi
  00008	78 14		 js	 SHORT $LN1@vector
  0000a	53		 push	 ebx
  0000b	8b 5d 14	 mov	 ebx, DWORD PTR ___f$[ebp]
  0000e	56		 push	 esi
  0000f	8b 75 08	 mov	 esi, DWORD PTR ___t$[ebp]
$LL2@vector:
  00012	8b ce		 mov	 ecx, esi
  00014	ff d3		 call	 ebx
  00016	03 75 0c	 add	 esi, DWORD PTR ___s$[ebp]
  00019	4f		 dec	 edi
  0001a	79 f6		 jns	 SHORT $LL2@vector
  0001c	5e		 pop	 esi
  0001d	5b		 pop	 ebx
$LN1@vector:
  0001e	5f		 pop	 edi
  0001f	5d		 pop	 ebp
  00020	c2 10 00	 ret	 16			; 00000010H
??_H@YGXPAXIHP6EPAX0@Z@Z ENDP				; `vector constructor iterator'
_TEXT	ENDS
EXTRN	__time64:PROC
; Function compile flags: /Ogtp
; File d:\program files (x86)\microsoft visual studio 10.0\vc\include\time.inl
;	COMDAT _time
_TEXT	SEGMENT
_time	PROC						; COMDAT
; __Time$ = eax

; 133  :     return _time64(_Time);

  00000	50		 push	 eax
  00001	e8 00 00 00 00	 call	 __time64
  00006	83 c4 04	 add	 esp, 4

; 134  : }

  00009	c3		 ret	 0
_time	ENDP
_TEXT	ENDS
PUBLIC	??_7CMixSystem@@6B@				; CMixSystem::`vftable'
PUBLIC	??0CMixSystem@@QAE@XZ				; CMixSystem::CMixSystem
PUBLIC	??_R4CMixSystem@@6B@				; CMixSystem::`RTTI Complete Object Locator'
PUBLIC	??_R0?AVCMixSystem@@@8				; CMixSystem `RTTI Type Descriptor'
PUBLIC	??_R3CMixSystem@@8				; CMixSystem::`RTTI Class Hierarchy Descriptor'
PUBLIC	??_R2CMixSystem@@8				; CMixSystem::`RTTI Base Class Array'
PUBLIC	??_R1A@?0A@EA@CMixSystem@@8			; CMixSystem::`RTTI Base Class Descriptor at (0,-1,0,64)'
EXTRN	??_7type_info@@6B@:QWORD			; type_info::`vftable'
EXTRN	??_ECMixSystem@@UAEPAXI@Z:PROC			; CMixSystem::`vector deleting destructor'
;	COMDAT ??_R1A@?0A@EA@CMixSystem@@8
; File e:\work\tranet_version\gs\gameserver\mixsystem.cpp
rdata$r	SEGMENT
??_R1A@?0A@EA@CMixSystem@@8 DD FLAT:??_R0?AVCMixSystem@@@8 ; CMixSystem::`RTTI Base Class Descriptor at (0,-1,0,64)'
	DD	00H
	DD	00H
	DD	0ffffffffH
	DD	00H
	DD	040H
	DD	FLAT:??_R3CMixSystem@@8
rdata$r	ENDS
;	COMDAT ??_R2CMixSystem@@8
rdata$r	SEGMENT
??_R2CMixSystem@@8 DD FLAT:??_R1A@?0A@EA@CMixSystem@@8	; CMixSystem::`RTTI Base Class Array'
rdata$r	ENDS
;	COMDAT ??_R3CMixSystem@@8
rdata$r	SEGMENT
??_R3CMixSystem@@8 DD 00H				; CMixSystem::`RTTI Class Hierarchy Descriptor'
	DD	00H
	DD	01H
	DD	FLAT:??_R2CMixSystem@@8
rdata$r	ENDS
;	COMDAT ??_R0?AVCMixSystem@@@8
_DATA	SEGMENT
??_R0?AVCMixSystem@@@8 DD FLAT:??_7type_info@@6B@	; CMixSystem `RTTI Type Descriptor'
	DD	00H
	DB	'.?AVCMixSystem@@', 00H
_DATA	ENDS
;	COMDAT ??_R4CMixSystem@@6B@
rdata$r	SEGMENT
??_R4CMixSystem@@6B@ DD 00H				; CMixSystem::`RTTI Complete Object Locator'
	DD	00H
	DD	00H
	DD	FLAT:??_R0?AVCMixSystem@@@8
	DD	FLAT:??_R3CMixSystem@@8
rdata$r	ENDS
;	COMDAT ??_7CMixSystem@@6B@
CONST	SEGMENT
??_7CMixSystem@@6B@ DD FLAT:??_R4CMixSystem@@6B@	; CMixSystem::`vftable'
	DD	FLAT:??_ECMixSystem@@UAEPAXI@Z
; Function compile flags: /Ogtp
CONST	ENDS
;	COMDAT ??0CMixSystem@@QAE@XZ
_TEXT	SEGMENT
??0CMixSystem@@QAE@XZ PROC				; CMixSystem::CMixSystem, COMDAT
; _this$ = ecx

; 28   : {

  00000	8b c1		 mov	 eax, ecx
  00002	c7 00 00 00 00
	00		 mov	 DWORD PTR [eax], OFFSET ??_7CMixSystem@@6B@

; 29   : 	this->iJewelofChaos = ITEMGET(12,15);

  00008	c7 40 04 0f 18
	00 00		 mov	 DWORD PTR [eax+4], 6159	; 0000180fH

; 30   : 	this->iJewelofBless = ITEMGET(14,13);

  0000f	c7 40 08 0d 1c
	00 00		 mov	 DWORD PTR [eax+8], 7181	; 00001c0dH

; 31   : 	this->iJewelofSoul = ITEMGET(14,14);

  00016	c7 40 0c 0e 1c
	00 00		 mov	 DWORD PTR [eax+12], 7182 ; 00001c0eH

; 32   : 	this->iJewelofCreation = ITEMGET(14,22);

  0001d	c7 40 10 16 1c
	00 00		 mov	 DWORD PTR [eax+16], 7190 ; 00001c16H

; 33   : 	this->iBundleofBless = ITEMGET(12,30);

  00024	c7 40 14 1e 18
	00 00		 mov	 DWORD PTR [eax+20], 6174 ; 0000181eH

; 34   : 	this->iBundleofSoul = ITEMGET(12,31);

  0002b	c7 40 18 1f 18
	00 00		 mov	 DWORD PTR [eax+24], 6175 ; 0000181fH

; 35   : 	this->iCondorFeather = ITEMGET(13,53);

  00032	c7 40 1c 35 1a
	00 00		 mov	 DWORD PTR [eax+28], 6709 ; 00001a35H

; 36   : 	this->iCondorFlame = ITEMGET(13,52);

  00039	c7 40 20 34 1a
	00 00		 mov	 DWORD PTR [eax+32], 6708 ; 00001a34H

; 37   : 	this->iWingofStorm = ITEMGET(12,36);

  00040	c7 40 24 24 18
	00 00		 mov	 DWORD PTR [eax+36], 6180 ; 00001824H

; 38   : 	this->iWingofEternal = ITEMGET(12,37);

  00047	c7 40 28 25 18
	00 00		 mov	 DWORD PTR [eax+40], 6181 ; 00001825H

; 39   : 	this->iWingofIllusion = ITEMGET(12,38);

  0004e	c7 40 2c 26 18
	00 00		 mov	 DWORD PTR [eax+44], 6182 ; 00001826H

; 40   : 	this->iWingofRuin = ITEMGET(12,39);

  00055	c7 40 30 27 18
	00 00		 mov	 DWORD PTR [eax+48], 6183 ; 00001827H

; 41   : 	this->iCapeofLord = ITEMGET(12,40);

  0005c	c7 40 34 28 18
	00 00		 mov	 DWORD PTR [eax+52], 6184 ; 00001828H

; 42   : 	this->iWingofDimension = ITEMGET(12,43);

  00063	c7 40 38 2b 18
	00 00		 mov	 DWORD PTR [eax+56], 6187 ; 0000182bH

; 43   : 	this->CAPE_OF_OVERRULE_ITEMINDEX	= ITEMGET(12, 50);	//OK, +60

  0006a	c7 40 3c 32 18
	00 00		 mov	 DWORD PTR [eax+60], 6194 ; 00001832H

; 44   : 
; 45   : 	this->i3rdWingLuckRate = 50;

  00071	c7 40 40 32 00
	00 00		 mov	 DWORD PTR [eax+64], 50	; 00000032H

; 46   : }

  00078	c3		 ret	 0
??0CMixSystem@@QAE@XZ ENDP				; CMixSystem::CMixSystem
_TEXT	ENDS
PUBLIC	??1CMixSystem@@UAE@XZ				; CMixSystem::~CMixSystem
; Function compile flags: /Ogtp
;	COMDAT ??1CMixSystem@@UAE@XZ
_TEXT	SEGMENT
??1CMixSystem@@UAE@XZ PROC				; CMixSystem::~CMixSystem, COMDAT
; _this$ = ecx

; 49   : {

  00000	c7 01 00 00 00
	00		 mov	 DWORD PTR [ecx], OFFSET ??_7CMixSystem@@6B@

; 50   : 
; 51   : }

  00006	c3		 ret	 0
??1CMixSystem@@UAE@XZ ENDP				; CMixSystem::~CMixSystem
_TEXT	ENDS
PUBLIC	?ChaosBoxCheck@CMixSystem@@QAEHPAUOBJECTSTRUCT@@@Z ; CMixSystem::ChaosBoxCheck
; Function compile flags: /Ogtp
;	COMDAT ?ChaosBoxCheck@CMixSystem@@QAEHPAUOBJECTSTRUCT@@@Z
_TEXT	SEGMENT
_lpObj$ = 8						; size = 4
?ChaosBoxCheck@CMixSystem@@QAEHPAUOBJECTSTRUCT@@@Z PROC	; CMixSystem::ChaosBoxCheck, COMDAT
; _this$ = ecx

; 54   : {

  00000	55		 push	 ebp
  00001	8b ec		 mov	 ebp, esp

; 55   : 	if ( lpObj->pChaosBox == NULL )

  00003	8b 4d 08	 mov	 ecx, DWORD PTR _lpObj$[ebp]
  00006	33 c0		 xor	 eax, eax
  00008	39 81 78 0e 00
	00		 cmp	 DWORD PTR [ecx+3704], eax
  0000e	0f 95 c0	 setne	 al

; 56   : 	{
; 57   : 		return false;
; 58   : 	}
; 59   : 
; 60   : 	return true;
; 61   : }

  00011	5d		 pop	 ebp
  00012	c2 04 00	 ret	 4
?ChaosBoxCheck@CMixSystem@@QAEHPAUOBJECTSTRUCT@@@Z ENDP	; CMixSystem::ChaosBoxCheck
_TEXT	ENDS
PUBLIC	?ChaosBoxInit@CMixSystem@@QAEHPAUOBJECTSTRUCT@@@Z ; CMixSystem::ChaosBoxInit
EXTRN	??_V@YAXPAX@Z:PROC				; operator delete[]
EXTRN	??3@YAXPAX@Z:PROC				; operator delete
EXTRN	??0CItem@@QAE@XZ:PROC				; CItem::CItem
EXTRN	??_U@YAPAXI@Z:PROC				; operator new[]
EXTRN	?Clear@CItem@@QAEXXZ:PROC			; CItem::Clear
EXTRN	___security_cookie:DWORD
EXTRN	___CxxFrameHandler3:PROC
EXTRN	@__security_check_cookie@4:PROC
;	COMDAT xdata$x
; File e:\work\tranet_version\gs\gameserver\gameshop.h
xdata$x	SEGMENT
__unwindtable$?ChaosBoxInit@CMixSystem@@QAEHPAUOBJECTSTRUCT@@@Z DD 0ffffffffH
	DD	FLAT:__unwindfunclet$?ChaosBoxInit@CMixSystem@@QAEHPAUOBJECTSTRUCT@@@Z$0
__ehfuncinfo$?ChaosBoxInit@CMixSystem@@QAEHPAUOBJECTSTRUCT@@@Z DD 019930522H
	DD	01H
	DD	FLAT:__unwindtable$?ChaosBoxInit@CMixSystem@@QAEHPAUOBJECTSTRUCT@@@Z
	DD	2 DUP(00H)
	DD	2 DUP(00H)
	DD	00H
	DD	01H
; Function compile flags: /Ogtp
; File e:\work\tranet_version\gs\gameserver\mixsystem.cpp
xdata$x	ENDS
;	COMDAT ?ChaosBoxInit@CMixSystem@@QAEHPAUOBJECTSTRUCT@@@Z
_TEXT	SEGMENT
__$EHRec$ = -12						; size = 12
$T220760 = 8						; size = 4
_lpObj$ = 8						; size = 4
?ChaosBoxInit@CMixSystem@@QAEHPAUOBJECTSTRUCT@@@Z PROC	; CMixSystem::ChaosBoxInit, COMDAT
; _this$ = ecx

; 64   : {

  00000	55		 push	 ebp
  00001	8b ec		 mov	 ebp, esp
  00003	6a ff		 push	 -1
  00005	68 00 00 00 00	 push	 __ehhandler$?ChaosBoxInit@CMixSystem@@QAEHPAUOBJECTSTRUCT@@@Z
  0000a	64 a1 00 00 00
	00		 mov	 eax, DWORD PTR fs:0
  00010	50		 push	 eax
  00011	53		 push	 ebx
  00012	56		 push	 esi
  00013	57		 push	 edi
  00014	a1 00 00 00 00	 mov	 eax, DWORD PTR ___security_cookie
  00019	33 c5		 xor	 eax, ebp
  0001b	50		 push	 eax
  0001c	8d 45 f4	 lea	 eax, DWORD PTR __$EHRec$[ebp]
  0001f	64 a3 00 00 00
	00		 mov	 DWORD PTR fs:0, eax

; 65   : 	int n;
; 66   : 
; 67   : 	if ( lpObj->pChaosBox != NULL )

  00025	8b 7d 08	 mov	 edi, DWORD PTR _lpObj$[ebp]
  00028	83 bf 78 0e 00
	00 00		 cmp	 DWORD PTR [edi+3704], 0
  0002f	74 34		 je	 SHORT $LN12@ChaosBoxIn

; 68   : 	{
; 69   : 		for (n=0;n<CHAOS_BOX_SIZE;n++)

  00031	33 f6		 xor	 esi, esi
$LL11@ChaosBoxIn:

; 70   : 		{
; 71   : 			lpObj->pChaosBox[n].Clear();

  00033	8b 8f 78 0e 00
	00		 mov	 ecx, DWORD PTR [edi+3704]
  00039	03 ce		 add	 ecx, esi
  0003b	e8 00 00 00 00	 call	 ?Clear@CItem@@QAEXXZ	; CItem::Clear
  00040	81 c6 d4 00 00
	00		 add	 esi, 212		; 000000d4H
  00046	81 fe 80 1a 00
	00		 cmp	 esi, 6784		; 00001a80H
  0004c	7c e5		 jl	 SHORT $LL11@ChaosBoxIn

; 72   : 		}
; 73   : 
; 74   : 		for (n=0;n<CHAOS_BOX_SIZE;n++)

  0004e	33 c0		 xor	 eax, eax
$LL8@ChaosBoxIn:

; 75   : 		{
; 76   : 			lpObj->pChaosBoxMap[n] = -1;

  00050	8b 8f 7c 0e 00
	00		 mov	 ecx, DWORD PTR [edi+3708]
  00056	c6 04 08 ff	 mov	 BYTE PTR [eax+ecx], 255	; 000000ffH
  0005a	40		 inc	 eax
  0005b	83 f8 20	 cmp	 eax, 32			; 00000020H
  0005e	7c f0		 jl	 SHORT $LL8@ChaosBoxIn

; 77   : 		}
; 78   : 		return true;

  00060	e9 9b 00 00 00	 jmp	 $LN31@ChaosBoxIn
$LN12@ChaosBoxIn:

; 79   : 	}
; 80   : 
; 81   : 	lpObj->pChaosBox = new CItem[CHAOS_BOX_SIZE];

  00065	68 80 1a 00 00	 push	 6784			; 00001a80H
  0006a	e8 00 00 00 00	 call	 ??_U@YAPAXI@Z		; operator new[]
  0006f	83 c4 04	 add	 esp, 4
  00072	89 45 08	 mov	 DWORD PTR $T220760[ebp], eax
  00075	c7 45 fc 00 00
	00 00		 mov	 DWORD PTR __$EHRec$[ebp+8], 0
  0007c	85 c0		 test	 eax, eax
  0007e	74 1c		 je	 SHORT $LN15@ChaosBoxIn
  00080	8b f0		 mov	 esi, eax
  00082	bb 1f 00 00 00	 mov	 ebx, 31			; 0000001fH
$LL19@ChaosBoxIn:
  00087	8b ce		 mov	 ecx, esi
  00089	e8 00 00 00 00	 call	 ??0CItem@@QAE@XZ	; CItem::CItem
  0008e	81 c6 d4 00 00
	00		 add	 esi, 212		; 000000d4H
  00094	4b		 dec	 ebx
  00095	79 f0		 jns	 SHORT $LL19@ChaosBoxIn
  00097	8b 45 08	 mov	 eax, DWORD PTR $T220760[ebp]
  0009a	eb 02		 jmp	 SHORT $LN16@ChaosBoxIn
$LN15@ChaosBoxIn:
  0009c	33 c0		 xor	 eax, eax
$LN16@ChaosBoxIn:
  0009e	c7 45 fc ff ff
	ff ff		 mov	 DWORD PTR __$EHRec$[ebp+8], -1
  000a5	89 87 78 0e 00
	00		 mov	 DWORD PTR [edi+3704], eax

; 82   : 
; 83   : 	if ( lpObj->pChaosBox == NULL )

  000ab	85 c0		 test	 eax, eax

; 84   : 	{
; 85   : 		return false;

  000ad	74 23		 je	 SHORT $LN32@ChaosBoxIn

; 86   : 	}
; 87   : 
; 88   : 	lpObj->pChaosBoxMap = new BYTE[CHAOS_BOX_SIZE];

  000af	6a 20		 push	 32			; 00000020H
  000b1	e8 00 00 00 00	 call	 ??_U@YAPAXI@Z		; operator new[]
  000b6	83 c4 04	 add	 esp, 4
  000b9	89 87 7c 0e 00
	00		 mov	 DWORD PTR [edi+3708], eax

; 89   : 
; 90   : 	if ( lpObj->pChaosBoxMap == NULL )

  000bf	85 c0		 test	 eax, eax
  000c1	75 25		 jne	 SHORT $LN4@ChaosBoxIn

; 91   : 	{
; 92   : 		delete lpObj->pChaosBox;

  000c3	8b 97 78 0e 00
	00		 mov	 edx, DWORD PTR [edi+3704]
  000c9	52		 push	 edx
  000ca	e8 00 00 00 00	 call	 ??3@YAXPAX@Z		; operator delete
  000cf	83 c4 04	 add	 esp, 4
$LN32@ChaosBoxIn:

; 93   : 		return false;

  000d2	33 c0		 xor	 eax, eax

; 102  : }

  000d4	8b 4d f4	 mov	 ecx, DWORD PTR __$EHRec$[ebp]
  000d7	64 89 0d 00 00
	00 00		 mov	 DWORD PTR fs:0, ecx
  000de	59		 pop	 ecx
  000df	5f		 pop	 edi
  000e0	5e		 pop	 esi
  000e1	5b		 pop	 ebx
  000e2	8b e5		 mov	 esp, ebp
  000e4	5d		 pop	 ebp
  000e5	c2 04 00	 ret	 4
$LN4@ChaosBoxIn:

; 94   : 	}
; 95   : 
; 96   : 	for (n=0;n<CHAOS_BOX_SIZE;n++)

  000e8	33 c0		 xor	 eax, eax
  000ea	8d 9b 00 00 00
	00		 npad	 6
$LL3@ChaosBoxIn:

; 97   : 	{
; 98   : 		lpObj->pChaosBoxMap[n] = -1;

  000f0	8b 8f 7c 0e 00
	00		 mov	 ecx, DWORD PTR [edi+3708]
  000f6	c6 04 08 ff	 mov	 BYTE PTR [eax+ecx], 255	; 000000ffH
  000fa	40		 inc	 eax
  000fb	83 f8 20	 cmp	 eax, 32			; 00000020H
  000fe	7c f0		 jl	 SHORT $LL3@ChaosBoxIn
$LN31@ChaosBoxIn:

; 99   : 	}
; 100  : 
; 101  : 	return true;

  00100	b8 01 00 00 00	 mov	 eax, 1

; 102  : }

  00105	8b 4d f4	 mov	 ecx, DWORD PTR __$EHRec$[ebp]
  00108	64 89 0d 00 00
	00 00		 mov	 DWORD PTR fs:0, ecx
  0010f	59		 pop	 ecx
  00110	5f		 pop	 edi
  00111	5e		 pop	 esi
  00112	5b		 pop	 ebx
  00113	8b e5		 mov	 esp, ebp
  00115	5d		 pop	 ebp
  00116	c2 04 00	 ret	 4
_TEXT	ENDS
;	COMDAT text$x
text$x	SEGMENT
__unwindfunclet$?ChaosBoxInit@CMixSystem@@QAEHPAUOBJECTSTRUCT@@@Z$0:
  00000	8b 45 08	 mov	 eax, DWORD PTR $T220760[ebp]
  00003	50		 push	 eax
  00004	e8 00 00 00 00	 call	 ??_V@YAXPAX@Z		; operator delete[]
  00009	59		 pop	 ecx
  0000a	c3		 ret	 0
__ehhandler$?ChaosBoxInit@CMixSystem@@QAEHPAUOBJECTSTRUCT@@@Z:
  0000b	8b 54 24 08	 mov	 edx, DWORD PTR [esp+8]
  0000f	8d 42 0c	 lea	 eax, DWORD PTR [edx+12]
  00012	8b 4a f0	 mov	 ecx, DWORD PTR [edx-16]
  00015	33 c8		 xor	 ecx, eax
  00017	e8 00 00 00 00	 call	 @__security_check_cookie@4
  0001c	b8 00 00 00 00	 mov	 eax, OFFSET __ehfuncinfo$?ChaosBoxInit@CMixSystem@@QAEHPAUOBJECTSTRUCT@@@Z
  00021	e9 00 00 00 00	 jmp	 ___CxxFrameHandler3
text$x	ENDS
?ChaosBoxInit@CMixSystem@@QAEHPAUOBJECTSTRUCT@@@Z ENDP	; CMixSystem::ChaosBoxInit
PUBLIC	?ChaosBoxItemDown@CMixSystem@@QAEHPAUOBJECTSTRUCT@@@Z ; CMixSystem::ChaosBoxItemDown
EXTRN	?Convert@CItem@@QAEXHEEEEEEPAEEEE@Z:PROC	; CItem::Convert
EXTRN	?ItemGetDurability@@YAHHHHH@Z:PROC		; ItemGetDurability
EXTRN	?IsExtItem@CItem@@QAEHXZ:PROC			; CItem::IsExtItem
EXTRN	?IsSetItem@CItem@@QAEHXZ:PROC			; CItem::IsSetItem
EXTRN	_rand:PROC
EXTRN	__fltused:DWORD
; Function compile flags: /Ogtp
;	COMDAT ?ChaosBoxItemDown@CMixSystem@@QAEHPAUOBJECTSTRUCT@@@Z
_TEXT	SEGMENT
tv628 = 8						; size = 4
_dur$217625 = 8						; size = 4
_lpObj$ = 8						; size = 4
?ChaosBoxItemDown@CMixSystem@@QAEHPAUOBJECTSTRUCT@@@Z PROC ; CMixSystem::ChaosBoxItemDown, COMDAT
; _this$ = ecx

; 105  : {

  00000	55		 push	 ebp
  00001	8b ec		 mov	 ebp, esp
  00003	57		 push	 edi

; 106  : 	if ( lpObj->pChaosBox == NULL )

  00004	8b 7d 08	 mov	 edi, DWORD PTR _lpObj$[ebp]
  00007	83 bf 78 0e 00
	00 00		 cmp	 DWORD PTR [edi+3704], 0
  0000e	75 07		 jne	 SHORT $LN12@ChaosBoxIt

; 107  : 	{
; 108  : 		return FALSE;

  00010	33 c0		 xor	 eax, eax
  00012	5f		 pop	 edi

; 164  : }

  00013	5d		 pop	 ebp
  00014	c2 04 00	 ret	 4
$LN12@ChaosBoxIt:
  00017	53		 push	 ebx
  00018	56		 push	 esi

; 109  : 	}
; 110  : 
; 111  : 	for (int n=0;n<CHAOS_BOX_SIZE;n++)

  00019	33 f6		 xor	 esi, esi
  0001b	eb 03 8d 49 00	 npad	 5
$LL11@ChaosBoxIt:

; 112  : 	{
; 113  : 		if (lpObj->pChaosBox[n].m_Type == ITEMGET(12,15) || lpObj->pChaosBox[n].m_Type == ITEMGET(14,13) || lpObj->pChaosBox[n].m_Type == ITEMGET(14,14) ||
; 114  : 			//Season4.5 add-on (Talisman of Wing)
; 115  : 			lpObj->pChaosBox[n].m_Type == ITEMGET(13,83) || lpObj->pChaosBox[n].m_Type == ITEMGET(13,84) ||
; 116  : 			lpObj->pChaosBox[n].m_Type == ITEMGET(13,85) ||	lpObj->pChaosBox[n].m_Type == ITEMGET(13,86) ||
; 117  : 			lpObj->pChaosBox[n].m_Type == ITEMGET(13,87) || lpObj->pChaosBox[n].m_Type == ITEMGET(13,88) ||
; 118  : 			lpObj->pChaosBox[n].m_Type == ITEMGET(13,89) || lpObj->pChaosBox[n].m_Type == ITEMGET(13,90) ||
; 119  : 			lpObj->pChaosBox[n].m_Type == ITEMGET(13,91) ||	lpObj->pChaosBox[n].m_Type == ITEMGET(13,92) ||
; 120  : 			lpObj->pChaosBox[n].m_Type == ITEMGET(14,53))

  00020	8b 87 78 0e 00
	00		 mov	 eax, DWORD PTR [edi+3704]
  00026	8d 0c 06	 lea	 ecx, DWORD PTR [esi+eax]
  00029	0f b7 41 06	 movzx	 eax, WORD PTR [ecx+6]
  0002d	ba 0f 18 00 00	 mov	 edx, 6159		; 0000180fH
  00032	66 3b c2	 cmp	 ax, dx
  00035	0f 84 d6 01 00
	00		 je	 $LN7@ChaosBoxIt
  0003b	ba 0d 1c 00 00	 mov	 edx, 7181		; 00001c0dH
  00040	66 3b c2	 cmp	 ax, dx
  00043	0f 84 c8 01 00
	00		 je	 $LN7@ChaosBoxIt
  00049	ba 0e 1c 00 00	 mov	 edx, 7182		; 00001c0eH
  0004e	66 3b c2	 cmp	 ax, dx
  00051	0f 84 ba 01 00
	00		 je	 $LN7@ChaosBoxIt
  00057	ba 53 1a 00 00	 mov	 edx, 6739		; 00001a53H
  0005c	66 3b c2	 cmp	 ax, dx
  0005f	0f 84 ac 01 00
	00		 je	 $LN7@ChaosBoxIt
  00065	ba 54 1a 00 00	 mov	 edx, 6740		; 00001a54H
  0006a	66 3b c2	 cmp	 ax, dx
  0006d	0f 84 9e 01 00
	00		 je	 $LN7@ChaosBoxIt
  00073	ba 55 1a 00 00	 mov	 edx, 6741		; 00001a55H
  00078	66 3b c2	 cmp	 ax, dx
  0007b	0f 84 90 01 00
	00		 je	 $LN7@ChaosBoxIt
  00081	ba 56 1a 00 00	 mov	 edx, 6742		; 00001a56H
  00086	66 3b c2	 cmp	 ax, dx
  00089	0f 84 82 01 00
	00		 je	 $LN7@ChaosBoxIt
  0008f	ba 57 1a 00 00	 mov	 edx, 6743		; 00001a57H
  00094	66 3b c2	 cmp	 ax, dx
  00097	0f 84 74 01 00
	00		 je	 $LN7@ChaosBoxIt
  0009d	ba 58 1a 00 00	 mov	 edx, 6744		; 00001a58H
  000a2	66 3b c2	 cmp	 ax, dx
  000a5	0f 84 66 01 00
	00		 je	 $LN7@ChaosBoxIt
  000ab	ba 59 1a 00 00	 mov	 edx, 6745		; 00001a59H
  000b0	66 3b c2	 cmp	 ax, dx
  000b3	0f 84 58 01 00
	00		 je	 $LN7@ChaosBoxIt
  000b9	ba 5a 1a 00 00	 mov	 edx, 6746		; 00001a5aH
  000be	66 3b c2	 cmp	 ax, dx
  000c1	0f 84 4a 01 00
	00		 je	 $LN7@ChaosBoxIt
  000c7	ba 5b 1a 00 00	 mov	 edx, 6747		; 00001a5bH
  000cc	66 3b c2	 cmp	 ax, dx
  000cf	0f 84 3c 01 00
	00		 je	 $LN7@ChaosBoxIt
  000d5	ba 5c 1a 00 00	 mov	 edx, 6748		; 00001a5cH
  000da	66 3b c2	 cmp	 ax, dx
  000dd	0f 84 2e 01 00
	00		 je	 $LN7@ChaosBoxIt
  000e3	ba 35 1c 00 00	 mov	 edx, 7221		; 00001c35H
  000e8	66 3b c2	 cmp	 ax, dx
  000eb	0f 84 20 01 00
	00		 je	 $LN7@ChaosBoxIt

; 123  : 		}
; 124  : 		else
; 125  : 		{
; 126  : 			int op = lpObj->pChaosBox[n].m_Option1;

  000f1	0f b6 99 94 00
	00 00		 movzx	 ebx, BYTE PTR [ecx+148]

; 127  : 
; 128  : 			if ( op > 0 )

  000f8	85 db		 test	 ebx, ebx
  000fa	7e 14		 jle	 SHORT $LN17@ChaosBoxIt

; 129  : 			{
; 130  : 				if ( (rand() % 2) == 0 )

  000fc	e8 00 00 00 00	 call	 _rand
  00101	25 01 00 00 80	 and	 eax, -2147483647	; 80000001H
  00106	79 05		 jns	 SHORT $LN19@ChaosBoxIt
  00108	48		 dec	 eax
  00109	83 c8 fe	 or	 eax, -2			; fffffffeH
  0010c	40		 inc	 eax
$LN19@ChaosBoxIt:
  0010d	75 01		 jne	 SHORT $LN17@ChaosBoxIt

; 131  : 				{
; 132  : 					op--;

  0010f	4b		 dec	 ebx
$LN17@ChaosBoxIt:

; 133  : 				}
; 134  : 			}
; 135  : 
; 136  : 			lpObj->pChaosBox[n].m_Option1 = op;

  00110	8b 87 78 0e 00
	00		 mov	 eax, DWORD PTR [edi+3704]
  00116	88 9c 06 94 00
	00 00		 mov	 BYTE PTR [esi+eax+148], bl

; 137  : 			op = lpObj->pChaosBox[n].m_Option3;

  0011d	8b 8f 78 0e 00
	00		 mov	 ecx, DWORD PTR [edi+3704]
  00123	0f b6 9c 0e 96
	00 00 00	 movzx	 ebx, BYTE PTR [esi+ecx+150]

; 138  : 
; 139  : 			if ( op > 0 )

  0012b	85 db		 test	 ebx, ebx
  0012d	7e 14		 jle	 SHORT $LN18@ChaosBoxIt

; 140  : 			{
; 141  : 				if ( (rand() % 2) == 0 )

  0012f	e8 00 00 00 00	 call	 _rand
  00134	25 01 00 00 80	 and	 eax, -2147483647	; 80000001H
  00139	79 05		 jns	 SHORT $LN20@ChaosBoxIt
  0013b	48		 dec	 eax
  0013c	83 c8 fe	 or	 eax, -2			; fffffffeH
  0013f	40		 inc	 eax
$LN20@ChaosBoxIt:
  00140	75 01		 jne	 SHORT $LN18@ChaosBoxIt

; 142  : 				{
; 143  : 					op--;

  00142	4b		 dec	 ebx
$LN18@ChaosBoxIt:

; 144  : 				}
; 145  : 			}
; 146  : 
; 147  : 			lpObj->pChaosBox[n].m_Option3 = op;

  00143	8b 97 78 0e 00
	00		 mov	 edx, DWORD PTR [edi+3704]
  00149	88 9c 16 96 00
	00 00		 mov	 BYTE PTR [esi+edx+150], bl

; 148  : 
; 149  : 			if ( lpObj->pChaosBox[n].m_Level > 0 )

  00150	8b 87 78 0e 00
	00		 mov	 eax, DWORD PTR [edi+3704]
  00156	66 83 7c 06 08
	00		 cmp	 WORD PTR [esi+eax+8], 0
  0015c	7e 12		 jle	 SHORT $LN1@ChaosBoxIt

; 150  : 			{
; 151  : 				lpObj->pChaosBox[n].m_Level = rand() % lpObj->pChaosBox[n].m_Level;

  0015e	8d 5c 06 08	 lea	 ebx, DWORD PTR [esi+eax+8]
  00162	e8 00 00 00 00	 call	 _rand
  00167	0f bf 0b	 movsx	 ecx, WORD PTR [ebx]
  0016a	99		 cdq
  0016b	f7 f9		 idiv	 ecx
  0016d	66 89 13	 mov	 WORD PTR [ebx], dx
$LN1@ChaosBoxIt:

; 152  : 			}
; 153  : 
; 154  : 			float dur = (float)ItemGetDurability(lpObj->pChaosBox[n].m_Type, lpObj->pChaosBox[n].m_Level, lpObj->pChaosBox[n].IsExtItem(), lpObj->pChaosBox[n].IsSetItem());

  00170	8b 97 78 0e 00
	00		 mov	 edx, DWORD PTR [edi+3704]
  00176	8d 0c 16	 lea	 ecx, DWORD PTR [esi+edx]
  00179	8d 1c 16	 lea	 ebx, DWORD PTR [esi+edx]
  0017c	e8 00 00 00 00	 call	 ?IsSetItem@CItem@@QAEHXZ ; CItem::IsSetItem
  00181	8b 8f 78 0e 00
	00		 mov	 ecx, DWORD PTR [edi+3704]
  00187	50		 push	 eax
  00188	03 ce		 add	 ecx, esi
  0018a	e8 00 00 00 00	 call	 ?IsExtItem@CItem@@QAEHXZ ; CItem::IsExtItem
  0018f	0f bf 4b 06	 movsx	 ecx, WORD PTR [ebx+6]
  00193	50		 push	 eax
  00194	0f bf 43 08	 movsx	 eax, WORD PTR [ebx+8]
  00198	50		 push	 eax
  00199	51		 push	 ecx
  0019a	e8 00 00 00 00	 call	 ?ItemGetDurability@@YAHHHHH@Z ; ItemGetDurability

; 155  : 			
; 156  : 			lpObj->pChaosBox[n].m_Durability =  dur * lpObj->pChaosBox[n].m_Durability / lpObj->pChaosBox[n].m_BaseDurability;

  0019f	8b 97 78 0e 00
	00		 mov	 edx, DWORD PTR [edi+3704]
  001a5	89 45 08	 mov	 DWORD PTR tv628[ebp], eax
  001a8	8d 04 16	 lea	 eax, DWORD PTR [esi+edx]
  001ab	db 45 08	 fild	 DWORD PTR tv628[ebp]
  001ae	83 c4 10	 add	 esp, 16			; 00000010H

; 157  : 			lpObj->pChaosBox[n].Convert(lpObj->pChaosBox[n].m_Type, lpObj->pChaosBox[n].m_Option1,
; 158  : 				lpObj->pChaosBox[n].m_Option2, lpObj->pChaosBox[n].m_Option3, lpObj->pChaosBox[n].m_NewOption,
; 159  : 				lpObj->pChaosBox[n].m_SetOption, lpObj->pChaosBox[n].m_ItemOptionEx, NULL, 0xFF, 0, CURRENT_DB_VERSION);

  001b1	6a 03		 push	 3
  001b3	6a 00		 push	 0
  001b5	d9 5d 08	 fstp	 DWORD PTR _dur$217625[ebp]
  001b8	68 ff 00 00 00	 push	 255			; 000000ffH
  001bd	d9 45 08	 fld	 DWORD PTR _dur$217625[ebp]
  001c0	6a 00		 push	 0
  001c2	d8 48 24	 fmul	 DWORD PTR [eax+36]
  001c5	d8 70 2c	 fdiv	 DWORD PTR [eax+44]
  001c8	d9 58 24	 fstp	 DWORD PTR [eax+36]
  001cb	8b 87 78 0e 00
	00		 mov	 eax, DWORD PTR [edi+3704]
  001d1	0f b6 94 06 ca
	00 00 00	 movzx	 edx, BYTE PTR [esi+eax+202]
  001d9	8d 0c 06	 lea	 ecx, DWORD PTR [esi+eax]
  001dc	0f b6 81 ae 00
	00 00		 movzx	 eax, BYTE PTR [ecx+174]
  001e3	52		 push	 edx
  001e4	0f b6 91 97 00
	00 00		 movzx	 edx, BYTE PTR [ecx+151]
  001eb	50		 push	 eax
  001ec	0f b6 81 96 00
	00 00		 movzx	 eax, BYTE PTR [ecx+150]
  001f3	52		 push	 edx
  001f4	0f b6 91 95 00
	00 00		 movzx	 edx, BYTE PTR [ecx+149]
  001fb	50		 push	 eax
  001fc	0f b6 81 94 00
	00 00		 movzx	 eax, BYTE PTR [ecx+148]
  00203	52		 push	 edx
  00204	0f bf 51 06	 movsx	 edx, WORD PTR [ecx+6]
  00208	50		 push	 eax
  00209	52		 push	 edx
  0020a	e8 00 00 00 00	 call	 ?Convert@CItem@@QAEXHEEEEEEPAEEEE@Z ; CItem::Convert
  0020f	eb 05		 jmp	 SHORT $LN10@ChaosBoxIt
$LN7@ChaosBoxIt:

; 121  : 		{
; 122  : 			lpObj->pChaosBox[n].Clear();

  00211	e8 00 00 00 00	 call	 ?Clear@CItem@@QAEXXZ	; CItem::Clear
$LN10@ChaosBoxIt:

; 109  : 	}
; 110  : 
; 111  : 	for (int n=0;n<CHAOS_BOX_SIZE;n++)

  00216	81 c6 d4 00 00
	00		 add	 esi, 212		; 000000d4H
  0021c	81 fe 80 1a 00
	00		 cmp	 esi, 6784		; 00001a80H
  00222	0f 8c f8 fd ff
	ff		 jl	 $LL11@ChaosBoxIt

; 160  : 		}
; 161  : 	}
; 162  : 
; 163  : 	return TRUE;

  00228	5e		 pop	 esi
  00229	5b		 pop	 ebx
  0022a	b8 01 00 00 00	 mov	 eax, 1
  0022f	5f		 pop	 edi

; 164  : }

  00230	5d		 pop	 ebp
  00231	c2 04 00	 ret	 4
?ChaosBoxItemDown@CMixSystem@@QAEHPAUOBJECTSTRUCT@@@Z ENDP ; CMixSystem::ChaosBoxItemDown
_TEXT	ENDS
PUBLIC	??_C@_0DK@EKDAKNF@?$FLMixSystem?$FN?5WingCharmItemNum?5?$DN?$DO?5@ ; `string'
PUBLIC	??_C@_0DO@PLIHJFD@?$FL?$CFs?$FN?$FL?$CFs?$FN?5CBMix?5need?5Zen?5?3?5?$CFd?5Suc@ ; `string'
PUBLIC	??_C@_0FA@FKHLLHEC@?$FL?$CFs?$FN?$FL?$CFs?$FN?5CBMix?5?$FL?$CFd?0?$CFs?0?$CFd?0?$CFd?0?$CFd?0?$CF@ ; `string'
PUBLIC	_Result3$GSCopy$
PUBLIC	_Result2$GSCopy$
PUBLIC	__$ArrayPad$
PUBLIC	?ChaosBoxMix@CMixSystem@@QAEHPAUOBJECTSTRUCT@@AAH1@Z ; CMixSystem::ChaosBoxMix
EXTRN	?ZtConfig@@3VcZtConfigs@@A:BYTE			; ZtConfig
EXTRN	?LogAddTD@@3P6AXPADZZA:DWORD			; LogAddTD
EXTRN	?LogAdd@@3P6AXPADZZA:DWORD			; LogAdd
EXTRN	?GetName@CItem@@QAEPADXZ:PROC			; CItem::GetName
EXTRN	?ItemIsBufExOption@@YAXPAEPAVCItem@@@Z:PROC	; ItemIsBufExOption
EXTRN	?IsLuckyItemEquipment@LuckyItemManager@@QAEHH@Z:PROC ; LuckyItemManager::IsLuckyItemEquipment
EXTRN	?g_LuckyItemManager@@3ULuckyItemManager@@A:BYTE	; g_LuckyItemManager
EXTRN	?OldValue@CItem@@QAEXXZ:PROC			; CItem::OldValue
EXTRN	?IsItem@CItem@@QAEHXZ:PROC			; CItem::IsItem
EXTRN	__ftol2_sse:PROC
;	COMDAT ??_C@_0DK@EKDAKNF@?$FLMixSystem?$FN?5WingCharmItemNum?5?$DN?$DO?5@
CONST	SEGMENT
??_C@_0DK@EKDAKNF@?$FLMixSystem?$FN?5WingCharmItemNum?5?$DN?$DO?5@ DB '[M'
	DB	'ixSystem] WingCharmItemNum => %d , WingCharmIndex => %d', 00H ; `string'
CONST	ENDS
;	COMDAT ??_C@_0DO@PLIHJFD@?$FL?$CFs?$FN?$FL?$CFs?$FN?5CBMix?5need?5Zen?5?3?5?$CFd?5Suc@
CONST	SEGMENT
??_C@_0DO@PLIHJFD@?$FL?$CFs?$FN?$FL?$CFs?$FN?5CBMix?5need?5Zen?5?3?5?$CFd?5Suc@ DB '['
	DB	'%s][%s] CBMix need Zen : %d SuccessRate : %d, CharmRate : %d', 00H ; `string'
CONST	ENDS
;	COMDAT ??_C@_0FA@FKHLLHEC@?$FL?$CFs?$FN?$FL?$CFs?$FN?5CBMix?5?$FL?$CFd?0?$CFs?0?$CFd?0?$CFd?0?$CFd?0?$CF@
CONST	SEGMENT
??_C@_0FA@FKHLLHEC@?$FL?$CFs?$FN?$FL?$CFs?$FN?5CBMix?5?$FL?$CFd?0?$CFs?0?$CFd?0?$CFd?0?$CFd?0?$CF@ DB '['
	DB	'%s][%s] CBMix [%d,%s,%d,%d,%d,%d]serial:[%u][%d][%d] Ex:[%d,%'
	DB	'd,%d,%d,%d,%d,%d]', 00H			; `string'
; Function compile flags: /Ogtp
CONST	ENDS
;	COMDAT ?ChaosBoxMix@CMixSystem@@QAEHPAUOBJECTSTRUCT@@AAH1@Z
_TEXT	SEGMENT
_Result2$GSCopy$ = -52					; size = 4
_WingCharmItemNum$ = -48				; size = 4
_ChaosDiamond$ = -44					; size = 4
_n$217642 = -40						; size = 4
_iCharmOfLuckCount$ = -36				; size = 4
_ChaosItems$ = -32					; size = 4
tv652 = -28						; size = 4
_add$ = -24						; size = 4
_Result3$GSCopy$ = -20					; size = 4
_value$ = -16						; size = 4
_ExOption$ = -12					; size = 8
__$ArrayPad$ = -4					; size = 4
_lpObj$ = 8						; size = 4
_Result2$ = 12						; size = 4
_Result3$ = 16						; size = 4
?ChaosBoxMix@CMixSystem@@QAEHPAUOBJECTSTRUCT@@AAH1@Z PROC ; CMixSystem::ChaosBoxMix, COMDAT
; _this$ = ecx

; 167  : {

  00000	55		 push	 ebp
  00001	8b ec		 mov	 ebp, esp
  00003	83 ec 34	 sub	 esp, 52			; 00000034H
  00006	a1 00 00 00 00	 mov	 eax, DWORD PTR ___security_cookie
  0000b	33 c5		 xor	 eax, ebp
  0000d	89 45 fc	 mov	 DWORD PTR __$ArrayPad$[ebp], eax
  00010	8b 45 0c	 mov	 eax, DWORD PTR _Result2$[ebp]
  00013	8b 4d 10	 mov	 ecx, DWORD PTR _Result3$[ebp]
  00016	56		 push	 esi

; 168  : 	BYTE ExOption[8];
; 169  : 	int ChaosDiamond = 0;

  00017	33 f6		 xor	 esi, esi
  00019	57		 push	 edi
  0001a	8b 7d 08	 mov	 edi, DWORD PTR _lpObj$[ebp]
  0001d	89 45 cc	 mov	 DWORD PTR _Result2$GSCopy$[ebp], eax
  00020	89 4d ec	 mov	 DWORD PTR _Result3$GSCopy$[ebp], ecx
  00023	89 75 d4	 mov	 DWORD PTR _ChaosDiamond$[ebp], esi

; 170  : 	int ChaosItems = 0;

  00026	89 75 e0	 mov	 DWORD PTR _ChaosItems$[ebp], esi

; 171  : 
; 172  : 	if ( lpObj->pChaosBox == NULL )

  00029	39 b7 78 0e 00
	00		 cmp	 DWORD PTR [edi+3704], esi
  0002f	75 14		 jne	 SHORT $LN33@ChaosBoxMi

; 173  : 	{
; 174  : 		return 0;

  00031	5f		 pop	 edi
  00032	33 c0		 xor	 eax, eax
  00034	5e		 pop	 esi

; 324  : 		}
; 325  : 	}
; 326  : 
; 327  : 	return value;
; 328  : }

  00035	8b 4d fc	 mov	 ecx, DWORD PTR __$ArrayPad$[ebp]
  00038	33 cd		 xor	 ecx, ebp
  0003a	e8 00 00 00 00	 call	 @__security_check_cookie@4
  0003f	8b e5		 mov	 esp, ebp
  00041	5d		 pop	 ebp
  00042	c2 0c 00	 ret	 12			; 0000000cH
$LN33@ChaosBoxMi:

; 175  : 	}
; 176  : 
; 177  : 	int value = 0;
; 178  : 	int add = 0;
; 179  : 	int nv = 0;
; 180  : 	
; 181  : 	Result2 = 0;

  00045	89 30		 mov	 DWORD PTR [eax], esi
  00047	53		 push	 ebx

; 182  : 	Result3 = -1; //season4 add-on

  00048	c7 01 ff ff ff
	ff		 mov	 DWORD PTR [ecx], -1

; 183  : 
; 184  : 	int WingCharmItemNum = -1; //season4.5 add-on
; 185  : 
; 186  : 	lpObj->ChaosSuccessRate = 0;
; 187  : 	lpObj->ChaosMoney = 0;
; 188  : 	int iCharmOfLuckCount = 0;

  0004e	33 db		 xor	 ebx, ebx
  00050	89 75 f0	 mov	 DWORD PTR _value$[ebp], esi
  00053	c7 45 d0 ff ff
	ff ff		 mov	 DWORD PTR _WingCharmItemNum$[ebp], -1
  0005a	89 b7 84 0e 00
	00		 mov	 DWORD PTR [edi+3716], esi
  00060	89 b7 80 0e 00
	00		 mov	 DWORD PTR [edi+3712], esi
  00066	89 5d dc	 mov	 DWORD PTR _iCharmOfLuckCount$[ebp], ebx

; 189  : 
; 190  : 	for ( int n=0;n<CHAOS_BOX_SIZE;n++)

  00069	89 75 d8	 mov	 DWORD PTR _n$217642[ebp], esi
  0006c	89 75 e4	 mov	 DWORD PTR tv652[ebp], esi
  0006f	90		 npad	 1
$LL32@ChaosBoxMi:

; 191  : 	{
; 192  : 		if ( lpObj->pChaosBox[n].IsItem() == TRUE )

  00070	8b 8f 78 0e 00
	00		 mov	 ecx, DWORD PTR [edi+3704]
  00076	03 ce		 add	 ecx, esi
  00078	e8 00 00 00 00	 call	 ?IsItem@CItem@@QAEHXZ	; CItem::IsItem
  0007d	83 f8 01	 cmp	 eax, 1
  00080	0f 85 d3 01 00
	00		 jne	 $LN31@ChaosBoxMi

; 193  : 		{
; 194  : 			lpObj->pChaosBox[n].OldValue();

  00086	8b 8f 78 0e 00
	00		 mov	 ecx, DWORD PTR [edi+3704]
  0008c	03 ce		 add	 ecx, esi
  0008e	e8 00 00 00 00	 call	 ?OldValue@CItem@@QAEXXZ	; CItem::OldValue

; 195  : 			add = 0;
; 196  : 			nv = 0;
; 197  : 
; 198  : #ifdef LUCKYITEM
; 199  : 			if( g_LuckyItemManager.IsLuckyItemEquipment(lpObj->pChaosBox[n].m_Type) )	//1.01.00

  00093	8b 87 78 0e 00
	00		 mov	 eax, DWORD PTR [edi+3704]
  00099	0f bf 4c 06 06	 movsx	 ecx, WORD PTR [esi+eax+6]
  0009e	51		 push	 ecx
  0009f	33 db		 xor	 ebx, ebx
  000a1	b9 00 00 00 00	 mov	 ecx, OFFSET ?g_LuckyItemManager@@3ULuckyItemManager@@A ; g_LuckyItemManager
  000a6	89 5d e8	 mov	 DWORD PTR _add$[ebp], ebx
  000a9	e8 00 00 00 00	 call	 ?IsLuckyItemEquipment@LuckyItemManager@@QAEHH@Z ; LuckyItemManager::IsLuckyItemEquipment
  000ae	85 c0		 test	 eax, eax
  000b0	0f 85 d3 01 00
	00		 jne	 $LN38@ChaosBoxMi

; 200  : 			{
; 201  : 				return false;
; 202  : 			}
; 203  : #endif
; 204  : 
; 205  : 			if ( lpObj->pChaosBox[n].m_Level >= MIN_CHAOS_ITEM_LEVEL && (lpObj->pChaosBox[n].m_Option3 *4) >= MIN_CHAOS_ITEM_LEVEL )

  000b6	8b 97 78 0e 00
	00		 mov	 edx, DWORD PTR [edi+3704]
  000bc	66 83 7c 16 08
	04		 cmp	 WORD PTR [esi+edx+8], 4
  000c2	8d 04 16	 lea	 eax, DWORD PTR [esi+edx]
  000c5	7c 4b		 jl	 SHORT $LN26@ChaosBoxMi
  000c7	0f b6 88 96 00
	00 00		 movzx	 ecx, BYTE PTR [eax+150]
  000ce	03 c9		 add	 ecx, ecx
  000d0	03 c9		 add	 ecx, ecx
  000d2	83 f9 04	 cmp	 ecx, 4
  000d5	7c 3b		 jl	 SHORT $LN26@ChaosBoxMi

; 206  : 			{
; 207  : 				nv = lpObj->pChaosBox[n].m_OldBuyMoney;

  000d7	8b 98 90 00 00
	00		 mov	 ebx, DWORD PTR [eax+144]

; 208  : 				value += lpObj->pChaosBox[n].m_OldBuyMoney;
; 209  : 				add = 1;
; 210  : 
; 211  : 				if ( lpObj->pChaosBox[n].m_Type == ITEMGET(2,6) || lpObj->pChaosBox[n].m_Type == ITEMGET(4,6) || lpObj->pChaosBox[n].m_Type == ITEMGET(5,7) )	// Chaos Items

  000dd	0f b7 40 06	 movzx	 eax, WORD PTR [eax+6]
  000e1	01 5d f0	 add	 DWORD PTR _value$[ebp], ebx
  000e4	ba 06 04 00 00	 mov	 edx, 1030		; 00000406H
  000e9	c7 45 e8 01 00
	00 00		 mov	 DWORD PTR _add$[ebp], 1
  000f0	66 3b c2	 cmp	 ax, dx
  000f3	74 14		 je	 SHORT $LN25@ChaosBoxMi
  000f5	b9 06 08 00 00	 mov	 ecx, 2054		; 00000806H
  000fa	66 3b c1	 cmp	 ax, cx
  000fd	74 0a		 je	 SHORT $LN25@ChaosBoxMi
  000ff	ba 07 0a 00 00	 mov	 edx, 2567		; 00000a07H
  00104	66 3b c2	 cmp	 ax, dx
  00107	75 09		 jne	 SHORT $LN26@ChaosBoxMi
$LN25@ChaosBoxMi:

; 212  : 				{
; 213  : 					Result2 = 1;

  00109	8b 45 cc	 mov	 eax, DWORD PTR _Result2$GSCopy$[ebp]
  0010c	c7 00 01 00 00
	00		 mov	 DWORD PTR [eax], 1
$LN26@ChaosBoxMi:

; 214  : 				}
; 215  : 			}
; 216  : 
; 217  : 			if ( lpObj->pChaosBox[n].m_Type == ITEMGET(12,15) )

  00112	03 b7 78 0e 00
	00		 add	 esi, DWORD PTR [edi+3704]
  00118	ba 0f 18 00 00	 mov	 edx, 6159		; 0000180fH
  0011d	0f b7 46 06	 movzx	 eax, WORD PTR [esi+6]
  00121	66 3b c2	 cmp	 ax, dx
  00124	75 18		 jne	 SHORT $LN24@ChaosBoxMi

; 218  : 			{
; 219  : 				value += lpObj->pChaosBox[n].m_OldBuyMoney;

  00126	8b 8e 90 00 00
	00		 mov	 ecx, DWORD PTR [esi+144]
  0012c	01 4d f0	 add	 DWORD PTR _value$[ebp], ecx

; 220  : 				nv = lpObj->pChaosBox[n].m_OldBuyMoney;

  0012f	8b d9		 mov	 ebx, ecx

; 221  : 				ChaosDiamond++;

  00131	b9 01 00 00 00	 mov	 ecx, 1
  00136	01 4d d4	 add	 DWORD PTR _ChaosDiamond$[ebp], ecx

; 222  : 				add = 1;

  00139	89 4d e8	 mov	 DWORD PTR _add$[ebp], ecx
  0013c	eb 24		 jmp	 SHORT $LN40@ChaosBoxMi
$LN24@ChaosBoxMi:

; 223  : 			}
; 224  : 			else if ( lpObj->pChaosBox[n].m_Type == ITEMGET(14,13) || lpObj->pChaosBox[n].m_Type == ITEMGET(14,14) )	// Jewel of Bless, Jewel of Soul

  0013e	b9 0d 1c 00 00	 mov	 ecx, 7181		; 00001c0dH
  00143	66 3b c1	 cmp	 ax, cx
  00146	74 0a		 je	 SHORT $LN21@ChaosBoxMi
  00148	ba 0e 1c 00 00	 mov	 edx, 7182		; 00001c0eH
  0014d	66 3b c2	 cmp	 ax, dx
  00150	75 10		 jne	 SHORT $LN40@ChaosBoxMi
$LN21@ChaosBoxMi:

; 225  : 			{
; 226  : 				value += lpObj->pChaosBox[n].m_OldBuyMoney;

  00152	8b 9e 90 00 00
	00		 mov	 ebx, DWORD PTR [esi+144]
  00158	01 5d f0	 add	 DWORD PTR _value$[ebp], ebx

; 227  : 				nv = lpObj->pChaosBox[n].m_OldBuyMoney;
; 228  : 				add = 1;

  0015b	c7 45 e8 01 00
	00 00		 mov	 DWORD PTR _add$[ebp], 1
$LN40@ChaosBoxMi:

; 229  : 			}
; 230  : 
; 231  : 			//season4.5 add-on
; 232  : 			if( lpObj->pChaosBox[n].m_Type == ITEMGET(13,83) ||
; 233  : 				lpObj->pChaosBox[n].m_Type == ITEMGET(13,84) ||
; 234  : 				lpObj->pChaosBox[n].m_Type == ITEMGET(13,85) ||
; 235  : 				lpObj->pChaosBox[n].m_Type == ITEMGET(13,86) ||
; 236  : 				lpObj->pChaosBox[n].m_Type == ITEMGET(13,87) )

  00162	b9 53 1a 00 00	 mov	 ecx, 6739		; 00001a53H
  00167	66 3b c1	 cmp	 ax, cx
  0016a	74 28		 je	 SHORT $LN19@ChaosBoxMi
  0016c	ba 54 1a 00 00	 mov	 edx, 6740		; 00001a54H
  00171	66 3b c2	 cmp	 ax, dx
  00174	74 1e		 je	 SHORT $LN19@ChaosBoxMi
  00176	b9 55 1a 00 00	 mov	 ecx, 6741		; 00001a55H
  0017b	66 3b c1	 cmp	 ax, cx
  0017e	74 14		 je	 SHORT $LN19@ChaosBoxMi
  00180	ba 56 1a 00 00	 mov	 edx, 6742		; 00001a56H
  00185	66 3b c2	 cmp	 ax, dx
  00188	74 0a		 je	 SHORT $LN19@ChaosBoxMi
  0018a	b9 57 1a 00 00	 mov	 ecx, 6743		; 00001a57H
  0018f	66 3b c1	 cmp	 ax, cx
  00192	75 06		 jne	 SHORT $LN20@ChaosBoxMi
$LN19@ChaosBoxMi:

; 237  : 			{
; 238  : 				WingCharmItemNum = lpObj->pChaosBox[n].m_Type;

  00194	0f bf d0	 movsx	 edx, ax
  00197	89 55 d0	 mov	 DWORD PTR _WingCharmItemNum$[ebp], edx
$LN20@ChaosBoxMi:

; 239  : 			}
; 240  : 
; 241  : 			if ( lpObj->pChaosBox[n].m_Type == ITEMGET(13,14) ) // Loch Feather

  0019a	b9 0e 1a 00 00	 mov	 ecx, 6670		; 00001a0eH
  0019f	66 3b c1	 cmp	 ax, cx
  001a2	0f 84 e1 00 00
	00		 je	 $LN38@ChaosBoxMi

; 242  : 			{
; 243  : 				return FALSE;
; 244  : 			}
; 245  : 
; 246  : 			if ( lpObj->pChaosBox[n].m_Type == ITEMGET(14,53) )	// Charm Of Luck

  001a8	ba 35 1c 00 00	 mov	 edx, 7221		; 00001c35H
  001ad	66 3b c2	 cmp	 ax, dx
  001b0	75 0b		 jne	 SHORT $LN17@ChaosBoxMi

; 247  : 			{
; 248  : 				iCharmOfLuckCount += (int)lpObj->pChaosBox[n].m_Durability;

  001b2	d9 46 24	 fld	 DWORD PTR [esi+36]
  001b5	e8 00 00 00 00	 call	 __ftol2_sse
  001ba	01 45 dc	 add	 DWORD PTR _iCharmOfLuckCount$[ebp], eax
$LN17@ChaosBoxMi:

; 249  : 			}
; 250  : 
; 251  : 			if ( add != 0  )

  001bd	83 7d e8 00	 cmp	 DWORD PTR _add$[ebp], 0
  001c1	74 03		 je	 SHORT $LN16@ChaosBoxMi

; 252  : 			{
; 253  : 				ChaosItems++;

  001c3	ff 45 e0	 inc	 DWORD PTR _ChaosItems$[ebp]
$LN16@ChaosBoxMi:

; 254  : 			}
; 255  : 
; 256  : 			ItemIsBufExOption(ExOption, &lpObj->pChaosBox[n]);

  001c6	8d 45 f4	 lea	 eax, DWORD PTR _ExOption$[ebp]
  001c9	56		 push	 esi
  001ca	50		 push	 eax
  001cb	e8 00 00 00 00	 call	 ?ItemIsBufExOption@@YAXPAEPAVCItem@@@Z ; ItemIsBufExOption

; 257  : 			LogAdd("[%s][%s] CBMix [%d,%s,%d,%d,%d,%d]serial:[%u][%d][%d] Ex:[%d,%d,%d,%d,%d,%d,%d]",
; 258  : 				lpObj->AccountID, lpObj->Name, n, lpObj->pChaosBox[n].GetName(),
; 259  : 				lpObj->pChaosBox[n].m_Level, lpObj->pChaosBox[n].m_Option1,
; 260  : 				lpObj->pChaosBox[n].m_Option2, lpObj->pChaosBox[n].m_Option3,
; 261  : 				lpObj->pChaosBox[n].m_Number, (int)lpObj->pChaosBox[n].m_Durability,
; 262  : 				nv, ExOption[0], ExOption[1], ExOption[2], ExOption[3], ExOption[4], ExOption[5],
; 263  : 				ExOption[6], lpObj->pChaosBox[n].m_SetOption);

  001d0	8b 75 e4	 mov	 esi, DWORD PTR tv652[ebp]
  001d3	03 b7 78 0e 00
	00		 add	 esi, DWORD PTR [edi+3704]
  001d9	0f b6 4d fa	 movzx	 ecx, BYTE PTR _ExOption$[ebp+6]
  001dd	0f b6 86 ae 00
	00 00		 movzx	 eax, BYTE PTR [esi+174]
  001e4	d9 46 24	 fld	 DWORD PTR [esi+36]
  001e7	0f b6 55 f9	 movzx	 edx, BYTE PTR _ExOption$[ebp+5]
  001eb	83 c4 08	 add	 esp, 8
  001ee	50		 push	 eax
  001ef	0f b6 45 f8	 movzx	 eax, BYTE PTR _ExOption$[ebp+4]
  001f3	51		 push	 ecx
  001f4	0f b6 4d f7	 movzx	 ecx, BYTE PTR _ExOption$[ebp+3]
  001f8	52		 push	 edx
  001f9	0f b6 55 f6	 movzx	 edx, BYTE PTR _ExOption$[ebp+2]
  001fd	50		 push	 eax
  001fe	0f b6 45 f5	 movzx	 eax, BYTE PTR _ExOption$[ebp+1]
  00202	51		 push	 ecx
  00203	0f b6 4d f4	 movzx	 ecx, BYTE PTR _ExOption$[ebp]
  00207	52		 push	 edx
  00208	50		 push	 eax
  00209	51		 push	 ecx
  0020a	53		 push	 ebx
  0020b	e8 00 00 00 00	 call	 __ftol2_sse
  00210	8b 16		 mov	 edx, DWORD PTR [esi]
  00212	0f b6 8e 95 00
	00 00		 movzx	 ecx, BYTE PTR [esi+149]
  00219	50		 push	 eax
  0021a	0f b6 86 96 00
	00 00		 movzx	 eax, BYTE PTR [esi+150]
  00221	52		 push	 edx
  00222	0f b6 96 94 00
	00 00		 movzx	 edx, BYTE PTR [esi+148]
  00229	50		 push	 eax
  0022a	0f bf 46 08	 movsx	 eax, WORD PTR [esi+8]
  0022e	51		 push	 ecx
  0022f	52		 push	 edx
  00230	50		 push	 eax
  00231	8b ce		 mov	 ecx, esi
  00233	e8 00 00 00 00	 call	 ?GetName@CItem@@QAEPADXZ ; CItem::GetName
  00238	8b 4d d8	 mov	 ecx, DWORD PTR _n$217642[ebp]
  0023b	50		 push	 eax
  0023c	51		 push	 ecx
  0023d	8d 57 77	 lea	 edx, DWORD PTR [edi+119]
  00240	52		 push	 edx
  00241	8d 47 6c	 lea	 eax, DWORD PTR [edi+108]
  00244	50		 push	 eax
  00245	68 00 00 00 00	 push	 OFFSET ??_C@_0FA@FKHLLHEC@?$FL?$CFs?$FN?$FL?$CFs?$FN?5CBMix?5?$FL?$CFd?0?$CFs?0?$CFd?0?$CFd?0?$CFd?0?$CF@
  0024a	ff 15 00 00 00
	00		 call	 DWORD PTR ?LogAdd@@3P6AXPADZZA ; LogAdd
  00250	8b 75 e4	 mov	 esi, DWORD PTR tv652[ebp]
  00253	8b 5d dc	 mov	 ebx, DWORD PTR _iCharmOfLuckCount$[ebp]
  00256	83 c4 50	 add	 esp, 80			; 00000050H
$LN31@ChaosBoxMi:

; 189  : 
; 190  : 	for ( int n=0;n<CHAOS_BOX_SIZE;n++)

  00259	ff 45 d8	 inc	 DWORD PTR _n$217642[ebp]
  0025c	81 c6 d4 00 00
	00		 add	 esi, 212		; 000000d4H
  00262	89 75 e4	 mov	 DWORD PTR tv652[ebp], esi
  00265	81 fe 80 1a 00
	00		 cmp	 esi, 6784		; 00001a80H
  0026b	0f 8c ff fd ff
	ff		 jl	 $LL32@ChaosBoxMi

; 264  : 		}
; 265  : 	}
; 266  : 
; 267  : 	if ( ChaosDiamond == 0 )

  00271	33 c0		 xor	 eax, eax
  00273	39 45 d4	 cmp	 DWORD PTR _ChaosDiamond$[ebp], eax
  00276	75 03		 jne	 SHORT $LN15@ChaosBoxMi

; 268  : 	{
; 269  : 		value = 0;

  00278	89 45 f0	 mov	 DWORD PTR _value$[ebp], eax
$LN15@ChaosBoxMi:

; 270  : 	}
; 271  : 
; 272  : 	if ( ChaosItems < 2 )

  0027b	83 7d e0 02	 cmp	 DWORD PTR _ChaosItems$[ebp], 2
  0027f	7d 03		 jge	 SHORT $LN14@ChaosBoxMi

; 273  : 	{
; 274  : 		value = 0;

  00281	89 45 f0	 mov	 DWORD PTR _value$[ebp], eax
$LN14@ChaosBoxMi:

; 275  : 	}
; 276  : 
; 277  : 	if ( iCharmOfLuckCount > 10 )

  00284	83 fb 0a	 cmp	 ebx, 10			; 0000000aH
  00287	7e 15		 jle	 SHORT $LN13@ChaosBoxMi
$LN38@ChaosBoxMi:
  00289	5b		 pop	 ebx
  0028a	5f		 pop	 edi

; 278  : 		return FALSE;

  0028b	33 c0		 xor	 eax, eax
  0028d	5e		 pop	 esi

; 324  : 		}
; 325  : 	}
; 326  : 
; 327  : 	return value;
; 328  : }

  0028e	8b 4d fc	 mov	 ecx, DWORD PTR __$ArrayPad$[ebp]
  00291	33 cd		 xor	 ecx, ebp
  00293	e8 00 00 00 00	 call	 @__security_check_cookie@4
  00298	8b e5		 mov	 esp, ebp
  0029a	5d		 pop	 ebp
  0029b	c2 0c 00	 ret	 12			; 0000000cH
$LN13@ChaosBoxMi:

; 279  : 	
; 280  : 	lpObj->ChaosSuccessRate = value / 20000;

  0029e	8b 75 f0	 mov	 esi, DWORD PTR _value$[ebp]
  002a1	b8 ad 8b db 68	 mov	 eax, 1759218605		; 68db8badH
  002a6	f7 ee		 imul	 esi
  002a8	c1 fa 0d	 sar	 edx, 13			; 0000000dH
  002ab	8b c2		 mov	 eax, edx
  002ad	c1 e8 1f	 shr	 eax, 31			; 0000001fH
  002b0	03 c2		 add	 eax, edx

; 281  : 	lpObj->ChaosSuccessRate += iCharmOfLuckCount;
; 282  : 
; 283  : 	lpObj->ChaosSuccessRate += lpObj->m_AddMixSuccessRate;

  002b2	03 87 24 28 00
	00		 add	 eax, DWORD PTR [edi+10276]
  002b8	03 c3		 add	 eax, ebx
  002ba	89 87 84 0e 00
	00		 mov	 DWORD PTR [edi+3716], eax

; 284  : 
; 285  : 	if ( lpObj->ChaosSuccessRate  > 100 )

  002c0	83 f8 64	 cmp	 eax, 100		; 00000064H
  002c3	7e 0a		 jle	 SHORT $LN12@ChaosBoxMi

; 286  : 	{
; 287  : 		lpObj->ChaosSuccessRate = 100;

  002c5	c7 87 84 0e 00
	00 64 00 00 00	 mov	 DWORD PTR [edi+3716], 100 ; 00000064H
$LN12@ChaosBoxMi:

; 288  : 	}
; 289  : 
; 290  : 	lpObj->ChaosMoney = lpObj->ChaosSuccessRate * 10000;

  002cf	8b 8f 84 0e 00
	00		 mov	 ecx, DWORD PTR [edi+3716]
  002d5	8b c1		 mov	 eax, ecx
  002d7	69 c0 10 27 00
	00		 imul	 eax, 10000		; 00002710H

; 291  : 
; 292  : 	LogAddTD("[%s][%s] CBMix need Zen : %d SuccessRate : %d, CharmRate : %d", lpObj->AccountID, lpObj->Name, lpObj->ChaosMoney, lpObj->ChaosSuccessRate, iCharmOfLuckCount);

  002dd	53		 push	 ebx
  002de	51		 push	 ecx
  002df	50		 push	 eax
  002e0	8d 57 77	 lea	 edx, DWORD PTR [edi+119]
  002e3	89 87 80 0e 00
	00		 mov	 DWORD PTR [edi+3712], eax
  002e9	52		 push	 edx
  002ea	83 c7 6c	 add	 edi, 108		; 0000006cH
  002ed	57		 push	 edi
  002ee	68 00 00 00 00	 push	 OFFSET ??_C@_0DO@PLIHJFD@?$FL?$CFs?$FN?$FL?$CFs?$FN?5CBMix?5need?5Zen?5?3?5?$CFd?5Suc@
  002f3	ff 15 00 00 00
	00		 call	 DWORD PTR ?LogAddTD@@3P6AXPADZZA ; LogAddTD

; 293  : 
; 294  : 	if(WingCharmItemNum > -1) //season4.5 add-on

  002f9	8b 4d d0	 mov	 ecx, DWORD PTR _WingCharmItemNum$[ebp]
  002fc	83 c4 18	 add	 esp, 24			; 00000018H
  002ff	83 f9 ff	 cmp	 ecx, -1
  00302	7e 68		 jle	 SHORT $LN9@ChaosBoxMi

; 295  : 	{
; 296  : 		int WingCharmIndex = WingCharmItemNum ^ ITEMGET(13,0);

  00304	8b c1		 mov	 eax, ecx
  00306	35 00 1a 00 00	 xor	 eax, 6656		; 00001a00H

; 297  : 
; 298  : 		switch(WingCharmIndex)

  0030b	8d 50 ad	 lea	 edx, DWORD PTR [eax-83]
  0030e	83 fa 04	 cmp	 edx, 4
  00311	77 49		 ja	 SHORT $LN1@ChaosBoxMi
  00313	ff 24 95 00 00
	00 00		 jmp	 DWORD PTR $LN42@ChaosBoxMi[edx*4]
$LN8@ChaosBoxMi:

; 299  : 		{
; 300  : 		case 83:
; 301  : 			Result3 = 2;

  0031a	8b 45 ec	 mov	 eax, DWORD PTR _Result3$GSCopy$[ebp]
  0031d	c7 00 02 00 00
	00		 mov	 DWORD PTR [eax], 2

; 302  : 			break;

  00323	eb 47		 jmp	 SHORT $LN9@ChaosBoxMi
$LN7@ChaosBoxMi:

; 303  : 		case 84:
; 304  : 			Result3 = 1;

  00325	8b 4d ec	 mov	 ecx, DWORD PTR _Result3$GSCopy$[ebp]
  00328	c7 01 01 00 00
	00		 mov	 DWORD PTR [ecx], 1

; 305  : 			break;

  0032e	eb 3c		 jmp	 SHORT $LN9@ChaosBoxMi
$LN6@ChaosBoxMi:

; 306  : 		case 85:
; 307  : 			Result3 = 0;

  00330	8b 55 ec	 mov	 edx, DWORD PTR _Result3$GSCopy$[ebp]
  00333	c7 02 00 00 00
	00		 mov	 DWORD PTR [edx], 0

; 308  : 			break;

  00339	eb 31		 jmp	 SHORT $LN9@ChaosBoxMi
$LN5@ChaosBoxMi:

; 309  : 		case 86:
; 310  : 			if(ZtConfig.ZtCustom.SwitchChar == 2)

  0033b	a1 00 00 00 00	 mov	 eax, DWORD PTR ?ZtConfig@@3VcZtConfigs@@A
  00340	8b 4d ec	 mov	 ecx, DWORD PTR _Result3$GSCopy$[ebp]
  00343	83 e8 02	 sub	 eax, 2
  00346	f7 d8		 neg	 eax
  00348	1b c0		 sbb	 eax, eax
  0034a	83 e0 29	 and	 eax, 41			; 00000029H
  0034d	89 01		 mov	 DWORD PTR [ecx], eax

; 311  : 			{
; 312  : 				Result3 = 0;
; 313  : 			}
; 314  : 			else
; 315  : 			{
; 316  : 				Result3 = 41;
; 317  : 			}
; 318  : 			break;

  0034f	eb 1b		 jmp	 SHORT $LN9@ChaosBoxMi
$LN2@ChaosBoxMi:

; 319  : 		case 87://updated 1.01.00
; 320  : 			Result3 = 30;//40;

  00351	8b 55 ec	 mov	 edx, DWORD PTR _Result3$GSCopy$[ebp]
  00354	c7 02 1e 00 00
	00		 mov	 DWORD PTR [edx], 30	; 0000001eH

; 321  : 			break;

  0035a	eb 10		 jmp	 SHORT $LN9@ChaosBoxMi
$LN1@ChaosBoxMi:

; 322  : 		default:
; 323  : 			LogAddTD("[MixSystem] WingCharmItemNum => %d , WingCharmIndex => %d", WingCharmItemNum, WingCharmIndex);

  0035c	50		 push	 eax
  0035d	51		 push	 ecx
  0035e	68 00 00 00 00	 push	 OFFSET ??_C@_0DK@EKDAKNF@?$FLMixSystem?$FN?5WingCharmItemNum?5?$DN?$DO?5@
  00363	ff 15 00 00 00
	00		 call	 DWORD PTR ?LogAddTD@@3P6AXPADZZA ; LogAddTD
  00369	83 c4 0c	 add	 esp, 12			; 0000000cH
$LN9@ChaosBoxMi:

; 324  : 		}
; 325  : 	}
; 326  : 
; 327  : 	return value;
; 328  : }

  0036c	8b 4d fc	 mov	 ecx, DWORD PTR __$ArrayPad$[ebp]
  0036f	5b		 pop	 ebx
  00370	5f		 pop	 edi
  00371	8b c6		 mov	 eax, esi
  00373	33 cd		 xor	 ecx, ebp
  00375	5e		 pop	 esi
  00376	e8 00 00 00 00	 call	 @__security_check_cookie@4
  0037b	8b e5		 mov	 esp, ebp
  0037d	5d		 pop	 ebp
  0037e	c2 0c 00	 ret	 12			; 0000000cH
  00381	8d 49 00	 npad	 3
$LN42@ChaosBoxMi:
  00384	00 00 00 00	 DD	 $LN8@ChaosBoxMi
  00388	00 00 00 00	 DD	 $LN7@ChaosBoxMi
  0038c	00 00 00 00	 DD	 $LN6@ChaosBoxMi
  00390	00 00 00 00	 DD	 $LN5@ChaosBoxMi
  00394	00 00 00 00	 DD	 $LN2@ChaosBoxMi
?ChaosBoxMix@CMixSystem@@QAEHPAUOBJECTSTRUCT@@AAH1@Z ENDP ; CMixSystem::ChaosBoxMix
_TEXT	ENDS
PUBLIC	??_C@_0HL@DJPNJNMN@?$FLDevilSquare?0?$CFd?$FN?5?$FL?$CFs?$FN?$FL?$CFs?$FN?5CBMix?5@ ; `string'
PUBLIC	__$ArrayPad$
PUBLIC	?LogDQChaosItem@CMixSystem@@QAEXPAUOBJECTSTRUCT@@@Z ; CMixSystem::LogDQChaosItem
EXTRN	?GetItemStrengthenOption@CJewelOfHarmonySystem@@QAEEPAVCItem@@@Z:PROC ; CJewelOfHarmonySystem::GetItemStrengthenOption
EXTRN	?GetItemOptionLevel@CJewelOfHarmonySystem@@QAEEPAVCItem@@@Z:PROC ; CJewelOfHarmonySystem::GetItemOptionLevel
EXTRN	?g_kJewelOfHarmonySystem@@3VCJewelOfHarmonySystem@@A:BYTE ; g_kJewelOfHarmonySystem
;	COMDAT ??_C@_0HL@DJPNJNMN@?$FLDevilSquare?0?$CFd?$FN?5?$FL?$CFs?$FN?$FL?$CFs?$FN?5CBMix?5@
CONST	SEGMENT
??_C@_0HL@DJPNJNMN@?$FLDevilSquare?0?$CFd?$FN?5?$FL?$CFs?$FN?$FL?$CFs?$FN?5CBMix?5@ DB '['
	DB	'DevilSquare,%d] [%s][%s] CBMix [%d,%s,%d,%d,%d,%d]serial:[%u]'
	DB	'[%d] Ex:[%d,%d,%d,%d,%d,%d,%d] Set:[%d] 380Ex[%d] HO:[%d,%d]', 00H ; `string'
; Function compile flags: /Ogtp
CONST	ENDS
;	COMDAT ?LogDQChaosItem@CMixSystem@@QAEXPAUOBJECTSTRUCT@@@Z
_TEXT	SEGMENT
_n$217769 = -16						; size = 4
_ExOption$ = -12					; size = 8
__$ArrayPad$ = -4					; size = 4
_lpObj$ = 8						; size = 4
?LogDQChaosItem@CMixSystem@@QAEXPAUOBJECTSTRUCT@@@Z PROC ; CMixSystem::LogDQChaosItem, COMDAT
; _this$ = ecx

; 526  : {

  00000	55		 push	 ebp
  00001	8b ec		 mov	 ebp, esp
  00003	83 ec 10	 sub	 esp, 16			; 00000010H
  00006	a1 00 00 00 00	 mov	 eax, DWORD PTR ___security_cookie
  0000b	33 c5		 xor	 eax, ebp
  0000d	89 45 fc	 mov	 DWORD PTR __$ArrayPad$[ebp], eax
  00010	53		 push	 ebx
  00011	8b 5d 08	 mov	 ebx, DWORD PTR _lpObj$[ebp]
  00014	56		 push	 esi
  00015	57		 push	 edi

; 527  : 	BYTE ExOption[MAX_EXOPTION_SIZE];
; 528  : 
; 529  : 	for ( int n=0;n<CHAOS_BOX_SIZE;n++)

  00016	33 ff		 xor	 edi, edi
  00018	89 7d f0	 mov	 DWORD PTR _n$217769[ebp], edi
  0001b	eb 03 8d 49 00	 npad	 5
$LL4@LogDQChaos:

; 530  : 	{
; 531  : 		if ( lpObj->pChaosBox[n].IsItem() == TRUE )

  00020	8b 8b 78 0e 00
	00		 mov	 ecx, DWORD PTR [ebx+3704]
  00026	03 cf		 add	 ecx, edi
  00028	e8 00 00 00 00	 call	 ?IsItem@CItem@@QAEHXZ	; CItem::IsItem
  0002d	83 f8 01	 cmp	 eax, 1
  00030	0f 85 d3 00 00
	00		 jne	 $LN3@LogDQChaos

; 532  : 		{
; 533  : 			::ItemIsBufExOption(ExOption, &lpObj->pChaosBox[n] );

  00036	8b 83 78 0e 00
	00		 mov	 eax, DWORD PTR [ebx+3704]
  0003c	03 c7		 add	 eax, edi
  0003e	50		 push	 eax
  0003f	8d 4d f4	 lea	 ecx, DWORD PTR _ExOption$[ebp]
  00042	51		 push	 ecx
  00043	e8 00 00 00 00	 call	 ?ItemIsBufExOption@@YAXPAEPAVCItem@@@Z ; ItemIsBufExOption

; 534  : 
; 535  : 			LogAddTD("[DevilSquare,%d] [%s][%s] CBMix [%d,%s,%d,%d,%d,%d]serial:[%u][%d] Ex:[%d,%d,%d,%d,%d,%d,%d] Set:[%d] 380Ex[%d] HO:[%d,%d]",
; 536  : 				lpObj->pChaosBox[n].m_Level,
; 537  : 				lpObj->AccountID, lpObj->Name, n, lpObj->pChaosBox[n].GetName(), lpObj->pChaosBox[n].m_Level,
; 538  : 				lpObj->pChaosBox[n].m_Option1, lpObj->pChaosBox[n].m_Option2, lpObj->pChaosBox[n].m_Option3, 
; 539  : 				lpObj->pChaosBox[n].m_Number, (int)lpObj->pChaosBox[n].m_Durability, 
; 540  : 				ExOption[0], ExOption[1], ExOption[2], ExOption[3], ExOption[4], ExOption[5], ExOption[6],
; 541  : 				lpObj->pChaosBox[n].m_SetOption, lpObj->pChaosBox[n].m_ItemOptionEx >> 7,
; 542  : 				g_kJewelOfHarmonySystem.GetItemStrengthenOption(&lpObj->pChaosBox[n]),
; 543  : 				g_kJewelOfHarmonySystem.GetItemOptionLevel(&lpObj->pChaosBox[n]));

  00048	8b 93 78 0e 00
	00		 mov	 edx, DWORD PTR [ebx+3704]
  0004e	8d 34 17	 lea	 esi, DWORD PTR [edi+edx]
  00051	83 c4 08	 add	 esp, 8
  00054	03 d7		 add	 edx, edi
  00056	52		 push	 edx
  00057	b9 00 00 00 00	 mov	 ecx, OFFSET ?g_kJewelOfHarmonySystem@@3VCJewelOfHarmonySystem@@A ; g_kJewelOfHarmonySystem
  0005c	e8 00 00 00 00	 call	 ?GetItemOptionLevel@CJewelOfHarmonySystem@@QAEEPAVCItem@@@Z ; CJewelOfHarmonySystem::GetItemOptionLevel
  00061	8b 93 78 0e 00
	00		 mov	 edx, DWORD PTR [ebx+3704]
  00067	0f b6 c8	 movzx	 ecx, al
  0006a	51		 push	 ecx
  0006b	03 d7		 add	 edx, edi
  0006d	52		 push	 edx
  0006e	b9 00 00 00 00	 mov	 ecx, OFFSET ?g_kJewelOfHarmonySystem@@3VCJewelOfHarmonySystem@@A ; g_kJewelOfHarmonySystem
  00073	e8 00 00 00 00	 call	 ?GetItemStrengthenOption@CJewelOfHarmonySystem@@QAEEPAVCItem@@@Z ; CJewelOfHarmonySystem::GetItemStrengthenOption
  00078	0f b6 8e ca 00
	00 00		 movzx	 ecx, BYTE PTR [esi+202]
  0007f	d9 46 24	 fld	 DWORD PTR [esi+36]
  00082	0f b6 96 ae 00
	00 00		 movzx	 edx, BYTE PTR [esi+174]
  00089	0f b6 c0	 movzx	 eax, al
  0008c	50		 push	 eax
  0008d	0f b6 45 fa	 movzx	 eax, BYTE PTR _ExOption$[ebp+6]
  00091	c1 e9 07	 shr	 ecx, 7
  00094	51		 push	 ecx
  00095	0f b6 4d f9	 movzx	 ecx, BYTE PTR _ExOption$[ebp+5]
  00099	52		 push	 edx
  0009a	0f b6 55 f8	 movzx	 edx, BYTE PTR _ExOption$[ebp+4]
  0009e	50		 push	 eax
  0009f	0f b6 45 f7	 movzx	 eax, BYTE PTR _ExOption$[ebp+3]
  000a3	51		 push	 ecx
  000a4	0f b6 4d f6	 movzx	 ecx, BYTE PTR _ExOption$[ebp+2]
  000a8	52		 push	 edx
  000a9	0f b6 55 f5	 movzx	 edx, BYTE PTR _ExOption$[ebp+1]
  000ad	50		 push	 eax
  000ae	0f b6 45 f4	 movzx	 eax, BYTE PTR _ExOption$[ebp]
  000b2	51		 push	 ecx
  000b3	52		 push	 edx
  000b4	50		 push	 eax
  000b5	e8 00 00 00 00	 call	 __ftol2_sse
  000ba	8b 0e		 mov	 ecx, DWORD PTR [esi]
  000bc	0f b6 96 96 00
	00 00		 movzx	 edx, BYTE PTR [esi+150]
  000c3	50		 push	 eax
  000c4	0f b6 86 95 00
	00 00		 movzx	 eax, BYTE PTR [esi+149]
  000cb	51		 push	 ecx
  000cc	0f b6 8e 94 00
	00 00		 movzx	 ecx, BYTE PTR [esi+148]
  000d3	52		 push	 edx
  000d4	0f bf 56 08	 movsx	 edx, WORD PTR [esi+8]
  000d8	50		 push	 eax
  000d9	51		 push	 ecx
  000da	52		 push	 edx
  000db	8b ce		 mov	 ecx, esi
  000dd	e8 00 00 00 00	 call	 ?GetName@CItem@@QAEPADXZ ; CItem::GetName
  000e2	50		 push	 eax
  000e3	8b 45 f0	 mov	 eax, DWORD PTR _n$217769[ebp]
  000e6	50		 push	 eax
  000e7	8b 83 78 0e 00
	00		 mov	 eax, DWORD PTR [ebx+3704]
  000ed	8d 4b 77	 lea	 ecx, DWORD PTR [ebx+119]
  000f0	51		 push	 ecx
  000f1	0f bf 4c 07 08	 movsx	 ecx, WORD PTR [edi+eax+8]
  000f6	8d 53 6c	 lea	 edx, DWORD PTR [ebx+108]
  000f9	52		 push	 edx
  000fa	51		 push	 ecx
  000fb	68 00 00 00 00	 push	 OFFSET ??_C@_0HL@DJPNJNMN@?$FLDevilSquare?0?$CFd?$FN?5?$FL?$CFs?$FN?$FL?$CFs?$FN?5CBMix?5@
  00100	ff 15 00 00 00
	00		 call	 DWORD PTR ?LogAddTD@@3P6AXPADZZA ; LogAddTD
  00106	83 c4 5c	 add	 esp, 92			; 0000005cH
$LN3@LogDQChaos:

; 527  : 	BYTE ExOption[MAX_EXOPTION_SIZE];
; 528  : 
; 529  : 	for ( int n=0;n<CHAOS_BOX_SIZE;n++)

  00109	ff 45 f0	 inc	 DWORD PTR _n$217769[ebp]
  0010c	81 c7 d4 00 00
	00		 add	 edi, 212		; 000000d4H
  00112	81 ff 80 1a 00
	00		 cmp	 edi, 6784		; 00001a80H
  00118	0f 8c 02 ff ff
	ff		 jl	 $LL4@LogDQChaos

; 544  : 		}
; 545  : 	}
; 546  : }

  0011e	8b 4d fc	 mov	 ecx, DWORD PTR __$ArrayPad$[ebp]
  00121	5f		 pop	 edi
  00122	5e		 pop	 esi
  00123	33 cd		 xor	 ecx, ebp
  00125	5b		 pop	 ebx
  00126	e8 00 00 00 00	 call	 @__security_check_cookie@4
  0012b	8b e5		 mov	 esp, ebp
  0012d	5d		 pop	 ebp
  0012e	c2 04 00	 ret	 4
?LogDQChaosItem@CMixSystem@@QAEXPAUOBJECTSTRUCT@@@Z ENDP ; CMixSystem::LogDQChaosItem
_TEXT	ENDS
PUBLIC	??_C@_0CA@IANBADIL@?$FLDevilSquare?$FN?5DQItems?5Not?5Found?$AA@ ; `string'
PUBLIC	??_C@_0CH@EJJKJEAB@?$FLDevilSquare?$FN?5Charm?5Of?5Luck?5Coun@ ; `string'
PUBLIC	??_C@_0CG@FFFDDFEO@?$FLDevilSquare?$FN?5DiffLevel?5DQItems?5@ ; `string'
PUBLIC	??_C@_0CC@LINAPAPC@?$FLDevilSquare?$FN?5Other?5DQItems?5Foun@ ; `string'
PUBLIC	??_C@_0CF@MGDMILOL@?$FLDevilSquare?$FN?5Search?5DevilSquare@ ; `string'
PUBLIC	?CheckDevilSquareItem@CMixSystem@@QAEHPAUOBJECTSTRUCT@@AAH1@Z ; CMixSystem::CheckDevilSquareItem
;	COMDAT ??_C@_0CA@IANBADIL@?$FLDevilSquare?$FN?5DQItems?5Not?5Found?$AA@
CONST	SEGMENT
??_C@_0CA@IANBADIL@?$FLDevilSquare?$FN?5DQItems?5Not?5Found?$AA@ DB '[Dev'
	DB	'ilSquare] DQItems Not Found', 00H		; `string'
CONST	ENDS
;	COMDAT ??_C@_0CH@EJJKJEAB@?$FLDevilSquare?$FN?5Charm?5Of?5Luck?5Coun@
CONST	SEGMENT
??_C@_0CH@EJJKJEAB@?$FLDevilSquare?$FN?5Charm?5Of?5Luck?5Coun@ DB '[Devil'
	DB	'Square] Charm Of Luck Count Over', 00H	; `string'
CONST	ENDS
;	COMDAT ??_C@_0CG@FFFDDFEO@?$FLDevilSquare?$FN?5DiffLevel?5DQItems?5@
CONST	SEGMENT
??_C@_0CG@FFFDDFEO@?$FLDevilSquare?$FN?5DiffLevel?5DQItems?5@ DB '[DevilS'
	DB	'quare] DiffLevel DQItems Found', 00H	; `string'
CONST	ENDS
;	COMDAT ??_C@_0CC@LINAPAPC@?$FLDevilSquare?$FN?5Other?5DQItems?5Foun@
CONST	SEGMENT
??_C@_0CC@LINAPAPC@?$FLDevilSquare?$FN?5Other?5DQItems?5Foun@ DB '[DevilS'
	DB	'quare] Other DQItems Found', 00H		; `string'
CONST	ENDS
;	COMDAT ??_C@_0CF@MGDMILOL@?$FLDevilSquare?$FN?5Search?5DevilSquare@
CONST	SEGMENT
??_C@_0CF@MGDMILOL@?$FLDevilSquare?$FN?5Search?5DevilSquare@ DB '[DevilSq'
	DB	'uare] Search DevilSquareItem', 00H		; `string'
; Function compile flags: /Ogtp
CONST	ENDS
;	COMDAT ?CheckDevilSquareItem@CMixSystem@@QAEHPAUOBJECTSTRUCT@@AAH1@Z
_TEXT	SEGMENT
tv309 = -32						; size = 4
_this$ = -28						; size = 4
_bChaoseGem$ = -24					; size = 4
_bCharmOfLuckOver$ = -20				; size = 4
_FoundOtherItem$ = -16					; size = 4
_bKeyOfDevil$ = -12					; size = 4
_bEyeOfDevil$ = -8					; size = 4
_bLevelCheck$ = -4					; size = 4
_lpObj$ = 8						; size = 4
_iCharmOfLuckCount$ = 12				; size = 4
_eventitemcount$ = 12					; size = 4
_itemlevel$ = 16					; size = 4
?CheckDevilSquareItem@CMixSystem@@QAEHPAUOBJECTSTRUCT@@AAH1@Z PROC ; CMixSystem::CheckDevilSquareItem, COMDAT
; _this$ = ecx

; 549  : {

  00000	55		 push	 ebp
  00001	8b ec		 mov	 ebp, esp
  00003	83 ec 20	 sub	 esp, 32			; 00000020H
  00006	53		 push	 ebx

; 550  : 	BOOL bChaoseGem = FALSE;
; 551  : 	BOOL bEyeOfDevil = FALSE;
; 552  : 	BOOL bKeyOfDevil = FALSE;
; 553  : 	eventitemcount = 0;

  00007	8b 5d 0c	 mov	 ebx, DWORD PTR _eventitemcount$[ebp]
  0000a	56		 push	 esi
  0000b	33 f6		 xor	 esi, esi
  0000d	57		 push	 edi

; 554  : 	BOOL FoundOtherItem = FALSE;
; 555  : 	int level = -1;
; 556  : 	BOOL bLevelCheck = FALSE;
; 557  : 	int iCharmOfLuckCount = 0;
; 558  : 	BOOL bCharmOfLuckOver = FALSE;
; 559  : 
; 560  : 	LogAdd("[DevilSquare] Search DevilSquareItem");

  0000e	68 00 00 00 00	 push	 OFFSET ??_C@_0CF@MGDMILOL@?$FLDevilSquare?$FN?5Search?5DevilSquare@
  00013	89 4d e4	 mov	 DWORD PTR _this$[ebp], ecx
  00016	89 75 e8	 mov	 DWORD PTR _bChaoseGem$[ebp], esi
  00019	89 75 f8	 mov	 DWORD PTR _bEyeOfDevil$[ebp], esi
  0001c	89 75 f4	 mov	 DWORD PTR _bKeyOfDevil$[ebp], esi
  0001f	89 33		 mov	 DWORD PTR [ebx], esi
  00021	89 75 f0	 mov	 DWORD PTR _FoundOtherItem$[ebp], esi
  00024	83 cf ff	 or	 edi, -1
  00027	89 75 fc	 mov	 DWORD PTR _bLevelCheck$[ebp], esi
  0002a	89 75 0c	 mov	 DWORD PTR _iCharmOfLuckCount$[ebp], esi
  0002d	89 75 ec	 mov	 DWORD PTR _bCharmOfLuckOver$[ebp], esi
  00030	ff 15 00 00 00
	00		 call	 DWORD PTR ?LogAdd@@3P6AXPADZZA ; LogAdd
  00036	83 c4 04	 add	 esp, 4
  00039	8d a4 24 00 00
	00 00		 npad	 7
$LL24@CheckDevil:

; 563  : 	{
; 564  : 		if ( lpObj->pChaosBox[n].IsItem() == TRUE )

  00040	8b 45 08	 mov	 eax, DWORD PTR _lpObj$[ebp]
  00043	8b 88 78 0e 00
	00		 mov	 ecx, DWORD PTR [eax+3704]
  00049	03 ce		 add	 ecx, esi
  0004b	e8 00 00 00 00	 call	 ?IsItem@CItem@@QAEHXZ	; CItem::IsItem
  00050	83 f8 01	 cmp	 eax, 1
  00053	0f 85 9c 00 00
	00		 jne	 $LN23@CheckDevil

; 565  : 		{
; 566  : 			if ( lpObj->pChaosBox[n].m_Type == ITEMGET(12,15) )	// Chaos

  00059	8b 4d 08	 mov	 ecx, DWORD PTR _lpObj$[ebp]
  0005c	8b 81 78 0e 00
	00		 mov	 eax, DWORD PTR [ecx+3704]
  00062	03 c6		 add	 eax, esi
  00064	89 45 e0	 mov	 DWORD PTR tv309[ebp], eax
  00067	0f b7 40 06	 movzx	 eax, WORD PTR [eax+6]
  0006b	ba 0f 18 00 00	 mov	 edx, 6159		; 0000180fH
  00070	66 3b c2	 cmp	 ax, dx
  00073	75 09		 jne	 SHORT $LN20@CheckDevil

; 567  : 			{
; 568  : 				bChaoseGem = TRUE;

  00075	c7 45 e8 01 00
	00 00		 mov	 DWORD PTR _bChaoseGem$[ebp], 1
  0007c	eb 77		 jmp	 SHORT $LN23@CheckDevil
$LN20@CheckDevil:

; 569  : 			}
; 570  : 			else if ( lpObj->pChaosBox[n].m_Type == ITEMGET(14,17) )	// Eye

  0007e	ba 11 1c 00 00	 mov	 edx, 7185		; 00001c11H
  00083	66 3b c2	 cmp	 ax, dx
  00086	75 22		 jne	 SHORT $LN18@CheckDevil

; 571  : 			{
; 572  : 				eventitemcount +=1;

  00088	ba 01 00 00 00	 mov	 edx, 1

; 573  : 				bEyeOfDevil = TRUE;

  0008d	89 55 f8	 mov	 DWORD PTR _bEyeOfDevil$[ebp], edx
$LN33@CheckDevil:

; 574  : 
; 575  : 				if ( level != lpObj->pChaosBox[n].m_Level )

  00090	01 13		 add	 DWORD PTR [ebx], edx
  00092	8b 81 78 0e 00
	00		 mov	 eax, DWORD PTR [ecx+3704]
  00098	0f bf 44 30 08	 movsx	 eax, WORD PTR [eax+esi+8]
  0009d	3b f8		 cmp	 edi, eax
  0009f	74 54		 je	 SHORT $LN23@CheckDevil

; 576  : 				{
; 577  : 					if ( level == -1 )

  000a1	83 ff ff	 cmp	 edi, -1
  000a4	75 18		 jne	 SHORT $LN11@CheckDevil

; 578  : 					{
; 579  : 						level = lpObj->pChaosBox[n].m_Level;

  000a6	8b f8		 mov	 edi, eax

; 580  : 					}
; 581  : 					else

  000a8	eb 4b		 jmp	 SHORT $LN23@CheckDevil
$LN18@CheckDevil:

; 582  : 					{
; 583  : 						bLevelCheck = TRUE;
; 584  : 					}
; 585  : 				}
; 586  : 			}
; 587  : 			else if ( lpObj->pChaosBox[n].m_Type == ITEMGET(14,18) )	// Key

  000aa	ba 12 1c 00 00	 mov	 edx, 7186		; 00001c12H
  000af	66 3b c2	 cmp	 ax, dx
  000b2	75 0f		 jne	 SHORT $LN13@CheckDevil

; 588  : 			{
; 589  : 				eventitemcount +=1;

  000b4	ba 01 00 00 00	 mov	 edx, 1

; 590  : 				bKeyOfDevil = TRUE;

  000b9	89 55 f4	 mov	 DWORD PTR _bKeyOfDevil$[ebp], edx

; 591  : 
; 592  : 				if ( level != lpObj->pChaosBox[n].m_Level )
; 593  : 				{
; 594  : 					if ( level == -1 )
; 595  : 					{
; 596  : 						level = lpObj->pChaosBox[n].m_Level;
; 597  : 					}
; 598  : 					else

  000bc	eb d2		 jmp	 SHORT $LN33@CheckDevil
$LN11@CheckDevil:

; 599  : 					{
; 600  : 						bLevelCheck = TRUE;

  000be	89 55 fc	 mov	 DWORD PTR _bLevelCheck$[ebp], edx

; 601  : 					}
; 602  : 				}
; 603  : 			}

  000c1	eb 32		 jmp	 SHORT $LN23@CheckDevil
$LN13@CheckDevil:

; 604  : 			else if ( lpObj->pChaosBox[n].m_Type == ITEMGET(14,53) )	// Charm Of Luck

  000c3	b9 35 1c 00 00	 mov	 ecx, 7221		; 00001c35H
  000c8	66 3b c1	 cmp	 ax, cx
  000cb	75 21		 jne	 SHORT $LN8@CheckDevil

; 605  : 			{
; 606  : 				iCharmOfLuckCount += (int)lpObj->pChaosBox[n].m_Durability;

  000cd	8b 55 e0	 mov	 edx, DWORD PTR tv309[ebp]
  000d0	d9 42 24	 fld	 DWORD PTR [edx+36]
  000d3	e8 00 00 00 00	 call	 __ftol2_sse
  000d8	8b 4d 0c	 mov	 ecx, DWORD PTR _iCharmOfLuckCount$[ebp]
  000db	03 c8		 add	 ecx, eax
  000dd	89 4d 0c	 mov	 DWORD PTR _iCharmOfLuckCount$[ebp], ecx

; 607  : 
; 608  : 				if ( iCharmOfLuckCount > 10 )

  000e0	83 f9 0a	 cmp	 ecx, 10			; 0000000aH
  000e3	7e 10		 jle	 SHORT $LN23@CheckDevil

; 609  : 				{
; 610  : 					bCharmOfLuckOver = TRUE;

  000e5	c7 45 ec 01 00
	00 00		 mov	 DWORD PTR _bCharmOfLuckOver$[ebp], 1

; 611  : 				}
; 612  : 			}
; 613  : 			else

  000ec	eb 07		 jmp	 SHORT $LN23@CheckDevil
$LN8@CheckDevil:

; 614  : 			{
; 615  : 				FoundOtherItem = TRUE;

  000ee	c7 45 f0 01 00
	00 00		 mov	 DWORD PTR _FoundOtherItem$[ebp], 1
$LN23@CheckDevil:

; 561  : 
; 562  : 	for ( int n=0;n<CHAOS_BOX_SIZE;n++)

  000f5	81 c6 d4 00 00
	00		 add	 esi, 212		; 000000d4H
  000fb	81 fe 80 1a 00
	00		 cmp	 esi, 6784		; 00001a80H
  00101	0f 8c 39 ff ff
	ff		 jl	 $LL24@CheckDevil

; 616  : 			}
; 617  : 		}
; 618  : 	}
; 619  : 
; 620  : 	itemlevel = level;
; 621  : 	lpObj->ChaosSuccessRate = iCharmOfLuckCount;
; 622  : 
; 623  : 	if ( FoundOtherItem != FALSE )

  00107	83 7d f0 00	 cmp	 DWORD PTR _FoundOtherItem$[ebp], 0
  0010b	8b 45 10	 mov	 eax, DWORD PTR _itemlevel$[ebp]
  0010e	8b 4d 0c	 mov	 ecx, DWORD PTR _iCharmOfLuckCount$[ebp]
  00111	89 38		 mov	 DWORD PTR [eax], edi
  00113	8b 45 08	 mov	 eax, DWORD PTR _lpObj$[ebp]
  00116	5f		 pop	 edi
  00117	5e		 pop	 esi
  00118	89 88 84 0e 00
	00		 mov	 DWORD PTR [eax+3716], ecx
  0011e	5b		 pop	 ebx
  0011f	74 16		 je	 SHORT $LN5@CheckDevil

; 624  : 	{
; 625  : 		LogAdd("[DevilSquare] Other DQItems Found");

  00121	68 00 00 00 00	 push	 OFFSET ??_C@_0CC@LINAPAPC@?$FLDevilSquare?$FN?5Other?5DQItems?5Foun@

; 651  : 	}
; 652  : 
; 653  : 	LogAdd("[DevilSquare] DQItems Not Found");

  00126	ff 15 00 00 00
	00		 call	 DWORD PTR ?LogAdd@@3P6AXPADZZA ; LogAdd
  0012c	83 c4 04	 add	 esp, 4

; 654  : 
; 655  : 	return 0;

  0012f	33 c0		 xor	 eax, eax

; 656  : }

  00131	8b e5		 mov	 esp, ebp
  00133	5d		 pop	 ebp
  00134	c2 0c 00	 ret	 12			; 0000000cH
$LN5@CheckDevil:

; 626  : 		return 0;
; 627  : 	}
; 628  : 
; 629  : 	if ( bLevelCheck != FALSE )

  00137	83 7d fc 00	 cmp	 DWORD PTR _bLevelCheck$[ebp], 0
  0013b	74 19		 je	 SHORT $LN4@CheckDevil

; 630  : 	{
; 631  : 		LogAdd("[DevilSquare] DiffLevel DQItems Found");

  0013d	68 00 00 00 00	 push	 OFFSET ??_C@_0CG@FFFDDFEO@?$FLDevilSquare?$FN?5DiffLevel?5DQItems?5@
  00142	ff 15 00 00 00
	00		 call	 DWORD PTR ?LogAdd@@3P6AXPADZZA ; LogAdd
  00148	83 c4 04	 add	 esp, 4

; 632  : 		return 3;

  0014b	b8 03 00 00 00	 mov	 eax, 3

; 656  : }

  00150	8b e5		 mov	 esp, ebp
  00152	5d		 pop	 ebp
  00153	c2 0c 00	 ret	 12			; 0000000cH
$LN4@CheckDevil:

; 633  : 	}
; 634  : 
; 635  : 	if ( bCharmOfLuckOver == TRUE )

  00156	83 7d ec 01	 cmp	 DWORD PTR _bCharmOfLuckOver$[ebp], 1
  0015a	75 19		 jne	 SHORT $LN3@CheckDevil

; 636  : 	{
; 637  : 		LogAdd("[DevilSquare] Charm Of Luck Count Over");

  0015c	68 00 00 00 00	 push	 OFFSET ??_C@_0CH@EJJKJEAB@?$FLDevilSquare?$FN?5Charm?5Of?5Luck?5Coun@
  00161	ff 15 00 00 00
	00		 call	 DWORD PTR ?LogAdd@@3P6AXPADZZA ; LogAdd
  00167	83 c4 04	 add	 esp, 4

; 638  : 		return 4;

  0016a	b8 04 00 00 00	 mov	 eax, 4

; 656  : }

  0016f	8b e5		 mov	 esp, ebp
  00171	5d		 pop	 ebp
  00172	c2 0c 00	 ret	 12			; 0000000cH
$LN3@CheckDevil:

; 639  : 	}
; 640  : 
; 641  : 	if ( bChaoseGem != FALSE && bEyeOfDevil != FALSE && bKeyOfDevil != FALSE )

  00175	83 7d e8 00	 cmp	 DWORD PTR _bChaoseGem$[ebp], 0
  00179	74 20		 je	 SHORT $LN30@CheckDevil
  0017b	83 7d f8 00	 cmp	 DWORD PTR _bEyeOfDevil$[ebp], 0
  0017f	74 3a		 je	 SHORT $LN1@CheckDevil
  00181	83 7d f4 00	 cmp	 DWORD PTR _bKeyOfDevil$[ebp], 0
  00185	74 14		 je	 SHORT $LN30@CheckDevil

; 642  : 	{
; 643  : 		LogDQChaosItem(lpObj);

  00187	8b 4d e4	 mov	 ecx, DWORD PTR _this$[ebp]
  0018a	50		 push	 eax
  0018b	e8 00 00 00 00	 call	 ?LogDQChaosItem@CMixSystem@@QAEXPAUOBJECTSTRUCT@@@Z ; CMixSystem::LogDQChaosItem

; 644  : 		return 1;

  00190	b8 01 00 00 00	 mov	 eax, 1

; 656  : }

  00195	8b e5		 mov	 esp, ebp
  00197	5d		 pop	 ebp
  00198	c2 0c 00	 ret	 12			; 0000000cH
$LN30@CheckDevil:

; 645  : 	}
; 646  : 
; 647  : 	if ( bEyeOfDevil != FALSE && bKeyOfDevil != FALSE )

  0019b	83 7d f8 00	 cmp	 DWORD PTR _bEyeOfDevil$[ebp], 0
  0019f	74 1a		 je	 SHORT $LN1@CheckDevil
  001a1	83 7d f4 00	 cmp	 DWORD PTR _bKeyOfDevil$[ebp], 0
  001a5	74 14		 je	 SHORT $LN1@CheckDevil

; 648  : 	{
; 649  : 		LogDQChaosItem(lpObj);

  001a7	8b 4d e4	 mov	 ecx, DWORD PTR _this$[ebp]
  001aa	50		 push	 eax
  001ab	e8 00 00 00 00	 call	 ?LogDQChaosItem@CMixSystem@@QAEXPAUOBJECTSTRUCT@@@Z ; CMixSystem::LogDQChaosItem

; 650  : 		return 2;

  001b0	b8 02 00 00 00	 mov	 eax, 2

; 656  : }

  001b5	8b e5		 mov	 esp, ebp
  001b7	5d		 pop	 ebp
  001b8	c2 0c 00	 ret	 12			; 0000000cH
$LN1@CheckDevil:

; 651  : 	}
; 652  : 
; 653  : 	LogAdd("[DevilSquare] DQItems Not Found");

  001bb	68 00 00 00 00	 push	 OFFSET ??_C@_0CA@IANBADIL@?$FLDevilSquare?$FN?5DQItems?5Not?5Found?$AA@
  001c0	ff 15 00 00 00
	00		 call	 DWORD PTR ?LogAdd@@3P6AXPADZZA ; LogAdd
  001c6	83 c4 04	 add	 esp, 4

; 654  : 
; 655  : 	return 0;

  001c9	33 c0		 xor	 eax, eax

; 656  : }

  001cb	8b e5		 mov	 esp, ebp
  001cd	5d		 pop	 ebp
  001ce	c2 0c 00	 ret	 12			; 0000000cH
?CheckDevilSquareItem@CMixSystem@@QAEHPAUOBJECTSTRUCT@@AAH1@Z ENDP ; CMixSystem::CheckDevilSquareItem
_TEXT	ENDS
PUBLIC	??_C@_0DB@BMAIOAHL@?$FLDevilSquare?$FN?5?$FL?$CFs?$FN?$FL?$CFs?$FN?5Invalid?5D@ ; `string'
PUBLIC	??_C@_0DL@ODHCGDBD@?$FLDevilSquare?0?$CFd?$FN?5?$FL?$CFs?$FN?$FL?$CFs?$FN?5CBMix?5@ ; `string'
PUBLIC	??_C@_0DG@KKBIIBFP@?$FLDevilSquare?0?$CFd?$FN?5?$FL?$CFs?$FN?$FL?$CFs?$FN?5CBMix?5@ ; `string'
PUBLIC	??_C@_0EB@HHHNMGIM@?$FLDevilSquare?$FN?5?$FL?$CFs?$FN?$FL?$CFs?$FN?5CBMix?5Not@ ; `string'
PUBLIC	??_C@_0BO@MDACFBLC@?$FLDevilSquare?$FN?5Chaos?5Mix?5Start?$AA@ ; `string'
PUBLIC	__$ArrayPad$
PUBLIC	?DevilSquareEventChaosMix@CMixSystem@@QAEHPAUOBJECTSTRUCT@@HH@Z ; CMixSystem::DevilSquareEventChaosMix
EXTRN	?gObjInventoryCommit@@YAHH@Z:PROC		; gObjInventoryCommit
EXTRN	?FailedChaosMix@CAchievements@@QAEXH@Z:PROC	; CAchievements::FailedChaosMix
EXTRN	?GCUserChaosBoxSend@@YAXPAUOBJECTSTRUCT@@H@Z:PROC ; GCUserChaosBoxSend
EXTRN	?DestroyGIocp@@YAXXZ:PROC			; DestroyGIocp
EXTRN	?szAuthKey@@3PADA:BYTE				; szAuthKey
EXTRN	?GCMoneySend@@YAXHK@Z:PROC			; GCMoneySend
EXTRN	?AddTributeMoney@CCastleSiegeSync@@QAEXH@Z:PROC	; CCastleSiegeSync::AddTributeMoney
EXTRN	?SuccessChaosMix@CAchievements@@QAEXH@Z:PROC	; CAchievements::SuccessChaosMix
EXTRN	?g_Achievements@@3VCAchievements@@A:BYTE	; g_Achievements
EXTRN	?ItemSerialCreateSend@@YAXHEEEHEEEEEHEE@Z:PROC	; ItemSerialCreateSend
EXTRN	?GetPlusChaosRate@CCrywolfSync@@QAEHXZ:PROC	; CCrywolfSync::GetPlusChaosRate
EXTRN	?g_iCrywolfApplyMvpBenefit@@3HA:DWORD		; g_iCrywolfApplyMvpBenefit
EXTRN	?GetOccupationState@CCrywolfSync@@QAEHXZ:PROC	; CCrywolfSync::GetOccupationState
EXTRN	?g_CrywolfSync@@3VCCrywolfSync@@A:BYTE		; g_CrywolfSync
EXTRN	?GetTaxRateChaos@CCastleSiegeSync@@QAEHH@Z:PROC	; CCastleSiegeSync::GetTaxRateChaos
EXTRN	?g_CastleSiegeSync@@3VCCastleSiegeSync@@A:BYTE	; g_CastleSiegeSync
EXTRN	?gDQChaosSuccessRateLevel7@@3HA:DWORD		; gDQChaosSuccessRateLevel7
EXTRN	?gDQChaosSuccessRateLevel6@@3HA:DWORD		; gDQChaosSuccessRateLevel6
EXTRN	?gDQChaosSuccessRateLevel5@@3HA:DWORD		; gDQChaosSuccessRateLevel5
EXTRN	?gDQChaosSuccessRateLevel4@@3HA:DWORD		; gDQChaosSuccessRateLevel4
EXTRN	?gDQChaosSuccessRateLevel3@@3HA:DWORD		; gDQChaosSuccessRateLevel3
EXTRN	?gDQChaosSuccessRateLevel2@@3HA:DWORD		; gDQChaosSuccessRateLevel2
EXTRN	?gDQChaosSuccessRateLevel1@@3HA:DWORD		; gDQChaosSuccessRateLevel1
EXTRN	?DataSend@@YAHHPAEK@Z:PROC			; DataSend
EXTRN	?PHeadSetB@@YAXPAEEH@Z:PROC			; PHeadSetB
EXTRN	__alldiv:PROC
;	COMDAT ??_C@_0DB@BMAIOAHL@?$FLDevilSquare?$FN?5?$FL?$CFs?$FN?$FL?$CFs?$FN?5Invalid?5D@
CONST	SEGMENT
??_C@_0DB@BMAIOAHL@?$FLDevilSquare?$FN?5?$FL?$CFs?$FN?$FL?$CFs?$FN?5Invalid?5D@ DB '['
	DB	'DevilSquare] [%s][%s] Invalid DQItem Level [%d]', 00H ; `string'
CONST	ENDS
;	COMDAT ??_C@_0DL@ODHCGDBD@?$FLDevilSquare?0?$CFd?$FN?5?$FL?$CFs?$FN?$FL?$CFs?$FN?5CBMix?5@
CONST	SEGMENT
??_C@_0DL@ODHCGDBD@?$FLDevilSquare?0?$CFd?$FN?5?$FL?$CFs?$FN?$FL?$CFs?$FN?5CBMix?5@ DB '['
	DB	'DevilSquare,%d] [%s][%s] CBMix Success Rate:%d Money : %d', 00H ; `string'
CONST	ENDS
;	COMDAT ??_C@_0DG@KKBIIBFP@?$FLDevilSquare?0?$CFd?$FN?5?$FL?$CFs?$FN?$FL?$CFs?$FN?5CBMix?5@
CONST	SEGMENT
??_C@_0DG@KKBIIBFP@?$FLDevilSquare?0?$CFd?$FN?5?$FL?$CFs?$FN?$FL?$CFs?$FN?5CBMix?5@ DB '['
	DB	'DevilSquare,%d] [%s][%s] CBMix Fail %d Money : %d-%d', 00H ; `string'
CONST	ENDS
;	COMDAT ??_C@_0EB@HHHNMGIM@?$FLDevilSquare?$FN?5?$FL?$CFs?$FN?$FL?$CFs?$FN?5CBMix?5Not@
CONST	SEGMENT
??_C@_0EB@HHHNMGIM@?$FLDevilSquare?$FN?5?$FL?$CFs?$FN?$FL?$CFs?$FN?5CBMix?5Not@ DB '['
	DB	'DevilSquare] [%s][%s] CBMix Not Enough Money [%d] need zen [%'
	DB	'd]', 00H					; `string'
CONST	ENDS
;	COMDAT ??_C@_0BO@MDACFBLC@?$FLDevilSquare?$FN?5Chaos?5Mix?5Start?$AA@
CONST	SEGMENT
??_C@_0BO@MDACFBLC@?$FLDevilSquare?$FN?5Chaos?5Mix?5Start?$AA@ DB '[Devil'
	DB	'Square] Chaos Mix Start', 00H		; `string'
; Function compile flags: /Ogtp
CONST	ENDS
;	COMDAT ?DevilSquareEventChaosMix@CMixSystem@@QAEHPAUOBJECTSTRUCT@@HH@Z
_TEXT	SEGMENT
_this$ = -36						; size = 4
_iCharmOfLuckCount$ = -32				; size = 4
_fail$ = -28						; size = 4
_aIndex$ = -24						; size = 4
_pMsg$ = -20						; size = 16
__$ArrayPad$ = -4					; size = 4
_lpObj$ = 8						; size = 4
_bCheckType$ = 12					; size = 4
_iItemLevel$ = 16					; size = 4
?DevilSquareEventChaosMix@CMixSystem@@QAEHPAUOBJECTSTRUCT@@HH@Z PROC ; CMixSystem::DevilSquareEventChaosMix, COMDAT
; _this$ = ecx

; 659  : {

  00000	55		 push	 ebp
  00001	8b ec		 mov	 ebp, esp
  00003	83 ec 24	 sub	 esp, 36			; 00000024H
  00006	a1 00 00 00 00	 mov	 eax, DWORD PTR ___security_cookie
  0000b	33 c5		 xor	 eax, ebp
  0000d	89 45 fc	 mov	 DWORD PTR __$ArrayPad$[ebp], eax
  00010	53		 push	 ebx
  00011	56		 push	 esi
  00012	8b 75 08	 mov	 esi, DWORD PTR _lpObj$[ebp]
  00015	57		 push	 edi

; 660  : 	BOOL fail = TRUE;
; 661  : 	int aIndex = lpObj->m_Index;

  00016	8b 3e		 mov	 edi, DWORD PTR [esi]

; 662  : 	PMSG_CHAOSMIXRESULT pMsg;
; 663  : 
; 664  : 	PHeadSetB((LPBYTE)&pMsg.h, 0x86, sizeof(PMSG_CHAOSMIXRESULT));

  00018	6a 10		 push	 16			; 00000010H
  0001a	8d 45 ec	 lea	 eax, DWORD PTR _pMsg$[ebp]
  0001d	68 86 00 00 00	 push	 134			; 00000086H
  00022	bb 01 00 00 00	 mov	 ebx, 1
  00027	50		 push	 eax
  00028	89 4d dc	 mov	 DWORD PTR _this$[ebp], ecx
  0002b	89 5d e4	 mov	 DWORD PTR _fail$[ebp], ebx
  0002e	89 7d e8	 mov	 DWORD PTR _aIndex$[ebp], edi
  00031	e8 00 00 00 00	 call	 ?PHeadSetB@@YAXPAEEH@Z	; PHeadSetB

; 665  : 	pMsg.Result = CB_ERROR;
; 666  : 	lpObj->ChaosLock = TRUE;
; 667  : 
; 668  : 	LogAddTD("[DevilSquare] Chaos Mix Start");

  00036	68 00 00 00 00	 push	 OFFSET ??_C@_0BO@MDACFBLC@?$FLDevilSquare?$FN?5Chaos?5Mix?5Start?$AA@
  0003b	c6 45 ef 00	 mov	 BYTE PTR _pMsg$[ebp+3], 0
  0003f	89 9e 88 0e 00
	00		 mov	 DWORD PTR [esi+3720], ebx
  00045	ff 15 00 00 00
	00		 call	 DWORD PTR ?LogAddTD@@3P6AXPADZZA ; LogAddTD

; 669  : 
; 670  : 	INT nChaosNeedMoney = 0;
; 671  : 
; 672  : 	int iCharmOfLuckCount = 0;
; 673  : 	iCharmOfLuckCount = lpObj->ChaosSuccessRate;

  0004b	8b 86 84 0e 00
	00		 mov	 eax, DWORD PTR [esi+3716]
  00051	83 c4 10	 add	 esp, 16			; 00000010H
  00054	89 45 e0	 mov	 DWORD PTR _iCharmOfLuckCount$[ebp], eax

; 674  : 
; 675  : 	if ( iCharmOfLuckCount > 10 )

  00057	83 f8 0a	 cmp	 eax, 10			; 0000000aH
  0005a	7e 20		 jle	 SHORT $LN24@DevilSquar

; 676  : 	{
; 677  : 		pMsg.Result = 0xF0;
; 678  : 		lpObj->ChaosLock = FALSE;
; 679  : 		DataSend(aIndex, (LPBYTE)&pMsg, pMsg.h.size);

  0005c	0f b6 4d ed	 movzx	 ecx, BYTE PTR _pMsg$[ebp+1]
  00060	51		 push	 ecx
  00061	8d 55 ec	 lea	 edx, DWORD PTR _pMsg$[ebp]
  00064	52		 push	 edx
  00065	57		 push	 edi
  00066	c6 45 ef f0	 mov	 BYTE PTR _pMsg$[ebp+3], 240 ; 000000f0H
  0006a	c7 86 88 0e 00
	00 00 00 00 00	 mov	 DWORD PTR [esi+3720], 0
  00074	e8 00 00 00 00	 call	 ?DataSend@@YAHHPAEK@Z	; DataSend
  00079	83 c4 0c	 add	 esp, 12			; 0000000cH
$LN24@DevilSquar:

; 680  : 	}
; 681  : 
; 682  : 	switch ( iItemLevel )

  0007c	8b 45 10	 mov	 eax, DWORD PTR _iItemLevel$[ebp]
  0007f	83 f8 07	 cmp	 eax, 7
  00082	0f 87 73 02 00
	00		 ja	 $LN10@DevilSquar
  00088	ff 24 85 00 00
	00 00		 jmp	 DWORD PTR $LN27@DevilSquar[eax*4]
$LN18@DevilSquar:

; 683  : 	{
; 684  : 		case 0:
; 685  : 			lpObj->ChaosSuccessRate = 60;

  0008f	c7 86 84 0e 00
	00 3c 00 00 00	 mov	 DWORD PTR [esi+3716], 60 ; 0000003cH

; 686  : 			nChaosNeedMoney = 100000;

  00099	bf a0 86 01 00	 mov	 edi, 100000		; 000186a0H

; 687  : 			break;

  0009e	eb 74		 jmp	 SHORT $LN19@DevilSquar
$LN17@DevilSquar:

; 688  : 
; 689  : 		case 1:
; 690  : 			lpObj->ChaosSuccessRate = gDQChaosSuccessRateLevel1;

  000a0	a1 00 00 00 00	 mov	 eax, DWORD PTR ?gDQChaosSuccessRateLevel1@@3HA ; gDQChaosSuccessRateLevel1

; 691  : 			nChaosNeedMoney = 100000;

  000a5	bf a0 86 01 00	 mov	 edi, 100000		; 000186a0H

; 692  : 			break;

  000aa	eb 62		 jmp	 SHORT $LN25@DevilSquar
$LN16@DevilSquar:

; 693  : 
; 694  : 		case 2:
; 695  : 			lpObj->ChaosSuccessRate = gDQChaosSuccessRateLevel2;

  000ac	8b 0d 00 00 00
	00		 mov	 ecx, DWORD PTR ?gDQChaosSuccessRateLevel2@@3HA ; gDQChaosSuccessRateLevel2
  000b2	89 8e 84 0e 00
	00		 mov	 DWORD PTR [esi+3716], ecx

; 696  : 			nChaosNeedMoney = 200000;

  000b8	bf 40 0d 03 00	 mov	 edi, 200000		; 00030d40H

; 697  : 			break;

  000bd	eb 55		 jmp	 SHORT $LN19@DevilSquar
$LN15@DevilSquar:

; 698  : 
; 699  : 		case 3:
; 700  : 			lpObj->ChaosSuccessRate = gDQChaosSuccessRateLevel3;

  000bf	8b 15 00 00 00
	00		 mov	 edx, DWORD PTR ?gDQChaosSuccessRateLevel3@@3HA ; gDQChaosSuccessRateLevel3
  000c5	89 96 84 0e 00
	00		 mov	 DWORD PTR [esi+3716], edx

; 701  : 			nChaosNeedMoney = 400000;

  000cb	bf 80 1a 06 00	 mov	 edi, 400000		; 00061a80H

; 702  : 			break;

  000d0	eb 42		 jmp	 SHORT $LN19@DevilSquar
$LN14@DevilSquar:

; 703  : 
; 704  : 		case 4:
; 705  : 			lpObj->ChaosSuccessRate = gDQChaosSuccessRateLevel4;

  000d2	a1 00 00 00 00	 mov	 eax, DWORD PTR ?gDQChaosSuccessRateLevel4@@3HA ; gDQChaosSuccessRateLevel4

; 706  : 			nChaosNeedMoney = 700000;

  000d7	bf 60 ae 0a 00	 mov	 edi, 700000		; 000aae60H

; 707  : 			break;

  000dc	eb 30		 jmp	 SHORT $LN25@DevilSquar
$LN13@DevilSquar:

; 708  : 
; 709  : 		case 5:
; 710  : 			lpObj->ChaosSuccessRate = gDQChaosSuccessRateLevel5;

  000de	8b 0d 00 00 00
	00		 mov	 ecx, DWORD PTR ?gDQChaosSuccessRateLevel5@@3HA ; gDQChaosSuccessRateLevel5
  000e4	89 8e 84 0e 00
	00		 mov	 DWORD PTR [esi+3716], ecx

; 711  : 			nChaosNeedMoney = 1100000;

  000ea	bf e0 c8 10 00	 mov	 edi, 1100000		; 0010c8e0H

; 712  : 			break;

  000ef	eb 23		 jmp	 SHORT $LN19@DevilSquar
$LN12@DevilSquar:

; 713  : 
; 714  : 		case 6:
; 715  : 			lpObj->ChaosSuccessRate = gDQChaosSuccessRateLevel6;

  000f1	8b 15 00 00 00
	00		 mov	 edx, DWORD PTR ?gDQChaosSuccessRateLevel6@@3HA ; gDQChaosSuccessRateLevel6
  000f7	89 96 84 0e 00
	00		 mov	 DWORD PTR [esi+3716], edx

; 716  : 			nChaosNeedMoney = 1600000;

  000fd	bf 00 6a 18 00	 mov	 edi, 1600000		; 00186a00H

; 717  : 			break;

  00102	eb 10		 jmp	 SHORT $LN19@DevilSquar
$LN11@DevilSquar:

; 718  : 
; 719  : 		case 7: //Master
; 720  : 			lpObj->ChaosSuccessRate = gDQChaosSuccessRateLevel7;

  00104	a1 00 00 00 00	 mov	 eax, DWORD PTR ?gDQChaosSuccessRateLevel7@@3HA ; gDQChaosSuccessRateLevel7

; 721  : 			nChaosNeedMoney = 2000000;

  00109	bf 80 84 1e 00	 mov	 edi, 2000000		; 001e8480H
$LN25@DevilSquar:

; 718  : 
; 719  : 		case 7: //Master
; 720  : 			lpObj->ChaosSuccessRate = gDQChaosSuccessRateLevel7;

  0010e	89 86 84 0e 00
	00		 mov	 DWORD PTR [esi+3716], eax
$LN19@DevilSquar:

; 731  : 			break;
; 732  : 	}
; 733  : 
; 734  : 	int iChaosTaxMoney = (int)((__int64)nChaosNeedMoney * (__int64)g_CastleSiegeSync.GetTaxRateChaos(lpObj->m_Index) / (__int64)100);

  00114	8b 0e		 mov	 ecx, DWORD PTR [esi]
  00116	51		 push	 ecx
  00117	b9 00 00 00 00	 mov	 ecx, OFFSET ?g_CastleSiegeSync@@3VCCastleSiegeSync@@A ; g_CastleSiegeSync
  0011c	e8 00 00 00 00	 call	 ?GetTaxRateChaos@CCastleSiegeSync@@QAEHH@Z ; CCastleSiegeSync::GetTaxRateChaos
  00121	f7 ef		 imul	 edi
  00123	6a 00		 push	 0
  00125	6a 64		 push	 100			; 00000064H
  00127	52		 push	 edx
  00128	50		 push	 eax
  00129	e8 00 00 00 00	 call	 __alldiv
  0012e	8b d8		 mov	 ebx, eax

; 735  : 
; 736  : 	if ( iChaosTaxMoney < 0 )

  00130	85 db		 test	 ebx, ebx
  00132	79 02		 jns	 SHORT $LN9@DevilSquar

; 737  : 	{
; 738  : 		iChaosTaxMoney = 0;

  00134	33 db		 xor	 ebx, ebx
$LN9@DevilSquar:

; 739  : 	}
; 740  : 
; 741  : 	nChaosNeedMoney += iChaosTaxMoney;
; 742  : 
; 743  : 		nChaosNeedMoney += lpObj->m_AddMixMoney;

  00136	8b 96 20 28 00
	00		 mov	 edx, DWORD PTR [esi+10272]
  0013c	03 d3		 add	 edx, ebx
  0013e	03 fa		 add	 edi, edx

; 744  : 
; 745  : 	if ( nChaosNeedMoney < 0 )

  00140	79 02		 jns	 SHORT $LN8@DevilSquar

; 746  : 	{
; 747  : 		nChaosNeedMoney = 0;

  00142	33 ff		 xor	 edi, edi
$LN8@DevilSquar:

; 748  : 	}
; 749  : 
; 750  : 	if ( (lpObj->Money - nChaosNeedMoney) < 0 )

  00144	8b 86 f0 00 00
	00		 mov	 eax, DWORD PTR [esi+240]
  0014a	8b c8		 mov	 ecx, eax
  0014c	2b cf		 sub	 ecx, edi
  0014e	79 38		 jns	 SHORT $LN7@DevilSquar

; 751  : 	{
; 752  : 		LogAddTD("[DevilSquare] [%s][%s] CBMix Not Enough Money [%d] need zen [%d]", lpObj->AccountID, lpObj->Name, lpObj->Money, nChaosNeedMoney);

  00150	57		 push	 edi
  00151	50		 push	 eax
  00152	8d 56 77	 lea	 edx, DWORD PTR [esi+119]
  00155	52		 push	 edx
  00156	8d 46 6c	 lea	 eax, DWORD PTR [esi+108]
  00159	50		 push	 eax
  0015a	68 00 00 00 00	 push	 OFFSET ??_C@_0EB@HHHNMGIM@?$FLDevilSquare?$FN?5?$FL?$CFs?$FN?$FL?$CFs?$FN?5CBMix?5Not@
  0015f	ff 15 00 00 00
	00		 call	 DWORD PTR ?LogAddTD@@3P6AXPADZZA ; LogAddTD

; 753  : 		pMsg.Result = CB_NOT_ENOUGH_ZEN;
; 754  : 		DataSend(aIndex, (LPBYTE)&pMsg, pMsg.h.size);

  00165	0f b6 4d ed	 movzx	 ecx, BYTE PTR _pMsg$[ebp+1]
  00169	8b 45 e8	 mov	 eax, DWORD PTR _aIndex$[ebp]
  0016c	51		 push	 ecx
  0016d	8d 55 ec	 lea	 edx, DWORD PTR _pMsg$[ebp]
  00170	52		 push	 edx
  00171	50		 push	 eax
  00172	c6 45 ef 02	 mov	 BYTE PTR _pMsg$[ebp+3], 2
  00176	e8 00 00 00 00	 call	 ?DataSend@@YAHHPAEK@Z	; DataSend
  0017b	83 c4 20	 add	 esp, 32			; 00000020H

; 755  : 		lpObj->ChaosLock = FALSE;
; 756  : 		return 1;

  0017e	b8 01 00 00 00	 mov	 eax, 1
  00183	e9 9f 01 00 00	 jmp	 $LN26@DevilSquar
$LN7@DevilSquar:

; 757  : 
; 758  : 	}
; 759  : 
; 760  : 	if ( g_CrywolfSync.GetOccupationState() == 0 && g_iCrywolfApplyMvpBenefit )

  00188	b9 00 00 00 00	 mov	 ecx, OFFSET ?g_CrywolfSync@@3VCCrywolfSync@@A ; g_CrywolfSync
  0018d	e8 00 00 00 00	 call	 ?GetOccupationState@CCrywolfSync@@QAEHXZ ; CCrywolfSync::GetOccupationState
  00192	85 c0		 test	 eax, eax
  00194	75 18		 jne	 SHORT $LN6@DevilSquar
  00196	39 05 00 00 00
	00		 cmp	 DWORD PTR ?g_iCrywolfApplyMvpBenefit@@3HA, eax ; g_iCrywolfApplyMvpBenefit
  0019c	74 10		 je	 SHORT $LN6@DevilSquar

; 761  : 	{	
; 762  : 		lpObj->ChaosSuccessRate += g_CrywolfSync.GetPlusChaosRate();

  0019e	b9 00 00 00 00	 mov	 ecx, OFFSET ?g_CrywolfSync@@3VCCrywolfSync@@A ; g_CrywolfSync
  001a3	e8 00 00 00 00	 call	 ?GetPlusChaosRate@CCrywolfSync@@QAEHXZ ; CCrywolfSync::GetPlusChaosRate
  001a8	01 86 84 0e 00
	00		 add	 DWORD PTR [esi+3716], eax
$LN6@DevilSquar:

; 763  : 	}
; 764  : 
; 765  : 	lpObj->ChaosSuccessRate += iCharmOfLuckCount;
; 766  : 
; 767  : 	lpObj->ChaosSuccessRate += lpObj->m_AddMixSuccessRate;

  001ae	8b 8e 24 28 00
	00		 mov	 ecx, DWORD PTR [esi+10276]
  001b4	03 4d e0	 add	 ecx, DWORD PTR _iCharmOfLuckCount$[ebp]
  001b7	01 8e 84 0e 00
	00		 add	 DWORD PTR [esi+3716], ecx

; 768  : 
; 769  : 
; 770  : 	int iRate = rand() % 100;

  001bd	e8 00 00 00 00	 call	 _rand
  001c2	99		 cdq
  001c3	b9 64 00 00 00	 mov	 ecx, 100		; 00000064H
  001c8	f7 f9		 idiv	 ecx

; 771  : 
; 772  : 	if ( bCheckType == TRUE )

  001ca	83 7d 0c 01	 cmp	 DWORD PTR _bCheckType$[ebp], 1
  001ce	75 47		 jne	 SHORT $LN4@DevilSquar

; 773  : 	{
; 774  : 		if ( iRate < lpObj->ChaosSuccessRate )

  001d0	3b 96 84 0e 00
	00		 cmp	 edx, DWORD PTR [esi+3716]
  001d6	7d 3f		 jge	 SHORT $LN4@DevilSquar

; 775  : 		{
; 776  : 			int DevilInv = ITEMGET(14,19);	// Devil Ticket
; 777  : 			ItemSerialCreateSend(lpObj->m_Index, -1, 0, 0, DevilInv, (BYTE)iItemLevel, 0, 0, 0, 0, -1, 0, 0);

  001d8	8b 55 10	 mov	 edx, DWORD PTR _iItemLevel$[ebp]
  001db	6a 00		 push	 0
  001dd	8b 06		 mov	 eax, DWORD PTR [esi]
  001df	6a 00		 push	 0
  001e1	6a ff		 push	 -1
  001e3	6a 00		 push	 0
  001e5	6a 00		 push	 0
  001e7	6a 00		 push	 0
  001e9	6a 00		 push	 0
  001eb	52		 push	 edx
  001ec	68 13 1c 00 00	 push	 7187			; 00001c13H
  001f1	6a 00		 push	 0
  001f3	6a 00		 push	 0
  001f5	68 ff 00 00 00	 push	 255			; 000000ffH
  001fa	50		 push	 eax
  001fb	e8 00 00 00 00	 call	 ?ItemSerialCreateSend@@YAXHEEEHEEEEEHEE@Z ; ItemSerialCreateSend

; 778  : #if(SYSTEM_ACHIEVEMENTS)
; 779  : 			g_Achievements.SuccessChaosMix(lpObj->m_Index);

  00200	8b 0e		 mov	 ecx, DWORD PTR [esi]
  00202	83 c4 34	 add	 esp, 52			; 00000034H
  00205	51		 push	 ecx
  00206	b9 00 00 00 00	 mov	 ecx, OFFSET ?g_Achievements@@3VCAchievements@@A ; g_Achievements
  0020b	e8 00 00 00 00	 call	 ?SuccessChaosMix@CAchievements@@QAEXH@Z ; CAchievements::SuccessChaosMix

; 780  : #endif
; 781  : 			fail = FALSE;

  00210	c7 45 e4 00 00
	00 00		 mov	 DWORD PTR _fail$[ebp], 0
$LN4@DevilSquar:

; 782  : 		}
; 783  : 	}
; 784  : 
; 785  : 	lpObj->Money -= nChaosNeedMoney;

  00217	29 be f0 00 00
	00		 sub	 DWORD PTR [esi+240], edi

; 786  : 	g_CastleSiegeSync.AddTributeMoney(iChaosTaxMoney);

  0021d	53		 push	 ebx
  0021e	b9 00 00 00 00	 mov	 ecx, OFFSET ?g_CastleSiegeSync@@3VCCastleSiegeSync@@A ; g_CastleSiegeSync
  00223	e8 00 00 00 00	 call	 ?AddTributeMoney@CCastleSiegeSync@@QAEXH@Z ; CCastleSiegeSync::AddTributeMoney

; 787  : 	GCMoneySend(lpObj->m_Index, lpObj->Money);

  00228	8b 96 f0 00 00
	00		 mov	 edx, DWORD PTR [esi+240]
  0022e	8b 06		 mov	 eax, DWORD PTR [esi]
  00230	52		 push	 edx
  00231	50		 push	 eax
  00232	e8 00 00 00 00	 call	 ?GCMoneySend@@YAXHK@Z	; GCMoneySend
  00237	83 c4 08	 add	 esp, 8

; 788  : 
; 789  : 	if ( szAuthKey[17] != AUTHKEY17 )

  0023a	80 3d 11 00 00
	00 a6		 cmp	 BYTE PTR ?szAuthKey@@3PADA+17, -90 ; ffffffa6H
  00241	74 05		 je	 SHORT $LN3@DevilSquar

; 790  : 	{
; 791  : 		::DestroyGIocp();

  00243	e8 00 00 00 00	 call	 ?DestroyGIocp@@YAXXZ	; DestroyGIocp
$LN3@DevilSquar:

; 792  : 	}
; 793  : 
; 794  : 	if ( fail == TRUE )

  00248	83 7d e4 01	 cmp	 DWORD PTR _fail$[ebp], 1
  0024c	75 68		 jne	 SHORT $LN2@DevilSquar

; 795  : 	{
; 796  : 		this->ChaosBoxInit(lpObj);

  0024e	8b 4d dc	 mov	 ecx, DWORD PTR _this$[ebp]
  00251	56		 push	 esi
  00252	e8 00 00 00 00	 call	 ?ChaosBoxInit@CMixSystem@@QAEHPAUOBJECTSTRUCT@@@Z ; CMixSystem::ChaosBoxInit

; 797  : 		GCUserChaosBoxSend(lpObj, 0);

  00257	6a 00		 push	 0
  00259	56		 push	 esi
  0025a	e8 00 00 00 00	 call	 ?GCUserChaosBoxSend@@YAXPAUOBJECTSTRUCT@@H@Z ; GCUserChaosBoxSend

; 798  : 		DataSend(aIndex, (LPBYTE)&pMsg, pMsg.h.size);

  0025f	0f b6 4d ed	 movzx	 ecx, BYTE PTR _pMsg$[ebp+1]
  00263	8b 45 e8	 mov	 eax, DWORD PTR _aIndex$[ebp]
  00266	51		 push	 ecx
  00267	8d 55 ec	 lea	 edx, DWORD PTR _pMsg$[ebp]
  0026a	52		 push	 edx
  0026b	50		 push	 eax
  0026c	e8 00 00 00 00	 call	 ?DataSend@@YAHHPAEK@Z	; DataSend

; 799  : #if(SYSTEM_ACHIEVEMENTS)
; 800  : 		g_Achievements.FailedChaosMix(lpObj->m_Index);

  00271	8b 0e		 mov	 ecx, DWORD PTR [esi]
  00273	83 c4 14	 add	 esp, 20			; 00000014H
  00276	51		 push	 ecx
  00277	b9 00 00 00 00	 mov	 ecx, OFFSET ?g_Achievements@@3VCAchievements@@A ; g_Achievements
  0027c	e8 00 00 00 00	 call	 ?FailedChaosMix@CAchievements@@QAEXH@Z ; CAchievements::FailedChaosMix

; 801  : #endif
; 802  : 		LogAddTD("[DevilSquare,%d] [%s][%s] CBMix Fail %d Money : %d-%d", iItemLevel, lpObj->AccountID, lpObj->Name, lpObj->ChaosSuccessRate, lpObj->Money, nChaosNeedMoney);

  00281	8b 96 f0 00 00
	00		 mov	 edx, DWORD PTR [esi+240]
  00287	8b 86 84 0e 00
	00		 mov	 eax, DWORD PTR [esi+3716]
  0028d	57		 push	 edi
  0028e	52		 push	 edx
  0028f	50		 push	 eax
  00290	8b 45 10	 mov	 eax, DWORD PTR _iItemLevel$[ebp]
  00293	8d 4e 77	 lea	 ecx, DWORD PTR [esi+119]
  00296	51		 push	 ecx
  00297	8d 56 6c	 lea	 edx, DWORD PTR [esi+108]
  0029a	52		 push	 edx
  0029b	50		 push	 eax
  0029c	68 00 00 00 00	 push	 OFFSET ??_C@_0DG@KKBIIBFP@?$FLDevilSquare?0?$CFd?$FN?5?$FL?$CFs?$FN?$FL?$CFs?$FN?5CBMix?5@
  002a1	ff 15 00 00 00
	00		 call	 DWORD PTR ?LogAddTD@@3P6AXPADZZA ; LogAddTD
  002a7	83 c4 1c	 add	 esp, 28			; 0000001cH

; 803  : 		lpObj->ChaosLock = FALSE;

  002aa	c7 86 88 0e 00
	00 00 00 00 00	 mov	 DWORD PTR [esi+3720], 0

; 804  : 	}
; 805  : 	else

  002b4	eb 22		 jmp	 SHORT $LN1@DevilSquar
$LN2@DevilSquar:

; 806  : 	{
; 807  : 		LogAddTD("[DevilSquare,%d] [%s][%s] CBMix Success Rate:%d Money : %d", iItemLevel, lpObj->AccountID, lpObj->Name, lpObj->ChaosSuccessRate, nChaosNeedMoney);

  002b6	8b 8e 84 0e 00
	00		 mov	 ecx, DWORD PTR [esi+3716]
  002bc	57		 push	 edi
  002bd	51		 push	 ecx
  002be	8b 4d 10	 mov	 ecx, DWORD PTR _iItemLevel$[ebp]
  002c1	8d 56 77	 lea	 edx, DWORD PTR [esi+119]
  002c4	52		 push	 edx
  002c5	8d 46 6c	 lea	 eax, DWORD PTR [esi+108]
  002c8	50		 push	 eax
  002c9	51		 push	 ecx
  002ca	68 00 00 00 00	 push	 OFFSET ??_C@_0DL@ODHCGDBD@?$FLDevilSquare?0?$CFd?$FN?5?$FL?$CFs?$FN?$FL?$CFs?$FN?5CBMix?5@
  002cf	ff 15 00 00 00
	00		 call	 DWORD PTR ?LogAddTD@@3P6AXPADZZA ; LogAddTD
  002d5	83 c4 18	 add	 esp, 24			; 00000018H
$LN1@DevilSquar:

; 808  : 	}
; 809  : 
; 810  : 	::gObjInventoryCommit(lpObj->m_Index);

  002d8	8b 16		 mov	 edx, DWORD PTR [esi]
  002da	52		 push	 edx
  002db	e8 00 00 00 00	 call	 ?gObjInventoryCommit@@YAHH@Z ; gObjInventoryCommit
  002e0	83 c4 04	 add	 esp, 4
  002e3	5f		 pop	 edi
  002e4	5e		 pop	 esi

; 811  : 
; 812  : 	return TRUE;

  002e5	b8 01 00 00 00	 mov	 eax, 1
  002ea	5b		 pop	 ebx

; 813  : }

  002eb	8b 4d fc	 mov	 ecx, DWORD PTR __$ArrayPad$[ebp]
  002ee	33 cd		 xor	 ecx, ebp
  002f0	e8 00 00 00 00	 call	 @__security_check_cookie@4
  002f5	8b e5		 mov	 esp, ebp
  002f7	5d		 pop	 ebp
  002f8	c2 0c 00	 ret	 12			; 0000000cH
$LN10@DevilSquar:

; 722  : 			break;
; 723  : 
; 724  : 		default:
; 725  : 			LogAdd("[DevilSquare] [%s][%s] Invalid DQItem Level [%d]", lpObj->AccountID, lpObj->Name, iItemLevel);

  002fb	50		 push	 eax
  002fc	8d 46 77	 lea	 eax, DWORD PTR [esi+119]
  002ff	50		 push	 eax
  00300	8d 4e 6c	 lea	 ecx, DWORD PTR [esi+108]
  00303	51		 push	 ecx
  00304	68 00 00 00 00	 push	 OFFSET ??_C@_0DB@BMAIOAHL@?$FLDevilSquare?$FN?5?$FL?$CFs?$FN?$FL?$CFs?$FN?5Invalid?5D@
  00309	ff 15 00 00 00
	00		 call	 DWORD PTR ?LogAdd@@3P6AXPADZZA ; LogAdd

; 726  : 
; 727  : 			pMsg.Result = CB_INVALID_ITEM_LEVEL;
; 728  : 			DataSend(aIndex, (LPBYTE)&pMsg, pMsg.h.size);

  0030f	0f b6 55 ed	 movzx	 edx, BYTE PTR _pMsg$[ebp+1]
  00313	52		 push	 edx
  00314	8d 45 ec	 lea	 eax, DWORD PTR _pMsg$[ebp]
  00317	50		 push	 eax
  00318	57		 push	 edi
  00319	c6 45 ef 08	 mov	 BYTE PTR _pMsg$[ebp+3], 8
  0031d	e8 00 00 00 00	 call	 ?DataSend@@YAHHPAEK@Z	; DataSend
  00322	83 c4 1c	 add	 esp, 28			; 0000001cH

; 729  : 			lpObj->ChaosLock = FALSE;
; 730  : 			return 1;

  00325	8b c3		 mov	 eax, ebx
$LN26@DevilSquar:

; 813  : }

  00327	8b 4d fc	 mov	 ecx, DWORD PTR __$ArrayPad$[ebp]
  0032a	5f		 pop	 edi
  0032b	c7 86 88 0e 00
	00 00 00 00 00	 mov	 DWORD PTR [esi+3720], 0
  00335	5e		 pop	 esi
  00336	33 cd		 xor	 ecx, ebp
  00338	5b		 pop	 ebx
  00339	e8 00 00 00 00	 call	 @__security_check_cookie@4
  0033e	8b e5		 mov	 esp, ebp
  00340	5d		 pop	 ebp
  00341	c2 0c 00	 ret	 12			; 0000000cH
$LN27@DevilSquar:
  00344	00 00 00 00	 DD	 $LN18@DevilSquar
  00348	00 00 00 00	 DD	 $LN17@DevilSquar
  0034c	00 00 00 00	 DD	 $LN16@DevilSquar
  00350	00 00 00 00	 DD	 $LN15@DevilSquar
  00354	00 00 00 00	 DD	 $LN14@DevilSquar
  00358	00 00 00 00	 DD	 $LN13@DevilSquar
  0035c	00 00 00 00	 DD	 $LN12@DevilSquar
  00360	00 00 00 00	 DD	 $LN11@DevilSquar
?DevilSquareEventChaosMix@CMixSystem@@QAEHPAUOBJECTSTRUCT@@HH@Z ENDP ; CMixSystem::DevilSquareEventChaosMix
_TEXT	ENDS
PUBLIC	??_C@_0DA@FMJGNMLI@?$FLDevilSquare?$FN?5Too?5many?5Devil?8s?5K@ ; `string'
PUBLIC	??_C@_0CK@JNMMBAIA@?$FLDevilSquare?$FN?5Charm?5Of?5Luck?5Over@ ; `string'
PUBLIC	??_C@_0CH@NMBMOEEC@?$FLDevilSquare?$FN?5Not?5Found?5Chaos?5Ge@ ; `string'
PUBLIC	??_C@_0DB@DMIHKADD@?$FLDevilSquare?$FN?5DiffLevel?5Devil?8s?5@ ; `string'
PUBLIC	__$ArrayPad$
PUBLIC	?DevilSquareItemChaosMix@CMixSystem@@QAEXPAUOBJECTSTRUCT@@@Z ; CMixSystem::DevilSquareItemChaosMix
EXTRN	?gDevilSquareEvent@@3HA:DWORD			; gDevilSquareEvent
;	COMDAT ??_C@_0DA@FMJGNMLI@?$FLDevilSquare?$FN?5Too?5many?5Devil?8s?5K@
CONST	SEGMENT
??_C@_0DA@FMJGNMLI@?$FLDevilSquare?$FN?5Too?5many?5Devil?8s?5K@ DB '[Devi'
	DB	'lSquare] Too many Devil''s Key or Eyes [%d]', 00H ; `string'
CONST	ENDS
;	COMDAT ??_C@_0CK@JNMMBAIA@?$FLDevilSquare?$FN?5Charm?5Of?5Luck?5Over@
CONST	SEGMENT
??_C@_0CK@JNMMBAIA@?$FLDevilSquare?$FN?5Charm?5Of?5Luck?5Over@ DB '[Devil'
	DB	'Square] Charm Of Luck Over 10% [%d]', 00H	; `string'
CONST	ENDS
;	COMDAT ??_C@_0CH@NMBMOEEC@?$FLDevilSquare?$FN?5Not?5Found?5Chaos?5Ge@
CONST	SEGMENT
??_C@_0CH@NMBMOEEC@?$FLDevilSquare?$FN?5Not?5Found?5Chaos?5Ge@ DB '[Devil'
	DB	'Square] Not Found Chaos Gem [%d]', 00H	; `string'
CONST	ENDS
;	COMDAT ??_C@_0DB@DMIHKADD@?$FLDevilSquare?$FN?5DiffLevel?5Devil?8s?5@
CONST	SEGMENT
??_C@_0DB@DMIHKADD@?$FLDevilSquare?$FN?5DiffLevel?5Devil?8s?5@ DB '[Devil'
	DB	'Square] DiffLevel Devil''s Key or Eyes [%d]', 00H ; `string'
; Function compile flags: /Ogtp
CONST	ENDS
;	COMDAT ?DevilSquareItemChaosMix@CMixSystem@@QAEXPAUOBJECTSTRUCT@@@Z
_TEXT	SEGMENT
_itemlevel$217884 = -32					; size = 4
_this$ = -28						; size = 4
_eventitemcount$217883 = -24				; size = 4
_pMsg$217879 = -20					; size = 16
__$ArrayPad$ = -4					; size = 4
_lpObj$ = 8						; size = 4
?DevilSquareItemChaosMix@CMixSystem@@QAEXPAUOBJECTSTRUCT@@@Z PROC ; CMixSystem::DevilSquareItemChaosMix, COMDAT
; _this$ = ecx

; 816  : {

  00000	55		 push	 ebp
  00001	8b ec		 mov	 ebp, esp
  00003	83 ec 20	 sub	 esp, 32			; 00000020H
  00006	a1 00 00 00 00	 mov	 eax, DWORD PTR ___security_cookie
  0000b	33 c5		 xor	 eax, ebp
  0000d	89 45 fc	 mov	 DWORD PTR __$ArrayPad$[ebp], eax
  00010	53		 push	 ebx
  00011	56		 push	 esi
  00012	8b 75 08	 mov	 esi, DWORD PTR _lpObj$[ebp]

; 817  : 	lpObj->ChaosLock = TRUE;
; 818  : //#if(GS_CASTLE==0)
; 819  : 	if ( gDevilSquareEvent != FALSE )

  00015	33 db		 xor	 ebx, ebx
  00017	c7 86 88 0e 00
	00 01 00 00 00	 mov	 DWORD PTR [esi+3720], 1
  00021	57		 push	 edi
  00022	89 4d e4	 mov	 DWORD PTR _this$[ebp], ecx
  00025	39 1d 00 00 00
	00		 cmp	 DWORD PTR ?gDevilSquareEvent@@3HA, ebx ; gDevilSquareEvent
  0002b	0f 84 35 01 00
	00		 je	 $LN1@DevilSquar@2

; 820  : //#endif
; 821  : 	{
; 822  : 		PMSG_CHAOSMIXRESULT pMsg;
; 823  : 		PHeadSetB((LPBYTE)&pMsg.h, 0x86, sizeof(PMSG_CHAOSMIXRESULT));

  00031	6a 10		 push	 16			; 00000010H
  00033	8d 45 ec	 lea	 eax, DWORD PTR _pMsg$217879[ebp]
  00036	68 86 00 00 00	 push	 134			; 00000086H
  0003b	50		 push	 eax
  0003c	e8 00 00 00 00	 call	 ?PHeadSetB@@YAXPAEEH@Z	; PHeadSetB

; 824  : 		pMsg.Result = CB_ERROR;
; 825  : 		int aIndex = lpObj->m_Index;

  00041	8b 3e		 mov	 edi, DWORD PTR [esi]
  00043	83 c4 0c	 add	 esp, 12			; 0000000cH

; 826  : 		int eventitemcount;
; 827  : 		int itemlevel;
; 828  : 		int Ret = this->CheckDevilSquareItem(lpObj, eventitemcount, itemlevel);

  00046	8d 4d e0	 lea	 ecx, DWORD PTR _itemlevel$217884[ebp]
  00049	51		 push	 ecx
  0004a	8b 4d e4	 mov	 ecx, DWORD PTR _this$[ebp]
  0004d	8d 55 e8	 lea	 edx, DWORD PTR _eventitemcount$217883[ebp]
  00050	52		 push	 edx
  00051	56		 push	 esi
  00052	88 5d ef	 mov	 BYTE PTR _pMsg$217879[ebp+3], bl
  00055	e8 00 00 00 00	 call	 ?CheckDevilSquareItem@CMixSystem@@QAEHPAUOBJECTSTRUCT@@AAH1@Z ; CMixSystem::CheckDevilSquareItem

; 829  : 
; 830  : 		if ( Ret != FALSE )

  0005a	3b c3		 cmp	 eax, ebx
  0005c	0f 84 e8 00 00
	00		 je	 $LN7@DevilSquar@2

; 831  : 		{
; 832  : 			if ( Ret == 3 )

  00062	83 f8 03	 cmp	 eax, 3
  00065	75 2a		 jne	 SHORT $LN6@DevilSquar@2

; 833  : 			{
; 834  : 				pMsg.Result = CB_INCORRECT_MIX_ITEMS;
; 835  : 				DataSend(aIndex, (LPBYTE)&pMsg, pMsg.h.size);

  00067	0f b6 45 ed	 movzx	 eax, BYTE PTR _pMsg$217879[ebp+1]
  0006b	50		 push	 eax
  0006c	8d 4d ec	 lea	 ecx, DWORD PTR _pMsg$217879[ebp]
  0006f	51		 push	 ecx
  00070	57		 push	 edi
  00071	c6 45 ef 07	 mov	 BYTE PTR _pMsg$217879[ebp+3], 7
  00075	e8 00 00 00 00	 call	 ?DataSend@@YAHHPAEK@Z	; DataSend

; 836  : 				LogAdd("[DevilSquare] DiffLevel Devil's Key or Eyes [%d]", eventitemcount);

  0007a	8b 55 e8	 mov	 edx, DWORD PTR _eventitemcount$217883[ebp]
  0007d	52		 push	 edx
  0007e	68 00 00 00 00	 push	 OFFSET ??_C@_0DB@DMIHKADD@?$FLDevilSquare?$FN?5DiffLevel?5Devil?8s?5@
  00083	ff 15 00 00 00
	00		 call	 DWORD PTR ?LogAdd@@3P6AXPADZZA ; LogAdd
  00089	83 c4 14	 add	 esp, 20			; 00000014H

; 837  : 				lpObj->ChaosLock = FALSE;
; 838  : 
; 839  : 				return;

  0008c	e9 d5 00 00 00	 jmp	 $LN1@DevilSquar@2
$LN6@DevilSquar@2:

; 840  : 			}
; 841  : 			
; 842  : 			if ( Ret == 2 )

  00091	83 f8 02	 cmp	 eax, 2
  00094	75 2a		 jne	 SHORT $LN5@DevilSquar@2

; 843  : 			{
; 844  : 				pMsg.Result = CB_INCORRECT_MIX_ITEMS;
; 845  : 				DataSend(aIndex, (LPBYTE)&pMsg, pMsg.h.size);

  00096	0f b6 45 ed	 movzx	 eax, BYTE PTR _pMsg$217879[ebp+1]
  0009a	50		 push	 eax
  0009b	8d 4d ec	 lea	 ecx, DWORD PTR _pMsg$217879[ebp]
  0009e	51		 push	 ecx
  0009f	57		 push	 edi
  000a0	c6 45 ef 07	 mov	 BYTE PTR _pMsg$217879[ebp+3], 7
  000a4	e8 00 00 00 00	 call	 ?DataSend@@YAHHPAEK@Z	; DataSend

; 846  : 				LogAdd("[DevilSquare] Not Found Chaos Gem [%d]", eventitemcount);

  000a9	8b 55 e8	 mov	 edx, DWORD PTR _eventitemcount$217883[ebp]
  000ac	52		 push	 edx
  000ad	68 00 00 00 00	 push	 OFFSET ??_C@_0CH@NMBMOEEC@?$FLDevilSquare?$FN?5Not?5Found?5Chaos?5Ge@
  000b2	ff 15 00 00 00
	00		 call	 DWORD PTR ?LogAdd@@3P6AXPADZZA ; LogAdd
  000b8	83 c4 14	 add	 esp, 20			; 00000014H

; 847  : 				lpObj->ChaosLock = FALSE;
; 848  : 				
; 849  : 				return;

  000bb	e9 a6 00 00 00	 jmp	 $LN1@DevilSquar@2
$LN5@DevilSquar@2:

; 850  : 			}
; 851  : 
; 852  : 			if ( Ret == 4 )

  000c0	83 f8 04	 cmp	 eax, 4
  000c3	75 27		 jne	 SHORT $LN4@DevilSquar@2

; 853  : 			{
; 854  : 				pMsg.Result = 0xF0;
; 855  : 				DataSend(aIndex, (LPBYTE)&pMsg, pMsg.h.size);

  000c5	0f b6 45 ed	 movzx	 eax, BYTE PTR _pMsg$217879[ebp+1]
  000c9	50		 push	 eax
  000ca	8d 4d ec	 lea	 ecx, DWORD PTR _pMsg$217879[ebp]
  000cd	51		 push	 ecx
  000ce	57		 push	 edi
  000cf	c6 45 ef f0	 mov	 BYTE PTR _pMsg$217879[ebp+3], 240 ; 000000f0H
  000d3	e8 00 00 00 00	 call	 ?DataSend@@YAHHPAEK@Z	; DataSend

; 856  : 				LogAdd("[DevilSquare] Charm Of Luck Over 10% [%d]", eventitemcount);

  000d8	8b 55 e8	 mov	 edx, DWORD PTR _eventitemcount$217883[ebp]
  000db	52		 push	 edx
  000dc	68 00 00 00 00	 push	 OFFSET ??_C@_0CK@JNMMBAIA@?$FLDevilSquare?$FN?5Charm?5Of?5Luck?5Over@
  000e1	ff 15 00 00 00
	00		 call	 DWORD PTR ?LogAdd@@3P6AXPADZZA ; LogAdd
  000e7	83 c4 14	 add	 esp, 20			; 00000014H

; 857  : 				lpObj->ChaosLock = FALSE;
; 858  : 				
; 859  : 				return;

  000ea	eb 7a		 jmp	 SHORT $LN1@DevilSquar@2
$LN4@DevilSquar@2:

; 860  : 			}
; 861  : 
; 862  : 			
; 863  : 			if ( eventitemcount > 2 )

  000ec	83 7d e8 02	 cmp	 DWORD PTR _eventitemcount$217883[ebp], 2
  000f0	7e 27		 jle	 SHORT $LN3@DevilSquar@2

; 864  : 			{
; 865  : 				pMsg.Result = CB_TOO_MANY_ITEMS;
; 866  : 				DataSend(aIndex, (LPBYTE)&pMsg, pMsg.h.size);

  000f2	0f b6 45 ed	 movzx	 eax, BYTE PTR _pMsg$217879[ebp+1]
  000f6	50		 push	 eax
  000f7	8d 4d ec	 lea	 ecx, DWORD PTR _pMsg$217879[ebp]
  000fa	51		 push	 ecx
  000fb	57		 push	 edi
  000fc	c6 45 ef 03	 mov	 BYTE PTR _pMsg$217879[ebp+3], 3
  00100	e8 00 00 00 00	 call	 ?DataSend@@YAHHPAEK@Z	; DataSend

; 867  : 				LogAdd("[DevilSquare] Too many Devil's Key or Eyes [%d]", eventitemcount);

  00105	8b 55 e8	 mov	 edx, DWORD PTR _eventitemcount$217883[ebp]
  00108	52		 push	 edx
  00109	68 00 00 00 00	 push	 OFFSET ??_C@_0DA@FMJGNMLI@?$FLDevilSquare?$FN?5Too?5many?5Devil?8s?5K@
  0010e	ff 15 00 00 00
	00		 call	 DWORD PTR ?LogAdd@@3P6AXPADZZA ; LogAdd
  00114	83 c4 14	 add	 esp, 20			; 00000014H

; 868  : 				lpObj->ChaosLock = FALSE;
; 869  : 
; 870  : 				return;

  00117	eb 4d		 jmp	 SHORT $LN1@DevilSquar@2
$LN3@DevilSquar@2:

; 871  : 			}
; 872  : 
; 873  : 			if ( lpObj->Level < 10 )

  00119	66 83 be be 00
	00 00 0a	 cmp	 WORD PTR [esi+190], 10	; 0000000aH
  00121	7d 06		 jge	 SHORT $LN2@DevilSquar@2

; 874  : 			{
; 875  : 				pMsg.Result = CB_LOW_LEVEL_USER;

  00123	c6 45 ef 04	 mov	 BYTE PTR _pMsg$217879[ebp+3], 4

; 876  : 				DataSend(aIndex, (LPBYTE)&pMsg, pMsg.h.size);
; 877  : 				lpObj->ChaosLock = FALSE;
; 878  : 
; 879  : 				return;

  00127	eb 2b		 jmp	 SHORT $LN11@DevilSquar@2
$LN2@DevilSquar@2:

; 880  : 			}
; 881  : 
; 882  : 			this->DevilSquareEventChaosMix(lpObj, Ret, itemlevel);

  00129	8b 55 e0	 mov	 edx, DWORD PTR _itemlevel$217884[ebp]
  0012c	8b 4d e4	 mov	 ecx, DWORD PTR _this$[ebp]
  0012f	52		 push	 edx
  00130	50		 push	 eax
  00131	56		 push	 esi
  00132	e8 00 00 00 00	 call	 ?DevilSquareEventChaosMix@CMixSystem@@QAEHPAUOBJECTSTRUCT@@HH@Z ; CMixSystem::DevilSquareEventChaosMix
  00137	5f		 pop	 edi
  00138	5e		 pop	 esi
  00139	5b		 pop	 ebx

; 890  : 			lpObj->ChaosLock = FALSE;
; 891  : 
; 892  : 			return;
; 893  : 		}
; 894  : 	}
; 895  : 
; 896  : 	lpObj->ChaosLock = FALSE;
; 897  : }

  0013a	8b 4d fc	 mov	 ecx, DWORD PTR __$ArrayPad$[ebp]
  0013d	33 cd		 xor	 ecx, ebp
  0013f	e8 00 00 00 00	 call	 @__security_check_cookie@4
  00144	8b e5		 mov	 esp, ebp
  00146	5d		 pop	 ebp
  00147	c2 04 00	 ret	 4
$LN7@DevilSquar@2:

; 883  : 			return;
; 884  : 		}
; 885  : 		
; 886  : 		if ( eventitemcount > 1 )

  0014a	83 7d e8 01	 cmp	 DWORD PTR _eventitemcount$217883[ebp], 1
  0014e	7e 16		 jle	 SHORT $LN1@DevilSquar@2

; 887  : 		{
; 888  : 			pMsg.Result = CB_LACKING_MIX_ITEMS;

  00150	c6 45 ef 06	 mov	 BYTE PTR _pMsg$217879[ebp+3], 6
$LN11@DevilSquar@2:

; 889  : 			DataSend(aIndex, (LPBYTE)&pMsg, pMsg.h.size);

  00154	0f b6 45 ed	 movzx	 eax, BYTE PTR _pMsg$217879[ebp+1]
  00158	50		 push	 eax
  00159	8d 4d ec	 lea	 ecx, DWORD PTR _pMsg$217879[ebp]
  0015c	51		 push	 ecx
  0015d	57		 push	 edi
  0015e	e8 00 00 00 00	 call	 ?DataSend@@YAHHPAEK@Z	; DataSend
  00163	83 c4 0c	 add	 esp, 12			; 0000000cH
$LN1@DevilSquar@2:

; 890  : 			lpObj->ChaosLock = FALSE;
; 891  : 
; 892  : 			return;
; 893  : 		}
; 894  : 	}
; 895  : 
; 896  : 	lpObj->ChaosLock = FALSE;
; 897  : }

  00166	8b 4d fc	 mov	 ecx, DWORD PTR __$ArrayPad$[ebp]
  00169	5f		 pop	 edi
  0016a	89 9e 88 0e 00
	00		 mov	 DWORD PTR [esi+3720], ebx
  00170	5e		 pop	 esi
  00171	33 cd		 xor	 ecx, ebp
  00173	5b		 pop	 ebx
  00174	e8 00 00 00 00	 call	 @__security_check_cookie@4
  00179	8b e5		 mov	 esp, ebp
  0017b	5d		 pop	 ebp
  0017c	c2 04 00	 ret	 4
?DevilSquareItemChaosMix@CMixSystem@@QAEXPAUOBJECTSTRUCT@@@Z ENDP ; CMixSystem::DevilSquareItemChaosMix
_TEXT	ENDS
PUBLIC	??_C@_0HO@CHNLGIIN@?$FLPlusItemLevel?0?$CFd?$FN?5?$FL?$CFs?$FN?$FL?$CFs?$FN?5CBMi@ ; `string'
PUBLIC	__$ArrayPad$
PUBLIC	?LogPlusItemLevelChaosItem@CMixSystem@@QAEXPAUOBJECTSTRUCT@@H@Z ; CMixSystem::LogPlusItemLevelChaosItem
;	COMDAT ??_C@_0HO@CHNLGIIN@?$FLPlusItemLevel?0?$CFd?$FN?5?$FL?$CFs?$FN?$FL?$CFs?$FN?5CBMi@
CONST	SEGMENT
??_C@_0HO@CHNLGIIN@?$FLPlusItemLevel?0?$CFd?$FN?5?$FL?$CFs?$FN?$FL?$CFs?$FN?5CBMi@ DB '['
	DB	'PlusItemLevel,%d] [%s][%s] CBMix [%d,%s,%d,%d,%d,%d]serial:[%'
	DB	'u][%d] Ex:[%d,%d,%d,%d,%d,%d,%d] Set:[%d] 380Ex:[%d] HO:[%d,%'
	DB	'd]', 00H					; `string'
; Function compile flags: /Ogtp
CONST	ENDS
;	COMDAT ?LogPlusItemLevelChaosItem@CMixSystem@@QAEXPAUOBJECTSTRUCT@@H@Z
_TEXT	SEGMENT
_n$217910 = -20						; size = 4
_iMixLevel$ = -16					; size = 4
_ExOption$ = -12					; size = 8
__$ArrayPad$ = -4					; size = 4
_lpObj$ = 8						; size = 4
_iPlusMixLevel$ = 12					; size = 4
?LogPlusItemLevelChaosItem@CMixSystem@@QAEXPAUOBJECTSTRUCT@@H@Z PROC ; CMixSystem::LogPlusItemLevelChaosItem, COMDAT
; _this$ = ecx

; 900  : {

  00000	55		 push	 ebp
  00001	8b ec		 mov	 ebp, esp
  00003	83 ec 14	 sub	 esp, 20			; 00000014H
  00006	a1 00 00 00 00	 mov	 eax, DWORD PTR ___security_cookie
  0000b	33 c5		 xor	 eax, ebp
  0000d	89 45 fc	 mov	 DWORD PTR __$ArrayPad$[ebp], eax
  00010	53		 push	 ebx
  00011	56		 push	 esi

; 901  : 	int iMixLevel = 0;

  00012	33 db		 xor	 ebx, ebx
  00014	57		 push	 edi
  00015	8b 7d 08	 mov	 edi, DWORD PTR _lpObj$[ebp]
  00018	89 5d f0	 mov	 DWORD PTR _iMixLevel$[ebp], ebx

; 902  : 	BYTE ExOption[MAX_EXOPTION_SIZE];
; 903  : 
; 904  : 	for ( int n=0;n<CHAOS_BOX_SIZE;n++)

  0001b	89 5d ec	 mov	 DWORD PTR _n$217910[ebp], ebx
  0001e	8b ff		 npad	 2
$LL15@LogPlusIte:

; 905  : 	{
; 906  : 		if ( lpObj->pChaosBox[n].IsItem() == TRUE )

  00020	8b 8f 78 0e 00
	00		 mov	 ecx, DWORD PTR [edi+3704]
  00026	03 cb		 add	 ecx, ebx
  00028	e8 00 00 00 00	 call	 ?IsItem@CItem@@QAEHXZ	; CItem::IsItem
  0002d	83 f8 01	 cmp	 eax, 1
  00030	0f 85 20 01 00
	00		 jne	 $LN14@LogPlusIte

; 907  : 		{
; 908  : 			::ItemIsBufExOption(ExOption, &lpObj->pChaosBox[n]);

  00036	8b 87 78 0e 00
	00		 mov	 eax, DWORD PTR [edi+3704]
  0003c	03 c3		 add	 eax, ebx
  0003e	50		 push	 eax
  0003f	8d 4d f4	 lea	 ecx, DWORD PTR _ExOption$[ebp]
  00042	51		 push	 ecx
  00043	e8 00 00 00 00	 call	 ?ItemIsBufExOption@@YAXPAEPAVCItem@@@Z ; ItemIsBufExOption

; 909  : 
; 910  : 			if ( iPlusMixLevel == 3 )

  00048	8b 45 0c	 mov	 eax, DWORD PTR _iPlusMixLevel$[ebp]
  0004b	83 c4 08	 add	 esp, 8
  0004e	83 f8 03	 cmp	 eax, 3
  00051	75 09		 jne	 SHORT $LN11@LogPlusIte

; 911  : 				iMixLevel = 1;

  00053	c7 45 f0 01 00
	00 00		 mov	 DWORD PTR _iMixLevel$[ebp], 1
  0005a	eb 44		 jmp	 SHORT $LN1@LogPlusIte
$LN11@LogPlusIte:

; 912  : 			else if ( iPlusMixLevel == 4 )

  0005c	83 f8 04	 cmp	 eax, 4
  0005f	75 09		 jne	 SHORT $LN9@LogPlusIte

; 913  : 				iMixLevel = 2;

  00061	c7 45 f0 02 00
	00 00		 mov	 DWORD PTR _iMixLevel$[ebp], 2
  00068	eb 36		 jmp	 SHORT $LN1@LogPlusIte
$LN9@LogPlusIte:

; 914  : 			else if ( iPlusMixLevel == 22 )

  0006a	83 f8 16	 cmp	 eax, 22			; 00000016H
  0006d	75 09		 jne	 SHORT $LN7@LogPlusIte

; 915  : 				iMixLevel = 3;

  0006f	c7 45 f0 03 00
	00 00		 mov	 DWORD PTR _iMixLevel$[ebp], 3
  00076	eb 28		 jmp	 SHORT $LN1@LogPlusIte
$LN7@LogPlusIte:

; 916  : 			else if ( iPlusMixLevel == 23 )

  00078	83 f8 17	 cmp	 eax, 23			; 00000017H
  0007b	75 09		 jne	 SHORT $LN5@LogPlusIte

; 917  : 				iMixLevel = 4;

  0007d	c7 45 f0 04 00
	00 00		 mov	 DWORD PTR _iMixLevel$[ebp], 4
  00084	eb 1a		 jmp	 SHORT $LN1@LogPlusIte
$LN5@LogPlusIte:

; 918  : 			else if ( iPlusMixLevel == 49 )	//updated 1.01.00

  00086	83 f8 31	 cmp	 eax, 49			; 00000031H
  00089	75 09		 jne	 SHORT $LN3@LogPlusIte

; 919  : 				iMixLevel = 5;

  0008b	c7 45 f0 05 00
	00 00		 mov	 DWORD PTR _iMixLevel$[ebp], 5
  00092	eb 0c		 jmp	 SHORT $LN1@LogPlusIte
$LN3@LogPlusIte:

; 920  : 			else if ( iPlusMixLevel == 50 )

  00094	83 f8 32	 cmp	 eax, 50			; 00000032H
  00097	75 07		 jne	 SHORT $LN1@LogPlusIte

; 921  : 				iMixLevel = 6;

  00099	c7 45 f0 06 00
	00 00		 mov	 DWORD PTR _iMixLevel$[ebp], 6
$LN1@LogPlusIte:

; 922  : 
; 923  : 			LogAddTD("[PlusItemLevel,%d] [%s][%s] CBMix [%d,%s,%d,%d,%d,%d]serial:[%u][%d] Ex:[%d,%d,%d,%d,%d,%d,%d] Set:[%d] 380Ex:[%d] HO:[%d,%d]", iMixLevel,
; 924  : 				lpObj->AccountID, lpObj->Name, n, lpObj->pChaosBox[n].GetName(), lpObj->pChaosBox[n].m_Level,
; 925  : 				lpObj->pChaosBox[n].m_Option1, lpObj->pChaosBox[n].m_Option2, lpObj->pChaosBox[n].m_Option3, 
; 926  : 				lpObj->pChaosBox[n].m_Number, (int)lpObj->pChaosBox[n].m_Durability, 
; 927  : 				ExOption[0], ExOption[1], ExOption[2], ExOption[3], ExOption[4], ExOption[5], ExOption[6], lpObj->pChaosBox[n].m_SetOption,
; 928  : 				lpObj->pChaosBox[n].m_ItemOptionEx >> 7,
; 929  : 				g_kJewelOfHarmonySystem.GetItemOptionLevel(&lpObj->pChaosBox[n]),
; 930  : 				g_kJewelOfHarmonySystem.GetItemStrengthenOption(&lpObj->pChaosBox[n]));

  000a0	8b 97 78 0e 00
	00		 mov	 edx, DWORD PTR [edi+3704]
  000a6	8d 34 13	 lea	 esi, DWORD PTR [ebx+edx]
  000a9	03 d3		 add	 edx, ebx
  000ab	52		 push	 edx
  000ac	b9 00 00 00 00	 mov	 ecx, OFFSET ?g_kJewelOfHarmonySystem@@3VCJewelOfHarmonySystem@@A ; g_kJewelOfHarmonySystem
  000b1	e8 00 00 00 00	 call	 ?GetItemStrengthenOption@CJewelOfHarmonySystem@@QAEEPAVCItem@@@Z ; CJewelOfHarmonySystem::GetItemStrengthenOption
  000b6	8b 97 78 0e 00
	00		 mov	 edx, DWORD PTR [edi+3704]
  000bc	0f b6 c8	 movzx	 ecx, al
  000bf	51		 push	 ecx
  000c0	03 d3		 add	 edx, ebx
  000c2	52		 push	 edx
  000c3	b9 00 00 00 00	 mov	 ecx, OFFSET ?g_kJewelOfHarmonySystem@@3VCJewelOfHarmonySystem@@A ; g_kJewelOfHarmonySystem
  000c8	e8 00 00 00 00	 call	 ?GetItemOptionLevel@CJewelOfHarmonySystem@@QAEEPAVCItem@@@Z ; CJewelOfHarmonySystem::GetItemOptionLevel
  000cd	0f b6 8e ca 00
	00 00		 movzx	 ecx, BYTE PTR [esi+202]
  000d4	d9 46 24	 fld	 DWORD PTR [esi+36]
  000d7	0f b6 96 ae 00
	00 00		 movzx	 edx, BYTE PTR [esi+174]
  000de	0f b6 c0	 movzx	 eax, al
  000e1	50		 push	 eax
  000e2	0f b6 45 fa	 movzx	 eax, BYTE PTR _ExOption$[ebp+6]
  000e6	c1 e9 07	 shr	 ecx, 7
  000e9	51		 push	 ecx
  000ea	0f b6 4d f9	 movzx	 ecx, BYTE PTR _ExOption$[ebp+5]
  000ee	52		 push	 edx
  000ef	0f b6 55 f8	 movzx	 edx, BYTE PTR _ExOption$[ebp+4]
  000f3	50		 push	 eax
  000f4	0f b6 45 f7	 movzx	 eax, BYTE PTR _ExOption$[ebp+3]
  000f8	51		 push	 ecx
  000f9	0f b6 4d f6	 movzx	 ecx, BYTE PTR _ExOption$[ebp+2]
  000fd	52		 push	 edx
  000fe	0f b6 55 f5	 movzx	 edx, BYTE PTR _ExOption$[ebp+1]
  00102	50		 push	 eax
  00103	0f b6 45 f4	 movzx	 eax, BYTE PTR _ExOption$[ebp]
  00107	51		 push	 ecx
  00108	52		 push	 edx
  00109	50		 push	 eax
  0010a	e8 00 00 00 00	 call	 __ftol2_sse
  0010f	8b 0e		 mov	 ecx, DWORD PTR [esi]
  00111	0f b6 96 96 00
	00 00		 movzx	 edx, BYTE PTR [esi+150]
  00118	50		 push	 eax
  00119	0f b6 86 95 00
	00 00		 movzx	 eax, BYTE PTR [esi+149]
  00120	51		 push	 ecx
  00121	0f b6 8e 94 00
	00 00		 movzx	 ecx, BYTE PTR [esi+148]
  00128	52		 push	 edx
  00129	0f bf 56 08	 movsx	 edx, WORD PTR [esi+8]
  0012d	50		 push	 eax
  0012e	51		 push	 ecx
  0012f	52		 push	 edx
  00130	8b ce		 mov	 ecx, esi
  00132	e8 00 00 00 00	 call	 ?GetName@CItem@@QAEPADXZ ; CItem::GetName
  00137	50		 push	 eax
  00138	8b 45 ec	 mov	 eax, DWORD PTR _n$217910[ebp]
  0013b	50		 push	 eax
  0013c	8b 45 f0	 mov	 eax, DWORD PTR _iMixLevel$[ebp]
  0013f	8d 4f 77	 lea	 ecx, DWORD PTR [edi+119]
  00142	51		 push	 ecx
  00143	8d 57 6c	 lea	 edx, DWORD PTR [edi+108]
  00146	52		 push	 edx
  00147	50		 push	 eax
  00148	68 00 00 00 00	 push	 OFFSET ??_C@_0HO@CHNLGIIN@?$FLPlusItemLevel?0?$CFd?$FN?5?$FL?$CFs?$FN?$FL?$CFs?$FN?5CBMi@
  0014d	ff 15 00 00 00
	00		 call	 DWORD PTR ?LogAddTD@@3P6AXPADZZA ; LogAddTD
  00153	83 c4 5c	 add	 esp, 92			; 0000005cH
$LN14@LogPlusIte:

; 902  : 	BYTE ExOption[MAX_EXOPTION_SIZE];
; 903  : 
; 904  : 	for ( int n=0;n<CHAOS_BOX_SIZE;n++)

  00156	ff 45 ec	 inc	 DWORD PTR _n$217910[ebp]
  00159	81 c3 d4 00 00
	00		 add	 ebx, 212		; 000000d4H
  0015f	81 fb 80 1a 00
	00		 cmp	 ebx, 6784		; 00001a80H
  00165	0f 8c b5 fe ff
	ff		 jl	 $LL15@LogPlusIte

; 931  : 		}
; 932  : 	}
; 933  : }

  0016b	8b 4d fc	 mov	 ecx, DWORD PTR __$ArrayPad$[ebp]
  0016e	5f		 pop	 edi
  0016f	5e		 pop	 esi
  00170	33 cd		 xor	 ecx, ebp
  00172	5b		 pop	 ebx
  00173	e8 00 00 00 00	 call	 @__security_check_cookie@4
  00178	8b e5		 mov	 esp, ebp
  0017a	5d		 pop	 ebp
  0017b	c2 08 00	 ret	 8
?LogPlusItemLevelChaosItem@CMixSystem@@QAEXPAUOBJECTSTRUCT@@H@Z ENDP ; CMixSystem::LogPlusItemLevelChaosItem
_TEXT	ENDS
PUBLIC	??_C@_0IF@FONACAKJ@?$FL?$CFs?$FN?5?$FL?$CFs?$FN?$FL?$CFs?$FN?5CBMix?5?$FL?$CFd?0?$CFs?0?$CFd?0?$CFd@ ; `string'
PUBLIC	_sLogType$GSCopy$
PUBLIC	__$ArrayPad$
PUBLIC	?LogChaosItem@CMixSystem@@QAEXPAUOBJECTSTRUCT@@PAD@Z ; CMixSystem::LogChaosItem
;	COMDAT ??_C@_0IF@FONACAKJ@?$FL?$CFs?$FN?5?$FL?$CFs?$FN?$FL?$CFs?$FN?5CBMix?5?$FL?$CFd?0?$CFs?0?$CFd?0?$CFd@
CONST	SEGMENT
??_C@_0IF@FONACAKJ@?$FL?$CFs?$FN?5?$FL?$CFs?$FN?$FL?$CFs?$FN?5CBMix?5?$FL?$CFd?0?$CFs?0?$CFd?0?$CFd@ DB '['
	DB	'%s] [%s][%s] CBMix [%d,%s,%d,%d,%d,%d]serial:[%u][%d] Ex:[%d,'
	DB	'%d,%d,%d,%d,%d,%d] Set:[%d] 380:[%d] HO:[%d,%d] Socket[%d,%d,'
	DB	'%d,%d,%d]', 00H				; `string'
; Function compile flags: /Ogtp
CONST	ENDS
;	COMDAT ?LogChaosItem@CMixSystem@@QAEXPAUOBJECTSTRUCT@@PAD@Z
_TEXT	SEGMENT
_sLogType$GSCopy$ = -20					; size = 4
_n$217934 = -16						; size = 4
_ExOption$ = -12					; size = 8
__$ArrayPad$ = -4					; size = 4
_lpObj$ = 8						; size = 4
_sLogType$ = 12						; size = 4
?LogChaosItem@CMixSystem@@QAEXPAUOBJECTSTRUCT@@PAD@Z PROC ; CMixSystem::LogChaosItem, COMDAT
; _this$ = ecx

; 936  : {

  00000	55		 push	 ebp
  00001	8b ec		 mov	 ebp, esp
  00003	83 ec 14	 sub	 esp, 20			; 00000014H
  00006	a1 00 00 00 00	 mov	 eax, DWORD PTR ___security_cookie
  0000b	33 c5		 xor	 eax, ebp
  0000d	89 45 fc	 mov	 DWORD PTR __$ArrayPad$[ebp], eax
  00010	8b 45 0c	 mov	 eax, DWORD PTR _sLogType$[ebp]
  00013	53		 push	 ebx
  00014	56		 push	 esi

; 937  : 	BYTE ExOption[MAX_EXOPTION_SIZE];
; 938  : 
; 939  : 	for ( int n=0;n<CHAOS_BOX_SIZE;n++)

  00015	33 db		 xor	 ebx, ebx
  00017	57		 push	 edi
  00018	8b 7d 08	 mov	 edi, DWORD PTR _lpObj$[ebp]
  0001b	89 45 ec	 mov	 DWORD PTR _sLogType$GSCopy$[ebp], eax
  0001e	89 5d f0	 mov	 DWORD PTR _n$217934[ebp], ebx
$LL4@LogChaosIt:

; 940  : 	{
; 941  : 		if ( lpObj->pChaosBox[n].IsItem() == TRUE )

  00021	8b 8f 78 0e 00
	00		 mov	 ecx, DWORD PTR [edi+3704]
  00027	03 cb		 add	 ecx, ebx
  00029	e8 00 00 00 00	 call	 ?IsItem@CItem@@QAEHXZ	; CItem::IsItem
  0002e	83 f8 01	 cmp	 eax, 1
  00031	0f 85 fa 00 00
	00		 jne	 $LN3@LogChaosIt

; 942  : 		{
; 943  : 			::ItemIsBufExOption(ExOption, &lpObj->pChaosBox[n]);

  00037	8b 8f 78 0e 00
	00		 mov	 ecx, DWORD PTR [edi+3704]
  0003d	03 cb		 add	 ecx, ebx
  0003f	51		 push	 ecx
  00040	8d 55 f4	 lea	 edx, DWORD PTR _ExOption$[ebp]
  00043	52		 push	 edx
  00044	e8 00 00 00 00	 call	 ?ItemIsBufExOption@@YAXPAEPAVCItem@@@Z ; ItemIsBufExOption

; 944  : 
; 945  : 			LogAddTD("[%s] [%s][%s] CBMix [%d,%s,%d,%d,%d,%d]serial:[%u][%d] Ex:[%d,%d,%d,%d,%d,%d,%d] Set:[%d] 380:[%d] HO:[%d,%d] Socket[%d,%d,%d,%d,%d]",
; 946  : 				sLogType, lpObj->AccountID, lpObj->Name, n, lpObj->pChaosBox[n].GetName(), lpObj->pChaosBox[n].m_Level,
; 947  : 				lpObj->pChaosBox[n].m_Option1, lpObj->pChaosBox[n].m_Option2, lpObj->pChaosBox[n].m_Option3, 
; 948  : 				lpObj->pChaosBox[n].m_Number, (int)lpObj->pChaosBox[n].m_Durability, 
; 949  : 				ExOption[0], ExOption[1], ExOption[2], ExOption[3], ExOption[4], ExOption[5], ExOption[6], lpObj->pChaosBox[n].m_SetOption,
; 950  : 				lpObj->pChaosBox[n].m_ItemOptionEx >> 7,
; 951  : 				g_kJewelOfHarmonySystem.GetItemStrengthenOption(&lpObj->pChaosBox[n]),
; 952  : 				g_kJewelOfHarmonySystem.GetItemOptionLevel(&lpObj->pChaosBox[n]),
; 953  : 				//season4 add-on
; 954  : 				lpObj->pChaosBox[n].m_SocketOption[0],
; 955  : 				lpObj->pChaosBox[n].m_SocketOption[1],
; 956  : 				lpObj->pChaosBox[n].m_SocketOption[2],
; 957  : 				lpObj->pChaosBox[n].m_SocketOption[3],
; 958  : 				lpObj->pChaosBox[n].m_SocketOption[4]);

  00049	8b 87 78 0e 00
	00		 mov	 eax, DWORD PTR [edi+3704]
  0004f	8b 8f 78 0e 00
	00		 mov	 ecx, DWORD PTR [edi+3704]
  00055	0f b6 94 18 d0
	00 00 00	 movzx	 edx, BYTE PTR [eax+ebx+208]
  0005d	03 c3		 add	 eax, ebx
  0005f	83 c4 08	 add	 esp, 8
  00062	52		 push	 edx
  00063	0f b6 90 ce 00
	00 00		 movzx	 edx, BYTE PTR [eax+206]
  0006a	8d 34 0b	 lea	 esi, DWORD PTR [ebx+ecx]
  0006d	0f b6 88 cf 00
	00 00		 movzx	 ecx, BYTE PTR [eax+207]
  00074	51		 push	 ecx
  00075	0f b6 88 cd 00
	00 00		 movzx	 ecx, BYTE PTR [eax+205]
  0007c	52		 push	 edx
  0007d	0f b6 90 cc 00
	00 00		 movzx	 edx, BYTE PTR [eax+204]
  00084	51		 push	 ecx
  00085	52		 push	 edx
  00086	50		 push	 eax
  00087	b9 00 00 00 00	 mov	 ecx, OFFSET ?g_kJewelOfHarmonySystem@@3VCJewelOfHarmonySystem@@A ; g_kJewelOfHarmonySystem
  0008c	e8 00 00 00 00	 call	 ?GetItemOptionLevel@CJewelOfHarmonySystem@@QAEEPAVCItem@@@Z ; CJewelOfHarmonySystem::GetItemOptionLevel
  00091	8b 8f 78 0e 00
	00		 mov	 ecx, DWORD PTR [edi+3704]
  00097	0f b6 c0	 movzx	 eax, al
  0009a	03 cb		 add	 ecx, ebx
  0009c	50		 push	 eax
  0009d	51		 push	 ecx
  0009e	b9 00 00 00 00	 mov	 ecx, OFFSET ?g_kJewelOfHarmonySystem@@3VCJewelOfHarmonySystem@@A ; g_kJewelOfHarmonySystem
  000a3	e8 00 00 00 00	 call	 ?GetItemStrengthenOption@CJewelOfHarmonySystem@@QAEEPAVCItem@@@Z ; CJewelOfHarmonySystem::GetItemStrengthenOption
  000a8	0f b6 8e ae 00
	00 00		 movzx	 ecx, BYTE PTR [esi+174]
  000af	d9 46 24	 fld	 DWORD PTR [esi+36]
  000b2	0f b6 d0	 movzx	 edx, al
  000b5	0f b6 86 ca 00
	00 00		 movzx	 eax, BYTE PTR [esi+202]
  000bc	52		 push	 edx
  000bd	0f b6 55 fa	 movzx	 edx, BYTE PTR _ExOption$[ebp+6]
  000c1	c1 e8 07	 shr	 eax, 7
  000c4	50		 push	 eax
  000c5	0f b6 45 f9	 movzx	 eax, BYTE PTR _ExOption$[ebp+5]
  000c9	51		 push	 ecx
  000ca	0f b6 4d f8	 movzx	 ecx, BYTE PTR _ExOption$[ebp+4]
  000ce	52		 push	 edx
  000cf	0f b6 55 f7	 movzx	 edx, BYTE PTR _ExOption$[ebp+3]
  000d3	50		 push	 eax
  000d4	0f b6 45 f6	 movzx	 eax, BYTE PTR _ExOption$[ebp+2]
  000d8	51		 push	 ecx
  000d9	0f b6 4d f5	 movzx	 ecx, BYTE PTR _ExOption$[ebp+1]
  000dd	52		 push	 edx
  000de	0f b6 55 f4	 movzx	 edx, BYTE PTR _ExOption$[ebp]
  000e2	50		 push	 eax
  000e3	51		 push	 ecx
  000e4	52		 push	 edx
  000e5	e8 00 00 00 00	 call	 __ftol2_sse
  000ea	0f b6 8e 96 00
	00 00		 movzx	 ecx, BYTE PTR [esi+150]
  000f1	0f b6 96 95 00
	00 00		 movzx	 edx, BYTE PTR [esi+149]
  000f8	50		 push	 eax
  000f9	8b 06		 mov	 eax, DWORD PTR [esi]
  000fb	50		 push	 eax
  000fc	0f b6 86 94 00
	00 00		 movzx	 eax, BYTE PTR [esi+148]
  00103	51		 push	 ecx
  00104	0f bf 4e 08	 movsx	 ecx, WORD PTR [esi+8]
  00108	52		 push	 edx
  00109	50		 push	 eax
  0010a	51		 push	 ecx
  0010b	8b ce		 mov	 ecx, esi
  0010d	e8 00 00 00 00	 call	 ?GetName@CItem@@QAEPADXZ ; CItem::GetName
  00112	8b 55 f0	 mov	 edx, DWORD PTR _n$217934[ebp]
  00115	50		 push	 eax
  00116	52		 push	 edx
  00117	8b 55 ec	 mov	 edx, DWORD PTR _sLogType$GSCopy$[ebp]
  0011a	8d 47 77	 lea	 eax, DWORD PTR [edi+119]
  0011d	50		 push	 eax
  0011e	8d 4f 6c	 lea	 ecx, DWORD PTR [edi+108]
  00121	51		 push	 ecx
  00122	52		 push	 edx
  00123	68 00 00 00 00	 push	 OFFSET ??_C@_0IF@FONACAKJ@?$FL?$CFs?$FN?5?$FL?$CFs?$FN?$FL?$CFs?$FN?5CBMix?5?$FL?$CFd?0?$CFs?0?$CFd?0?$CFd@
  00128	ff 15 00 00 00
	00		 call	 DWORD PTR ?LogAddTD@@3P6AXPADZZA ; LogAddTD
  0012e	83 c4 70	 add	 esp, 112		; 00000070H
$LN3@LogChaosIt:

; 937  : 	BYTE ExOption[MAX_EXOPTION_SIZE];
; 938  : 
; 939  : 	for ( int n=0;n<CHAOS_BOX_SIZE;n++)

  00131	ff 45 f0	 inc	 DWORD PTR _n$217934[ebp]
  00134	81 c3 d4 00 00
	00		 add	 ebx, 212		; 000000d4H
  0013a	81 fb 80 1a 00
	00		 cmp	 ebx, 6784		; 00001a80H
  00140	0f 8c db fe ff
	ff		 jl	 $LL4@LogChaosIt

; 959  : 		}
; 960  : 	}
; 961  : }

  00146	8b 4d fc	 mov	 ecx, DWORD PTR __$ArrayPad$[ebp]
  00149	5f		 pop	 edi
  0014a	5e		 pop	 esi
  0014b	33 cd		 xor	 ecx, ebp
  0014d	5b		 pop	 ebx
  0014e	e8 00 00 00 00	 call	 @__security_check_cookie@4
  00153	8b e5		 mov	 esp, ebp
  00155	5d		 pop	 ebp
  00156	c2 08 00	 ret	 8
?LogChaosItem@CMixSystem@@QAEXPAUOBJECTSTRUCT@@PAD@Z ENDP ; CMixSystem::LogChaosItem
_TEXT	ENDS
PUBLIC	?IsMixPossibleItem@CMixSystem@@QAEHH@Z		; CMixSystem::IsMixPossibleItem
; Function compile flags: /Ogtp
;	COMDAT ?IsMixPossibleItem@CMixSystem@@QAEHH@Z
_TEXT	SEGMENT
_iItemCode$ = 8						; size = 4
?IsMixPossibleItem@CMixSystem@@QAEHH@Z PROC		; CMixSystem::IsMixPossibleItem, COMDAT
; _this$ = ecx

; 1458 : {

  00000	55		 push	 ebp
  00001	8b ec		 mov	 ebp, esp

; 1459 : 	switch(iItemCode)

  00003	8b 45 08	 mov	 eax, DWORD PTR _iItemCode$[ebp]
  00006	3d 35 1c 00 00	 cmp	 eax, 7221		; 00001c35H
  0000b	7f 20		 jg	 SHORT $LN6@IsMixPossi
  0000d	74 15		 je	 SHORT $LN1@IsMixPossi
  0000f	3d 0f 18 00 00	 cmp	 eax, 6159		; 0000180fH
  00014	74 0e		 je	 SHORT $LN1@IsMixPossi
  00016	3d 0c 1c 00 00	 cmp	 eax, 7180		; 00001c0cH
  0001b	7e 17		 jle	 SHORT $LN2@IsMixPossi
  0001d	3d 0e 1c 00 00	 cmp	 eax, 7182		; 00001c0eH
  00022	7f 10		 jg	 SHORT $LN2@IsMixPossi
$LN1@IsMixPossi:

; 1460 : 	{
; 1461 : 	case ITEMGET(14,53):
; 1462 : 	case ITEMGET(12,15):
; 1463 : 	case ITEMGET(14,13):
; 1464 : 	case ITEMGET(14,14):
; 1465 : 	case ITEMGET(14,96):
; 1466 : 		return TRUE;

  00024	b8 01 00 00 00	 mov	 eax, 1

; 1470 : }

  00029	5d		 pop	 ebp
  0002a	c2 04 00	 ret	 4
$LN6@IsMixPossi:

; 1459 : 	switch(iItemCode)

  0002d	3d 60 1c 00 00	 cmp	 eax, 7264		; 00001c60H
  00032	74 f0		 je	 SHORT $LN1@IsMixPossi
$LN2@IsMixPossi:

; 1467 : 	}
; 1468 : 
; 1469 : 	return FALSE;

  00034	33 c0		 xor	 eax, eax

; 1470 : }

  00036	5d		 pop	 ebp
  00037	c2 04 00	 ret	 4
?IsMixPossibleItem@CMixSystem@@QAEHH@Z ENDP		; CMixSystem::IsMixPossibleItem
_TEXT	ENDS
PUBLIC	??_C@_0ED@JKKAJEKA@?$FLDinorantMix?$FN?5?$FL?$CFs?$FN?$FL?$CFs?$FN?5CBMix?5Fai@ ; `string'
PUBLIC	??_C@_0EG@BMPMHKIC@?$FLDinorantMix?$FN?5?$FL?$CFs?$FN?$FL?$CFs?$FN?5CBMix?5Suc@ ; `string'
PUBLIC	??_C@_0BO@BKFHPCAO@?$FLDinorantMix?$FN?5Chaos?5Mix?5Start?$AA@ ; `string'
PUBLIC	??_C@_0M@OEKEBNDM@DinorantMix?$AA@		; `string'
PUBLIC	__real@406fe00000000000
PUBLIC	__$ArrayPad$
PUBLIC	?PegasiaChaosMix@CMixSystem@@QAEHPAUOBJECTSTRUCT@@@Z ; CMixSystem::PegasiaChaosMix
EXTRN	__allmul:PROC
;	COMDAT ??_C@_0ED@JKKAJEKA@?$FLDinorantMix?$FN?5?$FL?$CFs?$FN?$FL?$CFs?$FN?5CBMix?5Fai@
CONST	SEGMENT
??_C@_0ED@JKKAJEKA@?$FLDinorantMix?$FN?5?$FL?$CFs?$FN?$FL?$CFs?$FN?5CBMix?5Fai@ DB '['
	DB	'DinorantMix] [%s][%s] CBMix Fail %d Money : %d-%d, CharmRate '
	DB	': %d', 00H					; `string'
CONST	ENDS
;	COMDAT ??_C@_0EG@BMPMHKIC@?$FLDinorantMix?$FN?5?$FL?$CFs?$FN?$FL?$CFs?$FN?5CBMix?5Suc@
CONST	SEGMENT
??_C@_0EG@BMPMHKIC@?$FLDinorantMix?$FN?5?$FL?$CFs?$FN?$FL?$CFs?$FN?5CBMix?5Suc@ DB '['
	DB	'DinorantMix] [%s][%s] CBMix Success %d Money : %d-%d, CharmRa'
	DB	'te : %d', 00H				; `string'
CONST	ENDS
;	COMDAT ??_C@_0BO@BKFHPCAO@?$FLDinorantMix?$FN?5Chaos?5Mix?5Start?$AA@
CONST	SEGMENT
??_C@_0BO@BKFHPCAO@?$FLDinorantMix?$FN?5Chaos?5Mix?5Start?$AA@ DB '[Dinor'
	DB	'antMix] Chaos Mix Start', 00H		; `string'
CONST	ENDS
;	COMDAT ??_C@_0M@OEKEBNDM@DinorantMix?$AA@
CONST	SEGMENT
??_C@_0M@OEKEBNDM@DinorantMix?$AA@ DB 'DinorantMix', 00H ; `string'
CONST	ENDS
;	COMDAT __real@406fe00000000000
CONST	SEGMENT
__real@406fe00000000000 DQ 0406fe00000000000r	; 255
; Function compile flags: /Ogtp
CONST	ENDS
;	COMDAT ?PegasiaChaosMix@CMixSystem@@QAEHPAUOBJECTSTRUCT@@@Z
_TEXT	SEGMENT
_this$ = -36						; size = 4
_UniriaCount$ = -32					; size = 4
_ChoasGemCount$ = -28					; size = 4
_iCharmOfLuckCount$ = -24				; size = 4
_pMsg$ = -20						; size = 16
__$ArrayPad$ = -4					; size = 4
_lpObj$ = 8						; size = 4
?PegasiaChaosMix@CMixSystem@@QAEHPAUOBJECTSTRUCT@@@Z PROC ; CMixSystem::PegasiaChaosMix, COMDAT
; _this$ = ecx

; 1474 : {

  00000	55		 push	 ebp
  00001	8b ec		 mov	 ebp, esp
  00003	83 ec 24	 sub	 esp, 36			; 00000024H
  00006	a1 00 00 00 00	 mov	 eax, DWORD PTR ___security_cookie
  0000b	33 c5		 xor	 eax, ebp
  0000d	89 45 fc	 mov	 DWORD PTR __$ArrayPad$[ebp], eax
  00010	53		 push	 ebx
  00011	56		 push	 esi
  00012	8b 75 08	 mov	 esi, DWORD PTR _lpObj$[ebp]
  00015	57		 push	 edi

; 1475 : 	lpObj->ChaosLock = TRUE;
; 1476 : 	int UniriaCount = 0;

  00016	33 ff		 xor	 edi, edi
  00018	89 4d dc	 mov	 DWORD PTR _this$[ebp], ecx
  0001b	c7 86 88 0e 00
	00 01 00 00 00	 mov	 DWORD PTR [esi+3720], 1
  00025	89 7d e0	 mov	 DWORD PTR _UniriaCount$[ebp], edi

; 1477 : 	int ChoasGemCount = 0;

  00028	89 7d e4	 mov	 DWORD PTR _ChoasGemCount$[ebp], edi

; 1478 : 	int iCharmOfLuckCount = 0;

  0002b	33 db		 xor	 ebx, ebx
  0002d	8d 49 00	 npad	 3
$LL19@PegasiaCha:

; 1481 : 	{
; 1482 : 		if ( lpObj->pChaosBox[n].IsItem() == TRUE )

  00030	8b 8e 78 0e 00
	00		 mov	 ecx, DWORD PTR [esi+3704]
  00036	03 cf		 add	 ecx, edi
  00038	e8 00 00 00 00	 call	 ?IsItem@CItem@@QAEHXZ	; CItem::IsItem
  0003d	83 f8 01	 cmp	 eax, 1
  00040	75 51		 jne	 SHORT $LN18@PegasiaCha

; 1483 : 		{
; 1484 : 			if ( lpObj->pChaosBox[n].m_Type == ITEMGET(13,2) && lpObj->pChaosBox[n].m_Durability == 255.0f )	// Uniria

  00042	8b 96 78 0e 00
	00		 mov	 edx, DWORD PTR [esi+3704]
  00048	0f b7 4c 3a 06	 movzx	 ecx, WORD PTR [edx+edi+6]
  0004d	b8 02 1a 00 00	 mov	 eax, 6658		; 00001a02H
  00052	66 3b c8	 cmp	 cx, ax
  00055	75 18		 jne	 SHORT $LN15@PegasiaCha
  00057	d9 44 3a 24	 fld	 DWORD PTR [edx+edi+36]
  0005b	dd 05 00 00 00
	00		 fld	 QWORD PTR __real@406fe00000000000
  00061	da e9		 fucompp
  00063	df e0		 fnstsw	 ax
  00065	f6 c4 44	 test	 ah, 68			; 00000044H
  00068	7a 05		 jp	 SHORT $LN15@PegasiaCha

; 1485 : 			{
; 1486 : 				UniriaCount++;

  0006a	ff 45 e0	 inc	 DWORD PTR _UniriaCount$[ebp]
  0006d	eb 24		 jmp	 SHORT $LN18@PegasiaCha
$LN15@PegasiaCha:

; 1487 : 			}
; 1488 : 			else if ( lpObj->pChaosBox[n].m_Type == ITEMGET(12,15) ) // Chaos Gem

  0006f	b8 0f 18 00 00	 mov	 eax, 6159		; 0000180fH
  00074	66 3b c8	 cmp	 cx, ax
  00077	75 05		 jne	 SHORT $LN13@PegasiaCha

; 1489 : 			{
; 1490 : 				ChoasGemCount++;

  00079	ff 45 e4	 inc	 DWORD PTR _ChoasGemCount$[ebp]
  0007c	eb 15		 jmp	 SHORT $LN18@PegasiaCha
$LN13@PegasiaCha:

; 1491 : 			}
; 1492 : 			else if ( lpObj->pChaosBox[n].m_Type == ITEMGET(14,53) )	// Charm Of Luck

  0007e	b8 35 1c 00 00	 mov	 eax, 7221		; 00001c35H
  00083	66 3b c8	 cmp	 cx, ax
  00086	75 0b		 jne	 SHORT $LN18@PegasiaCha

; 1493 : 			{
; 1494 : 				iCharmOfLuckCount += (int)lpObj->pChaosBox[n].m_Durability;

  00088	d9 44 3a 24	 fld	 DWORD PTR [edx+edi+36]
  0008c	e8 00 00 00 00	 call	 __ftol2_sse
  00091	03 d8		 add	 ebx, eax
$LN18@PegasiaCha:

; 1479 : 
; 1480 : 	for ( int n=0;n<CHAOS_BOX_SIZE;n++)

  00093	81 c7 d4 00 00
	00		 add	 edi, 212		; 000000d4H
  00099	81 ff 80 1a 00
	00		 cmp	 edi, 6784		; 00001a80H
  0009f	7c 8f		 jl	 SHORT $LL19@PegasiaCha

; 1495 : 			}
; 1496 : 		}
; 1497 : 	}
; 1498 : 
; 1499 : 	if ( UniriaCount != 10 || ChoasGemCount != 1 )

  000a1	83 7d e0 0a	 cmp	 DWORD PTR _UniriaCount$[ebp], 10 ; 0000000aH
  000a5	89 5d e8	 mov	 DWORD PTR _iCharmOfLuckCount$[ebp], ebx
  000a8	0f 85 78 02 00
	00		 jne	 $LN9@PegasiaCha
  000ae	83 7d e4 01	 cmp	 DWORD PTR _ChoasGemCount$[ebp], 1
  000b2	0f 85 6e 02 00
	00		 jne	 $LN9@PegasiaCha

; 1502 : 		return FALSE;
; 1503 : 	}
; 1504 : 
; 1505 : 	PMSG_CHAOSMIXRESULT pMsg;
; 1506 : 
; 1507 : 	PHeadSetB((LPBYTE)&pMsg.h, 0x86, sizeof(PMSG_CHAOSMIXRESULT));

  000b8	6a 10		 push	 16			; 00000010H
  000ba	8d 4d ec	 lea	 ecx, DWORD PTR _pMsg$[ebp]
  000bd	68 86 00 00 00	 push	 134			; 00000086H
  000c2	51		 push	 ecx
  000c3	e8 00 00 00 00	 call	 ?PHeadSetB@@YAXPAEEH@Z	; PHeadSetB
  000c8	83 c4 0c	 add	 esp, 12			; 0000000cH

; 1508 : 	pMsg.Result = CB_ERROR;

  000cb	c6 45 ef 00	 mov	 BYTE PTR _pMsg$[ebp+3], 0

; 1509 : 
; 1510 : 	if ( iCharmOfLuckCount > 10 )

  000cf	83 fb 0a	 cmp	 ebx, 10			; 0000000aH
  000d2	7e 27		 jle	 SHORT $LN8@PegasiaCha

; 1511 : 	{
; 1512 : 		lpObj->ChaosLock = FALSE;
; 1513 : 		pMsg.Result = 0xF0;
; 1514 : 		DataSend(lpObj->m_Index, (LPBYTE)&pMsg, pMsg.h.size);

  000d4	0f b6 55 ed	 movzx	 edx, BYTE PTR _pMsg$[ebp+1]
  000d8	8b 0e		 mov	 ecx, DWORD PTR [esi]
  000da	52		 push	 edx
  000db	8d 45 ec	 lea	 eax, DWORD PTR _pMsg$[ebp]
  000de	50		 push	 eax
  000df	51		 push	 ecx
  000e0	c7 86 88 0e 00
	00 00 00 00 00	 mov	 DWORD PTR [esi+3720], 0
  000ea	c6 45 ef f0	 mov	 BYTE PTR _pMsg$[ebp+3], 240 ; 000000f0H
  000ee	e8 00 00 00 00	 call	 ?DataSend@@YAHHPAEK@Z	; DataSend
  000f3	83 c4 0c	 add	 esp, 12			; 0000000cH

; 1515 : 
; 1516 : 		return 0;

  000f6	e9 35 02 00 00	 jmp	 $LN26@PegasiaCha
$LN8@PegasiaCha:

; 1517 : 	}
; 1518 : 
; 1519 : 	int nChaosNeedMoney = 500000;
; 1520 : 	int iChaosTaxMoney = (int)((__int64)nChaosNeedMoney * (__int64)g_CastleSiegeSync.GetTaxRateChaos(lpObj->m_Index) / (__int64)100);

  000fb	8b 16		 mov	 edx, DWORD PTR [esi]
  000fd	52		 push	 edx
  000fe	b9 00 00 00 00	 mov	 ecx, OFFSET ?g_CastleSiegeSync@@3VCCastleSiegeSync@@A ; g_CastleSiegeSync
  00103	e8 00 00 00 00	 call	 ?GetTaxRateChaos@CCastleSiegeSync@@QAEHH@Z ; CCastleSiegeSync::GetTaxRateChaos
  00108	6a 00		 push	 0
  0010a	99		 cdq
  0010b	68 20 a1 07 00	 push	 500000			; 0007a120H
  00110	52		 push	 edx
  00111	50		 push	 eax
  00112	e8 00 00 00 00	 call	 __allmul
  00117	6a 00		 push	 0
  00119	6a 64		 push	 100			; 00000064H
  0011b	52		 push	 edx
  0011c	50		 push	 eax
  0011d	e8 00 00 00 00	 call	 __alldiv

; 1521 : 
; 1522 : 		nChaosNeedMoney += lpObj->m_AddMixMoney;

  00122	8b be 20 28 00
	00		 mov	 edi, DWORD PTR [esi+10272]
  00128	8b d8		 mov	 ebx, eax
  0012a	81 c7 20 a1 07
	00		 add	 edi, 500000		; 0007a120H

; 1523 : 
; 1524 : 	if ( iChaosTaxMoney < 0 )

  00130	85 db		 test	 ebx, ebx
  00132	79 02		 jns	 SHORT $LN7@PegasiaCha

; 1525 : 	{
; 1526 : 		iChaosTaxMoney = 0;

  00134	33 db		 xor	 ebx, ebx
$LN7@PegasiaCha:

; 1527 : 	}
; 1528 : 
; 1529 : 	nChaosNeedMoney += iChaosTaxMoney;

  00136	03 fb		 add	 edi, ebx

; 1530 : 
; 1531 : 	if ( nChaosNeedMoney < 0 )

  00138	79 02		 jns	 SHORT $LN6@PegasiaCha

; 1532 : 	{
; 1533 : 		nChaosNeedMoney = 0;

  0013a	33 ff		 xor	 edi, edi
$LN6@PegasiaCha:

; 1534 : 	}
; 1535 : 
; 1536 : 	if ( lpObj->Money < nChaosNeedMoney )

  0013c	39 be f0 00 00
	00		 cmp	 DWORD PTR [esi+240], edi
  00142	7d 44		 jge	 SHORT $LN5@PegasiaCha

; 1537 : 	{
; 1538 : 		lpObj->ChaosLock = FALSE;
; 1539 : 		pMsg.Result = CB_NOT_ENOUGH_ZEN;
; 1540 : 		
; 1541 : 		DataSend(lpObj->m_Index, (LPBYTE)&pMsg, pMsg.h.size);

  00144	0f b6 45 ed	 movzx	 eax, BYTE PTR _pMsg$[ebp+1]
  00148	8b 16		 mov	 edx, DWORD PTR [esi]
  0014a	50		 push	 eax
  0014b	8d 4d ec	 lea	 ecx, DWORD PTR _pMsg$[ebp]
  0014e	51		 push	 ecx
  0014f	52		 push	 edx
  00150	c7 86 88 0e 00
	00 00 00 00 00	 mov	 DWORD PTR [esi+3720], 0
  0015a	c6 45 ef 02	 mov	 BYTE PTR _pMsg$[ebp+3], 2
  0015e	e8 00 00 00 00	 call	 ?DataSend@@YAHHPAEK@Z	; DataSend
  00163	83 c4 0c	 add	 esp, 12			; 0000000cH
  00166	5f		 pop	 edi

; 1542 : 		lpObj->ChaosLock = FALSE;

  00167	c7 86 88 0e 00
	00 00 00 00 00	 mov	 DWORD PTR [esi+3720], 0
  00171	5e		 pop	 esi

; 1543 : 
; 1544 : 		return TRUE;

  00172	b8 01 00 00 00	 mov	 eax, 1
  00177	5b		 pop	 ebx

; 1597 : #endif
; 1598 : 		lpObj->ChaosLock = FALSE;
; 1599 : 		return FALSE;
; 1600 : 	}
; 1601 : }

  00178	8b 4d fc	 mov	 ecx, DWORD PTR __$ArrayPad$[ebp]
  0017b	33 cd		 xor	 ecx, ebp
  0017d	e8 00 00 00 00	 call	 @__security_check_cookie@4
  00182	8b e5		 mov	 esp, ebp
  00184	5d		 pop	 ebp
  00185	c2 04 00	 ret	 4
$LN5@PegasiaCha:

; 1545 : 	}
; 1546 : 
; 1547 : 	LogChaosItem(lpObj, "DinorantMix");

  00188	8b 4d dc	 mov	 ecx, DWORD PTR _this$[ebp]
  0018b	68 00 00 00 00	 push	 OFFSET ??_C@_0M@OEKEBNDM@DinorantMix?$AA@
  00190	56		 push	 esi
  00191	e8 00 00 00 00	 call	 ?LogChaosItem@CMixSystem@@QAEXPAUOBJECTSTRUCT@@PAD@Z ; CMixSystem::LogChaosItem

; 1548 : 	LogAddTD("[DinorantMix] Chaos Mix Start");

  00196	68 00 00 00 00	 push	 OFFSET ??_C@_0BO@BKFHPCAO@?$FLDinorantMix?$FN?5Chaos?5Mix?5Start?$AA@
  0019b	ff 15 00 00 00
	00		 call	 DWORD PTR ?LogAddTD@@3P6AXPADZZA ; LogAddTD

; 1549 : 	//int ExDinorantMixRate = GetPrivateProfileInt("ChaosMix","DinorantMixRate",70,"..\\Data\\ZtData\\CommonServer.ini");
; 1550 : 	lpObj->ChaosSuccessRate = ZtConfig.CommonServer.ZtDinorantMixRate;	// Succes Rate for Dinorant

  001a1	a1 98 00 00 00	 mov	 eax, DWORD PTR ?ZtConfig@@3VcZtConfigs@@A+152

; 1551 : 	lpObj->ChaosSuccessRate += iCharmOfLuckCount;
; 1552 : 
; 1553 : 	lpObj->ChaosSuccessRate += lpObj->m_AddMixSuccessRate;

  001a6	8b 8e 24 28 00
	00		 mov	 ecx, DWORD PTR [esi+10276]
  001ac	03 4d e8	 add	 ecx, DWORD PTR _iCharmOfLuckCount$[ebp]

; 1554 : 
; 1555 : 
; 1556 : 
; 1557 : 	lpObj->Money -= nChaosNeedMoney;

  001af	29 be f0 00 00
	00		 sub	 DWORD PTR [esi+240], edi
  001b5	83 c4 04	 add	 esp, 4
  001b8	89 86 84 0e 00
	00		 mov	 DWORD PTR [esi+3716], eax
  001be	01 8e 84 0e 00
	00		 add	 DWORD PTR [esi+3716], ecx

; 1558 : 
; 1559 : 	g_CastleSiegeSync.AddTributeMoney(iChaosTaxMoney);

  001c4	53		 push	 ebx
  001c5	b9 00 00 00 00	 mov	 ecx, OFFSET ?g_CastleSiegeSync@@3VCCastleSiegeSync@@A ; g_CastleSiegeSync
  001ca	e8 00 00 00 00	 call	 ?AddTributeMoney@CCastleSiegeSync@@QAEXH@Z ; CCastleSiegeSync::AddTributeMoney

; 1560 : 	GCMoneySend(lpObj->m_Index, lpObj->Money);

  001cf	8b 96 f0 00 00
	00		 mov	 edx, DWORD PTR [esi+240]
  001d5	8b 06		 mov	 eax, DWORD PTR [esi]
  001d7	52		 push	 edx
  001d8	50		 push	 eax
  001d9	e8 00 00 00 00	 call	 ?GCMoneySend@@YAXHK@Z	; GCMoneySend
  001de	83 c4 08	 add	 esp, 8

; 1561 : 
; 1562 : 	if ( (rand()%100 ) < lpObj->ChaosSuccessRate )

  001e1	e8 00 00 00 00	 call	 _rand
  001e6	99		 cdq
  001e7	b9 64 00 00 00	 mov	 ecx, 100		; 00000064H
  001ec	f7 f9		 idiv	 ecx
  001ee	3b 96 84 0e 00
	00		 cmp	 edx, DWORD PTR [esi+3716]
  001f4	0f 8d d4 00 00
	00		 jge	 $LN4@PegasiaCha

; 1563 : 	{
; 1564 : 		int Dinorant = ITEMGET(13,3);
; 1565 : 		int Option3 = 0;

  001fa	33 db		 xor	 ebx, ebx

; 1566 : 
; 1567 : 		if ( (rand()% 100) < 30 )

  001fc	e8 00 00 00 00	 call	 _rand
  00201	99		 cdq
  00202	b9 64 00 00 00	 mov	 ecx, 100		; 00000064H
  00207	f7 f9		 idiv	 ecx
  00209	83 fa 1e	 cmp	 edx, 30			; 0000001eH
  0020c	7d 3f		 jge	 SHORT $LN24@PegasiaCha

; 1568 : 		{
; 1569 : 			Option3 = 1 <<  ((rand()%3)) ;

  0020e	e8 00 00 00 00	 call	 _rand
  00213	99		 cdq
  00214	b9 03 00 00 00	 mov	 ecx, 3
  00219	f7 f9		 idiv	 ecx
  0021b	bb 01 00 00 00	 mov	 ebx, 1
  00220	8b ca		 mov	 ecx, edx
  00222	d3 e3		 shl	 ebx, cl

; 1570 : 
; 1571 : 			if ( (rand()%5) == 0 )

  00224	e8 00 00 00 00	 call	 _rand
  00229	99		 cdq
  0022a	b9 05 00 00 00	 mov	 ecx, 5
  0022f	f7 f9		 idiv	 ecx
  00231	85 d2		 test	 edx, edx
  00233	75 18		 jne	 SHORT $LN24@PegasiaCha

; 1572 : 			{
; 1573 : 				Option3 |= 1 << (rand()%3);

  00235	e8 00 00 00 00	 call	 _rand
  0023a	99		 cdq
  0023b	b9 03 00 00 00	 mov	 ecx, 3
  00240	f7 f9		 idiv	 ecx
  00242	b8 01 00 00 00	 mov	 eax, 1
  00247	8b ca		 mov	 ecx, edx
  00249	d3 e0		 shl	 eax, cl
  0024b	0b d8		 or	 ebx, eax
$LN24@PegasiaCha:

; 1574 : 			}
; 1575 : 		}
; 1576 : 
; 1577 : 		::ItemSerialCreateSend(lpObj->m_Index, -1, 0, 0, Dinorant, 0, 255, 1, 0, (BYTE)Option3, -1, 0, 0);

  0024d	6a 00		 push	 0
  0024f	8b 0e		 mov	 ecx, DWORD PTR [esi]
  00251	6a 00		 push	 0
  00253	6a ff		 push	 -1
  00255	53		 push	 ebx
  00256	6a 00		 push	 0
  00258	6a 01		 push	 1
  0025a	68 ff 00 00 00	 push	 255			; 000000ffH
  0025f	6a 00		 push	 0
  00261	68 03 1a 00 00	 push	 6659			; 00001a03H
  00266	6a 00		 push	 0
  00268	6a 00		 push	 0
  0026a	68 ff 00 00 00	 push	 255			; 000000ffH
  0026f	51		 push	 ecx
  00270	e8 00 00 00 00	 call	 ?ItemSerialCreateSend@@YAXHEEEHEEEEEHEE@Z ; ItemSerialCreateSend

; 1578 : 		::gObjInventoryCommit(lpObj->m_Index);

  00275	8b 16		 mov	 edx, DWORD PTR [esi]
  00277	52		 push	 edx
  00278	e8 00 00 00 00	 call	 ?gObjInventoryCommit@@YAHH@Z ; gObjInventoryCommit

; 1579 : #if(SYSTEM_ACHIEVEMENTS)
; 1580 : 		g_Achievements.SuccessChaosMix(lpObj->m_Index);

  0027d	8b 06		 mov	 eax, DWORD PTR [esi]
  0027f	83 c4 38	 add	 esp, 56			; 00000038H
  00282	50		 push	 eax
  00283	b9 00 00 00 00	 mov	 ecx, OFFSET ?g_Achievements@@3VCAchievements@@A ; g_Achievements
  00288	e8 00 00 00 00	 call	 ?SuccessChaosMix@CAchievements@@QAEXH@Z ; CAchievements::SuccessChaosMix

; 1581 : #endif
; 1582 : 		LogAddTD("[DinorantMix] [%s][%s] CBMix Success %d Money : %d-%d, CharmRate : %d",
; 1583 : 			lpObj->AccountID, lpObj->Name, lpObj->ChaosSuccessRate, lpObj->Money, nChaosNeedMoney, iCharmOfLuckCount);

  0028d	8b 4d e8	 mov	 ecx, DWORD PTR _iCharmOfLuckCount$[ebp]
  00290	8b 96 f0 00 00
	00		 mov	 edx, DWORD PTR [esi+240]
  00296	8b 86 84 0e 00
	00		 mov	 eax, DWORD PTR [esi+3716]
  0029c	51		 push	 ecx
  0029d	57		 push	 edi
  0029e	52		 push	 edx
  0029f	50		 push	 eax
  002a0	8d 4e 77	 lea	 ecx, DWORD PTR [esi+119]
  002a3	51		 push	 ecx
  002a4	83 c6 6c	 add	 esi, 108		; 0000006cH
  002a7	56		 push	 esi
  002a8	68 00 00 00 00	 push	 OFFSET ??_C@_0EG@BMPMHKIC@?$FLDinorantMix?$FN?5?$FL?$CFs?$FN?$FL?$CFs?$FN?5CBMix?5Suc@
  002ad	ff 15 00 00 00
	00		 call	 DWORD PTR ?LogAddTD@@3P6AXPADZZA ; LogAddTD
  002b3	83 c4 1c	 add	 esp, 28			; 0000001cH
  002b6	5f		 pop	 edi
  002b7	5e		 pop	 esi

; 1584 : 
; 1585 : 		return TRUE;

  002b8	b8 01 00 00 00	 mov	 eax, 1
  002bd	5b		 pop	 ebx

; 1597 : #endif
; 1598 : 		lpObj->ChaosLock = FALSE;
; 1599 : 		return FALSE;
; 1600 : 	}
; 1601 : }

  002be	8b 4d fc	 mov	 ecx, DWORD PTR __$ArrayPad$[ebp]
  002c1	33 cd		 xor	 ecx, ebp
  002c3	e8 00 00 00 00	 call	 @__security_check_cookie@4
  002c8	8b e5		 mov	 esp, ebp
  002ca	5d		 pop	 ebp
  002cb	c2 04 00	 ret	 4
$LN4@PegasiaCha:

; 1586 : 	}
; 1587 : 	else
; 1588 : 	{
; 1589 : 		this->ChaosBoxInit(lpObj);	// Errase Chaos Box

  002ce	8b 4d dc	 mov	 ecx, DWORD PTR _this$[ebp]
  002d1	56		 push	 esi
  002d2	e8 00 00 00 00	 call	 ?ChaosBoxInit@CMixSystem@@QAEHPAUOBJECTSTRUCT@@@Z ; CMixSystem::ChaosBoxInit

; 1590 : 		GCUserChaosBoxSend(lpObj, 0);

  002d7	6a 00		 push	 0
  002d9	56		 push	 esi
  002da	e8 00 00 00 00	 call	 ?GCUserChaosBoxSend@@YAXPAUOBJECTSTRUCT@@H@Z ; GCUserChaosBoxSend

; 1591 : 		DataSend(lpObj->m_Index, (LPBYTE)&pMsg, pMsg.h.size);

  002df	0f b6 55 ed	 movzx	 edx, BYTE PTR _pMsg$[ebp+1]
  002e3	8b 0e		 mov	 ecx, DWORD PTR [esi]
  002e5	52		 push	 edx
  002e6	8d 45 ec	 lea	 eax, DWORD PTR _pMsg$[ebp]
  002e9	50		 push	 eax
  002ea	51		 push	 ecx
  002eb	e8 00 00 00 00	 call	 ?DataSend@@YAHHPAEK@Z	; DataSend

; 1592 : 
; 1593 : 		LogAddTD("[DinorantMix] [%s][%s] CBMix Fail %d Money : %d-%d, CharmRate : %d",
; 1594 : 			lpObj->AccountID, lpObj->Name, lpObj->ChaosSuccessRate, lpObj->Money, nChaosNeedMoney, iCharmOfLuckCount);

  002f0	8b 55 e8	 mov	 edx, DWORD PTR _iCharmOfLuckCount$[ebp]
  002f3	8b 86 f0 00 00
	00		 mov	 eax, DWORD PTR [esi+240]
  002f9	8b 8e 84 0e 00
	00		 mov	 ecx, DWORD PTR [esi+3716]
  002ff	52		 push	 edx
  00300	57		 push	 edi
  00301	50		 push	 eax
  00302	51		 push	 ecx
  00303	8d 56 77	 lea	 edx, DWORD PTR [esi+119]
  00306	52		 push	 edx
  00307	8d 46 6c	 lea	 eax, DWORD PTR [esi+108]
  0030a	50		 push	 eax
  0030b	68 00 00 00 00	 push	 OFFSET ??_C@_0ED@JKKAJEKA@?$FLDinorantMix?$FN?5?$FL?$CFs?$FN?$FL?$CFs?$FN?5CBMix?5Fai@
  00310	ff 15 00 00 00
	00		 call	 DWORD PTR ?LogAddTD@@3P6AXPADZZA ; LogAddTD

; 1595 : #if(SYSTEM_ACHIEVEMENTS)
; 1596 : 		g_Achievements.FailedChaosMix(lpObj->m_Index);

  00316	8b 0e		 mov	 ecx, DWORD PTR [esi]
  00318	83 c4 30	 add	 esp, 48			; 00000030H
  0031b	51		 push	 ecx
  0031c	b9 00 00 00 00	 mov	 ecx, OFFSET ?g_Achievements@@3VCAchievements@@A ; g_Achievements
  00321	e8 00 00 00 00	 call	 ?FailedChaosMix@CAchievements@@QAEXH@Z ; CAchievements::FailedChaosMix
$LN9@PegasiaCha:

; 1500 : 	{
; 1501 : 		lpObj->ChaosLock = FALSE;

  00326	c7 86 88 0e 00
	00 00 00 00 00	 mov	 DWORD PTR [esi+3720], 0
$LN26@PegasiaCha:

; 1597 : #endif
; 1598 : 		lpObj->ChaosLock = FALSE;
; 1599 : 		return FALSE;
; 1600 : 	}
; 1601 : }

  00330	8b 4d fc	 mov	 ecx, DWORD PTR __$ArrayPad$[ebp]
  00333	5f		 pop	 edi
  00334	5e		 pop	 esi
  00335	33 cd		 xor	 ecx, ebp
  00337	33 c0		 xor	 eax, eax
  00339	5b		 pop	 ebx
  0033a	e8 00 00 00 00	 call	 @__security_check_cookie@4
  0033f	8b e5		 mov	 esp, ebp
  00341	5d		 pop	 ebp
  00342	c2 04 00	 ret	 4
?PegasiaChaosMix@CMixSystem@@QAEHPAUOBJECTSTRUCT@@@Z ENDP ; CMixSystem::PegasiaChaosMix
_TEXT	ENDS
PUBLIC	??_C@_0EB@FKBAIBLL@?$FLCircleMix?$FN?5?$FL?$CFs?$FN?$FL?$CFs?$FN?5CBMix?5Fail?5@ ; `string'
PUBLIC	??_C@_0EE@PAFLGDEL@?$FLCircleMix?$FN?5?$FL?$CFs?$FN?$FL?$CFs?$FN?5CBMix?5Succe@ ; `string'
PUBLIC	??_C@_0BM@EFIHICLO@?$FLCircleMix?$FN?5Chaos?5Mix?5Start?$AA@ ; `string'
PUBLIC	??_C@_09CKGJGION@CircleMix?$AA@			; `string'
PUBLIC	__$ArrayPad$
PUBLIC	?CircleChaosMix@CMixSystem@@QAEHPAUOBJECTSTRUCT@@@Z ; CMixSystem::CircleChaosMix
;	COMDAT ??_C@_0EB@FKBAIBLL@?$FLCircleMix?$FN?5?$FL?$CFs?$FN?$FL?$CFs?$FN?5CBMix?5Fail?5@
CONST	SEGMENT
??_C@_0EB@FKBAIBLL@?$FLCircleMix?$FN?5?$FL?$CFs?$FN?$FL?$CFs?$FN?5CBMix?5Fail?5@ DB '['
	DB	'CircleMix] [%s][%s] CBMix Fail %d Money : %d-%d, CharmRate : '
	DB	'%d', 00H					; `string'
CONST	ENDS
;	COMDAT ??_C@_0EE@PAFLGDEL@?$FLCircleMix?$FN?5?$FL?$CFs?$FN?$FL?$CFs?$FN?5CBMix?5Succe@
CONST	SEGMENT
??_C@_0EE@PAFLGDEL@?$FLCircleMix?$FN?5?$FL?$CFs?$FN?$FL?$CFs?$FN?5CBMix?5Succe@ DB '['
	DB	'CircleMix] [%s][%s] CBMix Success %d Money : %d-%d, CharmRate'
	DB	' : %d', 00H					; `string'
CONST	ENDS
;	COMDAT ??_C@_0BM@EFIHICLO@?$FLCircleMix?$FN?5Chaos?5Mix?5Start?$AA@
CONST	SEGMENT
??_C@_0BM@EFIHICLO@?$FLCircleMix?$FN?5Chaos?5Mix?5Start?$AA@ DB '[CircleM'
	DB	'ix] Chaos Mix Start', 00H			; `string'
CONST	ENDS
;	COMDAT ??_C@_09CKGJGION@CircleMix?$AA@
CONST	SEGMENT
??_C@_09CKGJGION@CircleMix?$AA@ DB 'CircleMix', 00H	; `string'
; Function compile flags: /Ogtp
CONST	ENDS
;	COMDAT ?CircleChaosMix@CMixSystem@@QAEHPAUOBJECTSTRUCT@@@Z
_TEXT	SEGMENT
_this$ = -36						; size = 4
_CreatureGemCount$ = -32				; size = 4
_ChoasGemCount$ = -28					; size = 4
_iCharmOfLuckCount$ = -24				; size = 4
_pMsg$ = -20						; size = 16
__$ArrayPad$ = -4					; size = 4
_lpObj$ = 8						; size = 4
?CircleChaosMix@CMixSystem@@QAEHPAUOBJECTSTRUCT@@@Z PROC ; CMixSystem::CircleChaosMix, COMDAT
; _this$ = ecx

; 1604 : {

  00000	55		 push	 ebp
  00001	8b ec		 mov	 ebp, esp
  00003	83 ec 24	 sub	 esp, 36			; 00000024H
  00006	a1 00 00 00 00	 mov	 eax, DWORD PTR ___security_cookie
  0000b	33 c5		 xor	 eax, ebp
  0000d	89 45 fc	 mov	 DWORD PTR __$ArrayPad$[ebp], eax
  00010	53		 push	 ebx
  00011	56		 push	 esi
  00012	8b 75 08	 mov	 esi, DWORD PTR _lpObj$[ebp]
  00015	57		 push	 edi

; 1605 : 	lpObj->ChaosLock = TRUE;
; 1606 : 
; 1607 : 	int CreatureGemCount = 0;

  00016	33 ff		 xor	 edi, edi
  00018	89 4d dc	 mov	 DWORD PTR _this$[ebp], ecx
  0001b	c7 86 88 0e 00
	00 01 00 00 00	 mov	 DWORD PTR [esi+3720], 1
  00025	89 7d e0	 mov	 DWORD PTR _CreatureGemCount$[ebp], edi

; 1608 : 	int ChoasGemCount = 0;

  00028	89 7d e4	 mov	 DWORD PTR _ChoasGemCount$[ebp], edi

; 1609 : 	int iCharmOfLuckCount = 0;

  0002b	33 db		 xor	 ebx, ebx
  0002d	8d 49 00	 npad	 3
$LL26@CircleChao:

; 1612 : 	{
; 1613 : 		if ( lpObj->pChaosBox[n].IsItem() == TRUE )

  00030	8b 8e 78 0e 00
	00		 mov	 ecx, DWORD PTR [esi+3704]
  00036	03 cf		 add	 ecx, edi
  00038	e8 00 00 00 00	 call	 ?IsItem@CItem@@QAEHXZ	; CItem::IsItem
  0003d	83 f8 01	 cmp	 eax, 1
  00040	75 3e		 jne	 SHORT $LN25@CircleChao

; 1614 : 		{
; 1615 : 			if ( lpObj->pChaosBox[n].m_Type == ITEMGET(14,22) )	// Jewel of Creation

  00042	8b 8e 78 0e 00
	00		 mov	 ecx, DWORD PTR [esi+3704]
  00048	0f b7 44 39 06	 movzx	 eax, WORD PTR [ecx+edi+6]
  0004d	ba 16 1c 00 00	 mov	 edx, 7190		; 00001c16H
  00052	66 3b c2	 cmp	 ax, dx
  00055	75 05		 jne	 SHORT $LN22@CircleChao

; 1616 : 			{
; 1617 : 				CreatureGemCount++;

  00057	ff 45 e0	 inc	 DWORD PTR _CreatureGemCount$[ebp]
  0005a	eb 24		 jmp	 SHORT $LN25@CircleChao
$LN22@CircleChao:

; 1618 : 			}
; 1619 : 			else if ( lpObj->pChaosBox[n].m_Type == ITEMGET(12,15) ) // Chaos Gem

  0005c	ba 0f 18 00 00	 mov	 edx, 6159		; 0000180fH
  00061	66 3b c2	 cmp	 ax, dx
  00064	75 05		 jne	 SHORT $LN20@CircleChao

; 1620 : 			{
; 1621 : 				ChoasGemCount++;

  00066	ff 45 e4	 inc	 DWORD PTR _ChoasGemCount$[ebp]
  00069	eb 15		 jmp	 SHORT $LN25@CircleChao
$LN20@CircleChao:

; 1622 : 			}
; 1623 : 			else if ( lpObj->pChaosBox[n].m_Type == ITEMGET(14,53) )	// Charm Of Luck

  0006b	ba 35 1c 00 00	 mov	 edx, 7221		; 00001c35H
  00070	66 3b c2	 cmp	 ax, dx
  00073	75 0b		 jne	 SHORT $LN25@CircleChao

; 1624 : 			{
; 1625 : 				iCharmOfLuckCount += (int)lpObj->pChaosBox[n].m_Durability;

  00075	d9 44 39 24	 fld	 DWORD PTR [ecx+edi+36]
  00079	e8 00 00 00 00	 call	 __ftol2_sse
  0007e	03 d8		 add	 ebx, eax
$LN25@CircleChao:

; 1610 : 
; 1611 : 	for ( int n=0;n<CHAOS_BOX_SIZE;n++)

  00080	81 c7 d4 00 00
	00		 add	 edi, 212		; 000000d4H
  00086	81 ff 80 1a 00
	00		 cmp	 edi, 6784		; 00001a80H
  0008c	7c a2		 jl	 SHORT $LL26@CircleChao

; 1626 : 			}
; 1627 : 		}
; 1628 : 	}
; 1629 : 
; 1630 : 	if ( CreatureGemCount != 1 || ChoasGemCount != 1 )

  0008e	bf 01 00 00 00	 mov	 edi, 1
  00093	89 5d e8	 mov	 DWORD PTR _iCharmOfLuckCount$[ebp], ebx
  00096	39 7d e0	 cmp	 DWORD PTR _CreatureGemCount$[ebp], edi
  00099	0f 85 b2 02 00
	00		 jne	 $LN16@CircleChao
  0009f	39 7d e4	 cmp	 DWORD PTR _ChoasGemCount$[ebp], edi
  000a2	0f 85 a9 02 00
	00		 jne	 $LN16@CircleChao

; 1631 : 	{
; 1632 : 		return FALSE;
; 1633 : 	}
; 1634 : 
; 1635 : 	PMSG_CHAOSMIXRESULT pMsg;
; 1636 : 
; 1637 : 	PHeadSetB((LPBYTE)&pMsg.h, 0x86, sizeof(PMSG_CHAOSMIXRESULT));

  000a8	6a 10		 push	 16			; 00000010H
  000aa	8d 45 ec	 lea	 eax, DWORD PTR _pMsg$[ebp]
  000ad	68 86 00 00 00	 push	 134			; 00000086H
  000b2	50		 push	 eax
  000b3	e8 00 00 00 00	 call	 ?PHeadSetB@@YAXPAEEH@Z	; PHeadSetB
  000b8	83 c4 0c	 add	 esp, 12			; 0000000cH

; 1638 : 	pMsg.Result = CB_ERROR;

  000bb	c6 45 ef 00	 mov	 BYTE PTR _pMsg$[ebp+3], 0

; 1639 : 
; 1640 : 	if ( iCharmOfLuckCount > 10 )

  000bf	83 fb 0a	 cmp	 ebx, 10			; 0000000aH
  000c2	7e 37		 jle	 SHORT $LN15@CircleChao

; 1641 : 	{
; 1642 : 		lpObj->ChaosLock = FALSE;
; 1643 : 		pMsg.Result = 0xF0;
; 1644 : 		DataSend(lpObj->m_Index, (LPBYTE)&pMsg, pMsg.h.size);

  000c4	0f b6 4d ed	 movzx	 ecx, BYTE PTR _pMsg$[ebp+1]
  000c8	8b 06		 mov	 eax, DWORD PTR [esi]
  000ca	51		 push	 ecx
  000cb	8d 55 ec	 lea	 edx, DWORD PTR _pMsg$[ebp]
  000ce	52		 push	 edx
  000cf	50		 push	 eax
  000d0	c7 86 88 0e 00
	00 00 00 00 00	 mov	 DWORD PTR [esi+3720], 0
  000da	c6 45 ef f0	 mov	 BYTE PTR _pMsg$[ebp+3], 240 ; 000000f0H
  000de	e8 00 00 00 00	 call	 ?DataSend@@YAHHPAEK@Z	; DataSend
  000e3	83 c4 0c	 add	 esp, 12			; 0000000cH

; 1645 : 
; 1646 : 		return 1;

  000e6	8b c7		 mov	 eax, edi
  000e8	5f		 pop	 edi
  000e9	5e		 pop	 esi
  000ea	5b		 pop	 ebx

; 1748 : #endif
; 1749 : 		return FALSE;
; 1750 : 	}
; 1751 : }

  000eb	8b 4d fc	 mov	 ecx, DWORD PTR __$ArrayPad$[ebp]
  000ee	33 cd		 xor	 ecx, ebp
  000f0	e8 00 00 00 00	 call	 @__security_check_cookie@4
  000f5	8b e5		 mov	 esp, ebp
  000f7	5d		 pop	 ebp
  000f8	c2 04 00	 ret	 4
$LN15@CircleChao:

; 1647 : 	}
; 1648 : 
; 1649 : 	if ( lpObj->Level < 10 )

  000fb	66 83 be be 00
	00 00 0a	 cmp	 WORD PTR [esi+190], 10	; 0000000aH
  00103	7d 37		 jge	 SHORT $LN14@CircleChao

; 1650 : 	{
; 1651 : 		pMsg.Result = CB_LOW_LEVEL_USER;
; 1652 : 
; 1653 : 		DataSend(lpObj->m_Index, (LPBYTE)&pMsg, pMsg.h.size);

  00105	0f b6 4d ed	 movzx	 ecx, BYTE PTR _pMsg$[ebp+1]
  00109	8b 06		 mov	 eax, DWORD PTR [esi]
  0010b	51		 push	 ecx
  0010c	8d 55 ec	 lea	 edx, DWORD PTR _pMsg$[ebp]
  0010f	52		 push	 edx
  00110	50		 push	 eax
  00111	c6 45 ef 04	 mov	 BYTE PTR _pMsg$[ebp+3], 4
  00115	e8 00 00 00 00	 call	 ?DataSend@@YAHHPAEK@Z	; DataSend
  0011a	83 c4 0c	 add	 esp, 12			; 0000000cH

; 1654 : 		lpObj->ChaosLock = FALSE;
; 1655 : 
; 1656 : 		return TRUE;

  0011d	8b c7		 mov	 eax, edi
  0011f	5f		 pop	 edi
  00120	c7 86 88 0e 00
	00 00 00 00 00	 mov	 DWORD PTR [esi+3720], 0
  0012a	5e		 pop	 esi
  0012b	5b		 pop	 ebx

; 1748 : #endif
; 1749 : 		return FALSE;
; 1750 : 	}
; 1751 : }

  0012c	8b 4d fc	 mov	 ecx, DWORD PTR __$ArrayPad$[ebp]
  0012f	33 cd		 xor	 ecx, ebp
  00131	e8 00 00 00 00	 call	 @__security_check_cookie@4
  00136	8b e5		 mov	 esp, ebp
  00138	5d		 pop	 ebp
  00139	c2 04 00	 ret	 4
$LN14@CircleChao:

; 1657 : 	}
; 1658 : 
; 1659 : 	int nChaosNeedMoney = 3000000;
; 1660 : 	int iChaosTaxMoney = (int)((__int64)nChaosNeedMoney * (__int64)g_CastleSiegeSync.GetTaxRateChaos(lpObj->m_Index) / (__int64)100);

  0013c	8b 0e		 mov	 ecx, DWORD PTR [esi]
  0013e	51		 push	 ecx
  0013f	b9 00 00 00 00	 mov	 ecx, OFFSET ?g_CastleSiegeSync@@3VCCastleSiegeSync@@A ; g_CastleSiegeSync
  00144	e8 00 00 00 00	 call	 ?GetTaxRateChaos@CCastleSiegeSync@@QAEHH@Z ; CCastleSiegeSync::GetTaxRateChaos
  00149	6a 00		 push	 0
  0014b	99		 cdq
  0014c	68 c0 c6 2d 00	 push	 3000000			; 002dc6c0H
  00151	52		 push	 edx
  00152	50		 push	 eax
  00153	e8 00 00 00 00	 call	 __allmul
  00158	6a 00		 push	 0
  0015a	6a 64		 push	 100			; 00000064H
  0015c	52		 push	 edx
  0015d	50		 push	 eax
  0015e	e8 00 00 00 00	 call	 __alldiv
  00163	8b d8		 mov	 ebx, eax

; 1661 : 
; 1662 : 	if ( iChaosTaxMoney < 0 )

  00165	85 db		 test	 ebx, ebx
  00167	79 02		 jns	 SHORT $LN13@CircleChao

; 1663 : 	{
; 1664 : 		iChaosTaxMoney = 0;

  00169	33 db		 xor	 ebx, ebx
$LN13@CircleChao:

; 1665 : 	}
; 1666 : 
; 1667 : 	nChaosNeedMoney += iChaosTaxMoney;
; 1668 : 
; 1669 : 	nChaosNeedMoney += lpObj->m_AddMixMoney;

  0016b	8b 96 20 28 00
	00		 mov	 edx, DWORD PTR [esi+10272]
  00171	8d bc 1a c0 c6
	2d 00		 lea	 edi, DWORD PTR [edx+ebx+3000000]

; 1670 : 
; 1671 : 	if ( nChaosNeedMoney < 0 )

  00178	85 ff		 test	 edi, edi
  0017a	79 02		 jns	 SHORT $LN12@CircleChao

; 1672 : 	{
; 1673 : 		nChaosNeedMoney = 0;

  0017c	33 ff		 xor	 edi, edi
$LN12@CircleChao:

; 1674 : 	}
; 1675 : 
; 1676 : 	if ( lpObj->Money < nChaosNeedMoney )

  0017e	39 be f0 00 00
	00		 cmp	 DWORD PTR [esi+240], edi
  00184	7d 44		 jge	 SHORT $LN11@CircleChao

; 1677 : 	{
; 1678 : 		lpObj->ChaosLock = FALSE;
; 1679 : 		pMsg.Result = CB_NOT_ENOUGH_ZEN;
; 1680 : 		
; 1681 : 		DataSend(lpObj->m_Index, (LPBYTE)&pMsg, pMsg.h.size);

  00186	0f b6 45 ed	 movzx	 eax, BYTE PTR _pMsg$[ebp+1]
  0018a	8b 16		 mov	 edx, DWORD PTR [esi]
  0018c	50		 push	 eax
  0018d	8d 4d ec	 lea	 ecx, DWORD PTR _pMsg$[ebp]
  00190	51		 push	 ecx
  00191	52		 push	 edx
  00192	c7 86 88 0e 00
	00 00 00 00 00	 mov	 DWORD PTR [esi+3720], 0
  0019c	c6 45 ef 02	 mov	 BYTE PTR _pMsg$[ebp+3], 2
  001a0	e8 00 00 00 00	 call	 ?DataSend@@YAHHPAEK@Z	; DataSend
  001a5	83 c4 0c	 add	 esp, 12			; 0000000cH
  001a8	5f		 pop	 edi

; 1682 : 		lpObj->ChaosLock = FALSE;

  001a9	c7 86 88 0e 00
	00 00 00 00 00	 mov	 DWORD PTR [esi+3720], 0
  001b3	5e		 pop	 esi

; 1683 : 
; 1684 : 		return TRUE;

  001b4	b8 01 00 00 00	 mov	 eax, 1
  001b9	5b		 pop	 ebx

; 1748 : #endif
; 1749 : 		return FALSE;
; 1750 : 	}
; 1751 : }

  001ba	8b 4d fc	 mov	 ecx, DWORD PTR __$ArrayPad$[ebp]
  001bd	33 cd		 xor	 ecx, ebp
  001bf	e8 00 00 00 00	 call	 @__security_check_cookie@4
  001c4	8b e5		 mov	 esp, ebp
  001c6	5d		 pop	 ebp
  001c7	c2 04 00	 ret	 4
$LN11@CircleChao:

; 1685 : 	}
; 1686 : 
; 1687 : 	LogChaosItem(lpObj, "CircleMix");

  001ca	8b 4d dc	 mov	 ecx, DWORD PTR _this$[ebp]
  001cd	68 00 00 00 00	 push	 OFFSET ??_C@_09CKGJGION@CircleMix?$AA@
  001d2	56		 push	 esi
  001d3	e8 00 00 00 00	 call	 ?LogChaosItem@CMixSystem@@QAEXPAUOBJECTSTRUCT@@PAD@Z ; CMixSystem::LogChaosItem

; 1688 : 	LogAddTD("[CircleMix] Chaos Mix Start");

  001d8	68 00 00 00 00	 push	 OFFSET ??_C@_0BM@EFIHICLO@?$FLCircleMix?$FN?5Chaos?5Mix?5Start?$AA@
  001dd	ff 15 00 00 00
	00		 call	 DWORD PTR ?LogAddTD@@3P6AXPADZZA ; LogAddTD

; 1689 : 	lpObj->ChaosSuccessRate = 90;	// Succes Rate for Fruit
; 1690 : 	lpObj->ChaosSuccessRate += iCharmOfLuckCount;
; 1691 : 
; 1692 : 	lpObj->ChaosSuccessRate += lpObj->m_AddMixSuccessRate;

  001e3	8b 86 24 28 00
	00		 mov	 eax, DWORD PTR [esi+10276]
  001e9	8b 4d e8	 mov	 ecx, DWORD PTR _iCharmOfLuckCount$[ebp]

; 1693 : 	
; 1694 : 
; 1695 : 	lpObj->Money -= nChaosNeedMoney;

  001ec	29 be f0 00 00
	00		 sub	 DWORD PTR [esi+240], edi
  001f2	83 c4 04	 add	 esp, 4
  001f5	8d 54 08 5a	 lea	 edx, DWORD PTR [eax+ecx+90]

; 1696 : 
; 1697 : 	g_CastleSiegeSync.AddTributeMoney(iChaosTaxMoney);

  001f9	53		 push	 ebx
  001fa	b9 00 00 00 00	 mov	 ecx, OFFSET ?g_CastleSiegeSync@@3VCCastleSiegeSync@@A ; g_CastleSiegeSync
  001ff	89 96 84 0e 00
	00		 mov	 DWORD PTR [esi+3716], edx
  00205	e8 00 00 00 00	 call	 ?AddTributeMoney@CCastleSiegeSync@@QAEXH@Z ; CCastleSiegeSync::AddTributeMoney

; 1698 : 	GCMoneySend(lpObj->m_Index, lpObj->Money);

  0020a	8b 86 f0 00 00
	00		 mov	 eax, DWORD PTR [esi+240]
  00210	8b 0e		 mov	 ecx, DWORD PTR [esi]
  00212	50		 push	 eax
  00213	51		 push	 ecx
  00214	e8 00 00 00 00	 call	 ?GCMoneySend@@YAXHK@Z	; GCMoneySend
  00219	83 c4 08	 add	 esp, 8

; 1699 : 
; 1700 : 	if ( (rand()%100 ) < lpObj->ChaosSuccessRate )

  0021c	e8 00 00 00 00	 call	 _rand
  00221	99		 cdq
  00222	b9 64 00 00 00	 mov	 ecx, 100		; 00000064H
  00227	f7 f9		 idiv	 ecx
  00229	3b 96 84 0e 00
	00		 cmp	 edx, DWORD PTR [esi+3716]
  0022f	0f 8d ba 00 00
	00		 jge	 $LN10@CircleChao

; 1701 : 	{
; 1702 : 		int Fruit = ITEMGET(13,15);	// Fruit
; 1703 : 		int FruitType;
; 1704 : 		int RandonValue = rand() % 100;

  00235	e8 00 00 00 00	 call	 _rand
  0023a	99		 cdq
  0023b	b9 64 00 00 00	 mov	 ecx, 100		; 00000064H
  00240	f7 f9		 idiv	 ecx

; 1705 : 
; 1706 : 		if ( RandonValue < 30 )

  00242	83 fa 1e	 cmp	 edx, 30			; 0000001eH
  00245	7d 04		 jge	 SHORT $LN9@CircleChao

; 1707 : 		{
; 1708 : 			FruitType = 0;

  00247	33 c0		 xor	 eax, eax
  00249	eb 23		 jmp	 SHORT $LN3@CircleChao
$LN9@CircleChao:

; 1709 : 		}
; 1710 : 		else if ( RandonValue < 55 )

  0024b	83 fa 37	 cmp	 edx, 55			; 00000037H
  0024e	7d 07		 jge	 SHORT $LN7@CircleChao

; 1711 : 		{
; 1712 : 			FruitType = 1;

  00250	b8 01 00 00 00	 mov	 eax, 1
  00255	eb 17		 jmp	 SHORT $LN3@CircleChao
$LN7@CircleChao:

; 1713 : 		}
; 1714 : 		else if ( RandonValue < 75 )

  00257	83 fa 4b	 cmp	 edx, 75			; 0000004bH
  0025a	7d 07		 jge	 SHORT $LN5@CircleChao

; 1715 : 		{
; 1716 : 			FruitType = 2;

  0025c	b8 02 00 00 00	 mov	 eax, 2
  00261	eb 0b		 jmp	 SHORT $LN3@CircleChao
$LN5@CircleChao:

; 1717 : 		}
; 1718 : 		else if ( RandonValue < 95 )

  00263	33 c0		 xor	 eax, eax
  00265	83 fa 5f	 cmp	 edx, 95			; 0000005fH
  00268	0f 9d c0	 setge	 al
  0026b	83 c0 03	 add	 eax, 3
$LN3@CircleChao:

; 1719 : 		{
; 1720 : 			FruitType = 3;
; 1721 : 		}
; 1722 : 		else
; 1723 : 		{
; 1724 : 			FruitType = 4;
; 1725 : 		}
; 1726 : 
; 1727 : 		::ItemSerialCreateSend(lpObj->m_Index, -1, 0, 0, Fruit, (BYTE)FruitType, 255, 1, 0, 0, -1, 0, 0);

  0026e	6a 00		 push	 0
  00270	8b 16		 mov	 edx, DWORD PTR [esi]
  00272	6a 00		 push	 0
  00274	6a ff		 push	 -1
  00276	6a 00		 push	 0
  00278	6a 00		 push	 0
  0027a	6a 01		 push	 1
  0027c	68 ff 00 00 00	 push	 255			; 000000ffH
  00281	50		 push	 eax
  00282	68 0f 1a 00 00	 push	 6671			; 00001a0fH
  00287	6a 00		 push	 0
  00289	6a 00		 push	 0
  0028b	68 ff 00 00 00	 push	 255			; 000000ffH
  00290	52		 push	 edx
  00291	e8 00 00 00 00	 call	 ?ItemSerialCreateSend@@YAXHEEEHEEEEEHEE@Z ; ItemSerialCreateSend

; 1728 : 		::gObjInventoryCommit(lpObj->m_Index);

  00296	8b 06		 mov	 eax, DWORD PTR [esi]
  00298	50		 push	 eax
  00299	e8 00 00 00 00	 call	 ?gObjInventoryCommit@@YAHH@Z ; gObjInventoryCommit

; 1729 : #if(SYSTEM_ACHIEVEMENTS)
; 1730 : 		g_Achievements.SuccessChaosMix(lpObj->m_Index);

  0029e	8b 0e		 mov	 ecx, DWORD PTR [esi]
  002a0	83 c4 38	 add	 esp, 56			; 00000038H
  002a3	51		 push	 ecx
  002a4	b9 00 00 00 00	 mov	 ecx, OFFSET ?g_Achievements@@3VCAchievements@@A ; g_Achievements
  002a9	e8 00 00 00 00	 call	 ?SuccessChaosMix@CAchievements@@QAEXH@Z ; CAchievements::SuccessChaosMix

; 1731 : #endif
; 1732 : 		LogAddTD("[CircleMix] [%s][%s] CBMix Success %d Money : %d-%d, CharmRate : %d",
; 1733 : 			lpObj->AccountID, lpObj->Name, lpObj->ChaosSuccessRate, lpObj->Money, nChaosNeedMoney, iCharmOfLuckCount);

  002ae	8b 55 e8	 mov	 edx, DWORD PTR _iCharmOfLuckCount$[ebp]
  002b1	8b 86 f0 00 00
	00		 mov	 eax, DWORD PTR [esi+240]
  002b7	8b 8e 84 0e 00
	00		 mov	 ecx, DWORD PTR [esi+3716]
  002bd	52		 push	 edx
  002be	57		 push	 edi
  002bf	50		 push	 eax
  002c0	51		 push	 ecx
  002c1	8d 56 77	 lea	 edx, DWORD PTR [esi+119]
  002c4	52		 push	 edx
  002c5	83 c6 6c	 add	 esi, 108		; 0000006cH
  002c8	56		 push	 esi
  002c9	68 00 00 00 00	 push	 OFFSET ??_C@_0EE@PAFLGDEL@?$FLCircleMix?$FN?5?$FL?$CFs?$FN?$FL?$CFs?$FN?5CBMix?5Succe@
  002ce	ff 15 00 00 00
	00		 call	 DWORD PTR ?LogAddTD@@3P6AXPADZZA ; LogAddTD
  002d4	83 c4 1c	 add	 esp, 28			; 0000001cH
  002d7	5f		 pop	 edi
  002d8	5e		 pop	 esi

; 1734 : 
; 1735 : 		return TRUE;

  002d9	b8 01 00 00 00	 mov	 eax, 1
  002de	5b		 pop	 ebx

; 1748 : #endif
; 1749 : 		return FALSE;
; 1750 : 	}
; 1751 : }

  002df	8b 4d fc	 mov	 ecx, DWORD PTR __$ArrayPad$[ebp]
  002e2	33 cd		 xor	 ecx, ebp
  002e4	e8 00 00 00 00	 call	 @__security_check_cookie@4
  002e9	8b e5		 mov	 esp, ebp
  002eb	5d		 pop	 ebp
  002ec	c2 04 00	 ret	 4
$LN10@CircleChao:

; 1736 : 	}
; 1737 : 	else
; 1738 : 	{
; 1739 : 		this->ChaosBoxInit(lpObj);

  002ef	8b 4d dc	 mov	 ecx, DWORD PTR _this$[ebp]
  002f2	56		 push	 esi
  002f3	e8 00 00 00 00	 call	 ?ChaosBoxInit@CMixSystem@@QAEHPAUOBJECTSTRUCT@@@Z ; CMixSystem::ChaosBoxInit

; 1740 : 		GCUserChaosBoxSend(lpObj, 0);

  002f8	6a 00		 push	 0
  002fa	56		 push	 esi
  002fb	e8 00 00 00 00	 call	 ?GCUserChaosBoxSend@@YAXPAUOBJECTSTRUCT@@H@Z ; GCUserChaosBoxSend

; 1741 : 
; 1742 : 		DataSend(lpObj->m_Index, (LPBYTE)&pMsg, pMsg.h.size);

  00300	0f b6 45 ed	 movzx	 eax, BYTE PTR _pMsg$[ebp+1]
  00304	8b 16		 mov	 edx, DWORD PTR [esi]
  00306	50		 push	 eax
  00307	8d 4d ec	 lea	 ecx, DWORD PTR _pMsg$[ebp]
  0030a	51		 push	 ecx
  0030b	52		 push	 edx
  0030c	e8 00 00 00 00	 call	 ?DataSend@@YAHHPAEK@Z	; DataSend

; 1743 : 		LogAddTD("[CircleMix] [%s][%s] CBMix Fail %d Money : %d-%d, CharmRate : %d",
; 1744 : 			lpObj->AccountID, lpObj->Name, lpObj->ChaosSuccessRate, lpObj->Money, nChaosNeedMoney, iCharmOfLuckCount);

  00311	8b 45 e8	 mov	 eax, DWORD PTR _iCharmOfLuckCount$[ebp]
  00314	8b 8e f0 00 00
	00		 mov	 ecx, DWORD PTR [esi+240]
  0031a	8b 96 84 0e 00
	00		 mov	 edx, DWORD PTR [esi+3716]
  00320	50		 push	 eax
  00321	57		 push	 edi
  00322	51		 push	 ecx
  00323	52		 push	 edx
  00324	8d 46 77	 lea	 eax, DWORD PTR [esi+119]
  00327	50		 push	 eax
  00328	8d 4e 6c	 lea	 ecx, DWORD PTR [esi+108]
  0032b	51		 push	 ecx
  0032c	68 00 00 00 00	 push	 OFFSET ??_C@_0EB@FKBAIBLL@?$FLCircleMix?$FN?5?$FL?$CFs?$FN?$FL?$CFs?$FN?5CBMix?5Fail?5@
  00331	ff 15 00 00 00
	00		 call	 DWORD PTR ?LogAddTD@@3P6AXPADZZA ; LogAddTD

; 1745 : 		lpObj->ChaosLock = FALSE;
; 1746 : #if(SYSTEM_ACHIEVEMENTS)
; 1747 : 		g_Achievements.FailedChaosMix(lpObj->m_Index);

  00337	8b 16		 mov	 edx, DWORD PTR [esi]
  00339	83 c4 30	 add	 esp, 48			; 00000030H
  0033c	52		 push	 edx
  0033d	b9 00 00 00 00	 mov	 ecx, OFFSET ?g_Achievements@@3VCAchievements@@A ; g_Achievements
  00342	c7 86 88 0e 00
	00 00 00 00 00	 mov	 DWORD PTR [esi+3720], 0
  0034c	e8 00 00 00 00	 call	 ?FailedChaosMix@CAchievements@@QAEXH@Z ; CAchievements::FailedChaosMix
$LN16@CircleChao:

; 1748 : #endif
; 1749 : 		return FALSE;
; 1750 : 	}
; 1751 : }

  00351	8b 4d fc	 mov	 ecx, DWORD PTR __$ArrayPad$[ebp]
  00354	5f		 pop	 edi
  00355	5e		 pop	 esi
  00356	33 cd		 xor	 ecx, ebp
  00358	33 c0		 xor	 eax, eax
  0035a	5b		 pop	 ebx
  0035b	e8 00 00 00 00	 call	 @__security_check_cookie@4
  00360	8b e5		 mov	 esp, ebp
  00362	5d		 pop	 ebp
  00363	c2 04 00	 ret	 4
?CircleChaosMix@CMixSystem@@QAEHPAUOBJECTSTRUCT@@@Z ENDP ; CMixSystem::CircleChaosMix
_TEXT	ENDS
PUBLIC	??_C@_0EB@GCGNBAFG@?$FLWingMix?02?$FN?5?$FL?$CFs?$FN?$FL?$CFs?$FN?5CBMix?5Fail?5@ ; `string'
PUBLIC	??_C@_0EE@BHIPJGFK@?$FLWingMix?02?$FN?5?$FL?$CFs?$FN?$FL?$CFs?$FN?5CBMix?5Succe@ ; `string'
PUBLIC	??_C@_0EI@LFGBMPMJ@?$FLMixSystem?$FN?$FLWingChaosMix?$FN?5WingCh@ ; `string'
PUBLIC	??_C@_0BM@JPABEGNL@?$FLWingMix?02?$FN?5Chaos?5Mix?5Start?$AA@ ; `string'
PUBLIC	??_C@_09GJEFJCKN@WingMix?02?$AA@		; `string'
PUBLIC	__$ArrayPad$
PUBLIC	?WingChaosMix@CMixSystem@@QAEHPAUOBJECTSTRUCT@@@Z ; CMixSystem::WingChaosMix
EXTRN	_srand:PROC
;	COMDAT ??_C@_0EB@GCGNBAFG@?$FLWingMix?02?$FN?5?$FL?$CFs?$FN?$FL?$CFs?$FN?5CBMix?5Fail?5@
; File d:\program files (x86)\microsoft visual studio 10.0\vc\include\time.inl
CONST	SEGMENT
??_C@_0EB@GCGNBAFG@?$FLWingMix?02?$FN?5?$FL?$CFs?$FN?$FL?$CFs?$FN?5CBMix?5Fail?5@ DB '['
	DB	'WingMix,2] [%s][%s] CBMix Fail %d Money : %d-%d, CharmRate : '
	DB	'%d', 00H					; `string'
CONST	ENDS
;	COMDAT ??_C@_0EE@BHIPJGFK@?$FLWingMix?02?$FN?5?$FL?$CFs?$FN?$FL?$CFs?$FN?5CBMix?5Succe@
CONST	SEGMENT
??_C@_0EE@BHIPJGFK@?$FLWingMix?02?$FN?5?$FL?$CFs?$FN?$FL?$CFs?$FN?5CBMix?5Succe@ DB '['
	DB	'WingMix,2] [%s][%s] CBMix Success %d Money : %d-%d, CharmRate'
	DB	' : %d', 00H					; `string'
CONST	ENDS
;	COMDAT ??_C@_0EI@LFGBMPMJ@?$FLMixSystem?$FN?$FLWingChaosMix?$FN?5WingCh@
CONST	SEGMENT
??_C@_0EI@LFGBMPMJ@?$FLMixSystem?$FN?$FLWingChaosMix?$FN?5WingCh@ DB '[Mi'
	DB	'xSystem][WingChaosMix] WingCharmItemNum => %d , WingCharmInde'
	DB	'x => %d', 00H				; `string'
CONST	ENDS
;	COMDAT ??_C@_0BM@JPABEGNL@?$FLWingMix?02?$FN?5Chaos?5Mix?5Start?$AA@
CONST	SEGMENT
??_C@_0BM@JPABEGNL@?$FLWingMix?02?$FN?5Chaos?5Mix?5Start?$AA@ DB '[WingMi'
	DB	'x,2] Chaos Mix Start', 00H			; `string'
CONST	ENDS
;	COMDAT ??_C@_09GJEFJCKN@WingMix?02?$AA@
CONST	SEGMENT
??_C@_09GJEFJCKN@WingMix?02?$AA@ DB 'WingMix,2', 00H	; `string'
; Function compile flags: /Ogtp
; File e:\work\tranet_version\gs\gameserver\mixsystem.cpp
CONST	ENDS
;	COMDAT ?WingChaosMix@CMixSystem@@QAEHPAUOBJECTSTRUCT@@@Z
_TEXT	SEGMENT
_iWingNum$218334 = -56					; size = 4
_this$ = -56						; size = 4
_iChaosMoney$ = -52					; size = 4
_iSleeveOfLord$ = -48					; size = 4
_iOption1$218335 = -44					; size = 4
_WingCharmItemNum$ = -44				; size = 4
_iCharmOfLuckCount$ = -40				; size = 4
_iRandomValue$218339 = -36				; size = 4
_iWingChaosMoney$ = -36					; size = 4
_nChaosNeedMoney$ = -32					; size = 4
_LokesFeathersCount$ = -32				; size = 4
_iOption2$218336 = -28					; size = 4
_ChoasGemCount$ = -28					; size = 4
_iItemType$218306 = -24					; size = 4
_WingCount$ = -24					; size = 4
_pMsg$ = -20						; size = 16
__$ArrayPad$ = -4					; size = 4
_lpObj$ = 8						; size = 4
?WingChaosMix@CMixSystem@@QAEHPAUOBJECTSTRUCT@@@Z PROC	; CMixSystem::WingChaosMix, COMDAT
; _this$ = ecx

; 1754 : {

  00000	55		 push	 ebp
  00001	8b ec		 mov	 ebp, esp
  00003	83 ec 38	 sub	 esp, 56			; 00000038H
  00006	a1 00 00 00 00	 mov	 eax, DWORD PTR ___security_cookie
  0000b	33 c5		 xor	 eax, ebp
  0000d	89 45 fc	 mov	 DWORD PTR __$ArrayPad$[ebp], eax
  00010	53		 push	 ebx
  00011	56		 push	 esi
  00012	8b 75 08	 mov	 esi, DWORD PTR _lpObj$[ebp]
  00015	57		 push	 edi

; 1755 : 	lpObj->ChaosLock = TRUE;
; 1756 : 
; 1757 : 	int WingCount = 0;

  00016	33 ff		 xor	 edi, edi
  00018	89 4d c8	 mov	 DWORD PTR _this$[ebp], ecx
  0001b	c7 86 88 0e 00
	00 01 00 00 00	 mov	 DWORD PTR [esi+3720], 1
  00025	89 7d e8	 mov	 DWORD PTR _WingCount$[ebp], edi

; 1758 : 	int ChoasGemCount = 0;

  00028	89 7d e4	 mov	 DWORD PTR _ChoasGemCount$[ebp], edi

; 1759 : 	int LokesFeathersCount = 0;

  0002b	89 7d e0	 mov	 DWORD PTR _LokesFeathersCount$[ebp], edi

; 1760 : 	int WingIndex = -1;
; 1761 : 	int iChaosMoney = 0;

  0002e	33 db		 xor	 ebx, ebx

; 1762 : 	int WingCharmItemNum = -1; //season4.5 add-on

  00030	c7 45 d4 ff ff
	ff ff		 mov	 DWORD PTR _WingCharmItemNum$[ebp], -1

; 1763 : 	int iWingChaosMoney = 0;

  00037	89 7d dc	 mov	 DWORD PTR _iWingChaosMoney$[ebp], edi

; 1764 : 	int iSleeveOfLord = 0;

  0003a	89 7d d0	 mov	 DWORD PTR _iSleeveOfLord$[ebp], edi

; 1765 : 	int iCharmOfLuckCount = 0;

  0003d	89 7d d8	 mov	 DWORD PTR _iCharmOfLuckCount$[ebp], edi
$LL81@WingChaosM:

; 1768 : 	{
; 1769 : 		if ( lpObj->pChaosBox[n].IsItem() == TRUE )

  00040	8b 8e 78 0e 00
	00		 mov	 ecx, DWORD PTR [esi+3704]
  00046	03 cf		 add	 ecx, edi
  00048	e8 00 00 00 00	 call	 ?IsItem@CItem@@QAEHXZ	; CItem::IsItem
  0004d	83 f8 01	 cmp	 eax, 1
  00050	0f 85 0f 01 00
	00		 jne	 $LN80@WingChaosM

; 1770 : 		{
; 1771 : 			if ( (lpObj->pChaosBox[n].m_Type >= ITEMGET(12,3) && lpObj->pChaosBox[n].m_Type <= ITEMGET(12,6)) || lpObj->pChaosBox[n].m_Type == ITEMGET(12,42) || lpObj->pChaosBox[n].m_Type == ITEMGET(14,30) )	

  00056	8b 86 78 0e 00
	00		 mov	 eax, DWORD PTR [esi+3704]
  0005c	8d 0c 07	 lea	 ecx, DWORD PTR [edi+eax]
  0005f	0f b7 41 06	 movzx	 eax, WORD PTR [ecx+6]
  00063	ba 03 18 00 00	 mov	 edx, 6147		; 00001803H
  00068	66 3b c2	 cmp	 ax, dx
  0006b	7c 0e		 jl	 SHORT $LN75@WingChaosM
  0006d	ba 06 18 00 00	 mov	 edx, 6150		; 00001806H
  00072	66 3b c2	 cmp	 ax, dx
  00075	0f 8e 43 01 00
	00		 jle	 $LN88@WingChaosM
$LN75@WingChaosM:
  0007b	ba 2a 18 00 00	 mov	 edx, 6186		; 0000182aH
  00080	66 3b c2	 cmp	 ax, dx
  00083	0f 84 35 01 00
	00		 je	 $LN88@WingChaosM
  00089	ba 1e 1c 00 00	 mov	 edx, 7198		; 00001c1eH
  0008e	66 3b c2	 cmp	 ax, dx
  00091	0f 84 27 01 00
	00		 je	 $LN88@WingChaosM

; 1776 : 			}
; 1777 : 			if ( lpObj->pChaosBox[n].m_Type >= ITEMGET(12,0) && lpObj->pChaosBox[n].m_Type <= ITEMGET(12,2) ) 

  00097	ba 00 18 00 00	 mov	 edx, 6144		; 00001800H
  0009c	66 3b c2	 cmp	 ax, dx
  0009f	7c 13		 jl	 SHORT $LN74@WingChaosM
  000a1	ba 02 18 00 00	 mov	 edx, 6146		; 00001802H
  000a6	66 3b c2	 cmp	 ax, dx
  000a9	7f 09		 jg	 SHORT $LN74@WingChaosM

; 1778 : 			{
; 1779 : 				WingCount++;
; 1780 : 				WingIndex = n;
; 1781 : 				iWingChaosMoney = lpObj->pChaosBox[n].m_BuyMoney;

  000ab	8b 51 70	 mov	 edx, DWORD PTR [ecx+112]
  000ae	ff 45 e8	 inc	 DWORD PTR _WingCount$[ebp]
  000b1	89 55 dc	 mov	 DWORD PTR _iWingChaosMoney$[ebp], edx
$LN74@WingChaosM:

; 1782 : 			}
; 1783 : 			if ( lpObj->pChaosBox[n].m_Type == ITEMGET(12,41) ) //season3 add-on

  000b4	ba 29 18 00 00	 mov	 edx, 6185		; 00001829H
  000b9	66 3b c2	 cmp	 ax, dx
  000bc	75 0e		 jne	 SHORT $LN73@WingChaosM

; 1784 : 			{
; 1785 : 				WingCount++;
; 1786 : 				WingIndex = n;
; 1787 : 				iWingChaosMoney = lpObj->pChaosBox[n].m_BuyMoney;

  000be	8b 41 70	 mov	 eax, DWORD PTR [ecx+112]
  000c1	ff 45 e8	 inc	 DWORD PTR _WingCount$[ebp]
  000c4	89 45 dc	 mov	 DWORD PTR _iWingChaosMoney$[ebp], eax
  000c7	e9 99 00 00 00	 jmp	 $LN80@WingChaosM
$LN73@WingChaosM:

; 1788 : 			}
; 1789 : 			else if ( lpObj->pChaosBox[n].m_Type == ITEMGET(12,15) ) // Chaos

  000cc	ba 0f 18 00 00	 mov	 edx, 6159		; 0000180fH
  000d1	66 3b c2	 cmp	 ax, dx
  000d4	75 08		 jne	 SHORT $LN71@WingChaosM

; 1790 : 			{
; 1791 : 				ChoasGemCount++;

  000d6	ff 45 e4	 inc	 DWORD PTR _ChoasGemCount$[ebp]
  000d9	e9 87 00 00 00	 jmp	 $LN80@WingChaosM
$LN71@WingChaosM:

; 1792 : 			}
; 1793 : 			else if ( lpObj->pChaosBox[n].m_Type == ITEMGET(13,14) ) // Feather

  000de	ba 0e 1a 00 00	 mov	 edx, 6670		; 00001a0eH
  000e3	66 3b c2	 cmp	 ax, dx
  000e6	75 11		 jne	 SHORT $LN69@WingChaosM

; 1794 : 			{
; 1795 : 				if ( lpObj->pChaosBox[n].m_Level == 0 ) // Feather

  000e8	66 83 79 08 00	 cmp	 WORD PTR [ecx+8], 0
  000ed	75 05		 jne	 SHORT $LN68@WingChaosM

; 1796 : 				{
; 1797 : 					LokesFeathersCount++;

  000ef	ff 45 e0	 inc	 DWORD PTR _LokesFeathersCount$[ebp]

; 1798 : 				}
; 1799 : 				else

  000f2	eb 71		 jmp	 SHORT $LN80@WingChaosM
$LN68@WingChaosM:

; 1800 : 				{
; 1801 : 					iSleeveOfLord ++;

  000f4	ff 45 d0	 inc	 DWORD PTR _iSleeveOfLord$[ebp]

; 1802 : 				}

  000f7	eb 6c		 jmp	 SHORT $LN80@WingChaosM
$LN69@WingChaosM:

; 1803 : 			}
; 1804 : 			else if ( lpObj->pChaosBox[n].m_Type == ITEMGET(14,53) )	// Charm Of Luck

  000f9	ba 35 1c 00 00	 mov	 edx, 7221		; 00001c35H
  000fe	66 3b c2	 cmp	 ax, dx
  00101	75 0d		 jne	 SHORT $LN65@WingChaosM

; 1805 : 			{
; 1806 : 				iCharmOfLuckCount += (int)lpObj->pChaosBox[n].m_Durability;

  00103	d9 41 24	 fld	 DWORD PTR [ecx+36]
  00106	e8 00 00 00 00	 call	 __ftol2_sse
  0010b	01 45 d8	 add	 DWORD PTR _iCharmOfLuckCount$[ebp], eax

; 1807 : 			}
; 1808 : 			else if(lpObj->pChaosBox[n].m_Type == ITEMGET(13,88) || //season4.5 add-on

  0010e	eb 55		 jmp	 SHORT $LN80@WingChaosM
$LN65@WingChaosM:

; 1809 : 					lpObj->pChaosBox[n].m_Type == ITEMGET(13,89) ||
; 1810 : 					lpObj->pChaosBox[n].m_Type == ITEMGET(13,90) ||
; 1811 : 					lpObj->pChaosBox[n].m_Type == ITEMGET(13,91) ||
; 1812 : 					lpObj->pChaosBox[n].m_Type == ITEMGET(13,92) )

  00110	ba 58 1a 00 00	 mov	 edx, 6744		; 00001a58H
  00115	66 3b c2	 cmp	 ax, dx
  00118	74 45		 je	 SHORT $LN62@WingChaosM
  0011a	ba 59 1a 00 00	 mov	 edx, 6745		; 00001a59H
  0011f	66 3b c2	 cmp	 ax, dx
  00122	74 3b		 je	 SHORT $LN62@WingChaosM
  00124	ba 5a 1a 00 00	 mov	 edx, 6746		; 00001a5aH
  00129	66 3b c2	 cmp	 ax, dx
  0012c	74 31		 je	 SHORT $LN62@WingChaosM
  0012e	ba 5b 1a 00 00	 mov	 edx, 6747		; 00001a5bH
  00133	66 3b c2	 cmp	 ax, dx
  00136	74 27		 je	 SHORT $LN62@WingChaosM
  00138	ba 5c 1a 00 00	 mov	 edx, 6748		; 00001a5cH
  0013d	66 3b c2	 cmp	 ax, dx
  00140	74 1d		 je	 SHORT $LN62@WingChaosM

; 1815 : 			}
; 1816 : 			else if ( lpObj->pChaosBox[n].IsExtItem() != FALSE )

  00142	e8 00 00 00 00	 call	 ?IsExtItem@CItem@@QAEHXZ ; CItem::IsExtItem
  00147	85 c0		 test	 eax, eax
  00149	74 1a		 je	 SHORT $LN80@WingChaosM

; 1817 : 			{
; 1818 : 				if ( lpObj->pChaosBox[n].m_Level >= 4 )

  0014b	8b 86 78 0e 00
	00		 mov	 eax, DWORD PTR [esi+3704]
  00151	66 83 7c 38 08
	04		 cmp	 WORD PTR [eax+edi+8], 4
  00157	7c 0c		 jl	 SHORT $LN80@WingChaosM

; 1819 : 				{
; 1820 : 					iChaosMoney += lpObj->pChaosBox[n].m_BuyMoney;

  00159	03 5c 38 70	 add	 ebx, DWORD PTR [eax+edi+112]
  0015d	eb 06		 jmp	 SHORT $LN80@WingChaosM
$LN62@WingChaosM:

; 1813 : 			{
; 1814 : 				WingCharmItemNum = lpObj->pChaosBox[n].m_Type;

  0015f	0f bf c8	 movsx	 ecx, ax
  00162	89 4d d4	 mov	 DWORD PTR _WingCharmItemNum$[ebp], ecx
$LN80@WingChaosM:

; 1766 : 
; 1767 : 	for ( int n=0;n<CHAOS_BOX_SIZE;n++)

  00165	81 c7 d4 00 00
	00		 add	 edi, 212		; 000000d4H
  0016b	81 ff 80 1a 00
	00		 cmp	 edi, 6784		; 00001a80H
  00171	0f 8c c9 fe ff
	ff		 jl	 $LL81@WingChaosM

; 1821 : 				}
; 1822 : 			}
; 1823 : 		}
; 1824 : 	}
; 1825 : 
; 1826 : 	PMSG_CHAOSMIXRESULT pMsg;
; 1827 : 
; 1828 : 	PHeadSetB((LPBYTE)&pMsg.h, 0x86, sizeof(PMSG_CHAOSMIXRESULT));

  00177	6a 10		 push	 16			; 00000010H
  00179	8d 55 ec	 lea	 edx, DWORD PTR _pMsg$[ebp]
  0017c	68 86 00 00 00	 push	 134			; 00000086H
  00181	52		 push	 edx
  00182	89 5d cc	 mov	 DWORD PTR _iChaosMoney$[ebp], ebx
  00185	e8 00 00 00 00	 call	 ?PHeadSetB@@YAXPAEEH@Z	; PHeadSetB

; 1829 : 	pMsg.Result = CB_ERROR;
; 1830 : 
; 1831 : 	if ( iSleeveOfLord == 1 )

  0018a	8b 45 d0	 mov	 eax, DWORD PTR _iSleeveOfLord$[ebp]
  0018d	b9 01 00 00 00	 mov	 ecx, 1
  00192	83 c4 0c	 add	 esp, 12			; 0000000cH
  00195	c6 45 ef 00	 mov	 BYTE PTR _pMsg$[ebp+3], 0
  00199	3b c1		 cmp	 eax, ecx
  0019b	75 30		 jne	 SHORT $LN58@WingChaosM

; 1832 : 	{
; 1833 : 		if ( WingCount != 1 || ChoasGemCount != 1 || LokesFeathersCount != 0 )

  0019d	39 4d e8	 cmp	 DWORD PTR _WingCount$[ebp], ecx
  001a0	75 0b		 jne	 SHORT $LN91@WingChaosM
  001a2	39 4d e4	 cmp	 DWORD PTR _ChoasGemCount$[ebp], ecx
  001a5	75 06		 jne	 SHORT $LN91@WingChaosM
  001a7	83 7d e0 00	 cmp	 DWORD PTR _LokesFeathersCount$[ebp], 0
  001ab	74 43		 je	 SHORT $LN53@WingChaosM
$LN91@WingChaosM:

; 1834 : 		{
; 1835 : 			lpObj->ChaosLock = FALSE;
; 1836 : 			pMsg.Result = CB_INCORRECT_MIX_ITEMS;
; 1837 : 			DataSend(lpObj->m_Index, (LPBYTE)&pMsg, pMsg.h.size);

  001ad	0f b6 45 ed	 movzx	 eax, BYTE PTR _pMsg$[ebp+1]
  001b1	8b 16		 mov	 edx, DWORD PTR [esi]
  001b3	50		 push	 eax
  001b4	8d 4d ec	 lea	 ecx, DWORD PTR _pMsg$[ebp]
  001b7	51		 push	 ecx
  001b8	52		 push	 edx

; 1838 : 			return FALSE;

  001b9	e9 b4 04 00 00	 jmp	 $LN103@WingChaosM
$LN88@WingChaosM:

; 1772 : 			{
; 1773 : 				lpObj->ChaosLock = FALSE;

  001be	c7 86 88 0e 00
	00 00 00 00 00	 mov	 DWORD PTR [esi+3720], 0

; 1774 : 
; 1775 : 				return FALSE;

  001c8	e9 bb 04 00 00	 jmp	 $LN102@WingChaosM
$LN58@WingChaosM:

; 1839 : 		}
; 1840 : 	}
; 1841 : 	else if ( LokesFeathersCount == 1 )

  001cd	39 4d e0	 cmp	 DWORD PTR _LokesFeathersCount$[ebp], ecx
  001d0	0f 85 90 04 00
	00		 jne	 $LN54@WingChaosM

; 1842 : 	{
; 1843 : 		if ( WingCount != 1 || ChoasGemCount != 1 || iSleeveOfLord != 0 )

  001d6	39 4d e8	 cmp	 DWORD PTR _WingCount$[ebp], ecx
  001d9	0f 85 ff 00 00
	00		 jne	 $LN92@WingChaosM
  001df	39 4d e4	 cmp	 DWORD PTR _ChoasGemCount$[ebp], ecx
  001e2	0f 85 f6 00 00
	00		 jne	 $LN92@WingChaosM
  001e8	85 c0		 test	 eax, eax
  001ea	0f 85 ee 00 00
	00		 jne	 $LN92@WingChaosM
$LN53@WingChaosM:

; 1857 : 
; 1858 : 		return FALSE;
; 1859 : 	}
; 1860 : 
; 1861 : 	if ( iCharmOfLuckCount > 10 )

  001f0	83 7d d8 0a	 cmp	 DWORD PTR _iCharmOfLuckCount$[ebp], 10 ; 0000000aH
  001f4	7e 22		 jle	 SHORT $LN50@WingChaosM

; 1862 : 	{
; 1863 : 		lpObj->ChaosLock = FALSE;
; 1864 : 		pMsg.Result = 0xF0;
; 1865 : 		DataSend(lpObj->m_Index, (LPBYTE)&pMsg, pMsg.h.size);

  001f6	0f b6 45 ed	 movzx	 eax, BYTE PTR _pMsg$[ebp+1]
  001fa	8b 16		 mov	 edx, DWORD PTR [esi]
  001fc	50		 push	 eax
  001fd	8d 4d ec	 lea	 ecx, DWORD PTR _pMsg$[ebp]
  00200	51		 push	 ecx
  00201	52		 push	 edx
  00202	c7 86 88 0e 00
	00 00 00 00 00	 mov	 DWORD PTR [esi+3720], 0
  0020c	c6 45 ef f0	 mov	 BYTE PTR _pMsg$[ebp+3], 240 ; 000000f0H
  00210	e8 00 00 00 00	 call	 ?DataSend@@YAHHPAEK@Z	; DataSend
  00215	83 c4 0c	 add	 esp, 12			; 0000000cH
$LN50@WingChaosM:

; 1866 : 	}
; 1867 : 
; 1868 : 	int nChaosNeedMoney = 5000000;
; 1869 : 	int iChaosTaxMoney = (int)((__int64)nChaosNeedMoney * (__int64)g_CastleSiegeSync.GetTaxRateChaos(lpObj->m_Index) / (__int64)100);

  00218	8b 06		 mov	 eax, DWORD PTR [esi]
  0021a	50		 push	 eax
  0021b	b9 00 00 00 00	 mov	 ecx, OFFSET ?g_CastleSiegeSync@@3VCCastleSiegeSync@@A ; g_CastleSiegeSync
  00220	e8 00 00 00 00	 call	 ?GetTaxRateChaos@CCastleSiegeSync@@QAEHH@Z ; CCastleSiegeSync::GetTaxRateChaos
  00225	6a 00		 push	 0
  00227	99		 cdq
  00228	68 40 4b 4c 00	 push	 5000000			; 004c4b40H
  0022d	52		 push	 edx
  0022e	50		 push	 eax
  0022f	e8 00 00 00 00	 call	 __allmul
  00234	6a 00		 push	 0
  00236	6a 64		 push	 100			; 00000064H
  00238	52		 push	 edx
  00239	50		 push	 eax
  0023a	e8 00 00 00 00	 call	 __alldiv
  0023f	8b f8		 mov	 edi, eax

; 1870 : 
; 1871 : 	if ( iChaosTaxMoney < 0 )

  00241	85 ff		 test	 edi, edi
  00243	79 02		 jns	 SHORT $LN49@WingChaosM

; 1872 : 	{
; 1873 : 		iChaosTaxMoney = 0;

  00245	33 ff		 xor	 edi, edi
$LN49@WingChaosM:

; 1874 : 	}
; 1875 : 
; 1876 : 	nChaosNeedMoney += iChaosTaxMoney;
; 1877 : 
; 1878 : 		nChaosNeedMoney += lpObj->m_AddMixMoney;

  00247	8b 8e 20 28 00
	00		 mov	 ecx, DWORD PTR [esi+10272]
  0024d	8d 9c 39 40 4b
	4c 00		 lea	 ebx, DWORD PTR [ecx+edi+5000000]
  00254	89 5d e0	 mov	 DWORD PTR _nChaosNeedMoney$[ebp], ebx

; 1879 : 
; 1880 : 	if ( nChaosNeedMoney < 0 )

  00257	85 db		 test	 ebx, ebx
  00259	79 05		 jns	 SHORT $LN48@WingChaosM

; 1881 : 	{
; 1882 : 		nChaosNeedMoney = 0;

  0025b	33 db		 xor	 ebx, ebx
  0025d	89 5d e0	 mov	 DWORD PTR _nChaosNeedMoney$[ebp], ebx
$LN48@WingChaosM:

; 1883 : 	}
; 1884 : 
; 1885 : 	if ( lpObj->Money < nChaosNeedMoney )

  00260	39 9e f0 00 00
	00		 cmp	 DWORD PTR [esi+240], ebx
  00266	7d 3a		 jge	 SHORT $LN47@WingChaosM

; 1886 : 	{
; 1887 : 		pMsg.Result = CB_NOT_ENOUGH_ZEN;
; 1888 : 		
; 1889 : 		DataSend(lpObj->m_Index, (LPBYTE)&pMsg, pMsg.h.size);

  00268	0f b6 55 ed	 movzx	 edx, BYTE PTR _pMsg$[ebp+1]
  0026c	8b 0e		 mov	 ecx, DWORD PTR [esi]
  0026e	52		 push	 edx
  0026f	8d 45 ec	 lea	 eax, DWORD PTR _pMsg$[ebp]
  00272	50		 push	 eax
  00273	51		 push	 ecx
  00274	c6 45 ef 02	 mov	 BYTE PTR _pMsg$[ebp+3], 2
  00278	e8 00 00 00 00	 call	 ?DataSend@@YAHHPAEK@Z	; DataSend
  0027d	83 c4 0c	 add	 esp, 12			; 0000000cH
  00280	5f		 pop	 edi

; 1890 : 		lpObj->ChaosLock = FALSE;

  00281	c7 86 88 0e 00
	00 00 00 00 00	 mov	 DWORD PTR [esi+3720], 0
  0028b	5e		 pop	 esi

; 1891 : 
; 1892 : 		return TRUE;

  0028c	b8 01 00 00 00	 mov	 eax, 1
  00291	5b		 pop	 ebx

; 2115 : 	}
; 2116 : }

  00292	8b 4d fc	 mov	 ecx, DWORD PTR __$ArrayPad$[ebp]
  00295	33 cd		 xor	 ecx, ebp
  00297	e8 00 00 00 00	 call	 @__security_check_cookie@4
  0029c	8b e5		 mov	 esp, ebp
  0029e	5d		 pop	 ebp
  0029f	c2 04 00	 ret	 4
$LN47@WingChaosM:

; 1893 : 	}
; 1894 : 
; 1895 : 	CItem * pWing = &lpObj->pChaosBox[WingIndex];
; 1896 : 	lpObj->ChaosSuccessRate = (DWORD)((DWORD)iWingChaosMoney / (DWORD)4000000);

  002a2	b8 83 de 1b 43	 mov	 eax, 1125899907		; 431bde83H
  002a7	f7 65 dc	 mul	 DWORD PTR _iWingChaosMoney$[ebp]
  002aa	8b ca		 mov	 ecx, edx

; 1897 : 	lpObj->ChaosSuccessRate += iChaosMoney / 40000;

  002ac	b8 ad 8b db 68	 mov	 eax, 1759218605		; 68db8badH
  002b1	f7 6d cc	 imul	 DWORD PTR _iChaosMoney$[ebp]
  002b4	c1 fa 0e	 sar	 edx, 14			; 0000000eH
  002b7	c1 e9 14	 shr	 ecx, 20			; 00000014H
  002ba	8b c2		 mov	 eax, edx
  002bc	c1 e8 1f	 shr	 eax, 31			; 0000001fH
  002bf	03 ca		 add	 ecx, edx
  002c1	03 c1		 add	 eax, ecx
  002c3	89 86 84 0e 00
	00		 mov	 DWORD PTR [esi+3716], eax

; 1898 : 
; 1899 : 	if ( lpObj->ChaosSuccessRate < 0 ) //season 2.5 fix

  002c9	79 0a		 jns	 SHORT $LN46@WingChaosM

; 1900 : 	{
; 1901 : 		lpObj->ChaosSuccessRate =  100;

  002cb	c7 86 84 0e 00
	00 64 00 00 00	 mov	 DWORD PTR [esi+3716], 100 ; 00000064H
$LN46@WingChaosM:

; 1902 : 	}
; 1903 : 
; 1904 : 	if ( lpObj->ChaosSuccessRate == 0 )

  002d5	83 be 84 0e 00
	00 00		 cmp	 DWORD PTR [esi+3716], 0
  002dc	75 24		 jne	 SHORT $LN45@WingChaosM
$LN92@WingChaosM:

; 1905 : 	{
; 1906 : 		pMsg.Result = CB_INCORRECT_MIX_ITEMS;
; 1907 : 		DataSend(lpObj->m_Index, (LPBYTE)&pMsg, pMsg.h.size);

  002de	0f b6 4d ed	 movzx	 ecx, BYTE PTR _pMsg$[ebp+1]
  002e2	8b 06		 mov	 eax, DWORD PTR [esi]
  002e4	51		 push	 ecx
  002e5	8d 55 ec	 lea	 edx, DWORD PTR _pMsg$[ebp]
  002e8	52		 push	 edx
  002e9	50		 push	 eax
  002ea	c6 45 ef 07	 mov	 BYTE PTR _pMsg$[ebp+3], 7
  002ee	e8 00 00 00 00	 call	 ?DataSend@@YAHHPAEK@Z	; DataSend

; 1908 : 		lpObj->ChaosLock = FALSE;

  002f3	c7 86 88 0e 00
	00 00 00 00 00	 mov	 DWORD PTR [esi+3720], 0

; 1909 : 
; 1910 : 		return FALSE;

  002fd	e9 83 03 00 00	 jmp	 $LN104@WingChaosM
$LN45@WingChaosM:

; 1911 : 	}
; 1912 : 
; 1913 : 	LogChaosItem(lpObj, "WingMix,2");

  00302	8b 4d c8	 mov	 ecx, DWORD PTR _this$[ebp]
  00305	68 00 00 00 00	 push	 OFFSET ??_C@_09GJEFJCKN@WingMix?02?$AA@
  0030a	56		 push	 esi
  0030b	e8 00 00 00 00	 call	 ?LogChaosItem@CMixSystem@@QAEXPAUOBJECTSTRUCT@@PAD@Z ; CMixSystem::LogChaosItem

; 1914 : 	LogAddTD("[WingMix,2] Chaos Mix Start");

  00310	68 00 00 00 00	 push	 OFFSET ??_C@_0BM@JPABEGNL@?$FLWingMix?02?$FN?5Chaos?5Mix?5Start?$AA@
  00315	ff 15 00 00 00
	00		 call	 DWORD PTR ?LogAddTD@@3P6AXPADZZA ; LogAddTD

; 1915 : 	//int ZtWing2MaxSuccessRate = GetPrivateProfileInt("ChaosMix","Wing2MaxSuccessRate",90,"..\\Data\\ZtData\\CommonServer.ini");
; 1916 : 	if(lpObj->ChaosSuccessRate > ZtConfig.CommonServer.ZtWing2MaxSuccessRate)

  0031b	a1 84 00 00 00	 mov	 eax, DWORD PTR ?ZtConfig@@3VcZtConfigs@@A+132
  00320	83 c4 04	 add	 esp, 4
  00323	39 86 84 0e 00
	00		 cmp	 DWORD PTR [esi+3716], eax
  00329	7e 06		 jle	 SHORT $LN44@WingChaosM

; 1917 : 	{
; 1918 : 		lpObj->ChaosSuccessRate = ZtConfig.CommonServer.ZtWing2MaxSuccessRate;

  0032b	89 86 84 0e 00
	00		 mov	 DWORD PTR [esi+3716], eax
$LN44@WingChaosM:

; 1919 : 	}
; 1920 : 
; 1921 : 	lpObj->ChaosSuccessRate += iCharmOfLuckCount;
; 1922 : 
; 1923 : 	lpObj->ChaosSuccessRate += lpObj->m_AddMixSuccessRate;

  00331	8b 8e 24 28 00
	00		 mov	 ecx, DWORD PTR [esi+10276]
  00337	03 4d d8	 add	 ecx, DWORD PTR _iCharmOfLuckCount$[ebp]

; 1924 : 
; 1925 : 
; 1926 : 	lpObj->Money  -= nChaosNeedMoney;

  0033a	29 9e f0 00 00
	00		 sub	 DWORD PTR [esi+240], ebx
  00340	01 8e 84 0e 00
	00		 add	 DWORD PTR [esi+3716], ecx

; 1927 : 	g_CastleSiegeSync.AddTributeMoney(iChaosTaxMoney);

  00346	57		 push	 edi
  00347	b9 00 00 00 00	 mov	 ecx, OFFSET ?g_CastleSiegeSync@@3VCCastleSiegeSync@@A ; g_CastleSiegeSync
  0034c	e8 00 00 00 00	 call	 ?AddTributeMoney@CCastleSiegeSync@@QAEXH@Z ; CCastleSiegeSync::AddTributeMoney

; 1928 : 	GCMoneySend(lpObj->m_Index, lpObj->Money);

  00351	8b 96 f0 00 00
	00		 mov	 edx, DWORD PTR [esi+240]
  00357	8b 06		 mov	 eax, DWORD PTR [esi]
  00359	52		 push	 edx
  0035a	50		 push	 eax
  0035b	e8 00 00 00 00	 call	 ?GCMoneySend@@YAXHK@Z	; GCMoneySend

; 1929 : 
; 1930 : 	srand(time(NULL));

  00360	6a 00		 push	 0
  00362	e8 00 00 00 00	 call	 __time64
  00367	50		 push	 eax
  00368	e8 00 00 00 00	 call	 _srand
  0036d	83 c4 10	 add	 esp, 16			; 00000010H

; 1931 : 
; 1932 : 	if ( (rand()%100) < lpObj->ChaosSuccessRate )

  00370	e8 00 00 00 00	 call	 _rand
  00375	99		 cdq
  00376	b9 64 00 00 00	 mov	 ecx, 100		; 00000064H
  0037b	f7 f9		 idiv	 ecx
  0037d	3b 96 84 0e 00
	00		 cmp	 edx, DWORD PTR [esi+3716]
  00383	0f 8d 65 02 00
	00		 jge	 $LN43@WingChaosM

; 1933 : 	{
; 1934 : 		int iWingLevel = 0;
; 1935 : 		int iItemType;
; 1936 : 		int iItemSubType;
; 1937 : 
; 1938 : 		if ( iSleeveOfLord != 0 )

  00389	83 7d d0 00	 cmp	 DWORD PTR _iSleeveOfLord$[ebp], 0
  0038d	8d 59 a9	 lea	 ebx, DWORD PTR [ecx-87]
  00390	8d 79 a8	 lea	 edi, DWORD PTR [ecx-88]
  00393	74 36		 je	 SHORT $LN42@WingChaosM

; 1939 : 		{
; 1940 : 
; 1941 : 			if(ZtConfig.ZtCustom.SwitchChar == 1 || ZtConfig.ZtCustom.SwitchChar == 2)

  00395	a1 00 00 00 00	 mov	 eax, DWORD PTR ?ZtConfig@@3VcZtConfigs@@A
  0039a	83 f8 01	 cmp	 eax, 1
  0039d	74 18		 je	 SHORT $LN40@WingChaosM
  0039f	83 f8 02	 cmp	 eax, 2
  003a2	74 13		 je	 SHORT $LN40@WingChaosM

; 1942 : 			{
; 1943 : 				iItemType		= 13;
; 1944 : 				iItemSubType	= 30;
; 1945 : 			}
; 1946 : 			else
; 1947 : 			{
; 1948 : 				if( rand() % 2 )

  003a4	e8 00 00 00 00	 call	 _rand
  003a9	25 01 00 00 80	 and	 eax, -2147483647	; 80000001H
  003ae	79 05		 jns	 SHORT $LN96@WingChaosM
  003b0	48		 dec	 eax
  003b1	83 c8 fe	 or	 eax, -2			; fffffffeH
  003b4	40		 inc	 eax
$LN96@WingChaosM:
  003b5	74 0a		 je	 SHORT $LN38@WingChaosM
$LN40@WingChaosM:

; 1949 : 				{
; 1950 : 					iItemType		= 13;

  003b7	89 5d e8	 mov	 DWORD PTR _iItemType$218306[ebp], ebx

; 1951 : 					iItemSubType	= 30;

  003ba	bf 1e 00 00 00	 mov	 edi, 30			; 0000001eH

; 1952 : 				}
; 1953 : 				else

  003bf	eb 44		 jmp	 SHORT $LN34@WingChaosM
$LN38@WingChaosM:

; 1954 : 				{
; 1955 : 					iItemType		= 12;

  003c1	89 7d e8	 mov	 DWORD PTR _iItemType$218306[ebp], edi

; 1956 : 					iItemSubType	= 49;

  003c4	bf 31 00 00 00	 mov	 edi, 49			; 00000031H
  003c9	eb 3a		 jmp	 SHORT $LN34@WingChaosM
$LN42@WingChaosM:

; 1957 : 				}
; 1958 : 			}
; 1959 : 
; 1960 : 
; 1961 : 
; 1962 : 		}
; 1963 : 		else
; 1964 : 		{
; 1965 : 			iItemType = 12;

  003cb	89 7d e8	 mov	 DWORD PTR _iItemType$218306[ebp], edi

; 1966 : #ifdef MART_FIX
; 1967 : 			int iRand = rand()%5;

  003ce	e8 00 00 00 00	 call	 _rand
  003d3	99		 cdq
  003d4	b9 05 00 00 00	 mov	 ecx, 5
  003d9	f7 f9		 idiv	 ecx

; 1968 : #else
; 1969 : 			int iRand = rand()%4;
; 1970 : #endif // MART_FIX
; 1971 : 
; 1972 : 			if(iRand == 4 && ZtConfig.ZtCustom.SwitchChar != 2)//Conflict //See DangeR

  003db	83 fa 04	 cmp	 edx, 4
  003de	75 0e		 jne	 SHORT $LN35@WingChaosM
  003e0	83 3d 00 00 00
	00 02		 cmp	 DWORD PTR ?ZtConfig@@3VcZtConfigs@@A, 2
  003e7	74 05		 je	 SHORT $LN35@WingChaosM

; 1973 : 			{
; 1974 : 				iItemSubType = 42;

  003e9	8d 79 25	 lea	 edi, DWORD PTR [ecx+37]

; 1975 : 			}
; 1976 : 			else

  003ec	eb 17		 jmp	 SHORT $LN34@WingChaosM
$LN35@WingChaosM:

; 1977 : 			{
; 1978 : 				iRand = rand()%4;

  003ee	e8 00 00 00 00	 call	 _rand
  003f3	8b f8		 mov	 edi, eax
  003f5	81 e7 03 00 00
	80		 and	 edi, -2147483645	; 80000003H
  003fb	79 05		 jns	 SHORT $LN97@WingChaosM
  003fd	4f		 dec	 edi
  003fe	83 cf fc	 or	 edi, -4			; fffffffcH
  00401	47		 inc	 edi
$LN97@WingChaosM:

; 1979 : 				iItemSubType = iRand + 3;//twister slash

  00402	83 c7 03	 add	 edi, 3
$LN34@WingChaosM:

; 1980 : 			}
; 1981 : 		}
; 1982 : 
; 1983 : 		if(WingCharmItemNum > -1) //season4.5 add-on

  00405	8b 55 d4	 mov	 edx, DWORD PTR _WingCharmItemNum$[ebp]
  00408	83 fa ff	 cmp	 edx, -1
  0040b	7e 6b		 jle	 SHORT $LN31@WingChaosM

; 1984 : 		{
; 1985 : 			int WingCharmIndex = WingCharmItemNum ^ ITEMGET(13,0);

  0040d	8b c2		 mov	 eax, edx
  0040f	35 00 1a 00 00	 xor	 eax, 6656		; 00001a00H

; 1986 : 
; 1987 : 			switch(WingCharmIndex)

  00414	8d 48 a8	 lea	 ecx, DWORD PTR [eax-88]
  00417	83 f9 04	 cmp	 ecx, 4
  0041a	77 4c		 ja	 SHORT $LN23@WingChaosM
  0041c	ff 24 8d 00 00
	00 00		 jmp	 DWORD PTR $LN108@WingChaosM[ecx*4]
$LN30@WingChaosM:

; 1988 : 			{
; 1989 : 			case 88:
; 1990 : 				iItemSubType = 5;

  00423	bf 05 00 00 00	 mov	 edi, 5

; 1991 : 				break;

  00428	eb 4e		 jmp	 SHORT $LN31@WingChaosM
$LN29@WingChaosM:

; 1992 : 			case 89:
; 1993 : 				iItemSubType = 4;

  0042a	bf 04 00 00 00	 mov	 edi, 4

; 1994 : 				break;

  0042f	eb 47		 jmp	 SHORT $LN31@WingChaosM
$LN28@WingChaosM:

; 1995 : 			case 90:
; 1996 : 				iItemSubType = 3;

  00431	bf 03 00 00 00	 mov	 edi, 3

; 1997 : 				break;

  00436	eb 40		 jmp	 SHORT $LN31@WingChaosM
$LN27@WingChaosM:

; 1998 : 			case 91:
; 1999 : 				{
; 2000 : 					if(ZtConfig.ZtCustom.SwitchChar == 2)

  00438	83 3d 00 00 00
	00 02		 cmp	 DWORD PTR ?ZtConfig@@3VcZtConfigs@@A, 2
  0043f	75 19		 jne	 SHORT $LN26@WingChaosM

; 2001 : 					{
; 2002 : 						int iRand = rand()%4;

  00441	e8 00 00 00 00	 call	 _rand
  00446	8b f8		 mov	 edi, eax
  00448	81 e7 03 00 00
	80		 and	 edi, -2147483645	; 80000003H
  0044e	79 05		 jns	 SHORT $LN98@WingChaosM
  00450	4f		 dec	 edi
  00451	83 cf fc	 or	 edi, -4			; fffffffcH
  00454	47		 inc	 edi
$LN98@WingChaosM:

; 2003 : 						iItemSubType = iRand + 3;

  00455	83 c7 03	 add	 edi, 3

; 2004 : 					}
; 2005 : 					else

  00458	eb 1e		 jmp	 SHORT $LN31@WingChaosM
$LN26@WingChaosM:

; 2006 : 					{
; 2007 : 						iItemSubType = 42;

  0045a	bf 2a 00 00 00	 mov	 edi, 42			; 0000002aH

; 2008 : 					}
; 2009 : 				}	
; 2010 : 				break;

  0045f	eb 17		 jmp	 SHORT $LN31@WingChaosM
$LN24@WingChaosM:

; 2011 : 			case 92:
; 2012 : 				iItemSubType = 6;

  00461	bf 06 00 00 00	 mov	 edi, 6

; 2013 : 				break;

  00466	eb 10		 jmp	 SHORT $LN31@WingChaosM
$LN23@WingChaosM:

; 2014 : 			default:
; 2015 : 				LogAddTD("[MixSystem][WingChaosMix] WingCharmItemNum => %d , WingCharmIndex => %d", WingCharmItemNum, WingCharmIndex);

  00468	50		 push	 eax
  00469	52		 push	 edx
  0046a	68 00 00 00 00	 push	 OFFSET ??_C@_0EI@LFGBMPMJ@?$FLMixSystem?$FN?$FLWingChaosMix?$FN?5WingCh@
  0046f	ff 15 00 00 00
	00		 call	 DWORD PTR ?LogAddTD@@3P6AXPADZZA ; LogAddTD
  00475	83 c4 0c	 add	 esp, 12			; 0000000cH
$LN31@WingChaosM:

; 2016 : 			}
; 2017 : 		}
; 2018 : 
; 2019 : 		int iWingNum = ITEMGET(iItemType, iItemSubType);

  00478	8b 45 e8	 mov	 eax, DWORD PTR _iItemType$218306[ebp]
  0047b	c1 e0 09	 shl	 eax, 9
  0047e	03 c7		 add	 eax, edi

; 2020 : 		int iOption1 = 0;

  00480	33 db		 xor	 ebx, ebx
  00482	89 45 c8	 mov	 DWORD PTR _iWingNum$218334[ebp], eax
  00485	89 5d d4	 mov	 DWORD PTR _iOption1$218335[ebp], ebx

; 2021 : 		int iOption2 = 0;

  00488	89 5d e4	 mov	 DWORD PTR _iOption2$218336[ebp], ebx

; 2022 : 		int iOption3 = 0;
; 2023 : 
; 2024 : 		if ( (rand()%5) == 0 )

  0048b	e8 00 00 00 00	 call	 _rand
  00490	99		 cdq
  00491	b9 05 00 00 00	 mov	 ecx, 5
  00496	f7 f9		 idiv	 ecx
  00498	85 d2		 test	 edx, edx
  0049a	75 07		 jne	 SHORT $LN22@WingChaosM

; 2025 : 		{
; 2026 : 			iOption1 = 1;

  0049c	c7 45 d4 01 00
	00 00		 mov	 DWORD PTR _iOption1$218335[ebp], 1
$LN22@WingChaosM:

; 2027 : 		}
; 2028 : 
; 2029 : 		int iRandomValue = rand() % 100;

  004a3	e8 00 00 00 00	 call	 _rand
  004a8	99		 cdq
  004a9	b9 64 00 00 00	 mov	 ecx, 100		; 00000064H
  004ae	f7 f9		 idiv	 ecx
  004b0	89 55 dc	 mov	 DWORD PTR _iRandomValue$218339[ebp], edx

; 2030 : 		int iRandomValue2 = rand() % 3;

  004b3	e8 00 00 00 00	 call	 _rand
  004b8	99		 cdq
  004b9	b9 03 00 00 00	 mov	 ecx, 3
  004be	f7 f9		 idiv	 ecx

; 2031 : 
; 2032 : 		switch ( iRandomValue2 )

  004c0	2b d3		 sub	 edx, ebx
  004c2	74 24		 je	 SHORT $LN19@WingChaosM
  004c4	4a		 dec	 edx
  004c5	74 12		 je	 SHORT $LN17@WingChaosM
  004c7	4a		 dec	 edx
  004c8	75 27		 jne	 SHORT $LN18@WingChaosM

; 2047 : 
; 2048 : 			case 2:
; 2049 : 				if ( iRandomValue < 20 )

  004ca	83 7d dc 14	 cmp	 DWORD PTR _iRandomValue$218339[ebp], 20 ; 00000014H
  004ce	7d 21		 jge	 SHORT $LN18@WingChaosM

; 2050 : 				{
; 2051 : 					iOption2 = 1;	// +4;

  004d0	c7 45 e4 01 00
	00 00		 mov	 DWORD PTR _iOption2$218336[ebp], 1
  004d7	eb 18		 jmp	 SHORT $LN18@WingChaosM
$LN17@WingChaosM:

; 2038 : 				}
; 2039 : 				break;
; 2040 : 
; 2041 : 			case 1:
; 2042 : 				if ( iRandomValue < 10 )

  004d9	83 7d dc 0a	 cmp	 DWORD PTR _iRandomValue$218339[ebp], 10 ; 0000000aH
  004dd	7d 12		 jge	 SHORT $LN18@WingChaosM

; 2043 : 				{
; 2044 : 					iOption2 = 2;	// +8

  004df	c7 45 e4 02 00
	00 00		 mov	 DWORD PTR _iOption2$218336[ebp], 2

; 2045 : 				}
; 2046 : 				break;

  004e6	eb 09		 jmp	 SHORT $LN18@WingChaosM
$LN19@WingChaosM:

; 2033 : 		{
; 2034 : 			case 0:
; 2035 : 				if ( iRandomValue < 4 )

  004e8	83 7d dc 04	 cmp	 DWORD PTR _iRandomValue$218339[ebp], 4
  004ec	7d 03		 jge	 SHORT $LN18@WingChaosM

; 2036 : 				{
; 2037 : 					iOption2 = 3;	// +12

  004ee	89 4d e4	 mov	 DWORD PTR _iOption2$218336[ebp], ecx
$LN18@WingChaosM:

; 2052 : 				}
; 2053 : 		}
; 2054 : 
; 2055 : 		if ( iSleeveOfLord != FALSE )
; 2056 : 		{
; 2057 : 			if( (rand()%5) == 0 )

  004f1	e8 00 00 00 00	 call	 _rand
  004f6	99		 cdq
  004f7	b9 05 00 00 00	 mov	 ecx, 5
  004fc	f7 f9		 idiv	 ecx
  004fe	39 5d d0	 cmp	 DWORD PTR _iSleeveOfLord$[ebp], ebx
  00501	74 37		 je	 SHORT $LN13@WingChaosM
  00503	85 d2		 test	 edx, edx
  00505	75 26		 jne	 SHORT $LN9@WingChaosM

; 2058 : 			{
; 2059 : 				if( iItemType == 12 && iItemSubType == 49 )

  00507	83 7d e8 0c	 cmp	 DWORD PTR _iItemType$218306[ebp], 12 ; 0000000cH
  0050b	75 05		 jne	 SHORT $LN11@WingChaosM
  0050d	83 ff 31	 cmp	 edi, 49			; 00000031H

; 2060 : 				{
; 2061 : 					iOption3 = 1 << (rand()%3);
; 2062 : 					if ( (rand()%2) != 0 )
; 2063 : 					{
; 2064 : 						iOption3 |= 0x20;
; 2065 : 					}
; 2066 : 				}
; 2067 : 				else

  00510	74 2c		 je	 SHORT $LN106@WingChaosM
$LN11@WingChaosM:

; 2068 : 				{
; 2069 : 					iOption3 = 1 << (rand()%4);

  00512	e8 00 00 00 00	 call	 _rand
  00517	8b c8		 mov	 ecx, eax
  00519	81 e1 03 00 00
	80		 and	 ecx, -2147483645	; 80000003H
  0051f	79 05		 jns	 SHORT $LN100@WingChaosM
  00521	49		 dec	 ecx
  00522	83 c9 fc	 or	 ecx, -4			; fffffffcH
  00525	41		 inc	 ecx
$LN100@WingChaosM:
  00526	bb 01 00 00 00	 mov	 ebx, 1
  0052b	d3 e3		 shl	 ebx, cl
$LN9@WingChaosM:

; 2070 : 				}			
; 2071 : 			}
; 2072 : 			// ----
; 2073 : 			if( iItemType == 13 && iItemSubType == 30 )

  0052d	83 7d e8 0d	 cmp	 DWORD PTR _iItemType$218306[ebp], 13 ; 0000000dH
  00531	75 37		 jne	 SHORT $LN5@WingChaosM
  00533	83 ff 1e	 cmp	 edi, 30			; 0000001eH
  00536	75 32		 jne	 SHORT $LN5@WingChaosM

; 2074 : 			{
; 2075 : 				iOption3 |= 0x20;
; 2076 : 			}
; 2077 : 		}
; 2078 : 		else

  00538	eb 2d		 jmp	 SHORT $LN107@WingChaosM
$LN13@WingChaosM:

; 2079 : 		{
; 2080 : 			if ( (rand()%5) == 0 )

  0053a	85 d2		 test	 edx, edx
  0053c	75 16		 jne	 SHORT $LN6@WingChaosM
$LN106@WingChaosM:

; 2081 : 			{
; 2082 : 				iOption3 = 1 << (rand()%3);

  0053e	e8 00 00 00 00	 call	 _rand
  00543	99		 cdq
  00544	b9 03 00 00 00	 mov	 ecx, 3
  00549	f7 f9		 idiv	 ecx
  0054b	bb 01 00 00 00	 mov	 ebx, 1
  00550	8b ca		 mov	 ecx, edx
  00552	d3 e3		 shl	 ebx, cl
$LN6@WingChaosM:

; 2083 : 			}
; 2084 : 
; 2085 : 			if ( (rand()%2) != 0 )

  00554	e8 00 00 00 00	 call	 _rand
  00559	25 01 00 00 80	 and	 eax, -2147483647	; 80000001H
  0055e	79 05		 jns	 SHORT $LN101@WingChaosM
  00560	48		 dec	 eax
  00561	83 c8 fe	 or	 eax, -2			; fffffffeH
  00564	40		 inc	 eax
$LN101@WingChaosM:
  00565	74 03		 je	 SHORT $LN5@WingChaosM
$LN107@WingChaosM:

; 2086 : 			{
; 2087 : 				iOption3 |= 0x20;

  00567	83 cb 20	 or	 ebx, 32			; 00000020H
$LN5@WingChaosM:

; 2088 : 			}
; 2089 : 		
; 2090 : 		}
; 2091 : 
; 2092 : 		::ItemSerialCreateSend(lpObj->m_Index, -1, 0, 0, iWingNum, (BYTE)iWingLevel, 0, 0, (BYTE)iOption1, (BYTE)iOption2, -1, (BYTE)iOption3, 0);

  0056a	8b 55 e4	 mov	 edx, DWORD PTR _iOption2$218336[ebp]
  0056d	8b 45 d4	 mov	 eax, DWORD PTR _iOption1$218335[ebp]
  00570	8b 4d c8	 mov	 ecx, DWORD PTR _iWingNum$218334[ebp]
  00573	6a 00		 push	 0
  00575	53		 push	 ebx
  00576	6a ff		 push	 -1
  00578	52		 push	 edx
  00579	8b 16		 mov	 edx, DWORD PTR [esi]
  0057b	50		 push	 eax
  0057c	6a 00		 push	 0
  0057e	6a 00		 push	 0
  00580	6a 00		 push	 0
  00582	51		 push	 ecx
  00583	6a 00		 push	 0
  00585	6a 00		 push	 0
  00587	68 ff 00 00 00	 push	 255			; 000000ffH
  0058c	52		 push	 edx
  0058d	e8 00 00 00 00	 call	 ?ItemSerialCreateSend@@YAXHEEEHEEEEEHEE@Z ; ItemSerialCreateSend

; 2093 : 		::gObjInventoryCommit(lpObj->m_Index);

  00592	8b 06		 mov	 eax, DWORD PTR [esi]
  00594	50		 push	 eax
  00595	e8 00 00 00 00	 call	 ?gObjInventoryCommit@@YAHH@Z ; gObjInventoryCommit

; 2094 : #if(SYSTEM_ACHIEVEMENTS)
; 2095 : 		g_Achievements.SuccessChaosMix(lpObj->m_Index);

  0059a	8b 0e		 mov	 ecx, DWORD PTR [esi]
  0059c	83 c4 38	 add	 esp, 56			; 00000038H
  0059f	51		 push	 ecx
  005a0	b9 00 00 00 00	 mov	 ecx, OFFSET ?g_Achievements@@3VCAchievements@@A ; g_Achievements
  005a5	e8 00 00 00 00	 call	 ?SuccessChaosMix@CAchievements@@QAEXH@Z ; CAchievements::SuccessChaosMix

; 2096 : #endif
; 2097 : 		::LogAddTD("[WingMix,2] [%s][%s] CBMix Success %d Money : %d-%d, CharmRate : %d", lpObj->AccountID, lpObj->Name, lpObj->ChaosSuccessRate, lpObj->Money, nChaosNeedMoney, iCharmOfLuckCount);

  005aa	8b 55 d8	 mov	 edx, DWORD PTR _iCharmOfLuckCount$[ebp]
  005ad	8b 45 e0	 mov	 eax, DWORD PTR _nChaosNeedMoney$[ebp]
  005b0	8b 8e f0 00 00
	00		 mov	 ecx, DWORD PTR [esi+240]
  005b6	52		 push	 edx
  005b7	8b 96 84 0e 00
	00		 mov	 edx, DWORD PTR [esi+3716]
  005bd	50		 push	 eax
  005be	51		 push	 ecx
  005bf	52		 push	 edx
  005c0	8d 46 77	 lea	 eax, DWORD PTR [esi+119]
  005c3	50		 push	 eax
  005c4	83 c6 6c	 add	 esi, 108		; 0000006cH
  005c7	56		 push	 esi
  005c8	68 00 00 00 00	 push	 OFFSET ??_C@_0EE@BHIPJGFK@?$FLWingMix?02?$FN?5?$FL?$CFs?$FN?$FL?$CFs?$FN?5CBMix?5Succe@
  005cd	ff 15 00 00 00
	00		 call	 DWORD PTR ?LogAddTD@@3P6AXPADZZA ; LogAddTD
  005d3	83 c4 1c	 add	 esp, 28			; 0000001cH
  005d6	5f		 pop	 edi
  005d7	5e		 pop	 esi

; 2098 : 		return TRUE;

  005d8	b8 01 00 00 00	 mov	 eax, 1
  005dd	5b		 pop	 ebx

; 2115 : 	}
; 2116 : }

  005de	8b 4d fc	 mov	 ecx, DWORD PTR __$ArrayPad$[ebp]
  005e1	33 cd		 xor	 ecx, ebp
  005e3	e8 00 00 00 00	 call	 @__security_check_cookie@4
  005e8	8b e5		 mov	 esp, ebp
  005ea	5d		 pop	 ebp
  005eb	c2 04 00	 ret	 4
$LN43@WingChaosM:

; 2099 : 	}
; 2100 : 	else
; 2101 : 	{
; 2102 : 		for (int n=0;n<CHAOS_BOX_SIZE;n++)

  005ee	33 ff		 xor	 edi, edi
$LL3@WingChaosM:

; 2103 : 		{
; 2104 : 			lpObj->pChaosBox[n].Clear();

  005f0	8b 8e 78 0e 00
	00		 mov	 ecx, DWORD PTR [esi+3704]
  005f6	03 cf		 add	 ecx, edi
  005f8	e8 00 00 00 00	 call	 ?Clear@CItem@@QAEXXZ	; CItem::Clear
  005fd	81 c7 d4 00 00
	00		 add	 edi, 212		; 000000d4H
  00603	81 ff 80 1a 00
	00		 cmp	 edi, 6784		; 00001a80H
  00609	7c e5		 jl	 SHORT $LL3@WingChaosM

; 2105 : 		}
; 2106 : 
; 2107 : 		GCUserChaosBoxSend(lpObj, 0);

  0060b	6a 00		 push	 0
  0060d	56		 push	 esi
  0060e	e8 00 00 00 00	 call	 ?GCUserChaosBoxSend@@YAXPAUOBJECTSTRUCT@@H@Z ; GCUserChaosBoxSend

; 2108 : 		DataSend(lpObj->m_Index, (LPBYTE)&pMsg, pMsg.h.size);

  00613	0f b6 4d ed	 movzx	 ecx, BYTE PTR _pMsg$[ebp+1]
  00617	8b 06		 mov	 eax, DWORD PTR [esi]
  00619	51		 push	 ecx
  0061a	8d 55 ec	 lea	 edx, DWORD PTR _pMsg$[ebp]
  0061d	52		 push	 edx
  0061e	50		 push	 eax
  0061f	e8 00 00 00 00	 call	 ?DataSend@@YAHHPAEK@Z	; DataSend

; 2109 : 		::LogAddTD("[WingMix,2] [%s][%s] CBMix Fail %d Money : %d-%d, CharmRate : %d", lpObj->AccountID, lpObj->Name, lpObj->ChaosSuccessRate, lpObj->Money, nChaosNeedMoney, iCharmOfLuckCount);

  00624	8b 4d d8	 mov	 ecx, DWORD PTR _iCharmOfLuckCount$[ebp]
  00627	8b 96 f0 00 00
	00		 mov	 edx, DWORD PTR [esi+240]
  0062d	8b 86 84 0e 00
	00		 mov	 eax, DWORD PTR [esi+3716]
  00633	51		 push	 ecx
  00634	53		 push	 ebx
  00635	52		 push	 edx
  00636	50		 push	 eax
  00637	8d 4e 77	 lea	 ecx, DWORD PTR [esi+119]
  0063a	51		 push	 ecx
  0063b	8d 56 6c	 lea	 edx, DWORD PTR [esi+108]
  0063e	52		 push	 edx
  0063f	68 00 00 00 00	 push	 OFFSET ??_C@_0EB@GCGNBAFG@?$FLWingMix?02?$FN?5?$FL?$CFs?$FN?$FL?$CFs?$FN?5CBMix?5Fail?5@
  00644	ff 15 00 00 00
	00		 call	 DWORD PTR ?LogAddTD@@3P6AXPADZZA ; LogAddTD

; 2110 : 		lpObj->ChaosLock = FALSE;
; 2111 : #if(SYSTEM_ACHIEVEMENTS)
; 2112 : 		g_Achievements.FailedChaosMix(lpObj->m_Index);

  0064a	8b 06		 mov	 eax, DWORD PTR [esi]
  0064c	83 c4 30	 add	 esp, 48			; 00000030H
  0064f	50		 push	 eax
  00650	b9 00 00 00 00	 mov	 ecx, OFFSET ?g_Achievements@@3VCAchievements@@A ; g_Achievements
  00655	c7 86 88 0e 00
	00 00 00 00 00	 mov	 DWORD PTR [esi+3720], 0
  0065f	e8 00 00 00 00	 call	 ?FailedChaosMix@CAchievements@@QAEXH@Z ; CAchievements::FailedChaosMix

; 2113 : #endif
; 2114 : 		return FALSE;

  00664	eb 22		 jmp	 SHORT $LN102@WingChaosM
$LN54@WingChaosM:

; 1856 : 		DataSend(lpObj->m_Index, (LPBYTE)&pMsg, pMsg.h.size);

  00666	0f b6 4d ed	 movzx	 ecx, BYTE PTR _pMsg$[ebp+1]
  0066a	8b 06		 mov	 eax, DWORD PTR [esi]
  0066c	51		 push	 ecx
  0066d	8d 55 ec	 lea	 edx, DWORD PTR _pMsg$[ebp]
  00670	52		 push	 edx
  00671	50		 push	 eax
$LN103@WingChaosM:

; 1844 : 		{
; 1845 : 			pMsg.Result = CB_INCORRECT_MIX_ITEMS;
; 1846 : 			DataSend(lpObj->m_Index, (LPBYTE)&pMsg, pMsg.h.size);
; 1847 : 			lpObj->ChaosLock = FALSE;
; 1848 : 
; 1849 : 			return FALSE;
; 1850 : 		}
; 1851 : 	}
; 1852 : 	else
; 1853 : 	{
; 1854 : 		lpObj->ChaosLock = FALSE;
; 1855 : 		pMsg.Result = CB_INCORRECT_MIX_ITEMS;

  00672	c7 86 88 0e 00
	00 00 00 00 00	 mov	 DWORD PTR [esi+3720], 0
  0067c	c6 45 ef 07	 mov	 BYTE PTR _pMsg$[ebp+3], 7

; 1856 : 		DataSend(lpObj->m_Index, (LPBYTE)&pMsg, pMsg.h.size);

  00680	e8 00 00 00 00	 call	 ?DataSend@@YAHHPAEK@Z	; DataSend
$LN104@WingChaosM:
  00685	83 c4 0c	 add	 esp, 12			; 0000000cH
$LN102@WingChaosM:

; 2115 : 	}
; 2116 : }

  00688	8b 4d fc	 mov	 ecx, DWORD PTR __$ArrayPad$[ebp]
  0068b	5f		 pop	 edi
  0068c	5e		 pop	 esi
  0068d	33 cd		 xor	 ecx, ebp
  0068f	33 c0		 xor	 eax, eax
  00691	5b		 pop	 ebx
  00692	e8 00 00 00 00	 call	 @__security_check_cookie@4
  00697	8b e5		 mov	 esp, ebp
  00699	5d		 pop	 ebp
  0069a	c2 04 00	 ret	 4
  0069d	8d 49 00	 npad	 3
$LN108@WingChaosM:
  006a0	00 00 00 00	 DD	 $LN30@WingChaosM
  006a4	00 00 00 00	 DD	 $LN29@WingChaosM
  006a8	00 00 00 00	 DD	 $LN28@WingChaosM
  006ac	00 00 00 00	 DD	 $LN27@WingChaosM
  006b0	00 00 00 00	 DD	 $LN24@WingChaosM
?WingChaosMix@CMixSystem@@QAEHPAUOBJECTSTRUCT@@@Z ENDP	; CMixSystem::WingChaosMix
_TEXT	ENDS
PUBLIC	__$ArrayPad$
PUBLIC	?BloodCastleItemChaosMix@CMixSystem@@QAEXPAUOBJECTSTRUCT@@@Z ; CMixSystem::BloodCastleItemChaosMix
EXTRN	?BloodCastleChaosMix@CBloodCastle@@QAE_NHH@Z:PROC ; CBloodCastle::BloodCastleChaosMix
EXTRN	?GetBridgeMapNumber@CBloodCastle@@QAEHH@Z:PROC	; CBloodCastle::GetBridgeMapNumber
EXTRN	?CheckChoasMixItem@CBloodCastle@@QAEHH@Z:PROC	; CBloodCastle::CheckChoasMixItem
EXTRN	?g_BloodCastle@@3VCBloodCastle@@A:BYTE		; g_BloodCastle
; Function compile flags: /Ogtp
;	COMDAT ?BloodCastleItemChaosMix@CMixSystem@@QAEXPAUOBJECTSTRUCT@@@Z
_TEXT	SEGMENT
_pMsg$ = -20						; size = 16
__$ArrayPad$ = -4					; size = 4
_lpObj$ = 8						; size = 4
?BloodCastleItemChaosMix@CMixSystem@@QAEXPAUOBJECTSTRUCT@@@Z PROC ; CMixSystem::BloodCastleItemChaosMix, COMDAT
; _this$ = ecx

; 2119 : {

  00000	55		 push	 ebp
  00001	8b ec		 mov	 ebp, esp
  00003	83 ec 14	 sub	 esp, 20			; 00000014H
  00006	a1 00 00 00 00	 mov	 eax, DWORD PTR ___security_cookie
  0000b	33 c5		 xor	 eax, ebp
  0000d	89 45 fc	 mov	 DWORD PTR __$ArrayPad$[ebp], eax
  00010	53		 push	 ebx
  00011	56		 push	 esi
  00012	8b 75 08	 mov	 esi, DWORD PTR _lpObj$[ebp]
  00015	57		 push	 edi

; 2120 : 	lpObj->ChaosLock = TRUE;
; 2121 : 	
; 2122 : 	PMSG_CHAOSMIXRESULT pMsg;
; 2123 : 	PHeadSetB((LPBYTE)&pMsg.h, 0x86, sizeof(PMSG_CHAOSMIXRESULT));

  00016	6a 10		 push	 16			; 00000010H
  00018	8d 45 ec	 lea	 eax, DWORD PTR _pMsg$[ebp]
  0001b	68 86 00 00 00	 push	 134			; 00000086H
  00020	50		 push	 eax
  00021	c7 86 88 0e 00
	00 01 00 00 00	 mov	 DWORD PTR [esi+3720], 1
  0002b	e8 00 00 00 00	 call	 ?PHeadSetB@@YAXPAEEH@Z	; PHeadSetB

; 2124 : 	pMsg.Result = CB_ERROR;
; 2125 : 
; 2126 : 	int aIndex = lpObj->m_Index;

  00030	8b 3e		 mov	 edi, DWORD PTR [esi]
  00032	83 c4 0c	 add	 esp, 12			; 0000000cH

; 2127 : 
; 2128 : 	int iRET_VAL = g_BloodCastle.CheckChoasMixItem(aIndex);

  00035	57		 push	 edi
  00036	b9 00 00 00 00	 mov	 ecx, OFFSET ?g_BloodCastle@@3VCBloodCastle@@A ; g_BloodCastle
  0003b	c6 45 ef 00	 mov	 BYTE PTR _pMsg$[ebp+3], 0
  0003f	e8 00 00 00 00	 call	 ?CheckChoasMixItem@CBloodCastle@@QAEHH@Z ; CBloodCastle::CheckChoasMixItem
  00044	8b d8		 mov	 ebx, eax

; 2129 : 
; 2130 : 	int iMapNumber = g_BloodCastle.GetBridgeMapNumber(iRET_VAL-1);

  00046	8d 4b ff	 lea	 ecx, DWORD PTR [ebx-1]
  00049	51		 push	 ecx
  0004a	b9 00 00 00 00	 mov	 ecx, OFFSET ?g_BloodCastle@@3VCBloodCastle@@A ; g_BloodCastle
  0004f	e8 00 00 00 00	 call	 ?GetBridgeMapNumber@CBloodCastle@@QAEHH@Z ; CBloodCastle::GetBridgeMapNumber

; 2131 : 
; 2132 : 	if ( BC_MAP_RANGE(iMapNumber) != FALSE )

  00054	83 f8 34	 cmp	 eax, 52			; 00000034H
  00057	74 13		 je	 SHORT $LN19@BloodCastl
  00059	83 f8 0b	 cmp	 eax, 11			; 0000000bH
  0005c	7c 20		 jl	 SHORT $LN20@BloodCastl
  0005e	33 d2		 xor	 edx, edx
  00060	83 f8 11	 cmp	 eax, 17			; 00000011H
  00063	0f 9e c2	 setle	 dl
  00066	8b c2		 mov	 eax, edx
  00068	85 c0		 test	 eax, eax
  0006a	74 12		 je	 SHORT $LN20@BloodCastl
$LN19@BloodCastl:

; 2133 : 	{
; 2134 : 		if ( g_BloodCastle.BloodCastleChaosMix(aIndex, iRET_VAL) == false )

  0006c	53		 push	 ebx
  0006d	57		 push	 edi
  0006e	b9 00 00 00 00	 mov	 ecx, OFFSET ?g_BloodCastle@@3VCBloodCastle@@A ; g_BloodCastle
  00073	e8 00 00 00 00	 call	 ?BloodCastleChaosMix@CBloodCastle@@QAE_NHH@Z ; CBloodCastle::BloodCastleChaosMix
  00078	84 c0		 test	 al, al
  0007a	75 79		 jne	 SHORT $LN9@BloodCastl

; 2135 : 		{
; 2136 : 			lpObj->ChaosLock = FALSE;
; 2137 : 		}
; 2138 : 		return;

  0007c	eb 6d		 jmp	 SHORT $LN1@BloodCastl
$LN20@BloodCastl:

; 2139 : 	}
; 2140 : 
; 2141 : 	switch ( iRET_VAL )

  0007e	83 c3 f7	 add	 ebx, -9			; fffffff7H
  00081	83 fb 06	 cmp	 ebx, 6
  00084	77 65		 ja	 SHORT $LN1@BloodCastl
  00086	ff 24 9d 00 00
	00 00		 jmp	 DWORD PTR $LN23@BloodCastl[ebx*4]
$LN8@BloodCastl:

; 2142 : 	{
; 2143 : 		case 9:
; 2144 : 			pMsg.Result = CB_NO_BC_CORRECT_ITEMS;

  0008d	c6 45 ef 0a	 mov	 BYTE PTR _pMsg$[ebp+3], 10 ; 0000000aH

; 2145 : 			DataSend(aIndex, (LPBYTE)&pMsg, pMsg.h.size);
; 2146 : 			lpObj->m_Index;
; 2147 : 			lpObj->ChaosLock = FALSE;
; 2148 : 			break;

  00091	eb 46		 jmp	 SHORT $LN21@BloodCastl
$LN7@BloodCastl:

; 2149 : 
; 2150 : 		case 10:
; 2151 : 			pMsg.Result = CB_NO_BC_CORRECT_ITEMS;
; 2152 : 			DataSend(aIndex, (LPBYTE)&pMsg, pMsg.h.size);

  00093	0f b6 55 ed	 movzx	 edx, BYTE PTR _pMsg$[ebp+1]
  00097	52		 push	 edx
  00098	8d 45 ec	 lea	 eax, DWORD PTR _pMsg$[ebp]
  0009b	c6 45 ef 0a	 mov	 BYTE PTR _pMsg$[ebp+3], 10 ; 0000000aH
  0009f	50		 push	 eax

; 2153 : 			lpObj->m_Index;
; 2154 : 			lpObj->ChaosLock = FALSE;
; 2155 : 			break;

  000a0	eb 40		 jmp	 SHORT $LN22@BloodCastl
$LN6@BloodCastl:

; 2156 : 
; 2157 : 		case 11:
; 2158 : 			pMsg.Result = CB_NO_BC_CORRECT_ITEMS;
; 2159 : 			DataSend(aIndex, (LPBYTE)&pMsg, pMsg.h.size);

  000a2	0f b6 4d ed	 movzx	 ecx, BYTE PTR _pMsg$[ebp+1]
  000a6	51		 push	 ecx
  000a7	8d 55 ec	 lea	 edx, DWORD PTR _pMsg$[ebp]
  000aa	c6 45 ef 0a	 mov	 BYTE PTR _pMsg$[ebp+3], 10 ; 0000000aH
  000ae	52		 push	 edx

; 2160 : 			lpObj->m_Index;
; 2161 : 			lpObj->ChaosLock = FALSE;
; 2162 : 			break;

  000af	eb 31		 jmp	 SHORT $LN22@BloodCastl
$LN5@BloodCastl:

; 2163 : 
; 2164 : 		case 12:
; 2165 : 			pMsg.Result = CB_INVALID_ITEM_LEVEL;

  000b1	c6 45 ef 08	 mov	 BYTE PTR _pMsg$[ebp+3], 8

; 2166 : 			DataSend(aIndex, (LPBYTE)&pMsg, pMsg.h.size);
; 2167 : 			lpObj->m_Index;
; 2168 : 			lpObj->ChaosLock = FALSE;
; 2169 : 			break;

  000b5	eb 22		 jmp	 SHORT $LN21@BloodCastl
$LN4@BloodCastl:

; 2170 : 
; 2171 : 		case 13:
; 2172 : 			pMsg.Result = CB_BC_NOT_ENOUGH_ZEN;
; 2173 : 			DataSend(aIndex, (LPBYTE)&pMsg, pMsg.h.size);

  000b7	0f b6 55 ed	 movzx	 edx, BYTE PTR _pMsg$[ebp+1]
  000bb	52		 push	 edx
  000bc	8d 45 ec	 lea	 eax, DWORD PTR _pMsg$[ebp]
  000bf	c6 45 ef 0b	 mov	 BYTE PTR _pMsg$[ebp+3], 11 ; 0000000bH
  000c3	50		 push	 eax

; 2174 : 			lpObj->m_Index;
; 2175 : 			lpObj->ChaosLock = FALSE;
; 2176 : 			break;

  000c4	eb 1c		 jmp	 SHORT $LN22@BloodCastl
$LN3@BloodCastl:

; 2177 : 
; 2178 : 		case 14:
; 2179 : 			pMsg.Result = CB_USER_CLASS_LOW_LEVEL;
; 2180 : 			DataSend(aIndex, (LPBYTE)&pMsg, pMsg.h.size);

  000c6	0f b6 4d ed	 movzx	 ecx, BYTE PTR _pMsg$[ebp+1]
  000ca	51		 push	 ecx
  000cb	8d 55 ec	 lea	 edx, DWORD PTR _pMsg$[ebp]
  000ce	c6 45 ef 09	 mov	 BYTE PTR _pMsg$[ebp+3], 9
  000d2	52		 push	 edx

; 2181 : 			lpObj->m_Index;
; 2182 : 			lpObj->ChaosLock = FALSE;
; 2183 : 			break;

  000d3	eb 0d		 jmp	 SHORT $LN22@BloodCastl
$LN2@BloodCastl:

; 2184 : 		case 15:
; 2185 : 			pMsg.Result = 0xF0;

  000d5	c6 45 ef f0	 mov	 BYTE PTR _pMsg$[ebp+3], 240 ; 000000f0H
$LN21@BloodCastl:

; 2186 : 			DataSend(aIndex, (LPBYTE)&pMsg, pMsg.h.size);

  000d9	0f b6 45 ed	 movzx	 eax, BYTE PTR _pMsg$[ebp+1]
  000dd	50		 push	 eax
  000de	8d 4d ec	 lea	 ecx, DWORD PTR _pMsg$[ebp]
  000e1	51		 push	 ecx
$LN22@BloodCastl:
  000e2	57		 push	 edi
  000e3	e8 00 00 00 00	 call	 ?DataSend@@YAHHPAEK@Z	; DataSend
  000e8	83 c4 0c	 add	 esp, 12			; 0000000cH
$LN1@BloodCastl:

; 2187 : 			lpObj->ChaosLock = FALSE;
; 2188 : 			break;
; 2189 : 		default:
; 2190 : 			lpObj->ChaosLock = FALSE;

  000eb	c7 86 88 0e 00
	00 00 00 00 00	 mov	 DWORD PTR [esi+3720], 0
$LN9@BloodCastl:

; 2191 : 	}
; 2192 : 
; 2193 : }

  000f5	8b 4d fc	 mov	 ecx, DWORD PTR __$ArrayPad$[ebp]
  000f8	5f		 pop	 edi
  000f9	5e		 pop	 esi
  000fa	33 cd		 xor	 ecx, ebp
  000fc	5b		 pop	 ebx
  000fd	e8 00 00 00 00	 call	 @__security_check_cookie@4
  00102	8b e5		 mov	 esp, ebp
  00104	5d		 pop	 ebp
  00105	c2 04 00	 ret	 4
$LN23@BloodCastl:
  00108	00 00 00 00	 DD	 $LN8@BloodCastl
  0010c	00 00 00 00	 DD	 $LN7@BloodCastl
  00110	00 00 00 00	 DD	 $LN6@BloodCastl
  00114	00 00 00 00	 DD	 $LN5@BloodCastl
  00118	00 00 00 00	 DD	 $LN4@BloodCastl
  0011c	00 00 00 00	 DD	 $LN3@BloodCastl
  00120	00 00 00 00	 DD	 $LN2@BloodCastl
?BloodCastleItemChaosMix@CMixSystem@@QAEXPAUOBJECTSTRUCT@@@Z ENDP ; CMixSystem::BloodCastleItemChaosMix
_TEXT	ENDS
PUBLIC	??_C@_0EE@MAGJAMAN@?$FLDarkHorseMix?$FN?5?$FL?$CFs?$FN?$FL?$CFs?$FN?5CBMix?5Fa@ ; `string'
PUBLIC	??_C@_0EH@JGHMMOON@?$FLDarkHorseMix?$FN?5?$FL?$CFs?$FN?$FL?$CFs?$FN?5CBMix?5Su@ ; `string'
PUBLIC	??_C@_0BP@IMILBLLO@?$FLDarkHorseMix?$FN?5Chaos?5Mix?5Start?$AA@ ; `string'
PUBLIC	??_C@_0N@LDINKAHL@DarkHorseMix?$AA@		; `string'
PUBLIC	__$ArrayPad$
PUBLIC	?DarkHorseChaosMix@CMixSystem@@QAEXPAUOBJECTSTRUCT@@@Z ; CMixSystem::DarkHorseChaosMix
EXTRN	?PetItemSerialCreateSend@@YAXHEEEHEEEEEHEE@Z:PROC ; PetItemSerialCreateSend
;	COMDAT ??_C@_0EE@MAGJAMAN@?$FLDarkHorseMix?$FN?5?$FL?$CFs?$FN?$FL?$CFs?$FN?5CBMix?5Fa@
CONST	SEGMENT
??_C@_0EE@MAGJAMAN@?$FLDarkHorseMix?$FN?5?$FL?$CFs?$FN?$FL?$CFs?$FN?5CBMix?5Fa@ DB '['
	DB	'DarkHorseMix] [%s][%s] CBMix Fail %d Money : %d-%d, CharmRate'
	DB	' : %d', 00H					; `string'
CONST	ENDS
;	COMDAT ??_C@_0EH@JGHMMOON@?$FLDarkHorseMix?$FN?5?$FL?$CFs?$FN?$FL?$CFs?$FN?5CBMix?5Su@
CONST	SEGMENT
??_C@_0EH@JGHMMOON@?$FLDarkHorseMix?$FN?5?$FL?$CFs?$FN?$FL?$CFs?$FN?5CBMix?5Su@ DB '['
	DB	'DarkHorseMix] [%s][%s] CBMix Success %d Money : %d-%d, CharmR'
	DB	'ate : %d', 00H				; `string'
CONST	ENDS
;	COMDAT ??_C@_0BP@IMILBLLO@?$FLDarkHorseMix?$FN?5Chaos?5Mix?5Start?$AA@
CONST	SEGMENT
??_C@_0BP@IMILBLLO@?$FLDarkHorseMix?$FN?5Chaos?5Mix?5Start?$AA@ DB '[Dark'
	DB	'HorseMix] Chaos Mix Start', 00H		; `string'
CONST	ENDS
;	COMDAT ??_C@_0N@LDINKAHL@DarkHorseMix?$AA@
CONST	SEGMENT
??_C@_0N@LDINKAHL@DarkHorseMix?$AA@ DB 'DarkHorseMix', 00H ; `string'
; Function compile flags: /Ogtp
CONST	ENDS
;	COMDAT ?DarkHorseChaosMix@CMixSystem@@QAEXPAUOBJECTSTRUCT@@@Z
_TEXT	SEGMENT
_iCharmOfLuckCount$ = -52				; size = 4
_SoulGemCount$ = -48					; size = 4
_ChoasGemCount$ = -44					; size = 4
_BlessGemCount$ = -40					; size = 4
tv478 = -36						; size = 4
_this$ = -36						; size = 4
_Add$218461 = -32					; size = 4
_CreatureGemCount$ = -32				; size = 4
_Option1$218458 = -28					; size = 4
_SoulOfDarkHorse$ = -28					; size = 4
_lc22$218464 = -24					; size = 4
_iInvalidItemCount$ = -24				; size = 4
_pMsg$ = -20						; size = 16
__$ArrayPad$ = -4					; size = 4
_lpObj$ = 8						; size = 4
?DarkHorseChaosMix@CMixSystem@@QAEXPAUOBJECTSTRUCT@@@Z PROC ; CMixSystem::DarkHorseChaosMix, COMDAT
; _this$ = ecx

; 2196 : {

  00000	55		 push	 ebp
  00001	8b ec		 mov	 ebp, esp
  00003	83 ec 34	 sub	 esp, 52			; 00000034H
  00006	a1 00 00 00 00	 mov	 eax, DWORD PTR ___security_cookie
  0000b	33 c5		 xor	 eax, ebp
  0000d	89 45 fc	 mov	 DWORD PTR __$ArrayPad$[ebp], eax
  00010	53		 push	 ebx
  00011	56		 push	 esi
  00012	8b 75 08	 mov	 esi, DWORD PTR _lpObj$[ebp]
  00015	57		 push	 edi

; 2197 : 	lpObj->ChaosLock = TRUE;
; 2198 : 	int ChoasGemCount = 0;

  00016	33 ff		 xor	 edi, edi

; 2199 : 	int BlessGemCount = 0;
; 2200 : 	int SoulGemCount = 0;
; 2201 : 	int CreatureGemCount = 0;
; 2202 : 	int SoulOfDarkHorse = 0;
; 2203 : 	int iChaosMoney = 0;
; 2204 : 
; 2205 : 	PMSG_CHAOSMIXRESULT pMsg;
; 2206 : 
; 2207 : 	PHeadSetB((LPBYTE)&pMsg.h, 0x86, sizeof(PMSG_CHAOSMIXRESULT));

  00018	6a 10		 push	 16			; 00000010H
  0001a	8d 45 ec	 lea	 eax, DWORD PTR _pMsg$[ebp]
  0001d	68 86 00 00 00	 push	 134			; 00000086H
  00022	50		 push	 eax
  00023	89 4d dc	 mov	 DWORD PTR _this$[ebp], ecx
  00026	c7 86 88 0e 00
	00 01 00 00 00	 mov	 DWORD PTR [esi+3720], 1
  00030	89 7d d4	 mov	 DWORD PTR _ChoasGemCount$[ebp], edi
  00033	89 7d d8	 mov	 DWORD PTR _BlessGemCount$[ebp], edi
  00036	89 7d d0	 mov	 DWORD PTR _SoulGemCount$[ebp], edi
  00039	89 7d e0	 mov	 DWORD PTR _CreatureGemCount$[ebp], edi
  0003c	89 7d e4	 mov	 DWORD PTR _SoulOfDarkHorse$[ebp], edi
  0003f	e8 00 00 00 00	 call	 ?PHeadSetB@@YAXPAEEH@Z	; PHeadSetB
  00044	83 c4 0c	 add	 esp, 12			; 0000000cH

; 2208 : 	pMsg.Result = CB_ERROR;

  00047	c6 45 ef 00	 mov	 BYTE PTR _pMsg$[ebp+3], 0

; 2209 : 	int iCharmOfLuckCount = 0;

  0004b	33 db		 xor	 ebx, ebx

; 2210 : 	int iInvalidItemCount = 0;

  0004d	89 7d e8	 mov	 DWORD PTR _iInvalidItemCount$[ebp], edi
$LL34@DarkHorseC:

; 2213 : 	{
; 2214 : 		if ( lpObj->pChaosBox[n].IsItem() == TRUE )

  00050	8b 8e 78 0e 00
	00		 mov	 ecx, DWORD PTR [esi+3704]
  00056	03 cf		 add	 ecx, edi
  00058	e8 00 00 00 00	 call	 ?IsItem@CItem@@QAEHXZ	; CItem::IsItem
  0005d	83 f8 01	 cmp	 eax, 1
  00060	75 78		 jne	 SHORT $LN33@DarkHorseC

; 2215 : 		{
; 2216 : 			if ( lpObj->pChaosBox[n].m_Type == ITEMGET(14,13) )

  00062	8b 8e 78 0e 00
	00		 mov	 ecx, DWORD PTR [esi+3704]
  00068	0f b7 44 39 06	 movzx	 eax, WORD PTR [ecx+edi+6]
  0006d	ba 0d 1c 00 00	 mov	 edx, 7181		; 00001c0dH
  00072	66 3b c2	 cmp	 ax, dx
  00075	75 05		 jne	 SHORT $LN30@DarkHorseC

; 2217 : 			{
; 2218 : 				BlessGemCount++;

  00077	ff 45 d8	 inc	 DWORD PTR _BlessGemCount$[ebp]
  0007a	eb 5e		 jmp	 SHORT $LN33@DarkHorseC
$LN30@DarkHorseC:

; 2219 : 			}
; 2220 : 			else if ( lpObj->pChaosBox[n].m_Type == ITEMGET(14,14) )

  0007c	ba 0e 1c 00 00	 mov	 edx, 7182		; 00001c0eH
  00081	66 3b c2	 cmp	 ax, dx
  00084	75 05		 jne	 SHORT $LN28@DarkHorseC

; 2221 : 			{
; 2222 : 				SoulGemCount++;

  00086	ff 45 d0	 inc	 DWORD PTR _SoulGemCount$[ebp]
  00089	eb 4f		 jmp	 SHORT $LN33@DarkHorseC
$LN28@DarkHorseC:

; 2223 : 			}
; 2224 : 			else if ( lpObj->pChaosBox[n].m_Type == ITEMGET(14,22) )

  0008b	ba 16 1c 00 00	 mov	 edx, 7190		; 00001c16H
  00090	66 3b c2	 cmp	 ax, dx
  00093	75 05		 jne	 SHORT $LN26@DarkHorseC

; 2225 : 			{
; 2226 : 				CreatureGemCount++;

  00095	ff 45 e0	 inc	 DWORD PTR _CreatureGemCount$[ebp]
  00098	eb 40		 jmp	 SHORT $LN33@DarkHorseC
$LN26@DarkHorseC:

; 2227 : 			}
; 2228 : 			else if ( lpObj->pChaosBox[n].m_Type == ITEMGET(12,15) )

  0009a	ba 0f 18 00 00	 mov	 edx, 6159		; 0000180fH
  0009f	66 3b c2	 cmp	 ax, dx
  000a2	75 05		 jne	 SHORT $LN24@DarkHorseC

; 2229 : 			{
; 2230 : 				ChoasGemCount++;

  000a4	ff 45 d4	 inc	 DWORD PTR _ChoasGemCount$[ebp]
  000a7	eb 31		 jmp	 SHORT $LN33@DarkHorseC
$LN24@DarkHorseC:

; 2231 : 			}
; 2232 : 			else if ( lpObj->pChaosBox[n].m_Type == ITEMGET(13,31) && lpObj->pChaosBox[n].m_Level == 0 )

  000a9	ba 1f 1a 00 00	 mov	 edx, 6687		; 00001a1fH
  000ae	66 3b c2	 cmp	 ax, dx
  000b1	75 0d		 jne	 SHORT $LN22@DarkHorseC
  000b3	66 83 7c 39 08
	00		 cmp	 WORD PTR [ecx+edi+8], 0
  000b9	75 05		 jne	 SHORT $LN22@DarkHorseC

; 2233 : 			{
; 2234 : 				SoulOfDarkHorse++;

  000bb	ff 45 e4	 inc	 DWORD PTR _SoulOfDarkHorse$[ebp]
  000be	eb 1a		 jmp	 SHORT $LN33@DarkHorseC
$LN22@DarkHorseC:

; 2235 : 			}
; 2236 : 			else if ( lpObj->pChaosBox[n].m_Type == ITEMGET(14,53) )

  000c0	ba 35 1c 00 00	 mov	 edx, 7221		; 00001c35H
  000c5	66 3b c2	 cmp	 ax, dx
  000c8	75 0d		 jne	 SHORT $LN20@DarkHorseC

; 2237 : 			{
; 2238 : 				iCharmOfLuckCount += (int)lpObj->pChaosBox[n].m_Durability;

  000ca	d9 44 39 24	 fld	 DWORD PTR [ecx+edi+36]
  000ce	e8 00 00 00 00	 call	 __ftol2_sse
  000d3	03 d8		 add	 ebx, eax

; 2239 : 			}
; 2240 : 			else

  000d5	eb 03		 jmp	 SHORT $LN33@DarkHorseC
$LN20@DarkHorseC:

; 2241 : 			{
; 2242 : 				iInvalidItemCount++;

  000d7	ff 45 e8	 inc	 DWORD PTR _iInvalidItemCount$[ebp]
$LN33@DarkHorseC:

; 2211 : 
; 2212 : 	for ( int n=0;n<CHAOS_BOX_SIZE;n++)

  000da	81 c7 d4 00 00
	00		 add	 edi, 212		; 000000d4H
  000e0	81 ff 80 1a 00
	00		 cmp	 edi, 6784		; 00001a80H
  000e6	0f 8c 64 ff ff
	ff		 jl	 $LL34@DarkHorseC

; 2243 : 			}
; 2244 : 			
; 2245 : 
; 2246 : 		}
; 2247 : 	}
; 2248 : 
; 2249 : 	if ( ChoasGemCount != 1 || BlessGemCount != 5 || SoulGemCount != 5 || CreatureGemCount != 1 || SoulOfDarkHorse != 1 || iInvalidItemCount > 0 )

  000ec	b9 01 00 00 00	 mov	 ecx, 1
  000f1	89 5d cc	 mov	 DWORD PTR _iCharmOfLuckCount$[ebp], ebx
  000f4	39 4d d4	 cmp	 DWORD PTR _ChoasGemCount$[ebp], ecx
  000f7	0f 85 a8 02 00
	00		 jne	 $LN39@DarkHorseC
  000fd	b8 05 00 00 00	 mov	 eax, 5
  00102	39 45 d8	 cmp	 DWORD PTR _BlessGemCount$[ebp], eax
  00105	0f 85 9a 02 00
	00		 jne	 $LN39@DarkHorseC
  0010b	39 45 d0	 cmp	 DWORD PTR _SoulGemCount$[ebp], eax
  0010e	0f 85 91 02 00
	00		 jne	 $LN39@DarkHorseC
  00114	39 4d e0	 cmp	 DWORD PTR _CreatureGemCount$[ebp], ecx
  00117	0f 85 88 02 00
	00		 jne	 $LN39@DarkHorseC
  0011d	39 4d e4	 cmp	 DWORD PTR _SoulOfDarkHorse$[ebp], ecx
  00120	0f 85 7f 02 00
	00		 jne	 $LN39@DarkHorseC
  00126	83 7d e8 00	 cmp	 DWORD PTR _iInvalidItemCount$[ebp], 0
  0012a	0f 8f 75 02 00
	00		 jg	 $LN39@DarkHorseC

; 2252 : 		lpObj->ChaosLock = FALSE;
; 2253 : 
; 2254 : 		return;
; 2255 : 	}
; 2256 : 
; 2257 : 	if ( iCharmOfLuckCount > 10 )

  00130	83 fb 0a	 cmp	 ebx, 10			; 0000000aH
  00133	7e 15		 jle	 SHORT $LN16@DarkHorseC

; 2258 : 	{
; 2259 : 		pMsg.Result = 0xF0;
; 2260 : 		DataSend(lpObj->m_Index, (LPBYTE)&pMsg, pMsg.h.size);

  00135	0f b6 45 ed	 movzx	 eax, BYTE PTR _pMsg$[ebp+1]
  00139	8b 16		 mov	 edx, DWORD PTR [esi]
  0013b	50		 push	 eax
  0013c	8d 4d ec	 lea	 ecx, DWORD PTR _pMsg$[ebp]
  0013f	51		 push	 ecx
  00140	c6 45 ef f0	 mov	 BYTE PTR _pMsg$[ebp+3], 240 ; 000000f0H
  00144	52		 push	 edx

; 2261 : 		lpObj->ChaosLock = FALSE;
; 2262 : 
; 2263 : 		return ;

  00145	e9 67 02 00 00	 jmp	 $LN40@DarkHorseC
$LN16@DarkHorseC:

; 2264 : 	}
; 2265 : 
; 2266 : 	LogChaosItem(lpObj, "DarkHorseMix");

  0014a	8b 4d dc	 mov	 ecx, DWORD PTR _this$[ebp]
  0014d	68 00 00 00 00	 push	 OFFSET ??_C@_0N@LDINKAHL@DarkHorseMix?$AA@
  00152	56		 push	 esi
  00153	e8 00 00 00 00	 call	 ?LogChaosItem@CMixSystem@@QAEXPAUOBJECTSTRUCT@@PAD@Z ; CMixSystem::LogChaosItem

; 2267 : 	LogAddTD("[DarkHorseMix] Chaos Mix Start");

  00158	68 00 00 00 00	 push	 OFFSET ??_C@_0BP@IMILBLLO@?$FLDarkHorseMix?$FN?5Chaos?5Mix?5Start?$AA@
  0015d	ff 15 00 00 00
	00		 call	 DWORD PTR ?LogAddTD@@3P6AXPADZZA ; LogAddTD

; 2268 : 	//int ExDarkHorseMixSuccessRate = GetPrivateProfileInt("ChaosMix","DarkHorseMixSuccessRate",60,"..\\Data\\ZtData\\CommonServer.ini");
; 2269 : 	lpObj->ChaosSuccessRate = ZtConfig.CommonServer.ZtDarkHorseMixSuccessRate;
; 2270 : 	lpObj->ChaosSuccessRate += iCharmOfLuckCount;
; 2271 : 
; 2272 : 	int nChaosNeedMoney = 5000000;
; 2273 : 
; 2274 : 	int iChaosTaxMoney = (int)((__int64)nChaosNeedMoney * (__int64)g_CastleSiegeSync.GetTaxRateChaos(lpObj->m_Index) / (__int64)100);

  00163	8b 0e		 mov	 ecx, DWORD PTR [esi]
  00165	a1 88 00 00 00	 mov	 eax, DWORD PTR ?ZtConfig@@3VcZtConfigs@@A+136
  0016a	83 c4 04	 add	 esp, 4
  0016d	51		 push	 ecx
  0016e	89 86 84 0e 00
	00		 mov	 DWORD PTR [esi+3716], eax
  00174	01 9e 84 0e 00
	00		 add	 DWORD PTR [esi+3716], ebx
  0017a	b9 00 00 00 00	 mov	 ecx, OFFSET ?g_CastleSiegeSync@@3VCCastleSiegeSync@@A ; g_CastleSiegeSync
  0017f	e8 00 00 00 00	 call	 ?GetTaxRateChaos@CCastleSiegeSync@@QAEHH@Z ; CCastleSiegeSync::GetTaxRateChaos
  00184	6a 00		 push	 0
  00186	99		 cdq
  00187	68 40 4b 4c 00	 push	 5000000			; 004c4b40H
  0018c	52		 push	 edx
  0018d	50		 push	 eax
  0018e	e8 00 00 00 00	 call	 __allmul
  00193	6a 00		 push	 0
  00195	6a 64		 push	 100			; 00000064H
  00197	52		 push	 edx
  00198	50		 push	 eax
  00199	e8 00 00 00 00	 call	 __alldiv

; 2275 : 
; 2276 : 	if ( iChaosTaxMoney < 0 )

  0019e	85 c0		 test	 eax, eax
  001a0	79 02		 jns	 SHORT $LN15@DarkHorseC

; 2277 : 	{
; 2278 : 		iChaosTaxMoney = 0;

  001a2	33 c0		 xor	 eax, eax
$LN15@DarkHorseC:

; 2279 : 	}
; 2280 : 
; 2281 : 	nChaosNeedMoney += iChaosTaxMoney;
; 2282 : 
; 2283 : 		nChaosNeedMoney += lpObj->m_AddMixMoney;

  001a4	8b 96 20 28 00
	00		 mov	 edx, DWORD PTR [esi+10272]
  001aa	8d bc 02 40 4b
	4c 00		 lea	 edi, DWORD PTR [edx+eax+5000000]

; 2284 : 
; 2285 : 	if ( nChaosNeedMoney < 0 )

  001b1	85 ff		 test	 edi, edi
  001b3	79 02		 jns	 SHORT $LN14@DarkHorseC

; 2286 : 	{
; 2287 : 		nChaosNeedMoney = 0;

  001b5	33 ff		 xor	 edi, edi
$LN14@DarkHorseC:

; 2288 : 	}
; 2289 : 
; 2290 : 	if ( lpObj->Money < nChaosNeedMoney )

  001b7	8b 8e f0 00 00
	00		 mov	 ecx, DWORD PTR [esi+240]
  001bd	3b cf		 cmp	 ecx, edi
  001bf	7d 15		 jge	 SHORT $LN13@DarkHorseC

; 2291 : 	{
; 2292 : 		pMsg.Result = CB_NOT_ENOUGH_ZEN;
; 2293 : 		
; 2294 : 		DataSend(lpObj->m_Index, (LPBYTE)&pMsg, pMsg.h.size);

  001c1	0f b6 45 ed	 movzx	 eax, BYTE PTR _pMsg$[ebp+1]
  001c5	8b 16		 mov	 edx, DWORD PTR [esi]
  001c7	50		 push	 eax
  001c8	8d 4d ec	 lea	 ecx, DWORD PTR _pMsg$[ebp]
  001cb	51		 push	 ecx
  001cc	c6 45 ef 02	 mov	 BYTE PTR _pMsg$[ebp+3], 2
  001d0	52		 push	 edx

; 2295 : 		lpObj->ChaosLock = FALSE;
; 2296 : 
; 2297 : 		return;

  001d1	e9 db 01 00 00	 jmp	 $LN40@DarkHorseC
$LN13@DarkHorseC:

; 2298 : 	}
; 2299 : 
; 2300 : 	lpObj->ChaosSuccessRate += lpObj->m_AddMixSuccessRate;

  001d6	8b 96 24 28 00
	00		 mov	 edx, DWORD PTR [esi+10276]
  001dc	01 96 84 0e 00
	00		 add	 DWORD PTR [esi+3716], edx

; 2301 : 
; 2302 : 
; 2303 : 
; 2304 : 	lpObj->Money -= nChaosNeedMoney;

  001e2	2b cf		 sub	 ecx, edi
  001e4	89 8e f0 00 00
	00		 mov	 DWORD PTR [esi+240], ecx

; 2305 : 	g_CastleSiegeSync.AddTributeMoney(iChaosTaxMoney);

  001ea	50		 push	 eax
  001eb	b9 00 00 00 00	 mov	 ecx, OFFSET ?g_CastleSiegeSync@@3VCCastleSiegeSync@@A ; g_CastleSiegeSync
  001f0	e8 00 00 00 00	 call	 ?AddTributeMoney@CCastleSiegeSync@@QAEXH@Z ; CCastleSiegeSync::AddTributeMoney

; 2306 : 	GCMoneySend(lpObj->m_Index, lpObj->Money);

  001f5	8b 86 f0 00 00
	00		 mov	 eax, DWORD PTR [esi+240]
  001fb	8b 0e		 mov	 ecx, DWORD PTR [esi]
  001fd	50		 push	 eax
  001fe	51		 push	 ecx
  001ff	e8 00 00 00 00	 call	 ?GCMoneySend@@YAXHK@Z	; GCMoneySend
  00204	83 c4 08	 add	 esp, 8

; 2307 : 
; 2308 : 	if ( (rand()%100) < lpObj->ChaosSuccessRate )

  00207	e8 00 00 00 00	 call	 _rand
  0020c	99		 cdq
  0020d	b9 64 00 00 00	 mov	 ecx, 100		; 00000064H
  00212	f7 f9		 idiv	 ecx
  00214	3b 96 84 0e 00
	00		 cmp	 edx, DWORD PTR [esi+3716]
  0021a	0f 8d 13 01 00
	00		 jge	 $LN12@DarkHorseC

; 2309 : 	{
; 2310 : 		int Level = 0;
; 2311 : 		int ItemType = 13;
; 2312 : 		int ItemSubType = 4;
; 2313 : 		int ItemNum = ITEMGET(ItemType, ItemSubType);
; 2314 : 		int Option1 = 0;

  00220	33 db		 xor	 ebx, ebx
  00222	89 5d e4	 mov	 DWORD PTR _Option1$218458[ebp], ebx

; 2315 : 		int Option2 = 0;
; 2316 : 		int Option3 = 0;
; 2317 : 
; 2318 : 		int Add = 0;

  00225	89 5d e0	 mov	 DWORD PTR _Add$218461[ebp], ebx

; 2319 : 
; 2320 : 		if ( (rand()%100) < (lpObj->ChaosSuccessRate/5+6) )

  00228	e8 00 00 00 00	 call	 _rand
  0022d	99		 cdq
  0022e	b9 64 00 00 00	 mov	 ecx, 100		; 00000064H
  00233	f7 f9		 idiv	 ecx
  00235	b8 67 66 66 66	 mov	 eax, 1717986919		; 66666667H
  0023a	89 55 dc	 mov	 DWORD PTR tv478[ebp], edx
  0023d	f7 ae 84 0e 00
	00		 imul	 DWORD PTR [esi+3716]
  00243	d1 fa		 sar	 edx, 1
  00245	8b c2		 mov	 eax, edx
  00247	c1 e8 1f	 shr	 eax, 31			; 0000001fH
  0024a	8d 4c 02 06	 lea	 ecx, DWORD PTR [edx+eax+6]
  0024e	39 4d dc	 cmp	 DWORD PTR tv478[ebp], ecx
  00251	7d 07		 jge	 SHORT $LN11@DarkHorseC

; 2321 : 		{
; 2322 : 			Add = 1;

  00253	c7 45 e0 01 00
	00 00		 mov	 DWORD PTR _Add$218461[ebp], 1
$LN11@DarkHorseC:

; 2323 : 		}
; 2324 : 
; 2325 : 		if ( (rand()%5) == 0 )

  0025a	e8 00 00 00 00	 call	 _rand
  0025f	99		 cdq
  00260	b9 05 00 00 00	 mov	 ecx, 5
  00265	f7 f9		 idiv	 ecx
  00267	85 d2		 test	 edx, edx
  00269	75 07		 jne	 SHORT $LN10@DarkHorseC

; 2326 : 		{
; 2327 : 			Option1 = 1;

  0026b	c7 45 e4 01 00
	00 00		 mov	 DWORD PTR _Option1$218458[ebp], 1
$LN10@DarkHorseC:

; 2328 : 		}
; 2329 : 
; 2330 : 		int lc22 = rand()%100;	

  00272	e8 00 00 00 00	 call	 _rand
  00277	99		 cdq
  00278	b9 64 00 00 00	 mov	 ecx, 100		; 00000064H
  0027d	f7 f9		 idiv	 ecx
  0027f	89 55 e8	 mov	 DWORD PTR _lc22$218464[ebp], edx

; 2331 : 		int lc23 = rand()%3;

  00282	e8 00 00 00 00	 call	 _rand
  00287	99		 cdq
  00288	b9 03 00 00 00	 mov	 ecx, 3
  0028d	f7 f9		 idiv	 ecx

; 2332 : 
; 2333 : 		switch ( lc23 )

  0028f	2b d3		 sub	 edx, ebx
  00291	74 1e		 je	 SHORT $LN7@DarkHorseC
  00293	4a		 dec	 edx
  00294	74 0e		 je	 SHORT $LN5@DarkHorseC
  00296	4a		 dec	 edx
  00297	75 20		 jne	 SHORT $LN6@DarkHorseC

; 2348 : 
; 2349 : 			case 2:
; 2350 : 				if ( lc22 <  20 )

  00299	83 7d e8 14	 cmp	 DWORD PTR _lc22$218464[ebp], 20 ; 00000014H
  0029d	7d 1a		 jge	 SHORT $LN6@DarkHorseC

; 2351 : 				{
; 2352 : 					Option2 = 1;

  0029f	8d 59 fe	 lea	 ebx, DWORD PTR [ecx-2]

; 2353 : 				}
; 2354 : 				break;

  002a2	eb 15		 jmp	 SHORT $LN6@DarkHorseC
$LN5@DarkHorseC:

; 2339 : 				}
; 2340 : 				break;
; 2341 : 
; 2342 : 			case 1:
; 2343 : 				if ( lc22 <  10 )

  002a4	83 7d e8 0a	 cmp	 DWORD PTR _lc22$218464[ebp], 10 ; 0000000aH
  002a8	7d 0f		 jge	 SHORT $LN6@DarkHorseC

; 2344 : 				{
; 2345 : 					Option2 = 2;

  002aa	bb 02 00 00 00	 mov	 ebx, 2

; 2346 : 				}
; 2347 : 				break;

  002af	eb 08		 jmp	 SHORT $LN6@DarkHorseC
$LN7@DarkHorseC:

; 2334 : 		{
; 2335 : 			case 0:
; 2336 : 				if ( lc22 <  4 )

  002b1	83 7d e8 04	 cmp	 DWORD PTR _lc22$218464[ebp], 4
  002b5	7d 02		 jge	 SHORT $LN6@DarkHorseC

; 2337 : 				{
; 2338 : 					Option2 = 3;

  002b7	8b d9		 mov	 ebx, ecx
$LN6@DarkHorseC:

; 2355 : 		}
; 2356 : 
; 2357 : 		::PetItemSerialCreateSend(lpObj->m_Index, -2, 0, 0, ItemNum, Level, 0,Add,  Option1, Option2, -1, 0, 0); 

  002b9	8b 55 e4	 mov	 edx, DWORD PTR _Option1$218458[ebp]
  002bc	8b 45 e0	 mov	 eax, DWORD PTR _Add$218461[ebp]
  002bf	6a 00		 push	 0
  002c1	8b 0e		 mov	 ecx, DWORD PTR [esi]
  002c3	6a 00		 push	 0
  002c5	6a ff		 push	 -1
  002c7	53		 push	 ebx
  002c8	52		 push	 edx
  002c9	50		 push	 eax
  002ca	6a 00		 push	 0
  002cc	6a 00		 push	 0
  002ce	68 04 1a 00 00	 push	 6660			; 00001a04H
  002d3	6a 00		 push	 0
  002d5	6a 00		 push	 0
  002d7	68 fe 00 00 00	 push	 254			; 000000feH
  002dc	51		 push	 ecx
  002dd	e8 00 00 00 00	 call	 ?PetItemSerialCreateSend@@YAXHEEEHEEEEEHEE@Z ; PetItemSerialCreateSend

; 2358 : 		::gObjInventoryCommit(lpObj->m_Index);

  002e2	8b 16		 mov	 edx, DWORD PTR [esi]
  002e4	52		 push	 edx
  002e5	e8 00 00 00 00	 call	 ?gObjInventoryCommit@@YAHH@Z ; gObjInventoryCommit

; 2359 : 		LogAddTD("[DarkHorseMix] [%s][%s] CBMix Success %d Money : %d-%d, CharmRate : %d",
; 2360 : 			lpObj->AccountID, lpObj->Name, lpObj->ChaosSuccessRate,
; 2361 : 			lpObj->Money, nChaosNeedMoney, iCharmOfLuckCount);

  002ea	8b 45 cc	 mov	 eax, DWORD PTR _iCharmOfLuckCount$[ebp]
  002ed	8b 8e f0 00 00
	00		 mov	 ecx, DWORD PTR [esi+240]
  002f3	8b 96 84 0e 00
	00		 mov	 edx, DWORD PTR [esi+3716]
  002f9	50		 push	 eax
  002fa	57		 push	 edi
  002fb	51		 push	 ecx
  002fc	52		 push	 edx
  002fd	8d 46 77	 lea	 eax, DWORD PTR [esi+119]
  00300	50		 push	 eax
  00301	8d 4e 6c	 lea	 ecx, DWORD PTR [esi+108]
  00304	51		 push	 ecx
  00305	68 00 00 00 00	 push	 OFFSET ??_C@_0EH@JGHMMOON@?$FLDarkHorseMix?$FN?5?$FL?$CFs?$FN?$FL?$CFs?$FN?5CBMix?5Su@
  0030a	ff 15 00 00 00
	00		 call	 DWORD PTR ?LogAddTD@@3P6AXPADZZA ; LogAddTD

; 2362 : #if(SYSTEM_ACHIEVEMENTS)
; 2363 : 		g_Achievements.SuccessChaosMix(lpObj->m_Index);

  00310	8b 16		 mov	 edx, DWORD PTR [esi]
  00312	83 c4 54	 add	 esp, 84			; 00000054H
  00315	52		 push	 edx
  00316	b9 00 00 00 00	 mov	 ecx, OFFSET ?g_Achievements@@3VCAchievements@@A ; g_Achievements
  0031b	e8 00 00 00 00	 call	 ?SuccessChaosMix@CAchievements@@QAEXH@Z ; CAchievements::SuccessChaosMix
  00320	5f		 pop	 edi
  00321	5e		 pop	 esi
  00322	5b		 pop	 ebx

; 2378 : #endif
; 2379 : 	}
; 2380 : }

  00323	8b 4d fc	 mov	 ecx, DWORD PTR __$ArrayPad$[ebp]
  00326	33 cd		 xor	 ecx, ebp
  00328	e8 00 00 00 00	 call	 @__security_check_cookie@4
  0032d	8b e5		 mov	 esp, ebp
  0032f	5d		 pop	 ebp
  00330	c2 04 00	 ret	 4
$LN12@DarkHorseC:

; 2364 : #endif
; 2365 : 	}
; 2366 : 	else
; 2367 : 	{
; 2368 : 		this->ChaosBoxInit(lpObj);

  00333	8b 4d dc	 mov	 ecx, DWORD PTR _this$[ebp]
  00336	56		 push	 esi
  00337	e8 00 00 00 00	 call	 ?ChaosBoxInit@CMixSystem@@QAEHPAUOBJECTSTRUCT@@@Z ; CMixSystem::ChaosBoxInit

; 2369 : 		GCUserChaosBoxSend(lpObj, 1);

  0033c	6a 01		 push	 1
  0033e	56		 push	 esi
  0033f	e8 00 00 00 00	 call	 ?GCUserChaosBoxSend@@YAXPAUOBJECTSTRUCT@@H@Z ; GCUserChaosBoxSend

; 2370 : 		DataSend(lpObj->m_Index, (LPBYTE)&pMsg, pMsg.h.size);

  00344	0f b6 45 ed	 movzx	 eax, BYTE PTR _pMsg$[ebp+1]
  00348	8b 16		 mov	 edx, DWORD PTR [esi]
  0034a	50		 push	 eax
  0034b	8d 4d ec	 lea	 ecx, DWORD PTR _pMsg$[ebp]
  0034e	51		 push	 ecx
  0034f	52		 push	 edx
  00350	e8 00 00 00 00	 call	 ?DataSend@@YAHHPAEK@Z	; DataSend

; 2371 : 
; 2372 : 		LogAddTD("[DarkHorseMix] [%s][%s] CBMix Fail %d Money : %d-%d, CharmRate : %d",
; 2373 : 			lpObj->AccountID, lpObj->Name, lpObj->ChaosSuccessRate,
; 2374 : 			lpObj->Money, nChaosNeedMoney, iCharmOfLuckCount);

  00355	8b 86 f0 00 00
	00		 mov	 eax, DWORD PTR [esi+240]
  0035b	8b 8e 84 0e 00
	00		 mov	 ecx, DWORD PTR [esi+3716]
  00361	53		 push	 ebx
  00362	57		 push	 edi
  00363	50		 push	 eax
  00364	51		 push	 ecx
  00365	8d 56 77	 lea	 edx, DWORD PTR [esi+119]
  00368	52		 push	 edx
  00369	8d 46 6c	 lea	 eax, DWORD PTR [esi+108]
  0036c	50		 push	 eax
  0036d	68 00 00 00 00	 push	 OFFSET ??_C@_0EE@MAGJAMAN@?$FLDarkHorseMix?$FN?5?$FL?$CFs?$FN?$FL?$CFs?$FN?5CBMix?5Fa@
  00372	ff 15 00 00 00
	00		 call	 DWORD PTR ?LogAddTD@@3P6AXPADZZA ; LogAddTD

; 2375 : 		lpObj->ChaosLock = FALSE;
; 2376 : #if(SYSTEM_ACHIEVEMENTS)
; 2377 : 		g_Achievements.FailedChaosMix(lpObj->m_Index);

  00378	8b 0e		 mov	 ecx, DWORD PTR [esi]
  0037a	83 c4 30	 add	 esp, 48			; 00000030H
  0037d	51		 push	 ecx
  0037e	b9 00 00 00 00	 mov	 ecx, OFFSET ?g_Achievements@@3VCAchievements@@A ; g_Achievements
  00383	c7 86 88 0e 00
	00 00 00 00 00	 mov	 DWORD PTR [esi+3720], 0
  0038d	e8 00 00 00 00	 call	 ?FailedChaosMix@CAchievements@@QAEXH@Z ; CAchievements::FailedChaosMix
  00392	5f		 pop	 edi
  00393	5e		 pop	 esi
  00394	5b		 pop	 ebx

; 2378 : #endif
; 2379 : 	}
; 2380 : }

  00395	8b 4d fc	 mov	 ecx, DWORD PTR __$ArrayPad$[ebp]
  00398	33 cd		 xor	 ecx, ebp
  0039a	e8 00 00 00 00	 call	 @__security_check_cookie@4
  0039f	8b e5		 mov	 esp, ebp
  003a1	5d		 pop	 ebp
  003a2	c2 04 00	 ret	 4
$LN39@DarkHorseC:

; 2250 : 	{
; 2251 : 		DataSend(lpObj->m_Index, (LPBYTE)&pMsg, pMsg.h.size);

  003a5	0f b6 55 ed	 movzx	 edx, BYTE PTR _pMsg$[ebp+1]
  003a9	8b 0e		 mov	 ecx, DWORD PTR [esi]
  003ab	52		 push	 edx
  003ac	8d 45 ec	 lea	 eax, DWORD PTR _pMsg$[ebp]
  003af	50		 push	 eax
  003b0	51		 push	 ecx
$LN40@DarkHorseC:
  003b1	e8 00 00 00 00	 call	 ?DataSend@@YAHHPAEK@Z	; DataSend

; 2378 : #endif
; 2379 : 	}
; 2380 : }

  003b6	8b 4d fc	 mov	 ecx, DWORD PTR __$ArrayPad$[ebp]
  003b9	83 c4 0c	 add	 esp, 12			; 0000000cH
  003bc	5f		 pop	 edi
  003bd	c7 86 88 0e 00
	00 00 00 00 00	 mov	 DWORD PTR [esi+3720], 0
  003c7	5e		 pop	 esi
  003c8	33 cd		 xor	 ecx, ebp
  003ca	5b		 pop	 ebx
  003cb	e8 00 00 00 00	 call	 @__security_check_cookie@4
  003d0	8b e5		 mov	 esp, ebp
  003d2	5d		 pop	 ebp
  003d3	c2 04 00	 ret	 4
?DarkHorseChaosMix@CMixSystem@@QAEXPAUOBJECTSTRUCT@@@Z ENDP ; CMixSystem::DarkHorseChaosMix
_TEXT	ENDS
PUBLIC	??_C@_0EF@ENJLGEHL@?$FLDarkSpiritMix?$FN?5?$FL?$CFs?$FN?$FL?$CFs?$FN?5CBMix?5F@ ; `string'
PUBLIC	??_C@_0EI@DIJHKIBN@?$FLDarkSpiritMix?$FN?5?$FL?$CFs?$FN?$FL?$CFs?$FN?5CBMix?5S@ ; `string'
PUBLIC	??_C@_0CA@HOBPNGGO@?$FLDarkSpiritMix?$FN?5Chaos?5Mix?5Start?$AA@ ; `string'
PUBLIC	??_C@_0O@OCFEOMDO@DarkSpiritMix?$AA@		; `string'
PUBLIC	__$ArrayPad$
PUBLIC	?DarkSpiritChaosMix@CMixSystem@@QAEXPAUOBJECTSTRUCT@@@Z ; CMixSystem::DarkSpiritChaosMix
;	COMDAT ??_C@_0EF@ENJLGEHL@?$FLDarkSpiritMix?$FN?5?$FL?$CFs?$FN?$FL?$CFs?$FN?5CBMix?5F@
CONST	SEGMENT
??_C@_0EF@ENJLGEHL@?$FLDarkSpiritMix?$FN?5?$FL?$CFs?$FN?$FL?$CFs?$FN?5CBMix?5F@ DB '['
	DB	'DarkSpiritMix] [%s][%s] CBMix Fail %d Money : %d-%d, CharmRat'
	DB	'e : %d', 00H				; `string'
CONST	ENDS
;	COMDAT ??_C@_0EI@DIJHKIBN@?$FLDarkSpiritMix?$FN?5?$FL?$CFs?$FN?$FL?$CFs?$FN?5CBMix?5S@
CONST	SEGMENT
??_C@_0EI@DIJHKIBN@?$FLDarkSpiritMix?$FN?5?$FL?$CFs?$FN?$FL?$CFs?$FN?5CBMix?5S@ DB '['
	DB	'DarkSpiritMix] [%s][%s] CBMix Success %d Money : %d-%d, Charm'
	DB	'Rate : %d', 00H				; `string'
CONST	ENDS
;	COMDAT ??_C@_0CA@HOBPNGGO@?$FLDarkSpiritMix?$FN?5Chaos?5Mix?5Start?$AA@
CONST	SEGMENT
??_C@_0CA@HOBPNGGO@?$FLDarkSpiritMix?$FN?5Chaos?5Mix?5Start?$AA@ DB '[Dar'
	DB	'kSpiritMix] Chaos Mix Start', 00H		; `string'
CONST	ENDS
;	COMDAT ??_C@_0O@OCFEOMDO@DarkSpiritMix?$AA@
CONST	SEGMENT
??_C@_0O@OCFEOMDO@DarkSpiritMix?$AA@ DB 'DarkSpiritMix', 00H ; `string'
; Function compile flags: /Ogtp
CONST	ENDS
;	COMDAT ?DarkSpiritChaosMix@CMixSystem@@QAEXPAUOBJECTSTRUCT@@@Z
_TEXT	SEGMENT
_iCharmOfLuckCount$ = -52				; size = 4
_SoulGemCount$ = -48					; size = 4
_ChoasGemCount$ = -44					; size = 4
_BlessGemCount$ = -40					; size = 4
tv478 = -36						; size = 4
_this$ = -36						; size = 4
_Add$218538 = -32					; size = 4
_CreatureGemCount$ = -32				; size = 4
_Option1$218535 = -28					; size = 4
_SoulOfSpirit$ = -28					; size = 4
_lc22$218541 = -24					; size = 4
_iInvalidItemCount$ = -24				; size = 4
_pMsg$ = -20						; size = 16
__$ArrayPad$ = -4					; size = 4
_lpObj$ = 8						; size = 4
?DarkSpiritChaosMix@CMixSystem@@QAEXPAUOBJECTSTRUCT@@@Z PROC ; CMixSystem::DarkSpiritChaosMix, COMDAT
; _this$ = ecx

; 2383 : {

  00000	55		 push	 ebp
  00001	8b ec		 mov	 ebp, esp
  00003	83 ec 34	 sub	 esp, 52			; 00000034H
  00006	a1 00 00 00 00	 mov	 eax, DWORD PTR ___security_cookie
  0000b	33 c5		 xor	 eax, ebp
  0000d	89 45 fc	 mov	 DWORD PTR __$ArrayPad$[ebp], eax
  00010	53		 push	 ebx
  00011	56		 push	 esi
  00012	8b 75 08	 mov	 esi, DWORD PTR _lpObj$[ebp]
  00015	57		 push	 edi

; 2384 : 	lpObj->ChaosLock = TRUE;
; 2385 : 	int ChoasGemCount = 0;

  00016	33 ff		 xor	 edi, edi

; 2386 : 	int BlessGemCount = 0;
; 2387 : 	int SoulGemCount = 0;
; 2388 : 	int CreatureGemCount = 0;
; 2389 : 	int SoulOfSpirit = 0;
; 2390 : 	int iChaosMoney = 0;
; 2391 : 
; 2392 : 	PMSG_CHAOSMIXRESULT pMsg;
; 2393 : 
; 2394 : 	PHeadSetB((LPBYTE)&pMsg.h, 0x86, sizeof(PMSG_CHAOSMIXRESULT));

  00018	6a 10		 push	 16			; 00000010H
  0001a	8d 45 ec	 lea	 eax, DWORD PTR _pMsg$[ebp]
  0001d	68 86 00 00 00	 push	 134			; 00000086H
  00022	50		 push	 eax
  00023	89 4d dc	 mov	 DWORD PTR _this$[ebp], ecx
  00026	c7 86 88 0e 00
	00 01 00 00 00	 mov	 DWORD PTR [esi+3720], 1
  00030	89 7d d4	 mov	 DWORD PTR _ChoasGemCount$[ebp], edi
  00033	89 7d d8	 mov	 DWORD PTR _BlessGemCount$[ebp], edi
  00036	89 7d d0	 mov	 DWORD PTR _SoulGemCount$[ebp], edi
  00039	89 7d e0	 mov	 DWORD PTR _CreatureGemCount$[ebp], edi
  0003c	89 7d e4	 mov	 DWORD PTR _SoulOfSpirit$[ebp], edi
  0003f	e8 00 00 00 00	 call	 ?PHeadSetB@@YAXPAEEH@Z	; PHeadSetB
  00044	83 c4 0c	 add	 esp, 12			; 0000000cH

; 2395 : 	pMsg.Result = CB_ERROR;

  00047	c6 45 ef 00	 mov	 BYTE PTR _pMsg$[ebp+3], 0

; 2396 : 	int iCharmOfLuckCount = 0;

  0004b	33 db		 xor	 ebx, ebx

; 2397 : 	int iInvalidItemCount = 0;

  0004d	89 7d e8	 mov	 DWORD PTR _iInvalidItemCount$[ebp], edi
$LL34@DarkSpirit:

; 2400 : 	{
; 2401 : 		if ( lpObj->pChaosBox[n].IsItem() == TRUE )

  00050	8b 8e 78 0e 00
	00		 mov	 ecx, DWORD PTR [esi+3704]
  00056	03 cf		 add	 ecx, edi
  00058	e8 00 00 00 00	 call	 ?IsItem@CItem@@QAEHXZ	; CItem::IsItem
  0005d	83 f8 01	 cmp	 eax, 1
  00060	75 7c		 jne	 SHORT $LN33@DarkSpirit

; 2402 : 		{
; 2403 : 			if ( lpObj->pChaosBox[n].m_Type == ITEMGET(14,13) )

  00062	8b 8e 78 0e 00
	00		 mov	 ecx, DWORD PTR [esi+3704]
  00068	0f b7 44 39 06	 movzx	 eax, WORD PTR [ecx+edi+6]
  0006d	ba 0d 1c 00 00	 mov	 edx, 7181		; 00001c0dH
  00072	66 3b c2	 cmp	 ax, dx
  00075	75 05		 jne	 SHORT $LN30@DarkSpirit

; 2404 : 			{
; 2405 : 				BlessGemCount++;

  00077	ff 45 d8	 inc	 DWORD PTR _BlessGemCount$[ebp]
  0007a	eb 62		 jmp	 SHORT $LN33@DarkSpirit
$LN30@DarkSpirit:

; 2406 : 			}
; 2407 : 			else if ( lpObj->pChaosBox[n].m_Type == ITEMGET(14,14) )

  0007c	ba 0e 1c 00 00	 mov	 edx, 7182		; 00001c0eH
  00081	66 3b c2	 cmp	 ax, dx
  00084	75 05		 jne	 SHORT $LN28@DarkSpirit

; 2408 : 			{
; 2409 : 				SoulGemCount++;

  00086	ff 45 d0	 inc	 DWORD PTR _SoulGemCount$[ebp]
  00089	eb 53		 jmp	 SHORT $LN33@DarkSpirit
$LN28@DarkSpirit:

; 2410 : 			}
; 2411 : 			else if ( lpObj->pChaosBox[n].m_Type == ITEMGET(14,22) )

  0008b	ba 16 1c 00 00	 mov	 edx, 7190		; 00001c16H
  00090	66 3b c2	 cmp	 ax, dx
  00093	75 05		 jne	 SHORT $LN26@DarkSpirit

; 2412 : 			{
; 2413 : 				CreatureGemCount++;

  00095	ff 45 e0	 inc	 DWORD PTR _CreatureGemCount$[ebp]
  00098	eb 44		 jmp	 SHORT $LN33@DarkSpirit
$LN26@DarkSpirit:

; 2414 : 			}
; 2415 : 			else if ( lpObj->pChaosBox[n].m_Type == ITEMGET(12,15) )

  0009a	ba 0f 18 00 00	 mov	 edx, 6159		; 0000180fH
  0009f	66 3b c2	 cmp	 ax, dx
  000a2	75 05		 jne	 SHORT $LN24@DarkSpirit

; 2416 : 			{
; 2417 : 				ChoasGemCount++;

  000a4	ff 45 d4	 inc	 DWORD PTR _ChoasGemCount$[ebp]
  000a7	eb 35		 jmp	 SHORT $LN33@DarkSpirit
$LN24@DarkSpirit:

; 2418 : 			}
; 2419 : 			else if ( lpObj->pChaosBox[n].m_Type == ITEMGET(13,31) && lpObj->pChaosBox[n].m_Level == 1 )

  000a9	ba 1f 1a 00 00	 mov	 edx, 6687		; 00001a1fH
  000ae	66 3b c2	 cmp	 ax, dx
  000b1	75 11		 jne	 SHORT $LN22@DarkSpirit
  000b3	ba 01 00 00 00	 mov	 edx, 1
  000b8	66 39 54 39 08	 cmp	 WORD PTR [ecx+edi+8], dx
  000bd	75 05		 jne	 SHORT $LN22@DarkSpirit

; 2420 : 			{
; 2421 : 				SoulOfSpirit++;

  000bf	01 55 e4	 add	 DWORD PTR _SoulOfSpirit$[ebp], edx
  000c2	eb 1a		 jmp	 SHORT $LN33@DarkSpirit
$LN22@DarkSpirit:

; 2422 : 			}
; 2423 : 			else if ( lpObj->pChaosBox[n].m_Type == ITEMGET(14,53) )

  000c4	ba 35 1c 00 00	 mov	 edx, 7221		; 00001c35H
  000c9	66 3b c2	 cmp	 ax, dx
  000cc	75 0d		 jne	 SHORT $LN20@DarkSpirit

; 2424 : 			{
; 2425 : 				iCharmOfLuckCount += (int)lpObj->pChaosBox[n].m_Durability;

  000ce	d9 44 39 24	 fld	 DWORD PTR [ecx+edi+36]
  000d2	e8 00 00 00 00	 call	 __ftol2_sse
  000d7	03 d8		 add	 ebx, eax

; 2426 : 			}
; 2427 : 			else

  000d9	eb 03		 jmp	 SHORT $LN33@DarkSpirit
$LN20@DarkSpirit:

; 2428 : 			{
; 2429 : 				iInvalidItemCount++;

  000db	ff 45 e8	 inc	 DWORD PTR _iInvalidItemCount$[ebp]
$LN33@DarkSpirit:

; 2398 : 
; 2399 : 	for ( int n=0;n<CHAOS_BOX_SIZE;n++)

  000de	81 c7 d4 00 00
	00		 add	 edi, 212		; 000000d4H
  000e4	81 ff 80 1a 00
	00		 cmp	 edi, 6784		; 00001a80H
  000ea	0f 8c 60 ff ff
	ff		 jl	 $LL34@DarkSpirit

; 2430 : 			}
; 2431 : 		}
; 2432 : 	}
; 2433 : 
; 2434 : 	if ( ChoasGemCount != 1 || BlessGemCount != 2 || SoulGemCount != 2 || CreatureGemCount != 1 || SoulOfSpirit != 1 || iInvalidItemCount > 0 )

  000f0	b9 01 00 00 00	 mov	 ecx, 1
  000f5	89 5d cc	 mov	 DWORD PTR _iCharmOfLuckCount$[ebp], ebx
  000f8	39 4d d4	 cmp	 DWORD PTR _ChoasGemCount$[ebp], ecx
  000fb	0f 85 a8 02 00
	00		 jne	 $LN39@DarkSpirit
  00101	b8 02 00 00 00	 mov	 eax, 2
  00106	39 45 d8	 cmp	 DWORD PTR _BlessGemCount$[ebp], eax
  00109	0f 85 9a 02 00
	00		 jne	 $LN39@DarkSpirit
  0010f	39 45 d0	 cmp	 DWORD PTR _SoulGemCount$[ebp], eax
  00112	0f 85 91 02 00
	00		 jne	 $LN39@DarkSpirit
  00118	39 4d e0	 cmp	 DWORD PTR _CreatureGemCount$[ebp], ecx
  0011b	0f 85 88 02 00
	00		 jne	 $LN39@DarkSpirit
  00121	39 4d e4	 cmp	 DWORD PTR _SoulOfSpirit$[ebp], ecx
  00124	0f 85 7f 02 00
	00		 jne	 $LN39@DarkSpirit
  0012a	83 7d e8 00	 cmp	 DWORD PTR _iInvalidItemCount$[ebp], 0
  0012e	0f 8f 75 02 00
	00		 jg	 $LN39@DarkSpirit

; 2437 : 		lpObj->ChaosLock = FALSE;
; 2438 : 
; 2439 : 		return;
; 2440 : 	}
; 2441 : 
; 2442 : 	if ( iCharmOfLuckCount > 10 )

  00134	83 fb 0a	 cmp	 ebx, 10			; 0000000aH
  00137	7e 15		 jle	 SHORT $LN16@DarkSpirit

; 2443 : 	{
; 2444 : 		pMsg.Result = 0xF0;
; 2445 : 		DataSend(lpObj->m_Index, (LPBYTE)&pMsg, pMsg.h.size);

  00139	0f b6 45 ed	 movzx	 eax, BYTE PTR _pMsg$[ebp+1]
  0013d	8b 16		 mov	 edx, DWORD PTR [esi]
  0013f	50		 push	 eax
  00140	8d 4d ec	 lea	 ecx, DWORD PTR _pMsg$[ebp]
  00143	51		 push	 ecx
  00144	c6 45 ef f0	 mov	 BYTE PTR _pMsg$[ebp+3], 240 ; 000000f0H
  00148	52		 push	 edx

; 2446 : 		lpObj->ChaosLock = FALSE;
; 2447 : 
; 2448 : 		return ;

  00149	e9 67 02 00 00	 jmp	 $LN40@DarkSpirit
$LN16@DarkSpirit:

; 2449 : 	}
; 2450 : 
; 2451 : 	LogChaosItem(lpObj, "DarkSpiritMix");

  0014e	8b 4d dc	 mov	 ecx, DWORD PTR _this$[ebp]
  00151	68 00 00 00 00	 push	 OFFSET ??_C@_0O@OCFEOMDO@DarkSpiritMix?$AA@
  00156	56		 push	 esi
  00157	e8 00 00 00 00	 call	 ?LogChaosItem@CMixSystem@@QAEXPAUOBJECTSTRUCT@@PAD@Z ; CMixSystem::LogChaosItem

; 2452 : 	LogAddTD("[DarkSpiritMix] Chaos Mix Start");

  0015c	68 00 00 00 00	 push	 OFFSET ??_C@_0CA@HOBPNGGO@?$FLDarkSpiritMix?$FN?5Chaos?5Mix?5Start?$AA@
  00161	ff 15 00 00 00
	00		 call	 DWORD PTR ?LogAddTD@@3P6AXPADZZA ; LogAddTD

; 2453 : 	//int ExDarkSpiritMixSuccessRate = GetPrivateProfileInt("ChaosMix","DarkSpiritMixSuccessRate",60,"..\\Data\\ZtData\\CommonServer.ini");
; 2454 : 	lpObj->ChaosSuccessRate = ZtConfig.CommonServer.ZtDarkSpiritMixSuccessRate;
; 2455 : 	lpObj->ChaosSuccessRate += iCharmOfLuckCount;
; 2456 : 
; 2457 : 	int nChaosNeedMoney = 1000000;
; 2458 : 
; 2459 : 	int iChaosTaxMoney = (int)((__int64)nChaosNeedMoney * (__int64)g_CastleSiegeSync.GetTaxRateChaos(lpObj->m_Index) / (__int64)100);

  00167	8b 0e		 mov	 ecx, DWORD PTR [esi]
  00169	a1 8c 00 00 00	 mov	 eax, DWORD PTR ?ZtConfig@@3VcZtConfigs@@A+140
  0016e	83 c4 04	 add	 esp, 4
  00171	51		 push	 ecx
  00172	89 86 84 0e 00
	00		 mov	 DWORD PTR [esi+3716], eax
  00178	01 9e 84 0e 00
	00		 add	 DWORD PTR [esi+3716], ebx
  0017e	b9 00 00 00 00	 mov	 ecx, OFFSET ?g_CastleSiegeSync@@3VCCastleSiegeSync@@A ; g_CastleSiegeSync
  00183	e8 00 00 00 00	 call	 ?GetTaxRateChaos@CCastleSiegeSync@@QAEHH@Z ; CCastleSiegeSync::GetTaxRateChaos
  00188	6a 00		 push	 0
  0018a	99		 cdq
  0018b	68 40 42 0f 00	 push	 1000000			; 000f4240H
  00190	52		 push	 edx
  00191	50		 push	 eax
  00192	e8 00 00 00 00	 call	 __allmul
  00197	6a 00		 push	 0
  00199	6a 64		 push	 100			; 00000064H
  0019b	52		 push	 edx
  0019c	50		 push	 eax
  0019d	e8 00 00 00 00	 call	 __alldiv

; 2460 : 
; 2461 : 	if ( iChaosTaxMoney < 0 )

  001a2	85 c0		 test	 eax, eax
  001a4	79 02		 jns	 SHORT $LN15@DarkSpirit

; 2462 : 	{
; 2463 : 		iChaosTaxMoney = 0;

  001a6	33 c0		 xor	 eax, eax
$LN15@DarkSpirit:

; 2464 : 	}
; 2465 : 
; 2466 : 	nChaosNeedMoney += iChaosTaxMoney;
; 2467 : 
; 2468 : 		nChaosNeedMoney += lpObj->m_AddMixMoney;

  001a8	8b 96 20 28 00
	00		 mov	 edx, DWORD PTR [esi+10272]
  001ae	8d bc 02 40 42
	0f 00		 lea	 edi, DWORD PTR [edx+eax+1000000]

; 2469 : 
; 2470 : 	if ( nChaosNeedMoney < 0 )

  001b5	85 ff		 test	 edi, edi
  001b7	79 02		 jns	 SHORT $LN14@DarkSpirit

; 2471 : 	{
; 2472 : 		nChaosNeedMoney = 0;

  001b9	33 ff		 xor	 edi, edi
$LN14@DarkSpirit:

; 2473 : 	}
; 2474 : 
; 2475 : 	if ( lpObj->Money < nChaosNeedMoney )

  001bb	8b 8e f0 00 00
	00		 mov	 ecx, DWORD PTR [esi+240]
  001c1	3b cf		 cmp	 ecx, edi
  001c3	7d 15		 jge	 SHORT $LN13@DarkSpirit

; 2476 : 	{
; 2477 : 		pMsg.Result = CB_NOT_ENOUGH_ZEN;
; 2478 : 		
; 2479 : 		DataSend(lpObj->m_Index, (LPBYTE)&pMsg, pMsg.h.size);

  001c5	0f b6 45 ed	 movzx	 eax, BYTE PTR _pMsg$[ebp+1]
  001c9	8b 16		 mov	 edx, DWORD PTR [esi]
  001cb	50		 push	 eax
  001cc	8d 4d ec	 lea	 ecx, DWORD PTR _pMsg$[ebp]
  001cf	51		 push	 ecx
  001d0	c6 45 ef 02	 mov	 BYTE PTR _pMsg$[ebp+3], 2
  001d4	52		 push	 edx

; 2480 : 		lpObj->ChaosLock = FALSE;
; 2481 : 
; 2482 : 		return;

  001d5	e9 db 01 00 00	 jmp	 $LN40@DarkSpirit
$LN13@DarkSpirit:

; 2483 : 	}
; 2484 : 
; 2485 : 	lpObj->ChaosSuccessRate += lpObj->m_AddMixSuccessRate;

  001da	8b 96 24 28 00
	00		 mov	 edx, DWORD PTR [esi+10276]
  001e0	01 96 84 0e 00
	00		 add	 DWORD PTR [esi+3716], edx

; 2486 : 
; 2487 : 
; 2488 : 	lpObj->Money -= nChaosNeedMoney;

  001e6	2b cf		 sub	 ecx, edi
  001e8	89 8e f0 00 00
	00		 mov	 DWORD PTR [esi+240], ecx

; 2489 : 	g_CastleSiegeSync.AddTributeMoney(iChaosTaxMoney);

  001ee	50		 push	 eax
  001ef	b9 00 00 00 00	 mov	 ecx, OFFSET ?g_CastleSiegeSync@@3VCCastleSiegeSync@@A ; g_CastleSiegeSync
  001f4	e8 00 00 00 00	 call	 ?AddTributeMoney@CCastleSiegeSync@@QAEXH@Z ; CCastleSiegeSync::AddTributeMoney

; 2490 : 	GCMoneySend(lpObj->m_Index, lpObj->Money);

  001f9	8b 86 f0 00 00
	00		 mov	 eax, DWORD PTR [esi+240]
  001ff	8b 0e		 mov	 ecx, DWORD PTR [esi]
  00201	50		 push	 eax
  00202	51		 push	 ecx
  00203	e8 00 00 00 00	 call	 ?GCMoneySend@@YAXHK@Z	; GCMoneySend
  00208	83 c4 08	 add	 esp, 8

; 2491 : 
; 2492 : 	if ( (rand()%100) < lpObj->ChaosSuccessRate )

  0020b	e8 00 00 00 00	 call	 _rand
  00210	99		 cdq
  00211	b9 64 00 00 00	 mov	 ecx, 100		; 00000064H
  00216	f7 f9		 idiv	 ecx
  00218	3b 96 84 0e 00
	00		 cmp	 edx, DWORD PTR [esi+3716]
  0021e	0f 8d 13 01 00
	00		 jge	 $LN12@DarkSpirit

; 2493 : 	{
; 2494 : 		int Level = 0;
; 2495 : 		int ItemType = 13;
; 2496 : 		int ItemSubType = 5;
; 2497 : 		int ItemNum = ITEMGET(ItemType, ItemSubType);
; 2498 : 		int Option1 = 0;

  00224	33 db		 xor	 ebx, ebx
  00226	89 5d e4	 mov	 DWORD PTR _Option1$218535[ebp], ebx

; 2499 : 		int Option2 = 0;
; 2500 : 		int Option3 = 0;
; 2501 : 
; 2502 : 		int Add = 0;

  00229	89 5d e0	 mov	 DWORD PTR _Add$218538[ebp], ebx

; 2503 : 
; 2504 : 		if ( (rand()%100) < (lpObj->ChaosSuccessRate/5+6) )

  0022c	e8 00 00 00 00	 call	 _rand
  00231	99		 cdq
  00232	b9 64 00 00 00	 mov	 ecx, 100		; 00000064H
  00237	f7 f9		 idiv	 ecx
  00239	b8 67 66 66 66	 mov	 eax, 1717986919		; 66666667H
  0023e	89 55 dc	 mov	 DWORD PTR tv478[ebp], edx
  00241	f7 ae 84 0e 00
	00		 imul	 DWORD PTR [esi+3716]
  00247	d1 fa		 sar	 edx, 1
  00249	8b c2		 mov	 eax, edx
  0024b	c1 e8 1f	 shr	 eax, 31			; 0000001fH
  0024e	8d 4c 02 06	 lea	 ecx, DWORD PTR [edx+eax+6]
  00252	39 4d dc	 cmp	 DWORD PTR tv478[ebp], ecx
  00255	7d 07		 jge	 SHORT $LN11@DarkSpirit

; 2505 : 		{
; 2506 : 			Add = 1;

  00257	c7 45 e0 01 00
	00 00		 mov	 DWORD PTR _Add$218538[ebp], 1
$LN11@DarkSpirit:

; 2507 : 		}
; 2508 : 
; 2509 : 		if ( (rand()%5) == 0 )

  0025e	e8 00 00 00 00	 call	 _rand
  00263	99		 cdq
  00264	b9 05 00 00 00	 mov	 ecx, 5
  00269	f7 f9		 idiv	 ecx
  0026b	85 d2		 test	 edx, edx
  0026d	75 07		 jne	 SHORT $LN10@DarkSpirit

; 2510 : 		{
; 2511 : 			Option1 = 1;

  0026f	c7 45 e4 01 00
	00 00		 mov	 DWORD PTR _Option1$218535[ebp], 1
$LN10@DarkSpirit:

; 2512 : 		}
; 2513 : 
; 2514 : 		int lc22 = rand()%100;	

  00276	e8 00 00 00 00	 call	 _rand
  0027b	99		 cdq
  0027c	b9 64 00 00 00	 mov	 ecx, 100		; 00000064H
  00281	f7 f9		 idiv	 ecx
  00283	89 55 e8	 mov	 DWORD PTR _lc22$218541[ebp], edx

; 2515 : 		int lc23 = rand()%3;

  00286	e8 00 00 00 00	 call	 _rand
  0028b	99		 cdq
  0028c	b9 03 00 00 00	 mov	 ecx, 3
  00291	f7 f9		 idiv	 ecx

; 2516 : 
; 2517 : 		switch ( lc23 )

  00293	2b d3		 sub	 edx, ebx
  00295	74 1e		 je	 SHORT $LN7@DarkSpirit
  00297	4a		 dec	 edx
  00298	74 0e		 je	 SHORT $LN5@DarkSpirit
  0029a	4a		 dec	 edx
  0029b	75 20		 jne	 SHORT $LN6@DarkSpirit

; 2532 : 
; 2533 : 			case 2:
; 2534 : 				if ( lc22 <  20 )

  0029d	83 7d e8 14	 cmp	 DWORD PTR _lc22$218541[ebp], 20 ; 00000014H
  002a1	7d 1a		 jge	 SHORT $LN6@DarkSpirit

; 2535 : 				{
; 2536 : 					Option2 = 1;

  002a3	8d 59 fe	 lea	 ebx, DWORD PTR [ecx-2]

; 2537 : 				}
; 2538 : 				break;

  002a6	eb 15		 jmp	 SHORT $LN6@DarkSpirit
$LN5@DarkSpirit:

; 2523 : 				}
; 2524 : 				break;
; 2525 : 
; 2526 : 			case 1:
; 2527 : 				if ( lc22 <  10 )

  002a8	83 7d e8 0a	 cmp	 DWORD PTR _lc22$218541[ebp], 10 ; 0000000aH
  002ac	7d 0f		 jge	 SHORT $LN6@DarkSpirit

; 2528 : 				{
; 2529 : 					Option2 = 2;

  002ae	bb 02 00 00 00	 mov	 ebx, 2

; 2530 : 				}
; 2531 : 				break;

  002b3	eb 08		 jmp	 SHORT $LN6@DarkSpirit
$LN7@DarkSpirit:

; 2518 : 		{
; 2519 : 			case 0:
; 2520 : 				if ( lc22 <  4 )

  002b5	83 7d e8 04	 cmp	 DWORD PTR _lc22$218541[ebp], 4
  002b9	7d 02		 jge	 SHORT $LN6@DarkSpirit

; 2521 : 				{
; 2522 : 					Option2 = 3;

  002bb	8b d9		 mov	 ebx, ecx
$LN6@DarkSpirit:

; 2539 : 		}
; 2540 : 
; 2541 : 		::PetItemSerialCreateSend(lpObj->m_Index, -2, 0, 0, ItemNum, Level, 0, Add, Option1, Option2, -1, 0, 0); 

  002bd	8b 55 e4	 mov	 edx, DWORD PTR _Option1$218535[ebp]
  002c0	8b 45 e0	 mov	 eax, DWORD PTR _Add$218538[ebp]
  002c3	6a 00		 push	 0
  002c5	8b 0e		 mov	 ecx, DWORD PTR [esi]
  002c7	6a 00		 push	 0
  002c9	6a ff		 push	 -1
  002cb	53		 push	 ebx
  002cc	52		 push	 edx
  002cd	50		 push	 eax
  002ce	6a 00		 push	 0
  002d0	6a 00		 push	 0
  002d2	68 05 1a 00 00	 push	 6661			; 00001a05H
  002d7	6a 00		 push	 0
  002d9	6a 00		 push	 0
  002db	68 fe 00 00 00	 push	 254			; 000000feH
  002e0	51		 push	 ecx
  002e1	e8 00 00 00 00	 call	 ?PetItemSerialCreateSend@@YAXHEEEHEEEEEHEE@Z ; PetItemSerialCreateSend

; 2542 : 		::gObjInventoryCommit(lpObj->m_Index);

  002e6	8b 16		 mov	 edx, DWORD PTR [esi]
  002e8	52		 push	 edx
  002e9	e8 00 00 00 00	 call	 ?gObjInventoryCommit@@YAHH@Z ; gObjInventoryCommit

; 2543 : 		LogAddTD("[DarkSpiritMix] [%s][%s] CBMix Success %d Money : %d-%d, CharmRate : %d",
; 2544 : 			lpObj->AccountID, lpObj->Name, lpObj->ChaosSuccessRate,
; 2545 : 			lpObj->Money, nChaosNeedMoney, iCharmOfLuckCount);

  002ee	8b 45 cc	 mov	 eax, DWORD PTR _iCharmOfLuckCount$[ebp]
  002f1	8b 8e f0 00 00
	00		 mov	 ecx, DWORD PTR [esi+240]
  002f7	8b 96 84 0e 00
	00		 mov	 edx, DWORD PTR [esi+3716]
  002fd	50		 push	 eax
  002fe	57		 push	 edi
  002ff	51		 push	 ecx
  00300	52		 push	 edx
  00301	8d 46 77	 lea	 eax, DWORD PTR [esi+119]
  00304	50		 push	 eax
  00305	8d 4e 6c	 lea	 ecx, DWORD PTR [esi+108]
  00308	51		 push	 ecx
  00309	68 00 00 00 00	 push	 OFFSET ??_C@_0EI@DIJHKIBN@?$FLDarkSpiritMix?$FN?5?$FL?$CFs?$FN?$FL?$CFs?$FN?5CBMix?5S@
  0030e	ff 15 00 00 00
	00		 call	 DWORD PTR ?LogAddTD@@3P6AXPADZZA ; LogAddTD

; 2546 : #if(SYSTEM_ACHIEVEMENTS)
; 2547 : 		g_Achievements.SuccessChaosMix(lpObj->m_Index);

  00314	8b 16		 mov	 edx, DWORD PTR [esi]
  00316	83 c4 54	 add	 esp, 84			; 00000054H
  00319	52		 push	 edx
  0031a	b9 00 00 00 00	 mov	 ecx, OFFSET ?g_Achievements@@3VCAchievements@@A ; g_Achievements
  0031f	e8 00 00 00 00	 call	 ?SuccessChaosMix@CAchievements@@QAEXH@Z ; CAchievements::SuccessChaosMix
  00324	5f		 pop	 edi
  00325	5e		 pop	 esi
  00326	5b		 pop	 ebx

; 2562 : #endif
; 2563 : 	}
; 2564 : }

  00327	8b 4d fc	 mov	 ecx, DWORD PTR __$ArrayPad$[ebp]
  0032a	33 cd		 xor	 ecx, ebp
  0032c	e8 00 00 00 00	 call	 @__security_check_cookie@4
  00331	8b e5		 mov	 esp, ebp
  00333	5d		 pop	 ebp
  00334	c2 04 00	 ret	 4
$LN12@DarkSpirit:

; 2548 : #endif
; 2549 : 	}
; 2550 : 	else
; 2551 : 	{
; 2552 : 		this->ChaosBoxInit(lpObj);

  00337	8b 4d dc	 mov	 ecx, DWORD PTR _this$[ebp]
  0033a	56		 push	 esi
  0033b	e8 00 00 00 00	 call	 ?ChaosBoxInit@CMixSystem@@QAEHPAUOBJECTSTRUCT@@@Z ; CMixSystem::ChaosBoxInit

; 2553 : 		GCUserChaosBoxSend(lpObj, 1);

  00340	6a 01		 push	 1
  00342	56		 push	 esi
  00343	e8 00 00 00 00	 call	 ?GCUserChaosBoxSend@@YAXPAUOBJECTSTRUCT@@H@Z ; GCUserChaosBoxSend

; 2554 : 		DataSend(lpObj->m_Index, (LPBYTE)&pMsg, pMsg.h.size);

  00348	0f b6 45 ed	 movzx	 eax, BYTE PTR _pMsg$[ebp+1]
  0034c	8b 16		 mov	 edx, DWORD PTR [esi]
  0034e	50		 push	 eax
  0034f	8d 4d ec	 lea	 ecx, DWORD PTR _pMsg$[ebp]
  00352	51		 push	 ecx
  00353	52		 push	 edx
  00354	e8 00 00 00 00	 call	 ?DataSend@@YAHHPAEK@Z	; DataSend

; 2555 : 
; 2556 : 		LogAddTD("[DarkSpiritMix] [%s][%s] CBMix Fail %d Money : %d-%d, CharmRate : %d",
; 2557 : 			lpObj->AccountID, lpObj->Name, lpObj->ChaosSuccessRate,
; 2558 : 			lpObj->Money, nChaosNeedMoney, iCharmOfLuckCount);

  00359	8b 86 f0 00 00
	00		 mov	 eax, DWORD PTR [esi+240]
  0035f	8b 8e 84 0e 00
	00		 mov	 ecx, DWORD PTR [esi+3716]
  00365	53		 push	 ebx
  00366	57		 push	 edi
  00367	50		 push	 eax
  00368	51		 push	 ecx
  00369	8d 56 77	 lea	 edx, DWORD PTR [esi+119]
  0036c	52		 push	 edx
  0036d	8d 46 6c	 lea	 eax, DWORD PTR [esi+108]
  00370	50		 push	 eax
  00371	68 00 00 00 00	 push	 OFFSET ??_C@_0EF@ENJLGEHL@?$FLDarkSpiritMix?$FN?5?$FL?$CFs?$FN?$FL?$CFs?$FN?5CBMix?5F@
  00376	ff 15 00 00 00
	00		 call	 DWORD PTR ?LogAddTD@@3P6AXPADZZA ; LogAddTD

; 2559 : 		lpObj->ChaosLock = FALSE;
; 2560 : #if(SYSTEM_ACHIEVEMENTS)
; 2561 : 		g_Achievements.FailedChaosMix(lpObj->m_Index);

  0037c	8b 0e		 mov	 ecx, DWORD PTR [esi]
  0037e	83 c4 30	 add	 esp, 48			; 00000030H
  00381	51		 push	 ecx
  00382	b9 00 00 00 00	 mov	 ecx, OFFSET ?g_Achievements@@3VCAchievements@@A ; g_Achievements
  00387	c7 86 88 0e 00
	00 00 00 00 00	 mov	 DWORD PTR [esi+3720], 0
  00391	e8 00 00 00 00	 call	 ?FailedChaosMix@CAchievements@@QAEXH@Z ; CAchievements::FailedChaosMix
  00396	5f		 pop	 edi
  00397	5e		 pop	 esi
  00398	5b		 pop	 ebx

; 2562 : #endif
; 2563 : 	}
; 2564 : }

  00399	8b 4d fc	 mov	 ecx, DWORD PTR __$ArrayPad$[ebp]
  0039c	33 cd		 xor	 ecx, ebp
  0039e	e8 00 00 00 00	 call	 @__security_check_cookie@4
  003a3	8b e5		 mov	 esp, ebp
  003a5	5d		 pop	 ebp
  003a6	c2 04 00	 ret	 4
$LN39@DarkSpirit:

; 2435 : 	{
; 2436 : 		DataSend(lpObj->m_Index, (LPBYTE)&pMsg, pMsg.h.size);

  003a9	0f b6 55 ed	 movzx	 edx, BYTE PTR _pMsg$[ebp+1]
  003ad	8b 0e		 mov	 ecx, DWORD PTR [esi]
  003af	52		 push	 edx
  003b0	8d 45 ec	 lea	 eax, DWORD PTR _pMsg$[ebp]
  003b3	50		 push	 eax
  003b4	51		 push	 ecx
$LN40@DarkSpirit:
  003b5	e8 00 00 00 00	 call	 ?DataSend@@YAHHPAEK@Z	; DataSend

; 2562 : #endif
; 2563 : 	}
; 2564 : }

  003ba	8b 4d fc	 mov	 ecx, DWORD PTR __$ArrayPad$[ebp]
  003bd	83 c4 0c	 add	 esp, 12			; 0000000cH
  003c0	5f		 pop	 edi
  003c1	c7 86 88 0e 00
	00 00 00 00 00	 mov	 DWORD PTR [esi+3720], 0
  003cb	5e		 pop	 esi
  003cc	33 cd		 xor	 ecx, ebp
  003ce	5b		 pop	 ebx
  003cf	e8 00 00 00 00	 call	 @__security_check_cookie@4
  003d4	8b e5		 mov	 esp, ebp
  003d6	5d		 pop	 ebp
  003d7	c2 04 00	 ret	 4
?DarkSpiritChaosMix@CMixSystem@@QAEXPAUOBJECTSTRUCT@@@Z ENDP ; CMixSystem::DarkSpiritChaosMix
_TEXT	ENDS
PUBLIC	??_C@_0DG@ECHLAENJ@?$FLBlessPotionMix?$FN?5?$FL?$CFs?$FN?$FL?$CFs?$FN?5CBMix?5@ ; `string'
PUBLIC	??_C@_0DJ@CHGCMDK@?$FLBlessPotionMix?$FN?5?$FL?$CFs?$FN?$FL?$CFs?$FN?5CBMix?5@ ; `string'
PUBLIC	??_C@_0CB@EBJOJCKF@?$FLBlessPotionMix?$FN?5Chaos?5Mix?5Start@ ; `string'
PUBLIC	??_C@_0P@NBHFIPDI@BlessPotionMix?$AA@		; `string'
PUBLIC	__$ArrayPad$
PUBLIC	?BlessPotionChaosMix@CMixSystem@@QAEXPAUOBJECTSTRUCT@@@Z ; CMixSystem::BlessPotionChaosMix
EXTRN	?MsgOutput@@YAXHPADZZ:PROC			; MsgOutput
EXTRN	?Get@CMsg@@QAEPADH@Z:PROC			; CMsg::Get
EXTRN	?lMsg@@3VCMsg@@A:BYTE				; lMsg
;	COMDAT ??_C@_0DG@ECHLAENJ@?$FLBlessPotionMix?$FN?5?$FL?$CFs?$FN?$FL?$CFs?$FN?5CBMix?5@
CONST	SEGMENT
??_C@_0DG@ECHLAENJ@?$FLBlessPotionMix?$FN?5?$FL?$CFs?$FN?$FL?$CFs?$FN?5CBMix?5@ DB '['
	DB	'BlessPotionMix] [%s][%s] CBMix Fail %d Money : %d-%d', 00H ; `string'
CONST	ENDS
