; Listing generated by Microsoft (R) Optimizing Compiler Version 16.00.30319.01 

	TITLE	E:\work\tranet_version\GS\GameServer\MixSystem.cpp
	.686P
	.XMM
	include listing.inc
	.model	flat

INCLUDELIB LIBCMT
INCLUDELIB OLDNAMES

_DATA	SEGMENT
_g_iNpcUpDfLevel_CGATE DD 01H
	DD	02H
	DD	02dc6c0H
	DD	02H
	DD	03H
	DD	02dc6c0H
	DD	03H
	DD	04H
	DD	02dc6c0H
_g_iNpcUpDfLevel_CSTATUE DD 01H
	DD	03H
	DD	02dc6c0H
	DD	02H
	DD	05H
	DD	02dc6c0H
	DD	03H
	DD	07H
	DD	02dc6c0H
_g_iNpcUpMaxHP_CGATE DD 02625a0H
	DD	02H
	DD	0f4240H
	DD	03567e0H
	DD	03H
	DD	0f4240H
	DD	04f5880H
	DD	04H
	DD	0f4240H
_g_iNpcUpMaxHP_CSTATUE DD 02191c0H
	DD	03H
	DD	0f4240H
	DD	033e140H
	DD	05H
	DD	0f4240H
	DD	04c4b40H
	DD	07H
	DD	0f4240H
_g_iNpcUpRgLevel_CSTATUE DD 01H
	DD	03H
	DD	04c4b40H
	DD	02H
	DD	05H
	DD	04c4b40H
	DD	03H
	DD	07H
	DD	04c4b40H
_g_iCsUserReSpawnArea DD 023H
	DD	011H
	DD	090H
	DD	030H
	DD	04aH
	DD	090H
	DD	073H
	DD	09aH
	DD	023H
	DD	011H
	DD	090H
	DD	030H
_g_iNpcDefense_CGATE DD 064H
	DD	0b4H
	DD	012cH
	DD	0208H
_g_iNpcDefense_CSTATUE DD 050H
	DD	0b4H
	DD	0154H
	DD	0226H
_g_iCastleWallStepAxisY DD 071H
	DD	0a0H
	DD	0cbH
_g_sttBLOODCASTLE_LEVEL DD 0fH
	DD	050H
	DD	0aH
	DD	03cH
	DD	051H
	DD	082H
	DD	03dH
	DD	06eH
	DD	083H
	DD	0b4H
	DD	06fH
	DD	0a0H
	DD	0b5H
	DD	0e6H
	DD	0a1H
	DD	0d2H
	DD	0e7H
	DD	0118H
	DD	0d3H
	DD	0104H
	DD	0119H
	DD	014aH
	DD	0105H
	DD	0136H
	DD	014bH
	DD	03e8H
	DD	0137H
	DD	03e8H
	DD	0fH
	DD	04afH
	DD	0aH
	DD	04afH
_DATA	ENDS
PUBLIC	??_H@YGXPAXIHP6EPAX0@Z@Z			; `vector constructor iterator'
; Function compile flags: /Ogtp
;	COMDAT ??_H@YGXPAXIHP6EPAX0@Z@Z
_TEXT	SEGMENT
___t$ = 8						; size = 4
___s$ = 12						; size = 4
___n$ = 16						; size = 4
___f$ = 20						; size = 4
??_H@YGXPAXIHP6EPAX0@Z@Z PROC				; `vector constructor iterator', COMDAT
  00000	55		 push	 ebp
  00001	8b ec		 mov	 ebp, esp
  00003	57		 push	 edi
  00004	8b 7d 10	 mov	 edi, DWORD PTR ___n$[ebp]
  00007	4f		 dec	 edi
  00008	78 14		 js	 SHORT $LN1@vector
  0000a	53		 push	 ebx
  0000b	8b 5d 14	 mov	 ebx, DWORD PTR ___f$[ebp]
  0000e	56		 push	 esi
  0000f	8b 75 08	 mov	 esi, DWORD PTR ___t$[ebp]
$LL2@vector:
  00012	8b ce		 mov	 ecx, esi
  00014	ff d3		 call	 ebx
  00016	03 75 0c	 add	 esi, DWORD PTR ___s$[ebp]
  00019	4f		 dec	 edi
  0001a	79 f6		 jns	 SHORT $LL2@vector
  0001c	5e		 pop	 esi
  0001d	5b		 pop	 ebx
$LN1@vector:
  0001e	5f		 pop	 edi
  0001f	5d		 pop	 ebp
  00020	c2 10 00	 ret	 16			; 00000010H
??_H@YGXPAXIHP6EPAX0@Z@Z ENDP				; `vector constructor iterator'
_TEXT	ENDS
EXTRN	__time64:PROC
; Function compile flags: /Ogtp
; File d:\program files (x86)\microsoft visual studio 10.0\vc\include\time.inl
;	COMDAT _time
_TEXT	SEGMENT
_time	PROC						; COMDAT
; __Time$ = eax

; 133  :     return _time64(_Time);

  00000	50		 push	 eax
  00001	e8 00 00 00 00	 call	 __time64
  00006	83 c4 04	 add	 esp, 4

; 134  : }

  00009	c3		 ret	 0
_time	ENDP
_TEXT	ENDS
PUBLIC	??_7CMixSystem@@6B@				; CMixSystem::`vftable'
PUBLIC	??0CMixSystem@@QAE@XZ				; CMixSystem::CMixSystem
PUBLIC	??_R4CMixSystem@@6B@				; CMixSystem::`RTTI Complete Object Locator'
PUBLIC	??_R0?AVCMixSystem@@@8				; CMixSystem `RTTI Type Descriptor'
PUBLIC	??_R3CMixSystem@@8				; CMixSystem::`RTTI Class Hierarchy Descriptor'
PUBLIC	??_R2CMixSystem@@8				; CMixSystem::`RTTI Base Class Array'
PUBLIC	??_R1A@?0A@EA@CMixSystem@@8			; CMixSystem::`RTTI Base Class Descriptor at (0,-1,0,64)'
EXTRN	??_7type_info@@6B@:QWORD			; type_info::`vftable'
EXTRN	??_ECMixSystem@@UAEPAXI@Z:PROC			; CMixSystem::`vector deleting destructor'
;	COMDAT ??_R1A@?0A@EA@CMixSystem@@8
; File e:\work\tranet_version\gs\gameserver\mixsystem.cpp
rdata$r	SEGMENT
??_R1A@?0A@EA@CMixSystem@@8 DD FLAT:??_R0?AVCMixSystem@@@8 ; CMixSystem::`RTTI Base Class Descriptor at (0,-1,0,64)'
	DD	00H
	DD	00H
	DD	0ffffffffH
	DD	00H
	DD	040H
	DD	FLAT:??_R3CMixSystem@@8
rdata$r	ENDS
;	COMDAT ??_R2CMixSystem@@8
rdata$r	SEGMENT
??_R2CMixSystem@@8 DD FLAT:??_R1A@?0A@EA@CMixSystem@@8	; CMixSystem::`RTTI Base Class Array'
rdata$r	ENDS
;	COMDAT ??_R3CMixSystem@@8
rdata$r	SEGMENT
??_R3CMixSystem@@8 DD 00H				; CMixSystem::`RTTI Class Hierarchy Descriptor'
	DD	00H
	DD	01H
	DD	FLAT:??_R2CMixSystem@@8
rdata$r	ENDS
;	COMDAT ??_R0?AVCMixSystem@@@8
_DATA	SEGMENT
??_R0?AVCMixSystem@@@8 DD FLAT:??_7type_info@@6B@	; CMixSystem `RTTI Type Descriptor'
	DD	00H
	DB	'.?AVCMixSystem@@', 00H
_DATA	ENDS
;	COMDAT ??_R4CMixSystem@@6B@
rdata$r	SEGMENT
??_R4CMixSystem@@6B@ DD 00H				; CMixSystem::`RTTI Complete Object Locator'
	DD	00H
	DD	00H
	DD	FLAT:??_R0?AVCMixSystem@@@8
	DD	FLAT:??_R3CMixSystem@@8
rdata$r	ENDS
;	COMDAT ??_7CMixSystem@@6B@
CONST	SEGMENT
??_7CMixSystem@@6B@ DD FLAT:??_R4CMixSystem@@6B@	; CMixSystem::`vftable'
	DD	FLAT:??_ECMixSystem@@UAEPAXI@Z
; Function compile flags: /Ogtp
CONST	ENDS
;	COMDAT ??0CMixSystem@@QAE@XZ
_TEXT	SEGMENT
??0CMixSystem@@QAE@XZ PROC				; CMixSystem::CMixSystem, COMDAT
; _this$ = ecx

; 28   : {

  00000	8b c1		 mov	 eax, ecx
  00002	c7 00 00 00 00
	00		 mov	 DWORD PTR [eax], OFFSET ??_7CMixSystem@@6B@

; 29   : 	this->iJewelofChaos = ITEMGET(12,15);

  00008	c7 40 04 0f 18
	00 00		 mov	 DWORD PTR [eax+4], 6159	; 0000180fH

; 30   : 	this->iJewelofBless = ITEMGET(14,13);

  0000f	c7 40 08 0d 1c
	00 00		 mov	 DWORD PTR [eax+8], 7181	; 00001c0dH

; 31   : 	this->iJewelofSoul = ITEMGET(14,14);

  00016	c7 40 0c 0e 1c
	00 00		 mov	 DWORD PTR [eax+12], 7182 ; 00001c0eH

; 32   : 	this->iJewelofCreation = ITEMGET(14,22);

  0001d	c7 40 10 16 1c
	00 00		 mov	 DWORD PTR [eax+16], 7190 ; 00001c16H

; 33   : 	this->iBundleofBless = ITEMGET(12,30);

  00024	c7 40 14 1e 18
	00 00		 mov	 DWORD PTR [eax+20], 6174 ; 0000181eH

; 34   : 	this->iBundleofSoul = ITEMGET(12,31);

  0002b	c7 40 18 1f 18
	00 00		 mov	 DWORD PTR [eax+24], 6175 ; 0000181fH

; 35   : 	this->iCondorFeather = ITEMGET(13,53);

  00032	c7 40 1c 35 1a
	00 00		 mov	 DWORD PTR [eax+28], 6709 ; 00001a35H

; 36   : 	this->iCondorFlame = ITEMGET(13,52);

  00039	c7 40 20 34 1a
	00 00		 mov	 DWORD PTR [eax+32], 6708 ; 00001a34H

; 37   : 	this->iWingofStorm = ITEMGET(12,36);

  00040	c7 40 24 24 18
	00 00		 mov	 DWORD PTR [eax+36], 6180 ; 00001824H

; 38   : 	this->iWingofEternal = ITEMGET(12,37);

  00047	c7 40 28 25 18
	00 00		 mov	 DWORD PTR [eax+40], 6181 ; 00001825H

; 39   : 	this->iWingofIllusion = ITEMGET(12,38);

  0004e	c7 40 2c 26 18
	00 00		 mov	 DWORD PTR [eax+44], 6182 ; 00001826H

; 40   : 	this->iWingofRuin = ITEMGET(12,39);

  00055	c7 40 30 27 18
	00 00		 mov	 DWORD PTR [eax+48], 6183 ; 00001827H

; 41   : 	this->iCapeofLord = ITEMGET(12,40);

  0005c	c7 40 34 28 18
	00 00		 mov	 DWORD PTR [eax+52], 6184 ; 00001828H

; 42   : 	this->iWingofDimension = ITEMGET(12,43);

  00063	c7 40 38 2b 18
	00 00		 mov	 DWORD PTR [eax+56], 6187 ; 0000182bH

; 43   : 	this->CAPE_OF_OVERRULE_ITEMINDEX	= ITEMGET(12, 50);	//OK, +60

  0006a	c7 40 3c 32 18
	00 00		 mov	 DWORD PTR [eax+60], 6194 ; 00001832H

; 44   : 
; 45   : 	this->i3rdWingLuckRate = 50;

  00071	c7 40 40 32 00
	00 00		 mov	 DWORD PTR [eax+64], 50	; 00000032H

; 46   : }

  00078	c3		 ret	 0
??0CMixSystem@@QAE@XZ ENDP				; CMixSystem::CMixSystem
_TEXT	ENDS
PUBLIC	??1CMixSystem@@UAE@XZ				; CMixSystem::~CMixSystem
; Function compile flags: /Ogtp
;	COMDAT ??1CMixSystem@@UAE@XZ
_TEXT	SEGMENT
??1CMixSystem@@UAE@XZ PROC				; CMixSystem::~CMixSystem, COMDAT
; _this$ = ecx

; 49   : {

  00000	c7 01 00 00 00
	00		 mov	 DWORD PTR [ecx], OFFSET ??_7CMixSystem@@6B@

; 50   : 
; 51   : }

  00006	c3		 ret	 0
??1CMixSystem@@UAE@XZ ENDP				; CMixSystem::~CMixSystem
_TEXT	ENDS
PUBLIC	?ChaosBoxCheck@CMixSystem@@QAEHPAUOBJECTSTRUCT@@@Z ; CMixSystem::ChaosBoxCheck
; Function compile flags: /Ogtp
;	COMDAT ?ChaosBoxCheck@CMixSystem@@QAEHPAUOBJECTSTRUCT@@@Z
_TEXT	SEGMENT
_lpObj$ = 8						; size = 4
?ChaosBoxCheck@CMixSystem@@QAEHPAUOBJECTSTRUCT@@@Z PROC	; CMixSystem::ChaosBoxCheck, COMDAT
; _this$ = ecx

; 54   : {

  00000	55		 push	 ebp
  00001	8b ec		 mov	 ebp, esp

; 55   : 	if ( lpObj->pChaosBox == NULL )

  00003	8b 4d 08	 mov	 ecx, DWORD PTR _lpObj$[ebp]
  00006	33 c0		 xor	 eax, eax
  00008	39 81 78 0e 00
	00		 cmp	 DWORD PTR [ecx+3704], eax
  0000e	0f 95 c0	 setne	 al

; 56   : 	{
; 57   : 		return false;
; 58   : 	}
; 59   : 
; 60   : 	return true;
; 61   : }

  00011	5d		 pop	 ebp
  00012	c2 04 00	 ret	 4
?ChaosBoxCheck@CMixSystem@@QAEHPAUOBJECTSTRUCT@@@Z ENDP	; CMixSystem::ChaosBoxCheck
_TEXT	ENDS
PUBLIC	?ChaosBoxInit@CMixSystem@@QAEHPAUOBJECTSTRUCT@@@Z ; CMixSystem::ChaosBoxInit
EXTRN	??_V@YAXPAX@Z:PROC				; operator delete[]
EXTRN	??3@YAXPAX@Z:PROC				; operator delete
EXTRN	??0CItem@@QAE@XZ:PROC				; CItem::CItem
EXTRN	??_U@YAPAXI@Z:PROC				; operator new[]
EXTRN	?Clear@CItem@@QAEXXZ:PROC			; CItem::Clear
EXTRN	___security_cookie:DWORD
EXTRN	___CxxFrameHandler3:PROC
EXTRN	@__security_check_cookie@4:PROC
;	COMDAT xdata$x
; File e:\work\tranet_version\gs\gameserver\gameshop.h
xdata$x	SEGMENT
__unwindtable$?ChaosBoxInit@CMixSystem@@QAEHPAUOBJECTSTRUCT@@@Z DD 0ffffffffH
	DD	FLAT:__unwindfunclet$?ChaosBoxInit@CMixSystem@@QAEHPAUOBJECTSTRUCT@@@Z$0
__ehfuncinfo$?ChaosBoxInit@CMixSystem@@QAEHPAUOBJECTSTRUCT@@@Z DD 019930522H
	DD	01H
	DD	FLAT:__unwindtable$?ChaosBoxInit@CMixSystem@@QAEHPAUOBJECTSTRUCT@@@Z
	DD	2 DUP(00H)
	DD	2 DUP(00H)
	DD	00H
	DD	01H
; Function compile flags: /Ogtp
; File e:\work\tranet_version\gs\gameserver\mixsystem.cpp
xdata$x	ENDS
;	COMDAT ?ChaosBoxInit@CMixSystem@@QAEHPAUOBJECTSTRUCT@@@Z
_TEXT	SEGMENT
__$EHRec$ = -12						; size = 12
$T220760 = 8						; size = 4
_lpObj$ = 8						; size = 4
?ChaosBoxInit@CMixSystem@@QAEHPAUOBJECTSTRUCT@@@Z PROC	; CMixSystem::ChaosBoxInit, COMDAT
; _this$ = ecx

; 64   : {

  00000	55		 push	 ebp
  00001	8b ec		 mov	 ebp, esp
  00003	6a ff		 push	 -1
  00005	68 00 00 00 00	 push	 __ehhandler$?ChaosBoxInit@CMixSystem@@QAEHPAUOBJECTSTRUCT@@@Z
  0000a	64 a1 00 00 00
	00		 mov	 eax, DWORD PTR fs:0
  00010	50		 push	 eax
  00011	53		 push	 ebx
  00012	56		 push	 esi
  00013	57		 push	 edi
  00014	a1 00 00 00 00	 mov	 eax, DWORD PTR ___security_cookie
  00019	33 c5		 xor	 eax, ebp
  0001b	50		 push	 eax
  0001c	8d 45 f4	 lea	 eax, DWORD PTR __$EHRec$[ebp]
  0001f	64 a3 00 00 00
	00		 mov	 DWORD PTR fs:0, eax

; 65   : 	int n;
; 66   : 
; 67   : 	if ( lpObj->pChaosBox != NULL )

  00025	8b 7d 08	 mov	 edi, DWORD PTR _lpObj$[ebp]
  00028	83 bf 78 0e 00
	00 00		 cmp	 DWORD PTR [edi+3704], 0
  0002f	74 34		 je	 SHORT $LN12@ChaosBoxIn

; 68   : 	{
; 69   : 		for (n=0;n<CHAOS_BOX_SIZE;n++)

  00031	33 f6		 xor	 esi, esi
$LL11@ChaosBoxIn:

; 70   : 		{
; 71   : 			lpObj->pChaosBox[n].Clear();

  00033	8b 8f 78 0e 00
	00		 mov	 ecx, DWORD PTR [edi+3704]
  00039	03 ce		 add	 ecx, esi
  0003b	e8 00 00 00 00	 call	 ?Clear@CItem@@QAEXXZ	; CItem::Clear
  00040	81 c6 d4 00 00
	00		 add	 esi, 212		; 000000d4H
  00046	81 fe 80 1a 00
	00		 cmp	 esi, 6784		; 00001a80H
  0004c	7c e5		 jl	 SHORT $LL11@ChaosBoxIn

; 72   : 		}
; 73   : 
; 74   : 		for (n=0;n<CHAOS_BOX_SIZE;n++)

  0004e	33 c0		 xor	 eax, eax
$LL8@ChaosBoxIn:

; 75   : 		{
; 76   : 			lpObj->pChaosBoxMap[n] = -1;

  00050	8b 8f 7c 0e 00
	00		 mov	 ecx, DWORD PTR [edi+3708]
  00056	c6 04 08 ff	 mov	 BYTE PTR [eax+ecx], 255	; 000000ffH
  0005a	40		 inc	 eax
  0005b	83 f8 20	 cmp	 eax, 32			; 00000020H
  0005e	7c f0		 jl	 SHORT $LL8@ChaosBoxIn

; 77   : 		}
; 78   : 		return true;

  00060	e9 9b 00 00 00	 jmp	 $LN31@ChaosBoxIn
$LN12@ChaosBoxIn:

; 79   : 	}
; 80   : 
; 81   : 	lpObj->pChaosBox = new CItem[CHAOS_BOX_SIZE];

  00065	68 80 1a 00 00	 push	 6784			; 00001a80H
  0006a	e8 00 00 00 00	 call	 ??_U@YAPAXI@Z		; operator new[]
  0006f	83 c4 04	 add	 esp, 4
  00072	89 45 08	 mov	 DWORD PTR $T220760[ebp], eax
  00075	c7 45 fc 00 00
	00 00		 mov	 DWORD PTR __$EHRec$[ebp+8], 0
  0007c	85 c0		 test	 eax, eax
  0007e	74 1c		 je	 SHORT $LN15@ChaosBoxIn
  00080	8b f0		 mov	 esi, eax
  00082	bb 1f 00 00 00	 mov	 ebx, 31			; 0000001fH
$LL19@ChaosBoxIn:
  00087	8b ce		 mov	 ecx, esi
  00089	e8 00 00 00 00	 call	 ??0CItem@@QAE@XZ	; CItem::CItem
  0008e	81 c6 d4 00 00
	00		 add	 esi, 212		; 000000d4H
  00094	4b		 dec	 ebx
  00095	79 f0		 jns	 SHORT $LL19@ChaosBoxIn
  00097	8b 45 08	 mov	 eax, DWORD PTR $T220760[ebp]
  0009a	eb 02		 jmp	 SHORT $LN16@ChaosBoxIn
$LN15@ChaosBoxIn:
  0009c	33 c0		 xor	 eax, eax
$LN16@ChaosBoxIn:
  0009e	c7 45 fc ff ff
	ff ff		 mov	 DWORD PTR __$EHRec$[ebp+8], -1
  000a5	89 87 78 0e 00
	00		 mov	 DWORD PTR [edi+3704], eax

; 82   : 
; 83   : 	if ( lpObj->pChaosBox == NULL )

  000ab	85 c0		 test	 eax, eax

; 84   : 	{
; 85   : 		return false;

  000ad	74 23		 je	 SHORT $LN32@ChaosBoxIn

; 86   : 	}
; 87   : 
; 88   : 	lpObj->pChaosBoxMap = new BYTE[CHAOS_BOX_SIZE];

  000af	6a 20		 push	 32			; 00000020H
  000b1	e8 00 00 00 00	 call	 ??_U@YAPAXI@Z		; operator new[]
  000b6	83 c4 04	 add	 esp, 4
  000b9	89 87 7c 0e 00
	00		 mov	 DWORD PTR [edi+3708], eax

; 89   : 
; 90   : 	if ( lpObj->pChaosBoxMap == NULL )

  000bf	85 c0		 test	 eax, eax
  000c1	75 25		 jne	 SHORT $LN4@ChaosBoxIn

; 91   : 	{
; 92   : 		delete lpObj->pChaosBox;

  000c3	8b 97 78 0e 00
	00		 mov	 edx, DWORD PTR [edi+3704]
  000c9	52		 push	 edx
  000ca	e8 00 00 00 00	 call	 ??3@YAXPAX@Z		; operator delete
  000cf	83 c4 04	 add	 esp, 4
$LN32@ChaosBoxIn:

; 93   : 		return false;

  000d2	33 c0		 xor	 eax, eax

; 102  : }

  000d4	8b 4d f4	 mov	 ecx, DWORD PTR __$EHRec$[ebp]
  000d7	64 89 0d 00 00
	00 00		 mov	 DWORD PTR fs:0, ecx
  000de	59		 pop	 ecx
  000df	5f		 pop	 edi
  000e0	5e		 pop	 esi
  000e1	5b		 pop	 ebx
  000e2	8b e5		 mov	 esp, ebp
  000e4	5d		 pop	 ebp
  000e5	c2 04 00	 ret	 4
$LN4@ChaosBoxIn:

; 94   : 	}
; 95   : 
; 96   : 	for (n=0;n<CHAOS_BOX_SIZE;n++)

  000e8	33 c0		 xor	 eax, eax
  000ea	8d 9b 00 00 00
	00		 npad	 6
$LL3@ChaosBoxIn:

; 97   : 	{
; 98   : 		lpObj->pChaosBoxMap[n] = -1;

  000f0	8b 8f 7c 0e 00
	00		 mov	 ecx, DWORD PTR [edi+3708]
  000f6	c6 04 08 ff	 mov	 BYTE PTR [eax+ecx], 255	; 000000ffH
  000fa	40		 inc	 eax
  000fb	83 f8 20	 cmp	 eax, 32			; 00000020H
  000fe	7c f0		 jl	 SHORT $LL3@ChaosBoxIn
$LN31@ChaosBoxIn:

; 99   : 	}
; 100  : 
; 101  : 	return true;

  00100	b8 01 00 00 00	 mov	 eax, 1

; 102  : }

  00105	8b 4d f4	 mov	 ecx, DWORD PTR __$EHRec$[ebp]
  00108	64 89 0d 00 00
	00 00		 mov	 DWORD PTR fs:0, ecx
  0010f	59		 pop	 ecx
  00110	5f		 pop	 edi
  00111	5e		 pop	 esi
  00112	5b		 pop	 ebx
  00113	8b e5		 mov	 esp, ebp
  00115	5d		 pop	 ebp
  00116	c2 04 00	 ret	 4
_TEXT	ENDS
;	COMDAT text$x
text$x	SEGMENT
__unwindfunclet$?ChaosBoxInit@CMixSystem@@QAEHPAUOBJECTSTRUCT@@@Z$0:
  00000	8b 45 08	 mov	 eax, DWORD PTR $T220760[ebp]
  00003	50		 push	 eax
  00004	e8 00 00 00 00	 call	 ??_V@YAXPAX@Z		; operator delete[]
  00009	59		 pop	 ecx
  0000a	c3		 ret	 0
__ehhandler$?ChaosBoxInit@CMixSystem@@QAEHPAUOBJECTSTRUCT@@@Z:
  0000b	8b 54 24 08	 mov	 edx, DWORD PTR [esp+8]
  0000f	8d 42 0c	 lea	 eax, DWORD PTR [edx+12]
  00012	8b 4a f0	 mov	 ecx, DWORD PTR [edx-16]
  00015	33 c8		 xor	 ecx, eax
  00017	e8 00 00 00 00	 call	 @__security_check_cookie@4
  0001c	b8 00 00 00 00	 mov	 eax, OFFSET __ehfuncinfo$?ChaosBoxInit@CMixSystem@@QAEHPAUOBJECTSTRUCT@@@Z
  00021	e9 00 00 00 00	 jmp	 ___CxxFrameHandler3
text$x	ENDS
?ChaosBoxInit@CMixSystem@@QAEHPAUOBJECTSTRUCT@@@Z ENDP	; CMixSystem::ChaosBoxInit
PUBLIC	?ChaosBoxItemDown@CMixSystem@@QAEHPAUOBJECTSTRUCT@@@Z ; CMixSystem::ChaosBoxItemDown
EXTRN	?Convert@CItem@@QAEXHEEEEEEPAEEEE@Z:PROC	; CItem::Convert
EXTRN	?ItemGetDurability@@YAHHHHH@Z:PROC		; ItemGetDurability
EXTRN	?IsExtItem@CItem@@QAEHXZ:PROC			; CItem::IsExtItem
EXTRN	?IsSetItem@CItem@@QAEHXZ:PROC			; CItem::IsSetItem
EXTRN	_rand:PROC
EXTRN	__fltused:DWORD
; Function compile flags: /Ogtp
;	COMDAT ?ChaosBoxItemDown@CMixSystem@@QAEHPAUOBJECTSTRUCT@@@Z
_TEXT	SEGMENT
tv628 = 8						; size = 4
_dur$217625 = 8						; size = 4
_lpObj$ = 8						; size = 4
?ChaosBoxItemDown@CMixSystem@@QAEHPAUOBJECTSTRUCT@@@Z PROC ; CMixSystem::ChaosBoxItemDown, COMDAT
; _this$ = ecx

; 105  : {

  00000	55		 push	 ebp
  00001	8b ec		 mov	 ebp, esp
  00003	57		 push	 edi

; 106  : 	if ( lpObj->pChaosBox == NULL )

  00004	8b 7d 08	 mov	 edi, DWORD PTR _lpObj$[ebp]
  00007	83 bf 78 0e 00
	00 00		 cmp	 DWORD PTR [edi+3704], 0
  0000e	75 07		 jne	 SHORT $LN12@ChaosBoxIt

; 107  : 	{
; 108  : 		return FALSE;

  00010	33 c0		 xor	 eax, eax
  00012	5f		 pop	 edi

; 164  : }

  00013	5d		 pop	 ebp
  00014	c2 04 00	 ret	 4
$LN12@ChaosBoxIt:
  00017	53		 push	 ebx
  00018	56		 push	 esi

; 109  : 	}
; 110  : 
; 111  : 	for (int n=0;n<CHAOS_BOX_SIZE;n++)

  00019	33 f6		 xor	 esi, esi
  0001b	eb 03 8d 49 00	 npad	 5
$LL11@ChaosBoxIt:

; 112  : 	{
; 113  : 		if (lpObj->pChaosBox[n].m_Type == ITEMGET(12,15) || lpObj->pChaosBox[n].m_Type == ITEMGET(14,13) || lpObj->pChaosBox[n].m_Type == ITEMGET(14,14) ||
; 114  : 			//Season4.5 add-on (Talisman of Wing)
; 115  : 			lpObj->pChaosBox[n].m_Type == ITEMGET(13,83) || lpObj->pChaosBox[n].m_Type == ITEMGET(13,84) ||
; 116  : 			lpObj->pChaosBox[n].m_Type == ITEMGET(13,85) ||	lpObj->pChaosBox[n].m_Type == ITEMGET(13,86) ||
; 117  : 			lpObj->pChaosBox[n].m_Type == ITEMGET(13,87) || lpObj->pChaosBox[n].m_Type == ITEMGET(13,88) ||
; 118  : 			lpObj->pChaosBox[n].m_Type == ITEMGET(13,89) || lpObj->pChaosBox[n].m_Type == ITEMGET(13,90) ||
; 119  : 			lpObj->pChaosBox[n].m_Type == ITEMGET(13,91) ||	lpObj->pChaosBox[n].m_Type == ITEMGET(13,92) ||
; 120  : 			lpObj->pChaosBox[n].m_Type == ITEMGET(14,53))

  00020	8b 87 78 0e 00
	00		 mov	 eax, DWORD PTR [edi+3704]
  00026	8d 0c 06	 lea	 ecx, DWORD PTR [esi+eax]
  00029	0f b7 41 06	 movzx	 eax, WORD PTR [ecx+6]
  0002d	ba 0f 18 00 00	 mov	 edx, 6159		; 0000180fH
  00032	66 3b c2	 cmp	 ax, dx
  00035	0f 84 d6 01 00
	00		 je	 $LN7@ChaosBoxIt
  0003b	ba 0d 1c 00 00	 mov	 edx, 7181		; 00001c0dH
  00040	66 3b c2	 cmp	 ax, dx
  00043	0f 84 c8 01 00
	00		 je	 $LN7@ChaosBoxIt
  00049	ba 0e 1c 00 00	 mov	 edx, 7182		; 00001c0eH
  0004e	66 3b c2	 cmp	 ax, dx
  00051	0f 84 ba 01 00
	00		 je	 $LN7@ChaosBoxIt
  00057	ba 53 1a 00 00	 mov	 edx, 6739		; 00001a53H
  0005c	66 3b c2	 cmp	 ax, dx
  0005f	0f 84 ac 01 00
	00		 je	 $LN7@ChaosBoxIt
  00065	ba 54 1a 00 00	 mov	 edx, 6740		; 00001a54H
  0006a	66 3b c2	 cmp	 ax, dx
  0006d	0f 84 9e 01 00
	00		 je	 $LN7@ChaosBoxIt
  00073	ba 55 1a 00 00	 mov	 edx, 6741		; 00001a55H
  00078	66 3b c2	 cmp	 ax, dx
  0007b	0f 84 90 01 00
	00		 je	 $LN7@ChaosBoxIt
  00081	ba 56 1a 00 00	 mov	 edx, 6742		; 00001a56H
  00086	66 3b c2	 cmp	 ax, dx
  00089	0f 84 82 01 00
	00		 je	 $LN7@ChaosBoxIt
  0008f	ba 57 1a 00 00	 mov	 edx, 6743		; 00001a57H
  00094	66 3b c2	 cmp	 ax, dx
  00097	0f 84 74 01 00
	00		 je	 $LN7@ChaosBoxIt
  0009d	ba 58 1a 00 00	 mov	 edx, 6744		; 00001a58H
  000a2	66 3b c2	 cmp	 ax, dx
  000a5	0f 84 66 01 00
	00		 je	 $LN7@ChaosBoxIt
  000ab	ba 59 1a 00 00	 mov	 edx, 6745		; 00001a59H
  000b0	66 3b c2	 cmp	 ax, dx
  000b3	0f 84 58 01 00
	00		 je	 $LN7@ChaosBoxIt
  000b9	ba 5a 1a 00 00	 mov	 edx, 6746		; 00001a5aH
  000be	66 3b c2	 cmp	 ax, dx
  000c1	0f 84 4a 01 00
	00		 je	 $LN7@ChaosBoxIt
  000c7	ba 5b 1a 00 00	 mov	 edx, 6747		; 00001a5bH
  000cc	66 3b c2	 cmp	 ax, dx
  000cf	0f 84 3c 01 00
	00		 je	 $LN7@ChaosBoxIt
  000d5	ba 5c 1a 00 00	 mov	 edx, 6748		; 00001a5cH
  000da	66 3b c2	 cmp	 ax, dx
  000dd	0f 84 2e 01 00
	00		 je	 $LN7@ChaosBoxIt
  000e3	ba 35 1c 00 00	 mov	 edx, 7221		; 00001c35H
  000e8	66 3b c2	 cmp	 ax, dx
  000eb	0f 84 20 01 00
	00		 je	 $LN7@ChaosBoxIt

; 123  : 		}
; 124  : 		else
; 125  : 		{
; 126  : 			int op = lpObj->pChaosBox[n].m_Option1;

  000f1	0f b6 99 94 00
	00 00		 movzx	 ebx, BYTE PTR [ecx+148]

; 127  : 
; 128  : 			if ( op > 0 )

  000f8	85 db		 test	 ebx, ebx
  000fa	7e 14		 jle	 SHORT $LN17@ChaosBoxIt

; 129  : 			{
; 130  : 				if ( (rand() % 2) == 0 )

  000fc	e8 00 00 00 00	 call	 _rand
  00101	25 01 00 00 80	 and	 eax, -2147483647	; 80000001H
  00106	79 05		 jns	 SHORT $LN19@ChaosBoxIt
  00108	48		 dec	 eax
  00109	83 c8 fe	 or	 eax, -2			; fffffffeH
  0010c	40		 inc	 eax
$LN19@ChaosBoxIt:
  0010d	75 01		 jne	 SHORT $LN17@ChaosBoxIt

; 131  : 				{
; 132  : 					op--;

  0010f	4b		 dec	 ebx
$LN17@ChaosBoxIt:

; 133  : 				}
; 134  : 			}
; 135  : 
; 136  : 			lpObj->pChaosBox[n].m_Option1 = op;

  00110	8b 87 78 0e 00
	00		 mov	 eax, DWORD PTR [edi+3704]
  00116	88 9c 06 94 00
	00 00		 mov	 BYTE PTR [esi+eax+148], bl

; 137  : 			op = lpObj->pChaosBox[n].m_Option3;

  0011d	8b 8f 78 0e 00
	00		 mov	 ecx, DWORD PTR [edi+3704]
  00123	0f b6 9c 0e 96
	00 00 00	 movzx	 ebx, BYTE PTR [esi+ecx+150]

; 138  : 
; 139  : 			if ( op > 0 )

  0012b	85 db		 test	 ebx, ebx
  0012d	7e 14		 jle	 SHORT $LN18@ChaosBoxIt

; 140  : 			{
; 141  : 				if ( (rand() % 2) == 0 )

  0012f	e8 00 00 00 00	 call	 _rand
  00134	25 01 00 00 80	 and	 eax, -2147483647	; 80000001H
  00139	79 05		 jns	 SHORT $LN20@ChaosBoxIt
  0013b	48		 dec	 eax
  0013c	83 c8 fe	 or	 eax, -2			; fffffffeH
  0013f	40		 inc	 eax
$LN20@ChaosBoxIt:
  00140	75 01		 jne	 SHORT $LN18@ChaosBoxIt

; 142  : 				{
; 143  : 					op--;

  00142	4b		 dec	 ebx
$LN18@ChaosBoxIt:

; 144  : 				}
; 145  : 			}
; 146  : 
; 147  : 			lpObj->pChaosBox[n].m_Option3 = op;

  00143	8b 97 78 0e 00
	00		 mov	 edx, DWORD PTR [edi+3704]
  00149	88 9c 16 96 00
	00 00		 mov	 BYTE PTR [esi+edx+150], bl

; 148  : 
; 149  : 			if ( lpObj->pChaosBox[n].m_Level > 0 )

  00150	8b 87 78 0e 00
	00		 mov	 eax, DWORD PTR [edi+3704]
  00156	66 83 7c 06 08
	00		 cmp	 WORD PTR [esi+eax+8], 0
  0015c	7e 12		 jle	 SHORT $LN1@ChaosBoxIt

; 150  : 			{
; 151  : 				lpObj->pChaosBox[n].m_Level = rand() % lpObj->pChaosBox[n].m_Level;

  0015e	8d 5c 06 08	 lea	 ebx, DWORD PTR [esi+eax+8]
  00162	e8 00 00 00 00	 call	 _rand
  00167	0f bf 0b	 movsx	 ecx, WORD PTR [ebx]
  0016a	99		 cdq
  0016b	f7 f9		 idiv	 ecx
  0016d	66 89 13	 mov	 WORD PTR [ebx], dx
$LN1@ChaosBoxIt:

; 152  : 			}
; 153  : 
; 154  : 			float dur = (float)ItemGetDurability(lpObj->pChaosBox[n].m_Type, lpObj->pChaosBox[n].m_Level, lpObj->pChaosBox[n].IsExtItem(), lpObj->pChaosBox[n].IsSetItem());

  00170	8b 97 78 0e 00
	00		 mov	 edx, DWORD PTR [edi+3704]
  00176	8d 0c 16	 lea	 ecx, DWORD PTR [esi+edx]
  00179	8d 1c 16	 lea	 ebx, DWORD PTR [esi+edx]
  0017c	e8 00 00 00 00	 call	 ?IsSetItem@CItem@@QAEHXZ ; CItem::IsSetItem
  00181	8b 8f 78 0e 00
	00		 mov	 ecx, DWORD PTR [edi+3704]
  00187	50		 push	 eax
  00188	03 ce		 add	 ecx, esi
  0018a	e8 00 00 00 00	 call	 ?IsExtItem@CItem@@QAEHXZ ; CItem::IsExtItem
  0018f	0f bf 4b 06	 movsx	 ecx, WORD PTR [ebx+6]
  00193	50		 push	 eax
  00194	0f bf 43 08	 movsx	 eax, WORD PTR [ebx+8]
  00198	50		 push	 eax
  00199	51		 push	 ecx
  0019a	e8 00 00 00 00	 call	 ?ItemGetDurability@@YAHHHHH@Z ; ItemGetDurability

; 155  : 			
; 156  : 			lpObj->pChaosBox[n].m_Durability =  dur * lpObj->pChaosBox[n].m_Durability / lpObj->pChaosBox[n].m_BaseDurability;

  0019f	8b 97 78 0e 00
	00		 mov	 edx, DWORD PTR [edi+3704]
  001a5	89 45 08	 mov	 DWORD PTR tv628[ebp], eax
  001a8	8d 04 16	 lea	 eax, DWORD PTR [esi+edx]
  001ab	db 45 08	 fild	 DWORD PTR tv628[ebp]
  001ae	83 c4 10	 add	 esp, 16			; 00000010H

; 157  : 			lpObj->pChaosBox[n].Convert(lpObj->pChaosBox[n].m_Type, lpObj->pChaosBox[n].m_Option1,
; 158  : 				lpObj->pChaosBox[n].m_Option2, lpObj->pChaosBox[n].m_Option3, lpObj->pChaosBox[n].m_NewOption,
; 159  : 				lpObj->pChaosBox[n].m_SetOption, lpObj->pChaosBox[n].m_ItemOptionEx, NULL, 0xFF, 0, CURRENT_DB_VERSION);

  001b1	6a 03		 push	 3
  001b3	6a 00		 push	 0
  001b5	d9 5d 08	 fstp	 DWORD PTR _dur$217625[ebp]
  001b8	68 ff 00 00 00	 push	 255			; 000000ffH
  001bd	d9 45 08	 fld	 DWORD PTR _dur$217625[ebp]
  001c0	6a 00		 push	 0
  001c2	d8 48 24	 fmul	 DWORD PTR [eax+36]
  001c5	d8 70 2c	 fdiv	 DWORD PTR [eax+44]
  001c8	d9 58 24	 fstp	 DWORD PTR [eax+36]
  001cb	8b 87 78 0e 00
	00		 mov	 eax, DWORD PTR [edi+3704]
  001d1	0f b6 94 06 ca
	00 00 00	 movzx	 edx, BYTE PTR [esi+eax+202]
  001d9	8d 0c 06	 lea	 ecx, DWORD PTR [esi+eax]
  001dc	0f b6 81 ae 00
	00 00		 movzx	 eax, BYTE PTR [ecx+174]
  001e3	52		 push	 edx
  001e4	0f b6 91 97 00
	00 00		 movzx	 edx, BYTE PTR [ecx+151]
  001eb	50		 push	 eax
  001ec	0f b6 81 96 00
	00 00		 movzx	 eax, BYTE PTR [ecx+150]
  001f3	52		 push	 edx
  001f4	0f b6 91 95 00
	00 00		 movzx	 edx, BYTE PTR [ecx+149]
  001fb	50		 push	 eax
  001fc	0f b6 81 94 00
	00 00		 movzx	 eax, BYTE PTR [ecx+148]
  00203	52		 push	 edx
  00204	0f bf 51 06	 movsx	 edx, WORD PTR [ecx+6]
  00208	50		 push	 eax
  00209	52		 push	 edx
  0020a	e8 00 00 00 00	 call	 ?Convert@CItem@@QAEXHEEEEEEPAEEEE@Z ; CItem::Convert
  0020f	eb 05		 jmp	 SHORT $LN10@ChaosBoxIt
$LN7@ChaosBoxIt:

; 121  : 		{
; 122  : 			lpObj->pChaosBox[n].Clear();

  00211	e8 00 00 00 00	 call	 ?Clear@CItem@@QAEXXZ	; CItem::Clear
$LN10@ChaosBoxIt:

; 109  : 	}
; 110  : 
; 111  : 	for (int n=0;n<CHAOS_BOX_SIZE;n++)

  00216	81 c6 d4 00 00
	00		 add	 esi, 212		; 000000d4H
  0021c	81 fe 80 1a 00
	00		 cmp	 esi, 6784		; 00001a80H
  00222	0f 8c f8 fd ff
	ff		 jl	 $LL11@ChaosBoxIt

; 160  : 		}
; 161  : 	}
; 162  : 
; 163  : 	return TRUE;

  00228	5e		 pop	 esi
  00229	5b		 pop	 ebx
  0022a	b8 01 00 00 00	 mov	 eax, 1
  0022f	5f		 pop	 edi

; 164  : }

  00230	5d		 pop	 ebp
  00231	c2 04 00	 ret	 4
?ChaosBoxItemDown@CMixSystem@@QAEHPAUOBJECTSTRUCT@@@Z ENDP ; CMixSystem::ChaosBoxItemDown
_TEXT	ENDS
PUBLIC	??_C@_0DK@EKDAKNF@?$FLMixSystem?$FN?5WingCharmItemNum?5?$DN?$DO?5@ ; `string'
PUBLIC	??_C@_0DO@PLIHJFD@?$FL?$CFs?$FN?$FL?$CFs?$FN?5CBMix?5need?5Zen?5?3?5?$CFd?5Suc@ ; `string'
PUBLIC	??_C@_0FA@FKHLLHEC@?$FL?$CFs?$FN?$FL?$CFs?$FN?5CBMix?5?$FL?$CFd?0?$CFs?0?$CFd?0?$CFd?0?$CFd?0?$CF@ ; `string'
PUBLIC	_Result3$GSCopy$
PUBLIC	_Result2$GSCopy$
PUBLIC	__$ArrayPad$
PUBLIC	?ChaosBoxMix@CMixSystem@@QAEHPAUOBJECTSTRUCT@@AAH1@Z ; CMixSystem::ChaosBoxMix
EXTRN	?ZtConfig@@3VcZtConfigs@@A:BYTE			; ZtConfig
EXTRN	?LogAddTD@@3P6AXPADZZA:DWORD			; LogAddTD
EXTRN	?LogAdd@@3P6AXPADZZA:DWORD			; LogAdd
EXTRN	?GetName@CItem@@QAEPADXZ:PROC			; CItem::GetName
EXTRN	?ItemIsBufExOption@@YAXPAEPAVCItem@@@Z:PROC	; ItemIsBufExOption
EXTRN	?IsLuckyItemEquipment@LuckyItemManager@@QAEHH@Z:PROC ; LuckyItemManager::IsLuckyItemEquipment
EXTRN	?g_LuckyItemManager@@3ULuckyItemManager@@A:BYTE	; g_LuckyItemManager
EXTRN	?OldValue@CItem@@QAEXXZ:PROC			; CItem::OldValue
EXTRN	?IsItem@CItem@@QAEHXZ:PROC			; CItem::IsItem
EXTRN	__ftol2_sse:PROC
;	COMDAT ??_C@_0DK@EKDAKNF@?$FLMixSystem?$FN?5WingCharmItemNum?5?$DN?$DO?5@
CONST	SEGMENT
??_C@_0DK@EKDAKNF@?$FLMixSystem?$FN?5WingCharmItemNum?5?$DN?$DO?5@ DB '[M'
	DB	'ixSystem] WingCharmItemNum => %d , WingCharmIndex => %d', 00H ; `string'
CONST	ENDS
;	COMDAT ??_C@_0DO@PLIHJFD@?$FL?$CFs?$FN?$FL?$CFs?$FN?5CBMix?5need?5Zen?5?3?5?$CFd?5Suc@
CONST	SEGMENT
??_C@_0DO@PLIHJFD@?$FL?$CFs?$FN?$FL?$CFs?$FN?5CBMix?5need?5Zen?5?3?5?$CFd?5Suc@ DB '['
	DB	'%s][%s] CBMix need Zen : %d SuccessRate : %d, CharmRate : %d', 00H ; `string'
CONST	ENDS
;	COMDAT ??_C@_0FA@FKHLLHEC@?$FL?$CFs?$FN?$FL?$CFs?$FN?5CBMix?5?$FL?$CFd?0?$CFs?0?$CFd?0?$CFd?0?$CFd?0?$CF@
CONST	SEGMENT
??_C@_0FA@FKHLLHEC@?$FL?$CFs?$FN?$FL?$CFs?$FN?5CBMix?5?$FL?$CFd?0?$CFs?0?$CFd?0?$CFd?0?$CFd?0?$CF@ DB '['
	DB	'%s][%s] CBMix [%d,%s,%d,%d,%d,%d]serial:[%u][%d][%d] Ex:[%d,%'
	DB	'd,%d,%d,%d,%d,%d]', 00H			; `string'
; Function compile flags: /Ogtp
CONST	ENDS
;	COMDAT ?ChaosBoxMix@CMixSystem@@QAEHPAUOBJECTSTRUCT@@AAH1@Z
_TEXT	SEGMENT
_Result2$GSCopy$ = -52					; size = 4
_WingCharmItemNum$ = -48				; size = 4
_ChaosDiamond$ = -44					; size = 4
_n$217642 = -40						; size = 4
_iCharmOfLuckCount$ = -36				; size = 4
_ChaosItems$ = -32					; size = 4
tv652 = -28						; size = 4
_add$ = -24						; size = 4
_Result3$GSCopy$ = -20					; size = 4
_value$ = -16						; size = 4
_ExOption$ = -12					; size = 8
__$ArrayPad$ = -4					; size = 4
_lpObj$ = 8						; size = 4
_Result2$ = 12						; size = 4
_Result3$ = 16						; size = 4
?ChaosBoxMix@CMixSystem@@QAEHPAUOBJECTSTRUCT@@AAH1@Z PROC ; CMixSystem::ChaosBoxMix, COMDAT
; _this$ = ecx

; 167  : {

  00000	55		 push	 ebp
  00001	8b ec		 mov	 ebp, esp
  00003	83 ec 34	 sub	 esp, 52			; 00000034H
  00006	a1 00 00 00 00	 mov	 eax, DWORD PTR ___security_cookie
  0000b	33 c5		 xor	 eax, ebp
  0000d	89 45 fc	 mov	 DWORD PTR __$ArrayPad$[ebp], eax
  00010	8b 45 0c	 mov	 eax, DWORD PTR _Result2$[ebp]
  00013	8b 4d 10	 mov	 ecx, DWORD PTR _Result3$[ebp]
  00016	56		 push	 esi

; 168  : 	BYTE ExOption[8];
; 169  : 	int ChaosDiamond = 0;

  00017	33 f6		 xor	 esi, esi
  00019	57		 push	 edi
  0001a	8b 7d 08	 mov	 edi, DWORD PTR _lpObj$[ebp]
  0001d	89 45 cc	 mov	 DWORD PTR _Result2$GSCopy$[ebp], eax
  00020	89 4d ec	 mov	 DWORD PTR _Result3$GSCopy$[ebp], ecx
  00023	89 75 d4	 mov	 DWORD PTR _ChaosDiamond$[ebp], esi

; 170  : 	int ChaosItems = 0;

  00026	89 75 e0	 mov	 DWORD PTR _ChaosItems$[ebp], esi

; 171  : 
; 172  : 	if ( lpObj->pChaosBox == NULL )

  00029	39 b7 78 0e 00
	00		 cmp	 DWORD PTR [edi+3704], esi
  0002f	75 14		 jne	 SHORT $LN33@ChaosBoxMi

; 173  : 	{
; 174  : 		return 0;

  00031	5f		 pop	 edi
  00032	33 c0		 xor	 eax, eax
  00034	5e		 pop	 esi

; 324  : 		}
; 325  : 	}
; 326  : 
; 327  : 	return value;
; 328  : }

  00035	8b 4d fc	 mov	 ecx, DWORD PTR __$ArrayPad$[ebp]
  00038	33 cd		 xor	 ecx, ebp
  0003a	e8 00 00 00 00	 call	 @__security_check_cookie@4
  0003f	8b e5		 mov	 esp, ebp
  00041	5d		 pop	 ebp
  00042	c2 0c 00	 ret	 12			; 0000000cH
$LN33@ChaosBoxMi:

; 175  : 	}
; 176  : 
; 177  : 	int value = 0;
; 178  : 	int add = 0;
; 179  : 	int nv = 0;
; 180  : 	
; 181  : 	Result2 = 0;

  00045	89 30		 mov	 DWORD PTR [eax], esi
  00047	53		 push	 ebx

; 182  : 	Result3 = -1; //season4 add-on

  00048	c7 01 ff ff ff
	ff		 mov	 DWORD PTR [ecx], -1

; 183  : 
; 184  : 	int WingCharmItemNum = -1; //season4.5 add-on
; 185  : 
; 186  : 	lpObj->ChaosSuccessRate = 0;
; 187  : 	lpObj->ChaosMoney = 0;
; 188  : 	int iCharmOfLuckCount = 0;

  0004e	33 db		 xor	 ebx, ebx
  00050	89 75 f0	 mov	 DWORD PTR _value$[ebp], esi
  00053	c7 45 d0 ff ff
	ff ff		 mov	 DWORD PTR _WingCharmItemNum$[ebp], -1
  0005a	89 b7 84 0e 00
	00		 mov	 DWORD PTR [edi+3716], esi
  00060	89 b7 80 0e 00
	00		 mov	 DWORD PTR [edi+3712], esi
  00066	89 5d dc	 mov	 DWORD PTR _iCharmOfLuckCount$[ebp], ebx

; 189  : 
; 190  : 	for ( int n=0;n<CHAOS_BOX_SIZE;n++)

  00069	89 75 d8	 mov	 DWORD PTR _n$217642[ebp], esi
  0006c	89 75 e4	 mov	 DWORD PTR tv652[ebp], esi
  0006f	90		 npad	 1
$LL32@ChaosBoxMi:

; 191  : 	{
; 192  : 		if ( lpObj->pChaosBox[n].IsItem() == TRUE )

  00070	8b 8f 78 0e 00
	00		 mov	 ecx, DWORD PTR [edi+3704]
  00076	03 ce		 add	 ecx, esi
  00078	e8 00 00 00 00	 call	 ?IsItem@CItem@@QAEHXZ	; CItem::IsItem
  0007d	83 f8 01	 cmp	 eax, 1
  00080	0f 85 d3 01 00
	00		 jne	 $LN31@ChaosBoxMi

; 193  : 		{
; 194  : 			lpObj->pChaosBox[n].OldValue();

  00086	8b 8f 78 0e 00
	00		 mov	 ecx, DWORD PTR [edi+3704]
  0008c	03 ce		 add	 ecx, esi
  0008e	e8 00 00 00 00	 call	 ?OldValue@CItem@@QAEXXZ	; CItem::OldValue

; 195  : 			add = 0;
; 196  : 			nv = 0;
; 197  : 
; 198  : #ifdef LUCKYITEM
; 199  : 			if( g_LuckyItemManager.IsLuckyItemEquipment(lpObj->pChaosBox[n].m_Type) )	//1.01.00

  00093	8b 87 78 0e 00
	00		 mov	 eax, DWORD PTR [edi+3704]
  00099	0f bf 4c 06 06	 movsx	 ecx, WORD PTR [esi+eax+6]
  0009e	51		 push	 ecx
  0009f	33 db		 xor	 ebx, ebx
  000a1	b9 00 00 00 00	 mov	 ecx, OFFSET ?g_LuckyItemManager@@3ULuckyItemManager@@A ; g_LuckyItemManager
  000a6	89 5d e8	 mov	 DWORD PTR _add$[ebp], ebx
  000a9	e8 00 00 00 00	 call	 ?IsLuckyItemEquipment@LuckyItemManager@@QAEHH@Z ; LuckyItemManager::IsLuckyItemEquipment
  000ae	85 c0		 test	 eax, eax
  000b0	0f 85 d3 01 00
	00		 jne	 $LN38@ChaosBoxMi

; 200  : 			{
; 201  : 				return false;
; 202  : 			}
; 203  : #endif
; 204  : 
; 205  : 			if ( lpObj->pChaosBox[n].m_Level >= MIN_CHAOS_ITEM_LEVEL && (lpObj->pChaosBox[n].m_Option3 *4) >= MIN_CHAOS_ITEM_LEVEL )

  000b6	8b 97 78 0e 00
	00		 mov	 edx, DWORD PTR [edi+3704]
  000bc	66 83 7c 16 08
	04		 cmp	 WORD PTR [esi+edx+8], 4
  000c2	8d 04 16	 lea	 eax, DWORD PTR [esi+edx]
  000c5	7c 4b		 jl	 SHORT $LN26@ChaosBoxMi
  000c7	0f b6 88 96 00
	00 00		 movzx	 ecx, BYTE PTR [eax+150]
  000ce	03 c9		 add	 ecx, ecx
  000d0	03 c9		 add	 ecx, ecx
  000d2	83 f9 04	 cmp	 ecx, 4
  000d5	7c 3b		 jl	 SHORT $LN26@ChaosBoxMi

; 206  : 			{
; 207  : 				nv = lpObj->pChaosBox[n].m_OldBuyMoney;

  000d7	8b 98 90 00 00
	00		 mov	 ebx, DWORD PTR [eax+144]

; 208  : 				value += lpObj->pChaosBox[n].m_OldBuyMoney;
; 209  : 				add = 1;
; 210  : 
; 211  : 				if ( lpObj->pChaosBox[n].m_Type == ITEMGET(2,6) || lpObj->pChaosBox[n].m_Type == ITEMGET(4,6) || lpObj->pChaosBox[n].m_Type == ITEMGET(5,7) )	// Chaos Items

  000dd	0f b7 40 06	 movzx	 eax, WORD PTR [eax+6]
  000e1	01 5d f0	 add	 DWORD PTR _value$[ebp], ebx
  000e4	ba 06 04 00 00	 mov	 edx, 1030		; 00000406H
  000e9	c7 45 e8 01 00
	00 00		 mov	 DWORD PTR _add$[ebp], 1
  000f0	66 3b c2	 cmp	 ax, dx
  000f3	74 14		 je	 SHORT $LN25@ChaosBoxMi
  000f5	b9 06 08 00 00	 mov	 ecx, 2054		; 00000806H
  000fa	66 3b c1	 cmp	 ax, cx
  000fd	74 0a		 je	 SHORT $LN25@ChaosBoxMi
  000ff	ba 07 0a 00 00	 mov	 edx, 2567		; 00000a07H
  00104	66 3b c2	 cmp	 ax, dx
  00107	75 09		 jne	 SHORT $LN26@ChaosBoxMi
$LN25@ChaosBoxMi:

; 212  : 				{
; 213  : 					Result2 = 1;

  00109	8b 45 cc	 mov	 eax, DWORD PTR _Result2$GSCopy$[ebp]
  0010c	c7 00 01 00 00
	00		 mov	 DWORD PTR [eax], 1
$LN26@ChaosBoxMi:

; 214  : 				}
; 215  : 			}
; 216  : 
; 217  : 			if ( lpObj->pChaosBox[n].m_Type == ITEMGET(12,15) )

  00112	03 b7 78 0e 00
	00		 add	 esi, DWORD PTR [edi+3704]
  00118	ba 0f 18 00 00	 mov	 edx, 6159		; 0000180fH
  0011d	0f b7 46 06	 movzx	 eax, WORD PTR [esi+6]
  00121	66 3b c2	 cmp	 ax, dx
  00124	75 18		 jne	 SHORT $LN24@ChaosBoxMi

; 218  : 			{
; 219  : 				value += lpObj->pChaosBox[n].m_OldBuyMoney;

  00126	8b 8e 90 00 00
	00		 mov	 ecx, DWORD PTR [esi+144]
  0012c	01 4d f0	 add	 DWORD PTR _value$[ebp], ecx

; 220  : 				nv = lpObj->pChaosBox[n].m_OldBuyMoney;

  0012f	8b d9		 mov	 ebx, ecx

; 221  : 				ChaosDiamond++;

  00131	b9 01 00 00 00	 mov	 ecx, 1
  00136	01 4d d4	 add	 DWORD PTR _ChaosDiamond$[ebp], ecx

; 222  : 				add = 1;

  00139	89 4d e8	 mov	 DWORD PTR _add$[ebp], ecx
  0013c	eb 24		 jmp	 SHORT $LN40@ChaosBoxMi
$LN24@ChaosBoxMi:

; 223  : 			}
; 224  : 			else if ( lpObj->pChaosBox[n].m_Type == ITEMGET(14,13) || lpObj->pChaosBox[n].m_Type == ITEMGET(14,14) )	// Jewel of Bless, Jewel of Soul

  0013e	b9 0d 1c 00 00	 mov	 ecx, 7181		; 00001c0dH
  00143	66 3b c1	 cmp	 ax, cx
  00146	74 0a		 je	 SHORT $LN21@ChaosBoxMi
  00148	ba 0e 1c 00 00	 mov	 edx, 7182		; 00001c0eH
  0014d	66 3b c2	 cmp	 ax, dx
  00150	75 10		 jne	 SHORT $LN40@ChaosBoxMi
$LN21@ChaosBoxMi:

; 225  : 			{
; 226  : 				value += lpObj->pChaosBox[n].m_OldBuyMoney;

  00152	8b 9e 90 00 00
	00		 mov	 ebx, DWORD PTR [esi+144]
  00158	01 5d f0	 add	 DWORD PTR _value$[ebp], ebx

; 227  : 				nv = lpObj->pChaosBox[n].m_OldBuyMoney;
; 228  : 				add = 1;

  0015b	c7 45 e8 01 00
	00 00		 mov	 DWORD PTR _add$[ebp], 1
$LN40@ChaosBoxMi:

; 229  : 			}
; 230  : 
; 231  : 			//season4.5 add-on
; 232  : 			if( lpObj->pChaosBox[n].m_Type == ITEMGET(13,83) ||
; 233  : 				lpObj->pChaosBox[n].m_Type == ITEMGET(13,84) ||
; 234  : 				lpObj->pChaosBox[n].m_Type == ITEMGET(13,85) ||
; 235  : 				lpObj->pChaosBox[n].m_Type == ITEMGET(13,86) ||
; 236  : 				lpObj->pChaosBox[n].m_Type == ITEMGET(13,87) )

  00162	b9 53 1a 00 00	 mov	 ecx, 6739		; 00001a53H
  00167	66 3b c1	 cmp	 ax, cx
  0016a	74 28		 je	 SHORT $LN19@ChaosBoxMi
  0016c	ba 54 1a 00 00	 mov	 edx, 6740		; 00001a54H
  00171	66 3b c2	 cmp	 ax, dx
  00174	74 1e		 je	 SHORT $LN19@ChaosBoxMi
  00176	b9 55 1a 00 00	 mov	 ecx, 6741		; 00001a55H
  0017b	66 3b c1	 cmp	 ax, cx
  0017e	74 14		 je	 SHORT $LN19@ChaosBoxMi
  00180	ba 56 1a 00 00	 mov	 edx, 6742		; 00001a56H
  00185	66 3b c2	 cmp	 ax, dx
  00188	74 0a		 je	 SHORT $LN19@ChaosBoxMi
  0018a	b9 57 1a 00 00	 mov	 ecx, 6743		; 00001a57H
  0018f	66 3b c1	 cmp	 ax, cx
  00192	75 06		 jne	 SHORT $LN20@ChaosBoxMi
$LN19@ChaosBoxMi:

; 237  : 			{
; 238  : 				WingCharmItemNum = lpObj->pChaosBox[n].m_Type;

  00194	0f bf d0	 movsx	 edx, ax
  00197	89 55 d0	 mov	 DWORD PTR _WingCharmItemNum$[ebp], edx
$LN20@ChaosBoxMi:

; 239  : 			}
; 240  : 
; 241  : 			if ( lpObj->pChaosBox[n].m_Type == ITEMGET(13,14) ) // Loch Feather

  0019a	b9 0e 1a 00 00	 mov	 ecx, 6670		; 00001a0eH
  0019f	66 3b c1	 cmp	 ax, cx
  001a2	0f 84 e1 00 00
	00		 je	 $LN38@ChaosBoxMi

; 242  : 			{
; 243  : 				return FALSE;
; 244  : 			}
; 245  : 
; 246  : 			if ( lpObj->pChaosBox[n].m_Type == ITEMGET(14,53) )	// Charm Of Luck

  001a8	ba 35 1c 00 00	 mov	 edx, 7221		; 00001c35H
  001ad	66 3b c2	 cmp	 ax, dx
  001b0	75 0b		 jne	 SHORT $LN17@ChaosBoxMi

; 247  : 			{
; 248  : 				iCharmOfLuckCount += (int)lpObj->pChaosBox[n].m_Durability;

  001b2	d9 46 24	 fld	 DWORD PTR [esi+36]
  001b5	e8 00 00 00 00	 call	 __ftol2_sse
  001ba	01 45 dc	 add	 DWORD PTR _iCharmOfLuckCount$[ebp], eax
$LN17@ChaosBoxMi:

; 249  : 			}
; 250  : 
; 251  : 			if ( add != 0  )

  001bd	83 7d e8 00	 cmp	 DWORD PTR _add$[ebp], 0
  001c1	74 03		 je	 SHORT $LN16@ChaosBoxMi

; 252  : 			{
; 253  : 				ChaosItems++;

  001c3	ff 45 e0	 inc	 DWORD PTR _ChaosItems$[ebp]
$LN16@ChaosBoxMi:

; 254  : 			}
; 255  : 
; 256  : 			ItemIsBufExOption(ExOption, &lpObj->pChaosBox[n]);

  001c6	8d 45 f4	 lea	 eax, DWORD PTR _ExOption$[ebp]
  001c9	56		 push	 esi
  001ca	50		 push	 eax
  001cb	e8 00 00 00 00	 call	 ?ItemIsBufExOption@@YAXPAEPAVCItem@@@Z ; ItemIsBufExOption

; 257  : 			LogAdd("[%s][%s] CBMix [%d,%s,%d,%d,%d,%d]serial:[%u][%d][%d] Ex:[%d,%d,%d,%d,%d,%d,%d]",
; 258  : 				lpObj->AccountID, lpObj->Name, n, lpObj->pChaosBox[n].GetName(),
; 259  : 				lpObj->pChaosBox[n].m_Level, lpObj->pChaosBox[n].m_Option1,
; 260  : 				lpObj->pChaosBox[n].m_Option2, lpObj->pChaosBox[n].m_Option3,
; 261  : 				lpObj->pChaosBox[n].m_Number, (int)lpObj->pChaosBox[n].m_Durability,
; 262  : 				nv, ExOption[0], ExOption[1], ExOption[2], ExOption[3], ExOption[4], ExOption[5],
; 263  : 				ExOption[6], lpObj->pChaosBox[n].m_SetOption);

  001d0	8b 75 e4	 mov	 esi, DWORD PTR tv652[ebp]
  001d3	03 b7 78 0e 00
	00		 add	 esi, DWORD PTR [edi+3704]
  001d9	0f b6 4d fa	 movzx	 ecx, BYTE PTR _ExOption$[ebp+6]
  001dd	0f b6 86 ae 00
	00 00		 movzx	 eax, BYTE PTR [esi+174]
  001e4	d9 46 24	 fld	 DWORD PTR [esi+36]
  001e7	0f b6 55 f9	 movzx	 edx, BYTE PTR _ExOption$[ebp+5]
  001eb	83 c4 08	 add	 esp, 8
  001ee	50		 push	 eax
  001ef	0f b6 45 f8	 movzx	 eax, BYTE PTR _ExOption$[ebp+4]
  001f3	51		 push	 ecx
  001f4	0f b6 4d f7	 movzx	 ecx, BYTE PTR _ExOption$[ebp+3]
  001f8	52		 push	 edx
  001f9	0f b6 55 f6	 movzx	 edx, BYTE PTR _ExOption$[ebp+2]
  001fd	50		 push	 eax
  001fe	0f b6 45 f5	 movzx	 eax, BYTE PTR _ExOption$[ebp+1]
  00202	51		 push	 ecx
  00203	0f b6 4d f4	 movzx	 ecx, BYTE PTR _ExOption$[ebp]
  00207	52		 push	 edx
  00208	50		 push	 eax
  00209	51		 push	 ecx
  0020a	53		 push	 ebx
  0020b	e8 00 00 00 00	 call	 __ftol2_sse
  00210	8b 16		 mov	 edx, DWORD PTR [esi]
  00212	0f b6 8e 95 00
	00 00		 movzx	 ecx, BYTE PTR [esi+149]
  00219	50		 push	 eax
  0021a	0f b6 86 96 00
	00 00		 movzx	 eax, BYTE PTR [esi+150]
  00221	52		 push	 edx
  00222	0f b6 96 94 00
	00 00		 movzx	 edx, BYTE PTR [esi+148]
  00229	50		 push	 eax
  0022a	0f bf 46 08	 movsx	 eax, WORD PTR [esi+8]
  0022e	51		 push	 ecx
  0022f	52		 push	 edx
  00230	50		 push	 eax
  00231	8b ce		 mov	 ecx, esi
  00233	e8 00 00 00 00	 call	 ?GetName@CItem@@QAEPADXZ ; CItem::GetName
  00238	8b 4d d8	 mov	 ecx, DWORD PTR _n$217642[ebp]
  0023b	50		 push	 eax
  0023c	51		 push	 ecx
  0023d	8d 57 77	 lea	 edx, DWORD PTR [edi+119]
  00240	52		 push	 edx
  00241	8d 47 6c	 lea	 eax, DWORD PTR [edi+108]
  00244	50		 push	 eax
  00245	68 00 00 00 00	 push	 OFFSET ??_C@_0FA@FKHLLHEC@?$FL?$CFs?$FN?$FL?$CFs?$FN?5CBMix?5?$FL?$CFd?0?$CFs?0?$CFd?0?$CFd?0?$CFd?0?$CF@
  0024a	ff 15 00 00 00
	00		 call	 DWORD PTR ?LogAdd@@3P6AXPADZZA ; LogAdd
  00250	8b 75 e4	 mov	 esi, DWORD PTR tv652[ebp]
  00253	8b 5d dc	 mov	 ebx, DWORD PTR _iCharmOfLuckCount$[ebp]
  00256	83 c4 50	 add	 esp, 80			; 00000050H
$LN31@ChaosBoxMi:

; 189  : 
; 190  : 	for ( int n=0;n<CHAOS_BOX_SIZE;n++)

  00259	ff 45 d8	 inc	 DWORD PTR _n$217642[ebp]
  0025c	81 c6 d4 00 00
	00		 add	 esi, 212		; 000000d4H
  00262	89 75 e4	 mov	 DWORD PTR tv652[ebp], esi
  00265	81 fe 80 1a 00
	00		 cmp	 esi, 6784		; 00001a80H
  0026b	0f 8c ff fd ff
	ff		 jl	 $LL32@ChaosBoxMi

; 264  : 		}
; 265  : 	}
; 266  : 
; 267  : 	if ( ChaosDiamond == 0 )

  00271	33 c0		 xor	 eax, eax
  00273	39 45 d4	 cmp	 DWORD PTR _ChaosDiamond$[ebp], eax
  00276	75 03		 jne	 SHORT $LN15@ChaosBoxMi

; 268  : 	{
; 269  : 		value = 0;

  00278	89 45 f0	 mov	 DWORD PTR _value$[ebp], eax
$LN15@ChaosBoxMi:

; 270  : 	}
; 271  : 
; 272  : 	if ( ChaosItems < 2 )

  0027b	83 7d e0 02	 cmp	 DWORD PTR _ChaosItems$[ebp], 2
  0027f	7d 03		 jge	 SHORT $LN14@ChaosBoxMi

; 273  : 	{
; 274  : 		value = 0;

  00281	89 45 f0	 mov	 DWORD PTR _value$[ebp], eax
$LN14@ChaosBoxMi:

; 275  : 	}
; 276  : 
; 277  : 	if ( iCharmOfLuckCount > 10 )

  00284	83 fb 0a	 cmp	 ebx, 10			; 0000000aH
  00287	7e 15		 jle	 SHORT $LN13@ChaosBoxMi
$LN38@ChaosBoxMi:
  00289	5b		 pop	 ebx
  0028a	5f		 pop	 edi

; 278  : 		return FALSE;

  0028b	33 c0		 xor	 eax, eax
  0028d	5e		 pop	 esi

; 324  : 		}
; 325  : 	}
; 326  : 
; 327  : 	return value;
; 328  : }

  0028e	8b 4d fc	 mov	 ecx, DWORD PTR __$ArrayPad$[ebp]
  00291	33 cd		 xor	 ecx, ebp
  00293	e8 00 00 00 00	 call	 @__security_check_cookie@4
  00298	8b e5		 mov	 esp, ebp
  0029a	5d		 pop	 ebp
  0029b	c2 0c 00	 ret	 12			; 0000000cH
$LN13@ChaosBoxMi:

; 279  : 	
; 280  : 	lpObj->ChaosSuccessRate = value / 20000;

  0029e	8b 75 f0	 mov	 esi, DWORD PTR _value$[ebp]
  002a1	b8 ad 8b db 68	 mov	 eax, 1759218605		; 68db8badH
  002a6	f7 ee		 imul	 esi
  002a8	c1 fa 0d	 sar	 edx, 13			; 0000000dH
  002ab	8b c2		 mov	 eax, edx
  002ad	c1 e8 1f	 shr	 eax, 31			; 0000001fH
  002b0	03 c2		 add	 eax, edx

; 281  : 	lpObj->ChaosSuccessRate += iCharmOfLuckCount;
; 282  : 
; 283  : 	lpObj->ChaosSuccessRate += lpObj->m_AddMixSuccessRate;

  002b2	03 87 24 28 00
	00		 add	 eax, DWORD PTR [edi+10276]
  002b8	03 c3		 add	 eax, ebx
  002ba	89 87 84 0e 00
	00		 mov	 DWORD PTR [edi+3716], eax

; 284  : 
; 285  : 	if ( lpObj->ChaosSuccessRate  > 100 )

  002c0	83 f8 64	 cmp	 eax, 100		; 00000064H
  002c3	7e 0a		 jle	 SHORT $LN12@ChaosBoxMi

; 286  : 	{
; 287  : 		lpObj->ChaosSuccessRate = 100;

  002c5	c7 87 84 0e 00
	00 64 00 00 00	 mov	 DWORD PTR [edi+3716], 100 ; 00000064H
$LN12@ChaosBoxMi:

; 288  : 	}
; 289  : 
; 290  : 	lpObj->ChaosMoney = lpObj->ChaosSuccessRate * 10000;

  002cf	8b 8f 84 0e 00
	00		 mov	 ecx, DWORD PTR [edi+3716]
  002d5	8b c1		 mov	 eax, ecx
  002d7	69 c0 10 27 00
	00		 imul	 eax, 10000		; 00002710H

; 291  : 
; 292  : 	LogAddTD("[%s][%s] CBMix need Zen : %d SuccessRate : %d, CharmRate : %d", lpObj->AccountID, lpObj->Name, lpObj->ChaosMoney, lpObj->ChaosSuccessRate, iCharmOfLuckCount);

  002dd	53		 push	 ebx
  002de	51		 push	 ecx
  002df	50		 push	 eax
  002e0	8d 57 77	 lea	 edx, DWORD PTR [edi+119]
  002e3	89 87 80 0e 00
	00		 mov	 DWORD PTR [edi+3712], eax
  002e9	52		 push	 edx
  002ea	83 c7 6c	 add	 edi, 108		; 0000006cH
  002ed	57		 push	 edi
  002ee	68 00 00 00 00	 push	 OFFSET ??_C@_0DO@PLIHJFD@?$FL?$CFs?$FN?$FL?$CFs?$FN?5CBMix?5need?5Zen?5?3?5?$CFd?5Suc@
  002f3	ff 15 00 00 00
	00		 call	 DWORD PTR ?LogAddTD@@3P6AXPADZZA ; LogAddTD

; 293  : 
; 294  : 	if(WingCharmItemNum > -1) //season4.5 add-on

  002f9	8b 4d d0	 mov	 ecx, DWORD PTR _WingCharmItemNum$[ebp]
  002fc	83 c4 18	 add	 esp, 24			; 00000018H
  002ff	83 f9 ff	 cmp	 ecx, -1
  00302	7e 68		 jle	 SHORT $LN9@ChaosBoxMi

; 295  : 	{
; 296  : 		int WingCharmIndex = WingCharmItemNum ^ ITEMGET(13,0);

  00304	8b c1		 mov	 eax, ecx
  00306	35 00 1a 00 00	 xor	 eax, 6656		; 00001a00H

; 297  : 
; 298  : 		switch(WingCharmIndex)

  0030b	8d 50 ad	 lea	 edx, DWORD PTR [eax-83]
  0030e	83 fa 04	 cmp	 edx, 4
  00311	77 49		 ja	 SHORT $LN1@ChaosBoxMi
  00313	ff 24 95 00 00
	00 00		 jmp	 DWORD PTR $LN42@ChaosBoxMi[edx*4]
$LN8@ChaosBoxMi:

; 299  : 		{
; 300  : 		case 83:
; 301  : 			Result3 = 2;

  0031a	8b 45 ec	 mov	 eax, DWORD PTR _Result3$GSCopy$[ebp]
  0031d	c7 00 02 00 00
	00		 mov	 DWORD PTR [eax], 2

; 302  : 			break;

  00323	eb 47		 jmp	 SHORT $LN9@ChaosBoxMi
$LN7@ChaosBoxMi:

; 303  : 		case 84:
; 304  : 			Result3 = 1;

  00325	8b 4d ec	 mov	 ecx, DWORD PTR _Result3$GSCopy$[ebp]
  00328	c7 01 01 00 00
	00		 mov	 DWORD PTR [ecx], 1

; 305  : 			break;

  0032e	eb 3c		 jmp	 SHORT $LN9@ChaosBoxMi
$LN6@ChaosBoxMi:

; 306  : 		case 85:
; 307  : 			Result3 = 0;

  00330	8b 55 ec	 mov	 edx, DWORD PTR _Result3$GSCopy$[ebp]
  00333	c7 02 00 00 00
	00		 mov	 DWORD PTR [edx], 0

; 308  : 			break;

  00339	eb 31		 jmp	 SHORT $LN9@ChaosBoxMi
$LN5@ChaosBoxMi:

; 309  : 		case 86:
; 310  : 			if(ZtConfig.ZtCustom.SwitchChar == 2)

  0033b	a1 00 00 00 00	 mov	 eax, DWORD PTR ?ZtConfig@@3VcZtConfigs@@A
  00340	8b 4d ec	 mov	 ecx, DWORD PTR _Result3$GSCopy$[ebp]
  00343	83 e8 02	 sub	 eax, 2
  00346	f7 d8		 neg	 eax
  00348	1b c0		 sbb	 eax, eax
  0034a	83 e0 29	 and	 eax, 41			; 00000029H
  0034d	89 01		 mov	 DWORD PTR [ecx], eax

; 311  : 			{
; 312  : 				Result3 = 0;
; 313  : 			}
; 314  : 			else
; 315  : 			{
; 316  : 				Result3 = 41;
; 317  : 			}
; 318  : 			break;

  0034f	eb 1b		 jmp	 SHORT $LN9@ChaosBoxMi
$LN2@ChaosBoxMi:

; 319  : 		case 87://updated 1.01.00
; 320  : 			Result3 = 30;//40;

  00351	8b 55 ec	 mov	 edx, DWORD PTR _Result3$GSCopy$[ebp]
  00354	c7 02 1e 00 00
	00		 mov	 DWORD PTR [edx], 30	; 0000001eH

; 321  : 			break;

  0035a	eb 10		 jmp	 SHORT $LN9@ChaosBoxMi
$LN1@ChaosBoxMi:

; 322  : 		default:
; 323  : 			LogAddTD("[MixSystem] WingCharmItemNum => %d , WingCharmIndex => %d", WingCharmItemNum, WingCharmIndex);

  0035c	50		 push	 eax
  0035d	51		 push	 ecx
  0035e	68 00 00 00 00	 push	 OFFSET ??_C@_0DK@EKDAKNF@?$FLMixSystem?$FN?5WingCharmItemNum?5?$DN?$DO?5@
  00363	ff 15 00 00 00
	00		 call	 DWORD PTR ?LogAddTD@@3P6AXPADZZA ; LogAddTD
  00369	83 c4 0c	 add	 esp, 12			; 0000000cH
$LN9@ChaosBoxMi:

; 324  : 		}
; 325  : 	}
; 326  : 
; 327  : 	return value;
; 328  : }

  0036c	8b 4d fc	 mov	 ecx, DWORD PTR __$ArrayPad$[ebp]
  0036f	5b		 pop	 ebx
  00370	5f		 pop	 edi
  00371	8b c6		 mov	 eax, esi
  00373	33 cd		 xor	 ecx, ebp
  00375	5e		 pop	 esi
  00376	e8 00 00 00 00	 call	 @__security_check_cookie@4
  0037b	8b e5		 mov	 esp, ebp
  0037d	5d		 pop	 ebp
  0037e	c2 0c 00	 ret	 12			; 0000000cH
  00381	8d 49 00	 npad	 3
$LN42@ChaosBoxMi:
  00384	00 00 00 00	 DD	 $LN8@ChaosBoxMi
  00388	00 00 00 00	 DD	 $LN7@ChaosBoxMi
  0038c	00 00 00 00	 DD	 $LN6@ChaosBoxMi
  00390	00 00 00 00	 DD	 $LN5@ChaosBoxMi
  00394	00 00 00 00	 DD	 $LN2@ChaosBoxMi
?ChaosBoxMix@CMixSystem@@QAEHPAUOBJECTSTRUCT@@AAH1@Z ENDP ; CMixSystem::ChaosBoxMix
_TEXT	ENDS
PUBLIC	??_C@_0HL@DJPNJNMN@?$FLDevilSquare?0?$CFd?$FN?5?$FL?$CFs?$FN?$FL?$CFs?$FN?5CBMix?5@ ; `string'
PUBLIC	__$ArrayPad$
PUBLIC	?LogDQChaosItem@CMixSystem@@QAEXPAUOBJECTSTRUCT@@@Z ; CMixSystem::LogDQChaosItem
EXTRN	?GetItemStrengthenOption@CJewelOfHarmonySystem@@QAEEPAVCItem@@@Z:PROC ; CJewelOfHarmonySystem::GetItemStrengthenOption
EXTRN	?GetItemOptionLevel@CJewelOfHarmonySystem@@QAEEPAVCItem@@@Z:PROC ; CJewelOfHarmonySystem::GetItemOptionLevel
EXTRN	?g_kJewelOfHarmonySystem@@3VCJewelOfHarmonySystem@@A:BYTE ; g_kJewelOfHarmonySystem
;	COMDAT ??_C@_0HL@DJPNJNMN@?$FLDevilSquare?0?$CFd?$FN?5?$FL?$CFs?$FN?$FL?$CFs?$FN?5CBMix?5@
CONST	SEGMENT
??_C@_0HL@DJPNJNMN@?$FLDevilSquare?0?$CFd?$FN?5?$FL?$CFs?$FN?$FL?$CFs?$FN?5CBMix?5@ DB '['
	DB	'DevilSquare,%d] [%s][%s] CBMix [%d,%s,%d,%d,%d,%d]serial:[%u]'
	DB	'[%d] Ex:[%d,%d,%d,%d,%d,%d,%d] Set:[%d] 380Ex[%d] HO:[%d,%d]', 00H ; `string'
; Function compile flags: /Ogtp
CONST	ENDS
;	COMDAT ?LogDQChaosItem@CMixSystem@@QAEXPAUOBJECTSTRUCT@@@Z
_TEXT	SEGMENT
_n$217769 = -16						; size = 4
_ExOption$ = -12					; size = 8
__$ArrayPad$ = -4					; size = 4
_lpObj$ = 8						; size = 4
?LogDQChaosItem@CMixSystem@@QAEXPAUOBJECTSTRUCT@@@Z PROC ; CMixSystem::LogDQChaosItem, COMDAT
; _this$ = ecx

; 526  : {

  00000	55		 push	 ebp
  00001	8b ec		 mov	 ebp, esp
  00003	83 ec 10	 sub	 esp, 16			; 00000010H
  00006	a1 00 00 00 00	 mov	 eax, DWORD PTR ___security_cookie
  0000b	33 c5		 xor	 eax, ebp
  0000d	89 45 fc	 mov	 DWORD PTR __$ArrayPad$[ebp], eax
  00010	53		 push	 ebx
  00011	8b 5d 08	 mov	 ebx, DWORD PTR _lpObj$[ebp]
  00014	56		 push	 esi
  00015	57		 push	 edi

; 527  : 	BYTE ExOption[MAX_EXOPTION_SIZE];
; 528  : 
; 529  : 	for ( int n=0;n<CHAOS_BOX_SIZE;n++)

  00016	33 ff		 xor	 edi, edi
  00018	89 7d f0	 mov	 DWORD PTR _n$217769[ebp], edi
  0001b	eb 03 8d 49 00	 npad	 5
$LL4@LogDQChaos:

; 530  : 	{
; 531  : 		if ( lpObj->pChaosBox[n].IsItem() == TRUE )

  00020	8b 8b 78 0e 00
	00		 mov	 ecx, DWORD PTR [ebx+3704]
  00026	03 cf		 add	 ecx, edi
  00028	e8 00 00 00 00	 call	 ?IsItem@CItem@@QAEHXZ	; CItem::IsItem
  0002d	83 f8 01	 cmp	 eax, 1
  00030	0f 85 d3 00 00
	00		 jne	 $LN3@LogDQChaos

; 532  : 		{
; 533  : 			::ItemIsBufExOption(ExOption, &lpObj->pChaosBox[n] );

  00036	8b 83 78 0e 00
	00		 mov	 eax, DWORD PTR [ebx+3704]
  0003c	03 c7		 add	 eax, edi
  0003e	50		 push	 eax
  0003f	8d 4d f4	 lea	 ecx, DWORD PTR _ExOption$[ebp]
  00042	51		 push	 ecx
  00043	e8 00 00 00 00	 call	 ?ItemIsBufExOption@@YAXPAEPAVCItem@@@Z ; ItemIsBufExOption

; 534  : 
; 535  : 			LogAddTD("[DevilSquare,%d] [%s][%s] CBMix [%d,%s,%d,%d,%d,%d]serial:[%u][%d] Ex:[%d,%d,%d,%d,%d,%d,%d] Set:[%d] 380Ex[%d] HO:[%d,%d]",
; 536  : 				lpObj->pChaosBox[n].m_Level,
; 537  : 				lpObj->AccountID, lpObj->Name, n, lpObj->pChaosBox[n].GetName(), lpObj->pChaosBox[n].m_Level,
; 538  : 				lpObj->pChaosBox[n].m_Option1, lpObj->pChaosBox[n].m_Option2, lpObj->pChaosBox[n].m_Option3, 
; 539  : 				lpObj->pChaosBox[n].m_Number, (int)lpObj->pChaosBox[n].m_Durability, 
; 540  : 				ExOption[0], ExOption[1], ExOption[2], ExOption[3], ExOption[4], ExOption[5], ExOption[6],
; 541  : 				lpObj->pChaosBox[n].m_SetOption, lpObj->pChaosBox[n].m_ItemOptionEx >> 7,
; 542  : 				g_kJewelOfHarmonySystem.GetItemStrengthenOption(&lpObj->pChaosBox[n]),
; 543  : 				g_kJewelOfHarmonySystem.GetItemOptionLevel(&lpObj->pChaosBox[n]));

  00048	8b 93 78 0e 00
	00		 mov	 edx, DWORD PTR [ebx+3704]
  0004e	8d 34 17	 lea	 esi, DWORD PTR [edi+edx]
  00051	83 c4 08	 add	 esp, 8
  00054	03 d7		 add	 edx, edi
  00056	52		 push	 edx
  00057	b9 00 00 00 00	 mov	 ecx, OFFSET ?g_kJewelOfHarmonySystem@@3VCJewelOfHarmonySystem@@A ; g_kJewelOfHarmonySystem
  0005c	e8 00 00 00 00	 call	 ?GetItemOptionLevel@CJewelOfHarmonySystem@@QAEEPAVCItem@@@Z ; CJewelOfHarmonySystem::GetItemOptionLevel
  00061	8b 93 78 0e 00
	00		 mov	 edx, DWORD PTR [ebx+3704]
  00067	0f b6 c8	 movzx	 ecx, al
  0006a	51		 push	 ecx
  0006b	03 d7		 add	 edx, edi
  0006d	52		 push	 edx
  0006e	b9 00 00 00 00	 mov	 ecx, OFFSET ?g_kJewelOfHarmonySystem@@3VCJewelOfHarmonySystem@@A ; g_kJewelOfHarmonySystem
  00073	e8 00 00 00 00	 call	 ?GetItemStrengthenOption@CJewelOfHarmonySystem@@QAEEPAVCItem@@@Z ; CJewelOfHarmonySystem::GetItemStrengthenOption
  00078	0f b6 8e ca 00
	00 00		 movzx	 ecx, BYTE PTR [esi+202]
  0007f	d9 46 24	 fld	 DWORD PTR [esi+36]
  00082	0f b6 96 ae 00
	00 00		 movzx	 edx, BYTE PTR [esi+174]
  00089	0f b6 c0	 movzx	 eax, al
  0008c	50		 push	 eax
  0008d	0f b6 45 fa	 movzx	 eax, BYTE PTR _ExOption$[ebp+6]
  00091	c1 e9 07	 shr	 ecx, 7
  00094	51		 push	 ecx
  00095	0f b6 4d f9	 movzx	 ecx, BYTE PTR _ExOption$[ebp+5]
  00099	52		 push	 edx
  0009a	0f b6 55 f8	 movzx	 edx, BYTE PTR _ExOption$[ebp+4]
  0009e	50		 push	 eax
  0009f	0f b6 45 f7	 movzx	 eax, BYTE PTR _ExOption$[ebp+3]
  000a3	51		 push	 ecx
  000a4	0f b6 4d f6	 movzx	 ecx, BYTE PTR _ExOption$[ebp+2]
  000a8	52		 push	 edx
  000a9	0f b6 55 f5	 movzx	 edx, BYTE PTR _ExOption$[ebp+1]
  000ad	50		 push	 eax
  000ae	0f b6 45 f4	 movzx	 eax, BYTE PTR _ExOption$[ebp]
  000b2	51		 push	 ecx
  000b3	52		 push	 edx
  000b4	50		 push	 eax
  000b5	e8 00 00 00 00	 call	 __ftol2_sse
  000ba	8b 0e		 mov	 ecx, DWORD PTR [esi]
  000bc	0f b6 96 96 00
	00 00		 movzx	 edx, BYTE PTR [esi+150]
  000c3	50		 push	 eax
  000c4	0f b6 86 95 00
	00 00		 movzx	 eax, BYTE PTR [esi+149]
  000cb	51		 push	 ecx
  000cc	0f b6 8e 94 00
	00 00		 movzx	 ecx, BYTE PTR [esi+148]
  000d3	52		 push	 edx
  000d4	0f bf 56 08	 movsx	 edx, WORD PTR [esi+8]
  000d8	50		 push	 eax
  000d9	51		 push	 ecx
  000da	52		 push	 edx
  000db	8b ce		 mov	 ecx, esi
  000dd	e8 00 00 00 00	 call	 ?GetName@CItem@@QAEPADXZ ; CItem::GetName
  000e2	50		 push	 eax
  000e3	8b 45 f0	 mov	 eax, DWORD PTR _n$217769[ebp]
  000e6	50		 push	 eax
  000e7	8b 83 78 0e 00
	00		 mov	 eax, DWORD PTR [ebx+3704]
  000ed	8d 4b 77	 lea	 ecx, DWORD PTR [ebx+119]
  000f0	51		 push	 ecx
  000f1	0f bf 4c 07 08	 movsx	 ecx, WORD PTR [edi+eax+8]
  000f6	8d 53 6c	 lea	 edx, DWORD PTR [ebx+108]
  000f9	52		 push	 edx
  000fa	51		 push	 ecx
  000fb	68 00 00 00 00	 push	 OFFSET ??_C@_0HL@DJPNJNMN@?$FLDevilSquare?0?$CFd?$FN?5?$FL?$CFs?$FN?$FL?$CFs?$FN?5CBMix?5@
  00100	ff 15 00 00 00
	00		 call	 DWORD PTR ?LogAddTD@@3P6AXPADZZA ; LogAddTD
  00106	83 c4 5c	 add	 esp, 92			; 0000005cH
$LN3@LogDQChaos:

; 527  : 	BYTE ExOption[MAX_EXOPTION_SIZE];
; 528  : 
; 529  : 	for ( int n=0;n<CHAOS_BOX_SIZE;n++)

  00109	ff 45 f0	 inc	 DWORD PTR _n$217769[ebp]
  0010c	81 c7 d4 00 00
	00		 add	 edi, 212		; 000000d4H
  00112	81 ff 80 1a 00
	00		 cmp	 edi, 6784		; 00001a80H
  00118	0f 8c 02 ff ff
	ff		 jl	 $LL4@LogDQChaos

; 544  : 		}
; 545  : 	}
; 546  : }

  0011e	8b 4d fc	 mov	 ecx, DWORD PTR __$ArrayPad$[ebp]
  00121	5f		 pop	 edi
  00122	5e		 pop	 esi
  00123	33 cd		 xor	 ecx, ebp
  00125	5b		 pop	 ebx
  00126	e8 00 00 00 00	 call	 @__security_check_cookie@4
  0012b	8b e5		 mov	 esp, ebp
  0012d	5d		 pop	 ebp
  0012e	c2 04 00	 ret	 4
?LogDQChaosItem@CMixSystem@@QAEXPAUOBJECTSTRUCT@@@Z ENDP ; CMixSystem::LogDQChaosItem
_TEXT	ENDS
PUBLIC	??_C@_0CA@IANBADIL@?$FLDevilSquare?$FN?5DQItems?5Not?5Found?$AA@ ; `string'
PUBLIC	??_C@_0CH@EJJKJEAB@?$FLDevilSquare?$FN?5Charm?5Of?5Luck?5Coun@ ; `string'
PUBLIC	??_C@_0CG@FFFDDFEO@?$FLDevilSquare?$FN?5DiffLevel?5DQItems?5@ ; `string'
PUBLIC	??_C@_0CC@LINAPAPC@?$FLDevilSquare?$FN?5Other?5DQItems?5Foun@ ; `string'
PUBLIC	??_C@_0CF@MGDMILOL@?$FLDevilSquare?$FN?5Search?5DevilSquare@ ; `string'
PUBLIC	?CheckDevilSquareItem@CMixSystem@@QAEHPAUOBJECTSTRUCT@@AAH1@Z ; CMixSystem::CheckDevilSquareItem
;	COMDAT ??_C@_0CA@IANBADIL@?$FLDevilSquare?$FN?5DQItems?5Not?5Found?$AA@
CONST	SEGMENT
??_C@_0CA@IANBADIL@?$FLDevilSquare?$FN?5DQItems?5Not?5Found?$AA@ DB '[Dev'
	DB	'ilSquare] DQItems Not Found', 00H		; `string'
CONST	ENDS
;	COMDAT ??_C@_0CH@EJJKJEAB@?$FLDevilSquare?$FN?5Charm?5Of?5Luck?5Coun@
CONST	SEGMENT
??_C@_0CH@EJJKJEAB@?$FLDevilSquare?$FN?5Charm?5Of?5Luck?5Coun@ DB '[Devil'
	DB	'Square] Charm Of Luck Count Over', 00H	; `string'
CONST	ENDS
;	COMDAT ??_C@_0CG@FFFDDFEO@?$FLDevilSquare?$FN?5DiffLevel?5DQItems?5@
CONST	SEGMENT
??_C@_0CG@FFFDDFEO@?$FLDevilSquare?$FN?5DiffLevel?5DQItems?5@ DB '[DevilS'
	DB	'quare] DiffLevel DQItems Found', 00H	; `string'
CONST	ENDS
;	COMDAT ??_C@_0CC@LINAPAPC@?$FLDevilSquare?$FN?5Other?5DQItems?5Foun@
CONST	SEGMENT
??_C@_0CC@LINAPAPC@?$FLDevilSquare?$FN?5Other?5DQItems?5Foun@ DB '[DevilS'
	DB	'quare] Other DQItems Found', 00H		; `string'
CONST	ENDS
;	COMDAT ??_C@_0CF@MGDMILOL@?$FLDevilSquare?$FN?5Search?5DevilSquare@
CONST	SEGMENT
??_C@_0CF@MGDMILOL@?$FLDevilSquare?$FN?5Search?5DevilSquare@ DB '[DevilSq'
	DB	'uare] Search DevilSquareItem', 00H		; `string'
; Function compile flags: /Ogtp
CONST	ENDS
;	COMDAT ?CheckDevilSquareItem@CMixSystem@@QAEHPAUOBJECTSTRUCT@@AAH1@Z
_TEXT	SEGMENT
tv309 = -32						; size = 4
_this$ = -28						; size = 4
_bChaoseGem$ = -24					; size = 4
_bCharmOfLuckOver$ = -20				; size = 4
_FoundOtherItem$ = -16					; size = 4
_bKeyOfDevil$ = -12					; size = 4
_bEyeOfDevil$ = -8					; size = 4
_bLevelCheck$ = -4					; size = 4
_lpObj$ = 8						; size = 4
_iCharmOfLuckCount$ = 12				; size = 4
_eventitemcount$ = 12					; size = 4
_itemlevel$ = 16					; size = 4
?CheckDevilSquareItem@CMixSystem@@QAEHPAUOBJECTSTRUCT@@AAH1@Z PROC ; CMixSystem::CheckDevilSquareItem, COMDAT
; _this$ = ecx

; 549  : {

  00000	55		 push	 ebp
  00001	8b ec		 mov	 ebp, esp
  00003	83 ec 20	 sub	 esp, 32			; 00000020H
  00006	53		 push	 ebx

; 550  : 	BOOL bChaoseGem = FALSE;
; 551  : 	BOOL bEyeOfDevil = FALSE;
; 552  : 	BOOL bKeyOfDevil = FALSE;
; 553  : 	eventitemcount = 0;

  00007	8b 5d 0c	 mov	 ebx, DWORD PTR _eventitemcount$[ebp]
  0000a	56		 push	 esi
  0000b	33 f6		 xor	 esi, esi
  0000d	57		 push	 edi

; 554  : 	BOOL FoundOtherItem = FALSE;
; 555  : 	int level = -1;
; 556  : 	BOOL bLevelCheck = FALSE;
; 557  : 	int iCharmOfLuckCount = 0;
; 558  : 	BOOL bCharmOfLuckOver = FALSE;
; 559  : 
; 560  : 	LogAdd("[DevilSquare] Search DevilSquareItem");

  0000e	68 00 00 00 00	 push	 OFFSET ??_C@_0CF@MGDMILOL@?$FLDevilSquare?$FN?5Search?5DevilSquare@
  00013	89 4d e4	 mov	 DWORD PTR _this$[ebp], ecx
  00016	89 75 e8	 mov	 DWORD PTR _bChaoseGem$[ebp], esi
  00019	89 75 f8	 mov	 DWORD PTR _bEyeOfDevil$[ebp], esi
  0001c	89 75 f4	 mov	 DWORD PTR _bKeyOfDevil$[ebp], esi
  0001f	89 33		 mov	 DWORD PTR [ebx], esi
  00021	89 75 f0	 mov	 DWORD PTR _FoundOtherItem$[ebp], esi
  00024	83 cf ff	 or	 edi, -1
  00027	89 75 fc	 mov	 DWORD PTR _bLevelCheck$[ebp], esi
  0002a	89 75 0c	 mov	 DWORD PTR _iCharmOfLuckCount$[ebp], esi
  0002d	89 75 ec	 mov	 DWORD PTR _bCharmOfLuckOver$[ebp], esi
  00030	ff 15 00 00 00
	00		 call	 DWORD PTR ?LogAdd@@3P6AXPADZZA ; LogAdd
  00036	83 c4 04	 add	 esp, 4
  00039	8d a4 24 00 00
	00 00		 npad	 7
$LL24@CheckDevil:

; 563  : 	{
; 564  : 		if ( lpObj->pChaosBox[n].IsItem() == TRUE )

  00040	8b 45 08	 mov	 eax, DWORD PTR _lpObj$[ebp]
  00043	8b 88 78 0e 00
	00		 mov	 ecx, DWORD PTR [eax+3704]
  00049	03 ce		 add	 ecx, esi
  0004b	e8 00 00 00 00	 call	 ?IsItem@CItem@@QAEHXZ	; CItem::IsItem
  00050	83 f8 01	 cmp	 eax, 1
  00053	0f 85 9c 00 00
	00		 jne	 $LN23@CheckDevil

; 565  : 		{
; 566  : 			if ( lpObj->pChaosBox[n].m_Type == ITEMGET(12,15) )	// Chaos

  00059	8b 4d 08	 mov	 ecx, DWORD PTR _lpObj$[ebp]
  0005c	8b 81 78 0e 00
	00		 mov	 eax, DWORD PTR [ecx+3704]
  00062	03 c6		 add	 eax, esi
  00064	89 45 e0	 mov	 DWORD PTR tv309[ebp], eax
  00067	0f b7 40 06	 movzx	 eax, WORD PTR [eax+6]
  0006b	ba 0f 18 00 00	 mov	 edx, 6159		; 0000180fH
  00070	66 3b c2	 cmp	 ax, dx
  00073	75 09		 jne	 SHORT $LN20@CheckDevil

; 567  : 			{
; 568  : 				bChaoseGem = TRUE;

  00075	c7 45 e8 01 00
	00 00		 mov	 DWORD PTR _bChaoseGem$[ebp], 1
  0007c	eb 77		 jmp	 SHORT $LN23@CheckDevil
$LN20@CheckDevil:

; 569  : 			}
; 570  : 			else if ( lpObj->pChaosBox[n].m_Type == ITEMGET(14,17) )	// Eye

  0007e	ba 11 1c 00 00	 mov	 edx, 7185		; 00001c11H
  00083	66 3b c2	 cmp	 ax, dx
  00086	75 22		 jne	 SHORT $LN18@CheckDevil

; 571  : 			{
; 572  : 				eventitemcount +=1;

  00088	ba 01 00 00 00	 mov	 edx, 1

; 573  : 				bEyeOfDevil = TRUE;

  0008d	89 55 f8	 mov	 DWORD PTR _bEyeOfDevil$[ebp], edx
$LN33@CheckDevil:

; 574  : 
; 575  : 				if ( level != lpObj->pChaosBox[n].m_Level )

  00090	01 13		 add	 DWORD PTR [ebx], edx
  00092	8b 81 78 0e 00
	00		 mov	 eax, DWORD PTR [ecx+3704]
  00098	0f bf 44 30 08	 movsx	 eax, WORD PTR [eax+esi+8]
  0009d	3b f8		 cmp	 edi, eax
  0009f	74 54		 je	 SHORT $LN23@CheckDevil

; 576  : 				{
; 577  : 					if ( level == -1 )

  000a1	83 ff ff	 cmp	 edi, -1
  000a4	75 18		 jne	 SHORT $LN11@CheckDevil

; 578  : 					{
; 579  : 						level = lpObj->pChaosBox[n].m_Level;

  000a6	8b f8		 mov	 edi, eax

; 580  : 					}
; 581  : 					else

  000a8	eb 4b		 jmp	 SHORT $LN23@CheckDevil
$LN18@CheckDevil:

; 582  : 					{
; 583  : 						bLevelCheck = TRUE;
; 584  : 					}
; 585  : 				}
; 586  : 			}
; 587  : 			else if ( lpObj->pChaosBox[n].m_Type == ITEMGET(14,18) )	// Key

  000aa	ba 12 1c 00 00	 mov	 edx, 7186		; 00001c12H
  000af	66 3b c2	 cmp	 ax, dx
  000b2	75 0f		 jne	 SHORT $LN13@CheckDevil

; 588  : 			{
; 589  : 				eventitemcount +=1;

  000b4	ba 01 00 00 00	 mov	 edx, 1

; 590  : 				bKeyOfDevil = TRUE;

  000b9	89 55 f4	 mov	 DWORD PTR _bKeyOfDevil$[ebp], edx

; 591  : 
; 592  : 				if ( level != lpObj->pChaosBox[n].m_Level )
; 593  : 				{
; 594  : 					if ( level == -1 )
; 595  : 					{
; 596  : 						level = lpObj->pChaosBox[n].m_Level;
; 597  : 					}
; 598  : 					else

  000bc	eb d2		 jmp	 SHORT $LN33@CheckDevil
$LN11@CheckDevil:

; 599  : 					{
; 600  : 						bLevelCheck = TRUE;

  000be	89 55 fc	 mov	 DWORD PTR _bLevelCheck$[ebp], edx

; 601  : 					}
; 602  : 				}
; 603  : 			}

  000c1	eb 32		 jmp	 SHORT $LN23@CheckDevil
$LN13@CheckDevil:

; 604  : 			else if ( lpObj->pChaosBox[n].m_Type == ITEMGET(14,53) )	// Charm Of Luck

  000c3	b9 35 1c 00 00	 mov	 ecx, 7221		; 00001c35H
  000c8	66 3b c1	 cmp	 ax, cx
  000cb	75 21		 jne	 SHORT $LN8@CheckDevil

; 605  : 			{
; 606  : 				iCharmOfLuckCount += (int)lpObj->pChaosBox[n].m_Durability;

  000cd	8b 55 e0	 mov	 edx, DWORD PTR tv309[ebp]
  000d0	d9 42 24	 fld	 DWORD PTR [edx+36]
  000d3	e8 00 00 00 00	 call	 __ftol2_sse
  000d8	8b 4d 0c	 mov	 ecx, DWORD PTR _iCharmOfLuckCount$[ebp]
  000db	03 c8		 add	 ecx, eax
  000dd	89 4d 0c	 mov	 DWORD PTR _iCharmOfLuckCount$[ebp], ecx

; 607  : 
; 608  : 				if ( iCharmOfLuckCount > 10 )

  000e0	83 f9 0a	 cmp	 ecx, 10			; 0000000aH
  000e3	7e 10		 jle	 SHORT $LN23@CheckDevil

; 609  : 				{
; 610  : 					bCharmOfLuckOver = TRUE;

  000e5	c7 45 ec 01 00
	00 00		 mov	 DWORD PTR _bCharmOfLuckOver$[ebp], 1

; 611  : 				}
; 612  : 			}
; 613  : 			else

  000ec	eb 07		 jmp	 SHORT $LN23@CheckDevil
$LN8@CheckDevil:

; 614  : 			{
; 615  : 				FoundOtherItem = TRUE;

  000ee	c7 45 f0 01 00
	00 00		 mov	 DWORD PTR _FoundOtherItem$[ebp], 1
$LN23@CheckDevil:

; 561  : 
; 562  : 	for ( int n=0;n<CHAOS_BOX_SIZE;n++)

  000f5	81 c6 d4 00 00
	00		 add	 esi, 212		; 000000d4H
  000fb	81 fe 80 1a 00
	00		 cmp	 esi, 6784		; 00001a80H
  00101	0f 8c 39 ff ff
	ff		 jl	 $LL24@CheckDevil

; 616  : 			}
; 617  : 		}
; 618  : 	}
; 619  : 
; 620  : 	itemlevel = level;
; 621  : 	lpObj->ChaosSuccessRate = iCharmOfLuckCount;
; 622  : 
; 623  : 	if ( FoundOtherItem != FALSE )

  00107	83 7d f0 00	 cmp	 DWORD PTR _FoundOtherItem$[ebp], 0
  0010b	8b 45 10	 mov	 eax, DWORD PTR _itemlevel$[ebp]
  0010e	8b 4d 0c	 mov	 ecx, DWORD PTR _iCharmOfLuckCount$[ebp]
  00111	89 38		 mov	 DWORD PTR [eax], edi
  00113	8b 45 08	 mov	 eax, DWORD PTR _lpObj$[ebp]
  00116	5f		 pop	 edi
  00117	5e		 pop	 esi
  00118	89 88 84 0e 00
	00		 mov	 DWORD PTR [eax+3716], ecx
  0011e	5b		 pop	 ebx
  0011f	74 16		 je	 SHORT $LN5@CheckDevil

; 624  : 	{
; 625  : 		LogAdd("[DevilSquare] Other DQItems Found");

  00121	68 00 00 00 00	 push	 OFFSET ??_C@_0CC@LINAPAPC@?$FLDevilSquare?$FN?5Other?5DQItems?5Foun@

; 651  : 	}
; 652  : 
; 653  : 	LogAdd("[DevilSquare] DQItems Not Found");

  00126	ff 15 00 00 00
	00		 call	 DWORD PTR ?LogAdd@@3P6AXPADZZA ; LogAdd
  0012c	83 c4 04	 add	 esp, 4

; 654  : 
; 655  : 	return 0;

  0012f	33 c0		 xor	 eax, eax

; 656  : }

  00131	8b e5		 mov	 esp, ebp
  00133	5d		 pop	 ebp
  00134	c2 0c 00	 ret	 12			; 0000000cH
$LN5@CheckDevil:

; 626  : 		return 0;
; 627  : 	}
; 628  : 
; 629  : 	if ( bLevelCheck != FALSE )

  00137	83 7d fc 00	 cmp	 DWORD PTR _bLevelCheck$[ebp], 0
  0013b	74 19		 je	 SHORT $LN4@CheckDevil

; 630  : 	{
; 631  : 		LogAdd("[DevilSquare] DiffLevel DQItems Found");

  0013d	68 00 00 00 00	 push	 OFFSET ??_C@_0CG@FFFDDFEO@?$FLDevilSquare?$FN?5DiffLevel?5DQItems?5@
  00142	ff 15 00 00 00
	00		 call	 DWORD PTR ?LogAdd@@3P6AXPADZZA ; LogAdd
  00148	83 c4 04	 add	 esp, 4

; 632  : 		return 3;

  0014b	b8 03 00 00 00	 mov	 eax, 3

; 656  : }

  00150	8b e5		 mov	 esp, ebp
  00152	5d		 pop	 ebp
  00153	c2 0c 00	 ret	 12			; 0000000cH
$LN4@CheckDevil:

; 633  : 	}
; 634  : 
; 635  : 	if ( bCharmOfLuckOver == TRUE )

  00156	83 7d ec 01	 cmp	 DWORD PTR _bCharmOfLuckOver$[ebp], 1
  0015a	75 19		 jne	 SHORT $LN3@CheckDevil

; 636  : 	{
; 637  : 		LogAdd("[DevilSquare] Charm Of Luck Count Over");

  0015c	68 00 00 00 00	 push	 OFFSET ??_C@_0CH@EJJKJEAB@?$FLDevilSquare?$FN?5Charm?5Of?5Luck?5Coun@
  00161	ff 15 00 00 00
	00		 call	 DWORD PTR ?LogAdd@@3P6AXPADZZA ; LogAdd
  00167	83 c4 04	 add	 esp, 4

; 638  : 		return 4;

  0016a	b8 04 00 00 00	 mov	 eax, 4

; 656  : }

  0016f	8b e5		 mov	 esp, ebp
  00171	5d		 pop	 ebp
  00172	c2 0c 00	 ret	 12			; 0000000cH
$LN3@CheckDevil:

; 639  : 	}
; 640  : 
; 641  : 	if ( bChaoseGem != FALSE && bEyeOfDevil != FALSE && bKeyOfDevil != FALSE )

  00175	83 7d e8 00	 cmp	 DWORD PTR _bChaoseGem$[ebp], 0
  00179	74 20		 je	 SHORT $LN30@CheckDevil
  0017b	83 7d f8 00	 cmp	 DWORD PTR _bEyeOfDevil$[ebp], 0
  0017f	74 3a		 je	 SHORT $LN1@CheckDevil
  00181	83 7d f4 00	 cmp	 DWORD PTR _bKeyOfDevil$[ebp], 0
  00185	74 14		 je	 SHORT $LN30@CheckDevil

; 642  : 	{
; 643  : 		LogDQChaosItem(lpObj);

  00187	8b 4d e4	 mov	 ecx, DWORD PTR _this$[ebp]
  0018a	50		 push	 eax
  0018b	e8 00 00 00 00	 call	 ?LogDQChaosItem@CMixSystem@@QAEXPAUOBJECTSTRUCT@@@Z ; CMixSystem::LogDQChaosItem

; 644  : 		return 1;

  00190	b8 01 00 00 00	 mov	 eax, 1

; 656  : }

  00195	8b e5		 mov	 esp, ebp
  00197	5d		 pop	 ebp
  00198	c2 0c 00	 ret	 12			; 0000000cH
$LN30@CheckDevil:

; 645  : 	}
; 646  : 
; 647  : 	if ( bEyeOfDevil != FALSE && bKeyOfDevil != FALSE )

  0019b	83 7d f8 00	 cmp	 DWORD PTR _bEyeOfDevil$[ebp], 0
  0019f	74 1a		 je	 SHORT $LN1@CheckDevil
  001a1	83 7d f4 00	 cmp	 DWORD PTR _bKeyOfDevil$[ebp], 0
  001a5	74 14		 je	 SHORT $LN1@CheckDevil

; 648  : 	{
; 649  : 		LogDQChaosItem(lpObj);

  001a7	8b 4d e4	 mov	 ecx, DWORD PTR _this$[ebp]
  001aa	50		 push	 eax
  001ab	e8 00 00 00 00	 call	 ?LogDQChaosItem@CMixSystem@@QAEXPAUOBJECTSTRUCT@@@Z ; CMixSystem::LogDQChaosItem

; 650  : 		return 2;

  001b0	b8 02 00 00 00	 mov	 eax, 2

; 656  : }

  001b5	8b e5		 mov	 esp, ebp
  001b7	5d		 pop	 ebp
  001b8	c2 0c 00	 ret	 12			; 0000000cH
$LN1@CheckDevil:

; 651  : 	}
; 652  : 
; 653  : 	LogAdd("[DevilSquare] DQItems Not Found");

  001bb	68 00 00 00 00	 push	 OFFSET ??_C@_0CA@IANBADIL@?$FLDevilSquare?$FN?5DQItems?5Not?5Found?$AA@
  001c0	ff 15 00 00 00
	00		 call	 DWORD PTR ?LogAdd@@3P6AXPADZZA ; LogAdd
  001c6	83 c4 04	 add	 esp, 4

; 654  : 
; 655  : 	return 0;

  001c9	33 c0		 xor	 eax, eax

; 656  : }

  001cb	8b e5		 mov	 esp, ebp
  001cd	5d		 pop	 ebp
  001ce	c2 0c 00	 ret	 12			; 0000000cH
?CheckDevilSquareItem@CMixSystem@@QAEHPAUOBJECTSTRUCT@@AAH1@Z ENDP ; CMixSystem::CheckDevilSquareItem
_TEXT	ENDS
PUBLIC	??_C@_0DB@BMAIOAHL@?$FLDevilSquare?$FN?5?$FL?$CFs?$FN?$FL?$CFs?$FN?5Invalid?5D@ ; `string'
PUBLIC	??_C@_0DL@ODHCGDBD@?$FLDevilSquare?0?$CFd?$FN?5?$FL?$CFs?$FN?$FL?$CFs?$FN?5CBMix?5@ ; `string'
PUBLIC	??_C@_0DG@KKBIIBFP@?$FLDevilSquare?0?$CFd?$FN?5?$FL?$CFs?$FN?$FL?$CFs?$FN?5CBMix?5@ ; `string'
PUBLIC	??_C@_0EB@HHHNMGIM@?$FLDevilSquare?$FN?5?$FL?$CFs?$FN?$FL?$CFs?$FN?5CBMix?5Not@ ; `string'
PUBLIC	??_C@_0BO@MDACFBLC@?$FLDevilSquare?$FN?5Chaos?5Mix?5Start?$AA@ ; `string'
PUBLIC	__$ArrayPad$
PUBLIC	?DevilSquareEventChaosMix@CMixSystem@@QAEHPAUOBJECTSTRUCT@@HH@Z ; CMixSystem::DevilSquareEventChaosMix
EXTRN	?gObjInventoryCommit@@YAHH@Z:PROC		; gObjInventoryCommit
EXTRN	?FailedChaosMix@CAchievements@@QAEXH@Z:PROC	; CAchievements::FailedChaosMix
EXTRN	?GCUserChaosBoxSend@@YAXPAUOBJECTSTRUCT@@H@Z:PROC ; GCUserChaosBoxSend
EXTRN	?DestroyGIocp@@YAXXZ:PROC			; DestroyGIocp
EXTRN	?szAuthKey@@3PADA:BYTE				; szAuthKey
EXTRN	?GCMoneySend@@YAXHK@Z:PROC			; GCMoneySend
EXTRN	?AddTributeMoney@CCastleSiegeSync@@QAEXH@Z:PROC	; CCastleSiegeSync::AddTributeMoney
EXTRN	?SuccessChaosMix@CAchievements@@QAEXH@Z:PROC	; CAchievements::SuccessChaosMix
EXTRN	?g_Achievements@@3VCAchievements@@A:BYTE	; g_Achievements
EXTRN	?ItemSerialCreateSend@@YAXHEEEHEEEEEHEE@Z:PROC	; ItemSerialCreateSend
EXTRN	?GetPlusChaosRate@CCrywolfSync@@QAEHXZ:PROC	; CCrywolfSync::GetPlusChaosRate
EXTRN	?g_iCrywolfApplyMvpBenefit@@3HA:DWORD		; g_iCrywolfApplyMvpBenefit
EXTRN	?GetOccupationState@CCrywolfSync@@QAEHXZ:PROC	; CCrywolfSync::GetOccupationState
EXTRN	?g_CrywolfSync@@3VCCrywolfSync@@A:BYTE		; g_CrywolfSync
EXTRN	?GetTaxRateChaos@CCastleSiegeSync@@QAEHH@Z:PROC	; CCastleSiegeSync::GetTaxRateChaos
EXTRN	?g_CastleSiegeSync@@3VCCastleSiegeSync@@A:BYTE	; g_CastleSiegeSync
EXTRN	?gDQChaosSuccessRateLevel7@@3HA:DWORD		; gDQChaosSuccessRateLevel7
EXTRN	?gDQChaosSuccessRateLevel6@@3HA:DWORD		; gDQChaosSuccessRateLevel6
EXTRN	?gDQChaosSuccessRateLevel5@@3HA:DWORD		; gDQChaosSuccessRateLevel5
EXTRN	?gDQChaosSuccessRateLevel4@@3HA:DWORD		; gDQChaosSuccessRateLevel4
EXTRN	?gDQChaosSuccessRateLevel3@@3HA:DWORD		; gDQChaosSuccessRateLevel3
EXTRN	?gDQChaosSuccessRateLevel2@@3HA:DWORD		; gDQChaosSuccessRateLevel2
EXTRN	?gDQChaosSuccessRateLevel1@@3HA:DWORD		; gDQChaosSuccessRateLevel1
EXTRN	?DataSend@@YAHHPAEK@Z:PROC			; DataSend
EXTRN	?PHeadSetB@@YAXPAEEH@Z:PROC			; PHeadSetB
EXTRN	__alldiv:PROC
;	COMDAT ??_C@_0DB@BMAIOAHL@?$FLDevilSquare?$FN?5?$FL?$CFs?$FN?$FL?$CFs?$FN?5Invalid?5D@
CONST	SEGMENT
??_C@_0DB@BMAIOAHL@?$FLDevilSquare?$FN?5?$FL?$CFs?$FN?$FL?$CFs?$FN?5Invalid?5D@ DB '['
	DB	'DevilSquare] [%s][%s] Invalid DQItem Level [%d]', 00H ; `string'
CONST	ENDS
;	COMDAT ??_C@_0DL@ODHCGDBD@?$FLDevilSquare?0?$CFd?$FN?5?$FL?$CFs?$FN?$FL?$CFs?$FN?5CBMix?5@
CONST	SEGMENT
??_C@_0DL@ODHCGDBD@?$FLDevilSquare?0?$CFd?$FN?5?$FL?$CFs?$FN?$FL?$CFs?$FN?5CBMix?5@ DB '['
	DB	'DevilSquare,%d] [%s][%s] CBMix Success Rate:%d Money : %d', 00H ; `string'
CONST	ENDS
;	COMDAT ??_C@_0DG@KKBIIBFP@?$FLDevilSquare?0?$CFd?$FN?5?$FL?$CFs?$FN?$FL?$CFs?$FN?5CBMix?5@
CONST	SEGMENT
??_C@_0DG@KKBIIBFP@?$FLDevilSquare?0?$CFd?$FN?5?$FL?$CFs?$FN?$FL?$CFs?$FN?5CBMix?5@ DB '['
	DB	'DevilSquare,%d] [%s][%s] CBMix Fail %d Money : %d-%d', 00H ; `string'
CONST	ENDS
;	COMDAT ??_C@_0EB@HHHNMGIM@?$FLDevilSquare?$FN?5?$FL?$CFs?$FN?$FL?$CFs?$FN?5CBMix?5Not@
CONST	SEGMENT
??_C@_0EB@HHHNMGIM@?$FLDevilSquare?$FN?5?$FL?$CFs?$FN?$FL?$CFs?$FN?5CBMix?5Not@ DB '['
	DB	'DevilSquare] [%s][%s] CBMix Not Enough Money [%d] need zen [%'
	DB	'd]', 00H					; `string'
CONST	ENDS
;	COMDAT ??_C@_0BO@MDACFBLC@?$FLDevilSquare?$FN?5Chaos?5Mix?5Start?$AA@
CONST	SEGMENT
??_C@_0BO@MDACFBLC@?$FLDevilSquare?$FN?5Chaos?5Mix?5Start?$AA@ DB '[Devil'
	DB	'Square] Chaos Mix Start', 00H		; `string'
; Function compile flags: /Ogtp
CONST	ENDS
;	COMDAT ?DevilSquareEventChaosMix@CMixSystem@@QAEHPAUOBJECTSTRUCT@@HH@Z
_TEXT	SEGMENT
_this$ = -36						; size = 4
_iCharmOfLuckCount$ = -32				; size = 4
_fail$ = -28						; size = 4
_aIndex$ = -24						; size = 4
_pMsg$ = -20						; size = 16
__$ArrayPad$ = -4					; size = 4
_lpObj$ = 8						; size = 4
_bCheckType$ = 12					; size = 4
_iItemLevel$ = 16					; size = 4
?DevilSquareEventChaosMix@CMixSystem@@QAEHPAUOBJECTSTRUCT@@HH@Z PROC ; CMixSystem::DevilSquareEventChaosMix, COMDAT
; _this$ = ecx

; 659  : {

  00000	55		 push	 ebp
  00001	8b ec		 mov	 ebp, esp
  00003	83 ec 24	 sub	 esp, 36			; 00000024H
  00006	a1 00 00 00 00	 mov	 eax, DWORD PTR ___security_cookie
  0000b	33 c5		 xor	 eax, ebp
  0000d	89 45 fc	 mov	 DWORD PTR __$ArrayPad$[ebp], eax
  00010	53		 push	 ebx
  00011	56		 push	 esi
  00012	8b 75 08	 mov	 esi, DWORD PTR _lpObj$[ebp]
  00015	57		 push	 edi

; 660  : 	BOOL fail = TRUE;
; 661  : 	int aIndex = lpObj->m_Index;

  00016	8b 3e		 mov	 edi, DWORD PTR [esi]

; 662  : 	PMSG_CHAOSMIXRESULT pMsg;
; 663  : 
; 664  : 	PHeadSetB((LPBYTE)&pMsg.h, 0x86, sizeof(PMSG_CHAOSMIXRESULT));

  00018	6a 10		 push	 16			; 00000010H
  0001a	8d 45 ec	 lea	 eax, DWORD PTR _pMsg$[ebp]
  0001d	68 86 00 00 00	 push	 134			; 00000086H
  00022	bb 01 00 00 00	 mov	 ebx, 1
  00027	50		 push	 eax
  00028	89 4d dc	 mov	 DWORD PTR _this$[ebp], ecx
  0002b	89 5d e4	 mov	 DWORD PTR _fail$[ebp], ebx
  0002e	89 7d e8	 mov	 DWORD PTR _aIndex$[ebp], edi
  00031	e8 00 00 00 00	 call	 ?PHeadSetB@@YAXPAEEH@Z	; PHeadSetB

; 665  : 	pMsg.Result = CB_ERROR;
; 666  : 	lpObj->ChaosLock = TRUE;
; 667  : 
; 668  : 	LogAddTD("[DevilSquare] Chaos Mix Start");

  00036	68 00 00 00 00	 push	 OFFSET ??_C@_0BO@MDACFBLC@?$FLDevilSquare?$FN?5Chaos?5Mix?5Start?$AA@
  0003b	c6 45 ef 00	 mov	 BYTE PTR _pMsg$[ebp+3], 0
  0003f	89 9e 88 0e 00
	00		 mov	 DWORD PTR [esi+3720], ebx
  00045	ff 15 00 00 00
	00		 call	 DWORD PTR ?LogAddTD@@3P6AXPADZZA ; LogAddTD

; 669  : 
; 670  : 	INT nChaosNeedMoney = 0;
; 671  : 
; 672  : 	int iCharmOfLuckCount = 0;
; 673  : 	iCharmOfLuckCount = lpObj->ChaosSuccessRate;

  0004b	8b 86 84 0e 00
	00		 mov	 eax, DWORD PTR [esi+3716]
  00051	83 c4 10	 add	 esp, 16			; 00000010H
  00054	89 45 e0	 mov	 DWORD PTR _iCharmOfLuckCount$[ebp], eax

; 674  : 
; 675  : 	if ( iCharmOfLuckCount > 10 )

  00057	83 f8 0a	 cmp	 eax, 10			; 0000000aH
  0005a	7e 20		 jle	 SHORT $LN24@DevilSquar

; 676  : 	{
; 677  : 		pMsg.Result = 0xF0;
; 678  : 		lpObj->ChaosLock = FALSE;
; 679  : 		DataSend(aIndex, (LPBYTE)&pMsg, pMsg.h.size);

  0005c	0f b6 4d ed	 movzx	 ecx, BYTE PTR _pMsg$[ebp+1]
  00060	51		 push	 ecx
  00061	8d 55 ec	 lea	 edx, DWORD PTR _pMsg$[ebp]
  00064	52		 push	 edx
  00065	57		 push	 edi
  00066	c6 45 ef f0	 mov	 BYTE PTR _pMsg$[ebp+3], 240 ; 000000f0H
  0006a	c7 86 88 0e 00
	00 00 00 00 00	 mov	 DWORD PTR [esi+3720], 0
  00074	e8 00 00 00 00	 call	 ?DataSend@@YAHHPAEK@Z	; DataSend
  00079	83 c4 0c	 add	 esp, 12			; 0000000cH
$LN24@DevilSquar:

; 680  : 	}
; 681  : 
; 682  : 	switch ( iItemLevel )

  0007c	8b 45 10	 mov	 eax, DWORD PTR _iItemLevel$[ebp]
  0007f	83 f8 07	 cmp	 eax, 7
  00082	0f 87 73 02 00
	00		 ja	 $LN10@DevilSquar
  00088	ff 24 85 00 00
	00 00		 jmp	 DWORD PTR $LN27@DevilSquar[eax*4]
$LN18@DevilSquar:

; 683  : 	{
; 684  : 		case 0:
; 685  : 			lpObj->ChaosSuccessRate = 60;

  0008f	c7 86 84 0e 00
	00 3c 00 00 00	 mov	 DWORD PTR [esi+3716], 60 ; 0000003cH

; 686  : 			nChaosNeedMoney = 100000;

  00099	bf a0 86 01 00	 mov	 edi, 100000		; 000186a0H

; 687  : 			break;

  0009e	eb 74		 jmp	 SHORT $LN19@DevilSquar
$LN17@DevilSquar:

; 688  : 
; 689  : 		case 1:
; 690  : 			lpObj->ChaosSuccessRate = gDQChaosSuccessRateLevel1;

  000a0	a1 00 00 00 00	 mov	 eax, DWORD PTR ?gDQChaosSuccessRateLevel1@@3HA ; gDQChaosSuccessRateLevel1

; 691  : 			nChaosNeedMoney = 100000;

  000a5	bf a0 86 01 00	 mov	 edi, 100000		; 000186a0H

; 692  : 			break;

  000aa	eb 62		 jmp	 SHORT $LN25@DevilSquar
$LN16@DevilSquar:

; 693  : 
; 694  : 		case 2:
; 695  : 			lpObj->ChaosSuccessRate = gDQChaosSuccessRateLevel2;

  000ac	8b 0d 00 00 00
	00		 mov	 ecx, DWORD PTR ?gDQChaosSuccessRateLevel2@@3HA ; gDQChaosSuccessRateLevel2
  000b2	89 8e 84 0e 00
	00		 mov	 DWORD PTR [esi+3716], ecx

; 696  : 			nChaosNeedMoney = 200000;

  000b8	bf 40 0d 03 00	 mov	 edi, 200000		; 00030d40H

; 697  : 			break;

  000bd	eb 55		 jmp	 SHORT $LN19@DevilSquar
$LN15@DevilSquar:

; 698  : 
; 699  : 		case 3:
; 700  : 			lpObj->ChaosSuccessRate = gDQChaosSuccessRateLevel3;

  000bf	8b 15 00 00 00
	00		 mov	 edx, DWORD PTR ?gDQChaosSuccessRateLevel3@@3HA ; gDQChaosSuccessRateLevel3
  000c5	89 96 84 0e 00
	00		 mov	 DWORD PTR [esi+3716], edx

; 701  : 			nChaosNeedMoney = 400000;

  000cb	bf 80 1a 06 00	 mov	 edi, 400000		; 00061a80H

; 702  : 			break;

  000d0	eb 42		 jmp	 SHORT $LN19@DevilSquar
$LN14@DevilSquar:

; 703  : 
; 704  : 		case 4:
; 705  : 			lpObj->ChaosSuccessRate = gDQChaosSuccessRateLevel4;

  000d2	a1 00 00 00 00	 mov	 eax, DWORD PTR ?gDQChaosSuccessRateLevel4@@3HA ; gDQChaosSuccessRateLevel4

; 706  : 			nChaosNeedMoney = 700000;

  000d7	bf 60 ae 0a 00	 mov	 edi, 700000		; 000aae60H

; 707  : 			break;

  000dc	eb 30		 jmp	 SHORT $LN25@DevilSquar
$LN13@DevilSquar:

; 708  : 
; 709  : 		case 5:
; 710  : 			lpObj->ChaosSuccessRate = gDQChaosSuccessRateLevel5;

  000de	8b 0d 00 00 00
	00		 mov	 ecx, DWORD PTR ?gDQChaosSuccessRateLevel5@@3HA ; gDQChaosSuccessRateLevel5
  000e4	89 8e 84 0e 00
	00		 mov	 DWORD PTR [esi+3716], ecx

; 711  : 			nChaosNeedMoney = 1100000;

  000ea	bf e0 c8 10 00	 mov	 edi, 1100000		; 0010c8e0H

; 712  : 			break;

  000ef	eb 23		 jmp	 SHORT $LN19@DevilSquar
$LN12@DevilSquar:

; 713  : 
; 714  : 		case 6:
; 715  : 			lpObj->ChaosSuccessRate = gDQChaosSuccessRateLevel6;

  000f1	8b 15 00 00 00
	00		 mov	 edx, DWORD PTR ?gDQChaosSuccessRateLevel6@@3HA ; gDQChaosSuccessRateLevel6
  000f7	89 96 84 0e 00
	00		 mov	 DWORD PTR [esi+3716], edx

; 716  : 			nChaosNeedMoney = 1600000;

  000fd	bf 00 6a 18 00	 mov	 edi, 1600000		; 00186a00H

; 717  : 			break;

  00102	eb 10		 jmp	 SHORT $LN19@DevilSquar
$LN11@DevilSquar:

; 718  : 
; 719  : 		case 7: //Master
; 720  : 			lpObj->ChaosSuccessRate = gDQChaosSuccessRateLevel7;

  00104	a1 00 00 00 00	 mov	 eax, DWORD PTR ?gDQChaosSuccessRateLevel7@@3HA ; gDQChaosSuccessRateLevel7

; 721  : 			nChaosNeedMoney = 2000000;

  00109	bf 80 84 1e 00	 mov	 edi, 2000000		; 001e8480H
$LN25@DevilSquar:

; 718  : 
; 719  : 		case 7: //Master
; 720  : 			lpObj->ChaosSuccessRate = gDQChaosSuccessRateLevel7;

  0010e	89 86 84 0e 00
	00		 mov	 DWORD PTR [esi+3716], eax
$LN19@DevilSquar:

; 731  : 			break;
; 732  : 	}
; 733  : 
; 734  : 	int iChaosTaxMoney = (int)((__int64)nChaosNeedMoney * (__int64)g_CastleSiegeSync.GetTaxRateChaos(lpObj->m_Index) / (__int64)100);

  00114	8b 0e		 mov	 ecx, DWORD PTR [esi]
  00116	51		 push	 ecx
  00117	b9 00 00 00 00	 mov	 ecx, OFFSET ?g_CastleSiegeSync@@3VCCastleSiegeSync@@A ; g_CastleSiegeSync
  0011c	e8 00 00 00 00	 call	 ?GetTaxRateChaos@CCastleSiegeSync@@QAEHH@Z ; CCastleSiegeSync::GetTaxRateChaos
  00121	f7 ef		 imul	 edi
  00123	6a 00		 push	 0
  00125	6a 64		 push	 100			; 00000064H
  00127	52		 push	 edx
  00128	50		 push	 eax
  00129	e8 00 00 00 00	 call	 __alldiv
  0012e	8b d8		 mov	 ebx, eax

; 735  : 
; 736  : 	if ( iChaosTaxMoney < 0 )

  00130	85 db		 test	 ebx, ebx
  00132	79 02		 jns	 SHORT $LN9@DevilSquar

; 737  : 	{
; 738  : 		iChaosTaxMoney = 0;

  00134	33 db		 xor	 ebx, ebx
$LN9@DevilSquar:

; 739  : 	}
; 740  : 
; 741  : 	nChaosNeedMoney += iChaosTaxMoney;
; 742  : 
; 743  : 		nChaosNeedMoney += lpObj->m_AddMixMoney;

  00136	8b 96 20 28 00
	00		 mov	 edx, DWORD PTR [esi+10272]
  0013c	03 d3		 add	 edx, ebx
  0013e	03 fa		 add	 edi, edx

; 744  : 
; 745  : 	if ( nChaosNeedMoney < 0 )

  00140	79 02		 jns	 SHORT $LN8@DevilSquar

; 746  : 	{
; 747  : 		nChaosNeedMoney = 0;

  00142	33 ff		 xor	 edi, edi
$LN8@DevilSquar:

; 748  : 	}
; 749  : 
; 750  : 	if ( (lpObj->Money - nChaosNeedMoney) < 0 )

  00144	8b 86 f0 00 00
	00		 mov	 eax, DWORD PTR [esi+240]
  0014a	8b c8		 mov	 ecx, eax
  0014c	2b cf		 sub	 ecx, edi
  0014e	79 38		 jns	 SHORT $LN7@DevilSquar

; 751  : 	{
; 752  : 		LogAddTD("[DevilSquare] [%s][%s] CBMix Not Enough Money [%d] need zen [%d]", lpObj->AccountID, lpObj->Name, lpObj->Money, nChaosNeedMoney);

  00150	57		 push	 edi
  00151	50		 push	 eax
  00152	8d 56 77	 lea	 edx, DWORD PTR [esi+119]
  00155	52		 push	 edx
  00156	8d 46 6c	 lea	 eax, DWORD PTR [esi+108]
  00159	50		 push	 eax
  0015a	68 00 00 00 00	 push	 OFFSET ??_C@_0EB@HHHNMGIM@?$FLDevilSquare?$FN?5?$FL?$CFs?$FN?$FL?$CFs?$FN?5CBMix?5Not@
  0015f	ff 15 00 00 00
	00		 call	 DWORD PTR ?LogAddTD@@3P6AXPADZZA ; LogAddTD

; 753  : 		pMsg.Result = CB_NOT_ENOUGH_ZEN;
; 754  : 		DataSend(aIndex, (LPBYTE)&pMsg, pMsg.h.size);

  00165	0f b6 4d ed	 movzx	 ecx, BYTE PTR _pMsg$[ebp+1]
  00169	8b 45 e8	 mov	 eax, DWORD PTR _aIndex$[ebp]
  0016c	51		 push	 ecx
  0016d	8d 55 ec	 lea	 edx, DWORD PTR _pMsg$[ebp]
  00170	52		 push	 edx
  00171	50		 push	 eax
  00172	c6 45 ef 02	 mov	 BYTE PTR _pMsg$[ebp+3], 2
  00176	e8 00 00 00 00	 call	 ?DataSend@@YAHHPAEK@Z	; DataSend
  0017b	83 c4 20	 add	 esp, 32			; 00000020H

; 755  : 		lpObj->ChaosLock = FALSE;
; 756  : 		return 1;

  0017e	b8 01 00 00 00	 mov	 eax, 1
  00183	e9 9f 01 00 00	 jmp	 $LN26@DevilSquar
$LN7@DevilSquar:

; 757  : 
; 758  : 	}
; 759  : 
; 760  : 	if ( g_CrywolfSync.GetOccupationState() == 0 && g_iCrywolfApplyMvpBenefit )

  00188	b9 00 00 00 00	 mov	 ecx, OFFSET ?g_CrywolfSync@@3VCCrywolfSync@@A ; g_CrywolfSync
  0018d	e8 00 00 00 00	 call	 ?GetOccupationState@CCrywolfSync@@QAEHXZ ; CCrywolfSync::GetOccupationState
  00192	85 c0		 test	 eax, eax
  00194	75 18		 jne	 SHORT $LN6@DevilSquar
  00196	39 05 00 00 00
	00		 cmp	 DWORD PTR ?g_iCrywolfApplyMvpBenefit@@3HA, eax ; g_iCrywolfApplyMvpBenefit
  0019c	74 10		 je	 SHORT $LN6@DevilSquar

; 761  : 	{	
; 762  : 		lpObj->ChaosSuccessRate += g_CrywolfSync.GetPlusChaosRate();

  0019e	b9 00 00 00 00	 mov	 ecx, OFFSET ?g_CrywolfSync@@3VCCrywolfSync@@A ; g_CrywolfSync
  001a3	e8 00 00 00 00	 call	 ?GetPlusChaosRate@CCrywolfSync@@QAEHXZ ; CCrywolfSync::GetPlusChaosRate
  001a8	01 86 84 0e 00
	00		 add	 DWORD PTR [esi+3716], eax
$LN6@DevilSquar:

; 763  : 	}
; 764  : 
; 765  : 	lpObj->ChaosSuccessRate += iCharmOfLuckCount;
; 766  : 
; 767  : 	lpObj->ChaosSuccessRate += lpObj->m_AddMixSuccessRate;

  001ae	8b 8e 24 28 00
	00		 mov	 ecx, DWORD PTR [esi+10276]
  001b4	03 4d e0	 add	 ecx, DWORD PTR _iCharmOfLuckCount$[ebp]
  001b7	01 8e 84 0e 00
	00		 add	 DWORD PTR [esi+3716], ecx

; 768  : 
; 769  : 
; 770  : 	int iRate = rand() % 100;

  001bd	e8 00 00 00 00	 call	 _rand
  001c2	99		 cdq
  001c3	b9 64 00 00 00	 mov	 ecx, 100		; 00000064H
  001c8	f7 f9		 idiv	 ecx

; 771  : 
; 772  : 	if ( bCheckType == TRUE )

  001ca	83 7d 0c 01	 cmp	 DWORD PTR _bCheckType$[ebp], 1
  001ce	75 47		 jne	 SHORT $LN4@DevilSquar

; 773  : 	{
; 774  : 		if ( iRate < lpObj->ChaosSuccessRate )

  001d0	3b 96 84 0e 00
	00		 cmp	 edx, DWORD PTR [esi+3716]
  001d6	7d 3f		 jge	 SHORT $LN4@DevilSquar

; 775  : 		{
; 776  : 			int DevilInv = ITEMGET(14,19);	// Devil Ticket
; 777  : 			ItemSerialCreateSend(lpObj->m_Index, -1, 0, 0, DevilInv, (BYTE)iItemLevel, 0, 0, 0, 0, -1, 0, 0);

  001d8	8b 55 10	 mov	 edx, DWORD PTR _iItemLevel$[ebp]
  001db	6a 00		 push	 0
  001dd	8b 06		 mov	 eax, DWORD PTR [esi]
  001df	6a 00		 push	 0
  001e1	6a ff		 push	 -1
  001e3	6a 00		 push	 0
  001e5	6a 00		 push	 0
  001e7	6a 00		 push	 0
  001e9	6a 00		 push	 0
  001eb	52		 push	 edx
  001ec	68 13 1c 00 00	 push	 7187			; 00001c13H
  001f1	6a 00		 push	 0
  001f3	6a 00		 push	 0
  001f5	68 ff 00 00 00	 push	 255			; 000000ffH
  001fa	50		 push	 eax
  001fb	e8 00 00 00 00	 call	 ?ItemSerialCreateSend@@YAXHEEEHEEEEEHEE@Z ; ItemSerialCreateSend

; 778  : #if(SYSTEM_ACHIEVEMENTS)
; 779  : 			g_Achievements.SuccessChaosMix(lpObj->m_Index);

  00200	8b 0e		 mov	 ecx, DWORD PTR [esi]
  00202	83 c4 34	 add	 esp, 52			; 00000034H
  00205	51		 push	 ecx
  00206	b9 00 00 00 00	 mov	 ecx, OFFSET ?g_Achievements@@3VCAchievements@@A ; g_Achievements
  0020b	e8 00 00 00 00	 call	 ?SuccessChaosMix@CAchievements@@QAEXH@Z ; CAchievements::SuccessChaosMix

; 780  : #endif
; 781  : 			fail = FALSE;

  00210	c7 45 e4 00 00
	00 00		 mov	 DWORD PTR _fail$[ebp], 0
$LN4@DevilSquar:

; 782  : 		}
; 783  : 	}
; 784  : 
; 785  : 	lpObj->Money -= nChaosNeedMoney;

  00217	29 be f0 00 00
	00		 sub	 DWORD PTR [esi+240], edi

; 786  : 	g_CastleSiegeSync.AddTributeMoney(iChaosTaxMoney);

  0021d	53		 push	 ebx
  0021e	b9 00 00 00 00	 mov	 ecx, OFFSET ?g_CastleSiegeSync@@3VCCastleSiegeSync@@A ; g_CastleSiegeSync
  00223	e8 00 00 00 00	 call	 ?AddTributeMoney@CCastleSiegeSync@@QAEXH@Z ; CCastleSiegeSync::AddTributeMoney

; 787  : 	GCMoneySend(lpObj->m_Index, lpObj->Money);

  00228	8b 96 f0 00 00
	00		 mov	 edx, DWORD PTR [esi+240]
  0022e	8b 06		 mov	 eax, DWORD PTR [esi]
  00230	52		 push	 edx
  00231	50		 push	 eax
  00232	e8 00 00 00 00	 call	 ?GCMoneySend@@YAXHK@Z	; GCMoneySend
  00237	83 c4 08	 add	 esp, 8

; 788  : 
; 789  : 	if ( szAuthKey[17] != AUTHKEY17 )

  0023a	80 3d 11 00 00
	00 a6		 cmp	 BYTE PTR ?szAuthKey@@3PADA+17, -90 ; ffffffa6H
  00241	74 05		 je	 SHORT $LN3@DevilSquar

; 790  : 	{
; 791  : 		::DestroyGIocp();

  00243	e8 00 00 00 00	 call	 ?DestroyGIocp@@YAXXZ	; DestroyGIocp
$LN3@DevilSquar:

; 792  : 	}
; 793  : 
; 794  : 	if ( fail == TRUE )

  00248	83 7d e4 01	 cmp	 DWORD PTR _fail$[ebp], 1
  0024c	75 68		 jne	 SHORT $LN2@DevilSquar

; 795  : 	{
; 796  : 		this->ChaosBoxInit(lpObj);

  0024e	8b 4d dc	 mov	 ecx, DWORD PTR _this$[ebp]
  00251	56		 push	 esi
  00252	e8 00 00 00 00	 call	 ?ChaosBoxInit@CMixSystem@@QAEHPAUOBJECTSTRUCT@@@Z ; CMixSystem::ChaosBoxInit

; 797  : 		GCUserChaosBoxSend(lpObj, 0);

  00257	6a 00		 push	 0
  00259	56		 push	 esi
  0025a	e8 00 00 00 00	 call	 ?GCUserChaosBoxSend@@YAXPAUOBJECTSTRUCT@@H@Z ; GCUserChaosBoxSend

; 798  : 		DataSend(aIndex, (LPBYTE)&pMsg, pMsg.h.size);

  0025f	0f b6 4d ed	 movzx	 ecx, BYTE PTR _pMsg$[ebp+1]
  00263	8b 45 e8	 mov	 eax, DWORD PTR _aIndex$[ebp]
  00266	51		 push	 ecx
  00267	8d 55 ec	 lea	 edx, DWORD PTR _pMsg$[ebp]
  0026a	52		 push	 edx
  0026b	50		 push	 eax
  0026c	e8 00 00 00 00	 call	 ?DataSend@@YAHHPAEK@Z	; DataSend

; 799  : #if(SYSTEM_ACHIEVEMENTS)
; 800  : 		g_Achievements.FailedChaosMix(lpObj->m_Index);

  00271	8b 0e		 mov	 ecx, DWORD PTR [esi]
  00273	83 c4 14	 add	 esp, 20			; 00000014H
  00276	51		 push	 ecx
  00277	b9 00 00 00 00	 mov	 ecx, OFFSET ?g_Achievements@@3VCAchievements@@A ; g_Achievements
  0027c	e8 00 00 00 00	 call	 ?FailedChaosMix@CAchievements@@QAEXH@Z ; CAchievements::FailedChaosMix

; 801  : #endif
; 802  : 		LogAddTD("[DevilSquare,%d] [%s][%s] CBMix Fail %d Money : %d-%d", iItemLevel, lpObj->AccountID, lpObj->Name, lpObj->ChaosSuccessRate, lpObj->Money, nChaosNeedMoney);

  00281	8b 96 f0 00 00
	00		 mov	 edx, DWORD PTR [esi+240]
  00287	8b 86 84 0e 00
	00		 mov	 eax, DWORD PTR [esi+3716]
  0028d	57		 push	 edi
  0028e	52		 push	 edx
  0028f	50		 push	 eax
  00290	8b 45 10	 mov	 eax, DWORD PTR _iItemLevel$[ebp]
  00293	8d 4e 77	 lea	 ecx, DWORD PTR [esi+119]
  00296	51		 push	 ecx
  00297	8d 56 6c	 lea	 edx, DWORD PTR [esi+108]
  0029a	52		 push	 edx
  0029b	50		 push	 eax
  0029c	68 00 00 00 00	 push	 OFFSET ??_C@_0DG@KKBIIBFP@?$FLDevilSquare?0?$CFd?$FN?5?$FL?$CFs?$FN?$FL?$CFs?$FN?5CBMix?5@
  002a1	ff 15 00 00 00
	00		 call	 DWORD PTR ?LogAddTD@@3P6AXPADZZA ; LogAddTD
  002a7	83 c4 1c	 add	 esp, 28			; 0000001cH

; 803  : 		lpObj->ChaosLock = FALSE;

  002aa	c7 86 88 0e 00
	00 00 00 00 00	 mov	 DWORD PTR [esi+3720], 0

; 804  : 	}
; 805  : 	else

  002b4	eb 22		 jmp	 SHORT $LN1@DevilSquar
$LN2@DevilSquar:

; 806  : 	{
; 807  : 		LogAddTD("[DevilSquare,%d] [%s][%s] CBMix Success Rate:%d Money : %d", iItemLevel, lpObj->AccountID, lpObj->Name, lpObj->ChaosSuccessRate, nChaosNeedMoney);

  002b6	8b 8e 84 0e 00
	00		 mov	 ecx, DWORD PTR [esi+3716]
  002bc	57		 push	 edi
  002bd	51		 push	 ecx
  002be	8b 4d 10	 mov	 ecx, DWORD PTR _iItemLevel$[ebp]
  002c1	8d 56 77	 lea	 edx, DWORD PTR [esi+119]
  002c4	52		 push	 edx
  002c5	8d 46 6c	 lea	 eax, DWORD PTR [esi+108]
  002c8	50		 push	 eax
  002c9	51		 push	 ecx
  002ca	68 00 00 00 00	 push	 OFFSET ??_C@_0DL@ODHCGDBD@?$FLDevilSquare?0?$CFd?$FN?5?$FL?$CFs?$FN?$FL?$CFs?$FN?5CBMix?5@
  002cf	ff 15 00 00 00
	00		 call	 DWORD PTR ?LogAddTD@@3P6AXPADZZA ; LogAddTD
  002d5	83 c4 18	 add	 esp, 24			; 00000018H
$LN1@DevilSquar:

; 808  : 	}
; 809  : 
; 810  : 	::gObjInventoryCommit(lpObj->m_Index);

  002d8	8b 16		 mov	 edx, DWORD PTR [esi]
  002da	52		 push	 edx
  002db	e8 00 00 00 00	 call	 ?gObjInventoryCommit@@YAHH@Z ; gObjInventoryCommit
  002e0	83 c4 04	 add	 esp, 4
  002e3	5f		 pop	 edi
  002e4	5e		 pop	 esi

; 811  : 
; 812  : 	return TRUE;

  002e5	b8 01 00 00 00	 mov	 eax, 1
  002ea	5b		 pop	 ebx

; 813  : }

  002eb	8b 4d fc	 mov	 ecx, DWORD PTR __$ArrayPad$[ebp]
  002ee	33 cd		 xor	 ecx, ebp
  002f0	e8 00 00 00 00	 call	 @__security_check_cookie@4
  002f5	8b e5		 mov	 esp, ebp
  002f7	5d		 pop	 ebp
  002f8	c2 0c 00	 ret	 12			; 0000000cH
$LN10@DevilSquar:

; 722  : 			break;
; 723  : 
; 724  : 		default:
; 725  : 			LogAdd("[DevilSquare] [%s][%s] Invalid DQItem Level [%d]", lpObj->AccountID, lpObj->Name, iItemLevel);

  002fb	50		 push	 eax
  002fc	8d 46 77	 lea	 eax, DWORD PTR [esi+119]
  002ff	50		 push	 eax
  00300	8d 4e 6c	 lea	 ecx, DWORD PTR [esi+108]
  00303	51		 push	 ecx
  00304	68 00 00 00 00	 push	 OFFSET ??_C@_0DB@BMAIOAHL@?$FLDevilSquare?$FN?5?$FL?$CFs?$FN?$FL?$CFs?$FN?5Invalid?5D@
  00309	ff 15 00 00 00
	00		 call	 DWORD PTR ?LogAdd@@3P6AXPADZZA ; LogAdd

; 726  : 
; 727  : 			pMsg.Result = CB_INVALID_ITEM_LEVEL;
; 728  : 			DataSend(aIndex, (LPBYTE)&pMsg, pMsg.h.size);

  0030f	0f b6 55 ed	 movzx	 edx, BYTE PTR _pMsg$[ebp+1]
  00313	52		 push	 edx
  00314	8d 45 ec	 lea	 eax, DWORD PTR _pMsg$[ebp]
  00317	50		 push	 eax
  00318	57		 push	 edi
  00319	c6 45 ef 08	 mov	 BYTE PTR _pMsg$[ebp+3], 8
  0031d	e8 00 00 00 00	 call	 ?DataSend@@YAHHPAEK@Z	; DataSend
  00322	83 c4 1c	 add	 esp, 28			; 0000001cH

; 729  : 			lpObj->ChaosLock = FALSE;
; 730  : 			return 1;

  00325	8b c3		 mov	 eax, ebx
$LN26@DevilSquar:

; 813  : }

  00327	8b 4d fc	 mov	 ecx, DWORD PTR __$ArrayPad$[ebp]
  0032a	5f		 pop	 edi
  0032b	c7 86 88 0e 00
	00 00 00 00 00	 mov	 DWORD PTR [esi+3720], 0
  00335	5e		 pop	 esi
  00336	33 cd		 xor	 ecx, ebp
  00338	5b		 pop	 ebx
  00339	e8 00 00 00 00	 call	 @__security_check_cookie@4
  0033e	8b e5		 mov	 esp, ebp
  00340	5d		 pop	 ebp
  00341	c2 0c 00	 ret	 12			; 0000000cH
$LN27@DevilSquar:
  00344	00 00 00 00	 DD	 $LN18@DevilSquar
  00348	00 00 00 00	 DD	 $LN17@DevilSquar
  0034c	00 00 00 00	 DD	 $LN16@DevilSquar
  00350	00 00 00 00	 DD	 $LN15@DevilSquar
  00354	00 00 00 00	 DD	 $LN14@DevilSquar
  00358	00 00 00 00	 DD	 $LN13@DevilSquar
  0035c	00 00 00 00	 DD	 $LN12@DevilSquar
  00360	00 00 00 00	 DD	 $LN11@DevilSquar
?DevilSquareEventChaosMix@CMixSystem@@QAEHPAUOBJECTSTRUCT@@HH@Z ENDP ; CMixSystem::DevilSquareEventChaosMix
_TEXT	ENDS
PUBLIC	??_C@_0DA@FMJGNMLI@?$FLDevilSquare?$FN?5Too?5many?5Devil?8s?5K@ ; `string'
PUBLIC	??_C@_0CK@JNMMBAIA@?$FLDevilSquare?$FN?5Charm?5Of?5Luck?5Over@ ; `string'
PUBLIC	??_C@_0CH@NMBMOEEC@?$FLDevilSquare?$FN?5Not?5Found?5Chaos?5Ge@ ; `string'
PUBLIC	??_C@_0DB@DMIHKADD@?$FLDevilSquare?$FN?5DiffLevel?5Devil?8s?5@ ; `string'
PUBLIC	__$ArrayPad$
PUBLIC	?DevilSquareItemChaosMix@CMixSystem@@QAEXPAUOBJECTSTRUCT@@@Z ; CMixSystem::DevilSquareItemChaosMix
EXTRN	?gDevilSquareEvent@@3HA:DWORD			; gDevilSquareEvent
;	COMDAT ??_C@_0DA@FMJGNMLI@?$FLDevilSquare?$FN?5Too?5many?5Devil?8s?5K@
CONST	SEGMENT
??_C@_0DA@FMJGNMLI@?$FLDevilSquare?$FN?5Too?5many?5Devil?8s?5K@ DB '[Devi'
	DB	'lSquare] Too many Devil''s Key or Eyes [%d]', 00H ; `string'
CONST	ENDS
;	COMDAT ??_C@_0CK@JNMMBAIA@?$FLDevilSquare?$FN?5Charm?5Of?5Luck?5Over@
CONST	SEGMENT
??_C@_0CK@JNMMBAIA@?$FLDevilSquare?$FN?5Charm?5Of?5Luck?5Over@ DB '[Devil'
	DB	'Square] Charm Of Luck Over 10% [%d]', 00H	; `string'
CONST	ENDS
;	COMDAT ??_C@_0CH@NMBMOEEC@?$FLDevilSquare?$FN?5Not?5Found?5Chaos?5Ge@
CONST	SEGMENT
??_C@_0CH@NMBMOEEC@?$FLDevilSquare?$FN?5Not?5Found?5Chaos?5Ge@ DB '[Devil'
	DB	'Square] Not Found Chaos Gem [%d]', 00H	; `string'
CONST	ENDS
;	COMDAT ??_C@_0DB@DMIHKADD@?$FLDevilSquare?$FN?5DiffLevel?5Devil?8s?5@
CONST	SEGMENT
??_C@_0DB@DMIHKADD@?$FLDevilSquare?$FN?5DiffLevel?5Devil?8s?5@ DB '[Devil'
	DB	'Square] DiffLevel Devil''s Key or Eyes [%d]', 00H ; `string'
; Function compile flags: /Ogtp
CONST	ENDS
;	COMDAT ?DevilSquareItemChaosMix@CMixSystem@@QAEXPAUOBJECTSTRUCT@@@Z
_TEXT	SEGMENT
_itemlevel$217884 = -32					; size = 4
_this$ = -28						; size = 4
_eventitemcount$217883 = -24				; size = 4
_pMsg$217879 = -20					; size = 16
__$ArrayPad$ = -4					; size = 4
_lpObj$ = 8						; size = 4
?DevilSquareItemChaosMix@CMixSystem@@QAEXPAUOBJECTSTRUCT@@@Z PROC ; CMixSystem::DevilSquareItemChaosMix, COMDAT
; _this$ = ecx

; 816  : {

  00000	55		 push	 ebp
  00001	8b ec		 mov	 ebp, esp
  00003	83 ec 20	 sub	 esp, 32			; 00000020H
  00006	a1 00 00 00 00	 mov	 eax, DWORD PTR ___security_cookie
  0000b	33 c5		 xor	 eax, ebp
  0000d	89 45 fc	 mov	 DWORD PTR __$ArrayPad$[ebp], eax
  00010	53		 push	 ebx
  00011	56		 push	 esi
  00012	8b 75 08	 mov	 esi, DWORD PTR _lpObj$[ebp]

; 817  : 	lpObj->ChaosLock = TRUE;
; 818  : //#if(GS_CASTLE==0)
; 819  : 	if ( gDevilSquareEvent != FALSE )

  00015	33 db		 xor	 ebx, ebx
  00017	c7 86 88 0e 00
	00 01 00 00 00	 mov	 DWORD PTR [esi+3720], 1
  00021	57		 push	 edi
  00022	89 4d e4	 mov	 DWORD PTR _this$[ebp], ecx
  00025	39 1d 00 00 00
	00		 cmp	 DWORD PTR ?gDevilSquareEvent@@3HA, ebx ; gDevilSquareEvent
  0002b	0f 84 35 01 00
	00		 je	 $LN1@DevilSquar@2

; 820  : //#endif
; 821  : 	{
; 822  : 		PMSG_CHAOSMIXRESULT pMsg;
; 823  : 		PHeadSetB((LPBYTE)&pMsg.h, 0x86, sizeof(PMSG_CHAOSMIXRESULT));

  00031	6a 10		 push	 16			; 00000010H
  00033	8d 45 ec	 lea	 eax, DWORD PTR _pMsg$217879[ebp]
  00036	68 86 00 00 00	 push	 134			; 00000086H
  0003b	50		 push	 eax
  0003c	e8 00 00 00 00	 call	 ?PHeadSetB@@YAXPAEEH@Z	; PHeadSetB

; 824  : 		pMsg.Result = CB_ERROR;
; 825  : 		int aIndex = lpObj->m_Index;

  00041	8b 3e		 mov	 edi, DWORD PTR [esi]
  00043	83 c4 0c	 add	 esp, 12			; 0000000cH

; 826  : 		int eventitemcount;
; 827  : 		int itemlevel;
; 828  : 		int Ret = this->CheckDevilSquareItem(lpObj, eventitemcount, itemlevel);

  00046	8d 4d e0	 lea	 ecx, DWORD PTR _itemlevel$217884[ebp]
  00049	51		 push	 ecx
  0004a	8b 4d e4	 mov	 ecx, DWORD PTR _this$[ebp]
  0004d	8d 55 e8	 lea	 edx, DWORD PTR _eventitemcount$217883[ebp]
  00050	52		 push	 edx
  00051	56		 push	 esi
  00052	88 5d ef	 mov	 BYTE PTR _pMsg$217879[ebp+3], bl
  00055	e8 00 00 00 00	 call	 ?CheckDevilSquareItem@CMixSystem@@QAEHPAUOBJECTSTRUCT@@AAH1@Z ; CMixSystem::CheckDevilSquareItem

; 829  : 
; 830  : 		if ( Ret != FALSE )

  0005a	3b c3		 cmp	 eax, ebx
  0005c	0f 84 e8 00 00
	00		 je	 $LN7@DevilSquar@2

; 831  : 		{
; 832  : 			if ( Ret == 3 )

  00062	83 f8 03	 cmp	 eax, 3
  00065	75 2a		 jne	 SHORT $LN6@DevilSquar@2

; 833  : 			{
; 834  : 				pMsg.Result = CB_INCORRECT_MIX_ITEMS;
; 835  : 				DataSend(aIndex, (LPBYTE)&pMsg, pMsg.h.size);

  00067	0f b6 45 ed	 movzx	 eax, BYTE PTR _pMsg$217879[ebp+1]
  0006b	50		 push	 eax
  0006c	8d 4d ec	 lea	 ecx, DWORD PTR _pMsg$217879[ebp]
  0006f	51		 push	 ecx
  00070	57		 push	 edi
  00071	c6 45 ef 07	 mov	 BYTE PTR _pMsg$217879[ebp+3], 7
  00075	e8 00 00 00 00	 call	 ?DataSend@@YAHHPAEK@Z	; DataSend

; 836  : 				LogAdd("[DevilSquare] DiffLevel Devil's Key or Eyes [%d]", eventitemcount);

  0007a	8b 55 e8	 mov	 edx, DWORD PTR _eventitemcount$217883[ebp]
  0007d	52		 push	 edx
  0007e	68 00 00 00 00	 push	 OFFSET ??_C@_0DB@DMIHKADD@?$FLDevilSquare?$FN?5DiffLevel?5Devil?8s?5@
  00083	ff 15 00 00 00
	00		 call	 DWORD PTR ?LogAdd@@3P6AXPADZZA ; LogAdd
  00089	83 c4 14	 add	 esp, 20			; 00000014H

; 837  : 				lpObj->ChaosLock = FALSE;
; 838  : 
; 839  : 				return;

  0008c	e9 d5 00 00 00	 jmp	 $LN1@DevilSquar@2
$LN6@DevilSquar@2:

; 840  : 			}
; 841  : 			
; 842  : 			if ( Ret == 2 )

  00091	83 f8 02	 cmp	 eax, 2
  00094	75 2a		 jne	 SHORT $LN5@DevilSquar@2

; 843  : 			{
; 844  : 				pMsg.Result = CB_INCORRECT_MIX_ITEMS;
; 845  : 				DataSend(aIndex, (LPBYTE)&pMsg, pMsg.h.size);

  00096	0f b6 45 ed	 movzx	 eax, BYTE PTR _pMsg$217879[ebp+1]
  0009a	50		 push	 eax
  0009b	8d 4d ec	 lea	 ecx, DWORD PTR _pMsg$217879[ebp]
  0009e	51		 push	 ecx
  0009f	57		 push	 edi
  000a0	c6 45 ef 07	 mov	 BYTE PTR _pMsg$217879[ebp+3], 7
  000a4	e8 00 00 00 00	 call	 ?DataSend@@YAHHPAEK@Z	; DataSend

; 846  : 				LogAdd("[DevilSquare] Not Found Chaos Gem [%d]", eventitemcount);

  000a9	8b 55 e8	 mov	 edx, DWORD PTR _eventitemcount$217883[ebp]
  000ac	52		 push	 edx
  000ad	68 00 00 00 00	 push	 OFFSET ??_C@_0CH@NMBMOEEC@?$FLDevilSquare?$FN?5Not?5Found?5Chaos?5Ge@
  000b2	ff 15 00 00 00
	00		 call	 DWORD PTR ?LogAdd@@3P6AXPADZZA ; LogAdd
  000b8	83 c4 14	 add	 esp, 20			; 00000014H

; 847  : 				lpObj->ChaosLock = FALSE;
; 848  : 				
; 849  : 				return;

  000bb	e9 a6 00 00 00	 jmp	 $LN1@DevilSquar@2
$LN5@DevilSquar@2:

; 850  : 			}
; 851  : 
; 852  : 			if ( Ret == 4 )

  000c0	83 f8 04	 cmp	 eax, 4
  000c3	75 27		 jne	 SHORT $LN4@DevilSquar@2

; 853  : 			{
; 854  : 				pMsg.Result = 0xF0;
; 855  : 				DataSend(aIndex, (LPBYTE)&pMsg, pMsg.h.size);

  000c5	0f b6 45 ed	 movzx	 eax, BYTE PTR _pMsg$217879[ebp+1]
  000c9	50		 push	 eax
  000ca	8d 4d ec	 lea	 ecx, DWORD PTR _pMsg$217879[ebp]
  000cd	51		 push	 ecx
  000ce	57		 push	 edi
  000cf	c6 45 ef f0	 mov	 BYTE PTR _pMsg$217879[ebp+3], 240 ; 000000f0H
  000d3	e8 00 00 00 00	 call	 ?DataSend@@YAHHPAEK@Z	; DataSend

; 856  : 				LogAdd("[DevilSquare] Charm Of Luck Over 10% [%d]", eventitemcount);

  000d8	8b 55 e8	 mov	 edx, DWORD PTR _eventitemcount$217883[ebp]
  000db	52		 push	 edx
  000dc	68 00 00 00 00	 push	 OFFSET ??_C@_0CK@JNMMBAIA@?$FLDevilSquare?$FN?5Charm?5Of?5Luck?5Over@
  000e1	ff 15 00 00 00
	00		 call	 DWORD PTR ?LogAdd@@3P6AXPADZZA ; LogAdd
  000e7	83 c4 14	 add	 esp, 20			; 00000014H

; 857  : 				lpObj->ChaosLock = FALSE;
; 858  : 				
; 859  : 				return;

  000ea	eb 7a		 jmp	 SHORT $LN1@DevilSquar@2
$LN4@DevilSquar@2:

; 860  : 			}
; 861  : 
; 862  : 			
; 863  : 			if ( eventitemcount > 2 )

  000ec	83 7d e8 02	 cmp	 DWORD PTR _eventitemcount$217883[ebp], 2
  000f0	7e 27		 jle	 SHORT $LN3@DevilSquar@2

; 864  : 			{
; 865  : 				pMsg.Result = CB_TOO_MANY_ITEMS;
; 866  : 				DataSend(aIndex, (LPBYTE)&pMsg, pMsg.h.size);

  000f2	0f b6 45 ed	 movzx	 eax, BYTE PTR _pMsg$217879[ebp+1]
  000f6	50		 push	 eax
  000f7	8d 4d ec	 lea	 ecx, DWORD PTR _pMsg$217879[ebp]
  000fa	51		 push	 ecx
  000fb	57		 push	 edi
  000fc	c6 45 ef 03	 mov	 BYTE PTR _pMsg$217879[ebp+3], 3
  00100	e8 00 00 00 00	 call	 ?DataSend@@YAHHPAEK@Z	; DataSend

; 867  : 				LogAdd("[DevilSquare] Too many Devil's Key or Eyes [%d]", eventitemcount);

  00105	8b 55 e8	 mov	 edx, DWORD PTR _eventitemcount$217883[ebp]
  00108	52		 push	 edx
  00109	68 00 00 00 00	 push	 OFFSET ??_C@_0DA@FMJGNMLI@?$FLDevilSquare?$FN?5Too?5many?5Devil?8s?5K@
  0010e	ff 15 00 00 00
	00		 call	 DWORD PTR ?LogAdd@@3P6AXPADZZA ; LogAdd
  00114	83 c4 14	 add	 esp, 20			; 00000014H

; 868  : 				lpObj->ChaosLock = FALSE;
; 869  : 
; 870  : 				return;

  00117	eb 4d		 jmp	 SHORT $LN1@DevilSquar@2
$LN3@DevilSquar@2:

; 871  : 			}
; 872  : 
; 873  : 			if ( lpObj->Level < 10 )

  00119	66 83 be be 00
	00 00 0a	 cmp	 WORD PTR [esi+190], 10	; 0000000aH
  00121	7d 06		 jge	 SHORT $LN2@DevilSquar@2

; 874  : 			{
; 875  : 				pMsg.Result = CB_LOW_LEVEL_USER;

  00123	c6 45 ef 04	 mov	 BYTE PTR _pMsg$217879[ebp+3], 4

; 876  : 				DataSend(aIndex, (LPBYTE)&pMsg, pMsg.h.size);
; 877  : 				lpObj->ChaosLock = FALSE;
; 878  : 
; 879  : 				return;

  00127	eb 2b		 jmp	 SHORT $LN11@DevilSquar@2
$LN2@DevilSquar@2:

; 880  : 			}
; 881  : 
; 882  : 			this->DevilSquareEventChaosMix(lpObj, Ret, itemlevel);

  00129	8b 55 e0	 mov	 edx, DWORD PTR _itemlevel$217884[ebp]
  0012c	8b 4d e4	 mov	 ecx, DWORD PTR _this$[ebp]
  0012f	52		 push	 edx
  00130	50		 push	 eax
  00131	56		 push	 esi
  00132	e8 00 00 00 00	 call	 ?DevilSquareEventChaosMix@CMixSystem@@QAEHPAUOBJECTSTRUCT@@HH@Z ; CMixSystem::DevilSquareEventChaosMix
  00137	5f		 pop	 edi
  00138	5e		 pop	 esi
  00139	5b		 pop	 ebx

; 890  : 			lpObj->ChaosLock = FALSE;
; 891  : 
; 892  : 			return;
; 893  : 		}
; 894  : 	}
; 895  : 
; 896  : 	lpObj->ChaosLock = FALSE;
; 897  : }

  0013a	8b 4d fc	 mov	 ecx, DWORD PTR __$ArrayPad$[ebp]
  0013d	33 cd		 xor	 ecx, ebp
  0013f	e8 00 00 00 00	 call	 @__security_check_cookie@4
  00144	8b e5		 mov	 esp, ebp
  00146	5d		 pop	 ebp
  00147	c2 04 00	 ret	 4
$LN7@DevilSquar@2:

; 883  : 			return;
; 884  : 		}
; 885  : 		
; 886  : 		if ( eventitemcount > 1 )

  0014a	83 7d e8 01	 cmp	 DWORD PTR _eventitemcount$217883[ebp], 1
  0014e	7e 16		 jle	 SHORT $LN1@DevilSquar@2

; 887  : 		{
; 888  : 			pMsg.Result = CB_LACKING_MIX_ITEMS;

  00150	c6 45 ef 06	 mov	 BYTE PTR _pMsg$217879[ebp+3], 6
$LN11@DevilSquar@2:

; 889  : 			DataSend(aIndex, (LPBYTE)&pMsg, pMsg.h.size);

  00154	0f b6 45 ed	 movzx	 eax, BYTE PTR _pMsg$217879[ebp+1]
  00158	50		 push	 eax
  00159	8d 4d ec	 lea	 ecx, DWORD PTR _pMsg$217879[ebp]
  0015c	51		 push	 ecx
  0015d	57		 push	 edi
  0015e	e8 00 00 00 00	 call	 ?DataSend@@YAHHPAEK@Z	; DataSend
  00163	83 c4 0c	 add	 esp, 12			; 0000000cH
$LN1@DevilSquar@2:

; 890  : 			lpObj->ChaosLock = FALSE;
; 891  : 
; 892  : 			return;
; 893  : 		}
; 894  : 	}
; 895  : 
; 896  : 	lpObj->ChaosLock = FALSE;
; 897  : }

  00166	8b 4d fc	 mov	 ecx, DWORD PTR __$ArrayPad$[ebp]
  00169	5f		 pop	 edi
  0016a	89 9e 88 0e 00
	00		 mov	 DWORD PTR [esi+3720], ebx
  00170	5e		 pop	 esi
  00171	33 cd		 xor	 ecx, ebp
  00173	5b		 pop	 ebx
  00174	e8 00 00 00 00	 call	 @__security_check_cookie@4
  00179	8b e5		 mov	 esp, ebp
  0017b	5d		 pop	 ebp
  0017c	c2 04 00	 ret	 4
?DevilSquareItemChaosMix@CMixSystem@@QAEXPAUOBJECTSTRUCT@@@Z ENDP ; CMixSystem::DevilSquareItemChaosMix
_TEXT	ENDS
PUBLIC	??_C@_0HO@CHNLGIIN@?$FLPlusItemLevel?0?$CFd?$FN?5?$FL?$CFs?$FN?$FL?$CFs?$FN?5CBMi@ ; `string'
PUBLIC	__$ArrayPad$
PUBLIC	?LogPlusItemLevelChaosItem@CMixSystem@@QAEXPAUOBJECTSTRUCT@@H@Z ; CMixSystem::LogPlusItemLevelChaosItem
;	COMDAT ??_C@_0HO@CHNLGIIN@?$FLPlusItemLevel?0?$CFd?$FN?5?$FL?$CFs?$FN?$FL?$CFs?$FN?5CBMi@
CONST	SEGMENT
??_C@_0HO@CHNLGIIN@?$FLPlusItemLevel?0?$CFd?$FN?5?$FL?$CFs?$FN?$FL?$CFs?$FN?5CBMi@ DB '['
	DB	'PlusItemLevel,%d] [%s][%s] CBMix [%d,%s,%d,%d,%d,%d]serial:[%'
	DB	'u][%d] Ex:[%d,%d,%d,%d,%d,%d,%d] Set:[%d] 380Ex:[%d] HO:[%d,%'
	DB	'd]', 00H					; `string'
; Function compile flags: /Ogtp
CONST	ENDS
;	COMDAT ?LogPlusItemLevelChaosItem@CMixSystem@@QAEXPAUOBJECTSTRUCT@@H@Z
_TEXT	SEGMENT
_n$217910 = -20						; size = 4
_iMixLevel$ = -16					; size = 4
_ExOption$ = -12					; size = 8
__$ArrayPad$ = -4					; size = 4
_lpObj$ = 8						; size = 4
_iPlusMixLevel$ = 12					; size = 4
?LogPlusItemLevelChaosItem@CMixSystem@@QAEXPAUOBJECTSTRUCT@@H@Z PROC ; CMixSystem::LogPlusItemLevelChaosItem, COMDAT
; _this$ = ecx

; 900  : {

  00000	55		 push	 ebp
  00001	8b ec		 mov	 ebp, esp
  00003	83 ec 14	 sub	 esp, 20			; 00000014H
  00006	a1 00 00 00 00	 mov	 eax, DWORD PTR ___security_cookie
  0000b	33 c5		 xor	 eax, ebp
  0000d	89 45 fc	 mov	 DWORD PTR __$ArrayPad$[ebp], eax
  00010	53		 push	 ebx
  00011	56		 push	 esi

; 901  : 	int iMixLevel = 0;

  00012	33 db		 xor	 ebx, ebx
  00014	57		 push	 edi
  00015	8b 7d 08	 mov	 edi, DWORD PTR _lpObj$[ebp]
  00018	89 5d f0	 mov	 DWORD PTR _iMixLevel$[ebp], ebx

; 902  : 	BYTE ExOption[MAX_EXOPTION_SIZE];
; 903  : 
; 904  : 	for ( int n=0;n<CHAOS_BOX_SIZE;n++)

  0001b	89 5d ec	 mov	 DWORD PTR _n$217910[ebp], ebx
  0001e	8b ff		 npad	 2
$LL15@LogPlusIte:

; 905  : 	{
; 906  : 		if ( lpObj->pChaosBox[n].IsItem() == TRUE )

  00020	8b 8f 78 0e 00
	00		 mov	 ecx, DWORD PTR [edi+3704]
  00026	03 cb		 add	 ecx, ebx
  00028	e8 00 00 00 00	 call	 ?IsItem@CItem@@QAEHXZ	; CItem::IsItem
  0002d	83 f8 01	 cmp	 eax, 1
  00030	0f 85 20 01 00
	00		 jne	 $LN14@LogPlusIte

; 907  : 		{
; 908  : 			::ItemIsBufExOption(ExOption, &lpObj->pChaosBox[n]);

  00036	8b 87 78 0e 00
	00		 mov	 eax, DWORD PTR [edi+3704]
  0003c	03 c3		 add	 eax, ebx
  0003e	50		 push	 eax
  0003f	8d 4d f4	 lea	 ecx, DWORD PTR _ExOption$[ebp]
  00042	51		 push	 ecx
  00043	e8 00 00 00 00	 call	 ?ItemIsBufExOption@@YAXPAEPAVCItem@@@Z ; ItemIsBufExOption

; 909  : 
; 910  : 			if ( iPlusMixLevel == 3 )

  00048	8b 45 0c	 mov	 eax, DWORD PTR _iPlusMixLevel$[ebp]
  0004b	83 c4 08	 add	 esp, 8
  0004e	83 f8 03	 cmp	 eax, 3
  00051	75 09		 jne	 SHORT $LN11@LogPlusIte

; 911  : 				iMixLevel = 1;

  00053	c7 45 f0 01 00
	00 00		 mov	 DWORD PTR _iMixLevel$[ebp], 1
  0005a	eb 44		 jmp	 SHORT $LN1@LogPlusIte
$LN11@LogPlusIte:

; 912  : 			else if ( iPlusMixLevel == 4 )

  0005c	83 f8 04	 cmp	 eax, 4
  0005f	75 09		 jne	 SHORT $LN9@LogPlusIte

; 913  : 				iMixLevel = 2;

  00061	c7 45 f0 02 00
	00 00		 mov	 DWORD PTR _iMixLevel$[ebp], 2
  00068	eb 36		 jmp	 SHORT $LN1@LogPlusIte
$LN9@LogPlusIte:

; 914  : 			else if ( iPlusMixLevel == 22 )

  0006a	83 f8 16	 cmp	 eax, 22			; 00000016H
  0006d	75 09		 jne	 SHORT $LN7@LogPlusIte

; 915  : 				iMixLevel = 3;

  0006f	c7 45 f0 03 00
	00 00		 mov	 DWORD PTR _iMixLevel$[ebp], 3
  00076	eb 28		 jmp	 SHORT $LN1@LogPlusIte
$LN7@LogPlusIte:

; 916  : 			else if ( iPlusMixLevel == 23 )

  00078	83 f8 17	 cmp	 eax, 23			; 00000017H
  0007b	75 09		 jne	 SHORT $LN5@LogPlusIte

; 917  : 				iMixLevel = 4;

  0007d	c7 45 f0 04 00
	00 00		 mov	 DWORD PTR _iMixLevel$[ebp], 4
  00084	eb 1a		 jmp	 SHORT $LN1@LogPlusIte
$LN5@LogPlusIte:

; 918  : 			else if ( iPlusMixLevel == 49 )	//updated 1.01.00

  00086	83 f8 31	 cmp	 eax, 49			; 00000031H
  00089	75 09		 jne	 SHORT $LN3@LogPlusIte

; 919  : 				iMixLevel = 5;

  0008b	c7 45 f0 05 00
	00 00		 mov	 DWORD PTR _iMixLevel$[ebp], 5
  00092	eb 0c		 jmp	 SHORT $LN1@LogPlusIte
$LN3@LogPlusIte:

; 920  : 			else if ( iPlusMixLevel == 50 )

  00094	83 f8 32	 cmp	 eax, 50			; 00000032H
  00097	75 07		 jne	 SHORT $LN1@LogPlusIte

; 921  : 				iMixLevel = 6;

  00099	c7 45 f0 06 00
	00 00		 mov	 DWORD PTR _iMixLevel$[ebp], 6
$LN1@LogPlusIte:

; 922  : 
; 923  : 			LogAddTD("[PlusItemLevel,%d] [%s][%s] CBMix [%d,%s,%d,%d,%d,%d]serial:[%u][%d] Ex:[%d,%d,%d,%d,%d,%d,%d] Set:[%d] 380Ex:[%d] HO:[%d,%d]", iMixLevel,
; 924  : 				lpObj->AccountID, lpObj->Name, n, lpObj->pChaosBox[n].GetName(), lpObj->pChaosBox[n].m_Level,
; 925  : 				lpObj->pChaosBox[n].m_Option1, lpObj->pChaosBox[n].m_Option2, lpObj->pChaosBox[n].m_Option3, 
; 926  : 				lpObj->pChaosBox[n].m_Number, (int)lpObj->pChaosBox[n].m_Durability, 
; 927  : 				ExOption[0], ExOption[1], ExOption[2], ExOption[3], ExOption[4], ExOption[5], ExOption[6], lpObj->pChaosBox[n].m_SetOption,
; 928  : 				lpObj->pChaosBox[n].m_ItemOptionEx >> 7,
; 929  : 				g_kJewelOfHarmonySystem.GetItemOptionLevel(&lpObj->pChaosBox[n]),
; 930  : 				g_kJewelOfHarmonySystem.GetItemStrengthenOption(&lpObj->pChaosBox[n]));

  000a0	8b 97 78 0e 00
	00		 mov	 edx, DWORD PTR [edi+3704]
  000a6	8d 34 13	 lea	 esi, DWORD PTR [ebx+edx]
  000a9	03 d3		 add	 edx, ebx
  000ab	52		 push	 edx
  000ac	b9 00 00 00 00	 mov	 ecx, OFFSET ?g_kJewelOfHarmonySystem@@3VCJewelOfHarmonySystem@@A ; g_kJewelOfHarmonySystem
  000b1	e8 00 00 00 00	 call	 ?GetItemStrengthenOption@CJewelOfHarmonySystem@@QAEEPAVCItem@@@Z ; CJewelOfHarmonySystem::GetItemStrengthenOption
  000b6	8b 97 78 0e 00
	00		 mov	 edx, DWORD PTR [edi+3704]
  000bc	0f b6 c8	 movzx	 ecx, al
  000bf	51		 push	 ecx
  000c0	03 d3		 add	 edx, ebx
  000c2	52		 push	 edx
  000c3	b9 00 00 00 00	 mov	 ecx, OFFSET ?g_kJewelOfHarmonySystem@@3VCJewelOfHarmonySystem@@A ; g_kJewelOfHarmonySystem
  000c8	e8 00 00 00 00	 call	 ?GetItemOptionLevel@CJewelOfHarmonySystem@@QAEEPAVCItem@@@Z ; CJewelOfHarmonySystem::GetItemOptionLevel
  000cd	0f b6 8e ca 00
	00 00		 movzx	 ecx, BYTE PTR [esi+202]
  000d4	d9 46 24	 fld	 DWORD PTR [esi+36]
  000d7	0f b6 96 ae 00
	00 00		 movzx	 edx, BYTE PTR [esi+174]
  000de	0f b6 c0	 movzx	 eax, al
  000e1	50		 push	 eax
  000e2	0f b6 45 fa	 movzx	 eax, BYTE PTR _ExOption$[ebp+6]
  000e6	c1 e9 07	 shr	 ecx, 7
  000e9	51		 push	 ecx
  000ea	0f b6 4d f9	 movzx	 ecx, BYTE PTR _ExOption$[ebp+5]
  000ee	52		 push	 edx
  000ef	0f b6 55 f8	 movzx	 edx, BYTE PTR _ExOption$[ebp+4]
  000f3	50		 push	 eax
  000f4	0f b6 45 f7	 movzx	 eax, BYTE PTR _ExOption$[ebp+3]
  000f8	51		 push	 ecx
  000f9	0f b6 4d f6	 movzx	 ecx, BYTE PTR _ExOption$[ebp+2]
  000fd	52		 push	 edx
  000fe	0f b6 55 f5	 movzx	 edx, BYTE PTR _ExOption$[ebp+1]
  00102	50		 push	 eax
  00103	0f b6 45 f4	 movzx	 eax, BYTE PTR _ExOption$[ebp]
  00107	51		 push	 ecx
  00108	52		 push	 edx
  00109	50		 push	 eax
  0010a	e8 00 00 00 00	 call	 __ftol2_sse
  0010f	8b 0e		 mov	 ecx, DWORD PTR [esi]
  00111	0f b6 96 96 00
	00 00		 movzx	 edx, BYTE PTR [esi+150]
  00118	50		 push	 eax
  00119	0f b6 86 95 00
	00 00		 movzx	 eax, BYTE PTR [esi+149]
  00120	51		 push	 ecx
  00121	0f b6 8e 94 00
	00 00		 movzx	 ecx, BYTE PTR [esi+148]
  00128	52		 push	 edx
  00129	0f bf 56 08	 movsx	 edx, WORD PTR [esi+8]
  0012d	50		 push	 eax
  0012e	51		 push	 ecx
  0012f	52		 push	 edx
  00130	8b ce		 mov	 ecx, esi
  00132	e8 00 00 00 00	 call	 ?GetName@CItem@@QAEPADXZ ; CItem::GetName
  00137	50		 push	 eax
  00138	8b 45 ec	 mov	 eax, DWORD PTR _n$217910[ebp]
  0013b	50		 push	 eax
  0013c	8b 45 f0	 mov	 eax, DWORD PTR _iMixLevel$[ebp]
  0013f	8d 4f 77	 lea	 ecx, DWORD PTR [edi+119]
  00142	51		 push	 ecx
  00143	8d 57 6c	 lea	 edx, DWORD PTR [edi+108]
  00146	52		 push	 edx
  00147	50		 push	 eax
  00148	68 00 00 00 00	 push	 OFFSET ??_C@_0HO@CHNLGIIN@?$FLPlusItemLevel?0?$CFd?$FN?5?$FL?$CFs?$FN?$FL?$CFs?$FN?5CBMi@
  0014d	ff 15 00 00 00
	00		 call	 DWORD PTR ?LogAddTD@@3P6AXPADZZA ; LogAddTD
  00153	83 c4 5c	 add	 esp, 92			; 0000005cH
$LN14@LogPlusIte:

; 902  : 	BYTE ExOption[MAX_EXOPTION_SIZE];
; 903  : 
; 904  : 	for ( int n=0;n<CHAOS_BOX_SIZE;n++)

  00156	ff 45 ec	 inc	 DWORD PTR _n$217910[ebp]
  00159	81 c3 d4 00 00
	00		 add	 ebx, 212		; 000000d4H
  0015f	81 fb 80 1a 00
	00		 cmp	 ebx, 6784		; 00001a80H
  00165	0f 8c b5 fe ff
	ff		 jl	 $LL15@LogPlusIte

; 931  : 		}
; 932  : 	}
; 933  : }

  0016b	8b 4d fc	 mov	 ecx, DWORD PTR __$ArrayPad$[ebp]
  0016e	5f		 pop	 edi
  0016f	5e		 pop	 esi
  00170	33 cd		 xor	 ecx, ebp
  00172	5b		 pop	 ebx
  00173	e8 00 00 00 00	 call	 @__security_check_cookie@4
  00178	8b e5		 mov	 esp, ebp
  0017a	5d		 pop	 ebp
  0017b	c2 08 00	 ret	 8
?LogPlusItemLevelChaosItem@CMixSystem@@QAEXPAUOBJECTSTRUCT@@H@Z ENDP ; CMixSystem::LogPlusItemLevelChaosItem
_TEXT	ENDS
PUBLIC	??_C@_0IF@FONACAKJ@?$FL?$CFs?$FN?5?$FL?$CFs?$FN?$FL?$CFs?$FN?5CBMix?5?$FL?$CFd?0?$CFs?0?$CFd?0?$CFd@ ; `string'
PUBLIC	_sLogType$GSCopy$
PUBLIC	__$ArrayPad$
PUBLIC	?LogChaosItem@CMixSystem@@QAEXPAUOBJECTSTRUCT@@PAD@Z ; CMixSystem::LogChaosItem
;	COMDAT ??_C@_0IF@FONACAKJ@?$FL?$CFs?$FN?5?$FL?$CFs?$FN?$FL?$CFs?$FN?5CBMix?5?$FL?$CFd?0?$CFs?0?$CFd?0?$CFd@
CONST	SEGMENT
??_C@_0IF@FONACAKJ@?$FL?$CFs?$FN?5?$FL?$CFs?$FN?$FL?$CFs?$FN?5CBMix?5?$FL?$CFd?0?$CFs?0?$CFd?0?$CFd@ DB '['
	DB	'%s] [%s][%s] CBMix [%d,%s,%d,%d,%d,%d]serial:[%u][%d] Ex:[%d,'
	DB	'%d,%d,%d,%d,%d,%d] Set:[%d] 380:[%d] HO:[%d,%d] Socket[%d,%d,'
	DB	'%d,%d,%d]', 00H				; `string'
; Function compile flags: /Ogtp
CONST	ENDS
;	COMDAT ?LogChaosItem@CMixSystem@@QAEXPAUOBJECTSTRUCT@@PAD@Z
_TEXT	SEGMENT
_sLogType$GSCopy$ = -20					; size = 4
_n$217934 = -16						; size = 4
_ExOption$ = -12					; size = 8
__$ArrayPad$ = -4					; size = 4
_lpObj$ = 8						; size = 4
_sLogType$ = 12						; size = 4
?LogChaosItem@CMixSystem@@QAEXPAUOBJECTSTRUCT@@PAD@Z PROC ; CMixSystem::LogChaosItem, COMDAT
; _this$ = ecx

; 936  : {

  00000	55		 push	 ebp
  00001	8b ec		 mov	 ebp, esp
  00003	83 ec 14	 sub	 esp, 20			; 00000014H
  00006	a1 00 00 00 00	 mov	 eax, DWORD PTR ___security_cookie
  0000b	33 c5		 xor	 eax, ebp
  0000d	89 45 fc	 mov	 DWORD PTR __$ArrayPad$[ebp], eax
  00010	8b 45 0c	 mov	 eax, DWORD PTR _sLogType$[ebp]
  00013	53		 push	 ebx
  00014	56		 push	 esi

; 937  : 	BYTE ExOption[MAX_EXOPTION_SIZE];
; 938  : 
; 939  : 	for ( int n=0;n<CHAOS_BOX_SIZE;n++)

  00015	33 db		 xor	 ebx, ebx
  00017	57		 push	 edi
  00018	8b 7d 08	 mov	 edi, DWORD PTR _lpObj$[ebp]
  0001b	89 45 ec	 mov	 DWORD PTR _sLogType$GSCopy$[ebp], eax
  0001e	89 5d f0	 mov	 DWORD PTR _n$217934[ebp], ebx
$LL4@LogChaosIt:

; 940  : 	{
; 941  : 		if ( lpObj->pChaosBox[n].IsItem() == TRUE )

  00021	8b 8f 78 0e 00
	00		 mov	 ecx, DWORD PTR [edi+3704]
  00027	03 cb		 add	 ecx, ebx
  00029	e8 00 00 00 00	 call	 ?IsItem@CItem@@QAEHXZ	; CItem::IsItem
  0002e	83 f8 01	 cmp	 eax, 1
  00031	0f 85 fa 00 00
	00		 jne	 $LN3@LogChaosIt

; 942  : 		{
; 943  : 			::ItemIsBufExOption(ExOption, &lpObj->pChaosBox[n]);

  00037	8b 8f 78 0e 00
	00		 mov	 ecx, DWORD PTR [edi+3704]
  0003d	03 cb		 add	 ecx, ebx
  0003f	51		 push	 ecx
  00040	8d 55 f4	 lea	 edx, DWORD PTR _ExOption$[ebp]
  00043	52		 push	 edx
  00044	e8 00 00 00 00	 call	 ?ItemIsBufExOption@@YAXPAEPAVCItem@@@Z ; ItemIsBufExOption

; 944  : 
; 945  : 			LogAddTD("[%s] [%s][%s] CBMix [%d,%s,%d,%d,%d,%d]serial:[%u][%d] Ex:[%d,%d,%d,%d,%d,%d,%d] Set:[%d] 380:[%d] HO:[%d,%d] Socket[%d,%d,%d,%d,%d]",
; 946  : 				sLogType, lpObj->AccountID, lpObj->Name, n, lpObj->pChaosBox[n].GetName(), lpObj->pChaosBox[n].m_Level,
; 947  : 				lpObj->pChaosBox[n].m_Option1, lpObj->pChaosBox[n].m_Option2, lpObj->pChaosBox[n].m_Option3, 
; 948  : 				lpObj->pChaosBox[n].m_Number, (int)lpObj->pChaosBox[n].m_Durability, 
; 949  : 				ExOption[0], ExOption[1], ExOption[2], ExOption[3], ExOption[4], ExOption[5], ExOption[6], lpObj->pChaosBox[n].m_SetOption,
; 950  : 				lpObj->pChaosBox[n].m_ItemOptionEx >> 7,
; 951  : 				g_kJewelOfHarmonySystem.GetItemStrengthenOption(&lpObj->pChaosBox[n]),
; 952  : 				g_kJewelOfHarmonySystem.GetItemOptionLevel(&lpObj->pChaosBox[n]),
; 953  : 				//season4 add-on
; 954  : 				lpObj->pChaosBox[n].m_SocketOption[0],
; 955  : 				lpObj->pChaosBox[n].m_SocketOption[1],
; 956  : 				lpObj->pChaosBox[n].m_SocketOption[2],
; 957  : 				lpObj->pChaosBox[n].m_SocketOption[3],
; 958  : 				lpObj->pChaosBox[n].m_SocketOption[4]);

  00049	8b 87 78 0e 00
	00		 mov	 eax, DWORD PTR [edi+3704]
  0004f	8b 8f 78 0e 00
	00		 mov	 ecx, DWORD PTR [edi+3704]
  00055	0f b6 94 18 d0
	00 00 00	 movzx	 edx, BYTE PTR [eax+ebx+208]
  0005d	03 c3		 add	 eax, ebx
  0005f	83 c4 08	 add	 esp, 8
  00062	52		 push	 edx
  00063	0f b6 90 ce 00
	00 00		 movzx	 edx, BYTE PTR [eax+206]
  0006a	8d 34 0b	 lea	 esi, DWORD PTR [ebx+ecx]
  0006d	0f b6 88 cf 00
	00 00		 movzx	 ecx, BYTE PTR [eax+207]
  00074	51		 push	 ecx
  00075	0f b6 88 cd 00
	00 00		 movzx	 ecx, BYTE PTR [eax+205]
  0007c	52		 push	 edx
  0007d	0f b6 90 cc 00
	00 00		 movzx	 edx, BYTE PTR [eax+204]
  00084	51		 push	 ecx
  00085	52		 push	 edx
  00086	50		 push	 eax
  00087	b9 00 00 00 00	 mov	 ecx, OFFSET ?g_kJewelOfHarmonySystem@@3VCJewelOfHarmonySystem@@A ; g_kJewelOfHarmonySystem
  0008c	e8 00 00 00 00	 call	 ?GetItemOptionLevel@CJewelOfHarmonySystem@@QAEEPAVCItem@@@Z ; CJewelOfHarmonySystem::GetItemOptionLevel
  00091	8b 8f 78 0e 00
	00		 mov	 ecx, DWORD PTR [edi+3704]
  00097	0f b6 c0	 movzx	 eax, al
  0009a	03 cb		 add	 ecx, ebx
  0009c	50		 push	 eax
  0009d	51		 push	 ecx
  0009e	b9 00 00 00 00	 mov	 ecx, OFFSET ?g_kJewelOfHarmonySystem@@3VCJewelOfHarmonySystem@@A ; g_kJewelOfHarmonySystem
  000a3	e8 00 00 00 00	 call	 ?GetItemStrengthenOption@CJewelOfHarmonySystem@@QAEEPAVCItem@@@Z ; CJewelOfHarmonySystem::GetItemStrengthenOption
  000a8	0f b6 8e ae 00
	00 00		 movzx	 ecx, BYTE PTR [esi+174]
  000af	d9 46 24	 fld	 DWORD PTR [esi+36]
  000b2	0f b6 d0	 movzx	 edx, al
  000b5	0f b6 86 ca 00
	00 00		 movzx	 eax, BYTE PTR [esi+202]
  000bc	52		 push	 edx
  000bd	0f b6 55 fa	 movzx	 edx, BYTE PTR _ExOption$[ebp+6]
  000c1	c1 e8 07	 shr	 eax, 7
  000c4	50		 push	 eax
  000c5	0f b6 45 f9	 movzx	 eax, BYTE PTR _ExOption$[ebp+5]
  000c9	51		 push	 ecx
  000ca	0f b6 4d f8	 movzx	 ecx, BYTE PTR _ExOption$[ebp+4]
  000ce	52		 push	 edx
  000cf	0f b6 55 f7	 movzx	 edx, BYTE PTR _ExOption$[ebp+3]
  000d3	50		 push	 eax
  000d4	0f b6 45 f6	 movzx	 eax, BYTE PTR _ExOption$[ebp+2]
  000d8	51		 push	 ecx
  000d9	0f b6 4d f5	 movzx	 ecx, BYTE PTR _ExOption$[ebp+1]
  000dd	52		 push	 edx
  000de	0f b6 55 f4	 movzx	 edx, BYTE PTR _ExOption$[ebp]
  000e2	50		 push	 eax
  000e3	51		 push	 ecx
  000e4	52		 push	 edx
  000e5	e8 00 00 00 00	 call	 __ftol2_sse
  000ea	0f b6 8e 96 00
	00 00		 movzx	 ecx, BYTE PTR [esi+150]
  000f1	0f b6 96 95 00
	00 00		 movzx	 edx, BYTE PTR [esi+149]
  000f8	50		 push	 eax
  000f9	8b 06		 mov	 eax, DWORD PTR [esi]
  000fb	50		 push	 eax
  000fc	0f b6 86 94 00
	00 00		 movzx	 eax, BYTE PTR [esi+148]
  00103	51		 push	 ecx
  00104	0f bf 4e 08	 movsx	 ecx, WORD PTR [esi+8]
  00108	52		 push	 edx
  00109	50		 push	 eax
  0010a	51		 push	 ecx
  0010b	8b ce		 mov	 ecx, esi
  0010d	e8 00 00 00 00	 call	 ?GetName@CItem@@QAEPADXZ ; CItem::GetName
  00112	8b 55 f0	 mov	 edx, DWORD PTR _n$217934[ebp]
  00115	50		 push	 eax
  00116	52		 push	 edx
  00117	8b 55 ec	 mov	 edx, DWORD PTR _sLogType$GSCopy$[ebp]
  0011a	8d 47 77	 lea	 eax, DWORD PTR [edi+119]
  0011d	50		 push	 eax
  0011e	8d 4f 6c	 lea	 ecx, DWORD PTR [edi+108]
  00121	51		 push	 ecx
  00122	52		 push	 edx
  00123	68 00 00 00 00	 push	 OFFSET ??_C@_0IF@FONACAKJ@?$FL?$CFs?$FN?5?$FL?$CFs?$FN?$FL?$CFs?$FN?5CBMix?5?$FL?$CFd?0?$CFs?0?$CFd?0?$CFd@
  00128	ff 15 00 00 00
	00		 call	 DWORD PTR ?LogAddTD@@3P6AXPADZZA ; LogAddTD
  0012e	83 c4 70	 add	 esp, 112		; 00000070H
$LN3@LogChaosIt:

; 937  : 	BYTE ExOption[MAX_EXOPTION_SIZE];
; 938  : 
; 939  : 	for ( int n=0;n<CHAOS_BOX_SIZE;n++)

  00131	ff 45 f0	 inc	 DWORD PTR _n$217934[ebp]
  00134	81 c3 d4 00 00
	00		 add	 ebx, 212		; 000000d4H
  0013a	81 fb 80 1a 00
	00		 cmp	 ebx, 6784		; 00001a80H
  00140	0f 8c db fe ff
	ff		 jl	 $LL4@LogChaosIt

; 959  : 		}
; 960  : 	}
; 961  : }

  00146	8b 4d fc	 mov	 ecx, DWORD PTR __$ArrayPad$[ebp]
  00149	5f		 pop	 edi
  0014a	5e		 pop	 esi
  0014b	33 cd		 xor	 ecx, ebp
  0014d	5b		 pop	 ebx
  0014e	e8 00 00 00 00	 call	 @__security_check_cookie@4
  00153	8b e5		 mov	 esp, ebp
  00155	5d		 pop	 ebp
  00156	c2 08 00	 ret	 8
?LogChaosItem@CMixSystem@@QAEXPAUOBJECTSTRUCT@@PAD@Z ENDP ; CMixSystem::LogChaosItem
_TEXT	ENDS
PUBLIC	?IsMixPossibleItem@CMixSystem@@QAEHH@Z		; CMixSystem::IsMixPossibleItem
; Function compile flags: /Ogtp
;	COMDAT ?IsMixPossibleItem@CMixSystem@@QAEHH@Z
_TEXT	SEGMENT
_iItemCode$ = 8						; size = 4
?IsMixPossibleItem@CMixSystem@@QAEHH@Z PROC		; CMixSystem::IsMixPossibleItem, COMDAT
; _this$ = ecx

; 1458 : {

  00000	55		 push	 ebp
  00001	8b ec		 mov	 ebp, esp

; 1459 : 	switch(iItemCode)

  00003	8b 45 08	 mov	 eax, DWORD PTR _iItemCode$[ebp]
  00006	3d 35 1c 00 00	 cmp	 eax, 7221		; 00001c35H
  0000b	7f 20		 jg	 SHORT $LN6@IsMixPossi
  0000d	74 15		 je	 SHORT $LN1@IsMixPossi
  0000f	3d 0f 18 00 00	 cmp	 eax, 6159		; 0000180fH
  00014	74 0e		 je	 SHORT $LN1@IsMixPossi
  00016	3d 0c 1c 00 00	 cmp	 eax, 7180		; 00001c0cH
  0001b	7e 17		 jle	 SHORT $LN2@IsMixPossi
  0001d	3d 0e 1c 00 00	 cmp	 eax, 7182		; 00001c0eH
  00022	7f 10		 jg	 SHORT $LN2@IsMixPossi
$LN1@IsMixPossi:

; 1460 : 	{
; 1461 : 	case ITEMGET(14,53):
; 1462 : 	case ITEMGET(12,15):
; 1463 : 	case ITEMGET(14,13):
; 1464 : 	case ITEMGET(14,14):
; 1465 : 	case ITEMGET(14,96):
; 1466 : 		return TRUE;

  00024	b8 01 00 00 00	 mov	 eax, 1

; 1470 : }

  00029	5d		 pop	 ebp
  0002a	c2 04 00	 ret	 4
$LN6@IsMixPossi:

; 1459 : 	switch(iItemCode)

  0002d	3d 60 1c 00 00	 cmp	 eax, 7264		; 00001c60H
  00032	74 f0		 je	 SHORT $LN1@IsMixPossi
$LN2@IsMixPossi:

; 1467 : 	}
; 1468 : 
; 1469 : 	return FALSE;

  00034	33 c0		 xor	 eax, eax

; 1470 : }

  00036	5d		 pop	 ebp
  00037	c2 04 00	 ret	 4
?IsMixPossibleItem@CMixSystem@@QAEHH@Z ENDP		; CMixSystem::IsMixPossibleItem
_TEXT	ENDS
PUBLIC	??_C@_0ED@JKKAJEKA@?$FLDinorantMix?$FN?5?$FL?$CFs?$FN?$FL?$CFs?$FN?5CBMix?5Fai@ ; `string'
PUBLIC	??_C@_0EG@BMPMHKIC@?$FLDinorantMix?$FN?5?$FL?$CFs?$FN?$FL?$CFs?$FN?5CBMix?5Suc@ ; `string'
PUBLIC	??_C@_0BO@BKFHPCAO@?$FLDinorantMix?$FN?5Chaos?5Mix?5Start?$AA@ ; `string'
PUBLIC	??_C@_0M@OEKEBNDM@DinorantMix?$AA@		; `string'
PUBLIC	__real@406fe00000000000
PUBLIC	__$ArrayPad$
PUBLIC	?PegasiaChaosMix@CMixSystem@@QAEHPAUOBJECTSTRUCT@@@Z ; CMixSystem::PegasiaChaosMix
EXTRN	__allmul:PROC
;	COMDAT ??_C@_0ED@JKKAJEKA@?$FLDinorantMix?$FN?5?$FL?$CFs?$FN?$FL?$CFs?$FN?5CBMix?5Fai@
CONST	SEGMENT
??_C@_0ED@JKKAJEKA@?$FLDinorantMix?$FN?5?$FL?$CFs?$FN?$FL?$CFs?$FN?5CBMix?5Fai@ DB '['
	DB	'DinorantMix] [%s][%s] CBMix Fail %d Money : %d-%d, CharmRate '
	DB	': %d', 00H					; `string'
CONST	ENDS
;	COMDAT ??_C@_0EG@BMPMHKIC@?$FLDinorantMix?$FN?5?$FL?$CFs?$FN?$FL?$CFs?$FN?5CBMix?5Suc@
CONST	SEGMENT
??_C@_0EG@BMPMHKIC@?$FLDinorantMix?$FN?5?$FL?$CFs?$FN?$FL?$CFs?$FN?5CBMix?5Suc@ DB '['
	DB	'DinorantMix] [%s][%s] CBMix Success %d Money : %d-%d, CharmRa'
	DB	'te : %d', 00H				; `string'
CONST	ENDS
;	COMDAT ??_C@_0BO@BKFHPCAO@?$FLDinorantMix?$FN?5Chaos?5Mix?5Start?$AA@
CONST	SEGMENT
??_C@_0BO@BKFHPCAO@?$FLDinorantMix?$FN?5Chaos?5Mix?5Start?$AA@ DB '[Dinor'
	DB	'antMix] Chaos Mix Start', 00H		; `string'
CONST	ENDS
;	COMDAT ??_C@_0M@OEKEBNDM@DinorantMix?$AA@
CONST	SEGMENT
??_C@_0M@OEKEBNDM@DinorantMix?$AA@ DB 'DinorantMix', 00H ; `string'
CONST	ENDS
;	COMDAT __real@406fe00000000000
CONST	SEGMENT
__real@406fe00000000000 DQ 0406fe00000000000r	; 255
; Function compile flags: /Ogtp
CONST	ENDS
;	COMDAT ?PegasiaChaosMix@CMixSystem@@QAEHPAUOBJECTSTRUCT@@@Z
_TEXT	SEGMENT
_this$ = -36						; size = 4
_UniriaCount$ = -32					; size = 4
_ChoasGemCount$ = -28					; size = 4
_iCharmOfLuckCount$ = -24				; size = 4
_pMsg$ = -20						; size = 16
__$ArrayPad$ = -4					; size = 4
_lpObj$ = 8						; size = 4
?PegasiaChaosMix@CMixSystem@@QAEHPAUOBJECTSTRUCT@@@Z PROC ; CMixSystem::PegasiaChaosMix, COMDAT
; _this$ = ecx

; 1474 : {

  00000	55		 push	 ebp
  00001	8b ec		 mov	 ebp, esp
  00003	83 ec 24	 sub	 esp, 36			; 00000024H
  00006	a1 00 00 00 00	 mov	 eax, DWORD PTR ___security_cookie
  0000b	33 c5		 xor	 eax, ebp
  0000d	89 45 fc	 mov	 DWORD PTR __$ArrayPad$[ebp], eax
  00010	53		 push	 ebx
  00011	56		 push	 esi
  00012	8b 75 08	 mov	 esi, DWORD PTR _lpObj$[ebp]
  00015	57		 push	 edi

; 1475 : 	lpObj->ChaosLock = TRUE;
; 1476 : 	int UniriaCount = 0;

  00016	33 ff		 xor	 edi, edi
  00018	89 4d dc	 mov	 DWORD PTR _this$[ebp], ecx
  0001b	c7 86 88 0e 00
	00 01 00 00 00	 mov	 DWORD PTR [esi+3720], 1
  00025	89 7d e0	 mov	 DWORD PTR _UniriaCount$[ebp], edi

; 1477 : 	int ChoasGemCount = 0;

  00028	89 7d e4	 mov	 DWORD PTR _ChoasGemCount$[ebp], edi

; 1478 : 	int iCharmOfLuckCount = 0;

  0002b	33 db		 xor	 ebx, ebx
  0002d	8d 49 00	 npad	 3
$LL19@PegasiaCha:

; 1481 : 	{
; 1482 : 		if ( lpObj->pChaosBox[n].IsItem() == TRUE )

  00030	8b 8e 78 0e 00
	00		 mov	 ecx, DWORD PTR [esi+3704]
  00036	03 cf		 add	 ecx, edi
  00038	e8 00 00 00 00	 call	 ?IsItem@CItem@@QAEHXZ	; CItem::IsItem
  0003d	83 f8 01	 cmp	 eax, 1
  00040	75 51		 jne	 SHORT $LN18@PegasiaCha

; 1483 : 		{
; 1484 : 			if ( lpObj->pChaosBox[n].m_Type == ITEMGET(13,2) && lpObj->pChaosBox[n].m_Durability == 255.0f )	// Uniria

  00042	8b 96 78 0e 00
	00		 mov	 edx, DWORD PTR [esi+3704]
  00048	0f b7 4c 3a 06	 movzx	 ecx, WORD PTR [edx+edi+6]
  0004d	b8 02 1a 00 00	 mov	 eax, 6658		; 00001a02H
  00052	66 3b c8	 cmp	 cx, ax
  00055	75 18		 jne	 SHORT $LN15@PegasiaCha
  00057	d9 44 3a 24	 fld	 DWORD PTR [edx+edi+36]
  0005b	dd 05 00 00 00
	00		 fld	 QWORD PTR __real@406fe00000000000
  00061	da e9		 fucompp
  00063	df e0		 fnstsw	 ax
  00065	f6 c4 44	 test	 ah, 68			; 00000044H
  00068	7a 05		 jp	 SHORT $LN15@PegasiaCha

; 1485 : 			{
; 1486 : 				UniriaCount++;

  0006a	ff 45 e0	 inc	 DWORD PTR _UniriaCount$[ebp]
  0006d	eb 24		 jmp	 SHORT $LN18@PegasiaCha
$LN15@PegasiaCha:

; 1487 : 			}
; 1488 : 			else if ( lpObj->pChaosBox[n].m_Type == ITEMGET(12,15) ) // Chaos Gem

  0006f	b8 0f 18 00 00	 mov	 eax, 6159		; 0000180fH
  00074	66 3b c8	 cmp	 cx, ax
  00077	75 05		 jne	 SHORT $LN13@PegasiaCha

; 1489 : 			{
; 1490 : 				ChoasGemCount++;

  00079	ff 45 e4	 inc	 DWORD PTR _ChoasGemCount$[ebp]
  0007c	eb 15		 jmp	 SHORT $LN18@PegasiaCha
$LN13@PegasiaCha:

; 1491 : 			}
; 1492 : 			else if ( lpObj->pChaosBox[n].m_Type == ITEMGET(14,53) )	// Charm Of Luck

  0007e	b8 35 1c 00 00	 mov	 eax, 7221		; 00001c35H
  00083	66 3b c8	 cmp	 cx, ax
  00086	75 0b		 jne	 SHORT $LN18@PegasiaCha

; 1493 : 			{
; 1494 : 				iCharmOfLuckCount += (int)lpObj->pChaosBox[n].m_Durability;

  00088	d9 44 3a 24	 fld	 DWORD PTR [edx+edi+36]
  0008c	e8 00 00 00 00	 call	 __ftol2_sse
  00091	03 d8		 add	 ebx, eax
$LN18@PegasiaCha:

; 1479 : 
; 1480 : 	for ( int n=0;n<CHAOS_BOX_SIZE;n++)

  00093	81 c7 d4 00 00
	00		 add	 edi, 212		; 000000d4H
  00099	81 ff 80 1a 00
	00		 cmp	 edi, 6784		; 00001a80H
  0009f	7c 8f		 jl	 SHORT $LL19@PegasiaCha

; 1495 : 			}
; 1496 : 		}
; 1497 : 	}
; 1498 : 
; 1499 : 	if ( UniriaCount != 10 || ChoasGemCount != 1 )

  000a1	83 7d e0 0a	 cmp	 DWORD PTR _UniriaCount$[ebp], 10 ; 0000000aH
  000a5	89 5d e8	 mov	 DWORD PTR _iCharmOfLuckCount$[ebp], ebx
  000a8	0f 85 78 02 00
	00		 jne	 $LN9@PegasiaCha
  000ae	83 7d e4 01	 cmp	 DWORD PTR _ChoasGemCount$[ebp], 1
  000b2	0f 85 6e 02 00
	00		 jne	 $LN9@PegasiaCha

; 1502 : 		return FALSE;
; 1503 : 	}
; 1504 : 
; 1505 : 	PMSG_CHAOSMIXRESULT pMsg;
; 1506 : 
; 1507 : 	PHeadSetB((LPBYTE)&pMsg.h, 0x86, sizeof(PMSG_CHAOSMIXRESULT));

  000b8	6a 10		 push	 16			; 00000010H
  000ba	8d 4d ec	 lea	 ecx, DWORD PTR _pMsg$[ebp]
  000bd	68 86 00 00 00	 push	 134			; 00000086H
  000c2	51		 push	 ecx
  000c3	e8 00 00 00 00	 call	 ?PHeadSetB@@YAXPAEEH@Z	; PHeadSetB
  000c8	83 c4 0c	 add	 esp, 12			; 0000000cH

; 1508 : 	pMsg.Result = CB_ERROR;

  000cb	c6 45 ef 00	 mov	 BYTE PTR _pMsg$[ebp+3], 0

; 1509 : 
; 1510 : 	if ( iCharmOfLuckCount > 10 )

  000cf	83 fb 0a	 cmp	 ebx, 10			; 0000000aH
  000d2	7e 27		 jle	 SHORT $LN8@PegasiaCha

; 1511 : 	{
; 1512 : 		lpObj->ChaosLock = FALSE;
; 1513 : 		pMsg.Result = 0xF0;
; 1514 : 		DataSend(lpObj->m_Index, (LPBYTE)&pMsg, pMsg.h.size);

  000d4	0f b6 55 ed	 movzx	 edx, BYTE PTR _pMsg$[ebp+1]
  000d8	8b 0e		 mov	 ecx, DWORD PTR [esi]
  000da	52		 push	 edx
  000db	8d 45 ec	 lea	 eax, DWORD PTR _pMsg$[ebp]
  000de	50		 push	 eax
  000df	51		 push	 ecx
  000e0	c7 86 88 0e 00
	00 00 00 00 00	 mov	 DWORD PTR [esi+3720], 0
  000ea	c6 45 ef f0	 mov	 BYTE PTR _pMsg$[ebp+3], 240 ; 000000f0H
  000ee	e8 00 00 00 00	 call	 ?DataSend@@YAHHPAEK@Z	; DataSend
  000f3	83 c4 0c	 add	 esp, 12			; 0000000cH

; 1515 : 
; 1516 : 		return 0;

  000f6	e9 35 02 00 00	 jmp	 $LN26@PegasiaCha
$LN8@PegasiaCha:

; 1517 : 	}
; 1518 : 
; 1519 : 	int nChaosNeedMoney = 500000;
; 1520 : 	int iChaosTaxMoney = (int)((__int64)nChaosNeedMoney * (__int64)g_CastleSiegeSync.GetTaxRateChaos(lpObj->m_Index) / (__int64)100);

  000fb	8b 16		 mov	 edx, DWORD PTR [esi]
  000fd	52		 push	 edx
  000fe	b9 00 00 00 00	 mov	 ecx, OFFSET ?g_CastleSiegeSync@@3VCCastleSiegeSync@@A ; g_CastleSiegeSync
  00103	e8 00 00 00 00	 call	 ?GetTaxRateChaos@CCastleSiegeSync@@QAEHH@Z ; CCastleSiegeSync::GetTaxRateChaos
  00108	6a 00		 push	 0
  0010a	99		 cdq
  0010b	68 20 a1 07 00	 push	 500000			; 0007a120H
  00110	52		 push	 edx
  00111	50		 push	 eax
  00112	e8 00 00 00 00	 call	 __allmul
  00117	6a 00		 push	 0
  00119	6a 64		 push	 100			; 00000064H
  0011b	52		 push	 edx
  0011c	50		 push	 eax
  0011d	e8 00 00 00 00	 call	 __alldiv

; 1521 : 
; 1522 : 		nChaosNeedMoney += lpObj->m_AddMixMoney;

  00122	8b be 20 28 00
	00		 mov	 edi, DWORD PTR [esi+10272]
  00128	8b d8		 mov	 ebx, eax
  0012a	81 c7 20 a1 07
	00		 add	 edi, 500000		; 0007a120H

; 1523 : 
; 1524 : 	if ( iChaosTaxMoney < 0 )

  00130	85 db		 test	 ebx, ebx
  00132	79 02		 jns	 SHORT $LN7@PegasiaCha

; 1525 : 	{
; 1526 : 		iChaosTaxMoney = 0;

  00134	33 db		 xor	 ebx, ebx
$LN7@PegasiaCha:

; 1527 : 	}
; 1528 : 
; 1529 : 	nChaosNeedMoney += iChaosTaxMoney;

  00136	03 fb		 add	 edi, ebx

; 1530 : 
; 1531 : 	if ( nChaosNeedMoney < 0 )

  00138	79 02		 jns	 SHORT $LN6@PegasiaCha

; 1532 : 	{
; 1533 : 		nChaosNeedMoney = 0;

  0013a	33 ff		 xor	 edi, edi
$LN6@PegasiaCha:

; 1534 : 	}
; 1535 : 
; 1536 : 	if ( lpObj->Money < nChaosNeedMoney )

  0013c	39 be f0 00 00
	00		 cmp	 DWORD PTR [esi+240], edi
  00142	7d 44		 jge	 SHORT $LN5@PegasiaCha

; 1537 : 	{
; 1538 : 		lpObj->ChaosLock = FALSE;
; 1539 : 		pMsg.Result = CB_NOT_ENOUGH_ZEN;
; 1540 : 		
; 1541 : 		DataSend(lpObj->m_Index, (LPBYTE)&pMsg, pMsg.h.size);

  00144	0f b6 45 ed	 movzx	 eax, BYTE PTR _pMsg$[ebp+1]
  00148	8b 16		 mov	 edx, DWORD PTR [esi]
  0014a	50		 push	 eax
  0014b	8d 4d ec	 lea	 ecx, DWORD PTR _pMsg$[ebp]
  0014e	51		 push	 ecx
  0014f	52		 push	 edx
  00150	c7 86 88 0e 00
	00 00 00 00 00	 mov	 DWORD PTR [esi+3720], 0
  0015a	c6 45 ef 02	 mov	 BYTE PTR _pMsg$[ebp+3], 2
  0015e	e8 00 00 00 00	 call	 ?DataSend@@YAHHPAEK@Z	; DataSend
  00163	83 c4 0c	 add	 esp, 12			; 0000000cH
  00166	5f		 pop	 edi

; 1542 : 		lpObj->ChaosLock = FALSE;

  00167	c7 86 88 0e 00
	00 00 00 00 00	 mov	 DWORD PTR [esi+3720], 0
  00171	5e		 pop	 esi

; 1543 : 
; 1544 : 		return TRUE;

  00172	b8 01 00 00 00	 mov	 eax, 1
  00177	5b		 pop	 ebx

; 1597 : #endif
; 1598 : 		lpObj->ChaosLock = FALSE;
; 1599 : 		return FALSE;
; 1600 : 	}
; 1601 : }

  00178	8b 4d fc	 mov	 ecx, DWORD PTR __$ArrayPad$[ebp]
  0017b	33 cd		 xor	 ecx, ebp
  0017d	e8 00 00 00 00	 call	 @__security_check_cookie@4
  00182	8b e5		 mov	 esp, ebp
  00184	5d		 pop	 ebp
  00185	c2 04 00	 ret	 4
$LN5@PegasiaCha:

; 1545 : 	}
; 1546 : 
; 1547 : 	LogChaosItem(lpObj, "DinorantMix");

  00188	8b 4d dc	 mov	 ecx, DWORD PTR _this$[ebp]
  0018b	68 00 00 00 00	 push	 OFFSET ??_C@_0M@OEKEBNDM@DinorantMix?$AA@
  00190	56		 push	 esi
  00191	e8 00 00 00 00	 call	 ?LogChaosItem@CMixSystem@@QAEXPAUOBJECTSTRUCT@@PAD@Z ; CMixSystem::LogChaosItem

; 1548 : 	LogAddTD("[DinorantMix] Chaos Mix Start");

  00196	68 00 00 00 00	 push	 OFFSET ??_C@_0BO@BKFHPCAO@?$FLDinorantMix?$FN?5Chaos?5Mix?5Start?$AA@
  0019b	ff 15 00 00 00
	00		 call	 DWORD PTR ?LogAddTD@@3P6AXPADZZA ; LogAddTD

; 1549 : 	//int ExDinorantMixRate = GetPrivateProfileInt("ChaosMix","DinorantMixRate",70,"..\\Data\\ZtData\\CommonServer.ini");
; 1550 : 	lpObj->ChaosSuccessRate = ZtConfig.CommonServer.ZtDinorantMixRate;	// Succes Rate for Dinorant

  001a1	a1 98 00 00 00	 mov	 eax, DWORD PTR ?ZtConfig@@3VcZtConfigs@@A+152

; 1551 : 	lpObj->ChaosSuccessRate += iCharmOfLuckCount;
; 1552 : 
; 1553 : 	lpObj->ChaosSuccessRate += lpObj->m_AddMixSuccessRate;

  001a6	8b 8e 24 28 00
	00		 mov	 ecx, DWORD PTR [esi+10276]
  001ac	03 4d e8	 add	 ecx, DWORD PTR _iCharmOfLuckCount$[ebp]

; 1554 : 
; 1555 : 
; 1556 : 
; 1557 : 	lpObj->Money -= nChaosNeedMoney;

  001af	29 be f0 00 00
	00		 sub	 DWORD PTR [esi+240], edi
  001b5	83 c4 04	 add	 esp, 4
  001b8	89 86 84 0e 00
	00		 mov	 DWORD PTR [esi+3716], eax
  001be	01 8e 84 0e 00
	00		 add	 DWORD PTR [esi+3716], ecx

; 1558 : 
; 1559 : 	g_CastleSiegeSync.AddTributeMoney(iChaosTaxMoney);

  001c4	53		 push	 ebx
  001c5	b9 00 00 00 00	 mov	 ecx, OFFSET ?g_CastleSiegeSync@@3VCCastleSiegeSync@@A ; g_CastleSiegeSync
  001ca	e8 00 00 00 00	 call	 ?AddTributeMoney@CCastleSiegeSync@@QAEXH@Z ; CCastleSiegeSync::AddTributeMoney

; 1560 : 	GCMoneySend(lpObj->m_Index, lpObj->Money);

  001cf	8b 96 f0 00 00
	00		 mov	 edx, DWORD PTR [esi+240]
  001d5	8b 06		 mov	 eax, DWORD PTR [esi]
  001d7	52		 push	 edx
  001d8	50		 push	 eax
  001d9	e8 00 00 00 00	 call	 ?GCMoneySend@@YAXHK@Z	; GCMoneySend
  001de	83 c4 08	 add	 esp, 8

; 1561 : 
; 1562 : 	if ( (rand()%100 ) < lpObj->ChaosSuccessRate )

  001e1	e8 00 00 00 00	 call	 _rand
  001e6	99		 cdq
  001e7	b9 64 00 00 00	 mov	 ecx, 100		; 00000064H
  001ec	f7 f9		 idiv	 ecx
  001ee	3b 96 84 0e 00
	00		 cmp	 edx, DWORD PTR [esi+3716]
  001f4	0f 8d d4 00 00
	00		 jge	 $LN4@PegasiaCha

; 1563 : 	{
; 1564 : 		int Dinorant = ITEMGET(13,3);
; 1565 : 		int Option3 = 0;

  001fa	33 db		 xor	 ebx, ebx

; 1566 : 
; 1567 : 		if ( (rand()% 100) < 30 )

  001fc	e8 00 00 00 00	 call	 _rand
  00201	99		 cdq
  00202	b9 64 00 00 00	 mov	 ecx, 100		; 00000064H
  00207	f7 f9		 idiv	 ecx
  00209	83 fa 1e	 cmp	 edx, 30			; 0000001eH
  0020c	7d 3f		 jge	 SHORT $LN24@PegasiaCha

; 1568 : 		{
; 1569 : 			Option3 = 1 <<  ((rand()%3)) ;

  0020e	e8 00 00 00 00	 call	 _rand
  00213	99		 cdq
  00214	b9 03 00 00 00	 mov	 ecx, 3
  00219	f7 f9		 idiv	 ecx
  0021b	bb 01 00 00 00	 mov	 ebx, 1
  00220	8b ca		 mov	 ecx, edx
  00222	d3 e3		 shl	 ebx, cl

; 1570 : 
; 1571 : 			if ( (rand()%5) == 0 )

  00224	e8 00 00 00 00	 call	 _rand
  00229	99		 cdq
  0022a	b9 05 00 00 00	 mov	 ecx, 5
  0022f	f7 f9		 idiv	 ecx
  00231	85 d2		 test	 edx, edx
  00233	75 18		 jne	 SHORT $LN24@PegasiaCha

; 1572 : 			{
; 1573 : 				Option3 |= 1 << (rand()%3);

  00235	e8 00 00 00 00	 call	 _rand
  0023a	99		 cdq
  0023b	b9 03 00 00 00	 mov	 ecx, 3
  00240	f7 f9		 idiv	 ecx
  00242	b8 01 00 00 00	 mov	 eax, 1
  00247	8b ca		 mov	 ecx, edx
  00249	d3 e0		 shl	 eax, cl
  0024b	0b d8		 or	 ebx, eax
$LN24@PegasiaCha:

; 1574 : 			}
; 1575 : 		}
; 1576 : 
; 1577 : 		::ItemSerialCreateSend(lpObj->m_Index, -1, 0, 0, Dinorant, 0, 255, 1, 0, (BYTE)Option3, -1, 0, 0);

  0024d	6a 00		 push	 0
  0024f	8b 0e		 mov	 ecx, DWORD PTR [esi]
  00251	6a 00		 push	 0
  00253	6a ff		 push	 -1
  00255	53		 push	 ebx
  00256	6a 00		 push	 0
  00258	6a 01		 push	 1
  0025a	68 ff 00 00 00	 push	 255			; 000000ffH
  0025f	6a 00		 push	 0
  00261	68 03 1a 00 00	 push	 6659			; 00001a03H
  00266	6a 00		 push	 0
  00268	6a 00		 push	 0
  0026a	68 ff 00 00 00	 push	 255			; 000000ffH
  0026f	51		 push	 ecx
  00270	e8 00 00 00 00	 call	 ?ItemSerialCreateSend@@YAXHEEEHEEEEEHEE@Z ; ItemSerialCreateSend

; 1578 : 		::gObjInventoryCommit(lpObj->m_Index);

  00275	8b 16		 mov	 edx, DWORD PTR [esi]
  00277	52		 push	 edx
  00278	e8 00 00 00 00	 call	 ?gObjInventoryCommit@@YAHH@Z ; gObjInventoryCommit

; 1579 : #if(SYSTEM_ACHIEVEMENTS)
; 1580 : 		g_Achievements.SuccessChaosMix(lpObj->m_Index);

  0027d	8b 06		 mov	 eax, DWORD PTR [esi]
  0027f	83 c4 38	 add	 esp, 56			; 00000038H
  00282	50		 push	 eax
  00283	b9 00 00 00 00	 mov	 ecx, OFFSET ?g_Achievements@@3VCAchievements@@A ; g_Achievements
  00288	e8 00 00 00 00	 call	 ?SuccessChaosMix@CAchievements@@QAEXH@Z ; CAchievements::SuccessChaosMix

; 1581 : #endif
; 1582 : 		LogAddTD("[DinorantMix] [%s][%s] CBMix Success %d Money : %d-%d, CharmRate : %d",
; 1583 : 			lpObj->AccountID, lpObj->Name, lpObj->ChaosSuccessRate, lpObj->Money, nChaosNeedMoney, iCharmOfLuckCount);

  0028d	8b 4d e8	 mov	 ecx, DWORD PTR _iCharmOfLuckCount$[ebp]
  00290	8b 96 f0 00 00
	00		 mov	 edx, DWORD PTR [esi+240]
  00296	8b 86 84 0e 00
	00		 mov	 eax, DWORD PTR [esi+3716]
  0029c	51		 push	 ecx
  0029d	57		 push	 edi
  0029e	52		 push	 edx
  0029f	50		 push	 eax
  002a0	8d 4e 77	 lea	 ecx, DWORD PTR [esi+119]
  002a3	51		 push	 ecx
  002a4	83 c6 6c	 add	 esi, 108		; 0000006cH
  002a7	56		 push	 esi
  002a8	68 00 00 00 00	 push	 OFFSET ??_C@_0EG@BMPMHKIC@?$FLDinorantMix?$FN?5?$FL?$CFs?$FN?$FL?$CFs?$FN?5CBMix?5Suc@
  002ad	ff 15 00 00 00
	00		 call	 DWORD PTR ?LogAddTD@@3P6AXPADZZA ; LogAddTD
  002b3	83 c4 1c	 add	 esp, 28			; 0000001cH
  002b6	5f		 pop	 edi
  002b7	5e		 pop	 esi

; 1584 : 
; 1585 : 		return TRUE;

  002b8	b8 01 00 00 00	 mov	 eax, 1
  002bd	5b		 pop	 ebx

; 1597 : #endif
; 1598 : 		lpObj->ChaosLock = FALSE;
; 1599 : 		return FALSE;
; 1600 : 	}
; 1601 : }

  002be	8b 4d fc	 mov	 ecx, DWORD PTR __$ArrayPad$[ebp]
  002c1	33 cd		 xor	 ecx, ebp
  002c3	e8 00 00 00 00	 call	 @__security_check_cookie@4
  002c8	8b e5		 mov	 esp, ebp
  002ca	5d		 pop	 ebp
  002cb	c2 04 00	 ret	 4
$LN4@PegasiaCha:

; 1586 : 	}
; 1587 : 	else
; 1588 : 	{
; 1589 : 		this->ChaosBoxInit(lpObj);	// Errase Chaos Box

  002ce	8b 4d dc	 mov	 ecx, DWORD PTR _this$[ebp]
  002d1	56		 push	 esi
  002d2	e8 00 00 00 00	 call	 ?ChaosBoxInit@CMixSystem@@QAEHPAUOBJECTSTRUCT@@@Z ; CMixSystem::ChaosBoxInit

; 1590 : 		GCUserChaosBoxSend(lpObj, 0);

  002d7	6a 00		 push	 0
  002d9	56		 push	 esi
  002da	e8 00 00 00 00	 call	 ?GCUserChaosBoxSend@@YAXPAUOBJECTSTRUCT@@H@Z ; GCUserChaosBoxSend

; 1591 : 		DataSend(lpObj->m_Index, (LPBYTE)&pMsg, pMsg.h.size);

  002df	0f b6 55 ed	 movzx	 edx, BYTE PTR _pMsg$[ebp+1]
  002e3	8b 0e		 mov	 ecx, DWORD PTR [esi]
  002e5	52		 push	 edx
  002e6	8d 45 ec	 lea	 eax, DWORD PTR _pMsg$[ebp]
  002e9	50		 push	 eax
  002ea	51		 push	 ecx
  002eb	e8 00 00 00 00	 call	 ?DataSend@@YAHHPAEK@Z	; DataSend

; 1592 : 
; 1593 : 		LogAddTD("[DinorantMix] [%s][%s] CBMix Fail %d Money : %d-%d, CharmRate : %d",
; 1594 : 			lpObj->AccountID, lpObj->Name, lpObj->ChaosSuccessRate, lpObj->Money, nChaosNeedMoney, iCharmOfLuckCount);

  002f0	8b 55 e8	 mov	 edx, DWORD PTR _iCharmOfLuckCount$[ebp]
  002f3	8b 86 f0 00 00
	00		 mov	 eax, DWORD PTR [esi+240]
  002f9	8b 8e 84 0e 00
	00		 mov	 ecx, DWORD PTR [esi+3716]
  002ff	52		 push	 edx
  00300	57		 push	 edi
  00301	50		 push	 eax
  00302	51		 push	 ecx
  00303	8d 56 77	 lea	 edx, DWORD PTR [esi+119]
  00306	52		 push	 edx
  00307	8d 46 6c	 lea	 eax, DWORD PTR [esi+108]
  0030a	50		 push	 eax
  0030b	68 00 00 00 00	 push	 OFFSET ??_C@_0ED@JKKAJEKA@?$FLDinorantMix?$FN?5?$FL?$CFs?$FN?$FL?$CFs?$FN?5CBMix?5Fai@
  00310	ff 15 00 00 00
	00		 call	 DWORD PTR ?LogAddTD@@3P6AXPADZZA ; LogAddTD

; 1595 : #if(SYSTEM_ACHIEVEMENTS)
; 1596 : 		g_Achievements.FailedChaosMix(lpObj->m_Index);

  00316	8b 0e		 mov	 ecx, DWORD PTR [esi]
  00318	83 c4 30	 add	 esp, 48			; 00000030H
  0031b	51		 push	 ecx
  0031c	b9 00 00 00 00	 mov	 ecx, OFFSET ?g_Achievements@@3VCAchievements@@A ; g_Achievements
  00321	e8 00 00 00 00	 call	 ?FailedChaosMix@CAchievements@@QAEXH@Z ; CAchievements::FailedChaosMix
$LN9@PegasiaCha:

; 1500 : 	{
; 1501 : 		lpObj->ChaosLock = FALSE;

  00326	c7 86 88 0e 00
	00 00 00 00 00	 mov	 DWORD PTR [esi+3720], 0
$LN26@PegasiaCha:

; 1597 : #endif
; 1598 : 		lpObj->ChaosLock = FALSE;
; 1599 : 		return FALSE;
; 1600 : 	}
; 1601 : }

  00330	8b 4d fc	 mov	 ecx, DWORD PTR __$ArrayPad$[ebp]
  00333	5f		 pop	 edi
  00334	5e		 pop	 esi
  00335	33 cd		 xor	 ecx, ebp
  00337	33 c0		 xor	 eax, eax
  00339	5b		 pop	 ebx
  0033a	e8 00 00 00 00	 call	 @__security_check_cookie@4
  0033f	8b e5		 mov	 esp, ebp
  00341	5d		 pop	 ebp
  00342	c2 04 00	 ret	 4
?PegasiaChaosMix@CMixSystem@@QAEHPAUOBJECTSTRUCT@@@Z ENDP ; CMixSystem::PegasiaChaosMix
_TEXT	ENDS
PUBLIC	??_C@_0EB@FKBAIBLL@?$FLCircleMix?$FN?5?$FL?$CFs?$FN?$FL?$CFs?$FN?5CBMix?5Fail?5@ ; `string'
PUBLIC	??_C@_0EE@PAFLGDEL@?$FLCircleMix?$FN?5?$FL?$CFs?$FN?$FL?$CFs?$FN?5CBMix?5Succe@ ; `string'
PUBLIC	??_C@_0BM@EFIHICLO@?$FLCircleMix?$FN?5Chaos?5Mix?5Start?$AA@ ; `string'
PUBLIC	??_C@_09CKGJGION@CircleMix?$AA@			; `string'
PUBLIC	__$ArrayPad$
PUBLIC	?CircleChaosMix@CMixSystem@@QAEHPAUOBJECTSTRUCT@@@Z ; CMixSystem::CircleChaosMix
;	COMDAT ??_C@_0EB@FKBAIBLL@?$FLCircleMix?$FN?5?$FL?$CFs?$FN?$FL?$CFs?$FN?5CBMix?5Fail?5@
CONST	SEGMENT
??_C@_0EB@FKBAIBLL@?$FLCircleMix?$FN?5?$FL?$CFs?$FN?$FL?$CFs?$FN?5CBMix?5Fail?5@ DB '['
	DB	'CircleMix] [%s][%s] CBMix Fail %d Money : %d-%d, CharmRate : '
	DB	'%d', 00H					; `string'
CONST	ENDS
;	COMDAT ??_C@_0EE@PAFLGDEL@?$FLCircleMix?$FN?5?$FL?$CFs?$FN?$FL?$CFs?$FN?5CBMix?5Succe@
CONST	SEGMENT
??_C@_0EE@PAFLGDEL@?$FLCircleMix?$FN?5?$FL?$CFs?$FN?$FL?$CFs?$FN?5CBMix?5Succe@ DB '['
	DB	'CircleMix] [%s][%s] CBMix Success %d Money : %d-%d, CharmRate'
	DB	' : %d', 00H					; `string'
CONST	ENDS
;	COMDAT ??_C@_0BM@EFIHICLO@?$FLCircleMix?$FN?5Chaos?5Mix?5Start?$AA@
CONST	SEGMENT
??_C@_0BM@EFIHICLO@?$FLCircleMix?$FN?5Chaos?5Mix?5Start?$AA@ DB '[CircleM'
	DB	'ix] Chaos Mix Start', 00H			; `string'
CONST	ENDS
;	COMDAT ??_C@_09CKGJGION@CircleMix?$AA@
CONST	SEGMENT
??_C@_09CKGJGION@CircleMix?$AA@ DB 'CircleMix', 00H	; `string'
; Function compile flags: /Ogtp
CONST	ENDS
;	COMDAT ?CircleChaosMix@CMixSystem@@QAEHPAUOBJECTSTRUCT@@@Z
_TEXT	SEGMENT
_this$ = -36						; size = 4
_CreatureGemCount$ = -32				; size = 4
_ChoasGemCount$ = -28					; size = 4
_iCharmOfLuckCount$ = -24				; size = 4
_pMsg$ = -20						; size = 16
__$ArrayPad$ = -4					; size = 4
_lpObj$ = 8						; size = 4
?CircleChaosMix@CMixSystem@@QAEHPAUOBJECTSTRUCT@@@Z PROC ; CMixSystem::CircleChaosMix, COMDAT
; _this$ = ecx

; 1604 : {

  00000	55		 push	 ebp
  00001	8b ec		 mov	 ebp, esp
  00003	83 ec 24	 sub	 esp, 36			; 00000024H
  00006	a1 00 00 00 00	 mov	 eax, DWORD PTR ___security_cookie
  0000b	33 c5		 xor	 eax, ebp
  0000d	89 45 fc	 mov	 DWORD PTR __$ArrayPad$[ebp], eax
  00010	53		 push	 ebx
  00011	56		 push	 esi
  00012	8b 75 08	 mov	 esi, DWORD PTR _lpObj$[ebp]
  00015	57		 push	 edi

; 1605 : 	lpObj->ChaosLock = TRUE;
; 1606 : 
; 1607 : 	int CreatureGemCount = 0;

  00016	33 ff		 xor	 edi, edi
  00018	89 4d dc	 mov	 DWORD PTR _this$[ebp], ecx
  0001b	c7 86 88 0e 00
	00 01 00 00 00	 mov	 DWORD PTR [esi+3720], 1
  00025	89 7d e0	 mov	 DWORD PTR _CreatureGemCount$[ebp], edi

; 1608 : 	int ChoasGemCount = 0;

  00028	89 7d e4	 mov	 DWORD PTR _ChoasGemCount$[ebp], edi

; 1609 : 	int iCharmOfLuckCount = 0;

  0002b	33 db		 xor	 ebx, ebx
  0002d	8d 49 00	 npad	 3
$LL26@CircleChao:

; 1612 : 	{
; 1613 : 		if ( lpObj->pChaosBox[n].IsItem() == TRUE )

  00030	8b 8e 78 0e 00
	00		 mov	 ecx, DWORD PTR [esi+3704]
  00036	03 cf		 add	 ecx, edi
  00038	e8 00 00 00 00	 call	 ?IsItem@CItem@@QAEHXZ	; CItem::IsItem
  0003d	83 f8 01	 cmp	 eax, 1
  00040	75 3e		 jne	 SHORT $LN25@CircleChao

; 1614 : 		{
; 1615 : 			if ( lpObj->pChaosBox[n].m_Type == ITEMGET(14,22) )	// Jewel of Creation

  00042	8b 8e 78 0e 00
	00		 mov	 ecx, DWORD PTR [esi+3704]
  00048	0f b7 44 39 06	 movzx	 eax, WORD PTR [ecx+edi+6]
  0004d	ba 16 1c 00 00	 mov	 edx, 7190		; 00001c16H
  00052	66 3b c2	 cmp	 ax, dx
  00055	75 05		 jne	 SHORT $LN22@CircleChao

; 1616 : 			{
; 1617 : 				CreatureGemCount++;

  00057	ff 45 e0	 inc	 DWORD PTR _CreatureGemCount$[ebp]
  0005a	eb 24		 jmp	 SHORT $LN25@CircleChao
$LN22@CircleChao:

; 1618 : 			}
; 1619 : 			else if ( lpObj->pChaosBox[n].m_Type == ITEMGET(12,15) ) // Chaos Gem

  0005c	ba 0f 18 00 00	 mov	 edx, 6159		; 0000180fH
  00061	66 3b c2	 cmp	 ax, dx
  00064	75 05		 jne	 SHORT $LN20@CircleChao

; 1620 : 			{
; 1621 : 				ChoasGemCount++;

  00066	ff 45 e4	 inc	 DWORD PTR _ChoasGemCount$[ebp]
  00069	eb 15		 jmp	 SHORT $LN25@CircleChao
$LN20@CircleChao:

; 1622 : 			}
; 1623 : 			else if ( lpObj->pChaosBox[n].m_Type == ITEMGET(14,53) )	// Charm Of Luck

  0006b	ba 35 1c 00 00	 mov	 edx, 7221		; 00001c35H
  00070	66 3b c2	 cmp	 ax, dx
  00073	75 0b		 jne	 SHORT $LN25@CircleChao

; 1624 : 			{
; 1625 : 				iCharmOfLuckCount += (int)lpObj->pChaosBox[n].m_Durability;

  00075	d9 44 39 24	 fld	 DWORD PTR [ecx+edi+36]
  00079	e8 00 00 00 00	 call	 __ftol2_sse
  0007e	03 d8		 add	 ebx, eax
$LN25@CircleChao:

; 1610 : 
; 1611 : 	for ( int n=0;n<CHAOS_BOX_SIZE;n++)

  00080	81 c7 d4 00 00
	00		 add	 edi, 212		; 000000d4H
  00086	81 ff 80 1a 00
	00		 cmp	 edi, 6784		; 00001a80H
  0008c	7c a2		 jl	 SHORT $LL26@CircleChao

; 1626 : 			}
; 1627 : 		}
; 1628 : 	}
; 1629 : 
; 1630 : 	if ( CreatureGemCount != 1 || ChoasGemCount != 1 )

  0008e	bf 01 00 00 00	 mov	 edi, 1
  00093	89 5d e8	 mov	 DWORD PTR _iCharmOfLuckCount$[ebp], ebx
  00096	39 7d e0	 cmp	 DWORD PTR _CreatureGemCount$[ebp], edi
  00099	0f 85 b2 02 00
	00		 jne	 $LN16@CircleChao
  0009f	39 7d e4	 cmp	 DWORD PTR _ChoasGemCount$[ebp], edi
  000a2	0f 85 a9 02 00
	00		 jne	 $LN16@CircleChao

; 1631 : 	{
; 1632 : 		return FALSE;
; 1633 : 	}
; 1634 : 
; 1635 : 	PMSG_CHAOSMIXRESULT pMsg;
; 1636 : 
; 1637 : 	PHeadSetB((LPBYTE)&pMsg.h, 0x86, sizeof(PMSG_CHAOSMIXRESULT));

  000a8	6a 10		 push	 16			; 00000010H
  000aa	8d 45 ec	 lea	 eax, DWORD PTR _pMsg$[ebp]
  000ad	68 86 00 00 00	 push	 134			; 00000086H
  000b2	50		 push	 eax
  000b3	e8 00 00 00 00	 call	 ?PHeadSetB@@YAXPAEEH@Z	; PHeadSetB
  000b8	83 c4 0c	 add	 esp, 12			; 0000000cH

; 1638 : 	pMsg.Result = CB_ERROR;

  000bb	c6 45 ef 00	 mov	 BYTE PTR _pMsg$[ebp+3], 0

; 1639 : 
; 1640 : 	if ( iCharmOfLuckCount > 10 )

  000bf	83 fb 0a	 cmp	 ebx, 10			; 0000000aH
  000c2	7e 37		 jle	 SHORT $LN15@CircleChao

; 1641 : 	{
; 1642 : 		lpObj->ChaosLock = FALSE;
; 1643 : 		pMsg.Result = 0xF0;
; 1644 : 		DataSend(lpObj->m_Index, (LPBYTE)&pMsg, pMsg.h.size);

  000c4	0f b6 4d ed	 movzx	 ecx, BYTE PTR _pMsg$[ebp+1]
  000c8	8b 06		 mov	 eax, DWORD PTR [esi]
  000ca	51		 push	 ecx
  000cb	8d 55 ec	 lea	 edx, DWORD PTR _pMsg$[ebp]
  000ce	52		 push	 edx
  000cf	50		 push	 eax
  000d0	c7 86 88 0e 00
	00 00 00 00 00	 mov	 DWORD PTR [esi+3720], 0
  000da	c6 45 ef f0	 mov	 BYTE PTR _pMsg$[ebp+3], 240 ; 000000f0H
  000de	e8 00 00 00 00	 call	 ?DataSend@@YAHHPAEK@Z	; DataSend
  000e3	83 c4 0c	 add	 esp, 12			; 0000000cH

; 1645 : 
; 1646 : 		return 1;

  000e6	8b c7		 mov	 eax, edi
  000e8	5f		 pop	 edi
  000e9	5e		 pop	 esi
  000ea	5b		 pop	 ebx

; 1748 : #endif
; 1749 : 		return FALSE;
; 1750 : 	}
; 1751 : }

  000eb	8b 4d fc	 mov	 ecx, DWORD PTR __$ArrayPad$[ebp]
  000ee	33 cd		 xor	 ecx, ebp
  000f0	e8 00 00 00 00	 call	 @__security_check_cookie@4
  000f5	8b e5		 mov	 esp, ebp
  000f7	5d		 pop	 ebp
  000f8	c2 04 00	 ret	 4
$LN15@CircleChao:

; 1647 : 	}
; 1648 : 
; 1649 : 	if ( lpObj->Level < 10 )

  000fb	66 83 be be 00
	00 00 0a	 cmp	 WORD PTR [esi+190], 10	; 0000000aH
  00103	7d 37		 jge	 SHORT $LN14@CircleChao

; 1650 : 	{
; 1651 : 		pMsg.Result = CB_LOW_LEVEL_USER;
; 1652 : 
; 1653 : 		DataSend(lpObj->m_Index, (LPBYTE)&pMsg, pMsg.h.size);

  00105	0f b6 4d ed	 movzx	 ecx, BYTE PTR _pMsg$[ebp+1]
  00109	8b 06		 mov	 eax, DWORD PTR [esi]
  0010b	51		 push	 ecx
  0010c	8d 55 ec	 lea	 edx, DWORD PTR _pMsg$[ebp]
  0010f	52		 push	 edx
  00110	50		 push	 eax
  00111	c6 45 ef 04	 mov	 BYTE PTR _pMsg$[ebp+3], 4
  00115	e8 00 00 00 00	 call	 ?DataSend@@YAHHPAEK@Z	; DataSend
  0011a	83 c4 0c	 add	 esp, 12			; 0000000cH

; 1654 : 		lpObj->ChaosLock = FALSE;
; 1655 : 
; 1656 : 		return TRUE;

  0011d	8b c7		 mov	 eax, edi
  0011f	5f		 pop	 edi
  00120	c7 86 88 0e 00
	00 00 00 00 00	 mov	 DWORD PTR [esi+3720], 0
  0012a	5e		 pop	 esi
  0012b	5b		 pop	 ebx

; 1748 : #endif
; 1749 : 		return FALSE;
; 1750 : 	}
; 1751 : }

  0012c	8b 4d fc	 mov	 ecx, DWORD PTR __$ArrayPad$[ebp]
  0012f	33 cd		 xor	 ecx, ebp
  00131	e8 00 00 00 00	 call	 @__security_check_cookie@4
  00136	8b e5		 mov	 esp, ebp
  00138	5d		 pop	 ebp
  00139	c2 04 00	 ret	 4
$LN14@CircleChao:

; 1657 : 	}
; 1658 : 
; 1659 : 	int nChaosNeedMoney = 3000000;
; 1660 : 	int iChaosTaxMoney = (int)((__int64)nChaosNeedMoney * (__int64)g_CastleSiegeSync.GetTaxRateChaos(lpObj->m_Index) / (__int64)100);

  0013c	8b 0e		 mov	 ecx, DWORD PTR [esi]
  0013e	51		 push	 ecx
  0013f	b9 00 00 00 00	 mov	 ecx, OFFSET ?g_CastleSiegeSync@@3VCCastleSiegeSync@@A ; g_CastleSiegeSync
  00144	e8 00 00 00 00	 call	 ?GetTaxRateChaos@CCastleSiegeSync@@QAEHH@Z ; CCastleSiegeSync::GetTaxRateChaos
  00149	6a 00		 push	 0
  0014b	99		 cdq
  0014c	68 c0 c6 2d 00	 push	 3000000			; 002dc6c0H
  00151	52		 push	 edx
  00152	50		 push	 eax
  00153	e8 00 00 00 00	 call	 __allmul
  00158	6a 00		 push	 0
  0015a	6a 64		 push	 100			; 00000064H
  0015c	52		 push	 edx
  0015d	50		 push	 eax
  0015e	e8 00 00 00 00	 call	 __alldiv
  00163	8b d8		 mov	 ebx, eax

; 1661 : 
; 1662 : 	if ( iChaosTaxMoney < 0 )

  00165	85 db		 test	 ebx, ebx
  00167	79 02		 jns	 SHORT $LN13@CircleChao

; 1663 : 	{
; 1664 : 		iChaosTaxMoney = 0;

  00169	33 db		 xor	 ebx, ebx
$LN13@CircleChao:

; 1665 : 	}
; 1666 : 
; 1667 : 	nChaosNeedMoney += iChaosTaxMoney;
; 1668 : 
; 1669 : 	nChaosNeedMoney += lpObj->m_AddMixMoney;

  0016b	8b 96 20 28 00
	00		 mov	 edx, DWORD PTR [esi+10272]
  00171	8d bc 1a c0 c6
	2d 00		 lea	 edi, DWORD PTR [edx+ebx+3000000]

; 1670 : 
; 1671 : 	if ( nChaosNeedMoney < 0 )

  00178	85 ff		 test	 edi, edi
  0017a	79 02		 jns	 SHORT $LN12@CircleChao

; 1672 : 	{
; 1673 : 		nChaosNeedMoney = 0;

  0017c	33 ff		 xor	 edi, edi
$LN12@CircleChao:

; 1674 : 	}
; 1675 : 
; 1676 : 	if ( lpObj->Money < nChaosNeedMoney )

  0017e	39 be f0 00 00
	00		 cmp	 DWORD PTR [esi+240], edi
  00184	7d 44		 jge	 SHORT $LN11@CircleChao

; 1677 : 	{
; 1678 : 		lpObj->ChaosLock = FALSE;
; 1679 : 		pMsg.Result = CB_NOT_ENOUGH_ZEN;
; 1680 : 		
; 1681 : 		DataSend(lpObj->m_Index, (LPBYTE)&pMsg, pMsg.h.size);

  00186	0f b6 45 ed	 movzx	 eax, BYTE PTR _pMsg$[ebp+1]
  0018a	8b 16		 mov	 edx, DWORD PTR [esi]
  0018c	50		 push	 eax
  0018d	8d 4d ec	 lea	 ecx, DWORD PTR _pMsg$[ebp]
  00190	51		 push	 ecx
  00191	52		 push	 edx
  00192	c7 86 88 0e 00
	00 00 00 00 00	 mov	 DWORD PTR [esi+3720], 0
  0019c	c6 45 ef 02	 mov	 BYTE PTR _pMsg$[ebp+3], 2
  001a0	e8 00 00 00 00	 call	 ?DataSend@@YAHHPAEK@Z	; DataSend
  001a5	83 c4 0c	 add	 esp, 12			; 0000000cH
  001a8	5f		 pop	 edi

; 1682 : 		lpObj->ChaosLock = FALSE;

  001a9	c7 86 88 0e 00
	00 00 00 00 00	 mov	 DWORD PTR [esi+3720], 0
  001b3	5e		 pop	 esi

; 1683 : 
; 1684 : 		return TRUE;

  001b4	b8 01 00 00 00	 mov	 eax, 1
  001b9	5b		 pop	 ebx

; 1748 : #endif
; 1749 : 		return FALSE;
; 1750 : 	}
; 1751 : }

  001ba	8b 4d fc	 mov	 ecx, DWORD PTR __$ArrayPad$[ebp]
  001bd	33 cd		 xor	 ecx, ebp
  001bf	e8 00 00 00 00	 call	 @__security_check_cookie@4
  001c4	8b e5		 mov	 esp, ebp
  001c6	5d		 pop	 ebp
  001c7	c2 04 00	 ret	 4
$LN11@CircleChao:

; 1685 : 	}
; 1686 : 
; 1687 : 	LogChaosItem(lpObj, "CircleMix");

  001ca	8b 4d dc	 mov	 ecx, DWORD PTR _this$[ebp]
  001cd	68 00 00 00 00	 push	 OFFSET ??_C@_09CKGJGION@CircleMix?$AA@
  001d2	56		 push	 esi
  001d3	e8 00 00 00 00	 call	 ?LogChaosItem@CMixSystem@@QAEXPAUOBJECTSTRUCT@@PAD@Z ; CMixSystem::LogChaosItem

; 1688 : 	LogAddTD("[CircleMix] Chaos Mix Start");

  001d8	68 00 00 00 00	 push	 OFFSET ??_C@_0BM@EFIHICLO@?$FLCircleMix?$FN?5Chaos?5Mix?5Start?$AA@
  001dd	ff 15 00 00 00
	00		 call	 DWORD PTR ?LogAddTD@@3P6AXPADZZA ; LogAddTD

; 1689 : 	lpObj->ChaosSuccessRate = 90;	// Succes Rate for Fruit
; 1690 : 	lpObj->ChaosSuccessRate += iCharmOfLuckCount;
; 1691 : 
; 1692 : 	lpObj->ChaosSuccessRate += lpObj->m_AddMixSuccessRate;

  001e3	8b 86 24 28 00
	00		 mov	 eax, DWORD PTR [esi+10276]
  001e9	8b 4d e8	 mov	 ecx, DWORD PTR _iCharmOfLuckCount$[ebp]

; 1693 : 	
; 1694 : 
; 1695 : 	lpObj->Money -= nChaosNeedMoney;

  001ec	29 be f0 00 00
	00		 sub	 DWORD PTR [esi+240], edi
  001f2	83 c4 04	 add	 esp, 4
  001f5	8d 54 08 5a	 lea	 edx, DWORD PTR [eax+ecx+90]

; 1696 : 
; 1697 : 	g_CastleSiegeSync.AddTributeMoney(iChaosTaxMoney);

  001f9	53		 push	 ebx
  001fa	b9 00 00 00 00	 mov	 ecx, OFFSET ?g_CastleSiegeSync@@3VCCastleSiegeSync@@A ; g_CastleSiegeSync
  001ff	89 96 84 0e 00
	00		 mov	 DWORD PTR [esi+3716], edx
  00205	e8 00 00 00 00	 call	 ?AddTributeMoney@CCastleSiegeSync@@QAEXH@Z ; CCastleSiegeSync::AddTributeMoney

; 1698 : 	GCMoneySend(lpObj->m_Index, lpObj->Money);

  0020a	8b 86 f0 00 00
	00		 mov	 eax, DWORD PTR [esi+240]
  00210	8b 0e		 mov	 ecx, DWORD PTR [esi]
  00212	50		 push	 eax
  00213	51		 push	 ecx
  00214	e8 00 00 00 00	 call	 ?GCMoneySend@@YAXHK@Z	; GCMoneySend
  00219	83 c4 08	 add	 esp, 8

; 1699 : 
; 1700 : 	if ( (rand()%100 ) < lpObj->ChaosSuccessRate )

  0021c	e8 00 00 00 00	 call	 _rand
  00221	99		 cdq
  00222	b9 64 00 00 00	 mov	 ecx, 100		; 00000064H
  00227	f7 f9		 idiv	 ecx
  00229	3b 96 84 0e 00
	00		 cmp	 edx, DWORD PTR [esi+3716]
  0022f	0f 8d ba 00 00
	00		 jge	 $LN10@CircleChao

; 1701 : 	{
; 1702 : 		int Fruit = ITEMGET(13,15);	// Fruit
; 1703 : 		int FruitType;
; 1704 : 		int RandonValue = rand() % 100;

  00235	e8 00 00 00 00	 call	 _rand
  0023a	99		 cdq
  0023b	b9 64 00 00 00	 mov	 ecx, 100		; 00000064H
  00240	f7 f9		 idiv	 ecx

; 1705 : 
; 1706 : 		if ( RandonValue < 30 )

  00242	83 fa 1e	 cmp	 edx, 30			; 0000001eH
  00245	7d 04		 jge	 SHORT $LN9@CircleChao

; 1707 : 		{
; 1708 : 			FruitType = 0;

  00247	33 c0		 xor	 eax, eax
  00249	eb 23		 jmp	 SHORT $LN3@CircleChao
$LN9@CircleChao:

; 1709 : 		}
; 1710 : 		else if ( RandonValue < 55 )

  0024b	83 fa 37	 cmp	 edx, 55			; 00000037H
  0024e	7d 07		 jge	 SHORT $LN7@CircleChao

; 1711 : 		{
; 1712 : 			FruitType = 1;

  00250	b8 01 00 00 00	 mov	 eax, 1
  00255	eb 17		 jmp	 SHORT $LN3@CircleChao
$LN7@CircleChao:

; 1713 : 		}
; 1714 : 		else if ( RandonValue < 75 )

  00257	83 fa 4b	 cmp	 edx, 75			; 0000004bH
  0025a	7d 07		 jge	 SHORT $LN5@CircleChao

; 1715 : 		{
; 1716 : 			FruitType = 2;

  0025c	b8 02 00 00 00	 mov	 eax, 2
  00261	eb 0b		 jmp	 SHORT $LN3@CircleChao
$LN5@CircleChao:

; 1717 : 		}
; 1718 : 		else if ( RandonValue < 95 )

  00263	33 c0		 xor	 eax, eax
  00265	83 fa 5f	 cmp	 edx, 95			; 0000005fH
  00268	0f 9d c0	 setge	 al
  0026b	83 c0 03	 add	 eax, 3
$LN3@CircleChao:

; 1719 : 		{
; 1720 : 			FruitType = 3;
; 1721 : 		}
; 1722 : 		else
; 1723 : 		{
; 1724 : 			FruitType = 4;
; 1725 : 		}
; 1726 : 
; 1727 : 		::ItemSerialCreateSend(lpObj->m_Index, -1, 0, 0, Fruit, (BYTE)FruitType, 255, 1, 0, 0, -1, 0, 0);

  0026e	6a 00		 push	 0
  00270	8b 16		 mov	 edx, DWORD PTR [esi]
  00272	6a 00		 push	 0
  00274	6a ff		 push	 -1
  00276	6a 00		 push	 0
  00278	6a 00		 push	 0
  0027a	6a 01		 push	 1
  0027c	68 ff 00 00 00	 push	 255			; 000000ffH
  00281	50		 push	 eax
  00282	68 0f 1a 00 00	 push	 6671			; 00001a0fH
  00287	6a 00		 push	 0
  00289	6a 00		 push	 0
  0028b	68 ff 00 00 00	 push	 255			; 000000ffH
  00290	52		 push	 edx
  00291	e8 00 00 00 00	 call	 ?ItemSerialCreateSend@@YAXHEEEHEEEEEHEE@Z ; ItemSerialCreateSend

; 1728 : 		::gObjInventoryCommit(lpObj->m_Index);

  00296	8b 06		 mov	 eax, DWORD PTR [esi]
  00298	50		 push	 eax
  00299	e8 00 00 00 00	 call	 ?gObjInventoryCommit@@YAHH@Z ; gObjInventoryCommit

; 1729 : #if(SYSTEM_ACHIEVEMENTS)
; 1730 : 		g_Achievements.SuccessChaosMix(lpObj->m_Index);

  0029e	8b 0e		 mov	 ecx, DWORD PTR [esi]
  002a0	83 c4 38	 add	 esp, 56			; 00000038H
  002a3	51		 push	 ecx
  002a4	b9 00 00 00 00	 mov	 ecx, OFFSET ?g_Achievements@@3VCAchievements@@A ; g_Achievements
  002a9	e8 00 00 00 00	 call	 ?SuccessChaosMix@CAchievements@@QAEXH@Z ; CAchievements::SuccessChaosMix

; 1731 : #endif
; 1732 : 		LogAddTD("[CircleMix] [%s][%s] CBMix Success %d Money : %d-%d, CharmRate : %d",
; 1733 : 			lpObj->AccountID, lpObj->Name, lpObj->ChaosSuccessRate, lpObj->Money, nChaosNeedMoney, iCharmOfLuckCount);

  002ae	8b 55 e8	 mov	 edx, DWORD PTR _iCharmOfLuckCount$[ebp]
  002b1	8b 86 f0 00 00
	00		 mov	 eax, DWORD PTR [esi+240]
  002b7	8b 8e 84 0e 00
	00		 mov	 ecx, DWORD PTR [esi+3716]
  002bd	52		 push	 edx
  002be	57		 push	 edi
  002bf	50		 push	 eax
  002c0	51		 push	 ecx
  002c1	8d 56 77	 lea	 edx, DWORD PTR [esi+119]
  002c4	52		 push	 edx
  002c5	83 c6 6c	 add	 esi, 108		; 0000006cH
  002c8	56		 push	 esi
  002c9	68 00 00 00 00	 push	 OFFSET ??_C@_0EE@PAFLGDEL@?$FLCircleMix?$FN?5?$FL?$CFs?$FN?$FL?$CFs?$FN?5CBMix?5Succe@
  002ce	ff 15 00 00 00
	00		 call	 DWORD PTR ?LogAddTD@@3P6AXPADZZA ; LogAddTD
  002d4	83 c4 1c	 add	 esp, 28			; 0000001cH
  002d7	5f		 pop	 edi
  002d8	5e		 pop	 esi

; 1734 : 
; 1735 : 		return TRUE;

  002d9	b8 01 00 00 00	 mov	 eax, 1
  002de	5b		 pop	 ebx

; 1748 : #endif
; 1749 : 		return FALSE;
; 1750 : 	}
; 1751 : }

  002df	8b 4d fc	 mov	 ecx, DWORD PTR __$ArrayPad$[ebp]
  002e2	33 cd		 xor	 ecx, ebp
  002e4	e8 00 00 00 00	 call	 @__security_check_cookie@4
  002e9	8b e5		 mov	 esp, ebp
  002eb	5d		 pop	 ebp
  002ec	c2 04 00	 ret	 4
$LN10@CircleChao:

; 1736 : 	}
; 1737 : 	else
; 1738 : 	{
; 1739 : 		this->ChaosBoxInit(lpObj);

  002ef	8b 4d dc	 mov	 ecx, DWORD PTR _this$[ebp]
  002f2	56		 push	 esi
  002f3	e8 00 00 00 00	 call	 ?ChaosBoxInit@CMixSystem@@QAEHPAUOBJECTSTRUCT@@@Z ; CMixSystem::ChaosBoxInit

; 1740 : 		GCUserChaosBoxSend(lpObj, 0);

  002f8	6a 00		 push	 0
  002fa	56		 push	 esi
  002fb	e8 00 00 00 00	 call	 ?GCUserChaosBoxSend@@YAXPAUOBJECTSTRUCT@@H@Z ; GCUserChaosBoxSend

; 1741 : 
; 1742 : 		DataSend(lpObj->m_Index, (LPBYTE)&pMsg, pMsg.h.size);

  00300	0f b6 45 ed	 movzx	 eax, BYTE PTR _pMsg$[ebp+1]
  00304	8b 16		 mov	 edx, DWORD PTR [esi]
  00306	50		 push	 eax
  00307	8d 4d ec	 lea	 ecx, DWORD PTR _pMsg$[ebp]
  0030a	51		 push	 ecx
  0030b	52		 push	 edx
  0030c	e8 00 00 00 00	 call	 ?DataSend@@YAHHPAEK@Z	; DataSend

; 1743 : 		LogAddTD("[CircleMix] [%s][%s] CBMix Fail %d Money : %d-%d, CharmRate : %d",
; 1744 : 			lpObj->AccountID, lpObj->Name, lpObj->ChaosSuccessRate, lpObj->Money, nChaosNeedMoney, iCharmOfLuckCount);

  00311	8b 45 e8	 mov	 eax, DWORD PTR _iCharmOfLuckCount$[ebp]
  00314	8b 8e f0 00 00
	00		 mov	 ecx, DWORD PTR [esi+240]
  0031a	8b 96 84 0e 00
	00		 mov	 edx, DWORD PTR [esi+3716]
  00320	50		 push	 eax
  00321	57		 push	 edi
  00322	51		 push	 ecx
  00323	52		 push	 edx
  00324	8d 46 77	 lea	 eax, DWORD PTR [esi+119]
  00327	50		 push	 eax
  00328	8d 4e 6c	 lea	 ecx, DWORD PTR [esi+108]
  0032b	51		 push	 ecx
  0032c	68 00 00 00 00	 push	 OFFSET ??_C@_0EB@FKBAIBLL@?$FLCircleMix?$FN?5?$FL?$CFs?$FN?$FL?$CFs?$FN?5CBMix?5Fail?5@
  00331	ff 15 00 00 00
	00		 call	 DWORD PTR ?LogAddTD@@3P6AXPADZZA ; LogAddTD

; 1745 : 		lpObj->ChaosLock = FALSE;
; 1746 : #if(SYSTEM_ACHIEVEMENTS)
; 1747 : 		g_Achievements.FailedChaosMix(lpObj->m_Index);

  00337	8b 16		 mov	 edx, DWORD PTR [esi]
  00339	83 c4 30	 add	 esp, 48			; 00000030H
  0033c	52		 push	 edx
  0033d	b9 00 00 00 00	 mov	 ecx, OFFSET ?g_Achievements@@3VCAchievements@@A ; g_Achievements
  00342	c7 86 88 0e 00
	00 00 00 00 00	 mov	 DWORD PTR [esi+3720], 0
  0034c	e8 00 00 00 00	 call	 ?FailedChaosMix@CAchievements@@QAEXH@Z ; CAchievements::FailedChaosMix
$LN16@CircleChao:

; 1748 : #endif
; 1749 : 		return FALSE;
; 1750 : 	}
; 1751 : }

  00351	8b 4d fc	 mov	 ecx, DWORD PTR __$ArrayPad$[ebp]
  00354	5f		 pop	 edi
  00355	5e		 pop	 esi
  00356	33 cd		 xor	 ecx, ebp
  00358	33 c0		 xor	 eax, eax
  0035a	5b		 pop	 ebx
  0035b	e8 00 00 00 00	 call	 @__security_check_cookie@4
  00360	8b e5		 mov	 esp, ebp
  00362	5d		 pop	 ebp
  00363	c2 04 00	 ret	 4
?CircleChaosMix@CMixSystem@@QAEHPAUOBJECTSTRUCT@@@Z ENDP ; CMixSystem::CircleChaosMix
_TEXT	ENDS
PUBLIC	??_C@_0EB@GCGNBAFG@?$FLWingMix?02?$FN?5?$FL?$CFs?$FN?$FL?$CFs?$FN?5CBMix?5Fail?5@ ; `string'
PUBLIC	??_C@_0EE@BHIPJGFK@?$FLWingMix?02?$FN?5?$FL?$CFs?$FN?$FL?$CFs?$FN?5CBMix?5Succe@ ; `string'
PUBLIC	??_C@_0EI@LFGBMPMJ@?$FLMixSystem?$FN?$FLWingChaosMix?$FN?5WingCh@ ; `string'
PUBLIC	??_C@_0BM@JPABEGNL@?$FLWingMix?02?$FN?5Chaos?5Mix?5Start?$AA@ ; `string'
PUBLIC	??_C@_09GJEFJCKN@WingMix?02?$AA@		; `string'
PUBLIC	__$ArrayPad$
PUBLIC	?WingChaosMix@CMixSystem@@QAEHPAUOBJECTSTRUCT@@@Z ; CMixSystem::WingChaosMix
EXTRN	_srand:PROC
;	COMDAT ??_C@_0EB@GCGNBAFG@?$FLWingMix?02?$FN?5?$FL?$CFs?$FN?$FL?$CFs?$FN?5CBMix?5Fail?5@
; File d:\program files (x86)\microsoft visual studio 10.0\vc\include\time.inl
CONST	SEGMENT
??_C@_0EB@GCGNBAFG@?$FLWingMix?02?$FN?5?$FL?$CFs?$FN?$FL?$CFs?$FN?5CBMix?5Fail?5@ DB '['
	DB	'WingMix,2] [%s][%s] CBMix Fail %d Money : %d-%d, CharmRate : '
	DB	'%d', 00H					; `string'
CONST	ENDS
;	COMDAT ??_C@_0EE@BHIPJGFK@?$FLWingMix?02?$FN?5?$FL?$CFs?$FN?$FL?$CFs?$FN?5CBMix?5Succe@
CONST	SEGMENT
??_C@_0EE@BHIPJGFK@?$FLWingMix?02?$FN?5?$FL?$CFs?$FN?$FL?$CFs?$FN?5CBMix?5Succe@ DB '['
	DB	'WingMix,2] [%s][%s] CBMix Success %d Money : %d-%d, CharmRate'
	DB	' : %d', 00H					; `string'
CONST	ENDS
;	COMDAT ??_C@_0EI@LFGBMPMJ@?$FLMixSystem?$FN?$FLWingChaosMix?$FN?5WingCh@
CONST	SEGMENT
??_C@_0EI@LFGBMPMJ@?$FLMixSystem?$FN?$FLWingChaosMix?$FN?5WingCh@ DB '[Mi'
	DB	'xSystem][WingChaosMix] WingCharmItemNum => %d , WingCharmInde'
	DB	'x => %d', 00H				; `string'
CONST	ENDS
;	COMDAT ??_C@_0BM@JPABEGNL@?$FLWingMix?02?$FN?5Chaos?5Mix?5Start?$AA@
CONST	SEGMENT
??_C@_0BM@JPABEGNL@?$FLWingMix?02?$FN?5Chaos?5Mix?5Start?$AA@ DB '[WingMi'
	DB	'x,2] Chaos Mix Start', 00H			; `string'
CONST	ENDS
;	COMDAT ??_C@_09GJEFJCKN@WingMix?02?$AA@
CONST	SEGMENT
??_C@_09GJEFJCKN@WingMix?02?$AA@ DB 'WingMix,2', 00H	; `string'
; Function compile flags: /Ogtp
; File e:\work\tranet_version\gs\gameserver\mixsystem.cpp
CONST	ENDS
;	COMDAT ?WingChaosMix@CMixSystem@@QAEHPAUOBJECTSTRUCT@@@Z
_TEXT	SEGMENT
_iWingNum$218334 = -56					; size = 4
_this$ = -56						; size = 4
_iChaosMoney$ = -52					; size = 4
_iSleeveOfLord$ = -48					; size = 4
_iOption1$218335 = -44					; size = 4
_WingCharmItemNum$ = -44				; size = 4
_iCharmOfLuckCount$ = -40				; size = 4
_iRandomValue$218339 = -36				; size = 4
_iWingChaosMoney$ = -36					; size = 4
_nChaosNeedMoney$ = -32					; size = 4
_LokesFeathersCount$ = -32				; size = 4
_iOption2$218336 = -28					; size = 4
_ChoasGemCount$ = -28					; size = 4
_iItemType$218306 = -24					; size = 4
_WingCount$ = -24					; size = 4
_pMsg$ = -20						; size = 16
__$ArrayPad$ = -4					; size = 4
_lpObj$ = 8						; size = 4
?WingChaosMix@CMixSystem@@QAEHPAUOBJECTSTRUCT@@@Z PROC	; CMixSystem::WingChaosMix, COMDAT
; _this$ = ecx

; 1754 : {

  00000	55		 push	 ebp
  00001	8b ec		 mov	 ebp, esp
  00003	83 ec 38	 sub	 esp, 56			; 00000038H
  00006	a1 00 00 00 00	 mov	 eax, DWORD PTR ___security_cookie
  0000b	33 c5		 xor	 eax, ebp
  0000d	89 45 fc	 mov	 DWORD PTR __$ArrayPad$[ebp], eax
  00010	53		 push	 ebx
  00011	56		 push	 esi
  00012	8b 75 08	 mov	 esi, DWORD PTR _lpObj$[ebp]
  00015	57		 push	 edi

; 1755 : 	lpObj->ChaosLock = TRUE;
; 1756 : 
; 1757 : 	int WingCount = 0;

  00016	33 ff		 xor	 edi, edi
  00018	89 4d c8	 mov	 DWORD PTR _this$[ebp], ecx
  0001b	c7 86 88 0e 00
	00 01 00 00 00	 mov	 DWORD PTR [esi+3720], 1
  00025	89 7d e8	 mov	 DWORD PTR _WingCount$[ebp], edi

; 1758 : 	int ChoasGemCount = 0;

  00028	89 7d e4	 mov	 DWORD PTR _ChoasGemCount$[ebp], edi

; 1759 : 	int LokesFeathersCount = 0;

  0002b	89 7d e0	 mov	 DWORD PTR _LokesFeathersCount$[ebp], edi

; 1760 : 	int WingIndex = -1;
; 1761 : 	int iChaosMoney = 0;

  0002e	33 db		 xor	 ebx, ebx

; 1762 : 	int WingCharmItemNum = -1; //season4.5 add-on

  00030	c7 45 d4 ff ff
	ff ff		 mov	 DWORD PTR _WingCharmItemNum$[ebp], -1

; 1763 : 	int iWingChaosMoney = 0;

  00037	89 7d dc	 mov	 DWORD PTR _iWingChaosMoney$[ebp], edi

; 1764 : 	int iSleeveOfLord = 0;

  0003a	89 7d d0	 mov	 DWORD PTR _iSleeveOfLord$[ebp], edi

; 1765 : 	int iCharmOfLuckCount = 0;

  0003d	89 7d d8	 mov	 DWORD PTR _iCharmOfLuckCount$[ebp], edi
$LL81@WingChaosM:

; 1768 : 	{
; 1769 : 		if ( lpObj->pChaosBox[n].IsItem() == TRUE )

  00040	8b 8e 78 0e 00
	00		 mov	 ecx, DWORD PTR [esi+3704]
  00046	03 cf		 add	 ecx, edi
  00048	e8 00 00 00 00	 call	 ?IsItem@CItem@@QAEHXZ	; CItem::IsItem
  0004d	83 f8 01	 cmp	 eax, 1
  00050	0f 85 0f 01 00
	00		 jne	 $LN80@WingChaosM

; 1770 : 		{
; 1771 : 			if ( (lpObj->pChaosBox[n].m_Type >= ITEMGET(12,3) && lpObj->pChaosBox[n].m_Type <= ITEMGET(12,6)) || lpObj->pChaosBox[n].m_Type == ITEMGET(12,42) || lpObj->pChaosBox[n].m_Type == ITEMGET(14,30) )	

  00056	8b 86 78 0e 00
	00		 mov	 eax, DWORD PTR [esi+3704]
  0005c	8d 0c 07	 lea	 ecx, DWORD PTR [edi+eax]
  0005f	0f b7 41 06	 movzx	 eax, WORD PTR [ecx+6]
  00063	ba 03 18 00 00	 mov	 edx, 6147		; 00001803H
  00068	66 3b c2	 cmp	 ax, dx
  0006b	7c 0e		 jl	 SHORT $LN75@WingChaosM
  0006d	ba 06 18 00 00	 mov	 edx, 6150		; 00001806H
  00072	66 3b c2	 cmp	 ax, dx
  00075	0f 8e 43 01 00
	00		 jle	 $LN88@WingChaosM
$LN75@WingChaosM:
  0007b	ba 2a 18 00 00	 mov	 edx, 6186		; 0000182aH
  00080	66 3b c2	 cmp	 ax, dx
  00083	0f 84 35 01 00
	00		 je	 $LN88@WingChaosM
  00089	ba 1e 1c 00 00	 mov	 edx, 7198		; 00001c1eH
  0008e	66 3b c2	 cmp	 ax, dx
  00091	0f 84 27 01 00
	00		 je	 $LN88@WingChaosM

; 1776 : 			}
; 1777 : 			if ( lpObj->pChaosBox[n].m_Type >= ITEMGET(12,0) && lpObj->pChaosBox[n].m_Type <= ITEMGET(12,2) ) 

  00097	ba 00 18 00 00	 mov	 edx, 6144		; 00001800H
  0009c	66 3b c2	 cmp	 ax, dx
  0009f	7c 13		 jl	 SHORT $LN74@WingChaosM
  000a1	ba 02 18 00 00	 mov	 edx, 6146		; 00001802H
  000a6	66 3b c2	 cmp	 ax, dx
  000a9	7f 09		 jg	 SHORT $LN74@WingChaosM

; 1778 : 			{
; 1779 : 				WingCount++;
; 1780 : 				WingIndex = n;
; 1781 : 				iWingChaosMoney = lpObj->pChaosBox[n].m_BuyMoney;

  000ab	8b 51 70	 mov	 edx, DWORD PTR [ecx+112]
  000ae	ff 45 e8	 inc	 DWORD PTR _WingCount$[ebp]
  000b1	89 55 dc	 mov	 DWORD PTR _iWingChaosMoney$[ebp], edx
$LN74@WingChaosM:

; 1782 : 			}
; 1783 : 			if ( lpObj->pChaosBox[n].m_Type == ITEMGET(12,41) ) //season3 add-on

  000b4	ba 29 18 00 00	 mov	 edx, 6185		; 00001829H
  000b9	66 3b c2	 cmp	 ax, dx
  000bc	75 0e		 jne	 SHORT $LN73@WingChaosM

; 1784 : 			{
; 1785 : 				WingCount++;
; 1786 : 				WingIndex = n;
; 1787 : 				iWingChaosMoney = lpObj->pChaosBox[n].m_BuyMoney;

  000be	8b 41 70	 mov	 eax, DWORD PTR [ecx+112]
  000c1	ff 45 e8	 inc	 DWORD PTR _WingCount$[ebp]
  000c4	89 45 dc	 mov	 DWORD PTR _iWingChaosMoney$[ebp], eax
  000c7	e9 99 00 00 00	 jmp	 $LN80@WingChaosM
$LN73@WingChaosM:

; 1788 : 			}
; 1789 : 			else if ( lpObj->pChaosBox[n].m_Type == ITEMGET(12,15) ) // Chaos

  000cc	ba 0f 18 00 00	 mov	 edx, 6159		; 0000180fH
  000d1	66 3b c2	 cmp	 ax, dx
  000d4	75 08		 jne	 SHORT $LN71@WingChaosM

; 1790 : 			{
; 1791 : 				ChoasGemCount++;

  000d6	ff 45 e4	 inc	 DWORD PTR _ChoasGemCount$[ebp]
  000d9	e9 87 00 00 00	 jmp	 $LN80@WingChaosM
$LN71@WingChaosM:

; 1792 : 			}
; 1793 : 			else if ( lpObj->pChaosBox[n].m_Type == ITEMGET(13,14) ) // Feather

  000de	ba 0e 1a 00 00	 mov	 edx, 6670		; 00001a0eH
  000e3	66 3b c2	 cmp	 ax, dx
  000e6	75 11		 jne	 SHORT $LN69@WingChaosM

; 1794 : 			{
; 1795 : 				if ( lpObj->pChaosBox[n].m_Level == 0 ) // Feather

  000e8	66 83 79 08 00	 cmp	 WORD PTR [ecx+8], 0
  000ed	75 05		 jne	 SHORT $LN68@WingChaosM

; 1796 : 				{
; 1797 : 					LokesFeathersCount++;

  000ef	ff 45 e0	 inc	 DWORD PTR _LokesFeathersCount$[ebp]

; 1798 : 				}
; 1799 : 				else

  000f2	eb 71		 jmp	 SHORT $LN80@WingChaosM
$LN68@WingChaosM:

; 1800 : 				{
; 1801 : 					iSleeveOfLord ++;

  000f4	ff 45 d0	 inc	 DWORD PTR _iSleeveOfLord$[ebp]

; 1802 : 				}

  000f7	eb 6c		 jmp	 SHORT $LN80@WingChaosM
$LN69@WingChaosM:

; 1803 : 			}
; 1804 : 			else if ( lpObj->pChaosBox[n].m_Type == ITEMGET(14,53) )	// Charm Of Luck

  000f9	ba 35 1c 00 00	 mov	 edx, 7221		; 00001c35H
  000fe	66 3b c2	 cmp	 ax, dx
  00101	75 0d		 jne	 SHORT $LN65@WingChaosM

; 1805 : 			{
; 1806 : 				iCharmOfLuckCount += (int)lpObj->pChaosBox[n].m_Durability;

  00103	d9 41 24	 fld	 DWORD PTR [ecx+36]
  00106	e8 00 00 00 00	 call	 __ftol2_sse
  0010b	01 45 d8	 add	 DWORD PTR _iCharmOfLuckCount$[ebp], eax

; 1807 : 			}
; 1808 : 			else if(lpObj->pChaosBox[n].m_Type == ITEMGET(13,88) || //season4.5 add-on

  0010e	eb 55		 jmp	 SHORT $LN80@WingChaosM
$LN65@WingChaosM:

; 1809 : 					lpObj->pChaosBox[n].m_Type == ITEMGET(13,89) ||
; 1810 : 					lpObj->pChaosBox[n].m_Type == ITEMGET(13,90) ||
; 1811 : 					lpObj->pChaosBox[n].m_Type == ITEMGET(13,91) ||
; 1812 : 					lpObj->pChaosBox[n].m_Type == ITEMGET(13,92) )

  00110	ba 58 1a 00 00	 mov	 edx, 6744		; 00001a58H
  00115	66 3b c2	 cmp	 ax, dx
  00118	74 45		 je	 SHORT $LN62@WingChaosM
  0011a	ba 59 1a 00 00	 mov	 edx, 6745		; 00001a59H
  0011f	66 3b c2	 cmp	 ax, dx
  00122	74 3b		 je	 SHORT $LN62@WingChaosM
  00124	ba 5a 1a 00 00	 mov	 edx, 6746		; 00001a5aH
  00129	66 3b c2	 cmp	 ax, dx
  0012c	74 31		 je	 SHORT $LN62@WingChaosM
  0012e	ba 5b 1a 00 00	 mov	 edx, 6747		; 00001a5bH
  00133	66 3b c2	 cmp	 ax, dx
  00136	74 27		 je	 SHORT $LN62@WingChaosM
  00138	ba 5c 1a 00 00	 mov	 edx, 6748		; 00001a5cH
  0013d	66 3b c2	 cmp	 ax, dx
  00140	74 1d		 je	 SHORT $LN62@WingChaosM

; 1815 : 			}
; 1816 : 			else if ( lpObj->pChaosBox[n].IsExtItem() != FALSE )

  00142	e8 00 00 00 00	 call	 ?IsExtItem@CItem@@QAEHXZ ; CItem::IsExtItem
  00147	85 c0		 test	 eax, eax
  00149	74 1a		 je	 SHORT $LN80@WingChaosM

; 1817 : 			{
; 1818 : 				if ( lpObj->pChaosBox[n].m_Level >= 4 )

  0014b	8b 86 78 0e 00
	00		 mov	 eax, DWORD PTR [esi+3704]
  00151	66 83 7c 38 08
	04		 cmp	 WORD PTR [eax+edi+8], 4
  00157	7c 0c		 jl	 SHORT $LN80@WingChaosM

; 1819 : 				{
; 1820 : 					iChaosMoney += lpObj->pChaosBox[n].m_BuyMoney;

  00159	03 5c 38 70	 add	 ebx, DWORD PTR [eax+edi+112]
  0015d	eb 06		 jmp	 SHORT $LN80@WingChaosM
$LN62@WingChaosM:

; 1813 : 			{
; 1814 : 				WingCharmItemNum = lpObj->pChaosBox[n].m_Type;

  0015f	0f bf c8	 movsx	 ecx, ax
  00162	89 4d d4	 mov	 DWORD PTR _WingCharmItemNum$[ebp], ecx
$LN80@WingChaosM:

; 1766 : 
; 1767 : 	for ( int n=0;n<CHAOS_BOX_SIZE;n++)

  00165	81 c7 d4 00 00
	00		 add	 edi, 212		; 000000d4H
  0016b	81 ff 80 1a 00
	00		 cmp	 edi, 6784		; 00001a80H
  00171	0f 8c c9 fe ff
	ff		 jl	 $LL81@WingChaosM

; 1821 : 				}
; 1822 : 			}
; 1823 : 		}
; 1824 : 	}
; 1825 : 
; 1826 : 	PMSG_CHAOSMIXRESULT pMsg;
; 1827 : 
; 1828 : 	PHeadSetB((LPBYTE)&pMsg.h, 0x86, sizeof(PMSG_CHAOSMIXRESULT));

  00177	6a 10		 push	 16			; 00000010H
  00179	8d 55 ec	 lea	 edx, DWORD PTR _pMsg$[ebp]
  0017c	68 86 00 00 00	 push	 134			; 00000086H
  00181	52		 push	 edx
  00182	89 5d cc	 mov	 DWORD PTR _iChaosMoney$[ebp], ebx
  00185	e8 00 00 00 00	 call	 ?PHeadSetB@@YAXPAEEH@Z	; PHeadSetB

; 1829 : 	pMsg.Result = CB_ERROR;
; 1830 : 
; 1831 : 	if ( iSleeveOfLord == 1 )

  0018a	8b 45 d0	 mov	 eax, DWORD PTR _iSleeveOfLord$[ebp]
  0018d	b9 01 00 00 00	 mov	 ecx, 1
  00192	83 c4 0c	 add	 esp, 12			; 0000000cH
  00195	c6 45 ef 00	 mov	 BYTE PTR _pMsg$[ebp+3], 0
  00199	3b c1		 cmp	 eax, ecx
  0019b	75 30		 jne	 SHORT $LN58@WingChaosM

; 1832 : 	{
; 1833 : 		if ( WingCount != 1 || ChoasGemCount != 1 || LokesFeathersCount != 0 )

  0019d	39 4d e8	 cmp	 DWORD PTR _WingCount$[ebp], ecx
  001a0	75 0b		 jne	 SHORT $LN91@WingChaosM
  001a2	39 4d e4	 cmp	 DWORD PTR _ChoasGemCount$[ebp], ecx
  001a5	75 06		 jne	 SHORT $LN91@WingChaosM
  001a7	83 7d e0 00	 cmp	 DWORD PTR _LokesFeathersCount$[ebp], 0
  001ab	74 43		 je	 SHORT $LN53@WingChaosM
$LN91@WingChaosM:

; 1834 : 		{
; 1835 : 			lpObj->ChaosLock = FALSE;
; 1836 : 			pMsg.Result = CB_INCORRECT_MIX_ITEMS;
; 1837 : 			DataSend(lpObj->m_Index, (LPBYTE)&pMsg, pMsg.h.size);

  001ad	0f b6 45 ed	 movzx	 eax, BYTE PTR _pMsg$[ebp+1]
  001b1	8b 16		 mov	 edx, DWORD PTR [esi]
  001b3	50		 push	 eax
  001b4	8d 4d ec	 lea	 ecx, DWORD PTR _pMsg$[ebp]
  001b7	51		 push	 ecx
  001b8	52		 push	 edx

; 1838 : 			return FALSE;

  001b9	e9 b4 04 00 00	 jmp	 $LN103@WingChaosM
$LN88@WingChaosM:

; 1772 : 			{
; 1773 : 				lpObj->ChaosLock = FALSE;

  001be	c7 86 88 0e 00
	00 00 00 00 00	 mov	 DWORD PTR [esi+3720], 0

; 1774 : 
; 1775 : 				return FALSE;

  001c8	e9 bb 04 00 00	 jmp	 $LN102@WingChaosM
$LN58@WingChaosM:

; 1839 : 		}
; 1840 : 	}
; 1841 : 	else if ( LokesFeathersCount == 1 )

  001cd	39 4d e0	 cmp	 DWORD PTR _LokesFeathersCount$[ebp], ecx
  001d0	0f 85 90 04 00
	00		 jne	 $LN54@WingChaosM

; 1842 : 	{
; 1843 : 		if ( WingCount != 1 || ChoasGemCount != 1 || iSleeveOfLord != 0 )

  001d6	39 4d e8	 cmp	 DWORD PTR _WingCount$[ebp], ecx
  001d9	0f 85 ff 00 00
	00		 jne	 $LN92@WingChaosM
  001df	39 4d e4	 cmp	 DWORD PTR _ChoasGemCount$[ebp], ecx
  001e2	0f 85 f6 00 00
	00		 jne	 $LN92@WingChaosM
  001e8	85 c0		 test	 eax, eax
  001ea	0f 85 ee 00 00
	00		 jne	 $LN92@WingChaosM
$LN53@WingChaosM:

; 1857 : 
; 1858 : 		return FALSE;
; 1859 : 	}
; 1860 : 
; 1861 : 	if ( iCharmOfLuckCount > 10 )

  001f0	83 7d d8 0a	 cmp	 DWORD PTR _iCharmOfLuckCount$[ebp], 10 ; 0000000aH
  001f4	7e 22		 jle	 SHORT $LN50@WingChaosM

; 1862 : 	{
; 1863 : 		lpObj->ChaosLock = FALSE;
; 1864 : 		pMsg.Result = 0xF0;
; 1865 : 		DataSend(lpObj->m_Index, (LPBYTE)&pMsg, pMsg.h.size);

  001f6	0f b6 45 ed	 movzx	 eax, BYTE PTR _pMsg$[ebp+1]
  001fa	8b 16		 mov	 edx, DWORD PTR [esi]
  001fc	50		 push	 eax
  001fd	8d 4d ec	 lea	 ecx, DWORD PTR _pMsg$[ebp]
  00200	51		 push	 ecx
  00201	52		 push	 edx
  00202	c7 86 88 0e 00
	00 00 00 00 00	 mov	 DWORD PTR [esi+3720], 0
  0020c	c6 45 ef f0	 mov	 BYTE PTR _pMsg$[ebp+3], 240 ; 000000f0H
  00210	e8 00 00 00 00	 call	 ?DataSend@@YAHHPAEK@Z	; DataSend
  00215	83 c4 0c	 add	 esp, 12			; 0000000cH
$LN50@WingChaosM:

; 1866 : 	}
; 1867 : 
; 1868 : 	int nChaosNeedMoney = 5000000;
; 1869 : 	int iChaosTaxMoney = (int)((__int64)nChaosNeedMoney * (__int64)g_CastleSiegeSync.GetTaxRateChaos(lpObj->m_Index) / (__int64)100);

  00218	8b 06		 mov	 eax, DWORD PTR [esi]
  0021a	50		 push	 eax
  0021b	b9 00 00 00 00	 mov	 ecx, OFFSET ?g_CastleSiegeSync@@3VCCastleSiegeSync@@A ; g_CastleSiegeSync
  00220	e8 00 00 00 00	 call	 ?GetTaxRateChaos@CCastleSiegeSync@@QAEHH@Z ; CCastleSiegeSync::GetTaxRateChaos
  00225	6a 00		 push	 0
  00227	99		 cdq
  00228	68 40 4b 4c 00	 push	 5000000			; 004c4b40H
  0022d	52		 push	 edx
  0022e	50		 push	 eax
  0022f	e8 00 00 00 00	 call	 __allmul
  00234	6a 00		 push	 0
  00236	6a 64		 push	 100			; 00000064H
  00238	52		 push	 edx
  00239	50		 push	 eax
  0023a	e8 00 00 00 00	 call	 __alldiv
  0023f	8b f8		 mov	 edi, eax

; 1870 : 
; 1871 : 	if ( iChaosTaxMoney < 0 )

  00241	85 ff		 test	 edi, edi
  00243	79 02		 jns	 SHORT $LN49@WingChaosM

; 1872 : 	{
; 1873 : 		iChaosTaxMoney = 0;

  00245	33 ff		 xor	 edi, edi
$LN49@WingChaosM:

; 1874 : 	}
; 1875 : 
; 1876 : 	nChaosNeedMoney += iChaosTaxMoney;
; 1877 : 
; 1878 : 		nChaosNeedMoney += lpObj->m_AddMixMoney;

  00247	8b 8e 20 28 00
	00		 mov	 ecx, DWORD PTR [esi+10272]
  0024d	8d 9c 39 40 4b
	4c 00		 lea	 ebx, DWORD PTR [ecx+edi+5000000]
  00254	89 5d e0	 mov	 DWORD PTR _nChaosNeedMoney$[ebp], ebx

; 1879 : 
; 1880 : 	if ( nChaosNeedMoney < 0 )

  00257	85 db		 test	 ebx, ebx
  00259	79 05		 jns	 SHORT $LN48@WingChaosM

; 1881 : 	{
; 1882 : 		nChaosNeedMoney = 0;

  0025b	33 db		 xor	 ebx, ebx
  0025d	89 5d e0	 mov	 DWORD PTR _nChaosNeedMoney$[ebp], ebx
$LN48@WingChaosM:

; 1883 : 	}
; 1884 : 
; 1885 : 	if ( lpObj->Money < nChaosNeedMoney )

  00260	39 9e f0 00 00
	00		 cmp	 DWORD PTR [esi+240], ebx
  00266	7d 3a		 jge	 SHORT $LN47@WingChaosM

; 1886 : 	{
; 1887 : 		pMsg.Result = CB_NOT_ENOUGH_ZEN;
; 1888 : 		
; 1889 : 		DataSend(lpObj->m_Index, (LPBYTE)&pMsg, pMsg.h.size);

  00268	0f b6 55 ed	 movzx	 edx, BYTE PTR _pMsg$[ebp+1]
  0026c	8b 0e		 mov	 ecx, DWORD PTR [esi]
  0026e	52		 push	 edx
  0026f	8d 45 ec	 lea	 eax, DWORD PTR _pMsg$[ebp]
  00272	50		 push	 eax
  00273	51		 push	 ecx
  00274	c6 45 ef 02	 mov	 BYTE PTR _pMsg$[ebp+3], 2
  00278	e8 00 00 00 00	 call	 ?DataSend@@YAHHPAEK@Z	; DataSend
  0027d	83 c4 0c	 add	 esp, 12			; 0000000cH
  00280	5f		 pop	 edi

; 1890 : 		lpObj->ChaosLock = FALSE;

  00281	c7 86 88 0e 00
	00 00 00 00 00	 mov	 DWORD PTR [esi+3720], 0
  0028b	5e		 pop	 esi

; 1891 : 
; 1892 : 		return TRUE;

  0028c	b8 01 00 00 00	 mov	 eax, 1
  00291	5b		 pop	 ebx

; 2115 : 	}
; 2116 : }

  00292	8b 4d fc	 mov	 ecx, DWORD PTR __$ArrayPad$[ebp]
  00295	33 cd		 xor	 ecx, ebp
  00297	e8 00 00 00 00	 call	 @__security_check_cookie@4
  0029c	8b e5		 mov	 esp, ebp
  0029e	5d		 pop	 ebp
  0029f	c2 04 00	 ret	 4
$LN47@WingChaosM:

; 1893 : 	}
; 1894 : 
; 1895 : 	CItem * pWing = &lpObj->pChaosBox[WingIndex];
; 1896 : 	lpObj->ChaosSuccessRate = (DWORD)((DWORD)iWingChaosMoney / (DWORD)4000000);

  002a2	b8 83 de 1b 43	 mov	 eax, 1125899907		; 431bde83H
  002a7	f7 65 dc	 mul	 DWORD PTR _iWingChaosMoney$[ebp]
  002aa	8b ca		 mov	 ecx, edx

; 1897 : 	lpObj->ChaosSuccessRate += iChaosMoney / 40000;

  002ac	b8 ad 8b db 68	 mov	 eax, 1759218605		; 68db8badH
  002b1	f7 6d cc	 imul	 DWORD PTR _iChaosMoney$[ebp]
  002b4	c1 fa 0e	 sar	 edx, 14			; 0000000eH
  002b7	c1 e9 14	 shr	 ecx, 20			; 00000014H
  002ba	8b c2		 mov	 eax, edx
  002bc	c1 e8 1f	 shr	 eax, 31			; 0000001fH
  002bf	03 ca		 add	 ecx, edx
  002c1	03 c1		 add	 eax, ecx
  002c3	89 86 84 0e 00
	00		 mov	 DWORD PTR [esi+3716], eax

; 1898 : 
; 1899 : 	if ( lpObj->ChaosSuccessRate < 0 ) //season 2.5 fix

  002c9	79 0a		 jns	 SHORT $LN46@WingChaosM

; 1900 : 	{
; 1901 : 		lpObj->ChaosSuccessRate =  100;

  002cb	c7 86 84 0e 00
	00 64 00 00 00	 mov	 DWORD PTR [esi+3716], 100 ; 00000064H
$LN46@WingChaosM:

; 1902 : 	}
; 1903 : 
; 1904 : 	if ( lpObj->ChaosSuccessRate == 0 )

  002d5	83 be 84 0e 00
	00 00		 cmp	 DWORD PTR [esi+3716], 0
  002dc	75 24		 jne	 SHORT $LN45@WingChaosM
$LN92@WingChaosM:

; 1905 : 	{
; 1906 : 		pMsg.Result = CB_INCORRECT_MIX_ITEMS;
; 1907 : 		DataSend(lpObj->m_Index, (LPBYTE)&pMsg, pMsg.h.size);

  002de	0f b6 4d ed	 movzx	 ecx, BYTE PTR _pMsg$[ebp+1]
  002e2	8b 06		 mov	 eax, DWORD PTR [esi]
  002e4	51		 push	 ecx
  002e5	8d 55 ec	 lea	 edx, DWORD PTR _pMsg$[ebp]
  002e8	52		 push	 edx
  002e9	50		 push	 eax
  002ea	c6 45 ef 07	 mov	 BYTE PTR _pMsg$[ebp+3], 7
  002ee	e8 00 00 00 00	 call	 ?DataSend@@YAHHPAEK@Z	; DataSend

; 1908 : 		lpObj->ChaosLock = FALSE;

  002f3	c7 86 88 0e 00
	00 00 00 00 00	 mov	 DWORD PTR [esi+3720], 0

; 1909 : 
; 1910 : 		return FALSE;

  002fd	e9 83 03 00 00	 jmp	 $LN104@WingChaosM
$LN45@WingChaosM:

; 1911 : 	}
; 1912 : 
; 1913 : 	LogChaosItem(lpObj, "WingMix,2");

  00302	8b 4d c8	 mov	 ecx, DWORD PTR _this$[ebp]
  00305	68 00 00 00 00	 push	 OFFSET ??_C@_09GJEFJCKN@WingMix?02?$AA@
  0030a	56		 push	 esi
  0030b	e8 00 00 00 00	 call	 ?LogChaosItem@CMixSystem@@QAEXPAUOBJECTSTRUCT@@PAD@Z ; CMixSystem::LogChaosItem

; 1914 : 	LogAddTD("[WingMix,2] Chaos Mix Start");

  00310	68 00 00 00 00	 push	 OFFSET ??_C@_0BM@JPABEGNL@?$FLWingMix?02?$FN?5Chaos?5Mix?5Start?$AA@
  00315	ff 15 00 00 00
	00		 call	 DWORD PTR ?LogAddTD@@3P6AXPADZZA ; LogAddTD

; 1915 : 	//int ZtWing2MaxSuccessRate = GetPrivateProfileInt("ChaosMix","Wing2MaxSuccessRate",90,"..\\Data\\ZtData\\CommonServer.ini");
; 1916 : 	if(lpObj->ChaosSuccessRate > ZtConfig.CommonServer.ZtWing2MaxSuccessRate)

  0031b	a1 84 00 00 00	 mov	 eax, DWORD PTR ?ZtConfig@@3VcZtConfigs@@A+132
  00320	83 c4 04	 add	 esp, 4
  00323	39 86 84 0e 00
	00		 cmp	 DWORD PTR [esi+3716], eax
  00329	7e 06		 jle	 SHORT $LN44@WingChaosM

; 1917 : 	{
; 1918 : 		lpObj->ChaosSuccessRate = ZtConfig.CommonServer.ZtWing2MaxSuccessRate;

  0032b	89 86 84 0e 00
	00		 mov	 DWORD PTR [esi+3716], eax
$LN44@WingChaosM:

; 1919 : 	}
; 1920 : 
; 1921 : 	lpObj->ChaosSuccessRate += iCharmOfLuckCount;
; 1922 : 
; 1923 : 	lpObj->ChaosSuccessRate += lpObj->m_AddMixSuccessRate;

  00331	8b 8e 24 28 00
	00		 mov	 ecx, DWORD PTR [esi+10276]
  00337	03 4d d8	 add	 ecx, DWORD PTR _iCharmOfLuckCount$[ebp]

; 1924 : 
; 1925 : 
; 1926 : 	lpObj->Money  -= nChaosNeedMoney;

  0033a	29 9e f0 00 00
	00		 sub	 DWORD PTR [esi+240], ebx
  00340	01 8e 84 0e 00
	00		 add	 DWORD PTR [esi+3716], ecx

; 1927 : 	g_CastleSiegeSync.AddTributeMoney(iChaosTaxMoney);

  00346	57		 push	 edi
  00347	b9 00 00 00 00	 mov	 ecx, OFFSET ?g_CastleSiegeSync@@3VCCastleSiegeSync@@A ; g_CastleSiegeSync
  0034c	e8 00 00 00 00	 call	 ?AddTributeMoney@CCastleSiegeSync@@QAEXH@Z ; CCastleSiegeSync::AddTributeMoney

; 1928 : 	GCMoneySend(lpObj->m_Index, lpObj->Money);

  00351	8b 96 f0 00 00
	00		 mov	 edx, DWORD PTR [esi+240]
  00357	8b 06		 mov	 eax, DWORD PTR [esi]
  00359	52		 push	 edx
  0035a	50		 push	 eax
  0035b	e8 00 00 00 00	 call	 ?GCMoneySend@@YAXHK@Z	; GCMoneySend

; 1929 : 
; 1930 : 	srand(time(NULL));

  00360	6a 00		 push	 0
  00362	e8 00 00 00 00	 call	 __time64
  00367	50		 push	 eax
  00368	e8 00 00 00 00	 call	 _srand
  0036d	83 c4 10	 add	 esp, 16			; 00000010H

; 1931 : 
; 1932 : 	if ( (rand()%100) < lpObj->ChaosSuccessRate )

  00370	e8 00 00 00 00	 call	 _rand
  00375	99		 cdq
  00376	b9 64 00 00 00	 mov	 ecx, 100		; 00000064H
  0037b	f7 f9		 idiv	 ecx
  0037d	3b 96 84 0e 00
	00		 cmp	 edx, DWORD PTR [esi+3716]
  00383	0f 8d 65 02 00
	00		 jge	 $LN43@WingChaosM

; 1933 : 	{
; 1934 : 		int iWingLevel = 0;
; 1935 : 		int iItemType;
; 1936 : 		int iItemSubType;
; 1937 : 
; 1938 : 		if ( iSleeveOfLord != 0 )

  00389	83 7d d0 00	 cmp	 DWORD PTR _iSleeveOfLord$[ebp], 0
  0038d	8d 59 a9	 lea	 ebx, DWORD PTR [ecx-87]
  00390	8d 79 a8	 lea	 edi, DWORD PTR [ecx-88]
  00393	74 36		 je	 SHORT $LN42@WingChaosM

; 1939 : 		{
; 1940 : 
; 1941 : 			if(ZtConfig.ZtCustom.SwitchChar == 1 || ZtConfig.ZtCustom.SwitchChar == 2)

  00395	a1 00 00 00 00	 mov	 eax, DWORD PTR ?ZtConfig@@3VcZtConfigs@@A
  0039a	83 f8 01	 cmp	 eax, 1
  0039d	74 18		 je	 SHORT $LN40@WingChaosM
  0039f	83 f8 02	 cmp	 eax, 2
  003a2	74 13		 je	 SHORT $LN40@WingChaosM

; 1942 : 			{
; 1943 : 				iItemType		= 13;
; 1944 : 				iItemSubType	= 30;
; 1945 : 			}
; 1946 : 			else
; 1947 : 			{
; 1948 : 				if( rand() % 2 )

  003a4	e8 00 00 00 00	 call	 _rand
  003a9	25 01 00 00 80	 and	 eax, -2147483647	; 80000001H
  003ae	79 05		 jns	 SHORT $LN96@WingChaosM
  003b0	48		 dec	 eax
  003b1	83 c8 fe	 or	 eax, -2			; fffffffeH
  003b4	40		 inc	 eax
$LN96@WingChaosM:
  003b5	74 0a		 je	 SHORT $LN38@WingChaosM
$LN40@WingChaosM:

; 1949 : 				{
; 1950 : 					iItemType		= 13;

  003b7	89 5d e8	 mov	 DWORD PTR _iItemType$218306[ebp], ebx

; 1951 : 					iItemSubType	= 30;

  003ba	bf 1e 00 00 00	 mov	 edi, 30			; 0000001eH

; 1952 : 				}
; 1953 : 				else

  003bf	eb 44		 jmp	 SHORT $LN34@WingChaosM
$LN38@WingChaosM:

; 1954 : 				{
; 1955 : 					iItemType		= 12;

  003c1	89 7d e8	 mov	 DWORD PTR _iItemType$218306[ebp], edi

; 1956 : 					iItemSubType	= 49;

  003c4	bf 31 00 00 00	 mov	 edi, 49			; 00000031H
  003c9	eb 3a		 jmp	 SHORT $LN34@WingChaosM
$LN42@WingChaosM:

; 1957 : 				}
; 1958 : 			}
; 1959 : 
; 1960 : 
; 1961 : 
; 1962 : 		}
; 1963 : 		else
; 1964 : 		{
; 1965 : 			iItemType = 12;

  003cb	89 7d e8	 mov	 DWORD PTR _iItemType$218306[ebp], edi

; 1966 : #ifdef MART_FIX
; 1967 : 			int iRand = rand()%5;

  003ce	e8 00 00 00 00	 call	 _rand
  003d3	99		 cdq
  003d4	b9 05 00 00 00	 mov	 ecx, 5
  003d9	f7 f9		 idiv	 ecx

; 1968 : #else
; 1969 : 			int iRand = rand()%4;
; 1970 : #endif // MART_FIX
; 1971 : 
; 1972 : 			if(iRand == 4 && ZtConfig.ZtCustom.SwitchChar != 2)//Conflict //See DangeR

  003db	83 fa 04	 cmp	 edx, 4
  003de	75 0e		 jne	 SHORT $LN35@WingChaosM
  003e0	83 3d 00 00 00
	00 02		 cmp	 DWORD PTR ?ZtConfig@@3VcZtConfigs@@A, 2
  003e7	74 05		 je	 SHORT $LN35@WingChaosM

; 1973 : 			{
; 1974 : 				iItemSubType = 42;

  003e9	8d 79 25	 lea	 edi, DWORD PTR [ecx+37]

; 1975 : 			}
; 1976 : 			else

  003ec	eb 17		 jmp	 SHORT $LN34@WingChaosM
$LN35@WingChaosM:

; 1977 : 			{
; 1978 : 				iRand = rand()%4;

  003ee	e8 00 00 00 00	 call	 _rand
  003f3	8b f8		 mov	 edi, eax
  003f5	81 e7 03 00 00
	80		 and	 edi, -2147483645	; 80000003H
  003fb	79 05		 jns	 SHORT $LN97@WingChaosM
  003fd	4f		 dec	 edi
  003fe	83 cf fc	 or	 edi, -4			; fffffffcH
  00401	47		 inc	 edi
$LN97@WingChaosM:

; 1979 : 				iItemSubType = iRand + 3;//twister slash

  00402	83 c7 03	 add	 edi, 3
$LN34@WingChaosM:

; 1980 : 			}
; 1981 : 		}
; 1982 : 
; 1983 : 		if(WingCharmItemNum > -1) //season4.5 add-on

  00405	8b 55 d4	 mov	 edx, DWORD PTR _WingCharmItemNum$[ebp]
  00408	83 fa ff	 cmp	 edx, -1
  0040b	7e 6b		 jle	 SHORT $LN31@WingChaosM

; 1984 : 		{
; 1985 : 			int WingCharmIndex = WingCharmItemNum ^ ITEMGET(13,0);

  0040d	8b c2		 mov	 eax, edx
  0040f	35 00 1a 00 00	 xor	 eax, 6656		; 00001a00H

; 1986 : 
; 1987 : 			switch(WingCharmIndex)

  00414	8d 48 a8	 lea	 ecx, DWORD PTR [eax-88]
  00417	83 f9 04	 cmp	 ecx, 4
  0041a	77 4c		 ja	 SHORT $LN23@WingChaosM
  0041c	ff 24 8d 00 00
	00 00		 jmp	 DWORD PTR $LN108@WingChaosM[ecx*4]
$LN30@WingChaosM:

; 1988 : 			{
; 1989 : 			case 88:
; 1990 : 				iItemSubType = 5;

  00423	bf 05 00 00 00	 mov	 edi, 5

; 1991 : 				break;

  00428	eb 4e		 jmp	 SHORT $LN31@WingChaosM
$LN29@WingChaosM:

; 1992 : 			case 89:
; 1993 : 				iItemSubType = 4;

  0042a	bf 04 00 00 00	 mov	 edi, 4

; 1994 : 				break;

  0042f	eb 47		 jmp	 SHORT $LN31@WingChaosM
$LN28@WingChaosM:

; 1995 : 			case 90:
; 1996 : 				iItemSubType = 3;

  00431	bf 03 00 00 00	 mov	 edi, 3

; 1997 : 				break;

  00436	eb 40		 jmp	 SHORT $LN31@WingChaosM
$LN27@WingChaosM:

; 1998 : 			case 91:
; 1999 : 				{
; 2000 : 					if(ZtConfig.ZtCustom.SwitchChar == 2)

  00438	83 3d 00 00 00
	00 02		 cmp	 DWORD PTR ?ZtConfig@@3VcZtConfigs@@A, 2
  0043f	75 19		 jne	 SHORT $LN26@WingChaosM

; 2001 : 					{
; 2002 : 						int iRand = rand()%4;

  00441	e8 00 00 00 00	 call	 _rand
  00446	8b f8		 mov	 edi, eax
  00448	81 e7 03 00 00
	80		 and	 edi, -2147483645	; 80000003H
  0044e	79 05		 jns	 SHORT $LN98@WingChaosM
  00450	4f		 dec	 edi
  00451	83 cf fc	 or	 edi, -4			; fffffffcH
  00454	47		 inc	 edi
$LN98@WingChaosM:

; 2003 : 						iItemSubType = iRand + 3;

  00455	83 c7 03	 add	 edi, 3

; 2004 : 					}
; 2005 : 					else

  00458	eb 1e		 jmp	 SHORT $LN31@WingChaosM
$LN26@WingChaosM:

; 2006 : 					{
; 2007 : 						iItemSubType = 42;

  0045a	bf 2a 00 00 00	 mov	 edi, 42			; 0000002aH

; 2008 : 					}
; 2009 : 				}	
; 2010 : 				break;

  0045f	eb 17		 jmp	 SHORT $LN31@WingChaosM
$LN24@WingChaosM:

; 2011 : 			case 92:
; 2012 : 				iItemSubType = 6;

  00461	bf 06 00 00 00	 mov	 edi, 6

; 2013 : 				break;

  00466	eb 10		 jmp	 SHORT $LN31@WingChaosM
$LN23@WingChaosM:

; 2014 : 			default:
; 2015 : 				LogAddTD("[MixSystem][WingChaosMix] WingCharmItemNum => %d , WingCharmIndex => %d", WingCharmItemNum, WingCharmIndex);

  00468	50		 push	 eax
  00469	52		 push	 edx
  0046a	68 00 00 00 00	 push	 OFFSET ??_C@_0EI@LFGBMPMJ@?$FLMixSystem?$FN?$FLWingChaosMix?$FN?5WingCh@
  0046f	ff 15 00 00 00
	00		 call	 DWORD PTR ?LogAddTD@@3P6AXPADZZA ; LogAddTD
  00475	83 c4 0c	 add	 esp, 12			; 0000000cH
$LN31@WingChaosM:

; 2016 : 			}
; 2017 : 		}
; 2018 : 
; 2019 : 		int iWingNum = ITEMGET(iItemType, iItemSubType);

  00478	8b 45 e8	 mov	 eax, DWORD PTR _iItemType$218306[ebp]
  0047b	c1 e0 09	 shl	 eax, 9
  0047e	03 c7		 add	 eax, edi

; 2020 : 		int iOption1 = 0;

  00480	33 db		 xor	 ebx, ebx
  00482	89 45 c8	 mov	 DWORD PTR _iWingNum$218334[ebp], eax
  00485	89 5d d4	 mov	 DWORD PTR _iOption1$218335[ebp], ebx

; 2021 : 		int iOption2 = 0;

  00488	89 5d e4	 mov	 DWORD PTR _iOption2$218336[ebp], ebx

; 2022 : 		int iOption3 = 0;
; 2023 : 
; 2024 : 		if ( (rand()%5) == 0 )

  0048b	e8 00 00 00 00	 call	 _rand
  00490	99		 cdq
  00491	b9 05 00 00 00	 mov	 ecx, 5
  00496	f7 f9		 idiv	 ecx
  00498	85 d2		 test	 edx, edx
  0049a	75 07		 jne	 SHORT $LN22@WingChaosM

; 2025 : 		{
; 2026 : 			iOption1 = 1;

  0049c	c7 45 d4 01 00
	00 00		 mov	 DWORD PTR _iOption1$218335[ebp], 1
$LN22@WingChaosM:

; 2027 : 		}
; 2028 : 
; 2029 : 		int iRandomValue = rand() % 100;

  004a3	e8 00 00 00 00	 call	 _rand
  004a8	99		 cdq
  004a9	b9 64 00 00 00	 mov	 ecx, 100		; 00000064H
  004ae	f7 f9		 idiv	 ecx
  004b0	89 55 dc	 mov	 DWORD PTR _iRandomValue$218339[ebp], edx

; 2030 : 		int iRandomValue2 = rand() % 3;

  004b3	e8 00 00 00 00	 call	 _rand
  004b8	99		 cdq
  004b9	b9 03 00 00 00	 mov	 ecx, 3
  004be	f7 f9		 idiv	 ecx

; 2031 : 
; 2032 : 		switch ( iRandomValue2 )

  004c0	2b d3		 sub	 edx, ebx
  004c2	74 24		 je	 SHORT $LN19@WingChaosM
  004c4	4a		 dec	 edx
  004c5	74 12		 je	 SHORT $LN17@WingChaosM
  004c7	4a		 dec	 edx
  004c8	75 27		 jne	 SHORT $LN18@WingChaosM

; 2047 : 
; 2048 : 			case 2:
; 2049 : 				if ( iRandomValue < 20 )

  004ca	83 7d dc 14	 cmp	 DWORD PTR _iRandomValue$218339[ebp], 20 ; 00000014H
  004ce	7d 21		 jge	 SHORT $LN18@WingChaosM

; 2050 : 				{
; 2051 : 					iOption2 = 1;	// +4;

  004d0	c7 45 e4 01 00
	00 00		 mov	 DWORD PTR _iOption2$218336[ebp], 1
  004d7	eb 18		 jmp	 SHORT $LN18@WingChaosM
$LN17@WingChaosM:

; 2038 : 				}
; 2039 : 				break;
; 2040 : 
; 2041 : 			case 1:
; 2042 : 				if ( iRandomValue < 10 )

  004d9	83 7d dc 0a	 cmp	 DWORD PTR _iRandomValue$218339[ebp], 10 ; 0000000aH
  004dd	7d 12		 jge	 SHORT $LN18@WingChaosM

; 2043 : 				{
; 2044 : 					iOption2 = 2;	// +8

  004df	c7 45 e4 02 00
	00 00		 mov	 DWORD PTR _iOption2$218336[ebp], 2

; 2045 : 				}
; 2046 : 				break;

  004e6	eb 09		 jmp	 SHORT $LN18@WingChaosM
$LN19@WingChaosM:

; 2033 : 		{
; 2034 : 			case 0:
; 2035 : 				if ( iRandomValue < 4 )

  004e8	83 7d dc 04	 cmp	 DWORD PTR _iRandomValue$218339[ebp], 4
  004ec	7d 03		 jge	 SHORT $LN18@WingChaosM

; 2036 : 				{
; 2037 : 					iOption2 = 3;	// +12

  004ee	89 4d e4	 mov	 DWORD PTR _iOption2$218336[ebp], ecx
$LN18@WingChaosM:

; 2052 : 				}
; 2053 : 		}
; 2054 : 
; 2055 : 		if ( iSleeveOfLord != FALSE )
; 2056 : 		{
; 2057 : 			if( (rand()%5) == 0 )

  004f1	e8 00 00 00 00	 call	 _rand
  004f6	99		 cdq
  004f7	b9 05 00 00 00	 mov	 ecx, 5
  004fc	f7 f9		 idiv	 ecx
  004fe	39 5d d0	 cmp	 DWORD PTR _iSleeveOfLord$[ebp], ebx
  00501	74 37		 je	 SHORT $LN13@WingChaosM
  00503	85 d2		 test	 edx, edx
  00505	75 26		 jne	 SHORT $LN9@WingChaosM

; 2058 : 			{
; 2059 : 				if( iItemType == 12 && iItemSubType == 49 )

  00507	83 7d e8 0c	 cmp	 DWORD PTR _iItemType$218306[ebp], 12 ; 0000000cH
  0050b	75 05		 jne	 SHORT $LN11@WingChaosM
  0050d	83 ff 31	 cmp	 edi, 49			; 00000031H

; 2060 : 				{
; 2061 : 					iOption3 = 1 << (rand()%3);
; 2062 : 					if ( (rand()%2) != 0 )
; 2063 : 					{
; 2064 : 						iOption3 |= 0x20;
; 2065 : 					}
; 2066 : 				}
; 2067 : 				else

  00510	74 2c		 je	 SHORT $LN106@WingChaosM
$LN11@WingChaosM:

; 2068 : 				{
; 2069 : 					iOption3 = 1 << (rand()%4);

  00512	e8 00 00 00 00	 call	 _rand
  00517	8b c8		 mov	 ecx, eax
  00519	81 e1 03 00 00
	80		 and	 ecx, -2147483645	; 80000003H
  0051f	79 05		 jns	 SHORT $LN100@WingChaosM
  00521	49		 dec	 ecx
  00522	83 c9 fc	 or	 ecx, -4			; fffffffcH
  00525	41		 inc	 ecx
$LN100@WingChaosM:
  00526	bb 01 00 00 00	 mov	 ebx, 1
  0052b	d3 e3		 shl	 ebx, cl
$LN9@WingChaosM:

; 2070 : 				}			
; 2071 : 			}
; 2072 : 			// ----
; 2073 : 			if( iItemType == 13 && iItemSubType == 30 )

  0052d	83 7d e8 0d	 cmp	 DWORD PTR _iItemType$218306[ebp], 13 ; 0000000dH
  00531	75 37		 jne	 SHORT $LN5@WingChaosM
  00533	83 ff 1e	 cmp	 edi, 30			; 0000001eH
  00536	75 32		 jne	 SHORT $LN5@WingChaosM

; 2074 : 			{
; 2075 : 				iOption3 |= 0x20;
; 2076 : 			}
; 2077 : 		}
; 2078 : 		else

  00538	eb 2d		 jmp	 SHORT $LN107@WingChaosM
$LN13@WingChaosM:

; 2079 : 		{
; 2080 : 			if ( (rand()%5) == 0 )

  0053a	85 d2		 test	 edx, edx
  0053c	75 16		 jne	 SHORT $LN6@WingChaosM
$LN106@WingChaosM:

; 2081 : 			{
; 2082 : 				iOption3 = 1 << (rand()%3);

  0053e	e8 00 00 00 00	 call	 _rand
  00543	99		 cdq
  00544	b9 03 00 00 00	 mov	 ecx, 3
  00549	f7 f9		 idiv	 ecx
  0054b	bb 01 00 00 00	 mov	 ebx, 1
  00550	8b ca		 mov	 ecx, edx
  00552	d3 e3		 shl	 ebx, cl
$LN6@WingChaosM:

; 2083 : 			}
; 2084 : 
; 2085 : 			if ( (rand()%2) != 0 )

  00554	e8 00 00 00 00	 call	 _rand
  00559	25 01 00 00 80	 and	 eax, -2147483647	; 80000001H
  0055e	79 05		 jns	 SHORT $LN101@WingChaosM
  00560	48		 dec	 eax
  00561	83 c8 fe	 or	 eax, -2			; fffffffeH
  00564	40		 inc	 eax
$LN101@WingChaosM:
  00565	74 03		 je	 SHORT $LN5@WingChaosM
$LN107@WingChaosM:

; 2086 : 			{
; 2087 : 				iOption3 |= 0x20;

  00567	83 cb 20	 or	 ebx, 32			; 00000020H
$LN5@WingChaosM:

; 2088 : 			}
; 2089 : 		
; 2090 : 		}
; 2091 : 
; 2092 : 		::ItemSerialCreateSend(lpObj->m_Index, -1, 0, 0, iWingNum, (BYTE)iWingLevel, 0, 0, (BYTE)iOption1, (BYTE)iOption2, -1, (BYTE)iOption3, 0);

  0056a	8b 55 e4	 mov	 edx, DWORD PTR _iOption2$218336[ebp]
  0056d	8b 45 d4	 mov	 eax, DWORD PTR _iOption1$218335[ebp]
  00570	8b 4d c8	 mov	 ecx, DWORD PTR _iWingNum$218334[ebp]
  00573	6a 00		 push	 0
  00575	53		 push	 ebx
  00576	6a ff		 push	 -1
  00578	52		 push	 edx
  00579	8b 16		 mov	 edx, DWORD PTR [esi]
  0057b	50		 push	 eax
  0057c	6a 00		 push	 0
  0057e	6a 00		 push	 0
  00580	6a 00		 push	 0
  00582	51		 push	 ecx
  00583	6a 00		 push	 0
  00585	6a 00		 push	 0
  00587	68 ff 00 00 00	 push	 255			; 000000ffH
  0058c	52		 push	 edx
  0058d	e8 00 00 00 00	 call	 ?ItemSerialCreateSend@@YAXHEEEHEEEEEHEE@Z ; ItemSerialCreateSend

; 2093 : 		::gObjInventoryCommit(lpObj->m_Index);

  00592	8b 06		 mov	 eax, DWORD PTR [esi]
  00594	50		 push	 eax
  00595	e8 00 00 00 00	 call	 ?gObjInventoryCommit@@YAHH@Z ; gObjInventoryCommit

; 2094 : #if(SYSTEM_ACHIEVEMENTS)
; 2095 : 		g_Achievements.SuccessChaosMix(lpObj->m_Index);

  0059a	8b 0e		 mov	 ecx, DWORD PTR [esi]
  0059c	83 c4 38	 add	 esp, 56			; 00000038H
  0059f	51		 push	 ecx
  005a0	b9 00 00 00 00	 mov	 ecx, OFFSET ?g_Achievements@@3VCAchievements@@A ; g_Achievements
  005a5	e8 00 00 00 00	 call	 ?SuccessChaosMix@CAchievements@@QAEXH@Z ; CAchievements::SuccessChaosMix

; 2096 : #endif
; 2097 : 		::LogAddTD("[WingMix,2] [%s][%s] CBMix Success %d Money : %d-%d, CharmRate : %d", lpObj->AccountID, lpObj->Name, lpObj->ChaosSuccessRate, lpObj->Money, nChaosNeedMoney, iCharmOfLuckCount);

  005aa	8b 55 d8	 mov	 edx, DWORD PTR _iCharmOfLuckCount$[ebp]
  005ad	8b 45 e0	 mov	 eax, DWORD PTR _nChaosNeedMoney$[ebp]
  005b0	8b 8e f0 00 00
	00		 mov	 ecx, DWORD PTR [esi+240]
  005b6	52		 push	 edx
  005b7	8b 96 84 0e 00
	00		 mov	 edx, DWORD PTR [esi+3716]
  005bd	50		 push	 eax
  005be	51		 push	 ecx
  005bf	52		 push	 edx
  005c0	8d 46 77	 lea	 eax, DWORD PTR [esi+119]
  005c3	50		 push	 eax
  005c4	83 c6 6c	 add	 esi, 108		; 0000006cH
  005c7	56		 push	 esi
  005c8	68 00 00 00 00	 push	 OFFSET ??_C@_0EE@BHIPJGFK@?$FLWingMix?02?$FN?5?$FL?$CFs?$FN?$FL?$CFs?$FN?5CBMix?5Succe@
  005cd	ff 15 00 00 00
	00		 call	 DWORD PTR ?LogAddTD@@3P6AXPADZZA ; LogAddTD
  005d3	83 c4 1c	 add	 esp, 28			; 0000001cH
  005d6	5f		 pop	 edi
  005d7	5e		 pop	 esi

; 2098 : 		return TRUE;

  005d8	b8 01 00 00 00	 mov	 eax, 1
  005dd	5b		 pop	 ebx

; 2115 : 	}
; 2116 : }

  005de	8b 4d fc	 mov	 ecx, DWORD PTR __$ArrayPad$[ebp]
  005e1	33 cd		 xor	 ecx, ebp
  005e3	e8 00 00 00 00	 call	 @__security_check_cookie@4
  005e8	8b e5		 mov	 esp, ebp
  005ea	5d		 pop	 ebp
  005eb	c2 04 00	 ret	 4
$LN43@WingChaosM:

; 2099 : 	}
; 2100 : 	else
; 2101 : 	{
; 2102 : 		for (int n=0;n<CHAOS_BOX_SIZE;n++)

  005ee	33 ff		 xor	 edi, edi
$LL3@WingChaosM:

; 2103 : 		{
; 2104 : 			lpObj->pChaosBox[n].Clear();

  005f0	8b 8e 78 0e 00
	00		 mov	 ecx, DWORD PTR [esi+3704]
  005f6	03 cf		 add	 ecx, edi
  005f8	e8 00 00 00 00	 call	 ?Clear@CItem@@QAEXXZ	; CItem::Clear
  005fd	81 c7 d4 00 00
	00		 add	 edi, 212		; 000000d4H
  00603	81 ff 80 1a 00
	00		 cmp	 edi, 6784		; 00001a80H
  00609	7c e5		 jl	 SHORT $LL3@WingChaosM

; 2105 : 		}
; 2106 : 
; 2107 : 		GCUserChaosBoxSend(lpObj, 0);

  0060b	6a 00		 push	 0
  0060d	56		 push	 esi
  0060e	e8 00 00 00 00	 call	 ?GCUserChaosBoxSend@@YAXPAUOBJECTSTRUCT@@H@Z ; GCUserChaosBoxSend

; 2108 : 		DataSend(lpObj->m_Index, (LPBYTE)&pMsg, pMsg.h.size);

  00613	0f b6 4d ed	 movzx	 ecx, BYTE PTR _pMsg$[ebp+1]
  00617	8b 06		 mov	 eax, DWORD PTR [esi]
  00619	51		 push	 ecx
  0061a	8d 55 ec	 lea	 edx, DWORD PTR _pMsg$[ebp]
  0061d	52		 push	 edx
  0061e	50		 push	 eax
  0061f	e8 00 00 00 00	 call	 ?DataSend@@YAHHPAEK@Z	; DataSend

; 2109 : 		::LogAddTD("[WingMix,2] [%s][%s] CBMix Fail %d Money : %d-%d, CharmRate : %d", lpObj->AccountID, lpObj->Name, lpObj->ChaosSuccessRate, lpObj->Money, nChaosNeedMoney, iCharmOfLuckCount);

  00624	8b 4d d8	 mov	 ecx, DWORD PTR _iCharmOfLuckCount$[ebp]
  00627	8b 96 f0 00 00
	00		 mov	 edx, DWORD PTR [esi+240]
  0062d	8b 86 84 0e 00
	00		 mov	 eax, DWORD PTR [esi+3716]
  00633	51		 push	 ecx
  00634	53		 push	 ebx
  00635	52		 push	 edx
  00636	50		 push	 eax
  00637	8d 4e 77	 lea	 ecx, DWORD PTR [esi+119]
  0063a	51		 push	 ecx
  0063b	8d 56 6c	 lea	 edx, DWORD PTR [esi+108]
  0063e	52		 push	 edx
  0063f	68 00 00 00 00	 push	 OFFSET ??_C@_0EB@GCGNBAFG@?$FLWingMix?02?$FN?5?$FL?$CFs?$FN?$FL?$CFs?$FN?5CBMix?5Fail?5@
  00644	ff 15 00 00 00
	00		 call	 DWORD PTR ?LogAddTD@@3P6AXPADZZA ; LogAddTD

; 2110 : 		lpObj->ChaosLock = FALSE;
; 2111 : #if(SYSTEM_ACHIEVEMENTS)
; 2112 : 		g_Achievements.FailedChaosMix(lpObj->m_Index);

  0064a	8b 06		 mov	 eax, DWORD PTR [esi]
  0064c	83 c4 30	 add	 esp, 48			; 00000030H
  0064f	50		 push	 eax
  00650	b9 00 00 00 00	 mov	 ecx, OFFSET ?g_Achievements@@3VCAchievements@@A ; g_Achievements
  00655	c7 86 88 0e 00
	00 00 00 00 00	 mov	 DWORD PTR [esi+3720], 0
  0065f	e8 00 00 00 00	 call	 ?FailedChaosMix@CAchievements@@QAEXH@Z ; CAchievements::FailedChaosMix

; 2113 : #endif
; 2114 : 		return FALSE;

  00664	eb 22		 jmp	 SHORT $LN102@WingChaosM
$LN54@WingChaosM:

; 1856 : 		DataSend(lpObj->m_Index, (LPBYTE)&pMsg, pMsg.h.size);

  00666	0f b6 4d ed	 movzx	 ecx, BYTE PTR _pMsg$[ebp+1]
  0066a	8b 06		 mov	 eax, DWORD PTR [esi]
  0066c	51		 push	 ecx
  0066d	8d 55 ec	 lea	 edx, DWORD PTR _pMsg$[ebp]
  00670	52		 push	 edx
  00671	50		 push	 eax
$LN103@WingChaosM:

; 1844 : 		{
; 1845 : 			pMsg.Result = CB_INCORRECT_MIX_ITEMS;
; 1846 : 			DataSend(lpObj->m_Index, (LPBYTE)&pMsg, pMsg.h.size);
; 1847 : 			lpObj->ChaosLock = FALSE;
; 1848 : 
; 1849 : 			return FALSE;
; 1850 : 		}
; 1851 : 	}
; 1852 : 	else
; 1853 : 	{
; 1854 : 		lpObj->ChaosLock = FALSE;
; 1855 : 		pMsg.Result = CB_INCORRECT_MIX_ITEMS;

  00672	c7 86 88 0e 00
	00 00 00 00 00	 mov	 DWORD PTR [esi+3720], 0
  0067c	c6 45 ef 07	 mov	 BYTE PTR _pMsg$[ebp+3], 7

; 1856 : 		DataSend(lpObj->m_Index, (LPBYTE)&pMsg, pMsg.h.size);

  00680	e8 00 00 00 00	 call	 ?DataSend@@YAHHPAEK@Z	; DataSend
$LN104@WingChaosM:
  00685	83 c4 0c	 add	 esp, 12			; 0000000cH
$LN102@WingChaosM:

; 2115 : 	}
; 2116 : }

  00688	8b 4d fc	 mov	 ecx, DWORD PTR __$ArrayPad$[ebp]
  0068b	5f		 pop	 edi
  0068c	5e		 pop	 esi
  0068d	33 cd		 xor	 ecx, ebp
  0068f	33 c0		 xor	 eax, eax
  00691	5b		 pop	 ebx
  00692	e8 00 00 00 00	 call	 @__security_check_cookie@4
  00697	8b e5		 mov	 esp, ebp
  00699	5d		 pop	 ebp
  0069a	c2 04 00	 ret	 4
  0069d	8d 49 00	 npad	 3
$LN108@WingChaosM:
  006a0	00 00 00 00	 DD	 $LN30@WingChaosM
  006a4	00 00 00 00	 DD	 $LN29@WingChaosM
  006a8	00 00 00 00	 DD	 $LN28@WingChaosM
  006ac	00 00 00 00	 DD	 $LN27@WingChaosM
  006b0	00 00 00 00	 DD	 $LN24@WingChaosM
?WingChaosMix@CMixSystem@@QAEHPAUOBJECTSTRUCT@@@Z ENDP	; CMixSystem::WingChaosMix
_TEXT	ENDS
PUBLIC	__$ArrayPad$
PUBLIC	?BloodCastleItemChaosMix@CMixSystem@@QAEXPAUOBJECTSTRUCT@@@Z ; CMixSystem::BloodCastleItemChaosMix
EXTRN	?BloodCastleChaosMix@CBloodCastle@@QAE_NHH@Z:PROC ; CBloodCastle::BloodCastleChaosMix
EXTRN	?GetBridgeMapNumber@CBloodCastle@@QAEHH@Z:PROC	; CBloodCastle::GetBridgeMapNumber
EXTRN	?CheckChoasMixItem@CBloodCastle@@QAEHH@Z:PROC	; CBloodCastle::CheckChoasMixItem
EXTRN	?g_BloodCastle@@3VCBloodCastle@@A:BYTE		; g_BloodCastle
; Function compile flags: /Ogtp
;	COMDAT ?BloodCastleItemChaosMix@CMixSystem@@QAEXPAUOBJECTSTRUCT@@@Z
_TEXT	SEGMENT
_pMsg$ = -20						; size = 16
__$ArrayPad$ = -4					; size = 4
_lpObj$ = 8						; size = 4
?BloodCastleItemChaosMix@CMixSystem@@QAEXPAUOBJECTSTRUCT@@@Z PROC ; CMixSystem::BloodCastleItemChaosMix, COMDAT
; _this$ = ecx

; 2119 : {

  00000	55		 push	 ebp
  00001	8b ec		 mov	 ebp, esp
  00003	83 ec 14	 sub	 esp, 20			; 00000014H
  00006	a1 00 00 00 00	 mov	 eax, DWORD PTR ___security_cookie
  0000b	33 c5		 xor	 eax, ebp
  0000d	89 45 fc	 mov	 DWORD PTR __$ArrayPad$[ebp], eax
  00010	53		 push	 ebx
  00011	56		 push	 esi
  00012	8b 75 08	 mov	 esi, DWORD PTR _lpObj$[ebp]
  00015	57		 push	 edi

; 2120 : 	lpObj->ChaosLock = TRUE;
; 2121 : 	
; 2122 : 	PMSG_CHAOSMIXRESULT pMsg;
; 2123 : 	PHeadSetB((LPBYTE)&pMsg.h, 0x86, sizeof(PMSG_CHAOSMIXRESULT));

  00016	6a 10		 push	 16			; 00000010H
  00018	8d 45 ec	 lea	 eax, DWORD PTR _pMsg$[ebp]
  0001b	68 86 00 00 00	 push	 134			; 00000086H
  00020	50		 push	 eax
  00021	c7 86 88 0e 00
	00 01 00 00 00	 mov	 DWORD PTR [esi+3720], 1
  0002b	e8 00 00 00 00	 call	 ?PHeadSetB@@YAXPAEEH@Z	; PHeadSetB

; 2124 : 	pMsg.Result = CB_ERROR;
; 2125 : 
; 2126 : 	int aIndex = lpObj->m_Index;

  00030	8b 3e		 mov	 edi, DWORD PTR [esi]
  00032	83 c4 0c	 add	 esp, 12			; 0000000cH

; 2127 : 
; 2128 : 	int iRET_VAL = g_BloodCastle.CheckChoasMixItem(aIndex);

  00035	57		 push	 edi
  00036	b9 00 00 00 00	 mov	 ecx, OFFSET ?g_BloodCastle@@3VCBloodCastle@@A ; g_BloodCastle
  0003b	c6 45 ef 00	 mov	 BYTE PTR _pMsg$[ebp+3], 0
  0003f	e8 00 00 00 00	 call	 ?CheckChoasMixItem@CBloodCastle@@QAEHH@Z ; CBloodCastle::CheckChoasMixItem
  00044	8b d8		 mov	 ebx, eax

; 2129 : 
; 2130 : 	int iMapNumber = g_BloodCastle.GetBridgeMapNumber(iRET_VAL-1);

  00046	8d 4b ff	 lea	 ecx, DWORD PTR [ebx-1]
  00049	51		 push	 ecx
  0004a	b9 00 00 00 00	 mov	 ecx, OFFSET ?g_BloodCastle@@3VCBloodCastle@@A ; g_BloodCastle
  0004f	e8 00 00 00 00	 call	 ?GetBridgeMapNumber@CBloodCastle@@QAEHH@Z ; CBloodCastle::GetBridgeMapNumber

; 2131 : 
; 2132 : 	if ( BC_MAP_RANGE(iMapNumber) != FALSE )

  00054	83 f8 34	 cmp	 eax, 52			; 00000034H
  00057	74 13		 je	 SHORT $LN19@BloodCastl
  00059	83 f8 0b	 cmp	 eax, 11			; 0000000bH
  0005c	7c 20		 jl	 SHORT $LN20@BloodCastl
  0005e	33 d2		 xor	 edx, edx
  00060	83 f8 11	 cmp	 eax, 17			; 00000011H
  00063	0f 9e c2	 setle	 dl
  00066	8b c2		 mov	 eax, edx
  00068	85 c0		 test	 eax, eax
  0006a	74 12		 je	 SHORT $LN20@BloodCastl
$LN19@BloodCastl:

; 2133 : 	{
; 2134 : 		if ( g_BloodCastle.BloodCastleChaosMix(aIndex, iRET_VAL) == false )

  0006c	53		 push	 ebx
  0006d	57		 push	 edi
  0006e	b9 00 00 00 00	 mov	 ecx, OFFSET ?g_BloodCastle@@3VCBloodCastle@@A ; g_BloodCastle
  00073	e8 00 00 00 00	 call	 ?BloodCastleChaosMix@CBloodCastle@@QAE_NHH@Z ; CBloodCastle::BloodCastleChaosMix
  00078	84 c0		 test	 al, al
  0007a	75 79		 jne	 SHORT $LN9@BloodCastl

; 2135 : 		{
; 2136 : 			lpObj->ChaosLock = FALSE;
; 2137 : 		}
; 2138 : 		return;

  0007c	eb 6d		 jmp	 SHORT $LN1@BloodCastl
$LN20@BloodCastl:

; 2139 : 	}
; 2140 : 
; 2141 : 	switch ( iRET_VAL )

  0007e	83 c3 f7	 add	 ebx, -9			; fffffff7H
  00081	83 fb 06	 cmp	 ebx, 6
  00084	77 65		 ja	 SHORT $LN1@BloodCastl
  00086	ff 24 9d 00 00
	00 00		 jmp	 DWORD PTR $LN23@BloodCastl[ebx*4]
$LN8@BloodCastl:

; 2142 : 	{
; 2143 : 		case 9:
; 2144 : 			pMsg.Result = CB_NO_BC_CORRECT_ITEMS;

  0008d	c6 45 ef 0a	 mov	 BYTE PTR _pMsg$[ebp+3], 10 ; 0000000aH

; 2145 : 			DataSend(aIndex, (LPBYTE)&pMsg, pMsg.h.size);
; 2146 : 			lpObj->m_Index;
; 2147 : 			lpObj->ChaosLock = FALSE;
; 2148 : 			break;

  00091	eb 46		 jmp	 SHORT $LN21@BloodCastl
$LN7@BloodCastl:

; 2149 : 
; 2150 : 		case 10:
; 2151 : 			pMsg.Result = CB_NO_BC_CORRECT_ITEMS;
; 2152 : 			DataSend(aIndex, (LPBYTE)&pMsg, pMsg.h.size);

  00093	0f b6 55 ed	 movzx	 edx, BYTE PTR _pMsg$[ebp+1]
  00097	52		 push	 edx
  00098	8d 45 ec	 lea	 eax, DWORD PTR _pMsg$[ebp]
  0009b	c6 45 ef 0a	 mov	 BYTE PTR _pMsg$[ebp+3], 10 ; 0000000aH
  0009f	50		 push	 eax

; 2153 : 			lpObj->m_Index;
; 2154 : 			lpObj->ChaosLock = FALSE;
; 2155 : 			break;

  000a0	eb 40		 jmp	 SHORT $LN22@BloodCastl
$LN6@BloodCastl:

; 2156 : 
; 2157 : 		case 11:
; 2158 : 			pMsg.Result = CB_NO_BC_CORRECT_ITEMS;
; 2159 : 			DataSend(aIndex, (LPBYTE)&pMsg, pMsg.h.size);

  000a2	0f b6 4d ed	 movzx	 ecx, BYTE PTR _pMsg$[ebp+1]
  000a6	51		 push	 ecx
  000a7	8d 55 ec	 lea	 edx, DWORD PTR _pMsg$[ebp]
  000aa	c6 45 ef 0a	 mov	 BYTE PTR _pMsg$[ebp+3], 10 ; 0000000aH
  000ae	52		 push	 edx

; 2160 : 			lpObj->m_Index;
; 2161 : 			lpObj->ChaosLock = FALSE;
; 2162 : 			break;

  000af	eb 31		 jmp	 SHORT $LN22@BloodCastl
$LN5@BloodCastl:

; 2163 : 
; 2164 : 		case 12:
; 2165 : 			pMsg.Result = CB_INVALID_ITEM_LEVEL;

  000b1	c6 45 ef 08	 mov	 BYTE PTR _pMsg$[ebp+3], 8

; 2166 : 			DataSend(aIndex, (LPBYTE)&pMsg, pMsg.h.size);
; 2167 : 			lpObj->m_Index;
; 2168 : 			lpObj->ChaosLock = FALSE;
; 2169 : 			break;

  000b5	eb 22		 jmp	 SHORT $LN21@BloodCastl
$LN4@BloodCastl:

; 2170 : 
; 2171 : 		case 13:
; 2172 : 			pMsg.Result = CB_BC_NOT_ENOUGH_ZEN;
; 2173 : 			DataSend(aIndex, (LPBYTE)&pMsg, pMsg.h.size);

  000b7	0f b6 55 ed	 movzx	 edx, BYTE PTR _pMsg$[ebp+1]
  000bb	52		 push	 edx
  000bc	8d 45 ec	 lea	 eax, DWORD PTR _pMsg$[ebp]
  000bf	c6 45 ef 0b	 mov	 BYTE PTR _pMsg$[ebp+3], 11 ; 0000000bH
  000c3	50		 push	 eax

; 2174 : 			lpObj->m_Index;
; 2175 : 			lpObj->ChaosLock = FALSE;
; 2176 : 			break;

  000c4	eb 1c		 jmp	 SHORT $LN22@BloodCastl
$LN3@BloodCastl:

; 2177 : 
; 2178 : 		case 14:
; 2179 : 			pMsg.Result = CB_USER_CLASS_LOW_LEVEL;
; 2180 : 			DataSend(aIndex, (LPBYTE)&pMsg, pMsg.h.size);

  000c6	0f b6 4d ed	 movzx	 ecx, BYTE PTR _pMsg$[ebp+1]
  000ca	51		 push	 ecx
  000cb	8d 55 ec	 lea	 edx, DWORD PTR _pMsg$[ebp]
  000ce	c6 45 ef 09	 mov	 BYTE PTR _pMsg$[ebp+3], 9
  000d2	52		 push	 edx

; 2181 : 			lpObj->m_Index;
; 2182 : 			lpObj->ChaosLock = FALSE;
; 2183 : 			break;

  000d3	eb 0d		 jmp	 SHORT $LN22@BloodCastl
$LN2@BloodCastl:

; 2184 : 		case 15:
; 2185 : 			pMsg.Result = 0xF0;

  000d5	c6 45 ef f0	 mov	 BYTE PTR _pMsg$[ebp+3], 240 ; 000000f0H
$LN21@BloodCastl:

; 2186 : 			DataSend(aIndex, (LPBYTE)&pMsg, pMsg.h.size);

  000d9	0f b6 45 ed	 movzx	 eax, BYTE PTR _pMsg$[ebp+1]
  000dd	50		 push	 eax
  000de	8d 4d ec	 lea	 ecx, DWORD PTR _pMsg$[ebp]
  000e1	51		 push	 ecx
$LN22@BloodCastl:
  000e2	57		 push	 edi
  000e3	e8 00 00 00 00	 call	 ?DataSend@@YAHHPAEK@Z	; DataSend
  000e8	83 c4 0c	 add	 esp, 12			; 0000000cH
$LN1@BloodCastl:

; 2187 : 			lpObj->ChaosLock = FALSE;
; 2188 : 			break;
; 2189 : 		default:
; 2190 : 			lpObj->ChaosLock = FALSE;

  000eb	c7 86 88 0e 00
	00 00 00 00 00	 mov	 DWORD PTR [esi+3720], 0
$LN9@BloodCastl:

; 2191 : 	}
; 2192 : 
; 2193 : }

  000f5	8b 4d fc	 mov	 ecx, DWORD PTR __$ArrayPad$[ebp]
  000f8	5f		 pop	 edi
  000f9	5e		 pop	 esi
  000fa	33 cd		 xor	 ecx, ebp
  000fc	5b		 pop	 ebx
  000fd	e8 00 00 00 00	 call	 @__security_check_cookie@4
  00102	8b e5		 mov	 esp, ebp
  00104	5d		 pop	 ebp
  00105	c2 04 00	 ret	 4
$LN23@BloodCastl:
  00108	00 00 00 00	 DD	 $LN8@BloodCastl
  0010c	00 00 00 00	 DD	 $LN7@BloodCastl
  00110	00 00 00 00	 DD	 $LN6@BloodCastl
  00114	00 00 00 00	 DD	 $LN5@BloodCastl
  00118	00 00 00 00	 DD	 $LN4@BloodCastl
  0011c	00 00 00 00	 DD	 $LN3@BloodCastl
  00120	00 00 00 00	 DD	 $LN2@BloodCastl
?BloodCastleItemChaosMix@CMixSystem@@QAEXPAUOBJECTSTRUCT@@@Z ENDP ; CMixSystem::BloodCastleItemChaosMix
_TEXT	ENDS
PUBLIC	??_C@_0EE@MAGJAMAN@?$FLDarkHorseMix?$FN?5?$FL?$CFs?$FN?$FL?$CFs?$FN?5CBMix?5Fa@ ; `string'
PUBLIC	??_C@_0EH@JGHMMOON@?$FLDarkHorseMix?$FN?5?$FL?$CFs?$FN?$FL?$CFs?$FN?5CBMix?5Su@ ; `string'
PUBLIC	??_C@_0BP@IMILBLLO@?$FLDarkHorseMix?$FN?5Chaos?5Mix?5Start?$AA@ ; `string'
PUBLIC	??_C@_0N@LDINKAHL@DarkHorseMix?$AA@		; `string'
PUBLIC	__$ArrayPad$
PUBLIC	?DarkHorseChaosMix@CMixSystem@@QAEXPAUOBJECTSTRUCT@@@Z ; CMixSystem::DarkHorseChaosMix
EXTRN	?PetItemSerialCreateSend@@YAXHEEEHEEEEEHEE@Z:PROC ; PetItemSerialCreateSend
;	COMDAT ??_C@_0EE@MAGJAMAN@?$FLDarkHorseMix?$FN?5?$FL?$CFs?$FN?$FL?$CFs?$FN?5CBMix?5Fa@
CONST	SEGMENT
??_C@_0EE@MAGJAMAN@?$FLDarkHorseMix?$FN?5?$FL?$CFs?$FN?$FL?$CFs?$FN?5CBMix?5Fa@ DB '['
	DB	'DarkHorseMix] [%s][%s] CBMix Fail %d Money : %d-%d, CharmRate'
	DB	' : %d', 00H					; `string'
CONST	ENDS
;	COMDAT ??_C@_0EH@JGHMMOON@?$FLDarkHorseMix?$FN?5?$FL?$CFs?$FN?$FL?$CFs?$FN?5CBMix?5Su@
CONST	SEGMENT
??_C@_0EH@JGHMMOON@?$FLDarkHorseMix?$FN?5?$FL?$CFs?$FN?$FL?$CFs?$FN?5CBMix?5Su@ DB '['
	DB	'DarkHorseMix] [%s][%s] CBMix Success %d Money : %d-%d, CharmR'
	DB	'ate : %d', 00H				; `string'
CONST	ENDS
;	COMDAT ??_C@_0BP@IMILBLLO@?$FLDarkHorseMix?$FN?5Chaos?5Mix?5Start?$AA@
CONST	SEGMENT
??_C@_0BP@IMILBLLO@?$FLDarkHorseMix?$FN?5Chaos?5Mix?5Start?$AA@ DB '[Dark'
	DB	'HorseMix] Chaos Mix Start', 00H		; `string'
CONST	ENDS
;	COMDAT ??_C@_0N@LDINKAHL@DarkHorseMix?$AA@
CONST	SEGMENT
??_C@_0N@LDINKAHL@DarkHorseMix?$AA@ DB 'DarkHorseMix', 00H ; `string'
; Function compile flags: /Ogtp
CONST	ENDS
;	COMDAT ?DarkHorseChaosMix@CMixSystem@@QAEXPAUOBJECTSTRUCT@@@Z
_TEXT	SEGMENT
_iCharmOfLuckCount$ = -52				; size = 4
_SoulGemCount$ = -48					; size = 4
_ChoasGemCount$ = -44					; size = 4
_BlessGemCount$ = -40					; size = 4
tv478 = -36						; size = 4
_this$ = -36						; size = 4
_Add$218461 = -32					; size = 4
_CreatureGemCount$ = -32				; size = 4
_Option1$218458 = -28					; size = 4
_SoulOfDarkHorse$ = -28					; size = 4
_lc22$218464 = -24					; size = 4
_iInvalidItemCount$ = -24				; size = 4
_pMsg$ = -20						; size = 16
__$ArrayPad$ = -4					; size = 4
_lpObj$ = 8						; size = 4
?DarkHorseChaosMix@CMixSystem@@QAEXPAUOBJECTSTRUCT@@@Z PROC ; CMixSystem::DarkHorseChaosMix, COMDAT
; _this$ = ecx

; 2196 : {

  00000	55		 push	 ebp
  00001	8b ec		 mov	 ebp, esp
  00003	83 ec 34	 sub	 esp, 52			; 00000034H
  00006	a1 00 00 00 00	 mov	 eax, DWORD PTR ___security_cookie
  0000b	33 c5		 xor	 eax, ebp
  0000d	89 45 fc	 mov	 DWORD PTR __$ArrayPad$[ebp], eax
  00010	53		 push	 ebx
  00011	56		 push	 esi
  00012	8b 75 08	 mov	 esi, DWORD PTR _lpObj$[ebp]
  00015	57		 push	 edi

; 2197 : 	lpObj->ChaosLock = TRUE;
; 2198 : 	int ChoasGemCount = 0;

  00016	33 ff		 xor	 edi, edi

; 2199 : 	int BlessGemCount = 0;
; 2200 : 	int SoulGemCount = 0;
; 2201 : 	int CreatureGemCount = 0;
; 2202 : 	int SoulOfDarkHorse = 0;
; 2203 : 	int iChaosMoney = 0;
; 2204 : 
; 2205 : 	PMSG_CHAOSMIXRESULT pMsg;
; 2206 : 
; 2207 : 	PHeadSetB((LPBYTE)&pMsg.h, 0x86, sizeof(PMSG_CHAOSMIXRESULT));

  00018	6a 10		 push	 16			; 00000010H
  0001a	8d 45 ec	 lea	 eax, DWORD PTR _pMsg$[ebp]
  0001d	68 86 00 00 00	 push	 134			; 00000086H
  00022	50		 push	 eax
  00023	89 4d dc	 mov	 DWORD PTR _this$[ebp], ecx
  00026	c7 86 88 0e 00
	00 01 00 00 00	 mov	 DWORD PTR [esi+3720], 1
  00030	89 7d d4	 mov	 DWORD PTR _ChoasGemCount$[ebp], edi
  00033	89 7d d8	 mov	 DWORD PTR _BlessGemCount$[ebp], edi
  00036	89 7d d0	 mov	 DWORD PTR _SoulGemCount$[ebp], edi
  00039	89 7d e0	 mov	 DWORD PTR _CreatureGemCount$[ebp], edi
  0003c	89 7d e4	 mov	 DWORD PTR _SoulOfDarkHorse$[ebp], edi
  0003f	e8 00 00 00 00	 call	 ?PHeadSetB@@YAXPAEEH@Z	; PHeadSetB
  00044	83 c4 0c	 add	 esp, 12			; 0000000cH

; 2208 : 	pMsg.Result = CB_ERROR;

  00047	c6 45 ef 00	 mov	 BYTE PTR _pMsg$[ebp+3], 0

; 2209 : 	int iCharmOfLuckCount = 0;

  0004b	33 db		 xor	 ebx, ebx

; 2210 : 	int iInvalidItemCount = 0;

  0004d	89 7d e8	 mov	 DWORD PTR _iInvalidItemCount$[ebp], edi
$LL34@DarkHorseC:

; 2213 : 	{
; 2214 : 		if ( lpObj->pChaosBox[n].IsItem() == TRUE )

  00050	8b 8e 78 0e 00
	00		 mov	 ecx, DWORD PTR [esi+3704]
  00056	03 cf		 add	 ecx, edi
  00058	e8 00 00 00 00	 call	 ?IsItem@CItem@@QAEHXZ	; CItem::IsItem
  0005d	83 f8 01	 cmp	 eax, 1
  00060	75 78		 jne	 SHORT $LN33@DarkHorseC

; 2215 : 		{
; 2216 : 			if ( lpObj->pChaosBox[n].m_Type == ITEMGET(14,13) )

  00062	8b 8e 78 0e 00
	00		 mov	 ecx, DWORD PTR [esi+3704]
  00068	0f b7 44 39 06	 movzx	 eax, WORD PTR [ecx+edi+6]
  0006d	ba 0d 1c 00 00	 mov	 edx, 7181		; 00001c0dH
  00072	66 3b c2	 cmp	 ax, dx
  00075	75 05		 jne	 SHORT $LN30@DarkHorseC

; 2217 : 			{
; 2218 : 				BlessGemCount++;

  00077	ff 45 d8	 inc	 DWORD PTR _BlessGemCount$[ebp]
  0007a	eb 5e		 jmp	 SHORT $LN33@DarkHorseC
$LN30@DarkHorseC:

; 2219 : 			}
; 2220 : 			else if ( lpObj->pChaosBox[n].m_Type == ITEMGET(14,14) )

  0007c	ba 0e 1c 00 00	 mov	 edx, 7182		; 00001c0eH
  00081	66 3b c2	 cmp	 ax, dx
  00084	75 05		 jne	 SHORT $LN28@DarkHorseC

; 2221 : 			{
; 2222 : 				SoulGemCount++;

  00086	ff 45 d0	 inc	 DWORD PTR _SoulGemCount$[ebp]
  00089	eb 4f		 jmp	 SHORT $LN33@DarkHorseC
$LN28@DarkHorseC:

; 2223 : 			}
; 2224 : 			else if ( lpObj->pChaosBox[n].m_Type == ITEMGET(14,22) )

  0008b	ba 16 1c 00 00	 mov	 edx, 7190		; 00001c16H
  00090	66 3b c2	 cmp	 ax, dx
  00093	75 05		 jne	 SHORT $LN26@DarkHorseC

; 2225 : 			{
; 2226 : 				CreatureGemCount++;

  00095	ff 45 e0	 inc	 DWORD PTR _CreatureGemCount$[ebp]
  00098	eb 40		 jmp	 SHORT $LN33@DarkHorseC
$LN26@DarkHorseC:

; 2227 : 			}
; 2228 : 			else if ( lpObj->pChaosBox[n].m_Type == ITEMGET(12,15) )

  0009a	ba 0f 18 00 00	 mov	 edx, 6159		; 0000180fH
  0009f	66 3b c2	 cmp	 ax, dx
  000a2	75 05		 jne	 SHORT $LN24@DarkHorseC

; 2229 : 			{
; 2230 : 				ChoasGemCount++;

  000a4	ff 45 d4	 inc	 DWORD PTR _ChoasGemCount$[ebp]
  000a7	eb 31		 jmp	 SHORT $LN33@DarkHorseC
$LN24@DarkHorseC:

; 2231 : 			}
; 2232 : 			else if ( lpObj->pChaosBox[n].m_Type == ITEMGET(13,31) && lpObj->pChaosBox[n].m_Level == 0 )

  000a9	ba 1f 1a 00 00	 mov	 edx, 6687		; 00001a1fH
  000ae	66 3b c2	 cmp	 ax, dx
  000b1	75 0d		 jne	 SHORT $LN22@DarkHorseC
  000b3	66 83 7c 39 08
	00		 cmp	 WORD PTR [ecx+edi+8], 0
  000b9	75 05		 jne	 SHORT $LN22@DarkHorseC

; 2233 : 			{
; 2234 : 				SoulOfDarkHorse++;

  000bb	ff 45 e4	 inc	 DWORD PTR _SoulOfDarkHorse$[ebp]
  000be	eb 1a		 jmp	 SHORT $LN33@DarkHorseC
$LN22@DarkHorseC:

; 2235 : 			}
; 2236 : 			else if ( lpObj->pChaosBox[n].m_Type == ITEMGET(14,53) )

  000c0	ba 35 1c 00 00	 mov	 edx, 7221		; 00001c35H
  000c5	66 3b c2	 cmp	 ax, dx
  000c8	75 0d		 jne	 SHORT $LN20@DarkHorseC

; 2237 : 			{
; 2238 : 				iCharmOfLuckCount += (int)lpObj->pChaosBox[n].m_Durability;

  000ca	d9 44 39 24	 fld	 DWORD PTR [ecx+edi+36]
  000ce	e8 00 00 00 00	 call	 __ftol2_sse
  000d3	03 d8		 add	 ebx, eax

; 2239 : 			}
; 2240 : 			else

  000d5	eb 03		 jmp	 SHORT $LN33@DarkHorseC
$LN20@DarkHorseC:

; 2241 : 			{
; 2242 : 				iInvalidItemCount++;

  000d7	ff 45 e8	 inc	 DWORD PTR _iInvalidItemCount$[ebp]
$LN33@DarkHorseC:

; 2211 : 
; 2212 : 	for ( int n=0;n<CHAOS_BOX_SIZE;n++)

  000da	81 c7 d4 00 00
	00		 add	 edi, 212		; 000000d4H
  000e0	81 ff 80 1a 00
	00		 cmp	 edi, 6784		; 00001a80H
  000e6	0f 8c 64 ff ff
	ff		 jl	 $LL34@DarkHorseC

; 2243 : 			}
; 2244 : 			
; 2245 : 
; 2246 : 		}
; 2247 : 	}
; 2248 : 
; 2249 : 	if ( ChoasGemCount != 1 || BlessGemCount != 5 || SoulGemCount != 5 || CreatureGemCount != 1 || SoulOfDarkHorse != 1 || iInvalidItemCount > 0 )

  000ec	b9 01 00 00 00	 mov	 ecx, 1
  000f1	89 5d cc	 mov	 DWORD PTR _iCharmOfLuckCount$[ebp], ebx
  000f4	39 4d d4	 cmp	 DWORD PTR _ChoasGemCount$[ebp], ecx
  000f7	0f 85 a8 02 00
	00		 jne	 $LN39@DarkHorseC
  000fd	b8 05 00 00 00	 mov	 eax, 5
  00102	39 45 d8	 cmp	 DWORD PTR _BlessGemCount$[ebp], eax
  00105	0f 85 9a 02 00
	00		 jne	 $LN39@DarkHorseC
  0010b	39 45 d0	 cmp	 DWORD PTR _SoulGemCount$[ebp], eax
  0010e	0f 85 91 02 00
	00		 jne	 $LN39@DarkHorseC
  00114	39 4d e0	 cmp	 DWORD PTR _CreatureGemCount$[ebp], ecx
  00117	0f 85 88 02 00
	00		 jne	 $LN39@DarkHorseC
  0011d	39 4d e4	 cmp	 DWORD PTR _SoulOfDarkHorse$[ebp], ecx
  00120	0f 85 7f 02 00
	00		 jne	 $LN39@DarkHorseC
  00126	83 7d e8 00	 cmp	 DWORD PTR _iInvalidItemCount$[ebp], 0
  0012a	0f 8f 75 02 00
	00		 jg	 $LN39@DarkHorseC

; 2252 : 		lpObj->ChaosLock = FALSE;
; 2253 : 
; 2254 : 		return;
; 2255 : 	}
; 2256 : 
; 2257 : 	if ( iCharmOfLuckCount > 10 )

  00130	83 fb 0a	 cmp	 ebx, 10			; 0000000aH
  00133	7e 15		 jle	 SHORT $LN16@DarkHorseC

; 2258 : 	{
; 2259 : 		pMsg.Result = 0xF0;
; 2260 : 		DataSend(lpObj->m_Index, (LPBYTE)&pMsg, pMsg.h.size);

  00135	0f b6 45 ed	 movzx	 eax, BYTE PTR _pMsg$[ebp+1]
  00139	8b 16		 mov	 edx, DWORD PTR [esi]
  0013b	50		 push	 eax
  0013c	8d 4d ec	 lea	 ecx, DWORD PTR _pMsg$[ebp]
  0013f	51		 push	 ecx
  00140	c6 45 ef f0	 mov	 BYTE PTR _pMsg$[ebp+3], 240 ; 000000f0H
  00144	52		 push	 edx

; 2261 : 		lpObj->ChaosLock = FALSE;
; 2262 : 
; 2263 : 		return ;

  00145	e9 67 02 00 00	 jmp	 $LN40@DarkHorseC
$LN16@DarkHorseC:

; 2264 : 	}
; 2265 : 
; 2266 : 	LogChaosItem(lpObj, "DarkHorseMix");

  0014a	8b 4d dc	 mov	 ecx, DWORD PTR _this$[ebp]
  0014d	68 00 00 00 00	 push	 OFFSET ??_C@_0N@LDINKAHL@DarkHorseMix?$AA@
  00152	56		 push	 esi
  00153	e8 00 00 00 00	 call	 ?LogChaosItem@CMixSystem@@QAEXPAUOBJECTSTRUCT@@PAD@Z ; CMixSystem::LogChaosItem

; 2267 : 	LogAddTD("[DarkHorseMix] Chaos Mix Start");

  00158	68 00 00 00 00	 push	 OFFSET ??_C@_0BP@IMILBLLO@?$FLDarkHorseMix?$FN?5Chaos?5Mix?5Start?$AA@
  0015d	ff 15 00 00 00
	00		 call	 DWORD PTR ?LogAddTD@@3P6AXPADZZA ; LogAddTD

; 2268 : 	//int ExDarkHorseMixSuccessRate = GetPrivateProfileInt("ChaosMix","DarkHorseMixSuccessRate",60,"..\\Data\\ZtData\\CommonServer.ini");
; 2269 : 	lpObj->ChaosSuccessRate = ZtConfig.CommonServer.ZtDarkHorseMixSuccessRate;
; 2270 : 	lpObj->ChaosSuccessRate += iCharmOfLuckCount;
; 2271 : 
; 2272 : 	int nChaosNeedMoney = 5000000;
; 2273 : 
; 2274 : 	int iChaosTaxMoney = (int)((__int64)nChaosNeedMoney * (__int64)g_CastleSiegeSync.GetTaxRateChaos(lpObj->m_Index) / (__int64)100);

  00163	8b 0e		 mov	 ecx, DWORD PTR [esi]
  00165	a1 88 00 00 00	 mov	 eax, DWORD PTR ?ZtConfig@@3VcZtConfigs@@A+136
  0016a	83 c4 04	 add	 esp, 4
  0016d	51		 push	 ecx
  0016e	89 86 84 0e 00
	00		 mov	 DWORD PTR [esi+3716], eax
  00174	01 9e 84 0e 00
	00		 add	 DWORD PTR [esi+3716], ebx
  0017a	b9 00 00 00 00	 mov	 ecx, OFFSET ?g_CastleSiegeSync@@3VCCastleSiegeSync@@A ; g_CastleSiegeSync
  0017f	e8 00 00 00 00	 call	 ?GetTaxRateChaos@CCastleSiegeSync@@QAEHH@Z ; CCastleSiegeSync::GetTaxRateChaos
  00184	6a 00		 push	 0
  00186	99		 cdq
  00187	68 40 4b 4c 00	 push	 5000000			; 004c4b40H
  0018c	52		 push	 edx
  0018d	50		 push	 eax
  0018e	e8 00 00 00 00	 call	 __allmul
  00193	6a 00		 push	 0
  00195	6a 64		 push	 100			; 00000064H
  00197	52		 push	 edx
  00198	50		 push	 eax
  00199	e8 00 00 00 00	 call	 __alldiv

; 2275 : 
; 2276 : 	if ( iChaosTaxMoney < 0 )

  0019e	85 c0		 test	 eax, eax
  001a0	79 02		 jns	 SHORT $LN15@DarkHorseC

; 2277 : 	{
; 2278 : 		iChaosTaxMoney = 0;

  001a2	33 c0		 xor	 eax, eax
$LN15@DarkHorseC:

; 2279 : 	}
; 2280 : 
; 2281 : 	nChaosNeedMoney += iChaosTaxMoney;
; 2282 : 
; 2283 : 		nChaosNeedMoney += lpObj->m_AddMixMoney;

  001a4	8b 96 20 28 00
	00		 mov	 edx, DWORD PTR [esi+10272]
  001aa	8d bc 02 40 4b
	4c 00		 lea	 edi, DWORD PTR [edx+eax+5000000]

; 2284 : 
; 2285 : 	if ( nChaosNeedMoney < 0 )

  001b1	85 ff		 test	 edi, edi
  001b3	79 02		 jns	 SHORT $LN14@DarkHorseC

; 2286 : 	{
; 2287 : 		nChaosNeedMoney = 0;

  001b5	33 ff		 xor	 edi, edi
$LN14@DarkHorseC:

; 2288 : 	}
; 2289 : 
; 2290 : 	if ( lpObj->Money < nChaosNeedMoney )

  001b7	8b 8e f0 00 00
	00		 mov	 ecx, DWORD PTR [esi+240]
  001bd	3b cf		 cmp	 ecx, edi
  001bf	7d 15		 jge	 SHORT $LN13@DarkHorseC

; 2291 : 	{
; 2292 : 		pMsg.Result = CB_NOT_ENOUGH_ZEN;
; 2293 : 		
; 2294 : 		DataSend(lpObj->m_Index, (LPBYTE)&pMsg, pMsg.h.size);

  001c1	0f b6 45 ed	 movzx	 eax, BYTE PTR _pMsg$[ebp+1]
  001c5	8b 16		 mov	 edx, DWORD PTR [esi]
  001c7	50		 push	 eax
  001c8	8d 4d ec	 lea	 ecx, DWORD PTR _pMsg$[ebp]
  001cb	51		 push	 ecx
  001cc	c6 45 ef 02	 mov	 BYTE PTR _pMsg$[ebp+3], 2
  001d0	52		 push	 edx

; 2295 : 		lpObj->ChaosLock = FALSE;
; 2296 : 
; 2297 : 		return;

  001d1	e9 db 01 00 00	 jmp	 $LN40@DarkHorseC
$LN13@DarkHorseC:

; 2298 : 	}
; 2299 : 
; 2300 : 	lpObj->ChaosSuccessRate += lpObj->m_AddMixSuccessRate;

  001d6	8b 96 24 28 00
	00		 mov	 edx, DWORD PTR [esi+10276]
  001dc	01 96 84 0e 00
	00		 add	 DWORD PTR [esi+3716], edx

; 2301 : 
; 2302 : 
; 2303 : 
; 2304 : 	lpObj->Money -= nChaosNeedMoney;

  001e2	2b cf		 sub	 ecx, edi
  001e4	89 8e f0 00 00
	00		 mov	 DWORD PTR [esi+240], ecx

; 2305 : 	g_CastleSiegeSync.AddTributeMoney(iChaosTaxMoney);

  001ea	50		 push	 eax
  001eb	b9 00 00 00 00	 mov	 ecx, OFFSET ?g_CastleSiegeSync@@3VCCastleSiegeSync@@A ; g_CastleSiegeSync
  001f0	e8 00 00 00 00	 call	 ?AddTributeMoney@CCastleSiegeSync@@QAEXH@Z ; CCastleSiegeSync::AddTributeMoney

; 2306 : 	GCMoneySend(lpObj->m_Index, lpObj->Money);

  001f5	8b 86 f0 00 00
	00		 mov	 eax, DWORD PTR [esi+240]
  001fb	8b 0e		 mov	 ecx, DWORD PTR [esi]
  001fd	50		 push	 eax
  001fe	51		 push	 ecx
  001ff	e8 00 00 00 00	 call	 ?GCMoneySend@@YAXHK@Z	; GCMoneySend
  00204	83 c4 08	 add	 esp, 8

; 2307 : 
; 2308 : 	if ( (rand()%100) < lpObj->ChaosSuccessRate )

  00207	e8 00 00 00 00	 call	 _rand
  0020c	99		 cdq
  0020d	b9 64 00 00 00	 mov	 ecx, 100		; 00000064H
  00212	f7 f9		 idiv	 ecx
  00214	3b 96 84 0e 00
	00		 cmp	 edx, DWORD PTR [esi+3716]
  0021a	0f 8d 13 01 00
	00		 jge	 $LN12@DarkHorseC

; 2309 : 	{
; 2310 : 		int Level = 0;
; 2311 : 		int ItemType = 13;
; 2312 : 		int ItemSubType = 4;
; 2313 : 		int ItemNum = ITEMGET(ItemType, ItemSubType);
; 2314 : 		int Option1 = 0;

  00220	33 db		 xor	 ebx, ebx
  00222	89 5d e4	 mov	 DWORD PTR _Option1$218458[ebp], ebx

; 2315 : 		int Option2 = 0;
; 2316 : 		int Option3 = 0;
; 2317 : 
; 2318 : 		int Add = 0;

  00225	89 5d e0	 mov	 DWORD PTR _Add$218461[ebp], ebx

; 2319 : 
; 2320 : 		if ( (rand()%100) < (lpObj->ChaosSuccessRate/5+6) )

  00228	e8 00 00 00 00	 call	 _rand
  0022d	99		 cdq
  0022e	b9 64 00 00 00	 mov	 ecx, 100		; 00000064H
  00233	f7 f9		 idiv	 ecx
  00235	b8 67 66 66 66	 mov	 eax, 1717986919		; 66666667H
  0023a	89 55 dc	 mov	 DWORD PTR tv478[ebp], edx
  0023d	f7 ae 84 0e 00
	00		 imul	 DWORD PTR [esi+3716]
  00243	d1 fa		 sar	 edx, 1
  00245	8b c2		 mov	 eax, edx
  00247	c1 e8 1f	 shr	 eax, 31			; 0000001fH
  0024a	8d 4c 02 06	 lea	 ecx, DWORD PTR [edx+eax+6]
  0024e	39 4d dc	 cmp	 DWORD PTR tv478[ebp], ecx
  00251	7d 07		 jge	 SHORT $LN11@DarkHorseC

; 2321 : 		{
; 2322 : 			Add = 1;

  00253	c7 45 e0 01 00
	00 00		 mov	 DWORD PTR _Add$218461[ebp], 1
$LN11@DarkHorseC:

; 2323 : 		}
; 2324 : 
; 2325 : 		if ( (rand()%5) == 0 )

  0025a	e8 00 00 00 00	 call	 _rand
  0025f	99		 cdq
  00260	b9 05 00 00 00	 mov	 ecx, 5
  00265	f7 f9		 idiv	 ecx
  00267	85 d2		 test	 edx, edx
  00269	75 07		 jne	 SHORT $LN10@DarkHorseC

; 2326 : 		{
; 2327 : 			Option1 = 1;

  0026b	c7 45 e4 01 00
	00 00		 mov	 DWORD PTR _Option1$218458[ebp], 1
$LN10@DarkHorseC:

; 2328 : 		}
; 2329 : 
; 2330 : 		int lc22 = rand()%100;	

  00272	e8 00 00 00 00	 call	 _rand
  00277	99		 cdq
  00278	b9 64 00 00 00	 mov	 ecx, 100		; 00000064H
  0027d	f7 f9		 idiv	 ecx
  0027f	89 55 e8	 mov	 DWORD PTR _lc22$218464[ebp], edx

; 2331 : 		int lc23 = rand()%3;

  00282	e8 00 00 00 00	 call	 _rand
  00287	99		 cdq
  00288	b9 03 00 00 00	 mov	 ecx, 3
  0028d	f7 f9		 idiv	 ecx

; 2332 : 
; 2333 : 		switch ( lc23 )

  0028f	2b d3		 sub	 edx, ebx
  00291	74 1e		 je	 SHORT $LN7@DarkHorseC
  00293	4a		 dec	 edx
  00294	74 0e		 je	 SHORT $LN5@DarkHorseC
  00296	4a		 dec	 edx
  00297	75 20		 jne	 SHORT $LN6@DarkHorseC

; 2348 : 
; 2349 : 			case 2:
; 2350 : 				if ( lc22 <  20 )

  00299	83 7d e8 14	 cmp	 DWORD PTR _lc22$218464[ebp], 20 ; 00000014H
  0029d	7d 1a		 jge	 SHORT $LN6@DarkHorseC

; 2351 : 				{
; 2352 : 					Option2 = 1;

  0029f	8d 59 fe	 lea	 ebx, DWORD PTR [ecx-2]

; 2353 : 				}
; 2354 : 				break;

  002a2	eb 15		 jmp	 SHORT $LN6@DarkHorseC
$LN5@DarkHorseC:

; 2339 : 				}
; 2340 : 				break;
; 2341 : 
; 2342 : 			case 1:
; 2343 : 				if ( lc22 <  10 )

  002a4	83 7d e8 0a	 cmp	 DWORD PTR _lc22$218464[ebp], 10 ; 0000000aH
  002a8	7d 0f		 jge	 SHORT $LN6@DarkHorseC

; 2344 : 				{
; 2345 : 					Option2 = 2;

  002aa	bb 02 00 00 00	 mov	 ebx, 2

; 2346 : 				}
; 2347 : 				break;

  002af	eb 08		 jmp	 SHORT $LN6@DarkHorseC
$LN7@DarkHorseC:

; 2334 : 		{
; 2335 : 			case 0:
; 2336 : 				if ( lc22 <  4 )

  002b1	83 7d e8 04	 cmp	 DWORD PTR _lc22$218464[ebp], 4
  002b5	7d 02		 jge	 SHORT $LN6@DarkHorseC

; 2337 : 				{
; 2338 : 					Option2 = 3;

  002b7	8b d9		 mov	 ebx, ecx
$LN6@DarkHorseC:

; 2355 : 		}
; 2356 : 
; 2357 : 		::PetItemSerialCreateSend(lpObj->m_Index, -2, 0, 0, ItemNum, Level, 0,Add,  Option1, Option2, -1, 0, 0); 

  002b9	8b 55 e4	 mov	 edx, DWORD PTR _Option1$218458[ebp]
  002bc	8b 45 e0	 mov	 eax, DWORD PTR _Add$218461[ebp]
  002bf	6a 00		 push	 0
  002c1	8b 0e		 mov	 ecx, DWORD PTR [esi]
  002c3	6a 00		 push	 0
  002c5	6a ff		 push	 -1
  002c7	53		 push	 ebx
  002c8	52		 push	 edx
  002c9	50		 push	 eax
  002ca	6a 00		 push	 0
  002cc	6a 00		 push	 0
  002ce	68 04 1a 00 00	 push	 6660			; 00001a04H
  002d3	6a 00		 push	 0
  002d5	6a 00		 push	 0
  002d7	68 fe 00 00 00	 push	 254			; 000000feH
  002dc	51		 push	 ecx
  002dd	e8 00 00 00 00	 call	 ?PetItemSerialCreateSend@@YAXHEEEHEEEEEHEE@Z ; PetItemSerialCreateSend

; 2358 : 		::gObjInventoryCommit(lpObj->m_Index);

  002e2	8b 16		 mov	 edx, DWORD PTR [esi]
  002e4	52		 push	 edx
  002e5	e8 00 00 00 00	 call	 ?gObjInventoryCommit@@YAHH@Z ; gObjInventoryCommit

; 2359 : 		LogAddTD("[DarkHorseMix] [%s][%s] CBMix Success %d Money : %d-%d, CharmRate : %d",
; 2360 : 			lpObj->AccountID, lpObj->Name, lpObj->ChaosSuccessRate,
; 2361 : 			lpObj->Money, nChaosNeedMoney, iCharmOfLuckCount);

  002ea	8b 45 cc	 mov	 eax, DWORD PTR _iCharmOfLuckCount$[ebp]
  002ed	8b 8e f0 00 00
	00		 mov	 ecx, DWORD PTR [esi+240]
  002f3	8b 96 84 0e 00
	00		 mov	 edx, DWORD PTR [esi+3716]
  002f9	50		 push	 eax
  002fa	57		 push	 edi
  002fb	51		 push	 ecx
  002fc	52		 push	 edx
  002fd	8d 46 77	 lea	 eax, DWORD PTR [esi+119]
  00300	50		 push	 eax
  00301	8d 4e 6c	 lea	 ecx, DWORD PTR [esi+108]
  00304	51		 push	 ecx
  00305	68 00 00 00 00	 push	 OFFSET ??_C@_0EH@JGHMMOON@?$FLDarkHorseMix?$FN?5?$FL?$CFs?$FN?$FL?$CFs?$FN?5CBMix?5Su@
  0030a	ff 15 00 00 00
	00		 call	 DWORD PTR ?LogAddTD@@3P6AXPADZZA ; LogAddTD

; 2362 : #if(SYSTEM_ACHIEVEMENTS)
; 2363 : 		g_Achievements.SuccessChaosMix(lpObj->m_Index);

  00310	8b 16		 mov	 edx, DWORD PTR [esi]
  00312	83 c4 54	 add	 esp, 84			; 00000054H
  00315	52		 push	 edx
  00316	b9 00 00 00 00	 mov	 ecx, OFFSET ?g_Achievements@@3VCAchievements@@A ; g_Achievements
  0031b	e8 00 00 00 00	 call	 ?SuccessChaosMix@CAchievements@@QAEXH@Z ; CAchievements::SuccessChaosMix
  00320	5f		 pop	 edi
  00321	5e		 pop	 esi
  00322	5b		 pop	 ebx

; 2378 : #endif
; 2379 : 	}
; 2380 : }

  00323	8b 4d fc	 mov	 ecx, DWORD PTR __$ArrayPad$[ebp]
  00326	33 cd		 xor	 ecx, ebp
  00328	e8 00 00 00 00	 call	 @__security_check_cookie@4
  0032d	8b e5		 mov	 esp, ebp
  0032f	5d		 pop	 ebp
  00330	c2 04 00	 ret	 4
$LN12@DarkHorseC:

; 2364 : #endif
; 2365 : 	}
; 2366 : 	else
; 2367 : 	{
; 2368 : 		this->ChaosBoxInit(lpObj);

  00333	8b 4d dc	 mov	 ecx, DWORD PTR _this$[ebp]
  00336	56		 push	 esi
  00337	e8 00 00 00 00	 call	 ?ChaosBoxInit@CMixSystem@@QAEHPAUOBJECTSTRUCT@@@Z ; CMixSystem::ChaosBoxInit

; 2369 : 		GCUserChaosBoxSend(lpObj, 1);

  0033c	6a 01		 push	 1
  0033e	56		 push	 esi
  0033f	e8 00 00 00 00	 call	 ?GCUserChaosBoxSend@@YAXPAUOBJECTSTRUCT@@H@Z ; GCUserChaosBoxSend

; 2370 : 		DataSend(lpObj->m_Index, (LPBYTE)&pMsg, pMsg.h.size);

  00344	0f b6 45 ed	 movzx	 eax, BYTE PTR _pMsg$[ebp+1]
  00348	8b 16		 mov	 edx, DWORD PTR [esi]
  0034a	50		 push	 eax
  0034b	8d 4d ec	 lea	 ecx, DWORD PTR _pMsg$[ebp]
  0034e	51		 push	 ecx
  0034f	52		 push	 edx
  00350	e8 00 00 00 00	 call	 ?DataSend@@YAHHPAEK@Z	; DataSend

; 2371 : 
; 2372 : 		LogAddTD("[DarkHorseMix] [%s][%s] CBMix Fail %d Money : %d-%d, CharmRate : %d",
; 2373 : 			lpObj->AccountID, lpObj->Name, lpObj->ChaosSuccessRate,
; 2374 : 			lpObj->Money, nChaosNeedMoney, iCharmOfLuckCount);

  00355	8b 86 f0 00 00
	00		 mov	 eax, DWORD PTR [esi+240]
  0035b	8b 8e 84 0e 00
	00		 mov	 ecx, DWORD PTR [esi+3716]
  00361	53		 push	 ebx
  00362	57		 push	 edi
  00363	50		 push	 eax
  00364	51		 push	 ecx
  00365	8d 56 77	 lea	 edx, DWORD PTR [esi+119]
  00368	52		 push	 edx
  00369	8d 46 6c	 lea	 eax, DWORD PTR [esi+108]
  0036c	50		 push	 eax
  0036d	68 00 00 00 00	 push	 OFFSET ??_C@_0EE@MAGJAMAN@?$FLDarkHorseMix?$FN?5?$FL?$CFs?$FN?$FL?$CFs?$FN?5CBMix?5Fa@
  00372	ff 15 00 00 00
	00		 call	 DWORD PTR ?LogAddTD@@3P6AXPADZZA ; LogAddTD

; 2375 : 		lpObj->ChaosLock = FALSE;
; 2376 : #if(SYSTEM_ACHIEVEMENTS)
; 2377 : 		g_Achievements.FailedChaosMix(lpObj->m_Index);

  00378	8b 0e		 mov	 ecx, DWORD PTR [esi]
  0037a	83 c4 30	 add	 esp, 48			; 00000030H
  0037d	51		 push	 ecx
  0037e	b9 00 00 00 00	 mov	 ecx, OFFSET ?g_Achievements@@3VCAchievements@@A ; g_Achievements
  00383	c7 86 88 0e 00
	00 00 00 00 00	 mov	 DWORD PTR [esi+3720], 0
  0038d	e8 00 00 00 00	 call	 ?FailedChaosMix@CAchievements@@QAEXH@Z ; CAchievements::FailedChaosMix
  00392	5f		 pop	 edi
  00393	5e		 pop	 esi
  00394	5b		 pop	 ebx

; 2378 : #endif
; 2379 : 	}
; 2380 : }

  00395	8b 4d fc	 mov	 ecx, DWORD PTR __$ArrayPad$[ebp]
  00398	33 cd		 xor	 ecx, ebp
  0039a	e8 00 00 00 00	 call	 @__security_check_cookie@4
  0039f	8b e5		 mov	 esp, ebp
  003a1	5d		 pop	 ebp
  003a2	c2 04 00	 ret	 4
$LN39@DarkHorseC:

; 2250 : 	{
; 2251 : 		DataSend(lpObj->m_Index, (LPBYTE)&pMsg, pMsg.h.size);

  003a5	0f b6 55 ed	 movzx	 edx, BYTE PTR _pMsg$[ebp+1]
  003a9	8b 0e		 mov	 ecx, DWORD PTR [esi]
  003ab	52		 push	 edx
  003ac	8d 45 ec	 lea	 eax, DWORD PTR _pMsg$[ebp]
  003af	50		 push	 eax
  003b0	51		 push	 ecx
$LN40@DarkHorseC:
  003b1	e8 00 00 00 00	 call	 ?DataSend@@YAHHPAEK@Z	; DataSend

; 2378 : #endif
; 2379 : 	}
; 2380 : }

  003b6	8b 4d fc	 mov	 ecx, DWORD PTR __$ArrayPad$[ebp]
  003b9	83 c4 0c	 add	 esp, 12			; 0000000cH
  003bc	5f		 pop	 edi
  003bd	c7 86 88 0e 00
	00 00 00 00 00	 mov	 DWORD PTR [esi+3720], 0
  003c7	5e		 pop	 esi
  003c8	33 cd		 xor	 ecx, ebp
  003ca	5b		 pop	 ebx
  003cb	e8 00 00 00 00	 call	 @__security_check_cookie@4
  003d0	8b e5		 mov	 esp, ebp
  003d2	5d		 pop	 ebp
  003d3	c2 04 00	 ret	 4
?DarkHorseChaosMix@CMixSystem@@QAEXPAUOBJECTSTRUCT@@@Z ENDP ; CMixSystem::DarkHorseChaosMix
_TEXT	ENDS
PUBLIC	??_C@_0EF@ENJLGEHL@?$FLDarkSpiritMix?$FN?5?$FL?$CFs?$FN?$FL?$CFs?$FN?5CBMix?5F@ ; `string'
PUBLIC	??_C@_0EI@DIJHKIBN@?$FLDarkSpiritMix?$FN?5?$FL?$CFs?$FN?$FL?$CFs?$FN?5CBMix?5S@ ; `string'
PUBLIC	??_C@_0CA@HOBPNGGO@?$FLDarkSpiritMix?$FN?5Chaos?5Mix?5Start?$AA@ ; `string'
PUBLIC	??_C@_0O@OCFEOMDO@DarkSpiritMix?$AA@		; `string'
PUBLIC	__$ArrayPad$
PUBLIC	?DarkSpiritChaosMix@CMixSystem@@QAEXPAUOBJECTSTRUCT@@@Z ; CMixSystem::DarkSpiritChaosMix
;	COMDAT ??_C@_0EF@ENJLGEHL@?$FLDarkSpiritMix?$FN?5?$FL?$CFs?$FN?$FL?$CFs?$FN?5CBMix?5F@
CONST	SEGMENT
??_C@_0EF@ENJLGEHL@?$FLDarkSpiritMix?$FN?5?$FL?$CFs?$FN?$FL?$CFs?$FN?5CBMix?5F@ DB '['
	DB	'DarkSpiritMix] [%s][%s] CBMix Fail %d Money : %d-%d, CharmRat'
	DB	'e : %d', 00H				; `string'
CONST	ENDS
;	COMDAT ??_C@_0EI@DIJHKIBN@?$FLDarkSpiritMix?$FN?5?$FL?$CFs?$FN?$FL?$CFs?$FN?5CBMix?5S@
CONST	SEGMENT
??_C@_0EI@DIJHKIBN@?$FLDarkSpiritMix?$FN?5?$FL?$CFs?$FN?$FL?$CFs?$FN?5CBMix?5S@ DB '['
	DB	'DarkSpiritMix] [%s][%s] CBMix Success %d Money : %d-%d, Charm'
	DB	'Rate : %d', 00H				; `string'
CONST	ENDS
;	COMDAT ??_C@_0CA@HOBPNGGO@?$FLDarkSpiritMix?$FN?5Chaos?5Mix?5Start?$AA@
CONST	SEGMENT
??_C@_0CA@HOBPNGGO@?$FLDarkSpiritMix?$FN?5Chaos?5Mix?5Start?$AA@ DB '[Dar'
	DB	'kSpiritMix] Chaos Mix Start', 00H		; `string'
CONST	ENDS
;	COMDAT ??_C@_0O@OCFEOMDO@DarkSpiritMix?$AA@
CONST	SEGMENT
??_C@_0O@OCFEOMDO@DarkSpiritMix?$AA@ DB 'DarkSpiritMix', 00H ; `string'
; Function compile flags: /Ogtp
CONST	ENDS
;	COMDAT ?DarkSpiritChaosMix@CMixSystem@@QAEXPAUOBJECTSTRUCT@@@Z
_TEXT	SEGMENT
_iCharmOfLuckCount$ = -52				; size = 4
_SoulGemCount$ = -48					; size = 4
_ChoasGemCount$ = -44					; size = 4
_BlessGemCount$ = -40					; size = 4
tv478 = -36						; size = 4
_this$ = -36						; size = 4
_Add$218538 = -32					; size = 4
_CreatureGemCount$ = -32				; size = 4
_Option1$218535 = -28					; size = 4
_SoulOfSpirit$ = -28					; size = 4
_lc22$218541 = -24					; size = 4
_iInvalidItemCount$ = -24				; size = 4
_pMsg$ = -20						; size = 16
__$ArrayPad$ = -4					; size = 4
_lpObj$ = 8						; size = 4
?DarkSpiritChaosMix@CMixSystem@@QAEXPAUOBJECTSTRUCT@@@Z PROC ; CMixSystem::DarkSpiritChaosMix, COMDAT
; _this$ = ecx

; 2383 : {

  00000	55		 push	 ebp
  00001	8b ec		 mov	 ebp, esp
  00003	83 ec 34	 sub	 esp, 52			; 00000034H
  00006	a1 00 00 00 00	 mov	 eax, DWORD PTR ___security_cookie
  0000b	33 c5		 xor	 eax, ebp
  0000d	89 45 fc	 mov	 DWORD PTR __$ArrayPad$[ebp], eax
  00010	53		 push	 ebx
  00011	56		 push	 esi
  00012	8b 75 08	 mov	 esi, DWORD PTR _lpObj$[ebp]
  00015	57		 push	 edi

; 2384 : 	lpObj->ChaosLock = TRUE;
; 2385 : 	int ChoasGemCount = 0;

  00016	33 ff		 xor	 edi, edi

; 2386 : 	int BlessGemCount = 0;
; 2387 : 	int SoulGemCount = 0;
; 2388 : 	int CreatureGemCount = 0;
; 2389 : 	int SoulOfSpirit = 0;
; 2390 : 	int iChaosMoney = 0;
; 2391 : 
; 2392 : 	PMSG_CHAOSMIXRESULT pMsg;
; 2393 : 
; 2394 : 	PHeadSetB((LPBYTE)&pMsg.h, 0x86, sizeof(PMSG_CHAOSMIXRESULT));

  00018	6a 10		 push	 16			; 00000010H
  0001a	8d 45 ec	 lea	 eax, DWORD PTR _pMsg$[ebp]
  0001d	68 86 00 00 00	 push	 134			; 00000086H
  00022	50		 push	 eax
  00023	89 4d dc	 mov	 DWORD PTR _this$[ebp], ecx
  00026	c7 86 88 0e 00
	00 01 00 00 00	 mov	 DWORD PTR [esi+3720], 1
  00030	89 7d d4	 mov	 DWORD PTR _ChoasGemCount$[ebp], edi
  00033	89 7d d8	 mov	 DWORD PTR _BlessGemCount$[ebp], edi
  00036	89 7d d0	 mov	 DWORD PTR _SoulGemCount$[ebp], edi
  00039	89 7d e0	 mov	 DWORD PTR _CreatureGemCount$[ebp], edi
  0003c	89 7d e4	 mov	 DWORD PTR _SoulOfSpirit$[ebp], edi
  0003f	e8 00 00 00 00	 call	 ?PHeadSetB@@YAXPAEEH@Z	; PHeadSetB
  00044	83 c4 0c	 add	 esp, 12			; 0000000cH

; 2395 : 	pMsg.Result = CB_ERROR;

  00047	c6 45 ef 00	 mov	 BYTE PTR _pMsg$[ebp+3], 0

; 2396 : 	int iCharmOfLuckCount = 0;

  0004b	33 db		 xor	 ebx, ebx

; 2397 : 	int iInvalidItemCount = 0;

  0004d	89 7d e8	 mov	 DWORD PTR _iInvalidItemCount$[ebp], edi
$LL34@DarkSpirit:

; 2400 : 	{
; 2401 : 		if ( lpObj->pChaosBox[n].IsItem() == TRUE )

  00050	8b 8e 78 0e 00
	00		 mov	 ecx, DWORD PTR [esi+3704]
  00056	03 cf		 add	 ecx, edi
  00058	e8 00 00 00 00	 call	 ?IsItem@CItem@@QAEHXZ	; CItem::IsItem
  0005d	83 f8 01	 cmp	 eax, 1
  00060	75 7c		 jne	 SHORT $LN33@DarkSpirit

; 2402 : 		{
; 2403 : 			if ( lpObj->pChaosBox[n].m_Type == ITEMGET(14,13) )

  00062	8b 8e 78 0e 00
	00		 mov	 ecx, DWORD PTR [esi+3704]
  00068	0f b7 44 39 06	 movzx	 eax, WORD PTR [ecx+edi+6]
  0006d	ba 0d 1c 00 00	 mov	 edx, 7181		; 00001c0dH
  00072	66 3b c2	 cmp	 ax, dx
  00075	75 05		 jne	 SHORT $LN30@DarkSpirit

; 2404 : 			{
; 2405 : 				BlessGemCount++;

  00077	ff 45 d8	 inc	 DWORD PTR _BlessGemCount$[ebp]
  0007a	eb 62		 jmp	 SHORT $LN33@DarkSpirit
$LN30@DarkSpirit:

; 2406 : 			}
; 2407 : 			else if ( lpObj->pChaosBox[n].m_Type == ITEMGET(14,14) )

  0007c	ba 0e 1c 00 00	 mov	 edx, 7182		; 00001c0eH
  00081	66 3b c2	 cmp	 ax, dx
  00084	75 05		 jne	 SHORT $LN28@DarkSpirit

; 2408 : 			{
; 2409 : 				SoulGemCount++;

  00086	ff 45 d0	 inc	 DWORD PTR _SoulGemCount$[ebp]
  00089	eb 53		 jmp	 SHORT $LN33@DarkSpirit
$LN28@DarkSpirit:

; 2410 : 			}
; 2411 : 			else if ( lpObj->pChaosBox[n].m_Type == ITEMGET(14,22) )

  0008b	ba 16 1c 00 00	 mov	 edx, 7190		; 00001c16H
  00090	66 3b c2	 cmp	 ax, dx
  00093	75 05		 jne	 SHORT $LN26@DarkSpirit

; 2412 : 			{
; 2413 : 				CreatureGemCount++;

  00095	ff 45 e0	 inc	 DWORD PTR _CreatureGemCount$[ebp]
  00098	eb 44		 jmp	 SHORT $LN33@DarkSpirit
$LN26@DarkSpirit:

; 2414 : 			}
; 2415 : 			else if ( lpObj->pChaosBox[n].m_Type == ITEMGET(12,15) )

  0009a	ba 0f 18 00 00	 mov	 edx, 6159		; 0000180fH
  0009f	66 3b c2	 cmp	 ax, dx
  000a2	75 05		 jne	 SHORT $LN24@DarkSpirit

; 2416 : 			{
; 2417 : 				ChoasGemCount++;

  000a4	ff 45 d4	 inc	 DWORD PTR _ChoasGemCount$[ebp]
  000a7	eb 35		 jmp	 SHORT $LN33@DarkSpirit
$LN24@DarkSpirit:

; 2418 : 			}
; 2419 : 			else if ( lpObj->pChaosBox[n].m_Type == ITEMGET(13,31) && lpObj->pChaosBox[n].m_Level == 1 )

  000a9	ba 1f 1a 00 00	 mov	 edx, 6687		; 00001a1fH
  000ae	66 3b c2	 cmp	 ax, dx
  000b1	75 11		 jne	 SHORT $LN22@DarkSpirit
  000b3	ba 01 00 00 00	 mov	 edx, 1
  000b8	66 39 54 39 08	 cmp	 WORD PTR [ecx+edi+8], dx
  000bd	75 05		 jne	 SHORT $LN22@DarkSpirit

; 2420 : 			{
; 2421 : 				SoulOfSpirit++;

  000bf	01 55 e4	 add	 DWORD PTR _SoulOfSpirit$[ebp], edx
  000c2	eb 1a		 jmp	 SHORT $LN33@DarkSpirit
$LN22@DarkSpirit:

; 2422 : 			}
; 2423 : 			else if ( lpObj->pChaosBox[n].m_Type == ITEMGET(14,53) )

  000c4	ba 35 1c 00 00	 mov	 edx, 7221		; 00001c35H
  000c9	66 3b c2	 cmp	 ax, dx
  000cc	75 0d		 jne	 SHORT $LN20@DarkSpirit

; 2424 : 			{
; 2425 : 				iCharmOfLuckCount += (int)lpObj->pChaosBox[n].m_Durability;

  000ce	d9 44 39 24	 fld	 DWORD PTR [ecx+edi+36]
  000d2	e8 00 00 00 00	 call	 __ftol2_sse
  000d7	03 d8		 add	 ebx, eax

; 2426 : 			}
; 2427 : 			else

  000d9	eb 03		 jmp	 SHORT $LN33@DarkSpirit
$LN20@DarkSpirit:

; 2428 : 			{
; 2429 : 				iInvalidItemCount++;

  000db	ff 45 e8	 inc	 DWORD PTR _iInvalidItemCount$[ebp]
$LN33@DarkSpirit:

; 2398 : 
; 2399 : 	for ( int n=0;n<CHAOS_BOX_SIZE;n++)

  000de	81 c7 d4 00 00
	00		 add	 edi, 212		; 000000d4H
  000e4	81 ff 80 1a 00
	00		 cmp	 edi, 6784		; 00001a80H
  000ea	0f 8c 60 ff ff
	ff		 jl	 $LL34@DarkSpirit

; 2430 : 			}
; 2431 : 		}
; 2432 : 	}
; 2433 : 
; 2434 : 	if ( ChoasGemCount != 1 || BlessGemCount != 2 || SoulGemCount != 2 || CreatureGemCount != 1 || SoulOfSpirit != 1 || iInvalidItemCount > 0 )

  000f0	b9 01 00 00 00	 mov	 ecx, 1
  000f5	89 5d cc	 mov	 DWORD PTR _iCharmOfLuckCount$[ebp], ebx
  000f8	39 4d d4	 cmp	 DWORD PTR _ChoasGemCount$[ebp], ecx
  000fb	0f 85 a8 02 00
	00		 jne	 $LN39@DarkSpirit
  00101	b8 02 00 00 00	 mov	 eax, 2
  00106	39 45 d8	 cmp	 DWORD PTR _BlessGemCount$[ebp], eax
  00109	0f 85 9a 02 00
	00		 jne	 $LN39@DarkSpirit
  0010f	39 45 d0	 cmp	 DWORD PTR _SoulGemCount$[ebp], eax
  00112	0f 85 91 02 00
	00		 jne	 $LN39@DarkSpirit
  00118	39 4d e0	 cmp	 DWORD PTR _CreatureGemCount$[ebp], ecx
  0011b	0f 85 88 02 00
	00		 jne	 $LN39@DarkSpirit
  00121	39 4d e4	 cmp	 DWORD PTR _SoulOfSpirit$[ebp], ecx
  00124	0f 85 7f 02 00
	00		 jne	 $LN39@DarkSpirit
  0012a	83 7d e8 00	 cmp	 DWORD PTR _iInvalidItemCount$[ebp], 0
  0012e	0f 8f 75 02 00
	00		 jg	 $LN39@DarkSpirit

; 2437 : 		lpObj->ChaosLock = FALSE;
; 2438 : 
; 2439 : 		return;
; 2440 : 	}
; 2441 : 
; 2442 : 	if ( iCharmOfLuckCount > 10 )

  00134	83 fb 0a	 cmp	 ebx, 10			; 0000000aH
  00137	7e 15		 jle	 SHORT $LN16@DarkSpirit

; 2443 : 	{
; 2444 : 		pMsg.Result = 0xF0;
; 2445 : 		DataSend(lpObj->m_Index, (LPBYTE)&pMsg, pMsg.h.size);

  00139	0f b6 45 ed	 movzx	 eax, BYTE PTR _pMsg$[ebp+1]
  0013d	8b 16		 mov	 edx, DWORD PTR [esi]
  0013f	50		 push	 eax
  00140	8d 4d ec	 lea	 ecx, DWORD PTR _pMsg$[ebp]
  00143	51		 push	 ecx
  00144	c6 45 ef f0	 mov	 BYTE PTR _pMsg$[ebp+3], 240 ; 000000f0H
  00148	52		 push	 edx

; 2446 : 		lpObj->ChaosLock = FALSE;
; 2447 : 
; 2448 : 		return ;

  00149	e9 67 02 00 00	 jmp	 $LN40@DarkSpirit
$LN16@DarkSpirit:

; 2449 : 	}
; 2450 : 
; 2451 : 	LogChaosItem(lpObj, "DarkSpiritMix");

  0014e	8b 4d dc	 mov	 ecx, DWORD PTR _this$[ebp]
  00151	68 00 00 00 00	 push	 OFFSET ??_C@_0O@OCFEOMDO@DarkSpiritMix?$AA@
  00156	56		 push	 esi
  00157	e8 00 00 00 00	 call	 ?LogChaosItem@CMixSystem@@QAEXPAUOBJECTSTRUCT@@PAD@Z ; CMixSystem::LogChaosItem

; 2452 : 	LogAddTD("[DarkSpiritMix] Chaos Mix Start");

  0015c	68 00 00 00 00	 push	 OFFSET ??_C@_0CA@HOBPNGGO@?$FLDarkSpiritMix?$FN?5Chaos?5Mix?5Start?$AA@
  00161	ff 15 00 00 00
	00		 call	 DWORD PTR ?LogAddTD@@3P6AXPADZZA ; LogAddTD

; 2453 : 	//int ExDarkSpiritMixSuccessRate = GetPrivateProfileInt("ChaosMix","DarkSpiritMixSuccessRate",60,"..\\Data\\ZtData\\CommonServer.ini");
; 2454 : 	lpObj->ChaosSuccessRate = ZtConfig.CommonServer.ZtDarkSpiritMixSuccessRate;
; 2455 : 	lpObj->ChaosSuccessRate += iCharmOfLuckCount;
; 2456 : 
; 2457 : 	int nChaosNeedMoney = 1000000;
; 2458 : 
; 2459 : 	int iChaosTaxMoney = (int)((__int64)nChaosNeedMoney * (__int64)g_CastleSiegeSync.GetTaxRateChaos(lpObj->m_Index) / (__int64)100);

  00167	8b 0e		 mov	 ecx, DWORD PTR [esi]
  00169	a1 8c 00 00 00	 mov	 eax, DWORD PTR ?ZtConfig@@3VcZtConfigs@@A+140
  0016e	83 c4 04	 add	 esp, 4
  00171	51		 push	 ecx
  00172	89 86 84 0e 00
	00		 mov	 DWORD PTR [esi+3716], eax
  00178	01 9e 84 0e 00
	00		 add	 DWORD PTR [esi+3716], ebx
  0017e	b9 00 00 00 00	 mov	 ecx, OFFSET ?g_CastleSiegeSync@@3VCCastleSiegeSync@@A ; g_CastleSiegeSync
  00183	e8 00 00 00 00	 call	 ?GetTaxRateChaos@CCastleSiegeSync@@QAEHH@Z ; CCastleSiegeSync::GetTaxRateChaos
  00188	6a 00		 push	 0
  0018a	99		 cdq
  0018b	68 40 42 0f 00	 push	 1000000			; 000f4240H
  00190	52		 push	 edx
  00191	50		 push	 eax
  00192	e8 00 00 00 00	 call	 __allmul
  00197	6a 00		 push	 0
  00199	6a 64		 push	 100			; 00000064H
  0019b	52		 push	 edx
  0019c	50		 push	 eax
  0019d	e8 00 00 00 00	 call	 __alldiv

; 2460 : 
; 2461 : 	if ( iChaosTaxMoney < 0 )

  001a2	85 c0		 test	 eax, eax
  001a4	79 02		 jns	 SHORT $LN15@DarkSpirit

; 2462 : 	{
; 2463 : 		iChaosTaxMoney = 0;

  001a6	33 c0		 xor	 eax, eax
$LN15@DarkSpirit:

; 2464 : 	}
; 2465 : 
; 2466 : 	nChaosNeedMoney += iChaosTaxMoney;
; 2467 : 
; 2468 : 		nChaosNeedMoney += lpObj->m_AddMixMoney;

  001a8	8b 96 20 28 00
	00		 mov	 edx, DWORD PTR [esi+10272]
  001ae	8d bc 02 40 42
	0f 00		 lea	 edi, DWORD PTR [edx+eax+1000000]

; 2469 : 
; 2470 : 	if ( nChaosNeedMoney < 0 )

  001b5	85 ff		 test	 edi, edi
  001b7	79 02		 jns	 SHORT $LN14@DarkSpirit

; 2471 : 	{
; 2472 : 		nChaosNeedMoney = 0;

  001b9	33 ff		 xor	 edi, edi
$LN14@DarkSpirit:

; 2473 : 	}
; 2474 : 
; 2475 : 	if ( lpObj->Money < nChaosNeedMoney )

  001bb	8b 8e f0 00 00
	00		 mov	 ecx, DWORD PTR [esi+240]
  001c1	3b cf		 cmp	 ecx, edi
  001c3	7d 15		 jge	 SHORT $LN13@DarkSpirit

; 2476 : 	{
; 2477 : 		pMsg.Result = CB_NOT_ENOUGH_ZEN;
; 2478 : 		
; 2479 : 		DataSend(lpObj->m_Index, (LPBYTE)&pMsg, pMsg.h.size);

  001c5	0f b6 45 ed	 movzx	 eax, BYTE PTR _pMsg$[ebp+1]
  001c9	8b 16		 mov	 edx, DWORD PTR [esi]
  001cb	50		 push	 eax
  001cc	8d 4d ec	 lea	 ecx, DWORD PTR _pMsg$[ebp]
  001cf	51		 push	 ecx
  001d0	c6 45 ef 02	 mov	 BYTE PTR _pMsg$[ebp+3], 2
  001d4	52		 push	 edx

; 2480 : 		lpObj->ChaosLock = FALSE;
; 2481 : 
; 2482 : 		return;

  001d5	e9 db 01 00 00	 jmp	 $LN40@DarkSpirit
$LN13@DarkSpirit:

; 2483 : 	}
; 2484 : 
; 2485 : 	lpObj->ChaosSuccessRate += lpObj->m_AddMixSuccessRate;

  001da	8b 96 24 28 00
	00		 mov	 edx, DWORD PTR [esi+10276]
  001e0	01 96 84 0e 00
	00		 add	 DWORD PTR [esi+3716], edx

; 2486 : 
; 2487 : 
; 2488 : 	lpObj->Money -= nChaosNeedMoney;

  001e6	2b cf		 sub	 ecx, edi
  001e8	89 8e f0 00 00
	00		 mov	 DWORD PTR [esi+240], ecx

; 2489 : 	g_CastleSiegeSync.AddTributeMoney(iChaosTaxMoney);

  001ee	50		 push	 eax
  001ef	b9 00 00 00 00	 mov	 ecx, OFFSET ?g_CastleSiegeSync@@3VCCastleSiegeSync@@A ; g_CastleSiegeSync
  001f4	e8 00 00 00 00	 call	 ?AddTributeMoney@CCastleSiegeSync@@QAEXH@Z ; CCastleSiegeSync::AddTributeMoney

; 2490 : 	GCMoneySend(lpObj->m_Index, lpObj->Money);

  001f9	8b 86 f0 00 00
	00		 mov	 eax, DWORD PTR [esi+240]
  001ff	8b 0e		 mov	 ecx, DWORD PTR [esi]
  00201	50		 push	 eax
  00202	51		 push	 ecx
  00203	e8 00 00 00 00	 call	 ?GCMoneySend@@YAXHK@Z	; GCMoneySend
  00208	83 c4 08	 add	 esp, 8

; 2491 : 
; 2492 : 	if ( (rand()%100) < lpObj->ChaosSuccessRate )

  0020b	e8 00 00 00 00	 call	 _rand
  00210	99		 cdq
  00211	b9 64 00 00 00	 mov	 ecx, 100		; 00000064H
  00216	f7 f9		 idiv	 ecx
  00218	3b 96 84 0e 00
	00		 cmp	 edx, DWORD PTR [esi+3716]
  0021e	0f 8d 13 01 00
	00		 jge	 $LN12@DarkSpirit

; 2493 : 	{
; 2494 : 		int Level = 0;
; 2495 : 		int ItemType = 13;
; 2496 : 		int ItemSubType = 5;
; 2497 : 		int ItemNum = ITEMGET(ItemType, ItemSubType);
; 2498 : 		int Option1 = 0;

  00224	33 db		 xor	 ebx, ebx
  00226	89 5d e4	 mov	 DWORD PTR _Option1$218535[ebp], ebx

; 2499 : 		int Option2 = 0;
; 2500 : 		int Option3 = 0;
; 2501 : 
; 2502 : 		int Add = 0;

  00229	89 5d e0	 mov	 DWORD PTR _Add$218538[ebp], ebx

; 2503 : 
; 2504 : 		if ( (rand()%100) < (lpObj->ChaosSuccessRate/5+6) )

  0022c	e8 00 00 00 00	 call	 _rand
  00231	99		 cdq
  00232	b9 64 00 00 00	 mov	 ecx, 100		; 00000064H
  00237	f7 f9		 idiv	 ecx
  00239	b8 67 66 66 66	 mov	 eax, 1717986919		; 66666667H
  0023e	89 55 dc	 mov	 DWORD PTR tv478[ebp], edx
  00241	f7 ae 84 0e 00
	00		 imul	 DWORD PTR [esi+3716]
  00247	d1 fa		 sar	 edx, 1
  00249	8b c2		 mov	 eax, edx
  0024b	c1 e8 1f	 shr	 eax, 31			; 0000001fH
  0024e	8d 4c 02 06	 lea	 ecx, DWORD PTR [edx+eax+6]
  00252	39 4d dc	 cmp	 DWORD PTR tv478[ebp], ecx
  00255	7d 07		 jge	 SHORT $LN11@DarkSpirit

; 2505 : 		{
; 2506 : 			Add = 1;

  00257	c7 45 e0 01 00
	00 00		 mov	 DWORD PTR _Add$218538[ebp], 1
$LN11@DarkSpirit:

; 2507 : 		}
; 2508 : 
; 2509 : 		if ( (rand()%5) == 0 )

  0025e	e8 00 00 00 00	 call	 _rand
  00263	99		 cdq
  00264	b9 05 00 00 00	 mov	 ecx, 5
  00269	f7 f9		 idiv	 ecx
  0026b	85 d2		 test	 edx, edx
  0026d	75 07		 jne	 SHORT $LN10@DarkSpirit

; 2510 : 		{
; 2511 : 			Option1 = 1;

  0026f	c7 45 e4 01 00
	00 00		 mov	 DWORD PTR _Option1$218535[ebp], 1
$LN10@DarkSpirit:

; 2512 : 		}
; 2513 : 
; 2514 : 		int lc22 = rand()%100;	

  00276	e8 00 00 00 00	 call	 _rand
  0027b	99		 cdq
  0027c	b9 64 00 00 00	 mov	 ecx, 100		; 00000064H
  00281	f7 f9		 idiv	 ecx
  00283	89 55 e8	 mov	 DWORD PTR _lc22$218541[ebp], edx

; 2515 : 		int lc23 = rand()%3;

  00286	e8 00 00 00 00	 call	 _rand
  0028b	99		 cdq
  0028c	b9 03 00 00 00	 mov	 ecx, 3
  00291	f7 f9		 idiv	 ecx

; 2516 : 
; 2517 : 		switch ( lc23 )

  00293	2b d3		 sub	 edx, ebx
  00295	74 1e		 je	 SHORT $LN7@DarkSpirit
  00297	4a		 dec	 edx
  00298	74 0e		 je	 SHORT $LN5@DarkSpirit
  0029a	4a		 dec	 edx
  0029b	75 20		 jne	 SHORT $LN6@DarkSpirit

; 2532 : 
; 2533 : 			case 2:
; 2534 : 				if ( lc22 <  20 )

  0029d	83 7d e8 14	 cmp	 DWORD PTR _lc22$218541[ebp], 20 ; 00000014H
  002a1	7d 1a		 jge	 SHORT $LN6@DarkSpirit

; 2535 : 				{
; 2536 : 					Option2 = 1;

  002a3	8d 59 fe	 lea	 ebx, DWORD PTR [ecx-2]

; 2537 : 				}
; 2538 : 				break;

  002a6	eb 15		 jmp	 SHORT $LN6@DarkSpirit
$LN5@DarkSpirit:

; 2523 : 				}
; 2524 : 				break;
; 2525 : 
; 2526 : 			case 1:
; 2527 : 				if ( lc22 <  10 )

  002a8	83 7d e8 0a	 cmp	 DWORD PTR _lc22$218541[ebp], 10 ; 0000000aH
  002ac	7d 0f		 jge	 SHORT $LN6@DarkSpirit

; 2528 : 				{
; 2529 : 					Option2 = 2;

  002ae	bb 02 00 00 00	 mov	 ebx, 2

; 2530 : 				}
; 2531 : 				break;

  002b3	eb 08		 jmp	 SHORT $LN6@DarkSpirit
$LN7@DarkSpirit:

; 2518 : 		{
; 2519 : 			case 0:
; 2520 : 				if ( lc22 <  4 )

  002b5	83 7d e8 04	 cmp	 DWORD PTR _lc22$218541[ebp], 4
  002b9	7d 02		 jge	 SHORT $LN6@DarkSpirit

; 2521 : 				{
; 2522 : 					Option2 = 3;

  002bb	8b d9		 mov	 ebx, ecx
$LN6@DarkSpirit:

; 2539 : 		}
; 2540 : 
; 2541 : 		::PetItemSerialCreateSend(lpObj->m_Index, -2, 0, 0, ItemNum, Level, 0, Add, Option1, Option2, -1, 0, 0); 

  002bd	8b 55 e4	 mov	 edx, DWORD PTR _Option1$218535[ebp]
  002c0	8b 45 e0	 mov	 eax, DWORD PTR _Add$218538[ebp]
  002c3	6a 00		 push	 0
  002c5	8b 0e		 mov	 ecx, DWORD PTR [esi]
  002c7	6a 00		 push	 0
  002c9	6a ff		 push	 -1
  002cb	53		 push	 ebx
  002cc	52		 push	 edx
  002cd	50		 push	 eax
  002ce	6a 00		 push	 0
  002d0	6a 00		 push	 0
  002d2	68 05 1a 00 00	 push	 6661			; 00001a05H
  002d7	6a 00		 push	 0
  002d9	6a 00		 push	 0
  002db	68 fe 00 00 00	 push	 254			; 000000feH
  002e0	51		 push	 ecx
  002e1	e8 00 00 00 00	 call	 ?PetItemSerialCreateSend@@YAXHEEEHEEEEEHEE@Z ; PetItemSerialCreateSend

; 2542 : 		::gObjInventoryCommit(lpObj->m_Index);

  002e6	8b 16		 mov	 edx, DWORD PTR [esi]
  002e8	52		 push	 edx
  002e9	e8 00 00 00 00	 call	 ?gObjInventoryCommit@@YAHH@Z ; gObjInventoryCommit

; 2543 : 		LogAddTD("[DarkSpiritMix] [%s][%s] CBMix Success %d Money : %d-%d, CharmRate : %d",
; 2544 : 			lpObj->AccountID, lpObj->Name, lpObj->ChaosSuccessRate,
; 2545 : 			lpObj->Money, nChaosNeedMoney, iCharmOfLuckCount);

  002ee	8b 45 cc	 mov	 eax, DWORD PTR _iCharmOfLuckCount$[ebp]
  002f1	8b 8e f0 00 00
	00		 mov	 ecx, DWORD PTR [esi+240]
  002f7	8b 96 84 0e 00
	00		 mov	 edx, DWORD PTR [esi+3716]
  002fd	50		 push	 eax
  002fe	57		 push	 edi
  002ff	51		 push	 ecx
  00300	52		 push	 edx
  00301	8d 46 77	 lea	 eax, DWORD PTR [esi+119]
  00304	50		 push	 eax
  00305	8d 4e 6c	 lea	 ecx, DWORD PTR [esi+108]
  00308	51		 push	 ecx
  00309	68 00 00 00 00	 push	 OFFSET ??_C@_0EI@DIJHKIBN@?$FLDarkSpiritMix?$FN?5?$FL?$CFs?$FN?$FL?$CFs?$FN?5CBMix?5S@
  0030e	ff 15 00 00 00
	00		 call	 DWORD PTR ?LogAddTD@@3P6AXPADZZA ; LogAddTD

; 2546 : #if(SYSTEM_ACHIEVEMENTS)
; 2547 : 		g_Achievements.SuccessChaosMix(lpObj->m_Index);

  00314	8b 16		 mov	 edx, DWORD PTR [esi]
  00316	83 c4 54	 add	 esp, 84			; 00000054H
  00319	52		 push	 edx
  0031a	b9 00 00 00 00	 mov	 ecx, OFFSET ?g_Achievements@@3VCAchievements@@A ; g_Achievements
  0031f	e8 00 00 00 00	 call	 ?SuccessChaosMix@CAchievements@@QAEXH@Z ; CAchievements::SuccessChaosMix
  00324	5f		 pop	 edi
  00325	5e		 pop	 esi
  00326	5b		 pop	 ebx

; 2562 : #endif
; 2563 : 	}
; 2564 : }

  00327	8b 4d fc	 mov	 ecx, DWORD PTR __$ArrayPad$[ebp]
  0032a	33 cd		 xor	 ecx, ebp
  0032c	e8 00 00 00 00	 call	 @__security_check_cookie@4
  00331	8b e5		 mov	 esp, ebp
  00333	5d		 pop	 ebp
  00334	c2 04 00	 ret	 4
$LN12@DarkSpirit:

; 2548 : #endif
; 2549 : 	}
; 2550 : 	else
; 2551 : 	{
; 2552 : 		this->ChaosBoxInit(lpObj);

  00337	8b 4d dc	 mov	 ecx, DWORD PTR _this$[ebp]
  0033a	56		 push	 esi
  0033b	e8 00 00 00 00	 call	 ?ChaosBoxInit@CMixSystem@@QAEHPAUOBJECTSTRUCT@@@Z ; CMixSystem::ChaosBoxInit

; 2553 : 		GCUserChaosBoxSend(lpObj, 1);

  00340	6a 01		 push	 1
  00342	56		 push	 esi
  00343	e8 00 00 00 00	 call	 ?GCUserChaosBoxSend@@YAXPAUOBJECTSTRUCT@@H@Z ; GCUserChaosBoxSend

; 2554 : 		DataSend(lpObj->m_Index, (LPBYTE)&pMsg, pMsg.h.size);

  00348	0f b6 45 ed	 movzx	 eax, BYTE PTR _pMsg$[ebp+1]
  0034c	8b 16		 mov	 edx, DWORD PTR [esi]
  0034e	50		 push	 eax
  0034f	8d 4d ec	 lea	 ecx, DWORD PTR _pMsg$[ebp]
  00352	51		 push	 ecx
  00353	52		 push	 edx
  00354	e8 00 00 00 00	 call	 ?DataSend@@YAHHPAEK@Z	; DataSend

; 2555 : 
; 2556 : 		LogAddTD("[DarkSpiritMix] [%s][%s] CBMix Fail %d Money : %d-%d, CharmRate : %d",
; 2557 : 			lpObj->AccountID, lpObj->Name, lpObj->ChaosSuccessRate,
; 2558 : 			lpObj->Money, nChaosNeedMoney, iCharmOfLuckCount);

  00359	8b 86 f0 00 00
	00		 mov	 eax, DWORD PTR [esi+240]
  0035f	8b 8e 84 0e 00
	00		 mov	 ecx, DWORD PTR [esi+3716]
  00365	53		 push	 ebx
  00366	57		 push	 edi
  00367	50		 push	 eax
  00368	51		 push	 ecx
  00369	8d 56 77	 lea	 edx, DWORD PTR [esi+119]
  0036c	52		 push	 edx
  0036d	8d 46 6c	 lea	 eax, DWORD PTR [esi+108]
  00370	50		 push	 eax
  00371	68 00 00 00 00	 push	 OFFSET ??_C@_0EF@ENJLGEHL@?$FLDarkSpiritMix?$FN?5?$FL?$CFs?$FN?$FL?$CFs?$FN?5CBMix?5F@
  00376	ff 15 00 00 00
	00		 call	 DWORD PTR ?LogAddTD@@3P6AXPADZZA ; LogAddTD

; 2559 : 		lpObj->ChaosLock = FALSE;
; 2560 : #if(SYSTEM_ACHIEVEMENTS)
; 2561 : 		g_Achievements.FailedChaosMix(lpObj->m_Index);

  0037c	8b 0e		 mov	 ecx, DWORD PTR [esi]
  0037e	83 c4 30	 add	 esp, 48			; 00000030H
  00381	51		 push	 ecx
  00382	b9 00 00 00 00	 mov	 ecx, OFFSET ?g_Achievements@@3VCAchievements@@A ; g_Achievements
  00387	c7 86 88 0e 00
	00 00 00 00 00	 mov	 DWORD PTR [esi+3720], 0
  00391	e8 00 00 00 00	 call	 ?FailedChaosMix@CAchievements@@QAEXH@Z ; CAchievements::FailedChaosMix
  00396	5f		 pop	 edi
  00397	5e		 pop	 esi
  00398	5b		 pop	 ebx

; 2562 : #endif
; 2563 : 	}
; 2564 : }

  00399	8b 4d fc	 mov	 ecx, DWORD PTR __$ArrayPad$[ebp]
  0039c	33 cd		 xor	 ecx, ebp
  0039e	e8 00 00 00 00	 call	 @__security_check_cookie@4
  003a3	8b e5		 mov	 esp, ebp
  003a5	5d		 pop	 ebp
  003a6	c2 04 00	 ret	 4
$LN39@DarkSpirit:

; 2435 : 	{
; 2436 : 		DataSend(lpObj->m_Index, (LPBYTE)&pMsg, pMsg.h.size);

  003a9	0f b6 55 ed	 movzx	 edx, BYTE PTR _pMsg$[ebp+1]
  003ad	8b 0e		 mov	 ecx, DWORD PTR [esi]
  003af	52		 push	 edx
  003b0	8d 45 ec	 lea	 eax, DWORD PTR _pMsg$[ebp]
  003b3	50		 push	 eax
  003b4	51		 push	 ecx
$LN40@DarkSpirit:
  003b5	e8 00 00 00 00	 call	 ?DataSend@@YAHHPAEK@Z	; DataSend

; 2562 : #endif
; 2563 : 	}
; 2564 : }

  003ba	8b 4d fc	 mov	 ecx, DWORD PTR __$ArrayPad$[ebp]
  003bd	83 c4 0c	 add	 esp, 12			; 0000000cH
  003c0	5f		 pop	 edi
  003c1	c7 86 88 0e 00
	00 00 00 00 00	 mov	 DWORD PTR [esi+3720], 0
  003cb	5e		 pop	 esi
  003cc	33 cd		 xor	 ecx, ebp
  003ce	5b		 pop	 ebx
  003cf	e8 00 00 00 00	 call	 @__security_check_cookie@4
  003d4	8b e5		 mov	 esp, ebp
  003d6	5d		 pop	 ebp
  003d7	c2 04 00	 ret	 4
?DarkSpiritChaosMix@CMixSystem@@QAEXPAUOBJECTSTRUCT@@@Z ENDP ; CMixSystem::DarkSpiritChaosMix
_TEXT	ENDS
PUBLIC	??_C@_0DG@ECHLAENJ@?$FLBlessPotionMix?$FN?5?$FL?$CFs?$FN?$FL?$CFs?$FN?5CBMix?5@ ; `string'
PUBLIC	??_C@_0DJ@CHGCMDK@?$FLBlessPotionMix?$FN?5?$FL?$CFs?$FN?$FL?$CFs?$FN?5CBMix?5@ ; `string'
PUBLIC	??_C@_0CB@EBJOJCKF@?$FLBlessPotionMix?$FN?5Chaos?5Mix?5Start@ ; `string'
PUBLIC	??_C@_0P@NBHFIPDI@BlessPotionMix?$AA@		; `string'
PUBLIC	__$ArrayPad$
PUBLIC	?BlessPotionChaosMix@CMixSystem@@QAEXPAUOBJECTSTRUCT@@@Z ; CMixSystem::BlessPotionChaosMix
EXTRN	?MsgOutput@@YAXHPADZZ:PROC			; MsgOutput
EXTRN	?Get@CMsg@@QAEPADH@Z:PROC			; CMsg::Get
EXTRN	?lMsg@@3VCMsg@@A:BYTE				; lMsg
;	COMDAT ??_C@_0DG@ECHLAENJ@?$FLBlessPotionMix?$FN?5?$FL?$CFs?$FN?$FL?$CFs?$FN?5CBMix?5@
CONST	SEGMENT
??_C@_0DG@ECHLAENJ@?$FLBlessPotionMix?$FN?5?$FL?$CFs?$FN?$FL?$CFs?$FN?5CBMix?5@ DB '['
	DB	'BlessPotionMix] [%s][%s] CBMix Fail %d Money : %d-%d', 00H ; `string'
CONST	ENDS
;	COMDAT ??_C@_0DJ@CHGCMDK@?$FLBlessPotionMix?$FN?5?$FL?$CFs?$FN?$FL?$CFs?$FN?5CBMix?5@
CONST	SEGMENT
??_C@_0DJ@CHGCMDK@?$FLBlessPotionMix?$FN?5?$FL?$CFs?$FN?$FL?$CFs?$FN?5CBMix?5@ DB '['
	DB	'BlessPotionMix] [%s][%s] CBMix Success %d Money : %d-%d', 00H ; `string'
CONST	ENDS
;	COMDAT ??_C@_0CB@EBJOJCKF@?$FLBlessPotionMix?$FN?5Chaos?5Mix?5Start@
CONST	SEGMENT
??_C@_0CB@EBJOJCKF@?$FLBlessPotionMix?$FN?5Chaos?5Mix?5Start@ DB '[BlessP'
	DB	'otionMix] Chaos Mix Start', 00H		; `string'
CONST	ENDS
;	COMDAT ??_C@_0P@NBHFIPDI@BlessPotionMix?$AA@
CONST	SEGMENT
??_C@_0P@NBHFIPDI@BlessPotionMix?$AA@ DB 'BlessPotionMix', 00H ; `string'
; Function compile flags: /Ogtp
CONST	ENDS
;	COMDAT ?BlessPotionChaosMix@CMixSystem@@QAEXPAUOBJECTSTRUCT@@@Z
_TEXT	SEGMENT
_this$ = -28						; size = 4
_iInvalidItemCount$ = -24				; size = 4
_pMsg$ = -20						; size = 16
__$ArrayPad$ = -4					; size = 4
_lpObj$ = 8						; size = 4
?BlessPotionChaosMix@CMixSystem@@QAEXPAUOBJECTSTRUCT@@@Z PROC ; CMixSystem::BlessPotionChaosMix, COMDAT
; _this$ = ecx

; 2567 : {

  00000	55		 push	 ebp
  00001	8b ec		 mov	 ebp, esp
  00003	83 ec 1c	 sub	 esp, 28			; 0000001cH
  00006	a1 00 00 00 00	 mov	 eax, DWORD PTR ___security_cookie
  0000b	33 c5		 xor	 eax, ebp
  0000d	89 45 fc	 mov	 DWORD PTR __$ArrayPad$[ebp], eax
  00010	53		 push	 ebx
  00011	56		 push	 esi
  00012	8b 75 08	 mov	 esi, DWORD PTR _lpObj$[ebp]
  00015	57		 push	 edi

; 2568 : 	lpObj->ChaosLock = TRUE;
; 2569 : 	int iBlessGemCount = 0; //loc2
; 2570 : 	int iChaosMoney = 0; //loc3
; 2571 : 	int iInvalidItemCount = 0; //loc4
; 2572 : 
; 2573 : 	PMSG_CHAOSMIXRESULT pMsg;
; 2574 : 
; 2575 : 	PHeadSetB((LPBYTE)&pMsg.h, 0x86, sizeof(PMSG_CHAOSMIXRESULT));

  00016	6a 10		 push	 16			; 00000010H
  00018	8d 45 ec	 lea	 eax, DWORD PTR _pMsg$[ebp]
  0001b	68 86 00 00 00	 push	 134			; 00000086H
  00020	33 ff		 xor	 edi, edi
  00022	50		 push	 eax
  00023	89 4d e4	 mov	 DWORD PTR _this$[ebp], ecx
  00026	c7 86 88 0e 00
	00 01 00 00 00	 mov	 DWORD PTR [esi+3720], 1
  00030	33 db		 xor	 ebx, ebx
  00032	89 7d e8	 mov	 DWORD PTR _iInvalidItemCount$[ebp], edi
  00035	e8 00 00 00 00	 call	 ?PHeadSetB@@YAXPAEEH@Z	; PHeadSetB
  0003a	83 c4 0c	 add	 esp, 12			; 0000000cH

; 2576 : 	pMsg.Result = CB_ERROR;

  0003d	88 5d ef	 mov	 BYTE PTR _pMsg$[ebp+3], bl
$LL16@BlessPotio:

; 2579 : 	{
; 2580 : 		if ( lpObj->pChaosBox[n].IsItem() == TRUE )

  00040	8b 8e 78 0e 00
	00		 mov	 ecx, DWORD PTR [esi+3704]
  00046	03 cf		 add	 ecx, edi
  00048	e8 00 00 00 00	 call	 ?IsItem@CItem@@QAEHXZ	; CItem::IsItem
  0004d	83 f8 01	 cmp	 eax, 1
  00050	75 18		 jne	 SHORT $LN15@BlessPotio

; 2581 : 		{
; 2582 : 			if ( lpObj->pChaosBox[n].m_Type == ITEMGET(14,13) )

  00052	8b 8e 78 0e 00
	00		 mov	 ecx, DWORD PTR [esi+3704]
  00058	ba 0d 1c 00 00	 mov	 edx, 7181		; 00001c0dH
  0005d	66 39 54 39 06	 cmp	 WORD PTR [ecx+edi+6], dx
  00062	75 03		 jne	 SHORT $LN12@BlessPotio

; 2583 : 			{
; 2584 : 				iBlessGemCount++;

  00064	43		 inc	 ebx

; 2585 : 			}
; 2586 : 			else

  00065	eb 03		 jmp	 SHORT $LN15@BlessPotio
$LN12@BlessPotio:

; 2587 : 			{
; 2588 : 				iInvalidItemCount++;

  00067	ff 45 e8	 inc	 DWORD PTR _iInvalidItemCount$[ebp]
$LN15@BlessPotio:

; 2577 : 
; 2578 : 	for ( int n=0;n<CHAOS_BOX_SIZE;n++) //loc8

  0006a	81 c7 d4 00 00
	00		 add	 edi, 212		; 000000d4H
  00070	81 ff 80 1a 00
	00		 cmp	 edi, 6784		; 00001a80H
  00076	7c c8		 jl	 SHORT $LL16@BlessPotio

; 2589 : 			}
; 2590 : 		}
; 2591 : 	}
; 2592 : 
; 2593 : 	if(iBlessGemCount == 0)

  00078	85 db		 test	 ebx, ebx
  0007a	0f 84 f0 01 00
	00		 je	 $LN1@BlessPotio

; 2594 : 	{
; 2595 : 		return;
; 2596 : 	}
; 2597 : 
; 2598 : 	if(iInvalidItemCount > 0)

  00080	83 7d e8 00	 cmp	 DWORD PTR _iInvalidItemCount$[ebp], 0
  00084	0f 8f e6 01 00
	00		 jg	 $LN1@BlessPotio

; 2599 : 	{
; 2600 : 		return;
; 2601 : 	}
; 2602 : 
; 2603 : 	if ( iBlessGemCount == 0 || iInvalidItemCount > 0)
; 2604 : 	{
; 2605 : 		DataSend(lpObj->m_Index, (LPBYTE)&pMsg, pMsg.h.size);
; 2606 : 		lpObj->ChaosLock = FALSE;
; 2607 : 		return;
; 2608 : 	}
; 2609 : 
; 2610 : 	if ( iBlessGemCount > 25 )

  0008a	83 fb 19	 cmp	 ebx, 25			; 00000019H
  0008d	7e 31		 jle	 SHORT $LN6@BlessPotio

; 2611 : 	{
; 2612 : 		MsgOutput(lpObj->m_Index, lMsg.Get(MSGGET(6,201)));

  0008f	68 c9 06 00 00	 push	 1737			; 000006c9H
  00094	b9 00 00 00 00	 mov	 ecx, OFFSET ?lMsg@@3VCMsg@@A ; lMsg
  00099	e8 00 00 00 00	 call	 ?Get@CMsg@@QAEPADH@Z	; CMsg::Get
  0009e	50		 push	 eax
  0009f	8b 06		 mov	 eax, DWORD PTR [esi]
  000a1	50		 push	 eax
  000a2	e8 00 00 00 00	 call	 ?MsgOutput@@YAXHPADZZ	; MsgOutput

; 2613 : 		DataSend(lpObj->m_Index, (LPBYTE)&pMsg, pMsg.h.size);

  000a7	0f b6 4d ed	 movzx	 ecx, BYTE PTR _pMsg$[ebp+1]
  000ab	8b 06		 mov	 eax, DWORD PTR [esi]
  000ad	51		 push	 ecx
  000ae	8d 55 ec	 lea	 edx, DWORD PTR _pMsg$[ebp]
  000b1	52		 push	 edx
  000b2	50		 push	 eax
  000b3	e8 00 00 00 00	 call	 ?DataSend@@YAHHPAEK@Z	; DataSend
  000b8	83 c4 14	 add	 esp, 20			; 00000014H

; 2614 : 		lpObj->ChaosLock = FALSE;
; 2615 : 
; 2616 : 		return;

  000bb	e9 a6 01 00 00	 jmp	 $LN21@BlessPotio
$LN6@BlessPotio:

; 2617 : 	}
; 2618 : 
; 2619 : 	LogChaosItem(lpObj, "BlessPotionMix");

  000c0	8b 4d e4	 mov	 ecx, DWORD PTR _this$[ebp]
  000c3	68 00 00 00 00	 push	 OFFSET ??_C@_0P@NBHFIPDI@BlessPotionMix?$AA@
  000c8	56		 push	 esi
  000c9	e8 00 00 00 00	 call	 ?LogChaosItem@CMixSystem@@QAEXPAUOBJECTSTRUCT@@PAD@Z ; CMixSystem::LogChaosItem

; 2620 : 	LogAddTD("[BlessPotionMix] Chaos Mix Start");

  000ce	68 00 00 00 00	 push	 OFFSET ??_C@_0CB@EBJOJCKF@?$FLBlessPotionMix?$FN?5Chaos?5Mix?5Start@
  000d3	ff 15 00 00 00
	00		 call	 DWORD PTR ?LogAddTD@@3P6AXPADZZA ; LogAddTD

; 2621 : 	lpObj->ChaosSuccessRate = 100;
; 2622 : 
; 2623 : 	int nChaosNeedMoney = 100000;
; 2624 : 
; 2625 : 	int iChaosTaxMoney = (int)((__int64)nChaosNeedMoney * (__int64)g_CastleSiegeSync.GetTaxRateChaos(lpObj->m_Index) / (__int64)100);

  000d9	8b 0e		 mov	 ecx, DWORD PTR [esi]
  000db	83 c4 04	 add	 esp, 4
  000de	51		 push	 ecx
  000df	b9 00 00 00 00	 mov	 ecx, OFFSET ?g_CastleSiegeSync@@3VCCastleSiegeSync@@A ; g_CastleSiegeSync
  000e4	c7 86 84 0e 00
	00 64 00 00 00	 mov	 DWORD PTR [esi+3716], 100 ; 00000064H
  000ee	e8 00 00 00 00	 call	 ?GetTaxRateChaos@CCastleSiegeSync@@QAEHH@Z ; CCastleSiegeSync::GetTaxRateChaos
  000f3	6a 00		 push	 0
  000f5	99		 cdq
  000f6	68 a0 86 01 00	 push	 100000			; 000186a0H
  000fb	52		 push	 edx
  000fc	50		 push	 eax
  000fd	e8 00 00 00 00	 call	 __allmul
  00102	6a 00		 push	 0
  00104	6a 64		 push	 100			; 00000064H
  00106	52		 push	 edx
  00107	50		 push	 eax
  00108	e8 00 00 00 00	 call	 __alldiv

; 2626 : 
; 2627 : 	if ( iChaosTaxMoney < 0 )

  0010d	85 c0		 test	 eax, eax
  0010f	79 02		 jns	 SHORT $LN5@BlessPotio

; 2628 : 	{
; 2629 : 		iChaosTaxMoney = 0;

  00111	33 c0		 xor	 eax, eax
$LN5@BlessPotio:

; 2630 : 	}
; 2631 : 
; 2632 : 	nChaosNeedMoney += iChaosTaxMoney;
; 2633 : 
; 2634 : 		nChaosNeedMoney += lpObj->m_AddMixMoney;

  00113	8b 96 20 28 00
	00		 mov	 edx, DWORD PTR [esi+10272]
  00119	8d bc 02 a0 86
	01 00		 lea	 edi, DWORD PTR [edx+eax+100000]

; 2635 : 
; 2636 : 	if ( nChaosNeedMoney < 0 )

  00120	85 ff		 test	 edi, edi
  00122	79 02		 jns	 SHORT $LN4@BlessPotio

; 2637 : 	{
; 2638 : 		nChaosNeedMoney = 0;

  00124	33 ff		 xor	 edi, edi
$LN4@BlessPotio:

; 2639 : 	}
; 2640 : 
; 2641 : 	if ( lpObj->Money < nChaosNeedMoney )

  00126	8b 8e f0 00 00
	00		 mov	 ecx, DWORD PTR [esi+240]
  0012c	3b cf		 cmp	 ecx, edi
  0012e	7d 1d		 jge	 SHORT $LN3@BlessPotio

; 2642 : 	{
; 2643 : 		pMsg.Result = CB_NOT_ENOUGH_ZEN;
; 2644 : 		
; 2645 : 		DataSend(lpObj->m_Index, (LPBYTE)&pMsg, pMsg.h.size);

  00130	0f b6 45 ed	 movzx	 eax, BYTE PTR _pMsg$[ebp+1]
  00134	8b 16		 mov	 edx, DWORD PTR [esi]
  00136	50		 push	 eax
  00137	8d 4d ec	 lea	 ecx, DWORD PTR _pMsg$[ebp]
  0013a	51		 push	 ecx
  0013b	52		 push	 edx
  0013c	c6 45 ef 02	 mov	 BYTE PTR _pMsg$[ebp+3], 2
  00140	e8 00 00 00 00	 call	 ?DataSend@@YAHHPAEK@Z	; DataSend
  00145	83 c4 0c	 add	 esp, 12			; 0000000cH

; 2646 : 		lpObj->ChaosLock = FALSE;
; 2647 : 
; 2648 : 		return;

  00148	e9 19 01 00 00	 jmp	 $LN21@BlessPotio
$LN3@BlessPotio:

; 2649 : 	}
; 2650 : 
; 2651 : 	lpObj->ChaosSuccessRate += lpObj->m_AddMixSuccessRate;

  0014d	8b 96 24 28 00
	00		 mov	 edx, DWORD PTR [esi+10276]
  00153	01 96 84 0e 00
	00		 add	 DWORD PTR [esi+3716], edx

; 2652 : 
; 2653 : 
; 2654 : 	lpObj->Money -= nChaosNeedMoney;

  00159	2b cf		 sub	 ecx, edi
  0015b	89 8e f0 00 00
	00		 mov	 DWORD PTR [esi+240], ecx

; 2655 : 	g_CastleSiegeSync.AddTributeMoney(iChaosTaxMoney);

  00161	50		 push	 eax
  00162	b9 00 00 00 00	 mov	 ecx, OFFSET ?g_CastleSiegeSync@@3VCCastleSiegeSync@@A ; g_CastleSiegeSync
  00167	e8 00 00 00 00	 call	 ?AddTributeMoney@CCastleSiegeSync@@QAEXH@Z ; CCastleSiegeSync::AddTributeMoney

; 2656 : 	GCMoneySend(lpObj->m_Index, lpObj->Money);

  0016c	8b 86 f0 00 00
	00		 mov	 eax, DWORD PTR [esi+240]
  00172	8b 0e		 mov	 ecx, DWORD PTR [esi]
  00174	50		 push	 eax
  00175	51		 push	 ecx
  00176	e8 00 00 00 00	 call	 ?GCMoneySend@@YAXHK@Z	; GCMoneySend
  0017b	83 c4 08	 add	 esp, 8

; 2657 : 
; 2658 : 	if ( (rand()%100) < lpObj->ChaosSuccessRate )

  0017e	e8 00 00 00 00	 call	 _rand
  00183	99		 cdq
  00184	b9 64 00 00 00	 mov	 ecx, 100		; 00000064H
  00189	f7 f9		 idiv	 ecx
  0018b	3b 96 84 0e 00
	00		 cmp	 edx, DWORD PTR [esi+3716]
  00191	7d 7f		 jge	 SHORT $LN2@BlessPotio

; 2659 : 	{
; 2660 : 		int ItemNum = ITEMGET(14,7);
; 2661 : 		int Level = 0;
; 2662 : 		int Dur = iBlessGemCount * 10;
; 2663 : 
; 2664 : 		ItemSerialCreateSend(lpObj->m_Index, -1, 0, 0, ItemNum, (BYTE)Level, (BYTE)Dur, 0, 0, 0, -1, 0, 0);

  00193	6a 00		 push	 0
  00195	8b 0e		 mov	 ecx, DWORD PTR [esi]
  00197	6a 00		 push	 0
  00199	6a ff		 push	 -1
  0019b	8a d3		 mov	 dl, bl
  0019d	6a 00		 push	 0
  0019f	02 d2		 add	 dl, dl
  001a1	6a 00		 push	 0
  001a3	02 d2		 add	 dl, dl
  001a5	02 da		 add	 bl, dl
  001a7	6a 00		 push	 0
  001a9	02 db		 add	 bl, bl
  001ab	0f b6 c3	 movzx	 eax, bl
  001ae	50		 push	 eax
  001af	6a 00		 push	 0
  001b1	68 07 1c 00 00	 push	 7175			; 00001c07H
  001b6	6a 00		 push	 0
  001b8	6a 00		 push	 0
  001ba	68 ff 00 00 00	 push	 255			; 000000ffH
  001bf	51		 push	 ecx
  001c0	e8 00 00 00 00	 call	 ?ItemSerialCreateSend@@YAXHEEEHEEEEEHEE@Z ; ItemSerialCreateSend

; 2665 : 		::gObjInventoryCommit(lpObj->m_Index);

  001c5	8b 16		 mov	 edx, DWORD PTR [esi]
  001c7	52		 push	 edx
  001c8	e8 00 00 00 00	 call	 ?gObjInventoryCommit@@YAHH@Z ; gObjInventoryCommit

; 2666 : 
; 2667 : 		LogAddTD("[BlessPotionMix] [%s][%s] CBMix Success %d Money : %d-%d",
; 2668 : 			lpObj->AccountID, lpObj->Name, lpObj->ChaosSuccessRate, 
; 2669 : 			lpObj->Money, nChaosNeedMoney);

  001cd	8b 86 f0 00 00
	00		 mov	 eax, DWORD PTR [esi+240]
  001d3	8b 8e 84 0e 00
	00		 mov	 ecx, DWORD PTR [esi+3716]
  001d9	57		 push	 edi
  001da	50		 push	 eax
  001db	51		 push	 ecx
  001dc	8d 56 77	 lea	 edx, DWORD PTR [esi+119]
  001df	52		 push	 edx
  001e0	8d 46 6c	 lea	 eax, DWORD PTR [esi+108]
  001e3	50		 push	 eax
  001e4	68 00 00 00 00	 push	 OFFSET ??_C@_0DJ@CHGCMDK@?$FLBlessPotionMix?$FN?5?$FL?$CFs?$FN?$FL?$CFs?$FN?5CBMix?5@
  001e9	ff 15 00 00 00
	00		 call	 DWORD PTR ?LogAddTD@@3P6AXPADZZA ; LogAddTD

; 2670 : #if(SYSTEM_ACHIEVEMENTS)
; 2671 : 		g_Achievements.SuccessChaosMix(lpObj->m_Index);

  001ef	8b 0e		 mov	 ecx, DWORD PTR [esi]
  001f1	83 c4 50	 add	 esp, 80			; 00000050H
  001f4	51		 push	 ecx
  001f5	b9 00 00 00 00	 mov	 ecx, OFFSET ?g_Achievements@@3VCAchievements@@A ; g_Achievements
  001fa	e8 00 00 00 00	 call	 ?SuccessChaosMix@CAchievements@@QAEXH@Z ; CAchievements::SuccessChaosMix
  001ff	5f		 pop	 edi
  00200	5e		 pop	 esi
  00201	5b		 pop	 ebx

; 2687 : 	}
; 2688 : }

  00202	8b 4d fc	 mov	 ecx, DWORD PTR __$ArrayPad$[ebp]
  00205	33 cd		 xor	 ecx, ebp
  00207	e8 00 00 00 00	 call	 @__security_check_cookie@4
  0020c	8b e5		 mov	 esp, ebp
  0020e	5d		 pop	 ebp
  0020f	c2 04 00	 ret	 4
$LN2@BlessPotio:

; 2672 : #endif
; 2673 : 	}
; 2674 : 	else
; 2675 : 	{
; 2676 : 		this->ChaosBoxInit(lpObj);

  00212	8b 4d e4	 mov	 ecx, DWORD PTR _this$[ebp]
  00215	56		 push	 esi
  00216	e8 00 00 00 00	 call	 ?ChaosBoxInit@CMixSystem@@QAEHPAUOBJECTSTRUCT@@@Z ; CMixSystem::ChaosBoxInit

; 2677 : 		::GCUserChaosBoxSend(lpObj, 1);

  0021b	6a 01		 push	 1
  0021d	56		 push	 esi
  0021e	e8 00 00 00 00	 call	 ?GCUserChaosBoxSend@@YAXPAUOBJECTSTRUCT@@H@Z ; GCUserChaosBoxSend

; 2678 : 		DataSend(lpObj->m_Index, (LPBYTE)&pMsg, pMsg.h.size);

  00223	0f b6 55 ed	 movzx	 edx, BYTE PTR _pMsg$[ebp+1]
  00227	8b 0e		 mov	 ecx, DWORD PTR [esi]
  00229	52		 push	 edx
  0022a	8d 45 ec	 lea	 eax, DWORD PTR _pMsg$[ebp]
  0022d	50		 push	 eax
  0022e	51		 push	 ecx
  0022f	e8 00 00 00 00	 call	 ?DataSend@@YAHHPAEK@Z	; DataSend

; 2679 : 
; 2680 : 		LogAddTD("[BlessPotionMix] [%s][%s] CBMix Fail %d Money : %d-%d",
; 2681 : 			lpObj->AccountID, lpObj->Name, lpObj->ChaosSuccessRate, 
; 2682 : 			lpObj->Money, nChaosNeedMoney);

  00234	8b 96 f0 00 00
	00		 mov	 edx, DWORD PTR [esi+240]
  0023a	8b 86 84 0e 00
	00		 mov	 eax, DWORD PTR [esi+3716]
  00240	57		 push	 edi
  00241	52		 push	 edx
  00242	50		 push	 eax
  00243	8d 4e 77	 lea	 ecx, DWORD PTR [esi+119]
  00246	51		 push	 ecx
  00247	8d 56 6c	 lea	 edx, DWORD PTR [esi+108]
  0024a	52		 push	 edx
  0024b	68 00 00 00 00	 push	 OFFSET ??_C@_0DG@ECHLAENJ@?$FLBlessPotionMix?$FN?5?$FL?$CFs?$FN?$FL?$CFs?$FN?5CBMix?5@
  00250	ff 15 00 00 00
	00		 call	 DWORD PTR ?LogAddTD@@3P6AXPADZZA ; LogAddTD

; 2683 : #if(SYSTEM_ACHIEVEMENTS)
; 2684 : 		g_Achievements.FailedChaosMix(lpObj->m_Index);

  00256	8b 06		 mov	 eax, DWORD PTR [esi]
  00258	83 c4 2c	 add	 esp, 44			; 0000002cH
  0025b	50		 push	 eax
  0025c	b9 00 00 00 00	 mov	 ecx, OFFSET ?g_Achievements@@3VCAchievements@@A ; g_Achievements
  00261	e8 00 00 00 00	 call	 ?FailedChaosMix@CAchievements@@QAEXH@Z ; CAchievements::FailedChaosMix
$LN21@BlessPotio:

; 2685 : #endif
; 2686 : 		lpObj->ChaosLock = FALSE;

  00266	c7 86 88 0e 00
	00 00 00 00 00	 mov	 DWORD PTR [esi+3720], 0
$LN1@BlessPotio:

; 2687 : 	}
; 2688 : }

  00270	8b 4d fc	 mov	 ecx, DWORD PTR __$ArrayPad$[ebp]
  00273	5f		 pop	 edi
  00274	5e		 pop	 esi
  00275	33 cd		 xor	 ecx, ebp
  00277	5b		 pop	 ebx
  00278	e8 00 00 00 00	 call	 @__security_check_cookie@4
  0027d	8b e5		 mov	 esp, ebp
  0027f	5d		 pop	 ebp
  00280	c2 04 00	 ret	 4
?BlessPotionChaosMix@CMixSystem@@QAEXPAUOBJECTSTRUCT@@@Z ENDP ; CMixSystem::BlessPotionChaosMix
_TEXT	ENDS
PUBLIC	??_C@_0DF@MJBBEIMO@?$FLSoulPotionMix?$FN?5?$FL?$CFs?$FN?$FL?$CFs?$FN?5CBMix?5F@ ; `string'
PUBLIC	??_C@_0CA@GHNNBMIL@?$FLSoulPotionMix?$FN?5Chaos?5Mix?5Start?$AA@ ; `string'
PUBLIC	??_C@_0O@KAEODMHN@SoulPotionMix?$AA@		; `string'
PUBLIC	__$ArrayPad$
PUBLIC	?SoulPotionChaosMix@CMixSystem@@QAEXPAUOBJECTSTRUCT@@@Z ; CMixSystem::SoulPotionChaosMix
;	COMDAT ??_C@_0DF@MJBBEIMO@?$FLSoulPotionMix?$FN?5?$FL?$CFs?$FN?$FL?$CFs?$FN?5CBMix?5F@
CONST	SEGMENT
??_C@_0DF@MJBBEIMO@?$FLSoulPotionMix?$FN?5?$FL?$CFs?$FN?$FL?$CFs?$FN?5CBMix?5F@ DB '['
	DB	'SoulPotionMix] [%s][%s] CBMix Fail %d Money : %d-%d', 00H ; `string'
CONST	ENDS
;	COMDAT ??_C@_0CA@GHNNBMIL@?$FLSoulPotionMix?$FN?5Chaos?5Mix?5Start?$AA@
CONST	SEGMENT
??_C@_0CA@GHNNBMIL@?$FLSoulPotionMix?$FN?5Chaos?5Mix?5Start?$AA@ DB '[Sou'
	DB	'lPotionMix] Chaos Mix Start', 00H		; `string'
CONST	ENDS
;	COMDAT ??_C@_0O@KAEODMHN@SoulPotionMix?$AA@
CONST	SEGMENT
??_C@_0O@KAEODMHN@SoulPotionMix?$AA@ DB 'SoulPotionMix', 00H ; `string'
; Function compile flags: /Ogtp
CONST	ENDS
;	COMDAT ?SoulPotionChaosMix@CMixSystem@@QAEXPAUOBJECTSTRUCT@@@Z
_TEXT	SEGMENT
_this$ = -28						; size = 4
_iInvalidItemCount$ = -24				; size = 4
_pMsg$ = -20						; size = 16
__$ArrayPad$ = -4					; size = 4
_lpObj$ = 8						; size = 4
?SoulPotionChaosMix@CMixSystem@@QAEXPAUOBJECTSTRUCT@@@Z PROC ; CMixSystem::SoulPotionChaosMix, COMDAT
; _this$ = ecx

; 2691 : {

  00000	55		 push	 ebp
  00001	8b ec		 mov	 ebp, esp
  00003	83 ec 1c	 sub	 esp, 28			; 0000001cH
  00006	a1 00 00 00 00	 mov	 eax, DWORD PTR ___security_cookie
  0000b	33 c5		 xor	 eax, ebp
  0000d	89 45 fc	 mov	 DWORD PTR __$ArrayPad$[ebp], eax
  00010	53		 push	 ebx
  00011	56		 push	 esi
  00012	8b 75 08	 mov	 esi, DWORD PTR _lpObj$[ebp]
  00015	57		 push	 edi

; 2692 : 	lpObj->ChaosLock = TRUE;
; 2693 : 	int iSoulGemCount = 0;
; 2694 : 	int iChaosMoney = 0;
; 2695 : 	int iInvalidItemCount = 0;
; 2696 : 
; 2697 : 	PMSG_CHAOSMIXRESULT pMsg;
; 2698 : 
; 2699 : 	PHeadSetB((LPBYTE)&pMsg.h, 0x86, sizeof(PMSG_CHAOSMIXRESULT));

  00016	6a 10		 push	 16			; 00000010H
  00018	8d 45 ec	 lea	 eax, DWORD PTR _pMsg$[ebp]
  0001b	68 86 00 00 00	 push	 134			; 00000086H
  00020	33 ff		 xor	 edi, edi
  00022	50		 push	 eax
  00023	89 4d e4	 mov	 DWORD PTR _this$[ebp], ecx
  00026	c7 86 88 0e 00
	00 01 00 00 00	 mov	 DWORD PTR [esi+3720], 1
  00030	33 db		 xor	 ebx, ebx
  00032	89 7d e8	 mov	 DWORD PTR _iInvalidItemCount$[ebp], edi
  00035	e8 00 00 00 00	 call	 ?PHeadSetB@@YAXPAEEH@Z	; PHeadSetB
  0003a	83 c4 0c	 add	 esp, 12			; 0000000cH

; 2700 : 	pMsg.Result = CB_ERROR;

  0003d	88 5d ef	 mov	 BYTE PTR _pMsg$[ebp+3], bl
$LL14@SoulPotion:

; 2703 : 	{
; 2704 : 		if ( lpObj->pChaosBox[n].IsItem() == TRUE )

  00040	8b 8e 78 0e 00
	00		 mov	 ecx, DWORD PTR [esi+3704]
  00046	03 cf		 add	 ecx, edi
  00048	e8 00 00 00 00	 call	 ?IsItem@CItem@@QAEHXZ	; CItem::IsItem
  0004d	83 f8 01	 cmp	 eax, 1
  00050	75 18		 jne	 SHORT $LN13@SoulPotion

; 2705 : 		{
; 2706 : 			if ( lpObj->pChaosBox[n].m_Type == ITEMGET(14,14) )

  00052	8b 8e 78 0e 00
	00		 mov	 ecx, DWORD PTR [esi+3704]
  00058	ba 0e 1c 00 00	 mov	 edx, 7182		; 00001c0eH
  0005d	66 39 54 39 06	 cmp	 WORD PTR [ecx+edi+6], dx
  00062	75 03		 jne	 SHORT $LN10@SoulPotion

; 2707 : 			{
; 2708 : 				iSoulGemCount++;

  00064	43		 inc	 ebx

; 2709 : 			}
; 2710 : 			else

  00065	eb 03		 jmp	 SHORT $LN13@SoulPotion
$LN10@SoulPotion:

; 2711 : 			{
; 2712 : 				iInvalidItemCount++;

  00067	ff 45 e8	 inc	 DWORD PTR _iInvalidItemCount$[ebp]
$LN13@SoulPotion:

; 2701 : 
; 2702 : 	for ( int n=0;n<CHAOS_BOX_SIZE;n++)

  0006a	81 c7 d4 00 00
	00		 add	 edi, 212		; 000000d4H
  00070	81 ff 80 1a 00
	00		 cmp	 edi, 6784		; 00001a80H
  00076	7c c8		 jl	 SHORT $LL14@SoulPotion

; 2713 : 			}
; 2714 : 		}
; 2715 : 	}
; 2716 : 
; 2717 : 	if ( iSoulGemCount == 0 )

  00078	85 db		 test	 ebx, ebx
  0007a	0f 84 f0 01 00
	00		 je	 $LN1@SoulPotion

; 2718 : 		return;
; 2719 : 
; 2720 : 	if ( iInvalidItemCount > 0 )

  00080	83 7d e8 00	 cmp	 DWORD PTR _iInvalidItemCount$[ebp], 0
  00084	0f 8f e6 01 00
	00		 jg	 $LN1@SoulPotion

; 2721 : 		return;
; 2722 : 
; 2723 : 	if ( iSoulGemCount > 25 )

  0008a	83 fb 19	 cmp	 ebx, 25			; 00000019H
  0008d	7e 31		 jle	 SHORT $LN6@SoulPotion

; 2724 : 	{
; 2725 : 		MsgOutput(lpObj->m_Index, lMsg.Get(MSGGET(6,201)));

  0008f	68 c9 06 00 00	 push	 1737			; 000006c9H
  00094	b9 00 00 00 00	 mov	 ecx, OFFSET ?lMsg@@3VCMsg@@A ; lMsg
  00099	e8 00 00 00 00	 call	 ?Get@CMsg@@QAEPADH@Z	; CMsg::Get
  0009e	50		 push	 eax
  0009f	8b 06		 mov	 eax, DWORD PTR [esi]
  000a1	50		 push	 eax
  000a2	e8 00 00 00 00	 call	 ?MsgOutput@@YAXHPADZZ	; MsgOutput

; 2726 : 		DataSend(lpObj->m_Index, (LPBYTE)&pMsg, pMsg.h.size);

  000a7	0f b6 4d ed	 movzx	 ecx, BYTE PTR _pMsg$[ebp+1]
  000ab	8b 06		 mov	 eax, DWORD PTR [esi]
  000ad	51		 push	 ecx
  000ae	8d 55 ec	 lea	 edx, DWORD PTR _pMsg$[ebp]
  000b1	52		 push	 edx
  000b2	50		 push	 eax
  000b3	e8 00 00 00 00	 call	 ?DataSend@@YAHHPAEK@Z	; DataSend
  000b8	83 c4 14	 add	 esp, 20			; 00000014H

; 2727 : 		lpObj->ChaosLock = FALSE;
; 2728 : 
; 2729 : 		return;

  000bb	e9 a6 01 00 00	 jmp	 $LN19@SoulPotion
$LN6@SoulPotion:

; 2730 : 	}
; 2731 : 
; 2732 : 	LogChaosItem(lpObj, "SoulPotionMix");

  000c0	8b 4d e4	 mov	 ecx, DWORD PTR _this$[ebp]
  000c3	68 00 00 00 00	 push	 OFFSET ??_C@_0O@KAEODMHN@SoulPotionMix?$AA@
  000c8	56		 push	 esi
  000c9	e8 00 00 00 00	 call	 ?LogChaosItem@CMixSystem@@QAEXPAUOBJECTSTRUCT@@PAD@Z ; CMixSystem::LogChaosItem

; 2733 : 	LogAddTD("[SoulPotionMix] Chaos Mix Start");

  000ce	68 00 00 00 00	 push	 OFFSET ??_C@_0CA@GHNNBMIL@?$FLSoulPotionMix?$FN?5Chaos?5Mix?5Start?$AA@
  000d3	ff 15 00 00 00
	00		 call	 DWORD PTR ?LogAddTD@@3P6AXPADZZA ; LogAddTD

; 2734 : 	lpObj->ChaosSuccessRate = 100;
; 2735 : 
; 2736 : 	int nChaosNeedMoney = 50000;
; 2737 : 
; 2738 : 	int iChaosTaxMoney = (int)((__int64)nChaosNeedMoney * (__int64)g_CastleSiegeSync.GetTaxRateChaos(lpObj->m_Index) / (__int64)100);

  000d9	8b 0e		 mov	 ecx, DWORD PTR [esi]
  000db	83 c4 04	 add	 esp, 4
  000de	51		 push	 ecx
  000df	b9 00 00 00 00	 mov	 ecx, OFFSET ?g_CastleSiegeSync@@3VCCastleSiegeSync@@A ; g_CastleSiegeSync
  000e4	c7 86 84 0e 00
	00 64 00 00 00	 mov	 DWORD PTR [esi+3716], 100 ; 00000064H
  000ee	e8 00 00 00 00	 call	 ?GetTaxRateChaos@CCastleSiegeSync@@QAEHH@Z ; CCastleSiegeSync::GetTaxRateChaos
  000f3	6a 00		 push	 0
  000f5	99		 cdq
  000f6	68 50 c3 00 00	 push	 50000			; 0000c350H
  000fb	52		 push	 edx
  000fc	50		 push	 eax
  000fd	e8 00 00 00 00	 call	 __allmul
  00102	6a 00		 push	 0
  00104	6a 64		 push	 100			; 00000064H
  00106	52		 push	 edx
  00107	50		 push	 eax
  00108	e8 00 00 00 00	 call	 __alldiv

; 2739 : 
; 2740 : 	if ( iChaosTaxMoney < 0 )

  0010d	85 c0		 test	 eax, eax
  0010f	79 02		 jns	 SHORT $LN5@SoulPotion

; 2741 : 	{
; 2742 : 		iChaosTaxMoney = 0;

  00111	33 c0		 xor	 eax, eax
$LN5@SoulPotion:

; 2743 : 	}
; 2744 : 
; 2745 : 	nChaosNeedMoney += iChaosTaxMoney;
; 2746 : 
; 2747 : 		nChaosNeedMoney += lpObj->m_AddMixMoney;

  00113	8b 96 20 28 00
	00		 mov	 edx, DWORD PTR [esi+10272]
  00119	8d bc 02 50 c3
	00 00		 lea	 edi, DWORD PTR [edx+eax+50000]

; 2748 : 
; 2749 : 	if ( nChaosNeedMoney < 0 )

  00120	85 ff		 test	 edi, edi
  00122	79 02		 jns	 SHORT $LN4@SoulPotion

; 2750 : 	{
; 2751 : 		nChaosNeedMoney = 0;

  00124	33 ff		 xor	 edi, edi
$LN4@SoulPotion:

; 2752 : 	}
; 2753 : 
; 2754 : 	if ( lpObj->Money < nChaosNeedMoney )

  00126	8b 8e f0 00 00
	00		 mov	 ecx, DWORD PTR [esi+240]
  0012c	3b cf		 cmp	 ecx, edi
  0012e	7d 1d		 jge	 SHORT $LN3@SoulPotion

; 2755 : 	{
; 2756 : 		pMsg.Result = CB_NOT_ENOUGH_ZEN;
; 2757 : 		
; 2758 : 		DataSend(lpObj->m_Index, (LPBYTE)&pMsg, pMsg.h.size);

  00130	0f b6 45 ed	 movzx	 eax, BYTE PTR _pMsg$[ebp+1]
  00134	8b 16		 mov	 edx, DWORD PTR [esi]
  00136	50		 push	 eax
  00137	8d 4d ec	 lea	 ecx, DWORD PTR _pMsg$[ebp]
  0013a	51		 push	 ecx
  0013b	52		 push	 edx
  0013c	c6 45 ef 02	 mov	 BYTE PTR _pMsg$[ebp+3], 2
  00140	e8 00 00 00 00	 call	 ?DataSend@@YAHHPAEK@Z	; DataSend
  00145	83 c4 0c	 add	 esp, 12			; 0000000cH

; 2759 : 		lpObj->ChaosLock = FALSE;
; 2760 : 
; 2761 : 		return;

  00148	e9 19 01 00 00	 jmp	 $LN19@SoulPotion
$LN3@SoulPotion:

; 2762 : 	}
; 2763 : 
; 2764 : 	lpObj->ChaosSuccessRate += lpObj->m_AddMixSuccessRate;

  0014d	8b 96 24 28 00
	00		 mov	 edx, DWORD PTR [esi+10276]
  00153	01 96 84 0e 00
	00		 add	 DWORD PTR [esi+3716], edx

; 2765 : 
; 2766 : 
; 2767 : 	lpObj->Money -= nChaosNeedMoney;

  00159	2b cf		 sub	 ecx, edi
  0015b	89 8e f0 00 00
	00		 mov	 DWORD PTR [esi+240], ecx

; 2768 : 	g_CastleSiegeSync.AddTributeMoney(iChaosTaxMoney);

  00161	50		 push	 eax
  00162	b9 00 00 00 00	 mov	 ecx, OFFSET ?g_CastleSiegeSync@@3VCCastleSiegeSync@@A ; g_CastleSiegeSync
  00167	e8 00 00 00 00	 call	 ?AddTributeMoney@CCastleSiegeSync@@QAEXH@Z ; CCastleSiegeSync::AddTributeMoney

; 2769 : 	GCMoneySend(lpObj->m_Index, lpObj->Money);

  0016c	8b 86 f0 00 00
	00		 mov	 eax, DWORD PTR [esi+240]
  00172	8b 0e		 mov	 ecx, DWORD PTR [esi]
  00174	50		 push	 eax
  00175	51		 push	 ecx
  00176	e8 00 00 00 00	 call	 ?GCMoneySend@@YAXHK@Z	; GCMoneySend
  0017b	83 c4 08	 add	 esp, 8

; 2770 : 
; 2771 : 	if ( (rand()%100) < lpObj->ChaosSuccessRate )

  0017e	e8 00 00 00 00	 call	 _rand
  00183	99		 cdq
  00184	b9 64 00 00 00	 mov	 ecx, 100		; 00000064H
  00189	f7 f9		 idiv	 ecx
  0018b	3b 96 84 0e 00
	00		 cmp	 edx, DWORD PTR [esi+3716]
  00191	7d 7f		 jge	 SHORT $LN2@SoulPotion

; 2772 : 	{
; 2773 : 		int ItemNum = ITEMGET(14,7);
; 2774 : 		int Level = 1;
; 2775 : 		int Dur = iSoulGemCount * 10;
; 2776 : 
; 2777 : 		ItemSerialCreateSend(lpObj->m_Index, -1, 0, 0, ItemNum, (BYTE)Level, (BYTE)Dur, 0, 0, 0, -1, 0, 0);

  00193	6a 00		 push	 0
  00195	8b 0e		 mov	 ecx, DWORD PTR [esi]
  00197	6a 00		 push	 0
  00199	6a ff		 push	 -1
  0019b	8a d3		 mov	 dl, bl
  0019d	6a 00		 push	 0
  0019f	02 d2		 add	 dl, dl
  001a1	6a 00		 push	 0
  001a3	02 d2		 add	 dl, dl
  001a5	02 da		 add	 bl, dl
  001a7	6a 00		 push	 0
  001a9	02 db		 add	 bl, bl
  001ab	0f b6 c3	 movzx	 eax, bl
  001ae	50		 push	 eax
  001af	6a 01		 push	 1
  001b1	68 07 1c 00 00	 push	 7175			; 00001c07H
  001b6	6a 00		 push	 0
  001b8	6a 00		 push	 0
  001ba	68 ff 00 00 00	 push	 255			; 000000ffH
  001bf	51		 push	 ecx
  001c0	e8 00 00 00 00	 call	 ?ItemSerialCreateSend@@YAXHEEEHEEEEEHEE@Z ; ItemSerialCreateSend

; 2778 : 		::gObjInventoryCommit(lpObj->m_Index);

  001c5	8b 16		 mov	 edx, DWORD PTR [esi]
  001c7	52		 push	 edx
  001c8	e8 00 00 00 00	 call	 ?gObjInventoryCommit@@YAHH@Z ; gObjInventoryCommit

; 2779 : 
; 2780 : 		LogAddTD("[BlessPotionMix] [%s][%s] CBMix Success %d Money : %d-%d",	// #error Change to SoulPotionMix
; 2781 : 			lpObj->AccountID, lpObj->Name, lpObj->ChaosSuccessRate, 
; 2782 : 			lpObj->Money, nChaosNeedMoney);

  001cd	8b 86 f0 00 00
	00		 mov	 eax, DWORD PTR [esi+240]
  001d3	8b 8e 84 0e 00
	00		 mov	 ecx, DWORD PTR [esi+3716]
  001d9	57		 push	 edi
  001da	50		 push	 eax
  001db	51		 push	 ecx
  001dc	8d 56 77	 lea	 edx, DWORD PTR [esi+119]
  001df	52		 push	 edx
  001e0	8d 46 6c	 lea	 eax, DWORD PTR [esi+108]
  001e3	50		 push	 eax
  001e4	68 00 00 00 00	 push	 OFFSET ??_C@_0DJ@CHGCMDK@?$FLBlessPotionMix?$FN?5?$FL?$CFs?$FN?$FL?$CFs?$FN?5CBMix?5@
  001e9	ff 15 00 00 00
	00		 call	 DWORD PTR ?LogAddTD@@3P6AXPADZZA ; LogAddTD

; 2783 : #if(SYSTEM_ACHIEVEMENTS)
; 2784 : 		g_Achievements.SuccessChaosMix(lpObj->m_Index);

  001ef	8b 0e		 mov	 ecx, DWORD PTR [esi]
  001f1	83 c4 50	 add	 esp, 80			; 00000050H
  001f4	51		 push	 ecx
  001f5	b9 00 00 00 00	 mov	 ecx, OFFSET ?g_Achievements@@3VCAchievements@@A ; g_Achievements
  001fa	e8 00 00 00 00	 call	 ?SuccessChaosMix@CAchievements@@QAEXH@Z ; CAchievements::SuccessChaosMix
  001ff	5f		 pop	 edi
  00200	5e		 pop	 esi
  00201	5b		 pop	 ebx

; 2800 : 	}
; 2801 : }

  00202	8b 4d fc	 mov	 ecx, DWORD PTR __$ArrayPad$[ebp]
  00205	33 cd		 xor	 ecx, ebp
  00207	e8 00 00 00 00	 call	 @__security_check_cookie@4
  0020c	8b e5		 mov	 esp, ebp
  0020e	5d		 pop	 ebp
  0020f	c2 04 00	 ret	 4
$LN2@SoulPotion:

; 2785 : #endif
; 2786 : 	}
; 2787 : 	else
; 2788 : 	{
; 2789 : 		this->ChaosBoxInit(lpObj);

  00212	8b 4d e4	 mov	 ecx, DWORD PTR _this$[ebp]
  00215	56		 push	 esi
  00216	e8 00 00 00 00	 call	 ?ChaosBoxInit@CMixSystem@@QAEHPAUOBJECTSTRUCT@@@Z ; CMixSystem::ChaosBoxInit

; 2790 : 		::GCUserChaosBoxSend(lpObj, 1);

  0021b	6a 01		 push	 1
  0021d	56		 push	 esi
  0021e	e8 00 00 00 00	 call	 ?GCUserChaosBoxSend@@YAXPAUOBJECTSTRUCT@@H@Z ; GCUserChaosBoxSend

; 2791 : 		DataSend(lpObj->m_Index, (LPBYTE)&pMsg, pMsg.h.size);

  00223	0f b6 55 ed	 movzx	 edx, BYTE PTR _pMsg$[ebp+1]
  00227	8b 0e		 mov	 ecx, DWORD PTR [esi]
  00229	52		 push	 edx
  0022a	8d 45 ec	 lea	 eax, DWORD PTR _pMsg$[ebp]
  0022d	50		 push	 eax
  0022e	51		 push	 ecx
  0022f	e8 00 00 00 00	 call	 ?DataSend@@YAHHPAEK@Z	; DataSend

; 2792 : 
; 2793 : 		LogAddTD("[SoulPotionMix] [%s][%s] CBMix Fail %d Money : %d-%d",
; 2794 : 			lpObj->AccountID, lpObj->Name, lpObj->ChaosSuccessRate, 
; 2795 : 			lpObj->Money, nChaosNeedMoney);

  00234	8b 96 f0 00 00
	00		 mov	 edx, DWORD PTR [esi+240]
  0023a	8b 86 84 0e 00
	00		 mov	 eax, DWORD PTR [esi+3716]
  00240	57		 push	 edi
  00241	52		 push	 edx
  00242	50		 push	 eax
  00243	8d 4e 77	 lea	 ecx, DWORD PTR [esi+119]
  00246	51		 push	 ecx
  00247	8d 56 6c	 lea	 edx, DWORD PTR [esi+108]
  0024a	52		 push	 edx
  0024b	68 00 00 00 00	 push	 OFFSET ??_C@_0DF@MJBBEIMO@?$FLSoulPotionMix?$FN?5?$FL?$CFs?$FN?$FL?$CFs?$FN?5CBMix?5F@
  00250	ff 15 00 00 00
	00		 call	 DWORD PTR ?LogAddTD@@3P6AXPADZZA ; LogAddTD

; 2796 : #if(SYSTEM_ACHIEVEMENTS)
; 2797 : 		g_Achievements.FailedChaosMix(lpObj->m_Index);

  00256	8b 06		 mov	 eax, DWORD PTR [esi]
  00258	83 c4 2c	 add	 esp, 44			; 0000002cH
  0025b	50		 push	 eax
  0025c	b9 00 00 00 00	 mov	 ecx, OFFSET ?g_Achievements@@3VCAchievements@@A ; g_Achievements
  00261	e8 00 00 00 00	 call	 ?FailedChaosMix@CAchievements@@QAEXH@Z ; CAchievements::FailedChaosMix
$LN19@SoulPotion:

; 2798 : #endif
; 2799 : 		lpObj->ChaosLock = FALSE;

  00266	c7 86 88 0e 00
	00 00 00 00 00	 mov	 DWORD PTR [esi+3720], 0
$LN1@SoulPotion:

; 2800 : 	}
; 2801 : }

  00270	8b 4d fc	 mov	 ecx, DWORD PTR __$ArrayPad$[ebp]
  00273	5f		 pop	 edi
  00274	5e		 pop	 esi
  00275	33 cd		 xor	 ecx, ebp
  00277	5b		 pop	 ebx
  00278	e8 00 00 00 00	 call	 @__security_check_cookie@4
  0027d	8b e5		 mov	 esp, ebp
  0027f	5d		 pop	 ebp
  00280	c2 04 00	 ret	 4
?SoulPotionChaosMix@CMixSystem@@QAEXPAUOBJECTSTRUCT@@@Z ENDP ; CMixSystem::SoulPotionChaosMix
_TEXT	ENDS
PUBLIC	??_C@_0DE@PMLDDIAP@?$FLLifeStoneMix?$FN?5?$FL?$CFs?$FN?$FL?$CFs?$FN?5CBMix?5Fa@ ; `string'
PUBLIC	??_C@_0DH@GNDOFGHL@?$FLLifeStoneMix?$FN?5?$FL?$CFs?$FN?$FL?$CFs?$FN?5CBMix?5Su@ ; `string'
PUBLIC	??_C@_0BP@OKAOMBJE@?$FLLifeStoneMix?$FN?5Chaos?5Mix?5Start?$AA@ ; `string'
PUBLIC	??_C@_0N@FJGBJPII@LifeStoneMix?$AA@		; `string'
PUBLIC	__$ArrayPad$
PUBLIC	?LifeStoneChaosMix@CMixSystem@@QAEXPAUOBJECTSTRUCT@@@Z ; CMixSystem::LifeStoneChaosMix
;	COMDAT ??_C@_0DE@PMLDDIAP@?$FLLifeStoneMix?$FN?5?$FL?$CFs?$FN?$FL?$CFs?$FN?5CBMix?5Fa@
CONST	SEGMENT
??_C@_0DE@PMLDDIAP@?$FLLifeStoneMix?$FN?5?$FL?$CFs?$FN?$FL?$CFs?$FN?5CBMix?5Fa@ DB '['
	DB	'LifeStoneMix] [%s][%s] CBMix Fail %d Money : %d-%d', 00H ; `string'
CONST	ENDS
;	COMDAT ??_C@_0DH@GNDOFGHL@?$FLLifeStoneMix?$FN?5?$FL?$CFs?$FN?$FL?$CFs?$FN?5CBMix?5Su@
CONST	SEGMENT
??_C@_0DH@GNDOFGHL@?$FLLifeStoneMix?$FN?5?$FL?$CFs?$FN?$FL?$CFs?$FN?5CBMix?5Su@ DB '['
	DB	'LifeStoneMix] [%s][%s] CBMix Success %d Money : %d-%d', 00H ; `string'
CONST	ENDS
;	COMDAT ??_C@_0BP@OKAOMBJE@?$FLLifeStoneMix?$FN?5Chaos?5Mix?5Start?$AA@
CONST	SEGMENT
??_C@_0BP@OKAOMBJE@?$FLLifeStoneMix?$FN?5Chaos?5Mix?5Start?$AA@ DB '[Life'
	DB	'StoneMix] Chaos Mix Start', 00H		; `string'
CONST	ENDS
;	COMDAT ??_C@_0N@FJGBJPII@LifeStoneMix?$AA@
CONST	SEGMENT
??_C@_0N@FJGBJPII@LifeStoneMix?$AA@ DB 'LifeStoneMix', 00H ; `string'
; Function compile flags: /Ogtp
CONST	ENDS
;	COMDAT ?LifeStoneChaosMix@CMixSystem@@QAEXPAUOBJECTSTRUCT@@@Z
_TEXT	SEGMENT
_this$ = -40						; size = 4
_iBlessGemCount$ = -36					; size = 4
_iSoulGemCount$ = -32					; size = 4
_iInvalidItemCount$ = -28				; size = 4
_iProtectionGemCount$ = -24				; size = 4
_pMsg$ = -20						; size = 16
__$ArrayPad$ = -4					; size = 4
_lpObj$ = 8						; size = 4
?LifeStoneChaosMix@CMixSystem@@QAEXPAUOBJECTSTRUCT@@@Z PROC ; CMixSystem::LifeStoneChaosMix, COMDAT
; _this$ = ecx

; 2804 : {

  00000	55		 push	 ebp
  00001	8b ec		 mov	 ebp, esp
  00003	83 ec 28	 sub	 esp, 40			; 00000028H
  00006	a1 00 00 00 00	 mov	 eax, DWORD PTR ___security_cookie
  0000b	33 c5		 xor	 eax, ebp
  0000d	89 45 fc	 mov	 DWORD PTR __$ArrayPad$[ebp], eax
  00010	53		 push	 ebx
  00011	56		 push	 esi
  00012	8b 75 08	 mov	 esi, DWORD PTR _lpObj$[ebp]
  00015	57		 push	 edi

; 2805 : 	lpObj->ChaosLock = TRUE;
; 2806 : 	int iChoasGemCount = 0;
; 2807 : 	int iBlessGemCount = 0;
; 2808 : 	int iSoulGemCount = 0;
; 2809 : 	int iProtectionGemCount = 0;
; 2810 : 	int iInvalidItemCount = 0;
; 2811 : 	int iChaosMoney = 0;
; 2812 : 
; 2813 : 	PMSG_CHAOSMIXRESULT pMsg;
; 2814 : 
; 2815 : 	PHeadSetB((LPBYTE)&pMsg.h, 0x86, sizeof(PMSG_CHAOSMIXRESULT));

  00016	6a 10		 push	 16			; 00000010H
  00018	33 ff		 xor	 edi, edi
  0001a	8d 45 ec	 lea	 eax, DWORD PTR _pMsg$[ebp]
  0001d	68 86 00 00 00	 push	 134			; 00000086H
  00022	50		 push	 eax
  00023	89 4d d8	 mov	 DWORD PTR _this$[ebp], ecx
  00026	c7 86 88 0e 00
	00 01 00 00 00	 mov	 DWORD PTR [esi+3720], 1
  00030	33 db		 xor	 ebx, ebx
  00032	89 7d dc	 mov	 DWORD PTR _iBlessGemCount$[ebp], edi
  00035	89 7d e0	 mov	 DWORD PTR _iSoulGemCount$[ebp], edi
  00038	89 7d e8	 mov	 DWORD PTR _iProtectionGemCount$[ebp], edi
  0003b	89 7d e4	 mov	 DWORD PTR _iInvalidItemCount$[ebp], edi
  0003e	e8 00 00 00 00	 call	 ?PHeadSetB@@YAXPAEEH@Z	; PHeadSetB
  00043	83 c4 0c	 add	 esp, 12			; 0000000cH

; 2816 : 	pMsg.Result = CB_ERROR;

  00046	88 5d ef	 mov	 BYTE PTR _pMsg$[ebp+3], bl
  00049	8d a4 24 00 00
	00 00		 npad	 7
$LL19@LifeStoneC:

; 2820 : 	{
; 2821 : 		if ( lpObj->pChaosBox[n].IsItem() == TRUE )

  00050	8b 8e 78 0e 00
	00		 mov	 ecx, DWORD PTR [esi+3704]
  00056	03 cf		 add	 ecx, edi
  00058	e8 00 00 00 00	 call	 ?IsItem@CItem@@QAEHXZ	; CItem::IsItem
  0005d	b9 01 00 00 00	 mov	 ecx, 1
  00062	3b c1		 cmp	 eax, ecx
  00064	75 49		 jne	 SHORT $LN18@LifeStoneC

; 2822 : 		{
; 2823 : 			if ( lpObj->pChaosBox[n].m_Type == ITEMGET(14,13) )

  00066	8b 96 78 0e 00
	00		 mov	 edx, DWORD PTR [esi+3704]
  0006c	0f b7 44 3a 06	 movzx	 eax, WORD PTR [edx+edi+6]
  00071	ba 0d 1c 00 00	 mov	 edx, 7181		; 00001c0dH
  00076	66 3b c2	 cmp	 ax, dx
  00079	75 05		 jne	 SHORT $LN15@LifeStoneC

; 2824 : 			{
; 2825 : 				iBlessGemCount++;

  0007b	01 4d dc	 add	 DWORD PTR _iBlessGemCount$[ebp], ecx
  0007e	eb 2f		 jmp	 SHORT $LN18@LifeStoneC
$LN15@LifeStoneC:

; 2826 : 			}
; 2827 : 			else if ( lpObj->pChaosBox[n].m_Type == ITEMGET(14,14) )

  00080	ba 0e 1c 00 00	 mov	 edx, 7182		; 00001c0eH
  00085	66 3b c2	 cmp	 ax, dx
  00088	75 05		 jne	 SHORT $LN13@LifeStoneC

; 2828 : 			{
; 2829 : 				iSoulGemCount++;

  0008a	01 4d e0	 add	 DWORD PTR _iSoulGemCount$[ebp], ecx
  0008d	eb 20		 jmp	 SHORT $LN18@LifeStoneC
$LN13@LifeStoneC:

; 2830 : 			}
; 2831 : 			else if ( lpObj->pChaosBox[n].m_Type == ITEMGET(14,31) )	// Guardian Jewel

  0008f	ba 1f 1c 00 00	 mov	 edx, 7199		; 00001c1fH
  00094	66 3b c2	 cmp	 ax, dx
  00097	75 05		 jne	 SHORT $LN11@LifeStoneC

; 2832 : 			{
; 2833 : 				iProtectionGemCount++;

  00099	01 4d e8	 add	 DWORD PTR _iProtectionGemCount$[ebp], ecx
  0009c	eb 11		 jmp	 SHORT $LN18@LifeStoneC
$LN11@LifeStoneC:

; 2834 : 			}
; 2835 : 			else if ( lpObj->pChaosBox[n].m_Type == ITEMGET(12,15) )	// Habla pe super CHOAS

  0009e	ba 0f 18 00 00	 mov	 edx, 6159		; 0000180fH
  000a3	66 3b c2	 cmp	 ax, dx
  000a6	75 04		 jne	 SHORT $LN9@LifeStoneC

; 2836 : 			{
; 2837 : 				iChoasGemCount++;

  000a8	03 d9		 add	 ebx, ecx

; 2838 : 			}
; 2839 : 			else 

  000aa	eb 03		 jmp	 SHORT $LN18@LifeStoneC
$LN9@LifeStoneC:

; 2840 : 			{
; 2841 : 				iInvalidItemCount++;

  000ac	01 4d e4	 add	 DWORD PTR _iInvalidItemCount$[ebp], ecx
$LN18@LifeStoneC:

; 2817 : 
; 2818 : 
; 2819 : 	for ( int n=0;n<CHAOS_BOX_SIZE;n++)

  000af	81 c7 d4 00 00
	00		 add	 edi, 212		; 000000d4H
  000b5	81 ff 80 1a 00
	00		 cmp	 edi, 6784		; 00001a80H
  000bb	7c 93		 jl	 SHORT $LL19@LifeStoneC

; 2842 : 			}
; 2843 : 		}
; 2844 : 	}
; 2845 : 
; 2846 : 	if ( iChoasGemCount != 1 || iBlessGemCount != 5 || iSoulGemCount != 5 || iProtectionGemCount != 1 || iInvalidItemCount > 0 )

  000bd	3b d9		 cmp	 ebx, ecx
  000bf	0f 85 98 00 00
	00		 jne	 $LN24@LifeStoneC
  000c5	b8 05 00 00 00	 mov	 eax, 5
  000ca	39 45 dc	 cmp	 DWORD PTR _iBlessGemCount$[ebp], eax
  000cd	0f 85 8a 00 00
	00		 jne	 $LN24@LifeStoneC
  000d3	39 45 e0	 cmp	 DWORD PTR _iSoulGemCount$[ebp], eax
  000d6	0f 85 81 00 00
	00		 jne	 $LN24@LifeStoneC
  000dc	39 4d e8	 cmp	 DWORD PTR _iProtectionGemCount$[ebp], ecx
  000df	75 7c		 jne	 SHORT $LN24@LifeStoneC
  000e1	83 7d e4 00	 cmp	 DWORD PTR _iInvalidItemCount$[ebp], 0
  000e5	7f 76		 jg	 SHORT $LN24@LifeStoneC

; 2850 : 
; 2851 : 		return;
; 2852 : 	}
; 2853 : 
; 2854 : 	LogChaosItem(lpObj, "LifeStoneMix");

  000e7	8b 5d d8	 mov	 ebx, DWORD PTR _this$[ebp]
  000ea	68 00 00 00 00	 push	 OFFSET ??_C@_0N@FJGBJPII@LifeStoneMix?$AA@
  000ef	56		 push	 esi
  000f0	8b cb		 mov	 ecx, ebx
  000f2	e8 00 00 00 00	 call	 ?LogChaosItem@CMixSystem@@QAEXPAUOBJECTSTRUCT@@PAD@Z ; CMixSystem::LogChaosItem

; 2855 : 	LogAddTD("[LifeStoneMix] Chaos Mix Start");

  000f7	68 00 00 00 00	 push	 OFFSET ??_C@_0BP@OKAOMBJE@?$FLLifeStoneMix?$FN?5Chaos?5Mix?5Start?$AA@
  000fc	ff 15 00 00 00
	00		 call	 DWORD PTR ?LogAddTD@@3P6AXPADZZA ; LogAddTD

; 2856 : 	lpObj->ChaosSuccessRate = 100;
; 2857 : 
; 2858 : 	int nChaosNeedMoney = 5000000;
; 2859 : 
; 2860 : 	int iChaosTaxMoney = (int)((__int64)nChaosNeedMoney * (__int64)g_CastleSiegeSync.GetTaxRateChaos(lpObj->m_Index) / (__int64)100);

  00102	8b 06		 mov	 eax, DWORD PTR [esi]
  00104	83 c4 04	 add	 esp, 4
  00107	50		 push	 eax
  00108	b9 00 00 00 00	 mov	 ecx, OFFSET ?g_CastleSiegeSync@@3VCCastleSiegeSync@@A ; g_CastleSiegeSync
  0010d	c7 86 84 0e 00
	00 64 00 00 00	 mov	 DWORD PTR [esi+3716], 100 ; 00000064H
  00117	e8 00 00 00 00	 call	 ?GetTaxRateChaos@CCastleSiegeSync@@QAEHH@Z ; CCastleSiegeSync::GetTaxRateChaos
  0011c	6a 00		 push	 0
  0011e	99		 cdq
  0011f	68 40 4b 4c 00	 push	 5000000			; 004c4b40H
  00124	52		 push	 edx
  00125	50		 push	 eax
  00126	e8 00 00 00 00	 call	 __allmul
  0012b	6a 00		 push	 0
  0012d	6a 64		 push	 100			; 00000064H
  0012f	52		 push	 edx
  00130	50		 push	 eax
  00131	e8 00 00 00 00	 call	 __alldiv

; 2861 : 
; 2862 : 	if ( iChaosTaxMoney < 0 )

  00136	85 c0		 test	 eax, eax
  00138	79 02		 jns	 SHORT $LN5@LifeStoneC

; 2863 : 	{
; 2864 : 		iChaosTaxMoney = 0;

  0013a	33 c0		 xor	 eax, eax
$LN5@LifeStoneC:

; 2865 : 	}
; 2866 : 
; 2867 : 	nChaosNeedMoney += iChaosTaxMoney;
; 2868 : 
; 2869 : 		nChaosNeedMoney += lpObj->m_AddMixMoney;

  0013c	8b 8e 20 28 00
	00		 mov	 ecx, DWORD PTR [esi+10272]
  00142	8d bc 01 40 4b
	4c 00		 lea	 edi, DWORD PTR [ecx+eax+5000000]

; 2870 : 
; 2871 : 	if ( nChaosNeedMoney < 0 )

  00149	85 ff		 test	 edi, edi
  0014b	79 02		 jns	 SHORT $LN4@LifeStoneC

; 2872 : 	{
; 2873 : 		nChaosNeedMoney = 0;

  0014d	33 ff		 xor	 edi, edi
$LN4@LifeStoneC:

; 2874 : 	}
; 2875 : 
; 2876 : 	if ( lpObj->Money < nChaosNeedMoney )

  0014f	8b 8e f0 00 00
	00		 mov	 ecx, DWORD PTR [esi+240]
  00155	3b cf		 cmp	 ecx, edi
  00157	7d 35		 jge	 SHORT $LN3@LifeStoneC

; 2877 : 	{
; 2878 : 		pMsg.Result = CB_NOT_ENOUGH_ZEN;

  00159	c6 45 ef 02	 mov	 BYTE PTR _pMsg$[ebp+3], 2
$LN24@LifeStoneC:

; 2847 : 	{
; 2848 : 		DataSend(lpObj->m_Index, (LPBYTE)&pMsg, pMsg.h.size);

  0015d	0f b6 55 ed	 movzx	 edx, BYTE PTR _pMsg$[ebp+1]
  00161	8b 0e		 mov	 ecx, DWORD PTR [esi]
  00163	52		 push	 edx
  00164	8d 45 ec	 lea	 eax, DWORD PTR _pMsg$[ebp]
  00167	50		 push	 eax
  00168	51		 push	 ecx
  00169	e8 00 00 00 00	 call	 ?DataSend@@YAHHPAEK@Z	; DataSend
  0016e	83 c4 0c	 add	 esp, 12			; 0000000cH
  00171	5f		 pop	 edi

; 2849 : 		lpObj->ChaosLock = FALSE;

  00172	c7 86 88 0e 00
	00 00 00 00 00	 mov	 DWORD PTR [esi+3720], 0
  0017c	5e		 pop	 esi
  0017d	5b		 pop	 ebx

; 2920 : #endif
; 2921 : 	}
; 2922 : }

  0017e	8b 4d fc	 mov	 ecx, DWORD PTR __$ArrayPad$[ebp]
  00181	33 cd		 xor	 ecx, ebp
  00183	e8 00 00 00 00	 call	 @__security_check_cookie@4
  00188	8b e5		 mov	 esp, ebp
  0018a	5d		 pop	 ebp
  0018b	c2 04 00	 ret	 4
$LN3@LifeStoneC:

; 2879 : 		
; 2880 : 		DataSend(lpObj->m_Index, (LPBYTE)&pMsg, pMsg.h.size);
; 2881 : 		lpObj->ChaosLock = FALSE;
; 2882 : 
; 2883 : 		return;
; 2884 : 	}
; 2885 : 
; 2886 : 	lpObj->ChaosSuccessRate += lpObj->m_AddMixSuccessRate;

  0018e	8b 96 24 28 00
	00		 mov	 edx, DWORD PTR [esi+10276]
  00194	01 96 84 0e 00
	00		 add	 DWORD PTR [esi+3716], edx

; 2887 : 
; 2888 : 
; 2889 : 	lpObj->Money -= nChaosNeedMoney;

  0019a	2b cf		 sub	 ecx, edi
  0019c	89 8e f0 00 00
	00		 mov	 DWORD PTR [esi+240], ecx

; 2890 : 	g_CastleSiegeSync.AddTributeMoney(iChaosTaxMoney);

  001a2	50		 push	 eax
  001a3	b9 00 00 00 00	 mov	 ecx, OFFSET ?g_CastleSiegeSync@@3VCCastleSiegeSync@@A ; g_CastleSiegeSync
  001a8	e8 00 00 00 00	 call	 ?AddTributeMoney@CCastleSiegeSync@@QAEXH@Z ; CCastleSiegeSync::AddTributeMoney

; 2891 : 	GCMoneySend(lpObj->m_Index, lpObj->Money);

  001ad	8b 86 f0 00 00
	00		 mov	 eax, DWORD PTR [esi+240]
  001b3	8b 0e		 mov	 ecx, DWORD PTR [esi]
  001b5	50		 push	 eax
  001b6	51		 push	 ecx
  001b7	e8 00 00 00 00	 call	 ?GCMoneySend@@YAXHK@Z	; GCMoneySend
  001bc	83 c4 08	 add	 esp, 8

; 2892 : 
; 2893 : 	if ( (rand()%100) < lpObj->ChaosSuccessRate )

  001bf	e8 00 00 00 00	 call	 _rand
  001c4	99		 cdq
  001c5	b9 64 00 00 00	 mov	 ecx, 100		; 00000064H
  001ca	f7 f9		 idiv	 ecx
  001cc	3b 96 84 0e 00
	00		 cmp	 edx, DWORD PTR [esi+3716]
  001d2	7d 73		 jge	 SHORT $LN2@LifeStoneC

; 2894 : 	{
; 2895 : 		ItemSerialCreateSend(lpObj->m_Index, -1, 0, 0, ITEMGET(13,11) , 1, 0, 0, 0, 0, -1, 0, 0);

  001d4	6a 00		 push	 0
  001d6	8b 16		 mov	 edx, DWORD PTR [esi]
  001d8	6a 00		 push	 0
  001da	6a ff		 push	 -1
  001dc	6a 00		 push	 0
  001de	6a 00		 push	 0
  001e0	6a 00		 push	 0
  001e2	6a 00		 push	 0
  001e4	6a 01		 push	 1
  001e6	68 0b 1a 00 00	 push	 6667			; 00001a0bH
  001eb	6a 00		 push	 0
  001ed	6a 00		 push	 0
  001ef	68 ff 00 00 00	 push	 255			; 000000ffH
  001f4	52		 push	 edx
  001f5	e8 00 00 00 00	 call	 ?ItemSerialCreateSend@@YAXHEEEHEEEEEHEE@Z ; ItemSerialCreateSend

; 2896 : 		::gObjInventoryCommit(lpObj->m_Index);

  001fa	8b 06		 mov	 eax, DWORD PTR [esi]
  001fc	50		 push	 eax
  001fd	e8 00 00 00 00	 call	 ?gObjInventoryCommit@@YAHH@Z ; gObjInventoryCommit

; 2897 : 
; 2898 : 		LogAddTD("[LifeStoneMix] [%s][%s] CBMix Success %d Money : %d-%d",
; 2899 : 			lpObj->AccountID, lpObj->Name, lpObj->ChaosSuccessRate, 
; 2900 : 			lpObj->Money, nChaosNeedMoney);

  00202	8b 8e f0 00 00
	00		 mov	 ecx, DWORD PTR [esi+240]
  00208	8b 96 84 0e 00
	00		 mov	 edx, DWORD PTR [esi+3716]
  0020e	57		 push	 edi
  0020f	51		 push	 ecx
  00210	52		 push	 edx
  00211	8d 46 77	 lea	 eax, DWORD PTR [esi+119]
  00214	50		 push	 eax
  00215	8d 4e 6c	 lea	 ecx, DWORD PTR [esi+108]
  00218	51		 push	 ecx
  00219	68 00 00 00 00	 push	 OFFSET ??_C@_0DH@GNDOFGHL@?$FLLifeStoneMix?$FN?5?$FL?$CFs?$FN?$FL?$CFs?$FN?5CBMix?5Su@
  0021e	ff 15 00 00 00
	00		 call	 DWORD PTR ?LogAddTD@@3P6AXPADZZA ; LogAddTD

; 2901 : 
; 2902 : #if(SYSTEM_ACHIEVEMENTS)
; 2903 : 		g_Achievements.SuccessChaosMix(lpObj->m_Index);

  00224	8b 16		 mov	 edx, DWORD PTR [esi]
  00226	83 c4 50	 add	 esp, 80			; 00000050H
  00229	52		 push	 edx
  0022a	b9 00 00 00 00	 mov	 ecx, OFFSET ?g_Achievements@@3VCAchievements@@A ; g_Achievements
  0022f	e8 00 00 00 00	 call	 ?SuccessChaosMix@CAchievements@@QAEXH@Z ; CAchievements::SuccessChaosMix
  00234	5f		 pop	 edi
  00235	5e		 pop	 esi
  00236	5b		 pop	 ebx

; 2920 : #endif
; 2921 : 	}
; 2922 : }

  00237	8b 4d fc	 mov	 ecx, DWORD PTR __$ArrayPad$[ebp]
  0023a	33 cd		 xor	 ecx, ebp
  0023c	e8 00 00 00 00	 call	 @__security_check_cookie@4
  00241	8b e5		 mov	 esp, ebp
  00243	5d		 pop	 ebp
  00244	c2 04 00	 ret	 4
$LN2@LifeStoneC:

; 2904 : #endif
; 2905 : 	}
; 2906 : 	else
; 2907 : 	{
; 2908 : 		this->ChaosBoxInit(lpObj);

  00247	56		 push	 esi
  00248	8b cb		 mov	 ecx, ebx
  0024a	e8 00 00 00 00	 call	 ?ChaosBoxInit@CMixSystem@@QAEHPAUOBJECTSTRUCT@@@Z ; CMixSystem::ChaosBoxInit

; 2909 : 		::GCUserChaosBoxSend(lpObj, 1);

  0024f	6a 01		 push	 1
  00251	56		 push	 esi
  00252	e8 00 00 00 00	 call	 ?GCUserChaosBoxSend@@YAXPAUOBJECTSTRUCT@@H@Z ; GCUserChaosBoxSend

; 2910 : 		DataSend(lpObj->m_Index, (LPBYTE)&pMsg, pMsg.h.size);

  00257	0f b6 45 ed	 movzx	 eax, BYTE PTR _pMsg$[ebp+1]
  0025b	8b 16		 mov	 edx, DWORD PTR [esi]
  0025d	50		 push	 eax
  0025e	8d 4d ec	 lea	 ecx, DWORD PTR _pMsg$[ebp]
  00261	51		 push	 ecx
  00262	52		 push	 edx
  00263	e8 00 00 00 00	 call	 ?DataSend@@YAHHPAEK@Z	; DataSend

; 2911 : 
; 2912 : 		LogAddTD("[LifeStoneMix] [%s][%s] CBMix Fail %d Money : %d-%d",
; 2913 : 			lpObj->AccountID, lpObj->Name, lpObj->ChaosSuccessRate, 
; 2914 : 			lpObj->Money, nChaosNeedMoney);

  00268	8b 86 f0 00 00
	00		 mov	 eax, DWORD PTR [esi+240]
  0026e	8b 8e 84 0e 00
	00		 mov	 ecx, DWORD PTR [esi+3716]
  00274	57		 push	 edi
  00275	50		 push	 eax
  00276	51		 push	 ecx
  00277	8d 56 77	 lea	 edx, DWORD PTR [esi+119]
  0027a	52		 push	 edx
  0027b	8d 46 6c	 lea	 eax, DWORD PTR [esi+108]
  0027e	50		 push	 eax
  0027f	68 00 00 00 00	 push	 OFFSET ??_C@_0DE@PMLDDIAP@?$FLLifeStoneMix?$FN?5?$FL?$CFs?$FN?$FL?$CFs?$FN?5CBMix?5Fa@
  00284	ff 15 00 00 00
	00		 call	 DWORD PTR ?LogAddTD@@3P6AXPADZZA ; LogAddTD

; 2915 : 
; 2916 : 		lpObj->ChaosLock = FALSE;
; 2917 : 
; 2918 : #if(SYSTEM_ACHIEVEMENTS)
; 2919 : 		g_Achievements.FailedChaosMix(lpObj->m_Index);

  0028a	8b 0e		 mov	 ecx, DWORD PTR [esi]
  0028c	83 c4 2c	 add	 esp, 44			; 0000002cH
  0028f	51		 push	 ecx
  00290	b9 00 00 00 00	 mov	 ecx, OFFSET ?g_Achievements@@3VCAchievements@@A ; g_Achievements
  00295	c7 86 88 0e 00
	00 00 00 00 00	 mov	 DWORD PTR [esi+3720], 0
  0029f	e8 00 00 00 00	 call	 ?FailedChaosMix@CAchievements@@QAEXH@Z ; CAchievements::FailedChaosMix

; 2920 : #endif
; 2921 : 	}
; 2922 : }

  002a4	8b 4d fc	 mov	 ecx, DWORD PTR __$ArrayPad$[ebp]
  002a7	5f		 pop	 edi
  002a8	5e		 pop	 esi
  002a9	33 cd		 xor	 ecx, ebp
  002ab	5b		 pop	 ebx
  002ac	e8 00 00 00 00	 call	 @__security_check_cookie@4
  002b1	8b e5		 mov	 esp, ebp
  002b3	5d		 pop	 ebp
  002b4	c2 04 00	 ret	 4
?LifeStoneChaosMix@CMixSystem@@QAEXPAUOBJECTSTRUCT@@@Z ENDP ; CMixSystem::LifeStoneChaosMix
_TEXT	ENDS
PUBLIC	??_C@_0DG@INONCDCO@?$FLCastleSpecialMix?$FN?5?$FL?$CFs?$FN?$FL?$CFs?$FN?5Item@ ; `string'
PUBLIC	??_C@_0FP@MMBGDNIO@?$FLCastleSpecialMix?$FN?5?$FL?$CFs?$FN?$FL?$CFs?$FN?5Item@ ; `string'
PUBLIC	??_C@_0DI@EGPAKGJE@?$FLCastleSpecialMix?$FN?5?$FL?$CFs?$FN?$FL?$CFs?$FN?5CBMi@ ; `string'
PUBLIC	??_C@_0DL@JMGPLGGO@?$FLCastleSpecialMix?$FN?5?$FL?$CFs?$FN?$FL?$CFs?$FN?5CBMi@ ; `string'
PUBLIC	??_C@_0DK@BAMJGCNM@?$FLCastleSpecialMix?$FN?5?$FL?$CFs?$FN?$FL?$CFs?$FN?5Item@ ; `string'
PUBLIC	??_C@_0DP@OGFNFCIN@?$FLCastleSpecialMix?$FN?5?$FL?$CFs?$FN?$FL?$CFs?$FN?5Item@ ; `string'
PUBLIC	??_C@_0EE@GIAICFLK@?$FLCastleSpecialMix?$FN?5?$FL?$CFs?$FN?$FL?$CFs?$FN?5Item@ ; `string'
PUBLIC	??_C@_0CM@BFLNDPMH@?$FLCastleSpecialMix?$FN?5?$FL?$CFs?$FN?$FL?$CFs?$FN?5Chao@ ; `string'
PUBLIC	??_C@_0BD@DBGJDJHA@Castle?5Special?5Mix?$AA@	; `string'
PUBLIC	??_C@_0ED@INAPNAEI@?$FLCastleSpecialMix?$FN?5?$FL?$CFs?$FN?$FL?$CFs?$FN?5Item@ ; `string'
PUBLIC	??_C@_0EJ@JJHJEOOJ@?$FLCastleSpecialMix?$FN?5?$FL?$CFs?$FN?$FL?$CFs?$FN?5Item@ ; `string'
PUBLIC	__$ArrayPad$
PUBLIC	?CastleSpecialItemMix@CMixSystem@@QAEXPAUOBJECTSTRUCT@@@Z ; CMixSystem::CastleSpecialItemMix
EXTRN	?GetMinLevel@CItemBagZt@@QAEEH@Z:PROC		; CItemBagZt::GetMinLevel
EXTRN	?PickItem@CItemBagZt@@QAEHAAVCItem@@AAH@Z:PROC	; CItemBagZt::PickItem
EXTRN	?CastleItemMixItemBag@@3PAVCItemBagZt@@A:DWORD	; CastleItemMixItemBag
EXTRN	?g_iCastleItemMixLimit@@3HA:DWORD		; g_iCastleItemMixLimit
EXTRN	?CheckCastleOwnerMember@CCastleSiegeSync@@QAEHH@Z:PROC ; CCastleSiegeSync::CheckCastleOwnerMember
;	COMDAT ??_C@_0DG@INONCDCO@?$FLCastleSpecialMix?$FN?5?$FL?$CFs?$FN?$FL?$CFs?$FN?5Item@
CONST	SEGMENT
??_C@_0DG@INONCDCO@?$FLCastleSpecialMix?$FN?5?$FL?$CFs?$FN?$FL?$CFs?$FN?5Item@ DB '['
	DB	'CastleSpecialMix] [%s][%s] Item Mix Failed - No Auth', 00H ; `string'
CONST	ENDS
;	COMDAT ??_C@_0FP@MMBGDNIO@?$FLCastleSpecialMix?$FN?5?$FL?$CFs?$FN?$FL?$CFs?$FN?5Item@
CONST	SEGMENT
??_C@_0FP@MMBGDNIO@?$FLCastleSpecialMix?$FN?5?$FL?$CFs?$FN?$FL?$CFs?$FN?5Item@ DB '['
	DB	'CastleSpecialMix] [%s][%s] Item Mix Failed - Item Error (DG:%'
	DB	'd, BGx10:%d, SGx10:%d, Other:%d)', 00H	; `string'
CONST	ENDS
;	COMDAT ??_C@_0DI@EGPAKGJE@?$FLCastleSpecialMix?$FN?5?$FL?$CFs?$FN?$FL?$CFs?$FN?5CBMi@
CONST	SEGMENT
??_C@_0DI@EGPAKGJE@?$FLCastleSpecialMix?$FN?5?$FL?$CFs?$FN?$FL?$CFs?$FN?5CBMi@ DB '['
	DB	'CastleSpecialMix] [%s][%s] CBMix Fail %d Money : %d-%d', 00H ; `string'
CONST	ENDS
;	COMDAT ??_C@_0DL@JMGPLGGO@?$FLCastleSpecialMix?$FN?5?$FL?$CFs?$FN?$FL?$CFs?$FN?5CBMi@
CONST	SEGMENT
??_C@_0DL@JMGPLGGO@?$FLCastleSpecialMix?$FN?5?$FL?$CFs?$FN?$FL?$CFs?$FN?5CBMi@ DB '['
	DB	'CastleSpecialMix] [%s][%s] CBMix Success %d Money : %d-%d', 00H ; `string'
CONST	ENDS
;	COMDAT ??_C@_0DK@BAMJGCNM@?$FLCastleSpecialMix?$FN?5?$FL?$CFs?$FN?$FL?$CFs?$FN?5Item@
CONST	SEGMENT
??_C@_0DK@BAMJGCNM@?$FLCastleSpecialMix?$FN?5?$FL?$CFs?$FN?$FL?$CFs?$FN?5Item@ DB '['
	DB	'CastleSpecialMix] [%s][%s] Item Pick Failed - Data Error', 00H ; `string'
CONST	ENDS
;	COMDAT ??_C@_0DP@OGFNFCIN@?$FLCastleSpecialMix?$FN?5?$FL?$CFs?$FN?$FL?$CFs?$FN?5Item@
CONST	SEGMENT
??_C@_0DP@OGFNFCIN@?$FLCastleSpecialMix?$FN?5?$FL?$CFs?$FN?$FL?$CFs?$FN?5Item@ DB '['
	DB	'CastleSpecialMix] [%s][%s] Item Pick Failed - Loop Count Over'
	DB	00H						; `string'
CONST	ENDS
;	COMDAT ??_C@_0EE@GIAICFLK@?$FLCastleSpecialMix?$FN?5?$FL?$CFs?$FN?$FL?$CFs?$FN?5Item@
CONST	SEGMENT
??_C@_0EE@GIAICFLK@?$FLCastleSpecialMix?$FN?5?$FL?$CFs?$FN?$FL?$CFs?$FN?5Item@ DB '['
	DB	'CastleSpecialMix] [%s][%s] Item Mix Failed - Lack of Money (%'
	DB	'd/%d)', 00H					; `string'
CONST	ENDS
;	COMDAT ??_C@_0CM@BFLNDPMH@?$FLCastleSpecialMix?$FN?5?$FL?$CFs?$FN?$FL?$CFs?$FN?5Chao@
CONST	SEGMENT
??_C@_0CM@BFLNDPMH@?$FLCastleSpecialMix?$FN?5?$FL?$CFs?$FN?$FL?$CFs?$FN?5Chao@ DB '['
	DB	'CastleSpecialMix] [%s][%s] Chaos Mix Start', 00H ; `string'
CONST	ENDS
;	COMDAT ??_C@_0BD@DBGJDJHA@Castle?5Special?5Mix?$AA@
CONST	SEGMENT
??_C@_0BD@DBGJDJHA@Castle?5Special?5Mix?$AA@ DB 'Castle Special Mix', 00H ; `string'
CONST	ENDS
;	COMDAT ??_C@_0ED@INAPNAEI@?$FLCastleSpecialMix?$FN?5?$FL?$CFs?$FN?$FL?$CFs?$FN?5Item@
CONST	SEGMENT
??_C@_0ED@INAPNAEI@?$FLCastleSpecialMix?$FN?5?$FL?$CFs?$FN?$FL?$CFs?$FN?5Item@ DB '['
	DB	'CastleSpecialMix] [%s][%s] Item Mix Failed - Mix Count Limit '
	DB	'Over', 00H					; `string'
CONST	ENDS
;	COMDAT ??_C@_0EJ@JJHJEOOJ@?$FLCastleSpecialMix?$FN?5?$FL?$CFs?$FN?$FL?$CFs?$FN?5Item@
CONST	SEGMENT
??_C@_0EJ@JJHJEOOJ@?$FLCastleSpecialMix?$FN?5?$FL?$CFs?$FN?$FL?$CFs?$FN?5Item@ DB '['
	DB	'CastleSpecialMix] [%s][%s] Item Mix Failed - No Auth( Not Gui'
	DB	'ldMaster )', 00H				; `string'
; Function compile flags: /Ogtp
CONST	ENDS
;	COMDAT ?CastleSpecialItemMix@CMixSystem@@QAEXPAUOBJECTSTRUCT@@@Z
_TEXT	SEGMENT
_nItemIndex$ = -252					; size = 4
_iDefendGemCount$ = -248				; size = 4
tv537 = -244						; size = 4
tv535 = -244						; size = 4
_this$ = -244						; size = 4
_iInvalidItemCount$ = -240				; size = 4
tv540 = -238						; size = 2
tv550 = -236						; size = 4
_iPickLoopCount$ = -236					; size = 4
_iBlessGemMixCount$ = -236				; size = 4
_objTempItem$ = -232					; size = 212
_pMsg$ = -20						; size = 16
__$ArrayPad$ = -4					; size = 4
_lpObj$ = 8						; size = 4
?CastleSpecialItemMix@CMixSystem@@QAEXPAUOBJECTSTRUCT@@@Z PROC ; CMixSystem::CastleSpecialItemMix, COMDAT
; _this$ = ecx

; 2927 : {

  00000	55		 push	 ebp
  00001	8b ec		 mov	 ebp, esp
  00003	81 ec fc 00 00
	00		 sub	 esp, 252		; 000000fcH
  00009	a1 00 00 00 00	 mov	 eax, DWORD PTR ___security_cookie
  0000e	33 c5		 xor	 eax, ebp
  00010	89 45 fc	 mov	 DWORD PTR __$ArrayPad$[ebp], eax
  00013	53		 push	 ebx
  00014	56		 push	 esi
  00015	8b 75 08	 mov	 esi, DWORD PTR _lpObj$[ebp]
  00018	57		 push	 edi

; 2928 : 	lpObj->ChaosLock = TRUE;
; 2929 : 
; 2930 : 	int iDefendGemCount = 0;
; 2931 : 	int iBlessGemMixCount = 0;
; 2932 : 	int iSoulGemMixCount = 0;
; 2933 : 	int iInvalidItemCount = 0;
; 2934 : 	int iChaosMoney = 0;
; 2935 : 
; 2936 : 	PMSG_CHAOSMIXRESULT pMsg;
; 2937 : 
; 2938 : 	PHeadSetB((LPBYTE)&pMsg.h, 0x86, sizeof(PMSG_CHAOSMIXRESULT));

  00019	6a 10		 push	 16			; 00000010H
  0001b	33 ff		 xor	 edi, edi
  0001d	8d 45 ec	 lea	 eax, DWORD PTR _pMsg$[ebp]
  00020	68 86 00 00 00	 push	 134			; 00000086H
  00025	50		 push	 eax
  00026	89 8d 0c ff ff
	ff		 mov	 DWORD PTR _this$[ebp], ecx
  0002c	c7 86 88 0e 00
	00 01 00 00 00	 mov	 DWORD PTR [esi+3720], 1
  00036	89 bd 08 ff ff
	ff		 mov	 DWORD PTR _iDefendGemCount$[ebp], edi
  0003c	89 bd 14 ff ff
	ff		 mov	 DWORD PTR _iBlessGemMixCount$[ebp], edi
  00042	33 db		 xor	 ebx, ebx
  00044	89 bd 10 ff ff
	ff		 mov	 DWORD PTR _iInvalidItemCount$[ebp], edi
  0004a	e8 00 00 00 00	 call	 ?PHeadSetB@@YAXPAEEH@Z	; PHeadSetB

; 2939 : 	pMsg.Result = CB_ERROR;
; 2940 : 
; 2941 : 	if( g_CastleSiegeSync.CheckCastleOwnerMember(lpObj->m_Index)  )

  0004f	8b 0e		 mov	 ecx, DWORD PTR [esi]
  00051	83 c4 0c	 add	 esp, 12			; 0000000cH
  00054	51		 push	 ecx
  00055	b9 00 00 00 00	 mov	 ecx, OFFSET ?g_CastleSiegeSync@@3VCCastleSiegeSync@@A ; g_CastleSiegeSync
  0005a	88 5d ef	 mov	 BYTE PTR _pMsg$[ebp+3], bl
  0005d	e8 00 00 00 00	 call	 ?CheckCastleOwnerMember@CCastleSiegeSync@@QAEHH@Z ; CCastleSiegeSync::CheckCastleOwnerMember
  00062	85 c0		 test	 eax, eax
  00064	0f 84 9a 04 00
	00		 je	 $LN31@CastleSpec

; 2942 : 	{
; 2943 : 		if( lpObj->GuildStatus != GUILD_MASTER )

  0006a	81 be 48 04 00
	00 80 00 00 00	 cmp	 DWORD PTR [esi+1096], 128 ; 00000080H
  00074	74 12		 je	 SHORT $LN30@CastleSpec

; 2944 : 		{
; 2945 : 			LogAddTD("[CastleSpecialMix] [%s][%s] Item Mix Failed - No Auth( Not GuildMaster )",
; 2946 : 				lpObj->AccountID, lpObj->Name);

  00076	8d 56 77	 lea	 edx, DWORD PTR [esi+119]
  00079	52		 push	 edx
  0007a	8d 46 6c	 lea	 eax, DWORD PTR [esi+108]
  0007d	50		 push	 eax
  0007e	68 00 00 00 00	 push	 OFFSET ??_C@_0EJ@JJHJEOOJ@?$FLCastleSpecialMix?$FN?5?$FL?$CFs?$FN?$FL?$CFs?$FN?5Item@

; 2947 : 
; 2948 : 			DataSend(lpObj->m_Index, (LPBYTE)&pMsg, pMsg.h.size);
; 2949 : 
; 2950 : 			lpObj->ChaosLock = FALSE;
; 2951 : 
; 2952 : 			return;

  00083	e9 89 04 00 00	 jmp	 $LN45@CastleSpec
$LN30@CastleSpec:

; 2963 : 
; 2964 : 		return;	
; 2965 : 	}
; 2966 : 
; 2967 : 	if( g_iCastleItemMixLimit <= 0 )

  00088	39 3d 00 00 00
	00		 cmp	 DWORD PTR ?g_iCastleItemMixLimit@@3HA, edi ; g_iCastleItemMixLimit
  0008e	7f 30		 jg	 SHORT $LL28@CastleSpec

; 2968 : 	{
; 2969 : 		LogAddTD("[CastleSpecialMix] [%s][%s] Item Mix Failed - Mix Count Limit Over",
; 2970 : 			lpObj->AccountID, lpObj->Name);

  00090	8d 4e 77	 lea	 ecx, DWORD PTR [esi+119]
  00093	51		 push	 ecx
  00094	8d 56 6c	 lea	 edx, DWORD PTR [esi+108]
  00097	52		 push	 edx
  00098	68 00 00 00 00	 push	 OFFSET ??_C@_0ED@INAPNAEI@?$FLCastleSpecialMix?$FN?5?$FL?$CFs?$FN?$FL?$CFs?$FN?5Item@
  0009d	ff 15 00 00 00
	00		 call	 DWORD PTR ?LogAddTD@@3P6AXPADZZA ; LogAddTD

; 2971 : 
; 2972 : 		DataSend(lpObj->m_Index, (LPBYTE)&pMsg, pMsg.h.size);

  000a3	0f b6 45 ed	 movzx	 eax, BYTE PTR _pMsg$[ebp+1]
  000a7	8b 16		 mov	 edx, DWORD PTR [esi]
  000a9	50		 push	 eax
  000aa	8d 4d ec	 lea	 ecx, DWORD PTR _pMsg$[ebp]
  000ad	51		 push	 ecx
  000ae	52		 push	 edx

; 2973 : 
; 2974 : 		lpObj->ChaosLock = FALSE;
; 2975 : 
; 2976 : 		return;		

  000af	e9 6f 04 00 00	 jmp	 $LN46@CastleSpec
  000b4	eb 0a 8d a4 24
	00 00 00 00 8d
	49 00		 npad	 12
$LL28@CastleSpec:

; 2980 : 	{
; 2981 : 		if ( lpObj->pChaosBox[n].IsItem() == TRUE )

  000c0	8b 8e 78 0e 00
	00		 mov	 ecx, DWORD PTR [esi+3704]
  000c6	03 cf		 add	 ecx, edi
  000c8	e8 00 00 00 00	 call	 ?IsItem@CItem@@QAEHXZ	; CItem::IsItem
  000cd	83 f8 01	 cmp	 eax, 1
  000d0	75 59		 jne	 SHORT $LN26@CastleSpec

; 2982 : 		{
; 2983 : 			if ( lpObj->pChaosBox[n].m_Type == ITEMGET(12,30) )

  000d2	8b 86 78 0e 00
	00		 mov	 eax, DWORD PTR [esi+3704]
  000d8	8d 0c 07	 lea	 ecx, DWORD PTR [edi+eax]
  000db	0f b7 41 06	 movzx	 eax, WORD PTR [ecx+6]
  000df	ba 1e 18 00 00	 mov	 edx, 6174		; 0000181eH
  000e4	66 3b c2	 cmp	 ax, dx
  000e7	75 16		 jne	 SHORT $LN23@CastleSpec

; 2984 : 			{
; 2985 : 				iBlessGemMixCount += lpObj->pChaosBox[n].m_Level + 1;

  000e9	0f bf 41 08	 movsx	 eax, WORD PTR [ecx+8]
  000ed	8b 8d 14 ff ff
	ff		 mov	 ecx, DWORD PTR _iBlessGemMixCount$[ebp]
  000f3	8d 54 01 01	 lea	 edx, DWORD PTR [ecx+eax+1]
  000f7	89 95 14 ff ff
	ff		 mov	 DWORD PTR _iBlessGemMixCount$[ebp], edx
  000fd	eb 2c		 jmp	 SHORT $LN26@CastleSpec
$LN23@CastleSpec:

; 2986 : 			}
; 2987 : 			else if( lpObj->pChaosBox[n].m_Type == ITEMGET(12,31) )

  000ff	ba 1f 18 00 00	 mov	 edx, 6175		; 0000181fH
  00104	66 3b c2	 cmp	 ax, dx
  00107	75 0a		 jne	 SHORT $LN21@CastleSpec

; 2988 : 			{
; 2989 : 				iSoulGemMixCount += lpObj->pChaosBox[n].m_Level + 1;

  00109	0f bf 41 08	 movsx	 eax, WORD PTR [ecx+8]
  0010d	8d 5c 03 01	 lea	 ebx, DWORD PTR [ebx+eax+1]
  00111	eb 18		 jmp	 SHORT $LN26@CastleSpec
$LN21@CastleSpec:

; 2990 : 			}
; 2991 : 			else if( lpObj->pChaosBox[n].m_Type == ITEMGET(14,31) )

  00113	b9 1f 1c 00 00	 mov	 ecx, 7199		; 00001c1fH
  00118	66 3b c1	 cmp	 ax, cx
  0011b	75 08		 jne	 SHORT $LN19@CastleSpec

; 2992 : 			{
; 2993 : 				iDefendGemCount++;

  0011d	ff 85 08 ff ff
	ff		 inc	 DWORD PTR _iDefendGemCount$[ebp]

; 2994 : 			}
; 2995 : 			else

  00123	eb 06		 jmp	 SHORT $LN26@CastleSpec
$LN19@CastleSpec:

; 2996 : 			{
; 2997 : 				iInvalidItemCount++;

  00125	ff 85 10 ff ff
	ff		 inc	 DWORD PTR _iInvalidItemCount$[ebp]
$LN26@CastleSpec:

; 2977 : 	}
; 2978 : 
; 2979 : 	for( int n = 0; n < CHAOS_BOX_SIZE; n++ )

  0012b	81 c7 d4 00 00
	00		 add	 edi, 212		; 000000d4H
  00131	81 ff 80 1a 00
	00		 cmp	 edi, 6784		; 00001a80H
  00137	7c 87		 jl	 SHORT $LL28@CastleSpec

; 2998 : 			}
; 2999 : 		}
; 3000 : 	}
; 3001 : 
; 3002 : 	if( iBlessGemMixCount != 3 || iSoulGemMixCount != 3 || iDefendGemCount != 30 || iInvalidItemCount > 0 )

  00139	8b 85 14 ff ff
	ff		 mov	 eax, DWORD PTR _iBlessGemMixCount$[ebp]
  0013f	83 f8 03	 cmp	 eax, 3
  00142	0f 85 68 03 00
	00		 jne	 $LN43@CastleSpec
  00148	3b d8		 cmp	 ebx, eax
  0014a	0f 85 60 03 00
	00		 jne	 $LN43@CastleSpec
  00150	83 bd 08 ff ff
	ff 1e		 cmp	 DWORD PTR _iDefendGemCount$[ebp], 30 ; 0000001eH
  00157	0f 85 53 03 00
	00		 jne	 $LN43@CastleSpec
  0015d	83 bd 10 ff ff
	ff 00		 cmp	 DWORD PTR _iInvalidItemCount$[ebp], 0
  00164	0f 8f 46 03 00
	00		 jg	 $LN43@CastleSpec

; 3010 : 
; 3011 : 		return;	
; 3012 : 	}
; 3013 : 
; 3014 : 	LogChaosItem(lpObj, "Castle Special Mix");

  0016a	8b 8d 0c ff ff
	ff		 mov	 ecx, DWORD PTR _this$[ebp]
  00170	68 00 00 00 00	 push	 OFFSET ??_C@_0BD@DBGJDJHA@Castle?5Special?5Mix?$AA@
  00175	56		 push	 esi
  00176	e8 00 00 00 00	 call	 ?LogChaosItem@CMixSystem@@QAEXPAUOBJECTSTRUCT@@PAD@Z ; CMixSystem::LogChaosItem

; 3015 : 	LogAddTD("[CastleSpecialMix] [%s][%s] Chaos Mix Start", lpObj->AccountID, lpObj->Name);

  0017b	8d 5e 77	 lea	 ebx, DWORD PTR [esi+119]
  0017e	8d 46 6c	 lea	 eax, DWORD PTR [esi+108]
  00181	53		 push	 ebx
  00182	50		 push	 eax
  00183	68 00 00 00 00	 push	 OFFSET ??_C@_0CM@BFLNDPMH@?$FLCastleSpecialMix?$FN?5?$FL?$CFs?$FN?$FL?$CFs?$FN?5Chao@
  00188	ff 15 00 00 00
	00		 call	 DWORD PTR ?LogAddTD@@3P6AXPADZZA ; LogAddTD

; 3016 : 
; 3017 : 	lpObj->ChaosSuccessRate = 100;
; 3018 : 
; 3019 : 	int nChaosNeedMoney = 1000000000;
; 3020 : 
; 3021 : 	nChaosNeedMoney += lpObj->m_AddMixMoney;

  0018e	8b be 20 28 00
	00		 mov	 edi, DWORD PTR [esi+10272]

; 3022 : 
; 3023 : 	if( lpObj->Money < nChaosNeedMoney )

  00194	8b 86 f0 00 00
	00		 mov	 eax, DWORD PTR [esi+240]
  0019a	81 c7 00 ca 9a
	3b		 add	 edi, 1000000000		; 3b9aca00H
  001a0	83 c4 0c	 add	 esp, 12			; 0000000cH
  001a3	c7 86 84 0e 00
	00 64 00 00 00	 mov	 DWORD PTR [esi+3716], 100 ; 00000064H
  001ad	3b c7		 cmp	 eax, edi
  001af	7d 47		 jge	 SHORT $LN15@CastleSpec

; 3024 : 	{
; 3025 : 		LogAddTD("[CastleSpecialMix] [%s][%s] Item Mix Failed - Lack of Money (%d/%d)",
; 3026 : 			lpObj->AccountID, lpObj->Name, lpObj->Money, nChaosNeedMoney);

  001b1	57		 push	 edi
  001b2	50		 push	 eax
  001b3	53		 push	 ebx
  001b4	8d 46 6c	 lea	 eax, DWORD PTR [esi+108]
  001b7	50		 push	 eax
  001b8	68 00 00 00 00	 push	 OFFSET ??_C@_0EE@GIAICFLK@?$FLCastleSpecialMix?$FN?5?$FL?$CFs?$FN?$FL?$CFs?$FN?5Item@
  001bd	ff 15 00 00 00
	00		 call	 DWORD PTR ?LogAddTD@@3P6AXPADZZA ; LogAddTD

; 3027 : 
; 3028 : 		pMsg.Result = CB_NOT_ENOUGH_ZEN;
; 3029 : 		DataSend(lpObj->m_Index, (LPBYTE)&pMsg, pMsg.h.size);

  001c3	0f b6 55 ed	 movzx	 edx, BYTE PTR _pMsg$[ebp+1]
  001c7	8b 0e		 mov	 ecx, DWORD PTR [esi]
  001c9	52		 push	 edx
  001ca	8d 45 ec	 lea	 eax, DWORD PTR _pMsg$[ebp]
  001cd	50		 push	 eax
  001ce	51		 push	 ecx
  001cf	c6 45 ef 02	 mov	 BYTE PTR _pMsg$[ebp+3], 2
  001d3	e8 00 00 00 00	 call	 ?DataSend@@YAHHPAEK@Z	; DataSend
  001d8	83 c4 20	 add	 esp, 32			; 00000020H
  001db	5f		 pop	 edi

; 3030 : 
; 3031 : 		lpObj->ChaosLock = FALSE;

  001dc	c7 86 88 0e 00
	00 00 00 00 00	 mov	 DWORD PTR [esi+3720], 0
  001e6	5e		 pop	 esi
  001e7	5b		 pop	 ebx

; 3142 : #endif
; 3143 : 	}
; 3144 : }

  001e8	8b 4d fc	 mov	 ecx, DWORD PTR __$ArrayPad$[ebp]
  001eb	33 cd		 xor	 ecx, ebp
  001ed	e8 00 00 00 00	 call	 @__security_check_cookie@4
  001f2	8b e5		 mov	 esp, ebp
  001f4	5d		 pop	 ebp
  001f5	c2 04 00	 ret	 4
$LN15@CastleSpec:

; 3032 : 
; 3033 : 		return;	
; 3034 : 	}
; 3035 : 
; 3036 : 	CItem objTempItem;

  001f8	8d 8d 18 ff ff
	ff		 lea	 ecx, DWORD PTR _objTempItem$[ebp]
  001fe	e8 00 00 00 00	 call	 ??0CItem@@QAE@XZ	; CItem::CItem

; 3037 : 
; 3038 : 	int iPickLoopCount = 500; //HermeX Fix

  00203	c7 85 14 ff ff
	ff f4 01 00 00	 mov	 DWORD PTR _iPickLoopCount$[ebp], 500 ; 000001f4H
  0020d	8d 49 00	 npad	 3
$LL14@CastleSpec:

; 3043 : 	{
; 3044 : 		if( CastleItemMixItemBag->PickItem(objTempItem, nItemIndex) == FALSE )

  00210	8b 0d 00 00 00
	00		 mov	 ecx, DWORD PTR ?CastleItemMixItemBag@@3PAVCItemBagZt@@A ; CastleItemMixItemBag
  00216	ff 8d 14 ff ff
	ff		 dec	 DWORD PTR _iPickLoopCount$[ebp]
  0021c	8d 95 04 ff ff
	ff		 lea	 edx, DWORD PTR _nItemIndex$[ebp]
  00222	52		 push	 edx
  00223	8d 85 18 ff ff
	ff		 lea	 eax, DWORD PTR _objTempItem$[ebp]
  00229	50		 push	 eax
  0022a	e8 00 00 00 00	 call	 ?PickItem@CItemBagZt@@QAEHAAVCItem@@AAH@Z ; CItemBagZt::PickItem
  0022f	85 c0		 test	 eax, eax
  00231	74 3e		 je	 SHORT $LN37@CastleSpec

; 3054 : 		}
; 3055 : 		
; 3056 : 		int iRand = CastleItemMixItemBag->GetMinLevel(nItemIndex);

  00233	8b 8d 04 ff ff
	ff		 mov	 ecx, DWORD PTR _nItemIndex$[ebp]
  00239	51		 push	 ecx
  0023a	8b 0d 00 00 00
	00		 mov	 ecx, DWORD PTR ?CastleItemMixItemBag@@3PAVCItemBagZt@@A ; CastleItemMixItemBag
  00240	e8 00 00 00 00	 call	 ?GetMinLevel@CItemBagZt@@QAEEH@Z ; CItemBagZt::GetMinLevel
  00245	0f b6 d8	 movzx	 ebx, al

; 3057 : 		
; 3058 : 		if( iRand < rand() % 100 )

  00248	e8 00 00 00 00	 call	 _rand
  0024d	99		 cdq
  0024e	b9 64 00 00 00	 mov	 ecx, 100		; 00000064H
  00253	f7 f9		 idiv	 ecx
  00255	3b da		 cmp	 ebx, edx
  00257	7c 4b		 jl	 SHORT $LN10@CastleSpec

; 3039 : 	bool bItemPickSuccess = false;
; 3040 : 	int nItemIndex;
; 3041 : 
; 3042 : 	while( iPickLoopCount-- )

  00259	83 bd 14 ff ff
	ff 00		 cmp	 DWORD PTR _iPickLoopCount$[ebp], 0
  00260	75 ae		 jne	 SHORT $LL14@CastleSpec

; 3059 : 		{
; 3060 : 			bItemPickSuccess = true;
; 3061 : 
; 3062 : 			break;
; 3063 : 		}
; 3064 : 	}
; 3065 : 
; 3066 : 	if( bItemPickSuccess == false )
; 3067 : 	{
; 3068 : 		LogAddTD("[CastleSpecialMix] [%s][%s] Item Pick Failed - Loop Count Over",
; 3069 : 			lpObj->AccountID, lpObj->Name);

  00262	8d 46 77	 lea	 eax, DWORD PTR [esi+119]
  00265	50		 push	 eax
  00266	8d 46 6c	 lea	 eax, DWORD PTR [esi+108]
  00269	50		 push	 eax
  0026a	68 00 00 00 00	 push	 OFFSET ??_C@_0DP@OGFNFCIN@?$FLCastleSpecialMix?$FN?5?$FL?$CFs?$FN?$FL?$CFs?$FN?5Item@

; 3070 : 
; 3071 : 		DataSend(lpObj->m_Index, (LPBYTE)&pMsg, pMsg.h.size);
; 3072 : 
; 3073 : 		lpObj->ChaosLock = FALSE;
; 3074 : 
; 3075 : 		return;

  0026f	eb 0d		 jmp	 SHORT $LN48@CastleSpec
$LN37@CastleSpec:

; 3045 : 		{
; 3046 : 			LogAddTD("[CastleSpecialMix] [%s][%s] Item Pick Failed - Data Error",
; 3047 : 				lpObj->AccountID, lpObj->Name);

  00271	8d 46 77	 lea	 eax, DWORD PTR [esi+119]
  00274	50		 push	 eax
  00275	8d 46 6c	 lea	 eax, DWORD PTR [esi+108]
  00278	50		 push	 eax
  00279	68 00 00 00 00	 push	 OFFSET ??_C@_0DK@BAMJGCNM@?$FLCastleSpecialMix?$FN?5?$FL?$CFs?$FN?$FL?$CFs?$FN?5Item@
$LN48@CastleSpec:
  0027e	ff 15 00 00 00
	00		 call	 DWORD PTR ?LogAddTD@@3P6AXPADZZA ; LogAddTD

; 3048 : 
; 3049 : 			DataSend(lpObj->m_Index, (LPBYTE)&pMsg, pMsg.h.size);

  00284	0f b6 55 ed	 movzx	 edx, BYTE PTR _pMsg$[ebp+1]
  00288	8b 0e		 mov	 ecx, DWORD PTR [esi]
  0028a	52		 push	 edx
  0028b	8d 45 ec	 lea	 eax, DWORD PTR _pMsg$[ebp]
  0028e	50		 push	 eax
  0028f	51		 push	 ecx
  00290	e8 00 00 00 00	 call	 ?DataSend@@YAHHPAEK@Z	; DataSend

; 3050 : 
; 3051 : 			lpObj->ChaosLock = FALSE;

  00295	c7 86 88 0e 00
	00 00 00 00 00	 mov	 DWORD PTR [esi+3720], 0

; 3052 : 
; 3053 : 			return;

  0029f	e9 8a 02 00 00	 jmp	 $LN47@CastleSpec
$LN10@CastleSpec:

; 3076 : 	}
; 3077 : 
; 3078 : 	objTempItem.m_Level = 0;

  002a4	33 d2		 xor	 edx, edx
  002a6	66 89 95 20 ff
	ff ff		 mov	 WORD PTR _objTempItem$[ebp+8], dx

; 3079 : 
; 3080 : 	if( objTempItem.m_NewOption )

  002ad	38 55 af	 cmp	 BYTE PTR _objTempItem$[ebp+151], dl
  002b0	74 5a		 je	 SHORT $LN9@CastleSpec

; 3081 : 	{
; 3082 : 		objTempItem.m_NewOption = 0;

  002b2	88 55 af	 mov	 BYTE PTR _objTempItem$[ebp+151], dl

; 3083 : 
; 3084 : 		int iOptionLoop = (rand()%3) + 2;

  002b5	e8 00 00 00 00	 call	 _rand
  002ba	99		 cdq
  002bb	b9 03 00 00 00	 mov	 ecx, 3
  002c0	f7 f9		 idiv	 ecx
  002c2	8b da		 mov	 ebx, edx
  002c4	83 c3 02	 add	 ebx, 2

; 3085 : 
; 3086 : 		while( iOptionLoop )

  002c7	74 27		 je	 SHORT $LN7@CastleSpec
  002c9	8d a4 24 00 00
	00 00		 npad	 7
$LL8@CastleSpec:

; 3087 : 		{
; 3088 : 			int iRandOp = rand()%6;

  002d0	e8 00 00 00 00	 call	 _rand
  002d5	99		 cdq
  002d6	b9 06 00 00 00	 mov	 ecx, 6
  002db	f7 f9		 idiv	 ecx

; 3089 : 
; 3090 : 			BYTE btOption = 1 << iRandOp; 

  002dd	b0 01		 mov	 al, 1
  002df	8b ca		 mov	 ecx, edx
  002e1	d2 e0		 shl	 al, cl

; 3091 : 
; 3092 : 			if( (objTempItem.m_NewOption & btOption) == 0 )

  002e3	84 45 af	 test	 BYTE PTR _objTempItem$[ebp+151], al
  002e6	75 04		 jne	 SHORT $LN6@CastleSpec

; 3093 : 			{
; 3094 : 				objTempItem.m_NewOption |= btOption;

  002e8	08 45 af	 or	 BYTE PTR _objTempItem$[ebp+151], al

; 3095 : 				iOptionLoop--; //HermeX Fix

  002eb	4b		 dec	 ebx
$LN6@CastleSpec:

; 3085 : 
; 3086 : 		while( iOptionLoop )

  002ec	85 db		 test	 ebx, ebx
  002ee	75 e0		 jne	 SHORT $LL8@CastleSpec
$LN7@CastleSpec:

; 3096 : 			}
; 3097 : 					
; 3098 : 		}
; 3099 : 		objTempItem.m_Option1 = 1;

  002f0	c6 45 ac 01	 mov	 BYTE PTR _objTempItem$[ebp+148], 1

; 3100 : 
; 3101 : 		if( (rand()%100) < 20 )

  002f4	e8 00 00 00 00	 call	 _rand
  002f9	99		 cdq
  002fa	b9 64 00 00 00	 mov	 ecx, 100		; 00000064H
  002ff	f7 f9		 idiv	 ecx
  00301	83 fa 14	 cmp	 edx, 20			; 00000014H
  00304	0f 9c c2	 setl	 dl
  00307	88 55 ad	 mov	 BYTE PTR _objTempItem$[ebp+149], dl

; 3102 : 		{
; 3103 : 			objTempItem.m_Option2 = 1;
; 3104 : 		}
; 3105 : 		else
; 3106 : 		{
; 3107 : 			objTempItem.m_Option2 = 0;
; 3108 : 		}
; 3109 : 	}
; 3110 : 	else

  0030a	eb 04		 jmp	 SHORT $LN3@CastleSpec
$LN9@CastleSpec:

; 3111 : 	{
; 3112 : 		objTempItem.m_Option2 = 1;

  0030c	c6 45 ad 01	 mov	 BYTE PTR _objTempItem$[ebp+149], 1
$LN3@CastleSpec:

; 3113 : 	}
; 3114 : 
; 3115 : 	objTempItem.m_Durability = ItemGetDurability(objTempItem.m_Type, objTempItem.m_Level, objTempItem.m_NewOption, 0);

  00310	0f b6 45 af	 movzx	 eax, BYTE PTR _objTempItem$[ebp+151]
  00314	0f bf 8d 20 ff
	ff ff		 movsx	 ecx, WORD PTR _objTempItem$[ebp+8]
  0031b	0f bf 95 1e ff
	ff ff		 movsx	 edx, WORD PTR _objTempItem$[ebp+6]
  00322	6a 00		 push	 0
  00324	50		 push	 eax
  00325	51		 push	 ecx
  00326	52		 push	 edx
  00327	e8 00 00 00 00	 call	 ?ItemGetDurability@@YAHHHHH@Z ; ItemGetDurability

; 3116 : 
; 3117 : 	lpObj->ChaosSuccessRate += lpObj->m_AddMixSuccessRate;
; 3118 : 
; 3119 : 	lpObj->Money -= nChaosNeedMoney;

  0032c	29 be f0 00 00
	00		 sub	 DWORD PTR [esi+240], edi

; 3120 : 
; 3121 : 	GCMoneySend(lpObj->m_Index, lpObj->Money);

  00332	8b 0e		 mov	 ecx, DWORD PTR [esi]
  00334	89 85 14 ff ff
	ff		 mov	 DWORD PTR tv550[ebp], eax
  0033a	8b 86 24 28 00
	00		 mov	 eax, DWORD PTR [esi+10276]
  00340	01 86 84 0e 00
	00		 add	 DWORD PTR [esi+3716], eax
  00346	db 85 14 ff ff
	ff		 fild	 DWORD PTR tv550[ebp]
  0034c	8b 86 f0 00 00
	00		 mov	 eax, DWORD PTR [esi+240]
  00352	50		 push	 eax
  00353	51		 push	 ecx
  00354	d9 9d 3c ff ff
	ff		 fstp	 DWORD PTR _objTempItem$[ebp+36]
  0035a	e8 00 00 00 00	 call	 ?GCMoneySend@@YAXHK@Z	; GCMoneySend
  0035f	83 c4 18	 add	 esp, 24			; 00000018H

; 3122 : 
; 3123 : 	if( (rand()%100) < lpObj->ChaosSuccessRate )

  00362	e8 00 00 00 00	 call	 _rand
  00367	99		 cdq
  00368	b9 64 00 00 00	 mov	 ecx, 100		; 00000064H
  0036d	f7 f9		 idiv	 ecx
  0036f	3b 96 84 0e 00
	00		 cmp	 edx, DWORD PTR [esi+3716]
  00375	0f 8d c1 00 00
	00		 jge	 $LN2@CastleSpec

; 3124 : 	{
; 3125 : 		ItemSerialCreateSend(lpObj->m_Index, 255, 0, 0, objTempItem.m_Type,	(BYTE)objTempItem.m_Level, (BYTE)objTempItem.m_Durability, (BYTE)objTempItem.m_Option1, (BYTE)objTempItem.m_Option2, (BYTE)objTempItem.m_Option3, -1, (BYTE)objTempItem.m_NewOption, 0);

  0037b	8b 55 af	 mov	 edx, DWORD PTR _objTempItem$[ebp+151]
  0037e	d9 85 3c ff ff
	ff		 fld	 DWORD PTR _objTempItem$[ebp+36]
  00384	8b 45 ae	 mov	 eax, DWORD PTR _objTempItem$[ebp+150]
  00387	d9 bd 12 ff ff
	ff		 fnstcw	 WORD PTR tv540[ebp]
  0038d	6a 00		 push	 0
  0038f	52		 push	 edx
  00390	8b 4d ad	 mov	 ecx, DWORD PTR _objTempItem$[ebp+149]
  00393	8b 55 ac	 mov	 edx, DWORD PTR _objTempItem$[ebp+148]
  00396	6a ff		 push	 -1
  00398	50		 push	 eax
  00399	0f b7 85 12 ff
	ff ff		 movzx	 eax, WORD PTR tv540[ebp]
  003a0	0d 00 0c 00 00	 or	 eax, 3072		; 00000c00H
  003a5	89 85 0c ff ff
	ff		 mov	 DWORD PTR tv537[ebp], eax
  003ab	51		 push	 ecx
  003ac	52		 push	 edx
  003ad	d9 ad 0c ff ff
	ff		 fldcw	 WORD PTR tv537[ebp]
  003b3	8b 95 20 ff ff
	ff		 mov	 edx, DWORD PTR _objTempItem$[ebp+8]
  003b9	db 9d 0c ff ff
	ff		 fistp	 DWORD PTR tv535[ebp]
  003bf	8a 85 0c ff ff
	ff		 mov	 al, BYTE PTR tv535[ebp]
  003c5	0f b6 c8	 movzx	 ecx, al
  003c8	0f bf 85 1e ff
	ff ff		 movsx	 eax, WORD PTR _objTempItem$[ebp+6]
  003cf	d9 ad 12 ff ff
	ff		 fldcw	 WORD PTR tv540[ebp]
  003d5	51		 push	 ecx
  003d6	8b 0e		 mov	 ecx, DWORD PTR [esi]
  003d8	52		 push	 edx
  003d9	50		 push	 eax
  003da	6a 00		 push	 0
  003dc	6a 00		 push	 0
  003de	68 ff 00 00 00	 push	 255			; 000000ffH
  003e3	51		 push	 ecx
  003e4	e8 00 00 00 00	 call	 ?ItemSerialCreateSend@@YAXHEEEHEEEEEHEE@Z ; ItemSerialCreateSend

; 3126 : 		gObjInventoryCommit(lpObj->m_Index);

  003e9	8b 16		 mov	 edx, DWORD PTR [esi]
  003eb	52		 push	 edx
  003ec	e8 00 00 00 00	 call	 ?gObjInventoryCommit@@YAHH@Z ; gObjInventoryCommit

; 3127 : 		LogAddTD("[CastleSpecialMix] [%s][%s] CBMix Success %d Money : %d-%d", lpObj->AccountID, lpObj->Name, lpObj->ChaosSuccessRate, lpObj->Money, nChaosNeedMoney);

  003f1	8b 86 f0 00 00
	00		 mov	 eax, DWORD PTR [esi+240]
  003f7	8b 8e 84 0e 00
	00		 mov	 ecx, DWORD PTR [esi+3716]
  003fd	57		 push	 edi
  003fe	50		 push	 eax
  003ff	51		 push	 ecx
  00400	8d 46 77	 lea	 eax, DWORD PTR [esi+119]
  00403	50		 push	 eax
  00404	8d 46 6c	 lea	 eax, DWORD PTR [esi+108]
  00407	50		 push	 eax
  00408	68 00 00 00 00	 push	 OFFSET ??_C@_0DL@JMGPLGGO@?$FLCastleSpecialMix?$FN?5?$FL?$CFs?$FN?$FL?$CFs?$FN?5CBMi@
  0040d	ff 15 00 00 00
	00		 call	 DWORD PTR ?LogAddTD@@3P6AXPADZZA ; LogAddTD

; 3128 : 		g_iCastleItemMixLimit--;

  00413	ff 0d 00 00 00
	00		 dec	 DWORD PTR ?g_iCastleItemMixLimit@@3HA ; g_iCastleItemMixLimit

; 3129 : #if(SYSTEM_ACHIEVEMENTS)
; 3130 : 		g_Achievements.SuccessChaosMix(lpObj->m_Index);

  00419	8b 16		 mov	 edx, DWORD PTR [esi]
  0041b	83 c4 50	 add	 esp, 80			; 00000050H
  0041e	52		 push	 edx
  0041f	b9 00 00 00 00	 mov	 ecx, OFFSET ?g_Achievements@@3VCAchievements@@A ; g_Achievements
  00424	e8 00 00 00 00	 call	 ?SuccessChaosMix@CAchievements@@QAEXH@Z ; CAchievements::SuccessChaosMix
  00429	5f		 pop	 edi
  0042a	5e		 pop	 esi
  0042b	5b		 pop	 ebx

; 3142 : #endif
; 3143 : 	}
; 3144 : }

  0042c	8b 4d fc	 mov	 ecx, DWORD PTR __$ArrayPad$[ebp]
  0042f	33 cd		 xor	 ecx, ebp
  00431	e8 00 00 00 00	 call	 @__security_check_cookie@4
  00436	8b e5		 mov	 esp, ebp
  00438	5d		 pop	 ebp
  00439	c2 04 00	 ret	 4
$LN2@CastleSpec:

; 3131 : #endif
; 3132 : 	}
; 3133 : 	else
; 3134 : 	{
; 3135 : 		this->ChaosBoxInit(lpObj);

  0043c	8b 8d 0c ff ff
	ff		 mov	 ecx, DWORD PTR _this$[ebp]
  00442	56		 push	 esi
  00443	e8 00 00 00 00	 call	 ?ChaosBoxInit@CMixSystem@@QAEHPAUOBJECTSTRUCT@@@Z ; CMixSystem::ChaosBoxInit

; 3136 : 		GCUserChaosBoxSend(lpObj, 1);

  00448	6a 01		 push	 1
  0044a	56		 push	 esi
  0044b	e8 00 00 00 00	 call	 ?GCUserChaosBoxSend@@YAXPAUOBJECTSTRUCT@@H@Z ; GCUserChaosBoxSend

; 3137 : 		DataSend(lpObj->m_Index, (LPBYTE)&pMsg, pMsg.h.size);

  00450	0f b6 45 ed	 movzx	 eax, BYTE PTR _pMsg$[ebp+1]
  00454	8b 16		 mov	 edx, DWORD PTR [esi]
  00456	50		 push	 eax
  00457	8d 4d ec	 lea	 ecx, DWORD PTR _pMsg$[ebp]
  0045a	51		 push	 ecx
  0045b	52		 push	 edx
  0045c	e8 00 00 00 00	 call	 ?DataSend@@YAHHPAEK@Z	; DataSend

; 3138 : 		LogAddTD("[CastleSpecialMix] [%s][%s] CBMix Fail %d Money : %d-%d", lpObj->AccountID, lpObj->Name, lpObj->ChaosSuccessRate, lpObj->Money, nChaosNeedMoney);

  00461	8b 86 f0 00 00
	00		 mov	 eax, DWORD PTR [esi+240]
  00467	8b 8e 84 0e 00
	00		 mov	 ecx, DWORD PTR [esi+3716]
  0046d	57		 push	 edi
  0046e	50		 push	 eax
  0046f	51		 push	 ecx
  00470	8d 46 77	 lea	 eax, DWORD PTR [esi+119]
  00473	50		 push	 eax
  00474	8d 46 6c	 lea	 eax, DWORD PTR [esi+108]
  00477	50		 push	 eax
  00478	68 00 00 00 00	 push	 OFFSET ??_C@_0DI@EGPAKGJE@?$FLCastleSpecialMix?$FN?5?$FL?$CFs?$FN?$FL?$CFs?$FN?5CBMi@
  0047d	ff 15 00 00 00
	00		 call	 DWORD PTR ?LogAddTD@@3P6AXPADZZA ; LogAddTD

; 3139 : 		lpObj->ChaosLock = FALSE;
; 3140 : #if(SYSTEM_ACHIEVEMENTS)
; 3141 : 		g_Achievements.FailedChaosMix(lpObj->m_Index);

  00483	8b 16		 mov	 edx, DWORD PTR [esi]
  00485	83 c4 2c	 add	 esp, 44			; 0000002cH
  00488	52		 push	 edx
  00489	b9 00 00 00 00	 mov	 ecx, OFFSET ?g_Achievements@@3VCAchievements@@A ; g_Achievements
  0048e	c7 86 88 0e 00
	00 00 00 00 00	 mov	 DWORD PTR [esi+3720], 0
  00498	e8 00 00 00 00	 call	 ?FailedChaosMix@CAchievements@@QAEXH@Z ; CAchievements::FailedChaosMix
  0049d	5f		 pop	 edi
  0049e	5e		 pop	 esi
  0049f	5b		 pop	 ebx

; 3142 : #endif
; 3143 : 	}
; 3144 : }

  004a0	8b 4d fc	 mov	 ecx, DWORD PTR __$ArrayPad$[ebp]
  004a3	33 cd		 xor	 ecx, ebp
  004a5	e8 00 00 00 00	 call	 @__security_check_cookie@4
  004aa	8b e5		 mov	 esp, ebp
  004ac	5d		 pop	 ebp
  004ad	c2 04 00	 ret	 4
$LN43@CastleSpec:

; 3003 : 	{
; 3004 : 		LogAddTD("[CastleSpecialMix] [%s][%s] Item Mix Failed - Item Error (DG:%d, BGx10:%d, SGx10:%d, Other:%d)",
; 3005 : 			lpObj->AccountID, lpObj->Name, iBlessGemMixCount, iSoulGemMixCount, iDefendGemCount, iInvalidItemCount);

  004b0	8b 8d 10 ff ff
	ff		 mov	 ecx, DWORD PTR _iInvalidItemCount$[ebp]
  004b6	8b 95 08 ff ff
	ff		 mov	 edx, DWORD PTR _iDefendGemCount$[ebp]
  004bc	51		 push	 ecx
  004bd	52		 push	 edx
  004be	53		 push	 ebx
  004bf	50		 push	 eax
  004c0	8d 46 77	 lea	 eax, DWORD PTR [esi+119]
  004c3	50		 push	 eax
  004c4	8d 4e 6c	 lea	 ecx, DWORD PTR [esi+108]
  004c7	51		 push	 ecx
  004c8	68 00 00 00 00	 push	 OFFSET ??_C@_0FP@MMBGDNIO@?$FLCastleSpecialMix?$FN?5?$FL?$CFs?$FN?$FL?$CFs?$FN?5Item@
  004cd	ff 15 00 00 00
	00		 call	 DWORD PTR ?LogAddTD@@3P6AXPADZZA ; LogAddTD

; 3006 : 
; 3007 : 		DataSend(lpObj->m_Index, (LPBYTE)&pMsg, pMsg.h.size);

  004d3	0f b6 55 ed	 movzx	 edx, BYTE PTR _pMsg$[ebp+1]
  004d7	8b 0e		 mov	 ecx, DWORD PTR [esi]
  004d9	52		 push	 edx
  004da	8d 45 ec	 lea	 eax, DWORD PTR _pMsg$[ebp]
  004dd	50		 push	 eax
  004de	51		 push	 ecx
  004df	e8 00 00 00 00	 call	 ?DataSend@@YAHHPAEK@Z	; DataSend
  004e4	83 c4 28	 add	 esp, 40			; 00000028H
  004e7	5f		 pop	 edi

; 3008 : 
; 3009 : 		lpObj->ChaosLock = FALSE;

  004e8	c7 86 88 0e 00
	00 00 00 00 00	 mov	 DWORD PTR [esi+3720], 0
  004f2	5e		 pop	 esi
  004f3	5b		 pop	 ebx

; 3142 : #endif
; 3143 : 	}
; 3144 : }

  004f4	8b 4d fc	 mov	 ecx, DWORD PTR __$ArrayPad$[ebp]
  004f7	33 cd		 xor	 ecx, ebp
  004f9	e8 00 00 00 00	 call	 @__security_check_cookie@4
  004fe	8b e5		 mov	 esp, ebp
  00500	5d		 pop	 ebp
  00501	c2 04 00	 ret	 4
$LN31@CastleSpec:

; 2953 : 		}
; 2954 : 	}
; 2955 : 	else
; 2956 : 	{
; 2957 : 		LogAddTD("[CastleSpecialMix] [%s][%s] Item Mix Failed - No Auth",
; 2958 : 			lpObj->AccountID, lpObj->Name);

  00504	8d 56 77	 lea	 edx, DWORD PTR [esi+119]
  00507	52		 push	 edx
  00508	8d 46 6c	 lea	 eax, DWORD PTR [esi+108]
  0050b	50		 push	 eax
  0050c	68 00 00 00 00	 push	 OFFSET ??_C@_0DG@INONCDCO@?$FLCastleSpecialMix?$FN?5?$FL?$CFs?$FN?$FL?$CFs?$FN?5Item@
$LN45@CastleSpec:
  00511	ff 15 00 00 00
	00		 call	 DWORD PTR ?LogAddTD@@3P6AXPADZZA ; LogAddTD

; 2959 : 
; 2960 : 		DataSend(lpObj->m_Index, (LPBYTE)&pMsg, pMsg.h.size);

  00517	0f b6 4d ed	 movzx	 ecx, BYTE PTR _pMsg$[ebp+1]
  0051b	8b 06		 mov	 eax, DWORD PTR [esi]
  0051d	51		 push	 ecx
  0051e	8d 55 ec	 lea	 edx, DWORD PTR _pMsg$[ebp]
  00521	52		 push	 edx
  00522	50		 push	 eax
$LN46@CastleSpec:
  00523	e8 00 00 00 00	 call	 ?DataSend@@YAHHPAEK@Z	; DataSend

; 2961 : 
; 2962 : 		lpObj->ChaosLock = FALSE;

  00528	89 be 88 0e 00
	00		 mov	 DWORD PTR [esi+3720], edi
$LN47@CastleSpec:

; 3142 : #endif
; 3143 : 	}
; 3144 : }

  0052e	8b 4d fc	 mov	 ecx, DWORD PTR __$ArrayPad$[ebp]
  00531	83 c4 18	 add	 esp, 24			; 00000018H
  00534	5f		 pop	 edi
  00535	5e		 pop	 esi
  00536	33 cd		 xor	 ecx, ebp
  00538	5b		 pop	 ebx
  00539	e8 00 00 00 00	 call	 @__security_check_cookie@4
  0053e	8b e5		 mov	 esp, ebp
  00540	5d		 pop	 ebp
  00541	c2 04 00	 ret	 4
?CastleSpecialItemMix@CMixSystem@@QAEXPAUOBJECTSTRUCT@@@Z ENDP ; CMixSystem::CastleSpecialItemMix
_TEXT	ENDS
PUBLIC	??_C@_0DH@JBMEKCLH@?$FLHidden?5TreasureBox?5Event?$FN?5?$FL?$CFs?$FN?$FL@ ; `string'
PUBLIC	??_C@_0FB@PDPGCOFM@?$FLHidden?5TreasureBox?5Event?$FN?5?$FL?$CFs?$FN?$FL@ ; `string'
PUBLIC	??_C@_0DN@CFIDABAI@?$FLHidden?5TreasureBox?5Event?$FN?5?$FL?$CFs?$FN?$FL@ ; `string'
PUBLIC	??_C@_0DE@FILNLJPO@?$FLHidden?5TreasureBox?5Event?$FN?5?$FL?$CFs?$FN?$FL@ ; `string'
PUBLIC	??_C@_0BH@FJMEBBCF@Hidden?5TreasureBox?5Mix?$AA@ ; `string'
PUBLIC	??_C@_0DE@OHGHLCDC@?$FLHidden?5TreasureBox?5Event?$FN?5?$FL?$CFs?$FN?$FL@ ; `string'
PUBLIC	__$ArrayPad$
PUBLIC	?HiddenTreasureBoxItemMix@CMixSystem@@QAEXPAUOBJECTSTRUCT@@@Z ; CMixSystem::HiddenTreasureBoxItemMix
;	COMDAT ??_C@_0DH@JBMEKCLH@?$FLHidden?5TreasureBox?5Event?$FN?5?$FL?$CFs?$FN?$FL@
CONST	SEGMENT
??_C@_0DH@JBMEKCLH@?$FLHidden?5TreasureBox?5Event?$FN?5?$FL?$CFs?$FN?$FL@ DB '['
	DB	'Hidden TreasureBox Event] [%s][%s] CBMix Fail Rate:%d', 00H ; `string'
CONST	ENDS
;	COMDAT ??_C@_0FB@PDPGCOFM@?$FLHidden?5TreasureBox?5Event?$FN?5?$FL?$CFs?$FN?$FL@
CONST	SEGMENT
??_C@_0FB@PDPGCOFM@?$FLHidden?5TreasureBox?5Event?$FN?5?$FL?$CFs?$FN?$FL@ DB '['
	DB	'Hidden TreasureBox Event] [%s][%s] CBMix Failed - iCrystalMix'
	DB	'Type is wrong : %d', 00H			; `string'
CONST	ENDS
;	COMDAT ??_C@_0DN@CFIDABAI@?$FLHidden?5TreasureBox?5Event?$FN?5?$FL?$CFs?$FN?$FL@
CONST	SEGMENT
??_C@_0DN@CFIDABAI@?$FLHidden?5TreasureBox?5Event?$FN?5?$FL?$CFs?$FN?$FL@ DB '['
	DB	'Hidden TreasureBox Event] [%s][%s] CBMix Success:%d Type:%d', 00H ; `string'
CONST	ENDS
;	COMDAT ??_C@_0DE@FILNLJPO@?$FLHidden?5TreasureBox?5Event?$FN?5?$FL?$CFs?$FN?$FL@
CONST	SEGMENT
??_C@_0DE@FILNLJPO@?$FLHidden?5TreasureBox?5Event?$FN?5?$FL?$CFs?$FN?$FL@ DB '['
	DB	'Hidden TreasureBox Event] [%s][%s] Chaos Mix Start', 00H ; `string'
CONST	ENDS
;	COMDAT ??_C@_0BH@FJMEBBCF@Hidden?5TreasureBox?5Mix?$AA@
CONST	SEGMENT
??_C@_0BH@FJMEBBCF@Hidden?5TreasureBox?5Mix?$AA@ DB 'Hidden TreasureBox M'
	DB	'ix', 00H					; `string'
CONST	ENDS
;	COMDAT ??_C@_0DE@OHGHLCDC@?$FLHidden?5TreasureBox?5Event?$FN?5?$FL?$CFs?$FN?$FL@
CONST	SEGMENT
??_C@_0DE@OHGHLCDC@?$FLHidden?5TreasureBox?5Event?$FN?5?$FL?$CFs?$FN?$FL@ DB '['
	DB	'Hidden TreasureBox Event] [%s][%s] Item Mix Failed', 00H ; `string'
; Function compile flags: /Ogtp
CONST	ENDS
;	COMDAT ?HiddenTreasureBoxItemMix@CMixSystem@@QAEXPAUOBJECTSTRUCT@@@Z
_TEXT	SEGMENT
_this$ = -44						; size = 4
_iInvalidItemCount$ = -40				; size = 4
_iRedCrystal$ = -36					; size = 4
tv331 = -32						; size = 4
_iBlueCrystal$ = -32					; size = 4
_iBlackCrystal$ = -28					; size = 4
_iCrystalMixType$ = -24					; size = 4
_pMsg$ = -20						; size = 16
__$ArrayPad$ = -4					; size = 4
_lpObj$ = 8						; size = 4
?HiddenTreasureBoxItemMix@CMixSystem@@QAEXPAUOBJECTSTRUCT@@@Z PROC ; CMixSystem::HiddenTreasureBoxItemMix, COMDAT
; _this$ = ecx

; 3149 : {

  00000	55		 push	 ebp
  00001	8b ec		 mov	 ebp, esp
  00003	83 ec 2c	 sub	 esp, 44			; 0000002cH
  00006	a1 00 00 00 00	 mov	 eax, DWORD PTR ___security_cookie
  0000b	33 c5		 xor	 eax, ebp
  0000d	89 45 fc	 mov	 DWORD PTR __$ArrayPad$[ebp], eax
  00010	53		 push	 ebx
  00011	56		 push	 esi
  00012	8b 75 08	 mov	 esi, DWORD PTR _lpObj$[ebp]
  00015	57		 push	 edi

; 3150 : 	lpObj->ChaosLock = TRUE;
; 3151 : 	int iBlueCrystal = 0;
; 3152 : 	int iRedCrystal = 0;
; 3153 : 	int iBlackCrystal = 0;
; 3154 : 	int iInvalidItemCount = 0;
; 3155 : 	int iChaosMoney = 0;
; 3156 : 
; 3157 : 	PMSG_CHAOSMIXRESULT pMsg;
; 3158 : 
; 3159 : 	PHeadSetB((LPBYTE)&pMsg.h, 0x86, sizeof(PMSG_CHAOSMIXRESULT));

  00016	6a 10		 push	 16			; 00000010H
  00018	33 ff		 xor	 edi, edi
  0001a	8d 45 ec	 lea	 eax, DWORD PTR _pMsg$[ebp]
  0001d	68 86 00 00 00	 push	 134			; 00000086H
  00022	bb 01 00 00 00	 mov	 ebx, 1
  00027	50		 push	 eax
  00028	89 4d d4	 mov	 DWORD PTR _this$[ebp], ecx
  0002b	89 9e 88 0e 00
	00		 mov	 DWORD PTR [esi+3720], ebx
  00031	89 7d e0	 mov	 DWORD PTR _iBlueCrystal$[ebp], edi
  00034	89 7d dc	 mov	 DWORD PTR _iRedCrystal$[ebp], edi
  00037	89 7d e4	 mov	 DWORD PTR _iBlackCrystal$[ebp], edi
  0003a	89 7d d8	 mov	 DWORD PTR _iInvalidItemCount$[ebp], edi
  0003d	e8 00 00 00 00	 call	 ?PHeadSetB@@YAXPAEEH@Z	; PHeadSetB
  00042	83 c4 0c	 add	 esp, 12			; 0000000cH

; 3160 : 	pMsg.Result = CB_ERROR;

  00045	c6 45 ef 00	 mov	 BYTE PTR _pMsg$[ebp+3], 0
  00049	8d a4 24 00 00
	00 00		 npad	 7
$LL31@HiddenTrea:

; 3163 : 	{
; 3164 : 		if ( lpObj->pChaosBox[n].IsItem() == TRUE )

  00050	8b 8e 78 0e 00
	00		 mov	 ecx, DWORD PTR [esi+3704]
  00056	03 cf		 add	 ecx, edi
  00058	e8 00 00 00 00	 call	 ?IsItem@CItem@@QAEHXZ	; CItem::IsItem
  0005d	3b c3		 cmp	 eax, ebx
  0005f	75 35		 jne	 SHORT $LN30@HiddenTrea

; 3165 : 		{
; 3166 : 			if ( lpObj->pChaosBox[n].m_Type == ITEMGET(12,26) )

  00061	8b 86 78 0e 00
	00		 mov	 eax, DWORD PTR [esi+3704]
  00067	ba 1a 18 00 00	 mov	 edx, 6170		; 0000181aH
  0006c	66 39 54 38 06	 cmp	 WORD PTR [eax+edi+6], dx
  00071	75 20		 jne	 SHORT $LN27@HiddenTrea

; 3167 : 			{
; 3168 : 				switch ( lpObj->pChaosBox[n].m_Level )

  00073	0f bf 44 38 08	 movsx	 eax, WORD PTR [eax+edi+8]
  00078	2b c3		 sub	 eax, ebx
  0007a	74 12		 je	 SHORT $LN24@HiddenTrea
  0007c	2b c3		 sub	 eax, ebx
  0007e	74 09		 je	 SHORT $LN23@HiddenTrea
  00080	2b c3		 sub	 eax, ebx
  00082	75 12		 jne	 SHORT $LN30@HiddenTrea

; 3176 : 					case 3:
; 3177 : 						iBlackCrystal++;

  00084	01 5d e4	 add	 DWORD PTR _iBlackCrystal$[ebp], ebx

; 3178 : 						break;

  00087	eb 0d		 jmp	 SHORT $LN30@HiddenTrea
$LN23@HiddenTrea:

; 3172 : 						break;
; 3173 : 					case 2:
; 3174 : 						iBlueCrystal++;

  00089	01 5d e0	 add	 DWORD PTR _iBlueCrystal$[ebp], ebx

; 3175 : 						break;

  0008c	eb 08		 jmp	 SHORT $LN30@HiddenTrea
$LN24@HiddenTrea:

; 3169 : 				{
; 3170 : 					case 1:
; 3171 : 						iRedCrystal++;

  0008e	01 5d dc	 add	 DWORD PTR _iRedCrystal$[ebp], ebx

; 3179 : 				}
; 3180 : 			}
; 3181 : 			else

  00091	eb 03		 jmp	 SHORT $LN30@HiddenTrea
$LN27@HiddenTrea:

; 3182 : 			{
; 3183 : 				iInvalidItemCount++;

  00093	01 5d d8	 add	 DWORD PTR _iInvalidItemCount$[ebp], ebx
$LN30@HiddenTrea:

; 3161 : 
; 3162 : 	for ( int n=0;n<CHAOS_BOX_SIZE;n++)

  00096	81 c7 d4 00 00
	00		 add	 edi, 212		; 000000d4H
  0009c	81 ff 80 1a 00
	00		 cmp	 edi, 6784		; 00001a80H
  000a2	7c ac		 jl	 SHORT $LL31@HiddenTrea

; 3184 : 			}
; 3185 : 		}
; 3186 : 	}
; 3187 : 
; 3188 : 	int iCrystalMixType = -1;
; 3189 : 
; 3190 : 	if ( iInvalidItemCount == 0 )

  000a4	33 ff		 xor	 edi, edi
  000a6	c7 45 e8 ff ff
	ff ff		 mov	 DWORD PTR _iCrystalMixType$[ebp], -1
  000ad	39 7d d8	 cmp	 DWORD PTR _iInvalidItemCount$[ebp], edi
  000b0	0f 85 6b 02 00
	00		 jne	 $LN20@HiddenTrea

; 3191 : 	{
; 3192 : 		if ( iBlueCrystal == 7 )

  000b6	8b 45 e0	 mov	 eax, DWORD PTR _iBlueCrystal$[ebp]
  000b9	83 f8 07	 cmp	 eax, 7
  000bc	75 24		 jne	 SHORT $LN19@HiddenTrea

; 3193 : 		{
; 3194 : 			if ( iRedCrystal == 0 && iBlackCrystal == 0 )

  000be	39 7d dc	 cmp	 DWORD PTR _iRedCrystal$[ebp], edi
  000c1	0f 85 ae 00 00
	00		 jne	 $LN9@HiddenTrea
  000c7	39 7d e4	 cmp	 DWORD PTR _iBlackCrystal$[ebp], edi
  000ca	0f 85 a5 00 00
	00		 jne	 $LN9@HiddenTrea

; 3195 : 			{
; 3196 : 				iCrystalMixType = 0;

  000d0	89 7d e8	 mov	 DWORD PTR _iCrystalMixType$[ebp], edi

; 3197 : 				lpObj->ChaosSuccessRate = 100;

  000d3	c7 86 84 0e 00
	00 64 00 00 00	 mov	 DWORD PTR [esi+3716], 100 ; 00000064H

; 3198 : 			}
; 3199 : 		}

  000dd	e9 93 00 00 00	 jmp	 $LN9@HiddenTrea
$LN19@HiddenTrea:

; 3200 : 		else if ( iRedCrystal == 5 )

  000e2	8b 4d dc	 mov	 ecx, DWORD PTR _iRedCrystal$[ebp]
  000e5	83 f9 05	 cmp	 ecx, 5
  000e8	75 1c		 jne	 SHORT $LN16@HiddenTrea

; 3201 : 		{
; 3202 : 			if ( iBlueCrystal == 0 && iBlackCrystal == 0 )

  000ea	3b c7		 cmp	 eax, edi
  000ec	0f 85 83 00 00
	00		 jne	 $LN9@HiddenTrea
  000f2	39 7d e4	 cmp	 DWORD PTR _iBlackCrystal$[ebp], edi
  000f5	75 7e		 jne	 SHORT $LN9@HiddenTrea

; 3203 : 			{
; 3204 : 				iCrystalMixType = 1;

  000f7	89 5d e8	 mov	 DWORD PTR _iCrystalMixType$[ebp], ebx

; 3205 : 				lpObj->ChaosSuccessRate = 100;

  000fa	c7 86 84 0e 00
	00 64 00 00 00	 mov	 DWORD PTR [esi+3716], 100 ; 00000064H

; 3206 : 			}
; 3207 : 		}

  00104	eb 6f		 jmp	 SHORT $LN9@HiddenTrea
$LN16@HiddenTrea:

; 3208 : 		else if ( iBlackCrystal == 3 )

  00106	8b 55 e4	 mov	 edx, DWORD PTR _iBlackCrystal$[ebp]
  00109	83 fa 03	 cmp	 edx, 3
  0010c	75 1b		 jne	 SHORT $LN13@HiddenTrea

; 3209 : 		{
; 3210 : 			if ( iRedCrystal == 0 && iBlueCrystal == 0 )

  0010e	3b cf		 cmp	 ecx, edi
  00110	75 63		 jne	 SHORT $LN9@HiddenTrea
  00112	3b c7		 cmp	 eax, edi
  00114	75 5f		 jne	 SHORT $LN9@HiddenTrea

; 3211 : 			{
; 3212 : 				iCrystalMixType = 2;

  00116	c7 45 e8 02 00
	00 00		 mov	 DWORD PTR _iCrystalMixType$[ebp], 2

; 3213 : 				lpObj->ChaosSuccessRate = 100;

  0011d	c7 86 84 0e 00
	00 64 00 00 00	 mov	 DWORD PTR [esi+3716], 100 ; 00000064H

; 3214 : 			}
; 3215 : 		}

  00127	eb 4c		 jmp	 SHORT $LN9@HiddenTrea
$LN13@HiddenTrea:

; 3216 : 		else if ( iBlueCrystal == 1 && iRedCrystal == 1 && iBlackCrystal == 1 )

  00129	3b c3		 cmp	 eax, ebx
  0012b	75 1b		 jne	 SHORT $LN10@HiddenTrea
  0012d	3b cb		 cmp	 ecx, ebx
  0012f	75 17		 jne	 SHORT $LN10@HiddenTrea
  00131	3b d3		 cmp	 edx, ebx
  00133	75 13		 jne	 SHORT $LN10@HiddenTrea

; 3217 : 		{
; 3218 : 			{
; 3219 : 				iCrystalMixType = 3;

  00135	c7 45 e8 03 00
	00 00		 mov	 DWORD PTR _iCrystalMixType$[ebp], 3

; 3220 : 				lpObj->ChaosSuccessRate = 100;

  0013c	c7 86 84 0e 00
	00 64 00 00 00	 mov	 DWORD PTR [esi+3716], 100 ; 00000064H

; 3221 : 			}
; 3222 : 		}
; 3223 : 		else

  00146	eb 2d		 jmp	 SHORT $LN9@HiddenTrea
$LN10@HiddenTrea:

; 3224 : 		{
; 3225 : 			LogAddTD("[Hidden TreasureBox Event] [%s][%s] Item Mix Failed",	lpObj->AccountID, lpObj->Name);

  00148	8d 46 77	 lea	 eax, DWORD PTR [esi+119]
  0014b	50		 push	 eax
  0014c	8d 4e 6c	 lea	 ecx, DWORD PTR [esi+108]
  0014f	51		 push	 ecx
  00150	68 00 00 00 00	 push	 OFFSET ??_C@_0DE@OHGHLCDC@?$FLHidden?5TreasureBox?5Event?$FN?5?$FL?$CFs?$FN?$FL@
  00155	ff 15 00 00 00
	00		 call	 DWORD PTR ?LogAddTD@@3P6AXPADZZA ; LogAddTD

; 3226 : 			DataSend(lpObj->m_Index, (LPBYTE)&pMsg, pMsg.h.size);

  0015b	0f b6 55 ed	 movzx	 edx, BYTE PTR _pMsg$[ebp+1]
  0015f	8b 0e		 mov	 ecx, DWORD PTR [esi]
  00161	52		 push	 edx
  00162	8d 45 ec	 lea	 eax, DWORD PTR _pMsg$[ebp]
  00165	50		 push	 eax
  00166	51		 push	 ecx
  00167	e8 00 00 00 00	 call	 ?DataSend@@YAHHPAEK@Z	; DataSend
  0016c	83 c4 18	 add	 esp, 24			; 00000018H

; 3227 : 			lpObj->ChaosLock = FALSE;

  0016f	89 be 88 0e 00
	00		 mov	 DWORD PTR [esi+3720], edi
$LN9@HiddenTrea:

; 3234 : 		lpObj->ChaosLock = FALSE;
; 3235 : 		return;
; 3236 : 	}
; 3237 : 
; 3238 : 	LogChaosItem(lpObj, "Hidden TreasureBox Mix");

  00175	8b 4d d4	 mov	 ecx, DWORD PTR _this$[ebp]
  00178	68 00 00 00 00	 push	 OFFSET ??_C@_0BH@FJMEBBCF@Hidden?5TreasureBox?5Mix?$AA@
  0017d	56		 push	 esi
  0017e	e8 00 00 00 00	 call	 ?LogChaosItem@CMixSystem@@QAEXPAUOBJECTSTRUCT@@PAD@Z ; CMixSystem::LogChaosItem

; 3239 : 	LogAddTD("[Hidden TreasureBox Event] [%s][%s] Chaos Mix Start", lpObj->AccountID, lpObj->Name);

  00183	8d 7e 77	 lea	 edi, DWORD PTR [esi+119]
  00186	57		 push	 edi
  00187	8d 5e 6c	 lea	 ebx, DWORD PTR [esi+108]
  0018a	53		 push	 ebx
  0018b	68 00 00 00 00	 push	 OFFSET ??_C@_0DE@FILNLJPO@?$FLHidden?5TreasureBox?5Event?$FN?5?$FL?$CFs?$FN?$FL@
  00190	ff 15 00 00 00
	00		 call	 DWORD PTR ?LogAddTD@@3P6AXPADZZA ; LogAddTD

; 3240 : 
; 3241 : 	lpObj->ChaosSuccessRate += lpObj->m_AddMixSuccessRate;

  00196	8b 96 24 28 00
	00		 mov	 edx, DWORD PTR [esi+10276]
  0019c	01 96 84 0e 00
	00		 add	 DWORD PTR [esi+3716], edx

; 3242 : 
; 3243 : 	if ( (rand()%100) < lpObj->ChaosSuccessRate )

  001a2	8b 86 84 0e 00
	00		 mov	 eax, DWORD PTR [esi+3716]
  001a8	83 c4 0c	 add	 esp, 12			; 0000000cH
  001ab	89 45 e0	 mov	 DWORD PTR tv331[ebp], eax
  001ae	e8 00 00 00 00	 call	 _rand
  001b3	99		 cdq
  001b4	b9 64 00 00 00	 mov	 ecx, 100		; 00000064H
  001b9	f7 f9		 idiv	 ecx
  001bb	8b 45 e0	 mov	 eax, DWORD PTR tv331[ebp]
  001be	3b d0		 cmp	 edx, eax
  001c0	0f 8d f1 00 00
	00		 jge	 $LN7@HiddenTrea

; 3244 : 	{
; 3245 : 		switch ( iCrystalMixType )

  001c6	8b 45 e8	 mov	 eax, DWORD PTR _iCrystalMixType$[ebp]
  001c9	85 c0		 test	 eax, eax
  001cb	0f 88 a7 00 00
	00		 js	 $LN2@HiddenTrea
  001d1	83 f8 02	 cmp	 eax, 2
  001d4	7e 2c		 jle	 SHORT $LN4@HiddenTrea
  001d6	83 f8 03	 cmp	 eax, 3
  001d9	0f 85 99 00 00
	00		 jne	 $LN2@HiddenTrea

; 3249 : 				break;
; 3250 : 			case 3:
; 3251 : 				ItemSerialCreateSend(lpObj->m_Index, -1, 0, 0, ITEMGET(12,26) , 5, 1, 0, 0, 0, -1, 0, 0);

  001df	6a 00		 push	 0
  001e1	8b 16		 mov	 edx, DWORD PTR [esi]
  001e3	6a 00		 push	 0
  001e5	6a ff		 push	 -1
  001e7	6a 00		 push	 0
  001e9	6a 00		 push	 0
  001eb	6a 00		 push	 0
  001ed	6a 01		 push	 1
  001ef	6a 05		 push	 5
  001f1	68 1a 18 00 00	 push	 6170			; 0000181aH
  001f6	6a 00		 push	 0
  001f8	6a 00		 push	 0
  001fa	68 ff 00 00 00	 push	 255			; 000000ffH
  001ff	52		 push	 edx

; 3252 : 				break;

  00200	eb 21		 jmp	 SHORT $LN36@HiddenTrea
$LN4@HiddenTrea:

; 3246 : 		{
; 3247 : 			case 0:	case 1:	case 2:
; 3248 : 				ItemSerialCreateSend(lpObj->m_Index, -1, 0, 0, ITEMGET(12,26) , 4, 1, 0, 0, 0, -1, 0, 0);

  00202	6a 00		 push	 0
  00204	8b 06		 mov	 eax, DWORD PTR [esi]
  00206	6a 00		 push	 0
  00208	6a ff		 push	 -1
  0020a	6a 00		 push	 0
  0020c	6a 00		 push	 0
  0020e	6a 00		 push	 0
  00210	6a 01		 push	 1
  00212	6a 04		 push	 4
  00214	68 1a 18 00 00	 push	 6170			; 0000181aH
  00219	6a 00		 push	 0
  0021b	6a 00		 push	 0
  0021d	68 ff 00 00 00	 push	 255			; 000000ffH
  00222	50		 push	 eax
$LN36@HiddenTrea:
  00223	e8 00 00 00 00	 call	 ?ItemSerialCreateSend@@YAXHEEEHEEEEEHEE@Z ; ItemSerialCreateSend

; 3258 : 				return;
; 3259 : 		}
; 3260 : 
; 3261 : 		::gObjInventoryCommit(lpObj->m_Index);

  00228	8b 0e		 mov	 ecx, DWORD PTR [esi]
  0022a	83 c4 34	 add	 esp, 52			; 00000034H
  0022d	51		 push	 ecx
  0022e	e8 00 00 00 00	 call	 ?gObjInventoryCommit@@YAHH@Z ; gObjInventoryCommit

; 3262 : 		LogAddTD("[Hidden TreasureBox Event] [%s][%s] CBMix Success:%d Type:%d", lpObj->AccountID, lpObj->Name, lpObj->ChaosSuccessRate, iCrystalMixType);

  00233	8b 55 e8	 mov	 edx, DWORD PTR _iCrystalMixType$[ebp]
  00236	8b 86 84 0e 00
	00		 mov	 eax, DWORD PTR [esi+3716]
  0023c	52		 push	 edx
  0023d	50		 push	 eax
  0023e	57		 push	 edi
  0023f	53		 push	 ebx
  00240	68 00 00 00 00	 push	 OFFSET ??_C@_0DN@CFIDABAI@?$FLHidden?5TreasureBox?5Event?$FN?5?$FL?$CFs?$FN?$FL@
  00245	ff 15 00 00 00
	00		 call	 DWORD PTR ?LogAddTD@@3P6AXPADZZA ; LogAddTD

; 3263 : #if(SYSTEM_ACHIEVEMENTS)
; 3264 : 		g_Achievements.SuccessChaosMix(lpObj->m_Index);

  0024b	8b 0e		 mov	 ecx, DWORD PTR [esi]
  0024d	83 c4 18	 add	 esp, 24			; 00000018H
  00250	51		 push	 ecx
  00251	b9 00 00 00 00	 mov	 ecx, OFFSET ?g_Achievements@@3VCAchievements@@A ; g_Achievements
  00256	e8 00 00 00 00	 call	 ?SuccessChaosMix@CAchievements@@QAEXH@Z ; CAchievements::SuccessChaosMix
  0025b	5f		 pop	 edi

; 3276 : #endif
; 3277 : 	}
; 3278 : 
; 3279 : 	lpObj->ChaosLock = FALSE;

  0025c	c7 86 88 0e 00
	00 00 00 00 00	 mov	 DWORD PTR [esi+3720], 0
  00266	5e		 pop	 esi
  00267	5b		 pop	 ebx

; 3280 : }

  00268	8b 4d fc	 mov	 ecx, DWORD PTR __$ArrayPad$[ebp]
  0026b	33 cd		 xor	 ecx, ebp
  0026d	e8 00 00 00 00	 call	 @__security_check_cookie@4
  00272	8b e5		 mov	 esp, ebp
  00274	5d		 pop	 ebp
  00275	c2 04 00	 ret	 4
$LN2@HiddenTrea:

; 3253 : 			default:
; 3254 : 				LogAddTD("[Hidden TreasureBox Event] [%s][%s] CBMix Failed - iCrystalMixType is wrong : %d",
; 3255 : 					lpObj->AccountID, lpObj->Name, iCrystalMixType);

  00278	50		 push	 eax
  00279	57		 push	 edi
  0027a	53		 push	 ebx
  0027b	68 00 00 00 00	 push	 OFFSET ??_C@_0FB@PDPGCOFM@?$FLHidden?5TreasureBox?5Event?$FN?5?$FL?$CFs?$FN?$FL@
  00280	ff 15 00 00 00
	00		 call	 DWORD PTR ?LogAddTD@@3P6AXPADZZA ; LogAddTD

; 3256 : 				DataSend(lpObj->m_Index, (LPBYTE)&pMsg, pMsg.h.size);

  00286	0f b6 55 ed	 movzx	 edx, BYTE PTR _pMsg$[ebp+1]
  0028a	8b 0e		 mov	 ecx, DWORD PTR [esi]
  0028c	52		 push	 edx
  0028d	8d 45 ec	 lea	 eax, DWORD PTR _pMsg$[ebp]
  00290	50		 push	 eax
  00291	51		 push	 ecx
  00292	e8 00 00 00 00	 call	 ?DataSend@@YAHHPAEK@Z	; DataSend
  00297	83 c4 1c	 add	 esp, 28			; 0000001cH
  0029a	5f		 pop	 edi

; 3257 : 				lpObj->ChaosLock = FALSE;

  0029b	c7 86 88 0e 00
	00 00 00 00 00	 mov	 DWORD PTR [esi+3720], 0
  002a5	5e		 pop	 esi
  002a6	5b		 pop	 ebx

; 3280 : }

  002a7	8b 4d fc	 mov	 ecx, DWORD PTR __$ArrayPad$[ebp]
  002aa	33 cd		 xor	 ecx, ebp
  002ac	e8 00 00 00 00	 call	 @__security_check_cookie@4
  002b1	8b e5		 mov	 esp, ebp
  002b3	5d		 pop	 ebp
  002b4	c2 04 00	 ret	 4
$LN7@HiddenTrea:

; 3265 : #endif
; 3266 : 	}
; 3267 : 	else
; 3268 : 	{
; 3269 : 		LogAddTD("[Hidden TreasureBox Event] [%s][%s] CBMix Fail Rate:%d", lpObj->AccountID, lpObj->Name, lpObj->ChaosSuccessRate);

  002b7	50		 push	 eax
  002b8	57		 push	 edi
  002b9	53		 push	 ebx
  002ba	68 00 00 00 00	 push	 OFFSET ??_C@_0DH@JBMEKCLH@?$FLHidden?5TreasureBox?5Event?$FN?5?$FL?$CFs?$FN?$FL@
  002bf	ff 15 00 00 00
	00		 call	 DWORD PTR ?LogAddTD@@3P6AXPADZZA ; LogAddTD

; 3270 : 		this->ChaosBoxInit(lpObj);

  002c5	8b 4d d4	 mov	 ecx, DWORD PTR _this$[ebp]
  002c8	83 c4 10	 add	 esp, 16			; 00000010H
  002cb	56		 push	 esi
  002cc	e8 00 00 00 00	 call	 ?ChaosBoxInit@CMixSystem@@QAEHPAUOBJECTSTRUCT@@@Z ; CMixSystem::ChaosBoxInit

; 3271 : 		::GCUserChaosBoxSend(lpObj, 1);

  002d1	6a 01		 push	 1
  002d3	56		 push	 esi
  002d4	e8 00 00 00 00	 call	 ?GCUserChaosBoxSend@@YAXPAUOBJECTSTRUCT@@H@Z ; GCUserChaosBoxSend

; 3272 : 		DataSend(lpObj->m_Index, (LPBYTE)&pMsg, pMsg.h.size);

  002d9	0f b6 55 ed	 movzx	 edx, BYTE PTR _pMsg$[ebp+1]
  002dd	8b 0e		 mov	 ecx, DWORD PTR [esi]
  002df	52		 push	 edx
  002e0	8d 45 ec	 lea	 eax, DWORD PTR _pMsg$[ebp]
  002e3	50		 push	 eax
  002e4	51		 push	 ecx
  002e5	e8 00 00 00 00	 call	 ?DataSend@@YAHHPAEK@Z	; DataSend

; 3273 : 		lpObj->ChaosLock = FALSE;
; 3274 : #if(SYSTEM_ACHIEVEMENTS)
; 3275 : 		g_Achievements.FailedChaosMix(lpObj->m_Index);

  002ea	8b 16		 mov	 edx, DWORD PTR [esi]
  002ec	83 c4 14	 add	 esp, 20			; 00000014H
  002ef	52		 push	 edx
  002f0	b9 00 00 00 00	 mov	 ecx, OFFSET ?g_Achievements@@3VCAchievements@@A ; g_Achievements
  002f5	c7 86 88 0e 00
	00 00 00 00 00	 mov	 DWORD PTR [esi+3720], 0
  002ff	e8 00 00 00 00	 call	 ?FailedChaosMix@CAchievements@@QAEXH@Z ; CAchievements::FailedChaosMix
  00304	5f		 pop	 edi

; 3276 : #endif
; 3277 : 	}
; 3278 : 
; 3279 : 	lpObj->ChaosLock = FALSE;

  00305	c7 86 88 0e 00
	00 00 00 00 00	 mov	 DWORD PTR [esi+3720], 0
  0030f	5e		 pop	 esi
  00310	5b		 pop	 ebx

; 3280 : }

  00311	8b 4d fc	 mov	 ecx, DWORD PTR __$ArrayPad$[ebp]
  00314	33 cd		 xor	 ecx, ebp
  00316	e8 00 00 00 00	 call	 @__security_check_cookie@4
  0031b	8b e5		 mov	 esp, ebp
  0031d	5d		 pop	 ebp
  0031e	c2 04 00	 ret	 4
$LN20@HiddenTrea:

; 3228 : 		}
; 3229 : 	}
; 3230 : 	else
; 3231 : 	{
; 3232 : 		LogAddTD("[Hidden TreasureBox Event] [%s][%s] Item Mix Failed",	lpObj->AccountID, lpObj->Name);

  00321	8d 46 77	 lea	 eax, DWORD PTR [esi+119]
  00324	50		 push	 eax
  00325	8d 4e 6c	 lea	 ecx, DWORD PTR [esi+108]
  00328	51		 push	 ecx
  00329	68 00 00 00 00	 push	 OFFSET ??_C@_0DE@OHGHLCDC@?$FLHidden?5TreasureBox?5Event?$FN?5?$FL?$CFs?$FN?$FL@
  0032e	ff 15 00 00 00
	00		 call	 DWORD PTR ?LogAddTD@@3P6AXPADZZA ; LogAddTD

; 3233 : 		DataSend(lpObj->m_Index, (LPBYTE)&pMsg, pMsg.h.size);

  00334	0f b6 55 ed	 movzx	 edx, BYTE PTR _pMsg$[ebp+1]
  00338	8b 0e		 mov	 ecx, DWORD PTR [esi]
  0033a	52		 push	 edx
  0033b	8d 45 ec	 lea	 eax, DWORD PTR _pMsg$[ebp]
  0033e	50		 push	 eax
  0033f	51		 push	 ecx
  00340	e8 00 00 00 00	 call	 ?DataSend@@YAHHPAEK@Z	; DataSend

; 3280 : }

  00345	8b 4d fc	 mov	 ecx, DWORD PTR __$ArrayPad$[ebp]
  00348	83 c4 18	 add	 esp, 24			; 00000018H
  0034b	89 be 88 0e 00
	00		 mov	 DWORD PTR [esi+3720], edi
  00351	5f		 pop	 edi
  00352	5e		 pop	 esi
  00353	33 cd		 xor	 ecx, ebp
  00355	5b		 pop	 ebx
  00356	e8 00 00 00 00	 call	 @__security_check_cookie@4
  0035b	8b e5		 mov	 esp, ebp
  0035d	5d		 pop	 ebp
  0035e	c2 04 00	 ret	 4
?HiddenTreasureBoxItemMix@CMixSystem@@QAEXPAUOBJECTSTRUCT@@@Z ENDP ; CMixSystem::HiddenTreasureBoxItemMix
_TEXT	ENDS
PUBLIC	??_C@_0EM@IAKFEJP@?$FLFenrir?5Mix?$FN?$FLLevel?501?$FN?5?$FL?$CFs?$FN?$FL?$CFs?$FN?5@ ; `string'
PUBLIC	??_C@_0EP@MODCEFAF@?$FLFenrir?5Mix?$FN?$FLLevel?501?$FN?5?$FL?$CFs?$FN?$FL?$CFs?$FN?5@ ; `string'
PUBLIC	??_C@_0CH@FLCJIMPD@?$FLFenrir?5Mix?$FN?$FLLevel?501?$FN?5Chaos?5Mix@ ; `string'
PUBLIC	??_C@_0BD@FNEHOIBM@Fenrir_01Level_Mix?$AA@	; `string'
PUBLIC	__$ArrayPad$
PUBLIC	?Fenrir_01Level_Mix@CMixSystem@@QAEXPAUOBJECTSTRUCT@@@Z ; CMixSystem::Fenrir_01Level_Mix
EXTRN	?g_iFenrir_01Level_MixRate@@3HA:DWORD		; g_iFenrir_01Level_MixRate
;	COMDAT ??_C@_0EM@IAKFEJP@?$FLFenrir?5Mix?$FN?$FLLevel?501?$FN?5?$FL?$CFs?$FN?$FL?$CFs?$FN?5@
CONST	SEGMENT
??_C@_0EM@IAKFEJP@?$FLFenrir?5Mix?$FN?$FLLevel?501?$FN?5?$FL?$CFs?$FN?$FL?$CFs?$FN?5@ DB '['
	DB	'Fenrir Mix][Level 01] [%s][%s] CBMix Fail %d Money : %d-%d, C'
	DB	'harmRate : %d', 00H				; `string'
CONST	ENDS
;	COMDAT ??_C@_0EP@MODCEFAF@?$FLFenrir?5Mix?$FN?$FLLevel?501?$FN?5?$FL?$CFs?$FN?$FL?$CFs?$FN?5@
CONST	SEGMENT
??_C@_0EP@MODCEFAF@?$FLFenrir?5Mix?$FN?$FLLevel?501?$FN?5?$FL?$CFs?$FN?$FL?$CFs?$FN?5@ DB '['
	DB	'Fenrir Mix][Level 01] [%s][%s] CBMix Success %d Money : %d-%d'
	DB	', CharmRate : %d', 00H			; `string'
CONST	ENDS
;	COMDAT ??_C@_0CH@FLCJIMPD@?$FLFenrir?5Mix?$FN?$FLLevel?501?$FN?5Chaos?5Mix@
CONST	SEGMENT
??_C@_0CH@FLCJIMPD@?$FLFenrir?5Mix?$FN?$FLLevel?501?$FN?5Chaos?5Mix@ DB '['
	DB	'Fenrir Mix][Level 01] Chaos Mix Start', 00H	; `string'
CONST	ENDS
;	COMDAT ??_C@_0BD@FNEHOIBM@Fenrir_01Level_Mix?$AA@
CONST	SEGMENT
??_C@_0BD@FNEHOIBM@Fenrir_01Level_Mix?$AA@ DB 'Fenrir_01Level_Mix', 00H ; `string'
; Function compile flags: /Ogtp
CONST	ENDS
;	COMDAT ?Fenrir_01Level_Mix@CMixSystem@@QAEXPAUOBJECTSTRUCT@@@Z
_TEXT	SEGMENT
_this$ = -40						; size = 4
_iStuffCount_01$ = -36					; size = 4
_iStuffCount_02$ = -32					; size = 4
_iInvalidItemCount$ = -28				; size = 4
_iChaosGemCount$ = -24					; size = 4
_pMsg$ = -20						; size = 16
__$ArrayPad$ = -4					; size = 4
_lpObj$ = 8						; size = 4
?Fenrir_01Level_Mix@CMixSystem@@QAEXPAUOBJECTSTRUCT@@@Z PROC ; CMixSystem::Fenrir_01Level_Mix, COMDAT
; _this$ = ecx

; 3283 : {

  00000	55		 push	 ebp
  00001	8b ec		 mov	 ebp, esp
  00003	83 ec 28	 sub	 esp, 40			; 00000028H
  00006	a1 00 00 00 00	 mov	 eax, DWORD PTR ___security_cookie
  0000b	33 c5		 xor	 eax, ebp
  0000d	89 45 fc	 mov	 DWORD PTR __$ArrayPad$[ebp], eax
  00010	53		 push	 ebx
  00011	56		 push	 esi
  00012	8b 75 08	 mov	 esi, DWORD PTR _lpObj$[ebp]
  00015	57		 push	 edi

; 3284 : 	lpObj->ChaosLock = TRUE;
; 3285 : 	int iStuffCount_01 = 0;
; 3286 : 	int iStuffCount_02 = 0;
; 3287 : 	int iChaosGemCount = 0;
; 3288 : 	int iInvalidItemCount = 0;
; 3289 : 	int iChaosMoney = 0;
; 3290 : 	int iCharmOfLuckCount = 0;
; 3291 : 
; 3292 : 	PMSG_CHAOSMIXRESULT pMsg;
; 3293 : 
; 3294 : 	PHeadSetB((LPBYTE)&pMsg.h, 0x86, sizeof(PMSG_CHAOSMIXRESULT));

  00016	6a 10		 push	 16			; 00000010H
  00018	33 ff		 xor	 edi, edi
  0001a	8d 45 ec	 lea	 eax, DWORD PTR _pMsg$[ebp]
  0001d	68 86 00 00 00	 push	 134			; 00000086H
  00022	50		 push	 eax
  00023	89 4d d8	 mov	 DWORD PTR _this$[ebp], ecx
  00026	c7 86 88 0e 00
	00 01 00 00 00	 mov	 DWORD PTR [esi+3720], 1
  00030	89 7d dc	 mov	 DWORD PTR _iStuffCount_01$[ebp], edi
  00033	89 7d e0	 mov	 DWORD PTR _iStuffCount_02$[ebp], edi
  00036	89 7d e8	 mov	 DWORD PTR _iChaosGemCount$[ebp], edi
  00039	89 7d e4	 mov	 DWORD PTR _iInvalidItemCount$[ebp], edi
  0003c	33 db		 xor	 ebx, ebx
  0003e	e8 00 00 00 00	 call	 ?PHeadSetB@@YAXPAEEH@Z	; PHeadSetB
  00043	83 c4 0c	 add	 esp, 12			; 0000000cH

; 3295 : 	pMsg.Result = CB_ERROR;

  00046	88 5d ef	 mov	 BYTE PTR _pMsg$[ebp+3], bl
  00049	8d a4 24 00 00
	00 00		 npad	 7
$LL20@Fenrir_01L:

; 3299 : 	{
; 3300 : 		if ( lpObj->pChaosBox[n].IsItem() == TRUE )

  00050	8b 8e 78 0e 00
	00		 mov	 ecx, DWORD PTR [esi+3704]
  00056	03 cf		 add	 ecx, edi
  00058	e8 00 00 00 00	 call	 ?IsItem@CItem@@QAEHXZ	; CItem::IsItem
  0005d	83 f8 01	 cmp	 eax, 1
  00060	75 63		 jne	 SHORT $LN19@Fenrir_01L

; 3301 : 		{
; 3302 : 			if ( lpObj->pChaosBox[n].m_Type == ITEMGET(13,32) )

  00062	8b 8e 78 0e 00
	00		 mov	 ecx, DWORD PTR [esi+3704]
  00068	0f b7 44 39 06	 movzx	 eax, WORD PTR [ecx+edi+6]
  0006d	03 cf		 add	 ecx, edi
  0006f	ba 20 1a 00 00	 mov	 edx, 6688		; 00001a20H
  00074	66 3b c2	 cmp	 ax, dx
  00077	75 0d		 jne	 SHORT $LN16@Fenrir_01L

; 3303 : 			{
; 3304 : 				iStuffCount_01 += (int)lpObj->pChaosBox[n].m_Durability;

  00079	d9 41 24	 fld	 DWORD PTR [ecx+36]
  0007c	e8 00 00 00 00	 call	 __ftol2_sse
  00081	01 45 dc	 add	 DWORD PTR _iStuffCount_01$[ebp], eax
  00084	eb 3f		 jmp	 SHORT $LN19@Fenrir_01L
$LN16@Fenrir_01L:

; 3305 : 			}
; 3306 : 			else if ( lpObj->pChaosBox[n].m_Type == ITEMGET(13,33) )

  00086	ba 21 1a 00 00	 mov	 edx, 6689		; 00001a21H
  0008b	66 3b c2	 cmp	 ax, dx
  0008e	75 0d		 jne	 SHORT $LN14@Fenrir_01L

; 3307 : 			{
; 3308 : 				iStuffCount_02 += (int)lpObj->pChaosBox[n].m_Durability;

  00090	d9 41 24	 fld	 DWORD PTR [ecx+36]
  00093	e8 00 00 00 00	 call	 __ftol2_sse
  00098	01 45 e0	 add	 DWORD PTR _iStuffCount_02$[ebp], eax
  0009b	eb 28		 jmp	 SHORT $LN19@Fenrir_01L
$LN14@Fenrir_01L:

; 3309 : 			}
; 3310 : 			else if ( lpObj->pChaosBox[n].m_Type == ITEMGET(12,15) )

  0009d	ba 0f 18 00 00	 mov	 edx, 6159		; 0000180fH
  000a2	66 3b c2	 cmp	 ax, dx
  000a5	75 05		 jne	 SHORT $LN12@Fenrir_01L

; 3311 : 			{
; 3312 : 				iChaosGemCount++;

  000a7	ff 45 e8	 inc	 DWORD PTR _iChaosGemCount$[ebp]
  000aa	eb 19		 jmp	 SHORT $LN19@Fenrir_01L
$LN12@Fenrir_01L:

; 3313 : 			}
; 3314 : 			else if ( lpObj->pChaosBox[n].m_Type == ITEMGET(14,53) )	// Charm Of Luck

  000ac	ba 35 1c 00 00	 mov	 edx, 7221		; 00001c35H
  000b1	66 3b c2	 cmp	 ax, dx
  000b4	75 0c		 jne	 SHORT $LN10@Fenrir_01L

; 3315 : 			{
; 3316 : 				iCharmOfLuckCount += (int)lpObj->pChaosBox[n].m_Durability;

  000b6	d9 41 24	 fld	 DWORD PTR [ecx+36]
  000b9	e8 00 00 00 00	 call	 __ftol2_sse
  000be	03 d8		 add	 ebx, eax

; 3317 : 			}
; 3318 : 			else

  000c0	eb 03		 jmp	 SHORT $LN19@Fenrir_01L
$LN10@Fenrir_01L:

; 3319 : 			{
; 3320 : 				iInvalidItemCount++;

  000c2	ff 45 e4	 inc	 DWORD PTR _iInvalidItemCount$[ebp]
$LN19@Fenrir_01L:

; 3296 : 
; 3297 : 
; 3298 : 	for ( int n=0;n<CHAOS_BOX_SIZE;n++)

  000c5	81 c7 d4 00 00
	00		 add	 edi, 212		; 000000d4H
  000cb	81 ff 80 1a 00
	00		 cmp	 edi, 6784		; 00001a80H
  000d1	0f 8c 79 ff ff
	ff		 jl	 $LL20@Fenrir_01L

; 3321 : 			}
; 3322 : 		}
; 3323 : 	}
; 3324 : 
; 3325 : 	if ( iStuffCount_01 != 20 || iStuffCount_02 != 20 || iChaosGemCount != 1 || iInvalidItemCount > 0 )

  000d7	b8 14 00 00 00	 mov	 eax, 20			; 00000014H
  000dc	39 45 dc	 cmp	 DWORD PTR _iStuffCount_01$[ebp], eax
  000df	75 7c		 jne	 SHORT $LN25@Fenrir_01L
  000e1	39 45 e0	 cmp	 DWORD PTR _iStuffCount_02$[ebp], eax
  000e4	75 77		 jne	 SHORT $LN25@Fenrir_01L
  000e6	83 7d e8 01	 cmp	 DWORD PTR _iChaosGemCount$[ebp], 1
  000ea	75 71		 jne	 SHORT $LN25@Fenrir_01L
  000ec	83 7d e4 00	 cmp	 DWORD PTR _iInvalidItemCount$[ebp], 0
  000f0	7f 6b		 jg	 SHORT $LN25@Fenrir_01L

; 3329 : 		return;
; 3330 : 	}
; 3331 : 	
; 3332 : 	if ( iCharmOfLuckCount > 10 )

  000f2	83 fb 0a	 cmp	 ebx, 10			; 0000000aH
  000f5	7e 12		 jle	 SHORT $LN6@Fenrir_01L

; 3333 : 	{
; 3334 : 		pMsg.Result = 0xF0;
; 3335 : 		DataSend(lpObj->m_Index, (LPBYTE)&pMsg, pMsg.h.size);

  000f7	0f b6 45 ed	 movzx	 eax, BYTE PTR _pMsg$[ebp+1]
  000fb	8b 16		 mov	 edx, DWORD PTR [esi]
  000fd	50		 push	 eax
  000fe	8d 4d ec	 lea	 ecx, DWORD PTR _pMsg$[ebp]
  00101	51		 push	 ecx
  00102	c6 45 ef f0	 mov	 BYTE PTR _pMsg$[ebp+3], 240 ; 000000f0H
  00106	52		 push	 edx

; 3336 : 		lpObj->ChaosLock = FALSE;
; 3337 : 		return;

  00107	eb 60		 jmp	 SHORT $LN26@Fenrir_01L
$LN6@Fenrir_01L:

; 3338 : 	}
; 3339 : 
; 3340 : 	LogChaosItem(lpObj, "Fenrir_01Level_Mix");

  00109	8b 4d d8	 mov	 ecx, DWORD PTR _this$[ebp]
  0010c	68 00 00 00 00	 push	 OFFSET ??_C@_0BD@FNEHOIBM@Fenrir_01Level_Mix?$AA@
  00111	56		 push	 esi
  00112	e8 00 00 00 00	 call	 ?LogChaosItem@CMixSystem@@QAEXPAUOBJECTSTRUCT@@PAD@Z ; CMixSystem::LogChaosItem

; 3341 : 	LogAddTD("[Fenrir Mix][Level 01] Chaos Mix Start");

  00117	68 00 00 00 00	 push	 OFFSET ??_C@_0CH@FLCJIMPD@?$FLFenrir?5Mix?$FN?$FLLevel?501?$FN?5Chaos?5Mix@
  0011c	ff 15 00 00 00
	00		 call	 DWORD PTR ?LogAddTD@@3P6AXPADZZA ; LogAddTD

; 3342 : 
; 3343 : 	lpObj->ChaosSuccessRate = g_iFenrir_01Level_MixRate;
; 3344 : 	lpObj->ChaosSuccessRate += iCharmOfLuckCount;
; 3345 : 	int nChaosNeedMoney = 0;
; 3346 : 
; 3347 : 	int iChaosTaxMoney = (int)((__int64)nChaosNeedMoney * (__int64)g_CastleSiegeSync.GetTaxRateChaos(lpObj->m_Index) / (__int64)100);

  00122	8b 0e		 mov	 ecx, DWORD PTR [esi]
  00124	a1 00 00 00 00	 mov	 eax, DWORD PTR ?g_iFenrir_01Level_MixRate@@3HA ; g_iFenrir_01Level_MixRate
  00129	83 c4 04	 add	 esp, 4
  0012c	51		 push	 ecx
  0012d	89 86 84 0e 00
	00		 mov	 DWORD PTR [esi+3716], eax
  00133	01 9e 84 0e 00
	00		 add	 DWORD PTR [esi+3716], ebx
  00139	b9 00 00 00 00	 mov	 ecx, OFFSET ?g_CastleSiegeSync@@3VCCastleSiegeSync@@A ; g_CastleSiegeSync
  0013e	e8 00 00 00 00	 call	 ?GetTaxRateChaos@CCastleSiegeSync@@QAEHH@Z ; CCastleSiegeSync::GetTaxRateChaos

; 3348 : 
; 3349 : 	if ( iChaosTaxMoney < 0 )
; 3350 : 	{
; 3351 : 		iChaosTaxMoney = 0;
; 3352 : 	}
; 3353 : 
; 3354 : 	nChaosNeedMoney += iChaosTaxMoney;
; 3355 : 
; 3356 : 	nChaosNeedMoney += lpObj->m_AddMixMoney;

  00143	8b be 20 28 00
	00		 mov	 edi, DWORD PTR [esi+10272]

; 3357 : 
; 3358 : 	if ( nChaosNeedMoney < 0 )

  00149	85 ff		 test	 edi, edi
  0014b	79 02		 jns	 SHORT $LN4@Fenrir_01L

; 3359 : 	{
; 3360 : 		nChaosNeedMoney = 0;

  0014d	33 ff		 xor	 edi, edi
$LN4@Fenrir_01L:

; 3361 : 	}
; 3362 : 
; 3363 : 	if ( lpObj->Money < nChaosNeedMoney )

  0014f	8b 86 f0 00 00
	00		 mov	 eax, DWORD PTR [esi+240]
  00155	3b c7		 cmp	 eax, edi
  00157	7d 35		 jge	 SHORT $LN3@Fenrir_01L

; 3364 : 	{
; 3365 : 		pMsg.Result = CB_NOT_ENOUGH_ZEN;

  00159	c6 45 ef 02	 mov	 BYTE PTR _pMsg$[ebp+3], 2
$LN25@Fenrir_01L:

; 3326 : 	{
; 3327 : 		DataSend(lpObj->m_Index, (LPBYTE)&pMsg, pMsg.h.size);

  0015d	0f b6 55 ed	 movzx	 edx, BYTE PTR _pMsg$[ebp+1]
  00161	8b 0e		 mov	 ecx, DWORD PTR [esi]
  00163	52		 push	 edx
  00164	8d 45 ec	 lea	 eax, DWORD PTR _pMsg$[ebp]
  00167	50		 push	 eax
  00168	51		 push	 ecx
$LN26@Fenrir_01L:
  00169	e8 00 00 00 00	 call	 ?DataSend@@YAHHPAEK@Z	; DataSend
  0016e	83 c4 0c	 add	 esp, 12			; 0000000cH
  00171	5f		 pop	 edi

; 3328 : 		lpObj->ChaosLock = FALSE;

  00172	c7 86 88 0e 00
	00 00 00 00 00	 mov	 DWORD PTR [esi+3720], 0
  0017c	5e		 pop	 esi
  0017d	5b		 pop	 ebx

; 3401 : #endif
; 3402 : 	}
; 3403 : }

  0017e	8b 4d fc	 mov	 ecx, DWORD PTR __$ArrayPad$[ebp]
  00181	33 cd		 xor	 ecx, ebp
  00183	e8 00 00 00 00	 call	 @__security_check_cookie@4
  00188	8b e5		 mov	 esp, ebp
  0018a	5d		 pop	 ebp
  0018b	c2 04 00	 ret	 4
$LN3@Fenrir_01L:

; 3366 : 		
; 3367 : 		DataSend(lpObj->m_Index, (LPBYTE)&pMsg, pMsg.h.size);
; 3368 : 		lpObj->ChaosLock = FALSE;
; 3369 : 
; 3370 : 		return;
; 3371 : 	}
; 3372 : 
; 3373 : 	lpObj->ChaosSuccessRate += lpObj->m_AddMixSuccessRate;

  0018e	8b 96 24 28 00
	00		 mov	 edx, DWORD PTR [esi+10276]
  00194	01 96 84 0e 00
	00		 add	 DWORD PTR [esi+3716], edx

; 3374 : 
; 3375 : 	lpObj->Money -= nChaosNeedMoney;

  0019a	2b c7		 sub	 eax, edi

; 3376 : 	g_CastleSiegeSync.AddTributeMoney(iChaosTaxMoney);

  0019c	6a 00		 push	 0
  0019e	b9 00 00 00 00	 mov	 ecx, OFFSET ?g_CastleSiegeSync@@3VCCastleSiegeSync@@A ; g_CastleSiegeSync
  001a3	89 86 f0 00 00
	00		 mov	 DWORD PTR [esi+240], eax
  001a9	e8 00 00 00 00	 call	 ?AddTributeMoney@CCastleSiegeSync@@QAEXH@Z ; CCastleSiegeSync::AddTributeMoney

; 3377 : 	GCMoneySend(lpObj->m_Index, lpObj->Money);

  001ae	8b 86 f0 00 00
	00		 mov	 eax, DWORD PTR [esi+240]
  001b4	8b 0e		 mov	 ecx, DWORD PTR [esi]
  001b6	50		 push	 eax
  001b7	51		 push	 ecx
  001b8	e8 00 00 00 00	 call	 ?GCMoneySend@@YAXHK@Z	; GCMoneySend
  001bd	83 c4 08	 add	 esp, 8

; 3378 : 
; 3379 : 	if ( (rand()%100) < lpObj->ChaosSuccessRate )

  001c0	e8 00 00 00 00	 call	 _rand
  001c5	99		 cdq
  001c6	b9 64 00 00 00	 mov	 ecx, 100		; 00000064H
  001cb	f7 f9		 idiv	 ecx
  001cd	3b 96 84 0e 00
	00		 cmp	 edx, DWORD PTR [esi+3716]
  001d3	7d 74		 jge	 SHORT $LN2@Fenrir_01L

; 3380 : 	{
; 3381 : 		int type = ITEMGET(13,35);
; 3382 : 		int level = 0;
; 3383 : 		int dur = 1;
; 3384 : 
; 3385 : 		ItemSerialCreateSend(lpObj->m_Index, -1, 0, 0, type , (BYTE)level, (BYTE)dur, 0, 0, 0, -1, 0, 0);

  001d5	6a 00		 push	 0
  001d7	8b 16		 mov	 edx, DWORD PTR [esi]
  001d9	6a 00		 push	 0
  001db	6a ff		 push	 -1
  001dd	6a 00		 push	 0
  001df	6a 00		 push	 0
  001e1	6a 00		 push	 0
  001e3	6a 01		 push	 1
  001e5	6a 00		 push	 0
  001e7	68 23 1a 00 00	 push	 6691			; 00001a23H
  001ec	6a 00		 push	 0
  001ee	6a 00		 push	 0
  001f0	68 ff 00 00 00	 push	 255			; 000000ffH
  001f5	52		 push	 edx
  001f6	e8 00 00 00 00	 call	 ?ItemSerialCreateSend@@YAXHEEEHEEEEEHEE@Z ; ItemSerialCreateSend

; 3386 : 		::gObjInventoryCommit(lpObj->m_Index);

  001fb	8b 06		 mov	 eax, DWORD PTR [esi]
  001fd	50		 push	 eax
  001fe	e8 00 00 00 00	 call	 ?gObjInventoryCommit@@YAHH@Z ; gObjInventoryCommit

; 3387 : 		LogAddTD("[Fenrir Mix][Level 01] [%s][%s] CBMix Success %d Money : %d-%d, CharmRate : %d", lpObj->AccountID, lpObj->Name, lpObj->ChaosSuccessRate, lpObj->Money, nChaosNeedMoney, iCharmOfLuckCount);

  00203	8b 8e f0 00 00
	00		 mov	 ecx, DWORD PTR [esi+240]
  00209	8b 96 84 0e 00
	00		 mov	 edx, DWORD PTR [esi+3716]
  0020f	53		 push	 ebx
  00210	57		 push	 edi
  00211	51		 push	 ecx
  00212	52		 push	 edx
  00213	8d 46 77	 lea	 eax, DWORD PTR [esi+119]
  00216	50		 push	 eax
  00217	8d 4e 6c	 lea	 ecx, DWORD PTR [esi+108]
  0021a	51		 push	 ecx
  0021b	68 00 00 00 00	 push	 OFFSET ??_C@_0EP@MODCEFAF@?$FLFenrir?5Mix?$FN?$FLLevel?501?$FN?5?$FL?$CFs?$FN?$FL?$CFs?$FN?5@
  00220	ff 15 00 00 00
	00		 call	 DWORD PTR ?LogAddTD@@3P6AXPADZZA ; LogAddTD

; 3388 : #if(SYSTEM_ACHIEVEMENTS)
; 3389 : 		g_Achievements.SuccessChaosMix(lpObj->m_Index);

  00226	8b 16		 mov	 edx, DWORD PTR [esi]
  00228	83 c4 54	 add	 esp, 84			; 00000054H
  0022b	52		 push	 edx
  0022c	b9 00 00 00 00	 mov	 ecx, OFFSET ?g_Achievements@@3VCAchievements@@A ; g_Achievements
  00231	e8 00 00 00 00	 call	 ?SuccessChaosMix@CAchievements@@QAEXH@Z ; CAchievements::SuccessChaosMix
  00236	5f		 pop	 edi
  00237	5e		 pop	 esi
  00238	5b		 pop	 ebx

; 3401 : #endif
; 3402 : 	}
; 3403 : }

  00239	8b 4d fc	 mov	 ecx, DWORD PTR __$ArrayPad$[ebp]
  0023c	33 cd		 xor	 ecx, ebp
  0023e	e8 00 00 00 00	 call	 @__security_check_cookie@4
  00243	8b e5		 mov	 esp, ebp
  00245	5d		 pop	 ebp
  00246	c2 04 00	 ret	 4
$LN2@Fenrir_01L:

; 3390 : #endif
; 3391 : 	}
; 3392 : 	else
; 3393 : 	{
; 3394 : 		this->ChaosBoxInit(lpObj);

  00249	8b 4d d8	 mov	 ecx, DWORD PTR _this$[ebp]
  0024c	56		 push	 esi
  0024d	e8 00 00 00 00	 call	 ?ChaosBoxInit@CMixSystem@@QAEHPAUOBJECTSTRUCT@@@Z ; CMixSystem::ChaosBoxInit

; 3395 : 		::GCUserChaosBoxSend(lpObj, 0);

  00252	6a 00		 push	 0
  00254	56		 push	 esi
  00255	e8 00 00 00 00	 call	 ?GCUserChaosBoxSend@@YAXPAUOBJECTSTRUCT@@H@Z ; GCUserChaosBoxSend

; 3396 : 		DataSend(lpObj->m_Index, (LPBYTE)&pMsg, pMsg.h.size);

  0025a	0f b6 45 ed	 movzx	 eax, BYTE PTR _pMsg$[ebp+1]
  0025e	8b 16		 mov	 edx, DWORD PTR [esi]
  00260	50		 push	 eax
  00261	8d 4d ec	 lea	 ecx, DWORD PTR _pMsg$[ebp]
  00264	51		 push	 ecx
  00265	52		 push	 edx
  00266	e8 00 00 00 00	 call	 ?DataSend@@YAHHPAEK@Z	; DataSend

; 3397 : 		LogAddTD("[Fenrir Mix][Level 01] [%s][%s] CBMix Fail %d Money : %d-%d, CharmRate : %d", lpObj->AccountID, lpObj->Name, lpObj->ChaosSuccessRate, lpObj->Money, nChaosNeedMoney, iCharmOfLuckCount);

  0026b	8b 86 f0 00 00
	00		 mov	 eax, DWORD PTR [esi+240]
  00271	8b 8e 84 0e 00
	00		 mov	 ecx, DWORD PTR [esi+3716]
  00277	53		 push	 ebx
  00278	57		 push	 edi
  00279	50		 push	 eax
  0027a	51		 push	 ecx
  0027b	8d 56 77	 lea	 edx, DWORD PTR [esi+119]
  0027e	52		 push	 edx
  0027f	8d 46 6c	 lea	 eax, DWORD PTR [esi+108]
  00282	50		 push	 eax
  00283	68 00 00 00 00	 push	 OFFSET ??_C@_0EM@IAKFEJP@?$FLFenrir?5Mix?$FN?$FLLevel?501?$FN?5?$FL?$CFs?$FN?$FL?$CFs?$FN?5@
  00288	ff 15 00 00 00
	00		 call	 DWORD PTR ?LogAddTD@@3P6AXPADZZA ; LogAddTD

; 3398 : 		lpObj->ChaosLock = FALSE;
; 3399 : #if(SYSTEM_ACHIEVEMENTS)
; 3400 : 		g_Achievements.FailedChaosMix(lpObj->m_Index);

  0028e	8b 0e		 mov	 ecx, DWORD PTR [esi]
  00290	83 c4 30	 add	 esp, 48			; 00000030H
  00293	51		 push	 ecx
  00294	b9 00 00 00 00	 mov	 ecx, OFFSET ?g_Achievements@@3VCAchievements@@A ; g_Achievements
  00299	c7 86 88 0e 00
	00 00 00 00 00	 mov	 DWORD PTR [esi+3720], 0
  002a3	e8 00 00 00 00	 call	 ?FailedChaosMix@CAchievements@@QAEXH@Z ; CAchievements::FailedChaosMix

; 3401 : #endif
; 3402 : 	}
; 3403 : }

  002a8	8b 4d fc	 mov	 ecx, DWORD PTR __$ArrayPad$[ebp]
  002ab	5f		 pop	 edi
  002ac	5e		 pop	 esi
  002ad	33 cd		 xor	 ecx, ebp
  002af	5b		 pop	 ebx
  002b0	e8 00 00 00 00	 call	 @__security_check_cookie@4
  002b5	8b e5		 mov	 esp, ebp
  002b7	5d		 pop	 ebp
  002b8	c2 04 00	 ret	 4
?Fenrir_01Level_Mix@CMixSystem@@QAEXPAUOBJECTSTRUCT@@@Z ENDP ; CMixSystem::Fenrir_01Level_Mix
_TEXT	ENDS
PUBLIC	??_C@_0EM@COLFGAOG@?$FLFenrir?5Mix?$FN?$FLLevel?502?$FN?5?$FL?$CFs?$FN?$FL?$CFs?$FN?5@ ; `string'
PUBLIC	??_C@_0EP@HFOGELBG@?$FLFenrir?5Mix?$FN?$FLLevel?502?$FN?5?$FL?$CFs?$FN?$FL?$CFs?$FN?5@ ; `string'
PUBLIC	??_C@_0CH@PIHPAKFK@?$FLFenrir?5Mix?$FN?$FLLevel?502?$FN?5Chaos?5Mix@ ; `string'
PUBLIC	??_C@_0BD@MEKFIOBN@Fenrir_02Level_Mix?$AA@	; `string'
PUBLIC	__$ArrayPad$
PUBLIC	?Fenrir_02Level_Mix@CMixSystem@@QAEXPAUOBJECTSTRUCT@@@Z ; CMixSystem::Fenrir_02Level_Mix
EXTRN	?g_iFenrir_02Level_MixRate@@3HA:DWORD		; g_iFenrir_02Level_MixRate
;	COMDAT ??_C@_0EM@COLFGAOG@?$FLFenrir?5Mix?$FN?$FLLevel?502?$FN?5?$FL?$CFs?$FN?$FL?$CFs?$FN?5@
CONST	SEGMENT
??_C@_0EM@COLFGAOG@?$FLFenrir?5Mix?$FN?$FLLevel?502?$FN?5?$FL?$CFs?$FN?$FL?$CFs?$FN?5@ DB '['
	DB	'Fenrir Mix][Level 02] [%s][%s] CBMix Fail %d Money : %d-%d, C'
	DB	'harmRate : %d', 00H				; `string'
CONST	ENDS
;	COMDAT ??_C@_0EP@HFOGELBG@?$FLFenrir?5Mix?$FN?$FLLevel?502?$FN?5?$FL?$CFs?$FN?$FL?$CFs?$FN?5@
CONST	SEGMENT
??_C@_0EP@HFOGELBG@?$FLFenrir?5Mix?$FN?$FLLevel?502?$FN?5?$FL?$CFs?$FN?$FL?$CFs?$FN?5@ DB '['
	DB	'Fenrir Mix][Level 02] [%s][%s] CBMix Success %d Money : %d-%d'
	DB	', CharmRate : %d', 00H			; `string'
CONST	ENDS
;	COMDAT ??_C@_0CH@PIHPAKFK@?$FLFenrir?5Mix?$FN?$FLLevel?502?$FN?5Chaos?5Mix@
CONST	SEGMENT
??_C@_0CH@PIHPAKFK@?$FLFenrir?5Mix?$FN?$FLLevel?502?$FN?5Chaos?5Mix@ DB '['
	DB	'Fenrir Mix][Level 02] Chaos Mix Start', 00H	; `string'
CONST	ENDS
;	COMDAT ??_C@_0BD@MEKFIOBN@Fenrir_02Level_Mix?$AA@
CONST	SEGMENT
??_C@_0BD@MEKFIOBN@Fenrir_02Level_Mix?$AA@ DB 'Fenrir_02Level_Mix', 00H ; `string'
; Function compile flags: /Ogtp
CONST	ENDS
;	COMDAT ?Fenrir_02Level_Mix@CMixSystem@@QAEXPAUOBJECTSTRUCT@@@Z
_TEXT	SEGMENT
_this$ = -40						; size = 4
_iStuffCount_01$ = -36					; size = 4
_iStuffCount_02$ = -32					; size = 4
_iInvalidItemCount$ = -28				; size = 4
_iChaosGemCount$ = -24					; size = 4
_pMsg$ = -20						; size = 16
__$ArrayPad$ = -4					; size = 4
_lpObj$ = 8						; size = 4
?Fenrir_02Level_Mix@CMixSystem@@QAEXPAUOBJECTSTRUCT@@@Z PROC ; CMixSystem::Fenrir_02Level_Mix, COMDAT
; _this$ = ecx

; 3407 : {

  00000	55		 push	 ebp
  00001	8b ec		 mov	 ebp, esp
  00003	83 ec 28	 sub	 esp, 40			; 00000028H
  00006	a1 00 00 00 00	 mov	 eax, DWORD PTR ___security_cookie
  0000b	33 c5		 xor	 eax, ebp
  0000d	89 45 fc	 mov	 DWORD PTR __$ArrayPad$[ebp], eax
  00010	53		 push	 ebx
  00011	56		 push	 esi
  00012	8b 75 08	 mov	 esi, DWORD PTR _lpObj$[ebp]
  00015	57		 push	 edi

; 3408 : 	lpObj->ChaosLock = TRUE;
; 3409 : 	int iStuffCount_01 = 0;
; 3410 : 	int iStuffCount_02 = 0;
; 3411 : 	int iChaosGemCount = 0;
; 3412 : 	int iInvalidItemCount = 0;
; 3413 : 	int iChaosMoney = 0;
; 3414 : 	int iCharmOfLuckCount = 0;
; 3415 : 
; 3416 : 	PMSG_CHAOSMIXRESULT pMsg;
; 3417 : 
; 3418 : 	PHeadSetB((LPBYTE)&pMsg.h, 0x86, sizeof(PMSG_CHAOSMIXRESULT));

  00016	6a 10		 push	 16			; 00000010H
  00018	33 ff		 xor	 edi, edi
  0001a	8d 45 ec	 lea	 eax, DWORD PTR _pMsg$[ebp]
  0001d	68 86 00 00 00	 push	 134			; 00000086H
  00022	50		 push	 eax
  00023	89 4d d8	 mov	 DWORD PTR _this$[ebp], ecx
  00026	c7 86 88 0e 00
	00 01 00 00 00	 mov	 DWORD PTR [esi+3720], 1
  00030	89 7d dc	 mov	 DWORD PTR _iStuffCount_01$[ebp], edi
  00033	89 7d e0	 mov	 DWORD PTR _iStuffCount_02$[ebp], edi
  00036	89 7d e8	 mov	 DWORD PTR _iChaosGemCount$[ebp], edi
  00039	89 7d e4	 mov	 DWORD PTR _iInvalidItemCount$[ebp], edi
  0003c	33 db		 xor	 ebx, ebx
  0003e	e8 00 00 00 00	 call	 ?PHeadSetB@@YAXPAEEH@Z	; PHeadSetB
  00043	83 c4 0c	 add	 esp, 12			; 0000000cH

; 3419 : 	pMsg.Result = CB_ERROR;

  00046	88 5d ef	 mov	 BYTE PTR _pMsg$[ebp+3], bl
  00049	8d a4 24 00 00
	00 00		 npad	 7
$LL20@Fenrir_02L:

; 3423 : 	{
; 3424 : 		if ( lpObj->pChaosBox[n].IsItem() == TRUE )

  00050	8b 8e 78 0e 00
	00		 mov	 ecx, DWORD PTR [esi+3704]
  00056	03 cf		 add	 ecx, edi
  00058	e8 00 00 00 00	 call	 ?IsItem@CItem@@QAEHXZ	; CItem::IsItem
  0005d	83 f8 01	 cmp	 eax, 1
  00060	75 5b		 jne	 SHORT $LN19@Fenrir_02L

; 3425 : 		{
; 3426 : 			if ( lpObj->pChaosBox[n].m_Type == ITEMGET(13,34) )

  00062	8b 8e 78 0e 00
	00		 mov	 ecx, DWORD PTR [esi+3704]
  00068	0f b7 44 39 06	 movzx	 eax, WORD PTR [ecx+edi+6]
  0006d	ba 22 1a 00 00	 mov	 edx, 6690		; 00001a22H
  00072	66 3b c2	 cmp	 ax, dx
  00075	75 0e		 jne	 SHORT $LN16@Fenrir_02L

; 3427 : 			{
; 3428 : 				iStuffCount_01 += (int)lpObj->pChaosBox[n].m_Durability;

  00077	d9 44 39 24	 fld	 DWORD PTR [ecx+edi+36]
  0007b	e8 00 00 00 00	 call	 __ftol2_sse
  00080	01 45 dc	 add	 DWORD PTR _iStuffCount_01$[ebp], eax
  00083	eb 38		 jmp	 SHORT $LN19@Fenrir_02L
$LN16@Fenrir_02L:

; 3429 : 			}
; 3430 : 			else if ( lpObj->pChaosBox[n].m_Type == ITEMGET(13,35) )

  00085	ba 23 1a 00 00	 mov	 edx, 6691		; 00001a23H
  0008a	66 3b c2	 cmp	 ax, dx
  0008d	75 05		 jne	 SHORT $LN14@Fenrir_02L

; 3431 : 			{
; 3432 : 				iStuffCount_02 ++;

  0008f	ff 45 e0	 inc	 DWORD PTR _iStuffCount_02$[ebp]
  00092	eb 29		 jmp	 SHORT $LN19@Fenrir_02L
$LN14@Fenrir_02L:

; 3433 : 			}
; 3434 : 			else if ( lpObj->pChaosBox[n].m_Type == ITEMGET(12,15) )

  00094	ba 0f 18 00 00	 mov	 edx, 6159		; 0000180fH
  00099	66 3b c2	 cmp	 ax, dx
  0009c	75 05		 jne	 SHORT $LN12@Fenrir_02L

; 3435 : 			{
; 3436 : 				iChaosGemCount++;

  0009e	ff 45 e8	 inc	 DWORD PTR _iChaosGemCount$[ebp]
  000a1	eb 1a		 jmp	 SHORT $LN19@Fenrir_02L
$LN12@Fenrir_02L:

; 3437 : 			}
; 3438 : 			else if ( lpObj->pChaosBox[n].m_Type == ITEMGET(14,53) )	// Charm Of Luck

  000a3	ba 35 1c 00 00	 mov	 edx, 7221		; 00001c35H
  000a8	66 3b c2	 cmp	 ax, dx
  000ab	75 0d		 jne	 SHORT $LN10@Fenrir_02L

; 3439 : 			{
; 3440 : 				iCharmOfLuckCount += (int)lpObj->pChaosBox[n].m_Durability;

  000ad	d9 44 39 24	 fld	 DWORD PTR [ecx+edi+36]
  000b1	e8 00 00 00 00	 call	 __ftol2_sse
  000b6	03 d8		 add	 ebx, eax

; 3441 : 			}
; 3442 : 			else

  000b8	eb 03		 jmp	 SHORT $LN19@Fenrir_02L
$LN10@Fenrir_02L:

; 3443 : 			{
; 3444 : 				iInvalidItemCount++;

  000ba	ff 45 e4	 inc	 DWORD PTR _iInvalidItemCount$[ebp]
$LN19@Fenrir_02L:

; 3420 : 
; 3421 : 
; 3422 : 	for ( int n=0;n<CHAOS_BOX_SIZE;n++)

  000bd	81 c7 d4 00 00
	00		 add	 edi, 212		; 000000d4H
  000c3	81 ff 80 1a 00
	00		 cmp	 edi, 6784		; 00001a80H
  000c9	7c 85		 jl	 SHORT $LL20@Fenrir_02L

; 3445 : 			}
; 3446 : 		}
; 3447 : 	}
; 3448 : 
; 3449 : 	if ( iStuffCount_01 != 10 || iStuffCount_02 != 5 || iChaosGemCount != 1 || iInvalidItemCount > 0 )

  000cb	83 7d dc 0a	 cmp	 DWORD PTR _iStuffCount_01$[ebp], 10 ; 0000000aH
  000cf	0f 85 af 01 00
	00		 jne	 $LN25@Fenrir_02L
  000d5	83 7d e0 05	 cmp	 DWORD PTR _iStuffCount_02$[ebp], 5
  000d9	0f 85 a5 01 00
	00		 jne	 $LN25@Fenrir_02L
  000df	83 7d e8 01	 cmp	 DWORD PTR _iChaosGemCount$[ebp], 1
  000e3	0f 85 9b 01 00
	00		 jne	 $LN25@Fenrir_02L
  000e9	83 7d e4 00	 cmp	 DWORD PTR _iInvalidItemCount$[ebp], 0
  000ed	0f 8f 91 01 00
	00		 jg	 $LN25@Fenrir_02L

; 3452 : 		lpObj->ChaosLock = FALSE;
; 3453 : 
; 3454 : 		return;
; 3455 : 	}
; 3456 : 	
; 3457 : 	if ( iCharmOfLuckCount > 10 )

  000f3	83 fb 0a	 cmp	 ebx, 10			; 0000000aH
  000f6	7e 15		 jle	 SHORT $LN6@Fenrir_02L

; 3458 : 	{
; 3459 : 		pMsg.Result = 0xF0;
; 3460 : 		DataSend(lpObj->m_Index, (LPBYTE)&pMsg, pMsg.h.size);

  000f8	0f b6 45 ed	 movzx	 eax, BYTE PTR _pMsg$[ebp+1]
  000fc	8b 16		 mov	 edx, DWORD PTR [esi]
  000fe	50		 push	 eax
  000ff	8d 4d ec	 lea	 ecx, DWORD PTR _pMsg$[ebp]
  00102	51		 push	 ecx
  00103	c6 45 ef f0	 mov	 BYTE PTR _pMsg$[ebp+3], 240 ; 000000f0H
  00107	52		 push	 edx

; 3461 : 		lpObj->ChaosLock = FALSE;
; 3462 : 
; 3463 : 		return;

  00108	e9 83 01 00 00	 jmp	 $LN26@Fenrir_02L
$LN6@Fenrir_02L:

; 3464 : 	}
; 3465 : 
; 3466 : 	LogChaosItem(lpObj, "Fenrir_02Level_Mix");

  0010d	8b 4d d8	 mov	 ecx, DWORD PTR _this$[ebp]
  00110	68 00 00 00 00	 push	 OFFSET ??_C@_0BD@MEKFIOBN@Fenrir_02Level_Mix?$AA@
  00115	56		 push	 esi
  00116	e8 00 00 00 00	 call	 ?LogChaosItem@CMixSystem@@QAEXPAUOBJECTSTRUCT@@PAD@Z ; CMixSystem::LogChaosItem

; 3467 : 	LogAddTD("[Fenrir Mix][Level 02] Chaos Mix Start");

  0011b	68 00 00 00 00	 push	 OFFSET ??_C@_0CH@PIHPAKFK@?$FLFenrir?5Mix?$FN?$FLLevel?502?$FN?5Chaos?5Mix@
  00120	ff 15 00 00 00
	00		 call	 DWORD PTR ?LogAddTD@@3P6AXPADZZA ; LogAddTD

; 3468 : 
; 3469 : 	lpObj->ChaosSuccessRate = g_iFenrir_02Level_MixRate;
; 3470 : 	lpObj->ChaosSuccessRate += iCharmOfLuckCount;
; 3471 : 	int nChaosNeedMoney = 0;
; 3472 : 
; 3473 : 	int iChaosTaxMoney = (int)((__int64)nChaosNeedMoney * (__int64)g_CastleSiegeSync.GetTaxRateChaos(lpObj->m_Index) / (__int64)100);

  00126	8b 0e		 mov	 ecx, DWORD PTR [esi]
  00128	a1 00 00 00 00	 mov	 eax, DWORD PTR ?g_iFenrir_02Level_MixRate@@3HA ; g_iFenrir_02Level_MixRate
  0012d	83 c4 04	 add	 esp, 4
  00130	51		 push	 ecx
  00131	89 86 84 0e 00
	00		 mov	 DWORD PTR [esi+3716], eax
  00137	01 9e 84 0e 00
	00		 add	 DWORD PTR [esi+3716], ebx
  0013d	b9 00 00 00 00	 mov	 ecx, OFFSET ?g_CastleSiegeSync@@3VCCastleSiegeSync@@A ; g_CastleSiegeSync
  00142	e8 00 00 00 00	 call	 ?GetTaxRateChaos@CCastleSiegeSync@@QAEHH@Z ; CCastleSiegeSync::GetTaxRateChaos

; 3474 : 
; 3475 : 	if ( iChaosTaxMoney < 0 )
; 3476 : 	{
; 3477 : 		iChaosTaxMoney = 0;
; 3478 : 	}
; 3479 : 
; 3480 : 	nChaosNeedMoney += iChaosTaxMoney;
; 3481 : 
; 3482 : 	lpObj->ChaosSuccessRate += lpObj->m_AddMixSuccessRate;

  00147	8b 96 24 28 00
	00		 mov	 edx, DWORD PTR [esi+10276]

; 3483 : 	nChaosNeedMoney += lpObj->m_AddMixMoney;

  0014d	8b be 20 28 00
	00		 mov	 edi, DWORD PTR [esi+10272]
  00153	01 96 84 0e 00
	00		 add	 DWORD PTR [esi+3716], edx

; 3484 : 
; 3485 : 	if ( nChaosNeedMoney < 0 )

  00159	85 ff		 test	 edi, edi
  0015b	79 02		 jns	 SHORT $LN4@Fenrir_02L

; 3486 : 	{
; 3487 : 		nChaosNeedMoney = 0;

  0015d	33 ff		 xor	 edi, edi
$LN4@Fenrir_02L:

; 3488 : 	}
; 3489 : 
; 3490 : 	if ( lpObj->Money < nChaosNeedMoney )

  0015f	8b 86 f0 00 00
	00		 mov	 eax, DWORD PTR [esi+240]
  00165	3b c7		 cmp	 eax, edi
  00167	7d 15		 jge	 SHORT $LN3@Fenrir_02L

; 3491 : 	{
; 3492 : 		pMsg.Result = CB_NOT_ENOUGH_ZEN;
; 3493 : 		
; 3494 : 		DataSend(lpObj->m_Index, (LPBYTE)&pMsg, pMsg.h.size);

  00169	0f b6 45 ed	 movzx	 eax, BYTE PTR _pMsg$[ebp+1]
  0016d	8b 16		 mov	 edx, DWORD PTR [esi]
  0016f	50		 push	 eax
  00170	8d 4d ec	 lea	 ecx, DWORD PTR _pMsg$[ebp]
  00173	51		 push	 ecx
  00174	c6 45 ef 02	 mov	 BYTE PTR _pMsg$[ebp+3], 2
  00178	52		 push	 edx

; 3495 : 		lpObj->ChaosLock = FALSE;
; 3496 : 
; 3497 : 		return;

  00179	e9 12 01 00 00	 jmp	 $LN26@Fenrir_02L
$LN3@Fenrir_02L:

; 3498 : 	}
; 3499 : 
; 3500 : 	lpObj->Money -= nChaosNeedMoney;

  0017e	2b c7		 sub	 eax, edi

; 3501 : 	g_CastleSiegeSync.AddTributeMoney(iChaosTaxMoney);

  00180	6a 00		 push	 0
  00182	b9 00 00 00 00	 mov	 ecx, OFFSET ?g_CastleSiegeSync@@3VCCastleSiegeSync@@A ; g_CastleSiegeSync
  00187	89 86 f0 00 00
	00		 mov	 DWORD PTR [esi+240], eax
  0018d	e8 00 00 00 00	 call	 ?AddTributeMoney@CCastleSiegeSync@@QAEXH@Z ; CCastleSiegeSync::AddTributeMoney

; 3502 : 	GCMoneySend(lpObj->m_Index, lpObj->Money);

  00192	8b 86 f0 00 00
	00		 mov	 eax, DWORD PTR [esi+240]
  00198	8b 0e		 mov	 ecx, DWORD PTR [esi]
  0019a	50		 push	 eax
  0019b	51		 push	 ecx
  0019c	e8 00 00 00 00	 call	 ?GCMoneySend@@YAXHK@Z	; GCMoneySend
  001a1	83 c4 08	 add	 esp, 8

; 3503 : 
; 3504 : 	if ( (rand()%100) < lpObj->ChaosSuccessRate )

  001a4	e8 00 00 00 00	 call	 _rand
  001a9	99		 cdq
  001aa	b9 64 00 00 00	 mov	 ecx, 100		; 00000064H
  001af	f7 f9		 idiv	 ecx
  001b1	3b 96 84 0e 00
	00		 cmp	 edx, DWORD PTR [esi+3716]
  001b7	7d 74		 jge	 SHORT $LN2@Fenrir_02L

; 3505 : 	{
; 3506 : 		int type = ITEMGET(13,36);
; 3507 : 		int level = 0;
; 3508 : 		int dur = 1;
; 3509 : 
; 3510 : 		ItemSerialCreateSend(lpObj->m_Index, -1, 0, 0, type , (BYTE)level, (BYTE)dur, 0, 0, 0, -1, 0, 0);

  001b9	6a 00		 push	 0
  001bb	8b 16		 mov	 edx, DWORD PTR [esi]
  001bd	6a 00		 push	 0
  001bf	6a ff		 push	 -1
  001c1	6a 00		 push	 0
  001c3	6a 00		 push	 0
  001c5	6a 00		 push	 0
  001c7	6a 01		 push	 1
  001c9	6a 00		 push	 0
  001cb	68 24 1a 00 00	 push	 6692			; 00001a24H
  001d0	6a 00		 push	 0
  001d2	6a 00		 push	 0
  001d4	68 ff 00 00 00	 push	 255			; 000000ffH
  001d9	52		 push	 edx
  001da	e8 00 00 00 00	 call	 ?ItemSerialCreateSend@@YAXHEEEHEEEEEHEE@Z ; ItemSerialCreateSend

; 3511 : 		::gObjInventoryCommit(lpObj->m_Index);

  001df	8b 06		 mov	 eax, DWORD PTR [esi]
  001e1	50		 push	 eax
  001e2	e8 00 00 00 00	 call	 ?gObjInventoryCommit@@YAHH@Z ; gObjInventoryCommit

; 3512 : 
; 3513 : 		LogAddTD("[Fenrir Mix][Level 02] [%s][%s] CBMix Success %d Money : %d-%d, CharmRate : %d",
; 3514 : 			lpObj->AccountID, lpObj->Name, lpObj->ChaosSuccessRate, lpObj->Money, nChaosNeedMoney,
; 3515 : 			iCharmOfLuckCount);

  001e7	8b 8e f0 00 00
	00		 mov	 ecx, DWORD PTR [esi+240]
  001ed	8b 96 84 0e 00
	00		 mov	 edx, DWORD PTR [esi+3716]
  001f3	53		 push	 ebx
  001f4	57		 push	 edi
  001f5	51		 push	 ecx
  001f6	52		 push	 edx
  001f7	8d 46 77	 lea	 eax, DWORD PTR [esi+119]
  001fa	50		 push	 eax
  001fb	8d 4e 6c	 lea	 ecx, DWORD PTR [esi+108]
  001fe	51		 push	 ecx
  001ff	68 00 00 00 00	 push	 OFFSET ??_C@_0EP@HFOGELBG@?$FLFenrir?5Mix?$FN?$FLLevel?502?$FN?5?$FL?$CFs?$FN?$FL?$CFs?$FN?5@
  00204	ff 15 00 00 00
	00		 call	 DWORD PTR ?LogAddTD@@3P6AXPADZZA ; LogAddTD

; 3516 : #if(SYSTEM_ACHIEVEMENTS)
; 3517 : 		g_Achievements.SuccessChaosMix(lpObj->m_Index);

  0020a	8b 16		 mov	 edx, DWORD PTR [esi]
  0020c	83 c4 54	 add	 esp, 84			; 00000054H
  0020f	52		 push	 edx
  00210	b9 00 00 00 00	 mov	 ecx, OFFSET ?g_Achievements@@3VCAchievements@@A ; g_Achievements
  00215	e8 00 00 00 00	 call	 ?SuccessChaosMix@CAchievements@@QAEXH@Z ; CAchievements::SuccessChaosMix
  0021a	5f		 pop	 edi
  0021b	5e		 pop	 esi
  0021c	5b		 pop	 ebx

; 3533 : 	}
; 3534 : }

  0021d	8b 4d fc	 mov	 ecx, DWORD PTR __$ArrayPad$[ebp]
  00220	33 cd		 xor	 ecx, ebp
  00222	e8 00 00 00 00	 call	 @__security_check_cookie@4
  00227	8b e5		 mov	 esp, ebp
  00229	5d		 pop	 ebp
  0022a	c2 04 00	 ret	 4
$LN2@Fenrir_02L:

; 3518 : #endif
; 3519 : 	}
; 3520 : 	else
; 3521 : 	{
; 3522 : 		this->ChaosBoxInit(lpObj);

  0022d	8b 4d d8	 mov	 ecx, DWORD PTR _this$[ebp]
  00230	56		 push	 esi
  00231	e8 00 00 00 00	 call	 ?ChaosBoxInit@CMixSystem@@QAEHPAUOBJECTSTRUCT@@@Z ; CMixSystem::ChaosBoxInit

; 3523 : 		::GCUserChaosBoxSend(lpObj, 0);

  00236	6a 00		 push	 0
  00238	56		 push	 esi
  00239	e8 00 00 00 00	 call	 ?GCUserChaosBoxSend@@YAXPAUOBJECTSTRUCT@@H@Z ; GCUserChaosBoxSend

; 3524 : 		DataSend(lpObj->m_Index, (LPBYTE)&pMsg, pMsg.h.size);

  0023e	0f b6 45 ed	 movzx	 eax, BYTE PTR _pMsg$[ebp+1]
  00242	8b 16		 mov	 edx, DWORD PTR [esi]
  00244	50		 push	 eax
  00245	8d 4d ec	 lea	 ecx, DWORD PTR _pMsg$[ebp]
  00248	51		 push	 ecx
  00249	52		 push	 edx
  0024a	e8 00 00 00 00	 call	 ?DataSend@@YAHHPAEK@Z	; DataSend

; 3525 : 
; 3526 : 		LogAddTD("[Fenrir Mix][Level 02] [%s][%s] CBMix Fail %d Money : %d-%d, CharmRate : %d",
; 3527 : 			lpObj->AccountID, lpObj->Name, lpObj->ChaosSuccessRate, lpObj->Money, nChaosNeedMoney,
; 3528 : 			iCharmOfLuckCount);

  0024f	8b 86 f0 00 00
	00		 mov	 eax, DWORD PTR [esi+240]
  00255	8b 8e 84 0e 00
	00		 mov	 ecx, DWORD PTR [esi+3716]
  0025b	53		 push	 ebx
  0025c	57		 push	 edi
  0025d	50		 push	 eax
  0025e	51		 push	 ecx
  0025f	8d 56 77	 lea	 edx, DWORD PTR [esi+119]
  00262	52		 push	 edx
  00263	8d 46 6c	 lea	 eax, DWORD PTR [esi+108]
  00266	50		 push	 eax
  00267	68 00 00 00 00	 push	 OFFSET ??_C@_0EM@COLFGAOG@?$FLFenrir?5Mix?$FN?$FLLevel?502?$FN?5?$FL?$CFs?$FN?$FL?$CFs?$FN?5@
  0026c	ff 15 00 00 00
	00		 call	 DWORD PTR ?LogAddTD@@3P6AXPADZZA ; LogAddTD

; 3529 : #if(SYSTEM_ACHIEVEMENTS)
; 3530 : 		g_Achievements.FailedChaosMix(lpObj->m_Index);

  00272	8b 0e		 mov	 ecx, DWORD PTR [esi]
  00274	83 c4 30	 add	 esp, 48			; 00000030H
  00277	51		 push	 ecx
  00278	b9 00 00 00 00	 mov	 ecx, OFFSET ?g_Achievements@@3VCAchievements@@A ; g_Achievements
  0027d	e8 00 00 00 00	 call	 ?FailedChaosMix@CAchievements@@QAEXH@Z ; CAchievements::FailedChaosMix

; 3531 : #endif
; 3532 : 		lpObj->ChaosLock = FALSE;

  00282	eb 14		 jmp	 SHORT $LN27@Fenrir_02L
$LN25@Fenrir_02L:

; 3450 : 	{
; 3451 : 		DataSend(lpObj->m_Index, (LPBYTE)&pMsg, pMsg.h.size);

  00284	0f b6 55 ed	 movzx	 edx, BYTE PTR _pMsg$[ebp+1]
  00288	8b 0e		 mov	 ecx, DWORD PTR [esi]
  0028a	52		 push	 edx
  0028b	8d 45 ec	 lea	 eax, DWORD PTR _pMsg$[ebp]
  0028e	50		 push	 eax
  0028f	51		 push	 ecx
$LN26@Fenrir_02L:
  00290	e8 00 00 00 00	 call	 ?DataSend@@YAHHPAEK@Z	; DataSend
  00295	83 c4 0c	 add	 esp, 12			; 0000000cH
$LN27@Fenrir_02L:

; 3533 : 	}
; 3534 : }

  00298	8b 4d fc	 mov	 ecx, DWORD PTR __$ArrayPad$[ebp]
  0029b	5f		 pop	 edi
  0029c	c7 86 88 0e 00
	00 00 00 00 00	 mov	 DWORD PTR [esi+3720], 0
  002a6	5e		 pop	 esi
  002a7	33 cd		 xor	 ecx, ebp
  002a9	5b		 pop	 ebx
  002aa	e8 00 00 00 00	 call	 @__security_check_cookie@4
  002af	8b e5		 mov	 esp, ebp
  002b1	5d		 pop	 ebp
  002b2	c2 04 00	 ret	 4
?Fenrir_02Level_Mix@CMixSystem@@QAEXPAUOBJECTSTRUCT@@@Z ENDP ; CMixSystem::Fenrir_02Level_Mix
_TEXT	ENDS
PUBLIC	??_C@_0EM@DDCAHDDB@?$FLFenrir?5Mix?$FN?$FLLevel?503?$FN?5?$FL?$CFs?$FN?$FL?$CFs?$FN?5@ ; `string'
PUBLIC	??_C@_0EP@BMKKEOOH@?$FLFenrir?5Mix?$FN?$FLLevel?503?$FN?5?$FL?$CFs?$FN?$FL?$CFs?$FN?5@ ; `string'
PUBLIC	??_C@_0CH@CPJNIKAC@?$FLFenrir?5Mix?$FN?$FLLevel?503?$FN?5Chaos?5Mix@ ; `string'
PUBLIC	??_C@_0BD@FCLFBNN@Fenrir_03Level_Mix?$AA@	; `string'
PUBLIC	__$ArrayPad$
PUBLIC	?Fenrir_03Level_Mix@CMixSystem@@QAEXPAUOBJECTSTRUCT@@@Z ; CMixSystem::Fenrir_03Level_Mix
EXTRN	?g_iFenrir_03Level_MixRate@@3HA:DWORD		; g_iFenrir_03Level_MixRate
;	COMDAT ??_C@_0EM@DDCAHDDB@?$FLFenrir?5Mix?$FN?$FLLevel?503?$FN?5?$FL?$CFs?$FN?$FL?$CFs?$FN?5@
CONST	SEGMENT
??_C@_0EM@DDCAHDDB@?$FLFenrir?5Mix?$FN?$FLLevel?503?$FN?5?$FL?$CFs?$FN?$FL?$CFs?$FN?5@ DB '['
	DB	'Fenrir Mix][Level 03] [%s][%s] CBMix Fail %d Money : %d-%d, C'
	DB	'harmRate : %d', 00H				; `string'
CONST	ENDS
;	COMDAT ??_C@_0EP@BMKKEOOH@?$FLFenrir?5Mix?$FN?$FLLevel?503?$FN?5?$FL?$CFs?$FN?$FL?$CFs?$FN?5@
CONST	SEGMENT
??_C@_0EP@BMKKEOOH@?$FLFenrir?5Mix?$FN?$FLLevel?503?$FN?5?$FL?$CFs?$FN?$FL?$CFs?$FN?5@ DB '['
	DB	'Fenrir Mix][Level 03] [%s][%s] CBMix Success %d Money : %d-%d'
	DB	', CharmRate : %d', 00H			; `string'
CONST	ENDS
;	COMDAT ??_C@_0CH@CPJNIKAC@?$FLFenrir?5Mix?$FN?$FLLevel?503?$FN?5Chaos?5Mix@
CONST	SEGMENT
??_C@_0CH@CPJNIKAC@?$FLFenrir?5Mix?$FN?$FLLevel?503?$FN?5Chaos?5Mix@ DB '['
	DB	'Fenrir Mix][Level 03] Chaos Mix Start', 00H	; `string'
CONST	ENDS
;	COMDAT ??_C@_0BD@FCLFBNN@Fenrir_03Level_Mix?$AA@
CONST	SEGMENT
??_C@_0BD@FCLFBNN@Fenrir_03Level_Mix?$AA@ DB 'Fenrir_03Level_Mix', 00H ; `string'
; Function compile flags: /Ogtp
CONST	ENDS
;	COMDAT ?Fenrir_03Level_Mix@CMixSystem@@QAEXPAUOBJECTSTRUCT@@@Z
_TEXT	SEGMENT
_this$ = -40						; size = 4
_iStuffCount_01$ = -36					; size = 4
_iLifeGemCount$ = -32					; size = 4
_iInvalidItemCount$ = -28				; size = 4
_iChaosGemCount$ = -24					; size = 4
_pMsg$ = -20						; size = 16
__$ArrayPad$ = -4					; size = 4
_lpObj$ = 8						; size = 4
?Fenrir_03Level_Mix@CMixSystem@@QAEXPAUOBJECTSTRUCT@@@Z PROC ; CMixSystem::Fenrir_03Level_Mix, COMDAT
; _this$ = ecx

; 3537 : {

  00000	55		 push	 ebp
  00001	8b ec		 mov	 ebp, esp
  00003	83 ec 28	 sub	 esp, 40			; 00000028H
  00006	a1 00 00 00 00	 mov	 eax, DWORD PTR ___security_cookie
  0000b	33 c5		 xor	 eax, ebp
  0000d	89 45 fc	 mov	 DWORD PTR __$ArrayPad$[ebp], eax
  00010	53		 push	 ebx
  00011	56		 push	 esi
  00012	8b 75 08	 mov	 esi, DWORD PTR _lpObj$[ebp]
  00015	57		 push	 edi

; 3538 : 	lpObj->ChaosLock = TRUE;
; 3539 : 	int iStuffCount_01 = 0;
; 3540 : 	int iLifeGemCount = 0;
; 3541 : 	int iChaosGemCount = 0;
; 3542 : 	int iInvalidItemCount = 0;
; 3543 : 	int iChaosMoney = 0;
; 3544 : 	int iCharmOfLuckCount = 0;
; 3545 : 
; 3546 : 	PMSG_CHAOSMIXRESULT pMsg;
; 3547 : 
; 3548 : 	PHeadSetB((LPBYTE)&pMsg.h, 0x86, sizeof(PMSG_CHAOSMIXRESULT));

  00016	6a 10		 push	 16			; 00000010H
  00018	33 ff		 xor	 edi, edi
  0001a	8d 45 ec	 lea	 eax, DWORD PTR _pMsg$[ebp]
  0001d	68 86 00 00 00	 push	 134			; 00000086H
  00022	50		 push	 eax
  00023	89 4d d8	 mov	 DWORD PTR _this$[ebp], ecx
  00026	c7 86 88 0e 00
	00 01 00 00 00	 mov	 DWORD PTR [esi+3720], 1
  00030	89 7d dc	 mov	 DWORD PTR _iStuffCount_01$[ebp], edi
  00033	89 7d e0	 mov	 DWORD PTR _iLifeGemCount$[ebp], edi
  00036	89 7d e8	 mov	 DWORD PTR _iChaosGemCount$[ebp], edi
  00039	89 7d e4	 mov	 DWORD PTR _iInvalidItemCount$[ebp], edi
  0003c	33 db		 xor	 ebx, ebx
  0003e	e8 00 00 00 00	 call	 ?PHeadSetB@@YAXPAEEH@Z	; PHeadSetB
  00043	83 c4 0c	 add	 esp, 12			; 0000000cH

; 3549 : 	pMsg.Result = CB_ERROR;

  00046	88 5d ef	 mov	 BYTE PTR _pMsg$[ebp+3], bl
  00049	8d a4 24 00 00
	00 00		 npad	 7
$LL20@Fenrir_03L:

; 3553 : 	{
; 3554 : 		if ( lpObj->pChaosBox[n].IsItem() == TRUE )

  00050	8b 8e 78 0e 00
	00		 mov	 ecx, DWORD PTR [esi+3704]
  00056	03 cf		 add	 ecx, edi
  00058	e8 00 00 00 00	 call	 ?IsItem@CItem@@QAEHXZ	; CItem::IsItem
  0005d	83 f8 01	 cmp	 eax, 1
  00060	75 52		 jne	 SHORT $LN19@Fenrir_03L

; 3555 : 		{
; 3556 : 			if ( lpObj->pChaosBox[n].m_Type == ITEMGET(13,36) )

  00062	8b 8e 78 0e 00
	00		 mov	 ecx, DWORD PTR [esi+3704]
  00068	0f b7 44 39 06	 movzx	 eax, WORD PTR [ecx+edi+6]
  0006d	ba 24 1a 00 00	 mov	 edx, 6692		; 00001a24H
  00072	66 3b c2	 cmp	 ax, dx
  00075	75 05		 jne	 SHORT $LN16@Fenrir_03L

; 3557 : 			{
; 3558 : 				iStuffCount_01 ++;

  00077	ff 45 dc	 inc	 DWORD PTR _iStuffCount_01$[ebp]
  0007a	eb 38		 jmp	 SHORT $LN19@Fenrir_03L
$LN16@Fenrir_03L:

; 3559 : 			}
; 3560 : 			else if ( lpObj->pChaosBox[n].m_Type == ITEMGET(14,16) )

  0007c	ba 10 1c 00 00	 mov	 edx, 7184		; 00001c10H
  00081	66 3b c2	 cmp	 ax, dx
  00084	75 05		 jne	 SHORT $LN14@Fenrir_03L

; 3561 : 			{
; 3562 : 				iLifeGemCount ++;

  00086	ff 45 e0	 inc	 DWORD PTR _iLifeGemCount$[ebp]
  00089	eb 29		 jmp	 SHORT $LN19@Fenrir_03L
$LN14@Fenrir_03L:

; 3563 : 			}
; 3564 : 			else if ( lpObj->pChaosBox[n].m_Type == ITEMGET(12,15) )

  0008b	ba 0f 18 00 00	 mov	 edx, 6159		; 0000180fH
  00090	66 3b c2	 cmp	 ax, dx
  00093	75 05		 jne	 SHORT $LN12@Fenrir_03L

; 3565 : 			{
; 3566 : 				iChaosGemCount++;

  00095	ff 45 e8	 inc	 DWORD PTR _iChaosGemCount$[ebp]
  00098	eb 1a		 jmp	 SHORT $LN19@Fenrir_03L
$LN12@Fenrir_03L:

; 3567 : 			}
; 3568 : 			else if ( lpObj->pChaosBox[n].m_Type == ITEMGET(14,53) )	// Charm Of Luck

  0009a	ba 35 1c 00 00	 mov	 edx, 7221		; 00001c35H
  0009f	66 3b c2	 cmp	 ax, dx
  000a2	75 0d		 jne	 SHORT $LN10@Fenrir_03L

; 3569 : 			{
; 3570 : 				iCharmOfLuckCount += (int)lpObj->pChaosBox[n].m_Durability;

  000a4	d9 44 39 24	 fld	 DWORD PTR [ecx+edi+36]
  000a8	e8 00 00 00 00	 call	 __ftol2_sse
  000ad	03 d8		 add	 ebx, eax

; 3571 : 			}
; 3572 : 			else

  000af	eb 03		 jmp	 SHORT $LN19@Fenrir_03L
$LN10@Fenrir_03L:

; 3573 : 			{
; 3574 : 				iInvalidItemCount++;

  000b1	ff 45 e4	 inc	 DWORD PTR _iInvalidItemCount$[ebp]
$LN19@Fenrir_03L:

; 3550 : 
; 3551 : 
; 3552 : 	for ( int n=0;n<CHAOS_BOX_SIZE;n++)

  000b4	81 c7 d4 00 00
	00		 add	 edi, 212		; 000000d4H
  000ba	81 ff 80 1a 00
	00		 cmp	 edi, 6784		; 00001a80H
  000c0	7c 8e		 jl	 SHORT $LL20@Fenrir_03L

; 3575 : 			}
; 3576 : 		}
; 3577 : 	}
; 3578 : 
; 3579 : 	if ( iStuffCount_01 != 1 || iLifeGemCount != 3 || iChaosGemCount != 1 || iInvalidItemCount > 0 )

  000c2	b8 01 00 00 00	 mov	 eax, 1
  000c7	39 45 dc	 cmp	 DWORD PTR _iStuffCount_01$[ebp], eax
  000ca	0f 85 be 00 00
	00		 jne	 $LN25@Fenrir_03L
  000d0	83 7d e0 03	 cmp	 DWORD PTR _iLifeGemCount$[ebp], 3
  000d4	0f 85 b4 00 00
	00		 jne	 $LN25@Fenrir_03L
  000da	39 45 e8	 cmp	 DWORD PTR _iChaosGemCount$[ebp], eax
  000dd	0f 85 ab 00 00
	00		 jne	 $LN25@Fenrir_03L
  000e3	83 7d e4 00	 cmp	 DWORD PTR _iInvalidItemCount$[ebp], 0
  000e7	0f 8f a1 00 00
	00		 jg	 $LN25@Fenrir_03L

; 3583 : 
; 3584 : 		return;
; 3585 : 	}
; 3586 : 	
; 3587 : 	if ( iCharmOfLuckCount > 10 )

  000ed	83 fb 0a	 cmp	 ebx, 10			; 0000000aH
  000f0	7e 15		 jle	 SHORT $LN6@Fenrir_03L

; 3588 : 	{
; 3589 : 		pMsg.Result = 0xF0;
; 3590 : 		DataSend(lpObj->m_Index, (LPBYTE)&pMsg, pMsg.h.size);

  000f2	0f b6 45 ed	 movzx	 eax, BYTE PTR _pMsg$[ebp+1]
  000f6	8b 16		 mov	 edx, DWORD PTR [esi]
  000f8	50		 push	 eax
  000f9	8d 4d ec	 lea	 ecx, DWORD PTR _pMsg$[ebp]
  000fc	51		 push	 ecx
  000fd	c6 45 ef f0	 mov	 BYTE PTR _pMsg$[ebp+3], 240 ; 000000f0H
  00101	52		 push	 edx

; 3591 : 		lpObj->ChaosLock = FALSE;
; 3592 : 
; 3593 : 		return;

  00102	e9 93 00 00 00	 jmp	 $LN26@Fenrir_03L
$LN6@Fenrir_03L:

; 3594 : 	}
; 3595 : 
; 3596 : 	LogChaosItem(lpObj, "Fenrir_03Level_Mix");

  00107	8b 4d d8	 mov	 ecx, DWORD PTR _this$[ebp]
  0010a	68 00 00 00 00	 push	 OFFSET ??_C@_0BD@FCLFBNN@Fenrir_03Level_Mix?$AA@
  0010f	56		 push	 esi
  00110	e8 00 00 00 00	 call	 ?LogChaosItem@CMixSystem@@QAEXPAUOBJECTSTRUCT@@PAD@Z ; CMixSystem::LogChaosItem

; 3597 : 	LogAddTD("[Fenrir Mix][Level 03] Chaos Mix Start");

  00115	68 00 00 00 00	 push	 OFFSET ??_C@_0CH@CPJNIKAC@?$FLFenrir?5Mix?$FN?$FLLevel?503?$FN?5Chaos?5Mix@
  0011a	ff 15 00 00 00
	00		 call	 DWORD PTR ?LogAddTD@@3P6AXPADZZA ; LogAddTD

; 3598 : 
; 3599 : 	lpObj->ChaosSuccessRate = g_iFenrir_03Level_MixRate;
; 3600 : 	lpObj->ChaosSuccessRate += iCharmOfLuckCount;
; 3601 : 	int nChaosNeedMoney = 10000000;
; 3602 : 
; 3603 : 	int iChaosTaxMoney = (int)((__int64)nChaosNeedMoney * (__int64)g_CastleSiegeSync.GetTaxRateChaos(lpObj->m_Index) / (__int64)100);

  00120	8b 0e		 mov	 ecx, DWORD PTR [esi]
  00122	a1 00 00 00 00	 mov	 eax, DWORD PTR ?g_iFenrir_03Level_MixRate@@3HA ; g_iFenrir_03Level_MixRate
  00127	83 c4 04	 add	 esp, 4
  0012a	51		 push	 ecx
  0012b	89 86 84 0e 00
	00		 mov	 DWORD PTR [esi+3716], eax
  00131	01 9e 84 0e 00
	00		 add	 DWORD PTR [esi+3716], ebx
  00137	b9 00 00 00 00	 mov	 ecx, OFFSET ?g_CastleSiegeSync@@3VCCastleSiegeSync@@A ; g_CastleSiegeSync
  0013c	e8 00 00 00 00	 call	 ?GetTaxRateChaos@CCastleSiegeSync@@QAEHH@Z ; CCastleSiegeSync::GetTaxRateChaos
  00141	6a 00		 push	 0
  00143	99		 cdq
  00144	68 80 96 98 00	 push	 10000000		; 00989680H
  00149	52		 push	 edx
  0014a	50		 push	 eax
  0014b	e8 00 00 00 00	 call	 __allmul
  00150	6a 00		 push	 0
  00152	6a 64		 push	 100			; 00000064H
  00154	52		 push	 edx
  00155	50		 push	 eax
  00156	e8 00 00 00 00	 call	 __alldiv

; 3604 : 
; 3605 : 	if ( iChaosTaxMoney < 0 )

  0015b	85 c0		 test	 eax, eax
  0015d	79 02		 jns	 SHORT $LN5@Fenrir_03L

; 3606 : 	{
; 3607 : 		iChaosTaxMoney = 0;

  0015f	33 c0		 xor	 eax, eax
$LN5@Fenrir_03L:

; 3608 : 	}
; 3609 : 
; 3610 : 	nChaosNeedMoney += iChaosTaxMoney;
; 3611 : 
; 3612 : 	lpObj->ChaosSuccessRate += lpObj->m_AddMixSuccessRate;
; 3613 : 	nChaosNeedMoney += lpObj->m_AddMixMoney;

  00161	8b 8e 20 28 00
	00		 mov	 ecx, DWORD PTR [esi+10272]
  00167	8b 96 24 28 00
	00		 mov	 edx, DWORD PTR [esi+10276]
  0016d	01 96 84 0e 00
	00		 add	 DWORD PTR [esi+3716], edx
  00173	8d bc 01 80 96
	98 00		 lea	 edi, DWORD PTR [ecx+eax+10000000]

; 3614 : 
; 3615 : 	if ( nChaosNeedMoney < 0 )

  0017a	85 ff		 test	 edi, edi
  0017c	79 02		 jns	 SHORT $LN4@Fenrir_03L

; 3616 : 	{
; 3617 : 		nChaosNeedMoney = 0;

  0017e	33 ff		 xor	 edi, edi
$LN4@Fenrir_03L:

; 3618 : 	}
; 3619 : 
; 3620 : 	if ( lpObj->Money < nChaosNeedMoney )

  00180	8b 8e f0 00 00
	00		 mov	 ecx, DWORD PTR [esi+240]
  00186	3b cf		 cmp	 ecx, edi
  00188	7d 35		 jge	 SHORT $LN3@Fenrir_03L

; 3621 : 	{
; 3622 : 		pMsg.Result = CB_NOT_ENOUGH_ZEN;

  0018a	c6 45 ef 02	 mov	 BYTE PTR _pMsg$[ebp+3], 2
$LN25@Fenrir_03L:

; 3580 : 	{
; 3581 : 		DataSend(lpObj->m_Index, (LPBYTE)&pMsg, pMsg.h.size);

  0018e	0f b6 55 ed	 movzx	 edx, BYTE PTR _pMsg$[ebp+1]
  00192	8b 0e		 mov	 ecx, DWORD PTR [esi]
  00194	52		 push	 edx
  00195	8d 45 ec	 lea	 eax, DWORD PTR _pMsg$[ebp]
  00198	50		 push	 eax
  00199	51		 push	 ecx
$LN26@Fenrir_03L:
  0019a	e8 00 00 00 00	 call	 ?DataSend@@YAHHPAEK@Z	; DataSend
  0019f	83 c4 0c	 add	 esp, 12			; 0000000cH
$LN27@Fenrir_03L:

; 3582 : 		lpObj->ChaosLock = FALSE;

  001a2	5f		 pop	 edi
  001a3	c7 86 88 0e 00
	00 00 00 00 00	 mov	 DWORD PTR [esi+3720], 0
  001ad	5e		 pop	 esi
  001ae	5b		 pop	 ebx

; 3664 : 	}
; 3665 : }

  001af	8b 4d fc	 mov	 ecx, DWORD PTR __$ArrayPad$[ebp]
  001b2	33 cd		 xor	 ecx, ebp
  001b4	e8 00 00 00 00	 call	 @__security_check_cookie@4
  001b9	8b e5		 mov	 esp, ebp
  001bb	5d		 pop	 ebp
  001bc	c2 04 00	 ret	 4
$LN3@Fenrir_03L:

; 3623 : 		
; 3624 : 		DataSend(lpObj->m_Index, (LPBYTE)&pMsg, pMsg.h.size);
; 3625 : 		lpObj->ChaosLock = FALSE;
; 3626 : 
; 3627 : 		return;
; 3628 : 	}
; 3629 : 
; 3630 : 	lpObj->Money -= nChaosNeedMoney;

  001bf	2b cf		 sub	 ecx, edi
  001c1	89 8e f0 00 00
	00		 mov	 DWORD PTR [esi+240], ecx

; 3631 : 	g_CastleSiegeSync.AddTributeMoney(iChaosTaxMoney);

  001c7	50		 push	 eax
  001c8	b9 00 00 00 00	 mov	 ecx, OFFSET ?g_CastleSiegeSync@@3VCCastleSiegeSync@@A ; g_CastleSiegeSync
  001cd	e8 00 00 00 00	 call	 ?AddTributeMoney@CCastleSiegeSync@@QAEXH@Z ; CCastleSiegeSync::AddTributeMoney

; 3632 : 	GCMoneySend(lpObj->m_Index, lpObj->Money);

  001d2	8b 96 f0 00 00
	00		 mov	 edx, DWORD PTR [esi+240]
  001d8	8b 06		 mov	 eax, DWORD PTR [esi]
  001da	52		 push	 edx
  001db	50		 push	 eax
  001dc	e8 00 00 00 00	 call	 ?GCMoneySend@@YAXHK@Z	; GCMoneySend
  001e1	83 c4 08	 add	 esp, 8

; 3633 : 
; 3634 : 	if ( (rand()%100) < lpObj->ChaosSuccessRate )

  001e4	e8 00 00 00 00	 call	 _rand
  001e9	99		 cdq
  001ea	b9 64 00 00 00	 mov	 ecx, 100		; 00000064H
  001ef	f7 f9		 idiv	 ecx
  001f1	3b 96 84 0e 00
	00		 cmp	 edx, DWORD PTR [esi+3716]
  001f7	7d 77		 jge	 SHORT $LN2@Fenrir_03L

; 3635 : 	{
; 3636 : 		int type = ITEMGET(13,37);
; 3637 : 		int level = 0;
; 3638 : 		int dur = 255;
; 3639 : 		int op1 = 1;
; 3640 : 
; 3641 : 		ItemSerialCreateSend(lpObj->m_Index, -1, 0, 0, type , (BYTE)level, (BYTE)dur, (BYTE)op1, 0, 0, -1, 0, 0);

  001f9	6a 00		 push	 0
  001fb	8b 16		 mov	 edx, DWORD PTR [esi]
  001fd	6a 00		 push	 0
  001ff	6a ff		 push	 -1
  00201	6a 00		 push	 0
  00203	6a 00		 push	 0
  00205	6a 01		 push	 1
  00207	68 ff 00 00 00	 push	 255			; 000000ffH
  0020c	6a 00		 push	 0
  0020e	68 25 1a 00 00	 push	 6693			; 00001a25H
  00213	6a 00		 push	 0
  00215	6a 00		 push	 0
  00217	68 ff 00 00 00	 push	 255			; 000000ffH
  0021c	52		 push	 edx
  0021d	e8 00 00 00 00	 call	 ?ItemSerialCreateSend@@YAXHEEEHEEEEEHEE@Z ; ItemSerialCreateSend

; 3642 : 		::gObjInventoryCommit(lpObj->m_Index);

  00222	8b 06		 mov	 eax, DWORD PTR [esi]
  00224	50		 push	 eax
  00225	e8 00 00 00 00	 call	 ?gObjInventoryCommit@@YAHH@Z ; gObjInventoryCommit

; 3643 : 
; 3644 : 		LogAddTD("[Fenrir Mix][Level 03] [%s][%s] CBMix Success %d Money : %d-%d, CharmRate : %d",
; 3645 : 			lpObj->AccountID, lpObj->Name, lpObj->ChaosSuccessRate, lpObj->Money, nChaosNeedMoney,
; 3646 : 			iCharmOfLuckCount);

  0022a	8b 8e f0 00 00
	00		 mov	 ecx, DWORD PTR [esi+240]
  00230	8b 96 84 0e 00
	00		 mov	 edx, DWORD PTR [esi+3716]
  00236	53		 push	 ebx
  00237	57		 push	 edi
  00238	51		 push	 ecx
  00239	52		 push	 edx
  0023a	8d 46 77	 lea	 eax, DWORD PTR [esi+119]
  0023d	50		 push	 eax
  0023e	8d 4e 6c	 lea	 ecx, DWORD PTR [esi+108]
  00241	51		 push	 ecx
  00242	68 00 00 00 00	 push	 OFFSET ??_C@_0EP@BMKKEOOH@?$FLFenrir?5Mix?$FN?$FLLevel?503?$FN?5?$FL?$CFs?$FN?$FL?$CFs?$FN?5@
  00247	ff 15 00 00 00
	00		 call	 DWORD PTR ?LogAddTD@@3P6AXPADZZA ; LogAddTD

; 3647 : #if(SYSTEM_ACHIEVEMENTS)
; 3648 : 		g_Achievements.SuccessChaosMix(lpObj->m_Index);

  0024d	8b 16		 mov	 edx, DWORD PTR [esi]
  0024f	83 c4 54	 add	 esp, 84			; 00000054H
  00252	52		 push	 edx
  00253	b9 00 00 00 00	 mov	 ecx, OFFSET ?g_Achievements@@3VCAchievements@@A ; g_Achievements
  00258	e8 00 00 00 00	 call	 ?SuccessChaosMix@CAchievements@@QAEXH@Z ; CAchievements::SuccessChaosMix

; 3664 : 	}
; 3665 : }

  0025d	8b 4d fc	 mov	 ecx, DWORD PTR __$ArrayPad$[ebp]
  00260	5f		 pop	 edi
  00261	5e		 pop	 esi
  00262	33 cd		 xor	 ecx, ebp
  00264	5b		 pop	 ebx
  00265	e8 00 00 00 00	 call	 @__security_check_cookie@4
  0026a	8b e5		 mov	 esp, ebp
  0026c	5d		 pop	 ebp
  0026d	c2 04 00	 ret	 4
$LN2@Fenrir_03L:

; 3649 : #endif
; 3650 : 	}
; 3651 : 	else
; 3652 : 	{
; 3653 : 		this->ChaosBoxInit(lpObj);

  00270	8b 4d d8	 mov	 ecx, DWORD PTR _this$[ebp]
  00273	56		 push	 esi
  00274	e8 00 00 00 00	 call	 ?ChaosBoxInit@CMixSystem@@QAEHPAUOBJECTSTRUCT@@@Z ; CMixSystem::ChaosBoxInit

; 3654 : 		::GCUserChaosBoxSend(lpObj, 0);

  00279	6a 00		 push	 0
  0027b	56		 push	 esi
  0027c	e8 00 00 00 00	 call	 ?GCUserChaosBoxSend@@YAXPAUOBJECTSTRUCT@@H@Z ; GCUserChaosBoxSend

; 3655 : 		DataSend(lpObj->m_Index, (LPBYTE)&pMsg, pMsg.h.size);

  00281	0f b6 45 ed	 movzx	 eax, BYTE PTR _pMsg$[ebp+1]
  00285	8b 16		 mov	 edx, DWORD PTR [esi]
  00287	50		 push	 eax
  00288	8d 4d ec	 lea	 ecx, DWORD PTR _pMsg$[ebp]
  0028b	51		 push	 ecx
  0028c	52		 push	 edx
  0028d	e8 00 00 00 00	 call	 ?DataSend@@YAHHPAEK@Z	; DataSend

; 3656 : 
; 3657 : 		LogAddTD("[Fenrir Mix][Level 03] [%s][%s] CBMix Fail %d Money : %d-%d, CharmRate : %d",
; 3658 : 			lpObj->AccountID, lpObj->Name, lpObj->ChaosSuccessRate, lpObj->Money, nChaosNeedMoney,
; 3659 : 			iCharmOfLuckCount);

  00292	8b 86 f0 00 00
	00		 mov	 eax, DWORD PTR [esi+240]
  00298	8b 8e 84 0e 00
	00		 mov	 ecx, DWORD PTR [esi+3716]
  0029e	53		 push	 ebx
  0029f	57		 push	 edi
  002a0	50		 push	 eax
  002a1	51		 push	 ecx
  002a2	8d 56 77	 lea	 edx, DWORD PTR [esi+119]
  002a5	52		 push	 edx
  002a6	8d 46 6c	 lea	 eax, DWORD PTR [esi+108]
  002a9	50		 push	 eax
  002aa	68 00 00 00 00	 push	 OFFSET ??_C@_0EM@DDCAHDDB@?$FLFenrir?5Mix?$FN?$FLLevel?503?$FN?5?$FL?$CFs?$FN?$FL?$CFs?$FN?5@
  002af	ff 15 00 00 00
	00		 call	 DWORD PTR ?LogAddTD@@3P6AXPADZZA ; LogAddTD

; 3660 : #if(SYSTEM_ACHIEVEMENTS)
; 3661 : 		g_Achievements.FailedChaosMix(lpObj->m_Index);

  002b5	8b 0e		 mov	 ecx, DWORD PTR [esi]
  002b7	83 c4 30	 add	 esp, 48			; 00000030H
  002ba	51		 push	 ecx
  002bb	b9 00 00 00 00	 mov	 ecx, OFFSET ?g_Achievements@@3VCAchievements@@A ; g_Achievements
  002c0	e8 00 00 00 00	 call	 ?FailedChaosMix@CAchievements@@QAEXH@Z ; CAchievements::FailedChaosMix

; 3662 : #endif
; 3663 : 		lpObj->ChaosLock = FALSE;

  002c5	e9 d8 fe ff ff	 jmp	 $LN27@Fenrir_03L
?Fenrir_03Level_Mix@CMixSystem@@QAEXPAUOBJECTSTRUCT@@@Z ENDP ; CMixSystem::Fenrir_03Level_Mix
_TEXT	ENDS
PUBLIC	??_C@_0EM@GDMLAIBE@?$FLFenrir?5Mix?$FN?$FLLevel?504?$FN?5?$FL?$CFs?$FN?$FL?$CFs?$FN?5@ ; `string'
PUBLIC	??_C@_0EP@NJDPFBHB@?$FLFenrir?5Mix?$FN?$FLLevel?504?$FN?5?$FL?$CFs?$FN?$FL?$CFs?$FN?5@ ; `string'
PUBLIC	??_C@_0CH@GFKDABEJ@?$FLFenrir?5Mix?$FN?$FLLevel?504?$FN?5Chaos?5Mix@ ; `string'
PUBLIC	??_C@_0BD@CMBAEEFO@Fenrir_04Level_Mix?$AA@	; `string'
PUBLIC	__$ArrayPad$
PUBLIC	?Fenrir_04Upgrade_Mix@CMixSystem@@QAEXPAUOBJECTSTRUCT@@@Z ; CMixSystem::Fenrir_04Upgrade_Mix
;	COMDAT ??_C@_0EM@GDMLAIBE@?$FLFenrir?5Mix?$FN?$FLLevel?504?$FN?5?$FL?$CFs?$FN?$FL?$CFs?$FN?5@
CONST	SEGMENT
??_C@_0EM@GDMLAIBE@?$FLFenrir?5Mix?$FN?$FLLevel?504?$FN?5?$FL?$CFs?$FN?$FL?$CFs?$FN?5@ DB '['
	DB	'Fenrir Mix][Level 04] [%s][%s] CBMix Fail %d Money : %d-%d, C'
	DB	'harmRate : %d', 00H				; `string'
CONST	ENDS
;	COMDAT ??_C@_0EP@NJDPFBHB@?$FLFenrir?5Mix?$FN?$FLLevel?504?$FN?5?$FL?$CFs?$FN?$FL?$CFs?$FN?5@
CONST	SEGMENT
??_C@_0EP@NJDPFBHB@?$FLFenrir?5Mix?$FN?$FLLevel?504?$FN?5?$FL?$CFs?$FN?$FL?$CFs?$FN?5@ DB '['
	DB	'Fenrir Mix][Level 04] [%s][%s] CBMix Success %d Money : %d-%d'
	DB	', CharmRate : %d', 00H			; `string'
CONST	ENDS
;	COMDAT ??_C@_0CH@GFKDABEJ@?$FLFenrir?5Mix?$FN?$FLLevel?504?$FN?5Chaos?5Mix@
CONST	SEGMENT
??_C@_0CH@GFKDABEJ@?$FLFenrir?5Mix?$FN?$FLLevel?504?$FN?5Chaos?5Mix@ DB '['
	DB	'Fenrir Mix][Level 04] Chaos Mix Start', 00H	; `string'
CONST	ENDS
;	COMDAT ??_C@_0BD@CMBAEEFO@Fenrir_04Level_Mix?$AA@
CONST	SEGMENT
??_C@_0BD@CMBAEEFO@Fenrir_04Level_Mix?$AA@ DB 'Fenrir_04Level_Mix', 00H ; `string'
; Function compile flags: /Ogtp
CONST	ENDS
;	COMDAT ?Fenrir_04Upgrade_Mix@CMixSystem@@QAEXPAUOBJECTSTRUCT@@@Z
_TEXT	SEGMENT
_this$ = -68						; size = 4
_iInvalidItemCount$ = -64				; size = 4
_iLifeGemCount$ = -60					; size = 4
_iChaosGemCount$ = -56					; size = 4
_bFenrirDamageDec$ = -52				; size = 4
_iStuffCount_01$ = -48					; size = 4
_bFenrirDamageInc$ = -44				; size = 4
_iDefendStuffPrice$ = -40				; size = 4
_iAttackStuffCount$ = -36				; size = 4
_iCharmOfLuckCount$ = -32				; size = 4
_iDefendStuffCount$ = -28				; size = 4
_iChaosMoney$ = -24					; size = 4
_pMsg$ = -20						; size = 16
__$ArrayPad$ = -4					; size = 4
_lpObj$ = 8						; size = 4
?Fenrir_04Upgrade_Mix@CMixSystem@@QAEXPAUOBJECTSTRUCT@@@Z PROC ; CMixSystem::Fenrir_04Upgrade_Mix, COMDAT
; _this$ = ecx

; 3668 : {

  00000	55		 push	 ebp
  00001	8b ec		 mov	 ebp, esp
  00003	83 ec 44	 sub	 esp, 68			; 00000044H
  00006	a1 00 00 00 00	 mov	 eax, DWORD PTR ___security_cookie
  0000b	33 c5		 xor	 eax, ebp
  0000d	89 45 fc	 mov	 DWORD PTR __$ArrayPad$[ebp], eax
  00010	53		 push	 ebx
  00011	56		 push	 esi
  00012	8b 75 08	 mov	 esi, DWORD PTR _lpObj$[ebp]
  00015	57		 push	 edi

; 3669 : 	lpObj->ChaosLock = TRUE;
; 3670 : 	int iStuffCount_01 = 0;

  00016	33 ff		 xor	 edi, edi

; 3671 : 	int iLifeGemCount = 0;
; 3672 : 	int iChaosGemCount = 0;
; 3673 : 	int iAttackStuffCount = 0;
; 3674 : 	int iDefendStuffCount = 0;
; 3675 : 	int iAttackStuffPrice = 0;
; 3676 : 	int iDefendStuffPrice = 0;
; 3677 : 	int iInvalidItemCount = 0;
; 3678 : 	int iChaosMoney = 0;
; 3679 : 	BOOL bFenrirDamageInc = FALSE;
; 3680 : 	BOOL bFenrirDamageDec = FALSE;
; 3681 : 	int iCharmOfLuckCount = 0;
; 3682 : 
; 3683 : 	PMSG_CHAOSMIXRESULT pMsg;
; 3684 : 
; 3685 : 	PHeadSetB((LPBYTE)&pMsg.h, 0x86, sizeof(PMSG_CHAOSMIXRESULT));

  00018	6a 10		 push	 16			; 00000010H
  0001a	8d 45 ec	 lea	 eax, DWORD PTR _pMsg$[ebp]
  0001d	68 86 00 00 00	 push	 134			; 00000086H
  00022	50		 push	 eax
  00023	89 4d bc	 mov	 DWORD PTR _this$[ebp], ecx
  00026	c7 86 88 0e 00
	00 01 00 00 00	 mov	 DWORD PTR [esi+3720], 1
  00030	89 7d d0	 mov	 DWORD PTR _iStuffCount_01$[ebp], edi
  00033	89 7d c4	 mov	 DWORD PTR _iLifeGemCount$[ebp], edi
  00036	89 7d c8	 mov	 DWORD PTR _iChaosGemCount$[ebp], edi
  00039	89 7d dc	 mov	 DWORD PTR _iAttackStuffCount$[ebp], edi
  0003c	89 7d e4	 mov	 DWORD PTR _iDefendStuffCount$[ebp], edi
  0003f	33 db		 xor	 ebx, ebx
  00041	89 7d d8	 mov	 DWORD PTR _iDefendStuffPrice$[ebp], edi
  00044	89 7d c0	 mov	 DWORD PTR _iInvalidItemCount$[ebp], edi
  00047	89 7d d4	 mov	 DWORD PTR _bFenrirDamageInc$[ebp], edi
  0004a	89 7d cc	 mov	 DWORD PTR _bFenrirDamageDec$[ebp], edi
  0004d	89 7d e0	 mov	 DWORD PTR _iCharmOfLuckCount$[ebp], edi
  00050	e8 00 00 00 00	 call	 ?PHeadSetB@@YAXPAEEH@Z	; PHeadSetB
  00055	83 c4 0c	 add	 esp, 12			; 0000000cH

; 3686 : 	pMsg.Result = CB_ERROR;

  00058	88 5d ef	 mov	 BYTE PTR _pMsg$[ebp+3], bl
  0005b	eb 03 8d 49 00	 npad	 5
$LL33@Fenrir_04U:

; 3690 : 	{
; 3691 : 		if ( lpObj->pChaosBox[n].IsItem() == TRUE )

  00060	8b 8e 78 0e 00
	00		 mov	 ecx, DWORD PTR [esi+3704]
  00066	03 cf		 add	 ecx, edi
  00068	e8 00 00 00 00	 call	 ?IsItem@CItem@@QAEHXZ	; CItem::IsItem
  0006d	83 f8 01	 cmp	 eax, 1
  00070	0f 85 ad 00 00
	00		 jne	 $LN32@Fenrir_04U

; 3692 : 		{
; 3693 : 			if ( lpObj->pChaosBox[n].m_Type == ITEMGET(13,37) )

  00076	8b 86 78 0e 00
	00		 mov	 eax, DWORD PTR [esi+3704]
  0007c	0f b7 4c 38 06	 movzx	 ecx, WORD PTR [eax+edi+6]
  00081	03 c7		 add	 eax, edi
  00083	ba 25 1a 00 00	 mov	 edx, 6693		; 00001a25H
  00088	66 3b ca	 cmp	 cx, dx
  0008b	75 08		 jne	 SHORT $LN29@Fenrir_04U

; 3694 : 			{
; 3695 : 				iStuffCount_01 ++;

  0008d	ff 45 d0	 inc	 DWORD PTR _iStuffCount_01$[ebp]
  00090	e9 8e 00 00 00	 jmp	 $LN32@Fenrir_04U
$LN29@Fenrir_04U:

; 3696 : 			}
; 3697 : 			else if ( lpObj->pChaosBox[n].m_Type == ITEMGET(14,16) )

  00095	ba 10 1c 00 00	 mov	 edx, 7184		; 00001c10H
  0009a	66 3b ca	 cmp	 cx, dx
  0009d	75 05		 jne	 SHORT $LN27@Fenrir_04U

; 3698 : 			{
; 3699 : 				iLifeGemCount ++;

  0009f	ff 45 c4	 inc	 DWORD PTR _iLifeGemCount$[ebp]
  000a2	eb 7f		 jmp	 SHORT $LN32@Fenrir_04U
$LN27@Fenrir_04U:

; 3700 : 			}
; 3701 : 			else if ( lpObj->pChaosBox[n].m_Type == ITEMGET(12,15) )

  000a4	ba 0f 18 00 00	 mov	 edx, 6159		; 0000180fH
  000a9	66 3b ca	 cmp	 cx, dx
  000ac	75 05		 jne	 SHORT $LN25@Fenrir_04U

; 3702 : 			{
; 3703 : 				iChaosGemCount++;

  000ae	ff 45 c8	 inc	 DWORD PTR _iChaosGemCount$[ebp]

; 3704 : 			}
; 3705 : 			else if ( lpObj->pChaosBox[n].m_Type >= ITEMGET(0,0) &&

  000b1	eb 70		 jmp	 SHORT $LN32@Fenrir_04U
$LN25@Fenrir_04U:

; 3706 : 					  lpObj->pChaosBox[n].m_Type < ITEMGET(6,0) &&
; 3707 : 					  lpObj->pChaosBox[n].m_Level >= 4 &&
; 3708 : 					  lpObj->pChaosBox[n].m_Option3 >= 1)

  000b3	66 85 c9	 test	 cx, cx
  000b6	78 22		 js	 SHORT $LN23@Fenrir_04U
  000b8	ba 00 0c 00 00	 mov	 edx, 3072		; 00000c00H
  000bd	66 3b ca	 cmp	 cx, dx
  000c0	7d 18		 jge	 SHORT $LN23@Fenrir_04U
  000c2	66 83 78 08 04	 cmp	 WORD PTR [eax+8], 4
  000c7	7c 11		 jl	 SHORT $LN23@Fenrir_04U
  000c9	80 b8 96 00 00
	00 01		 cmp	 BYTE PTR [eax+150], 1
  000d0	72 08		 jb	 SHORT $LN23@Fenrir_04U

; 3709 : 			{
; 3710 : 				iAttackStuffCount++;

  000d2	ff 45 dc	 inc	 DWORD PTR _iAttackStuffCount$[ebp]

; 3711 : 				iAttackStuffPrice += lpObj->pChaosBox[n].m_BuyMoney;

  000d5	03 58 70	 add	 ebx, DWORD PTR [eax+112]

; 3712 : 			}
; 3713 : 			else if ( lpObj->pChaosBox[n].m_Type >= ITEMGET(6,0) &&

  000d8	eb 49		 jmp	 SHORT $LN32@Fenrir_04U
$LN23@Fenrir_04U:

; 3714 : 					  lpObj->pChaosBox[n].m_Type < ITEMGET(12,0) &&
; 3715 : 					  lpObj->pChaosBox[n].m_Level >= 4 &&
; 3716 : 					  lpObj->pChaosBox[n].m_Option3 >= 1)

  000da	ba 00 0c 00 00	 mov	 edx, 3072		; 00000c00H
  000df	66 3b ca	 cmp	 cx, dx
  000e2	7c 25		 jl	 SHORT $LN21@Fenrir_04U
  000e4	ba 00 18 00 00	 mov	 edx, 6144		; 00001800H
  000e9	66 3b ca	 cmp	 cx, dx
  000ec	7d 1b		 jge	 SHORT $LN21@Fenrir_04U
  000ee	66 83 78 08 04	 cmp	 WORD PTR [eax+8], 4
  000f3	7c 14		 jl	 SHORT $LN21@Fenrir_04U
  000f5	80 b8 96 00 00
	00 01		 cmp	 BYTE PTR [eax+150], 1
  000fc	72 0b		 jb	 SHORT $LN21@Fenrir_04U

; 3717 : 			{
; 3718 : 				iDefendStuffCount++;
; 3719 : 				iDefendStuffPrice += lpObj->pChaosBox[n].m_BuyMoney;

  000fe	8b 40 70	 mov	 eax, DWORD PTR [eax+112]
  00101	ff 45 e4	 inc	 DWORD PTR _iDefendStuffCount$[ebp]
  00104	01 45 d8	 add	 DWORD PTR _iDefendStuffPrice$[ebp], eax
  00107	eb 1a		 jmp	 SHORT $LN32@Fenrir_04U
$LN21@Fenrir_04U:

; 3720 : 			}
; 3721 : 			else if ( lpObj->pChaosBox[n].m_Type == ITEMGET(14,53) )

  00109	ba 35 1c 00 00	 mov	 edx, 7221		; 00001c35H
  0010e	66 3b ca	 cmp	 cx, dx
  00111	75 0d		 jne	 SHORT $LN19@Fenrir_04U

; 3722 : 			{
; 3723 : 				iCharmOfLuckCount += (int)lpObj->pChaosBox[n].m_Durability;

  00113	d9 40 24	 fld	 DWORD PTR [eax+36]
  00116	e8 00 00 00 00	 call	 __ftol2_sse
  0011b	01 45 e0	 add	 DWORD PTR _iCharmOfLuckCount$[ebp], eax

; 3724 : 			}
; 3725 : 			else

  0011e	eb 03		 jmp	 SHORT $LN32@Fenrir_04U
$LN19@Fenrir_04U:

; 3726 : 			{
; 3727 : 				iInvalidItemCount++;

  00120	ff 45 c0	 inc	 DWORD PTR _iInvalidItemCount$[ebp]
$LN32@Fenrir_04U:

; 3687 : 
; 3688 : 
; 3689 : 	for ( int n=0;n<CHAOS_BOX_SIZE;n++)

  00123	81 c7 d4 00 00
	00		 add	 edi, 212		; 000000d4H
  00129	81 ff 80 1a 00
	00		 cmp	 edi, 6784		; 00001a80H
  0012f	0f 8c 2b ff ff
	ff		 jl	 $LL33@Fenrir_04U

; 3728 : 			}
; 3729 : 		}
; 3730 : 	}
; 3731 : 
; 3732 : 	if ( iStuffCount_01 != 1 || iLifeGemCount != 5 || iChaosGemCount != 1 || ( iAttackStuffCount == 0 && iDefendStuffCount == 0 ) || iInvalidItemCount > 0 )

  00135	b9 01 00 00 00	 mov	 ecx, 1
  0013a	39 4d d0	 cmp	 DWORD PTR _iStuffCount_01$[ebp], ecx
  0013d	0f 85 8f 02 00
	00		 jne	 $LN43@Fenrir_04U
  00143	83 7d c4 05	 cmp	 DWORD PTR _iLifeGemCount$[ebp], 5
  00147	0f 85 85 02 00
	00		 jne	 $LN43@Fenrir_04U
  0014d	39 4d c8	 cmp	 DWORD PTR _iChaosGemCount$[ebp], ecx
  00150	0f 85 7c 02 00
	00		 jne	 $LN43@Fenrir_04U
  00156	8b 45 dc	 mov	 eax, DWORD PTR _iAttackStuffCount$[ebp]
  00159	33 ff		 xor	 edi, edi
  0015b	3b c7		 cmp	 eax, edi
  0015d	75 09		 jne	 SHORT $LN39@Fenrir_04U
  0015f	39 7d e4	 cmp	 DWORD PTR _iDefendStuffCount$[ebp], edi
  00162	0f 84 6c 02 00
	00		 je	 $LN16@Fenrir_04U
$LN39@Fenrir_04U:
  00168	39 7d c0	 cmp	 DWORD PTR _iInvalidItemCount$[ebp], edi
  0016b	0f 8f 63 02 00
	00		 jg	 $LN16@Fenrir_04U

; 3736 : 
; 3737 : 		return;
; 3738 : 	}
; 3739 : 	
; 3740 : 	if ( iCharmOfLuckCount > 10 )

  00171	83 7d e0 0a	 cmp	 DWORD PTR _iCharmOfLuckCount$[ebp], 10 ; 0000000aH
  00175	7e 15		 jle	 SHORT $LN14@Fenrir_04U

; 3741 : 	{
; 3742 : 		pMsg.Result = 0xF0;
; 3743 : 		DataSend(lpObj->m_Index, (LPBYTE)&pMsg, pMsg.h.size);

  00177	0f b6 45 ed	 movzx	 eax, BYTE PTR _pMsg$[ebp+1]
  0017b	8b 16		 mov	 edx, DWORD PTR [esi]
  0017d	50		 push	 eax
  0017e	8d 4d ec	 lea	 ecx, DWORD PTR _pMsg$[ebp]
  00181	51		 push	 ecx
  00182	c6 45 ef f0	 mov	 BYTE PTR _pMsg$[ebp+3], 240 ; 000000f0H
  00186	52		 push	 edx

; 3744 : 		lpObj->ChaosLock = FALSE;
; 3745 : 
; 3746 : 		return;

  00187	e9 54 02 00 00	 jmp	 $LN44@Fenrir_04U
$LN14@Fenrir_04U:

; 3747 : 	}
; 3748 : 
; 3749 : 	if ( iAttackStuffCount > 0 )

  0018c	3b c7		 cmp	 eax, edi
  0018e	7e 05		 jle	 SHORT $LN40@Fenrir_04U

; 3750 : 	{
; 3751 : 		bFenrirDamageInc = TRUE;

  00190	89 4d d4	 mov	 DWORD PTR _bFenrirDamageInc$[ebp], ecx

; 3752 : 		iChaosMoney = iAttackStuffPrice;

  00193	eb 02		 jmp	 SHORT $LN13@Fenrir_04U
$LN40@Fenrir_04U:
  00195	8b df		 mov	 ebx, edi
$LN13@Fenrir_04U:

; 3753 : 	}
; 3754 : 
; 3755 : 	if ( iDefendStuffCount > 0 )

  00197	39 7d e4	 cmp	 DWORD PTR _iDefendStuffCount$[ebp], edi
  0019a	7e 0f		 jle	 SHORT $LN41@Fenrir_04U

; 3756 : 	{
; 3757 : 		bFenrirDamageDec = TRUE;

  0019c	8b c1		 mov	 eax, ecx

; 3758 : 		iChaosMoney = iDefendStuffPrice;

  0019e	8b 4d d8	 mov	 ecx, DWORD PTR _iDefendStuffPrice$[ebp]
  001a1	89 45 cc	 mov	 DWORD PTR _bFenrirDamageDec$[ebp], eax
  001a4	89 4d e8	 mov	 DWORD PTR _iChaosMoney$[ebp], ecx
  001a7	8b d9		 mov	 ebx, ecx
  001a9	eb 02		 jmp	 SHORT $LN12@Fenrir_04U
$LN41@Fenrir_04U:
  001ab	8b c7		 mov	 eax, edi
$LN12@Fenrir_04U:

; 3759 : 	}
; 3760 : 
; 3761 : 	if ( bFenrirDamageInc && bFenrirDamageDec )

  001ad	39 7d d4	 cmp	 DWORD PTR _bFenrirDamageInc$[ebp], edi
  001b0	74 09		 je	 SHORT $LN38@Fenrir_04U
  001b2	3b c7		 cmp	 eax, edi
  001b4	74 0d		 je	 SHORT $LN10@Fenrir_04U

; 3762 : 	{
; 3763 : 		DataSend(lpObj->m_Index, (LPBYTE)&pMsg, pMsg.h.size);
; 3764 : 		lpObj->ChaosLock = FALSE;
; 3765 : 
; 3766 : 		return;

  001b6	e9 19 02 00 00	 jmp	 $LN16@Fenrir_04U
$LN38@Fenrir_04U:

; 3767 : 	}
; 3768 : 
; 3769 : 	if ( !bFenrirDamageInc && !bFenrirDamageDec )

  001bb	3b c7		 cmp	 eax, edi

; 3770 : 	{
; 3771 : 		DataSend(lpObj->m_Index, (LPBYTE)&pMsg, pMsg.h.size);
; 3772 : 		lpObj->ChaosLock = FALSE;
; 3773 : 
; 3774 : 		return;

  001bd	0f 84 11 02 00
	00		 je	 $LN16@Fenrir_04U
$LN10@Fenrir_04U:

; 3775 : 	}
; 3776 : 
; 3777 : 	LogChaosItem(lpObj, "Fenrir_04Level_Mix");

  001c3	8b 4d bc	 mov	 ecx, DWORD PTR _this$[ebp]
  001c6	68 00 00 00 00	 push	 OFFSET ??_C@_0BD@CMBAEEFO@Fenrir_04Level_Mix?$AA@
  001cb	56		 push	 esi
  001cc	e8 00 00 00 00	 call	 ?LogChaosItem@CMixSystem@@QAEXPAUOBJECTSTRUCT@@PAD@Z ; CMixSystem::LogChaosItem

; 3778 : 	LogAddTD("[Fenrir Mix][Level 04] Chaos Mix Start");

  001d1	68 00 00 00 00	 push	 OFFSET ??_C@_0CH@GFKDABEJ@?$FLFenrir?5Mix?$FN?$FLLevel?504?$FN?5Chaos?5Mix@
  001d6	ff 15 00 00 00
	00		 call	 DWORD PTR ?LogAddTD@@3P6AXPADZZA ; LogAddTD

; 3779 : 
; 3780 : 	int nChaosNeedMoney = 10000000;
; 3781 : 
; 3782 : 	int iChaosTaxMoney = (int)((__int64)nChaosNeedMoney * (__int64)g_CastleSiegeSync.GetTaxRateChaos(lpObj->m_Index) / (__int64)100);

  001dc	8b 16		 mov	 edx, DWORD PTR [esi]
  001de	83 c4 04	 add	 esp, 4
  001e1	52		 push	 edx
  001e2	b9 00 00 00 00	 mov	 ecx, OFFSET ?g_CastleSiegeSync@@3VCCastleSiegeSync@@A ; g_CastleSiegeSync
  001e7	e8 00 00 00 00	 call	 ?GetTaxRateChaos@CCastleSiegeSync@@QAEHH@Z ; CCastleSiegeSync::GetTaxRateChaos
  001ec	57		 push	 edi
  001ed	99		 cdq
  001ee	68 80 96 98 00	 push	 10000000		; 00989680H
  001f3	52		 push	 edx
  001f4	50		 push	 eax
  001f5	e8 00 00 00 00	 call	 __allmul
  001fa	57		 push	 edi
  001fb	6a 64		 push	 100			; 00000064H
  001fd	52		 push	 edx
  001fe	50		 push	 eax
  001ff	e8 00 00 00 00	 call	 __alldiv

; 3783 : 
; 3784 : 	if ( iChaosTaxMoney < 0 )

  00204	3b c7		 cmp	 eax, edi
  00206	7d 02		 jge	 SHORT $LN9@Fenrir_04U

; 3785 : 	{
; 3786 : 		iChaosTaxMoney = 0;

  00208	33 c0		 xor	 eax, eax
$LN9@Fenrir_04U:

; 3787 : 	}
; 3788 : 
; 3789 : 	nChaosNeedMoney += iChaosTaxMoney;
; 3790 : 
; 3791 : 	nChaosNeedMoney += lpObj->m_AddMixMoney;

  0020a	8b 8e 20 28 00
	00		 mov	 ecx, DWORD PTR [esi+10272]
  00210	8d bc 01 80 96
	98 00		 lea	 edi, DWORD PTR [ecx+eax+10000000]

; 3792 : 
; 3793 : 	if ( nChaosNeedMoney < 0 )

  00217	85 ff		 test	 edi, edi
  00219	79 02		 jns	 SHORT $LN8@Fenrir_04U

; 3794 : 	{
; 3795 : 		nChaosNeedMoney = 0;

  0021b	33 ff		 xor	 edi, edi
$LN8@Fenrir_04U:

; 3796 : 	}
; 3797 : 
; 3798 : 	if ( lpObj->Money < nChaosNeedMoney )

  0021d	8b 8e f0 00 00
	00		 mov	 ecx, DWORD PTR [esi+240]
  00223	3b cf		 cmp	 ecx, edi
  00225	7d 24		 jge	 SHORT $LN7@Fenrir_04U

; 3799 : 	{
; 3800 : 		pMsg.Result = CB_NOT_ENOUGH_ZEN;
; 3801 : 		
; 3802 : 		DataSend(lpObj->m_Index, (LPBYTE)&pMsg, pMsg.h.size);

  00227	0f b6 55 ed	 movzx	 edx, BYTE PTR _pMsg$[ebp+1]
  0022b	8b 0e		 mov	 ecx, DWORD PTR [esi]
  0022d	52		 push	 edx
  0022e	8d 45 ec	 lea	 eax, DWORD PTR _pMsg$[ebp]
  00231	50		 push	 eax
  00232	51		 push	 ecx
  00233	c6 45 ef 02	 mov	 BYTE PTR _pMsg$[ebp+3], 2
  00237	e8 00 00 00 00	 call	 ?DataSend@@YAHHPAEK@Z	; DataSend

; 3803 : 		lpObj->ChaosLock = FALSE;

  0023c	c7 86 88 0e 00
	00 00 00 00 00	 mov	 DWORD PTR [esi+3720], 0

; 3804 : 
; 3805 : 		return;

  00246	e9 a0 01 00 00	 jmp	 $LN45@Fenrir_04U
$LN7@Fenrir_04U:

; 3806 : 	}
; 3807 : 
; 3808 : 	lpObj->Money -= nChaosNeedMoney;

  0024b	2b cf		 sub	 ecx, edi
  0024d	89 8e f0 00 00
	00		 mov	 DWORD PTR [esi+240], ecx

; 3809 : 	g_CastleSiegeSync.AddTributeMoney(iChaosTaxMoney);

  00253	50		 push	 eax
  00254	b9 00 00 00 00	 mov	 ecx, OFFSET ?g_CastleSiegeSync@@3VCCastleSiegeSync@@A ; g_CastleSiegeSync
  00259	e8 00 00 00 00	 call	 ?AddTributeMoney@CCastleSiegeSync@@QAEXH@Z ; CCastleSiegeSync::AddTributeMoney

; 3810 : 	GCMoneySend(lpObj->m_Index, lpObj->Money);

  0025e	8b 96 f0 00 00
	00		 mov	 edx, DWORD PTR [esi+240]
  00264	8b 06		 mov	 eax, DWORD PTR [esi]
  00266	52		 push	 edx
  00267	50		 push	 eax
  00268	e8 00 00 00 00	 call	 ?GCMoneySend@@YAXHK@Z	; GCMoneySend
  0026d	83 c4 08	 add	 esp, 8

; 3811 : 
; 3812 : 	if ( iChaosMoney > 1000000 )

  00270	81 fb 40 42 0f
	00		 cmp	 ebx, 1000000		; 000f4240H
  00276	7e 0a		 jle	 SHORT $LN6@Fenrir_04U

; 3813 : 		iChaosMoney = 1000000;

  00278	c7 45 e8 40 42
	0f 00		 mov	 DWORD PTR _iChaosMoney$[ebp], 1000000 ; 000f4240H
  0027f	8b 5d e8	 mov	 ebx, DWORD PTR _iChaosMoney$[ebp]
$LN6@Fenrir_04U:

; 3814 : 
; 3815 : 	lpObj->ChaosSuccessRate = iChaosMoney * 100 / 1000000;

  00282	6b db 64	 imul	 ebx, 100		; 00000064H
  00285	8b cb		 mov	 ecx, ebx
  00287	b8 83 de 1b 43	 mov	 eax, 1125899907		; 431bde83H
  0028c	f7 e9		 imul	 ecx
  0028e	c1 fa 12	 sar	 edx, 18			; 00000012H
  00291	8b c2		 mov	 eax, edx
  00293	c1 e8 1f	 shr	 eax, 31			; 0000001fH
  00296	03 c2		 add	 eax, edx
  00298	89 86 84 0e 00
	00		 mov	 DWORD PTR [esi+3716], eax

; 3816 : 
; 3817 : 	if ( lpObj->ChaosSuccessRate > 79 )

  0029e	83 f8 4f	 cmp	 eax, 79			; 0000004fH
  002a1	7e 0a		 jle	 SHORT $LN5@Fenrir_04U

; 3818 : 		lpObj->ChaosSuccessRate = 79;

  002a3	c7 86 84 0e 00
	00 4f 00 00 00	 mov	 DWORD PTR [esi+3716], 79 ; 0000004fH
$LN5@Fenrir_04U:

; 3819 : 
; 3820 : 	lpObj->ChaosSuccessRate += lpObj->m_AddMixSuccessRate;
; 3821 : 
; 3822 : 	lpObj->ChaosSuccessRate += iCharmOfLuckCount;

  002ad	8b 8e 24 28 00
	00		 mov	 ecx, DWORD PTR [esi+10276]
  002b3	8b 5d e0	 mov	 ebx, DWORD PTR _iCharmOfLuckCount$[ebp]
  002b6	03 cb		 add	 ecx, ebx
  002b8	01 8e 84 0e 00
	00		 add	 DWORD PTR [esi+3716], ecx

; 3823 : 
; 3824 : 	if ( (rand()%100) < lpObj->ChaosSuccessRate )

  002be	e8 00 00 00 00	 call	 _rand
  002c3	99		 cdq
  002c4	b9 64 00 00 00	 mov	 ecx, 100		; 00000064H
  002c9	f7 f9		 idiv	 ecx
  002cb	3b 96 84 0e 00
	00		 cmp	 edx, DWORD PTR [esi+3716]
  002d1	0f 8d 89 00 00
	00		 jge	 $LN4@Fenrir_04U

; 3825 : 	{
; 3826 : 		int type = ITEMGET(13,37);
; 3827 : 		int level = 0;
; 3828 : 		int dur = 255;
; 3829 : 		int op1 = 1;
; 3830 : 		int nop = 0;

  002d7	33 c0		 xor	 eax, eax

; 3831 : 
; 3832 : 		if ( bFenrirDamageInc )

  002d9	39 45 d4	 cmp	 DWORD PTR _bFenrirDamageInc$[ebp], eax
  002dc	74 03		 je	 SHORT $LN42@Fenrir_04U

; 3833 : 		{
; 3834 : 			nop |= 1;

  002de	8d 41 9d	 lea	 eax, DWORD PTR [ecx-99]
$LN42@Fenrir_04U:

; 3835 : 		}
; 3836 : 
; 3837 : 		if ( bFenrirDamageDec )

  002e1	83 7d cc 00	 cmp	 DWORD PTR _bFenrirDamageDec$[ebp], 0
  002e5	74 03		 je	 SHORT $LN2@Fenrir_04U

; 3838 : 		{
; 3839 : 			nop |= 2;

  002e7	83 c8 02	 or	 eax, 2
$LN2@Fenrir_04U:

; 3840 : 		}
; 3841 : 
; 3842 : 		ItemSerialCreateSend(lpObj->m_Index, -1, 0, 0, type , (BYTE)level, (BYTE)dur, (BYTE)op1, 0, 0, -1, (BYTE)nop, 0);

  002ea	6a 00		 push	 0
  002ec	8b 16		 mov	 edx, DWORD PTR [esi]
  002ee	50		 push	 eax
  002ef	6a ff		 push	 -1
  002f1	6a 00		 push	 0
  002f3	6a 00		 push	 0
  002f5	6a 01		 push	 1
  002f7	68 ff 00 00 00	 push	 255			; 000000ffH
  002fc	6a 00		 push	 0
  002fe	68 25 1a 00 00	 push	 6693			; 00001a25H
  00303	6a 00		 push	 0
  00305	6a 00		 push	 0
  00307	68 ff 00 00 00	 push	 255			; 000000ffH
  0030c	52		 push	 edx
  0030d	e8 00 00 00 00	 call	 ?ItemSerialCreateSend@@YAXHEEEHEEEEEHEE@Z ; ItemSerialCreateSend

; 3843 : 		::gObjInventoryCommit(lpObj->m_Index);

  00312	8b 06		 mov	 eax, DWORD PTR [esi]
  00314	50		 push	 eax
  00315	e8 00 00 00 00	 call	 ?gObjInventoryCommit@@YAHH@Z ; gObjInventoryCommit

; 3844 : 
; 3845 : 		LogAddTD("[Fenrir Mix][Level 04] [%s][%s] CBMix Success %d Money : %d-%d, CharmRate : %d",
; 3846 : 			lpObj->AccountID, lpObj->Name, lpObj->ChaosSuccessRate, lpObj->Money, nChaosNeedMoney,
; 3847 : 			iCharmOfLuckCount);

  0031a	8b 8e f0 00 00
	00		 mov	 ecx, DWORD PTR [esi+240]
  00320	8b 96 84 0e 00
	00		 mov	 edx, DWORD PTR [esi+3716]
  00326	53		 push	 ebx
  00327	57		 push	 edi
  00328	51		 push	 ecx
  00329	52		 push	 edx
  0032a	8d 46 77	 lea	 eax, DWORD PTR [esi+119]
  0032d	50		 push	 eax
  0032e	8d 4e 6c	 lea	 ecx, DWORD PTR [esi+108]
  00331	51		 push	 ecx
  00332	68 00 00 00 00	 push	 OFFSET ??_C@_0EP@NJDPFBHB@?$FLFenrir?5Mix?$FN?$FLLevel?504?$FN?5?$FL?$CFs?$FN?$FL?$CFs?$FN?5@
  00337	ff 15 00 00 00
	00		 call	 DWORD PTR ?LogAddTD@@3P6AXPADZZA ; LogAddTD

; 3848 : #if(SYSTEM_ACHIEVEMENTS)
; 3849 : 		g_Achievements.SuccessChaosMix(lpObj->m_Index);

  0033d	8b 16		 mov	 edx, DWORD PTR [esi]
  0033f	83 c4 54	 add	 esp, 84			; 00000054H
  00342	52		 push	 edx
  00343	b9 00 00 00 00	 mov	 ecx, OFFSET ?g_Achievements@@3VCAchievements@@A ; g_Achievements
  00348	e8 00 00 00 00	 call	 ?SuccessChaosMix@CAchievements@@QAEXH@Z ; CAchievements::SuccessChaosMix
  0034d	5f		 pop	 edi
  0034e	5e		 pop	 esi
  0034f	5b		 pop	 ebx

; 3865 : 	}
; 3866 : }

  00350	8b 4d fc	 mov	 ecx, DWORD PTR __$ArrayPad$[ebp]
  00353	33 cd		 xor	 ecx, ebp
  00355	e8 00 00 00 00	 call	 @__security_check_cookie@4
  0035a	8b e5		 mov	 esp, ebp
  0035c	5d		 pop	 ebp
  0035d	c2 04 00	 ret	 4
$LN4@Fenrir_04U:

; 3850 : #endif
; 3851 : 	}
; 3852 : 	else
; 3853 : 	{
; 3854 : 		this->ChaosBoxInit(lpObj);

  00360	8b 4d bc	 mov	 ecx, DWORD PTR _this$[ebp]
  00363	56		 push	 esi
  00364	e8 00 00 00 00	 call	 ?ChaosBoxInit@CMixSystem@@QAEHPAUOBJECTSTRUCT@@@Z ; CMixSystem::ChaosBoxInit

; 3855 : 		::GCUserChaosBoxSend(lpObj, 0);

  00369	6a 00		 push	 0
  0036b	56		 push	 esi
  0036c	e8 00 00 00 00	 call	 ?GCUserChaosBoxSend@@YAXPAUOBJECTSTRUCT@@H@Z ; GCUserChaosBoxSend

; 3856 : 		DataSend(lpObj->m_Index, (LPBYTE)&pMsg, pMsg.h.size);

  00371	0f b6 45 ed	 movzx	 eax, BYTE PTR _pMsg$[ebp+1]
  00375	8b 16		 mov	 edx, DWORD PTR [esi]
  00377	50		 push	 eax
  00378	8d 4d ec	 lea	 ecx, DWORD PTR _pMsg$[ebp]
  0037b	51		 push	 ecx
  0037c	52		 push	 edx
  0037d	e8 00 00 00 00	 call	 ?DataSend@@YAHHPAEK@Z	; DataSend

; 3857 : 
; 3858 : 		LogAddTD("[Fenrir Mix][Level 04] [%s][%s] CBMix Fail %d Money : %d-%d, CharmRate : %d",
; 3859 : 			lpObj->AccountID, lpObj->Name, lpObj->ChaosSuccessRate, lpObj->Money, nChaosNeedMoney,
; 3860 : 			iCharmOfLuckCount);

  00382	8b 86 f0 00 00
	00		 mov	 eax, DWORD PTR [esi+240]
  00388	8b 8e 84 0e 00
	00		 mov	 ecx, DWORD PTR [esi+3716]
  0038e	53		 push	 ebx
  0038f	57		 push	 edi
  00390	50		 push	 eax
  00391	51		 push	 ecx
  00392	8d 56 77	 lea	 edx, DWORD PTR [esi+119]
  00395	52		 push	 edx
  00396	8d 46 6c	 lea	 eax, DWORD PTR [esi+108]
  00399	50		 push	 eax
  0039a	68 00 00 00 00	 push	 OFFSET ??_C@_0EM@GDMLAIBE@?$FLFenrir?5Mix?$FN?$FLLevel?504?$FN?5?$FL?$CFs?$FN?$FL?$CFs?$FN?5@
  0039f	ff 15 00 00 00
	00		 call	 DWORD PTR ?LogAddTD@@3P6AXPADZZA ; LogAddTD

; 3861 : #if(SYSTEM_ACHIEVEMENTS)
; 3862 : 		g_Achievements.FailedChaosMix(lpObj->m_Index);

  003a5	8b 0e		 mov	 ecx, DWORD PTR [esi]
  003a7	83 c4 30	 add	 esp, 48			; 00000030H
  003aa	51		 push	 ecx
  003ab	b9 00 00 00 00	 mov	 ecx, OFFSET ?g_Achievements@@3VCAchievements@@A ; g_Achievements
  003b0	e8 00 00 00 00	 call	 ?FailedChaosMix@CAchievements@@QAEXH@Z ; CAchievements::FailedChaosMix
  003b5	5f		 pop	 edi

; 3863 : #endif
; 3864 : 		lpObj->ChaosLock = FALSE;

  003b6	c7 86 88 0e 00
	00 00 00 00 00	 mov	 DWORD PTR [esi+3720], 0
  003c0	5e		 pop	 esi
  003c1	5b		 pop	 ebx

; 3865 : 	}
; 3866 : }

  003c2	8b 4d fc	 mov	 ecx, DWORD PTR __$ArrayPad$[ebp]
  003c5	33 cd		 xor	 ecx, ebp
  003c7	e8 00 00 00 00	 call	 @__security_check_cookie@4
  003cc	8b e5		 mov	 esp, ebp
  003ce	5d		 pop	 ebp
  003cf	c2 04 00	 ret	 4
$LN43@Fenrir_04U:

; 3863 : #endif
; 3864 : 		lpObj->ChaosLock = FALSE;

  003d2	33 ff		 xor	 edi, edi
$LN16@Fenrir_04U:

; 3733 : 	{
; 3734 : 		DataSend(lpObj->m_Index, (LPBYTE)&pMsg, pMsg.h.size);

  003d4	0f b6 55 ed	 movzx	 edx, BYTE PTR _pMsg$[ebp+1]
  003d8	8b 0e		 mov	 ecx, DWORD PTR [esi]
  003da	52		 push	 edx
  003db	8d 45 ec	 lea	 eax, DWORD PTR _pMsg$[ebp]
  003de	50		 push	 eax
  003df	51		 push	 ecx
$LN44@Fenrir_04U:
  003e0	e8 00 00 00 00	 call	 ?DataSend@@YAHHPAEK@Z	; DataSend

; 3735 : 		lpObj->ChaosLock = FALSE;

  003e5	89 be 88 0e 00
	00		 mov	 DWORD PTR [esi+3720], edi
$LN45@Fenrir_04U:

; 3865 : 	}
; 3866 : }

  003eb	8b 4d fc	 mov	 ecx, DWORD PTR __$ArrayPad$[ebp]
  003ee	83 c4 0c	 add	 esp, 12			; 0000000cH
  003f1	5f		 pop	 edi
  003f2	5e		 pop	 esi
  003f3	33 cd		 xor	 ecx, ebp
  003f5	5b		 pop	 ebx
  003f6	e8 00 00 00 00	 call	 @__security_check_cookie@4
  003fb	8b e5		 mov	 esp, ebp
  003fd	5d		 pop	 ebp
  003fe	c2 04 00	 ret	 4
?Fenrir_04Upgrade_Mix@CMixSystem@@QAEXPAUOBJECTSTRUCT@@@Z ENDP ; CMixSystem::Fenrir_04Upgrade_Mix
_TEXT	ENDS
PUBLIC	??_C@_0FO@MOBDMAKD@?$FLChaosMix?$FN?$FLShield?5Potion?$FN?5Lv1?5Po@ ; `string'
PUBLIC	??_C@_0FI@CLIKDBCN@?$FLChaosMix?$FN?$FLShield?5Potion?$FN?5Lv1?5Po@ ; `string'
PUBLIC	??_C@_0CO@IFFECFCD@?$FLPotionMix?$FN?$FLShieldPotion?5Lv1?5Mix@ ; `string'
PUBLIC	??_C@_0CA@MBDGDKKM@PotionMix?$FN?$FLShieldPotion?5Lv1?5Mix?$AA@ ; `string'
PUBLIC	__$ArrayPad$
PUBLIC	?ShieldPotionLv1_Mix@CMixSystem@@QAEXPAUOBJECTSTRUCT@@@Z ; CMixSystem::ShieldPotionLv1_Mix
EXTRN	?g_iShieldPotionLv1MixSuccessRate@@3HA:DWORD	; g_iShieldPotionLv1MixSuccessRate
EXTRN	?g_iShieldPotionLv1MixMoney@@3HA:DWORD		; g_iShieldPotionLv1MixMoney
EXTRN	?g_ShieldSystemOn@@3HA:DWORD			; g_ShieldSystemOn
;	COMDAT ??_C@_0FO@MOBDMAKD@?$FLChaosMix?$FN?$FLShield?5Potion?$FN?5Lv1?5Po@
CONST	SEGMENT
??_C@_0FO@MOBDMAKD@?$FLChaosMix?$FN?$FLShield?5Potion?$FN?5Lv1?5Po@ DB '['
	DB	'ChaosMix][Shield Potion] Lv1 Potion Mix [%s][%s] CBMix Fail %'
	DB	'd Money : %d-%d, CharmRate : %d', 00H	; `string'
CONST	ENDS
;	COMDAT ??_C@_0FI@CLIKDBCN@?$FLChaosMix?$FN?$FLShield?5Potion?$FN?5Lv1?5Po@
CONST	SEGMENT
??_C@_0FI@CLIKDBCN@?$FLChaosMix?$FN?$FLShield?5Potion?$FN?5Lv1?5Po@ DB '['
	DB	'ChaosMix][Shield Potion] Lv1 Potion Mix Success [%s][%s], Mon'
	DB	'ey(%d-%d), CharmRate : %d', 00H		; `string'
CONST	ENDS
;	COMDAT ??_C@_0CO@IFFECFCD@?$FLPotionMix?$FN?$FLShieldPotion?5Lv1?5Mix@
CONST	SEGMENT
??_C@_0CO@IFFECFCD@?$FLPotionMix?$FN?$FLShieldPotion?5Lv1?5Mix@ DB '[Poti'
	DB	'onMix][ShieldPotion Lv1 Mix] - Mix Start', 00H ; `string'
CONST	ENDS
;	COMDAT ??_C@_0CA@MBDGDKKM@PotionMix?$FN?$FLShieldPotion?5Lv1?5Mix?$AA@
CONST	SEGMENT
??_C@_0CA@MBDGDKKM@PotionMix?$FN?$FLShieldPotion?5Lv1?5Mix?$AA@ DB 'Potio'
	DB	'nMix][ShieldPotion Lv1 Mix', 00H		; `string'
; Function compile flags: /Ogtp
CONST	ENDS
;	COMDAT ?ShieldPotionLv1_Mix@CMixSystem@@QAEXPAUOBJECTSTRUCT@@@Z
_TEXT	SEGMENT
_this$ = -32						; size = 4
_iInvalidItemCount$ = -28				; size = 4
_iHealthPotionCount$ = -24				; size = 4
_pMsg$ = -20						; size = 16
__$ArrayPad$ = -4					; size = 4
_lpObj$ = 8						; size = 4
?ShieldPotionLv1_Mix@CMixSystem@@QAEXPAUOBJECTSTRUCT@@@Z PROC ; CMixSystem::ShieldPotionLv1_Mix, COMDAT
; _this$ = ecx

; 3869 : {

  00000	55		 push	 ebp
  00001	8b ec		 mov	 ebp, esp
  00003	83 ec 20	 sub	 esp, 32			; 00000020H
  00006	a1 00 00 00 00	 mov	 eax, DWORD PTR ___security_cookie
  0000b	33 c5		 xor	 eax, ebp
  0000d	89 45 fc	 mov	 DWORD PTR __$ArrayPad$[ebp], eax
  00010	53		 push	 ebx
  00011	56		 push	 esi
  00012	8b 75 08	 mov	 esi, DWORD PTR _lpObj$[ebp]
  00015	57		 push	 edi

; 3870 : 	int iHealthPotionCount = 0;

  00016	33 ff		 xor	 edi, edi

; 3871 : 	int iInvalidItemCount = 0;
; 3872 : 	int iChaosMixPrice = 0;
; 3873 : 	int iCharmOfLuckCount = 0;

  00018	33 db		 xor	 ebx, ebx
  0001a	89 4d e0	 mov	 DWORD PTR _this$[ebp], ecx
  0001d	89 7d e8	 mov	 DWORD PTR _iHealthPotionCount$[ebp], edi
  00020	89 7d e4	 mov	 DWORD PTR _iInvalidItemCount$[ebp], edi

; 3874 : 
; 3875 : 	if ( g_ShieldSystemOn == FALSE )

  00023	39 3d 00 00 00
	00		 cmp	 DWORD PTR ?g_ShieldSystemOn@@3HA, edi ; g_ShieldSystemOn
  00029	0f 84 ae 00 00
	00		 je	 $LN18@ShieldPoti

; 3876 : 		return;
; 3877 : 
; 3878 : 	PMSG_CHAOSMIXRESULT pMsg;
; 3879 : 
; 3880 : 	PHeadSetB((LPBYTE)&pMsg.h, 0x86, sizeof(PMSG_CHAOSMIXRESULT));

  0002f	6a 10		 push	 16			; 00000010H
  00031	8d 45 ec	 lea	 eax, DWORD PTR _pMsg$[ebp]
  00034	68 86 00 00 00	 push	 134			; 00000086H
  00039	50		 push	 eax
  0003a	e8 00 00 00 00	 call	 ?PHeadSetB@@YAXPAEEH@Z	; PHeadSetB
  0003f	83 c4 0c	 add	 esp, 12			; 0000000cH

; 3881 : 	pMsg.Result = CB_ERROR;

  00042	88 5d ef	 mov	 BYTE PTR _pMsg$[ebp+3], bl
  00045	eb 09 8d a4 24
	00 00 00 00 8b
	ff		 npad	 11
$LL16@ShieldPoti:

; 3884 : 	{
; 3885 : 		if ( lpObj->pChaosBox[n].IsItem() == TRUE )

  00050	8b 8e 78 0e 00
	00		 mov	 ecx, DWORD PTR [esi+3704]
  00056	03 cf		 add	 ecx, edi
  00058	e8 00 00 00 00	 call	 ?IsItem@CItem@@QAEHXZ	; CItem::IsItem
  0005d	83 f8 01	 cmp	 eax, 1
  00060	75 3d		 jne	 SHORT $LN15@ShieldPoti

; 3886 : 		{
; 3887 : 			if ( lpObj->pChaosBox[n].m_Type == ITEMGET(14,3) )

  00062	8b 86 78 0e 00
	00		 mov	 eax, DWORD PTR [esi+3704]
  00068	0f b7 4c 38 06	 movzx	 ecx, WORD PTR [eax+edi+6]
  0006d	ba 03 1c 00 00	 mov	 edx, 7171		; 00001c03H
  00072	66 3b ca	 cmp	 cx, dx
  00075	75 0e		 jne	 SHORT $LN12@ShieldPoti

; 3888 : 			{
; 3889 : 				iHealthPotionCount+=(int)lpObj->pChaosBox[n].m_Durability;

  00077	d9 44 38 24	 fld	 DWORD PTR [eax+edi+36]
  0007b	e8 00 00 00 00	 call	 __ftol2_sse
  00080	01 45 e8	 add	 DWORD PTR _iHealthPotionCount$[ebp], eax
  00083	eb 1a		 jmp	 SHORT $LN15@ShieldPoti
$LN12@ShieldPoti:

; 3890 : 			}
; 3891 : 			else if ( lpObj->pChaosBox[n].m_Type == ITEMGET(14,53) )	// Charm Of Luck

  00085	ba 35 1c 00 00	 mov	 edx, 7221		; 00001c35H
  0008a	66 3b ca	 cmp	 cx, dx
  0008d	75 0d		 jne	 SHORT $LN10@ShieldPoti

; 3892 : 			{
; 3893 : 				iCharmOfLuckCount += (int)lpObj->pChaosBox[n].m_Durability;

  0008f	d9 44 38 24	 fld	 DWORD PTR [eax+edi+36]
  00093	e8 00 00 00 00	 call	 __ftol2_sse
  00098	03 d8		 add	 ebx, eax

; 3894 : 			}
; 3895 : 			else

  0009a	eb 03		 jmp	 SHORT $LN15@ShieldPoti
$LN10@ShieldPoti:

; 3896 : 			{
; 3897 : 				iInvalidItemCount++;

  0009c	ff 45 e4	 inc	 DWORD PTR _iInvalidItemCount$[ebp]
$LN15@ShieldPoti:

; 3882 : 
; 3883 : 	for ( int n=0;n<CHAOS_BOX_SIZE;n++)

  0009f	81 c7 d4 00 00
	00		 add	 edi, 212		; 000000d4H
  000a5	81 ff 80 1a 00
	00		 cmp	 edi, 6784		; 00001a80H
  000ab	7c a3		 jl	 SHORT $LL16@ShieldPoti

; 3898 : 			}
; 3899 : 		}
; 3900 : 	}
; 3901 : 
; 3902 : 	if ( iInvalidItemCount > 0 || iHealthPotionCount != 3 )

  000ad	33 ff		 xor	 edi, edi
  000af	39 7d e4	 cmp	 DWORD PTR _iInvalidItemCount$[ebp], edi
  000b2	7f 0f		 jg	 SHORT $LN7@ShieldPoti
  000b4	83 7d e8 03	 cmp	 DWORD PTR _iHealthPotionCount$[ebp], 3
  000b8	75 09		 jne	 SHORT $LN7@ShieldPoti

; 3906 : 
; 3907 : 		return;
; 3908 : 	}
; 3909 : 
; 3910 : 	if ( iCharmOfLuckCount > 10 )

  000ba	83 fb 0a	 cmp	 ebx, 10			; 0000000aH
  000bd	7e 31		 jle	 SHORT $LN6@ShieldPoti

; 3911 : 	{
; 3912 : 		pMsg.Result = 0xF0;

  000bf	c6 45 ef f0	 mov	 BYTE PTR _pMsg$[ebp+3], 240 ; 000000f0H
$LN7@ShieldPoti:

; 3903 : 	{
; 3904 : 		DataSend(lpObj->m_Index, (LPBYTE)&pMsg, pMsg.h.size);

  000c3	0f b6 45 ed	 movzx	 eax, BYTE PTR _pMsg$[ebp+1]
  000c7	8b 16		 mov	 edx, DWORD PTR [esi]
  000c9	50		 push	 eax
  000ca	8d 4d ec	 lea	 ecx, DWORD PTR _pMsg$[ebp]
  000cd	51		 push	 ecx
  000ce	52		 push	 edx
  000cf	e8 00 00 00 00	 call	 ?DataSend@@YAHHPAEK@Z	; DataSend

; 3905 : 		lpObj->ChaosLock = FALSE;

  000d4	89 be 88 0e 00
	00		 mov	 DWORD PTR [esi+3720], edi
$LN23@ShieldPoti:

; 3903 : 	{
; 3904 : 		DataSend(lpObj->m_Index, (LPBYTE)&pMsg, pMsg.h.size);

  000da	83 c4 0c	 add	 esp, 12			; 0000000cH
$LN18@ShieldPoti:
  000dd	5f		 pop	 edi
  000de	5e		 pop	 esi
  000df	5b		 pop	 ebx

; 3984 : }

  000e0	8b 4d fc	 mov	 ecx, DWORD PTR __$ArrayPad$[ebp]
  000e3	33 cd		 xor	 ecx, ebp
  000e5	e8 00 00 00 00	 call	 @__security_check_cookie@4
  000ea	8b e5		 mov	 esp, ebp
  000ec	5d		 pop	 ebp
  000ed	c2 04 00	 ret	 4
$LN6@ShieldPoti:

; 3913 : 		DataSend(lpObj->m_Index, (LPBYTE)&pMsg, pMsg.h.size);
; 3914 : 		lpObj->ChaosLock = FALSE;
; 3915 : 
; 3916 : 		return;
; 3917 : 	}
; 3918 : 
; 3919 : 	iChaosMixPrice = g_iShieldPotionLv1MixMoney;
; 3920 : 	int iChaosTaxMoney = iChaosMixPrice * g_CastleSiegeSync.GetTaxRateChaos(lpObj->m_Index) / 100;

  000f0	8b 06		 mov	 eax, DWORD PTR [esi]
  000f2	8b 3d 00 00 00
	00		 mov	 edi, DWORD PTR ?g_iShieldPotionLv1MixMoney@@3HA ; g_iShieldPotionLv1MixMoney
  000f8	50		 push	 eax
  000f9	b9 00 00 00 00	 mov	 ecx, OFFSET ?g_CastleSiegeSync@@3VCCastleSiegeSync@@A ; g_CastleSiegeSync
  000fe	e8 00 00 00 00	 call	 ?GetTaxRateChaos@CCastleSiegeSync@@QAEHH@Z ; CCastleSiegeSync::GetTaxRateChaos
  00103	8b c8		 mov	 ecx, eax
  00105	0f af cf	 imul	 ecx, edi
  00108	b8 1f 85 eb 51	 mov	 eax, 1374389535		; 51eb851fH
  0010d	f7 e9		 imul	 ecx
  0010f	c1 fa 05	 sar	 edx, 5
  00112	8b c2		 mov	 eax, edx
  00114	c1 e8 1f	 shr	 eax, 31			; 0000001fH
  00117	03 c2		 add	 eax, edx

; 3921 : 
; 3922 : 	if ( iChaosTaxMoney < 0 )

  00119	79 02		 jns	 SHORT $LN22@ShieldPoti

; 3923 : 	{
; 3924 : 		iChaosTaxMoney = 0;

  0011b	33 c0		 xor	 eax, eax
$LN22@ShieldPoti:

; 3925 : 	}
; 3926 : 
; 3927 : 	iChaosMixPrice += iChaosTaxMoney;

  0011d	03 f8		 add	 edi, eax

; 3928 : 
; 3929 : 	if ( iChaosMixPrice < 0 )

  0011f	79 02		 jns	 SHORT $LN4@ShieldPoti

; 3930 : 	{
; 3931 : 		iChaosMixPrice = 0;

  00121	33 ff		 xor	 edi, edi
$LN4@ShieldPoti:

; 3932 : 	}
; 3933 : 
; 3934 : 	if ( lpObj->Money < iChaosMixPrice )

  00123	8b 8e f0 00 00
	00		 mov	 ecx, DWORD PTR [esi+240]
  00129	3b cf		 cmp	 ecx, edi
  0012b	7d 21		 jge	 SHORT $LN3@ShieldPoti

; 3935 : 	{
; 3936 : 		pMsg.Result = CB_NOT_ENOUGH_ZEN;
; 3937 : 		
; 3938 : 		DataSend(lpObj->m_Index, (LPBYTE)&pMsg, pMsg.h.size);

  0012d	0f b6 4d ed	 movzx	 ecx, BYTE PTR _pMsg$[ebp+1]
  00131	8b 06		 mov	 eax, DWORD PTR [esi]
  00133	51		 push	 ecx
  00134	8d 55 ec	 lea	 edx, DWORD PTR _pMsg$[ebp]
  00137	52		 push	 edx
  00138	50		 push	 eax
  00139	c6 45 ef 02	 mov	 BYTE PTR _pMsg$[ebp+3], 2
  0013d	e8 00 00 00 00	 call	 ?DataSend@@YAHHPAEK@Z	; DataSend

; 3939 : 		lpObj->ChaosLock = FALSE;

  00142	c7 86 88 0e 00
	00 00 00 00 00	 mov	 DWORD PTR [esi+3720], 0

; 3940 : 
; 3941 : 		return;

  0014c	eb 8c		 jmp	 SHORT $LN23@ShieldPoti
$LN3@ShieldPoti:

; 3942 : 	}
; 3943 : 
; 3944 : 	lpObj->Money -= iChaosMixPrice;

  0014e	2b cf		 sub	 ecx, edi
  00150	89 8e f0 00 00
	00		 mov	 DWORD PTR [esi+240], ecx

; 3945 : 	g_CastleSiegeSync.AddTributeMoney(iChaosTaxMoney);

  00156	50		 push	 eax
  00157	b9 00 00 00 00	 mov	 ecx, OFFSET ?g_CastleSiegeSync@@3VCCastleSiegeSync@@A ; g_CastleSiegeSync
  0015c	e8 00 00 00 00	 call	 ?AddTributeMoney@CCastleSiegeSync@@QAEXH@Z ; CCastleSiegeSync::AddTributeMoney

; 3946 : 	GCMoneySend(lpObj->m_Index, lpObj->Money);

  00161	8b 8e f0 00 00
	00		 mov	 ecx, DWORD PTR [esi+240]
  00167	8b 16		 mov	 edx, DWORD PTR [esi]
  00169	51		 push	 ecx
  0016a	52		 push	 edx
  0016b	e8 00 00 00 00	 call	 ?GCMoneySend@@YAXHK@Z	; GCMoneySend

; 3947 : 
; 3948 : 	LogChaosItem(lpObj, "PotionMix][ShieldPotion Lv1 Mix");

  00170	8b 4d e0	 mov	 ecx, DWORD PTR _this$[ebp]
  00173	83 c4 08	 add	 esp, 8
  00176	68 00 00 00 00	 push	 OFFSET ??_C@_0CA@MBDGDKKM@PotionMix?$FN?$FLShieldPotion?5Lv1?5Mix?$AA@
  0017b	56		 push	 esi
  0017c	e8 00 00 00 00	 call	 ?LogChaosItem@CMixSystem@@QAEXPAUOBJECTSTRUCT@@PAD@Z ; CMixSystem::LogChaosItem

; 3949 : 	LogAddTD("[PotionMix][ShieldPotion Lv1 Mix] - Mix Start");

  00181	68 00 00 00 00	 push	 OFFSET ??_C@_0CO@IFFECFCD@?$FLPotionMix?$FN?$FLShieldPotion?5Lv1?5Mix@
  00186	ff 15 00 00 00
	00		 call	 DWORD PTR ?LogAddTD@@3P6AXPADZZA ; LogAddTD
  0018c	83 c4 04	 add	 esp, 4

; 3950 : 	
; 3951 : 	int iRate = rand() % 100;

  0018f	e8 00 00 00 00	 call	 _rand
  00194	99		 cdq
  00195	b9 64 00 00 00	 mov	 ecx, 100		; 00000064H
  0019a	f7 f9		 idiv	 ecx

; 3952 : 	iRate -= iCharmOfLuckCount;

  0019c	2b d3		 sub	 edx, ebx

; 3953 : 
; 3954 : 	if ( iRate < g_iShieldPotionLv1MixSuccessRate )

  0019e	3b 15 00 00 00
	00		 cmp	 edx, DWORD PTR ?g_iShieldPotionLv1MixSuccessRate@@3HA ; g_iShieldPotionLv1MixSuccessRate
  001a4	7d 76		 jge	 SHORT $LN2@ShieldPoti

; 3955 : 	{
; 3956 : 		int ItemNum = ITEMGET(14,35);
; 3957 : 
; 3958 : 		ItemSerialCreateSend(lpObj->m_Index, -1, 0, 0, ItemNum, 0, 1, 0, 0, 0, lpObj->m_Index, 0, 0);

  001a6	8b 06		 mov	 eax, DWORD PTR [esi]
  001a8	6a 00		 push	 0
  001aa	6a 00		 push	 0
  001ac	50		 push	 eax
  001ad	6a 00		 push	 0
  001af	6a 00		 push	 0
  001b1	6a 00		 push	 0
  001b3	6a 01		 push	 1
  001b5	6a 00		 push	 0
  001b7	68 23 1c 00 00	 push	 7203			; 00001c23H
  001bc	6a 00		 push	 0
  001be	6a 00		 push	 0
  001c0	68 ff 00 00 00	 push	 255			; 000000ffH
  001c5	50		 push	 eax
  001c6	e8 00 00 00 00	 call	 ?ItemSerialCreateSend@@YAXHEEEHEEEEEHEE@Z ; ItemSerialCreateSend

; 3959 : 		::gObjInventoryCommit(lpObj->m_Index);

  001cb	8b 16		 mov	 edx, DWORD PTR [esi]
  001cd	52		 push	 edx
  001ce	e8 00 00 00 00	 call	 ?gObjInventoryCommit@@YAHH@Z ; gObjInventoryCommit

; 3960 : 
; 3961 : 		LogAddTD("[ChaosMix][Shield Potion] Lv1 Potion Mix Success [%s][%s], Money(%d-%d), CharmRate : %d",
; 3962 : 			lpObj->AccountID, lpObj->Name, 	lpObj->Money, iChaosMixPrice, iCharmOfLuckCount);

  001d3	8b 86 f0 00 00
	00		 mov	 eax, DWORD PTR [esi+240]
  001d9	53		 push	 ebx
  001da	57		 push	 edi
  001db	50		 push	 eax
  001dc	8d 4e 77	 lea	 ecx, DWORD PTR [esi+119]
  001df	51		 push	 ecx
  001e0	8d 56 6c	 lea	 edx, DWORD PTR [esi+108]
  001e3	52		 push	 edx
  001e4	68 00 00 00 00	 push	 OFFSET ??_C@_0FI@CLIKDBCN@?$FLChaosMix?$FN?$FLShield?5Potion?$FN?5Lv1?5Po@
  001e9	ff 15 00 00 00
	00		 call	 DWORD PTR ?LogAddTD@@3P6AXPADZZA ; LogAddTD

; 3963 : 
; 3964 : #if(SYSTEM_ACHIEVEMENTS)
; 3965 : 		g_Achievements.SuccessChaosMix(lpObj->m_Index);

  001ef	8b 06		 mov	 eax, DWORD PTR [esi]
  001f1	83 c4 50	 add	 esp, 80			; 00000050H
  001f4	50		 push	 eax
  001f5	b9 00 00 00 00	 mov	 ecx, OFFSET ?g_Achievements@@3VCAchievements@@A ; g_Achievements
  001fa	e8 00 00 00 00	 call	 ?SuccessChaosMix@CAchievements@@QAEXH@Z ; CAchievements::SuccessChaosMix
  001ff	5f		 pop	 edi

; 3980 : #endif
; 3981 : 	}
; 3982 : 
; 3983 : 	lpObj->ChaosLock = FALSE;

  00200	c7 86 88 0e 00
	00 00 00 00 00	 mov	 DWORD PTR [esi+3720], 0
  0020a	5e		 pop	 esi
  0020b	5b		 pop	 ebx

; 3984 : }

  0020c	8b 4d fc	 mov	 ecx, DWORD PTR __$ArrayPad$[ebp]
  0020f	33 cd		 xor	 ecx, ebp
  00211	e8 00 00 00 00	 call	 @__security_check_cookie@4
  00216	8b e5		 mov	 esp, ebp
  00218	5d		 pop	 ebp
  00219	c2 04 00	 ret	 4
$LN2@ShieldPoti:

; 3966 : #endif
; 3967 : 	}
; 3968 : 	else
; 3969 : 	{
; 3970 : 		this->ChaosBoxInit(lpObj);

  0021c	8b 4d e0	 mov	 ecx, DWORD PTR _this$[ebp]
  0021f	56		 push	 esi
  00220	e8 00 00 00 00	 call	 ?ChaosBoxInit@CMixSystem@@QAEHPAUOBJECTSTRUCT@@@Z ; CMixSystem::ChaosBoxInit

; 3971 : 		::GCUserChaosBoxSend(lpObj, 0);

  00225	6a 00		 push	 0
  00227	56		 push	 esi
  00228	e8 00 00 00 00	 call	 ?GCUserChaosBoxSend@@YAXPAUOBJECTSTRUCT@@H@Z ; GCUserChaosBoxSend

; 3972 : 		DataSend(lpObj->m_Index, (LPBYTE)&pMsg, pMsg.h.size);

  0022d	0f b6 4d ed	 movzx	 ecx, BYTE PTR _pMsg$[ebp+1]
  00231	8b 06		 mov	 eax, DWORD PTR [esi]
  00233	51		 push	 ecx
  00234	8d 55 ec	 lea	 edx, DWORD PTR _pMsg$[ebp]
  00237	52		 push	 edx
  00238	50		 push	 eax
  00239	e8 00 00 00 00	 call	 ?DataSend@@YAHHPAEK@Z	; DataSend

; 3973 : 
; 3974 : 		LogAddTD("[ChaosMix][Shield Potion] Lv1 Potion Mix [%s][%s] CBMix Fail %d Money : %d-%d, CharmRate : %d",
; 3975 : 			lpObj->AccountID, lpObj->Name, 	g_iShieldPotionLv1MixSuccessRate,
; 3976 : 			lpObj->Money, iChaosMixPrice, iCharmOfLuckCount);

  0023e	8b 8e f0 00 00
	00		 mov	 ecx, DWORD PTR [esi+240]
  00244	8b 15 00 00 00
	00		 mov	 edx, DWORD PTR ?g_iShieldPotionLv1MixSuccessRate@@3HA ; g_iShieldPotionLv1MixSuccessRate
  0024a	53		 push	 ebx
  0024b	57		 push	 edi
  0024c	51		 push	 ecx
  0024d	52		 push	 edx
  0024e	8d 46 77	 lea	 eax, DWORD PTR [esi+119]
  00251	50		 push	 eax
  00252	8d 4e 6c	 lea	 ecx, DWORD PTR [esi+108]
  00255	51		 push	 ecx
  00256	68 00 00 00 00	 push	 OFFSET ??_C@_0FO@MOBDMAKD@?$FLChaosMix?$FN?$FLShield?5Potion?$FN?5Lv1?5Po@
  0025b	ff 15 00 00 00
	00		 call	 DWORD PTR ?LogAddTD@@3P6AXPADZZA ; LogAddTD

; 3977 : 
; 3978 : #if(SYSTEM_ACHIEVEMENTS)
; 3979 : 		g_Achievements.FailedChaosMix(lpObj->m_Index);

  00261	8b 16		 mov	 edx, DWORD PTR [esi]
  00263	83 c4 30	 add	 esp, 48			; 00000030H
  00266	52		 push	 edx
  00267	b9 00 00 00 00	 mov	 ecx, OFFSET ?g_Achievements@@3VCAchievements@@A ; g_Achievements
  0026c	e8 00 00 00 00	 call	 ?FailedChaosMix@CAchievements@@QAEXH@Z ; CAchievements::FailedChaosMix

; 3984 : }

  00271	8b 4d fc	 mov	 ecx, DWORD PTR __$ArrayPad$[ebp]
  00274	5f		 pop	 edi
  00275	c7 86 88 0e 00
	00 00 00 00 00	 mov	 DWORD PTR [esi+3720], 0
  0027f	5e		 pop	 esi
  00280	33 cd		 xor	 ecx, ebp
  00282	5b		 pop	 ebx
  00283	e8 00 00 00 00	 call	 @__security_check_cookie@4
  00288	8b e5		 mov	 esp, ebp
  0028a	5d		 pop	 ebp
  0028b	c2 04 00	 ret	 4
?ShieldPotionLv1_Mix@CMixSystem@@QAEXPAUOBJECTSTRUCT@@@Z ENDP ; CMixSystem::ShieldPotionLv1_Mix
_TEXT	ENDS
PUBLIC	??_C@_0FO@BECJDHIC@?$FLChaosMix?$FN?$FLShield?5Potion?$FN?5Lv2?5Po@ ; `string'
PUBLIC	??_C@_0FI@KPIPKEPN@?$FLChaosMix?$FN?$FLShield?5Potion?$FN?5Lv2?5Po@ ; `string'
PUBLIC	??_C@_0CO@CGACKDIK@?$FLPotionMix?$FN?$FLShieldPotion?5Lv2?5Mix@ ; `string'
PUBLIC	??_C@_0CA@EHKCEIAC@PotionMix?$FN?$FLShieldPotion?5Lv2?5Mix?$AA@ ; `string'
PUBLIC	__$ArrayPad$
PUBLIC	?ShieldPotionLv2_Mix@CMixSystem@@QAEXPAUOBJECTSTRUCT@@@Z ; CMixSystem::ShieldPotionLv2_Mix
EXTRN	?g_iShieldPotionLv2MixSuccessRate@@3HA:DWORD	; g_iShieldPotionLv2MixSuccessRate
EXTRN	?g_iShieldPotionLv2MixMoney@@3HA:DWORD		; g_iShieldPotionLv2MixMoney
;	COMDAT ??_C@_0FO@BECJDHIC@?$FLChaosMix?$FN?$FLShield?5Potion?$FN?5Lv2?5Po@
CONST	SEGMENT
??_C@_0FO@BECJDHIC@?$FLChaosMix?$FN?$FLShield?5Potion?$FN?5Lv2?5Po@ DB '['
	DB	'ChaosMix][Shield Potion] Lv2 Potion Mix [%s][%s] CBMix Fail %'
	DB	'd Money : %d-%d, CharmRate : %d', 00H	; `string'
CONST	ENDS
;	COMDAT ??_C@_0FI@KPIPKEPN@?$FLChaosMix?$FN?$FLShield?5Potion?$FN?5Lv2?5Po@
CONST	SEGMENT
??_C@_0FI@KPIPKEPN@?$FLChaosMix?$FN?$FLShield?5Potion?$FN?5Lv2?5Po@ DB '['
	DB	'ChaosMix][Shield Potion] Lv2 Potion Mix Success [%s][%s], Mon'
	DB	'ey(%d-%d), CharmRate : %d', 00H		; `string'
CONST	ENDS
;	COMDAT ??_C@_0CO@CGACKDIK@?$FLPotionMix?$FN?$FLShieldPotion?5Lv2?5Mix@
CONST	SEGMENT
??_C@_0CO@CGACKDIK@?$FLPotionMix?$FN?$FLShieldPotion?5Lv2?5Mix@ DB '[Poti'
	DB	'onMix][ShieldPotion Lv2 Mix] - Mix Start', 00H ; `string'
CONST	ENDS
;	COMDAT ??_C@_0CA@EHKCEIAC@PotionMix?$FN?$FLShieldPotion?5Lv2?5Mix?$AA@
CONST	SEGMENT
??_C@_0CA@EHKCEIAC@PotionMix?$FN?$FLShieldPotion?5Lv2?5Mix?$AA@ DB 'Potio'
	DB	'nMix][ShieldPotion Lv2 Mix', 00H		; `string'
; Function compile flags: /Ogtp
CONST	ENDS
;	COMDAT ?ShieldPotionLv2_Mix@CMixSystem@@QAEXPAUOBJECTSTRUCT@@@Z
_TEXT	SEGMENT
_this$ = -32						; size = 4
_iInvalidItemCount$ = -28				; size = 4
_iHealthPotionCount$ = -24				; size = 4
_pMsg$ = -20						; size = 16
__$ArrayPad$ = -4					; size = 4
_lpObj$ = 8						; size = 4
?ShieldPotionLv2_Mix@CMixSystem@@QAEXPAUOBJECTSTRUCT@@@Z PROC ; CMixSystem::ShieldPotionLv2_Mix, COMDAT
; _this$ = ecx

; 3987 : {

  00000	55		 push	 ebp
  00001	8b ec		 mov	 ebp, esp
  00003	83 ec 20	 sub	 esp, 32			; 00000020H
  00006	a1 00 00 00 00	 mov	 eax, DWORD PTR ___security_cookie
  0000b	33 c5		 xor	 eax, ebp
  0000d	89 45 fc	 mov	 DWORD PTR __$ArrayPad$[ebp], eax
  00010	53		 push	 ebx
  00011	56		 push	 esi
  00012	8b 75 08	 mov	 esi, DWORD PTR _lpObj$[ebp]
  00015	57		 push	 edi

; 3988 : 	int iHealthPotionCount = 0;
; 3989 : 	int iInvalidItemCount = 0;
; 3990 : 	int iChaosMixPrice = 0;
; 3991 : 	int iCharmOfLuckCount = 0;
; 3992 : 
; 3993 : 	PMSG_CHAOSMIXRESULT pMsg;
; 3994 : 
; 3995 : 	PHeadSetB((LPBYTE)&pMsg.h, 0x86, sizeof(PMSG_CHAOSMIXRESULT));

  00016	6a 10		 push	 16			; 00000010H
  00018	8d 45 ec	 lea	 eax, DWORD PTR _pMsg$[ebp]
  0001b	33 ff		 xor	 edi, edi
  0001d	68 86 00 00 00	 push	 134			; 00000086H
  00022	50		 push	 eax
  00023	89 4d e0	 mov	 DWORD PTR _this$[ebp], ecx
  00026	89 7d e8	 mov	 DWORD PTR _iHealthPotionCount$[ebp], edi
  00029	89 7d e4	 mov	 DWORD PTR _iInvalidItemCount$[ebp], edi
  0002c	33 db		 xor	 ebx, ebx
  0002e	e8 00 00 00 00	 call	 ?PHeadSetB@@YAXPAEEH@Z	; PHeadSetB
  00033	83 c4 0c	 add	 esp, 12			; 0000000cH

; 3996 : 	pMsg.Result = CB_ERROR;

  00036	88 5d ef	 mov	 BYTE PTR _pMsg$[ebp+3], bl
  00039	8d a4 24 00 00
	00 00		 npad	 7
$LL16@ShieldPoti@2:

; 3999 : 	{
; 4000 : 		if ( lpObj->pChaosBox[n].IsItem() == TRUE )

  00040	8b 8e 78 0e 00
	00		 mov	 ecx, DWORD PTR [esi+3704]
  00046	03 cf		 add	 ecx, edi
  00048	e8 00 00 00 00	 call	 ?IsItem@CItem@@QAEHXZ	; CItem::IsItem
  0004d	83 f8 01	 cmp	 eax, 1
  00050	75 3d		 jne	 SHORT $LN15@ShieldPoti@2

; 4001 : 		{
; 4002 : 			if ( lpObj->pChaosBox[n].m_Type == ITEMGET(14,38) )

  00052	8b 8e 78 0e 00
	00		 mov	 ecx, DWORD PTR [esi+3704]
  00058	8d 04 0f	 lea	 eax, DWORD PTR [edi+ecx]
  0005b	0f b7 48 06	 movzx	 ecx, WORD PTR [eax+6]
  0005f	ba 26 1c 00 00	 mov	 edx, 7206		; 00001c26H
  00064	66 3b ca	 cmp	 cx, dx
  00067	75 0d		 jne	 SHORT $LN12@ShieldPoti@2

; 4003 : 			{
; 4004 : 				iHealthPotionCount+=(int)lpObj->pChaosBox[n].m_Durability;

  00069	d9 40 24	 fld	 DWORD PTR [eax+36]
  0006c	e8 00 00 00 00	 call	 __ftol2_sse
  00071	01 45 e8	 add	 DWORD PTR _iHealthPotionCount$[ebp], eax
  00074	eb 19		 jmp	 SHORT $LN15@ShieldPoti@2
$LN12@ShieldPoti@2:

; 4005 : 			}
; 4006 : 			else if ( lpObj->pChaosBox[n].m_Type == ITEMGET(14,53) )	// Charm Of Luck

  00076	ba 35 1c 00 00	 mov	 edx, 7221		; 00001c35H
  0007b	66 3b ca	 cmp	 cx, dx
  0007e	75 0c		 jne	 SHORT $LN10@ShieldPoti@2

; 4007 : 			{
; 4008 : 				iCharmOfLuckCount += (int)lpObj->pChaosBox[n].m_Durability;

  00080	d9 40 24	 fld	 DWORD PTR [eax+36]
  00083	e8 00 00 00 00	 call	 __ftol2_sse
  00088	03 d8		 add	 ebx, eax

; 4009 : 			}
; 4010 : 			else

  0008a	eb 03		 jmp	 SHORT $LN15@ShieldPoti@2
$LN10@ShieldPoti@2:

; 4011 : 			{
; 4012 : 				iInvalidItemCount++;

  0008c	ff 45 e4	 inc	 DWORD PTR _iInvalidItemCount$[ebp]
$LN15@ShieldPoti@2:

; 3997 : 
; 3998 : 	for ( int n=0;n<CHAOS_BOX_SIZE;n++)

  0008f	81 c7 d4 00 00
	00		 add	 edi, 212		; 000000d4H
  00095	81 ff 80 1a 00
	00		 cmp	 edi, 6784		; 00001a80H
  0009b	7c a3		 jl	 SHORT $LL16@ShieldPoti@2

; 4013 : 			}
; 4014 : 		}
; 4015 : 	}
; 4016 : 
; 4017 : 	if ( iInvalidItemCount > 0 || iHealthPotionCount != 3 )

  0009d	33 ff		 xor	 edi, edi
  0009f	39 7d e4	 cmp	 DWORD PTR _iInvalidItemCount$[ebp], edi
  000a2	7f 0f		 jg	 SHORT $LN7@ShieldPoti@2
  000a4	83 7d e8 03	 cmp	 DWORD PTR _iHealthPotionCount$[ebp], 3
  000a8	75 09		 jne	 SHORT $LN7@ShieldPoti@2

; 4021 : 
; 4022 : 		return;
; 4023 : 	}
; 4024 : 
; 4025 : 	if ( iCharmOfLuckCount > 10 )

  000aa	83 fb 0a	 cmp	 ebx, 10			; 0000000aH
  000ad	7e 31		 jle	 SHORT $LN6@ShieldPoti@2

; 4026 : 	{
; 4027 : 		pMsg.Result = 0xF0;

  000af	c6 45 ef f0	 mov	 BYTE PTR _pMsg$[ebp+3], 240 ; 000000f0H
$LN7@ShieldPoti@2:

; 4018 : 	{
; 4019 : 		DataSend(lpObj->m_Index, (LPBYTE)&pMsg, pMsg.h.size);

  000b3	0f b6 45 ed	 movzx	 eax, BYTE PTR _pMsg$[ebp+1]
  000b7	8b 16		 mov	 edx, DWORD PTR [esi]
  000b9	50		 push	 eax
  000ba	8d 4d ec	 lea	 ecx, DWORD PTR _pMsg$[ebp]
  000bd	51		 push	 ecx
  000be	52		 push	 edx
  000bf	e8 00 00 00 00	 call	 ?DataSend@@YAHHPAEK@Z	; DataSend

; 4020 : 		lpObj->ChaosLock = FALSE;

  000c4	89 be 88 0e 00
	00		 mov	 DWORD PTR [esi+3720], edi
$LN22@ShieldPoti@2:

; 4018 : 	{
; 4019 : 		DataSend(lpObj->m_Index, (LPBYTE)&pMsg, pMsg.h.size);

  000ca	83 c4 0c	 add	 esp, 12			; 0000000cH
  000cd	5f		 pop	 edi
  000ce	5e		 pop	 esi
  000cf	5b		 pop	 ebx

; 4097 : }

  000d0	8b 4d fc	 mov	 ecx, DWORD PTR __$ArrayPad$[ebp]
  000d3	33 cd		 xor	 ecx, ebp
  000d5	e8 00 00 00 00	 call	 @__security_check_cookie@4
  000da	8b e5		 mov	 esp, ebp
  000dc	5d		 pop	 ebp
  000dd	c2 04 00	 ret	 4
$LN6@ShieldPoti@2:

; 4028 : 		DataSend(lpObj->m_Index, (LPBYTE)&pMsg, pMsg.h.size);
; 4029 : 		lpObj->ChaosLock = FALSE;
; 4030 : 
; 4031 : 		return;
; 4032 : 	}
; 4033 : 
; 4034 : 	iChaosMixPrice = g_iShieldPotionLv2MixMoney;
; 4035 : 	int iChaosTaxMoney = iChaosMixPrice * g_CastleSiegeSync.GetTaxRateChaos(lpObj->m_Index) / 100;

  000e0	8b 06		 mov	 eax, DWORD PTR [esi]
  000e2	8b 3d 00 00 00
	00		 mov	 edi, DWORD PTR ?g_iShieldPotionLv2MixMoney@@3HA ; g_iShieldPotionLv2MixMoney
  000e8	50		 push	 eax
  000e9	b9 00 00 00 00	 mov	 ecx, OFFSET ?g_CastleSiegeSync@@3VCCastleSiegeSync@@A ; g_CastleSiegeSync
  000ee	e8 00 00 00 00	 call	 ?GetTaxRateChaos@CCastleSiegeSync@@QAEHH@Z ; CCastleSiegeSync::GetTaxRateChaos
  000f3	8b c8		 mov	 ecx, eax
  000f5	0f af cf	 imul	 ecx, edi
  000f8	b8 1f 85 eb 51	 mov	 eax, 1374389535		; 51eb851fH
  000fd	f7 e9		 imul	 ecx
  000ff	c1 fa 05	 sar	 edx, 5
  00102	8b c2		 mov	 eax, edx
  00104	c1 e8 1f	 shr	 eax, 31			; 0000001fH
  00107	03 c2		 add	 eax, edx

; 4036 : 
; 4037 : 	if ( iChaosTaxMoney < 0 )

  00109	79 02		 jns	 SHORT $LN21@ShieldPoti@2

; 4038 : 	{
; 4039 : 		iChaosTaxMoney = 0;

  0010b	33 c0		 xor	 eax, eax
$LN21@ShieldPoti@2:

; 4040 : 	}
; 4041 : 
; 4042 : 	iChaosMixPrice += iChaosTaxMoney;

  0010d	03 f8		 add	 edi, eax

; 4043 : 
; 4044 : 	if ( iChaosMixPrice < 0 )

  0010f	79 02		 jns	 SHORT $LN4@ShieldPoti@2

; 4045 : 	{
; 4046 : 		iChaosMixPrice = 0;

  00111	33 ff		 xor	 edi, edi
$LN4@ShieldPoti@2:

; 4047 : 	}
; 4048 : 
; 4049 : 	if ( lpObj->Money < iChaosMixPrice )

  00113	8b 8e f0 00 00
	00		 mov	 ecx, DWORD PTR [esi+240]
  00119	3b cf		 cmp	 ecx, edi
  0011b	7d 21		 jge	 SHORT $LN3@ShieldPoti@2

; 4050 : 	{
; 4051 : 		pMsg.Result = CB_NOT_ENOUGH_ZEN;
; 4052 : 		
; 4053 : 		DataSend(lpObj->m_Index, (LPBYTE)&pMsg, pMsg.h.size);

  0011d	0f b6 4d ed	 movzx	 ecx, BYTE PTR _pMsg$[ebp+1]
  00121	8b 06		 mov	 eax, DWORD PTR [esi]
  00123	51		 push	 ecx
  00124	8d 55 ec	 lea	 edx, DWORD PTR _pMsg$[ebp]
  00127	52		 push	 edx
  00128	50		 push	 eax
  00129	c6 45 ef 02	 mov	 BYTE PTR _pMsg$[ebp+3], 2
  0012d	e8 00 00 00 00	 call	 ?DataSend@@YAHHPAEK@Z	; DataSend

; 4054 : 		lpObj->ChaosLock = FALSE;

  00132	c7 86 88 0e 00
	00 00 00 00 00	 mov	 DWORD PTR [esi+3720], 0

; 4055 : 
; 4056 : 		return;

  0013c	eb 8c		 jmp	 SHORT $LN22@ShieldPoti@2
$LN3@ShieldPoti@2:

; 4057 : 	}
; 4058 : 
; 4059 : 	lpObj->Money -= iChaosMixPrice;

  0013e	2b cf		 sub	 ecx, edi
  00140	89 8e f0 00 00
	00		 mov	 DWORD PTR [esi+240], ecx

; 4060 : 	g_CastleSiegeSync.AddTributeMoney(iChaosTaxMoney);

  00146	50		 push	 eax
  00147	b9 00 00 00 00	 mov	 ecx, OFFSET ?g_CastleSiegeSync@@3VCCastleSiegeSync@@A ; g_CastleSiegeSync
  0014c	e8 00 00 00 00	 call	 ?AddTributeMoney@CCastleSiegeSync@@QAEXH@Z ; CCastleSiegeSync::AddTributeMoney

; 4061 : 	
; 4062 : 	LogChaosItem(lpObj, "PotionMix][ShieldPotion Lv2 Mix");

  00151	8b 4d e0	 mov	 ecx, DWORD PTR _this$[ebp]
  00154	68 00 00 00 00	 push	 OFFSET ??_C@_0CA@EHKCEIAC@PotionMix?$FN?$FLShieldPotion?5Lv2?5Mix?$AA@
  00159	56		 push	 esi
  0015a	e8 00 00 00 00	 call	 ?LogChaosItem@CMixSystem@@QAEXPAUOBJECTSTRUCT@@PAD@Z ; CMixSystem::LogChaosItem

; 4063 : 	LogAddTD("[PotionMix][ShieldPotion Lv2 Mix] - Mix Start");

  0015f	68 00 00 00 00	 push	 OFFSET ??_C@_0CO@CGACKDIK@?$FLPotionMix?$FN?$FLShieldPotion?5Lv2?5Mix@
  00164	ff 15 00 00 00
	00		 call	 DWORD PTR ?LogAddTD@@3P6AXPADZZA ; LogAddTD

; 4064 : 
; 4065 : 	GCMoneySend(lpObj->m_Index, lpObj->Money);

  0016a	8b 8e f0 00 00
	00		 mov	 ecx, DWORD PTR [esi+240]
  00170	8b 16		 mov	 edx, DWORD PTR [esi]
  00172	51		 push	 ecx
  00173	52		 push	 edx
  00174	e8 00 00 00 00	 call	 ?GCMoneySend@@YAXHK@Z	; GCMoneySend
  00179	83 c4 0c	 add	 esp, 12			; 0000000cH

; 4066 : 	int iRate = rand() % 100;

  0017c	e8 00 00 00 00	 call	 _rand
  00181	99		 cdq
  00182	b9 64 00 00 00	 mov	 ecx, 100		; 00000064H
  00187	f7 f9		 idiv	 ecx

; 4067 : 	iRate -= iCharmOfLuckCount;

  00189	2b d3		 sub	 edx, ebx

; 4068 : 
; 4069 : 	if ( iRate < g_iShieldPotionLv2MixSuccessRate )

  0018b	3b 15 00 00 00
	00		 cmp	 edx, DWORD PTR ?g_iShieldPotionLv2MixSuccessRate@@3HA ; g_iShieldPotionLv2MixSuccessRate
  00191	7d 76		 jge	 SHORT $LN2@ShieldPoti@2

; 4070 : 	{
; 4071 : 		int ItemNum = ITEMGET(14,36);
; 4072 : 
; 4073 : 		ItemSerialCreateSend(lpObj->m_Index, -1, 0, 0, ItemNum, 0, 1, 0, 0, 0, lpObj->m_Index, 0, 0);

  00193	8b 06		 mov	 eax, DWORD PTR [esi]
  00195	6a 00		 push	 0
  00197	6a 00		 push	 0
  00199	50		 push	 eax
  0019a	6a 00		 push	 0
  0019c	6a 00		 push	 0
  0019e	6a 00		 push	 0
  001a0	6a 01		 push	 1
  001a2	6a 00		 push	 0
  001a4	68 24 1c 00 00	 push	 7204			; 00001c24H
  001a9	6a 00		 push	 0
  001ab	6a 00		 push	 0
  001ad	68 ff 00 00 00	 push	 255			; 000000ffH
  001b2	50		 push	 eax
  001b3	e8 00 00 00 00	 call	 ?ItemSerialCreateSend@@YAXHEEEHEEEEEHEE@Z ; ItemSerialCreateSend

; 4074 : 		::gObjInventoryCommit(lpObj->m_Index);

  001b8	8b 16		 mov	 edx, DWORD PTR [esi]
  001ba	52		 push	 edx
  001bb	e8 00 00 00 00	 call	 ?gObjInventoryCommit@@YAHH@Z ; gObjInventoryCommit

; 4075 : 
; 4076 : 		LogAddTD("[ChaosMix][Shield Potion] Lv2 Potion Mix Success [%s][%s], Money(%d-%d), CharmRate : %d",
; 4077 : 			lpObj->AccountID, lpObj->Name, 	lpObj->Money, iChaosMixPrice, iCharmOfLuckCount);

  001c0	8b 86 f0 00 00
	00		 mov	 eax, DWORD PTR [esi+240]
  001c6	53		 push	 ebx
  001c7	57		 push	 edi
  001c8	50		 push	 eax
  001c9	8d 4e 77	 lea	 ecx, DWORD PTR [esi+119]
  001cc	51		 push	 ecx
  001cd	8d 56 6c	 lea	 edx, DWORD PTR [esi+108]
  001d0	52		 push	 edx
  001d1	68 00 00 00 00	 push	 OFFSET ??_C@_0FI@KPIPKEPN@?$FLChaosMix?$FN?$FLShield?5Potion?$FN?5Lv2?5Po@
  001d6	ff 15 00 00 00
	00		 call	 DWORD PTR ?LogAddTD@@3P6AXPADZZA ; LogAddTD

; 4078 : 
; 4079 : #if(SYSTEM_ACHIEVEMENTS)
; 4080 : 		g_Achievements.SuccessChaosMix(lpObj->m_Index);

  001dc	8b 06		 mov	 eax, DWORD PTR [esi]
  001de	83 c4 50	 add	 esp, 80			; 00000050H
  001e1	50		 push	 eax
  001e2	b9 00 00 00 00	 mov	 ecx, OFFSET ?g_Achievements@@3VCAchievements@@A ; g_Achievements
  001e7	e8 00 00 00 00	 call	 ?SuccessChaosMix@CAchievements@@QAEXH@Z ; CAchievements::SuccessChaosMix
  001ec	5f		 pop	 edi

; 4094 : 	}
; 4095 : 
; 4096 : 	lpObj->ChaosLock = FALSE;

  001ed	c7 86 88 0e 00
	00 00 00 00 00	 mov	 DWORD PTR [esi+3720], 0
  001f7	5e		 pop	 esi
  001f8	5b		 pop	 ebx

; 4097 : }

  001f9	8b 4d fc	 mov	 ecx, DWORD PTR __$ArrayPad$[ebp]
  001fc	33 cd		 xor	 ecx, ebp
  001fe	e8 00 00 00 00	 call	 @__security_check_cookie@4
  00203	8b e5		 mov	 esp, ebp
  00205	5d		 pop	 ebp
  00206	c2 04 00	 ret	 4
$LN2@ShieldPoti@2:

; 4081 : #endif
; 4082 : 	}
; 4083 : 	else
; 4084 : 	{
; 4085 : 		this->ChaosBoxInit(lpObj);

  00209	8b 4d e0	 mov	 ecx, DWORD PTR _this$[ebp]
  0020c	56		 push	 esi
  0020d	e8 00 00 00 00	 call	 ?ChaosBoxInit@CMixSystem@@QAEHPAUOBJECTSTRUCT@@@Z ; CMixSystem::ChaosBoxInit

; 4086 : 		::GCUserChaosBoxSend(lpObj, 0);

  00212	6a 00		 push	 0
  00214	56		 push	 esi
  00215	e8 00 00 00 00	 call	 ?GCUserChaosBoxSend@@YAXPAUOBJECTSTRUCT@@H@Z ; GCUserChaosBoxSend

; 4087 : 		DataSend(lpObj->m_Index, (LPBYTE)&pMsg, pMsg.h.size);

  0021a	0f b6 4d ed	 movzx	 ecx, BYTE PTR _pMsg$[ebp+1]
  0021e	8b 06		 mov	 eax, DWORD PTR [esi]
  00220	51		 push	 ecx
  00221	8d 55 ec	 lea	 edx, DWORD PTR _pMsg$[ebp]
  00224	52		 push	 edx
  00225	50		 push	 eax
  00226	e8 00 00 00 00	 call	 ?DataSend@@YAHHPAEK@Z	; DataSend

; 4088 : #if(SYSTEM_ACHIEVEMENTS)
; 4089 : 		g_Achievements.FailedChaosMix(lpObj->m_Index);

  0022b	8b 0e		 mov	 ecx, DWORD PTR [esi]
  0022d	83 c4 14	 add	 esp, 20			; 00000014H
  00230	51		 push	 ecx
  00231	b9 00 00 00 00	 mov	 ecx, OFFSET ?g_Achievements@@3VCAchievements@@A ; g_Achievements
  00236	e8 00 00 00 00	 call	 ?FailedChaosMix@CAchievements@@QAEXH@Z ; CAchievements::FailedChaosMix

; 4090 : #endif
; 4091 : 		LogAddTD("[ChaosMix][Shield Potion] Lv2 Potion Mix [%s][%s] CBMix Fail %d Money : %d-%d, CharmRate : %d",
; 4092 : 			lpObj->AccountID, lpObj->Name, 	g_iShieldPotionLv2MixSuccessRate,
; 4093 : 			lpObj->Money, iChaosMixPrice, iCharmOfLuckCount);

  0023b	8b 96 f0 00 00
	00		 mov	 edx, DWORD PTR [esi+240]
  00241	a1 00 00 00 00	 mov	 eax, DWORD PTR ?g_iShieldPotionLv2MixSuccessRate@@3HA ; g_iShieldPotionLv2MixSuccessRate
  00246	53		 push	 ebx
  00247	57		 push	 edi
  00248	52		 push	 edx
  00249	50		 push	 eax
  0024a	8d 4e 77	 lea	 ecx, DWORD PTR [esi+119]
  0024d	51		 push	 ecx
  0024e	8d 56 6c	 lea	 edx, DWORD PTR [esi+108]
  00251	52		 push	 edx
  00252	68 00 00 00 00	 push	 OFFSET ??_C@_0FO@BECJDHIC@?$FLChaosMix?$FN?$FLShield?5Potion?$FN?5Lv2?5Po@
  00257	ff 15 00 00 00
	00		 call	 DWORD PTR ?LogAddTD@@3P6AXPADZZA ; LogAddTD

; 4097 : }

  0025d	8b 4d fc	 mov	 ecx, DWORD PTR __$ArrayPad$[ebp]
  00260	83 c4 1c	 add	 esp, 28			; 0000001cH
  00263	5f		 pop	 edi
  00264	c7 86 88 0e 00
	00 00 00 00 00	 mov	 DWORD PTR [esi+3720], 0
  0026e	5e		 pop	 esi
  0026f	33 cd		 xor	 ecx, ebp
  00271	5b		 pop	 ebx
  00272	e8 00 00 00 00	 call	 @__security_check_cookie@4
  00277	8b e5		 mov	 esp, ebp
  00279	5d		 pop	 ebp
  0027a	c2 04 00	 ret	 4
?ShieldPotionLv2_Mix@CMixSystem@@QAEXPAUOBJECTSTRUCT@@@Z ENDP ; CMixSystem::ShieldPotionLv2_Mix
_TEXT	ENDS
PUBLIC	??_C@_0FO@FNMAJKJN@?$FLChaosMix?$FN?$FLShield?5Potion?$FN?5Lv3?5Po@ ; `string'
PUBLIC	??_C@_0FI@GFFMCKHC@?$FLChaosMix?$FN?$FLShield?5Potion?$FN?5Lv3?5Po@ ; `string'
PUBLIC	??_C@_0CO@PBOACDNC@?$FLPotionMix?$FN?$FLShieldPotion?5Lv3?5Mix@ ; `string'
PUBLIC	??_C@_0CA@IMPOJLKH@PotionMix?$FN?$FLShieldPotion?5Lv3?5Mix?$AA@ ; `string'
PUBLIC	__$ArrayPad$
PUBLIC	?ShieldPotionLv3_Mix@CMixSystem@@QAEXPAUOBJECTSTRUCT@@@Z ; CMixSystem::ShieldPotionLv3_Mix
EXTRN	?g_iShieldPotionLv3MixSuccessRate@@3HA:DWORD	; g_iShieldPotionLv3MixSuccessRate
EXTRN	?g_iShieldPotionLv3MixMoney@@3HA:DWORD		; g_iShieldPotionLv3MixMoney
;	COMDAT ??_C@_0FO@FNMAJKJN@?$FLChaosMix?$FN?$FLShield?5Potion?$FN?5Lv3?5Po@
CONST	SEGMENT
??_C@_0FO@FNMAJKJN@?$FLChaosMix?$FN?$FLShield?5Potion?$FN?5Lv3?5Po@ DB '['
	DB	'ChaosMix][Shield Potion] Lv3 Potion Mix [%s][%s] CBMix Fail %'
	DB	'd Money : %d-%d, CharmRate : %d', 00H	; `string'
CONST	ENDS
;	COMDAT ??_C@_0FI@GFFMCKHC@?$FLChaosMix?$FN?$FLShield?5Potion?$FN?5Lv3?5Po@
CONST	SEGMENT
??_C@_0FI@GFFMCKHC@?$FLChaosMix?$FN?$FLShield?5Potion?$FN?5Lv3?5Po@ DB '['
	DB	'ChaosMix][Shield Potion] Lv3 Potion Mix Success [%s][%s], Mon'
	DB	'ey(%d-%d), CharmRate : %d', 00H		; `string'
CONST	ENDS
;	COMDAT ??_C@_0CO@PBOACDNC@?$FLPotionMix?$FN?$FLShieldPotion?5Lv3?5Mix@
CONST	SEGMENT
??_C@_0CO@PBOACDNC@?$FLPotionMix?$FN?$FLShieldPotion?5Lv3?5Mix@ DB '[Poti'
	DB	'onMix][ShieldPotion Lv3 Mix] - Mix Start', 00H ; `string'
CONST	ENDS
;	COMDAT ??_C@_0CA@IMPOJLKH@PotionMix?$FN?$FLShieldPotion?5Lv3?5Mix?$AA@
CONST	SEGMENT
??_C@_0CA@IMPOJLKH@PotionMix?$FN?$FLShieldPotion?5Lv3?5Mix?$AA@ DB 'Potio'
	DB	'nMix][ShieldPotion Lv3 Mix', 00H		; `string'
; Function compile flags: /Ogtp
CONST	ENDS
;	COMDAT ?ShieldPotionLv3_Mix@CMixSystem@@QAEXPAUOBJECTSTRUCT@@@Z
_TEXT	SEGMENT
_this$ = -32						; size = 4
_iInvalidItemCount$ = -28				; size = 4
_iHealthPotionCount$ = -24				; size = 4
_pMsg$ = -20						; size = 16
__$ArrayPad$ = -4					; size = 4
_lpObj$ = 8						; size = 4
?ShieldPotionLv3_Mix@CMixSystem@@QAEXPAUOBJECTSTRUCT@@@Z PROC ; CMixSystem::ShieldPotionLv3_Mix, COMDAT
; _this$ = ecx

; 4100 : {

  00000	55		 push	 ebp
  00001	8b ec		 mov	 ebp, esp
  00003	83 ec 20	 sub	 esp, 32			; 00000020H
  00006	a1 00 00 00 00	 mov	 eax, DWORD PTR ___security_cookie
  0000b	33 c5		 xor	 eax, ebp
  0000d	89 45 fc	 mov	 DWORD PTR __$ArrayPad$[ebp], eax
  00010	53		 push	 ebx
  00011	56		 push	 esi
  00012	8b 75 08	 mov	 esi, DWORD PTR _lpObj$[ebp]
  00015	57		 push	 edi

; 4101 : 	int iHealthPotionCount = 0;
; 4102 : 	int iInvalidItemCount = 0;
; 4103 : 	int iChaosMixPrice = 0;
; 4104 : 	int iCharmOfLuckCount = 0;
; 4105 : 
; 4106 : 	PMSG_CHAOSMIXRESULT pMsg;
; 4107 : 
; 4108 : 	PHeadSetB((LPBYTE)&pMsg.h, 0x86, sizeof(PMSG_CHAOSMIXRESULT));

  00016	6a 10		 push	 16			; 00000010H
  00018	8d 45 ec	 lea	 eax, DWORD PTR _pMsg$[ebp]
  0001b	33 ff		 xor	 edi, edi
  0001d	68 86 00 00 00	 push	 134			; 00000086H
  00022	50		 push	 eax
  00023	89 4d e0	 mov	 DWORD PTR _this$[ebp], ecx
  00026	89 7d e8	 mov	 DWORD PTR _iHealthPotionCount$[ebp], edi
  00029	89 7d e4	 mov	 DWORD PTR _iInvalidItemCount$[ebp], edi
  0002c	33 db		 xor	 ebx, ebx
  0002e	e8 00 00 00 00	 call	 ?PHeadSetB@@YAXPAEEH@Z	; PHeadSetB
  00033	83 c4 0c	 add	 esp, 12			; 0000000cH

; 4109 : 	pMsg.Result = CB_ERROR;

  00036	88 5d ef	 mov	 BYTE PTR _pMsg$[ebp+3], bl
  00039	8d a4 24 00 00
	00 00		 npad	 7
$LL16@ShieldPoti@3:

; 4112 : 	{
; 4113 : 		if ( lpObj->pChaosBox[n].IsItem() == TRUE )

  00040	8b 8e 78 0e 00
	00		 mov	 ecx, DWORD PTR [esi+3704]
  00046	03 cf		 add	 ecx, edi
  00048	e8 00 00 00 00	 call	 ?IsItem@CItem@@QAEHXZ	; CItem::IsItem
  0004d	83 f8 01	 cmp	 eax, 1
  00050	75 3d		 jne	 SHORT $LN15@ShieldPoti@3

; 4114 : 		{
; 4115 : 			if ( lpObj->pChaosBox[n].m_Type == ITEMGET(14,39) )

  00052	8b 8e 78 0e 00
	00		 mov	 ecx, DWORD PTR [esi+3704]
  00058	8d 04 0f	 lea	 eax, DWORD PTR [edi+ecx]
  0005b	0f b7 48 06	 movzx	 ecx, WORD PTR [eax+6]
  0005f	ba 27 1c 00 00	 mov	 edx, 7207		; 00001c27H
  00064	66 3b ca	 cmp	 cx, dx
  00067	75 0d		 jne	 SHORT $LN12@ShieldPoti@3

; 4116 : 			{
; 4117 : 				iHealthPotionCount+=(int)lpObj->pChaosBox[n].m_Durability;

  00069	d9 40 24	 fld	 DWORD PTR [eax+36]
  0006c	e8 00 00 00 00	 call	 __ftol2_sse
  00071	01 45 e8	 add	 DWORD PTR _iHealthPotionCount$[ebp], eax
  00074	eb 19		 jmp	 SHORT $LN15@ShieldPoti@3
$LN12@ShieldPoti@3:

; 4118 : 			}
; 4119 : 			else if ( lpObj->pChaosBox[n].m_Type == ITEMGET(14,53) )	// Charm Of Luck

  00076	ba 35 1c 00 00	 mov	 edx, 7221		; 00001c35H
  0007b	66 3b ca	 cmp	 cx, dx
  0007e	75 0c		 jne	 SHORT $LN10@ShieldPoti@3

; 4120 : 			{
; 4121 : 				iCharmOfLuckCount += (int)lpObj->pChaosBox[n].m_Durability;

  00080	d9 40 24	 fld	 DWORD PTR [eax+36]
  00083	e8 00 00 00 00	 call	 __ftol2_sse
  00088	03 d8		 add	 ebx, eax

; 4122 : 			}
; 4123 : 			else

  0008a	eb 03		 jmp	 SHORT $LN15@ShieldPoti@3
$LN10@ShieldPoti@3:

; 4124 : 			{
; 4125 : 				iInvalidItemCount++;

  0008c	ff 45 e4	 inc	 DWORD PTR _iInvalidItemCount$[ebp]
$LN15@ShieldPoti@3:

; 4110 : 
; 4111 : 	for ( int n=0;n<CHAOS_BOX_SIZE;n++)

  0008f	81 c7 d4 00 00
	00		 add	 edi, 212		; 000000d4H
  00095	81 ff 80 1a 00
	00		 cmp	 edi, 6784		; 00001a80H
  0009b	7c a3		 jl	 SHORT $LL16@ShieldPoti@3

; 4126 : 			}
; 4127 : 		}
; 4128 : 	}
; 4129 : 
; 4130 : 	if ( iInvalidItemCount > 0 || iHealthPotionCount != 3 )

  0009d	33 ff		 xor	 edi, edi
  0009f	39 7d e4	 cmp	 DWORD PTR _iInvalidItemCount$[ebp], edi
  000a2	7f 0f		 jg	 SHORT $LN7@ShieldPoti@3
  000a4	83 7d e8 03	 cmp	 DWORD PTR _iHealthPotionCount$[ebp], 3
  000a8	75 09		 jne	 SHORT $LN7@ShieldPoti@3

; 4134 : 
; 4135 : 		return;
; 4136 : 	}
; 4137 : 
; 4138 : 	if ( iCharmOfLuckCount > 10 )

  000aa	83 fb 0a	 cmp	 ebx, 10			; 0000000aH
  000ad	7e 31		 jle	 SHORT $LN6@ShieldPoti@3

; 4139 : 	{
; 4140 : 		pMsg.Result = 0xF0;

  000af	c6 45 ef f0	 mov	 BYTE PTR _pMsg$[ebp+3], 240 ; 000000f0H
$LN7@ShieldPoti@3:

; 4131 : 	{
; 4132 : 		DataSend(lpObj->m_Index, (LPBYTE)&pMsg, pMsg.h.size);

  000b3	0f b6 45 ed	 movzx	 eax, BYTE PTR _pMsg$[ebp+1]
  000b7	8b 16		 mov	 edx, DWORD PTR [esi]
  000b9	50		 push	 eax
  000ba	8d 4d ec	 lea	 ecx, DWORD PTR _pMsg$[ebp]
  000bd	51		 push	 ecx
  000be	52		 push	 edx
  000bf	e8 00 00 00 00	 call	 ?DataSend@@YAHHPAEK@Z	; DataSend

; 4133 : 		lpObj->ChaosLock = FALSE;

  000c4	89 be 88 0e 00
	00		 mov	 DWORD PTR [esi+3720], edi
$LN22@ShieldPoti@3:

; 4131 : 	{
; 4132 : 		DataSend(lpObj->m_Index, (LPBYTE)&pMsg, pMsg.h.size);

  000ca	83 c4 0c	 add	 esp, 12			; 0000000cH
  000cd	5f		 pop	 edi
  000ce	5e		 pop	 esi
  000cf	5b		 pop	 ebx

; 4212 : }

  000d0	8b 4d fc	 mov	 ecx, DWORD PTR __$ArrayPad$[ebp]
  000d3	33 cd		 xor	 ecx, ebp
  000d5	e8 00 00 00 00	 call	 @__security_check_cookie@4
  000da	8b e5		 mov	 esp, ebp
  000dc	5d		 pop	 ebp
  000dd	c2 04 00	 ret	 4
$LN6@ShieldPoti@3:

; 4141 : 		DataSend(lpObj->m_Index, (LPBYTE)&pMsg, pMsg.h.size);
; 4142 : 		lpObj->ChaosLock = FALSE;
; 4143 : 
; 4144 : 		return;
; 4145 : 	}
; 4146 : 
; 4147 : 	iChaosMixPrice = g_iShieldPotionLv3MixMoney;
; 4148 : 	int iChaosTaxMoney = iChaosMixPrice * g_CastleSiegeSync.GetTaxRateChaos(lpObj->m_Index) / 100;

  000e0	8b 06		 mov	 eax, DWORD PTR [esi]
  000e2	8b 3d 00 00 00
	00		 mov	 edi, DWORD PTR ?g_iShieldPotionLv3MixMoney@@3HA ; g_iShieldPotionLv3MixMoney
  000e8	50		 push	 eax
  000e9	b9 00 00 00 00	 mov	 ecx, OFFSET ?g_CastleSiegeSync@@3VCCastleSiegeSync@@A ; g_CastleSiegeSync
  000ee	e8 00 00 00 00	 call	 ?GetTaxRateChaos@CCastleSiegeSync@@QAEHH@Z ; CCastleSiegeSync::GetTaxRateChaos
  000f3	8b c8		 mov	 ecx, eax
  000f5	0f af cf	 imul	 ecx, edi
  000f8	b8 1f 85 eb 51	 mov	 eax, 1374389535		; 51eb851fH
  000fd	f7 e9		 imul	 ecx
  000ff	c1 fa 05	 sar	 edx, 5
  00102	8b c2		 mov	 eax, edx
  00104	c1 e8 1f	 shr	 eax, 31			; 0000001fH
  00107	03 c2		 add	 eax, edx

; 4149 : 
; 4150 : 	if ( iChaosTaxMoney < 0 )

  00109	79 02		 jns	 SHORT $LN21@ShieldPoti@3

; 4151 : 	{
; 4152 : 		iChaosTaxMoney = 0;

  0010b	33 c0		 xor	 eax, eax
$LN21@ShieldPoti@3:

; 4153 : 	}
; 4154 : 
; 4155 : 	iChaosMixPrice += iChaosTaxMoney;

  0010d	03 f8		 add	 edi, eax

; 4156 : 
; 4157 : 	if ( iChaosMixPrice < 0 )

  0010f	79 02		 jns	 SHORT $LN4@ShieldPoti@3

; 4158 : 	{
; 4159 : 		iChaosMixPrice = 0;

  00111	33 ff		 xor	 edi, edi
$LN4@ShieldPoti@3:

; 4160 : 	}
; 4161 : 
; 4162 : 	if ( lpObj->Money < iChaosMixPrice )

  00113	8b 8e f0 00 00
	00		 mov	 ecx, DWORD PTR [esi+240]
  00119	3b cf		 cmp	 ecx, edi
  0011b	7d 21		 jge	 SHORT $LN3@ShieldPoti@3

; 4163 : 	{
; 4164 : 		pMsg.Result = CB_NOT_ENOUGH_ZEN;
; 4165 : 		
; 4166 : 		DataSend(lpObj->m_Index, (LPBYTE)&pMsg, pMsg.h.size);

  0011d	0f b6 4d ed	 movzx	 ecx, BYTE PTR _pMsg$[ebp+1]
  00121	8b 06		 mov	 eax, DWORD PTR [esi]
  00123	51		 push	 ecx
  00124	8d 55 ec	 lea	 edx, DWORD PTR _pMsg$[ebp]
  00127	52		 push	 edx
  00128	50		 push	 eax
  00129	c6 45 ef 02	 mov	 BYTE PTR _pMsg$[ebp+3], 2
  0012d	e8 00 00 00 00	 call	 ?DataSend@@YAHHPAEK@Z	; DataSend

; 4167 : 		lpObj->ChaosLock = FALSE;

  00132	c7 86 88 0e 00
	00 00 00 00 00	 mov	 DWORD PTR [esi+3720], 0

; 4168 : 
; 4169 : 		return;

  0013c	eb 8c		 jmp	 SHORT $LN22@ShieldPoti@3
$LN3@ShieldPoti@3:

; 4170 : 	}
; 4171 : 
; 4172 : 	lpObj->Money -= iChaosMixPrice;

  0013e	2b cf		 sub	 ecx, edi
  00140	89 8e f0 00 00
	00		 mov	 DWORD PTR [esi+240], ecx

; 4173 : 	g_CastleSiegeSync.AddTributeMoney(iChaosTaxMoney);

  00146	50		 push	 eax
  00147	b9 00 00 00 00	 mov	 ecx, OFFSET ?g_CastleSiegeSync@@3VCCastleSiegeSync@@A ; g_CastleSiegeSync
  0014c	e8 00 00 00 00	 call	 ?AddTributeMoney@CCastleSiegeSync@@QAEXH@Z ; CCastleSiegeSync::AddTributeMoney

; 4174 : 	GCMoneySend(lpObj->m_Index, lpObj->Money);

  00151	8b 8e f0 00 00
	00		 mov	 ecx, DWORD PTR [esi+240]
  00157	8b 16		 mov	 edx, DWORD PTR [esi]
  00159	51		 push	 ecx
  0015a	52		 push	 edx
  0015b	e8 00 00 00 00	 call	 ?GCMoneySend@@YAXHK@Z	; GCMoneySend

; 4175 : 	
; 4176 : 	LogChaosItem(lpObj, "PotionMix][ShieldPotion Lv3 Mix");

  00160	8b 4d e0	 mov	 ecx, DWORD PTR _this$[ebp]
  00163	83 c4 08	 add	 esp, 8
  00166	68 00 00 00 00	 push	 OFFSET ??_C@_0CA@IMPOJLKH@PotionMix?$FN?$FLShieldPotion?5Lv3?5Mix?$AA@
  0016b	56		 push	 esi
  0016c	e8 00 00 00 00	 call	 ?LogChaosItem@CMixSystem@@QAEXPAUOBJECTSTRUCT@@PAD@Z ; CMixSystem::LogChaosItem

; 4177 : 	LogAddTD("[PotionMix][ShieldPotion Lv3 Mix] - Mix Start");

  00171	68 00 00 00 00	 push	 OFFSET ??_C@_0CO@PBOACDNC@?$FLPotionMix?$FN?$FLShieldPotion?5Lv3?5Mix@
  00176	ff 15 00 00 00
	00		 call	 DWORD PTR ?LogAddTD@@3P6AXPADZZA ; LogAddTD
  0017c	83 c4 04	 add	 esp, 4

; 4178 : 
; 4179 : 	int iRate = rand() % 100;

  0017f	e8 00 00 00 00	 call	 _rand
  00184	99		 cdq
  00185	b9 64 00 00 00	 mov	 ecx, 100		; 00000064H
  0018a	f7 f9		 idiv	 ecx

; 4180 : 	iRate -= iCharmOfLuckCount;

  0018c	2b d3		 sub	 edx, ebx

; 4181 : 
; 4182 : 	if ( iRate < g_iShieldPotionLv3MixSuccessRate )

  0018e	3b 15 00 00 00
	00		 cmp	 edx, DWORD PTR ?g_iShieldPotionLv3MixSuccessRate@@3HA ; g_iShieldPotionLv3MixSuccessRate
  00194	7d 76		 jge	 SHORT $LN2@ShieldPoti@3

; 4183 : 	{
; 4184 : 		int ItemNum = ITEMGET(14,37);
; 4185 : 
; 4186 : 		ItemSerialCreateSend(lpObj->m_Index, -1, 0, 0, ItemNum, 0, 1, 0, 0, 0, lpObj->m_Index, 0, 0);

  00196	8b 06		 mov	 eax, DWORD PTR [esi]
  00198	6a 00		 push	 0
  0019a	6a 00		 push	 0
  0019c	50		 push	 eax
  0019d	6a 00		 push	 0
  0019f	6a 00		 push	 0
  001a1	6a 00		 push	 0
  001a3	6a 01		 push	 1
  001a5	6a 00		 push	 0
  001a7	68 25 1c 00 00	 push	 7205			; 00001c25H
  001ac	6a 00		 push	 0
  001ae	6a 00		 push	 0
  001b0	68 ff 00 00 00	 push	 255			; 000000ffH
  001b5	50		 push	 eax
  001b6	e8 00 00 00 00	 call	 ?ItemSerialCreateSend@@YAXHEEEHEEEEEHEE@Z ; ItemSerialCreateSend

; 4187 : 		::gObjInventoryCommit(lpObj->m_Index);

  001bb	8b 16		 mov	 edx, DWORD PTR [esi]
  001bd	52		 push	 edx
  001be	e8 00 00 00 00	 call	 ?gObjInventoryCommit@@YAHH@Z ; gObjInventoryCommit

; 4188 : 
; 4189 : 		LogAddTD("[ChaosMix][Shield Potion] Lv3 Potion Mix Success [%s][%s], Money(%d-%d), CharmRate : %d",
; 4190 : 			lpObj->AccountID, lpObj->Name, 	lpObj->Money, iChaosMixPrice, iCharmOfLuckCount);

  001c3	8b 86 f0 00 00
	00		 mov	 eax, DWORD PTR [esi+240]
  001c9	53		 push	 ebx
  001ca	57		 push	 edi
  001cb	50		 push	 eax
  001cc	8d 4e 77	 lea	 ecx, DWORD PTR [esi+119]
  001cf	51		 push	 ecx
  001d0	8d 56 6c	 lea	 edx, DWORD PTR [esi+108]
  001d3	52		 push	 edx
  001d4	68 00 00 00 00	 push	 OFFSET ??_C@_0FI@GFFMCKHC@?$FLChaosMix?$FN?$FLShield?5Potion?$FN?5Lv3?5Po@
  001d9	ff 15 00 00 00
	00		 call	 DWORD PTR ?LogAddTD@@3P6AXPADZZA ; LogAddTD

; 4191 : 
; 4192 : #if(SYSTEM_ACHIEVEMENTS)
; 4193 : 		g_Achievements.SuccessChaosMix(lpObj->m_Index);

  001df	8b 06		 mov	 eax, DWORD PTR [esi]
  001e1	83 c4 50	 add	 esp, 80			; 00000050H
  001e4	50		 push	 eax
  001e5	b9 00 00 00 00	 mov	 ecx, OFFSET ?g_Achievements@@3VCAchievements@@A ; g_Achievements
  001ea	e8 00 00 00 00	 call	 ?SuccessChaosMix@CAchievements@@QAEXH@Z ; CAchievements::SuccessChaosMix
  001ef	5f		 pop	 edi

; 4208 : #endif
; 4209 : 	}
; 4210 : 
; 4211 : 	lpObj->ChaosLock = FALSE;

  001f0	c7 86 88 0e 00
	00 00 00 00 00	 mov	 DWORD PTR [esi+3720], 0
  001fa	5e		 pop	 esi
  001fb	5b		 pop	 ebx

; 4212 : }

  001fc	8b 4d fc	 mov	 ecx, DWORD PTR __$ArrayPad$[ebp]
  001ff	33 cd		 xor	 ecx, ebp
  00201	e8 00 00 00 00	 call	 @__security_check_cookie@4
  00206	8b e5		 mov	 esp, ebp
  00208	5d		 pop	 ebp
  00209	c2 04 00	 ret	 4
$LN2@ShieldPoti@3:

; 4194 : #endif
; 4195 : 	}
; 4196 : 	else
; 4197 : 	{
; 4198 : 		this->ChaosBoxInit(lpObj);

  0020c	8b 4d e0	 mov	 ecx, DWORD PTR _this$[ebp]
  0020f	56		 push	 esi
  00210	e8 00 00 00 00	 call	 ?ChaosBoxInit@CMixSystem@@QAEHPAUOBJECTSTRUCT@@@Z ; CMixSystem::ChaosBoxInit

; 4199 : 		::GCUserChaosBoxSend(lpObj, 0);

  00215	6a 00		 push	 0
  00217	56		 push	 esi
  00218	e8 00 00 00 00	 call	 ?GCUserChaosBoxSend@@YAXPAUOBJECTSTRUCT@@H@Z ; GCUserChaosBoxSend

; 4200 : 		DataSend(lpObj->m_Index, (LPBYTE)&pMsg, pMsg.h.size);

  0021d	0f b6 4d ed	 movzx	 ecx, BYTE PTR _pMsg$[ebp+1]
  00221	8b 06		 mov	 eax, DWORD PTR [esi]
  00223	51		 push	 ecx
  00224	8d 55 ec	 lea	 edx, DWORD PTR _pMsg$[ebp]
  00227	52		 push	 edx
  00228	50		 push	 eax
  00229	e8 00 00 00 00	 call	 ?DataSend@@YAHHPAEK@Z	; DataSend

; 4201 : 
; 4202 : 		LogAddTD("[ChaosMix][Shield Potion] Lv3 Potion Mix [%s][%s] CBMix Fail %d Money : %d-%d, CharmRate : %d",
; 4203 : 			lpObj->AccountID, lpObj->Name, 	g_iShieldPotionLv3MixSuccessRate,
; 4204 : 			lpObj->Money, iChaosMixPrice, iCharmOfLuckCount);

  0022e	8b 8e f0 00 00
	00		 mov	 ecx, DWORD PTR [esi+240]
  00234	8b 15 00 00 00
	00		 mov	 edx, DWORD PTR ?g_iShieldPotionLv3MixSuccessRate@@3HA ; g_iShieldPotionLv3MixSuccessRate
  0023a	53		 push	 ebx
  0023b	57		 push	 edi
  0023c	51		 push	 ecx
  0023d	52		 push	 edx
  0023e	8d 46 77	 lea	 eax, DWORD PTR [esi+119]
  00241	50		 push	 eax
  00242	8d 4e 6c	 lea	 ecx, DWORD PTR [esi+108]
  00245	51		 push	 ecx
  00246	68 00 00 00 00	 push	 OFFSET ??_C@_0FO@FNMAJKJN@?$FLChaosMix?$FN?$FLShield?5Potion?$FN?5Lv3?5Po@
  0024b	ff 15 00 00 00
	00		 call	 DWORD PTR ?LogAddTD@@3P6AXPADZZA ; LogAddTD

; 4205 : 
; 4206 : #if(SYSTEM_ACHIEVEMENTS)
; 4207 : 		g_Achievements.FailedChaosMix(lpObj->m_Index);

  00251	8b 16		 mov	 edx, DWORD PTR [esi]
  00253	83 c4 30	 add	 esp, 48			; 00000030H
  00256	52		 push	 edx
  00257	b9 00 00 00 00	 mov	 ecx, OFFSET ?g_Achievements@@3VCAchievements@@A ; g_Achievements
  0025c	e8 00 00 00 00	 call	 ?FailedChaosMix@CAchievements@@QAEXH@Z ; CAchievements::FailedChaosMix

; 4212 : }

  00261	8b 4d fc	 mov	 ecx, DWORD PTR __$ArrayPad$[ebp]
  00264	5f		 pop	 edi
  00265	c7 86 88 0e 00
	00 00 00 00 00	 mov	 DWORD PTR [esi+3720], 0
  0026f	5e		 pop	 esi
  00270	33 cd		 xor	 ecx, ebp
  00272	5b		 pop	 ebx
  00273	e8 00 00 00 00	 call	 @__security_check_cookie@4
  00278	8b e5		 mov	 esp, ebp
  0027a	5d		 pop	 ebp
  0027b	c2 04 00	 ret	 4
?ShieldPotionLv3_Mix@CMixSystem@@QAEXPAUOBJECTSTRUCT@@@Z ENDP ; CMixSystem::ShieldPotionLv3_Mix
_TEXT	ENDS
PUBLIC	?IsCondorItemCheck@CMixSystem@@QAEHH@Z		; CMixSystem::IsCondorItemCheck
; Function compile flags: /Ogtp
;	COMDAT ?IsCondorItemCheck@CMixSystem@@QAEHH@Z
_TEXT	SEGMENT
_iItemCode$ = 8						; size = 4
?IsCondorItemCheck@CMixSystem@@QAEHH@Z PROC		; CMixSystem::IsCondorItemCheck, COMDAT
; _this$ = ecx

; 4216 : {

  00000	55		 push	 ebp
  00001	8b ec		 mov	 ebp, esp

; 4217 : 	if(iItemCode == this->iCondorFeather || iItemCode == this->iCondorFlame)

  00003	8b 45 08	 mov	 eax, DWORD PTR _iItemCode$[ebp]
  00006	3b 41 1c	 cmp	 eax, DWORD PTR [ecx+28]
  00009	74 0b		 je	 SHORT $LN1@IsCondorIt
  0000b	3b 41 20	 cmp	 eax, DWORD PTR [ecx+32]
  0000e	74 06		 je	 SHORT $LN1@IsCondorIt

; 4220 : 	}
; 4221 : 	return FALSE;

  00010	33 c0		 xor	 eax, eax

; 4222 : }

  00012	5d		 pop	 ebp
  00013	c2 04 00	 ret	 4
$LN1@IsCondorIt:

; 4218 : 	{
; 4219 : 		return TRUE;

  00016	b8 01 00 00 00	 mov	 eax, 1

; 4222 : }

  0001b	5d		 pop	 ebp
  0001c	c2 04 00	 ret	 4
?IsCondorItemCheck@CMixSystem@@QAEHH@Z ENDP		; CMixSystem::IsCondorItemCheck
_TEXT	ENDS
PUBLIC	?CheckLevel1WingItem@CMixSystem@@QAEHH@Z	; CMixSystem::CheckLevel1WingItem
; Function compile flags: /Ogtp
;	COMDAT ?CheckLevel1WingItem@CMixSystem@@QAEHH@Z
_TEXT	SEGMENT
_iItemCode$ = 8						; size = 4
?CheckLevel1WingItem@CMixSystem@@QAEHH@Z PROC		; CMixSystem::CheckLevel1WingItem, COMDAT
; _this$ = ecx

; 4226 : {

  00000	55		 push	 ebp
  00001	8b ec		 mov	 ebp, esp

; 4227 : 	if( iItemCode == ITEMGET(12,0) || 
; 4228 : 		iItemCode == ITEMGET(12,1) || 
; 4229 : 		iItemCode == ITEMGET(12,2) ||
; 4230 : 		iItemCode == ITEMGET(12,41)) //season3 addon

  00003	8b 45 08	 mov	 eax, DWORD PTR _iItemCode$[ebp]
  00006	3d 00 18 00 00	 cmp	 eax, 6144		; 00001800H
  0000b	74 1b		 je	 SHORT $LN1@CheckLevel
  0000d	3d 01 18 00 00	 cmp	 eax, 6145		; 00001801H
  00012	74 14		 je	 SHORT $LN1@CheckLevel
  00014	3d 02 18 00 00	 cmp	 eax, 6146		; 00001802H
  00019	74 0d		 je	 SHORT $LN1@CheckLevel
  0001b	3d 29 18 00 00	 cmp	 eax, 6185		; 00001829H
  00020	74 06		 je	 SHORT $LN1@CheckLevel

; 4233 : 	}
; 4234 : 	return FALSE;

  00022	33 c0		 xor	 eax, eax

; 4235 : }

  00024	5d		 pop	 ebp
  00025	c2 04 00	 ret	 4
$LN1@CheckLevel:

; 4231 : 	{
; 4232 : 		return TRUE;

  00028	b8 01 00 00 00	 mov	 eax, 1

; 4235 : }

  0002d	5d		 pop	 ebp
  0002e	c2 04 00	 ret	 4
?CheckLevel1WingItem@CMixSystem@@QAEHH@Z ENDP		; CMixSystem::CheckLevel1WingItem
_TEXT	ENDS
PUBLIC	?CheckLevel2WingItem@CMixSystem@@QAEHH@Z	; CMixSystem::CheckLevel2WingItem
; Function compile flags: /Ogtp
;	COMDAT ?CheckLevel2WingItem@CMixSystem@@QAEHH@Z
_TEXT	SEGMENT
_iItemCode$ = 8						; size = 4
?CheckLevel2WingItem@CMixSystem@@QAEHH@Z PROC		; CMixSystem::CheckLevel2WingItem, COMDAT
; _this$ = ecx

; 4239 : {

  00000	55		 push	 ebp
  00001	8b ec		 mov	 ebp, esp

; 4240 : 	if( iItemCode == ITEMGET(12,3) || 
; 4241 : 		iItemCode == ITEMGET(12,4) || 
; 4242 : 		iItemCode == ITEMGET(12,5) ||
; 4243 : 		iItemCode == ITEMGET(12,6) ||
; 4244 : 		iItemCode == ITEMGET(13,30) ||
; 4245 : #ifdef FIX_MIX_CONDOR
; 4246 : 			iItemCode == ITEMGET(12,49) ||
; 4247 : #endif
; 4248 : 		iItemCode == ITEMGET(12,42)) //season3 addon

  00003	8b 45 08	 mov	 eax, DWORD PTR _iItemCode$[ebp]
  00006	3d 03 18 00 00	 cmp	 eax, 6147		; 00001803H
  0000b	74 30		 je	 SHORT $LN1@CheckLevel@2
  0000d	3d 04 18 00 00	 cmp	 eax, 6148		; 00001804H
  00012	74 29		 je	 SHORT $LN1@CheckLevel@2
  00014	3d 05 18 00 00	 cmp	 eax, 6149		; 00001805H
  00019	74 22		 je	 SHORT $LN1@CheckLevel@2
  0001b	3d 06 18 00 00	 cmp	 eax, 6150		; 00001806H
  00020	74 1b		 je	 SHORT $LN1@CheckLevel@2
  00022	3d 1e 1a 00 00	 cmp	 eax, 6686		; 00001a1eH
  00027	74 14		 je	 SHORT $LN1@CheckLevel@2
  00029	3d 31 18 00 00	 cmp	 eax, 6193		; 00001831H
  0002e	74 0d		 je	 SHORT $LN1@CheckLevel@2
  00030	3d 2a 18 00 00	 cmp	 eax, 6186		; 0000182aH
  00035	74 06		 je	 SHORT $LN1@CheckLevel@2

; 4251 : 	}
; 4252 : 	return FALSE;

  00037	33 c0		 xor	 eax, eax

; 4253 : }

  00039	5d		 pop	 ebp
  0003a	c2 04 00	 ret	 4
$LN1@CheckLevel@2:

; 4249 : 	{
; 4250 : 		return TRUE;

  0003d	b8 01 00 00 00	 mov	 eax, 1

; 4253 : }

  00042	5d		 pop	 ebp
  00043	c2 04 00	 ret	 4
?CheckLevel2WingItem@CMixSystem@@QAEHH@Z ENDP		; CMixSystem::CheckLevel2WingItem
_TEXT	ENDS
PUBLIC	?CheckLevel3WingItem@CMixSystem@@QAEHH@Z	; CMixSystem::CheckLevel3WingItem
; Function compile flags: /Ogtp
;	COMDAT ?CheckLevel3WingItem@CMixSystem@@QAEHH@Z
_TEXT	SEGMENT
_iItemCode$ = 8						; size = 4
?CheckLevel3WingItem@CMixSystem@@QAEHH@Z PROC		; CMixSystem::CheckLevel3WingItem, COMDAT
; _this$ = ecx

; 4257 : {

  00000	55		 push	 ebp
  00001	8b ec		 mov	 ebp, esp

; 4258 : 	if( iItemCode == this->iWingofStorm || 
; 4259 : 		iItemCode == this->iWingofEternal || 
; 4260 : 		iItemCode == this->iWingofIllusion ||
; 4261 : 		iItemCode == this->iWingofRuin ||
; 4262 : 		iItemCode == this->iCapeofLord ||
; 4263 : 		iItemCode == this->iWingofDimension
; 4264 : 		|| iItemCode == this->CAPE_OF_OVERRULE_ITEMINDEX 
; 4265 : 		)	//1.01.00 updated)

  00003	8b 45 08	 mov	 eax, DWORD PTR _iItemCode$[ebp]
  00006	3b 41 24	 cmp	 eax, DWORD PTR [ecx+36]
  00009	74 24		 je	 SHORT $LN1@CheckLevel@3
  0000b	3b 41 28	 cmp	 eax, DWORD PTR [ecx+40]
  0000e	74 1f		 je	 SHORT $LN1@CheckLevel@3
  00010	3b 41 2c	 cmp	 eax, DWORD PTR [ecx+44]
  00013	74 1a		 je	 SHORT $LN1@CheckLevel@3
  00015	3b 41 30	 cmp	 eax, DWORD PTR [ecx+48]
  00018	74 15		 je	 SHORT $LN1@CheckLevel@3
  0001a	3b 41 34	 cmp	 eax, DWORD PTR [ecx+52]
  0001d	74 10		 je	 SHORT $LN1@CheckLevel@3
  0001f	3b 41 38	 cmp	 eax, DWORD PTR [ecx+56]
  00022	74 0b		 je	 SHORT $LN1@CheckLevel@3
  00024	3b 41 3c	 cmp	 eax, DWORD PTR [ecx+60]
  00027	74 06		 je	 SHORT $LN1@CheckLevel@3

; 4268 : 	}
; 4269 : 	return FALSE;

  00029	33 c0		 xor	 eax, eax

; 4270 : }

  0002b	5d		 pop	 ebp
  0002c	c2 04 00	 ret	 4
$LN1@CheckLevel@3:

; 4266 : 	{
; 4267 : 		return TRUE;

  0002f	b8 01 00 00 00	 mov	 eax, 1

; 4270 : }

  00034	5d		 pop	 ebp
  00035	c2 04 00	 ret	 4
?CheckLevel3WingItem@CMixSystem@@QAEHH@Z ENDP		; CMixSystem::CheckLevel3WingItem
_TEXT	ENDS
PUBLIC	?CheckItemCondition@CMixSystem@@QAEHPAVCItem@@FEEEEE@Z ; CMixSystem::CheckItemCondition
; Function compile flags: /Ogtp
;	COMDAT ?CheckItemCondition@CMixSystem@@QAEHPAVCItem@@FEEEEE@Z
_TEXT	SEGMENT
_lpItem$ = 8						; size = 4
_Level$ = 12						; size = 2
_Op1$ = 16						; size = 1
_Op2$ = 20						; size = 1
_Op3$ = 24						; size = 1
_SetOption$ = 28					; size = 1
_NewOption$ = 32					; size = 1
?CheckItemCondition@CMixSystem@@QAEHPAVCItem@@FEEEEE@Z PROC ; CMixSystem::CheckItemCondition, COMDAT
; _this$ = ecx

; 4274 : {

  00000	55		 push	 ebp
  00001	8b ec		 mov	 ebp, esp

; 4275 : 	if(lpItem == NULL){return FALSE;}

  00003	8b 45 08	 mov	 eax, DWORD PTR _lpItem$[ebp]
  00006	85 c0		 test	 eax, eax
  00008	75 06		 jne	 SHORT $LN13@CheckItemC
$LN16@CheckItemC:
  0000a	33 c0		 xor	 eax, eax

; 4283 : }

  0000c	5d		 pop	 ebp
  0000d	c2 1c 00	 ret	 28			; 0000001cH
$LN13@CheckItemC:

; 4276 : 	if(Level != FALSE){if(lpItem->m_Level < Level){return FALSE;}}

  00010	66 8b 4d 0c	 mov	 cx, WORD PTR _Level$[ebp]
  00014	66 85 c9	 test	 cx, cx
  00017	74 06		 je	 SHORT $LN11@CheckItemC
  00019	66 39 48 08	 cmp	 WORD PTR [eax+8], cx
  0001d	7c eb		 jl	 SHORT $LN16@CheckItemC
$LN11@CheckItemC:

; 4277 : 	if(Op1 != FALSE){if(lpItem->m_Option1 < Op1){return FALSE;}}

  0001f	8a 4d 10	 mov	 cl, BYTE PTR _Op1$[ebp]
  00022	84 c9		 test	 cl, cl
  00024	74 08		 je	 SHORT $LN9@CheckItemC
  00026	38 88 94 00 00
	00		 cmp	 BYTE PTR [eax+148], cl
  0002c	72 dc		 jb	 SHORT $LN16@CheckItemC
$LN9@CheckItemC:

; 4278 : 	if(Op2 != FALSE){if(lpItem->m_Option2 < Op2){return FALSE;}}

  0002e	8a 4d 14	 mov	 cl, BYTE PTR _Op2$[ebp]
  00031	84 c9		 test	 cl, cl
  00033	74 08		 je	 SHORT $LN7@CheckItemC
  00035	38 88 95 00 00
	00		 cmp	 BYTE PTR [eax+149], cl
  0003b	72 cd		 jb	 SHORT $LN16@CheckItemC
$LN7@CheckItemC:

; 4279 : 	if(Op3 != FALSE){if(lpItem->m_Option3 < Op3){return FALSE;}}

  0003d	8a 4d 18	 mov	 cl, BYTE PTR _Op3$[ebp]
  00040	84 c9		 test	 cl, cl
  00042	74 08		 je	 SHORT $LN5@CheckItemC
  00044	38 88 96 00 00
	00		 cmp	 BYTE PTR [eax+150], cl
  0004a	72 be		 jb	 SHORT $LN16@CheckItemC
$LN5@CheckItemC:

; 4280 : 	if(SetOption != FALSE){if(!lpItem->m_SetOption){return FALSE;}}

  0004c	80 7d 1c 00	 cmp	 BYTE PTR _SetOption$[ebp], 0
  00050	74 09		 je	 SHORT $LN3@CheckItemC
  00052	80 b8 ae 00 00
	00 00		 cmp	 BYTE PTR [eax+174], 0
  00059	74 af		 je	 SHORT $LN16@CheckItemC
$LN3@CheckItemC:

; 4281 : 	if(NewOption != FALSE){if(!lpItem->m_NewOption){return FALSE;}}

  0005b	80 7d 20 00	 cmp	 BYTE PTR _NewOption$[ebp], 0
  0005f	74 09		 je	 SHORT $LN1@CheckItemC
  00061	80 b8 97 00 00
	00 00		 cmp	 BYTE PTR [eax+151], 0
  00068	74 a0		 je	 SHORT $LN16@CheckItemC
$LN1@CheckItemC:

; 4282 : 	return TRUE;

  0006a	b8 01 00 00 00	 mov	 eax, 1

; 4283 : }

  0006f	5d		 pop	 ebp
  00070	c2 1c 00	 ret	 28			; 0000001cH
?CheckItemCondition@CMixSystem@@QAEHPAVCItem@@FEEEEE@Z ENDP ; CMixSystem::CheckItemCondition
_TEXT	ENDS
PUBLIC	?ThirdWingMixItemDown2@CMixSystem@@QAEXPAVCItem@@@Z ; CMixSystem::ThirdWingMixItemDown2
; Function compile flags: /Ogtp
;	COMDAT ?ThirdWingMixItemDown2@CMixSystem@@QAEXPAVCItem@@@Z
_TEXT	SEGMENT
_lpItem$ = 8						; size = 4
?ThirdWingMixItemDown2@CMixSystem@@QAEXPAVCItem@@@Z PROC ; CMixSystem::ThirdWingMixItemDown2, COMDAT
; _this$ = ecx

; 4798 : {

  00000	55		 push	 ebp
  00001	8b ec		 mov	 ebp, esp
  00003	56		 push	 esi

; 4799 : 	if(lpItem == NULL)

  00004	8b 75 08	 mov	 esi, DWORD PTR _lpItem$[ebp]
  00007	85 f6		 test	 esi, esi
  00009	74 72		 je	 SHORT $LN4@ThirdWingM

; 4800 : 	{
; 4801 : 		return;
; 4802 : 	}
; 4803 : 
; 4804 : 	if((rand()%2) < 1)

  0000b	e8 00 00 00 00	 call	 _rand
  00010	25 01 00 00 80	 and	 eax, -2147483647	; 80000001H
  00015	79 05		 jns	 SHORT $LN6@ThirdWingM
  00017	48		 dec	 eax
  00018	83 c8 fe	 or	 eax, -2			; fffffffeH
  0001b	40		 inc	 eax
$LN6@ThirdWingM:
  0001c	83 f8 01	 cmp	 eax, 1
  0001f	7d 07		 jge	 SHORT $LN2@ThirdWingM

; 4805 : 	{
; 4806 : 		lpItem->m_Level -= 2;

  00021	66 83 46 08 fe	 add	 WORD PTR [esi+8], -2	; fffffffeH

; 4807 : 	}
; 4808 : 	else

  00026	eb 05		 jmp	 SHORT $LN1@ThirdWingM
$LN2@ThirdWingM:

; 4809 : 	{
; 4810 : 		lpItem->m_Level -= 3;

  00028	66 83 46 08 fd	 add	 WORD PTR [esi+8], -3	; fffffffdH
$LN1@ThirdWingM:

; 4811 : 	}
; 4812 : 
; 4813 : 	lpItem->m_Option3 = 0;
; 4814 : 	lpItem->Convert(lpItem->m_Type, lpItem->m_Option1, lpItem->m_Option2, lpItem->m_Option3, lpItem->m_NewOption, lpItem->m_SetOption, lpItem->m_ItemOptionEx, lpItem->m_SocketOption, lpItem->m_SocketOptionIndex, 0, 3);

  0002d	0f b6 86 cb 00
	00 00		 movzx	 eax, BYTE PTR [esi+203]
  00034	0f b6 96 ca 00
	00 00		 movzx	 edx, BYTE PTR [esi+202]
  0003b	6a 03		 push	 3
  0003d	6a 00		 push	 0
  0003f	50		 push	 eax
  00040	0f b6 86 ae 00
	00 00		 movzx	 eax, BYTE PTR [esi+174]
  00047	8d 8e cc 00 00
	00		 lea	 ecx, DWORD PTR [esi+204]
  0004d	51		 push	 ecx
  0004e	0f b6 8e 97 00
	00 00		 movzx	 ecx, BYTE PTR [esi+151]
  00055	52		 push	 edx
  00056	0f b6 96 95 00
	00 00		 movzx	 edx, BYTE PTR [esi+149]
  0005d	50		 push	 eax
  0005e	0f b6 86 94 00
	00 00		 movzx	 eax, BYTE PTR [esi+148]
  00065	51		 push	 ecx
  00066	0f bf 4e 06	 movsx	 ecx, WORD PTR [esi+6]
  0006a	6a 00		 push	 0
  0006c	52		 push	 edx
  0006d	50		 push	 eax
  0006e	51		 push	 ecx
  0006f	8b ce		 mov	 ecx, esi
  00071	c6 86 96 00 00
	00 00		 mov	 BYTE PTR [esi+150], 0
  00078	e8 00 00 00 00	 call	 ?Convert@CItem@@QAEXHEEEEEEPAEEEE@Z ; CItem::Convert
$LN4@ThirdWingM:
  0007d	5e		 pop	 esi

; 4815 : }

  0007e	5d		 pop	 ebp
  0007f	c2 04 00	 ret	 4
?ThirdWingMixItemDown2@CMixSystem@@QAEXPAVCItem@@@Z ENDP ; CMixSystem::ThirdWingMixItemDown2
_TEXT	ENDS
PUBLIC	??_C@_0DC@ILPOEBCF@?$FLSetItemMix?$FN?5?$FL?$CFs?$FN?$FL?$CFs?$FN?5CBMix?5Fail@ ; `string'
PUBLIC	??_C@_0EC@BFAACIGE@?$FLSetItemMix?$FN?5?$FL?$CFs?$FN?$FL?$CFs?$FN?5CBMix?5Succ@ ; `string'
PUBLIC	??_C@_0BN@JHMGADIL@?$FLSetItemMix?$FN?5Chaos?5Mix?5Start?$AA@ ; `string'
PUBLIC	??_C@_0L@DBFFCLIB@SetItemMix?$AA@		; `string'
PUBLIC	__$ArrayPad$
PUBLIC	?SetItemChaosMix@CMixSystem@@QAEXPAUOBJECTSTRUCT@@@Z ; CMixSystem::SetItemChaosMix
EXTRN	?GetSetOptionName@CSetItemOption@@QAEPADHH@Z:PROC ; CSetItemOption::GetSetOptionName
EXTRN	?gObjChaosItemSet@@YAXHHE@Z:PROC		; gObjChaosItemSet
EXTRN	?gObjChaosBoxInsertItemPos@@YAEHVCItem@@HH@Z:PROC ; gObjChaosBoxInsertItemPos
EXTRN	?ItemByteConvert@@YAXPAEVCItem@@@Z:PROC		; ItemByteConvert
EXTRN	?MakeSetOption@CSetItemOption@@QAEHHH@Z:PROC	; CSetItemOption::MakeSetOption
EXTRN	?CheckMixContition@CSetItemOption@@QAEHHH@Z:PROC ; CSetItemOption::CheckMixContition
EXTRN	?IsSetItem@CSetItemOption@@QAEHH@Z:PROC		; CSetItemOption::IsSetItem
EXTRN	?gSetItemOption@@3VCSetItemOption@@A:BYTE	; gSetItemOption
;	COMDAT ??_C@_0DC@ILPOEBCF@?$FLSetItemMix?$FN?5?$FL?$CFs?$FN?$FL?$CFs?$FN?5CBMix?5Fail@
CONST	SEGMENT
??_C@_0DC@ILPOEBCF@?$FLSetItemMix?$FN?5?$FL?$CFs?$FN?$FL?$CFs?$FN?5CBMix?5Fail@ DB '['
	DB	'SetItemMix] [%s][%s] CBMix Fail %d Money : %d-%d', 00H ; `string'
CONST	ENDS
;	COMDAT ??_C@_0EC@BFAACIGE@?$FLSetItemMix?$FN?5?$FL?$CFs?$FN?$FL?$CFs?$FN?5CBMix?5Succ@
CONST	SEGMENT
??_C@_0EC@BFAACIGE@?$FLSetItemMix?$FN?5?$FL?$CFs?$FN?$FL?$CFs?$FN?5CBMix?5Succ@ DB '['
	DB	'SetItemMix] [%s][%s] CBMix Success %d Money : %d-%d (SetName:'
	DB	'%s)', 00H					; `string'
CONST	ENDS
;	COMDAT ??_C@_0BN@JHMGADIL@?$FLSetItemMix?$FN?5Chaos?5Mix?5Start?$AA@
CONST	SEGMENT
??_C@_0BN@JHMGADIL@?$FLSetItemMix?$FN?5Chaos?5Mix?5Start?$AA@ DB '[SetIte'
	DB	'mMix] Chaos Mix Start', 00H			; `string'
CONST	ENDS
;	COMDAT ??_C@_0L@DBFFCLIB@SetItemMix?$AA@
CONST	SEGMENT
??_C@_0L@DBFFCLIB@SetItemMix?$AA@ DB 'SetItemMix', 00H	; `string'
; Function compile flags: /Ogtp
CONST	ENDS
;	COMDAT ?SetItemChaosMix@CMixSystem@@QAEXPAUOBJECTSTRUCT@@@Z
_TEXT	SEGMENT
_BlessGemCount$ = -272					; size = 4
_this$ = -268						; size = 4
_ChoasGemCount$ = -264					; size = 4
_SoulGemCount$ = -260					; size = 4
_n$219480 = -256					; size = 4
tv729 = -252						; size = 4
_MetalOfAncientCount$ = -252				; size = 4
_MixItemCount$ = -248					; size = 4
_setoption$ = -244					; size = 4
_iMetalOfAncientItemLevel$ = -244			; size = 4
tv837 = -240						; size = 4
_Dur$219522 = -240					; size = 4
_MixSetItemIndex$ = -240				; size = 4
_iChaosMoney$ = -236					; size = 4
_Item$219521 = -232					; size = 212
_pMsg$ = -20						; size = 16
__$ArrayPad$ = -4					; size = 4
_lpObj$ = 8						; size = 4
?SetItemChaosMix@CMixSystem@@QAEXPAUOBJECTSTRUCT@@@Z PROC ; CMixSystem::SetItemChaosMix, COMDAT
; _this$ = ecx

; 4818 : {

  00000	55		 push	 ebp
  00001	8b ec		 mov	 ebp, esp
  00003	81 ec 10 01 00
	00		 sub	 esp, 272		; 00000110H
  00009	a1 00 00 00 00	 mov	 eax, DWORD PTR ___security_cookie
  0000e	33 c5		 xor	 eax, ebp
  00010	89 45 fc	 mov	 DWORD PTR __$ArrayPad$[ebp], eax
  00013	53		 push	 ebx
  00014	8b 5d 08	 mov	 ebx, DWORD PTR _lpObj$[ebp]
  00017	56		 push	 esi
  00018	57		 push	 edi

; 4819 : 	lpObj->ChaosLock = TRUE;
; 4820 : 
; 4821 : 	int ChoasGemCount = 0;

  00019	33 f6		 xor	 esi, esi

; 4822 : 	int BlessGemCount = 0;
; 4823 : 	int SoulGemCount = 0;
; 4824 : 	int MetalOfAncientCount = 0;
; 4825 : 	int MixItemCount = 0;
; 4826 : 	int MixSetItemIndex = 0;
; 4827 : 	int iMixItemChaosMoney = 0;
; 4828 : 	int iChaosMoney = 0;
; 4829 : 	int iMetalOfAncientItemLevel = -1;
; 4830 : 
; 4831 : 	PMSG_CHAOSMIXRESULT pMsg;
; 4832 : 
; 4833 : 	PHeadSetB((LPBYTE)&pMsg.h, 0x86, sizeof(PMSG_CHAOSMIXRESULT));

  0001b	6a 10		 push	 16			; 00000010H
  0001d	8d 45 ec	 lea	 eax, DWORD PTR _pMsg$[ebp]
  00020	68 86 00 00 00	 push	 134			; 00000086H
  00025	50		 push	 eax
  00026	89 8d f4 fe ff
	ff		 mov	 DWORD PTR _this$[ebp], ecx
  0002c	c7 83 88 0e 00
	00 01 00 00 00	 mov	 DWORD PTR [ebx+3720], 1
  00036	89 b5 f8 fe ff
	ff		 mov	 DWORD PTR _ChoasGemCount$[ebp], esi
  0003c	89 b5 f0 fe ff
	ff		 mov	 DWORD PTR _BlessGemCount$[ebp], esi
  00042	89 b5 fc fe ff
	ff		 mov	 DWORD PTR _SoulGemCount$[ebp], esi
  00048	89 b5 04 ff ff
	ff		 mov	 DWORD PTR _MetalOfAncientCount$[ebp], esi
  0004e	89 b5 08 ff ff
	ff		 mov	 DWORD PTR _MixItemCount$[ebp], esi
  00054	89 b5 10 ff ff
	ff		 mov	 DWORD PTR _MixSetItemIndex$[ebp], esi
  0005a	33 ff		 xor	 edi, edi
  0005c	89 b5 14 ff ff
	ff		 mov	 DWORD PTR _iChaosMoney$[ebp], esi
  00062	c7 85 0c ff ff
	ff ff ff ff ff	 mov	 DWORD PTR _iMetalOfAncientItemLevel$[ebp], -1
  0006c	e8 00 00 00 00	 call	 ?PHeadSetB@@YAXPAEEH@Z	; PHeadSetB
  00071	83 c4 0c	 add	 esp, 12			; 0000000cH

; 4834 : 	pMsg.Result = CB_ERROR;

  00074	c6 45 ef 00	 mov	 BYTE PTR _pMsg$[ebp+3], 0

; 4835 : 
; 4836 : 
; 4837 : 	for ( int n=0;n<CHAOS_BOX_SIZE;n++)

  00078	89 b5 00 ff ff
	ff		 mov	 DWORD PTR _n$219480[ebp], esi
  0007e	8b ff		 npad	 2
$LL32@SetItemCha:

; 4838 : 	{
; 4839 : 		if ( lpObj->pChaosBox[n].IsItem() == TRUE )

  00080	8b 8b 78 0e 00
	00		 mov	 ecx, DWORD PTR [ebx+3704]
  00086	03 ce		 add	 ecx, esi
  00088	e8 00 00 00 00	 call	 ?IsItem@CItem@@QAEHXZ	; CItem::IsItem
  0008d	83 f8 01	 cmp	 eax, 1
  00090	0f 85 80 01 00
	00		 jne	 $LN31@SetItemCha

; 4840 : 		{
; 4841 : 			if ( lpObj->pChaosBox[n].m_Type == ITEMGET(14,13) )

  00096	8b 8b 78 0e 00
	00		 mov	 ecx, DWORD PTR [ebx+3704]
  0009c	0f b7 44 31 06	 movzx	 eax, WORD PTR [ecx+esi+6]
  000a1	03 ce		 add	 ecx, esi
  000a3	ba 0d 1c 00 00	 mov	 edx, 7181		; 00001c0dH
  000a8	66 3b c2	 cmp	 ax, dx
  000ab	75 1b		 jne	 SHORT $LN37@SetItemCha

; 4842 : 			{
; 4843 : 				BlessGemCount++;

  000ad	8b 95 f0 fe ff
	ff		 mov	 edx, DWORD PTR _BlessGemCount$[ebp]
  000b3	42		 inc	 edx
  000b4	89 95 f0 fe ff
	ff		 mov	 DWORD PTR _BlessGemCount$[ebp], edx

; 4844 : 
; 4845 : 				if ( BlessGemCount > 3 )

  000ba	83 fa 03	 cmp	 edx, 3
  000bd	7e 09		 jle	 SHORT $LN37@SetItemCha

; 4846 : 				{
; 4847 : 					iChaosMoney += lpObj->pChaosBox[n].m_BuyMoney;

  000bf	8b 51 70	 mov	 edx, DWORD PTR [ecx+112]
  000c2	01 95 14 ff ff
	ff		 add	 DWORD PTR _iChaosMoney$[ebp], edx
$LN37@SetItemCha:

; 4848 : 				}
; 4849 : 			}
; 4850 : 
; 4851 : 			if ( lpObj->pChaosBox[n].m_Type == ITEMGET(14,14) )

  000c8	ba 0e 1c 00 00	 mov	 edx, 7182		; 00001c0eH
  000cd	66 3b c2	 cmp	 ax, dx
  000d0	75 1b		 jne	 SHORT $LN25@SetItemCha

; 4852 : 			{
; 4853 : 				SoulGemCount++;

  000d2	8b 95 fc fe ff
	ff		 mov	 edx, DWORD PTR _SoulGemCount$[ebp]
  000d8	42		 inc	 edx
  000d9	89 95 fc fe ff
	ff		 mov	 DWORD PTR _SoulGemCount$[ebp], edx

; 4854 : 
; 4855 : 				if ( SoulGemCount > 3 )

  000df	83 fa 03	 cmp	 edx, 3
  000e2	7e 09		 jle	 SHORT $LN25@SetItemCha

; 4856 : 				{
; 4857 : 					iChaosMoney += lpObj->pChaosBox[n].m_BuyMoney;

  000e4	8b 51 70	 mov	 edx, DWORD PTR [ecx+112]
  000e7	01 95 14 ff ff
	ff		 add	 DWORD PTR _iChaosMoney$[ebp], edx
$LN25@SetItemCha:

; 4858 : 				}
; 4859 : 			}
; 4860 : 
; 4861 : 			if ( lpObj->pChaosBox[n].m_Type == ITEMGET(14,16) )

  000ed	ba 10 1c 00 00	 mov	 edx, 7184		; 00001c10H
  000f2	66 3b c2	 cmp	 ax, dx
  000f5	75 0e		 jne	 SHORT $LN24@SetItemCha

; 4862 : 			{
; 4863 : 				iChaosMoney += lpObj->pChaosBox[n].m_BuyMoney;

  000f7	8b 41 70	 mov	 eax, DWORD PTR [ecx+112]
  000fa	01 85 14 ff ff
	ff		 add	 DWORD PTR _iChaosMoney$[ebp], eax
  00100	e9 11 01 00 00	 jmp	 $LN31@SetItemCha
$LN24@SetItemCha:

; 4864 : 			}
; 4865 : 			else if ( lpObj->pChaosBox[n].m_Type == ITEMGET(12,15) )

  00105	ba 0f 18 00 00	 mov	 edx, 6159		; 0000180fH
  0010a	66 3b c2	 cmp	 ax, dx
  0010d	75 0b		 jne	 SHORT $LN22@SetItemCha

; 4866 : 			{
; 4867 : 				ChoasGemCount++;

  0010f	ff 85 f8 fe ff
	ff		 inc	 DWORD PTR _ChoasGemCount$[ebp]
  00115	e9 fc 00 00 00	 jmp	 $LN31@SetItemCha
$LN22@SetItemCha:

; 4868 : 			}
; 4869 : 			else if ( lpObj->pChaosBox[n].m_Level >= 6 && lpObj->pChaosBox[n].IsExtItem() != FALSE)

  0011a	66 83 79 08 06	 cmp	 WORD PTR [ecx+8], 6
  0011f	7c 48		 jl	 SHORT $LN20@SetItemCha
  00121	e8 00 00 00 00	 call	 ?IsExtItem@CItem@@QAEHXZ ; CItem::IsExtItem
  00126	85 c0		 test	 eax, eax
  00128	74 3f		 je	 SHORT $LN20@SetItemCha

; 4870 : 			{
; 4871 : 				if ( gSetItemOption.IsSetItem(lpObj->pChaosBox[n].m_Type) != FALSE )

  0012a	8b 83 78 0e 00
	00		 mov	 eax, DWORD PTR [ebx+3704]
  00130	0f bf 4c 06 06	 movsx	 ecx, WORD PTR [esi+eax+6]
  00135	51		 push	 ecx
  00136	b9 00 00 00 00	 mov	 ecx, OFFSET ?gSetItemOption@@3VCSetItemOption@@A ; gSetItemOption
  0013b	e8 00 00 00 00	 call	 ?IsSetItem@CSetItemOption@@QAEHH@Z ; CSetItemOption::IsSetItem
  00140	85 c0		 test	 eax, eax
  00142	0f 84 ce 00 00
	00		 je	 $LN31@SetItemCha

; 4872 : 				{
; 4873 : 					MixItemCount++;
; 4874 : 					MixSetItemIndex = n;

  00148	8b 95 00 ff ff
	ff		 mov	 edx, DWORD PTR _n$219480[ebp]

; 4875 : 					iMixItemChaosMoney += lpObj->pChaosBox[n].m_BuyMoney;

  0014e	8b 83 78 0e 00
	00		 mov	 eax, DWORD PTR [ebx+3704]
  00154	ff 85 08 ff ff
	ff		 inc	 DWORD PTR _MixItemCount$[ebp]
  0015a	03 7c 06 70	 add	 edi, DWORD PTR [esi+eax+112]
  0015e	89 95 10 ff ff
	ff		 mov	 DWORD PTR _MixSetItemIndex$[ebp], edx

; 4876 : 				}
; 4877 : 			}

  00164	e9 ad 00 00 00	 jmp	 $LN31@SetItemCha
$LN20@SetItemCha:

; 4878 : 			else if ( ((lpObj->pChaosBox[n].m_Type >= ITEMGET(13,8) && lpObj->pChaosBox[n].m_Type < ITEMGET(13,14)) || (lpObj->pChaosBox[n].m_Type >= ITEMGET(13,20) && lpObj->pChaosBox[n].m_Type < ITEMGET(13,28) ) ) && ( lpObj->pChaosBox[n].m_Option3 >= 2  && lpObj->pChaosBox[n].m_Level >= 3 ) )	

  00169	8b 8b 78 0e 00
	00		 mov	 ecx, DWORD PTR [ebx+3704]
  0016f	0f b7 44 31 06	 movzx	 eax, WORD PTR [ecx+esi+6]
  00174	03 ce		 add	 ecx, esi
  00176	ba 08 1a 00 00	 mov	 edx, 6664		; 00001a08H
  0017b	66 3b c2	 cmp	 ax, dx
  0017e	7c 0a		 jl	 SHORT $LN15@SetItemCha
  00180	ba 0e 1a 00 00	 mov	 edx, 6670		; 00001a0eH
  00185	66 3b c2	 cmp	 ax, dx
  00188	7c 14		 jl	 SHORT $LN16@SetItemCha
$LN15@SetItemCha:
  0018a	ba 14 1a 00 00	 mov	 edx, 6676		; 00001a14H
  0018f	66 3b c2	 cmp	 ax, dx
  00192	7c 48		 jl	 SHORT $LN17@SetItemCha
  00194	ba 1c 1a 00 00	 mov	 edx, 6684		; 00001a1cH
  00199	66 3b c2	 cmp	 ax, dx
  0019c	7d 3e		 jge	 SHORT $LN17@SetItemCha
$LN16@SetItemCha:
  0019e	80 b9 96 00 00
	00 02		 cmp	 BYTE PTR [ecx+150], 2
  001a5	72 35		 jb	 SHORT $LN17@SetItemCha
  001a7	66 83 79 08 03	 cmp	 WORD PTR [ecx+8], 3
  001ac	7c 2e		 jl	 SHORT $LN17@SetItemCha

; 4879 : 			{
; 4880 : 				if ( gSetItemOption.IsSetItem(lpObj->pChaosBox[n].m_Type ) != FALSE )

  001ae	98		 cwde
  001af	50		 push	 eax
  001b0	b9 00 00 00 00	 mov	 ecx, OFFSET ?gSetItemOption@@3VCSetItemOption@@A ; gSetItemOption
  001b5	e8 00 00 00 00	 call	 ?IsSetItem@CSetItemOption@@QAEHH@Z ; CSetItemOption::IsSetItem
  001ba	85 c0		 test	 eax, eax
  001bc	74 58		 je	 SHORT $LN31@SetItemCha

; 4881 : 				{
; 4882 : 					MixItemCount++;
; 4883 : 					MixSetItemIndex = n;

  001be	8b 8d 00 ff ff
	ff		 mov	 ecx, DWORD PTR _n$219480[ebp]

; 4884 : 					iMixItemChaosMoney += lpObj->pChaosBox[n].m_BuyMoney;

  001c4	8b 93 78 0e 00
	00		 mov	 edx, DWORD PTR [ebx+3704]
  001ca	ff 85 08 ff ff
	ff		 inc	 DWORD PTR _MixItemCount$[ebp]
  001d0	03 7c 16 70	 add	 edi, DWORD PTR [esi+edx+112]
  001d4	89 8d 10 ff ff
	ff		 mov	 DWORD PTR _MixSetItemIndex$[ebp], ecx

; 4885 : 				}
; 4886 : 			}

  001da	eb 3a		 jmp	 SHORT $LN31@SetItemCha
$LN17@SetItemCha:

; 4887 : 			else if ( lpObj->pChaosBox[n].m_Type == ITEMGET(14,27) )

  001dc	ba 1b 1c 00 00	 mov	 edx, 7195		; 00001c1bH
  001e1	66 3b c2	 cmp	 ax, dx
  001e4	75 12		 jne	 SHORT $LN12@SetItemCha

; 4888 : 			{
; 4889 : 				MetalOfAncientCount++;
; 4890 : 				iMetalOfAncientItemLevel = lpObj->pChaosBox[n].m_Level;

  001e6	0f bf 41 08	 movsx	 eax, WORD PTR [ecx+8]
  001ea	ff 85 04 ff ff
	ff		 inc	 DWORD PTR _MetalOfAncientCount$[ebp]
  001f0	89 85 0c ff ff
	ff		 mov	 DWORD PTR _iMetalOfAncientItemLevel$[ebp], eax

; 4891 : 			}
; 4892 : 			else

  001f6	eb 1e		 jmp	 SHORT $LN31@SetItemCha
$LN12@SetItemCha:

; 4893 : 			{
; 4894 : 				DataSend(lpObj->m_Index, (LPBYTE)&pMsg, pMsg.h.size);

  001f8	0f b6 4d ed	 movzx	 ecx, BYTE PTR _pMsg$[ebp+1]
  001fc	8b 03		 mov	 eax, DWORD PTR [ebx]
  001fe	51		 push	 ecx
  001ff	8d 55 ec	 lea	 edx, DWORD PTR _pMsg$[ebp]
  00202	52		 push	 edx
  00203	50		 push	 eax
  00204	e8 00 00 00 00	 call	 ?DataSend@@YAHHPAEK@Z	; DataSend
  00209	83 c4 0c	 add	 esp, 12			; 0000000cH

; 4895 : 				lpObj->ChaosLock = FALSE;

  0020c	c7 83 88 0e 00
	00 00 00 00 00	 mov	 DWORD PTR [ebx+3720], 0
$LN31@SetItemCha:

; 4835 : 
; 4836 : 
; 4837 : 	for ( int n=0;n<CHAOS_BOX_SIZE;n++)

  00216	b9 01 00 00 00	 mov	 ecx, 1
  0021b	01 8d 00 ff ff
	ff		 add	 DWORD PTR _n$219480[ebp], ecx
  00221	81 c6 d4 00 00
	00		 add	 esi, 212		; 000000d4H
  00227	81 fe 80 1a 00
	00		 cmp	 esi, 6784		; 00001a80H
  0022d	0f 8c 4d fe ff
	ff		 jl	 $LL32@SetItemCha

; 4896 : 			}
; 4897 : 		}
; 4898 : 	}
; 4899 : 
; 4900 : 
; 4901 : 	if ( ChoasGemCount < 1 || BlessGemCount < 3 || SoulGemCount < 3 || MetalOfAncientCount != 1 || MixItemCount != 1 )

  00233	39 8d f8 fe ff
	ff		 cmp	 DWORD PTR _ChoasGemCount$[ebp], ecx
  00239	0f 8c cf 03 00
	00		 jl	 $LN9@SetItemCha
  0023f	b8 03 00 00 00	 mov	 eax, 3
  00244	39 85 f0 fe ff
	ff		 cmp	 DWORD PTR _BlessGemCount$[ebp], eax
  0024a	0f 8c be 03 00
	00		 jl	 $LN9@SetItemCha
  00250	39 85 fc fe ff
	ff		 cmp	 DWORD PTR _SoulGemCount$[ebp], eax
  00256	0f 8c b2 03 00
	00		 jl	 $LN9@SetItemCha
  0025c	39 8d 04 ff ff
	ff		 cmp	 DWORD PTR _MetalOfAncientCount$[ebp], ecx
  00262	0f 85 a6 03 00
	00		 jne	 $LN9@SetItemCha
  00268	39 8d 08 ff ff
	ff		 cmp	 DWORD PTR _MixItemCount$[ebp], ecx
  0026e	0f 85 9a 03 00
	00		 jne	 $LN9@SetItemCha

; 4904 : 		lpObj->ChaosLock = FALSE;
; 4905 : 		return;
; 4906 : 	}
; 4907 : 
; 4908 : 	LogChaosItem(lpObj, "SetItemMix");

  00274	8b 8d f4 fe ff
	ff		 mov	 ecx, DWORD PTR _this$[ebp]
  0027a	68 00 00 00 00	 push	 OFFSET ??_C@_0L@DBFFCLIB@SetItemMix?$AA@
  0027f	53		 push	 ebx
  00280	e8 00 00 00 00	 call	 ?LogChaosItem@CMixSystem@@QAEXPAUOBJECTSTRUCT@@PAD@Z ; CMixSystem::LogChaosItem

; 4909 : 	LogAddTD("[SetItemMix] Chaos Mix Start");

  00285	68 00 00 00 00	 push	 OFFSET ??_C@_0BN@JHMGADIL@?$FLSetItemMix?$FN?5Chaos?5Mix?5Start?$AA@
  0028a	ff 15 00 00 00
	00		 call	 DWORD PTR ?LogAddTD@@3P6AXPADZZA ; LogAddTD

; 4910 : 
; 4911 : 	if ( gSetItemOption.CheckMixContition(lpObj->pChaosBox[MixSetItemIndex].m_Type, iMetalOfAncientItemLevel ) == FALSE )

  00290	8b b5 10 ff ff
	ff		 mov	 esi, DWORD PTR _MixSetItemIndex$[ebp]
  00296	8b 93 78 0e 00
	00		 mov	 edx, DWORD PTR [ebx+3704]
  0029c	69 f6 d4 00 00
	00		 imul	 esi, 212		; 000000d4H
  002a2	8b 8d 0c ff ff
	ff		 mov	 ecx, DWORD PTR _iMetalOfAncientItemLevel$[ebp]
  002a8	0f bf 44 32 06	 movsx	 eax, WORD PTR [edx+esi+6]
  002ad	83 c4 04	 add	 esp, 4
  002b0	51		 push	 ecx
  002b1	50		 push	 eax
  002b2	b9 00 00 00 00	 mov	 ecx, OFFSET ?gSetItemOption@@3VCSetItemOption@@A ; gSetItemOption
  002b7	89 b5 04 ff ff
	ff		 mov	 DWORD PTR tv729[ebp], esi
  002bd	e8 00 00 00 00	 call	 ?CheckMixContition@CSetItemOption@@QAEHHH@Z ; CSetItemOption::CheckMixContition
  002c2	85 c0		 test	 eax, eax

; 4912 : 	{
; 4913 : 		DataSend(lpObj->m_Index, (LPBYTE)&pMsg, pMsg.h.size);
; 4914 : 		lpObj->ChaosLock = FALSE;
; 4915 : 
; 4916 : 		return;

  002c4	74 4b		 je	 SHORT $LN42@SetItemCha

; 4917 : 	}
; 4918 : 
; 4919 : 	lpObj->ChaosSuccessRate = iMixItemChaosMoney / 40000;
; 4920 : 	lpObj->ChaosSuccessRate = iChaosMoney / 400000;

  002c6	b8 89 b5 f8 14	 mov	 eax, 351843721		; 14f8b589H
  002cb	f7 ad 14 ff ff
	ff		 imul	 DWORD PTR _iChaosMoney$[ebp]
  002d1	c1 fa 0f	 sar	 edx, 15			; 0000000fH
  002d4	8b c2		 mov	 eax, edx
  002d6	c1 e8 1f	 shr	 eax, 31			; 0000001fH
  002d9	03 c2		 add	 eax, edx
  002db	89 83 84 0e 00
	00		 mov	 DWORD PTR [ebx+3716], eax

; 4921 : 
; 4922 : 	if ( lpObj->ChaosSuccessRate > 80 )

  002e1	83 f8 50	 cmp	 eax, 80			; 00000050H
  002e4	7e 0a		 jle	 SHORT $LN7@SetItemCha

; 4923 : 	{
; 4924 : 		lpObj->ChaosSuccessRate = 80;

  002e6	c7 83 84 0e 00
	00 50 00 00 00	 mov	 DWORD PTR [ebx+3716], 80 ; 00000050H
$LN7@SetItemCha:

; 4925 : 	}
; 4926 : 
; 4927 : 	int nChaosNeedMoney = (lpObj->ChaosSuccessRate - 50 ) * 1000000;
; 4928 : 
; 4929 : 	nChaosNeedMoney += lpObj->m_AddMixMoney;

  002f0	8b bb 84 0e 00
	00		 mov	 edi, DWORD PTR [ebx+3716]
  002f6	83 ef 32	 sub	 edi, 50			; 00000032H
  002f9	69 ff 40 42 0f
	00		 imul	 edi, 1000000		; 000f4240H
  002ff	03 bb 20 28 00
	00		 add	 edi, DWORD PTR [ebx+10272]

; 4930 : 
; 4931 : 	if ( lpObj->Money < nChaosNeedMoney )

  00305	39 bb f0 00 00
	00		 cmp	 DWORD PTR [ebx+240], edi
  0030b	7d 15		 jge	 SHORT $LN6@SetItemCha

; 4932 : 	{
; 4933 : 		pMsg.Result = CB_NOT_ENOUGH_ZEN;

  0030d	c6 45 ef 02	 mov	 BYTE PTR _pMsg$[ebp+3], 2
$LN42@SetItemCha:

; 4934 : 		DataSend(lpObj->m_Index, (LPBYTE)&pMsg, pMsg.h.size);

  00311	0f b6 4d ed	 movzx	 ecx, BYTE PTR _pMsg$[ebp+1]
  00315	8b 03		 mov	 eax, DWORD PTR [ebx]
  00317	51		 push	 ecx
  00318	8d 55 ec	 lea	 edx, DWORD PTR _pMsg$[ebp]
  0031b	52		 push	 edx
  0031c	50		 push	 eax

; 4935 : 		lpObj->ChaosLock = FALSE;
; 4936 : 
; 4937 : 		return;

  0031d	e9 f8 02 00 00	 jmp	 $LN40@SetItemCha
$LN6@SetItemCha:

; 4938 : 	}
; 4939 : 
; 4940 : 	int setoption = gSetItemOption.MakeSetOption(lpObj->pChaosBox[MixSetItemIndex].m_Type, iMetalOfAncientItemLevel);

  00322	8b 93 78 0e 00
	00		 mov	 edx, DWORD PTR [ebx+3704]
  00328	8b 8d 0c ff ff
	ff		 mov	 ecx, DWORD PTR _iMetalOfAncientItemLevel$[ebp]
  0032e	0f bf 44 32 06	 movsx	 eax, WORD PTR [edx+esi+6]
  00333	51		 push	 ecx
  00334	50		 push	 eax
  00335	b9 00 00 00 00	 mov	 ecx, OFFSET ?gSetItemOption@@3VCSetItemOption@@A ; gSetItemOption
  0033a	e8 00 00 00 00	 call	 ?MakeSetOption@CSetItemOption@@QAEHHH@Z ; CSetItemOption::MakeSetOption
  0033f	89 85 0c ff ff
	ff		 mov	 DWORD PTR _setoption$[ebp], eax

; 4941 : 
; 4942 : 	if ( setoption == 0 )

  00345	85 c0		 test	 eax, eax
  00347	75 14		 jne	 SHORT $LN5@SetItemCha

; 4943 : 	{
; 4944 : 		pMsg.Result = CB_ERROR;
; 4945 : 		DataSend(lpObj->m_Index, (LPBYTE)&pMsg, pMsg.h.size);

  00349	0f b6 4d ed	 movzx	 ecx, BYTE PTR _pMsg$[ebp+1]
  0034d	51		 push	 ecx
  0034e	8d 55 ec	 lea	 edx, DWORD PTR _pMsg$[ebp]
  00351	88 45 ef	 mov	 BYTE PTR _pMsg$[ebp+3], al
  00354	8b 03		 mov	 eax, DWORD PTR [ebx]
  00356	52		 push	 edx
  00357	50		 push	 eax

; 4946 : 		lpObj->ChaosLock = FALSE;
; 4947 : 
; 4948 : 		return;

  00358	e9 bd 02 00 00	 jmp	 $LN40@SetItemCha
$LN5@SetItemCha:

; 4949 : 	}
; 4950 : 
; 4951 : 	lpObj->ChaosSuccessRate += lpObj->m_AddMixSuccessRate;
; 4952 : 
; 4953 : 	lpObj->Money -= nChaosNeedMoney;

  0035d	29 bb f0 00 00
	00		 sub	 DWORD PTR [ebx+240], edi
  00363	8b 83 f0 00 00
	00		 mov	 eax, DWORD PTR [ebx+240]

; 4954 : 	GCMoneySend(lpObj->m_Index, lpObj->Money);

  00369	8b 13		 mov	 edx, DWORD PTR [ebx]
  0036b	8b 8b 24 28 00
	00		 mov	 ecx, DWORD PTR [ebx+10276]
  00371	01 8b 84 0e 00
	00		 add	 DWORD PTR [ebx+3716], ecx
  00377	50		 push	 eax
  00378	52		 push	 edx
  00379	e8 00 00 00 00	 call	 ?GCMoneySend@@YAXHK@Z	; GCMoneySend
  0037e	83 c4 08	 add	 esp, 8

; 4955 : 
; 4956 : 	if ( (rand()%100) < lpObj->ChaosSuccessRate )

  00381	e8 00 00 00 00	 call	 _rand
  00386	99		 cdq
  00387	b9 64 00 00 00	 mov	 ecx, 100		; 00000064H
  0038c	f7 f9		 idiv	 ecx
  0038e	3b 93 84 0e 00
	00		 cmp	 edx, DWORD PTR [ebx+3716]
  00394	0f 8d 1b 02 00
	00		 jge	 $LN4@SetItemCha

; 4957 : 	{
; 4958 : 		lpObj->pChaosBox[MixSetItemIndex].m_SetOption = setoption;

  0039a	8b 93 78 0e 00
	00		 mov	 edx, DWORD PTR [ebx+3704]
  003a0	8a 85 0c ff ff
	ff		 mov	 al, BYTE PTR _setoption$[ebp]
  003a6	88 84 32 ae 00
	00 00		 mov	 BYTE PTR [edx+esi+174], al

; 4959 : 
; 4960 : 		if ( (rand()%100 ) < 80 )

  003ad	e8 00 00 00 00	 call	 _rand
  003b2	99		 cdq
  003b3	b9 64 00 00 00	 mov	 ecx, 100		; 00000064H
  003b8	f7 f9		 idiv	 ecx
  003ba	83 fa 50	 cmp	 edx, 80			; 00000050H
  003bd	7d 17		 jge	 SHORT $LN3@SetItemCha

; 4961 : 		{
; 4962 : 			lpObj->pChaosBox[MixSetItemIndex].m_SetOption |= 4;

  003bf	8b 93 78 0e 00
	00		 mov	 edx, DWORD PTR [ebx+3704]
  003c5	80 8c 32 ae 00
	00 00 04	 or	 BYTE PTR [edx+esi+174], 4
  003cd	8d 84 32 ae 00
	00 00		 lea	 eax, DWORD PTR [edx+esi+174]

; 4963 : 		}
; 4964 : 		else

  003d4	eb 15		 jmp	 SHORT $LN2@SetItemCha
$LN3@SetItemCha:

; 4965 : 		{
; 4966 : 			lpObj->pChaosBox[MixSetItemIndex].m_SetOption |= 8;

  003d6	8b 83 78 0e 00
	00		 mov	 eax, DWORD PTR [ebx+3704]
  003dc	80 8c 30 ae 00
	00 00 08	 or	 BYTE PTR [eax+esi+174], 8
  003e4	8d 84 30 ae 00
	00 00		 lea	 eax, DWORD PTR [eax+esi+174]
$LN2@SetItemCha:

; 4967 : 		}
; 4968 : 
; 4969 : 		pMsg.Result = CB_SUCCESS;
; 4970 : 		CItem Item;

  003eb	8d 8d 18 ff ff
	ff		 lea	 ecx, DWORD PTR _Item$219521[ebp]
  003f1	c6 45 ef 01	 mov	 BYTE PTR _pMsg$[ebp+3], 1
  003f5	e8 00 00 00 00	 call	 ??0CItem@@QAE@XZ	; CItem::CItem

; 4971 : 
; 4972 : 		float Dur = (float)ItemGetDurability(lpObj->pChaosBox[MixSetItemIndex].m_Type, lpObj->pChaosBox[MixSetItemIndex].m_Level,
; 4973 : 			lpObj->pChaosBox[MixSetItemIndex].IsExtItem(), lpObj->pChaosBox[MixSetItemIndex].IsSetItem());

  003fa	8b 8b 78 0e 00
	00		 mov	 ecx, DWORD PTR [ebx+3704]
  00400	8d 3c 31	 lea	 edi, DWORD PTR [ecx+esi]
  00403	8d 0c 0e	 lea	 ecx, DWORD PTR [esi+ecx]
  00406	e8 00 00 00 00	 call	 ?IsSetItem@CItem@@QAEHXZ ; CItem::IsSetItem
  0040b	8b 8b 78 0e 00
	00		 mov	 ecx, DWORD PTR [ebx+3704]
  00411	50		 push	 eax
  00412	03 ce		 add	 ecx, esi
  00414	e8 00 00 00 00	 call	 ?IsExtItem@CItem@@QAEHXZ ; CItem::IsExtItem
  00419	0f bf 57 08	 movsx	 edx, WORD PTR [edi+8]
  0041d	50		 push	 eax
  0041e	0f bf 47 06	 movsx	 eax, WORD PTR [edi+6]
  00422	52		 push	 edx
  00423	50		 push	 eax
  00424	e8 00 00 00 00	 call	 ?ItemGetDurability@@YAHHHHH@Z ; ItemGetDurability
  00429	89 85 10 ff ff
	ff		 mov	 DWORD PTR tv837[ebp], eax

; 4974 : 
; 4975 : 		Item.m_Level = lpObj->pChaosBox[MixSetItemIndex].m_Level;

  0042f	8b 83 78 0e 00
	00		 mov	 eax, DWORD PTR [ebx+3704]
  00435	66 8b 54 30 08	 mov	 dx, WORD PTR [eax+esi+8]
  0043a	db 85 10 ff ff
	ff		 fild	 DWORD PTR tv837[ebp]
  00440	03 c6		 add	 eax, esi
  00442	66 89 95 20 ff
	ff ff		 mov	 WORD PTR _Item$219521[ebp+8], dx
  00449	d9 9d 10 ff ff
	ff		 fstp	 DWORD PTR _Dur$219522[ebp]
  0044f	83 c4 10	 add	 esp, 16			; 00000010H

; 4976 : 		Item.m_Durability = Dur * lpObj->pChaosBox[MixSetItemIndex].m_Durability / lpObj->pChaosBox[MixSetItemIndex].m_BaseDurability;

  00452	d9 40 24	 fld	 DWORD PTR [eax+36]

; 4977 : 		Item.m_JewelOfHarmonyOption = lpObj->pChaosBox[MixSetItemIndex].m_JewelOfHarmonyOption;
; 4978 : 
; 4979 : 		Item.Convert(lpObj->pChaosBox[MixSetItemIndex].m_Type, lpObj->pChaosBox[MixSetItemIndex].m_Option1, lpObj->pChaosBox[MixSetItemIndex].m_Option2,
; 4980 : 			lpObj->pChaosBox[MixSetItemIndex].m_Option3, lpObj->pChaosBox[MixSetItemIndex].m_NewOption, 
; 4981 : 			lpObj->pChaosBox[MixSetItemIndex].m_SetOption, lpObj->pChaosBox[MixSetItemIndex].m_ItemOptionEx, lpObj->pChaosBox[MixSetItemIndex].m_SocketOption, lpObj->pChaosBox[MixSetItemIndex].m_SocketOptionIndex, 0, CURRENT_DB_VERSION);

  00455	6a 03		 push	 3
  00457	d8 8d 10 ff ff
	ff		 fmul	 DWORD PTR _Dur$219522[ebp]
  0045d	6a 00		 push	 0
  0045f	d8 70 2c	 fdiv	 DWORD PTR [eax+44]
  00462	d9 9d 3c ff ff
	ff		 fstp	 DWORD PTR _Item$219521[ebp+36]
  00468	8a 88 c4 00 00
	00		 mov	 cl, BYTE PTR [eax+196]
  0046e	88 4d dc	 mov	 BYTE PTR _Item$219521[ebp+196], cl
  00471	0f b6 90 cb 00
	00 00		 movzx	 edx, BYTE PTR [eax+203]
  00478	52		 push	 edx
  00479	0f b6 90 ca 00
	00 00		 movzx	 edx, BYTE PTR [eax+202]
  00480	8d 88 cc 00 00
	00		 lea	 ecx, DWORD PTR [eax+204]
  00486	51		 push	 ecx
  00487	0f b6 88 ae 00
	00 00		 movzx	 ecx, BYTE PTR [eax+174]
  0048e	52		 push	 edx
  0048f	0f b6 90 97 00
	00 00		 movzx	 edx, BYTE PTR [eax+151]
  00496	51		 push	 ecx
  00497	0f b6 88 96 00
	00 00		 movzx	 ecx, BYTE PTR [eax+150]
  0049e	52		 push	 edx
  0049f	0f b6 90 95 00
	00 00		 movzx	 edx, BYTE PTR [eax+149]
  004a6	51		 push	 ecx
  004a7	0f b6 88 94 00
	00 00		 movzx	 ecx, BYTE PTR [eax+148]
  004ae	52		 push	 edx
  004af	0f bf 50 06	 movsx	 edx, WORD PTR [eax+6]
  004b3	51		 push	 ecx
  004b4	52		 push	 edx
  004b5	8d 8d 18 ff ff
	ff		 lea	 ecx, DWORD PTR _Item$219521[ebp]
  004bb	e8 00 00 00 00	 call	 ?Convert@CItem@@QAEXHEEEEEEPAEEEE@Z ; CItem::Convert

; 4982 : 
; 4983 : 		Item.m_Number = lpObj->pChaosBox[MixSetItemIndex].m_Number;

  004c0	8b 83 78 0e 00
	00		 mov	 eax, DWORD PTR [ebx+3704]
  004c6	8b 0c 06	 mov	 ecx, DWORD PTR [esi+eax]
  004c9	89 8d 18 ff ff
	ff		 mov	 DWORD PTR _Item$219521[ebp], ecx

; 4984 : 
; 4985 : 		ItemByteConvert(pMsg.ItemInfo, Item);

  004cf	81 ec d4 00 00
	00		 sub	 esp, 212		; 000000d4H
  004d5	8d 55 f0	 lea	 edx, DWORD PTR _pMsg$[ebp+4]
  004d8	8b fc		 mov	 edi, esp
  004da	b9 35 00 00 00	 mov	 ecx, 53			; 00000035H
  004df	8d b5 18 ff ff
	ff		 lea	 esi, DWORD PTR _Item$219521[ebp]
  004e5	52		 push	 edx
  004e6	f3 a5		 rep movsd
  004e8	e8 00 00 00 00	 call	 ?ItemByteConvert@@YAXPAEVCItem@@@Z ; ItemByteConvert

; 4986 : 		this->ChaosBoxInit(lpObj);

  004ed	8b 8d f4 fe ff
	ff		 mov	 ecx, DWORD PTR _this$[ebp]
  004f3	81 c4 d8 00 00
	00		 add	 esp, 216		; 000000d8H
  004f9	53		 push	 ebx
  004fa	e8 00 00 00 00	 call	 ?ChaosBoxInit@CMixSystem@@QAEHPAUOBJECTSTRUCT@@@Z ; CMixSystem::ChaosBoxInit

; 4987 : 		::gObjChaosBoxInsertItemPos(lpObj->m_Index, Item, 0, -1);

  004ff	8b 03		 mov	 eax, DWORD PTR [ebx]
  00501	6a ff		 push	 -1
  00503	6a 00		 push	 0
  00505	81 ec d4 00 00
	00		 sub	 esp, 212		; 000000d4H
  0050b	8b fc		 mov	 edi, esp
  0050d	b9 35 00 00 00	 mov	 ecx, 53			; 00000035H
  00512	8d b5 18 ff ff
	ff		 lea	 esi, DWORD PTR _Item$219521[ebp]
  00518	50		 push	 eax
  00519	f3 a5		 rep movsd
  0051b	e8 00 00 00 00	 call	 ?gObjChaosBoxInsertItemPos@@YAEHVCItem@@HH@Z ; gObjChaosBoxInsertItemPos

; 4988 : 		gObjChaosItemSet(lpObj->m_Index, 0, 1);

  00520	8b 0b		 mov	 ecx, DWORD PTR [ebx]
  00522	6a 01		 push	 1
  00524	6a 00		 push	 0
  00526	51		 push	 ecx
  00527	e8 00 00 00 00	 call	 ?gObjChaosItemSet@@YAXHHE@Z ; gObjChaosItemSet

; 4989 : 
; 4990 : 		DataSend(lpObj->m_Index, (LPBYTE)&pMsg, pMsg.h.size);

  0052c	0f b6 55 ed	 movzx	 edx, BYTE PTR _pMsg$[ebp+1]
  00530	8b 0b		 mov	 ecx, DWORD PTR [ebx]
  00532	81 c4 ec 00 00
	00		 add	 esp, 236		; 000000ecH
  00538	52		 push	 edx
  00539	8d 45 ec	 lea	 eax, DWORD PTR _pMsg$[ebp]
  0053c	50		 push	 eax
  0053d	51		 push	 ecx
  0053e	e8 00 00 00 00	 call	 ?DataSend@@YAHHPAEK@Z	; DataSend

; 4991 : 
; 4992 : 		LogAddTD("[SetItemMix] [%s][%s] CBMix Success %d Money : %d-%d (SetName:%s)", lpObj->AccountID, lpObj->Name, lpObj->ChaosSuccessRate,
; 4993 : 			lpObj->Money, lpObj->ChaosMoney, gSetItemOption.GetSetOptionName(lpObj->pChaosBox[MixSetItemIndex].m_Type, setoption));

  00543	8b 95 0c ff ff
	ff		 mov	 edx, DWORD PTR _setoption$[ebp]
  00549	8b 83 78 0e 00
	00		 mov	 eax, DWORD PTR [ebx+3704]
  0054f	8b 8d 04 ff ff
	ff		 mov	 ecx, DWORD PTR tv729[ebp]
  00555	83 c4 0c	 add	 esp, 12			; 0000000cH
  00558	52		 push	 edx
  00559	0f bf 54 08 06	 movsx	 edx, WORD PTR [eax+ecx+6]
  0055e	52		 push	 edx
  0055f	b9 00 00 00 00	 mov	 ecx, OFFSET ?gSetItemOption@@3VCSetItemOption@@A ; gSetItemOption
  00564	e8 00 00 00 00	 call	 ?GetSetOptionName@CSetItemOption@@QAEPADHH@Z ; CSetItemOption::GetSetOptionName
  00569	8b 8b f0 00 00
	00		 mov	 ecx, DWORD PTR [ebx+240]
  0056f	8b 93 84 0e 00
	00		 mov	 edx, DWORD PTR [ebx+3716]
  00575	50		 push	 eax
  00576	8b 83 80 0e 00
	00		 mov	 eax, DWORD PTR [ebx+3712]
  0057c	50		 push	 eax
  0057d	51		 push	 ecx
  0057e	52		 push	 edx
  0057f	8d 43 77	 lea	 eax, DWORD PTR [ebx+119]
  00582	50		 push	 eax
  00583	8d 4b 6c	 lea	 ecx, DWORD PTR [ebx+108]
  00586	51		 push	 ecx
  00587	68 00 00 00 00	 push	 OFFSET ??_C@_0EC@BFAACIGE@?$FLSetItemMix?$FN?5?$FL?$CFs?$FN?$FL?$CFs?$FN?5CBMix?5Succ@
  0058c	ff 15 00 00 00
	00		 call	 DWORD PTR ?LogAddTD@@3P6AXPADZZA ; LogAddTD

; 4994 : 
; 4995 : #if(SYSTEM_ACHIEVEMENTS)
; 4996 : 		g_Achievements.SuccessChaosMix(lpObj->m_Index);

  00592	8b 13		 mov	 edx, DWORD PTR [ebx]
  00594	83 c4 1c	 add	 esp, 28			; 0000001cH
  00597	52		 push	 edx
  00598	b9 00 00 00 00	 mov	 ecx, OFFSET ?g_Achievements@@3VCAchievements@@A ; g_Achievements
  0059d	e8 00 00 00 00	 call	 ?SuccessChaosMix@CAchievements@@QAEXH@Z ; CAchievements::SuccessChaosMix

; 5015 : 	}
; 5016 : }

  005a2	5f		 pop	 edi
  005a3	5e		 pop	 esi
  005a4	5b		 pop	 ebx
  005a5	8b 4d fc	 mov	 ecx, DWORD PTR __$ArrayPad$[ebp]
  005a8	33 cd		 xor	 ecx, ebp
  005aa	e8 00 00 00 00	 call	 @__security_check_cookie@4
  005af	8b e5		 mov	 esp, ebp
  005b1	5d		 pop	 ebp
  005b2	c2 04 00	 ret	 4
$LN4@SetItemCha:

; 4997 : #endif
; 4998 : 	}
; 4999 : 	else
; 5000 : 	{
; 5001 : 		this->ChaosBoxInit(lpObj);

  005b5	8b 8d f4 fe ff
	ff		 mov	 ecx, DWORD PTR _this$[ebp]
  005bb	53		 push	 ebx
  005bc	e8 00 00 00 00	 call	 ?ChaosBoxInit@CMixSystem@@QAEHPAUOBJECTSTRUCT@@@Z ; CMixSystem::ChaosBoxInit

; 5002 : 		GCUserChaosBoxSend(lpObj, 0);

  005c1	6a 00		 push	 0
  005c3	53		 push	 ebx
  005c4	e8 00 00 00 00	 call	 ?GCUserChaosBoxSend@@YAXPAUOBJECTSTRUCT@@H@Z ; GCUserChaosBoxSend

; 5003 : 
; 5004 : 		DataSend(lpObj->m_Index, (LPBYTE)&pMsg, pMsg.h.size);

  005c9	0f b6 45 ed	 movzx	 eax, BYTE PTR _pMsg$[ebp+1]
  005cd	8b 13		 mov	 edx, DWORD PTR [ebx]
  005cf	50		 push	 eax
  005d0	8d 4d ec	 lea	 ecx, DWORD PTR _pMsg$[ebp]
  005d3	51		 push	 ecx
  005d4	52		 push	 edx
  005d5	e8 00 00 00 00	 call	 ?DataSend@@YAHHPAEK@Z	; DataSend

; 5005 : 
; 5006 : 		LogAddTD("[SetItemMix] [%s][%s] CBMix Fail %d Money : %d-%d",
; 5007 : 			lpObj->AccountID, lpObj->Name, lpObj->ChaosSuccessRate, lpObj->Money,
; 5008 : 			nChaosNeedMoney);

  005da	8b 83 f0 00 00
	00		 mov	 eax, DWORD PTR [ebx+240]
  005e0	8b 8b 84 0e 00
	00		 mov	 ecx, DWORD PTR [ebx+3716]
  005e6	57		 push	 edi
  005e7	50		 push	 eax
  005e8	51		 push	 ecx
  005e9	8d 53 77	 lea	 edx, DWORD PTR [ebx+119]
  005ec	52		 push	 edx
  005ed	8d 43 6c	 lea	 eax, DWORD PTR [ebx+108]
  005f0	50		 push	 eax
  005f1	68 00 00 00 00	 push	 OFFSET ??_C@_0DC@ILPOEBCF@?$FLSetItemMix?$FN?5?$FL?$CFs?$FN?$FL?$CFs?$FN?5CBMix?5Fail@
  005f6	ff 15 00 00 00
	00		 call	 DWORD PTR ?LogAddTD@@3P6AXPADZZA ; LogAddTD

; 5009 : 
; 5010 : #if(SYSTEM_ACHIEVEMENTS)
; 5011 : 		g_Achievements.FailedChaosMix(lpObj->m_Index);

  005fc	8b 0b		 mov	 ecx, DWORD PTR [ebx]
  005fe	83 c4 2c	 add	 esp, 44			; 0000002cH
  00601	51		 push	 ecx
  00602	b9 00 00 00 00	 mov	 ecx, OFFSET ?g_Achievements@@3VCAchievements@@A ; g_Achievements
  00607	e8 00 00 00 00	 call	 ?FailedChaosMix@CAchievements@@QAEXH@Z ; CAchievements::FailedChaosMix

; 5012 : #endif
; 5013 : 
; 5014 : 		lpObj->ChaosLock = FALSE;

  0060c	eb 14		 jmp	 SHORT $LN41@SetItemCha
$LN9@SetItemCha:

; 4902 : 	{
; 4903 : 		DataSend(lpObj->m_Index, (LPBYTE)&pMsg, pMsg.h.size);

  0060e	0f b6 55 ed	 movzx	 edx, BYTE PTR _pMsg$[ebp+1]
  00612	8b 0b		 mov	 ecx, DWORD PTR [ebx]
  00614	52		 push	 edx
  00615	8d 45 ec	 lea	 eax, DWORD PTR _pMsg$[ebp]
  00618	50		 push	 eax
  00619	51		 push	 ecx
$LN40@SetItemCha:
  0061a	e8 00 00 00 00	 call	 ?DataSend@@YAHHPAEK@Z	; DataSend
  0061f	83 c4 0c	 add	 esp, 12			; 0000000cH
$LN41@SetItemCha:

; 5015 : 	}
; 5016 : }

  00622	8b 4d fc	 mov	 ecx, DWORD PTR __$ArrayPad$[ebp]
  00625	5f		 pop	 edi
  00626	5e		 pop	 esi
  00627	c7 83 88 0e 00
	00 00 00 00 00	 mov	 DWORD PTR [ebx+3720], 0
  00631	33 cd		 xor	 ecx, ebp
  00633	5b		 pop	 ebx
  00634	e8 00 00 00 00	 call	 @__security_check_cookie@4
  00639	8b e5		 mov	 esp, ebp
  0063b	5d		 pop	 ebp
  0063c	c2 04 00	 ret	 4
?SetItemChaosMix@CMixSystem@@QAEXPAUOBJECTSTRUCT@@@Z ENDP ; CMixSystem::SetItemChaosMix
_TEXT	ENDS
PUBLIC	??_C@_0CI@FBGJBFGF@?$FLDevilSquare?$FN?5?$MA?L?$LK?$KF?F?$KO?5?$LA?f?G?$LA?5?$LP?d?C?$LL?5?$FL@ ; `string'
PUBLIC	?CBUPS_ItemRequest@CMixSystem@@QAEXHPAD0@Z	; CMixSystem::CBUPS_ItemRequest
;	COMDAT ??_C@_0CI@FBGJBFGF@?$FLDevilSquare?$FN?5?$MA?L?$LK?$KF?F?$KO?5?$LA?f?G?$LA?5?$LP?d?C?$LL?5?$FL@
CONST	SEGMENT
??_C@_0CI@FBGJBFGF@?$FLDevilSquare?$FN?5?$MA?L?$LK?$KF?F?$KO?5?$LA?f?G?$LA?5?$LP?d?C?$LL?5?$FL@ DB '['
	DB	'DevilSquare] ', 0c0H, 0ccH, 0baH, 0a5H, 0c6H, 0aeH, ' ', 0b0H
	DB	0e6H, 0c7H, 0b0H, ' ', 0bfH, 0e4H, 0c3H, 0bbH, ' [%s][%s]', 00H ; `string'
; Function compile flags: /Ogtp
CONST	ENDS
;	COMDAT ?CBUPS_ItemRequest@CMixSystem@@QAEXHPAD0@Z
_TEXT	SEGMENT
_aIndex$ = 8						; size = 4
_AccountId$ = 12					; size = 4
_Name$ = 16						; size = 4
?CBUPS_ItemRequest@CMixSystem@@QAEXHPAD0@Z PROC		; CMixSystem::CBUPS_ItemRequest, COMDAT
; _this$ = ecx

; 5027 : {

  00000	55		 push	 ebp
  00001	8b ec		 mov	 ebp, esp

; 5028 : 	LogAddTD("[DevilSquare]    [%s][%s]", AccountId, Name);

  00003	8b 45 10	 mov	 eax, DWORD PTR _Name$[ebp]
  00006	8b 4d 0c	 mov	 ecx, DWORD PTR _AccountId$[ebp]
  00009	50		 push	 eax
  0000a	51		 push	 ecx
  0000b	68 00 00 00 00	 push	 OFFSET ??_C@_0CI@FBGJBFGF@?$FLDevilSquare?$FN?5?$MA?L?$LK?$KF?F?$KO?5?$LA?f?G?$LA?5?$LP?d?C?$LL?5?$FL@
  00010	ff 15 00 00 00
	00		 call	 DWORD PTR ?LogAddTD@@3P6AXPADZZA ; LogAddTD
  00016	83 c4 0c	 add	 esp, 12			; 0000000cH

; 5029 : 
; 5030 : 	CB_PMSG_REQ_PRESENT pMsg;
; 5031 : 
; 5032 : 	pMsg.h.c = 0xC1;
; 5033 : 	pMsg.h.headcode = 0x01;
; 5034 : 	pMsg.h.size = sizeof(pMsg);
; 5035 : 	pMsg.Sequence = aIndex;
; 5036 : 	memcpy(pMsg.AccountId, AccountId, sizeof(pMsg.AccountId));
; 5037 : 	memcpy(pMsg.GameId, Name, sizeof(pMsg.GameId));
; 5038 : #if(ENABLE_UPPSOCCER)
; 5039 : 	gUdpSocCE.SendData((LPBYTE)&pMsg, pMsg.h.size);
; 5040 : #endif
; 5041 : }

  00019	5d		 pop	 ebp
  0001a	c2 0c 00	 ret	 12			; 0000000cH
?CBUPS_ItemRequest@CMixSystem@@QAEXHPAD0@Z ENDP		; CMixSystem::CBUPS_ItemRequest
_TEXT	ENDS
PUBLIC	?ChaosEventProtocolCore@@YAXEPAEH@Z		; ChaosEventProtocolCore
; Function compile flags: /Ogtp
;	COMDAT ?ChaosEventProtocolCore@@YAXEPAEH@Z
_TEXT	SEGMENT
_protoNum$ = 8						; size = 1
_aRecv$ = 12						; size = 4
_aLen$ = 16						; size = 4
?ChaosEventProtocolCore@@YAXEPAEH@Z PROC		; ChaosEventProtocolCore, COMDAT

; 5045 : 	switch ( protoNum )
; 5046 : 	{
; 5047 : 		case 0x01:
; 5048 : 			//g_MixSystem.CBUPR_ItemRequestRecv( (CB_PMSG_REQ_PRESENT_RESULT *)aRecv);
; 5049 : 			break;
; 5050 : 	}
; 5051 : }

  00000	c3		 ret	 0
?ChaosEventProtocolCore@@YAXEPAEH@Z ENDP		; ChaosEventProtocolCore
_TEXT	ENDS
PUBLIC	??_C@_0IK@DOPMBJCB@?$FLCashShop?$FN?$FLChaosCardMix?$FN?5?9?5User?$CI@ ; `string'
PUBLIC	??_C@_0DO@IIKCCCHD@?$FLChaosMix?$FN?$FLChaosCardMix?$FN?5Chaos?5C@ ; `string'
PUBLIC	??_C@_0EO@BNKLGMLJ@?$FLChaosMix?$FN?$FLLotteryItemMix?$FN?5Lotte@ ; `string'
PUBLIC	??_C@_0O@CJDOCADP@ChaosCardMini?$AA@		; `string'
PUBLIC	??_C@_0O@LHLDBNJL@ChaosCardRare?$AA@		; `string'
PUBLIC	??_C@_0O@PAMPMNGB@ChaosCardGold?$AA@		; `string'
PUBLIC	??_C@_09KIGHELLC@ChaosCard?$AA@			; `string'
PUBLIC	??_C@_0M@JCBFJDIJ@CashLottery?$AA@		; `string'
PUBLIC	__$ArrayPad$
PUBLIC	?LotteryItemMix@CMixSystem@@QAEXPAUOBJECTSTRUCT@@@Z ; CMixSystem::LotteryItemMix
EXTRN	?ItemAttribute@@3PAUITEM_ATTRIBUTE@@A:BYTE	; ItemAttribute
EXTRN	?CheckChaosCardInfo@CChaosCard@@QAEHPADPAVCItem@@@Z:PROC ; CChaosCard::CheckChaosCardInfo
EXTRN	?g_ChaosCard@@3VCChaosCard@@A:BYTE		; g_ChaosCard
EXTRN	?CheckLotteryInventoryEmptySpace@@YAHPAUOBJECTSTRUCT@@HH@Z:PROC ; CheckLotteryInventoryEmptySpace
;	COMDAT ??_C@_0IK@DOPMBJCB@?$FLCashShop?$FN?$FLChaosCardMix?$FN?5?9?5User?$CI@
CONST	SEGMENT
??_C@_0IK@DOPMBJCB@?$FLCashShop?$FN?$FLChaosCardMix?$FN?5?9?5User?$CI@ DB '['
	DB	'CashShop][ChaosCardMix] - User(ID:%s,Name:%s) Item(Name:%s,Ty'
	DB	'pe:%d,Level:%d,Dur:%d,Skill:%d,Luck:%d,AddOption:%d,Ex:(%d,%d'
	DB	',%d,%d,%d,%d))', 00H			; `string'
CONST	ENDS
;	COMDAT ??_C@_0DO@IIKCCCHD@?$FLChaosMix?$FN?$FLChaosCardMix?$FN?5Chaos?5C@
CONST	SEGMENT
??_C@_0DO@IIKCCCHD@?$FLChaosMix?$FN?$FLChaosCardMix?$FN?5Chaos?5C@ DB '[C'
	DB	'haosMix][ChaosCardMix] Chaos Card Item Mix Success [%s][%s]', 00H ; `string'
CONST	ENDS
;	COMDAT ??_C@_0EO@BNKLGMLJ@?$FLChaosMix?$FN?$FLLotteryItemMix?$FN?5Lotte@
CONST	SEGMENT
??_C@_0EO@BNKLGMLJ@?$FLChaosMix?$FN?$FLLotteryItemMix?$FN?5Lotte@ DB '[Ch'
	DB	'aosMix][LotteryItemMix] Lottery Item Mix Failed. Can''t Get I'
	DB	'tem from List.', 00H			; `string'
CONST	ENDS
;	COMDAT ??_C@_0O@CJDOCADP@ChaosCardMini?$AA@
CONST	SEGMENT
??_C@_0O@CJDOCADP@ChaosCardMini?$AA@ DB 'ChaosCardMini', 00H ; `string'
CONST	ENDS
;	COMDAT ??_C@_0O@LHLDBNJL@ChaosCardRare?$AA@
CONST	SEGMENT
??_C@_0O@LHLDBNJL@ChaosCardRare?$AA@ DB 'ChaosCardRare', 00H ; `string'
CONST	ENDS
;	COMDAT ??_C@_0O@PAMPMNGB@ChaosCardGold?$AA@
CONST	SEGMENT
??_C@_0O@PAMPMNGB@ChaosCardGold?$AA@ DB 'ChaosCardGold', 00H ; `string'
CONST	ENDS
;	COMDAT ??_C@_09KIGHELLC@ChaosCard?$AA@
CONST	SEGMENT
??_C@_09KIGHELLC@ChaosCard?$AA@ DB 'ChaosCard', 00H	; `string'
CONST	ENDS
;	COMDAT ??_C@_0M@JCBFJDIJ@CashLottery?$AA@
CONST	SEGMENT
??_C@_0M@JCBFJDIJ@CashLottery?$AA@ DB 'CashLottery', 00H ; `string'
; Function compile flags: /Ogtp
CONST	ENDS
;	COMDAT ?LotteryItemMix@CMixSystem@@QAEXPAUOBJECTSTRUCT@@@Z
_TEXT	SEGMENT
_iInvalidItemCount$ = -252				; size = 4
tv375 = -248						; size = 4
tv373 = -248						; size = 4
_this$ = -248						; size = 4
tv401 = -244						; size = 4
tv378 = -242						; size = 2
_LotteryItem$ = -240					; size = 212
_pMsg$ = -28						; size = 16
_btExOption$ = -12					; size = 8
__$ArrayPad$ = -4					; size = 4
_lpObj$ = 8						; size = 4
?LotteryItemMix@CMixSystem@@QAEXPAUOBJECTSTRUCT@@@Z PROC ; CMixSystem::LotteryItemMix, COMDAT
; _this$ = ecx

; 5054 : {

  00000	55		 push	 ebp
  00001	8b ec		 mov	 ebp, esp
  00003	81 ec fc 00 00
	00		 sub	 esp, 252		; 000000fcH
  00009	a1 00 00 00 00	 mov	 eax, DWORD PTR ___security_cookie
  0000e	33 c5		 xor	 eax, ebp
  00010	89 45 fc	 mov	 DWORD PTR __$ArrayPad$[ebp], eax
  00013	53		 push	 ebx
  00014	56		 push	 esi
  00015	8b 75 08	 mov	 esi, DWORD PTR _lpObj$[ebp]
  00018	57		 push	 edi

; 5055 : 	PMSG_CHAOSMIXRESULT pMsg;
; 5056 : 
; 5057 : 	PHeadSetB((LPBYTE)&pMsg.h, 0x86, sizeof(PMSG_CHAOSMIXRESULT));

  00019	6a 10		 push	 16			; 00000010H
  0001b	8d 45 e4	 lea	 eax, DWORD PTR _pMsg$[ebp]
  0001e	68 86 00 00 00	 push	 134			; 00000086H
  00023	50		 push	 eax
  00024	89 8d 08 ff ff
	ff		 mov	 DWORD PTR _this$[ebp], ecx
  0002a	e8 00 00 00 00	 call	 ?PHeadSetB@@YAXPAEEH@Z	; PHeadSetB

; 5058 : 	pMsg.Result = CB_ERROR;
; 5059 : 
; 5060 : 	int iLotteryItemCount = 0;

  0002f	33 ff		 xor	 edi, edi
  00031	83 c4 0c	 add	 esp, 12			; 0000000cH
  00034	c6 45 e7 00	 mov	 BYTE PTR _pMsg$[ebp+3], 0
  00038	33 db		 xor	 ebx, ebx

; 5061 : 	int iInvalidItemCount = 0;

  0003a	89 bd 04 ff ff
	ff		 mov	 DWORD PTR _iInvalidItemCount$[ebp], edi

; 5068 : 	{
; 5069 : 		if ( lpObj->pChaosBox[n].IsItem() == TRUE )

  00040	89 bd 0c ff ff
	ff		 mov	 DWORD PTR tv401[ebp], edi
  00046	eb 08 8d a4 24
	00 00 00 00 90	 npad	 10
$LL29@LotteryIte:
  00050	8b 8e 78 0e 00
	00		 mov	 ecx, DWORD PTR [esi+3704]
  00056	03 8d 0c ff ff
	ff		 add	 ecx, DWORD PTR tv401[ebp]
  0005c	e8 00 00 00 00	 call	 ?IsItem@CItem@@QAEHXZ	; CItem::IsItem
  00061	83 f8 01	 cmp	 eax, 1
  00064	75 5f		 jne	 SHORT $LN23@LotteryIte

; 5070 : 		{
; 5071 : 			if ( lpObj->pChaosBox[n].m_Type == ITEMGET(14,54) )

  00066	8b 8e 78 0e 00
	00		 mov	 ecx, DWORD PTR [esi+3704]
  0006c	8b 95 0c ff ff
	ff		 mov	 edx, DWORD PTR tv401[ebp]
  00072	0f b7 44 0a 06	 movzx	 eax, WORD PTR [edx+ecx+6]
  00077	b9 36 1c 00 00	 mov	 ecx, 7222		; 00001c36H
  0007c	66 3b c1	 cmp	 ax, cx
  0007f	75 08		 jne	 SHORT $LN20@LotteryIte

; 5072 : 			{
; 5073 : 				iChaosCardId = 1;

  00081	bf 01 00 00 00	 mov	 edi, 1

; 5074 : 				iLotteryItemCount++;

  00086	43		 inc	 ebx
  00087	eb 3c		 jmp	 SHORT $LN23@LotteryIte
$LN20@LotteryIte:

; 5075 : 			}
; 5076 : 			else if ( lpObj->pChaosBox[n].m_Type == ITEMGET(14,92) )

  00089	ba 5c 1c 00 00	 mov	 edx, 7260		; 00001c5cH
  0008e	66 3b c2	 cmp	 ax, dx
  00091	75 08		 jne	 SHORT $LN18@LotteryIte

; 5077 : 			{
; 5078 : 				iChaosCardId = 2;

  00093	bf 02 00 00 00	 mov	 edi, 2

; 5079 : 				iLotteryItemCount++;

  00098	43		 inc	 ebx
  00099	eb 2a		 jmp	 SHORT $LN23@LotteryIte
$LN18@LotteryIte:

; 5080 : 			}
; 5081 : 			else if ( lpObj->pChaosBox[n].m_Type == ITEMGET(14,93) )

  0009b	b9 5d 1c 00 00	 mov	 ecx, 7261		; 00001c5dH
  000a0	66 3b c1	 cmp	 ax, cx
  000a3	75 08		 jne	 SHORT $LN16@LotteryIte

; 5082 : 			{
; 5083 : 				iChaosCardId = 3;

  000a5	bf 03 00 00 00	 mov	 edi, 3

; 5084 : 				iLotteryItemCount++;

  000aa	43		 inc	 ebx
  000ab	eb 18		 jmp	 SHORT $LN23@LotteryIte
$LN16@LotteryIte:

; 5085 : 			}
; 5086 : 			else if ( lpObj->pChaosBox[n].m_Type == ITEMGET(14,95) )

  000ad	ba 5f 1c 00 00	 mov	 edx, 7263		; 00001c5fH
  000b2	66 3b c2	 cmp	 ax, dx
  000b5	75 08		 jne	 SHORT $LN14@LotteryIte

; 5087 : 			{
; 5088 : 				iChaosCardId = 4;

  000b7	bf 04 00 00 00	 mov	 edi, 4

; 5089 : 				iLotteryItemCount++;

  000bc	43		 inc	 ebx

; 5090 : 			}
; 5091 : 			else

  000bd	eb 06		 jmp	 SHORT $LN23@LotteryIte
$LN14@LotteryIte:

; 5092 : 			{
; 5093 : 				iInvalidItemCount++;

  000bf	ff 85 04 ff ff
	ff		 inc	 DWORD PTR _iInvalidItemCount$[ebp]
$LN23@LotteryIte:

; 5062 : 	int iItemHeight = 0;
; 5063 : 	int iItemWidth = 0;
; 5064 : 
; 5065 : 	int iChaosCardId = 0; //loc9
; 5066 : 
; 5067 : 	for ( int n=0;n<CHAOS_BOX_SIZE;n++)

  000c5	8b 85 0c ff ff
	ff		 mov	 eax, DWORD PTR tv401[ebp]
  000cb	05 d4 00 00 00	 add	 eax, 212		; 000000d4H
  000d0	89 85 0c ff ff
	ff		 mov	 DWORD PTR tv401[ebp], eax
  000d6	3d 80 1a 00 00	 cmp	 eax, 6784		; 00001a80H
  000db	0f 8c 6f ff ff
	ff		 jl	 $LL29@LotteryIte

; 5094 : 			}
; 5095 : 		}
; 5096 : 	}
; 5097 : 
; 5098 : 	if ( iInvalidItemCount > 0 || iLotteryItemCount != 1 ) //season 2.5 fix

  000e1	83 bd 04 ff ff
	ff 00		 cmp	 DWORD PTR _iInvalidItemCount$[ebp], 0
  000e8	0f 8f 02 02 00
	00		 jg	 $LN11@LotteryIte
  000ee	83 fb 01	 cmp	 ebx, 1
  000f1	0f 85 f9 01 00
	00		 jne	 $LN11@LotteryIte

; 5101 : 		lpObj->ChaosLock = FALSE;
; 5102 : 		return;
; 5103 : 	}
; 5104 : 
; 5105 : 	if ( iChaosCardId == 0 )

  000f7	85 ff		 test	 edi, edi

; 5106 : 	{
; 5107 : 		DataSend(lpObj->m_Index, (LPBYTE)&pMsg, pMsg.h.size);
; 5108 : 		lpObj->ChaosLock = FALSE;
; 5109 : 		return;

  000f9	74 26		 je	 SHORT $LN33@LotteryIte

; 5110 : 	}
; 5111 : 
; 5112 : 	LogChaosItem(lpObj, "CashLottery");

  000fb	8b 8d 08 ff ff
	ff		 mov	 ecx, DWORD PTR _this$[ebp]
  00101	68 00 00 00 00	 push	 OFFSET ??_C@_0M@JCBFJDIJ@CashLottery?$AA@
  00106	56		 push	 esi
  00107	e8 00 00 00 00	 call	 ?LogChaosItem@CMixSystem@@QAEXPAUOBJECTSTRUCT@@PAD@Z ; CMixSystem::LogChaosItem

; 5113 : 	iItemHeight = 4;
; 5114 : 	iItemWidth = 2;
; 5115 : 
; 5116 : 	if ( !CheckLotteryInventoryEmptySpace(lpObj, iItemHeight, iItemWidth))

  0010c	6a 02		 push	 2
  0010e	6a 04		 push	 4
  00110	56		 push	 esi
  00111	e8 00 00 00 00	 call	 ?CheckLotteryInventoryEmptySpace@@YAHPAUOBJECTSTRUCT@@HH@Z ; CheckLotteryInventoryEmptySpace
  00116	83 c4 0c	 add	 esp, 12			; 0000000cH
  00119	85 c0		 test	 eax, eax
  0011b	75 15		 jne	 SHORT $LN9@LotteryIte

; 5117 : 	{
; 5118 : 		pMsg.Result = 0xF1;

  0011d	c6 45 e7 f1	 mov	 BYTE PTR _pMsg$[ebp+3], 241 ; 000000f1H
$LN33@LotteryIte:

; 5119 : 		DataSend(lpObj->m_Index, (LPBYTE)&pMsg, pMsg.h.size);

  00121	0f b6 45 e5	 movzx	 eax, BYTE PTR _pMsg$[ebp+1]
  00125	8b 16		 mov	 edx, DWORD PTR [esi]
  00127	50		 push	 eax
  00128	8d 4d e4	 lea	 ecx, DWORD PTR _pMsg$[ebp]
  0012b	51		 push	 ecx
  0012c	52		 push	 edx

; 5120 : 		lpObj->ChaosLock = FALSE;
; 5121 : 		return;

  0012d	e9 ca 01 00 00	 jmp	 $LN31@LotteryIte
$LN9@LotteryIte:

; 5122 : 	}
; 5123 : 
; 5124 : 	CItem LotteryItem;

  00132	8d 8d 10 ff ff
	ff		 lea	 ecx, DWORD PTR _LotteryItem$[ebp]
  00138	e8 00 00 00 00	 call	 ??0CItem@@QAE@XZ	; CItem::CItem

; 5125 : 
; 5126 : 	if(iChaosCardId == 1)

  0013d	83 ff 01	 cmp	 edi, 1
  00140	75 0e		 jne	 SHORT $LN8@LotteryIte

; 5127 : 	{
; 5128 : 		g_ChaosCard.CheckChaosCardInfo("ChaosCard", &LotteryItem);

  00142	8d 85 10 ff ff
	ff		 lea	 eax, DWORD PTR _LotteryItem$[ebp]
  00148	50		 push	 eax
  00149	68 00 00 00 00	 push	 OFFSET ??_C@_09KIGHELLC@ChaosCard?$AA@
  0014e	eb 37		 jmp	 SHORT $LN32@LotteryIte
$LN8@LotteryIte:

; 5129 : 	}
; 5130 : 	else if(iChaosCardId == 2)

  00150	83 ff 02	 cmp	 edi, 2
  00153	75 0e		 jne	 SHORT $LN6@LotteryIte

; 5131 : 	{
; 5132 : 		g_ChaosCard.CheckChaosCardInfo("ChaosCardGold", &LotteryItem);

  00155	8d 8d 10 ff ff
	ff		 lea	 ecx, DWORD PTR _LotteryItem$[ebp]
  0015b	51		 push	 ecx
  0015c	68 00 00 00 00	 push	 OFFSET ??_C@_0O@PAMPMNGB@ChaosCardGold?$AA@
  00161	eb 24		 jmp	 SHORT $LN32@LotteryIte
$LN6@LotteryIte:

; 5133 : 	}
; 5134 : 	else if(iChaosCardId == 3)

  00163	83 ff 03	 cmp	 edi, 3
  00166	75 0e		 jne	 SHORT $LN4@LotteryIte

; 5135 : 	{
; 5136 : 		g_ChaosCard.CheckChaosCardInfo("ChaosCardRare", &LotteryItem);

  00168	8d 95 10 ff ff
	ff		 lea	 edx, DWORD PTR _LotteryItem$[ebp]
  0016e	52		 push	 edx
  0016f	68 00 00 00 00	 push	 OFFSET ??_C@_0O@LHLDBNJL@ChaosCardRare?$AA@
  00174	eb 11		 jmp	 SHORT $LN32@LotteryIte
$LN4@LotteryIte:

; 5137 : 	}
; 5138 : 	else if(iChaosCardId == 4)

  00176	83 ff 04	 cmp	 edi, 4
  00179	75 16		 jne	 SHORT $LN2@LotteryIte

; 5139 : 	{
; 5140 : 		g_ChaosCard.CheckChaosCardInfo("ChaosCardMini", &LotteryItem);

  0017b	8d 85 10 ff ff
	ff		 lea	 eax, DWORD PTR _LotteryItem$[ebp]
  00181	50		 push	 eax
  00182	68 00 00 00 00	 push	 OFFSET ??_C@_0O@CJDOCADP@ChaosCardMini?$AA@
$LN32@LotteryIte:
  00187	b9 00 00 00 00	 mov	 ecx, OFFSET ?g_ChaosCard@@3VCChaosCard@@A ; g_ChaosCard
  0018c	e8 00 00 00 00	 call	 ?CheckChaosCardInfo@CChaosCard@@QAEHPADPAVCItem@@@Z ; CChaosCard::CheckChaosCardInfo
$LN2@LotteryIte:

; 5141 : 	}
; 5142 : 
; 5143 : 	if ( LotteryItem.IsItem() == FALSE )

  00191	8d 8d 10 ff ff
	ff		 lea	 ecx, DWORD PTR _LotteryItem$[ebp]
  00197	e8 00 00 00 00	 call	 ?IsItem@CItem@@QAEHXZ	; CItem::IsItem
  0019c	85 c0		 test	 eax, eax
  0019e	75 3c		 jne	 SHORT $LN1@LotteryIte

; 5144 : 	{
; 5145 : 		DataSend(lpObj->m_Index, (LPBYTE)&pMsg, pMsg.h.size);

  001a0	0f b6 4d e5	 movzx	 ecx, BYTE PTR _pMsg$[ebp+1]
  001a4	8b 06		 mov	 eax, DWORD PTR [esi]
  001a6	51		 push	 ecx
  001a7	8d 55 e4	 lea	 edx, DWORD PTR _pMsg$[ebp]
  001aa	52		 push	 edx
  001ab	50		 push	 eax
  001ac	e8 00 00 00 00	 call	 ?DataSend@@YAHHPAEK@Z	; DataSend

; 5146 : 		lpObj->ChaosLock = FALSE;
; 5147 : 		LogAddTD("[ChaosMix][LotteryItemMix] Lottery Item Mix Failed. Can't Get Item from List.");

  001b1	68 00 00 00 00	 push	 OFFSET ??_C@_0EO@BNKLGMLJ@?$FLChaosMix?$FN?$FLLotteryItemMix?$FN?5Lotte@
  001b6	c7 86 88 0e 00
	00 00 00 00 00	 mov	 DWORD PTR [esi+3720], 0
  001c0	ff 15 00 00 00
	00		 call	 DWORD PTR ?LogAddTD@@3P6AXPADZZA ; LogAddTD
  001c6	83 c4 10	 add	 esp, 16			; 00000010H
  001c9	5f		 pop	 edi
  001ca	5e		 pop	 esi
  001cb	5b		 pop	 ebx

; 5167 : }

  001cc	8b 4d fc	 mov	 ecx, DWORD PTR __$ArrayPad$[ebp]
  001cf	33 cd		 xor	 ecx, ebp
  001d1	e8 00 00 00 00	 call	 @__security_check_cookie@4
  001d6	8b e5		 mov	 esp, ebp
  001d8	5d		 pop	 ebp
  001d9	c2 04 00	 ret	 4
$LN1@LotteryIte:

; 5148 : 
; 5149 : 		return;
; 5150 : 	}
; 5151 : 
; 5152 : 	ItemSerialCreateSend(lpObj->m_Index, 255, 0, 0, LotteryItem.m_Type, (BYTE)LotteryItem.m_Level, (BYTE)LotteryItem.m_Durability, (BYTE)LotteryItem.m_Option1, (BYTE)LotteryItem.m_Option2, (BYTE)LotteryItem.m_Option3, lpObj->m_Index, (BYTE)LotteryItem.m_NewOption, 0);

  001dc	8b 55 a7	 mov	 edx, DWORD PTR _LotteryItem$[ebp+151]
  001df	d9 85 34 ff ff
	ff		 fld	 DWORD PTR _LotteryItem$[ebp+36]
  001e5	8b 0e		 mov	 ecx, DWORD PTR [esi]
  001e7	d9 bd 0e ff ff
	ff		 fnstcw	 WORD PTR tv378[ebp]
  001ed	8b 45 a6	 mov	 eax, DWORD PTR _LotteryItem$[ebp+150]
  001f0	6a 00		 push	 0
  001f2	52		 push	 edx
  001f3	8b 55 a5	 mov	 edx, DWORD PTR _LotteryItem$[ebp+149]
  001f6	51		 push	 ecx
  001f7	50		 push	 eax
  001f8	8b 45 a4	 mov	 eax, DWORD PTR _LotteryItem$[ebp+148]
  001fb	52		 push	 edx
  001fc	50		 push	 eax
  001fd	0f b7 85 0e ff
	ff ff		 movzx	 eax, WORD PTR tv378[ebp]
  00204	0d 00 0c 00 00	 or	 eax, 3072		; 00000c00H
  00209	89 85 08 ff ff
	ff		 mov	 DWORD PTR tv375[ebp], eax
  0020f	d9 ad 08 ff ff
	ff		 fldcw	 WORD PTR tv375[ebp]
  00215	db 9d 08 ff ff
	ff		 fistp	 DWORD PTR tv373[ebp]
  0021b	8a 95 08 ff ff
	ff		 mov	 dl, BYTE PTR tv373[ebp]
  00221	0f b6 c2	 movzx	 eax, dl
  00224	8b 95 18 ff ff
	ff		 mov	 edx, DWORD PTR _LotteryItem$[ebp+8]
  0022a	d9 ad 0e ff ff
	ff		 fldcw	 WORD PTR tv378[ebp]
  00230	50		 push	 eax
  00231	0f bf 85 16 ff
	ff ff		 movsx	 eax, WORD PTR _LotteryItem$[ebp+6]
  00238	52		 push	 edx
  00239	50		 push	 eax
  0023a	6a 00		 push	 0
  0023c	6a 00		 push	 0
  0023e	68 ff 00 00 00	 push	 255			; 000000ffH
  00243	51		 push	 ecx
  00244	e8 00 00 00 00	 call	 ?ItemSerialCreateSend@@YAXHEEEHEEEEEHEE@Z ; ItemSerialCreateSend

; 5153 : 
; 5154 : 	gObjInventoryCommit(lpObj->m_Index);

  00249	8b 0e		 mov	 ecx, DWORD PTR [esi]
  0024b	51		 push	 ecx
  0024c	e8 00 00 00 00	 call	 ?gObjInventoryCommit@@YAHH@Z ; gObjInventoryCommit

; 5155 : 
; 5156 : 	LogAddTD("[ChaosMix][ChaosCardMix] Chaos Card Item Mix Success [%s][%s]", lpObj->AccountID, lpObj->Name);

  00251	8d 7e 77	 lea	 edi, DWORD PTR [esi+119]
  00254	57		 push	 edi
  00255	8d 5e 6c	 lea	 ebx, DWORD PTR [esi+108]
  00258	53		 push	 ebx
  00259	68 00 00 00 00	 push	 OFFSET ??_C@_0DO@IIKCCCHD@?$FLChaosMix?$FN?$FLChaosCardMix?$FN?5Chaos?5C@
  0025e	ff 15 00 00 00
	00		 call	 DWORD PTR ?LogAddTD@@3P6AXPADZZA ; LogAddTD
  00264	83 c4 44	 add	 esp, 68			; 00000044H

; 5157 : 
; 5158 : 	BYTE btExOption[MAX_EXOPTION_SIZE];
; 5159 : 
; 5160 : 	ItemIsBufExOption(btExOption, &LotteryItem);

  00267	8d 95 10 ff ff
	ff		 lea	 edx, DWORD PTR _LotteryItem$[ebp]
  0026d	52		 push	 edx
  0026e	8d 45 f4	 lea	 eax, DWORD PTR _btExOption$[ebp]
  00271	50		 push	 eax
  00272	e8 00 00 00 00	 call	 ?ItemIsBufExOption@@YAXPAEPAVCItem@@@Z ; ItemIsBufExOption

; 5161 : 	
; 5162 : 	LogAddTD("[CashShop][ChaosCardMix] - User(ID:%s,Name:%s) Item(Name:%s,Type:%d,Level:%d,Dur:%d,Skill:%d,Luck:%d,AddOption:%d,Ex:(%d,%d,%d,%d,%d,%d))",
; 5163 : 		lpObj->AccountID, lpObj->Name, ItemAttribute[LotteryItem.m_Type].Name,
; 5164 : 		LotteryItem.m_Type, LotteryItem.m_Level, (int)LotteryItem.m_Durability,
; 5165 : 		LotteryItem.m_Option1, LotteryItem.m_Option2, LotteryItem.m_Option3,
; 5166 : 		btExOption[0], btExOption[1], btExOption[2], btExOption[3], btExOption[4], btExOption[5]);

  00277	d9 85 34 ff ff
	ff		 fld	 DWORD PTR _LotteryItem$[ebp+36]
  0027d	0f b6 4d f9	 movzx	 ecx, BYTE PTR _btExOption$[ebp+5]
  00281	0f b6 55 f8	 movzx	 edx, BYTE PTR _btExOption$[ebp+4]
  00285	0f b6 45 f7	 movzx	 eax, BYTE PTR _btExOption$[ebp+3]
  00289	0f bf b5 16 ff
	ff ff		 movsx	 esi, WORD PTR _LotteryItem$[ebp+6]
  00290	83 c4 08	 add	 esp, 8
  00293	51		 push	 ecx
  00294	0f b6 4d f6	 movzx	 ecx, BYTE PTR _btExOption$[ebp+2]
  00298	52		 push	 edx
  00299	0f b6 55 f5	 movzx	 edx, BYTE PTR _btExOption$[ebp+1]
  0029d	50		 push	 eax
  0029e	0f b6 45 f4	 movzx	 eax, BYTE PTR _btExOption$[ebp]
  002a2	51		 push	 ecx
  002a3	0f b6 4d a6	 movzx	 ecx, BYTE PTR _LotteryItem$[ebp+150]
  002a7	52		 push	 edx
  002a8	0f b6 55 a5	 movzx	 edx, BYTE PTR _LotteryItem$[ebp+149]
  002ac	50		 push	 eax
  002ad	0f b6 45 a4	 movzx	 eax, BYTE PTR _LotteryItem$[ebp+148]
  002b1	51		 push	 ecx
  002b2	52		 push	 edx
  002b3	50		 push	 eax
  002b4	e8 00 00 00 00	 call	 __ftol2_sse
  002b9	0f bf 8d 18 ff
	ff ff		 movsx	 ecx, WORD PTR _LotteryItem$[ebp+8]
  002c0	50		 push	 eax
  002c1	51		 push	 ecx
  002c2	56		 push	 esi
  002c3	6b f6 70	 imul	 esi, 112		; 00000070H
  002c6	81 c6 00 00 00
	00		 add	 esi, OFFSET ?ItemAttribute@@3PAUITEM_ATTRIBUTE@@A ; ItemAttribute
  002cc	56		 push	 esi
  002cd	57		 push	 edi
  002ce	53		 push	 ebx
  002cf	68 00 00 00 00	 push	 OFFSET ??_C@_0IK@DOPMBJCB@?$FLCashShop?$FN?$FLChaosCardMix?$FN?5?9?5User?$CI@
  002d4	ff 15 00 00 00
	00		 call	 DWORD PTR ?LogAddTD@@3P6AXPADZZA ; LogAddTD
  002da	83 c4 40	 add	 esp, 64			; 00000040H
  002dd	5f		 pop	 edi
  002de	5e		 pop	 esi
  002df	5b		 pop	 ebx

; 5167 : }

  002e0	8b 4d fc	 mov	 ecx, DWORD PTR __$ArrayPad$[ebp]
  002e3	33 cd		 xor	 ecx, ebp
  002e5	e8 00 00 00 00	 call	 @__security_check_cookie@4
  002ea	8b e5		 mov	 esp, ebp
  002ec	5d		 pop	 ebp
  002ed	c2 04 00	 ret	 4
$LN11@LotteryIte:

; 5099 : 	{
; 5100 : 		DataSend(lpObj->m_Index, (LPBYTE)&pMsg, pMsg.h.size);

  002f0	0f b6 55 e5	 movzx	 edx, BYTE PTR _pMsg$[ebp+1]
  002f4	8b 0e		 mov	 ecx, DWORD PTR [esi]
  002f6	52		 push	 edx
  002f7	8d 45 e4	 lea	 eax, DWORD PTR _pMsg$[ebp]
  002fa	50		 push	 eax
  002fb	51		 push	 ecx
$LN31@LotteryIte:
  002fc	e8 00 00 00 00	 call	 ?DataSend@@YAHHPAEK@Z	; DataSend

; 5167 : }

  00301	8b 4d fc	 mov	 ecx, DWORD PTR __$ArrayPad$[ebp]
  00304	83 c4 0c	 add	 esp, 12			; 0000000cH
  00307	5f		 pop	 edi
  00308	c7 86 88 0e 00
	00 00 00 00 00	 mov	 DWORD PTR [esi+3720], 0
  00312	5e		 pop	 esi
  00313	33 cd		 xor	 ecx, ebp
  00315	5b		 pop	 ebx
  00316	e8 00 00 00 00	 call	 @__security_check_cookie@4
  0031b	8b e5		 mov	 esp, ebp
  0031d	5d		 pop	 ebp
  0031e	c2 04 00	 ret	 4
?LotteryItemMix@CMixSystem@@QAEXPAUOBJECTSTRUCT@@@Z ENDP ; CMixSystem::LotteryItemMix
_TEXT	ENDS
PUBLIC	??_C@_0DA@CJGOEHL@?$FL?$CFs?$FN?5Overflow?5Zen?5?$FL?$CFs?$FN?$FL?$CFs?$FN?5?$FL?$CFd?1?$CF@ ; `string'
PUBLIC	??_C@_0BB@DIJAHHC@CherryBlossomMix?$AA@		; `string'
PUBLIC	??_C@_0DF@MIOBBHIN@?$FL?$CFs?$FN?$FL?$CFs?$FN?5CherryBlossomMix?5Succes@ ; `string'
PUBLIC	??_C@_0DA@LOGFDBNL@?$FL?$CFs?$FN?$FL?$CFs?$FN?5CherryBlossomMix?5Fail?5?$CF@ ; `string'
PUBLIC	__$ArrayPad$
PUBLIC	?CherryBlossomMix@CMixSystem@@QAEXPAUOBJECTSTRUCT@@@Z ; CMixSystem::CherryBlossomMix
EXTRN	?CheckInventoryEmptySpace@@YAHPAUOBJECTSTRUCT@@HH@Z:PROC ; CheckInventoryEmptySpace
EXTRN	?CherryBlossomEventItemBoxCOpen@@YAHPAUOBJECTSTRUCT@@EEEPAH@Z:PROC ; CherryBlossomEventItemBoxCOpen
EXTRN	?CherryBlossomEventItemBoxBOpen@@YAHPAUOBJECTSTRUCT@@EEEPAH@Z:PROC ; CherryBlossomEventItemBoxBOpen
EXTRN	?CherryBlossomEventItemBoxAOpen@@YAHPAUOBJECTSTRUCT@@EEEPAH@Z:PROC ; CherryBlossomEventItemBoxAOpen
;	COMDAT ??_C@_0DA@CJGOEHL@?$FL?$CFs?$FN?5Overflow?5Zen?5?$FL?$CFs?$FN?$FL?$CFs?$FN?5?$FL?$CFd?1?$CF@
CONST	SEGMENT
??_C@_0DA@CJGOEHL@?$FL?$CFs?$FN?5Overflow?5Zen?5?$FL?$CFs?$FN?$FL?$CFs?$FN?5?$FL?$CFd?1?$CF@ DB '['
	DB	'%s] Overflow Zen [%s][%s] [%d/%d User Zen/Zen]', 00H ; `string'
CONST	ENDS
;	COMDAT ??_C@_0BB@DIJAHHC@CherryBlossomMix?$AA@
CONST	SEGMENT
??_C@_0BB@DIJAHHC@CherryBlossomMix?$AA@ DB 'CherryBlossomMix', 00H ; `string'
CONST	ENDS
;	COMDAT ??_C@_0DF@MIOBBHIN@?$FL?$CFs?$FN?$FL?$CFs?$FN?5CherryBlossomMix?5Succes@
CONST	SEGMENT
??_C@_0DF@MIOBBHIN@?$FL?$CFs?$FN?$FL?$CFs?$FN?5CherryBlossomMix?5Succes@ DB '['
	DB	'%s][%s] CherryBlossomMix Success Rate:%d Money : %d', 00H ; `string'
CONST	ENDS
;	COMDAT ??_C@_0DA@LOGFDBNL@?$FL?$CFs?$FN?$FL?$CFs?$FN?5CherryBlossomMix?5Fail?5?$CF@
CONST	SEGMENT
??_C@_0DA@LOGFDBNL@?$FL?$CFs?$FN?$FL?$CFs?$FN?5CherryBlossomMix?5Fail?5?$CF@ DB '['
	DB	'%s][%s] CherryBlossomMix Fail %d Money : %d-%d', 00H ; `string'
; Function compile flags: /Ogtp
CONST	ENDS
;	COMDAT ?CherryBlossomMix@CMixSystem@@QAEXPAUOBJECTSTRUCT@@@Z
_TEXT	SEGMENT
_this$ = -48						; size = 4
_iDropZen$ = -44					; size = 4
tv386 = -40						; size = 4
tv384 = -40						; size = 4
tv390 = -36						; size = 4
tv389 = -34						; size = 2
_CherryBlossomData$ = -32				; size = 12
_pMsg$ = -20						; size = 16
__$ArrayPad$ = -4					; size = 4
_lpObj$ = 8						; size = 4
?CherryBlossomMix@CMixSystem@@QAEXPAUOBJECTSTRUCT@@@Z PROC ; CMixSystem::CherryBlossomMix, COMDAT
; _this$ = ecx

; 5181 : {

  00000	55		 push	 ebp
  00001	8b ec		 mov	 ebp, esp
  00003	83 ec 30	 sub	 esp, 48			; 00000030H
  00006	a1 00 00 00 00	 mov	 eax, DWORD PTR ___security_cookie
  0000b	33 c5		 xor	 eax, ebp
  0000d	89 45 fc	 mov	 DWORD PTR __$ArrayPad$[ebp], eax
  00010	53		 push	 ebx
  00011	56		 push	 esi
  00012	8b 75 08	 mov	 esi, DWORD PTR _lpObj$[ebp]
  00015	57		 push	 edi

; 5182 : 	PMSG_CHAOSMIXRESULT pMsg; //loc3 and 4
; 5183 : 	PHeadSetB((LPBYTE)&pMsg.h, 0x86, sizeof(PMSG_CHAOSMIXRESULT));

  00016	6a 10		 push	 16			; 00000010H
  00018	8d 45 ec	 lea	 eax, DWORD PTR _pMsg$[ebp]
  0001b	68 86 00 00 00	 push	 134			; 00000086H
  00020	50		 push	 eax
  00021	89 4d d0	 mov	 DWORD PTR _this$[ebp], ecx
  00024	e8 00 00 00 00	 call	 ?PHeadSetB@@YAXPAEEH@Z	; PHeadSetB

; 5184 : 	pMsg.Result = CB_ERROR;
; 5185 : 	lpObj->ChaosLock = TRUE;
; 5186 : 
; 5187 : 	ST_CHERRYBLOSSOM_MIX	CherryBlossomData = {0}; //nice wz

  00029	33 c0		 xor	 eax, eax
  0002b	83 c4 0c	 add	 esp, 12			; 0000000cH
  0002e	33 ff		 xor	 edi, edi
  00030	c6 45 ef 00	 mov	 BYTE PTR _pMsg$[ebp+3], 0
  00034	c7 86 88 0e 00
	00 01 00 00 00	 mov	 DWORD PTR [esi+3720], 1
  0003e	89 45 e4	 mov	 DWORD PTR _CherryBlossomData$[ebp+4], eax
  00041	89 45 e8	 mov	 DWORD PTR _CherryBlossomData$[ebp+8], eax

; 5190 : 	{
; 5191 : 		if ( lpObj->pChaosBox[n].IsItem() == FALSE )

  00044	33 db		 xor	 ebx, ebx
  00046	eb 08 8d a4 24
	00 00 00 00 90	 npad	 10
$LL22@CherryBlos:
  00050	8b 8e 78 0e 00
	00		 mov	 ecx, DWORD PTR [esi+3704]
  00056	03 cb		 add	 ecx, ebx
  00058	e8 00 00 00 00	 call	 ?IsItem@CItem@@QAEHXZ	; CItem::IsItem
  0005d	85 c0		 test	 eax, eax
  0005f	0f 84 8d 00 00
	00		 je	 $LN21@CherryBlos

; 5192 : 		{
; 5193 : 			continue;
; 5194 : 		}
; 5195 : 
; 5196 : 		if(CherryBlossomData.iBranchId == 0)

  00065	85 ff		 test	 edi, edi
  00067	75 4c		 jne	 SHORT $LN27@CherryBlos

; 5197 : 		{
; 5198 : 			CherryBlossomData.iBranchId = lpObj->pChaosBox[n].m_Type; //loc7

  00069	8b 8e 78 0e 00
	00		 mov	 ecx, DWORD PTR [esi+3704]
  0006f	0f bf 7c 19 06	 movsx	 edi, WORD PTR [ecx+ebx+6]

; 5199 : 
; 5200 : 			if(CherryBlossomData.iBranchId == ITEMGET(14,88))

  00074	81 ff 58 1c 00
	00		 cmp	 edi, 7256		; 00001c58H
  0007a	75 0d		 jne	 SHORT $LN17@CherryBlos

; 5201 : 			{
; 5202 : 				CherryBlossomData.btBranchCount = 10;

  0007c	c6 45 e5 0a	 mov	 BYTE PTR _CherryBlossomData$[ebp+5], 10 ; 0000000aH

; 5203 : 				CherryBlossomData.CherryBlossomItemList = CherryBlossomEventItemBoxAOpen; //loc5

  00080	c7 45 e8 00 00
	00 00		 mov	 DWORD PTR _CherryBlossomData$[ebp+8], OFFSET ?CherryBlossomEventItemBoxAOpen@@YAHPAUOBJECTSTRUCT@@EEEPAH@Z ; CherryBlossomEventItemBoxAOpen
  00087	eb 28		 jmp	 SHORT $LN12@CherryBlos
$LN17@CherryBlos:

; 5204 : 			}
; 5205 : 			else if(CherryBlossomData.iBranchId == ITEMGET(14,89))

  00089	81 ff 59 1c 00
	00		 cmp	 edi, 7257		; 00001c59H
  0008f	75 0d		 jne	 SHORT $LN15@CherryBlos

; 5206 : 			{
; 5207 : 				CherryBlossomData.btBranchCount = 30;

  00091	c6 45 e5 1e	 mov	 BYTE PTR _CherryBlossomData$[ebp+5], 30 ; 0000001eH

; 5208 : 				CherryBlossomData.CherryBlossomItemList = CherryBlossomEventItemBoxBOpen; //loc5

  00095	c7 45 e8 00 00
	00 00		 mov	 DWORD PTR _CherryBlossomData$[ebp+8], OFFSET ?CherryBlossomEventItemBoxBOpen@@YAHPAUOBJECTSTRUCT@@EEEPAH@Z ; CherryBlossomEventItemBoxBOpen
  0009c	eb 13		 jmp	 SHORT $LN12@CherryBlos
$LN15@CherryBlos:

; 5209 : 			}
; 5210 : 			else if(CherryBlossomData.iBranchId == ITEMGET(14,90))

  0009e	81 ff 5a 1c 00
	00		 cmp	 edi, 7258		; 00001c5aH
  000a4	75 60		 jne	 SHORT $LN13@CherryBlos

; 5211 : 			{
; 5212 : 				CherryBlossomData.btBranchCount = 255;

  000a6	c6 45 e5 ff	 mov	 BYTE PTR _CherryBlossomData$[ebp+5], 255 ; 000000ffH

; 5213 : 				CherryBlossomData.CherryBlossomItemList = CherryBlossomEventItemBoxCOpen; //loc5

  000aa	c7 45 e8 00 00
	00 00		 mov	 DWORD PTR _CherryBlossomData$[ebp+8], OFFSET ?CherryBlossomEventItemBoxCOpen@@YAHPAUOBJECTSTRUCT@@EEEPAH@Z ; CherryBlossomEventItemBoxCOpen
$LN12@CherryBlos:

; 5219 : 			}
; 5220 : 			CherryBlossomData.LoadItemInfo = true; //ebp-18			

  000b1	c6 45 e4 01	 mov	 BYTE PTR _CherryBlossomData$[ebp+4], 1
$LN27@CherryBlos:

; 5221 : 		}
; 5222 : 
; 5223 : 		if(CherryBlossomData.iBranchId == lpObj->pChaosBox[n].m_Type)

  000b5	8b 86 78 0e 00
	00		 mov	 eax, DWORD PTR [esi+3704]
  000bb	0f bf 4c 18 06	 movsx	 ecx, WORD PTR [eax+ebx+6]
  000c0	3b f9		 cmp	 edi, ecx
  000c2	75 46		 jne	 SHORT $LN11@CherryBlos

; 5224 : 		{
; 5225 :             CherryBlossomData.ItemDur = (BYTE)((float)CherryBlossomData.ItemDur + lpObj->pChaosBox[n].m_Durability);

  000c4	d9 44 18 24	 fld	 DWORD PTR [eax+ebx+36]
  000c8	0f b6 55 e6	 movzx	 edx, BYTE PTR _CherryBlossomData$[ebp+6]
  000cc	89 55 dc	 mov	 DWORD PTR tv390[ebp], edx
  000cf	db 45 dc	 fild	 DWORD PTR tv390[ebp]
  000d2	d9 7d de	 fnstcw	 WORD PTR tv389[ebp]
  000d5	0f b7 45 de	 movzx	 eax, WORD PTR tv389[ebp]
  000d9	de c1		 faddp	 ST(1), ST(0)
  000db	0d 00 0c 00 00	 or	 eax, 3072		; 00000c00H
  000e0	89 45 d8	 mov	 DWORD PTR tv386[ebp], eax
  000e3	d9 6d d8	 fldcw	 WORD PTR tv386[ebp]
  000e6	db 5d d8	 fistp	 DWORD PTR tv384[ebp]
  000e9	8a 45 d8	 mov	 al, BYTE PTR tv384[ebp]
  000ec	88 45 e6	 mov	 BYTE PTR _CherryBlossomData$[ebp+6], al
  000ef	d9 6d de	 fldcw	 WORD PTR tv389[ebp]
$LN21@CherryBlos:

; 5188 : 
; 5189 : 	for (int n=0;n<CHAOS_BOX_SIZE;n++) // loc8 -> ebp 20

  000f2	81 c3 d4 00 00
	00		 add	 ebx, 212		; 000000d4H
  000f8	81 fb 80 1a 00
	00		 cmp	 ebx, 6784		; 00001a80H
  000fe	0f 8c 4c ff ff
	ff		 jl	 $LL22@CherryBlos

; 5219 : 			}
; 5220 : 			CherryBlossomData.LoadItemInfo = true; //ebp-18			

  00104	eb 08		 jmp	 SHORT $LN20@CherryBlos
$LN13@CherryBlos:

; 5214 : 			}
; 5215 : 			else
; 5216 : 			{
; 5217 : 				CherryBlossomData.iBranchId = 0;

  00106	33 ff		 xor	 edi, edi

; 5218 : 				continue;

  00108	eb e8		 jmp	 SHORT $LN21@CherryBlos
$LN11@CherryBlos:

; 5226 : 		}
; 5227 : 		else
; 5228 : 		{
; 5229 : 			CherryBlossomData.LoadItemInfo = false;

  0010a	c6 45 e4 00	 mov	 BYTE PTR _CherryBlossomData$[ebp+4], 0
$LN20@CherryBlos:

; 5230 :             break;
; 5231 : 		}
; 5232 : 	}
; 5233 : 
; 5234 : 	if( CherryBlossomData.ItemDur != CherryBlossomData.btBranchCount )

  0010e	8a 4d e5	 mov	 cl, BYTE PTR _CherryBlossomData$[ebp+5]
  00111	38 4d e6	 cmp	 BYTE PTR _CherryBlossomData$[ebp+6], cl
  00114	74 04		 je	 SHORT $LN9@CherryBlos

; 5235 : 	{
; 5236 : 		CherryBlossomData.LoadItemInfo = false;

  00116	c6 45 e4 00	 mov	 BYTE PTR _CherryBlossomData$[ebp+4], 0
$LN9@CherryBlos:

; 5237 : 	}
; 5238 : 
; 5239 : 	if( CherryBlossomData.iBranchId == 0 || CherryBlossomData.LoadItemInfo == false )

  0011a	85 ff		 test	 edi, edi
  0011c	0f 84 f6 01 00
	00		 je	 $LN7@CherryBlos
  00122	80 7d e4 00	 cmp	 BYTE PTR _CherryBlossomData$[ebp+4], 0
  00126	0f 84 ec 01 00
	00		 je	 $LN7@CherryBlos

; 5244 : 		return;
; 5245 : 	}
; 5246 : 
; 5247 : 	int iItemHeight = 4;
; 5248 : 	int iItemWidth = 2;
; 5249 : 
; 5250 : 	if ( !CheckInventoryEmptySpace(lpObj, iItemHeight, iItemWidth))

  0012c	6a 02		 push	 2
  0012e	6a 04		 push	 4
  00130	56		 push	 esi
  00131	e8 00 00 00 00	 call	 ?CheckInventoryEmptySpace@@YAHPAUOBJECTSTRUCT@@HH@Z ; CheckInventoryEmptySpace
  00136	83 c4 0c	 add	 esp, 12			; 0000000cH
  00139	85 c0		 test	 eax, eax
  0013b	75 15		 jne	 SHORT $LN6@CherryBlos

; 5251 : 	{
; 5252 : 		pMsg.Result = 0xF1;
; 5253 : 		DataSend(lpObj->m_Index, (LPBYTE)&pMsg, pMsg.h.size);

  0013d	0f b6 55 ed	 movzx	 edx, BYTE PTR _pMsg$[ebp+1]
  00141	8b 0e		 mov	 ecx, DWORD PTR [esi]
  00143	52		 push	 edx
  00144	8d 45 ec	 lea	 eax, DWORD PTR _pMsg$[ebp]
  00147	50		 push	 eax
  00148	c6 45 ef f1	 mov	 BYTE PTR _pMsg$[ebp+3], 241 ; 000000f1H
  0014c	51		 push	 ecx

; 5254 : 		lpObj->ChaosLock = FALSE;
; 5255 : 		return;

  0014d	e9 d6 01 00 00	 jmp	 $LN28@CherryBlos
$LN6@CherryBlos:

; 5256 : 	}
; 5257 : 
; 5258 : 	if( CherryBlossomData.CherryBlossomItemList == NULL )

  00152	8b 45 e8	 mov	 eax, DWORD PTR _CherryBlossomData$[ebp+8]
  00155	33 ff		 xor	 edi, edi
  00157	3b c7		 cmp	 eax, edi
  00159	75 20		 jne	 SHORT $LN5@CherryBlos

; 5259 : 	{
; 5260 : 		pMsg.Result = 0xF1;
; 5261 : 		DataSend(lpObj->m_Index, (LPBYTE)&pMsg, pMsg.h.size);

  0015b	0f b6 55 ed	 movzx	 edx, BYTE PTR _pMsg$[ebp+1]
  0015f	8b 0e		 mov	 ecx, DWORD PTR [esi]
  00161	52		 push	 edx
  00162	8d 45 ec	 lea	 eax, DWORD PTR _pMsg$[ebp]
  00165	50		 push	 eax
  00166	51		 push	 ecx
  00167	c6 45 ef f1	 mov	 BYTE PTR _pMsg$[ebp+3], 241 ; 000000f1H
  0016b	e8 00 00 00 00	 call	 ?DataSend@@YAHHPAEK@Z	; DataSend

; 5262 : 		lpObj->ChaosLock = FALSE;

  00170	89 be 88 0e 00
	00		 mov	 DWORD PTR [esi+3720], edi

; 5263 : 		return;

  00176	e9 bc 01 00 00	 jmp	 $LN29@CherryBlos
$LN5@CherryBlos:

; 5264 : 	}
; 5265 : 
; 5266 : 	int iDropZen = 0;
; 5267 : 
; 5268 : 	BOOL bCherryBlossomBoxOpen = CherryBlossomData.CherryBlossomItemList(lpObj, -1, 0, 0, &iDropZen); //

  0017b	8d 55 d4	 lea	 edx, DWORD PTR _iDropZen$[ebp]
  0017e	52		 push	 edx
  0017f	57		 push	 edi
  00180	57		 push	 edi
  00181	68 ff 00 00 00	 push	 255			; 000000ffH
  00186	56		 push	 esi
  00187	89 7d d4	 mov	 DWORD PTR _iDropZen$[ebp], edi
  0018a	ff d0		 call	 eax
  0018c	83 c4 14	 add	 esp, 20			; 00000014H

; 5269 : 
; 5270 : 	if( bCherryBlossomBoxOpen == FALSE )

  0018f	85 c0		 test	 eax, eax
  00191	75 7d		 jne	 SHORT $LN4@CherryBlos

; 5271 : 	{
; 5272 : 		this->ChaosBoxInit(lpObj);

  00193	8b 4d d0	 mov	 ecx, DWORD PTR _this$[ebp]
  00196	56		 push	 esi
  00197	e8 00 00 00 00	 call	 ?ChaosBoxInit@CMixSystem@@QAEHPAUOBJECTSTRUCT@@@Z ; CMixSystem::ChaosBoxInit

; 5273 : 		GCUserChaosBoxSend(lpObj, 0);

  0019c	57		 push	 edi
  0019d	56		 push	 esi
  0019e	e8 00 00 00 00	 call	 ?GCUserChaosBoxSend@@YAXPAUOBJECTSTRUCT@@H@Z ; GCUserChaosBoxSend

; 5274 : 
; 5275 : 		DataSend(lpObj->m_Index, (LPBYTE)&pMsg, pMsg.h.size);

  001a3	0f b6 45 ed	 movzx	 eax, BYTE PTR _pMsg$[ebp+1]
  001a7	8b 16		 mov	 edx, DWORD PTR [esi]
  001a9	50		 push	 eax
  001aa	8d 4d ec	 lea	 ecx, DWORD PTR _pMsg$[ebp]
  001ad	51		 push	 ecx
  001ae	52		 push	 edx
  001af	e8 00 00 00 00	 call	 ?DataSend@@YAHHPAEK@Z	; DataSend

; 5276 : 
; 5277 : 		LogAddTD("[%s][%s] CherryBlossomMix Fail %d Money : %d-%d", lpObj->AccountID, lpObj->Name, lpObj->ChaosSuccessRate, lpObj->Money, lpObj->ChaosMoney);

  001b4	8b 86 80 0e 00
	00		 mov	 eax, DWORD PTR [esi+3712]
  001ba	8b 8e f0 00 00
	00		 mov	 ecx, DWORD PTR [esi+240]
  001c0	8b 96 84 0e 00
	00		 mov	 edx, DWORD PTR [esi+3716]
  001c6	50		 push	 eax
  001c7	51		 push	 ecx
  001c8	52		 push	 edx
  001c9	8d 46 77	 lea	 eax, DWORD PTR [esi+119]
  001cc	50		 push	 eax
  001cd	8d 4e 6c	 lea	 ecx, DWORD PTR [esi+108]
  001d0	51		 push	 ecx
  001d1	68 00 00 00 00	 push	 OFFSET ??_C@_0DA@LOGFDBNL@?$FL?$CFs?$FN?$FL?$CFs?$FN?5CherryBlossomMix?5Fail?5?$CF@
  001d6	ff 15 00 00 00
	00		 call	 DWORD PTR ?LogAddTD@@3P6AXPADZZA ; LogAddTD

; 5278 : 		lpObj->ChaosLock = FALSE;
; 5279 : #if(SYSTEM_ACHIEVEMENTS)
; 5280 : 		g_Achievements.FailedChaosMix(lpObj->m_Index);

  001dc	8b 16		 mov	 edx, DWORD PTR [esi]
  001de	83 c4 2c	 add	 esp, 44			; 0000002cH
  001e1	52		 push	 edx
  001e2	b9 00 00 00 00	 mov	 ecx, OFFSET ?g_Achievements@@3VCAchievements@@A ; g_Achievements
  001e7	89 be 88 0e 00
	00		 mov	 DWORD PTR [esi+3720], edi
  001ed	e8 00 00 00 00	 call	 ?FailedChaosMix@CAchievements@@QAEXH@Z ; CAchievements::FailedChaosMix

; 5311 : 		}
; 5312 : 		//season4.5 add-on end
; 5313 : 
; 5314 : 		lpObj->ChaosLock = FALSE;
; 5315 : 	}
; 5316 : 
; 5317 : 	gObjInventoryCommit(lpObj->m_Index);

  001f2	8b 06		 mov	 eax, DWORD PTR [esi]
  001f4	50		 push	 eax
  001f5	e8 00 00 00 00	 call	 ?gObjInventoryCommit@@YAHH@Z ; gObjInventoryCommit
  001fa	83 c4 04	 add	 esp, 4
  001fd	5f		 pop	 edi
  001fe	5e		 pop	 esi
  001ff	5b		 pop	 ebx

; 5318 : }

  00200	8b 4d fc	 mov	 ecx, DWORD PTR __$ArrayPad$[ebp]
  00203	33 cd		 xor	 ecx, ebp
  00205	e8 00 00 00 00	 call	 @__security_check_cookie@4
  0020a	8b e5		 mov	 esp, ebp
  0020c	5d		 pop	 ebp
  0020d	c2 04 00	 ret	 4
$LN4@CherryBlos:

; 5281 : #endif
; 5282 : 
; 5283 : 	}
; 5284 : 	else
; 5285 : 	{
; 5286 : 		//season4.5 add-on start
; 5287 : 		LogAddTD("[%s][%s] CherryBlossomMix Success Rate:%d Money : %d", lpObj->AccountID, lpObj->Name, lpObj->ChaosSuccessRate, lpObj->ChaosMoney);

  00210	8b 86 80 0e 00
	00		 mov	 eax, DWORD PTR [esi+3712]
  00216	8b 8e 84 0e 00
	00		 mov	 ecx, DWORD PTR [esi+3716]
  0021c	50		 push	 eax
  0021d	51		 push	 ecx
  0021e	8d 7e 77	 lea	 edi, DWORD PTR [esi+119]
  00221	57		 push	 edi
  00222	8d 5e 6c	 lea	 ebx, DWORD PTR [esi+108]
  00225	53		 push	 ebx
  00226	68 00 00 00 00	 push	 OFFSET ??_C@_0DF@MIOBBHIN@?$FL?$CFs?$FN?$FL?$CFs?$FN?5CherryBlossomMix?5Succes@
  0022b	ff 15 00 00 00
	00		 call	 DWORD PTR ?LogAddTD@@3P6AXPADZZA ; LogAddTD

; 5288 : 
; 5289 : 
; 5290 : #if(SYSTEM_ACHIEVEMENTS)
; 5291 : 		g_Achievements.SuccessChaosMix(lpObj->m_Index);

  00231	8b 16		 mov	 edx, DWORD PTR [esi]
  00233	83 c4 14	 add	 esp, 20			; 00000014H
  00236	52		 push	 edx
  00237	b9 00 00 00 00	 mov	 ecx, OFFSET ?g_Achievements@@3VCAchievements@@A ; g_Achievements
  0023c	e8 00 00 00 00	 call	 ?SuccessChaosMix@CAchievements@@QAEXH@Z ; CAchievements::SuccessChaosMix

; 5292 : #endif	
; 5293 : 		if(iDropZen > 0)

  00241	8b 45 d4	 mov	 eax, DWORD PTR _iDropZen$[ebp]
  00244	85 c0		 test	 eax, eax
  00246	0f 8e a4 00 00
	00		 jle	 $LN2@CherryBlos

; 5294 : 		{
; 5295 : 			if(lpObj->Money + iDropZen < 2000000000)

  0024c	03 86 f0 00 00
	00		 add	 eax, DWORD PTR [esi+240]
  00252	3d 00 94 35 77	 cmp	 eax, 2000000000		; 77359400H
  00257	7d 62		 jge	 SHORT $LN1@CherryBlos

; 5296 : 			{
; 5297 : 				lpObj->Money += iDropZen;
; 5298 : 				GCMoneySend(lpObj->m_Index, lpObj->Money);

  00259	8b 16		 mov	 edx, DWORD PTR [esi]
  0025b	50		 push	 eax
  0025c	52		 push	 edx
  0025d	89 86 f0 00 00
	00		 mov	 DWORD PTR [esi+240], eax
  00263	e8 00 00 00 00	 call	 ?GCMoneySend@@YAXHK@Z	; GCMoneySend

; 5299 : 				memset(pMsg.ItemInfo, 0xFF, sizeof(pMsg.ItemInfo));
; 5300 : 				pMsg.Result = 1;
; 5301 : 				this->ChaosBoxInit(lpObj);

  00268	8b 4d d0	 mov	 ecx, DWORD PTR _this$[ebp]
  0026b	83 c8 ff	 or	 eax, -1
  0026e	83 c4 08	 add	 esp, 8
  00271	56		 push	 esi
  00272	89 45 f0	 mov	 DWORD PTR _pMsg$[ebp+4], eax
  00275	89 45 f4	 mov	 DWORD PTR _pMsg$[ebp+8], eax
  00278	89 45 f8	 mov	 DWORD PTR _pMsg$[ebp+12], eax
  0027b	c6 45 ef 01	 mov	 BYTE PTR _pMsg$[ebp+3], 1
  0027f	e8 00 00 00 00	 call	 ?ChaosBoxInit@CMixSystem@@QAEHPAUOBJECTSTRUCT@@@Z ; CMixSystem::ChaosBoxInit

; 5302 : 				GCUserChaosBoxSend(lpObj, 0);

  00284	6a 00		 push	 0
  00286	56		 push	 esi
  00287	e8 00 00 00 00	 call	 ?GCUserChaosBoxSend@@YAXPAUOBJECTSTRUCT@@H@Z ; GCUserChaosBoxSend

; 5303 : 				DataSend(lpObj->m_Index, (LPBYTE)&pMsg, pMsg.h.size);

  0028c	0f b6 45 ed	 movzx	 eax, BYTE PTR _pMsg$[ebp+1]
  00290	8b 16		 mov	 edx, DWORD PTR [esi]
  00292	50		 push	 eax
  00293	8d 4d ec	 lea	 ecx, DWORD PTR _pMsg$[ebp]
  00296	51		 push	 ecx
  00297	52		 push	 edx
  00298	e8 00 00 00 00	 call	 ?DataSend@@YAHHPAEK@Z	; DataSend

; 5304 : 				gObjInventoryCommit(lpObj->m_Index);

  0029d	8b 06		 mov	 eax, DWORD PTR [esi]
  0029f	50		 push	 eax
  002a0	e8 00 00 00 00	 call	 ?gObjInventoryCommit@@YAHH@Z ; gObjInventoryCommit
  002a5	83 c4 18	 add	 esp, 24			; 00000018H
  002a8	5f		 pop	 edi
  002a9	5e		 pop	 esi
  002aa	5b		 pop	 ebx

; 5318 : }

  002ab	8b 4d fc	 mov	 ecx, DWORD PTR __$ArrayPad$[ebp]
  002ae	33 cd		 xor	 ecx, ebp
  002b0	e8 00 00 00 00	 call	 @__security_check_cookie@4
  002b5	8b e5		 mov	 esp, ebp
  002b7	5d		 pop	 ebp
  002b8	c2 04 00	 ret	 4
$LN1@CherryBlos:

; 5305 : 				return;
; 5306 : 			}
; 5307 : 
; 5308 : 			pMsg.Result = 0xF1;
; 5309 : 			DataSend(lpObj->m_Index, (LPBYTE)&pMsg, pMsg.h.size);

  002bb	0f b6 4d ed	 movzx	 ecx, BYTE PTR _pMsg$[ebp+1]
  002bf	8b 06		 mov	 eax, DWORD PTR [esi]
  002c1	51		 push	 ecx
  002c2	8d 55 ec	 lea	 edx, DWORD PTR _pMsg$[ebp]
  002c5	52		 push	 edx
  002c6	50		 push	 eax
  002c7	c6 45 ef f1	 mov	 BYTE PTR _pMsg$[ebp+3], 241 ; 000000f1H
  002cb	e8 00 00 00 00	 call	 ?DataSend@@YAHHPAEK@Z	; DataSend

; 5310 : 			LogAddTD("[%s] Overflow Zen [%s][%s] [%d/%d User Zen/Zen]", "CherryBlossomMix", lpObj->AccountID, lpObj->Name, lpObj->Money, iDropZen);		

  002d0	8b 4d d4	 mov	 ecx, DWORD PTR _iDropZen$[ebp]
  002d3	8b 96 f0 00 00
	00		 mov	 edx, DWORD PTR [esi+240]
  002d9	51		 push	 ecx
  002da	52		 push	 edx
  002db	57		 push	 edi
  002dc	53		 push	 ebx
  002dd	68 00 00 00 00	 push	 OFFSET ??_C@_0BB@DIJAHHC@CherryBlossomMix?$AA@
  002e2	68 00 00 00 00	 push	 OFFSET ??_C@_0DA@CJGOEHL@?$FL?$CFs?$FN?5Overflow?5Zen?5?$FL?$CFs?$FN?$FL?$CFs?$FN?5?$FL?$CFd?1?$CF@
  002e7	ff 15 00 00 00
	00		 call	 DWORD PTR ?LogAddTD@@3P6AXPADZZA ; LogAddTD
  002ed	83 c4 24	 add	 esp, 36			; 00000024H
$LN2@CherryBlos:

; 5311 : 		}
; 5312 : 		//season4.5 add-on end
; 5313 : 
; 5314 : 		lpObj->ChaosLock = FALSE;
; 5315 : 	}
; 5316 : 
; 5317 : 	gObjInventoryCommit(lpObj->m_Index);

  002f0	8b 06		 mov	 eax, DWORD PTR [esi]
  002f2	50		 push	 eax
  002f3	c7 86 88 0e 00
	00 00 00 00 00	 mov	 DWORD PTR [esi+3720], 0
  002fd	e8 00 00 00 00	 call	 ?gObjInventoryCommit@@YAHH@Z ; gObjInventoryCommit
  00302	83 c4 04	 add	 esp, 4
  00305	5f		 pop	 edi
  00306	5e		 pop	 esi
  00307	5b		 pop	 ebx

; 5318 : }

  00308	8b 4d fc	 mov	 ecx, DWORD PTR __$ArrayPad$[ebp]
  0030b	33 cd		 xor	 ecx, ebp
  0030d	e8 00 00 00 00	 call	 @__security_check_cookie@4
  00312	8b e5		 mov	 esp, ebp
  00314	5d		 pop	 ebp
  00315	c2 04 00	 ret	 4
$LN7@CherryBlos:

; 5240 : 	{
; 5241 : 		pMsg.Result = CB_ERROR;
; 5242 : 		DataSend(lpObj->m_Index, (LPBYTE)&pMsg, pMsg.h.size);

  00318	0f b6 4d ed	 movzx	 ecx, BYTE PTR _pMsg$[ebp+1]
  0031c	8b 06		 mov	 eax, DWORD PTR [esi]
  0031e	51		 push	 ecx
  0031f	8d 55 ec	 lea	 edx, DWORD PTR _pMsg$[ebp]
  00322	52		 push	 edx
  00323	c6 45 ef 00	 mov	 BYTE PTR _pMsg$[ebp+3], 0
  00327	50		 push	 eax
$LN28@CherryBlos:
  00328	e8 00 00 00 00	 call	 ?DataSend@@YAHHPAEK@Z	; DataSend

; 5243 : 		lpObj->ChaosLock = FALSE;

  0032d	c7 86 88 0e 00
	00 00 00 00 00	 mov	 DWORD PTR [esi+3720], 0
$LN29@CherryBlos:

; 5318 : }

  00337	8b 4d fc	 mov	 ecx, DWORD PTR __$ArrayPad$[ebp]
  0033a	83 c4 0c	 add	 esp, 12			; 0000000cH
  0033d	5f		 pop	 edi
  0033e	5e		 pop	 esi
  0033f	33 cd		 xor	 ecx, ebp
  00341	5b		 pop	 ebx
  00342	e8 00 00 00 00	 call	 @__security_check_cookie@4
  00347	8b e5		 mov	 esp, ebp
  00349	5d		 pop	 ebp
  0034a	c2 04 00	 ret	 4
?CherryBlossomMix@CMixSystem@@QAEXPAUOBJECTSTRUCT@@@Z ENDP ; CMixSystem::CherryBlossomMix
_TEXT	ENDS
PUBLIC	??_C@_0DE@JCNMJOBM@?$FL?$CFs?$FN?$FL?$CFs?$FN?5Seed?5Extract?5Mix?5Failed@ ; `string'
PUBLIC	??_C@_0GC@HFAHDNLD@?$FL?$CFs?$FN?$FL?$CFs?$FN?5Seed?5Extract?5Mix?5Succes@ ; `string'
PUBLIC	??_C@_0CC@FJMAMNGP@?$FL?$CFs?$FN?$FL?$CFs?$FN?5Seed?5Extract?5Mix?5Failed@ ; `string'
PUBLIC	??_C@_0M@PHAOGDNK@SeedExtract?$AA@		; `string'
PUBLIC	__$ArrayPad$
PUBLIC	?SocketSeedExtract@CMixSystem@@QAEXPAUOBJECTSTRUCT@@@Z ; CMixSystem::SocketSeedExtract
EXTRN	?GetSeedData@CSocketOption@@QAEPAVCSeed@@E@Z:PROC ; CSocketOption::GetSeedData
EXTRN	?SortOptionIndex@CSocketOption@@QAEEXZ:PROC	; CSocketOption::SortOptionIndex
EXTRN	?g_SocketOption@@3VCSocketOption@@A:BYTE	; g_SocketOption
EXTRN	?g_iSeedZttractMoney@@3HA:DWORD			; g_iSeedZttractMoney
;	COMDAT ??_C@_0DE@JCNMJOBM@?$FL?$CFs?$FN?$FL?$CFs?$FN?5Seed?5Extract?5Mix?5Failed@
CONST	SEGMENT
??_C@_0DE@JCNMJOBM@?$FL?$CFs?$FN?$FL?$CFs?$FN?5Seed?5Extract?5Mix?5Failed@ DB '['
	DB	'%s][%s] Seed Extract Mix Failed - SeedData is NULL', 00H ; `string'
CONST	ENDS
;	COMDAT ??_C@_0GC@HFAHDNLD@?$FL?$CFs?$FN?$FL?$CFs?$FN?5Seed?5Extract?5Mix?5Succes@
CONST	SEGMENT
??_C@_0GC@HFAHDNLD@?$FL?$CFs?$FN?$FL?$CFs?$FN?5Seed?5Extract?5Mix?5Succes@ DB '['
	DB	'%s][%s] Seed Extract Mix Success - SeedInfo ( Index : %d, Typ'
	DB	'e : %d, Level : %d, ItemCode : %d )', 00H	; `string'
CONST	ENDS
;	COMDAT ??_C@_0CC@FJMAMNGP@?$FL?$CFs?$FN?$FL?$CFs?$FN?5Seed?5Extract?5Mix?5Failed@
CONST	SEGMENT
??_C@_0CC@FJMAMNGP@?$FL?$CFs?$FN?$FL?$CFs?$FN?5Seed?5Extract?5Mix?5Failed@ DB '['
	DB	'%s][%s] Seed Extract Mix Failed.', 00H	; `string'
CONST	ENDS
;	COMDAT ??_C@_0M@PHAOGDNK@SeedExtract?$AA@
CONST	SEGMENT
??_C@_0M@PHAOGDNK@SeedExtract?$AA@ DB 'SeedExtract', 00H ; `string'
; Function compile flags: /Ogtp
CONST	ENDS
;	COMDAT ?SocketSeedExtract@CMixSystem@@QAEXPAUOBJECTSTRUCT@@@Z
_TEXT	SEGMENT
_iExcItemCount$ = -72					; size = 4
_iHarmonyCount$ = -68					; size = 4
_SocketOptionIndex$ = -64				; size = 1
_this$ = -64						; size = 4
_iInvalidItemCount$ = -60				; size = 4
_iCreationItemNum$ = -56				; size = 4
_iSetItemNum$ = -52					; size = 4
_iChoasGemItemNum$ = -48				; size = 4
_iChoasGemCount$ = -44					; size = 4
_iHarmonyItemNum$ = -40					; size = 4
_iSetItemCount$ = -36					; size = 4
_iExcItemNum$ = -32					; size = 4
_iCreationGemCount$ = -28				; size = 4
_iChaosMoney$ = -24					; size = 4
_pMsg$ = -20						; size = 16
__$ArrayPad$ = -4					; size = 4
_lpObj$ = 8						; size = 4
?SocketSeedExtract@CMixSystem@@QAEXPAUOBJECTSTRUCT@@@Z PROC ; CMixSystem::SocketSeedExtract, COMDAT
; _this$ = ecx

; 5321 : {

  00000	55		 push	 ebp
  00001	8b ec		 mov	 ebp, esp
  00003	83 ec 48	 sub	 esp, 72			; 00000048H
  00006	a1 00 00 00 00	 mov	 eax, DWORD PTR ___security_cookie
  0000b	33 c5		 xor	 eax, ebp
  0000d	89 45 fc	 mov	 DWORD PTR __$ArrayPad$[ebp], eax
  00010	53		 push	 ebx
  00011	56		 push	 esi
  00012	8b 75 08	 mov	 esi, DWORD PTR _lpObj$[ebp]
  00015	57		 push	 edi

; 5322 : 	int iExcItemCount = 0; //2

  00016	33 ff		 xor	 edi, edi

; 5323 : 	int iSetItemCount = 0; //3
; 5324 : 	int iHarmonyCount = 0; //4
; 5325 : 	int iChoasGemCount = 0; //5
; 5326 : 	int iCreationGemCount = 0; //6
; 5327 : 	int iInvalidItemCount = 0; //7
; 5328 : 	int iSeedExtractRate = 0; //8
; 5329 : 	DWORD iChaosMoney = 0; //9
; 5330 : 	int iMixMoney = 0; //10
; 5331 : 	int iChaosTaxMoney = 0; //11
; 5332 : 	int iSetItemNum = 0; //12
; 5333 : 	int iExcItemNum = 0; //13
; 5334 : 	int iHarmonyItemNum = 0; //14
; 5335 : 	int iChoasGemItemNum = 0; //15
; 5336 : 	int iCreationItemNum = 0; //16
; 5337 : 
; 5338 : 	PMSG_CHAOSMIXRESULT pMsg; //loc19 and 20
; 5339 : 	PHeadSetB((LPBYTE)&pMsg.h, 0x86, sizeof(PMSG_CHAOSMIXRESULT));

  00018	6a 10		 push	 16			; 00000010H
  0001a	8d 45 ec	 lea	 eax, DWORD PTR _pMsg$[ebp]
  0001d	68 86 00 00 00	 push	 134			; 00000086H
  00022	50		 push	 eax
  00023	89 4d c0	 mov	 DWORD PTR _this$[ebp], ecx
  00026	89 7d b8	 mov	 DWORD PTR _iExcItemCount$[ebp], edi
  00029	89 7d dc	 mov	 DWORD PTR _iSetItemCount$[ebp], edi
  0002c	89 7d bc	 mov	 DWORD PTR _iHarmonyCount$[ebp], edi
  0002f	89 7d d4	 mov	 DWORD PTR _iChoasGemCount$[ebp], edi
  00032	89 7d e4	 mov	 DWORD PTR _iCreationGemCount$[ebp], edi
  00035	89 7d c4	 mov	 DWORD PTR _iInvalidItemCount$[ebp], edi
  00038	89 7d e8	 mov	 DWORD PTR _iChaosMoney$[ebp], edi
  0003b	89 7d cc	 mov	 DWORD PTR _iSetItemNum$[ebp], edi
  0003e	89 7d e0	 mov	 DWORD PTR _iExcItemNum$[ebp], edi
  00041	89 7d d8	 mov	 DWORD PTR _iHarmonyItemNum$[ebp], edi
  00044	89 7d d0	 mov	 DWORD PTR _iChoasGemItemNum$[ebp], edi
  00047	89 7d c8	 mov	 DWORD PTR _iCreationItemNum$[ebp], edi
  0004a	e8 00 00 00 00	 call	 ?PHeadSetB@@YAXPAEEH@Z	; PHeadSetB
  0004f	83 c4 0c	 add	 esp, 12			; 0000000cH

; 5340 : 	pMsg.Result = CB_ERROR;

  00052	c6 45 ef 00	 mov	 BYTE PTR _pMsg$[ebp+3], 0

; 5341 : 	lpObj->ChaosLock = TRUE;

  00056	c7 86 88 0e 00
	00 01 00 00 00	 mov	 DWORD PTR [esi+3720], 1

; 5344 : 	{
; 5345 : 		if ( lpObj->pChaosBox[n].IsItem() == TRUE )

  00060	33 db		 xor	 ebx, ebx
$LL22@SocketSeed:
  00062	8b 8e 78 0e 00
	00		 mov	 ecx, DWORD PTR [esi+3704]
  00068	03 cb		 add	 ecx, ebx
  0006a	e8 00 00 00 00	 call	 ?IsItem@CItem@@QAEHXZ	; CItem::IsItem
  0006f	83 f8 01	 cmp	 eax, 1
  00072	0f 85 a1 00 00
	00		 jne	 $LN21@SocketSeed

; 5346 : 		{
; 5347 : 			if ( lpObj->pChaosBox[n].IsExtItem() == TRUE && lpObj->pChaosBox[n].m_Level >= 4)

  00078	8b 8e 78 0e 00
	00		 mov	 ecx, DWORD PTR [esi+3704]
  0007e	03 cb		 add	 ecx, ebx
  00080	e8 00 00 00 00	 call	 ?IsExtItem@CItem@@QAEHXZ ; CItem::IsExtItem
  00085	83 f8 01	 cmp	 eax, 1
  00088	75 1d		 jne	 SHORT $LN18@SocketSeed
  0008a	8b 86 78 0e 00
	00		 mov	 eax, DWORD PTR [esi+3704]
  00090	66 83 7c 18 08
	04		 cmp	 WORD PTR [eax+ebx+8], 4
  00096	7c 0f		 jl	 SHORT $LN18@SocketSeed

; 5348 : 			{
; 5349 : 				iExcItemCount++;
; 5350 : 				iChaosMoney += lpObj->pChaosBox[n].m_BuyMoney;

  00098	8b 54 18 70	 mov	 edx, DWORD PTR [eax+ebx+112]
  0009c	ff 45 b8	 inc	 DWORD PTR _iExcItemCount$[ebp]
  0009f	01 55 e8	 add	 DWORD PTR _iChaosMoney$[ebp], edx

; 5351 : 				iExcItemNum = n;

  000a2	89 7d e0	 mov	 DWORD PTR _iExcItemNum$[ebp], edi
  000a5	eb 72		 jmp	 SHORT $LN21@SocketSeed
$LN18@SocketSeed:

; 5352 : 			}
; 5353 : 			else if ( lpObj->pChaosBox[n].IsSetItem() != FALSE && lpObj->pChaosBox[n].m_Level >= 4)

  000a7	8b 8e 78 0e 00
	00		 mov	 ecx, DWORD PTR [esi+3704]
  000ad	03 cb		 add	 ecx, ebx
  000af	e8 00 00 00 00	 call	 ?IsSetItem@CItem@@QAEHXZ ; CItem::IsSetItem
  000b4	85 c0		 test	 eax, eax
  000b6	74 1d		 je	 SHORT $LN16@SocketSeed
  000b8	8b 86 78 0e 00
	00		 mov	 eax, DWORD PTR [esi+3704]
  000be	66 83 7c 18 08
	04		 cmp	 WORD PTR [eax+ebx+8], 4
  000c4	7c 0f		 jl	 SHORT $LN16@SocketSeed

; 5354 : 			{
; 5355 : 				iSetItemCount++;
; 5356 : 				iChaosMoney += lpObj->pChaosBox[n].m_BuyMoney;

  000c6	8b 4c 18 70	 mov	 ecx, DWORD PTR [eax+ebx+112]
  000ca	ff 45 dc	 inc	 DWORD PTR _iSetItemCount$[ebp]
  000cd	01 4d e8	 add	 DWORD PTR _iChaosMoney$[ebp], ecx

; 5357 : 				iSetItemNum = n;

  000d0	89 7d cc	 mov	 DWORD PTR _iSetItemNum$[ebp], edi
  000d3	eb 44		 jmp	 SHORT $LN21@SocketSeed
$LN16@SocketSeed:

; 5358 : 			}
; 5359 : 			else if ( lpObj->pChaosBox[n].m_Type == ITEMGET(14,42) )

  000d5	8b 96 78 0e 00
	00		 mov	 edx, DWORD PTR [esi+3704]
  000db	0f b7 44 1a 06	 movzx	 eax, WORD PTR [edx+ebx+6]
  000e0	b9 2a 1c 00 00	 mov	 ecx, 7210		; 00001c2aH
  000e5	66 3b c1	 cmp	 ax, cx
  000e8	75 08		 jne	 SHORT $LN14@SocketSeed

; 5360 : 			{
; 5361 : 				iHarmonyCount++;

  000ea	ff 45 bc	 inc	 DWORD PTR _iHarmonyCount$[ebp]

; 5362 : 				iHarmonyItemNum = n;

  000ed	89 7d d8	 mov	 DWORD PTR _iHarmonyItemNum$[ebp], edi
  000f0	eb 27		 jmp	 SHORT $LN21@SocketSeed
$LN14@SocketSeed:

; 5363 : 			}
; 5364 : 			else if ( lpObj->pChaosBox[n].m_Type == ITEMGET(12,15) )

  000f2	ba 0f 18 00 00	 mov	 edx, 6159		; 0000180fH
  000f7	66 3b c2	 cmp	 ax, dx
  000fa	75 08		 jne	 SHORT $LN12@SocketSeed

; 5365 : 			{
; 5366 : 				iChoasGemCount++;

  000fc	ff 45 d4	 inc	 DWORD PTR _iChoasGemCount$[ebp]

; 5367 : 				iChoasGemItemNum = n;

  000ff	89 7d d0	 mov	 DWORD PTR _iChoasGemItemNum$[ebp], edi
  00102	eb 15		 jmp	 SHORT $LN21@SocketSeed
$LN12@SocketSeed:

; 5368 : 			}
; 5369 : 			else if ( lpObj->pChaosBox[n].m_Type == ITEMGET(14,22) )

  00104	b9 16 1c 00 00	 mov	 ecx, 7190		; 00001c16H
  00109	66 3b c1	 cmp	 ax, cx
  0010c	75 08		 jne	 SHORT $LN10@SocketSeed

; 5370 : 			{
; 5371 : 				iCreationGemCount++;

  0010e	ff 45 e4	 inc	 DWORD PTR _iCreationGemCount$[ebp]

; 5372 : 				iCreationItemNum = n;

  00111	89 7d c8	 mov	 DWORD PTR _iCreationItemNum$[ebp], edi

; 5373 : 			}
; 5374 : 			else

  00114	eb 03		 jmp	 SHORT $LN21@SocketSeed
$LN10@SocketSeed:

; 5375 : 			{
; 5376 : 				iInvalidItemCount++;

  00116	ff 45 c4	 inc	 DWORD PTR _iInvalidItemCount$[ebp]
$LN21@SocketSeed:

; 5342 : 
; 5343 : 	for ( int n=0;n<CHAOS_BOX_SIZE;n++) //loc21

  00119	81 c3 d4 00 00
	00		 add	 ebx, 212		; 000000d4H
  0011f	47		 inc	 edi
  00120	81 fb 80 1a 00
	00		 cmp	 ebx, 6784		; 00001a80H
  00126	0f 8c 36 ff ff
	ff		 jl	 $LL22@SocketSeed

; 5377 : 			}
; 5378 : 		}
; 5379 : 	}
; 5380 : 
; 5381 : 	if ( iInvalidItemCount > 0 )

  0012c	33 ff		 xor	 edi, edi
  0012e	39 7d c4	 cmp	 DWORD PTR _iInvalidItemCount$[ebp], edi
  00131	7e 31		 jle	 SHORT $LN8@SocketSeed
$LN27@SocketSeed:

; 5382 : 	{
; 5383 : 		pMsg.Result = 7;
; 5384 : 		DataSend(lpObj->m_Index, (LPBYTE)&pMsg, pMsg.h.size);

  00133	0f b6 55 ed	 movzx	 edx, BYTE PTR _pMsg$[ebp+1]
  00137	8b 0e		 mov	 ecx, DWORD PTR [esi]
  00139	52		 push	 edx
  0013a	8d 45 ec	 lea	 eax, DWORD PTR _pMsg$[ebp]
  0013d	50		 push	 eax
  0013e	51		 push	 ecx
  0013f	c6 45 ef 07	 mov	 BYTE PTR _pMsg$[ebp+3], 7
  00143	e8 00 00 00 00	 call	 ?DataSend@@YAHHPAEK@Z	; DataSend
  00148	83 c4 0c	 add	 esp, 12			; 0000000cH

; 5385 : 		lpObj->ChaosLock = FALSE;

  0014b	89 be 88 0e 00
	00		 mov	 DWORD PTR [esi+3720], edi
  00151	5f		 pop	 edi
  00152	5e		 pop	 esi
  00153	5b		 pop	 ebx

; 5468 : #endif
; 5469 : 	}
; 5470 : }

  00154	8b 4d fc	 mov	 ecx, DWORD PTR __$ArrayPad$[ebp]
  00157	33 cd		 xor	 ecx, ebp
  00159	e8 00 00 00 00	 call	 @__security_check_cookie@4
  0015e	8b e5		 mov	 esp, ebp
  00160	5d		 pop	 ebp
  00161	c2 04 00	 ret	 4
$LN8@SocketSeed:

; 5386 : 		return;
; 5387 : 	}
; 5388 : 
; 5389 : 	if(iExcItemCount != 1 && iSetItemCount != 1 && iHarmonyCount != 1 && iChoasGemCount != 1 && iCreationGemCount != 1)

  00164	b8 01 00 00 00	 mov	 eax, 1
  00169	39 45 b8	 cmp	 DWORD PTR _iExcItemCount$[ebp], eax
  0016c	74 14		 je	 SHORT $LN7@SocketSeed
  0016e	39 45 dc	 cmp	 DWORD PTR _iSetItemCount$[ebp], eax
  00171	74 0f		 je	 SHORT $LN7@SocketSeed
  00173	39 45 bc	 cmp	 DWORD PTR _iHarmonyCount$[ebp], eax
  00176	74 0a		 je	 SHORT $LN7@SocketSeed
  00178	39 45 d4	 cmp	 DWORD PTR _iChoasGemCount$[ebp], eax
  0017b	74 05		 je	 SHORT $LN7@SocketSeed
  0017d	39 45 e4	 cmp	 DWORD PTR _iCreationGemCount$[ebp], eax

; 5390 : 	{
; 5391 : 		pMsg.Result = 7;
; 5392 : 		DataSend(lpObj->m_Index, (LPBYTE)&pMsg, pMsg.h.size);
; 5393 : 		lpObj->ChaosLock = FALSE;
; 5394 : 		return;

  00180	75 b1		 jne	 SHORT $LN27@SocketSeed
$LN7@SocketSeed:

; 5395 : 	}
; 5396 : 
; 5397 : 	iChaosTaxMoney = (int)((__int64)g_iSeedZttractMoney * (__int64)g_CastleSiegeSync.GetTaxRateChaos(lpObj->m_Index) / (__int64)100);

  00182	8b 16		 mov	 edx, DWORD PTR [esi]
  00184	52		 push	 edx
  00185	b9 00 00 00 00	 mov	 ecx, OFFSET ?g_CastleSiegeSync@@3VCCastleSiegeSync@@A ; g_CastleSiegeSync
  0018a	e8 00 00 00 00	 call	 ?GetTaxRateChaos@CCastleSiegeSync@@QAEHH@Z ; CCastleSiegeSync::GetTaxRateChaos
  0018f	8b 1d 00 00 00
	00		 mov	 ebx, DWORD PTR ?g_iSeedZttractMoney@@3HA ; g_iSeedZttractMoney
  00195	f7 eb		 imul	 ebx
  00197	57		 push	 edi
  00198	6a 64		 push	 100			; 00000064H
  0019a	52		 push	 edx
  0019b	50		 push	 eax
  0019c	e8 00 00 00 00	 call	 __alldiv
  001a1	8b f8		 mov	 edi, eax

; 5398 : 
; 5399 : 	if ( iChaosTaxMoney < 0 )

  001a3	85 ff		 test	 edi, edi
  001a5	79 02		 jns	 SHORT $LN6@SocketSeed

; 5400 : 	{
; 5401 : 		iChaosTaxMoney = 0;

  001a7	33 ff		 xor	 edi, edi
$LN6@SocketSeed:

; 5402 : 	}
; 5403 : 
; 5404 : 	iMixMoney = g_iSeedZttractMoney + iChaosTaxMoney;

  001a9	03 df		 add	 ebx, edi

; 5405 : 
; 5406 : 	if ( lpObj->Money < iMixMoney )

  001ab	39 9e f0 00 00
	00		 cmp	 DWORD PTR [esi+240], ebx
  001b1	7d 35		 jge	 SHORT $LN5@SocketSeed

; 5407 : 	{
; 5408 : 		pMsg.Result = 2;
; 5409 : 		DataSend(lpObj->m_Index, (LPBYTE)&pMsg, pMsg.h.size);

  001b3	0f b6 45 ed	 movzx	 eax, BYTE PTR _pMsg$[ebp+1]
  001b7	8b 16		 mov	 edx, DWORD PTR [esi]
  001b9	50		 push	 eax
  001ba	8d 4d ec	 lea	 ecx, DWORD PTR _pMsg$[ebp]
  001bd	51		 push	 ecx
  001be	52		 push	 edx
  001bf	c6 45 ef 02	 mov	 BYTE PTR _pMsg$[ebp+3], 2
  001c3	e8 00 00 00 00	 call	 ?DataSend@@YAHHPAEK@Z	; DataSend
  001c8	83 c4 0c	 add	 esp, 12			; 0000000cH
  001cb	5f		 pop	 edi

; 5410 : 		lpObj->ChaosLock = FALSE;

  001cc	c7 86 88 0e 00
	00 00 00 00 00	 mov	 DWORD PTR [esi+3720], 0
  001d6	5e		 pop	 esi
  001d7	5b		 pop	 ebx

; 5468 : #endif
; 5469 : 	}
; 5470 : }

  001d8	8b 4d fc	 mov	 ecx, DWORD PTR __$ArrayPad$[ebp]
  001db	33 cd		 xor	 ecx, ebp
  001dd	e8 00 00 00 00	 call	 @__security_check_cookie@4
  001e2	8b e5		 mov	 esp, ebp
  001e4	5d		 pop	 ebp
  001e5	c2 04 00	 ret	 4
$LN5@SocketSeed:

; 5411 : 		return;
; 5412 : 	}
; 5413 : 
; 5414 : 	LogChaosItem(lpObj, "SeedExtract");

  001e8	8b 4d c0	 mov	 ecx, DWORD PTR _this$[ebp]
  001eb	68 00 00 00 00	 push	 OFFSET ??_C@_0M@PHAOGDNK@SeedExtract?$AA@
  001f0	56		 push	 esi
  001f1	e8 00 00 00 00	 call	 ?LogChaosItem@CMixSystem@@QAEXPAUOBJECTSTRUCT@@PAD@Z ; CMixSystem::LogChaosItem

; 5415 : 	lpObj->Money -= iMixMoney;

  001f6	29 9e f0 00 00
	00		 sub	 DWORD PTR [esi+240], ebx

; 5416 : 	g_CastleSiegeSync.AddTributeMoney(iChaosTaxMoney);

  001fc	57		 push	 edi
  001fd	b9 00 00 00 00	 mov	 ecx, OFFSET ?g_CastleSiegeSync@@3VCCastleSiegeSync@@A ; g_CastleSiegeSync
  00202	e8 00 00 00 00	 call	 ?AddTributeMoney@CCastleSiegeSync@@QAEXH@Z ; CCastleSiegeSync::AddTributeMoney

; 5417 : 	GCMoneySend(lpObj->m_Index, lpObj->Money);

  00207	8b 86 f0 00 00
	00		 mov	 eax, DWORD PTR [esi+240]
  0020d	8b 0e		 mov	 ecx, DWORD PTR [esi]
  0020f	50		 push	 eax
  00210	51		 push	 ecx
  00211	e8 00 00 00 00	 call	 ?GCMoneySend@@YAXHK@Z	; GCMoneySend

; 5418 : 
; 5419 : 	iSeedExtractRate = 80 + (iChaosMoney / 2000000);

  00216	b8 83 de 1b 43	 mov	 eax, 1125899907		; 431bde83H
  0021b	f7 65 e8	 mul	 DWORD PTR _iChaosMoney$[ebp]
  0021e	8b fa		 mov	 edi, edx
  00220	c1 ef 13	 shr	 edi, 19			; 00000013H
  00223	83 c7 50	 add	 edi, 80			; 00000050H
  00226	83 c4 08	 add	 esp, 8

; 5420 : 
; 5421 : 	if( iSeedExtractRate > 90 )

  00229	83 ff 5a	 cmp	 edi, 90			; 0000005aH
  0022c	7e 05		 jle	 SHORT $LN4@SocketSeed

; 5422 : 	{
; 5423 : 		iSeedExtractRate = 90;

  0022e	bf 5a 00 00 00	 mov	 edi, 90			; 0000005aH
$LN4@SocketSeed:

; 5424 : 	}
; 5425 : 
; 5426 : 	if(rand()%100 > iSeedExtractRate) //fail rate

  00233	e8 00 00 00 00	 call	 _rand
  00238	99		 cdq
  00239	b9 64 00 00 00	 mov	 ecx, 100		; 00000064H
  0023e	f7 f9		 idiv	 ecx
  00240	3b d7		 cmp	 edx, edi
  00242	0f 8e ce 00 00
	00		 jle	 $LN3@SocketSeed

; 5427 : 	{
; 5428 : 		lpObj->pChaosBox[iSetItemNum].m_Level -= rand()%3;

  00248	8b 45 cc	 mov	 eax, DWORD PTR _iSetItemNum$[ebp]
  0024b	8b 96 78 0e 00
	00		 mov	 edx, DWORD PTR [esi+3704]
  00251	69 c0 d4 00 00
	00		 imul	 eax, 212		; 000000d4H
  00257	8d 7c 10 08	 lea	 edi, DWORD PTR [eax+edx+8]
  0025b	e8 00 00 00 00	 call	 _rand
  00260	99		 cdq
  00261	b9 03 00 00 00	 mov	 ecx, 3
  00266	f7 f9		 idiv	 ecx

; 5429 : 		lpObj->pChaosBox[iExcItemNum].m_Level -= rand()%3;

  00268	8b 45 e0	 mov	 eax, DWORD PTR _iExcItemNum$[ebp]
  0026b	69 c0 d4 00 00
	00		 imul	 eax, 212		; 000000d4H
  00271	66 29 17	 sub	 WORD PTR [edi], dx
  00274	8b 96 78 0e 00
	00		 mov	 edx, DWORD PTR [esi+3704]
  0027a	8d 7c 10 08	 lea	 edi, DWORD PTR [eax+edx+8]
  0027e	e8 00 00 00 00	 call	 _rand
  00283	99		 cdq
  00284	b9 03 00 00 00	 mov	 ecx, 3
  00289	f7 f9		 idiv	 ecx

; 5430 : 		lpObj->pChaosBox[iHarmonyItemNum].Clear();

  0028b	8b 4d d8	 mov	 ecx, DWORD PTR _iHarmonyItemNum$[ebp]
  0028e	69 c9 d4 00 00
	00		 imul	 ecx, 212		; 000000d4H
  00294	66 29 17	 sub	 WORD PTR [edi], dx
  00297	03 8e 78 0e 00
	00		 add	 ecx, DWORD PTR [esi+3704]
  0029d	e8 00 00 00 00	 call	 ?Clear@CItem@@QAEXXZ	; CItem::Clear

; 5431 : 		lpObj->pChaosBox[iChoasGemItemNum].Clear();

  002a2	8b 4d d0	 mov	 ecx, DWORD PTR _iChoasGemItemNum$[ebp]
  002a5	69 c9 d4 00 00
	00		 imul	 ecx, 212		; 000000d4H
  002ab	03 8e 78 0e 00
	00		 add	 ecx, DWORD PTR [esi+3704]
  002b1	e8 00 00 00 00	 call	 ?Clear@CItem@@QAEXXZ	; CItem::Clear

; 5432 : 		lpObj->pChaosBox[iCreationItemNum].Clear();

  002b6	8b 4d c8	 mov	 ecx, DWORD PTR _iCreationItemNum$[ebp]
  002b9	69 c9 d4 00 00
	00		 imul	 ecx, 212		; 000000d4H
  002bf	03 8e 78 0e 00
	00		 add	 ecx, DWORD PTR [esi+3704]
  002c5	e8 00 00 00 00	 call	 ?Clear@CItem@@QAEXXZ	; CItem::Clear

; 5433 : 		GCUserChaosBoxSend(lpObj, 0);

  002ca	6a 00		 push	 0
  002cc	56		 push	 esi
  002cd	e8 00 00 00 00	 call	 ?GCUserChaosBoxSend@@YAXPAUOBJECTSTRUCT@@H@Z ; GCUserChaosBoxSend

; 5434 : 		DataSend(lpObj->m_Index, (LPBYTE)&pMsg, pMsg.h.size);

  002d2	0f b6 55 ed	 movzx	 edx, BYTE PTR _pMsg$[ebp+1]
  002d6	8b 0e		 mov	 ecx, DWORD PTR [esi]
  002d8	52		 push	 edx
  002d9	8d 45 ec	 lea	 eax, DWORD PTR _pMsg$[ebp]
  002dc	50		 push	 eax
  002dd	51		 push	 ecx
  002de	e8 00 00 00 00	 call	 ?DataSend@@YAHHPAEK@Z	; DataSend

; 5435 : 		lpObj->ChaosLock = FALSE;
; 5436 : 		LogAddTD("[%s][%s] Seed Extract Mix Failed.", lpObj->AccountID, lpObj->Name);

  002e3	8d 56 77	 lea	 edx, DWORD PTR [esi+119]
  002e6	c7 86 88 0e 00
	00 00 00 00 00	 mov	 DWORD PTR [esi+3720], 0
  002f0	52		 push	 edx
  002f1	83 c6 6c	 add	 esi, 108		; 0000006cH
  002f4	56		 push	 esi
  002f5	68 00 00 00 00	 push	 OFFSET ??_C@_0CC@FJMAMNGP@?$FL?$CFs?$FN?$FL?$CFs?$FN?5Seed?5Extract?5Mix?5Failed@
  002fa	ff 15 00 00 00
	00		 call	 DWORD PTR ?LogAddTD@@3P6AXPADZZA ; LogAddTD
  00300	83 c4 20	 add	 esp, 32			; 00000020H
  00303	5f		 pop	 edi
  00304	5e		 pop	 esi
  00305	5b		 pop	 ebx

; 5468 : #endif
; 5469 : 	}
; 5470 : }

  00306	8b 4d fc	 mov	 ecx, DWORD PTR __$ArrayPad$[ebp]
  00309	33 cd		 xor	 ecx, ebp
  0030b	e8 00 00 00 00	 call	 @__security_check_cookie@4
  00310	8b e5		 mov	 esp, ebp
  00312	5d		 pop	 ebp
  00313	c2 04 00	 ret	 4
$LN3@SocketSeed:

; 5437 : 		return;
; 5438 : 	}
; 5439 : 
; 5440 : 	BYTE SocketOptionIndex = 0;
; 5441 : 	SocketOptionIndex = g_SocketOption.SortOptionIndex(); //Sort Seed :)

  00316	b9 00 00 00 00	 mov	 ecx, OFFSET ?g_SocketOption@@3VCSocketOption@@A ; g_SocketOption
  0031b	e8 00 00 00 00	 call	 ?SortOptionIndex@CSocketOption@@QAEEXZ ; CSocketOption::SortOptionIndex
  00320	88 45 c0	 mov	 BYTE PTR _SocketOptionIndex$[ebp], al

; 5442 : 	CSeed * SeedData = g_SocketOption.GetSeedData(SocketOptionIndex);

  00323	8b 45 c0	 mov	 eax, DWORD PTR _SocketOptionIndex$[ebp]
  00326	50		 push	 eax
  00327	b9 00 00 00 00	 mov	 ecx, OFFSET ?g_SocketOption@@3VCSocketOption@@A ; g_SocketOption
  0032c	e8 00 00 00 00	 call	 ?GetSeedData@CSocketOption@@QAEPAVCSeed@@E@Z ; CSocketOption::GetSeedData
  00331	8b f8		 mov	 edi, eax

; 5443 : 
; 5444 : 	if(SeedData != NULL)

  00333	85 ff		 test	 edi, edi
  00335	74 7b		 je	 SHORT $LN2@SocketSeed

; 5445 : 	{
; 5446 : 		pMsg.Result = 1;
; 5447 : 		ItemSerialCreateSend(lpObj->m_Index, 0xFF, 0, 0, SeedData->m_iItemIndex, (BYTE)SeedData->m_btItemLevel, 1, 0, 0, 0, lpObj->m_Index, 0, 0);

  00337	8b 06		 mov	 eax, DWORD PTR [esi]
  00339	6a 00		 push	 0
  0033b	6a 00		 push	 0
  0033d	50		 push	 eax
  0033e	6a 00		 push	 0
  00340	6a 00		 push	 0
  00342	6a 00		 push	 0
  00344	c6 45 ef 01	 mov	 BYTE PTR _pMsg$[ebp+3], 1
  00348	0f b6 4f 02	 movzx	 ecx, BYTE PTR [edi+2]
  0034c	8b 57 0c	 mov	 edx, DWORD PTR [edi+12]
  0034f	6a 01		 push	 1
  00351	51		 push	 ecx
  00352	52		 push	 edx
  00353	6a 00		 push	 0
  00355	6a 00		 push	 0
  00357	68 ff 00 00 00	 push	 255			; 000000ffH
  0035c	50		 push	 eax
  0035d	e8 00 00 00 00	 call	 ?ItemSerialCreateSend@@YAXHEEEHEEEEEHEE@Z ; ItemSerialCreateSend

; 5448 : 		gObjInventoryCommit(lpObj->m_Index);

  00362	8b 06		 mov	 eax, DWORD PTR [esi]
  00364	50		 push	 eax
  00365	e8 00 00 00 00	 call	 ?gObjInventoryCommit@@YAHH@Z ; gObjInventoryCommit

; 5449 : 		LogAddTD("[%s][%s] Seed Extract Mix Success - SeedInfo ( Index : %d, Type : %d, Level : %d, ItemCode : %d )",
; 5450 : 		lpObj->AccountID, lpObj->Name, SeedData->m_btOptionIndex, SeedData->m_btElementIndex, SeedData->m_btItemLevel, SeedData->m_iItemIndex);

  0036a	8b 4f 0c	 mov	 ecx, DWORD PTR [edi+12]
  0036d	0f b6 57 02	 movzx	 edx, BYTE PTR [edi+2]
  00371	0f b6 47 01	 movzx	 eax, BYTE PTR [edi+1]
  00375	51		 push	 ecx
  00376	0f b6 0f	 movzx	 ecx, BYTE PTR [edi]
  00379	52		 push	 edx
  0037a	50		 push	 eax
  0037b	51		 push	 ecx
  0037c	8d 56 77	 lea	 edx, DWORD PTR [esi+119]
  0037f	52		 push	 edx
  00380	8d 46 6c	 lea	 eax, DWORD PTR [esi+108]
  00383	50		 push	 eax
  00384	68 00 00 00 00	 push	 OFFSET ??_C@_0GC@HFAHDNLD@?$FL?$CFs?$FN?$FL?$CFs?$FN?5Seed?5Extract?5Mix?5Succes@
  00389	ff 15 00 00 00
	00		 call	 DWORD PTR ?LogAddTD@@3P6AXPADZZA ; LogAddTD

; 5451 : 
; 5452 : #if(SYSTEM_ACHIEVEMENTS)
; 5453 : 		g_Achievements.SuccessChaosMix(lpObj->m_Index);

  0038f	8b 0e		 mov	 ecx, DWORD PTR [esi]
  00391	83 c4 54	 add	 esp, 84			; 00000054H
  00394	51		 push	 ecx
  00395	b9 00 00 00 00	 mov	 ecx, OFFSET ?g_Achievements@@3VCAchievements@@A ; g_Achievements
  0039a	e8 00 00 00 00	 call	 ?SuccessChaosMix@CAchievements@@QAEXH@Z ; CAchievements::SuccessChaosMix
  0039f	5f		 pop	 edi
  003a0	5e		 pop	 esi
  003a1	5b		 pop	 ebx

; 5468 : #endif
; 5469 : 	}
; 5470 : }

  003a2	8b 4d fc	 mov	 ecx, DWORD PTR __$ArrayPad$[ebp]
  003a5	33 cd		 xor	 ecx, ebp
  003a7	e8 00 00 00 00	 call	 @__security_check_cookie@4
  003ac	8b e5		 mov	 esp, ebp
  003ae	5d		 pop	 ebp
  003af	c2 04 00	 ret	 4
$LN2@SocketSeed:

; 5454 : #endif	
; 5455 : 	}
; 5456 : 	else
; 5457 : 	{
; 5458 : 		lpObj->pChaosBox[iSetItemNum].m_Level -= rand()%3;

  003b2	8b 45 cc	 mov	 eax, DWORD PTR _iSetItemNum$[ebp]
  003b5	8b 96 78 0e 00
	00		 mov	 edx, DWORD PTR [esi+3704]
  003bb	69 c0 d4 00 00
	00		 imul	 eax, 212		; 000000d4H
  003c1	8d 7c 10 08	 lea	 edi, DWORD PTR [eax+edx+8]
  003c5	e8 00 00 00 00	 call	 _rand
  003ca	99		 cdq
  003cb	b9 03 00 00 00	 mov	 ecx, 3
  003d0	f7 f9		 idiv	 ecx

; 5459 : 		lpObj->pChaosBox[iExcItemNum].m_Level -= rand()%3;

  003d2	8b 45 e0	 mov	 eax, DWORD PTR _iExcItemNum$[ebp]
  003d5	69 c0 d4 00 00
	00		 imul	 eax, 212		; 000000d4H
  003db	66 29 17	 sub	 WORD PTR [edi], dx
  003de	8b 96 78 0e 00
	00		 mov	 edx, DWORD PTR [esi+3704]
  003e4	8d 7c 10 08	 lea	 edi, DWORD PTR [eax+edx+8]
  003e8	e8 00 00 00 00	 call	 _rand
  003ed	99		 cdq
  003ee	b9 03 00 00 00	 mov	 ecx, 3
  003f3	f7 f9		 idiv	 ecx

; 5460 : 		lpObj->pChaosBox[iHarmonyItemNum].Clear();

  003f5	8b 4d d8	 mov	 ecx, DWORD PTR _iHarmonyItemNum$[ebp]
  003f8	69 c9 d4 00 00
	00		 imul	 ecx, 212		; 000000d4H
  003fe	66 29 17	 sub	 WORD PTR [edi], dx
  00401	03 8e 78 0e 00
	00		 add	 ecx, DWORD PTR [esi+3704]
  00407	e8 00 00 00 00	 call	 ?Clear@CItem@@QAEXXZ	; CItem::Clear

; 5461 : 		lpObj->pChaosBox[iChoasGemItemNum].Clear();

  0040c	8b 4d d0	 mov	 ecx, DWORD PTR _iChoasGemItemNum$[ebp]
  0040f	69 c9 d4 00 00
	00		 imul	 ecx, 212		; 000000d4H
  00415	03 8e 78 0e 00
	00		 add	 ecx, DWORD PTR [esi+3704]
  0041b	e8 00 00 00 00	 call	 ?Clear@CItem@@QAEXXZ	; CItem::Clear

; 5462 : 		lpObj->pChaosBox[iCreationItemNum].Clear();

  00420	8b 4d c8	 mov	 ecx, DWORD PTR _iCreationItemNum$[ebp]
  00423	69 c9 d4 00 00
	00		 imul	 ecx, 212		; 000000d4H
  00429	03 8e 78 0e 00
	00		 add	 ecx, DWORD PTR [esi+3704]
  0042f	e8 00 00 00 00	 call	 ?Clear@CItem@@QAEXXZ	; CItem::Clear

; 5463 : 		GCUserChaosBoxSend(lpObj, 0);

  00434	6a 00		 push	 0
  00436	56		 push	 esi
  00437	e8 00 00 00 00	 call	 ?GCUserChaosBoxSend@@YAXPAUOBJECTSTRUCT@@H@Z ; GCUserChaosBoxSend

; 5464 : 		LogAddTD("[%s][%s] Seed Extract Mix Failed - SeedData is NULL", lpObj->AccountID, lpObj->Name);

  0043c	8d 56 77	 lea	 edx, DWORD PTR [esi+119]
  0043f	52		 push	 edx
  00440	8d 46 6c	 lea	 eax, DWORD PTR [esi+108]
  00443	50		 push	 eax
  00444	68 00 00 00 00	 push	 OFFSET ??_C@_0DE@JCNMJOBM@?$FL?$CFs?$FN?$FL?$CFs?$FN?5Seed?5Extract?5Mix?5Failed@
  00449	ff 15 00 00 00
	00		 call	 DWORD PTR ?LogAddTD@@3P6AXPADZZA ; LogAddTD

; 5465 : 		lpObj->ChaosLock = FALSE;
; 5466 : #if(SYSTEM_ACHIEVEMENTS)
; 5467 : 		g_Achievements.FailedChaosMix(lpObj->m_Index);

  0044f	8b 0e		 mov	 ecx, DWORD PTR [esi]
  00451	83 c4 14	 add	 esp, 20			; 00000014H
  00454	51		 push	 ecx
  00455	b9 00 00 00 00	 mov	 ecx, OFFSET ?g_Achievements@@3VCAchievements@@A ; g_Achievements
  0045a	c7 86 88 0e 00
	00 00 00 00 00	 mov	 DWORD PTR [esi+3720], 0
  00464	e8 00 00 00 00	 call	 ?FailedChaosMix@CAchievements@@QAEXH@Z ; CAchievements::FailedChaosMix

; 5468 : #endif
; 5469 : 	}
; 5470 : }

  00469	8b 4d fc	 mov	 ecx, DWORD PTR __$ArrayPad$[ebp]
  0046c	5f		 pop	 edi
  0046d	5e		 pop	 esi
  0046e	33 cd		 xor	 ecx, ebp
  00470	5b		 pop	 ebx
  00471	e8 00 00 00 00	 call	 @__security_check_cookie@4
  00476	8b e5		 mov	 esp, ebp
  00478	5d		 pop	 ebp
  00479	c2 04 00	 ret	 4
?SocketSeedExtract@CMixSystem@@QAEXPAUOBJECTSTRUCT@@@Z ENDP ; CMixSystem::SocketSeedExtract
_TEXT	ENDS
PUBLIC	??_C@_0ED@CPANCMOB@?$FL?$CFs?$FN?$FL?$CFs?$FN?5SeedSphere?5Composite?5Mi@ ; `string'
PUBLIC	??_C@_0HB@BGNJLNEH@?$FL?$CFs?$FN?$FL?$CFs?$FN?5SeedSphere?5Composite?5Mi@ ; `string'
PUBLIC	??_C@_0CK@CENILOLB@?$FL?$CFs?$FN?$FL?$CFs?$FN?5SeedSphere?5Composite?5Mi@ ; `string'
PUBLIC	??_C@_0BE@GFFNMAOC@SeedSphereComposite?$AA@	; `string'
PUBLIC	__$ArrayPad$
PUBLIC	?SocketSeedSphereComposite@CMixSystem@@QAEXPAUOBJECTSTRUCT@@@Z ; CMixSystem::SocketSeedSphereComposite
EXTRN	??1CSeedSphere@@QAE@XZ:PROC			; CSeedSphere::~CSeedSphere
EXTRN	?SetSeedSphereData@CSocketOption@@QAEEPAVCSeedSphere@@EE@Z:PROC ; CSocketOption::SetSeedSphereData
EXTRN	?GetSphereLevel@CSocketOption@@QAEEH@Z:PROC	; CSocketOption::GetSphereLevel
EXTRN	?GetSeedOptionIndex@CSocketOption@@QAEEHE@Z:PROC ; CSocketOption::GetSeedOptionIndex
EXTRN	??0CSeedSphere@@QAE@XZ:PROC			; CSeedSphere::CSeedSphere
EXTRN	?g_iSeedSphereCompositeMoney@@3HA:DWORD		; g_iSeedSphereCompositeMoney
EXTRN	?IsSeedItem@CSocketOption@@QAEEH@Z:PROC		; CSocketOption::IsSeedItem
EXTRN	?IsSeedSphereItem@CSocketOption@@QAEEH@Z:PROC	; CSocketOption::IsSeedSphereItem
;	COMDAT ??_C@_0ED@CPANCMOB@?$FL?$CFs?$FN?$FL?$CFs?$FN?5SeedSphere?5Composite?5Mi@
CONST	SEGMENT
??_C@_0ED@CPANCMOB@?$FL?$CFs?$FN?$FL?$CFs?$FN?5SeedSphere?5Composite?5Mi@ DB '['
	DB	'%s][%s] SeedSphere Composite Mix Failed - SeedSphere Data is '
	DB	'NULL', 00H					; `string'
CONST	ENDS
;	COMDAT ??_C@_0HB@BGNJLNEH@?$FL?$CFs?$FN?$FL?$CFs?$FN?5SeedSphere?5Composite?5Mi@
CONST	SEGMENT
??_C@_0HB@BGNJLNEH@?$FL?$CFs?$FN?$FL?$CFs?$FN?5SeedSphere?5Composite?5Mi@ DB '['
	DB	'%s][%s] SeedSphere Composite Mix Success - SeedSphere Info ( '
	DB	'Index : %d, Type : %d, Level : %d, ItemCode : %d )', 00H ; `string'
CONST	ENDS
;	COMDAT ??_C@_0CK@CENILOLB@?$FL?$CFs?$FN?$FL?$CFs?$FN?5SeedSphere?5Composite?5Mi@
CONST	SEGMENT
??_C@_0CK@CENILOLB@?$FL?$CFs?$FN?$FL?$CFs?$FN?5SeedSphere?5Composite?5Mi@ DB '['
	DB	'%s][%s] SeedSphere Composite Mix Failed.', 00H ; `string'
CONST	ENDS
;	COMDAT ??_C@_0BE@GFFNMAOC@SeedSphereComposite?$AA@
CONST	SEGMENT
??_C@_0BE@GFFNMAOC@SeedSphereComposite?$AA@ DB 'SeedSphereComposite', 00H ; `string'
CONST	ENDS
;	COMDAT xdata$x
xdata$x	SEGMENT
__unwindtable$?SocketSeedSphereComposite@CMixSystem@@QAEXPAUOBJECTSTRUCT@@@Z DD 0ffffffffH
	DD	FLAT:__unwindfunclet$?SocketSeedSphereComposite@CMixSystem@@QAEXPAUOBJECTSTRUCT@@@Z$0
__ehfuncinfo$?SocketSeedSphereComposite@CMixSystem@@QAEXPAUOBJECTSTRUCT@@@Z DD 019930522H
	DD	01H
	DD	FLAT:__unwindtable$?SocketSeedSphereComposite@CMixSystem@@QAEXPAUOBJECTSTRUCT@@@Z
	DD	2 DUP(00H)
	DD	2 DUP(00H)
	DD	00H
	DD	01H
; Function compile flags: /Ogtp
xdata$x	ENDS
;	COMDAT ?SocketSeedSphereComposite@CMixSystem@@QAEXPAUOBJECTSTRUCT@@@Z
_TEXT	SEGMENT
_SeedSphere$219790 = -80				; size = 16
_iChoasGemCount$ = -64					; size = 4
_iSeedSphereItemCount$ = -60				; size = 4
_iSeedItemCount$ = -56					; size = 4
_iInvalidItemCount$ = -52				; size = 4
_this$ = -48						; size = 4
_OptionIndex$219788 = -44				; size = 1
_pSeedSphere$ = -44					; size = 4
_SphereLevel$219789 = -40				; size = 1
_pSeed$ = -40						; size = 4
_iMixMoney$ = -36					; size = 4
_iCreationGemCount$ = -36				; size = 4
_pMsg$ = -32						; size = 16
__$ArrayPad$ = -16					; size = 4
__$EHRec$ = -12						; size = 12
_lpObj$ = 8						; size = 4
?SocketSeedSphereComposite@CMixSystem@@QAEXPAUOBJECTSTRUCT@@@Z PROC ; CMixSystem::SocketSeedSphereComposite, COMDAT
; _this$ = ecx

; 5473 : {

  00000	55		 push	 ebp
  00001	8b ec		 mov	 ebp, esp
  00003	6a ff		 push	 -1
  00005	68 00 00 00 00	 push	 __ehhandler$?SocketSeedSphereComposite@CMixSystem@@QAEXPAUOBJECTSTRUCT@@@Z
  0000a	64 a1 00 00 00
	00		 mov	 eax, DWORD PTR fs:0
  00010	50		 push	 eax
  00011	83 ec 44	 sub	 esp, 68			; 00000044H
  00014	a1 00 00 00 00	 mov	 eax, DWORD PTR ___security_cookie
  00019	33 c5		 xor	 eax, ebp
  0001b	89 45 f0	 mov	 DWORD PTR __$ArrayPad$[ebp], eax
  0001e	53		 push	 ebx
  0001f	56		 push	 esi
  00020	57		 push	 edi
  00021	50		 push	 eax
  00022	8d 45 f4	 lea	 eax, DWORD PTR __$EHRec$[ebp]
  00025	64 a3 00 00 00
	00		 mov	 DWORD PTR fs:0, eax
  0002b	89 4d d0	 mov	 DWORD PTR _this$[ebp], ecx
  0002e	8b 75 08	 mov	 esi, DWORD PTR _lpObj$[ebp]

; 5474 : 	int iSeedSphereItemCount = 0; //2

  00031	33 ff		 xor	 edi, edi

; 5475 : 	int iSeedItemCount = 0; //3
; 5476 : 	int iInvalidItemCount = 0; //4
; 5477 : 	int iChoasGemCount = 0; //5
; 5478 : 	int iCreationGemCount = 0; //6
; 5479 : 	int iChaosTaxMoney = 0; //7
; 5480 : 	int iMixMoney = 0; //8
; 5481 : 	DWORD iChaosMoney = 0; //9
; 5482 : 	int iSeedSphereCompositeRate = 0; //10
; 5483 : 	CItem * pSeedSphere = NULL; //11
; 5484 : 	CItem * pSeed = NULL; //12
; 5485 : 
; 5486 : 	PMSG_CHAOSMIXRESULT pMsg;
; 5487 : 	PHeadSetB((LPBYTE)&pMsg.h, 0x86, sizeof(PMSG_CHAOSMIXRESULT));

  00033	6a 10		 push	 16			; 00000010H
  00035	8d 45 e0	 lea	 eax, DWORD PTR _pMsg$[ebp]
  00038	68 86 00 00 00	 push	 134			; 00000086H
  0003d	50		 push	 eax
  0003e	89 7d c4	 mov	 DWORD PTR _iSeedSphereItemCount$[ebp], edi
  00041	89 7d c8	 mov	 DWORD PTR _iSeedItemCount$[ebp], edi
  00044	89 7d cc	 mov	 DWORD PTR _iInvalidItemCount$[ebp], edi
  00047	89 7d c0	 mov	 DWORD PTR _iChoasGemCount$[ebp], edi
  0004a	89 7d dc	 mov	 DWORD PTR _iCreationGemCount$[ebp], edi
  0004d	89 7d d4	 mov	 DWORD PTR _pSeedSphere$[ebp], edi
  00050	89 7d d8	 mov	 DWORD PTR _pSeed$[ebp], edi
  00053	e8 00 00 00 00	 call	 ?PHeadSetB@@YAXPAEEH@Z	; PHeadSetB
  00058	83 c4 0c	 add	 esp, 12			; 0000000cH

; 5488 : 	pMsg.Result = CB_ERROR;

  0005b	c6 45 e3 00	 mov	 BYTE PTR _pMsg$[ebp+3], 0

; 5489 : 	lpObj->ChaosLock = TRUE;

  0005f	c7 86 88 0e 00
	00 01 00 00 00	 mov	 DWORD PTR [esi+3720], 1

; 5492 : 	{
; 5493 : 		if ( lpObj->pChaosBox[n].IsItem() == TRUE )

  00069	33 db		 xor	 ebx, ebx
  0006b	eb 03 8d 49 00	 npad	 5
$LL20@SocketSeed@2:
  00070	8b 8e 78 0e 00
	00		 mov	 ecx, DWORD PTR [esi+3704]
  00076	03 cb		 add	 ecx, ebx
  00078	e8 00 00 00 00	 call	 ?IsItem@CItem@@QAEHXZ	; CItem::IsItem
  0007d	83 f8 01	 cmp	 eax, 1
  00080	0f 85 86 00 00
	00		 jne	 $LN19@SocketSeed@2

; 5494 : 		{
; 5495 : 			if( g_SocketOption.IsSeedSphereItem(lpObj->pChaosBox[n].m_Type) == 1)

  00086	8b 8e 78 0e 00
	00		 mov	 ecx, DWORD PTR [esi+3704]
  0008c	0f bf 54 19 06	 movsx	 edx, WORD PTR [ecx+ebx+6]
  00091	52		 push	 edx
  00092	b9 00 00 00 00	 mov	 ecx, OFFSET ?g_SocketOption@@3VCSocketOption@@A ; g_SocketOption
  00097	e8 00 00 00 00	 call	 ?IsSeedSphereItem@CSocketOption@@QAEEH@Z ; CSocketOption::IsSeedSphereItem
  0009c	3c 01		 cmp	 al, 1
  0009e	75 13		 jne	 SHORT $LN16@SocketSeed@2

; 5496 : 			{
; 5497 : 				iSeedSphereItemCount++;
; 5498 : 				iChaosMoney += lpObj->pChaosBox[n].m_BuyMoney;

  000a0	8b 86 78 0e 00
	00		 mov	 eax, DWORD PTR [esi+3704]
  000a6	ff 45 c4	 inc	 DWORD PTR _iSeedSphereItemCount$[ebp]
  000a9	03 c3		 add	 eax, ebx
  000ab	03 78 70	 add	 edi, DWORD PTR [eax+112]

; 5499 : 				pSeedSphere = &lpObj->pChaosBox[n];

  000ae	89 45 d4	 mov	 DWORD PTR _pSeedSphere$[ebp], eax
  000b1	eb 59		 jmp	 SHORT $LN19@SocketSeed@2
$LN16@SocketSeed@2:

; 5500 : 			}
; 5501 : 			else if( g_SocketOption.IsSeedItem(lpObj->pChaosBox[n].m_Type) == 1)

  000b3	8b 8e 78 0e 00
	00		 mov	 ecx, DWORD PTR [esi+3704]
  000b9	0f bf 54 19 06	 movsx	 edx, WORD PTR [ecx+ebx+6]
  000be	52		 push	 edx
  000bf	b9 00 00 00 00	 mov	 ecx, OFFSET ?g_SocketOption@@3VCSocketOption@@A ; g_SocketOption
  000c4	e8 00 00 00 00	 call	 ?IsSeedItem@CSocketOption@@QAEEH@Z ; CSocketOption::IsSeedItem
  000c9	3c 01		 cmp	 al, 1
  000cb	75 13		 jne	 SHORT $LN14@SocketSeed@2

; 5502 : 			{
; 5503 : 				iSeedItemCount++;
; 5504 : 				iChaosMoney += lpObj->pChaosBox[n].m_BuyMoney;

  000cd	8b 86 78 0e 00
	00		 mov	 eax, DWORD PTR [esi+3704]
  000d3	ff 45 c8	 inc	 DWORD PTR _iSeedItemCount$[ebp]
  000d6	03 c3		 add	 eax, ebx
  000d8	03 78 70	 add	 edi, DWORD PTR [eax+112]

; 5505 : 				pSeed = &lpObj->pChaosBox[n];

  000db	89 45 d8	 mov	 DWORD PTR _pSeed$[ebp], eax
  000de	eb 2c		 jmp	 SHORT $LN19@SocketSeed@2
$LN14@SocketSeed@2:

; 5506 : 			}
; 5507 : 			else if ( lpObj->pChaosBox[n].m_Type == ITEMGET(12,15) )

  000e0	8b 8e 78 0e 00
	00		 mov	 ecx, DWORD PTR [esi+3704]
  000e6	0f b7 44 19 06	 movzx	 eax, WORD PTR [ecx+ebx+6]
  000eb	ba 0f 18 00 00	 mov	 edx, 6159		; 0000180fH
  000f0	66 3b c2	 cmp	 ax, dx
  000f3	75 05		 jne	 SHORT $LN12@SocketSeed@2

; 5508 : 			{
; 5509 : 				iChoasGemCount++;

  000f5	ff 45 c0	 inc	 DWORD PTR _iChoasGemCount$[ebp]
  000f8	eb 12		 jmp	 SHORT $LN19@SocketSeed@2
$LN12@SocketSeed@2:

; 5510 : 			}
; 5511 : 			else if ( lpObj->pChaosBox[n].m_Type == ITEMGET(14,22) )

  000fa	b9 16 1c 00 00	 mov	 ecx, 7190		; 00001c16H
  000ff	66 3b c1	 cmp	 ax, cx
  00102	75 05		 jne	 SHORT $LN10@SocketSeed@2

; 5512 : 			{
; 5513 : 				iCreationGemCount++;

  00104	ff 45 dc	 inc	 DWORD PTR _iCreationGemCount$[ebp]

; 5514 : 			}
; 5515 : 			else

  00107	eb 03		 jmp	 SHORT $LN19@SocketSeed@2
$LN10@SocketSeed@2:

; 5516 : 			{
; 5517 : 				iInvalidItemCount++;

  00109	ff 45 cc	 inc	 DWORD PTR _iInvalidItemCount$[ebp]
$LN19@SocketSeed@2:

; 5490 : 
; 5491 : 	for ( int n=0;n<CHAOS_BOX_SIZE;n++) //loc21

  0010c	81 c3 d4 00 00
	00		 add	 ebx, 212		; 000000d4H
  00112	81 fb 80 1a 00
	00		 cmp	 ebx, 6784		; 00001a80H
  00118	0f 8c 52 ff ff
	ff		 jl	 $LL20@SocketSeed@2

; 5518 : 			}
; 5519 : 		}
; 5520 : 	}
; 5521 : 
; 5522 : 	if ( iInvalidItemCount > 0 )

  0011e	33 db		 xor	 ebx, ebx
  00120	39 5d cc	 cmp	 DWORD PTR _iInvalidItemCount$[ebp], ebx
  00123	7e 23		 jle	 SHORT $LN8@SocketSeed@2
$LN27@SocketSeed@2:

; 5523 : 	{
; 5524 : 		pMsg.Result = 7;
; 5525 : 		DataSend(lpObj->m_Index, (LPBYTE)&pMsg, pMsg.h.size);

  00125	0f b6 55 e1	 movzx	 edx, BYTE PTR _pMsg$[ebp+1]
  00129	8b 0e		 mov	 ecx, DWORD PTR [esi]
  0012b	52		 push	 edx
  0012c	8d 45 e0	 lea	 eax, DWORD PTR _pMsg$[ebp]
  0012f	50		 push	 eax
  00130	51		 push	 ecx
  00131	c6 45 e3 07	 mov	 BYTE PTR _pMsg$[ebp+3], 7
  00135	e8 00 00 00 00	 call	 ?DataSend@@YAHHPAEK@Z	; DataSend
  0013a	83 c4 0c	 add	 esp, 12			; 0000000cH

; 5526 : 		lpObj->ChaosLock = FALSE;

  0013d	89 9e 88 0e 00
	00		 mov	 DWORD PTR [esi+3720], ebx

; 5527 : 		return;

  00143	e9 19 02 00 00	 jmp	 $LN21@SocketSeed@2
$LN8@SocketSeed@2:

; 5528 : 	}
; 5529 : 
; 5530 : 	if(iSeedSphereItemCount != 1 && iSeedItemCount != 1 && iChoasGemCount != 1 && iCreationGemCount != 1)

  00148	b8 01 00 00 00	 mov	 eax, 1
  0014d	39 45 c4	 cmp	 DWORD PTR _iSeedSphereItemCount$[ebp], eax
  00150	74 0f		 je	 SHORT $LN7@SocketSeed@2
  00152	39 45 c8	 cmp	 DWORD PTR _iSeedItemCount$[ebp], eax
  00155	74 0a		 je	 SHORT $LN7@SocketSeed@2
  00157	39 45 c0	 cmp	 DWORD PTR _iChoasGemCount$[ebp], eax
  0015a	74 05		 je	 SHORT $LN7@SocketSeed@2
  0015c	39 45 dc	 cmp	 DWORD PTR _iCreationGemCount$[ebp], eax

; 5531 : 	{
; 5532 : 		pMsg.Result = 7;
; 5533 : 		DataSend(lpObj->m_Index, (LPBYTE)&pMsg, pMsg.h.size);
; 5534 : 		lpObj->ChaosLock = FALSE;
; 5535 : 		return;

  0015f	75 c4		 jne	 SHORT $LN27@SocketSeed@2
$LN7@SocketSeed@2:

; 5536 : 	}
; 5537 : 
; 5538 : 	iChaosTaxMoney = (int)((__int64)g_iSeedSphereCompositeMoney * (__int64)g_CastleSiegeSync.GetTaxRateChaos(lpObj->m_Index) / (__int64)100);

  00161	8b 16		 mov	 edx, DWORD PTR [esi]
  00163	52		 push	 edx
  00164	b9 00 00 00 00	 mov	 ecx, OFFSET ?g_CastleSiegeSync@@3VCCastleSiegeSync@@A ; g_CastleSiegeSync
  00169	e8 00 00 00 00	 call	 ?GetTaxRateChaos@CCastleSiegeSync@@QAEHH@Z ; CCastleSiegeSync::GetTaxRateChaos
  0016e	f7 2d 00 00 00
	00		 imul	 DWORD PTR ?g_iSeedSphereCompositeMoney@@3HA ; g_iSeedSphereCompositeMoney
  00174	53		 push	 ebx
  00175	6a 64		 push	 100			; 00000064H
  00177	52		 push	 edx
  00178	50		 push	 eax
  00179	e8 00 00 00 00	 call	 __alldiv
  0017e	8b d8		 mov	 ebx, eax

; 5539 : 
; 5540 : 	if ( iChaosTaxMoney < 0 )

  00180	85 db		 test	 ebx, ebx
  00182	79 02		 jns	 SHORT $LN6@SocketSeed@2

; 5541 : 	{
; 5542 : 		iChaosTaxMoney = 0;

  00184	33 db		 xor	 ebx, ebx
$LN6@SocketSeed@2:

; 5543 : 	}
; 5544 : 
; 5545 : 	iMixMoney = g_iSeedSphereCompositeMoney + iChaosTaxMoney;

  00186	a1 00 00 00 00	 mov	 eax, DWORD PTR ?g_iSeedSphereCompositeMoney@@3HA ; g_iSeedSphereCompositeMoney
  0018b	03 c3		 add	 eax, ebx
  0018d	89 45 dc	 mov	 DWORD PTR _iMixMoney$[ebp], eax

; 5546 : 
; 5547 : 	if ( lpObj->Money < iMixMoney )

  00190	39 86 f0 00 00
	00		 cmp	 DWORD PTR [esi+240], eax
  00196	7d 1d		 jge	 SHORT $LN5@SocketSeed@2

; 5548 : 	{
; 5549 : 		pMsg.Result = 2;
; 5550 : 		DataSend(lpObj->m_Index, (LPBYTE)&pMsg, pMsg.h.size);

  00198	0f b6 4d e1	 movzx	 ecx, BYTE PTR _pMsg$[ebp+1]
  0019c	8b 06		 mov	 eax, DWORD PTR [esi]
  0019e	51		 push	 ecx
  0019f	8d 55 e0	 lea	 edx, DWORD PTR _pMsg$[ebp]
  001a2	52		 push	 edx
  001a3	50		 push	 eax
  001a4	c6 45 e3 02	 mov	 BYTE PTR _pMsg$[ebp+3], 2
  001a8	e8 00 00 00 00	 call	 ?DataSend@@YAHHPAEK@Z	; DataSend
  001ad	83 c4 0c	 add	 esp, 12			; 0000000cH

; 5551 : 		lpObj->ChaosLock = FALSE;
; 5552 : 		return;

  001b0	e9 a2 01 00 00	 jmp	 $LN2@SocketSeed@2
$LN5@SocketSeed@2:

; 5553 : 	}
; 5554 : 
; 5555 : 	LogChaosItem(lpObj, "SeedSphereComposite");

  001b5	8b 4d d0	 mov	 ecx, DWORD PTR _this$[ebp]
  001b8	68 00 00 00 00	 push	 OFFSET ??_C@_0BE@GFFNMAOC@SeedSphereComposite?$AA@
  001bd	56		 push	 esi
  001be	e8 00 00 00 00	 call	 ?LogChaosItem@CMixSystem@@QAEXPAUOBJECTSTRUCT@@PAD@Z ; CMixSystem::LogChaosItem

; 5556 : 	iSeedSphereCompositeRate = 80 + (iChaosMoney / 200000);

  001c3	b8 8f 58 8b 4f	 mov	 eax, 1334532239		; 4f8b588fH
  001c8	f7 e7		 mul	 edi
  001ca	2b fa		 sub	 edi, edx
  001cc	d1 ef		 shr	 edi, 1
  001ce	03 fa		 add	 edi, edx
  001d0	c1 ef 11	 shr	 edi, 17			; 00000011H
  001d3	83 c7 50	 add	 edi, 80			; 00000050H

; 5557 : 
; 5558 : 	if( iSeedSphereCompositeRate > 90 )

  001d6	83 ff 5a	 cmp	 edi, 90			; 0000005aH
  001d9	7e 05		 jle	 SHORT $LN4@SocketSeed@2

; 5559 : 	{
; 5560 : 		iSeedSphereCompositeRate = 90;

  001db	bf 5a 00 00 00	 mov	 edi, 90			; 0000005aH
$LN4@SocketSeed@2:

; 5561 : 	}
; 5562 : 
; 5563 : 	lpObj->Money -= iMixMoney;

  001e0	8b 4d dc	 mov	 ecx, DWORD PTR _iMixMoney$[ebp]
  001e3	29 8e f0 00 00
	00		 sub	 DWORD PTR [esi+240], ecx

; 5564 : 	g_CastleSiegeSync.AddTributeMoney(iChaosTaxMoney);

  001e9	53		 push	 ebx
  001ea	b9 00 00 00 00	 mov	 ecx, OFFSET ?g_CastleSiegeSync@@3VCCastleSiegeSync@@A ; g_CastleSiegeSync
  001ef	e8 00 00 00 00	 call	 ?AddTributeMoney@CCastleSiegeSync@@QAEXH@Z ; CCastleSiegeSync::AddTributeMoney

; 5565 : 	GCMoneySend(lpObj->m_Index, lpObj->Money);

  001f4	8b 96 f0 00 00
	00		 mov	 edx, DWORD PTR [esi+240]
  001fa	8b 06		 mov	 eax, DWORD PTR [esi]
  001fc	52		 push	 edx
  001fd	50		 push	 eax
  001fe	e8 00 00 00 00	 call	 ?GCMoneySend@@YAXHK@Z	; GCMoneySend
  00203	83 c4 08	 add	 esp, 8

; 5566 : 
; 5567 : 	if(rand()%100 > iSeedSphereCompositeRate) //fail rate

  00206	e8 00 00 00 00	 call	 _rand
  0020b	99		 cdq
  0020c	b9 64 00 00 00	 mov	 ecx, 100		; 00000064H
  00211	f7 f9		 idiv	 ecx
  00213	3b d7		 cmp	 edx, edi
  00215	7e 39		 jle	 SHORT $LN3@SocketSeed@2

; 5568 : 	{
; 5569 : 		this->ChaosBoxInit(lpObj);

  00217	8b 4d d0	 mov	 ecx, DWORD PTR _this$[ebp]
  0021a	56		 push	 esi
  0021b	e8 00 00 00 00	 call	 ?ChaosBoxInit@CMixSystem@@QAEHPAUOBJECTSTRUCT@@@Z ; CMixSystem::ChaosBoxInit

; 5570 : 		GCUserChaosBoxSend(lpObj, 0);

  00220	6a 00		 push	 0
  00222	56		 push	 esi
  00223	e8 00 00 00 00	 call	 ?GCUserChaosBoxSend@@YAXPAUOBJECTSTRUCT@@H@Z ; GCUserChaosBoxSend

; 5571 : 		LogAddTD("[%s][%s] SeedSphere Composite Mix Failed.", lpObj->AccountID, lpObj->Name);

  00228	8d 56 77	 lea	 edx, DWORD PTR [esi+119]
  0022b	52		 push	 edx
  0022c	8d 46 6c	 lea	 eax, DWORD PTR [esi+108]
  0022f	50		 push	 eax
  00230	68 00 00 00 00	 push	 OFFSET ??_C@_0CK@CENILOLB@?$FL?$CFs?$FN?$FL?$CFs?$FN?5SeedSphere?5Composite?5Mi@
  00235	ff 15 00 00 00
	00		 call	 DWORD PTR ?LogAddTD@@3P6AXPADZZA ; LogAddTD

; 5572 : #if(SYSTEM_ACHIEVEMENTS)
; 5573 : 		g_Achievements.FailedChaosMix(lpObj->m_Index);

  0023b	8b 0e		 mov	 ecx, DWORD PTR [esi]
  0023d	83 c4 14	 add	 esp, 20			; 00000014H
  00240	51		 push	 ecx
  00241	b9 00 00 00 00	 mov	 ecx, OFFSET ?g_Achievements@@3VCAchievements@@A ; g_Achievements
  00246	e8 00 00 00 00	 call	 ?FailedChaosMix@CAchievements@@QAEXH@Z ; CAchievements::FailedChaosMix

; 5574 : #endif
; 5575 : 	}
; 5576 : 	else

  0024b	e9 07 01 00 00	 jmp	 $LN2@SocketSeed@2
$LN3@SocketSeed@2:

; 5577 : 	{
; 5578 : 		BYTE OptionIndex = 0; //54
; 5579 : 		BYTE SphereLevel = 0; //58
; 5580 : 		CSeedSphere SeedSphere;

  00250	8d 4d b0	 lea	 ecx, DWORD PTR _SeedSphere$219790[ebp]
  00253	e8 00 00 00 00	 call	 ??0CSeedSphere@@QAE@XZ	; CSeedSphere::CSeedSphere

; 5581 : 
; 5582 : 		OptionIndex = g_SocketOption.GetSeedOptionIndex(pSeedSphere->m_Type, pSeedSphere->m_Level);

  00258	8b 45 d4	 mov	 eax, DWORD PTR _pSeedSphere$[ebp]
  0025b	0f b6 50 08	 movzx	 edx, BYTE PTR [eax+8]
  0025f	0f bf 40 06	 movsx	 eax, WORD PTR [eax+6]
  00263	52		 push	 edx
  00264	50		 push	 eax
  00265	b9 00 00 00 00	 mov	 ecx, OFFSET ?g_SocketOption@@3VCSocketOption@@A ; g_SocketOption
  0026a	c7 45 fc 00 00
	00 00		 mov	 DWORD PTR __$EHRec$[ebp+8], 0
  00271	e8 00 00 00 00	 call	 ?GetSeedOptionIndex@CSocketOption@@QAEEHE@Z ; CSocketOption::GetSeedOptionIndex

; 5583 : 		SphereLevel = g_SocketOption.GetSphereLevel(pSeed->m_Type);

  00276	8b 4d d8	 mov	 ecx, DWORD PTR _pSeed$[ebp]
  00279	0f bf 51 06	 movsx	 edx, WORD PTR [ecx+6]
  0027d	52		 push	 edx
  0027e	b9 00 00 00 00	 mov	 ecx, OFFSET ?g_SocketOption@@3VCSocketOption@@A ; g_SocketOption
  00283	88 45 d4	 mov	 BYTE PTR _OptionIndex$219788[ebp], al
  00286	e8 00 00 00 00	 call	 ?GetSphereLevel@CSocketOption@@QAEEH@Z ; CSocketOption::GetSphereLevel

; 5584 : 
; 5585 : 		g_SocketOption.SetSeedSphereData(&SeedSphere, OptionIndex, SphereLevel);

  0028b	8b 4d d4	 mov	 ecx, DWORD PTR _OptionIndex$219788[ebp]
  0028e	88 45 d8	 mov	 BYTE PTR _SphereLevel$219789[ebp], al
  00291	8b 45 d8	 mov	 eax, DWORD PTR _SphereLevel$219789[ebp]
  00294	50		 push	 eax
  00295	51		 push	 ecx
  00296	8d 55 b0	 lea	 edx, DWORD PTR _SeedSphere$219790[ebp]
  00299	52		 push	 edx
  0029a	b9 00 00 00 00	 mov	 ecx, OFFSET ?g_SocketOption@@3VCSocketOption@@A ; g_SocketOption
  0029f	e8 00 00 00 00	 call	 ?SetSeedSphereData@CSocketOption@@QAEEPAVCSeedSphere@@EE@Z ; CSocketOption::SetSeedSphereData

; 5586 : 		
; 5587 : 		if(SeedSphere.m_iItemIndex != 0)

  002a4	8b 4d b4	 mov	 ecx, DWORD PTR _SeedSphere$219790[ebp+4]
  002a7	85 c9		 test	 ecx, ecx
  002a9	74 69		 je	 SHORT $LN1@SocketSeed@2

; 5588 : 		{
; 5589 : 			pMsg.Result = 1;
; 5590 : 			ItemSerialCreateSend(lpObj->m_Index, 0xFF, 0, 0, SeedSphere.m_iItemIndex, (BYTE)SeedSphere.m_btItemLevel, 1, 0, 0, 0, lpObj->m_Index, 0, 0);

  002ab	8b 06		 mov	 eax, DWORD PTR [esi]
  002ad	8b 55 b8	 mov	 edx, DWORD PTR _SeedSphere$219790[ebp+8]
  002b0	6a 00		 push	 0
  002b2	6a 00		 push	 0
  002b4	50		 push	 eax
  002b5	6a 00		 push	 0
  002b7	6a 00		 push	 0
  002b9	6a 00		 push	 0
  002bb	6a 01		 push	 1
  002bd	52		 push	 edx
  002be	51		 push	 ecx
  002bf	6a 00		 push	 0
  002c1	6a 00		 push	 0
  002c3	68 ff 00 00 00	 push	 255			; 000000ffH
  002c8	50		 push	 eax
  002c9	c6 45 e3 01	 mov	 BYTE PTR _pMsg$[ebp+3], 1
  002cd	e8 00 00 00 00	 call	 ?ItemSerialCreateSend@@YAXHEEEHEEEEEHEE@Z ; ItemSerialCreateSend

; 5591 : 			gObjInventoryCommit(lpObj->m_Index);

  002d2	8b 06		 mov	 eax, DWORD PTR [esi]
  002d4	50		 push	 eax
  002d5	e8 00 00 00 00	 call	 ?gObjInventoryCommit@@YAHH@Z ; gObjInventoryCommit

; 5592 : 			LogAddTD("[%s][%s] SeedSphere Composite Mix Success - SeedSphere Info ( Index : %d, Type : %d, Level : %d, ItemCode : %d )",
; 5593 : 			lpObj->AccountID, lpObj->Name, SeedSphere.m_btItemByteOption, SeedSphere.m_btElementIndex, SeedSphere.m_btSocketSlotCount, SeedSphere.m_iItemIndex);

  002da	8b 4d b4	 mov	 ecx, DWORD PTR _SeedSphere$219790[ebp+4]
  002dd	0f b6 55 bc	 movzx	 edx, BYTE PTR _SeedSphere$219790[ebp+12]
  002e1	0f b6 45 b2	 movzx	 eax, BYTE PTR _SeedSphere$219790[ebp+2]
  002e5	51		 push	 ecx
  002e6	0f b6 4d b0	 movzx	 ecx, BYTE PTR _SeedSphere$219790[ebp]
  002ea	52		 push	 edx
  002eb	50		 push	 eax
  002ec	51		 push	 ecx
  002ed	8d 56 77	 lea	 edx, DWORD PTR [esi+119]
  002f0	52		 push	 edx
  002f1	83 c6 6c	 add	 esi, 108		; 0000006cH
  002f4	56		 push	 esi
  002f5	68 00 00 00 00	 push	 OFFSET ??_C@_0HB@BGNJLNEH@?$FL?$CFs?$FN?$FL?$CFs?$FN?5SeedSphere?5Composite?5Mi@
  002fa	ff 15 00 00 00
	00		 call	 DWORD PTR ?LogAddTD@@3P6AXPADZZA ; LogAddTD
  00300	83 c4 54	 add	 esp, 84			; 00000054H

; 5594 : 
; 5595 : 
; 5596 : 			return;

  00303	8d 4d b0	 lea	 ecx, DWORD PTR _SeedSphere$219790[ebp]
  00306	c7 45 fc ff ff
	ff ff		 mov	 DWORD PTR __$EHRec$[ebp+8], -1
  0030d	e8 00 00 00 00	 call	 ??1CSeedSphere@@QAE@XZ	; CSeedSphere::~CSeedSphere
  00312	eb 4d		 jmp	 SHORT $LN21@SocketSeed@2
$LN1@SocketSeed@2:

; 5597 : 		}
; 5598 : 
; 5599 : 		this->ChaosBoxInit(lpObj);

  00314	8b 4d d0	 mov	 ecx, DWORD PTR _this$[ebp]
  00317	56		 push	 esi
  00318	e8 00 00 00 00	 call	 ?ChaosBoxInit@CMixSystem@@QAEHPAUOBJECTSTRUCT@@@Z ; CMixSystem::ChaosBoxInit

; 5600 : 		GCUserChaosBoxSend(lpObj, 0);

  0031d	6a 00		 push	 0
  0031f	56		 push	 esi
  00320	e8 00 00 00 00	 call	 ?GCUserChaosBoxSend@@YAXPAUOBJECTSTRUCT@@H@Z ; GCUserChaosBoxSend

; 5601 : 		LogAddTD("[%s][%s] SeedSphere Composite Mix Failed - SeedSphere Data is NULL", lpObj->AccountID, lpObj->Name);

  00325	8d 46 77	 lea	 eax, DWORD PTR [esi+119]
  00328	50		 push	 eax
  00329	8d 4e 6c	 lea	 ecx, DWORD PTR [esi+108]
  0032c	51		 push	 ecx
  0032d	68 00 00 00 00	 push	 OFFSET ??_C@_0ED@CPANCMOB@?$FL?$CFs?$FN?$FL?$CFs?$FN?5SeedSphere?5Composite?5Mi@
  00332	ff 15 00 00 00
	00		 call	 DWORD PTR ?LogAddTD@@3P6AXPADZZA ; LogAddTD

; 5602 : 
; 5603 : #if(SYSTEM_ACHIEVEMENTS)
; 5604 : 		g_Achievements.SuccessChaosMix(lpObj->m_Index);

  00338	8b 16		 mov	 edx, DWORD PTR [esi]
  0033a	83 c4 14	 add	 esp, 20			; 00000014H
  0033d	52		 push	 edx
  0033e	b9 00 00 00 00	 mov	 ecx, OFFSET ?g_Achievements@@3VCAchievements@@A ; g_Achievements
  00343	e8 00 00 00 00	 call	 ?SuccessChaosMix@CAchievements@@QAEXH@Z ; CAchievements::SuccessChaosMix

; 5605 : #endif
; 5606 : 	}

  00348	8d 4d b0	 lea	 ecx, DWORD PTR _SeedSphere$219790[ebp]
  0034b	c7 45 fc ff ff
	ff ff		 mov	 DWORD PTR __$EHRec$[ebp+8], -1
  00352	e8 00 00 00 00	 call	 ??1CSeedSphere@@QAE@XZ	; CSeedSphere::~CSeedSphere
$LN2@SocketSeed@2:

; 5607 : 	lpObj->ChaosLock = FALSE;

  00357	c7 86 88 0e 00
	00 00 00 00 00	 mov	 DWORD PTR [esi+3720], 0
$LN21@SocketSeed@2:

; 5608 : }

  00361	8b 4d f4	 mov	 ecx, DWORD PTR __$EHRec$[ebp]
  00364	64 89 0d 00 00
	00 00		 mov	 DWORD PTR fs:0, ecx
  0036b	59		 pop	 ecx
  0036c	5f		 pop	 edi
  0036d	5e		 pop	 esi
  0036e	5b		 pop	 ebx
  0036f	8b 4d f0	 mov	 ecx, DWORD PTR __$ArrayPad$[ebp]
  00372	33 cd		 xor	 ecx, ebp
  00374	e8 00 00 00 00	 call	 @__security_check_cookie@4
  00379	8b e5		 mov	 esp, ebp
  0037b	5d		 pop	 ebp
  0037c	c2 04 00	 ret	 4
_TEXT	ENDS
;	COMDAT text$x
text$x	SEGMENT
__unwindfunclet$?SocketSeedSphereComposite@CMixSystem@@QAEXPAUOBJECTSTRUCT@@@Z$0:
  00000	8d 4d b0	 lea	 ecx, DWORD PTR _SeedSphere$219790[ebp]
  00003	e9 00 00 00 00	 jmp	 ??1CSeedSphere@@QAE@XZ	; CSeedSphere::~CSeedSphere
__ehhandler$?SocketSeedSphereComposite@CMixSystem@@QAEXPAUOBJECTSTRUCT@@@Z:
  00008	8b 54 24 08	 mov	 edx, DWORD PTR [esp+8]
  0000c	8d 42 0c	 lea	 eax, DWORD PTR [edx+12]
  0000f	8b 4a ac	 mov	 ecx, DWORD PTR [edx-84]
  00012	33 c8		 xor	 ecx, eax
  00014	e8 00 00 00 00	 call	 @__security_check_cookie@4
  00019	8b 4a fc	 mov	 ecx, DWORD PTR [edx-4]
  0001c	33 c8		 xor	 ecx, eax
  0001e	e8 00 00 00 00	 call	 @__security_check_cookie@4
  00023	b8 00 00 00 00	 mov	 eax, OFFSET __ehfuncinfo$?SocketSeedSphereComposite@CMixSystem@@QAEXPAUOBJECTSTRUCT@@@Z
  00028	e9 00 00 00 00	 jmp	 ___CxxFrameHandler3
text$x	ENDS
?SocketSeedSphereComposite@CMixSystem@@QAEXPAUOBJECTSTRUCT@@@Z ENDP ; CMixSystem::SocketSeedSphereComposite
PUBLIC	??_C@_0II@KCLKEHBN@?$FL?$CFs?$FN?$FL?$CFs?$FN?5Set?5SeedSphere?5Mix?5Succ@ ; `string'
PUBLIC	??_C@_0DO@KKBOJPIF@?$FL?$CFs?$FN?$FL?$CFs?$FN?5Set?5Seed?5Mix?5Failed?5?9?5W@ ; `string'
PUBLIC	??_C@_0DC@BKFDMAJM@?$FL?$CFs?$FN?$FL?$CFs?$FN?5Set?5Seed?5Mix?5Failed?5?9?5S@ ; `string'
PUBLIC	??_C@_0O@CGCDEDIJ@SetSeedSphere?$AA@		; `string'
PUBLIC	_SocketSlot$GSCopy$
PUBLIC	__$ArrayPad$
PUBLIC	?SocketSetSeedSphere@CMixSystem@@QAEXPAUOBJECTSTRUCT@@E@Z ; CMixSystem::SocketSetSeedSphere
EXTRN	?MakeManualOption@CSocketOption@@QAEEPAVCItem@@EE@Z:PROC ; CSocketOption::MakeManualOption
EXTRN	?CheckItemElementInfo@CSocketOption@@QAEEPAVCItem@@E@Z:PROC ; CSocketOption::CheckItemElementInfo
EXTRN	?GetItemSocketByteOption@CSocketOption@@QAEEGE@Z:PROC ; CSocketOption::GetItemSocketByteOption
EXTRN	?g_iSeedSphereSetMoney@@3HA:DWORD		; g_iSeedSphereSetMoney
EXTRN	?CheckEmptySlot@CSocketOption@@QAEEPAVCItem@@GE@Z:PROC ; CSocketOption::CheckEmptySlot
EXTRN	?IsSeedSpearItem@CSocketOption@@QAEEH@Z:PROC	; CSocketOption::IsSeedSpearItem
EXTRN	?CheckItemType@CSocketOption@@QAEEH@Z:PROC	; CSocketOption::CheckItemType
;	COMDAT ??_C@_0II@KCLKEHBN@?$FL?$CFs?$FN?$FL?$CFs?$FN?5Set?5SeedSphere?5Mix?5Succ@
CONST	SEGMENT
??_C@_0II@KCLKEHBN@?$FL?$CFs?$FN?$FL?$CFs?$FN?5Set?5SeedSphere?5Mix?5Succ@ DB '['
	DB	'%s][%s] Set SeedSphere Mix Success - ItemInfo ( Name : %s, It'
	DB	'emCode : %d, Level : %d, SocketOption[%d,%d,%d,%d,%d], BonusO'
	DB	'ption : %d )', 00H				; `string'
CONST	ENDS
;	COMDAT ??_C@_0DO@KKBOJPIF@?$FL?$CFs?$FN?$FL?$CFs?$FN?5Set?5Seed?5Mix?5Failed?5?9?5W@
CONST	SEGMENT
??_C@_0DO@KKBOJPIF@?$FL?$CFs?$FN?$FL?$CFs?$FN?5Set?5Seed?5Mix?5Failed?5?9?5W@ DB '['
	DB	'%s][%s] Set Seed Mix Failed - Wrong Item Type for Set Socket', 00H ; `string'
CONST	ENDS
;	COMDAT ??_C@_0DC@BKFDMAJM@?$FL?$CFs?$FN?$FL?$CFs?$FN?5Set?5Seed?5Mix?5Failed?5?9?5S@
CONST	SEGMENT
??_C@_0DC@BKFDMAJM@?$FL?$CFs?$FN?$FL?$CFs?$FN?5Set?5Seed?5Mix?5Failed?5?9?5S@ DB '['
	DB	'%s][%s] Set Seed Mix Failed - SeedSphere is NULL', 00H ; `string'
CONST	ENDS
;	COMDAT ??_C@_0O@CGCDEDIJ@SetSeedSphere?$AA@
CONST	SEGMENT
??_C@_0O@CGCDEDIJ@SetSeedSphere?$AA@ DB 'SetSeedSphere', 00H ; `string'
; Function compile flags: /Ogtp
CONST	ENDS
;	COMDAT ?SocketSetSeedSphere@CMixSystem@@QAEXPAUOBJECTSTRUCT@@E@Z
_TEXT	SEGMENT
_this$ = -264						; size = 4
_iChoasGemCount$ = -260					; size = 4
_iInvalidItemCount$ = -256				; size = 4
_iSocketItemCount$ = -252				; size = 4
_iSeedSpearItemCount$ = -248				; size = 4
_iMixMoney$ = -244					; size = 4
_iCreationGemCount$ = -244				; size = 4
_SocketByteOption$ = -240				; size = 1
_pSeedSpearItem$ = -240					; size = 4
tv551 = -236						; size = 4
_SocketSlot$GSCopy$ = -236				; size = 1
_Dur$ = -236						; size = 4
_Item$ = -232						; size = 212
_pMsg$ = -20						; size = 16
__$ArrayPad$ = -4					; size = 4
_lpObj$ = 8						; size = 4
_SocketSlot$ = 12					; size = 1
?SocketSetSeedSphere@CMixSystem@@QAEXPAUOBJECTSTRUCT@@E@Z PROC ; CMixSystem::SocketSetSeedSphere, COMDAT
; _this$ = ecx

; 5611 : {

  00000	55		 push	 ebp
  00001	8b ec		 mov	 ebp, esp
  00003	81 ec 08 01 00
	00		 sub	 esp, 264		; 00000108H
  00009	a1 00 00 00 00	 mov	 eax, DWORD PTR ___security_cookie
  0000e	33 c5		 xor	 eax, ebp
  00010	89 45 fc	 mov	 DWORD PTR __$ArrayPad$[ebp], eax

; 5760 : 
; 5761 : 	DataSend(lpObj->m_Index, (LPBYTE)&pMsg, pMsg.h.size);

  00013	8a 45 0c	 mov	 al, BYTE PTR _SocketSlot$[ebp]
  00016	53		 push	 ebx
  00017	8b 5d 08	 mov	 ebx, DWORD PTR _lpObj$[ebp]
  0001a	56		 push	 esi
  0001b	33 f6		 xor	 esi, esi
  0001d	89 8d f8 fe ff
	ff		 mov	 DWORD PTR _this$[ebp], ecx
  00023	57		 push	 edi
  00024	8d 8d 18 ff ff
	ff		 lea	 ecx, DWORD PTR _Item$[ebp]
  0002a	88 85 14 ff ff
	ff		 mov	 BYTE PTR _SocketSlot$GSCopy$[ebp], al
  00030	89 b5 04 ff ff
	ff		 mov	 DWORD PTR _iSocketItemCount$[ebp], esi
  00036	89 b5 00 ff ff
	ff		 mov	 DWORD PTR _iInvalidItemCount$[ebp], esi
  0003c	89 b5 08 ff ff
	ff		 mov	 DWORD PTR _iSeedSpearItemCount$[ebp], esi
  00042	89 b5 fc fe ff
	ff		 mov	 DWORD PTR _iChoasGemCount$[ebp], esi
  00048	89 b5 0c ff ff
	ff		 mov	 DWORD PTR _iCreationGemCount$[ebp], esi
  0004e	89 b5 10 ff ff
	ff		 mov	 DWORD PTR _pSeedSpearItem$[ebp], esi
  00054	e8 00 00 00 00	 call	 ??0CItem@@QAE@XZ	; CItem::CItem
  00059	6a 10		 push	 16			; 00000010H
  0005b	8d 4d ec	 lea	 ecx, DWORD PTR _pMsg$[ebp]
  0005e	68 86 00 00 00	 push	 134			; 00000086H
  00063	51		 push	 ecx
  00064	e8 00 00 00 00	 call	 ?PHeadSetB@@YAXPAEEH@Z	; PHeadSetB
  00069	83 c4 0c	 add	 esp, 12			; 0000000cH
  0006c	80 bd 14 ff ff
	ff 05		 cmp	 BYTE PTR _SocketSlot$GSCopy$[ebp], 5
  00073	c6 45 ef 00	 mov	 BYTE PTR _pMsg$[ebp+3], 0
  00077	72 31		 jb	 SHORT $LN21@SocketSetS

; 5612 : 	int iSocketItemCount = 0; //2
; 5613 : 	int iInvalidItemCount = 0; //3
; 5614 : 	int iSeedSpearItemCount = 0; //4
; 5615 : 	int iChoasGemCount = 0; //5
; 5616 : 	int iCreationGemCount = 0; //6
; 5617 : 	CItem * pSocketItem = NULL; //7
; 5618 : 	CItem * pSeedSpearItem = NULL; //8
; 5619 : 	CItem Item;
; 5620 : 	int iChaosTaxMoney = 0;
; 5621 : 	int iMixMoney = 0;
; 5622 : 
; 5623 : 	PMSG_CHAOSMIXRESULT pMsg;
; 5624 : 	PHeadSetB((LPBYTE)&pMsg.h, 0x86, sizeof(PMSG_CHAOSMIXRESULT));
; 5625 : 	pMsg.Result = CB_ERROR;
; 5626 : 
; 5627 : 	if(SocketSlot >= 5)
; 5628 : 	{
; 5629 : 		pMsg.Result = 7;
; 5630 : 		DataSend(lpObj->m_Index, (LPBYTE)&pMsg, pMsg.h.size);

  00079	0f b6 55 ed	 movzx	 edx, BYTE PTR _pMsg$[ebp+1]
  0007d	8b 0b		 mov	 ecx, DWORD PTR [ebx]
  0007f	52		 push	 edx
  00080	8d 45 ec	 lea	 eax, DWORD PTR _pMsg$[ebp]
  00083	50		 push	 eax
  00084	51		 push	 ecx
  00085	c6 45 ef 07	 mov	 BYTE PTR _pMsg$[ebp+3], 7
  00089	e8 00 00 00 00	 call	 ?DataSend@@YAHHPAEK@Z	; DataSend
  0008e	83 c4 0c	 add	 esp, 12			; 0000000cH

; 5631 : 		lpObj->ChaosLock = FALSE;

  00091	89 b3 88 0e 00
	00		 mov	 DWORD PTR [ebx+3720], esi

; 5762 : }

  00097	5f		 pop	 edi
  00098	5e		 pop	 esi
  00099	5b		 pop	 ebx
  0009a	8b 4d fc	 mov	 ecx, DWORD PTR __$ArrayPad$[ebp]
  0009d	33 cd		 xor	 ecx, ebp
  0009f	e8 00 00 00 00	 call	 @__security_check_cookie@4
  000a4	8b e5		 mov	 esp, ebp
  000a6	5d		 pop	 ebp
  000a7	c2 08 00	 ret	 8
$LN21@SocketSetS:

; 5632 : 		return;
; 5633 : 	}
; 5634 : 
; 5635 : 	lpObj->ChaosLock = TRUE;

  000aa	c7 83 88 0e 00
	00 01 00 00 00	 mov	 DWORD PTR [ebx+3720], 1
  000b4	33 ff		 xor	 edi, edi
  000b6	eb 08 8d a4 24
	00 00 00 00 90	 npad	 10
$LL20@SocketSetS:

; 5638 : 	{
; 5639 : 		if ( lpObj->pChaosBox[n].IsItem() == TRUE )

  000c0	8b 8b 78 0e 00
	00		 mov	 ecx, DWORD PTR [ebx+3704]
  000c6	03 cf		 add	 ecx, edi
  000c8	e8 00 00 00 00	 call	 ?IsItem@CItem@@QAEHXZ	; CItem::IsItem
  000cd	83 f8 01	 cmp	 eax, 1
  000d0	0f 85 9c 00 00
	00		 jne	 $LN19@SocketSetS

; 5640 : 		{
; 5641 : 			if( g_SocketOption.CheckItemType(lpObj->pChaosBox[n].m_Type) == 1)

  000d6	8b 93 78 0e 00
	00		 mov	 edx, DWORD PTR [ebx+3704]
  000dc	0f bf 44 3a 06	 movsx	 eax, WORD PTR [edx+edi+6]
  000e1	50		 push	 eax
  000e2	b9 00 00 00 00	 mov	 ecx, OFFSET ?g_SocketOption@@3VCSocketOption@@A ; g_SocketOption
  000e7	e8 00 00 00 00	 call	 ?CheckItemType@CSocketOption@@QAEEH@Z ; CSocketOption::CheckItemType
  000ec	3c 01		 cmp	 al, 1

; 5642 : 			{
; 5643 : 				if(lpObj->pChaosBox[n].m_SocketOption[SocketSlot] == 0xFE) //Slot with NO OPTION

  000ee	8b 83 78 0e 00
	00		 mov	 eax, DWORD PTR [ebx+3704]
  000f4	75 1d		 jne	 SHORT $LN16@SocketSetS
  000f6	0f b6 95 14 ff
	ff ff		 movzx	 edx, BYTE PTR _SocketSlot$GSCopy$[ebp]
  000fd	03 c7		 add	 eax, edi
  000ff	80 bc 02 cc 00
	00 00 fe	 cmp	 BYTE PTR [edx+eax+204], 254 ; 000000feH
  00107	75 69		 jne	 SHORT $LN19@SocketSetS

; 5644 : 				{
; 5645 : 					iSocketItemCount++; //

  00109	ff 85 04 ff ff
	ff		 inc	 DWORD PTR _iSocketItemCount$[ebp]

; 5646 : 					pSocketItem = &lpObj->pChaosBox[n];

  0010f	8b f0		 mov	 esi, eax

; 5647 : 				}
; 5648 : 			}

  00111	eb 5f		 jmp	 SHORT $LN19@SocketSetS
$LN16@SocketSetS:

; 5649 : 			else if( g_SocketOption.IsSeedSpearItem(lpObj->pChaosBox[n].m_Type) == 1)

  00113	0f bf 4c 38 06	 movsx	 ecx, WORD PTR [eax+edi+6]
  00118	51		 push	 ecx
  00119	b9 00 00 00 00	 mov	 ecx, OFFSET ?g_SocketOption@@3VCSocketOption@@A ; g_SocketOption
  0011e	e8 00 00 00 00	 call	 ?IsSeedSpearItem@CSocketOption@@QAEEH@Z ; CSocketOption::IsSeedSpearItem
  00123	3c 01		 cmp	 al, 1
  00125	75 16		 jne	 SHORT $LN13@SocketSetS

; 5650 : 			{
; 5651 : 				iSeedSpearItemCount++;
; 5652 : 				pSeedSpearItem = &lpObj->pChaosBox[n];

  00127	8b 83 78 0e 00
	00		 mov	 eax, DWORD PTR [ebx+3704]
  0012d	ff 85 08 ff ff
	ff		 inc	 DWORD PTR _iSeedSpearItemCount$[ebp]
  00133	03 c7		 add	 eax, edi
  00135	89 85 10 ff ff
	ff		 mov	 DWORD PTR _pSeedSpearItem$[ebp], eax
  0013b	eb 35		 jmp	 SHORT $LN19@SocketSetS
$LN13@SocketSetS:

; 5653 : 			}
; 5654 : 			else if ( lpObj->pChaosBox[n].m_Type == ITEMGET(12,15) )

  0013d	8b 93 78 0e 00
	00		 mov	 edx, DWORD PTR [ebx+3704]
  00143	0f b7 44 3a 06	 movzx	 eax, WORD PTR [edx+edi+6]
  00148	b9 0f 18 00 00	 mov	 ecx, 6159		; 0000180fH
  0014d	66 3b c1	 cmp	 ax, cx
  00150	75 08		 jne	 SHORT $LN11@SocketSetS

; 5655 : 			{
; 5656 : 				iChoasGemCount++;

  00152	ff 85 fc fe ff
	ff		 inc	 DWORD PTR _iChoasGemCount$[ebp]
  00158	eb 18		 jmp	 SHORT $LN19@SocketSetS
$LN11@SocketSetS:

; 5657 : 			}
; 5658 : 			else if ( lpObj->pChaosBox[n].m_Type == ITEMGET(14,22) )

  0015a	ba 16 1c 00 00	 mov	 edx, 7190		; 00001c16H
  0015f	66 3b c2	 cmp	 ax, dx
  00162	75 08		 jne	 SHORT $LN9@SocketSetS

; 5659 : 			{
; 5660 : 				iCreationGemCount++;

  00164	ff 85 0c ff ff
	ff		 inc	 DWORD PTR _iCreationGemCount$[ebp]

; 5661 : 			}
; 5662 : 			else

  0016a	eb 06		 jmp	 SHORT $LN19@SocketSetS
$LN9@SocketSetS:

; 5663 : 			{
; 5664 : 				iInvalidItemCount++;

  0016c	ff 85 00 ff ff
	ff		 inc	 DWORD PTR _iInvalidItemCount$[ebp]
$LN19@SocketSetS:

; 5636 : 
; 5637 : 	for ( int n=0;n<CHAOS_BOX_SIZE;n++) //loc21

  00172	81 c7 d4 00 00
	00		 add	 edi, 212		; 000000d4H
  00178	81 ff 80 1a 00
	00		 cmp	 edi, 6784		; 00001a80H
  0017e	0f 8c 3c ff ff
	ff		 jl	 $LL20@SocketSetS

; 5665 : 			}
; 5666 : 		}
; 5667 : 	}
; 5668 : 
; 5669 : 	if ( iInvalidItemCount > 0 )

  00184	33 ff		 xor	 edi, edi
  00186	39 bd 00 ff ff
	ff		 cmp	 DWORD PTR _iInvalidItemCount$[ebp], edi
  0018c	7e 31		 jle	 SHORT $LN7@SocketSetS
$LN26@SocketSetS:

; 5670 : 	{
; 5671 : 		pMsg.Result = 7;
; 5672 : 		DataSend(lpObj->m_Index, (LPBYTE)&pMsg, pMsg.h.size);

  0018e	0f b6 45 ed	 movzx	 eax, BYTE PTR _pMsg$[ebp+1]
  00192	8b 13		 mov	 edx, DWORD PTR [ebx]
  00194	50		 push	 eax
  00195	8d 4d ec	 lea	 ecx, DWORD PTR _pMsg$[ebp]
  00198	51		 push	 ecx
  00199	52		 push	 edx
  0019a	c6 45 ef 07	 mov	 BYTE PTR _pMsg$[ebp+3], 7
  0019e	e8 00 00 00 00	 call	 ?DataSend@@YAHHPAEK@Z	; DataSend
  001a3	83 c4 0c	 add	 esp, 12			; 0000000cH

; 5673 : 		lpObj->ChaosLock = FALSE;

  001a6	89 bb 88 0e 00
	00		 mov	 DWORD PTR [ebx+3720], edi

; 5762 : }

  001ac	5f		 pop	 edi
  001ad	5e		 pop	 esi
  001ae	5b		 pop	 ebx
  001af	8b 4d fc	 mov	 ecx, DWORD PTR __$ArrayPad$[ebp]
  001b2	33 cd		 xor	 ecx, ebp
  001b4	e8 00 00 00 00	 call	 @__security_check_cookie@4
  001b9	8b e5		 mov	 esp, ebp
  001bb	5d		 pop	 ebp
  001bc	c2 08 00	 ret	 8
$LN7@SocketSetS:

; 5674 : 		return;
; 5675 : 	}
; 5676 : 
; 5677 : 	if(iSocketItemCount != 1 && iSeedSpearItemCount != 1 && iChoasGemCount != 1 && iCreationGemCount != 1)

  001bf	b8 01 00 00 00	 mov	 eax, 1
  001c4	39 85 04 ff ff
	ff		 cmp	 DWORD PTR _iSocketItemCount$[ebp], eax
  001ca	74 18		 je	 SHORT $LN6@SocketSetS
  001cc	39 85 08 ff ff
	ff		 cmp	 DWORD PTR _iSeedSpearItemCount$[ebp], eax
  001d2	74 10		 je	 SHORT $LN6@SocketSetS
  001d4	39 85 fc fe ff
	ff		 cmp	 DWORD PTR _iChoasGemCount$[ebp], eax
  001da	74 08		 je	 SHORT $LN6@SocketSetS
  001dc	39 85 0c ff ff
	ff		 cmp	 DWORD PTR _iCreationGemCount$[ebp], eax

; 5678 : 	{
; 5679 : 		pMsg.Result = 7;
; 5680 : 		DataSend(lpObj->m_Index, (LPBYTE)&pMsg, pMsg.h.size);
; 5681 : 		lpObj->ChaosLock = FALSE;
; 5682 : 		return;

  001e2	75 aa		 jne	 SHORT $LN26@SocketSetS
$LN6@SocketSetS:

; 5683 : 	}
; 5684 : 
; 5685 : 	if( g_SocketOption.CheckEmptySlot(pSocketItem, pSeedSpearItem->m_Type, pSeedSpearItem->m_Level) == 0)

  001e4	8b 85 10 ff ff
	ff		 mov	 eax, DWORD PTR _pSeedSpearItem$[ebp]
  001ea	0f b6 48 08	 movzx	 ecx, BYTE PTR [eax+8]
  001ee	0f b7 50 06	 movzx	 edx, WORD PTR [eax+6]
  001f2	51		 push	 ecx
  001f3	52		 push	 edx
  001f4	56		 push	 esi
  001f5	b9 00 00 00 00	 mov	 ecx, OFFSET ?g_SocketOption@@3VCSocketOption@@A ; g_SocketOption
  001fa	e8 00 00 00 00	 call	 ?CheckEmptySlot@CSocketOption@@QAEEPAVCItem@@GE@Z ; CSocketOption::CheckEmptySlot
  001ff	84 c0		 test	 al, al

; 5686 : 	{
; 5687 : 		pMsg.Result = 7;
; 5688 : 		DataSend(lpObj->m_Index, (LPBYTE)&pMsg, pMsg.h.size);
; 5689 : 		lpObj->ChaosLock = FALSE;
; 5690 : 		return;

  00201	74 8b		 je	 SHORT $LN26@SocketSetS

; 5691 : 	}
; 5692 : 
; 5693 : 	iChaosTaxMoney = (int)((__int64)g_iSeedSphereSetMoney * (__int64)g_CastleSiegeSync.GetTaxRateChaos(lpObj->m_Index) / (__int64)100);

  00203	8b 03		 mov	 eax, DWORD PTR [ebx]
  00205	50		 push	 eax
  00206	b9 00 00 00 00	 mov	 ecx, OFFSET ?g_CastleSiegeSync@@3VCCastleSiegeSync@@A ; g_CastleSiegeSync
  0020b	e8 00 00 00 00	 call	 ?GetTaxRateChaos@CCastleSiegeSync@@QAEHH@Z ; CCastleSiegeSync::GetTaxRateChaos
  00210	f7 2d 00 00 00
	00		 imul	 DWORD PTR ?g_iSeedSphereSetMoney@@3HA ; g_iSeedSphereSetMoney
  00216	57		 push	 edi
  00217	6a 64		 push	 100			; 00000064H
  00219	52		 push	 edx
  0021a	50		 push	 eax
  0021b	e8 00 00 00 00	 call	 __alldiv
  00220	8b f8		 mov	 edi, eax

; 5694 : 
; 5695 : 	if ( iChaosTaxMoney < 0 )

  00222	85 ff		 test	 edi, edi
  00224	79 02		 jns	 SHORT $LN4@SocketSetS

; 5696 : 	{
; 5697 : 		iChaosTaxMoney = 0;

  00226	33 ff		 xor	 edi, edi
$LN4@SocketSetS:

; 5698 : 	}
; 5699 : 
; 5700 : 	iMixMoney = g_iSeedSphereSetMoney + iChaosTaxMoney;

  00228	a1 00 00 00 00	 mov	 eax, DWORD PTR ?g_iSeedSphereSetMoney@@3HA ; g_iSeedSphereSetMoney
  0022d	03 c7		 add	 eax, edi
  0022f	89 85 0c ff ff
	ff		 mov	 DWORD PTR _iMixMoney$[ebp], eax

; 5701 : 
; 5702 : 	if ( lpObj->Money < iMixMoney )

  00235	39 83 f0 00 00
	00		 cmp	 DWORD PTR [ebx+240], eax
  0023b	7d 35		 jge	 SHORT $LN3@SocketSetS

; 5703 : 	{
; 5704 : 		pMsg.Result = 2;
; 5705 : 		DataSend(lpObj->m_Index, (LPBYTE)&pMsg, pMsg.h.size);

  0023d	0f b6 55 ed	 movzx	 edx, BYTE PTR _pMsg$[ebp+1]
  00241	8b 0b		 mov	 ecx, DWORD PTR [ebx]
  00243	52		 push	 edx
  00244	8d 45 ec	 lea	 eax, DWORD PTR _pMsg$[ebp]
  00247	50		 push	 eax
  00248	51		 push	 ecx
  00249	c6 45 ef 02	 mov	 BYTE PTR _pMsg$[ebp+3], 2
  0024d	e8 00 00 00 00	 call	 ?DataSend@@YAHHPAEK@Z	; DataSend
  00252	83 c4 0c	 add	 esp, 12			; 0000000cH

; 5706 : 		lpObj->ChaosLock = FALSE;

  00255	c7 83 88 0e 00
	00 00 00 00 00	 mov	 DWORD PTR [ebx+3720], 0

; 5762 : }

  0025f	5f		 pop	 edi
  00260	5e		 pop	 esi
  00261	5b		 pop	 ebx
  00262	8b 4d fc	 mov	 ecx, DWORD PTR __$ArrayPad$[ebp]
  00265	33 cd		 xor	 ecx, ebp
  00267	e8 00 00 00 00	 call	 @__security_check_cookie@4
  0026c	8b e5		 mov	 esp, ebp
  0026e	5d		 pop	 ebp
  0026f	c2 08 00	 ret	 8
$LN3@SocketSetS:

; 5707 : 		return;
; 5708 : 	}
; 5709 : 
; 5710 : 	LogChaosItem(lpObj, "SetSeedSphere");

  00272	8b 8d f8 fe ff
	ff		 mov	 ecx, DWORD PTR _this$[ebp]
  00278	68 00 00 00 00	 push	 OFFSET ??_C@_0O@CGCDEDIJ@SetSeedSphere?$AA@
  0027d	53		 push	 ebx
  0027e	e8 00 00 00 00	 call	 ?LogChaosItem@CMixSystem@@QAEXPAUOBJECTSTRUCT@@PAD@Z ; CMixSystem::LogChaosItem

; 5711 : 	
; 5712 : 	BYTE SocketByteOption = 0;
; 5713 : 	SocketByteOption = g_SocketOption.GetItemSocketByteOption(pSeedSpearItem->m_Type, pSeedSpearItem->m_Level);

  00283	8b 85 10 ff ff
	ff		 mov	 eax, DWORD PTR _pSeedSpearItem$[ebp]
  00289	0f b6 50 08	 movzx	 edx, BYTE PTR [eax+8]
  0028d	0f b7 40 06	 movzx	 eax, WORD PTR [eax+6]
  00291	52		 push	 edx
  00292	50		 push	 eax
  00293	b9 00 00 00 00	 mov	 ecx, OFFSET ?g_SocketOption@@3VCSocketOption@@A ; g_SocketOption
  00298	e8 00 00 00 00	 call	 ?GetItemSocketByteOption@CSocketOption@@QAEEGE@Z ; CSocketOption::GetItemSocketByteOption
  0029d	88 85 10 ff ff
	ff		 mov	 BYTE PTR _SocketByteOption$[ebp], al

; 5714 : 
; 5715 : 	if(SocketByteOption == 0xFF)

  002a3	3c ff		 cmp	 al, 255			; 000000ffH
  002a5	75 48		 jne	 SHORT $LN2@SocketSetS

; 5716 : 	{
; 5717 : 		pMsg.Result = 7;
; 5718 : 		DataSend(lpObj->m_Index, (LPBYTE)&pMsg, pMsg.h.size);

  002a7	0f b6 4d ed	 movzx	 ecx, BYTE PTR _pMsg$[ebp+1]
  002ab	8b 03		 mov	 eax, DWORD PTR [ebx]
  002ad	51		 push	 ecx
  002ae	8d 55 ec	 lea	 edx, DWORD PTR _pMsg$[ebp]
  002b1	52		 push	 edx
  002b2	50		 push	 eax
  002b3	c6 45 ef 07	 mov	 BYTE PTR _pMsg$[ebp+3], 7
  002b7	e8 00 00 00 00	 call	 ?DataSend@@YAHHPAEK@Z	; DataSend

; 5719 : 		lpObj->ChaosLock = FALSE;
; 5720 : 		LogAddTD("[%s][%s] Set Seed Mix Failed - SeedSphere is NULL", lpObj->AccountID, lpObj->Name);

  002bc	8d 4b 77	 lea	 ecx, DWORD PTR [ebx+119]
  002bf	c7 83 88 0e 00
	00 00 00 00 00	 mov	 DWORD PTR [ebx+3720], 0
  002c9	51		 push	 ecx
  002ca	83 c3 6c	 add	 ebx, 108		; 0000006cH
  002cd	53		 push	 ebx
  002ce	68 00 00 00 00	 push	 OFFSET ??_C@_0DC@BKFDMAJM@?$FL?$CFs?$FN?$FL?$CFs?$FN?5Set?5Seed?5Mix?5Failed?5?9?5S@
  002d3	ff 15 00 00 00
	00		 call	 DWORD PTR ?LogAddTD@@3P6AXPADZZA ; LogAddTD
  002d9	83 c4 18	 add	 esp, 24			; 00000018H

; 5762 : }

  002dc	5f		 pop	 edi
  002dd	5e		 pop	 esi
  002de	5b		 pop	 ebx
  002df	8b 4d fc	 mov	 ecx, DWORD PTR __$ArrayPad$[ebp]
  002e2	33 cd		 xor	 ecx, ebp
  002e4	e8 00 00 00 00	 call	 @__security_check_cookie@4
  002e9	8b e5		 mov	 esp, ebp
  002eb	5d		 pop	 ebp
  002ec	c2 08 00	 ret	 8
$LN2@SocketSetS:

; 5721 : 		return;
; 5722 : 	}
; 5723 : 
; 5724 : 	if( g_SocketOption.CheckItemElementInfo(pSocketItem, SocketByteOption) == 0 )

  002ef	8b 95 10 ff ff
	ff		 mov	 edx, DWORD PTR _SocketByteOption$[ebp]
  002f5	52		 push	 edx
  002f6	56		 push	 esi
  002f7	b9 00 00 00 00	 mov	 ecx, OFFSET ?g_SocketOption@@3VCSocketOption@@A ; g_SocketOption
  002fc	e8 00 00 00 00	 call	 ?CheckItemElementInfo@CSocketOption@@QAEEPAVCItem@@E@Z ; CSocketOption::CheckItemElementInfo
  00301	84 c0		 test	 al, al
  00303	75 48		 jne	 SHORT $LN1@SocketSetS

; 5725 : 	{
; 5726 : 		pMsg.Result = 7;
; 5727 : 		DataSend(lpObj->m_Index, (LPBYTE)&pMsg, pMsg.h.size);

  00305	0f b6 45 ed	 movzx	 eax, BYTE PTR _pMsg$[ebp+1]
  00309	8b 13		 mov	 edx, DWORD PTR [ebx]
  0030b	50		 push	 eax
  0030c	8d 4d ec	 lea	 ecx, DWORD PTR _pMsg$[ebp]
  0030f	51		 push	 ecx
  00310	52		 push	 edx
  00311	c6 45 ef 07	 mov	 BYTE PTR _pMsg$[ebp+3], 7
  00315	e8 00 00 00 00	 call	 ?DataSend@@YAHHPAEK@Z	; DataSend

; 5728 : 		lpObj->ChaosLock = FALSE;
; 5729 : 		LogAddTD("[%s][%s] Set Seed Mix Failed - Wrong Item Type for Set Socket", lpObj->AccountID, lpObj->Name);

  0031a	8d 43 77	 lea	 eax, DWORD PTR [ebx+119]
  0031d	c7 83 88 0e 00
	00 00 00 00 00	 mov	 DWORD PTR [ebx+3720], 0
  00327	50		 push	 eax
  00328	83 c3 6c	 add	 ebx, 108		; 0000006cH
  0032b	53		 push	 ebx
  0032c	68 00 00 00 00	 push	 OFFSET ??_C@_0DO@KKBOJPIF@?$FL?$CFs?$FN?$FL?$CFs?$FN?5Set?5Seed?5Mix?5Failed?5?9?5W@
  00331	ff 15 00 00 00
	00		 call	 DWORD PTR ?LogAddTD@@3P6AXPADZZA ; LogAddTD
  00337	83 c4 18	 add	 esp, 24			; 00000018H

; 5762 : }

  0033a	5f		 pop	 edi
  0033b	5e		 pop	 esi
  0033c	5b		 pop	 ebx
  0033d	8b 4d fc	 mov	 ecx, DWORD PTR __$ArrayPad$[ebp]
  00340	33 cd		 xor	 ecx, ebp
  00342	e8 00 00 00 00	 call	 @__security_check_cookie@4
  00347	8b e5		 mov	 esp, ebp
  00349	5d		 pop	 ebp
  0034a	c2 08 00	 ret	 8
$LN1@SocketSetS:

; 5730 : 		return;
; 5731 : 	}
; 5732 : 
; 5733 : 	lpObj->Money -= iMixMoney;

  0034d	8b 8d 0c ff ff
	ff		 mov	 ecx, DWORD PTR _iMixMoney$[ebp]
  00353	29 8b f0 00 00
	00		 sub	 DWORD PTR [ebx+240], ecx

; 5734 : 	g_CastleSiegeSync.AddTributeMoney(iChaosTaxMoney);

  00359	57		 push	 edi
  0035a	b9 00 00 00 00	 mov	 ecx, OFFSET ?g_CastleSiegeSync@@3VCCastleSiegeSync@@A ; g_CastleSiegeSync
  0035f	e8 00 00 00 00	 call	 ?AddTributeMoney@CCastleSiegeSync@@QAEXH@Z ; CCastleSiegeSync::AddTributeMoney

; 5735 : 	GCMoneySend(lpObj->m_Index, lpObj->Money);

  00364	8b 93 f0 00 00
	00		 mov	 edx, DWORD PTR [ebx+240]
  0036a	8b 03		 mov	 eax, DWORD PTR [ebx]
  0036c	52		 push	 edx
  0036d	50		 push	 eax
  0036e	e8 00 00 00 00	 call	 ?GCMoneySend@@YAXHK@Z	; GCMoneySend

; 5736 : 
; 5737 : 	g_SocketOption.MakeManualOption(pSocketItem, SocketByteOption, SocketSlot); //Apply Visual Info

  00373	8b 8d 14 ff ff
	ff		 mov	 ecx, DWORD PTR _SocketSlot$GSCopy$[ebp]
  00379	8b 95 10 ff ff
	ff		 mov	 edx, DWORD PTR _SocketByteOption$[ebp]
  0037f	83 c4 08	 add	 esp, 8
  00382	51		 push	 ecx
  00383	52		 push	 edx
  00384	56		 push	 esi
  00385	b9 00 00 00 00	 mov	 ecx, OFFSET ?g_SocketOption@@3VCSocketOption@@A ; g_SocketOption
  0038a	e8 00 00 00 00	 call	 ?MakeManualOption@CSocketOption@@QAEEPAVCItem@@EE@Z ; CSocketOption::MakeManualOption

; 5738 : 
; 5739 : 	float Dur = (float)ItemGetDurability(pSocketItem->m_Type, pSocketItem->m_Level, pSocketItem->IsExtItem(), pSocketItem->IsSetItem());

  0038f	8b ce		 mov	 ecx, esi
  00391	e8 00 00 00 00	 call	 ?IsSetItem@CItem@@QAEHXZ ; CItem::IsSetItem
  00396	50		 push	 eax
  00397	8b ce		 mov	 ecx, esi
  00399	e8 00 00 00 00	 call	 ?IsExtItem@CItem@@QAEHXZ ; CItem::IsExtItem
  0039e	0f bf 4e 06	 movsx	 ecx, WORD PTR [esi+6]
  003a2	50		 push	 eax
  003a3	0f bf 46 08	 movsx	 eax, WORD PTR [esi+8]
  003a7	50		 push	 eax
  003a8	51		 push	 ecx
  003a9	e8 00 00 00 00	 call	 ?ItemGetDurability@@YAHHHHH@Z ; ItemGetDurability

; 5740 : 
; 5741 : 	Item.m_Number = pSocketItem->m_Number;

  003ae	8b 16		 mov	 edx, DWORD PTR [esi]
  003b0	89 95 18 ff ff
	ff		 mov	 DWORD PTR _Item$[ebp], edx
  003b6	89 85 14 ff ff
	ff		 mov	 DWORD PTR tv551[ebp], eax

; 5742 : 	Item.m_Level = pSocketItem->m_Level;

  003bc	66 8b 46 08	 mov	 ax, WORD PTR [esi+8]
  003c0	db 85 14 ff ff
	ff		 fild	 DWORD PTR tv551[ebp]
  003c6	66 89 85 20 ff
	ff ff		 mov	 WORD PTR _Item$[ebp+8], ax
  003cd	83 c4 10	 add	 esp, 16			; 00000010H

; 5743 : 	Item.m_Durability = Dur * pSocketItem->m_Durability / pSocketItem->m_BaseDurability;
; 5744 : 	Item.m_JewelOfHarmonyOption = pSocketItem->m_JewelOfHarmonyOption;
; 5745 : 
; 5746 : 	Item.Convert(pSocketItem->m_Type, pSocketItem->m_Option1, pSocketItem->m_Option2, pSocketItem->m_Option3, pSocketItem->m_NewOption,
; 5747 : 				pSocketItem->m_SetOption, pSocketItem->m_ItemOptionEx, pSocketItem->m_SocketOption, pSocketItem->m_SocketOptionIndex, 0, CURRENT_DB_VERSION);

  003d0	6a 03		 push	 3
  003d2	d9 9d 14 ff ff
	ff		 fstp	 DWORD PTR _Dur$[ebp]
  003d8	6a 00		 push	 0
  003da	d9 46 24	 fld	 DWORD PTR [esi+36]
  003dd	8d 86 cc 00 00
	00		 lea	 eax, DWORD PTR [esi+204]
  003e3	d8 8d 14 ff ff
	ff		 fmul	 DWORD PTR _Dur$[ebp]
  003e9	d8 76 2c	 fdiv	 DWORD PTR [esi+44]
  003ec	d9 9d 3c ff ff
	ff		 fstp	 DWORD PTR _Item$[ebp+36]
  003f2	8a 8e c4 00 00
	00		 mov	 cl, BYTE PTR [esi+196]
  003f8	88 4d dc	 mov	 BYTE PTR _Item$[ebp+196], cl
  003fb	0f b6 96 cb 00
	00 00		 movzx	 edx, BYTE PTR [esi+203]
  00402	0f b6 8e ca 00
	00 00		 movzx	 ecx, BYTE PTR [esi+202]
  00409	52		 push	 edx
  0040a	0f b6 96 ae 00
	00 00		 movzx	 edx, BYTE PTR [esi+174]
  00411	50		 push	 eax
  00412	0f b6 86 97 00
	00 00		 movzx	 eax, BYTE PTR [esi+151]
  00419	51		 push	 ecx
  0041a	0f b6 8e 96 00
	00 00		 movzx	 ecx, BYTE PTR [esi+150]
  00421	52		 push	 edx
  00422	0f b6 96 95 00
	00 00		 movzx	 edx, BYTE PTR [esi+149]
  00429	50		 push	 eax
  0042a	0f b6 86 94 00
	00 00		 movzx	 eax, BYTE PTR [esi+148]
  00431	51		 push	 ecx
  00432	0f bf 4e 06	 movsx	 ecx, WORD PTR [esi+6]
  00436	52		 push	 edx
  00437	50		 push	 eax
  00438	51		 push	 ecx
  00439	8d 8d 18 ff ff
	ff		 lea	 ecx, DWORD PTR _Item$[ebp]
  0043f	e8 00 00 00 00	 call	 ?Convert@CItem@@QAEXHEEEEEEPAEEEE@Z ; CItem::Convert

; 5748 : 
; 5749 : 	lpObj->ChaosLock = FALSE;
; 5750 : 
; 5751 : 	ItemByteConvert(pMsg.ItemInfo, Item);

  00444	81 ec d4 00 00
	00		 sub	 esp, 212		; 000000d4H
  0044a	8d 55 f0	 lea	 edx, DWORD PTR _pMsg$[ebp+4]
  0044d	8b fc		 mov	 edi, esp
  0044f	b9 35 00 00 00	 mov	 ecx, 53			; 00000035H
  00454	8d b5 18 ff ff
	ff		 lea	 esi, DWORD PTR _Item$[ebp]
  0045a	52		 push	 edx
  0045b	c7 83 88 0e 00
	00 00 00 00 00	 mov	 DWORD PTR [ebx+3720], 0
  00465	f3 a5		 rep movsd
  00467	e8 00 00 00 00	 call	 ?ItemByteConvert@@YAXPAEVCItem@@@Z ; ItemByteConvert

; 5752 : 	this->ChaosBoxInit(lpObj);

  0046c	8b 8d f8 fe ff
	ff		 mov	 ecx, DWORD PTR _this$[ebp]
  00472	81 c4 d8 00 00
	00		 add	 esp, 216		; 000000d8H
  00478	53		 push	 ebx
  00479	e8 00 00 00 00	 call	 ?ChaosBoxInit@CMixSystem@@QAEHPAUOBJECTSTRUCT@@@Z ; CMixSystem::ChaosBoxInit

; 5753 : 	::gObjChaosBoxInsertItemPos(lpObj->m_Index, Item, 0, -1);

  0047e	6a ff		 push	 -1
  00480	6a 00		 push	 0
  00482	81 ec d4 00 00
	00		 sub	 esp, 212		; 000000d4H
  00488	8b 03		 mov	 eax, DWORD PTR [ebx]
  0048a	8b fc		 mov	 edi, esp
  0048c	b9 35 00 00 00	 mov	 ecx, 53			; 00000035H
  00491	8d b5 18 ff ff
	ff		 lea	 esi, DWORD PTR _Item$[ebp]
  00497	50		 push	 eax
  00498	f3 a5		 rep movsd
  0049a	e8 00 00 00 00	 call	 ?gObjChaosBoxInsertItemPos@@YAEHVCItem@@HH@Z ; gObjChaosBoxInsertItemPos

; 5754 : 	gObjChaosItemSet(lpObj->m_Index, 0, 1);

  0049f	8b 0b		 mov	 ecx, DWORD PTR [ebx]
  004a1	6a 01		 push	 1
  004a3	6a 00		 push	 0
  004a5	51		 push	 ecx
  004a6	e8 00 00 00 00	 call	 ?gObjChaosItemSet@@YAXHHE@Z ; gObjChaosItemSet
  004ab	81 c4 ec 00 00
	00		 add	 esp, 236		; 000000ecH

; 5755 : 	GCUserChaosBoxSend(lpObj, 0);

  004b1	6a 00		 push	 0
  004b3	53		 push	 ebx
  004b4	e8 00 00 00 00	 call	 ?GCUserChaosBoxSend@@YAXPAUOBJECTSTRUCT@@H@Z ; GCUserChaosBoxSend

; 5756 :     
; 5757 : 	LogAddTD("[%s][%s] Set SeedSphere Mix Success - ItemInfo ( Name : %s, ItemCode : %d, Level : %d, SocketOption[%d,%d,%d,%d,%d], BonusOption : %d )",
; 5758 : 		lpObj->AccountID, lpObj->Name, ItemAttribute[Item.m_Type].Name, Item.m_Type, Item.m_Level, Item.m_SocketOption[0], Item.m_SocketOption[1],
; 5759 : 		Item.m_SocketOption[2], Item.m_SocketOption[3], Item.m_SocketOption[4], Item.m_SocketOptionIndex);

  004b9	0f b6 55 e3	 movzx	 edx, BYTE PTR _Item$[ebp+203]
  004bd	0f b6 4d e8	 movzx	 ecx, BYTE PTR _Item$[ebp+208]
  004c1	0f bf 85 1e ff
	ff ff		 movsx	 eax, WORD PTR _Item$[ebp+6]
  004c8	52		 push	 edx
  004c9	0f b6 55 e7	 movzx	 edx, BYTE PTR _Item$[ebp+207]
  004cd	51		 push	 ecx
  004ce	0f b6 4d e6	 movzx	 ecx, BYTE PTR _Item$[ebp+206]
  004d2	52		 push	 edx
  004d3	0f b6 55 e5	 movzx	 edx, BYTE PTR _Item$[ebp+205]
  004d7	51		 push	 ecx
  004d8	0f b6 4d e4	 movzx	 ecx, BYTE PTR _Item$[ebp+204]
  004dc	52		 push	 edx
  004dd	0f bf 95 20 ff
	ff ff		 movsx	 edx, WORD PTR _Item$[ebp+8]
  004e4	51		 push	 ecx
  004e5	52		 push	 edx
  004e6	50		 push	 eax
  004e7	6b c0 70	 imul	 eax, 112		; 00000070H
  004ea	05 00 00 00 00	 add	 eax, OFFSET ?ItemAttribute@@3PAUITEM_ATTRIBUTE@@A ; ItemAttribute
  004ef	50		 push	 eax
  004f0	8d 43 77	 lea	 eax, DWORD PTR [ebx+119]
  004f3	50		 push	 eax
  004f4	8d 4b 6c	 lea	 ecx, DWORD PTR [ebx+108]
  004f7	51		 push	 ecx
  004f8	68 00 00 00 00	 push	 OFFSET ??_C@_0II@KCLKEHBN@?$FL?$CFs?$FN?$FL?$CFs?$FN?5Set?5SeedSphere?5Mix?5Succ@
  004fd	ff 15 00 00 00
	00		 call	 DWORD PTR ?LogAddTD@@3P6AXPADZZA ; LogAddTD

; 5760 : 
; 5761 : 	DataSend(lpObj->m_Index, (LPBYTE)&pMsg, pMsg.h.size);

  00503	0f b6 55 ed	 movzx	 edx, BYTE PTR _pMsg$[ebp+1]
  00507	8b 0b		 mov	 ecx, DWORD PTR [ebx]
  00509	52		 push	 edx
  0050a	8d 45 ec	 lea	 eax, DWORD PTR _pMsg$[ebp]
  0050d	50		 push	 eax
  0050e	51		 push	 ecx
  0050f	e8 00 00 00 00	 call	 ?DataSend@@YAHHPAEK@Z	; DataSend

; 5762 : }

  00514	8b 4d fc	 mov	 ecx, DWORD PTR __$ArrayPad$[ebp]
  00517	83 c4 44	 add	 esp, 68			; 00000044H
  0051a	5f		 pop	 edi
  0051b	5e		 pop	 esi
  0051c	33 cd		 xor	 ecx, ebp
  0051e	5b		 pop	 ebx
  0051f	e8 00 00 00 00	 call	 @__security_check_cookie@4
  00524	8b e5		 mov	 esp, ebp
  00526	5d		 pop	 ebp
  00527	c2 08 00	 ret	 8
?SocketSetSeedSphere@CMixSystem@@QAEXPAUOBJECTSTRUCT@@E@Z ENDP ; CMixSystem::SocketSetSeedSphere
_TEXT	ENDS
PUBLIC	??_C@_0IH@MCNGCFGC@?$FL?$CFs?$FN?$FL?$CFs?$FN?5SeedSphere?5Remove?5Succe@ ; `string'
PUBLIC	??_C@_0BB@CFKCJMNE@SeedSphereRemove?$AA@	; `string'
PUBLIC	_SocketSlot$GSCopy$
PUBLIC	__$ArrayPad$
PUBLIC	?SocketRemoveSeedSphere@CMixSystem@@QAEXPAUOBJECTSTRUCT@@E@Z ; CMixSystem::SocketRemoveSeedSphere
EXTRN	?RemakeSocketOption@CSocketOption@@QAEEPAVCItem@@E@Z:PROC ; CSocketOption::RemakeSocketOption
EXTRN	?g_iSeedSphereRemoveMoney@@3HA:DWORD		; g_iSeedSphereRemoveMoney
;	COMDAT ??_C@_0IH@MCNGCFGC@?$FL?$CFs?$FN?$FL?$CFs?$FN?5SeedSphere?5Remove?5Succe@
CONST	SEGMENT
??_C@_0IH@MCNGCFGC@?$FL?$CFs?$FN?$FL?$CFs?$FN?5SeedSphere?5Remove?5Succe@ DB '['
	DB	'%s][%s] SeedSphere Remove Success - ItemInfo ( Name : %s, Ite'
	DB	'mCode : %d, Level : %d, SocketOption[%d,%d,%d,%d,%d], BonusOp'
	DB	'tion : %d )', 00H				; `string'
CONST	ENDS
;	COMDAT ??_C@_0BB@CFKCJMNE@SeedSphereRemove?$AA@
CONST	SEGMENT
??_C@_0BB@CFKCJMNE@SeedSphereRemove?$AA@ DB 'SeedSphereRemove', 00H ; `string'
; Function compile flags: /Ogtp
CONST	ENDS
;	COMDAT ?SocketRemoveSeedSphere@CMixSystem@@QAEXPAUOBJECTSTRUCT@@E@Z
_TEXT	SEGMENT
_this$ = -40						; size = 4
_SocketSlot$GSCopy$ = -36				; size = 1
_iSocketItemNum$ = -32					; size = 4
_iInvalidItemCount$ = -28				; size = 4
_iSocketItemCount$ = -24				; size = 4
_pMsg$ = -20						; size = 16
__$ArrayPad$ = -4					; size = 4
_lpObj$ = 8						; size = 4
_SocketSlot$ = 12					; size = 1
?SocketRemoveSeedSphere@CMixSystem@@QAEXPAUOBJECTSTRUCT@@E@Z PROC ; CMixSystem::SocketRemoveSeedSphere, COMDAT
; _this$ = ecx

; 5765 : {

  00000	55		 push	 ebp
  00001	8b ec		 mov	 ebp, esp
  00003	83 ec 28	 sub	 esp, 40			; 00000028H
  00006	a1 00 00 00 00	 mov	 eax, DWORD PTR ___security_cookie
  0000b	33 c5		 xor	 eax, ebp
  0000d	89 45 fc	 mov	 DWORD PTR __$ArrayPad$[ebp], eax
  00010	53		 push	 ebx
  00011	8a 5d 0c	 mov	 bl, BYTE PTR _SocketSlot$[ebp]
  00014	56		 push	 esi
  00015	8b 75 08	 mov	 esi, DWORD PTR _lpObj$[ebp]
  00018	57		 push	 edi

; 5766 : 	int iSocketItemCount = 0; //2
; 5767 : 	int iInvalidItemCount = 0; //3
; 5768 : 
; 5769 : 	int loc4 = 0;
; 5770 : 
; 5771 : 	int iSocketItemNum = 0; //5
; 5772 : 
; 5773 : 	int loc6 = 0;
; 5774 : 
; 5775 : 	int iMixMoney = 0; //7
; 5776 : 	int iChaosTaxMoney = 0; //8
; 5777 : 
; 5778 : 	PMSG_CHAOSMIXRESULT pMsg;
; 5779 : 	PHeadSetB((LPBYTE)&pMsg.h, 0x86, sizeof(PMSG_CHAOSMIXRESULT));

  00019	6a 10		 push	 16			; 00000010H
  0001b	33 ff		 xor	 edi, edi
  0001d	8d 45 ec	 lea	 eax, DWORD PTR _pMsg$[ebp]
  00020	68 86 00 00 00	 push	 134			; 00000086H
  00025	50		 push	 eax
  00026	89 4d d8	 mov	 DWORD PTR _this$[ebp], ecx
  00029	88 5d dc	 mov	 BYTE PTR _SocketSlot$GSCopy$[ebp], bl
  0002c	89 7d e8	 mov	 DWORD PTR _iSocketItemCount$[ebp], edi
  0002f	89 7d e4	 mov	 DWORD PTR _iInvalidItemCount$[ebp], edi
  00032	89 7d e0	 mov	 DWORD PTR _iSocketItemNum$[ebp], edi
  00035	e8 00 00 00 00	 call	 ?PHeadSetB@@YAXPAEEH@Z	; PHeadSetB
  0003a	83 c4 0c	 add	 esp, 12			; 0000000cH

; 5780 : 	pMsg.Result = CB_ERROR;

  0003d	c6 45 ef 00	 mov	 BYTE PTR _pMsg$[ebp+3], 0

; 5781 : 
; 5782 : 	if(SocketSlot >= 5)

  00041	80 fb 05	 cmp	 bl, 5
  00044	72 31		 jb	 SHORT $LN12@SocketRemo

; 5783 : 	{
; 5784 : 		pMsg.Result = 7;
; 5785 : 		DataSend(lpObj->m_Index, (LPBYTE)&pMsg, pMsg.h.size);

  00046	0f b6 4d ed	 movzx	 ecx, BYTE PTR _pMsg$[ebp+1]
  0004a	8b 06		 mov	 eax, DWORD PTR [esi]
  0004c	51		 push	 ecx
  0004d	8d 55 ec	 lea	 edx, DWORD PTR _pMsg$[ebp]
  00050	52		 push	 edx
  00051	50		 push	 eax
  00052	c6 45 ef 07	 mov	 BYTE PTR _pMsg$[ebp+3], 7
  00056	e8 00 00 00 00	 call	 ?DataSend@@YAHHPAEK@Z	; DataSend
  0005b	83 c4 0c	 add	 esp, 12			; 0000000cH

; 5786 : 		lpObj->ChaosLock = FALSE;

  0005e	89 be 88 0e 00
	00		 mov	 DWORD PTR [esi+3720], edi
  00064	5f		 pop	 edi
  00065	5e		 pop	 esi
  00066	5b		 pop	 ebx

; 5862 : }

  00067	8b 4d fc	 mov	 ecx, DWORD PTR __$ArrayPad$[ebp]
  0006a	33 cd		 xor	 ecx, ebp
  0006c	e8 00 00 00 00	 call	 @__security_check_cookie@4
  00071	8b e5		 mov	 esp, ebp
  00073	5d		 pop	 ebp
  00074	c2 08 00	 ret	 8
$LN12@SocketRemo:

; 5787 : 		return;
; 5788 : 	}
; 5789 : 
; 5790 : 	lpObj->ChaosLock = TRUE;

  00077	c7 86 88 0e 00
	00 01 00 00 00	 mov	 DWORD PTR [esi+3720], 1

; 5791 : 
; 5792 : 	for ( int n=0;n<CHAOS_BOX_SIZE;n++) //loc21

  00081	33 db		 xor	 ebx, ebx
$LL11@SocketRemo:

; 5793 : 	{
; 5794 : 		if ( lpObj->pChaosBox[n].IsItem() == TRUE )

  00083	8b 8e 78 0e 00
	00		 mov	 ecx, DWORD PTR [esi+3704]
  00089	03 cf		 add	 ecx, edi
  0008b	e8 00 00 00 00	 call	 ?IsItem@CItem@@QAEHXZ	; CItem::IsItem
  00090	83 f8 01	 cmp	 eax, 1
  00093	75 3e		 jne	 SHORT $LN10@SocketRemo

; 5795 : 		{
; 5796 : 			if( g_SocketOption.CheckItemType(lpObj->pChaosBox[n].m_Type) == 1)

  00095	8b 8e 78 0e 00
	00		 mov	 ecx, DWORD PTR [esi+3704]
  0009b	0f bf 54 39 06	 movsx	 edx, WORD PTR [ecx+edi+6]
  000a0	52		 push	 edx
  000a1	b9 00 00 00 00	 mov	 ecx, OFFSET ?g_SocketOption@@3VCSocketOption@@A ; g_SocketOption
  000a6	e8 00 00 00 00	 call	 ?CheckItemType@CSocketOption@@QAEEH@Z ; CSocketOption::CheckItemType
  000ab	3c 01		 cmp	 al, 1
  000ad	75 21		 jne	 SHORT $LN7@SocketRemo

; 5797 : 			{
; 5798 : 				if(lpObj->pChaosBox[n].m_SocketOption[SocketSlot] != 0xFE && lpObj->pChaosBox[n].m_SocketOption[SocketSlot] != 0xFF) //Slot with OPTION

  000af	0f b6 45 dc	 movzx	 eax, BYTE PTR _SocketSlot$GSCopy$[ebp]
  000b3	03 86 78 0e 00
	00		 add	 eax, DWORD PTR [esi+3704]
  000b9	8a 84 38 cc 00
	00 00		 mov	 al, BYTE PTR [eax+edi+204]
  000c0	3c fe		 cmp	 al, 254			; 000000feH
  000c2	74 0f		 je	 SHORT $LN10@SocketRemo
  000c4	3c ff		 cmp	 al, 255			; 000000ffH
  000c6	74 0b		 je	 SHORT $LN10@SocketRemo

; 5799 : 				{
; 5800 : 					iSocketItemCount++; //

  000c8	ff 45 e8	 inc	 DWORD PTR _iSocketItemCount$[ebp]

; 5801 : 					iSocketItemNum = n;

  000cb	89 5d e0	 mov	 DWORD PTR _iSocketItemNum$[ebp], ebx

; 5802 : 				}
; 5803 : 			}
; 5804 : 			else

  000ce	eb 03		 jmp	 SHORT $LN10@SocketRemo
$LN7@SocketRemo:

; 5805 : 			{
; 5806 : 				iInvalidItemCount++;

  000d0	ff 45 e4	 inc	 DWORD PTR _iInvalidItemCount$[ebp]
$LN10@SocketRemo:

; 5791 : 
; 5792 : 	for ( int n=0;n<CHAOS_BOX_SIZE;n++) //loc21

  000d3	81 c7 d4 00 00
	00		 add	 edi, 212		; 000000d4H
  000d9	43		 inc	 ebx
  000da	81 ff 80 1a 00
	00		 cmp	 edi, 6784		; 00001a80H
  000e0	7c a1		 jl	 SHORT $LL11@SocketRemo

; 5807 : 			}
; 5808 : 		}
; 5809 : 	}
; 5810 : 
; 5811 : 	if ( iInvalidItemCount > 0 )

  000e2	33 db		 xor	 ebx, ebx
  000e4	39 5d e4	 cmp	 DWORD PTR _iInvalidItemCount$[ebp], ebx
  000e7	7e 31		 jle	 SHORT $LN4@SocketRemo
$LN18@SocketRemo:

; 5812 : 	{
; 5813 : 		pMsg.Result = 7;
; 5814 : 		DataSend(lpObj->m_Index, (LPBYTE)&pMsg, pMsg.h.size);

  000e9	0f b6 4d ed	 movzx	 ecx, BYTE PTR _pMsg$[ebp+1]
  000ed	8b 06		 mov	 eax, DWORD PTR [esi]
  000ef	51		 push	 ecx
  000f0	8d 55 ec	 lea	 edx, DWORD PTR _pMsg$[ebp]
  000f3	52		 push	 edx
  000f4	50		 push	 eax
  000f5	c6 45 ef 07	 mov	 BYTE PTR _pMsg$[ebp+3], 7
  000f9	e8 00 00 00 00	 call	 ?DataSend@@YAHHPAEK@Z	; DataSend
  000fe	83 c4 0c	 add	 esp, 12			; 0000000cH
  00101	5f		 pop	 edi

; 5815 : 		lpObj->ChaosLock = FALSE;

  00102	89 9e 88 0e 00
	00		 mov	 DWORD PTR [esi+3720], ebx
  00108	5e		 pop	 esi
  00109	5b		 pop	 ebx

; 5862 : }

  0010a	8b 4d fc	 mov	 ecx, DWORD PTR __$ArrayPad$[ebp]
  0010d	33 cd		 xor	 ecx, ebp
  0010f	e8 00 00 00 00	 call	 @__security_check_cookie@4
  00114	8b e5		 mov	 esp, ebp
  00116	5d		 pop	 ebp
  00117	c2 08 00	 ret	 8
$LN4@SocketRemo:

; 5816 : 		return;
; 5817 : 	}
; 5818 : 
; 5819 : 	if(iSocketItemCount != 1)

  0011a	83 7d e8 01	 cmp	 DWORD PTR _iSocketItemCount$[ebp], 1

; 5820 : 	{
; 5821 : 		pMsg.Result = 7;
; 5822 : 		DataSend(lpObj->m_Index, (LPBYTE)&pMsg, pMsg.h.size);
; 5823 : 		lpObj->ChaosLock = FALSE;
; 5824 : 		return;

  0011e	75 c9		 jne	 SHORT $LN18@SocketRemo

; 5825 : 	}
; 5826 : 
; 5827 : 	iChaosTaxMoney = (int)((__int64)g_iSeedSphereRemoveMoney * (__int64)g_CastleSiegeSync.GetTaxRateChaos(lpObj->m_Index) / (__int64)100);

  00120	8b 0e		 mov	 ecx, DWORD PTR [esi]
  00122	51		 push	 ecx
  00123	b9 00 00 00 00	 mov	 ecx, OFFSET ?g_CastleSiegeSync@@3VCCastleSiegeSync@@A ; g_CastleSiegeSync
  00128	e8 00 00 00 00	 call	 ?GetTaxRateChaos@CCastleSiegeSync@@QAEHH@Z ; CCastleSiegeSync::GetTaxRateChaos
  0012d	8b 3d 00 00 00
	00		 mov	 edi, DWORD PTR ?g_iSeedSphereRemoveMoney@@3HA ; g_iSeedSphereRemoveMoney
  00133	f7 ef		 imul	 edi
  00135	53		 push	 ebx
  00136	6a 64		 push	 100			; 00000064H
  00138	52		 push	 edx
  00139	50		 push	 eax
  0013a	e8 00 00 00 00	 call	 __alldiv

; 5828 : 
; 5829 : 	if ( iChaosTaxMoney < 0 )

  0013f	3b c3		 cmp	 eax, ebx
  00141	7d 02		 jge	 SHORT $LN2@SocketRemo

; 5830 : 	{
; 5831 : 		iChaosTaxMoney = 0;

  00143	33 c0		 xor	 eax, eax
$LN2@SocketRemo:

; 5832 : 	}
; 5833 : 
; 5834 : 	iMixMoney = g_iSeedSphereRemoveMoney + iChaosTaxMoney;
; 5835 : 
; 5836 : 	if ( lpObj->Money < iMixMoney )

  00145	8b 8e f0 00 00
	00		 mov	 ecx, DWORD PTR [esi+240]
  0014b	8d 14 07	 lea	 edx, DWORD PTR [edi+eax]
  0014e	3b ca		 cmp	 ecx, edx
  00150	7d 31		 jge	 SHORT $LN1@SocketRemo

; 5837 : 	{
; 5838 : 		pMsg.Result = 2;
; 5839 : 		DataSend(lpObj->m_Index, (LPBYTE)&pMsg, pMsg.h.size);

  00152	0f b6 55 ed	 movzx	 edx, BYTE PTR _pMsg$[ebp+1]
  00156	8b 0e		 mov	 ecx, DWORD PTR [esi]
  00158	52		 push	 edx
  00159	8d 45 ec	 lea	 eax, DWORD PTR _pMsg$[ebp]
  0015c	50		 push	 eax
  0015d	51		 push	 ecx
  0015e	c6 45 ef 02	 mov	 BYTE PTR _pMsg$[ebp+3], 2
  00162	e8 00 00 00 00	 call	 ?DataSend@@YAHHPAEK@Z	; DataSend
  00167	83 c4 0c	 add	 esp, 12			; 0000000cH
  0016a	5f		 pop	 edi

; 5840 : 		lpObj->ChaosLock = FALSE;

  0016b	89 9e 88 0e 00
	00		 mov	 DWORD PTR [esi+3720], ebx
  00171	5e		 pop	 esi
  00172	5b		 pop	 ebx

; 5862 : }

  00173	8b 4d fc	 mov	 ecx, DWORD PTR __$ArrayPad$[ebp]
  00176	33 cd		 xor	 ecx, ebp
  00178	e8 00 00 00 00	 call	 @__security_check_cookie@4
  0017d	8b e5		 mov	 esp, ebp
  0017f	5d		 pop	 ebp
  00180	c2 08 00	 ret	 8
$LN1@SocketRemo:

; 5841 : 		return;
; 5842 : 	}
; 5843 : 
; 5844 : 	lpObj->Money -= iMixMoney;

  00183	2b ca		 sub	 ecx, edx
  00185	89 8e f0 00 00
	00		 mov	 DWORD PTR [esi+240], ecx

; 5845 : 	g_CastleSiegeSync.AddTributeMoney(iChaosTaxMoney);

  0018b	50		 push	 eax
  0018c	b9 00 00 00 00	 mov	 ecx, OFFSET ?g_CastleSiegeSync@@3VCCastleSiegeSync@@A ; g_CastleSiegeSync
  00191	e8 00 00 00 00	 call	 ?AddTributeMoney@CCastleSiegeSync@@QAEXH@Z ; CCastleSiegeSync::AddTributeMoney

; 5846 : 	GCMoneySend(lpObj->m_Index, lpObj->Money);

  00196	8b 96 f0 00 00
	00		 mov	 edx, DWORD PTR [esi+240]
  0019c	8b 06		 mov	 eax, DWORD PTR [esi]
  0019e	52		 push	 edx
  0019f	50		 push	 eax
  001a0	e8 00 00 00 00	 call	 ?GCMoneySend@@YAXHK@Z	; GCMoneySend

; 5847 : 
; 5848 : 	LogChaosItem(lpObj, "SeedSphereRemove");

  001a5	8b 4d d8	 mov	 ecx, DWORD PTR _this$[ebp]
  001a8	83 c4 08	 add	 esp, 8
  001ab	68 00 00 00 00	 push	 OFFSET ??_C@_0BB@CFKCJMNE@SeedSphereRemove?$AA@
  001b0	56		 push	 esi
  001b1	e8 00 00 00 00	 call	 ?LogChaosItem@CMixSystem@@QAEXPAUOBJECTSTRUCT@@PAD@Z ; CMixSystem::LogChaosItem

; 5849 : 	
; 5850 : 	g_SocketOption.RemakeSocketOption(&lpObj->pChaosBox[iSocketItemNum], SocketSlot);

  001b6	8b 7d e0	 mov	 edi, DWORD PTR _iSocketItemNum$[ebp]
  001b9	8b 4d dc	 mov	 ecx, DWORD PTR _SocketSlot$GSCopy$[ebp]
  001bc	69 ff d4 00 00
	00		 imul	 edi, 212		; 000000d4H
  001c2	8b 96 78 0e 00
	00		 mov	 edx, DWORD PTR [esi+3704]
  001c8	51		 push	 ecx
  001c9	03 d7		 add	 edx, edi
  001cb	52		 push	 edx
  001cc	b9 00 00 00 00	 mov	 ecx, OFFSET ?g_SocketOption@@3VCSocketOption@@A ; g_SocketOption
  001d1	e8 00 00 00 00	 call	 ?RemakeSocketOption@CSocketOption@@QAEEPAVCItem@@E@Z ; CSocketOption::RemakeSocketOption

; 5851 : 
; 5852 : 	lpObj->ChaosLock = FALSE;
; 5853 : 	gObjInventoryCommit(lpObj->m_Index);

  001d6	8b 06		 mov	 eax, DWORD PTR [esi]
  001d8	50		 push	 eax
  001d9	89 9e 88 0e 00
	00		 mov	 DWORD PTR [esi+3720], ebx
  001df	e8 00 00 00 00	 call	 ?gObjInventoryCommit@@YAHH@Z ; gObjInventoryCommit

; 5854 : 	GCUserChaosBoxSend(lpObj, 0);

  001e4	53		 push	 ebx
  001e5	56		 push	 esi
  001e6	e8 00 00 00 00	 call	 ?GCUserChaosBoxSend@@YAXPAUOBJECTSTRUCT@@H@Z ; GCUserChaosBoxSend

; 5855 : 
; 5856 : 	LogAddTD("[%s][%s] SeedSphere Remove Success - ItemInfo ( Name : %s, ItemCode : %d, Level : %d, SocketOption[%d,%d,%d,%d,%d], BonusOption : %d )",
; 5857 : 		lpObj->AccountID, lpObj->Name, ItemAttribute[lpObj->pChaosBox[iSocketItemNum].m_Type].Name, lpObj->pChaosBox[iSocketItemNum].m_Type, 
; 5858 : 		lpObj->pChaosBox[iSocketItemNum].m_Level, lpObj->pChaosBox[iSocketItemNum].m_SocketOption[0], lpObj->pChaosBox[iSocketItemNum].m_SocketOption[1],
; 5859 : 		lpObj->pChaosBox[iSocketItemNum].m_SocketOption[2], lpObj->pChaosBox[iSocketItemNum].m_SocketOption[3], lpObj->pChaosBox[iSocketItemNum].m_SocketOption[4], lpObj->pChaosBox[iSocketItemNum].m_SocketOptionIndex);

  001eb	8b 86 78 0e 00
	00		 mov	 eax, DWORD PTR [esi+3704]
  001f1	0f b6 94 38 cb
	00 00 00	 movzx	 edx, BYTE PTR [eax+edi+203]
  001f9	52		 push	 edx
  001fa	0f b6 94 38 d0
	00 00 00	 movzx	 edx, BYTE PTR [eax+edi+208]
  00202	03 c7		 add	 eax, edi
  00204	0f bf 48 06	 movsx	 ecx, WORD PTR [eax+6]
  00208	52		 push	 edx
  00209	0f b6 90 cf 00
	00 00		 movzx	 edx, BYTE PTR [eax+207]
  00210	52		 push	 edx
  00211	0f b6 90 ce 00
	00 00		 movzx	 edx, BYTE PTR [eax+206]
  00218	52		 push	 edx
  00219	0f b6 90 cd 00
	00 00		 movzx	 edx, BYTE PTR [eax+205]
  00220	52		 push	 edx
  00221	0f b6 90 cc 00
	00 00		 movzx	 edx, BYTE PTR [eax+204]
  00228	0f bf 40 08	 movsx	 eax, WORD PTR [eax+8]
  0022c	52		 push	 edx
  0022d	50		 push	 eax
  0022e	51		 push	 ecx
  0022f	6b c9 70	 imul	 ecx, 112		; 00000070H
  00232	81 c1 00 00 00
	00		 add	 ecx, OFFSET ?ItemAttribute@@3PAUITEM_ATTRIBUTE@@A ; ItemAttribute
  00238	51		 push	 ecx
  00239	8d 4e 77	 lea	 ecx, DWORD PTR [esi+119]
  0023c	51		 push	 ecx
  0023d	8d 56 6c	 lea	 edx, DWORD PTR [esi+108]
  00240	52		 push	 edx
  00241	68 00 00 00 00	 push	 OFFSET ??_C@_0IH@MCNGCFGC@?$FL?$CFs?$FN?$FL?$CFs?$FN?5SeedSphere?5Remove?5Succe@
  00246	ff 15 00 00 00
	00		 call	 DWORD PTR ?LogAddTD@@3P6AXPADZZA ; LogAddTD

; 5860 : 	
; 5861 : 	DataSend(lpObj->m_Index, (LPBYTE)&pMsg, pMsg.h.size);

  0024c	0f b6 45 ed	 movzx	 eax, BYTE PTR _pMsg$[ebp+1]
  00250	8b 16		 mov	 edx, DWORD PTR [esi]
  00252	50		 push	 eax
  00253	8d 4d ec	 lea	 ecx, DWORD PTR _pMsg$[ebp]
  00256	51		 push	 ecx
  00257	52		 push	 edx
  00258	e8 00 00 00 00	 call	 ?DataSend@@YAHHPAEK@Z	; DataSend

; 5862 : }

  0025d	8b 4d fc	 mov	 ecx, DWORD PTR __$ArrayPad$[ebp]
  00260	83 c4 48	 add	 esp, 72			; 00000048H
  00263	5f		 pop	 edi
  00264	5e		 pop	 esi
  00265	33 cd		 xor	 ecx, ebp
  00267	5b		 pop	 ebx
  00268	e8 00 00 00 00	 call	 @__security_check_cookie@4
  0026d	8b e5		 mov	 esp, ebp
  0026f	5d		 pop	 ebp
  00270	c2 08 00	 ret	 8
?SocketRemoveSeedSphere@CMixSystem@@QAEXPAUOBJECTSTRUCT@@E@Z ENDP ; CMixSystem::SocketRemoveSeedSphere
_TEXT	ENDS
PUBLIC	??_C@_0CM@KMEBIPLL@?$FLSecromiconMix?$FN?5?$CI?$CFs?$CJ?$CI?$CFs?$CJ?5Success@ ; `string'
PUBLIC	??_C@_0O@HBHEHHAN@SecromiconMix?$AA@		; `string'
PUBLIC	__$ArrayPad$
PUBLIC	?SecromiconMix@CMixSystem@@QAEXPAUOBJECTSTRUCT@@@Z ; CMixSystem::SecromiconMix
;	COMDAT ??_C@_0CM@KMEBIPLL@?$FLSecromiconMix?$FN?5?$CI?$CFs?$CJ?$CI?$CFs?$CJ?5Success@
CONST	SEGMENT
??_C@_0CM@KMEBIPLL@?$FLSecromiconMix?$FN?5?$CI?$CFs?$CJ?$CI?$CFs?$CJ?5Success@ DB '['
	DB	'SecromiconMix] (%s)(%s) Success ItemID: %d', 00H ; `string'
CONST	ENDS
;	COMDAT ??_C@_0O@HBHEHHAN@SecromiconMix?$AA@
CONST	SEGMENT
??_C@_0O@HBHEHHAN@SecromiconMix?$AA@ DB 'SecromiconMix', 00H ; `string'
; Function compile flags: /Ogtp
CONST	ENDS
;	COMDAT ?SecromiconMix@CMixSystem@@QAEXPAUOBJECTSTRUCT@@@Z
_TEXT	SEGMENT
_this$ = -48						; size = 4
_third$ = -44						; size = 4
_second$ = -40						; size = 4
_first$ = -36						; size = 4
_sixth$ = -32						; size = 4
_fifth$ = -28						; size = 4
_fourth$ = -24						; size = 4
_pMsg$ = -20						; size = 16
__$ArrayPad$ = -4					; size = 4
_lpObj$ = 8						; size = 4
?SecromiconMix@CMixSystem@@QAEXPAUOBJECTSTRUCT@@@Z PROC	; CMixSystem::SecromiconMix, COMDAT
; _this$ = ecx

; 5865 : {

  00000	55		 push	 ebp
  00001	8b ec		 mov	 ebp, esp
  00003	83 ec 30	 sub	 esp, 48			; 00000030H
  00006	a1 00 00 00 00	 mov	 eax, DWORD PTR ___security_cookie
  0000b	33 c5		 xor	 eax, ebp
  0000d	89 45 fc	 mov	 DWORD PTR __$ArrayPad$[ebp], eax
  00010	53		 push	 ebx
  00011	56		 push	 esi
  00012	8b 75 08	 mov	 esi, DWORD PTR _lpObj$[ebp]
  00015	57		 push	 edi

; 5866 : 	PMSG_CHAOSMIXRESULT pMsg;
; 5867 : 	PHeadSetB((LPBYTE)&pMsg.h, 0x86, sizeof(PMSG_CHAOSMIXRESULT));

  00016	6a 10		 push	 16			; 00000010H
  00018	8d 45 ec	 lea	 eax, DWORD PTR _pMsg$[ebp]
  0001b	68 86 00 00 00	 push	 134			; 00000086H
  00020	50		 push	 eax
  00021	89 4d d0	 mov	 DWORD PTR _this$[ebp], ecx
  00024	e8 00 00 00 00	 call	 ?PHeadSetB@@YAXPAEEH@Z	; PHeadSetB

; 5868 : 
; 5869 : 	int first = 0;

  00029	33 ff		 xor	 edi, edi
  0002b	83 c4 0c	 add	 esp, 12			; 0000000cH
  0002e	89 7d dc	 mov	 DWORD PTR _first$[ebp], edi

; 5870 : 	int second = 0;

  00031	89 7d d8	 mov	 DWORD PTR _second$[ebp], edi

; 5871 : 	int third = 0;

  00034	89 7d d4	 mov	 DWORD PTR _third$[ebp], edi

; 5872 : 	int fourth = 0;

  00037	89 7d e8	 mov	 DWORD PTR _fourth$[ebp], edi

; 5873 : 	int fifth = 0;

  0003a	89 7d e4	 mov	 DWORD PTR _fifth$[ebp], edi

; 5874 : 	int sixth = 0;

  0003d	89 7d e0	 mov	 DWORD PTR _sixth$[ebp], edi

; 5875 : 	int invalid = 0;

  00040	33 db		 xor	 ebx, ebx

; 5876 : 
; 5877 : 	lpObj->ChaosLock = TRUE;

  00042	c7 86 88 0e 00
	00 01 00 00 00	 mov	 DWORD PTR [esi+3720], 1
  0004c	8d 64 24 00	 npad	 4
$LL20@Secromicon:

; 5880 : 	{
; 5881 : 		if(lpObj->pChaosBox[n].IsItem() == TRUE)

  00050	8b 8e 78 0e 00
	00		 mov	 ecx, DWORD PTR [esi+3704]
  00056	03 cf		 add	 ecx, edi
  00058	e8 00 00 00 00	 call	 ?IsItem@CItem@@QAEHXZ	; CItem::IsItem
  0005d	b9 01 00 00 00	 mov	 ecx, 1
  00062	3b c1		 cmp	 eax, ecx
  00064	75 67		 jne	 SHORT $LN19@Secromicon

; 5882 : 		{
; 5883 : 			if(lpObj->pChaosBox[n].m_Type == ITEMGET(14,103))

  00066	8b 96 78 0e 00
	00		 mov	 edx, DWORD PTR [esi+3704]
  0006c	0f b7 44 3a 06	 movzx	 eax, WORD PTR [edx+edi+6]
  00071	ba 67 1c 00 00	 mov	 edx, 7271		; 00001c67H
  00076	66 3b c2	 cmp	 ax, dx
  00079	75 05		 jne	 SHORT $LN16@Secromicon

; 5884 : 				first++;

  0007b	01 4d dc	 add	 DWORD PTR _first$[ebp], ecx
  0007e	eb 4d		 jmp	 SHORT $LN19@Secromicon
$LN16@Secromicon:

; 5885 : 			else if(lpObj->pChaosBox[n].m_Type == ITEMGET(14,104))

  00080	ba 68 1c 00 00	 mov	 edx, 7272		; 00001c68H
  00085	66 3b c2	 cmp	 ax, dx
  00088	75 05		 jne	 SHORT $LN14@Secromicon

; 5886 : 				second++;

  0008a	01 4d d8	 add	 DWORD PTR _second$[ebp], ecx
  0008d	eb 3e		 jmp	 SHORT $LN19@Secromicon
$LN14@Secromicon:

; 5887 : 			else if(lpObj->pChaosBox[n].m_Type == ITEMGET(14,105))

  0008f	ba 69 1c 00 00	 mov	 edx, 7273		; 00001c69H
  00094	66 3b c2	 cmp	 ax, dx
  00097	75 05		 jne	 SHORT $LN12@Secromicon

; 5888 : 				third++;

  00099	01 4d d4	 add	 DWORD PTR _third$[ebp], ecx
  0009c	eb 2f		 jmp	 SHORT $LN19@Secromicon
$LN12@Secromicon:

; 5889 : 			else if(lpObj->pChaosBox[n].m_Type == ITEMGET(14,106))

  0009e	ba 6a 1c 00 00	 mov	 edx, 7274		; 00001c6aH
  000a3	66 3b c2	 cmp	 ax, dx
  000a6	75 05		 jne	 SHORT $LN10@Secromicon

; 5890 : 				fourth++;

  000a8	01 4d e8	 add	 DWORD PTR _fourth$[ebp], ecx
  000ab	eb 20		 jmp	 SHORT $LN19@Secromicon
$LN10@Secromicon:

; 5891 : 			else if(lpObj->pChaosBox[n].m_Type == ITEMGET(14,107))

  000ad	ba 6b 1c 00 00	 mov	 edx, 7275		; 00001c6bH
  000b2	66 3b c2	 cmp	 ax, dx
  000b5	75 05		 jne	 SHORT $LN8@Secromicon

; 5892 : 				fifth++;

  000b7	01 4d e4	 add	 DWORD PTR _fifth$[ebp], ecx
  000ba	eb 11		 jmp	 SHORT $LN19@Secromicon
$LN8@Secromicon:

; 5893 : 			else if(lpObj->pChaosBox[n].m_Type == ITEMGET(14,108))

  000bc	ba 6c 1c 00 00	 mov	 edx, 7276		; 00001c6cH
  000c1	66 3b c2	 cmp	 ax, dx
  000c4	75 05		 jne	 SHORT $LN6@Secromicon

; 5894 : 				sixth++;

  000c6	01 4d e0	 add	 DWORD PTR _sixth$[ebp], ecx

; 5895 : 			else

  000c9	eb 02		 jmp	 SHORT $LN19@Secromicon
$LN6@Secromicon:

; 5896 : 				invalid++;

  000cb	03 d9		 add	 ebx, ecx
$LN19@Secromicon:

; 5878 : 
; 5879 : 	for(int n=0;n<CHAOS_BOX_SIZE;++n)

  000cd	81 c7 d4 00 00
	00		 add	 edi, 212		; 000000d4H
  000d3	81 ff 80 1a 00
	00		 cmp	 edi, 6784		; 00001a80H
  000d9	0f 8c 71 ff ff
	ff		 jl	 $LL20@Secromicon

; 5897 : 		}
; 5898 : 	}
; 5899 : 
; 5900 : 	if(invalid)

  000df	85 db		 test	 ebx, ebx
  000e1	74 2b		 je	 SHORT $LN4@Secromicon

; 5901 : 	{
; 5902 : 		pMsg.Result = CB_INCORRECT_MIX_ITEMS;
; 5903 : 		DataSend(lpObj->m_Index, (LPBYTE)&pMsg, pMsg.h.size);

  000e3	0f b6 45 ed	 movzx	 eax, BYTE PTR _pMsg$[ebp+1]
  000e7	8b 16		 mov	 edx, DWORD PTR [esi]
  000e9	50		 push	 eax
  000ea	8d 4d ec	 lea	 ecx, DWORD PTR _pMsg$[ebp]
  000ed	51		 push	 ecx
  000ee	52		 push	 edx
  000ef	c6 45 ef 07	 mov	 BYTE PTR _pMsg$[ebp+3], 7
  000f3	e8 00 00 00 00	 call	 ?DataSend@@YAHHPAEK@Z	; DataSend
  000f8	83 c4 0c	 add	 esp, 12			; 0000000cH
  000fb	5f		 pop	 edi
  000fc	5e		 pop	 esi
  000fd	5b		 pop	 ebx

; 5933 : #endif
; 5934 : 	}
; 5935 : 	lpObj->ChaosLock = FALSE;
; 5936 : }

  000fe	8b 4d fc	 mov	 ecx, DWORD PTR __$ArrayPad$[ebp]
  00101	33 cd		 xor	 ecx, ebp
  00103	e8 00 00 00 00	 call	 @__security_check_cookie@4
  00108	8b e5		 mov	 esp, ebp
  0010a	5d		 pop	 ebp
  0010b	c2 04 00	 ret	 4
$LN4@Secromicon:

; 5904 : 		return;
; 5905 : 	}
; 5906 : 
; 5907 : 	if(first == 1 && second == 1 && third == 1 && fourth == 1 && fifth == 1 && sixth == 1)

  0010e	8b c1		 mov	 eax, ecx
  00110	39 45 dc	 cmp	 DWORD PTR _first$[ebp], eax
  00113	0f 85 08 01 00
	00		 jne	 $LN3@Secromicon
  00119	39 45 d8	 cmp	 DWORD PTR _second$[ebp], eax
  0011c	0f 85 ff 00 00
	00		 jne	 $LN3@Secromicon
  00122	39 45 d4	 cmp	 DWORD PTR _third$[ebp], eax
  00125	0f 85 f6 00 00
	00		 jne	 $LN3@Secromicon
  0012b	39 45 e8	 cmp	 DWORD PTR _fourth$[ebp], eax
  0012e	0f 85 ed 00 00
	00		 jne	 $LN3@Secromicon
  00134	39 45 e4	 cmp	 DWORD PTR _fifth$[ebp], eax
  00137	0f 85 e4 00 00
	00		 jne	 $LN3@Secromicon
  0013d	39 45 e0	 cmp	 DWORD PTR _sixth$[ebp], eax
  00140	0f 85 db 00 00
	00		 jne	 $LN3@Secromicon

; 5908 : 	{
; 5909 : 		int iMixCost = 1000000;	
; 5910 : 		int iMixTax = iMixCost * g_CastleSiegeSync.GetTaxRateChaos(lpObj->m_Index) / 100;

  00146	8b 06		 mov	 eax, DWORD PTR [esi]
  00148	50		 push	 eax
  00149	b9 00 00 00 00	 mov	 ecx, OFFSET ?g_CastleSiegeSync@@3VCCastleSiegeSync@@A ; g_CastleSiegeSync
  0014e	e8 00 00 00 00	 call	 ?GetTaxRateChaos@CCastleSiegeSync@@QAEHH@Z ; CCastleSiegeSync::GetTaxRateChaos
  00153	8b c8		 mov	 ecx, eax
  00155	69 c9 40 42 0f
	00		 imul	 ecx, 1000000		; 000f4240H
  0015b	b8 1f 85 eb 51	 mov	 eax, 1374389535		; 51eb851fH
  00160	f7 e9		 imul	 ecx
  00162	c1 fa 05	 sar	 edx, 5
  00165	8b fa		 mov	 edi, edx
  00167	c1 ef 1f	 shr	 edi, 31			; 0000001fH
  0016a	03 fa		 add	 edi, edx

; 5911 : 		if(iMixTax < 0)

  0016c	79 02		 jns	 SHORT $LN2@Secromicon

; 5912 : 			iMixTax = 0;

  0016e	33 ff		 xor	 edi, edi
$LN2@Secromicon:

; 5913 : 		iMixCost += iMixTax;

  00170	8d 9f 40 42 0f
	00		 lea	 ebx, DWORD PTR [edi+1000000]

; 5914 : 		if(lpObj->Money < iMixCost)

  00176	39 9e f0 00 00
	00		 cmp	 DWORD PTR [esi+240], ebx
  0017c	7d 1d		 jge	 SHORT $LN1@Secromicon

; 5915 : 		{
; 5916 : 			pMsg.Result = CB_NOT_ENOUGH_ZEN;
; 5917 : 			DataSend(lpObj->m_Index, (LPBYTE)&pMsg, pMsg.h.size);

  0017e	0f b6 4d ed	 movzx	 ecx, BYTE PTR _pMsg$[ebp+1]
  00182	8b 06		 mov	 eax, DWORD PTR [esi]
  00184	51		 push	 ecx
  00185	8d 55 ec	 lea	 edx, DWORD PTR _pMsg$[ebp]
  00188	52		 push	 edx
  00189	50		 push	 eax
  0018a	c6 45 ef 02	 mov	 BYTE PTR _pMsg$[ebp+3], 2
  0018e	e8 00 00 00 00	 call	 ?DataSend@@YAHHPAEK@Z	; DataSend
  00193	83 c4 0c	 add	 esp, 12			; 0000000cH

; 5918 : 			lpObj->ChaosLock = FALSE;
; 5919 : 			return;

  00196	e9 86 00 00 00	 jmp	 $LN3@Secromicon
$LN1@Secromicon:

; 5920 : 		}
; 5921 : 		LogChaosItem(lpObj, "SecromiconMix");

  0019b	8b 4d d0	 mov	 ecx, DWORD PTR _this$[ebp]
  0019e	68 00 00 00 00	 push	 OFFSET ??_C@_0O@HBHEHHAN@SecromiconMix?$AA@
  001a3	56		 push	 esi
  001a4	e8 00 00 00 00	 call	 ?LogChaosItem@CMixSystem@@QAEXPAUOBJECTSTRUCT@@PAD@Z ; CMixSystem::LogChaosItem

; 5922 : 		lpObj->Money -= iMixCost;

  001a9	29 9e f0 00 00
	00		 sub	 DWORD PTR [esi+240], ebx

; 5923 : 		g_CastleSiegeSync.AddTributeMoney(iMixTax);

  001af	57		 push	 edi
  001b0	b9 00 00 00 00	 mov	 ecx, OFFSET ?g_CastleSiegeSync@@3VCCastleSiegeSync@@A ; g_CastleSiegeSync
  001b5	e8 00 00 00 00	 call	 ?AddTributeMoney@CCastleSiegeSync@@QAEXH@Z ; CCastleSiegeSync::AddTributeMoney

; 5924 : 		GCMoneySend(lpObj->m_Index, lpObj->Money);

  001ba	8b 8e f0 00 00
	00		 mov	 ecx, DWORD PTR [esi+240]
  001c0	8b 16		 mov	 edx, DWORD PTR [esi]
  001c2	51		 push	 ecx
  001c3	52		 push	 edx
  001c4	e8 00 00 00 00	 call	 ?GCMoneySend@@YAXHK@Z	; GCMoneySend

; 5925 : 
; 5926 : 		ItemSerialCreateSend(lpObj->m_Index, 255, 0, 0,ITEMGET(14,109), 0, 0, 0, 0, 0, lpObj->m_Index, 0, 0);

  001c9	8b 06		 mov	 eax, DWORD PTR [esi]
  001cb	6a 00		 push	 0
  001cd	6a 00		 push	 0
  001cf	50		 push	 eax
  001d0	6a 00		 push	 0
  001d2	6a 00		 push	 0
  001d4	6a 00		 push	 0
  001d6	6a 00		 push	 0
  001d8	6a 00		 push	 0
  001da	68 6d 1c 00 00	 push	 7277			; 00001c6dH
  001df	6a 00		 push	 0
  001e1	6a 00		 push	 0
  001e3	68 ff 00 00 00	 push	 255			; 000000ffH
  001e8	50		 push	 eax
  001e9	e8 00 00 00 00	 call	 ?ItemSerialCreateSend@@YAXHEEEHEEEEEHEE@Z ; ItemSerialCreateSend

; 5927 : 		gObjInventoryCommit(lpObj->m_Index);

  001ee	8b 06		 mov	 eax, DWORD PTR [esi]
  001f0	50		 push	 eax
  001f1	e8 00 00 00 00	 call	 ?gObjInventoryCommit@@YAHH@Z ; gObjInventoryCommit
  001f6	83 c4 40	 add	 esp, 64			; 00000040H

; 5928 : 
; 5929 : 		LogAdd("[SecromiconMix] (%s)(%s) Success ItemID: %d", lpObj->AccountID, lpObj->Name, ITEMGET(14,109));

  001f9	68 6d 1c 00 00	 push	 7277			; 00001c6dH
  001fe	8d 4e 77	 lea	 ecx, DWORD PTR [esi+119]
  00201	51		 push	 ecx
  00202	8d 56 6c	 lea	 edx, DWORD PTR [esi+108]
  00205	52		 push	 edx
  00206	68 00 00 00 00	 push	 OFFSET ??_C@_0CM@KMEBIPLL@?$FLSecromiconMix?$FN?5?$CI?$CFs?$CJ?$CI?$CFs?$CJ?5Success@
  0020b	ff 15 00 00 00
	00		 call	 DWORD PTR ?LogAdd@@3P6AXPADZZA ; LogAdd

; 5930 : 
; 5931 : #if(SYSTEM_ACHIEVEMENTS)
; 5932 : 		g_Achievements.SuccessChaosMix(lpObj->m_Index);

  00211	8b 06		 mov	 eax, DWORD PTR [esi]
  00213	83 c4 10	 add	 esp, 16			; 00000010H
  00216	50		 push	 eax
  00217	b9 00 00 00 00	 mov	 ecx, OFFSET ?g_Achievements@@3VCAchievements@@A ; g_Achievements
  0021c	e8 00 00 00 00	 call	 ?SuccessChaosMix@CAchievements@@QAEXH@Z ; CAchievements::SuccessChaosMix
$LN3@Secromicon:

; 5933 : #endif
; 5934 : 	}
; 5935 : 	lpObj->ChaosLock = FALSE;
; 5936 : }

  00221	8b 4d fc	 mov	 ecx, DWORD PTR __$ArrayPad$[ebp]
  00224	5f		 pop	 edi
  00225	c7 86 88 0e 00
	00 00 00 00 00	 mov	 DWORD PTR [esi+3720], 0
  0022f	5e		 pop	 esi
  00230	33 cd		 xor	 ecx, ebp
  00232	5b		 pop	 ebx
  00233	e8 00 00 00 00	 call	 @__security_check_cookie@4
  00238	8b e5		 mov	 esp, ebp
  0023a	5d		 pop	 ebp
  0023b	c2 04 00	 ret	 4
?SecromiconMix@CMixSystem@@QAEXPAUOBJECTSTRUCT@@@Z ENDP	; CMixSystem::SecromiconMix
_TEXT	ENDS
PUBLIC	??_C@_0DP@JHFONFJG@?$FL2?45?5Wings?5Mix?$FN?$FLLevel?502?$FN?5?$FL?$CFs?$FN?$FL?$CF@ ; `string'
PUBLIC	??_C@_0FC@GJLNHMHM@?$FL2?45?5Wings?5Mix?$FN?$FLLevel?502?$FN?5?$FL?$CFs?$FN?$FL?$CF@ ; `string'
PUBLIC	??_C@_0CK@OMLKNABI@?$FLThirdWing?5Mix?$FN?$FLLevel?502?$FN?5Chaos?5@ ; `string'
PUBLIC	??_C@_0BE@FCHPIPIA@ThirdWingLevel2_Mix?$AA@	; `string'
PUBLIC	__$ArrayPad$
PUBLIC	?MixWings2_5@CMixSystem@@QAEXPAUOBJECTSTRUCT@@@Z ; CMixSystem::MixWings2_5
;	COMDAT ??_C@_0DP@JHFONFJG@?$FL2?45?5Wings?5Mix?$FN?$FLLevel?502?$FN?5?$FL?$CFs?$FN?$FL?$CF@
; File d:\program files (x86)\microsoft visual studio 10.0\vc\include\time.inl
CONST	SEGMENT
??_C@_0DP@JHFONFJG@?$FL2?45?5Wings?5Mix?$FN?$FLLevel?502?$FN?5?$FL?$CFs?$FN?$FL?$CF@ DB '['
	DB	'2.5 Wings Mix][Level 02] [%s][%s] CBMix Fail %d Money : %d-%d'
	DB	00H						; `string'
CONST	ENDS
;	COMDAT ??_C@_0FC@GJLNHMHM@?$FL2?45?5Wings?5Mix?$FN?$FLLevel?502?$FN?5?$FL?$CFs?$FN?$FL?$CF@
CONST	SEGMENT
??_C@_0FC@GJLNHMHM@?$FL2?45?5Wings?5Mix?$FN?$FLLevel?502?$FN?5?$FL?$CFs?$FN?$FL?$CF@ DB '['
	DB	'2.5 Wings Mix][Level 02] [%s][%s] CBMix Success %d Money : %d'
	DB	'-%d, CharmRate : %d', 00H			; `string'
CONST	ENDS
;	COMDAT ??_C@_0CK@OMLKNABI@?$FLThirdWing?5Mix?$FN?$FLLevel?502?$FN?5Chaos?5@
CONST	SEGMENT
??_C@_0CK@OMLKNABI@?$FLThirdWing?5Mix?$FN?$FLLevel?502?$FN?5Chaos?5@ DB '['
	DB	'ThirdWing Mix][Level 02] Chaos Mix Start', 00H ; `string'
CONST	ENDS
;	COMDAT ??_C@_0BE@FCHPIPIA@ThirdWingLevel2_Mix?$AA@
CONST	SEGMENT
??_C@_0BE@FCHPIPIA@ThirdWingLevel2_Mix?$AA@ DB 'ThirdWingLevel2_Mix', 00H ; `string'
; Function compile flags: /Ogtp
; File e:\work\tranet_version\gs\gameserver\mixsystem.cpp
CONST	ENDS
;	COMDAT ?MixWings2_5@CMixSystem@@QAEXPAUOBJECTSTRUCT@@@Z
_TEXT	SEGMENT
_RateMix$ = -56						; size = 4
_NeedJewelOfChaos$ = -52				; size = 4
_NeedJewelOfCreatoion$ = -48				; size = 4
_NeedLochsFeather$ = -44				; size = 4
_Need2lvlWing$ = -40					; size = 4
tv643 = -36						; size = 4
_ItemLuckAdd$219992 = -36				; size = 4
_MixPercent$ = -32					; size = 4
_NeedError$ = -32					; size = 4
_ItemType$219986 = -28					; size = 4
_PlusProcent$ = -28					; size = 4
_ItemOptAdd$219994 = -24				; size = 4
_NeedExlItem$ = -24					; size = 4
_pMsg$ = -20						; size = 16
__$ArrayPad$ = -4					; size = 4
_lpObj$ = 8						; size = 4
?MixWings2_5@CMixSystem@@QAEXPAUOBJECTSTRUCT@@@Z PROC	; CMixSystem::MixWings2_5, COMDAT
; _this$ = ecx

; 5940 : {	

  00000	55		 push	 ebp
  00001	8b ec		 mov	 ebp, esp
  00003	83 ec 38	 sub	 esp, 56			; 00000038H
  00006	a1 00 00 00 00	 mov	 eax, DWORD PTR ___security_cookie
  0000b	33 c5		 xor	 eax, ebp
  0000d	89 45 fc	 mov	 DWORD PTR __$ArrayPad$[ebp], eax
  00010	53		 push	 ebx
  00011	56		 push	 esi
  00012	8b 75 08	 mov	 esi, DWORD PTR _lpObj$[ebp]
  00015	57		 push	 edi

; 5941 : 	PMSG_CHAOSMIXRESULT pMsg;
; 5942 : 
; 5943 : 	lpObj->ChaosLock = TRUE;
; 5944 : 
; 5945 : 	int NeedLochsFeather = 0;

  00016	33 db		 xor	 ebx, ebx

; 5946 : 	int NeedJewelOfChaos = 0;
; 5947 : 	int Need2lvlWing = 0;
; 5948 : 	int NeedJewelOfCreatoion = 0;
; 5949 : 	int NeedExlItem = 0;
; 5950 : 	int NeedMoney = 5000000;
; 5951 : 	int RateMix	= ZtConfig.CommonServer.Wing2_5MaxSuccessRate;
; 5952 : 	int NeedError = 0;
; 5953 : 	int MixLuckRate = 40;
; 5954 : 	int PlusProcent = 0;
; 5955 : 
; 5956 : 	
; 5957 : 
; 5958 : 	PHeadSetB((LPBYTE)&pMsg.h, 0x86, sizeof(PMSG_CHAOSMIXRESULT));

  00018	6a 10		 push	 16			; 00000010H
  0001a	8b f9		 mov	 edi, ecx
  0001c	c7 86 88 0e 00
	00 01 00 00 00	 mov	 DWORD PTR [esi+3720], 1
  00026	a1 9c 00 00 00	 mov	 eax, DWORD PTR ?ZtConfig@@3VcZtConfigs@@A+156
  0002b	8d 4d ec	 lea	 ecx, DWORD PTR _pMsg$[ebp]
  0002e	68 86 00 00 00	 push	 134			; 00000086H
  00033	51		 push	 ecx
  00034	89 5d d4	 mov	 DWORD PTR _NeedLochsFeather$[ebp], ebx
  00037	89 5d cc	 mov	 DWORD PTR _NeedJewelOfChaos$[ebp], ebx
  0003a	89 5d d8	 mov	 DWORD PTR _Need2lvlWing$[ebp], ebx
  0003d	89 5d d0	 mov	 DWORD PTR _NeedJewelOfCreatoion$[ebp], ebx
  00040	89 5d e8	 mov	 DWORD PTR _NeedExlItem$[ebp], ebx
  00043	89 45 c8	 mov	 DWORD PTR _RateMix$[ebp], eax
  00046	89 5d e0	 mov	 DWORD PTR _NeedError$[ebp], ebx
  00049	89 5d e4	 mov	 DWORD PTR _PlusProcent$[ebp], ebx
  0004c	e8 00 00 00 00	 call	 ?PHeadSetB@@YAXPAEEH@Z	; PHeadSetB
  00051	83 c4 0c	 add	 esp, 12			; 0000000cH

; 5959 : 	pMsg.Result = CB_ERROR;

  00054	88 5d ef	 mov	 BYTE PTR _pMsg$[ebp+3], bl

; 5962 : 	{
; 5963 : 		if ( lpObj->pChaosBox[n].IsItem() == TRUE )

  00057	89 5d dc	 mov	 DWORD PTR tv643[ebp], ebx
  0005a	8d 9b 00 00 00
	00		 npad	 6
$LL54@MixWings2_:
  00060	8b 8e 78 0e 00
	00		 mov	 ecx, DWORD PTR [esi+3704]
  00066	03 cb		 add	 ecx, ebx
  00068	e8 00 00 00 00	 call	 ?IsItem@CItem@@QAEHXZ	; CItem::IsItem
  0006d	83 f8 01	 cmp	 eax, 1
  00070	0f 85 93 00 00
	00		 jne	 $LN53@MixWings2_

; 5964 : 		{
; 5965 : 			if ( this->CheckLevel2WingItem(lpObj->pChaosBox[n].m_Type) != FALSE )

  00076	8b 96 78 0e 00
	00		 mov	 edx, DWORD PTR [esi+3704]
  0007c	0f b7 44 1a 06	 movzx	 eax, WORD PTR [edx+ebx+6]
  00081	03 d3		 add	 edx, ebx
  00083	0f bf d8	 movsx	 ebx, ax
  00086	53		 push	 ebx
  00087	8b cf		 mov	 ecx, edi
  00089	e8 00 00 00 00	 call	 ?CheckLevel2WingItem@CMixSystem@@QAEHH@Z ; CMixSystem::CheckLevel2WingItem
  0008e	85 c0		 test	 eax, eax
  00090	74 1b		 je	 SHORT $LN50@MixWings2_

; 5966 : 			{
; 5967 : 				if( this->CheckItemCondition(&lpObj->pChaosBox[n],9,0,0,1,0,0) != FALSE )

  00092	6a 00		 push	 0
  00094	6a 00		 push	 0
  00096	6a 01		 push	 1
  00098	6a 00		 push	 0
  0009a	6a 00		 push	 0
  0009c	6a 09		 push	 9
  0009e	52		 push	 edx
  0009f	e8 00 00 00 00	 call	 ?CheckItemCondition@CMixSystem@@QAEHPAVCItem@@FEEEEE@Z ; CMixSystem::CheckItemCondition
  000a4	85 c0		 test	 eax, eax
  000a6	74 61		 je	 SHORT $LN53@MixWings2_

; 5968 : 				{
; 5969 : 					Need2lvlWing++;

  000a8	ff 45 d8	 inc	 DWORD PTR _Need2lvlWing$[ebp]

; 5970 : 				}
; 5971 : 			}

  000ab	eb 5c		 jmp	 SHORT $LN53@MixWings2_
$LN50@MixWings2_:

; 5972 : 			else if( this->CheckItemCondition(&lpObj->pChaosBox[n],9,0,0,1,0,1) != FALSE )

  000ad	6a 01		 push	 1
  000af	6a 00		 push	 0
  000b1	6a 01		 push	 1
  000b3	6a 00		 push	 0
  000b5	6a 00		 push	 0
  000b7	6a 09		 push	 9
  000b9	52		 push	 edx
  000ba	e8 00 00 00 00	 call	 ?CheckItemCondition@CMixSystem@@QAEHPAVCItem@@FEEEEE@Z ; CMixSystem::CheckItemCondition
  000bf	85 c0		 test	 eax, eax
  000c1	74 05		 je	 SHORT $LN47@MixWings2_

; 5973 : 			{
; 5974 : 				NeedExlItem++;

  000c3	ff 45 e8	 inc	 DWORD PTR _NeedExlItem$[ebp]
  000c6	eb 41		 jmp	 SHORT $LN53@MixWings2_
$LN47@MixWings2_:

; 5975 : 			}
; 5976 : 			else if( lpObj->pChaosBox[n].m_Type == ITEMGET(13,14))	//pero

  000c8	0f b7 42 06	 movzx	 eax, WORD PTR [edx+6]
  000cc	b9 0e 1a 00 00	 mov	 ecx, 6670		; 00001a0eH
  000d1	66 3b c1	 cmp	 ax, cx
  000d4	75 05		 jne	 SHORT $LN45@MixWings2_

; 5977 : 			{
; 5978 : 				NeedLochsFeather++;

  000d6	ff 45 d4	 inc	 DWORD PTR _NeedLochsFeather$[ebp]
  000d9	eb 2e		 jmp	 SHORT $LN53@MixWings2_
$LN45@MixWings2_:

; 5979 : 			}
; 5980 : 			else if( lpObj->pChaosBox[n].m_Type == this->iJewelofChaos)

  000db	3b 5f 04	 cmp	 ebx, DWORD PTR [edi+4]
  000de	75 05		 jne	 SHORT $LN43@MixWings2_

; 5981 : 			{
; 5982 : 				NeedJewelOfChaos++;

  000e0	ff 45 cc	 inc	 DWORD PTR _NeedJewelOfChaos$[ebp]
  000e3	eb 24		 jmp	 SHORT $LN53@MixWings2_
$LN43@MixWings2_:

; 5983 : 			}
; 5984 : 			else if( lpObj->pChaosBox[n].m_Type == this->iJewelofCreation)

  000e5	3b 5f 10	 cmp	 ebx, DWORD PTR [edi+16]
  000e8	75 05		 jne	 SHORT $LN41@MixWings2_

; 5985 : 			{
; 5986 : 				NeedJewelOfCreatoion++;

  000ea	ff 45 d0	 inc	 DWORD PTR _NeedJewelOfCreatoion$[ebp]
  000ed	eb 1a		 jmp	 SHORT $LN53@MixWings2_
$LN41@MixWings2_:

; 5987 : 			}
; 5988 : 			else if( lpObj->pChaosBox[n].m_Type == ITEMGET(14,53) )

  000ef	b9 35 1c 00 00	 mov	 ecx, 7221		; 00001c35H
  000f4	66 3b c1	 cmp	 ax, cx
  000f7	75 0d		 jne	 SHORT $LN39@MixWings2_

; 5989 : 			{
; 5990 : 				PlusProcent+= (int)lpObj->pChaosBox[n].m_Durability;

  000f9	d9 42 24	 fld	 DWORD PTR [edx+36]
  000fc	e8 00 00 00 00	 call	 __ftol2_sse
  00101	01 45 e4	 add	 DWORD PTR _PlusProcent$[ebp], eax

; 5991 : 			}
; 5992 : 			else

  00104	eb 03		 jmp	 SHORT $LN53@MixWings2_
$LN39@MixWings2_:

; 5993 : 			{
; 5994 : 				NeedError++;

  00106	ff 45 e0	 inc	 DWORD PTR _NeedError$[ebp]
$LN53@MixWings2_:

; 5960 : 
; 5961 : 	for ( int n=0;n<CHAOS_BOX_SIZE;n++) //loc16

  00109	8b 5d dc	 mov	 ebx, DWORD PTR tv643[ebp]
  0010c	81 c3 d4 00 00
	00		 add	 ebx, 212		; 000000d4H
  00112	89 5d dc	 mov	 DWORD PTR tv643[ebp], ebx
  00115	81 fb 80 1a 00
	00		 cmp	 ebx, 6784		; 00001a80H
  0011b	0f 8c 3f ff ff
	ff		 jl	 $LL54@MixWings2_

; 5995 : 			}
; 5996 : 		}
; 5997 : 	}
; 5998 : 
; 5999 : 	if(PlusProcent > 10)

  00121	83 7d e4 0a	 cmp	 DWORD PTR _PlusProcent$[ebp], 10 ; 0000000aH
  00125	7e 15		 jle	 SHORT $LN37@MixWings2_

; 6000 : 	{
; 6001 : 		pMsg.Result = 0xF0; //new macro
; 6002 : 		DataSend(lpObj->m_Index, (LPBYTE)&pMsg, pMsg.h.size);

  00127	0f b6 55 ed	 movzx	 edx, BYTE PTR _pMsg$[ebp+1]
  0012b	8b 0e		 mov	 ecx, DWORD PTR [esi]
  0012d	52		 push	 edx
  0012e	8d 45 ec	 lea	 eax, DWORD PTR _pMsg$[ebp]
  00131	50		 push	 eax
  00132	c6 45 ef f0	 mov	 BYTE PTR _pMsg$[ebp+3], 240 ; 000000f0H
  00136	51		 push	 ecx

; 6003 : 		lpObj->ChaosLock = FALSE;
; 6004 : 		return;

  00137	e9 28 03 00 00	 jmp	 $LN66@MixWings2_
$LN37@MixWings2_:

; 6005 : 	}
; 6006 : 
; 6007 : 	if(NeedExlItem < 1 || NeedLochsFeather != 1 || NeedJewelOfChaos != 1 || Need2lvlWing != 1 || NeedJewelOfCreatoion != 1 || NeedError > 0)

  0013c	b8 01 00 00 00	 mov	 eax, 1
  00141	39 45 e8	 cmp	 DWORD PTR _NeedExlItem$[ebp], eax
  00144	0f 8c 0a 03 00
	00		 jl	 $LN62@MixWings2_
  0014a	39 45 d4	 cmp	 DWORD PTR _NeedLochsFeather$[ebp], eax
  0014d	0f 85 01 03 00
	00		 jne	 $LN62@MixWings2_
  00153	39 45 cc	 cmp	 DWORD PTR _NeedJewelOfChaos$[ebp], eax
  00156	0f 85 f8 02 00
	00		 jne	 $LN62@MixWings2_
  0015c	39 45 d8	 cmp	 DWORD PTR _Need2lvlWing$[ebp], eax
  0015f	0f 85 ef 02 00
	00		 jne	 $LN62@MixWings2_
  00165	39 45 d0	 cmp	 DWORD PTR _NeedJewelOfCreatoion$[ebp], eax
  00168	0f 85 e6 02 00
	00		 jne	 $LN62@MixWings2_
  0016e	83 7d e0 00	 cmp	 DWORD PTR _NeedError$[ebp], 0
  00172	0f 8f dc 02 00
	00		 jg	 $LN62@MixWings2_

; 6011 : 		lpObj->ChaosLock = FALSE;
; 6012 : 		return;
; 6013 : 	}
; 6014 : 
; 6015 : 	LogChaosItem(lpObj, "ThirdWingLevel2_Mix");

  00178	68 00 00 00 00	 push	 OFFSET ??_C@_0BE@FCHPIPIA@ThirdWingLevel2_Mix?$AA@
  0017d	56		 push	 esi
  0017e	8b cf		 mov	 ecx, edi
  00180	e8 00 00 00 00	 call	 ?LogChaosItem@CMixSystem@@QAEXPAUOBJECTSTRUCT@@PAD@Z ; CMixSystem::LogChaosItem

; 6016 : 	LogAddTD("[ThirdWing Mix][Level 02] Chaos Mix Start");

  00185	68 00 00 00 00	 push	 OFFSET ??_C@_0CK@OMLKNABI@?$FLThirdWing?5Mix?$FN?$FLLevel?502?$FN?5Chaos?5@
  0018a	ff 15 00 00 00
	00		 call	 DWORD PTR ?LogAddTD@@3P6AXPADZZA ; LogAddTD

; 6017 : 
; 6018 : 	int iChaosTaxMoney = (int)((__int64)NeedMoney * (__int64)g_CastleSiegeSync.GetTaxRateChaos(lpObj->m_Index) / (__int64)100);

  00190	8b 16		 mov	 edx, DWORD PTR [esi]
  00192	83 c4 04	 add	 esp, 4
  00195	52		 push	 edx
  00196	b9 00 00 00 00	 mov	 ecx, OFFSET ?g_CastleSiegeSync@@3VCCastleSiegeSync@@A ; g_CastleSiegeSync
  0019b	e8 00 00 00 00	 call	 ?GetTaxRateChaos@CCastleSiegeSync@@QAEHH@Z ; CCastleSiegeSync::GetTaxRateChaos
  001a0	6a 00		 push	 0
  001a2	99		 cdq
  001a3	68 40 4b 4c 00	 push	 5000000			; 004c4b40H
  001a8	52		 push	 edx
  001a9	50		 push	 eax
  001aa	e8 00 00 00 00	 call	 __allmul
  001af	6a 00		 push	 0
  001b1	6a 64		 push	 100			; 00000064H
  001b3	52		 push	 edx
  001b4	50		 push	 eax
  001b5	e8 00 00 00 00	 call	 __alldiv

; 6019 : 
; 6020 : 	if(iChaosTaxMoney < 0)

  001ba	85 c0		 test	 eax, eax
  001bc	79 02		 jns	 SHORT $LN34@MixWings2_

; 6021 : 	{
; 6022 : 		iChaosTaxMoney = 0;

  001be	33 c0		 xor	 eax, eax
$LN34@MixWings2_:

; 6023 : 	}
; 6024 : 
; 6025 : 	if ( lpObj->Money < NeedMoney )

  001c0	8b 8e f0 00 00
	00		 mov	 ecx, DWORD PTR [esi+240]
  001c6	81 f9 40 4b 4c
	00		 cmp	 ecx, 5000000		; 004c4b40H
  001cc	7d 15		 jge	 SHORT $LN33@MixWings2_

; 6026 : 	{
; 6027 : 		pMsg.Result = CB_NOT_ENOUGH_ZEN;
; 6028 : 
; 6029 : 		DataSend(lpObj->m_Index, (LPBYTE)&pMsg, pMsg.h.size);

  001ce	0f b6 45 ed	 movzx	 eax, BYTE PTR _pMsg$[ebp+1]
  001d2	8b 16		 mov	 edx, DWORD PTR [esi]
  001d4	50		 push	 eax
  001d5	8d 4d ec	 lea	 ecx, DWORD PTR _pMsg$[ebp]
  001d8	51		 push	 ecx
  001d9	c6 45 ef 02	 mov	 BYTE PTR _pMsg$[ebp+3], 2
  001dd	52		 push	 edx

; 6030 : 		lpObj->ChaosLock = FALSE;
; 6031 : 
; 6032 : 		return;

  001de	e9 81 02 00 00	 jmp	 $LN66@MixWings2_
$LN33@MixWings2_:

; 6033 : 	}
; 6034 : 
; 6035 : 	lpObj->Money -= NeedMoney;

  001e3	81 c1 c0 b4 b3
	ff		 add	 ecx, -5000000		; ffb3b4c0H
  001e9	89 8e f0 00 00
	00		 mov	 DWORD PTR [esi+240], ecx

; 6036 : 	g_CastleSiegeSync.AddTributeMoney(iChaosTaxMoney);

  001ef	50		 push	 eax
  001f0	b9 00 00 00 00	 mov	 ecx, OFFSET ?g_CastleSiegeSync@@3VCCastleSiegeSync@@A ; g_CastleSiegeSync
  001f5	e8 00 00 00 00	 call	 ?AddTributeMoney@CCastleSiegeSync@@QAEXH@Z ; CCastleSiegeSync::AddTributeMoney

; 6037 : 	GCMoneySend(lpObj->m_Index, lpObj->Money);

  001fa	8b 86 f0 00 00
	00		 mov	 eax, DWORD PTR [esi+240]
  00200	8b 0e		 mov	 ecx, DWORD PTR [esi]
  00202	50		 push	 eax
  00203	51		 push	 ecx
  00204	e8 00 00 00 00	 call	 ?GCMoneySend@@YAXHK@Z	; GCMoneySend

; 6038 : 
; 6039 : 	srand(time(NULL));

  00209	6a 00		 push	 0
  0020b	e8 00 00 00 00	 call	 __time64
  00210	50		 push	 eax
  00211	e8 00 00 00 00	 call	 _srand
  00216	83 c4 10	 add	 esp, 16			; 00000010H

; 6040 : 	int MixPercent = (rand()%100);

  00219	e8 00 00 00 00	 call	 _rand
  0021e	99		 cdq
  0021f	b9 64 00 00 00	 mov	 ecx, 100		; 00000064H
  00224	f7 f9		 idiv	 ecx
  00226	8b da		 mov	 ebx, edx
  00228	89 5d e0	 mov	 DWORD PTR _MixPercent$[ebp], ebx

; 6041 : 
; 6042 : 	if ( RateMix > MixPercent)

  0022b	39 5d c8	 cmp	 DWORD PTR _RateMix$[ebp], ebx
  0022e	0f 8e b2 01 00
	00		 jle	 $LN32@MixWings2_

; 6043 : 	{
; 6044 : 		
; 6045 : 		int loc18 = rand()%3;

  00234	e8 00 00 00 00	 call	 _rand
  00239	99		 cdq
  0023a	b9 03 00 00 00	 mov	 ecx, 3
  0023f	f7 f9		 idiv	 ecx

; 6046 : 		int ItemType = 0;

  00241	33 db		 xor	 ebx, ebx
  00243	89 5d e4	 mov	 DWORD PTR _ItemType$219986[ebp], ebx

; 6047 : 
; 6048 : 		if(loc18 == 0)

  00246	3b d3		 cmp	 edx, ebx
  00248	75 09		 jne	 SHORT $LN31@MixWings2_

; 6049 : 		{
; 6050 : 			ItemType = ITEMGET(12,186);

  0024a	c7 45 e4 ba 18
	00 00		 mov	 DWORD PTR _ItemType$219986[ebp], 6330 ; 000018baH
  00251	eb 1a		 jmp	 SHORT $LN27@MixWings2_
$LN31@MixWings2_:

; 6051 : 		}
; 6052 : 		else if( loc18 == 1)

  00253	83 fa 01	 cmp	 edx, 1
  00256	75 09		 jne	 SHORT $LN29@MixWings2_

; 6053 : 		{
; 6054 : 			ItemType = ITEMGET(12,187);

  00258	c7 45 e4 bb 18
	00 00		 mov	 DWORD PTR _ItemType$219986[ebp], 6331 ; 000018bbH
  0025f	eb 0c		 jmp	 SHORT $LN27@MixWings2_
$LN29@MixWings2_:

; 6055 : 		}
; 6056 : 		else if( loc18 == 2)

  00261	83 fa 02	 cmp	 edx, 2
  00264	75 07		 jne	 SHORT $LN27@MixWings2_

; 6057 : 		{
; 6058 : 			ItemType = ITEMGET(12,188);

  00266	c7 45 e4 bc 18
	00 00		 mov	 DWORD PTR _ItemType$219986[ebp], 6332 ; 000018bcH
$LN27@MixWings2_:

; 6059 : 		}
; 6060 : 
; 6061 : 		int ItemLuckAdd = 0;

  0026d	89 5d dc	 mov	 DWORD PTR _ItemLuckAdd$219992[ebp], ebx

; 6062 : 
; 6063 : 		if( (rand()%100) <= MixLuckRate )

  00270	e8 00 00 00 00	 call	 _rand
  00275	99		 cdq
  00276	b9 64 00 00 00	 mov	 ecx, 100		; 00000064H
  0027b	f7 f9		 idiv	 ecx
  0027d	83 fa 28	 cmp	 edx, 40			; 00000028H
  00280	7f 07		 jg	 SHORT $LN26@MixWings2_

; 6064 : 		{
; 6065 : 			ItemLuckAdd = 1;

  00282	c7 45 dc 01 00
	00 00		 mov	 DWORD PTR _ItemLuckAdd$219992[ebp], 1
$LN26@MixWings2_:

; 6066 : 		}
; 6067 : 
; 6068 : 		int ItemOptAdd = 0;

  00289	89 5d e8	 mov	 DWORD PTR _ItemOptAdd$219994[ebp], ebx

; 6069 : 		int loc23 = 0;
; 6070 : 		int loc24 = rand()%2;

  0028c	e8 00 00 00 00	 call	 _rand
  00291	25 01 00 00 80	 and	 eax, -2147483647	; 80000001H
  00296	79 05		 jns	 SHORT $LN63@MixWings2_
  00298	48		 dec	 eax
  00299	83 c8 fe	 or	 eax, -2			; fffffffeH
  0029c	40		 inc	 eax
$LN63@MixWings2_:

; 6071 : 		int loc25;
; 6072 : 		int loc26;
; 6073 : 		int loc27;
; 6074 : 		int loc28;
; 6075 : 		int loc29;
; 6076 : 
; 6077 : 		switch ( loc24 )

  0029d	83 e8 00	 sub	 eax, 0
  002a0	74 0f		 je	 SHORT $LN23@MixWings2_
  002a2	48		 dec	 eax
  002a3	75 26		 jne	 SHORT $LN22@MixWings2_

; 6084 : 			}
; 6085 : 			break;
; 6086 : 
; 6087 : 		case 1:
; 6088 : 			loc25 = rand()%1000;

  002a5	e8 00 00 00 00	 call	 _rand

; 6089 : 			if(loc24 < 300)
; 6090 : 			{
; 6091 : 				loc23 |= 0x20;

  002aa	bb 20 00 00 00	 mov	 ebx, 32			; 00000020H

; 6092 : 			}
; 6093 : 			break;

  002af	eb 1a		 jmp	 SHORT $LN22@MixWings2_
$LN23@MixWings2_:

; 6078 : 		{
; 6079 : 		case 0:
; 6080 : 			loc25 = rand()%1000;

  002b1	e8 00 00 00 00	 call	 _rand
  002b6	99		 cdq
  002b7	b9 e8 03 00 00	 mov	 ecx, 1000		; 000003e8H
  002bc	f7 f9		 idiv	 ecx

; 6081 : 			if(loc25 < 400)

  002be	81 fa 90 01 00
	00		 cmp	 edx, 400		; 00000190H
  002c4	7d 05		 jge	 SHORT $LN22@MixWings2_

; 6082 : 			{
; 6083 : 				loc23 |= 0x10;

  002c6	bb 10 00 00 00	 mov	 ebx, 16			; 00000010H
$LN22@MixWings2_:

; 6094 : 		}
; 6095 : 
; 6096 : 		loc26 = rand()%4;

  002cb	e8 00 00 00 00	 call	 _rand
  002d0	8b f8		 mov	 edi, eax
  002d2	81 e7 03 00 00
	80		 and	 edi, -2147483645	; 80000003H
  002d8	79 05		 jns	 SHORT $LN64@MixWings2_
  002da	4f		 dec	 edi
  002db	83 cf fc	 or	 edi, -4			; fffffffcH
  002de	47		 inc	 edi
$LN64@MixWings2_:

; 6097 : 		loc27 = rand()%1000;

  002df	e8 00 00 00 00	 call	 _rand
  002e4	99		 cdq
  002e5	b9 e8 03 00 00	 mov	 ecx, 1000		; 000003e8H
  002ea	f7 f9		 idiv	 ecx

; 6098 : 
; 6099 : 		switch( loc26 )

  002ec	4f		 dec	 edi
  002ed	74 22		 je	 SHORT $LN17@MixWings2_
  002ef	4f		 dec	 edi
  002f0	74 11		 je	 SHORT $LN15@MixWings2_
  002f2	4f		 dec	 edi
  002f3	75 28		 jne	 SHORT $LN16@MixWings2_

; 6118 : 
; 6119 : 		case 3:
; 6120 : 			{
; 6121 : 				if(loc27 < 30)

  002f5	83 fa 1e	 cmp	 edx, 30			; 0000001eH
  002f8	7d 23		 jge	 SHORT $LN16@MixWings2_

; 6122 : 				{
; 6123 : 					ItemOptAdd = 3;

  002fa	c7 45 e8 03 00
	00 00		 mov	 DWORD PTR _ItemOptAdd$219994[ebp], 3

; 6124 : 				}
; 6125 : 			}
; 6126 : 			break;

  00301	eb 1a		 jmp	 SHORT $LN16@MixWings2_
$LN15@MixWings2_:

; 6106 : 				}
; 6107 : 			}
; 6108 : 			break;
; 6109 : 
; 6110 : 		case 2:
; 6111 : 			{
; 6112 : 				if(loc27 < 60)

  00303	83 fa 3c	 cmp	 edx, 60			; 0000003cH
  00306	7d 15		 jge	 SHORT $LN16@MixWings2_

; 6113 : 				{
; 6114 : 					ItemOptAdd = 2;

  00308	c7 45 e8 02 00
	00 00		 mov	 DWORD PTR _ItemOptAdd$219994[ebp], 2

; 6115 : 				}
; 6116 : 			}
; 6117 : 			break;

  0030f	eb 0c		 jmp	 SHORT $LN16@MixWings2_
$LN17@MixWings2_:

; 6100 : 		{
; 6101 : 		case 1:
; 6102 : 			{
; 6103 : 				if(loc27 < 120)

  00311	83 fa 78	 cmp	 edx, 120		; 00000078H
  00314	7d 07		 jge	 SHORT $LN16@MixWings2_

; 6104 : 				{
; 6105 : 					ItemOptAdd = 1;

  00316	c7 45 e8 01 00
	00 00		 mov	 DWORD PTR _ItemOptAdd$219994[ebp], 1
$LN16@MixWings2_:

; 6127 : 		}
; 6128 : 
; 6129 : 		loc28 = rand()%4;

  0031d	e8 00 00 00 00	 call	 _rand
  00322	8b f8		 mov	 edi, eax
  00324	81 e7 03 00 00
	80		 and	 edi, -2147483645	; 80000003H
  0032a	79 05		 jns	 SHORT $LN65@MixWings2_
  0032c	4f		 dec	 edi
  0032d	83 cf fc	 or	 edi, -4			; fffffffcH
  00330	47		 inc	 edi
$LN65@MixWings2_:

; 6130 : 		loc29 = rand()%1000;

  00331	e8 00 00 00 00	 call	 _rand
  00336	99		 cdq
  00337	b9 e8 03 00 00	 mov	 ecx, 1000		; 000003e8H
  0033c	f7 f9		 idiv	 ecx

; 6131 : 
; 6132 : 		switch( loc28 )

  0033e	83 ff 03	 cmp	 edi, 3
  00341	77 2d		 ja	 SHORT $LN2@MixWings2_
  00343	ff 24 bd 00 00
	00 00		 jmp	 DWORD PTR $LN67@MixWings2_[edi*4]
$LN9@MixWings2_:

; 6133 : 		{
; 6134 : 		case 0:
; 6135 : 			{
; 6136 : 				if(loc29 < 40)

  0034a	83 fa 28	 cmp	 edx, 40			; 00000028H
  0034d	7d 21		 jge	 SHORT $LN2@MixWings2_

; 6137 : 				{
; 6138 : 					loc23 |= 1;

  0034f	83 cb 01	 or	 ebx, 1

; 6139 : 				}
; 6140 : 			}
; 6141 : 			break;

  00352	eb 1c		 jmp	 SHORT $LN2@MixWings2_
$LN7@MixWings2_:

; 6142 : 		case 1:
; 6143 : 			{
; 6144 : 				if(loc29 < 20)

  00354	83 fa 14	 cmp	 edx, 20			; 00000014H
  00357	7d 17		 jge	 SHORT $LN2@MixWings2_

; 6145 : 				{
; 6146 : 					loc23 |= 2;

  00359	83 cb 02	 or	 ebx, 2

; 6147 : 				}
; 6148 : 			}
; 6149 : 			break;

  0035c	eb 12		 jmp	 SHORT $LN2@MixWings2_
$LN5@MixWings2_:

; 6150 : 
; 6151 : 		case 2:
; 6152 : 			{
; 6153 : 				if(loc29 < 70)

  0035e	83 fa 46	 cmp	 edx, 70			; 00000046H
  00361	7d 0d		 jge	 SHORT $LN2@MixWings2_

; 6154 : 				{
; 6155 : 					loc23 |= 4;

  00363	83 cb 04	 or	 ebx, 4

; 6156 : 				}
; 6157 : 			}
; 6158 : 			break;

  00366	eb 08		 jmp	 SHORT $LN2@MixWings2_
$LN3@MixWings2_:

; 6159 : 		case 3:
; 6160 : 			{
; 6161 : 				if(loc29 < 70)

  00368	83 fa 46	 cmp	 edx, 70			; 00000046H
  0036b	7d 03		 jge	 SHORT $LN2@MixWings2_

; 6162 : 				{
; 6163 : 					loc23 |= 8;

  0036d	83 cb 08	 or	 ebx, 8
$LN2@MixWings2_:

; 6164 : 				}
; 6165 : 			}
; 6166 : 			break;
; 6167 : 		}
; 6168 : 
; 6169 : 		ItemSerialCreateSend(lpObj->m_Index, -1, 0, 0, ItemType , 0, 0, 0, (BYTE)ItemLuckAdd, (BYTE)ItemOptAdd, -1, (BYTE)loc23, 0);

  00370	8b 55 e8	 mov	 edx, DWORD PTR _ItemOptAdd$219994[ebp]
  00373	8b 45 dc	 mov	 eax, DWORD PTR _ItemLuckAdd$219992[ebp]
  00376	8b 4d e4	 mov	 ecx, DWORD PTR _ItemType$219986[ebp]
  00379	6a 00		 push	 0
  0037b	53		 push	 ebx
  0037c	6a ff		 push	 -1
  0037e	52		 push	 edx
  0037f	8b 16		 mov	 edx, DWORD PTR [esi]
  00381	50		 push	 eax
  00382	6a 00		 push	 0
  00384	6a 00		 push	 0
  00386	6a 00		 push	 0
  00388	51		 push	 ecx
  00389	6a 00		 push	 0
  0038b	6a 00		 push	 0
  0038d	68 ff 00 00 00	 push	 255			; 000000ffH
  00392	52		 push	 edx
  00393	e8 00 00 00 00	 call	 ?ItemSerialCreateSend@@YAXHEEEHEEEEEHEE@Z ; ItemSerialCreateSend

; 6170 : 		::gObjInventoryCommit(lpObj->m_Index);

  00398	8b 06		 mov	 eax, DWORD PTR [esi]
  0039a	50		 push	 eax
  0039b	e8 00 00 00 00	 call	 ?gObjInventoryCommit@@YAHH@Z ; gObjInventoryCommit

; 6171 : 
; 6172 : 		LogAddTD("[2.5 Wings Mix][Level 02] [%s][%s] CBMix Success %d Money : %d-%d, CharmRate : %d",
; 6173 : 			lpObj->AccountID, lpObj->Name, MixPercent,	lpObj->Money, NeedMoney);

  003a0	8b 8e f0 00 00
	00		 mov	 ecx, DWORD PTR [esi+240]
  003a6	8b 55 e0	 mov	 edx, DWORD PTR _MixPercent$[ebp]
  003a9	68 40 4b 4c 00	 push	 5000000			; 004c4b40H
  003ae	51		 push	 ecx
  003af	52		 push	 edx
  003b0	8d 46 77	 lea	 eax, DWORD PTR [esi+119]
  003b3	50		 push	 eax
  003b4	8d 4e 6c	 lea	 ecx, DWORD PTR [esi+108]
  003b7	51		 push	 ecx
  003b8	68 00 00 00 00	 push	 OFFSET ??_C@_0FC@GJLNHMHM@?$FL2?45?5Wings?5Mix?$FN?$FLLevel?502?$FN?5?$FL?$CFs?$FN?$FL?$CF@
  003bd	ff 15 00 00 00
	00		 call	 DWORD PTR ?LogAddTD@@3P6AXPADZZA ; LogAddTD

; 6174 : 
; 6175 : #if(SYSTEM_ACHIEVEMENTS)
; 6176 : 		g_Achievements.SuccessChaosMix(lpObj->m_Index);

  003c3	8b 16		 mov	 edx, DWORD PTR [esi]
  003c5	83 c4 50	 add	 esp, 80			; 00000050H
  003c8	52		 push	 edx
  003c9	b9 00 00 00 00	 mov	 ecx, OFFSET ?g_Achievements@@3VCAchievements@@A ; g_Achievements
  003ce	e8 00 00 00 00	 call	 ?SuccessChaosMix@CAchievements@@QAEXH@Z ; CAchievements::SuccessChaosMix
  003d3	5f		 pop	 edi
  003d4	5e		 pop	 esi
  003d5	5b		 pop	 ebx

; 6191 : #endif
; 6192 : 	}
; 6193 : }

  003d6	8b 4d fc	 mov	 ecx, DWORD PTR __$ArrayPad$[ebp]
  003d9	33 cd		 xor	 ecx, ebp
  003db	e8 00 00 00 00	 call	 @__security_check_cookie@4
  003e0	8b e5		 mov	 esp, ebp
  003e2	5d		 pop	 ebp
  003e3	c2 04 00	 ret	 4
$LN32@MixWings2_:

; 6177 : #endif
; 6178 : 	}
; 6179 : 	else
; 6180 : 	{
; 6181 : 		this->ChaosBoxInit(lpObj);

  003e6	56		 push	 esi
  003e7	8b cf		 mov	 ecx, edi
  003e9	e8 00 00 00 00	 call	 ?ChaosBoxInit@CMixSystem@@QAEHPAUOBJECTSTRUCT@@@Z ; CMixSystem::ChaosBoxInit

; 6182 : 		::GCUserChaosBoxSend(lpObj, 0);

  003ee	6a 00		 push	 0
  003f0	56		 push	 esi
  003f1	e8 00 00 00 00	 call	 ?GCUserChaosBoxSend@@YAXPAUOBJECTSTRUCT@@H@Z ; GCUserChaosBoxSend

; 6183 : 		DataSend(lpObj->m_Index, (LPBYTE)&pMsg, pMsg.h.size);

  003f6	0f b6 45 ed	 movzx	 eax, BYTE PTR _pMsg$[ebp+1]
  003fa	8b 16		 mov	 edx, DWORD PTR [esi]
  003fc	50		 push	 eax
  003fd	8d 4d ec	 lea	 ecx, DWORD PTR _pMsg$[ebp]
  00400	51		 push	 ecx
  00401	52		 push	 edx
  00402	e8 00 00 00 00	 call	 ?DataSend@@YAHHPAEK@Z	; DataSend

; 6184 : 
; 6185 : 		LogAddTD("[2.5 Wings Mix][Level 02] [%s][%s] CBMix Fail %d Money : %d-%d",
; 6186 : 			lpObj->AccountID, lpObj->Name, MixPercent,	lpObj->Money, NeedMoney);

  00407	8b 86 f0 00 00
	00		 mov	 eax, DWORD PTR [esi+240]
  0040d	68 40 4b 4c 00	 push	 5000000			; 004c4b40H
  00412	50		 push	 eax
  00413	53		 push	 ebx
  00414	8d 4e 77	 lea	 ecx, DWORD PTR [esi+119]
  00417	51		 push	 ecx
  00418	8d 56 6c	 lea	 edx, DWORD PTR [esi+108]
  0041b	52		 push	 edx
  0041c	68 00 00 00 00	 push	 OFFSET ??_C@_0DP@JHFONFJG@?$FL2?45?5Wings?5Mix?$FN?$FLLevel?502?$FN?5?$FL?$CFs?$FN?$FL?$CF@
  00421	ff 15 00 00 00
	00		 call	 DWORD PTR ?LogAddTD@@3P6AXPADZZA ; LogAddTD

; 6187 : 		lpObj->ChaosLock = FALSE;
; 6188 : 
; 6189 : #if(SYSTEM_ACHIEVEMENTS)
; 6190 : 		g_Achievements.FailedChaosMix(lpObj->m_Index);

  00427	8b 06		 mov	 eax, DWORD PTR [esi]
  00429	83 c4 2c	 add	 esp, 44			; 0000002cH
  0042c	50		 push	 eax
  0042d	b9 00 00 00 00	 mov	 ecx, OFFSET ?g_Achievements@@3VCAchievements@@A ; g_Achievements
  00432	c7 86 88 0e 00
	00 00 00 00 00	 mov	 DWORD PTR [esi+3720], 0
  0043c	e8 00 00 00 00	 call	 ?FailedChaosMix@CAchievements@@QAEXH@Z ; CAchievements::FailedChaosMix
  00441	5f		 pop	 edi
  00442	5e		 pop	 esi
  00443	5b		 pop	 ebx

; 6191 : #endif
; 6192 : 	}
; 6193 : }

  00444	8b 4d fc	 mov	 ecx, DWORD PTR __$ArrayPad$[ebp]
  00447	33 cd		 xor	 ecx, ebp
  00449	e8 00 00 00 00	 call	 @__security_check_cookie@4
  0044e	8b e5		 mov	 esp, ebp
  00450	5d		 pop	 ebp
  00451	c2 04 00	 ret	 4
$LN62@MixWings2_:

; 6008 : 	{
; 6009 : 		pMsg.Result = CB_INCORRECT_MIX_ITEMS;
; 6010 : 		DataSend(lpObj->m_Index, (LPBYTE)&pMsg, pMsg.h.size);

  00454	0f b6 4d ed	 movzx	 ecx, BYTE PTR _pMsg$[ebp+1]
  00458	8b 06		 mov	 eax, DWORD PTR [esi]
  0045a	51		 push	 ecx
  0045b	8d 55 ec	 lea	 edx, DWORD PTR _pMsg$[ebp]
  0045e	52		 push	 edx
  0045f	c6 45 ef 07	 mov	 BYTE PTR _pMsg$[ebp+3], 7
  00463	50		 push	 eax
$LN66@MixWings2_:
  00464	e8 00 00 00 00	 call	 ?DataSend@@YAHHPAEK@Z	; DataSend

; 6191 : #endif
; 6192 : 	}
; 6193 : }

  00469	8b 4d fc	 mov	 ecx, DWORD PTR __$ArrayPad$[ebp]
  0046c	83 c4 0c	 add	 esp, 12			; 0000000cH
  0046f	5f		 pop	 edi
  00470	c7 86 88 0e 00
	00 00 00 00 00	 mov	 DWORD PTR [esi+3720], 0
  0047a	5e		 pop	 esi
  0047b	33 cd		 xor	 ecx, ebp
  0047d	5b		 pop	 ebx
  0047e	e8 00 00 00 00	 call	 @__security_check_cookie@4
  00483	8b e5		 mov	 esp, ebp
  00485	5d		 pop	 ebp
  00486	c2 04 00	 ret	 4
  00489	8d 49 00	 npad	 3
$LN67@MixWings2_:
  0048c	00 00 00 00	 DD	 $LN9@MixWings2_
  00490	00 00 00 00	 DD	 $LN7@MixWings2_
  00494	00 00 00 00	 DD	 $LN5@MixWings2_
  00498	00 00 00 00	 DD	 $LN3@MixWings2_
?MixWings2_5@CMixSystem@@QAEXPAUOBJECTSTRUCT@@@Z ENDP	; CMixSystem::MixWings2_5
_TEXT	ENDS
PUBLIC	??_C@_0DP@EEJHDKEM@?$FL4rd?5Wings?5Mix?$FN?$FLLevel?502?$FN?5?$FL?$CFs?$FN?$FL?$CF@ ; `string'
PUBLIC	??_C@_0FC@FEDMFJGA@?$FL4rd?5Wings?5Mix?$FN?$FLLevel?502?$FN?5?$FL?$CFs?$FN?$FL?$CF@ ; `string'
PUBLIC	__$ArrayPad$
PUBLIC	?MixWings4rd@CMixSystem@@QAEXPAUOBJECTSTRUCT@@@Z ; CMixSystem::MixWings4rd
;	COMDAT ??_C@_0DP@EEJHDKEM@?$FL4rd?5Wings?5Mix?$FN?$FLLevel?502?$FN?5?$FL?$CFs?$FN?$FL?$CF@
; File d:\program files (x86)\microsoft visual studio 10.0\vc\include\time.inl
CONST	SEGMENT
??_C@_0DP@EEJHDKEM@?$FL4rd?5Wings?5Mix?$FN?$FLLevel?502?$FN?5?$FL?$CFs?$FN?$FL?$CF@ DB '['
	DB	'4rd Wings Mix][Level 02] [%s][%s] CBMix Fail %d Money : %d-%d'
	DB	00H						; `string'
CONST	ENDS
;	COMDAT ??_C@_0FC@FEDMFJGA@?$FL4rd?5Wings?5Mix?$FN?$FLLevel?502?$FN?5?$FL?$CFs?$FN?$FL?$CF@
CONST	SEGMENT
??_C@_0FC@FEDMFJGA@?$FL4rd?5Wings?5Mix?$FN?$FLLevel?502?$FN?5?$FL?$CFs?$FN?$FL?$CF@ DB '['
	DB	'4rd Wings Mix][Level 02] [%s][%s] CBMix Success %d Money : %d'
	DB	'-%d, CharmRate : %d', 00H			; `string'
; Function compile flags: /Ogtp
; File e:\work\tranet_version\gs\gameserver\mixsystem.cpp
CONST	ENDS
;	COMDAT ?MixWings4rd@CMixSystem@@QAEXPAUOBJECTSTRUCT@@@Z
_TEXT	SEGMENT
_RateMix$ = -64						; size = 4
_Need30Bless$ = -60					; size = 4
_NeedCondor$ = -56					; size = 4
_Need30Soul$ = -52					; size = 4
_Need3lvlWing$ = -48					; size = 4
_NeedJewelOfChaos$ = -44				; size = 4
_NeedJewelOfCreatoion$ = -40				; size = 4
tv804 = -36						; size = 4
_ItemLuckAdd$220113 = -36				; size = 4
_MixPercent$ = -32					; size = 4
_NeedError$ = -32					; size = 4
_ItemOptAdd$220115 = -28				; size = 4
_PlusProcent$ = -28					; size = 4
_ItemType$220101 = -24					; size = 4
_NeedExlItem$ = -24					; size = 4
_pMsg$ = -20						; size = 16
__$ArrayPad$ = -4					; size = 4
_lpObj$ = 8						; size = 4
?MixWings4rd@CMixSystem@@QAEXPAUOBJECTSTRUCT@@@Z PROC	; CMixSystem::MixWings4rd, COMDAT
; _this$ = ecx

; 6196 : {	

  00000	55		 push	 ebp
  00001	8b ec		 mov	 ebp, esp
  00003	83 ec 40	 sub	 esp, 64			; 00000040H
  00006	a1 00 00 00 00	 mov	 eax, DWORD PTR ___security_cookie
  0000b	33 c5		 xor	 eax, ebp
  0000d	89 45 fc	 mov	 DWORD PTR __$ArrayPad$[ebp], eax
  00010	53		 push	 ebx
  00011	56		 push	 esi
  00012	8b 75 08	 mov	 esi, DWORD PTR _lpObj$[ebp]
  00015	57		 push	 edi

; 6197 : 
; 6198 : 	PMSG_CHAOSMIXRESULT pMsg;
; 6199 : 
; 6200 : 	lpObj->ChaosLock = TRUE;
; 6201 : 
; 6202 : 	int NeedCondor = 0;

  00016	33 db		 xor	 ebx, ebx

; 6203 : 	int NeedJewelOfChaos = 0;
; 6204 : 	int NeedJewelOfCreatoion = 0;
; 6205 : 	int Need30Bless = 0;
; 6206 : 	int Need30Soul = 0;
; 6207 : 	int Need3lvlWing = 0;
; 6208 : 	int NeedExlItem = 0;
; 6209 : 	int NeedMoney = 25000000;
; 6210 : 	int RateMix	= ZtConfig.CommonServer.Wing4MaxSuccessRate;
; 6211 : 	int NeedError = 0;
; 6212 : 	int MixLuckRate = 30;
; 6213 : 	int PlusProcent = 0;
; 6214 : 
; 6215 : 	PHeadSetB((LPBYTE)&pMsg.h, 0x86, sizeof(PMSG_CHAOSMIXRESULT));

  00018	6a 10		 push	 16			; 00000010H
  0001a	8b f9		 mov	 edi, ecx
  0001c	c7 86 88 0e 00
	00 01 00 00 00	 mov	 DWORD PTR [esi+3720], 1
  00026	a1 a0 00 00 00	 mov	 eax, DWORD PTR ?ZtConfig@@3VcZtConfigs@@A+160
  0002b	8d 4d ec	 lea	 ecx, DWORD PTR _pMsg$[ebp]
  0002e	68 86 00 00 00	 push	 134			; 00000086H
  00033	51		 push	 ecx
  00034	89 5d c8	 mov	 DWORD PTR _NeedCondor$[ebp], ebx
  00037	89 5d d4	 mov	 DWORD PTR _NeedJewelOfChaos$[ebp], ebx
  0003a	89 5d d8	 mov	 DWORD PTR _NeedJewelOfCreatoion$[ebp], ebx
  0003d	89 5d c4	 mov	 DWORD PTR _Need30Bless$[ebp], ebx
  00040	89 5d cc	 mov	 DWORD PTR _Need30Soul$[ebp], ebx
  00043	89 5d d0	 mov	 DWORD PTR _Need3lvlWing$[ebp], ebx
  00046	89 5d e8	 mov	 DWORD PTR _NeedExlItem$[ebp], ebx
  00049	89 45 c0	 mov	 DWORD PTR _RateMix$[ebp], eax
  0004c	89 5d e0	 mov	 DWORD PTR _NeedError$[ebp], ebx
  0004f	89 5d e4	 mov	 DWORD PTR _PlusProcent$[ebp], ebx
  00052	e8 00 00 00 00	 call	 ?PHeadSetB@@YAXPAEEH@Z	; PHeadSetB
  00057	83 c4 0c	 add	 esp, 12			; 0000000cH

; 6216 : 	pMsg.Result = CB_ERROR;

  0005a	88 5d ef	 mov	 BYTE PTR _pMsg$[ebp+3], bl

; 6219 : 	{
; 6220 : 		if ( lpObj->pChaosBox[n].IsItem() == TRUE )

  0005d	89 5d dc	 mov	 DWORD PTR tv804[ebp], ebx
$LL67@MixWings4r:
  00060	8b 8e 78 0e 00
	00		 mov	 ecx, DWORD PTR [esi+3704]
  00066	03 cb		 add	 ecx, ebx
  00068	e8 00 00 00 00	 call	 ?IsItem@CItem@@QAEHXZ	; CItem::IsItem
  0006d	83 f8 01	 cmp	 eax, 1
  00070	0f 85 c6 00 00
	00		 jne	 $LN66@MixWings4r

; 6221 : 		{
; 6222 : 			if ( lpObj->pChaosBox[n].m_Type == this->iWingofStorm ||
; 6223 : 				 lpObj->pChaosBox[n].m_Type == this->iWingofEternal ||
; 6224 : 				 lpObj->pChaosBox[n].m_Type == this->iWingofIllusion ||
; 6225 : 				 lpObj->pChaosBox[n].m_Type == this->iWingofRuin ||
; 6226 : 				 lpObj->pChaosBox[n].m_Type == this->iCapeofLord ||
; 6227 : 				 lpObj->pChaosBox[n].m_Type == this->iWingofDimension )

  00076	03 9e 78 0e 00
	00		 add	 ebx, DWORD PTR [esi+3704]
  0007c	0f b7 43 06	 movzx	 eax, WORD PTR [ebx+6]
  00080	0f bf d0	 movsx	 edx, ax
  00083	3b 57 24	 cmp	 edx, DWORD PTR [edi+36]
  00086	0f 84 95 00 00
	00		 je	 $LN62@MixWings4r
  0008c	3b 57 28	 cmp	 edx, DWORD PTR [edi+40]
  0008f	0f 84 8c 00 00
	00		 je	 $LN62@MixWings4r
  00095	3b 57 2c	 cmp	 edx, DWORD PTR [edi+44]
  00098	0f 84 83 00 00
	00		 je	 $LN62@MixWings4r
  0009e	3b 57 30	 cmp	 edx, DWORD PTR [edi+48]
  000a1	74 7e		 je	 SHORT $LN62@MixWings4r
  000a3	3b 57 34	 cmp	 edx, DWORD PTR [edi+52]
  000a6	74 79		 je	 SHORT $LN62@MixWings4r
  000a8	3b 57 38	 cmp	 edx, DWORD PTR [edi+56]
  000ab	74 74		 je	 SHORT $LN62@MixWings4r

; 6232 : 				}
; 6233 : 			}
; 6234 : 			else if( this->CheckItemCondition(&lpObj->pChaosBox[n],9,0,0,1,0,1) != FALSE )

  000ad	6a 01		 push	 1
  000af	6a 00		 push	 0
  000b1	6a 01		 push	 1
  000b3	6a 00		 push	 0
  000b5	6a 00		 push	 0
  000b7	6a 09		 push	 9
  000b9	53		 push	 ebx
  000ba	8b cf		 mov	 ecx, edi
  000bc	e8 00 00 00 00	 call	 ?CheckItemCondition@CMixSystem@@QAEHPAVCItem@@FEEEEE@Z ; CMixSystem::CheckItemCondition
  000c1	85 c0		 test	 eax, eax
  000c3	74 05		 je	 SHORT $LN59@MixWings4r

; 6235 : 			{
; 6236 : 				NeedExlItem++;

  000c5	ff 45 e8	 inc	 DWORD PTR _NeedExlItem$[ebp]
  000c8	eb 72		 jmp	 SHORT $LN66@MixWings4r
$LN59@MixWings4r:

; 6237 : 			}
; 6238 : 			else if( lpObj->pChaosBox[n].m_Type == ITEMGET(13,52))	//condor

  000ca	0f b7 43 06	 movzx	 eax, WORD PTR [ebx+6]
  000ce	b9 34 1a 00 00	 mov	 ecx, 6708		; 00001a34H
  000d3	66 3b c1	 cmp	 ax, cx
  000d6	75 05		 jne	 SHORT $LN57@MixWings4r

; 6239 : 			{
; 6240 : 				NeedCondor++;

  000d8	ff 45 c8	 inc	 DWORD PTR _NeedCondor$[ebp]
  000db	eb 5f		 jmp	 SHORT $LN66@MixWings4r
$LN57@MixWings4r:

; 6241 : 			}
; 6242 : 			else if( lpObj->pChaosBox[n].m_Type == this->iBundleofBless)	//30 B

  000dd	3b 57 14	 cmp	 edx, DWORD PTR [edi+20]
  000e0	75 05		 jne	 SHORT $LN55@MixWings4r

; 6243 : 			{
; 6244 : 				Need30Bless++;

  000e2	ff 45 c4	 inc	 DWORD PTR _Need30Bless$[ebp]
  000e5	eb 55		 jmp	 SHORT $LN66@MixWings4r
$LN55@MixWings4r:

; 6245 : 			}
; 6246 : 			else if( lpObj->pChaosBox[n].m_Type == this->iBundleofSoul)	//30 S

  000e7	3b 57 18	 cmp	 edx, DWORD PTR [edi+24]
  000ea	75 05		 jne	 SHORT $LN53@MixWings4r

; 6247 : 			{
; 6248 : 				Need30Soul++;

  000ec	ff 45 cc	 inc	 DWORD PTR _Need30Soul$[ebp]
  000ef	eb 4b		 jmp	 SHORT $LN66@MixWings4r
$LN53@MixWings4r:

; 6249 : 			}
; 6250 : 			else if( lpObj->pChaosBox[n].m_Type == this->iJewelofChaos)

  000f1	3b 57 04	 cmp	 edx, DWORD PTR [edi+4]
  000f4	75 05		 jne	 SHORT $LN51@MixWings4r

; 6251 : 			{
; 6252 : 				NeedJewelOfChaos++;

  000f6	ff 45 d4	 inc	 DWORD PTR _NeedJewelOfChaos$[ebp]
  000f9	eb 41		 jmp	 SHORT $LN66@MixWings4r
$LN51@MixWings4r:

; 6253 : 			}
; 6254 : 			else if( lpObj->pChaosBox[n].m_Type == this->iJewelofCreation)

  000fb	3b 57 10	 cmp	 edx, DWORD PTR [edi+16]
  000fe	75 05		 jne	 SHORT $LN49@MixWings4r

; 6255 : 			{
; 6256 : 				NeedJewelOfCreatoion++;

  00100	ff 45 d8	 inc	 DWORD PTR _NeedJewelOfCreatoion$[ebp]
  00103	eb 37		 jmp	 SHORT $LN66@MixWings4r
$LN49@MixWings4r:

; 6257 : 			}
; 6258 : 			else if( lpObj->pChaosBox[n].m_Type == ITEMGET(14,53) )

  00105	ba 35 1c 00 00	 mov	 edx, 7221		; 00001c35H
  0010a	66 3b c2	 cmp	 ax, dx
  0010d	75 0d		 jne	 SHORT $LN47@MixWings4r

; 6259 : 			{
; 6260 : 				PlusProcent+= (int)lpObj->pChaosBox[n].m_Durability;

  0010f	d9 43 24	 fld	 DWORD PTR [ebx+36]
  00112	e8 00 00 00 00	 call	 __ftol2_sse
  00117	01 45 e4	 add	 DWORD PTR _PlusProcent$[ebp], eax

; 6261 : 			}
; 6262 : 			else

  0011a	eb 20		 jmp	 SHORT $LN66@MixWings4r
$LN47@MixWings4r:

; 6263 : 			{
; 6264 : 				NeedError++;

  0011c	ff 45 e0	 inc	 DWORD PTR _NeedError$[ebp]
  0011f	eb 1b		 jmp	 SHORT $LN66@MixWings4r
$LN62@MixWings4r:

; 6228 : 			{
; 6229 : 				if( this->CheckItemCondition(&lpObj->pChaosBox[n],9,0,0,1,0,0) != FALSE )

  00121	6a 00		 push	 0
  00123	6a 00		 push	 0
  00125	6a 01		 push	 1
  00127	6a 00		 push	 0
  00129	6a 00		 push	 0
  0012b	6a 09		 push	 9
  0012d	53		 push	 ebx
  0012e	8b cf		 mov	 ecx, edi
  00130	e8 00 00 00 00	 call	 ?CheckItemCondition@CMixSystem@@QAEHPAVCItem@@FEEEEE@Z ; CMixSystem::CheckItemCondition
  00135	85 c0		 test	 eax, eax
  00137	74 03		 je	 SHORT $LN66@MixWings4r

; 6230 : 				{
; 6231 : 					Need3lvlWing++;

  00139	ff 45 d0	 inc	 DWORD PTR _Need3lvlWing$[ebp]
$LN66@MixWings4r:

; 6217 : 
; 6218 : 	for ( int n=0;n<CHAOS_BOX_SIZE;n++) //loc16

  0013c	8b 5d dc	 mov	 ebx, DWORD PTR tv804[ebp]
  0013f	81 c3 d4 00 00
	00		 add	 ebx, 212		; 000000d4H
  00145	89 5d dc	 mov	 DWORD PTR tv804[ebp], ebx
  00148	81 fb 80 1a 00
	00		 cmp	 ebx, 6784		; 00001a80H
  0014e	0f 8c 0c ff ff
	ff		 jl	 $LL67@MixWings4r

; 6265 : 			}
; 6266 : 		}
; 6267 : 	}
; 6268 : 
; 6269 : 	if(PlusProcent > 10)

  00154	83 7d e4 0a	 cmp	 DWORD PTR _PlusProcent$[ebp], 10 ; 0000000aH
  00158	7e 15		 jle	 SHORT $LN45@MixWings4r

; 6270 : 	{
; 6271 : 		pMsg.Result = 0xF0; //new macro
; 6272 : 		DataSend(lpObj->m_Index, (LPBYTE)&pMsg, pMsg.h.size);

  0015a	0f b6 45 ed	 movzx	 eax, BYTE PTR _pMsg$[ebp+1]
  0015e	8b 16		 mov	 edx, DWORD PTR [esi]
  00160	50		 push	 eax
  00161	8d 4d ec	 lea	 ecx, DWORD PTR _pMsg$[ebp]
  00164	51		 push	 ecx
  00165	c6 45 ef f0	 mov	 BYTE PTR _pMsg$[ebp+3], 240 ; 000000f0H
  00169	52		 push	 edx

; 6273 : 		lpObj->ChaosLock = FALSE;
; 6274 : 		return;

  0016a	e9 6a 03 00 00	 jmp	 $LN80@MixWings4r
$LN45@MixWings4r:

; 6275 : 	}
; 6276 : 
; 6277 : 	if(NeedExlItem < 1 || NeedCondor != 1 || NeedJewelOfChaos != 1 || Need3lvlWing != 1 || NeedJewelOfCreatoion != 1 || 
; 6278 : 	   Need30Bless != 1 || Need30Soul != 1 || NeedError > 0)

  0016f	b8 01 00 00 00	 mov	 eax, 1
  00174	39 45 e8	 cmp	 DWORD PTR _NeedExlItem$[ebp], eax
  00177	0f 8c 4c 03 00
	00		 jl	 $LN76@MixWings4r
  0017d	39 45 c8	 cmp	 DWORD PTR _NeedCondor$[ebp], eax
  00180	0f 85 43 03 00
	00		 jne	 $LN76@MixWings4r
  00186	39 45 d4	 cmp	 DWORD PTR _NeedJewelOfChaos$[ebp], eax
  00189	0f 85 3a 03 00
	00		 jne	 $LN76@MixWings4r
  0018f	39 45 d0	 cmp	 DWORD PTR _Need3lvlWing$[ebp], eax
  00192	0f 85 31 03 00
	00		 jne	 $LN76@MixWings4r
  00198	39 45 d8	 cmp	 DWORD PTR _NeedJewelOfCreatoion$[ebp], eax
  0019b	0f 85 28 03 00
	00		 jne	 $LN76@MixWings4r
  001a1	39 45 c4	 cmp	 DWORD PTR _Need30Bless$[ebp], eax
  001a4	0f 85 1f 03 00
	00		 jne	 $LN76@MixWings4r
  001aa	39 45 cc	 cmp	 DWORD PTR _Need30Soul$[ebp], eax
  001ad	0f 85 16 03 00
	00		 jne	 $LN76@MixWings4r
  001b3	83 7d e0 00	 cmp	 DWORD PTR _NeedError$[ebp], 0
  001b7	0f 8f 0c 03 00
	00		 jg	 $LN76@MixWings4r

; 6282 : 		lpObj->ChaosLock = FALSE;
; 6283 : 		return;
; 6284 : 	}
; 6285 : 
; 6286 : 	LogChaosItem(lpObj, "ThirdWingLevel2_Mix");

  001bd	68 00 00 00 00	 push	 OFFSET ??_C@_0BE@FCHPIPIA@ThirdWingLevel2_Mix?$AA@
  001c2	56		 push	 esi
  001c3	8b cf		 mov	 ecx, edi
  001c5	e8 00 00 00 00	 call	 ?LogChaosItem@CMixSystem@@QAEXPAUOBJECTSTRUCT@@PAD@Z ; CMixSystem::LogChaosItem

; 6287 : 	LogAddTD("[ThirdWing Mix][Level 02] Chaos Mix Start");

  001ca	68 00 00 00 00	 push	 OFFSET ??_C@_0CK@OMLKNABI@?$FLThirdWing?5Mix?$FN?$FLLevel?502?$FN?5Chaos?5@
  001cf	ff 15 00 00 00
	00		 call	 DWORD PTR ?LogAddTD@@3P6AXPADZZA ; LogAddTD

; 6288 : 
; 6289 : 	int iChaosTaxMoney = (int)((__int64)NeedMoney * (__int64)g_CastleSiegeSync.GetTaxRateChaos(lpObj->m_Index) / (__int64)100);

  001d5	8b 06		 mov	 eax, DWORD PTR [esi]
  001d7	83 c4 04	 add	 esp, 4
  001da	50		 push	 eax
  001db	b9 00 00 00 00	 mov	 ecx, OFFSET ?g_CastleSiegeSync@@3VCCastleSiegeSync@@A ; g_CastleSiegeSync
  001e0	e8 00 00 00 00	 call	 ?GetTaxRateChaos@CCastleSiegeSync@@QAEHH@Z ; CCastleSiegeSync::GetTaxRateChaos
  001e5	6a 00		 push	 0
  001e7	99		 cdq
  001e8	68 40 78 7d 01	 push	 25000000		; 017d7840H
  001ed	52		 push	 edx
  001ee	50		 push	 eax
  001ef	e8 00 00 00 00	 call	 __allmul
  001f4	6a 00		 push	 0
  001f6	6a 64		 push	 100			; 00000064H
  001f8	52		 push	 edx
  001f9	50		 push	 eax
  001fa	e8 00 00 00 00	 call	 __alldiv

; 6290 : 
; 6291 : 	if(iChaosTaxMoney < 0)

  001ff	85 c0		 test	 eax, eax
  00201	79 02		 jns	 SHORT $LN42@MixWings4r

; 6292 : 	{
; 6293 : 		iChaosTaxMoney = 0;

  00203	33 c0		 xor	 eax, eax
$LN42@MixWings4r:

; 6294 : 	}
; 6295 : 
; 6296 : 	if ( lpObj->Money < NeedMoney )

  00205	8b 8e f0 00 00
	00		 mov	 ecx, DWORD PTR [esi+240]
  0020b	81 f9 40 78 7d
	01		 cmp	 ecx, 25000000		; 017d7840H
  00211	7d 09		 jge	 SHORT $LN41@MixWings4r

; 6297 : 	{
; 6298 : 		pMsg.Result = CB_NOT_ENOUGH_ZEN;

  00213	c6 45 ef 02	 mov	 BYTE PTR _pMsg$[ebp+3], 2

; 6299 : 
; 6300 : 		DataSend(lpObj->m_Index, (LPBYTE)&pMsg, pMsg.h.size);
; 6301 : 		lpObj->ChaosLock = FALSE;
; 6302 : 
; 6303 : 		return;

  00217	e9 b1 02 00 00	 jmp	 $LN81@MixWings4r
$LN41@MixWings4r:

; 6304 : 	}
; 6305 : 
; 6306 : 	lpObj->Money -= NeedMoney;

  0021c	81 c1 c0 87 82
	fe		 add	 ecx, -25000000		; fe8287c0H
  00222	89 8e f0 00 00
	00		 mov	 DWORD PTR [esi+240], ecx

; 6307 : 	g_CastleSiegeSync.AddTributeMoney(iChaosTaxMoney);

  00228	50		 push	 eax
  00229	b9 00 00 00 00	 mov	 ecx, OFFSET ?g_CastleSiegeSync@@3VCCastleSiegeSync@@A ; g_CastleSiegeSync
  0022e	e8 00 00 00 00	 call	 ?AddTributeMoney@CCastleSiegeSync@@QAEXH@Z ; CCastleSiegeSync::AddTributeMoney

; 6308 : 	GCMoneySend(lpObj->m_Index, lpObj->Money);

  00233	8b 8e f0 00 00
	00		 mov	 ecx, DWORD PTR [esi+240]
  00239	8b 16		 mov	 edx, DWORD PTR [esi]
  0023b	51		 push	 ecx
  0023c	52		 push	 edx
  0023d	e8 00 00 00 00	 call	 ?GCMoneySend@@YAXHK@Z	; GCMoneySend

; 6309 : 	srand(time(NULL));

  00242	6a 00		 push	 0
  00244	e8 00 00 00 00	 call	 __time64
  00249	50		 push	 eax
  0024a	e8 00 00 00 00	 call	 _srand
  0024f	83 c4 10	 add	 esp, 16			; 00000010H

; 6310 : 	int MixPercent = (rand()%100);

  00252	e8 00 00 00 00	 call	 _rand
  00257	99		 cdq
  00258	b9 64 00 00 00	 mov	 ecx, 100		; 00000064H
  0025d	f7 f9		 idiv	 ecx
  0025f	8b da		 mov	 ebx, edx
  00261	89 5d e0	 mov	 DWORD PTR _MixPercent$[ebp], ebx

; 6311 : 
; 6312 : 	if ( RateMix > MixPercent)

  00264	39 5d c0	 cmp	 DWORD PTR _RateMix$[ebp], ebx
  00267	0f 8e ee 01 00
	00		 jle	 $LN40@MixWings4r

; 6313 : 	{
; 6314 : 		int CharItemCount = 6;
; 6315 : 
; 6316 : 		if(ZtConfig.ZtCustom.SwitchChar == 1 || ZtConfig.ZtCustom.SwitchChar == 2)

  0026d	a1 00 00 00 00	 mov	 eax, DWORD PTR ?ZtConfig@@3VcZtConfigs@@A
  00272	8d 79 a2	 lea	 edi, DWORD PTR [ecx-94]
  00275	83 f8 01	 cmp	 eax, 1
  00278	74 05		 je	 SHORT $LN75@MixWings4r
  0027a	83 f8 02	 cmp	 eax, 2
  0027d	75 05		 jne	 SHORT $LN39@MixWings4r
$LN75@MixWings4r:

; 6317 : 		{
; 6318 : 			CharItemCount = 5;

  0027f	bf 05 00 00 00	 mov	 edi, 5
$LN39@MixWings4r:

; 6319 : 		}
; 6320 : 
; 6321 : 		int loc18 = rand()%CharItemCount;

  00284	e8 00 00 00 00	 call	 _rand
  00289	99		 cdq
  0028a	f7 ff		 idiv	 edi

; 6322 : 		int ItemType = 0;

  0028c	33 db		 xor	 ebx, ebx
  0028e	89 5d e8	 mov	 DWORD PTR _ItemType$220101[ebp], ebx

; 6323 : 
; 6324 : 		if(loc18 == 0)

  00291	3b d3		 cmp	 edx, ebx
  00293	75 09		 jne	 SHORT $LN37@MixWings4r

; 6325 : 		{
; 6326 : 			ItemType = ITEMGET(12,180);

  00295	c7 45 e8 b4 18
	00 00		 mov	 DWORD PTR _ItemType$220101[ebp], 6324 ; 000018b4H
  0029c	eb 44		 jmp	 SHORT $LN27@MixWings4r
$LN37@MixWings4r:

; 6327 : 		}
; 6328 : 		else if( loc18 == 1)

  0029e	83 fa 01	 cmp	 edx, 1
  002a1	75 09		 jne	 SHORT $LN35@MixWings4r

; 6329 : 		{
; 6330 : 			ItemType = ITEMGET(12,181);

  002a3	c7 45 e8 b5 18
	00 00		 mov	 DWORD PTR _ItemType$220101[ebp], 6325 ; 000018b5H
  002aa	eb 36		 jmp	 SHORT $LN27@MixWings4r
$LN35@MixWings4r:

; 6331 : 		}
; 6332 : 		else if( loc18 == 2)

  002ac	83 fa 02	 cmp	 edx, 2
  002af	75 09		 jne	 SHORT $LN33@MixWings4r

; 6333 : 		{
; 6334 : 			ItemType = ITEMGET(12,182);

  002b1	c7 45 e8 b6 18
	00 00		 mov	 DWORD PTR _ItemType$220101[ebp], 6326 ; 000018b6H
  002b8	eb 28		 jmp	 SHORT $LN27@MixWings4r
$LN33@MixWings4r:

; 6335 : 		}
; 6336 : 		else if( loc18 == 3)

  002ba	83 fa 03	 cmp	 edx, 3
  002bd	75 09		 jne	 SHORT $LN31@MixWings4r

; 6337 : 		{
; 6338 : 			ItemType = ITEMGET(12,183);

  002bf	c7 45 e8 b7 18
	00 00		 mov	 DWORD PTR _ItemType$220101[ebp], 6327 ; 000018b7H
  002c6	eb 1a		 jmp	 SHORT $LN27@MixWings4r
$LN31@MixWings4r:

; 6339 : 		}
; 6340 : 		else if( loc18 == 4)

  002c8	83 fa 04	 cmp	 edx, 4
  002cb	75 09		 jne	 SHORT $LN29@MixWings4r

; 6341 : 		{
; 6342 : 			ItemType = ITEMGET(12,184);

  002cd	c7 45 e8 b8 18
	00 00		 mov	 DWORD PTR _ItemType$220101[ebp], 6328 ; 000018b8H
  002d4	eb 0c		 jmp	 SHORT $LN27@MixWings4r
$LN29@MixWings4r:

; 6343 : 		}
; 6344 : 		else if( loc18 == 5)

  002d6	83 fa 05	 cmp	 edx, 5
  002d9	75 07		 jne	 SHORT $LN27@MixWings4r

; 6345 : 		{
; 6346 : 			ItemType = ITEMGET(12,185);

  002db	c7 45 e8 b9 18
	00 00		 mov	 DWORD PTR _ItemType$220101[ebp], 6329 ; 000018b9H
$LN27@MixWings4r:

; 6347 : 		}
; 6348 : 
; 6349 : 		int ItemLuckAdd = 0;

  002e2	89 5d dc	 mov	 DWORD PTR _ItemLuckAdd$220113[ebp], ebx

; 6350 : 
; 6351 : 		if( (rand()%100) <= MixLuckRate )

  002e5	e8 00 00 00 00	 call	 _rand
  002ea	99		 cdq
  002eb	b9 64 00 00 00	 mov	 ecx, 100		; 00000064H
  002f0	f7 f9		 idiv	 ecx
  002f2	83 fa 1e	 cmp	 edx, 30			; 0000001eH
  002f5	7f 07		 jg	 SHORT $LN26@MixWings4r

; 6352 : 		{
; 6353 : 			ItemLuckAdd = 1;

  002f7	c7 45 dc 01 00
	00 00		 mov	 DWORD PTR _ItemLuckAdd$220113[ebp], 1
$LN26@MixWings4r:

; 6354 : 		}
; 6355 : 
; 6356 : 		int ItemOptAdd = 0;

  002fe	89 5d e4	 mov	 DWORD PTR _ItemOptAdd$220115[ebp], ebx

; 6357 : 		int loc23 = 0;
; 6358 : 		int loc24 = rand()%2;

  00301	e8 00 00 00 00	 call	 _rand
  00306	25 01 00 00 80	 and	 eax, -2147483647	; 80000001H
  0030b	79 05		 jns	 SHORT $LN77@MixWings4r
  0030d	48		 dec	 eax
  0030e	83 c8 fe	 or	 eax, -2			; fffffffeH
  00311	40		 inc	 eax
$LN77@MixWings4r:

; 6359 : 		int loc25;
; 6360 : 		int loc26;
; 6361 : 		int loc27;
; 6362 : 		int loc28;
; 6363 : 		int loc29;
; 6364 : 
; 6365 : 		switch ( loc24 )

  00312	83 e8 00	 sub	 eax, 0
  00315	74 0f		 je	 SHORT $LN23@MixWings4r
  00317	48		 dec	 eax
  00318	75 26		 jne	 SHORT $LN22@MixWings4r

; 6372 : 			}
; 6373 : 			break;
; 6374 : 
; 6375 : 		case 1:
; 6376 : 			loc25 = rand()%1000;

  0031a	e8 00 00 00 00	 call	 _rand

; 6377 : 			if(loc24 < 300)
; 6378 : 			{
; 6379 : 				loc23 |= 0x20;

  0031f	bb 20 00 00 00	 mov	 ebx, 32			; 00000020H

; 6380 : 			}
; 6381 : 			break;

  00324	eb 1a		 jmp	 SHORT $LN22@MixWings4r
$LN23@MixWings4r:

; 6366 : 		{
; 6367 : 		case 0:
; 6368 : 			loc25 = rand()%1000;

  00326	e8 00 00 00 00	 call	 _rand
  0032b	99		 cdq
  0032c	b9 e8 03 00 00	 mov	 ecx, 1000		; 000003e8H
  00331	f7 f9		 idiv	 ecx

; 6369 : 			if(loc25 < 400)

  00333	81 fa 90 01 00
	00		 cmp	 edx, 400		; 00000190H
  00339	7d 05		 jge	 SHORT $LN22@MixWings4r

; 6370 : 			{
; 6371 : 				loc23 |= 0x10;

  0033b	bb 10 00 00 00	 mov	 ebx, 16			; 00000010H
$LN22@MixWings4r:

; 6382 : 		}
; 6383 : 
; 6384 : 		loc26 = rand()%4;

  00340	e8 00 00 00 00	 call	 _rand
  00345	8b f8		 mov	 edi, eax
  00347	81 e7 03 00 00
	80		 and	 edi, -2147483645	; 80000003H
  0034d	79 05		 jns	 SHORT $LN78@MixWings4r
  0034f	4f		 dec	 edi
  00350	83 cf fc	 or	 edi, -4			; fffffffcH
  00353	47		 inc	 edi
$LN78@MixWings4r:

; 6385 : 		loc27 = rand()%1000;

  00354	e8 00 00 00 00	 call	 _rand
  00359	99		 cdq
  0035a	b9 e8 03 00 00	 mov	 ecx, 1000		; 000003e8H
  0035f	f7 f9		 idiv	 ecx

; 6386 : 
; 6387 : 		switch( loc26 )

  00361	4f		 dec	 edi
  00362	74 22		 je	 SHORT $LN17@MixWings4r
  00364	4f		 dec	 edi
  00365	74 11		 je	 SHORT $LN15@MixWings4r
  00367	4f		 dec	 edi
  00368	75 28		 jne	 SHORT $LN16@MixWings4r

; 6406 : 
; 6407 : 		case 3:
; 6408 : 			{
; 6409 : 				if(loc27 < 30)

  0036a	83 fa 1e	 cmp	 edx, 30			; 0000001eH
  0036d	7d 23		 jge	 SHORT $LN16@MixWings4r

; 6410 : 				{
; 6411 : 					ItemOptAdd = 3;

  0036f	c7 45 e4 03 00
	00 00		 mov	 DWORD PTR _ItemOptAdd$220115[ebp], 3

; 6412 : 				}
; 6413 : 			}
; 6414 : 			break;

  00376	eb 1a		 jmp	 SHORT $LN16@MixWings4r
$LN15@MixWings4r:

; 6394 : 				}
; 6395 : 			}
; 6396 : 			break;
; 6397 : 
; 6398 : 		case 2:
; 6399 : 			{
; 6400 : 				if(loc27 < 60)

  00378	83 fa 3c	 cmp	 edx, 60			; 0000003cH
  0037b	7d 15		 jge	 SHORT $LN16@MixWings4r

; 6401 : 				{
; 6402 : 					ItemOptAdd = 2;

  0037d	c7 45 e4 02 00
	00 00		 mov	 DWORD PTR _ItemOptAdd$220115[ebp], 2

; 6403 : 				}
; 6404 : 			}
; 6405 : 			break;

  00384	eb 0c		 jmp	 SHORT $LN16@MixWings4r
$LN17@MixWings4r:

; 6388 : 		{
; 6389 : 		case 1:
; 6390 : 			{
; 6391 : 				if(loc27 < 120)

  00386	83 fa 78	 cmp	 edx, 120		; 00000078H
  00389	7d 07		 jge	 SHORT $LN16@MixWings4r

; 6392 : 				{
; 6393 : 					ItemOptAdd = 1;

  0038b	c7 45 e4 01 00
	00 00		 mov	 DWORD PTR _ItemOptAdd$220115[ebp], 1
$LN16@MixWings4r:

; 6415 : 		}
; 6416 : 
; 6417 : 		loc28 = rand()%4;

  00392	e8 00 00 00 00	 call	 _rand
  00397	8b f8		 mov	 edi, eax
  00399	81 e7 03 00 00
	80		 and	 edi, -2147483645	; 80000003H
  0039f	79 05		 jns	 SHORT $LN79@MixWings4r
  003a1	4f		 dec	 edi
  003a2	83 cf fc	 or	 edi, -4			; fffffffcH
  003a5	47		 inc	 edi
$LN79@MixWings4r:

; 6418 : 		loc29 = rand()%1000;

  003a6	e8 00 00 00 00	 call	 _rand
  003ab	99		 cdq
  003ac	b9 e8 03 00 00	 mov	 ecx, 1000		; 000003e8H
  003b1	f7 f9		 idiv	 ecx

; 6419 : 
; 6420 : 		switch( loc28 )

  003b3	83 ff 03	 cmp	 edi, 3
  003b6	77 2d		 ja	 SHORT $LN2@MixWings4r
  003b8	ff 24 bd 00 00
	00 00		 jmp	 DWORD PTR $LN82@MixWings4r[edi*4]
$LN9@MixWings4r:

; 6421 : 		{
; 6422 : 		case 0:
; 6423 : 			{
; 6424 : 				if(loc29 < 40)

  003bf	83 fa 28	 cmp	 edx, 40			; 00000028H
  003c2	7d 21		 jge	 SHORT $LN2@MixWings4r

; 6425 : 				{
; 6426 : 					loc23 |= 1;

  003c4	83 cb 01	 or	 ebx, 1

; 6427 : 				}
; 6428 : 			}
; 6429 : 			break;

  003c7	eb 1c		 jmp	 SHORT $LN2@MixWings4r
$LN7@MixWings4r:

; 6430 : 		case 1:
; 6431 : 			{
; 6432 : 				if(loc29 < 20)

  003c9	83 fa 14	 cmp	 edx, 20			; 00000014H
  003cc	7d 17		 jge	 SHORT $LN2@MixWings4r

; 6433 : 				{
; 6434 : 					loc23 |= 2;

  003ce	83 cb 02	 or	 ebx, 2

; 6435 : 				}
; 6436 : 			}
; 6437 : 			break;

  003d1	eb 12		 jmp	 SHORT $LN2@MixWings4r
$LN5@MixWings4r:

; 6438 : 
; 6439 : 		case 2:
; 6440 : 			{
; 6441 : 				if(loc29 < 70)

  003d3	83 fa 46	 cmp	 edx, 70			; 00000046H
  003d6	7d 0d		 jge	 SHORT $LN2@MixWings4r

; 6442 : 				{
; 6443 : 					loc23 |= 4;

  003d8	83 cb 04	 or	 ebx, 4

; 6444 : 				}
; 6445 : 			}
; 6446 : 			break;

  003db	eb 08		 jmp	 SHORT $LN2@MixWings4r
$LN3@MixWings4r:

; 6447 : 		case 3:
; 6448 : 			{
; 6449 : 				if(loc29 < 70)

  003dd	83 fa 46	 cmp	 edx, 70			; 00000046H
  003e0	7d 03		 jge	 SHORT $LN2@MixWings4r

; 6450 : 				{
; 6451 : 					loc23 |= 8;

  003e2	83 cb 08	 or	 ebx, 8
$LN2@MixWings4r:

; 6452 : 				}
; 6453 : 			}
; 6454 : 			break;
; 6455 : 		}
; 6456 : 
; 6457 : 		ItemSerialCreateSend(lpObj->m_Index, -1, 0, 0, ItemType , 0, 0, 0, (BYTE)ItemLuckAdd, (BYTE)ItemOptAdd, -1, (BYTE)loc23, 0);

  003e5	8b 55 e4	 mov	 edx, DWORD PTR _ItemOptAdd$220115[ebp]
  003e8	8b 45 dc	 mov	 eax, DWORD PTR _ItemLuckAdd$220113[ebp]
  003eb	8b 4d e8	 mov	 ecx, DWORD PTR _ItemType$220101[ebp]
  003ee	6a 00		 push	 0
  003f0	53		 push	 ebx
  003f1	6a ff		 push	 -1
  003f3	52		 push	 edx
  003f4	8b 16		 mov	 edx, DWORD PTR [esi]
  003f6	50		 push	 eax
  003f7	6a 00		 push	 0
  003f9	6a 00		 push	 0
  003fb	6a 00		 push	 0
  003fd	51		 push	 ecx
  003fe	6a 00		 push	 0
  00400	6a 00		 push	 0
  00402	68 ff 00 00 00	 push	 255			; 000000ffH
  00407	52		 push	 edx
  00408	e8 00 00 00 00	 call	 ?ItemSerialCreateSend@@YAXHEEEHEEEEEHEE@Z ; ItemSerialCreateSend

; 6458 : 		::gObjInventoryCommit(lpObj->m_Index);

  0040d	8b 06		 mov	 eax, DWORD PTR [esi]
  0040f	50		 push	 eax
  00410	e8 00 00 00 00	 call	 ?gObjInventoryCommit@@YAHH@Z ; gObjInventoryCommit

; 6459 : 
; 6460 : 		LogAddTD("[4rd Wings Mix][Level 02] [%s][%s] CBMix Success %d Money : %d-%d, CharmRate : %d",
; 6461 : 			lpObj->AccountID, lpObj->Name, MixPercent,	lpObj->Money, NeedMoney);

  00415	8b 8e f0 00 00
	00		 mov	 ecx, DWORD PTR [esi+240]
  0041b	8b 55 e0	 mov	 edx, DWORD PTR _MixPercent$[ebp]
  0041e	68 40 78 7d 01	 push	 25000000		; 017d7840H
  00423	51		 push	 ecx
  00424	52		 push	 edx
  00425	8d 46 77	 lea	 eax, DWORD PTR [esi+119]
  00428	50		 push	 eax
  00429	8d 4e 6c	 lea	 ecx, DWORD PTR [esi+108]
  0042c	51		 push	 ecx
  0042d	68 00 00 00 00	 push	 OFFSET ??_C@_0FC@FEDMFJGA@?$FL4rd?5Wings?5Mix?$FN?$FLLevel?502?$FN?5?$FL?$CFs?$FN?$FL?$CF@
  00432	ff 15 00 00 00
	00		 call	 DWORD PTR ?LogAddTD@@3P6AXPADZZA ; LogAddTD

; 6462 : #if(SYSTEM_ACHIEVEMENTS)
; 6463 : 		g_Achievements.SuccessChaosMix(lpObj->m_Index);

  00438	8b 16		 mov	 edx, DWORD PTR [esi]
  0043a	83 c4 50	 add	 esp, 80			; 00000050H
  0043d	52		 push	 edx
  0043e	b9 00 00 00 00	 mov	 ecx, OFFSET ?g_Achievements@@3VCAchievements@@A ; g_Achievements
  00443	e8 00 00 00 00	 call	 ?SuccessChaosMix@CAchievements@@QAEXH@Z ; CAchievements::SuccessChaosMix
  00448	5f		 pop	 edi
  00449	5e		 pop	 esi
  0044a	5b		 pop	 ebx

; 6477 : #endif
; 6478 : 	}
; 6479 : }

  0044b	8b 4d fc	 mov	 ecx, DWORD PTR __$ArrayPad$[ebp]
  0044e	33 cd		 xor	 ecx, ebp
  00450	e8 00 00 00 00	 call	 @__security_check_cookie@4
  00455	8b e5		 mov	 esp, ebp
  00457	5d		 pop	 ebp
  00458	c2 04 00	 ret	 4
$LN40@MixWings4r:

; 6464 : #endif
; 6465 : 	}
; 6466 : 	else
; 6467 : 	{
; 6468 : 		this->ChaosBoxInit(lpObj);

  0045b	56		 push	 esi
  0045c	8b cf		 mov	 ecx, edi
  0045e	e8 00 00 00 00	 call	 ?ChaosBoxInit@CMixSystem@@QAEHPAUOBJECTSTRUCT@@@Z ; CMixSystem::ChaosBoxInit

; 6469 : 		::GCUserChaosBoxSend(lpObj, 0);

  00463	6a 00		 push	 0
  00465	56		 push	 esi
  00466	e8 00 00 00 00	 call	 ?GCUserChaosBoxSend@@YAXPAUOBJECTSTRUCT@@H@Z ; GCUserChaosBoxSend

; 6470 : 		DataSend(lpObj->m_Index, (LPBYTE)&pMsg, pMsg.h.size);

  0046b	0f b6 45 ed	 movzx	 eax, BYTE PTR _pMsg$[ebp+1]
  0046f	8b 16		 mov	 edx, DWORD PTR [esi]
  00471	50		 push	 eax
  00472	8d 4d ec	 lea	 ecx, DWORD PTR _pMsg$[ebp]
  00475	51		 push	 ecx
  00476	52		 push	 edx
  00477	e8 00 00 00 00	 call	 ?DataSend@@YAHHPAEK@Z	; DataSend

; 6471 : 
; 6472 : 		LogAddTD("[4rd Wings Mix][Level 02] [%s][%s] CBMix Fail %d Money : %d-%d",
; 6473 : 			lpObj->AccountID, lpObj->Name, MixPercent,	lpObj->Money, NeedMoney);

  0047c	8b 86 f0 00 00
	00		 mov	 eax, DWORD PTR [esi+240]
  00482	68 40 78 7d 01	 push	 25000000		; 017d7840H
  00487	50		 push	 eax
  00488	53		 push	 ebx
  00489	8d 4e 77	 lea	 ecx, DWORD PTR [esi+119]
  0048c	51		 push	 ecx
  0048d	8d 56 6c	 lea	 edx, DWORD PTR [esi+108]
  00490	52		 push	 edx
  00491	68 00 00 00 00	 push	 OFFSET ??_C@_0DP@EEJHDKEM@?$FL4rd?5Wings?5Mix?$FN?$FLLevel?502?$FN?5?$FL?$CFs?$FN?$FL?$CF@
  00496	ff 15 00 00 00
	00		 call	 DWORD PTR ?LogAddTD@@3P6AXPADZZA ; LogAddTD

; 6474 : 		lpObj->ChaosLock = FALSE;
; 6475 : #if(SYSTEM_ACHIEVEMENTS)
; 6476 : 		g_Achievements.FailedChaosMix(lpObj->m_Index);

  0049c	8b 06		 mov	 eax, DWORD PTR [esi]
  0049e	83 c4 2c	 add	 esp, 44			; 0000002cH
  004a1	50		 push	 eax
  004a2	b9 00 00 00 00	 mov	 ecx, OFFSET ?g_Achievements@@3VCAchievements@@A ; g_Achievements
  004a7	c7 86 88 0e 00
	00 00 00 00 00	 mov	 DWORD PTR [esi+3720], 0
  004b1	e8 00 00 00 00	 call	 ?FailedChaosMix@CAchievements@@QAEXH@Z ; CAchievements::FailedChaosMix
  004b6	5f		 pop	 edi
  004b7	5e		 pop	 esi
  004b8	5b		 pop	 ebx

; 6477 : #endif
; 6478 : 	}
; 6479 : }

  004b9	8b 4d fc	 mov	 ecx, DWORD PTR __$ArrayPad$[ebp]
  004bc	33 cd		 xor	 ecx, ebp
  004be	e8 00 00 00 00	 call	 @__security_check_cookie@4
  004c3	8b e5		 mov	 esp, ebp
  004c5	5d		 pop	 ebp
  004c6	c2 04 00	 ret	 4
$LN76@MixWings4r:

; 6279 : 	{
; 6280 : 		pMsg.Result = CB_INCORRECT_MIX_ITEMS;

  004c9	c6 45 ef 07	 mov	 BYTE PTR _pMsg$[ebp+3], 7
$LN81@MixWings4r:

; 6281 : 		DataSend(lpObj->m_Index, (LPBYTE)&pMsg, pMsg.h.size);

  004cd	0f b6 4d ed	 movzx	 ecx, BYTE PTR _pMsg$[ebp+1]
  004d1	8b 06		 mov	 eax, DWORD PTR [esi]
  004d3	51		 push	 ecx
  004d4	8d 55 ec	 lea	 edx, DWORD PTR _pMsg$[ebp]
  004d7	52		 push	 edx
  004d8	50		 push	 eax
$LN80@MixWings4r:
  004d9	e8 00 00 00 00	 call	 ?DataSend@@YAHHPAEK@Z	; DataSend

; 6477 : #endif
; 6478 : 	}
; 6479 : }

  004de	8b 4d fc	 mov	 ecx, DWORD PTR __$ArrayPad$[ebp]
  004e1	83 c4 0c	 add	 esp, 12			; 0000000cH
  004e4	5f		 pop	 edi
  004e5	c7 86 88 0e 00
	00 00 00 00 00	 mov	 DWORD PTR [esi+3720], 0
  004ef	5e		 pop	 esi
  004f0	33 cd		 xor	 ecx, ebp
  004f2	5b		 pop	 ebx
  004f3	e8 00 00 00 00	 call	 @__security_check_cookie@4
  004f8	8b e5		 mov	 esp, ebp
  004fa	5d		 pop	 ebp
  004fb	c2 04 00	 ret	 4
  004fe	8b ff		 npad	 2
$LN82@MixWings4r:
  00500	00 00 00 00	 DD	 $LN9@MixWings4r
  00504	00 00 00 00	 DD	 $LN7@MixWings4r
  00508	00 00 00 00	 DD	 $LN5@MixWings4r
  0050c	00 00 00 00	 DD	 $LN3@MixWings4r
?MixWings4rd@CMixSystem@@QAEXPAUOBJECTSTRUCT@@@Z ENDP	; CMixSystem::MixWings4rd
_TEXT	ENDS
PUBLIC	??_C@_0DF@ECBKIEB@?$FL5rd?5Wings?5Mix?$FN?5?$FL?$CFs?$FN?$FL?$CFs?$FN?5CBMix?5F@ ; `string'
PUBLIC	??_C@_0EI@OMDPDJNI@?$FL5rd?5Wings?5Mix?$FN?5?$FL?$CFs?$FN?$FL?$CFs?$FN?5CBMix?5S@ ; `string'
PUBLIC	??_C@_0CC@JKJMDGCG@?$FLWings?55?5Lvl?5Mix?$FN?5Chaos?5Mix?5Star@ ; `string'
PUBLIC	??_C@_0P@CMLCAPII@WingLevel5_Mix?$AA@		; `string'
PUBLIC	__$ArrayPad$
PUBLIC	?MixWings5rd@CMixSystem@@QAEXPAUOBJECTSTRUCT@@@Z ; CMixSystem::MixWings5rd
;	COMDAT ??_C@_0DF@ECBKIEB@?$FL5rd?5Wings?5Mix?$FN?5?$FL?$CFs?$FN?$FL?$CFs?$FN?5CBMix?5F@
; File d:\program files (x86)\microsoft visual studio 10.0\vc\include\time.inl
CONST	SEGMENT
??_C@_0DF@ECBKIEB@?$FL5rd?5Wings?5Mix?$FN?5?$FL?$CFs?$FN?$FL?$CFs?$FN?5CBMix?5F@ DB '['
	DB	'5rd Wings Mix] [%s][%s] CBMix Fail %d Money : %d-%d', 00H ; `string'
CONST	ENDS
;	COMDAT ??_C@_0EI@OMDPDJNI@?$FL5rd?5Wings?5Mix?$FN?5?$FL?$CFs?$FN?$FL?$CFs?$FN?5CBMix?5S@
CONST	SEGMENT
??_C@_0EI@OMDPDJNI@?$FL5rd?5Wings?5Mix?$FN?5?$FL?$CFs?$FN?$FL?$CFs?$FN?5CBMix?5S@ DB '['
	DB	'5rd Wings Mix] [%s][%s] CBMix Success %d Money : %d-%d, Charm'
	DB	'Rate : %d', 00H				; `string'
CONST	ENDS
;	COMDAT ??_C@_0CC@JKJMDGCG@?$FLWings?55?5Lvl?5Mix?$FN?5Chaos?5Mix?5Star@
CONST	SEGMENT
??_C@_0CC@JKJMDGCG@?$FLWings?55?5Lvl?5Mix?$FN?5Chaos?5Mix?5Star@ DB '[Win'
	DB	'gs 5 Lvl Mix] Chaos Mix Start', 00H		; `string'
CONST	ENDS
;	COMDAT ??_C@_0P@CMLCAPII@WingLevel5_Mix?$AA@
CONST	SEGMENT
??_C@_0P@CMLCAPII@WingLevel5_Mix?$AA@ DB 'WingLevel5_Mix', 00H ; `string'
; Function compile flags: /Ogtp
; File e:\work\tranet_version\gs\gameserver\mixsystem.cpp
CONST	ENDS
;	COMDAT ?MixWings5rd@CMixSystem@@QAEXPAUOBJECTSTRUCT@@@Z
_TEXT	SEGMENT
_RateMix$ = -68						; size = 4
_Need30Soul$ = -64					; size = 4
_NeedJewelOfCreatoion$ = -60				; size = 4
_NeedError$ = -56					; size = 4
_Need4lvlWing$ = -52					; size = 4
_NeedCondor$ = -48					; size = 4
_NeedJewelOfChaos$ = -44				; size = 4
_Need30Bless$ = -40					; size = 4
tv790 = -36						; size = 4
_ItemLuckAdd$220263 = -36				; size = 4
_MixPercent$ = -32					; size = 4
_NeedAncItem$ = -32					; size = 4
_ItemOptAdd$220265 = -28				; size = 4
_PlusProcent$ = -28					; size = 4
_ItemType$220223 = -24					; size = 4
_NeedExlItem$ = -24					; size = 4
_pMsg$ = -20						; size = 16
__$ArrayPad$ = -4					; size = 4
_lpObj$ = 8						; size = 4
?MixWings5rd@CMixSystem@@QAEXPAUOBJECTSTRUCT@@@Z PROC	; CMixSystem::MixWings5rd, COMDAT
; _this$ = ecx

; 6483 : {	

  00000	55		 push	 ebp
  00001	8b ec		 mov	 ebp, esp
  00003	83 ec 44	 sub	 esp, 68			; 00000044H
  00006	a1 00 00 00 00	 mov	 eax, DWORD PTR ___security_cookie
  0000b	33 c5		 xor	 eax, ebp
  0000d	89 45 fc	 mov	 DWORD PTR __$ArrayPad$[ebp], eax
  00010	53		 push	 ebx
  00011	56		 push	 esi
  00012	8b 75 08	 mov	 esi, DWORD PTR _lpObj$[ebp]
  00015	57		 push	 edi

; 6484 : 	PMSG_CHAOSMIXRESULT pMsg;
; 6485 : 
; 6486 : 	//if(false)//if(!ZtConfig.CommonServer.Mix4Wings)	//To Continue
; 6487 : 	//{
; 6488 : 	//	pMsg.Result = CB_INCORRECT_MIX_ITEMS;
; 6489 : 	//	DataSend(lpObj->m_Index, (LPBYTE)&pMsg, pMsg.h.size);
; 6490 : 	//	lpObj->ChaosLock = FALSE;
; 6491 : 	//	return;
; 6492 : 	//}
; 6493 : 
; 6494 : 	lpObj->ChaosLock = TRUE;
; 6495 : 
; 6496 : 	int NeedCondor = 0;

  00016	33 ff		 xor	 edi, edi

; 6497 : 	int NeedJewelOfChaos = 0;
; 6498 : 	int NeedJewelOfCreatoion = 0;
; 6499 : 	int Need30Bless = 0;
; 6500 : 	int Need30Soul = 0;
; 6501 : 	int Need4lvlWing = 0;
; 6502 : 	int NeedExlItem = 0;
; 6503 : 	int NeedMoney = 50000000;
; 6504 : 	int RateMix	= ZtConfig.CommonServer.Wing5MaxSuccessRate;
; 6505 : 	int NeedError = 0;
; 6506 : 	int MixLuckRate = 30;
; 6507 : 	int PlusProcent = 0;
; 6508 : 	int NeedAncItem = 0;
; 6509 : 
; 6510 : 	PHeadSetB((LPBYTE)&pMsg.h, 0x86, sizeof(PMSG_CHAOSMIXRESULT));

  00018	6a 10		 push	 16			; 00000010H
  0001a	8b d9		 mov	 ebx, ecx
  0001c	c7 86 88 0e 00
	00 01 00 00 00	 mov	 DWORD PTR [esi+3720], 1
  00026	a1 a4 00 00 00	 mov	 eax, DWORD PTR ?ZtConfig@@3VcZtConfigs@@A+164
  0002b	8d 4d ec	 lea	 ecx, DWORD PTR _pMsg$[ebp]
  0002e	68 86 00 00 00	 push	 134			; 00000086H
  00033	51		 push	 ecx
  00034	89 7d d0	 mov	 DWORD PTR _NeedCondor$[ebp], edi
  00037	89 7d d4	 mov	 DWORD PTR _NeedJewelOfChaos$[ebp], edi
  0003a	89 7d c4	 mov	 DWORD PTR _NeedJewelOfCreatoion$[ebp], edi
  0003d	89 7d d8	 mov	 DWORD PTR _Need30Bless$[ebp], edi
  00040	89 7d c0	 mov	 DWORD PTR _Need30Soul$[ebp], edi
  00043	89 7d cc	 mov	 DWORD PTR _Need4lvlWing$[ebp], edi
  00046	89 7d e8	 mov	 DWORD PTR _NeedExlItem$[ebp], edi
  00049	89 45 bc	 mov	 DWORD PTR _RateMix$[ebp], eax
  0004c	89 7d c8	 mov	 DWORD PTR _NeedError$[ebp], edi
  0004f	89 7d e4	 mov	 DWORD PTR _PlusProcent$[ebp], edi
  00052	89 7d e0	 mov	 DWORD PTR _NeedAncItem$[ebp], edi
  00055	e8 00 00 00 00	 call	 ?PHeadSetB@@YAXPAEEH@Z	; PHeadSetB
  0005a	83 c4 0c	 add	 esp, 12			; 0000000cH

; 6511 : 	pMsg.Result = CB_ERROR;

  0005d	c6 45 ef 00	 mov	 BYTE PTR _pMsg$[ebp+3], 0

; 6514 : 	{
; 6515 : 		if ( lpObj->pChaosBox[n].IsItem() == TRUE )

  00061	89 7d dc	 mov	 DWORD PTR tv790[ebp], edi
  00064	eb 0a 8d a4 24
	00 00 00 00 8d
	49 00		 npad	 12
$LL87@MixWings5r:
  00070	8b 8e 78 0e 00
	00		 mov	 ecx, DWORD PTR [esi+3704]
  00076	03 cf		 add	 ecx, edi
  00078	e8 00 00 00 00	 call	 ?IsItem@CItem@@QAEHXZ	; CItem::IsItem
  0007d	83 f8 01	 cmp	 eax, 1
  00080	0f 85 0c 01 00
	00		 jne	 $LN86@MixWings5r

; 6516 : 		{
; 6517 : 			if ( lpObj->pChaosBox[n].m_Type == ITEMGET(12,180) ||
; 6518 : 				 lpObj->pChaosBox[n].m_Type == ITEMGET(12,181) ||
; 6519 : 				 lpObj->pChaosBox[n].m_Type == ITEMGET(12,182) ||
; 6520 : 				 lpObj->pChaosBox[n].m_Type == ITEMGET(12,183) ||
; 6521 : 				 lpObj->pChaosBox[n].m_Type == ITEMGET(12,184) ||
; 6522 : 				 lpObj->pChaosBox[n].m_Type == ITEMGET(12,185) )

  00086	03 be 78 0e 00
	00		 add	 edi, DWORD PTR [esi+3704]
  0008c	b8 b4 18 00 00	 mov	 eax, 6324		; 000018b4H
  00091	0f b7 57 06	 movzx	 edx, WORD PTR [edi+6]
  00095	66 3b d0	 cmp	 dx, ax
  00098	0f 84 d9 00 00
	00		 je	 $LN82@MixWings5r
  0009e	b9 b5 18 00 00	 mov	 ecx, 6325		; 000018b5H
  000a3	66 3b d1	 cmp	 dx, cx
  000a6	0f 84 cb 00 00
	00		 je	 $LN82@MixWings5r
  000ac	b8 b6 18 00 00	 mov	 eax, 6326		; 000018b6H
  000b1	66 3b d0	 cmp	 dx, ax
  000b4	0f 84 bd 00 00
	00		 je	 $LN82@MixWings5r
  000ba	b9 b7 18 00 00	 mov	 ecx, 6327		; 000018b7H
  000bf	66 3b d1	 cmp	 dx, cx
  000c2	0f 84 af 00 00
	00		 je	 $LN82@MixWings5r
  000c8	b8 b8 18 00 00	 mov	 eax, 6328		; 000018b8H
  000cd	66 3b d0	 cmp	 dx, ax
  000d0	0f 84 a1 00 00
	00		 je	 $LN82@MixWings5r
  000d6	b9 b9 18 00 00	 mov	 ecx, 6329		; 000018b9H
  000db	66 3b d1	 cmp	 dx, cx
  000de	0f 84 93 00 00
	00		 je	 $LN82@MixWings5r

; 6527 : 				}
; 6528 : 			}
; 6529 : 			else if( this->CheckItemCondition(&lpObj->pChaosBox[n],9,0,0,1,0,1) != FALSE )

  000e4	6a 01		 push	 1
  000e6	6a 00		 push	 0
  000e8	6a 01		 push	 1
  000ea	6a 00		 push	 0
  000ec	6a 00		 push	 0
  000ee	6a 09		 push	 9
  000f0	57		 push	 edi
  000f1	8b cb		 mov	 ecx, ebx
  000f3	e8 00 00 00 00	 call	 ?CheckItemCondition@CMixSystem@@QAEHPAVCItem@@FEEEEE@Z ; CMixSystem::CheckItemCondition
  000f8	85 c0		 test	 eax, eax
  000fa	74 08		 je	 SHORT $LN79@MixWings5r

; 6530 : 			{
; 6531 : 				NeedExlItem++;

  000fc	ff 45 e8	 inc	 DWORD PTR _NeedExlItem$[ebp]
  000ff	e9 8e 00 00 00	 jmp	 $LN86@MixWings5r
$LN79@MixWings5r:

; 6532 : 			}
; 6533 : 			else if( this->CheckItemCondition(&lpObj->pChaosBox[n],9,0,0,1,1,0) != FALSE )

  00104	6a 00		 push	 0
  00106	6a 01		 push	 1
  00108	6a 01		 push	 1
  0010a	6a 00		 push	 0
  0010c	6a 00		 push	 0
  0010e	6a 09		 push	 9
  00110	57		 push	 edi
  00111	8b cb		 mov	 ecx, ebx
  00113	e8 00 00 00 00	 call	 ?CheckItemCondition@CMixSystem@@QAEHPAVCItem@@FEEEEE@Z ; CMixSystem::CheckItemCondition
  00118	85 c0		 test	 eax, eax
  0011a	74 05		 je	 SHORT $LN77@MixWings5r

; 6534 : 			{
; 6535 : 				NeedAncItem++;

  0011c	ff 45 e0	 inc	 DWORD PTR _NeedAncItem$[ebp]
  0011f	eb 71		 jmp	 SHORT $LN86@MixWings5r
$LN77@MixWings5r:

; 6536 : 			}
; 6537 : 			else if( lpObj->pChaosBox[n].m_Type == ITEMGET(13,52))	//condor

  00121	b8 34 1a 00 00	 mov	 eax, 6708		; 00001a34H
  00126	66 3b d0	 cmp	 dx, ax
  00129	75 05		 jne	 SHORT $LN75@MixWings5r

; 6538 : 			{
; 6539 : 				NeedCondor++;

  0012b	ff 45 d0	 inc	 DWORD PTR _NeedCondor$[ebp]
  0012e	eb 62		 jmp	 SHORT $LN86@MixWings5r
$LN75@MixWings5r:

; 6540 : 			}
; 6541 : 			else if( lpObj->pChaosBox[n].m_Type == this->iBundleofBless)	//30 B

  00130	0f bf c2	 movsx	 eax, dx
  00133	3b 43 14	 cmp	 eax, DWORD PTR [ebx+20]
  00136	75 05		 jne	 SHORT $LN73@MixWings5r

; 6542 : 			{
; 6543 : 				Need30Bless++;

  00138	ff 45 d8	 inc	 DWORD PTR _Need30Bless$[ebp]
  0013b	eb 55		 jmp	 SHORT $LN86@MixWings5r
$LN73@MixWings5r:

; 6544 : 			}
; 6545 : 			else if( lpObj->pChaosBox[n].m_Type == this->iBundleofSoul)	//30 S

  0013d	3b 43 18	 cmp	 eax, DWORD PTR [ebx+24]
  00140	75 05		 jne	 SHORT $LN71@MixWings5r

; 6546 : 			{
; 6547 : 				Need30Soul++;

  00142	ff 45 c0	 inc	 DWORD PTR _Need30Soul$[ebp]
  00145	eb 4b		 jmp	 SHORT $LN86@MixWings5r
$LN71@MixWings5r:

; 6548 : 			}
; 6549 : 			else if( lpObj->pChaosBox[n].m_Type == this->iJewelofChaos)

  00147	3b 43 04	 cmp	 eax, DWORD PTR [ebx+4]
  0014a	75 05		 jne	 SHORT $LN69@MixWings5r

; 6550 : 			{
; 6551 : 				NeedJewelOfChaos++;

  0014c	ff 45 d4	 inc	 DWORD PTR _NeedJewelOfChaos$[ebp]
  0014f	eb 41		 jmp	 SHORT $LN86@MixWings5r
$LN69@MixWings5r:

; 6552 : 			}
; 6553 : 			else if( lpObj->pChaosBox[n].m_Type == this->iJewelofCreation)

  00151	3b 43 10	 cmp	 eax, DWORD PTR [ebx+16]
  00154	75 05		 jne	 SHORT $LN67@MixWings5r

; 6554 : 			{
; 6555 : 				NeedJewelOfCreatoion++;

  00156	ff 45 c4	 inc	 DWORD PTR _NeedJewelOfCreatoion$[ebp]
  00159	eb 37		 jmp	 SHORT $LN86@MixWings5r
$LN67@MixWings5r:

; 6556 : 			}
; 6557 : 			else if( lpObj->pChaosBox[n].m_Type == ITEMGET(14,53) )

  0015b	b9 35 1c 00 00	 mov	 ecx, 7221		; 00001c35H
  00160	66 3b d1	 cmp	 dx, cx
  00163	75 0d		 jne	 SHORT $LN65@MixWings5r

; 6558 : 			{
; 6559 : 				PlusProcent+= (int)lpObj->pChaosBox[n].m_Durability;

  00165	d9 47 24	 fld	 DWORD PTR [edi+36]
  00168	e8 00 00 00 00	 call	 __ftol2_sse
  0016d	01 45 e4	 add	 DWORD PTR _PlusProcent$[ebp], eax

; 6560 : 			}
; 6561 : 			else

  00170	eb 20		 jmp	 SHORT $LN86@MixWings5r
$LN65@MixWings5r:

; 6562 : 			{
; 6563 : 				NeedError++;

  00172	ff 45 c8	 inc	 DWORD PTR _NeedError$[ebp]
  00175	eb 1b		 jmp	 SHORT $LN86@MixWings5r
$LN82@MixWings5r:

; 6523 : 			{
; 6524 : 				if( this->CheckItemCondition(&lpObj->pChaosBox[n],9,0,0,1,0,0) != FALSE )

  00177	6a 00		 push	 0
  00179	6a 00		 push	 0
  0017b	6a 01		 push	 1
  0017d	6a 00		 push	 0
  0017f	6a 00		 push	 0
  00181	6a 09		 push	 9
  00183	57		 push	 edi
  00184	8b cb		 mov	 ecx, ebx
  00186	e8 00 00 00 00	 call	 ?CheckItemCondition@CMixSystem@@QAEHPAVCItem@@FEEEEE@Z ; CMixSystem::CheckItemCondition
  0018b	85 c0		 test	 eax, eax
  0018d	74 03		 je	 SHORT $LN86@MixWings5r

; 6525 : 				{
; 6526 : 					Need4lvlWing++;

  0018f	ff 45 cc	 inc	 DWORD PTR _Need4lvlWing$[ebp]
$LN86@MixWings5r:

; 6512 : 
; 6513 : 	for ( int n=0;n<CHAOS_BOX_SIZE;n++) //loc16

  00192	8b 7d dc	 mov	 edi, DWORD PTR tv790[ebp]
  00195	81 c7 d4 00 00
	00		 add	 edi, 212		; 000000d4H
  0019b	89 7d dc	 mov	 DWORD PTR tv790[ebp], edi
  0019e	81 ff 80 1a 00
	00		 cmp	 edi, 6784		; 00001a80H
  001a4	0f 8c c6 fe ff
	ff		 jl	 $LL87@MixWings5r

; 6564 : 			}
; 6565 : 		}
; 6566 : 	}
; 6567 : 
; 6568 : 	if(PlusProcent > 10)

  001aa	83 7d e4 0a	 cmp	 DWORD PTR _PlusProcent$[ebp], 10 ; 0000000aH
  001ae	7e 15		 jle	 SHORT $LN63@MixWings5r

; 6569 : 	{
; 6570 : 		pMsg.Result = 0xF0; //new macro
; 6571 : 		DataSend(lpObj->m_Index, (LPBYTE)&pMsg, pMsg.h.size);

  001b0	0f b6 55 ed	 movzx	 edx, BYTE PTR _pMsg$[ebp+1]
  001b4	8b 0e		 mov	 ecx, DWORD PTR [esi]
  001b6	52		 push	 edx
  001b7	8d 45 ec	 lea	 eax, DWORD PTR _pMsg$[ebp]
  001ba	50		 push	 eax
  001bb	c6 45 ef f0	 mov	 BYTE PTR _pMsg$[ebp+3], 240 ; 000000f0H
  001bf	51		 push	 ecx

; 6572 : 		lpObj->ChaosLock = FALSE;
; 6573 : 		return;

  001c0	e9 6f 03 00 00	 jmp	 $LN99@MixWings5r
$LN63@MixWings5r:

; 6574 : 	}
; 6575 : 
; 6576 : 	if(NeedExlItem < 1 || NeedCondor != 1 || NeedJewelOfChaos != 1 || Need4lvlWing != 1 || NeedJewelOfCreatoion != 1 || 
; 6577 : 	   Need30Bless != 1 || Need30Soul != 1 || NeedError > 0 || NeedAncItem != 1)

  001c5	b8 01 00 00 00	 mov	 eax, 1
  001ca	39 45 e8	 cmp	 DWORD PTR _NeedExlItem$[ebp], eax
  001cd	0f 8c 51 03 00
	00		 jl	 $LN95@MixWings5r
  001d3	39 45 d0	 cmp	 DWORD PTR _NeedCondor$[ebp], eax
  001d6	0f 85 48 03 00
	00		 jne	 $LN95@MixWings5r
  001dc	39 45 d4	 cmp	 DWORD PTR _NeedJewelOfChaos$[ebp], eax
  001df	0f 85 3f 03 00
	00		 jne	 $LN95@MixWings5r
  001e5	39 45 cc	 cmp	 DWORD PTR _Need4lvlWing$[ebp], eax
  001e8	0f 85 36 03 00
	00		 jne	 $LN95@MixWings5r
  001ee	39 45 c4	 cmp	 DWORD PTR _NeedJewelOfCreatoion$[ebp], eax
  001f1	0f 85 2d 03 00
	00		 jne	 $LN95@MixWings5r
  001f7	39 45 d8	 cmp	 DWORD PTR _Need30Bless$[ebp], eax
  001fa	0f 85 24 03 00
	00		 jne	 $LN95@MixWings5r
  00200	39 45 c0	 cmp	 DWORD PTR _Need30Soul$[ebp], eax
  00203	0f 85 1b 03 00
	00		 jne	 $LN95@MixWings5r
  00209	83 7d c8 00	 cmp	 DWORD PTR _NeedError$[ebp], 0
  0020d	0f 8f 11 03 00
	00		 jg	 $LN95@MixWings5r
  00213	39 45 e0	 cmp	 DWORD PTR _NeedAncItem$[ebp], eax
  00216	0f 85 08 03 00
	00		 jne	 $LN95@MixWings5r

; 6581 : 		lpObj->ChaosLock = FALSE;
; 6582 : 		return;
; 6583 : 	}
; 6584 : 
; 6585 : 	LogChaosItem(lpObj, "WingLevel5_Mix");

  0021c	68 00 00 00 00	 push	 OFFSET ??_C@_0P@CMLCAPII@WingLevel5_Mix?$AA@
  00221	56		 push	 esi
  00222	8b cb		 mov	 ecx, ebx
  00224	e8 00 00 00 00	 call	 ?LogChaosItem@CMixSystem@@QAEXPAUOBJECTSTRUCT@@PAD@Z ; CMixSystem::LogChaosItem

; 6586 : 	LogAddTD("[Wings 5 Lvl Mix] Chaos Mix Start");

  00229	68 00 00 00 00	 push	 OFFSET ??_C@_0CC@JKJMDGCG@?$FLWings?55?5Lvl?5Mix?$FN?5Chaos?5Mix?5Star@
  0022e	ff 15 00 00 00
	00		 call	 DWORD PTR ?LogAddTD@@3P6AXPADZZA ; LogAddTD

; 6587 : 
; 6588 : 	int iChaosTaxMoney = (int)((__int64)NeedMoney * (__int64)g_CastleSiegeSync.GetTaxRateChaos(lpObj->m_Index) / (__int64)100);

  00234	8b 16		 mov	 edx, DWORD PTR [esi]
  00236	83 c4 04	 add	 esp, 4
  00239	52		 push	 edx
  0023a	b9 00 00 00 00	 mov	 ecx, OFFSET ?g_CastleSiegeSync@@3VCCastleSiegeSync@@A ; g_CastleSiegeSync
  0023f	e8 00 00 00 00	 call	 ?GetTaxRateChaos@CCastleSiegeSync@@QAEHH@Z ; CCastleSiegeSync::GetTaxRateChaos
  00244	6a 00		 push	 0
  00246	99		 cdq
  00247	68 80 f0 fa 02	 push	 50000000		; 02faf080H
  0024c	52		 push	 edx
  0024d	50		 push	 eax
  0024e	e8 00 00 00 00	 call	 __allmul
  00253	6a 00		 push	 0
  00255	6a 64		 push	 100			; 00000064H
  00257	52		 push	 edx
  00258	50		 push	 eax
  00259	e8 00 00 00 00	 call	 __alldiv

; 6589 : 
; 6590 : 	if(iChaosTaxMoney < 0)

  0025e	85 c0		 test	 eax, eax
  00260	79 02		 jns	 SHORT $LN60@MixWings5r

; 6591 : 	{
; 6592 : 		iChaosTaxMoney = 0;

  00262	33 c0		 xor	 eax, eax
$LN60@MixWings5r:

; 6593 : 	}
; 6594 : 
; 6595 : 	if ( lpObj->Money < NeedMoney )

  00264	8b 8e f0 00 00
	00		 mov	 ecx, DWORD PTR [esi+240]
  0026a	81 f9 80 f0 fa
	02		 cmp	 ecx, 50000000		; 02faf080H
  00270	7d 15		 jge	 SHORT $LN59@MixWings5r

; 6596 : 	{
; 6597 : 		pMsg.Result = CB_NOT_ENOUGH_ZEN;
; 6598 : 
; 6599 : 		DataSend(lpObj->m_Index, (LPBYTE)&pMsg, pMsg.h.size);

  00272	0f b6 45 ed	 movzx	 eax, BYTE PTR _pMsg$[ebp+1]
  00276	8b 16		 mov	 edx, DWORD PTR [esi]
  00278	50		 push	 eax
  00279	8d 4d ec	 lea	 ecx, DWORD PTR _pMsg$[ebp]
  0027c	51		 push	 ecx
  0027d	c6 45 ef 02	 mov	 BYTE PTR _pMsg$[ebp+3], 2
  00281	52		 push	 edx

; 6600 : 		lpObj->ChaosLock = FALSE;
; 6601 : 
; 6602 : 		return;

  00282	e9 ad 02 00 00	 jmp	 $LN99@MixWings5r
$LN59@MixWings5r:

; 6603 : 	}
; 6604 : 
; 6605 : 	lpObj->Money -= NeedMoney;

  00287	81 c1 80 0f 05
	fd		 add	 ecx, -50000000		; fd050f80H
  0028d	89 8e f0 00 00
	00		 mov	 DWORD PTR [esi+240], ecx

; 6606 : 	g_CastleSiegeSync.AddTributeMoney(iChaosTaxMoney);

  00293	50		 push	 eax
  00294	b9 00 00 00 00	 mov	 ecx, OFFSET ?g_CastleSiegeSync@@3VCCastleSiegeSync@@A ; g_CastleSiegeSync
  00299	e8 00 00 00 00	 call	 ?AddTributeMoney@CCastleSiegeSync@@QAEXH@Z ; CCastleSiegeSync::AddTributeMoney

; 6607 : 	GCMoneySend(lpObj->m_Index, lpObj->Money);

  0029e	8b 86 f0 00 00
	00		 mov	 eax, DWORD PTR [esi+240]
  002a4	8b 0e		 mov	 ecx, DWORD PTR [esi]
  002a6	50		 push	 eax
  002a7	51		 push	 ecx
  002a8	e8 00 00 00 00	 call	 ?GCMoneySend@@YAXHK@Z	; GCMoneySend

; 6608 : 	srand(time(NULL));

  002ad	6a 00		 push	 0
  002af	e8 00 00 00 00	 call	 __time64
  002b4	50		 push	 eax
  002b5	e8 00 00 00 00	 call	 _srand
  002ba	83 c4 10	 add	 esp, 16			; 00000010H

; 6609 : 	int MixPercent = (rand()%100);

  002bd	e8 00 00 00 00	 call	 _rand
  002c2	99		 cdq
  002c3	b9 64 00 00 00	 mov	 ecx, 100		; 00000064H
  002c8	f7 f9		 idiv	 ecx
  002ca	8b fa		 mov	 edi, edx
  002cc	89 7d e0	 mov	 DWORD PTR _MixPercent$[ebp], edi

; 6610 : 
; 6611 : 	if(RateMix > MixPercent)

  002cf	39 7d bc	 cmp	 DWORD PTR _RateMix$[ebp], edi
  002d2	0f 8e de 01 00
	00		 jle	 $LN58@MixWings5r

; 6612 : 	{
; 6613 : 		int ItemType = 0;
; 6614 : 
; 6615 : 		if(ZtConfig.ZtCustom.SwitchChar == 1)

  002d8	a1 00 00 00 00	 mov	 eax, DWORD PTR ?ZtConfig@@3VcZtConfigs@@A
  002dd	33 db		 xor	 ebx, ebx
  002df	89 5d e8	 mov	 DWORD PTR _ItemType$220223[ebp], ebx
  002e2	83 f8 01	 cmp	 eax, 1
  002e5	75 52		 jne	 SHORT $LN46@MixWings5r

; 6616 : 		{
; 6617 : 			int CharItemCount = 5;
; 6618 : 
; 6619 : 			int loc18 = rand()%CharItemCount;

  002e7	e8 00 00 00 00	 call	 _rand
  002ec	99		 cdq
  002ed	b9 05 00 00 00	 mov	 ecx, 5
  002f2	f7 f9		 idiv	 ecx

; 6620 : 
; 6621 : 			if(loc18 == 0)

  002f4	3b d3		 cmp	 edx, ebx
  002f6	75 09		 jne	 SHORT $LN56@MixWings5r

; 6622 : 			{
; 6623 : 				ItemType = ITEMGET(12,189);

  002f8	c7 45 e8 bd 18
	00 00		 mov	 DWORD PTR _ItemType$220223[ebp], 6333 ; 000018bdH
  002ff	eb 3d		 jmp	 SHORT $LN29@MixWings5r
$LN56@MixWings5r:

; 6624 : 			}
; 6625 : 			else if( loc18 == 1)

  00301	83 fa 01	 cmp	 edx, 1
  00304	75 09		 jne	 SHORT $LN54@MixWings5r

; 6626 : 			{
; 6627 : 				ItemType = ITEMGET(12,190);

  00306	c7 45 e8 be 18
	00 00		 mov	 DWORD PTR _ItemType$220223[ebp], 6334 ; 000018beH
  0030d	eb 2f		 jmp	 SHORT $LN29@MixWings5r
$LN54@MixWings5r:

; 6628 : 			}
; 6629 : 			else if( loc18 == 2)

  0030f	83 fa 02	 cmp	 edx, 2
  00312	75 09		 jne	 SHORT $LN52@MixWings5r

; 6630 : 			{
; 6631 : 				ItemType = ITEMGET(12,191);

  00314	c7 45 e8 bf 18
	00 00		 mov	 DWORD PTR _ItemType$220223[ebp], 6335 ; 000018bfH
  0031b	eb 21		 jmp	 SHORT $LN29@MixWings5r
$LN52@MixWings5r:

; 6632 : 			}
; 6633 : 			else if( loc18 == 3)

  0031d	83 fa 03	 cmp	 edx, 3
  00320	75 09		 jne	 SHORT $LN50@MixWings5r

; 6634 : 			{
; 6635 : 				ItemType = ITEMGET(12,192);

  00322	c7 45 e8 c0 18
	00 00		 mov	 DWORD PTR _ItemType$220223[ebp], 6336 ; 000018c0H
  00329	eb 13		 jmp	 SHORT $LN29@MixWings5r
$LN50@MixWings5r:

; 6636 : 			}
; 6637 : 			else if( loc18 == 4)

  0032b	83 fa 04	 cmp	 edx, 4
  0032e	75 0e		 jne	 SHORT $LN29@MixWings5r

; 6638 : 			{
; 6639 : 				ItemType = ITEMGET(12,193);

  00330	c7 45 e8 c1 18
	00 00		 mov	 DWORD PTR _ItemType$220223[ebp], 6337 ; 000018c1H

; 6640 : 			}
; 6641 : 		}

  00337	eb 05		 jmp	 SHORT $LN29@MixWings5r
$LN46@MixWings5r:

; 6642 : 		else if(ZtConfig.ZtCustom.SwitchChar == 2)
; 6643 : 		{
; 6644 : 			int CharItemCount = 4;
; 6645 : 
; 6646 : 			int loc18 = rand()%CharItemCount;
; 6647 : 			int ItemType = 0;
; 6648 : 
; 6649 : 			if(loc18 == 0)
; 6650 : 			{
; 6651 : 				ItemType = ITEMGET(12,189);
; 6652 : 			}
; 6653 : 			else if( loc18 == 1)
; 6654 : 			{
; 6655 : 				ItemType = ITEMGET(12,190);
; 6656 : 			}
; 6657 : 			else if( loc18 == 2)
; 6658 : 			{
; 6659 : 				ItemType = ITEMGET(12,191);
; 6660 : 			}
; 6661 : 			else if( loc18 == 3)
; 6662 : 			{
; 6663 : 				ItemType = ITEMGET(12,193);
; 6664 : 			}
; 6665 : 		}
; 6666 : 		else
; 6667 : 		{
; 6668 : 			int CharItemCount = 6;
; 6669 : 
; 6670 : 			int loc18 = rand()%CharItemCount;

  00339	e8 00 00 00 00	 call	 _rand
$LN29@MixWings5r:

; 6671 : 			int ItemType = 0;
; 6672 : 
; 6673 : 			if(loc18 == 0)
; 6674 : 			{
; 6675 : 				ItemType = ITEMGET(12,189);
; 6676 : 			}
; 6677 : 			else if( loc18 == 1)
; 6678 : 			{
; 6679 : 				ItemType = ITEMGET(12,190);
; 6680 : 			}
; 6681 : 			else if( loc18 == 2)
; 6682 : 			{
; 6683 : 				ItemType = ITEMGET(12,191);
; 6684 : 			}
; 6685 : 			else if( loc18 == 3)
; 6686 : 			{
; 6687 : 				ItemType = ITEMGET(12,192);
; 6688 : 			}
; 6689 : 			else if( loc18 == 4)
; 6690 : 			{
; 6691 : 				ItemType = ITEMGET(12,193);
; 6692 : 			}
; 6693 : 			else if( loc18 == 5)
; 6694 : 			{
; 6695 : 				ItemType = ITEMGET(12,194);
; 6696 : 			}
; 6697 : 		}
; 6698 : 
; 6699 : 		int ItemLuckAdd = 0;

  0033e	89 5d dc	 mov	 DWORD PTR _ItemLuckAdd$220263[ebp], ebx

; 6700 : 
; 6701 : 		if( (rand()%100) <= MixLuckRate )

  00341	e8 00 00 00 00	 call	 _rand
  00346	99		 cdq
  00347	b9 64 00 00 00	 mov	 ecx, 100		; 00000064H
  0034c	f7 f9		 idiv	 ecx
  0034e	83 fa 1e	 cmp	 edx, 30			; 0000001eH
  00351	7f 07		 jg	 SHORT $LN26@MixWings5r

; 6702 : 		{
; 6703 : 			ItemLuckAdd = 1;

  00353	c7 45 dc 01 00
	00 00		 mov	 DWORD PTR _ItemLuckAdd$220263[ebp], 1
$LN26@MixWings5r:

; 6704 : 		}
; 6705 : 
; 6706 : 		int ItemOptAdd = 0;

  0035a	89 5d e4	 mov	 DWORD PTR _ItemOptAdd$220265[ebp], ebx

; 6707 : 		int loc23 = 0;
; 6708 : 		int loc24 = rand()%2;

  0035d	e8 00 00 00 00	 call	 _rand
  00362	25 01 00 00 80	 and	 eax, -2147483647	; 80000001H
  00367	79 05		 jns	 SHORT $LN96@MixWings5r
  00369	48		 dec	 eax
  0036a	83 c8 fe	 or	 eax, -2			; fffffffeH
  0036d	40		 inc	 eax
$LN96@MixWings5r:

; 6709 : 		int loc25;
; 6710 : 		int loc26;
; 6711 : 		int loc27;
; 6712 : 		int loc28;
; 6713 : 		int loc29;
; 6714 : 
; 6715 : 		switch ( loc24 )

  0036e	2b c3		 sub	 eax, ebx
  00370	74 0f		 je	 SHORT $LN23@MixWings5r
  00372	48		 dec	 eax
  00373	75 26		 jne	 SHORT $LN22@MixWings5r

; 6722 : 			}
; 6723 : 			break;
; 6724 : 
; 6725 : 		case 1:
; 6726 : 			loc25 = rand()%1000;

  00375	e8 00 00 00 00	 call	 _rand

; 6727 : 			if(loc24 < 300)
; 6728 : 			{
; 6729 : 				loc23 |= 0x20;

  0037a	bb 20 00 00 00	 mov	 ebx, 32			; 00000020H

; 6730 : 			}
; 6731 : 			break;

  0037f	eb 1a		 jmp	 SHORT $LN22@MixWings5r
$LN23@MixWings5r:

; 6716 : 		{
; 6717 : 		case 0:
; 6718 : 			loc25 = rand()%1000;

  00381	e8 00 00 00 00	 call	 _rand
  00386	99		 cdq
  00387	b9 e8 03 00 00	 mov	 ecx, 1000		; 000003e8H
  0038c	f7 f9		 idiv	 ecx

; 6719 : 			if(loc25 < 400)

  0038e	81 fa 90 01 00
	00		 cmp	 edx, 400		; 00000190H
  00394	7d 05		 jge	 SHORT $LN22@MixWings5r

; 6720 : 			{
; 6721 : 				loc23 |= 0x10;

  00396	bb 10 00 00 00	 mov	 ebx, 16			; 00000010H
$LN22@MixWings5r:

; 6732 : 		}
; 6733 : 
; 6734 : 		loc26 = rand()%4;

  0039b	e8 00 00 00 00	 call	 _rand
  003a0	8b f8		 mov	 edi, eax
  003a2	81 e7 03 00 00
	80		 and	 edi, -2147483645	; 80000003H
  003a8	79 05		 jns	 SHORT $LN97@MixWings5r
  003aa	4f		 dec	 edi
  003ab	83 cf fc	 or	 edi, -4			; fffffffcH
  003ae	47		 inc	 edi
$LN97@MixWings5r:

; 6735 : 		loc27 = rand()%1000;

  003af	e8 00 00 00 00	 call	 _rand
  003b4	99		 cdq
  003b5	b9 e8 03 00 00	 mov	 ecx, 1000		; 000003e8H
  003ba	f7 f9		 idiv	 ecx

; 6736 : 
; 6737 : 		switch( loc26 )

  003bc	4f		 dec	 edi
  003bd	74 22		 je	 SHORT $LN17@MixWings5r
  003bf	4f		 dec	 edi
  003c0	74 11		 je	 SHORT $LN15@MixWings5r
  003c2	4f		 dec	 edi
  003c3	75 28		 jne	 SHORT $LN16@MixWings5r

; 6756 : 
; 6757 : 		case 3:
; 6758 : 			{
; 6759 : 				if(loc27 < 30)

  003c5	83 fa 1e	 cmp	 edx, 30			; 0000001eH
  003c8	7d 23		 jge	 SHORT $LN16@MixWings5r

; 6760 : 				{
; 6761 : 					ItemOptAdd = 3;

  003ca	c7 45 e4 03 00
	00 00		 mov	 DWORD PTR _ItemOptAdd$220265[ebp], 3

; 6762 : 				}
; 6763 : 			}
; 6764 : 			break;

  003d1	eb 1a		 jmp	 SHORT $LN16@MixWings5r
$LN15@MixWings5r:

; 6744 : 				}
; 6745 : 			}
; 6746 : 			break;
; 6747 : 
; 6748 : 		case 2:
; 6749 : 			{
; 6750 : 				if(loc27 < 60)

  003d3	83 fa 3c	 cmp	 edx, 60			; 0000003cH
  003d6	7d 15		 jge	 SHORT $LN16@MixWings5r

; 6751 : 				{
; 6752 : 					ItemOptAdd = 2;

  003d8	c7 45 e4 02 00
	00 00		 mov	 DWORD PTR _ItemOptAdd$220265[ebp], 2

; 6753 : 				}
; 6754 : 			}
; 6755 : 			break;

  003df	eb 0c		 jmp	 SHORT $LN16@MixWings5r
$LN17@MixWings5r:

; 6738 : 		{
; 6739 : 		case 1:
; 6740 : 			{
; 6741 : 				if(loc27 < 120)

  003e1	83 fa 78	 cmp	 edx, 120		; 00000078H
  003e4	7d 07		 jge	 SHORT $LN16@MixWings5r

; 6742 : 				{
; 6743 : 					ItemOptAdd = 1;

  003e6	c7 45 e4 01 00
	00 00		 mov	 DWORD PTR _ItemOptAdd$220265[ebp], 1
$LN16@MixWings5r:

; 6765 : 		}
; 6766 : 
; 6767 : 		loc28 = rand()%4;

  003ed	e8 00 00 00 00	 call	 _rand
  003f2	8b f8		 mov	 edi, eax
  003f4	81 e7 03 00 00
	80		 and	 edi, -2147483645	; 80000003H
  003fa	79 05		 jns	 SHORT $LN98@MixWings5r
  003fc	4f		 dec	 edi
  003fd	83 cf fc	 or	 edi, -4			; fffffffcH
  00400	47		 inc	 edi
$LN98@MixWings5r:

; 6768 : 		loc29 = rand()%1000;

  00401	e8 00 00 00 00	 call	 _rand
  00406	99		 cdq
  00407	b9 e8 03 00 00	 mov	 ecx, 1000		; 000003e8H
  0040c	f7 f9		 idiv	 ecx

; 6769 : 
; 6770 : 		switch( loc28 )

  0040e	83 ff 03	 cmp	 edi, 3
  00411	77 2d		 ja	 SHORT $LN2@MixWings5r
  00413	ff 24 bd 00 00
	00 00		 jmp	 DWORD PTR $LN100@MixWings5r[edi*4]
$LN9@MixWings5r:

; 6771 : 		{
; 6772 : 		case 0:
; 6773 : 			{
; 6774 : 				if(loc29 < 40)

  0041a	83 fa 28	 cmp	 edx, 40			; 00000028H
  0041d	7d 21		 jge	 SHORT $LN2@MixWings5r

; 6775 : 				{
; 6776 : 					loc23 |= 1;

  0041f	83 cb 01	 or	 ebx, 1

; 6777 : 				}
; 6778 : 			}
; 6779 : 			break;

  00422	eb 1c		 jmp	 SHORT $LN2@MixWings5r
$LN7@MixWings5r:

; 6780 : 		case 1:
; 6781 : 			{
; 6782 : 				if(loc29 < 20)

  00424	83 fa 14	 cmp	 edx, 20			; 00000014H
  00427	7d 17		 jge	 SHORT $LN2@MixWings5r

; 6783 : 				{
; 6784 : 					loc23 |= 2;

  00429	83 cb 02	 or	 ebx, 2

; 6785 : 				}
; 6786 : 			}
; 6787 : 			break;

  0042c	eb 12		 jmp	 SHORT $LN2@MixWings5r
$LN5@MixWings5r:

; 6788 : 
; 6789 : 		case 2:
; 6790 : 			{
; 6791 : 				if(loc29 < 70)

  0042e	83 fa 46	 cmp	 edx, 70			; 00000046H
  00431	7d 0d		 jge	 SHORT $LN2@MixWings5r

; 6792 : 				{
; 6793 : 					loc23 |= 4;

  00433	83 cb 04	 or	 ebx, 4

; 6794 : 				}
; 6795 : 			}
; 6796 : 			break;

  00436	eb 08		 jmp	 SHORT $LN2@MixWings5r
$LN3@MixWings5r:

; 6797 : 		case 3:
; 6798 : 			{
; 6799 : 				if(loc29 < 70)

  00438	83 fa 46	 cmp	 edx, 70			; 00000046H
  0043b	7d 03		 jge	 SHORT $LN2@MixWings5r

; 6800 : 				{
; 6801 : 					loc23 |= 8;

  0043d	83 cb 08	 or	 ebx, 8
$LN2@MixWings5r:

; 6802 : 				}
; 6803 : 			}
; 6804 : 			break;
; 6805 : 		}
; 6806 : 
; 6807 : 		ItemSerialCreateSend(lpObj->m_Index, -1, 0, 0, ItemType , 0, 0, 0, (BYTE)ItemLuckAdd, (BYTE)ItemOptAdd, -1, (BYTE)loc23, 0);

  00440	8b 55 e4	 mov	 edx, DWORD PTR _ItemOptAdd$220265[ebp]
  00443	8b 45 dc	 mov	 eax, DWORD PTR _ItemLuckAdd$220263[ebp]
  00446	8b 4d e8	 mov	 ecx, DWORD PTR _ItemType$220223[ebp]
  00449	6a 00		 push	 0
  0044b	53		 push	 ebx
  0044c	6a ff		 push	 -1
  0044e	52		 push	 edx
  0044f	8b 16		 mov	 edx, DWORD PTR [esi]
  00451	50		 push	 eax
  00452	6a 00		 push	 0
  00454	6a 00		 push	 0
  00456	6a 00		 push	 0
  00458	51		 push	 ecx
  00459	6a 00		 push	 0
  0045b	6a 00		 push	 0
  0045d	68 ff 00 00 00	 push	 255			; 000000ffH
  00462	52		 push	 edx
  00463	e8 00 00 00 00	 call	 ?ItemSerialCreateSend@@YAXHEEEHEEEEEHEE@Z ; ItemSerialCreateSend

; 6808 : 		::gObjInventoryCommit(lpObj->m_Index);

  00468	8b 06		 mov	 eax, DWORD PTR [esi]
  0046a	50		 push	 eax
  0046b	e8 00 00 00 00	 call	 ?gObjInventoryCommit@@YAHH@Z ; gObjInventoryCommit

; 6809 : 
; 6810 : 		LogAddTD("[5rd Wings Mix] [%s][%s] CBMix Success %d Money : %d-%d, CharmRate : %d",
; 6811 : 			lpObj->AccountID, lpObj->Name, MixPercent,	lpObj->Money, NeedMoney);

  00470	8b 8e f0 00 00
	00		 mov	 ecx, DWORD PTR [esi+240]
  00476	8b 55 e0	 mov	 edx, DWORD PTR _MixPercent$[ebp]
  00479	68 80 f0 fa 02	 push	 50000000		; 02faf080H
  0047e	51		 push	 ecx
  0047f	52		 push	 edx
  00480	8d 46 77	 lea	 eax, DWORD PTR [esi+119]
  00483	50		 push	 eax
  00484	8d 4e 6c	 lea	 ecx, DWORD PTR [esi+108]
  00487	51		 push	 ecx
  00488	68 00 00 00 00	 push	 OFFSET ??_C@_0EI@OMDPDJNI@?$FL5rd?5Wings?5Mix?$FN?5?$FL?$CFs?$FN?$FL?$CFs?$FN?5CBMix?5S@
  0048d	ff 15 00 00 00
	00		 call	 DWORD PTR ?LogAddTD@@3P6AXPADZZA ; LogAddTD

; 6812 : #if(SYSTEM_ACHIEVEMENTS)
; 6813 : 		g_Achievements.SuccessChaosMix(lpObj->m_Index);

  00493	8b 16		 mov	 edx, DWORD PTR [esi]
  00495	83 c4 50	 add	 esp, 80			; 00000050H
  00498	52		 push	 edx
  00499	b9 00 00 00 00	 mov	 ecx, OFFSET ?g_Achievements@@3VCAchievements@@A ; g_Achievements
  0049e	e8 00 00 00 00	 call	 ?SuccessChaosMix@CAchievements@@QAEXH@Z ; CAchievements::SuccessChaosMix
  004a3	5f		 pop	 edi
  004a4	5e		 pop	 esi
  004a5	5b		 pop	 ebx

; 6827 : #endif
; 6828 : 	}
; 6829 : }

  004a6	8b 4d fc	 mov	 ecx, DWORD PTR __$ArrayPad$[ebp]
  004a9	33 cd		 xor	 ecx, ebp
  004ab	e8 00 00 00 00	 call	 @__security_check_cookie@4
  004b0	8b e5		 mov	 esp, ebp
  004b2	5d		 pop	 ebp
  004b3	c2 04 00	 ret	 4
$LN58@MixWings5r:

; 6814 : #endif
; 6815 : 	}
; 6816 : 	else
; 6817 : 	{
; 6818 : 		this->ChaosBoxInit(lpObj);

  004b6	56		 push	 esi
  004b7	8b cb		 mov	 ecx, ebx
  004b9	e8 00 00 00 00	 call	 ?ChaosBoxInit@CMixSystem@@QAEHPAUOBJECTSTRUCT@@@Z ; CMixSystem::ChaosBoxInit

; 6819 : 		::GCUserChaosBoxSend(lpObj, 0);

  004be	6a 00		 push	 0
  004c0	56		 push	 esi
  004c1	e8 00 00 00 00	 call	 ?GCUserChaosBoxSend@@YAXPAUOBJECTSTRUCT@@H@Z ; GCUserChaosBoxSend

; 6820 : 		DataSend(lpObj->m_Index, (LPBYTE)&pMsg, pMsg.h.size);

  004c6	0f b6 45 ed	 movzx	 eax, BYTE PTR _pMsg$[ebp+1]
  004ca	8b 16		 mov	 edx, DWORD PTR [esi]
  004cc	50		 push	 eax
  004cd	8d 4d ec	 lea	 ecx, DWORD PTR _pMsg$[ebp]
  004d0	51		 push	 ecx
  004d1	52		 push	 edx
  004d2	e8 00 00 00 00	 call	 ?DataSend@@YAHHPAEK@Z	; DataSend

; 6821 : 
; 6822 : 		LogAddTD("[5rd Wings Mix] [%s][%s] CBMix Fail %d Money : %d-%d",
; 6823 : 			lpObj->AccountID, lpObj->Name, MixPercent,	lpObj->Money, NeedMoney);

  004d7	8b 86 f0 00 00
	00		 mov	 eax, DWORD PTR [esi+240]
  004dd	68 80 f0 fa 02	 push	 50000000		; 02faf080H
  004e2	50		 push	 eax
  004e3	57		 push	 edi
  004e4	8d 4e 77	 lea	 ecx, DWORD PTR [esi+119]
  004e7	51		 push	 ecx
  004e8	8d 56 6c	 lea	 edx, DWORD PTR [esi+108]
  004eb	52		 push	 edx
  004ec	68 00 00 00 00	 push	 OFFSET ??_C@_0DF@ECBKIEB@?$FL5rd?5Wings?5Mix?$FN?5?$FL?$CFs?$FN?$FL?$CFs?$FN?5CBMix?5F@
  004f1	ff 15 00 00 00
	00		 call	 DWORD PTR ?LogAddTD@@3P6AXPADZZA ; LogAddTD

; 6824 : 		lpObj->ChaosLock = FALSE;
; 6825 : #if(SYSTEM_ACHIEVEMENTS)
; 6826 : 		g_Achievements.FailedChaosMix(lpObj->m_Index);

  004f7	8b 06		 mov	 eax, DWORD PTR [esi]
  004f9	83 c4 2c	 add	 esp, 44			; 0000002cH
  004fc	50		 push	 eax
  004fd	b9 00 00 00 00	 mov	 ecx, OFFSET ?g_Achievements@@3VCAchievements@@A ; g_Achievements
  00502	c7 86 88 0e 00
	00 00 00 00 00	 mov	 DWORD PTR [esi+3720], 0
  0050c	e8 00 00 00 00	 call	 ?FailedChaosMix@CAchievements@@QAEXH@Z ; CAchievements::FailedChaosMix
  00511	5f		 pop	 edi
  00512	5e		 pop	 esi
  00513	5b		 pop	 ebx

; 6827 : #endif
; 6828 : 	}
; 6829 : }

  00514	8b 4d fc	 mov	 ecx, DWORD PTR __$ArrayPad$[ebp]
  00517	33 cd		 xor	 ecx, ebp
  00519	e8 00 00 00 00	 call	 @__security_check_cookie@4
  0051e	8b e5		 mov	 esp, ebp
  00520	5d		 pop	 ebp
  00521	c2 04 00	 ret	 4
$LN95@MixWings5r:

; 6578 : 	{
; 6579 : 		pMsg.Result = CB_INCORRECT_MIX_ITEMS;
; 6580 : 		DataSend(lpObj->m_Index, (LPBYTE)&pMsg, pMsg.h.size);

  00524	0f b6 4d ed	 movzx	 ecx, BYTE PTR _pMsg$[ebp+1]
  00528	8b 06		 mov	 eax, DWORD PTR [esi]
  0052a	51		 push	 ecx
  0052b	8d 55 ec	 lea	 edx, DWORD PTR _pMsg$[ebp]
  0052e	52		 push	 edx
  0052f	c6 45 ef 07	 mov	 BYTE PTR _pMsg$[ebp+3], 7
  00533	50		 push	 eax
$LN99@MixWings5r:
  00534	e8 00 00 00 00	 call	 ?DataSend@@YAHHPAEK@Z	; DataSend

; 6827 : #endif
; 6828 : 	}
; 6829 : }

  00539	8b 4d fc	 mov	 ecx, DWORD PTR __$ArrayPad$[ebp]
  0053c	83 c4 0c	 add	 esp, 12			; 0000000cH
  0053f	5f		 pop	 edi
  00540	c7 86 88 0e 00
	00 00 00 00 00	 mov	 DWORD PTR [esi+3720], 0
  0054a	5e		 pop	 esi
  0054b	33 cd		 xor	 ecx, ebp
  0054d	5b		 pop	 ebx
  0054e	e8 00 00 00 00	 call	 @__security_check_cookie@4
  00553	8b e5		 mov	 esp, ebp
  00555	5d		 pop	 ebp
  00556	c2 04 00	 ret	 4
  00559	8d 49 00	 npad	 3
$LN100@MixWings5r:
  0055c	00 00 00 00	 DD	 $LN9@MixWings5r
  00560	00 00 00 00	 DD	 $LN7@MixWings5r
  00564	00 00 00 00	 DD	 $LN5@MixWings5r
  00568	00 00 00 00	 DD	 $LN3@MixWings5r
?MixWings5rd@CMixSystem@@QAEXPAUOBJECTSTRUCT@@@Z ENDP	; CMixSystem::MixWings5rd
_TEXT	ENDS
PUBLIC	??_C@_0DF@LOHEKMFG@?$FL6rd?5Wings?5Mix?$FN?5?$FL?$CFs?$FN?$FL?$CFs?$FN?5CBMix?5F@ ; `string'
PUBLIC	??_C@_0EI@FJAEFMKB@?$FL6rd?5Wings?5Mix?$FN?5?$FL?$CFs?$FN?$FL?$CFs?$FN?5CBMix?5S@ ; `string'
PUBLIC	??_C@_0CC@CJAIBLOF@?$FLWings?56?5Lvl?5Mix?$FN?5Chaos?5Mix?5Star@ ; `string'
PUBLIC	??_C@_0P@KKCGHNCG@WingLevel6_Mix?$AA@		; `string'
PUBLIC	__$ArrayPad$
PUBLIC	?MixWings6rd@CMixSystem@@QAEXPAUOBJECTSTRUCT@@@Z ; CMixSystem::MixWings6rd
;	COMDAT ??_C@_0DF@LOHEKMFG@?$FL6rd?5Wings?5Mix?$FN?5?$FL?$CFs?$FN?$FL?$CFs?$FN?5CBMix?5F@
; File d:\program files (x86)\microsoft visual studio 10.0\vc\include\time.inl
CONST	SEGMENT
??_C@_0DF@LOHEKMFG@?$FL6rd?5Wings?5Mix?$FN?5?$FL?$CFs?$FN?$FL?$CFs?$FN?5CBMix?5F@ DB '['
	DB	'6rd Wings Mix] [%s][%s] CBMix Fail %d Money : %d-%d', 00H ; `string'
CONST	ENDS
;	COMDAT ??_C@_0EI@FJAEFMKB@?$FL6rd?5Wings?5Mix?$FN?5?$FL?$CFs?$FN?$FL?$CFs?$FN?5CBMix?5S@
CONST	SEGMENT
??_C@_0EI@FJAEFMKB@?$FL6rd?5Wings?5Mix?$FN?5?$FL?$CFs?$FN?$FL?$CFs?$FN?5CBMix?5S@ DB '['
	DB	'6rd Wings Mix] [%s][%s] CBMix Success %d Money : %d-%d, Charm'
	DB	'Rate : %d', 00H				; `string'
CONST	ENDS
;	COMDAT ??_C@_0CC@CJAIBLOF@?$FLWings?56?5Lvl?5Mix?$FN?5Chaos?5Mix?5Star@
CONST	SEGMENT
??_C@_0CC@CJAIBLOF@?$FLWings?56?5Lvl?5Mix?$FN?5Chaos?5Mix?5Star@ DB '[Win'
	DB	'gs 6 Lvl Mix] Chaos Mix Start', 00H		; `string'
CONST	ENDS
;	COMDAT ??_C@_0P@KKCGHNCG@WingLevel6_Mix?$AA@
CONST	SEGMENT
??_C@_0P@KKCGHNCG@WingLevel6_Mix?$AA@ DB 'WingLevel6_Mix', 00H ; `string'
; Function compile flags: /Ogtp
; File e:\work\tranet_version\gs\gameserver\mixsystem.cpp
CONST	ENDS
;	COMDAT ?MixWings6rd@CMixSystem@@QAEXPAUOBJECTSTRUCT@@@Z
_TEXT	SEGMENT
_RateMix$ = -68						; size = 4
_Need30Soul$ = -64					; size = 4
_NeedJewelOfCreatoion$ = -60				; size = 4
_NeedCondor$ = -56					; size = 4
_Need5lvlWing$ = -52					; size = 4
_NeedExlItem$ = -48					; size = 4
_NeedJewelOfChaos$ = -44				; size = 4
_Need30Bless$ = -40					; size = 4
tv740 = -36						; size = 4
_ItemLuckAdd$220380 = -36				; size = 4
_MixPercent$ = -32					; size = 4
_NeedError$ = -32					; size = 4
_ItemType$220376 = -28					; size = 4
_NeedAncItem$ = -28					; size = 4
_ItemOptAdd$220382 = -24				; size = 4
_PlusProcent$ = -24					; size = 4
_pMsg$ = -20						; size = 16
__$ArrayPad$ = -4					; size = 4
_lpObj$ = 8						; size = 4
?MixWings6rd@CMixSystem@@QAEXPAUOBJECTSTRUCT@@@Z PROC	; CMixSystem::MixWings6rd, COMDAT
; _this$ = ecx

; 6833 : {	

  00000	55		 push	 ebp
  00001	8b ec		 mov	 ebp, esp
  00003	83 ec 44	 sub	 esp, 68			; 00000044H
  00006	a1 00 00 00 00	 mov	 eax, DWORD PTR ___security_cookie
  0000b	33 c5		 xor	 eax, ebp
  0000d	89 45 fc	 mov	 DWORD PTR __$ArrayPad$[ebp], eax
  00010	53		 push	 ebx
  00011	56		 push	 esi
  00012	8b 75 08	 mov	 esi, DWORD PTR _lpObj$[ebp]
  00015	57		 push	 edi

; 6834 : 	PMSG_CHAOSMIXRESULT pMsg;
; 6835 : 
; 6836 : 	if(false)//if(!ZtConfig.CommonServer.Mix4Wings)	//To Continue
; 6837 : 	{
; 6838 : 		pMsg.Result = CB_INCORRECT_MIX_ITEMS;
; 6839 : 		DataSend(lpObj->m_Index, (LPBYTE)&pMsg, pMsg.h.size);
; 6840 : 		lpObj->ChaosLock = FALSE;
; 6841 : 		return;
; 6842 : 	}
; 6843 : 
; 6844 : 	lpObj->ChaosLock = TRUE;
; 6845 : 
; 6846 : 	int NeedCondor = 0;

  00016	33 ff		 xor	 edi, edi

; 6847 : 	int NeedJewelOfChaos = 0;
; 6848 : 	int NeedJewelOfCreatoion = 0;
; 6849 : 	int Need30Bless = 0;
; 6850 : 	int Need30Soul = 0;
; 6851 : 	int Need5lvlWing = 0;
; 6852 : 	int NeedExlItem = 0;
; 6853 : 	int NeedMoney = 50000000;
; 6854 : 	int RateMix	= ZtConfig.CommonServer.Wing5MaxSuccessRate;
; 6855 : 	int NeedError = 0;
; 6856 : 	int MixLuckRate = 30;
; 6857 : 	int PlusProcent = 0;
; 6858 : 	int NeedAncItem = 0;
; 6859 : 
; 6860 : 	PHeadSetB((LPBYTE)&pMsg.h, 0x86, sizeof(PMSG_CHAOSMIXRESULT));

  00018	6a 10		 push	 16			; 00000010H
  0001a	8b d9		 mov	 ebx, ecx
  0001c	c7 86 88 0e 00
	00 01 00 00 00	 mov	 DWORD PTR [esi+3720], 1
  00026	a1 a4 00 00 00	 mov	 eax, DWORD PTR ?ZtConfig@@3VcZtConfigs@@A+164
  0002b	8d 4d ec	 lea	 ecx, DWORD PTR _pMsg$[ebp]
  0002e	68 86 00 00 00	 push	 134			; 00000086H
  00033	51		 push	 ecx
  00034	89 7d c8	 mov	 DWORD PTR _NeedCondor$[ebp], edi
  00037	89 7d d4	 mov	 DWORD PTR _NeedJewelOfChaos$[ebp], edi
  0003a	89 7d c4	 mov	 DWORD PTR _NeedJewelOfCreatoion$[ebp], edi
  0003d	89 7d d8	 mov	 DWORD PTR _Need30Bless$[ebp], edi
  00040	89 7d c0	 mov	 DWORD PTR _Need30Soul$[ebp], edi
  00043	89 7d cc	 mov	 DWORD PTR _Need5lvlWing$[ebp], edi
  00046	89 7d d0	 mov	 DWORD PTR _NeedExlItem$[ebp], edi
  00049	89 45 bc	 mov	 DWORD PTR _RateMix$[ebp], eax
  0004c	89 7d e0	 mov	 DWORD PTR _NeedError$[ebp], edi
  0004f	89 7d e8	 mov	 DWORD PTR _PlusProcent$[ebp], edi
  00052	89 7d e4	 mov	 DWORD PTR _NeedAncItem$[ebp], edi
  00055	e8 00 00 00 00	 call	 ?PHeadSetB@@YAXPAEEH@Z	; PHeadSetB
  0005a	83 c4 0c	 add	 esp, 12			; 0000000cH

; 6861 : 	pMsg.Result = CB_ERROR;

  0005d	c6 45 ef 00	 mov	 BYTE PTR _pMsg$[ebp+3], 0

; 6864 : 	{
; 6865 : 		if ( lpObj->pChaosBox[n].IsItem() == TRUE )

  00061	89 7d dc	 mov	 DWORD PTR tv740[ebp], edi
  00064	eb 0a 8d a4 24
	00 00 00 00 8d
	49 00		 npad	 12
$LL59@MixWings6r:
  00070	8b 8e 78 0e 00
	00		 mov	 ecx, DWORD PTR [esi+3704]
  00076	03 cf		 add	 ecx, edi
  00078	e8 00 00 00 00	 call	 ?IsItem@CItem@@QAEHXZ	; CItem::IsItem
  0007d	83 f8 01	 cmp	 eax, 1
  00080	0f 85 0c 01 00
	00		 jne	 $LN58@MixWings6r

; 6866 : 		{
; 6867 : 			if ( lpObj->pChaosBox[n].m_Type == ITEMGET(12,189) ||
; 6868 : 				 lpObj->pChaosBox[n].m_Type == ITEMGET(12,190) ||
; 6869 : 				 lpObj->pChaosBox[n].m_Type == ITEMGET(12,191) ||
; 6870 : 				 lpObj->pChaosBox[n].m_Type == ITEMGET(12,192) ||
; 6871 : 				 lpObj->pChaosBox[n].m_Type == ITEMGET(12,193) ||
; 6872 : 				 lpObj->pChaosBox[n].m_Type == ITEMGET(12,194) )

  00086	03 be 78 0e 00
	00		 add	 edi, DWORD PTR [esi+3704]
  0008c	b8 bd 18 00 00	 mov	 eax, 6333		; 000018bdH
  00091	0f b7 57 06	 movzx	 edx, WORD PTR [edi+6]
  00095	66 3b d0	 cmp	 dx, ax
  00098	0f 84 d9 00 00
	00		 je	 $LN54@MixWings6r
  0009e	b9 be 18 00 00	 mov	 ecx, 6334		; 000018beH
  000a3	66 3b d1	 cmp	 dx, cx
  000a6	0f 84 cb 00 00
	00		 je	 $LN54@MixWings6r
  000ac	b8 bf 18 00 00	 mov	 eax, 6335		; 000018bfH
  000b1	66 3b d0	 cmp	 dx, ax
  000b4	0f 84 bd 00 00
	00		 je	 $LN54@MixWings6r
  000ba	b9 c0 18 00 00	 mov	 ecx, 6336		; 000018c0H
  000bf	66 3b d1	 cmp	 dx, cx
  000c2	0f 84 af 00 00
	00		 je	 $LN54@MixWings6r
  000c8	b8 c1 18 00 00	 mov	 eax, 6337		; 000018c1H
  000cd	66 3b d0	 cmp	 dx, ax
  000d0	0f 84 a1 00 00
	00		 je	 $LN54@MixWings6r
  000d6	b9 c2 18 00 00	 mov	 ecx, 6338		; 000018c2H
  000db	66 3b d1	 cmp	 dx, cx
  000de	0f 84 93 00 00
	00		 je	 $LN54@MixWings6r

; 6877 : 				}
; 6878 : 			}
; 6879 : 			else if( this->CheckItemCondition(&lpObj->pChaosBox[n],9,0,0,1,0,1) != FALSE )

  000e4	6a 01		 push	 1
  000e6	6a 00		 push	 0
  000e8	6a 01		 push	 1
  000ea	6a 00		 push	 0
  000ec	6a 00		 push	 0
  000ee	6a 09		 push	 9
  000f0	57		 push	 edi
  000f1	8b cb		 mov	 ecx, ebx
  000f3	e8 00 00 00 00	 call	 ?CheckItemCondition@CMixSystem@@QAEHPAVCItem@@FEEEEE@Z ; CMixSystem::CheckItemCondition
  000f8	85 c0		 test	 eax, eax
  000fa	74 08		 je	 SHORT $LN51@MixWings6r

; 6880 : 			{
; 6881 : 				NeedExlItem++;

  000fc	ff 45 d0	 inc	 DWORD PTR _NeedExlItem$[ebp]
  000ff	e9 8e 00 00 00	 jmp	 $LN58@MixWings6r
$LN51@MixWings6r:

; 6882 : 			}
; 6883 : 			else if( this->CheckItemCondition(&lpObj->pChaosBox[n],9,0,0,1,1,0) != FALSE )

  00104	6a 00		 push	 0
  00106	6a 01		 push	 1
  00108	6a 01		 push	 1
  0010a	6a 00		 push	 0
  0010c	6a 00		 push	 0
  0010e	6a 09		 push	 9
  00110	57		 push	 edi
  00111	8b cb		 mov	 ecx, ebx
  00113	e8 00 00 00 00	 call	 ?CheckItemCondition@CMixSystem@@QAEHPAVCItem@@FEEEEE@Z ; CMixSystem::CheckItemCondition
  00118	85 c0		 test	 eax, eax
  0011a	74 05		 je	 SHORT $LN49@MixWings6r

; 6884 : 			{
; 6885 : 				NeedAncItem++;

  0011c	ff 45 e4	 inc	 DWORD PTR _NeedAncItem$[ebp]
  0011f	eb 71		 jmp	 SHORT $LN58@MixWings6r
$LN49@MixWings6r:

; 6886 : 			}
; 6887 : 			else if( lpObj->pChaosBox[n].m_Type == ITEMGET(13,52))	//condor

  00121	b8 34 1a 00 00	 mov	 eax, 6708		; 00001a34H
  00126	66 3b d0	 cmp	 dx, ax
  00129	75 05		 jne	 SHORT $LN47@MixWings6r

; 6888 : 			{
; 6889 : 				NeedCondor++;

  0012b	ff 45 c8	 inc	 DWORD PTR _NeedCondor$[ebp]
  0012e	eb 62		 jmp	 SHORT $LN58@MixWings6r
$LN47@MixWings6r:

; 6890 : 			}
; 6891 : 			else if( lpObj->pChaosBox[n].m_Type == this->iBundleofBless)	//30 B

  00130	0f bf c2	 movsx	 eax, dx
  00133	3b 43 14	 cmp	 eax, DWORD PTR [ebx+20]
  00136	75 05		 jne	 SHORT $LN45@MixWings6r

; 6892 : 			{
; 6893 : 				Need30Bless++;

  00138	ff 45 d8	 inc	 DWORD PTR _Need30Bless$[ebp]
  0013b	eb 55		 jmp	 SHORT $LN58@MixWings6r
$LN45@MixWings6r:

; 6894 : 			}
; 6895 : 			else if( lpObj->pChaosBox[n].m_Type == this->iBundleofSoul)	//30 S

  0013d	3b 43 18	 cmp	 eax, DWORD PTR [ebx+24]
  00140	75 05		 jne	 SHORT $LN43@MixWings6r

; 6896 : 			{
; 6897 : 				Need30Soul++;

  00142	ff 45 c0	 inc	 DWORD PTR _Need30Soul$[ebp]
  00145	eb 4b		 jmp	 SHORT $LN58@MixWings6r
$LN43@MixWings6r:

; 6898 : 			}
; 6899 : 			else if( lpObj->pChaosBox[n].m_Type == this->iJewelofChaos)

  00147	3b 43 04	 cmp	 eax, DWORD PTR [ebx+4]
  0014a	75 05		 jne	 SHORT $LN41@MixWings6r

; 6900 : 			{
; 6901 : 				NeedJewelOfChaos++;

  0014c	ff 45 d4	 inc	 DWORD PTR _NeedJewelOfChaos$[ebp]
  0014f	eb 41		 jmp	 SHORT $LN58@MixWings6r
$LN41@MixWings6r:

; 6902 : 			}
; 6903 : 			else if( lpObj->pChaosBox[n].m_Type == this->iJewelofCreation)

  00151	3b 43 10	 cmp	 eax, DWORD PTR [ebx+16]
  00154	75 05		 jne	 SHORT $LN39@MixWings6r

; 6904 : 			{
; 6905 : 				NeedJewelOfCreatoion++;

  00156	ff 45 c4	 inc	 DWORD PTR _NeedJewelOfCreatoion$[ebp]
  00159	eb 37		 jmp	 SHORT $LN58@MixWings6r
$LN39@MixWings6r:

; 6906 : 			}
; 6907 : 			else if( lpObj->pChaosBox[n].m_Type == ITEMGET(14,53) )

  0015b	b9 35 1c 00 00	 mov	 ecx, 7221		; 00001c35H
  00160	66 3b d1	 cmp	 dx, cx
  00163	75 0d		 jne	 SHORT $LN37@MixWings6r

; 6908 : 			{
; 6909 : 				PlusProcent+= (int)lpObj->pChaosBox[n].m_Durability;

  00165	d9 47 24	 fld	 DWORD PTR [edi+36]
  00168	e8 00 00 00 00	 call	 __ftol2_sse
  0016d	01 45 e8	 add	 DWORD PTR _PlusProcent$[ebp], eax

; 6910 : 			}
; 6911 : 			else

  00170	eb 20		 jmp	 SHORT $LN58@MixWings6r
$LN37@MixWings6r:

; 6912 : 			{
; 6913 : 				NeedError++;

  00172	ff 45 e0	 inc	 DWORD PTR _NeedError$[ebp]
  00175	eb 1b		 jmp	 SHORT $LN58@MixWings6r
$LN54@MixWings6r:

; 6873 : 			{
; 6874 : 				if( this->CheckItemCondition(&lpObj->pChaosBox[n],9,0,0,1,0,0) != FALSE )

  00177	6a 00		 push	 0
  00179	6a 00		 push	 0
  0017b	6a 01		 push	 1
  0017d	6a 00		 push	 0
  0017f	6a 00		 push	 0
  00181	6a 09		 push	 9
  00183	57		 push	 edi
  00184	8b cb		 mov	 ecx, ebx
  00186	e8 00 00 00 00	 call	 ?CheckItemCondition@CMixSystem@@QAEHPAVCItem@@FEEEEE@Z ; CMixSystem::CheckItemCondition
  0018b	85 c0		 test	 eax, eax
  0018d	74 03		 je	 SHORT $LN58@MixWings6r

; 6875 : 				{
; 6876 : 					Need5lvlWing++;

  0018f	ff 45 cc	 inc	 DWORD PTR _Need5lvlWing$[ebp]
$LN58@MixWings6r:

; 6862 : 
; 6863 : 	for ( int n=0;n<CHAOS_BOX_SIZE;n++) //loc16

  00192	8b 7d dc	 mov	 edi, DWORD PTR tv740[ebp]
  00195	81 c7 d4 00 00
	00		 add	 edi, 212		; 000000d4H
  0019b	89 7d dc	 mov	 DWORD PTR tv740[ebp], edi
  0019e	81 ff 80 1a 00
	00		 cmp	 edi, 6784		; 00001a80H
  001a4	0f 8c c6 fe ff
	ff		 jl	 $LL59@MixWings6r

; 6914 : 			}
; 6915 : 		}
; 6916 : 	}
; 6917 : 
; 6918 : 	if(PlusProcent > 10)

  001aa	83 7d e8 0a	 cmp	 DWORD PTR _PlusProcent$[ebp], 10 ; 0000000aH
  001ae	7e 15		 jle	 SHORT $LN35@MixWings6r

; 6919 : 	{
; 6920 : 		pMsg.Result = 0xF0; //new macro
; 6921 : 		DataSend(lpObj->m_Index, (LPBYTE)&pMsg, pMsg.h.size);

  001b0	0f b6 55 ed	 movzx	 edx, BYTE PTR _pMsg$[ebp+1]
  001b4	8b 0e		 mov	 ecx, DWORD PTR [esi]
  001b6	52		 push	 edx
  001b7	8d 45 ec	 lea	 eax, DWORD PTR _pMsg$[ebp]
  001ba	50		 push	 eax
  001bb	c6 45 ef f0	 mov	 BYTE PTR _pMsg$[ebp+3], 240 ; 000000f0H
  001bf	51		 push	 ecx

; 6922 : 		lpObj->ChaosLock = FALSE;
; 6923 : 		return;

  001c0	e9 3e 03 00 00	 jmp	 $LN74@MixWings6r
$LN35@MixWings6r:

; 6924 : 	}
; 6925 : 
; 6926 : 	if(NeedExlItem < 1 || NeedCondor != 1 || NeedJewelOfChaos != 1 || Need5lvlWing != 1 || NeedJewelOfCreatoion != 1 || 
; 6927 : 	   Need30Bless != 2 || Need30Soul != 2 || NeedError > 0 || NeedAncItem != 1)

  001c5	b9 01 00 00 00	 mov	 ecx, 1
  001ca	39 4d d0	 cmp	 DWORD PTR _NeedExlItem$[ebp], ecx
  001cd	0f 8c 20 03 00
	00		 jl	 $LN69@MixWings6r
  001d3	39 4d c8	 cmp	 DWORD PTR _NeedCondor$[ebp], ecx
  001d6	0f 85 17 03 00
	00		 jne	 $LN69@MixWings6r
  001dc	39 4d d4	 cmp	 DWORD PTR _NeedJewelOfChaos$[ebp], ecx
  001df	0f 85 0e 03 00
	00		 jne	 $LN69@MixWings6r
  001e5	39 4d cc	 cmp	 DWORD PTR _Need5lvlWing$[ebp], ecx
  001e8	0f 85 05 03 00
	00		 jne	 $LN69@MixWings6r
  001ee	39 4d c4	 cmp	 DWORD PTR _NeedJewelOfCreatoion$[ebp], ecx
  001f1	0f 85 fc 02 00
	00		 jne	 $LN69@MixWings6r
  001f7	b8 02 00 00 00	 mov	 eax, 2
  001fc	39 45 d8	 cmp	 DWORD PTR _Need30Bless$[ebp], eax
  001ff	0f 85 ee 02 00
	00		 jne	 $LN69@MixWings6r
  00205	39 45 c0	 cmp	 DWORD PTR _Need30Soul$[ebp], eax
  00208	0f 85 e5 02 00
	00		 jne	 $LN69@MixWings6r
  0020e	83 7d e0 00	 cmp	 DWORD PTR _NeedError$[ebp], 0
  00212	0f 8f db 02 00
	00		 jg	 $LN69@MixWings6r
  00218	39 4d e4	 cmp	 DWORD PTR _NeedAncItem$[ebp], ecx
  0021b	0f 85 d2 02 00
	00		 jne	 $LN69@MixWings6r

; 6931 : 		lpObj->ChaosLock = FALSE;
; 6932 : 		return;
; 6933 : 	}
; 6934 : 
; 6935 : 	LogChaosItem(lpObj, "WingLevel6_Mix");

  00221	68 00 00 00 00	 push	 OFFSET ??_C@_0P@KKCGHNCG@WingLevel6_Mix?$AA@
  00226	56		 push	 esi
  00227	8b cb		 mov	 ecx, ebx
  00229	e8 00 00 00 00	 call	 ?LogChaosItem@CMixSystem@@QAEXPAUOBJECTSTRUCT@@PAD@Z ; CMixSystem::LogChaosItem

; 6936 : 	LogAddTD("[Wings 6 Lvl Mix] Chaos Mix Start");

  0022e	68 00 00 00 00	 push	 OFFSET ??_C@_0CC@CJAIBLOF@?$FLWings?56?5Lvl?5Mix?$FN?5Chaos?5Mix?5Star@
  00233	ff 15 00 00 00
	00		 call	 DWORD PTR ?LogAddTD@@3P6AXPADZZA ; LogAddTD

; 6937 : 
; 6938 : 	int iChaosTaxMoney = (int)((__int64)NeedMoney * (__int64)g_CastleSiegeSync.GetTaxRateChaos(lpObj->m_Index) / (__int64)100);

  00239	8b 16		 mov	 edx, DWORD PTR [esi]
  0023b	83 c4 04	 add	 esp, 4
  0023e	52		 push	 edx
  0023f	b9 00 00 00 00	 mov	 ecx, OFFSET ?g_CastleSiegeSync@@3VCCastleSiegeSync@@A ; g_CastleSiegeSync
  00244	e8 00 00 00 00	 call	 ?GetTaxRateChaos@CCastleSiegeSync@@QAEHH@Z ; CCastleSiegeSync::GetTaxRateChaos
  00249	6a 00		 push	 0
  0024b	99		 cdq
  0024c	68 80 f0 fa 02	 push	 50000000		; 02faf080H
  00251	52		 push	 edx
  00252	50		 push	 eax
  00253	e8 00 00 00 00	 call	 __allmul
  00258	6a 00		 push	 0
  0025a	6a 64		 push	 100			; 00000064H
  0025c	52		 push	 edx
  0025d	50		 push	 eax
  0025e	e8 00 00 00 00	 call	 __alldiv

; 6939 : 
; 6940 : 	if(iChaosTaxMoney < 0)

  00263	85 c0		 test	 eax, eax
  00265	79 02		 jns	 SHORT $LN32@MixWings6r

; 6941 : 	{
; 6942 : 		iChaosTaxMoney = 0;

  00267	33 c0		 xor	 eax, eax
$LN32@MixWings6r:

; 6943 : 	}
; 6944 : 
; 6945 : 	if ( lpObj->Money < NeedMoney )

  00269	8b 8e f0 00 00
	00		 mov	 ecx, DWORD PTR [esi+240]
  0026f	81 f9 80 f0 fa
	02		 cmp	 ecx, 50000000		; 02faf080H
  00275	7d 15		 jge	 SHORT $LN31@MixWings6r

; 6946 : 	{
; 6947 : 		pMsg.Result = CB_NOT_ENOUGH_ZEN;
; 6948 : 
; 6949 : 		DataSend(lpObj->m_Index, (LPBYTE)&pMsg, pMsg.h.size);

  00277	0f b6 45 ed	 movzx	 eax, BYTE PTR _pMsg$[ebp+1]
  0027b	8b 16		 mov	 edx, DWORD PTR [esi]
  0027d	50		 push	 eax
  0027e	8d 4d ec	 lea	 ecx, DWORD PTR _pMsg$[ebp]
  00281	51		 push	 ecx
  00282	c6 45 ef 02	 mov	 BYTE PTR _pMsg$[ebp+3], 2
  00286	52		 push	 edx

; 6950 : 		lpObj->ChaosLock = FALSE;
; 6951 : 
; 6952 : 		return;

  00287	e9 77 02 00 00	 jmp	 $LN74@MixWings6r
$LN31@MixWings6r:

; 6953 : 	}
; 6954 : 
; 6955 : 	lpObj->Money -= NeedMoney;

  0028c	81 c1 80 0f 05
	fd		 add	 ecx, -50000000		; fd050f80H
  00292	89 8e f0 00 00
	00		 mov	 DWORD PTR [esi+240], ecx

; 6956 : 	g_CastleSiegeSync.AddTributeMoney(iChaosTaxMoney);

  00298	50		 push	 eax
  00299	b9 00 00 00 00	 mov	 ecx, OFFSET ?g_CastleSiegeSync@@3VCCastleSiegeSync@@A ; g_CastleSiegeSync
  0029e	e8 00 00 00 00	 call	 ?AddTributeMoney@CCastleSiegeSync@@QAEXH@Z ; CCastleSiegeSync::AddTributeMoney

; 6957 : 	GCMoneySend(lpObj->m_Index, lpObj->Money);

  002a3	8b 86 f0 00 00
	00		 mov	 eax, DWORD PTR [esi+240]
  002a9	8b 0e		 mov	 ecx, DWORD PTR [esi]
  002ab	50		 push	 eax
  002ac	51		 push	 ecx
  002ad	e8 00 00 00 00	 call	 ?GCMoneySend@@YAXHK@Z	; GCMoneySend

; 6958 : 	srand(time(NULL));

  002b2	6a 00		 push	 0
  002b4	e8 00 00 00 00	 call	 __time64
  002b9	50		 push	 eax
  002ba	e8 00 00 00 00	 call	 _srand
  002bf	83 c4 10	 add	 esp, 16			; 00000010H

; 6959 : 	int MixPercent = (rand()%100);

  002c2	e8 00 00 00 00	 call	 _rand
  002c7	99		 cdq
  002c8	b9 64 00 00 00	 mov	 ecx, 100		; 00000064H
  002cd	f7 f9		 idiv	 ecx
  002cf	8b fa		 mov	 edi, edx
  002d1	89 7d e0	 mov	 DWORD PTR _MixPercent$[ebp], edi

; 6960 : 
; 6961 : 	if ( RateMix > MixPercent)

  002d4	39 7d bc	 cmp	 DWORD PTR _RateMix$[ebp], edi
  002d7	0f 8e a8 01 00
	00		 jle	 $LN30@MixWings6r

; 6962 : 	{
; 6963 : 		int loc18 = rand()%2;

  002dd	e8 00 00 00 00	 call	 _rand
  002e2	25 01 00 00 80	 and	 eax, -2147483647	; 80000001H
  002e7	79 05		 jns	 SHORT $LN70@MixWings6r
  002e9	48		 dec	 eax
  002ea	83 c8 fe	 or	 eax, -2			; fffffffeH
  002ed	40		 inc	 eax
$LN70@MixWings6r:

; 6964 : 		int ItemType = 0;

  002ee	bb 00 00 00 00	 mov	 ebx, 0
  002f3	89 5d e4	 mov	 DWORD PTR _ItemType$220376[ebp], ebx

; 6965 : 
; 6966 : 		if(loc18 == 0)

  002f6	75 09		 jne	 SHORT $LN29@MixWings6r

; 6967 : 		{
; 6968 : 			ItemType = ITEMGET(12,195);

  002f8	c7 45 e4 c3 18
	00 00		 mov	 DWORD PTR _ItemType$220376[ebp], 6339 ; 000018c3H
  002ff	eb 0c		 jmp	 SHORT $LN27@MixWings6r
$LN29@MixWings6r:

; 6969 : 		}
; 6970 : 		else if( loc18 == 1)

  00301	83 f8 01	 cmp	 eax, 1
  00304	75 07		 jne	 SHORT $LN27@MixWings6r

; 6971 : 		{
; 6972 : 			ItemType = ITEMGET(12,196);

  00306	c7 45 e4 c4 18
	00 00		 mov	 DWORD PTR _ItemType$220376[ebp], 6340 ; 000018c4H
$LN27@MixWings6r:

; 6973 : 		}
; 6974 : 		
; 6975 : 
; 6976 : 		int ItemLuckAdd = 0;

  0030d	89 5d dc	 mov	 DWORD PTR _ItemLuckAdd$220380[ebp], ebx

; 6977 : 
; 6978 : 		if( (rand()%100) <= MixLuckRate )

  00310	e8 00 00 00 00	 call	 _rand
  00315	99		 cdq
  00316	b9 64 00 00 00	 mov	 ecx, 100		; 00000064H
  0031b	f7 f9		 idiv	 ecx
  0031d	83 fa 1e	 cmp	 edx, 30			; 0000001eH
  00320	7f 07		 jg	 SHORT $LN26@MixWings6r

; 6979 : 		{
; 6980 : 			ItemLuckAdd = 1;

  00322	c7 45 dc 01 00
	00 00		 mov	 DWORD PTR _ItemLuckAdd$220380[ebp], 1
$LN26@MixWings6r:

; 6981 : 		}
; 6982 : 
; 6983 : 		int ItemOptAdd = 0;

  00329	89 5d e8	 mov	 DWORD PTR _ItemOptAdd$220382[ebp], ebx

; 6984 : 		int loc23 = 0;
; 6985 : 		int loc24 = rand()%2;

  0032c	e8 00 00 00 00	 call	 _rand
  00331	25 01 00 00 80	 and	 eax, -2147483647	; 80000001H
  00336	79 05		 jns	 SHORT $LN71@MixWings6r
  00338	48		 dec	 eax
  00339	83 c8 fe	 or	 eax, -2			; fffffffeH
  0033c	40		 inc	 eax
$LN71@MixWings6r:

; 6986 : 		int loc25;
; 6987 : 		int loc26;
; 6988 : 		int loc27;
; 6989 : 		int loc28;
; 6990 : 		int loc29;
; 6991 : 
; 6992 : 		switch ( loc24 )

  0033d	2b c3		 sub	 eax, ebx
  0033f	74 0f		 je	 SHORT $LN23@MixWings6r
  00341	48		 dec	 eax
  00342	75 26		 jne	 SHORT $LN22@MixWings6r

; 6999 : 			}
; 7000 : 			break;
; 7001 : 
; 7002 : 		case 1:
; 7003 : 			loc25 = rand()%1000;

  00344	e8 00 00 00 00	 call	 _rand

; 7004 : 			if(loc24 < 300)
; 7005 : 			{
; 7006 : 				loc23 |= 0x20;

  00349	bb 20 00 00 00	 mov	 ebx, 32			; 00000020H

; 7007 : 			}
; 7008 : 			break;

  0034e	eb 1a		 jmp	 SHORT $LN22@MixWings6r
$LN23@MixWings6r:

; 6993 : 		{
; 6994 : 		case 0:
; 6995 : 			loc25 = rand()%1000;

  00350	e8 00 00 00 00	 call	 _rand
  00355	99		 cdq
  00356	b9 e8 03 00 00	 mov	 ecx, 1000		; 000003e8H
  0035b	f7 f9		 idiv	 ecx

; 6996 : 			if(loc25 < 400)

  0035d	81 fa 90 01 00
	00		 cmp	 edx, 400		; 00000190H
  00363	7d 05		 jge	 SHORT $LN22@MixWings6r

; 6997 : 			{
; 6998 : 				loc23 |= 0x10;

  00365	bb 10 00 00 00	 mov	 ebx, 16			; 00000010H
$LN22@MixWings6r:

; 7009 : 		}
; 7010 : 
; 7011 : 		loc26 = rand()%4;

  0036a	e8 00 00 00 00	 call	 _rand
  0036f	8b f8		 mov	 edi, eax
  00371	81 e7 03 00 00
	80		 and	 edi, -2147483645	; 80000003H
  00377	79 05		 jns	 SHORT $LN72@MixWings6r
  00379	4f		 dec	 edi
  0037a	83 cf fc	 or	 edi, -4			; fffffffcH
  0037d	47		 inc	 edi
$LN72@MixWings6r:

; 7012 : 		loc27 = rand()%1000;

  0037e	e8 00 00 00 00	 call	 _rand
  00383	99		 cdq
  00384	b9 e8 03 00 00	 mov	 ecx, 1000		; 000003e8H
  00389	f7 f9		 idiv	 ecx

; 7013 : 
; 7014 : 		switch( loc26 )

  0038b	4f		 dec	 edi
  0038c	74 22		 je	 SHORT $LN17@MixWings6r
  0038e	4f		 dec	 edi
  0038f	74 11		 je	 SHORT $LN15@MixWings6r
  00391	4f		 dec	 edi
  00392	75 28		 jne	 SHORT $LN68@MixWings6r

; 7033 : 
; 7034 : 		case 3:
; 7035 : 			{
; 7036 : 				if(loc27 < 30)

  00394	83 fa 1e	 cmp	 edx, 30			; 0000001eH
  00397	7d 23		 jge	 SHORT $LN68@MixWings6r

; 7037 : 				{
; 7038 : 					ItemOptAdd = 3;

  00399	c7 45 e8 03 00
	00 00		 mov	 DWORD PTR _ItemOptAdd$220382[ebp], 3

; 7039 : 				}
; 7040 : 			}
; 7041 : 			break;

  003a0	eb 1a		 jmp	 SHORT $LN68@MixWings6r
$LN15@MixWings6r:

; 7021 : 				}
; 7022 : 			}
; 7023 : 			break;
; 7024 : 
; 7025 : 		case 2:
; 7026 : 			{
; 7027 : 				if(loc27 < 60)

  003a2	83 fa 3c	 cmp	 edx, 60			; 0000003cH
  003a5	7d 15		 jge	 SHORT $LN68@MixWings6r

; 7028 : 				{
; 7029 : 					ItemOptAdd = 2;

  003a7	c7 45 e8 02 00
	00 00		 mov	 DWORD PTR _ItemOptAdd$220382[ebp], 2

; 7030 : 				}
; 7031 : 			}
; 7032 : 			break;

  003ae	eb 0c		 jmp	 SHORT $LN68@MixWings6r
$LN17@MixWings6r:

; 7015 : 		{
; 7016 : 		case 1:
; 7017 : 			{
; 7018 : 				if(loc27 < 120)

  003b0	83 fa 78	 cmp	 edx, 120		; 00000078H
  003b3	7d 07		 jge	 SHORT $LN68@MixWings6r

; 7019 : 				{
; 7020 : 					ItemOptAdd = 1;

  003b5	c7 45 e8 01 00
	00 00		 mov	 DWORD PTR _ItemOptAdd$220382[ebp], 1
$LN68@MixWings6r:

; 7042 : 		}
; 7043 : 
; 7044 : 		loc28 = rand()%4;

  003bc	e8 00 00 00 00	 call	 _rand
  003c1	8b f8		 mov	 edi, eax
  003c3	81 e7 03 00 00
	80		 and	 edi, -2147483645	; 80000003H
  003c9	79 05		 jns	 SHORT $LN73@MixWings6r
  003cb	4f		 dec	 edi
  003cc	83 cf fc	 or	 edi, -4			; fffffffcH
  003cf	47		 inc	 edi
$LN73@MixWings6r:

; 7045 : 		loc29 = rand()%1000;

  003d0	e8 00 00 00 00	 call	 _rand
  003d5	99		 cdq
  003d6	b9 e8 03 00 00	 mov	 ecx, 1000		; 000003e8H
  003db	f7 f9		 idiv	 ecx

; 7046 : 
; 7047 : 		switch( loc28 )

  003dd	83 ff 03	 cmp	 edi, 3
  003e0	77 2d		 ja	 SHORT $LN2@MixWings6r
  003e2	ff 24 bd 00 00
	00 00		 jmp	 DWORD PTR $LN75@MixWings6r[edi*4]
$LN9@MixWings6r:

; 7048 : 		{
; 7049 : 		case 0:
; 7050 : 			{
; 7051 : 				if(loc29 < 40)

  003e9	83 fa 28	 cmp	 edx, 40			; 00000028H
  003ec	7d 21		 jge	 SHORT $LN2@MixWings6r

; 7052 : 				{
; 7053 : 					loc23 |= 1;

  003ee	83 cb 01	 or	 ebx, 1

; 7054 : 				}
; 7055 : 			}
; 7056 : 			break;

  003f1	eb 1c		 jmp	 SHORT $LN2@MixWings6r
$LN7@MixWings6r:

; 7057 : 		case 1:
; 7058 : 			{
; 7059 : 				if(loc29 < 20)

  003f3	83 fa 14	 cmp	 edx, 20			; 00000014H
  003f6	7d 17		 jge	 SHORT $LN2@MixWings6r

; 7060 : 				{
; 7061 : 					loc23 |= 2;

  003f8	83 cb 02	 or	 ebx, 2

; 7062 : 				}
; 7063 : 			}
; 7064 : 			break;

  003fb	eb 12		 jmp	 SHORT $LN2@MixWings6r
$LN5@MixWings6r:

; 7065 : 
; 7066 : 		case 2:
; 7067 : 			{
; 7068 : 				if(loc29 < 70)

  003fd	83 fa 46	 cmp	 edx, 70			; 00000046H
  00400	7d 0d		 jge	 SHORT $LN2@MixWings6r

; 7069 : 				{
; 7070 : 					loc23 |= 4;

  00402	83 cb 04	 or	 ebx, 4

; 7071 : 				}
; 7072 : 			}
; 7073 : 			break;

  00405	eb 08		 jmp	 SHORT $LN2@MixWings6r
$LN3@MixWings6r:

; 7074 : 		case 3:
; 7075 : 			{
; 7076 : 				if(loc29 < 70)

  00407	83 fa 46	 cmp	 edx, 70			; 00000046H
  0040a	7d 03		 jge	 SHORT $LN2@MixWings6r

; 7077 : 				{
; 7078 : 					loc23 |= 8;

  0040c	83 cb 08	 or	 ebx, 8
$LN2@MixWings6r:

; 7079 : 				}
; 7080 : 			}
; 7081 : 			break;
; 7082 : 		}
; 7083 : 
; 7084 : 		ItemSerialCreateSend(lpObj->m_Index, -1, 0, 0, ItemType , 0, 0, 0, (BYTE)ItemLuckAdd, (BYTE)ItemOptAdd, -1, (BYTE)loc23, 0);

  0040f	8b 55 e8	 mov	 edx, DWORD PTR _ItemOptAdd$220382[ebp]
  00412	8b 45 dc	 mov	 eax, DWORD PTR _ItemLuckAdd$220380[ebp]
  00415	8b 4d e4	 mov	 ecx, DWORD PTR _ItemType$220376[ebp]
  00418	6a 00		 push	 0
  0041a	53		 push	 ebx
  0041b	6a ff		 push	 -1
  0041d	52		 push	 edx
  0041e	8b 16		 mov	 edx, DWORD PTR [esi]
  00420	50		 push	 eax
  00421	6a 00		 push	 0
  00423	6a 00		 push	 0
  00425	6a 00		 push	 0
  00427	51		 push	 ecx
  00428	6a 00		 push	 0
  0042a	6a 00		 push	 0
  0042c	68 ff 00 00 00	 push	 255			; 000000ffH
  00431	52		 push	 edx
  00432	e8 00 00 00 00	 call	 ?ItemSerialCreateSend@@YAXHEEEHEEEEEHEE@Z ; ItemSerialCreateSend

; 7085 : 		::gObjInventoryCommit(lpObj->m_Index);

  00437	8b 06		 mov	 eax, DWORD PTR [esi]
  00439	50		 push	 eax
  0043a	e8 00 00 00 00	 call	 ?gObjInventoryCommit@@YAHH@Z ; gObjInventoryCommit

; 7086 : 
; 7087 : 		LogAddTD("[6rd Wings Mix] [%s][%s] CBMix Success %d Money : %d-%d, CharmRate : %d",
; 7088 : 			lpObj->AccountID, lpObj->Name, MixPercent,	lpObj->Money, NeedMoney);

  0043f	8b 8e f0 00 00
	00		 mov	 ecx, DWORD PTR [esi+240]
  00445	8b 55 e0	 mov	 edx, DWORD PTR _MixPercent$[ebp]
  00448	68 80 f0 fa 02	 push	 50000000		; 02faf080H
  0044d	51		 push	 ecx
  0044e	52		 push	 edx
  0044f	8d 46 77	 lea	 eax, DWORD PTR [esi+119]
  00452	50		 push	 eax
  00453	8d 4e 6c	 lea	 ecx, DWORD PTR [esi+108]
  00456	51		 push	 ecx
  00457	68 00 00 00 00	 push	 OFFSET ??_C@_0EI@FJAEFMKB@?$FL6rd?5Wings?5Mix?$FN?5?$FL?$CFs?$FN?$FL?$CFs?$FN?5CBMix?5S@
  0045c	ff 15 00 00 00
	00		 call	 DWORD PTR ?LogAddTD@@3P6AXPADZZA ; LogAddTD

; 7089 : #if(SYSTEM_ACHIEVEMENTS)
; 7090 : 		g_Achievements.SuccessChaosMix(lpObj->m_Index);

  00462	8b 16		 mov	 edx, DWORD PTR [esi]
  00464	83 c4 50	 add	 esp, 80			; 00000050H
  00467	52		 push	 edx
  00468	b9 00 00 00 00	 mov	 ecx, OFFSET ?g_Achievements@@3VCAchievements@@A ; g_Achievements
  0046d	e8 00 00 00 00	 call	 ?SuccessChaosMix@CAchievements@@QAEXH@Z ; CAchievements::SuccessChaosMix
  00472	5f		 pop	 edi
  00473	5e		 pop	 esi
  00474	5b		 pop	 ebx

; 7104 : #endif
; 7105 : 	}
; 7106 : }

  00475	8b 4d fc	 mov	 ecx, DWORD PTR __$ArrayPad$[ebp]
  00478	33 cd		 xor	 ecx, ebp
  0047a	e8 00 00 00 00	 call	 @__security_check_cookie@4
  0047f	8b e5		 mov	 esp, ebp
  00481	5d		 pop	 ebp
  00482	c2 04 00	 ret	 4
$LN30@MixWings6r:

; 7091 : #endif
; 7092 : 	}
; 7093 : 	else
; 7094 : 	{
; 7095 : 		this->ChaosBoxInit(lpObj);

  00485	56		 push	 esi
  00486	8b cb		 mov	 ecx, ebx
  00488	e8 00 00 00 00	 call	 ?ChaosBoxInit@CMixSystem@@QAEHPAUOBJECTSTRUCT@@@Z ; CMixSystem::ChaosBoxInit

; 7096 : 		::GCUserChaosBoxSend(lpObj, 0);

  0048d	6a 00		 push	 0
  0048f	56		 push	 esi
  00490	e8 00 00 00 00	 call	 ?GCUserChaosBoxSend@@YAXPAUOBJECTSTRUCT@@H@Z ; GCUserChaosBoxSend

; 7097 : 		DataSend(lpObj->m_Index, (LPBYTE)&pMsg, pMsg.h.size);

  00495	0f b6 45 ed	 movzx	 eax, BYTE PTR _pMsg$[ebp+1]
  00499	8b 16		 mov	 edx, DWORD PTR [esi]
  0049b	50		 push	 eax
  0049c	8d 4d ec	 lea	 ecx, DWORD PTR _pMsg$[ebp]
  0049f	51		 push	 ecx
  004a0	52		 push	 edx
  004a1	e8 00 00 00 00	 call	 ?DataSend@@YAHHPAEK@Z	; DataSend

; 7098 : 
; 7099 : 		LogAddTD("[6rd Wings Mix] [%s][%s] CBMix Fail %d Money : %d-%d",
; 7100 : 			lpObj->AccountID, lpObj->Name, MixPercent,	lpObj->Money, NeedMoney);

  004a6	8b 86 f0 00 00
	00		 mov	 eax, DWORD PTR [esi+240]
  004ac	68 80 f0 fa 02	 push	 50000000		; 02faf080H
  004b1	50		 push	 eax
  004b2	57		 push	 edi
  004b3	8d 4e 77	 lea	 ecx, DWORD PTR [esi+119]
  004b6	51		 push	 ecx
  004b7	8d 56 6c	 lea	 edx, DWORD PTR [esi+108]
  004ba	52		 push	 edx
  004bb	68 00 00 00 00	 push	 OFFSET ??_C@_0DF@LOHEKMFG@?$FL6rd?5Wings?5Mix?$FN?5?$FL?$CFs?$FN?$FL?$CFs?$FN?5CBMix?5F@
  004c0	ff 15 00 00 00
	00		 call	 DWORD PTR ?LogAddTD@@3P6AXPADZZA ; LogAddTD

; 7101 : 		lpObj->ChaosLock = FALSE;
; 7102 : #if(SYSTEM_ACHIEVEMENTS)
; 7103 : 		g_Achievements.FailedChaosMix(lpObj->m_Index);

  004c6	8b 06		 mov	 eax, DWORD PTR [esi]
  004c8	83 c4 2c	 add	 esp, 44			; 0000002cH
  004cb	50		 push	 eax
  004cc	b9 00 00 00 00	 mov	 ecx, OFFSET ?g_Achievements@@3VCAchievements@@A ; g_Achievements
  004d1	c7 86 88 0e 00
	00 00 00 00 00	 mov	 DWORD PTR [esi+3720], 0
  004db	e8 00 00 00 00	 call	 ?FailedChaosMix@CAchievements@@QAEXH@Z ; CAchievements::FailedChaosMix
  004e0	5f		 pop	 edi
  004e1	5e		 pop	 esi
  004e2	5b		 pop	 ebx

; 7104 : #endif
; 7105 : 	}
; 7106 : }

  004e3	8b 4d fc	 mov	 ecx, DWORD PTR __$ArrayPad$[ebp]
  004e6	33 cd		 xor	 ecx, ebp
  004e8	e8 00 00 00 00	 call	 @__security_check_cookie@4
  004ed	8b e5		 mov	 esp, ebp
  004ef	5d		 pop	 ebp
  004f0	c2 04 00	 ret	 4
$LN69@MixWings6r:

; 6928 : 	{
; 6929 : 		pMsg.Result = CB_INCORRECT_MIX_ITEMS;
; 6930 : 		DataSend(lpObj->m_Index, (LPBYTE)&pMsg, pMsg.h.size);

  004f3	0f b6 4d ed	 movzx	 ecx, BYTE PTR _pMsg$[ebp+1]
  004f7	8b 06		 mov	 eax, DWORD PTR [esi]
  004f9	51		 push	 ecx
  004fa	8d 55 ec	 lea	 edx, DWORD PTR _pMsg$[ebp]
  004fd	52		 push	 edx
  004fe	c6 45 ef 07	 mov	 BYTE PTR _pMsg$[ebp+3], 7
  00502	50		 push	 eax
$LN74@MixWings6r:
  00503	e8 00 00 00 00	 call	 ?DataSend@@YAHHPAEK@Z	; DataSend

; 7104 : #endif
; 7105 : 	}
; 7106 : }

  00508	8b 4d fc	 mov	 ecx, DWORD PTR __$ArrayPad$[ebp]
  0050b	83 c4 0c	 add	 esp, 12			; 0000000cH
  0050e	5f		 pop	 edi
  0050f	c7 86 88 0e 00
	00 00 00 00 00	 mov	 DWORD PTR [esi+3720], 0
  00519	5e		 pop	 esi
  0051a	33 cd		 xor	 ecx, ebp
  0051c	5b		 pop	 ebx
  0051d	e8 00 00 00 00	 call	 @__security_check_cookie@4
  00522	8b e5		 mov	 esp, ebp
  00524	5d		 pop	 ebp
  00525	c2 04 00	 ret	 4
$LN75@MixWings6r:
  00528	00 00 00 00	 DD	 $LN9@MixWings6r
  0052c	00 00 00 00	 DD	 $LN7@MixWings6r
  00530	00 00 00 00	 DD	 $LN5@MixWings6r
  00534	00 00 00 00	 DD	 $LN3@MixWings6r
?MixWings6rd@CMixSystem@@QAEXPAUOBJECTSTRUCT@@@Z ENDP	; CMixSystem::MixWings6rd
_TEXT	ENDS
PUBLIC	__$ArrayPad$
PUBLIC	?GoldenNSilverBoxMix@CMixSystem@@QAEXPAUOBJECTSTRUCT@@@Z ; CMixSystem::GoldenNSilverBoxMix
; Function compile flags: /Ogtp
;	COMDAT ?GoldenNSilverBoxMix@CMixSystem@@QAEXPAUOBJECTSTRUCT@@@Z
_TEXT	SEGMENT
_nGoldenKey$ = -36					; size = 4
_nEtcItem$ = -32					; size = 4
_nSilverBox$ = -28					; size = 4
_nGoldenBox$ = -24					; size = 4
_pMsg$ = -20						; size = 16
__$ArrayPad$ = -4					; size = 4
_lpObj$ = 8						; size = 4
?GoldenNSilverBoxMix@CMixSystem@@QAEXPAUOBJECTSTRUCT@@@Z PROC ; CMixSystem::GoldenNSilverBoxMix, COMDAT
; _this$ = ecx

; 7109 : {

  00000	55		 push	 ebp
  00001	8b ec		 mov	 ebp, esp
  00003	83 ec 24	 sub	 esp, 36			; 00000024H
  00006	a1 00 00 00 00	 mov	 eax, DWORD PTR ___security_cookie
  0000b	33 c5		 xor	 eax, ebp
  0000d	89 45 fc	 mov	 DWORD PTR __$ArrayPad$[ebp], eax
  00010	53		 push	 ebx
  00011	56		 push	 esi
  00012	57		 push	 edi
  00013	8b 7d 08	 mov	 edi, DWORD PTR _lpObj$[ebp]

; 7110 : 	PMSG_CHAOSMIXRESULT pMsg;
; 7111 : 	PHeadSetB((LPBYTE)&pMsg.h, 0x86, sizeof(PMSG_CHAOSMIXRESULT));

  00016	6a 10		 push	 16			; 00000010H
  00018	8d 45 ec	 lea	 eax, DWORD PTR _pMsg$[ebp]
  0001b	68 86 00 00 00	 push	 134			; 00000086H
  00020	50		 push	 eax
  00021	e8 00 00 00 00	 call	 ?PHeadSetB@@YAXPAEEH@Z	; PHeadSetB

; 7112 : 	// ----
; 7113 : 	pMsg.Result				= CB_ERROR;	//ebp-11
; 7114 : 	int nGoldenKey			= 0;		//ebp-18

  00026	33 f6		 xor	 esi, esi
  00028	83 c4 0c	 add	 esp, 12			; 0000000cH
  0002b	c6 45 ef 00	 mov	 BYTE PTR _pMsg$[ebp+3], 0
  0002f	89 75 dc	 mov	 DWORD PTR _nGoldenKey$[ebp], esi

; 7115 : 	int nSilverKey			= 0;		//ebp-1c

  00032	33 db		 xor	 ebx, ebx

; 7116 : 	int nGoldenBox			= 0;		//ebp-20

  00034	89 75 e8	 mov	 DWORD PTR _nGoldenBox$[ebp], esi

; 7117 : 	int nSilverBox			= 0;		//ebp-24

  00037	89 75 e4	 mov	 DWORD PTR _nSilverBox$[ebp], esi

; 7118 : 	int nEtcItem			= 0;		//ebp-28

  0003a	89 75 e0	 mov	 DWORD PTR _nEtcItem$[ebp], esi

; 7119 : 	int nType				= 0;		//ebp-2c
; 7120 : 	bool bCheckSourceItem	= false;	//ebp-30
; 7121 : 	lpObj->ChaosLock		= true;

  0003d	c7 87 88 0e 00
	00 01 00 00 00	 mov	 DWORD PTR [edi+3720], 1
  00047	eb 07 8d a4 24
	00 00 00 00	 npad	 9
$LL19@GoldenNSil:

; 7124 : 	{
; 7125 : 		if( lpObj->pChaosBox[i].IsItem() )

  00050	8b 8f 78 0e 00
	00		 mov	 ecx, DWORD PTR [edi+3704]
  00056	03 ce		 add	 ecx, esi
  00058	e8 00 00 00 00	 call	 ?IsItem@CItem@@QAEHXZ	; CItem::IsItem
  0005d	85 c0		 test	 eax, eax
  0005f	74 48		 je	 SHORT $LN18@GoldenNSil

; 7126 : 		{
; 7127 : 			if( lpObj->pChaosBox[i].m_Type == ITEMGET(14, 113) )

  00061	8b 8f 78 0e 00
	00		 mov	 ecx, DWORD PTR [edi+3704]
  00067	0f b7 44 31 06	 movzx	 eax, WORD PTR [ecx+esi+6]
  0006c	ba 71 1c 00 00	 mov	 edx, 7281		; 00001c71H
  00071	66 3b c2	 cmp	 ax, dx
  00074	75 05		 jne	 SHORT $LN15@GoldenNSil

; 7128 : 			{
; 7129 : 				nGoldenKey++;

  00076	ff 45 dc	 inc	 DWORD PTR _nGoldenKey$[ebp]
  00079	eb 2e		 jmp	 SHORT $LN18@GoldenNSil
$LN15@GoldenNSil:

; 7130 : 			}
; 7131 : 			else if( lpObj->pChaosBox[i].m_Type == ITEMGET(14, 112) )

  0007b	b9 70 1c 00 00	 mov	 ecx, 7280		; 00001c70H
  00080	66 3b c1	 cmp	 ax, cx
  00083	75 03		 jne	 SHORT $LN13@GoldenNSil

; 7132 : 			{
; 7133 : 				nSilverKey++;

  00085	43		 inc	 ebx
  00086	eb 21		 jmp	 SHORT $LN18@GoldenNSil
$LN13@GoldenNSil:

; 7134 : 			}
; 7135 : 			else if( lpObj->pChaosBox[i].m_Type == ITEMGET(14, 121) )

  00088	ba 79 1c 00 00	 mov	 edx, 7289		; 00001c79H
  0008d	66 3b c2	 cmp	 ax, dx
  00090	75 05		 jne	 SHORT $LN11@GoldenNSil

; 7136 : 			{
; 7137 : 				nGoldenBox++;

  00092	ff 45 e8	 inc	 DWORD PTR _nGoldenBox$[ebp]
  00095	eb 12		 jmp	 SHORT $LN18@GoldenNSil
$LN11@GoldenNSil:

; 7138 : 			}
; 7139 : 			else if( lpObj->pChaosBox[i].m_Type == ITEMGET(14, 122) )

  00097	b9 7a 1c 00 00	 mov	 ecx, 7290		; 00001c7aH
  0009c	66 3b c1	 cmp	 ax, cx
  0009f	75 05		 jne	 SHORT $LN9@GoldenNSil

; 7140 : 			{
; 7141 : 				nSilverBox++;

  000a1	ff 45 e4	 inc	 DWORD PTR _nSilverBox$[ebp]

; 7142 : 			}
; 7143 : 			else

  000a4	eb 03		 jmp	 SHORT $LN18@GoldenNSil
$LN9@GoldenNSil:

; 7144 : 			{
; 7145 : 				nEtcItem++;

  000a6	ff 45 e0	 inc	 DWORD PTR _nEtcItem$[ebp]
$LN18@GoldenNSil:

; 7122 : 	// ----
; 7123 : 	for( int i = 0; i < CHAOS_BOX_SIZE; i++ )	//ebp-34

  000a9	81 c6 d4 00 00
	00		 add	 esi, 212		; 000000d4H
  000af	81 fe 80 1a 00
	00		 cmp	 esi, 6784		; 00001a80H
  000b5	7c 99		 jl	 SHORT $LL19@GoldenNSil

; 7146 : 			}
; 7147 : 		}
; 7148 : 	}
; 7149 : 	// ----
; 7150 : 	if( nEtcItem >= 1 || nGoldenKey != 1 && nSilverKey != 1 )

  000b7	b8 01 00 00 00	 mov	 eax, 1
  000bc	39 45 e0	 cmp	 DWORD PTR _nEtcItem$[ebp], eax
  000bf	7d 73		 jge	 SHORT $LN28@GoldenNSil
  000c1	8b 4d dc	 mov	 ecx, DWORD PTR _nGoldenKey$[ebp]
  000c4	3b c8		 cmp	 ecx, eax

; 7151 : 	{
; 7152 : 		bCheckSourceItem = false;
; 7153 : 	}
; 7154 : 	else if( nGoldenKey == 1 && nGoldenBox == 1 && !nSilverKey && !nSilverBox )

  000c6	75 15		 jne	 SHORT $LN27@GoldenNSil
  000c8	39 45 e8	 cmp	 DWORD PTR _nGoldenBox$[ebp], eax
  000cb	75 10		 jne	 SHORT $LN27@GoldenNSil
  000cd	85 db		 test	 ebx, ebx
  000cf	75 0c		 jne	 SHORT $LN27@GoldenNSil
  000d1	39 5d e4	 cmp	 DWORD PTR _nSilverBox$[ebp], ebx
  000d4	75 5e		 jne	 SHORT $LN28@GoldenNSil

; 7155 : 	{
; 7156 : 		nType = ITEMGET(14, 123);

  000d6	b8 7b 1c 00 00	 mov	 eax, 7291		; 00001c7bH

; 7157 : 		bCheckSourceItem = true;

  000db	eb 17		 jmp	 SHORT $LN26@GoldenNSil
$LN27@GoldenNSil:

; 7158 : 	}
; 7159 : 	else if( nSilverKey == 1 && nSilverBox == 1 && !nGoldenKey && !nGoldenBox )

  000dd	3b d8		 cmp	 ebx, eax
  000df	75 53		 jne	 SHORT $LN28@GoldenNSil
  000e1	39 45 e4	 cmp	 DWORD PTR _nSilverBox$[ebp], eax
  000e4	75 4e		 jne	 SHORT $LN28@GoldenNSil
  000e6	85 c9		 test	 ecx, ecx
  000e8	75 4a		 jne	 SHORT $LN28@GoldenNSil
  000ea	39 4d e8	 cmp	 DWORD PTR _nGoldenBox$[ebp], ecx
  000ed	75 45		 jne	 SHORT $LN28@GoldenNSil

; 7160 : 	{
; 7161 : 		nType = ITEMGET(14, 124);

  000ef	b8 7c 1c 00 00	 mov	 eax, 7292		; 00001c7cH
$LN26@GoldenNSil:

; 7162 : 		bCheckSourceItem = true;
; 7163 : 	}
; 7164 : 	// ----
; 7165 : 	if( bCheckSourceItem )
; 7166 : 	{
; 7167 : 		ItemSerialCreateSend(lpObj->m_Index, 0xFF, 0, 0, nType, 0, 0, 0, 0, 0, -1, 0, 0);

  000f4	6a 00		 push	 0
  000f6	8b 17		 mov	 edx, DWORD PTR [edi]
  000f8	6a 00		 push	 0
  000fa	6a ff		 push	 -1
  000fc	6a 00		 push	 0
  000fe	6a 00		 push	 0
  00100	6a 00		 push	 0
  00102	6a 00		 push	 0
  00104	6a 00		 push	 0
  00106	50		 push	 eax
  00107	6a 00		 push	 0
  00109	6a 00		 push	 0
  0010b	68 ff 00 00 00	 push	 255			; 000000ffH
  00110	52		 push	 edx
  00111	e8 00 00 00 00	 call	 ?ItemSerialCreateSend@@YAXHEEEHEEEEEHEE@Z ; ItemSerialCreateSend

; 7168 : 		gObjInventoryCommit(lpObj->m_Index);

  00116	8b 07		 mov	 eax, DWORD PTR [edi]
  00118	50		 push	 eax
  00119	e8 00 00 00 00	 call	 ?gObjInventoryCommit@@YAHH@Z ; gObjInventoryCommit
  0011e	83 c4 38	 add	 esp, 56			; 00000038H
  00121	5f		 pop	 edi
  00122	5e		 pop	 esi
  00123	5b		 pop	 ebx

; 7174 : 	lpObj->ChaosLock = false;
; 7175 : }

  00124	8b 4d fc	 mov	 ecx, DWORD PTR __$ArrayPad$[ebp]
  00127	33 cd		 xor	 ecx, ebp
  00129	e8 00 00 00 00	 call	 @__security_check_cookie@4
  0012e	8b e5		 mov	 esp, ebp
  00130	5d		 pop	 ebp
  00131	c2 04 00	 ret	 4
$LN28@GoldenNSil:

; 7169 : 		return;
; 7170 : 	}
; 7171 : 	// ----
; 7172 : 	pMsg.Result = 1;
; 7173 : 	DataSend(lpObj->m_Index, (LPBYTE)&pMsg, pMsg.h.size);

  00134	0f b6 4d ed	 movzx	 ecx, BYTE PTR _pMsg$[ebp+1]
  00138	51		 push	 ecx
  00139	8d 55 ec	 lea	 edx, DWORD PTR _pMsg$[ebp]
  0013c	88 45 ef	 mov	 BYTE PTR _pMsg$[ebp+3], al
  0013f	8b 07		 mov	 eax, DWORD PTR [edi]
  00141	52		 push	 edx
  00142	50		 push	 eax
  00143	e8 00 00 00 00	 call	 ?DataSend@@YAHHPAEK@Z	; DataSend

; 7174 : 	lpObj->ChaosLock = false;
; 7175 : }

  00148	8b 4d fc	 mov	 ecx, DWORD PTR __$ArrayPad$[ebp]
  0014b	83 c4 0c	 add	 esp, 12			; 0000000cH
  0014e	c7 87 88 0e 00
	00 00 00 00 00	 mov	 DWORD PTR [edi+3720], 0
  00158	5f		 pop	 edi
  00159	5e		 pop	 esi
  0015a	33 cd		 xor	 ecx, ebp
  0015c	5b		 pop	 ebx
  0015d	e8 00 00 00 00	 call	 @__security_check_cookie@4
  00162	8b e5		 mov	 esp, ebp
  00164	5d		 pop	 ebp
  00165	c2 04 00	 ret	 4
?GoldenNSilverBoxMix@CMixSystem@@QAEXPAUOBJECTSTRUCT@@@Z ENDP ; CMixSystem::GoldenNSilverBoxMix
; Function compile flags: /Ogtp
_TEXT	ENDS
;	COMDAT ??_GCMixSystem@@UAEPAXI@Z
_TEXT	SEGMENT
___flags$ = 8						; size = 4
??_GCMixSystem@@UAEPAXI@Z PROC				; CMixSystem::`scalar deleting destructor', COMDAT
; _this$ = ecx
  00000	55		 push	 ebp
  00001	8b ec		 mov	 ebp, esp
  00003	56		 push	 esi
  00004	8b f1		 mov	 esi, ecx
  00006	e8 00 00 00 00	 call	 ??1CMixSystem@@UAE@XZ	; CMixSystem::~CMixSystem
  0000b	f6 45 08 01	 test	 BYTE PTR ___flags$[ebp], 1
  0000f	74 09		 je	 SHORT $LN4@scalar
  00011	56		 push	 esi
  00012	e8 00 00 00 00	 call	 ??3@YAXPAX@Z		; operator delete
  00017	83 c4 04	 add	 esp, 4
$LN4@scalar:
  0001a	8b c6		 mov	 eax, esi
  0001c	5e		 pop	 esi
  0001d	5d		 pop	 ebp
  0001e	c2 04 00	 ret	 4
??_GCMixSystem@@UAEPAXI@Z ENDP				; CMixSystem::`scalar deleting destructor'
_TEXT	ENDS
PUBLIC	??_C@_0CK@IKEPLJDI@?$FL?$CFs?$FN?$FL?$CFs?$FN?5CBMix?5Success?5Rate?3?$CFd?5M@ ; `string'
PUBLIC	??_C@_0CF@NPEOFJKC@?$FL?$CFs?$FN?$FL?$CFs?$FN?5CBMix?5Fail?5?$CFd?5Money?5?3?5?$CF@ ; `string'
PUBLIC	__$ArrayPad$
PUBLIC	?DefaultChaosMix@CMixSystem@@QAEXPAUOBJECTSTRUCT@@@Z ; CMixSystem::DefaultChaosMix
EXTRN	?gChaosEvent@@3HA:DWORD				; gChaosEvent
;	COMDAT ??_C@_0CK@IKEPLJDI@?$FL?$CFs?$FN?$FL?$CFs?$FN?5CBMix?5Success?5Rate?3?$CFd?5M@
CONST	SEGMENT
??_C@_0CK@IKEPLJDI@?$FL?$CFs?$FN?$FL?$CFs?$FN?5CBMix?5Success?5Rate?3?$CFd?5M@ DB '['
	DB	'%s][%s] CBMix Success Rate:%d Money : %d', 00H ; `string'
CONST	ENDS
;	COMDAT ??_C@_0CF@NPEOFJKC@?$FL?$CFs?$FN?$FL?$CFs?$FN?5CBMix?5Fail?5?$CFd?5Money?5?3?5?$CF@
CONST	SEGMENT
??_C@_0CF@NPEOFJKC@?$FL?$CFs?$FN?$FL?$CFs?$FN?5CBMix?5Fail?5?$CFd?5Money?5?3?5?$CF@ DB '['
	DB	'%s][%s] CBMix Fail %d Money : %d-%d', 00H	; `string'
; Function compile flags: /Ogtp
CONST	ENDS
;	COMDAT ?DefaultChaosMix@CMixSystem@@QAEXPAUOBJECTSTRUCT@@@Z
_TEXT	SEGMENT
_Level$217709 = -56					; size = 4
_MixResult2$ = -52					; size = 4
_fail$ = -48						; size = 4
_WingCharmIndex$ = -44					; size = 4
_this$ = -40						; size = 4
_aIndex$ = -36						; size = 4
_Option2$217711 = -32					; size = 4
_iChaosTaxMoney$ = -28					; size = 4
_Option1$217710 = -24					; size = 4
_pMsg$ = -20						; size = 16
__$ArrayPad$ = -4					; size = 4
_lpObj$ = 8						; size = 4
?DefaultChaosMix@CMixSystem@@QAEXPAUOBJECTSTRUCT@@@Z PROC ; CMixSystem::DefaultChaosMix, COMDAT
; _this$ = ecx

; 331  : {

  00000	55		 push	 ebp
  00001	8b ec		 mov	 ebp, esp
  00003	83 ec 38	 sub	 esp, 56			; 00000038H
  00006	a1 00 00 00 00	 mov	 eax, DWORD PTR ___security_cookie
  0000b	33 c5		 xor	 eax, ebp
  0000d	89 45 fc	 mov	 DWORD PTR __$ArrayPad$[ebp], eax
  00010	53		 push	 ebx
  00011	56		 push	 esi
  00012	8b 75 08	 mov	 esi, DWORD PTR _lpObj$[ebp]
  00015	57		 push	 edi

; 332  : 	PMSG_CHAOSMIXRESULT pMsg;
; 333  : 
; 334  : 	PHeadSetB((LPBYTE)&pMsg.h, 0x86, sizeof(PMSG_CHAOSMIXRESULT));

  00016	6a 10		 push	 16			; 00000010H
  00018	8d 45 ec	 lea	 eax, DWORD PTR _pMsg$[ebp]
  0001b	8b d9		 mov	 ebx, ecx
  0001d	68 86 00 00 00	 push	 134			; 00000086H
  00022	50		 push	 eax
  00023	89 5d d8	 mov	 DWORD PTR _this$[ebp], ebx
  00026	e8 00 00 00 00	 call	 ?PHeadSetB@@YAXPAEEH@Z	; PHeadSetB

; 335  : 	pMsg.Result = CB_ERROR;
; 336  : 	int aIndex = lpObj->m_Index;

  0002b	8b 3e		 mov	 edi, DWORD PTR [esi]
  0002d	83 c4 0c	 add	 esp, 12			; 0000000cH

; 337  : 	BOOL fail = TRUE;
; 338  : 	int MixResult2;
; 339  : 	lpObj->ChaosLock = TRUE;
; 340  : 	int WingCharmIndex = -1; //season4.5 add-on
; 341  : 
; 342  : 	if ( ChaosBoxMix(lpObj, MixResult2, WingCharmIndex) == 0 )

  00030	8d 4d d4	 lea	 ecx, DWORD PTR _WingCharmIndex$[ebp]
  00033	51		 push	 ecx
  00034	8d 55 cc	 lea	 edx, DWORD PTR _MixResult2$[ebp]
  00037	b8 01 00 00 00	 mov	 eax, 1
  0003c	52		 push	 edx
  0003d	56		 push	 esi
  0003e	8b cb		 mov	 ecx, ebx
  00040	c6 45 ef 00	 mov	 BYTE PTR _pMsg$[ebp+3], 0
  00044	89 7d dc	 mov	 DWORD PTR _aIndex$[ebp], edi
  00047	89 45 d0	 mov	 DWORD PTR _fail$[ebp], eax
  0004a	89 86 88 0e 00
	00		 mov	 DWORD PTR [esi+3720], eax
  00050	c7 45 d4 ff ff
	ff ff		 mov	 DWORD PTR _WingCharmIndex$[ebp], -1
  00057	e8 00 00 00 00	 call	 ?ChaosBoxMix@CMixSystem@@QAEHPAUOBJECTSTRUCT@@AAH1@Z ; CMixSystem::ChaosBoxMix
  0005c	85 c0		 test	 eax, eax
  0005e	75 33		 jne	 SHORT $LN40@DefaultCha

; 343  : 	{
; 344  : 		pMsg.Result = CB_INCORRECT_MIX_ITEMS;
; 345  : 		DataSend(aIndex, (LPBYTE)&pMsg, pMsg.h.size);

  00060	0f b6 45 ed	 movzx	 eax, BYTE PTR _pMsg$[ebp+1]
  00064	50		 push	 eax
  00065	8d 4d ec	 lea	 ecx, DWORD PTR _pMsg$[ebp]
  00068	51		 push	 ecx
  00069	57		 push	 edi
  0006a	c6 45 ef 07	 mov	 BYTE PTR _pMsg$[ebp+3], 7
  0006e	e8 00 00 00 00	 call	 ?DataSend@@YAHHPAEK@Z	; DataSend
  00073	83 c4 0c	 add	 esp, 12			; 0000000cH
  00076	5f		 pop	 edi

; 346  : 		lpObj->ChaosLock = FALSE;

  00077	c7 86 88 0e 00
	00 00 00 00 00	 mov	 DWORD PTR [esi+3720], 0
  00081	5e		 pop	 esi
  00082	5b		 pop	 ebx

; 523  : }

  00083	8b 4d fc	 mov	 ecx, DWORD PTR __$ArrayPad$[ebp]
  00086	33 cd		 xor	 ecx, ebp
  00088	e8 00 00 00 00	 call	 @__security_check_cookie@4
  0008d	8b e5		 mov	 esp, ebp
  0008f	5d		 pop	 ebp
  00090	c2 04 00	 ret	 4
$LN40@DefaultCha:

; 347  : 		return;
; 348  : 	}
; 349  : 
; 350  : 	int iChaosTaxMoney = (int)((__int64)lpObj->ChaosMoney * (__int64)g_CastleSiegeSync.GetTaxRateChaos(lpObj->m_Index) / (__int64)100);

  00093	8b 16		 mov	 edx, DWORD PTR [esi]
  00095	52		 push	 edx
  00096	b9 00 00 00 00	 mov	 ecx, OFFSET ?g_CastleSiegeSync@@3VCCastleSiegeSync@@A ; g_CastleSiegeSync
  0009b	e8 00 00 00 00	 call	 ?GetTaxRateChaos@CCastleSiegeSync@@QAEHH@Z ; CCastleSiegeSync::GetTaxRateChaos
  000a0	f7 ae 80 0e 00
	00		 imul	 DWORD PTR [esi+3712]
  000a6	33 db		 xor	 ebx, ebx
  000a8	53		 push	 ebx
  000a9	6a 64		 push	 100			; 00000064H
  000ab	52		 push	 edx
  000ac	50		 push	 eax
  000ad	e8 00 00 00 00	 call	 __alldiv
  000b2	89 45 e4	 mov	 DWORD PTR _iChaosTaxMoney$[ebp], eax

; 351  : 
; 352  : 	if ( iChaosTaxMoney < 0 )

  000b5	3b c3		 cmp	 eax, ebx
  000b7	7d 03		 jge	 SHORT $LN39@DefaultCha

; 353  : 	{
; 354  : 		iChaosTaxMoney = 0;

  000b9	89 5d e4	 mov	 DWORD PTR _iChaosTaxMoney$[ebp], ebx
$LN39@DefaultCha:

; 355  : 	}
; 356  : 
; 357  : 	lpObj->ChaosMoney += iChaosTaxMoney;

  000bc	8b 45 e4	 mov	 eax, DWORD PTR _iChaosTaxMoney$[ebp]
  000bf	01 86 80 0e 00
	00		 add	 DWORD PTR [esi+3712], eax

; 358  : 
; 359  : 	if ( lpObj->ChaosMoney < 0 )

  000c5	79 06		 jns	 SHORT $LN38@DefaultCha

; 360  : 	{
; 361  : 		lpObj->ChaosMoney = 0;

  000c7	89 9e 80 0e 00
	00		 mov	 DWORD PTR [esi+3712], ebx
$LN38@DefaultCha:

; 362  : 	}
; 363  : 
; 364  : 	if ( lpObj->Money < lpObj->ChaosMoney )

  000cd	8b 8e f0 00 00
	00		 mov	 ecx, DWORD PTR [esi+240]
  000d3	3b 8e 80 0e 00
	00		 cmp	 ecx, DWORD PTR [esi+3712]
  000d9	7d 21		 jge	 SHORT $LN37@DefaultCha

; 365  : 	{
; 366  : 		pMsg.Result = CB_NOT_ENOUGH_ZEN;
; 367  : 		
; 368  : 		DataSend(aIndex, (LPBYTE)&pMsg, pMsg.h.size);

  000db	0f b6 55 ed	 movzx	 edx, BYTE PTR _pMsg$[ebp+1]
  000df	52		 push	 edx
  000e0	8d 45 ec	 lea	 eax, DWORD PTR _pMsg$[ebp]
  000e3	50		 push	 eax
  000e4	57		 push	 edi
  000e5	c6 45 ef 02	 mov	 BYTE PTR _pMsg$[ebp+3], 2
  000e9	e8 00 00 00 00	 call	 ?DataSend@@YAHHPAEK@Z	; DataSend
  000ee	83 c4 0c	 add	 esp, 12			; 0000000cH

; 369  : 		lpObj->ChaosLock = FALSE;

  000f1	89 9e 88 0e 00
	00		 mov	 DWORD PTR [esi+3720], ebx

; 370  : 	}
; 371  : 	else 

  000f7	e9 1a 03 00 00	 jmp	 $LN1@DefaultCha
$LN37@DefaultCha:

; 372  : 	{
; 373  : 		if ( lpObj->ChaosSuccessRate > 0 )

  000fc	8b 86 84 0e 00
	00		 mov	 eax, DWORD PTR [esi+3716]
  00102	3b c3		 cmp	 eax, ebx
  00104	0f 8e 3d 02 00
	00		 jle	 $LN47@DefaultCha

; 374  : 		{
; 375  : 			if ( lpObj->ChaosSuccessRate >= 100 )

  0010a	83 f8 64	 cmp	 eax, 100		; 00000064H
  0010d	7c 0a		 jl	 SHORT $LN34@DefaultCha

; 376  : 			{
; 377  : 				lpObj->ChaosSuccessRate = 100;

  0010f	c7 86 84 0e 00
	00 64 00 00 00	 mov	 DWORD PTR [esi+3716], 100 ; 00000064H
$LN34@DefaultCha:

; 378  : 			}
; 379  : 
; 380  : 			if ( (rand()%100) <= (lpObj->ChaosSuccessRate-1) ) 

  00119	e8 00 00 00 00	 call	 _rand
  0011e	99		 cdq
  0011f	b9 64 00 00 00	 mov	 ecx, 100		; 00000064H
  00124	f7 f9		 idiv	 ecx
  00126	8b 86 84 0e 00
	00		 mov	 eax, DWORD PTR [esi+3716]
  0012c	48		 dec	 eax
  0012d	3b d0		 cmp	 edx, eax
  0012f	0f 8f 12 02 00
	00		 jg	 $LN47@DefaultCha

; 381  : 			{
; 382  : 				fail = FALSE;

  00135	89 5d d0	 mov	 DWORD PTR _fail$[ebp], ebx

; 383  : 				pMsg.Result = CB_SUCCESS;

  00138	c6 45 ef 01	 mov	 BYTE PTR _pMsg$[ebp+3], 1

; 384  : 
; 385  : 				int Level = rand()%5;

  0013c	e8 00 00 00 00	 call	 _rand
  00141	99		 cdq
  00142	b9 05 00 00 00	 mov	 ecx, 5
  00147	f7 f9		 idiv	 ecx

; 386  : 				int Option1 = 0;

  00149	89 5d e8	 mov	 DWORD PTR _Option1$217710[ebp], ebx

; 387  : 				int Option2 = 0;

  0014c	89 5d e0	 mov	 DWORD PTR _Option2$217711[ebp], ebx
  0014f	89 55 c8	 mov	 DWORD PTR _Level$217709[ebp], edx

; 388  : 				int Option3 = 0;
; 389  : 
; 390  : 				if ( (rand()%100)< (lpObj->ChaosSuccessRate/5 + 6) )

  00152	e8 00 00 00 00	 call	 _rand
  00157	99		 cdq
  00158	b9 64 00 00 00	 mov	 ecx, 100		; 00000064H
  0015d	f7 f9		 idiv	 ecx
  0015f	b8 67 66 66 66	 mov	 eax, 1717986919		; 66666667H
  00164	8b fa		 mov	 edi, edx
  00166	f7 ae 84 0e 00
	00		 imul	 DWORD PTR [esi+3716]
  0016c	d1 fa		 sar	 edx, 1
  0016e	8b c2		 mov	 eax, edx
  00170	c1 e8 1f	 shr	 eax, 31			; 0000001fH
  00173	8d 4c 02 06	 lea	 ecx, DWORD PTR [edx+eax+6]
  00177	3b f9		 cmp	 edi, ecx
  00179	7d 07		 jge	 SHORT $LN46@DefaultCha

; 391  : 				{
; 392  : 					Option1 = 1;

  0017b	c7 45 e8 01 00
	00 00		 mov	 DWORD PTR _Option1$217710[ebp], 1
$LN46@DefaultCha:

; 393  : 				}
; 394  : 
; 395  : 				if ( (rand()%100)< (lpObj->ChaosSuccessRate/5 + 4) )

  00182	e8 00 00 00 00	 call	 _rand
  00187	99		 cdq
  00188	b9 64 00 00 00	 mov	 ecx, 100		; 00000064H
  0018d	f7 f9		 idiv	 ecx
  0018f	b8 67 66 66 66	 mov	 eax, 1717986919		; 66666667H
  00194	8b fa		 mov	 edi, edx
  00196	f7 ae 84 0e 00
	00		 imul	 DWORD PTR [esi+3716]
  0019c	d1 fa		 sar	 edx, 1
  0019e	8b c2		 mov	 eax, edx
  001a0	c1 e8 1f	 shr	 eax, 31			; 0000001fH
  001a3	8d 4c 02 04	 lea	 ecx, DWORD PTR [edx+eax+4]
  001a7	3b f9		 cmp	 edi, ecx
  001a9	7d 07		 jge	 SHORT $LN31@DefaultCha

; 396  : 				{
; 397  : 					Option2 = 1;

  001ab	c7 45 e0 01 00
	00 00		 mov	 DWORD PTR _Option2$217711[ebp], 1
$LN31@DefaultCha:

; 398  : 				}
; 399  : 
; 400  : 				int OpProb;
; 401  : 				int OpType = rand()%3;

  001b2	e8 00 00 00 00	 call	 _rand
  001b7	99		 cdq
  001b8	b9 03 00 00 00	 mov	 ecx, 3
  001bd	f7 f9		 idiv	 ecx
  001bf	8b fa		 mov	 edi, edx

; 402  : 				OpProb = rand()%100;

  001c1	e8 00 00 00 00	 call	 _rand
  001c6	99		 cdq
  001c7	b9 64 00 00 00	 mov	 ecx, 100		; 00000064H
  001cc	f7 f9		 idiv	 ecx

; 403  : 
; 404  : 				switch ( OpType )

  001ce	8b c7		 mov	 eax, edi
  001d0	83 e8 00	 sub	 eax, 0
  001d3	8b ca		 mov	 ecx, edx
  001d5	74 48		 je	 SHORT $LN28@DefaultCha
  001d7	48		 dec	 eax
  001d8	74 24		 je	 SHORT $LN26@DefaultCha
  001da	48		 dec	 eax
  001db	75 61		 jne	 SHORT $LN43@DefaultCha

; 419  : 
; 420  : 					case 2:
; 421  : 						if ( OpProb < (lpObj->ChaosSuccessRate / 5 + 12) ) 

  001dd	b8 67 66 66 66	 mov	 eax, 1717986919		; 66666667H
  001e2	f7 ae 84 0e 00
	00		 imul	 DWORD PTR [esi+3716]
  001e8	d1 fa		 sar	 edx, 1
  001ea	8b c2		 mov	 eax, edx
  001ec	c1 e8 1f	 shr	 eax, 31			; 0000001fH
  001ef	8d 54 02 0c	 lea	 edx, DWORD PTR [edx+eax+12]
  001f3	3b ca		 cmp	 ecx, edx
  001f5	7d 47		 jge	 SHORT $LN43@DefaultCha

; 422  : 						{
; 423  : 							Option3 = 1;

  001f7	bb 01 00 00 00	 mov	 ebx, 1

; 424  : 						}
; 425  : 						break;

  001fc	eb 40		 jmp	 SHORT $LN43@DefaultCha
$LN26@DefaultCha:

; 410  : 						}
; 411  : 						break;
; 412  : 
; 413  : 					case 1:
; 414  : 						if ( OpProb < (lpObj->ChaosSuccessRate / 5 + 8) ) 

  001fe	b8 67 66 66 66	 mov	 eax, 1717986919		; 66666667H
  00203	f7 ae 84 0e 00
	00		 imul	 DWORD PTR [esi+3716]
  00209	d1 fa		 sar	 edx, 1
  0020b	8b c2		 mov	 eax, edx
  0020d	c1 e8 1f	 shr	 eax, 31			; 0000001fH
  00210	8d 54 02 08	 lea	 edx, DWORD PTR [edx+eax+8]
  00214	3b ca		 cmp	 ecx, edx
  00216	7d 26		 jge	 SHORT $LN43@DefaultCha

; 415  : 						{
; 416  : 							Option3 = 2;

  00218	bb 02 00 00 00	 mov	 ebx, 2

; 417  : 						}
; 418  : 						break;

  0021d	eb 1f		 jmp	 SHORT $LN43@DefaultCha
$LN28@DefaultCha:

; 405  : 				{
; 406  : 					case 0:
; 407  : 						if ( OpProb < (lpObj->ChaosSuccessRate / 5 + 4) ) 

  0021f	b8 67 66 66 66	 mov	 eax, 1717986919		; 66666667H
  00224	f7 ae 84 0e 00
	00		 imul	 DWORD PTR [esi+3716]
  0022a	d1 fa		 sar	 edx, 1
  0022c	8b c2		 mov	 eax, edx
  0022e	c1 e8 1f	 shr	 eax, 31			; 0000001fH
  00231	8d 54 02 04	 lea	 edx, DWORD PTR [edx+eax+4]
  00235	3b ca		 cmp	 ecx, edx
  00237	7d 05		 jge	 SHORT $LN43@DefaultCha

; 408  : 						{
; 409  : 							Option3 = 3;

  00239	bb 03 00 00 00	 mov	 ebx, 3
$LN43@DefaultCha:

; 426  : 				}
; 427  : 
; 428  : 				if ( MixResult2 == 1 )

  0023e	83 7d cc 01	 cmp	 DWORD PTR _MixResult2$[ebp], 1
  00242	0f 85 90 00 00
	00		 jne	 $LN22@DefaultCha

; 429  : 				{
; 430  : 					int MaxRandomMix = 4;
; 431  : 					if(ZtConfig.ZtCustom.SwitchChar == 2)

  00248	83 3d 00 00 00
	00 02		 cmp	 DWORD PTR ?ZtConfig@@3VcZtConfigs@@A, 2
  0024f	bf 04 00 00 00	 mov	 edi, 4
  00254	75 05		 jne	 SHORT $LN21@DefaultCha

; 432  : 					{
; 433  : 						MaxRandomMix = 3;

  00256	bf 03 00 00 00	 mov	 edi, 3
$LN21@DefaultCha:

; 434  : 					}
; 435  : 					int WingType = rand()%MaxRandomMix;

  0025b	e8 00 00 00 00	 call	 _rand
  00260	99		 cdq
  00261	f7 ff		 idiv	 edi

; 436  : 					int WingNum = 0;
; 437  : 
; 438  : 					if(WingCharmIndex > -1) //season4.5 add-on

  00263	8b 45 d4	 mov	 eax, DWORD PTR _WingCharmIndex$[ebp]
  00266	33 ff		 xor	 edi, edi
  00268	83 f8 ff	 cmp	 eax, -1
  0026b	7e 08		 jle	 SHORT $LN20@DefaultCha

; 439  : 					{
; 440  : 						WingNum = WingCharmIndex + ITEMGET(12,0);

  0026d	8d b8 00 18 00
	00		 lea	 edi, DWORD PTR [eax+6144]
  00273	eb 3e		 jmp	 SHORT $LN11@DefaultCha
$LN20@DefaultCha:

; 441  : 					}
; 442  : 					else if ( WingType == 0 )

  00275	85 d2		 test	 edx, edx
  00277	75 07		 jne	 SHORT $LN18@DefaultCha

; 443  : 					{
; 444  : 						WingNum = ITEMGET(12,0);

  00279	bf 00 18 00 00	 mov	 edi, 6144		; 00001800H
  0027e	eb 33		 jmp	 SHORT $LN11@DefaultCha
$LN18@DefaultCha:

; 445  : 					}
; 446  : 					else if ( WingType == 1 )

  00280	83 fa 01	 cmp	 edx, 1
  00283	75 07		 jne	 SHORT $LN16@DefaultCha

; 447  : 					{
; 448  : 						WingNum = ITEMGET(12,1);

  00285	bf 01 18 00 00	 mov	 edi, 6145		; 00001801H
  0028a	eb 27		 jmp	 SHORT $LN11@DefaultCha
$LN16@DefaultCha:

; 449  : 					}
; 450  : 					else if ( WingType == 2 )

  0028c	83 fa 02	 cmp	 edx, 2
  0028f	75 07		 jne	 SHORT $LN14@DefaultCha

; 451  : 					{
; 452  : 						WingNum = ITEMGET(12,2);

  00291	bf 02 18 00 00	 mov	 edi, 6146		; 00001802H
  00296	eb 1b		 jmp	 SHORT $LN11@DefaultCha
$LN14@DefaultCha:

; 453  : 					}
; 454  : 					else if ( WingType == 3 ) //season3 add-on

  00298	83 fa 03	 cmp	 edx, 3
  0029b	75 16		 jne	 SHORT $LN11@DefaultCha

; 455  : 					{
; 456  : 						if(ZtConfig.ZtCustom.SwitchChar == 2)

  0029d	8b 3d 00 00 00
	00		 mov	 edi, DWORD PTR ?ZtConfig@@3VcZtConfigs@@A
  002a3	83 ef 02	 sub	 edi, 2
  002a6	f7 df		 neg	 edi
  002a8	1b ff		 sbb	 edi, edi
  002aa	83 e7 29	 and	 edi, 41			; 00000029H
  002ad	81 c7 00 18 00
	00		 add	 edi, 6144		; 00001800H
$LN11@DefaultCha:

; 457  : 						{
; 458  : 							WingNum = ITEMGET(12,0);
; 459  : 						}
; 460  : 						else
; 461  : 						{
; 462  : 							WingNum = ITEMGET(12,41);
; 463  : 						}
; 464  : 					}
; 465  : #if(SYSTEM_ACHIEVEMENTS)
; 466  : 					g_Achievements.SuccessChaosMix(lpObj->m_Index);

  002b3	8b 06		 mov	 eax, DWORD PTR [esi]
  002b5	50		 push	 eax
  002b6	b9 00 00 00 00	 mov	 ecx, OFFSET ?g_Achievements@@3VCAchievements@@A ; g_Achievements
  002bb	e8 00 00 00 00	 call	 ?SuccessChaosMix@CAchievements@@QAEXH@Z ; CAchievements::SuccessChaosMix

; 467  : #endif
; 468  : 					::ItemSerialCreateSend(lpObj->m_Index, -1, 0, 0, WingNum, 0, 255, (BYTE)Option1, (BYTE)Option2, (BYTE)Option3, -1, 0, 0);

  002c0	8b 4d e0	 mov	 ecx, DWORD PTR _Option2$217711[ebp]
  002c3	8b 55 e8	 mov	 edx, DWORD PTR _Option1$217710[ebp]
  002c6	6a 00		 push	 0
  002c8	6a 00		 push	 0
  002ca	6a ff		 push	 -1
  002cc	53		 push	 ebx
  002cd	51		 push	 ecx
  002ce	52		 push	 edx
  002cf	68 ff 00 00 00	 push	 255			; 000000ffH
  002d4	6a 00		 push	 0

; 469  : 				}
; 470  : 				else

  002d6	eb 55		 jmp	 SHORT $LN48@DefaultCha
$LN22@DefaultCha:

; 471  : 				{
; 472  : 					int ChaosItemType = rand()%3;

  002d8	e8 00 00 00 00	 call	 _rand
  002dd	99		 cdq
  002de	b9 03 00 00 00	 mov	 ecx, 3
  002e3	f7 f9		 idiv	 ecx

; 473  : 					int ChaosItemNum = 0;

  002e5	33 ff		 xor	 edi, edi

; 474  : 
; 475  : 					if ( ChaosItemType == 0 )	// Chaos Dragon Axe

  002e7	85 d2		 test	 edx, edx
  002e9	75 07		 jne	 SHORT $LN8@DefaultCha

; 476  : 					{
; 477  : 						ChaosItemNum = ITEMGET(2,6);

  002eb	bf 06 04 00 00	 mov	 edi, 1030		; 00000406H
  002f0	eb 16		 jmp	 SHORT $LN4@DefaultCha
$LN8@DefaultCha:

; 478  : 					}
; 479  : 					else if ( ChaosItemType == 1 )	// Chaos Nature Bow

  002f2	83 fa 01	 cmp	 edx, 1
  002f5	75 07		 jne	 SHORT $LN6@DefaultCha

; 480  : 					{
; 481  : 						ChaosItemNum = ITEMGET(4,6);

  002f7	bf 06 08 00 00	 mov	 edi, 2054		; 00000806H
  002fc	eb 0a		 jmp	 SHORT $LN4@DefaultCha
$LN6@DefaultCha:

; 482  : 					}
; 483  : 					else if ( ChaosItemType == 2 )	// Chaos Lighting Staff

  002fe	83 fa 02	 cmp	 edx, 2
  00301	75 05		 jne	 SHORT $LN4@DefaultCha

; 484  : 					{
; 485  : 						ChaosItemNum = ITEMGET(5,7);

  00303	bf 07 0a 00 00	 mov	 edi, 2567		; 00000a07H
$LN4@DefaultCha:

; 486  : 					}
; 487  : #if(SYSTEM_ACHIEVEMENTS)
; 488  : 					g_Achievements.SuccessChaosMix(lpObj->m_Index);

  00308	8b 16		 mov	 edx, DWORD PTR [esi]
  0030a	52		 push	 edx
  0030b	b9 00 00 00 00	 mov	 ecx, OFFSET ?g_Achievements@@3VCAchievements@@A ; g_Achievements
  00310	e8 00 00 00 00	 call	 ?SuccessChaosMix@CAchievements@@QAEXH@Z ; CAchievements::SuccessChaosMix

; 489  : #endif
; 490  : 					::ItemSerialCreateSend(lpObj->m_Index, -1, 0, 0, ChaosItemNum, (BYTE)Level, 255, (BYTE)Option1, (BYTE)Option2, (BYTE)Option3, -1, 0, 0);

  00315	8b 45 e0	 mov	 eax, DWORD PTR _Option2$217711[ebp]
  00318	8b 4d e8	 mov	 ecx, DWORD PTR _Option1$217710[ebp]
  0031b	8b 55 c8	 mov	 edx, DWORD PTR _Level$217709[ebp]
  0031e	6a 00		 push	 0
  00320	6a 00		 push	 0
  00322	6a ff		 push	 -1
  00324	53		 push	 ebx
  00325	50		 push	 eax
  00326	51		 push	 ecx
  00327	68 ff 00 00 00	 push	 255			; 000000ffH
  0032c	52		 push	 edx
$LN48@DefaultCha:
  0032d	8b 06		 mov	 eax, DWORD PTR [esi]
  0032f	57		 push	 edi
  00330	6a 00		 push	 0
  00332	6a 00		 push	 0
  00334	68 ff 00 00 00	 push	 255			; 000000ffH
  00339	50		 push	 eax
  0033a	e8 00 00 00 00	 call	 ?ItemSerialCreateSend@@YAXHEEEHEEEEEHEE@Z ; ItemSerialCreateSend
  0033f	8b 7d dc	 mov	 edi, DWORD PTR _aIndex$[ebp]
  00342	83 c4 34	 add	 esp, 52			; 00000034H
  00345	33 db		 xor	 ebx, ebx
$LN47@DefaultCha:

; 491  : 				}
; 492  : 			}
; 493  : 		}
; 494  : 
; 495  : 
; 496  : 		lpObj->Money -= lpObj->ChaosMoney;

  00347	8b 8e 80 0e 00
	00		 mov	 ecx, DWORD PTR [esi+3712]

; 497  : 		g_CastleSiegeSync.AddTributeMoney(iChaosTaxMoney);

  0034d	8b 55 e4	 mov	 edx, DWORD PTR _iChaosTaxMoney$[ebp]
  00350	29 8e f0 00 00
	00		 sub	 DWORD PTR [esi+240], ecx
  00356	52		 push	 edx
  00357	b9 00 00 00 00	 mov	 ecx, OFFSET ?g_CastleSiegeSync@@3VCCastleSiegeSync@@A ; g_CastleSiegeSync
  0035c	e8 00 00 00 00	 call	 ?AddTributeMoney@CCastleSiegeSync@@QAEXH@Z ; CCastleSiegeSync::AddTributeMoney

; 498  : 		GCMoneySend(lpObj->m_Index, lpObj->Money);

  00361	8b 86 f0 00 00
	00		 mov	 eax, DWORD PTR [esi+240]
  00367	8b 0e		 mov	 ecx, DWORD PTR [esi]
  00369	50		 push	 eax
  0036a	51		 push	 ecx
  0036b	e8 00 00 00 00	 call	 ?GCMoneySend@@YAXHK@Z	; GCMoneySend
  00370	83 c4 08	 add	 esp, 8

; 499  : 
; 500  : 		if ( fail == TRUE )

  00373	83 7d d0 01	 cmp	 DWORD PTR _fail$[ebp], 1
  00377	75 63		 jne	 SHORT $LN3@DefaultCha

; 501  : 		{
; 502  : 			ChaosBoxItemDown(lpObj);

  00379	8b 4d d8	 mov	 ecx, DWORD PTR _this$[ebp]
  0037c	56		 push	 esi
  0037d	e8 00 00 00 00	 call	 ?ChaosBoxItemDown@CMixSystem@@QAEHPAUOBJECTSTRUCT@@@Z ; CMixSystem::ChaosBoxItemDown

; 503  : 			GCUserChaosBoxSend(lpObj, 0);

  00382	53		 push	 ebx
  00383	56		 push	 esi
  00384	e8 00 00 00 00	 call	 ?GCUserChaosBoxSend@@YAXPAUOBJECTSTRUCT@@H@Z ; GCUserChaosBoxSend

; 504  : 			DataSend(aIndex, (LPBYTE)&pMsg, pMsg.h.size);

  00389	0f b6 55 ed	 movzx	 edx, BYTE PTR _pMsg$[ebp+1]
  0038d	52		 push	 edx
  0038e	8d 45 ec	 lea	 eax, DWORD PTR _pMsg$[ebp]
  00391	50		 push	 eax
  00392	57		 push	 edi
  00393	e8 00 00 00 00	 call	 ?DataSend@@YAHHPAEK@Z	; DataSend

; 505  : 			LogAddTD("[%s][%s] CBMix Fail %d Money : %d-%d", lpObj->AccountID, lpObj->Name, lpObj->ChaosSuccessRate, lpObj->Money, lpObj->ChaosMoney);

  00398	8b 8e 80 0e 00
	00		 mov	 ecx, DWORD PTR [esi+3712]
  0039e	8b 96 f0 00 00
	00		 mov	 edx, DWORD PTR [esi+240]
  003a4	8b 86 84 0e 00
	00		 mov	 eax, DWORD PTR [esi+3716]
  003aa	51		 push	 ecx
  003ab	52		 push	 edx
  003ac	50		 push	 eax
  003ad	8d 7e 77	 lea	 edi, DWORD PTR [esi+119]
  003b0	57		 push	 edi
  003b1	8d 5e 6c	 lea	 ebx, DWORD PTR [esi+108]
  003b4	53		 push	 ebx
  003b5	68 00 00 00 00	 push	 OFFSET ??_C@_0CF@NPEOFJKC@?$FL?$CFs?$FN?$FL?$CFs?$FN?5CBMix?5Fail?5?$CFd?5Money?5?3?5?$CF@
  003ba	ff 15 00 00 00
	00		 call	 DWORD PTR ?LogAddTD@@3P6AXPADZZA ; LogAddTD

; 506  : 			lpObj->ChaosLock = FALSE;
; 507  : #if(SYSTEM_ACHIEVEMENTS)
; 508  : 			g_Achievements.FailedChaosMix(lpObj->m_Index);

  003c0	8b 0e		 mov	 ecx, DWORD PTR [esi]
  003c2	83 c4 2c	 add	 esp, 44			; 0000002cH
  003c5	51		 push	 ecx
  003c6	b9 00 00 00 00	 mov	 ecx, OFFSET ?g_Achievements@@3VCAchievements@@A ; g_Achievements
  003cb	c7 86 88 0e 00
	00 00 00 00 00	 mov	 DWORD PTR [esi+3720], 0
  003d5	e8 00 00 00 00	 call	 ?FailedChaosMix@CAchievements@@QAEXH@Z ; CAchievements::FailedChaosMix

; 509  : #endif
; 510  : 		}
; 511  : 		else

  003da	eb 24		 jmp	 SHORT $LN2@DefaultCha
$LN3@DefaultCha:

; 512  : 		{
; 513  : 			LogAddTD("[%s][%s] CBMix Success Rate:%d Money : %d", lpObj->AccountID, lpObj->Name, lpObj->ChaosSuccessRate, lpObj->ChaosMoney);

  003dc	8b 96 80 0e 00
	00		 mov	 edx, DWORD PTR [esi+3712]
  003e2	8b 86 84 0e 00
	00		 mov	 eax, DWORD PTR [esi+3716]
  003e8	52		 push	 edx
  003e9	50		 push	 eax
  003ea	8d 7e 77	 lea	 edi, DWORD PTR [esi+119]
  003ed	57		 push	 edi
  003ee	8d 5e 6c	 lea	 ebx, DWORD PTR [esi+108]
  003f1	53		 push	 ebx
  003f2	68 00 00 00 00	 push	 OFFSET ??_C@_0CK@IKEPLJDI@?$FL?$CFs?$FN?$FL?$CFs?$FN?5CBMix?5Success?5Rate?3?$CFd?5M@
  003f7	ff 15 00 00 00
	00		 call	 DWORD PTR ?LogAddTD@@3P6AXPADZZA ; LogAddTD
  003fd	83 c4 14	 add	 esp, 20			; 00000014H
$LN2@DefaultCha:

; 514  : 		}
; 515  : 
; 516  : 		if ( gChaosEvent != FALSE )

  00400	83 3d 00 00 00
	00 00		 cmp	 DWORD PTR ?gChaosEvent@@3HA, 0 ; gChaosEvent
  00407	74 0d		 je	 SHORT $LN1@DefaultCha

; 517  : 		{
; 518  : 			CBUPS_ItemRequest(lpObj->m_Index, lpObj->AccountID, lpObj->Name);

  00409	8b 0e		 mov	 ecx, DWORD PTR [esi]
  0040b	57		 push	 edi
  0040c	53		 push	 ebx
  0040d	51		 push	 ecx
  0040e	8b 4d d8	 mov	 ecx, DWORD PTR _this$[ebp]
  00411	e8 00 00 00 00	 call	 ?CBUPS_ItemRequest@CMixSystem@@QAEXHPAD0@Z ; CMixSystem::CBUPS_ItemRequest
$LN1@DefaultCha:

; 519  : 		}
; 520  : 	}
; 521  : 
; 522  : 	::gObjInventoryCommit(lpObj->m_Index);

  00416	8b 16		 mov	 edx, DWORD PTR [esi]
  00418	52		 push	 edx
  00419	e8 00 00 00 00	 call	 ?gObjInventoryCommit@@YAHH@Z ; gObjInventoryCommit

; 523  : }

  0041e	8b 4d fc	 mov	 ecx, DWORD PTR __$ArrayPad$[ebp]
  00421	83 c4 04	 add	 esp, 4
  00424	5f		 pop	 edi
  00425	5e		 pop	 esi
  00426	33 cd		 xor	 ecx, ebp
  00428	5b		 pop	 ebx
  00429	e8 00 00 00 00	 call	 @__security_check_cookie@4
  0042e	8b e5		 mov	 esp, ebp
  00430	5d		 pop	 ebp
  00431	c2 04 00	 ret	 4
?DefaultChaosMix@CMixSystem@@QAEXPAUOBJECTSTRUCT@@@Z ENDP ; CMixSystem::DefaultChaosMix
_TEXT	ENDS
PUBLIC	?BreakItemOption@CMixSystem@@QAEXPAUOBJECTSTRUCT@@@Z ; CMixSystem::BreakItemOption
; Function compile flags: /Ogtp
;	COMDAT ?BreakItemOption@CMixSystem@@QAEXPAUOBJECTSTRUCT@@@Z
_TEXT	SEGMENT
_this$ = -4						; size = 4
_lpObj$ = 8						; size = 4
?BreakItemOption@CMixSystem@@QAEXPAUOBJECTSTRUCT@@@Z PROC ; CMixSystem::BreakItemOption, COMDAT
; _this$ = ecx

; 1439 : {

  00000	55		 push	 ebp
  00001	8b ec		 mov	 ebp, esp
  00003	51		 push	 ecx
  00004	53		 push	 ebx
  00005	56		 push	 esi
  00006	57		 push	 edi

; 1440 : 	for ( int n=0;n<CHAOS_BOX_SIZE;n++)

  00007	8b 7d 08	 mov	 edi, DWORD PTR _lpObj$[ebp]
  0000a	33 db		 xor	 ebx, ebx
  0000c	89 4d fc	 mov	 DWORD PTR _this$[ebp], ecx
  0000f	33 f6		 xor	 esi, esi
$LL5@BreakItemO:

; 1441 : 	{
; 1442 : 		if ( lpObj->pChaosBox[n].IsItem() == TRUE )

  00011	8b 8f 78 0e 00
	00		 mov	 ecx, DWORD PTR [edi+3704]
  00017	03 ce		 add	 ecx, esi
  00019	e8 00 00 00 00	 call	 ?IsItem@CItem@@QAEHXZ	; CItem::IsItem
  0001e	83 f8 01	 cmp	 eax, 1
  00021	75 38		 jne	 SHORT $LN4@BreakItemO

; 1443 : 		{
; 1444 : 			lpObj->pChaosBox[n].m_Level = 0;

  00023	8b 87 78 0e 00
	00		 mov	 eax, DWORD PTR [edi+3704]
  00029	33 c9		 xor	 ecx, ecx
  0002b	66 89 4c 30 08	 mov	 WORD PTR [eax+esi+8], cx

; 1445 : 
; 1446 : 			int iItemCode = lpObj->pChaosBox[n].m_Type;
; 1447 : 
; 1448 : 			if(this->IsMixPossibleItem(iItemCode) == TRUE)

  00030	8b 97 78 0e 00
	00		 mov	 edx, DWORD PTR [edi+3704]
  00036	0f bf 44 32 06	 movsx	 eax, WORD PTR [edx+esi+6]
  0003b	8b 4d fc	 mov	 ecx, DWORD PTR _this$[ebp]
  0003e	50		 push	 eax
  0003f	e8 00 00 00 00	 call	 ?IsMixPossibleItem@CMixSystem@@QAEHH@Z ; CMixSystem::IsMixPossibleItem
  00044	83 f8 01	 cmp	 eax, 1
  00047	75 12		 jne	 SHORT $LN4@BreakItemO

; 1449 : 			{
; 1450 : 				lpObj->pChaosBox[n].Clear();

  00049	8d 0c 16	 lea	 ecx, DWORD PTR [esi+edx]
  0004c	e8 00 00 00 00	 call	 ?Clear@CItem@@QAEXXZ	; CItem::Clear

; 1451 : 				lpObj->pChaosBoxMap[n] = -1;

  00051	8b 8f 7c 0e 00
	00		 mov	 ecx, DWORD PTR [edi+3708]
  00057	c6 04 0b ff	 mov	 BYTE PTR [ebx+ecx], 255	; 000000ffH
$LN4@BreakItemO:

; 1440 : 	for ( int n=0;n<CHAOS_BOX_SIZE;n++)

  0005b	81 c6 d4 00 00
	00		 add	 esi, 212		; 000000d4H
  00061	43		 inc	 ebx
  00062	81 fe 80 1a 00
	00		 cmp	 esi, 6784		; 00001a80H
  00068	7c a7		 jl	 SHORT $LL5@BreakItemO
  0006a	5f		 pop	 edi
  0006b	5e		 pop	 esi
  0006c	5b		 pop	 ebx

; 1452 : 			}
; 1453 : 		}
; 1454 : 	}
; 1455 : }

  0006d	8b e5		 mov	 esp, ebp
  0006f	5d		 pop	 ebp
  00070	c2 04 00	 ret	 4
?BreakItemOption@CMixSystem@@QAEXPAUOBJECTSTRUCT@@@Z ENDP ; CMixSystem::BreakItemOption
_TEXT	ENDS
PUBLIC	?ThirdWingMixItemDown@CMixSystem@@QAEXPAUOBJECTSTRUCT@@@Z ; CMixSystem::ThirdWingMixItemDown
; Function compile flags: /Ogtp
;	COMDAT ?ThirdWingMixItemDown@CMixSystem@@QAEXPAUOBJECTSTRUCT@@@Z
_TEXT	SEGMENT
_lpObj$ = 8						; size = 4
?ThirdWingMixItemDown@CMixSystem@@QAEXPAUOBJECTSTRUCT@@@Z PROC ; CMixSystem::ThirdWingMixItemDown, COMDAT
; _this$ = ecx

; 4766 : {

  00000	55		 push	 ebp
  00001	8b ec		 mov	 ebp, esp
  00003	53		 push	 ebx

; 4767 : 	if(lpObj->pChaosBox == NULL)

  00004	8b 5d 08	 mov	 ebx, DWORD PTR _lpObj$[ebp]
  00007	83 bb 78 0e 00
	00 00		 cmp	 DWORD PTR [ebx+3704], 0
  0000e	56		 push	 esi
  0000f	8b f1		 mov	 esi, ecx
  00011	0f 84 97 00 00
	00		 je	 $LN8@ThirdWingM@2

; 4768 : 	{
; 4769 : 		return;
; 4770 : 	}
; 4771 : 
; 4772 : 	for ( int n=0;n<CHAOS_BOX_SIZE;n++) //loc2

  00017	57		 push	 edi
  00018	33 ff		 xor	 edi, edi
  0001a	8d 9b 00 00 00
	00		 npad	 6
$LL10@ThirdWingM@2:

; 4773 : 	{
; 4774 : 		if ( lpObj->pChaosBox[n].IsItem() == TRUE )

  00020	8b 8b 78 0e 00
	00		 mov	 ecx, DWORD PTR [ebx+3704]
  00026	03 cf		 add	 ecx, edi
  00028	e8 00 00 00 00	 call	 ?IsItem@CItem@@QAEHXZ	; CItem::IsItem
  0002d	83 f8 01	 cmp	 eax, 1
  00030	75 69		 jne	 SHORT $LN9@ThirdWingM@2

; 4775 : 		{
; 4776 : 			if(CheckLevel2WingItem(lpObj->pChaosBox[n].m_Type) != FALSE)

  00032	8b 83 78 0e 00
	00		 mov	 eax, DWORD PTR [ebx+3704]
  00038	0f bf 4c 07 06	 movsx	 ecx, WORD PTR [edi+eax+6]
  0003d	8d 14 07	 lea	 edx, DWORD PTR [edi+eax]
  00040	51		 push	 ecx
  00041	8b ce		 mov	 ecx, esi
  00043	e8 00 00 00 00	 call	 ?CheckLevel2WingItem@CMixSystem@@QAEHH@Z ; CMixSystem::CheckLevel2WingItem
  00048	85 c0		 test	 eax, eax
  0004a	74 08		 je	 SHORT $LN6@ThirdWingM@2

; 4777 : 			{
; 4778 : 				ThirdWingMixItemDown2(&lpObj->pChaosBox[n]);

  0004c	52		 push	 edx
  0004d	e8 00 00 00 00	 call	 ?ThirdWingMixItemDown2@CMixSystem@@QAEXPAVCItem@@@Z ; CMixSystem::ThirdWingMixItemDown2
  00052	eb 47		 jmp	 SHORT $LN9@ThirdWingM@2
$LN6@ThirdWingM@2:

; 4779 : 			}
; 4780 : 			else if(CheckItemCondition(&lpObj->pChaosBox[n], 0,0,0,0,1,0) != FALSE)

  00054	6a 00		 push	 0
  00056	6a 01		 push	 1
  00058	6a 00		 push	 0
  0005a	6a 00		 push	 0
  0005c	6a 00		 push	 0
  0005e	6a 00		 push	 0
  00060	52		 push	 edx
  00061	e8 00 00 00 00	 call	 ?CheckItemCondition@CMixSystem@@QAEHPAVCItem@@FEEEEE@Z ; CMixSystem::CheckItemCondition

; 4781 : 			{
; 4782 : 				ThirdWingMixItemDown2(&lpObj->pChaosBox[n]);

  00066	8b ce		 mov	 ecx, esi
  00068	85 c0		 test	 eax, eax
  0006a	74 08		 je	 SHORT $LN4@ThirdWingM@2
  0006c	52		 push	 edx
  0006d	e8 00 00 00 00	 call	 ?ThirdWingMixItemDown2@CMixSystem@@QAEXPAVCItem@@@Z ; CMixSystem::ThirdWingMixItemDown2
  00072	eb 27		 jmp	 SHORT $LN9@ThirdWingM@2
$LN4@ThirdWingM@2:

; 4783 : 			}
; 4784 : 			else if(CheckItemCondition(&lpObj->pChaosBox[n], 0,0,0,0,0,1) != FALSE)

  00074	6a 01		 push	 1
  00076	6a 00		 push	 0
  00078	6a 00		 push	 0
  0007a	6a 00		 push	 0
  0007c	6a 00		 push	 0
  0007e	6a 00		 push	 0
  00080	52		 push	 edx
  00081	e8 00 00 00 00	 call	 ?CheckItemCondition@CMixSystem@@QAEHPAVCItem@@FEEEEE@Z ; CMixSystem::CheckItemCondition
  00086	85 c0		 test	 eax, eax
  00088	74 0a		 je	 SHORT $LN2@ThirdWingM@2

; 4785 : 			{
; 4786 : 				ThirdWingMixItemDown2(&lpObj->pChaosBox[n]);

  0008a	52		 push	 edx
  0008b	8b ce		 mov	 ecx, esi
  0008d	e8 00 00 00 00	 call	 ?ThirdWingMixItemDown2@CMixSystem@@QAEXPAVCItem@@@Z ; CMixSystem::ThirdWingMixItemDown2

; 4787 : 			}
; 4788 : 			else

  00092	eb 07		 jmp	 SHORT $LN9@ThirdWingM@2
$LN2@ThirdWingM@2:

; 4789 : 			{
; 4790 : 				lpObj->pChaosBox[n].Clear();

  00094	8b ca		 mov	 ecx, edx
  00096	e8 00 00 00 00	 call	 ?Clear@CItem@@QAEXXZ	; CItem::Clear
$LN9@ThirdWingM@2:

; 4768 : 	{
; 4769 : 		return;
; 4770 : 	}
; 4771 : 
; 4772 : 	for ( int n=0;n<CHAOS_BOX_SIZE;n++) //loc2

  0009b	81 c7 d4 00 00
	00		 add	 edi, 212		; 000000d4H
  000a1	81 ff 80 1a 00
	00		 cmp	 edi, 6784		; 00001a80H
  000a7	0f 8c 73 ff ff
	ff		 jl	 $LL10@ThirdWingM@2
  000ad	5f		 pop	 edi
$LN8@ThirdWingM@2:
  000ae	5e		 pop	 esi
  000af	5b		 pop	 ebx

; 4791 : 			}
; 4792 : 		}
; 4793 : 	}
; 4794 : }

  000b0	5d		 pop	 ebp
  000b1	c2 04 00	 ret	 4
?ThirdWingMixItemDown@CMixSystem@@QAEXPAUOBJECTSTRUCT@@@Z ENDP ; CMixSystem::ThirdWingMixItemDown
_TEXT	ENDS
PUBLIC	??_C@_0EK@JJBHLEGP@?$FLPlusItemLevel?$FN?5?$FL?$CFs?$FN?$FL?$CFs?$FN?5CBMix?5F@ ; `string'
PUBLIC	??_C@_0BF@HBOOEPFC@?$CFs?5Mix?5?$CFs?5?$CL?$CFd?5Failed?$AA@ ; `string'
PUBLIC	??_C@_0BG@BMGOHCHC@?$CFs?5Mix?5?$CFs?5?$CL?$CFd?5Success?$AA@ ; `string'
PUBLIC	??_C@_0EN@NDGFLPHI@?$FLPlusItemLevel?$FN?5?$FL?$CFs?$FN?$FL?$CFs?$FN?5CBMix?5S@ ; `string'
PUBLIC	??_C@_0ED@HJNGDDFB@?$FLPlusItemLevel?$FN?5?$FL?$CFs?$FN?$FL?$CFs?$FN?5CBMix?5N@ ; `string'
PUBLIC	??_C@_0CA@BGIGBHFB@?$FLPlusItemLevel?$FN?5Chaos?5Mix?5Start?$AA@ ; `string'
PUBLIC	??_C@_0DL@KGOODEAG@?$FLPlusItemLevel?$FN?5?$FL?$CFs?$FN?$FL?$CFs?$FN?5CBMix?5C@ ; `string'
PUBLIC	__$ArrayPad$
PUBLIC	?PlusItemLevelChaosMix@CMixSystem@@QAEHPAUOBJECTSTRUCT@@H@Z ; CMixSystem::PlusItemLevelChaosMix
EXTRN	?MessaageAllGlobal@@YAXPADZZ:PROC		; MessaageAllGlobal
EXTRN	?GetActiveSocketOption@CSocketOption@@QAEXPAVCItem@@PAEAAE@Z:PROC ; CSocketOption::GetActiveSocketOption
EXTRN	?IsSocketOption@CSocketOption@@QAEEPAVCItem@@@Z:PROC ; CSocketOption::IsSocketOption
EXTRN	?Is380Item@CItemSystemFor380@@QAEHPBVCItem@@@Z:PROC ; CItemSystemFor380::Is380Item
EXTRN	?g_kItemSystemFor380@@3VCItemSystemFor380@@A:BYTE ; g_kItemSystemFor380
;	COMDAT ??_C@_0EK@JJBHLEGP@?$FLPlusItemLevel?$FN?5?$FL?$CFs?$FN?$FL?$CFs?$FN?5CBMix?5F@
CONST	SEGMENT
??_C@_0EK@JJBHLEGP@?$FLPlusItemLevel?$FN?5?$FL?$CFs?$FN?$FL?$CFs?$FN?5CBMix?5F@ DB '['
	DB	'PlusItemLevel] [%s][%s] CBMix Fail %d Money : %d-%d [%d], Cha'
	DB	'rmRate : %d', 00H				; `string'
CONST	ENDS
;	COMDAT ??_C@_0BF@HBOOEPFC@?$CFs?5Mix?5?$CFs?5?$CL?$CFd?5Failed?$AA@
CONST	SEGMENT
??_C@_0BF@HBOOEPFC@?$CFs?5Mix?5?$CFs?5?$CL?$CFd?5Failed?$AA@ DB '%s Mix %'
	DB	's +%d Failed', 00H				; `string'
CONST	ENDS
;	COMDAT ??_C@_0BG@BMGOHCHC@?$CFs?5Mix?5?$CFs?5?$CL?$CFd?5Success?$AA@
CONST	SEGMENT
??_C@_0BG@BMGOHCHC@?$CFs?5Mix?5?$CFs?5?$CL?$CFd?5Success?$AA@ DB '%s Mix '
	DB	'%s +%d Success', 00H			; `string'
CONST	ENDS
;	COMDAT ??_C@_0EN@NDGFLPHI@?$FLPlusItemLevel?$FN?5?$FL?$CFs?$FN?$FL?$CFs?$FN?5CBMix?5S@
CONST	SEGMENT
??_C@_0EN@NDGFLPHI@?$FLPlusItemLevel?$FN?5?$FL?$CFs?$FN?$FL?$CFs?$FN?5CBMix?5S@ DB '['
	DB	'PlusItemLevel] [%s][%s] CBMix Success %d Money : %d-%d [%d], '
	DB	'CharmRate : %d', 00H			; `string'
CONST	ENDS
;	COMDAT ??_C@_0ED@HJNGDDFB@?$FLPlusItemLevel?$FN?5?$FL?$CFs?$FN?$FL?$CFs?$FN?5CBMix?5N@
CONST	SEGMENT
??_C@_0ED@HJNGDDFB@?$FLPlusItemLevel?$FN?5?$FL?$CFs?$FN?$FL?$CFs?$FN?5CBMix?5N@ DB '['
	DB	'PlusItemLevel] [%s][%s] CBMix Not Enough Money [%d] need zen '
	DB	'[%d]', 00H					; `string'
CONST	ENDS
;	COMDAT ??_C@_0CA@BGIGBHFB@?$FLPlusItemLevel?$FN?5Chaos?5Mix?5Start?$AA@
CONST	SEGMENT
??_C@_0CA@BGIGBHFB@?$FLPlusItemLevel?$FN?5Chaos?5Mix?5Start?$AA@ DB '[Plu'
	DB	'sItemLevel] Chaos Mix Start', 00H		; `string'
CONST	ENDS
;	COMDAT ??_C@_0DL@KGOODEAG@?$FLPlusItemLevel?$FN?5?$FL?$CFs?$FN?$FL?$CFs?$FN?5CBMix?5C@
CONST	SEGMENT
??_C@_0DL@KGOODEAG@?$FLPlusItemLevel?$FN?5?$FL?$CFs?$FN?$FL?$CFs?$FN?5CBMix?5C@ DB '['
	DB	'PlusItemLevel] [%s][%s] CBMix Charm of luck over 10% (%d)', 00H ; `string'
; Function compile flags: /Ogtp
CONST	ENDS
;	COMDAT ?PlusItemLevelChaosMix@CMixSystem@@QAEHPAUOBJECTSTRUCT@@H@Z
_TEXT	SEGMENT
_Plus14ItemCount$ = -312				; size = 4
_this$ = -308						; size = 4
_Plus11ItemCount$ = -304				; size = 4
_SoulGemCount$ = -300					; size = 4
_Plus12ItemCount$ = -296				; size = 4
_PlusItemPos$ = -292					; size = 4
tv1154 = -288						; size = 4
_SocketIndex$218091 = -288				; size = 1
_OtherItemFound$ = -288					; size = 4
_Plus9ItemCount$ = -284					; size = 4
_Plus10ItemCount$ = -280				; size = 4
_iCharmOfLuckCount$ = -276				; size = 4
_ChaosGemCount$ = -272					; size = 4
_BlessGemCount$ = -268					; size = 4
tv1369 = -264						; size = 4
tv1297 = -264						; size = 4
tv1296 = -264						; size = 4
tv1295 = -264						; size = 4
tv1294 = -264						; size = 4
_Dur$218088 = -264					; size = 4
_Plus13ItemCount$ = -264				; size = 4
_btMixLevel$ = -257					; size = 1
_Item$218087 = -256					; size = 212
_pResult$217998 = -44					; size = 16
_pResult$217992 = -44					; size = 16
_pMsg$ = -28						; size = 16
_SocketOption$218090 = -12				; size = 5
_iCharmOfAssemblyCount$ = -12				; size = 4
__$ArrayPad$ = -4					; size = 4
_lpObj$ = 8						; size = 4
_mixType$ = 12						; size = 4
?PlusItemLevelChaosMix@CMixSystem@@QAEHPAUOBJECTSTRUCT@@H@Z PROC ; CMixSystem::PlusItemLevelChaosMix, COMDAT
; _this$ = ecx

; 964  : {

  00000	55		 push	 ebp
  00001	8b ec		 mov	 ebp, esp
  00003	81 ec 38 01 00
	00		 sub	 esp, 312		; 00000138H
  00009	a1 00 00 00 00	 mov	 eax, DWORD PTR ___security_cookie
  0000e	33 c5		 xor	 eax, ebp
  00010	89 45 fc	 mov	 DWORD PTR __$ArrayPad$[ebp], eax
  00013	53		 push	 ebx
  00014	8b 5d 08	 mov	 ebx, DWORD PTR _lpObj$[ebp]
  00017	56		 push	 esi

; 965  : 	int ChaosGemCount = 0;

  00018	33 f6		 xor	 esi, esi
  0001a	57		 push	 edi
  0001b	89 8d cc fe ff
	ff		 mov	 DWORD PTR _this$[ebp], ecx
  00021	89 b5 f0 fe ff
	ff		 mov	 DWORD PTR _ChaosGemCount$[ebp], esi

; 966  : 	int BlessGemCount = 0;

  00027	89 b5 f4 fe ff
	ff		 mov	 DWORD PTR _BlessGemCount$[ebp], esi

; 967  : 	int SoulGemCount = 0;

  0002d	89 b5 d4 fe ff
	ff		 mov	 DWORD PTR _SoulGemCount$[ebp], esi

; 968  : 	int Plus9ItemCount = 0;

  00033	89 b5 e4 fe ff
	ff		 mov	 DWORD PTR _Plus9ItemCount$[ebp], esi

; 969  : 	int Plus10ItemCount = 0;

  00039	89 b5 e8 fe ff
	ff		 mov	 DWORD PTR _Plus10ItemCount$[ebp], esi

; 970  : 	int PlusItemPos = -1;

  0003f	c7 85 dc fe ff
	ff ff ff ff ff	 mov	 DWORD PTR _PlusItemPos$[ebp], -1

; 971  : 	int OtherItemFound = 0;

  00049	89 b5 e0 fe ff
	ff		 mov	 DWORD PTR _OtherItemFound$[ebp], esi

; 972  : 	int Plus11ItemCount = 0;

  0004f	89 b5 d0 fe ff
	ff		 mov	 DWORD PTR _Plus11ItemCount$[ebp], esi

; 973  : 	int Plus12ItemCount = 0;

  00055	89 b5 d8 fe ff
	ff		 mov	 DWORD PTR _Plus12ItemCount$[ebp], esi

; 974  : 	int Plus13ItemCount = 0;	//Season 5 +15 Items

  0005b	89 b5 f8 fe ff
	ff		 mov	 DWORD PTR _Plus13ItemCount$[ebp], esi

; 975  : 	int Plus14ItemCount = 0;	//Season 5 +15 Items

  00061	89 b5 c8 fe ff
	ff		 mov	 DWORD PTR _Plus14ItemCount$[ebp], esi

; 976  : 	int Plus15ItemCount = 0;	//Season 5 +15 Items
; 977  : 	int ExtraBlessGemCount = 0;
; 978  : 	int ExtraSoulGemCount = 0;
; 979  : 
; 980  : 	int iCharmOfAssemblyCount = 0; //season3.5 add-on

  00067	89 75 f4	 mov	 DWORD PTR _iCharmOfAssemblyCount$[ebp], esi

; 981  : 	int iCharmOfLuckCount = 0;

  0006a	89 b5 ec fe ff
	ff		 mov	 DWORD PTR _iCharmOfLuckCount$[ebp], esi

; 986  : 	{
; 987  : 		if ( lpObj->pChaosBox[n].IsItem() == TRUE )

  00070	33 ff		 xor	 edi, edi
$LL109@PlusItemLe:
  00072	8b 8b 78 0e 00
	00		 mov	 ecx, DWORD PTR [ebx+3704]
  00078	03 cf		 add	 ecx, edi
  0007a	e8 00 00 00 00	 call	 ?IsItem@CItem@@QAEHXZ	; CItem::IsItem
  0007f	83 f8 01	 cmp	 eax, 1
  00082	0f 85 fd 00 00
	00		 jne	 $LN108@PlusItemLe

; 988  : 		{
; 989  : 			if ( lpObj->pChaosBox[n].m_Type == ITEMGET(12,15) )

  00088	8b 83 78 0e 00
	00		 mov	 eax, DWORD PTR [ebx+3704]
  0008e	8d 0c 07	 lea	 ecx, DWORD PTR [edi+eax]
  00091	0f b7 41 06	 movzx	 eax, WORD PTR [ecx+6]
  00095	ba 0f 18 00 00	 mov	 edx, 6159		; 0000180fH
  0009a	66 3b c2	 cmp	 ax, dx
  0009d	75 0b		 jne	 SHORT $LN105@PlusItemLe

; 990  : 			{
; 991  : 				ChaosGemCount++;

  0009f	ff 85 f0 fe ff
	ff		 inc	 DWORD PTR _ChaosGemCount$[ebp]
  000a5	e9 db 00 00 00	 jmp	 $LN108@PlusItemLe
$LN105@PlusItemLe:

; 992  : 			}
; 993  : 			else if (  lpObj->pChaosBox[n].m_Type == ITEMGET(14,13) )

  000aa	ba 0d 1c 00 00	 mov	 edx, 7181		; 00001c0dH
  000af	66 3b c2	 cmp	 ax, dx
  000b2	75 0b		 jne	 SHORT $LN103@PlusItemLe

; 994  : 			{
; 995  : 				BlessGemCount++;

  000b4	ff 85 f4 fe ff
	ff		 inc	 DWORD PTR _BlessGemCount$[ebp]
  000ba	e9 c6 00 00 00	 jmp	 $LN108@PlusItemLe
$LN103@PlusItemLe:

; 996  : 			}
; 997  : 			else if (  lpObj->pChaosBox[n].m_Type == ITEMGET(14,14) )

  000bf	ba 0e 1c 00 00	 mov	 edx, 7182		; 00001c0eH
  000c4	66 3b c2	 cmp	 ax, dx
  000c7	75 0b		 jne	 SHORT $LN101@PlusItemLe

; 998  : 			{
; 999  : 				SoulGemCount++;

  000c9	ff 85 d4 fe ff
	ff		 inc	 DWORD PTR _SoulGemCount$[ebp]
  000cf	e9 b1 00 00 00	 jmp	 $LN108@PlusItemLe
$LN101@PlusItemLe:

; 1000 : 			}
; 1001 : 			else if ( lpObj->pChaosBox[n].m_Type == ITEMGET(14,53) )	// Charm Of Luck

  000d4	ba 35 1c 00 00	 mov	 edx, 7221		; 00001c35H
  000d9	66 3b c2	 cmp	 ax, dx
  000dc	75 13		 jne	 SHORT $LN99@PlusItemLe

; 1002 : 			{
; 1003 : 				iCharmOfLuckCount += (int)lpObj->pChaosBox[n].m_Durability;

  000de	d9 41 24	 fld	 DWORD PTR [ecx+36]
  000e1	e8 00 00 00 00	 call	 __ftol2_sse
  000e6	01 85 ec fe ff
	ff		 add	 DWORD PTR _iCharmOfLuckCount$[ebp], eax
  000ec	e9 94 00 00 00	 jmp	 $LN108@PlusItemLe
$LN99@PlusItemLe:

; 1004 : 			}
; 1005 : 			else if ( lpObj->pChaosBox[n].m_Type == ITEMGET(14,96) )	// Charm Of Assembly

  000f1	ba 60 1c 00 00	 mov	 edx, 7264		; 00001c60H
  000f6	66 3b c2	 cmp	 ax, dx
  000f9	75 08		 jne	 SHORT $LN97@PlusItemLe

; 1006 : 			{
; 1007 : 				iCharmOfAssemblyCount++;

  000fb	ff 45 f4	 inc	 DWORD PTR _iCharmOfAssemblyCount$[ebp]
  000fe	e9 82 00 00 00	 jmp	 $LN108@PlusItemLe
$LN97@PlusItemLe:

; 1008 : 			}
; 1009 : 			else if ( lpObj->pChaosBox[n].m_Level == 9 )

  00103	0f b7 41 08	 movzx	 eax, WORD PTR [ecx+8]
  00107	66 83 f8 09	 cmp	 ax, 9
  0010b	75 0e		 jne	 SHORT $LN95@PlusItemLe

; 1010 : 			{
; 1011 : 				Plus9ItemCount++;

  0010d	ff 85 e4 fe ff
	ff		 inc	 DWORD PTR _Plus9ItemCount$[ebp]

; 1012 : 				PlusItemPos = n;

  00113	89 b5 dc fe ff
	ff		 mov	 DWORD PTR _PlusItemPos$[ebp], esi
  00119	eb 6a		 jmp	 SHORT $LN108@PlusItemLe
$LN95@PlusItemLe:

; 1013 : 			}
; 1014 : 			else if ( lpObj->pChaosBox[n].m_Level == 10 )

  0011b	66 83 f8 0a	 cmp	 ax, 10			; 0000000aH
  0011f	75 0e		 jne	 SHORT $LN93@PlusItemLe

; 1015 : 			{
; 1016 : 				Plus10ItemCount++;

  00121	ff 85 e8 fe ff
	ff		 inc	 DWORD PTR _Plus10ItemCount$[ebp]

; 1017 : 				PlusItemPos = n;

  00127	89 b5 dc fe ff
	ff		 mov	 DWORD PTR _PlusItemPos$[ebp], esi
  0012d	eb 56		 jmp	 SHORT $LN108@PlusItemLe
$LN93@PlusItemLe:

; 1018 : 			}
; 1019 : 			else if ( lpObj->pChaosBox[n].m_Level == 11 )

  0012f	66 83 f8 0b	 cmp	 ax, 11			; 0000000bH
  00133	75 0e		 jne	 SHORT $LN91@PlusItemLe

; 1020 : 			{
; 1021 : 				Plus11ItemCount++;

  00135	ff 85 d0 fe ff
	ff		 inc	 DWORD PTR _Plus11ItemCount$[ebp]

; 1022 : 				PlusItemPos = n;

  0013b	89 b5 dc fe ff
	ff		 mov	 DWORD PTR _PlusItemPos$[ebp], esi
  00141	eb 42		 jmp	 SHORT $LN108@PlusItemLe
$LN91@PlusItemLe:

; 1023 : 			}
; 1024 : 			else if ( lpObj->pChaosBox[n].m_Level == 12 )

  00143	66 83 f8 0c	 cmp	 ax, 12			; 0000000cH
  00147	75 0e		 jne	 SHORT $LN89@PlusItemLe

; 1025 : 			{
; 1026 : 				Plus12ItemCount++;

  00149	ff 85 d8 fe ff
	ff		 inc	 DWORD PTR _Plus12ItemCount$[ebp]

; 1027 : 				PlusItemPos = n;

  0014f	89 b5 dc fe ff
	ff		 mov	 DWORD PTR _PlusItemPos$[ebp], esi
  00155	eb 2e		 jmp	 SHORT $LN108@PlusItemLe
$LN89@PlusItemLe:

; 1028 : 			}
; 1029 : 			//Season 5 +15 Items
; 1030 : 			else if ( lpObj->pChaosBox[n].m_Level == 13 )

  00157	66 83 f8 0d	 cmp	 ax, 13			; 0000000dH
  0015b	75 0e		 jne	 SHORT $LN87@PlusItemLe

; 1031 : 			{
; 1032 : 				Plus13ItemCount++;

  0015d	ff 85 f8 fe ff
	ff		 inc	 DWORD PTR _Plus13ItemCount$[ebp]

; 1033 : 				PlusItemPos = n;

  00163	89 b5 dc fe ff
	ff		 mov	 DWORD PTR _PlusItemPos$[ebp], esi
  00169	eb 1a		 jmp	 SHORT $LN108@PlusItemLe
$LN87@PlusItemLe:

; 1034 : 			}
; 1035 : 			else if ( lpObj->pChaosBox[n].m_Level == 14 )

  0016b	66 83 f8 0e	 cmp	 ax, 14			; 0000000eH
  0016f	75 0e		 jne	 SHORT $LN85@PlusItemLe

; 1036 : 			{
; 1037 : 				Plus14ItemCount++;

  00171	ff 85 c8 fe ff
	ff		 inc	 DWORD PTR _Plus14ItemCount$[ebp]

; 1038 : 				PlusItemPos = n;

  00177	89 b5 dc fe ff
	ff		 mov	 DWORD PTR _PlusItemPos$[ebp], esi

; 1039 : 			}
; 1040 : 			else

  0017d	eb 06		 jmp	 SHORT $LN108@PlusItemLe
$LN85@PlusItemLe:

; 1041 : 			{
; 1042 : 				OtherItemFound ++;

  0017f	ff 85 e0 fe ff
	ff		 inc	 DWORD PTR _OtherItemFound$[ebp]
$LN108@PlusItemLe:

; 982  : 	
; 983  : 	BYTE btItemLuckValue = 0;
; 984  : 
; 985  : 	for ( int n=0;n<CHAOS_BOX_SIZE;n++)

  00185	ba 01 00 00 00	 mov	 edx, 1
  0018a	81 c7 d4 00 00
	00		 add	 edi, 212		; 000000d4H
  00190	03 f2		 add	 esi, edx
  00192	81 ff 80 1a 00
	00		 cmp	 edi, 6784		; 00001a80H
  00198	0f 8c d4 fe ff
	ff		 jl	 $LL109@PlusItemLe

; 1043 : 			}
; 1044 : 		}
; 1045 : 	}
; 1046 : 
; 1047 : 	if ( iCharmOfLuckCount > 10 )

  0019e	83 bd ec fe ff
	ff 0a		 cmp	 DWORD PTR _iCharmOfLuckCount$[ebp], 10 ; 0000000aH
  001a5	7e 49		 jle	 SHORT $LN83@PlusItemLe

; 1048 : 	{
; 1049 : 		PMSG_CHAOSMIXRESULT pResult;
; 1050 : 		PHeadSetB((LPBYTE)&pResult, 0x86, sizeof(pResult));

  001a7	6a 10		 push	 16			; 00000010H
  001a9	8d 45 d4	 lea	 eax, DWORD PTR _pResult$217992[ebp]
  001ac	68 86 00 00 00	 push	 134			; 00000086H
  001b1	50		 push	 eax
  001b2	e8 00 00 00 00	 call	 ?PHeadSetB@@YAXPAEEH@Z	; PHeadSetB

; 1051 : 		LogAddTD("[PlusItemLevel] [%s][%s] CBMix Charm of luck over 10% (%d)", lpObj->AccountID, lpObj->Name, iCharmOfLuckCount);

  001b7	8b 8d ec fe ff
	ff		 mov	 ecx, DWORD PTR _iCharmOfLuckCount$[ebp]
  001bd	51		 push	 ecx
  001be	8d 53 77	 lea	 edx, DWORD PTR [ebx+119]
  001c1	52		 push	 edx
  001c2	8d 43 6c	 lea	 eax, DWORD PTR [ebx+108]
  001c5	50		 push	 eax
  001c6	68 00 00 00 00	 push	 OFFSET ??_C@_0DL@KGOODEAG@?$FLPlusItemLevel?$FN?5?$FL?$CFs?$FN?$FL?$CFs?$FN?5CBMix?5C@
  001cb	ff 15 00 00 00
	00		 call	 DWORD PTR ?LogAddTD@@3P6AXPADZZA ; LogAddTD

; 1052 : 		pResult.Result = 0xF0;
; 1053 : 		DataSend(lpObj->m_Index, (LPBYTE)&pResult, pResult.h.size);

  001d1	0f b6 4d d5	 movzx	 ecx, BYTE PTR _pResult$217992[ebp+1]
  001d5	8b 03		 mov	 eax, DWORD PTR [ebx]
  001d7	51		 push	 ecx
  001d8	8d 55 d4	 lea	 edx, DWORD PTR _pResult$217992[ebp]
  001db	52		 push	 edx
  001dc	50		 push	 eax
  001dd	c6 45 d7 f0	 mov	 BYTE PTR _pResult$217992[ebp+3], 240 ; 000000f0H
  001e1	e8 00 00 00 00	 call	 ?DataSend@@YAHHPAEK@Z	; DataSend
  001e6	83 c4 28	 add	 esp, 40			; 00000028H

; 1054 : 		lpObj->ChaosLock = FALSE;
; 1055 : 		return 0;

  001e9	33 c0		 xor	 eax, eax
  001eb	e9 42 09 00 00	 jmp	 $LN150@PlusItemLe
$LN83@PlusItemLe:

; 1056 : 	}
; 1057 : 
; 1058 : 	if ( OtherItemFound != FALSE )

  001f0	33 f6		 xor	 esi, esi
  001f2	39 b5 e0 fe ff
	ff		 cmp	 DWORD PTR _OtherItemFound$[ebp], esi

; 1059 : 	{
; 1060 : 		return FALSE;

  001f8	75 33		 jne	 SHORT $LN152@PlusItemLe

; 1061 : 	}
; 1062 : 
; 1063 : 	if(iCharmOfAssemblyCount > 1)

  001fa	39 55 f4	 cmp	 DWORD PTR _iCharmOfAssemblyCount$[ebp], edx
  001fd	7e 43		 jle	 SHORT $LN81@PlusItemLe

; 1064 : 	{
; 1065 : 		PMSG_CHAOSMIXRESULT pResult;
; 1066 : 		PHeadSetB((LPBYTE)&pResult, 0x86, sizeof(pResult));

  001ff	6a 10		 push	 16			; 00000010H
  00201	8d 4d d4	 lea	 ecx, DWORD PTR _pResult$217998[ebp]
  00204	68 86 00 00 00	 push	 134			; 00000086H
  00209	51		 push	 ecx
  0020a	e8 00 00 00 00	 call	 ?PHeadSetB@@YAXPAEEH@Z	; PHeadSetB

; 1067 : 		pResult.Result = CB_INCORRECT_MIX_ITEMS;
; 1068 : 		DataSend(lpObj->m_Index, (LPBYTE)&pResult, pResult.h.size);

  0020f	0f b6 55 d5	 movzx	 edx, BYTE PTR _pResult$217998[ebp+1]
  00213	8b 0b		 mov	 ecx, DWORD PTR [ebx]
  00215	52		 push	 edx
  00216	8d 45 d4	 lea	 eax, DWORD PTR _pResult$217998[ebp]
  00219	50		 push	 eax
  0021a	51		 push	 ecx
  0021b	c6 45 d7 07	 mov	 BYTE PTR _pResult$217998[ebp+3], 7
  0021f	e8 00 00 00 00	 call	 ?DataSend@@YAHHPAEK@Z	; DataSend
  00224	83 c4 18	 add	 esp, 24			; 00000018H

; 1069 : 		lpObj->ChaosLock = FALSE;

  00227	89 b3 88 0e 00
	00		 mov	 DWORD PTR [ebx+3720], esi
$LN152@PlusItemLe:

; 1070 : 		return 0;

  0022d	33 c0		 xor	 eax, eax

; 1435 : }

  0022f	5f		 pop	 edi
  00230	5e		 pop	 esi
  00231	5b		 pop	 ebx
  00232	8b 4d fc	 mov	 ecx, DWORD PTR __$ArrayPad$[ebp]
  00235	33 cd		 xor	 ecx, ebp
  00237	e8 00 00 00 00	 call	 @__security_check_cookie@4
  0023c	8b e5		 mov	 esp, ebp
  0023e	5d		 pop	 ebp
  0023f	c2 08 00	 ret	 8
$LN81@PlusItemLe:

; 1071 : 	}
; 1072 : 
; 1073 : 	lpObj->ChaosMoney = 0;
; 1074 : 	int MixType = 0;
; 1075 : 
; 1076 : 	if ( Plus9ItemCount == 1 && ChaosGemCount == 1 && BlessGemCount == 1 && SoulGemCount == 1 && Plus10ItemCount == 0 && Plus11ItemCount == 0 && Plus12ItemCount == 0 )

  00242	8b 85 e4 fe ff
	ff		 mov	 eax, DWORD PTR _Plus9ItemCount$[ebp]
  00248	8b 8d d4 fe ff
	ff		 mov	 ecx, DWORD PTR _SoulGemCount$[ebp]
  0024e	89 b3 80 0e 00
	00		 mov	 DWORD PTR [ebx+3712], esi
  00254	3b c2		 cmp	 eax, edx
  00256	75 48		 jne	 SHORT $LN133@PlusItemLe
  00258	39 95 f0 fe ff
	ff		 cmp	 DWORD PTR _ChaosGemCount$[ebp], edx
  0025e	75 40		 jne	 SHORT $LN133@PlusItemLe
  00260	39 95 f4 fe ff
	ff		 cmp	 DWORD PTR _BlessGemCount$[ebp], edx
  00266	75 38		 jne	 SHORT $LN133@PlusItemLe
  00268	3b ca		 cmp	 ecx, edx
  0026a	8b 95 e8 fe ff
	ff		 mov	 edx, DWORD PTR _Plus10ItemCount$[ebp]
  00270	75 34		 jne	 SHORT $LN147@PlusItemLe
  00272	3b d6		 cmp	 edx, esi
  00274	75 30		 jne	 SHORT $LN147@PlusItemLe
  00276	8b 85 d0 fe ff
	ff		 mov	 eax, DWORD PTR _Plus11ItemCount$[ebp]
  0027c	3b c6		 cmp	 eax, esi
  0027e	75 6f		 jne	 SHORT $LN145@PlusItemLe
  00280	39 b5 d8 fe ff
	ff		 cmp	 DWORD PTR _Plus12ItemCount$[ebp], esi
  00286	0f 85 a4 00 00
	00		 jne	 $LN138@PlusItemLe

; 1077 : 	{
; 1078 : 		MixType = 3;

  0028c	be 03 00 00 00	 mov	 esi, 3

; 1079 : 		lpObj->ChaosMoney = 2000000;

  00291	c7 83 80 0e 00
	00 80 84 1e 00	 mov	 DWORD PTR [ebx+3712], 2000000 ; 001e8480H

; 1080 : 		ExtraBlessGemCount = BlessGemCount - 1;
; 1081 : 		ExtraSoulGemCount = SoulGemCount - 1;

  0029b	e9 58 01 00 00	 jmp	 $LN143@PlusItemLe
$LN133@PlusItemLe:

; 1071 : 	}
; 1072 : 
; 1073 : 	lpObj->ChaosMoney = 0;
; 1074 : 	int MixType = 0;
; 1075 : 
; 1076 : 	if ( Plus9ItemCount == 1 && ChaosGemCount == 1 && BlessGemCount == 1 && SoulGemCount == 1 && Plus10ItemCount == 0 && Plus11ItemCount == 0 && Plus12ItemCount == 0 )

  002a0	8b 95 e8 fe ff
	ff		 mov	 edx, DWORD PTR _Plus10ItemCount$[ebp]
$LN147@PlusItemLe:

; 1082 : 	}
; 1083 : 	else if ( Plus10ItemCount == 1 && ChaosGemCount == 1 && BlessGemCount == 2 && SoulGemCount == 2 && Plus9ItemCount == 0 && Plus11ItemCount == 0 && Plus12ItemCount == 0 )

  002a6	83 fa 01	 cmp	 edx, 1
  002a9	75 3e		 jne	 SHORT $LN144@PlusItemLe
  002ab	39 95 f0 fe ff
	ff		 cmp	 DWORD PTR _ChaosGemCount$[ebp], edx
  002b1	75 36		 jne	 SHORT $LN144@PlusItemLe
  002b3	83 bd f4 fe ff
	ff 02		 cmp	 DWORD PTR _BlessGemCount$[ebp], 2
  002ba	75 2d		 jne	 SHORT $LN144@PlusItemLe
  002bc	83 f9 02	 cmp	 ecx, 2
  002bf	75 28		 jne	 SHORT $LN144@PlusItemLe
  002c1	85 c0		 test	 eax, eax
  002c3	75 24		 jne	 SHORT $LN144@PlusItemLe
  002c5	8b 85 d0 fe ff
	ff		 mov	 eax, DWORD PTR _Plus11ItemCount$[ebp]
  002cb	85 c0		 test	 eax, eax
  002cd	75 20		 jne	 SHORT $LN145@PlusItemLe
  002cf	39 b5 d8 fe ff
	ff		 cmp	 DWORD PTR _Plus12ItemCount$[ebp], esi
  002d5	75 59		 jne	 SHORT $LN138@PlusItemLe

; 1084 : 	{
; 1085 : 		MixType = 4;

  002d7	8d 72 03	 lea	 esi, DWORD PTR [edx+3]

; 1086 : 		lpObj->ChaosMoney = 4000000;

  002da	c7 83 80 0e 00
	00 00 09 3d 00	 mov	 DWORD PTR [ebx+3712], 4000000 ; 003d0900H

; 1087 : 		ExtraBlessGemCount = BlessGemCount - 2;
; 1088 : 		ExtraSoulGemCount = SoulGemCount - 2;

  002e4	e9 0f 01 00 00	 jmp	 $LN143@PlusItemLe
$LN144@PlusItemLe:

; 1082 : 	}
; 1083 : 	else if ( Plus10ItemCount == 1 && ChaosGemCount == 1 && BlessGemCount == 2 && SoulGemCount == 2 && Plus9ItemCount == 0 && Plus11ItemCount == 0 && Plus12ItemCount == 0 )

  002e9	8b 85 d0 fe ff
	ff		 mov	 eax, DWORD PTR _Plus11ItemCount$[ebp]
$LN145@PlusItemLe:

; 1089 : 	}
; 1090 : 	else if ( Plus11ItemCount == 1 && ChaosGemCount == 1 && BlessGemCount == 3 && SoulGemCount == 3 && Plus9ItemCount == 0 && Plus10ItemCount == 0 && Plus12ItemCount == 0 )

  002ef	83 f8 01	 cmp	 eax, 1
  002f2	75 3c		 jne	 SHORT $LN138@PlusItemLe
  002f4	39 85 f0 fe ff
	ff		 cmp	 DWORD PTR _ChaosGemCount$[ebp], eax
  002fa	75 34		 jne	 SHORT $LN138@PlusItemLe
  002fc	83 bd f4 fe ff
	ff 03		 cmp	 DWORD PTR _BlessGemCount$[ebp], 3
  00303	75 2b		 jne	 SHORT $LN138@PlusItemLe
  00305	83 f9 03	 cmp	 ecx, 3
  00308	75 26		 jne	 SHORT $LN138@PlusItemLe
  0030a	39 b5 e4 fe ff
	ff		 cmp	 DWORD PTR _Plus9ItemCount$[ebp], esi
  00310	75 1e		 jne	 SHORT $LN138@PlusItemLe
  00312	85 d2		 test	 edx, edx
  00314	75 1a		 jne	 SHORT $LN138@PlusItemLe
  00316	39 b5 d8 fe ff
	ff		 cmp	 DWORD PTR _Plus12ItemCount$[ebp], esi
  0031c	75 12		 jne	 SHORT $LN138@PlusItemLe

; 1091 : 	{
; 1092 : 		MixType = 22;

  0031e	8d 70 15	 lea	 esi, DWORD PTR [eax+21]

; 1093 : 		lpObj->ChaosMoney = 6000000;

  00321	c7 83 80 0e 00
	00 80 8d 5b 00	 mov	 DWORD PTR [ebx+3712], 6000000 ; 005b8d80H

; 1094 : 		ExtraBlessGemCount = BlessGemCount - 3;
; 1095 : 		ExtraSoulGemCount = SoulGemCount - 3;

  0032b	e9 c8 00 00 00	 jmp	 $LN143@PlusItemLe
$LN138@PlusItemLe:

; 1096 : 	}
; 1097 : 	else if ( Plus12ItemCount == 1 && ChaosGemCount == 1 && BlessGemCount == 4 && SoulGemCount == 4 && Plus9ItemCount == 0 && Plus10ItemCount == 0 && Plus11ItemCount == 0 )

  00330	83 bd d8 fe ff
	ff 01		 cmp	 DWORD PTR _Plus12ItemCount$[ebp], 1
  00337	75 39		 jne	 SHORT $LN140@PlusItemLe
  00339	83 bd f0 fe ff
	ff 01		 cmp	 DWORD PTR _ChaosGemCount$[ebp], 1
  00340	75 30		 jne	 SHORT $LN140@PlusItemLe
  00342	83 bd f4 fe ff
	ff 04		 cmp	 DWORD PTR _BlessGemCount$[ebp], 4
  00349	75 27		 jne	 SHORT $LN140@PlusItemLe
  0034b	83 f9 04	 cmp	 ecx, 4
  0034e	75 22		 jne	 SHORT $LN140@PlusItemLe
  00350	39 b5 e4 fe ff
	ff		 cmp	 DWORD PTR _Plus9ItemCount$[ebp], esi
  00356	75 1a		 jne	 SHORT $LN140@PlusItemLe
  00358	85 d2		 test	 edx, edx
  0035a	75 16		 jne	 SHORT $LN140@PlusItemLe
  0035c	85 c0		 test	 eax, eax
  0035e	75 12		 jne	 SHORT $LN140@PlusItemLe

; 1098 : 	{
; 1099 : 		MixType = 23;

  00360	8d 71 13	 lea	 esi, DWORD PTR [ecx+19]

; 1100 : 		lpObj->ChaosMoney = 8000000;

  00363	c7 83 80 0e 00
	00 00 12 7a 00	 mov	 DWORD PTR [ebx+3712], 8000000 ; 007a1200H

; 1101 : 		ExtraBlessGemCount = BlessGemCount - 4;
; 1102 : 		ExtraSoulGemCount = SoulGemCount - 4;

  0036d	e9 86 00 00 00	 jmp	 $LN143@PlusItemLe
$LN140@PlusItemLe:

; 1103 : 	}
; 1104 : 	//Season 5 +15 Items
; 1105 : 	else if ( Plus13ItemCount == 1 && ChaosGemCount == 1 && BlessGemCount == 5 && SoulGemCount == 5 && Plus9ItemCount == 0 && Plus10ItemCount == 0 && Plus11ItemCount == 0 && Plus14ItemCount == 0)

  00372	83 bd f8 fe ff
	ff 01		 cmp	 DWORD PTR _Plus13ItemCount$[ebp], 1
  00379	75 3e		 jne	 SHORT $LN141@PlusItemLe
  0037b	83 bd f0 fe ff
	ff 01		 cmp	 DWORD PTR _ChaosGemCount$[ebp], 1
  00382	75 35		 jne	 SHORT $LN141@PlusItemLe
  00384	83 bd f4 fe ff
	ff 05		 cmp	 DWORD PTR _BlessGemCount$[ebp], 5
  0038b	75 2c		 jne	 SHORT $LN141@PlusItemLe
  0038d	83 f9 05	 cmp	 ecx, 5
  00390	75 27		 jne	 SHORT $LN141@PlusItemLe
  00392	39 b5 e4 fe ff
	ff		 cmp	 DWORD PTR _Plus9ItemCount$[ebp], esi
  00398	75 1f		 jne	 SHORT $LN141@PlusItemLe
  0039a	85 d2		 test	 edx, edx
  0039c	75 1b		 jne	 SHORT $LN141@PlusItemLe
  0039e	85 c0		 test	 eax, eax
  003a0	75 17		 jne	 SHORT $LN141@PlusItemLe
  003a2	39 b5 c8 fe ff
	ff		 cmp	 DWORD PTR _Plus14ItemCount$[ebp], esi
  003a8	75 0f		 jne	 SHORT $LN141@PlusItemLe

; 1106 : 	{
; 1107 : 		MixType = 49;

  003aa	8d 71 2c	 lea	 esi, DWORD PTR [ecx+44]

; 1108 : 		lpObj->ChaosMoney = 10000000;

  003ad	c7 83 80 0e 00
	00 80 96 98 00	 mov	 DWORD PTR [ebx+3712], 10000000 ; 00989680H

; 1109 : 		ExtraBlessGemCount = BlessGemCount - 5;
; 1110 : 		ExtraSoulGemCount = SoulGemCount - 5;

  003b7	eb 3f		 jmp	 SHORT $LN143@PlusItemLe
$LN141@PlusItemLe:

; 1111 : 	}
; 1112 : 	else if ( Plus14ItemCount == 1 && ChaosGemCount == 1 && BlessGemCount == 6 && SoulGemCount == 6 && Plus9ItemCount == 0 && Plus10ItemCount == 0 && Plus11ItemCount == 0 && Plus15ItemCount == 0)

  003b9	83 bd c8 fe ff
	ff 01		 cmp	 DWORD PTR _Plus14ItemCount$[ebp], 1
  003c0	75 36		 jne	 SHORT $LN143@PlusItemLe
  003c2	83 bd f0 fe ff
	ff 01		 cmp	 DWORD PTR _ChaosGemCount$[ebp], 1
  003c9	75 2d		 jne	 SHORT $LN143@PlusItemLe
  003cb	83 bd f4 fe ff
	ff 06		 cmp	 DWORD PTR _BlessGemCount$[ebp], 6
  003d2	75 24		 jne	 SHORT $LN143@PlusItemLe
  003d4	83 f9 06	 cmp	 ecx, 6
  003d7	75 1f		 jne	 SHORT $LN143@PlusItemLe
  003d9	39 b5 e4 fe ff
	ff		 cmp	 DWORD PTR _Plus9ItemCount$[ebp], esi
  003df	75 17		 jne	 SHORT $LN143@PlusItemLe
  003e1	85 d2		 test	 edx, edx
  003e3	75 13		 jne	 SHORT $LN143@PlusItemLe
  003e5	85 c0		 test	 eax, eax
  003e7	75 0f		 jne	 SHORT $LN143@PlusItemLe

; 1113 : 	{
; 1114 : 		MixType = 50;

  003e9	be 32 00 00 00	 mov	 esi, 50			; 00000032H

; 1115 : 		lpObj->ChaosMoney = 12000000;

  003ee	c7 83 80 0e 00
	00 00 1b b7 00	 mov	 DWORD PTR [ebx+3712], 12000000 ; 00b71b00H
$LN143@PlusItemLe:

; 1116 : 		ExtraBlessGemCount = BlessGemCount - 6;
; 1117 : 		ExtraSoulGemCount = SoulGemCount - 6;
; 1118 : 	}
; 1119 : 
; 1120 : 	if ( MixType != mixType )

  003f8	3b 75 0c	 cmp	 esi, DWORD PTR _mixType$[ebp]

; 1121 : 	{
; 1122 : 		MixType = 0;
; 1123 : 	}
; 1124 : 
; 1125 : 	if ( MixType == 0 )

  003fb	0f 85 2c fe ff
	ff		 jne	 $LN152@PlusItemLe
  00401	85 f6		 test	 esi, esi

; 1126 : 	{
; 1127 : 		return FALSE;

  00403	0f 84 24 fe ff
	ff		 je	 $LN152@PlusItemLe

; 1128 : 	}
; 1129 : 
; 1130 : 	PMSG_CHAOSMIXRESULT pMsg;
; 1131 : 
; 1132 : 	PHeadSetB((LPBYTE)&pMsg.h, 0x86, sizeof(PMSG_CHAOSMIXRESULT));

  00409	6a 10		 push	 16			; 00000010H
  0040b	8d 55 e4	 lea	 edx, DWORD PTR _pMsg$[ebp]
  0040e	68 86 00 00 00	 push	 134			; 00000086H
  00413	52		 push	 edx
  00414	e8 00 00 00 00	 call	 ?PHeadSetB@@YAXPAEEH@Z	; PHeadSetB

; 1133 : 	pMsg.Result = CB_ERROR;
; 1134 : 	lpObj->ChaosLock = TRUE;
; 1135 : 	this->LogPlusItemLevelChaosItem(lpObj, MixType);

  00419	8b 8d cc fe ff
	ff		 mov	 ecx, DWORD PTR _this$[ebp]
  0041f	83 c4 0c	 add	 esp, 12			; 0000000cH
  00422	56		 push	 esi
  00423	53		 push	 ebx
  00424	c6 45 e7 00	 mov	 BYTE PTR _pMsg$[ebp+3], 0
  00428	c7 83 88 0e 00
	00 01 00 00 00	 mov	 DWORD PTR [ebx+3720], 1
  00432	e8 00 00 00 00	 call	 ?LogPlusItemLevelChaosItem@CMixSystem@@QAEXPAUOBJECTSTRUCT@@H@Z ; CMixSystem::LogPlusItemLevelChaosItem

; 1136 : 	LogAddTD("[PlusItemLevel] Chaos Mix Start");

  00437	68 00 00 00 00	 push	 OFFSET ??_C@_0CA@BGIGBHFB@?$FLPlusItemLevel?$FN?5Chaos?5Mix?5Start?$AA@
  0043c	ff 15 00 00 00
	00		 call	 DWORD PTR ?LogAddTD@@3P6AXPADZZA ; LogAddTD

; 1137 : 
; 1138 : 	int iChaosTaxMoney = (int)((__int64)lpObj->ChaosMoney * (__int64)g_CastleSiegeSync.GetTaxRateChaos(lpObj->m_Index) / (__int64)100);

  00442	8b 03		 mov	 eax, DWORD PTR [ebx]
  00444	83 c4 04	 add	 esp, 4
  00447	50		 push	 eax
  00448	b9 00 00 00 00	 mov	 ecx, OFFSET ?g_CastleSiegeSync@@3VCCastleSiegeSync@@A ; g_CastleSiegeSync
  0044d	e8 00 00 00 00	 call	 ?GetTaxRateChaos@CCastleSiegeSync@@QAEHH@Z ; CCastleSiegeSync::GetTaxRateChaos
  00452	f7 ab 80 0e 00
	00		 imul	 DWORD PTR [ebx+3712]
  00458	33 f6		 xor	 esi, esi
  0045a	56		 push	 esi
  0045b	6a 64		 push	 100			; 00000064H
  0045d	52		 push	 edx
  0045e	50		 push	 eax
  0045f	e8 00 00 00 00	 call	 __alldiv

; 1139 : 
; 1140 : 	if ( iChaosTaxMoney < 0 )

  00464	3b c6		 cmp	 eax, esi
  00466	7d 02		 jge	 SHORT $LN67@PlusItemLe

; 1141 : 	{
; 1142 : 		iChaosTaxMoney = 0;

  00468	33 c0		 xor	 eax, eax
$LN67@PlusItemLe:

; 1143 : 	}
; 1144 : 
; 1145 : 	lpObj->ChaosMoney += iChaosTaxMoney;

  0046a	01 83 80 0e 00
	00		 add	 DWORD PTR [ebx+3712], eax

; 1146 : 
; 1147 : 	if ( lpObj->ChaosMoney < 0 )

  00470	79 06		 jns	 SHORT $LN66@PlusItemLe

; 1148 : 	{
; 1149 : 		lpObj->ChaosMoney = 0;

  00472	89 b3 80 0e 00
	00		 mov	 DWORD PTR [ebx+3712], esi
$LN66@PlusItemLe:

; 1150 : 	}
; 1151 : 
; 1152 : 	if ( lpObj->Money < lpObj->ChaosMoney )

  00478	8b 8b f0 00 00
	00		 mov	 ecx, DWORD PTR [ebx+240]
  0047e	8b 93 80 0e 00
	00		 mov	 edx, DWORD PTR [ebx+3712]
  00484	3b ca		 cmp	 ecx, edx
  00486	7d 4b		 jge	 SHORT $LN65@PlusItemLe

; 1153 : 	{
; 1154 : 		LogAddTD("[PlusItemLevel] [%s][%s] CBMix Not Enough Money [%d] need zen [%d]", lpObj->AccountID, lpObj->Name, lpObj->Money, lpObj->ChaosMoney);

  00488	52		 push	 edx
  00489	51		 push	 ecx
  0048a	8d 4b 77	 lea	 ecx, DWORD PTR [ebx+119]
  0048d	51		 push	 ecx
  0048e	8d 53 6c	 lea	 edx, DWORD PTR [ebx+108]
  00491	52		 push	 edx
  00492	68 00 00 00 00	 push	 OFFSET ??_C@_0ED@HJNGDDFB@?$FLPlusItemLevel?$FN?5?$FL?$CFs?$FN?$FL?$CFs?$FN?5CBMix?5N@
  00497	ff 15 00 00 00
	00		 call	 DWORD PTR ?LogAddTD@@3P6AXPADZZA ; LogAddTD

; 1155 : 		pMsg.Result = CB_NOT_ENOUGH_ZEN;
; 1156 : 		DataSend(lpObj->m_Index, (LPBYTE)&pMsg, pMsg.h.size);

  0049d	0f b6 45 e5	 movzx	 eax, BYTE PTR _pMsg$[ebp+1]
  004a1	8b 13		 mov	 edx, DWORD PTR [ebx]
  004a3	50		 push	 eax
  004a4	8d 4d e4	 lea	 ecx, DWORD PTR _pMsg$[ebp]
  004a7	51		 push	 ecx
  004a8	52		 push	 edx
  004a9	c6 45 e7 02	 mov	 BYTE PTR _pMsg$[ebp+3], 2
  004ad	e8 00 00 00 00	 call	 ?DataSend@@YAHHPAEK@Z	; DataSend
  004b2	83 c4 20	 add	 esp, 32			; 00000020H

; 1157 : 		lpObj->ChaosLock = FALSE;

  004b5	89 b3 88 0e 00
	00		 mov	 DWORD PTR [ebx+3720], esi

; 1158 : 		return TRUE;

  004bb	b8 01 00 00 00	 mov	 eax, 1

; 1435 : }

  004c0	5f		 pop	 edi
  004c1	5e		 pop	 esi
  004c2	5b		 pop	 ebx
  004c3	8b 4d fc	 mov	 ecx, DWORD PTR __$ArrayPad$[ebp]
  004c6	33 cd		 xor	 ecx, ebp
  004c8	e8 00 00 00 00	 call	 @__security_check_cookie@4
  004cd	8b e5		 mov	 esp, ebp
  004cf	5d		 pop	 ebp
  004d0	c2 08 00	 ret	 8
$LN65@PlusItemLe:

; 1159 : 	}
; 1160 : 
; 1161 : 	lpObj->Money -= lpObj->ChaosMoney;

  004d3	2b ca		 sub	 ecx, edx
  004d5	89 8b f0 00 00
	00		 mov	 DWORD PTR [ebx+240], ecx

; 1162 : 	g_CastleSiegeSync.AddTributeMoney(iChaosTaxMoney);

  004db	50		 push	 eax
  004dc	b9 00 00 00 00	 mov	 ecx, OFFSET ?g_CastleSiegeSync@@3VCCastleSiegeSync@@A ; g_CastleSiegeSync
  004e1	e8 00 00 00 00	 call	 ?AddTributeMoney@CCastleSiegeSync@@QAEXH@Z ; CCastleSiegeSync::AddTributeMoney

; 1163 : 	GCMoneySend(lpObj->m_Index, lpObj->Money);

  004e6	8b 83 f0 00 00
	00		 mov	 eax, DWORD PTR [ebx+240]
  004ec	8b 0b		 mov	 ecx, DWORD PTR [ebx]
  004ee	50		 push	 eax
  004ef	51		 push	 ecx
  004f0	e8 00 00 00 00	 call	 ?GCMoneySend@@YAXHK@Z	; GCMoneySend

; 1164 : 
; 1165 : 	BYTE btMixLevel = 0; //season4.5 add-on (local31 ebp7c)
; 1166 : 	if( lpObj->pChaosBox[PlusItemPos].IsExtItem() == 1 ||
; 1167 : 		lpObj->pChaosBox[PlusItemPos].IsSetItem() == 1 ||
; 1168 : 		g_kItemSystemFor380.Is380Item(&lpObj->pChaosBox[PlusItemPos]) == 1)

  004f5	8b b5 dc fe ff
	ff		 mov	 esi, DWORD PTR _PlusItemPos$[ebp]
  004fb	8b 8b 78 0e 00
	00		 mov	 ecx, DWORD PTR [ebx+3704]
  00501	69 f6 d4 00 00
	00		 imul	 esi, 212		; 000000d4H
  00507	83 c4 08	 add	 esp, 8
  0050a	03 ce		 add	 ecx, esi
  0050c	e8 00 00 00 00	 call	 ?IsExtItem@CItem@@QAEHXZ ; CItem::IsExtItem
  00511	83 f8 01	 cmp	 eax, 1
  00514	74 31		 je	 SHORT $LN63@PlusItemLe
  00516	8b 8b 78 0e 00
	00		 mov	 ecx, DWORD PTR [ebx+3704]
  0051c	03 ce		 add	 ecx, esi
  0051e	e8 00 00 00 00	 call	 ?IsSetItem@CItem@@QAEHXZ ; CItem::IsSetItem
  00523	83 f8 01	 cmp	 eax, 1
  00526	74 1f		 je	 SHORT $LN63@PlusItemLe
  00528	8b 93 78 0e 00
	00		 mov	 edx, DWORD PTR [ebx+3704]
  0052e	03 d6		 add	 edx, esi
  00530	52		 push	 edx
  00531	b9 00 00 00 00	 mov	 ecx, OFFSET ?g_kItemSystemFor380@@3VCItemSystemFor380@@A ; g_kItemSystemFor380
  00536	e8 00 00 00 00	 call	 ?Is380Item@CItemSystemFor380@@QAEHPBVCItem@@@Z ; CItemSystemFor380::Is380Item

; 1171 : 	}
; 1172 : 	else
; 1173 : 	{
; 1174 : 		btMixLevel = 1;

  0053b	c6 85 ff fe ff
	ff 01		 mov	 BYTE PTR _btMixLevel$[ebp], 1
  00542	83 f8 01	 cmp	 eax, 1
  00545	75 07		 jne	 SHORT $LN62@PlusItemLe
$LN63@PlusItemLe:

; 1169 : 	{
; 1170 : 		btMixLevel = 2;

  00547	c6 85 ff fe ff
	ff 02		 mov	 BYTE PTR _btMixLevel$[ebp], 2
$LN62@PlusItemLe:

; 1175 : 	}
; 1176 : 
; 1177 : 	//season4.5 add-on
; 1178 : 	if(g_SocketOption.IsSocketOption(&lpObj->pChaosBox[PlusItemPos]) == 1)

  0054e	8b 83 78 0e 00
	00		 mov	 eax, DWORD PTR [ebx+3704]
  00554	03 c6		 add	 eax, esi
  00556	50		 push	 eax
  00557	b9 00 00 00 00	 mov	 ecx, OFFSET ?g_SocketOption@@3VCSocketOption@@A ; g_SocketOption
  0055c	e8 00 00 00 00	 call	 ?IsSocketOption@CSocketOption@@QAEEPAVCItem@@@Z ; CSocketOption::IsSocketOption

; 1179 : 	{
; 1180 : 		btMixLevel = 3;

  00561	b2 03		 mov	 dl, 3
  00563	3c 01		 cmp	 al, 1
  00565	74 06		 je	 SHORT $LN61@PlusItemLe
  00567	8a 95 ff fe ff
	ff		 mov	 dl, BYTE PTR _btMixLevel$[ebp]
$LN61@PlusItemLe:

; 1181 : 	}
; 1182 : 
; 1183 : 	//season4.5 add-on
; 1184 : 	if( (lpObj->pChaosBox[PlusItemPos].m_Type >= ITEMGET(12,0) && lpObj->pChaosBox[PlusItemPos].m_Type <= ITEMGET(12,6)) || 
; 1185 : 		(lpObj->pChaosBox[PlusItemPos].m_Type >= ITEMGET(12,36) && lpObj->pChaosBox[PlusItemPos].m_Type <= ITEMGET(12,43)) || 
; 1186 : 		lpObj->pChaosBox[PlusItemPos].m_Type == ITEMGET(13,30))

  0056d	8b 83 78 0e 00
	00		 mov	 eax, DWORD PTR [ebx+3704]
  00573	03 c6		 add	 eax, esi
  00575	89 85 e0 fe ff
	ff		 mov	 DWORD PTR tv1154[ebp], eax
  0057b	0f b7 40 06	 movzx	 eax, WORD PTR [eax+6]
  0057f	b9 00 18 00 00	 mov	 ecx, 6144		; 00001800H
  00584	66 3b c1	 cmp	 ax, cx
  00587	7c 0a		 jl	 SHORT $LN58@PlusItemLe
  00589	b9 06 18 00 00	 mov	 ecx, 6150		; 00001806H
  0058e	66 3b c1	 cmp	 ax, cx
  00591	7e 1e		 jle	 SHORT $LN59@PlusItemLe
$LN58@PlusItemLe:
  00593	b9 24 18 00 00	 mov	 ecx, 6180		; 00001824H
  00598	66 3b c1	 cmp	 ax, cx
  0059b	7c 0a		 jl	 SHORT $LN57@PlusItemLe
  0059d	b9 2b 18 00 00	 mov	 ecx, 6187		; 0000182bH
  005a2	66 3b c1	 cmp	 ax, cx
  005a5	7e 0a		 jle	 SHORT $LN59@PlusItemLe
$LN57@PlusItemLe:
  005a7	b9 1e 1a 00 00	 mov	 ecx, 6686		; 00001a1eH
  005ac	66 3b c1	 cmp	 ax, cx
  005af	75 0e		 jne	 SHORT $LN60@PlusItemLe
$LN59@PlusItemLe:

; 1187 : 	{
; 1188 : 		btMixLevel = 1;

  005b1	c6 85 ff fe ff
	ff 01		 mov	 BYTE PTR _btMixLevel$[ebp], 1
  005b8	0f b6 95 ff fe
	ff ff		 movzx	 edx, BYTE PTR _btMixLevel$[ebp]
$LN60@PlusItemLe:

; 1189 : 	}
; 1190 : 
; 1191 : #ifdef NEWWINGS_2_5
; 1192 : 	if( IS_NEWWINGS_2_5(lpObj->pChaosBox[PlusItemPos].m_Type) )

  005bf	b9 ba 18 00 00	 mov	 ecx, 6330		; 000018baH
  005c4	66 3b c1	 cmp	 ax, cx
  005c7	7c 2d		 jl	 SHORT $LN125@PlusItemLe
  005c9	89 95 f8 fe ff
	ff		 mov	 DWORD PTR tv1297[ebp], edx
  005cf	33 d2		 xor	 edx, edx
  005d1	b9 bc 18 00 00	 mov	 ecx, 6332		; 000018bcH
  005d6	66 3b c1	 cmp	 ax, cx
  005d9	0f 9e c2	 setle	 dl
  005dc	8b ca		 mov	 ecx, edx
  005de	8b 95 f8 fe ff
	ff		 mov	 edx, DWORD PTR tv1297[ebp]
  005e4	85 c9		 test	 ecx, ecx
  005e6	74 0e		 je	 SHORT $LN125@PlusItemLe

; 1193 : 	{
; 1194 : 		btMixLevel = 1;

  005e8	c6 85 ff fe ff
	ff 01		 mov	 BYTE PTR _btMixLevel$[ebp], 1
  005ef	0f b6 95 ff fe
	ff ff		 movzx	 edx, BYTE PTR _btMixLevel$[ebp]
$LN125@PlusItemLe:

; 1195 : 	}
; 1196 : #endif
; 1197 : 
; 1198 : #ifdef NEWWINGS_4
; 1199 : 	if( IS_NEWWINGS_4(lpObj->pChaosBox[PlusItemPos].m_Type) )

  005f6	b9 b4 18 00 00	 mov	 ecx, 6324		; 000018b4H
  005fb	66 3b c1	 cmp	 ax, cx
  005fe	7c 2d		 jl	 SHORT $LN126@PlusItemLe
  00600	89 95 f8 fe ff
	ff		 mov	 DWORD PTR tv1296[ebp], edx
  00606	33 d2		 xor	 edx, edx
  00608	b9 b9 18 00 00	 mov	 ecx, 6329		; 000018b9H
  0060d	66 3b c1	 cmp	 ax, cx
  00610	0f 9e c2	 setle	 dl
  00613	8b ca		 mov	 ecx, edx
  00615	8b 95 f8 fe ff
	ff		 mov	 edx, DWORD PTR tv1296[ebp]
  0061b	85 c9		 test	 ecx, ecx
  0061d	74 0e		 je	 SHORT $LN126@PlusItemLe

; 1200 : 	{
; 1201 : 		btMixLevel = 1;

  0061f	c6 85 ff fe ff
	ff 01		 mov	 BYTE PTR _btMixLevel$[ebp], 1
  00626	0f b6 95 ff fe
	ff ff		 movzx	 edx, BYTE PTR _btMixLevel$[ebp]
$LN126@PlusItemLe:

; 1202 : 	}
; 1203 : #endif
; 1204 : 
; 1205 : #ifdef NEWWINGS_5
; 1206 : 	if( IS_NEWWINGS_5(lpObj->pChaosBox[PlusItemPos].m_Type) )

  0062d	b9 bd 18 00 00	 mov	 ecx, 6333		; 000018bdH
  00632	66 3b c1	 cmp	 ax, cx
  00635	7c 2d		 jl	 SHORT $LN127@PlusItemLe
  00637	89 95 f8 fe ff
	ff		 mov	 DWORD PTR tv1295[ebp], edx
  0063d	33 d2		 xor	 edx, edx
  0063f	b9 c2 18 00 00	 mov	 ecx, 6338		; 000018c2H
  00644	66 3b c1	 cmp	 ax, cx
  00647	0f 9e c2	 setle	 dl
  0064a	8b ca		 mov	 ecx, edx
  0064c	8b 95 f8 fe ff
	ff		 mov	 edx, DWORD PTR tv1295[ebp]
  00652	85 c9		 test	 ecx, ecx
  00654	74 0e		 je	 SHORT $LN127@PlusItemLe

; 1207 : 	{
; 1208 : 		btMixLevel = 1;

  00656	c6 85 ff fe ff
	ff 01		 mov	 BYTE PTR _btMixLevel$[ebp], 1
  0065d	0f b6 95 ff fe
	ff ff		 movzx	 edx, BYTE PTR _btMixLevel$[ebp]
$LN127@PlusItemLe:

; 1209 : 	}
; 1210 : #endif
; 1211 : #ifdef NEWWINGS_6
; 1212 : 	if( IS_NEWWINGS_6(lpObj->pChaosBox[PlusItemPos].m_Type) )

  00664	b9 c3 18 00 00	 mov	 ecx, 6339		; 000018c3H
  00669	66 3b c1	 cmp	 ax, cx
  0066c	7c 2c		 jl	 SHORT $LN128@PlusItemLe
  0066e	89 95 f8 fe ff
	ff		 mov	 DWORD PTR tv1294[ebp], edx
  00674	33 d2		 xor	 edx, edx
  00676	b9 dc 18 00 00	 mov	 ecx, 6364		; 000018dcH
  0067b	66 3b c1	 cmp	 ax, cx
  0067e	0f 9e c2	 setle	 dl
  00681	8b c2		 mov	 eax, edx
  00683	8b 95 f8 fe ff
	ff		 mov	 edx, DWORD PTR tv1294[ebp]
  00689	85 c0		 test	 eax, eax
  0068b	74 0d		 je	 SHORT $LN128@PlusItemLe

; 1213 : 	{
; 1214 : 		btMixLevel = 1;

  0068d	c6 85 ff fe ff
	ff 01		 mov	 BYTE PTR _btMixLevel$[ebp], 1
  00694	8a 95 ff fe ff
	ff		 mov	 dl, BYTE PTR _btMixLevel$[ebp]
$LN128@PlusItemLe:

; 1215 : 	}
; 1216 : #endif
; 1217 : 	if ( lpObj->pChaosBox[PlusItemPos].m_Level == 9 )

  0069a	8b 8d e0 fe ff
	ff		 mov	 ecx, DWORD PTR tv1154[ebp]
  006a0	0f b7 41 08	 movzx	 eax, WORD PTR [ecx+8]
  006a4	66 83 f8 09	 cmp	 ax, 9
  006a8	75 45		 jne	 SHORT $LN52@PlusItemLe

; 1218 : 	{
; 1219 : 		if(btMixLevel == 1) //season4.5 add-on

  006aa	80 fa 01	 cmp	 dl, 1
  006ad	75 11		 jne	 SHORT $LN51@PlusItemLe

; 1220 : 		{
; 1221 : 			//int ZtMixNormal10SuccessRate = GetPrivateProfileInt("ChaosMix","MixNormal10SuccessRate",60,"..\\Data\\ZtData\\CommonServer.ini");
; 1222 : 			lpObj->ChaosSuccessRate = ZtConfig.CommonServer.ZtMixNormal10SuccessRate;

  006af	8b 15 34 00 00
	00		 mov	 edx, DWORD PTR ?ZtConfig@@3VcZtConfigs@@A+52
  006b5	89 93 84 0e 00
	00		 mov	 DWORD PTR [ebx+3716], edx
  006bb	e9 93 01 00 00	 jmp	 $LN11@PlusItemLe
$LN51@PlusItemLe:

; 1223 : 		}
; 1224 : 		else if(btMixLevel == 2) //season4.5 add-on

  006c0	80 fa 02	 cmp	 dl, 2
  006c3	75 10		 jne	 SHORT $LN49@PlusItemLe

; 1225 : 		{
; 1226 : 			//int ZtMix380AncExc10SuccessRate = GetPrivateProfileInt("ChaosMix","Mix380AncExc10SuccessRate",50,"..\\Data\\ZtData\\CommonServer.ini");
; 1227 : 			lpObj->ChaosSuccessRate = ZtConfig.CommonServer.ZtMix380AncExc10SuccessRate;

  006c5	a1 38 00 00 00	 mov	 eax, DWORD PTR ?ZtConfig@@3VcZtConfigs@@A+56
  006ca	89 83 84 0e 00
	00		 mov	 DWORD PTR [ebx+3716], eax
  006d0	e9 7e 01 00 00	 jmp	 $LN11@PlusItemLe
$LN49@PlusItemLe:

; 1228 : 		}
; 1229 : 		else if(btMixLevel == 3) //season4.5 add-on

  006d5	80 fa 03	 cmp	 dl, 3
  006d8	0f 85 75 01 00
	00		 jne	 $LN11@PlusItemLe

; 1230 : 		{
; 1231 : 			//int ZtMixSocket10SuccessRate = GetPrivateProfileInt("ChaosMix","MixSocket10SuccessRate",40,"..\\Data\\ZtData\\CommonServer.ini");
; 1232 : 			lpObj->ChaosSuccessRate = ZtConfig.CommonServer.ZtMixSocket10SuccessRate;

  006de	8b 15 3c 00 00
	00		 mov	 edx, DWORD PTR ?ZtConfig@@3VcZtConfigs@@A+60
  006e4	89 93 84 0e 00
	00		 mov	 DWORD PTR [ebx+3716], edx

; 1233 : 		}
; 1234 : 	}

  006ea	e9 64 01 00 00	 jmp	 $LN11@PlusItemLe
$LN52@PlusItemLe:

; 1235 : 	else if ( lpObj->pChaosBox[PlusItemPos].m_Level == 10) //season4 changed

  006ef	66 83 f8 0a	 cmp	 ax, 10			; 0000000aH
  006f3	75 44		 jne	 SHORT $LN45@PlusItemLe

; 1236 : 	{
; 1237 : 		if(btMixLevel == 1) //season4.5 add-on

  006f5	80 fa 01	 cmp	 dl, 1
  006f8	75 10		 jne	 SHORT $LN44@PlusItemLe

; 1238 : 		{
; 1239 : 			//int ZtMixNormal11SuccessRate = GetPrivateProfileInt("ChaosMix","MixNormal11SuccessRate",60,"..\\Data\\ZtData\\CommonServer.ini");
; 1240 : 			lpObj->ChaosSuccessRate = ZtConfig.CommonServer.ZtMixNormal11SuccessRate;

  006fa	a1 40 00 00 00	 mov	 eax, DWORD PTR ?ZtConfig@@3VcZtConfigs@@A+64
  006ff	89 83 84 0e 00
	00		 mov	 DWORD PTR [ebx+3716], eax
  00705	e9 49 01 00 00	 jmp	 $LN11@PlusItemLe
$LN44@PlusItemLe:

; 1241 : 		}
; 1242 : 		else if(btMixLevel == 2) //season4.5 add-on

  0070a	80 fa 02	 cmp	 dl, 2
  0070d	75 11		 jne	 SHORT $LN42@PlusItemLe

; 1243 : 		{
; 1244 : 			//int ZtMix380AncExc11SuccessRate = GetPrivateProfileInt("ChaosMix","Mix380AncExc11SuccessRate",50,"..\\Data\\ZtData\\CommonServer.ini");
; 1245 : 			lpObj->ChaosSuccessRate = ZtConfig.CommonServer.ZtMix380AncExc11SuccessRate;

  0070f	8b 15 44 00 00
	00		 mov	 edx, DWORD PTR ?ZtConfig@@3VcZtConfigs@@A+68
  00715	89 93 84 0e 00
	00		 mov	 DWORD PTR [ebx+3716], edx
  0071b	e9 33 01 00 00	 jmp	 $LN11@PlusItemLe
$LN42@PlusItemLe:

; 1246 : 		}
; 1247 : 		else if(btMixLevel == 3) //season4.5 add-on

  00720	80 fa 03	 cmp	 dl, 3
  00723	0f 85 2a 01 00
	00		 jne	 $LN11@PlusItemLe

; 1248 : 		{
; 1249 : 			//int ZtMixSocket11SuccessRate = GetPrivateProfileInt("ChaosMix","MixSocket11SuccessRate",40,"..\\Data\\ZtData\\CommonServer.ini");
; 1250 : 			lpObj->ChaosSuccessRate = ZtConfig.CommonServer.ZtMixSocket11SuccessRate;

  00729	a1 48 00 00 00	 mov	 eax, DWORD PTR ?ZtConfig@@3VcZtConfigs@@A+72
  0072e	89 83 84 0e 00
	00		 mov	 DWORD PTR [ebx+3716], eax

; 1251 : 		}
; 1252 : 	}

  00734	e9 1a 01 00 00	 jmp	 $LN11@PlusItemLe
$LN45@PlusItemLe:

; 1253 : 	else if (lpObj->pChaosBox[PlusItemPos].m_Level == 11) //season4 changed

  00739	66 83 f8 0b	 cmp	 ax, 11			; 0000000bH
  0073d	75 45		 jne	 SHORT $LN38@PlusItemLe

; 1254 : 	{
; 1255 : 		if(btMixLevel == 1) //season4.5 add-on

  0073f	80 fa 01	 cmp	 dl, 1
  00742	75 11		 jne	 SHORT $LN37@PlusItemLe

; 1256 : 		{
; 1257 : 			//int ZtMixNormal12SuccessRate = GetPrivateProfileInt("ChaosMix","MixNormal12SuccessRate",60,"..\\Data\\ZtData\\CommonServer.ini");
; 1258 : 			lpObj->ChaosSuccessRate = ZtConfig.CommonServer.ZtMixNormal12SuccessRate;

  00744	8b 15 4c 00 00
	00		 mov	 edx, DWORD PTR ?ZtConfig@@3VcZtConfigs@@A+76
  0074a	89 93 84 0e 00
	00		 mov	 DWORD PTR [ebx+3716], edx
  00750	e9 fe 00 00 00	 jmp	 $LN11@PlusItemLe
$LN37@PlusItemLe:

; 1259 : 		}
; 1260 : 		else if(btMixLevel == 2) //season4.5 add-on

  00755	80 fa 02	 cmp	 dl, 2
  00758	75 10		 jne	 SHORT $LN35@PlusItemLe

; 1261 : 		{
; 1262 : 			//int ZtMix380AncExc12SuccessRate = GetPrivateProfileInt("ChaosMix","Mix380AncExc12SuccessRate",50,"..\\Data\\ZtData\\CommonServer.ini");
; 1263 : 			lpObj->ChaosSuccessRate = ZtConfig.CommonServer.ZtMix380AncExc12SuccessRate;

  0075a	a1 50 00 00 00	 mov	 eax, DWORD PTR ?ZtConfig@@3VcZtConfigs@@A+80
  0075f	89 83 84 0e 00
	00		 mov	 DWORD PTR [ebx+3716], eax
  00765	e9 e9 00 00 00	 jmp	 $LN11@PlusItemLe
$LN35@PlusItemLe:

; 1264 : 		}
; 1265 : 		else if(btMixLevel == 3) //season4.5 add-on

  0076a	80 fa 03	 cmp	 dl, 3
  0076d	0f 85 e0 00 00
	00		 jne	 $LN11@PlusItemLe

; 1266 : 		{
; 1267 : 			//int ZtMixSocket12SuccessRate = GetPrivateProfileInt("ChaosMix","MixSocket12SuccessRate",40,"..\\Data\\ZtData\\CommonServer.ini");
; 1268 : 			lpObj->ChaosSuccessRate = ZtConfig.CommonServer.ZtMixSocket12SuccessRate;

  00773	8b 15 54 00 00
	00		 mov	 edx, DWORD PTR ?ZtConfig@@3VcZtConfigs@@A+84
  00779	89 93 84 0e 00
	00		 mov	 DWORD PTR [ebx+3716], edx

; 1269 : 		}
; 1270 : 	}

  0077f	e9 cf 00 00 00	 jmp	 $LN11@PlusItemLe
$LN38@PlusItemLe:

; 1271 : 	else if ( lpObj->pChaosBox[PlusItemPos].m_Level == 12) //season4 changed

  00784	66 83 f8 0c	 cmp	 ax, 12			; 0000000cH
  00788	75 44		 jne	 SHORT $LN31@PlusItemLe

; 1272 : 	{
; 1273 : 		if(btMixLevel == 1) //season4.5 add-on

  0078a	80 fa 01	 cmp	 dl, 1
  0078d	75 10		 jne	 SHORT $LN30@PlusItemLe

; 1274 : 		{
; 1275 : 			//int ZtMixNormal13SuccessRate = GetPrivateProfileInt("ChaosMix","MixNormal13SuccessRate",55,"..\\Data\\ZtData\\CommonServer.ini");
; 1276 : 			lpObj->ChaosSuccessRate = ZtConfig.CommonServer.ZtMixNormal13SuccessRate;

  0078f	a1 58 00 00 00	 mov	 eax, DWORD PTR ?ZtConfig@@3VcZtConfigs@@A+88
  00794	89 83 84 0e 00
	00		 mov	 DWORD PTR [ebx+3716], eax
  0079a	e9 b4 00 00 00	 jmp	 $LN11@PlusItemLe
$LN30@PlusItemLe:

; 1277 : 		}
; 1278 : 		else if(btMixLevel == 2) //season4.5 add-on

  0079f	80 fa 02	 cmp	 dl, 2
  007a2	75 11		 jne	 SHORT $LN28@PlusItemLe

; 1279 : 		{
; 1280 : 			//int ZtMix380AncExc13SuccessRate = GetPrivateProfileInt("ChaosMix","Mix380AncExc13SuccessRate",50,"..\\Data\\ZtData\\CommonServer.ini");
; 1281 : 			lpObj->ChaosSuccessRate = ZtConfig.CommonServer.ZtMix380AncExc13SuccessRate;

  007a4	8b 15 5c 00 00
	00		 mov	 edx, DWORD PTR ?ZtConfig@@3VcZtConfigs@@A+92
  007aa	89 93 84 0e 00
	00		 mov	 DWORD PTR [ebx+3716], edx
  007b0	e9 9e 00 00 00	 jmp	 $LN11@PlusItemLe
$LN28@PlusItemLe:

; 1282 : 		}
; 1283 : 		else if(btMixLevel == 3) //season4.5 add-on

  007b5	80 fa 03	 cmp	 dl, 3
  007b8	0f 85 95 00 00
	00		 jne	 $LN11@PlusItemLe

; 1284 : 		{
; 1285 : 			//int ZtMixSocket13SuccessRate = GetPrivateProfileInt("ChaosMix","MixSocket13SuccessRate",35,"..\\Data\\ZtData\\CommonServer.ini");
; 1286 : 			lpObj->ChaosSuccessRate = ZtConfig.CommonServer.ZtMixSocket13SuccessRate;

  007be	a1 60 00 00 00	 mov	 eax, DWORD PTR ?ZtConfig@@3VcZtConfigs@@A+96
  007c3	89 83 84 0e 00
	00		 mov	 DWORD PTR [ebx+3716], eax

; 1287 : 		}
; 1288 : 	}

  007c9	e9 85 00 00 00	 jmp	 $LN11@PlusItemLe
$LN31@PlusItemLe:

; 1289 : 	else if ( lpObj->pChaosBox[PlusItemPos].m_Level == 13) //Season 5 +15 Items

  007ce	66 83 f8 0d	 cmp	 ax, 13			; 0000000dH
  007d2	75 38		 jne	 SHORT $LN24@PlusItemLe

; 1290 : 	{
; 1291 : 		if(btMixLevel == 1) 

  007d4	80 fa 01	 cmp	 dl, 1
  007d7	75 0e		 jne	 SHORT $LN23@PlusItemLe

; 1292 : 		{
; 1293 : 			lpObj->ChaosSuccessRate = ZtConfig.CommonServer.ZtMixNormal14SuccessRate;

  007d9	8b 15 64 00 00
	00		 mov	 edx, DWORD PTR ?ZtConfig@@3VcZtConfigs@@A+100
  007df	89 93 84 0e 00
	00		 mov	 DWORD PTR [ebx+3716], edx
  007e5	eb 6c		 jmp	 SHORT $LN11@PlusItemLe
$LN23@PlusItemLe:

; 1294 : 		}
; 1295 : 		else if(btMixLevel == 2)

  007e7	80 fa 02	 cmp	 dl, 2
  007ea	75 0d		 jne	 SHORT $LN21@PlusItemLe

; 1296 : 		{
; 1297 : 			lpObj->ChaosSuccessRate = ZtConfig.CommonServer.ZtMix380AncExc14SuccessRate;

  007ec	a1 68 00 00 00	 mov	 eax, DWORD PTR ?ZtConfig@@3VcZtConfigs@@A+104
  007f1	89 83 84 0e 00
	00		 mov	 DWORD PTR [ebx+3716], eax
  007f7	eb 5a		 jmp	 SHORT $LN11@PlusItemLe
$LN21@PlusItemLe:

; 1298 : 		}
; 1299 : 		else if(btMixLevel == 3) 

  007f9	80 fa 03	 cmp	 dl, 3
  007fc	75 55		 jne	 SHORT $LN11@PlusItemLe

; 1300 : 		{
; 1301 : 			lpObj->ChaosSuccessRate = ZtConfig.CommonServer.ZtMixSocket14SuccessRate;

  007fe	8b 15 6c 00 00
	00		 mov	 edx, DWORD PTR ?ZtConfig@@3VcZtConfigs@@A+108
  00804	89 93 84 0e 00
	00		 mov	 DWORD PTR [ebx+3716], edx

; 1302 : 		}
; 1303 : 	}

  0080a	eb 47		 jmp	 SHORT $LN11@PlusItemLe
$LN24@PlusItemLe:

; 1304 : 	else if ( lpObj->pChaosBox[PlusItemPos].m_Level == 14) //Season 5 +15 Items

  0080c	66 83 f8 0e	 cmp	 ax, 14			; 0000000eH
  00810	75 37		 jne	 SHORT $LN17@PlusItemLe

; 1305 : 	{
; 1306 : 		if(btMixLevel == 1) 

  00812	80 fa 01	 cmp	 dl, 1
  00815	75 0d		 jne	 SHORT $LN16@PlusItemLe

; 1307 : 		{
; 1308 : 			lpObj->ChaosSuccessRate = ZtConfig.CommonServer.ZtMixNormal15SuccessRate;

  00817	a1 70 00 00 00	 mov	 eax, DWORD PTR ?ZtConfig@@3VcZtConfigs@@A+112
  0081c	89 83 84 0e 00
	00		 mov	 DWORD PTR [ebx+3716], eax
  00822	eb 2f		 jmp	 SHORT $LN11@PlusItemLe
$LN16@PlusItemLe:

; 1309 : 		}
; 1310 : 		else if(btMixLevel == 2)

  00824	80 fa 02	 cmp	 dl, 2
  00827	75 0e		 jne	 SHORT $LN14@PlusItemLe

; 1311 : 		{
; 1312 : 			lpObj->ChaosSuccessRate = ZtConfig.CommonServer.ZtMix380AncExc15SuccessRate;

  00829	8b 15 74 00 00
	00		 mov	 edx, DWORD PTR ?ZtConfig@@3VcZtConfigs@@A+116
  0082f	89 93 84 0e 00
	00		 mov	 DWORD PTR [ebx+3716], edx
  00835	eb 1c		 jmp	 SHORT $LN11@PlusItemLe
$LN14@PlusItemLe:

; 1313 : 		}
; 1314 : 		else if(btMixLevel == 3) 

  00837	80 fa 03	 cmp	 dl, 3
  0083a	75 17		 jne	 SHORT $LN11@PlusItemLe

; 1315 : 		{
; 1316 : 			lpObj->ChaosSuccessRate = ZtConfig.CommonServer.ZtMixSocket15SuccessRate;

  0083c	a1 78 00 00 00	 mov	 eax, DWORD PTR ?ZtConfig@@3VcZtConfigs@@A+120
  00841	89 83 84 0e 00
	00		 mov	 DWORD PTR [ebx+3716], eax

; 1317 : 		}
; 1318 : 	}
; 1319 : 	else

  00847	eb 0a		 jmp	 SHORT $LN11@PlusItemLe
$LN17@PlusItemLe:

; 1320 : 	{
; 1321 : 		lpObj->ChaosSuccessRate = 45;

  00849	c7 83 84 0e 00
	00 2d 00 00 00	 mov	 DWORD PTR [ebx+3716], 45 ; 0000002dH
$LN11@PlusItemLe:

; 1322 : 	}
; 1323 : 
; 1324 : 	if(lpObj->pChaosBox[PlusItemPos].m_Option2 != 0) //season4.5 add-on

  00853	80 b9 95 00 00
	00 00		 cmp	 BYTE PTR [ecx+149], 0
  0085a	74 0c		 je	 SHORT $LN10@PlusItemLe

; 1325 : 	{
; 1326 : 		//int ZtMixLuckOptRateAdd = GetPrivateProfileInt("ChaosMix","MixLuckOptRateAdd",20,"..\\Data\\ZtData\\CommonServer.ini");
; 1327 : 		lpObj->ChaosSuccessRate += ZtConfig.CommonServer.ZtMixLuckOptRateAdd;

  0085c	8b 0d 7c 00 00
	00		 mov	 ecx, DWORD PTR ?ZtConfig@@3VcZtConfigs@@A+124
  00862	01 8b 84 0e 00
	00		 add	 DWORD PTR [ebx+3716], ecx
$LN10@PlusItemLe:

; 1328 : 	}
; 1329 : 
; 1330 : 	if ( lpObj->ChaosSuccessRate > ZtConfig.CommonServer.ZtMixMaxSuccessRate )

  00868	a1 80 00 00 00	 mov	 eax, DWORD PTR ?ZtConfig@@3VcZtConfigs@@A+128
  0086d	39 83 84 0e 00
	00		 cmp	 DWORD PTR [ebx+3716], eax
  00873	7e 06		 jle	 SHORT $LN9@PlusItemLe

; 1331 : 	{
; 1332 : 		//int ZtMixMaxSuccessRate = GetPrivateProfileInt("ChaosMix","MixMaxSuccessRate",75,"..\\Data\\ZtData\\CommonServer.ini");
; 1333 : 		lpObj->ChaosSuccessRate = ZtConfig.CommonServer.ZtMixMaxSuccessRate;

  00875	89 83 84 0e 00
	00		 mov	 DWORD PTR [ebx+3716], eax
$LN9@PlusItemLe:

; 1334 : 	}
; 1335 : 
; 1336 : 	lpObj->ChaosSuccessRate += iCharmOfLuckCount;
; 1337 : 
; 1338 : 	lpObj->ChaosSuccessRate += lpObj->m_AddMixSuccessRate;

  0087b	8b 93 24 28 00
	00		 mov	 edx, DWORD PTR [ebx+10276]
  00881	03 95 ec fe ff
	ff		 add	 edx, DWORD PTR _iCharmOfLuckCount$[ebp]
  00887	01 93 84 0e 00
	00		 add	 DWORD PTR [ebx+3716], edx

; 1339 : 
; 1340 : 	if ( (rand()%100) < lpObj->ChaosSuccessRate )

  0088d	e8 00 00 00 00	 call	 _rand
  00892	99		 cdq
  00893	b9 64 00 00 00	 mov	 ecx, 100		; 00000064H
  00898	f7 f9		 idiv	 ecx
  0089a	3b 93 84 0e 00
	00		 cmp	 edx, DWORD PTR [ebx+3716]
  008a0	0f 8d f0 01 00
	00		 jge	 $LN8@PlusItemLe

; 1341 : 	{
; 1342 : 		lpObj->pChaosBox[PlusItemPos].m_Level++;

  008a6	8b 93 78 0e 00
	00		 mov	 edx, DWORD PTR [ebx+3704]
  008ac	66 ff 44 32 08	 inc	 WORD PTR [edx+esi+8]
  008b1	8d 44 32 08	 lea	 eax, DWORD PTR [edx+esi+8]

; 1343 : 		pMsg.Result = CB_SUCCESS;
; 1344 : 
; 1345 : 		CItem Item;

  008b5	8d 8d 00 ff ff
	ff		 lea	 ecx, DWORD PTR _Item$218087[ebp]
  008bb	c6 45 e7 01	 mov	 BYTE PTR _pMsg$[ebp+3], 1
  008bf	e8 00 00 00 00	 call	 ??0CItem@@QAE@XZ	; CItem::CItem

; 1346 : 
; 1347 : 		float Dur = (float)ItemGetDurability(lpObj->pChaosBox[PlusItemPos].m_Type, lpObj->pChaosBox[PlusItemPos].m_Level,
; 1348 : 			lpObj->pChaosBox[PlusItemPos].IsExtItem(), lpObj->pChaosBox[PlusItemPos].IsSetItem());

  008c4	8b bb 78 0e 00
	00		 mov	 edi, DWORD PTR [ebx+3704]
  008ca	8b cf		 mov	 ecx, edi
  008cc	03 ce		 add	 ecx, esi
  008ce	e8 00 00 00 00	 call	 ?IsSetItem@CItem@@QAEHXZ ; CItem::IsSetItem
  008d3	8b 8b 78 0e 00
	00		 mov	 ecx, DWORD PTR [ebx+3704]
  008d9	50		 push	 eax
  008da	03 ce		 add	 ecx, esi
  008dc	e8 00 00 00 00	 call	 ?IsExtItem@CItem@@QAEHXZ ; CItem::IsExtItem
  008e1	0f bf 4c 37 08	 movsx	 ecx, WORD PTR [edi+esi+8]
  008e6	0f bf 54 37 06	 movsx	 edx, WORD PTR [edi+esi+6]
  008eb	50		 push	 eax
  008ec	51		 push	 ecx
  008ed	52		 push	 edx
  008ee	e8 00 00 00 00	 call	 ?ItemGetDurability@@YAHHHHH@Z ; ItemGetDurability
  008f3	89 85 f8 fe ff
	ff		 mov	 DWORD PTR tv1369[ebp], eax

; 1349 : 
; 1350 : 		Item.m_Level = lpObj->pChaosBox[PlusItemPos].m_Level;

  008f9	8b 83 78 0e 00
	00		 mov	 eax, DWORD PTR [ebx+3704]
  008ff	66 8b 4c 30 08	 mov	 cx, WORD PTR [eax+esi+8]
  00904	db 85 f8 fe ff
	ff		 fild	 DWORD PTR tv1369[ebp]
  0090a	03 c6		 add	 eax, esi
  0090c	66 89 8d 08 ff
	ff ff		 mov	 WORD PTR _Item$218087[ebp+8], cx
  00913	d9 9d f8 fe ff
	ff		 fstp	 DWORD PTR _Dur$218088[ebp]
  00919	83 c4 10	 add	 esp, 16			; 00000010H

; 1351 : 		Item.m_Durability = Dur * lpObj->pChaosBox[PlusItemPos].m_Durability / lpObj->pChaosBox[PlusItemPos].m_BaseDurability;

  0091c	d9 40 24	 fld	 DWORD PTR [eax+36]

; 1352 : 		Item.m_JewelOfHarmonyOption = lpObj->pChaosBox[PlusItemPos].m_JewelOfHarmonyOption;
; 1353 : 		
; 1354 : 		//season4 add-on
; 1355 : 		BYTE SocketOption[5];
; 1356 : 		BYTE SocketIndex;
; 1357 : 		g_SocketOption.GetActiveSocketOption(&lpObj->pChaosBox[PlusItemPos],SocketOption,SocketIndex);

  0091f	8d 8d e0 fe ff
	ff		 lea	 ecx, DWORD PTR _SocketIndex$218091[ebp]
  00925	d8 8d f8 fe ff
	ff		 fmul	 DWORD PTR _Dur$218088[ebp]
  0092b	51		 push	 ecx
  0092c	b9 00 00 00 00	 mov	 ecx, OFFSET ?g_SocketOption@@3VCSocketOption@@A ; g_SocketOption
  00931	d8 70 2c	 fdiv	 DWORD PTR [eax+44]
  00934	d9 9d 24 ff ff
	ff		 fstp	 DWORD PTR _Item$218087[ebp+36]
  0093a	8a 90 c4 00 00
	00		 mov	 dl, BYTE PTR [eax+196]
  00940	88 55 c4	 mov	 BYTE PTR _Item$218087[ebp+196], dl
  00943	8d 55 f4	 lea	 edx, DWORD PTR _SocketOption$218090[ebp]
  00946	52		 push	 edx
  00947	50		 push	 eax
  00948	e8 00 00 00 00	 call	 ?GetActiveSocketOption@CSocketOption@@QAEXPAVCItem@@PAEAAE@Z ; CSocketOption::GetActiveSocketOption

; 1358 : 
; 1359 : 		Item.Convert(lpObj->pChaosBox[PlusItemPos].m_Type, lpObj->pChaosBox[PlusItemPos].m_Option1, lpObj->pChaosBox[PlusItemPos].m_Option2,
; 1360 : 			lpObj->pChaosBox[PlusItemPos].m_Option3, lpObj->pChaosBox[PlusItemPos].m_NewOption, 
; 1361 : 			lpObj->pChaosBox[PlusItemPos].m_SetOption, lpObj->pChaosBox[PlusItemPos].m_ItemOptionEx, SocketOption, SocketIndex, 0, CURRENT_DB_VERSION);

  0094d	8b 83 78 0e 00
	00		 mov	 eax, DWORD PTR [ebx+3704]
  00953	8b 8d e0 fe ff
	ff		 mov	 ecx, DWORD PTR _SocketIndex$218091[ebp]
  00959	6a 03		 push	 3
  0095b	6a 00		 push	 0
  0095d	51		 push	 ecx
  0095e	0f b6 8c 30 ca
	00 00 00	 movzx	 ecx, BYTE PTR [eax+esi+202]
  00966	03 c6		 add	 eax, esi
  00968	8d 55 f4	 lea	 edx, DWORD PTR _SocketOption$218090[ebp]
  0096b	52		 push	 edx
  0096c	0f b6 90 ae 00
	00 00		 movzx	 edx, BYTE PTR [eax+174]
  00973	51		 push	 ecx
  00974	0f b6 88 97 00
	00 00		 movzx	 ecx, BYTE PTR [eax+151]
  0097b	52		 push	 edx
  0097c	0f b6 90 96 00
	00 00		 movzx	 edx, BYTE PTR [eax+150]
  00983	51		 push	 ecx
  00984	0f b6 88 95 00
	00 00		 movzx	 ecx, BYTE PTR [eax+149]
  0098b	52		 push	 edx
  0098c	0f b6 90 94 00
	00 00		 movzx	 edx, BYTE PTR [eax+148]
  00993	0f bf 40 06	 movsx	 eax, WORD PTR [eax+6]
  00997	51		 push	 ecx
  00998	52		 push	 edx
  00999	50		 push	 eax
  0099a	8d 8d 00 ff ff
	ff		 lea	 ecx, DWORD PTR _Item$218087[ebp]
  009a0	e8 00 00 00 00	 call	 ?Convert@CItem@@QAEXHEEEEEEPAEEEE@Z ; CItem::Convert

; 1362 : 
; 1363 : 		Item.m_Number = lpObj->pChaosBox[PlusItemPos].m_Number;

  009a5	8b 8b 78 0e 00
	00		 mov	 ecx, DWORD PTR [ebx+3704]
  009ab	8b 14 0e	 mov	 edx, DWORD PTR [esi+ecx]

; 1364 : 
; 1365 : 		ItemByteConvert(pMsg.ItemInfo, Item);

  009ae	81 ec d4 00 00
	00		 sub	 esp, 212		; 000000d4H
  009b4	8d 45 e8	 lea	 eax, DWORD PTR _pMsg$[ebp+4]
  009b7	8b fc		 mov	 edi, esp
  009b9	89 95 00 ff ff
	ff		 mov	 DWORD PTR _Item$218087[ebp], edx
  009bf	b9 35 00 00 00	 mov	 ecx, 53			; 00000035H
  009c4	8d b5 00 ff ff
	ff		 lea	 esi, DWORD PTR _Item$218087[ebp]
  009ca	50		 push	 eax
  009cb	f3 a5		 rep movsd
  009cd	e8 00 00 00 00	 call	 ?ItemByteConvert@@YAXPAEVCItem@@@Z ; ItemByteConvert

; 1366 : 		this->ChaosBoxInit(lpObj);

  009d2	8b 8d cc fe ff
	ff		 mov	 ecx, DWORD PTR _this$[ebp]
  009d8	81 c4 d8 00 00
	00		 add	 esp, 216		; 000000d8H
  009de	53		 push	 ebx
  009df	e8 00 00 00 00	 call	 ?ChaosBoxInit@CMixSystem@@QAEHPAUOBJECTSTRUCT@@@Z ; CMixSystem::ChaosBoxInit

; 1367 : 		::gObjChaosBoxInsertItemPos(lpObj->m_Index, Item, 0, -1);

  009e4	6a ff		 push	 -1
  009e6	6a 00		 push	 0
  009e8	81 ec d4 00 00
	00		 sub	 esp, 212		; 000000d4H
  009ee	8b fc		 mov	 edi, esp
  009f0	b9 35 00 00 00	 mov	 ecx, 53			; 00000035H
  009f5	8d b5 00 ff ff
	ff		 lea	 esi, DWORD PTR _Item$218087[ebp]
  009fb	f3 a5		 rep movsd
  009fd	8b 0b		 mov	 ecx, DWORD PTR [ebx]
  009ff	51		 push	 ecx
  00a00	e8 00 00 00 00	 call	 ?gObjChaosBoxInsertItemPos@@YAEHVCItem@@HH@Z ; gObjChaosBoxInsertItemPos

; 1368 : 		gObjChaosItemSet(lpObj->m_Index, 0, 1);

  00a05	8b 13		 mov	 edx, DWORD PTR [ebx]
  00a07	6a 01		 push	 1
  00a09	6a 00		 push	 0
  00a0b	52		 push	 edx
  00a0c	e8 00 00 00 00	 call	 ?gObjChaosItemSet@@YAXHHE@Z ; gObjChaosItemSet

; 1369 : 
; 1370 : 		DataSend(lpObj->m_Index, (LPBYTE)&pMsg, pMsg.h.size);

  00a11	0f b6 45 e5	 movzx	 eax, BYTE PTR _pMsg$[ebp+1]
  00a15	8b 13		 mov	 edx, DWORD PTR [ebx]
  00a17	81 c4 ec 00 00
	00		 add	 esp, 236		; 000000ecH
  00a1d	50		 push	 eax
  00a1e	8d 4d e4	 lea	 ecx, DWORD PTR _pMsg$[ebp]
  00a21	51		 push	 ecx
  00a22	52		 push	 edx
  00a23	e8 00 00 00 00	 call	 ?DataSend@@YAHHPAEK@Z	; DataSend

; 1371 : 
; 1372 : 		if ( btItemLuckValue )
; 1373 : 		{
; 1374 : 			LogAddTD("[PlusItemLevel] [%s][%s] CBMix Success %d Money : %d-%d [%d], CharmRate : %d",
; 1375 : 				lpObj->AccountID, lpObj->Name, lpObj->ChaosSuccessRate+5, lpObj->Money,
; 1376 : 				lpObj->ChaosMoney, Item.m_Level, iCharmOfLuckCount);
; 1377 : 		}
; 1378 : 		else
; 1379 : 		{
; 1380 : 			LogAddTD("[PlusItemLevel] [%s][%s] CBMix Success %d Money : %d-%d [%d], CharmRate : %d",
; 1381 : 				lpObj->AccountID, lpObj->Name, lpObj->ChaosSuccessRate, lpObj->Money,
; 1382 : 				lpObj->ChaosMoney, Item.m_Level, iCharmOfLuckCount);

  00a28	0f bf 8d 08 ff
	ff ff		 movsx	 ecx, WORD PTR _Item$218087[ebp+8]
  00a2f	8b 85 ec fe ff
	ff		 mov	 eax, DWORD PTR _iCharmOfLuckCount$[ebp]
  00a35	8b 93 80 0e 00
	00		 mov	 edx, DWORD PTR [ebx+3712]
  00a3b	50		 push	 eax
  00a3c	8b 83 f0 00 00
	00		 mov	 eax, DWORD PTR [ebx+240]
  00a42	51		 push	 ecx
  00a43	8b 8b 84 0e 00
	00		 mov	 ecx, DWORD PTR [ebx+3716]
  00a49	52		 push	 edx
  00a4a	50		 push	 eax
  00a4b	51		 push	 ecx
  00a4c	8d 73 77	 lea	 esi, DWORD PTR [ebx+119]
  00a4f	56		 push	 esi
  00a50	8d 53 6c	 lea	 edx, DWORD PTR [ebx+108]
  00a53	52		 push	 edx
  00a54	68 00 00 00 00	 push	 OFFSET ??_C@_0EN@NDGFLPHI@?$FLPlusItemLevel?$FN?5?$FL?$CFs?$FN?$FL?$CFs?$FN?5CBMix?5S@
  00a59	ff 15 00 00 00
	00		 call	 DWORD PTR ?LogAddTD@@3P6AXPADZZA ; LogAddTD

; 1383 : 		}
; 1384 : #if(SYSTEM_ACHIEVEMENTS)
; 1385 : 		g_Achievements.SuccessChaosMix(lpObj->m_Index);

  00a5f	8b 03		 mov	 eax, DWORD PTR [ebx]
  00a61	83 c4 2c	 add	 esp, 44			; 0000002cH
  00a64	50		 push	 eax
  00a65	b9 00 00 00 00	 mov	 ecx, OFFSET ?g_Achievements@@3VCAchievements@@A ; g_Achievements
  00a6a	e8 00 00 00 00	 call	 ?SuccessChaosMix@CAchievements@@QAEXH@Z ; CAchievements::SuccessChaosMix

; 1386 : #endif
; 1387 : 
; 1388 : #if(LICENSE_UKRAINE)
; 1389 : 		MessaageAllGlobal("%s Mix %s +%d Success", lpObj->Name, Item.GetName(), Item.m_Level);

  00a6f	0f bf 8d 08 ff
	ff ff		 movsx	 ecx, WORD PTR _Item$218087[ebp+8]
  00a76	51		 push	 ecx
  00a77	8d 8d 00 ff ff
	ff		 lea	 ecx, DWORD PTR _Item$218087[ebp]
  00a7d	e8 00 00 00 00	 call	 ?GetName@CItem@@QAEPADXZ ; CItem::GetName
  00a82	50		 push	 eax
  00a83	56		 push	 esi
  00a84	68 00 00 00 00	 push	 OFFSET ??_C@_0BG@BMGOHCHC@?$CFs?5Mix?5?$CFs?5?$CL?$CFd?5Success?$AA@
  00a89	e8 00 00 00 00	 call	 ?MessaageAllGlobal@@YAXPADZZ ; MessaageAllGlobal
  00a8e	83 c4 10	 add	 esp, 16			; 00000010H

; 1390 : #endif
; 1391 : 
; 1392 : 	}
; 1393 : 	else

  00a91	e9 97 00 00 00	 jmp	 $LN5@PlusItemLe
$LN8@PlusItemLe:

; 1394 : 	{
; 1395 : 		int FailLevel = lpObj->pChaosBox[PlusItemPos].m_Level+1;

  00a96	8b 8b 78 0e 00
	00		 mov	 ecx, DWORD PTR [ebx+3704]
  00a9c	03 ce		 add	 ecx, esi
  00a9e	0f bf 71 08	 movsx	 esi, WORD PTR [ecx+8]
  00aa2	46		 inc	 esi

; 1396 : 
; 1397 : #if(LICENSE_UKRAINE)
; 1398 : 		MessaageAllGlobal("%s Mix %s +%d Failed", lpObj->Name, lpObj->pChaosBox[PlusItemPos].GetName(), FailLevel);

  00aa3	56		 push	 esi
  00aa4	8d 7b 77	 lea	 edi, DWORD PTR [ebx+119]
  00aa7	e8 00 00 00 00	 call	 ?GetName@CItem@@QAEPADXZ ; CItem::GetName
  00aac	50		 push	 eax
  00aad	57		 push	 edi
  00aae	68 00 00 00 00	 push	 OFFSET ??_C@_0BF@HBOOEPFC@?$CFs?5Mix?5?$CFs?5?$CL?$CFd?5Failed?$AA@
  00ab3	e8 00 00 00 00	 call	 ?MessaageAllGlobal@@YAXPADZZ ; MessaageAllGlobal

; 1399 : #endif
; 1400 : 
; 1401 : 		if(iCharmOfAssemblyCount != 0)
; 1402 : 		{
; 1403 : 			this->BreakItemOption(lpObj);

  00ab8	8b 8d cc fe ff
	ff		 mov	 ecx, DWORD PTR _this$[ebp]
  00abe	83 c4 10	 add	 esp, 16			; 00000010H
  00ac1	83 7d f4 00	 cmp	 DWORD PTR _iCharmOfAssemblyCount$[ebp], 0
  00ac5	53		 push	 ebx
  00ac6	74 07		 je	 SHORT $LN4@PlusItemLe
  00ac8	e8 00 00 00 00	 call	 ?BreakItemOption@CMixSystem@@QAEXPAUOBJECTSTRUCT@@@Z ; CMixSystem::BreakItemOption

; 1404 : 			GCUserChaosBoxSend(lpObj, 0);
; 1405 : 			DataSend(lpObj->m_Index, (LPBYTE)&pMsg, pMsg.h.size);
; 1406 : 		}
; 1407 : 		else

  00acd	eb 05		 jmp	 SHORT $LN151@PlusItemLe
$LN4@PlusItemLe:

; 1408 : 		{
; 1409 : 			this->ChaosBoxInit(lpObj);

  00acf	e8 00 00 00 00	 call	 ?ChaosBoxInit@CMixSystem@@QAEHPAUOBJECTSTRUCT@@@Z ; CMixSystem::ChaosBoxInit
$LN151@PlusItemLe:

; 1410 : 			GCUserChaosBoxSend(lpObj, 0);

  00ad4	6a 00		 push	 0
  00ad6	53		 push	 ebx
  00ad7	e8 00 00 00 00	 call	 ?GCUserChaosBoxSend@@YAXPAUOBJECTSTRUCT@@H@Z ; GCUserChaosBoxSend

; 1411 : 			DataSend(lpObj->m_Index, (LPBYTE)&pMsg, pMsg.h.size);

  00adc	0f b6 45 e5	 movzx	 eax, BYTE PTR _pMsg$[ebp+1]
  00ae0	8b 13		 mov	 edx, DWORD PTR [ebx]
  00ae2	50		 push	 eax
  00ae3	8d 4d e4	 lea	 ecx, DWORD PTR _pMsg$[ebp]
  00ae6	51		 push	 ecx
  00ae7	52		 push	 edx
  00ae8	e8 00 00 00 00	 call	 ?DataSend@@YAHHPAEK@Z	; DataSend

; 1412 : 		}
; 1413 : 
; 1414 : 		if ( btItemLuckValue )
; 1415 : 		{
; 1416 : 			LogAddTD("[PlusItemLevel] [%s][%s] CBMix Fail %d Money : %d-%d [%d], CharmRate : %d",
; 1417 : 				lpObj->AccountID, lpObj->Name, lpObj->ChaosSuccessRate+5, lpObj->Money,
; 1418 : 				lpObj->ChaosMoney, FailLevel, iCharmOfLuckCount);
; 1419 : 		}
; 1420 : 		else
; 1421 : 		{
; 1422 : 			LogAddTD("[PlusItemLevel] [%s][%s] CBMix Fail %d Money : %d-%d [%d], CharmRate : %d",
; 1423 : 				lpObj->AccountID, lpObj->Name, lpObj->ChaosSuccessRate, lpObj->Money,
; 1424 : 				lpObj->ChaosMoney, FailLevel, iCharmOfLuckCount);

  00aed	8b 85 ec fe ff
	ff		 mov	 eax, DWORD PTR _iCharmOfLuckCount$[ebp]
  00af3	8b 8b 80 0e 00
	00		 mov	 ecx, DWORD PTR [ebx+3712]
  00af9	8b 93 f0 00 00
	00		 mov	 edx, DWORD PTR [ebx+240]
  00aff	83 c4 14	 add	 esp, 20			; 00000014H
  00b02	50		 push	 eax
  00b03	8b 83 84 0e 00
	00		 mov	 eax, DWORD PTR [ebx+3716]
  00b09	56		 push	 esi
  00b0a	51		 push	 ecx
  00b0b	52		 push	 edx
  00b0c	50		 push	 eax
  00b0d	57		 push	 edi
  00b0e	8d 4b 6c	 lea	 ecx, DWORD PTR [ebx+108]
  00b11	51		 push	 ecx
  00b12	68 00 00 00 00	 push	 OFFSET ??_C@_0EK@JJBHLEGP@?$FLPlusItemLevel?$FN?5?$FL?$CFs?$FN?$FL?$CFs?$FN?5CBMix?5F@
  00b17	ff 15 00 00 00
	00		 call	 DWORD PTR ?LogAddTD@@3P6AXPADZZA ; LogAddTD

; 1425 : 		}
; 1426 : #if(SYSTEM_ACHIEVEMENTS)
; 1427 : 		g_Achievements.FailedChaosMix(lpObj->m_Index);

  00b1d	8b 13		 mov	 edx, DWORD PTR [ebx]
  00b1f	83 c4 20	 add	 esp, 32			; 00000020H
  00b22	52		 push	 edx
  00b23	b9 00 00 00 00	 mov	 ecx, OFFSET ?g_Achievements@@3VCAchievements@@A ; g_Achievements
  00b28	e8 00 00 00 00	 call	 ?FailedChaosMix@CAchievements@@QAEXH@Z ; CAchievements::FailedChaosMix
$LN5@PlusItemLe:

; 1428 : #endif
; 1429 : 
; 1430 : 
; 1431 : 	}
; 1432 : 
; 1433 : 	lpObj->ChaosLock = FALSE;
; 1434 : 	return TRUE;

  00b2d	b8 01 00 00 00	 mov	 eax, 1
$LN150@PlusItemLe:

; 1435 : }

  00b32	8b 4d fc	 mov	 ecx, DWORD PTR __$ArrayPad$[ebp]
  00b35	5f		 pop	 edi
  00b36	5e		 pop	 esi
  00b37	c7 83 88 0e 00
	00 00 00 00 00	 mov	 DWORD PTR [ebx+3720], 0
  00b41	33 cd		 xor	 ecx, ebp
  00b43	5b		 pop	 ebx
  00b44	e8 00 00 00 00	 call	 @__security_check_cookie@4
  00b49	8b e5		 mov	 esp, ebp
  00b4b	5d		 pop	 ebp
  00b4c	c2 08 00	 ret	 8
?PlusItemLevelChaosMix@CMixSystem@@QAEHPAUOBJECTSTRUCT@@H@Z ENDP ; CMixSystem::PlusItemLevelChaosMix
_TEXT	ENDS
PUBLIC	??_C@_0EP@LDCANMLN@?$FLThirdWing?5Mix?$FN?$FLLevel?501?$FN?5?$FL?$CFs?$FN?$FL?$CF@ ; `string'
PUBLIC	??_C@_0FC@NNBKAMKF@?$FLThirdWing?5Mix?$FN?$FLLevel?501?$FN?5?$FL?$CFs?$FN?$FL?$CF@ ; `string'
PUBLIC	??_C@_0CK@EPOMFGLB@?$FLThirdWing?5Mix?$FN?$FLLevel?501?$FN?5Chaos?5@ ; `string'
PUBLIC	??_C@_0BE@NEOLPNCO@ThirdWingLevel1_Mix?$AA@	; `string'
PUBLIC	__$ArrayPad$
PUBLIC	?ThirdWingMix1@CMixSystem@@QAEXPAUOBJECTSTRUCT@@@Z ; CMixSystem::ThirdWingMix1
;	COMDAT ??_C@_0EP@LDCANMLN@?$FLThirdWing?5Mix?$FN?$FLLevel?501?$FN?5?$FL?$CFs?$FN?$FL?$CF@
CONST	SEGMENT
??_C@_0EP@LDCANMLN@?$FLThirdWing?5Mix?$FN?$FLLevel?501?$FN?5?$FL?$CFs?$FN?$FL?$CF@ DB '['
	DB	'ThirdWing Mix][Level 01] [%s][%s] CBMix Fail %d Money : %d-%d'
	DB	', CharmRate : %d', 00H			; `string'
CONST	ENDS
;	COMDAT ??_C@_0FC@NNBKAMKF@?$FLThirdWing?5Mix?$FN?$FLLevel?501?$FN?5?$FL?$CFs?$FN?$FL?$CF@
CONST	SEGMENT
??_C@_0FC@NNBKAMKF@?$FLThirdWing?5Mix?$FN?$FLLevel?501?$FN?5?$FL?$CFs?$FN?$FL?$CF@ DB '['
	DB	'ThirdWing Mix][Level 01] [%s][%s] CBMix Success %d Money : %d'
	DB	'-%d, CharmRate : %d', 00H			; `string'
CONST	ENDS
;	COMDAT ??_C@_0CK@EPOMFGLB@?$FLThirdWing?5Mix?$FN?$FLLevel?501?$FN?5Chaos?5@
CONST	SEGMENT
??_C@_0CK@EPOMFGLB@?$FLThirdWing?5Mix?$FN?$FLLevel?501?$FN?5Chaos?5@ DB '['
	DB	'ThirdWing Mix][Level 01] Chaos Mix Start', 00H ; `string'
CONST	ENDS
;	COMDAT ??_C@_0BE@NEOLPNCO@ThirdWingLevel1_Mix?$AA@
CONST	SEGMENT
??_C@_0BE@NEOLPNCO@ThirdWingLevel1_Mix?$AA@ DB 'ThirdWingLevel1_Mix', 00H ; `string'
; Function compile flags: /Ogtp
CONST	ENDS
;	COMDAT ?ThirdWingMix1@CMixSystem@@QAEXPAUOBJECTSTRUCT@@@Z
_TEXT	SEGMENT
tv542 = -60						; size = 4
_loc10$ = -56						; size = 4
_loc2$ = -52						; size = 4
_loc3$ = -48						; size = 4
_loc8$ = -44						; size = 4
_loc4$ = -40						; size = 4
_loc7$ = -36						; size = 4
_loc6$ = -32						; size = 4
_loc5$ = -28						; size = 4
_this$ = -24						; size = 4
_pMsg$ = -20						; size = 16
__$ArrayPad$ = -4					; size = 4
_lpObj$ = 8						; size = 4
?ThirdWingMix1@CMixSystem@@QAEXPAUOBJECTSTRUCT@@@Z PROC	; CMixSystem::ThirdWingMix1, COMDAT
; _this$ = ecx

; 4287 : {

  00000	55		 push	 ebp
  00001	8b ec		 mov	 ebp, esp
  00003	83 ec 3c	 sub	 esp, 60			; 0000003cH
  00006	a1 00 00 00 00	 mov	 eax, DWORD PTR ___security_cookie
  0000b	33 c5		 xor	 eax, ebp
  0000d	89 45 fc	 mov	 DWORD PTR __$ArrayPad$[ebp], eax
  00010	53		 push	 ebx
  00011	56		 push	 esi
  00012	8b 75 08	 mov	 esi, DWORD PTR _lpObj$[ebp]
  00015	57		 push	 edi

; 4288 : 	lpObj->ChaosLock = TRUE;
; 4289 : 	
; 4290 : 	int loc2 = 0;

  00016	33 ff		 xor	 edi, edi

; 4291 : 	int loc3 = 0;
; 4292 : 	int loc4 = 0;
; 4293 : 	int loc5 = 0;
; 4294 : 	int loc6 = 0;
; 4295 : 	int loc7 = 0;
; 4296 : 	int loc8 = 0;
; 4297 : 	int loc9 = 0;
; 4298 : 	int loc10 = 0;
; 4299 : 
; 4300 : 	PMSG_CHAOSMIXRESULT pMsg;
; 4301 : 
; 4302 : 	PHeadSetB((LPBYTE)&pMsg.h, 0x86, sizeof(PMSG_CHAOSMIXRESULT));

  00018	6a 10		 push	 16			; 00000010H
  0001a	8d 45 ec	 lea	 eax, DWORD PTR _pMsg$[ebp]
  0001d	68 86 00 00 00	 push	 134			; 00000086H
  00022	50		 push	 eax
  00023	89 4d e8	 mov	 DWORD PTR _this$[ebp], ecx
  00026	c7 86 88 0e 00
	00 01 00 00 00	 mov	 DWORD PTR [esi+3720], 1
  00030	89 7d cc	 mov	 DWORD PTR _loc2$[ebp], edi
  00033	89 7d d0	 mov	 DWORD PTR _loc3$[ebp], edi
  00036	89 7d d8	 mov	 DWORD PTR _loc4$[ebp], edi
  00039	89 7d e4	 mov	 DWORD PTR _loc5$[ebp], edi
  0003c	89 7d e0	 mov	 DWORD PTR _loc6$[ebp], edi
  0003f	89 7d dc	 mov	 DWORD PTR _loc7$[ebp], edi
  00042	89 7d d4	 mov	 DWORD PTR _loc8$[ebp], edi
  00045	89 7d c8	 mov	 DWORD PTR _loc10$[ebp], edi
  00048	e8 00 00 00 00	 call	 ?PHeadSetB@@YAXPAEEH@Z	; PHeadSetB
  0004d	83 c4 0c	 add	 esp, 12			; 0000000cH

; 4303 : 	pMsg.Result = CB_ERROR;

  00050	c6 45 ef 00	 mov	 BYTE PTR _pMsg$[ebp+3], 0

; 4306 : 	{
; 4307 : 		if ( lpObj->pChaosBox[n].IsItem() == TRUE )

  00054	89 7d c4	 mov	 DWORD PTR tv542[ebp], edi
  00057	eb 07 8d a4 24
	00 00 00 00	 npad	 9
$LL36@ThirdWingM@3:
  00060	8b 8e 78 0e 00
	00		 mov	 ecx, DWORD PTR [esi+3704]
  00066	03 cf		 add	 ecx, edi
  00068	e8 00 00 00 00	 call	 ?IsItem@CItem@@QAEHXZ	; CItem::IsItem
  0006d	83 f8 01	 cmp	 eax, 1
  00070	0f 85 92 00 00
	00		 jne	 $LN28@ThirdWingM@3

; 4308 : 		{
; 4309 : 			if ( this->CheckLevel2WingItem(lpObj->pChaosBox[n].m_Type) != FALSE )

  00076	8b 96 78 0e 00
	00		 mov	 edx, DWORD PTR [esi+3704]
  0007c	0f b7 5c 3a 06	 movzx	 ebx, WORD PTR [edx+edi+6]
  00081	8b 4d e8	 mov	 ecx, DWORD PTR _this$[ebp]
  00084	03 d7		 add	 edx, edi
  00086	0f bf fb	 movsx	 edi, bx
  00089	57		 push	 edi
  0008a	e8 00 00 00 00	 call	 ?CheckLevel2WingItem@CMixSystem@@QAEHH@Z ; CMixSystem::CheckLevel2WingItem

; 4310 : 			{
; 4311 : 				if( this->CheckItemCondition(&lpObj->pChaosBox[n],9,0,0,1,0,0) != FALSE )

  0008f	6a 00		 push	 0
  00091	85 c0		 test	 eax, eax
  00093	74 19		 je	 SHORT $LN25@ThirdWingM@3
  00095	6a 00		 push	 0
  00097	6a 01		 push	 1
  00099	6a 00		 push	 0
  0009b	6a 00		 push	 0
  0009d	6a 09		 push	 9
  0009f	52		 push	 edx
  000a0	e8 00 00 00 00	 call	 ?CheckItemCondition@CMixSystem@@QAEHPAVCItem@@FEEEEE@Z ; CMixSystem::CheckItemCondition
  000a5	85 c0		 test	 eax, eax
  000a7	74 5f		 je	 SHORT $LN28@ThirdWingM@3

; 4312 : 				{
; 4313 : 					loc2++;

  000a9	ff 45 cc	 inc	 DWORD PTR _loc2$[ebp]

; 4314 : 				}
; 4315 : 			}

  000ac	eb 5a		 jmp	 SHORT $LN28@ThirdWingM@3
$LN25@ThirdWingM@3:

; 4316 : 			else if( this->CheckItemCondition(&lpObj->pChaosBox[n],7,0,0,1,1,0) != FALSE )

  000ae	6a 01		 push	 1
  000b0	6a 01		 push	 1
  000b2	6a 00		 push	 0
  000b4	6a 00		 push	 0
  000b6	6a 07		 push	 7
  000b8	52		 push	 edx
  000b9	e8 00 00 00 00	 call	 ?CheckItemCondition@CMixSystem@@QAEHPAVCItem@@FEEEEE@Z ; CMixSystem::CheckItemCondition
  000be	85 c0		 test	 eax, eax
  000c0	74 0b		 je	 SHORT $LN22@ThirdWingM@3

; 4317 : 			{
; 4318 : 				loc3++;
; 4319 : 				loc8 += lpObj->pChaosBox[n].m_BuyMoney;

  000c2	8b 52 70	 mov	 edx, DWORD PTR [edx+112]
  000c5	ff 45 d0	 inc	 DWORD PTR _loc3$[ebp]
  000c8	01 55 d4	 add	 DWORD PTR _loc8$[ebp], edx
  000cb	eb 3b		 jmp	 SHORT $LN28@ThirdWingM@3
$LN22@ThirdWingM@3:

; 4320 : 			}
; 4321 : 			else if( lpObj->pChaosBox[n].m_Type == this->iJewelofChaos)

  000cd	8b 45 e8	 mov	 eax, DWORD PTR _this$[ebp]
  000d0	3b 78 04	 cmp	 edi, DWORD PTR [eax+4]
  000d3	75 05		 jne	 SHORT $LN20@ThirdWingM@3

; 4322 : 			{
; 4323 : 				loc4++;

  000d5	ff 45 d8	 inc	 DWORD PTR _loc4$[ebp]
  000d8	eb 2e		 jmp	 SHORT $LN28@ThirdWingM@3
$LN20@ThirdWingM@3:

; 4324 : 			}
; 4325 : 			else if( lpObj->pChaosBox[n].m_Type == this->iBundleofSoul)

  000da	3b 78 18	 cmp	 edi, DWORD PTR [eax+24]
  000dd	75 05		 jne	 SHORT $LN18@ThirdWingM@3

; 4326 : 			{
; 4327 : 				loc5++;

  000df	ff 45 e4	 inc	 DWORD PTR _loc5$[ebp]
  000e2	eb 24		 jmp	 SHORT $LN28@ThirdWingM@3
$LN18@ThirdWingM@3:

; 4328 : 			}
; 4329 : 			else if( lpObj->pChaosBox[n].m_Type == this->iJewelofCreation)

  000e4	3b 78 10	 cmp	 edi, DWORD PTR [eax+16]
  000e7	75 05		 jne	 SHORT $LN16@ThirdWingM@3

; 4330 : 			{
; 4331 : 				loc6++;

  000e9	ff 45 e0	 inc	 DWORD PTR _loc6$[ebp]
  000ec	eb 1a		 jmp	 SHORT $LN28@ThirdWingM@3
$LN16@ThirdWingM@3:

; 4332 : 			}
; 4333 : 			else if( lpObj->pChaosBox[n].m_Type == ITEMGET(14,53) )

  000ee	b8 35 1c 00 00	 mov	 eax, 7221		; 00001c35H
  000f3	66 3b d8	 cmp	 bx, ax
  000f6	75 0d		 jne	 SHORT $LN14@ThirdWingM@3

; 4334 : 			{
; 4335 : 				loc10+= (int)lpObj->pChaosBox[n].m_Durability;

  000f8	d9 42 24	 fld	 DWORD PTR [edx+36]
  000fb	e8 00 00 00 00	 call	 __ftol2_sse
  00100	01 45 c8	 add	 DWORD PTR _loc10$[ebp], eax

; 4336 : 			}
; 4337 : 			else

  00103	eb 03		 jmp	 SHORT $LN28@ThirdWingM@3
$LN14@ThirdWingM@3:

; 4338 : 			{
; 4339 : 				loc7++;

  00105	ff 45 dc	 inc	 DWORD PTR _loc7$[ebp]
$LN28@ThirdWingM@3:

; 4304 : 
; 4305 : 	for ( int n=0;n<CHAOS_BOX_SIZE;n++) //loc14

  00108	8b 7d c4	 mov	 edi, DWORD PTR tv542[ebp]
  0010b	81 c7 d4 00 00
	00		 add	 edi, 212		; 000000d4H
  00111	89 7d c4	 mov	 DWORD PTR tv542[ebp], edi
  00114	81 ff 80 1a 00
	00		 cmp	 edi, 6784		; 00001a80H
  0011a	0f 8c 40 ff ff
	ff		 jl	 $LL36@ThirdWingM@3

; 4340 : 			}
; 4341 : 		}
; 4342 : 	}
; 4343 : 
; 4344 : 	if(loc10 > 10)

  00120	8b 5d c8	 mov	 ebx, DWORD PTR _loc10$[ebp]
  00123	83 fb 0a	 cmp	 ebx, 10			; 0000000aH
  00126	7e 15		 jle	 SHORT $LN12@ThirdWingM@3

; 4345 : 	{
; 4346 : 		pMsg.Result = 0xF0; //new macro
; 4347 : 		DataSend(lpObj->m_Index, (LPBYTE)&pMsg, pMsg.h.size);

  00128	0f b6 4d ed	 movzx	 ecx, BYTE PTR _pMsg$[ebp+1]
  0012c	8b 06		 mov	 eax, DWORD PTR [esi]
  0012e	51		 push	 ecx
  0012f	8d 55 ec	 lea	 edx, DWORD PTR _pMsg$[ebp]
  00132	52		 push	 edx
  00133	c6 45 ef f0	 mov	 BYTE PTR _pMsg$[ebp+3], 240 ; 000000f0H
  00137	50		 push	 eax

; 4348 : 		lpObj->ChaosLock = FALSE;
; 4349 : 		return;

  00138	e9 27 02 00 00	 jmp	 $LN37@ThirdWingM@3
$LN12@ThirdWingM@3:

; 4350 : 	}
; 4351 : 
; 4352 : 	if(loc2 != 1 || loc3 < 1 || loc4 != 1 || loc5 != 1 || loc6 != 1 || loc7 > 0)

  0013d	bf 01 00 00 00	 mov	 edi, 1
  00142	39 7d cc	 cmp	 DWORD PTR _loc2$[ebp], edi
  00145	0f 85 09 02 00
	00		 jne	 $LN35@ThirdWingM@3
  0014b	39 7d d0	 cmp	 DWORD PTR _loc3$[ebp], edi
  0014e	0f 8c 00 02 00
	00		 jl	 $LN35@ThirdWingM@3
  00154	39 7d d8	 cmp	 DWORD PTR _loc4$[ebp], edi
  00157	0f 85 f7 01 00
	00		 jne	 $LN35@ThirdWingM@3
  0015d	39 7d e4	 cmp	 DWORD PTR _loc5$[ebp], edi
  00160	0f 85 ee 01 00
	00		 jne	 $LN35@ThirdWingM@3
  00166	39 7d e0	 cmp	 DWORD PTR _loc6$[ebp], edi
  00169	0f 85 e5 01 00
	00		 jne	 $LN35@ThirdWingM@3
  0016f	83 7d dc 00	 cmp	 DWORD PTR _loc7$[ebp], 0
  00173	0f 8f db 01 00
	00		 jg	 $LN35@ThirdWingM@3

; 4356 : 		lpObj->ChaosLock = FALSE;
; 4357 : 		return;
; 4358 : 	}
; 4359 : 
; 4360 : 	LogChaosItem(lpObj, "ThirdWingLevel1_Mix");

  00179	8b 4d e8	 mov	 ecx, DWORD PTR _this$[ebp]
  0017c	68 00 00 00 00	 push	 OFFSET ??_C@_0BE@NEOLPNCO@ThirdWingLevel1_Mix?$AA@
  00181	56		 push	 esi
  00182	e8 00 00 00 00	 call	 ?LogChaosItem@CMixSystem@@QAEXPAUOBJECTSTRUCT@@PAD@Z ; CMixSystem::LogChaosItem

; 4361 : 	LogAddTD("[ThirdWing Mix][Level 01] Chaos Mix Start");

  00187	68 00 00 00 00	 push	 OFFSET ??_C@_0CK@EPOMFGLB@?$FLThirdWing?5Mix?$FN?$FLLevel?501?$FN?5Chaos?5@
  0018c	ff 15 00 00 00
	00		 call	 DWORD PTR ?LogAddTD@@3P6AXPADZZA ; LogAddTD

; 4362 : 
; 4363 : 	if(loc8 > 0)

  00192	8b 4d d4	 mov	 ecx, DWORD PTR _loc8$[ebp]
  00195	83 c4 04	 add	 esp, 4
  00198	85 c9		 test	 ecx, ecx
  0019a	7e 17		 jle	 SHORT $LN9@ThirdWingM@3

; 4364 : 	{
; 4365 : 		lpObj->ChaosSuccessRate = loc8 / 300000;

  0019c	b8 85 1d d9 6f	 mov	 eax, 1876499845		; 6fd91d85H
  001a1	f7 e9		 imul	 ecx
  001a3	c1 fa 11	 sar	 edx, 17			; 00000011H
  001a6	8b ca		 mov	 ecx, edx
  001a8	c1 e9 1f	 shr	 ecx, 31			; 0000001fH
  001ab	03 ca		 add	 ecx, edx
  001ad	89 8e 84 0e 00
	00		 mov	 DWORD PTR [esi+3716], ecx
$LN9@ThirdWingM@3:

; 4366 : 	}
; 4367 : 	//int ExFeatherofCondorMixMaxPercent = GetPrivateProfileInt("ChaosMix","FeatherofCondorMixMaxPercent",60,"..\\Data\\ZtData\\CommonServer.ini");
; 4368 : 	if(lpObj->ChaosSuccessRate > ZtConfig.CommonServer.ZtFeatherofCondorMixMaxPercent)

  001b3	8b 86 84 0e 00
	00		 mov	 eax, DWORD PTR [esi+3716]
  001b9	8b 0d 90 00 00
	00		 mov	 ecx, DWORD PTR ?ZtConfig@@3VcZtConfigs@@A+144
  001bf	3b c1		 cmp	 eax, ecx
  001c1	7e 08		 jle	 SHORT $LN8@ThirdWingM@3

; 4369 : 	{
; 4370 : 		lpObj->ChaosSuccessRate = ZtConfig.CommonServer.ZtFeatherofCondorMixMaxPercent;

  001c3	89 8e 84 0e 00
	00		 mov	 DWORD PTR [esi+3716], ecx
  001c9	eb 0a		 jmp	 SHORT $LN6@ThirdWingM@3
$LN8@ThirdWingM@3:

; 4371 : 	}
; 4372 : 	else if( lpObj->ChaosSuccessRate < 1)

  001cb	3b c7		 cmp	 eax, edi
  001cd	7d 06		 jge	 SHORT $LN6@ThirdWingM@3

; 4373 : 	{
; 4374 : 		lpObj->ChaosSuccessRate = 1;

  001cf	89 be 84 0e 00
	00		 mov	 DWORD PTR [esi+3716], edi
$LN6@ThirdWingM@3:

; 4375 : 	}
; 4376 : 
; 4377 : 	loc9 = lpObj->ChaosSuccessRate * 200000;
; 4378 : 
; 4379 : 	lpObj->ChaosSuccessRate += loc10;

  001d5	01 9e 84 0e 00
	00		 add	 DWORD PTR [esi+3716], ebx

; 4380 : 
; 4381 : 	loc9 = lpObj->ChaosSuccessRate * 200000; //why double? maybe inside some if
; 4382 : 
; 4383 : 	int iChaosTaxMoney = (int)((__int64)loc9 * (__int64)g_CastleSiegeSync.GetTaxRateChaos(lpObj->m_Index) / (__int64)100);

  001db	8b 16		 mov	 edx, DWORD PTR [esi]
  001dd	8b be 84 0e 00
	00		 mov	 edi, DWORD PTR [esi+3716]
  001e3	52		 push	 edx
  001e4	69 ff 40 0d 03
	00		 imul	 edi, 200000		; 00030d40H
  001ea	b9 00 00 00 00	 mov	 ecx, OFFSET ?g_CastleSiegeSync@@3VCCastleSiegeSync@@A ; g_CastleSiegeSync
  001ef	e8 00 00 00 00	 call	 ?GetTaxRateChaos@CCastleSiegeSync@@QAEHH@Z ; CCastleSiegeSync::GetTaxRateChaos
  001f4	f7 ef		 imul	 edi
  001f6	6a 00		 push	 0
  001f8	6a 64		 push	 100			; 00000064H
  001fa	52		 push	 edx
  001fb	50		 push	 eax
  001fc	e8 00 00 00 00	 call	 __alldiv

; 4384 : 
; 4385 : 	if(iChaosTaxMoney < 0)

  00201	85 c0		 test	 eax, eax
  00203	79 02		 jns	 SHORT $LN5@ThirdWingM@3

; 4386 : 	{
; 4387 : 		iChaosTaxMoney = 0;

  00205	33 c0		 xor	 eax, eax
$LN5@ThirdWingM@3:

; 4388 : 	}
; 4389 : 
; 4390 : 	loc9 += iChaosTaxMoney;
; 4391 : 
; 4392 : 	loc9 += lpObj->m_AddMixMoney;

  00207	8b 8e 20 28 00
	00		 mov	 ecx, DWORD PTR [esi+10272]
  0020d	03 c8		 add	 ecx, eax
  0020f	03 f9		 add	 edi, ecx

; 4393 : 
; 4394 : 	if(loc9 < 0)

  00211	79 02		 jns	 SHORT $LN4@ThirdWingM@3

; 4395 : 	{
; 4396 : 		loc9 = 0;

  00213	33 ff		 xor	 edi, edi
$LN4@ThirdWingM@3:

; 4397 : 	}
; 4398 : 
; 4399 : 	if ( lpObj->Money < loc9 )

  00215	8b 8e f0 00 00
	00		 mov	 ecx, DWORD PTR [esi+240]
  0021b	3b cf		 cmp	 ecx, edi
  0021d	7d 09		 jge	 SHORT $LN3@ThirdWingM@3

; 4400 : 	{
; 4401 : 		pMsg.Result = CB_NOT_ENOUGH_ZEN;

  0021f	c6 45 ef 02	 mov	 BYTE PTR _pMsg$[ebp+3], 2

; 4402 : 		
; 4403 : 		DataSend(lpObj->m_Index, (LPBYTE)&pMsg, pMsg.h.size);
; 4404 : 		lpObj->ChaosLock = FALSE;
; 4405 : 
; 4406 : 		return;

  00223	e9 30 01 00 00	 jmp	 $LN38@ThirdWingM@3
$LN3@ThirdWingM@3:

; 4407 : 	}
; 4408 : 
; 4409 : 	lpObj->ChaosSuccessRate += lpObj->m_AddMixSuccessRate;

  00228	8b 96 24 28 00
	00		 mov	 edx, DWORD PTR [esi+10276]
  0022e	01 96 84 0e 00
	00		 add	 DWORD PTR [esi+3716], edx

; 4410 : 
; 4411 : 	lpObj->Money -= loc9;

  00234	2b cf		 sub	 ecx, edi
  00236	89 8e f0 00 00
	00		 mov	 DWORD PTR [esi+240], ecx

; 4412 : 	g_CastleSiegeSync.AddTributeMoney(iChaosTaxMoney);

  0023c	50		 push	 eax
  0023d	b9 00 00 00 00	 mov	 ecx, OFFSET ?g_CastleSiegeSync@@3VCCastleSiegeSync@@A ; g_CastleSiegeSync
  00242	e8 00 00 00 00	 call	 ?AddTributeMoney@CCastleSiegeSync@@QAEXH@Z ; CCastleSiegeSync::AddTributeMoney

; 4413 : 	GCMoneySend(lpObj->m_Index, lpObj->Money);

  00247	8b 86 f0 00 00
	00		 mov	 eax, DWORD PTR [esi+240]
  0024d	8b 0e		 mov	 ecx, DWORD PTR [esi]
  0024f	50		 push	 eax
  00250	51		 push	 ecx
  00251	e8 00 00 00 00	 call	 ?GCMoneySend@@YAXHK@Z	; GCMoneySend
  00256	83 c4 08	 add	 esp, 8

; 4414 : 
; 4415 : 	if ( (rand()%100) < lpObj->ChaosSuccessRate )

  00259	e8 00 00 00 00	 call	 _rand
  0025e	99		 cdq
  0025f	b9 64 00 00 00	 mov	 ecx, 100		; 00000064H
  00264	f7 f9		 idiv	 ecx
  00266	3b 96 84 0e 00
	00		 cmp	 edx, DWORD PTR [esi+3716]
  0026c	7d 74		 jge	 SHORT $LN2@ThirdWingM@3

; 4416 : 	{
; 4417 : 		int type = ITEMGET(13,53);
; 4418 : 		int level = 0;
; 4419 : 		int dur = 1;
; 4420 : 
; 4421 : 		ItemSerialCreateSend(lpObj->m_Index, -1, 0, 0, type , (BYTE)level, (BYTE)dur, 0, 0, 0, -1, 0, 0);

  0026e	6a 00		 push	 0
  00270	8b 16		 mov	 edx, DWORD PTR [esi]
  00272	6a 00		 push	 0
  00274	6a ff		 push	 -1
  00276	6a 00		 push	 0
  00278	6a 00		 push	 0
  0027a	6a 00		 push	 0
  0027c	6a 01		 push	 1
  0027e	6a 00		 push	 0
  00280	68 35 1a 00 00	 push	 6709			; 00001a35H
  00285	6a 00		 push	 0
  00287	6a 00		 push	 0
  00289	68 ff 00 00 00	 push	 255			; 000000ffH
  0028e	52		 push	 edx
  0028f	e8 00 00 00 00	 call	 ?ItemSerialCreateSend@@YAXHEEEHEEEEEHEE@Z ; ItemSerialCreateSend

; 4422 : 		::gObjInventoryCommit(lpObj->m_Index);

  00294	8b 06		 mov	 eax, DWORD PTR [esi]
  00296	50		 push	 eax
  00297	e8 00 00 00 00	 call	 ?gObjInventoryCommit@@YAHH@Z ; gObjInventoryCommit

; 4423 : 
; 4424 : 		LogAddTD("[ThirdWing Mix][Level 01] [%s][%s] CBMix Success %d Money : %d-%d, CharmRate : %d",
; 4425 : 			lpObj->AccountID, lpObj->Name, lpObj->ChaosSuccessRate,	lpObj->Money, loc9, loc10);

  0029c	8b 8e f0 00 00
	00		 mov	 ecx, DWORD PTR [esi+240]
  002a2	8b 96 84 0e 00
	00		 mov	 edx, DWORD PTR [esi+3716]
  002a8	53		 push	 ebx
  002a9	57		 push	 edi
  002aa	51		 push	 ecx
  002ab	52		 push	 edx
  002ac	8d 46 77	 lea	 eax, DWORD PTR [esi+119]
  002af	50		 push	 eax
  002b0	8d 4e 6c	 lea	 ecx, DWORD PTR [esi+108]
  002b3	51		 push	 ecx
  002b4	68 00 00 00 00	 push	 OFFSET ??_C@_0FC@NNBKAMKF@?$FLThirdWing?5Mix?$FN?$FLLevel?501?$FN?5?$FL?$CFs?$FN?$FL?$CF@
  002b9	ff 15 00 00 00
	00		 call	 DWORD PTR ?LogAddTD@@3P6AXPADZZA ; LogAddTD

; 4426 : #if(SYSTEM_ACHIEVEMENTS)
; 4427 : 		g_Achievements.SuccessChaosMix(lpObj->m_Index);

  002bf	8b 16		 mov	 edx, DWORD PTR [esi]
  002c1	83 c4 54	 add	 esp, 84			; 00000054H
  002c4	52		 push	 edx
  002c5	b9 00 00 00 00	 mov	 ecx, OFFSET ?g_Achievements@@3VCAchievements@@A ; g_Achievements
  002ca	e8 00 00 00 00	 call	 ?SuccessChaosMix@CAchievements@@QAEXH@Z ; CAchievements::SuccessChaosMix
  002cf	5f		 pop	 edi
  002d0	5e		 pop	 esi
  002d1	5b		 pop	 ebx

; 4441 : #endif
; 4442 : 	}
; 4443 : }

  002d2	8b 4d fc	 mov	 ecx, DWORD PTR __$ArrayPad$[ebp]
  002d5	33 cd		 xor	 ecx, ebp
  002d7	e8 00 00 00 00	 call	 @__security_check_cookie@4
  002dc	8b e5		 mov	 esp, ebp
  002de	5d		 pop	 ebp
  002df	c2 04 00	 ret	 4
$LN2@ThirdWingM@3:

; 4428 : #endif
; 4429 : 	}
; 4430 : 	else
; 4431 : 	{
; 4432 : 		this->ThirdWingMixItemDown(lpObj);

  002e2	8b 4d e8	 mov	 ecx, DWORD PTR _this$[ebp]
  002e5	56		 push	 esi
  002e6	e8 00 00 00 00	 call	 ?ThirdWingMixItemDown@CMixSystem@@QAEXPAUOBJECTSTRUCT@@@Z ; CMixSystem::ThirdWingMixItemDown

; 4433 : 		::GCUserChaosBoxSend(lpObj, 0);

  002eb	6a 00		 push	 0
  002ed	56		 push	 esi
  002ee	e8 00 00 00 00	 call	 ?GCUserChaosBoxSend@@YAXPAUOBJECTSTRUCT@@H@Z ; GCUserChaosBoxSend

; 4434 : 		DataSend(lpObj->m_Index, (LPBYTE)&pMsg, pMsg.h.size);

  002f3	0f b6 45 ed	 movzx	 eax, BYTE PTR _pMsg$[ebp+1]
  002f7	8b 16		 mov	 edx, DWORD PTR [esi]
  002f9	50		 push	 eax
  002fa	8d 4d ec	 lea	 ecx, DWORD PTR _pMsg$[ebp]
  002fd	51		 push	 ecx
  002fe	52		 push	 edx
  002ff	e8 00 00 00 00	 call	 ?DataSend@@YAHHPAEK@Z	; DataSend

; 4435 : 
; 4436 : 		LogAddTD("[ThirdWing Mix][Level 01] [%s][%s] CBMix Fail %d Money : %d-%d, CharmRate : %d",
; 4437 : 			lpObj->AccountID, lpObj->Name, lpObj->ChaosSuccessRate,	lpObj->Money, loc9, loc10);

  00304	8b 86 f0 00 00
	00		 mov	 eax, DWORD PTR [esi+240]
  0030a	8b 8e 84 0e 00
	00		 mov	 ecx, DWORD PTR [esi+3716]
  00310	53		 push	 ebx
  00311	57		 push	 edi
  00312	50		 push	 eax
  00313	51		 push	 ecx
  00314	8d 56 77	 lea	 edx, DWORD PTR [esi+119]
  00317	52		 push	 edx
  00318	8d 46 6c	 lea	 eax, DWORD PTR [esi+108]
  0031b	50		 push	 eax
  0031c	68 00 00 00 00	 push	 OFFSET ??_C@_0EP@LDCANMLN@?$FLThirdWing?5Mix?$FN?$FLLevel?501?$FN?5?$FL?$CFs?$FN?$FL?$CF@
  00321	ff 15 00 00 00
	00		 call	 DWORD PTR ?LogAddTD@@3P6AXPADZZA ; LogAddTD

; 4438 : 		lpObj->ChaosLock = FALSE;
; 4439 : #if(SYSTEM_ACHIEVEMENTS)
; 4440 : 		g_Achievements.FailedChaosMix(lpObj->m_Index);

  00327	8b 0e		 mov	 ecx, DWORD PTR [esi]
  00329	83 c4 30	 add	 esp, 48			; 00000030H
  0032c	51		 push	 ecx
  0032d	b9 00 00 00 00	 mov	 ecx, OFFSET ?g_Achievements@@3VCAchievements@@A ; g_Achievements
  00332	c7 86 88 0e 00
	00 00 00 00 00	 mov	 DWORD PTR [esi+3720], 0
  0033c	e8 00 00 00 00	 call	 ?FailedChaosMix@CAchievements@@QAEXH@Z ; CAchievements::FailedChaosMix
  00341	5f		 pop	 edi
  00342	5e		 pop	 esi
  00343	5b		 pop	 ebx

; 4441 : #endif
; 4442 : 	}
; 4443 : }

  00344	8b 4d fc	 mov	 ecx, DWORD PTR __$ArrayPad$[ebp]
  00347	33 cd		 xor	 ecx, ebp
  00349	e8 00 00 00 00	 call	 @__security_check_cookie@4
  0034e	8b e5		 mov	 esp, ebp
  00350	5d		 pop	 ebp
  00351	c2 04 00	 ret	 4
$LN35@ThirdWingM@3:

; 4353 : 	{
; 4354 : 		pMsg.Result = CB_INCORRECT_MIX_ITEMS;

  00354	c6 45 ef 07	 mov	 BYTE PTR _pMsg$[ebp+3], 7
$LN38@ThirdWingM@3:

; 4355 : 		DataSend(lpObj->m_Index, (LPBYTE)&pMsg, pMsg.h.size);

  00358	0f b6 55 ed	 movzx	 edx, BYTE PTR _pMsg$[ebp+1]
  0035c	8b 0e		 mov	 ecx, DWORD PTR [esi]
  0035e	52		 push	 edx
  0035f	8d 45 ec	 lea	 eax, DWORD PTR _pMsg$[ebp]
  00362	50		 push	 eax
  00363	51		 push	 ecx
$LN37@ThirdWingM@3:
  00364	e8 00 00 00 00	 call	 ?DataSend@@YAHHPAEK@Z	; DataSend

; 4441 : #endif
; 4442 : 	}
; 4443 : }

  00369	8b 4d fc	 mov	 ecx, DWORD PTR __$ArrayPad$[ebp]
  0036c	83 c4 0c	 add	 esp, 12			; 0000000cH
  0036f	5f		 pop	 edi
  00370	c7 86 88 0e 00
	00 00 00 00 00	 mov	 DWORD PTR [esi+3720], 0
  0037a	5e		 pop	 esi
  0037b	33 cd		 xor	 ecx, ebp
  0037d	5b		 pop	 ebx
  0037e	e8 00 00 00 00	 call	 @__security_check_cookie@4
  00383	8b e5		 mov	 esp, ebp
  00385	5d		 pop	 ebp
  00386	c2 04 00	 ret	 4
?ThirdWingMix1@CMixSystem@@QAEXPAUOBJECTSTRUCT@@@Z ENDP	; CMixSystem::ThirdWingMix1
_TEXT	ENDS
PUBLIC	??_C@_0EP@JFJPOIME@?$FLThirdWing?5Mix?$FN?$FLLevel?502?$FN?5?$FL?$CFs?$FN?$FL?$CF@ ; `string'
PUBLIC	??_C@_0FC@GGMOACLG@?$FLThirdWing?5Mix?$FN?$FLLevel?502?$FN?5?$FL?$CFs?$FN?$FL?$CF@ ; `string'
PUBLIC	__$ArrayPad$
PUBLIC	?ThirdWingMix2@CMixSystem@@QAEXPAUOBJECTSTRUCT@@@Z ; CMixSystem::ThirdWingMix2
;	COMDAT ??_C@_0EP@JFJPOIME@?$FLThirdWing?5Mix?$FN?$FLLevel?502?$FN?5?$FL?$CFs?$FN?$FL?$CF@
CONST	SEGMENT
??_C@_0EP@JFJPOIME@?$FLThirdWing?5Mix?$FN?$FLLevel?502?$FN?5?$FL?$CFs?$FN?$FL?$CF@ DB '['
	DB	'ThirdWing Mix][Level 02] [%s][%s] CBMix Fail %d Money : %d-%d'
	DB	', CharmRate : %d', 00H			; `string'
CONST	ENDS
;	COMDAT ??_C@_0FC@GGMOACLG@?$FLThirdWing?5Mix?$FN?$FLLevel?502?$FN?5?$FL?$CFs?$FN?$FL?$CF@
CONST	SEGMENT
??_C@_0FC@GGMOACLG@?$FLThirdWing?5Mix?$FN?$FLLevel?502?$FN?5?$FL?$CFs?$FN?$FL?$CF@ DB '['
	DB	'ThirdWing Mix][Level 02] [%s][%s] CBMix Success %d Money : %d'
	DB	'-%d, CharmRate : %d', 00H			; `string'
; Function compile flags: /Ogtp
CONST	ENDS
;	COMDAT ?ThirdWingMix2@CMixSystem@@QAEXPAUOBJECTSTRUCT@@@Z
_TEXT	SEGMENT
_loc6$ = -60						; size = 4
_loc8$ = -56						; size = 4
_loc4$ = -52						; size = 4
_loc5$ = -48						; size = 4
_loc7$ = -44						; size = 4
_loc12$ = -40						; size = 4
_loc21$219393 = -36					; size = 4
_loc9$ = -36						; size = 4
_loc11$ = -32						; size = 4
_loc10$ = -32						; size = 4
_loc19$219378 = -28					; size = 4
_loc2$ = -28						; size = 4
_loc23$219396 = -24					; size = 4
_loc3$ = -24						; size = 4
_pMsg$ = -20						; size = 16
__$ArrayPad$ = -4					; size = 4
_lpObj$ = 8						; size = 4
?ThirdWingMix2@CMixSystem@@QAEXPAUOBJECTSTRUCT@@@Z PROC	; CMixSystem::ThirdWingMix2, COMDAT
; _this$ = ecx

; 4447 : {	

  00000	55		 push	 ebp
  00001	8b ec		 mov	 ebp, esp
  00003	83 ec 3c	 sub	 esp, 60			; 0000003cH
  00006	a1 00 00 00 00	 mov	 eax, DWORD PTR ___security_cookie
  0000b	33 c5		 xor	 eax, ebp
  0000d	89 45 fc	 mov	 DWORD PTR __$ArrayPad$[ebp], eax
  00010	53		 push	 ebx
  00011	56		 push	 esi
  00012	8b 75 08	 mov	 esi, DWORD PTR _lpObj$[ebp]
  00015	57		 push	 edi

; 4448 : 	lpObj->ChaosLock = TRUE;
; 4449 : 	
; 4450 : 	int loc2 = 0;

  00016	33 ff		 xor	 edi, edi

; 4451 : 	int loc3 = 0;
; 4452 : 	int loc4 = 0;
; 4453 : 	int loc5 = 0;
; 4454 : 	int loc6 = 0;
; 4455 : 	int loc7 = 0;
; 4456 : 	int loc8 = 0;
; 4457 : 	int loc9 = 0;
; 4458 : 	int loc10 = 0;
; 4459 : 	int loc11 = 0;
; 4460 : 	int loc12 = 0;
; 4461 : 
; 4462 : 	PMSG_CHAOSMIXRESULT pMsg;
; 4463 : 
; 4464 : 	PHeadSetB((LPBYTE)&pMsg.h, 0x86, sizeof(PMSG_CHAOSMIXRESULT));

  00018	6a 10		 push	 16			; 00000010H
  0001a	8d 45 ec	 lea	 eax, DWORD PTR _pMsg$[ebp]
  0001d	68 86 00 00 00	 push	 134			; 00000086H
  00022	50		 push	 eax
  00023	8b d9		 mov	 ebx, ecx
  00025	c7 86 88 0e 00
	00 01 00 00 00	 mov	 DWORD PTR [esi+3720], 1
  0002f	89 7d e4	 mov	 DWORD PTR _loc2$[ebp], edi
  00032	89 7d e8	 mov	 DWORD PTR _loc3$[ebp], edi
  00035	89 7d cc	 mov	 DWORD PTR _loc4$[ebp], edi
  00038	89 7d d0	 mov	 DWORD PTR _loc5$[ebp], edi
  0003b	89 7d c4	 mov	 DWORD PTR _loc6$[ebp], edi
  0003e	89 7d d4	 mov	 DWORD PTR _loc7$[ebp], edi
  00041	89 7d c8	 mov	 DWORD PTR _loc8$[ebp], edi
  00044	89 7d dc	 mov	 DWORD PTR _loc9$[ebp], edi
  00047	89 7d e0	 mov	 DWORD PTR _loc10$[ebp], edi
  0004a	89 7d d8	 mov	 DWORD PTR _loc12$[ebp], edi
  0004d	e8 00 00 00 00	 call	 ?PHeadSetB@@YAXPAEEH@Z	; PHeadSetB
  00052	83 c4 0c	 add	 esp, 12			; 0000000cH

; 4465 : 	pMsg.Result = CB_ERROR;

  00055	c6 45 ef 00	 mov	 BYTE PTR _pMsg$[ebp+3], 0
  00059	8d a4 24 00 00
	00 00		 npad	 7
$LL73@ThirdWingM@4:

; 4468 : 	{
; 4469 : 		if ( lpObj->pChaosBox[n].IsItem() == TRUE )

  00060	8b 8e 78 0e 00
	00		 mov	 ecx, DWORD PTR [esi+3704]
  00066	03 cf		 add	 ecx, edi
  00068	e8 00 00 00 00	 call	 ?IsItem@CItem@@QAEHXZ	; CItem::IsItem
  0006d	83 f8 01	 cmp	 eax, 1
  00070	0f 85 87 00 00
	00		 jne	 $LN72@ThirdWingM@4

; 4470 : 		{
; 4471 : 			if( this->CheckItemCondition(&lpObj->pChaosBox[n],7,0,0,1,0,1) != FALSE )

  00076	8b 8e 78 0e 00
	00		 mov	 ecx, DWORD PTR [esi+3704]
  0007c	50		 push	 eax
  0007d	6a 00		 push	 0
  0007f	50		 push	 eax
  00080	6a 00		 push	 0
  00082	6a 00		 push	 0
  00084	8d 14 0f	 lea	 edx, DWORD PTR [edi+ecx]
  00087	6a 07		 push	 7
  00089	52		 push	 edx
  0008a	8b cb		 mov	 ecx, ebx
  0008c	e8 00 00 00 00	 call	 ?CheckItemCondition@CMixSystem@@QAEHPAVCItem@@FEEEEE@Z ; CMixSystem::CheckItemCondition
  00091	85 c0		 test	 eax, eax
  00093	74 0b		 je	 SHORT $LN69@ThirdWingM@4

; 4472 : 			{
; 4473 : 				loc2++;
; 4474 : 				loc10 += lpObj->pChaosBox[n].m_BuyMoney;

  00095	8b 52 70	 mov	 edx, DWORD PTR [edx+112]
  00098	ff 45 e4	 inc	 DWORD PTR _loc2$[ebp]
  0009b	01 55 e0	 add	 DWORD PTR _loc10$[ebp], edx
  0009e	eb 5d		 jmp	 SHORT $LN72@ThirdWingM@4
$LN69@ThirdWingM@4:

; 4475 : 			}
; 4476 : 			else if( lpObj->pChaosBox[n].m_Type == this->iCondorFeather)

  000a0	0f b7 4a 06	 movzx	 ecx, WORD PTR [edx+6]
  000a4	0f bf c1	 movsx	 eax, cx
  000a7	3b 43 1c	 cmp	 eax, DWORD PTR [ebx+28]
  000aa	75 05		 jne	 SHORT $LN67@ThirdWingM@4

; 4477 : 			{
; 4478 : 				loc3++;

  000ac	ff 45 e8	 inc	 DWORD PTR _loc3$[ebp]
  000af	eb 4c		 jmp	 SHORT $LN72@ThirdWingM@4
$LN67@ThirdWingM@4:

; 4479 : 			}
; 4480 : 			else if( lpObj->pChaosBox[n].m_Type == this->iCondorFlame)

  000b1	3b 43 20	 cmp	 eax, DWORD PTR [ebx+32]
  000b4	75 05		 jne	 SHORT $LN65@ThirdWingM@4

; 4481 : 			{
; 4482 : 				loc4++;

  000b6	ff 45 cc	 inc	 DWORD PTR _loc4$[ebp]
  000b9	eb 42		 jmp	 SHORT $LN72@ThirdWingM@4
$LN65@ThirdWingM@4:

; 4483 : 			}
; 4484 : 			else if( lpObj->pChaosBox[n].m_Type == this->iJewelofChaos)

  000bb	3b 43 04	 cmp	 eax, DWORD PTR [ebx+4]
  000be	75 05		 jne	 SHORT $LN63@ThirdWingM@4

; 4485 : 			{
; 4486 : 				loc5++;

  000c0	ff 45 d0	 inc	 DWORD PTR _loc5$[ebp]
  000c3	eb 38		 jmp	 SHORT $LN72@ThirdWingM@4
$LN63@ThirdWingM@4:

; 4487 : 			}
; 4488 : 			else if( lpObj->pChaosBox[n].m_Type == this->iBundleofBless)

  000c5	3b 43 14	 cmp	 eax, DWORD PTR [ebx+20]
  000c8	75 05		 jne	 SHORT $LN61@ThirdWingM@4

; 4489 : 			{
; 4490 : 				loc7++;

  000ca	ff 45 d4	 inc	 DWORD PTR _loc7$[ebp]
  000cd	eb 2e		 jmp	 SHORT $LN72@ThirdWingM@4
$LN61@ThirdWingM@4:

; 4491 : 			}
; 4492 : 			else if( lpObj->pChaosBox[n].m_Type == this->iBundleofSoul)

  000cf	3b 43 18	 cmp	 eax, DWORD PTR [ebx+24]
  000d2	75 05		 jne	 SHORT $LN59@ThirdWingM@4

; 4493 : 			{
; 4494 : 				loc6++;

  000d4	ff 45 c4	 inc	 DWORD PTR _loc6$[ebp]
  000d7	eb 24		 jmp	 SHORT $LN72@ThirdWingM@4
$LN59@ThirdWingM@4:

; 4495 : 			}
; 4496 : 			else if( lpObj->pChaosBox[n].m_Type == this->iJewelofCreation)

  000d9	3b 43 10	 cmp	 eax, DWORD PTR [ebx+16]
  000dc	75 05		 jne	 SHORT $LN57@ThirdWingM@4

; 4497 : 			{
; 4498 : 				loc8++;

  000de	ff 45 c8	 inc	 DWORD PTR _loc8$[ebp]
  000e1	eb 1a		 jmp	 SHORT $LN72@ThirdWingM@4
$LN57@ThirdWingM@4:

; 4499 : 			}
; 4500 : 			else if( lpObj->pChaosBox[n].m_Type == ITEMGET(14,53) )

  000e3	b8 35 1c 00 00	 mov	 eax, 7221		; 00001c35H
  000e8	66 3b c8	 cmp	 cx, ax
  000eb	75 0d		 jne	 SHORT $LN55@ThirdWingM@4

; 4501 : 			{
; 4502 : 				loc12+= (int)lpObj->pChaosBox[n].m_Durability;

  000ed	d9 42 24	 fld	 DWORD PTR [edx+36]
  000f0	e8 00 00 00 00	 call	 __ftol2_sse
  000f5	01 45 d8	 add	 DWORD PTR _loc12$[ebp], eax

; 4503 : 			}
; 4504 : 			else

  000f8	eb 03		 jmp	 SHORT $LN72@ThirdWingM@4
$LN55@ThirdWingM@4:

; 4505 : 			{
; 4506 : 				loc9++;

  000fa	ff 45 dc	 inc	 DWORD PTR _loc9$[ebp]
$LN72@ThirdWingM@4:

; 4466 : 
; 4467 : 	for ( int n=0;n<CHAOS_BOX_SIZE;n++) //loc16

  000fd	81 c7 d4 00 00
	00		 add	 edi, 212		; 000000d4H
  00103	81 ff 80 1a 00
	00		 cmp	 edi, 6784		; 00001a80H
  00109	0f 8c 51 ff ff
	ff		 jl	 $LL73@ThirdWingM@4

; 4507 : 			}
; 4508 : 		}
; 4509 : 	}
; 4510 : 
; 4511 : 	if(loc12 > 10)

  0010f	8b 7d d8	 mov	 edi, DWORD PTR _loc12$[ebp]
  00112	83 ff 0a	 cmp	 edi, 10			; 0000000aH
  00115	7e 15		 jle	 SHORT $LN53@ThirdWingM@4

; 4512 : 	{
; 4513 : 		pMsg.Result = 0xF0; //new macro
; 4514 : 		DataSend(lpObj->m_Index, (LPBYTE)&pMsg, pMsg.h.size);

  00117	0f b6 4d ed	 movzx	 ecx, BYTE PTR _pMsg$[ebp+1]
  0011b	8b 06		 mov	 eax, DWORD PTR [esi]
  0011d	51		 push	 ecx
  0011e	8d 55 ec	 lea	 edx, DWORD PTR _pMsg$[ebp]
  00121	52		 push	 edx
  00122	c6 45 ef f0	 mov	 BYTE PTR _pMsg$[ebp+3], 240 ; 000000f0H
  00126	50		 push	 eax

; 4515 : 		lpObj->ChaosLock = FALSE;
; 4516 : 		return;

  00127	e9 d3 03 00 00	 jmp	 $LN85@ThirdWingM@4
$LN53@ThirdWingM@4:

; 4517 : 	}
; 4518 : 
; 4519 : 	if(loc2 < 1 || loc3 != 1 || loc4 != 1 || loc5 != 1 || loc7 != 1 || loc6 != 1 || loc8 != 1 || loc9 > 0)

  0012c	b8 01 00 00 00	 mov	 eax, 1
  00131	39 45 e4	 cmp	 DWORD PTR _loc2$[ebp], eax
  00134	0f 8c b5 03 00
	00		 jl	 $LN79@ThirdWingM@4
  0013a	39 45 e8	 cmp	 DWORD PTR _loc3$[ebp], eax
  0013d	0f 85 ac 03 00
	00		 jne	 $LN79@ThirdWingM@4
  00143	39 45 cc	 cmp	 DWORD PTR _loc4$[ebp], eax
  00146	0f 85 a3 03 00
	00		 jne	 $LN79@ThirdWingM@4
  0014c	39 45 d0	 cmp	 DWORD PTR _loc5$[ebp], eax
  0014f	0f 85 9a 03 00
	00		 jne	 $LN79@ThirdWingM@4
  00155	39 45 d4	 cmp	 DWORD PTR _loc7$[ebp], eax
  00158	0f 85 91 03 00
	00		 jne	 $LN79@ThirdWingM@4
  0015e	39 45 c4	 cmp	 DWORD PTR _loc6$[ebp], eax
  00161	0f 85 88 03 00
	00		 jne	 $LN79@ThirdWingM@4
  00167	39 45 c8	 cmp	 DWORD PTR _loc8$[ebp], eax
  0016a	0f 85 7f 03 00
	00		 jne	 $LN79@ThirdWingM@4
  00170	83 7d dc 00	 cmp	 DWORD PTR _loc9$[ebp], 0
  00174	0f 8f 75 03 00
	00		 jg	 $LN79@ThirdWingM@4

; 4523 : 		lpObj->ChaosLock = FALSE;
; 4524 : 		return;
; 4525 : 	}
; 4526 : 
; 4527 : 	LogChaosItem(lpObj, "ThirdWingLevel2_Mix");

  0017a	68 00 00 00 00	 push	 OFFSET ??_C@_0BE@FCHPIPIA@ThirdWingLevel2_Mix?$AA@
  0017f	56		 push	 esi
  00180	8b cb		 mov	 ecx, ebx
  00182	e8 00 00 00 00	 call	 ?LogChaosItem@CMixSystem@@QAEXPAUOBJECTSTRUCT@@PAD@Z ; CMixSystem::LogChaosItem

; 4528 : 	LogAddTD("[ThirdWing Mix][Level 02] Chaos Mix Start");

  00187	68 00 00 00 00	 push	 OFFSET ??_C@_0CK@OMLKNABI@?$FLThirdWing?5Mix?$FN?$FLLevel?502?$FN?5Chaos?5@
  0018c	ff 15 00 00 00
	00		 call	 DWORD PTR ?LogAddTD@@3P6AXPADZZA ; LogAddTD

; 4529 : 
; 4530 : 	if(loc10 > 0)

  00192	8b 4d e0	 mov	 ecx, DWORD PTR _loc10$[ebp]
  00195	83 c4 04	 add	 esp, 4
  00198	85 c9		 test	 ecx, ecx
  0019a	7e 17		 jle	 SHORT $LN50@ThirdWingM@4

; 4531 : 	{
; 4532 : 		lpObj->ChaosSuccessRate = loc10 / 3000000;

  0019c	b8 81 9f 5e 16	 mov	 eax, 375299969		; 165e9f81H
  001a1	f7 e9		 imul	 ecx
  001a3	c1 fa 12	 sar	 edx, 18			; 00000012H
  001a6	8b ca		 mov	 ecx, edx
  001a8	c1 e9 1f	 shr	 ecx, 31			; 0000001fH
  001ab	03 ca		 add	 ecx, edx
  001ad	89 8e 84 0e 00
	00		 mov	 DWORD PTR [esi+3716], ecx
$LN50@ThirdWingM@4:

; 4533 : 	}
; 4534 : 	//int ZtWingLv3MixMaxPercent = GetPrivateProfileInt("ChaosMix","WingLv3MixMaxPercent",40,"..\\Data\\ZtData\\CommonServer.ini");
; 4535 : 	if(lpObj->ChaosSuccessRate > ZtConfig.CommonServer.ZtWingLv3MixMaxPercent)

  001b3	8b 86 84 0e 00
	00		 mov	 eax, DWORD PTR [esi+3716]
  001b9	8b 0d 94 00 00
	00		 mov	 ecx, DWORD PTR ?ZtConfig@@3VcZtConfigs@@A+148
  001bf	3b c1		 cmp	 eax, ecx
  001c1	7e 08		 jle	 SHORT $LN49@ThirdWingM@4

; 4536 : 	{
; 4537 : 		lpObj->ChaosSuccessRate = ZtConfig.CommonServer.ZtWingLv3MixMaxPercent;

  001c3	89 8e 84 0e 00
	00		 mov	 DWORD PTR [esi+3716], ecx
  001c9	eb 0f		 jmp	 SHORT $LN47@ThirdWingM@4
$LN49@ThirdWingM@4:

; 4538 : 	}
; 4539 : 	else if( lpObj->ChaosSuccessRate < 1)

  001cb	83 f8 01	 cmp	 eax, 1
  001ce	7d 0a		 jge	 SHORT $LN47@ThirdWingM@4

; 4540 : 	{
; 4541 : 		lpObj->ChaosSuccessRate = 1;

  001d0	c7 86 84 0e 00
	00 01 00 00 00	 mov	 DWORD PTR [esi+3716], 1
$LN47@ThirdWingM@4:

; 4542 : 	}
; 4543 : 
; 4544 : 	loc11 = lpObj->ChaosSuccessRate * 200000;
; 4545 : 
; 4546 : 	lpObj->ChaosSuccessRate += loc12;

  001da	01 be 84 0e 00
	00		 add	 DWORD PTR [esi+3716], edi

; 4547 : 
; 4548 : 	loc11 = lpObj->ChaosSuccessRate * 200000;
; 4549 : 
; 4550 : 	int iChaosTaxMoney = (int)((__int64)loc11 * (__int64)g_CastleSiegeSync.GetTaxRateChaos(lpObj->m_Index) / (__int64)100);

  001e0	8b 16		 mov	 edx, DWORD PTR [esi]
  001e2	8b be 84 0e 00
	00		 mov	 edi, DWORD PTR [esi+3716]
  001e8	52		 push	 edx
  001e9	69 ff 40 0d 03
	00		 imul	 edi, 200000		; 00030d40H
  001ef	b9 00 00 00 00	 mov	 ecx, OFFSET ?g_CastleSiegeSync@@3VCCastleSiegeSync@@A ; g_CastleSiegeSync
  001f4	e8 00 00 00 00	 call	 ?GetTaxRateChaos@CCastleSiegeSync@@QAEHH@Z ; CCastleSiegeSync::GetTaxRateChaos
  001f9	f7 ef		 imul	 edi
  001fb	6a 00		 push	 0
  001fd	6a 64		 push	 100			; 00000064H
  001ff	52		 push	 edx
  00200	50		 push	 eax
  00201	e8 00 00 00 00	 call	 __alldiv

; 4551 : 
; 4552 : 	if(iChaosTaxMoney < 0)

  00206	85 c0		 test	 eax, eax
  00208	79 02		 jns	 SHORT $LN46@ThirdWingM@4

; 4553 : 	{
; 4554 : 		iChaosTaxMoney = 0;

  0020a	33 c0		 xor	 eax, eax
$LN46@ThirdWingM@4:

; 4555 : 	}
; 4556 : 
; 4557 : 	loc11 += iChaosTaxMoney;
; 4558 : 
; 4559 : 	loc11 += lpObj->m_AddMixMoney;

  0020c	8b 8e 20 28 00
	00		 mov	 ecx, DWORD PTR [esi+10272]
  00212	03 c8		 add	 ecx, eax
  00214	03 f9		 add	 edi, ecx
  00216	89 7d e0	 mov	 DWORD PTR _loc11$[ebp], edi

; 4560 : 
; 4561 : 	if(loc11 < 0)

  00219	79 0a		 jns	 SHORT $LN45@ThirdWingM@4

; 4562 : 	{
; 4563 : 		loc11 = 0;

  0021b	c7 45 e0 00 00
	00 00		 mov	 DWORD PTR _loc11$[ebp], 0
  00222	8b 7d e0	 mov	 edi, DWORD PTR _loc11$[ebp]
$LN45@ThirdWingM@4:

; 4564 : 	}
; 4565 : 
; 4566 : 	if ( lpObj->Money < loc11 )

  00225	8b 8e f0 00 00
	00		 mov	 ecx, DWORD PTR [esi+240]
  0022b	3b cf		 cmp	 ecx, edi
  0022d	7d 09		 jge	 SHORT $LN44@ThirdWingM@4

; 4567 : 	{
; 4568 : 		pMsg.Result = CB_NOT_ENOUGH_ZEN;

  0022f	c6 45 ef 02	 mov	 BYTE PTR _pMsg$[ebp+3], 2

; 4569 : 		
; 4570 : 		DataSend(lpObj->m_Index, (LPBYTE)&pMsg, pMsg.h.size);
; 4571 : 		lpObj->ChaosLock = FALSE;
; 4572 : 
; 4573 : 		return;

  00233	e9 bb 02 00 00	 jmp	 $LN86@ThirdWingM@4
$LN44@ThirdWingM@4:

; 4574 : 	}
; 4575 : 
; 4576 : 	lpObj->ChaosSuccessRate += lpObj->m_AddMixSuccessRate;

  00238	8b 96 24 28 00
	00		 mov	 edx, DWORD PTR [esi+10276]
  0023e	01 96 84 0e 00
	00		 add	 DWORD PTR [esi+3716], edx

; 4577 : 
; 4578 : 	lpObj->Money -= loc11;

  00244	2b cf		 sub	 ecx, edi
  00246	89 8e f0 00 00
	00		 mov	 DWORD PTR [esi+240], ecx

; 4579 : 	g_CastleSiegeSync.AddTributeMoney(iChaosTaxMoney);

  0024c	50		 push	 eax
  0024d	b9 00 00 00 00	 mov	 ecx, OFFSET ?g_CastleSiegeSync@@3VCCastleSiegeSync@@A ; g_CastleSiegeSync
  00252	e8 00 00 00 00	 call	 ?AddTributeMoney@CCastleSiegeSync@@QAEXH@Z ; CCastleSiegeSync::AddTributeMoney

; 4580 : 	GCMoneySend(lpObj->m_Index, lpObj->Money);

  00257	8b 86 f0 00 00
	00		 mov	 eax, DWORD PTR [esi+240]
  0025d	8b 0e		 mov	 ecx, DWORD PTR [esi]
  0025f	50		 push	 eax
  00260	51		 push	 ecx
  00261	e8 00 00 00 00	 call	 ?GCMoneySend@@YAXHK@Z	; GCMoneySend
  00266	83 c4 08	 add	 esp, 8

; 4581 : 
; 4582 : 	if ( (rand()%100) < lpObj->ChaosSuccessRate )

  00269	e8 00 00 00 00	 call	 _rand
  0026e	99		 cdq
  0026f	b9 64 00 00 00	 mov	 ecx, 100		; 00000064H
  00274	f7 f9		 idiv	 ecx
  00276	3b 96 84 0e 00
	00		 cmp	 edx, DWORD PTR [esi+3716]
  0027c	0f 8d f9 01 00
	00		 jge	 $LN43@ThirdWingM@4

; 4583 : 	{
; 4584 : 		int CharItemCount = 7;
; 4585 : 
; 4586 : 		if(ZtConfig.ZtCustom.SwitchChar == 1)

  00282	a1 00 00 00 00	 mov	 eax, DWORD PTR ?ZtConfig@@3VcZtConfigs@@A
  00287	8d 79 a3	 lea	 edi, DWORD PTR [ecx-93]
  0028a	83 f8 01	 cmp	 eax, 1
  0028d	75 05		 jne	 SHORT $LN42@ThirdWingM@4

; 4587 : 		{
; 4588 : 			CharItemCount = 6;

  0028f	8d 79 a2	 lea	 edi, DWORD PTR [ecx-94]
  00292	eb 08		 jmp	 SHORT $LN40@ThirdWingM@4
$LN42@ThirdWingM@4:

; 4589 : 		}
; 4590 : 		else if(ZtConfig.ZtCustom.SwitchChar == 2)

  00294	83 f8 02	 cmp	 eax, 2
  00297	75 03		 jne	 SHORT $LN40@ThirdWingM@4

; 4591 : 		{
; 4592 : 			CharItemCount = 5;

  00299	8d 78 03	 lea	 edi, DWORD PTR [eax+3]
$LN40@ThirdWingM@4:

; 4593 : 		}
; 4594 : 
; 4595 : 		int loc18 = rand()%CharItemCount;	//1.01.00 updated

  0029c	e8 00 00 00 00	 call	 _rand
  002a1	99		 cdq
  002a2	f7 ff		 idiv	 edi

; 4596 : 
; 4597 : 		int loc19 = 0;

  002a4	33 ff		 xor	 edi, edi
  002a6	89 7d e4	 mov	 DWORD PTR _loc19$219378[ebp], edi

; 4598 : 
; 4599 : 		if(loc18 == 0)

  002a9	3b d7		 cmp	 edx, edi
  002ab	75 05		 jne	 SHORT $LN39@ThirdWingM@4

; 4600 : 		{
; 4601 : 			loc19 = this->iWingofStorm;

  002ad	8b 53 24	 mov	 edx, DWORD PTR [ebx+36]
  002b0	eb 46		 jmp	 SHORT $LN87@ThirdWingM@4
$LN39@ThirdWingM@4:

; 4602 : 		}
; 4603 : 		else if( loc18 == 1)

  002b2	83 fa 01	 cmp	 edx, 1
  002b5	75 08		 jne	 SHORT $LN37@ThirdWingM@4

; 4604 : 		{
; 4605 : 			loc19 = this->iWingofEternal;

  002b7	8b 43 28	 mov	 eax, DWORD PTR [ebx+40]
  002ba	89 45 e4	 mov	 DWORD PTR _loc19$219378[ebp], eax
  002bd	eb 3c		 jmp	 SHORT $LN27@ThirdWingM@4
$LN37@ThirdWingM@4:

; 4606 : 		}
; 4607 : 		else if( loc18 == 2)

  002bf	83 fa 02	 cmp	 edx, 2
  002c2	75 08		 jne	 SHORT $LN35@ThirdWingM@4

; 4608 : 		{
; 4609 : 			loc19 = this->iWingofIllusion;

  002c4	8b 4b 2c	 mov	 ecx, DWORD PTR [ebx+44]
  002c7	89 4d e4	 mov	 DWORD PTR _loc19$219378[ebp], ecx
  002ca	eb 2f		 jmp	 SHORT $LN27@ThirdWingM@4
$LN35@ThirdWingM@4:

; 4610 : 		}
; 4611 : 		else if( loc18 == 3)

  002cc	83 fa 03	 cmp	 edx, 3
  002cf	75 05		 jne	 SHORT $LN33@ThirdWingM@4

; 4612 : 		{
; 4613 : 			loc19 = this->iWingofRuin;

  002d1	8b 53 30	 mov	 edx, DWORD PTR [ebx+48]
  002d4	eb 22		 jmp	 SHORT $LN87@ThirdWingM@4
$LN33@ThirdWingM@4:

; 4614 : 		}
; 4615 : 		else if( loc18 == 4)

  002d6	83 fa 04	 cmp	 edx, 4
  002d9	75 08		 jne	 SHORT $LN31@ThirdWingM@4

; 4616 : 		{
; 4617 : 			loc19 = this->iCapeofLord;

  002db	8b 43 34	 mov	 eax, DWORD PTR [ebx+52]
  002de	89 45 e4	 mov	 DWORD PTR _loc19$219378[ebp], eax
  002e1	eb 18		 jmp	 SHORT $LN27@ThirdWingM@4
$LN31@ThirdWingM@4:

; 4618 : 		}
; 4619 : 		else if( loc18 == 5)

  002e3	83 fa 05	 cmp	 edx, 5
  002e6	75 08		 jne	 SHORT $LN29@ThirdWingM@4

; 4620 : 		{
; 4621 : 			loc19 = this->iWingofDimension;

  002e8	8b 4b 38	 mov	 ecx, DWORD PTR [ebx+56]
  002eb	89 4d e4	 mov	 DWORD PTR _loc19$219378[ebp], ecx
  002ee	eb 0b		 jmp	 SHORT $LN27@ThirdWingM@4
$LN29@ThirdWingM@4:

; 4622 : 		}
; 4623 : 
; 4624 : 		else if( loc18 == 6)	//1.01.00 updated

  002f0	83 fa 06	 cmp	 edx, 6
  002f3	75 06		 jne	 SHORT $LN27@ThirdWingM@4

; 4625 : 		{
; 4626 : 			loc19 = this->CAPE_OF_OVERRULE_ITEMINDEX;

  002f5	8b 53 3c	 mov	 edx, DWORD PTR [ebx+60]
$LN87@ThirdWingM@4:
  002f8	89 55 e4	 mov	 DWORD PTR _loc19$219378[ebp], edx
$LN27@ThirdWingM@4:

; 4627 : 		}
; 4628 : 
; 4629 : 		int loc20 = 0;
; 4630 : 		int loc21 = 0;

  002fb	89 7d dc	 mov	 DWORD PTR _loc21$219393[ebp], edi

; 4631 : 		
; 4632 : 		if( (rand()%1000) <= this->i3rdWingLuckRate )

  002fe	e8 00 00 00 00	 call	 _rand
  00303	99		 cdq
  00304	b9 e8 03 00 00	 mov	 ecx, 1000		; 000003e8H
  00309	f7 f9		 idiv	 ecx
  0030b	3b 53 40	 cmp	 edx, DWORD PTR [ebx+64]
  0030e	7f 07		 jg	 SHORT $LN81@ThirdWingM@4

; 4633 : 		{
; 4634 : 			loc21 = 1;

  00310	c7 45 dc 01 00
	00 00		 mov	 DWORD PTR _loc21$219393[ebp], 1
$LN81@ThirdWingM@4:

; 4635 : 		}
; 4636 : 
; 4637 : 		int loc22 = 0;
; 4638 : 		int loc23 = 0;

  00317	89 7d e8	 mov	 DWORD PTR _loc23$219396[ebp], edi

; 4639 : 		int loc24 = rand()%2;

  0031a	e8 00 00 00 00	 call	 _rand
  0031f	25 01 00 00 80	 and	 eax, -2147483647	; 80000001H
  00324	79 05		 jns	 SHORT $LN82@ThirdWingM@4
  00326	48		 dec	 eax
  00327	83 c8 fe	 or	 eax, -2			; fffffffeH
  0032a	40		 inc	 eax
$LN82@ThirdWingM@4:

; 4640 : 		int loc25;
; 4641 : 		int loc26;
; 4642 : 		int loc27;
; 4643 : 		int loc28;
; 4644 : 		int loc29;
; 4645 : 
; 4646 : 		switch ( loc24 )

  0032b	2b c7		 sub	 eax, edi
  0032d	74 11		 je	 SHORT $LN23@ThirdWingM@4
  0032f	48		 dec	 eax
  00330	75 2a		 jne	 SHORT $LN22@ThirdWingM@4

; 4653 : 				}
; 4654 : 				break;
; 4655 : 
; 4656 : 			case 1:
; 4657 : 				loc25 = rand()%1000;

  00332	e8 00 00 00 00	 call	 _rand

; 4658 : 				if(loc24 < 300)
; 4659 : 				{
; 4660 : 					loc23 |= 0x20;

  00337	c7 45 e8 20 00
	00 00		 mov	 DWORD PTR _loc23$219396[ebp], 32 ; 00000020H

; 4661 : 				}
; 4662 : 				break;

  0033e	eb 1c		 jmp	 SHORT $LN22@ThirdWingM@4
$LN23@ThirdWingM@4:

; 4647 : 		{
; 4648 : 			case 0:
; 4649 : 				loc25 = rand()%1000;

  00340	e8 00 00 00 00	 call	 _rand
  00345	99		 cdq
  00346	b9 e8 03 00 00	 mov	 ecx, 1000		; 000003e8H
  0034b	f7 f9		 idiv	 ecx

; 4650 : 				if(loc25 < 400)

  0034d	81 fa 90 01 00
	00		 cmp	 edx, 400		; 00000190H
  00353	7d 07		 jge	 SHORT $LN22@ThirdWingM@4

; 4651 : 				{
; 4652 : 					loc23 |= 0x10;

  00355	c7 45 e8 10 00
	00 00		 mov	 DWORD PTR _loc23$219396[ebp], 16 ; 00000010H
$LN22@ThirdWingM@4:

; 4663 : 		}
; 4664 : 
; 4665 : 		loc26 = rand()%4;

  0035c	e8 00 00 00 00	 call	 _rand
  00361	8b f8		 mov	 edi, eax
  00363	81 e7 03 00 00
	80		 and	 edi, -2147483645	; 80000003H
  00369	79 05		 jns	 SHORT $LN83@ThirdWingM@4
  0036b	4f		 dec	 edi
  0036c	83 cf fc	 or	 edi, -4			; fffffffcH
  0036f	47		 inc	 edi
$LN83@ThirdWingM@4:

; 4666 : 		loc27 = rand()%1000;

  00370	e8 00 00 00 00	 call	 _rand
  00375	99		 cdq
  00376	b9 e8 03 00 00	 mov	 ecx, 1000		; 000003e8H
  0037b	f7 f9		 idiv	 ecx

; 4667 : 		loc22 = 0;

  0037d	33 db		 xor	 ebx, ebx

; 4668 : 
; 4669 : 		switch( loc26 )

  0037f	4f		 dec	 edi
  00380	74 1c		 je	 SHORT $LN17@ThirdWingM@4
  00382	4f		 dec	 edi
  00383	74 0d		 je	 SHORT $LN15@ThirdWingM@4
  00385	4f		 dec	 edi
  00386	75 20		 jne	 SHORT $LN78@ThirdWingM@4

; 4688 : 
; 4689 : 			case 3:
; 4690 : 				{
; 4691 : 					if(loc27 < 30)

  00388	83 fa 1e	 cmp	 edx, 30			; 0000001eH
  0038b	7d 1b		 jge	 SHORT $LN78@ThirdWingM@4

; 4692 : 					{
; 4693 : 						loc22 = 3;

  0038d	8d 5f 03	 lea	 ebx, DWORD PTR [edi+3]

; 4694 : 					}
; 4695 : 				}
; 4696 : 				break;

  00390	eb 16		 jmp	 SHORT $LN78@ThirdWingM@4
$LN15@ThirdWingM@4:

; 4676 : 					}
; 4677 : 				}
; 4678 : 				break;
; 4679 : 
; 4680 : 			case 2:
; 4681 : 				{
; 4682 : 					if(loc27 < 60)

  00392	83 fa 3c	 cmp	 edx, 60			; 0000003cH
  00395	7d 11		 jge	 SHORT $LN78@ThirdWingM@4

; 4683 : 					{
; 4684 : 						loc22 = 2;

  00397	bb 02 00 00 00	 mov	 ebx, 2

; 4685 : 					}
; 4686 : 				}
; 4687 : 				break;

  0039c	eb 0a		 jmp	 SHORT $LN78@ThirdWingM@4
$LN17@ThirdWingM@4:

; 4670 : 		{
; 4671 : 			case 1:
; 4672 : 				{
; 4673 : 					if(loc27 < 120)

  0039e	83 fa 78	 cmp	 edx, 120		; 00000078H
  003a1	7d 05		 jge	 SHORT $LN78@ThirdWingM@4

; 4674 : 					{
; 4675 : 						loc22 = 1;

  003a3	bb 01 00 00 00	 mov	 ebx, 1
$LN78@ThirdWingM@4:

; 4697 : 		}
; 4698 : 
; 4699 : 		loc28 = rand()%4;

  003a8	e8 00 00 00 00	 call	 _rand
  003ad	8b f8		 mov	 edi, eax
  003af	81 e7 03 00 00
	80		 and	 edi, -2147483645	; 80000003H
  003b5	79 05		 jns	 SHORT $LN84@ThirdWingM@4
  003b7	4f		 dec	 edi
  003b8	83 cf fc	 or	 edi, -4			; fffffffcH
  003bb	47		 inc	 edi
$LN84@ThirdWingM@4:

; 4700 : 		loc29 = rand()%1000;

  003bc	e8 00 00 00 00	 call	 _rand
  003c1	99		 cdq
  003c2	b9 e8 03 00 00	 mov	 ecx, 1000		; 000003e8H
  003c7	f7 f9		 idiv	 ecx

; 4701 : 
; 4702 : 		switch( loc28 )

  003c9	83 ff 03	 cmp	 edi, 3
  003cc	77 31		 ja	 SHORT $LN80@ThirdWingM@4
  003ce	ff 24 bd 00 00
	00 00		 jmp	 DWORD PTR $LN88@ThirdWingM@4[edi*4]
$LN9@ThirdWingM@4:

; 4703 : 		{
; 4704 : 			case 0:
; 4705 : 				{
; 4706 : 					if(loc29 < 40)

  003d5	83 fa 28	 cmp	 edx, 40			; 00000028H
  003d8	7d 25		 jge	 SHORT $LN80@ThirdWingM@4

; 4707 : 					{
; 4708 : 						loc23 |= 1;

  003da	83 4d e8 01	 or	 DWORD PTR _loc23$219396[ebp], 1

; 4709 : 					}
; 4710 : 				}
; 4711 : 				break;

  003de	eb 1f		 jmp	 SHORT $LN80@ThirdWingM@4
$LN7@ThirdWingM@4:

; 4712 : 			case 1:
; 4713 : 				{
; 4714 : 					if(loc29 < 20)

  003e0	83 fa 14	 cmp	 edx, 20			; 00000014H
  003e3	7d 1a		 jge	 SHORT $LN80@ThirdWingM@4

; 4715 : 					{
; 4716 : 						loc23 |= 2;

  003e5	83 4d e8 02	 or	 DWORD PTR _loc23$219396[ebp], 2

; 4717 : 					}
; 4718 : 				}
; 4719 : 				break;

  003e9	eb 14		 jmp	 SHORT $LN80@ThirdWingM@4
$LN5@ThirdWingM@4:

; 4720 : 
; 4721 : 			case 2:
; 4722 : 				{
; 4723 : 					if(loc29 < 70)

  003eb	83 fa 46	 cmp	 edx, 70			; 00000046H
  003ee	7d 0f		 jge	 SHORT $LN80@ThirdWingM@4

; 4724 : 					{
; 4725 : 						loc23 |= 4;

  003f0	83 4d e8 04	 or	 DWORD PTR _loc23$219396[ebp], 4

; 4726 : 					}
; 4727 : 				}
; 4728 : 				break;

  003f4	eb 09		 jmp	 SHORT $LN80@ThirdWingM@4
$LN3@ThirdWingM@4:

; 4729 : 			case 3:
; 4730 : 				{
; 4731 : 					if(loc29 < 70)

  003f6	83 fa 46	 cmp	 edx, 70			; 00000046H
  003f9	7d 04		 jge	 SHORT $LN80@ThirdWingM@4

; 4732 : 					{
; 4733 : 						loc23 |= 8;

  003fb	83 4d e8 08	 or	 DWORD PTR _loc23$219396[ebp], 8
$LN80@ThirdWingM@4:

; 4734 : 					}
; 4735 : 				}
; 4736 : 				break;
; 4737 : 		}
; 4738 : 
; 4739 : 		ItemSerialCreateSend(lpObj->m_Index, -1, 0, 0, loc19 , 0, 0, (BYTE)loc20, (BYTE)loc21, (BYTE)loc22, -1, (BYTE)loc23, 0);

  003ff	8b 55 e8	 mov	 edx, DWORD PTR _loc23$219396[ebp]
  00402	8b 45 dc	 mov	 eax, DWORD PTR _loc21$219393[ebp]
  00405	8b 4d e4	 mov	 ecx, DWORD PTR _loc19$219378[ebp]
  00408	6a 00		 push	 0
  0040a	52		 push	 edx
  0040b	8b 16		 mov	 edx, DWORD PTR [esi]
  0040d	6a ff		 push	 -1
  0040f	53		 push	 ebx
  00410	50		 push	 eax
  00411	6a 00		 push	 0
  00413	6a 00		 push	 0
  00415	6a 00		 push	 0
  00417	51		 push	 ecx
  00418	6a 00		 push	 0
  0041a	6a 00		 push	 0
  0041c	68 ff 00 00 00	 push	 255			; 000000ffH
  00421	52		 push	 edx
  00422	e8 00 00 00 00	 call	 ?ItemSerialCreateSend@@YAXHEEEHEEEEEHEE@Z ; ItemSerialCreateSend

; 4740 : 		::gObjInventoryCommit(lpObj->m_Index);

  00427	8b 06		 mov	 eax, DWORD PTR [esi]
  00429	50		 push	 eax
  0042a	e8 00 00 00 00	 call	 ?gObjInventoryCommit@@YAHH@Z ; gObjInventoryCommit

; 4741 : 
; 4742 : 		LogAddTD("[ThirdWing Mix][Level 02] [%s][%s] CBMix Success %d Money : %d-%d, CharmRate : %d",
; 4743 : 			lpObj->AccountID, lpObj->Name, lpObj->ChaosSuccessRate,	lpObj->Money, loc11, loc12);

  0042f	8b 4d d8	 mov	 ecx, DWORD PTR _loc12$[ebp]
  00432	8b 55 e0	 mov	 edx, DWORD PTR _loc11$[ebp]
  00435	8b 86 f0 00 00
	00		 mov	 eax, DWORD PTR [esi+240]
  0043b	51		 push	 ecx
  0043c	8b 8e 84 0e 00
	00		 mov	 ecx, DWORD PTR [esi+3716]
  00442	52		 push	 edx
  00443	50		 push	 eax
  00444	51		 push	 ecx
  00445	8d 56 77	 lea	 edx, DWORD PTR [esi+119]
  00448	52		 push	 edx
  00449	8d 46 6c	 lea	 eax, DWORD PTR [esi+108]
  0044c	50		 push	 eax
  0044d	68 00 00 00 00	 push	 OFFSET ??_C@_0FC@GGMOACLG@?$FLThirdWing?5Mix?$FN?$FLLevel?502?$FN?5?$FL?$CFs?$FN?$FL?$CF@
  00452	ff 15 00 00 00
	00		 call	 DWORD PTR ?LogAddTD@@3P6AXPADZZA ; LogAddTD

; 4744 : 
; 4745 : #if(SYSTEM_ACHIEVEMENTS)
; 4746 : 		g_Achievements.SuccessChaosMix(lpObj->m_Index);

  00458	8b 0e		 mov	 ecx, DWORD PTR [esi]
  0045a	83 c4 54	 add	 esp, 84			; 00000054H
  0045d	51		 push	 ecx
  0045e	b9 00 00 00 00	 mov	 ecx, OFFSET ?g_Achievements@@3VCAchievements@@A ; g_Achievements
  00463	e8 00 00 00 00	 call	 ?SuccessChaosMix@CAchievements@@QAEXH@Z ; CAchievements::SuccessChaosMix
  00468	5f		 pop	 edi
  00469	5e		 pop	 esi
  0046a	5b		 pop	 ebx

; 4760 : #endif
; 4761 : 	}
; 4762 : }

  0046b	8b 4d fc	 mov	 ecx, DWORD PTR __$ArrayPad$[ebp]
  0046e	33 cd		 xor	 ecx, ebp
  00470	e8 00 00 00 00	 call	 @__security_check_cookie@4
  00475	8b e5		 mov	 esp, ebp
  00477	5d		 pop	 ebp
  00478	c2 04 00	 ret	 4
$LN43@ThirdWingM@4:

; 4747 : #endif
; 4748 : 	}
; 4749 : 	else
; 4750 : 	{
; 4751 : 		this->ThirdWingMixItemDown(lpObj);

  0047b	56		 push	 esi
  0047c	8b cb		 mov	 ecx, ebx
  0047e	e8 00 00 00 00	 call	 ?ThirdWingMixItemDown@CMixSystem@@QAEXPAUOBJECTSTRUCT@@@Z ; CMixSystem::ThirdWingMixItemDown

; 4752 : 		::GCUserChaosBoxSend(lpObj, 0);

  00483	6a 00		 push	 0
  00485	56		 push	 esi
  00486	e8 00 00 00 00	 call	 ?GCUserChaosBoxSend@@YAXPAUOBJECTSTRUCT@@H@Z ; GCUserChaosBoxSend

; 4753 : 		DataSend(lpObj->m_Index, (LPBYTE)&pMsg, pMsg.h.size);

  0048b	0f b6 55 ed	 movzx	 edx, BYTE PTR _pMsg$[ebp+1]
  0048f	8b 0e		 mov	 ecx, DWORD PTR [esi]
  00491	52		 push	 edx
  00492	8d 45 ec	 lea	 eax, DWORD PTR _pMsg$[ebp]
  00495	50		 push	 eax
  00496	51		 push	 ecx
  00497	e8 00 00 00 00	 call	 ?DataSend@@YAHHPAEK@Z	; DataSend

; 4754 : 
; 4755 : 		LogAddTD("[ThirdWing Mix][Level 02] [%s][%s] CBMix Fail %d Money : %d-%d, CharmRate : %d",
; 4756 : 			lpObj->AccountID, lpObj->Name, lpObj->ChaosSuccessRate,	lpObj->Money, loc11, loc12);

  0049c	8b 55 d8	 mov	 edx, DWORD PTR _loc12$[ebp]
  0049f	8b 86 f0 00 00
	00		 mov	 eax, DWORD PTR [esi+240]
  004a5	8b 8e 84 0e 00
	00		 mov	 ecx, DWORD PTR [esi+3716]
  004ab	52		 push	 edx
  004ac	57		 push	 edi
  004ad	50		 push	 eax
  004ae	51		 push	 ecx
  004af	8d 56 77	 lea	 edx, DWORD PTR [esi+119]
  004b2	52		 push	 edx
  004b3	8d 46 6c	 lea	 eax, DWORD PTR [esi+108]
  004b6	50		 push	 eax
  004b7	68 00 00 00 00	 push	 OFFSET ??_C@_0EP@JFJPOIME@?$FLThirdWing?5Mix?$FN?$FLLevel?502?$FN?5?$FL?$CFs?$FN?$FL?$CF@
  004bc	ff 15 00 00 00
	00		 call	 DWORD PTR ?LogAddTD@@3P6AXPADZZA ; LogAddTD

; 4757 : 		lpObj->ChaosLock = FALSE;
; 4758 : #if(SYSTEM_ACHIEVEMENTS)
; 4759 : 		g_Achievements.FailedChaosMix(lpObj->m_Index);

  004c2	8b 0e		 mov	 ecx, DWORD PTR [esi]
  004c4	83 c4 30	 add	 esp, 48			; 00000030H
  004c7	51		 push	 ecx
  004c8	b9 00 00 00 00	 mov	 ecx, OFFSET ?g_Achievements@@3VCAchievements@@A ; g_Achievements
  004cd	c7 86 88 0e 00
	00 00 00 00 00	 mov	 DWORD PTR [esi+3720], 0
  004d7	e8 00 00 00 00	 call	 ?FailedChaosMix@CAchievements@@QAEXH@Z ; CAchievements::FailedChaosMix
  004dc	5f		 pop	 edi
  004dd	5e		 pop	 esi
  004de	5b		 pop	 ebx

; 4760 : #endif
; 4761 : 	}
; 4762 : }

  004df	8b 4d fc	 mov	 ecx, DWORD PTR __$ArrayPad$[ebp]
  004e2	33 cd		 xor	 ecx, ebp
  004e4	e8 00 00 00 00	 call	 @__security_check_cookie@4
  004e9	8b e5		 mov	 esp, ebp
  004eb	5d		 pop	 ebp
  004ec	c2 04 00	 ret	 4
$LN79@ThirdWingM@4:

; 4520 : 	{
; 4521 : 		pMsg.Result = CB_INCORRECT_MIX_ITEMS;

  004ef	c6 45 ef 07	 mov	 BYTE PTR _pMsg$[ebp+3], 7
$LN86@ThirdWingM@4:

; 4522 : 		DataSend(lpObj->m_Index, (LPBYTE)&pMsg, pMsg.h.size);

  004f3	0f b6 55 ed	 movzx	 edx, BYTE PTR _pMsg$[ebp+1]
  004f7	8b 0e		 mov	 ecx, DWORD PTR [esi]
  004f9	52		 push	 edx
  004fa	8d 45 ec	 lea	 eax, DWORD PTR _pMsg$[ebp]
  004fd	50		 push	 eax
  004fe	51		 push	 ecx
$LN85@ThirdWingM@4:
  004ff	e8 00 00 00 00	 call	 ?DataSend@@YAHHPAEK@Z	; DataSend

; 4760 : #endif
; 4761 : 	}
; 4762 : }

  00504	8b 4d fc	 mov	 ecx, DWORD PTR __$ArrayPad$[ebp]
  00507	83 c4 0c	 add	 esp, 12			; 0000000cH
  0050a	5f		 pop	 edi
  0050b	c7 86 88 0e 00
	00 00 00 00 00	 mov	 DWORD PTR [esi+3720], 0
  00515	5e		 pop	 esi
  00516	33 cd		 xor	 ecx, ebp
  00518	5b		 pop	 ebx
  00519	e8 00 00 00 00	 call	 @__security_check_cookie@4
  0051e	8b e5		 mov	 esp, ebp
  00520	5d		 pop	 ebp
  00521	c2 04 00	 ret	 4
$LN88@ThirdWingM@4:
  00524	00 00 00 00	 DD	 $LN9@ThirdWingM@4
  00528	00 00 00 00	 DD	 $LN7@ThirdWingM@4
  0052c	00 00 00 00	 DD	 $LN5@ThirdWingM@4
  00530	00 00 00 00	 DD	 $LN3@ThirdWingM@4
?ThirdWingMix2@CMixSystem@@QAEXPAUOBJECTSTRUCT@@@Z ENDP	; CMixSystem::ThirdWingMix2
_TEXT	ENDS
EXTRN	_atexit:PROC
; Function compile flags: /Ogtp
;	COMDAT ??__Eg_MixSystem@@YAXXZ
text$yc	SEGMENT
??__Eg_MixSystem@@YAXXZ PROC				; `dynamic initializer for 'g_MixSystem'', COMDAT

; 25   : CMixSystem g_MixSystem;

  00000	b9 00 00 00 00	 mov	 ecx, OFFSET ?g_MixSystem@@3VCMixSystem@@A ; g_MixSystem
  00005	e8 00 00 00 00	 call	 ??0CMixSystem@@QAE@XZ	; CMixSystem::CMixSystem
  0000a	68 00 00 00 00	 push	 OFFSET ??__Fg_MixSystem@@YAXXZ ; `dynamic atexit destructor for 'g_MixSystem''
  0000f	e8 00 00 00 00	 call	 _atexit
  00014	59		 pop	 ecx
  00015	c3		 ret	 0
??__Eg_MixSystem@@YAXXZ ENDP				; `dynamic initializer for 'g_MixSystem''
; Function compile flags: /Ogtp
text$yc	ENDS
;	COMDAT ??__Fg_MixSystem@@YAXXZ
text$yd	SEGMENT
??__Fg_MixSystem@@YAXXZ PROC				; `dynamic atexit destructor for 'g_MixSystem'', COMDAT
  00000	b9 00 00 00 00	 mov	 ecx, OFFSET ?g_MixSystem@@3VCMixSystem@@A ; g_MixSystem
  00005	e9 00 00 00 00	 jmp	 ??1CMixSystem@@UAE@XZ	; CMixSystem::~CMixSystem
??__Fg_MixSystem@@YAXXZ ENDP				; `dynamic atexit destructor for 'g_MixSystem''
text$yd	ENDS
PUBLIC	?g_MixSystem@@3VCMixSystem@@A			; g_MixSystem
_BSS	SEGMENT
?g_MixSystem@@3VCMixSystem@@A DB 044H DUP (?)		; g_MixSystem
_BSS	ENDS
CRT$XCU	SEGMENT
_g_MixSystem$initializer$ DD FLAT:??__Eg_MixSystem@@YAXXZ
CRT$XCU	ENDS
END
