; Listing generated by Microsoft (R) Optimizing Compiler Version 16.00.30319.01 

	TITLE	E:\work\tranet_version\GS\GameServer\MonsterBonus.cpp
	.686P
	.XMM
	include listing.inc
	.model	flat

INCLUDELIB LIBCMT
INCLUDELIB OLDNAMES

PUBLIC	??_H@YGXPAXIHP6EPAX0@Z@Z			; `vector constructor iterator'
; Function compile flags: /Ogtp
;	COMDAT ??_H@YGXPAXIHP6EPAX0@Z@Z
_TEXT	SEGMENT
___t$ = 8						; size = 4
___s$ = 12						; size = 4
___n$ = 16						; size = 4
___f$ = 20						; size = 4
??_H@YGXPAXIHP6EPAX0@Z@Z PROC				; `vector constructor iterator', COMDAT
  00000	55		 push	 ebp
  00001	8b ec		 mov	 ebp, esp
  00003	57		 push	 edi
  00004	8b 7d 10	 mov	 edi, DWORD PTR ___n$[ebp]
  00007	4f		 dec	 edi
  00008	78 14		 js	 SHORT $LN1@vector
  0000a	53		 push	 ebx
  0000b	8b 5d 14	 mov	 ebx, DWORD PTR ___f$[ebp]
  0000e	56		 push	 esi
  0000f	8b 75 08	 mov	 esi, DWORD PTR ___t$[ebp]
$LL2@vector:
  00012	8b ce		 mov	 ecx, esi
  00014	ff d3		 call	 ebx
  00016	03 75 0c	 add	 esi, DWORD PTR ___s$[ebp]
  00019	4f		 dec	 edi
  0001a	79 f6		 jns	 SHORT $LL2@vector
  0001c	5e		 pop	 esi
  0001d	5b		 pop	 ebx
$LN1@vector:
  0001e	5f		 pop	 edi
  0001f	5d		 pop	 ebp
  00020	c2 10 00	 ret	 16			; 00000010H
??_H@YGXPAXIHP6EPAX0@Z@Z ENDP				; `vector constructor iterator'
_TEXT	ENDS
PUBLIC	??0cMonsterBonus@@QAE@XZ			; cMonsterBonus::cMonsterBonus
EXTRN	_memset:PROC
; Function compile flags: /Ogtp
; File e:\work\tranet_version\gs\gameserver\monsterbonus.cpp
;	COMDAT ??0cMonsterBonus@@QAE@XZ
_TEXT	SEGMENT
??0cMonsterBonus@@QAE@XZ PROC				; cMonsterBonus::cMonsterBonus, COMDAT
; _this$ = ecx

; 13   : {

  00000	56		 push	 esi
  00001	8b f1		 mov	 esi, ecx

; 14   : 	this->Enable = false;
; 15   : 	this->Count = 0;
; 16   : 	ZeroMemory(&this->MobData,sizeof(this->MobData));

  00003	68 40 06 00 00	 push	 1600			; 00000640H
  00008	8d 46 04	 lea	 eax, DWORD PTR [esi+4]
  0000b	6a 00		 push	 0
  0000d	50		 push	 eax
  0000e	c6 06 00	 mov	 BYTE PTR [esi], 0
  00011	c7 86 44 06 00
	00 00 00 00 00	 mov	 DWORD PTR [esi+1604], 0
  0001b	e8 00 00 00 00	 call	 _memset
  00020	83 c4 0c	 add	 esp, 12			; 0000000cH

; 17   : }

  00023	8b c6		 mov	 eax, esi
  00025	5e		 pop	 esi
  00026	c3		 ret	 0
??0cMonsterBonus@@QAE@XZ ENDP				; cMonsterBonus::cMonsterBonus
_TEXT	ENDS
PUBLIC	??1cMonsterBonus@@QAE@XZ			; cMonsterBonus::~cMonsterBonus
; Function compile flags: /Ogtp
;	COMDAT ??1cMonsterBonus@@QAE@XZ
_TEXT	SEGMENT
??1cMonsterBonus@@QAE@XZ PROC				; cMonsterBonus::~cMonsterBonus, COMDAT
; _this$ = ecx

; 21   : 
; 22   : }

  00000	c3		 ret	 0
??1cMonsterBonus@@QAE@XZ ENDP				; cMonsterBonus::~cMonsterBonus
_TEXT	ENDS
PUBLIC	??_C@_0M@FMGEODLN@?$CFd?5?$CFd?5?$CFd?5?$CFd?$AA@ ; `string'
PUBLIC	??_C@_08OOHKHLPO@?$CFd?5?$CFd?5?$CFd?$AA@	; `string'
PUBLIC	??_C@_0BA@PIOFNAIM@LOAD?5FILE?5ERROR?$AA@	; `string'
PUBLIC	??_C@_01KDCPPGHE@r?$AA@				; `string'
PUBLIC	??_C@_06CNKIADGI@ZtTeam?$AA@			; `string'
PUBLIC	??_C@_06CKGENIKG@Enable?$AA@			; `string'
PUBLIC	??_C@_0CA@EEDPBOIM@?4?4?2Data?2ZtData?2MonsterBonus?4ini?$AA@ ; `string'
PUBLIC	__$ArrayPad$
PUBLIC	?Load@cMonsterBonus@@QAEXXZ			; cMonsterBonus::Load
EXTRN	_fclose:PROC
EXTRN	_sscanf:PROC
EXTRN	?CheckUser@CZtLicense@@QAE_NH@Z:PROC		; CZtLicense::CheckUser
EXTRN	?g_ZtLicense@@3VCZtLicense@@A:BYTE		; g_ZtLicense
EXTRN	?Zt_IsBadFileLine@@YA_NPADAAH@Z:PROC		; Zt_IsBadFileLine
EXTRN	_fgets:PROC
EXTRN	_feof:PROC
EXTRN	__imp__MessageBoxA@16:PROC
EXTRN	_fopen:PROC
EXTRN	__imp__GetPrivateProfileIntA@16:PROC
EXTRN	___security_cookie:DWORD
EXTRN	@__security_check_cookie@4:PROC
;	COMDAT ??_C@_0M@FMGEODLN@?$CFd?5?$CFd?5?$CFd?5?$CFd?$AA@
CONST	SEGMENT
??_C@_0M@FMGEODLN@?$CFd?5?$CFd?5?$CFd?5?$CFd?$AA@ DB '%d %d %d %d', 00H ; `string'
CONST	ENDS
;	COMDAT ??_C@_08OOHKHLPO@?$CFd?5?$CFd?5?$CFd?$AA@
CONST	SEGMENT
??_C@_08OOHKHLPO@?$CFd?5?$CFd?5?$CFd?$AA@ DB '%d %d %d', 00H ; `string'
CONST	ENDS
;	COMDAT ??_C@_0BA@PIOFNAIM@LOAD?5FILE?5ERROR?$AA@
CONST	SEGMENT
??_C@_0BA@PIOFNAIM@LOAD?5FILE?5ERROR?$AA@ DB 'LOAD FILE ERROR', 00H ; `string'
CONST	ENDS
;	COMDAT ??_C@_01KDCPPGHE@r?$AA@
CONST	SEGMENT
??_C@_01KDCPPGHE@r?$AA@ DB 'r', 00H			; `string'
CONST	ENDS
;	COMDAT ??_C@_06CNKIADGI@ZtTeam?$AA@
CONST	SEGMENT
??_C@_06CNKIADGI@ZtTeam?$AA@ DB 'ZtTeam', 00H		; `string'
CONST	ENDS
;	COMDAT ??_C@_06CKGENIKG@Enable?$AA@
CONST	SEGMENT
??_C@_06CKGENIKG@Enable?$AA@ DB 'Enable', 00H		; `string'
CONST	ENDS
;	COMDAT ??_C@_0CA@EEDPBOIM@?4?4?2Data?2ZtData?2MonsterBonus?4ini?$AA@
CONST	SEGMENT
??_C@_0CA@EEDPBOIM@?4?4?2Data?2ZtData?2MonsterBonus?4ini?$AA@ DB '..\Data'
	DB	'\ZtData\MonsterBonus.ini', 00H		; `string'
; Function compile flags: /Ogtp
CONST	ENDS
;	COMDAT ?Load@cMonsterBonus@@QAEXXZ
_TEXT	SEGMENT
_Flag$ = -292						; size = 4
_n$203631 = -288					; size = 16
_n$203634 = -272					; size = 12
_Buff$ = -260						; size = 256
__$ArrayPad$ = -4					; size = 4
?Load@cMonsterBonus@@QAEXXZ PROC			; cMonsterBonus::Load, COMDAT
; _this$ = ecx

; 25   : {

  00000	55		 push	 ebp
  00001	8b ec		 mov	 ebp, esp
  00003	81 ec 24 01 00
	00		 sub	 esp, 292		; 00000124H
  00009	a1 00 00 00 00	 mov	 eax, DWORD PTR ___security_cookie
  0000e	33 c5		 xor	 eax, ebp
  00010	89 45 fc	 mov	 DWORD PTR __$ArrayPad$[ebp], eax
  00013	53		 push	 ebx
  00014	56		 push	 esi
  00015	57		 push	 edi

; 26   : 	this->Enable = GetPrivateProfileInt("ZtTeam","Enable",0,MOB_BONUS_DIR);

  00016	68 00 00 00 00	 push	 OFFSET ??_C@_0CA@EEDPBOIM@?4?4?2Data?2ZtData?2MonsterBonus?4ini?$AA@
  0001b	33 db		 xor	 ebx, ebx
  0001d	53		 push	 ebx
  0001e	68 00 00 00 00	 push	 OFFSET ??_C@_06CKGENIKG@Enable?$AA@
  00023	68 00 00 00 00	 push	 OFFSET ??_C@_06CNKIADGI@ZtTeam?$AA@
  00028	8b f1		 mov	 esi, ecx
  0002a	ff 15 00 00 00
	00		 call	 DWORD PTR __imp__GetPrivateProfileIntA@16
  00030	85 c0		 test	 eax, eax
  00032	0f 95 c0	 setne	 al

; 27   : 
; 28   : 	FILE * file = fopen(MOB_BONUS_DIR,"r");

  00035	68 00 00 00 00	 push	 OFFSET ??_C@_01KDCPPGHE@r?$AA@
  0003a	68 00 00 00 00	 push	 OFFSET ??_C@_0CA@EEDPBOIM@?4?4?2Data?2ZtData?2MonsterBonus?4ini?$AA@
  0003f	88 06		 mov	 BYTE PTR [esi], al
  00041	e8 00 00 00 00	 call	 _fopen
  00046	8b f8		 mov	 edi, eax
  00048	83 c4 08	 add	 esp, 8

; 29   : 	if(file == NULL)

  0004b	3b fb		 cmp	 edi, ebx
  0004d	75 25		 jne	 SHORT $LN9@Load

; 30   : 	{
; 31   : 		MessageBoxA(0,MOB_BONUS_DIR,"LOAD FILE ERROR",0);

  0004f	53		 push	 ebx
  00050	68 00 00 00 00	 push	 OFFSET ??_C@_0BA@PIOFNAIM@LOAD?5FILE?5ERROR?$AA@
  00055	68 00 00 00 00	 push	 OFFSET ??_C@_0CA@EEDPBOIM@?4?4?2Data?2ZtData?2MonsterBonus?4ini?$AA@
  0005a	53		 push	 ebx
  0005b	ff 15 00 00 00
	00		 call	 DWORD PTR __imp__MessageBoxA@16
  00061	5f		 pop	 edi

; 32   : 		this->Enable = false;

  00062	88 1e		 mov	 BYTE PTR [esi], bl
  00064	5e		 pop	 esi
  00065	5b		 pop	 ebx

; 71   : }

  00066	8b 4d fc	 mov	 ecx, DWORD PTR __$ArrayPad$[ebp]
  00069	33 cd		 xor	 ecx, ebp
  0006b	e8 00 00 00 00	 call	 @__security_check_cookie@4
  00070	8b e5		 mov	 esp, ebp
  00072	5d		 pop	 ebp
  00073	c3		 ret	 0
$LN9@Load:

; 33   : 		return;
; 34   : 	}
; 35   : 
; 36   : 	char Buff[256];
; 37   : 	int Flag = 0;
; 38   : 	this->Count = 0;
; 39   : 
; 40   : 	while(!feof(file))

  00074	57		 push	 edi
  00075	89 9d dc fe ff
	ff		 mov	 DWORD PTR _Flag$[ebp], ebx
  0007b	89 9e 44 06 00
	00		 mov	 DWORD PTR [esi+1604], ebx
  00081	e8 00 00 00 00	 call	 _feof
  00086	83 c4 04	 add	 esp, 4
  00089	85 c0		 test	 eax, eax
  0008b	0f 85 5b 01 00
	00		 jne	 $LN14@Load
  00091	8d 58 01	 lea	 ebx, DWORD PTR [eax+1]
$LL8@Load:

; 41   : 	{
; 42   : 		fgets(Buff,256,file);

  00094	57		 push	 edi
  00095	8d 8d fc fe ff
	ff		 lea	 ecx, DWORD PTR _Buff$[ebp]
  0009b	68 00 01 00 00	 push	 256			; 00000100H
  000a0	51		 push	 ecx
  000a1	e8 00 00 00 00	 call	 _fgets

; 43   : 		if(Zt_IsBadFileLine(Buff, Flag))

  000a6	8d 95 dc fe ff
	ff		 lea	 edx, DWORD PTR _Flag$[ebp]
  000ac	52		 push	 edx
  000ad	8d 85 fc fe ff
	ff		 lea	 eax, DWORD PTR _Buff$[ebp]
  000b3	50		 push	 eax
  000b4	e8 00 00 00 00	 call	 ?Zt_IsBadFileLine@@YA_NPADAAH@Z ; Zt_IsBadFileLine
  000b9	83 c4 14	 add	 esp, 20			; 00000014H
  000bc	84 c0		 test	 al, al
  000be	0f 85 17 01 00
	00		 jne	 $LN1@Load

; 44   : 			continue;
; 45   : 		if(Flag == 1)

  000c4	39 9d dc fe ff
	ff		 cmp	 DWORD PTR _Flag$[ebp], ebx
  000ca	0f 85 0b 01 00
	00		 jne	 $LN1@Load

; 46   : 		{
; 47   : 			if(g_ZtLicense.CheckUser(eZtUB::ulasevich) || g_ZtLicense.CheckUser(eZtUB::ulasevich2))

  000d0	6a 17		 push	 23			; 00000017H
  000d2	b9 00 00 00 00	 mov	 ecx, OFFSET ?g_ZtLicense@@3VCZtLicense@@A ; g_ZtLicense
  000d7	e8 00 00 00 00	 call	 ?CheckUser@CZtLicense@@QAE_NH@Z ; CZtLicense::CheckUser
  000dc	84 c0		 test	 al, al
  000de	75 71		 jne	 SHORT $LN3@Load
  000e0	6a 24		 push	 36			; 00000024H
  000e2	b9 00 00 00 00	 mov	 ecx, OFFSET ?g_ZtLicense@@3VCZtLicense@@A ; g_ZtLicense
  000e7	e8 00 00 00 00	 call	 ?CheckUser@CZtLicense@@QAE_NH@Z ; CZtLicense::CheckUser
  000ec	84 c0		 test	 al, al
  000ee	75 61		 jne	 SHORT $LN3@Load

; 56   : 			}
; 57   : 			else
; 58   : 			{
; 59   : 				int n[3];
; 60   : 				sscanf(Buff, "%d %d %d", &n[0], &n[1], &n[2]);

  000f0	8d 8d f8 fe ff
	ff		 lea	 ecx, DWORD PTR _n$203634[ebp+8]
  000f6	51		 push	 ecx
  000f7	8d 95 f4 fe ff
	ff		 lea	 edx, DWORD PTR _n$203634[ebp+4]
  000fd	52		 push	 edx
  000fe	8d 85 f0 fe ff
	ff		 lea	 eax, DWORD PTR _n$203634[ebp]
  00104	50		 push	 eax
  00105	8d 8d fc fe ff
	ff		 lea	 ecx, DWORD PTR _Buff$[ebp]
  0010b	68 00 00 00 00	 push	 OFFSET ??_C@_08OOHKHLPO@?$CFd?5?$CFd?5?$CFd?$AA@
  00110	51		 push	 ecx
  00111	e8 00 00 00 00	 call	 _sscanf

; 61   : 				this->MobData[this->Count].MobID = n[0];

  00116	8b 96 44 06 00
	00		 mov	 edx, DWORD PTR [esi+1604]
  0011c	8b 85 f0 fe ff
	ff		 mov	 eax, DWORD PTR _n$203634[ebp]
  00122	03 d2		 add	 edx, edx
  00124	89 44 d6 04	 mov	 DWORD PTR [esi+edx*8+4], eax

; 62   : 				this->MobData[this->Count].BonusType = n[1];

  00128	8b 8e 44 06 00
	00		 mov	 ecx, DWORD PTR [esi+1604]
  0012e	8b 95 f4 fe ff
	ff		 mov	 edx, DWORD PTR _n$203634[ebp+4]
  00134	03 c9		 add	 ecx, ecx
  00136	89 54 ce 08	 mov	 DWORD PTR [esi+ecx*8+8], edx

; 63   : 				this->MobData[this->Count].BonusCount = n[2];

  0013a	8b 86 44 06 00
	00		 mov	 eax, DWORD PTR [esi+1604]
  00140	8b 8d f8 fe ff
	ff		 mov	 ecx, DWORD PTR _n$203634[ebp+8]
  00146	83 c4 14	 add	 esp, 20			; 00000014H
  00149	03 c0		 add	 eax, eax
  0014b	89 4c c6 0c	 mov	 DWORD PTR [esi+eax*8+12], ecx

; 64   : 				this->Count++;

  0014f	eb 79		 jmp	 SHORT $LN15@Load
$LN3@Load:

; 48   : 			{
; 49   : 				int n[4];
; 50   : 				sscanf(Buff, "%d %d %d %d", &n[0], &n[1], &n[2], &n[3]);

  00151	8d 95 ec fe ff
	ff		 lea	 edx, DWORD PTR _n$203631[ebp+12]
  00157	52		 push	 edx
  00158	8d 85 e8 fe ff
	ff		 lea	 eax, DWORD PTR _n$203631[ebp+8]
  0015e	50		 push	 eax
  0015f	8d 8d e4 fe ff
	ff		 lea	 ecx, DWORD PTR _n$203631[ebp+4]
  00165	51		 push	 ecx
  00166	8d 95 e0 fe ff
	ff		 lea	 edx, DWORD PTR _n$203631[ebp]
  0016c	52		 push	 edx
  0016d	8d 85 fc fe ff
	ff		 lea	 eax, DWORD PTR _Buff$[ebp]
  00173	68 00 00 00 00	 push	 OFFSET ??_C@_0M@FMGEODLN@?$CFd?5?$CFd?5?$CFd?5?$CFd?$AA@
  00178	50		 push	 eax
  00179	e8 00 00 00 00	 call	 _sscanf

; 51   : 				this->MobData[this->Count].MobID = n[0];

  0017e	8b 8e 44 06 00
	00		 mov	 ecx, DWORD PTR [esi+1604]
  00184	8b 95 e0 fe ff
	ff		 mov	 edx, DWORD PTR _n$203631[ebp]
  0018a	03 c9		 add	 ecx, ecx
  0018c	89 54 ce 04	 mov	 DWORD PTR [esi+ecx*8+4], edx

; 52   : 				this->MobData[this->Count].BonusType = n[1];

  00190	8b 86 44 06 00
	00		 mov	 eax, DWORD PTR [esi+1604]
  00196	8b 8d e4 fe ff
	ff		 mov	 ecx, DWORD PTR _n$203631[ebp+4]
  0019c	03 c0		 add	 eax, eax
  0019e	89 4c c6 08	 mov	 DWORD PTR [esi+eax*8+8], ecx

; 53   : 				this->MobData[this->Count].BonusCount = n[2];

  001a2	8b 96 44 06 00
	00		 mov	 edx, DWORD PTR [esi+1604]
  001a8	8b 85 e8 fe ff
	ff		 mov	 eax, DWORD PTR _n$203631[ebp+8]
  001ae	03 d2		 add	 edx, edx
  001b0	89 44 d6 0c	 mov	 DWORD PTR [esi+edx*8+12], eax

; 54   : 				this->MobData[this->Count].MapNumber = n[3];

  001b4	8b 8e 44 06 00
	00		 mov	 ecx, DWORD PTR [esi+1604]
  001ba	8b 95 ec fe ff
	ff		 mov	 edx, DWORD PTR _n$203631[ebp+12]
  001c0	03 cb		 add	 ecx, ebx
  001c2	83 c4 18	 add	 esp, 24			; 00000018H
  001c5	03 c9		 add	 ecx, ecx
  001c7	89 14 ce	 mov	 DWORD PTR [esi+ecx*8], edx
$LN15@Load:

; 55   : 				this->Count++;

  001ca	01 9e 44 06 00
	00		 add	 DWORD PTR [esi+1604], ebx
  001d0	8b 86 44 06 00
	00		 mov	 eax, DWORD PTR [esi+1604]

; 65   : 			}
; 66   : 
; 67   : 			if(this->Count >= MAX_MOB_BONUS) break;

  001d6	83 f8 64	 cmp	 eax, 100		; 00000064H
  001d9	7d 11		 jge	 SHORT $LN14@Load
$LN1@Load:

; 33   : 		return;
; 34   : 	}
; 35   : 
; 36   : 	char Buff[256];
; 37   : 	int Flag = 0;
; 38   : 	this->Count = 0;
; 39   : 
; 40   : 	while(!feof(file))

  001db	57		 push	 edi
  001dc	e8 00 00 00 00	 call	 _feof
  001e1	83 c4 04	 add	 esp, 4
  001e4	85 c0		 test	 eax, eax
  001e6	0f 84 a8 fe ff
	ff		 je	 $LL8@Load
$LN14@Load:

; 68   : 		}
; 69   : 	}
; 70   : 	fclose(file);

  001ec	57		 push	 edi
  001ed	e8 00 00 00 00	 call	 _fclose

; 71   : }

  001f2	8b 4d fc	 mov	 ecx, DWORD PTR __$ArrayPad$[ebp]
  001f5	83 c4 04	 add	 esp, 4
  001f8	5f		 pop	 edi
  001f9	5e		 pop	 esi
  001fa	33 cd		 xor	 ecx, ebp
  001fc	5b		 pop	 ebx
  001fd	e8 00 00 00 00	 call	 @__security_check_cookie@4
  00202	8b e5		 mov	 esp, ebp
  00204	5d		 pop	 ebp
  00205	c3		 ret	 0
?Load@cMonsterBonus@@QAEXXZ ENDP			; cMonsterBonus::Load
_TEXT	ENDS
PUBLIC	??_C@_0CG@MFFNBMBD@?$EA?$FLPremium?5Status?$FN?5?$CL?$CFd?5Hour?0?5Type@ ; `string'
PUBLIC	??_C@_0CI@JJCDAOOL@?$EA?$FLPremium?5Status?$FN?5?$CL?$CFd?5Hour?0?5Type@ ; `string'
PUBLIC	??_C@_0CI@PBGPAOLC@?$EA?$FLPremium?5Status?$FN?5?$CL?$CFd?5Hour?0?5Type@ ; `string'
PUBLIC	?Main@cMonsterBonus@@QAEXPAUOBJECTSTRUCT@@0@Z	; cMonsterBonus::Main
EXTRN	?MessageChat@@YAXHPADZZ:PROC			; MessageChat
EXTRN	?MsgNormal@@YAXHPADZZ:PROC			; MsgNormal
EXTRN	?GetText@CZtText@@QAEPADH@Z:PROC		; CZtText::GetText
EXTRN	?g_ZtText@@3VCZtText@@A:BYTE			; g_ZtText
EXTRN	?GDSaveUserInfo@GameShop@@QAEXH@Z:PROC		; GameShop::GDSaveUserInfo
EXTRN	?gGameShop@@3VGameShop@@A:BYTE			; gGameShop
EXTRN	?ZtUserDataSend@@YAXH@Z:PROC			; ZtUserDataSend
EXTRN	__fltused:DWORD
;	COMDAT ??_C@_0CG@MFFNBMBD@?$EA?$FLPremium?5Status?$FN?5?$CL?$CFd?5Hour?0?5Type@
CONST	SEGMENT
??_C@_0CG@MFFNBMBD@?$EA?$FLPremium?5Status?$FN?5?$CL?$CFd?5Hour?0?5Type@ DB '@'
	DB	'[Premium Status] +%d Hour, Type:Gold', 00H	; `string'
CONST	ENDS
;	COMDAT ??_C@_0CI@JJCDAOOL@?$EA?$FLPremium?5Status?$FN?5?$CL?$CFd?5Hour?0?5Type@
CONST	SEGMENT
??_C@_0CI@JJCDAOOL@?$EA?$FLPremium?5Status?$FN?5?$CL?$CFd?5Hour?0?5Type@ DB '@'
	DB	'[Premium Status] +%d Hour, Type:Silver', 00H ; `string'
CONST	ENDS
;	COMDAT ??_C@_0CI@PBGPAOLC@?$EA?$FLPremium?5Status?$FN?5?$CL?$CFd?5Hour?0?5Type@
CONST	SEGMENT
??_C@_0CI@PBGPAOLC@?$EA?$FLPremium?5Status?$FN?5?$CL?$CFd?5Hour?0?5Type@ DB '@'
	DB	'[Premium Status] +%d Hour, Type:Bronze', 00H ; `string'
; Function compile flags: /Ogtp
CONST	ENDS
;	COMDAT ?Main@cMonsterBonus@@QAEXPAUOBJECTSTRUCT@@0@Z
_TEXT	SEGMENT
_lpMobObj$ = 8						; size = 4
_lpTargetObj$ = 12					; size = 4
?Main@cMonsterBonus@@QAEXPAUOBJECTSTRUCT@@0@Z PROC	; cMonsterBonus::Main, COMDAT
; _this$ = ecx

; 74   : {

  00000	55		 push	 ebp
  00001	8b ec		 mov	 ebp, esp
  00003	53		 push	 ebx
  00004	8b d9		 mov	 ebx, ecx

; 75   : 	if(!this->Enable) return;

  00006	80 3b 00	 cmp	 BYTE PTR [ebx], 0
  00009	0f 84 3e 02 00
	00		 je	 $LN1@Main

; 76   : 	for(int i = 0; i < this->Count; i++)

  0000f	56		 push	 esi
  00010	33 f6		 xor	 esi, esi
  00012	39 b3 44 06 00
	00		 cmp	 DWORD PTR [ebx+1604], esi
  00018	0f 8e 2e 02 00
	00		 jle	 $LN29@Main
  0001e	57		 push	 edi
  0001f	8d 7b 04	 lea	 edi, DWORD PTR [ebx+4]
$LL21@Main:

; 77   : 	{
; 78   : 		if(g_ZtLicense.CheckUser(eZtUB::ulasevich) || g_ZtLicense.CheckUser(eZtUB::ulasevich2))

  00022	6a 17		 push	 23			; 00000017H
  00024	b9 00 00 00 00	 mov	 ecx, OFFSET ?g_ZtLicense@@3VCZtLicense@@A ; g_ZtLicense
  00029	e8 00 00 00 00	 call	 ?CheckUser@CZtLicense@@QAE_NH@Z ; CZtLicense::CheckUser
  0002e	84 c0		 test	 al, al
  00030	75 10		 jne	 SHORT $LN17@Main
  00032	6a 24		 push	 36			; 00000024H
  00034	b9 00 00 00 00	 mov	 ecx, OFFSET ?g_ZtLicense@@3VCZtLicense@@A ; g_ZtLicense
  00039	e8 00 00 00 00	 call	 ?CheckUser@CZtLicense@@QAE_NH@Z ; CZtLicense::CheckUser
  0003e	84 c0		 test	 al, al
  00040	74 0f		 je	 SHORT $LN28@Main
$LN17@Main:

; 79   : 		{
; 80   : 			if(lpMobObj->MapNumber != this->MobData[i].MapNumber)

  00042	8b 45 08	 mov	 eax, DWORD PTR _lpMobObj$[ebp]
  00045	0f b6 88 49 01
	00 00		 movzx	 ecx, BYTE PTR [eax+329]
  0004c	3b 4f 0c	 cmp	 ecx, DWORD PTR [edi+12]
  0004f	75 0e		 jne	 SHORT $LN20@Main
$LN28@Main:

; 81   : 			{
; 82   : 				continue;
; 83   : 			}
; 84   : 		}
; 85   : 
; 86   : 		if(lpMobObj->Class == this->MobData[i].MobID)

  00051	8b 55 08	 mov	 edx, DWORD PTR _lpMobObj$[ebp]
  00054	0f b7 82 b8 00
	00 00		 movzx	 eax, WORD PTR [edx+184]
  0005b	3b 07		 cmp	 eax, DWORD PTR [edi]
  0005d	74 13		 je	 SHORT $LN26@Main
$LN20@Main:

; 76   : 	for(int i = 0; i < this->Count; i++)

  0005f	46		 inc	 esi
  00060	83 c7 10	 add	 edi, 16			; 00000010H
  00063	3b b3 44 06 00
	00		 cmp	 esi, DWORD PTR [ebx+1604]
  00069	7c b7		 jl	 SHORT $LL21@Main
  0006b	5f		 pop	 edi
  0006c	5e		 pop	 esi
  0006d	5b		 pop	 ebx

; 139  : 				 }
; 140  : 			}
; 141  : #endif
; 142  : 			return;
; 143  : 		}
; 144  : 	}
; 145  : }

  0006e	5d		 pop	 ebp
  0006f	c2 08 00	 ret	 8
$LN26@Main:

; 87   : 		{
; 88   : 			if(this->MobData[i].BonusType == 1)	//Credits

  00072	c1 e6 04	 shl	 esi, 4
  00075	8b 44 1e 08	 mov	 eax, DWORD PTR [esi+ebx+8]
  00079	03 f3		 add	 esi, ebx
  0007b	83 f8 01	 cmp	 eax, 1
  0007e	75 2a		 jne	 SHORT $LN14@Main

; 89   : 			{
; 90   : 				lpTargetObj->ZtCred += this->MobData[i].BonusCount;

  00080	db 46 0c	 fild	 DWORD PTR [esi+12]
  00083	8d 7e 0c	 lea	 edi, DWORD PTR [esi+12]
  00086	8b 75 0c	 mov	 esi, DWORD PTR _lpTargetObj$[ebp]

; 91   : 				ZtUserDataSend(lpTargetObj->m_Index);	//Може?быть реконект если быстро убиваешь монстров нужн?пересматривать

  00089	8b 0e		 mov	 ecx, DWORD PTR [esi]
  0008b	d8 86 a8 22 00
	00		 fadd	 DWORD PTR [esi+8872]
  00091	51		 push	 ecx
  00092	d9 9e a8 22 00
	00		 fstp	 DWORD PTR [esi+8872]
  00098	e8 00 00 00 00	 call	 ?ZtUserDataSend@@YAXH@Z	; ZtUserDataSend

; 92   : 				MsgNormal(lpTargetObj->m_Index,g_ZtText.GetText(109),this->MobData[i].BonusCount);

  0009d	8b 17		 mov	 edx, DWORD PTR [edi]
  0009f	83 c4 04	 add	 esp, 4
  000a2	52		 push	 edx
  000a3	6a 6d		 push	 109			; 0000006dH

; 93   : 				return;

  000a5	e9 88 00 00 00	 jmp	 $LN32@Main
$LN14@Main:

; 94   : 			}
; 95   : 			else if(this->MobData[i].BonusType == 2)	//WcoinC

  000aa	83 f8 02	 cmp	 eax, 2
  000ad	75 29		 jne	 SHORT $LN12@Main

; 96   : 			{
; 97   : 				lpTargetObj->GameShop.WCoinC += this->MobData[i].BonusCount;

  000af	db 46 0c	 fild	 DWORD PTR [esi+12]
  000b2	8d 7e 0c	 lea	 edi, DWORD PTR [esi+12]
  000b5	8b 75 0c	 mov	 esi, DWORD PTR _lpTargetObj$[ebp]

; 98   : 				gGameShop.GDSaveUserInfo(lpTargetObj->m_Index);

  000b8	8b 0e		 mov	 ecx, DWORD PTR [esi]
  000ba	dc 86 00 23 00
	00		 fadd	 QWORD PTR [esi+8960]
  000c0	51		 push	 ecx
  000c1	b9 00 00 00 00	 mov	 ecx, OFFSET ?gGameShop@@3VGameShop@@A ; gGameShop
  000c6	dd 9e 00 23 00
	00		 fstp	 QWORD PTR [esi+8960]
  000cc	e8 00 00 00 00	 call	 ?GDSaveUserInfo@GameShop@@QAEXH@Z ; GameShop::GDSaveUserInfo

; 99   : 				MsgNormal(lpTargetObj->m_Index,g_ZtText.GetText(110),this->MobData[i].BonusCount);

  000d1	8b 17		 mov	 edx, DWORD PTR [edi]
  000d3	52		 push	 edx
  000d4	6a 6e		 push	 110			; 0000006eH

; 100  : 				return;

  000d6	eb 5a		 jmp	 SHORT $LN32@Main
$LN12@Main:

; 101  : 			}
; 102  : 			else if(this->MobData[i].BonusType == 3)	//Wcoin

  000d8	83 f8 03	 cmp	 eax, 3
  000db	75 29		 jne	 SHORT $LN10@Main

; 103  : 			{
; 104  : 				lpTargetObj->GameShop.WCoinP += this->MobData[i].BonusCount;

  000dd	db 46 0c	 fild	 DWORD PTR [esi+12]
  000e0	8d 7e 0c	 lea	 edi, DWORD PTR [esi+12]
  000e3	8b 75 0c	 mov	 esi, DWORD PTR _lpTargetObj$[ebp]

; 105  : 				gGameShop.GDSaveUserInfo(lpTargetObj->m_Index);

  000e6	8b 0e		 mov	 ecx, DWORD PTR [esi]
  000e8	dc 86 f8 22 00
	00		 fadd	 QWORD PTR [esi+8952]
  000ee	51		 push	 ecx
  000ef	b9 00 00 00 00	 mov	 ecx, OFFSET ?gGameShop@@3VGameShop@@A ; gGameShop
  000f4	dd 9e f8 22 00
	00		 fstp	 QWORD PTR [esi+8952]
  000fa	e8 00 00 00 00	 call	 ?GDSaveUserInfo@GameShop@@QAEXH@Z ; GameShop::GDSaveUserInfo

; 106  : 				MsgNormal(lpTargetObj->m_Index,g_ZtText.GetText(111),this->MobData[i].BonusCount);

  000ff	8b 17		 mov	 edx, DWORD PTR [edi]
  00101	52		 push	 edx
  00102	6a 6f		 push	 111			; 0000006fH

; 107  : 				return;

  00104	eb 2c		 jmp	 SHORT $LN32@Main
$LN10@Main:

; 108  : 			}
; 109  : 			else if(this->MobData[i].BonusType == 4)	//Wcoin

  00106	83 f8 04	 cmp	 eax, 4
  00109	75 44		 jne	 SHORT $LN8@Main

; 110  : 			{
; 111  : 				lpTargetObj->GameShop.GoblinPoint += this->MobData[i].BonusCount;

  0010b	db 46 0c	 fild	 DWORD PTR [esi+12]
  0010e	8d 7e 0c	 lea	 edi, DWORD PTR [esi+12]
  00111	8b 75 0c	 mov	 esi, DWORD PTR _lpTargetObj$[ebp]

; 112  : 				gGameShop.GDSaveUserInfo(lpTargetObj->m_Index);

  00114	8b 0e		 mov	 ecx, DWORD PTR [esi]
  00116	dc 86 08 23 00
	00		 fadd	 QWORD PTR [esi+8968]
  0011c	51		 push	 ecx
  0011d	b9 00 00 00 00	 mov	 ecx, OFFSET ?gGameShop@@3VGameShop@@A ; gGameShop
  00122	dd 9e 08 23 00
	00		 fstp	 QWORD PTR [esi+8968]
  00128	e8 00 00 00 00	 call	 ?GDSaveUserInfo@GameShop@@QAEXH@Z ; GameShop::GDSaveUserInfo

; 113  : 				MsgNormal(lpTargetObj->m_Index,g_ZtText.GetText(112),this->MobData[i].BonusCount);

  0012d	8b 17		 mov	 edx, DWORD PTR [edi]
  0012f	52		 push	 edx
  00130	6a 70		 push	 112			; 00000070H
$LN32@Main:
  00132	b9 00 00 00 00	 mov	 ecx, OFFSET ?g_ZtText@@3VCZtText@@A ; g_ZtText
  00137	e8 00 00 00 00	 call	 ?GetText@CZtText@@QAEPADH@Z ; CZtText::GetText
  0013c	50		 push	 eax
  0013d	8b 06		 mov	 eax, DWORD PTR [esi]
  0013f	50		 push	 eax
  00140	e8 00 00 00 00	 call	 ?MsgNormal@@YAXHPADZZ	; MsgNormal
  00145	83 c4 0c	 add	 esp, 12			; 0000000cH
  00148	5f		 pop	 edi
  00149	5e		 pop	 esi
  0014a	5b		 pop	 ebx

; 139  : 				 }
; 140  : 			}
; 141  : #endif
; 142  : 			return;
; 143  : 		}
; 144  : 	}
; 145  : }

  0014b	5d		 pop	 ebp
  0014c	c2 08 00	 ret	 8
$LN8@Main:

; 114  : 				return;
; 115  : 			}
; 116  : #if(CUSTOM_MONSTER_PREMIUM)
; 117  : 			if(g_ZtLicense.CheckUser(eZtUB::Local) || g_ZtLicense.CheckUser(eZtUB::ulasevich) || g_ZtLicense.CheckUser(eZtUB::ulasevich2))

  0014f	6a 00		 push	 0
  00151	b9 00 00 00 00	 mov	 ecx, OFFSET ?g_ZtLicense@@3VCZtLicense@@A ; g_ZtLicense
  00156	e8 00 00 00 00	 call	 ?CheckUser@CZtLicense@@QAE_NH@Z ; CZtLicense::CheckUser
  0015b	84 c0		 test	 al, al
  0015d	75 24		 jne	 SHORT $LN6@Main
  0015f	6a 17		 push	 23			; 00000017H
  00161	b9 00 00 00 00	 mov	 ecx, OFFSET ?g_ZtLicense@@3VCZtLicense@@A ; g_ZtLicense
  00166	e8 00 00 00 00	 call	 ?CheckUser@CZtLicense@@QAE_NH@Z ; CZtLicense::CheckUser
  0016b	84 c0		 test	 al, al
  0016d	75 14		 jne	 SHORT $LN6@Main
  0016f	6a 24		 push	 36			; 00000024H
  00171	b9 00 00 00 00	 mov	 ecx, OFFSET ?g_ZtLicense@@3VCZtLicense@@A ; g_ZtLicense
  00176	e8 00 00 00 00	 call	 ?CheckUser@CZtLicense@@QAE_NH@Z ; CZtLicense::CheckUser
  0017b	84 c0		 test	 al, al
  0017d	0f 84 c8 00 00
	00		 je	 $LN30@Main
$LN6@Main:

; 118  : 			{
; 119  : 				 if(this->MobData[i].BonusType == 5)

  00183	8b 46 08	 mov	 eax, DWORD PTR [esi+8]
  00186	83 f8 05	 cmp	 eax, 5
  00189	75 3f		 jne	 SHORT $LN5@Main

; 120  : 				 {
; 121  : 					lpTargetObj->PremiumTime += (this->MobData[i].BonusCount * 3600);

  0018b	8b 4e 0c	 mov	 ecx, DWORD PTR [esi+12]
  0018e	8b 7d 0c	 mov	 edi, DWORD PTR _lpTargetObj$[ebp]
  00191	69 c9 10 0e 00
	00		 imul	 ecx, 3600		; 00000e10H
  00197	01 8f b8 22 00
	00		 add	 DWORD PTR [edi+8888], ecx

; 122  : 					lpTargetObj->PremiumTimeType = PREM_BRONZE;
; 123  : 					MessageChat(lpTargetObj->m_Index, "@[Premium Status] +%d Hour, Type:Bronze", this->MobData[i].BonusCount);

  0019d	8b 07		 mov	 eax, DWORD PTR [edi]
  0019f	c7 87 bc 22 00
	00 01 00 00 00	 mov	 DWORD PTR [edi+8892], 1
  001a9	8b 56 0c	 mov	 edx, DWORD PTR [esi+12]
  001ac	52		 push	 edx
  001ad	68 00 00 00 00	 push	 OFFSET ??_C@_0CI@PBGPAOLC@?$EA?$FLPremium?5Status?$FN?5?$CL?$CFd?5Hour?0?5Type@
  001b2	50		 push	 eax
  001b3	e8 00 00 00 00	 call	 ?MessageChat@@YAXHPADZZ	; MessageChat

; 124  : 					ZtUserDataSend(lpTargetObj->m_Index);

  001b8	8b 0f		 mov	 ecx, DWORD PTR [edi]
  001ba	51		 push	 ecx

; 138  : 					ZtUserDataSend(lpTargetObj->m_Index);

  001bb	e8 00 00 00 00	 call	 ?ZtUserDataSend@@YAXH@Z	; ZtUserDataSend
  001c0	83 c4 10	 add	 esp, 16			; 00000010H
  001c3	5f		 pop	 edi
  001c4	5e		 pop	 esi
  001c5	5b		 pop	 ebx

; 139  : 				 }
; 140  : 			}
; 141  : #endif
; 142  : 			return;
; 143  : 		}
; 144  : 	}
; 145  : }

  001c6	5d		 pop	 ebp
  001c7	c2 08 00	 ret	 8
$LN5@Main:

; 125  : 				 }
; 126  : 				 else if(this->MobData[i].BonusType == 6)

  001ca	83 f8 06	 cmp	 eax, 6
  001cd	75 3f		 jne	 SHORT $LN3@Main

; 127  : 				 {
; 128  : 					lpTargetObj->PremiumTime += (this->MobData[i].BonusCount * 3600);

  001cf	8b 56 0c	 mov	 edx, DWORD PTR [esi+12]
  001d2	8b 7d 0c	 mov	 edi, DWORD PTR _lpTargetObj$[ebp]
  001d5	69 d2 10 0e 00
	00		 imul	 edx, 3600		; 00000e10H
  001db	01 97 b8 22 00
	00		 add	 DWORD PTR [edi+8888], edx

; 129  : 					lpTargetObj->PremiumTimeType = PREM_SILVER;
; 130  : 					MessageChat(lpTargetObj->m_Index, "@[Premium Status] +%d Hour, Type:Silver", this->MobData[i].BonusCount);

  001e1	8b 0f		 mov	 ecx, DWORD PTR [edi]
  001e3	c7 87 bc 22 00
	00 02 00 00 00	 mov	 DWORD PTR [edi+8892], 2
  001ed	8b 46 0c	 mov	 eax, DWORD PTR [esi+12]
  001f0	50		 push	 eax
  001f1	68 00 00 00 00	 push	 OFFSET ??_C@_0CI@JJCDAOOL@?$EA?$FLPremium?5Status?$FN?5?$CL?$CFd?5Hour?0?5Type@
  001f6	51		 push	 ecx
  001f7	e8 00 00 00 00	 call	 ?MessageChat@@YAXHPADZZ	; MessageChat

; 131  : 					ZtUserDataSend(lpTargetObj->m_Index);

  001fc	8b 17		 mov	 edx, DWORD PTR [edi]
  001fe	52		 push	 edx

; 138  : 					ZtUserDataSend(lpTargetObj->m_Index);

  001ff	e8 00 00 00 00	 call	 ?ZtUserDataSend@@YAXH@Z	; ZtUserDataSend
  00204	83 c4 10	 add	 esp, 16			; 00000010H
  00207	5f		 pop	 edi
  00208	5e		 pop	 esi
  00209	5b		 pop	 ebx

; 139  : 				 }
; 140  : 			}
; 141  : #endif
; 142  : 			return;
; 143  : 		}
; 144  : 	}
; 145  : }

  0020a	5d		 pop	 ebp
  0020b	c2 08 00	 ret	 8
$LN3@Main:

; 132  : 				 }
; 133  : 				 else if(this->MobData[i].BonusType == 7)

  0020e	83 f8 07	 cmp	 eax, 7
  00211	75 38		 jne	 SHORT $LN30@Main

; 134  : 				 {
; 135  : 					lpTargetObj->PremiumTime += (this->MobData[i].BonusCount * 3600);

  00213	8b 46 0c	 mov	 eax, DWORD PTR [esi+12]
  00216	8b 7d 0c	 mov	 edi, DWORD PTR _lpTargetObj$[ebp]
  00219	69 c0 10 0e 00
	00		 imul	 eax, 3600		; 00000e10H
  0021f	01 87 b8 22 00
	00		 add	 DWORD PTR [edi+8888], eax

; 136  : 					lpTargetObj->PremiumTimeType = PREM_GOLD;
; 137  : 					MessageChat(lpTargetObj->m_Index, "@[Premium Status] +%d Hour, Type:Gold", this->MobData[i].BonusCount);

  00225	8b 17		 mov	 edx, DWORD PTR [edi]
  00227	c7 87 bc 22 00
	00 03 00 00 00	 mov	 DWORD PTR [edi+8892], 3
  00231	8b 4e 0c	 mov	 ecx, DWORD PTR [esi+12]
  00234	51		 push	 ecx
  00235	68 00 00 00 00	 push	 OFFSET ??_C@_0CG@MFFNBMBD@?$EA?$FLPremium?5Status?$FN?5?$CL?$CFd?5Hour?0?5Type@
  0023a	52		 push	 edx
  0023b	e8 00 00 00 00	 call	 ?MessageChat@@YAXHPADZZ	; MessageChat

; 138  : 					ZtUserDataSend(lpTargetObj->m_Index);

  00240	8b 07		 mov	 eax, DWORD PTR [edi]
  00242	50		 push	 eax
  00243	e8 00 00 00 00	 call	 ?ZtUserDataSend@@YAXH@Z	; ZtUserDataSend
  00248	83 c4 10	 add	 esp, 16			; 00000010H
$LN30@Main:
  0024b	5f		 pop	 edi
$LN29@Main:
  0024c	5e		 pop	 esi
$LN1@Main:
  0024d	5b		 pop	 ebx

; 139  : 				 }
; 140  : 			}
; 141  : #endif
; 142  : 			return;
; 143  : 		}
; 144  : 	}
; 145  : }

  0024e	5d		 pop	 ebp
  0024f	c2 08 00	 ret	 8
?Main@cMonsterBonus@@QAEXPAUOBJECTSTRUCT@@0@Z ENDP	; cMonsterBonus::Main
_TEXT	ENDS
EXTRN	_atexit:PROC
; Function compile flags: /Ogtp
;	COMDAT ??__EgMonsterBonus@@YAXXZ
text$yc	SEGMENT
??__EgMonsterBonus@@YAXXZ PROC				; `dynamic initializer for 'gMonsterBonus'', COMDAT

; 10   : cMonsterBonus gMonsterBonus;

  00000	b9 00 00 00 00	 mov	 ecx, OFFSET ?gMonsterBonus@@3VcMonsterBonus@@A ; gMonsterBonus
  00005	e8 00 00 00 00	 call	 ??0cMonsterBonus@@QAE@XZ ; cMonsterBonus::cMonsterBonus
  0000a	68 00 00 00 00	 push	 OFFSET ??__FgMonsterBonus@@YAXXZ ; `dynamic atexit destructor for 'gMonsterBonus''
  0000f	e8 00 00 00 00	 call	 _atexit
  00014	59		 pop	 ecx
  00015	c3		 ret	 0
??__EgMonsterBonus@@YAXXZ ENDP				; `dynamic initializer for 'gMonsterBonus''
; Function compile flags: /Ogtp
text$yc	ENDS
;	COMDAT ??__FgMonsterBonus@@YAXXZ
text$yd	SEGMENT
??__FgMonsterBonus@@YAXXZ PROC				; `dynamic atexit destructor for 'gMonsterBonus'', COMDAT
  00000	c3		 ret	 0
??__FgMonsterBonus@@YAXXZ ENDP				; `dynamic atexit destructor for 'gMonsterBonus''
text$yd	ENDS
PUBLIC	?gMonsterBonus@@3VcMonsterBonus@@A		; gMonsterBonus
_BSS	SEGMENT
?gMonsterBonus@@3VcMonsterBonus@@A DB 0648H DUP (?)	; gMonsterBonus
_BSS	ENDS
CRT$XCU	SEGMENT
_gMonsterBonus$initializer$ DD FLAT:??__EgMonsterBonus@@YAXXZ
CRT$XCU	ENDS
END
