; Listing generated by Microsoft (R) Optimizing Compiler Version 16.00.30319.01 

	TITLE	E:\work\tranet_version\GS\GameServer\MonsterQuest.cpp
	.686P
	.XMM
	include listing.inc
	.model	flat

INCLUDELIB LIBCMT
INCLUDELIB OLDNAMES

_DATA	SEGMENT
_g_iNpcUpDfLevel_CGATE DD 01H
	DD	02H
	DD	02dc6c0H
	DD	02H
	DD	03H
	DD	02dc6c0H
	DD	03H
	DD	04H
	DD	02dc6c0H
_g_iNpcUpDfLevel_CSTATUE DD 01H
	DD	03H
	DD	02dc6c0H
	DD	02H
	DD	05H
	DD	02dc6c0H
	DD	03H
	DD	07H
	DD	02dc6c0H
_g_iNpcUpMaxHP_CGATE DD 02625a0H
	DD	02H
	DD	0f4240H
	DD	03567e0H
	DD	03H
	DD	0f4240H
	DD	04f5880H
	DD	04H
	DD	0f4240H
_g_iNpcUpMaxHP_CSTATUE DD 02191c0H
	DD	03H
	DD	0f4240H
	DD	033e140H
	DD	05H
	DD	0f4240H
	DD	04c4b40H
	DD	07H
	DD	0f4240H
_g_iNpcUpRgLevel_CSTATUE DD 01H
	DD	03H
	DD	04c4b40H
	DD	02H
	DD	05H
	DD	04c4b40H
	DD	03H
	DD	07H
	DD	04c4b40H
_g_iCsUserReSpawnArea DD 023H
	DD	011H
	DD	090H
	DD	030H
	DD	04aH
	DD	090H
	DD	073H
	DD	09aH
	DD	023H
	DD	011H
	DD	090H
	DD	030H
_g_iNpcDefense_CGATE DD 064H
	DD	0b4H
	DD	012cH
	DD	0208H
_g_iNpcDefense_CSTATUE DD 050H
	DD	0b4H
	DD	0154H
	DD	0226H
_g_iCastleWallStepAxisY DD 071H
	DD	0a0H
	DD	0cbH
_DATA	ENDS
PUBLIC	?set@PBMSG_HEAD2@@QAEXPAEEEE@Z			; PBMSG_HEAD2::set
; Function compile flags: /Ogtp
; File e:\work\tranet_version\gs\include\prodef.h
;	COMDAT ?set@PBMSG_HEAD2@@QAEXPAEEEE@Z
_TEXT	SEGMENT
_lpBuf$ = 8						; size = 4
_head$ = 12						; size = 1
_sub$ = 16						; size = 1
_size$ = 20						; size = 1
?set@PBMSG_HEAD2@@QAEXPAEEEE@Z PROC			; PBMSG_HEAD2::set, COMDAT
; _this$ = ecx

; 104  : 	{

  00000	55		 push	 ebp
  00001	8b ec		 mov	 ebp, esp

; 105  : 		lpBuf[0] = 0xC1;

  00003	8b 45 08	 mov	 eax, DWORD PTR _lpBuf$[ebp]

; 106  : 		lpBuf[1] = size;

  00006	8a 4d 14	 mov	 cl, BYTE PTR _size$[ebp]

; 107  : 		lpBuf[2] = head;

  00009	8a 55 0c	 mov	 dl, BYTE PTR _head$[ebp]
  0000c	88 48 01	 mov	 BYTE PTR [eax+1], cl

; 108  : 		lpBuf[3] = sub;

  0000f	8a 4d 10	 mov	 cl, BYTE PTR _sub$[ebp]
  00012	c6 00 c1	 mov	 BYTE PTR [eax], 193	; 000000c1H
  00015	88 50 02	 mov	 BYTE PTR [eax+2], dl
  00018	88 48 03	 mov	 BYTE PTR [eax+3], cl

; 109  : 	};

  0001b	5d		 pop	 ebp
  0001c	c2 10 00	 ret	 16			; 00000010H
?set@PBMSG_HEAD2@@QAEXPAEEEE@Z ENDP			; PBMSG_HEAD2::set
_TEXT	ENDS
PUBLIC	??_H@YGXPAXIHP6EPAX0@Z@Z			; `vector constructor iterator'
; Function compile flags: /Ogtp
;	COMDAT ??_H@YGXPAXIHP6EPAX0@Z@Z
_TEXT	SEGMENT
___t$ = 8						; size = 4
___s$ = 12						; size = 4
___n$ = 16						; size = 4
___f$ = 20						; size = 4
??_H@YGXPAXIHP6EPAX0@Z@Z PROC				; `vector constructor iterator', COMDAT
  00000	55		 push	 ebp
  00001	8b ec		 mov	 ebp, esp
  00003	57		 push	 edi
  00004	8b 7d 10	 mov	 edi, DWORD PTR ___n$[ebp]
  00007	4f		 dec	 edi
  00008	78 14		 js	 SHORT $LN1@vector
  0000a	53		 push	 ebx
  0000b	8b 5d 14	 mov	 ebx, DWORD PTR ___f$[ebp]
  0000e	56		 push	 esi
  0000f	8b 75 08	 mov	 esi, DWORD PTR ___t$[ebp]
$LL2@vector:
  00012	8b ce		 mov	 ecx, esi
  00014	ff d3		 call	 ebx
  00016	03 75 0c	 add	 esi, DWORD PTR ___s$[ebp]
  00019	4f		 dec	 edi
  0001a	79 f6		 jns	 SHORT $LL2@vector
  0001c	5e		 pop	 esi
  0001d	5b		 pop	 ebx
$LN1@vector:
  0001e	5f		 pop	 edi
  0001f	5d		 pop	 ebp
  00020	c2 10 00	 ret	 16			; 00000010H
??_H@YGXPAXIHP6EPAX0@Z@Z ENDP				; `vector constructor iterator'
_TEXT	ENDS
PUBLIC	__$ArrayPad$
EXTRN	_isalnum:PROC
EXTRN	_isalpha:PROC
EXTRN	_atof:PROC
EXTRN	_isdigit:PROC
EXTRN	_getc:PROC
EXTRN	_ungetc:PROC
EXTRN	_isspace:PROC
EXTRN	_fgetc:PROC
EXTRN	___security_cookie:DWORD
EXTRN	__fltused:DWORD
EXTRN	@__security_check_cookie@4:PROC
_BSS	SEGMENT
_CurrentToken DD 01H DUP (?)
_TokenNumber DD	01H DUP (?)
_SMDFile DD	01H DUP (?)
_TokenString DB	064H DUP (?)
; Function compile flags: /Ogtp
; File e:\work\tranet_version\gs\include\readscript.h
_BSS	ENDS
;	COMDAT ?GetToken@@YA?AW4SMDToken@@XZ
_TEXT	SEGMENT
_TempString$ = -104					; size = 100
__$ArrayPad$ = -4					; size = 4
?GetToken@@YA?AW4SMDToken@@XZ PROC			; GetToken, COMDAT

; 24   : {

  00000	55		 push	 ebp
  00001	8b ec		 mov	 ebp, esp
  00003	83 ec 68	 sub	 esp, 104		; 00000068H
  00006	a1 00 00 00 00	 mov	 eax, DWORD PTR ___security_cookie
  0000b	33 c5		 xor	 eax, ebp
  0000d	89 45 fc	 mov	 DWORD PTR __$ArrayPad$[ebp], eax

; 25   : 	char ch;
; 26   : 	char* p;
; 27   : 	char TempString[100];
; 28   : 
; 29   : 	TokenString[0]=0;

  00010	c6 05 00 00 00
	00 00		 mov	 BYTE PTR _TokenString, 0
  00017	53		 push	 ebx
  00018	eb 06 8d 9b 00
	00 00 00	 npad	 8
$LL31@GetToken:

; 30   : 
; 31   : 	do
; 32   : 	{
; 33   : 		if ((ch=fgetc(SMDFile)) == -1)

  00020	a1 00 00 00 00	 mov	 eax, DWORD PTR _SMDFile
  00025	50		 push	 eax
  00026	e8 00 00 00 00	 call	 _fgetc
  0002b	8a d8		 mov	 bl, al
  0002d	83 c4 04	 add	 esp, 4
  00030	80 fb ff	 cmp	 bl, -1
  00033	74 64		 je	 SHORT $LN39@GetToken

; 36   : 		}
; 37   : 		else
; 38   : 		{	
; 39   : 			if (ch=='/')		// this is /

  00035	80 fb 2f	 cmp	 bl, 47			; 0000002fH
  00038	75 31		 jne	 SHORT $LN30@GetToken

; 40   : 			{
; 41   : 				if((ch=fgetc(SMDFile)) == '/')

  0003a	8b 0d 00 00 00
	00		 mov	 ecx, DWORD PTR _SMDFile
  00040	51		 push	 ecx
  00041	e8 00 00 00 00	 call	 _fgetc
  00046	8a d8		 mov	 bl, al
  00048	83 c4 04	 add	 esp, 4
  0004b	80 fb 2f	 cmp	 bl, 47			; 0000002fH
  0004e	75 1b		 jne	 SHORT $LN30@GetToken
$LL24@GetToken:

; 42   : 				{
; 43   : 					while ((ch != '\n') && (ch != -1))	// End of Line (EOL)

  00050	80 fb ff	 cmp	 bl, -1
  00053	74 44		 je	 SHORT $LN39@GetToken

; 44   : 					{
; 45   : 						ch=fgetc(SMDFile);

  00055	8b 15 00 00 00
	00		 mov	 edx, DWORD PTR _SMDFile
  0005b	52		 push	 edx
  0005c	e8 00 00 00 00	 call	 _fgetc
  00061	8a d8		 mov	 bl, al
  00063	83 c4 04	 add	 esp, 4
  00066	80 fb 0a	 cmp	 bl, 10			; 0000000aH
  00069	75 e5		 jne	 SHORT $LL24@GetToken
$LN30@GetToken:

; 46   : 					}
; 47   : 	
; 48   : 					if (ch == -1)
; 49   : 					{
; 50   : 						return END;	// End of FILE
; 51   : 					}
; 52   : 				}
; 53   : 			}
; 54   : 		}
; 55   : 	}
; 56   : 	while (isspace(ch) != 0);

  0006b	0f be c3	 movsx	 eax, bl
  0006e	50		 push	 eax
  0006f	e8 00 00 00 00	 call	 _isspace
  00074	83 c4 04	 add	 esp, 4
  00077	85 c0		 test	 eax, eax
  00079	75 a5		 jne	 SHORT $LL31@GetToken

; 57   : 
; 58   : 	
; 59   : 	switch(ch)

  0007b	0f be c3	 movsx	 eax, bl
  0007e	8d 48 de	 lea	 ecx, DWORD PTR [eax-34]
  00081	56		 push	 esi
  00082	83 f9 5b	 cmp	 ecx, 91			; 0000005bH
  00085	0f 87 2b 01 00
	00		 ja	 $LN6@GetToken
  0008b	0f b6 89 00 00
	00 00		 movzx	 ecx, BYTE PTR $LN46@GetToken[ecx]
  00092	ff 24 8d 00 00
	00 00		 jmp	 DWORD PTR $LN50@GetToken[ecx*4]
$LN39@GetToken:

; 34   : 		{
; 35   : 			return END;	// End of FILE (EOF)

  00099	b8 02 00 00 00	 mov	 eax, 2
  0009e	5b		 pop	 ebx

; 147  : 		}
; 148  : 		break;
; 149  : 
; 150  : 	}
; 151  : 
; 152  : 	return NAME;
; 153  : }

  0009f	8b 4d fc	 mov	 ecx, DWORD PTR __$ArrayPad$[ebp]
  000a2	33 cd		 xor	 ecx, ebp
  000a4	e8 00 00 00 00	 call	 @__security_check_cookie@4
  000a9	8b e5		 mov	 esp, ebp
  000ab	5d		 pop	 ebp
  000ac	c3		 ret	 0
$LN19@GetToken:

; 60   : 	{
; 61   : 
; 62   : 	case 0x23:	// #
; 63   : 		return CurrentToken=COMMAND;

  000ad	b8 23 00 00 00	 mov	 eax, 35			; 00000023H
  000b2	e9 99 01 00 00	 jmp	 $LN48@GetToken
$LN18@GetToken:

; 64   : 		break;
; 65   : 	
; 66   : 	case 0x3B:	// ;
; 67   : 		return CurrentToken=SEMICOLON;

  000b7	b8 3b 00 00 00	 mov	 eax, 59			; 0000003bH
  000bc	e9 8f 01 00 00	 jmp	 $LN48@GetToken
$LN17@GetToken:

; 68   : 		break;
; 69   : 	
; 70   : 	case 0x2C:	// ,
; 71   : 
; 72   : 		return CurrentToken=COMMA;

  000c1	b8 2c 00 00 00	 mov	 eax, 44			; 0000002cH
  000c6	e9 85 01 00 00	 jmp	 $LN48@GetToken
$LN16@GetToken:

; 73   : 		break;
; 74   : 	
; 75   : 	case 0x7B:	// {
; 76   : 		return CurrentToken = LP;

  000cb	b8 7b 00 00 00	 mov	 eax, 123		; 0000007bH
  000d0	e9 7b 01 00 00	 jmp	 $LN48@GetToken
$LN15@GetToken:

; 77   : 		break;
; 78   : 
; 79   : 	case 0x7D:	// }
; 80   : 		return CurrentToken = RP;

  000d5	b8 7d 00 00 00	 mov	 eax, 125		; 0000007dH
  000da	e9 71 01 00 00	 jmp	 $LN48@GetToken
$LN14@GetToken:

; 81   : 		break;
; 82   : 	// Nice Index Table :)	by Deathway
; 83   : 	// Numbers Case
; 84   : 	case 0x2D:	//-
; 85   : 	case 0x2E:	//.
; 86   : 	case '0':	//0
; 87   : 	case '1':	//1
; 88   : 	case '2':	//2
; 89   : 	case '3':	//3
; 90   : 	case '4':	//4		
; 91   : 	case '5':	//5
; 92   : 	case '6':	//6
; 93   : 	case '7':	//7
; 94   : 	case '8':	//8
; 95   : 	case '9':	//9
; 96   : 		ungetc(ch, SMDFile);

  000df	8b 15 00 00 00
	00		 mov	 edx, DWORD PTR _SMDFile
  000e5	52		 push	 edx
  000e6	50		 push	 eax
  000e7	e8 00 00 00 00	 call	 _ungetc

; 97   : 		p = TempString;
; 98   : 		
; 99   : 		while (((ch=getc(SMDFile)) != -1) && ((ch == 0x2E) || (isdigit(ch) != 0) || (ch == 0x2D)))  // 2e '.'  2D '-'

  000ec	a1 00 00 00 00	 mov	 eax, DWORD PTR _SMDFile
  000f1	50		 push	 eax
  000f2	8d 75 98	 lea	 esi, DWORD PTR _TempString$[ebp]
  000f5	e8 00 00 00 00	 call	 _getc
  000fa	8a d8		 mov	 bl, al
  000fc	83 c4 0c	 add	 esp, 12			; 0000000cH
  000ff	80 fb ff	 cmp	 bl, -1
  00102	74 33		 je	 SHORT $LN12@GetToken
$LL13@GetToken:
  00104	80 fb 2e	 cmp	 bl, 46			; 0000002eH
  00107	74 15		 je	 SHORT $LN11@GetToken
  00109	0f be cb	 movsx	 ecx, bl
  0010c	51		 push	 ecx
  0010d	e8 00 00 00 00	 call	 _isdigit
  00112	83 c4 04	 add	 esp, 4
  00115	85 c0		 test	 eax, eax
  00117	75 05		 jne	 SHORT $LN11@GetToken
  00119	80 fb 2d	 cmp	 bl, 45			; 0000002dH
  0011c	75 19		 jne	 SHORT $LN12@GetToken
$LN11@GetToken:
  0011e	8b 15 00 00 00
	00		 mov	 edx, DWORD PTR _SMDFile

; 100  : 		{
; 101  : 			*p = ch;	// Construct a String

  00124	88 1e		 mov	 BYTE PTR [esi], bl
  00126	52		 push	 edx

; 102  : 			p++;

  00127	46		 inc	 esi
  00128	e8 00 00 00 00	 call	 _getc
  0012d	8a d8		 mov	 bl, al
  0012f	83 c4 04	 add	 esp, 4
  00132	80 fb ff	 cmp	 bl, -1
  00135	75 cd		 jne	 SHORT $LL13@GetToken
$LN12@GetToken:

; 103  : 		}		
; 104  : 		*p = 0;
; 105  : 		TokenNumber = atof( TempString);	// Select the first Byte as Main ID

  00137	8d 45 98	 lea	 eax, DWORD PTR _TempString$[ebp]
  0013a	50		 push	 eax
  0013b	c6 06 00	 mov	 BYTE PTR [esi], 0
  0013e	e8 00 00 00 00	 call	 _atof
  00143	d9 1d 00 00 00
	00		 fstp	 DWORD PTR _TokenNumber
  00149	83 c4 04	 add	 esp, 4
  0014c	5e		 pop	 esi

; 106  : 		return CurrentToken  = NUMBER ;

  0014d	c7 05 00 00 00
	00 01 00 00 00	 mov	 DWORD PTR _CurrentToken, 1
  00157	b8 01 00 00 00	 mov	 eax, 1
  0015c	5b		 pop	 ebx

; 147  : 		}
; 148  : 		break;
; 149  : 
; 150  : 	}
; 151  : 
; 152  : 	return NAME;
; 153  : }

  0015d	8b 4d fc	 mov	 ecx, DWORD PTR __$ArrayPad$[ebp]
  00160	33 cd		 xor	 ecx, ebp
  00162	e8 00 00 00 00	 call	 @__security_check_cookie@4
  00167	8b e5		 mov	 esp, ebp
  00169	5d		 pop	 ebp
  0016a	c3		 ret	 0
$LN10@GetToken:

; 107  : 		break;
; 108  : 
; 109  : 	case '\"':	// "	String Case
; 110  : 		p=&TokenString[0];
; 111  : 		
; 112  : 		while (((ch=getc(SMDFile)) != -1 ) && (ch != 0x22))	// nice

  0016b	8b 0d 00 00 00
	00		 mov	 ecx, DWORD PTR _SMDFile
  00171	51		 push	 ecx
  00172	be 00 00 00 00	 mov	 esi, OFFSET _TokenString
  00177	e8 00 00 00 00	 call	 _getc
  0017c	83 c4 04	 add	 esp, 4
  0017f	3c ff		 cmp	 al, -1
  00181	74 1e		 je	 SHORT $LN8@GetToken
$LL9@GetToken:
  00183	3c 22		 cmp	 al, 34			; 00000022H
  00185	0f 84 a1 00 00
	00		 je	 $LN7@GetToken
  0018b	8b 15 00 00 00
	00		 mov	 edx, DWORD PTR _SMDFile

; 113  : 		{
; 114  : 			*p = ch;

  00191	88 06		 mov	 BYTE PTR [esi], al
  00193	52		 push	 edx

; 115  : 			p++;

  00194	46		 inc	 esi
  00195	e8 00 00 00 00	 call	 _getc
  0019a	83 c4 04	 add	 esp, 4
  0019d	3c ff		 cmp	 al, -1
  0019f	75 e2		 jne	 SHORT $LL9@GetToken
$LN8@GetToken:

; 116  : 		}
; 117  : 		if (ch != 0x22 )

  001a1	3c 22		 cmp	 al, 34			; 00000022H
  001a3	0f 84 83 00 00
	00		 je	 $LN7@GetToken

; 118  : 		{
; 119  : 			ungetc(ch, SMDFile);

  001a9	8b 0d 00 00 00
	00		 mov	 ecx, DWORD PTR _SMDFile
  001af	0f be d0	 movsx	 edx, al
  001b2	51		 push	 ecx
  001b3	52		 push	 edx

; 120  : 		}
; 121  : 		*p = 0;
; 122  : 		return CurrentToken = NAME;

  001b4	eb 6e		 jmp	 SHORT $LN49@GetToken
$LN6@GetToken:

; 123  : 		break;
; 124  : 
; 125  : 	default:	// Others
; 126  : 		if (isalpha(ch))

  001b6	50		 push	 eax
  001b7	e8 00 00 00 00	 call	 _isalpha
  001bc	83 c4 04	 add	 esp, 4
  001bf	85 c0		 test	 eax, eax
  001c1	0f 84 84 00 00
	00		 je	 $LN5@GetToken

; 127  : 		{
; 128  : 			p=&TokenString[0];
; 129  : 			*p=ch;
; 130  : 			p++;
; 131  : 
; 132  : 			while ( ((ch=getc(SMDFile)) != -1) && ( (ch == 0x2E) || (ch == 0x5F) || (isalnum(ch) != 0) ) )

  001c7	a1 00 00 00 00	 mov	 eax, DWORD PTR _SMDFile
  001cc	50		 push	 eax
  001cd	88 1d 00 00 00
	00		 mov	 BYTE PTR _TokenString, bl
  001d3	be 01 00 00 00	 mov	 esi, OFFSET _TokenString+1
  001d8	e8 00 00 00 00	 call	 _getc
  001dd	8a d8		 mov	 bl, al
  001df	83 c4 04	 add	 esp, 4
  001e2	80 fb ff	 cmp	 bl, -1
  001e5	74 33		 je	 SHORT $LN3@GetToken
$LL4@GetToken:
  001e7	80 fb 2e	 cmp	 bl, 46			; 0000002eH
  001ea	74 15		 je	 SHORT $LN2@GetToken
  001ec	80 fb 5f	 cmp	 bl, 95			; 0000005fH
  001ef	74 10		 je	 SHORT $LN2@GetToken
  001f1	0f be cb	 movsx	 ecx, bl
  001f4	51		 push	 ecx
  001f5	e8 00 00 00 00	 call	 _isalnum
  001fa	83 c4 04	 add	 esp, 4
  001fd	85 c0		 test	 eax, eax
  001ff	74 19		 je	 SHORT $LN3@GetToken
$LN2@GetToken:
  00201	8b 15 00 00 00
	00		 mov	 edx, DWORD PTR _SMDFile

; 133  : 			{
; 134  : 				*p=ch;

  00207	88 1e		 mov	 BYTE PTR [esi], bl
  00209	52		 push	 edx

; 135  : 				p++;

  0020a	46		 inc	 esi
  0020b	e8 00 00 00 00	 call	 _getc
  00210	8a d8		 mov	 bl, al
  00212	83 c4 04	 add	 esp, 4
  00215	80 fb ff	 cmp	 bl, -1
  00218	75 cd		 jne	 SHORT $LL4@GetToken
$LN3@GetToken:

; 136  : 				
; 137  : 			}
; 138  : 
; 139  : 			ungetc(ch, SMDFile);

  0021a	a1 00 00 00 00	 mov	 eax, DWORD PTR _SMDFile
  0021f	0f be cb	 movsx	 ecx, bl
  00222	50		 push	 eax
  00223	51		 push	 ecx
$LN49@GetToken:
  00224	e8 00 00 00 00	 call	 _ungetc
  00229	83 c4 08	 add	 esp, 8
$LN7@GetToken:

; 140  : 			*p=0;

  0022c	c6 06 00	 mov	 BYTE PTR [esi], 0
  0022f	5e		 pop	 esi

; 141  : 			CurrentToken=NAME;

  00230	c7 05 00 00 00
	00 00 00 00 00	 mov	 DWORD PTR _CurrentToken, 0

; 142  : 			return CurrentToken;

  0023a	33 c0		 xor	 eax, eax
  0023c	5b		 pop	 ebx

; 147  : 		}
; 148  : 		break;
; 149  : 
; 150  : 	}
; 151  : 
; 152  : 	return NAME;
; 153  : }

  0023d	8b 4d fc	 mov	 ecx, DWORD PTR __$ArrayPad$[ebp]
  00240	33 cd		 xor	 ecx, ebp
  00242	e8 00 00 00 00	 call	 @__security_check_cookie@4
  00247	8b e5		 mov	 esp, ebp
  00249	5d		 pop	 ebp
  0024a	c3		 ret	 0
$LN5@GetToken:

; 143  : 		}
; 144  : 		else
; 145  : 		{
; 146  : 			return CurrentToken = SMD_ERROR; // '<'

  0024b	b8 3c 00 00 00	 mov	 eax, 60			; 0000003cH
$LN48@GetToken:

; 147  : 		}
; 148  : 		break;
; 149  : 
; 150  : 	}
; 151  : 
; 152  : 	return NAME;
; 153  : }

  00250	8b 4d fc	 mov	 ecx, DWORD PTR __$ArrayPad$[ebp]
  00253	5e		 pop	 esi
  00254	33 cd		 xor	 ecx, ebp
  00256	a3 00 00 00 00	 mov	 DWORD PTR _CurrentToken, eax
  0025b	5b		 pop	 ebx
  0025c	e8 00 00 00 00	 call	 @__security_check_cookie@4
  00261	8b e5		 mov	 esp, ebp
  00263	5d		 pop	 ebp
  00264	c3		 ret	 0
  00265	8d 49 00	 npad	 3
$LN50@GetToken:
  00268	00 00 00 00	 DD	 $LN10@GetToken
  0026c	00 00 00 00	 DD	 $LN19@GetToken
  00270	00 00 00 00	 DD	 $LN17@GetToken
  00274	00 00 00 00	 DD	 $LN14@GetToken
  00278	00 00 00 00	 DD	 $LN18@GetToken
  0027c	00 00 00 00	 DD	 $LN16@GetToken
  00280	00 00 00 00	 DD	 $LN15@GetToken
  00284	00 00 00 00	 DD	 $LN6@GetToken
$LN46@GetToken:
  00288	00		 DB	 0
  00289	01		 DB	 1
  0028a	07		 DB	 7
  0028b	07		 DB	 7
  0028c	07		 DB	 7
  0028d	07		 DB	 7
  0028e	07		 DB	 7
  0028f	07		 DB	 7
  00290	07		 DB	 7
  00291	07		 DB	 7
  00292	02		 DB	 2
  00293	03		 DB	 3
  00294	03		 DB	 3
  00295	07		 DB	 7
  00296	03		 DB	 3
  00297	03		 DB	 3
  00298	03		 DB	 3
  00299	03		 DB	 3
  0029a	03		 DB	 3
  0029b	03		 DB	 3
  0029c	03		 DB	 3
  0029d	03		 DB	 3
  0029e	03		 DB	 3
  0029f	03		 DB	 3
  002a0	07		 DB	 7
  002a1	04		 DB	 4
  002a2	07		 DB	 7
  002a3	07		 DB	 7
  002a4	07		 DB	 7
  002a5	07		 DB	 7
  002a6	07		 DB	 7
  002a7	07		 DB	 7
  002a8	07		 DB	 7
  002a9	07		 DB	 7
  002aa	07		 DB	 7
  002ab	07		 DB	 7
  002ac	07		 DB	 7
  002ad	07		 DB	 7
  002ae	07		 DB	 7
  002af	07		 DB	 7
  002b0	07		 DB	 7
  002b1	07		 DB	 7
  002b2	07		 DB	 7
  002b3	07		 DB	 7
  002b4	07		 DB	 7
  002b5	07		 DB	 7
  002b6	07		 DB	 7
  002b7	07		 DB	 7
  002b8	07		 DB	 7
  002b9	07		 DB	 7
  002ba	07		 DB	 7
  002bb	07		 DB	 7
  002bc	07		 DB	 7
  002bd	07		 DB	 7
  002be	07		 DB	 7
  002bf	07		 DB	 7
  002c0	07		 DB	 7
  002c1	07		 DB	 7
  002c2	07		 DB	 7
  002c3	07		 DB	 7
  002c4	07		 DB	 7
  002c5	07		 DB	 7
  002c6	07		 DB	 7
  002c7	07		 DB	 7
  002c8	07		 DB	 7
  002c9	07		 DB	 7
  002ca	07		 DB	 7
  002cb	07		 DB	 7
  002cc	07		 DB	 7
  002cd	07		 DB	 7
  002ce	07		 DB	 7
  002cf	07		 DB	 7
  002d0	07		 DB	 7
  002d1	07		 DB	 7
  002d2	07		 DB	 7
  002d3	07		 DB	 7
  002d4	07		 DB	 7
  002d5	07		 DB	 7
  002d6	07		 DB	 7
  002d7	07		 DB	 7
  002d8	07		 DB	 7
  002d9	07		 DB	 7
  002da	07		 DB	 7
  002db	07		 DB	 7
  002dc	07		 DB	 7
  002dd	07		 DB	 7
  002de	07		 DB	 7
  002df	07		 DB	 7
  002e0	07		 DB	 7
  002e1	05		 DB	 5
  002e2	07		 DB	 7
  002e3	06		 DB	 6
?GetToken@@YA?AW4SMDToken@@XZ ENDP			; GetToken
_TEXT	ENDS
PUBLIC	??1MonsterQuest@@QAE@XZ				; MonsterQuest::~MonsterQuest
; Function compile flags: /Ogtp
; File e:\work\tranet_version\gs\gameserver\monsterquest.cpp
;	COMDAT ??1MonsterQuest@@QAE@XZ
_TEXT	SEGMENT
??1MonsterQuest@@QAE@XZ PROC				; MonsterQuest::~MonsterQuest, COMDAT
; _this$ = ecx

; 24   : 	// ----
; 25   : }

  00000	c3		 ret	 0
??1MonsterQuest@@QAE@XZ ENDP				; MonsterQuest::~MonsterQuest
_TEXT	ENDS
PUBLIC	?Init@MonsterQuest@@QAEXXZ			; MonsterQuest::Init
EXTRN	_memset:PROC
; Function compile flags: /Ogtp
;	COMDAT ?Init@MonsterQuest@@QAEXXZ
_TEXT	SEGMENT
?Init@MonsterQuest@@QAEXXZ PROC				; MonsterQuest::Init, COMDAT
; _this$ = ecx

; 29   : {

  00000	56		 push	 esi
  00001	8b f1		 mov	 esi, ecx

; 30   : 	ZeroMemory(&this->MonsterData,sizeof(this->MonsterData));

  00003	68 30 75 00 00	 push	 30000			; 00007530H
  00008	8d 46 08	 lea	 eax, DWORD PTR [esi+8]
  0000b	6a 00		 push	 0
  0000d	50		 push	 eax
  0000e	e8 00 00 00 00	 call	 _memset

; 31   : 	ZeroMemory(&this->RewardData,sizeof(this->RewardData));

  00013	68 c0 5d 00 00	 push	 24000			; 00005dc0H
  00018	8d 8e 38 75 00
	00		 lea	 ecx, DWORD PTR [esi+30008]
  0001e	6a 00		 push	 0
  00020	51		 push	 ecx
  00021	e8 00 00 00 00	 call	 _memset
  00026	83 c4 18	 add	 esp, 24			; 00000018H

; 32   : 	// ----
; 33   : 	this->QuestCount = 0;

  00029	c7 86 f8 d2 00
	00 00 00 00 00	 mov	 DWORD PTR [esi+54008], 0
  00033	5e		 pop	 esi

; 34   : }

  00034	c3		 ret	 0
?Init@MonsterQuest@@QAEXXZ ENDP				; MonsterQuest::Init
_TEXT	ENDS
PUBLIC	__real@00000000
PUBLIC	??_C@_01KDCPPGHE@r?$AA@				; `string'
PUBLIC	?Read@MonsterQuest@@QAEXPAD@Z			; MonsterQuest::Read
EXTRN	_fclose:PROC
EXTRN	?MsgBox@@YAXPADZZ:PROC				; MsgBox
EXTRN	?Get@CMsg@@QAEPADH@Z:PROC			; CMsg::Get
EXTRN	?lMsg@@3VCMsg@@A:BYTE				; lMsg
EXTRN	_fopen:PROC
EXTRN	__ftol2_sse:PROC
;	COMDAT __real@00000000
CONST	SEGMENT
__real@00000000 DD 000000000r			; 0
CONST	ENDS
;	COMDAT ??_C@_01KDCPPGHE@r?$AA@
CONST	SEGMENT
??_C@_01KDCPPGHE@r?$AA@ DB 'r', 00H			; `string'
; Function compile flags: /Ogtp
CONST	ENDS
;	COMDAT ?Read@MonsterQuest@@QAEXPAD@Z
_TEXT	SEGMENT
tv494 = -8						; size = 8
tv350 = -8						; size = 8
tv550 = -4						; size = 4
tv548 = -4						; size = 4
tv542 = -4						; size = 4
tv540 = -4						; size = 4
tv534 = -4						; size = 4
tv532 = -4						; size = 4
tv526 = -4						; size = 4
tv524 = -4						; size = 4
tv518 = -4						; size = 4
tv516 = -4						; size = 4
tv510 = -4						; size = 4
tv508 = -4						; size = 4
tv502 = -4						; size = 4
tv500 = -4						; size = 4
tv492 = -4						; size = 4
tv486 = -4						; size = 4
tv484 = -4						; size = 4
tv348 = -4						; size = 4
tv342 = -4						; size = 4
tv263 = -4						; size = 4
tv261 = -4						; size = 4
tv240 = -4						; size = 4
tv234 = -4						; size = 4
tv216 = -4						; size = 4
tv209 = -4						; size = 4
tv191 = -4						; size = 4
tv189 = -4						; size = 4
tv169 = -4						; size = 4
tv162 = -4						; size = 4
tv144 = -4						; size = 4
tv139 = -4						; size = 4
tv73 = -4						; size = 4
_File$ = 8						; size = 4
tv545 = 10						; size = 2
tv537 = 10						; size = 2
tv529 = 10						; size = 2
tv521 = 10						; size = 2
tv513 = 10						; size = 2
tv505 = 10						; size = 2
tv497 = 10						; size = 2
tv489 = 10						; size = 2
tv481 = 10						; size = 2
tv345 = 10						; size = 2
tv266 = 10						; size = 2
tv249 = 10						; size = 2
tv225 = 10						; size = 2
tv200 = 10						; size = 2
tv180 = 10						; size = 2
tv153 = 10						; size = 2
tv128 = 10						; size = 2
?Read@MonsterQuest@@QAEXPAD@Z PROC			; MonsterQuest::Read, COMDAT
; _this$ = ecx

; 45   : {

  00000	55		 push	 ebp
  00001	8b ec		 mov	 ebp, esp
  00003	83 ec 08	 sub	 esp, 8
  00006	56		 push	 esi
  00007	57		 push	 edi

; 46   : 	SMDFile = fopen(File, "r");

  00008	8b 7d 08	 mov	 edi, DWORD PTR _File$[ebp]
  0000b	68 00 00 00 00	 push	 OFFSET ??_C@_01KDCPPGHE@r?$AA@
  00010	57		 push	 edi
  00011	8b f1		 mov	 esi, ecx
  00013	e8 00 00 00 00	 call	 _fopen
  00018	83 c4 08	 add	 esp, 8
  0001b	a3 00 00 00 00	 mov	 DWORD PTR _SMDFile, eax

; 47   : 	if ( SMDFile == NULL )

  00020	85 c0		 test	 eax, eax
  00022	75 1e		 jne	 SHORT $LN14@Read

; 48   : 	{
; 49   : 		MsgBox(lMsg.Get(MSGGET(0, 112)), File);

  00024	57		 push	 edi
  00025	6a 70		 push	 112			; 00000070H
  00027	b9 00 00 00 00	 mov	 ecx, OFFSET ?lMsg@@3VCMsg@@A ; lMsg
  0002c	e8 00 00 00 00	 call	 ?Get@CMsg@@QAEPADH@Z	; CMsg::Get
  00031	50		 push	 eax
  00032	e8 00 00 00 00	 call	 ?MsgBox@@YAXPADZZ	; MsgBox
  00037	83 c4 08	 add	 esp, 8
  0003a	5f		 pop	 edi
  0003b	5e		 pop	 esi

; 200  : }

  0003c	8b e5		 mov	 esp, ebp
  0003e	5d		 pop	 ebp
  0003f	c2 04 00	 ret	 4
$LN14@Read:

; 50   : 		return;
; 51   : 	}
; 52   : 
; 53   : 	int Token;
; 54   : 	int type = -1;
; 55   : 
; 56   : 	int Category = -1;
; 57   : 
; 58   : 	while ( true )
; 59   : 	{
; 60   : 	    Token = GetToken();

  00042	e8 00 00 00 00	 call	 ?GetToken@@YA?AW4SMDToken@@XZ ; GetToken

; 61   : 
; 62   :         if( Token == END)

  00047	83 f8 02	 cmp	 eax, 2
  0004a	0f 84 07 04 00
	00		 je	 $LN27@Read
$LL13@Read:

; 63   : 		{
; 64   : 			break;
; 65   : 		}
; 66   : 
; 67   : 		if( Token != NUMBER )

  00050	83 f8 01	 cmp	 eax, 1
  00053	0f 85 f0 03 00
	00		 jne	 $LN7@Read

; 68   : 		{
; 69   : 			continue;
; 70   : 		}
; 71   : 
; 72   : 				//if ( !strcmp("end", TokenString ) )
; 73   : 				//{
; 74   : 				//	break;
; 75   : 				//}
; 76   : 
; 77   : 		Category = (int)TokenNumber;
; 78   : 
; 79   : 		//while(true)
; 80   : 		{
; 81   : 
; 82   : 			//Token = GetToken();
; 83   : 
; 84   : 			//if ( !strcmp("end", TokenString ) )
; 85   : 			//{
; 86   : 			//	break;
; 87   : 			//}
; 88   : 
; 89   : 
; 90   : 
; 91   : 			if(Category == 0)	// Config

  00059	d9 05 00 00 00
	00		 fld	 DWORD PTR _TokenNumber
  0005f	e8 00 00 00 00	 call	 __ftol2_sse
  00064	85 c0		 test	 eax, eax
  00066	0f 85 c9 00 00
	00		 jne	 $LN9@Read

; 92   : 			{
; 93   : 
; 94   : 				Token = GetToken();

  0006c	e8 00 00 00 00	 call	 ?GetToken@@YA?AW4SMDToken@@XZ ; GetToken

; 95   : 				this->Enable = TokenNumber;

  00071	d9 05 00 00 00
	00		 fld	 DWORD PTR _TokenNumber
  00077	d9 ee		 fldz
  00079	da e9		 fucompp
  0007b	df e0		 fnstsw	 ax
  0007d	f6 c4 44	 test	 ah, 68			; 00000044H
  00080	7b 04		 jnp	 SHORT $LN17@Read
  00082	b0 01		 mov	 al, 1
  00084	eb 02		 jmp	 SHORT $LN18@Read
$LN17@Read:
  00086	32 c0		 xor	 al, al
$LN18@Read:
  00088	88 06		 mov	 BYTE PTR [esi], al

; 96   : 
; 97   : 				Token = GetToken();

  0008a	e8 00 00 00 00	 call	 ?GetToken@@YA?AW4SMDToken@@XZ ; GetToken

; 98   : 				this->NPC_Class = TokenNumber;

  0008f	d9 05 00 00 00
	00		 fld	 DWORD PTR _TokenNumber
  00095	d9 7d 0a	 fnstcw	 WORD PTR tv266[ebp]
  00098	0f b7 45 0a	 movzx	 eax, WORD PTR tv266[ebp]
  0009c	0d 00 0c 00 00	 or	 eax, 3072		; 00000c00H
  000a1	89 45 fc	 mov	 DWORD PTR tv263[ebp], eax
  000a4	d9 6d fc	 fldcw	 WORD PTR tv263[ebp]
  000a7	db 5d fc	 fistp	 DWORD PTR tv261[ebp]
  000aa	66 8b 45 fc	 mov	 ax, WORD PTR tv261[ebp]
  000ae	66 89 46 02	 mov	 WORD PTR [esi+2], ax
  000b2	d9 6d 0a	 fldcw	 WORD PTR tv266[ebp]

; 99   : 
; 100  : 				Token = GetToken();

  000b5	e8 00 00 00 00	 call	 ?GetToken@@YA?AW4SMDToken@@XZ ; GetToken

; 101  : 				this->NPC_Map = TokenNumber;

  000ba	d9 05 00 00 00
	00		 fld	 DWORD PTR _TokenNumber
  000c0	d9 7d 0a	 fnstcw	 WORD PTR tv249[ebp]
  000c3	0f b7 45 0a	 movzx	 eax, WORD PTR tv249[ebp]
  000c7	0d 00 0c 00 00	 or	 eax, 3072		; 00000c00H
  000cc	89 45 fc	 mov	 DWORD PTR tv240[ebp], eax
  000cf	d9 6d fc	 fldcw	 WORD PTR tv240[ebp]
  000d2	db 5d fc	 fistp	 DWORD PTR tv234[ebp]
  000d5	8a 4d fc	 mov	 cl, BYTE PTR tv234[ebp]
  000d8	88 4e 04	 mov	 BYTE PTR [esi+4], cl
  000db	d9 6d 0a	 fldcw	 WORD PTR tv249[ebp]

; 102  : 
; 103  : 				Token = GetToken();

  000de	e8 00 00 00 00	 call	 ?GetToken@@YA?AW4SMDToken@@XZ ; GetToken

; 104  : 				this->NPC_X = TokenNumber;

  000e3	d9 05 00 00 00
	00		 fld	 DWORD PTR _TokenNumber
  000e9	d9 7d 0a	 fnstcw	 WORD PTR tv225[ebp]
  000ec	0f b7 45 0a	 movzx	 eax, WORD PTR tv225[ebp]
  000f0	0d 00 0c 00 00	 or	 eax, 3072		; 00000c00H
  000f5	89 45 fc	 mov	 DWORD PTR tv216[ebp], eax
  000f8	d9 6d fc	 fldcw	 WORD PTR tv216[ebp]
  000fb	db 5d fc	 fistp	 DWORD PTR tv209[ebp]
  000fe	8a 55 fc	 mov	 dl, BYTE PTR tv209[ebp]
  00101	88 56 05	 mov	 BYTE PTR [esi+5], dl
  00104	d9 6d 0a	 fldcw	 WORD PTR tv225[ebp]

; 105  : 
; 106  : 				Token = GetToken();

  00107	e8 00 00 00 00	 call	 ?GetToken@@YA?AW4SMDToken@@XZ ; GetToken

; 107  : 				this->NPC_Y = TokenNumber;

  0010c	d9 05 00 00 00
	00		 fld	 DWORD PTR _TokenNumber
  00112	d9 7d 0a	 fnstcw	 WORD PTR tv200[ebp]
  00115	0f b7 45 0a	 movzx	 eax, WORD PTR tv200[ebp]
  00119	0d 00 0c 00 00	 or	 eax, 3072		; 00000c00H
  0011e	89 45 fc	 mov	 DWORD PTR tv191[ebp], eax
  00121	d9 6d fc	 fldcw	 WORD PTR tv191[ebp]
  00124	db 5d fc	 fistp	 DWORD PTR tv189[ebp]
  00127	8a 45 fc	 mov	 al, BYTE PTR tv189[ebp]
  0012a	88 46 06	 mov	 BYTE PTR [esi+6], al
  0012d	d9 6d 0a	 fldcw	 WORD PTR tv200[ebp]
  00130	e9 14 03 00 00	 jmp	 $LN7@Read
$LN9@Read:

; 108  : 
; 109  : 			//char p[50];
; 110  : 			//sprintf(p,"%d %d %d %d %d",Enable,NPC_Class,NPC_Map,NPC_X,NPC_Y);
; 111  : 			//MessageBox(0,p,p,0);
; 112  : 
; 113  : 				//break;
; 114  : 			}
; 115  : 			else if(true) //Quest Base
; 116  : 			{
; 117  : 				//MissionData
; 118  : 				int MissionGroupCount = 0;

  00135	33 ff		 xor	 edi, edi
$LL6@Read:

; 119  : 
; 120  : 				while(true)	
; 121  : 				{
; 122  : 					if( MissionGroupCount >= MAX_MISSION_QUEST )
; 123  : 					{
; 124  : 						break;
; 125  : 					}
; 126  : 
; 127  : 					Token = GetToken();

  00137	e8 00 00 00 00	 call	 ?GetToken@@YA?AW4SMDToken@@XZ ; GetToken

; 128  : 
; 129  : 					//if ( !strcmp("end", TokenString ) )
; 130  : 					//{
; 131  : 					//	break;
; 132  : 					//}
; 133  : 
; 134  : 					this->MonsterData[this->QuestCount][MissionGroupCount].Active = TokenNumber;

  0013c	d9 05 00 00 00
	00		 fld	 DWORD PTR _TokenNumber
  00142	8b 8e f8 d2 00
	00		 mov	 ecx, DWORD PTR [esi+54008]
  00148	d9 7d 0a	 fnstcw	 WORD PTR tv180[ebp]
  0014b	0f b7 45 0a	 movzx	 eax, WORD PTR tv180[ebp]
  0014f	0d 00 0c 00 00	 or	 eax, 3072		; 00000c00H
  00154	89 45 fc	 mov	 DWORD PTR tv169[ebp], eax
  00157	8d 04 8f	 lea	 eax, DWORD PTR [edi+ecx*4]
  0015a	03 c1		 add	 eax, ecx
  0015c	d9 6d fc	 fldcw	 WORD PTR tv169[ebp]
  0015f	8d 04 40	 lea	 eax, DWORD PTR [eax+eax*2]
  00162	db 5d fc	 fistp	 DWORD PTR tv162[ebp]
  00165	8a 55 fc	 mov	 dl, BYTE PTR tv162[ebp]
  00168	88 54 86 08	 mov	 BYTE PTR [esi+eax*4+8], dl
  0016c	d9 6d 0a	 fldcw	 WORD PTR tv180[ebp]

; 135  : 
; 136  : 					Token = GetToken();

  0016f	e8 00 00 00 00	 call	 ?GetToken@@YA?AW4SMDToken@@XZ ; GetToken

; 137  : 					this->MonsterData[this->QuestCount][MissionGroupCount].Mission = TokenNumber;

  00174	8b 8e f8 d2 00
	00		 mov	 ecx, DWORD PTR [esi+54008]
  0017a	d9 05 00 00 00
	00		 fld	 DWORD PTR _TokenNumber
  00180	d9 7d 0a	 fnstcw	 WORD PTR tv153[ebp]
  00183	0f b7 45 0a	 movzx	 eax, WORD PTR tv153[ebp]
  00187	0d 00 0c 00 00	 or	 eax, 3072		; 00000c00H
  0018c	89 45 fc	 mov	 DWORD PTR tv144[ebp], eax
  0018f	8d 04 8f	 lea	 eax, DWORD PTR [edi+ecx*4]
  00192	03 c1		 add	 eax, ecx
  00194	d9 6d fc	 fldcw	 WORD PTR tv144[ebp]
  00197	8d 04 40	 lea	 eax, DWORD PTR [eax+eax*2]
  0019a	db 5d fc	 fistp	 DWORD PTR tv139[ebp]
  0019d	66 8b 55 fc	 mov	 dx, WORD PTR tv139[ebp]
  001a1	66 89 54 86 0a	 mov	 WORD PTR [esi+eax*4+10], dx
  001a6	d9 6d 0a	 fldcw	 WORD PTR tv153[ebp]

; 138  : 
; 139  : 					Token = GetToken();

  001a9	e8 00 00 00 00	 call	 ?GetToken@@YA?AW4SMDToken@@XZ ; GetToken

; 140  : 					this->MonsterData[this->QuestCount][MissionGroupCount].Procent = TokenNumber;

  001ae	d9 05 00 00 00
	00		 fld	 DWORD PTR _TokenNumber
  001b4	d9 7d 0a	 fnstcw	 WORD PTR tv128[ebp]
  001b7	0f b7 45 0a	 movzx	 eax, WORD PTR tv128[ebp]
  001bb	0d 00 0c 00 00	 or	 eax, 3072		; 00000c00H
  001c0	89 45 fc	 mov	 DWORD PTR tv73[ebp], eax
  001c3	8b 86 f8 d2 00
	00		 mov	 eax, DWORD PTR [esi+54008]
  001c9	8d 14 87	 lea	 edx, DWORD PTR [edi+eax*4]
  001cc	d9 6d fc	 fldcw	 WORD PTR tv73[ebp]
  001cf	8d 44 10 01	 lea	 eax, DWORD PTR [eax+edx+1]
  001d3	8d 04 40	 lea	 eax, DWORD PTR [eax+eax*2]
  001d6	db 5d fc	 fistp	 DWORD PTR tv342[ebp]
  001d9	8a 4d fc	 mov	 cl, BYTE PTR tv342[ebp]
  001dc	88 0c 86	 mov	 BYTE PTR [esi+eax*4], cl
  001df	d9 6d 0a	 fldcw	 WORD PTR tv128[ebp]

; 141  : 
; 142  : 					Token = GetToken();

  001e2	e8 00 00 00 00	 call	 ?GetToken@@YA?AW4SMDToken@@XZ ; GetToken

; 143  : 					this->MonsterData[this->QuestCount][MissionGroupCount].Count = TokenNumber;

  001e7	8b 8e f8 d2 00
	00		 mov	 ecx, DWORD PTR [esi+54008]
  001ed	d9 05 00 00 00
	00		 fld	 DWORD PTR _TokenNumber
  001f3	d9 7d 0a	 fnstcw	 WORD PTR tv345[ebp]
  001f6	0f b7 45 0a	 movzx	 eax, WORD PTR tv345[ebp]
  001fa	0d 00 0c 00 00	 or	 eax, 3072		; 00000c00H
  001ff	89 45 fc	 mov	 DWORD PTR tv348[ebp], eax
  00202	8d 04 8f	 lea	 eax, DWORD PTR [edi+ecx*4]
  00205	03 c1		 add	 eax, ecx
  00207	d9 6d fc	 fldcw	 WORD PTR tv348[ebp]

; 144  : 
; 145  : 					MissionGroupCount++;

  0020a	47		 inc	 edi
  0020b	8d 04 40	 lea	 eax, DWORD PTR [eax+eax*2]
  0020e	df 7d f8	 fistp	 QWORD PTR tv350[ebp]
  00211	8b 55 f8	 mov	 edx, DWORD PTR tv350[ebp]
  00214	89 54 86 10	 mov	 DWORD PTR [esi+eax*4+16], edx
  00218	d9 6d 0a	 fldcw	 WORD PTR tv345[ebp]
  0021b	83 ff 05	 cmp	 edi, 5
  0021e	0f 8c 13 ff ff
	ff		 jl	 $LL6@Read

; 146  : 				}
; 147  : 
; 148  : 				//Reward Data
; 149  : 				int RewardGroupData = 0;

  00224	33 ff		 xor	 edi, edi
$LL3@Read:

; 150  : 
; 151  : 				while(true)	
; 152  : 				{
; 153  : 					if( RewardGroupData >= MAX_REWARD_QUEST )
; 154  : 					{
; 155  : 						break;
; 156  : 					}
; 157  : 
; 158  : 					Token = GetToken();

  00226	e8 00 00 00 00	 call	 ?GetToken@@YA?AW4SMDToken@@XZ ; GetToken

; 159  : 
; 160  : 					//if ( !strcmp("end", TokenString ) )
; 161  : 					//{
; 162  : 					//	break;
; 163  : 					//}
; 164  : 
; 165  : 					this->RewardData[this->QuestCount][RewardGroupData].Active = TokenNumber;

  0022b	d9 05 00 00 00
	00		 fld	 DWORD PTR _TokenNumber
  00231	d9 7d 0a	 fnstcw	 WORD PTR tv481[ebp]
  00234	0f b7 45 0a	 movzx	 eax, WORD PTR tv481[ebp]
  00238	0d 00 0c 00 00	 or	 eax, 3072		; 00000c00H
  0023d	89 45 fc	 mov	 DWORD PTR tv484[ebp], eax
  00240	8b 86 f8 d2 00
	00		 mov	 eax, DWORD PTR [esi+54008]
  00246	8d 14 47	 lea	 edx, DWORD PTR [edi+eax*2]
  00249	d9 6d fc	 fldcw	 WORD PTR tv484[ebp]
  0024c	03 d0		 add	 edx, eax
  0024e	03 d2		 add	 edx, edx
  00250	db 5d fc	 fistp	 DWORD PTR tv486[ebp]
  00253	0f b6 4d fc	 movzx	 ecx, BYTE PTR tv486[ebp]
  00257	88 8c d6 38 75
	00 00		 mov	 BYTE PTR [esi+edx*8+30008], cl
  0025e	d9 6d 0a	 fldcw	 WORD PTR tv481[ebp]

; 166  : 
; 167  : 					Token = GetToken();

  00261	e8 00 00 00 00	 call	 ?GetToken@@YA?AW4SMDToken@@XZ ; GetToken

; 168  : 					this->RewardData[this->QuestCount][RewardGroupData].Reward = TokenNumber;

  00266	d9 05 00 00 00
	00		 fld	 DWORD PTR _TokenNumber
  0026c	d9 7d 0a	 fnstcw	 WORD PTR tv489[ebp]
  0026f	0f b7 45 0a	 movzx	 eax, WORD PTR tv489[ebp]
  00273	0d 00 0c 00 00	 or	 eax, 3072		; 00000c00H
  00278	89 45 fc	 mov	 DWORD PTR tv492[ebp], eax
  0027b	8b 86 f8 d2 00
	00		 mov	 eax, DWORD PTR [esi+54008]
  00281	8d 14 47	 lea	 edx, DWORD PTR [edi+eax*2]
  00284	d9 6d fc	 fldcw	 WORD PTR tv492[ebp]
  00287	03 d0		 add	 edx, eax
  00289	03 d2		 add	 edx, edx
  0028b	df 7d f8	 fistp	 QWORD PTR tv494[ebp]
  0028e	8b 4d f8	 mov	 ecx, DWORD PTR tv494[ebp]
  00291	89 8c d6 3c 75
	00 00		 mov	 DWORD PTR [esi+edx*8+30012], ecx
  00298	d9 6d 0a	 fldcw	 WORD PTR tv489[ebp]

; 169  : 
; 170  : 					Token = GetToken();

  0029b	e8 00 00 00 00	 call	 ?GetToken@@YA?AW4SMDToken@@XZ ; GetToken

; 171  : 					this->RewardData[this->QuestCount][RewardGroupData].RewardID = TokenNumber;

  002a0	d9 05 00 00 00
	00		 fld	 DWORD PTR _TokenNumber
  002a6	d9 7d 0a	 fnstcw	 WORD PTR tv497[ebp]
  002a9	0f b7 45 0a	 movzx	 eax, WORD PTR tv497[ebp]
  002ad	0d 00 0c 00 00	 or	 eax, 3072		; 00000c00H
  002b2	89 45 fc	 mov	 DWORD PTR tv500[ebp], eax
  002b5	8b 86 f8 d2 00
	00		 mov	 eax, DWORD PTR [esi+54008]
  002bb	8d 14 47	 lea	 edx, DWORD PTR [edi+eax*2]
  002be	d9 6d fc	 fldcw	 WORD PTR tv500[ebp]
  002c1	8d 84 10 54 07
	00 00		 lea	 eax, DWORD PTR [eax+edx+1876]
  002c8	03 c0		 add	 eax, eax
  002ca	db 5d fc	 fistp	 DWORD PTR tv502[ebp]
  002cd	0f b6 4d fc	 movzx	 ecx, BYTE PTR tv502[ebp]
  002d1	88 0c c6	 mov	 BYTE PTR [esi+eax*8], cl
  002d4	d9 6d 0a	 fldcw	 WORD PTR tv497[ebp]

; 172  : 
; 173  : 					Token = GetToken();

  002d7	e8 00 00 00 00	 call	 ?GetToken@@YA?AW4SMDToken@@XZ ; GetToken

; 174  : 					this->RewardData[this->QuestCount][RewardGroupData].Level = TokenNumber;

  002dc	d9 05 00 00 00
	00		 fld	 DWORD PTR _TokenNumber
  002e2	d9 7d 0a	 fnstcw	 WORD PTR tv505[ebp]
  002e5	0f b7 45 0a	 movzx	 eax, WORD PTR tv505[ebp]
  002e9	0d 00 0c 00 00	 or	 eax, 3072		; 00000c00H
  002ee	89 45 fc	 mov	 DWORD PTR tv508[ebp], eax
  002f1	8b 86 f8 d2 00
	00		 mov	 eax, DWORD PTR [esi+54008]
  002f7	8d 14 47	 lea	 edx, DWORD PTR [edi+eax*2]
  002fa	d9 6d fc	 fldcw	 WORD PTR tv508[ebp]
  002fd	03 d0		 add	 edx, eax
  002ff	03 d2		 add	 edx, edx
  00301	db 5d fc	 fistp	 DWORD PTR tv510[ebp]
  00304	0f b6 4d fc	 movzx	 ecx, BYTE PTR tv510[ebp]
  00308	88 8c d6 41 75
	00 00		 mov	 BYTE PTR [esi+edx*8+30017], cl
  0030f	d9 6d 0a	 fldcw	 WORD PTR tv505[ebp]

; 175  : 
; 176  : 					Token = GetToken();

  00312	e8 00 00 00 00	 call	 ?GetToken@@YA?AW4SMDToken@@XZ ; GetToken

; 177  : 					this->RewardData[this->QuestCount][RewardGroupData].Skill = TokenNumber;

  00317	d9 05 00 00 00
	00		 fld	 DWORD PTR _TokenNumber
  0031d	d9 7d 0a	 fnstcw	 WORD PTR tv513[ebp]
  00320	0f b7 45 0a	 movzx	 eax, WORD PTR tv513[ebp]
  00324	0d 00 0c 00 00	 or	 eax, 3072		; 00000c00H
  00329	89 45 fc	 mov	 DWORD PTR tv516[ebp], eax
  0032c	8b 86 f8 d2 00
	00		 mov	 eax, DWORD PTR [esi+54008]
  00332	8d 14 47	 lea	 edx, DWORD PTR [edi+eax*2]
  00335	d9 6d fc	 fldcw	 WORD PTR tv516[ebp]
  00338	03 d0		 add	 edx, eax
  0033a	03 d2		 add	 edx, edx
  0033c	db 5d fc	 fistp	 DWORD PTR tv518[ebp]
  0033f	0f b6 4d fc	 movzx	 ecx, BYTE PTR tv518[ebp]
  00343	88 8c d6 42 75
	00 00		 mov	 BYTE PTR [esi+edx*8+30018], cl
  0034a	d9 6d 0a	 fldcw	 WORD PTR tv513[ebp]

; 178  : 
; 179  : 					Token = GetToken();

  0034d	e8 00 00 00 00	 call	 ?GetToken@@YA?AW4SMDToken@@XZ ; GetToken

; 180  : 					this->RewardData[this->QuestCount][RewardGroupData].Luck = TokenNumber;

  00352	d9 05 00 00 00
	00		 fld	 DWORD PTR _TokenNumber
  00358	d9 7d 0a	 fnstcw	 WORD PTR tv521[ebp]
  0035b	0f b7 45 0a	 movzx	 eax, WORD PTR tv521[ebp]
  0035f	0d 00 0c 00 00	 or	 eax, 3072		; 00000c00H
  00364	89 45 fc	 mov	 DWORD PTR tv524[ebp], eax
  00367	d9 6d fc	 fldcw	 WORD PTR tv524[ebp]
  0036a	8b 86 f8 d2 00
	00		 mov	 eax, DWORD PTR [esi+54008]
  00370	8d 14 47	 lea	 edx, DWORD PTR [edi+eax*2]
  00373	03 d0		 add	 edx, eax
  00375	03 d2		 add	 edx, edx
  00377	db 5d fc	 fistp	 DWORD PTR tv526[ebp]
  0037a	0f b6 4d fc	 movzx	 ecx, BYTE PTR tv526[ebp]
  0037e	88 8c d6 43 75
	00 00		 mov	 BYTE PTR [esi+edx*8+30019], cl
  00385	d9 6d 0a	 fldcw	 WORD PTR tv521[ebp]

; 181  : 
; 182  : 					Token = GetToken();

  00388	e8 00 00 00 00	 call	 ?GetToken@@YA?AW4SMDToken@@XZ ; GetToken

; 183  : 					this->RewardData[this->QuestCount][RewardGroupData].Option = TokenNumber;

  0038d	d9 05 00 00 00
	00		 fld	 DWORD PTR _TokenNumber
  00393	d9 7d 0a	 fnstcw	 WORD PTR tv529[ebp]
  00396	0f b7 45 0a	 movzx	 eax, WORD PTR tv529[ebp]
  0039a	0d 00 0c 00 00	 or	 eax, 3072		; 00000c00H
  0039f	89 45 fc	 mov	 DWORD PTR tv532[ebp], eax
  003a2	8b 86 f8 d2 00
	00		 mov	 eax, DWORD PTR [esi+54008]
  003a8	8d 14 47	 lea	 edx, DWORD PTR [edi+eax*2]
  003ab	d9 6d fc	 fldcw	 WORD PTR tv532[ebp]
  003ae	03 d0		 add	 edx, eax
  003b0	03 d2		 add	 edx, edx
  003b2	db 5d fc	 fistp	 DWORD PTR tv534[ebp]
  003b5	0f b6 4d fc	 movzx	 ecx, BYTE PTR tv534[ebp]
  003b9	88 8c d6 44 75
	00 00		 mov	 BYTE PTR [esi+edx*8+30020], cl
  003c0	d9 6d 0a	 fldcw	 WORD PTR tv529[ebp]

; 184  : 
; 185  : 					Token = GetToken();

  003c3	e8 00 00 00 00	 call	 ?GetToken@@YA?AW4SMDToken@@XZ ; GetToken

; 186  : 					this->RewardData[this->QuestCount][RewardGroupData].Exellent = TokenNumber;

  003c8	d9 05 00 00 00
	00		 fld	 DWORD PTR _TokenNumber
  003ce	d9 7d 0a	 fnstcw	 WORD PTR tv537[ebp]
  003d1	0f b7 45 0a	 movzx	 eax, WORD PTR tv537[ebp]
  003d5	0d 00 0c 00 00	 or	 eax, 3072		; 00000c00H
  003da	89 45 fc	 mov	 DWORD PTR tv540[ebp], eax
  003dd	8b 86 f8 d2 00
	00		 mov	 eax, DWORD PTR [esi+54008]
  003e3	8d 14 47	 lea	 edx, DWORD PTR [edi+eax*2]
  003e6	d9 6d fc	 fldcw	 WORD PTR tv540[ebp]
  003e9	03 d0		 add	 edx, eax
  003eb	03 d2		 add	 edx, edx
  003ed	db 5d fc	 fistp	 DWORD PTR tv542[ebp]
  003f0	0f b6 4d fc	 movzx	 ecx, BYTE PTR tv542[ebp]
  003f4	88 8c d6 45 75
	00 00		 mov	 BYTE PTR [esi+edx*8+30021], cl
  003fb	d9 6d 0a	 fldcw	 WORD PTR tv537[ebp]

; 187  : 
; 188  : 					Token = GetToken();

  003fe	e8 00 00 00 00	 call	 ?GetToken@@YA?AW4SMDToken@@XZ ; GetToken

; 189  : 					this->RewardData[this->QuestCount][RewardGroupData].Ancent = TokenNumber;

  00403	d9 05 00 00 00
	00		 fld	 DWORD PTR _TokenNumber
  00409	d9 7d 0a	 fnstcw	 WORD PTR tv545[ebp]
  0040c	0f b7 45 0a	 movzx	 eax, WORD PTR tv545[ebp]
  00410	0d 00 0c 00 00	 or	 eax, 3072		; 00000c00H
  00415	89 45 fc	 mov	 DWORD PTR tv548[ebp], eax
  00418	8b 86 f8 d2 00
	00		 mov	 eax, DWORD PTR [esi+54008]
  0041e	8d 14 47	 lea	 edx, DWORD PTR [edi+eax*2]
  00421	d9 6d fc	 fldcw	 WORD PTR tv548[ebp]
  00424	03 d0		 add	 edx, eax
  00426	03 d2		 add	 edx, edx

; 190  : 
; 191  : 					RewardGroupData++;

  00428	47		 inc	 edi
  00429	db 5d fc	 fistp	 DWORD PTR tv550[ebp]
  0042c	0f b6 4d fc	 movzx	 ecx, BYTE PTR tv550[ebp]
  00430	88 8c d6 46 75
	00 00		 mov	 BYTE PTR [esi+edx*8+30022], cl
  00437	d9 6d 0a	 fldcw	 WORD PTR tv545[ebp]
  0043a	83 ff 03	 cmp	 edi, 3
  0043d	0f 8c e3 fd ff
	ff		 jl	 $LL3@Read

; 192  : 				}
; 193  : 
; 194  : 				this->QuestCount++;

  00443	ff 86 f8 d2 00
	00		 inc	 DWORD PTR [esi+54008]
$LN7@Read:

; 50   : 		return;
; 51   : 	}
; 52   : 
; 53   : 	int Token;
; 54   : 	int type = -1;
; 55   : 
; 56   : 	int Category = -1;
; 57   : 
; 58   : 	while ( true )
; 59   : 	{
; 60   : 	    Token = GetToken();

  00449	e8 00 00 00 00	 call	 ?GetToken@@YA?AW4SMDToken@@XZ ; GetToken

; 61   : 
; 62   :         if( Token == END)

  0044e	83 f8 02	 cmp	 eax, 2
  00451	0f 85 f9 fb ff
	ff		 jne	 $LL13@Read
$LN27@Read:

; 195  : 			}
; 196  : 		}
; 197  :     }
; 198  : 
; 199  : 	fclose(SMDFile);

  00457	a1 00 00 00 00	 mov	 eax, DWORD PTR _SMDFile
  0045c	50		 push	 eax
  0045d	e8 00 00 00 00	 call	 _fclose
  00462	83 c4 04	 add	 esp, 4
  00465	5f		 pop	 edi
  00466	5e		 pop	 esi

; 200  : }

  00467	8b e5		 mov	 esp, ebp
  00469	5d		 pop	 ebp
  0046a	c2 04 00	 ret	 4
?Read@MonsterQuest@@QAEXPAD@Z ENDP			; MonsterQuest::Read
_TEXT	ENDS
PUBLIC	?CheckDoneQuest@MonsterQuest@@QAE_NH@Z		; MonsterQuest::CheckDoneQuest
EXTRN	?gObj@@3PAUOBJECTSTRUCT@@A:DWORD		; gObj
; Function compile flags: /Ogtp
;	COMDAT ?CheckDoneQuest@MonsterQuest@@QAE_NH@Z
_TEXT	SEGMENT
_UserIndex$ = 8						; size = 4
?CheckDoneQuest@MonsterQuest@@QAE_NH@Z PROC		; MonsterQuest::CheckDoneQuest, COMDAT
; _this$ = ecx

; 352  : {

  00000	55		 push	 ebp
  00001	8b ec		 mov	 ebp, esp

; 353  : 	LPOBJ lpUser = &gObj[UserIndex];

  00003	8b 55 08	 mov	 edx, DWORD PTR _UserIndex$[ebp]
  00006	69 d2 50 2b 00
	00		 imul	 edx, 11088		; 00002b50H
  0000c	03 15 00 00 00
	00		 add	 edx, DWORD PTR ?gObj@@3PAUOBJECTSTRUCT@@A ; gObj
  00012	53		 push	 ebx
  00013	56		 push	 esi
  00014	57		 push	 edi

; 354  : 
; 355  : 	bool DoneQuest = true;
; 356  : 
; 357  : 	int QuestNum = lpUser->m_MonsterQuest.QuestNumber;

  00015	0f b7 ba 28 28
	00 00		 movzx	 edi, WORD PTR [edx+10280]
  0001c	8b df		 mov	 ebx, edi
  0001e	c1 e3 04	 shl	 ebx, 4

; 358  : 
; 359  : 	for(int i=0; i < MAX_MISSION_QUEST; i++)

  00021	33 f6		 xor	 esi, esi
  00023	81 c2 2c 28 00
	00		 add	 edx, 10284		; 0000282cH
  00029	2b df		 sub	 ebx, edi
  0002b	b0 01		 mov	 al, 1
  0002d	8d 4c 99 10	 lea	 ecx, DWORD PTR [ecx+ebx*4+16]
$LL4@CheckDoneQ:

; 360  : 	{
; 361  : 		if(lpUser->m_MonsterQuest.KillCount[i] < this->MonsterData[QuestNum][i].Count)

  00031	8b 3a		 mov	 edi, DWORD PTR [edx]
  00033	3b 39		 cmp	 edi, DWORD PTR [ecx]
  00035	72 13		 jb	 SHORT $LN8@CheckDoneQ

; 358  : 
; 359  : 	for(int i=0; i < MAX_MISSION_QUEST; i++)

  00037	46		 inc	 esi
  00038	83 c1 0c	 add	 ecx, 12			; 0000000cH
  0003b	83 c2 04	 add	 edx, 4
  0003e	83 fe 05	 cmp	 esi, 5
  00041	7c ee		 jl	 SHORT $LL4@CheckDoneQ
  00043	5f		 pop	 edi
  00044	5e		 pop	 esi
  00045	5b		 pop	 ebx

; 364  : 			break;
; 365  : 		}
; 366  : 	}
; 367  : 
; 368  : 	return DoneQuest;
; 369  : }

  00046	5d		 pop	 ebp
  00047	c2 04 00	 ret	 4
$LN8@CheckDoneQ:
  0004a	5f		 pop	 edi
  0004b	5e		 pop	 esi

; 362  : 		{
; 363  : 			DoneQuest = false;

  0004c	32 c0		 xor	 al, al
  0004e	5b		 pop	 ebx

; 364  : 			break;
; 365  : 		}
; 366  : 	}
; 367  : 
; 368  : 	return DoneQuest;
; 369  : }

  0004f	5d		 pop	 ebp
  00050	c2 04 00	 ret	 4
?CheckDoneQuest@MonsterQuest@@QAE_NH@Z ENDP		; MonsterQuest::CheckDoneQuest
_TEXT	ENDS
PUBLIC	__$ArrayPad$
PUBLIC	?GCMonsterKill@MonsterQuest@@QAEXHH@Z		; MonsterQuest::GCMonsterKill
EXTRN	?DataSend@@YAHHPAEK@Z:PROC			; DataSend
; Function compile flags: /Ogtp
;	COMDAT ?GCMonsterKill@MonsterQuest@@QAEXHH@Z
_TEXT	SEGMENT
_rSend$ = -16						; size = 12
__$ArrayPad$ = -4					; size = 4
_aIndex$ = 8						; size = 4
_n$ = 12						; size = 4
?GCMonsterKill@MonsterQuest@@QAEXHH@Z PROC		; MonsterQuest::GCMonsterKill, COMDAT
; _this$ = ecx

; 373  : {

  00000	55		 push	 ebp
  00001	8b ec		 mov	 ebp, esp
  00003	83 ec 10	 sub	 esp, 16			; 00000010H
  00006	a1 00 00 00 00	 mov	 eax, DWORD PTR ___security_cookie
  0000b	33 c5		 xor	 eax, ebp
  0000d	89 45 fc	 mov	 DWORD PTR __$ArrayPad$[ebp], eax
  00010	8b 4d 08	 mov	 ecx, DWORD PTR _aIndex$[ebp]
  00013	8b 55 0c	 mov	 edx, DWORD PTR _n$[ebp]

; 374  : 	
; 375  : 	LPOBJ lpUser = &gObj[aIndex];
; 376  : 	GCMonsterQuestKill rSend;	//Добавить структур?
; 377  : 	ZeroMemory(&rSend,sizeof(rSend));	

  00016	33 c0		 xor	 eax, eax
  00018	89 45 f0	 mov	 DWORD PTR _rSend$[ebp], eax
  0001b	89 45 f4	 mov	 DWORD PTR _rSend$[ebp+4], eax
  0001e	89 45 f8	 mov	 DWORD PTR _rSend$[ebp+8], eax

; 378  : 	rSend.h.set((LPBYTE)&rSend, 0xFB, 18, sizeof(rSend));
; 379  : 	rSend.MissionNum = n;
; 380  : 	rSend.MissionKill = lpUser->m_MonsterQuest.KillCount[n];	//нуэн?урезат?паке?можн?прос?++ ?клиент?

  00021	8b c1		 mov	 eax, ecx
  00023	69 c0 d4 0a 00
	00		 imul	 eax, 2772		; 00000ad4H
  00029	88 55 f4	 mov	 BYTE PTR _rSend$[ebp+4], dl
  0002c	03 c2		 add	 eax, edx
  0002e	8b 15 00 00 00
	00		 mov	 edx, DWORD PTR ?gObj@@3PAUOBJECTSTRUCT@@A ; gObj
  00034	c7 45 f0 c1 0c
	fb 12		 mov	 DWORD PTR _rSend$[ebp], 318442689 ; 12fb0cc1H
  0003b	8b 84 82 2c 28
	00 00		 mov	 eax, DWORD PTR [edx+eax*4+10284]

; 381  : 	DataSend(aIndex,(LPBYTE)&rSend,sizeof(rSend));

  00042	6a 0c		 push	 12			; 0000000cH
  00044	8d 55 f0	 lea	 edx, DWORD PTR _rSend$[ebp]
  00047	52		 push	 edx
  00048	51		 push	 ecx
  00049	89 45 f8	 mov	 DWORD PTR _rSend$[ebp+8], eax
  0004c	e8 00 00 00 00	 call	 ?DataSend@@YAHHPAEK@Z	; DataSend

; 382  : 	//MessageChat(aIndex,"Kill: %d", lpUser->m_MonsterQuest.KillCount[n]);
; 383  : }

  00051	8b 4d fc	 mov	 ecx, DWORD PTR __$ArrayPad$[ebp]
  00054	33 cd		 xor	 ecx, ebp
  00056	83 c4 0c	 add	 esp, 12			; 0000000cH
  00059	e8 00 00 00 00	 call	 @__security_check_cookie@4
  0005e	8b e5		 mov	 esp, ebp
  00060	5d		 pop	 ebp
  00061	c2 08 00	 ret	 8
?GCMonsterKill@MonsterQuest@@QAEXHH@Z ENDP		; MonsterQuest::GCMonsterKill
_TEXT	ENDS
PUBLIC	_UserIndex$GSCopy$
PUBLIC	_this$GSCopy$
PUBLIC	__$ArrayPad$
PUBLIC	?GCMission@MonsterQuest@@QAEXH@Z		; MonsterQuest::GCMission
EXTRN	_strncpy:PROC
EXTRN	?GetAttr@CMonsterAttr@@QAEPAUMONSTER_ATTRIBUTE@@H@Z:PROC ; CMonsterAttr::GetAttr
EXTRN	?gMAttr@@3VCMonsterAttr@@A:BYTE			; gMAttr
; Function compile flags: /Ogtp
;	COMDAT ?GCMission@MonsterQuest@@QAEXH@Z
_TEXT	SEGMENT
_UserIndex$GSCopy$ = -228				; size = 4
_QuestNum$ = -224					; size = 4
_this$GSCopy$ = -220					; size = 4
tv556 = -216						; size = 4
_rSend$ = -212						; size = 208
__$ArrayPad$ = -4					; size = 4
_UserIndex$ = 8						; size = 4
?GCMission@MonsterQuest@@QAEXH@Z PROC			; MonsterQuest::GCMission, COMDAT
; _this$ = ecx

; 387  : {

  00000	55		 push	 ebp
  00001	8b ec		 mov	 ebp, esp
  00003	81 ec e4 00 00
	00		 sub	 esp, 228		; 000000e4H
  00009	a1 00 00 00 00	 mov	 eax, DWORD PTR ___security_cookie
  0000e	33 c5		 xor	 eax, ebp
  00010	89 45 fc	 mov	 DWORD PTR __$ArrayPad$[ebp], eax
  00013	56		 push	 esi
  00014	8b 75 08	 mov	 esi, DWORD PTR _UserIndex$[ebp]
  00017	57		 push	 edi
  00018	8b f9		 mov	 edi, ecx

; 388  : 	if(!this->Enable) return;

  0001a	80 3f 00	 cmp	 BYTE PTR [edi], 0

; 400  : 	{
; 401  : 		rSend.KillCount[i] = lpUser->m_MonsterQuest.KillCount[i];

  0001d	89 bd 24 ff ff
	ff		 mov	 DWORD PTR _this$GSCopy$[ebp], edi
  00023	89 b5 1c ff ff
	ff		 mov	 DWORD PTR _UserIndex$GSCopy$[ebp], esi
  00029	0f 84 42 01 00
	00		 je	 $LN8@GCMission

; 389  : 
; 390  : 	LPOBJ lpUser = &gObj[UserIndex];

  0002f	69 f6 50 2b 00
	00		 imul	 esi, 11088		; 00002b50H
  00035	03 35 00 00 00
	00		 add	 esi, DWORD PTR ?gObj@@3PAUOBJECTSTRUCT@@A ; gObj
  0003b	53		 push	 ebx

; 391  : 
; 392  : 	GCMonsterQuestDialog rSend;	//Добавить структур?
; 393  : 	ZeroMemory(&rSend,sizeof(rSend));

  0003c	68 d0 00 00 00	 push	 208			; 000000d0H
  00041	8d 85 2c ff ff
	ff		 lea	 eax, DWORD PTR _rSend$[ebp]
  00047	6a 00		 push	 0
  00049	50		 push	 eax
  0004a	e8 00 00 00 00	 call	 _memset

; 394  : 	rSend.h.set((LPBYTE)&rSend, 0xFB, 19, sizeof(rSend));
; 395  : 	int QuestNum = lpUser->m_MonsterQuest.QuestNumber;
; 396  : 	rSend.NumQuest = QuestNum;
; 397  : 	rSend.MaxQuest = this->QuestCount;

  0004f	66 8b 8f f8 d2
	00 00		 mov	 cx, WORD PTR [edi+54008]
  00056	c7 85 2c ff ff
	ff c1 d0 fb 13	 mov	 DWORD PTR _rSend$[ebp], 335270081 ; 13fbd0c1H
  00060	0f b7 86 28 28
	00 00		 movzx	 eax, WORD PTR [esi+10280]
  00067	8b d0		 mov	 edx, eax
  00069	81 c6 2c 28 00
	00		 add	 esi, 10284		; 0000282cH
  0006f	c1 e2 04	 shl	 edx, 4
  00072	83 c4 0c	 add	 esp, 12			; 0000000cH

; 398  : 	// Можн?улучшить ко??сохранит?больше трафик?
; 399  : 	for(int i=0; i < MAX_MISSION_QUEST; i++)

  00075	33 db		 xor	 ebx, ebx
  00077	2b d0		 sub	 edx, eax
  00079	89 85 20 ff ff
	ff		 mov	 DWORD PTR _QuestNum$[ebp], eax
  0007f	66 89 85 30 ff
	ff ff		 mov	 WORD PTR _rSend$[ebp+4], ax
  00086	8b 85 24 ff ff
	ff		 mov	 eax, DWORD PTR _this$GSCopy$[ebp]
  0008c	89 b5 28 ff ff
	ff		 mov	 DWORD PTR tv556[ebp], esi
  00092	66 89 8d 32 ff
	ff ff		 mov	 WORD PTR _rSend$[ebp+6], cx
  00099	8d bd 41 ff ff
	ff		 lea	 edi, DWORD PTR _rSend$[ebp+21]
  0009f	8d 74 90 0a	 lea	 esi, DWORD PTR [eax+edx*4+10]
$LL16@GCMission:

; 400  : 	{
; 401  : 		rSend.KillCount[i] = lpUser->m_MonsterQuest.KillCount[i];

  000a3	8b 8d 28 ff ff
	ff		 mov	 ecx, DWORD PTR tv556[ebp]
  000a9	66 8b 11	 mov	 dx, WORD PTR [ecx]

; 402  : 		// ----
; 403  : 		rSend.MonsterDataGC[i].Active	= this->MonsterData[QuestNum][i].Active;
; 404  : 
; 405  : 		LPMONSTER_ATTRIBUTE pMonster = gMAttr.GetAttr(this->MonsterData[QuestNum][i].Mission);

  000ac	0f b7 0e	 movzx	 ecx, WORD PTR [esi]
  000af	8a 46 fe	 mov	 al, BYTE PTR [esi-2]
  000b2	51		 push	 ecx
  000b3	66 89 94 5d 34
	ff ff ff	 mov	 WORD PTR _rSend$[ebp+ebx*2+8], dx
  000bb	b9 00 00 00 00	 mov	 ecx, OFFSET ?gMAttr@@3VCMonsterAttr@@A ; gMAttr
  000c0	88 47 ff	 mov	 BYTE PTR [edi-1], al
  000c3	e8 00 00 00 00	 call	 ?GetAttr@CMonsterAttr@@QAEPAUMONSTER_ATTRIBUTE@@H@Z ; CMonsterAttr::GetAttr

; 406  : 
; 407  : 		strncpy(rSend.MonsterDataGC[i].Mission,pMonster->m_Name,20);

  000c8	6a 14		 push	 20			; 00000014H
  000ca	83 c0 08	 add	 eax, 8
  000cd	50		 push	 eax
  000ce	57		 push	 edi
  000cf	e8 00 00 00 00	 call	 _strncpy

; 408  : 
; 409  : 		//rSend.MonsterDataGC[i].Mission	= this->MonsterData[QuestNum][i].Mission;
; 410  : 		//rSend.MonsterDataGC[i].Procent	= this->MonsterData[QuestNum][i].Procent;
; 411  : 		rSend.MonsterDataGC[i].Count	= this->MonsterData[QuestNum][i].Count;

  000d4	8b 56 06	 mov	 edx, DWORD PTR [esi+6]
  000d7	83 85 28 ff ff
	ff 04		 add	 DWORD PTR tv556[ebp], 4
  000de	89 57 17	 mov	 DWORD PTR [edi+23], edx
  000e1	43		 inc	 ebx
  000e2	83 c4 0c	 add	 esp, 12			; 0000000cH
  000e5	83 c6 0c	 add	 esi, 12			; 0000000cH
  000e8	83 c7 1c	 add	 edi, 28			; 0000001cH
  000eb	83 fb 05	 cmp	 ebx, 5
  000ee	7c b3		 jl	 SHORT $LL16@GCMission

; 412  : 	}
; 413  : 
; 414  : 	for(int i=0; i < MAX_REWARD_QUEST; i++)

  000f0	8b 8d 20 ff ff
	ff		 mov	 ecx, DWORD PTR _QuestNum$[ebp]
  000f6	8b 95 24 ff ff
	ff		 mov	 edx, DWORD PTR _this$GSCopy$[ebp]
  000fc	8d 0c 49	 lea	 ecx, DWORD PTR [ecx+ecx*2]
  000ff	03 c9		 add	 ecx, ecx
  00101	8d 45 d0	 lea	 eax, DWORD PTR _rSend$[ebp+164]
  00104	8d 8c ca 3c 75
	00 00		 lea	 ecx, DWORD PTR [edx+ecx*8+30012]
  0010b	be 03 00 00 00	 mov	 esi, 3
  00110	5b		 pop	 ebx
$LL3@GCMission:

; 415  : 	{
; 416  : 		rSend.RewardDataGC[i].Active	= this->RewardData[QuestNum][i].Active;

  00111	0f b6 51 fc	 movzx	 edx, BYTE PTR [ecx-4]
  00115	88 50 fc	 mov	 BYTE PTR [eax-4], dl

; 417  : 		rSend.RewardDataGC[i].Reward	= this->RewardData[QuestNum][i].Reward;

  00118	8b 11		 mov	 edx, DWORD PTR [ecx]
  0011a	89 10		 mov	 DWORD PTR [eax], edx

; 418  : 		rSend.RewardDataGC[i].RewardID	= this->RewardData[QuestNum][i].RewardID;

  0011c	0f b6 51 04	 movzx	 edx, BYTE PTR [ecx+4]
  00120	88 50 04	 mov	 BYTE PTR [eax+4], dl

; 419  : 		rSend.RewardDataGC[i].Level		= this->RewardData[QuestNum][i].Level;

  00123	0f b6 51 05	 movzx	 edx, BYTE PTR [ecx+5]
  00127	88 50 05	 mov	 BYTE PTR [eax+5], dl

; 420  : 		rSend.RewardDataGC[i].Skill		= this->RewardData[QuestNum][i].Skill;

  0012a	0f b6 51 06	 movzx	 edx, BYTE PTR [ecx+6]
  0012e	88 50 06	 mov	 BYTE PTR [eax+6], dl

; 421  : 		rSend.RewardDataGC[i].Luck		= this->RewardData[QuestNum][i].Luck;

  00131	0f b6 51 07	 movzx	 edx, BYTE PTR [ecx+7]
  00135	88 50 07	 mov	 BYTE PTR [eax+7], dl

; 422  : 		rSend.RewardDataGC[i].Option	= this->RewardData[QuestNum][i].Option;

  00138	0f b6 51 08	 movzx	 edx, BYTE PTR [ecx+8]
  0013c	88 50 08	 mov	 BYTE PTR [eax+8], dl

; 423  : 		rSend.RewardDataGC[i].Exellent	= this->RewardData[QuestNum][i].Exellent;

  0013f	0f b6 51 09	 movzx	 edx, BYTE PTR [ecx+9]
  00143	88 50 09	 mov	 BYTE PTR [eax+9], dl

; 424  : 		rSend.RewardDataGC[i].Ancent	= this->RewardData[QuestNum][i].Ancent;

  00146	0f b6 51 0a	 movzx	 edx, BYTE PTR [ecx+10]
  0014a	88 50 0a	 mov	 BYTE PTR [eax+10], dl
  0014d	83 c0 10	 add	 eax, 16			; 00000010H
  00150	83 c1 10	 add	 ecx, 16			; 00000010H
  00153	4e		 dec	 esi
  00154	75 bb		 jne	 SHORT $LL3@GCMission

; 425  : 	}
; 426  : 
; 427  : 	//LogAddC(2,"rSend = %d",sizeof(rSend));
; 428  : 
; 429  : 	DataSend(UserIndex,(LPBYTE)&rSend,sizeof(rSend));

  00156	8b 8d 1c ff ff
	ff		 mov	 ecx, DWORD PTR _UserIndex$GSCopy$[ebp]
  0015c	68 d0 00 00 00	 push	 208			; 000000d0H
  00161	8d 85 2c ff ff
	ff		 lea	 eax, DWORD PTR _rSend$[ebp]
  00167	50		 push	 eax
  00168	51		 push	 ecx
  00169	e8 00 00 00 00	 call	 ?DataSend@@YAHHPAEK@Z	; DataSend
  0016e	83 c4 0c	 add	 esp, 12			; 0000000cH
$LN8@GCMission:

; 430  : }

  00171	8b 4d fc	 mov	 ecx, DWORD PTR __$ArrayPad$[ebp]
  00174	5f		 pop	 edi
  00175	33 cd		 xor	 ecx, ebp
  00177	5e		 pop	 esi
  00178	e8 00 00 00 00	 call	 @__security_check_cookie@4
  0017d	8b e5		 mov	 esp, ebp
  0017f	5d		 pop	 ebp
  00180	c2 04 00	 ret	 4
?GCMission@MonsterQuest@@QAEXH@Z ENDP			; MonsterQuest::GCMission
_TEXT	ENDS
PUBLIC	?GCConnectUser@MonsterQuest@@QAEXH@Z		; MonsterQuest::GCConnectUser
; Function compile flags: /Ogtp
;	COMDAT ?GCConnectUser@MonsterQuest@@QAEXH@Z
_TEXT	SEGMENT
_UserIndex$ = 8						; size = 4
?GCConnectUser@MonsterQuest@@QAEXH@Z PROC		; MonsterQuest::GCConnectUser, COMDAT
; _this$ = ecx

; 434  : {

  00000	55		 push	 ebp
  00001	8b ec		 mov	 ebp, esp

; 449  : }

  00003	5d		 pop	 ebp

; 435  : 	//GCMonsterQuestConnect	rSend;	//Добавить структур?
; 436  : 	//ZeroMemory(&rSend,sizeof(rSend));
; 437  : 	//rSend.h.set((LPBYTE)&rSend, 0xFB, 19, sizeof(rSend));
; 438  : 
; 439  : 	//rSend.UserQuest.QuestNumber = lpUser->m_MonsterQuest.QuestNumber;
; 440  : 
; 441  : 	//for(int i=0; i < MAX_MISSION_QUEST; i++)
; 442  : 	//{
; 443  : 	//	rSend.UserQuest.KillCount[i] = lpUser->m_MonsterQuest.KillCount[i];
; 444  : 	//}
; 445  : 
; 446  : 	//DataSend(lpUser->m_Index,(LPBYTE)&rSend,sizeof(rSend));
; 447  : 	// ----
; 448  : 	this->GCMission(UserIndex);

  00004	e9 00 00 00 00	 jmp	 ?GCMission@MonsterQuest@@QAEXH@Z ; MonsterQuest::GCMission
?GCConnectUser@MonsterQuest@@QAEXH@Z ENDP		; MonsterQuest::GCConnectUser
_TEXT	ENDS
PUBLIC	?GCWindowsOpen@MonsterQuest@@QAEXH@Z		; MonsterQuest::GCWindowsOpen
; Function compile flags: /Ogtp
;	COMDAT ?GCWindowsOpen@MonsterQuest@@QAEXH@Z
_TEXT	SEGMENT
_rSend$ = -8						; size = 5
_UserIndex$ = 8						; size = 4
?GCWindowsOpen@MonsterQuest@@QAEXH@Z PROC		; MonsterQuest::GCWindowsOpen, COMDAT
; _this$ = ecx

; 453  : {

  00000	55		 push	 ebp
  00001	8b ec		 mov	 ebp, esp
  00003	83 ec 08	 sub	 esp, 8

; 454  : 	LPOBJ lpUser = &gObj[UserIndex];

  00006	8b 4d 08	 mov	 ecx, DWORD PTR _UserIndex$[ebp]

; 455  : 
; 456  : 	GCQuestWindowsOpen rSend;	//Добавить структур?
; 457  : 	ZeroMemory(&rSend,sizeof(rSend));
; 458  : 	rSend.h.set((LPBYTE)&rSend, 0xFB, 20, sizeof(rSend));
; 459  : 	rSend.Open = 1;
; 460  : 	DataSend(lpUser->m_Index,(LPBYTE)&rSend,sizeof(rSend));

  00009	8b 15 00 00 00
	00		 mov	 edx, DWORD PTR ?gObj@@3PAUOBJECTSTRUCT@@A ; gObj
  0000f	69 c9 50 2b 00
	00		 imul	 ecx, 11088		; 00002b50H
  00015	33 c0		 xor	 eax, eax
  00017	89 45 f8	 mov	 DWORD PTR _rSend$[ebp], eax
  0001a	88 45 fc	 mov	 BYTE PTR _rSend$[ebp+4], al
  0001d	6a 05		 push	 5
  0001f	8d 45 f8	 lea	 eax, DWORD PTR _rSend$[ebp]
  00022	50		 push	 eax
  00023	c7 45 f8 c1 05
	fb 14		 mov	 DWORD PTR _rSend$[ebp], 351995329 ; 14fb05c1H
  0002a	c6 45 fc 01	 mov	 BYTE PTR _rSend$[ebp+4], 1
  0002e	8b 04 11	 mov	 eax, DWORD PTR [ecx+edx]
  00031	50		 push	 eax
  00032	e8 00 00 00 00	 call	 ?DataSend@@YAHHPAEK@Z	; DataSend
  00037	83 c4 0c	 add	 esp, 12			; 0000000cH

; 461  : }

  0003a	8b e5		 mov	 esp, ebp
  0003c	5d		 pop	 ebp
  0003d	c2 04 00	 ret	 4
?GCWindowsOpen@MonsterQuest@@QAEXH@Z ENDP		; MonsterQuest::GCWindowsOpen
_TEXT	ENDS
PUBLIC	??0MonsterQuest@@QAE@XZ				; MonsterQuest::MonsterQuest
; Function compile flags: /Ogtp
;	COMDAT ??0MonsterQuest@@QAE@XZ
_TEXT	SEGMENT
??0MonsterQuest@@QAE@XZ PROC				; MonsterQuest::MonsterQuest, COMDAT
; _this$ = ecx

; 17   : {

  00000	56		 push	 esi
  00001	8b f1		 mov	 esi, ecx

; 18   : 	this->Init();

  00003	e8 00 00 00 00	 call	 ?Init@MonsterQuest@@QAEXXZ ; MonsterQuest::Init

; 19   : }

  00008	8b c6		 mov	 eax, esi
  0000a	5e		 pop	 esi
  0000b	c3		 ret	 0
??0MonsterQuest@@QAE@XZ ENDP				; MonsterQuest::MonsterQuest
_TEXT	ENDS
PUBLIC	??_C@_0BI@INKFIIIH@ZtData?2MonsterQuest?4ini?$AA@ ; `string'
PUBLIC	?Load@MonsterQuest@@QAEXXZ			; MonsterQuest::Load
EXTRN	?GetNewPath@CDirPath@@QAEPADPAD@Z:PROC		; CDirPath::GetNewPath
EXTRN	?gDirPath@@3VCDirPath@@A:BYTE			; gDirPath
;	COMDAT ??_C@_0BI@INKFIIIH@ZtData?2MonsterQuest?4ini?$AA@
CONST	SEGMENT
??_C@_0BI@INKFIIIH@ZtData?2MonsterQuest?4ini?$AA@ DB 'ZtData\MonsterQuest'
	DB	'.ini', 00H					; `string'
; Function compile flags: /Ogtp
CONST	ENDS
;	COMDAT ?Load@MonsterQuest@@QAEXXZ
_TEXT	SEGMENT
?Load@MonsterQuest@@QAEXXZ PROC				; MonsterQuest::Load, COMDAT
; _this$ = ecx

; 38   : {

  00000	56		 push	 esi
  00001	8b f1		 mov	 esi, ecx

; 39   : 	this->Init();

  00003	e8 00 00 00 00	 call	 ?Init@MonsterQuest@@QAEXXZ ; MonsterQuest::Init

; 40   : 	this->Read(gDirPath.GetNewPath("ZtData\\MonsterQuest.ini"));

  00008	68 00 00 00 00	 push	 OFFSET ??_C@_0BI@INKFIIIH@ZtData?2MonsterQuest?4ini?$AA@
  0000d	b9 00 00 00 00	 mov	 ecx, OFFSET ?gDirPath@@3VCDirPath@@A ; gDirPath
  00012	e8 00 00 00 00	 call	 ?GetNewPath@CDirPath@@QAEPADPAD@Z ; CDirPath::GetNewPath
  00017	50		 push	 eax
  00018	8b ce		 mov	 ecx, esi
  0001a	e8 00 00 00 00	 call	 ?Read@MonsterQuest@@QAEXPAD@Z ; MonsterQuest::Read
  0001f	5e		 pop	 esi

; 41   : }

  00020	c3		 ret	 0
?Load@MonsterQuest@@QAEXXZ ENDP				; MonsterQuest::Load
_TEXT	ENDS
PUBLIC	??_C@_0BF@MJPLKCAO@Monster?5Quest?5Finish?$AA@	; `string'
PUBLIC	?NPCDialog@MonsterQuest@@QAE_NHH@Z		; MonsterQuest::NPCDialog
EXTRN	?MessageChat@@YAXHPADZZ:PROC			; MessageChat
;	COMDAT ??_C@_0BF@MJPLKCAO@Monster?5Quest?5Finish?$AA@
CONST	SEGMENT
??_C@_0BF@MJPLKCAO@Monster?5Quest?5Finish?$AA@ DB 'Monster Quest Finish', 00H ; `string'
; Function compile flags: /Ogtp
CONST	ENDS
;	COMDAT ?NPCDialog@MonsterQuest@@QAE_NHH@Z
_TEXT	SEGMENT
_NpcIndex$ = 8						; size = 4
_UserIndex$ = 12					; size = 4
?NPCDialog@MonsterQuest@@QAE_NHH@Z PROC			; MonsterQuest::NPCDialog, COMDAT
; _this$ = ecx

; 204  : {

  00000	55		 push	 ebp
  00001	8b ec		 mov	 ebp, esp

; 205  : 	if(!this->Enable) return false;

  00003	80 39 00	 cmp	 BYTE PTR [ecx], 0
  00006	75 06		 jne	 SHORT $LN3@NPCDialog
  00008	32 c0		 xor	 al, al

; 227  : }

  0000a	5d		 pop	 ebp
  0000b	c2 08 00	 ret	 8
$LN3@NPCDialog:

; 208  : 	LPOBJ lpNpc = &gObj[NpcIndex];

  0000e	8b 45 08	 mov	 eax, DWORD PTR _NpcIndex$[ebp]
  00011	69 c0 50 2b 00
	00		 imul	 eax, 11088		; 00002b50H
  00017	56		 push	 esi
  00018	8b 35 00 00 00
	00		 mov	 esi, DWORD PTR ?gObj@@3PAUOBJECTSTRUCT@@A ; gObj

; 209  : 
; 210  : 	//LogAddC(2,"NPC: %d Code",gObj[UserIndex].Class);
; 211  : 
; 212  : 	if(lpNpc->Class == this->NPC_Class && lpNpc->MapNumber == this->NPC_Map && lpNpc->X == this->NPC_X && lpNpc->Y == this->NPC_Y)

  0001e	66 8b 94 30 b8
	00 00 00	 mov	 dx, WORD PTR [eax+esi+184]
  00026	03 c6		 add	 eax, esi
  00028	66 3b 51 02	 cmp	 dx, WORD PTR [ecx+2]
  0002c	75 4e		 jne	 SHORT $LN2@NPCDialog
  0002e	8a 90 49 01 00
	00		 mov	 dl, BYTE PTR [eax+329]
  00034	3a 51 04	 cmp	 dl, BYTE PTR [ecx+4]
  00037	75 43		 jne	 SHORT $LN2@NPCDialog
  00039	0f b6 51 05	 movzx	 edx, BYTE PTR [ecx+5]
  0003d	66 39 90 44 01
	00 00		 cmp	 WORD PTR [eax+324], dx
  00044	75 36		 jne	 SHORT $LN2@NPCDialog
  00046	0f b6 51 06	 movzx	 edx, BYTE PTR [ecx+6]
  0004a	66 39 90 46 01
	00 00		 cmp	 WORD PTR [eax+326], dx
  00051	75 29		 jne	 SHORT $LN2@NPCDialog

; 206  : 
; 207  : 	LPOBJ lpUser = &gObj[UserIndex];

  00053	8b 45 0c	 mov	 eax, DWORD PTR _UserIndex$[ebp]
  00056	8b d0		 mov	 edx, eax
  00058	69 d2 50 2b 00
	00		 imul	 edx, 11088		; 00002b50H

; 213  : 	{
; 214  : 		int UserQuest = lpUser->m_MonsterQuest.QuestNumber;
; 215  : 		//Debug LogAdd UserQuest >= QuestCount
; 216  : 		//LogAddC(2,"%d %d",UserQuest,this->QuestCount);
; 217  : 		if(UserQuest >= this->QuestCount)

  0005e	0f b7 94 32 28
	28 00 00	 movzx	 edx, WORD PTR [edx+esi+10280]
  00066	3b 91 f8 d2 00
	00		 cmp	 edx, DWORD PTR [ecx+54008]
  0006c	72 15		 jb	 SHORT $LN1@NPCDialog

; 218  : 		{
; 219  : 			MessageChat(UserIndex,"Monster Quest Finish");

  0006e	68 00 00 00 00	 push	 OFFSET ??_C@_0BF@MJPLKCAO@Monster?5Quest?5Finish?$AA@
  00073	50		 push	 eax
  00074	e8 00 00 00 00	 call	 ?MessageChat@@YAXHPADZZ	; MessageChat
  00079	83 c4 08	 add	 esp, 8
$LN2@NPCDialog:

; 225  : 	}
; 226  : 	return false;

  0007c	32 c0		 xor	 al, al
  0007e	5e		 pop	 esi

; 227  : }

  0007f	5d		 pop	 ebp
  00080	c2 08 00	 ret	 8
$LN1@NPCDialog:

; 220  : 			return false;
; 221  : 		}
; 222  : 
; 223  : 		this->GCWindowsOpen(UserIndex);

  00083	50		 push	 eax
  00084	e8 00 00 00 00	 call	 ?GCWindowsOpen@MonsterQuest@@QAEXH@Z ; MonsterQuest::GCWindowsOpen

; 224  : 		return true;

  00089	b0 01		 mov	 al, 1
  0008b	5e		 pop	 esi

; 227  : }

  0008c	5d		 pop	 ebp
  0008d	c2 08 00	 ret	 8
?NPCDialog@MonsterQuest@@QAE_NHH@Z ENDP			; MonsterQuest::NPCDialog
_TEXT	ENDS
PUBLIC	??_C@_0CH@IHJJKCKP@?$EA?$FLMonsterQuest?$FN?3?5Mission?5accompl@ ; `string'
PUBLIC	?MissionKill@MonsterQuest@@QAEXHH@Z		; MonsterQuest::MissionKill
EXTRN	?ZtFireCracker@@YAXHEE@Z:PROC			; ZtFireCracker
;	COMDAT ??_C@_0CH@IHJJKCKP@?$EA?$FLMonsterQuest?$FN?3?5Mission?5accompl@
CONST	SEGMENT
??_C@_0CH@IHJJKCKP@?$EA?$FLMonsterQuest?$FN?3?5Mission?5accompl@ DB '@[Mo'
	DB	'nsterQuest]: Mission accomplished!', 00H	; `string'
; Function compile flags: /Ogtp
CONST	ENDS
;	COMDAT ?MissionKill@MonsterQuest@@QAEXHH@Z
_TEXT	SEGMENT
tv351 = 8						; size = 4
_MonsterIndex$ = 8					; size = 4
_UserIndex$ = 12					; size = 4
?MissionKill@MonsterQuest@@QAEXHH@Z PROC		; MonsterQuest::MissionKill, COMDAT
; _this$ = ecx

; 231  : {

  00000	55		 push	 ebp
  00001	8b ec		 mov	 ebp, esp
  00003	53		 push	 ebx
  00004	8b d9		 mov	 ebx, ecx

; 232  : 	if(!this->Enable) return;

  00006	80 3b 00	 cmp	 BYTE PTR [ebx], 0
  00009	0f 84 af 00 00
	00		 je	 $LN1@MissionKil

; 233  : 
; 234  : 	LPOBJ lpUser = &gObj[UserIndex];
; 235  : 	LPOBJ lpMonster = &gObj[MonsterIndex];

  0000f	8b 45 08	 mov	 eax, DWORD PTR _MonsterIndex$[ebp]
  00012	8b 0d 00 00 00
	00		 mov	 ecx, DWORD PTR ?gObj@@3PAUOBJECTSTRUCT@@A ; gObj
  00018	69 c0 50 2b 00
	00		 imul	 eax, 11088		; 00002b50H
  0001e	56		 push	 esi
  0001f	8b 75 0c	 mov	 esi, DWORD PTR _UserIndex$[ebp]
  00022	69 f6 50 2b 00
	00		 imul	 esi, 11088		; 00002b50H

; 236  : 
; 237  : 	//int UserIndex = UserIndex;
; 238  : 	int UserQuest = lpUser->m_MonsterQuest.QuestNumber;

  00028	0f b7 94 0e 28
	28 00 00	 movzx	 edx, WORD PTR [esi+ecx+10280]
  00030	03 c1		 add	 eax, ecx
  00032	0f b7 80 b8 00
	00 00		 movzx	 eax, WORD PTR [eax+184]
  00039	03 f1		 add	 esi, ecx

; 246  : 			{
; 247  : 				continue;
; 248  : 			}
; 249  : 
; 250  : 			lpUser->m_MonsterQuest.KillCount[n]++;

  0003b	89 45 08	 mov	 DWORD PTR tv351[ebp], eax
  0003e	8b c2		 mov	 eax, edx
  00040	c1 e0 04	 shl	 eax, 4
  00043	33 c9		 xor	 ecx, ecx
  00045	2b c2		 sub	 eax, edx
  00047	57		 push	 edi
  00048	8d be 2c 28 00
	00		 lea	 edi, DWORD PTR [esi+10284]
  0004e	8d 44 83 10	 lea	 eax, DWORD PTR [ebx+eax*4+16]
$LL6@MissionKil:

; 241  : 	{
; 242  : 		//LogAddC(2,"Monster Class: %d",lpMonster->Class);
; 243  : 		if( lpMonster->Class == this->MonsterData[UserQuest][n].Mission)

  00052	66 8b 55 08	 mov	 dx, WORD PTR tv351[ebp]
  00056	66 3b 50 fa	 cmp	 dx, WORD PTR [eax-6]
  0005a	75 06		 jne	 SHORT $LN5@MissionKil

; 244  : 		{
; 245  : 			if(lpUser->m_MonsterQuest.KillCount[n] >= this->MonsterData[UserQuest][n].Count)

  0005c	8b 17		 mov	 edx, DWORD PTR [edi]
  0005e	3b 10		 cmp	 edx, DWORD PTR [eax]
  00060	72 13		 jb	 SHORT $LN2@MissionKil
$LN5@MissionKil:

; 239  : 
; 240  : 	for(int n = 0; n < MAX_MISSION_QUEST; n++)

  00062	41		 inc	 ecx
  00063	83 c0 0c	 add	 eax, 12			; 0000000cH
  00066	83 c7 04	 add	 edi, 4
  00069	83 f9 05	 cmp	 ecx, 5
  0006c	7c e4		 jl	 SHORT $LL6@MissionKil
  0006e	5f		 pop	 edi
  0006f	5e		 pop	 esi
  00070	5b		 pop	 ebx

; 258  : 			}
; 259  : 
; 260  : 			break;
; 261  : 		}
; 262  : 	}
; 263  : }

  00071	5d		 pop	 ebp
  00072	c2 08 00	 ret	 8
$LN2@MissionKil:

; 246  : 			{
; 247  : 				continue;
; 248  : 			}
; 249  : 
; 250  : 			lpUser->m_MonsterQuest.KillCount[n]++;

  00075	ff 84 8e 2c 28
	00 00		 inc	 DWORD PTR [esi+ecx*4+10284]

; 251  : 			
; 252  : 			this->GCMonsterKill(UserIndex, n);

  0007c	8b 7d 0c	 mov	 edi, DWORD PTR _UserIndex$[ebp]
  0007f	51		 push	 ecx
  00080	57		 push	 edi
  00081	8b cb		 mov	 ecx, ebx
  00083	e8 00 00 00 00	 call	 ?GCMonsterKill@MonsterQuest@@QAEXHH@Z ; MonsterQuest::GCMonsterKill

; 253  : 
; 254  : 			if(this->CheckDoneQuest(UserIndex) == true)

  00088	57		 push	 edi
  00089	8b cb		 mov	 ecx, ebx
  0008b	e8 00 00 00 00	 call	 ?CheckDoneQuest@MonsterQuest@@QAE_NH@Z ; MonsterQuest::CheckDoneQuest
  00090	3c 01		 cmp	 al, 1
  00092	75 28		 jne	 SHORT $LN12@MissionKil

; 255  : 			{
; 256  : 				MessageChat(lpUser->m_Index,"@[MonsterQuest]: Mission accomplished!");

  00094	8b 06		 mov	 eax, DWORD PTR [esi]
  00096	68 00 00 00 00	 push	 OFFSET ??_C@_0CH@IHJJKCKP@?$EA?$FLMonsterQuest?$FN?3?5Mission?5accompl@
  0009b	50		 push	 eax
  0009c	e8 00 00 00 00	 call	 ?MessageChat@@YAXHPADZZ	; MessageChat

; 257  : 				ZtFireCracker(lpUser->m_Index, lpUser->X, lpUser->Y);

  000a1	0f b6 8e 46 01
	00 00		 movzx	 ecx, BYTE PTR [esi+326]
  000a8	0f b6 96 44 01
	00 00		 movzx	 edx, BYTE PTR [esi+324]
  000af	8b 06		 mov	 eax, DWORD PTR [esi]
  000b1	51		 push	 ecx
  000b2	52		 push	 edx
  000b3	50		 push	 eax
  000b4	e8 00 00 00 00	 call	 ?ZtFireCracker@@YAXHEE@Z ; ZtFireCracker
  000b9	83 c4 14	 add	 esp, 20			; 00000014H
$LN12@MissionKil:
  000bc	5f		 pop	 edi
  000bd	5e		 pop	 esi
$LN1@MissionKil:
  000be	5b		 pop	 ebx

; 258  : 			}
; 259  : 
; 260  : 			break;
; 261  : 		}
; 262  : 	}
; 263  : }

  000bf	5d		 pop	 ebp
  000c0	c2 08 00	 ret	 8
?MissionKill@MonsterQuest@@QAEXHH@Z ENDP		; MonsterQuest::MissionKill
_TEXT	ENDS
PUBLIC	__real@4f800000
PUBLIC	??_C@_0BM@LELLNEOF@?$EA?$FLMonsterQuest?$FN?3?5Credit?5?$CFd?$CB?$AA@ ; `string'
PUBLIC	??_C@_0BM@MDPLPKLO@?$EA?$FLMonsterQuest?$FN?3?5Goblin?5?$CFd?$CB?$AA@ ; `string'
PUBLIC	??_C@_0BM@HKBEGMEL@?$EA?$FLMonsterQuest?$FN?3?5WCoinP?5?$CFd?$CB?$AA@ ; `string'
PUBLIC	__real@41f0000000000000
PUBLIC	??_C@_0BM@PPFGBMHO@?$EA?$FLMonsterQuest?$FN?3?5WCoinC?5?$CFd?$CB?$AA@ ; `string'
PUBLIC	??_C@_0CA@DBGFIJKA@?$EA?$FLMonsterQuest?$FN?3?5FreePoints?5?$CFd?$CB?$AA@ ; `string'
PUBLIC	?MissionReward@MonsterQuest@@QAEXH@Z		; MonsterQuest::MissionReward
EXTRN	?ZtUserDataSend@@YAXH@Z:PROC			; ZtUserDataSend
EXTRN	?GDSaveUserInfo@GameShop@@QAEXH@Z:PROC		; GameShop::GDSaveUserInfo
EXTRN	?gGameShop@@3VGameShop@@A:BYTE			; gGameShop
EXTRN	?ItemSerialCreateSend@@YAXHEEEHEEEEEHEE@Z:PROC	; ItemSerialCreateSend
EXTRN	?MoneyItemDrop@MapClass@@QAEHHHH@Z:PROC		; MapClass::MoneyItemDrop
EXTRN	?MapC@@3PAVMapClass@@A:BYTE			; MapC
;	COMDAT __real@4f800000
CONST	SEGMENT
__real@4f800000 DD 04f800000r			; 4.29497e+009
CONST	ENDS
;	COMDAT ??_C@_0BM@LELLNEOF@?$EA?$FLMonsterQuest?$FN?3?5Credit?5?$CFd?$CB?$AA@
CONST	SEGMENT
??_C@_0BM@LELLNEOF@?$EA?$FLMonsterQuest?$FN?3?5Credit?5?$CFd?$CB?$AA@ DB '@'
	DB	'[MonsterQuest]: Credit %d!', 00H		; `string'
CONST	ENDS
;	COMDAT ??_C@_0BM@MDPLPKLO@?$EA?$FLMonsterQuest?$FN?3?5Goblin?5?$CFd?$CB?$AA@
CONST	SEGMENT
??_C@_0BM@MDPLPKLO@?$EA?$FLMonsterQuest?$FN?3?5Goblin?5?$CFd?$CB?$AA@ DB '@'
	DB	'[MonsterQuest]: Goblin %d!', 00H		; `string'
CONST	ENDS
;	COMDAT ??_C@_0BM@HKBEGMEL@?$EA?$FLMonsterQuest?$FN?3?5WCoinP?5?$CFd?$CB?$AA@
CONST	SEGMENT
??_C@_0BM@HKBEGMEL@?$EA?$FLMonsterQuest?$FN?3?5WCoinP?5?$CFd?$CB?$AA@ DB '@'
	DB	'[MonsterQuest]: WCoinP %d!', 00H		; `string'
CONST	ENDS
;	COMDAT __real@41f0000000000000
CONST	SEGMENT
__real@41f0000000000000 DQ 041f0000000000000r	; 4.29497e+009
CONST	ENDS
;	COMDAT ??_C@_0BM@PPFGBMHO@?$EA?$FLMonsterQuest?$FN?3?5WCoinC?5?$CFd?$CB?$AA@
CONST	SEGMENT
??_C@_0BM@PPFGBMHO@?$EA?$FLMonsterQuest?$FN?3?5WCoinC?5?$CFd?$CB?$AA@ DB '@'
	DB	'[MonsterQuest]: WCoinC %d!', 00H		; `string'
CONST	ENDS
;	COMDAT ??_C@_0CA@DBGFIJKA@?$EA?$FLMonsterQuest?$FN?3?5FreePoints?5?$CFd?$CB?$AA@
CONST	SEGMENT
??_C@_0CA@DBGFIJKA@?$EA?$FLMonsterQuest?$FN?3?5FreePoints?5?$CFd?$CB?$AA@ DB '@'
	DB	'[MonsterQuest]: FreePoints %d!', 00H	; `string'
; Function compile flags: /Ogtp
CONST	ENDS
;	COMDAT ?MissionReward@MonsterQuest@@QAEXH@Z
_TEXT	SEGMENT
tv1167 = -16						; size = 4
tv1161 = -16						; size = 4
tv1154 = -16						; size = 4
tv1148 = -16						; size = 4
_UserQuest$ = -12					; size = 4
tv587 = -8						; size = 4
_this$ = -4						; size = 4
_UserIndex$ = 8						; size = 4
?MissionReward@MonsterQuest@@QAEXH@Z PROC		; MonsterQuest::MissionReward, COMDAT
; _this$ = ecx

; 267  : {

  00000	55		 push	 ebp
  00001	8b ec		 mov	 ebp, esp
  00003	83 ec 10	 sub	 esp, 16			; 00000010H
  00006	57		 push	 edi
  00007	8b f9		 mov	 edi, ecx

; 268  : 	if(!this->Enable) return;

  00009	80 3f 00	 cmp	 BYTE PTR [edi], 0
  0000c	89 7d fc	 mov	 DWORD PTR _this$[ebp], edi
  0000f	0f 84 64 02 00
	00		 je	 $LN19@MissionRew

; 269  : 
; 270  : 	if(this->CheckDoneQuest(UserIndex) == false) return;

  00015	56		 push	 esi
  00016	8b 75 08	 mov	 esi, DWORD PTR _UserIndex$[ebp]
  00019	56		 push	 esi
  0001a	e8 00 00 00 00	 call	 ?CheckDoneQuest@MonsterQuest@@QAE_NH@Z ; MonsterQuest::CheckDoneQuest
  0001f	84 c0		 test	 al, al
  00021	0f 84 51 02 00
	00		 je	 $LN32@MissionRew

; 271  : 
; 272  : 	LPOBJ lpUser = &gObj[UserIndex];

  00027	69 f6 50 2b 00
	00		 imul	 esi, 11088		; 00002b50H
  0002d	03 35 00 00 00
	00		 add	 esi, DWORD PTR ?gObj@@3PAUOBJECTSTRUCT@@A ; gObj
  00033	53		 push	 ebx

; 273  : 
; 274  : 	int UserQuest = lpUser->m_MonsterQuest.QuestNumber;

  00034	0f b7 86 28 28
	00 00		 movzx	 eax, WORD PTR [esi+10280]
  0003b	8d 0c 40	 lea	 ecx, DWORD PTR [eax+eax*2]
  0003e	89 45 f4	 mov	 DWORD PTR _UserQuest$[ebp], eax
  00041	8b c1		 mov	 eax, ecx

; 275  : 
; 276  : 	for(int n = 0; n < MAX_REWARD_QUEST; n++)

  00043	33 db		 xor	 ebx, ebx
  00045	c1 e0 04	 shl	 eax, 4
  00048	89 4d f8	 mov	 DWORD PTR tv587[ebp], ecx
  0004b	8d bc 38 3c 75
	00 00		 lea	 edi, DWORD PTR [eax+edi+30012]
  00052	eb 03		 jmp	 SHORT $LN16@MissionRew
$LL31@MissionRew:

; 271  : 
; 272  : 	LPOBJ lpUser = &gObj[UserIndex];

  00054	8b 4d f8	 mov	 ecx, DWORD PTR tv587[ebp]
$LN16@MissionRew:

; 277  : 	{
; 278  : 		if(this->RewardData[UserQuest][n].Active)

  00057	8a 47 fc	 mov	 al, BYTE PTR [edi-4]
  0005a	84 c0		 test	 al, al
  0005c	0f 84 ba 01 00
	00		 je	 $LN15@MissionRew

; 279  : 		{
; 280  : 			switch(this->RewardData[UserQuest][n].Active)

  00062	0f b6 c0	 movzx	 eax, al
  00065	48		 dec	 eax
  00066	83 f8 06	 cmp	 eax, 6
  00069	0f 87 ad 01 00
	00		 ja	 $LN15@MissionRew
  0006f	ff 24 85 00 00
	00 00		 jmp	 DWORD PTR $LN37@MissionRew[eax*4]
$LN10@MissionRew:

; 281  : 			{
; 282  : 			case eZen:
; 283  : 				{
; 284  : 					MapC[lpUser->MapNumber].MoneyItemDrop(this->RewardData[UserQuest][n].Reward, lpUser->X, lpUser->Y);	//Скорее всег?нужн?буде?переписать

  00076	0f bf 8e 46 01
	00 00		 movsx	 ecx, WORD PTR [esi+326]
  0007d	0f bf 96 44 01
	00 00		 movsx	 edx, WORD PTR [esi+324]
  00084	8b 07		 mov	 eax, DWORD PTR [edi]
  00086	51		 push	 ecx
  00087	0f b6 8e 49 01
	00 00		 movzx	 ecx, BYTE PTR [esi+329]
  0008e	69 c9 48 3d 05
	00		 imul	 ecx, 343368		; 00053d48H
  00094	52		 push	 edx
  00095	50		 push	 eax
  00096	81 c1 00 00 00
	00		 add	 ecx, OFFSET ?MapC@@3PAVMapClass@@A ; MapC
  0009c	e8 00 00 00 00	 call	 ?MoneyItemDrop@MapClass@@QAEHHHH@Z ; MapClass::MoneyItemDrop

; 285  : 				}
; 286  : 				break;

  000a1	e9 76 01 00 00	 jmp	 $LN15@MissionRew
$LN9@MissionRew:

; 287  : 			case eFreePoints:
; 288  : 				{
; 289  : 					MessageChat(lpUser->m_Index,"@[MonsterQuest]: FreePoints %d!",this->RewardData[UserQuest][n].Reward);

  000a6	8b 0f		 mov	 ecx, DWORD PTR [edi]
  000a8	8b 16		 mov	 edx, DWORD PTR [esi]
  000aa	51		 push	 ecx
  000ab	68 00 00 00 00	 push	 OFFSET ??_C@_0CA@DBGFIJKA@?$EA?$FLMonsterQuest?$FN?3?5FreePoints?5?$CFd?$CB?$AA@
  000b0	52		 push	 edx
  000b1	e8 00 00 00 00	 call	 ?MessageChat@@YAXHPADZZ	; MessageChat

; 290  : 					lpUser->ZtFreePoints += this->RewardData[UserQuest][n].Reward;

  000b6	8b 07		 mov	 eax, DWORD PTR [edi]
  000b8	01 86 8c 22 00
	00		 add	 DWORD PTR [esi+8844], eax

; 291  : 					lpUser->LevelUpPoint += this->RewardData[UserQuest][n].Reward;

  000be	8b 0f		 mov	 ecx, DWORD PTR [edi]
  000c0	83 c4 0c	 add	 esp, 12			; 0000000cH
  000c3	01 8e c0 00 00
	00		 add	 DWORD PTR [esi+192], ecx

; 292  : 				}
; 293  : 				break;

  000c9	e9 4e 01 00 00	 jmp	 $LN15@MissionRew
$LN8@MissionRew:

; 294  : 			case eItem:
; 295  : 				{
; 296  : 					int rItem = ITEMGET(this->RewardData[UserQuest][n].Reward,this->RewardData[UserQuest][n].RewardID);
; 297  : 					int rLevel = this->RewardData[UserQuest][n].Level;
; 298  : 					int rSkill = this->RewardData[UserQuest][n].Skill;
; 299  : 					int rLuck = this->RewardData[UserQuest][n].Luck;
; 300  : 					int rOption = this->RewardData[UserQuest][n].Option;
; 301  : 					int rExellent = this->RewardData[UserQuest][n].Exellent;
; 302  : 					int rAncent = this->RewardData[UserQuest][n].Ancent;
; 303  : 					ItemSerialCreateSend(lpUser->m_Index,lpUser->MapNumber,lpUser->X,lpUser->Y,rItem,rLevel,0,rSkill,rLuck,rOption,lpUser->m_Index,rExellent,rAncent);	//?

  000ce	0f b6 57 0a	 movzx	 edx, BYTE PTR [edi+10]
  000d2	8b 06		 mov	 eax, DWORD PTR [esi]
  000d4	52		 push	 edx
  000d5	0f b6 57 09	 movzx	 edx, BYTE PTR [edi+9]
  000d9	52		 push	 edx
  000da	0f b6 57 08	 movzx	 edx, BYTE PTR [edi+8]
  000de	50		 push	 eax
  000df	52		 push	 edx
  000e0	0f b6 57 07	 movzx	 edx, BYTE PTR [edi+7]
  000e4	52		 push	 edx
  000e5	0f b6 57 06	 movzx	 edx, BYTE PTR [edi+6]
  000e9	52		 push	 edx
  000ea	0f b6 57 05	 movzx	 edx, BYTE PTR [edi+5]
  000ee	6a 00		 push	 0
  000f0	52		 push	 edx
  000f1	8b 55 fc	 mov	 edx, DWORD PTR _this$[ebp]
  000f4	8d 8c 19 54 07
	00 00		 lea	 ecx, DWORD PTR [ecx+ebx+1876]
  000fb	03 c9		 add	 ecx, ecx
  000fd	0f b6 0c ca	 movzx	 ecx, BYTE PTR [edx+ecx*8]
  00101	8b 17		 mov	 edx, DWORD PTR [edi]
  00103	c1 e2 09	 shl	 edx, 9
  00106	03 ca		 add	 ecx, edx
  00108	0f b6 96 44 01
	00 00		 movzx	 edx, BYTE PTR [esi+324]
  0010f	51		 push	 ecx
  00110	0f b6 8e 46 01
	00 00		 movzx	 ecx, BYTE PTR [esi+326]
  00117	51		 push	 ecx
  00118	0f b6 8e 49 01
	00 00		 movzx	 ecx, BYTE PTR [esi+329]
  0011f	52		 push	 edx
  00120	51		 push	 ecx
  00121	50		 push	 eax
  00122	e8 00 00 00 00	 call	 ?ItemSerialCreateSend@@YAXHEEEHEEEEEHEE@Z ; ItemSerialCreateSend
  00127	83 c4 34	 add	 esp, 52			; 00000034H

; 304  : 				}
; 305  : 				break;

  0012a	e9 ed 00 00 00	 jmp	 $LN15@MissionRew
$LN7@MissionRew:

; 306  : 			case eWCoin:
; 307  : 				{
; 308  : 					MessageChat(lpUser->m_Index,"@[MonsterQuest]: WCoinC %d!",this->RewardData[UserQuest][n].Reward);

  0012f	8b 17		 mov	 edx, DWORD PTR [edi]
  00131	8b 06		 mov	 eax, DWORD PTR [esi]
  00133	52		 push	 edx
  00134	68 00 00 00 00	 push	 OFFSET ??_C@_0BM@PPFGBMHO@?$EA?$FLMonsterQuest?$FN?3?5WCoinC?5?$CFd?$CB?$AA@
  00139	50		 push	 eax
  0013a	e8 00 00 00 00	 call	 ?MessageChat@@YAXHPADZZ	; MessageChat

; 309  : 					lpUser->GameShop.WCoinC += this->RewardData[UserQuest][n].Reward;

  0013f	db 07		 fild	 DWORD PTR [edi]
  00141	8b 0f		 mov	 ecx, DWORD PTR [edi]
  00143	83 c4 0c	 add	 esp, 12			; 0000000cH
  00146	85 c9		 test	 ecx, ecx
  00148	79 06		 jns	 SHORT $LN33@MissionRew
  0014a	dc 05 00 00 00
	00		 fadd	 QWORD PTR __real@41f0000000000000
$LN33@MissionRew:
  00150	dc 86 00 23 00
	00		 fadd	 QWORD PTR [esi+8960]

; 310  : 					gGameShop.GDSaveUserInfo(lpUser->m_Index);

  00156	8b 16		 mov	 edx, DWORD PTR [esi]
  00158	52		 push	 edx
  00159	b9 00 00 00 00	 mov	 ecx, OFFSET ?gGameShop@@3VGameShop@@A ; gGameShop
  0015e	dd 9e 00 23 00
	00		 fstp	 QWORD PTR [esi+8960]
  00164	e8 00 00 00 00	 call	 ?GDSaveUserInfo@GameShop@@QAEXH@Z ; GameShop::GDSaveUserInfo

; 311  : 				}
; 312  : 				break;

  00169	e9 ae 00 00 00	 jmp	 $LN15@MissionRew
$LN6@MissionRew:

; 313  : 			case eWCoinP:
; 314  : 				{
; 315  : 					MessageChat(lpUser->m_Index,"@[MonsterQuest]: WCoinP %d!",this->RewardData[UserQuest][n].Reward);

  0016e	8b 07		 mov	 eax, DWORD PTR [edi]
  00170	8b 0e		 mov	 ecx, DWORD PTR [esi]
  00172	50		 push	 eax
  00173	68 00 00 00 00	 push	 OFFSET ??_C@_0BM@HKBEGMEL@?$EA?$FLMonsterQuest?$FN?3?5WCoinP?5?$CFd?$CB?$AA@
  00178	51		 push	 ecx
  00179	e8 00 00 00 00	 call	 ?MessageChat@@YAXHPADZZ	; MessageChat

; 316  : 					lpUser->GameShop.WCoinP += this->RewardData[UserQuest][n].Reward;

  0017e	db 07		 fild	 DWORD PTR [edi]
  00180	8b 17		 mov	 edx, DWORD PTR [edi]
  00182	83 c4 0c	 add	 esp, 12			; 0000000cH
  00185	85 d2		 test	 edx, edx
  00187	79 06		 jns	 SHORT $LN34@MissionRew
  00189	dc 05 00 00 00
	00		 fadd	 QWORD PTR __real@41f0000000000000
$LN34@MissionRew:
  0018f	dc 86 f8 22 00
	00		 fadd	 QWORD PTR [esi+8952]

; 317  : 					gGameShop.GDSaveUserInfo(lpUser->m_Index);

  00195	8b 06		 mov	 eax, DWORD PTR [esi]
  00197	50		 push	 eax
  00198	b9 00 00 00 00	 mov	 ecx, OFFSET ?gGameShop@@3VGameShop@@A ; gGameShop
  0019d	dd 9e f8 22 00
	00		 fstp	 QWORD PTR [esi+8952]
  001a3	e8 00 00 00 00	 call	 ?GDSaveUserInfo@GameShop@@QAEXH@Z ; GameShop::GDSaveUserInfo

; 318  : 				}
; 319  : 				break;

  001a8	eb 72		 jmp	 SHORT $LN15@MissionRew
$LN5@MissionRew:

; 320  : 			case eGoblin:
; 321  : 				{
; 322  : 					MessageChat(lpUser->m_Index,"@[MonsterQuest]: Goblin %d!",this->RewardData[UserQuest][n].Reward);

  001aa	8b 0f		 mov	 ecx, DWORD PTR [edi]
  001ac	8b 16		 mov	 edx, DWORD PTR [esi]
  001ae	51		 push	 ecx
  001af	68 00 00 00 00	 push	 OFFSET ??_C@_0BM@MDPLPKLO@?$EA?$FLMonsterQuest?$FN?3?5Goblin?5?$CFd?$CB?$AA@
  001b4	52		 push	 edx
  001b5	e8 00 00 00 00	 call	 ?MessageChat@@YAXHPADZZ	; MessageChat

; 323  : 					lpUser->GameShop.GoblinPoint += this->RewardData[UserQuest][n].Reward;

  001ba	db 07		 fild	 DWORD PTR [edi]
  001bc	8b 07		 mov	 eax, DWORD PTR [edi]
  001be	83 c4 0c	 add	 esp, 12			; 0000000cH
  001c1	85 c0		 test	 eax, eax
  001c3	79 06		 jns	 SHORT $LN35@MissionRew
  001c5	dc 05 00 00 00
	00		 fadd	 QWORD PTR __real@41f0000000000000
$LN35@MissionRew:

; 324  : 					gGameShop.GDSaveUserInfo(lpUser->m_Index);

  001cb	8b 0e		 mov	 ecx, DWORD PTR [esi]
  001cd	dc 86 08 23 00
	00		 fadd	 QWORD PTR [esi+8968]
  001d3	51		 push	 ecx
  001d4	b9 00 00 00 00	 mov	 ecx, OFFSET ?gGameShop@@3VGameShop@@A ; gGameShop
  001d9	dd 9e 08 23 00
	00		 fstp	 QWORD PTR [esi+8968]
  001df	e8 00 00 00 00	 call	 ?GDSaveUserInfo@GameShop@@QAEXH@Z ; GameShop::GDSaveUserInfo

; 325  : 				}
; 326  : 				break;

  001e4	eb 36		 jmp	 SHORT $LN15@MissionRew
$LN4@MissionRew:

; 327  : 			case eCredit:
; 328  : 				{
; 329  : 					MessageChat(lpUser->m_Index,"@[MonsterQuest]: Credit %d!",this->RewardData[UserQuest][n].Reward);

  001e6	8b 17		 mov	 edx, DWORD PTR [edi]
  001e8	8b 06		 mov	 eax, DWORD PTR [esi]
  001ea	52		 push	 edx
  001eb	68 00 00 00 00	 push	 OFFSET ??_C@_0BM@LELLNEOF@?$EA?$FLMonsterQuest?$FN?3?5Credit?5?$CFd?$CB?$AA@
  001f0	50		 push	 eax
  001f1	e8 00 00 00 00	 call	 ?MessageChat@@YAXHPADZZ	; MessageChat

; 330  : 					lpUser->ZtCred += this->RewardData[UserQuest][n].Reward;

  001f6	db 07		 fild	 DWORD PTR [edi]
  001f8	8b 0f		 mov	 ecx, DWORD PTR [edi]
  001fa	85 c9		 test	 ecx, ecx
  001fc	79 06		 jns	 SHORT $LN36@MissionRew
  001fe	d8 05 00 00 00
	00		 fadd	 DWORD PTR __real@4f800000
$LN36@MissionRew:
  00204	d8 86 a8 22 00
	00		 fadd	 DWORD PTR [esi+8872]

; 331  : 					ZtUserDataSend(UserQuest);

  0020a	8b 55 f4	 mov	 edx, DWORD PTR _UserQuest$[ebp]
  0020d	52		 push	 edx
  0020e	d9 9e a8 22 00
	00		 fstp	 DWORD PTR [esi+8872]
  00214	e8 00 00 00 00	 call	 ?ZtUserDataSend@@YAXH@Z	; ZtUserDataSend
  00219	83 c4 10	 add	 esp, 16			; 00000010H
$LN15@MissionRew:

; 275  : 
; 276  : 	for(int n = 0; n < MAX_REWARD_QUEST; n++)

  0021c	43		 inc	 ebx
  0021d	83 c7 10	 add	 edi, 16			; 00000010H
  00220	83 fb 03	 cmp	 ebx, 3
  00223	0f 8c 2b fe ff
	ff		 jl	 $LL31@MissionRew

; 332  : 				}
; 333  : 				break;
; 334  : 			}
; 335  : 		}
; 336  : 	}
; 337  : 
; 338  : 	lpUser->m_MonsterQuest.QuestNumber++;

  00229	66 ff 86 28 28
	00 00		 inc	 WORD PTR [esi+10280]

; 339  : 
; 340  : 	for(int i=0; i<MAX_MISSION_QUEST; i++)
; 341  : 	{
; 342  : 		lpUser->m_MonsterQuest.KillCount[i] = 0;
; 343  : 	}
; 344  : 
; 345  : 	this->GCMission(UserIndex);

  00230	8b 4d fc	 mov	 ecx, DWORD PTR _this$[ebp]
  00233	33 c0		 xor	 eax, eax
  00235	89 86 2c 28 00
	00		 mov	 DWORD PTR [esi+10284], eax
  0023b	89 86 30 28 00
	00		 mov	 DWORD PTR [esi+10288], eax
  00241	89 86 34 28 00
	00		 mov	 DWORD PTR [esi+10292], eax
  00247	89 86 38 28 00
	00		 mov	 DWORD PTR [esi+10296], eax
  0024d	89 86 3c 28 00
	00		 mov	 DWORD PTR [esi+10300], eax
  00253	8b 45 08	 mov	 eax, DWORD PTR _UserIndex$[ebp]
  00256	50		 push	 eax
  00257	e8 00 00 00 00	 call	 ?GCMission@MonsterQuest@@QAEXH@Z ; MonsterQuest::GCMission

; 346  : 
; 347  : 	ZtFireCracker(lpUser->m_Index, lpUser->X, lpUser->Y);

  0025c	0f b6 8e 46 01
	00 00		 movzx	 ecx, BYTE PTR [esi+326]
  00263	0f b6 96 44 01
	00 00		 movzx	 edx, BYTE PTR [esi+324]
  0026a	8b 06		 mov	 eax, DWORD PTR [esi]
  0026c	51		 push	 ecx
  0026d	52		 push	 edx
  0026e	50		 push	 eax
  0026f	e8 00 00 00 00	 call	 ?ZtFireCracker@@YAXHEE@Z ; ZtFireCracker
  00274	83 c4 0c	 add	 esp, 12			; 0000000cH
  00277	5b		 pop	 ebx
$LN32@MissionRew:
  00278	5e		 pop	 esi
$LN19@MissionRew:
  00279	5f		 pop	 edi

; 348  : }

  0027a	8b e5		 mov	 esp, ebp
  0027c	5d		 pop	 ebp
  0027d	c2 04 00	 ret	 4
$LN37@MissionRew:
  00280	00 00 00 00	 DD	 $LN10@MissionRew
  00284	00 00 00 00	 DD	 $LN9@MissionRew
  00288	00 00 00 00	 DD	 $LN8@MissionRew
  0028c	00 00 00 00	 DD	 $LN7@MissionRew
  00290	00 00 00 00	 DD	 $LN6@MissionRew
  00294	00 00 00 00	 DD	 $LN5@MissionRew
  00298	00 00 00 00	 DD	 $LN4@MissionRew
?MissionReward@MonsterQuest@@QAEXH@Z ENDP		; MonsterQuest::MissionReward
_TEXT	ENDS
EXTRN	_atexit:PROC
; Function compile flags: /Ogtp
;	COMDAT ??__EgMonsterQuest@@YAXXZ
text$yc	SEGMENT
??__EgMonsterQuest@@YAXXZ PROC				; `dynamic initializer for 'gMonsterQuest'', COMDAT

; 13   : MonsterQuest gMonsterQuest;

  00000	b9 00 00 00 00	 mov	 ecx, OFFSET ?gMonsterQuest@@3VMonsterQuest@@A ; gMonsterQuest
  00005	e8 00 00 00 00	 call	 ??0MonsterQuest@@QAE@XZ	; MonsterQuest::MonsterQuest
  0000a	68 00 00 00 00	 push	 OFFSET ??__FgMonsterQuest@@YAXXZ ; `dynamic atexit destructor for 'gMonsterQuest''
  0000f	e8 00 00 00 00	 call	 _atexit
  00014	59		 pop	 ecx
  00015	c3		 ret	 0
??__EgMonsterQuest@@YAXXZ ENDP				; `dynamic initializer for 'gMonsterQuest''
; Function compile flags: /Ogtp
text$yc	ENDS
;	COMDAT ??__FgMonsterQuest@@YAXXZ
text$yd	SEGMENT
??__FgMonsterQuest@@YAXXZ PROC				; `dynamic atexit destructor for 'gMonsterQuest'', COMDAT
  00000	c3		 ret	 0
??__FgMonsterQuest@@YAXXZ ENDP				; `dynamic atexit destructor for 'gMonsterQuest''
text$yd	ENDS
PUBLIC	?gMonsterQuest@@3VMonsterQuest@@A		; gMonsterQuest
_BSS	SEGMENT
?gMonsterQuest@@3VMonsterQuest@@A DB 0d2fcH DUP (?)	; gMonsterQuest
_BSS	ENDS
CRT$XCU	SEGMENT
_gMonsterQuest$initializer$ DD FLAT:??__EgMonsterQuest@@YAXXZ
CRT$XCU	ENDS
END
