; Listing generated by Microsoft (R) Optimizing Compiler Version 16.00.30319.01 

	TITLE	E:\work\tranet_version\GS\GameServer\NewMasterLevelSkillTreeSystem.cpp
	.686P
	.XMM
	include listing.inc
	.model	flat

INCLUDELIB LIBCMT
INCLUDELIB OLDNAMES

PUBLIC	?CHARACTER_TABLE@@3PAU_stCharacterTable@@A	; CHARACTER_TABLE
_DATA	SEGMENT
_g_iNpcUpDfLevel_CGATE DD 01H
	DD	02H
	DD	02dc6c0H
	DD	02H
	DD	03H
	DD	02dc6c0H
	DD	03H
	DD	04H
	DD	02dc6c0H
_g_iNpcUpDfLevel_CSTATUE DD 01H
	DD	03H
	DD	02dc6c0H
	DD	02H
	DD	05H
	DD	02dc6c0H
	DD	03H
	DD	07H
	DD	02dc6c0H
_g_iNpcUpMaxHP_CGATE DD 02625a0H
	DD	02H
	DD	0f4240H
	DD	03567e0H
	DD	03H
	DD	0f4240H
	DD	04f5880H
	DD	04H
	DD	0f4240H
_g_iNpcUpMaxHP_CSTATUE DD 02191c0H
	DD	03H
	DD	0f4240H
	DD	033e140H
	DD	05H
	DD	0f4240H
	DD	04c4b40H
	DD	07H
	DD	0f4240H
_g_iNpcUpRgLevel_CSTATUE DD 01H
	DD	03H
	DD	04c4b40H
	DD	02H
	DD	05H
	DD	04c4b40H
	DD	03H
	DD	07H
	DD	04c4b40H
_g_iCsUserReSpawnArea DD 023H
	DD	011H
	DD	090H
	DD	030H
	DD	04aH
	DD	090H
	DD	073H
	DD	09aH
	DD	023H
	DD	011H
	DD	090H
	DD	030H
_g_iNpcDefense_CGATE DD 064H
	DD	0b4H
	DD	012cH
	DD	0208H
_g_iNpcDefense_CSTATUE DD 050H
	DD	0b4H
	DD	0154H
	DD	0226H
_g_iCastleWallStepAxisY DD 071H
	DD	0a0H
	DD	0cbH
_g_sttBLOODCASTLE_LEVEL DD 0fH
	DD	050H
	DD	0aH
	DD	03cH
	DD	051H
	DD	082H
	DD	03dH
	DD	06eH
	DD	083H
	DD	0b4H
	DD	06fH
	DD	0a0H
	DD	0b5H
	DD	0e6H
	DD	0a1H
	DD	0d2H
	DD	0e7H
	DD	0118H
	DD	0d3H
	DD	0104H
	DD	0119H
	DD	014aH
	DD	0105H
	DD	0136H
	DD	014bH
	DD	03e8H
	DD	0137H
	DD	03e8H
	DD	0fH
	DD	04afH
	DD	0aH
	DD	04afH
_g_sttCHAOSCASTLE_LEVEL DD 0fH
	DD	031H
	DD	0fH
	DD	01dH
	DD	032H
	DD	077H
	DD	01eH
	DD	063H
	DD	078H
	DD	0b3H
	DD	064H
	DD	09fH
	DD	0b4H
	DD	0efH
	DD	0a0H
	DD	0dbH
	DD	0f0H
	DD	012bH
	DD	0dcH
	DD	0117H
	DD	012cH
	DD	03e8H
	DD	0118H
	DD	03e8H
	DD	03e8H
	DD	04afH
	DD	03e8H
	DD	04afH
_g_iChaosCastle_BlowOutDistance DD 03H
	DD	04H
	DD	03H
	DD	04H
	DD	02H
	DD	03H
	DD	00H
	DD	01H
_g_iChaosCastle_BlowOutDamage DD 0fH
	DD	0fH
	DD	0aH
	DD	05H
_g_iChaosCastle_EnterCost DD 061a8H
	DD	013880H
	DD	0249f0H
	DD	03d090H
	DD	061a80H
	DD	09eb10H
	DD	0f4240H
_g_iChaosCastle_GuardSetValue DD 09c4H
	DD	09c4H
	DD	09c4H
	DD	09c4H
	DD	09c4H
	DD	09c4H
	DD	09c4H
_g_iChaosCastle_MonsterItems DD 01c0dH
	DD	01H
	DD	01c0eH
	DD	02H
	DD	01c0dH
	DD	01H
	DD	01c0eH
	DD	03H
	DD	01c0dH
	DD	01H
	DD	01c0eH
	DD	03H
	DD	01c0dH
	DD	02H
	DD	01c0eH
	DD	02H
	DD	01c0dH
	DD	02H
	DD	01c0eH
	DD	03H
	DD	01c0dH
	DD	02H
	DD	01c0eH
	DD	03H
	DD	01c0dH
	DD	02H
	DD	01c0eH
	DD	04H
_g_iChaosCastle_MonsterItemsNewServer DD 00H
	DD	00H
	DD	01c0eH
	DD	02H
	DD	01c0dH
	DD	01H
	DD	01c0eH
	DD	01H
	DD	01c0dH
	DD	01H
	DD	01c0eH
	DD	02H
	DD	01c0dH
	DD	01H
	DD	01c0eH
	DD	02H
	DD	01c0dH
	DD	02H
	DD	01c0eH
	DD	01H
	DD	01c0dH
	DD	02H
	DD	01c0eH
	DD	02H
	DD	01c0dH
	DD	02H
	DD	01c0eH
	DD	03H
_g_iChaosCastle_GroundAxis DD 017H
	DD	04bH
	DD	02cH
	DD	06cH
_g_iChaosCastle_DamageAxis DD 017H
	DD	04bH
	DD	02cH
	DD	06cH
	DD	019H
	DD	04dH
	DD	02aH
	DD	06aH
	DD	01bH
	DD	04fH
	DD	028H
	DD	068H
	DD	01dH
	DD	051H
	DD	026H
	DD	066H
_g_iChaosCastle_MapHollowZone DD 017H
	DD	04bH
	DD	02cH
	DD	04cH
	DD	02bH
	DD	04dH
	DD	02cH
	DD	06cH
	DD	017H
	DD	06bH
	DD	02aH
	DD	06cH
	DD	017H
	DD	04dH
	DD	018H
	DD	06aH
	DD	017H
	DD	04bH
	DD	02cH
	DD	04cH
	DD	02bH
	DD	04dH
	DD	02cH
	DD	06cH
	DD	017H
	DD	06bH
	DD	02aH
	DD	06cH
	DD	017H
	DD	04dH
	DD	018H
	DD	06aH
	DD	019H
	DD	04dH
	DD	02aH
	DD	04eH
	DD	029H
	DD	04fH
	DD	02aH
	DD	06aH
	DD	019H
	DD	069H
	DD	028H
	DD	06aH
	DD	019H
	DD	04fH
	DD	01aH
	DD	068H
	DD	01bH
	DD	04fH
	DD	028H
	DD	050H
	DD	027H
	DD	051H
	DD	028H
	DD	068H
	DD	01bH
	DD	067H
	DD	026H
	DD	068H
	DD	01bH
	DD	051H
	DD	01cH
	DD	066H
?CHARACTER_TABLE@@3PAU_stCharacterTable@@A DD 02H	; CHARACTER_TABLE
	DD	00H
	DD	01H
	DD	01H
	DD	04H
	DD	02H
	DD	010H
	DD	03H
	DD	020H
	DD	04H
	DD	08H
	DD	05H
	DD	040H
	DD	06H
_DATA	ENDS
PUBLIC	??_H@YGXPAXIHP6EPAX0@Z@Z			; `vector constructor iterator'
; Function compile flags: /Ogtp
;	COMDAT ??_H@YGXPAXIHP6EPAX0@Z@Z
_TEXT	SEGMENT
___t$ = 8						; size = 4
___s$ = 12						; size = 4
___n$ = 16						; size = 4
___f$ = 20						; size = 4
??_H@YGXPAXIHP6EPAX0@Z@Z PROC				; `vector constructor iterator', COMDAT
  00000	55		 push	 ebp
  00001	8b ec		 mov	 ebp, esp
  00003	57		 push	 edi
  00004	8b 7d 10	 mov	 edi, DWORD PTR ___n$[ebp]
  00007	4f		 dec	 edi
  00008	78 14		 js	 SHORT $LN1@vector
  0000a	53		 push	 ebx
  0000b	8b 5d 14	 mov	 ebx, DWORD PTR ___f$[ebp]
  0000e	56		 push	 esi
  0000f	8b 75 08	 mov	 esi, DWORD PTR ___t$[ebp]
$LL2@vector:
  00012	8b ce		 mov	 ecx, esi
  00014	ff d3		 call	 ebx
  00016	03 75 0c	 add	 esi, DWORD PTR ___s$[ebp]
  00019	4f		 dec	 edi
  0001a	79 f6		 jns	 SHORT $LL2@vector
  0001c	5e		 pop	 esi
  0001d	5b		 pop	 ebx
$LN1@vector:
  0001e	5f		 pop	 edi
  0001f	5d		 pop	 ebp
  00020	c2 10 00	 ret	 16			; 00000010H
??_H@YGXPAXIHP6EPAX0@Z@Z ENDP				; `vector constructor iterator'
_TEXT	ENDS
PUBLIC	?GetCastleState@CCastleSiege@@QAEHXZ		; CCastleSiege::GetCastleState
; Function compile flags: /Ogtp
; File e:\work\tranet_version\gs\gameserver\castlesiege.h
;	COMDAT ?GetCastleState@CCastleSiege@@QAEHXZ
_TEXT	SEGMENT
?GetCastleState@CCastleSiege@@QAEHXZ PROC		; CCastleSiege::GetCastleState, COMDAT
; _this$ = ecx

; 314  : 	int GetCastleState(){return m_iCastleSiegeState;}

  00000	8b 41 28	 mov	 eax, DWORD PTR [ecx+40]
  00003	c3		 ret	 0
?GetCastleState@CCastleSiege@@QAEHXZ ENDP		; CCastleSiege::GetCastleState
_TEXT	ENDS
PUBLIC	?GetInfinityArrowSkillTime@CSkillAdditionInfo@@QAEHXZ ; CSkillAdditionInfo::GetInfinityArrowSkillTime
; Function compile flags: /Ogtp
; File e:\work\tranet_version\gs\gameserver\skilladditioninfo.h
;	COMDAT ?GetInfinityArrowSkillTime@CSkillAdditionInfo@@QAEHXZ
_TEXT	SEGMENT
?GetInfinityArrowSkillTime@CSkillAdditionInfo@@QAEHXZ PROC ; CSkillAdditionInfo::GetInfinityArrowSkillTime, COMDAT
; _this$ = ecx

; 35   : 	int GetInfinityArrowSkillTime(){return this->m_iInfinityArrowSkillTime;}

  00000	8b 41 04	 mov	 eax, DWORD PTR [ecx+4]
  00003	c3		 ret	 0
?GetInfinityArrowSkillTime@CSkillAdditionInfo@@QAEHXZ ENDP ; CSkillAdditionInfo::GetInfinityArrowSkillTime
_TEXT	ENDS
PUBLIC	?GetFireScreamSkill@CSkillAdditionInfo@@QAEHXZ	; CSkillAdditionInfo::GetFireScreamSkill
; Function compile flags: /Ogtp
;	COMDAT ?GetFireScreamSkill@CSkillAdditionInfo@@QAEHXZ
_TEXT	SEGMENT
?GetFireScreamSkill@CSkillAdditionInfo@@QAEHXZ PROC	; CSkillAdditionInfo::GetFireScreamSkill, COMDAT
; _this$ = ecx

; 47   : 	BOOL GetFireScreamSkill(){return this->m_bFireScreamSkill;}

  00000	8b 41 1c	 mov	 eax, DWORD PTR [ecx+28]
  00003	c3		 ret	 0
?GetFireScreamSkill@CSkillAdditionInfo@@QAEHXZ ENDP	; CSkillAdditionInfo::GetFireScreamSkill
_TEXT	ENDS
PUBLIC	__$ArrayPad$
EXTRN	_isalnum:PROC
EXTRN	_isalpha:PROC
EXTRN	_atof:PROC
EXTRN	_isdigit:PROC
EXTRN	_getc:PROC
EXTRN	_ungetc:PROC
EXTRN	_isspace:PROC
EXTRN	_fgetc:PROC
EXTRN	___security_cookie:DWORD
EXTRN	__fltused:DWORD
EXTRN	@__security_check_cookie@4:PROC
_BSS	SEGMENT
_CurrentToken DD 01H DUP (?)
_TokenNumber DD	01H DUP (?)
_SMDFile DD	01H DUP (?)
_TokenString DB	064H DUP (?)
; Function compile flags: /Ogtp
; File e:\work\tranet_version\gs\include\readscript.h
_BSS	ENDS
;	COMDAT ?GetToken@@YA?AW4SMDToken@@XZ
_TEXT	SEGMENT
_TempString$ = -104					; size = 100
__$ArrayPad$ = -4					; size = 4
?GetToken@@YA?AW4SMDToken@@XZ PROC			; GetToken, COMDAT

; 24   : {

  00000	55		 push	 ebp
  00001	8b ec		 mov	 ebp, esp
  00003	83 ec 68	 sub	 esp, 104		; 00000068H
  00006	a1 00 00 00 00	 mov	 eax, DWORD PTR ___security_cookie
  0000b	33 c5		 xor	 eax, ebp
  0000d	89 45 fc	 mov	 DWORD PTR __$ArrayPad$[ebp], eax

; 25   : 	char ch;
; 26   : 	char* p;
; 27   : 	char TempString[100];
; 28   : 
; 29   : 	TokenString[0]=0;

  00010	c6 05 00 00 00
	00 00		 mov	 BYTE PTR _TokenString, 0
  00017	53		 push	 ebx
  00018	eb 06 8d 9b 00
	00 00 00	 npad	 8
$LL31@GetToken:

; 30   : 
; 31   : 	do
; 32   : 	{
; 33   : 		if ((ch=fgetc(SMDFile)) == -1)

  00020	a1 00 00 00 00	 mov	 eax, DWORD PTR _SMDFile
  00025	50		 push	 eax
  00026	e8 00 00 00 00	 call	 _fgetc
  0002b	8a d8		 mov	 bl, al
  0002d	83 c4 04	 add	 esp, 4
  00030	80 fb ff	 cmp	 bl, -1
  00033	74 64		 je	 SHORT $LN39@GetToken

; 36   : 		}
; 37   : 		else
; 38   : 		{	
; 39   : 			if (ch=='/')		// this is /

  00035	80 fb 2f	 cmp	 bl, 47			; 0000002fH
  00038	75 31		 jne	 SHORT $LN30@GetToken

; 40   : 			{
; 41   : 				if((ch=fgetc(SMDFile)) == '/')

  0003a	8b 0d 00 00 00
	00		 mov	 ecx, DWORD PTR _SMDFile
  00040	51		 push	 ecx
  00041	e8 00 00 00 00	 call	 _fgetc
  00046	8a d8		 mov	 bl, al
  00048	83 c4 04	 add	 esp, 4
  0004b	80 fb 2f	 cmp	 bl, 47			; 0000002fH
  0004e	75 1b		 jne	 SHORT $LN30@GetToken
$LL24@GetToken:

; 42   : 				{
; 43   : 					while ((ch != '\n') && (ch != -1))	// End of Line (EOL)

  00050	80 fb ff	 cmp	 bl, -1
  00053	74 44		 je	 SHORT $LN39@GetToken

; 44   : 					{
; 45   : 						ch=fgetc(SMDFile);

  00055	8b 15 00 00 00
	00		 mov	 edx, DWORD PTR _SMDFile
  0005b	52		 push	 edx
  0005c	e8 00 00 00 00	 call	 _fgetc
  00061	8a d8		 mov	 bl, al
  00063	83 c4 04	 add	 esp, 4
  00066	80 fb 0a	 cmp	 bl, 10			; 0000000aH
  00069	75 e5		 jne	 SHORT $LL24@GetToken
$LN30@GetToken:

; 46   : 					}
; 47   : 	
; 48   : 					if (ch == -1)
; 49   : 					{
; 50   : 						return END;	// End of FILE
; 51   : 					}
; 52   : 				}
; 53   : 			}
; 54   : 		}
; 55   : 	}
; 56   : 	while (isspace(ch) != 0);

  0006b	0f be c3	 movsx	 eax, bl
  0006e	50		 push	 eax
  0006f	e8 00 00 00 00	 call	 _isspace
  00074	83 c4 04	 add	 esp, 4
  00077	85 c0		 test	 eax, eax
  00079	75 a5		 jne	 SHORT $LL31@GetToken

; 57   : 
; 58   : 	
; 59   : 	switch(ch)

  0007b	0f be c3	 movsx	 eax, bl
  0007e	8d 48 de	 lea	 ecx, DWORD PTR [eax-34]
  00081	56		 push	 esi
  00082	83 f9 5b	 cmp	 ecx, 91			; 0000005bH
  00085	0f 87 2b 01 00
	00		 ja	 $LN6@GetToken
  0008b	0f b6 89 00 00
	00 00		 movzx	 ecx, BYTE PTR $LN46@GetToken[ecx]
  00092	ff 24 8d 00 00
	00 00		 jmp	 DWORD PTR $LN50@GetToken[ecx*4]
$LN39@GetToken:

; 34   : 		{
; 35   : 			return END;	// End of FILE (EOF)

  00099	b8 02 00 00 00	 mov	 eax, 2
  0009e	5b		 pop	 ebx

; 147  : 		}
; 148  : 		break;
; 149  : 
; 150  : 	}
; 151  : 
; 152  : 	return NAME;
; 153  : }

  0009f	8b 4d fc	 mov	 ecx, DWORD PTR __$ArrayPad$[ebp]
  000a2	33 cd		 xor	 ecx, ebp
  000a4	e8 00 00 00 00	 call	 @__security_check_cookie@4
  000a9	8b e5		 mov	 esp, ebp
  000ab	5d		 pop	 ebp
  000ac	c3		 ret	 0
$LN19@GetToken:

; 60   : 	{
; 61   : 
; 62   : 	case 0x23:	// #
; 63   : 		return CurrentToken=COMMAND;

  000ad	b8 23 00 00 00	 mov	 eax, 35			; 00000023H
  000b2	e9 99 01 00 00	 jmp	 $LN48@GetToken
$LN18@GetToken:

; 64   : 		break;
; 65   : 	
; 66   : 	case 0x3B:	// ;
; 67   : 		return CurrentToken=SEMICOLON;

  000b7	b8 3b 00 00 00	 mov	 eax, 59			; 0000003bH
  000bc	e9 8f 01 00 00	 jmp	 $LN48@GetToken
$LN17@GetToken:

; 68   : 		break;
; 69   : 	
; 70   : 	case 0x2C:	// ,
; 71   : 
; 72   : 		return CurrentToken=COMMA;

  000c1	b8 2c 00 00 00	 mov	 eax, 44			; 0000002cH
  000c6	e9 85 01 00 00	 jmp	 $LN48@GetToken
$LN16@GetToken:

; 73   : 		break;
; 74   : 	
; 75   : 	case 0x7B:	// {
; 76   : 		return CurrentToken = LP;

  000cb	b8 7b 00 00 00	 mov	 eax, 123		; 0000007bH
  000d0	e9 7b 01 00 00	 jmp	 $LN48@GetToken
$LN15@GetToken:

; 77   : 		break;
; 78   : 
; 79   : 	case 0x7D:	// }
; 80   : 		return CurrentToken = RP;

  000d5	b8 7d 00 00 00	 mov	 eax, 125		; 0000007dH
  000da	e9 71 01 00 00	 jmp	 $LN48@GetToken
$LN14@GetToken:

; 81   : 		break;
; 82   : 	// Nice Index Table :)	by Deathway
; 83   : 	// Numbers Case
; 84   : 	case 0x2D:	//-
; 85   : 	case 0x2E:	//.
; 86   : 	case '0':	//0
; 87   : 	case '1':	//1
; 88   : 	case '2':	//2
; 89   : 	case '3':	//3
; 90   : 	case '4':	//4		
; 91   : 	case '5':	//5
; 92   : 	case '6':	//6
; 93   : 	case '7':	//7
; 94   : 	case '8':	//8
; 95   : 	case '9':	//9
; 96   : 		ungetc(ch, SMDFile);

  000df	8b 15 00 00 00
	00		 mov	 edx, DWORD PTR _SMDFile
  000e5	52		 push	 edx
  000e6	50		 push	 eax
  000e7	e8 00 00 00 00	 call	 _ungetc

; 97   : 		p = TempString;
; 98   : 		
; 99   : 		while (((ch=getc(SMDFile)) != -1) && ((ch == 0x2E) || (isdigit(ch) != 0) || (ch == 0x2D)))  // 2e '.'  2D '-'

  000ec	a1 00 00 00 00	 mov	 eax, DWORD PTR _SMDFile
  000f1	50		 push	 eax
  000f2	8d 75 98	 lea	 esi, DWORD PTR _TempString$[ebp]
  000f5	e8 00 00 00 00	 call	 _getc
  000fa	8a d8		 mov	 bl, al
  000fc	83 c4 0c	 add	 esp, 12			; 0000000cH
  000ff	80 fb ff	 cmp	 bl, -1
  00102	74 33		 je	 SHORT $LN12@GetToken
$LL13@GetToken:
  00104	80 fb 2e	 cmp	 bl, 46			; 0000002eH
  00107	74 15		 je	 SHORT $LN11@GetToken
  00109	0f be cb	 movsx	 ecx, bl
  0010c	51		 push	 ecx
  0010d	e8 00 00 00 00	 call	 _isdigit
  00112	83 c4 04	 add	 esp, 4
  00115	85 c0		 test	 eax, eax
  00117	75 05		 jne	 SHORT $LN11@GetToken
  00119	80 fb 2d	 cmp	 bl, 45			; 0000002dH
  0011c	75 19		 jne	 SHORT $LN12@GetToken
$LN11@GetToken:
  0011e	8b 15 00 00 00
	00		 mov	 edx, DWORD PTR _SMDFile

; 100  : 		{
; 101  : 			*p = ch;	// Construct a String

  00124	88 1e		 mov	 BYTE PTR [esi], bl
  00126	52		 push	 edx

; 102  : 			p++;

  00127	46		 inc	 esi
  00128	e8 00 00 00 00	 call	 _getc
  0012d	8a d8		 mov	 bl, al
  0012f	83 c4 04	 add	 esp, 4
  00132	80 fb ff	 cmp	 bl, -1
  00135	75 cd		 jne	 SHORT $LL13@GetToken
$LN12@GetToken:

; 103  : 		}		
; 104  : 		*p = 0;
; 105  : 		TokenNumber = atof( TempString);	// Select the first Byte as Main ID

  00137	8d 45 98	 lea	 eax, DWORD PTR _TempString$[ebp]
  0013a	50		 push	 eax
  0013b	c6 06 00	 mov	 BYTE PTR [esi], 0
  0013e	e8 00 00 00 00	 call	 _atof
  00143	d9 1d 00 00 00
	00		 fstp	 DWORD PTR _TokenNumber
  00149	83 c4 04	 add	 esp, 4
  0014c	5e		 pop	 esi

; 106  : 		return CurrentToken  = NUMBER ;

  0014d	c7 05 00 00 00
	00 01 00 00 00	 mov	 DWORD PTR _CurrentToken, 1
  00157	b8 01 00 00 00	 mov	 eax, 1
  0015c	5b		 pop	 ebx

; 147  : 		}
; 148  : 		break;
; 149  : 
; 150  : 	}
; 151  : 
; 152  : 	return NAME;
; 153  : }

  0015d	8b 4d fc	 mov	 ecx, DWORD PTR __$ArrayPad$[ebp]
  00160	33 cd		 xor	 ecx, ebp
  00162	e8 00 00 00 00	 call	 @__security_check_cookie@4
  00167	8b e5		 mov	 esp, ebp
  00169	5d		 pop	 ebp
  0016a	c3		 ret	 0
$LN10@GetToken:

; 107  : 		break;
; 108  : 
; 109  : 	case '\"':	// "	String Case
; 110  : 		p=&TokenString[0];
; 111  : 		
; 112  : 		while (((ch=getc(SMDFile)) != -1 ) && (ch != 0x22))	// nice

  0016b	8b 0d 00 00 00
	00		 mov	 ecx, DWORD PTR _SMDFile
  00171	51		 push	 ecx
  00172	be 00 00 00 00	 mov	 esi, OFFSET _TokenString
  00177	e8 00 00 00 00	 call	 _getc
  0017c	83 c4 04	 add	 esp, 4
  0017f	3c ff		 cmp	 al, -1
  00181	74 1e		 je	 SHORT $LN8@GetToken
$LL9@GetToken:
  00183	3c 22		 cmp	 al, 34			; 00000022H
  00185	0f 84 a1 00 00
	00		 je	 $LN7@GetToken
  0018b	8b 15 00 00 00
	00		 mov	 edx, DWORD PTR _SMDFile

; 113  : 		{
; 114  : 			*p = ch;

  00191	88 06		 mov	 BYTE PTR [esi], al
  00193	52		 push	 edx

; 115  : 			p++;

  00194	46		 inc	 esi
  00195	e8 00 00 00 00	 call	 _getc
  0019a	83 c4 04	 add	 esp, 4
  0019d	3c ff		 cmp	 al, -1
  0019f	75 e2		 jne	 SHORT $LL9@GetToken
$LN8@GetToken:

; 116  : 		}
; 117  : 		if (ch != 0x22 )

  001a1	3c 22		 cmp	 al, 34			; 00000022H
  001a3	0f 84 83 00 00
	00		 je	 $LN7@GetToken

; 118  : 		{
; 119  : 			ungetc(ch, SMDFile);

  001a9	8b 0d 00 00 00
	00		 mov	 ecx, DWORD PTR _SMDFile
  001af	0f be d0	 movsx	 edx, al
  001b2	51		 push	 ecx
  001b3	52		 push	 edx

; 120  : 		}
; 121  : 		*p = 0;
; 122  : 		return CurrentToken = NAME;

  001b4	eb 6e		 jmp	 SHORT $LN49@GetToken
$LN6@GetToken:

; 123  : 		break;
; 124  : 
; 125  : 	default:	// Others
; 126  : 		if (isalpha(ch))

  001b6	50		 push	 eax
  001b7	e8 00 00 00 00	 call	 _isalpha
  001bc	83 c4 04	 add	 esp, 4
  001bf	85 c0		 test	 eax, eax
  001c1	0f 84 84 00 00
	00		 je	 $LN5@GetToken

; 127  : 		{
; 128  : 			p=&TokenString[0];
; 129  : 			*p=ch;
; 130  : 			p++;
; 131  : 
; 132  : 			while ( ((ch=getc(SMDFile)) != -1) && ( (ch == 0x2E) || (ch == 0x5F) || (isalnum(ch) != 0) ) )

  001c7	a1 00 00 00 00	 mov	 eax, DWORD PTR _SMDFile
  001cc	50		 push	 eax
  001cd	88 1d 00 00 00
	00		 mov	 BYTE PTR _TokenString, bl
  001d3	be 01 00 00 00	 mov	 esi, OFFSET _TokenString+1
  001d8	e8 00 00 00 00	 call	 _getc
  001dd	8a d8		 mov	 bl, al
  001df	83 c4 04	 add	 esp, 4
  001e2	80 fb ff	 cmp	 bl, -1
  001e5	74 33		 je	 SHORT $LN3@GetToken
$LL4@GetToken:
  001e7	80 fb 2e	 cmp	 bl, 46			; 0000002eH
  001ea	74 15		 je	 SHORT $LN2@GetToken
  001ec	80 fb 5f	 cmp	 bl, 95			; 0000005fH
  001ef	74 10		 je	 SHORT $LN2@GetToken
  001f1	0f be cb	 movsx	 ecx, bl
  001f4	51		 push	 ecx
  001f5	e8 00 00 00 00	 call	 _isalnum
  001fa	83 c4 04	 add	 esp, 4
  001fd	85 c0		 test	 eax, eax
  001ff	74 19		 je	 SHORT $LN3@GetToken
$LN2@GetToken:
  00201	8b 15 00 00 00
	00		 mov	 edx, DWORD PTR _SMDFile

; 133  : 			{
; 134  : 				*p=ch;

  00207	88 1e		 mov	 BYTE PTR [esi], bl
  00209	52		 push	 edx

; 135  : 				p++;

  0020a	46		 inc	 esi
  0020b	e8 00 00 00 00	 call	 _getc
  00210	8a d8		 mov	 bl, al
  00212	83 c4 04	 add	 esp, 4
  00215	80 fb ff	 cmp	 bl, -1
  00218	75 cd		 jne	 SHORT $LL4@GetToken
$LN3@GetToken:

; 136  : 				
; 137  : 			}
; 138  : 
; 139  : 			ungetc(ch, SMDFile);

  0021a	a1 00 00 00 00	 mov	 eax, DWORD PTR _SMDFile
  0021f	0f be cb	 movsx	 ecx, bl
  00222	50		 push	 eax
  00223	51		 push	 ecx
$LN49@GetToken:
  00224	e8 00 00 00 00	 call	 _ungetc
  00229	83 c4 08	 add	 esp, 8
$LN7@GetToken:

; 140  : 			*p=0;

  0022c	c6 06 00	 mov	 BYTE PTR [esi], 0
  0022f	5e		 pop	 esi

; 141  : 			CurrentToken=NAME;

  00230	c7 05 00 00 00
	00 00 00 00 00	 mov	 DWORD PTR _CurrentToken, 0

; 142  : 			return CurrentToken;

  0023a	33 c0		 xor	 eax, eax
  0023c	5b		 pop	 ebx

; 147  : 		}
; 148  : 		break;
; 149  : 
; 150  : 	}
; 151  : 
; 152  : 	return NAME;
; 153  : }

  0023d	8b 4d fc	 mov	 ecx, DWORD PTR __$ArrayPad$[ebp]
  00240	33 cd		 xor	 ecx, ebp
  00242	e8 00 00 00 00	 call	 @__security_check_cookie@4
  00247	8b e5		 mov	 esp, ebp
  00249	5d		 pop	 ebp
  0024a	c3		 ret	 0
$LN5@GetToken:

; 143  : 		}
; 144  : 		else
; 145  : 		{
; 146  : 			return CurrentToken = SMD_ERROR; // '<'

  0024b	b8 3c 00 00 00	 mov	 eax, 60			; 0000003cH
$LN48@GetToken:

; 147  : 		}
; 148  : 		break;
; 149  : 
; 150  : 	}
; 151  : 
; 152  : 	return NAME;
; 153  : }

  00250	8b 4d fc	 mov	 ecx, DWORD PTR __$ArrayPad$[ebp]
  00253	5e		 pop	 esi
  00254	33 cd		 xor	 ecx, ebp
  00256	a3 00 00 00 00	 mov	 DWORD PTR _CurrentToken, eax
  0025b	5b		 pop	 ebx
  0025c	e8 00 00 00 00	 call	 @__security_check_cookie@4
  00261	8b e5		 mov	 esp, ebp
  00263	5d		 pop	 ebp
  00264	c3		 ret	 0
  00265	8d 49 00	 npad	 3
$LN50@GetToken:
  00268	00 00 00 00	 DD	 $LN10@GetToken
  0026c	00 00 00 00	 DD	 $LN19@GetToken
  00270	00 00 00 00	 DD	 $LN17@GetToken
  00274	00 00 00 00	 DD	 $LN14@GetToken
  00278	00 00 00 00	 DD	 $LN18@GetToken
  0027c	00 00 00 00	 DD	 $LN16@GetToken
  00280	00 00 00 00	 DD	 $LN15@GetToken
  00284	00 00 00 00	 DD	 $LN6@GetToken
$LN46@GetToken:
  00288	00		 DB	 0
  00289	01		 DB	 1
  0028a	07		 DB	 7
  0028b	07		 DB	 7
  0028c	07		 DB	 7
  0028d	07		 DB	 7
  0028e	07		 DB	 7
  0028f	07		 DB	 7
  00290	07		 DB	 7
  00291	07		 DB	 7
  00292	02		 DB	 2
  00293	03		 DB	 3
  00294	03		 DB	 3
  00295	07		 DB	 7
  00296	03		 DB	 3
  00297	03		 DB	 3
  00298	03		 DB	 3
  00299	03		 DB	 3
  0029a	03		 DB	 3
  0029b	03		 DB	 3
  0029c	03		 DB	 3
  0029d	03		 DB	 3
  0029e	03		 DB	 3
  0029f	03		 DB	 3
  002a0	07		 DB	 7
  002a1	04		 DB	 4
  002a2	07		 DB	 7
  002a3	07		 DB	 7
  002a4	07		 DB	 7
  002a5	07		 DB	 7
  002a6	07		 DB	 7
  002a7	07		 DB	 7
  002a8	07		 DB	 7
  002a9	07		 DB	 7
  002aa	07		 DB	 7
  002ab	07		 DB	 7
  002ac	07		 DB	 7
  002ad	07		 DB	 7
  002ae	07		 DB	 7
  002af	07		 DB	 7
  002b0	07		 DB	 7
  002b1	07		 DB	 7
  002b2	07		 DB	 7
  002b3	07		 DB	 7
  002b4	07		 DB	 7
  002b5	07		 DB	 7
  002b6	07		 DB	 7
  002b7	07		 DB	 7
  002b8	07		 DB	 7
  002b9	07		 DB	 7
  002ba	07		 DB	 7
  002bb	07		 DB	 7
  002bc	07		 DB	 7
  002bd	07		 DB	 7
  002be	07		 DB	 7
  002bf	07		 DB	 7
  002c0	07		 DB	 7
  002c1	07		 DB	 7
  002c2	07		 DB	 7
  002c3	07		 DB	 7
  002c4	07		 DB	 7
  002c5	07		 DB	 7
  002c6	07		 DB	 7
  002c7	07		 DB	 7
  002c8	07		 DB	 7
  002c9	07		 DB	 7
  002ca	07		 DB	 7
  002cb	07		 DB	 7
  002cc	07		 DB	 7
  002cd	07		 DB	 7
  002ce	07		 DB	 7
  002cf	07		 DB	 7
  002d0	07		 DB	 7
  002d1	07		 DB	 7
  002d2	07		 DB	 7
  002d3	07		 DB	 7
  002d4	07		 DB	 7
  002d5	07		 DB	 7
  002d6	07		 DB	 7
  002d7	07		 DB	 7
  002d8	07		 DB	 7
  002d9	07		 DB	 7
  002da	07		 DB	 7
  002db	07		 DB	 7
  002dc	07		 DB	 7
  002dd	07		 DB	 7
  002de	07		 DB	 7
  002df	07		 DB	 7
  002e0	07		 DB	 7
  002e1	05		 DB	 5
  002e2	07		 DB	 7
  002e3	06		 DB	 6
?GetToken@@YA?AW4SMDToken@@XZ ENDP			; GetToken
_TEXT	ENDS
PUBLIC	??_7CMasterLevelSkillTreeSystem@@6B@		; CMasterLevelSkillTreeSystem::`vftable'
PUBLIC	??0CMasterLevelSkillTreeSystem@@QAE@XZ		; CMasterLevelSkillTreeSystem::CMasterLevelSkillTreeSystem
PUBLIC	??_R4CMasterLevelSkillTreeSystem@@6B@		; CMasterLevelSkillTreeSystem::`RTTI Complete Object Locator'
PUBLIC	??_R0?AVCMasterLevelSkillTreeSystem@@@8		; CMasterLevelSkillTreeSystem `RTTI Type Descriptor'
PUBLIC	??_R3CMasterLevelSkillTreeSystem@@8		; CMasterLevelSkillTreeSystem::`RTTI Class Hierarchy Descriptor'
PUBLIC	??_R2CMasterLevelSkillTreeSystem@@8		; CMasterLevelSkillTreeSystem::`RTTI Base Class Array'
PUBLIC	??_R1A@?0A@EA@CMasterLevelSkillTreeSystem@@8	; CMasterLevelSkillTreeSystem::`RTTI Base Class Descriptor at (0,-1,0,64)'
EXTRN	??0MULua@@QAE@XZ:PROC				; MULua::MULua
EXTRN	??_7type_info@@6B@:QWORD			; type_info::`vftable'
EXTRN	??_ECMasterLevelSkillTreeSystem@@UAEPAXI@Z:PROC	; CMasterLevelSkillTreeSystem::`vector deleting destructor'
;	COMDAT ??_R1A@?0A@EA@CMasterLevelSkillTreeSystem@@8
; File e:\work\tranet_version\gs\gameserver\newmasterlevelskilltreesystem.cpp
rdata$r	SEGMENT
??_R1A@?0A@EA@CMasterLevelSkillTreeSystem@@8 DD FLAT:??_R0?AVCMasterLevelSkillTreeSystem@@@8 ; CMasterLevelSkillTreeSystem::`RTTI Base Class Descriptor at (0,-1,0,64)'
	DD	00H
	DD	00H
	DD	0ffffffffH
	DD	00H
	DD	040H
	DD	FLAT:??_R3CMasterLevelSkillTreeSystem@@8
rdata$r	ENDS
;	COMDAT ??_R2CMasterLevelSkillTreeSystem@@8
rdata$r	SEGMENT
??_R2CMasterLevelSkillTreeSystem@@8 DD FLAT:??_R1A@?0A@EA@CMasterLevelSkillTreeSystem@@8 ; CMasterLevelSkillTreeSystem::`RTTI Base Class Array'
rdata$r	ENDS
;	COMDAT ??_R3CMasterLevelSkillTreeSystem@@8
rdata$r	SEGMENT
??_R3CMasterLevelSkillTreeSystem@@8 DD 00H		; CMasterLevelSkillTreeSystem::`RTTI Class Hierarchy Descriptor'
	DD	00H
	DD	01H
	DD	FLAT:??_R2CMasterLevelSkillTreeSystem@@8
rdata$r	ENDS
;	COMDAT ??_R0?AVCMasterLevelSkillTreeSystem@@@8
_DATA	SEGMENT
??_R0?AVCMasterLevelSkillTreeSystem@@@8 DD FLAT:??_7type_info@@6B@ ; CMasterLevelSkillTreeSystem `RTTI Type Descriptor'
	DD	00H
	DB	'.?AVCMasterLevelSkillTreeSystem@@', 00H
_DATA	ENDS
;	COMDAT ??_R4CMasterLevelSkillTreeSystem@@6B@
rdata$r	SEGMENT
??_R4CMasterLevelSkillTreeSystem@@6B@ DD 00H		; CMasterLevelSkillTreeSystem::`RTTI Complete Object Locator'
	DD	00H
	DD	00H
	DD	FLAT:??_R0?AVCMasterLevelSkillTreeSystem@@@8
	DD	FLAT:??_R3CMasterLevelSkillTreeSystem@@8
rdata$r	ENDS
;	COMDAT ??_7CMasterLevelSkillTreeSystem@@6B@
CONST	SEGMENT
??_7CMasterLevelSkillTreeSystem@@6B@ DD FLAT:??_R4CMasterLevelSkillTreeSystem@@6B@ ; CMasterLevelSkillTreeSystem::`vftable'
	DD	FLAT:??_ECMasterLevelSkillTreeSystem@@UAEPAXI@Z
; Function compile flags: /Ogtp
CONST	ENDS
;	COMDAT ??0CMasterLevelSkillTreeSystem@@QAE@XZ
_TEXT	SEGMENT
??0CMasterLevelSkillTreeSystem@@QAE@XZ PROC		; CMasterLevelSkillTreeSystem::CMasterLevelSkillTreeSystem, COMDAT
; _this$ = ecx

; 40   : {

  00000	56		 push	 esi
  00001	8b f1		 mov	 esi, ecx
  00003	8d 8e c4 55 00
	00		 lea	 ecx, DWORD PTR [esi+21956]
  00009	c7 06 00 00 00
	00		 mov	 DWORD PTR [esi], OFFSET ??_7CMasterLevelSkillTreeSystem@@6B@
  0000f	e8 00 00 00 00	 call	 ??0MULua@@QAE@XZ	; MULua::MULua

; 41   : 	this->IsLoaded = false;

  00014	c6 86 c8 55 00
	00 00		 mov	 BYTE PTR [esi+21960], 0

; 42   : }

  0001b	8b c6		 mov	 eax, esi
  0001d	5e		 pop	 esi
  0001e	c3		 ret	 0
??0CMasterLevelSkillTreeSystem@@QAE@XZ ENDP		; CMasterLevelSkillTreeSystem::CMasterLevelSkillTreeSystem
_TEXT	ENDS
PUBLIC	??1CMasterLevelSkillTreeSystem@@UAE@XZ		; CMasterLevelSkillTreeSystem::~CMasterLevelSkillTreeSystem
EXTRN	??1MULua@@QAE@XZ:PROC				; MULua::~MULua
; Function compile flags: /Ogtp
;	COMDAT ??1CMasterLevelSkillTreeSystem@@UAE@XZ
_TEXT	SEGMENT
??1CMasterLevelSkillTreeSystem@@UAE@XZ PROC		; CMasterLevelSkillTreeSystem::~CMasterLevelSkillTreeSystem, COMDAT
; _this$ = ecx

; 46   : {

  00000	c7 01 00 00 00
	00		 mov	 DWORD PTR [ecx], OFFSET ??_7CMasterLevelSkillTreeSystem@@6B@

; 47   : 
; 48   : }

  00006	81 c1 c4 55 00
	00		 add	 ecx, 21956		; 000055c4H
  0000c	e9 00 00 00 00	 jmp	 ??1MULua@@QAE@XZ	; MULua::~MULua
??1CMasterLevelSkillTreeSystem@@UAE@XZ ENDP		; CMasterLevelSkillTreeSystem::~CMasterLevelSkillTreeSystem
_TEXT	ENDS
PUBLIC	?ClearPassiveSkill@CMasterLevelSkillTreeSystem@@QAEXPAUOBJECTSTRUCT@@@Z ; CMasterLevelSkillTreeSystem::ClearPassiveSkill
EXTRN	_memset:PROC
; Function compile flags: /Ogtp
;	COMDAT ?ClearPassiveSkill@CMasterLevelSkillTreeSystem@@QAEXPAUOBJECTSTRUCT@@@Z
_TEXT	SEGMENT
_lpObj$ = 8						; size = 4
?ClearPassiveSkill@CMasterLevelSkillTreeSystem@@QAEXPAUOBJECTSTRUCT@@@Z PROC ; CMasterLevelSkillTreeSystem::ClearPassiveSkill, COMDAT
; _this$ = ecx

; 459  : {

  00000	55		 push	 ebp
  00001	8b ec		 mov	 ebp, esp

; 460  : 	memset(&lpObj->m_MPSkillOpt,0,sizeof(lpObj->m_MPSkillOpt));

  00003	8b 45 08	 mov	 eax, DWORD PTR _lpObj$[ebp]
  00006	68 68 01 00 00	 push	 360			; 00000168H
  0000b	05 34 26 00 00	 add	 eax, 9780		; 00002634H
  00010	6a 00		 push	 0
  00012	50		 push	 eax
  00013	e8 00 00 00 00	 call	 _memset
  00018	83 c4 0c	 add	 esp, 12			; 0000000cH

; 461  : }

  0001b	5d		 pop	 ebp
  0001c	c2 04 00	 ret	 4
?ClearPassiveSkill@CMasterLevelSkillTreeSystem@@QAEXPAUOBJECTSTRUCT@@@Z ENDP ; CMasterLevelSkillTreeSystem::ClearPassiveSkill
_TEXT	ENDS
PUBLIC	?CheckRequireStatus@CMasterLevelSkillTreeSystem@@QAEHH@Z ; CMasterLevelSkillTreeSystem::CheckRequireStatus
EXTRN	?GetSkillUseType@CMagicDamage@@QAEHH@Z:PROC	; CMagicDamage::GetSkillUseType
EXTRN	?MagicDamageC@@3VCMagicDamage@@A:BYTE		; MagicDamageC
; Function compile flags: /Ogtp
;	COMDAT ?CheckRequireStatus@CMasterLevelSkillTreeSystem@@QAEHH@Z
_TEXT	SEGMENT
_iMLSkill$ = 8						; size = 4
?CheckRequireStatus@CMasterLevelSkillTreeSystem@@QAEHH@Z PROC ; CMasterLevelSkillTreeSystem::CheckRequireStatus, COMDAT
; _this$ = ecx

; 957  : {

  00000	55		 push	 ebp
  00001	8b ec		 mov	 ebp, esp

; 958  : 	int iSkillUseType = MagicDamageC.GetSkillUseType(iMLSkill);

  00003	8b 45 08	 mov	 eax, DWORD PTR _iMLSkill$[ebp]
  00006	50		 push	 eax
  00007	b9 00 00 00 00	 mov	 ecx, OFFSET ?MagicDamageC@@3VCMagicDamage@@A ; MagicDamageC
  0000c	e8 00 00 00 00	 call	 ?GetSkillUseType@CMagicDamage@@QAEHH@Z ; CMagicDamage::GetSkillUseType

; 959  : 
; 960  : 	if( iSkillUseType == 3 || iSkillUseType == 4 )

  00011	83 f8 03	 cmp	 eax, 3
  00014	74 0b		 je	 SHORT $LN1@CheckRequi
  00016	83 f8 04	 cmp	 eax, 4
  00019	74 06		 je	 SHORT $LN1@CheckRequi

; 962  : 	return false;

  0001b	33 c0		 xor	 eax, eax

; 963  : }

  0001d	5d		 pop	 ebp
  0001e	c2 04 00	 ret	 4
$LN1@CheckRequi:

; 961  : 		return true;

  00021	b8 01 00 00 00	 mov	 eax, 1

; 963  : }

  00026	5d		 pop	 ebp
  00027	c2 04 00	 ret	 4
?CheckRequireStatus@CMasterLevelSkillTreeSystem@@QAEHH@Z ENDP ; CMasterLevelSkillTreeSystem::CheckRequireStatus
_TEXT	ENDS
PUBLIC	?CheckPrimarySkill@CMasterLevelSkillTreeSystem@@QAEHPAUOBJECTSTRUCT@@H@Z ; CMasterLevelSkillTreeSystem::CheckPrimarySkill
EXTRN	?GetSkillReqBrandOfSkill@CMagicDamage@@QAEHH@Z:PROC ; CMagicDamage::GetSkillReqBrandOfSkill
EXTRN	?IsMagic@CMagicInf@@QAEHXZ:PROC			; CMagicInf::IsMagic
; Function compile flags: /Ogtp
;	COMDAT ?CheckPrimarySkill@CMasterLevelSkillTreeSystem@@QAEHPAUOBJECTSTRUCT@@H@Z
_TEXT	SEGMENT
_this$ = -4						; size = 4
_lpObj$ = 8						; size = 4
_iSkill$ = 12						; size = 4
?CheckPrimarySkill@CMasterLevelSkillTreeSystem@@QAEHPAUOBJECTSTRUCT@@H@Z PROC ; CMasterLevelSkillTreeSystem::CheckPrimarySkill, COMDAT
; _this$ = ecx

; 967  : {

  00000	55		 push	 ebp
  00001	8b ec		 mov	 ebp, esp
  00003	51		 push	 ecx
  00004	53		 push	 ebx

; 968  : 	int iBaseMLS = 0;
; 969  : 
; 970  : 	for(int iCount = 0; iCount < MAX_MAGIC; iCount++)

  00005	8b 5d 0c	 mov	 ebx, DWORD PTR _iSkill$[ebp]
  00008	56		 push	 esi
  00009	57		 push	 edi
  0000a	8b 7d 08	 mov	 edi, DWORD PTR _lpObj$[ebp]
  0000d	89 4d fc	 mov	 DWORD PTR _this$[ebp], ecx
  00010	33 f6		 xor	 esi, esi
$LL4@CheckPrima:

; 971  : 	{
; 972  : 		if( lpObj->Magic[iCount].IsMagic() == TRUE &&
; 973  : 			this->CheckRequireStatus(lpObj->Magic[iCount].m_Skill) &&
; 974  : 			iSkill == MagicDamageC.GetSkillReqBrandOfSkill(lpObj->Magic[iCount].m_Skill))

  00012	8b 8f c8 04 00
	00		 mov	 ecx, DWORD PTR [edi+1224]
  00018	03 ce		 add	 ecx, esi
  0001a	e8 00 00 00 00	 call	 ?IsMagic@CMagicInf@@QAEHXZ ; CMagicInf::IsMagic
  0001f	83 f8 01	 cmp	 eax, 1
  00022	75 30		 jne	 SHORT $LN3@CheckPrima
  00024	8b 87 c8 04 00
	00		 mov	 eax, DWORD PTR [edi+1224]
  0002a	8b 4c 30 08	 mov	 ecx, DWORD PTR [eax+esi+8]
  0002e	51		 push	 ecx
  0002f	8b 4d fc	 mov	 ecx, DWORD PTR _this$[ebp]
  00032	e8 00 00 00 00	 call	 ?CheckRequireStatus@CMasterLevelSkillTreeSystem@@QAEHH@Z ; CMasterLevelSkillTreeSystem::CheckRequireStatus
  00037	85 c0		 test	 eax, eax
  00039	74 19		 je	 SHORT $LN3@CheckPrima
  0003b	8b 97 c8 04 00
	00		 mov	 edx, DWORD PTR [edi+1224]
  00041	8b 44 32 08	 mov	 eax, DWORD PTR [edx+esi+8]
  00045	50		 push	 eax
  00046	b9 00 00 00 00	 mov	 ecx, OFFSET ?MagicDamageC@@3VCMagicDamage@@A ; MagicDamageC
  0004b	e8 00 00 00 00	 call	 ?GetSkillReqBrandOfSkill@CMagicDamage@@QAEHH@Z ; CMagicDamage::GetSkillReqBrandOfSkill
  00050	3b d8		 cmp	 ebx, eax
  00052	74 16		 je	 SHORT $LN8@CheckPrima
$LN3@CheckPrima:

; 968  : 	int iBaseMLS = 0;
; 969  : 
; 970  : 	for(int iCount = 0; iCount < MAX_MAGIC; iCount++)

  00054	83 c6 18	 add	 esi, 24			; 00000018H
  00057	81 fe 10 0e 00
	00		 cmp	 esi, 3600		; 00000e10H
  0005d	7c b3		 jl	 SHORT $LL4@CheckPrima

; 977  : 		}
; 978  : 	}
; 979  : 	return false;

  0005f	5f		 pop	 edi
  00060	5e		 pop	 esi
  00061	33 c0		 xor	 eax, eax
  00063	5b		 pop	 ebx

; 980  : }

  00064	8b e5		 mov	 esp, ebp
  00066	5d		 pop	 ebp
  00067	c2 08 00	 ret	 8
$LN8@CheckPrima:
  0006a	5f		 pop	 edi
  0006b	5e		 pop	 esi

; 975  : 		{
; 976  : 			return true;

  0006c	b8 01 00 00 00	 mov	 eax, 1
  00071	5b		 pop	 ebx

; 980  : }

  00072	8b e5		 mov	 esp, ebp
  00074	5d		 pop	 ebp
  00075	c2 08 00	 ret	 8
?CheckPrimarySkill@CMasterLevelSkillTreeSystem@@QAEHPAUOBJECTSTRUCT@@H@Z ENDP ; CMasterLevelSkillTreeSystem::CheckPrimarySkill
_TEXT	ENDS
PUBLIC	?GetBaseMasterLevelSkill@CMasterLevelSkillTreeSystem@@QAEHH@Z ; CMasterLevelSkillTreeSystem::GetBaseMasterLevelSkill
; Function compile flags: /Ogtp
;	COMDAT ?GetBaseMasterLevelSkill@CMasterLevelSkillTreeSystem@@QAEHH@Z
_TEXT	SEGMENT
_iMLSkill$ = 8						; size = 4
?GetBaseMasterLevelSkill@CMasterLevelSkillTreeSystem@@QAEHH@Z PROC ; CMasterLevelSkillTreeSystem::GetBaseMasterLevelSkill, COMDAT
; _this$ = ecx

; 983  : {

  00000	55		 push	 ebp
  00001	8b ec		 mov	 ebp, esp
  00003	56		 push	 esi

; 984  : 	if( !this->CheckRequireStatus(iMLSkill) )

  00004	8b 75 08	 mov	 esi, DWORD PTR _iMLSkill$[ebp]
  00007	56		 push	 esi
  00008	e8 00 00 00 00	 call	 ?CheckRequireStatus@CMasterLevelSkillTreeSystem@@QAEHH@Z ; CMasterLevelSkillTreeSystem::CheckRequireStatus
  0000d	85 c0		 test	 eax, eax
  0000f	75 08		 jne	 SHORT $LN1@GetBaseMas

; 985  : 		return -1;

  00011	83 c8 ff	 or	 eax, -1
  00014	5e		 pop	 esi

; 987  : }

  00015	5d		 pop	 ebp
  00016	c2 04 00	 ret	 4
$LN1@GetBaseMas:

; 986  : 	return iMLSkill;

  00019	8b c6		 mov	 eax, esi
  0001b	5e		 pop	 esi

; 987  : }

  0001c	5d		 pop	 ebp
  0001d	c2 04 00	 ret	 4
?GetBaseMasterLevelSkill@CMasterLevelSkillTreeSystem@@QAEHH@Z ENDP ; CMasterLevelSkillTreeSystem::GetBaseMasterLevelSkill
_TEXT	ENDS
PUBLIC	??_C@_0CC@MLANJOKC@NewMasterLevelSkillTreeSystem?4cp@ ; `string'
PUBLIC	?gObjMagicAdd_MLS@CMasterLevelSkillTreeSystem@@QAEHPAUOBJECTSTRUCT@@HH@Z ; CMasterLevelSkillTreeSystem::gObjMagicAdd_MLS
EXTRN	?GCMagicListOneSend@@YAXHDGEGE@Z:PROC		; GCMagicListOneSend
EXTRN	?Set@CMagicInf@@QAEHHE@Z:PROC			; CMagicInf::Set
EXTRN	?UpdateML@CMagicInf@@QAEHKE@Z:PROC		; CMagicInf::UpdateML
EXTRN	?SkillGetRequireClass@CMagicDamage@@QAEHHHHH@Z:PROC ; CMagicDamage::SkillGetRequireClass
EXTRN	?LogAdd@@3P6AXPADZZA:DWORD			; LogAdd
EXTRN	?Get@CMsg@@QAEPADH@Z:PROC			; CMsg::Get
EXTRN	?lMsg@@3VCMsg@@A:BYTE				; lMsg
EXTRN	?SkillGetRequireEnergy@CMagicDamage@@QAEHH@Z:PROC ; CMagicDamage::SkillGetRequireEnergy
EXTRN	?g_EnergyCheckOff@@3HA:DWORD			; g_EnergyCheckOff
;	COMDAT ??_C@_0CC@MLANJOKC@NewMasterLevelSkillTreeSystem?4cp@
CONST	SEGMENT
??_C@_0CC@MLANJOKC@NewMasterLevelSkillTreeSystem?4cp@ DB 'NewMasterLevelS'
	DB	'killTreeSystem.cpp', 00H			; `string'
; Function compile flags: /Ogtp
CONST	ENDS
;	COMDAT ?gObjMagicAdd_MLS@CMasterLevelSkillTreeSystem@@QAEHPAUOBJECTSTRUCT@@HH@Z
_TEXT	SEGMENT
_iBrand$216555 = -4					; size = 2
_n$ = 8							; size = 4
_lpObj$ = 8						; size = 4
_iMLSkill$ = 12						; size = 4
_iSkillLevel$ = 16					; size = 4
?gObjMagicAdd_MLS@CMasterLevelSkillTreeSystem@@QAEHPAUOBJECTSTRUCT@@HH@Z PROC ; CMasterLevelSkillTreeSystem::gObjMagicAdd_MLS, COMDAT
; _this$ = ecx

; 991  : {

  00000	55		 push	 ebp
  00001	8b ec		 mov	 ebp, esp
  00003	51		 push	 ecx

; 992  : 	int skill = -1;
; 993  : 	int n;
; 994  : 
; 995  : 	if( g_EnergyCheckOff == 1 )

  00004	83 3d 00 00 00
	00 01		 cmp	 DWORD PTR ?g_EnergyCheckOff@@3HA, 1 ; g_EnergyCheckOff
  0000b	53		 push	 ebx

; 996  : 	{
; 997  : 		int reqeng = MagicDamageC.SkillGetRequireEnergy(iMLSkill);

  0000c	8b 5d 0c	 mov	 ebx, DWORD PTR _iMLSkill$[ebp]
  0000f	56		 push	 esi
  00010	8b 75 08	 mov	 esi, DWORD PTR _lpObj$[ebp]
  00013	75 66		 jne	 SHORT $LN29@gObjMagicA
  00015	53		 push	 ebx
  00016	b9 00 00 00 00	 mov	 ecx, OFFSET ?MagicDamageC@@3VCMagicDamage@@A ; MagicDamageC
  0001b	e8 00 00 00 00	 call	 ?SkillGetRequireEnergy@CMagicDamage@@QAEHH@Z ; CMagicDamage::SkillGetRequireEnergy

; 998  : 
; 999  : 		if( reqeng < 0 )

  00020	85 c0		 test	 eax, eax
  00022	79 24		 jns	 SHORT $LN33@gObjMagicA
$LN51@gObjMagicA:

; 1000 : 		{
; 1001 : 			LogAdd(lMsg.Get(MSGGET(2,37)));

  00024	68 25 02 00 00	 push	 549			; 00000225H
  00029	b9 00 00 00 00	 mov	 ecx, OFFSET ?lMsg@@3VCMsg@@A ; lMsg
  0002e	e8 00 00 00 00	 call	 ?Get@CMsg@@QAEPADH@Z	; CMsg::Get
  00033	50		 push	 eax
  00034	ff 15 00 00 00
	00		 call	 DWORD PTR ?LogAdd@@3P6AXPADZZA ; LogAdd
  0003a	83 c4 04	 add	 esp, 4
  0003d	5e		 pop	 esi

; 1002 : 			return -1;

  0003e	83 c8 ff	 or	 eax, -1
  00041	5b		 pop	 ebx

; 1118 : return -1;
; 1119 : }

  00042	8b e5		 mov	 esp, ebp
  00044	5d		 pop	 ebp
  00045	c2 0c 00	 ret	 12			; 0000000cH
$LN33@gObjMagicA:

; 1003 : 		}
; 1004 : 
; 1005 : 		if( lpObj->Class == CLASS_KNIGHT )

  00048	0f b7 8e b8 00
	00 00		 movzx	 ecx, WORD PTR [esi+184]
  0004f	83 f9 01	 cmp	 ecx, 1
  00052	75 03		 jne	 SHORT $LN32@gObjMagicA

; 1006 : 		{
; 1007 : 			reqeng -= 10;

  00054	83 e8 0a	 sub	 eax, 10			; 0000000aH
$LN32@gObjMagicA:

; 1008 : 		}
; 1009 : 		
; 1010 : 		if( lpObj->Class == CLASS_ELF )

  00057	83 f9 02	 cmp	 ecx, 2
  0005a	75 03		 jne	 SHORT $LN31@gObjMagicA

; 1011 : 		{
; 1012 : 			reqeng -= 5;

  0005c	83 e8 05	 sub	 eax, 5
$LN31@gObjMagicA:

; 1013 : 		}
; 1014 : 		
; 1015 : 		if( lpObj->Class == CLASS_DARKLORD )

  0005f	83 f9 04	 cmp	 ecx, 4
  00062	75 03		 jne	 SHORT $LN30@gObjMagicA

; 1016 : 		{
; 1017 : 			reqeng -= 5;

  00064	83 e8 05	 sub	 eax, 5
$LN30@gObjMagicA:

; 1018 : 		}
; 1019 : 
; 1020 : 		if( (lpObj->Energy+lpObj->AddEnergy) < reqeng )

  00067	0f bf 8e 26 01
	00 00		 movsx	 ecx, WORD PTR [esi+294]
  0006e	0f b7 96 fa 00
	00 00		 movzx	 edx, WORD PTR [esi+250]
  00075	03 ca		 add	 ecx, edx
  00077	3b c8		 cmp	 ecx, eax

; 1021 : 		{
; 1022 : 			LogAdd(lMsg.Get(MSGGET(2,37)));
; 1023 : 			return -1;

  00079	7c a9		 jl	 SHORT $LN51@gObjMagicA
$LN29@gObjMagicA:

; 1024 : 		}
; 1025 : 	}
; 1026 : 
; 1027 : 	if( MagicDamageC.SkillGetRequireClass(lpObj->Class,lpObj->ChangeUP,lpObj->ChangeUP3rd,iMLSkill) < 1 )

  0007b	0f b6 86 bc 00
	00 00		 movzx	 eax, BYTE PTR [esi+188]
  00082	0f b6 8e bb 00
	00 00		 movzx	 ecx, BYTE PTR [esi+187]
  00089	0f b7 96 b8 00
	00 00		 movzx	 edx, WORD PTR [esi+184]
  00090	53		 push	 ebx
  00091	50		 push	 eax
  00092	51		 push	 ecx
  00093	52		 push	 edx
  00094	b9 00 00 00 00	 mov	 ecx, OFFSET ?MagicDamageC@@3VCMagicDamage@@A ; MagicDamageC
  00099	e8 00 00 00 00	 call	 ?SkillGetRequireClass@CMagicDamage@@QAEHHHHH@Z ; CMagicDamage::SkillGetRequireClass
  0009e	83 f8 01	 cmp	 eax, 1
  000a1	7d 24		 jge	 SHORT $LN28@gObjMagicA

; 1028 : 	{
; 1029 : 		LogAdd(lMsg.Get(MSGGET(2,38)));

  000a3	68 26 02 00 00	 push	 550			; 00000226H
  000a8	b9 00 00 00 00	 mov	 ecx, OFFSET ?lMsg@@3VCMsg@@A ; lMsg
  000ad	e8 00 00 00 00	 call	 ?Get@CMsg@@QAEPADH@Z	; CMsg::Get
  000b2	50		 push	 eax
  000b3	ff 15 00 00 00
	00		 call	 DWORD PTR ?LogAdd@@3P6AXPADZZA ; LogAdd
  000b9	83 c4 04	 add	 esp, 4
  000bc	5e		 pop	 esi

; 1030 : 		return -1;

  000bd	83 c8 ff	 or	 eax, -1
  000c0	5b		 pop	 ebx

; 1118 : return -1;
; 1119 : }

  000c1	8b e5		 mov	 esp, ebp
  000c3	5d		 pop	 ebp
  000c4	c2 0c 00	 ret	 12			; 0000000cH
$LN28@gObjMagicA:
  000c7	57		 push	 edi

; 1031 : 	}
; 1032 : 
; 1033 : 	for( n = 0; n < MAX_MAGIC; n++)

  000c8	33 ff		 xor	 edi, edi
  000ca	89 7d 08	 mov	 DWORD PTR _n$[ebp], edi
  000cd	8d 49 00	 npad	 3
$LL27@gObjMagicA:

; 1034 : 	{
; 1035 : 		if( lpObj->Magic[n].IsMagic() == TRUE &&
; 1036 : 			lpObj->Magic[n].m_Skill == iMLSkill &&
; 1037 : 			lpObj->Magic[n].m_Level == iSkillLevel )

  000d0	8b 8e c8 04 00
	00		 mov	 ecx, DWORD PTR [esi+1224]
  000d6	03 cf		 add	 ecx, edi
  000d8	e8 00 00 00 00	 call	 ?IsMagic@CMagicInf@@QAEHXZ ; CMagicInf::IsMagic
  000dd	83 f8 01	 cmp	 eax, 1
  000e0	75 1a		 jne	 SHORT $LN26@gObjMagicA
  000e2	8b 86 c8 04 00
	00		 mov	 eax, DWORD PTR [esi+1224]
  000e8	39 5c 38 08	 cmp	 DWORD PTR [eax+edi+8], ebx
  000ec	75 0e		 jne	 SHORT $LN26@gObjMagicA
  000ee	0f b6 4c 38 04	 movzx	 ecx, BYTE PTR [eax+edi+4]
  000f3	3b 4d 10	 cmp	 ecx, DWORD PTR _iSkillLevel$[ebp]
  000f6	0f 84 c4 00 00
	00		 je	 $LN41@gObjMagicA
$LN26@gObjMagicA:

; 1031 : 	}
; 1032 : 
; 1033 : 	for( n = 0; n < MAX_MAGIC; n++)

  000fc	ff 45 08	 inc	 DWORD PTR _n$[ebp]
  000ff	83 c7 18	 add	 edi, 24			; 00000018H
  00102	81 ff 10 0e 00
	00		 cmp	 edi, 3600		; 00000e10H
  00108	7c c6		 jl	 SHORT $LL27@gObjMagicA

; 1041 : 		}
; 1042 : 	}
; 1043 : 
; 1044 : 	if( MagicDamageC.GetSkillUseType(iMLSkill) == 3 )

  0010a	53		 push	 ebx
  0010b	b9 00 00 00 00	 mov	 ecx, OFFSET ?MagicDamageC@@3VCMagicDamage@@A ; MagicDamageC
  00110	e8 00 00 00 00	 call	 ?GetSkillUseType@CMagicDamage@@QAEHH@Z ; CMagicDamage::GetSkillUseType
  00115	83 f8 03	 cmp	 eax, 3
  00118	0f 85 e0 00 00
	00		 jne	 $LN23@gObjMagicA

; 1045 : 	{
; 1046 : 		if( iSkillLevel > 1 )

  0011e	83 7d 10 01	 cmp	 DWORD PTR _iSkillLevel$[ebp], 1
  00122	7e 47		 jle	 SHORT $LN12@gObjMagicA

; 1047 : 		{
; 1048 : 			for( n = 0; n < MAX_MAGIC; n++)

  00124	33 ff		 xor	 edi, edi
  00126	89 7d 08	 mov	 DWORD PTR _n$[ebp], edi
  00129	8d a4 24 00 00
	00 00		 npad	 7
$LL21@gObjMagicA:

; 1049 : 			{
; 1050 : 				if( lpObj->Magic[n].IsMagic() == TRUE &&
; 1051 : 					lpObj->Magic[n].m_Skill == iMLSkill &&
; 1052 : 					lpObj->Magic[n].m_Level == iSkillLevel-1 )

  00130	8b 8e c8 04 00
	00		 mov	 ecx, DWORD PTR [esi+1224]
  00136	03 cf		 add	 ecx, edi
  00138	e8 00 00 00 00	 call	 ?IsMagic@CMagicInf@@QAEHXZ ; CMagicInf::IsMagic
  0013d	83 f8 01	 cmp	 eax, 1
  00140	75 1b		 jne	 SHORT $LN20@gObjMagicA
  00142	8b 86 c8 04 00
	00		 mov	 eax, DWORD PTR [esi+1224]
  00148	39 5c 38 08	 cmp	 DWORD PTR [eax+edi+8], ebx
  0014c	75 0f		 jne	 SHORT $LN20@gObjMagicA
  0014e	0f b6 4c 38 04	 movzx	 ecx, BYTE PTR [eax+edi+4]
  00153	8b 45 10	 mov	 eax, DWORD PTR _iSkillLevel$[ebp]
  00156	8d 50 ff	 lea	 edx, DWORD PTR [eax-1]
  00159	3b ca		 cmp	 ecx, edx
  0015b	74 7c		 je	 SHORT $LN42@gObjMagicA
$LN20@gObjMagicA:

; 1047 : 		{
; 1048 : 			for( n = 0; n < MAX_MAGIC; n++)

  0015d	ff 45 08	 inc	 DWORD PTR _n$[ebp]
  00160	83 c7 18	 add	 edi, 24			; 00000018H
  00163	81 ff 10 0e 00
	00		 cmp	 edi, 3600		; 00000e10H
  00169	7c c5		 jl	 SHORT $LL21@gObjMagicA
$LN12@gObjMagicA:

; 1092 : 	}
; 1093 : 
; 1094 : 	for( n = 0; n < MAX_MAGIC; n++)

  0016b	33 db		 xor	 ebx, ebx
  0016d	33 ff		 xor	 edi, edi
  0016f	90		 npad	 1
$LL6@gObjMagicA:

; 1095 : 	{
; 1096 : 		if( lpObj->Magic[n].IsMagic() == FALSE )

  00170	8b 8e c8 04 00
	00		 mov	 ecx, DWORD PTR [esi+1224]
  00176	03 cf		 add	 ecx, edi
  00178	e8 00 00 00 00	 call	 ?IsMagic@CMagicInf@@QAEHXZ ; CMagicInf::IsMagic
  0017d	85 c0		 test	 eax, eax
  0017f	0f 84 17 01 00
	00		 je	 $LN44@gObjMagicA

; 1092 : 	}
; 1093 : 
; 1094 : 	for( n = 0; n < MAX_MAGIC; n++)

  00185	83 c7 18	 add	 edi, 24			; 00000018H
  00188	43		 inc	 ebx
  00189	81 ff 10 0e 00
	00		 cmp	 edi, 3600		; 00000e10H
  0018f	7c df		 jl	 SHORT $LL6@gObjMagicA

; 1114 : 		}
; 1115 : 	}
; 1116 : 
; 1117 : 	LogAdd(lMsg.Get(MSGGET(2,42)),__FILE__,__LINE__);

  00191	68 5d 04 00 00	 push	 1117			; 0000045dH
  00196	68 00 00 00 00	 push	 OFFSET ??_C@_0CC@MLANJOKC@NewMasterLevelSkillTreeSystem?4cp@
  0019b	68 2a 02 00 00	 push	 554			; 0000022aH
$LN52@gObjMagicA:
  001a0	b9 00 00 00 00	 mov	 ecx, OFFSET ?lMsg@@3VCMsg@@A ; lMsg
  001a5	e8 00 00 00 00	 call	 ?Get@CMsg@@QAEPADH@Z	; CMsg::Get
  001aa	50		 push	 eax
  001ab	ff 15 00 00 00
	00		 call	 DWORD PTR ?LogAdd@@3P6AXPADZZA ; LogAdd
  001b1	83 c4 0c	 add	 esp, 12			; 0000000cH
$LN15@gObjMagicA:

; 1085 : 				}
; 1086 : 			}
; 1087 : 		}
; 1088 : 	}
; 1089 : 	else
; 1090 : 	{
; 1091 : 		return -1;

  001b4	5f		 pop	 edi
  001b5	5e		 pop	 esi
  001b6	83 c8 ff	 or	 eax, -1
  001b9	5b		 pop	 ebx

; 1118 : return -1;
; 1119 : }

  001ba	8b e5		 mov	 esp, ebp
  001bc	5d		 pop	 ebp
  001bd	c2 0c 00	 ret	 12			; 0000000cH
$LN41@gObjMagicA:

; 1038 : 		{
; 1039 : 			LogAdd(lMsg.Get(MSGGET(2,43)),lpObj->Magic[n].m_Skill,iMLSkill);

  001c0	8b 45 08	 mov	 eax, DWORD PTR _n$[ebp]
  001c3	8d 14 40	 lea	 edx, DWORD PTR [eax+eax*2]
  001c6	8b 86 c8 04 00
	00		 mov	 eax, DWORD PTR [esi+1224]
  001cc	8b 4c d0 08	 mov	 ecx, DWORD PTR [eax+edx*8+8]
  001d0	53		 push	 ebx
  001d1	51		 push	 ecx
  001d2	68 2b 02 00 00	 push	 555			; 0000022bH

; 1040 : 			return -1;

  001d7	eb c7		 jmp	 SHORT $LN52@gObjMagicA
$LN42@gObjMagicA:

; 1053 : 				{
; 1054 : 					skill = lpObj->Magic[n].UpdateML(iMLSkill,iSkillLevel);

  001d9	8b 7d 08	 mov	 edi, DWORD PTR _n$[ebp]
  001dc	8b 8e c8 04 00
	00		 mov	 ecx, DWORD PTR [esi+1224]
  001e2	50		 push	 eax
  001e3	8d 04 7f	 lea	 eax, DWORD PTR [edi+edi*2]
  001e6	53		 push	 ebx
  001e7	8d 0c c1	 lea	 ecx, DWORD PTR [ecx+eax*8]
  001ea	e8 00 00 00 00	 call	 ?UpdateML@CMagicInf@@QAEHKE@Z ; CMagicInf::UpdateML

; 1055 : 
; 1056 : 					if( skill < 0 )

  001ef	85 c0		 test	 eax, eax

; 1057 : 						return -1;

  001f1	78 c1		 js	 SHORT $LN15@gObjMagicA

; 1058 : 
; 1059 : 					return n;

  001f3	8b c7		 mov	 eax, edi
  001f5	5f		 pop	 edi
  001f6	5e		 pop	 esi
  001f7	5b		 pop	 ebx

; 1118 : return -1;
; 1119 : }

  001f8	8b e5		 mov	 esp, ebp
  001fa	5d		 pop	 ebp
  001fb	c2 0c 00	 ret	 12			; 0000000cH
$LN23@gObjMagicA:

; 1060 : 				}
; 1061 : 			}
; 1062 : 		}
; 1063 : 	}
; 1064 : 	else if( MagicDamageC.GetSkillUseType(iMLSkill) == 4 )

  001fe	53		 push	 ebx
  001ff	b9 00 00 00 00	 mov	 ecx, OFFSET ?MagicDamageC@@3VCMagicDamage@@A ; MagicDamageC
  00204	e8 00 00 00 00	 call	 ?GetSkillUseType@CMagicDamage@@QAEHH@Z ; CMagicDamage::GetSkillUseType
  00209	83 f8 04	 cmp	 eax, 4
  0020c	75 a6		 jne	 SHORT $LN15@gObjMagicA

; 1065 : 	{
; 1066 : 		WORD iBrand = MagicDamageC.GetSkillReqBrandOfSkill(iMLSkill);

  0020e	53		 push	 ebx
  0020f	b9 00 00 00 00	 mov	 ecx, OFFSET ?MagicDamageC@@3VCMagicDamage@@A ; MagicDamageC
  00214	e8 00 00 00 00	 call	 ?GetSkillReqBrandOfSkill@CMagicDamage@@QAEHH@Z ; CMagicDamage::GetSkillReqBrandOfSkill
  00219	0f b7 d0	 movzx	 edx, ax

; 1067 : 
; 1068 : 		for( n = 0; n < MAX_MAGIC; n++)

  0021c	33 ff		 xor	 edi, edi
  0021e	89 55 fc	 mov	 DWORD PTR _iBrand$216555[ebp], edx
  00221	89 7d 08	 mov	 DWORD PTR _n$[ebp], edi
  00224	eb 0a 8d a4 24
	00 00 00 00 8d
	49 00		 npad	 12
$LL14@gObjMagicA:

; 1069 : 		{
; 1070 : 			if( lpObj->Magic[n].IsMagic() == TRUE )

  00230	8b 8e c8 04 00
	00		 mov	 ecx, DWORD PTR [esi+1224]
  00236	03 cf		 add	 ecx, edi
  00238	e8 00 00 00 00	 call	 ?IsMagic@CMagicInf@@QAEHXZ ; CMagicInf::IsMagic
  0023d	83 f8 01	 cmp	 eax, 1
  00240	75 21		 jne	 SHORT $LN13@gObjMagicA

; 1071 : 			{
; 1072 : 				if( lpObj->Magic[n].m_Skill == iBrand )

  00242	0f b7 4d fc	 movzx	 ecx, WORD PTR _iBrand$216555[ebp]
  00246	8b 86 c8 04 00
	00		 mov	 eax, DWORD PTR [esi+1224]
  0024c	39 4c 38 08	 cmp	 DWORD PTR [eax+edi+8], ecx
  00250	75 05		 jne	 SHORT $LN10@gObjMagicA

; 1073 : 				{
; 1074 : 					lpObj->Magic[n].m_bPass = TRUE;

  00252	c6 44 38 14 01	 mov	 BYTE PTR [eax+edi+20], 1
$LN10@gObjMagicA:

; 1075 : 				}
; 1076 : 
; 1077 : 				if( lpObj->Magic[n].m_Skill == iMLSkill )

  00257	8b 96 c8 04 00
	00		 mov	 edx, DWORD PTR [esi+1224]
  0025d	39 5c 3a 08	 cmp	 DWORD PTR [edx+edi+8], ebx
  00261	74 13		 je	 SHORT $LN43@gObjMagicA
$LN13@gObjMagicA:

; 1067 : 
; 1068 : 		for( n = 0; n < MAX_MAGIC; n++)

  00263	ff 45 08	 inc	 DWORD PTR _n$[ebp]
  00266	83 c7 18	 add	 edi, 24			; 00000018H
  00269	81 ff 10 0e 00
	00		 cmp	 edi, 3600		; 00000e10H
  0026f	7c bf		 jl	 SHORT $LL14@gObjMagicA

; 1095 : 	{
; 1096 : 		if( lpObj->Magic[n].IsMagic() == FALSE )

  00271	e9 f5 fe ff ff	 jmp	 $LN12@gObjMagicA
$LN43@gObjMagicA:

; 1078 : 				{
; 1079 : 					skill = lpObj->Magic[n].UpdateML(iMLSkill,iSkillLevel);

  00276	8b 45 10	 mov	 eax, DWORD PTR _iSkillLevel$[ebp]
  00279	8b 7d 08	 mov	 edi, DWORD PTR _n$[ebp]
  0027c	50		 push	 eax
  0027d	8d 0c 7f	 lea	 ecx, DWORD PTR [edi+edi*2]
  00280	53		 push	 ebx
  00281	8d 0c ca	 lea	 ecx, DWORD PTR [edx+ecx*8]
  00284	e8 00 00 00 00	 call	 ?UpdateML@CMagicInf@@QAEHKE@Z ; CMagicInf::UpdateML

; 1080 : 
; 1081 : 					if( skill < 0 )

  00289	85 c0		 test	 eax, eax

; 1082 : 						return -1;

  0028b	0f 88 23 ff ff
	ff		 js	 $LN15@gObjMagicA

; 1083 : 
; 1084 : 					return n;

  00291	8b c7		 mov	 eax, edi
  00293	5f		 pop	 edi
  00294	5e		 pop	 esi
  00295	5b		 pop	 ebx

; 1118 : return -1;
; 1119 : }

  00296	8b e5		 mov	 esp, ebp
  00298	5d		 pop	 ebp
  00299	c2 0c 00	 ret	 12			; 0000000cH
$LN44@gObjMagicA:

; 1097 : 		{
; 1098 : 			skill = lpObj->Magic[n].Set(iMLSkill,iSkillLevel);

  0029c	8b 45 10	 mov	 eax, DWORD PTR _iSkillLevel$[ebp]
  0029f	8b 96 c8 04 00
	00		 mov	 edx, DWORD PTR [esi+1224]
  002a5	8b 7d 0c	 mov	 edi, DWORD PTR _iMLSkill$[ebp]
  002a8	50		 push	 eax
  002a9	8d 0c 5b	 lea	 ecx, DWORD PTR [ebx+ebx*2]
  002ac	57		 push	 edi
  002ad	8d 0c ca	 lea	 ecx, DWORD PTR [edx+ecx*8]
  002b0	e8 00 00 00 00	 call	 ?Set@CMagicInf@@QAEHHE@Z ; CMagicInf::Set

; 1099 : 
; 1100 : 			if( skill < 0 )

  002b5	85 c0		 test	 eax, eax
  002b7	79 14		 jns	 SHORT $LN2@gObjMagicA

; 1101 : 			{
; 1102 : 				LogAdd(lMsg.Get(MSGGET(2,41)),__FILE__,__LINE__);

  002b9	68 4e 04 00 00	 push	 1102			; 0000044eH
  002be	68 00 00 00 00	 push	 OFFSET ??_C@_0CC@MLANJOKC@NewMasterLevelSkillTreeSystem?4cp@
  002c3	68 29 02 00 00	 push	 553			; 00000229H

; 1103 : 				return -1;

  002c8	e9 d3 fe ff ff	 jmp	 $LN52@gObjMagicA
$LN2@gObjMagicA:

; 1104 : 			}
; 1105 : 
; 1106 : 			if( MagicDamageC.GetSkillReqBrandOfSkill(iMLSkill) == 0 &&
; 1107 : 				MagicDamageC.GetSkillUseType(iMLSkill) == 4 )

  002cd	57		 push	 edi
  002ce	b9 00 00 00 00	 mov	 ecx, OFFSET ?MagicDamageC@@3VCMagicDamage@@A ; MagicDamageC
  002d3	e8 00 00 00 00	 call	 ?GetSkillReqBrandOfSkill@CMagicDamage@@QAEHH@Z ; CMagicDamage::GetSkillReqBrandOfSkill
  002d8	85 c0		 test	 eax, eax
  002da	75 25		 jne	 SHORT $LN1@gObjMagicA
  002dc	57		 push	 edi
  002dd	b9 00 00 00 00	 mov	 ecx, OFFSET ?MagicDamageC@@3VCMagicDamage@@A ; MagicDamageC
  002e2	e8 00 00 00 00	 call	 ?GetSkillUseType@CMagicDamage@@QAEHH@Z ; CMagicDamage::GetSkillUseType
  002e7	83 f8 04	 cmp	 eax, 4
  002ea	75 15		 jne	 SHORT $LN1@gObjMagicA

; 1108 : 			{
; 1109 : 				GCMagicListOneSend(lpObj->m_Index,n,iMLSkill,iSkillLevel,0,0);

  002ec	8b 45 10	 mov	 eax, DWORD PTR _iSkillLevel$[ebp]
  002ef	8b 0e		 mov	 ecx, DWORD PTR [esi]
  002f1	6a 00		 push	 0
  002f3	6a 00		 push	 0
  002f5	50		 push	 eax
  002f6	57		 push	 edi
  002f7	53		 push	 ebx
  002f8	51		 push	 ecx
  002f9	e8 00 00 00 00	 call	 ?GCMagicListOneSend@@YAXHDGEGE@Z ; GCMagicListOneSend
  002fe	83 c4 18	 add	 esp, 24			; 00000018H
$LN1@gObjMagicA:

; 1110 : 			}
; 1111 : 
; 1112 : 			lpObj->MagicCount++;

  00301	fe 86 cc 04 00
	00		 inc	 BYTE PTR [esi+1228]
  00307	5f		 pop	 edi
  00308	5e		 pop	 esi

; 1113 : 			return n;

  00309	8b c3		 mov	 eax, ebx
  0030b	5b		 pop	 ebx

; 1118 : return -1;
; 1119 : }

  0030c	8b e5		 mov	 esp, ebp
  0030e	5d		 pop	 ebp
  0030f	c2 0c 00	 ret	 12			; 0000000cH
?gObjMagicAdd_MLS@CMasterLevelSkillTreeSystem@@QAEHPAUOBJECTSTRUCT@@HH@Z ENDP ; CMasterLevelSkillTreeSystem::gObjMagicAdd_MLS
_TEXT	ENDS
PUBLIC	?MLS_Wheel@CMasterLevelSkillTreeSystem@@QAEXPAUOBJECTSTRUCT@@PAVCMagicInf@@HH@Z ; CMasterLevelSkillTreeSystem::MLS_Wheel
EXTRN	?GCMagicAttackNumberSend@@YAXPAUOBJECTSTRUCT@@GHE@Z:PROC ; GCMagicAttackNumberSend
EXTRN	?gObjAttack@@YAHPAUOBJECTSTRUCT@@0PAVCMagicInf@@HEHHEE@Z:PROC ; gObjAttack
EXTRN	?gObjCalDistance@@YAHPAUOBJECTSTRUCT@@0@Z:PROC	; gObjCalDistance
EXTRN	?GetSkillDistance@CMagicDamage@@QAEHH@Z:PROC	; CMagicDamage::GetSkillDistance
EXTRN	?gObjTargetGuildWarCheck@@YAHPAUOBJECTSTRUCT@@0@Z:PROC ; gObjTargetGuildWarCheck
EXTRN	?g_CastleSiege@@3VCCastleSiege@@A:BYTE		; g_CastleSiege
EXTRN	?gObj@@3PAUOBJECTSTRUCT@@A:DWORD		; gObj
; Function compile flags: /Ogtp
;	COMDAT ?MLS_Wheel@CMasterLevelSkillTreeSystem@@QAEXPAUOBJECTSTRUCT@@PAVCMagicInf@@HH@Z
_TEXT	SEGMENT
_DuelIndex$ = -8					; size = 4
tv420 = -4						; size = 4
tv384 = 8						; size = 4
_lpObj$ = 8						; size = 4
_lpMagic$ = 12						; size = 4
_aTargetIndex$ = 16					; size = 4
_isCombo$ = 20						; size = 4
?MLS_Wheel@CMasterLevelSkillTreeSystem@@QAEXPAUOBJECTSTRUCT@@PAVCMagicInf@@HH@Z PROC ; CMasterLevelSkillTreeSystem::MLS_Wheel, COMDAT
; _this$ = ecx

; 1694 : {

  00000	55		 push	 ebp
  00001	8b ec		 mov	 ebp, esp
  00003	83 ec 08	 sub	 esp, 8

; 1695 : 	int tObjNum;
; 1696 : 	int count = 0;

  00006	8b 15 00 00 00
	00		 mov	 edx, DWORD PTR ?gObj@@3PAUOBJECTSTRUCT@@A ; gObj
  0000c	53		 push	 ebx

; 1697 : 	int HitCount = 0;
; 1698 : 	int bAttack;
; 1699 : 	int DuelIndex = lpObj->m_iDuelUser;

  0000d	8b 5d 08	 mov	 ebx, DWORD PTR _lpObj$[ebp]
  00010	8b 83 b8 0e 00
	00		 mov	 eax, DWORD PTR [ebx+3768]
  00016	89 45 f8	 mov	 DWORD PTR _DuelIndex$[ebp], eax
  00019	56		 push	 esi
  0001a	8d 83 b0 08 00
	00		 lea	 eax, DWORD PTR [ebx+2224]
  00020	57		 push	 edi
  00021	89 45 08	 mov	 DWORD PTR tv384[ebp], eax
  00024	c7 45 fc 4b 00
	00 00		 mov	 DWORD PTR tv420[ebp], 75 ; 0000004bH
  0002b	eb 03 8d 49 00	 npad	 5
$LL23@MLS_Wheel:

; 1700 : 	int EnableAttack;
; 1701 : 
; 1702 : 	while ( true )
; 1703 : 	{
; 1704 : 		if(lpObj->VpPlayer2[count].state != 0)

  00030	80 78 fc 00	 cmp	 BYTE PTR [eax-4], 0
  00034	0f 84 14 01 00
	00		 je	 $LN35@MLS_Wheel

; 1705 : 		{
; 1706 : 			tObjNum = lpObj->VpPlayer2[count].number;

  0003a	0f bf 70 fe	 movsx	 esi, WORD PTR [eax-2]

; 1707 : 
; 1708 : 			if(tObjNum >= 0)

  0003e	85 f6		 test	 esi, esi
  00040	0f 88 08 01 00
	00		 js	 $LN35@MLS_Wheel

; 1709 : 			{
; 1710 : 				EnableAttack = 0;
; 1711 : 
; 1712 : 				if(lpObj->VpPlayer2[count].type == OBJ_MONSTER && gObj[tObjNum].m_RecallMon < 0)

  00046	8a 00		 mov	 al, BYTE PTR [eax]
  00048	3c 02		 cmp	 al, 2
  0004a	75 12		 jne	 SHORT $LN19@MLS_Wheel
  0004c	8b ce		 mov	 ecx, esi
  0004e	69 c9 50 2b 00
	00		 imul	 ecx, 11088		; 00002b50H
  00054	83 bc 11 50 04
	00 00 00	 cmp	 DWORD PTR [ecx+edx+1104], 0

; 1713 : 				{
; 1714 : 					EnableAttack = 1;

  0005c	7c 7c		 jl	 SHORT $LN16@MLS_Wheel
$LN19@MLS_Wheel:

; 1715 : 				}
; 1716 : 				else if(tObjNum == aTargetIndex || DuelIndex == tObjNum)

  0005e	3b 75 10	 cmp	 esi, DWORD PTR _aTargetIndex$[ebp]
  00061	74 77		 je	 SHORT $LN16@MLS_Wheel
  00063	39 75 f8	 cmp	 DWORD PTR _DuelIndex$[ebp], esi
  00066	74 72		 je	 SHORT $LN16@MLS_Wheel

; 1717 : 				{
; 1718 : 					EnableAttack = 1;
; 1719 : 				}
; 1720 : 				else if(lpObj->VpPlayer2[count].type != OBJ_NPC && gObj[tObjNum].MapNumber == MAP_INDEX_CASTLESIEGE && g_CastleSiege.GetCastleState() == 7)

  00068	3c 03		 cmp	 al, 3
  0006a	74 30		 je	 SHORT $LN14@MLS_Wheel
  0006c	8b c6		 mov	 eax, esi
  0006e	69 c0 50 2b 00
	00		 imul	 eax, 11088		; 00002b50H
  00074	80 bc 10 49 01
	00 00 1e	 cmp	 BYTE PTR [eax+edx+329], 30 ; 0000001eH
  0007c	75 1e		 jne	 SHORT $LN14@MLS_Wheel
  0007e	83 3d 28 00 00
	00 07		 cmp	 DWORD PTR ?g_CastleSiege@@3VCCastleSiege@@A+40, 7
  00085	75 15		 jne	 SHORT $LN14@MLS_Wheel

; 1721 : 				{
; 1722 : 					if( lpObj->m_btCsJoinSide != gObj[tObjNum].m_btCsJoinSide )

  00087	8a 8b 02 1c 00
	00		 mov	 cl, BYTE PTR [ebx+7170]
  0008d	3a 8c 10 02 1c
	00 00		 cmp	 cl, BYTE PTR [eax+edx+7170]
  00094	0f 84 b4 00 00
	00		 je	 $LN35@MLS_Wheel

; 1723 : 						EnableAttack = 1;
; 1724 : 				}
; 1725 : 				else

  0009a	eb 3e		 jmp	 SHORT $LN16@MLS_Wheel
$LN14@MLS_Wheel:

; 1726 : 				{
; 1727 : 					int CallMonIndex = gObj[tObjNum].m_Index;

  0009c	8b ce		 mov	 ecx, esi
  0009e	69 c9 50 2b 00
	00		 imul	 ecx, 11088		; 00002b50H

; 1728 : 
; 1729 : 					if(gObj[tObjNum].Type == OBJ_MONSTER && gObj[tObjNum].m_RecallMon >= 0)

  000a4	66 83 7c 11 68
	02		 cmp	 WORD PTR [ecx+edx+104], 2
  000aa	8b 04 11	 mov	 eax, DWORD PTR [ecx+edx]
  000ad	75 14		 jne	 SHORT $LN11@MLS_Wheel
  000af	8b 8c 11 50 04
	00 00		 mov	 ecx, DWORD PTR [ecx+edx+1104]
  000b6	85 c9		 test	 ecx, ecx
  000b8	78 09		 js	 SHORT $LN11@MLS_Wheel

; 1730 : 					{
; 1731 : 						CallMonIndex = gObj[gObj[tObjNum].m_RecallMon].m_Index;

  000ba	69 c9 50 2b 00
	00		 imul	 ecx, 11088		; 00002b50H
  000c0	8b 04 11	 mov	 eax, DWORD PTR [ecx+edx]
$LN11@MLS_Wheel:

; 1732 : 					}
; 1733 : 
; 1734 : 					if(gObjTargetGuildWarCheck(lpObj,&gObj[CallMonIndex])==1)

  000c3	69 c0 50 2b 00
	00		 imul	 eax, 11088		; 00002b50H
  000c9	03 c2		 add	 eax, edx
  000cb	50		 push	 eax
  000cc	53		 push	 ebx
  000cd	e8 00 00 00 00	 call	 ?gObjTargetGuildWarCheck@@YAHPAUOBJECTSTRUCT@@0@Z ; gObjTargetGuildWarCheck
  000d2	83 c4 08	 add	 esp, 8
  000d5	83 f8 01	 cmp	 eax, 1
  000d8	75 6e		 jne	 SHORT $LN34@MLS_Wheel
$LN16@MLS_Wheel:

; 1735 : 					{
; 1736 : 						EnableAttack = 1;
; 1737 : 					}
; 1738 : 				}
; 1739 : 
; 1740 : 				if(EnableAttack != 0)
; 1741 : 				{
; 1742 : 					int iSkillDis = MagicDamageC.GetSkillDistance(lpMagic->m_Skill);

  000da	8b 4d 0c	 mov	 ecx, DWORD PTR _lpMagic$[ebp]
  000dd	8b 51 08	 mov	 edx, DWORD PTR [ecx+8]
  000e0	52		 push	 edx
  000e1	b9 00 00 00 00	 mov	 ecx, OFFSET ?MagicDamageC@@3VCMagicDamage@@A ; MagicDamageC
  000e6	e8 00 00 00 00	 call	 ?GetSkillDistance@CMagicDamage@@QAEHH@Z ; CMagicDamage::GetSkillDistance

; 1743 : 
; 1744 : 					if(gObjCalDistance(lpObj,&gObj[tObjNum]) <= iSkillDis )

  000eb	69 f6 50 2b 00
	00		 imul	 esi, 11088		; 00002b50H
  000f1	8b f8		 mov	 edi, eax
  000f3	a1 00 00 00 00	 mov	 eax, DWORD PTR ?gObj@@3PAUOBJECTSTRUCT@@A ; gObj
  000f8	8d 0c 06	 lea	 ecx, DWORD PTR [esi+eax]
  000fb	51		 push	 ecx
  000fc	53		 push	 ebx
  000fd	e8 00 00 00 00	 call	 ?gObjCalDistance@@YAHPAUOBJECTSTRUCT@@0@Z ; gObjCalDistance
  00102	83 c4 08	 add	 esp, 8
  00105	3b c7		 cmp	 eax, edi
  00107	7f 3f		 jg	 SHORT $LN34@MLS_Wheel

; 1745 : 					{
; 1746 : 						bAttack = 0;
; 1747 : 
; 1748 : 						if(HitCount > 15)
; 1749 : 						{
; 1750 : 							bAttack = 0;
; 1751 : 						}
; 1752 : 
; 1753 : 						if(HitCount >= 10)
; 1754 : 						{
; 1755 : 							if(rand()%2)
; 1756 : 							{
; 1757 : 								bAttack = 1;
; 1758 : 							}
; 1759 : 						}
; 1760 : 						else
; 1761 : 						{
; 1762 : 							bAttack = 1;
; 1763 : 						}
; 1764 : 
; 1765 : 						if(bAttack != 0)
; 1766 : 						{
; 1767 : 
; 1768 : 							gObjAttack(lpObj,&gObj[tObjNum],lpMagic,0,1,0,isCombo,0,0);

  00109	8b 7d 14	 mov	 edi, DWORD PTR _isCombo$[ebp]
  0010c	8b 55 0c	 mov	 edx, DWORD PTR _lpMagic$[ebp]
  0010f	a1 00 00 00 00	 mov	 eax, DWORD PTR ?gObj@@3PAUOBJECTSTRUCT@@A ; gObj
  00114	6a 00		 push	 0
  00116	6a 00		 push	 0
  00118	57		 push	 edi
  00119	6a 00		 push	 0
  0011b	6a 01		 push	 1
  0011d	6a 00		 push	 0
  0011f	52		 push	 edx
  00120	8d 0c 06	 lea	 ecx, DWORD PTR [esi+eax]
  00123	51		 push	 ecx
  00124	53		 push	 ebx
  00125	e8 00 00 00 00	 call	 ?gObjAttack@@YAHPAUOBJECTSTRUCT@@0PAVCMagicInf@@HEHHEE@Z ; gObjAttack
  0012a	83 c4 24	 add	 esp, 36			; 00000024H

; 1769 : 
; 1770 : 							if(isCombo != 0)

  0012d	85 ff		 test	 edi, edi
  0012f	74 17		 je	 SHORT $LN34@MLS_Wheel

; 1771 : 							{
; 1772 : 								GCMagicAttackNumberSend(lpObj,AT_SKILL_COMBO,gObj[tObjNum].m_Index,1);

  00131	8b 15 00 00 00
	00		 mov	 edx, DWORD PTR ?gObj@@3PAUOBJECTSTRUCT@@A ; gObj
  00137	8b 04 16	 mov	 eax, DWORD PTR [esi+edx]
  0013a	6a 01		 push	 1
  0013c	50		 push	 eax
  0013d	6a 3b		 push	 59			; 0000003bH
  0013f	53		 push	 ebx
  00140	e8 00 00 00 00	 call	 ?GCMagicAttackNumberSend@@YAXPAUOBJECTSTRUCT@@GHE@Z ; GCMagicAttackNumberSend
  00145	83 c4 10	 add	 esp, 16			; 00000010H
$LN34@MLS_Wheel:
  00148	8b 15 00 00 00
	00		 mov	 edx, DWORD PTR ?gObj@@3PAUOBJECTSTRUCT@@A ; gObj
$LN35@MLS_Wheel:

; 1773 : 							}
; 1774 : 						}
; 1775 : 					}
; 1776 : 				}
; 1777 : 			}
; 1778 : 		}
; 1779 : 
; 1780 : 		count++;

  0014e	8b 45 08	 mov	 eax, DWORD PTR tv384[ebp]
  00151	83 c0 0c	 add	 eax, 12			; 0000000cH

; 1781 : 		if(count > MAX_VIEWPORT -1)

  00154	ff 4d fc	 dec	 DWORD PTR tv420[ebp]
  00157	89 45 08	 mov	 DWORD PTR tv384[ebp], eax
  0015a	0f 85 d0 fe ff
	ff		 jne	 $LL23@MLS_Wheel
  00160	5f		 pop	 edi
  00161	5e		 pop	 esi
  00162	5b		 pop	 ebx

; 1782 : 		{
; 1783 : 			break;
; 1784 : 		}
; 1785 : 	}
; 1786 : }

  00163	8b e5		 mov	 esp, ebp
  00165	5d		 pop	 ebp
  00166	c2 10 00	 ret	 16			; 00000010H
?MLS_Wheel@CMasterLevelSkillTreeSystem@@QAEXPAUOBJECTSTRUCT@@PAVCMagicInf@@HH@Z ENDP ; CMasterLevelSkillTreeSystem::MLS_Wheel
_TEXT	ENDS
PUBLIC	?MLS_SkillSword4@CMasterLevelSkillTreeSystem@@QAEXPAUOBJECTSTRUCT@@PAVCMagicInf@@HH@Z ; CMasterLevelSkillTreeSystem::MLS_SkillSword4
EXTRN	?gObjIsConnected@@YAHH@Z:PROC			; gObjIsConnected
; Function compile flags: /Ogtp
;	COMDAT ?MLS_SkillSword4@CMasterLevelSkillTreeSystem@@QAEXPAUOBJECTSTRUCT@@PAVCMagicInf@@HH@Z
_TEXT	SEGMENT
_lpObj$ = 8						; size = 4
_lpMagic$ = 12						; size = 4
_aTargetIndex$ = 16					; size = 4
_isCombo$ = 20						; size = 4
?MLS_SkillSword4@CMasterLevelSkillTreeSystem@@QAEXPAUOBJECTSTRUCT@@PAVCMagicInf@@HH@Z PROC ; CMasterLevelSkillTreeSystem::MLS_SkillSword4, COMDAT
; _this$ = ecx

; 1789 : {

  00000	55		 push	 ebp
  00001	8b ec		 mov	 ebp, esp
  00003	56		 push	 esi

; 1790 : 	LPOBJ lpTargetObj = &gObj[aTargetIndex];
; 1791 : 
; 1792 : 	if( !gObjIsConnected(lpObj->m_Index) )

  00004	8b 75 08	 mov	 esi, DWORD PTR _lpObj$[ebp]
  00007	8b 06		 mov	 eax, DWORD PTR [esi]
  00009	57		 push	 edi
  0000a	8b 7d 10	 mov	 edi, DWORD PTR _aTargetIndex$[ebp]
  0000d	69 ff 50 2b 00
	00		 imul	 edi, 11088		; 00002b50H
  00013	03 3d 00 00 00
	00		 add	 edi, DWORD PTR ?gObj@@3PAUOBJECTSTRUCT@@A ; gObj
  00019	50		 push	 eax
  0001a	e8 00 00 00 00	 call	 ?gObjIsConnected@@YAHH@Z ; gObjIsConnected
  0001f	83 c4 04	 add	 esp, 4
  00022	85 c0		 test	 eax, eax
  00024	74 54		 je	 SHORT $LN1@MLS_SkillS

; 1793 : 		return;
; 1794 : 
; 1795 : 	if( !gObjIsConnected(lpTargetObj->m_Index) )

  00026	8b 0f		 mov	 ecx, DWORD PTR [edi]
  00028	51		 push	 ecx
  00029	e8 00 00 00 00	 call	 ?gObjIsConnected@@YAHH@Z ; gObjIsConnected
  0002e	83 c4 04	 add	 esp, 4
  00031	85 c0		 test	 eax, eax
  00033	74 45		 je	 SHORT $LN1@MLS_SkillS

; 1796 : 		return;
; 1797 : 
; 1798 : 	if( lpObj->Type != OBJ_USER )

  00035	b8 01 00 00 00	 mov	 eax, 1
  0003a	66 39 46 68	 cmp	 WORD PTR [esi+104], ax
  0003e	75 3a		 jne	 SHORT $LN1@MLS_SkillS

; 1799 : 		return;
; 1800 : 
; 1801 : 	if( lpObj->Class != CLASS_KNIGHT )

  00040	66 39 86 b8 00
	00 00		 cmp	 WORD PTR [esi+184], ax
  00047	75 31		 jne	 SHORT $LN1@MLS_SkillS

; 1802 : 		return;
; 1803 : 
; 1804 : 	gObjAttack(lpObj,lpTargetObj,lpMagic,0,1,0,isCombo,0,0);

  00049	8b 55 0c	 mov	 edx, DWORD PTR _lpMagic$[ebp]
  0004c	53		 push	 ebx
  0004d	8b 5d 14	 mov	 ebx, DWORD PTR _isCombo$[ebp]
  00050	6a 00		 push	 0
  00052	6a 00		 push	 0
  00054	53		 push	 ebx
  00055	6a 00		 push	 0
  00057	50		 push	 eax
  00058	6a 00		 push	 0
  0005a	52		 push	 edx
  0005b	57		 push	 edi
  0005c	56		 push	 esi
  0005d	e8 00 00 00 00	 call	 ?gObjAttack@@YAHPAUOBJECTSTRUCT@@0PAVCMagicInf@@HEHHEE@Z ; gObjAttack
  00062	83 c4 24	 add	 esp, 36			; 00000024H

; 1805 : 
; 1806 : 	if(isCombo != 0)

  00065	85 db		 test	 ebx, ebx
  00067	5b		 pop	 ebx
  00068	74 10		 je	 SHORT $LN1@MLS_SkillS

; 1807 : 	{
; 1808 : 		GCMagicAttackNumberSend(lpObj,AT_SKILL_COMBO,lpObj->m_Index,1);

  0006a	8b 06		 mov	 eax, DWORD PTR [esi]
  0006c	6a 01		 push	 1
  0006e	50		 push	 eax
  0006f	6a 3b		 push	 59			; 0000003bH
  00071	56		 push	 esi
  00072	e8 00 00 00 00	 call	 ?GCMagicAttackNumberSend@@YAXPAUOBJECTSTRUCT@@GHE@Z ; GCMagicAttackNumberSend
  00077	83 c4 10	 add	 esp, 16			; 00000010H
$LN1@MLS_SkillS:
  0007a	5f		 pop	 edi
  0007b	5e		 pop	 esi

; 1809 : 	}
; 1810 : }

  0007c	5d		 pop	 ebp
  0007d	c2 10 00	 ret	 16			; 00000010H
?MLS_SkillSword4@CMasterLevelSkillTreeSystem@@QAEXPAUOBJECTSTRUCT@@PAVCMagicInf@@HH@Z ENDP ; CMasterLevelSkillTreeSystem::MLS_SkillSword4
_TEXT	ENDS
PUBLIC	?MLS_SkillSword4_Magumsa@CMasterLevelSkillTreeSystem@@QAEXPAUOBJECTSTRUCT@@PAVCMagicInf@@HH@Z ; CMasterLevelSkillTreeSystem::MLS_SkillSword4_Magumsa
; Function compile flags: /Ogtp
;	COMDAT ?MLS_SkillSword4_Magumsa@CMasterLevelSkillTreeSystem@@QAEXPAUOBJECTSTRUCT@@PAVCMagicInf@@HH@Z
_TEXT	SEGMENT
_lpObj$ = 8						; size = 4
_lpMagic$ = 12						; size = 4
_aTargetIndex$ = 16					; size = 4
_isCombo$ = 20						; size = 4
?MLS_SkillSword4_Magumsa@CMasterLevelSkillTreeSystem@@QAEXPAUOBJECTSTRUCT@@PAVCMagicInf@@HH@Z PROC ; CMasterLevelSkillTreeSystem::MLS_SkillSword4_Magumsa, COMDAT
; _this$ = ecx

; 1813 : {

  00000	55		 push	 ebp
  00001	8b ec		 mov	 ebp, esp
  00003	56		 push	 esi

; 1814 : 	LPOBJ lpTargetObj = &gObj[aTargetIndex];

  00004	8b 75 10	 mov	 esi, DWORD PTR _aTargetIndex$[ebp]
  00007	69 f6 50 2b 00
	00		 imul	 esi, 11088		; 00002b50H
  0000d	03 35 00 00 00
	00		 add	 esi, DWORD PTR ?gObj@@3PAUOBJECTSTRUCT@@A ; gObj
  00013	57		 push	 edi

; 1815 : 
; 1816 : 	if( !gObjIsConnected(lpObj->m_Index) )

  00014	8b 7d 08	 mov	 edi, DWORD PTR _lpObj$[ebp]
  00017	8b 07		 mov	 eax, DWORD PTR [edi]
  00019	50		 push	 eax
  0001a	e8 00 00 00 00	 call	 ?gObjIsConnected@@YAHH@Z ; gObjIsConnected
  0001f	83 c4 04	 add	 esp, 4
  00022	85 c0		 test	 eax, eax
  00024	74 52		 je	 SHORT $LN1@MLS_SkillS@2

; 1817 : 		return;
; 1818 : 
; 1819 : 	if( !gObjIsConnected(lpTargetObj->m_Index) )

  00026	8b 0e		 mov	 ecx, DWORD PTR [esi]
  00028	51		 push	 ecx
  00029	e8 00 00 00 00	 call	 ?gObjIsConnected@@YAHH@Z ; gObjIsConnected
  0002e	83 c4 04	 add	 esp, 4
  00031	85 c0		 test	 eax, eax
  00033	74 43		 je	 SHORT $LN1@MLS_SkillS@2

; 1820 : 		return;
; 1821 : 
; 1822 : 	if( lpObj->Type != OBJ_USER )

  00035	66 83 7f 68 01	 cmp	 WORD PTR [edi+104], 1
  0003a	75 3c		 jne	 SHORT $LN1@MLS_SkillS@2

; 1823 : 		return;
; 1824 : 
; 1825 : 	if( lpObj->Class != CLASS_MAGUMSA )

  0003c	66 83 bf b8 00
	00 00 03	 cmp	 WORD PTR [edi+184], 3
  00044	75 32		 jne	 SHORT $LN1@MLS_SkillS@2

; 1826 : 		return;
; 1827 : 
; 1828 : 	gObjAttack(lpObj,lpTargetObj,lpMagic,0,1,0,isCombo,0,0);

  00046	8b 55 0c	 mov	 edx, DWORD PTR _lpMagic$[ebp]
  00049	53		 push	 ebx
  0004a	8b 5d 14	 mov	 ebx, DWORD PTR _isCombo$[ebp]
  0004d	6a 00		 push	 0
  0004f	6a 00		 push	 0
  00051	53		 push	 ebx
  00052	6a 00		 push	 0
  00054	6a 01		 push	 1
  00056	6a 00		 push	 0
  00058	52		 push	 edx
  00059	56		 push	 esi
  0005a	57		 push	 edi
  0005b	e8 00 00 00 00	 call	 ?gObjAttack@@YAHPAUOBJECTSTRUCT@@0PAVCMagicInf@@HEHHEE@Z ; gObjAttack
  00060	83 c4 24	 add	 esp, 36			; 00000024H

; 1829 : 
; 1830 : 	if(isCombo != 0)

  00063	85 db		 test	 ebx, ebx
  00065	5b		 pop	 ebx
  00066	74 10		 je	 SHORT $LN1@MLS_SkillS@2

; 1831 : 	{
; 1832 : 		GCMagicAttackNumberSend(lpObj,AT_SKILL_COMBO,lpObj->m_Index,1);

  00068	8b 07		 mov	 eax, DWORD PTR [edi]
  0006a	6a 01		 push	 1
  0006c	50		 push	 eax
  0006d	6a 3b		 push	 59			; 0000003bH
  0006f	57		 push	 edi
  00070	e8 00 00 00 00	 call	 ?GCMagicAttackNumberSend@@YAXPAUOBJECTSTRUCT@@GHE@Z ; GCMagicAttackNumberSend
  00075	83 c4 10	 add	 esp, 16			; 00000010H
$LN1@MLS_SkillS@2:
  00078	5f		 pop	 edi
  00079	5e		 pop	 esi

; 1833 : 	}
; 1834 : }

  0007a	5d		 pop	 ebp
  0007b	c2 10 00	 ret	 16			; 00000010H
?MLS_SkillSword4_Magumsa@CMasterLevelSkillTreeSystem@@QAEXPAUOBJECTSTRUCT@@PAVCMagicInf@@HH@Z ENDP ; CMasterLevelSkillTreeSystem::MLS_SkillSword4_Magumsa
_TEXT	ENDS
PUBLIC	?MLS_SkillSword5@CMasterLevelSkillTreeSystem@@QAEXPAUOBJECTSTRUCT@@PAVCMagicInf@@HH@Z ; CMasterLevelSkillTreeSystem::MLS_SkillSword5
; Function compile flags: /Ogtp
;	COMDAT ?MLS_SkillSword5@CMasterLevelSkillTreeSystem@@QAEXPAUOBJECTSTRUCT@@PAVCMagicInf@@HH@Z
_TEXT	SEGMENT
_lpObj$ = 8						; size = 4
_lpMagic$ = 12						; size = 4
_aTargetIndex$ = 16					; size = 4
_isCombo$ = 20						; size = 4
?MLS_SkillSword5@CMasterLevelSkillTreeSystem@@QAEXPAUOBJECTSTRUCT@@PAVCMagicInf@@HH@Z PROC ; CMasterLevelSkillTreeSystem::MLS_SkillSword5, COMDAT
; _this$ = ecx

; 1837 : {

  00000	55		 push	 ebp
  00001	8b ec		 mov	 ebp, esp
  00003	56		 push	 esi

; 1838 : 	LPOBJ lpTargetObj = &gObj[aTargetIndex];
; 1839 : 
; 1840 : 	if( !gObjIsConnected(lpObj->m_Index) )

  00004	8b 75 08	 mov	 esi, DWORD PTR _lpObj$[ebp]
  00007	8b 06		 mov	 eax, DWORD PTR [esi]
  00009	57		 push	 edi
  0000a	8b 7d 10	 mov	 edi, DWORD PTR _aTargetIndex$[ebp]
  0000d	69 ff 50 2b 00
	00		 imul	 edi, 11088		; 00002b50H
  00013	03 3d 00 00 00
	00		 add	 edi, DWORD PTR ?gObj@@3PAUOBJECTSTRUCT@@A ; gObj
  00019	50		 push	 eax
  0001a	e8 00 00 00 00	 call	 ?gObjIsConnected@@YAHH@Z ; gObjIsConnected
  0001f	83 c4 04	 add	 esp, 4
  00022	85 c0		 test	 eax, eax
  00024	74 54		 je	 SHORT $LN1@MLS_SkillS@3

; 1841 : 		return;
; 1842 : 
; 1843 : 	if( !gObjIsConnected(lpTargetObj->m_Index) )

  00026	8b 0f		 mov	 ecx, DWORD PTR [edi]
  00028	51		 push	 ecx
  00029	e8 00 00 00 00	 call	 ?gObjIsConnected@@YAHH@Z ; gObjIsConnected
  0002e	83 c4 04	 add	 esp, 4
  00031	85 c0		 test	 eax, eax
  00033	74 45		 je	 SHORT $LN1@MLS_SkillS@3

; 1844 : 		return;
; 1845 : 
; 1846 : 	if( lpObj->Type != OBJ_USER )

  00035	b8 01 00 00 00	 mov	 eax, 1
  0003a	66 39 46 68	 cmp	 WORD PTR [esi+104], ax
  0003e	75 3a		 jne	 SHORT $LN1@MLS_SkillS@3

; 1847 : 		return;
; 1848 : 
; 1849 : 	if( lpObj->Class != CLASS_KNIGHT )

  00040	66 39 86 b8 00
	00 00		 cmp	 WORD PTR [esi+184], ax
  00047	75 31		 jne	 SHORT $LN1@MLS_SkillS@3

; 1850 : 		return;
; 1851 : 
; 1852 : 	gObjAttack(lpObj,lpTargetObj,lpMagic,0,1,0,isCombo,0,0);

  00049	8b 55 0c	 mov	 edx, DWORD PTR _lpMagic$[ebp]
  0004c	53		 push	 ebx
  0004d	8b 5d 14	 mov	 ebx, DWORD PTR _isCombo$[ebp]
  00050	6a 00		 push	 0
  00052	6a 00		 push	 0
  00054	53		 push	 ebx
  00055	6a 00		 push	 0
  00057	50		 push	 eax
  00058	6a 00		 push	 0
  0005a	52		 push	 edx
  0005b	57		 push	 edi
  0005c	56		 push	 esi
  0005d	e8 00 00 00 00	 call	 ?gObjAttack@@YAHPAUOBJECTSTRUCT@@0PAVCMagicInf@@HEHHEE@Z ; gObjAttack
  00062	83 c4 24	 add	 esp, 36			; 00000024H

; 1853 : 
; 1854 : 	if(isCombo != 0)

  00065	85 db		 test	 ebx, ebx
  00067	5b		 pop	 ebx
  00068	74 10		 je	 SHORT $LN1@MLS_SkillS@3

; 1855 : 	{
; 1856 : 		GCMagicAttackNumberSend(lpObj,AT_SKILL_COMBO,lpObj->m_Index,1);

  0006a	8b 06		 mov	 eax, DWORD PTR [esi]
  0006c	6a 01		 push	 1
  0006e	50		 push	 eax
  0006f	6a 3b		 push	 59			; 0000003bH
  00071	56		 push	 esi
  00072	e8 00 00 00 00	 call	 ?GCMagicAttackNumberSend@@YAXPAUOBJECTSTRUCT@@GHE@Z ; GCMagicAttackNumberSend
  00077	83 c4 10	 add	 esp, 16			; 00000010H
$LN1@MLS_SkillS@3:
  0007a	5f		 pop	 edi
  0007b	5e		 pop	 esi

; 1857 : 	}
; 1858 : }

  0007c	5d		 pop	 ebp
  0007d	c2 10 00	 ret	 16			; 00000010H
?MLS_SkillSword5@CMasterLevelSkillTreeSystem@@QAEXPAUOBJECTSTRUCT@@PAVCMagicInf@@HH@Z ENDP ; CMasterLevelSkillTreeSystem::MLS_SkillSword5
_TEXT	ENDS
PUBLIC	?MLS_SkillSword1@CMasterLevelSkillTreeSystem@@QAEXPAUOBJECTSTRUCT@@PAVCMagicInf@@HH@Z ; CMasterLevelSkillTreeSystem::MLS_SkillSword1
; Function compile flags: /Ogtp
;	COMDAT ?MLS_SkillSword1@CMasterLevelSkillTreeSystem@@QAEXPAUOBJECTSTRUCT@@PAVCMagicInf@@HH@Z
_TEXT	SEGMENT
_lpObj$ = 8						; size = 4
_lpMagic$ = 12						; size = 4
_aTargetIndex$ = 16					; size = 4
_isCombo$ = 20						; size = 4
?MLS_SkillSword1@CMasterLevelSkillTreeSystem@@QAEXPAUOBJECTSTRUCT@@PAVCMagicInf@@HH@Z PROC ; CMasterLevelSkillTreeSystem::MLS_SkillSword1, COMDAT
; _this$ = ecx

; 1861 : {

  00000	55		 push	 ebp
  00001	8b ec		 mov	 ebp, esp
  00003	56		 push	 esi

; 1862 : 	LPOBJ lpTargetObj = &gObj[aTargetIndex];
; 1863 : 
; 1864 : 	if( !gObjIsConnected(lpObj->m_Index) )

  00004	8b 75 08	 mov	 esi, DWORD PTR _lpObj$[ebp]
  00007	8b 06		 mov	 eax, DWORD PTR [esi]
  00009	57		 push	 edi
  0000a	8b 7d 10	 mov	 edi, DWORD PTR _aTargetIndex$[ebp]
  0000d	69 ff 50 2b 00
	00		 imul	 edi, 11088		; 00002b50H
  00013	03 3d 00 00 00
	00		 add	 edi, DWORD PTR ?gObj@@3PAUOBJECTSTRUCT@@A ; gObj
  00019	50		 push	 eax
  0001a	e8 00 00 00 00	 call	 ?gObjIsConnected@@YAHH@Z ; gObjIsConnected
  0001f	83 c4 04	 add	 esp, 4
  00022	85 c0		 test	 eax, eax
  00024	74 54		 je	 SHORT $LN1@MLS_SkillS@4

; 1865 : 		return;
; 1866 : 
; 1867 : 	if( !gObjIsConnected(lpTargetObj->m_Index) )

  00026	8b 0f		 mov	 ecx, DWORD PTR [edi]
  00028	51		 push	 ecx
  00029	e8 00 00 00 00	 call	 ?gObjIsConnected@@YAHH@Z ; gObjIsConnected
  0002e	83 c4 04	 add	 esp, 4
  00031	85 c0		 test	 eax, eax
  00033	74 45		 je	 SHORT $LN1@MLS_SkillS@4

; 1868 : 		return;
; 1869 : 
; 1870 : 	if( lpObj->Type != OBJ_USER )

  00035	b8 01 00 00 00	 mov	 eax, 1
  0003a	66 39 46 68	 cmp	 WORD PTR [esi+104], ax
  0003e	75 3a		 jne	 SHORT $LN1@MLS_SkillS@4

; 1871 : 		return;
; 1872 : 
; 1873 : 	if( lpObj->Class != CLASS_KNIGHT )

  00040	66 39 86 b8 00
	00 00		 cmp	 WORD PTR [esi+184], ax
  00047	75 31		 jne	 SHORT $LN1@MLS_SkillS@4

; 1874 : 		return;
; 1875 : 
; 1876 : 	gObjAttack(lpObj,lpTargetObj,lpMagic,0,1,0,isCombo,0,0);

  00049	8b 55 0c	 mov	 edx, DWORD PTR _lpMagic$[ebp]
  0004c	53		 push	 ebx
  0004d	8b 5d 14	 mov	 ebx, DWORD PTR _isCombo$[ebp]
  00050	6a 00		 push	 0
  00052	6a 00		 push	 0
  00054	53		 push	 ebx
  00055	6a 00		 push	 0
  00057	50		 push	 eax
  00058	6a 00		 push	 0
  0005a	52		 push	 edx
  0005b	57		 push	 edi
  0005c	56		 push	 esi
  0005d	e8 00 00 00 00	 call	 ?gObjAttack@@YAHPAUOBJECTSTRUCT@@0PAVCMagicInf@@HEHHEE@Z ; gObjAttack
  00062	83 c4 24	 add	 esp, 36			; 00000024H

; 1877 : 
; 1878 : 	if(isCombo != 0)

  00065	85 db		 test	 ebx, ebx
  00067	5b		 pop	 ebx
  00068	74 10		 je	 SHORT $LN1@MLS_SkillS@4

; 1879 : 	{
; 1880 : 		GCMagicAttackNumberSend(lpObj,AT_SKILL_COMBO,lpObj->m_Index,1);

  0006a	8b 06		 mov	 eax, DWORD PTR [esi]
  0006c	6a 01		 push	 1
  0006e	50		 push	 eax
  0006f	6a 3b		 push	 59			; 0000003bH
  00071	56		 push	 esi
  00072	e8 00 00 00 00	 call	 ?GCMagicAttackNumberSend@@YAXPAUOBJECTSTRUCT@@GHE@Z ; GCMagicAttackNumberSend
  00077	83 c4 10	 add	 esp, 16			; 00000010H
$LN1@MLS_SkillS@4:
  0007a	5f		 pop	 edi
  0007b	5e		 pop	 esi

; 1881 : 	}
; 1882 : }

  0007c	5d		 pop	 ebp
  0007d	c2 10 00	 ret	 16			; 00000010H
?MLS_SkillSword1@CMasterLevelSkillTreeSystem@@QAEXPAUOBJECTSTRUCT@@PAVCMagicInf@@HH@Z ENDP ; CMasterLevelSkillTreeSystem::MLS_SkillSword1
_TEXT	ENDS
PUBLIC	?MLS_SkillSword2@CMasterLevelSkillTreeSystem@@QAEXPAUOBJECTSTRUCT@@PAVCMagicInf@@HH@Z ; CMasterLevelSkillTreeSystem::MLS_SkillSword2
; Function compile flags: /Ogtp
;	COMDAT ?MLS_SkillSword2@CMasterLevelSkillTreeSystem@@QAEXPAUOBJECTSTRUCT@@PAVCMagicInf@@HH@Z
_TEXT	SEGMENT
_lpObj$ = 8						; size = 4
_lpMagic$ = 12						; size = 4
_aTargetIndex$ = 16					; size = 4
_isCombo$ = 20						; size = 4
?MLS_SkillSword2@CMasterLevelSkillTreeSystem@@QAEXPAUOBJECTSTRUCT@@PAVCMagicInf@@HH@Z PROC ; CMasterLevelSkillTreeSystem::MLS_SkillSword2, COMDAT
; _this$ = ecx

; 1885 : {

  00000	55		 push	 ebp
  00001	8b ec		 mov	 ebp, esp
  00003	56		 push	 esi

; 1886 : 	LPOBJ lpTargetObj = &gObj[aTargetIndex];
; 1887 : 
; 1888 : 	if( !gObjIsConnected(lpObj->m_Index) )

  00004	8b 75 08	 mov	 esi, DWORD PTR _lpObj$[ebp]
  00007	8b 06		 mov	 eax, DWORD PTR [esi]
  00009	57		 push	 edi
  0000a	8b 7d 10	 mov	 edi, DWORD PTR _aTargetIndex$[ebp]
  0000d	69 ff 50 2b 00
	00		 imul	 edi, 11088		; 00002b50H
  00013	03 3d 00 00 00
	00		 add	 edi, DWORD PTR ?gObj@@3PAUOBJECTSTRUCT@@A ; gObj
  00019	50		 push	 eax
  0001a	e8 00 00 00 00	 call	 ?gObjIsConnected@@YAHH@Z ; gObjIsConnected
  0001f	83 c4 04	 add	 esp, 4
  00022	85 c0		 test	 eax, eax
  00024	74 54		 je	 SHORT $LN1@MLS_SkillS@5

; 1889 : 		return;
; 1890 : 
; 1891 : 	if( !gObjIsConnected(lpTargetObj->m_Index) )

  00026	8b 0f		 mov	 ecx, DWORD PTR [edi]
  00028	51		 push	 ecx
  00029	e8 00 00 00 00	 call	 ?gObjIsConnected@@YAHH@Z ; gObjIsConnected
  0002e	83 c4 04	 add	 esp, 4
  00031	85 c0		 test	 eax, eax
  00033	74 45		 je	 SHORT $LN1@MLS_SkillS@5

; 1892 : 		return;
; 1893 : 
; 1894 : 	if( lpObj->Type != OBJ_USER )

  00035	b8 01 00 00 00	 mov	 eax, 1
  0003a	66 39 46 68	 cmp	 WORD PTR [esi+104], ax
  0003e	75 3a		 jne	 SHORT $LN1@MLS_SkillS@5

; 1895 : 		return;
; 1896 : 
; 1897 : 	if( lpObj->Class != CLASS_KNIGHT )

  00040	66 39 86 b8 00
	00 00		 cmp	 WORD PTR [esi+184], ax
  00047	75 31		 jne	 SHORT $LN1@MLS_SkillS@5

; 1898 : 		return;
; 1899 : 
; 1900 : 	gObjAttack(lpObj,lpTargetObj,lpMagic,0,1,0,isCombo,0,0);

  00049	8b 55 0c	 mov	 edx, DWORD PTR _lpMagic$[ebp]
  0004c	53		 push	 ebx
  0004d	8b 5d 14	 mov	 ebx, DWORD PTR _isCombo$[ebp]
  00050	6a 00		 push	 0
  00052	6a 00		 push	 0
  00054	53		 push	 ebx
  00055	6a 00		 push	 0
  00057	50		 push	 eax
  00058	6a 00		 push	 0
  0005a	52		 push	 edx
  0005b	57		 push	 edi
  0005c	56		 push	 esi
  0005d	e8 00 00 00 00	 call	 ?gObjAttack@@YAHPAUOBJECTSTRUCT@@0PAVCMagicInf@@HEHHEE@Z ; gObjAttack
  00062	83 c4 24	 add	 esp, 36			; 00000024H

; 1901 : 
; 1902 : 	if(isCombo != 0)

  00065	85 db		 test	 ebx, ebx
  00067	5b		 pop	 ebx
  00068	74 10		 je	 SHORT $LN1@MLS_SkillS@5

; 1903 : 	{
; 1904 : 		GCMagicAttackNumberSend(lpObj,AT_SKILL_COMBO,lpObj->m_Index,1);

  0006a	8b 06		 mov	 eax, DWORD PTR [esi]
  0006c	6a 01		 push	 1
  0006e	50		 push	 eax
  0006f	6a 3b		 push	 59			; 0000003bH
  00071	56		 push	 esi
  00072	e8 00 00 00 00	 call	 ?GCMagicAttackNumberSend@@YAXPAUOBJECTSTRUCT@@GHE@Z ; GCMagicAttackNumberSend
  00077	83 c4 10	 add	 esp, 16			; 00000010H
$LN1@MLS_SkillS@5:
  0007a	5f		 pop	 edi
  0007b	5e		 pop	 esi

; 1905 : 	}
; 1906 : }

  0007c	5d		 pop	 ebp
  0007d	c2 10 00	 ret	 16			; 00000010H
?MLS_SkillSword2@CMasterLevelSkillTreeSystem@@QAEXPAUOBJECTSTRUCT@@PAVCMagicInf@@HH@Z ENDP ; CMasterLevelSkillTreeSystem::MLS_SkillSword2
_TEXT	ENDS
PUBLIC	?MLS_SkillMasteryKnightSkillAddLife@CMasterLevelSkillTreeSystem@@QAEXPAUOBJECTSTRUCT@@PAVCMagicInf@@@Z ; CMasterLevelSkillTreeSystem::MLS_SkillMasteryKnightSkillAddLife
; Function compile flags: /Ogtp
;	COMDAT ?MLS_SkillMasteryKnightSkillAddLife@CMasterLevelSkillTreeSystem@@QAEXPAUOBJECTSTRUCT@@PAVCMagicInf@@@Z
_TEXT	SEGMENT
_lpObj$ = 8						; size = 4
_lpMagic$ = 12						; size = 4
?MLS_SkillMasteryKnightSkillAddLife@CMasterLevelSkillTreeSystem@@QAEXPAUOBJECTSTRUCT@@PAVCMagicInf@@@Z PROC ; CMasterLevelSkillTreeSystem::MLS_SkillMasteryKnightSkillAddLife, COMDAT
; _this$ = ecx

; 2269 : 	/*int skillSuccess = TRUE;
; 2270 : 
; 2271 : 	if( lpObj->Type != OBJ_USER &&
; 2272 : 		lpObj->m_RecallMon == -1 )
; 2273 : 		return;
; 2274 : 
; 2275 : 	if( lpObj->Class != CLASS_KNIGHT &&
; 2276 : 		lpObj->Class != CLASS_MAGUMSA )
; 2277 : 		return;
; 2278 : 
; 2279 : 	int number;
; 2280 : 	int partynum = 0;
; 2281 : 	int totallevel = 0;
; 2282 : 	int partycount;
; 2283 : 	int dis;
; 2284 : 	int ApplyPartyIndex[5];
; 2285 : 	int viewplayer = 0;
; 2286 : 	int viewpercent = 0;
; 2287 : 	LPOBJ lpPartyObj;
; 2288 : 
; 2289 : 	memset(ApplyPartyIndex,-1,sizeof(ApplyPartyIndex));
; 2290 : 
; 2291 : 	partynum = lpObj->PartyNumber;
; 2292 : 
; 2293 : 	if( partynum != -1 )
; 2294 : 	{
; 2295 : 		partycount = gParty.m_PartyS[partynum].Count;
; 2296 : 
; 2297 : 		for(int n = 0; n < MAX_USER_IN_PARTY; n++)
; 2298 : 		{
; 2299 : 			number = gParty.m_PartyS[partynum].Number[n];
; 2300 : 
; 2301 : 			if( number >= 0 )
; 2302 : 			{
; 2303 : 				lpPartyObj = &gObj[number];
; 2304 : 
; 2305 : 				if( lpObj->MapNumber == lpPartyObj->MapNumber )
; 2306 : 				{
; 2307 : 					dis = gObjCalDistance(lpObj,&gObj[number]);
; 2308 : 
; 2309 : 					if( dis < 10 )
; 2310 : 					{
; 2311 : 						ApplyPartyIndex[n] = number;
; 2312 : 						viewplayer++;
; 2313 : 					}
; 2314 : 				}
; 2315 : 			}
; 2316 : 		}
; 2317 : 	}
; 2318 : 
; 2319 : 	if( viewplayer > 1 )
; 2320 : 	{
; 2321 : 		if( viewplayer == 2 )
; 2322 : 		{
; 2323 : 			viewpercent = 1;
; 2324 : 		}
; 2325 : 		else if( viewplayer == 3 )
; 2326 : 		{
; 2327 : 			viewpercent = 2;
; 2328 : 		}
; 2329 : 		else if( viewplayer == 4 )
; 2330 : 		{
; 2331 : 			viewpercent = 3;
; 2332 : 		}
; 2333 : 		else
; 2334 : 		{
; 2335 : 			viewpercent = 4;
; 2336 : 		}
; 2337 : 	}
; 2338 : 
; 2339 : 	float iaddLifepower = gc_AddLifeStartVal + (lpObj->Vitality+lpObj->AddVitality)/gc_AddLifeVitDiv + (lpObj->Energy+lpObj->AddEnergy)/gc_AddLifeEneDiv + viewpercent;
; 2340 : 
; 2341 : 	if( iaddLifepower > gc_AddLifeMaxValue)
; 2342 : 		iaddLifepower = gc_AddLifeMaxValue;
; 2343 : 
; 2344 : 	float fSkillValue2 = this->GetBrandOfMasterSkillValue(lpObj,lpMagic->m_Skill,2);
; 2345 : 
; 2346 : 	if( fSkillValue2 > 0.0f )
; 2347 : 	{
; 2348 : 		iaddLifepower += fSkillValue2;
; 2349 : 	}
; 2350 : 
; 2351 : 	float iaddManapower;
; 2352 : 	float fSkillValue1 = this->GetBrandOfMasterSkillValue(lpObj,lpMagic->m_Skill,1);
; 2353 : 
; 2354 : 	if( fSkillValue1 > 0.0f )
; 2355 : 	{
; 2356 : 		iaddManapower = fSkillValue1+viewpercent;
; 2357 : 	}
; 2358 : 
; 2359 : 	float iaddBPpower;
; 2360 : 	float fSkillValue = this->GetMasterSkillValue(MagicDamageC.SkillGet(lpMagic->m_Skill),lpMagic->m_Level);
; 2361 : 
; 2362 : 	if( fSkillValue > 0.0f )
; 2363 : 	{
; 2364 : 		iaddBPpower = fSkillValue+viewpercent;
; 2365 : 	}
; 2366 : 
; 2367 : 	int iLifeTime = gc_AddLifeTimeStartVal + (lpObj->Energy+lpObj->AddEnergy)/gc_AddLifeTimeEneDiv;
; 2368 : 
; 2369 : 	if( iLifeTime > gc_AddLifeTimeMaxVal )
; 2370 : 		iLifeTime = gc_AddLifeTimeMaxVal;
; 2371 : 
; 2372 : 	int iaddlife;
; 2373 : 	int iaddMana;
; 2374 : 	int iaddBP;
; 2375 : 
; 2376 : 	if( partynum == -1 )
; 2377 : 	{
; 2378 : 		iaddlife = lpObj->MaxLife*iaddLifepower/100;
; 2379 : 		iaddMana = lpObj->MaxMana*iaddManapower/100;
; 2380 : 		iaddBP = lpObj->MaxBP*iaddBPpower/100;
; 2381 : 
; 2382 : 		lpObj->m_MPSkillOpt.MpsSwellLifeAddBP = iaddBP;
; 2383 : 
; 2384 : 		gObjApplyBuffEffectDuration(lpObj,BUFF_SWELL_LIFE3,ADD_OPTION_LIFE,iaddlife,ADD_OPTION_MANA,iaddMana,iLifeTime);
; 2385 : 		GCMagicAttackNumberSend(lpObj,lpMagic->m_Skill,lpObj->m_Index,skillSuccess);
; 2386 : 		gObjCalCharacter(lpObj->m_Index);
; 2387 : 	}
; 2388 : 	else
; 2389 : 	{
; 2390 : 		for(int n = 0; n < MAX_USER_IN_PARTY;n++)
; 2391 : 		{
; 2392 : 			if( ApplyPartyIndex[n] != -1 )
; 2393 : 			{
; 2394 : 				lpPartyObj = &gObj[ApplyPartyIndex[n]];
; 2395 : 				iaddlife = lpPartyObj->MaxLife*iaddLifepower/100;
; 2396 : 				iaddMana = lpPartyObj->MaxMana*iaddManapower/100;
; 2397 : 				iaddBP = lpPartyObj->MaxBP*iaddBPpower/100;
; 2398 : 
; 2399 : 				lpPartyObj->m_MPSkillOpt.MpsSwellLifeAddBP = iaddBP;
; 2400 : 
; 2401 : 				gObjApplyBuffEffectDuration(lpPartyObj,BUFF_SWELL_LIFE3,ADD_OPTION_LIFE,iaddlife,ADD_OPTION_MANA,iaddMana,iLifeTime);
; 2402 : 				GCMagicAttackNumberSend(lpObj,lpMagic->m_Skill,lpPartyObj->m_Index,skillSuccess);
; 2403 : 				gObjCalCharacter(lpPartyObj->m_Index);
; 2404 : 			}
; 2405 : 		}
; 2406 : 	}*/
; 2407 : }

  00000	c2 08 00	 ret	 8
?MLS_SkillMasteryKnightSkillAddLife@CMasterLevelSkillTreeSystem@@QAEXPAUOBJECTSTRUCT@@PAVCMagicInf@@@Z ENDP ; CMasterLevelSkillTreeSystem::MLS_SkillMasteryKnightSkillAddLife
_TEXT	ENDS
PUBLIC	?MLS_SkillStrengthenFlame@CMasterLevelSkillTreeSystem@@QAEXPAUOBJECTSTRUCT@@PAVCMagicInf@@H@Z ; CMasterLevelSkillTreeSystem::MLS_SkillStrengthenFlame
; Function compile flags: /Ogtp
;	COMDAT ?MLS_SkillStrengthenFlame@CMasterLevelSkillTreeSystem@@QAEXPAUOBJECTSTRUCT@@PAVCMagicInf@@H@Z
_TEXT	SEGMENT
_lpObj$ = 8						; size = 4
_lpMagic$ = 12						; size = 4
_aTargetIndex$ = 16					; size = 4
?MLS_SkillStrengthenFlame@CMasterLevelSkillTreeSystem@@QAEXPAUOBJECTSTRUCT@@PAVCMagicInf@@H@Z PROC ; CMasterLevelSkillTreeSystem::MLS_SkillStrengthenFlame, COMDAT
; _this$ = ecx

; 2465 : {

  00000	55		 push	 ebp
  00001	8b ec		 mov	 ebp, esp
  00003	57		 push	 edi

; 2466 : 	if( lpObj->Type != OBJ_USER )

  00004	8b 7d 08	 mov	 edi, DWORD PTR _lpObj$[ebp]
  00007	66 83 7f 68 01	 cmp	 WORD PTR [edi+104], 1
  0000c	75 3d		 jne	 SHORT $LN2@MLS_SkillS@6

; 2467 : 		return;
; 2468 : 
; 2469 : 	LPOBJ lpTargetObj = &gObj[aTargetIndex];
; 2470 : 	GCMagicAttackNumberSend(lpObj,lpMagic->m_Skill,lpObj->m_Index,TRUE);

  0000e	8b 07		 mov	 eax, DWORD PTR [edi]
  00010	53		 push	 ebx
  00011	8b 5d 0c	 mov	 ebx, DWORD PTR _lpMagic$[ebp]
  00014	0f b7 4b 08	 movzx	 ecx, WORD PTR [ebx+8]
  00018	56		 push	 esi
  00019	8b 75 10	 mov	 esi, DWORD PTR _aTargetIndex$[ebp]
  0001c	69 f6 50 2b 00
	00		 imul	 esi, 11088		; 00002b50H
  00022	03 35 00 00 00
	00		 add	 esi, DWORD PTR ?gObj@@3PAUOBJECTSTRUCT@@A ; gObj
  00028	6a 01		 push	 1
  0002a	50		 push	 eax
  0002b	51		 push	 ecx
  0002c	57		 push	 edi
  0002d	e8 00 00 00 00	 call	 ?GCMagicAttackNumberSend@@YAXPAUOBJECTSTRUCT@@GHE@Z ; GCMagicAttackNumberSend

; 2471 : 	gObjAttack(lpObj,lpTargetObj,lpMagic,TRUE,0,0,0,0,0);

  00032	6a 00		 push	 0
  00034	6a 00		 push	 0
  00036	6a 00		 push	 0
  00038	6a 00		 push	 0
  0003a	6a 00		 push	 0
  0003c	6a 01		 push	 1
  0003e	53		 push	 ebx
  0003f	56		 push	 esi
  00040	57		 push	 edi
  00041	e8 00 00 00 00	 call	 ?gObjAttack@@YAHPAUOBJECTSTRUCT@@0PAVCMagicInf@@HEHHEE@Z ; gObjAttack
  00046	83 c4 34	 add	 esp, 52			; 00000034H
  00049	5e		 pop	 esi
  0004a	5b		 pop	 ebx
$LN2@MLS_SkillS@6:
  0004b	5f		 pop	 edi

; 2472 : }

  0004c	5d		 pop	 ebp
  0004d	c2 0c 00	 ret	 12			; 0000000cH
?MLS_SkillStrengthenFlame@CMasterLevelSkillTreeSystem@@QAEXPAUOBJECTSTRUCT@@PAVCMagicInf@@H@Z ENDP ; CMasterLevelSkillTreeSystem::MLS_SkillStrengthenFlame
_TEXT	ENDS
PUBLIC	?MLS_SkillStrengthenThunder@CMasterLevelSkillTreeSystem@@QAEXPAUOBJECTSTRUCT@@PAVCMagicInf@@H@Z ; CMasterLevelSkillTreeSystem::MLS_SkillStrengthenThunder
; Function compile flags: /Ogtp
;	COMDAT ?MLS_SkillStrengthenThunder@CMasterLevelSkillTreeSystem@@QAEXPAUOBJECTSTRUCT@@PAVCMagicInf@@H@Z
_TEXT	SEGMENT
_lpObj$ = 8						; size = 4
_lpMagic$ = 12						; size = 4
_aTargetIndex$ = 16					; size = 4
?MLS_SkillStrengthenThunder@CMasterLevelSkillTreeSystem@@QAEXPAUOBJECTSTRUCT@@PAVCMagicInf@@H@Z PROC ; CMasterLevelSkillTreeSystem::MLS_SkillStrengthenThunder, COMDAT
; _this$ = ecx

; 2475 : {

  00000	55		 push	 ebp
  00001	8b ec		 mov	 ebp, esp
  00003	57		 push	 edi

; 2476 : 	if( lpObj->Type != OBJ_USER )

  00004	8b 7d 08	 mov	 edi, DWORD PTR _lpObj$[ebp]
  00007	66 83 7f 68 01	 cmp	 WORD PTR [edi+104], 1
  0000c	75 3d		 jne	 SHORT $LN2@MLS_SkillS@7

; 2477 : 		return;
; 2478 : 
; 2479 : 	LPOBJ lpTargetObj = &gObj[aTargetIndex];
; 2480 : 	GCMagicAttackNumberSend(lpObj,lpMagic->m_Skill,lpObj->m_Index,TRUE);

  0000e	8b 07		 mov	 eax, DWORD PTR [edi]
  00010	53		 push	 ebx
  00011	8b 5d 0c	 mov	 ebx, DWORD PTR _lpMagic$[ebp]
  00014	0f b7 4b 08	 movzx	 ecx, WORD PTR [ebx+8]
  00018	56		 push	 esi
  00019	8b 75 10	 mov	 esi, DWORD PTR _aTargetIndex$[ebp]
  0001c	69 f6 50 2b 00
	00		 imul	 esi, 11088		; 00002b50H
  00022	03 35 00 00 00
	00		 add	 esi, DWORD PTR ?gObj@@3PAUOBJECTSTRUCT@@A ; gObj
  00028	6a 01		 push	 1
  0002a	50		 push	 eax
  0002b	51		 push	 ecx
  0002c	57		 push	 edi
  0002d	e8 00 00 00 00	 call	 ?GCMagicAttackNumberSend@@YAXPAUOBJECTSTRUCT@@GHE@Z ; GCMagicAttackNumberSend

; 2481 : 	gObjAttack(lpObj,lpTargetObj,lpMagic,TRUE,0,0,0,0,0);

  00032	6a 00		 push	 0
  00034	6a 00		 push	 0
  00036	6a 00		 push	 0
  00038	6a 00		 push	 0
  0003a	6a 00		 push	 0
  0003c	6a 01		 push	 1
  0003e	53		 push	 ebx
  0003f	56		 push	 esi
  00040	57		 push	 edi
  00041	e8 00 00 00 00	 call	 ?gObjAttack@@YAHPAUOBJECTSTRUCT@@0PAVCMagicInf@@HEHHEE@Z ; gObjAttack
  00046	83 c4 34	 add	 esp, 52			; 00000034H
  00049	5e		 pop	 esi
  0004a	5b		 pop	 ebx
$LN2@MLS_SkillS@7:
  0004b	5f		 pop	 edi

; 2482 : }

  0004c	5d		 pop	 ebp
  0004d	c2 0c 00	 ret	 12			; 0000000cH
?MLS_SkillStrengthenThunder@CMasterLevelSkillTreeSystem@@QAEXPAUOBJECTSTRUCT@@PAVCMagicInf@@H@Z ENDP ; CMasterLevelSkillTreeSystem::MLS_SkillStrengthenThunder
_TEXT	ENDS
PUBLIC	?MLS_SkillStrengthenPoison@CMasterLevelSkillTreeSystem@@QAEXPAUOBJECTSTRUCT@@PAVCMagicInf@@H@Z ; CMasterLevelSkillTreeSystem::MLS_SkillStrengthenPoison
; Function compile flags: /Ogtp
;	COMDAT ?MLS_SkillStrengthenPoison@CMasterLevelSkillTreeSystem@@QAEXPAUOBJECTSTRUCT@@PAVCMagicInf@@H@Z
_TEXT	SEGMENT
_lpObj$ = 8						; size = 4
_lpMagic$ = 12						; size = 4
_aTargetIndex$ = 16					; size = 4
?MLS_SkillStrengthenPoison@CMasterLevelSkillTreeSystem@@QAEXPAUOBJECTSTRUCT@@PAVCMagicInf@@H@Z PROC ; CMasterLevelSkillTreeSystem::MLS_SkillStrengthenPoison, COMDAT
; _this$ = ecx

; 2485 : {

  00000	55		 push	 ebp
  00001	8b ec		 mov	 ebp, esp
  00003	57		 push	 edi

; 2486 : 	if( lpObj->Type != OBJ_USER )

  00004	8b 7d 08	 mov	 edi, DWORD PTR _lpObj$[ebp]
  00007	66 83 7f 68 01	 cmp	 WORD PTR [edi+104], 1
  0000c	75 3d		 jne	 SHORT $LN2@MLS_SkillS@8

; 2487 : 		return;
; 2488 : 
; 2489 : 	LPOBJ lpTargetObj = &gObj[aTargetIndex];
; 2490 : 	GCMagicAttackNumberSend(lpObj,lpMagic->m_Skill,lpObj->m_Index,TRUE);

  0000e	8b 07		 mov	 eax, DWORD PTR [edi]
  00010	53		 push	 ebx
  00011	8b 5d 0c	 mov	 ebx, DWORD PTR _lpMagic$[ebp]
  00014	0f b7 4b 08	 movzx	 ecx, WORD PTR [ebx+8]
  00018	56		 push	 esi
  00019	8b 75 10	 mov	 esi, DWORD PTR _aTargetIndex$[ebp]
  0001c	69 f6 50 2b 00
	00		 imul	 esi, 11088		; 00002b50H
  00022	03 35 00 00 00
	00		 add	 esi, DWORD PTR ?gObj@@3PAUOBJECTSTRUCT@@A ; gObj
  00028	6a 01		 push	 1
  0002a	50		 push	 eax
  0002b	51		 push	 ecx
  0002c	57		 push	 edi
  0002d	e8 00 00 00 00	 call	 ?GCMagicAttackNumberSend@@YAXPAUOBJECTSTRUCT@@GHE@Z ; GCMagicAttackNumberSend

; 2491 : 	gObjAttack(lpObj,lpTargetObj,lpMagic,TRUE,0,0,0,0,0);

  00032	6a 00		 push	 0
  00034	6a 00		 push	 0
  00036	6a 00		 push	 0
  00038	6a 00		 push	 0
  0003a	6a 00		 push	 0
  0003c	6a 01		 push	 1
  0003e	53		 push	 ebx
  0003f	56		 push	 esi
  00040	57		 push	 edi
  00041	e8 00 00 00 00	 call	 ?gObjAttack@@YAHPAUOBJECTSTRUCT@@0PAVCMagicInf@@HEHHEE@Z ; gObjAttack
  00046	83 c4 34	 add	 esp, 52			; 00000034H
  00049	5e		 pop	 esi
  0004a	5b		 pop	 ebx
$LN2@MLS_SkillS@8:
  0004b	5f		 pop	 edi

; 2492 : }

  0004c	5d		 pop	 ebp
  0004d	c2 0c 00	 ret	 12			; 0000000cH
?MLS_SkillStrengthenPoison@CMasterLevelSkillTreeSystem@@QAEXPAUOBJECTSTRUCT@@PAVCMagicInf@@H@Z ENDP ; CMasterLevelSkillTreeSystem::MLS_SkillStrengthenPoison
_TEXT	ENDS
PUBLIC	?MLS_SkillMeteorit@CMasterLevelSkillTreeSystem@@QAEXPAUOBJECTSTRUCT@@HPAVCMagicInf@@@Z ; CMasterLevelSkillTreeSystem::MLS_SkillMeteorit
; Function compile flags: /Ogtp
;	COMDAT ?MLS_SkillMeteorit@CMasterLevelSkillTreeSystem@@QAEXPAUOBJECTSTRUCT@@HPAVCMagicInf@@@Z
_TEXT	SEGMENT
_lpObj$ = 8						; size = 4
_aTargetIndex$ = 12					; size = 4
_lpMagic$ = 16						; size = 4
?MLS_SkillMeteorit@CMasterLevelSkillTreeSystem@@QAEXPAUOBJECTSTRUCT@@HPAVCMagicInf@@@Z PROC ; CMasterLevelSkillTreeSystem::MLS_SkillMeteorit, COMDAT
; _this$ = ecx

; 2495 : {

  00000	55		 push	 ebp
  00001	8b ec		 mov	 ebp, esp

; 2496 : 	if( lpObj->Type != OBJ_USER )

  00003	8b 45 08	 mov	 eax, DWORD PTR _lpObj$[ebp]
  00006	66 83 78 68 01	 cmp	 WORD PTR [eax+104], 1
  0000b	75 29		 jne	 SHORT $LN2@MLS_SkillM

; 2497 : 		return;
; 2498 : 
; 2499 : 	LPOBJ lpTargetObj = &gObj[aTargetIndex];

  0000d	8b 55 0c	 mov	 edx, DWORD PTR _aTargetIndex$[ebp]

; 2500 : 	gObjAttack(lpObj,lpTargetObj,lpMagic,TRUE,0,0,0,0,0);

  00010	8b 4d 10	 mov	 ecx, DWORD PTR _lpMagic$[ebp]
  00013	69 d2 50 2b 00
	00		 imul	 edx, 11088		; 00002b50H
  00019	03 15 00 00 00
	00		 add	 edx, DWORD PTR ?gObj@@3PAUOBJECTSTRUCT@@A ; gObj
  0001f	6a 00		 push	 0
  00021	6a 00		 push	 0
  00023	6a 00		 push	 0
  00025	6a 00		 push	 0
  00027	6a 00		 push	 0
  00029	6a 01		 push	 1
  0002b	51		 push	 ecx
  0002c	52		 push	 edx
  0002d	50		 push	 eax
  0002e	e8 00 00 00 00	 call	 ?gObjAttack@@YAHPAUOBJECTSTRUCT@@0PAVCMagicInf@@HEHHEE@Z ; gObjAttack
  00033	83 c4 24	 add	 esp, 36			; 00000024H
$LN2@MLS_SkillM:

; 2501 : }

  00036	5d		 pop	 ebp
  00037	c2 0c 00	 ret	 12			; 0000000cH
?MLS_SkillMeteorit@CMasterLevelSkillTreeSystem@@QAEXPAUOBJECTSTRUCT@@HPAVCMagicInf@@@Z ENDP ; CMasterLevelSkillTreeSystem::MLS_SkillMeteorit
_TEXT	ENDS
PUBLIC	?MLS_SkillStrengthenIce@CMasterLevelSkillTreeSystem@@QAEXPAUOBJECTSTRUCT@@PAVCMagicInf@@H@Z ; CMasterLevelSkillTreeSystem::MLS_SkillStrengthenIce
; Function compile flags: /Ogtp
;	COMDAT ?MLS_SkillStrengthenIce@CMasterLevelSkillTreeSystem@@QAEXPAUOBJECTSTRUCT@@PAVCMagicInf@@H@Z
_TEXT	SEGMENT
_lpObj$ = 8						; size = 4
_lpMagic$ = 12						; size = 4
_aTargetIndex$ = 16					; size = 4
?MLS_SkillStrengthenIce@CMasterLevelSkillTreeSystem@@QAEXPAUOBJECTSTRUCT@@PAVCMagicInf@@H@Z PROC ; CMasterLevelSkillTreeSystem::MLS_SkillStrengthenIce, COMDAT
; _this$ = ecx

; 2602 : {

  00000	55		 push	 ebp
  00001	8b ec		 mov	 ebp, esp
  00003	57		 push	 edi

; 2603 : 	if( lpObj->Type != OBJ_USER )

  00004	8b 7d 08	 mov	 edi, DWORD PTR _lpObj$[ebp]
  00007	66 83 7f 68 01	 cmp	 WORD PTR [edi+104], 1
  0000c	75 3d		 jne	 SHORT $LN2@MLS_SkillS@9

; 2604 : 		return;
; 2605 : 
; 2606 : 	LPOBJ lpTargetObj = &gObj[aTargetIndex];
; 2607 : 	GCMagicAttackNumberSend(lpObj,lpMagic->m_Skill,lpObj->m_Index,TRUE);

  0000e	8b 07		 mov	 eax, DWORD PTR [edi]
  00010	53		 push	 ebx
  00011	8b 5d 0c	 mov	 ebx, DWORD PTR _lpMagic$[ebp]
  00014	0f b7 4b 08	 movzx	 ecx, WORD PTR [ebx+8]
  00018	56		 push	 esi
  00019	8b 75 10	 mov	 esi, DWORD PTR _aTargetIndex$[ebp]
  0001c	69 f6 50 2b 00
	00		 imul	 esi, 11088		; 00002b50H
  00022	03 35 00 00 00
	00		 add	 esi, DWORD PTR ?gObj@@3PAUOBJECTSTRUCT@@A ; gObj
  00028	6a 01		 push	 1
  0002a	50		 push	 eax
  0002b	51		 push	 ecx
  0002c	57		 push	 edi
  0002d	e8 00 00 00 00	 call	 ?GCMagicAttackNumberSend@@YAXPAUOBJECTSTRUCT@@GHE@Z ; GCMagicAttackNumberSend

; 2608 : 	gObjAttack(lpObj,lpTargetObj,lpMagic,TRUE,0,0,0,0,0);

  00032	6a 00		 push	 0
  00034	6a 00		 push	 0
  00036	6a 00		 push	 0
  00038	6a 00		 push	 0
  0003a	6a 00		 push	 0
  0003c	6a 01		 push	 1
  0003e	53		 push	 ebx
  0003f	56		 push	 esi
  00040	57		 push	 edi
  00041	e8 00 00 00 00	 call	 ?gObjAttack@@YAHPAUOBJECTSTRUCT@@0PAVCMagicInf@@HEHHEE@Z ; gObjAttack
  00046	83 c4 34	 add	 esp, 52			; 00000034H
  00049	5e		 pop	 esi
  0004a	5b		 pop	 ebx
$LN2@MLS_SkillS@9:
  0004b	5f		 pop	 edi

; 2609 : }

  0004c	5d		 pop	 ebp
  0004d	c2 0c 00	 ret	 12			; 0000000cH
?MLS_SkillStrengthenIce@CMasterLevelSkillTreeSystem@@QAEXPAUOBJECTSTRUCT@@PAVCMagicInf@@H@Z ENDP ; CMasterLevelSkillTreeSystem::MLS_SkillStrengthenIce
_TEXT	ENDS
PUBLIC	?MLS_DarkHorseAttack@CMasterLevelSkillTreeSystem@@QAEHPAUOBJECTSTRUCT@@HPAVCMagicInf@@@Z ; CMasterLevelSkillTreeSystem::MLS_DarkHorseAttack
EXTRN	?gObjAddAttackProcMsgSendDelay@@YAXPAUOBJECTSTRUCT@@HHHHH@Z:PROC ; gObjAddAttackProcMsgSendDelay
; Function compile flags: /Ogtp
;	COMDAT ?MLS_DarkHorseAttack@CMasterLevelSkillTreeSystem@@QAEHPAUOBJECTSTRUCT@@HPAVCMagicInf@@@Z
_TEXT	SEGMENT
_DuelIndex$ = -8					; size = 4
tv352 = -4						; size = 4
tv425 = 8						; size = 4
_lpObj$ = 8						; size = 4
_aTargetIndex$ = 12					; size = 4
_lpMagic$ = 16						; size = 4
?MLS_DarkHorseAttack@CMasterLevelSkillTreeSystem@@QAEHPAUOBJECTSTRUCT@@HPAVCMagicInf@@@Z PROC ; CMasterLevelSkillTreeSystem::MLS_DarkHorseAttack, COMDAT
; _this$ = ecx

; 3206 : {

  00000	55		 push	 ebp
  00001	8b ec		 mov	 ebp, esp
  00003	83 ec 08	 sub	 esp, 8

; 3207 : 	int tObjNum;
; 3208 : 	int count = 0;
; 3209 : 	int HitCount = 0;
; 3210 : 	int bAttack;
; 3211 : 	int DuelIndex = lpObj->m_iDuelUser;
; 3212 : 	int EnableAttack;
; 3213 : 
; 3214 : 	GCMagicAttackNumberSend(lpObj,lpMagic->m_Skill,lpObj->m_Index,1);

  00006	8b 55 10	 mov	 edx, DWORD PTR _lpMagic$[ebp]
  00009	53		 push	 ebx
  0000a	8b 5d 08	 mov	 ebx, DWORD PTR _lpObj$[ebp]
  0000d	8b 83 b8 0e 00
	00		 mov	 eax, DWORD PTR [ebx+3768]
  00013	8b 0b		 mov	 ecx, DWORD PTR [ebx]
  00015	56		 push	 esi
  00016	57		 push	 edi
  00017	89 45 f8	 mov	 DWORD PTR _DuelIndex$[ebp], eax
  0001a	0f b7 42 08	 movzx	 eax, WORD PTR [edx+8]
  0001e	6a 01		 push	 1
  00020	51		 push	 ecx
  00021	50		 push	 eax
  00022	53		 push	 ebx
  00023	e8 00 00 00 00	 call	 ?GCMagicAttackNumberSend@@YAXPAUOBJECTSTRUCT@@GHE@Z ; GCMagicAttackNumberSend
  00028	a1 00 00 00 00	 mov	 eax, DWORD PTR ?gObj@@3PAUOBJECTSTRUCT@@A ; gObj
  0002d	8d 8b b0 08 00
	00		 lea	 ecx, DWORD PTR [ebx+2224]
  00033	83 c4 10	 add	 esp, 16			; 00000010H
  00036	89 4d 08	 mov	 DWORD PTR tv425[ebp], ecx
  00039	c7 45 fc 4b 00
	00 00		 mov	 DWORD PTR tv352[ebp], 75 ; 0000004bH
$LL24@MLS_DarkHo:

; 3215 : 
; 3216 : 	while ( true )
; 3217 : 	{
; 3218 : 		if(lpObj->VpPlayer2[count].state != 0)

  00040	80 79 fc 00	 cmp	 BYTE PTR [ecx-4], 0
  00044	0f 84 ea 00 00
	00		 je	 $LN35@MLS_DarkHo

; 3219 : 		{
; 3220 : 			tObjNum = lpObj->VpPlayer2[count].number;

  0004a	0f bf 79 fe	 movsx	 edi, WORD PTR [ecx-2]

; 3221 : 
; 3222 : 			if(tObjNum >= 0)

  0004e	85 ff		 test	 edi, edi
  00050	0f 88 de 00 00
	00		 js	 $LN35@MLS_DarkHo

; 3223 : 			{
; 3224 : 				EnableAttack = 0;
; 3225 : 				if( (gObj[tObjNum].Class < 100 || gObj[tObjNum].Class > 110) && gObj[tObjNum].Class != 523 )

  00056	8b f7		 mov	 esi, edi
  00058	69 f6 50 2b 00
	00		 imul	 esi, 11088		; 00002b50H
  0005e	0f b7 8c 06 b8
	00 00 00	 movzx	 ecx, WORD PTR [esi+eax+184]
  00066	83 f9 64	 cmp	 ecx, 100		; 00000064H
  00069	72 09		 jb	 SHORT $LN19@MLS_DarkHo
  0006b	83 f9 6e	 cmp	 ecx, 110		; 0000006eH
  0006e	0f 86 c0 00 00
	00		 jbe	 $LN35@MLS_DarkHo
$LN19@MLS_DarkHo:
  00074	ba 0b 02 00 00	 mov	 edx, 523		; 0000020bH
  00079	66 3b ca	 cmp	 cx, dx
  0007c	0f 84 b2 00 00
	00		 je	 $LN35@MLS_DarkHo

; 3226 : 				{
; 3227 : 	
; 3228 : 					if(lpObj->VpPlayer2[count].type == OBJ_MONSTER && gObj[tObjNum].m_RecallMon < 0)

  00082	8b 4d 08	 mov	 ecx, DWORD PTR tv425[ebp]
  00085	8a 09		 mov	 cl, BYTE PTR [ecx]
  00087	80 f9 02	 cmp	 cl, 2
  0008a	75 0a		 jne	 SHORT $LN18@MLS_DarkHo
  0008c	83 bc 06 50 04
	00 00 00	 cmp	 DWORD PTR [esi+eax+1104], 0

; 3229 : 					{
; 3230 : 						EnableAttack = 1;

  00094	7c 6e		 jl	 SHORT $LN15@MLS_DarkHo
$LN18@MLS_DarkHo:

; 3231 : 					}
; 3232 : 					else if(tObjNum == aTargetIndex || DuelIndex == tObjNum)

  00096	3b 7d 0c	 cmp	 edi, DWORD PTR _aTargetIndex$[ebp]
  00099	74 69		 je	 SHORT $LN15@MLS_DarkHo
  0009b	39 7d f8	 cmp	 DWORD PTR _DuelIndex$[ebp], edi
  0009e	74 64		 je	 SHORT $LN15@MLS_DarkHo

; 3233 : 					{
; 3234 : 						EnableAttack = 1;
; 3235 : 					}
; 3236 : 					else if(lpObj->VpPlayer2[count].type != OBJ_NPC && gObj[tObjNum].MapNumber == MAP_INDEX_CASTLESIEGE && g_CastleSiege.GetCastleState() == 7)

  000a0	80 f9 03	 cmp	 cl, 3
  000a3	74 24		 je	 SHORT $LN13@MLS_DarkHo
  000a5	80 bc 06 49 01
	00 00 1e	 cmp	 BYTE PTR [esi+eax+329], 30 ; 0000001eH
  000ad	75 1a		 jne	 SHORT $LN13@MLS_DarkHo
  000af	83 3d 28 00 00
	00 07		 cmp	 DWORD PTR ?g_CastleSiege@@3VCCastleSiege@@A+40, 7
  000b6	75 11		 jne	 SHORT $LN13@MLS_DarkHo

; 3237 : 					{
; 3238 : 						if( lpObj->m_btCsJoinSide != gObj[tObjNum].m_btCsJoinSide )

  000b8	8a 93 02 1c 00
	00		 mov	 dl, BYTE PTR [ebx+7170]
  000be	3a 94 06 02 1c
	00 00		 cmp	 dl, BYTE PTR [esi+eax+7170]
  000c5	74 6d		 je	 SHORT $LN35@MLS_DarkHo

; 3239 : 							EnableAttack = 1;
; 3240 : 					}
; 3241 : 					else

  000c7	eb 3b		 jmp	 SHORT $LN15@MLS_DarkHo
$LN13@MLS_DarkHo:

; 3242 : 					{
; 3243 : 						int CallMonIndex = gObj[tObjNum].m_Index;
; 3244 : 	
; 3245 : 						if(gObj[tObjNum].Type == OBJ_MONSTER && gObj[tObjNum].m_RecallMon >= 0)

  000c9	66 83 7c 06 68
	02		 cmp	 WORD PTR [esi+eax+104], 2
  000cf	8b 0c 06	 mov	 ecx, DWORD PTR [esi+eax]
  000d2	75 14		 jne	 SHORT $LN10@MLS_DarkHo
  000d4	8b 94 06 50 04
	00 00		 mov	 edx, DWORD PTR [esi+eax+1104]
  000db	85 d2		 test	 edx, edx
  000dd	78 09		 js	 SHORT $LN10@MLS_DarkHo

; 3246 : 						{
; 3247 : 							CallMonIndex = gObj[gObj[tObjNum].m_RecallMon].m_Index;

  000df	69 d2 50 2b 00
	00		 imul	 edx, 11088		; 00002b50H
  000e5	8b 0c 02	 mov	 ecx, DWORD PTR [edx+eax]
$LN10@MLS_DarkHo:

; 3248 : 						}
; 3249 : 	
; 3250 : 						if(gObjTargetGuildWarCheck(lpObj,&gObj[CallMonIndex])==1)

  000e8	69 c9 50 2b 00
	00		 imul	 ecx, 11088		; 00002b50H
  000ee	03 c8		 add	 ecx, eax
  000f0	51		 push	 ecx
  000f1	53		 push	 ebx
  000f2	e8 00 00 00 00	 call	 ?gObjTargetGuildWarCheck@@YAHPAUOBJECTSTRUCT@@0@Z ; gObjTargetGuildWarCheck
  000f7	83 c4 08	 add	 esp, 8
  000fa	83 f8 01	 cmp	 eax, 1
  000fd	75 30		 jne	 SHORT $LN34@MLS_DarkHo
  000ff	a1 00 00 00 00	 mov	 eax, DWORD PTR ?gObj@@3PAUOBJECTSTRUCT@@A ; gObj
$LN15@MLS_DarkHo:

; 3251 : 						{
; 3252 : 							EnableAttack = 1;
; 3253 : 						}
; 3254 : 					}
; 3255 : 	
; 3256 : 					if(EnableAttack != 0)
; 3257 : 					{
; 3258 : 						if(gObjCalDistance(lpObj,&gObj[tObjNum]) < 5)

  00104	03 f0		 add	 esi, eax
  00106	56		 push	 esi
  00107	53		 push	 ebx
  00108	e8 00 00 00 00	 call	 ?gObjCalDistance@@YAHPAUOBJECTSTRUCT@@0@Z ; gObjCalDistance
  0010d	83 c4 08	 add	 esp, 8
  00110	83 f8 05	 cmp	 eax, 5
  00113	7d 1a		 jge	 SHORT $LN34@MLS_DarkHo

; 3259 : 						{
; 3260 : 							bAttack = 0;
; 3261 : 	
; 3262 : 							if(HitCount > 15)
; 3263 : 							{
; 3264 : 								bAttack = 0;
; 3265 : 							}
; 3266 : 	
; 3267 : 							if(HitCount >= 10)
; 3268 : 							{
; 3269 : 								if(rand()%2)
; 3270 : 								{
; 3271 : 									bAttack = 1;
; 3272 : 								}
; 3273 : 							}
; 3274 : 							else
; 3275 : 							{
; 3276 : 								bAttack = 1;
; 3277 : 							}
; 3278 : 	
; 3279 : 							if(bAttack != 0)
; 3280 : 							{
; 3281 : 								gObjAddAttackProcMsgSendDelay(lpObj,50,tObjNum,500,lpMagic->m_Skill,0);

  00115	8b 45 10	 mov	 eax, DWORD PTR _lpMagic$[ebp]
  00118	8b 48 08	 mov	 ecx, DWORD PTR [eax+8]
  0011b	6a 00		 push	 0
  0011d	51		 push	 ecx
  0011e	68 f4 01 00 00	 push	 500			; 000001f4H
  00123	57		 push	 edi
  00124	6a 32		 push	 50			; 00000032H
  00126	53		 push	 ebx
  00127	e8 00 00 00 00	 call	 ?gObjAddAttackProcMsgSendDelay@@YAXPAUOBJECTSTRUCT@@HHHHH@Z ; gObjAddAttackProcMsgSendDelay
  0012c	83 c4 18	 add	 esp, 24			; 00000018H
$LN34@MLS_DarkHo:
  0012f	a1 00 00 00 00	 mov	 eax, DWORD PTR ?gObj@@3PAUOBJECTSTRUCT@@A ; gObj
$LN35@MLS_DarkHo:

; 3282 : 							}
; 3283 : 						}
; 3284 : 					}
; 3285 : 				}
; 3286 : 			}
; 3287 : 		}
; 3288 : 	
; 3289 : 		count++;

  00134	8b 4d 08	 mov	 ecx, DWORD PTR tv425[ebp]
  00137	83 c1 0c	 add	 ecx, 12			; 0000000cH

; 3290 : 		if(count > MAX_VIEWPORT -1)

  0013a	ff 4d fc	 dec	 DWORD PTR tv352[ebp]
  0013d	89 4d 08	 mov	 DWORD PTR tv425[ebp], ecx
  00140	0f 85 fa fe ff
	ff		 jne	 $LL24@MLS_DarkHo

; 3291 : 		{
; 3292 : 			break;
; 3293 : 		}
; 3294 : 	}
; 3295 : return true;

  00146	5f		 pop	 edi
  00147	5e		 pop	 esi
  00148	b8 01 00 00 00	 mov	 eax, 1
  0014d	5b		 pop	 ebx

; 3296 : }

  0014e	8b e5		 mov	 esp, ebp
  00150	5d		 pop	 ebp
  00151	c2 0c 00	 ret	 12			; 0000000cH
?MLS_DarkHorseAttack@CMasterLevelSkillTreeSystem@@QAEHPAUOBJECTSTRUCT@@HPAVCMagicInf@@@Z ENDP ; CMasterLevelSkillTreeSystem::MLS_DarkHorseAttack
_TEXT	ENDS
PUBLIC	?MLS_FireBurst@CMasterLevelSkillTreeSystem@@QAEHPAUOBJECTSTRUCT@@HPAVCMagicInf@@@Z ; CMasterLevelSkillTreeSystem::MLS_FireBurst
EXTRN	_rand:PROC
; Function compile flags: /Ogtp
;	COMDAT ?MLS_FireBurst@CMasterLevelSkillTreeSystem@@QAEHPAUOBJECTSTRUCT@@HPAVCMagicInf@@@Z
_TEXT	SEGMENT
_DuelIndex$ = -12					; size = 4
_lpTargetObj$ = -8					; size = 4
tv355 = -4						; size = 4
tv426 = 8						; size = 4
_lpObj$ = 8						; size = 4
_aTargetIndex$ = 12					; size = 4
_lpMagic$ = 16						; size = 4
?MLS_FireBurst@CMasterLevelSkillTreeSystem@@QAEHPAUOBJECTSTRUCT@@HPAVCMagicInf@@@Z PROC ; CMasterLevelSkillTreeSystem::MLS_FireBurst, COMDAT
; _this$ = ecx

; 3299 : {

  00000	55		 push	 ebp
  00001	8b ec		 mov	 ebp, esp
  00003	83 ec 0c	 sub	 esp, 12			; 0000000cH

; 3300 : 	LPOBJ lpTargetObj = &gObj[aTargetIndex];

  00006	a1 00 00 00 00	 mov	 eax, DWORD PTR ?gObj@@3PAUOBJECTSTRUCT@@A ; gObj

; 3301 : 	int StartDis = 1;
; 3302 : 	int tObjNum;
; 3303 : 	int count = 0;
; 3304 : 	int loopcount = 0;
; 3305 : 
; 3306 : 	GCMagicAttackNumberSend(lpObj,lpMagic->m_Skill,lpTargetObj->m_Index,1);

  0000b	8b 55 10	 mov	 edx, DWORD PTR _lpMagic$[ebp]
  0000e	53		 push	 ebx
  0000f	8b 5d 0c	 mov	 ebx, DWORD PTR _aTargetIndex$[ebp]
  00012	69 db 50 2b 00
	00		 imul	 ebx, 11088		; 00002b50H
  00018	8b 0c 03	 mov	 ecx, DWORD PTR [ebx+eax]
  0001b	56		 push	 esi
  0001c	57		 push	 edi
  0001d	8b 7d 08	 mov	 edi, DWORD PTR _lpObj$[ebp]
  00020	8d 34 03	 lea	 esi, DWORD PTR [ebx+eax]
  00023	0f b7 42 08	 movzx	 eax, WORD PTR [edx+8]
  00027	6a 01		 push	 1
  00029	51		 push	 ecx
  0002a	50		 push	 eax
  0002b	57		 push	 edi
  0002c	89 75 f8	 mov	 DWORD PTR _lpTargetObj$[ebp], esi
  0002f	e8 00 00 00 00	 call	 ?GCMagicAttackNumberSend@@YAXPAUOBJECTSTRUCT@@GHE@Z ; GCMagicAttackNumberSend

; 3307 : 	gObjAttack(lpObj,lpTargetObj,lpMagic,0,1,0,0,0,0);

  00034	8b 4d 10	 mov	 ecx, DWORD PTR _lpMagic$[ebp]
  00037	6a 00		 push	 0
  00039	6a 00		 push	 0
  0003b	6a 00		 push	 0
  0003d	6a 00		 push	 0
  0003f	6a 01		 push	 1
  00041	6a 00		 push	 0
  00043	51		 push	 ecx
  00044	56		 push	 esi
  00045	57		 push	 edi
  00046	e8 00 00 00 00	 call	 ?gObjAttack@@YAHPAUOBJECTSTRUCT@@0PAVCMagicInf@@HEHHEE@Z ; gObjAttack

; 3308 : 
; 3309 : 	int attackcheck;
; 3310 : 	int DuelIndex = lpObj->m_iDuelUser;

  0004b	8b 97 b8 0e 00
	00		 mov	 edx, DWORD PTR [edi+3768]
  00051	8d 87 b0 08 00
	00		 lea	 eax, DWORD PTR [edi+2224]
  00057	89 55 f4	 mov	 DWORD PTR _DuelIndex$[ebp], edx
  0005a	8b 15 00 00 00
	00		 mov	 edx, DWORD PTR ?gObj@@3PAUOBJECTSTRUCT@@A ; gObj
  00060	83 c4 34	 add	 esp, 52			; 00000034H
  00063	89 45 08	 mov	 DWORD PTR tv426[ebp], eax
  00066	c7 45 fc 4b 00
	00 00		 mov	 DWORD PTR tv355[ebp], 75 ; 0000004bH
  0006d	8d 49 00	 npad	 3
$LL21@MLS_FireBu:

; 3311 : 	int EnableAttack;
; 3312 : 	int delaytime;
; 3313 : 
; 3314 : 	while ( true )
; 3315 : 	{
; 3316 : 		if(lpObj->VpPlayer2[count].state != 0)

  00070	80 78 fc 00	 cmp	 BYTE PTR [eax-4], 0
  00074	0f 84 06 01 00
	00		 je	 $LN32@MLS_FireBu

; 3317 : 		{
; 3318 : 			tObjNum = lpObj->VpPlayer2[count].number;

  0007a	0f bf 70 fe	 movsx	 esi, WORD PTR [eax-2]

; 3319 : 
; 3320 : 			if(tObjNum >= 0 && aTargetIndex != tObjNum)

  0007e	85 f6		 test	 esi, esi
  00080	0f 88 fa 00 00
	00		 js	 $LN32@MLS_FireBu
  00086	39 75 0c	 cmp	 DWORD PTR _aTargetIndex$[ebp], esi
  00089	0f 84 f1 00 00
	00		 je	 $LN32@MLS_FireBu

; 3321 : 			{
; 3322 : 				EnableAttack = 0;
; 3323 : 
; 3324 : 				if(lpObj->VpPlayer2[count].type == OBJ_MONSTER && gObj[tObjNum].m_RecallMon < 0)

  0008f	8a 00		 mov	 al, BYTE PTR [eax]
  00091	3c 02		 cmp	 al, 2
  00093	75 16		 jne	 SHORT $LN17@MLS_FireBu
  00095	8b ce		 mov	 ecx, esi
  00097	69 c9 50 2b 00
	00		 imul	 ecx, 11088		; 00002b50H
  0009d	83 bc 11 50 04
	00 00 00	 cmp	 DWORD PTR [ecx+edx+1104], 0

; 3325 : 				{
; 3326 : 					EnableAttack = 1;

  000a5	0f 8c 84 00 00
	00		 jl	 $LN14@MLS_FireBu
$LN17@MLS_FireBu:

; 3327 : 				}
; 3328 : 				else if(tObjNum == lpTargetObj->m_Index || DuelIndex == tObjNum)

  000ab	8b 4d f8	 mov	 ecx, DWORD PTR _lpTargetObj$[ebp]
  000ae	3b 31		 cmp	 esi, DWORD PTR [ecx]
  000b0	74 7d		 je	 SHORT $LN14@MLS_FireBu
  000b2	39 75 f4	 cmp	 DWORD PTR _DuelIndex$[ebp], esi
  000b5	74 78		 je	 SHORT $LN14@MLS_FireBu

; 3329 : 				{
; 3330 : 					EnableAttack = 1;
; 3331 : 				}
; 3332 : 				else if(lpObj->VpPlayer2[count].type != OBJ_NPC && gObj[tObjNum].MapNumber == MAP_INDEX_CASTLESIEGE && g_CastleSiege.GetCastleState() == 7)

  000b7	3c 03		 cmp	 al, 3
  000b9	74 30		 je	 SHORT $LN12@MLS_FireBu
  000bb	8b c6		 mov	 eax, esi
  000bd	69 c0 50 2b 00
	00		 imul	 eax, 11088		; 00002b50H
  000c3	80 bc 10 49 01
	00 00 1e	 cmp	 BYTE PTR [eax+edx+329], 30 ; 0000001eH
  000cb	75 1e		 jne	 SHORT $LN12@MLS_FireBu
  000cd	83 3d 28 00 00
	00 07		 cmp	 DWORD PTR ?g_CastleSiege@@3VCCastleSiege@@A+40, 7
  000d4	75 15		 jne	 SHORT $LN12@MLS_FireBu

; 3333 : 				{
; 3334 : 					if( lpObj->m_btCsJoinSide != gObj[tObjNum].m_btCsJoinSide )

  000d6	8a 8f 02 1c 00
	00		 mov	 cl, BYTE PTR [edi+7170]
  000dc	3a 8c 10 02 1c
	00 00		 cmp	 cl, BYTE PTR [eax+edx+7170]
  000e3	0f 84 97 00 00
	00		 je	 $LN32@MLS_FireBu

; 3335 : 						EnableAttack = 1;
; 3336 : 				}
; 3337 : 				else

  000e9	eb 44		 jmp	 SHORT $LN14@MLS_FireBu
$LN12@MLS_FireBu:

; 3338 : 				{
; 3339 : 					int CallMonIndex = gObj[tObjNum].m_Index;

  000eb	8b ce		 mov	 ecx, esi
  000ed	69 c9 50 2b 00
	00		 imul	 ecx, 11088		; 00002b50H

; 3340 : 
; 3341 : 					if(gObj[tObjNum].Type == OBJ_MONSTER && gObj[tObjNum].m_RecallMon >= 0)

  000f3	66 83 7c 11 68
	02		 cmp	 WORD PTR [ecx+edx+104], 2
  000f9	8b 04 11	 mov	 eax, DWORD PTR [ecx+edx]
  000fc	75 14		 jne	 SHORT $LN9@MLS_FireBu
  000fe	8b 8c 11 50 04
	00 00		 mov	 ecx, DWORD PTR [ecx+edx+1104]
  00105	85 c9		 test	 ecx, ecx
  00107	78 09		 js	 SHORT $LN9@MLS_FireBu

; 3342 : 					{
; 3343 : 						CallMonIndex = gObj[gObj[tObjNum].m_RecallMon].m_Index;

  00109	69 c9 50 2b 00
	00		 imul	 ecx, 11088		; 00002b50H
  0010f	8b 04 11	 mov	 eax, DWORD PTR [ecx+edx]
$LN9@MLS_FireBu:

; 3344 : 					}
; 3345 : 
; 3346 : 					if(gObjTargetGuildWarCheck(lpObj,&gObj[CallMonIndex])==1)

  00112	69 c0 50 2b 00
	00		 imul	 eax, 11088		; 00002b50H
  00118	03 c2		 add	 eax, edx
  0011a	50		 push	 eax
  0011b	57		 push	 edi
  0011c	e8 00 00 00 00	 call	 ?gObjTargetGuildWarCheck@@YAHPAUOBJECTSTRUCT@@0@Z ; gObjTargetGuildWarCheck
  00121	83 c4 08	 add	 esp, 8
  00124	83 f8 01	 cmp	 eax, 1
  00127	75 51		 jne	 SHORT $LN31@MLS_FireBu
  00129	8b 15 00 00 00
	00		 mov	 edx, DWORD PTR ?gObj@@3PAUOBJECTSTRUCT@@A ; gObj
$LN14@MLS_FireBu:

; 3347 : 					{
; 3348 : 						EnableAttack = 1;
; 3349 : 					}
; 3350 : 				}
; 3351 : 
; 3352 : 				if(EnableAttack != 0)
; 3353 : 				{
; 3354 : 					attackcheck = 0;
; 3355 : 
; 3356 : 					if(loopcount == 0)
; 3357 : 					{
; 3358 : 						attackcheck = 1;
; 3359 : 					}
; 3360 : 					else if(rand()%3==0)
; 3361 : 					{
; 3362 : 						attackcheck = 1;
; 3363 : 					}
; 3364 : 
; 3365 : 					if(attackcheck != 0)
; 3366 : 					{
; 3367 : 						if(gObjCalDistance(&gObj[aTargetIndex],&gObj[tObjNum]) < 3)

  0012f	8b ce		 mov	 ecx, esi
  00131	69 c9 50 2b 00
	00		 imul	 ecx, 11088		; 00002b50H
  00137	03 ca		 add	 ecx, edx
  00139	51		 push	 ecx
  0013a	03 d3		 add	 edx, ebx
  0013c	52		 push	 edx
  0013d	e8 00 00 00 00	 call	 ?gObjCalDistance@@YAHPAUOBJECTSTRUCT@@0@Z ; gObjCalDistance
  00142	83 c4 08	 add	 esp, 8
  00145	83 f8 03	 cmp	 eax, 3
  00148	7d 30		 jge	 SHORT $LN31@MLS_FireBu

; 3368 : 						{
; 3369 : 							delaytime = (rand()*17)%300 + 500;

  0014a	e8 00 00 00 00	 call	 _rand
  0014f	8b c8		 mov	 ecx, eax
  00151	c1 e0 04	 shl	 eax, 4
  00154	03 c1		 add	 eax, ecx
  00156	99		 cdq
  00157	b9 2c 01 00 00	 mov	 ecx, 300		; 0000012cH
  0015c	f7 f9		 idiv	 ecx

; 3370 : 
; 3371 : 							gObjAddAttackProcMsgSendDelay(lpObj,50,tObjNum,delaytime,lpMagic->m_Skill,0);

  0015e	8b 45 10	 mov	 eax, DWORD PTR _lpMagic$[ebp]
  00161	8b 48 08	 mov	 ecx, DWORD PTR [eax+8]
  00164	6a 00		 push	 0
  00166	51		 push	 ecx
  00167	81 c2 f4 01 00
	00		 add	 edx, 500		; 000001f4H
  0016d	52		 push	 edx
  0016e	56		 push	 esi
  0016f	6a 32		 push	 50			; 00000032H
  00171	57		 push	 edi
  00172	e8 00 00 00 00	 call	 ?gObjAddAttackProcMsgSendDelay@@YAXPAUOBJECTSTRUCT@@HHHHH@Z ; gObjAddAttackProcMsgSendDelay
  00177	83 c4 18	 add	 esp, 24			; 00000018H
$LN31@MLS_FireBu:
  0017a	8b 15 00 00 00
	00		 mov	 edx, DWORD PTR ?gObj@@3PAUOBJECTSTRUCT@@A ; gObj
$LN32@MLS_FireBu:

; 3372 : 						}
; 3373 : 					}
; 3374 : 				}
; 3375 : 			}
; 3376 : 		}
; 3377 : 
; 3378 : 		count++;

  00180	8b 45 08	 mov	 eax, DWORD PTR tv426[ebp]
  00183	83 c0 0c	 add	 eax, 12			; 0000000cH

; 3379 : 		if(count > MAX_VIEWPORT -1)

  00186	ff 4d fc	 dec	 DWORD PTR tv355[ebp]
  00189	89 45 08	 mov	 DWORD PTR tv426[ebp], eax
  0018c	0f 85 de fe ff
	ff		 jne	 $LL21@MLS_FireBu

; 3380 : 		{
; 3381 : 			break;
; 3382 : 		}
; 3383 : 	}
; 3384 : 	return true;

  00192	5f		 pop	 edi
  00193	5e		 pop	 esi
  00194	b8 01 00 00 00	 mov	 eax, 1
  00199	5b		 pop	 ebx

; 3385 : }

  0019a	8b e5		 mov	 esp, ebp
  0019c	5d		 pop	 ebp
  0019d	c2 0c 00	 ret	 12			; 0000000cH
?MLS_FireBurst@CMasterLevelSkillTreeSystem@@QAEHPAUOBJECTSTRUCT@@HPAVCMagicInf@@@Z ENDP ; CMasterLevelSkillTreeSystem::MLS_FireBurst
_TEXT	ENDS
PUBLIC	__real@4056800000000000
PUBLIC	__real@400921fb60000000
PUBLIC	__real@4066800000000000
PUBLIC	?MLS_GetAngle@CMasterLevelSkillTreeSystem@@QAEHHHHH@Z ; CMasterLevelSkillTreeSystem::MLS_GetAngle
EXTRN	__ftol2_sse:PROC
EXTRN	__CIatan2:PROC
;	COMDAT __real@4056800000000000
CONST	SEGMENT
__real@4056800000000000 DQ 04056800000000000r	; 90
CONST	ENDS
;	COMDAT __real@400921fb60000000
CONST	SEGMENT
__real@400921fb60000000 DQ 0400921fb60000000r	; 3.14159
CONST	ENDS
;	COMDAT __real@4066800000000000
CONST	SEGMENT
__real@4066800000000000 DQ 04066800000000000r	; 180
; Function compile flags: /Ogtp
CONST	ENDS
;	COMDAT ?MLS_GetAngle@CMasterLevelSkillTreeSystem@@QAEHHHHH@Z
_TEXT	SEGMENT
_x$ = 8							; size = 4
tv138 = 12						; size = 4
tv136 = 12						; size = 4
_y$ = 12						; size = 4
_tx$ = 16						; size = 4
_ty$ = 20						; size = 4
?MLS_GetAngle@CMasterLevelSkillTreeSystem@@QAEHHHHH@Z PROC ; CMasterLevelSkillTreeSystem::MLS_GetAngle, COMDAT
; _this$ = ecx

; 3745 : {

  00000	55		 push	 ebp
  00001	8b ec		 mov	 ebp, esp

; 3746 : 	double diffX = x - tx;
; 3747 : 	double diffY = y - ty;

  00003	8b 45 0c	 mov	 eax, DWORD PTR _y$[ebp]
  00006	2b 45 14	 sub	 eax, DWORD PTR _ty$[ebp]
  00009	8b 4d 08	 mov	 ecx, DWORD PTR _x$[ebp]
  0000c	2b 4d 10	 sub	 ecx, DWORD PTR _tx$[ebp]

; 3748 : 
; 3749 : 	double rad = atan2(diffY,diffX);
; 3750 : 
; 3751 : 	int angle  = rad*180/M_PI + 90.0f;

  0000f	89 45 0c	 mov	 DWORD PTR tv138[ebp], eax
  00012	db 45 0c	 fild	 DWORD PTR tv138[ebp]
  00015	89 4d 0c	 mov	 DWORD PTR tv136[ebp], ecx
  00018	db 45 0c	 fild	 DWORD PTR tv136[ebp]
  0001b	e8 00 00 00 00	 call	 __CIatan2
  00020	dc 0d 00 00 00
	00		 fmul	 QWORD PTR __real@4066800000000000
  00026	dc 35 00 00 00
	00		 fdiv	 QWORD PTR __real@400921fb60000000
  0002c	dc 05 00 00 00
	00		 fadd	 QWORD PTR __real@4056800000000000
  00032	e8 00 00 00 00	 call	 __ftol2_sse

; 3752 : 
; 3753 : 	if( angle < 0 )

  00037	85 c0		 test	 eax, eax
  00039	79 05		 jns	 SHORT $LN1@MLS_GetAng

; 3754 : 		angle += 360;

  0003b	05 68 01 00 00	 add	 eax, 360		; 00000168H
$LN1@MLS_GetAng:

; 3755 : 
; 3756 : 	return angle;
; 3757 : }

  00040	5d		 pop	 ebp
  00041	c2 10 00	 ret	 16			; 00000010H
?MLS_GetAngle@CMasterLevelSkillTreeSystem@@QAEHHHHH@Z ENDP ; CMasterLevelSkillTreeSystem::MLS_GetAngle
_TEXT	ENDS
PUBLIC	__real@bf800000
PUBLIC	__real@3f800000
PUBLIC	__real@00000000
PUBLIC	__$ArrayPad$
PUBLIC	?MLS_SkillFrustrum@CMasterLevelSkillTreeSystem@@QAEXHMMM@Z ; CMasterLevelSkillTreeSystem::MLS_SkillFrustrum
EXTRN	_VectorRotate:PROC
EXTRN	_AngleMatrix:PROC
;	COMDAT __real@bf800000
CONST	SEGMENT
__real@bf800000 DD 0bf800000r			; -1
CONST	ENDS
;	COMDAT __real@3f800000
CONST	SEGMENT
__real@3f800000 DD 03f800000r			; 1
CONST	ENDS
;	COMDAT __real@00000000
CONST	SEGMENT
__real@00000000 DD 000000000r			; 0
; Function compile flags: /Ogtp
CONST	ENDS
;	COMDAT ?MLS_SkillFrustrum@CMasterLevelSkillTreeSystem@@QAEXHMMM@Z
_TEXT	SEGMENT
_lpObj$ = -164						; size = 4
_vFrustrum$ = -160					; size = 48
_Matrix$ = -112						; size = 48
_p$ = -64						; size = 48
_Angle$ = -16						; size = 12
__$ArrayPad$ = -4					; size = 4
_aIndex$ = 8						; size = 4
_fangle$ = 12						; size = 4
_tx$ = 16						; size = 4
_ty$ = 20						; size = 4
?MLS_SkillFrustrum@CMasterLevelSkillTreeSystem@@QAEXHMMM@Z PROC ; CMasterLevelSkillTreeSystem::MLS_SkillFrustrum, COMDAT
; _this$ = ecx

; 3760 : {

  00000	55		 push	 ebp
  00001	8b ec		 mov	 ebp, esp
  00003	81 ec a4 00 00
	00		 sub	 esp, 164		; 000000a4H
  00009	a1 00 00 00 00	 mov	 eax, DWORD PTR ___security_cookie
  0000e	33 c5		 xor	 eax, ebp
  00010	89 45 fc	 mov	 DWORD PTR __$ArrayPad$[ebp], eax

; 3761 : 	LPOBJ lpObj = &gObj[aIndex];
; 3762 : 
; 3763 : 	float p[4][3];
; 3764 : 
; 3765 : 	p[0][0] = -tx;

  00013	d9 45 10	 fld	 DWORD PTR _tx$[ebp]
  00016	53		 push	 ebx
  00017	d9 c0		 fld	 ST(0)
  00019	56		 push	 esi
  0001a	d9 e0		 fchs
  0001c	57		 push	 edi
  0001d	8b 7d 08	 mov	 edi, DWORD PTR _aIndex$[ebp]
  00020	d9 5d c0	 fstp	 DWORD PTR _p$[ebp]

; 3766 : 	p[0][1] = ty;

  00023	d9 45 14	 fld	 DWORD PTR _ty$[ebp]
  00026	69 ff 50 2b 00
	00		 imul	 edi, 11088		; 00002b50H
  0002c	d9 55 c4	 fst	 DWORD PTR _p$[ebp+4]

; 3767 : 	p[0][2] = 0;

  0002f	d9 ee		 fldz
  00031	d9 55 c8	 fst	 DWORD PTR _p$[ebp+8]

; 3768 : 	p[1][0] = tx;
; 3769 : 	p[1][1] = ty;
; 3770 : 	p[1][2] = 0;

  00034	d9 55 d4	 fst	 DWORD PTR _p$[ebp+20]
  00037	d9 ca		 fxch	 ST(2)
  00039	d9 5d cc	 fstp	 DWORD PTR _p$[ebp+12]
  0003c	03 3d 00 00 00
	00		 add	 edi, DWORD PTR ?gObj@@3PAUOBJECTSTRUCT@@A ; gObj
  00042	d9 5d d0	 fstp	 DWORD PTR _p$[ebp+16]

; 3771 : 	p[2][0] = 1.0f;
; 3772 : 	p[2][1] = 0;
; 3773 : 	p[2][2] = 0;
; 3774 : 	p[3][0] = -1.0f;
; 3775 : 	p[3][1] = 0;
; 3776 : 	p[3][2] = 0;
; 3777 : 
; 3778 : 	float Angle[3];
; 3779 : 
; 3780 : 	Angle[0] = 0;
; 3781 : 	Angle[1] = 0;
; 3782 : 	Angle[2] = fangle;
; 3783 : 
; 3784 : 	float Matrix[3][4];
; 3785 : 	float vFrustrum[4][3];
; 3786 : 
; 3787 : 	AngleMatrix(Angle,Matrix);

  00045	8d 45 90	 lea	 eax, DWORD PTR _Matrix$[ebp]
  00048	d9 e8		 fld1
  0004a	50		 push	 eax
  0004b	d9 5d d8	 fstp	 DWORD PTR _p$[ebp+24]
  0004e	8d 4d f0	 lea	 ecx, DWORD PTR _Angle$[ebp]
  00051	51		 push	 ecx
  00052	89 bd 5c ff ff
	ff		 mov	 DWORD PTR _lpObj$[ebp], edi
  00058	d9 55 dc	 fst	 DWORD PTR _p$[ebp+28]
  0005b	d9 55 e0	 fst	 DWORD PTR _p$[ebp+32]
  0005e	d9 05 00 00 00
	00		 fld	 DWORD PTR __real@bf800000
  00064	d9 5d e4	 fstp	 DWORD PTR _p$[ebp+36]
  00067	d9 55 e8	 fst	 DWORD PTR _p$[ebp+40]
  0006a	d9 55 ec	 fst	 DWORD PTR _p$[ebp+44]
  0006d	d9 55 f0	 fst	 DWORD PTR _Angle$[ebp]
  00070	d9 5d f4	 fstp	 DWORD PTR _Angle$[ebp+4]
  00073	d9 45 0c	 fld	 DWORD PTR _fangle$[ebp]
  00076	d9 5d f8	 fstp	 DWORD PTR _Angle$[ebp+8]
  00079	e8 00 00 00 00	 call	 _AngleMatrix
  0007e	83 c4 08	 add	 esp, 8

; 3792 : 
; 3793 : 		lpObj->fSkillFrustrumX[i] = (int)vFrustrum[i][0] + lpObj->X;

  00081	81 c7 04 11 00
	00		 add	 edi, 4356		; 00001104H
  00087	33 f6		 xor	 esi, esi
  00089	8d a4 24 00 00
	00 00		 npad	 7
$LL3@MLS_SkillF:

; 3788 : 
; 3789 : 	for(int i = 0; i < 4; i++)
; 3790 : 	{
; 3791 : 		VectorRotate((const float *)&p[i],&Matrix[0],(float *)&vFrustrum[i]);

  00090	8d 9c 35 60 ff
	ff ff		 lea	 ebx, DWORD PTR _vFrustrum$[ebp+esi]
  00097	53		 push	 ebx
  00098	8d 55 90	 lea	 edx, DWORD PTR _Matrix$[ebp]
  0009b	52		 push	 edx
  0009c	8d 44 35 c0	 lea	 eax, DWORD PTR _p$[ebp+esi]
  000a0	50		 push	 eax
  000a1	e8 00 00 00 00	 call	 _VectorRotate

; 3792 : 
; 3793 : 		lpObj->fSkillFrustrumX[i] = (int)vFrustrum[i][0] + lpObj->X;

  000a6	d9 03		 fld	 DWORD PTR [ebx]
  000a8	83 c4 0c	 add	 esp, 12			; 0000000cH
  000ab	e8 00 00 00 00	 call	 __ftol2_sse
  000b0	8b 9d 5c ff ff
	ff		 mov	 ebx, DWORD PTR _lpObj$[ebp]
  000b6	0f bf 8b 44 01
	00 00		 movsx	 ecx, WORD PTR [ebx+324]
  000bd	03 c1		 add	 eax, ecx
  000bf	89 47 f0	 mov	 DWORD PTR [edi-16], eax

; 3794 : 		lpObj->fSkillFrustrumY[i] = (int)vFrustrum[i][1] + lpObj->Y;

  000c2	d9 84 35 64 ff
	ff ff		 fld	 DWORD PTR _vFrustrum$[ebp+esi+4]
  000c9	e8 00 00 00 00	 call	 __ftol2_sse
  000ce	0f bf 93 46 01
	00 00		 movsx	 edx, WORD PTR [ebx+326]
  000d5	03 c2		 add	 eax, edx
  000d7	89 07		 mov	 DWORD PTR [edi], eax
  000d9	83 c6 0c	 add	 esi, 12			; 0000000cH
  000dc	83 c7 04	 add	 edi, 4
  000df	83 fe 30	 cmp	 esi, 48			; 00000030H
  000e2	7c ac		 jl	 SHORT $LL3@MLS_SkillF

; 3795 : 	}
; 3796 : }

  000e4	8b 4d fc	 mov	 ecx, DWORD PTR __$ArrayPad$[ebp]
  000e7	5f		 pop	 edi
  000e8	5e		 pop	 esi
  000e9	33 cd		 xor	 ecx, ebp
  000eb	5b		 pop	 ebx
  000ec	e8 00 00 00 00	 call	 @__security_check_cookie@4
  000f1	8b e5		 mov	 esp, ebp
  000f3	5d		 pop	 ebp
  000f4	c2 10 00	 ret	 16			; 00000010H
?MLS_SkillFrustrum@CMasterLevelSkillTreeSystem@@QAEXHMMM@Z ENDP ; CMasterLevelSkillTreeSystem::MLS_SkillFrustrum
_TEXT	ENDS
PUBLIC	__real@3fc00000
PUBLIC	__real@3ff0000000000000
PUBLIC	?MLS_KnightBlow@CMasterLevelSkillTreeSystem@@QAEHHHPAVCMagicInf@@H@Z ; CMasterLevelSkillTreeSystem::MLS_KnightBlow
EXTRN	?SkillTestFrustrum@@YAHHHH@Z:PROC		; SkillTestFrustrum
;	COMDAT __real@3fc00000
; File e:\work\tranet_version\gs\gameserver\castlesiege.h
CONST	SEGMENT
__real@3fc00000 DD 03fc00000r			; 1.5
CONST	ENDS
;	COMDAT __real@3ff0000000000000
CONST	SEGMENT
__real@3ff0000000000000 DQ 03ff0000000000000r	; 1
; Function compile flags: /Ogtp
; File e:\work\tranet_version\gs\gameserver\newmasterlevelskilltreesystem.cpp
CONST	ENDS
;	COMDAT ?MLS_KnightBlow@CMasterLevelSkillTreeSystem@@QAEHHHPAVCMagicInf@@H@Z
_TEXT	SEGMENT
_DuelIndex$ = -8					; size = 4
_fangle$ = -8						; size = 4
tv399 = -4						; size = 4
tv396 = -4						; size = 4
_loopcount$ = -4					; size = 4
_fSkillDist$ = -4					; size = 4
_aIndex$ = 8						; size = 4
_aTargetIndex$ = 12					; size = 4
_lpMagic$ = 16						; size = 4
_isCombo$ = 20						; size = 4
?MLS_KnightBlow@CMasterLevelSkillTreeSystem@@QAEHHHPAVCMagicInf@@H@Z PROC ; CMasterLevelSkillTreeSystem::MLS_KnightBlow, COMDAT
; _this$ = ecx

; 3799 : {

  00000	55		 push	 ebp
  00001	8b ec		 mov	 ebp, esp
  00003	83 ec 08	 sub	 esp, 8

; 3800 : 	LPOBJ lpObj = &gObj[aIndex];

  00006	a1 00 00 00 00	 mov	 eax, DWORD PTR ?gObj@@3PAUOBJECTSTRUCT@@A ; gObj
  0000b	53		 push	 ebx
  0000c	8b 5d 08	 mov	 ebx, DWORD PTR _aIndex$[ebp]
  0000f	56		 push	 esi
  00010	57		 push	 edi
  00011	8b f9		 mov	 edi, ecx

; 3801 : 	int StartDis = 1;
; 3802 : 	int tObjNum;
; 3803 : 
; 3804 : 	float fangle = this->MLS_GetAngle(lpObj->X,lpObj->Y,gObj[aTargetIndex].X,gObj[aTargetIndex].Y);

  00013	8b 4d 0c	 mov	 ecx, DWORD PTR _aTargetIndex$[ebp]
  00016	69 c9 50 2b 00
	00		 imul	 ecx, 11088		; 00002b50H
  0001c	0f bf 94 08 46
	01 00 00	 movsx	 edx, WORD PTR [eax+ecx+326]
  00024	8b f3		 mov	 esi, ebx
  00026	69 f6 50 2b 00
	00		 imul	 esi, 11088		; 00002b50H
  0002c	03 f0		 add	 esi, eax
  0002e	0f bf 84 08 44
	01 00 00	 movsx	 eax, WORD PTR [eax+ecx+324]
  00036	0f bf 8e 46 01
	00 00		 movsx	 ecx, WORD PTR [esi+326]
  0003d	52		 push	 edx
  0003e	0f bf 96 44 01
	00 00		 movsx	 edx, WORD PTR [esi+324]
  00045	50		 push	 eax
  00046	51		 push	 ecx
  00047	52		 push	 edx
  00048	8b cf		 mov	 ecx, edi
  0004a	e8 00 00 00 00	 call	 ?MLS_GetAngle@CMasterLevelSkillTreeSystem@@QAEHHHHH@Z ; CMasterLevelSkillTreeSystem::MLS_GetAngle
  0004f	89 45 fc	 mov	 DWORD PTR tv399[ebp], eax

; 3805 : 	float fSkillDist = MagicDamageC.GetSkillDistance(lpMagic->m_Skill)+1.0f;

  00052	8b 45 10	 mov	 eax, DWORD PTR _lpMagic$[ebp]
  00055	8b 48 08	 mov	 ecx, DWORD PTR [eax+8]
  00058	db 45 fc	 fild	 DWORD PTR tv399[ebp]
  0005b	51		 push	 ecx
  0005c	b9 00 00 00 00	 mov	 ecx, OFFSET ?MagicDamageC@@3VCMagicDamage@@A ; MagicDamageC
  00061	d9 5d f8	 fstp	 DWORD PTR _fangle$[ebp]
  00064	e8 00 00 00 00	 call	 ?GetSkillDistance@CMagicDamage@@QAEHH@Z ; CMagicDamage::GetSkillDistance
  00069	89 45 fc	 mov	 DWORD PTR tv396[ebp], eax
  0006c	db 45 fc	 fild	 DWORD PTR tv396[ebp]

; 3806 : 
; 3807 : 	this->MLS_SkillFrustrum(aIndex,fangle,1.5f,fSkillDist);

  0006f	83 ec 0c	 sub	 esp, 12			; 0000000cH
  00072	8b cf		 mov	 ecx, edi
  00074	dc 05 00 00 00
	00		 fadd	 QWORD PTR __real@3ff0000000000000
  0007a	d9 5d fc	 fstp	 DWORD PTR _fSkillDist$[ebp]
  0007d	d9 45 fc	 fld	 DWORD PTR _fSkillDist$[ebp]
  00080	d9 5c 24 08	 fstp	 DWORD PTR [esp+8]
  00084	d9 05 00 00 00
	00		 fld	 DWORD PTR __real@3fc00000
  0008a	d9 5c 24 04	 fstp	 DWORD PTR [esp+4]
  0008e	d9 45 f8	 fld	 DWORD PTR _fangle$[ebp]
  00091	d9 1c 24	 fstp	 DWORD PTR [esp]
  00094	53		 push	 ebx
  00095	e8 00 00 00 00	 call	 ?MLS_SkillFrustrum@CMasterLevelSkillTreeSystem@@QAEXHMMM@Z ; CMasterLevelSkillTreeSystem::MLS_SkillFrustrum

; 3808 : 
; 3809 : 	int count = 0;
; 3810 : 	int loopcount = 0;
; 3811 : 	int attackcheck;
; 3812 : 	GCMagicAttackNumberSend(lpObj,lpMagic->m_Skill,aTargetIndex,1);

  0009a	8b 45 10	 mov	 eax, DWORD PTR _lpMagic$[ebp]
  0009d	8b 55 0c	 mov	 edx, DWORD PTR _aTargetIndex$[ebp]
  000a0	0f b7 48 08	 movzx	 ecx, WORD PTR [eax+8]
  000a4	6a 01		 push	 1
  000a6	52		 push	 edx
  000a7	51		 push	 ecx
  000a8	33 db		 xor	 ebx, ebx
  000aa	56		 push	 esi
  000ab	89 5d fc	 mov	 DWORD PTR _loopcount$[ebp], ebx
  000ae	e8 00 00 00 00	 call	 ?GCMagicAttackNumberSend@@YAXPAUOBJECTSTRUCT@@GHE@Z ; GCMagicAttackNumberSend

; 3813 : 
; 3814 : 	int DuelIndex = lpObj->m_iDuelUser;

  000b3	8b 96 b8 0e 00
	00		 mov	 edx, DWORD PTR [esi+3768]
  000b9	89 55 f8	 mov	 DWORD PTR _DuelIndex$[ebp], edx
  000bc	8b 15 00 00 00
	00		 mov	 edx, DWORD PTR ?gObj@@3PAUOBJECTSTRUCT@@A ; gObj
  000c2	83 c4 10	 add	 esp, 16			; 00000010H
$LL23@MLS_Knight:

; 3815 : 	int EnableAttack;
; 3816 : 
; 3817 : 	while ( true )
; 3818 : 	{
; 3819 : 		if(lpObj->VpPlayer2[count].state != 0)

  000c5	8d 84 5b 2b 02
	00 00		 lea	 eax, DWORD PTR [ebx+ebx*2+555]
  000cc	80 3c 86 00	 cmp	 BYTE PTR [esi+eax*4], 0
  000d0	0f 84 51 01 00
	00		 je	 $LN34@MLS_Knight

; 3820 : 		{
; 3821 : 			tObjNum = lpObj->VpPlayer2[count].number;

  000d6	8d 0c 5b	 lea	 ecx, DWORD PTR [ebx+ebx*2]
  000d9	0f bf bc 8e ae
	08 00 00	 movsx	 edi, WORD PTR [esi+ecx*4+2222]
  000e1	8d 04 8e	 lea	 eax, DWORD PTR [esi+ecx*4]

; 3822 : 
; 3823 : 			if(tObjNum >= 0)

  000e4	85 ff		 test	 edi, edi
  000e6	0f 88 3b 01 00
	00		 js	 $LN34@MLS_Knight

; 3824 : 			{
; 3825 : 				EnableAttack = 0;
; 3826 : 
; 3827 : 				if(lpObj->VpPlayer2[count].type == OBJ_MONSTER && gObj[tObjNum].m_RecallMon < 0)

  000ec	8a 80 b0 08 00
	00		 mov	 al, BYTE PTR [eax+2224]
  000f2	3c 02		 cmp	 al, 2
  000f4	75 16		 jne	 SHORT $LN19@MLS_Knight
  000f6	8b cf		 mov	 ecx, edi
  000f8	69 c9 50 2b 00
	00		 imul	 ecx, 11088		; 00002b50H
  000fe	83 bc 11 50 04
	00 00 00	 cmp	 DWORD PTR [ecx+edx+1104], 0

; 3828 : 				{
; 3829 : 					EnableAttack = 1;

  00106	0f 8c 8e 00 00
	00		 jl	 $LN16@MLS_Knight
$LN19@MLS_Knight:

; 3830 : 				}
; 3831 : 				else if(tObjNum == aTargetIndex || DuelIndex == tObjNum)

  0010c	3b 7d 0c	 cmp	 edi, DWORD PTR _aTargetIndex$[ebp]
  0010f	0f 84 85 00 00
	00		 je	 $LN16@MLS_Knight
  00115	39 7d f8	 cmp	 DWORD PTR _DuelIndex$[ebp], edi
  00118	0f 84 7c 00 00
	00		 je	 $LN16@MLS_Knight

; 3832 : 				{
; 3833 : 					EnableAttack = 1;
; 3834 : 				}
; 3835 : 
; 3836 : 				else if(lpObj->VpPlayer2[count].type != OBJ_NPC && gObj[tObjNum].MapNumber == MAP_INDEX_CASTLESIEGE && g_CastleSiege.GetCastleState() == 7)

  0011e	3c 03		 cmp	 al, 3
  00120	74 30		 je	 SHORT $LN14@MLS_Knight
  00122	8b c7		 mov	 eax, edi
  00124	69 c0 50 2b 00
	00		 imul	 eax, 11088		; 00002b50H
  0012a	80 bc 10 49 01
	00 00 1e	 cmp	 BYTE PTR [eax+edx+329], 30 ; 0000001eH
  00132	75 1e		 jne	 SHORT $LN14@MLS_Knight
  00134	83 3d 28 00 00
	00 07		 cmp	 DWORD PTR ?g_CastleSiege@@3VCCastleSiege@@A+40, 7
  0013b	75 15		 jne	 SHORT $LN14@MLS_Knight

; 3837 : 				{
; 3838 : 					if( lpObj->m_btCsJoinSide != gObj[tObjNum].m_btCsJoinSide )

  0013d	8a 8e 02 1c 00
	00		 mov	 cl, BYTE PTR [esi+7170]
  00143	3a 8c 10 02 1c
	00 00		 cmp	 cl, BYTE PTR [eax+edx+7170]
  0014a	0f 84 d7 00 00
	00		 je	 $LN34@MLS_Knight

; 3839 : 						EnableAttack = 1;
; 3840 : 				}
; 3841 : 
; 3842 : 				else

  00150	eb 48		 jmp	 SHORT $LN16@MLS_Knight
$LN14@MLS_Knight:

; 3843 : 				{
; 3844 : 					int CallMonIndex = gObj[tObjNum].m_Index;

  00152	8b cf		 mov	 ecx, edi
  00154	69 c9 50 2b 00
	00		 imul	 ecx, 11088		; 00002b50H

; 3845 : 
; 3846 : 					if(gObj[tObjNum].Type == OBJ_MONSTER && gObj[tObjNum].m_RecallMon >= 0)

  0015a	66 83 7c 11 68
	02		 cmp	 WORD PTR [ecx+edx+104], 2
  00160	8b 04 11	 mov	 eax, DWORD PTR [ecx+edx]
  00163	75 14		 jne	 SHORT $LN11@MLS_Knight
  00165	8b 8c 11 50 04
	00 00		 mov	 ecx, DWORD PTR [ecx+edx+1104]
  0016c	85 c9		 test	 ecx, ecx
  0016e	78 09		 js	 SHORT $LN11@MLS_Knight

; 3847 : 					{
; 3848 : 						CallMonIndex = gObj[gObj[tObjNum].m_RecallMon].m_Index;

  00170	69 c9 50 2b 00
	00		 imul	 ecx, 11088		; 00002b50H
  00176	8b 04 11	 mov	 eax, DWORD PTR [ecx+edx]
$LN11@MLS_Knight:

; 3849 : 					}
; 3850 : 
; 3851 : 					if(gObjTargetGuildWarCheck(lpObj,&gObj[CallMonIndex])==1)

  00179	69 c0 50 2b 00
	00		 imul	 eax, 11088		; 00002b50H
  0017f	03 c2		 add	 eax, edx
  00181	50		 push	 eax
  00182	56		 push	 esi
  00183	e8 00 00 00 00	 call	 ?gObjTargetGuildWarCheck@@YAHPAUOBJECTSTRUCT@@0@Z ; gObjTargetGuildWarCheck
  00188	83 c4 08	 add	 esp, 8
  0018b	83 f8 01	 cmp	 eax, 1
  0018e	0f 85 8d 00 00
	00		 jne	 $LN33@MLS_Knight
  00194	8b 15 00 00 00
	00		 mov	 edx, DWORD PTR ?gObj@@3PAUOBJECTSTRUCT@@A ; gObj
$LN16@MLS_Knight:

; 3852 : 					{
; 3853 : 						EnableAttack = 1;
; 3854 : 					}
; 3855 : 				}
; 3856 : 
; 3857 : 				if(EnableAttack != 0)
; 3858 : 				{
; 3859 : 					attackcheck = 0;
; 3860 : 
; 3861 : 					if(loopcount == 0)

  0019a	83 7d fc 00	 cmp	 DWORD PTR _loopcount$[ebp], 0

; 3862 : 					{
; 3863 : 						attackcheck = 1;

  0019e	74 17		 je	 SHORT $LN32@MLS_Knight

; 3864 : 					}
; 3865 : 					else if(rand()%3==0)

  001a0	e8 00 00 00 00	 call	 _rand
  001a5	99		 cdq
  001a6	b9 03 00 00 00	 mov	 ecx, 3
  001ab	f7 f9		 idiv	 ecx
  001ad	85 d2		 test	 edx, edx
  001af	75 70		 jne	 SHORT $LN33@MLS_Knight
  001b1	8b 15 00 00 00
	00		 mov	 edx, DWORD PTR ?gObj@@3PAUOBJECTSTRUCT@@A ; gObj
$LN32@MLS_Knight:

; 3866 : 					{
; 3867 : 						attackcheck = 1;
; 3868 : 					}
; 3869 : 
; 3870 : 					if(attackcheck != 0)
; 3871 : 					{
; 3872 : 						if(::SkillTestFrustrum(gObj[tObjNum].X,gObj[tObjNum].Y,aIndex))

  001b7	8b 45 08	 mov	 eax, DWORD PTR _aIndex$[ebp]
  001ba	69 ff 50 2b 00
	00		 imul	 edi, 11088		; 00002b50H
  001c0	0f bf 8c 17 46
	01 00 00	 movsx	 ecx, WORD PTR [edi+edx+326]
  001c8	0f bf 94 17 44
	01 00 00	 movsx	 edx, WORD PTR [edi+edx+324]
  001d0	50		 push	 eax
  001d1	51		 push	 ecx
  001d2	52		 push	 edx
  001d3	e8 00 00 00 00	 call	 ?SkillTestFrustrum@@YAHHHH@Z ; SkillTestFrustrum
  001d8	83 c4 0c	 add	 esp, 12			; 0000000cH
  001db	85 c0		 test	 eax, eax
  001dd	74 42		 je	 SHORT $LN33@MLS_Knight

; 3873 : 						{
; 3874 : 							gObjAttack(lpObj,&gObj[tObjNum],lpMagic,0,1,0,isCombo,0,0);

  001df	8b 45 14	 mov	 eax, DWORD PTR _isCombo$[ebp]
  001e2	8b 4d 10	 mov	 ecx, DWORD PTR _lpMagic$[ebp]
  001e5	8b 15 00 00 00
	00		 mov	 edx, DWORD PTR ?gObj@@3PAUOBJECTSTRUCT@@A ; gObj
  001eb	6a 00		 push	 0
  001ed	6a 00		 push	 0
  001ef	50		 push	 eax
  001f0	6a 00		 push	 0
  001f2	6a 01		 push	 1
  001f4	6a 00		 push	 0
  001f6	51		 push	 ecx
  001f7	8d 04 17	 lea	 eax, DWORD PTR [edi+edx]
  001fa	50		 push	 eax
  001fb	56		 push	 esi
  001fc	e8 00 00 00 00	 call	 ?gObjAttack@@YAHPAUOBJECTSTRUCT@@0PAVCMagicInf@@HEHHEE@Z ; gObjAttack
  00201	83 c4 24	 add	 esp, 36			; 00000024H

; 3875 : 							if(isCombo != 0)

  00204	83 7d 14 00	 cmp	 DWORD PTR _isCombo$[ebp], 0
  00208	74 17		 je	 SHORT $LN33@MLS_Knight

; 3876 : 							{
; 3877 : 								GCMagicAttackNumberSend(lpObj,AT_SKILL_COMBO,gObj[tObjNum].m_Index,1);

  0020a	8b 0d 00 00 00
	00		 mov	 ecx, DWORD PTR ?gObj@@3PAUOBJECTSTRUCT@@A ; gObj
  00210	8b 14 0f	 mov	 edx, DWORD PTR [edi+ecx]
  00213	6a 01		 push	 1
  00215	52		 push	 edx
  00216	6a 3b		 push	 59			; 0000003bH
  00218	56		 push	 esi
  00219	e8 00 00 00 00	 call	 ?GCMagicAttackNumberSend@@YAXPAUOBJECTSTRUCT@@GHE@Z ; GCMagicAttackNumberSend
  0021e	83 c4 10	 add	 esp, 16			; 00000010H
$LN33@MLS_Knight:
  00221	8b 15 00 00 00
	00		 mov	 edx, DWORD PTR ?gObj@@3PAUOBJECTSTRUCT@@A ; gObj
$LN34@MLS_Knight:

; 3878 : 							}
; 3879 : 						}
; 3880 : 					}
; 3881 : 				}
; 3882 : 			}
; 3883 : 		}
; 3884 : 
; 3885 : 		count++;

  00227	43		 inc	 ebx

; 3886 : 		if(count > MAX_VIEWPORT -1)

  00228	83 fb 4a	 cmp	 ebx, 74			; 0000004aH
  0022b	0f 8e 94 fe ff
	ff		 jle	 $LL23@MLS_Knight

; 3887 : 		{
; 3888 : 			loopcount++;

  00231	8b 45 fc	 mov	 eax, DWORD PTR _loopcount$[ebp]
  00234	40		 inc	 eax

; 3889 : 			count = 0;

  00235	33 db		 xor	 ebx, ebx
  00237	89 45 fc	 mov	 DWORD PTR _loopcount$[ebp], eax

; 3890 : 			if(loopcount >= 3)

  0023a	83 f8 03	 cmp	 eax, 3

; 3891 : 			{
; 3892 : 				break;
; 3893 : 			}
; 3894 : 		}
; 3895 : 	}

  0023d	0f 8c 82 fe ff
	ff		 jl	 $LL23@MLS_Knight

; 3896 : 	return true;

  00243	5f		 pop	 edi
  00244	5e		 pop	 esi
  00245	8d 43 01	 lea	 eax, DWORD PTR [ebx+1]
  00248	5b		 pop	 ebx

; 3897 : }

  00249	8b e5		 mov	 esp, ebp
  0024b	5d		 pop	 ebp
  0024c	c2 10 00	 ret	 16			; 00000010H
?MLS_KnightBlow@CMasterLevelSkillTreeSystem@@QAEHHHPAVCMagicInf@@H@Z ENDP ; CMasterLevelSkillTreeSystem::MLS_KnightBlow
_TEXT	ENDS
PUBLIC	?MLS_SkillBlowOfFury@CMasterLevelSkillTreeSystem@@QAEXHPAVCMagicInf@@EEHH@Z ; CMasterLevelSkillTreeSystem::MLS_SkillBlowOfFury
; Function compile flags: /Ogtp
;	COMDAT ?MLS_SkillBlowOfFury@CMasterLevelSkillTreeSystem@@QAEXHPAVCMagicInf@@EEHH@Z
_TEXT	SEGMENT
_DuelIndex$ = -12					; size = 4
tv222 = -8						; size = 4
tv386 = -4						; size = 4
_aIndex$ = 8						; size = 4
_lpMagic$ = 12						; size = 4
_x$ = 16						; size = 1
_y$ = 20						; size = 1
_aTargetIndex$ = 24					; size = 4
_isCombo$ = 28						; size = 4
?MLS_SkillBlowOfFury@CMasterLevelSkillTreeSystem@@QAEXHPAVCMagicInf@@EEHH@Z PROC ; CMasterLevelSkillTreeSystem::MLS_SkillBlowOfFury, COMDAT
; _this$ = ecx

; 3900 : {

  00000	55		 push	 ebp
  00001	8b ec		 mov	 ebp, esp
  00003	83 ec 0c	 sub	 esp, 12			; 0000000cH

; 3901 : 	LPOBJ lpObj = &gObj[aIndex];

  00006	8b 15 00 00 00
	00		 mov	 edx, DWORD PTR ?gObj@@3PAUOBJECTSTRUCT@@A ; gObj
  0000c	53		 push	 ebx
  0000d	8b 5d 1c	 mov	 ebx, DWORD PTR _isCombo$[ebp]
  00010	56		 push	 esi
  00011	57		 push	 edi
  00012	8b 7d 08	 mov	 edi, DWORD PTR _aIndex$[ebp]
  00015	69 ff 50 2b 00
	00		 imul	 edi, 11088		; 00002b50H

; 3902 : 	int tObjNum;
; 3903 : 	int count = 0;
; 3904 : 	int DuelIndex = lpObj->m_iDuelUser;

  0001b	8b 84 17 b8 0e
	00 00		 mov	 eax, DWORD PTR [edi+edx+3768]
  00022	03 fa		 add	 edi, edx
  00024	89 45 f4	 mov	 DWORD PTR _DuelIndex$[ebp], eax
  00027	8d 87 b0 08 00
	00		 lea	 eax, DWORD PTR [edi+2224]
  0002d	89 45 fc	 mov	 DWORD PTR tv386[ebp], eax
  00030	c7 45 f8 4b 00
	00 00		 mov	 DWORD PTR tv222[ebp], 75 ; 0000004bH
  00037	eb 07 8d a4 24
	00 00 00 00	 npad	 9
$LL23@MLS_SkillB:

; 3905 : 	int HitCount = 0;
; 3906 : 	int bAttack = 0;
; 3907 : 	int EnableAttack;
; 3908 : 
; 3909 : 	while ( true )
; 3910 : 	{
; 3911 : 		if(lpObj->VpPlayer2[count].state != 0)

  00040	80 78 fc 00	 cmp	 BYTE PTR [eax-4], 0
  00044	0f 84 f7 00 00
	00		 je	 $LN35@MLS_SkillB

; 3912 : 		{
; 3913 : 			tObjNum = lpObj->VpPlayer2[count].number;

  0004a	0f bf 70 fe	 movsx	 esi, WORD PTR [eax-2]

; 3914 : 
; 3915 : 			if(tObjNum >= 0)

  0004e	85 f6		 test	 esi, esi
  00050	0f 88 eb 00 00
	00		 js	 $LN35@MLS_SkillB

; 3916 : 			{
; 3917 : 				EnableAttack = 0;
; 3918 : 
; 3919 : 				if(lpObj->VpPlayer2[count].type == OBJ_MONSTER && gObj[tObjNum].m_RecallMon < 0)

  00056	8a 00		 mov	 al, BYTE PTR [eax]
  00058	3c 02		 cmp	 al, 2
  0005a	75 16		 jne	 SHORT $LN19@MLS_SkillB
  0005c	8b ce		 mov	 ecx, esi
  0005e	69 c9 50 2b 00
	00		 imul	 ecx, 11088		; 00002b50H
  00064	83 bc 11 50 04
	00 00 00	 cmp	 DWORD PTR [ecx+edx+1104], 0

; 3920 : 				{
; 3921 : 					EnableAttack = 1;

  0006c	0f 8c 82 00 00
	00		 jl	 $LN16@MLS_SkillB
$LN19@MLS_SkillB:

; 3922 : 				}
; 3923 : 				else if(tObjNum == aTargetIndex || DuelIndex == tObjNum)

  00072	3b 75 18	 cmp	 esi, DWORD PTR _aTargetIndex$[ebp]
  00075	74 7d		 je	 SHORT $LN16@MLS_SkillB
  00077	39 75 f4	 cmp	 DWORD PTR _DuelIndex$[ebp], esi
  0007a	74 78		 je	 SHORT $LN16@MLS_SkillB

; 3924 : 				{
; 3925 : 					EnableAttack = 1;
; 3926 : 				}
; 3927 : 
; 3928 : 				else if(lpObj->VpPlayer2[count].type != OBJ_NPC && gObj[tObjNum].MapNumber == MAP_INDEX_CASTLESIEGE && g_CastleSiege.GetCastleState() == 7)

  0007c	3c 03		 cmp	 al, 3
  0007e	74 30		 je	 SHORT $LN14@MLS_SkillB
  00080	8b c6		 mov	 eax, esi
  00082	69 c0 50 2b 00
	00		 imul	 eax, 11088		; 00002b50H
  00088	80 bc 10 49 01
	00 00 1e	 cmp	 BYTE PTR [eax+edx+329], 30 ; 0000001eH
  00090	75 1e		 jne	 SHORT $LN14@MLS_SkillB
  00092	83 3d 28 00 00
	00 07		 cmp	 DWORD PTR ?g_CastleSiege@@3VCCastleSiege@@A+40, 7
  00099	75 15		 jne	 SHORT $LN14@MLS_SkillB

; 3929 : 				{
; 3930 : 					if( lpObj->m_btCsJoinSide != gObj[tObjNum].m_btCsJoinSide )

  0009b	8a 8f 02 1c 00
	00		 mov	 cl, BYTE PTR [edi+7170]
  000a1	3a 8c 10 02 1c
	00 00		 cmp	 cl, BYTE PTR [eax+edx+7170]
  000a8	0f 84 93 00 00
	00		 je	 $LN35@MLS_SkillB

; 3931 : 						EnableAttack = 1;
; 3932 : 				}
; 3933 : 
; 3934 : 				else

  000ae	eb 44		 jmp	 SHORT $LN16@MLS_SkillB
$LN14@MLS_SkillB:

; 3935 : 				{
; 3936 : 					int CallMonIndex = gObj[tObjNum].m_Index;

  000b0	8b ce		 mov	 ecx, esi
  000b2	69 c9 50 2b 00
	00		 imul	 ecx, 11088		; 00002b50H

; 3937 : 
; 3938 : 					if(gObj[tObjNum].Type == OBJ_MONSTER && gObj[tObjNum].m_RecallMon >= 0)

  000b8	66 83 7c 11 68
	02		 cmp	 WORD PTR [ecx+edx+104], 2
  000be	8b 04 11	 mov	 eax, DWORD PTR [ecx+edx]
  000c1	75 14		 jne	 SHORT $LN11@MLS_SkillB
  000c3	8b 8c 11 50 04
	00 00		 mov	 ecx, DWORD PTR [ecx+edx+1104]
  000ca	85 c9		 test	 ecx, ecx
  000cc	78 09		 js	 SHORT $LN11@MLS_SkillB

; 3939 : 					{
; 3940 : 						CallMonIndex = gObj[gObj[tObjNum].m_RecallMon].m_Index;

  000ce	69 c9 50 2b 00
	00		 imul	 ecx, 11088		; 00002b50H
  000d4	8b 04 11	 mov	 eax, DWORD PTR [ecx+edx]
$LN11@MLS_SkillB:

; 3941 : 					}
; 3942 : 
; 3943 : 					if(gObjTargetGuildWarCheck(lpObj,&gObj[CallMonIndex])==1)

  000d7	69 c0 50 2b 00
	00		 imul	 eax, 11088		; 00002b50H
  000dd	03 c2		 add	 eax, edx
  000df	50		 push	 eax
  000e0	57		 push	 edi
  000e1	e8 00 00 00 00	 call	 ?gObjTargetGuildWarCheck@@YAHPAUOBJECTSTRUCT@@0@Z ; gObjTargetGuildWarCheck
  000e6	83 c4 08	 add	 esp, 8
  000e9	83 f8 01	 cmp	 eax, 1
  000ec	75 4d		 jne	 SHORT $LN34@MLS_SkillB
  000ee	8b 15 00 00 00
	00		 mov	 edx, DWORD PTR ?gObj@@3PAUOBJECTSTRUCT@@A ; gObj
$LN16@MLS_SkillB:

; 3944 : 					{
; 3945 : 						EnableAttack = 1;
; 3946 : 					}
; 3947 : 				}
; 3948 : 
; 3949 : 				if(EnableAttack != 0)
; 3950 : 				{
; 3951 : 					if(gObjCalDistance(lpObj,&gObj[tObjNum]) < 4)

  000f4	8b ce		 mov	 ecx, esi
  000f6	69 c9 50 2b 00
	00		 imul	 ecx, 11088		; 00002b50H
  000fc	03 ca		 add	 ecx, edx
  000fe	51		 push	 ecx
  000ff	57		 push	 edi
  00100	e8 00 00 00 00	 call	 ?gObjCalDistance@@YAHPAUOBJECTSTRUCT@@0@Z ; gObjCalDistance
  00105	83 c4 08	 add	 esp, 8
  00108	83 f8 04	 cmp	 eax, 4
  0010b	7d 2e		 jge	 SHORT $LN34@MLS_SkillB

; 3952 : 					{
; 3953 : 						bAttack = 0;
; 3954 : 
; 3955 : 						if(HitCount > 15)
; 3956 : 						{
; 3957 : 							bAttack = 0;
; 3958 : 						}
; 3959 : 
; 3960 : 						if(HitCount >= 10)
; 3961 : 						{
; 3962 : 							if(rand()%2)
; 3963 : 							{
; 3964 : 								bAttack = 1;
; 3965 : 							}
; 3966 : 						}
; 3967 : 						else
; 3968 : 						{
; 3969 : 							bAttack = 1;
; 3970 : 						}
; 3971 : 
; 3972 : 						if(bAttack != 0)
; 3973 : 						{
; 3974 : 							gObjAddAttackProcMsgSendDelay(lpObj,50,tObjNum,500,lpMagic->m_Skill,isCombo);

  0010d	8b 55 0c	 mov	 edx, DWORD PTR _lpMagic$[ebp]
  00110	8b 42 08	 mov	 eax, DWORD PTR [edx+8]
  00113	53		 push	 ebx
  00114	50		 push	 eax
  00115	68 f4 01 00 00	 push	 500			; 000001f4H
  0011a	56		 push	 esi
  0011b	6a 32		 push	 50			; 00000032H
  0011d	57		 push	 edi
  0011e	e8 00 00 00 00	 call	 ?gObjAddAttackProcMsgSendDelay@@YAXPAUOBJECTSTRUCT@@HHHHH@Z ; gObjAddAttackProcMsgSendDelay
  00123	83 c4 18	 add	 esp, 24			; 00000018H

; 3975 : 
; 3976 : 							if(isCombo != 0)

  00126	85 db		 test	 ebx, ebx
  00128	74 11		 je	 SHORT $LN34@MLS_SkillB

; 3977 : 							{
; 3978 : 								GCMagicAttackNumberSend(lpObj,AT_SKILL_COMBO,aIndex,1);

  0012a	8b 4d 08	 mov	 ecx, DWORD PTR _aIndex$[ebp]
  0012d	6a 01		 push	 1
  0012f	51		 push	 ecx
  00130	6a 3b		 push	 59			; 0000003bH
  00132	57		 push	 edi
  00133	e8 00 00 00 00	 call	 ?GCMagicAttackNumberSend@@YAXPAUOBJECTSTRUCT@@GHE@Z ; GCMagicAttackNumberSend
  00138	83 c4 10	 add	 esp, 16			; 00000010H
$LN34@MLS_SkillB:
  0013b	8b 15 00 00 00
	00		 mov	 edx, DWORD PTR ?gObj@@3PAUOBJECTSTRUCT@@A ; gObj
$LN35@MLS_SkillB:

; 3979 : 							}
; 3980 : 						}
; 3981 : 					}
; 3982 : 				}
; 3983 : 			}
; 3984 : 		}
; 3985 : 
; 3986 : 		count++;

  00141	8b 45 fc	 mov	 eax, DWORD PTR tv386[ebp]
  00144	83 c0 0c	 add	 eax, 12			; 0000000cH

; 3987 : 		if(count > MAX_VIEWPORT -1)

  00147	ff 4d f8	 dec	 DWORD PTR tv222[ebp]
  0014a	89 45 fc	 mov	 DWORD PTR tv386[ebp], eax
  0014d	0f 85 ed fe ff
	ff		 jne	 $LL23@MLS_SkillB
  00153	5f		 pop	 edi
  00154	5e		 pop	 esi
  00155	5b		 pop	 ebx

; 3988 : 		{
; 3989 : 			break;
; 3990 : 		}
; 3991 : 	}
; 3992 : }

  00156	8b e5		 mov	 esp, ebp
  00158	5d		 pop	 ebp
  00159	c2 18 00	 ret	 24			; 00000018H
?MLS_SkillBlowOfFury@CMasterLevelSkillTreeSystem@@QAEXHPAVCMagicInf@@EEHH@Z ENDP ; CMasterLevelSkillTreeSystem::MLS_SkillBlowOfFury
_TEXT	ENDS
PUBLIC	?MLS_MaGumSkillDefenseDown@CMasterLevelSkillTreeSystem@@QAEXHH@Z ; CMasterLevelSkillTreeSystem::MLS_MaGumSkillDefenseDown
EXTRN	?gObjApplyBuffEffectDuration@@YAEPAUOBJECTSTRUCT@@HEHEHH@Z:PROC ; gObjApplyBuffEffectDuration
EXTRN	?retCalcSkillResistance@@YAHPAUOBJECTSTRUCT@@H@Z:PROC ; retCalcSkillResistance
; Function compile flags: /Ogtp
;	COMDAT ?MLS_MaGumSkillDefenseDown@CMasterLevelSkillTreeSystem@@QAEXHH@Z
_TEXT	SEGMENT
_aIndex$ = 8						; size = 4
_aTargetIndex$ = 12					; size = 4
?MLS_MaGumSkillDefenseDown@CMasterLevelSkillTreeSystem@@QAEXHH@Z PROC ; CMasterLevelSkillTreeSystem::MLS_MaGumSkillDefenseDown, COMDAT
; _this$ = ecx

; 4295 : {

  00000	55		 push	 ebp
  00001	8b ec		 mov	 ebp, esp

; 4296 : 	int skillSuccess = 1;
; 4297 : 	LPOBJ lpObj = &gObj[aIndex];

  00003	a1 00 00 00 00	 mov	 eax, DWORD PTR ?gObj@@3PAUOBJECTSTRUCT@@A ; gObj
  00008	56		 push	 esi

; 4298 : 	LPOBJ lpTargetObj = &gObj[aTargetIndex];

  00009	8b 75 0c	 mov	 esi, DWORD PTR _aTargetIndex$[ebp]
  0000c	57		 push	 edi
  0000d	69 f6 50 2b 00
	00		 imul	 esi, 11088		; 00002b50H
  00013	8b 7d 08	 mov	 edi, DWORD PTR _aIndex$[ebp]
  00016	69 ff 50 2b 00
	00		 imul	 edi, 11088		; 00002b50H
  0001c	03 f8		 add	 edi, eax
  0001e	03 f0		 add	 esi, eax

; 4299 : 
; 4300 : 	if(lpObj->Type == OBJ_USER && lpObj->Class != CLASS_MAGUMSA)

  00020	66 83 7f 68 01	 cmp	 WORD PTR [edi+104], 1
  00025	75 0a		 jne	 SHORT $LN2@MLS_MaGumS
  00027	66 83 bf b8 00
	00 00 03	 cmp	 WORD PTR [edi+184], 3
  0002f	75 34		 jne	 SHORT $LN1@MLS_MaGumS
$LN2@MLS_MaGumS:

; 4301 : 	{
; 4302 : 		return;
; 4303 : 	}
; 4304 : 
; 4305 : 	if( retCalcSkillResistance(lpTargetObj,R_POISON) )

  00031	6a 01		 push	 1
  00033	56		 push	 esi
  00034	e8 00 00 00 00	 call	 ?retCalcSkillResistance@@YAHPAUOBJECTSTRUCT@@H@Z ; retCalcSkillResistance
  00039	83 c4 08	 add	 esp, 8
  0003c	85 c0		 test	 eax, eax
  0003e	74 25		 je	 SHORT $LN1@MLS_MaGumS

; 4306 : 	{
; 4307 : 		gObjApplyBuffEffectDuration(lpTargetObj,58,23,10,0,0,10);

  00040	6a 0a		 push	 10			; 0000000aH
  00042	6a 00		 push	 0
  00044	6a 00		 push	 0
  00046	6a 0a		 push	 10			; 0000000aH
  00048	6a 17		 push	 23			; 00000017H
  0004a	6a 3a		 push	 58			; 0000003aH
  0004c	56		 push	 esi
  0004d	e8 00 00 00 00	 call	 ?gObjApplyBuffEffectDuration@@YAEPAUOBJECTSTRUCT@@HEHEHH@Z ; gObjApplyBuffEffectDuration

; 4308 : 		GCMagicAttackNumberSend(lpObj,490,lpTargetObj->m_Index,skillSuccess);

  00052	8b 06		 mov	 eax, DWORD PTR [esi]
  00054	6a 01		 push	 1
  00056	50		 push	 eax
  00057	68 ea 01 00 00	 push	 490			; 000001eaH
  0005c	57		 push	 edi
  0005d	e8 00 00 00 00	 call	 ?GCMagicAttackNumberSend@@YAXPAUOBJECTSTRUCT@@GHE@Z ; GCMagicAttackNumberSend
  00062	83 c4 2c	 add	 esp, 44			; 0000002cH
$LN1@MLS_MaGumS:
  00065	5f		 pop	 edi
  00066	5e		 pop	 esi

; 4309 : 	}
; 4310 : }

  00067	5d		 pop	 ebp
  00068	c2 08 00	 ret	 8
?MLS_MaGumSkillDefenseDown@CMasterLevelSkillTreeSystem@@QAEXHH@Z ENDP ; CMasterLevelSkillTreeSystem::MLS_MaGumSkillDefenseDown
_TEXT	ENDS
PUBLIC	?MLS_PowerSlash@CMasterLevelSkillTreeSystem@@QAEXHPAVCMagicInf@@EEEH@Z ; CMasterLevelSkillTreeSystem::MLS_PowerSlash
; Function compile flags: /Ogtp
;	COMDAT ?MLS_PowerSlash@CMasterLevelSkillTreeSystem@@QAEXHPAVCMagicInf@@EEEH@Z
_TEXT	SEGMENT
_DuelIndex$ = -8					; size = 4
tv264 = -4						; size = 4
tv64 = -4						; size = 4
_iSkillDis$ = -4					; size = 4
_aIndex$ = 8						; size = 4
_lpMagic$ = 12						; size = 4
_x$ = 16						; size = 1
_y$ = 20						; size = 1
tv463 = 24						; size = 4
_HitCount$ = 24						; size = 4
_Targetangle$ = 24					; size = 1
_aTargetIndex$ = 28					; size = 4
?MLS_PowerSlash@CMasterLevelSkillTreeSystem@@QAEXHPAVCMagicInf@@EEEH@Z PROC ; CMasterLevelSkillTreeSystem::MLS_PowerSlash, COMDAT
; _this$ = ecx

; 4338 : {

  00000	55		 push	 ebp
  00001	8b ec		 mov	 ebp, esp
  00003	83 ec 08	 sub	 esp, 8

; 4339 : 	LPOBJ lpObj = &gObj[aIndex];
; 4340 : 	int StartDis = 1;
; 4341 : 
; 4342 : 	int iSkillDis = MagicDamageC.GetSkillDistance(lpMagic->m_Skill);

  00006	8b 45 0c	 mov	 eax, DWORD PTR _lpMagic$[ebp]
  00009	53		 push	 ebx
  0000a	8b 5d 08	 mov	 ebx, DWORD PTR _aIndex$[ebp]
  0000d	56		 push	 esi
  0000e	57		 push	 edi
  0000f	8b fb		 mov	 edi, ebx
  00011	69 ff 50 2b 00
	00		 imul	 edi, 11088		; 00002b50H
  00017	03 3d 00 00 00
	00		 add	 edi, DWORD PTR ?gObj@@3PAUOBJECTSTRUCT@@A ; gObj
  0001d	8b f1		 mov	 esi, ecx
  0001f	8b 48 08	 mov	 ecx, DWORD PTR [eax+8]
  00022	51		 push	 ecx
  00023	b9 00 00 00 00	 mov	 ecx, OFFSET ?MagicDamageC@@3VCMagicDamage@@A ; MagicDamageC
  00028	e8 00 00 00 00	 call	 ?GetSkillDistance@CMagicDamage@@QAEHH@Z ; CMagicDamage::GetSkillDistance

; 4343 : 	float fAngle = Targetangle*360/255;
; 4344 : 	this->MLS_SkillFrustrum(aIndex,fAngle,iSkillDis+1.0f,iSkillDis+1.0f);

  0002d	0f b6 4d 18	 movzx	 ecx, BYTE PTR _Targetangle$[ebp]
  00031	69 c9 68 01 00
	00		 imul	 ecx, 360		; 00000168H
  00037	89 45 fc	 mov	 DWORD PTR _iSkillDis$[ebp], eax
  0003a	b8 81 80 80 80	 mov	 eax, -2139062143	; 80808081H
  0003f	f7 e9		 imul	 ecx
  00041	db 45 fc	 fild	 DWORD PTR _iSkillDis$[ebp]
  00044	dc 05 00 00 00
	00		 fadd	 QWORD PTR __real@3ff0000000000000
  0004a	d9 5d fc	 fstp	 DWORD PTR tv264[ebp]
  0004d	d9 45 fc	 fld	 DWORD PTR tv264[ebp]
  00050	03 d1		 add	 edx, ecx
  00052	c1 fa 07	 sar	 edx, 7
  00055	8b c2		 mov	 eax, edx
  00057	83 ec 0c	 sub	 esp, 12			; 0000000cH
  0005a	c1 e8 1f	 shr	 eax, 31			; 0000001fH
  0005d	03 c2		 add	 eax, edx
  0005f	d9 54 24 08	 fst	 DWORD PTR [esp+8]
  00063	89 45 18	 mov	 DWORD PTR tv463[ebp], eax
  00066	d9 5c 24 04	 fstp	 DWORD PTR [esp+4]
  0006a	8b ce		 mov	 ecx, esi
  0006c	db 45 18	 fild	 DWORD PTR tv463[ebp]
  0006f	d9 1c 24	 fstp	 DWORD PTR [esp]
  00072	53		 push	 ebx
  00073	e8 00 00 00 00	 call	 ?MLS_SkillFrustrum@CMasterLevelSkillTreeSystem@@QAEXHMMM@Z ; CMasterLevelSkillTreeSystem::MLS_SkillFrustrum

; 4345 : 
; 4346 : 	int tObjNum;
; 4347 : 	int count = 0;
; 4348 : 	int HitCount = 0;
; 4349 : 	int bAttack;
; 4350 : 	int DuelIndex = lpObj->m_iDuelUser;

  00078	8b 8f b8 0e 00
	00		 mov	 ecx, DWORD PTR [edi+3768]
  0007e	8b 15 00 00 00
	00		 mov	 edx, DWORD PTR ?gObj@@3PAUOBJECTSTRUCT@@A ; gObj
  00084	c7 45 18 00 00
	00 00		 mov	 DWORD PTR _HitCount$[ebp], 0
  0008b	89 4d f8	 mov	 DWORD PTR _DuelIndex$[ebp], ecx
  0008e	8d 9f b0 08 00
	00		 lea	 ebx, DWORD PTR [edi+2224]
  00094	c7 45 fc 4b 00
	00 00		 mov	 DWORD PTR tv64[ebp], 75	; 0000004bH
  0009b	eb 03 8d 49 00	 npad	 5
$LL22@MLS_PowerS:

; 4351 : 	int EnableAttack;
; 4352 : 
; 4353 : 	while ( true )
; 4354 : 	{
; 4355 : 		if(lpObj->VpPlayer2[count].state != 0)

  000a0	80 7b fc 00	 cmp	 BYTE PTR [ebx-4], 0
  000a4	0f 84 15 01 00
	00		 je	 $LN34@MLS_PowerS

; 4356 : 		{
; 4357 : 			tObjNum = lpObj->VpPlayer2[count].number;

  000aa	0f bf 73 fe	 movsx	 esi, WORD PTR [ebx-2]

; 4358 : 
; 4359 : 			if(tObjNum >= 0)

  000ae	85 f6		 test	 esi, esi
  000b0	0f 88 09 01 00
	00		 js	 $LN34@MLS_PowerS

; 4360 : 			{
; 4361 : 				EnableAttack = 0;
; 4362 : 
; 4363 : 				if(lpObj->VpPlayer2[count].type == OBJ_MONSTER && gObj[tObjNum].m_RecallMon < 0)

  000b6	8a 03		 mov	 al, BYTE PTR [ebx]
  000b8	3c 02		 cmp	 al, 2
  000ba	75 16		 jne	 SHORT $LN18@MLS_PowerS
  000bc	8b ce		 mov	 ecx, esi
  000be	69 c9 50 2b 00
	00		 imul	 ecx, 11088		; 00002b50H
  000c4	83 bc 11 50 04
	00 00 00	 cmp	 DWORD PTR [ecx+edx+1104], 0

; 4364 : 				{
; 4365 : 					EnableAttack = 1;

  000cc	0f 8c 82 00 00
	00		 jl	 $LN15@MLS_PowerS
$LN18@MLS_PowerS:

; 4366 : 				}
; 4367 : 				else if(tObjNum == aTargetIndex || DuelIndex == tObjNum)

  000d2	3b 75 1c	 cmp	 esi, DWORD PTR _aTargetIndex$[ebp]
  000d5	74 7d		 je	 SHORT $LN15@MLS_PowerS
  000d7	39 75 f8	 cmp	 DWORD PTR _DuelIndex$[ebp], esi
  000da	74 78		 je	 SHORT $LN15@MLS_PowerS

; 4368 : 				{
; 4369 : 					EnableAttack = 1;
; 4370 : 				}
; 4371 : 				else if(lpObj->VpPlayer2[count].type != OBJ_NPC && gObj[tObjNum].MapNumber == MAP_INDEX_CASTLESIEGE && g_CastleSiege.GetCastleState() == 7)

  000dc	3c 03		 cmp	 al, 3
  000de	74 30		 je	 SHORT $LN13@MLS_PowerS
  000e0	8b c6		 mov	 eax, esi
  000e2	69 c0 50 2b 00
	00		 imul	 eax, 11088		; 00002b50H
  000e8	03 c2		 add	 eax, edx
  000ea	80 b8 49 01 00
	00 1e		 cmp	 BYTE PTR [eax+329], 30	; 0000001eH
  000f1	75 1d		 jne	 SHORT $LN13@MLS_PowerS
  000f3	83 3d 28 00 00
	00 07		 cmp	 DWORD PTR ?g_CastleSiege@@3VCCastleSiege@@A+40, 7
  000fa	75 14		 jne	 SHORT $LN13@MLS_PowerS

; 4372 : 				{
; 4373 : 					if( lpObj->m_btCsJoinSide != gObj[tObjNum].m_btCsJoinSide )

  000fc	8a 8f 02 1c 00
	00		 mov	 cl, BYTE PTR [edi+7170]
  00102	3a 88 02 1c 00
	00		 cmp	 cl, BYTE PTR [eax+7170]
  00108	0f 84 b1 00 00
	00		 je	 $LN34@MLS_PowerS

; 4374 : 						EnableAttack = 1;
; 4375 : 				}
; 4376 : 				else

  0010e	eb 44		 jmp	 SHORT $LN15@MLS_PowerS
$LN13@MLS_PowerS:

; 4377 : 				{
; 4378 : 					int CallMonIndex = gObj[tObjNum].m_Index;

  00110	8b ce		 mov	 ecx, esi
  00112	69 c9 50 2b 00
	00		 imul	 ecx, 11088		; 00002b50H

; 4379 : 
; 4380 : 					if(gObj[tObjNum].Type == OBJ_MONSTER && gObj[tObjNum].m_RecallMon >= 0)

  00118	66 83 7c 11 68
	02		 cmp	 WORD PTR [ecx+edx+104], 2
  0011e	8b 04 11	 mov	 eax, DWORD PTR [ecx+edx]
  00121	75 14		 jne	 SHORT $LN10@MLS_PowerS
  00123	8b 8c 11 50 04
	00 00		 mov	 ecx, DWORD PTR [ecx+edx+1104]
  0012a	85 c9		 test	 ecx, ecx
  0012c	78 09		 js	 SHORT $LN10@MLS_PowerS

; 4381 : 					{
; 4382 : 						CallMonIndex = gObj[gObj[tObjNum].m_RecallMon].m_Index;

  0012e	69 c9 50 2b 00
	00		 imul	 ecx, 11088		; 00002b50H
  00134	8b 04 11	 mov	 eax, DWORD PTR [ecx+edx]
$LN10@MLS_PowerS:

; 4383 : 					}
; 4384 : 
; 4385 : 					if(gObjTargetGuildWarCheck(lpObj,&gObj[CallMonIndex])==1)

  00137	69 c0 50 2b 00
	00		 imul	 eax, 11088		; 00002b50H
  0013d	03 c2		 add	 eax, edx
  0013f	50		 push	 eax
  00140	57		 push	 edi
  00141	e8 00 00 00 00	 call	 ?gObjTargetGuildWarCheck@@YAHPAUOBJECTSTRUCT@@0@Z ; gObjTargetGuildWarCheck
  00146	83 c4 08	 add	 esp, 8
  00149	83 f8 01	 cmp	 eax, 1
  0014c	75 6b		 jne	 SHORT $LN33@MLS_PowerS
  0014e	8b 15 00 00 00
	00		 mov	 edx, DWORD PTR ?gObj@@3PAUOBJECTSTRUCT@@A ; gObj
$LN15@MLS_PowerS:

; 4386 : 					{
; 4387 : 						EnableAttack = 1;
; 4388 : 					}
; 4389 : 				}
; 4390 : 
; 4391 : 				if(EnableAttack != 0)
; 4392 : 				{
; 4393 : 					if(SkillTestFrustrum(gObj[tObjNum].X,gObj[tObjNum].Y,aIndex))

  00154	8b 4d 08	 mov	 ecx, DWORD PTR _aIndex$[ebp]
  00157	69 f6 50 2b 00
	00		 imul	 esi, 11088		; 00002b50H
  0015d	0f bf 84 16 46
	01 00 00	 movsx	 eax, WORD PTR [esi+edx+326]
  00165	51		 push	 ecx
  00166	0f bf 8c 16 44
	01 00 00	 movsx	 ecx, WORD PTR [esi+edx+324]
  0016e	50		 push	 eax
  0016f	51		 push	 ecx
  00170	e8 00 00 00 00	 call	 ?SkillTestFrustrum@@YAHHHH@Z ; SkillTestFrustrum
  00175	83 c4 0c	 add	 esp, 12			; 0000000cH
  00178	85 c0		 test	 eax, eax
  0017a	74 3d		 je	 SHORT $LN33@MLS_PowerS

; 4394 : 					{
; 4395 : 						bAttack = 0;
; 4396 : 
; 4397 : 						if(HitCount > 10)
; 4398 : 						{
; 4399 : 							bAttack = 0;
; 4400 : 						}
; 4401 : 						
; 4402 : 						if(HitCount >= 5)

  0017c	83 7d 18 05	 cmp	 DWORD PTR _HitCount$[ebp], 5
  00180	7c 13		 jl	 SHORT $LN5@MLS_PowerS

; 4403 : 						{
; 4404 : 							if(rand()%2)

  00182	e8 00 00 00 00	 call	 _rand
  00187	25 01 00 00 80	 and	 eax, -2147483647	; 80000001H
  0018c	79 05		 jns	 SHORT $LN37@MLS_PowerS
  0018e	48		 dec	 eax
  0018f	83 c8 fe	 or	 eax, -2			; fffffffeH
  00192	40		 inc	 eax
$LN37@MLS_PowerS:
  00193	74 21		 je	 SHORT $LN2@MLS_PowerS
$LN5@MLS_PowerS:

; 4405 : 							{
; 4406 : 								bAttack = 1;
; 4407 : 							}
; 4408 : 						}
; 4409 : 						else
; 4410 : 						{
; 4411 : 							bAttack = 1;
; 4412 : 						}
; 4413 : 
; 4414 : 						if(bAttack != 0)
; 4415 : 						{
; 4416 : 							gObjAttack(lpObj,&gObj[tObjNum],lpMagic,1,1,0,0,0,0);

  00195	8b 55 0c	 mov	 edx, DWORD PTR _lpMagic$[ebp]
  00198	a1 00 00 00 00	 mov	 eax, DWORD PTR ?gObj@@3PAUOBJECTSTRUCT@@A ; gObj
  0019d	6a 00		 push	 0
  0019f	6a 00		 push	 0
  001a1	6a 00		 push	 0
  001a3	6a 00		 push	 0
  001a5	6a 01		 push	 1
  001a7	6a 01		 push	 1
  001a9	52		 push	 edx
  001aa	03 f0		 add	 esi, eax
  001ac	56		 push	 esi
  001ad	57		 push	 edi
  001ae	e8 00 00 00 00	 call	 ?gObjAttack@@YAHPAUOBJECTSTRUCT@@0PAVCMagicInf@@HEHHEE@Z ; gObjAttack
  001b3	83 c4 24	 add	 esp, 36			; 00000024H
$LN2@MLS_PowerS:

; 4417 : 						}
; 4418 : 
; 4419 : 						HitCount++;

  001b6	ff 45 18	 inc	 DWORD PTR _HitCount$[ebp]
$LN33@MLS_PowerS:
  001b9	8b 15 00 00 00
	00		 mov	 edx, DWORD PTR ?gObj@@3PAUOBJECTSTRUCT@@A ; gObj
$LN34@MLS_PowerS:

; 4420 : 					}
; 4421 : 				}
; 4422 : 			}
; 4423 : 		}
; 4424 : 
; 4425 : 		count++;

  001bf	83 c3 0c	 add	 ebx, 12			; 0000000cH

; 4426 : 		if(count > MAX_VIEWPORT -1)

  001c2	ff 4d fc	 dec	 DWORD PTR tv64[ebp]
  001c5	0f 85 d5 fe ff
	ff		 jne	 $LL22@MLS_PowerS
  001cb	5f		 pop	 edi
  001cc	5e		 pop	 esi
  001cd	5b		 pop	 ebx

; 4427 : 		{
; 4428 : 			break;
; 4429 : 		}
; 4430 : 	}
; 4431 : }

  001ce	8b e5		 mov	 esp, ebp
  001d0	5d		 pop	 ebp
  001d1	c2 18 00	 ret	 24			; 00000018H
?MLS_PowerSlash@CMasterLevelSkillTreeSystem@@QAEXHPAVCMagicInf@@EEEH@Z ENDP ; CMasterLevelSkillTreeSystem::MLS_PowerSlash
_TEXT	ENDS
PUBLIC	?MLS_FireScream@CMasterLevelSkillTreeSystem@@QAEHHHPAVCMagicInf@@@Z ; CMasterLevelSkillTreeSystem::MLS_FireScream
EXTRN	?g_SkillAdditionInfo@@3VCSkillAdditionInfo@@A:BYTE ; g_SkillAdditionInfo
; Function compile flags: /Ogtp
;	COMDAT ?MLS_FireScream@CMasterLevelSkillTreeSystem@@QAEHHHPAVCMagicInf@@@Z
_TEXT	SEGMENT
_aIndex$ = 8						; size = 4
_aTargetIndex$ = 12					; size = 4
_lpMagic$ = 16						; size = 4
?MLS_FireScream@CMasterLevelSkillTreeSystem@@QAEHHHPAVCMagicInf@@@Z PROC ; CMasterLevelSkillTreeSystem::MLS_FireScream, COMDAT
; _this$ = ecx

; 4434 : {

  00000	55		 push	 ebp
  00001	8b ec		 mov	 ebp, esp

; 4435 : 	if(g_SkillAdditionInfo.GetFireScreamSkill() == false)

  00003	83 3d 1c 00 00
	00 00		 cmp	 DWORD PTR ?g_SkillAdditionInfo@@3VCSkillAdditionInfo@@A+28, 0
  0000a	75 06		 jne	 SHORT $LN4@MLS_FireSc

; 4436 : 	{
; 4437 : 		return false;

  0000c	33 c0		 xor	 eax, eax

; 4460 : }

  0000e	5d		 pop	 ebp
  0000f	c2 0c 00	 ret	 12			; 0000000cH
$LN4@MLS_FireSc:

; 4438 : 	}
; 4439 : 
; 4440 : 	LPOBJ lpObj = &gObj[aIndex];

  00012	a1 00 00 00 00	 mov	 eax, DWORD PTR ?gObj@@3PAUOBJECTSTRUCT@@A ; gObj
  00017	56		 push	 esi
  00018	8b 75 08	 mov	 esi, DWORD PTR _aIndex$[ebp]
  0001b	57		 push	 edi
  0001c	69 f6 50 2b 00
	00		 imul	 esi, 11088		; 00002b50H

; 4441 : 	LPOBJ lpTargetObj = &gObj[aTargetIndex];

  00022	8b 7d 0c	 mov	 edi, DWORD PTR _aTargetIndex$[ebp]
  00025	69 ff 50 2b 00
	00		 imul	 edi, 11088		; 00002b50H
  0002b	03 f0		 add	 esi, eax
  0002d	03 f8		 add	 edi, eax

; 4442 : 
; 4443 : 	if(gObjIsConnected(lpObj->m_Index) == false && gObjIsConnected(lpTargetObj->m_Index) == false)

  0002f	8b 06		 mov	 eax, DWORD PTR [esi]
  00031	50		 push	 eax
  00032	e8 00 00 00 00	 call	 ?gObjIsConnected@@YAHH@Z ; gObjIsConnected
  00037	83 c4 04	 add	 esp, 4
  0003a	85 c0		 test	 eax, eax
  0003c	75 0f		 jne	 SHORT $LN3@MLS_FireSc
  0003e	8b 0f		 mov	 ecx, DWORD PTR [edi]
  00040	51		 push	 ecx
  00041	e8 00 00 00 00	 call	 ?gObjIsConnected@@YAHH@Z ; gObjIsConnected
  00046	83 c4 04	 add	 esp, 4
  00049	85 c0		 test	 eax, eax

; 4444 : 	{
; 4445 : 		return false;

  0004b	74 11		 je	 SHORT $LN11@MLS_FireSc
$LN3@MLS_FireSc:

; 4446 : 	}
; 4447 : 
; 4448 : 	if(lpObj->Type != OBJ_USER)

  0004d	66 83 7e 68 01	 cmp	 WORD PTR [esi+104], 1

; 4449 : 	{
; 4450 : 		return false;

  00052	75 0a		 jne	 SHORT $LN11@MLS_FireSc

; 4451 : 	}
; 4452 : 
; 4453 : 	if(lpObj->Class != CLASS_DARKLORD)

  00054	66 83 be b8 00
	00 00 04	 cmp	 WORD PTR [esi+184], 4
  0005c	74 08		 je	 SHORT $LN1@MLS_FireSc
$LN11@MLS_FireSc:
  0005e	5f		 pop	 edi

; 4454 : 	{
; 4455 : 		return false;

  0005f	33 c0		 xor	 eax, eax
  00061	5e		 pop	 esi

; 4460 : }

  00062	5d		 pop	 ebp
  00063	c2 0c 00	 ret	 12			; 0000000cH
$LN1@MLS_FireSc:

; 4456 : 	}
; 4457 : 
; 4458 : 	gObjAttack(lpObj,lpTargetObj,lpMagic,0,0,0,0,0,0);

  00066	8b 55 10	 mov	 edx, DWORD PTR _lpMagic$[ebp]
  00069	6a 00		 push	 0
  0006b	6a 00		 push	 0
  0006d	6a 00		 push	 0
  0006f	6a 00		 push	 0
  00071	6a 00		 push	 0
  00073	6a 00		 push	 0
  00075	52		 push	 edx
  00076	57		 push	 edi
  00077	56		 push	 esi
  00078	e8 00 00 00 00	 call	 ?gObjAttack@@YAHPAUOBJECTSTRUCT@@0PAVCMagicInf@@HEHHEE@Z ; gObjAttack
  0007d	83 c4 24	 add	 esp, 36			; 00000024H
  00080	5f		 pop	 edi

; 4459 : 	return true;

  00081	b8 01 00 00 00	 mov	 eax, 1
  00086	5e		 pop	 esi

; 4460 : }

  00087	5d		 pop	 ebp
  00088	c2 0c 00	 ret	 12			; 0000000cH
?MLS_FireScream@CMasterLevelSkillTreeSystem@@QAEHHHPAVCMagicInf@@@Z ENDP ; CMasterLevelSkillTreeSystem::MLS_FireScream
_TEXT	ENDS
PUBLIC	?WeaponMagicDel@CMasterLevelSkillTreeSystem@@QAEHPAUOBJECTSTRUCT@@EE@Z ; CMasterLevelSkillTreeSystem::WeaponMagicDel
EXTRN	?GCMagicListOneDelSend@@YAXHDGEEE@Z:PROC	; GCMagicListOneDelSend
EXTRN	?IsItemAttachedSkill@CMagicDamage@@QAEEH@Z:PROC	; CMagicDamage::IsItemAttachedSkill
; Function compile flags: /Ogtp
;	COMDAT ?WeaponMagicDel@CMasterLevelSkillTreeSystem@@QAEHPAUOBJECTSTRUCT@@EE@Z
_TEXT	SEGMENT
_this$ = -4						; size = 4
_lpObj$ = 8						; size = 4
_aSkill$ = 12						; size = 1
_Level$ = 16						; size = 1
?WeaponMagicDel@CMasterLevelSkillTreeSystem@@QAEHPAUOBJECTSTRUCT@@EE@Z PROC ; CMasterLevelSkillTreeSystem::WeaponMagicDel, COMDAT
; _this$ = ecx

; 4464 : {

  00000	55		 push	 ebp
  00001	8b ec		 mov	 ebp, esp
  00003	51		 push	 ecx
  00004	53		 push	 ebx
  00005	56		 push	 esi
  00006	57		 push	 edi

; 4465 : 	int iBaseMLS = 0;
; 4466 : 
; 4467 : 	for( int iCount = 0; iCount < MAX_MAGIC; iCount++)

  00007	8b 7d 08	 mov	 edi, DWORD PTR _lpObj$[ebp]
  0000a	33 db		 xor	 ebx, ebx
  0000c	89 4d fc	 mov	 DWORD PTR _this$[ebp], ecx
  0000f	33 f6		 xor	 esi, esi
$LL7@WeaponMagi:

; 4468 : 	{
; 4469 : 		if( lpObj->Magic[iCount].IsMagic() == TRUE && 
; 4470 : 			this->CheckRequireStatus(lpObj->Magic[iCount].m_Skill) )

  00011	8b 8f c8 04 00
	00		 mov	 ecx, DWORD PTR [edi+1224]
  00017	03 ce		 add	 ecx, esi
  00019	e8 00 00 00 00	 call	 ?IsMagic@CMagicInf@@QAEHXZ ; CMagicInf::IsMagic
  0001e	83 f8 01	 cmp	 eax, 1
  00021	75 54		 jne	 SHORT $LN6@WeaponMagi
  00023	8b 87 c8 04 00
	00		 mov	 eax, DWORD PTR [edi+1224]
  00029	8b 4c 30 08	 mov	 ecx, DWORD PTR [eax+esi+8]
  0002d	51		 push	 ecx
  0002e	8b 4d fc	 mov	 ecx, DWORD PTR _this$[ebp]
  00031	e8 00 00 00 00	 call	 ?CheckRequireStatus@CMasterLevelSkillTreeSystem@@QAEHH@Z ; CMasterLevelSkillTreeSystem::CheckRequireStatus
  00036	85 c0		 test	 eax, eax
  00038	74 3d		 je	 SHORT $LN6@WeaponMagi

; 4471 : 		{
; 4472 : 			iBaseMLS = this->GetBaseMasterLevelSkill(lpObj->Magic[iCount].m_Skill);

  0003a	8b 97 c8 04 00
	00		 mov	 edx, DWORD PTR [edi+1224]
  00040	8b 44 32 08	 mov	 eax, DWORD PTR [edx+esi+8]
  00044	8b 4d fc	 mov	 ecx, DWORD PTR _this$[ebp]
  00047	50		 push	 eax
  00048	e8 00 00 00 00	 call	 ?GetBaseMasterLevelSkill@CMasterLevelSkillTreeSystem@@QAEHH@Z ; CMasterLevelSkillTreeSystem::GetBaseMasterLevelSkill

; 4473 : 
; 4474 : 			if( iBaseMLS > 0 )

  0004d	85 c0		 test	 eax, eax
  0004f	7e 26		 jle	 SHORT $LN6@WeaponMagi

; 4475 : 			{
; 4476 : 				WORD BrandSkill = MagicDamageC.GetSkillReqBrandOfSkill(iBaseMLS);

  00051	50		 push	 eax
  00052	b9 00 00 00 00	 mov	 ecx, OFFSET ?MagicDamageC@@3VCMagicDamage@@A ; MagicDamageC
  00057	e8 00 00 00 00	 call	 ?GetSkillReqBrandOfSkill@CMagicDamage@@QAEHH@Z ; CMagicDamage::GetSkillReqBrandOfSkill

; 4477 : 
; 4478 : 				if( aSkill ==  BrandSkill )

  0005c	0f b6 4d 0c	 movzx	 ecx, BYTE PTR _aSkill$[ebp]
  00060	0f b7 c0	 movzx	 eax, ax
  00063	66 3b c8	 cmp	 cx, ax
  00066	75 0f		 jne	 SHORT $LN6@WeaponMagi

; 4479 : 				{
; 4480 : 					BYTE byIsItemSkill = MagicDamageC.IsItemAttachedSkill(BrandSkill);

  00068	50		 push	 eax
  00069	b9 00 00 00 00	 mov	 ecx, OFFSET ?MagicDamageC@@3VCMagicDamage@@A ; MagicDamageC
  0006e	e8 00 00 00 00	 call	 ?IsItemAttachedSkill@CMagicDamage@@QAEEH@Z ; CMagicDamage::IsItemAttachedSkill

; 4481 : 
; 4482 : 					if( byIsItemSkill )

  00073	84 c0		 test	 al, al
  00075	75 17		 jne	 SHORT $LN11@WeaponMagi
$LN6@WeaponMagi:

; 4465 : 	int iBaseMLS = 0;
; 4466 : 
; 4467 : 	for( int iCount = 0; iCount < MAX_MAGIC; iCount++)

  00077	83 c6 18	 add	 esi, 24			; 00000018H
  0007a	43		 inc	 ebx
  0007b	81 fe 10 0e 00
	00		 cmp	 esi, 3600		; 00000e10H
  00081	7c 8e		 jl	 SHORT $LL7@WeaponMagi

; 4486 : 					}
; 4487 : 				}
; 4488 : 			}
; 4489 : 		}
; 4490 : 	}
; 4491 : 	return 0;

  00083	5f		 pop	 edi
  00084	5e		 pop	 esi
  00085	33 c0		 xor	 eax, eax
  00087	5b		 pop	 ebx

; 4492 : }

  00088	8b e5		 mov	 esp, ebp
  0008a	5d		 pop	 ebp
  0008b	c2 0c 00	 ret	 12			; 0000000cH
$LN11@WeaponMagi:

; 4483 : 					{
; 4484 : 						GCMagicListOneDelSend(lpObj->m_Index,iCount,lpObj->Magic[iCount].m_Skill,lpObj->Magic[iCount].m_Level,0,0);

  0008e	8b 8f c8 04 00
	00		 mov	 ecx, DWORD PTR [edi+1224]
  00094	8d 04 5b	 lea	 eax, DWORD PTR [ebx+ebx*2]
  00097	0f b6 54 c1 04	 movzx	 edx, BYTE PTR [ecx+eax*8+4]
  0009c	8d 04 c1	 lea	 eax, DWORD PTR [ecx+eax*8]
  0009f	0f b7 40 08	 movzx	 eax, WORD PTR [eax+8]
  000a3	8b 0f		 mov	 ecx, DWORD PTR [edi]
  000a5	6a 00		 push	 0
  000a7	6a 00		 push	 0
  000a9	52		 push	 edx
  000aa	50		 push	 eax
  000ab	53		 push	 ebx
  000ac	51		 push	 ecx
  000ad	e8 00 00 00 00	 call	 ?GCMagicListOneDelSend@@YAXHDGEEE@Z ; GCMagicListOneDelSend
  000b2	83 c4 18	 add	 esp, 24			; 00000018H
  000b5	5f		 pop	 edi
  000b6	5e		 pop	 esi

; 4485 : 						return true;

  000b7	b8 01 00 00 00	 mov	 eax, 1
  000bc	5b		 pop	 ebx

; 4492 : }

  000bd	8b e5		 mov	 esp, ebp
  000bf	5d		 pop	 ebp
  000c0	c2 0c 00	 ret	 12			; 0000000cH
?WeaponMagicDel@CMasterLevelSkillTreeSystem@@QAEHPAUOBJECTSTRUCT@@EE@Z ENDP ; CMasterLevelSkillTreeSystem::WeaponMagicDel
_TEXT	ENDS
PUBLIC	?WeaponMagicAdd@CMasterLevelSkillTreeSystem@@QAEHPAUOBJECTSTRUCT@@EE@Z ; CMasterLevelSkillTreeSystem::WeaponMagicAdd
; Function compile flags: /Ogtp
;	COMDAT ?WeaponMagicAdd@CMasterLevelSkillTreeSystem@@QAEHPAUOBJECTSTRUCT@@EE@Z
_TEXT	SEGMENT
_this$ = -8						; size = 4
_iCount$217980 = -4					; size = 4
_lpObj$ = 8						; size = 4
_aSkill$ = 12						; size = 1
_Level$ = 16						; size = 1
?WeaponMagicAdd@CMasterLevelSkillTreeSystem@@QAEHPAUOBJECTSTRUCT@@EE@Z PROC ; CMasterLevelSkillTreeSystem::WeaponMagicAdd, COMDAT
; _this$ = ecx

; 4496 : {

  00000	55		 push	 ebp
  00001	8b ec		 mov	 ebp, esp
  00003	83 ec 08	 sub	 esp, 8
  00006	53		 push	 ebx

; 4497 : 	int iBaseMLS = 0;
; 4498 : 
; 4499 : 	for(int iCount = 0; iCount < MAX_MAGIC; iCount++)

  00007	8b 5d 08	 mov	 ebx, DWORD PTR _lpObj$[ebp]
  0000a	56		 push	 esi
  0000b	57		 push	 edi
  0000c	8b f9		 mov	 edi, ecx
  0000e	33 f6		 xor	 esi, esi
  00010	89 7d f8	 mov	 DWORD PTR _this$[ebp], edi
  00013	89 75 fc	 mov	 DWORD PTR _iCount$217980[ebp], esi
  00016	eb 08 8d a4 24
	00 00 00 00 90	 npad	 10
$LL5@WeaponMagi@2:

; 4500 : 	{
; 4501 : 		if( lpObj->Magic[iCount].IsMagic() == TRUE && 
; 4502 : 			this->CheckRequireStatus(lpObj->Magic[iCount].m_Skill) )

  00020	8b 8b c8 04 00
	00		 mov	 ecx, DWORD PTR [ebx+1224]
  00026	03 ce		 add	 ecx, esi
  00028	e8 00 00 00 00	 call	 ?IsMagic@CMagicInf@@QAEHXZ ; CMagicInf::IsMagic
  0002d	83 f8 01	 cmp	 eax, 1
  00030	75 52		 jne	 SHORT $LN4@WeaponMagi@2
  00032	8b 83 c8 04 00
	00		 mov	 eax, DWORD PTR [ebx+1224]
  00038	8b 4c 30 08	 mov	 ecx, DWORD PTR [eax+esi+8]
  0003c	51		 push	 ecx
  0003d	8b cf		 mov	 ecx, edi
  0003f	e8 00 00 00 00	 call	 ?CheckRequireStatus@CMasterLevelSkillTreeSystem@@QAEHH@Z ; CMasterLevelSkillTreeSystem::CheckRequireStatus
  00044	85 c0		 test	 eax, eax
  00046	74 3c		 je	 SHORT $LN4@WeaponMagi@2

; 4503 : 		{
; 4504 : 			iBaseMLS = this->GetBaseMasterLevelSkill(lpObj->Magic[iCount].m_Skill);

  00048	8b 93 c8 04 00
	00		 mov	 edx, DWORD PTR [ebx+1224]
  0004e	8b 44 32 08	 mov	 eax, DWORD PTR [edx+esi+8]
  00052	50		 push	 eax
  00053	8b cf		 mov	 ecx, edi
  00055	e8 00 00 00 00	 call	 ?GetBaseMasterLevelSkill@CMasterLevelSkillTreeSystem@@QAEHH@Z ; CMasterLevelSkillTreeSystem::GetBaseMasterLevelSkill
  0005a	8b f8		 mov	 edi, eax

; 4505 : 
; 4506 : 			if( iBaseMLS > 0 
; 4507 : 				&& aSkill == MagicDamageC.GetSkillReqBrandOfSkill(iBaseMLS) 
; 4508 : 				&& !this->CheckPrimarySkill(lpObj, iBaseMLS) )	//1.01.03

  0005c	85 ff		 test	 edi, edi
  0005e	7e 21		 jle	 SHORT $LN11@WeaponMagi@2
  00060	57		 push	 edi
  00061	b9 00 00 00 00	 mov	 ecx, OFFSET ?MagicDamageC@@3VCMagicDamage@@A ; MagicDamageC
  00066	e8 00 00 00 00	 call	 ?GetSkillReqBrandOfSkill@CMagicDamage@@QAEHH@Z ; CMagicDamage::GetSkillReqBrandOfSkill
  0006b	0f b6 4d 0c	 movzx	 ecx, BYTE PTR _aSkill$[ebp]
  0006f	3b c8		 cmp	 ecx, eax
  00071	75 0e		 jne	 SHORT $LN11@WeaponMagi@2
  00073	8b 4d f8	 mov	 ecx, DWORD PTR _this$[ebp]
  00076	57		 push	 edi
  00077	53		 push	 ebx
  00078	e8 00 00 00 00	 call	 ?CheckPrimarySkill@CMasterLevelSkillTreeSystem@@QAEHPAUOBJECTSTRUCT@@H@Z ; CMasterLevelSkillTreeSystem::CheckPrimarySkill
  0007d	85 c0		 test	 eax, eax
  0007f	74 1c		 je	 SHORT $LN9@WeaponMagi@2
$LN11@WeaponMagi@2:
  00081	8b 7d f8	 mov	 edi, DWORD PTR _this$[ebp]
$LN4@WeaponMagi@2:

; 4497 : 	int iBaseMLS = 0;
; 4498 : 
; 4499 : 	for(int iCount = 0; iCount < MAX_MAGIC; iCount++)

  00084	ff 45 fc	 inc	 DWORD PTR _iCount$217980[ebp]
  00087	83 c6 18	 add	 esi, 24			; 00000018H
  0008a	81 fe 10 0e 00
	00		 cmp	 esi, 3600		; 00000e10H
  00090	7c 8e		 jl	 SHORT $LL5@WeaponMagi@2

; 4512 : 			}
; 4513 : 		}
; 4514 : 	}
; 4515 : 	return 0;

  00092	5f		 pop	 edi
  00093	5e		 pop	 esi
  00094	33 c0		 xor	 eax, eax
  00096	5b		 pop	 ebx

; 4516 : }

  00097	8b e5		 mov	 esp, ebp
  00099	5d		 pop	 ebp
  0009a	c2 0c 00	 ret	 12			; 0000000cH
$LN9@WeaponMagi@2:

; 4509 : 			{
; 4510 : 				GCMagicListOneSend(lpObj->m_Index,iCount,lpObj->Magic[iCount].m_Skill,lpObj->Magic[iCount].m_Level,0,0);

  0009d	8b 4d fc	 mov	 ecx, DWORD PTR _iCount$217980[ebp]
  000a0	8b 83 c8 04 00
	00		 mov	 eax, DWORD PTR [ebx+1224]
  000a6	8d 14 49	 lea	 edx, DWORD PTR [ecx+ecx*2]
  000a9	8d 04 d0	 lea	 eax, DWORD PTR [eax+edx*8]
  000ac	0f b6 50 04	 movzx	 edx, BYTE PTR [eax+4]
  000b0	0f b7 40 08	 movzx	 eax, WORD PTR [eax+8]
  000b4	6a 00		 push	 0
  000b6	6a 00		 push	 0
  000b8	52		 push	 edx
  000b9	50		 push	 eax
  000ba	51		 push	 ecx
  000bb	8b 0b		 mov	 ecx, DWORD PTR [ebx]
  000bd	51		 push	 ecx
  000be	e8 00 00 00 00	 call	 ?GCMagicListOneSend@@YAXHDGEGE@Z ; GCMagicListOneSend
  000c3	83 c4 18	 add	 esp, 24			; 00000018H
  000c6	5f		 pop	 edi
  000c7	5e		 pop	 esi

; 4511 : 				return true;

  000c8	b8 01 00 00 00	 mov	 eax, 1
  000cd	5b		 pop	 ebx

; 4516 : }

  000ce	8b e5		 mov	 esp, ebp
  000d0	5d		 pop	 ebp
  000d1	c2 0c 00	 ret	 12			; 0000000cH
?WeaponMagicAdd@CMasterLevelSkillTreeSystem@@QAEHPAUOBJECTSTRUCT@@EE@Z ENDP ; CMasterLevelSkillTreeSystem::WeaponMagicAdd
_TEXT	ENDS
PUBLIC	?GetWeaponMagicSearch@CMasterLevelSkillTreeSystem@@QAEHPAUOBJECTSTRUCT@@H@Z ; CMasterLevelSkillTreeSystem::GetWeaponMagicSearch
EXTRN	?IsItem@CItem@@QAEHXZ:PROC			; CItem::IsItem
EXTRN	?GetSkillType@CMagicDamage@@QAEHH@Z:PROC	; CMagicDamage::GetSkillType
; Function compile flags: /Ogtp
;	COMDAT ?GetWeaponMagicSearch@CMasterLevelSkillTreeSystem@@QAEHPAUOBJECTSTRUCT@@H@Z
_TEXT	SEGMENT
_lpObj$ = 8						; size = 4
_nCount$ = 12						; size = 4
?GetWeaponMagicSearch@CMasterLevelSkillTreeSystem@@QAEHPAUOBJECTSTRUCT@@H@Z PROC ; CMasterLevelSkillTreeSystem::GetWeaponMagicSearch, COMDAT
; _this$ = ecx

; 4519 : {

  00000	55		 push	 ebp
  00001	8b ec		 mov	 ebp, esp

; 4520 : 	int iBaseMLS = 0;
; 4521 : 
; 4522 : 	if( this->CheckRequireStatus(lpObj->Magic[nCount].m_Skill) )

  00003	8b 45 0c	 mov	 eax, DWORD PTR _nCount$[ebp]
  00006	53		 push	 ebx
  00007	56		 push	 esi
  00008	8d 34 40	 lea	 esi, DWORD PTR [eax+eax*2]
  0000b	57		 push	 edi
  0000c	8b 7d 08	 mov	 edi, DWORD PTR _lpObj$[ebp]
  0000f	8b 87 c8 04 00
	00		 mov	 eax, DWORD PTR [edi+1224]
  00015	03 f6		 add	 esi, esi
  00017	03 f6		 add	 esi, esi
  00019	8b d9		 mov	 ebx, ecx
  0001b	03 f6		 add	 esi, esi
  0001d	8b 4c 06 08	 mov	 ecx, DWORD PTR [esi+eax+8]
  00021	51		 push	 ecx
  00022	8b cb		 mov	 ecx, ebx
  00024	e8 00 00 00 00	 call	 ?CheckRequireStatus@CMasterLevelSkillTreeSystem@@QAEHH@Z ; CMasterLevelSkillTreeSystem::CheckRequireStatus
  00029	85 c0		 test	 eax, eax
  0002b	0f 84 a8 00 00
	00		 je	 $LN9@GetWeaponM

; 4523 : 	{
; 4524 : 		iBaseMLS = this->GetBaseMasterLevelSkill(lpObj->Magic[nCount].m_Skill);

  00031	8b 97 c8 04 00
	00		 mov	 edx, DWORD PTR [edi+1224]
  00037	8b 44 16 08	 mov	 eax, DWORD PTR [esi+edx+8]
  0003b	50		 push	 eax
  0003c	8b cb		 mov	 ecx, ebx
  0003e	e8 00 00 00 00	 call	 ?GetBaseMasterLevelSkill@CMasterLevelSkillTreeSystem@@QAEHH@Z ; CMasterLevelSkillTreeSystem::GetBaseMasterLevelSkill
  00043	8b d8		 mov	 ebx, eax

; 4525 : 
; 4526 : 		if( iBaseMLS > 0 && 
; 4527 : 			MagicDamageC.GetSkillType(iBaseMLS) == 4 )

  00045	85 db		 test	 ebx, ebx
  00047	0f 8e 8c 00 00
	00		 jle	 $LN9@GetWeaponM
  0004d	53		 push	 ebx
  0004e	b9 00 00 00 00	 mov	 ecx, OFFSET ?MagicDamageC@@3VCMagicDamage@@A ; MagicDamageC
  00053	e8 00 00 00 00	 call	 ?GetSkillType@CMagicDamage@@QAEHH@Z ; CMagicDamage::GetSkillType
  00058	83 f8 04	 cmp	 eax, 4
  0005b	75 7c		 jne	 SHORT $LN9@GetWeaponM

; 4528 : 		{
; 4529 : 			WORD BrandSkill = MagicDamageC.GetSkillReqBrandOfSkill(iBaseMLS);

  0005d	53		 push	 ebx
  0005e	b9 00 00 00 00	 mov	 ecx, OFFSET ?MagicDamageC@@3VCMagicDamage@@A ; MagicDamageC
  00063	e8 00 00 00 00	 call	 ?GetSkillReqBrandOfSkill@CMagicDamage@@QAEHH@Z ; CMagicDamage::GetSkillReqBrandOfSkill

; 4530 : 			BYTE byIsItemSkill = MagicDamageC.IsItemAttachedSkill(lpObj->Magic[nCount].m_Skill);

  00068	8b 8f c8 04 00
	00		 mov	 ecx, DWORD PTR [edi+1224]
  0006e	8b 54 0e 08	 mov	 edx, DWORD PTR [esi+ecx+8]
  00072	52		 push	 edx
  00073	b9 00 00 00 00	 mov	 ecx, OFFSET ?MagicDamageC@@3VCMagicDamage@@A ; MagicDamageC
  00078	0f b7 d8	 movzx	 ebx, ax
  0007b	e8 00 00 00 00	 call	 ?IsItemAttachedSkill@CMagicDamage@@QAEEH@Z ; CMagicDamage::IsItemAttachedSkill

; 4531 : 
; 4532 : 			if( byIsItemSkill )

  00080	84 c0		 test	 al, al
  00082	74 55		 je	 SHORT $LN9@GetWeaponM

; 4533 : 			{
; 4534 : 				int bUseSkill = 0;
; 4535 : 
; 4536 : 				if( lpObj->pInventory[1].IsItem() == TRUE &&
; 4537 : 					lpObj->pInventory[1].m_Special[0] == BrandSkill )

  00084	8b 8f 24 0e 00
	00		 mov	 ecx, DWORD PTR [edi+3620]
  0008a	81 c1 d4 00 00
	00		 add	 ecx, 212		; 000000d4H
  00090	33 f6		 xor	 esi, esi
  00092	e8 00 00 00 00	 call	 ?IsItem@CItem@@QAEHXZ	; CItem::IsItem
  00097	83 f8 01	 cmp	 eax, 1
  0009a	75 14		 jne	 SHORT $LN3@GetWeaponM
  0009c	8b 87 24 0e 00
	00		 mov	 eax, DWORD PTR [edi+3620]
  000a2	66 39 98 06 01
	00 00		 cmp	 WORD PTR [eax+262], bx
  000a9	75 05		 jne	 SHORT $LN3@GetWeaponM

; 4538 : 					bUseSkill = TRUE;

  000ab	be 01 00 00 00	 mov	 esi, 1
$LN3@GetWeaponM:

; 4539 : 
; 4540 : 				if( lpObj->pInventory[0].IsItem() == TRUE &&
; 4541 : 					lpObj->pInventory[0].m_Special[0] == BrandSkill )

  000b0	8b 8f 24 0e 00
	00		 mov	 ecx, DWORD PTR [edi+3620]
  000b6	e8 00 00 00 00	 call	 ?IsItem@CItem@@QAEHXZ	; CItem::IsItem
  000bb	83 f8 01	 cmp	 eax, 1
  000be	75 0c		 jne	 SHORT $LN2@GetWeaponM
  000c0	8b 8f 24 0e 00
	00		 mov	 ecx, DWORD PTR [edi+3620]
  000c6	66 39 59 32	 cmp	 WORD PTR [ecx+50], bx

; 4542 : 					bUseSkill = TRUE;
; 4543 : 
; 4544 : 				if( bUseSkill == 0 )

  000ca	74 0d		 je	 SHORT $LN9@GetWeaponM
$LN2@GetWeaponM:
  000cc	85 f6		 test	 esi, esi
  000ce	75 09		 jne	 SHORT $LN9@GetWeaponM

; 4545 : 					return false;

  000d0	5f		 pop	 edi
  000d1	5e		 pop	 esi
  000d2	33 c0		 xor	 eax, eax
  000d4	5b		 pop	 ebx

; 4551 : }

  000d5	5d		 pop	 ebp
  000d6	c2 08 00	 ret	 8
$LN9@GetWeaponM:
  000d9	5f		 pop	 edi
  000da	5e		 pop	 esi

; 4546 : 			}
; 4547 : 		}
; 4548 : 	}
; 4549 : 
; 4550 : return true;

  000db	b8 01 00 00 00	 mov	 eax, 1
  000e0	5b		 pop	 ebx

; 4551 : }

  000e1	5d		 pop	 ebp
  000e2	c2 08 00	 ret	 8
?GetWeaponMagicSearch@CMasterLevelSkillTreeSystem@@QAEHPAUOBJECTSTRUCT@@H@Z ENDP ; CMasterLevelSkillTreeSystem::GetWeaponMagicSearch
_TEXT	ENDS
PUBLIC	?MLS_SkillSleep@CMasterLevelSkillTreeSystem@@QAEHHHPAVCMagicInf@@@Z ; CMasterLevelSkillTreeSystem::MLS_SkillSleep
EXTRN	?gCheckSkillDistance@@YAHHHH@Z:PROC		; gCheckSkillDistance
; Function compile flags: /Ogtp
;	COMDAT ?MLS_SkillSleep@CMasterLevelSkillTreeSystem@@QAEHHHPAVCMagicInf@@@Z
_TEXT	SEGMENT
_DuelIndex$ = -12					; size = 4
tv467 = -8						; size = 4
_count$ = -4						; size = 4
_aIndex$ = 8						; size = 4
_aTargetIndex$ = 12					; size = 4
_lpMagic$ = 16						; size = 4
?MLS_SkillSleep@CMasterLevelSkillTreeSystem@@QAEHHHPAVCMagicInf@@@Z PROC ; CMasterLevelSkillTreeSystem::MLS_SkillSleep, COMDAT
; _this$ = ecx

; 4554 : {

  00000	55		 push	 ebp
  00001	8b ec		 mov	 ebp, esp
  00003	83 ec 0c	 sub	 esp, 12			; 0000000cH

; 4555 : 	LPOBJ lpObj = &gObj[aIndex];
; 4556 : 	int bRet = FALSE;
; 4557 : 	int tObjNum;
; 4558 : 
; 4559 : 	int Angle = this->MLS_GetAngle(lpObj->X,lpObj->Y,gObj[aTargetIndex].X,gObj[aTargetIndex].Y);
; 4560 : 	int count = 0;
; 4561 : 
; 4562 : 	GCMagicAttackNumberSend(lpObj,lpMagic->m_Skill,aTargetIndex,1);

  00006	8b 4d 10	 mov	 ecx, DWORD PTR _lpMagic$[ebp]
  00009	8b 45 0c	 mov	 eax, DWORD PTR _aTargetIndex$[ebp]
  0000c	0f b7 51 08	 movzx	 edx, WORD PTR [ecx+8]
  00010	53		 push	 ebx
  00011	56		 push	 esi
  00012	8b 75 08	 mov	 esi, DWORD PTR _aIndex$[ebp]
  00015	69 f6 50 2b 00
	00		 imul	 esi, 11088		; 00002b50H
  0001b	03 35 00 00 00
	00		 add	 esi, DWORD PTR ?gObj@@3PAUOBJECTSTRUCT@@A ; gObj
  00021	57		 push	 edi
  00022	6a 01		 push	 1
  00024	50		 push	 eax
  00025	52		 push	 edx
  00026	56		 push	 esi
  00027	c7 45 fc 00 00
	00 00		 mov	 DWORD PTR _count$[ebp], 0
  0002e	e8 00 00 00 00	 call	 ?GCMagicAttackNumberSend@@YAXPAUOBJECTSTRUCT@@GHE@Z ; GCMagicAttackNumberSend

; 4563 : 
; 4564 : 	int DuelIndex = lpObj->m_iDuelUser;

  00033	8b 86 b8 0e 00
	00		 mov	 eax, DWORD PTR [esi+3768]
  00039	8b 15 00 00 00
	00		 mov	 edx, DWORD PTR ?gObj@@3PAUOBJECTSTRUCT@@A ; gObj
  0003f	89 45 f4	 mov	 DWORD PTR _DuelIndex$[ebp], eax
  00042	8d 86 b0 08 00
	00		 lea	 eax, DWORD PTR [esi+2224]
  00048	83 c4 10	 add	 esp, 16			; 00000010H
  0004b	89 45 f8	 mov	 DWORD PTR tv467[ebp], eax
  0004e	8b ff		 npad	 2
$LL19@MLS_SkillS@10:

; 4565 : 	int EnableAttack;
; 4566 : 
; 4567 : 	while( TRUE )
; 4568 : 	{
; 4569 : 		if(lpObj->VpPlayer2[count].state != 0)

  00050	80 78 fc 00	 cmp	 BYTE PTR [eax-4], 0
  00054	0f 84 0c 01 00
	00		 je	 $LN42@MLS_SkillS@10

; 4570 : 		{
; 4571 : 			tObjNum = lpObj->VpPlayer2[count].number;

  0005a	0f bf 78 fe	 movsx	 edi, WORD PTR [eax-2]

; 4572 : 
; 4573 : 			if( tObjNum >= 0 )

  0005e	85 ff		 test	 edi, edi
  00060	0f 88 00 01 00
	00		 js	 $LN42@MLS_SkillS@10

; 4574 : 			{
; 4575 : 				EnableAttack = 0;
; 4576 : 
; 4577 : 				if(lpObj->VpPlayer2[count].type == OBJ_MONSTER && gObj[tObjNum].m_RecallMon < 0)

  00066	8a 18		 mov	 bl, BYTE PTR [eax]
  00068	80 fb 02	 cmp	 bl, 2
  0006b	75 16		 jne	 SHORT $LN15@MLS_SkillS@10
  0006d	8b cf		 mov	 ecx, edi
  0006f	69 c9 50 2b 00
	00		 imul	 ecx, 11088		; 00002b50H
  00075	83 bc 11 50 04
	00 00 00	 cmp	 DWORD PTR [ecx+edx+1104], 0

; 4578 : 				{
; 4579 : 					EnableAttack = 1;

  0007d	0f 8c bd 00 00
	00		 jl	 $LN40@MLS_SkillS@10
$LN15@MLS_SkillS@10:

; 4580 : 				}
; 4581 : 				else if(tObjNum == aTargetIndex || DuelIndex == tObjNum)

  00083	3b 7d 0c	 cmp	 edi, DWORD PTR _aTargetIndex$[ebp]
  00086	0f 84 b9 00 00
	00		 je	 $LN37@MLS_SkillS@10
  0008c	39 7d f4	 cmp	 DWORD PTR _DuelIndex$[ebp], edi
  0008f	0f 84 ab 00 00
	00		 je	 $LN40@MLS_SkillS@10

; 4582 : 				{
; 4583 : 					EnableAttack = 1;
; 4584 : 				}
; 4585 : 				else if( CC_MAP_RANGE(lpObj->MapNumber) ||
; 4586 : 						 IT_MAP_RANGE(lpObj->MapNumber) ||
; 4587 : 						 lpObj->MapNumber == MAP_INDEX_VULCAN )

  00095	8a 86 49 01 00
	00		 mov	 al, BYTE PTR [esi+329]
  0009b	3c 35		 cmp	 al, 53			; 00000035H
  0009d	0f 84 9d 00 00
	00		 je	 $LN40@MLS_SkillS@10
  000a3	3c 12		 cmp	 al, 18			; 00000012H
  000a5	72 10		 jb	 SHORT $LN35@MLS_SkillS@10
  000a7	b9 17 00 00 00	 mov	 ecx, 23			; 00000017H
  000ac	3a c8		 cmp	 cl, al
  000ae	1b c9		 sbb	 ecx, ecx
  000b0	41		 inc	 ecx
  000b1	0f 85 89 00 00
	00		 jne	 $LN40@MLS_SkillS@10
$LN35@MLS_SkillS@10:
  000b7	3c 2d		 cmp	 al, 45			; 0000002dH
  000b9	72 0c		 jb	 SHORT $LN36@MLS_SkillS@10
  000bb	b9 32 00 00 00	 mov	 ecx, 50			; 00000032H
  000c0	3a c8		 cmp	 cl, al
  000c2	1b c9		 sbb	 ecx, ecx
  000c4	41		 inc	 ecx
  000c5	75 79		 jne	 SHORT $LN40@MLS_SkillS@10
$LN36@MLS_SkillS@10:
  000c7	3c 3f		 cmp	 al, 63			; 0000003fH
  000c9	74 75		 je	 SHORT $LN40@MLS_SkillS@10

; 4588 : 				{
; 4589 : 					EnableAttack = 1;
; 4590 : 				}
; 4591 : 
; 4592 : 				else if(lpObj->VpPlayer2[count].type != OBJ_NPC && gObj[tObjNum].MapNumber == MAP_INDEX_CASTLESIEGE && g_CastleSiege.GetCastleState() == 7)

  000cb	80 fb 03	 cmp	 bl, 3
  000ce	74 2c		 je	 SHORT $LN7@MLS_SkillS@10
  000d0	8b c7		 mov	 eax, edi
  000d2	69 c0 50 2b 00
	00		 imul	 eax, 11088		; 00002b50H
  000d8	80 bc 10 49 01
	00 00 1e	 cmp	 BYTE PTR [eax+edx+329], 30 ; 0000001eH
  000e0	75 1a		 jne	 SHORT $LN7@MLS_SkillS@10
  000e2	83 3d 28 00 00
	00 07		 cmp	 DWORD PTR ?g_CastleSiege@@3VCCastleSiege@@A+40, 7
  000e9	75 11		 jne	 SHORT $LN7@MLS_SkillS@10

; 4593 : 				{
; 4594 : 					if( lpObj->m_btCsJoinSide != gObj[tObjNum].m_btCsJoinSide )

  000eb	8a 8e 02 1c 00
	00		 mov	 cl, BYTE PTR [esi+7170]
  000f1	3a 8c 10 02 1c
	00 00		 cmp	 cl, BYTE PTR [eax+edx+7170]
  000f8	74 6c		 je	 SHORT $LN42@MLS_SkillS@10

; 4595 : 						EnableAttack = 1;
; 4596 : 				}
; 4597 : 
; 4598 : 				else

  000fa	eb 44		 jmp	 SHORT $LN40@MLS_SkillS@10
$LN7@MLS_SkillS@10:

; 4599 : 				{
; 4600 : 					int CallMonIndex = gObj[tObjNum].m_Index;

  000fc	8b cf		 mov	 ecx, edi
  000fe	69 c9 50 2b 00
	00		 imul	 ecx, 11088		; 00002b50H

; 4601 : 
; 4602 : 					if(gObj[tObjNum].Type == OBJ_MONSTER && gObj[tObjNum].m_RecallMon >= 0)

  00104	66 83 7c 11 68
	02		 cmp	 WORD PTR [ecx+edx+104], 2
  0010a	8b 04 11	 mov	 eax, DWORD PTR [ecx+edx]
  0010d	75 14		 jne	 SHORT $LN4@MLS_SkillS@10
  0010f	8b 8c 11 50 04
	00 00		 mov	 ecx, DWORD PTR [ecx+edx+1104]
  00116	85 c9		 test	 ecx, ecx
  00118	78 09		 js	 SHORT $LN4@MLS_SkillS@10

; 4603 : 					{
; 4604 : 						CallMonIndex = gObj[gObj[tObjNum].m_RecallMon].m_Index;

  0011a	69 c9 50 2b 00
	00		 imul	 ecx, 11088		; 00002b50H
  00120	8b 04 11	 mov	 eax, DWORD PTR [ecx+edx]
$LN4@MLS_SkillS@10:

; 4605 : 					}
; 4606 : 
; 4607 : 					if(gObjTargetGuildWarCheck(lpObj,&gObj[CallMonIndex])==1)

  00123	69 c0 50 2b 00
	00		 imul	 eax, 11088		; 00002b50H
  00129	03 c2		 add	 eax, edx
  0012b	50		 push	 eax
  0012c	56		 push	 esi
  0012d	e8 00 00 00 00	 call	 ?gObjTargetGuildWarCheck@@YAHPAUOBJECTSTRUCT@@0@Z ; gObjTargetGuildWarCheck
  00132	83 c4 08	 add	 esp, 8
  00135	83 f8 01	 cmp	 eax, 1
  00138	75 26		 jne	 SHORT $LN39@MLS_SkillS@10
  0013a	8b 15 00 00 00
	00		 mov	 edx, DWORD PTR ?gObj@@3PAUOBJECTSTRUCT@@A ; gObj
$LN40@MLS_SkillS@10:

; 4608 : 					{
; 4609 : 						EnableAttack = 1;
; 4610 : 					}
; 4611 : 				}
; 4612 : 
; 4613 : 				if( EnableAttack != 0 &&
; 4614 : 					tObjNum == aTargetIndex && 
; 4615 : 					gCheckSkillDistance(aIndex,aTargetIndex,lpMagic->m_Skill) != FALSE )

  00140	3b 7d 0c	 cmp	 edi, DWORD PTR _aTargetIndex$[ebp]
  00143	75 21		 jne	 SHORT $LN42@MLS_SkillS@10
$LN37@MLS_SkillS@10:
  00145	8b 7d 10	 mov	 edi, DWORD PTR _lpMagic$[ebp]
  00148	8b 4f 08	 mov	 ecx, DWORD PTR [edi+8]
  0014b	8b 55 0c	 mov	 edx, DWORD PTR _aTargetIndex$[ebp]
  0014e	8b 45 08	 mov	 eax, DWORD PTR _aIndex$[ebp]
  00151	51		 push	 ecx
  00152	52		 push	 edx
  00153	50		 push	 eax
  00154	e8 00 00 00 00	 call	 ?gCheckSkillDistance@@YAHHHH@Z ; gCheckSkillDistance
  00159	83 c4 0c	 add	 esp, 12			; 0000000cH
  0015c	85 c0		 test	 eax, eax
  0015e	75 2a		 jne	 SHORT $LN32@MLS_SkillS@10
$LN39@MLS_SkillS@10:
  00160	8b 15 00 00 00
	00		 mov	 edx, DWORD PTR ?gObj@@3PAUOBJECTSTRUCT@@A ; gObj
$LN42@MLS_SkillS@10:

; 4619 : 					break;
; 4620 : 				}
; 4621 : 			}
; 4622 : 		}
; 4623 : 
; 4624 : 		count++;

  00166	8b 4d fc	 mov	 ecx, DWORD PTR _count$[ebp]
  00169	8b 45 f8	 mov	 eax, DWORD PTR tv467[ebp]
  0016c	41		 inc	 ecx
  0016d	83 c0 0c	 add	 eax, 12			; 0000000cH
  00170	89 4d fc	 mov	 DWORD PTR _count$[ebp], ecx
  00173	89 45 f8	 mov	 DWORD PTR tv467[ebp], eax

; 4625 : 
; 4626 : 		if( count > MAX_VIEWPORT -1)

  00176	83 f9 4a	 cmp	 ecx, 74			; 0000004aH
  00179	0f 8e d1 fe ff
	ff		 jle	 $LL19@MLS_SkillS@10

; 4627 : 		{
; 4628 : 			break;
; 4629 : 		}
; 4630 : 	}
; 4631 : 
; 4632 : return bRet;

  0017f	5f		 pop	 edi
  00180	5e		 pop	 esi
  00181	33 c0		 xor	 eax, eax
  00183	5b		 pop	 ebx

; 4633 : }

  00184	8b e5		 mov	 esp, ebp
  00186	5d		 pop	 ebp
  00187	c2 0c 00	 ret	 12			; 0000000cH
$LN32@MLS_SkillS@10:

; 4616 : 				{
; 4617 : 					gObjAttack(lpObj,&gObj[aTargetIndex],lpMagic,1,0,0,0,0,0);

  0018a	8b 45 0c	 mov	 eax, DWORD PTR _aTargetIndex$[ebp]
  0018d	6a 00		 push	 0
  0018f	69 c0 50 2b 00
	00		 imul	 eax, 11088		; 00002b50H
  00195	03 05 00 00 00
	00		 add	 eax, DWORD PTR ?gObj@@3PAUOBJECTSTRUCT@@A ; gObj
  0019b	6a 00		 push	 0
  0019d	6a 00		 push	 0
  0019f	6a 00		 push	 0
  001a1	6a 00		 push	 0
  001a3	6a 01		 push	 1
  001a5	57		 push	 edi
  001a6	50		 push	 eax
  001a7	56		 push	 esi
  001a8	e8 00 00 00 00	 call	 ?gObjAttack@@YAHPAUOBJECTSTRUCT@@0PAVCMagicInf@@HEHHEE@Z ; gObjAttack
  001ad	83 c4 24	 add	 esp, 36			; 00000024H
  001b0	5f		 pop	 edi
  001b1	5e		 pop	 esi

; 4618 : 					bRet = TRUE;

  001b2	b8 01 00 00 00	 mov	 eax, 1
  001b7	5b		 pop	 ebx

; 4633 : }

  001b8	8b e5		 mov	 esp, ebp
  001ba	5d		 pop	 ebp
  001bb	c2 0c 00	 ret	 12			; 0000000cH
?MLS_SkillSleep@CMasterLevelSkillTreeSystem@@QAEHHHPAVCMagicInf@@@Z ENDP ; CMasterLevelSkillTreeSystem::MLS_SkillSleep
_TEXT	ENDS
PUBLIC	_lpMagic$GSCopy$
PUBLIC	_aTargetIndex$GSCopy$
PUBLIC	_aIndex$GSCopy$
PUBLIC	__$ArrayPad$
PUBLIC	?MLS_SkillChainLightning@CMasterLevelSkillTreeSystem@@QAEHHHPAVCMagicInf@@@Z ; CMasterLevelSkillTreeSystem::MLS_SkillChainLightning
EXTRN	?MsgSendV2@@YAXPAUOBJECTSTRUCT@@PAEH@Z:PROC	; MsgSendV2
EXTRN	?DataSend@@YAHHPAEK@Z:PROC			; DataSend
EXTRN	?PHeadSubSetB@@YAXPAEEEH@Z:PROC			; PHeadSubSetB
; Function compile flags: /Ogtp
;	COMDAT ?MLS_SkillChainLightning@CMasterLevelSkillTreeSystem@@QAEHHHPAVCMagicInf@@@Z
_TEXT	SEGMENT
_DuelIndex$ = -308					; size = 4
tv708 = -304						; size = 4
_count$ = -300						; size = 4
_aIndex$GSCopy$ = -296					; size = 4
_lpMagic$GSCopy$ = -292					; size = 4
_aTargetIndex$GSCopy$ = -288				; size = 4
_pMsg$ = -284						; size = 10
_Target$ = -272						; size = 12
_cBUFF$ = -260						; size = 256
__$ArrayPad$ = -4					; size = 4
_aIndex$ = 8						; size = 4
_aTargetIndex$ = 12					; size = 4
_lpMagic$ = 16						; size = 4
?MLS_SkillChainLightning@CMasterLevelSkillTreeSystem@@QAEHHHPAVCMagicInf@@@Z PROC ; CMasterLevelSkillTreeSystem::MLS_SkillChainLightning, COMDAT
; _this$ = ecx

; 4650 : {

  00000	55		 push	 ebp
  00001	8b ec		 mov	 ebp, esp
  00003	81 ec 34 01 00
	00		 sub	 esp, 308		; 00000134H
  00009	a1 00 00 00 00	 mov	 eax, DWORD PTR ___security_cookie
  0000e	33 c5		 xor	 eax, ebp
  00010	89 45 fc	 mov	 DWORD PTR __$ArrayPad$[ebp], eax

; 4651 : 	LPOBJ lpObj = &gObj[aIndex];

  00013	a1 00 00 00 00	 mov	 eax, DWORD PTR ?gObj@@3PAUOBJECTSTRUCT@@A ; gObj
  00018	8b 4d 10	 mov	 ecx, DWORD PTR _lpMagic$[ebp]
  0001b	53		 push	 ebx
  0001c	8b 5d 0c	 mov	 ebx, DWORD PTR _aTargetIndex$[ebp]
  0001f	56		 push	 esi
  00020	8b 75 08	 mov	 esi, DWORD PTR _aIndex$[ebp]
  00023	57		 push	 edi

; 4652 : 	LPOBJ lpTargetObj = &gObj[aTargetIndex];
; 4653 : 
; 4654 : 	int bSuccess = TRUE;
; 4655 : 	int tObjNum;
; 4656 : 	int count = 0;

  00024	89 b5 d8 fe ff
	ff		 mov	 DWORD PTR _aIndex$GSCopy$[ebp], esi
  0002a	69 f6 50 2b 00
	00		 imul	 esi, 11088		; 00002b50H
  00030	8b fb		 mov	 edi, ebx
  00032	69 ff 50 2b 00
	00		 imul	 edi, 11088		; 00002b50H
  00038	03 f0		 add	 esi, eax
  0003a	03 f8		 add	 edi, eax

; 4657 : 
; 4658 : 	int Target[3];
; 4659 : 
; 4660 : 	Target[0] = -1;

  0003c	83 c8 ff	 or	 eax, -1
  0003f	89 85 f0 fe ff
	ff		 mov	 DWORD PTR _Target$[ebp], eax

; 4661 : 	Target[1] = -1;

  00045	89 85 f4 fe ff
	ff		 mov	 DWORD PTR _Target$[ebp+4], eax

; 4662 : 	Target[2] = -1;

  0004b	89 85 f8 fe ff
	ff		 mov	 DWORD PTR _Target$[ebp+8], eax

; 4663 : 
; 4664 : 	GCMagicAttackNumberSend(lpObj,lpMagic->m_Skill,aTargetIndex,1);

  00051	0f b7 41 08	 movzx	 eax, WORD PTR [ecx+8]
  00055	6a 01		 push	 1
  00057	53		 push	 ebx
  00058	50		 push	 eax
  00059	56		 push	 esi
  0005a	89 9d e0 fe ff
	ff		 mov	 DWORD PTR _aTargetIndex$GSCopy$[ebp], ebx

; 4786 : 	{
; 4787 : 		gObjAddAttackProcMsgSendDelay(lpObj,50,Target[i],200 + 200*i,lpMagic->m_Skill,i+1);

  00060	89 8d dc fe ff
	ff		 mov	 DWORD PTR _lpMagic$GSCopy$[ebp], ecx
  00066	c7 85 d4 fe ff
	ff 00 00 00 00	 mov	 DWORD PTR _count$[ebp], 0
  00070	e8 00 00 00 00	 call	 ?GCMagicAttackNumberSend@@YAXPAUOBJECTSTRUCT@@GHE@Z ; GCMagicAttackNumberSend
  00075	8b 95 dc fe ff
	ff		 mov	 edx, DWORD PTR _lpMagic$GSCopy$[ebp]
  0007b	8b 8e b8 0e 00
	00		 mov	 ecx, DWORD PTR [esi+3768]
  00081	8b 42 08	 mov	 eax, DWORD PTR [edx+8]
  00084	50		 push	 eax
  00085	89 8d cc fe ff
	ff		 mov	 DWORD PTR _DuelIndex$[ebp], ecx
  0008b	8b 8d d8 fe ff
	ff		 mov	 ecx, DWORD PTR _aIndex$GSCopy$[ebp]
  00091	53		 push	 ebx
  00092	51		 push	 ecx
  00093	e8 00 00 00 00	 call	 ?gCheckSkillDistance@@YAHHHH@Z ; gCheckSkillDistance
  00098	83 c4 1c	 add	 esp, 28			; 0000001cH
  0009b	85 c0		 test	 eax, eax
  0009d	75 13		 jne	 SHORT $LN28@MLS_SkillC
  0009f	5f		 pop	 edi
  000a0	5e		 pop	 esi
  000a1	5b		 pop	 ebx

; 4788 : 	}
; 4789 : return bSuccess;
; 4790 : }

  000a2	8b 4d fc	 mov	 ecx, DWORD PTR __$ArrayPad$[ebp]
  000a5	33 cd		 xor	 ecx, ebp
  000a7	e8 00 00 00 00	 call	 @__security_check_cookie@4
  000ac	8b e5		 mov	 esp, ebp
  000ae	5d		 pop	 ebp
  000af	c2 0c 00	 ret	 12			; 0000000cH
$LN28@MLS_SkillC:

; 4665 : 
; 4666 : 	int DuelIndex = lpObj->m_iDuelUser;
; 4667 : 	int EnableAttack;
; 4668 : 
; 4669 : 	if( gCheckSkillDistance(aIndex,aTargetIndex,lpMagic->m_Skill) == FALSE )
; 4670 : 	{
; 4671 : 		return FALSE;
; 4672 : 	}
; 4673 : 
; 4674 : 	Target[0] = aTargetIndex;

  000b2	8d 86 ae 08 00
	00		 lea	 eax, DWORD PTR [esi+2222]
  000b8	89 9d f0 fe ff
	ff		 mov	 DWORD PTR _Target$[ebp], ebx
  000be	89 85 d0 fe ff
	ff		 mov	 DWORD PTR tv708[ebp], eax
$LL27@MLS_SkillC:

; 4675 : 
; 4676 : 	while( TRUE )
; 4677 : 	{
; 4678 : 		if(lpObj->VpPlayer2[count].state != 0)

  000c4	80 78 fe 00	 cmp	 BYTE PTR [eax-2], 0
  000c8	0f 84 41 01 00
	00		 je	 $LN45@MLS_SkillC

; 4679 : 		{
; 4680 : 			tObjNum = lpObj->VpPlayer2[count].number;

  000ce	0f bf 18	 movsx	 ebx, WORD PTR [eax]

; 4681 : 
; 4682 : 			if( tObjNum >= 0 )

  000d1	85 db		 test	 ebx, ebx
  000d3	0f 88 36 01 00
	00		 js	 $LN45@MLS_SkillC

; 4683 : 			{
; 4684 : 				EnableAttack = 0;
; 4685 : 
; 4686 : 				if(lpObj->VpPlayer2[count].type == OBJ_MONSTER && gObj[tObjNum].m_RecallMon < 0)

  000d9	80 78 02 02	 cmp	 BYTE PTR [eax+2], 2
  000dd	8b 15 00 00 00
	00		 mov	 edx, DWORD PTR ?gObj@@3PAUOBJECTSTRUCT@@A ; gObj
  000e3	75 12		 jne	 SHORT $LN23@MLS_SkillC
  000e5	8b c3		 mov	 eax, ebx
  000e7	69 c0 50 2b 00
	00		 imul	 eax, 11088		; 00002b50H
  000ed	83 bc 10 50 04
	00 00 00	 cmp	 DWORD PTR [eax+edx+1104], 0

; 4687 : 				{
; 4688 : 					EnableAttack = 1;

  000f5	7c 52		 jl	 SHORT $LN20@MLS_SkillC
$LN23@MLS_SkillC:

; 4689 : 				}
; 4690 : 				else if(tObjNum == aTargetIndex || DuelIndex == tObjNum)

  000f7	3b 9d e0 fe ff
	ff		 cmp	 ebx, DWORD PTR _aTargetIndex$GSCopy$[ebp]
  000fd	74 4a		 je	 SHORT $LN20@MLS_SkillC
  000ff	39 9d cc fe ff
	ff		 cmp	 DWORD PTR _DuelIndex$[ebp], ebx
  00105	74 42		 je	 SHORT $LN20@MLS_SkillC

; 4691 : 				{
; 4692 : 					EnableAttack = 1;
; 4693 : 				}
; 4694 : 				else
; 4695 : 				{
; 4696 : 					int CallMonIndex = gObj[tObjNum].m_Index;

  00107	8b cb		 mov	 ecx, ebx
  00109	69 c9 50 2b 00
	00		 imul	 ecx, 11088		; 00002b50H

; 4697 : 
; 4698 : 					if(gObj[tObjNum].Type == OBJ_MONSTER && gObj[tObjNum].m_RecallMon >= 0)

  0010f	66 83 7c 11 68
	02		 cmp	 WORD PTR [ecx+edx+104], 2
  00115	8b 04 11	 mov	 eax, DWORD PTR [ecx+edx]
  00118	75 14		 jne	 SHORT $LN18@MLS_SkillC
  0011a	8b 8c 11 50 04
	00 00		 mov	 ecx, DWORD PTR [ecx+edx+1104]
  00121	85 c9		 test	 ecx, ecx
  00123	78 09		 js	 SHORT $LN18@MLS_SkillC

; 4699 : 					{
; 4700 : 						CallMonIndex = gObj[gObj[tObjNum].m_RecallMon].m_Index;

  00125	69 c9 50 2b 00
	00		 imul	 ecx, 11088		; 00002b50H
  0012b	8b 04 11	 mov	 eax, DWORD PTR [ecx+edx]
$LN18@MLS_SkillC:

; 4701 : 					}
; 4702 : 
; 4703 : 					if(gObjTargetGuildWarCheck(lpObj,&gObj[CallMonIndex])==1)

  0012e	69 c0 50 2b 00
	00		 imul	 eax, 11088		; 00002b50H
  00134	03 c2		 add	 eax, edx
  00136	50		 push	 eax
  00137	56		 push	 esi
  00138	e8 00 00 00 00	 call	 ?gObjTargetGuildWarCheck@@YAHPAUOBJECTSTRUCT@@0@Z ; gObjTargetGuildWarCheck
  0013d	83 c4 08	 add	 esp, 8
  00140	83 f8 01	 cmp	 eax, 1
  00143	0f 85 c6 00 00
	00		 jne	 $LN45@MLS_SkillC
$LN20@MLS_SkillC:

; 4704 : 					{
; 4705 : 						EnableAttack = 1;
; 4706 : 					}
; 4707 : 				}
; 4708 : 
; 4709 : 				if( EnableAttack != 0 )
; 4710 : 				{
; 4711 : 					if( gObj[tObjNum].X >= (lpTargetObj->X -1) &&
; 4712 : 						gObj[tObjNum].X <= (lpTargetObj->X +1) &&
; 4713 : 						gObj[tObjNum].Y >= (lpTargetObj->Y -1) &&
; 4714 : 						gObj[tObjNum].Y <= (lpTargetObj->Y +1) &&
; 4715 : 						gObj[tObjNum].Type == OBJ_MONSTER )

  00149	a1 00 00 00 00	 mov	 eax, DWORD PTR ?gObj@@3PAUOBJECTSTRUCT@@A ; gObj
  0014e	8b d3		 mov	 edx, ebx
  00150	69 d2 50 2b 00
	00		 imul	 edx, 11088		; 00002b50H
  00156	0f bf 8c 10 44
	01 00 00	 movsx	 ecx, WORD PTR [eax+edx+324]
  0015e	03 c2		 add	 eax, edx
  00160	0f bf 97 44 01
	00 00		 movsx	 edx, WORD PTR [edi+324]
  00167	4a		 dec	 edx
  00168	3b ca		 cmp	 ecx, edx
  0016a	7c 47		 jl	 SHORT $LN15@MLS_SkillC
  0016c	0f bf 97 44 01
	00 00		 movsx	 edx, WORD PTR [edi+324]
  00173	42		 inc	 edx
  00174	3b ca		 cmp	 ecx, edx
  00176	7f 3b		 jg	 SHORT $LN15@MLS_SkillC
  00178	0f bf 97 46 01
	00 00		 movsx	 edx, WORD PTR [edi+326]
  0017f	0f bf 88 46 01
	00 00		 movsx	 ecx, WORD PTR [eax+326]
  00186	4a		 dec	 edx
  00187	3b ca		 cmp	 ecx, edx
  00189	7c 28		 jl	 SHORT $LN15@MLS_SkillC
  0018b	0f bf 97 46 01
	00 00		 movsx	 edx, WORD PTR [edi+326]
  00192	42		 inc	 edx
  00193	3b ca		 cmp	 ecx, edx
  00195	7f 1c		 jg	 SHORT $LN15@MLS_SkillC
  00197	66 83 78 68 02	 cmp	 WORD PTR [eax+104], 2
  0019c	75 15		 jne	 SHORT $LN15@MLS_SkillC

; 4716 : 					{
; 4717 : 						Target[1] = tObjNum;
; 4718 : 
; 4719 : 						if(Target[2] != -1)

  0019e	83 bd f8 fe ff
	ff ff		 cmp	 DWORD PTR _Target$[ebp+8], -1
  001a5	89 9d f4 fe ff
	ff		 mov	 DWORD PTR _Target$[ebp+4], ebx
  001ab	0f 85 98 00 00
	00		 jne	 $LN51@MLS_SkillC

; 4720 : 							break;
; 4721 : 					}
; 4722 : 					else if( gObj[tObjNum].X >= (lpTargetObj->X -2) &&

  001b1	eb 5c		 jmp	 SHORT $LN45@MLS_SkillC
$LN15@MLS_SkillC:

; 4723 : 						gObj[tObjNum].X <= (lpTargetObj->X +2) &&
; 4724 : 						gObj[tObjNum].Y >= (lpTargetObj->Y -2) &&
; 4725 : 						gObj[tObjNum].Y <= (lpTargetObj->Y +2) &&
; 4726 : 						gObj[tObjNum].Type == OBJ_MONSTER )

  001b3	0f bf 97 44 01
	00 00		 movsx	 edx, WORD PTR [edi+324]
  001ba	0f bf 88 44 01
	00 00		 movsx	 ecx, WORD PTR [eax+324]
  001c1	83 c2 fe	 add	 edx, -2			; fffffffeH
  001c4	3b ca		 cmp	 ecx, edx
  001c6	7c 47		 jl	 SHORT $LN45@MLS_SkillC
  001c8	0f bf 97 44 01
	00 00		 movsx	 edx, WORD PTR [edi+324]
  001cf	83 c2 02	 add	 edx, 2
  001d2	3b ca		 cmp	 ecx, edx
  001d4	7f 39		 jg	 SHORT $LN45@MLS_SkillC
  001d6	0f bf 97 46 01
	00 00		 movsx	 edx, WORD PTR [edi+326]
  001dd	0f bf 88 46 01
	00 00		 movsx	 ecx, WORD PTR [eax+326]
  001e4	83 c2 fe	 add	 edx, -2			; fffffffeH
  001e7	3b ca		 cmp	 ecx, edx
  001e9	7c 24		 jl	 SHORT $LN45@MLS_SkillC
  001eb	0f bf 97 46 01
	00 00		 movsx	 edx, WORD PTR [edi+326]
  001f2	83 c2 02	 add	 edx, 2
  001f5	3b ca		 cmp	 ecx, edx
  001f7	7f 16		 jg	 SHORT $LN45@MLS_SkillC
  001f9	66 83 78 68 02	 cmp	 WORD PTR [eax+104], 2
  001fe	75 0f		 jne	 SHORT $LN45@MLS_SkillC

; 4727 : 					{
; 4728 : 						Target[2] = tObjNum;
; 4729 : 	
; 4730 : 						if(Target[1] != -1)

  00200	83 bd f4 fe ff
	ff ff		 cmp	 DWORD PTR _Target$[ebp+4], -1
  00207	89 9d f8 fe ff
	ff		 mov	 DWORD PTR _Target$[ebp+8], ebx
  0020d	75 25		 jne	 SHORT $LN50@MLS_SkillC
$LN45@MLS_SkillC:

; 4731 : 							break;
; 4732 : 					}
; 4733 : 				}
; 4734 : 			}
; 4735 : 		}
; 4736 : 
; 4737 : 		count++;

  0020f	8b 8d d4 fe ff
	ff		 mov	 ecx, DWORD PTR _count$[ebp]
  00215	8b 85 d0 fe ff
	ff		 mov	 eax, DWORD PTR tv708[ebp]
  0021b	41		 inc	 ecx
  0021c	83 c0 0c	 add	 eax, 12			; 0000000cH
  0021f	89 8d d4 fe ff
	ff		 mov	 DWORD PTR _count$[ebp], ecx
  00225	89 85 d0 fe ff
	ff		 mov	 DWORD PTR tv708[ebp], eax

; 4738 : 
; 4739 : 		if( count > MAX_VIEWPORT -1)

  0022b	83 f9 4a	 cmp	 ecx, 74			; 0000004aH
  0022e	0f 8e 90 fe ff
	ff		 jle	 $LL27@MLS_SkillC
$LN50@MLS_SkillC:

; 4740 : 		{
; 4741 : 			break;
; 4742 : 		}
; 4743 : 	}
; 4744 : 
; 4745 : 	if( Target[2] == -1 )

  00234	83 bd f8 fe ff
	ff ff		 cmp	 DWORD PTR _Target$[ebp+8], -1
  0023b	75 0c		 jne	 SHORT $LN51@MLS_SkillC

; 4746 : 	{
; 4747 : 		Target[2] = Target[1];

  0023d	8b 85 f4 fe ff
	ff		 mov	 eax, DWORD PTR _Target$[ebp+4]
  00243	89 85 f8 fe ff
	ff		 mov	 DWORD PTR _Target$[ebp+8], eax
$LN51@MLS_SkillC:

; 4748 : 	}
; 4749 : 
; 4750 : 	if( Target[1] == -1 )

  00249	83 bd f4 fe ff
	ff ff		 cmp	 DWORD PTR _Target$[ebp+4], -1

; 4751 : 	{
; 4752 : 		Target[1] = Target[0];

  00250	8b 8d e0 fe ff
	ff		 mov	 ecx, DWORD PTR _aTargetIndex$GSCopy$[ebp]
  00256	75 0c		 jne	 SHORT $LN8@MLS_SkillC
  00258	89 8d f4 fe ff
	ff		 mov	 DWORD PTR _Target$[ebp+4], ecx

; 4753 : 		Target[2] = Target[1];

  0025e	89 8d f8 fe ff
	ff		 mov	 DWORD PTR _Target$[ebp+8], ecx
$LN8@MLS_SkillC:

; 4754 : 	}
; 4755 : 
; 4756 : 	int lOfs = 0;
; 4757 : 	BYTE cBUFF[256];
; 4758 : 	PMSG_SKILL_TARGET_COUNT pMsg;
; 4759 : 
; 4760 : 	pMsg.MagicNumberH = SET_NUMBERH(lpMagic->m_Skill);

  00264	8b 85 dc fe ff
	ff		 mov	 eax, DWORD PTR _lpMagic$GSCopy$[ebp]
  0026a	8b 50 08	 mov	 edx, DWORD PTR [eax+8]

; 4761 : 	pMsg.MagicNumberL = SET_NUMBERL(lpMagic->m_Skill);

  0026d	8a 40 08	 mov	 al, BYTE PTR [eax+8]
  00270	c1 ea 08	 shr	 edx, 8
  00273	88 95 e8 fe ff
	ff		 mov	 BYTE PTR _pMsg$[ebp+4], dl

; 4762 : 	pMsg.Index = aIndex;

  00279	0f b7 95 d8 fe
	ff ff		 movzx	 edx, WORD PTR _aIndex$GSCopy$[ebp]

; 4763 : 	pMsg.Count = 3;
; 4764 : 
; 4765 : 	lOfs += sizeof(pMsg);
; 4766 : 
; 4767 : 	int i;
; 4768 : 	for(i = 0; i < 3; i++)
; 4769 : 	{
; 4770 : 		WORD wIndex = Target[i];
; 4771 : 		memcpy(&cBUFF[lOfs],&wIndex,2);
; 4772 : 		lOfs+= 2;
; 4773 : 	}
; 4774 : 
; 4775 : 	PHeadSubSetB((LPBYTE)&pMsg,0xBF,10,lOfs);

  00280	6a 10		 push	 16			; 00000010H
  00282	6a 0a		 push	 10			; 0000000aH
  00284	66 89 95 ea fe
	ff ff		 mov	 WORD PTR _pMsg$[ebp+6], dx
  0028b	88 85 e9 fe ff
	ff		 mov	 BYTE PTR _pMsg$[ebp+5], al
  00291	66 8b 85 f4 fe
	ff ff		 mov	 ax, WORD PTR _Target$[ebp+4]
  00298	66 89 8d 06 ff
	ff ff		 mov	 WORD PTR _cBUFF$[ebp+10], cx
  0029f	66 8b 8d f8 fe
	ff ff		 mov	 cx, WORD PTR _Target$[ebp+8]
  002a6	8d 95 e4 fe ff
	ff		 lea	 edx, DWORD PTR _pMsg$[ebp]
  002ac	68 bf 00 00 00	 push	 191			; 000000bfH
  002b1	52		 push	 edx
  002b2	c6 85 ec fe ff
	ff 03		 mov	 BYTE PTR _pMsg$[ebp+8], 3
  002b9	66 89 85 08 ff
	ff ff		 mov	 WORD PTR _cBUFF$[ebp+12], ax
  002c0	66 89 8d 0a ff
	ff ff		 mov	 WORD PTR _cBUFF$[ebp+14], cx
  002c7	e8 00 00 00 00	 call	 ?PHeadSubSetB@@YAXPAEEEH@Z ; PHeadSubSetB

; 4776 : 	memcpy(&cBUFF[0],&pMsg,sizeof(pMsg));

  002cc	0f b7 95 ec fe
	ff ff		 movzx	 edx, WORD PTR _pMsg$[ebp+8]
  002d3	8b 85 e4 fe ff
	ff		 mov	 eax, DWORD PTR _pMsg$[ebp]
  002d9	8b 8d e8 fe ff
	ff		 mov	 ecx, DWORD PTR _pMsg$[ebp+4]
  002df	83 c4 10	 add	 esp, 16			; 00000010H
  002e2	89 85 fc fe ff
	ff		 mov	 DWORD PTR _cBUFF$[ebp], eax
  002e8	89 8d 00 ff ff
	ff		 mov	 DWORD PTR _cBUFF$[ebp+4], ecx
  002ee	66 89 95 04 ff
	ff ff		 mov	 WORD PTR _cBUFF$[ebp+8], dx

; 4777 : 
; 4778 : 	if( lpObj->Type == OBJ_USER )

  002f5	66 83 7e 68 01	 cmp	 WORD PTR [esi+104], 1
  002fa	75 1a		 jne	 SHORT $LN4@MLS_SkillC

; 4779 : 	{
; 4780 : 		DataSend(lpObj->m_Index,(LPBYTE)&cBUFF[0],pMsg.h.size);

  002fc	0f b6 85 e5 fe
	ff ff		 movzx	 eax, BYTE PTR _pMsg$[ebp+1]
  00303	8b 16		 mov	 edx, DWORD PTR [esi]
  00305	50		 push	 eax
  00306	8d 8d fc fe ff
	ff		 lea	 ecx, DWORD PTR _cBUFF$[ebp]
  0030c	51		 push	 ecx
  0030d	52		 push	 edx
  0030e	e8 00 00 00 00	 call	 ?DataSend@@YAHHPAEK@Z	; DataSend
  00313	83 c4 0c	 add	 esp, 12			; 0000000cH
$LN4@MLS_SkillC:

; 4781 : 	}
; 4782 : 
; 4783 : 	MsgSendV2(lpObj,(LPBYTE)&cBUFF[0],pMsg.h.size);

  00316	0f b6 85 e5 fe
	ff ff		 movzx	 eax, BYTE PTR _pMsg$[ebp+1]
  0031d	50		 push	 eax
  0031e	8d 8d fc fe ff
	ff		 lea	 ecx, DWORD PTR _cBUFF$[ebp]
  00324	51		 push	 ecx
  00325	56		 push	 esi
  00326	e8 00 00 00 00	 call	 ?MsgSendV2@@YAXPAUOBJECTSTRUCT@@PAEH@Z ; MsgSendV2
  0032b	83 c4 0c	 add	 esp, 12			; 0000000cH

; 4784 : 
; 4785 : 	for(i = 0; i < 3; i++)

  0032e	33 c0		 xor	 eax, eax
  00330	bf c8 00 00 00	 mov	 edi, 200		; 000000c8H
  00335	eb 09 8d a4 24
	00 00 00 00 8b
	ff		 npad	 11
$LL3@MLS_SkillC:

; 4786 : 	{
; 4787 : 		gObjAddAttackProcMsgSendDelay(lpObj,50,Target[i],200 + 200*i,lpMagic->m_Skill,i+1);

  00340	8b 95 dc fe ff
	ff		 mov	 edx, DWORD PTR _lpMagic$GSCopy$[ebp]
  00346	8b 4a 08	 mov	 ecx, DWORD PTR [edx+8]
  00349	8b 94 85 f0 fe
	ff ff		 mov	 edx, DWORD PTR _Target$[ebp+eax*4]
  00350	8d 58 01	 lea	 ebx, DWORD PTR [eax+1]
  00353	53		 push	 ebx
  00354	51		 push	 ecx
  00355	57		 push	 edi
  00356	52		 push	 edx
  00357	6a 32		 push	 50			; 00000032H
  00359	56		 push	 esi
  0035a	e8 00 00 00 00	 call	 ?gObjAddAttackProcMsgSendDelay@@YAXPAUOBJECTSTRUCT@@HHHHH@Z ; gObjAddAttackProcMsgSendDelay
  0035f	81 c7 c8 00 00
	00		 add	 edi, 200		; 000000c8H
  00365	83 c4 18	 add	 esp, 24			; 00000018H
  00368	8b c3		 mov	 eax, ebx
  0036a	81 ff 20 03 00
	00		 cmp	 edi, 800		; 00000320H
  00370	7c ce		 jl	 SHORT $LL3@MLS_SkillC

; 4788 : 	}
; 4789 : return bSuccess;
; 4790 : }

  00372	8b 4d fc	 mov	 ecx, DWORD PTR __$ArrayPad$[ebp]
  00375	5f		 pop	 edi
  00376	5e		 pop	 esi
  00377	33 cd		 xor	 ecx, ebp
  00379	b8 01 00 00 00	 mov	 eax, 1
  0037e	5b		 pop	 ebx
  0037f	e8 00 00 00 00	 call	 @__security_check_cookie@4
  00384	8b e5		 mov	 esp, ebp
  00386	5d		 pop	 ebp
  00387	c2 0c 00	 ret	 12			; 0000000cH
?MLS_SkillChainLightning@CMasterLevelSkillTreeSystem@@QAEHHHPAVCMagicInf@@@Z ENDP ; CMasterLevelSkillTreeSystem::MLS_SkillChainLightning
_TEXT	ENDS
PUBLIC	?MLS_SkillLightningShock@CMasterLevelSkillTreeSystem@@QAEHHHPAVCMagicInf@@@Z ; CMasterLevelSkillTreeSystem::MLS_SkillLightningShock
; Function compile flags: /Ogtp
;	COMDAT ?MLS_SkillLightningShock@CMasterLevelSkillTreeSystem@@QAEHHHPAVCMagicInf@@@Z
_TEXT	SEGMENT
_DuelIndex$ = -20					; size = 4
tv247 = -16						; size = 4
tv481 = -12						; size = 4
_nHitCount$ = -8					; size = 4
_tObjNum$ = -4						; size = 4
_bAttack$ = 8						; size = 4
_aIndex$ = 8						; size = 4
_aTargetIndex$ = 12					; size = 4
_lpMagic$ = 16						; size = 4
?MLS_SkillLightningShock@CMasterLevelSkillTreeSystem@@QAEHHHPAVCMagicInf@@@Z PROC ; CMasterLevelSkillTreeSystem::MLS_SkillLightningShock, COMDAT
; _this$ = ecx

; 4793 : {

  00000	55		 push	 ebp
  00001	8b ec		 mov	 ebp, esp
  00003	83 ec 14	 sub	 esp, 20			; 00000014H

; 4794 : 	LPOBJ lpObj = &gObj[aIndex];
; 4795 : 	int bRet = 0;
; 4796 : 	int bAttack = 0;
; 4797 : 	int tObjNum;
; 4798 : 	int count = 0;
; 4799 : 	int HitCount = 0;
; 4800 : 	int iDistance = 7;
; 4801 : 	int nHitCount = 0;
; 4802 : 
; 4803 : 	GCMagicAttackNumberSend(lpObj,lpMagic->m_Skill,aTargetIndex,1);

  00006	8b 4d 10	 mov	 ecx, DWORD PTR _lpMagic$[ebp]
  00009	0f b7 51 08	 movzx	 edx, WORD PTR [ecx+8]
  0000d	53		 push	 ebx
  0000e	56		 push	 esi
  0000f	57		 push	 edi
  00010	8b 7d 08	 mov	 edi, DWORD PTR _aIndex$[ebp]
  00013	69 ff 50 2b 00
	00		 imul	 edi, 11088		; 00002b50H
  00019	03 3d 00 00 00
	00		 add	 edi, DWORD PTR ?gObj@@3PAUOBJECTSTRUCT@@A ; gObj
  0001f	33 c0		 xor	 eax, eax
  00021	89 45 08	 mov	 DWORD PTR _bAttack$[ebp], eax
  00024	89 45 f8	 mov	 DWORD PTR _nHitCount$[ebp], eax
  00027	8b 45 0c	 mov	 eax, DWORD PTR _aTargetIndex$[ebp]
  0002a	6a 01		 push	 1
  0002c	50		 push	 eax
  0002d	52		 push	 edx
  0002e	57		 push	 edi
  0002f	e8 00 00 00 00	 call	 ?GCMagicAttackNumberSend@@YAXPAUOBJECTSTRUCT@@GHE@Z ; GCMagicAttackNumberSend

; 4804 : 
; 4805 : 	int EnableAttack;
; 4806 : 	int bPVP = TRUE;
; 4807 : 	int DuelIndex = lpObj->m_iDuelUser;

  00034	8b 87 b8 0e 00
	00		 mov	 eax, DWORD PTR [edi+3768]
  0003a	8b 0d 00 00 00
	00		 mov	 ecx, DWORD PTR ?gObj@@3PAUOBJECTSTRUCT@@A ; gObj
  00040	89 45 ec	 mov	 DWORD PTR _DuelIndex$[ebp], eax
  00043	8d 87 b0 08 00
	00		 lea	 eax, DWORD PTR [edi+2224]
  00049	83 c4 10	 add	 esp, 16			; 00000010H
  0004c	89 45 f4	 mov	 DWORD PTR tv481[ebp], eax
  0004f	c7 45 f0 4b 00
	00 00		 mov	 DWORD PTR tv247[ebp], 75 ; 0000004bH
$LL26@MLS_SkillL:

; 4808 : 
; 4809 : 	while ( true )
; 4810 : 	{
; 4811 : 		if(lpObj->VpPlayer2[count].state != 0)

  00056	80 78 fc 00	 cmp	 BYTE PTR [eax-4], 0
  0005a	0f 84 4e 01 00
	00		 je	 $LN48@MLS_SkillL

; 4812 : 		{
; 4813 : 			tObjNum = lpObj->VpPlayer2[count].number;

  00060	0f bf 50 fe	 movsx	 edx, WORD PTR [eax-2]
  00064	89 55 fc	 mov	 DWORD PTR _tObjNum$[ebp], edx

; 4814 : 
; 4815 : 			if(tObjNum >= 0 && gObj[tObjNum].Live )

  00067	85 d2		 test	 edx, edx
  00069	0f 88 3f 01 00
	00		 js	 $LN48@MLS_SkillL
  0006f	8b f2		 mov	 esi, edx
  00071	69 f6 50 2b 00
	00		 imul	 esi, 11088		; 00002b50H
  00077	80 7c 0e 6a 00	 cmp	 BYTE PTR [esi+ecx+106], 0
  0007c	0f 84 2c 01 00
	00		 je	 $LN48@MLS_SkillL

; 4816 : 			{
; 4817 : 				EnableAttack = 0;
; 4818 : 
; 4819 : 				if(lpObj->VpPlayer2[count].type == OBJ_MONSTER && gObj[tObjNum].m_RecallMon < 0)

  00082	8a 18		 mov	 bl, BYTE PTR [eax]
  00084	80 fb 02	 cmp	 bl, 2
  00087	75 0e		 jne	 SHORT $LN22@MLS_SkillL
  00089	83 bc 0e 50 04
	00 00 00	 cmp	 DWORD PTR [esi+ecx+1104], 0

; 4820 : 				{
; 4821 : 					EnableAttack = 1;

  00091	0f 8c a8 00 00
	00		 jl	 $LN45@MLS_SkillL
$LN22@MLS_SkillL:

; 4822 : 				}
; 4823 : 				else if( CC_MAP_RANGE( lpObj->MapNumber ) || IT_MAP_RANGE( lpObj->MapNumber ) )

  00097	8a 87 49 01 00
	00		 mov	 al, BYTE PTR [edi+329]
  0009d	3c 35		 cmp	 al, 53			; 00000035H
  0009f	0f 84 9a 00 00
	00		 je	 $LN45@MLS_SkillL
  000a5	3c 12		 cmp	 al, 18			; 00000012H
  000a7	72 13		 jb	 SHORT $LN41@MLS_SkillL
  000a9	ba 17 00 00 00	 mov	 edx, 23			; 00000017H
  000ae	3a d0		 cmp	 dl, al
  000b0	1b d2		 sbb	 edx, edx
  000b2	42		 inc	 edx
  000b3	0f 85 86 00 00
	00		 jne	 $LN45@MLS_SkillL
  000b9	8b 55 fc	 mov	 edx, DWORD PTR _tObjNum$[ebp]
$LN41@MLS_SkillL:
  000bc	3c 2d		 cmp	 al, 45			; 0000002dH
  000be	72 0c		 jb	 SHORT $LN42@MLS_SkillL
  000c0	b2 32		 mov	 dl, 50			; 00000032H
  000c2	3a d0		 cmp	 dl, al
  000c4	1b c0		 sbb	 eax, eax
  000c6	40		 inc	 eax
  000c7	75 76		 jne	 SHORT $LN45@MLS_SkillL
  000c9	8b 55 fc	 mov	 edx, DWORD PTR _tObjNum$[ebp]
$LN42@MLS_SkillL:

; 4824 : 				{
; 4825 : 					EnableAttack = 1;
; 4826 : 				}
; 4827 : 				else if( (tObjNum == aTargetIndex && bPVP == TRUE ) || DuelIndex == tObjNum)

  000cc	3b 55 0c	 cmp	 edx, DWORD PTR _aTargetIndex$[ebp]
  000cf	74 6e		 je	 SHORT $LN45@MLS_SkillL
  000d1	39 55 ec	 cmp	 DWORD PTR _DuelIndex$[ebp], edx

; 4828 : 				{
; 4829 : 					EnableAttack = 1;

  000d4	74 69		 je	 SHORT $LN45@MLS_SkillL

; 4830 : 				}
; 4831 : 
; 4832 : 				else if(lpObj->VpPlayer2[count].type != OBJ_NPC && gObj[tObjNum].MapNumber == MAP_INDEX_CASTLESIEGE && g_CastleSiege.GetCastleState() == 7)

  000d6	80 fb 03	 cmp	 bl, 3
  000d9	74 28		 je	 SHORT $LN44@MLS_SkillL
  000db	80 bc 0e 49 01
	00 00 1e	 cmp	 BYTE PTR [esi+ecx+329], 30 ; 0000001eH
  000e3	75 1e		 jne	 SHORT $LN44@MLS_SkillL
  000e5	83 3d 28 00 00
	00 07		 cmp	 DWORD PTR ?g_CastleSiege@@3VCCastleSiege@@A+40, 7
  000ec	75 15		 jne	 SHORT $LN44@MLS_SkillL

; 4833 : 				{
; 4834 : 					if( lpObj->m_btCsJoinSide != gObj[tObjNum].m_btCsJoinSide )

  000ee	8a 87 02 1c 00
	00		 mov	 al, BYTE PTR [edi+7170]
  000f4	3a 84 0e 02 1c
	00 00		 cmp	 al, BYTE PTR [esi+ecx+7170]
  000fb	0f 84 ad 00 00
	00		 je	 $LN48@MLS_SkillL

; 4835 : 						EnableAttack = 1;
; 4836 : 				}
; 4837 : 
; 4838 : 				else

  00101	eb 3c		 jmp	 SHORT $LN45@MLS_SkillL
$LN44@MLS_SkillL:

; 4839 : 				{
; 4840 : 					int CallMonIndex = gObj[tObjNum].m_Index;
; 4841 : 
; 4842 : 					if(gObj[tObjNum].Type == OBJ_MONSTER && gObj[tObjNum].m_RecallMon >= 0)

  00103	66 83 7c 0e 68
	02		 cmp	 WORD PTR [esi+ecx+104], 2
  00109	8b 04 0e	 mov	 eax, DWORD PTR [esi+ecx]
  0010c	75 14		 jne	 SHORT $LN10@MLS_SkillL
  0010e	8b 94 0e 50 04
	00 00		 mov	 edx, DWORD PTR [esi+ecx+1104]
  00115	85 d2		 test	 edx, edx
  00117	78 09		 js	 SHORT $LN10@MLS_SkillL

; 4843 : 					{
; 4844 : 						CallMonIndex = gObj[gObj[tObjNum].m_RecallMon].m_Index;

  00119	69 d2 50 2b 00
	00		 imul	 edx, 11088		; 00002b50H
  0011f	8b 04 0a	 mov	 eax, DWORD PTR [edx+ecx]
$LN10@MLS_SkillL:

; 4845 : 					}
; 4846 : 
; 4847 : 					if(gObjTargetGuildWarCheck(lpObj,&gObj[CallMonIndex])==1)

  00122	69 c0 50 2b 00
	00		 imul	 eax, 11088		; 00002b50H
  00128	03 c1		 add	 eax, ecx
  0012a	50		 push	 eax
  0012b	57		 push	 edi
  0012c	e8 00 00 00 00	 call	 ?gObjTargetGuildWarCheck@@YAHPAUOBJECTSTRUCT@@0@Z ; gObjTargetGuildWarCheck
  00131	83 c4 08	 add	 esp, 8
  00134	83 f8 01	 cmp	 eax, 1
  00137	75 6f		 jne	 SHORT $LN47@MLS_SkillL
  00139	8b 0d 00 00 00
	00		 mov	 ecx, DWORD PTR ?gObj@@3PAUOBJECTSTRUCT@@A ; gObj
$LN45@MLS_SkillL:

; 4848 : 					{
; 4849 : 						EnableAttack = 1;
; 4850 : 					}
; 4851 : 				}
; 4852 : 
; 4853 : 				if(EnableAttack != 0)
; 4854 : 				{
; 4855 : 					if(gObjCalDistance(lpObj,&gObj[tObjNum]) < 7)

  0013f	03 f1		 add	 esi, ecx
  00141	56		 push	 esi
  00142	57		 push	 edi
  00143	e8 00 00 00 00	 call	 ?gObjCalDistance@@YAHPAUOBJECTSTRUCT@@0@Z ; gObjCalDistance
  00148	83 c4 08	 add	 esp, 8
  0014b	83 f8 07	 cmp	 eax, 7
  0014e	7d 58		 jge	 SHORT $LN47@MLS_SkillL

; 4856 : 					{
; 4857 : 						nHitCount++;

  00150	8b 75 f8	 mov	 esi, DWORD PTR _nHitCount$[ebp]
  00153	bb 01 00 00 00	 mov	 ebx, 1
  00158	03 f3		 add	 esi, ebx
  0015a	89 75 f8	 mov	 DWORD PTR _nHitCount$[ebp], esi

; 4858 : 
; 4859 : 						if( nHitCount > 5)

  0015d	83 fe 05	 cmp	 esi, 5
  00160	7e 13		 jle	 SHORT $LN6@MLS_SkillL

; 4860 : 						{
; 4861 : 							if( rand()%2 )

  00162	e8 00 00 00 00	 call	 _rand
  00167	25 01 00 00 80	 and	 eax, -2147483647	; 80000001H
  0016c	79 05		 jns	 SHORT $LN51@MLS_SkillL
  0016e	48		 dec	 eax
  0016f	83 c8 fe	 or	 eax, -2			; fffffffeH
  00172	40		 inc	 eax
$LN51@MLS_SkillL:
  00173	74 03		 je	 SHORT $LN46@MLS_SkillL
$LN6@MLS_SkillL:

; 4862 : 							{
; 4863 : 								bAttack = TRUE;
; 4864 : 							}
; 4865 : 						}
; 4866 : 						else
; 4867 : 						{
; 4868 : 							bAttack = TRUE;

  00175	89 5d 08	 mov	 DWORD PTR _bAttack$[ebp], ebx
$LN46@MLS_SkillL:

; 4869 : 						}
; 4870 : 
; 4871 : 						if( nHitCount > 12)

  00178	83 fe 0c	 cmp	 esi, 12			; 0000000cH
  0017b	7e 09		 jle	 SHORT $LN3@MLS_SkillL

; 4872 : 						{
; 4873 : 							bAttack = FALSE;

  0017d	c7 45 08 00 00
	00 00		 mov	 DWORD PTR _bAttack$[ebp], 0

; 4874 : 						}
; 4875 : 
; 4876 : 						if(bAttack == TRUE)

  00184	eb 22		 jmp	 SHORT $LN47@MLS_SkillL
$LN3@MLS_SkillL:
  00186	39 5d 08	 cmp	 DWORD PTR _bAttack$[ebp], ebx
  00189	75 1d		 jne	 SHORT $LN47@MLS_SkillL

; 4877 : 						{
; 4878 : 							gObjAddAttackProcMsgSendDelay(lpObj,50,tObjNum,250,lpMagic->m_Skill,0);

  0018b	8b 4d 10	 mov	 ecx, DWORD PTR _lpMagic$[ebp]
  0018e	8b 51 08	 mov	 edx, DWORD PTR [ecx+8]
  00191	8b 45 fc	 mov	 eax, DWORD PTR _tObjNum$[ebp]
  00194	6a 00		 push	 0
  00196	52		 push	 edx
  00197	68 fa 00 00 00	 push	 250			; 000000faH
  0019c	50		 push	 eax
  0019d	6a 32		 push	 50			; 00000032H
  0019f	57		 push	 edi
  001a0	e8 00 00 00 00	 call	 ?gObjAddAttackProcMsgSendDelay@@YAXPAUOBJECTSTRUCT@@HHHHH@Z ; gObjAddAttackProcMsgSendDelay
  001a5	83 c4 18	 add	 esp, 24			; 00000018H
$LN47@MLS_SkillL:
  001a8	8b 0d 00 00 00
	00		 mov	 ecx, DWORD PTR ?gObj@@3PAUOBJECTSTRUCT@@A ; gObj
$LN48@MLS_SkillL:

; 4879 : 						}
; 4880 : 					}
; 4881 : 				}
; 4882 : 			}
; 4883 : 		}
; 4884 : 
; 4885 : 		count++;

  001ae	8b 45 f4	 mov	 eax, DWORD PTR tv481[ebp]
  001b1	83 c0 0c	 add	 eax, 12			; 0000000cH

; 4886 : 		if(count > MAX_VIEWPORT -1)

  001b4	ff 4d f0	 dec	 DWORD PTR tv247[ebp]
  001b7	89 45 f4	 mov	 DWORD PTR tv481[ebp], eax
  001ba	0f 85 96 fe ff
	ff		 jne	 $LL26@MLS_SkillL

; 4887 : 		{
; 4888 : 			break;
; 4889 : 		}
; 4890 : 	}
; 4891 : return TRUE;

  001c0	5f		 pop	 edi
  001c1	5e		 pop	 esi
  001c2	b8 01 00 00 00	 mov	 eax, 1
  001c7	5b		 pop	 ebx

; 4892 : }

  001c8	8b e5		 mov	 esp, ebp
  001ca	5d		 pop	 ebp
  001cb	c2 0c 00	 ret	 12			; 0000000cH
?MLS_SkillLightningShock@CMasterLevelSkillTreeSystem@@QAEHHHPAVCMagicInf@@@Z ENDP ; CMasterLevelSkillTreeSystem::MLS_SkillLightningShock
_TEXT	ENDS
PUBLIC	?MLS_SkillDrainLife@CMasterLevelSkillTreeSystem@@QAEHHHPAVCMagicInf@@@Z ; CMasterLevelSkillTreeSystem::MLS_SkillDrainLife
; Function compile flags: /Ogtp
;	COMDAT ?MLS_SkillDrainLife@CMasterLevelSkillTreeSystem@@QAEHHHPAVCMagicInf@@@Z
_TEXT	SEGMENT
_DuelIndex$ = -12					; size = 4
_bRet$ = -8						; size = 4
_count$ = -4						; size = 4
_aIndex$ = 8						; size = 4
_aTargetIndex$ = 12					; size = 4
_lpMagic$ = 16						; size = 4
?MLS_SkillDrainLife@CMasterLevelSkillTreeSystem@@QAEHHHPAVCMagicInf@@@Z PROC ; CMasterLevelSkillTreeSystem::MLS_SkillDrainLife, COMDAT
; _this$ = ecx

; 4895 : {

  00000	55		 push	 ebp
  00001	8b ec		 mov	 ebp, esp

; 4896 : 	if( !OBJMAX_RANGE(aTargetIndex) )

  00003	8b 4d 0c	 mov	 ecx, DWORD PTR _aTargetIndex$[ebp]
  00006	33 d2		 xor	 edx, edx
  00008	83 ec 0c	 sub	 esp, 12			; 0000000cH
  0000b	3b ca		 cmp	 ecx, edx
  0000d	7c 0f		 jl	 SHORT $LN23@MLS_SkillD
  0000f	33 c0		 xor	 eax, eax
  00011	81 f9 97 3a 00
	00		 cmp	 ecx, 14999		; 00003a97H
  00017	0f 9e c0	 setle	 al
  0001a	3b c2		 cmp	 eax, edx
  0001c	75 08		 jne	 SHORT $LN14@MLS_SkillD
$LN23@MLS_SkillD:

; 4897 : 		return false;

  0001e	33 c0		 xor	 eax, eax

; 4964 : }

  00020	8b e5		 mov	 esp, ebp
  00022	5d		 pop	 ebp
  00023	c2 0c 00	 ret	 12			; 0000000cH
$LN14@MLS_SkillD:

; 4898 : 
; 4899 : 	LPOBJ lpObj = &gObj[aIndex];
; 4900 : 	int bRet = FALSE;
; 4901 : 	int tObjNum;
; 4902 : 
; 4903 : 	int Angle = this->MLS_GetAngle(lpObj->X,lpObj->Y,gObj[aTargetIndex].X,gObj[aTargetIndex].Y);
; 4904 : 	int count = 0;
; 4905 : 
; 4906 : 	GCMagicAttackNumberSend(lpObj,lpMagic->m_Skill,aTargetIndex,1);

  00026	8b 45 10	 mov	 eax, DWORD PTR _lpMagic$[ebp]
  00029	53		 push	 ebx
  0002a	56		 push	 esi
  0002b	8b 75 08	 mov	 esi, DWORD PTR _aIndex$[ebp]
  0002e	57		 push	 edi
  0002f	69 f6 50 2b 00
	00		 imul	 esi, 11088		; 00002b50H
  00035	03 35 00 00 00
	00		 add	 esi, DWORD PTR ?gObj@@3PAUOBJECTSTRUCT@@A ; gObj
  0003b	6a 01		 push	 1
  0003d	51		 push	 ecx
  0003e	0f b7 48 08	 movzx	 ecx, WORD PTR [eax+8]
  00042	51		 push	 ecx
  00043	56		 push	 esi
  00044	89 55 f8	 mov	 DWORD PTR _bRet$[ebp], edx
  00047	89 55 fc	 mov	 DWORD PTR _count$[ebp], edx
  0004a	e8 00 00 00 00	 call	 ?GCMagicAttackNumberSend@@YAXPAUOBJECTSTRUCT@@GHE@Z ; GCMagicAttackNumberSend

; 4907 : 
; 4908 : 	int DuelIndex = lpObj->m_iDuelUser;

  0004f	8b 96 b8 0e 00
	00		 mov	 edx, DWORD PTR [esi+3768]
  00055	89 55 f4	 mov	 DWORD PTR _DuelIndex$[ebp], edx
  00058	8b 15 00 00 00
	00		 mov	 edx, DWORD PTR ?gObj@@3PAUOBJECTSTRUCT@@A ; gObj
  0005e	83 c4 10	 add	 esp, 16			; 00000010H
  00061	8d 9e ae 08 00
	00		 lea	 ebx, DWORD PTR [esi+2222]
  00067	eb 07 8d a4 24
	00 00 00 00	 npad	 9
$LL13@MLS_SkillD:

; 4909 : 	int EnableAttack;
; 4910 : 
; 4911 : 	while( TRUE )
; 4912 : 	{
; 4913 : 		if(lpObj->VpPlayer2[count].state != 0)

  00070	80 7b fe 00	 cmp	 BYTE PTR [ebx-2], 0
  00074	0f 84 97 00 00
	00		 je	 $LN28@MLS_SkillD

; 4914 : 		{
; 4915 : 			tObjNum = lpObj->VpPlayer2[count].number;

  0007a	0f bf 3b	 movsx	 edi, WORD PTR [ebx]

; 4916 : 
; 4917 : 			if( tObjNum >= 0 )

  0007d	85 ff		 test	 edi, edi
  0007f	0f 88 8c 00 00
	00		 js	 $LN28@MLS_SkillD

; 4918 : 			{
; 4919 : 				EnableAttack = 0;
; 4920 : 
; 4921 : 				if(lpObj->VpPlayer2[count].type == OBJ_MONSTER && gObj[tObjNum].m_RecallMon < 0)

  00085	80 7b 02 02	 cmp	 BYTE PTR [ebx+2], 2
  00089	75 12		 jne	 SHORT $LN9@MLS_SkillD
  0008b	8b c7		 mov	 eax, edi
  0008d	69 c0 50 2b 00
	00		 imul	 eax, 11088		; 00002b50H
  00093	83 bc 10 50 04
	00 00 00	 cmp	 DWORD PTR [eax+edx+1104], 0

; 4922 : 				{
; 4923 : 					EnableAttack = 1;

  0009b	7c 4e		 jl	 SHORT $LN27@MLS_SkillD
$LN9@MLS_SkillD:

; 4924 : 				}
; 4925 : 				else if(tObjNum == aTargetIndex || DuelIndex == tObjNum)

  0009d	3b 7d 0c	 cmp	 edi, DWORD PTR _aTargetIndex$[ebp]
  000a0	74 4e		 je	 SHORT $LN25@MLS_SkillD
  000a2	39 7d f4	 cmp	 DWORD PTR _DuelIndex$[ebp], edi
  000a5	74 44		 je	 SHORT $LN27@MLS_SkillD

; 4926 : 				{
; 4927 : 					EnableAttack = 1;
; 4928 : 				}
; 4929 : 				else
; 4930 : 				{
; 4931 : 					int CallMonIndex = gObj[tObjNum].m_Index;

  000a7	8b cf		 mov	 ecx, edi
  000a9	69 c9 50 2b 00
	00		 imul	 ecx, 11088		; 00002b50H

; 4932 : 
; 4933 : 					if(gObj[tObjNum].Type == OBJ_MONSTER && gObj[tObjNum].m_RecallMon >= 0)

  000af	66 83 7c 11 68
	02		 cmp	 WORD PTR [ecx+edx+104], 2
  000b5	8b 04 11	 mov	 eax, DWORD PTR [ecx+edx]
  000b8	75 14		 jne	 SHORT $LN4@MLS_SkillD
  000ba	8b 8c 11 50 04
	00 00		 mov	 ecx, DWORD PTR [ecx+edx+1104]
  000c1	85 c9		 test	 ecx, ecx
  000c3	78 09		 js	 SHORT $LN4@MLS_SkillD

; 4934 : 					{
; 4935 : 						CallMonIndex = gObj[gObj[tObjNum].m_RecallMon].m_Index;

  000c5	69 c9 50 2b 00
	00		 imul	 ecx, 11088		; 00002b50H
  000cb	8b 04 11	 mov	 eax, DWORD PTR [ecx+edx]
$LN4@MLS_SkillD:

; 4936 : 					}
; 4937 : 
; 4938 : 					if(gObjTargetGuildWarCheck(lpObj,&gObj[CallMonIndex])==1)

  000ce	69 c0 50 2b 00
	00		 imul	 eax, 11088		; 00002b50H
  000d4	03 c2		 add	 eax, edx
  000d6	50		 push	 eax
  000d7	56		 push	 esi
  000d8	e8 00 00 00 00	 call	 ?gObjTargetGuildWarCheck@@YAHPAUOBJECTSTRUCT@@0@Z ; gObjTargetGuildWarCheck
  000dd	83 c4 08	 add	 esp, 8
  000e0	83 f8 01	 cmp	 eax, 1
  000e3	75 26		 jne	 SHORT $LN26@MLS_SkillD
  000e5	8b 15 00 00 00
	00		 mov	 edx, DWORD PTR ?gObj@@3PAUOBJECTSTRUCT@@A ; gObj
$LN27@MLS_SkillD:

; 4939 : 					{
; 4940 : 						EnableAttack = 1;
; 4941 : 					}
; 4942 : 				}
; 4943 : 
; 4944 : 				if( EnableAttack != 0 &&
; 4945 : 					tObjNum == aTargetIndex && 
; 4946 : 					gCheckSkillDistance(aIndex,aTargetIndex,lpMagic->m_Skill) != FALSE )

  000eb	3b 7d 0c	 cmp	 edi, DWORD PTR _aTargetIndex$[ebp]
  000ee	75 21		 jne	 SHORT $LN28@MLS_SkillD
$LN25@MLS_SkillD:
  000f0	8b 55 10	 mov	 edx, DWORD PTR _lpMagic$[ebp]
  000f3	8b 42 08	 mov	 eax, DWORD PTR [edx+8]
  000f6	8b 4d 0c	 mov	 ecx, DWORD PTR _aTargetIndex$[ebp]
  000f9	8b 55 08	 mov	 edx, DWORD PTR _aIndex$[ebp]
  000fc	50		 push	 eax
  000fd	51		 push	 ecx
  000fe	52		 push	 edx
  000ff	e8 00 00 00 00	 call	 ?gCheckSkillDistance@@YAHHHH@Z ; gCheckSkillDistance
  00104	83 c4 0c	 add	 esp, 12			; 0000000cH
  00107	85 c0		 test	 eax, eax
  00109	75 25		 jne	 SHORT $LN21@MLS_SkillD
$LN26@MLS_SkillD:
  0010b	8b 15 00 00 00
	00		 mov	 edx, DWORD PTR ?gObj@@3PAUOBJECTSTRUCT@@A ; gObj
$LN28@MLS_SkillD:

; 4950 : 					break;
; 4951 : 				}
; 4952 : 			}
; 4953 : 		}
; 4954 : 
; 4955 : 		count++;

  00111	8b 45 fc	 mov	 eax, DWORD PTR _count$[ebp]
  00114	40		 inc	 eax
  00115	83 c3 0c	 add	 ebx, 12			; 0000000cH
  00118	89 45 fc	 mov	 DWORD PTR _count$[ebp], eax

; 4956 : 
; 4957 : 		if( count > MAX_VIEWPORT -1)

  0011b	83 f8 4a	 cmp	 eax, 74			; 0000004aH
  0011e	0f 8e 4c ff ff
	ff		 jle	 $LL13@MLS_SkillD

; 4958 : 		{
; 4959 : 			break;
; 4960 : 		}
; 4961 : 	}
; 4962 : 
; 4963 : return bRet;

  00124	8b 45 f8	 mov	 eax, DWORD PTR _bRet$[ebp]
  00127	5f		 pop	 edi
  00128	5e		 pop	 esi
  00129	5b		 pop	 ebx

; 4964 : }

  0012a	8b e5		 mov	 esp, ebp
  0012c	5d		 pop	 ebp
  0012d	c2 0c 00	 ret	 12			; 0000000cH
$LN21@MLS_SkillD:

; 4947 : 				{
; 4948 : 					gObjAddAttackProcMsgSendDelay(lpObj,50,tObjNum,700,lpMagic->m_Skill,0);

  00130	8b 45 10	 mov	 eax, DWORD PTR _lpMagic$[ebp]
  00133	8b 48 08	 mov	 ecx, DWORD PTR [eax+8]
  00136	6a 00		 push	 0
  00138	51		 push	 ecx
  00139	68 bc 02 00 00	 push	 700			; 000002bcH
  0013e	57		 push	 edi
  0013f	6a 32		 push	 50			; 00000032H
  00141	56		 push	 esi
  00142	e8 00 00 00 00	 call	 ?gObjAddAttackProcMsgSendDelay@@YAXPAUOBJECTSTRUCT@@HHHHH@Z ; gObjAddAttackProcMsgSendDelay
  00147	83 c4 18	 add	 esp, 24			; 00000018H
  0014a	5f		 pop	 edi

; 4949 : 					bRet = TRUE;

  0014b	c7 45 f8 01 00
	00 00		 mov	 DWORD PTR _bRet$[ebp], 1

; 4958 : 		{
; 4959 : 			break;
; 4960 : 		}
; 4961 : 	}
; 4962 : 
; 4963 : return bRet;

  00152	8b 45 f8	 mov	 eax, DWORD PTR _bRet$[ebp]
  00155	5e		 pop	 esi
  00156	5b		 pop	 ebx

; 4964 : }

  00157	8b e5		 mov	 esp, ebp
  00159	5d		 pop	 ebp
  0015a	c2 0c 00	 ret	 12			; 0000000cH
?MLS_SkillDrainLife@CMasterLevelSkillTreeSystem@@QAEHHHPAVCMagicInf@@@Z ENDP ; CMasterLevelSkillTreeSystem::MLS_SkillDrainLife
_TEXT	ENDS
PUBLIC	??_C@_0EL@GAACFAMN@?$FLMasterLevelSkillTreeSystem?$FN?5Get@ ; `string'
PUBLIC	??_C@_0EK@KBNIBHHJ@?$FLMasterLevelSkillTreeSystem?$FN?5Get@ ; `string'
PUBLIC	?GetSkillReqMLPoint@CMasterLevelSkillTreeSystem@@QAEHHH@Z ; CMasterLevelSkillTreeSystem::GetSkillReqMLPoint
EXTRN	?LogAddTD@@3P6AXPADZZA:DWORD			; LogAddTD
;	COMDAT ??_C@_0EL@GAACFAMN@?$FLMasterLevelSkillTreeSystem?$FN?5Get@
CONST	SEGMENT
??_C@_0EL@GAACFAMN@?$FLMasterLevelSkillTreeSystem?$FN?5Get@ DB '[MasterLe'
	DB	'velSkillTreeSystem] GetSkillReqMLPoint - Invalid Class Code  '
	DB	': %d', 00H					; `string'
CONST	ENDS
;	COMDAT ??_C@_0EK@KBNIBHHJ@?$FLMasterLevelSkillTreeSystem?$FN?5Get@
CONST	SEGMENT
??_C@_0EK@KBNIBHHJ@?$FLMasterLevelSkillTreeSystem?$FN?5Get@ DB '[MasterLe'
	DB	'velSkillTreeSystem] GetSkillReqMLPoint - Invalid Skill Code :'
	DB	' %d', 00H					; `string'
; Function compile flags: /Ogtp
CONST	ENDS
;	COMDAT ?GetSkillReqMLPoint@CMasterLevelSkillTreeSystem@@QAEHHH@Z
_TEXT	SEGMENT
_this$ = -8						; size = 4
_nReturn$ = -4						; size = 4
tv389 = 8						; size = 4
_iClass$ = 8						; size = 4
_iSkill$ = 12						; size = 4
?GetSkillReqMLPoint@CMasterLevelSkillTreeSystem@@QAEHHH@Z PROC ; CMasterLevelSkillTreeSystem::GetSkillReqMLPoint, COMDAT
; _this$ = ecx

; 4967 : {

  00000	55		 push	 ebp
  00001	8b ec		 mov	 ebp, esp
  00003	83 ec 08	 sub	 esp, 8

; 4968 : 
; 4969 : 	if( iClass < CLASS_WIZARD || iClass > CLASS_MONK )

  00006	8b 55 08	 mov	 edx, DWORD PTR _iClass$[ebp]
  00009	8b c1		 mov	 eax, ecx
  0000b	89 45 f8	 mov	 DWORD PTR _this$[ebp], eax
  0000e	83 fa 06	 cmp	 edx, 6
  00011	0f 87 99 00 00
	00		 ja	 $LN13@GetSkillRe

; 4973 : 	}
; 4974 : 
; 4975 : 	if( iSkill < 0 || iSkill > MAX_SKILL-1 )

  00017	8b 4d 0c	 mov	 ecx, DWORD PTR _iSkill$[ebp]
  0001a	81 f9 bb 02 00
	00		 cmp	 ecx, 699		; 000002bbH
  00020	77 76		 ja	 SHORT $LN11@GetSkillRe

; 4978 : 		return -1;
; 4979 : 	}
; 4980 : 
; 4981 : 	int nReturn = -1;

  00022	8b ca		 mov	 ecx, edx
  00024	69 c9 74 08 00
	00		 imul	 ecx, 2164		; 00000874H
  0002a	53		 push	 ebx
  0002b	56		 push	 esi
  0002c	57		 push	 edi
  0002d	c7 45 fc ff ff
	ff ff		 mov	 DWORD PTR _nReturn$[ebp], -1
  00034	33 ff		 xor	 edi, edi
  00036	8d 54 01 18	 lea	 edx, DWORD PTR [ecx+eax+24]
  0003a	8d 9b 00 00 00
	00		 npad	 6
$LL24@GetSkillRe:

; 4984 : 	{
; 4985 : 		for(int iRank = 0; iRank < MAX_SKILLTREE_RANK; iRank++)

  00040	8b da		 mov	 ebx, edx
  00042	c7 45 08 09 00
	00 00		 mov	 DWORD PTR tv389[ebp], 9
  00049	8d a4 24 00 00
	00 00		 npad	 7
$LL25@GetSkillRe:

; 4986 : 		{
; 4987 : 			for(int iPos = 0; iPos < MAX_SKILLTREE_POS; iPos++)

  00050	33 d2		 xor	 edx, edx
  00052	8b f3		 mov	 esi, ebx
$LL4@GetSkillRe:

; 4988 : 			{
; 4989 : 				if( this->m_SkillTreeData[iClass].m_SkillInfo[iTreeKind][iRank][iPos].m_iSkillID == iSkill )

  00054	8b 45 0c	 mov	 eax, DWORD PTR _iSkill$[ebp]
  00057	39 06		 cmp	 DWORD PTR [esi], eax
  00059	74 0b		 je	 SHORT $LN20@GetSkillRe

; 4986 : 		{
; 4987 : 			for(int iPos = 0; iPos < MAX_SKILLTREE_POS; iPos++)

  0005b	42		 inc	 edx
  0005c	83 c6 14	 add	 esi, 20			; 00000014H
  0005f	83 fa 04	 cmp	 edx, 4
  00062	7c f0		 jl	 SHORT $LL4@GetSkillRe

; 4988 : 			{
; 4989 : 				if( this->m_SkillTreeData[iClass].m_SkillInfo[iTreeKind][iRank][iPos].m_iSkillID == iSkill )

  00064	eb 14		 jmp	 SHORT $LN6@GetSkillRe
$LN20@GetSkillRe:

; 4990 : 				{
; 4991 : 					nReturn = this->m_SkillTreeData[iClass].m_SkillInfo[iTreeKind][iRank][iPos].m_btPoint;

  00066	8d 04 17	 lea	 eax, DWORD PTR [edi+edx]
  00069	8d 14 80	 lea	 edx, DWORD PTR [eax+eax*4]
  0006c	8d 04 91	 lea	 eax, DWORD PTR [ecx+edx*4]
  0006f	8b 55 f8	 mov	 edx, DWORD PTR _this$[ebp]
  00072	0f b6 44 10 0c	 movzx	 eax, BYTE PTR [eax+edx+12]
  00077	89 45 fc	 mov	 DWORD PTR _nReturn$[ebp], eax
$LN6@GetSkillRe:

; 4984 : 	{
; 4985 : 		for(int iRank = 0; iRank < MAX_SKILLTREE_RANK; iRank++)

  0007a	83 c3 50	 add	 ebx, 80			; 00000050H
  0007d	83 c7 04	 add	 edi, 4
  00080	ff 4d 08	 dec	 DWORD PTR tv389[ebp]
  00083	75 cb		 jne	 SHORT $LL25@GetSkillRe

; 4982 : 
; 4983 : 	for(int iTreeKind = 0; iTreeKind < MAX_SKILLTREE_TYPE; iTreeKind++)

  00085	8b d3		 mov	 edx, ebx
  00087	83 ff 6c	 cmp	 edi, 108		; 0000006cH
  0008a	7c b4		 jl	 SHORT $LL24@GetSkillRe

; 4992 : 					break;
; 4993 : 				}
; 4994 : 			}
; 4995 : 		}
; 4996 : 	}
; 4997 : return nReturn;

  0008c	8b 45 fc	 mov	 eax, DWORD PTR _nReturn$[ebp]
  0008f	5f		 pop	 edi
  00090	5e		 pop	 esi
  00091	5b		 pop	 ebx

; 4998 : }

  00092	8b e5		 mov	 esp, ebp
  00094	5d		 pop	 ebp
  00095	c2 08 00	 ret	 8
$LN11@GetSkillRe:

; 4976 : 	{
; 4977 : 		LogAddTD("[MasterLevelSkillTreeSystem] GetSkillReqMLPoint - Invalid Skill Code : %d",iSkill);

  00098	51		 push	 ecx
  00099	68 00 00 00 00	 push	 OFFSET ??_C@_0EK@KBNIBHHJ@?$FLMasterLevelSkillTreeSystem?$FN?5Get@
  0009e	ff 15 00 00 00
	00		 call	 DWORD PTR ?LogAddTD@@3P6AXPADZZA ; LogAddTD
  000a4	83 c4 08	 add	 esp, 8
  000a7	83 c8 ff	 or	 eax, -1

; 4998 : }

  000aa	8b e5		 mov	 esp, ebp
  000ac	5d		 pop	 ebp
  000ad	c2 08 00	 ret	 8
$LN13@GetSkillRe:

; 4970 : 	{
; 4971 : 		LogAddTD("[MasterLevelSkillTreeSystem] GetSkillReqMLPoint - Invalid Class Code  : %d",iClass);

  000b0	52		 push	 edx
  000b1	68 00 00 00 00	 push	 OFFSET ??_C@_0EL@GAACFAMN@?$FLMasterLevelSkillTreeSystem?$FN?5Get@
  000b6	ff 15 00 00 00
	00		 call	 DWORD PTR ?LogAddTD@@3P6AXPADZZA ; LogAddTD
  000bc	83 c4 08	 add	 esp, 8

; 4972 : 		return -1;

  000bf	83 c8 ff	 or	 eax, -1

; 4998 : }

  000c2	8b e5		 mov	 esp, ebp
  000c4	5d		 pop	 ebp
  000c5	c2 08 00	 ret	 8
?GetSkillReqMLPoint@CMasterLevelSkillTreeSystem@@QAEHHH@Z ENDP ; CMasterLevelSkillTreeSystem::GetSkillReqMLPoint
_TEXT	ENDS
PUBLIC	?GetMaxPointOfMasterSkill@CMasterLevelSkillTreeSystem@@QAEHHH@Z ; CMasterLevelSkillTreeSystem::GetMaxPointOfMasterSkill
; Function compile flags: /Ogtp
;	COMDAT ?GetMaxPointOfMasterSkill@CMasterLevelSkillTreeSystem@@QAEHHH@Z
_TEXT	SEGMENT
_this$ = -8						; size = 4
_nReturn$ = -4						; size = 4
tv389 = 8						; size = 4
_iClass$ = 8						; size = 4
_iSkill$ = 12						; size = 4
?GetMaxPointOfMasterSkill@CMasterLevelSkillTreeSystem@@QAEHHH@Z PROC ; CMasterLevelSkillTreeSystem::GetMaxPointOfMasterSkill, COMDAT
; _this$ = ecx

; 5001 : {

  00000	55		 push	 ebp
  00001	8b ec		 mov	 ebp, esp
  00003	83 ec 08	 sub	 esp, 8

; 5002 : 	if( iClass < CLASS_WIZARD || iClass > CLASS_MONK )

  00006	8b 55 08	 mov	 edx, DWORD PTR _iClass$[ebp]
  00009	8b c1		 mov	 eax, ecx
  0000b	89 45 f8	 mov	 DWORD PTR _this$[ebp], eax
  0000e	83 fa 06	 cmp	 edx, 6
  00011	0f 87 99 00 00
	00		 ja	 $LN13@GetMaxPoin

; 5006 : 	}
; 5007 : 
; 5008 : 	if( iSkill < 0 || iSkill > MAX_SKILL-1 )

  00017	8b 4d 0c	 mov	 ecx, DWORD PTR _iSkill$[ebp]
  0001a	81 f9 bb 02 00
	00		 cmp	 ecx, 699		; 000002bbH
  00020	77 76		 ja	 SHORT $LN11@GetMaxPoin

; 5011 : 		return -1;
; 5012 : 	}
; 5013 : 
; 5014 : 	int nReturn = -1;

  00022	8b ca		 mov	 ecx, edx
  00024	69 c9 74 08 00
	00		 imul	 ecx, 2164		; 00000874H
  0002a	53		 push	 ebx
  0002b	56		 push	 esi
  0002c	57		 push	 edi
  0002d	c7 45 fc ff ff
	ff ff		 mov	 DWORD PTR _nReturn$[ebp], -1
  00034	33 ff		 xor	 edi, edi
  00036	8d 54 01 18	 lea	 edx, DWORD PTR [ecx+eax+24]
  0003a	8d 9b 00 00 00
	00		 npad	 6
$LL24@GetMaxPoin:

; 5017 : 	{
; 5018 : 		for(int iRank = 0; iRank < MAX_SKILLTREE_RANK; iRank++)

  00040	8b da		 mov	 ebx, edx
  00042	c7 45 08 09 00
	00 00		 mov	 DWORD PTR tv389[ebp], 9
  00049	8d a4 24 00 00
	00 00		 npad	 7
$LL25@GetMaxPoin:

; 5019 : 		{
; 5020 : 			for(int iPos = 0; iPos < MAX_SKILLTREE_POS; iPos++)

  00050	33 d2		 xor	 edx, edx
  00052	8b f3		 mov	 esi, ebx
$LL4@GetMaxPoin:

; 5021 : 			{
; 5022 : 				if( this->m_SkillTreeData[iClass].m_SkillInfo[iTreeKind][iRank][iPos].m_iSkillID == iSkill )

  00054	8b 45 0c	 mov	 eax, DWORD PTR _iSkill$[ebp]
  00057	39 06		 cmp	 DWORD PTR [esi], eax
  00059	74 0b		 je	 SHORT $LN20@GetMaxPoin

; 5019 : 		{
; 5020 : 			for(int iPos = 0; iPos < MAX_SKILLTREE_POS; iPos++)

  0005b	42		 inc	 edx
  0005c	83 c6 14	 add	 esi, 20			; 00000014H
  0005f	83 fa 04	 cmp	 edx, 4
  00062	7c f0		 jl	 SHORT $LL4@GetMaxPoin

; 5021 : 			{
; 5022 : 				if( this->m_SkillTreeData[iClass].m_SkillInfo[iTreeKind][iRank][iPos].m_iSkillID == iSkill )

  00064	eb 14		 jmp	 SHORT $LN6@GetMaxPoin
$LN20@GetMaxPoin:

; 5023 : 				{
; 5024 : 					nReturn = this->m_SkillTreeData[iClass].m_SkillInfo[iTreeKind][iRank][iPos].m_btMaxPoint;

  00066	8d 04 17	 lea	 eax, DWORD PTR [edi+edx]
  00069	8d 14 80	 lea	 edx, DWORD PTR [eax+eax*4]
  0006c	8d 04 91	 lea	 eax, DWORD PTR [ecx+edx*4]
  0006f	8b 55 f8	 mov	 edx, DWORD PTR _this$[ebp]
  00072	0f b6 44 10 0d	 movzx	 eax, BYTE PTR [eax+edx+13]
  00077	89 45 fc	 mov	 DWORD PTR _nReturn$[ebp], eax
$LN6@GetMaxPoin:

; 5017 : 	{
; 5018 : 		for(int iRank = 0; iRank < MAX_SKILLTREE_RANK; iRank++)

  0007a	83 c3 50	 add	 ebx, 80			; 00000050H
  0007d	83 c7 04	 add	 edi, 4
  00080	ff 4d 08	 dec	 DWORD PTR tv389[ebp]
  00083	75 cb		 jne	 SHORT $LL25@GetMaxPoin

; 5015 : 
; 5016 : 	for(int iTreeKind = 0; iTreeKind < MAX_SKILLTREE_TYPE; iTreeKind++)

  00085	8b d3		 mov	 edx, ebx
  00087	83 ff 6c	 cmp	 edi, 108		; 0000006cH
  0008a	7c b4		 jl	 SHORT $LL24@GetMaxPoin

; 5025 : 					break;
; 5026 : 				}
; 5027 : 			}
; 5028 : 		}
; 5029 : 	}
; 5030 : 	return nReturn;

  0008c	8b 45 fc	 mov	 eax, DWORD PTR _nReturn$[ebp]
  0008f	5f		 pop	 edi
  00090	5e		 pop	 esi
  00091	5b		 pop	 ebx

; 5031 : }

  00092	8b e5		 mov	 esp, ebp
  00094	5d		 pop	 ebp
  00095	c2 08 00	 ret	 8
$LN11@GetMaxPoin:

; 5009 : 	{
; 5010 : 		LogAddTD("[MasterLevelSkillTreeSystem] GetSkillReqMLPoint - Invalid Skill Code : %d",iSkill);

  00098	51		 push	 ecx
  00099	68 00 00 00 00	 push	 OFFSET ??_C@_0EK@KBNIBHHJ@?$FLMasterLevelSkillTreeSystem?$FN?5Get@
  0009e	ff 15 00 00 00
	00		 call	 DWORD PTR ?LogAddTD@@3P6AXPADZZA ; LogAddTD
  000a4	83 c4 08	 add	 esp, 8
  000a7	83 c8 ff	 or	 eax, -1

; 5031 : }

  000aa	8b e5		 mov	 esp, ebp
  000ac	5d		 pop	 ebp
  000ad	c2 08 00	 ret	 8
$LN13@GetMaxPoin:

; 5003 : 	{
; 5004 : 		LogAddTD("[MasterLevelSkillTreeSystem] GetSkillReqMLPoint - Invalid Class Code  : %d",iClass);

  000b0	52		 push	 edx
  000b1	68 00 00 00 00	 push	 OFFSET ??_C@_0EL@GAACFAMN@?$FLMasterLevelSkillTreeSystem?$FN?5Get@
  000b6	ff 15 00 00 00
	00		 call	 DWORD PTR ?LogAddTD@@3P6AXPADZZA ; LogAddTD
  000bc	83 c4 08	 add	 esp, 8

; 5005 : 		return -1;

  000bf	83 c8 ff	 or	 eax, -1

; 5031 : }

  000c2	8b e5		 mov	 esp, ebp
  000c4	5d		 pop	 ebp
  000c5	c2 08 00	 ret	 8
?GetMaxPointOfMasterSkill@CMasterLevelSkillTreeSystem@@QAEHHH@Z ENDP ; CMasterLevelSkillTreeSystem::GetMaxPointOfMasterSkill
_TEXT	ENDS
PUBLIC	??_C@_0EG@GFHJPJHM@?$FLMasterLevelSkillTreeSystem?$FN?5Get@ ; `string'
PUBLIC	??_C@_0EF@FJHPDEPE@?$FLMasterLevelSkillTreeSystem?$FN?5Get@ ; `string'
PUBLIC	?GetMasterSkillValue@CMasterLevelSkillTreeSystem@@QAEMHH@Z ; CMasterLevelSkillTreeSystem::GetMasterSkillValue
;	COMDAT ??_C@_0EG@GFHJPJHM@?$FLMasterLevelSkillTreeSystem?$FN?5Get@
CONST	SEGMENT
??_C@_0EG@GFHJPJHM@?$FLMasterLevelSkillTreeSystem?$FN?5Get@ DB '[MasterLe'
	DB	'velSkillTreeSystem] GetMasterSkillValue - Invalid Point : %d', 00H ; `string'
CONST	ENDS
;	COMDAT ??_C@_0EF@FJHPDEPE@?$FLMasterLevelSkillTreeSystem?$FN?5Get@
CONST	SEGMENT
??_C@_0EF@FJHPDEPE@?$FLMasterLevelSkillTreeSystem?$FN?5Get@ DB '[MasterLe'
	DB	'velSkillTreeSystem] GetMasterSkillValue - Invalid Type : %d', 00H ; `string'
; Function compile flags: /Ogtp
CONST	ENDS
;	COMDAT ?GetMasterSkillValue@CMasterLevelSkillTreeSystem@@QAEMHH@Z
_TEXT	SEGMENT
_iType$ = 8						; size = 4
_iPoint$ = 12						; size = 4
?GetMasterSkillValue@CMasterLevelSkillTreeSystem@@QAEMHH@Z PROC ; CMasterLevelSkillTreeSystem::GetMasterSkillValue, COMDAT
; _this$ = ecx

; 5034 : {

  00000	55		 push	 ebp
  00001	8b ec		 mov	 ebp, esp

; 5035 : 	if( iPoint < 1 || iPoint > MAX_SKILLTREE_LEVEL )

  00003	8b 55 0c	 mov	 edx, DWORD PTR _iPoint$[ebp]
  00006	8d 42 ff	 lea	 eax, DWORD PTR [edx-1]
  00009	83 f8 13	 cmp	 eax, 19			; 00000013H
  0000c	77 2d		 ja	 SHORT $LN3@GetMasterS

; 5039 : 	}
; 5040 : 
; 5041 : 	if( iType < 0 || iType > 38 )

  0000e	8b 45 08	 mov	 eax, DWORD PTR _iType$[ebp]
  00011	83 f8 26	 cmp	 eax, 38			; 00000026H
  00014	77 10		 ja	 SHORT $LN1@GetMasterS

; 5044 : 		return 0.0f;
; 5045 : 	}
; 5046 : 
; 5047 : 	return this->m_fValue[iType][iPoint];

  00016	6b c0 15	 imul	 eax, 21			; 00000015H
  00019	03 c2		 add	 eax, edx
  0001b	d9 84 81 30 3b
	00 00		 fld	 DWORD PTR [ecx+eax*4+15152]

; 5048 : }

  00022	5d		 pop	 ebp
  00023	c2 08 00	 ret	 8
$LN1@GetMasterS:

; 5042 : 	{
; 5043 : 		LogAddTD("[MasterLevelSkillTreeSystem] GetMasterSkillValue - Invalid Type : %d",iType);

  00026	50		 push	 eax
  00027	68 00 00 00 00	 push	 OFFSET ??_C@_0EF@FJHPDEPE@?$FLMasterLevelSkillTreeSystem?$FN?5Get@
  0002c	ff 15 00 00 00
	00		 call	 DWORD PTR ?LogAddTD@@3P6AXPADZZA ; LogAddTD
  00032	d9 ee		 fldz
  00034	83 c4 08	 add	 esp, 8

; 5048 : }

  00037	5d		 pop	 ebp
  00038	c2 08 00	 ret	 8
$LN3@GetMasterS:

; 5036 : 	{
; 5037 : 		LogAddTD("[MasterLevelSkillTreeSystem] GetMasterSkillValue - Invalid Point : %d",iPoint);

  0003b	52		 push	 edx
  0003c	68 00 00 00 00	 push	 OFFSET ??_C@_0EG@GFHJPJHM@?$FLMasterLevelSkillTreeSystem?$FN?5Get@
  00041	ff 15 00 00 00
	00		 call	 DWORD PTR ?LogAddTD@@3P6AXPADZZA ; LogAddTD

; 5038 : 		return 0.0f;

  00047	d9 ee		 fldz
  00049	83 c4 08	 add	 esp, 8

; 5048 : }

  0004c	5d		 pop	 ebp
  0004d	c2 08 00	 ret	 8
?GetMasterSkillValue@CMasterLevelSkillTreeSystem@@QAEMHH@Z ENDP ; CMasterLevelSkillTreeSystem::GetMasterSkillValue
_TEXT	ENDS
PUBLIC	??_C@_0EM@HDBFHAFF@?$FLMasterLevelSkillTreeSystem?$FN?5Get@ ; `string'
PUBLIC	?GetMasterSkillManaIncRate@CMasterLevelSkillTreeSystem@@QAEMH@Z ; CMasterLevelSkillTreeSystem::GetMasterSkillManaIncRate
;	COMDAT ??_C@_0EM@HDBFHAFF@?$FLMasterLevelSkillTreeSystem?$FN?5Get@
CONST	SEGMENT
??_C@_0EM@HDBFHAFF@?$FLMasterLevelSkillTreeSystem?$FN?5Get@ DB '[MasterLe'
	DB	'velSkillTreeSystem] GetMasterSkillManaIncRate - Invalid Point'
	DB	' : %d', 00H					; `string'
; Function compile flags: /Ogtp
CONST	ENDS
;	COMDAT ?GetMasterSkillManaIncRate@CMasterLevelSkillTreeSystem@@QAEMH@Z
_TEXT	SEGMENT
_iPoint$ = 8						; size = 4
?GetMasterSkillManaIncRate@CMasterLevelSkillTreeSystem@@QAEMH@Z PROC ; CMasterLevelSkillTreeSystem::GetMasterSkillManaIncRate, COMDAT
; _this$ = ecx

; 5051 : {

  00000	55		 push	 ebp
  00001	8b ec		 mov	 ebp, esp

; 5052 : 	if( iPoint < 1 || iPoint > MAX_SKILLTREE_LEVEL )

  00003	8b 45 08	 mov	 eax, DWORD PTR _iPoint$[ebp]
  00006	8d 50 ff	 lea	 edx, DWORD PTR [eax-1]
  00009	83 fa 13	 cmp	 edx, 19			; 00000013H
  0000c	77 0b		 ja	 SHORT $LN1@GetMasterS@2

; 5056 : 	}
; 5057 : 
; 5058 : 	return this->m_fValue[21][iPoint];

  0000e	d9 84 81 14 42
	00 00		 fld	 DWORD PTR [ecx+eax*4+16916]

; 5059 : }

  00015	5d		 pop	 ebp
  00016	c2 04 00	 ret	 4
$LN1@GetMasterS@2:

; 5053 : 	{
; 5054 : 		LogAddTD("[MasterLevelSkillTreeSystem] GetMasterSkillManaIncRate - Invalid Point : %d",iPoint);

  00019	50		 push	 eax
  0001a	68 00 00 00 00	 push	 OFFSET ??_C@_0EM@HDBFHAFF@?$FLMasterLevelSkillTreeSystem?$FN?5Get@
  0001f	ff 15 00 00 00
	00		 call	 DWORD PTR ?LogAddTD@@3P6AXPADZZA ; LogAddTD

; 5055 : 		return -1.0f;

  00025	d9 05 00 00 00
	00		 fld	 DWORD PTR __real@bf800000
  0002b	83 c4 08	 add	 esp, 8

; 5059 : }

  0002e	5d		 pop	 ebp
  0002f	c2 04 00	 ret	 4
?GetMasterSkillManaIncRate@CMasterLevelSkillTreeSystem@@QAEMH@Z ENDP ; CMasterLevelSkillTreeSystem::GetMasterSkillManaIncRate
_TEXT	ENDS
PUBLIC	?GetBrandOfMasterSkillValue@CMasterLevelSkillTreeSystem@@QAEMPAUOBJECTSTRUCT@@HH@Z ; CMasterLevelSkillTreeSystem::GetBrandOfMasterSkillValue
EXTRN	?SkillGet@CMagicDamage@@QAEHH@Z:PROC		; CMagicDamage::SkillGet
; Function compile flags: /Ogtp
;	COMDAT ?GetBrandOfMasterSkillValue@CMasterLevelSkillTreeSystem@@QAEMPAUOBJECTSTRUCT@@HH@Z
_TEXT	SEGMENT
_this$ = -4						; size = 4
_lpObj$ = 8						; size = 4
_iSkill$ = 12						; size = 4
tv199 = 16						; size = 4
_iStep$ = 16						; size = 4
?GetBrandOfMasterSkillValue@CMasterLevelSkillTreeSystem@@QAEMPAUOBJECTSTRUCT@@HH@Z PROC ; CMasterLevelSkillTreeSystem::GetBrandOfMasterSkillValue, COMDAT
; _this$ = ecx

; 5062 : {

  00000	55		 push	 ebp
  00001	8b ec		 mov	 ebp, esp
  00003	51		 push	 ecx

; 5063 : 	int nStep = iStep;

  00004	8b 55 10	 mov	 edx, DWORD PTR _iStep$[ebp]

; 5064 : 	int nSkill = iSkill;

  00007	8b 45 0c	 mov	 eax, DWORD PTR _iSkill$[ebp]
  0000a	53		 push	 ebx
  0000b	56		 push	 esi
  0000c	57		 push	 edi
  0000d	8b f9		 mov	 edi, ecx
  0000f	89 7d fc	 mov	 DWORD PTR _this$[ebp], edi
  00012	8b f2		 mov	 esi, edx
  00014	8b c8		 mov	 ecx, eax

; 5065 : 	int nPrevSkill = nSkill;
; 5066 : 
; 5067 : 	while( nStep != 0 )

  00016	85 d2		 test	 edx, edx
  00018	74 1a		 je	 SHORT $LN13@GetBrandOf
  0001a	8d 9b 00 00 00
	00		 npad	 6
$LL8@GetBrandOf:

; 5068 : 	{
; 5069 : 		if( nPrevSkill == 0 )

  00020	85 c0		 test	 eax, eax
  00022	74 10		 je	 SHORT $LN13@GetBrandOf

; 5070 : 			break;
; 5071 : 
; 5072 : 		nPrevSkill = MagicDamageC.GetSkillReqBrandOfSkill(nSkill);

  00024	51		 push	 ecx
  00025	b9 00 00 00 00	 mov	 ecx, OFFSET ?MagicDamageC@@3VCMagicDamage@@A ; MagicDamageC
  0002a	e8 00 00 00 00	 call	 ?GetSkillReqBrandOfSkill@CMagicDamage@@QAEHH@Z ; CMagicDamage::GetSkillReqBrandOfSkill

; 5073 : 		nSkill = nPrevSkill;
; 5074 : 		nStep--;

  0002f	4e		 dec	 esi
  00030	8b c8		 mov	 ecx, eax
  00032	75 ec		 jne	 SHORT $LL8@GetBrandOf
$LN13@GetBrandOf:

; 5075 : 	}
; 5076 : 
; 5077 : 	WORD iBrandOfSkill = nSkill;
; 5078 : 	int iLevel;
; 5079 : 
; 5080 : 	if( this->CheckRequireStatus(iBrandOfSkill) )

  00034	0f b7 c1	 movzx	 eax, cx
  00037	50		 push	 eax
  00038	8b cf		 mov	 ecx, edi
  0003a	89 45 10	 mov	 DWORD PTR tv199[ebp], eax
  0003d	e8 00 00 00 00	 call	 ?CheckRequireStatus@CMasterLevelSkillTreeSystem@@QAEHH@Z ; CMasterLevelSkillTreeSystem::CheckRequireStatus
  00042	85 c0		 test	 eax, eax
  00044	74 37		 je	 SHORT $LN2@GetBrandOf

; 5081 : 	{
; 5082 : 		for(int iCount = 0; iCount < MAX_MAGIC; iCount++)

  00046	8b 5d 08	 mov	 ebx, DWORD PTR _lpObj$[ebp]
  00049	33 ff		 xor	 edi, edi
  0004b	33 f6		 xor	 esi, esi
  0004d	8d 49 00	 npad	 3
$LL4@GetBrandOf:

; 5083 : 		{
; 5084 : 			if( lpObj->Magic[iCount].IsMagic() == TRUE && 
; 5085 : 				lpObj->Magic[iCount].m_Skill == iBrandOfSkill )

  00050	8b 8b c8 04 00
	00		 mov	 ecx, DWORD PTR [ebx+1224]
  00056	03 ce		 add	 ecx, esi
  00058	e8 00 00 00 00	 call	 ?IsMagic@CMagicInf@@QAEHXZ ; CMagicInf::IsMagic
  0005d	83 f8 01	 cmp	 eax, 1
  00060	75 0f		 jne	 SHORT $LN3@GetBrandOf
  00062	8b 83 c8 04 00
	00		 mov	 eax, DWORD PTR [ebx+1224]
  00068	8b 4d 10	 mov	 ecx, DWORD PTR tv199[ebp]
  0006b	39 4c 30 08	 cmp	 DWORD PTR [eax+esi+8], ecx
  0006f	74 17		 je	 SHORT $LN14@GetBrandOf
$LN3@GetBrandOf:

; 5081 : 	{
; 5082 : 		for(int iCount = 0; iCount < MAX_MAGIC; iCount++)

  00071	83 c6 18	 add	 esi, 24			; 00000018H
  00074	47		 inc	 edi
  00075	81 fe 10 0e 00
	00		 cmp	 esi, 3600		; 00000e10H
  0007b	7c d3		 jl	 SHORT $LL4@GetBrandOf
$LN2@GetBrandOf:

; 5089 : 			}
; 5090 : 		}
; 5091 : 	}
; 5092 : 
; 5093 : 	return 0.0f;

  0007d	d9 ee		 fldz
  0007f	5f		 pop	 edi
  00080	5e		 pop	 esi
  00081	5b		 pop	 ebx

; 5094 : }

  00082	8b e5		 mov	 esp, ebp
  00084	5d		 pop	 ebp
  00085	c2 0c 00	 ret	 12			; 0000000cH
$LN14@GetBrandOf:

; 5086 : 			{
; 5087 : 				iLevel = lpObj->Magic[iCount].m_Level;

  00088	8d 14 7f	 lea	 edx, DWORD PTR [edi+edi*2]
  0008b	0f b6 44 d0 04	 movzx	 eax, BYTE PTR [eax+edx*8+4]

; 5088 : 				return this->GetMasterSkillValue(MagicDamageC.SkillGet(iBrandOfSkill),iLevel);

  00090	50		 push	 eax
  00091	51		 push	 ecx
  00092	b9 00 00 00 00	 mov	 ecx, OFFSET ?MagicDamageC@@3VCMagicDamage@@A ; MagicDamageC
  00097	e8 00 00 00 00	 call	 ?SkillGet@CMagicDamage@@QAEHH@Z ; CMagicDamage::SkillGet
  0009c	8b 4d fc	 mov	 ecx, DWORD PTR _this$[ebp]
  0009f	50		 push	 eax
  000a0	e8 00 00 00 00	 call	 ?GetMasterSkillValue@CMasterLevelSkillTreeSystem@@QAEMHH@Z ; CMasterLevelSkillTreeSystem::GetMasterSkillValue
  000a5	5f		 pop	 edi
  000a6	5e		 pop	 esi
  000a7	5b		 pop	 ebx

; 5094 : }

  000a8	8b e5		 mov	 esp, ebp
  000aa	5d		 pop	 ebp
  000ab	c2 0c 00	 ret	 12			; 0000000cH
?GetBrandOfMasterSkillValue@CMasterLevelSkillTreeSystem@@QAEMPAUOBJECTSTRUCT@@HH@Z ENDP ; CMasterLevelSkillTreeSystem::GetBrandOfMasterSkillValue
_TEXT	ENDS
PUBLIC	?CheckPreviousRankSkill@CMasterLevelSkillTreeSystem@@QAEHPAUOBJECTSTRUCT@@HH@Z ; CMasterLevelSkillTreeSystem::CheckPreviousRankSkill
EXTRN	?GetSkillRank@CMagicDamage@@QAEHH@Z:PROC	; CMagicDamage::GetSkillRank
; Function compile flags: /Ogtp
;	COMDAT ?CheckPreviousRankSkill@CMasterLevelSkillTreeSystem@@QAEHPAUOBJECTSTRUCT@@HH@Z
_TEXT	SEGMENT
tv240 = -20						; size = 4
_this$ = -16						; size = 4
_nTreeKind$ = -12					; size = 4
tv451 = -8						; size = 4
_nRank$ = -4						; size = 4
_lpObj$ = 8						; size = 4
_nPoint$ = 12						; size = 4
_iSkill$ = 12						; size = 4
_iLevel$ = 16						; size = 4
?CheckPreviousRankSkill@CMasterLevelSkillTreeSystem@@QAEHPAUOBJECTSTRUCT@@HH@Z PROC ; CMasterLevelSkillTreeSystem::CheckPreviousRankSkill, COMDAT
; _this$ = ecx

; 5097 : {

  00000	55		 push	 ebp
  00001	8b ec		 mov	 ebp, esp
  00003	83 ec 14	 sub	 esp, 20			; 00000014H

; 5098 : 	if( iSkill < 0 || iSkill > MAX_SKILL-1 )

  00006	8b 45 0c	 mov	 eax, DWORD PTR _iSkill$[ebp]
  00009	56		 push	 esi
  0000a	8b f1		 mov	 esi, ecx
  0000c	89 75 f0	 mov	 DWORD PTR _this$[ebp], esi

; 5102 : 	}
; 5103 : 
; 5104 : 	int nTreeKind = -1;
; 5105 : 	int nRank = MagicDamageC.GetSkillRank(iSkill)-1;

  0000f	50		 push	 eax
  00010	3d bb 02 00 00	 cmp	 eax, 699		; 000002bbH
  00015	0f 87 0b 01 00
	00		 ja	 $LN22@CheckPrevi
  0001b	b9 00 00 00 00	 mov	 ecx, OFFSET ?MagicDamageC@@3VCMagicDamage@@A ; MagicDamageC
  00020	c7 45 f4 ff ff
	ff ff		 mov	 DWORD PTR _nTreeKind$[ebp], -1
  00027	e8 00 00 00 00	 call	 ?GetSkillRank@CMagicDamage@@QAEHH@Z ; CMagicDamage::GetSkillRank
  0002c	48		 dec	 eax
  0002d	89 45 fc	 mov	 DWORD PTR _nRank$[ebp], eax

; 5106 : 
; 5107 : 	if( nRank < 1 )

  00030	83 f8 01	 cmp	 eax, 1
  00033	7d 0c		 jge	 SHORT $LN21@CheckPrevi

; 5108 : 		return 1;

  00035	b8 01 00 00 00	 mov	 eax, 1
  0003a	5e		 pop	 esi

; 5146 : 		nReturn = TRUE;
; 5147 : 	else
; 5148 : 		nReturn = FALSE;
; 5149 : 
; 5150 : 	return nReturn;
; 5151 : }

  0003b	8b e5		 mov	 esp, ebp
  0003d	5d		 pop	 ebp
  0003e	c2 0c 00	 ret	 12			; 0000000cH
$LN21@CheckPrevi:
  00041	53		 push	 ebx

; 5109 : 
; 5110 : 	int iClass = lpObj->Class;

  00042	8b 5d 08	 mov	 ebx, DWORD PTR _lpObj$[ebp]
  00045	0f b7 83 b8 00
	00 00		 movzx	 eax, WORD PTR [ebx+184]
  0004c	57		 push	 edi

; 5111 : 	int nReturn = -1;
; 5112 : 
; 5113 : 	for(int iTreeKind = 0; iTreeKind < MAX_SKILLTREE_TYPE; iTreeKind++)

  0004d	33 ff		 xor	 edi, edi
  0004f	69 c0 74 08 00
	00		 imul	 eax, 2164		; 00000874H
  00055	89 45 ec	 mov	 DWORD PTR tv240[ebp], eax
  00058	8d 44 30 18	 lea	 eax, DWORD PTR [eax+esi+24]
  0005c	8d 64 24 00	 npad	 4
$LL40@CheckPrevi:

; 5114 : 	{
; 5115 : 		for(int iRank = 0; iRank < MAX_SKILLTREE_RANK; iRank++)

  00060	8b d0		 mov	 edx, eax
  00062	c7 45 f8 09 00
	00 00		 mov	 DWORD PTR tv451[ebp], 9
  00069	8d a4 24 00 00
	00 00		 npad	 7
$LL41@CheckPrevi:

; 5116 : 		{
; 5117 : 			for(int iPos = 0; iPos < MAX_SKILLTREE_POS; iPos++)

  00070	33 c0		 xor	 eax, eax
  00072	8b ca		 mov	 ecx, edx
$LL14@CheckPrevi:

; 5118 : 			{
; 5119 : 				if( this->m_SkillTreeData[iClass].m_SkillInfo[iTreeKind][iRank][iPos].m_iSkillID == iSkill )

  00074	8b 75 0c	 mov	 esi, DWORD PTR _iSkill$[ebp]
  00077	39 31		 cmp	 DWORD PTR [ecx], esi
  00079	74 0b		 je	 SHORT $LN31@CheckPrevi

; 5116 : 		{
; 5117 : 			for(int iPos = 0; iPos < MAX_SKILLTREE_POS; iPos++)

  0007b	40		 inc	 eax
  0007c	83 c1 14	 add	 ecx, 20			; 00000014H
  0007f	83 f8 04	 cmp	 eax, 4
  00082	7c f0		 jl	 SHORT $LL14@CheckPrevi

; 5118 : 			{
; 5119 : 				if( this->m_SkillTreeData[iClass].m_SkillInfo[iTreeKind][iRank][iPos].m_iSkillID == iSkill )

  00084	eb 03		 jmp	 SHORT $LN16@CheckPrevi
$LN31@CheckPrevi:

; 5120 : 				{
; 5121 : 					nTreeKind = iTreeKind;

  00086	89 7d f4	 mov	 DWORD PTR _nTreeKind$[ebp], edi
$LN16@CheckPrevi:

; 5114 : 	{
; 5115 : 		for(int iRank = 0; iRank < MAX_SKILLTREE_RANK; iRank++)

  00089	83 c2 50	 add	 edx, 80			; 00000050H
  0008c	ff 4d f8	 dec	 DWORD PTR tv451[ebp]
  0008f	75 df		 jne	 SHORT $LL41@CheckPrevi

; 5111 : 	int nReturn = -1;
; 5112 : 
; 5113 : 	for(int iTreeKind = 0; iTreeKind < MAX_SKILLTREE_TYPE; iTreeKind++)

  00091	47		 inc	 edi
  00092	8b c2		 mov	 eax, edx
  00094	83 ff 03	 cmp	 edi, 3
  00097	7c c7		 jl	 SHORT $LL40@CheckPrevi

; 5122 : 					break;
; 5123 : 				}
; 5124 : 			}
; 5125 : 		}
; 5126 : 	}
; 5127 : 
; 5128 : 	int nPoint = 0;

  00099	33 ff		 xor	 edi, edi

; 5129 : 	nRank -= 1;

  0009b	ff 4d fc	 dec	 DWORD PTR _nRank$[ebp]
  0009e	89 7d 0c	 mov	 DWORD PTR _nPoint$[ebp], edi
$LL38@CheckPrevi:

; 5132 : 	{
; 5133 : 		for(int i = 0; i < MAX_MAGIC; i++)

  000a1	33 f6		 xor	 esi, esi
$LL7@CheckPrevi:

; 5134 : 		{
; 5135 : 			if( lpObj->Magic[i].IsMagic() == TRUE && this->CheckRequireStatus(lpObj->Magic[i].m_Skill) == TRUE  )

  000a3	8b 8b c8 04 00
	00		 mov	 ecx, DWORD PTR [ebx+1224]
  000a9	03 ce		 add	 ecx, esi
  000ab	e8 00 00 00 00	 call	 ?IsMagic@CMagicInf@@QAEHXZ ; CMagicInf::IsMagic
  000b0	83 f8 01	 cmp	 eax, 1
  000b3	75 4e		 jne	 SHORT $LN6@CheckPrevi
  000b5	8b 83 c8 04 00
	00		 mov	 eax, DWORD PTR [ebx+1224]
  000bb	8b 4c 06 08	 mov	 ecx, DWORD PTR [esi+eax+8]
  000bf	51		 push	 ecx
  000c0	8b 4d f0	 mov	 ecx, DWORD PTR _this$[ebp]
  000c3	e8 00 00 00 00	 call	 ?CheckRequireStatus@CMasterLevelSkillTreeSystem@@QAEHH@Z ; CMasterLevelSkillTreeSystem::CheckRequireStatus
  000c8	83 f8 01	 cmp	 eax, 1
  000cb	75 36		 jne	 SHORT $LN6@CheckPrevi

; 5136 : 			{
; 5137 : 				if( lpObj->Magic[i].m_Skill == this->m_SkillTreeData[iClass].m_SkillInfo[nTreeKind][nRank][iPos2].m_iSkillID )

  000cd	8b 93 c8 04 00
	00		 mov	 edx, DWORD PTR [ebx+1224]
  000d3	8b 45 f4	 mov	 eax, DWORD PTR _nTreeKind$[ebp]
  000d6	8b 5d f0	 mov	 ebx, DWORD PTR _this$[ebp]
  000d9	8d 0c 16	 lea	 ecx, DWORD PTR [esi+edx]
  000dc	8b 55 fc	 mov	 edx, DWORD PTR _nRank$[ebp]
  000df	8d 14 c2	 lea	 edx, DWORD PTR [edx+eax*8]
  000e2	03 d0		 add	 edx, eax
  000e4	8d 04 97	 lea	 eax, DWORD PTR [edi+edx*4]
  000e7	8b 55 ec	 mov	 edx, DWORD PTR tv240[ebp]
  000ea	8d 04 80	 lea	 eax, DWORD PTR [eax+eax*4]
  000ed	8d 04 82	 lea	 eax, DWORD PTR [edx+eax*4]
  000f0	8b 51 08	 mov	 edx, DWORD PTR [ecx+8]
  000f3	3b 54 18 18	 cmp	 edx, DWORD PTR [eax+ebx+24]

; 5138 : 				{
; 5139 : 					nPoint |= lpObj->Magic[i].m_Level;

  000f7	8b 5d 08	 mov	 ebx, DWORD PTR _lpObj$[ebp]
  000fa	75 07		 jne	 SHORT $LN6@CheckPrevi
  000fc	0f b6 41 04	 movzx	 eax, BYTE PTR [ecx+4]
  00100	09 45 0c	 or	 DWORD PTR _nPoint$[ebp], eax
$LN6@CheckPrevi:

; 5132 : 	{
; 5133 : 		for(int i = 0; i < MAX_MAGIC; i++)

  00103	83 c6 18	 add	 esi, 24			; 00000018H
  00106	81 fe 10 0e 00
	00		 cmp	 esi, 3600		; 00000e10H
  0010c	7c 95		 jl	 SHORT $LL7@CheckPrevi

; 5130 : 
; 5131 : 	for(int iPos2 = 0; iPos2 < MAX_SKILLTREE_POS; iPos2++ )

  0010e	47		 inc	 edi
  0010f	83 ff 04	 cmp	 edi, 4
  00112	7c 8d		 jl	 SHORT $LL38@CheckPrevi

; 5140 : 				}
; 5141 : 			}
; 5142 : 		}
; 5143 : 	}
; 5144 : 
; 5145 : 	if( nPoint >= 10 )

  00114	33 c0		 xor	 eax, eax
  00116	83 7d 0c 0a	 cmp	 DWORD PTR _nPoint$[ebp], 10 ; 0000000aH
  0011a	5f		 pop	 edi
  0011b	5b		 pop	 ebx
  0011c	0f 9d c0	 setge	 al
  0011f	5e		 pop	 esi

; 5146 : 		nReturn = TRUE;
; 5147 : 	else
; 5148 : 		nReturn = FALSE;
; 5149 : 
; 5150 : 	return nReturn;
; 5151 : }

  00120	8b e5		 mov	 esp, ebp
  00122	5d		 pop	 ebp
  00123	c2 0c 00	 ret	 12			; 0000000cH
$LN22@CheckPrevi:

; 5099 : 	{
; 5100 : 		LogAddTD("[MasterLevelSkillTreeSystem] GetSkillReqMLPoint - Invalid Skill Code : %d",iSkill);

  00126	68 00 00 00 00	 push	 OFFSET ??_C@_0EK@KBNIBHHJ@?$FLMasterLevelSkillTreeSystem?$FN?5Get@
  0012b	ff 15 00 00 00
	00		 call	 DWORD PTR ?LogAddTD@@3P6AXPADZZA ; LogAddTD
  00131	83 c4 08	 add	 esp, 8

; 5101 : 		return -1;

  00134	83 c8 ff	 or	 eax, -1
  00137	5e		 pop	 esi

; 5146 : 		nReturn = TRUE;
; 5147 : 	else
; 5148 : 		nReturn = FALSE;
; 5149 : 
; 5150 : 	return nReturn;
; 5151 : }

  00138	8b e5		 mov	 esp, ebp
  0013a	5d		 pop	 ebp
  0013b	c2 0c 00	 ret	 12			; 0000000cH
?CheckPreviousRankSkill@CMasterLevelSkillTreeSystem@@QAEHPAUOBJECTSTRUCT@@HH@Z ENDP ; CMasterLevelSkillTreeSystem::CheckPreviousRankSkill
_TEXT	ENDS
PUBLIC	?CheckSkillLevel@CMasterLevelSkillTreeSystem@@QAEHPAUOBJECTSTRUCT@@H@Z ; CMasterLevelSkillTreeSystem::CheckSkillLevel
; Function compile flags: /Ogtp
;	COMDAT ?CheckSkillLevel@CMasterLevelSkillTreeSystem@@QAEHPAUOBJECTSTRUCT@@H@Z
_TEXT	SEGMENT
_lpObj$ = 8						; size = 4
_iSkill$ = 12						; size = 4
?CheckSkillLevel@CMasterLevelSkillTreeSystem@@QAEHPAUOBJECTSTRUCT@@H@Z PROC ; CMasterLevelSkillTreeSystem::CheckSkillLevel, COMDAT
; _this$ = ecx

; 5154 : {

  00000	55		 push	 ebp
  00001	8b ec		 mov	 ebp, esp
  00003	53		 push	 ebx

; 5155 : 	for(int i = 0; i < MAX_MAGIC; i++)

  00004	8b 5d 08	 mov	 ebx, DWORD PTR _lpObj$[ebp]
  00007	56		 push	 esi
  00008	57		 push	 edi
  00009	33 ff		 xor	 edi, edi
  0000b	33 f6		 xor	 esi, esi
  0000d	8d 49 00	 npad	 3
$LL4@CheckSkill:

; 5156 : 	{
; 5157 : 		if( lpObj->Magic[i].IsMagic() == TRUE &&
; 5158 : 			lpObj->Magic[i].m_Skill == iSkill )

  00010	8b 8b c8 04 00
	00		 mov	 ecx, DWORD PTR [ebx+1224]
  00016	03 ce		 add	 ecx, esi
  00018	e8 00 00 00 00	 call	 ?IsMagic@CMagicInf@@QAEHXZ ; CMagicInf::IsMagic
  0001d	83 f8 01	 cmp	 eax, 1
  00020	75 0f		 jne	 SHORT $LN3@CheckSkill
  00022	8b 83 c8 04 00
	00		 mov	 eax, DWORD PTR [ebx+1224]
  00028	8b 4d 0c	 mov	 ecx, DWORD PTR _iSkill$[ebp]
  0002b	39 4c 30 08	 cmp	 DWORD PTR [eax+esi+8], ecx
  0002f	74 15		 je	 SHORT $LN8@CheckSkill
$LN3@CheckSkill:

; 5155 : 	for(int i = 0; i < MAX_MAGIC; i++)

  00031	83 c6 18	 add	 esi, 24			; 00000018H
  00034	47		 inc	 edi
  00035	81 fe 10 0e 00
	00		 cmp	 esi, 3600		; 00000e10H
  0003b	7c d3		 jl	 SHORT $LL4@CheckSkill

; 5161 : 		}
; 5162 : 	}
; 5163 : 
; 5164 : 
; 5165 : return 0;

  0003d	5f		 pop	 edi
  0003e	5e		 pop	 esi
  0003f	33 c0		 xor	 eax, eax
  00041	5b		 pop	 ebx

; 5166 : }

  00042	5d		 pop	 ebp
  00043	c2 08 00	 ret	 8
$LN8@CheckSkill:

; 5159 : 		{
; 5160 : 			return lpObj->Magic[i].m_Level;

  00046	8d 14 7f	 lea	 edx, DWORD PTR [edi+edi*2]
  00049	0f b6 44 d0 04	 movzx	 eax, BYTE PTR [eax+edx*8+4]
  0004e	5f		 pop	 edi
  0004f	5e		 pop	 esi
  00050	5b		 pop	 ebx

; 5166 : }

  00051	5d		 pop	 ebp
  00052	c2 08 00	 ret	 8
?CheckSkillLevel@CMasterLevelSkillTreeSystem@@QAEHPAUOBJECTSTRUCT@@H@Z ENDP ; CMasterLevelSkillTreeSystem::CheckSkillLevel
_TEXT	ENDS
PUBLIC	?GetMasterSkillUIIndex@CMasterLevelSkillTreeSystem@@QAEHHH@Z ; CMasterLevelSkillTreeSystem::GetMasterSkillUIIndex
; Function compile flags: /Ogtp
;	COMDAT ?GetMasterSkillUIIndex@CMasterLevelSkillTreeSystem@@QAEHHH@Z
_TEXT	SEGMENT
_this$ = -4						; size = 4
tv401 = 8						; size = 4
_iClass$ = 8						; size = 4
tv172 = 12						; size = 4
_iSkill$ = 12						; size = 4
?GetMasterSkillUIIndex@CMasterLevelSkillTreeSystem@@QAEHHH@Z PROC ; CMasterLevelSkillTreeSystem::GetMasterSkillUIIndex, COMDAT
; _this$ = ecx

; 5169 : {

  00000	55		 push	 ebp
  00001	8b ec		 mov	 ebp, esp
  00003	51		 push	 ecx

; 5170 : 	if( iClass < CLASS_WIZARD || iClass > CLASS_MONK )

  00004	8b 45 08	 mov	 eax, DWORD PTR _iClass$[ebp]
  00007	8b d1		 mov	 edx, ecx
  00009	89 55 fc	 mov	 DWORD PTR _this$[ebp], edx
  0000c	83 f8 06	 cmp	 eax, 6
  0000f	0f 87 98 00 00
	00		 ja	 $LN13@GetMasterS@3

; 5174 : 	}
; 5175 : 
; 5176 : 	if( iSkill < 0 || iSkill > MAX_SKILL-1 )

  00015	8b 4d 0c	 mov	 ecx, DWORD PTR _iSkill$[ebp]
  00018	81 f9 bb 02 00
	00		 cmp	 ecx, 699		; 000002bbH
  0001e	77 75		 ja	 SHORT $LN11@GetMasterS@3

; 5180 : 	}
; 5181 : 
; 5182 : 	int nReturn = -1;
; 5183 : 
; 5184 : 	for(int iTreeKind = 0; iTreeKind < MAX_SKILLTREE_TYPE; iTreeKind++)

  00020	53		 push	 ebx
  00021	33 db		 xor	 ebx, ebx
  00023	69 c0 74 08 00
	00		 imul	 eax, 2164		; 00000874H
  00029	57		 push	 edi
  0002a	8d 7c 10 18	 lea	 edi, DWORD PTR [eax+edx+24]
  0002e	89 45 0c	 mov	 DWORD PTR tv172[ebp], eax
  00031	89 7d 08	 mov	 DWORD PTR tv401[ebp], edi
  00034	56		 push	 esi
$LL24@GetMasterS@3:

; 5185 : 	{
; 5186 : 		for(int iRank = 0; iRank < MAX_SKILLTREE_RANK; iRank++)

  00035	33 f6		 xor	 esi, esi
$LL25@GetMasterS@3:

; 5187 : 		{
; 5188 : 			for(int iPos = 0; iPos < MAX_SKILLTREE_POS; iPos++)

  00037	33 c0		 xor	 eax, eax
  00039	8b d7		 mov	 edx, edi
  0003b	eb 03 8d 49 00	 npad	 5
$LL4@GetMasterS@3:

; 5189 : 			{
; 5190 : 				if( this->m_SkillTreeData[iClass].m_SkillInfo[iTreeKind][iRank][iPos].m_iSkillID == iSkill )

  00040	39 0a		 cmp	 DWORD PTR [edx], ecx
  00042	74 30		 je	 SHORT $LN20@GetMasterS@3

; 5187 : 		{
; 5188 : 			for(int iPos = 0; iPos < MAX_SKILLTREE_POS; iPos++)

  00044	40		 inc	 eax
  00045	83 c2 14	 add	 edx, 20			; 00000014H
  00048	83 f8 04	 cmp	 eax, 4
  0004b	7c f3		 jl	 SHORT $LL4@GetMasterS@3

; 5185 : 	{
; 5186 : 		for(int iRank = 0; iRank < MAX_SKILLTREE_RANK; iRank++)

  0004d	46		 inc	 esi
  0004e	83 c7 50	 add	 edi, 80			; 00000050H
  00051	83 fe 09	 cmp	 esi, 9
  00054	7c e1		 jl	 SHORT $LL25@GetMasterS@3

; 5180 : 	}
; 5181 : 
; 5182 : 	int nReturn = -1;
; 5183 : 
; 5184 : 	for(int iTreeKind = 0; iTreeKind < MAX_SKILLTREE_TYPE; iTreeKind++)

  00056	8b 7d 08	 mov	 edi, DWORD PTR tv401[ebp]
  00059	43		 inc	 ebx
  0005a	81 c7 d0 02 00
	00		 add	 edi, 720		; 000002d0H
  00060	89 7d 08	 mov	 DWORD PTR tv401[ebp], edi
  00063	83 fb 03	 cmp	 ebx, 3
  00066	7c cd		 jl	 SHORT $LL24@GetMasterS@3

; 5194 : 				}
; 5195 : 			}
; 5196 : 		}
; 5197 : 	}
; 5198 : 
; 5199 : return nReturn;

  00068	5e		 pop	 esi
  00069	5f		 pop	 edi
  0006a	83 c8 ff	 or	 eax, -1
  0006d	5b		 pop	 ebx

; 5200 : }

  0006e	8b e5		 mov	 esp, ebp
  00070	5d		 pop	 ebp
