; Listing generated by Microsoft (R) Optimizing Compiler Version 16.00.30319.01 

	TITLE	E:\work\tranet_version\GS\GameServer\NpcTalk.cpp
	.686P
	.XMM
	include listing.inc
	.model	flat

INCLUDELIB LIBCMT
INCLUDELIB OLDNAMES

_DATA	SEGMENT
_g_iNpcUpDfLevel_CGATE DD 01H
	DD	02H
	DD	02dc6c0H
	DD	02H
	DD	03H
	DD	02dc6c0H
	DD	03H
	DD	04H
	DD	02dc6c0H
_g_iNpcUpDfLevel_CSTATUE DD 01H
	DD	03H
	DD	02dc6c0H
	DD	02H
	DD	05H
	DD	02dc6c0H
	DD	03H
	DD	07H
	DD	02dc6c0H
_g_iNpcUpMaxHP_CGATE DD 02625a0H
	DD	02H
	DD	0f4240H
	DD	03567e0H
	DD	03H
	DD	0f4240H
	DD	04f5880H
	DD	04H
	DD	0f4240H
_g_iNpcUpMaxHP_CSTATUE DD 02191c0H
	DD	03H
	DD	0f4240H
	DD	033e140H
	DD	05H
	DD	0f4240H
	DD	04c4b40H
	DD	07H
	DD	0f4240H
_g_iNpcUpRgLevel_CSTATUE DD 01H
	DD	03H
	DD	04c4b40H
	DD	02H
	DD	05H
	DD	04c4b40H
	DD	03H
	DD	07H
	DD	04c4b40H
_g_iCsUserReSpawnArea DD 023H
	DD	011H
	DD	090H
	DD	030H
	DD	04aH
	DD	090H
	DD	073H
	DD	09aH
	DD	023H
	DD	011H
	DD	090H
	DD	030H
_g_iNpcDefense_CGATE DD 064H
	DD	0b4H
	DD	012cH
	DD	0208H
_g_iNpcDefense_CSTATUE DD 050H
	DD	0b4H
	DD	0154H
	DD	0226H
_g_iCastleWallStepAxisY DD 071H
	DD	0a0H
	DD	0cbH
_g_sttBLOODCASTLE_LEVEL DD 0fH
	DD	050H
	DD	0aH
	DD	03cH
	DD	051H
	DD	082H
	DD	03dH
	DD	06eH
	DD	083H
	DD	0b4H
	DD	06fH
	DD	0a0H
	DD	0b5H
	DD	0e6H
	DD	0a1H
	DD	0d2H
	DD	0e7H
	DD	0118H
	DD	0d3H
	DD	0104H
	DD	0119H
	DD	014aH
	DD	0105H
	DD	0136H
	DD	014bH
	DD	03e8H
	DD	0137H
	DD	03e8H
	DD	0fH
	DD	04afH
	DD	0aH
	DD	04afH
_g_sttDEVILSQUARE_LEVEL DD 0fH
	DD	082H
	DD	0aH
	DD	06eH
	DD	03aH
	DD	083H
	DD	0b4H
	DD	06fH
	DD	0a0H
	DD	03bH
	DD	0b5H
	DD	0e6H
	DD	0a1H
	DD	0d2H
	DD	03cH
	DD	0e7H
	DD	0118H
	DD	0d3H
	DD	0104H
	DD	03dH
	DD	0119H
	DD	014aH
	DD	0105H
	DD	0136H
	DD	06fH
	DD	014bH
	DD	03e8H
	DD	0137H
	DD	03e8H
	DD	070H
	DD	0fH
	DD	04afH
	DD	0aH
	DD	04afH
	DD	010eH
_DATA	ENDS
PUBLIC	??_H@YGXPAXIHP6EPAX0@Z@Z			; `vector constructor iterator'
; Function compile flags: /Ogtp
;	COMDAT ??_H@YGXPAXIHP6EPAX0@Z@Z
_TEXT	SEGMENT
___t$ = 8						; size = 4
___s$ = 12						; size = 4
___n$ = 16						; size = 4
___f$ = 20						; size = 4
??_H@YGXPAXIHP6EPAX0@Z@Z PROC				; `vector constructor iterator', COMDAT
  00000	55		 push	 ebp
  00001	8b ec		 mov	 ebp, esp
  00003	57		 push	 edi
  00004	8b 7d 10	 mov	 edi, DWORD PTR ___n$[ebp]
  00007	4f		 dec	 edi
  00008	78 14		 js	 SHORT $LN1@vector
  0000a	53		 push	 ebx
  0000b	8b 5d 14	 mov	 ebx, DWORD PTR ___f$[ebp]
  0000e	56		 push	 esi
  0000f	8b 75 08	 mov	 esi, DWORD PTR ___t$[ebp]
$LL2@vector:
  00012	8b ce		 mov	 ecx, esi
  00014	ff d3		 call	 ebx
  00016	03 75 0c	 add	 esi, DWORD PTR ___s$[ebp]
  00019	4f		 dec	 edi
  0001a	79 f6		 jns	 SHORT $LL2@vector
  0001c	5e		 pop	 esi
  0001d	5b		 pop	 ebx
$LN1@vector:
  0001e	5f		 pop	 edi
  0001f	5d		 pop	 ebp
  00020	c2 10 00	 ret	 16			; 00000010H
??_H@YGXPAXIHP6EPAX0@Z@Z ENDP				; `vector constructor iterator'
_TEXT	ENDS
PUBLIC	??_C@_0BL@FMJKLKBP@QeustNpc?5RefCount?5Inc?5?$DN?5?$CFd?$AA@ ; `string'
PUBLIC	?TalkRefAdd@CQeustNpcTeleport@@QAEXXZ		; CQeustNpcTeleport::TalkRefAdd
EXTRN	__imp__LeaveCriticalSection@4:PROC
EXTRN	?LogAdd@@3P6AXPADZZA:DWORD			; LogAdd
EXTRN	__imp__EnterCriticalSection@4:PROC
;	COMDAT ??_C@_0BL@FMJKLKBP@QeustNpc?5RefCount?5Inc?5?$DN?5?$CFd?$AA@
; File e:\work\tranet_version\gs\gameserver\gobjmonster.h
CONST	SEGMENT
??_C@_0BL@FMJKLKBP@QeustNpc?5RefCount?5Inc?5?$DN?5?$CFd?$AA@ DB 'QeustNpc'
	DB	' RefCount Inc = %d', 00H			; `string'
; Function compile flags: /Ogtp
CONST	ENDS
;	COMDAT ?TalkRefAdd@CQeustNpcTeleport@@QAEXXZ
_TEXT	SEGMENT
?TalkRefAdd@CQeustNpcTeleport@@QAEXXZ PROC		; CQeustNpcTeleport::TalkRefAdd, COMDAT
; _this$ = ecx

; 60   : 	{

  00000	56		 push	 esi
  00001	57		 push	 edi
  00002	8b f1		 mov	 esi, ecx

; 61   : 		EnterCriticalSection(&this->CsRef);

  00004	8d 7e 04	 lea	 edi, DWORD PTR [esi+4]
  00007	57		 push	 edi
  00008	ff 15 00 00 00
	00		 call	 DWORD PTR __imp__EnterCriticalSection@4

; 62   : 		this->RefCount++;

  0000e	ff 06		 inc	 DWORD PTR [esi]
  00010	8b 36		 mov	 esi, DWORD PTR [esi]

; 63   : 		LogAdd("QeustNpc RefCount Inc = %d", this->RefCount);

  00012	56		 push	 esi
  00013	68 00 00 00 00	 push	 OFFSET ??_C@_0BL@FMJKLKBP@QeustNpc?5RefCount?5Inc?5?$DN?5?$CFd?$AA@
  00018	ff 15 00 00 00
	00		 call	 DWORD PTR ?LogAdd@@3P6AXPADZZA ; LogAdd
  0001e	83 c4 08	 add	 esp, 8

; 64   : 		LeaveCriticalSection(&this->CsRef);

  00021	57		 push	 edi
  00022	ff 15 00 00 00
	00		 call	 DWORD PTR __imp__LeaveCriticalSection@4
  00028	5f		 pop	 edi
  00029	5e		 pop	 esi

; 65   : 		
; 66   : 	};

  0002a	c3		 ret	 0
?TalkRefAdd@CQeustNpcTeleport@@QAEXXZ ENDP		; CQeustNpcTeleport::TalkRefAdd
_TEXT	ENDS
PUBLIC	?GetCastleState@CCastleSiege@@QAEHXZ		; CCastleSiege::GetCastleState
; Function compile flags: /Ogtp
; File e:\work\tranet_version\gs\gameserver\castlesiege.h
;	COMDAT ?GetCastleState@CCastleSiege@@QAEHXZ
_TEXT	SEGMENT
?GetCastleState@CCastleSiege@@QAEHXZ PROC		; CCastleSiege::GetCastleState, COMDAT
; _this$ = ecx

; 314  : 	int GetCastleState(){return m_iCastleSiegeState;}

  00000	8b 41 28	 mov	 eax, DWORD PTR [ecx+40]
  00003	c3		 ret	 0
?GetCastleState@CCastleSiege@@QAEHXZ ENDP		; CCastleSiege::GetCastleState
_TEXT	ENDS
PUBLIC	?GetRegCrownAvailable@CCastleSiege@@QAEHXZ	; CCastleSiege::GetRegCrownAvailable
; Function compile flags: /Ogtp
;	COMDAT ?GetRegCrownAvailable@CCastleSiege@@QAEHXZ
_TEXT	SEGMENT
?GetRegCrownAvailable@CCastleSiege@@QAEHXZ PROC		; CCastleSiege::GetRegCrownAvailable, COMDAT
; _this$ = ecx

; 347  : 	BOOL GetRegCrownAvailable(){return m_bRegCrownAvailable;}

  00000	8b 81 e8 01 00
	00		 mov	 eax, DWORD PTR [ecx+488]
  00006	c3		 ret	 0
?GetRegCrownAvailable@CCastleSiege@@QAEHXZ ENDP		; CCastleSiege::GetRegCrownAvailable
_TEXT	ENDS
PUBLIC	?GetHuntZoneEnter@CCastleSiege@@QAEHXZ		; CCastleSiege::GetHuntZoneEnter
; Function compile flags: /Ogtp
;	COMDAT ?GetHuntZoneEnter@CCastleSiege@@QAEHXZ
_TEXT	SEGMENT
?GetHuntZoneEnter@CCastleSiege@@QAEHXZ PROC		; CCastleSiege::GetHuntZoneEnter, COMDAT
; _this$ = ecx

; 365  : 	BOOL GetHuntZoneEnter(){return m_bEnterHuntZone;}

  00000	8b 81 fc 00 00
	00		 mov	 eax, DWORD PTR [ecx+252]
  00006	c3		 ret	 0
?GetHuntZoneEnter@CCastleSiege@@QAEHXZ ENDP		; CCastleSiege::GetHuntZoneEnter
_TEXT	ENDS
PUBLIC	?SetCrownUserIndex@CCastleSiege@@QAEXH@Z	; CCastleSiege::SetCrownUserIndex
; Function compile flags: /Ogtp
;	COMDAT ?SetCrownUserIndex@CCastleSiege@@QAEXH@Z
_TEXT	SEGMENT
_iIndex$ = 8						; size = 4
?SetCrownUserIndex@CCastleSiege@@QAEXH@Z PROC		; CCastleSiege::SetCrownUserIndex, COMDAT
; _this$ = ecx

; 389  : 	void SetCrownUserIndex(int iIndex){this->m_iCastleCrownAccessUser = iIndex;}

  00000	55		 push	 ebp
  00001	8b ec		 mov	 ebp, esp
  00003	8b 45 08	 mov	 eax, DWORD PTR _iIndex$[ebp]
  00006	89 81 f0 01 00
	00		 mov	 DWORD PTR [ecx+496], eax
  0000c	5d		 pop	 ebp
  0000d	c2 04 00	 ret	 4
?SetCrownUserIndex@CCastleSiege@@QAEXH@Z ENDP		; CCastleSiege::SetCrownUserIndex
_TEXT	ENDS
PUBLIC	?GetCrownUserIndex@CCastleSiege@@QAEHXZ		; CCastleSiege::GetCrownUserIndex
; Function compile flags: /Ogtp
;	COMDAT ?GetCrownUserIndex@CCastleSiege@@QAEHXZ
_TEXT	SEGMENT
?GetCrownUserIndex@CCastleSiege@@QAEHXZ PROC		; CCastleSiege::GetCrownUserIndex, COMDAT
; _this$ = ecx

; 390  : 	int GetCrownUserIndex(){return m_iCastleCrownAccessUser;}

  00000	8b 81 f0 01 00
	00		 mov	 eax, DWORD PTR [ecx+496]
  00006	c3		 ret	 0
?GetCrownUserIndex@CCastleSiege@@QAEHXZ ENDP		; CCastleSiege::GetCrownUserIndex
_TEXT	ENDS
PUBLIC	?SetCrownAccessUserX@CCastleSiege@@QAEXE@Z	; CCastleSiege::SetCrownAccessUserX
; Function compile flags: /Ogtp
;	COMDAT ?SetCrownAccessUserX@CCastleSiege@@QAEXE@Z
_TEXT	SEGMENT
_iX$ = 8						; size = 1
?SetCrownAccessUserX@CCastleSiege@@QAEXE@Z PROC		; CCastleSiege::SetCrownAccessUserX, COMDAT
; _this$ = ecx

; 394  : 	void SetCrownAccessUserX(BYTE iX){m_btCastleCrownAccessUserX = iX;}

  00000	55		 push	 ebp
  00001	8b ec		 mov	 ebp, esp
  00003	8a 45 08	 mov	 al, BYTE PTR _iX$[ebp]
  00006	88 81 f4 01 00
	00		 mov	 BYTE PTR [ecx+500], al
  0000c	5d		 pop	 ebp
  0000d	c2 04 00	 ret	 4
?SetCrownAccessUserX@CCastleSiege@@QAEXE@Z ENDP		; CCastleSiege::SetCrownAccessUserX
_TEXT	ENDS
PUBLIC	?SetCrownAccessUserY@CCastleSiege@@QAEXE@Z	; CCastleSiege::SetCrownAccessUserY
; Function compile flags: /Ogtp
;	COMDAT ?SetCrownAccessUserY@CCastleSiege@@QAEXE@Z
_TEXT	SEGMENT
_iY$ = 8						; size = 1
?SetCrownAccessUserY@CCastleSiege@@QAEXE@Z PROC		; CCastleSiege::SetCrownAccessUserY, COMDAT
; _this$ = ecx

; 395  : 	void SetCrownAccessUserY(BYTE iY){m_btCastleCrownAccessUserY = iY;}

  00000	55		 push	 ebp
  00001	8b ec		 mov	 ebp, esp
  00003	8a 45 08	 mov	 al, BYTE PTR _iY$[ebp]
  00006	88 81 f5 01 00
	00		 mov	 BYTE PTR [ecx+501], al
  0000c	5d		 pop	 ebp
  0000d	c2 04 00	 ret	 4
?SetCrownAccessUserY@CCastleSiege@@QAEXE@Z ENDP		; CCastleSiege::SetCrownAccessUserY
_TEXT	ENDS
PUBLIC	?GetState@CDevilSquare@@QAE?AW4eDevilSquareState@@XZ ; CDevilSquare::GetState
; Function compile flags: /Ogtp
; File e:\work\tranet_version\gs\gameserver\devilsquare.h
;	COMDAT ?GetState@CDevilSquare@@QAE?AW4eDevilSquareState@@XZ
_TEXT	SEGMENT
?GetState@CDevilSquare@@QAE?AW4eDevilSquareState@@XZ PROC ; CDevilSquare::GetState, COMDAT
; _this$ = ecx

; 44   : 	enum eDevilSquareState GetState(){return this->m_eState;};

  00000	8b 41 04	 mov	 eax, DWORD PTR [ecx+4]
  00003	c3		 ret	 0
?GetState@CDevilSquare@@QAE?AW4eDevilSquareState@@XZ ENDP ; CDevilSquare::GetState
_TEXT	ENDS
PUBLIC	?NpcMainatenceMachine@@YAHPAUOBJECTSTRUCT@@0@Z	; NpcMainatenceMachine
EXTRN	?NotifyEntranceInfo@CKanturuEntranceNPC@@QAEXH@Z:PROC ; CKanturuEntranceNPC::NotifyEntranceInfo
EXTRN	?g_KanturuEntranceNPC@@3VCKanturuEntranceNPC@@A:DWORD ; g_KanturuEntranceNPC
; Function compile flags: /Ogtp
; File e:\work\tranet_version\gs\gameserver\npctalk.cpp
;	COMDAT ?NpcMainatenceMachine@@YAHPAUOBJECTSTRUCT@@0@Z
_TEXT	SEGMENT
_lpNpc$ = 8						; size = 4
_lpObj$ = 12						; size = 4
?NpcMainatenceMachine@@YAHPAUOBJECTSTRUCT@@0@Z PROC	; NpcMainatenceMachine, COMDAT

; 711  : {

  00000	55		 push	 ebp
  00001	8b ec		 mov	 ebp, esp

; 712  : 	g_KanturuEntranceNPC.NotifyEntranceInfo(lpObj->m_Index);

  00003	8b 45 0c	 mov	 eax, DWORD PTR _lpObj$[ebp]
  00006	8b 08		 mov	 ecx, DWORD PTR [eax]
  00008	51		 push	 ecx
  00009	b9 00 00 00 00	 mov	 ecx, OFFSET ?g_KanturuEntranceNPC@@3VCKanturuEntranceNPC@@A ; g_KanturuEntranceNPC
  0000e	e8 00 00 00 00	 call	 ?NotifyEntranceInfo@CKanturuEntranceNPC@@QAEXH@Z ; CKanturuEntranceNPC::NotifyEntranceInfo

; 713  : 	return TRUE;

  00013	b8 01 00 00 00	 mov	 eax, 1

; 714  : }

  00018	5d		 pop	 ebp
  00019	c3		 ret	 0
?NpcMainatenceMachine@@YAHPAUOBJECTSTRUCT@@0@Z ENDP	; NpcMainatenceMachine
_TEXT	ENDS
PUBLIC	?NpcReira@@YAHPAUOBJECTSTRUCT@@0@Z		; NpcReira
; Function compile flags: /Ogtp
;	COMDAT ?NpcReira@@YAHPAUOBJECTSTRUCT@@0@Z
_TEXT	SEGMENT
_lpNpc$ = 8						; size = 4
_lpObj$ = 12						; size = 4
?NpcReira@@YAHPAUOBJECTSTRUCT@@0@Z PROC			; NpcReira, COMDAT

; 719  : 	return FALSE;

  00000	33 c0		 xor	 eax, eax

; 720  : }

  00002	c3		 ret	 0
?NpcReira@@YAHPAUOBJECTSTRUCT@@0@Z ENDP			; NpcReira
_TEXT	ENDS
PUBLIC	?NpcBattleAnnouncer@@YAHPAUOBJECTSTRUCT@@0@Z	; NpcBattleAnnouncer
; Function compile flags: /Ogtp
;	COMDAT ?NpcBattleAnnouncer@@YAHPAUOBJECTSTRUCT@@0@Z
_TEXT	SEGMENT
_lpNpc$ = 8						; size = 4
_lpObj$ = 12						; size = 4
?NpcBattleAnnouncer@@YAHPAUOBJECTSTRUCT@@0@Z PROC	; NpcBattleAnnouncer, COMDAT

; 724  : 	return FALSE;

  00000	33 c0		 xor	 eax, eax

; 725  : }

  00002	c3		 ret	 0
?NpcBattleAnnouncer@@YAHPAUOBJECTSTRUCT@@0@Z ENDP	; NpcBattleAnnouncer
_TEXT	ENDS
PUBLIC	__$ArrayPad$
PUBLIC	?NpcFasi@@YAHPAUOBJECTSTRUCT@@0@Z		; NpcFasi
EXTRN	_rand:PROC
EXTRN	?gPkLimitFree@@3HA:DWORD			; gPkLimitFree
EXTRN	?ChatTargetSend@@YAXPAUOBJECTSTRUCT@@PADH@Z:PROC ; ChatTargetSend
EXTRN	__imp__wsprintfA:PROC
EXTRN	?Get@CMsg@@QAEPADH@Z:PROC			; CMsg::Get
EXTRN	?lMsg@@3VCMsg@@A:BYTE				; lMsg
EXTRN	?gObjGetPkTime@@YAHPAUOBJECTSTRUCT@@AAH1@Z:PROC	; gObjGetPkTime
EXTRN	?GetPkLevel@PartyClass@@QAEDH@Z:PROC		; PartyClass::GetPkLevel
EXTRN	?gParty@@3VPartyClass@@A:BYTE			; gParty
EXTRN	?ZtConfig@@3VcZtConfigs@@A:BYTE			; ZtConfig
EXTRN	?GCServerCmd@@YAXHEEE@Z:PROC			; GCServerCmd
EXTRN	?gDevilSquareEvent@@3HA:DWORD			; gDevilSquareEvent
EXTRN	?gLanguage@@3HA:DWORD				; gLanguage
EXTRN	___security_cookie:DWORD
EXTRN	@__security_check_cookie@4:PROC
; Function compile flags: /Ogtp
;	COMDAT ?NpcFasi@@YAHPAUOBJECTSTRUCT@@0@Z
_TEXT	SEGMENT
_min$225055 = -112					; size = 4
_hour$225054 = -108					; size = 4
_szTemp$225058 = -104					; size = 100
__$ArrayPad$ = -4					; size = 4
_lpNpc$ = 8						; size = 4
_lpObj$ = 12						; size = 4
?NpcFasi@@YAHPAUOBJECTSTRUCT@@0@Z PROC			; NpcFasi, COMDAT

; 728  : {

  00000	55		 push	 ebp
  00001	8b ec		 mov	 ebp, esp
  00003	83 ec 70	 sub	 esp, 112		; 00000070H
  00006	a1 00 00 00 00	 mov	 eax, DWORD PTR ___security_cookie
  0000b	33 c5		 xor	 eax, ebp
  0000d	89 45 fc	 mov	 DWORD PTR __$ArrayPad$[ebp], eax

; 729  : 	if ( gLanguage != 0 )

  00010	83 3d 00 00 00
	00 00		 cmp	 DWORD PTR ?gLanguage@@3HA, 0 ; gLanguage
  00017	56		 push	 esi
  00018	8b 75 0c	 mov	 esi, DWORD PTR _lpObj$[ebp]
  0001b	57		 push	 edi
  0001c	8b 7d 08	 mov	 edi, DWORD PTR _lpNpc$[ebp]
  0001f	74 1a		 je	 SHORT $LN16@NpcFasi

; 730  : 	{
; 731  : 		if ( gDevilSquareEvent != FALSE )

  00021	83 3d 00 00 00
	00 00		 cmp	 DWORD PTR ?gDevilSquareEvent@@3HA, 0 ; gDevilSquareEvent
  00028	74 11		 je	 SHORT $LN16@NpcFasi

; 732  : 		{
; 733  : 			GCServerCmd(lpObj->m_Index, 1, 6, 0);

  0002a	8b 06		 mov	 eax, DWORD PTR [esi]
  0002c	6a 00		 push	 0
  0002e	6a 06		 push	 6
  00030	6a 01		 push	 1
  00032	50		 push	 eax
  00033	e8 00 00 00 00	 call	 ?GCServerCmd@@YAXHEEE@Z	; GCServerCmd
  00038	83 c4 10	 add	 esp, 16			; 00000010H
$LN16@NpcFasi:

; 734  : 		}
; 735  : 	}
; 736  : 
; 737  : 	BOOL bPlayerKiller = FALSE; //Season 2.5 add-on
; 738  : 	
; 739  : 	if(ZtConfig.PvP.ZtPkPartySystem && lpObj->PartyNumber >= 0) //Season 2.5 add-on

  0003b	83 3d 38 09 00
	00 00		 cmp	 DWORD PTR ?ZtConfig@@3VcZtConfigs@@A+2360, 0
  00042	74 19		 je	 SHORT $LN15@NpcFasi
  00044	8b 86 2c 04 00
	00		 mov	 eax, DWORD PTR [esi+1068]
  0004a	85 c0		 test	 eax, eax
  0004c	78 0f		 js	 SHORT $LN15@NpcFasi

; 740  : 	{
; 741  : 		if(gParty.GetPkLevel(lpObj->PartyNumber) > 4)

  0004e	50		 push	 eax
  0004f	b9 00 00 00 00	 mov	 ecx, OFFSET ?gParty@@3VPartyClass@@A ; gParty
  00054	e8 00 00 00 00	 call	 ?GetPkLevel@PartyClass@@QAEDH@Z ; PartyClass::GetPkLevel
  00059	3c 04		 cmp	 al, 4

; 742  : 		{
; 743  : 			bPlayerKiller = TRUE;
; 744  : 		}
; 745  : 	}

  0005b	eb 07		 jmp	 SHORT $LN21@NpcFasi
$LN15@NpcFasi:

; 746  : 	else if(lpObj->m_PK_Level > 4)

  0005d	80 be 3d 01 00
	00 04		 cmp	 BYTE PTR [esi+317], 4
$LN21@NpcFasi:
  00064	0f 8e fe 00 00
	00		 jle	 $LN6@NpcFasi

; 747  : 	{
; 748  : 		bPlayerKiller = TRUE;
; 749  : 	}
; 750  : 
; 751  : 	if ( bPlayerKiller == TRUE )
; 752  : 	{
; 753  : 		int hour = 0;
; 754  : 		int min = 0;
; 755  : 
; 756  : 		if ( lpNpc->TargetNumber != lpObj->m_Index )

  0006a	0f bf 8f 58 04
	00 00		 movsx	 ecx, WORD PTR [edi+1112]
  00071	c7 45 94 00 00
	00 00		 mov	 DWORD PTR _hour$225054[ebp], 0
  00078	c7 45 90 00 00
	00 00		 mov	 DWORD PTR _min$225055[ebp], 0
  0007f	3b 0e		 cmp	 ecx, DWORD PTR [esi]
  00081	74 78		 je	 SHORT $LN10@NpcFasi

; 757  : 		{
; 758  : 			if ( gObjGetPkTime(lpObj, hour, min) == TRUE )

  00083	8d 55 90	 lea	 edx, DWORD PTR _min$225055[ebp]
  00086	52		 push	 edx
  00087	8d 45 94	 lea	 eax, DWORD PTR _hour$225054[ebp]
  0008a	50		 push	 eax
  0008b	56		 push	 esi
  0008c	e8 00 00 00 00	 call	 ?gObjGetPkTime@@YAHPAUOBJECTSTRUCT@@AAH1@Z ; gObjGetPkTime
  00091	83 c4 0c	 add	 esp, 12			; 0000000cH
  00094	83 f8 01	 cmp	 eax, 1
  00097	0f 85 cb 00 00
	00		 jne	 $LN6@NpcFasi

; 759  : 			{
; 760  : 				char szTemp[100];
; 761  : 
; 762  : 				wsprintf(szTemp, lMsg.Get(MSGGET(4, 79)), hour, min);

  0009d	8b 4d 90	 mov	 ecx, DWORD PTR _min$225055[ebp]
  000a0	8b 55 94	 mov	 edx, DWORD PTR _hour$225054[ebp]
  000a3	51		 push	 ecx
  000a4	52		 push	 edx
  000a5	68 4f 04 00 00	 push	 1103			; 0000044fH
  000aa	b9 00 00 00 00	 mov	 ecx, OFFSET ?lMsg@@3VCMsg@@A ; lMsg
  000af	e8 00 00 00 00	 call	 ?Get@CMsg@@QAEPADH@Z	; CMsg::Get
  000b4	50		 push	 eax
  000b5	8d 45 98	 lea	 eax, DWORD PTR _szTemp$225058[ebp]
  000b8	50		 push	 eax
  000b9	ff 15 00 00 00
	00		 call	 DWORD PTR __imp__wsprintfA

; 763  : 
; 764  : 				ChatTargetSend(lpNpc, szTemp, lpObj->m_Index);

  000bf	8b 0e		 mov	 ecx, DWORD PTR [esi]
  000c1	51		 push	 ecx
  000c2	8d 55 98	 lea	 edx, DWORD PTR _szTemp$225058[ebp]
  000c5	52		 push	 edx
  000c6	57		 push	 edi
  000c7	e8 00 00 00 00	 call	 ?ChatTargetSend@@YAXPAUOBJECTSTRUCT@@PADH@Z ; ChatTargetSend

; 765  : 
; 766  : 				lpNpc->TargetNumber = lpObj->m_Index;

  000cc	66 8b 06	 mov	 ax, WORD PTR [esi]
  000cf	83 c4 1c	 add	 esp, 28			; 0000001cH
  000d2	66 89 87 58 04
	00 00		 mov	 WORD PTR [edi+1112], ax

; 767  : 
; 768  : 				if(gPkLimitFree == 0)

  000d9	83 3d 00 00 00
	00 00		 cmp	 DWORD PTR ?gPkLimitFree@@3HA, 0 ; gPkLimitFree
  000e0	0f 85 82 00 00
	00		 jne	 $LN6@NpcFasi

; 769  : 				{
; 770  : 					return TRUE;

  000e6	5f		 pop	 edi
  000e7	b8 01 00 00 00	 mov	 eax, 1
  000ec	5e		 pop	 esi

; 795  : 		}
; 796  : 	}
; 797  : 
; 798  : 	return FALSE;
; 799  : }

  000ed	8b 4d fc	 mov	 ecx, DWORD PTR __$ArrayPad$[ebp]
  000f0	33 cd		 xor	 ecx, ebp
  000f2	e8 00 00 00 00	 call	 @__security_check_cookie@4
  000f7	8b e5		 mov	 esp, ebp
  000f9	5d		 pop	 ebp
  000fa	c3		 ret	 0
$LN10@NpcFasi:

; 771  : 				}
; 772  : 			}
; 773  : 		}
; 774  : 		else if ( gPkLimitFree == FALSE )

  000fb	83 3d 00 00 00
	00 00		 cmp	 DWORD PTR ?gPkLimitFree@@3HA, 0 ; gPkLimitFree
  00102	75 64		 jne	 SHORT $LN6@NpcFasi

; 775  : 		{
; 776  : 			int numbertext = rand() % 3;

  00104	e8 00 00 00 00	 call	 _rand
  00109	99		 cdq
  0010a	b9 03 00 00 00	 mov	 ecx, 3
  0010f	f7 f9		 idiv	 ecx

; 777  : 
; 778  : 			switch ( numbertext )

  00111	83 ea 00	 sub	 edx, 0
  00114	74 1a		 je	 SHORT $LN3@NpcFasi
  00116	4a		 dec	 edx
  00117	74 0d		 je	 SHORT $LN2@NpcFasi
  00119	4a		 dec	 edx
  0011a	75 30		 jne	 SHORT $LN4@NpcFasi

; 787  : 
; 788  : 				case 2:
; 789  : 					ChatTargetSend(lpNpc, lMsg.Get(MSGGET(4, 100)), lpObj->m_Index);

  0011c	8b 16		 mov	 edx, DWORD PTR [esi]
  0011e	52		 push	 edx
  0011f	68 64 04 00 00	 push	 1124			; 00000464H

; 790  : 					break;

  00124	eb 12		 jmp	 SHORT $LN22@NpcFasi
$LN2@NpcFasi:

; 782  : 					break;
; 783  : 
; 784  : 				case 1:
; 785  : 					ChatTargetSend(lpNpc, lMsg.Get(MSGGET(4, 99)), lpObj->m_Index);

  00126	8b 06		 mov	 eax, DWORD PTR [esi]
  00128	50		 push	 eax
  00129	68 63 04 00 00	 push	 1123			; 00000463H

; 786  : 					break;

  0012e	eb 08		 jmp	 SHORT $LN22@NpcFasi
$LN3@NpcFasi:

; 779  : 			{
; 780  : 				case 0:
; 781  : 					ChatTargetSend(lpNpc, lMsg.Get(MSGGET(4, 98)), lpObj->m_Index);

  00130	8b 0e		 mov	 ecx, DWORD PTR [esi]
  00132	51		 push	 ecx
  00133	68 62 04 00 00	 push	 1122			; 00000462H
$LN22@NpcFasi:
  00138	b9 00 00 00 00	 mov	 ecx, OFFSET ?lMsg@@3VCMsg@@A ; lMsg
  0013d	e8 00 00 00 00	 call	 ?Get@CMsg@@QAEPADH@Z	; CMsg::Get
  00142	50		 push	 eax
  00143	57		 push	 edi
  00144	e8 00 00 00 00	 call	 ?ChatTargetSend@@YAXPAUOBJECTSTRUCT@@PADH@Z ; ChatTargetSend
  00149	83 c4 0c	 add	 esp, 12			; 0000000cH
$LN4@NpcFasi:

; 791  : 			}
; 792  : 
; 793  : 			lpNpc->TargetNumber = 0;

  0014c	33 d2		 xor	 edx, edx
  0014e	66 89 97 58 04
	00 00		 mov	 WORD PTR [edi+1112], dx
  00155	5f		 pop	 edi

; 794  : 			return TRUE;

  00156	8d 42 01	 lea	 eax, DWORD PTR [edx+1]
  00159	5e		 pop	 esi

; 795  : 		}
; 796  : 	}
; 797  : 
; 798  : 	return FALSE;
; 799  : }

  0015a	8b 4d fc	 mov	 ecx, DWORD PTR __$ArrayPad$[ebp]
  0015d	33 cd		 xor	 ecx, ebp
  0015f	e8 00 00 00 00	 call	 @__security_check_cookie@4
  00164	8b e5		 mov	 esp, ebp
  00166	5d		 pop	 ebp
  00167	c3		 ret	 0
$LN6@NpcFasi:
  00168	8b 4d fc	 mov	 ecx, DWORD PTR __$ArrayPad$[ebp]
  0016b	5f		 pop	 edi
  0016c	33 cd		 xor	 ecx, ebp
  0016e	33 c0		 xor	 eax, eax
  00170	5e		 pop	 esi
  00171	e8 00 00 00 00	 call	 @__security_check_cookie@4
  00176	8b e5		 mov	 esp, ebp
  00178	5d		 pop	 ebp
  00179	c3		 ret	 0
?NpcFasi@@YAHPAUOBJECTSTRUCT@@0@Z ENDP			; NpcFasi
_TEXT	ENDS
PUBLIC	??_C@_0CF@FNBINGNC@You?5need?5Gens?5family?5to?5create?5g@ ; `string'
PUBLIC	??_C@_0CN@BIAKPPND@?$LM?$KN?$LJ?v?$LK?P?G?R?5?$LB?b?$LA?$KD?$LP?$KB?$LE?B?5?$LB?f?$LF?e?$LI?$KG?5?$LL?$PN?$LM?$LK?G?R?$LM@ ; `string'
PUBLIC	?NpcGuildMasterTalk@@YAHPAUOBJECTSTRUCT@@0@Z	; NpcGuildMasterTalk
EXTRN	?GCGuildMasterQuestionSend@@YAXH@Z:PROC		; GCGuildMasterQuestionSend
EXTRN	?gObjGuildMasterCapacityTest@@YAHPAUOBJECTSTRUCT@@@Z:PROC ; gObjGuildMasterCapacityTest
EXTRN	?GCServerMsgStringSend@@YAXPADHE@Z:PROC		; GCServerMsgStringSend
EXTRN	?GetGensInfluence@GensSystem@@QAEHPAUOBJECTSTRUCT@@@Z:PROC ; GensSystem::GetGensInfluence
EXTRN	?gGensSystem@@3VGensSystem@@A:BYTE		; gGensSystem
EXTRN	?gGENS@@3HA:DWORD				; gGENS
EXTRN	?gGuildCreate@@3HA:DWORD			; gGuildCreate
;	COMDAT ??_C@_0CF@FNBINGNC@You?5need?5Gens?5family?5to?5create?5g@
CONST	SEGMENT
??_C@_0CF@FNBINGNC@You?5need?5Gens?5family?5to?5create?5g@ DB 'You need G'
	DB	'ens family to create guild', 00H		; `string'
CONST	ENDS
;	COMDAT ??_C@_0CN@BIAKPPND@?$LM?$KN?$LJ?v?$LK?P?G?R?5?$LB?b?$LA?$KD?$LP?$KB?$LE?B?5?$LB?f?$LF?e?$LI?$KG?5?$LL?$PN?$LM?$LK?G?R?$LM@
CONST	SEGMENT
??_C@_0CN@BIAKPPND@?$LM?$KN?$LJ?v?$LK?P?G?R?5?$LB?b?$LA?$KD?$LP?$KB?$LE?B?5?$LB?f?$LF?e?$LI?$KG?5?$LL?$PN?$LM?$LK?G?R?$LM@ DB 0bcH
	DB	0adH, 0b9H, 0f6H, 0baH, 0d0H, 0c7H, 0d2H, ' ', 0b1H, 0e2H, 0b0H
	DB	0a3H, 0bfH, 0a1H, 0b4H, 0c2H, ' ', 0b1H, 0e6H, 0b5H, 0e5H, 0b8H
	DB	0a6H, ' ', 0bbH, 0fdH, 0bcH, 0baH, 0c7H, 0d2H, 0bcH, 0f6H, 0b0H
	DB	0a1H, ' ', 0beH, 0f8H, 0bdH, 0c0H, 0b4H, 0cfH, 0b4H, 0d9H, 00H ; `string'
; Function compile flags: /Ogtp
CONST	ENDS
;	COMDAT ?NpcGuildMasterTalk@@YAHPAUOBJECTSTRUCT@@0@Z
_TEXT	SEGMENT
_lpNpc$ = 8						; size = 4
_lpObj$ = 12						; size = 4
?NpcGuildMasterTalk@@YAHPAUOBJECTSTRUCT@@0@Z PROC	; NpcGuildMasterTalk, COMDAT

; 802  : {

  00000	55		 push	 ebp
  00001	8b ec		 mov	 ebp, esp

; 803  : 	if ( gGuildCreate == FALSE )

  00003	83 3d 00 00 00
	00 00		 cmp	 DWORD PTR ?gGuildCreate@@3HA, 0 ; gGuildCreate
  0000a	75 1e		 jne	 SHORT $LN9@NpcGuildMa

; 804  : 	{
; 805  : 		ChatTargetSend(lpNpc, "서버분할 기간에는 길드를 생성할수가 없습니다", lpObj->m_Index);

  0000c	8b 45 0c	 mov	 eax, DWORD PTR _lpObj$[ebp]
  0000f	8b 08		 mov	 ecx, DWORD PTR [eax]
  00011	8b 55 08	 mov	 edx, DWORD PTR _lpNpc$[ebp]
  00014	51		 push	 ecx
  00015	68 00 00 00 00	 push	 OFFSET ??_C@_0CN@BIAKPPND@?$LM?$KN?$LJ?v?$LK?P?G?R?5?$LB?b?$LA?$KD?$LP?$KB?$LE?B?5?$LB?f?$LF?e?$LI?$KG?5?$LL?$PN?$LM?$LK?G?R?$LM@
  0001a	52		 push	 edx
  0001b	e8 00 00 00 00	 call	 ?ChatTargetSend@@YAXPAUOBJECTSTRUCT@@PADH@Z ; ChatTargetSend
  00020	83 c4 0c	 add	 esp, 12			; 0000000cH

; 840  : 	}
; 841  : 
; 842  : 	return TRUE;

  00023	b8 01 00 00 00	 mov	 eax, 1

; 843  : }

  00028	5d		 pop	 ebp
  00029	c3		 ret	 0
$LN9@NpcGuildMa:
  0002a	56		 push	 esi

; 806  : 		return TRUE;
; 807  : 	}
; 808  : 
; 809  : 	if ( lpObj->GuildNumber > 0 )

  0002b	8b 75 0c	 mov	 esi, DWORD PTR _lpObj$[ebp]
  0002e	83 be 34 04 00
	00 00		 cmp	 DWORD PTR [esi+1076], 0
  00035	7e 27		 jle	 SHORT $LN8@NpcGuildMa

; 810  : 	{
; 811  : 		ChatTargetSend(lpNpc, lMsg.Get(MSGGET(4, 116)), lpObj->m_Index);

  00037	8b 06		 mov	 eax, DWORD PTR [esi]
  00039	50		 push	 eax
  0003a	68 74 04 00 00	 push	 1140			; 00000474H
  0003f	b9 00 00 00 00	 mov	 ecx, OFFSET ?lMsg@@3VCMsg@@A ; lMsg
  00044	e8 00 00 00 00	 call	 ?Get@CMsg@@QAEPADH@Z	; CMsg::Get
  00049	8b 4d 08	 mov	 ecx, DWORD PTR _lpNpc$[ebp]
  0004c	50		 push	 eax
  0004d	51		 push	 ecx
  0004e	e8 00 00 00 00	 call	 ?ChatTargetSend@@YAXPAUOBJECTSTRUCT@@PADH@Z ; ChatTargetSend
  00053	83 c4 0c	 add	 esp, 12			; 0000000cH
  00056	5e		 pop	 esi

; 840  : 	}
; 841  : 
; 842  : 	return TRUE;

  00057	b8 01 00 00 00	 mov	 eax, 1

; 843  : }

  0005c	5d		 pop	 ebp
  0005d	c3		 ret	 0
$LN8@NpcGuildMa:

; 812  : 		return TRUE;
; 813  : 	}
; 814  : 
; 815  : 	if(gGENS)

  0005e	83 3d 00 00 00
	00 00		 cmp	 DWORD PTR ?gGENS@@3HA, 0 ; gGENS
  00065	74 32		 je	 SHORT $LN5@NpcGuildMa

; 816  : 	{
; 817  : 		if( gGensSystem.GuildCreateReqGens )

  00067	80 3d ac 00 00
	00 00		 cmp	 BYTE PTR ?gGensSystem@@3VGensSystem@@A+172, 0
  0006e	74 29		 je	 SHORT $LN5@NpcGuildMa

; 818  : 		{
; 819  : 			if( !gGensSystem.GetGensInfluence(lpObj) )

  00070	56		 push	 esi
  00071	b9 00 00 00 00	 mov	 ecx, OFFSET ?gGensSystem@@3VGensSystem@@A ; gGensSystem
  00076	e8 00 00 00 00	 call	 ?GetGensInfluence@GensSystem@@QAEHPAUOBJECTSTRUCT@@@Z ; GensSystem::GetGensInfluence
  0007b	85 c0		 test	 eax, eax
  0007d	75 1a		 jne	 SHORT $LN5@NpcGuildMa

; 820  : 			{
; 821  : 				GCServerMsgStringSend("You need Gens family to create guild", lpObj->m_Index, 1);

  0007f	8b 16		 mov	 edx, DWORD PTR [esi]
  00081	6a 01		 push	 1
  00083	52		 push	 edx
  00084	68 00 00 00 00	 push	 OFFSET ??_C@_0CF@FNBINGNC@You?5need?5Gens?5family?5to?5create?5g@
  00089	e8 00 00 00 00	 call	 ?GCServerMsgStringSend@@YAXPADHE@Z ; GCServerMsgStringSend
  0008e	83 c4 0c	 add	 esp, 12			; 0000000cH
  00091	5e		 pop	 esi

; 840  : 	}
; 841  : 
; 842  : 	return TRUE;

  00092	b8 01 00 00 00	 mov	 eax, 1

; 843  : }

  00097	5d		 pop	 ebp
  00098	c3		 ret	 0
$LN5@NpcGuildMa:

; 822  : 				return true;
; 823  : 			}
; 824  : 		}
; 825  : 	}
; 826  : 
; 827  : 	int capacity = gObjGuildMasterCapacityTest(lpObj);

  00099	56		 push	 esi
  0009a	e8 00 00 00 00	 call	 ?gObjGuildMasterCapacityTest@@YAHPAUOBJECTSTRUCT@@@Z ; gObjGuildMasterCapacityTest
  0009f	83 c4 04	 add	 esp, 4

; 828  : 
; 829  : 	if ( capacity == 0 )

  000a2	85 c0		 test	 eax, eax
  000a4	75 27		 jne	 SHORT $LN4@NpcGuildMa

; 830  : 	{
; 831  : 		ChatTargetSend(lpNpc, lMsg.Get(MSGGET(4, 117)), lpObj->m_Index);

  000a6	8b 06		 mov	 eax, DWORD PTR [esi]
  000a8	50		 push	 eax
  000a9	68 75 04 00 00	 push	 1141			; 00000475H
  000ae	b9 00 00 00 00	 mov	 ecx, OFFSET ?lMsg@@3VCMsg@@A ; lMsg
  000b3	e8 00 00 00 00	 call	 ?Get@CMsg@@QAEPADH@Z	; CMsg::Get
  000b8	8b 4d 08	 mov	 ecx, DWORD PTR _lpNpc$[ebp]
  000bb	50		 push	 eax
  000bc	51		 push	 ecx
  000bd	e8 00 00 00 00	 call	 ?ChatTargetSend@@YAXPAUOBJECTSTRUCT@@PADH@Z ; ChatTargetSend
  000c2	83 c4 0c	 add	 esp, 12			; 0000000cH
  000c5	5e		 pop	 esi

; 840  : 	}
; 841  : 
; 842  : 	return TRUE;

  000c6	b8 01 00 00 00	 mov	 eax, 1

; 843  : }

  000cb	5d		 pop	 ebp
  000cc	c3		 ret	 0
$LN4@NpcGuildMa:

; 832  : 	}
; 833  : 	else if ( capacity == 2 )

  000cd	83 f8 02	 cmp	 eax, 2
  000d0	75 27		 jne	 SHORT $LN2@NpcGuildMa

; 834  : 	{
; 835  : 		ChatTargetSend(lpNpc, lMsg.Get(MSGGET(4, 118)), lpObj->m_Index);

  000d2	8b 16		 mov	 edx, DWORD PTR [esi]
  000d4	52		 push	 edx
  000d5	68 76 04 00 00	 push	 1142			; 00000476H
  000da	b9 00 00 00 00	 mov	 ecx, OFFSET ?lMsg@@3VCMsg@@A ; lMsg
  000df	e8 00 00 00 00	 call	 ?Get@CMsg@@QAEPADH@Z	; CMsg::Get
  000e4	50		 push	 eax
  000e5	8b 45 08	 mov	 eax, DWORD PTR _lpNpc$[ebp]
  000e8	50		 push	 eax
  000e9	e8 00 00 00 00	 call	 ?ChatTargetSend@@YAXPAUOBJECTSTRUCT@@PADH@Z ; ChatTargetSend
  000ee	83 c4 0c	 add	 esp, 12			; 0000000cH
  000f1	5e		 pop	 esi

; 840  : 	}
; 841  : 
; 842  : 	return TRUE;

  000f2	b8 01 00 00 00	 mov	 eax, 1

; 843  : }

  000f7	5d		 pop	 ebp
  000f8	c3		 ret	 0
$LN2@NpcGuildMa:

; 836  : 	}
; 837  : 	else
; 838  : 	{
; 839  : 		GCGuildMasterQuestionSend(lpObj->m_Index);

  000f9	8b 0e		 mov	 ecx, DWORD PTR [esi]
  000fb	51		 push	 ecx
  000fc	e8 00 00 00 00	 call	 ?GCGuildMasterQuestionSend@@YAXH@Z ; GCGuildMasterQuestionSend
  00101	83 c4 04	 add	 esp, 4
  00104	5e		 pop	 esi

; 840  : 	}
; 841  : 
; 842  : 	return TRUE;

  00105	b8 01 00 00 00	 mov	 eax, 1

; 843  : }

  0010a	5d		 pop	 ebp
  0010b	c3		 ret	 0
?NpcGuildMasterTalk@@YAHPAUOBJECTSTRUCT@@0@Z ENDP	; NpcGuildMasterTalk
_TEXT	ENDS
PUBLIC	?NpcRolensiaGuard@@YAHPAUOBJECTSTRUCT@@0@Z	; NpcRolensiaGuard
EXTRN	?gEnableEventNPCTalk@@3HA:DWORD			; gEnableEventNPCTalk
; Function compile flags: /Ogtp
;	COMDAT ?NpcRolensiaGuard@@YAHPAUOBJECTSTRUCT@@0@Z
_TEXT	SEGMENT
_lpNpc$ = 8						; size = 4
_lpObj$ = 12						; size = 4
?NpcRolensiaGuard@@YAHPAUOBJECTSTRUCT@@0@Z PROC		; NpcRolensiaGuard, COMDAT

; 846  : {

  00000	55		 push	 ebp
  00001	8b ec		 mov	 ebp, esp

; 847  : 	if ( gLanguage != 0 )

  00003	83 3d 00 00 00
	00 00		 cmp	 DWORD PTR ?gLanguage@@3HA, 0 ; gLanguage
  0000a	75 1d		 jne	 SHORT $LN7@NpcRolensi

; 848  : 	{
; 849  : 	
; 850  : 	}
; 851  : 	else if ( gEnableEventNPCTalk != FALSE )

  0000c	83 3d 00 00 00
	00 00		 cmp	 DWORD PTR ?gEnableEventNPCTalk@@3HA, 0 ; gEnableEventNPCTalk
  00013	74 14		 je	 SHORT $LN7@NpcRolensi

; 852  : 	{
; 853  : 		GCServerCmd(lpObj->m_Index, 4, 0, 0);

  00015	8b 45 0c	 mov	 eax, DWORD PTR _lpObj$[ebp]
  00018	8b 08		 mov	 ecx, DWORD PTR [eax]
  0001a	6a 00		 push	 0
  0001c	6a 00		 push	 0
  0001e	6a 04		 push	 4
  00020	51		 push	 ecx
  00021	e8 00 00 00 00	 call	 ?GCServerCmd@@YAXHEEE@Z	; GCServerCmd
  00026	83 c4 10	 add	 esp, 16			; 00000010H
$LN7@NpcRolensi:

; 854  : 	}
; 855  : 
; 856  : 	return TRUE;

  00029	b8 01 00 00 00	 mov	 eax, 1

; 857  : }

  0002e	5d		 pop	 ebp
  0002f	c3		 ret	 0
?NpcRolensiaGuard@@YAHPAUOBJECTSTRUCT@@0@Z ENDP		; NpcRolensiaGuard
_TEXT	ENDS
PUBLIC	?NpcChaosGoblelin@@YAHPAUOBJECTSTRUCT@@0@Z	; NpcChaosGoblelin
EXTRN	?gUserFindDevilSquareKeyEyes@@YAHH@Z:PROC	; gUserFindDevilSquareKeyEyes
; Function compile flags: /Ogtp
;	COMDAT ?NpcChaosGoblelin@@YAHPAUOBJECTSTRUCT@@0@Z
_TEXT	SEGMENT
_lpNpc$ = 8						; size = 4
_lpObj$ = 12						; size = 4
?NpcChaosGoblelin@@YAHPAUOBJECTSTRUCT@@0@Z PROC		; NpcChaosGoblelin, COMDAT

; 860  : {

  00000	55		 push	 ebp
  00001	8b ec		 mov	 ebp, esp

; 861  : 	gUserFindDevilSquareKeyEyes(lpObj->m_Index);

  00003	8b 45 0c	 mov	 eax, DWORD PTR _lpObj$[ebp]
  00006	8b 08		 mov	 ecx, DWORD PTR [eax]
  00008	51		 push	 ecx
  00009	e8 00 00 00 00	 call	 ?gUserFindDevilSquareKeyEyes@@YAHH@Z ; gUserFindDevilSquareKeyEyes
  0000e	83 c4 04	 add	 esp, 4

; 862  : 
; 863  : 	return FALSE;

  00011	33 c0		 xor	 eax, eax

; 864  : }

  00013	5d		 pop	 ebp
  00014	c3		 ret	 0
?NpcChaosGoblelin@@YAHPAUOBJECTSTRUCT@@0@Z ENDP		; NpcChaosGoblelin
_TEXT	ENDS
PUBLIC	??_C@_0CL@KMBDNKMH@?$FLJewelMix?$FN?5?$FL?$CFs?$FN?$FL?$CFs?$FN?5Jewel?5Mix?5De@ ; `string'
PUBLIC	__$ArrayPad$
PUBLIC	?NpcChaosCardMaster@@YAHPAUOBJECTSTRUCT@@0@Z	; NpcChaosCardMaster
EXTRN	?gObjWarehouseTextSave@@YAXPAUOBJECTSTRUCT@@@Z:PROC ; gObjWarehouseTextSave
EXTRN	?gObjItemTextSave@@YAXPAUOBJECTSTRUCT@@@Z:PROC	; gObjItemTextSave
EXTRN	?LogAddTD@@3P6AXPADZZA:DWORD			; LogAddTD
EXTRN	?DataSend@@YAHHPAEK@Z:PROC			; DataSend
EXTRN	?bCanChaosBox@@3HA:DWORD			; bCanChaosBox
;	COMDAT ??_C@_0CL@KMBDNKMH@?$FLJewelMix?$FN?5?$FL?$CFs?$FN?$FL?$CFs?$FN?5Jewel?5Mix?5De@
CONST	SEGMENT
??_C@_0CL@KMBDNKMH@?$FLJewelMix?$FN?5?$FL?$CFs?$FN?$FL?$CFs?$FN?5Jewel?5Mix?5De@ DB '['
	DB	'JewelMix] [%s][%s] Jewel Mix Dealer Start', 00H ; `string'
; Function compile flags: /Ogtp
CONST	ENDS
;	COMDAT ?NpcChaosCardMaster@@YAHPAUOBJECTSTRUCT@@0@Z
_TEXT	SEGMENT
_pMsg$225106 = -16					; size = 11
__$ArrayPad$ = -4					; size = 4
_lpNpc$ = 8						; size = 4
_lpObj$ = 12						; size = 4
?NpcChaosCardMaster@@YAHPAUOBJECTSTRUCT@@0@Z PROC	; NpcChaosCardMaster, COMDAT

; 867  : {

  00000	55		 push	 ebp
  00001	8b ec		 mov	 ebp, esp
  00003	83 ec 10	 sub	 esp, 16			; 00000010H
  00006	a1 00 00 00 00	 mov	 eax, DWORD PTR ___security_cookie
  0000b	33 c5		 xor	 eax, ebp
  0000d	89 45 fc	 mov	 DWORD PTR __$ArrayPad$[ebp], eax
  00010	56		 push	 esi
  00011	8b 75 0c	 mov	 esi, DWORD PTR _lpObj$[ebp]

; 868  : #ifdef OLDCASHSHOP
; 869  : 	if ( g_bUseLotteryEvent == FALSE )
; 870  : 	{
; 871  : 		return FALSE;
; 872  : 	}
; 873  : #endif
; 874  : 	
; 875  : 	if ( lpObj->m_bPShopOpen == 1 )//Season 4.5 addon

  00014	80 be c4 0e 00
	00 01		 cmp	 BYTE PTR [esi+3780], 1
  0001b	75 2e		 jne	 SHORT $LN4@NpcChaosCa

; 876  : 	{
; 877  : 		GCServerMsgStringSend(lMsg.Get(MSGGET(4,194)), lpObj->m_Index, 1);

  0001d	8b 06		 mov	 eax, DWORD PTR [esi]
  0001f	6a 01		 push	 1
  00021	50		 push	 eax
  00022	68 c2 04 00 00	 push	 1218			; 000004c2H
  00027	b9 00 00 00 00	 mov	 ecx, OFFSET ?lMsg@@3VCMsg@@A ; lMsg
  0002c	e8 00 00 00 00	 call	 ?Get@CMsg@@QAEPADH@Z	; CMsg::Get
  00031	50		 push	 eax
  00032	e8 00 00 00 00	 call	 ?GCServerMsgStringSend@@YAXPADHE@Z ; GCServerMsgStringSend
  00037	83 c4 0c	 add	 esp, 12			; 0000000cH
$LN7@NpcChaosCa:

; 878  : 		
; 879  : 		return FALSE;

  0003a	33 c0		 xor	 eax, eax
  0003c	5e		 pop	 esi

; 911  : 	}
; 912  : 
; 913  : 	return TRUE;
; 914  : }

  0003d	8b 4d fc	 mov	 ecx, DWORD PTR __$ArrayPad$[ebp]
  00040	33 cd		 xor	 ecx, ebp
  00042	e8 00 00 00 00	 call	 @__security_check_cookie@4
  00047	8b e5		 mov	 esp, ebp
  00049	5d		 pop	 ebp
  0004a	c3		 ret	 0
$LN4@NpcChaosCa:

; 880  : 	}
; 881  : 	if ( bCanChaosBox == TRUE )

  0004b	83 3d 00 00 00
	00 01		 cmp	 DWORD PTR ?bCanChaosBox@@3HA, 1 ; bCanChaosBox
  00052	75 5d		 jne	 SHORT $LN3@NpcChaosCa

; 882  : 	{
; 883  : 		if ( lpObj->m_IfState.use > 0 )

  00054	f6 86 1c 0e 00
	00 03		 test	 BYTE PTR [esi+3612], 3

; 884  : 		{
; 885  : 			return FALSE;

  0005b	77 dd		 ja	 SHORT $LN7@NpcChaosCa

; 886  : 		}
; 887  : 
; 888  : 		if ( lpObj->m_bPShopOpen == true )
; 889  : 		{
; 890  : 			LogAdd("[%s][%s] is Already Opening PShop, ChaosBox Failed", lpObj->AccountID, lpObj->Name);
; 891  : 			GCServerMsgStringSend(lMsg.Get(MSGGET(4,194)), lpObj->m_Index, 1);
; 892  : 			return TRUE;
; 893  : 		}
; 894  : 
; 895  : 		PMSG_TALKRESULT pMsg;
; 896  : 
; 897  : 		pMsg.h.c = 0xC3;
; 898  : 		pMsg.h.headcode = 0x30;
; 899  : 		pMsg.h.size = sizeof(pMsg);
; 900  : 		pMsg.result = 0x15;
; 901  : 
; 902  : 		DataSend(lpObj->m_Index, (LPBYTE)&pMsg, pMsg.h.size);

  0005d	8b 16		 mov	 edx, DWORD PTR [esi]
  0005f	6a 0b		 push	 11			; 0000000bH
  00061	8d 4d f0	 lea	 ecx, DWORD PTR _pMsg$225106[ebp]
  00064	51		 push	 ecx
  00065	52		 push	 edx
  00066	c6 45 f0 c3	 mov	 BYTE PTR _pMsg$225106[ebp], 195 ; 000000c3H
  0006a	66 c7 45 f1 0b
	30		 mov	 WORD PTR _pMsg$225106[ebp+1], 12299 ; 0000300bH
  00070	c6 45 f3 15	 mov	 BYTE PTR _pMsg$225106[ebp+3], 21 ; 00000015H
  00074	e8 00 00 00 00	 call	 ?DataSend@@YAHHPAEK@Z	; DataSend

; 903  : 
; 904  : 		lpObj->m_IfState.use = 1;
; 905  : 		lpObj->m_IfState.type = 7;

  00079	8b 86 1c 0e 00
	00		 mov	 eax, DWORD PTR [esi+3612]

; 906  : 
; 907  : 		LogAddTD("[JewelMix] [%s][%s] Jewel Mix Dealer Start", lpObj->AccountID, lpObj->Name);

  0007f	8d 4e 77	 lea	 ecx, DWORD PTR [esi+119]
  00082	51		 push	 ecx
  00083	8d 56 6c	 lea	 edx, DWORD PTR [esi+108]
  00086	25 fd 01 ff ff	 and	 eax, -65027		; ffff01fdH
  0008b	52		 push	 edx
  0008c	0d c1 01 00 00	 or	 eax, 449		; 000001c1H
  00091	68 00 00 00 00	 push	 OFFSET ??_C@_0CL@KMBDNKMH@?$FLJewelMix?$FN?5?$FL?$CFs?$FN?$FL?$CFs?$FN?5Jewel?5Mix?5De@
  00096	89 86 1c 0e 00
	00		 mov	 DWORD PTR [esi+3612], eax
  0009c	ff 15 00 00 00
	00		 call	 DWORD PTR ?LogAddTD@@3P6AXPADZZA ; LogAddTD

; 908  : 
; 909  : 		gObjItemTextSave(lpObj);

  000a2	56		 push	 esi
  000a3	e8 00 00 00 00	 call	 ?gObjItemTextSave@@YAXPAUOBJECTSTRUCT@@@Z ; gObjItemTextSave

; 910  : 		gObjWarehouseTextSave(lpObj);

  000a8	56		 push	 esi
  000a9	e8 00 00 00 00	 call	 ?gObjWarehouseTextSave@@YAXPAUOBJECTSTRUCT@@@Z ; gObjWarehouseTextSave
  000ae	83 c4 20	 add	 esp, 32			; 00000020H
$LN3@NpcChaosCa:

; 911  : 	}
; 912  : 
; 913  : 	return TRUE;
; 914  : }

  000b1	8b 4d fc	 mov	 ecx, DWORD PTR __$ArrayPad$[ebp]
  000b4	33 cd		 xor	 ecx, ebp
  000b6	b8 01 00 00 00	 mov	 eax, 1
  000bb	5e		 pop	 esi
  000bc	e8 00 00 00 00	 call	 @__security_check_cookie@4
  000c1	8b e5		 mov	 esp, ebp
  000c3	5d		 pop	 ebp
  000c4	c3		 ret	 0
?NpcChaosCardMaster@@YAHPAUOBJECTSTRUCT@@0@Z ENDP	; NpcChaosCardMaster
_TEXT	ENDS
PUBLIC	__$ArrayPad$
PUBLIC	?NpcRusipher@@YAHPAUOBJECTSTRUCT@@0@Z		; NpcRusipher
EXTRN	?g_DevilSquare@@3VCDevilSquare@@A:BYTE		; g_DevilSquare
EXTRN	?gUserFindDevilSquareInvitation@@YAHH@Z:PROC	; gUserFindDevilSquareInvitation
; Function compile flags: /Ogtp
;	COMDAT ?NpcRusipher@@YAHPAUOBJECTSTRUCT@@0@Z
_TEXT	SEGMENT
_pMsg$225135 = -16					; size = 11
__$ArrayPad$ = -4					; size = 4
_lpNpc$ = 8						; size = 4
_lpObj$ = 12						; size = 4
?NpcRusipher@@YAHPAUOBJECTSTRUCT@@0@Z PROC		; NpcRusipher, COMDAT

; 917  : {

  00000	55		 push	 ebp
  00001	8b ec		 mov	 ebp, esp
  00003	83 ec 10	 sub	 esp, 16			; 00000010H
  00006	a1 00 00 00 00	 mov	 eax, DWORD PTR ___security_cookie
  0000b	33 c5		 xor	 eax, ebp
  0000d	89 45 fc	 mov	 DWORD PTR __$ArrayPad$[ebp], eax

; 918  : 	if ( gDevilSquareEvent == FALSE )

  00010	83 3d 00 00 00
	00 00		 cmp	 DWORD PTR ?gDevilSquareEvent@@3HA, 0 ; gDevilSquareEvent
  00017	56		 push	 esi
  00018	8b 75 0c	 mov	 esi, DWORD PTR _lpObj$[ebp]

; 919  : 	{
; 920  : 		return TRUE;

  0001b	74 70		 je	 SHORT $LN13@NpcRusiphe

; 921  : 	}
; 922  : 
; 923  : 	int aIndex = lpObj->m_Index;
; 924  : 
; 925  : 	if ( (lpObj->m_IfState.use ) > 0 )

  0001d	f6 86 1c 0e 00
	00 03		 test	 BYTE PTR [esi+3612], 3
  00024	57		 push	 edi
  00025	8b 3e		 mov	 edi, DWORD PTR [esi]

; 926  : 	{
; 927  : 		return TRUE;

  00027	77 63		 ja	 SHORT $LN1@NpcRusiphe

; 928  : 	}
; 929  : 
; 930  : 	if ( gUserFindDevilSquareInvitation(aIndex) == FALSE )

  00029	57		 push	 edi
  0002a	e8 00 00 00 00	 call	 ?gUserFindDevilSquareInvitation@@YAHH@Z ; gUserFindDevilSquareInvitation
  0002f	83 c4 04	 add	 esp, 4
  00032	85 c0		 test	 eax, eax
  00034	75 05		 jne	 SHORT $LN4@NpcRusiphe

; 931  : 	{
; 932  : 		GCServerCmd(lpObj->m_Index, 1, 2 ,0);

  00036	50		 push	 eax
  00037	6a 02		 push	 2
  00039	eb 44		 jmp	 SHORT $LN12@NpcRusiphe
$LN4@NpcRusiphe:

; 933  : 	}
; 934  : 	else if ( g_DevilSquare.GetState() == 1 )

  0003b	83 3d 04 00 00
	00 01		 cmp	 DWORD PTR ?g_DevilSquare@@3VCDevilSquare@@A+4, 1
  00042	75 37		 jne	 SHORT $LN2@NpcRusiphe

; 935  : 	{
; 936  : 		PMSG_TALKRESULT pMsg;
; 937  : 
; 938  : 		pMsg.h.c = 0xC3;
; 939  : 		pMsg.h.headcode = 0x30;
; 940  : 		pMsg.h.size = sizeof(pMsg);
; 941  : 		pMsg.result = 0x04;
; 942  : 
; 943  : 		DataSend(aIndex, (LPBYTE)&pMsg, pMsg.h.size);

  00044	6a 0b		 push	 11			; 0000000bH
  00046	8d 4d f0	 lea	 ecx, DWORD PTR _pMsg$225135[ebp]
  00049	51		 push	 ecx
  0004a	57		 push	 edi
  0004b	c6 45 f0 c3	 mov	 BYTE PTR _pMsg$225135[ebp], 195 ; 000000c3H
  0004f	66 c7 45 f1 0b
	30		 mov	 WORD PTR _pMsg$225135[ebp+1], 12299 ; 0000300bH
  00055	c6 45 f3 04	 mov	 BYTE PTR _pMsg$225135[ebp+3], 4
  00059	e8 00 00 00 00	 call	 ?DataSend@@YAHHPAEK@Z	; DataSend

; 944  : 
; 945  : 		lpObj->m_IfState.use = 1;
; 946  : 		lpObj->m_IfState.type = 12;

  0005e	8b 96 1c 0e 00
	00		 mov	 edx, DWORD PTR [esi+3612]
  00064	81 e2 3d 03 ff
	ff		 and	 edx, -64707		; ffff033dH
  0006a	83 c4 0c	 add	 esp, 12			; 0000000cH
  0006d	81 ca 01 03 00
	00		 or	 edx, 769		; 00000301H
  00073	89 96 1c 0e 00
	00		 mov	 DWORD PTR [esi+3612], edx

; 947  : 	}
; 948  : 	else

  00079	eb 11		 jmp	 SHORT $LN1@NpcRusiphe
$LN2@NpcRusiphe:

; 949  : 	{
; 950  : 		GCServerCmd(lpObj->m_Index, 1, 3, 0);

  0007b	6a 00		 push	 0
  0007d	6a 03		 push	 3
$LN12@NpcRusiphe:
  0007f	8b 06		 mov	 eax, DWORD PTR [esi]
  00081	6a 01		 push	 1
  00083	50		 push	 eax
  00084	e8 00 00 00 00	 call	 ?GCServerCmd@@YAXHEEE@Z	; GCServerCmd
  00089	83 c4 10	 add	 esp, 16			; 00000010H
$LN1@NpcRusiphe:
  0008c	5f		 pop	 edi
$LN13@NpcRusiphe:

; 951  : 	}
; 952  : 
; 953  : 	return TRUE;
; 954  : }

  0008d	8b 4d fc	 mov	 ecx, DWORD PTR __$ArrayPad$[ebp]
  00090	33 cd		 xor	 ecx, ebp
  00092	b8 01 00 00 00	 mov	 eax, 1
  00097	5e		 pop	 esi
  00098	e8 00 00 00 00	 call	 @__security_check_cookie@4
  0009d	8b e5		 mov	 esp, ebp
  0009f	5d		 pop	 ebp
  000a0	c3		 ret	 0
?NpcRusipher@@YAHPAUOBJECTSTRUCT@@0@Z ENDP		; NpcRusipher
_TEXT	ENDS
PUBLIC	?NpcPosionGirl@@YAHPAUOBJECTSTRUCT@@0@Z		; NpcPosionGirl
; Function compile flags: /Ogtp
;	COMDAT ?NpcPosionGirl@@YAHPAUOBJECTSTRUCT@@0@Z
_TEXT	SEGMENT
_lpNpc$ = 8						; size = 4
_lpObj$ = 12						; size = 4
?NpcPosionGirl@@YAHPAUOBJECTSTRUCT@@0@Z PROC		; NpcPosionGirl, COMDAT

; 958  : 	return FALSE;

  00000	33 c0		 xor	 eax, eax

; 959  : }

  00002	c3		 ret	 0
?NpcPosionGirl@@YAHPAUOBJECTSTRUCT@@0@Z ENDP		; NpcPosionGirl
_TEXT	ENDS
PUBLIC	?NpcDeviasWizard@@YAHPAUOBJECTSTRUCT@@0@Z	; NpcDeviasWizard
; Function compile flags: /Ogtp
;	COMDAT ?NpcDeviasWizard@@YAHPAUOBJECTSTRUCT@@0@Z
_TEXT	SEGMENT
_lpNpc$ = 8						; size = 4
_lpObj$ = 12						; size = 4
?NpcDeviasWizard@@YAHPAUOBJECTSTRUCT@@0@Z PROC		; NpcDeviasWizard, COMDAT

; 963  : 	return FALSE;

  00000	33 c0		 xor	 eax, eax

; 964  : }

  00002	c3		 ret	 0
?NpcDeviasWizard@@YAHPAUOBJECTSTRUCT@@0@Z ENDP		; NpcDeviasWizard
_TEXT	ENDS
PUBLIC	?NpcDeviasGuard@@YAHPAUOBJECTSTRUCT@@0@Z	; NpcDeviasGuard
; Function compile flags: /Ogtp
;	COMDAT ?NpcDeviasGuard@@YAHPAUOBJECTSTRUCT@@0@Z
_TEXT	SEGMENT
_lpNpc$ = 8						; size = 4
_lpObj$ = 12						; size = 4
?NpcDeviasGuard@@YAHPAUOBJECTSTRUCT@@0@Z PROC		; NpcDeviasGuard, COMDAT

; 968  : 	return TRUE;

  00000	b8 01 00 00 00	 mov	 eax, 1

; 969  : }

  00005	c3		 ret	 0
?NpcDeviasGuard@@YAHPAUOBJECTSTRUCT@@0@Z ENDP		; NpcDeviasGuard
_TEXT	ENDS
PUBLIC	?NpcDeviasWareHousemen@@YAHPAUOBJECTSTRUCT@@0@Z	; NpcDeviasWareHousemen
; Function compile flags: /Ogtp
;	COMDAT ?NpcDeviasWareHousemen@@YAHPAUOBJECTSTRUCT@@0@Z
_TEXT	SEGMENT
_lpNpc$ = 8						; size = 4
_lpObj$ = 12						; size = 4
?NpcDeviasWareHousemen@@YAHPAUOBJECTSTRUCT@@0@Z PROC	; NpcDeviasWareHousemen, COMDAT

; 973  : 	return FALSE;

  00000	33 c0		 xor	 eax, eax

; 974  : }

  00002	c3		 ret	 0
?NpcDeviasWareHousemen@@YAHPAUOBJECTSTRUCT@@0@Z ENDP	; NpcDeviasWareHousemen
_TEXT	ENDS
PUBLIC	?NpcWarehouse@@YAHPAUOBJECTSTRUCT@@0@Z		; NpcWarehouse
; Function compile flags: /Ogtp
;	COMDAT ?NpcWarehouse@@YAHPAUOBJECTSTRUCT@@0@Z
_TEXT	SEGMENT
_lpNpc$ = 8						; size = 4
_lpObj$ = 12						; size = 4
?NpcWarehouse@@YAHPAUOBJECTSTRUCT@@0@Z PROC		; NpcWarehouse, COMDAT

; 978  : 	return FALSE;

  00000	33 c0		 xor	 eax, eax

; 979  : }

  00002	c3		 ret	 0
?NpcWarehouse@@YAHPAUOBJECTSTRUCT@@0@Z ENDP		; NpcWarehouse
_TEXT	ENDS
PUBLIC	?NpcNoriaRara@@YAHPAUOBJECTSTRUCT@@0@Z		; NpcNoriaRara
; Function compile flags: /Ogtp
;	COMDAT ?NpcNoriaRara@@YAHPAUOBJECTSTRUCT@@0@Z
_TEXT	SEGMENT
_lpNpc$ = 8						; size = 4
_lpObj$ = 12						; size = 4
?NpcNoriaRara@@YAHPAUOBJECTSTRUCT@@0@Z PROC		; NpcNoriaRara, COMDAT

; 982  : {

  00000	55		 push	 ebp
  00001	8b ec		 mov	 ebp, esp

; 983  : 	if ( gLanguage != 0 )

  00003	83 3d 00 00 00
	00 00		 cmp	 DWORD PTR ?gLanguage@@3HA, 0 ; gLanguage
  0000a	75 1d		 jne	 SHORT $LN7@NpcNoriaRa

; 984  : 	{
; 985  : 	
; 986  : 	}
; 987  : 	else if ( gEnableEventNPCTalk != FALSE )

  0000c	83 3d 00 00 00
	00 00		 cmp	 DWORD PTR ?gEnableEventNPCTalk@@3HA, 0 ; gEnableEventNPCTalk
  00013	74 14		 je	 SHORT $LN7@NpcNoriaRa

; 988  : 	{
; 989  : 		GCServerCmd(lpObj->m_Index, 4, 2, 0);

  00015	8b 45 0c	 mov	 eax, DWORD PTR _lpObj$[ebp]
  00018	8b 08		 mov	 ecx, DWORD PTR [eax]
  0001a	6a 00		 push	 0
  0001c	6a 02		 push	 2
  0001e	6a 04		 push	 4
  00020	51		 push	 ecx
  00021	e8 00 00 00 00	 call	 ?GCServerCmd@@YAXHEEE@Z	; GCServerCmd
  00026	83 c4 10	 add	 esp, 16			; 00000010H
$LN7@NpcNoriaRa:

; 990  : 	}
; 991  : 
; 992  : 	return FALSE;

  00029	33 c0		 xor	 eax, eax

; 993  : }

  0002b	5d		 pop	 ebp
  0002c	c3		 ret	 0
?NpcNoriaRara@@YAHPAUOBJECTSTRUCT@@0@Z ENDP		; NpcNoriaRara
_TEXT	ENDS
PUBLIC	?NpcDeviasMadam@@YAHPAUOBJECTSTRUCT@@0@Z	; NpcDeviasMadam
; Function compile flags: /Ogtp
;	COMDAT ?NpcDeviasMadam@@YAHPAUOBJECTSTRUCT@@0@Z
_TEXT	SEGMENT
_lpNpc$ = 8						; size = 4
_lpObj$ = 12						; size = 4
?NpcDeviasMadam@@YAHPAUOBJECTSTRUCT@@0@Z PROC		; NpcDeviasMadam, COMDAT

; 996  : {

  00000	55		 push	 ebp
  00001	8b ec		 mov	 ebp, esp

; 997  : 	if ( gLanguage != 0 )

  00003	83 3d 00 00 00
	00 00		 cmp	 DWORD PTR ?gLanguage@@3HA, 0 ; gLanguage
  0000a	75 1d		 jne	 SHORT $LN7@NpcDeviasM

; 998  : 	{
; 999  : 	
; 1000 : 	}
; 1001 : 	else if ( gEnableEventNPCTalk != FALSE )

  0000c	83 3d 00 00 00
	00 00		 cmp	 DWORD PTR ?gEnableEventNPCTalk@@3HA, 0 ; gEnableEventNPCTalk
  00013	74 14		 je	 SHORT $LN7@NpcDeviasM

; 1002 : 	{
; 1003 : 		GCServerCmd(lpObj->m_Index, 4, 1, 0);

  00015	8b 45 0c	 mov	 eax, DWORD PTR _lpObj$[ebp]
  00018	8b 08		 mov	 ecx, DWORD PTR [eax]
  0001a	6a 00		 push	 0
  0001c	6a 01		 push	 1
  0001e	6a 04		 push	 4
  00020	51		 push	 ecx
  00021	e8 00 00 00 00	 call	 ?GCServerCmd@@YAXHEEE@Z	; GCServerCmd
  00026	83 c4 10	 add	 esp, 16			; 00000010H
$LN7@NpcDeviasM:

; 1004 : 	}
; 1005 : 
; 1006 : 	return FALSE;

  00029	33 c0		 xor	 eax, eax

; 1007 : }

  0002b	5d		 pop	 ebp
  0002c	c3		 ret	 0
?NpcDeviasMadam@@YAHPAUOBJECTSTRUCT@@0@Z ENDP		; NpcDeviasMadam
_TEXT	ENDS
PUBLIC	?NpcEventChipNPC@@YAHPAUOBJECTSTRUCT@@0@Z	; NpcEventChipNPC
EXTRN	?ClickArcher@cGoldenArcher@@QAEXH@Z:PROC	; cGoldenArcher::ClickArcher
EXTRN	?GoldenArcher@@3VcGoldenArcher@@A:BYTE		; GoldenArcher
; Function compile flags: /Ogtp
;	COMDAT ?NpcEventChipNPC@@YAHPAUOBJECTSTRUCT@@0@Z
_TEXT	SEGMENT
_lpNpc$ = 8						; size = 4
_lpObj$ = 12						; size = 4
?NpcEventChipNPC@@YAHPAUOBJECTSTRUCT@@0@Z PROC		; NpcEventChipNPC, COMDAT

; 1017 : {

  00000	55		 push	 ebp
  00001	8b ec		 mov	 ebp, esp

; 1018 : 	GoldenArcher.ClickArcher(lpObj->m_Index);

  00003	8b 45 0c	 mov	 eax, DWORD PTR _lpObj$[ebp]
  00006	8b 08		 mov	 ecx, DWORD PTR [eax]
  00008	51		 push	 ecx
  00009	b9 00 00 00 00	 mov	 ecx, OFFSET ?GoldenArcher@@3VcGoldenArcher@@A ; GoldenArcher
  0000e	e8 00 00 00 00	 call	 ?ClickArcher@cGoldenArcher@@QAEXH@Z ; cGoldenArcher::ClickArcher

; 1019 : 	return true;

  00013	b8 01 00 00 00	 mov	 eax, 1

; 1020 : 	/*
; 1021 : 	if ( (lpObj->m_IfState.use) > 0 )
; 1022 : 	{
; 1023 : 		return TRUE;
; 1024 : 	}
; 1025 : 	
; 1026 : 	if ( lpNpc->MapNumber == 0 )
; 1027 : 	{
; 1028 : 		PMSG_REQ_VIEW_EC_MN pMsgTha;
; 1029 : 
; 1030 : 		PHeadSetB((LPBYTE)&pMsgTha, 0x01, sizeof(pMsgTha));
; 1031 : 		pMsgTha.iINDEX = lpObj->m_Index;
; 1032 : 		strcpy(pMsgTha.szUID, lpObj->AccountID);
; 1033 : 		pEventObj = lpNpc;
; 1034 : 
; 1035 : 		DataSendEventChip((char*)&pMsgTha, sizeof(pMsgTha));
; 1036 : 		
; 1037 : 		lpObj->m_IfState.type = 9;
; 1038 : 		lpObj->m_IfState.state = 0;
; 1039 : 		lpObj->m_IfState.use = 1;
; 1040 : 
; 1041 : 		return TRUE;
; 1042 : 	}
; 1043 : 
; 1044 : 	if ( lpNpc->MapNumber == 2 )
; 1045 : 	{
; 1046 : 		PMSG_EVENTCHIPINFO Result;
; 1047 : 
; 1048 : 		PHeadSetB((LPBYTE)&Result, 0x94, sizeof(Result));
; 1049 : 		Result.Type = 2;
; 1050 : 		
; 1051 : 		DataSend(lpObj->m_Index, (LPBYTE)&Result, Result.h.size);
; 1052 : 
; 1053 : 		lpObj->m_IfState.type = 9;
; 1054 : 		lpObj->m_IfState.state = 0;
; 1055 : 		lpObj->m_IfState.use = 1;
; 1056 : 
; 1057 : 		return TRUE;
; 1058 : 	}
; 1059 : 
; 1060 : 	return FALSE;
; 1061 : 	*/
; 1062 : }

  00018	5d		 pop	 ebp
  00019	c3		 ret	 0
?NpcEventChipNPC@@YAHPAUOBJECTSTRUCT@@0@Z ENDP		; NpcEventChipNPC
_TEXT	ENDS
PUBLIC	?NpcRorensiaSmith@@YAHPAUOBJECTSTRUCT@@0@Z	; NpcRorensiaSmith
; Function compile flags: /Ogtp
;	COMDAT ?NpcRorensiaSmith@@YAHPAUOBJECTSTRUCT@@0@Z
_TEXT	SEGMENT
_lpNpc$ = 8						; size = 4
_lpObj$ = 12						; size = 4
?NpcRorensiaSmith@@YAHPAUOBJECTSTRUCT@@0@Z PROC		; NpcRorensiaSmith, COMDAT

; 1066 : 	return FALSE;

  00000	33 c0		 xor	 eax, eax

; 1067 : }

  00002	c3		 ret	 0
?NpcRorensiaSmith@@YAHPAUOBJECTSTRUCT@@0@Z ENDP		; NpcRorensiaSmith
_TEXT	ENDS
PUBLIC	?NpcNoriJangIn@@YAHPAUOBJECTSTRUCT@@0@Z		; NpcNoriJangIn
; Function compile flags: /Ogtp
;	COMDAT ?NpcNoriJangIn@@YAHPAUOBJECTSTRUCT@@0@Z
_TEXT	SEGMENT
_lpNpc$ = 8						; size = 4
_lpObj$ = 12						; size = 4
?NpcNoriJangIn@@YAHPAUOBJECTSTRUCT@@0@Z PROC		; NpcNoriJangIn, COMDAT

; 1071 : 	return FALSE;

  00000	33 c0		 xor	 eax, eax

; 1072 : }

  00002	c3		 ret	 0
?NpcNoriJangIn@@YAHPAUOBJECTSTRUCT@@0@Z ENDP		; NpcNoriJangIn
_TEXT	ENDS
PUBLIC	?NpcQuestCheck@@YAHPAUOBJECTSTRUCT@@0@Z		; NpcQuestCheck
EXTRN	?NpcTalk@CQuestInfo@@QAEHPAUOBJECTSTRUCT@@0@Z:PROC ; CQuestInfo::NpcTalk
EXTRN	?g_QuestInfo@@3VCQuestInfo@@A:BYTE		; g_QuestInfo
; Function compile flags: /Ogtp
;	COMDAT ?NpcQuestCheck@@YAHPAUOBJECTSTRUCT@@0@Z
_TEXT	SEGMENT
_lpNpc$ = 8						; size = 4
_lpObj$ = 12						; size = 4
?NpcQuestCheck@@YAHPAUOBJECTSTRUCT@@0@Z PROC		; NpcQuestCheck, COMDAT

; 1075 : {

  00000	55		 push	 ebp
  00001	8b ec		 mov	 ebp, esp

; 1076 : 	if ( g_QuestInfo.NpcTalk(lpNpc, lpObj) != FALSE )

  00003	8b 45 0c	 mov	 eax, DWORD PTR _lpObj$[ebp]
  00006	8b 4d 08	 mov	 ecx, DWORD PTR _lpNpc$[ebp]
  00009	50		 push	 eax
  0000a	51		 push	 ecx
  0000b	b9 00 00 00 00	 mov	 ecx, OFFSET ?g_QuestInfo@@3VCQuestInfo@@A ; g_QuestInfo
  00010	e8 00 00 00 00	 call	 ?NpcTalk@CQuestInfo@@QAEHPAUOBJECTSTRUCT@@0@Z ; CQuestInfo::NpcTalk
  00015	f7 d8		 neg	 eax
  00017	1b c0		 sbb	 eax, eax
  00019	f7 d8		 neg	 eax

; 1077 : 	{
; 1078 : 		return TRUE;
; 1079 : 	}
; 1080 : 
; 1081 : 	return FALSE;
; 1082 : }

  0001b	5d		 pop	 ebp
  0001c	c3		 ret	 0
?NpcQuestCheck@@YAHPAUOBJECTSTRUCT@@0@Z ENDP		; NpcQuestCheck
_TEXT	ENDS
PUBLIC	?NpcServerDivision@@YAHPAUOBJECTSTRUCT@@0@Z	; NpcServerDivision
EXTRN	?gEnableServerDivision@@3HA:DWORD		; gEnableServerDivision
; Function compile flags: /Ogtp
;	COMDAT ?NpcServerDivision@@YAHPAUOBJECTSTRUCT@@0@Z
_TEXT	SEGMENT
_lpNpc$ = 8						; size = 4
_lpObj$ = 12						; size = 4
?NpcServerDivision@@YAHPAUOBJECTSTRUCT@@0@Z PROC	; NpcServerDivision, COMDAT

; 1085 : {

  00000	55		 push	 ebp
  00001	8b ec		 mov	 ebp, esp

; 1086 : 	if ( gEnableServerDivision == FALSE )

  00003	83 3d 00 00 00
	00 00		 cmp	 DWORD PTR ?gEnableServerDivision@@3HA, 0 ; gEnableServerDivision

; 1087 : 	{
; 1088 : 		return TRUE;

  0000a	74 1d		 je	 SHORT $LN5@NpcServerD

; 1089 : 	}
; 1090 : 
; 1091 : 	if ( lpObj->lpGuild != NULL )

  0000c	8b 45 0c	 mov	 eax, DWORD PTR _lpObj$[ebp]
  0000f	83 b8 38 04 00
	00 00		 cmp	 DWORD PTR [eax+1080], 0
  00016	74 18		 je	 SHORT $LN1@NpcServerD

; 1092 : 	{
; 1093 : 		GCServerCmd(lpObj->m_Index, 6, 0, 0);

  00018	8b 00		 mov	 eax, DWORD PTR [eax]
  0001a	6a 00		 push	 0
  0001c	6a 00		 push	 0
  0001e	6a 06		 push	 6
  00020	50		 push	 eax
  00021	e8 00 00 00 00	 call	 ?GCServerCmd@@YAXHEEE@Z	; GCServerCmd
  00026	83 c4 10	 add	 esp, 16			; 00000010H
$LN5@NpcServerD:

; 1094 : 		return TRUE;

  00029	b8 01 00 00 00	 mov	 eax, 1

; 1102 : }

  0002e	5d		 pop	 ebp
  0002f	c3		 ret	 0
$LN1@NpcServerD:

; 1095 : 	}
; 1096 : 
; 1097 : 	lpObj->m_IfState.type = 11;
; 1098 : 	lpObj->m_IfState.state = 0;
; 1099 : 	lpObj->m_IfState.use = 1;

  00030	8b 88 1c 0e 00
	00		 mov	 ecx, DWORD PTR [eax+3612]
  00036	81 e1 c1 02 ff
	ff		 and	 ecx, -64831		; ffff02c1H
  0003c	81 c9 c1 02 00
	00		 or	 ecx, 705		; 000002c1H
  00042	89 88 1c 0e 00
	00		 mov	 DWORD PTR [eax+3612], ecx

; 1100 : 
; 1101 : 	return FALSE;

  00048	33 c0		 xor	 eax, eax

; 1102 : }

  0004a	5d		 pop	 ebp
  0004b	c3		 ret	 0
?NpcServerDivision@@YAHPAUOBJECTSTRUCT@@0@Z ENDP	; NpcServerDivision
_TEXT	ENDS
PUBLIC	?NpcRoadMerchant@@YAHPAUOBJECTSTRUCT@@0@Z	; NpcRoadMerchant
; Function compile flags: /Ogtp
;	COMDAT ?NpcRoadMerchant@@YAHPAUOBJECTSTRUCT@@0@Z
_TEXT	SEGMENT
_lpNpc$ = 8						; size = 4
_lpObj$ = 12						; size = 4
?NpcRoadMerchant@@YAHPAUOBJECTSTRUCT@@0@Z PROC		; NpcRoadMerchant, COMDAT

; 1106 : 	return FALSE;

  00000	33 c0		 xor	 eax, eax

; 1107 : }

  00002	c3		 ret	 0
?NpcRoadMerchant@@YAHPAUOBJECTSTRUCT@@0@Z ENDP		; NpcRoadMerchant
_TEXT	ENDS
PUBLIC	??_C@_0EC@IJDIINJB@?$FLBlood?5Castle?$FN?5?$CI?$CFd?$CJ?5?$CIAccount?3?$CFs?0@ ; `string'
PUBLIC	??_C@_0FO@BJDLMIAN@?$FLBlood?5Castle?$FN?5?$CI?$CFd?$CJ?5?$CIAccount?3?$CFs?0@ ; `string'
PUBLIC	??_C@_0EF@JFCICCDP@?$FLBlood?5Castle?$FN?5?$CI?$CFd?$CJ?5?$CIAccount?3?$CFs?0@ ; `string'
PUBLIC	??_C@_0EM@MPNDNNH@?$FLBlood?5Castle?$FN?5?$CI?$CFd?$CJ?5Blood?5Castle@ ; `string'
PUBLIC	??_C@_0FH@ONKNIFFP@?$FLBlood?5Castle?$FN?5?$CI?$CFd?$CJ?5Blood?5Castle@ ; `string'
PUBLIC	??_C@_0FG@CNLFICGI@?$FLBlood?5Castle?$FN?5?$CI?$CFd?$CJ?5Blood?5Castle@ ; `string'
PUBLIC	??_C@_0DA@BCJAGFAG@?$FLBlood?5Castle?$FN?5?$CI?$CFd?$CJ?5?$FL?$CFs?$FN?$FL?$CFs?$FN?5Tal@ ; `string'
PUBLIC	?NpcAngelKing@@YAHPAUOBJECTSTRUCT@@0@Z		; NpcAngelKing
EXTRN	?CheckUserWinnerParty@CBloodCastle@@QAE_NHH@Z:PROC ; CBloodCastle::CheckUserWinnerParty
EXTRN	?SearchUserDeleteQuestItem@CBloodCastle@@QAEXH@Z:PROC ; CBloodCastle::SearchUserDeleteQuestItem
EXTRN	?GetBridgeIndex@CBloodCastle@@QAEHH@Z:PROC	; CBloodCastle::GetBridgeIndex
EXTRN	?CheckPartyExist@CBloodCastle@@QAE_NH@Z:PROC	; CBloodCastle::CheckPartyExist
EXTRN	?SetBridgeWinner@CBloodCastle@@QAE_NHH@Z:PROC	; CBloodCastle::SetBridgeWinner
EXTRN	?SetUserState@CBloodCastle@@QAEXHH@Z:PROC	; CBloodCastle::SetUserState
EXTRN	?CheckUserBridgeMember@CBloodCastle@@QAE_NHH@Z:PROC ; CBloodCastle::CheckUserBridgeMember
EXTRN	?CheckQuestItem@CBloodCastle@@QAEHH@Z:PROC	; CBloodCastle::CheckQuestItem
EXTRN	?CheckPlayStart@CBloodCastle@@QAE_NH@Z:PROC	; CBloodCastle::CheckPlayStart
EXTRN	?GetCurrentState@CBloodCastle@@QAEHH@Z:PROC	; CBloodCastle::GetCurrentState
EXTRN	?g_BloodCastle@@3VCBloodCastle@@A:BYTE		; g_BloodCastle
;	COMDAT ??_C@_0EC@IJDIINJB@?$FLBlood?5Castle?$FN?5?$CI?$CFd?$CJ?5?$CIAccount?3?$CFs?0@
CONST	SEGMENT
??_C@_0EC@IJDIINJB@?$FLBlood?5Castle?$FN?5?$CI?$CFd?$CJ?5?$CIAccount?3?$CFs?0@ DB '['
	DB	'Blood Castle] (%d) (Account:%s, Name:%s) Winner Already Exist'
	DB	' !!', 00H					; `string'
CONST	ENDS
;	COMDAT ??_C@_0FO@BJDLMIAN@?$FLBlood?5Castle?$FN?5?$CI?$CFd?$CJ?5?$CIAccount?3?$CFs?0@
CONST	SEGMENT
??_C@_0FO@BJDLMIAN@?$FLBlood?5Castle?$FN?5?$CI?$CFd?$CJ?5?$CIAccount?3?$CFs?0@ DB '['
	DB	'Blood Castle] (%d) (Account:%s, Name:%s) Succeed Blood Castle'
	DB	' Quest - More Party to register', 00H	; `string'
CONST	ENDS
;	COMDAT ??_C@_0EF@JFCICCDP@?$FLBlood?5Castle?$FN?5?$CI?$CFd?$CJ?5?$CIAccount?3?$CFs?0@
CONST	SEGMENT
??_C@_0EF@JFCICCDP@?$FLBlood?5Castle?$FN?5?$CI?$CFd?$CJ?5?$CIAccount?3?$CFs?0@ DB '['
	DB	'Blood Castle] (%d) (Account:%s, Name:%s) Succeed Blood Castle'
	DB	' Quest', 00H				; `string'
CONST	ENDS
;	COMDAT ??_C@_0EM@MPNDNNH@?$FLBlood?5Castle?$FN?5?$CI?$CFd?$CJ?5Blood?5Castle@
CONST	SEGMENT
??_C@_0EM@MPNDNNH@?$FLBlood?5Castle?$FN?5?$CI?$CFd?$CJ?5Blood?5Castle@ DB '['
	DB	'Blood Castle] (%d) Blood Castle Quest Succeed Result -> Win Q'
	DB	'uest [%s][%s]', 00H				; `string'
CONST	ENDS
;	COMDAT ??_C@_0FH@ONKNIFFP@?$FLBlood?5Castle?$FN?5?$CI?$CFd?$CJ?5Blood?5Castle@
CONST	SEGMENT
??_C@_0FH@ONKNIFFP@?$FLBlood?5Castle?$FN?5?$CI?$CFd?$CJ?5Blood?5Castle@ DB '['
	DB	'Blood Castle] (%d) Blood Castle Quest Succeed Result -> Destr'
	DB	'oy Saint Status [%s][%s]', 00H		; `string'
CONST	ENDS
;	COMDAT ??_C@_0FG@CNLFICGI@?$FLBlood?5Castle?$FN?5?$CI?$CFd?$CJ?5Blood?5Castle@
CONST	SEGMENT
??_C@_0FG@CNLFICGI@?$FLBlood?5Castle?$FN?5?$CI?$CFd?$CJ?5Blood?5Castle@ DB '['
	DB	'Blood Castle] (%d) Blood Castle Quest Succeed Result -> Destr'
	DB	'oy Castle Door [%s][%s]', 00H		; `string'
CONST	ENDS
;	COMDAT ??_C@_0DA@BCJAGFAG@?$FLBlood?5Castle?$FN?5?$CI?$CFd?$CJ?5?$FL?$CFs?$FN?$FL?$CFs?$FN?5Tal@
CONST	SEGMENT
??_C@_0DA@BCJAGFAG@?$FLBlood?5Castle?$FN?5?$CI?$CFd?$CJ?5?$FL?$CFs?$FN?$FL?$CFs?$FN?5Tal@ DB '['
	DB	'Blood Castle] (%d) [%s][%s] Talk to Angel King', 00H ; `string'
; Function compile flags: /Ogtp
CONST	ENDS
;	COMDAT ?NpcAngelKing@@YAHPAUOBJECTSTRUCT@@0@Z
_TEXT	SEGMENT
_lpNpc$ = 8						; size = 4
_lpObj$ = 12						; size = 4
?NpcAngelKing@@YAHPAUOBJECTSTRUCT@@0@Z PROC		; NpcAngelKing, COMDAT

; 1110 : {

  00000	55		 push	 ebp
  00001	8b ec		 mov	 ebp, esp
  00003	56		 push	 esi

; 1111 : 	BOOL iITEM_LEVEL = 0; //loc1
; 1112 : 
; 1113 : 	if ( CHECK_LIMIT(lpObj->m_cBloodCastleIndex, MAX_BLOOD_CASTLE_LEVEL) == FALSE )

  00004	8b 75 0c	 mov	 esi, DWORD PTR _lpObj$[ebp]
  00007	8a 86 9e 0e 00
	00		 mov	 al, BYTE PTR [esi+3742]
  0000d	84 c0		 test	 al, al
  0000f	78 0b		 js	 SHORT $LN24@NpcAngelKi
  00011	33 c9		 xor	 ecx, ecx
  00013	3c 07		 cmp	 al, 7
  00015	0f 9e c1	 setle	 cl
  00018	85 c9		 test	 ecx, ecx
  0001a	75 16		 jne	 SHORT $LN16@NpcAngelKi
$LN24@NpcAngelKi:

; 1114 : 	{
; 1115 : 		GCServerCmd(lpObj->m_Index, 1, 0x18, 0);

  0001c	8b 06		 mov	 eax, DWORD PTR [esi]
  0001e	6a 00		 push	 0
  00020	6a 18		 push	 24			; 00000018H
  00022	6a 01		 push	 1
  00024	50		 push	 eax
  00025	e8 00 00 00 00	 call	 ?GCServerCmd@@YAXHEEE@Z	; GCServerCmd
  0002a	83 c4 10	 add	 esp, 16			; 00000010H

; 1130 : 		return FALSE;

  0002d	33 c0		 xor	 eax, eax
  0002f	5e		 pop	 esi

; 1225 : 	}
; 1226 : 	
; 1227 : 	return FALSE;
; 1228 : }

  00030	5d		 pop	 ebp
  00031	c3		 ret	 0
$LN16@NpcAngelKi:
  00032	53		 push	 ebx
  00033	57		 push	 edi

; 1116 : 		return FALSE;
; 1117 : 	}
; 1118 : 
; 1119 : 	LogAddTD("[Blood Castle] (%d) [%s][%s] Talk to Angel King",	lpObj->m_cBloodCastleIndex+1, lpObj->AccountID, lpObj->Name);

  00034	0f be c8	 movsx	 ecx, al
  00037	8d 7e 77	 lea	 edi, DWORD PTR [esi+119]
  0003a	57		 push	 edi
  0003b	8d 5e 6c	 lea	 ebx, DWORD PTR [esi+108]
  0003e	53		 push	 ebx
  0003f	41		 inc	 ecx
  00040	51		 push	 ecx
  00041	68 00 00 00 00	 push	 OFFSET ??_C@_0DA@BCJAGFAG@?$FLBlood?5Castle?$FN?5?$CI?$CFd?$CJ?5?$FL?$CFs?$FN?$FL?$CFs?$FN?5Tal@
  00046	ff 15 00 00 00
	00		 call	 DWORD PTR ?LogAddTD@@3P6AXPADZZA ; LogAddTD

; 1120 : 
; 1121 : 	if ( g_BloodCastle.m_BridgeData[lpObj->m_cBloodCastleIndex].m_bBC_REWARDED != false )

  0004c	0f be 86 9e 0e
	00 00		 movsx	 eax, BYTE PTR [esi+3742]
  00053	8b d0		 mov	 edx, eax
  00055	69 d2 60 04 00
	00		 imul	 edx, 1120		; 00000460H
  0005b	83 c4 10	 add	 esp, 16			; 00000010H
  0005e	80 ba be 03 00
	00 00		 cmp	 BYTE PTR ?g_BloodCastle@@3VCBloodCastle@@A[edx+958], 0
  00065	74 18		 je	 SHORT $LN15@NpcAngelKi

; 1122 : 	{
; 1123 : 		GCServerCmd(lpObj->m_Index, 1, 0x2E, 0);

  00067	8b 06		 mov	 eax, DWORD PTR [esi]
  00069	6a 00		 push	 0
  0006b	6a 2e		 push	 46			; 0000002eH
  0006d	6a 01		 push	 1
  0006f	50		 push	 eax

; 1128 : 	{
; 1129 : 		GCServerCmd(lpObj->m_Index, 1, 0x18, 0);

  00070	e8 00 00 00 00	 call	 ?GCServerCmd@@YAXHEEE@Z	; GCServerCmd
  00075	83 c4 10	 add	 esp, 16			; 00000010H
  00078	5f		 pop	 edi
  00079	5b		 pop	 ebx

; 1130 : 		return FALSE;

  0007a	33 c0		 xor	 eax, eax
  0007c	5e		 pop	 esi

; 1225 : 	}
; 1226 : 	
; 1227 : 	return FALSE;
; 1228 : }

  0007d	5d		 pop	 ebp
  0007e	c3		 ret	 0
$LN15@NpcAngelKi:

; 1124 : 		return FALSE;
; 1125 : 	}
; 1126 : 
; 1127 : 	if ( g_BloodCastle.GetCurrentState(lpObj->m_cBloodCastleIndex) != 2 || g_BloodCastle.CheckPlayStart(lpObj->m_cBloodCastleIndex) == false)

  0007f	50		 push	 eax
  00080	b9 00 00 00 00	 mov	 ecx, OFFSET ?g_BloodCastle@@3VCBloodCastle@@A ; g_BloodCastle
  00085	e8 00 00 00 00	 call	 ?GetCurrentState@CBloodCastle@@QAEHH@Z ; CBloodCastle::GetCurrentState
  0008a	83 f8 02	 cmp	 eax, 2
  0008d	0f 85 71 03 00
	00		 jne	 $LN13@NpcAngelKi
  00093	0f be 8e 9e 0e
	00 00		 movsx	 ecx, BYTE PTR [esi+3742]
  0009a	51		 push	 ecx
  0009b	b9 00 00 00 00	 mov	 ecx, OFFSET ?g_BloodCastle@@3VCBloodCastle@@A ; g_BloodCastle
  000a0	e8 00 00 00 00	 call	 ?CheckPlayStart@CBloodCastle@@QAE_NH@Z ; CBloodCastle::CheckPlayStart
  000a5	84 c0		 test	 al, al
  000a7	0f 84 57 03 00
	00		 je	 $LN13@NpcAngelKi

; 1131 : 	}
; 1132 : 
; 1133 : 	if ( lpObj->m_bBloodCastleComplete == true)

  000ad	80 be a4 0e 00
	00 01		 cmp	 BYTE PTR [esi+3748], 1
  000b4	75 18		 jne	 SHORT $LN12@NpcAngelKi

; 1134 : 	{
; 1135 : 		GCServerCmd(lpObj->m_Index, 1, 0x2E, 0);

  000b6	8b 16		 mov	 edx, DWORD PTR [esi]
  000b8	6a 00		 push	 0
  000ba	6a 2e		 push	 46			; 0000002eH
  000bc	6a 01		 push	 1
  000be	52		 push	 edx
  000bf	e8 00 00 00 00	 call	 ?GCServerCmd@@YAXHEEE@Z	; GCServerCmd
  000c4	83 c4 10	 add	 esp, 16			; 00000010H
  000c7	5f		 pop	 edi
  000c8	5b		 pop	 ebx
  000c9	33 c0		 xor	 eax, eax
  000cb	5e		 pop	 esi

; 1225 : 	}
; 1226 : 	
; 1227 : 	return FALSE;
; 1228 : }

  000cc	5d		 pop	 ebp
  000cd	c3		 ret	 0
$LN12@NpcAngelKi:

; 1136 : 		return FALSE;
; 1137 : 	}
; 1138 : 
; 1139 : 	if( (iITEM_LEVEL = g_BloodCastle.CheckQuestItem(lpObj->m_Index)<0?0:iITEM_LEVEL = g_BloodCastle.CheckQuestItem(lpObj->m_Index)>2?0:1) ) //perfect

  000ce	8b 06		 mov	 eax, DWORD PTR [esi]
  000d0	50		 push	 eax
  000d1	b9 00 00 00 00	 mov	 ecx, OFFSET ?g_BloodCastle@@3VCBloodCastle@@A ; g_BloodCastle
  000d6	e8 00 00 00 00	 call	 ?CheckQuestItem@CBloodCastle@@QAEHH@Z ; CBloodCastle::CheckQuestItem
  000db	85 c0		 test	 eax, eax
  000dd	0f 88 60 02 00
	00		 js	 $LN11@NpcAngelKi
  000e3	8b 0e		 mov	 ecx, DWORD PTR [esi]
  000e5	51		 push	 ecx
  000e6	b9 00 00 00 00	 mov	 ecx, OFFSET ?g_BloodCastle@@3VCBloodCastle@@A ; g_BloodCastle
  000eb	e8 00 00 00 00	 call	 ?CheckQuestItem@CBloodCastle@@QAEHH@Z ; CBloodCastle::CheckQuestItem
  000f0	33 d2		 xor	 edx, edx
  000f2	83 f8 02	 cmp	 eax, 2
  000f5	0f 9e c2	 setle	 dl
  000f8	8b c2		 mov	 eax, edx
  000fa	85 c0		 test	 eax, eax
  000fc	0f 84 41 02 00
	00		 je	 $LN11@NpcAngelKi

; 1140 : 	{
; 1141 : 		if ( lpNpc->m_cBloodCastleIndex != lpObj->m_cBloodCastleIndex )

  00102	8a 86 9e 0e 00
	00		 mov	 al, BYTE PTR [esi+3742]
  00108	8b 4d 08	 mov	 ecx, DWORD PTR _lpNpc$[ebp]
  0010b	38 81 9e 0e 00
	00		 cmp	 BYTE PTR [ecx+3742], al

; 1142 : 		{
; 1143 : 			GCServerCmd(lpObj->m_Index, 1, 0x18, 0);
; 1144 : 			return FALSE;

  00111	0f 85 ed 02 00
	00		 jne	 $LN13@NpcAngelKi

; 1145 : 		}
; 1146 : 
; 1147 : 		if ( g_BloodCastle.CheckUserBridgeMember(lpObj->m_cBloodCastleIndex, lpObj->m_Index) == false )

  00117	8b 0e		 mov	 ecx, DWORD PTR [esi]
  00119	0f be d0	 movsx	 edx, al
  0011c	51		 push	 ecx
  0011d	52		 push	 edx
  0011e	b9 00 00 00 00	 mov	 ecx, OFFSET ?g_BloodCastle@@3VCBloodCastle@@A ; g_BloodCastle
  00123	e8 00 00 00 00	 call	 ?CheckUserBridgeMember@CBloodCastle@@QAE_NHH@Z ; CBloodCastle::CheckUserBridgeMember
  00128	84 c0		 test	 al, al
  0012a	75 18		 jne	 SHORT $LN9@NpcAngelKi

; 1148 : 		{
; 1149 : 			GCServerCmd(lpObj->m_Index, 1, 0x18, 0);

  0012c	8b 06		 mov	 eax, DWORD PTR [esi]
  0012e	6a 00		 push	 0
  00130	6a 18		 push	 24			; 00000018H
  00132	6a 01		 push	 1
  00134	50		 push	 eax
  00135	e8 00 00 00 00	 call	 ?GCServerCmd@@YAXHEEE@Z	; GCServerCmd
  0013a	83 c4 10	 add	 esp, 16			; 00000010H
  0013d	5f		 pop	 edi
  0013e	5b		 pop	 ebx
  0013f	33 c0		 xor	 eax, eax
  00141	5e		 pop	 esi

; 1225 : 	}
; 1226 : 	
; 1227 : 	return FALSE;
; 1228 : }

  00142	5d		 pop	 ebp
  00143	c3		 ret	 0
$LN9@NpcAngelKi:

; 1150 : 			return FALSE;
; 1151 : 		}
; 1152 : 
; 1153 : 		g_BloodCastle.SetUserState(lpObj->m_Index, 2);

  00144	8b 0e		 mov	 ecx, DWORD PTR [esi]
  00146	6a 02		 push	 2
  00148	51		 push	 ecx
  00149	b9 00 00 00 00	 mov	 ecx, OFFSET ?g_BloodCastle@@3VCBloodCastle@@A ; g_BloodCastle
  0014e	e8 00 00 00 00	 call	 ?SetUserState@CBloodCastle@@QAEXHH@Z ; CBloodCastle::SetUserState

; 1154 : 		
; 1155 : 		g_BloodCastle.m_BridgeData[lpObj->m_cBloodCastleIndex].m_iExtraEXP_Win_Quest_Party = lpObj->PartyNumber;

  00153	0f be 96 9e 0e
	00 00		 movsx	 edx, BYTE PTR [esi+3742]
  0015a	8b 86 2c 04 00
	00		 mov	 eax, DWORD PTR [esi+1068]
  00160	69 d2 60 04 00
	00		 imul	 edx, 1120		; 00000460H
  00166	89 82 38 04 00
	00		 mov	 DWORD PTR ?g_BloodCastle@@3VCBloodCastle@@A[edx+1080], eax

; 1156 : 		g_BloodCastle.m_BridgeData[lpObj->m_cBloodCastleIndex].m_iExtraEXP_Win_Quest_Index = lpObj->m_Index;

  0016c	0f be 8e 9e 0e
	00 00		 movsx	 ecx, BYTE PTR [esi+3742]
  00173	8b 16		 mov	 edx, DWORD PTR [esi]
  00175	69 c9 60 04 00
	00		 imul	 ecx, 1120		; 00000460H
  0017b	89 91 3c 04 00
	00		 mov	 DWORD PTR ?g_BloodCastle@@3VCBloodCastle@@A[ecx+1084], edx

; 1157 : 		
; 1158 : 		memcpy(g_BloodCastle.m_BridgeData[lpObj->m_cBloodCastleIndex].m_szWin_Quest_CharName, lpObj->Name, 10);

  00181	0f be 86 9e 0e
	00 00		 movsx	 eax, BYTE PTR [esi+3742]
  00188	8b 0f		 mov	 ecx, DWORD PTR [edi]
  0018a	69 c0 60 04 00
	00		 imul	 eax, 1120		; 00000460H
  00190	05 40 04 00 00	 add	 eax, OFFSET ?g_BloodCastle@@3VCBloodCastle@@A+1088
  00195	89 08		 mov	 DWORD PTR [eax], ecx
  00197	8b 57 04	 mov	 edx, DWORD PTR [edi+4]
  0019a	89 50 04	 mov	 DWORD PTR [eax+4], edx
  0019d	66 8b 4f 08	 mov	 cx, WORD PTR [edi+8]
  001a1	66 89 48 08	 mov	 WORD PTR [eax+8], cx

; 1159 : 		memcpy(g_BloodCastle.m_BridgeData[lpObj->m_cBloodCastleIndex].m_szWin_Quest_AccountID, lpObj->AccountID, 10);

  001a5	0f be 86 9e 0e
	00 00		 movsx	 eax, BYTE PTR [esi+3742]
  001ac	8b 13		 mov	 edx, DWORD PTR [ebx]
  001ae	69 c0 60 04 00
	00		 imul	 eax, 1120		; 00000460H
  001b4	05 4b 04 00 00	 add	 eax, OFFSET ?g_BloodCastle@@3VCBloodCastle@@A+1099
  001b9	89 10		 mov	 DWORD PTR [eax], edx
  001bb	8b 4b 04	 mov	 ecx, DWORD PTR [ebx+4]
  001be	89 48 04	 mov	 DWORD PTR [eax+4], ecx
  001c1	66 8b 53 08	 mov	 dx, WORD PTR [ebx+8]
  001c5	66 89 50 08	 mov	 WORD PTR [eax+8], dx

; 1160 : 		
; 1161 : 		g_BloodCastle.m_BridgeData[lpObj->m_cBloodCastleIndex].m_szWin_Quest_CharName[10] = 0;

  001c9	0f be 86 9e 0e
	00 00		 movsx	 eax, BYTE PTR [esi+3742]
  001d0	69 c0 60 04 00
	00		 imul	 eax, 1120		; 00000460H
  001d6	c6 80 4a 04 00
	00 00		 mov	 BYTE PTR ?g_BloodCastle@@3VCBloodCastle@@A[eax+1098], 0

; 1162 : 		g_BloodCastle.m_BridgeData[lpObj->m_cBloodCastleIndex].m_szWin_Quest_AccountID[10] = 0;

  001dd	0f be 8e 9e 0e
	00 00		 movsx	 ecx, BYTE PTR [esi+3742]
  001e4	69 c9 60 04 00
	00		 imul	 ecx, 1120		; 00000460H
  001ea	c6 81 55 04 00
	00 00		 mov	 BYTE PTR ?g_BloodCastle@@3VCBloodCastle@@A[ecx+1109], 0

; 1163 : 		
; 1164 : 		LogAddTD("[Blood Castle] (%d) Blood Castle Quest Succeed Result -> Destroy Castle Door [%s][%s]", lpObj->m_cBloodCastleIndex+1, 
; 1165 : 			g_BloodCastle.m_BridgeData[lpObj->m_cBloodCastleIndex].m_szKill_Door_AccountID, 
; 1166 : 			g_BloodCastle.m_BridgeData[lpObj->m_cBloodCastleIndex].m_szKill_Door_CharName);

  001f1	0f be 8e 9e 0e
	00 00		 movsx	 ecx, BYTE PTR [esi+3742]
  001f8	8b c1		 mov	 eax, ecx
  001fa	69 c0 60 04 00
	00		 imul	 eax, 1120		; 00000460H
  00200	8d 90 0b 04 00
	00		 lea	 edx, DWORD PTR ?g_BloodCastle@@3VCBloodCastle@@A[eax+1035]
  00206	52		 push	 edx
  00207	8d 80 00 04 00
	00		 lea	 eax, DWORD PTR ?g_BloodCastle@@3VCBloodCastle@@A[eax+1024]
  0020d	50		 push	 eax
  0020e	41		 inc	 ecx
  0020f	51		 push	 ecx
  00210	68 00 00 00 00	 push	 OFFSET ??_C@_0FG@CNLFICGI@?$FLBlood?5Castle?$FN?5?$CI?$CFd?$CJ?5Blood?5Castle@
  00215	ff 15 00 00 00
	00		 call	 DWORD PTR ?LogAddTD@@3P6AXPADZZA ; LogAddTD

; 1167 : 
; 1168 : 		LogAddTD("[Blood Castle] (%d) Blood Castle Quest Succeed Result -> Destroy Saint Status [%s][%s]", lpObj->m_cBloodCastleIndex+1, 
; 1169 : 			g_BloodCastle.m_BridgeData[lpObj->m_cBloodCastleIndex].m_szKill_Door_AccountID, 
; 1170 : 			g_BloodCastle.m_BridgeData[lpObj->m_cBloodCastleIndex].m_szKill_Status_CharName);

  0021b	0f be 8e 9e 0e
	00 00		 movsx	 ecx, BYTE PTR [esi+3742]
  00222	8b c1		 mov	 eax, ecx
  00224	69 c0 60 04 00
	00		 imul	 eax, 1120		; 00000460H
  0022a	8d 90 20 04 00
	00		 lea	 edx, DWORD PTR ?g_BloodCastle@@3VCBloodCastle@@A[eax+1056]
  00230	52		 push	 edx
  00231	8d 80 00 04 00
	00		 lea	 eax, DWORD PTR ?g_BloodCastle@@3VCBloodCastle@@A[eax+1024]
  00237	50		 push	 eax
  00238	41		 inc	 ecx
  00239	51		 push	 ecx
  0023a	68 00 00 00 00	 push	 OFFSET ??_C@_0FH@ONKNIFFP@?$FLBlood?5Castle?$FN?5?$CI?$CFd?$CJ?5Blood?5Castle@
  0023f	ff 15 00 00 00
	00		 call	 DWORD PTR ?LogAddTD@@3P6AXPADZZA ; LogAddTD

; 1171 : 
; 1172 : 		LogAddTD("[Blood Castle] (%d) Blood Castle Quest Succeed Result -> Win Quest [%s][%s]", lpObj->m_cBloodCastleIndex+1, 
; 1173 : 			g_BloodCastle.m_BridgeData[lpObj->m_cBloodCastleIndex].m_szWin_Quest_AccountID, 
; 1174 : 			g_BloodCastle.m_BridgeData[lpObj->m_cBloodCastleIndex].m_szWin_Quest_CharName);

  00245	0f be 8e 9e 0e
	00 00		 movsx	 ecx, BYTE PTR [esi+3742]
  0024c	8b c1		 mov	 eax, ecx
  0024e	69 c0 60 04 00
	00		 imul	 eax, 1120		; 00000460H
  00254	8d 90 40 04 00
	00		 lea	 edx, DWORD PTR ?g_BloodCastle@@3VCBloodCastle@@A[eax+1088]
  0025a	52		 push	 edx
  0025b	8d 80 4b 04 00
	00		 lea	 eax, DWORD PTR ?g_BloodCastle@@3VCBloodCastle@@A[eax+1099]
  00261	50		 push	 eax
  00262	41		 inc	 ecx
  00263	51		 push	 ecx
  00264	68 00 00 00 00	 push	 OFFSET ??_C@_0EM@MPNDNNH@?$FLBlood?5Castle?$FN?5?$CI?$CFd?$CJ?5Blood?5Castle@
  00269	ff 15 00 00 00
	00		 call	 DWORD PTR ?LogAddTD@@3P6AXPADZZA ; LogAddTD

; 1175 : 
; 1176 : 		if ( g_BloodCastle.SetBridgeWinner(lpObj->m_cBloodCastleIndex, lpObj->m_Index) == TRUE )

  0026f	8b 0e		 mov	 ecx, DWORD PTR [esi]
  00271	0f be 96 9e 0e
	00 00		 movsx	 edx, BYTE PTR [esi+3742]
  00278	83 c4 30	 add	 esp, 48			; 00000030H
  0027b	51		 push	 ecx
  0027c	52		 push	 edx
  0027d	b9 00 00 00 00	 mov	 ecx, OFFSET ?g_BloodCastle@@3VCBloodCastle@@A ; g_BloodCastle
  00282	e8 00 00 00 00	 call	 ?SetBridgeWinner@CBloodCastle@@QAE_NHH@Z ; CBloodCastle::SetBridgeWinner

; 1177 : 		{
; 1178 : 			lpObj->m_bBloodCastleComplete = true;
; 1179 : 
; 1180 : 			if ( g_BloodCastle.CheckPartyExist(lpObj->m_Index) == FALSE )

  00287	b9 00 00 00 00	 mov	 ecx, OFFSET ?g_BloodCastle@@3VCBloodCastle@@A ; g_BloodCastle
  0028c	3c 01		 cmp	 al, 1
  0028e	0f 85 86 00 00
	00		 jne	 $LN8@NpcAngelKi
  00294	88 86 a4 0e 00
	00		 mov	 BYTE PTR [esi+3748], al
  0029a	8b 06		 mov	 eax, DWORD PTR [esi]
  0029c	50		 push	 eax
  0029d	e8 00 00 00 00	 call	 ?CheckPartyExist@CBloodCastle@@QAE_NH@Z ; CBloodCastle::CheckPartyExist

; 1181 : 			{
; 1182 : 				GCServerCmd(lpObj->m_Index, 1, 0x17, 0);

  002a2	8b 0e		 mov	 ecx, DWORD PTR [esi]
  002a4	6a 00		 push	 0
  002a6	6a 17		 push	 23			; 00000017H
  002a8	6a 01		 push	 1
  002aa	51		 push	 ecx
  002ab	84 c0		 test	 al, al
  002ad	75 28		 jne	 SHORT $LN7@NpcAngelKi
  002af	e8 00 00 00 00	 call	 ?GCServerCmd@@YAXHEEE@Z	; GCServerCmd

; 1183 : 				LogAddTD("[Blood Castle] (%d) (Account:%s, Name:%s) Succeed Blood Castle Quest", 
; 1184 : 					g_BloodCastle.GetBridgeIndex(lpNpc->MapNumber)+1, lpObj->AccountID, lpObj->Name);

  002b4	8b 55 08	 mov	 edx, DWORD PTR _lpNpc$[ebp]
  002b7	0f b6 82 49 01
	00 00		 movzx	 eax, BYTE PTR [edx+329]
  002be	83 c4 10	 add	 esp, 16			; 00000010H
  002c1	57		 push	 edi
  002c2	53		 push	 ebx
  002c3	50		 push	 eax
  002c4	b9 00 00 00 00	 mov	 ecx, OFFSET ?g_BloodCastle@@3VCBloodCastle@@A ; g_BloodCastle
  002c9	e8 00 00 00 00	 call	 ?GetBridgeIndex@CBloodCastle@@QAEHH@Z ; CBloodCastle::GetBridgeIndex
  002ce	40		 inc	 eax
  002cf	50		 push	 eax
  002d0	68 00 00 00 00	 push	 OFFSET ??_C@_0EF@JFCICCDP@?$FLBlood?5Castle?$FN?5?$CI?$CFd?$CJ?5?$CIAccount?3?$CFs?0@

; 1185 : 			}
; 1186 : 			else

  002d5	eb 26		 jmp	 SHORT $LN29@NpcAngelKi
$LN7@NpcAngelKi:

; 1187 : 			{
; 1188 : 				GCServerCmd(lpObj->m_Index, 1, 0x17, 0);

  002d7	e8 00 00 00 00	 call	 ?GCServerCmd@@YAXHEEE@Z	; GCServerCmd

; 1189 : 				LogAddTD("[Blood Castle] (%d) (Account:%s, Name:%s) Succeed Blood Castle Quest - More Party to register", 
; 1190 : 					g_BloodCastle.GetBridgeIndex(lpNpc->MapNumber)+1, lpObj->AccountID, lpObj->Name);

  002dc	8b 55 08	 mov	 edx, DWORD PTR _lpNpc$[ebp]
  002df	0f b6 82 49 01
	00 00		 movzx	 eax, BYTE PTR [edx+329]
  002e6	83 c4 10	 add	 esp, 16			; 00000010H
  002e9	57		 push	 edi
  002ea	53		 push	 ebx
  002eb	50		 push	 eax
  002ec	b9 00 00 00 00	 mov	 ecx, OFFSET ?g_BloodCastle@@3VCBloodCastle@@A ; g_BloodCastle
  002f1	e8 00 00 00 00	 call	 ?GetBridgeIndex@CBloodCastle@@QAEHH@Z ; CBloodCastle::GetBridgeIndex
  002f6	40		 inc	 eax
  002f7	50		 push	 eax
  002f8	68 00 00 00 00	 push	 OFFSET ??_C@_0FO@BJDLMIAN@?$FLBlood?5Castle?$FN?5?$CI?$CFd?$CJ?5?$CIAccount?3?$CFs?0@
$LN29@NpcAngelKi:
  002fd	ff 15 00 00 00
	00		 call	 DWORD PTR ?LogAddTD@@3P6AXPADZZA ; LogAddTD

; 1197 : 			return FALSE;
; 1198 : 		}
; 1199 : 
; 1200 : 		g_BloodCastle.SearchUserDeleteQuestItem(lpObj->m_Index);

  00303	8b 0e		 mov	 ecx, DWORD PTR [esi]
  00305	83 c4 10	 add	 esp, 16			; 00000010H
  00308	51		 push	 ecx
  00309	b9 00 00 00 00	 mov	 ecx, OFFSET ?g_BloodCastle@@3VCBloodCastle@@A ; g_BloodCastle
  0030e	e8 00 00 00 00	 call	 ?SearchUserDeleteQuestItem@CBloodCastle@@QAEXH@Z ; CBloodCastle::SearchUserDeleteQuestItem
  00313	5f		 pop	 edi
  00314	5b		 pop	 ebx
  00315	33 c0		 xor	 eax, eax
  00317	5e		 pop	 esi

; 1225 : 	}
; 1226 : 	
; 1227 : 	return FALSE;
; 1228 : }

  00318	5d		 pop	 ebp
  00319	c3		 ret	 0
$LN8@NpcAngelKi:

; 1191 : 			}
; 1192 : 		}
; 1193 : 		else
; 1194 : 		{
; 1195 : 			LogAddTD("[Blood Castle] (%d) (Account:%s, Name:%s) Winner Already Exist !!", 
; 1196 : 				g_BloodCastle.GetBridgeIndex(lpNpc->MapNumber)+1, lpObj->AccountID, lpObj->Name);

  0031a	8b 55 08	 mov	 edx, DWORD PTR _lpNpc$[ebp]
  0031d	0f b6 82 49 01
	00 00		 movzx	 eax, BYTE PTR [edx+329]
  00324	57		 push	 edi
  00325	53		 push	 ebx
  00326	50		 push	 eax
  00327	e8 00 00 00 00	 call	 ?GetBridgeIndex@CBloodCastle@@QAEHH@Z ; CBloodCastle::GetBridgeIndex
  0032c	40		 inc	 eax
  0032d	50		 push	 eax
  0032e	68 00 00 00 00	 push	 OFFSET ??_C@_0EC@IJDIINJB@?$FLBlood?5Castle?$FN?5?$CI?$CFd?$CJ?5?$CIAccount?3?$CFs?0@
  00333	ff 15 00 00 00
	00		 call	 DWORD PTR ?LogAddTD@@3P6AXPADZZA ; LogAddTD
  00339	83 c4 10	 add	 esp, 16			; 00000010H
  0033c	5f		 pop	 edi
  0033d	5b		 pop	 ebx
  0033e	33 c0		 xor	 eax, eax
  00340	5e		 pop	 esi

; 1225 : 	}
; 1226 : 	
; 1227 : 	return FALSE;
; 1228 : }

  00341	5d		 pop	 ebp
  00342	c3		 ret	 0
$LN11@NpcAngelKi:

; 1201 : 	}
; 1202 : 	else
; 1203 : 	{
; 1204 : 		if ( g_BloodCastle.CheckUserWinnerParty(lpObj->m_cBloodCastleIndex, lpObj->m_Index) == TRUE )

  00343	8b 0e		 mov	 ecx, DWORD PTR [esi]
  00345	0f be 96 9e 0e
	00 00		 movsx	 edx, BYTE PTR [esi+3742]
  0034c	51		 push	 ecx
  0034d	52		 push	 edx
  0034e	b9 00 00 00 00	 mov	 ecx, OFFSET ?g_BloodCastle@@3VCBloodCastle@@A ; g_BloodCastle
  00353	e8 00 00 00 00	 call	 ?CheckUserWinnerParty@CBloodCastle@@QAE_NHH@Z ; CBloodCastle::CheckUserWinnerParty
  00358	3c 01		 cmp	 al, 1
  0035a	0f 85 8c 00 00
	00		 jne	 $LN3@NpcAngelKi

; 1205 : 		{
; 1206 : 			lpObj->m_bBloodCastleComplete = true;

  00360	88 86 a4 0e 00
	00		 mov	 BYTE PTR [esi+3748], al

; 1207 : 
; 1208 : 			if ( g_BloodCastle.CheckPartyExist(lpObj->m_Index) == FALSE )

  00366	8b 06		 mov	 eax, DWORD PTR [esi]
  00368	50		 push	 eax
  00369	b9 00 00 00 00	 mov	 ecx, OFFSET ?g_BloodCastle@@3VCBloodCastle@@A ; g_BloodCastle
  0036e	e8 00 00 00 00	 call	 ?CheckPartyExist@CBloodCastle@@QAE_NH@Z ; CBloodCastle::CheckPartyExist

; 1209 : 			{
; 1210 : 				GCServerCmd(lpObj->m_Index, 1, 0x17, 0);

  00373	8b 0e		 mov	 ecx, DWORD PTR [esi]
  00375	6a 00		 push	 0
  00377	6a 17		 push	 23			; 00000017H
  00379	6a 01		 push	 1
  0037b	51		 push	 ecx
  0037c	84 c0		 test	 al, al
  0037e	75 36		 jne	 SHORT $LN2@NpcAngelKi
  00380	e8 00 00 00 00	 call	 ?GCServerCmd@@YAXHEEE@Z	; GCServerCmd

; 1211 : 				LogAddTD("[Blood Castle] (%d) (Account:%s, Name:%s) Succeed Blood Castle Quest", 
; 1212 : 					g_BloodCastle.GetBridgeIndex(lpNpc->MapNumber)+1, lpObj->AccountID, lpObj->Name);

  00385	8b 55 08	 mov	 edx, DWORD PTR _lpNpc$[ebp]
  00388	0f b6 82 49 01
	00 00		 movzx	 eax, BYTE PTR [edx+329]
  0038f	83 c4 10	 add	 esp, 16			; 00000010H
  00392	57		 push	 edi
  00393	53		 push	 ebx
  00394	50		 push	 eax
  00395	b9 00 00 00 00	 mov	 ecx, OFFSET ?g_BloodCastle@@3VCBloodCastle@@A ; g_BloodCastle
  0039a	e8 00 00 00 00	 call	 ?GetBridgeIndex@CBloodCastle@@QAEHH@Z ; CBloodCastle::GetBridgeIndex
  0039f	40		 inc	 eax
  003a0	50		 push	 eax
  003a1	68 00 00 00 00	 push	 OFFSET ??_C@_0EF@JFCICCDP@?$FLBlood?5Castle?$FN?5?$CI?$CFd?$CJ?5?$CIAccount?3?$CFs?0@

; 1217 : 				LogAddTD("[Blood Castle] (%d) (Account:%s, Name:%s) Succeed Blood Castle Quest - More Party to register", 
; 1218 : 					g_BloodCastle.GetBridgeIndex(lpNpc->MapNumber)+1, lpObj->AccountID, lpObj->Name);

  003a6	ff 15 00 00 00
	00		 call	 DWORD PTR ?LogAddTD@@3P6AXPADZZA ; LogAddTD
  003ac	83 c4 10	 add	 esp, 16			; 00000010H
  003af	5f		 pop	 edi
  003b0	5b		 pop	 ebx
  003b1	33 c0		 xor	 eax, eax
  003b3	5e		 pop	 esi

; 1225 : 	}
; 1226 : 	
; 1227 : 	return FALSE;
; 1228 : }

  003b4	5d		 pop	 ebp
  003b5	c3		 ret	 0
$LN2@NpcAngelKi:

; 1213 : 			}
; 1214 : 			else
; 1215 : 			{
; 1216 : 				GCServerCmd(lpObj->m_Index, 1, 0x17, 0);

  003b6	e8 00 00 00 00	 call	 ?GCServerCmd@@YAXHEEE@Z	; GCServerCmd

; 1217 : 				LogAddTD("[Blood Castle] (%d) (Account:%s, Name:%s) Succeed Blood Castle Quest - More Party to register", 
; 1218 : 					g_BloodCastle.GetBridgeIndex(lpNpc->MapNumber)+1, lpObj->AccountID, lpObj->Name);

  003bb	8b 55 08	 mov	 edx, DWORD PTR _lpNpc$[ebp]
  003be	0f b6 82 49 01
	00 00		 movzx	 eax, BYTE PTR [edx+329]
  003c5	83 c4 10	 add	 esp, 16			; 00000010H
  003c8	57		 push	 edi
  003c9	53		 push	 ebx
  003ca	50		 push	 eax
  003cb	b9 00 00 00 00	 mov	 ecx, OFFSET ?g_BloodCastle@@3VCBloodCastle@@A ; g_BloodCastle
  003d0	e8 00 00 00 00	 call	 ?GetBridgeIndex@CBloodCastle@@QAEHH@Z ; CBloodCastle::GetBridgeIndex
  003d5	40		 inc	 eax
  003d6	50		 push	 eax
  003d7	68 00 00 00 00	 push	 OFFSET ??_C@_0FO@BJDLMIAN@?$FLBlood?5Castle?$FN?5?$CI?$CFd?$CJ?5?$CIAccount?3?$CFs?0@
  003dc	ff 15 00 00 00
	00		 call	 DWORD PTR ?LogAddTD@@3P6AXPADZZA ; LogAddTD
  003e2	83 c4 10	 add	 esp, 16			; 00000010H
  003e5	5f		 pop	 edi
  003e6	5b		 pop	 ebx
  003e7	33 c0		 xor	 eax, eax
  003e9	5e		 pop	 esi

; 1225 : 	}
; 1226 : 	
; 1227 : 	return FALSE;
; 1228 : }

  003ea	5d		 pop	 ebp
  003eb	c3		 ret	 0
$LN3@NpcAngelKi:

; 1219 : 			}
; 1220 : 
; 1221 : 			return FALSE;
; 1222 : 		}
; 1223 : 
; 1224 : 		GCServerCmd(lpObj->m_Index, 1, 0x18, 0);

  003ec	8b 0e		 mov	 ecx, DWORD PTR [esi]
  003ee	6a 00		 push	 0
  003f0	6a 18		 push	 24			; 00000018H
  003f2	6a 01		 push	 1
  003f4	51		 push	 ecx
  003f5	e8 00 00 00 00	 call	 ?GCServerCmd@@YAXHEEE@Z	; GCServerCmd
  003fa	83 c4 10	 add	 esp, 16			; 00000010H
  003fd	5f		 pop	 edi
  003fe	5b		 pop	 ebx
  003ff	33 c0		 xor	 eax, eax
  00401	5e		 pop	 esi

; 1225 : 	}
; 1226 : 	
; 1227 : 	return FALSE;
; 1228 : }

  00402	5d		 pop	 ebp
  00403	c3		 ret	 0
$LN13@NpcAngelKi:

; 1128 : 	{
; 1129 : 		GCServerCmd(lpObj->m_Index, 1, 0x18, 0);

  00404	8b 16		 mov	 edx, DWORD PTR [esi]
  00406	6a 00		 push	 0
  00408	6a 18		 push	 24			; 00000018H
  0040a	6a 01		 push	 1
  0040c	52		 push	 edx
  0040d	e8 00 00 00 00	 call	 ?GCServerCmd@@YAXHEEE@Z	; GCServerCmd
  00412	83 c4 10	 add	 esp, 16			; 00000010H
  00415	5f		 pop	 edi
  00416	5b		 pop	 ebx

; 1130 : 		return FALSE;

  00417	33 c0		 xor	 eax, eax
  00419	5e		 pop	 esi

; 1225 : 	}
; 1226 : 	
; 1227 : 	return FALSE;
; 1228 : }

  0041a	5d		 pop	 ebp
  0041b	c3		 ret	 0
?NpcAngelKing@@YAHPAUOBJECTSTRUCT@@0@Z ENDP		; NpcAngelKing
_TEXT	ENDS
PUBLIC	__$ArrayPad$
PUBLIC	?NpcAngelMessanger@@YAHPAUOBJECTSTRUCT@@0@Z	; NpcAngelMessanger
EXTRN	?CheckCanEnter@CBloodCastle@@QAE_NH@Z:PROC	; CBloodCastle::CheckCanEnter
EXTRN	?CheckEnterFreeTicket@CBloodCastle@@QAE_NH@Z:PROC ; CBloodCastle::CheckEnterFreeTicket
EXTRN	?CheckEnterLevel@CBloodCastle@@QAEHHH@Z:PROC	; CBloodCastle::CheckEnterLevel
EXTRN	?CheckEnterItem@CBloodCastle@@QAEHH@Z:PROC	; CBloodCastle::CheckEnterItem
EXTRN	?gObj@@3PAUOBJECTSTRUCT@@A:DWORD		; gObj
; Function compile flags: /Ogtp
;	COMDAT ?NpcAngelMessanger@@YAHPAUOBJECTSTRUCT@@0@Z
_TEXT	SEGMENT
_pMsg$225256 = -16					; size = 11
__$ArrayPad$ = -4					; size = 4
_lpNpc$ = 8						; size = 4
_lpObj$ = 12						; size = 4
?NpcAngelMessanger@@YAHPAUOBJECTSTRUCT@@0@Z PROC	; NpcAngelMessanger, COMDAT

; 1231 : {

  00000	55		 push	 ebp
  00001	8b ec		 mov	 ebp, esp
  00003	83 ec 10	 sub	 esp, 16			; 00000010H
  00006	a1 00 00 00 00	 mov	 eax, DWORD PTR ___security_cookie
  0000b	33 c5		 xor	 eax, ebp
  0000d	89 45 fc	 mov	 DWORD PTR __$ArrayPad$[ebp], eax
  00010	53		 push	 ebx
  00011	8b 5d 0c	 mov	 ebx, DWORD PTR _lpObj$[ebp]

; 1232 : 	if ( (lpObj->m_IfState.use ) > 0 )

  00014	f6 83 1c 0e 00
	00 03		 test	 BYTE PTR [ebx+3612], 3

; 1233 : 	{
; 1234 : 		return TRUE;

  0001b	77 32		 ja	 SHORT $LN21@NpcAngelMe

; 1235 : 	}
; 1236 : 
; 1237 : 	int iIndex = lpObj->m_Index;
; 1238 : 
; 1239 : 	if(!ZtConfig.Event.BCAllowPKPlayer)

  0001d	83 3d 38 07 00
	00 00		 cmp	 DWORD PTR ?ZtConfig@@3VcZtConfigs@@A+1848, 0
  00024	8b 03		 mov	 eax, DWORD PTR [ebx]
  00026	75 3b		 jne	 SHORT $LN12@NpcAngelMe

; 1240 : 	{
; 1241 : 		if ( gObj[iIndex].m_PK_Level >= 4 )

  00028	8b 15 00 00 00
	00		 mov	 edx, DWORD PTR ?gObj@@3PAUOBJECTSTRUCT@@A ; gObj
  0002e	8b c8		 mov	 ecx, eax
  00030	69 c9 50 2b 00
	00		 imul	 ecx, 11088		; 00002b50H
  00036	80 bc 11 3d 01
	00 00 04	 cmp	 BYTE PTR [ecx+edx+317], 4
  0003e	7c 23		 jl	 SHORT $LN12@NpcAngelMe

; 1242 : 		{
; 1243 : 			GCServerCmd(iIndex, 0x38, 0, 0);

  00040	6a 00		 push	 0
  00042	6a 00		 push	 0
  00044	6a 38		 push	 56			; 00000038H
  00046	50		 push	 eax
  00047	e8 00 00 00 00	 call	 ?GCServerCmd@@YAXHEEE@Z	; GCServerCmd
  0004c	83 c4 10	 add	 esp, 16			; 00000010H
$LN21@NpcAngelMe:

; 1244 : 			return TRUE;

  0004f	b8 01 00 00 00	 mov	 eax, 1
  00054	5b		 pop	 ebx

; 1298 : }

  00055	8b 4d fc	 mov	 ecx, DWORD PTR __$ArrayPad$[ebp]
  00058	33 cd		 xor	 ecx, ebp
  0005a	e8 00 00 00 00	 call	 @__security_check_cookie@4
  0005f	8b e5		 mov	 esp, ebp
  00061	5d		 pop	 ebp
  00062	c3		 ret	 0
$LN12@NpcAngelMe:
  00063	57		 push	 edi

; 1245 : 		}
; 1246 : 	}
; 1247 : 
; 1248 : 	int iITEM_LEVEL = 0;
; 1249 : 
; 1250 : 	iITEM_LEVEL = g_BloodCastle.CheckEnterItem(lpObj->m_Index);

  00064	50		 push	 eax
  00065	b9 00 00 00 00	 mov	 ecx, OFFSET ?g_BloodCastle@@3VCBloodCastle@@A ; g_BloodCastle
  0006a	e8 00 00 00 00	 call	 ?CheckEnterItem@CBloodCastle@@QAEHH@Z ; CBloodCastle::CheckEnterItem
  0006f	8b f8		 mov	 edi, eax

; 1251 : 
; 1252 : 	if ( iITEM_LEVEL != 0 )

  00071	85 ff		 test	 edi, edi
  00073	0f 84 c4 00 00
	00		 je	 $LN11@NpcAngelMe

; 1253 : 	{
; 1254 : 		if ( iITEM_LEVEL != 10 && g_BloodCastle.CheckEnterLevel(lpObj->m_Index, iITEM_LEVEL-1) )

  00079	83 ff 0a	 cmp	 edi, 10			; 0000000aH
  0007c	74 2b		 je	 SHORT $LN19@NpcAngelMe
  0007e	8b 0b		 mov	 ecx, DWORD PTR [ebx]
  00080	8d 47 ff	 lea	 eax, DWORD PTR [edi-1]
  00083	50		 push	 eax
  00084	51		 push	 ecx
  00085	b9 00 00 00 00	 mov	 ecx, OFFSET ?g_BloodCastle@@3VCBloodCastle@@A ; g_BloodCastle
  0008a	e8 00 00 00 00	 call	 ?CheckEnterLevel@CBloodCastle@@QAEHHH@Z ; CBloodCastle::CheckEnterLevel
  0008f	85 c0		 test	 eax, eax
  00091	74 38		 je	 SHORT $LN5@NpcAngelMe

; 1255 : 		{
; 1256 : 			if ( g_BloodCastle.CheckEnterFreeTicket(lpObj->m_Index) == true )

  00093	8b 13		 mov	 edx, DWORD PTR [ebx]
  00095	52		 push	 edx
  00096	b9 00 00 00 00	 mov	 ecx, OFFSET ?g_BloodCastle@@3VCBloodCastle@@A ; g_BloodCastle
  0009b	e8 00 00 00 00	 call	 ?CheckEnterFreeTicket@CBloodCastle@@QAE_NH@Z ; CBloodCastle::CheckEnterFreeTicket
  000a0	3c 01		 cmp	 al, 1
  000a2	75 27		 jne	 SHORT $LN5@NpcAngelMe

; 1257 : 			{
; 1258 : 				iITEM_LEVEL = 10;

  000a4	bf 0a 00 00 00	 mov	 edi, 10			; 0000000aH
$LN19@NpcAngelMe:
  000a9	56		 push	 esi

; 1259 : 			}
; 1260 : 		}
; 1261 : 
; 1262 : 		if ( iITEM_LEVEL == 10 )
; 1263 : 		{
; 1264 : 			for (int i=0;i<MAX_CLOACK_LEVEL;i++)

  000aa	33 f6		 xor	 esi, esi
  000ac	8d 64 24 00	 npad	 4
$LL7@NpcAngelMe:

; 1265 : 			{
; 1266 : 				if ( g_BloodCastle.CheckEnterLevel(lpObj->m_Index, i) == FALSE )

  000b0	8b 03		 mov	 eax, DWORD PTR [ebx]
  000b2	56		 push	 esi
  000b3	50		 push	 eax
  000b4	b9 00 00 00 00	 mov	 ecx, OFFSET ?g_BloodCastle@@3VCBloodCastle@@A ; g_BloodCastle
  000b9	e8 00 00 00 00	 call	 ?CheckEnterLevel@CBloodCastle@@QAEHHH@Z ; CBloodCastle::CheckEnterLevel
  000be	85 c0		 test	 eax, eax
  000c0	75 02		 jne	 SHORT $LN6@NpcAngelMe

; 1267 : 				{
; 1268 : 					iITEM_LEVEL = i;

  000c2	8b fe		 mov	 edi, esi
$LN6@NpcAngelMe:

; 1259 : 			}
; 1260 : 		}
; 1261 : 
; 1262 : 		if ( iITEM_LEVEL == 10 )
; 1263 : 		{
; 1264 : 			for (int i=0;i<MAX_CLOACK_LEVEL;i++)

  000c4	46		 inc	 esi
  000c5	83 fe 09	 cmp	 esi, 9
  000c8	7c e6		 jl	 SHORT $LL7@NpcAngelMe
  000ca	5e		 pop	 esi
$LN5@NpcAngelMe:

; 1269 : 				}
; 1270 : 			}
; 1271 : 		}
; 1272 : 
; 1273 : 		if ( g_BloodCastle.GetCurrentState(iITEM_LEVEL-1) == BC_STATE_CLOSED && g_BloodCastle.CheckCanEnter(iITEM_LEVEL-1) != false )

  000cb	4f		 dec	 edi
  000cc	57		 push	 edi
  000cd	b9 00 00 00 00	 mov	 ecx, OFFSET ?g_BloodCastle@@3VCBloodCastle@@A ; g_BloodCastle
  000d2	e8 00 00 00 00	 call	 ?GetCurrentState@CBloodCastle@@QAEHH@Z ; CBloodCastle::GetCurrentState
  000d7	83 f8 01	 cmp	 eax, 1
  000da	75 56		 jne	 SHORT $LN3@NpcAngelMe
  000dc	57		 push	 edi
  000dd	b9 00 00 00 00	 mov	 ecx, OFFSET ?g_BloodCastle@@3VCBloodCastle@@A ; g_BloodCastle
  000e2	e8 00 00 00 00	 call	 ?CheckCanEnter@CBloodCastle@@QAE_NH@Z ; CBloodCastle::CheckCanEnter
  000e7	84 c0		 test	 al, al
  000e9	74 47		 je	 SHORT $LN3@NpcAngelMe

; 1274 : 		{
; 1275 : 			PMSG_TALKRESULT pMsg;
; 1276 : 
; 1277 : 			pMsg.h.c = 0xC3;
; 1278 : 			pMsg.h.headcode = 0x30;
; 1279 : 			pMsg.h.size = sizeof(pMsg);
; 1280 : 			pMsg.result = 0x06;
; 1281 : 
; 1282 : 			DataSend(lpObj->m_Index, (LPBYTE)&pMsg, pMsg.h.size);

  000eb	8b 13		 mov	 edx, DWORD PTR [ebx]
  000ed	6a 0b		 push	 11			; 0000000bH
  000ef	8d 4d f0	 lea	 ecx, DWORD PTR _pMsg$225256[ebp]
  000f2	51		 push	 ecx
  000f3	52		 push	 edx
  000f4	c6 45 f0 c3	 mov	 BYTE PTR _pMsg$225256[ebp], 195 ; 000000c3H
  000f8	66 c7 45 f1 0b
	30		 mov	 WORD PTR _pMsg$225256[ebp+1], 12299 ; 0000300bH
  000fe	c6 45 f3 06	 mov	 BYTE PTR _pMsg$225256[ebp+3], 6
  00102	e8 00 00 00 00	 call	 ?DataSend@@YAHHPAEK@Z	; DataSend

; 1283 : 
; 1284 : 			lpObj->m_IfState.use = 1;
; 1285 : 			lpObj->m_IfState.type = 12;

  00107	8b 83 1c 0e 00
	00		 mov	 eax, DWORD PTR [ebx+3612]
  0010d	83 c4 0c	 add	 esp, 12			; 0000000cH
  00110	25 3d 03 ff ff	 and	 eax, -64707		; ffff033dH
  00115	0d 01 03 00 00	 or	 eax, 769		; 00000301H
  0011a	89 83 1c 0e 00
	00		 mov	 DWORD PTR [ebx+3612], eax
  00120	5f		 pop	 edi

; 1295 : 	}
; 1296 : 
; 1297 : 	return FALSE;

  00121	33 c0		 xor	 eax, eax
  00123	5b		 pop	 ebx

; 1298 : }

  00124	8b 4d fc	 mov	 ecx, DWORD PTR __$ArrayPad$[ebp]
  00127	33 cd		 xor	 ecx, ebp
  00129	e8 00 00 00 00	 call	 @__security_check_cookie@4
  0012e	8b e5		 mov	 esp, ebp
  00130	5d		 pop	 ebp
  00131	c3		 ret	 0
$LN3@NpcAngelMe:

; 1286 : 		}
; 1287 : 		else
; 1288 : 		{
; 1289 : 			GCServerCmd(lpObj->m_Index, 1, 0x14, 0);

  00132	8b 0b		 mov	 ecx, DWORD PTR [ebx]
  00134	6a 00		 push	 0
  00136	6a 14		 push	 20			; 00000014H
  00138	6a 01		 push	 1
  0013a	51		 push	 ecx

; 1290 : 		}
; 1291 : 	}
; 1292 : 	else

  0013b	eb 09		 jmp	 SHORT $LN20@NpcAngelMe
$LN11@NpcAngelMe:

; 1293 : 	{
; 1294 : 		GCServerCmd(lpObj->m_Index, 1, 0x15, 0);

  0013d	8b 13		 mov	 edx, DWORD PTR [ebx]
  0013f	6a 00		 push	 0
  00141	6a 15		 push	 21			; 00000015H
  00143	6a 01		 push	 1
  00145	52		 push	 edx
$LN20@NpcAngelMe:
  00146	e8 00 00 00 00	 call	 ?GCServerCmd@@YAXHEEE@Z	; GCServerCmd

; 1298 : }

  0014b	8b 4d fc	 mov	 ecx, DWORD PTR __$ArrayPad$[ebp]
  0014e	83 c4 10	 add	 esp, 16			; 00000010H
  00151	5f		 pop	 edi
  00152	33 cd		 xor	 ecx, ebp
  00154	33 c0		 xor	 eax, eax
  00156	5b		 pop	 ebx
  00157	e8 00 00 00 00	 call	 @__security_check_cookie@4
  0015c	8b e5		 mov	 esp, ebp
  0015e	5d		 pop	 ebp
  0015f	c3		 ret	 0
?NpcAngelMessanger@@YAHPAUOBJECTSTRUCT@@0@Z ENDP	; NpcAngelMessanger
_TEXT	ENDS
PUBLIC	?NpcRolensiaMadam@@YAHPAUOBJECTSTRUCT@@0@Z	; NpcRolensiaMadam
; Function compile flags: /Ogtp
;	COMDAT ?NpcRolensiaMadam@@YAHPAUOBJECTSTRUCT@@0@Z
_TEXT	SEGMENT
_lpNpc$ = 8						; size = 4
_lpObj$ = 12						; size = 4
?NpcRolensiaMadam@@YAHPAUOBJECTSTRUCT@@0@Z PROC		; NpcRolensiaMadam, COMDAT

; 1302 : 	return FALSE;

  00000	33 c0		 xor	 eax, eax

; 1303 : }

  00002	c3		 ret	 0
?NpcRolensiaMadam@@YAHPAUOBJECTSTRUCT@@0@Z ENDP		; NpcRolensiaMadam
_TEXT	ENDS
PUBLIC	?NpcDeviasWeapon@@YAHPAUOBJECTSTRUCT@@0@Z	; NpcDeviasWeapon
; Function compile flags: /Ogtp
;	COMDAT ?NpcDeviasWeapon@@YAHPAUOBJECTSTRUCT@@0@Z
_TEXT	SEGMENT
_lpNpc$ = 8						; size = 4
_lpObj$ = 12						; size = 4
?NpcDeviasWeapon@@YAHPAUOBJECTSTRUCT@@0@Z PROC		; NpcDeviasWeapon, COMDAT

; 1307 : 	return FALSE;

  00000	33 c0		 xor	 eax, eax

; 1308 : }

  00002	c3		 ret	 0
?NpcDeviasWeapon@@YAHPAUOBJECTSTRUCT@@0@Z ENDP		; NpcDeviasWeapon
_TEXT	ENDS
PUBLIC	??_C@_0BI@EKFBANFN@?$FL?$CFs?$FN?$FL?$CFs?$FN?5Open?5Chaos?5Box?$AA@ ; `string'
PUBLIC	??_C@_0DD@KJEEOOOJ@?$FL?$CFs?$FN?$FL?$CFs?$FN?5is?5Already?5Opening?5PSho@ ; `string'
PUBLIC	__$ArrayPad$
PUBLIC	?NpcDarkSpiritTrainer@@YAHPAUOBJECTSTRUCT@@0@Z	; NpcDarkSpiritTrainer
EXTRN	?gObjInventoryTrans@@YAHH@Z:PROC		; gObjInventoryTrans
EXTRN	?GCAnsCsMapSvrTaxInfo@@YAXHEE@Z:PROC		; GCAnsCsMapSvrTaxInfo
EXTRN	?GetTaxRateChaos@CCastleSiegeSync@@QAEHH@Z:PROC	; CCastleSiegeSync::GetTaxRateChaos
EXTRN	?g_CastleSiegeSync@@3VCCastleSiegeSync@@A:BYTE	; g_CastleSiegeSync
EXTRN	?gDQChaosSuccessRateLevel7@@3HA:DWORD		; gDQChaosSuccessRateLevel7
EXTRN	?gDQChaosSuccessRateLevel6@@3HA:DWORD		; gDQChaosSuccessRateLevel6
EXTRN	?gDQChaosSuccessRateLevel4@@3HA:DWORD		; gDQChaosSuccessRateLevel4
EXTRN	?gDQChaosSuccessRateLevel5@@3HA:DWORD		; gDQChaosSuccessRateLevel5
EXTRN	?gDQChaosSuccessRateLevel3@@3HA:DWORD		; gDQChaosSuccessRateLevel3
EXTRN	?gDQChaosSuccessRateLevel1@@3HA:DWORD		; gDQChaosSuccessRateLevel1
EXTRN	?gDQChaosSuccessRateLevel2@@3HA:DWORD		; gDQChaosSuccessRateLevel2
;	COMDAT ??_C@_0BI@EKFBANFN@?$FL?$CFs?$FN?$FL?$CFs?$FN?5Open?5Chaos?5Box?$AA@
CONST	SEGMENT
??_C@_0BI@EKFBANFN@?$FL?$CFs?$FN?$FL?$CFs?$FN?5Open?5Chaos?5Box?$AA@ DB '['
	DB	'%s][%s] Open Chaos Box', 00H		; `string'
CONST	ENDS
;	COMDAT ??_C@_0DD@KJEEOOOJ@?$FL?$CFs?$FN?$FL?$CFs?$FN?5is?5Already?5Opening?5PSho@
CONST	SEGMENT
??_C@_0DD@KJEEOOOJ@?$FL?$CFs?$FN?$FL?$CFs?$FN?5is?5Already?5Opening?5PSho@ DB '['
	DB	'%s][%s] is Already Opening PShop, ChaosBox Failed', 00H ; `string'
; Function compile flags: /Ogtp
CONST	ENDS
;	COMDAT ?NpcDarkSpiritTrainer@@YAHPAUOBJECTSTRUCT@@0@Z
_TEXT	SEGMENT
_pMsg$225273 = -16					; size = 11
__$ArrayPad$ = -4					; size = 4
_lpNpc$ = 8						; size = 4
_lpObj$ = 12						; size = 4
?NpcDarkSpiritTrainer@@YAHPAUOBJECTSTRUCT@@0@Z PROC	; NpcDarkSpiritTrainer, COMDAT

; 1311 : {

  00000	55		 push	 ebp
  00001	8b ec		 mov	 ebp, esp
  00003	83 ec 10	 sub	 esp, 16			; 00000010H
  00006	a1 00 00 00 00	 mov	 eax, DWORD PTR ___security_cookie
  0000b	33 c5		 xor	 eax, ebp
  0000d	89 45 fc	 mov	 DWORD PTR __$ArrayPad$[ebp], eax

; 1312 : 	if ( bCanChaosBox == TRUE )

  00010	83 3d 00 00 00
	00 01		 cmp	 DWORD PTR ?bCanChaosBox@@3HA, 1 ; bCanChaosBox
  00017	56		 push	 esi
  00018	8b 75 0c	 mov	 esi, DWORD PTR _lpObj$[ebp]
  0001b	0f 85 14 01 00
	00		 jne	 $LN2@NpcDarkSpi

; 1313 : 	{
; 1314 : 		PMSG_TALKRESULT pMsg;
; 1315 : 
; 1316 : 		pMsg.h.c = 0xC3;
; 1317 : 		pMsg.h.headcode = 0x30;
; 1318 : 		pMsg.h.size = sizeof(pMsg);
; 1319 : 		
; 1320 : 		if ( lpObj->m_bPShopOpen == true )

  00021	80 be c4 0e 00
	00 01		 cmp	 BYTE PTR [esi+3780], 1
  00028	c6 45 f0 c3	 mov	 BYTE PTR _pMsg$225273[ebp], 195 ; 000000c3H
  0002c	66 c7 45 f1 0b
	30		 mov	 WORD PTR _pMsg$225273[ebp+1], 12299 ; 0000300bH
  00032	75 47		 jne	 SHORT $LN1@NpcDarkSpi

; 1321 : 		{
; 1322 : 			LogAdd("[%s][%s] is Already Opening PShop, ChaosBox Failed", lpObj->AccountID, lpObj->Name);

  00034	8d 46 77	 lea	 eax, DWORD PTR [esi+119]
  00037	50		 push	 eax
  00038	8d 4e 6c	 lea	 ecx, DWORD PTR [esi+108]
  0003b	51		 push	 ecx
  0003c	68 00 00 00 00	 push	 OFFSET ??_C@_0DD@KJEEOOOJ@?$FL?$CFs?$FN?$FL?$CFs?$FN?5is?5Already?5Opening?5PSho@
  00041	ff 15 00 00 00
	00		 call	 DWORD PTR ?LogAdd@@3P6AXPADZZA ; LogAdd

; 1323 : 			GCServerMsgStringSend(lMsg.Get(MSGGET(4, 194)), lpObj->m_Index, 1);

  00047	8b 16		 mov	 edx, DWORD PTR [esi]
  00049	83 c4 0c	 add	 esp, 12			; 0000000cH
  0004c	6a 01		 push	 1
  0004e	52		 push	 edx
  0004f	68 c2 04 00 00	 push	 1218			; 000004c2H
  00054	b9 00 00 00 00	 mov	 ecx, OFFSET ?lMsg@@3VCMsg@@A ; lMsg
  00059	e8 00 00 00 00	 call	 ?Get@CMsg@@QAEPADH@Z	; CMsg::Get
  0005e	50		 push	 eax
  0005f	e8 00 00 00 00	 call	 ?GCServerMsgStringSend@@YAXPADHE@Z ; GCServerMsgStringSend
  00064	83 c4 0c	 add	 esp, 12			; 0000000cH

; 1349 : 	}
; 1350 : 
; 1351 : 	return TRUE;

  00067	b8 01 00 00 00	 mov	 eax, 1
  0006c	5e		 pop	 esi

; 1352 : }

  0006d	8b 4d fc	 mov	 ecx, DWORD PTR __$ArrayPad$[ebp]
  00070	33 cd		 xor	 ecx, ebp
  00072	e8 00 00 00 00	 call	 @__security_check_cookie@4
  00077	8b e5		 mov	 esp, ebp
  00079	5d		 pop	 ebp
  0007a	c3		 ret	 0
$LN1@NpcDarkSpi:

; 1324 : 			return TRUE;
; 1325 : 		}
; 1326 : 
; 1327 : 		lpObj->m_IfState.type = 13;
; 1328 : 		lpObj->m_IfState.state = 0;
; 1329 : 		lpObj->m_IfState.use = 1;

  0007b	8b 86 1c 0e 00
	00		 mov	 eax, DWORD PTR [esi+3612]
  00081	25 41 03 ff ff	 and	 eax, -64703		; ffff0341H

; 1330 : 		
; 1331 : 		pMsg.result = 0x07;
; 1332 : 		lpObj->bIsChaosMixCompleted = false;

  00086	c6 86 79 12 00
	00 00		 mov	 BYTE PTR [esi+4729], 0
  0008d	0d 41 03 00 00	 or	 eax, 833		; 00000341H
  00092	89 86 1c 0e 00
	00		 mov	 DWORD PTR [esi+3612], eax

; 1333 : 		pMsg.level1 = gDQChaosSuccessRateLevel1;
; 1334 : 		pMsg.level2 = gDQChaosSuccessRateLevel2;

  00098	0f b6 15 00 00
	00 00		 movzx	 edx, BYTE PTR ?gDQChaosSuccessRateLevel2@@3HA
  0009f	0f b6 0d 00 00
	00 00		 movzx	 ecx, BYTE PTR ?gDQChaosSuccessRateLevel1@@3HA

; 1335 : 		pMsg.level3 = gDQChaosSuccessRateLevel3;

  000a6	0f b6 05 00 00
	00 00		 movzx	 eax, BYTE PTR ?gDQChaosSuccessRateLevel3@@3HA
  000ad	88 55 f5	 mov	 BYTE PTR _pMsg$225273[ebp+5], dl

; 1336 : 		pMsg.level4 = gDQChaosSuccessRateLevel4;
; 1337 : 		pMsg.level5 = gDQChaosSuccessRateLevel5;

  000b0	0f b6 15 00 00
	00 00		 movzx	 edx, BYTE PTR ?gDQChaosSuccessRateLevel5@@3HA
  000b7	88 4d f4	 mov	 BYTE PTR _pMsg$225273[ebp+4], cl
  000ba	0f b6 0d 00 00
	00 00		 movzx	 ecx, BYTE PTR ?gDQChaosSuccessRateLevel4@@3HA
  000c1	88 45 f6	 mov	 BYTE PTR _pMsg$225273[ebp+6], al

; 1338 : 		pMsg.level6 = gDQChaosSuccessRateLevel6;

  000c4	0f b6 05 00 00
	00 00		 movzx	 eax, BYTE PTR ?gDQChaosSuccessRateLevel6@@3HA
  000cb	88 55 f8	 mov	 BYTE PTR _pMsg$225273[ebp+8], dl
  000ce	88 4d f7	 mov	 BYTE PTR _pMsg$225273[ebp+7], cl

; 1339 : 		pMsg.level7 = gDQChaosSuccessRateLevel7;

  000d1	0f b6 0d 00 00
	00 00		 movzx	 ecx, BYTE PTR ?gDQChaosSuccessRateLevel7@@3HA

; 1340 : 
; 1341 : 		DataSend(lpObj->m_Index, (LPBYTE)&pMsg, pMsg.h.size);

  000d8	6a 0b		 push	 11			; 0000000bH
  000da	8d 55 f0	 lea	 edx, DWORD PTR _pMsg$225273[ebp]
  000dd	88 45 f9	 mov	 BYTE PTR _pMsg$225273[ebp+9], al
  000e0	8b 06		 mov	 eax, DWORD PTR [esi]
  000e2	52		 push	 edx
  000e3	50		 push	 eax
  000e4	c6 45 f3 07	 mov	 BYTE PTR _pMsg$225273[ebp+3], 7
  000e8	88 4d fa	 mov	 BYTE PTR _pMsg$225273[ebp+10], cl
  000eb	e8 00 00 00 00	 call	 ?DataSend@@YAHHPAEK@Z	; DataSend

; 1342 : 
; 1343 : 		GCAnsCsMapSvrTaxInfo(lpObj->m_Index, 1, g_CastleSiegeSync.GetTaxRateChaos(lpObj->m_Index));

  000f0	8b 0e		 mov	 ecx, DWORD PTR [esi]
  000f2	83 c4 0c	 add	 esp, 12			; 0000000cH
  000f5	51		 push	 ecx
  000f6	b9 00 00 00 00	 mov	 ecx, OFFSET ?g_CastleSiegeSync@@3VCCastleSiegeSync@@A ; g_CastleSiegeSync
  000fb	e8 00 00 00 00	 call	 ?GetTaxRateChaos@CCastleSiegeSync@@QAEHH@Z ; CCastleSiegeSync::GetTaxRateChaos
  00100	8b 16		 mov	 edx, DWORD PTR [esi]
  00102	50		 push	 eax
  00103	6a 01		 push	 1
  00105	52		 push	 edx
  00106	e8 00 00 00 00	 call	 ?GCAnsCsMapSvrTaxInfo@@YAXHEE@Z ; GCAnsCsMapSvrTaxInfo

; 1344 : 		gObjInventoryTrans(lpObj->m_Index);

  0010b	8b 06		 mov	 eax, DWORD PTR [esi]
  0010d	50		 push	 eax
  0010e	e8 00 00 00 00	 call	 ?gObjInventoryTrans@@YAHH@Z ; gObjInventoryTrans

; 1345 : 
; 1346 : 		LogAddTD("[%s][%s] Open Chaos Box", lpObj->AccountID, lpObj->Name);

  00113	8d 4e 77	 lea	 ecx, DWORD PTR [esi+119]
  00116	51		 push	 ecx
  00117	8d 56 6c	 lea	 edx, DWORD PTR [esi+108]
  0011a	52		 push	 edx
  0011b	68 00 00 00 00	 push	 OFFSET ??_C@_0BI@EKFBANFN@?$FL?$CFs?$FN?$FL?$CFs?$FN?5Open?5Chaos?5Box?$AA@
  00120	ff 15 00 00 00
	00		 call	 DWORD PTR ?LogAddTD@@3P6AXPADZZA ; LogAddTD

; 1347 : 		gObjItemTextSave(lpObj);

  00126	56		 push	 esi
  00127	e8 00 00 00 00	 call	 ?gObjItemTextSave@@YAXPAUOBJECTSTRUCT@@@Z ; gObjItemTextSave

; 1348 : 		gObjWarehouseTextSave(lpObj);

  0012c	56		 push	 esi
  0012d	e8 00 00 00 00	 call	 ?gObjWarehouseTextSave@@YAXPAUOBJECTSTRUCT@@@Z ; gObjWarehouseTextSave
  00132	83 c4 24	 add	 esp, 36			; 00000024H
$LN2@NpcDarkSpi:

; 1352 : }

  00135	8b 4d fc	 mov	 ecx, DWORD PTR __$ArrayPad$[ebp]
  00138	33 cd		 xor	 ecx, ebp
  0013a	b8 01 00 00 00	 mov	 eax, 1
  0013f	5e		 pop	 esi
  00140	e8 00 00 00 00	 call	 @__security_check_cookie@4
  00145	8b e5		 mov	 esp, ebp
  00147	5d		 pop	 ebp
  00148	c3		 ret	 0
?NpcDarkSpiritTrainer@@YAHPAUOBJECTSTRUCT@@0@Z ENDP	; NpcDarkSpiritTrainer
_TEXT	ENDS
PUBLIC	__$ArrayPad$
PUBLIC	?NpcJewelMixDealer@@YAHPAUOBJECTSTRUCT@@0@Z	; NpcJewelMixDealer
; Function compile flags: /Ogtp
;	COMDAT ?NpcJewelMixDealer@@YAHPAUOBJECTSTRUCT@@0@Z
_TEXT	SEGMENT
_pMsg$225283 = -16					; size = 11
__$ArrayPad$ = -4					; size = 4
_lpNpc$ = 8						; size = 4
_lpObj$ = 12						; size = 4
?NpcJewelMixDealer@@YAHPAUOBJECTSTRUCT@@0@Z PROC	; NpcJewelMixDealer, COMDAT

; 1355 : {

  00000	55		 push	 ebp
  00001	8b ec		 mov	 ebp, esp
  00003	83 ec 10	 sub	 esp, 16			; 00000010H
  00006	a1 00 00 00 00	 mov	 eax, DWORD PTR ___security_cookie
  0000b	33 c5		 xor	 eax, ebp
  0000d	89 45 fc	 mov	 DWORD PTR __$ArrayPad$[ebp], eax

; 1356 : 	if ( bCanChaosBox == TRUE )

  00010	83 3d 00 00 00
	00 01		 cmp	 DWORD PTR ?bCanChaosBox@@3HA, 1 ; bCanChaosBox
  00017	56		 push	 esi
  00018	8b 75 0c	 mov	 esi, DWORD PTR _lpObj$[ebp]
  0001b	75 5f		 jne	 SHORT $LN2@NpcJewelMi

; 1357 : 	{
; 1358 : 		if ( (lpObj->m_IfState.use) > 0 )

  0001d	f6 86 1c 0e 00
	00 03		 test	 BYTE PTR [esi+3612], 3

; 1359 : 		{
; 1360 : 			return TRUE;

  00024	77 56		 ja	 SHORT $LN2@NpcJewelMi

; 1361 : 		}
; 1362 : 
; 1363 : 		PMSG_TALKRESULT pMsg;
; 1364 : 
; 1365 : 		pMsg.h.c = 0xC3;
; 1366 : 		pMsg.h.headcode = 0x30;
; 1367 : 		pMsg.h.size = sizeof(pMsg);
; 1368 : 		pMsg.result = 0x09;
; 1369 : 
; 1370 : 		DataSend(lpObj->m_Index, (LPBYTE)&pMsg, pMsg.h.size);

  00026	8b 0e		 mov	 ecx, DWORD PTR [esi]
  00028	6a 0b		 push	 11			; 0000000bH
  0002a	8d 45 f0	 lea	 eax, DWORD PTR _pMsg$225283[ebp]
  0002d	50		 push	 eax
  0002e	51		 push	 ecx
  0002f	c6 45 f0 c3	 mov	 BYTE PTR _pMsg$225283[ebp], 195 ; 000000c3H
  00033	66 c7 45 f1 0b
	30		 mov	 WORD PTR _pMsg$225283[ebp+1], 12299 ; 0000300bH
  00039	c6 45 f3 09	 mov	 BYTE PTR _pMsg$225283[ebp+3], 9
  0003d	e8 00 00 00 00	 call	 ?DataSend@@YAHHPAEK@Z	; DataSend

; 1371 : 
; 1372 : 		lpObj->m_IfState.use = 1;
; 1373 : 		lpObj->m_IfState.type = 20; //season4 changed

  00042	8b 96 1c 0e 00
	00		 mov	 edx, DWORD PTR [esi+3612]

; 1374 : 
; 1375 : 		LogAddTD("[JewelMix] [%s][%s] Jewel Mix Dealer Start", lpObj->AccountID, lpObj->Name);

  00048	8d 46 77	 lea	 eax, DWORD PTR [esi+119]
  0004b	50		 push	 eax
  0004c	8d 4e 6c	 lea	 ecx, DWORD PTR [esi+108]
  0004f	81 e2 3d 05 ff
	ff		 and	 edx, -64195		; ffff053dH
  00055	51		 push	 ecx
  00056	81 ca 01 05 00
	00		 or	 edx, 1281		; 00000501H
  0005c	68 00 00 00 00	 push	 OFFSET ??_C@_0CL@KMBDNKMH@?$FLJewelMix?$FN?5?$FL?$CFs?$FN?$FL?$CFs?$FN?5Jewel?5Mix?5De@
  00061	89 96 1c 0e 00
	00		 mov	 DWORD PTR [esi+3612], edx
  00067	ff 15 00 00 00
	00		 call	 DWORD PTR ?LogAddTD@@3P6AXPADZZA ; LogAddTD

; 1376 : 
; 1377 : 		gObjItemTextSave(lpObj);

  0006d	56		 push	 esi
  0006e	e8 00 00 00 00	 call	 ?gObjItemTextSave@@YAXPAUOBJECTSTRUCT@@@Z ; gObjItemTextSave

; 1378 : 		gObjWarehouseTextSave(lpObj);

  00073	56		 push	 esi
  00074	e8 00 00 00 00	 call	 ?gObjWarehouseTextSave@@YAXPAUOBJECTSTRUCT@@@Z ; gObjWarehouseTextSave
  00079	83 c4 20	 add	 esp, 32			; 00000020H
$LN2@NpcJewelMi:

; 1379 : 
; 1380 : 	}
; 1381 : 
; 1382 : 	return TRUE;
; 1383 : }

  0007c	8b 4d fc	 mov	 ecx, DWORD PTR __$ArrayPad$[ebp]
  0007f	33 cd		 xor	 ecx, ebp
  00081	b8 01 00 00 00	 mov	 eax, 1
  00086	5e		 pop	 esi
  00087	e8 00 00 00 00	 call	 @__security_check_cookie@4
  0008c	8b e5		 mov	 esp, ebp
  0008e	5d		 pop	 ebp
  0008f	c3		 ret	 0
?NpcJewelMixDealer@@YAHPAUOBJECTSTRUCT@@0@Z ENDP	; NpcJewelMixDealer
_TEXT	ENDS
PUBLIC	?NpcSiegeMachine_Attack@@YAHPAUOBJECTSTRUCT@@0@Z ; NpcSiegeMachine_Attack
EXTRN	?gObjIsConnectedGP@@YAHH@Z:PROC			; gObjIsConnectedGP
EXTRN	?PHeadSubSetB@@YAXPAEEEH@Z:PROC			; PHeadSubSetB
; Function compile flags: /Ogtp
;	COMDAT ?NpcSiegeMachine_Attack@@YAHPAUOBJECTSTRUCT@@0@Z
_TEXT	SEGMENT
_pResult$ = -8						; size = 8
_lpNpc$ = 8						; size = 4
_lpObj$ = 12						; size = 4
?NpcSiegeMachine_Attack@@YAHPAUOBJECTSTRUCT@@0@Z PROC	; NpcSiegeMachine_Attack, COMDAT

; 1395 : {

  00000	55		 push	 ebp
  00001	8b ec		 mov	 ebp, esp
  00003	83 ec 08	 sub	 esp, 8
  00006	57		 push	 edi

; 1396 : 	if ( (lpObj->m_IfState.use) > 0 )

  00007	8b 7d 0c	 mov	 edi, DWORD PTR _lpObj$[ebp]
  0000a	f6 87 1c 0e 00
	00 03		 test	 BYTE PTR [edi+3612], 3

; 1397 : 	{
; 1398 : 		return TRUE;

  00011	0f 87 98 00 00
	00		 ja	 $LN7@NpcSiegeMa

; 1399 : 	}
; 1400 : 
; 1401 : 	PMSG_ANS_USE_WEAPON_INTERFACE pResult = {0};

  00017	56		 push	 esi
  00018	33 c0		 xor	 eax, eax

; 1402 : 
; 1403 : 	PHeadSubSetB((LPBYTE)&pResult, 0xB7, 0x00, sizeof(pResult));

  0001a	6a 08		 push	 8
  0001c	50		 push	 eax
  0001d	89 45 f9	 mov	 DWORD PTR _pResult$[ebp+1], eax
  00020	66 89 45 fd	 mov	 WORD PTR _pResult$[ebp+5], ax
  00024	88 45 ff	 mov	 BYTE PTR _pResult$[ebp+7], al
  00027	8d 45 f8	 lea	 eax, DWORD PTR _pResult$[ebp]
  0002a	68 b7 00 00 00	 push	 183			; 000000b7H
  0002f	50		 push	 eax
  00030	c6 45 f8 00	 mov	 BYTE PTR _pResult$[ebp], 0
  00034	e8 00 00 00 00	 call	 ?PHeadSubSetB@@YAXPAEEEH@Z ; PHeadSubSetB

; 1404 : 
; 1405 : 	pResult.btResult = 0;
; 1406 : 	pResult.btWeaponType = 1;
; 1407 : 	pResult.btObjIndexH = SET_NUMBERH(lpNpc->m_Index);

  00039	8b 75 08	 mov	 esi, DWORD PTR _lpNpc$[ebp]
  0003c	8b 0e		 mov	 ecx, DWORD PTR [esi]

; 1408 : 	pResult.btObjIndexL = SET_NUMBERL(lpNpc->m_Index);
; 1409 : 
; 1410 : 	if ( gObjIsConnectedGP(lpNpc->m_iWeaponUser) == FALSE )

  0003e	8b 86 08 1c 00
	00		 mov	 eax, DWORD PTR [esi+7176]
  00044	8a 16		 mov	 dl, BYTE PTR [esi]
  00046	c1 e9 08	 shr	 ecx, 8
  00049	50		 push	 eax
  0004a	66 c7 45 fc 00
	01		 mov	 WORD PTR _pResult$[ebp+4], 256 ; 00000100H
  00050	88 4d fe	 mov	 BYTE PTR _pResult$[ebp+6], cl
  00053	88 55 ff	 mov	 BYTE PTR _pResult$[ebp+7], dl
  00056	e8 00 00 00 00	 call	 ?gObjIsConnectedGP@@YAHH@Z ; gObjIsConnectedGP
  0005b	83 c4 14	 add	 esp, 20			; 00000014H
  0005e	85 c0		 test	 eax, eax
  00060	75 0d		 jne	 SHORT $LN3@NpcSiegeMa

; 1411 : 	{
; 1412 : 		lpNpc->m_iWeaponUser = 0;

  00062	89 86 08 1c 00
	00		 mov	 DWORD PTR [esi+7176], eax

; 1413 : 		lpNpc->m_btWeaponState = 1;

  00068	c6 86 05 1c 00
	00 01		 mov	 BYTE PTR [esi+7173], 1
$LN3@NpcSiegeMa:

; 1414 : 	}
; 1415 : 
; 1416 : 	lpNpc->m_btWeaponState = 1;
; 1417 : 
; 1418 : 
; 1419 : 	if ( lpNpc->m_btWeaponState == 1 )
; 1420 : 	{
; 1421 : 		pResult.btResult = 1;
; 1422 : 		lpNpc->m_btWeaponState = 2;
; 1423 : 		lpNpc->m_iWeaponUser = lpObj->m_Index;
; 1424 : 
; 1425 : 		DataSend(lpObj->m_Index, (LPBYTE)&pResult, pResult.h.size);

  0006f	0f b6 55 f9	 movzx	 edx, BYTE PTR _pResult$[ebp+1]
  00073	c6 86 05 1c 00
	00 02		 mov	 BYTE PTR [esi+7173], 2
  0007a	8b 0f		 mov	 ecx, DWORD PTR [edi]
  0007c	52		 push	 edx
  0007d	8d 45 f8	 lea	 eax, DWORD PTR _pResult$[ebp]
  00080	89 8e 08 1c 00
	00		 mov	 DWORD PTR [esi+7176], ecx
  00086	8b 0f		 mov	 ecx, DWORD PTR [edi]
  00088	50		 push	 eax
  00089	51		 push	 ecx
  0008a	c6 45 fc 01	 mov	 BYTE PTR _pResult$[ebp+4], 1
  0008e	e8 00 00 00 00	 call	 ?DataSend@@YAHHPAEK@Z	; DataSend

; 1426 : 
; 1427 : 		lpObj->m_IfState.use = 1;
; 1428 : 		lpObj->m_IfState.type = 15;

  00093	8b 97 1c 0e 00
	00		 mov	 edx, DWORD PTR [edi+3612]
  00099	83 c4 0c	 add	 esp, 12			; 0000000cH
  0009c	81 e2 fd 03 ff
	ff		 and	 edx, -64515		; ffff03fdH
  000a2	81 ca c1 03 00
	00		 or	 edx, 961		; 000003c1H
  000a8	89 97 1c 0e 00
	00		 mov	 DWORD PTR [edi+3612], edx
  000ae	5e		 pop	 esi
$LN7@NpcSiegeMa:

; 1429 : 	}
; 1430 : 	else
; 1431 : 	{
; 1432 : 		DataSend(lpObj->m_Index, (LPBYTE)&pResult, pResult.h.size);
; 1433 : 	}
; 1434 : 
; 1435 : 	return TRUE;

  000af	b8 01 00 00 00	 mov	 eax, 1
  000b4	5f		 pop	 edi

; 1436 : }

  000b5	8b e5		 mov	 esp, ebp
  000b7	5d		 pop	 ebp
  000b8	c3		 ret	 0
?NpcSiegeMachine_Attack@@YAHPAUOBJECTSTRUCT@@0@Z ENDP	; NpcSiegeMachine_Attack
_TEXT	ENDS
PUBLIC	?NpcSiegeMachine_Defense@@YAHPAUOBJECTSTRUCT@@0@Z ; NpcSiegeMachine_Defense
; Function compile flags: /Ogtp
;	COMDAT ?NpcSiegeMachine_Defense@@YAHPAUOBJECTSTRUCT@@0@Z
_TEXT	SEGMENT
_pResult$ = -8						; size = 8
_lpNpc$ = 8						; size = 4
_lpObj$ = 12						; size = 4
?NpcSiegeMachine_Defense@@YAHPAUOBJECTSTRUCT@@0@Z PROC	; NpcSiegeMachine_Defense, COMDAT

; 1439 : {

  00000	55		 push	 ebp
  00001	8b ec		 mov	 ebp, esp
  00003	83 ec 08	 sub	 esp, 8
  00006	57		 push	 edi

; 1440 : 	if ( (lpObj->m_IfState.use ) > 0 )

  00007	8b 7d 0c	 mov	 edi, DWORD PTR _lpObj$[ebp]
  0000a	f6 87 1c 0e 00
	00 03		 test	 BYTE PTR [edi+3612], 3

; 1441 : 	{
; 1442 : 		return TRUE;

  00011	0f 87 98 00 00
	00		 ja	 $LN7@NpcSiegeMa@2

; 1443 : 	}
; 1444 : 
; 1445 : 	PMSG_ANS_USE_WEAPON_INTERFACE pResult = {0};

  00017	56		 push	 esi
  00018	33 c0		 xor	 eax, eax

; 1446 : 
; 1447 : 	PHeadSubSetB((LPBYTE)&pResult, 0xB7, 0x00, sizeof(pResult));

  0001a	6a 08		 push	 8
  0001c	50		 push	 eax
  0001d	89 45 f9	 mov	 DWORD PTR _pResult$[ebp+1], eax
  00020	66 89 45 fd	 mov	 WORD PTR _pResult$[ebp+5], ax
  00024	88 45 ff	 mov	 BYTE PTR _pResult$[ebp+7], al
  00027	8d 45 f8	 lea	 eax, DWORD PTR _pResult$[ebp]
  0002a	68 b7 00 00 00	 push	 183			; 000000b7H
  0002f	50		 push	 eax
  00030	c6 45 f8 00	 mov	 BYTE PTR _pResult$[ebp], 0
  00034	e8 00 00 00 00	 call	 ?PHeadSubSetB@@YAXPAEEEH@Z ; PHeadSubSetB

; 1448 : 
; 1449 : 	pResult.btResult = 0;
; 1450 : 	pResult.btWeaponType = 2;
; 1451 : 	pResult.btObjIndexH = SET_NUMBERH(lpNpc->m_Index);

  00039	8b 75 08	 mov	 esi, DWORD PTR _lpNpc$[ebp]
  0003c	8b 0e		 mov	 ecx, DWORD PTR [esi]

; 1452 : 	pResult.btObjIndexL = SET_NUMBERL(lpNpc->m_Index);
; 1453 : 
; 1454 : 	if ( gObjIsConnectedGP(lpNpc->m_iWeaponUser) == FALSE )

  0003e	8b 86 08 1c 00
	00		 mov	 eax, DWORD PTR [esi+7176]
  00044	8a 16		 mov	 dl, BYTE PTR [esi]
  00046	c1 e9 08	 shr	 ecx, 8
  00049	50		 push	 eax
  0004a	66 c7 45 fc 00
	02		 mov	 WORD PTR _pResult$[ebp+4], 512 ; 00000200H
  00050	88 4d fe	 mov	 BYTE PTR _pResult$[ebp+6], cl
  00053	88 55 ff	 mov	 BYTE PTR _pResult$[ebp+7], dl
  00056	e8 00 00 00 00	 call	 ?gObjIsConnectedGP@@YAHH@Z ; gObjIsConnectedGP
  0005b	83 c4 14	 add	 esp, 20			; 00000014H
  0005e	85 c0		 test	 eax, eax
  00060	75 0d		 jne	 SHORT $LN3@NpcSiegeMa@2

; 1455 : 	{
; 1456 : 		lpNpc->m_iWeaponUser = 0;

  00062	89 86 08 1c 00
	00		 mov	 DWORD PTR [esi+7176], eax

; 1457 : 		lpNpc->m_btWeaponState = 1;

  00068	c6 86 05 1c 00
	00 01		 mov	 BYTE PTR [esi+7173], 1
$LN3@NpcSiegeMa@2:

; 1458 : 	}
; 1459 : 
; 1460 : 	lpNpc->m_btWeaponState = 1;
; 1461 : 
; 1462 : 
; 1463 : 	if ( lpNpc->m_btWeaponState == 1 )
; 1464 : 	{
; 1465 : 		pResult.btResult = 1;
; 1466 : 		lpNpc->m_btWeaponState = 2;
; 1467 : 		lpNpc->m_iWeaponUser = lpObj->m_Index;
; 1468 : 
; 1469 : 		DataSend(lpObj->m_Index, (LPBYTE)&pResult, pResult.h.size);

  0006f	0f b6 55 f9	 movzx	 edx, BYTE PTR _pResult$[ebp+1]
  00073	c6 86 05 1c 00
	00 02		 mov	 BYTE PTR [esi+7173], 2
  0007a	8b 0f		 mov	 ecx, DWORD PTR [edi]
  0007c	52		 push	 edx
  0007d	8d 45 f8	 lea	 eax, DWORD PTR _pResult$[ebp]
  00080	89 8e 08 1c 00
	00		 mov	 DWORD PTR [esi+7176], ecx
  00086	8b 0f		 mov	 ecx, DWORD PTR [edi]
  00088	50		 push	 eax
  00089	51		 push	 ecx
  0008a	c6 45 fc 01	 mov	 BYTE PTR _pResult$[ebp+4], 1
  0008e	e8 00 00 00 00	 call	 ?DataSend@@YAHHPAEK@Z	; DataSend

; 1470 : 
; 1471 : 		lpObj->m_IfState.use = 1;
; 1472 : 		lpObj->m_IfState.type = 16;

  00093	8b 97 1c 0e 00
	00		 mov	 edx, DWORD PTR [edi+3612]
  00099	83 c4 0c	 add	 esp, 12			; 0000000cH
  0009c	81 e2 3d 04 ff
	ff		 and	 edx, -64451		; ffff043dH
  000a2	81 ca 01 04 00
	00		 or	 edx, 1025		; 00000401H
  000a8	89 97 1c 0e 00
	00		 mov	 DWORD PTR [edi+3612], edx
  000ae	5e		 pop	 esi
$LN7@NpcSiegeMa@2:

; 1473 : 	}
; 1474 : 	else
; 1475 : 	{
; 1476 : 		DataSend(lpObj->m_Index, (LPBYTE)&pResult, pResult.h.size);
; 1477 : 	}
; 1478 : 
; 1479 : 	return TRUE;

  000af	b8 01 00 00 00	 mov	 eax, 1
  000b4	5f		 pop	 edi

; 1480 : }

  000b5	8b e5		 mov	 esp, ebp
  000b7	5d		 pop	 ebp
  000b8	c3		 ret	 0
?NpcSiegeMachine_Defense@@YAHPAUOBJECTSTRUCT@@0@Z ENDP	; NpcSiegeMachine_Defense
_TEXT	ENDS
PUBLIC	??_C@_00CNPNBAHC@?$AA@				; `string'
PUBLIC	_lpNpc$GSCopy$
PUBLIC	__$ArrayPad$
PUBLIC	?NpcElderCircle@@YAHPAUOBJECTSTRUCT@@0@Z	; NpcElderCircle
EXTRN	?CheckGuildOwnCastle@CCastleSiege@@QAEHPAD@Z:PROC ; CCastleSiege::CheckGuildOwnCastle
EXTRN	?g_CastleSiege@@3VCCastleSiege@@A:BYTE		; g_CastleSiege
;	COMDAT ??_C@_00CNPNBAHC@?$AA@
; File e:\work\tranet_version\gs\gameserver\castlesiege.h
CONST	SEGMENT
??_C@_00CNPNBAHC@?$AA@ DB 00H				; `string'
; Function compile flags: /Ogtp
; File e:\work\tranet_version\gs\gameserver\npctalk.cpp
CONST	ENDS
;	COMDAT ?NpcElderCircle@@YAHPAUOBJECTSTRUCT@@0@Z
_TEXT	SEGMENT
_lpNpc$GSCopy$ = -20					; size = 4
_pMsg$ = -16						; size = 11
__$ArrayPad$ = -4					; size = 4
_lpNpc$ = 8						; size = 4
_lpObj$ = 12						; size = 4
?NpcElderCircle@@YAHPAUOBJECTSTRUCT@@0@Z PROC		; NpcElderCircle, COMDAT

; 1483 : {

  00000	55		 push	 ebp
  00001	8b ec		 mov	 ebp, esp
  00003	83 ec 14	 sub	 esp, 20			; 00000014H
  00006	a1 00 00 00 00	 mov	 eax, DWORD PTR ___security_cookie
  0000b	33 c5		 xor	 eax, ebp
  0000d	89 45 fc	 mov	 DWORD PTR __$ArrayPad$[ebp], eax
  00010	56		 push	 esi
  00011	8b 75 0c	 mov	 esi, DWORD PTR _lpObj$[ebp]

; 1484 : 	if ( (lpObj->m_IfState.use ) > 0 )

  00014	f6 86 1c 0e 00
	00 03		 test	 BYTE PTR [esi+3612], 3
  0001b	57		 push	 edi
  0001c	8b 7d 08	 mov	 edi, DWORD PTR _lpNpc$[ebp]

; 1500 : 	}
; 1501 : 
; 1502 : 	if(!g_CastleSiege.CheckGuildOwnCastle(lpObj->GuildName) || (lpObj->GuildStatus != G_MASTER && lpObj->GuildStatus != G_SUB_MASTER))

  0001f	89 7d ec	 mov	 DWORD PTR _lpNpc$GSCopy$[ebp], edi
  00022	0f 87 6e 01 00
	00		 ja	 $LN18@NpcElderCi

; 1485 : 	{
; 1486 : 		return TRUE;
; 1487 : 	}
; 1488 : 
; 1489 : //#if(GS_CASTLE==1)
; 1490 : 	if(g_CastleSiege.GetCastleState() == CASTLESIEGE_STATE_STARTSIEGE)

  00028	83 3d 28 00 00
	00 07		 cmp	 DWORD PTR ?g_CastleSiege@@3VCCastleSiege@@A+40, 7
  0002f	75 21		 jne	 SHORT $LN5@NpcElderCi

; 1491 : 	{
; 1492 : 		ChatTargetSend(lpNpc,(lMsg.Get(MSGGET(6, 85))), lpObj->m_Index);

  00031	8b 06		 mov	 eax, DWORD PTR [esi]
  00033	50		 push	 eax
  00034	68 55 06 00 00	 push	 1621			; 00000655H
  00039	b9 00 00 00 00	 mov	 ecx, OFFSET ?lMsg@@3VCMsg@@A ; lMsg
  0003e	e8 00 00 00 00	 call	 ?Get@CMsg@@QAEPADH@Z	; CMsg::Get
  00043	50		 push	 eax
  00044	57		 push	 edi
  00045	e8 00 00 00 00	 call	 ?ChatTargetSend@@YAXPAUOBJECTSTRUCT@@PADH@Z ; ChatTargetSend
  0004a	83 c4 0c	 add	 esp, 12			; 0000000cH

; 1493 : 		return TRUE;

  0004d	e9 44 01 00 00	 jmp	 $LN18@NpcElderCi
$LN5@NpcElderCi:

; 1494 : 	}
; 1495 : 
; 1496 : 	if(strcmp(lpObj->GuildName, "") == 0 )

  00052	8d be 3c 04 00
	00		 lea	 edi, DWORD PTR [esi+1084]
  00058	53		 push	 ebx
  00059	b9 00 00 00 00	 mov	 ecx, OFFSET ??_C@_00CNPNBAHC@?$AA@
  0005e	8b c7		 mov	 eax, edi
  00060	33 db		 xor	 ebx, ebx
$LL11@NpcElderCi:
  00062	8a 10		 mov	 dl, BYTE PTR [eax]
  00064	3a 11		 cmp	 dl, BYTE PTR [ecx]
  00066	75 1a		 jne	 SHORT $LN12@NpcElderCi
  00068	3a d3		 cmp	 dl, bl
  0006a	74 12		 je	 SHORT $LN13@NpcElderCi
  0006c	8a 50 01	 mov	 dl, BYTE PTR [eax+1]
  0006f	3a 51 01	 cmp	 dl, BYTE PTR [ecx+1]
  00072	75 0e		 jne	 SHORT $LN12@NpcElderCi
  00074	83 c0 02	 add	 eax, 2
  00077	83 c1 02	 add	 ecx, 2
  0007a	3a d3		 cmp	 dl, bl
  0007c	75 e4		 jne	 SHORT $LL11@NpcElderCi
$LN13@NpcElderCi:
  0007e	33 c0		 xor	 eax, eax
  00080	eb 05		 jmp	 SHORT $LN14@NpcElderCi
$LN12@NpcElderCi:
  00082	1b c0		 sbb	 eax, eax
  00084	83 d8 ff	 sbb	 eax, -1
$LN14@NpcElderCi:
  00087	3b c3		 cmp	 eax, ebx
  00089	75 1c		 jne	 SHORT $LN4@NpcElderCi

; 1497 : 	{
; 1498 : 		ChatTargetSend(lpNpc,(lMsg.Get(MSGGET(6, 86))), lpObj->m_Index);

  0008b	8b 0e		 mov	 ecx, DWORD PTR [esi]
  0008d	51		 push	 ecx
  0008e	68 56 06 00 00	 push	 1622			; 00000656H
  00093	b9 00 00 00 00	 mov	 ecx, OFFSET ?lMsg@@3VCMsg@@A ; lMsg
  00098	e8 00 00 00 00	 call	 ?Get@CMsg@@QAEPADH@Z	; CMsg::Get
  0009d	8b 55 ec	 mov	 edx, DWORD PTR _lpNpc$GSCopy$[ebp]
  000a0	50		 push	 eax
  000a1	52		 push	 edx

; 1499 : 		return TRUE;

  000a2	e9 e6 00 00 00	 jmp	 $LN16@NpcElderCi
$LN4@NpcElderCi:

; 1500 : 	}
; 1501 : 
; 1502 : 	if(!g_CastleSiege.CheckGuildOwnCastle(lpObj->GuildName) || (lpObj->GuildStatus != G_MASTER && lpObj->GuildStatus != G_SUB_MASTER))

  000a7	57		 push	 edi
  000a8	b9 00 00 00 00	 mov	 ecx, OFFSET ?g_CastleSiege@@3VCCastleSiege@@A ; g_CastleSiege
  000ad	e8 00 00 00 00	 call	 ?CheckGuildOwnCastle@CCastleSiege@@QAEHPAD@Z ; CCastleSiege::CheckGuildOwnCastle
  000b2	85 c0		 test	 eax, eax
  000b4	0f 84 bc 00 00
	00		 je	 $LN2@NpcElderCi
  000ba	8b 86 48 04 00
	00		 mov	 eax, DWORD PTR [esi+1096]
  000c0	3d 80 00 00 00	 cmp	 eax, 128		; 00000080H
  000c5	74 09		 je	 SHORT $LN3@NpcElderCi
  000c7	83 f8 40	 cmp	 eax, 64			; 00000040H
  000ca	0f 85 a6 00 00
	00		 jne	 $LN2@NpcElderCi
$LN3@NpcElderCi:

; 1505 : 		return TRUE;
; 1506 : 	}
; 1507 : //#endif
; 1508 : 
; 1509 : 	PMSG_TALKRESULT pMsg;
; 1510 : 
; 1511 : 	pMsg.h.c = 0xC3;
; 1512 : 	pMsg.h.headcode = 0x30;
; 1513 : 	pMsg.h.size = sizeof(pMsg);
; 1514 : 	pMsg.result = 0x0C;
; 1515 : 
; 1516 : 	lpObj->m_IfState.use = 1;
; 1517 : 	lpObj->m_IfState.type = 12;

  000d0	8b 86 1c 0e 00
	00		 mov	 eax, DWORD PTR [esi+3612]
  000d6	25 3d 03 ff ff	 and	 eax, -64707		; ffff033dH
  000db	0d 01 03 00 00	 or	 eax, 769		; 00000301H
  000e0	89 86 1c 0e 00
	00		 mov	 DWORD PTR [esi+3612], eax

; 1518 : 
; 1519 : //#if(GS_CASTLE==1)
; 1520 : 	pMsg.level1 = 0;
; 1521 : 	pMsg.level2 = 0;
; 1522 : 	pMsg.level3 = 0;
; 1523 : 	pMsg.level4 = 0;
; 1524 : 	pMsg.level5 = 0;
; 1525 : 	pMsg.level6 = 0;
; 1526 : 	pMsg.level7 = 0;//Season 4.5 fix
; 1527 : 
; 1528 : 	if( bCanChaosBox == TRUE)

  000e6	83 3d 00 00 00
	00 01		 cmp	 DWORD PTR ?bCanChaosBox@@3HA, 1 ; bCanChaosBox
  000ed	c6 45 f0 c3	 mov	 BYTE PTR _pMsg$[ebp], 195 ; 000000c3H
  000f1	c7 45 f1 0b 30
	0c 00		 mov	 DWORD PTR _pMsg$[ebp+1], 798731 ; 000c300bH
  000f8	89 5d f5	 mov	 DWORD PTR _pMsg$[ebp+5], ebx
  000fb	66 89 5d f9	 mov	 WORD PTR _pMsg$[ebp+9], bx
  000ff	75 62		 jne	 SHORT $LN1@NpcElderCi

; 1529 : 	{
; 1530 : 		lpObj->m_IfState.type = 7;

  00101	25 ff 01 ff ff	 and	 eax, -65025		; ffff01ffH
  00106	0d c0 01 00 00	 or	 eax, 448		; 000001c0H
  0010b	89 86 1c 0e 00
	00		 mov	 DWORD PTR [esi+3612], eax

; 1531 : 
; 1532 : 		lpObj->bIsChaosMixCompleted = false;
; 1533 : 		lpObj->m_bIsCastleNPCUpgradeCompleted = false; 
; 1534 : 
; 1535 : 		pMsg.level1 = 1;
; 1536 : 
; 1537 : 		GCAnsCsMapSvrTaxInfo(lpObj->m_Index, 1, g_CastleSiegeSync.GetTaxRateChaos(lpObj->m_Index));

  00111	8b 06		 mov	 eax, DWORD PTR [esi]
  00113	50		 push	 eax
  00114	b9 00 00 00 00	 mov	 ecx, OFFSET ?g_CastleSiegeSync@@3VCCastleSiegeSync@@A ; g_CastleSiegeSync
  00119	88 9e 79 12 00
	00		 mov	 BYTE PTR [esi+4729], bl
  0011f	88 9e 04 1c 00
	00		 mov	 BYTE PTR [esi+7172], bl
  00125	c6 45 f4 01	 mov	 BYTE PTR _pMsg$[ebp+4], 1
  00129	e8 00 00 00 00	 call	 ?GetTaxRateChaos@CCastleSiegeSync@@QAEHH@Z ; CCastleSiegeSync::GetTaxRateChaos
  0012e	8b 0e		 mov	 ecx, DWORD PTR [esi]
  00130	50		 push	 eax
  00131	6a 01		 push	 1
  00133	51		 push	 ecx
  00134	e8 00 00 00 00	 call	 ?GCAnsCsMapSvrTaxInfo@@YAXHEE@Z ; GCAnsCsMapSvrTaxInfo

; 1538 : 		gObjInventoryTrans(lpObj->m_Index);

  00139	8b 16		 mov	 edx, DWORD PTR [esi]
  0013b	52		 push	 edx
  0013c	e8 00 00 00 00	 call	 ?gObjInventoryTrans@@YAHH@Z ; gObjInventoryTrans

; 1539 : 
; 1540 : 		LogAddTD("[%s][%s] Open Chaos Box", lpObj->AccountID, lpObj->Name);

  00141	8d 46 77	 lea	 eax, DWORD PTR [esi+119]
  00144	50		 push	 eax
  00145	8d 4e 6c	 lea	 ecx, DWORD PTR [esi+108]
  00148	51		 push	 ecx
  00149	68 00 00 00 00	 push	 OFFSET ??_C@_0BI@EKFBANFN@?$FL?$CFs?$FN?$FL?$CFs?$FN?5Open?5Chaos?5Box?$AA@
  0014e	ff 15 00 00 00
	00		 call	 DWORD PTR ?LogAddTD@@3P6AXPADZZA ; LogAddTD

; 1541 : 		gObjItemTextSave(lpObj);

  00154	56		 push	 esi
  00155	e8 00 00 00 00	 call	 ?gObjItemTextSave@@YAXPAUOBJECTSTRUCT@@@Z ; gObjItemTextSave

; 1542 : 		gObjWarehouseTextSave(lpObj);

  0015a	56		 push	 esi
  0015b	e8 00 00 00 00	 call	 ?gObjWarehouseTextSave@@YAXPAUOBJECTSTRUCT@@@Z ; gObjWarehouseTextSave
  00160	83 c4 24	 add	 esp, 36			; 00000024H
$LN1@NpcElderCi:

; 1543 : 	}
; 1544 : //#endif
; 1545 : 
; 1546 : 	DataSend(lpObj->m_Index, (LPBYTE)&pMsg, pMsg.h.size);

  00163	0f b6 55 f1	 movzx	 edx, BYTE PTR _pMsg$[ebp+1]
  00167	8b 0e		 mov	 ecx, DWORD PTR [esi]
  00169	52		 push	 edx
  0016a	8d 45 f0	 lea	 eax, DWORD PTR _pMsg$[ebp]
  0016d	50		 push	 eax
  0016e	51		 push	 ecx
  0016f	e8 00 00 00 00	 call	 ?DataSend@@YAHHPAEK@Z	; DataSend

; 1547 : 
; 1548 : 	return TRUE;

  00174	eb 1c		 jmp	 SHORT $LN17@NpcElderCi
$LN2@NpcElderCi:

; 1503 : 	{
; 1504 : 		ChatTargetSend(lpNpc,(lMsg.Get(MSGGET(6, 86))), lpObj->m_Index);

  00176	8b 16		 mov	 edx, DWORD PTR [esi]
  00178	52		 push	 edx
  00179	68 56 06 00 00	 push	 1622			; 00000656H
  0017e	b9 00 00 00 00	 mov	 ecx, OFFSET ?lMsg@@3VCMsg@@A ; lMsg
  00183	e8 00 00 00 00	 call	 ?Get@CMsg@@QAEPADH@Z	; CMsg::Get
  00188	50		 push	 eax
  00189	8b 45 ec	 mov	 eax, DWORD PTR _lpNpc$GSCopy$[ebp]
  0018c	50		 push	 eax
$LN16@NpcElderCi:
  0018d	e8 00 00 00 00	 call	 ?ChatTargetSend@@YAXPAUOBJECTSTRUCT@@PADH@Z ; ChatTargetSend
$LN17@NpcElderCi:
  00192	83 c4 0c	 add	 esp, 12			; 0000000cH
  00195	5b		 pop	 ebx
$LN18@NpcElderCi:

; 1549 : }

  00196	8b 4d fc	 mov	 ecx, DWORD PTR __$ArrayPad$[ebp]
  00199	5f		 pop	 edi
  0019a	33 cd		 xor	 ecx, ebp
  0019c	b8 01 00 00 00	 mov	 eax, 1
  001a1	5e		 pop	 esi
  001a2	e8 00 00 00 00	 call	 @__security_check_cookie@4
  001a7	8b e5		 mov	 esp, ebp
  001a9	5d		 pop	 ebp
  001aa	c3		 ret	 0
?NpcElderCircle@@YAHPAUOBJECTSTRUCT@@0@Z ENDP		; NpcElderCircle
_TEXT	ENDS
PUBLIC	__$ArrayPad$
PUBLIC	?NpcCastleGuard@@YAHPAUOBJECTSTRUCT@@0@Z	; NpcCastleGuard
; Function compile flags: /Ogtp
;	COMDAT ?NpcCastleGuard@@YAHPAUOBJECTSTRUCT@@0@Z
_TEXT	SEGMENT
_pMsg$ = -16						; size = 11
__$ArrayPad$ = -4					; size = 4
_lpNpc$ = 8						; size = 4
_lpObj$ = 12						; size = 4
?NpcCastleGuard@@YAHPAUOBJECTSTRUCT@@0@Z PROC		; NpcCastleGuard, COMDAT

; 1552 : {

  00000	55		 push	 ebp
  00001	8b ec		 mov	 ebp, esp
  00003	83 ec 10	 sub	 esp, 16			; 00000010H
  00006	a1 00 00 00 00	 mov	 eax, DWORD PTR ___security_cookie
  0000b	33 c5		 xor	 eax, ebp
  0000d	89 45 fc	 mov	 DWORD PTR __$ArrayPad$[ebp], eax
  00010	56		 push	 esi
  00011	8b 75 0c	 mov	 esi, DWORD PTR _lpObj$[ebp]

; 1553 : 	if ( (lpObj->m_IfState.use ) > 0 )

  00014	f6 86 1c 0e 00
	00 03		 test	 BYTE PTR [esi+3612], 3
  0001b	57		 push	 edi
  0001c	8b 7d 08	 mov	 edi, DWORD PTR _lpNpc$[ebp]

; 1554 : 	{
; 1555 : 		return TRUE;

  0001f	77 5c		 ja	 SHORT $LN7@NpcCastleG

; 1556 : 	}
; 1557 : 
; 1558 : //#if(GS_CASTLE==1)
; 1559 : 	if(g_CastleSiege.GetCastleState() == CASTLESIEGE_STATE_STARTSIEGE)

  00021	83 3d 28 00 00
	00 07		 cmp	 DWORD PTR ?g_CastleSiege@@3VCCastleSiege@@A+40, 7
  00028	75 1e		 jne	 SHORT $LN1@NpcCastleG

; 1560 : 	{
; 1561 : 		ChatTargetSend(lpNpc,(lMsg.Get(MSGGET(6, 87))), lpObj->m_Index);

  0002a	8b 06		 mov	 eax, DWORD PTR [esi]
  0002c	50		 push	 eax
  0002d	68 57 06 00 00	 push	 1623			; 00000657H
  00032	b9 00 00 00 00	 mov	 ecx, OFFSET ?lMsg@@3VCMsg@@A ; lMsg
  00037	e8 00 00 00 00	 call	 ?Get@CMsg@@QAEPADH@Z	; CMsg::Get
  0003c	50		 push	 eax
  0003d	57		 push	 edi
  0003e	e8 00 00 00 00	 call	 ?ChatTargetSend@@YAXPAUOBJECTSTRUCT@@PADH@Z ; ChatTargetSend
  00043	83 c4 0c	 add	 esp, 12			; 0000000cH

; 1562 : 		return TRUE;

  00046	eb 35		 jmp	 SHORT $LN7@NpcCastleG
$LN1@NpcCastleG:

; 1563 : 	}
; 1564 : //#endif
; 1565 : 
; 1566 : 	PMSG_TALKRESULT pMsg;
; 1567 : 
; 1568 : 	pMsg.h.c = 0xC3;
; 1569 : 	pMsg.h.headcode = 0x30;
; 1570 : 	pMsg.h.size = sizeof(pMsg);
; 1571 : 	pMsg.result = 0x0D;
; 1572 : 
; 1573 : 	DataSend(lpObj->m_Index, (LPBYTE)&pMsg, pMsg.h.size);

  00048	8b 16		 mov	 edx, DWORD PTR [esi]
  0004a	6a 0b		 push	 11			; 0000000bH
  0004c	8d 4d f0	 lea	 ecx, DWORD PTR _pMsg$[ebp]
  0004f	51		 push	 ecx
  00050	52		 push	 edx
  00051	c6 45 f0 c3	 mov	 BYTE PTR _pMsg$[ebp], 195 ; 000000c3H
  00055	66 c7 45 f1 0b
	30		 mov	 WORD PTR _pMsg$[ebp+1], 12299 ; 0000300bH
  0005b	c6 45 f3 0d	 mov	 BYTE PTR _pMsg$[ebp+3], 13 ; 0000000dH
  0005f	e8 00 00 00 00	 call	 ?DataSend@@YAHHPAEK@Z	; DataSend

; 1574 : 
; 1575 : 	lpObj->m_IfState.use = 1;
; 1576 : 	lpObj->m_IfState.type = 12;

  00064	8b 86 1c 0e 00
	00		 mov	 eax, DWORD PTR [esi+3612]
  0006a	25 3d 03 ff ff	 and	 eax, -64707		; ffff033dH
  0006f	83 c4 0c	 add	 esp, 12			; 0000000cH
  00072	0d 01 03 00 00	 or	 eax, 769		; 00000301H
  00077	89 86 1c 0e 00
	00		 mov	 DWORD PTR [esi+3612], eax
$LN7@NpcCastleG:

; 1577 : 
; 1578 : 
; 1579 : 	return TRUE;
; 1580 : }

  0007d	8b 4d fc	 mov	 ecx, DWORD PTR __$ArrayPad$[ebp]
  00080	5f		 pop	 edi
  00081	33 cd		 xor	 ecx, ebp
  00083	b8 01 00 00 00	 mov	 eax, 1
  00088	5e		 pop	 esi
  00089	e8 00 00 00 00	 call	 @__security_check_cookie@4
  0008e	8b e5		 mov	 esp, ebp
  00090	5d		 pop	 ebp
  00091	c3		 ret	 0
?NpcCastleGuard@@YAHPAUOBJECTSTRUCT@@0@Z ENDP		; NpcCastleGuard
_TEXT	ENDS
PUBLIC	?NpcCastleGateLever@@YAHPAUOBJECTSTRUCT@@0@Z	; NpcCastleGateLever
EXTRN	?GCAnsCsGateState@@YAXHHH@Z:PROC		; GCAnsCsGateState
EXTRN	?CheckCsGateAlive@CCastleSiege@@QAEHH@Z:PROC	; CCastleSiege::CheckCsGateAlive
EXTRN	?CheckLeverAlive@CCastleSiege@@QAEHH@Z:PROC	; CCastleSiege::CheckLeverAlive
EXTRN	?CheckCastleOwnerUnionMember@CCastleSiege@@QAEHH@Z:PROC ; CCastleSiege::CheckCastleOwnerUnionMember
EXTRN	?CheckCastleOwnerMember@CCastleSiege@@QAEHH@Z:PROC ; CCastleSiege::CheckCastleOwnerMember
; Function compile flags: /Ogtp
;	COMDAT ?NpcCastleGateLever@@YAHPAUOBJECTSTRUCT@@0@Z
_TEXT	SEGMENT
_lpNpc$ = 8						; size = 4
_iGateIndex$ = 12					; size = 4
_lpObj$ = 12						; size = 4
?NpcCastleGateLever@@YAHPAUOBJECTSTRUCT@@0@Z PROC	; NpcCastleGateLever, COMDAT

; 1583 : {

  00000	55		 push	 ebp
  00001	8b ec		 mov	 ebp, esp
  00003	53		 push	 ebx
  00004	57		 push	 edi

; 1584 : 	if ( (lpObj->m_IfState.use) > 0 )

  00005	8b 7d 0c	 mov	 edi, DWORD PTR _lpObj$[ebp]
  00008	b3 03		 mov	 bl, 3
  0000a	84 9f 1c 0e 00
	00		 test	 BYTE PTR [edi+3612], bl

; 1585 : 	{
; 1586 : 		return TRUE;

  00010	0f 87 af 00 00
	00		 ja	 $LN20@NpcCastleG@2

; 1587 : 	}
; 1588 : 
; 1589 : //#if(GS_CASTLE==1)
; 1590 : 	BOOL bControlEnable = FALSE;
; 1591 : 	BYTE btResult = 0;
; 1592 : 	int iGateIndex = -1;
; 1593 : 
; 1594 : 	if(g_CastleSiege.GetCastleState() == CASTLESIEGE_STATE_STARTSIEGE)

  00016	83 3d 28 00 00
	00 07		 cmp	 DWORD PTR ?g_CastleSiege@@3VCCastleSiege@@A+40, 7
  0001d	c7 45 0c ff ff
	ff ff		 mov	 DWORD PTR _iGateIndex$[ebp], -1
  00024	75 0d		 jne	 SHORT $LN12@NpcCastleG@2

; 1595 : 	{
; 1596 : 		if(lpObj->m_btCsJoinSide != TRUE)

  00026	80 bf 02 1c 00
	00 01		 cmp	 BYTE PTR [edi+7170], 1
  0002d	74 2a		 je	 SHORT $LN8@NpcCastleG@2

; 1597 : 		{
; 1598 : 			btResult = 4;

  0002f	b3 04		 mov	 bl, 4

; 1599 : 			bControlEnable = FALSE;
; 1600 : 		}
; 1601 : 		else

  00031	eb 62		 jmp	 SHORT $LN2@NpcCastleG@2
$LN12@NpcCastleG@2:

; 1602 : 		{
; 1603 : 			bControlEnable = TRUE;
; 1604 : 		}
; 1605 : 	}
; 1606 : 	else
; 1607 : 	{
; 1608 : 		if(g_CastleSiege.CheckCastleOwnerMember(lpObj->m_Index) == FALSE && g_CastleSiege.CheckCastleOwnerUnionMember(lpObj->m_Index) == FALSE) //Fixed

  00033	8b 07		 mov	 eax, DWORD PTR [edi]
  00035	50		 push	 eax
  00036	b9 00 00 00 00	 mov	 ecx, OFFSET ?g_CastleSiege@@3VCCastleSiege@@A ; g_CastleSiege
  0003b	e8 00 00 00 00	 call	 ?CheckCastleOwnerMember@CCastleSiege@@QAEHH@Z ; CCastleSiege::CheckCastleOwnerMember
  00040	85 c0		 test	 eax, eax
  00042	75 15		 jne	 SHORT $LN8@NpcCastleG@2
  00044	8b 0f		 mov	 ecx, DWORD PTR [edi]
  00046	51		 push	 ecx
  00047	b9 00 00 00 00	 mov	 ecx, OFFSET ?g_CastleSiege@@3VCCastleSiege@@A ; g_CastleSiege
  0004c	e8 00 00 00 00	 call	 ?CheckCastleOwnerUnionMember@CCastleSiege@@QAEHH@Z ; CCastleSiege::CheckCastleOwnerUnionMember
  00051	85 c0		 test	 eax, eax
  00053	75 04		 jne	 SHORT $LN8@NpcCastleG@2

; 1609 : 		{
; 1610 : 			btResult = 4;

  00055	b3 04		 mov	 bl, 4

; 1611 : 			bControlEnable = FALSE;
; 1612 : 		}
; 1613 : 		else

  00057	eb 3c		 jmp	 SHORT $LN2@NpcCastleG@2
$LN8@NpcCastleG@2:
  00059	56		 push	 esi

; 1614 : 		{
; 1615 : 			bControlEnable = TRUE;
; 1616 : 		}
; 1617 : 	}
; 1618 : 
; 1619 : 	if(bControlEnable != FALSE)
; 1620 : 	{
; 1621 : 		if(g_CastleSiege.CheckLeverAlive(lpNpc->m_Index) == TRUE)

  0005a	8b 75 08	 mov	 esi, DWORD PTR _lpNpc$[ebp]
  0005d	8b 16		 mov	 edx, DWORD PTR [esi]
  0005f	52		 push	 edx
  00060	b9 00 00 00 00	 mov	 ecx, OFFSET ?g_CastleSiege@@3VCCastleSiege@@A ; g_CastleSiege
  00065	e8 00 00 00 00	 call	 ?CheckLeverAlive@CCastleSiege@@QAEHH@Z ; CCastleSiege::CheckLeverAlive
  0006a	83 f8 01	 cmp	 eax, 1
  0006d	75 25		 jne	 SHORT $LN5@NpcCastleG@2

; 1622 : 		{
; 1623 : 			if(g_CastleSiege.CheckCsGateAlive(lpNpc->m_iCsGateLeverLinkIndex) == TRUE)

  0006f	8b 86 fc 1b 00
	00		 mov	 eax, DWORD PTR [esi+7164]
  00075	50		 push	 eax
  00076	b9 00 00 00 00	 mov	 ecx, OFFSET ?g_CastleSiege@@3VCCastleSiege@@A ; g_CastleSiege
  0007b	e8 00 00 00 00	 call	 ?CheckCsGateAlive@CCastleSiege@@QAEHH@Z ; CCastleSiege::CheckCsGateAlive
  00080	83 f8 01	 cmp	 eax, 1
  00083	75 0d		 jne	 SHORT $LN4@NpcCastleG@2

; 1624 : 			{
; 1625 : 				btResult = 1;
; 1626 : 				iGateIndex = lpNpc->m_iCsGateLeverLinkIndex;

  00085	8b 8e fc 1b 00
	00		 mov	 ecx, DWORD PTR [esi+7164]
  0008b	8a d8		 mov	 bl, al
  0008d	89 4d 0c	 mov	 DWORD PTR _iGateIndex$[ebp], ecx

; 1627 : 			}
; 1628 : 			else

  00090	eb 02		 jmp	 SHORT $LN5@NpcCastleG@2
$LN4@NpcCastleG@2:

; 1629 : 			{
; 1630 : 				btResult = 2;

  00092	b3 02		 mov	 bl, 2
$LN5@NpcCastleG@2:
  00094	5e		 pop	 esi
$LN2@NpcCastleG@2:

; 1631 : 			}
; 1632 : 		}
; 1633 : 		else
; 1634 : 		{
; 1635 : 			btResult = 3;
; 1636 : 		}
; 1637 : 
; 1638 : 	}
; 1639 : 
; 1640 : 	GCAnsCsGateState(lpObj->m_Index,btResult,iGateIndex);

  00095	8b 55 0c	 mov	 edx, DWORD PTR _iGateIndex$[ebp]
  00098	8b 0f		 mov	 ecx, DWORD PTR [edi]
  0009a	0f b6 c3	 movzx	 eax, bl
  0009d	52		 push	 edx
  0009e	50		 push	 eax
  0009f	51		 push	 ecx
  000a0	e8 00 00 00 00	 call	 ?GCAnsCsGateState@@YAXHHH@Z ; GCAnsCsGateState
  000a5	83 c4 0c	 add	 esp, 12			; 0000000cH

; 1641 : 
; 1642 : 	if(btResult != 1)

  000a8	80 fb 01	 cmp	 bl, 1

; 1643 : 	{
; 1644 : 		return TRUE;

  000ab	75 18		 jne	 SHORT $LN20@NpcCastleG@2

; 1645 : 	}
; 1646 : 
; 1647 : 	lpObj->m_IfState.use = 1;
; 1648 : 	lpObj->m_IfState.type = 12;

  000ad	8b 97 1c 0e 00
	00		 mov	 edx, DWORD PTR [edi+3612]
  000b3	81 e2 3d 03 ff
	ff		 and	 edx, -64707		; ffff033dH
  000b9	81 ca 01 03 00
	00		 or	 edx, 769		; 00000301H
  000bf	89 97 1c 0e 00
	00		 mov	 DWORD PTR [edi+3612], edx
$LN20@NpcCastleG@2:

; 1649 : //#endif
; 1650 : 
; 1651 : 	return TRUE;

  000c5	5f		 pop	 edi
  000c6	b8 01 00 00 00	 mov	 eax, 1
  000cb	5b		 pop	 ebx

; 1652 : }

  000cc	5d		 pop	 ebp
  000cd	c3		 ret	 0
?NpcCastleGateLever@@YAHPAUOBJECTSTRUCT@@0@Z ENDP	; NpcCastleGateLever
_TEXT	ENDS
PUBLIC	??_C@_0EC@IEDCECMD@?$FLCastleSiege?$FN?5?$FL?$CFs?$FN?$FL?$CFs?$FN?5Failed?5to@ ; `string'
PUBLIC	??_C@_0FH@PCDLBKGJ@?$FLCastleSiege?$FN?5?$FL?$CFs?$FN?$FL?$CFs?$FN?5Failed?5to@ ; `string'
PUBLIC	??_C@_0EB@GAPHDLGF@?$FLCastleSiege?$FN?5?$FL?$CFs?$FN?$FL?$CFs?$FN?5Start?5to?5@ ; `string'
PUBLIC	?NpcCastleCrown@@YAHPAUOBJECTSTRUCT@@0@Z	; NpcCastleCrown
EXTRN	?NotifyAllUserCsProgState@CCastleSiege@@QAEXEPAD@Z:PROC ; CCastleSiege::NotifyAllUserCsProgState
EXTRN	?SetCrownAccessTickCount@CCastleSiege@@QAEXXZ:PROC ; CCastleSiege::SetCrownAccessTickCount
EXTRN	?GCAnsCsAccessCrownState@@YAXHE@Z:PROC		; GCAnsCsAccessCrownState
EXTRN	?GetCrownSwitchUserIndex@CCastleSiege@@QAEHH@Z:PROC ; CCastleSiege::GetCrownSwitchUserIndex
EXTRN	?CheckUnionGuildMaster@CCastleSiege@@QAEHH@Z:PROC ; CCastleSiege::CheckUnionGuildMaster
EXTRN	?CheckInCharacterItem@@YA_NHH@Z:PROC		; CheckInCharacterItem
EXTRN	?CheckUser@CZtLicense@@QAE_NH@Z:PROC		; CZtLicense::CheckUser
EXTRN	?g_ZtLicense@@3VCZtLicense@@A:BYTE		; g_ZtLicense
EXTRN	?gObjIsConnected@@YAHH@Z:PROC			; gObjIsConnected
;	COMDAT ??_C@_0EC@IEDCECMD@?$FLCastleSiege?$FN?5?$FL?$CFs?$FN?$FL?$CFs?$FN?5Failed?5to@
; File e:\work\tranet_version\gs\gameserver\castlesiege.h
CONST	SEGMENT
??_C@_0EC@IEDCECMD@?$FLCastleSiege?$FN?5?$FL?$CFs?$FN?$FL?$CFs?$FN?5Failed?5to@ DB '['
	DB	'CastleSiege] [%s][%s] Failed to Register Castle Crown (GUILD:'
	DB	'%s)', 00H					; `string'
CONST	ENDS
;	COMDAT ??_C@_0FH@PCDLBKGJ@?$FLCastleSiege?$FN?5?$FL?$CFs?$FN?$FL?$CFs?$FN?5Failed?5to@
CONST	SEGMENT
??_C@_0FH@PCDLBKGJ@?$FLCastleSiege?$FN?5?$FL?$CFs?$FN?$FL?$CFs?$FN?5Failed?5to@ DB '['
	DB	'CastleSiege] [%s][%s] Failed to Register Castle Crown (GUILD:'
	DB	'%s) (S1:%s/%s)(S2:%s/%s)', 00H		; `string'
CONST	ENDS
;	COMDAT ??_C@_0EB@GAPHDLGF@?$FLCastleSiege?$FN?5?$FL?$CFs?$FN?$FL?$CFs?$FN?5Start?5to?5@
CONST	SEGMENT
??_C@_0EB@GAPHDLGF@?$FLCastleSiege?$FN?5?$FL?$CFs?$FN?$FL?$CFs?$FN?5Start?5to?5@ DB '['
	DB	'CastleSiege] [%s][%s] Start to Register Castle Crown (GUILD:%'
	DB	's)', 00H					; `string'
; Function compile flags: /Ogtp
; File e:\work\tranet_version\gs\gameserver\npctalk.cpp
CONST	ENDS
;	COMDAT ?NpcCastleCrown@@YAHPAUOBJECTSTRUCT@@0@Z
_TEXT	SEGMENT
_lpNpc$ = 8						; size = 4
_lpObj$ = 12						; size = 4
?NpcCastleCrown@@YAHPAUOBJECTSTRUCT@@0@Z PROC		; NpcCastleCrown, COMDAT

; 1655 : {

  00000	55		 push	 ebp
  00001	8b ec		 mov	 ebp, esp
  00003	56		 push	 esi

; 1656 : 	//#if(GS_CASTLE==1)
; 1657 : 	if ( gObjIsConnected(lpObj->m_Index) == FALSE )

  00004	8b 75 0c	 mov	 esi, DWORD PTR _lpObj$[ebp]
  00007	8b 06		 mov	 eax, DWORD PTR [esi]
  00009	50		 push	 eax
  0000a	e8 00 00 00 00	 call	 ?gObjIsConnected@@YAHH@Z ; gObjIsConnected
  0000f	83 c4 04	 add	 esp, 4
  00012	85 c0		 test	 eax, eax

; 1658 : 	{
; 1659 : 		return TRUE;

  00014	0f 84 1c 03 00
	00		 je	 $LN44@NpcCastleC

; 1660 : 	}
; 1661 : 	if(g_ZtLicense.CheckUser(eZtUB::PrideMu) || g_ZtLicense.CheckUser(eZtUB::PrideMuLocal) || g_ZtLicense.CheckUser(eZtUB::Local3))

  0001a	6a 11		 push	 17			; 00000011H
  0001c	b9 00 00 00 00	 mov	 ecx, OFFSET ?g_ZtLicense@@3VCZtLicense@@A ; g_ZtLicense
  00021	e8 00 00 00 00	 call	 ?CheckUser@CZtLicense@@QAE_NH@Z ; CZtLicense::CheckUser
  00026	84 c0		 test	 al, al
  00028	75 20		 jne	 SHORT $LN25@NpcCastleC
  0002a	6a 1a		 push	 26			; 0000001aH
  0002c	b9 00 00 00 00	 mov	 ecx, OFFSET ?g_ZtLicense@@3VCZtLicense@@A ; g_ZtLicense
  00031	e8 00 00 00 00	 call	 ?CheckUser@CZtLicense@@QAE_NH@Z ; CZtLicense::CheckUser
  00036	84 c0		 test	 al, al
  00038	75 10		 jne	 SHORT $LN25@NpcCastleC
  0003a	6a 1c		 push	 28			; 0000001cH
  0003c	b9 00 00 00 00	 mov	 ecx, OFFSET ?g_ZtLicense@@3VCZtLicense@@A ; g_ZtLicense
  00041	e8 00 00 00 00	 call	 ?CheckUser@CZtLicense@@QAE_NH@Z ; CZtLicense::CheckUser
  00046	84 c0		 test	 al, al
  00048	74 18		 je	 SHORT $LN24@NpcCastleC
$LN25@NpcCastleC:

; 1662 : 	{
; 1663 : 		if(CheckInCharacterItem(lpObj->m_Index,ITEMGET(13,4)))

  0004a	8b 0e		 mov	 ecx, DWORD PTR [esi]
  0004c	68 04 1a 00 00	 push	 6660			; 00001a04H
  00051	51		 push	 ecx
  00052	e8 00 00 00 00	 call	 ?CheckInCharacterItem@@YA_NHH@Z ; CheckInCharacterItem
  00057	83 c4 08	 add	 esp, 8
  0005a	84 c0		 test	 al, al

; 1664 : 		{
; 1665 : 			return TRUE;

  0005c	0f 85 d4 02 00
	00		 jne	 $LN44@NpcCastleC
$LN24@NpcCastleC:

; 1666 : 		}
; 1667 : 	}
; 1668 : 
; 1669 : #if(EVOMU_CASTLE_SEGE==TRUE)
; 1670 : 	//if(g_ZtLicense.CheckUser(eZtUB::Gredy) || g_ZtLicense.CheckUser(eZtUB::GredyLocal) || g_ZtLicense.CheckUser(eZtUB::Gredy2))
; 1671 : 	//{
; 1672 : 	//	if(CheckInCharacterItem(lpObj->m_Index,ITEMGET(13,4)))
; 1673 : 	//	{
; 1674 : 	//		return TRUE;
; 1675 : 	//	}
; 1676 : 	//}
; 1677 : #endif
; 1678 : 
; 1679 : 	if(g_CastleSiege.GetCastleState() != CASTLESIEGE_STATE_STARTSIEGE)

  00062	83 3d 28 00 00
	00 07		 cmp	 DWORD PTR ?g_CastleSiege@@3VCCastleSiege@@A+40, 7

; 1680 : 	{
; 1681 : 		return TRUE;

  00069	0f 85 c7 02 00
	00		 jne	 $LN44@NpcCastleC

; 1682 : 	}
; 1683 : 	
; 1684 : 	if(lpObj->m_btCsJoinSide < 2 || lpObj->m_bCsGuildInvolved == FALSE )

  0006f	80 be 02 1c 00
	00 02		 cmp	 BYTE PTR [esi+7170], 2
  00076	0f 82 ba 02 00
	00		 jb	 $LN44@NpcCastleC
  0007c	80 be 03 1c 00
	00 00		 cmp	 BYTE PTR [esi+7171], 0
  00083	0f 84 ad 02 00
	00		 je	 $LN44@NpcCastleC

; 1685 : 	{
; 1686 : 		return TRUE;
; 1687 : 	}
; 1688 : 
; 1689 : 	if(g_CastleSiege.CheckUnionGuildMaster(lpObj->m_Index) == FALSE )

  00089	8b 16		 mov	 edx, DWORD PTR [esi]
  0008b	52		 push	 edx
  0008c	b9 00 00 00 00	 mov	 ecx, OFFSET ?g_CastleSiege@@3VCCastleSiege@@A ; g_CastleSiege
  00091	e8 00 00 00 00	 call	 ?CheckUnionGuildMaster@CCastleSiege@@QAEHH@Z ; CCastleSiege::CheckUnionGuildMaster
  00096	85 c0		 test	 eax, eax

; 1690 : 	{
; 1691 : 		return TRUE;

  00098	0f 84 98 02 00
	00		 je	 $LN44@NpcCastleC

; 1692 : 	}
; 1693 : 
; 1694 : 	if( (abs(lpObj->Y - lpNpc->Y)) > 3 || (abs(lpObj->X - lpNpc->X)) > 3)

  0009e	8b 4d 08	 mov	 ecx, DWORD PTR _lpNpc$[ebp]
  000a1	0f bf 91 46 01
	00 00		 movsx	 edx, WORD PTR [ecx+326]
  000a8	0f bf 86 46 01
	00 00		 movsx	 eax, WORD PTR [esi+326]
  000af	2b c2		 sub	 eax, edx
  000b1	99		 cdq
  000b2	33 c2		 xor	 eax, edx
  000b4	2b c2		 sub	 eax, edx
  000b6	83 f8 03	 cmp	 eax, 3
  000b9	0f 8f 77 02 00
	00		 jg	 $LN44@NpcCastleC
  000bf	0f bf 89 44 01
	00 00		 movsx	 ecx, WORD PTR [ecx+324]
  000c6	0f bf 86 44 01
	00 00		 movsx	 eax, WORD PTR [esi+324]
  000cd	2b c1		 sub	 eax, ecx
  000cf	99		 cdq
  000d0	33 c2		 xor	 eax, edx
  000d2	2b c2		 sub	 eax, edx
  000d4	83 f8 03	 cmp	 eax, 3
  000d7	0f 8f 59 02 00
	00		 jg	 $LN44@NpcCastleC

; 1695 : 	{
; 1696 : 		return TRUE;
; 1697 : 	}
; 1698 : 
; 1699 : 	//if( (abs(lpObj->Y - lpNpc->Y)) > 2 || (abs(lpObj->X - lpNpc->X)) > 2)
; 1700 : 	//{
; 1701 : 	//	return TRUE;
; 1702 : 	//}
; 1703 : 
; 1704 : #if(EVOMU_CASTLE_SEGE==TRUE)
; 1705 : 	if(g_ZtLicense.CheckUser(eZtUB::Gredy) || g_ZtLicense.CheckUser(eZtUB::GredyLocal) || g_ZtLicense.CheckUser(eZtUB::Gredy2))

  000dd	6a 20		 push	 32			; 00000020H
  000df	b9 00 00 00 00	 mov	 ecx, OFFSET ?g_ZtLicense@@3VCZtLicense@@A ; g_ZtLicense
  000e4	e8 00 00 00 00	 call	 ?CheckUser@CZtLicense@@QAE_NH@Z ; CZtLicense::CheckUser
  000e9	84 c0		 test	 al, al
  000eb	75 20		 jne	 SHORT $LN16@NpcCastleC
  000ed	6a 21		 push	 33			; 00000021H
  000ef	b9 00 00 00 00	 mov	 ecx, OFFSET ?g_ZtLicense@@3VCZtLicense@@A ; g_ZtLicense
  000f4	e8 00 00 00 00	 call	 ?CheckUser@CZtLicense@@QAE_NH@Z ; CZtLicense::CheckUser
  000f9	84 c0		 test	 al, al
  000fb	75 10		 jne	 SHORT $LN16@NpcCastleC
  000fd	6a 22		 push	 34			; 00000022H
  000ff	b9 00 00 00 00	 mov	 ecx, OFFSET ?g_ZtLicense@@3VCZtLicense@@A ; g_ZtLicense
  00104	e8 00 00 00 00	 call	 ?CheckUser@CZtLicense@@QAE_NH@Z ; CZtLicense::CheckUser
  00109	84 c0		 test	 al, al
  0010b	74 28		 je	 SHORT $LN15@NpcCastleC
$LN16@NpcCastleC:

; 1706 : 	{
; 1707 : 		if(lpObj->X != lpObj->TX || lpObj->Y != lpObj->TY)

  0010d	66 8b 96 44 01
	00 00		 mov	 dx, WORD PTR [esi+324]
  00114	66 3b 96 7c 01
	00 00		 cmp	 dx, WORD PTR [esi+380]
  0011b	0f 85 15 02 00
	00		 jne	 $LN44@NpcCastleC
  00121	66 8b 86 46 01
	00 00		 mov	 ax, WORD PTR [esi+326]
  00128	66 3b 86 7e 01
	00 00		 cmp	 ax, WORD PTR [esi+382]
  0012f	0f 85 01 02 00
	00		 jne	 $LN44@NpcCastleC
$LN15@NpcCastleC:

; 1708 : 		{
; 1709 : 			return TRUE;
; 1710 : 		}
; 1711 : 	}
; 1712 : #endif
; 1713 : 
; 1714 : 	if(g_CastleSiege.GetRegCrownAvailable() == FALSE )

  00135	83 3d e8 01 00
	00 00		 cmp	 DWORD PTR ?g_CastleSiege@@3VCCastleSiege@@A+488, 0

; 1715 : 	{
; 1716 : 		return TRUE;

  0013c	0f 84 f4 01 00
	00		 je	 $LN44@NpcCastleC

; 1717 : 	}
; 1718 : 
; 1719 : 	int iUserIndex = g_CastleSiege.GetCrownUserIndex();

  00142	53		 push	 ebx
  00143	57		 push	 edi
  00144	8b 3d f0 01 00
	00		 mov	 edi, DWORD PTR ?g_CastleSiege@@3VCCastleSiege@@A+496

; 1720 : 
; 1721 : 	if(gObjIsConnected(iUserIndex) == FALSE )

  0014a	57		 push	 edi
  0014b	e8 00 00 00 00	 call	 ?gObjIsConnected@@YAHH@Z ; gObjIsConnected
  00150	83 c4 04	 add	 esp, 4
  00153	85 c0		 test	 eax, eax
  00155	0f 85 c8 01 00
	00		 jne	 $LN12@NpcCastleC

; 1722 : 	{
; 1723 : 		int iSwitchIndex1 = g_CastleSiege.GetCrownSwitchUserIndex(217);

  0015b	68 d9 00 00 00	 push	 217			; 000000d9H
  00160	b9 00 00 00 00	 mov	 ecx, OFFSET ?g_CastleSiege@@3VCCastleSiege@@A ; g_CastleSiege
  00165	e8 00 00 00 00	 call	 ?GetCrownSwitchUserIndex@CCastleSiege@@QAEHH@Z ; CCastleSiege::GetCrownSwitchUserIndex

; 1724 : 		int iSwitchIndex2 = g_CastleSiege.GetCrownSwitchUserIndex(218);

  0016a	68 da 00 00 00	 push	 218			; 000000daH
  0016f	b9 00 00 00 00	 mov	 ecx, OFFSET ?g_CastleSiege@@3VCCastleSiege@@A ; g_CastleSiege
  00174	8b f8		 mov	 edi, eax
  00176	e8 00 00 00 00	 call	 ?GetCrownSwitchUserIndex@CCastleSiege@@QAEHH@Z ; CCastleSiege::GetCrownSwitchUserIndex

; 1725 : 
; 1726 : 		if(gObjIsConnected(iSwitchIndex1) == FALSE || gObjIsConnected(iSwitchIndex2) == FALSE )

  0017b	57		 push	 edi
  0017c	8b d8		 mov	 ebx, eax
  0017e	e8 00 00 00 00	 call	 ?gObjIsConnected@@YAHH@Z ; gObjIsConnected
  00183	83 c4 04	 add	 esp, 4
  00186	85 c0		 test	 eax, eax
  00188	0f 84 64 01 00
	00		 je	 $LN10@NpcCastleC
  0018e	53		 push	 ebx
  0018f	e8 00 00 00 00	 call	 ?gObjIsConnected@@YAHH@Z ; gObjIsConnected
  00194	83 c4 04	 add	 esp, 4
  00197	85 c0		 test	 eax, eax
  00199	0f 84 53 01 00
	00		 je	 $LN10@NpcCastleC

; 1731 : 		}
; 1732 : 
; 1733 : 		if(lpObj->m_btCsJoinSide != gObj[iSwitchIndex1].m_btCsJoinSide || lpObj->m_btCsJoinSide != gObj[iSwitchIndex2].m_btCsJoinSide)

  0019f	8a 86 02 1c 00
	00		 mov	 al, BYTE PTR [esi+7170]
  001a5	69 ff 50 2b 00
	00		 imul	 edi, 11088		; 00002b50H
  001ab	8b 0d 00 00 00
	00		 mov	 ecx, DWORD PTR ?gObj@@3PAUOBJECTSTRUCT@@A ; gObj
  001b1	3a 84 0f 02 1c
	00 00		 cmp	 al, BYTE PTR [edi+ecx+7170]
  001b8	0f 85 dd 00 00
	00		 jne	 $LN8@NpcCastleC
  001be	8b d3		 mov	 edx, ebx
  001c0	69 d2 50 2b 00
	00		 imul	 edx, 11088		; 00002b50H
  001c6	3a 84 0a 02 1c
	00 00		 cmp	 al, BYTE PTR [edx+ecx+7170]
  001cd	0f 85 c8 00 00
	00		 jne	 $LN8@NpcCastleC

; 1737 : 			return TRUE;
; 1738 : 		}
; 1739 : 		else
; 1740 : 		{
; 1741 : 			GCAnsCsAccessCrownState(lpObj->m_Index,0);

  001d3	8b 06		 mov	 eax, DWORD PTR [esi]
  001d5	6a 00		 push	 0
  001d7	50		 push	 eax
  001d8	e8 00 00 00 00	 call	 ?GCAnsCsAccessCrownState@@YAXHE@Z ; GCAnsCsAccessCrownState

; 1742 : 			g_CastleSiege.SetCrownUserIndex(lpObj->m_Index);

  001dd	8b 0e		 mov	 ecx, DWORD PTR [esi]
  001df	89 0d f0 01 00
	00		 mov	 DWORD PTR ?g_CastleSiege@@3VCCastleSiege@@A+496, ecx

; 1743 : 			g_CastleSiege.SetCrownAccessUserX(lpObj->X);

  001e5	8a 96 44 01 00
	00		 mov	 dl, BYTE PTR [esi+324]
  001eb	88 15 f4 01 00
	00		 mov	 BYTE PTR ?g_CastleSiege@@3VCCastleSiege@@A+500, dl

; 1744 : 			g_CastleSiege.SetCrownAccessUserY(lpObj->Y);

  001f1	8a 86 46 01 00
	00		 mov	 al, BYTE PTR [esi+326]
  001f7	83 c4 08	 add	 esp, 8

; 1745 : 			g_CastleSiege.SetCrownAccessTickCount();

  001fa	b9 00 00 00 00	 mov	 ecx, OFFSET ?g_CastleSiege@@3VCCastleSiege@@A ; g_CastleSiege
  001ff	a2 f5 01 00 00	 mov	 BYTE PTR ?g_CastleSiege@@3VCCastleSiege@@A+501, al
  00204	e8 00 00 00 00	 call	 ?SetCrownAccessTickCount@CCastleSiege@@QAEXXZ ; CCastleSiege::SetCrownAccessTickCount

; 1746 : 			g_CastleSiege.NotifyAllUserCsProgState(0,lpObj->GuildName);

  00209	8d be 3c 04 00
	00		 lea	 edi, DWORD PTR [esi+1084]
  0020f	57		 push	 edi
  00210	6a 00		 push	 0
  00212	b9 00 00 00 00	 mov	 ecx, OFFSET ?g_CastleSiege@@3VCCastleSiege@@A ; g_CastleSiege
  00217	e8 00 00 00 00	 call	 ?NotifyAllUserCsProgState@CCastleSiege@@QAEXEPAD@Z ; CCastleSiege::NotifyAllUserCsProgState

; 1747 : 
; 1748 : #if(EVOMU_CASTLE_SEGE==TRUE)
; 1749 : 			if(g_ZtLicense.CheckUser(eZtUB::Gredy) || g_ZtLicense.CheckUser(eZtUB::GredyLocal) || g_ZtLicense.CheckUser(eZtUB::Gredy2))

  0021c	6a 20		 push	 32			; 00000020H
  0021e	b9 00 00 00 00	 mov	 ecx, OFFSET ?g_ZtLicense@@3VCZtLicense@@A ; g_ZtLicense
  00223	e8 00 00 00 00	 call	 ?CheckUser@CZtLicense@@QAE_NH@Z ; CZtLicense::CheckUser
  00228	84 c0		 test	 al, al
  0022a	75 20		 jne	 SHORT $LN5@NpcCastleC
  0022c	6a 21		 push	 33			; 00000021H
  0022e	b9 00 00 00 00	 mov	 ecx, OFFSET ?g_ZtLicense@@3VCZtLicense@@A ; g_ZtLicense
  00233	e8 00 00 00 00	 call	 ?CheckUser@CZtLicense@@QAE_NH@Z ; CZtLicense::CheckUser
  00238	84 c0		 test	 al, al
  0023a	75 10		 jne	 SHORT $LN5@NpcCastleC
  0023c	6a 22		 push	 34			; 00000022H
  0023e	b9 00 00 00 00	 mov	 ecx, OFFSET ?g_ZtLicense@@3VCZtLicense@@A ; g_ZtLicense
  00243	e8 00 00 00 00	 call	 ?CheckUser@CZtLicense@@QAE_NH@Z ; CZtLicense::CheckUser
  00248	84 c0		 test	 al, al
  0024a	74 07		 je	 SHORT $LN6@NpcCastleC
$LN5@NpcCastleC:

; 1750 : 			{
; 1751 : 				lpObj->CrownNpc = true;

  0024c	c6 86 89 28 00
	00 01		 mov	 BYTE PTR [esi+10377], 1
$LN6@NpcCastleC:

; 1752 : 			}
; 1753 : #endif
; 1754 : 
; 1755 : 			if(g_ZtLicense.CheckUser(eZtUB::Artem) || g_ZtLicense.CheckUser(eZtUB::Artem2))

  00253	6a 30		 push	 48			; 00000030H
  00255	b9 00 00 00 00	 mov	 ecx, OFFSET ?g_ZtLicense@@3VCZtLicense@@A ; g_ZtLicense
  0025a	e8 00 00 00 00	 call	 ?CheckUser@CZtLicense@@QAE_NH@Z ; CZtLicense::CheckUser
  0025f	84 c0		 test	 al, al
  00261	75 10		 jne	 SHORT $LN3@NpcCastleC
  00263	6a 31		 push	 49			; 00000031H
  00265	b9 00 00 00 00	 mov	 ecx, OFFSET ?g_ZtLicense@@3VCZtLicense@@A ; g_ZtLicense
  0026a	e8 00 00 00 00	 call	 ?CheckUser@CZtLicense@@QAE_NH@Z ; CZtLicense::CheckUser
  0026f	84 c0		 test	 al, al
  00271	74 07		 je	 SHORT $LN4@NpcCastleC
$LN3@NpcCastleC:

; 1756 : 			{
; 1757 : 				lpObj->CrownNpc = true;

  00273	c6 86 89 28 00
	00 01		 mov	 BYTE PTR [esi+10377], 1
$LN4@NpcCastleC:

; 1758 : 			}
; 1759 : 
; 1760 : 			LogAddTD("[CastleSiege] [%s][%s] Start to Register Castle Crown (GUILD:%s)",lpObj->AccountID,lpObj->Name,lpObj->GuildName);

  0027a	57		 push	 edi
  0027b	8d 4e 77	 lea	 ecx, DWORD PTR [esi+119]
  0027e	51		 push	 ecx
  0027f	83 c6 6c	 add	 esi, 108		; 0000006cH
  00282	56		 push	 esi
  00283	68 00 00 00 00	 push	 OFFSET ??_C@_0EB@GAPHDLGF@?$FLCastleSiege?$FN?5?$FL?$CFs?$FN?$FL?$CFs?$FN?5Start?5to?5@
  00288	ff 15 00 00 00
	00		 call	 DWORD PTR ?LogAddTD@@3P6AXPADZZA ; LogAddTD
  0028e	83 c4 10	 add	 esp, 16			; 00000010H
  00291	5f		 pop	 edi
  00292	5b		 pop	 ebx
  00293	b8 01 00 00 00	 mov	 eax, 1
  00298	5e		 pop	 esi

; 1766 : 	}
; 1767 : 
; 1768 : 	return TRUE;
; 1769 : //#else
; 1770 : //	return TRUE;
; 1771 : //#endif
; 1772 : }

  00299	5d		 pop	 ebp
  0029a	c3		 ret	 0
$LN8@NpcCastleC:

; 1734 : 		{
; 1735 : 			GCAnsCsAccessCrownState(lpObj->m_Index,4);

  0029b	8b 16		 mov	 edx, DWORD PTR [esi]
  0029d	6a 04		 push	 4
  0029f	52		 push	 edx
  002a0	e8 00 00 00 00	 call	 ?GCAnsCsAccessCrownState@@YAXHE@Z ; GCAnsCsAccessCrownState

; 1736 : 			LogAddTD("[CastleSiege] [%s][%s] Failed to Register Castle Crown (GUILD:%s) (S1:%s/%s)(S2:%s/%s)",lpObj->AccountID,lpObj->Name,lpObj->GuildName,gObj[iSwitchIndex1].Name,gObj[iSwitchIndex1].GuildName,gObj[iSwitchIndex2].Name,gObj[iSwitchIndex2].GuildName);

  002a5	69 db 50 2b 00
	00		 imul	 ebx, 11088		; 00002b50H
  002ab	a1 00 00 00 00	 mov	 eax, DWORD PTR ?gObj@@3PAUOBJECTSTRUCT@@A ; gObj
  002b0	8d 0c 03	 lea	 ecx, DWORD PTR [ebx+eax]
  002b3	8d 91 3c 04 00
	00		 lea	 edx, DWORD PTR [ecx+1084]
  002b9	52		 push	 edx
  002ba	83 c1 77	 add	 ecx, 119		; 00000077H
  002bd	51		 push	 ecx
  002be	8d 8c 07 3c 04
	00 00		 lea	 ecx, DWORD PTR [edi+eax+1084]
  002c5	51		 push	 ecx
  002c6	8d 54 07 77	 lea	 edx, DWORD PTR [edi+eax+119]
  002ca	52		 push	 edx
  002cb	8d 86 3c 04 00
	00		 lea	 eax, DWORD PTR [esi+1084]
  002d1	50		 push	 eax
  002d2	8d 4e 77	 lea	 ecx, DWORD PTR [esi+119]
  002d5	51		 push	 ecx
  002d6	83 c6 6c	 add	 esi, 108		; 0000006cH
  002d9	56		 push	 esi
  002da	68 00 00 00 00	 push	 OFFSET ??_C@_0FH@PCDLBKGJ@?$FLCastleSiege?$FN?5?$FL?$CFs?$FN?$FL?$CFs?$FN?5Failed?5to@
  002df	ff 15 00 00 00
	00		 call	 DWORD PTR ?LogAddTD@@3P6AXPADZZA ; LogAddTD
  002e5	83 c4 28	 add	 esp, 40			; 00000028H
  002e8	5f		 pop	 edi
  002e9	5b		 pop	 ebx
  002ea	b8 01 00 00 00	 mov	 eax, 1
  002ef	5e		 pop	 esi

; 1766 : 	}
; 1767 : 
; 1768 : 	return TRUE;
; 1769 : //#else
; 1770 : //	return TRUE;
; 1771 : //#endif
; 1772 : }

  002f0	5d		 pop	 ebp
  002f1	c3		 ret	 0
$LN10@NpcCastleC:

; 1727 : 		{
; 1728 : 			GCAnsCsAccessCrownState(lpObj->m_Index,4);

  002f2	8b 16		 mov	 edx, DWORD PTR [esi]
  002f4	6a 04		 push	 4
  002f6	52		 push	 edx
  002f7	e8 00 00 00 00	 call	 ?GCAnsCsAccessCrownState@@YAXHE@Z ; GCAnsCsAccessCrownState

; 1729 : 			LogAddTD("[CastleSiege] [%s][%s] Failed to Register Castle Crown (GUILD:%s)",lpObj->AccountID,lpObj->Name,lpObj->GuildName);

  002fc	8d 86 3c 04 00
	00		 lea	 eax, DWORD PTR [esi+1084]
  00302	50		 push	 eax
  00303	8d 4e 77	 lea	 ecx, DWORD PTR [esi+119]
  00306	51		 push	 ecx
  00307	83 c6 6c	 add	 esi, 108		; 0000006cH
  0030a	56		 push	 esi
  0030b	68 00 00 00 00	 push	 OFFSET ??_C@_0EC@IEDCECMD@?$FLCastleSiege?$FN?5?$FL?$CFs?$FN?$FL?$CFs?$FN?5Failed?5to@
  00310	ff 15 00 00 00
	00		 call	 DWORD PTR ?LogAddTD@@3P6AXPADZZA ; LogAddTD
  00316	83 c4 18	 add	 esp, 24			; 00000018H
  00319	5f		 pop	 edi
  0031a	5b		 pop	 ebx

; 1730 : 			return TRUE;

  0031b	b8 01 00 00 00	 mov	 eax, 1
  00320	5e		 pop	 esi

; 1766 : 	}
; 1767 : 
; 1768 : 	return TRUE;
; 1769 : //#else
; 1770 : //	return TRUE;
; 1771 : //#endif
; 1772 : }

  00321	5d		 pop	 ebp
  00322	c3		 ret	 0
$LN12@NpcCastleC:

; 1761 : 		}
; 1762 : 	}
; 1763 : 	else if(lpObj->m_Index != iUserIndex)

  00323	8b 36		 mov	 esi, DWORD PTR [esi]
  00325	3b f7		 cmp	 esi, edi
  00327	74 0b		 je	 SHORT $LN1@NpcCastleC

; 1764 : 	{
; 1765 : 		GCAnsCsAccessCrownState(lpObj->m_Index,3);

  00329	6a 03		 push	 3
  0032b	56		 push	 esi
  0032c	e8 00 00 00 00	 call	 ?GCAnsCsAccessCrownState@@YAXHE@Z ; GCAnsCsAccessCrownState
  00331	83 c4 08	 add	 esp, 8
$LN1@NpcCastleC:
  00334	5f		 pop	 edi
  00335	5b		 pop	 ebx
$LN44@NpcCastleC:

; 1730 : 			return TRUE;

  00336	b8 01 00 00 00	 mov	 eax, 1
  0033b	5e		 pop	 esi

; 1766 : 	}
; 1767 : 
; 1768 : 	return TRUE;
; 1769 : //#else
; 1770 : //	return TRUE;
; 1771 : //#endif
; 1772 : }

  0033c	5d		 pop	 ebp
  0033d	c3		 ret	 0
?NpcCastleCrown@@YAHPAUOBJECTSTRUCT@@0@Z ENDP		; NpcCastleCrown
_TEXT	ENDS
PUBLIC	??_C@_0FD@GEIJDAJG@?$FLCastleSiege?$FN?5?$FL?$CFs?$FN?$FL?$CFs?$FN?5Start?5to?5@ ; `string'
PUBLIC	?NpcCastleSwitch@@YAHPAUOBJECTSTRUCT@@0@Z	; NpcCastleSwitch
EXTRN	?SetCrownSwitchUserIndex@CCastleSiege@@QAEXHH@Z:PROC ; CCastleSiege::SetCrownSwitchUserIndex
EXTRN	?GCAnsCsAccessSwitchState@@YAXHHHE@Z:PROC	; GCAnsCsAccessSwitchState
EXTRN	?MsgOutput@@YAXHPADZZ:PROC			; MsgOutput
EXTRN	?CheckGuardianStatueExist@CCastleSiege@@QAEHXZ:PROC ; CCastleSiege::CheckGuardianStatueExist
;	COMDAT ??_C@_0FD@GEIJDAJG@?$FLCastleSiege?$FN?5?$FL?$CFs?$FN?$FL?$CFs?$FN?5Start?5to?5@
; File e:\work\tranet_version\gs\gameserver\castlesiege.h
CONST	SEGMENT
??_C@_0FD@GEIJDAJG@?$FLCastleSiege?$FN?5?$FL?$CFs?$FN?$FL?$CFs?$FN?5Start?5to?5@ DB '['
	DB	'CastleSiege] [%s][%s] Start to Push Castle Crown Switch (GUIL'
	DB	'D:%s) - CS X:%d/Y:%d', 00H			; `string'
; Function compile flags: /Ogtp
; File e:\work\tranet_version\gs\gameserver\npctalk.cpp
CONST	ENDS
;	COMDAT ?NpcCastleSwitch@@YAHPAUOBJECTSTRUCT@@0@Z
_TEXT	SEGMENT
_lpNpc$ = 8						; size = 4
_lpObj$ = 12						; size = 4
?NpcCastleSwitch@@YAHPAUOBJECTSTRUCT@@0@Z PROC		; NpcCastleSwitch, COMDAT

; 1775 : {

  00000	55		 push	 ebp
  00001	8b ec		 mov	 ebp, esp
  00003	56		 push	 esi

; 1776 : 	
; 1777 : 	if(g_ZtLicense.CheckUser(eZtUB::PrideMu) || g_ZtLicense.CheckUser(eZtUB::PrideMuLocal) || g_ZtLicense.CheckUser(eZtUB::Local3))

  00004	6a 11		 push	 17			; 00000011H
  00006	b9 00 00 00 00	 mov	 ecx, OFFSET ?g_ZtLicense@@3VCZtLicense@@A ; g_ZtLicense
  0000b	e8 00 00 00 00	 call	 ?CheckUser@CZtLicense@@QAE_NH@Z ; CZtLicense::CheckUser
  00010	8b 75 0c	 mov	 esi, DWORD PTR _lpObj$[ebp]
  00013	84 c0		 test	 al, al
  00015	75 20		 jne	 SHORT $LN11@NpcCastleS
  00017	6a 1a		 push	 26			; 0000001aH
  00019	b9 00 00 00 00	 mov	 ecx, OFFSET ?g_ZtLicense@@3VCZtLicense@@A ; g_ZtLicense
  0001e	e8 00 00 00 00	 call	 ?CheckUser@CZtLicense@@QAE_NH@Z ; CZtLicense::CheckUser
  00023	84 c0		 test	 al, al
  00025	75 10		 jne	 SHORT $LN11@NpcCastleS
  00027	6a 1c		 push	 28			; 0000001cH
  00029	b9 00 00 00 00	 mov	 ecx, OFFSET ?g_ZtLicense@@3VCZtLicense@@A ; g_ZtLicense
  0002e	e8 00 00 00 00	 call	 ?CheckUser@CZtLicense@@QAE_NH@Z ; CZtLicense::CheckUser
  00033	84 c0		 test	 al, al
  00035	74 18		 je	 SHORT $LN10@NpcCastleS
$LN11@NpcCastleS:

; 1778 : 	{
; 1779 : 		if(CheckInCharacterItem(lpObj->m_Index,ITEMGET(13,4)))

  00037	8b 06		 mov	 eax, DWORD PTR [esi]
  00039	68 04 1a 00 00	 push	 6660			; 00001a04H
  0003e	50		 push	 eax
  0003f	e8 00 00 00 00	 call	 ?CheckInCharacterItem@@YA_NHH@Z ; CheckInCharacterItem
  00044	83 c4 08	 add	 esp, 8
  00047	84 c0		 test	 al, al

; 1780 : 		{
; 1781 : 			return TRUE;

  00049	0f 85 37 01 00
	00		 jne	 $LN19@NpcCastleS
$LN10@NpcCastleS:

; 1782 : 		}
; 1783 : 	}
; 1784 : 	//#if(GS_CASTLE==1)
; 1785 : 	if(gObjIsConnected(lpObj->m_Index) == FALSE )

  0004f	8b 0e		 mov	 ecx, DWORD PTR [esi]
  00051	51		 push	 ecx
  00052	e8 00 00 00 00	 call	 ?gObjIsConnected@@YAHH@Z ; gObjIsConnected
  00057	83 c4 04	 add	 esp, 4
  0005a	85 c0		 test	 eax, eax

; 1786 : 	{
; 1787 : 		return TRUE;

  0005c	0f 84 24 01 00
	00		 je	 $LN19@NpcCastleS

; 1788 : 	}
; 1789 : 
; 1790 : 	if(g_CastleSiege.GetCastleState() != CASTLESIEGE_STATE_STARTSIEGE)

  00062	83 3d 28 00 00
	00 07		 cmp	 DWORD PTR ?g_CastleSiege@@3VCCastleSiege@@A+40, 7

; 1791 : 	{
; 1792 : 		return TRUE;

  00069	0f 85 17 01 00
	00		 jne	 $LN19@NpcCastleS

; 1793 : 	}
; 1794 : 	
; 1795 : 	if(lpObj->m_btCsJoinSide < 2)

  0006f	80 be 02 1c 00
	00 02		 cmp	 BYTE PTR [esi+7170], 2

; 1796 : 	{
; 1797 : 		return TRUE;

  00076	0f 82 0a 01 00
	00		 jb	 $LN19@NpcCastleS

; 1798 : 	}
; 1799 : 
; 1800 : 	if( (abs(lpObj->Y - lpNpc->Y)) > 3 || (abs(lpObj->X - lpNpc->X)) > 3)

  0007c	0f bf 86 46 01
	00 00		 movsx	 eax, WORD PTR [esi+326]
  00083	57		 push	 edi
  00084	8b 7d 08	 mov	 edi, DWORD PTR _lpNpc$[ebp]
  00087	0f bf 97 46 01
	00 00		 movsx	 edx, WORD PTR [edi+326]
  0008e	2b c2		 sub	 eax, edx
  00090	99		 cdq
  00091	33 c2		 xor	 eax, edx
  00093	2b c2		 sub	 eax, edx
  00095	83 f8 03	 cmp	 eax, 3
  00098	0f 8f e7 00 00
	00		 jg	 $LN5@NpcCastleS
  0009e	0f bf 86 44 01
	00 00		 movsx	 eax, WORD PTR [esi+324]
  000a5	0f bf 8f 44 01
	00 00		 movsx	 ecx, WORD PTR [edi+324]
  000ac	2b c1		 sub	 eax, ecx
  000ae	99		 cdq
  000af	33 c2		 xor	 eax, edx
  000b1	2b c2		 sub	 eax, edx
  000b3	83 f8 03	 cmp	 eax, 3
  000b6	0f 8f c9 00 00
	00		 jg	 $LN5@NpcCastleS

; 1803 : 	}
; 1804 : 
; 1805 : 	if(g_CastleSiege.CheckGuardianStatueExist() == TRUE)

  000bc	b9 00 00 00 00	 mov	 ecx, OFFSET ?g_CastleSiege@@3VCCastleSiege@@A ; g_CastleSiege
  000c1	e8 00 00 00 00	 call	 ?CheckGuardianStatueExist@CCastleSiege@@QAEHXZ ; CCastleSiege::CheckGuardianStatueExist
  000c6	83 f8 01	 cmp	 eax, 1
  000c9	75 24		 jne	 SHORT $LN4@NpcCastleS

; 1806 : 	{
; 1807 : 		MsgOutput(lpObj->m_Index,lMsg.Get(MSGGET(6, 200)));

  000cb	68 c8 06 00 00	 push	 1736			; 000006c8H
  000d0	b9 00 00 00 00	 mov	 ecx, OFFSET ?lMsg@@3VCMsg@@A ; lMsg
  000d5	e8 00 00 00 00	 call	 ?Get@CMsg@@QAEPADH@Z	; CMsg::Get
  000da	8b 16		 mov	 edx, DWORD PTR [esi]
  000dc	50		 push	 eax
  000dd	52		 push	 edx
  000de	e8 00 00 00 00	 call	 ?MsgOutput@@YAXHPADZZ	; MsgOutput
  000e3	83 c4 08	 add	 esp, 8
  000e6	5f		 pop	 edi
  000e7	b8 01 00 00 00	 mov	 eax, 1
  000ec	5e		 pop	 esi

; 1822 : 	}
; 1823 : 
; 1824 : 	return TRUE;
; 1825 : //#else
; 1826 : //	return TRUE;
; 1827 : //#endif
; 1828 : }

  000ed	5d		 pop	 ebp
  000ee	c3		 ret	 0
$LN4@NpcCastleS:

; 1808 : 		return TRUE;
; 1809 : 	}
; 1810 : 
; 1811 : 	int iUserIndex = g_CastleSiege.GetCrownSwitchUserIndex(lpNpc->Class);

  000ef	0f b7 87 b8 00
	00 00		 movzx	 eax, WORD PTR [edi+184]
  000f6	53		 push	 ebx
  000f7	50		 push	 eax
  000f8	b9 00 00 00 00	 mov	 ecx, OFFSET ?g_CastleSiege@@3VCCastleSiege@@A ; g_CastleSiege
  000fd	e8 00 00 00 00	 call	 ?GetCrownSwitchUserIndex@CCastleSiege@@QAEHH@Z ; CCastleSiege::GetCrownSwitchUserIndex
  00102	8b d8		 mov	 ebx, eax

; 1812 : 
; 1813 : 	if(!gObjIsConnected(iUserIndex))

  00104	53		 push	 ebx
  00105	e8 00 00 00 00	 call	 ?gObjIsConnected@@YAHH@Z ; gObjIsConnected
  0010a	83 c4 04	 add	 esp, 4
  0010d	85 c0		 test	 eax, eax
  0010f	75 5e		 jne	 SHORT $LN3@NpcCastleS

; 1814 : 	{
; 1815 : 		GCAnsCsAccessSwitchState(lpObj->m_Index,lpNpc->m_Index,-1,1);

  00111	8b 0f		 mov	 ecx, DWORD PTR [edi]
  00113	8b 16		 mov	 edx, DWORD PTR [esi]
  00115	6a 01		 push	 1
  00117	6a ff		 push	 -1
  00119	51		 push	 ecx
  0011a	52		 push	 edx
  0011b	e8 00 00 00 00	 call	 ?GCAnsCsAccessSwitchState@@YAXHHHE@Z ; GCAnsCsAccessSwitchState

; 1816 : 		g_CastleSiege.SetCrownSwitchUserIndex(lpNpc->Class,lpObj->m_Index);

  00120	0f b7 8f b8 00
	00 00		 movzx	 ecx, WORD PTR [edi+184]
  00127	8b 06		 mov	 eax, DWORD PTR [esi]
  00129	83 c4 10	 add	 esp, 16			; 00000010H
  0012c	50		 push	 eax
  0012d	51		 push	 ecx
  0012e	b9 00 00 00 00	 mov	 ecx, OFFSET ?g_CastleSiege@@3VCCastleSiege@@A ; g_CastleSiege
  00133	e8 00 00 00 00	 call	 ?SetCrownSwitchUserIndex@CCastleSiege@@QAEXHH@Z ; CCastleSiege::SetCrownSwitchUserIndex

; 1817 : 		LogAddTD("[CastleSiege] [%s][%s] Start to Push Castle Crown Switch (GUILD:%s) - CS X:%d/Y:%d",lpObj->AccountID,lpObj->Name,lpObj->GuildName,lpNpc->X,lpNpc->Y);

  00138	0f bf 97 46 01
	00 00		 movsx	 edx, WORD PTR [edi+326]
  0013f	0f bf 87 44 01
	00 00		 movsx	 eax, WORD PTR [edi+324]
  00146	52		 push	 edx
  00147	50		 push	 eax
  00148	8d 8e 3c 04 00
	00		 lea	 ecx, DWORD PTR [esi+1084]
  0014e	51		 push	 ecx
  0014f	8d 56 77	 lea	 edx, DWORD PTR [esi+119]
  00152	52		 push	 edx
  00153	83 c6 6c	 add	 esi, 108		; 0000006cH
  00156	56		 push	 esi
  00157	68 00 00 00 00	 push	 OFFSET ??_C@_0FD@GEIJDAJG@?$FLCastleSiege?$FN?5?$FL?$CFs?$FN?$FL?$CFs?$FN?5Start?5to?5@
  0015c	ff 15 00 00 00
	00		 call	 DWORD PTR ?LogAddTD@@3P6AXPADZZA ; LogAddTD
  00162	83 c4 18	 add	 esp, 24			; 00000018H
  00165	5b		 pop	 ebx
  00166	5f		 pop	 edi
  00167	b8 01 00 00 00	 mov	 eax, 1
  0016c	5e		 pop	 esi

; 1822 : 	}
; 1823 : 
; 1824 : 	return TRUE;
; 1825 : //#else
; 1826 : //	return TRUE;
; 1827 : //#endif
; 1828 : }

  0016d	5d		 pop	 ebp
  0016e	c3		 ret	 0
$LN3@NpcCastleS:

; 1818 : 	}
; 1819 : 	else if(lpObj->m_Index != iUserIndex)

  0016f	8b 36		 mov	 esi, DWORD PTR [esi]
  00171	3b f3		 cmp	 esi, ebx
  00173	74 0f		 je	 SHORT $LN17@NpcCastleS

; 1820 : 	{
; 1821 : 		GCAnsCsAccessSwitchState(lpObj->m_Index,lpNpc->m_Index,iUserIndex,2);

  00175	8b 07		 mov	 eax, DWORD PTR [edi]
  00177	6a 02		 push	 2
  00179	53		 push	 ebx
  0017a	50		 push	 eax
  0017b	56		 push	 esi
  0017c	e8 00 00 00 00	 call	 ?GCAnsCsAccessSwitchState@@YAXHHHE@Z ; GCAnsCsAccessSwitchState
  00181	83 c4 10	 add	 esp, 16			; 00000010H
$LN17@NpcCastleS:
  00184	5b		 pop	 ebx
$LN5@NpcCastleS:
  00185	5f		 pop	 edi
$LN19@NpcCastleS:

; 1801 : 	{
; 1802 : 		return TRUE;

  00186	b8 01 00 00 00	 mov	 eax, 1
  0018b	5e		 pop	 esi

; 1822 : 	}
; 1823 : 
; 1824 : 	return TRUE;
; 1825 : //#else
; 1826 : //	return TRUE;
; 1827 : //#endif
; 1828 : }

  0018c	5d		 pop	 ebp
  0018d	c3		 ret	 0
?NpcCastleSwitch@@YAHPAUOBJECTSTRUCT@@0@Z ENDP		; NpcCastleSwitch
_TEXT	ENDS
PUBLIC	__$ArrayPad$
PUBLIC	?NpcCastleHuntZoneGuard@@YAHPAUOBJECTSTRUCT@@0@Z ; NpcCastleHuntZoneGuard
EXTRN	?GetTaxHuntZone@CCastleSiegeSync@@QAEHHH@Z:PROC	; CCastleSiegeSync::GetTaxHuntZone
; Function compile flags: /Ogtp
;	COMDAT ?NpcCastleHuntZoneGuard@@YAHPAUOBJECTSTRUCT@@0@Z
_TEXT	SEGMENT
_pResult$ = -24						; size = 20
__$ArrayPad$ = -4					; size = 4
_lpNpc$ = 8						; size = 4
_lpObj$ = 12						; size = 4
?NpcCastleHuntZoneGuard@@YAHPAUOBJECTSTRUCT@@0@Z PROC	; NpcCastleHuntZoneGuard, COMDAT

; 1842 : {

  00000	55		 push	 ebp
  00001	8b ec		 mov	 ebp, esp
  00003	83 ec 18	 sub	 esp, 24			; 00000018H
  00006	a1 00 00 00 00	 mov	 eax, DWORD PTR ___security_cookie
  0000b	33 c5		 xor	 eax, ebp
  0000d	89 45 fc	 mov	 DWORD PTR __$ArrayPad$[ebp], eax
  00010	56		 push	 esi
  00011	8b 75 0c	 mov	 esi, DWORD PTR _lpObj$[ebp]

; 1843 : 	if(gObjIsConnected(lpObj->m_Index) == FALSE )

  00014	8b 06		 mov	 eax, DWORD PTR [esi]
  00016	50		 push	 eax
  00017	e8 00 00 00 00	 call	 ?gObjIsConnected@@YAHH@Z ; gObjIsConnected
  0001c	83 c4 04	 add	 esp, 4
  0001f	85 c0		 test	 eax, eax

; 1844 : 	{
; 1845 : 		return TRUE;

  00021	0f 84 d2 00 00
	00		 je	 $LN16@NpcCastleH

; 1846 : 	}
; 1847 : 
; 1848 : 	if ( (lpObj->m_IfState.use ) > 0 )

  00027	f6 86 1c 0e 00
	00 03		 test	 BYTE PTR [esi+3612], 3

; 1849 : 	{
; 1850 : 		return TRUE;

  0002e	0f 87 c5 00 00
	00		 ja	 $LN16@NpcCastleH

; 1851 : 	}
; 1852 : 
; 1853 : 	PMSG_ANS_GUARD_IN_CASTLE_HUNTZONE pResult = {0};
; 1854 : 
; 1855 : 	PHeadSubSetB((LPBYTE)&pResult,0xB9,0x03,sizeof(PMSG_ANS_GUARD_IN_CASTLE_HUNTZONE));

  00034	6a 14		 push	 20			; 00000014H
  00036	33 c0		 xor	 eax, eax
  00038	6a 03		 push	 3
  0003a	8d 4d e8	 lea	 ecx, DWORD PTR _pResult$[ebp]
  0003d	68 b9 00 00 00	 push	 185			; 000000b9H
  00042	51		 push	 ecx
  00043	c6 45 e8 00	 mov	 BYTE PTR _pResult$[ebp], 0
  00047	89 45 e9	 mov	 DWORD PTR _pResult$[ebp+1], eax
  0004a	89 45 ed	 mov	 DWORD PTR _pResult$[ebp+5], eax
  0004d	89 45 f1	 mov	 DWORD PTR _pResult$[ebp+9], eax
  00050	89 45 f5	 mov	 DWORD PTR _pResult$[ebp+13], eax
  00053	66 89 45 f9	 mov	 WORD PTR _pResult$[ebp+17], ax
  00057	88 45 fb	 mov	 BYTE PTR _pResult$[ebp+19], al
  0005a	e8 00 00 00 00	 call	 ?PHeadSubSetB@@YAXPAEEEH@Z ; PHeadSubSetB

; 1856 : 	pResult.btResult = TRUE;
; 1857 : 	pResult.iMaxPrice = 300000;
; 1858 : 	pResult.iUnitOfPrice = 10000;
; 1859 : 	pResult.btUsable = 0;
; 1860 : 	pResult.iCurrentPrice = 0;
; 1861 : 
; 1862 : 	pResult.iCurrentPrice = g_CastleSiegeSync.GetTaxHuntZone(lpObj->m_Index,FALSE);

  0005f	8b 16		 mov	 edx, DWORD PTR [esi]
  00061	83 c4 10	 add	 esp, 16			; 00000010H
  00064	6a 00		 push	 0
  00066	52		 push	 edx
  00067	b9 00 00 00 00	 mov	 ecx, OFFSET ?g_CastleSiegeSync@@3VCCastleSiegeSync@@A ; g_CastleSiegeSync
  0006c	c7 45 f4 e0 93
	04 00		 mov	 DWORD PTR _pResult$[ebp+12], 300000 ; 000493e0H
  00073	c7 45 f8 10 27
	00 00		 mov	 DWORD PTR _pResult$[ebp+16], 10000 ; 00002710H
  0007a	66 c7 45 ec 01
	00		 mov	 WORD PTR _pResult$[ebp+4], 1
  00080	c7 45 f0 00 00
	00 00		 mov	 DWORD PTR _pResult$[ebp+8], 0
  00087	e8 00 00 00 00	 call	 ?GetTaxHuntZone@CCastleSiegeSync@@QAEHHH@Z ; CCastleSiegeSync::GetTaxHuntZone
  0008c	89 45 f0	 mov	 DWORD PTR _pResult$[ebp+8], eax

; 1863 : 
; 1864 : 	if(g_CastleSiege.GetHuntZoneEnter())

  0008f	a1 fc 00 00 00	 mov	 eax, DWORD PTR ?g_CastleSiege@@3VCCastleSiege@@A+252
  00094	85 c0		 test	 eax, eax
  00096	74 04		 je	 SHORT $LN7@NpcCastleH

; 1865 : 	{
; 1866 : 		pResult.btUsable = TRUE;

  00098	c6 45 ed 01	 mov	 BYTE PTR _pResult$[ebp+5], 1
$LN7@NpcCastleH:

; 1867 : 	}
; 1868 : 
; 1869 : 	if(lpObj->lpGuild != NULL)

  0009c	83 be 38 04 00
	00 00		 cmp	 DWORD PTR [esi+1080], 0
  000a3	74 38		 je	 SHORT $LN6@NpcCastleH

; 1870 : 	{
; 1871 : 		if(g_CastleSiege.CheckCastleOwnerUnionMember(lpObj->m_Index))

  000a5	8b 06		 mov	 eax, DWORD PTR [esi]
  000a7	50		 push	 eax
  000a8	b9 00 00 00 00	 mov	 ecx, OFFSET ?g_CastleSiege@@3VCCastleSiege@@A ; g_CastleSiege
  000ad	e8 00 00 00 00	 call	 ?CheckCastleOwnerUnionMember@CCastleSiege@@QAEHH@Z ; CCastleSiege::CheckCastleOwnerUnionMember
  000b2	85 c0		 test	 eax, eax
  000b4	74 04		 je	 SHORT $LN5@NpcCastleH

; 1872 : 		{
; 1873 : 			pResult.btResult = 2;

  000b6	c6 45 ec 02	 mov	 BYTE PTR _pResult$[ebp+4], 2
$LN5@NpcCastleH:

; 1874 : 		}
; 1875 : 
; 1876 : 		if(g_CastleSiege.CheckCastleOwnerMember(lpObj->m_Index))

  000ba	8b 0e		 mov	 ecx, DWORD PTR [esi]
  000bc	51		 push	 ecx
  000bd	b9 00 00 00 00	 mov	 ecx, OFFSET ?g_CastleSiege@@3VCCastleSiege@@A ; g_CastleSiege
  000c2	e8 00 00 00 00	 call	 ?CheckCastleOwnerMember@CCastleSiege@@QAEHH@Z ; CCastleSiege::CheckCastleOwnerMember
  000c7	85 c0		 test	 eax, eax
  000c9	74 1a		 je	 SHORT $LN1@NpcCastleH

; 1877 : 		{
; 1878 : 			if(lpObj->GuildStatus == G_MASTER)

  000cb	81 be 48 04 00
	00 80 00 00 00	 cmp	 DWORD PTR [esi+1096], 128 ; 00000080H
  000d5	75 0e		 jne	 SHORT $LN1@NpcCastleH

; 1879 : 			{
; 1880 : 				pResult.btResult = 3;

  000d7	c6 45 ec 03	 mov	 BYTE PTR _pResult$[ebp+4], 3

; 1881 : 			}
; 1882 : 		}
; 1883 : 	}
; 1884 : 	else

  000db	eb 08		 jmp	 SHORT $LN1@NpcCastleH
$LN6@NpcCastleH:

; 1885 : 	{
; 1886 : 		if(g_CastleSiege.GetHuntZoneEnter())

  000dd	85 c0		 test	 eax, eax
  000df	74 04		 je	 SHORT $LN1@NpcCastleH

; 1887 : 		{
; 1888 : 			pResult.btResult = TRUE;

  000e1	c6 45 ec 01	 mov	 BYTE PTR _pResult$[ebp+4], 1
$LN1@NpcCastleH:

; 1889 : 		}
; 1890 : 	}
; 1891 : 
; 1892 : 	DataSend(lpObj->m_Index,(LPBYTE)&pResult,pResult.h.size);

  000e5	0f b6 55 e9	 movzx	 edx, BYTE PTR _pResult$[ebp+1]
  000e9	8b 0e		 mov	 ecx, DWORD PTR [esi]
  000eb	52		 push	 edx
  000ec	8d 45 e8	 lea	 eax, DWORD PTR _pResult$[ebp]
  000ef	50		 push	 eax
  000f0	51		 push	 ecx
  000f1	e8 00 00 00 00	 call	 ?DataSend@@YAHHPAEK@Z	; DataSend
  000f6	83 c4 0c	 add	 esp, 12			; 0000000cH
$LN16@NpcCastleH:

; 1893 : 
; 1894 : 	return TRUE;
; 1895 : }

  000f9	8b 4d fc	 mov	 ecx, DWORD PTR __$ArrayPad$[ebp]
  000fc	33 cd		 xor	 ecx, ebp
  000fe	b8 01 00 00 00	 mov	 eax, 1
  00103	5e		 pop	 esi
  00104	e8 00 00 00 00	 call	 @__security_check_cookie@4
  00109	8b e5		 mov	 esp, ebp
  0010b	5d		 pop	 ebp
  0010c	c3		 ret	 0
?NpcCastleHuntZoneGuard@@YAHPAUOBJECTSTRUCT@@0@Z ENDP	; NpcCastleHuntZoneGuard
_TEXT	ENDS
PUBLIC	?NpcShadowPhantom@@YAHPAUOBJECTSTRUCT@@0@Z	; NpcShadowPhantom
EXTRN	?gObjApplyBuffEffectDuration@@YAEPAUOBJECTSTRUCT@@HEHEHH@Z:PROC ; gObjApplyBuffEffectDuration
EXTRN	?g_iShadowPhantomMaxLevel@@3HA:DWORD		; g_iShadowPhantomMaxLevel
; Function compile flags: /Ogtp
;	COMDAT ?NpcShadowPhantom@@YAHPAUOBJECTSTRUCT@@0@Z
_TEXT	SEGMENT
_lpNpc$ = 8						; size = 4
_lpObj$ = 12						; size = 4
?NpcShadowPhantom@@YAHPAUOBJECTSTRUCT@@0@Z PROC		; NpcShadowPhantom, COMDAT

; 1899 : {

  00000	55		 push	 ebp
  00001	8b ec		 mov	 ebp, esp
  00003	56		 push	 esi

; 1900 : 
; 1901 : 	if ( gObjIsConnected(lpObj->m_Index) == FALSE )

  00004	8b 75 0c	 mov	 esi, DWORD PTR _lpObj$[ebp]
  00007	8b 06		 mov	 eax, DWORD PTR [esi]
  00009	50		 push	 eax
  0000a	e8 00 00 00 00	 call	 ?gObjIsConnected@@YAHH@Z ; gObjIsConnected
  0000f	83 c4 04	 add	 esp, 4
  00012	85 c0		 test	 eax, eax

; 1902 : 	{
; 1903 : 		return TRUE;

  00014	0f 84 a3 00 00
	00		 je	 $LN10@NpcShadowP

; 1904 : 	}
; 1905 : 
; 1906 : 	if ( lpObj->Level > g_iShadowPhantomMaxLevel || lpObj->ChangeUP3rd != false)

  0001a	0f b7 86 be 00
	00 00		 movzx	 eax, WORD PTR [esi+190]
  00021	53		 push	 ebx
  00022	0f bf d8	 movsx	 ebx, ax
  00025	3b 1d 00 00 00
	00		 cmp	 ebx, DWORD PTR ?g_iShadowPhantomMaxLevel@@3HA ; g_iShadowPhantomMaxLevel
  0002b	7f 7e		 jg	 SHORT $LN3@NpcShadowP
  0002d	80 be bc 00 00
	00 00		 cmp	 BYTE PTR [esi+188], 0
  00034	75 75		 jne	 SHORT $LN3@NpcShadowP

; 1911 : 	}
; 1912 : 
; 1913 : 	int iAttack = 0;
; 1914 : 	int iDefense = 0;
; 1915 : 	int iDuration = 0;
; 1916 : 
; 1917 : 	if ( lpObj->Level <= 180 )

  00036	b9 b4 00 00 00	 mov	 ecx, 180		; 000000b4H
  0003b	57		 push	 edi
  0003c	66 3b c1	 cmp	 ax, cx
  0003f	7f 2b		 jg	 SHORT $LN2@NpcShadowP

; 1918 : 	{
; 1919 : 		iAttack = lpObj->Level / 3 + 45;

  00041	0f bf 8e be 00
	00 00		 movsx	 ecx, WORD PTR [esi+190]
  00048	b8 56 55 55 55	 mov	 eax, 1431655766		; 55555556H
  0004d	f7 e9		 imul	 ecx
  0004f	8b c2		 mov	 eax, edx
  00051	c1 e8 1f	 shr	 eax, 31			; 0000001fH
  00054	8d 7c 02 2d	 lea	 edi, DWORD PTR [edx+eax+45]

; 1920 : 		iDefense = lpObj->Level / 5 + 50;

  00058	b8 67 66 66 66	 mov	 eax, 1717986919		; 66666667H
  0005d	f7 e9		 imul	 ecx
  0005f	d1 fa		 sar	 edx, 1
  00061	8b ca		 mov	 ecx, edx
  00063	c1 e9 1f	 shr	 ecx, 31			; 0000001fH
  00066	8d 4c 0a 32	 lea	 ecx, DWORD PTR [edx+ecx+50]

; 1921 : 	}
; 1922 : 	else

  0006a	eb 08		 jmp	 SHORT $LN1@NpcShadowP
$LN2@NpcShadowP:

; 1923 : 	{
; 1924 : 		iAttack = 105;

  0006c	bf 69 00 00 00	 mov	 edi, 105		; 00000069H

; 1925 : 		iDefense = 86;

  00071	8d 4f ed	 lea	 ecx, DWORD PTR [edi-19]
$LN1@NpcShadowP:

; 1926 : 	}
; 1927 : 
; 1928 : 	iDuration = (lpObj->Level / 6 + 30) * 60;

  00074	b8 ab aa aa 2a	 mov	 eax, 715827883		; 2aaaaaabH
  00079	f7 eb		 imul	 ebx
  0007b	8b c2		 mov	 eax, edx
  0007d	c1 e8 1f	 shr	 eax, 31			; 0000001fH

; 1929 : 
; 1930 : 	gObjApplyBuffEffectDuration(lpObj, AT_NPC_HELP, 2, iAttack, 3, iDefense, iDuration);

  00080	8d 44 02 1e	 lea	 eax, DWORD PTR [edx+eax+30]
  00084	8b d0		 mov	 edx, eax
  00086	c1 e2 04	 shl	 edx, 4
  00089	2b d0		 sub	 edx, eax
  0008b	03 d2		 add	 edx, edx
  0008d	03 d2		 add	 edx, edx
  0008f	52		 push	 edx
  00090	51		 push	 ecx
  00091	6a 03		 push	 3
  00093	57		 push	 edi
  00094	6a 02		 push	 2
  00096	6a 03		 push	 3
  00098	56		 push	 esi
  00099	e8 00 00 00 00	 call	 ?gObjApplyBuffEffectDuration@@YAEPAUOBJECTSTRUCT@@HEHEHH@Z ; gObjApplyBuffEffectDuration
  0009e	83 c4 1c	 add	 esp, 28			; 0000001cH
  000a1	5f		 pop	 edi
  000a2	5b		 pop	 ebx
  000a3	b8 01 00 00 00	 mov	 eax, 1
  000a8	5e		 pop	 esi

; 1931 : 	return TRUE;
; 1932 : 
; 1933 : 	//if ( gObjIsConnected(lpObj->m_Index) == FALSE )
; 1934 : 	//{
; 1935 : 	//	return TRUE;
; 1936 : 	//}
; 1937 : 	////Season 5 Quest
; 1938 : 	//BYTE Packet[12] = { 0xC3,0x0C,0xF9,0x01,0x01,0x01,1,1,1,1,1,1};
; 1939 : 	//lpObj->TargetNumber = lpNpc->m_Index;
; 1940 : 	//lpObj->NPC = lpNpc->Class;
; 1941 : 	//DataSend(lpObj->m_Index, &Packet[0], Packet[1]);
; 1942 : 	//return TRUE;
; 1943 : }

  000a9	5d		 pop	 ebp
  000aa	c3		 ret	 0
$LN3@NpcShadowP:

; 1907 : 	{
; 1908 : 		GCServerCmd(lpObj->m_Index, 0x0D, 0, 0);

  000ab	8b 06		 mov	 eax, DWORD PTR [esi]
  000ad	6a 00		 push	 0
  000af	6a 00		 push	 0
  000b1	6a 0d		 push	 13			; 0000000dH
  000b3	50		 push	 eax
  000b4	e8 00 00 00 00	 call	 ?GCServerCmd@@YAXHEEE@Z	; GCServerCmd
  000b9	83 c4 10	 add	 esp, 16			; 00000010H
  000bc	5b		 pop	 ebx
$LN10@NpcShadowP:

; 1909 : 		
; 1910 : 		return TRUE;

  000bd	b8 01 00 00 00	 mov	 eax, 1
  000c2	5e		 pop	 esi

; 1931 : 	return TRUE;
; 1932 : 
; 1933 : 	//if ( gObjIsConnected(lpObj->m_Index) == FALSE )
; 1934 : 	//{
; 1935 : 	//	return TRUE;
; 1936 : 	//}
; 1937 : 	////Season 5 Quest
; 1938 : 	//BYTE Packet[12] = { 0xC3,0x0C,0xF9,0x01,0x01,0x01,1,1,1,1,1,1};
; 1939 : 	//lpObj->TargetNumber = lpNpc->m_Index;
; 1940 : 	//lpObj->NPC = lpNpc->Class;
; 1941 : 	//DataSend(lpObj->m_Index, &Packet[0], Packet[1]);
; 1942 : 	//return TRUE;
; 1943 : }

  000c3	5d		 pop	 ebp
  000c4	c3		 ret	 0
?NpcShadowPhantom@@YAHPAUOBJECTSTRUCT@@0@Z ENDP		; NpcShadowPhantom
_TEXT	ENDS
PUBLIC	?NpcCrywolfAltar@@YAHPAUOBJECTSTRUCT@@0@Z	; NpcCrywolfAltar
; Function compile flags: /Ogtp
;	COMDAT ?NpcCrywolfAltar@@YAHPAUOBJECTSTRUCT@@0@Z
_TEXT	SEGMENT
_lpNpc$ = 8						; size = 4
_lpObj$ = 12						; size = 4
?NpcCrywolfAltar@@YAHPAUOBJECTSTRUCT@@0@Z PROC		; NpcCrywolfAltar, COMDAT

; 1947 : {

  00000	55		 push	 ebp
  00001	8b ec		 mov	 ebp, esp

; 1948 : 	if ( gObjIsConnected(lpObj->m_Index) == FALSE )

  00003	8b 45 0c	 mov	 eax, DWORD PTR _lpObj$[ebp]
  00006	8b 08		 mov	 ecx, DWORD PTR [eax]
  00008	51		 push	 ecx
  00009	e8 00 00 00 00	 call	 ?gObjIsConnected@@YAHH@Z ; gObjIsConnected
  0000e	83 c4 04	 add	 esp, 4
  00011	b8 01 00 00 00	 mov	 eax, 1

; 1949 : 	{
; 1950 : 		return TRUE;
; 1951 : 	}
; 1952 : 	return TRUE;//Season 4.5 fix
; 1953 : }

  00016	5d		 pop	 ebp
  00017	c3		 ret	 0
?NpcCrywolfAltar@@YAHPAUOBJECTSTRUCT@@0@Z ENDP		; NpcCrywolfAltar
_TEXT	ENDS
PUBLIC	?NpcPamelaSupplier@@YAHPAUOBJECTSTRUCT@@0@Z	; NpcPamelaSupplier
; Function compile flags: /Ogtp
;	COMDAT ?NpcPamelaSupplier@@YAHPAUOBJECTSTRUCT@@0@Z
_TEXT	SEGMENT
_lpNpc$ = 8						; size = 4
_lpObj$ = 12						; size = 4
?NpcPamelaSupplier@@YAHPAUOBJECTSTRUCT@@0@Z PROC	; NpcPamelaSupplier, COMDAT

; 1957 : {

  00000	55		 push	 ebp
  00001	8b ec		 mov	 ebp, esp

; 1958 : 	if ( gObjIsConnected(lpObj->m_Index) == FALSE )

  00003	8b 45 0c	 mov	 eax, DWORD PTR _lpObj$[ebp]
  00006	8b 08		 mov	 ecx, DWORD PTR [eax]
  00008	51		 push	 ecx
  00009	e8 00 00 00 00	 call	 ?gObjIsConnected@@YAHH@Z ; gObjIsConnected
  0000e	83 c4 04	 add	 esp, 4
  00011	f7 d8		 neg	 eax
  00013	1b c0		 sbb	 eax, eax
  00015	40		 inc	 eax

; 1959 : 	{
; 1960 : 		return TRUE;
; 1961 : 	}
; 1962 : 	return FALSE;
; 1963 : }

  00016	5d		 pop	 ebp
  00017	c3		 ret	 0
?NpcPamelaSupplier@@YAHPAUOBJECTSTRUCT@@0@Z ENDP	; NpcPamelaSupplier
_TEXT	ENDS
PUBLIC	?NpcAngelaSupplier@@YAHPAUOBJECTSTRUCT@@0@Z	; NpcAngelaSupplier
; Function compile flags: /Ogtp
;	COMDAT ?NpcAngelaSupplier@@YAHPAUOBJECTSTRUCT@@0@Z
_TEXT	SEGMENT
_lpNpc$ = 8						; size = 4
_lpObj$ = 12						; size = 4
?NpcAngelaSupplier@@YAHPAUOBJECTSTRUCT@@0@Z PROC	; NpcAngelaSupplier, COMDAT

; 1966 : {

  00000	55		 push	 ebp
  00001	8b ec		 mov	 ebp, esp

; 1967 : 	if ( gObjIsConnected(lpObj->m_Index) == FALSE )

  00003	8b 45 0c	 mov	 eax, DWORD PTR _lpObj$[ebp]
  00006	8b 08		 mov	 ecx, DWORD PTR [eax]
  00008	51		 push	 ecx
  00009	e8 00 00 00 00	 call	 ?gObjIsConnected@@YAHH@Z ; gObjIsConnected
  0000e	83 c4 04	 add	 esp, 4
  00011	f7 d8		 neg	 eax
  00013	1b c0		 sbb	 eax, eax
  00015	40		 inc	 eax

; 1968 : 	{
; 1969 : 		return TRUE;
; 1970 : 	}
; 1971 : 	return FALSE;
; 1972 : }

  00016	5d		 pop	 ebp
  00017	c3		 ret	 0
?NpcAngelaSupplier@@YAHPAUOBJECTSTRUCT@@0@Z ENDP	; NpcAngelaSupplier
_TEXT	ENDS
PUBLIC	?NpcFirecrackerMerchant@@YAHPAUOBJECTSTRUCT@@0@Z ; NpcFirecrackerMerchant
; Function compile flags: /Ogtp
;	COMDAT ?NpcFirecrackerMerchant@@YAHPAUOBJECTSTRUCT@@0@Z
_TEXT	SEGMENT
_lpNpc$ = 8						; size = 4
_lpObj$ = 12						; size = 4
?NpcFirecrackerMerchant@@YAHPAUOBJECTSTRUCT@@0@Z PROC	; NpcFirecrackerMerchant, COMDAT

; 1975 : {

  00000	55		 push	 ebp
  00001	8b ec		 mov	 ebp, esp

; 1976 : 	if ( gObjIsConnected(lpObj->m_Index) == FALSE )

  00003	8b 45 0c	 mov	 eax, DWORD PTR _lpObj$[ebp]
  00006	8b 08		 mov	 ecx, DWORD PTR [eax]
  00008	51		 push	 ecx
  00009	e8 00 00 00 00	 call	 ?gObjIsConnected@@YAHH@Z ; gObjIsConnected
  0000e	83 c4 04	 add	 esp, 4
  00011	f7 d8		 neg	 eax
  00013	1b c0		 sbb	 eax, eax
  00015	40		 inc	 eax

; 1977 : 	{
; 1978 : 		return TRUE;
; 1979 : 	}
; 1980 : 	return FALSE;
; 1981 : }

  00016	5d		 pop	 ebp
  00017	c3		 ret	 0
?NpcFirecrackerMerchant@@YAHPAUOBJECTSTRUCT@@0@Z ENDP	; NpcFirecrackerMerchant
_TEXT	ENDS
PUBLIC	?NpcIllusionStatue@@YAHPAUOBJECTSTRUCT@@0@Z	; NpcIllusionStatue
EXTRN	?SetNpcStatueUser@CIllusionTempleEvent@@QAEXEPAUOBJECTSTRUCT@@0@Z:PROC ; CIllusionTempleEvent::SetNpcStatueUser
EXTRN	?g_IllusionTempleEvent@@3VCIllusionTempleEvent@@A:BYTE ; g_IllusionTempleEvent
; Function compile flags: /Ogtp
;	COMDAT ?NpcIllusionStatue@@YAHPAUOBJECTSTRUCT@@0@Z
_TEXT	SEGMENT
_lpNpc$ = 8						; size = 4
_lpObj$ = 12						; size = 4
?NpcIllusionStatue@@YAHPAUOBJECTSTRUCT@@0@Z PROC	; NpcIllusionStatue, COMDAT

; 1986 : {

  00000	55		 push	 ebp
  00001	8b ec		 mov	 ebp, esp
  00003	56		 push	 esi

; 1987 : 	if ( gObjIsConnected(lpObj->m_Index) == FALSE )

  00004	8b 75 0c	 mov	 esi, DWORD PTR _lpObj$[ebp]
  00007	8b 06		 mov	 eax, DWORD PTR [esi]
  00009	50		 push	 eax
  0000a	e8 00 00 00 00	 call	 ?gObjIsConnected@@YAHH@Z ; gObjIsConnected
  0000f	83 c4 04	 add	 esp, 4
  00012	85 c0		 test	 eax, eax

; 1988 : 	{
; 1989 : 		return TRUE;

  00014	74 17		 je	 SHORT $LN4@NpcIllusio

; 1990 : 	}
; 1991 : 
; 1992 : 	g_IllusionTempleEvent.SetNpcStatueUser(lpObj->MapNumber, lpNpc, lpObj);

  00016	8b 4d 08	 mov	 ecx, DWORD PTR _lpNpc$[ebp]
  00019	0f b6 96 49 01
	00 00		 movzx	 edx, BYTE PTR [esi+329]
  00020	56		 push	 esi
  00021	51		 push	 ecx
  00022	52		 push	 edx
  00023	b9 00 00 00 00	 mov	 ecx, OFFSET ?g_IllusionTempleEvent@@3VCIllusionTempleEvent@@A ; g_IllusionTempleEvent
  00028	e8 00 00 00 00	 call	 ?SetNpcStatueUser@CIllusionTempleEvent@@QAEXEPAUOBJECTSTRUCT@@0@Z ; CIllusionTempleEvent::SetNpcStatueUser
$LN4@NpcIllusio:

; 1993 : 
; 1994 : 	return TRUE;

  0002d	b8 01 00 00 00	 mov	 eax, 1
  00032	5e		 pop	 esi

; 1995 : }

  00033	5d		 pop	 ebp
  00034	c3		 ret	 0
?NpcIllusionStatue@@YAHPAUOBJECTSTRUCT@@0@Z ENDP	; NpcIllusionStatue
_TEXT	ENDS
PUBLIC	?NpcIllusionYellowPedestal@@YAHPAUOBJECTSTRUCT@@0@Z ; NpcIllusionYellowPedestal
EXTRN	?SetNpcAlliedUser@CIllusionTempleEvent@@QAEXEPAUOBJECTSTRUCT@@0@Z:PROC ; CIllusionTempleEvent::SetNpcAlliedUser
; Function compile flags: /Ogtp
;	COMDAT ?NpcIllusionYellowPedestal@@YAHPAUOBJECTSTRUCT@@0@Z
_TEXT	SEGMENT
_lpNpc$ = 8						; size = 4
_lpObj$ = 12						; size = 4
?NpcIllusionYellowPedestal@@YAHPAUOBJECTSTRUCT@@0@Z PROC ; NpcIllusionYellowPedestal, COMDAT

; 1998 : {

  00000	55		 push	 ebp
  00001	8b ec		 mov	 ebp, esp
  00003	56		 push	 esi

; 1999 : 	if ( gObjIsConnected(lpObj->m_Index) == FALSE )

  00004	8b 75 0c	 mov	 esi, DWORD PTR _lpObj$[ebp]
  00007	8b 06		 mov	 eax, DWORD PTR [esi]
  00009	50		 push	 eax
  0000a	e8 00 00 00 00	 call	 ?gObjIsConnected@@YAHH@Z ; gObjIsConnected
  0000f	83 c4 04	 add	 esp, 4
  00012	85 c0		 test	 eax, eax

; 2000 : 	{
; 2001 : 		return TRUE;

  00014	74 17		 je	 SHORT $LN4@NpcIllusio@2

; 2002 : 	}
; 2003 : 
; 2004 : 	g_IllusionTempleEvent.SetNpcAlliedUser(lpObj->MapNumber, lpNpc, lpObj);

  00016	8b 4d 08	 mov	 ecx, DWORD PTR _lpNpc$[ebp]
  00019	0f b6 96 49 01
	00 00		 movzx	 edx, BYTE PTR [esi+329]
  00020	56		 push	 esi
  00021	51		 push	 ecx
  00022	52		 push	 edx
  00023	b9 00 00 00 00	 mov	 ecx, OFFSET ?g_IllusionTempleEvent@@3VCIllusionTempleEvent@@A ; g_IllusionTempleEvent
  00028	e8 00 00 00 00	 call	 ?SetNpcAlliedUser@CIllusionTempleEvent@@QAEXEPAUOBJECTSTRUCT@@0@Z ; CIllusionTempleEvent::SetNpcAlliedUser
$LN4@NpcIllusio@2:

; 2005 : 
; 2006 : 	return TRUE;

  0002d	b8 01 00 00 00	 mov	 eax, 1
  00032	5e		 pop	 esi

; 2007 : }

  00033	5d		 pop	 ebp
  00034	c3		 ret	 0
?NpcIllusionYellowPedestal@@YAHPAUOBJECTSTRUCT@@0@Z ENDP ; NpcIllusionYellowPedestal
_TEXT	ENDS
PUBLIC	?NpcIllusionBluePedestal@@YAHPAUOBJECTSTRUCT@@0@Z ; NpcIllusionBluePedestal
EXTRN	?SetNpcRelicsUser@CIllusionTempleEvent@@QAEXEPAUOBJECTSTRUCT@@0@Z:PROC ; CIllusionTempleEvent::SetNpcRelicsUser
; Function compile flags: /Ogtp
;	COMDAT ?NpcIllusionBluePedestal@@YAHPAUOBJECTSTRUCT@@0@Z
_TEXT	SEGMENT
_lpNpc$ = 8						; size = 4
_lpObj$ = 12						; size = 4
?NpcIllusionBluePedestal@@YAHPAUOBJECTSTRUCT@@0@Z PROC	; NpcIllusionBluePedestal, COMDAT

; 2010 : {

  00000	55		 push	 ebp
  00001	8b ec		 mov	 ebp, esp
  00003	56		 push	 esi

; 2011 : 	if ( gObjIsConnected(lpObj->m_Index) == FALSE )

  00004	8b 75 0c	 mov	 esi, DWORD PTR _lpObj$[ebp]
  00007	8b 06		 mov	 eax, DWORD PTR [esi]
  00009	50		 push	 eax
  0000a	e8 00 00 00 00	 call	 ?gObjIsConnected@@YAHH@Z ; gObjIsConnected
  0000f	83 c4 04	 add	 esp, 4
  00012	85 c0		 test	 eax, eax

; 2012 : 	{
; 2013 : 		return TRUE;

  00014	74 17		 je	 SHORT $LN4@NpcIllusio@3

; 2014 : 	}
; 2015 : 
; 2016 : 	g_IllusionTempleEvent.SetNpcRelicsUser(lpObj->MapNumber, lpNpc, lpObj);

  00016	8b 4d 08	 mov	 ecx, DWORD PTR _lpNpc$[ebp]
  00019	0f b6 96 49 01
	00 00		 movzx	 edx, BYTE PTR [esi+329]
  00020	56		 push	 esi
  00021	51		 push	 ecx
  00022	52		 push	 edx
  00023	b9 00 00 00 00	 mov	 ecx, OFFSET ?g_IllusionTempleEvent@@3VCIllusionTempleEvent@@A ; g_IllusionTempleEvent
  00028	e8 00 00 00 00	 call	 ?SetNpcRelicsUser@CIllusionTempleEvent@@QAEXEPAUOBJECTSTRUCT@@0@Z ; CIllusionTempleEvent::SetNpcRelicsUser
$LN4@NpcIllusio@3:

; 2017 : 
; 2018 : 	return TRUE;

  0002d	b8 01 00 00 00	 mov	 eax, 1
  00032	5e		 pop	 esi

; 2019 : }

  00033	5d		 pop	 ebp
  00034	c3		 ret	 0
?NpcIllusionBluePedestal@@YAHPAUOBJECTSTRUCT@@0@Z ENDP	; NpcIllusionBluePedestal
_TEXT	ENDS
PUBLIC	?NpcIllusionMirage@@YAHPAUOBJECTSTRUCT@@0@Z	; NpcIllusionMirage
EXTRN	?SetNpcMirageUser@CIllusionTempleEvent@@QAEXPAUOBJECTSTRUCT@@0@Z:PROC ; CIllusionTempleEvent::SetNpcMirageUser
; Function compile flags: /Ogtp
;	COMDAT ?NpcIllusionMirage@@YAHPAUOBJECTSTRUCT@@0@Z
_TEXT	SEGMENT
_lpNpc$ = 8						; size = 4
_lpObj$ = 12						; size = 4
?NpcIllusionMirage@@YAHPAUOBJECTSTRUCT@@0@Z PROC	; NpcIllusionMirage, COMDAT

; 2022 : {

  00000	55		 push	 ebp
  00001	8b ec		 mov	 ebp, esp
  00003	56		 push	 esi

; 2023 : 	if ( gObjIsConnected(lpObj->m_Index) == FALSE )

  00004	8b 75 0c	 mov	 esi, DWORD PTR _lpObj$[ebp]
  00007	8b 06		 mov	 eax, DWORD PTR [esi]
  00009	50		 push	 eax
  0000a	e8 00 00 00 00	 call	 ?gObjIsConnected@@YAHH@Z ; gObjIsConnected
  0000f	83 c4 04	 add	 esp, 4
  00012	85 c0		 test	 eax, eax

; 2024 : 	{
; 2025 : 		return TRUE;

  00014	74 0f		 je	 SHORT $LN4@NpcIllusio@4

; 2026 : 	}
; 2027 : 
; 2028 : 	g_IllusionTempleEvent.SetNpcMirageUser(lpNpc, lpObj);

  00016	8b 4d 08	 mov	 ecx, DWORD PTR _lpNpc$[ebp]
  00019	56		 push	 esi
  0001a	51		 push	 ecx
  0001b	b9 00 00 00 00	 mov	 ecx, OFFSET ?g_IllusionTempleEvent@@3VCIllusionTempleEvent@@A ; g_IllusionTempleEvent
  00020	e8 00 00 00 00	 call	 ?SetNpcMirageUser@CIllusionTempleEvent@@QAEXPAUOBJECTSTRUCT@@0@Z ; CIllusionTempleEvent::SetNpcMirageUser
$LN4@NpcIllusio@4:

; 2029 : 
; 2030 : 	return TRUE;

  00025	b8 01 00 00 00	 mov	 eax, 1
  0002a	5e		 pop	 esi

; 2031 : }

  0002b	5d		 pop	 ebp
  0002c	c3		 ret	 0
?NpcIllusionMirage@@YAHPAUOBJECTSTRUCT@@0@Z ENDP	; NpcIllusionMirage
_TEXT	ENDS
PUBLIC	?NpcSilviaSupplier@@YAHPAUOBJECTSTRUCT@@0@Z	; NpcSilviaSupplier
; Function compile flags: /Ogtp
;	COMDAT ?NpcSilviaSupplier@@YAHPAUOBJECTSTRUCT@@0@Z
_TEXT	SEGMENT
_lpNpc$ = 8						; size = 4
_lpObj$ = 12						; size = 4
?NpcSilviaSupplier@@YAHPAUOBJECTSTRUCT@@0@Z PROC	; NpcSilviaSupplier, COMDAT

; 2035 : {

  00000	55		 push	 ebp
  00001	8b ec		 mov	 ebp, esp

; 2036 : 	if ( gObjIsConnected(lpObj->m_Index) == FALSE )

  00003	8b 45 0c	 mov	 eax, DWORD PTR _lpObj$[ebp]
  00006	8b 08		 mov	 ecx, DWORD PTR [eax]
  00008	51		 push	 ecx
  00009	e8 00 00 00 00	 call	 ?gObjIsConnected@@YAHH@Z ; gObjIsConnected
  0000e	83 c4 04	 add	 esp, 4
  00011	f7 d8		 neg	 eax
  00013	1b c0		 sbb	 eax, eax
  00015	40		 inc	 eax

; 2037 : 	{
; 2038 : 		return TRUE;
; 2039 : 	}
; 2040 : 	return FALSE;
; 2041 : }

  00016	5d		 pop	 ebp
  00017	c3		 ret	 0
?NpcSilviaSupplier@@YAHPAUOBJECTSTRUCT@@0@Z ENDP	; NpcSilviaSupplier
_TEXT	ENDS
PUBLIC	?NpcRheaMerchant@@YAHPAUOBJECTSTRUCT@@0@Z	; NpcRheaMerchant
; Function compile flags: /Ogtp
;	COMDAT ?NpcRheaMerchant@@YAHPAUOBJECTSTRUCT@@0@Z
_TEXT	SEGMENT
_lpNpc$ = 8						; size = 4
_lpObj$ = 12						; size = 4
?NpcRheaMerchant@@YAHPAUOBJECTSTRUCT@@0@Z PROC		; NpcRheaMerchant, COMDAT

; 2044 : {

  00000	55		 push	 ebp
  00001	8b ec		 mov	 ebp, esp

; 2045 : 	if ( gObjIsConnected(lpObj->m_Index) == FALSE )

  00003	8b 45 0c	 mov	 eax, DWORD PTR _lpObj$[ebp]
  00006	8b 08		 mov	 ecx, DWORD PTR [eax]
  00008	51		 push	 ecx
  00009	e8 00 00 00 00	 call	 ?gObjIsConnected@@YAHH@Z ; gObjIsConnected
  0000e	83 c4 04	 add	 esp, 4
  00011	f7 d8		 neg	 eax
  00013	1b c0		 sbb	 eax, eax
  00015	40		 inc	 eax

; 2046 : 	{
; 2047 : 		return TRUE;
; 2048 : 	}
; 2049 : 	return FALSE;
; 2050 : }

  00016	5d		 pop	 ebp
  00017	c3		 ret	 0
?NpcRheaMerchant@@YAHPAUOBJECTSTRUCT@@0@Z ENDP		; NpcRheaMerchant
_TEXT	ENDS
PUBLIC	?NpcMarceWizard@@YAHPAUOBJECTSTRUCT@@0@Z	; NpcMarceWizard
; Function compile flags: /Ogtp
;	COMDAT ?NpcMarceWizard@@YAHPAUOBJECTSTRUCT@@0@Z
_TEXT	SEGMENT
_lpNpc$ = 8						; size = 4
_lpObj$ = 12						; size = 4
?NpcMarceWizard@@YAHPAUOBJECTSTRUCT@@0@Z PROC		; NpcMarceWizard, COMDAT

; 2053 : {

  00000	55		 push	 ebp
  00001	8b ec		 mov	 ebp, esp

; 2054 : 	if ( gObjIsConnected(lpObj->m_Index) == FALSE )

  00003	8b 45 0c	 mov	 eax, DWORD PTR _lpObj$[ebp]
  00006	8b 08		 mov	 ecx, DWORD PTR [eax]
  00008	51		 push	 ecx
  00009	e8 00 00 00 00	 call	 ?gObjIsConnected@@YAHH@Z ; gObjIsConnected
  0000e	83 c4 04	 add	 esp, 4
  00011	f7 d8		 neg	 eax
  00013	1b c0		 sbb	 eax, eax
  00015	40		 inc	 eax

; 2055 : 	{
; 2056 : 		return TRUE;
; 2057 : 	}
; 2058 : 	return FALSE;
; 2059 : }

  00016	5d		 pop	 ebp
  00017	c3		 ret	 0
?NpcMarceWizard@@YAHPAUOBJECTSTRUCT@@0@Z ENDP		; NpcMarceWizard
_TEXT	ENDS
PUBLIC	??_C@_0CK@EIBNFKNI@?$FLJewelMix?$FN?5?$FL?$CFs?$FN?$FL?$CFs?$FN?5Socket?5Item?5@ ; `string'
PUBLIC	__$ArrayPad$
PUBLIC	?NpcSeedMaster@@YAHPAUOBJECTSTRUCT@@0@Z		; NpcSeedMaster
;	COMDAT ??_C@_0CK@EIBNFKNI@?$FLJewelMix?$FN?5?$FL?$CFs?$FN?$FL?$CFs?$FN?5Socket?5Item?5@
CONST	SEGMENT
??_C@_0CK@EIBNFKNI@?$FLJewelMix?$FN?5?$FL?$CFs?$FN?$FL?$CFs?$FN?5Socket?5Item?5@ DB '['
	DB	'JewelMix] [%s][%s] Socket Item Mix Start', 00H ; `string'
; Function compile flags: /Ogtp
CONST	ENDS
;	COMDAT ?NpcSeedMaster@@YAHPAUOBJECTSTRUCT@@0@Z
_TEXT	SEGMENT
_pMsg$225530 = -16					; size = 11
__$ArrayPad$ = -4					; size = 4
_lpNpc$ = 8						; size = 4
_lpObj$ = 12						; size = 4
?NpcSeedMaster@@YAHPAUOBJECTSTRUCT@@0@Z PROC		; NpcSeedMaster, COMDAT

; 2063 : {

  00000	55		 push	 ebp
  00001	8b ec		 mov	 ebp, esp
  00003	83 ec 10	 sub	 esp, 16			; 00000010H
  00006	a1 00 00 00 00	 mov	 eax, DWORD PTR ___security_cookie
  0000b	33 c5		 xor	 eax, ebp
  0000d	89 45 fc	 mov	 DWORD PTR __$ArrayPad$[ebp], eax

; 2064 : 	if ( bCanChaosBox == TRUE )

  00010	83 3d 00 00 00
	00 01		 cmp	 DWORD PTR ?bCanChaosBox@@3HA, 1 ; bCanChaosBox
  00017	56		 push	 esi
  00018	8b 75 0c	 mov	 esi, DWORD PTR _lpObj$[ebp]
  0001b	0f 85 b3 00 00
	00		 jne	 $LN3@NpcSeedMas

; 2065 : 	{
; 2066 : 		if ( lpObj->m_IfState.use > 0 )

  00021	f6 86 1c 0e 00
	00 03		 test	 BYTE PTR [esi+3612], 3

; 2067 : 		{
; 2068 : 			return TRUE;

  00028	0f 87 a6 00 00
	00		 ja	 $LN3@NpcSeedMas

; 2069 : 		}
; 2070 : 
; 2071 : 		if ( lpObj->m_bPShopOpen == true )

  0002e	80 be c4 0e 00
	00 01		 cmp	 BYTE PTR [esi+3780], 1
  00035	75 47		 jne	 SHORT $LN1@NpcSeedMas

; 2072 : 		{
; 2073 : 			LogAdd("[%s][%s] is Already Opening PShop, ChaosBox Failed", lpObj->AccountID, lpObj->Name);

  00037	8d 46 77	 lea	 eax, DWORD PTR [esi+119]
  0003a	50		 push	 eax
  0003b	8d 4e 6c	 lea	 ecx, DWORD PTR [esi+108]
  0003e	51		 push	 ecx
  0003f	68 00 00 00 00	 push	 OFFSET ??_C@_0DD@KJEEOOOJ@?$FL?$CFs?$FN?$FL?$CFs?$FN?5is?5Already?5Opening?5PSho@
  00044	ff 15 00 00 00
	00		 call	 DWORD PTR ?LogAdd@@3P6AXPADZZA ; LogAdd

; 2074 : 			GCServerMsgStringSend(lMsg.Get(MSGGET(4,194)), lpObj->m_Index, 1);

  0004a	8b 16		 mov	 edx, DWORD PTR [esi]
  0004c	83 c4 0c	 add	 esp, 12			; 0000000cH
  0004f	6a 01		 push	 1
  00051	52		 push	 edx
  00052	68 c2 04 00 00	 push	 1218			; 000004c2H
  00057	b9 00 00 00 00	 mov	 ecx, OFFSET ?lMsg@@3VCMsg@@A ; lMsg
  0005c	e8 00 00 00 00	 call	 ?Get@CMsg@@QAEPADH@Z	; CMsg::Get
  00061	50		 push	 eax
  00062	e8 00 00 00 00	 call	 ?GCServerMsgStringSend@@YAXPADHE@Z ; GCServerMsgStringSend
  00067	83 c4 0c	 add	 esp, 12			; 0000000cH

; 2094 : 	}
; 2095 : 
; 2096 : 	return TRUE;

  0006a	b8 01 00 00 00	 mov	 eax, 1
  0006f	5e		 pop	 esi

; 2097 : }

  00070	8b 4d fc	 mov	 ecx, DWORD PTR __$ArrayPad$[ebp]
  00073	33 cd		 xor	 ecx, ebp
  00075	e8 00 00 00 00	 call	 @__security_check_cookie@4
  0007a	8b e5		 mov	 esp, ebp
  0007c	5d		 pop	 ebp
  0007d	c3		 ret	 0
$LN1@NpcSeedMas:

; 2075 : 			return TRUE;
; 2076 : 		}
; 2077 : 
; 2078 : 		PMSG_TALKRESULT pMsg;
; 2079 : 
; 2080 : 		pMsg.h.c = 0xC3;
; 2081 : 		pMsg.h.headcode = 0x30;
; 2082 : 		pMsg.h.size = sizeof(pMsg);
; 2083 : 		pMsg.result = 0x17;
; 2084 : 
; 2085 : 		DataSend(lpObj->m_Index, (LPBYTE)&pMsg, pMsg.h.size);

  0007e	8b 0e		 mov	 ecx, DWORD PTR [esi]
  00080	6a 0b		 push	 11			; 0000000bH
  00082	8d 45 f0	 lea	 eax, DWORD PTR _pMsg$225530[ebp]
  00085	50		 push	 eax
  00086	51		 push	 ecx
  00087	c6 45 f0 c3	 mov	 BYTE PTR _pMsg$225530[ebp], 195 ; 000000c3H
  0008b	66 c7 45 f1 0b
	30		 mov	 WORD PTR _pMsg$225530[ebp+1], 12299 ; 0000300bH
  00091	c6 45 f3 17	 mov	 BYTE PTR _pMsg$225530[ebp+3], 23 ; 00000017H
  00095	e8 00 00 00 00	 call	 ?DataSend@@YAHHPAEK@Z	; DataSend

; 2086 : 
; 2087 : 		lpObj->m_IfState.use = 1;
; 2088 : 		lpObj->m_IfState.type = 7;

  0009a	8b 96 1c 0e 00
	00		 mov	 edx, DWORD PTR [esi+3612]

; 2089 : 
; 2090 : 		LogAddTD("[JewelMix] [%s][%s] Socket Item Mix Start", lpObj->AccountID, lpObj->Name);

  000a0	8d 46 77	 lea	 eax, DWORD PTR [esi+119]
  000a3	50		 push	 eax
  000a4	8d 4e 6c	 lea	 ecx, DWORD PTR [esi+108]
  000a7	81 e2 fd 01 ff
	ff		 and	 edx, -65027		; ffff01fdH
  000ad	51		 push	 ecx
  000ae	81 ca c1 01 00
	00		 or	 edx, 449		; 000001c1H
  000b4	68 00 00 00 00	 push	 OFFSET ??_C@_0CK@EIBNFKNI@?$FLJewelMix?$FN?5?$FL?$CFs?$FN?$FL?$CFs?$FN?5Socket?5Item?5@
  000b9	89 96 1c 0e 00
	00		 mov	 DWORD PTR [esi+3612], edx
  000bf	ff 15 00 00 00
	00		 call	 DWORD PTR ?LogAddTD@@3P6AXPADZZA ; LogAddTD

; 2091 : 
; 2092 : 		gObjItemTextSave(lpObj);

  000c5	56		 push	 esi
  000c6	e8 00 00 00 00	 call	 ?gObjItemTextSave@@YAXPAUOBJECTSTRUCT@@@Z ; gObjItemTextSave

; 2093 : 		gObjWarehouseTextSave(lpObj);

  000cb	56		 push	 esi
  000cc	e8 00 00 00 00	 call	 ?gObjWarehouseTextSave@@YAXPAUOBJECTSTRUCT@@@Z ; gObjWarehouseTextSave
  000d1	83 c4 20	 add	 esp, 32			; 00000020H
$LN3@NpcSeedMas:

; 2097 : }

  000d4	8b 4d fc	 mov	 ecx, DWORD PTR __$ArrayPad$[ebp]
  000d7	33 cd		 xor	 ecx, ebp
  000d9	b8 01 00 00 00	 mov	 eax, 1
  000de	5e		 pop	 esi
  000df	e8 00 00 00 00	 call	 @__security_check_cookie@4
  000e4	8b e5		 mov	 esp, ebp
  000e6	5d		 pop	 ebp
  000e7	c3		 ret	 0
?NpcSeedMaster@@YAHPAUOBJECTSTRUCT@@0@Z ENDP		; NpcSeedMaster
_TEXT	ENDS
PUBLIC	__$ArrayPad$
PUBLIC	?NpcSeedResearcher@@YAHPAUOBJECTSTRUCT@@0@Z	; NpcSeedResearcher
; Function compile flags: /Ogtp
;	COMDAT ?NpcSeedResearcher@@YAHPAUOBJECTSTRUCT@@0@Z
_TEXT	SEGMENT
_pMsg$225540 = -16					; size = 11
__$ArrayPad$ = -4					; size = 4
_lpNpc$ = 8						; size = 4
_lpObj$ = 12						; size = 4
?NpcSeedResearcher@@YAHPAUOBJECTSTRUCT@@0@Z PROC	; NpcSeedResearcher, COMDAT

; 2101 : {

  00000	55		 push	 ebp
  00001	8b ec		 mov	 ebp, esp
  00003	83 ec 10	 sub	 esp, 16			; 00000010H
  00006	a1 00 00 00 00	 mov	 eax, DWORD PTR ___security_cookie
  0000b	33 c5		 xor	 eax, ebp
  0000d	89 45 fc	 mov	 DWORD PTR __$ArrayPad$[ebp], eax

; 2102 : 		if ( bCanChaosBox == TRUE )

  00010	83 3d 00 00 00
	00 01		 cmp	 DWORD PTR ?bCanChaosBox@@3HA, 1 ; bCanChaosBox
  00017	56		 push	 esi
  00018	8b 75 0c	 mov	 esi, DWORD PTR _lpObj$[ebp]
  0001b	0f 85 b3 00 00
	00		 jne	 $LN3@NpcSeedRes

; 2103 : 	{
; 2104 : 		if ( lpObj->m_IfState.use > 0 )

  00021	f6 86 1c 0e 00
	00 03		 test	 BYTE PTR [esi+3612], 3

; 2105 : 		{
; 2106 : 			return TRUE;

  00028	0f 87 a6 00 00
	00		 ja	 $LN3@NpcSeedRes

; 2107 : 		}
; 2108 : 
; 2109 : 		if ( lpObj->m_bPShopOpen == true )

  0002e	80 be c4 0e 00
	00 01		 cmp	 BYTE PTR [esi+3780], 1
  00035	75 47		 jne	 SHORT $LN1@NpcSeedRes

; 2110 : 		{
; 2111 : 			LogAdd("[%s][%s] is Already Opening PShop, ChaosBox Failed", lpObj->AccountID, lpObj->Name);

  00037	8d 46 77	 lea	 eax, DWORD PTR [esi+119]
  0003a	50		 push	 eax
  0003b	8d 4e 6c	 lea	 ecx, DWORD PTR [esi+108]
  0003e	51		 push	 ecx
  0003f	68 00 00 00 00	 push	 OFFSET ??_C@_0DD@KJEEOOOJ@?$FL?$CFs?$FN?$FL?$CFs?$FN?5is?5Already?5Opening?5PSho@
  00044	ff 15 00 00 00
	00		 call	 DWORD PTR ?LogAdd@@3P6AXPADZZA ; LogAdd

; 2112 : 			GCServerMsgStringSend(lMsg.Get(MSGGET(4,194)), lpObj->m_Index, 1);

  0004a	8b 16		 mov	 edx, DWORD PTR [esi]
  0004c	83 c4 0c	 add	 esp, 12			; 0000000cH
  0004f	6a 01		 push	 1
  00051	52		 push	 edx
  00052	68 c2 04 00 00	 push	 1218			; 000004c2H
  00057	b9 00 00 00 00	 mov	 ecx, OFFSET ?lMsg@@3VCMsg@@A ; lMsg
  0005c	e8 00 00 00 00	 call	 ?Get@CMsg@@QAEPADH@Z	; CMsg::Get
  00061	50		 push	 eax
  00062	e8 00 00 00 00	 call	 ?GCServerMsgStringSend@@YAXPADHE@Z ; GCServerMsgStringSend
  00067	83 c4 0c	 add	 esp, 12			; 0000000cH

; 2132 : 	}
; 2133 : 
; 2134 : 	return TRUE;

  0006a	b8 01 00 00 00	 mov	 eax, 1
  0006f	5e		 pop	 esi

; 2135 : }

  00070	8b 4d fc	 mov	 ecx, DWORD PTR __$ArrayPad$[ebp]
  00073	33 cd		 xor	 ecx, ebp
  00075	e8 00 00 00 00	 call	 @__security_check_cookie@4
  0007a	8b e5		 mov	 esp, ebp
  0007c	5d		 pop	 ebp
  0007d	c3		 ret	 0
$LN1@NpcSeedRes:

; 2113 : 			return TRUE;
; 2114 : 		}
; 2115 : 
; 2116 : 		PMSG_TALKRESULT pMsg;
; 2117 : 
; 2118 : 		pMsg.h.c = 0xC3;
; 2119 : 		pMsg.h.headcode = 0x30;
; 2120 : 		pMsg.h.size = sizeof(pMsg);
; 2121 : 		pMsg.result = 0x18;
; 2122 : 
; 2123 : 		DataSend(lpObj->m_Index, (LPBYTE)&pMsg, pMsg.h.size);

  0007e	8b 0e		 mov	 ecx, DWORD PTR [esi]
  00080	6a 0b		 push	 11			; 0000000bH
  00082	8d 45 f0	 lea	 eax, DWORD PTR _pMsg$225540[ebp]
  00085	50		 push	 eax
  00086	51		 push	 ecx
  00087	c6 45 f0 c3	 mov	 BYTE PTR _pMsg$225540[ebp], 195 ; 000000c3H
  0008b	66 c7 45 f1 0b
	30		 mov	 WORD PTR _pMsg$225540[ebp+1], 12299 ; 0000300bH
  00091	c6 45 f3 18	 mov	 BYTE PTR _pMsg$225540[ebp+3], 24 ; 00000018H
  00095	e8 00 00 00 00	 call	 ?DataSend@@YAHHPAEK@Z	; DataSend

; 2124 : 
; 2125 : 		lpObj->m_IfState.use = 1;
; 2126 : 		lpObj->m_IfState.type = 7;

  0009a	8b 96 1c 0e 00
	00		 mov	 edx, DWORD PTR [esi+3612]

; 2127 : 
; 2128 : 		LogAddTD("[JewelMix] [%s][%s] Socket Item Mix Start", lpObj->AccountID, lpObj->Name);

  000a0	8d 46 77	 lea	 eax, DWORD PTR [esi+119]
  000a3	50		 push	 eax
  000a4	8d 4e 6c	 lea	 ecx, DWORD PTR [esi+108]
  000a7	81 e2 fd 01 ff
	ff		 and	 edx, -65027		; ffff01fdH
  000ad	51		 push	 ecx
  000ae	81 ca c1 01 00
	00		 or	 edx, 449		; 000001c1H
  000b4	68 00 00 00 00	 push	 OFFSET ??_C@_0CK@EIBNFKNI@?$FLJewelMix?$FN?5?$FL?$CFs?$FN?$FL?$CFs?$FN?5Socket?5Item?5@
  000b9	89 96 1c 0e 00
	00		 mov	 DWORD PTR [esi+3612], edx
  000bf	ff 15 00 00 00
	00		 call	 DWORD PTR ?LogAddTD@@3P6AXPADZZA ; LogAddTD

; 2129 : 
; 2130 : 		gObjItemTextSave(lpObj);

  000c5	56		 push	 esi
  000c6	e8 00 00 00 00	 call	 ?gObjItemTextSave@@YAXPAUOBJECTSTRUCT@@@Z ; gObjItemTextSave

; 2131 : 		gObjWarehouseTextSave(lpObj);

  000cb	56		 push	 esi
  000cc	e8 00 00 00 00	 call	 ?gObjWarehouseTextSave@@YAXPAUOBJECTSTRUCT@@@Z ; gObjWarehouseTextSave
  000d1	83 c4 20	 add	 esp, 32			; 00000020H
$LN3@NpcSeedRes:

; 2135 : }

  000d4	8b 4d fc	 mov	 ecx, DWORD PTR __$ArrayPad$[ebp]
  000d7	33 cd		 xor	 ecx, ebp
  000d9	b8 01 00 00 00	 mov	 eax, 1
  000de	5e		 pop	 esi
  000df	e8 00 00 00 00	 call	 @__security_check_cookie@4
  000e4	8b e5		 mov	 esp, ebp
  000e6	5d		 pop	 ebp
  000e7	c3		 ret	 0
?NpcSeedResearcher@@YAHPAUOBJECTSTRUCT@@0@Z ENDP	; NpcSeedResearcher
_TEXT	ENDS
PUBLIC	?NpcCherryBlossomSpirit@@YAHPAUOBJECTSTRUCT@@0@Z ; NpcCherryBlossomSpirit
; Function compile flags: /Ogtp
;	COMDAT ?NpcCherryBlossomSpirit@@YAHPAUOBJECTSTRUCT@@0@Z
_TEXT	SEGMENT
_lpNpc$ = 8						; size = 4
_lpObj$ = 12						; size = 4
?NpcCherryBlossomSpirit@@YAHPAUOBJECTSTRUCT@@0@Z PROC	; NpcCherryBlossomSpirit, COMDAT

; 2139 : {

  00000	55		 push	 ebp
  00001	8b ec		 mov	 ebp, esp

; 2140 : 	if ( gObjIsConnected(lpObj->m_Index) == FALSE )

  00003	8b 45 0c	 mov	 eax, DWORD PTR _lpObj$[ebp]
  00006	8b 08		 mov	 ecx, DWORD PTR [eax]
  00008	51		 push	 ecx
  00009	e8 00 00 00 00	 call	 ?gObjIsConnected@@YAHH@Z ; gObjIsConnected
  0000e	83 c4 04	 add	 esp, 4
  00011	f7 d8		 neg	 eax
  00013	1b c0		 sbb	 eax, eax
  00015	40		 inc	 eax

; 2141 : 	{
; 2142 : 		return TRUE;
; 2143 : 	}
; 2144 : 	return FALSE;
; 2145 : }

  00016	5d		 pop	 ebp
  00017	c3		 ret	 0
?NpcCherryBlossomSpirit@@YAHPAUOBJECTSTRUCT@@0@Z ENDP	; NpcCherryBlossomSpirit
_TEXT	ENDS
PUBLIC	?NpcLuckyCoinExchanger@@YAHPAUOBJECTSTRUCT@@0@Z	; NpcLuckyCoinExchanger
; Function compile flags: /Ogtp
;	COMDAT ?NpcLuckyCoinExchanger@@YAHPAUOBJECTSTRUCT@@0@Z
_TEXT	SEGMENT
_lpNpc$ = 8						; size = 4
_lpObj$ = 12						; size = 4
?NpcLuckyCoinExchanger@@YAHPAUOBJECTSTRUCT@@0@Z PROC	; NpcLuckyCoinExchanger, COMDAT

; 2149 : {

  00000	55		 push	 ebp
  00001	8b ec		 mov	 ebp, esp

; 2150 : 	if ( gObjIsConnected(lpObj->m_Index) == FALSE )

  00003	8b 45 0c	 mov	 eax, DWORD PTR _lpObj$[ebp]
  00006	8b 08		 mov	 ecx, DWORD PTR [eax]
  00008	51		 push	 ecx
  00009	e8 00 00 00 00	 call	 ?gObjIsConnected@@YAHH@Z ; gObjIsConnected
  0000e	83 c4 04	 add	 esp, 4
  00011	f7 d8		 neg	 eax
  00013	1b c0		 sbb	 eax, eax
  00015	40		 inc	 eax

; 2151 : 	{
; 2152 : 		return TRUE;
; 2153 : 	}
; 2154 : 	return FALSE;
; 2155 : }

  00016	5d		 pop	 ebp
  00017	c3		 ret	 0
?NpcLuckyCoinExchanger@@YAHPAUOBJECTSTRUCT@@0@Z ENDP	; NpcLuckyCoinExchanger
_TEXT	ENDS
PUBLIC	?NpcXMasSantaClaus@@YAHPAUOBJECTSTRUCT@@0@Z	; NpcXMasSantaClaus
EXTRN	?EGAnsRegXMasGetPayItem@@YAXHH@Z:PROC		; EGAnsRegXMasGetPayItem
; Function compile flags: /Ogtp
;	COMDAT ?NpcXMasSantaClaus@@YAHPAUOBJECTSTRUCT@@0@Z
_TEXT	SEGMENT
_lpNpc$ = 8						; size = 4
_lpObj$ = 12						; size = 4
?NpcXMasSantaClaus@@YAHPAUOBJECTSTRUCT@@0@Z PROC	; NpcXMasSantaClaus, COMDAT

; 2159 : {

  00000	55		 push	 ebp
  00001	8b ec		 mov	 ebp, esp
  00003	56		 push	 esi

; 2160 : 	if ( gObjIsConnected(lpObj->m_Index) == FALSE )

  00004	8b 75 0c	 mov	 esi, DWORD PTR _lpObj$[ebp]
  00007	8b 06		 mov	 eax, DWORD PTR [esi]
  00009	50		 push	 eax
  0000a	e8 00 00 00 00	 call	 ?gObjIsConnected@@YAHH@Z ; gObjIsConnected
  0000f	83 c4 04	 add	 esp, 4
  00012	85 c0		 test	 eax, eax

; 2161 : 	{
; 2162 : 		return TRUE;

  00014	74 0d		 je	 SHORT $LN4@NpcXMasSan

; 2163 : 	}
; 2164 : 
; 2165 : 	EGAnsRegXMasGetPayItem(lpObj->m_Index,1);

  00016	8b 0e		 mov	 ecx, DWORD PTR [esi]
  00018	6a 01		 push	 1
  0001a	51		 push	 ecx
  0001b	e8 00 00 00 00	 call	 ?EGAnsRegXMasGetPayItem@@YAXHH@Z ; EGAnsRegXMasGetPayItem
  00020	83 c4 08	 add	 esp, 8
$LN4@NpcXMasSan:

; 2166 : 
; 2167 : 	return TRUE;

  00023	b8 01 00 00 00	 mov	 eax, 1
  00028	5e		 pop	 esi

; 2168 : }

  00029	5d		 pop	 ebp
  0002a	c3		 ret	 0
?NpcXMasSantaClaus@@YAHPAUOBJECTSTRUCT@@0@Z ENDP	; NpcXMasSantaClaus
_TEXT	ENDS
PUBLIC	?NpcSnowMan@@YAHPAUOBJECTSTRUCT@@0@Z		; NpcSnowMan
EXTRN	?ReqNPCXMasMapMoveOpen@@YAXH@Z:PROC		; ReqNPCXMasMapMoveOpen
; Function compile flags: /Ogtp
;	COMDAT ?NpcSnowMan@@YAHPAUOBJECTSTRUCT@@0@Z
_TEXT	SEGMENT
_lpNpc$ = 8						; size = 4
_lpObj$ = 12						; size = 4
?NpcSnowMan@@YAHPAUOBJECTSTRUCT@@0@Z PROC		; NpcSnowMan, COMDAT

; 2172 : {

  00000	55		 push	 ebp
  00001	8b ec		 mov	 ebp, esp
  00003	56		 push	 esi

; 2173 : 	if ( gObjIsConnected(lpObj->m_Index) == FALSE )

  00004	8b 75 0c	 mov	 esi, DWORD PTR _lpObj$[ebp]
  00007	8b 06		 mov	 eax, DWORD PTR [esi]
  00009	50		 push	 eax
  0000a	e8 00 00 00 00	 call	 ?gObjIsConnected@@YAHH@Z ; gObjIsConnected
  0000f	83 c4 04	 add	 esp, 4
  00012	85 c0		 test	 eax, eax

; 2174 : 	{
; 2175 : 		return TRUE;

  00014	74 0b		 je	 SHORT $LN4@NpcSnowMan

; 2176 : 	}
; 2177 : 
; 2178 : 	ReqNPCXMasMapMoveOpen(lpObj->m_Index) ;

  00016	8b 0e		 mov	 ecx, DWORD PTR [esi]
  00018	51		 push	 ecx
  00019	e8 00 00 00 00	 call	 ?ReqNPCXMasMapMoveOpen@@YAXH@Z ; ReqNPCXMasMapMoveOpen
  0001e	83 c4 04	 add	 esp, 4
$LN4@NpcSnowMan:

; 2179 : 
; 2180 : 	return TRUE;

  00021	b8 01 00 00 00	 mov	 eax, 1
  00026	5e		 pop	 esi

; 2181 : }

  00027	5d		 pop	 ebp
  00028	c3		 ret	 0
?NpcSnowMan@@YAHPAUOBJECTSTRUCT@@0@Z ENDP		; NpcSnowMan
_TEXT	ENDS
PUBLIC	?NpcLittleSantaBuffer@@YAHPAUOBJECTSTRUCT@@0H@Z	; NpcLittleSantaBuffer
EXTRN	?GCManaSend@@YAXHHEEH@Z:PROC			; GCManaSend
EXTRN	?GCReFillSend@@YAXHHEEH@Z:PROC			; GCReFillSend
EXTRN	__fltused:DWORD
EXTRN	__ftol2_sse:PROC
; Function compile flags: /Ogtp
;	COMDAT ?NpcLittleSantaBuffer@@YAHPAUOBJECTSTRUCT@@0H@Z
_TEXT	SEGMENT
tv224 = -4						; size = 4
tv206 = -4						; size = 4
_lpNpc$ = 8						; size = 4
_lpObj$ = 12						; size = 4
_BuffEffect$ = 16					; size = 4
?NpcLittleSantaBuffer@@YAHPAUOBJECTSTRUCT@@0H@Z PROC	; NpcLittleSantaBuffer, COMDAT

; 2185 : {

  00000	55		 push	 ebp
  00001	8b ec		 mov	 ebp, esp
  00003	51		 push	 ecx
  00004	56		 push	 esi

; 2186 : 	if ( gObjIsConnected(lpObj->m_Index) == FALSE )

  00005	8b 75 0c	 mov	 esi, DWORD PTR _lpObj$[ebp]
  00008	8b 06		 mov	 eax, DWORD PTR [esi]
  0000a	50		 push	 eax
  0000b	e8 00 00 00 00	 call	 ?gObjIsConnected@@YAHH@Z ; gObjIsConnected
  00010	83 c4 04	 add	 esp, 4
  00013	85 c0		 test	 eax, eax

; 2187 : 	{
; 2188 : 		return TRUE;

  00015	0f 84 64 01 00
	00		 je	 $LN9@NpcLittleS

; 2189 : 	}
; 2190 : 
; 2191 : 	switch(BuffEffect)

  0001b	8b 45 10	 mov	 eax, DWORD PTR _BuffEffect$[ebp]
  0001e	83 f8 61	 cmp	 eax, 97			; 00000061H
  00021	0f 87 58 01 00
	00		 ja	 $LN9@NpcLittleS
  00027	0f b6 88 00 00
	00 00		 movzx	 ecx, BYTE PTR $LN14@NpcLittleS[eax]
  0002e	ff 24 8d 00 00
	00 00		 jmp	 DWORD PTR $LN16@NpcLittleS[ecx*4]
$LN8@NpcLittleS:

; 2192 : 	{
; 2193 : 	case AT_NULL_BUFF_EFFECT:
; 2194 : 		lpObj->Life = lpObj->AddLife + lpObj->MaxLife;

  00035	db 86 4c 01 00
	00		 fild	 DWORD PTR [esi+332]

; 2195 : 		GCReFillSend(lpObj->m_Index, lpObj->Life, 0xFF, 0, lpObj->iShield);

  0003b	8b 96 54 01 00
	00		 mov	 edx, DWORD PTR [esi+340]
  00041	52		 push	 edx
  00042	6a 00		 push	 0
  00044	d8 86 00 01 00
	00		 fadd	 DWORD PTR [esi+256]
  0004a	68 ff 00 00 00	 push	 255			; 000000ffH
  0004f	d9 5d fc	 fstp	 DWORD PTR tv206[ebp]
  00052	d9 45 fc	 fld	 DWORD PTR tv206[ebp]
  00055	d9 96 fc 00 00
	00		 fst	 DWORD PTR [esi+252]
  0005b	e8 00 00 00 00	 call	 __ftol2_sse
  00060	50		 push	 eax
  00061	8b 06		 mov	 eax, DWORD PTR [esi]
  00063	50		 push	 eax
  00064	e8 00 00 00 00	 call	 ?GCReFillSend@@YAXHHEEH@Z ; GCReFillSend
  00069	83 c4 14	 add	 esp, 20			; 00000014H

; 2218 : 		break;
; 2219 : 	}
; 2220 : 
; 2221 : 	return TRUE;

  0006c	b8 01 00 00 00	 mov	 eax, 1
  00071	5e		 pop	 esi

; 2222 : }

  00072	8b e5		 mov	 esp, ebp
  00074	5d		 pop	 ebp
  00075	c3		 ret	 0
$LN7@NpcLittleS:

; 2196 : 		break;
; 2197 : 	case AT_INCREASE_ATTACK:
; 2198 : 		lpObj->Mana = lpObj->AddMana + lpObj->MaxMana;

  00076	db 86 50 01 00
	00		 fild	 DWORD PTR [esi+336]

; 2199 : 		GCManaSend(lpObj->m_Index,lpObj->Mana,0xFF,0,lpObj->BP);

  0007c	8b 8e 28 01 00
	00		 mov	 ecx, DWORD PTR [esi+296]
  00082	51		 push	 ecx
  00083	6a 00		 push	 0
  00085	d8 86 14 01 00
	00		 fadd	 DWORD PTR [esi+276]
  0008b	68 ff 00 00 00	 push	 255			; 000000ffH
  00090	d9 5d fc	 fstp	 DWORD PTR tv224[ebp]
  00093	d9 45 fc	 fld	 DWORD PTR tv224[ebp]
  00096	d9 96 10 01 00
	00		 fst	 DWORD PTR [esi+272]
  0009c	e8 00 00 00 00	 call	 __ftol2_sse
  000a1	8b 16		 mov	 edx, DWORD PTR [esi]
  000a3	50		 push	 eax
  000a4	52		 push	 edx
  000a5	e8 00 00 00 00	 call	 ?GCManaSend@@YAXHHEEH@Z	; GCManaSend
  000aa	83 c4 14	 add	 esp, 20			; 00000014H

; 2218 : 		break;
; 2219 : 	}
; 2220 : 
; 2221 : 	return TRUE;

  000ad	b8 01 00 00 00	 mov	 eax, 1
  000b2	5e		 pop	 esi

; 2222 : }

  000b3	8b e5		 mov	 esp, ebp
  000b5	5d		 pop	 ebp
  000b6	c3		 ret	 0
$LN6@NpcLittleS:

; 2200 : 		break;
; 2201 : 	case AT_XMASS_ATTACK:
; 2202 : 		gObjApplyBuffEffectDuration(lpObj,AT_XMASS_ATTACK,57,30,0,0,1800);

  000b7	68 08 07 00 00	 push	 1800			; 00000708H
  000bc	6a 00		 push	 0
  000be	6a 00		 push	 0
  000c0	6a 1e		 push	 30			; 0000001eH
  000c2	6a 39		 push	 57			; 00000039H
  000c4	6a 5e		 push	 94			; 0000005eH

; 2215 : 		break;
; 2216 : 	case AT_XMASS_AG_RECOVERY:
; 2217 : 		gObjApplyBuffEffectDuration(lpObj,AT_XMASS_AG_RECOVERY,59,10,0,0,1800);

  000c6	56		 push	 esi
  000c7	e8 00 00 00 00	 call	 ?gObjApplyBuffEffectDuration@@YAEPAUOBJECTSTRUCT@@HEHEHH@Z ; gObjApplyBuffEffectDuration
  000cc	83 c4 1c	 add	 esp, 28			; 0000001cH

; 2218 : 		break;
; 2219 : 	}
; 2220 : 
; 2221 : 	return TRUE;

  000cf	b8 01 00 00 00	 mov	 eax, 1
  000d4	5e		 pop	 esi

; 2222 : }

  000d5	8b e5		 mov	 esp, ebp
  000d7	5d		 pop	 ebp
  000d8	c3		 ret	 0
$LN5@NpcLittleS:

; 2203 : 		break;
; 2204 : 	case AT_XMASS_DEFENSE:
; 2205 : 		gObjApplyBuffEffectDuration(lpObj,AT_XMASS_DEFENSE,58,100,0,0,1800);

  000d9	68 08 07 00 00	 push	 1800			; 00000708H
  000de	6a 00		 push	 0
  000e0	6a 00		 push	 0
  000e2	6a 64		 push	 100			; 00000064H
  000e4	6a 3a		 push	 58			; 0000003aH
  000e6	6a 5f		 push	 95			; 0000005fH

; 2215 : 		break;
; 2216 : 	case AT_XMASS_AG_RECOVERY:
; 2217 : 		gObjApplyBuffEffectDuration(lpObj,AT_XMASS_AG_RECOVERY,59,10,0,0,1800);

  000e8	56		 push	 esi
  000e9	e8 00 00 00 00	 call	 ?gObjApplyBuffEffectDuration@@YAEPAUOBJECTSTRUCT@@HEHEHH@Z ; gObjApplyBuffEffectDuration
  000ee	83 c4 1c	 add	 esp, 28			; 0000001cH

; 2218 : 		break;
; 2219 : 	}
; 2220 : 
; 2221 : 	return TRUE;

  000f1	b8 01 00 00 00	 mov	 eax, 1
  000f6	5e		 pop	 esi

; 2222 : }

  000f7	8b e5		 mov	 esp, ebp
  000f9	5d		 pop	 ebp
  000fa	c3		 ret	 0
$LN4@NpcLittleS:

; 2206 : 		break;
; 2207 : 	case AT_XMASS_HEALTH:
; 2208 : 		gObjApplyBuffEffectDuration(lpObj,AT_XMASS_HEALTH,4,500,0,0,1800);

  000fb	68 08 07 00 00	 push	 1800			; 00000708H
  00100	6a 00		 push	 0
  00102	6a 00		 push	 0
  00104	68 f4 01 00 00	 push	 500			; 000001f4H
  00109	6a 04		 push	 4
  0010b	6a 5c		 push	 92			; 0000005cH

; 2215 : 		break;
; 2216 : 	case AT_XMASS_AG_RECOVERY:
; 2217 : 		gObjApplyBuffEffectDuration(lpObj,AT_XMASS_AG_RECOVERY,59,10,0,0,1800);

  0010d	56		 push	 esi
  0010e	e8 00 00 00 00	 call	 ?gObjApplyBuffEffectDuration@@YAEPAUOBJECTSTRUCT@@HEHEHH@Z ; gObjApplyBuffEffectDuration
  00113	83 c4 1c	 add	 esp, 28			; 0000001cH

; 2218 : 		break;
; 2219 : 	}
; 2220 : 
; 2221 : 	return TRUE;

  00116	b8 01 00 00 00	 mov	 eax, 1
  0011b	5e		 pop	 esi

; 2222 : }

  0011c	8b e5		 mov	 esp, ebp
  0011e	5d		 pop	 ebp
  0011f	c3		 ret	 0
$LN3@NpcLittleS:

; 2209 : 		break;
; 2210 : 	case AT_XMASS_MANA:
; 2211 : 		gObjApplyBuffEffectDuration(lpObj,AT_XMASS_MANA,5,500,0,0,1800);

  00120	68 08 07 00 00	 push	 1800			; 00000708H
  00125	6a 00		 push	 0
  00127	6a 00		 push	 0
  00129	68 f4 01 00 00	 push	 500			; 000001f4H
  0012e	6a 05		 push	 5
  00130	6a 5d		 push	 93			; 0000005dH

; 2215 : 		break;
; 2216 : 	case AT_XMASS_AG_RECOVERY:
; 2217 : 		gObjApplyBuffEffectDuration(lpObj,AT_XMASS_AG_RECOVERY,59,10,0,0,1800);

  00132	56		 push	 esi
  00133	e8 00 00 00 00	 call	 ?gObjApplyBuffEffectDuration@@YAEPAUOBJECTSTRUCT@@HEHEHH@Z ; gObjApplyBuffEffectDuration
  00138	83 c4 1c	 add	 esp, 28			; 0000001cH

; 2218 : 		break;
; 2219 : 	}
; 2220 : 
; 2221 : 	return TRUE;

  0013b	b8 01 00 00 00	 mov	 eax, 1
  00140	5e		 pop	 esi

; 2222 : }

  00141	8b e5		 mov	 esp, ebp
  00143	5d		 pop	 ebp
  00144	c3		 ret	 0
$LN2@NpcLittleS:

; 2212 : 		break;
; 2213 : 	case AT_XMASS_DEXTERITY:
; 2214 : 		gObjApplyBuffEffectDuration(lpObj,AT_XMASS_DEXTERITY,1,15,0,0,1800);

  00145	68 08 07 00 00	 push	 1800			; 00000708H
  0014a	6a 00		 push	 0
  0014c	6a 00		 push	 0
  0014e	6a 0f		 push	 15			; 0000000fH
  00150	6a 01		 push	 1
  00152	6a 60		 push	 96			; 00000060H

; 2215 : 		break;
; 2216 : 	case AT_XMASS_AG_RECOVERY:
; 2217 : 		gObjApplyBuffEffectDuration(lpObj,AT_XMASS_AG_RECOVERY,59,10,0,0,1800);

  00154	56		 push	 esi
  00155	e8 00 00 00 00	 call	 ?gObjApplyBuffEffectDuration@@YAEPAUOBJECTSTRUCT@@HEHEHH@Z ; gObjApplyBuffEffectDuration
  0015a	83 c4 1c	 add	 esp, 28			; 0000001cH

; 2218 : 		break;
; 2219 : 	}
; 2220 : 
; 2221 : 	return TRUE;

  0015d	b8 01 00 00 00	 mov	 eax, 1
  00162	5e		 pop	 esi

; 2222 : }

  00163	8b e5		 mov	 esp, ebp
  00165	5d		 pop	 ebp
  00166	c3		 ret	 0
$LN1@NpcLittleS:

; 2215 : 		break;
; 2216 : 	case AT_XMASS_AG_RECOVERY:
; 2217 : 		gObjApplyBuffEffectDuration(lpObj,AT_XMASS_AG_RECOVERY,59,10,0,0,1800);

  00167	68 08 07 00 00	 push	 1800			; 00000708H
  0016c	6a 00		 push	 0
  0016e	6a 00		 push	 0
  00170	6a 0a		 push	 10			; 0000000aH
  00172	6a 3b		 push	 59			; 0000003bH
  00174	6a 61		 push	 97			; 00000061H
  00176	56		 push	 esi
  00177	e8 00 00 00 00	 call	 ?gObjApplyBuffEffectDuration@@YAEPAUOBJECTSTRUCT@@HEHEHH@Z ; gObjApplyBuffEffectDuration
  0017c	83 c4 1c	 add	 esp, 28			; 0000001cH
$LN9@NpcLittleS:

; 2218 : 		break;
; 2219 : 	}
; 2220 : 
; 2221 : 	return TRUE;

  0017f	b8 01 00 00 00	 mov	 eax, 1
  00184	5e		 pop	 esi

; 2222 : }

  00185	8b e5		 mov	 esp, ebp
  00187	5d		 pop	 ebp
  00188	c3		 ret	 0
  00189	8d 49 00	 npad	 3
$LN16@NpcLittleS:
  0018c	00 00 00 00	 DD	 $LN8@NpcLittleS
  00190	00 00 00 00	 DD	 $LN7@NpcLittleS
  00194	00 00 00 00	 DD	 $LN4@NpcLittleS
  00198	00 00 00 00	 DD	 $LN3@NpcLittleS
  0019c	00 00 00 00	 DD	 $LN6@NpcLittleS
  001a0	00 00 00 00	 DD	 $LN5@NpcLittleS
  001a4	00 00 00 00	 DD	 $LN2@NpcLittleS
  001a8	00 00 00 00	 DD	 $LN1@NpcLittleS
  001ac	00 00 00 00	 DD	 $LN9@NpcLittleS
$LN14@NpcLittleS:
  001b0	00		 DB	 0
  001b1	01		 DB	 1
  001b2	08		 DB	 8
  001b3	08		 DB	 8
  001b4	08		 DB	 8
  001b5	08		 DB	 8
  001b6	08		 DB	 8
  001b7	08		 DB	 8
  001b8	08		 DB	 8
  001b9	08		 DB	 8
  001ba	08		 DB	 8
  001bb	08		 DB	 8
  001bc	08		 DB	 8
  001bd	08		 DB	 8
  001be	08		 DB	 8
  001bf	08		 DB	 8
  001c0	08		 DB	 8
  001c1	08		 DB	 8
  001c2	08		 DB	 8
  001c3	08		 DB	 8
  001c4	08		 DB	 8
  001c5	08		 DB	 8
  001c6	08		 DB	 8
  001c7	08		 DB	 8
  001c8	08		 DB	 8
  001c9	08		 DB	 8
  001ca	08		 DB	 8
  001cb	08		 DB	 8
  001cc	08		 DB	 8
  001cd	08		 DB	 8
  001ce	08		 DB	 8
  001cf	08		 DB	 8
  001d0	08		 DB	 8
  001d1	08		 DB	 8
  001d2	08		 DB	 8
  001d3	08		 DB	 8
  001d4	08		 DB	 8
  001d5	08		 DB	 8
  001d6	08		 DB	 8
  001d7	08		 DB	 8
  001d8	08		 DB	 8
  001d9	08		 DB	 8
  001da	08		 DB	 8
  001db	08		 DB	 8
  001dc	08		 DB	 8
  001dd	08		 DB	 8
  001de	08		 DB	 8
  001df	08		 DB	 8
  001e0	08		 DB	 8
  001e1	08		 DB	 8
  001e2	08		 DB	 8
  001e3	08		 DB	 8
  001e4	08		 DB	 8
  001e5	08		 DB	 8
  001e6	08		 DB	 8
  001e7	08		 DB	 8
  001e8	08		 DB	 8
  001e9	08		 DB	 8
  001ea	08		 DB	 8
  001eb	08		 DB	 8
  001ec	08		 DB	 8
  001ed	08		 DB	 8
  001ee	08		 DB	 8
  001ef	08		 DB	 8
  001f0	08		 DB	 8
  001f1	08		 DB	 8
  001f2	08		 DB	 8
  001f3	08		 DB	 8
  001f4	08		 DB	 8
  001f5	08		 DB	 8
  001f6	08		 DB	 8
  001f7	08		 DB	 8
  001f8	08		 DB	 8
  001f9	08		 DB	 8
  001fa	08		 DB	 8
  001fb	08		 DB	 8
  001fc	08		 DB	 8
  001fd	08		 DB	 8
  001fe	08		 DB	 8
  001ff	08		 DB	 8
  00200	08		 DB	 8
  00201	08		 DB	 8
  00202	08		 DB	 8
  00203	08		 DB	 8
  00204	08		 DB	 8
  00205	08		 DB	 8
  00206	08		 DB	 8
  00207	08		 DB	 8
  00208	08		 DB	 8
  00209	08		 DB	 8
  0020a	08		 DB	 8
  0020b	08		 DB	 8
  0020c	02		 DB	 2
  0020d	03		 DB	 3
  0020e	04		 DB	 4
  0020f	05		 DB	 5
  00210	06		 DB	 6
  00211	07		 DB	 7
?NpcLittleSantaBuffer@@YAHPAUOBJECTSTRUCT@@0H@Z ENDP	; NpcLittleSantaBuffer
_TEXT	ENDS
PUBLIC	__$ArrayPad$
PUBLIC	?NpcTitusGatekeeper@@YA_NPAUOBJECTSTRUCT@@0@Z	; NpcTitusGatekeeper
EXTRN	?SendDuelStatus@CDuelManager@@QAEXPAUOBJECTSTRUCT@@@Z:PROC ; CDuelManager::SendDuelStatus
EXTRN	?g_DuelManager@@3VCDuelManager@@A:BYTE		; g_DuelManager
; Function compile flags: /Ogtp
;	COMDAT ?NpcTitusGatekeeper@@YA_NPAUOBJECTSTRUCT@@0@Z
_TEXT	SEGMENT
_pMsg$ = -16						; size = 11
__$ArrayPad$ = -4					; size = 4
_lpNpc$ = 8						; size = 4
_lpObj$ = 12						; size = 4
?NpcTitusGatekeeper@@YA_NPAUOBJECTSTRUCT@@0@Z PROC	; NpcTitusGatekeeper, COMDAT

; 2224 : {

  00000	55		 push	 ebp
  00001	8b ec		 mov	 ebp, esp
  00003	83 ec 10	 sub	 esp, 16			; 00000010H
  00006	a1 00 00 00 00	 mov	 eax, DWORD PTR ___security_cookie
  0000b	33 c5		 xor	 eax, ebp
  0000d	89 45 fc	 mov	 DWORD PTR __$ArrayPad$[ebp], eax
  00010	56		 push	 esi
  00011	8b 75 0c	 mov	 esi, DWORD PTR _lpObj$[ebp]

; 2225 : 	if ( (lpObj->m_IfState.use ) > 0 )

  00014	8b 86 1c 0e 00
	00		 mov	 eax, DWORD PTR [esi+3612]
  0001a	a8 03		 test	 al, 3

; 2226 : 	{
; 2227 : 		return TRUE;

  0001c	77 3a		 ja	 SHORT $LN4@NpcTitusGa

; 2228 : 	}
; 2229 : 
; 2230 : 	lpObj->m_IfState.use = 1;
; 2231 : 	lpObj->m_IfState.type = 20;
; 2232 : 
; 2233 : 	PMSG_TALKRESULT pMsg;
; 2234 : 
; 2235 : 	pMsg.h.c = 0xC3;
; 2236 : 	pMsg.h.headcode = 0x30;
; 2237 : 	pMsg.h.size = 9;
; 2238 : 	pMsg.result = 0x21;
; 2239 : 
; 2240 : 	DataSend(lpObj->m_Index, (LPBYTE)&pMsg, pMsg.h.size);

  0001e	8b 0e		 mov	 ecx, DWORD PTR [esi]
  00020	25 3d 05 ff ff	 and	 eax, -64195		; ffff053dH
  00025	0d 01 05 00 00	 or	 eax, 1281		; 00000501H
  0002a	89 86 1c 0e 00
	00		 mov	 DWORD PTR [esi+3612], eax
  00030	6a 09		 push	 9
  00032	8d 45 f0	 lea	 eax, DWORD PTR _pMsg$[ebp]
  00035	50		 push	 eax
  00036	51		 push	 ecx
  00037	c6 45 f0 c3	 mov	 BYTE PTR _pMsg$[ebp], 195 ; 000000c3H
  0003b	66 c7 45 f1 09
	30		 mov	 WORD PTR _pMsg$[ebp+1], 12297 ; 00003009H
  00041	c6 45 f3 21	 mov	 BYTE PTR _pMsg$[ebp+3], 33 ; 00000021H
  00045	e8 00 00 00 00	 call	 ?DataSend@@YAHHPAEK@Z	; DataSend
  0004a	83 c4 0c	 add	 esp, 12			; 0000000cH

; 2241 : 
; 2242 : 	g_DuelManager.SendDuelStatus(lpObj);

  0004d	56		 push	 esi
  0004e	b9 00 00 00 00	 mov	 ecx, OFFSET ?g_DuelManager@@3VCDuelManager@@A ; g_DuelManager
  00053	e8 00 00 00 00	 call	 ?SendDuelStatus@CDuelManager@@QAEXPAUOBJECTSTRUCT@@@Z ; CDuelManager::SendDuelStatus
$LN4@NpcTitusGa:

; 2243 : 	
; 2244 : 	return TRUE;
; 2245 : }

  00058	8b 4d fc	 mov	 ecx, DWORD PTR __$ArrayPad$[ebp]
  0005b	33 cd		 xor	 ecx, ebp
  0005d	b0 01		 mov	 al, 1
  0005f	5e		 pop	 esi
  00060	e8 00 00 00 00	 call	 @__security_check_cookie@4
  00065	8b e5		 mov	 esp, ebp
  00067	5d		 pop	 ebp
  00068	c3		 ret	 0
?NpcTitusGatekeeper@@YA_NPAUOBJECTSTRUCT@@0@Z ENDP	; NpcTitusGatekeeper
_TEXT	ENDS
PUBLIC	__$ArrayPad$
PUBLIC	?NpcMoss@@YA_NPAUOBJECTSTRUCT@@0@Z		; NpcMoss
; Function compile flags: /Ogtp
;	COMDAT ?NpcMoss@@YA_NPAUOBJECTSTRUCT@@0@Z
_TEXT	SEGMENT
_Send$ = -84						; size = 71
_Send2$ = -12						; size = 6
__$ArrayPad$ = -4					; size = 4
_lpNpc$ = 8						; size = 4
_lpObj$ = 12						; size = 4
?NpcMoss@@YA_NPAUOBJECTSTRUCT@@0@Z PROC			; NpcMoss, COMDAT

; 2248 : {

  00000	55		 push	 ebp
  00001	8b ec		 mov	 ebp, esp
  00003	83 ec 54	 sub	 esp, 84			; 00000054H
  00006	a1 00 00 00 00	 mov	 eax, DWORD PTR ___security_cookie
  0000b	33 c5		 xor	 eax, ebp
  0000d	89 45 fc	 mov	 DWORD PTR __$ArrayPad$[ebp], eax
  00010	53		 push	 ebx
  00011	56		 push	 esi
  00012	8b 75 0c	 mov	 esi, DWORD PTR _lpObj$[ebp]

; 2249 : 	/*
; 2250 : 	if ( gMossMerchant.Enabled == false )
; 2251 : 	{
; 2252 : 		return true;
; 2253 : 	}
; 2254 : 
; 2255 : 	if ( gMossMerchant.Running == false )
; 2256 : 	{
; 2257 : 		return true;
; 2258 : 	}
; 2259 : 	*/
; 2260 : 	BYTE Send2[6] = {0xC3,0x06,0x30,0x00,0x27,0x00};								 // SHOP WINDOW
; 2261 : 			BYTE Send[71] = {0xC2,0x00,71,0x31,0x00,5,                                       // Head
; 2262 : 							0x00,71,0x00,0x01,0x00,0x00,13*16,0x00,0xFF,0xFF,0xFF,0xFF,0xFF, // ITEM1
; 2263 : 							0x02,72,0x00,0x01,0x00,0x00,13*16,0x00,0xFF,0xFF,0xFF,0xFF,0xFF, // ITEM2
; 2264 : 							0x04,73,0x00,0x01,0x00,0x00,13*16,0x00,0xFF,0xFF,0xFF,0xFF,0xFF, // ITEM3
; 2265 : 							0x06,74,0x00,0x01,0x00,0x00,13*16,0x00,0xFF,0xFF,0xFF,0xFF,0xFF, // ITEM4
; 2266 : 							0x18,75,0x00,0x01,0x00,0x00,13*16,0x00,0xFF,0xFF,0xFF,0xFF,0xFF  // ITEM5
; 2267 : 							};
; 2268 : 
; 2269 : 							DataSend(lpObj->m_Index,Send2,6);

  00015	8b 0e		 mov	 ecx, DWORD PTR [esi]
  00017	b0 ff		 mov	 al, 255			; 000000ffH
  00019	88 45 f2	 mov	 BYTE PTR _Send$[ebp+70], al
  0001c	6a 06		 push	 6
  0001e	8d 45 f4	 lea	 eax, DWORD PTR _Send2$[ebp]
  00021	50		 push	 eax
  00022	51		 push	 ecx
  00023	c7 45 f4 c3 06
	30 00		 mov	 DWORD PTR _Send2$[ebp], 3147459 ; 003006c3H
  0002a	66 c7 45 f8 27
	00		 mov	 WORD PTR _Send2$[ebp+4], 39 ; 00000027H
  00030	c7 45 ac c2 00
	47 31		 mov	 DWORD PTR _Send$[ebp], 826736834 ; 314700c2H
  00037	c7 45 b0 00 05
	00 47		 mov	 DWORD PTR _Send$[ebp+4], 1191183616 ; 47000500H
  0003e	b3 01		 mov	 bl, 1
  00040	c7 45 b4 00 01
	00 00		 mov	 DWORD PTR _Send$[ebp+8], 256 ; 00000100H
  00047	c7 45 b8 d0 00
	ff ff		 mov	 DWORD PTR _Send$[ebp+12], -65328 ; ffff00d0H
  0004e	c7 45 bc ff ff
	ff 02		 mov	 DWORD PTR _Send$[ebp+16], 50331647 ; 02ffffffH
  00055	c7 45 c0 48 00
	01 00		 mov	 DWORD PTR _Send$[ebp+20], 65608 ; 00010048H
  0005c	c7 45 c4 00 d0
	00 ff		 mov	 DWORD PTR _Send$[ebp+24], -16723968 ; ff00d000H
  00063	c7 45 c8 ff ff
	ff ff		 mov	 DWORD PTR _Send$[ebp+28], -1
  0006a	c7 45 cc 04 49
	00 01		 mov	 DWORD PTR _Send$[ebp+32], 16795908 ; 01004904H
  00071	c7 45 d0 00 00
	d0 00		 mov	 DWORD PTR _Send$[ebp+36], 13631488 ; 00d00000H
  00078	c7 45 d4 ff ff
	ff ff		 mov	 DWORD PTR _Send$[ebp+40], -1
  0007f	c7 45 d8 ff 06
	4a 00		 mov	 DWORD PTR _Send$[ebp+44], 4851455 ; 004a06ffH
  00086	c7 45 dc 01 00
	00 d0		 mov	 DWORD PTR _Send$[ebp+48], -805306367 ; d0000001H
  0008d	c7 45 e0 00 ff
	ff ff		 mov	 DWORD PTR _Send$[ebp+52], -256 ; ffffff00H
  00094	c7 45 e4 ff ff
	18 4b		 mov	 DWORD PTR _Send$[ebp+56], 1259929599 ; 4b18ffffH
  0009b	c7 45 e8 00 01
	00 00		 mov	 DWORD PTR _Send$[ebp+60], 256 ; 00000100H
  000a2	c7 45 ec d0 00
	ff ff		 mov	 DWORD PTR _Send$[ebp+64], -65328 ; ffff00d0H
  000a9	66 c7 45 f0 ff
	ff		 mov	 WORD PTR _Send$[ebp+68], 65535 ; 0000ffffH
  000af	e8 00 00 00 00	 call	 ?DataSend@@YAHHPAEK@Z	; DataSend

; 2270 : 							DataSend(lpObj->m_Index,Send,71);

  000b4	8b 06		 mov	 eax, DWORD PTR [esi]
  000b6	6a 47		 push	 71			; 00000047H
  000b8	8d 55 ac	 lea	 edx, DWORD PTR _Send$[ebp]
  000bb	52		 push	 edx
  000bc	50		 push	 eax
  000bd	e8 00 00 00 00	 call	 ?DataSend@@YAHHPAEK@Z	; DataSend

; 2271 : 
; 2272 : 							lpObj->TargetShopNumber = 492;
; 2273 : 							lpObj->m_IfState.use    = 1;
; 2274 : 							lpObj->m_IfState.type   = 3;

  000c2	8b 96 1c 0e 00
	00		 mov	 edx, DWORD PTR [esi+3612]
  000c8	81 e2 fd 00 ff
	ff		 and	 edx, -65283		; ffff00fdH
  000ce	b9 ec 01 00 00	 mov	 ecx, 492		; 000001ecH
  000d3	83 c4 18	 add	 esp, 24			; 00000018H
  000d6	66 89 8e 5a 04
	00 00		 mov	 WORD PTR [esi+1114], cx

; 2275 : 
; 2276 : 	return true;
; 2277 : }

  000dd	8b 4d fc	 mov	 ecx, DWORD PTR __$ArrayPad$[ebp]
  000e0	81 ca c1 00 00
	00		 or	 edx, 193		; 000000c1H
  000e6	89 96 1c 0e 00
	00		 mov	 DWORD PTR [esi+3612], edx
  000ec	5e		 pop	 esi
  000ed	8a c3		 mov	 al, bl
  000ef	33 cd		 xor	 ecx, ebp
  000f1	5b		 pop	 ebx
  000f2	e8 00 00 00 00	 call	 @__security_check_cookie@4
  000f7	8b e5		 mov	 esp, ebp
  000f9	5d		 pop	 ebp
  000fa	c3		 ret	 0
?NpcMoss@@YA_NPAUOBJECTSTRUCT@@0@Z ENDP			; NpcMoss
_TEXT	ENDS
PUBLIC	__$ArrayPad$
PUBLIC	?NpcJuliaTalk@@YAHPAUOBJECTSTRUCT@@0@Z		; NpcJuliaTalk
EXTRN	?PHeadSetBE@@YAXPAEEH@Z:PROC			; PHeadSetBE
EXTRN	?gObjIsConnected@@YAHPAUOBJECTSTRUCT@@@Z:PROC	; gObjIsConnected
; Function compile flags: /Ogtp
;	COMDAT ?NpcJuliaTalk@@YAHPAUOBJECTSTRUCT@@0@Z
_TEXT	SEGMENT
_pResult$ = -16						; size = 11
__$ArrayPad$ = -4					; size = 4
_lpNpc$ = 8						; size = 4
_lpObj$ = 12						; size = 4
?NpcJuliaTalk@@YAHPAUOBJECTSTRUCT@@0@Z PROC		; NpcJuliaTalk, COMDAT

; 2279 : {

  00000	55		 push	 ebp
  00001	8b ec		 mov	 ebp, esp
  00003	83 ec 10	 sub	 esp, 16			; 00000010H
  00006	a1 00 00 00 00	 mov	 eax, DWORD PTR ___security_cookie
  0000b	33 c5		 xor	 eax, ebp
  0000d	89 45 fc	 mov	 DWORD PTR __$ArrayPad$[ebp], eax
  00010	56		 push	 esi
  00011	8b 75 0c	 mov	 esi, DWORD PTR _lpObj$[ebp]

; 2280 : 	if (!gObjIsConnected(lpObj)) return TRUE;

  00014	56		 push	 esi
  00015	e8 00 00 00 00	 call	 ?gObjIsConnected@@YAHPAUOBJECTSTRUCT@@@Z ; gObjIsConnected
  0001a	83 c4 04	 add	 esp, 4
  0001d	85 c0		 test	 eax, eax
  0001f	74 24		 je	 SHORT $LN4@NpcJuliaTa

; 2281 : 
; 2282 : 	PMSG_TALKRESULT pResult;
; 2283 : 	PHeadSetBE((LPBYTE)&pResult, 0x30, 0x0B);

  00021	6a 0b		 push	 11			; 0000000bH
  00023	8d 45 f0	 lea	 eax, DWORD PTR _pResult$[ebp]
  00026	6a 30		 push	 48			; 00000030H
  00028	50		 push	 eax
  00029	e8 00 00 00 00	 call	 ?PHeadSetBE@@YAXPAEEH@Z	; PHeadSetBE

; 2284 : 	pResult.result = 0x25;
; 2285 : 	pResult.level1 = 0;
; 2286 : 	DataSend(lpObj->m_Index, (LPBYTE)&pResult, 0x0B);

  0002e	8b 16		 mov	 edx, DWORD PTR [esi]
  00030	6a 0b		 push	 11			; 0000000bH
  00032	8d 4d f0	 lea	 ecx, DWORD PTR _pResult$[ebp]
  00035	51		 push	 ecx
  00036	52		 push	 edx
  00037	66 c7 45 f3 25
	00		 mov	 WORD PTR _pResult$[ebp+3], 37 ; 00000025H
  0003d	e8 00 00 00 00	 call	 ?DataSend@@YAHHPAEK@Z	; DataSend
  00042	83 c4 18	 add	 esp, 24			; 00000018H
$LN4@NpcJuliaTa:

; 2287 : 
; 2288 : 	return TRUE;
; 2289 : }

  00045	8b 4d fc	 mov	 ecx, DWORD PTR __$ArrayPad$[ebp]
  00048	33 cd		 xor	 ecx, ebp
  0004a	b8 01 00 00 00	 mov	 eax, 1
  0004f	5e		 pop	 esi
  00050	e8 00 00 00 00	 call	 @__security_check_cookie@4
  00055	8b e5		 mov	 esp, ebp
  00057	5d		 pop	 ebp
  00058	c3		 ret	 0
?NpcJuliaTalk@@YAHPAUOBJECTSTRUCT@@0@Z ENDP		; NpcJuliaTalk
_TEXT	ENDS
PUBLIC	__$ArrayPad$
PUBLIC	?SartigantheAngel@@YAHPAUOBJECTSTRUCT@@0@Z	; SartigantheAngel
EXTRN	?GetEventTime@CDoppelGanger@@QAEDPAUOBJECTSTRUCT@@@Z:PROC ; CDoppelGanger::GetEventTime
EXTRN	?g_DoppelGanger@@3VCDoppelGanger@@A:BYTE	; g_DoppelGanger
; Function compile flags: /Ogtp
;	COMDAT ?SartigantheAngel@@YAHPAUOBJECTSTRUCT@@0@Z
_TEXT	SEGMENT
_pMsg$ = -16						; size = 11
__$ArrayPad$ = -4					; size = 4
_lpNpc$ = 8						; size = 4
_lpObj$ = 12						; size = 4
?SartigantheAngel@@YAHPAUOBJECTSTRUCT@@0@Z PROC		; SartigantheAngel, COMDAT

; 2291 : {

  00000	55		 push	 ebp
  00001	8b ec		 mov	 ebp, esp
  00003	83 ec 10	 sub	 esp, 16			; 00000010H
  00006	a1 00 00 00 00	 mov	 eax, DWORD PTR ___security_cookie
  0000b	33 c5		 xor	 eax, ebp
  0000d	89 45 fc	 mov	 DWORD PTR __$ArrayPad$[ebp], eax
  00010	56		 push	 esi
  00011	8b 75 0c	 mov	 esi, DWORD PTR _lpObj$[ebp]

; 2292 : 
; 2293 : 	PMSG_TALKRESULT pMsg;
; 2294 : 	PHeadSetBE((LPBYTE)&pMsg, 0x30, sizeof(pMsg));

  00014	6a 0b		 push	 11			; 0000000bH
  00016	8d 45 f0	 lea	 eax, DWORD PTR _pMsg$[ebp]
  00019	6a 30		 push	 48			; 00000030H
  0001b	50		 push	 eax
  0001c	e8 00 00 00 00	 call	 ?PHeadSetBE@@YAXPAEEH@Z	; PHeadSetBE
  00021	83 c4 0c	 add	 esp, 12			; 0000000cH

; 2295 : 	pMsg.result = 0x23;
; 2296 : 	pMsg.level1 = ((g_DoppelGanger.GetEventTime(lpObj)/1000)/10/60);

  00024	56		 push	 esi
  00025	b9 00 00 00 00	 mov	 ecx, OFFSET ?g_DoppelGanger@@3VCDoppelGanger@@A ; g_DoppelGanger
  0002a	c6 45 f3 23	 mov	 BYTE PTR _pMsg$[ebp+3], 35 ; 00000023H
  0002e	e8 00 00 00 00	 call	 ?GetEventTime@CDoppelGanger@@QAEDPAUOBJECTSTRUCT@@@Z ; CDoppelGanger::GetEventTime
  00033	0f be c8	 movsx	 ecx, al
  00036	b8 d3 4d 62 10	 mov	 eax, 274877907		; 10624dd3H
  0003b	f7 e9		 imul	 ecx
  0003d	c1 fa 06	 sar	 edx, 6
  00040	8b ca		 mov	 ecx, edx
  00042	c1 e9 1f	 shr	 ecx, 31			; 0000001fH
  00045	03 ca		 add	 ecx, edx
  00047	b8 67 66 66 66	 mov	 eax, 1717986919		; 66666667H
  0004c	f7 e9		 imul	 ecx
  0004e	c1 fa 02	 sar	 edx, 2
  00051	8b ca		 mov	 ecx, edx
  00053	c1 e9 1f	 shr	 ecx, 31			; 0000001fH
  00056	03 ca		 add	 ecx, edx
  00058	b8 89 88 88 88	 mov	 eax, -2004318071	; 88888889H
  0005d	f7 e9		 imul	 ecx
  0005f	03 d1		 add	 edx, ecx
  00061	c1 fa 05	 sar	 edx, 5
  00064	8b ca		 mov	 ecx, edx
  00066	c1 e9 1f	 shr	 ecx, 31			; 0000001fH
  00069	03 ca		 add	 ecx, edx
  0006b	88 4d f4	 mov	 BYTE PTR _pMsg$[ebp+4], cl

; 2297 : 	pMsg.level2 = ((g_DoppelGanger.GetEventTime(lpObj)/1000)/10%60);

  0006e	56		 push	 esi
  0006f	b9 00 00 00 00	 mov	 ecx, OFFSET ?g_DoppelGanger@@3VCDoppelGanger@@A ; g_DoppelGanger
  00074	e8 00 00 00 00	 call	 ?GetEventTime@CDoppelGanger@@QAEDPAUOBJECTSTRUCT@@@Z ; CDoppelGanger::GetEventTime
  00079	0f be c8	 movsx	 ecx, al
  0007c	b8 d3 4d 62 10	 mov	 eax, 274877907		; 10624dd3H
  00081	f7 e9		 imul	 ecx
  00083	c1 fa 06	 sar	 edx, 6
  00086	8b ca		 mov	 ecx, edx
  00088	c1 e9 1f	 shr	 ecx, 31			; 0000001fH
  0008b	03 ca		 add	 ecx, edx
  0008d	b8 67 66 66 66	 mov	 eax, 1717986919		; 66666667H
  00092	f7 e9		 imul	 ecx
  00094	c1 fa 02	 sar	 edx, 2
  00097	8b c2		 mov	 eax, edx
  00099	c1 e8 1f	 shr	 eax, 31			; 0000001fH
  0009c	03 c2		 add	 eax, edx
  0009e	99		 cdq
  0009f	b9 3c 00 00 00	 mov	 ecx, 60			; 0000003cH
  000a4	f7 f9		 idiv	 ecx

; 2298 : 	lpObj->TargetShopNumber = 540;
; 2299 : 	DataSend(lpObj->m_Index, (LPBYTE)&pMsg, sizeof(pMsg));////5

  000a6	8b 0e		 mov	 ecx, DWORD PTR [esi]
  000a8	6a 0b		 push	 11			; 0000000bH
  000aa	8d 45 f0	 lea	 eax, DWORD PTR _pMsg$[ebp]
  000ad	50		 push	 eax
  000ae	51		 push	 ecx
  000af	88 55 f5	 mov	 BYTE PTR _pMsg$[ebp+5], dl
  000b2	ba 1c 02 00 00	 mov	 edx, 540		; 0000021cH
  000b7	66 89 96 5a 04
	00 00		 mov	 WORD PTR [esi+1114], dx
  000be	e8 00 00 00 00	 call	 ?DataSend@@YAHHPAEK@Z	; DataSend

; 2300 : 	return true;
; 2301 : }

  000c3	8b 4d fc	 mov	 ecx, DWORD PTR __$ArrayPad$[ebp]
  000c6	83 c4 0c	 add	 esp, 12			; 0000000cH
  000c9	33 cd		 xor	 ecx, ebp
  000cb	b8 01 00 00 00	 mov	 eax, 1
  000d0	5e		 pop	 esi
  000d1	e8 00 00 00 00	 call	 @__security_check_cookie@4
  000d6	8b e5		 mov	 esp, ebp
  000d8	5d		 pop	 ebp
  000d9	c3		 ret	 0
?SartigantheAngel@@YAHPAUOBJECTSTRUCT@@0@Z ENDP		; SartigantheAngel
_TEXT	ENDS
PUBLIC	?NpcSilverBox@@YAHPAUOBJECTSTRUCT@@0@Z		; NpcSilverBox
EXTRN	?SilverChestOpen@CDoppelGanger@@QAEXPAUOBJECTSTRUCT@@@Z:PROC ; CDoppelGanger::SilverChestOpen
; Function compile flags: /Ogtp
;	COMDAT ?NpcSilverBox@@YAHPAUOBJECTSTRUCT@@0@Z
_TEXT	SEGMENT
_lpNpc$ = 8						; size = 4
_lpObj$ = 12						; size = 4
?NpcSilverBox@@YAHPAUOBJECTSTRUCT@@0@Z PROC		; NpcSilverBox, COMDAT

; 2303 : {

  00000	55		 push	 ebp
  00001	8b ec		 mov	 ebp, esp

; 2304 : 	if ( gObjIsConnected(lpObj->m_Index) == FALSE )

  00003	8b 45 0c	 mov	 eax, DWORD PTR _lpObj$[ebp]
  00006	8b 08		 mov	 ecx, DWORD PTR [eax]
  00008	51		 push	 ecx
  00009	e8 00 00 00 00	 call	 ?gObjIsConnected@@YAHH@Z ; gObjIsConnected
  0000e	83 c4 04	 add	 esp, 4
  00011	85 c0		 test	 eax, eax

; 2305 : 	{
; 2306 : 		return TRUE;

  00013	74 0e		 je	 SHORT $LN4@NpcSilverB

; 2307 : 	}
; 2308 : 
; 2309 : 	g_DoppelGanger.SilverChestOpen(lpNpc);

  00015	8b 55 08	 mov	 edx, DWORD PTR _lpNpc$[ebp]
  00018	52		 push	 edx
  00019	b9 00 00 00 00	 mov	 ecx, OFFSET ?g_DoppelGanger@@3VCDoppelGanger@@A ; g_DoppelGanger
  0001e	e8 00 00 00 00	 call	 ?SilverChestOpen@CDoppelGanger@@QAEXPAUOBJECTSTRUCT@@@Z ; CDoppelGanger::SilverChestOpen
$LN4@NpcSilverB:

; 2310 : 	return true;

  00023	b8 01 00 00 00	 mov	 eax, 1

; 2311 : }

  00028	5d		 pop	 ebp
  00029	c3		 ret	 0
?NpcSilverBox@@YAHPAUOBJECTSTRUCT@@0@Z ENDP		; NpcSilverBox
_TEXT	ENDS
PUBLIC	?NpcGoldBox@@YAHPAUOBJECTSTRUCT@@0@Z		; NpcGoldBox
EXTRN	?BoxClick@cPandoraBoxEvent@@QAE_NPAUOBJECTSTRUCT@@0@Z:PROC ; cPandoraBoxEvent::BoxClick
EXTRN	?gPandoraBoxEvent@@3VcPandoraBoxEvent@@A:BYTE	; gPandoraBoxEvent
EXTRN	?gObjDel@@YAFH@Z:PROC				; gObjDel
EXTRN	?ItemSerialCreateSend@@YAXHEEEHEEEEEHEE@Z:PROC	; ItemSerialCreateSend
; Function compile flags: /Ogtp
;	COMDAT ?NpcGoldBox@@YAHPAUOBJECTSTRUCT@@0@Z
_TEXT	SEGMENT
_lpNpc$ = 8						; size = 4
_lpObj$ = 12						; size = 4
?NpcGoldBox@@YAHPAUOBJECTSTRUCT@@0@Z PROC		; NpcGoldBox, COMDAT

; 2313 : {

  00000	55		 push	 ebp
  00001	8b ec		 mov	 ebp, esp
  00003	56		 push	 esi

; 2314 : 	if ( gObjIsConnected(lpObj->m_Index) == FALSE )

  00004	8b 75 0c	 mov	 esi, DWORD PTR _lpObj$[ebp]
  00007	8b 06		 mov	 eax, DWORD PTR [esi]
  00009	50		 push	 eax
  0000a	e8 00 00 00 00	 call	 ?gObjIsConnected@@YAHH@Z ; gObjIsConnected
  0000f	83 c4 04	 add	 esp, 4
  00012	85 c0		 test	 eax, eax

; 2315 : 	{
; 2316 : 		return TRUE;

  00014	0f 84 a8 00 00
	00		 je	 $LN11@NpcGoldBox

; 2317 : 	}
; 2318 : 
; 2319 : 	if(DG_MAP_RANGE(lpNpc->MapNumber))

  0001a	57		 push	 edi
  0001b	8b 7d 08	 mov	 edi, DWORD PTR _lpNpc$[ebp]
  0001e	0f b6 87 49 01
	00 00		 movzx	 eax, BYTE PTR [edi+329]
  00025	3c 41		 cmp	 al, 65			; 00000041H
  00027	0f 82 88 00 00
	00		 jb	 $LN3@NpcGoldBox
  0002d	b1 44		 mov	 cl, 68			; 00000044H
  0002f	3a c8		 cmp	 cl, al
  00031	1b c0		 sbb	 eax, eax
  00033	40		 inc	 eax
  00034	74 7f		 je	 SHORT $LN3@NpcGoldBox

; 2320 : 	{
; 2321 : 		ItemSerialCreateSend(lpObj->m_Index,lpObj->MapNumber,lpObj->X,lpObj->Y,ITEMGET(14,16),0,1,0,0,0,lpObj->m_Index,0,0);

  00036	8b 06		 mov	 eax, DWORD PTR [esi]
  00038	0f b6 96 46 01
	00 00		 movzx	 edx, BYTE PTR [esi+326]
  0003f	0f b6 8e 44 01
	00 00		 movzx	 ecx, BYTE PTR [esi+324]
  00046	6a 00		 push	 0
  00048	6a 00		 push	 0
  0004a	50		 push	 eax
  0004b	6a 00		 push	 0
  0004d	6a 00		 push	 0
  0004f	6a 00		 push	 0
  00051	6a 01		 push	 1
  00053	6a 00		 push	 0
  00055	68 10 1c 00 00	 push	 7184			; 00001c10H
  0005a	52		 push	 edx
  0005b	0f b6 96 49 01
	00 00		 movzx	 edx, BYTE PTR [esi+329]
  00062	51		 push	 ecx
  00063	52		 push	 edx
  00064	50		 push	 eax
  00065	e8 00 00 00 00	 call	 ?ItemSerialCreateSend@@YAXHEEEHEEEEEHEE@Z ; ItemSerialCreateSend

; 2322 : 		ItemSerialCreateSend(lpObj->m_Index,lpObj->MapNumber,lpObj->X,lpObj->Y,ITEMGET(14,13),0,1,0,0,0,lpObj->m_Index,0,0);

  0006a	8b 06		 mov	 eax, DWORD PTR [esi]
  0006c	0f b6 8e 46 01
	00 00		 movzx	 ecx, BYTE PTR [esi+326]
  00073	0f b6 96 44 01
	00 00		 movzx	 edx, BYTE PTR [esi+324]
  0007a	6a 00		 push	 0
  0007c	6a 00		 push	 0
  0007e	50		 push	 eax
  0007f	6a 00		 push	 0
  00081	6a 00		 push	 0
  00083	6a 00		 push	 0
  00085	6a 01		 push	 1
  00087	6a 00		 push	 0
  00089	68 0d 1c 00 00	 push	 7181			; 00001c0dH
  0008e	51		 push	 ecx
  0008f	0f b6 8e 49 01
	00 00		 movzx	 ecx, BYTE PTR [esi+329]
  00096	52		 push	 edx
  00097	51		 push	 ecx
  00098	50		 push	 eax
  00099	e8 00 00 00 00	 call	 ?ItemSerialCreateSend@@YAXHEEEHEEEEEHEE@Z ; ItemSerialCreateSend

; 2323 : 		gObjDel(lpNpc->m_Index);

  0009e	8b 17		 mov	 edx, DWORD PTR [edi]
  000a0	83 c4 68	 add	 esp, 104		; 00000068H
  000a3	52		 push	 edx
  000a4	e8 00 00 00 00	 call	 ?gObjDel@@YAFH@Z	; gObjDel
  000a9	83 c4 04	 add	 esp, 4
  000ac	5f		 pop	 edi

; 2324 : 		return true;
; 2325 : 	}
; 2326 : 	else
; 2327 : 	{
; 2328 : 		#ifdef PANDORA_EVENT
; 2329 : 		if(gPandoraBoxEvent.BoxClick(lpNpc, lpObj))

  000ad	b8 01 00 00 00	 mov	 eax, 1
  000b2	5e		 pop	 esi

; 2330 : 		{
; 2331 : 			return true;
; 2332 : 		}
; 2333 : 		#endif
; 2334 : 	}
; 2335 : 	
; 2336 : 	return true;
; 2337 : }

  000b3	5d		 pop	 ebp
  000b4	c3		 ret	 0
$LN3@NpcGoldBox:

; 2324 : 		return true;
; 2325 : 	}
; 2326 : 	else
; 2327 : 	{
; 2328 : 		#ifdef PANDORA_EVENT
; 2329 : 		if(gPandoraBoxEvent.BoxClick(lpNpc, lpObj))

  000b5	56		 push	 esi
  000b6	57		 push	 edi
  000b7	b9 00 00 00 00	 mov	 ecx, OFFSET ?gPandoraBoxEvent@@3VcPandoraBoxEvent@@A ; gPandoraBoxEvent
  000bc	e8 00 00 00 00	 call	 ?BoxClick@cPandoraBoxEvent@@QAE_NPAUOBJECTSTRUCT@@0@Z ; cPandoraBoxEvent::BoxClick
  000c1	5f		 pop	 edi
$LN11@NpcGoldBox:
  000c2	b8 01 00 00 00	 mov	 eax, 1
  000c7	5e		 pop	 esi

; 2330 : 		{
; 2331 : 			return true;
; 2332 : 		}
; 2333 : 		#endif
; 2334 : 	}
; 2335 : 	
; 2336 : 	return true;
; 2337 : }

  000c8	5d		 pop	 ebp
  000c9	c3		 ret	 0
?NpcGoldBox@@YAHPAUOBJECTSTRUCT@@0@Z ENDP		; NpcGoldBox
_TEXT	ENDS
PUBLIC	__$ArrayPad$
PUBLIC	?NpcJerint@@YA_NPAUOBJECTSTRUCT@@0@Z		; NpcJerint
; Function compile flags: /Ogtp
;	COMDAT ?NpcJerint@@YA_NPAUOBJECTSTRUCT@@0@Z
_TEXT	SEGMENT
_pMsg$ = -16						; size = 11
__$ArrayPad$ = -4					; size = 4
_lpNpc$ = 8						; size = 4
_lpObj$ = 12						; size = 4
?NpcJerint@@YA_NPAUOBJECTSTRUCT@@0@Z PROC		; NpcJerint, COMDAT

; 2340 : {

  00000	55		 push	 ebp
  00001	8b ec		 mov	 ebp, esp
  00003	83 ec 10	 sub	 esp, 16			; 00000010H
  00006	a1 00 00 00 00	 mov	 eax, DWORD PTR ___security_cookie
  0000b	33 c5		 xor	 eax, ebp
  0000d	89 45 fc	 mov	 DWORD PTR __$ArrayPad$[ebp], eax
  00010	56		 push	 esi
  00011	8b 75 0c	 mov	 esi, DWORD PTR _lpObj$[ebp]

; 2341 : 	if (!gObjIsConnected(lpObj)) return TRUE;

  00014	56		 push	 esi
  00015	e8 00 00 00 00	 call	 ?gObjIsConnected@@YAHPAUOBJECTSTRUCT@@@Z ; gObjIsConnected
  0001a	83 c4 04	 add	 esp, 4
  0001d	85 c0		 test	 eax, eax
  0001f	74 30		 je	 SHORT $LN4@NpcJerint

; 2342 : 	PMSG_TALKRESULT pMsg;
; 2343 : 	PHeadSetBE((LPBYTE)&pMsg, 0x30, 5);

  00021	6a 05		 push	 5
  00023	8d 45 f0	 lea	 eax, DWORD PTR _pMsg$[ebp]
  00026	6a 30		 push	 48			; 00000030H
  00028	50		 push	 eax
  00029	e8 00 00 00 00	 call	 ?PHeadSetBE@@YAXPAEEH@Z	; PHeadSetBE

; 2344 : 	pMsg.result = 0x24;
; 2345 : 	pMsg.level1 = 0;
; 2346 : 	lpObj->TargetShopNumber = 522;
; 2347 : 	DataSend(lpObj->m_Index, (LPBYTE)&pMsg, 5);

  0002e	8b 06		 mov	 eax, DWORD PTR [esi]
  00030	6a 05		 push	 5
  00032	8d 55 f0	 lea	 edx, DWORD PTR _pMsg$[ebp]
  00035	52		 push	 edx
  00036	b9 0a 02 00 00	 mov	 ecx, 522		; 0000020aH
  0003b	50		 push	 eax
  0003c	66 c7 45 f3 24
	00		 mov	 WORD PTR _pMsg$[ebp+3], 36 ; 00000024H
  00042	66 89 8e 5a 04
	00 00		 mov	 WORD PTR [esi+1114], cx
  00049	e8 00 00 00 00	 call	 ?DataSend@@YAHHPAEK@Z	; DataSend
  0004e	83 c4 18	 add	 esp, 24			; 00000018H
$LN4@NpcJerint:

; 2348 : 	return true;
; 2349 : }

  00051	8b 4d fc	 mov	 ecx, DWORD PTR __$ArrayPad$[ebp]
  00054	33 cd		 xor	 ecx, ebp
  00056	b0 01		 mov	 al, 1
  00058	5e		 pop	 esi
  00059	e8 00 00 00 00	 call	 @__security_check_cookie@4
  0005e	8b e5		 mov	 esp, ebp
  00060	5d		 pop	 ebp
  00061	c3		 ret	 0
?NpcJerint@@YA_NPAUOBJECTSTRUCT@@0@Z ENDP		; NpcJerint
_TEXT	ENDS
PUBLIC	??_C@_0EP@ENIJEGCI@?$FLGensSystem?$FN?5Gens_Vanert_NPC?5?$FL?$CFs@ ; `string'
PUBLIC	??_C@_0FA@MJFPFMDM@?$FLGensSystem?$FN?5Gens_Duprian_NPC?5?$FL?$CF@ ; `string'
PUBLIC	__$ArrayPad$
PUBLIC	?Npc_Dialog@@YA_NPAUOBJECTSTRUCT@@0@Z		; Npc_Dialog
EXTRN	?GetGensInfluenceName@GensSystem@@QAEPADPAUOBJECTSTRUCT@@@Z:PROC ; GensSystem::GetGensInfluenceName
EXTRN	?GetContributePoint@GensSystem@@QAEHPAUOBJECTSTRUCT@@@Z:PROC ; GensSystem::GetContributePoint
;	COMDAT ??_C@_0EP@ENIJEGCI@?$FLGensSystem?$FN?5Gens_Vanert_NPC?5?$FL?$CFs@
CONST	SEGMENT
??_C@_0EP@ENIJEGCI@?$FLGensSystem?$FN?5Gens_Vanert_NPC?5?$FL?$CFs@ DB '[G'
	DB	'ensSystem] Gens_Vanert_NPC [%s][%s] GensName [%s] Total Contr'
	DB	'ibutePoint [%d]', 00H			; `string'
CONST	ENDS
;	COMDAT ??_C@_0FA@MJFPFMDM@?$FLGensSystem?$FN?5Gens_Duprian_NPC?5?$FL?$CF@
CONST	SEGMENT
??_C@_0FA@MJFPFMDM@?$FLGensSystem?$FN?5Gens_Duprian_NPC?5?$FL?$CF@ DB '[G'
	DB	'ensSystem] Gens_Duprian_NPC [%s][%s] GensName [%s] Total Cont'
	DB	'ributePoint [%d]', 00H			; `string'
; Function compile flags: /Ogtp
CONST	ENDS
;	COMDAT ?Npc_Dialog@@YA_NPAUOBJECTSTRUCT@@0@Z
_TEXT	SEGMENT
_pResult$ = -16						; size = 12
__$ArrayPad$ = -4					; size = 4
_lpNpc$ = 8						; size = 4
_lpObj$ = 12						; size = 4
?Npc_Dialog@@YA_NPAUOBJECTSTRUCT@@0@Z PROC		; Npc_Dialog, COMDAT

; 2352 : {

  00000	55		 push	 ebp
  00001	8b ec		 mov	 ebp, esp
  00003	83 ec 10	 sub	 esp, 16			; 00000010H
  00006	a1 00 00 00 00	 mov	 eax, DWORD PTR ___security_cookie
  0000b	33 c5		 xor	 eax, ebp
  0000d	89 45 fc	 mov	 DWORD PTR __$ArrayPad$[ebp], eax
  00010	56		 push	 esi
  00011	8b 75 0c	 mov	 esi, DWORD PTR _lpObj$[ebp]

; 2353 : 	PMSG_ANS_DIG_NPC_CLICK pResult;
; 2354 : 	// ----
; 2355 : 	char * GensName;
; 2356 : 	// ----
; 2357 : 	if( gObjIsConnected(lpObj->m_Index) )

  00014	8b 06		 mov	 eax, DWORD PTR [esi]
  00016	50		 push	 eax
  00017	e8 00 00 00 00	 call	 ?gObjIsConnected@@YAHH@Z ; gObjIsConnected
  0001c	83 c4 04	 add	 esp, 4
  0001f	85 c0		 test	 eax, eax
  00021	0f 84 eb 00 00
	00		 je	 $LN9@Npc_Dialog

; 2358 : 	{
; 2359 : 		lpObj->TargetShopNumber = lpNpc->Class;

  00027	8b 4d 08	 mov	 ecx, DWORD PTR _lpNpc$[ebp]
  0002a	0f b7 81 b8 00
	00 00		 movzx	 eax, WORD PTR [ecx+184]
  00031	66 89 86 5a 04
	00 00		 mov	 WORD PTR [esi+1114], ax

; 2360 : 		// ----
; 2361 : 		switch(lpObj->TargetShopNumber) // Not original, but easier

  00038	98		 cwde
  00039	3d 20 02 00 00	 cmp	 eax, 544		; 00000220H
  0003e	0f 8f 9a 00 00
	00		 jg	 $LN12@Npc_Dialog
  00044	74 59		 je	 SHORT $LN4@Npc_Dialog
  00046	3d 01 01 00 00	 cmp	 eax, 257		; 00000101H
  0004b	0f 84 97 00 00
	00		 je	 $LN2@Npc_Dialog
  00051	3d 1f 02 00 00	 cmp	 eax, 543		; 0000021fH
  00056	0f 85 93 00 00
	00		 jne	 $LN7@Npc_Dialog

; 2362 : 		{
; 2363 : //#ifdef GENS
; 2364 : 		case 543:
; 2365 : 			{
; 2366 : 				if(gGENS)

  0005c	83 3d 00 00 00
	00 00		 cmp	 DWORD PTR ?gGENS@@3HA, 0 ; gGENS
  00063	0f 84 86 00 00
	00		 je	 $LN7@Npc_Dialog

; 2367 : 				{
; 2368 : 					pResult.dwContributePoint	= gGensSystem.GetContributePoint(lpObj);

  00069	56		 push	 esi
  0006a	b9 00 00 00 00	 mov	 ecx, OFFSET ?gGensSystem@@3VGensSystem@@A ; gGensSystem
  0006f	e8 00 00 00 00	 call	 ?GetContributePoint@GensSystem@@QAEHPAUOBJECTSTRUCT@@@Z ; GensSystem::GetContributePoint

; 2369 : 					GensName					= gGensSystem.GetGensInfluenceName(lpObj);

  00074	56		 push	 esi
  00075	b9 00 00 00 00	 mov	 ecx, OFFSET ?gGensSystem@@3VGensSystem@@A ; gGensSystem
  0007a	89 45 f8	 mov	 DWORD PTR _pResult$[ebp+8], eax
  0007d	e8 00 00 00 00	 call	 ?GetGensInfluenceName@GensSystem@@QAEPADPAUOBJECTSTRUCT@@@Z ; GensSystem::GetGensInfluenceName

; 2370 : 					// ----
; 2371 : 					LogAddTD("[GensSystem] Gens_Duprian_NPC [%s][%s] GensName [%s] Total ContributePoint [%d]",
; 2372 : 						lpObj->AccountID, lpObj->Name, GensName, pResult.dwContributePoint);

  00082	8b 55 f8	 mov	 edx, DWORD PTR _pResult$[ebp+8]
  00085	52		 push	 edx
  00086	50		 push	 eax
  00087	8d 46 77	 lea	 eax, DWORD PTR [esi+119]
  0008a	50		 push	 eax
  0008b	8d 4e 6c	 lea	 ecx, DWORD PTR [esi+108]
  0008e	51		 push	 ecx
  0008f	68 00 00 00 00	 push	 OFFSET ??_C@_0FA@MJFPFMDM@?$FLGensSystem?$FN?5Gens_Duprian_NPC?5?$FL?$CF@
  00094	ff 15 00 00 00
	00		 call	 DWORD PTR ?LogAddTD@@3P6AXPADZZA ; LogAddTD
  0009a	83 c4 14	 add	 esp, 20			; 00000014H

; 2373 : 				}
; 2374 : 			}
; 2375 : 			break;

  0009d	eb 50		 jmp	 SHORT $LN7@Npc_Dialog
$LN4@Npc_Dialog:

; 2376 : 			// --
; 2377 : 		case 544:
; 2378 : 			{
; 2379 : 				if(gGENS)

  0009f	83 3d 00 00 00
	00 00		 cmp	 DWORD PTR ?gGENS@@3HA, 0 ; gGENS
  000a6	74 47		 je	 SHORT $LN7@Npc_Dialog

; 2380 : 				{
; 2381 : 					pResult.dwContributePoint	= gGensSystem.GetContributePoint(lpObj);

  000a8	56		 push	 esi
  000a9	b9 00 00 00 00	 mov	 ecx, OFFSET ?gGensSystem@@3VGensSystem@@A ; gGensSystem
  000ae	e8 00 00 00 00	 call	 ?GetContributePoint@GensSystem@@QAEHPAUOBJECTSTRUCT@@@Z ; GensSystem::GetContributePoint

; 2382 : 					GensName					= gGensSystem.GetGensInfluenceName(lpObj);

  000b3	56		 push	 esi
  000b4	b9 00 00 00 00	 mov	 ecx, OFFSET ?gGensSystem@@3VGensSystem@@A ; gGensSystem
  000b9	89 45 f8	 mov	 DWORD PTR _pResult$[ebp+8], eax
  000bc	e8 00 00 00 00	 call	 ?GetGensInfluenceName@GensSystem@@QAEPADPAUOBJECTSTRUCT@@@Z ; GensSystem::GetGensInfluenceName

; 2383 : 					// ----
; 2384 : 					LogAddTD("[GensSystem] Gens_Vanert_NPC [%s][%s] GensName [%s] Total ContributePoint [%d]",
; 2385 : 						lpObj->AccountID, lpObj->Name, GensName, pResult.dwContributePoint);

  000c1	8b 55 f8	 mov	 edx, DWORD PTR _pResult$[ebp+8]
  000c4	52		 push	 edx
  000c5	50		 push	 eax
  000c6	8d 46 77	 lea	 eax, DWORD PTR [esi+119]
  000c9	50		 push	 eax
  000ca	8d 4e 6c	 lea	 ecx, DWORD PTR [esi+108]
  000cd	51		 push	 ecx
  000ce	68 00 00 00 00	 push	 OFFSET ??_C@_0EP@ENIJEGCI@?$FLGensSystem?$FN?5Gens_Vanert_NPC?5?$FL?$CFs@
  000d3	ff 15 00 00 00
	00		 call	 DWORD PTR ?LogAddTD@@3P6AXPADZZA ; LogAddTD
  000d9	83 c4 14	 add	 esp, 20			; 00000014H

; 2386 : 				}
; 2387 : 			}
; 2388 : 			break;

  000dc	eb 11		 jmp	 SHORT $LN7@Npc_Dialog
$LN12@Npc_Dialog:

; 2360 : 		// ----
; 2361 : 		switch(lpObj->TargetShopNumber) // Not original, but easier

  000de	05 ca fd ff ff	 add	 eax, -566		; fffffdcaH
  000e3	83 f8 02	 cmp	 eax, 2
  000e6	77 07		 ja	 SHORT $LN7@Npc_Dialog
$LN2@Npc_Dialog:

; 2389 : //#endif
; 2390 : 			// --
; 2391 : 		case 257: case 566:
; 2392 : 		case 567: case 568:
; 2393 : 			{
; 2394 : 				pResult.dwContributePoint = 0;

  000e8	c7 45 f8 00 00
	00 00		 mov	 DWORD PTR _pResult$[ebp+8], 0
$LN7@Npc_Dialog:

; 2395 : 			}
; 2396 : 			break;
; 2397 : 		}
; 2398 : 		// ----
; 2399 : 		if( lpObj->TargetShopNumber == 568 )
; 2400 : 		{
; 2401 : 			//lpObj->m_IfState._bf0 = lpObj->m_IfState._bf0 & 0xFFFF003F | 0x280;
; 2402 : 			//lpObj->m_IfState._bf0 &= 0xFFFFFFC3u;
; 2403 : 			//lpObj->m_IfState._bf0 = lpObj->m_IfState._bf0 & 0xFFFFFFFC | 1;
; 2404 : 		}
; 2405 : 		// ----
; 2406 : 		pResult.h.c					= 0xC3;
; 2407 : 		pResult.h.headcode			= 0xF9;
; 2408 : 		pResult.h.subcode			= 1;
; 2409 : 		pResult.h.size				= sizeof(pResult);
; 2410 : 		pResult.wNPCIndex			= lpObj->TargetShopNumber;
; 2411 : 		// ----
; 2412 : 		DataSend(lpObj->m_Index, (LPBYTE)&pResult, pResult.h.size);

  000ef	8b 0e		 mov	 ecx, DWORD PTR [esi]
  000f1	66 8b 96 5a 04
	00 00		 mov	 dx, WORD PTR [esi+1114]
  000f8	6a 0c		 push	 12			; 0000000cH
  000fa	8d 45 f0	 lea	 eax, DWORD PTR _pResult$[ebp]
  000fd	50		 push	 eax
  000fe	51		 push	 ecx
  000ff	c7 45 f0 c3 0c
	f9 01		 mov	 DWORD PTR _pResult$[ebp], 33098947 ; 01f90cc3H
  00106	66 89 55 f4	 mov	 WORD PTR _pResult$[ebp+4], dx
  0010a	e8 00 00 00 00	 call	 ?DataSend@@YAHHPAEK@Z	; DataSend
  0010f	83 c4 0c	 add	 esp, 12			; 0000000cH
$LN9@Npc_Dialog:

; 2413 : 		// ----
; 2414 : 		return true;
; 2415 : 	}
; 2416 : 	// ----
; 2417 : 	return true;
; 2418 : }

  00112	8b 4d fc	 mov	 ecx, DWORD PTR __$ArrayPad$[ebp]
  00115	33 cd		 xor	 ecx, ebp
  00117	b0 01		 mov	 al, 1
  00119	5e		 pop	 esi
  0011a	e8 00 00 00 00	 call	 @__security_check_cookie@4
  0011f	8b e5		 mov	 esp, ebp
  00121	5d		 pop	 ebp
  00122	c3		 ret	 0
?Npc_Dialog@@YA_NPAUOBJECTSTRUCT@@0@Z ENDP		; Npc_Dialog
_TEXT	ENDS
PUBLIC	??_C@_0CL@GBCGCHBL@?$FLLucky?5Item?$FN?5?$FL?$CFs?$FN?$FL?$CFs?$FN?5Lucky?5Item@ ; `string'
PUBLIC	__$ArrayPad$
PUBLIC	?NpcDabide@@YA_NPAUOBJECTSTRUCT@@0@Z		; NpcDabide
;	COMDAT ??_C@_0CL@GBCGCHBL@?$FLLucky?5Item?$FN?5?$FL?$CFs?$FN?$FL?$CFs?$FN?5Lucky?5Item@
CONST	SEGMENT
??_C@_0CL@GBCGCHBL@?$FLLucky?5Item?$FN?5?$FL?$CFs?$FN?$FL?$CFs?$FN?5Lucky?5Item@ DB '['
	DB	'Lucky Item] [%s][%s] Lucky Item Mix Start', 00H ; `string'
; Function compile flags: /Ogtp
CONST	ENDS
;	COMDAT ?NpcDabide@@YA_NPAUOBJECTSTRUCT@@0@Z
_TEXT	SEGMENT
_pResult$225656 = -16					; size = 11
__$ArrayPad$ = -4					; size = 4
_lpNpc$ = 8						; size = 4
_lpObj$ = 12						; size = 4
?NpcDabide@@YA_NPAUOBJECTSTRUCT@@0@Z PROC		; NpcDabide, COMDAT

; 2421 : {

  00000	55		 push	 ebp
  00001	8b ec		 mov	 ebp, esp
  00003	83 ec 10	 sub	 esp, 16			; 00000010H
  00006	a1 00 00 00 00	 mov	 eax, DWORD PTR ___security_cookie
  0000b	33 c5		 xor	 eax, ebp
  0000d	89 45 fc	 mov	 DWORD PTR __$ArrayPad$[ebp], eax

; 2422 : 	if( bCanChaosBox )

  00010	83 3d 00 00 00
	00 00		 cmp	 DWORD PTR ?bCanChaosBox@@3HA, 0 ; bCanChaosBox
  00017	56		 push	 esi
  00018	8b 75 0c	 mov	 esi, DWORD PTR _lpObj$[ebp]
  0001b	0f 84 bf 00 00
	00		 je	 $LN3@NpcDabide

; 2423 : 	{
; 2424 : 		if( lpObj->m_IfState.use > 0 )

  00021	f6 86 1c 0e 00
	00 03		 test	 BYTE PTR [esi+3612], 3

; 2425 : 		{
; 2426 : 			return true;

  00028	0f 87 b2 00 00
	00		 ja	 $LN3@NpcDabide

; 2427 : 		}
; 2428 : 		// ----
; 2429 : 		if( lpObj->m_bPShopOpen )

  0002e	80 be c4 0e 00
	00 00		 cmp	 BYTE PTR [esi+3780], 0
  00035	74 44		 je	 SHORT $LN1@NpcDabide

; 2430 : 		{
; 2431 : 			LogAdd("[%s][%s] is Already Opening PShop, ChaosBox Failed", lpObj->AccountID, lpObj->Name);

  00037	8d 46 77	 lea	 eax, DWORD PTR [esi+119]
  0003a	50		 push	 eax
  0003b	8d 4e 6c	 lea	 ecx, DWORD PTR [esi+108]
  0003e	51		 push	 ecx
  0003f	68 00 00 00 00	 push	 OFFSET ??_C@_0DD@KJEEOOOJ@?$FL?$CFs?$FN?$FL?$CFs?$FN?5is?5Already?5Opening?5PSho@
  00044	ff 15 00 00 00
	00		 call	 DWORD PTR ?LogAdd@@3P6AXPADZZA ; LogAdd

; 2432 : 			GCServerMsgStringSend(lMsg.Get(MSGGET(4,194)), lpObj->m_Index, 1);

  0004a	8b 16		 mov	 edx, DWORD PTR [esi]
  0004c	83 c4 0c	 add	 esp, 12			; 0000000cH
  0004f	6a 01		 push	 1
  00051	52		 push	 edx
  00052	68 c2 04 00 00	 push	 1218			; 000004c2H
  00057	b9 00 00 00 00	 mov	 ecx, OFFSET ?lMsg@@3VCMsg@@A ; lMsg
  0005c	e8 00 00 00 00	 call	 ?Get@CMsg@@QAEPADH@Z	; CMsg::Get
  00061	50		 push	 eax
  00062	e8 00 00 00 00	 call	 ?GCServerMsgStringSend@@YAXPADHE@Z ; GCServerMsgStringSend
  00067	83 c4 0c	 add	 esp, 12			; 0000000cH

; 2457 : 	}
; 2458 : 	// ----
; 2459 : 	return true;

  0006a	b0 01		 mov	 al, 1
  0006c	5e		 pop	 esi

; 2460 : }

  0006d	8b 4d fc	 mov	 ecx, DWORD PTR __$ArrayPad$[ebp]
  00070	33 cd		 xor	 ecx, ebp
  00072	e8 00 00 00 00	 call	 @__security_check_cookie@4
  00077	8b e5		 mov	 esp, ebp
  00079	5d		 pop	 ebp
  0007a	c3		 ret	 0
$LN1@NpcDabide:

; 2433 : 			// ----
; 2434 : 			return true;
; 2435 : 		}
; 2436 : 		// ----
; 2437 : 		lpObj->bIsChaosMixCompleted = false;
; 2438 : 		// ----
; 2439 : 		PMSG_TALKRESULT pResult;
; 2440 : 		// ----
; 2441 : 		pResult.h.c				= 0xC3;
; 2442 : 		pResult.h.headcode		= 0x30;
; 2443 : 		pResult.h.size			= sizeof(pResult);
; 2444 : 		pResult.result			= 0x26;
; 2445 : 		// ----
; 2446 : 		DataSend(lpObj->m_Index, (LPBYTE)&pResult, pResult.h.size);

  0007b	8b 0e		 mov	 ecx, DWORD PTR [esi]
  0007d	6a 0b		 push	 11			; 0000000bH
  0007f	8d 45 f0	 lea	 eax, DWORD PTR _pResult$225656[ebp]
  00082	50		 push	 eax
  00083	51		 push	 ecx
  00084	c6 86 79 12 00
	00 00		 mov	 BYTE PTR [esi+4729], 0
  0008b	c6 45 f0 c3	 mov	 BYTE PTR _pResult$225656[ebp], 195 ; 000000c3H
  0008f	66 c7 45 f1 0b
	30		 mov	 WORD PTR _pResult$225656[ebp+1], 12299 ; 0000300bH
  00095	c6 45 f3 26	 mov	 BYTE PTR _pResult$225656[ebp+3], 38 ; 00000026H
  00099	e8 00 00 00 00	 call	 ?DataSend@@YAHHPAEK@Z	; DataSend

; 2447 : 		// ----
; 2448 : 		lpObj->m_IfState.use	= 1;
; 2449 : 		lpObj->m_IfState.type	= 7;

  0009e	8b 96 1c 0e 00
	00		 mov	 edx, DWORD PTR [esi+3612]

; 2450 : 		// ----
; 2451 : 		gObjInventoryTrans(lpObj->m_Index);

  000a4	8b 06		 mov	 eax, DWORD PTR [esi]
  000a6	81 e2 fd 01 ff
	ff		 and	 edx, -65027		; ffff01fdH
  000ac	81 ca c1 01 00
	00		 or	 edx, 449		; 000001c1H
  000b2	50		 push	 eax
  000b3	89 96 1c 0e 00
	00		 mov	 DWORD PTR [esi+3612], edx
  000b9	e8 00 00 00 00	 call	 ?gObjInventoryTrans@@YAHH@Z ; gObjInventoryTrans

; 2452 : 		// ----
; 2453 : 		LogAddTD("[Lucky Item] [%s][%s] Lucky Item Mix Start", lpObj->AccountID, lpObj->Name);

  000be	8d 4e 77	 lea	 ecx, DWORD PTR [esi+119]
  000c1	51		 push	 ecx
  000c2	8d 56 6c	 lea	 edx, DWORD PTR [esi+108]
  000c5	52		 push	 edx
  000c6	68 00 00 00 00	 push	 OFFSET ??_C@_0CL@GBCGCHBL@?$FLLucky?5Item?$FN?5?$FL?$CFs?$FN?$FL?$CFs?$FN?5Lucky?5Item@
  000cb	ff 15 00 00 00
	00		 call	 DWORD PTR ?LogAddTD@@3P6AXPADZZA ; LogAddTD

; 2454 : 		// ----
; 2455 : 		gObjItemTextSave(lpObj);

  000d1	56		 push	 esi
  000d2	e8 00 00 00 00	 call	 ?gObjItemTextSave@@YAXPAUOBJECTSTRUCT@@@Z ; gObjItemTextSave

; 2456 : 		gObjWarehouseTextSave(lpObj);

  000d7	56		 push	 esi
  000d8	e8 00 00 00 00	 call	 ?gObjWarehouseTextSave@@YAXPAUOBJECTSTRUCT@@@Z ; gObjWarehouseTextSave
  000dd	83 c4 24	 add	 esp, 36			; 00000024H
$LN3@NpcDabide:

; 2460 : }

  000e0	8b 4d fc	 mov	 ecx, DWORD PTR __$ArrayPad$[ebp]
  000e3	33 cd		 xor	 ecx, ebp
  000e5	b0 01		 mov	 al, 1
  000e7	5e		 pop	 esi
  000e8	e8 00 00 00 00	 call	 @__security_check_cookie@4
  000ed	8b e5		 mov	 esp, ebp
  000ef	5d		 pop	 ebp
  000f0	c3		 ret	 0
?NpcDabide@@YA_NPAUOBJECTSTRUCT@@0@Z ENDP		; NpcDabide
_TEXT	ENDS
PUBLIC	?NpcTalk@@YAHPAUOBJECTSTRUCT@@0@Z		; NpcTalk
EXTRN	?NpcJewelOfHarmony@CJewelOfHarmonySystem@@QAEHPAUOBJECTSTRUCT@@0@Z:PROC ; CJewelOfHarmonySystem::NpcJewelOfHarmony
EXTRN	?g_kJewelOfHarmonySystem@@3VCJewelOfHarmonySystem@@A:BYTE ; g_kJewelOfHarmonySystem
EXTRN	?NpcDialog@CCarnageEvent@@QAE_NHH@Z:PROC	; CCarnageEvent::NpcDialog
EXTRN	?g_CarnageEvent@@3VCCarnageEvent@@A:BYTE	; g_CarnageEvent
EXTRN	?Dialog@ZtWinQuestSystem@@QAE_NHH@Z:PROC	; ZtWinQuestSystem::Dialog
EXTRN	?g_ZtWinQuestSystem@@3VZtWinQuestSystem@@A:BYTE	; g_ZtWinQuestSystem
EXTRN	?NPCDialog@PKClear@@QAE_NHH@Z:PROC		; PKClear::NPCDialog
EXTRN	?g_PKClear@@3VPKClear@@A:BYTE			; g_PKClear
EXTRN	?NpcDialog@cGrandReset@@QAE_NHH@Z:PROC		; cGrandReset::NpcDialog
EXTRN	?gGrandReset@@3VcGrandReset@@A:BYTE		; gGrandReset
EXTRN	?NpcDialog@cSystemOfRage@@QAE_NHH@Z:PROC	; cSystemOfRage::NpcDialog
EXTRN	?gSystemOfRage@@3VcSystemOfRage@@A:BYTE		; gSystemOfRage
EXTRN	?Dialog@ZtTeleportEvo@@QAE_NHH@Z:PROC		; ZtTeleportEvo::Dialog
EXTRN	?g_ZtTeleportEvo@@3VZtTeleportEvo@@A:BYTE	; g_ZtTeleportEvo
EXTRN	?Dialog@ZtTeleport@@QAE_NHH@Z:PROC		; ZtTeleport::Dialog
EXTRN	?g_ZtTeleport@@3VZtTeleport@@A:BYTE		; g_ZtTeleport
EXTRN	?NpcDialog@CTeamVsTeam@@QAE_NHH@Z:PROC		; CTeamVsTeam::NpcDialog
EXTRN	?g_TeamVsTeam@@3VCTeamVsTeam@@A:BYTE		; g_TeamVsTeam
EXTRN	?NpcDialog@CDungeonSiege@@QAE_NHH@Z:PROC	; CDungeonSiege::NpcDialog
EXTRN	?g_DungeonSiege@@3VCDungeonSiege@@A:BYTE	; g_DungeonSiege
EXTRN	?NpcDialog@cResetSystem@@QAE_NHH@Z:PROC		; cResetSystem::NpcDialog
EXTRN	?gResetSystem@@3VcResetSystem@@A:BYTE		; gResetSystem
EXTRN	?NpcDialog@CMarriage@@QAE_NHH@Z:PROC		; CMarriage::NpcDialog
EXTRN	?g_Marriage@@3VCMarriage@@A:BYTE		; g_Marriage
EXTRN	?NPCClick@cBMQuest@@QAE_NHH@Z:PROC		; cBMQuest::NPCClick
EXTRN	?BMQuest@@3VcBMQuest@@A:BYTE			; BMQuest
EXTRN	?Dialog@BufferSystem@@QAE_NHH@Z:PROC		; BufferSystem::Dialog
EXTRN	?g_BufferSystem@@3VBufferSystem@@A:BYTE		; g_BufferSystem
EXTRN	?NPC_Dialog@PersonalShopZt@@QAE_NHH@Z:PROC	; PersonalShopZt::NPC_Dialog
EXTRN	?g_PersonalShopZt@@3VPersonalShopZt@@A:BYTE	; g_PersonalShopZt
EXTRN	?NPCClick@cBloodHound@@QAEXHH@Z:PROC		; cBloodHound::NPCClick
EXTRN	?BloodHound@@3VcBloodHound@@A:BYTE		; BloodHound
EXTRN	?NPCDialog@MonsterQuest@@QAE_NHH@Z:PROC		; MonsterQuest::NPCDialog
EXTRN	?gMonsterQuest@@3VMonsterQuest@@A:BYTE		; gMonsterQuest
EXTRN	?NPCTeleport@cGrandHero@@QAE_NPAUOBJECTSTRUCT@@0@Z:PROC ; cGrandHero::NPCTeleport
EXTRN	?GrandHero@@3VcGrandHero@@A:BYTE		; GrandHero
EXTRN	?NPCClick@cTeleportManager@@QAEXPAUOBJECTSTRUCT@@0@Z:PROC ; cTeleportManager::NPCClick
EXTRN	?gTeleportManager@@3VcTeleportManager@@A:BYTE	; gTeleportManager
EXTRN	?NPCClick@cSearchEvent@@QAEXHH@Z:PROC		; cSearchEvent::NPCClick
EXTRN	?SearchEvent@@3VcSearchEvent@@A:BYTE		; SearchEvent
EXTRN	?NPCClicker@cWinQuestSystem@@QAEXPAUOBJECTSTRUCT@@0@Z:PROC ; cWinQuestSystem::NPCClicker
EXTRN	?gWinQuestSystem@@3VcWinQuestSystem@@A:BYTE	; gWinQuestSystem
EXTRN	?NPCClick@cTvTEvent@@QAEXPAUOBJECTSTRUCT@@0@Z:PROC ; cTvTEvent::NPCClick
EXTRN	?TvT@@3VcTvTEvent@@A:BYTE			; TvT
EXTRN	?NPCClick@cZtQuest@@QAEXPAUOBJECTSTRUCT@@0@Z:PROC ; cZtQuest::NPCClick
EXTRN	?ZtQuestSystem@@3VcZtQuest@@A:BYTE		; ZtQuestSystem
EXTRN	?gQeustNpcTeleport@@3VCQeustNpcTeleport@@A:BYTE	; gQeustNpcTeleport
; Function compile flags: /Ogtp
;	COMDAT ?NpcTalk@@YAHPAUOBJECTSTRUCT@@0@Z
_TEXT	SEGMENT
_lpNpc$ = 8						; size = 4
_lpObj$ = 12						; size = 4
?NpcTalk@@YAHPAUOBJECTSTRUCT@@0@Z PROC			; NpcTalk, COMDAT

; 60   : {

  00000	55		 push	 ebp
  00001	8b ec		 mov	 ebp, esp
  00003	53		 push	 ebx
  00004	56		 push	 esi

; 61   : 	int npcnum = lpNpc->Class;
; 62   : 	lpObj->NPC = npcnum;

  00005	8b 75 0c	 mov	 esi, DWORD PTR _lpObj$[ebp]
  00008	57		 push	 edi
  00009	8b 7d 08	 mov	 edi, DWORD PTR _lpNpc$[ebp]
  0000c	0f b7 9f b8 00
	00 00		 movzx	 ebx, WORD PTR [edi+184]
  00013	89 9e a4 22 00
	00		 mov	 DWORD PTR [esi+8868], ebx

; 63   : 
; 64   : #ifdef DEBUG_CODE
; 65   : 	LogAddC(2,"npcnum: %d",npcnum);
; 66   : #endif
; 67   : 
; 68   : 	if ( npcnum < 0 )

  00019	85 db		 test	 ebx, ebx

; 69   : 	{
; 70   : 		return FALSE;

  0001b	0f 88 cf 05 00
	00		 js	 $LN1@NpcTalk

; 71   : 	}
; 72   : 
; 73   : 	if ( (lpObj->m_IfState.use) > 0 )

  00021	f6 86 1c 0e 00
	00 03		 test	 BYTE PTR [esi+3612], 3

; 74   : 	{
; 75   : 		return TRUE;

  00028	0f 87 7b 02 00
	00		 ja	 $LN181@NpcTalk

; 76   : 	}
; 77   : 
; 78   : 	if ( npcnum == 229 )

  0002e	81 fb e5 00 00
	00		 cmp	 ebx, 229		; 000000e5H
  00034	75 39		 jne	 SHORT $LN170@NpcTalk

; 79   : 	{
; 80   : 		gQeustNpcTeleport.TalkRefAdd();

  00036	68 04 00 00 00	 push	 OFFSET ?gQeustNpcTeleport@@3VCQeustNpcTeleport@@A+4
  0003b	ff 15 00 00 00
	00		 call	 DWORD PTR __imp__EnterCriticalSection@4
  00041	a1 00 00 00 00	 mov	 eax, DWORD PTR ?gQeustNpcTeleport@@3VCQeustNpcTeleport@@A
  00046	40		 inc	 eax
  00047	50		 push	 eax
  00048	68 00 00 00 00	 push	 OFFSET ??_C@_0BL@FMJKLKBP@QeustNpc?5RefCount?5Inc?5?$DN?5?$CFd?$AA@
  0004d	a3 00 00 00 00	 mov	 DWORD PTR ?gQeustNpcTeleport@@3VCQeustNpcTeleport@@A, eax
  00052	ff 15 00 00 00
	00		 call	 DWORD PTR ?LogAdd@@3P6AXPADZZA ; LogAdd
  00058	83 c4 08	 add	 esp, 8
  0005b	68 04 00 00 00	 push	 OFFSET ?gQeustNpcTeleport@@3VCQeustNpcTeleport@@A+4
  00060	ff 15 00 00 00
	00		 call	 DWORD PTR __imp__LeaveCriticalSection@4

; 81   : 		lpObj->TargetShopNumber = npcnum;

  00066	8b c3		 mov	 eax, ebx
  00068	66 89 86 5a 04
	00 00		 mov	 WORD PTR [esi+1114], ax
$LN170@NpcTalk:

; 82   : 	}
; 83   : 
; 84   : 	//if ( npcnum == 568 )
; 85   : 	//{
; 86   : 	//	gQeustNpcTeleport.TalkRefAdd();
; 87   : 	//	lpObj->TargetShopNumber = npcnum;
; 88   : 	//}
; 89   : 
; 90   : 	if ( NpcQuestCheck(lpNpc, lpObj) != FALSE )

  0006f	56		 push	 esi
  00070	57		 push	 edi
  00071	e8 00 00 00 00	 call	 ?NpcQuestCheck@@YAHPAUOBJECTSTRUCT@@0@Z ; NpcQuestCheck
  00076	83 c4 08	 add	 esp, 8
  00079	85 c0		 test	 eax, eax

; 91   : 	{
; 92   : 		return TRUE;

  0007b	0f 85 28 02 00
	00		 jne	 $LN181@NpcTalk

; 93   : 	}
; 94   : 	ZtQuestSystem.NPCClick(lpNpc,lpObj);

  00081	56		 push	 esi
  00082	57		 push	 edi
  00083	b9 00 00 00 00	 mov	 ecx, OFFSET ?ZtQuestSystem@@3VcZtQuest@@A ; ZtQuestSystem
  00088	e8 00 00 00 00	 call	 ?NPCClick@cZtQuest@@QAEXPAUOBJECTSTRUCT@@0@Z ; cZtQuest::NPCClick

; 95   : 
; 96   : 	if(g_ZtLicense.user.TvTEvent)

  0008d	80 3d d1 00 00
	00 00		 cmp	 BYTE PTR ?g_ZtLicense@@3VCZtLicense@@A+209, 0
  00094	74 0c		 je	 SHORT $LN168@NpcTalk

; 97   : 	{
; 98   : 		TvT.NPCClick(lpNpc,lpObj);

  00096	56		 push	 esi
  00097	57		 push	 edi
  00098	b9 00 00 00 00	 mov	 ecx, OFFSET ?TvT@@3VcTvTEvent@@A ; TvT
  0009d	e8 00 00 00 00	 call	 ?NPCClick@cTvTEvent@@QAEXPAUOBJECTSTRUCT@@0@Z ; cTvTEvent::NPCClick
$LN168@NpcTalk:

; 99   : 	}
; 100  : 
; 101  : 	if(g_ZtLicense.user.WinQuest) gWinQuestSystem.NPCClicker(lpNpc,lpObj);

  000a2	80 3d ce 00 00
	00 00		 cmp	 BYTE PTR ?g_ZtLicense@@3VCZtLicense@@A+206, 0
  000a9	74 0c		 je	 SHORT $LN167@NpcTalk
  000ab	56		 push	 esi
  000ac	57		 push	 edi
  000ad	b9 00 00 00 00	 mov	 ecx, OFFSET ?gWinQuestSystem@@3VcWinQuestSystem@@A ; gWinQuestSystem
  000b2	e8 00 00 00 00	 call	 ?NPCClicker@cWinQuestSystem@@QAEXPAUOBJECTSTRUCT@@0@Z ; cWinQuestSystem::NPCClicker
$LN167@NpcTalk:

; 102  : 
; 103  : 	SearchEvent.NPCClick(lpObj->m_Index,lpNpc->m_Index);

  000b7	8b 0f		 mov	 ecx, DWORD PTR [edi]
