; Listing generated by Microsoft (R) Optimizing Compiler Version 16.00.30319.01 

	TITLE	E:\work\tranet_version\GS\GameServer\ObjAttack.cpp
	.686P
	.XMM
	include listing.inc
	.model	flat

INCLUDELIB LIBCMT
INCLUDELIB OLDNAMES

_DATA	SEGMENT
_g_sttBLOODCASTLE_LEVEL DD 0fH
	DD	050H
	DD	0aH
	DD	03cH
	DD	051H
	DD	082H
	DD	03dH
	DD	06eH
	DD	083H
	DD	0b4H
	DD	06fH
	DD	0a0H
	DD	0b5H
	DD	0e6H
	DD	0a1H
	DD	0d2H
	DD	0e7H
	DD	0118H
	DD	0d3H
	DD	0104H
	DD	0119H
	DD	014aH
	DD	0105H
	DD	0136H
	DD	014bH
	DD	03e8H
	DD	0137H
	DD	03e8H
	DD	0fH
	DD	04afH
	DD	0aH
	DD	04afH
_g_sttCHAOSCASTLE_LEVEL DD 0fH
	DD	031H
	DD	0fH
	DD	01dH
	DD	032H
	DD	077H
	DD	01eH
	DD	063H
	DD	078H
	DD	0b3H
	DD	064H
	DD	09fH
	DD	0b4H
	DD	0efH
	DD	0a0H
	DD	0dbH
	DD	0f0H
	DD	012bH
	DD	0dcH
	DD	0117H
	DD	012cH
	DD	03e8H
	DD	0118H
	DD	03e8H
	DD	03e8H
	DD	04afH
	DD	03e8H
	DD	04afH
_g_iChaosCastle_BlowOutDistance DD 03H
	DD	04H
	DD	03H
	DD	04H
	DD	02H
	DD	03H
	DD	00H
	DD	01H
_g_iChaosCastle_BlowOutDamage DD 0fH
	DD	0fH
	DD	0aH
	DD	05H
_g_iChaosCastle_EnterCost DD 061a8H
	DD	013880H
	DD	0249f0H
	DD	03d090H
	DD	061a80H
	DD	09eb10H
	DD	0f4240H
_g_iChaosCastle_GuardSetValue DD 09c4H
	DD	09c4H
	DD	09c4H
	DD	09c4H
	DD	09c4H
	DD	09c4H
	DD	09c4H
_g_iChaosCastle_MonsterItems DD 01c0dH
	DD	01H
	DD	01c0eH
	DD	02H
	DD	01c0dH
	DD	01H
	DD	01c0eH
	DD	03H
	DD	01c0dH
	DD	01H
	DD	01c0eH
	DD	03H
	DD	01c0dH
	DD	02H
	DD	01c0eH
	DD	02H
	DD	01c0dH
	DD	02H
	DD	01c0eH
	DD	03H
	DD	01c0dH
	DD	02H
	DD	01c0eH
	DD	03H
	DD	01c0dH
	DD	02H
	DD	01c0eH
	DD	04H
_g_iChaosCastle_MonsterItemsNewServer DD 00H
	DD	00H
	DD	01c0eH
	DD	02H
	DD	01c0dH
	DD	01H
	DD	01c0eH
	DD	01H
	DD	01c0dH
	DD	01H
	DD	01c0eH
	DD	02H
	DD	01c0dH
	DD	01H
	DD	01c0eH
	DD	02H
	DD	01c0dH
	DD	02H
	DD	01c0eH
	DD	01H
	DD	01c0dH
	DD	02H
	DD	01c0eH
	DD	02H
	DD	01c0dH
	DD	02H
	DD	01c0eH
	DD	03H
_g_iChaosCastle_GroundAxis DD 017H
	DD	04bH
	DD	02cH
	DD	06cH
_g_iChaosCastle_DamageAxis DD 017H
	DD	04bH
	DD	02cH
	DD	06cH
	DD	019H
	DD	04dH
	DD	02aH
	DD	06aH
	DD	01bH
	DD	04fH
	DD	028H
	DD	068H
	DD	01dH
	DD	051H
	DD	026H
	DD	066H
_g_iChaosCastle_MapHollowZone DD 017H
	DD	04bH
	DD	02cH
	DD	04cH
	DD	02bH
	DD	04dH
	DD	02cH
	DD	06cH
	DD	017H
	DD	06bH
	DD	02aH
	DD	06cH
	DD	017H
	DD	04dH
	DD	018H
	DD	06aH
	DD	017H
	DD	04bH
	DD	02cH
	DD	04cH
	DD	02bH
	DD	04dH
	DD	02cH
	DD	06cH
	DD	017H
	DD	06bH
	DD	02aH
	DD	06cH
	DD	017H
	DD	04dH
	DD	018H
	DD	06aH
	DD	019H
	DD	04dH
	DD	02aH
	DD	04eH
	DD	029H
	DD	04fH
	DD	02aH
	DD	06aH
	DD	019H
	DD	069H
	DD	028H
	DD	06aH
	DD	019H
	DD	04fH
	DD	01aH
	DD	068H
	DD	01bH
	DD	04fH
	DD	028H
	DD	050H
	DD	027H
	DD	051H
	DD	028H
	DD	068H
	DD	01bH
	DD	067H
	DD	026H
	DD	068H
	DD	01bH
	DD	051H
	DD	01cH
	DD	066H
_g_iNpcUpDfLevel_CGATE DD 01H
	DD	02H
	DD	02dc6c0H
	DD	02H
	DD	03H
	DD	02dc6c0H
	DD	03H
	DD	04H
	DD	02dc6c0H
_g_iNpcUpDfLevel_CSTATUE DD 01H
	DD	03H
	DD	02dc6c0H
	DD	02H
	DD	05H
	DD	02dc6c0H
	DD	03H
	DD	07H
	DD	02dc6c0H
_g_iNpcUpMaxHP_CGATE DD 02625a0H
	DD	02H
	DD	0f4240H
	DD	03567e0H
	DD	03H
	DD	0f4240H
	DD	04f5880H
	DD	04H
	DD	0f4240H
_g_iNpcUpMaxHP_CSTATUE DD 02191c0H
	DD	03H
	DD	0f4240H
	DD	033e140H
	DD	05H
	DD	0f4240H
	DD	04c4b40H
	DD	07H
	DD	0f4240H
_g_iNpcUpRgLevel_CSTATUE DD 01H
	DD	03H
	DD	04c4b40H
	DD	02H
	DD	05H
	DD	04c4b40H
	DD	03H
	DD	07H
	DD	04c4b40H
_g_iCsUserReSpawnArea DD 023H
	DD	011H
	DD	090H
	DD	030H
	DD	04aH
	DD	090H
	DD	073H
	DD	09aH
	DD	023H
	DD	011H
	DD	090H
	DD	030H
_g_iNpcDefense_CGATE DD 064H
	DD	0b4H
	DD	012cH
	DD	0208H
_g_iNpcDefense_CSTATUE DD 050H
	DD	0b4H
	DD	0154H
	DD	0226H
_g_iCastleWallStepAxisY DD 071H
	DD	0a0H
	DD	0cbH
_DATA	ENDS
PUBLIC	??_H@YGXPAXIHP6EPAX0@Z@Z			; `vector constructor iterator'
; Function compile flags: /Ogtp
;	COMDAT ??_H@YGXPAXIHP6EPAX0@Z@Z
_TEXT	SEGMENT
___t$ = 8						; size = 4
___s$ = 12						; size = 4
___n$ = 16						; size = 4
___f$ = 20						; size = 4
??_H@YGXPAXIHP6EPAX0@Z@Z PROC				; `vector constructor iterator', COMDAT
  00000	55		 push	 ebp
  00001	8b ec		 mov	 ebp, esp
  00003	57		 push	 edi
  00004	8b 7d 10	 mov	 edi, DWORD PTR ___n$[ebp]
  00007	4f		 dec	 edi
  00008	78 14		 js	 SHORT $LN1@vector
  0000a	53		 push	 ebx
  0000b	8b 5d 14	 mov	 ebx, DWORD PTR ___f$[ebp]
  0000e	56		 push	 esi
  0000f	8b 75 08	 mov	 esi, DWORD PTR ___t$[ebp]
$LL2@vector:
  00012	8b ce		 mov	 ecx, esi
  00014	ff d3		 call	 ebx
  00016	03 75 0c	 add	 esi, DWORD PTR ___s$[ebp]
  00019	4f		 dec	 edi
  0001a	79 f6		 jns	 SHORT $LL2@vector
  0001c	5e		 pop	 esi
  0001d	5b		 pop	 ebx
$LN1@vector:
  0001e	5f		 pop	 edi
  0001f	5d		 pop	 ebp
  00020	c2 10 00	 ret	 16			; 00000010H
??_H@YGXPAXIHP6EPAX0@Z@Z ENDP				; `vector constructor iterator'
_TEXT	ENDS
PUBLIC	?GetCastleState@CCastleSiege@@QAEHXZ		; CCastleSiege::GetCastleState
; Function compile flags: /Ogtp
; File e:\work\tranet_version\gs\gameserver\castlesiege.h
;	COMDAT ?GetCastleState@CCastleSiege@@QAEHXZ
_TEXT	SEGMENT
?GetCastleState@CCastleSiege@@QAEHXZ PROC		; CCastleSiege::GetCastleState, COMDAT
; _this$ = ecx

; 314  : 	int GetCastleState(){return m_iCastleSiegeState;}

  00000	8b 41 28	 mov	 eax, DWORD PTR [ecx+40]
  00003	c3		 ret	 0
?GetCastleState@CCastleSiege@@QAEHXZ ENDP		; CCastleSiege::GetCastleState
_TEXT	ENDS
PUBLIC	?GetCrywolfState@CCrywolf@@QAEHXZ		; CCrywolf::GetCrywolfState
; Function compile flags: /Ogtp
; File e:\work\tranet_version\gs\gameserver\crywolf.h
;	COMDAT ?GetCrywolfState@CCrywolf@@QAEHXZ
_TEXT	SEGMENT
?GetCrywolfState@CCrywolf@@QAEHXZ PROC			; CCrywolf::GetCrywolfState, COMDAT
; _this$ = ecx

; 91   : 	int GetCrywolfState(){return this->m_iCrywolfState;}

  00000	8b 81 ec b7 0f
	00		 mov	 eax, DWORD PTR [ecx+1030124]
  00006	c3		 ret	 0
?GetCrywolfState@CCrywolf@@QAEHXZ ENDP			; CCrywolf::GetCrywolfState
_TEXT	ENDS
PUBLIC	??_7CObjAttack@@6B@				; CObjAttack::`vftable'
PUBLIC	??0CObjAttack@@QAE@XZ				; CObjAttack::CObjAttack
PUBLIC	??_R4CObjAttack@@6B@				; CObjAttack::`RTTI Complete Object Locator'
PUBLIC	??_R0?AVCObjAttack@@@8				; CObjAttack `RTTI Type Descriptor'
PUBLIC	??_R3CObjAttack@@8				; CObjAttack::`RTTI Class Hierarchy Descriptor'
PUBLIC	??_R2CObjAttack@@8				; CObjAttack::`RTTI Base Class Array'
PUBLIC	??_R1A@?0A@EA@CObjAttack@@8			; CObjAttack::`RTTI Base Class Descriptor at (0,-1,0,64)'
PUBLIC	??_R1A@?0A@EA@CObjBaseAttack@@8			; CObjBaseAttack::`RTTI Base Class Descriptor at (0,-1,0,64)'
PUBLIC	??_R0?AVCObjBaseAttack@@@8			; CObjBaseAttack `RTTI Type Descriptor'
PUBLIC	??_R3CObjBaseAttack@@8				; CObjBaseAttack::`RTTI Class Hierarchy Descriptor'
PUBLIC	??_R2CObjBaseAttack@@8				; CObjBaseAttack::`RTTI Base Class Array'
EXTRN	??0CObjBaseAttack@@QAE@XZ:PROC			; CObjBaseAttack::CObjBaseAttack
EXTRN	??_7type_info@@6B@:QWORD			; type_info::`vftable'
EXTRN	??_ECObjAttack@@UAEPAXI@Z:PROC			; CObjAttack::`vector deleting destructor'
EXTRN	?MissCheck@CObjBaseAttack@@UAEHPAUOBJECTSTRUCT@@0HHHAAHE@Z:PROC ; CObjBaseAttack::MissCheck
;	COMDAT ??_R2CObjBaseAttack@@8
; File e:\work\tranet_version\gs\gameserver\objattack.cpp
rdata$r	SEGMENT
??_R2CObjBaseAttack@@8 DD FLAT:??_R1A@?0A@EA@CObjBaseAttack@@8 ; CObjBaseAttack::`RTTI Base Class Array'
rdata$r	ENDS
;	COMDAT ??_R3CObjBaseAttack@@8
rdata$r	SEGMENT
??_R3CObjBaseAttack@@8 DD 00H				; CObjBaseAttack::`RTTI Class Hierarchy Descriptor'
	DD	00H
	DD	01H
	DD	FLAT:??_R2CObjBaseAttack@@8
rdata$r	ENDS
;	COMDAT ??_R0?AVCObjBaseAttack@@@8
_DATA	SEGMENT
??_R0?AVCObjBaseAttack@@@8 DD FLAT:??_7type_info@@6B@	; CObjBaseAttack `RTTI Type Descriptor'
	DD	00H
	DB	'.?AVCObjBaseAttack@@', 00H
_DATA	ENDS
;	COMDAT ??_R1A@?0A@EA@CObjBaseAttack@@8
rdata$r	SEGMENT
??_R1A@?0A@EA@CObjBaseAttack@@8 DD FLAT:??_R0?AVCObjBaseAttack@@@8 ; CObjBaseAttack::`RTTI Base Class Descriptor at (0,-1,0,64)'
	DD	00H
	DD	00H
	DD	0ffffffffH
	DD	00H
	DD	040H
	DD	FLAT:??_R3CObjBaseAttack@@8
rdata$r	ENDS
;	COMDAT ??_R1A@?0A@EA@CObjAttack@@8
rdata$r	SEGMENT
??_R1A@?0A@EA@CObjAttack@@8 DD FLAT:??_R0?AVCObjAttack@@@8 ; CObjAttack::`RTTI Base Class Descriptor at (0,-1,0,64)'
	DD	01H
	DD	00H
	DD	0ffffffffH
	DD	00H
	DD	040H
	DD	FLAT:??_R3CObjAttack@@8
rdata$r	ENDS
;	COMDAT ??_R2CObjAttack@@8
rdata$r	SEGMENT
??_R2CObjAttack@@8 DD FLAT:??_R1A@?0A@EA@CObjAttack@@8	; CObjAttack::`RTTI Base Class Array'
	DD	FLAT:??_R1A@?0A@EA@CObjBaseAttack@@8
rdata$r	ENDS
;	COMDAT ??_R3CObjAttack@@8
rdata$r	SEGMENT
??_R3CObjAttack@@8 DD 00H				; CObjAttack::`RTTI Class Hierarchy Descriptor'
	DD	00H
	DD	02H
	DD	FLAT:??_R2CObjAttack@@8
rdata$r	ENDS
;	COMDAT ??_R0?AVCObjAttack@@@8
_DATA	SEGMENT
??_R0?AVCObjAttack@@@8 DD FLAT:??_7type_info@@6B@	; CObjAttack `RTTI Type Descriptor'
	DD	00H
	DB	'.?AVCObjAttack@@', 00H
_DATA	ENDS
;	COMDAT ??_R4CObjAttack@@6B@
rdata$r	SEGMENT
??_R4CObjAttack@@6B@ DD 00H				; CObjAttack::`RTTI Complete Object Locator'
	DD	00H
	DD	00H
	DD	FLAT:??_R0?AVCObjAttack@@@8
	DD	FLAT:??_R3CObjAttack@@8
rdata$r	ENDS
;	COMDAT ??_7CObjAttack@@6B@
CONST	SEGMENT
??_7CObjAttack@@6B@ DD FLAT:??_R4CObjAttack@@6B@	; CObjAttack::`vftable'
	DD	FLAT:??_ECObjAttack@@UAEPAXI@Z
	DD	FLAT:?MissCheck@CObjBaseAttack@@UAEHPAUOBJECTSTRUCT@@0HHHAAHE@Z
; Function compile flags: /Ogtp
CONST	ENDS
;	COMDAT ??0CObjAttack@@QAE@XZ
_TEXT	SEGMENT
??0CObjAttack@@QAE@XZ PROC				; CObjAttack::CObjAttack, COMDAT
; _this$ = ecx

; 47   : {

  00000	56		 push	 esi
  00001	8b f1		 mov	 esi, ecx
  00003	e8 00 00 00 00	 call	 ??0CObjBaseAttack@@QAE@XZ ; CObjBaseAttack::CObjBaseAttack
  00008	c7 06 00 00 00
	00		 mov	 DWORD PTR [esi], OFFSET ??_7CObjAttack@@6B@

; 48   : 
; 49   : }

  0000e	8b c6		 mov	 eax, esi
  00010	5e		 pop	 esi
  00011	c3		 ret	 0
??0CObjAttack@@QAE@XZ ENDP				; CObjAttack::CObjAttack
_TEXT	ENDS
PUBLIC	??1CObjAttack@@UAE@XZ				; CObjAttack::~CObjAttack
EXTRN	??1CObjBaseAttack@@UAE@XZ:PROC			; CObjBaseAttack::~CObjBaseAttack
; Function compile flags: /Ogtp
;	COMDAT ??1CObjAttack@@UAE@XZ
_TEXT	SEGMENT
??1CObjAttack@@UAE@XZ PROC				; CObjAttack::~CObjAttack, COMDAT
; _this$ = ecx

; 52   : {

  00000	c7 01 00 00 00
	00		 mov	 DWORD PTR [ecx], OFFSET ??_7CObjAttack@@6B@

; 53   : 
; 54   : }

  00006	e9 00 00 00 00	 jmp	 ??1CObjBaseAttack@@UAE@XZ ; CObjBaseAttack::~CObjBaseAttack
??1CObjAttack@@UAE@XZ ENDP				; CObjAttack::~CObjAttack
_TEXT	ENDS
PUBLIC	_effect$GSCopy$
PUBLIC	_lpMagic$GSCopy$
PUBLIC	_lpObj$GSCopy$
PUBLIC	__$ArrayPad$
PUBLIC	?GetAttackDamageWizard@CObjAttack@@QAEHPAUOBJECTSTRUCT@@HPAVCMagicInf@@AAEH@Z ; CObjAttack::GetAttackDamageWizard
EXTRN	?gObjGetActiveEffect@@YAHPAUOBJECTSTRUCT@@H@Z:PROC ; gObjGetActiveEffect
EXTRN	?ExlCritDamage@cSystemOfRage@@QAEXHHAAH@Z:PROC	; cSystemOfRage::ExlCritDamage
EXTRN	?gSystemOfRage@@3VcSystemOfRage@@A:BYTE		; gSystemOfRage
EXTRN	?g_ZtLicense@@3VCZtLicense@@A:BYTE		; g_ZtLicense
EXTRN	?gObjUpdateAppliedBuffEffect@@YAEPAUOBJECTSTRUCT@@HPAH1@Z:PROC ; gObjUpdateAppliedBuffEffect
EXTRN	?gObjSearchActiveEffect@@YAEPAUOBJECTSTRUCT@@H@Z:PROC ; gObjSearchActiveEffect
EXTRN	_rand:PROC
EXTRN	?IsItem@CItem@@QAEHXZ:PROC			; CItem::IsItem
EXTRN	?GetSkillAttr@CMagicDamage@@QAEHH@Z:PROC	; CMagicDamage::GetSkillAttr
EXTRN	?MagicDamageC@@3VCMagicDamage@@A:BYTE		; MagicDamageC
EXTRN	?GetDamage@CMagicInf@@QAEHXZ:PROC		; CMagicInf::GetDamage
EXTRN	?g_ShieldSystemOn@@3HA:DWORD			; g_ShieldSystemOn
EXTRN	___security_cookie:DWORD
EXTRN	__fltused:DWORD
EXTRN	@__security_check_cookie@4:PROC
EXTRN	__except_handler4:PROC
EXTRN	__ftol2_sse:PROC
;	COMDAT xdata$x
xdata$x	SEGMENT
__sehtable$?GetAttackDamageWizard@CObjAttack@@QAEHPAUOBJECTSTRUCT@@HPAVCMagicInf@@AAEH@Z DD 0ffffffe4H
	DD	00H
	DD	0ffffff84H
	DD	00H
	DD	0fffffffeH
	DD	FLAT:$LN37@GetAttackD
	DD	FLAT:$LN38@GetAttackD
; Function compile flags: /Ogtp
xdata$x	ENDS
;	COMDAT ?GetAttackDamageWizard@CObjAttack@@QAEHPAUOBJECTSTRUCT@@HPAVCMagicInf@@AAEH@Z
_TEXT	SEGMENT
_fValue$223436 = -108					; size = 4
_lpObj$GSCopy$ = -104					; size = 4
_effect$GSCopy$ = -100					; size = 4
_subd$ = -96						; size = 4
tv549 = -92						; size = 4
tv547 = -92						; size = 4
_nCritical$223434 = -92					; size = 4
_lpMagic$GSCopy$ = -88					; size = 4
_SkillAddCriticalDamage$223441 = -88			; size = 4
_damage$223428 = -88					; size = 4
_Right$ = -88						; size = 4
tv552 = -86						; size = 2
_ad$ = -84						; size = 4
_SkillHellFire2CountDamageTable$223405 = -80		; size = 52
__$ArrayPad$ = -28					; size = 4
__$SEHRec$ = -24					; size = 24
_lpObj$ = 8						; size = 4
_targetDefense$ = 12					; size = 4
_lpMagic$ = 16						; size = 4
_effect$ = 20						; size = 4
_bIsOnDuel$ = 24					; size = 4
?GetAttackDamageWizard@CObjAttack@@QAEHPAUOBJECTSTRUCT@@HPAVCMagicInf@@AAEH@Z PROC ; CObjAttack::GetAttackDamageWizard, COMDAT
; _this$ = ecx

; 3996 : {

  00000	55		 push	 ebp
  00001	8b ec		 mov	 ebp, esp
  00003	6a fe		 push	 -2			; fffffffeH
  00005	68 00 00 00 00	 push	 OFFSET __sehtable$?GetAttackDamageWizard@CObjAttack@@QAEHPAUOBJECTSTRUCT@@HPAVCMagicInf@@AAEH@Z
  0000a	68 00 00 00 00	 push	 OFFSET __except_handler4
  0000f	64 a1 00 00 00
	00		 mov	 eax, DWORD PTR fs:0
  00015	50		 push	 eax
  00016	83 ec 5c	 sub	 esp, 92			; 0000005cH
  00019	a1 00 00 00 00	 mov	 eax, DWORD PTR ___security_cookie
  0001e	31 45 f8	 xor	 DWORD PTR __$SEHRec$[ebp+16], eax
  00021	33 c5		 xor	 eax, ebp
  00023	89 45 e4	 mov	 DWORD PTR __$ArrayPad$[ebp], eax
  00026	53		 push	 ebx
  00027	56		 push	 esi
  00028	57		 push	 edi
  00029	50		 push	 eax
  0002a	8d 45 f0	 lea	 eax, DWORD PTR __$SEHRec$[ebp+8]
  0002d	64 a3 00 00 00
	00		 mov	 DWORD PTR fs:0, eax
  00033	89 65 e8	 mov	 DWORD PTR __$SEHRec$[ebp], esp
  00036	8b 7d 08	 mov	 edi, DWORD PTR _lpObj$[ebp]

; 3997 : 	if ( g_ShieldSystemOn == TRUE )

  00039	89 7d 98	 mov	 DWORD PTR _lpObj$GSCopy$[ebp], edi
  0003c	8b 75 10	 mov	 esi, DWORD PTR _lpMagic$[ebp]

; 4123 : 		{
; 4124 : 			ad = ( damagemin + (rand()%(subd+1)) ) - targetDefense;

  0003f	89 75 a8	 mov	 DWORD PTR _lpMagic$GSCopy$[ebp], esi
  00042	8b 45 14	 mov	 eax, DWORD PTR _effect$[ebp]
  00045	89 45 9c	 mov	 DWORD PTR _effect$GSCopy$[ebp], eax

; 3997 : 	if ( g_ShieldSystemOn == TRUE )

  00048	b8 01 00 00 00	 mov	 eax, 1
  0004d	39 05 00 00 00
	00		 cmp	 DWORD PTR ?g_ShieldSystemOn@@3HA, eax ; g_ShieldSystemOn
  00053	75 0c		 jne	 SHORT $LN32@GetAttackD

; 3998 : 	{
; 3999 : 		if ( bIsOnDuel == TRUE )

  00055	39 45 18	 cmp	 DWORD PTR _bIsOnDuel$[ebp], eax
  00058	75 07		 jne	 SHORT $LN32@GetAttackD

; 4000 : 		{
; 4001 : 			bIsOnDuel = FALSE;

  0005a	c7 45 18 00 00
	00 00		 mov	 DWORD PTR _bIsOnDuel$[ebp], 0
$LN32@GetAttackD:

; 4002 : 		}
; 4003 : 	}
; 4004 : 
; 4005 : 	int damagemin;
; 4006 : 	int damagemax;
; 4007 : 	int ad;
; 4008 : 
; 4009 : 	if ( lpMagic->m_Skill == 40 )

  00061	83 7e 08 28	 cmp	 DWORD PTR [esi+8], 40	; 00000028H
  00065	0f 85 a3 00 00
	00		 jne	 $LN31@GetAttackD

; 4010 : 	{
; 4011 : 		if ( lpObj->SkillHellFire2Count >= 0 )
; 4012 : 		{
; 4013 : 			int SkillHellFire2CountDamageTable[13] =
; 4014 : 			{
; 4015 : 				0,	20,	50,	99,	160,

  0006b	33 c9		 xor	 ecx, ecx
  0006d	89 4d b0	 mov	 DWORD PTR _SkillHellFire2CountDamageTable$223405[ebp], ecx
  00070	c7 45 b4 14 00
	00 00		 mov	 DWORD PTR _SkillHellFire2CountDamageTable$223405[ebp+4], 20 ; 00000014H
  00077	c7 45 b8 32 00
	00 00		 mov	 DWORD PTR _SkillHellFire2CountDamageTable$223405[ebp+8], 50 ; 00000032H
  0007e	c7 45 bc 63 00
	00 00		 mov	 DWORD PTR _SkillHellFire2CountDamageTable$223405[ebp+12], 99 ; 00000063H
  00085	c7 45 c0 a0 00
	00 00		 mov	 DWORD PTR _SkillHellFire2CountDamageTable$223405[ebp+16], 160 ; 000000a0H

; 4016 : 				225,	325,	425,	550,	700,

  0008c	c7 45 c4 e1 00
	00 00		 mov	 DWORD PTR _SkillHellFire2CountDamageTable$223405[ebp+20], 225 ; 000000e1H
  00093	c7 45 c8 45 01
	00 00		 mov	 DWORD PTR _SkillHellFire2CountDamageTable$223405[ebp+24], 325 ; 00000145H
  0009a	c7 45 cc a9 01
	00 00		 mov	 DWORD PTR _SkillHellFire2CountDamageTable$223405[ebp+28], 425 ; 000001a9H
  000a1	c7 45 d0 26 02
	00 00		 mov	 DWORD PTR _SkillHellFire2CountDamageTable$223405[ebp+32], 550 ; 00000226H
  000a8	c7 45 d4 bc 02
	00 00		 mov	 DWORD PTR _SkillHellFire2CountDamageTable$223405[ebp+36], 700 ; 000002bcH

; 4017 : 				880,	1090,	1320

  000af	c7 45 d8 70 03
	00 00		 mov	 DWORD PTR _SkillHellFire2CountDamageTable$223405[ebp+40], 880 ; 00000370H
  000b6	c7 45 dc 42 04
	00 00		 mov	 DWORD PTR _SkillHellFire2CountDamageTable$223405[ebp+44], 1090 ; 00000442H

; 4018 : 			};

  000bd	c7 45 e0 28 05
	00 00		 mov	 DWORD PTR _SkillHellFire2CountDamageTable$223405[ebp+48], 1320 ; 00000528H

; 4019 : 			int CountDamage;
; 4020 : 
; 4021 : 			if ( lpObj->SkillHellFire2Count > 12 )

  000c4	8a 87 15 11 00
	00		 mov	 al, BYTE PTR [edi+4373]
  000ca	3c 0c		 cmp	 al, 12			; 0000000cH

; 4022 : 			{
; 4023 : 				CountDamage = 0;
; 4024 : 			}
; 4025 : 			else

  000cc	77 07		 ja	 SHORT $LN28@GetAttackD

; 4026 : 			{
; 4027 : 				CountDamage = SkillHellFire2CountDamageTable[lpObj->SkillHellFire2Count];

  000ce	0f b6 c8	 movzx	 ecx, al
  000d1	8b 4c 8d b0	 mov	 ecx, DWORD PTR _SkillHellFire2CountDamageTable$223405[ebp+ecx*4]
$LN28@GetAttackD:

; 4028 : 			}
; 4029 : 
; 4030 : 			ad = ( lpObj->Strength + lpObj->AddStrength ) / 2 + CountDamage;

  000d5	0f bf 87 20 01
	00 00		 movsx	 eax, WORD PTR [edi+288]
  000dc	0f b7 97 f4 00
	00 00		 movzx	 edx, WORD PTR [edi+244]
  000e3	03 c2		 add	 eax, edx
  000e5	99		 cdq
  000e6	2b c2		 sub	 eax, edx
  000e8	d1 f8		 sar	 eax, 1
  000ea	03 c1		 add	 eax, ecx
  000ec	89 45 ac	 mov	 DWORD PTR _ad$[ebp], eax

; 4031 : 			damagemin = ad + lpObj->m_MagicDamageMin;
; 4032 : 			damagemax = ad + lpObj->m_MagicDamageMax;
; 4033 : 
; 4034 : 			damagemin += lpObj->SetOpAddSkillAttack;

  000ef	0f bf 8f 24 11
	00 00		 movsx	 ecx, WORD PTR [edi+4388]
  000f6	8b 9f 68 04 00
	00		 mov	 ebx, DWORD PTR [edi+1128]
  000fc	03 d9		 add	 ebx, ecx
  000fe	03 d8		 add	 ebx, eax

; 4035 : 			damagemax += lpObj->SetOpAddSkillAttack;

  00100	8b b7 6c 04 00
	00		 mov	 esi, DWORD PTR [edi+1132]
  00106	03 f1		 add	 esi, ecx
  00108	03 f0		 add	 esi, eax

; 4036 : 
; 4037 : 			int SkillAttr = MagicDamageC.GetSkillAttr(lpMagic->m_Skill);

  0010a	6a 28		 push	 40			; 00000028H

; 4038 : 
; 4039 : 			if ( SkillAttr != -1 )
; 4040 : 			{
; 4041 : 				if((lpObj->Authority&32) == 32 && (lpObj->pInventory[10].m_Type == ITEMGET(13,42) || lpObj->pInventory[11].m_Type == ITEMGET(13,42))) //season 2.5 add-on
; 4042 : 				{
; 4043 : 					damagemin += (BYTE)255;
; 4044 : 					damagemax += (BYTE)255;
; 4045 : 				}
; 4046 : 			}
; 4047 : 
; 4048 : 			damagemin += lpObj->m_JewelOfHarmonyEffect.HJOpAddSkillAttack;
; 4049 : 			damagemax += lpObj->m_JewelOfHarmonyEffect.HJOpAddSkillAttack;
; 4050 : 		}
; 4051 : 	}
; 4052 : 	else

  0010c	eb 2e		 jmp	 SHORT $LN58@GetAttackD
$LN31@GetAttackD:

; 4053 : 	{
; 4054 : 		ad = lpMagic->GetDamage();

  0010e	8b ce		 mov	 ecx, esi
  00110	e8 00 00 00 00	 call	 ?GetDamage@CMagicInf@@QAEHXZ ; CMagicInf::GetDamage
  00115	89 45 ac	 mov	 DWORD PTR _ad$[ebp], eax

; 4055 : 
; 4056 : 		damagemin = lpMagic->m_DamageMin + lpObj->m_MagicDamageMin;
; 4057 : 		damagemax = lpMagic->m_DamageMax + lpObj->m_MagicDamageMax;
; 4058 : 
; 4059 : 		damagemin += lpObj->SetOpAddSkillAttack;

  00118	0f bf 87 24 11
	00 00		 movsx	 eax, WORD PTR [edi+4388]
  0011f	8b 9f 68 04 00
	00		 mov	 ebx, DWORD PTR [edi+1128]
  00125	03 5e 0c	 add	 ebx, DWORD PTR [esi+12]
  00128	03 d8		 add	 ebx, eax

; 4060 : 		damagemax += lpObj->SetOpAddSkillAttack;

  0012a	8b b7 6c 04 00
	00		 mov	 esi, DWORD PTR [edi+1132]
  00130	8b 4d a8	 mov	 ecx, DWORD PTR _lpMagic$GSCopy$[ebp]
  00133	03 71 10	 add	 esi, DWORD PTR [ecx+16]
  00136	03 f0		 add	 esi, eax

; 4061 : 
; 4062 : 		int SkillAttr = MagicDamageC.GetSkillAttr(lpMagic->m_Skill);

  00138	8b 41 08	 mov	 eax, DWORD PTR [ecx+8]
  0013b	50		 push	 eax
$LN58@GetAttackD:
  0013c	b9 00 00 00 00	 mov	 ecx, OFFSET ?MagicDamageC@@3VCMagicDamage@@A ; MagicDamageC
  00141	e8 00 00 00 00	 call	 ?GetSkillAttr@CMagicDamage@@QAEHH@Z ; CMagicDamage::GetSkillAttr

; 4063 : 
; 4064 : 		if ( SkillAttr != -1 )

  00146	83 f8 ff	 cmp	 eax, -1
  00149	74 34		 je	 SHORT $LN22@GetAttackD

; 4065 : 		{
; 4066 : 			if((lpObj->Authority&32) == 32 && (lpObj->pInventory[10].m_Type == ITEMGET(13,42) || lpObj->pInventory[11].m_Type == ITEMGET(13,42))) //season 2.5 add-on

  0014b	f6 87 0c 02 00
	00 20		 test	 BYTE PTR [edi+524], 32	; 00000020H
  00152	74 2b		 je	 SHORT $LN22@GetAttackD
  00154	8b 87 24 0e 00
	00		 mov	 eax, DWORD PTR [edi+3620]
  0015a	b9 2a 1a 00 00	 mov	 ecx, 6698		; 00001a2aH
  0015f	66 39 88 4e 08
	00 00		 cmp	 WORD PTR [eax+2126], cx
  00166	74 0b		 je	 SHORT $LN21@GetAttackD
  00168	8b d1		 mov	 edx, ecx
  0016a	66 39 90 22 09
	00 00		 cmp	 WORD PTR [eax+2338], dx
  00171	75 0c		 jne	 SHORT $LN22@GetAttackD
$LN21@GetAttackD:

; 4067 : 			{
; 4068 : 				damagemin += (BYTE)255;

  00173	81 c3 ff 00 00
	00		 add	 ebx, 255		; 000000ffH

; 4069 : 				damagemax += (BYTE)255;

  00179	81 c6 ff 00 00
	00		 add	 esi, 255		; 000000ffH
$LN22@GetAttackD:

; 4070 : 			}
; 4071 : 		}
; 4072 : 
; 4073 : 		damagemin += lpObj->m_JewelOfHarmonyEffect.HJOpAddSkillAttack;

  0017f	0f bf 87 e4 1f
	00 00		 movsx	 eax, WORD PTR [edi+8164]
  00186	03 d8		 add	 ebx, eax

; 4074 : 		damagemax += lpObj->m_JewelOfHarmonyEffect.HJOpAddSkillAttack;

  00188	03 f0		 add	 esi, eax

; 4075 : 	}
; 4076 : 
; 4077 : 	CItem * Right = &lpObj->pInventory[0];

  0018a	8b 8f 24 0e 00
	00		 mov	 ecx, DWORD PTR [edi+3620]
  00190	89 4d a8	 mov	 DWORD PTR _Right$[ebp], ecx

; 4078 : 
; 4079 : 	if ( Right->IsItem() )

  00193	e8 00 00 00 00	 call	 ?IsItem@CItem@@QAEHXZ	; CItem::IsItem
  00198	85 c0		 test	 eax, eax
  0019a	0f 84 9b 00 00
	00		 je	 $LN16@GetAttackD

; 4080 : 	{
; 4081 : 		#if(FIX_MG_WIZDMG)
; 4082 : 		if ((Right->m_Type >= ITEMGET(5,0) && Right->m_Type < ITEMGET(6,0) ) ||
; 4083 : 			 Right->m_Type >= ITEMGET(0,0) && Right->m_Type < ITEMGET(1,0)) //season4 add-on

  001a0	8b 45 a8	 mov	 eax, DWORD PTR _Right$[ebp]
  001a3	0f b7 48 06	 movzx	 ecx, WORD PTR [eax+6]
  001a7	ba 00 0a 00 00	 mov	 edx, 2560		; 00000a00H
  001ac	66 3b ca	 cmp	 cx, dx
  001af	7c 0a		 jl	 SHORT $LN17@GetAttackD
  001b1	ba 00 0c 00 00	 mov	 edx, 3072		; 00000c00H
  001b6	66 3b ca	 cmp	 cx, dx
  001b9	7c 0f		 jl	 SHORT $LN18@GetAttackD
$LN17@GetAttackD:
  001bb	66 85 c9	 test	 cx, cx
  001be	78 7b		 js	 SHORT $LN16@GetAttackD
  001c0	ba 00 02 00 00	 mov	 edx, 512		; 00000200H
  001c5	66 3b ca	 cmp	 cx, dx
  001c8	7d 71		 jge	 SHORT $LN16@GetAttackD
$LN18@GetAttackD:

; 4084 : 		{
; 4085 : 			if ( Right->m_IsValidItem  )

  001ca	80 b8 b0 00 00
	00 00		 cmp	 BYTE PTR [eax+176], 0
  001d1	74 68		 je	 SHORT $LN16@GetAttackD

; 4086 : 			{
; 4087 : 				int damage = Right->m_Magic / 2 + Right->m_Level * 2;

  001d3	0f b7 48 20	 movzx	 ecx, WORD PTR [eax+32]
  001d7	d1 e9		 shr	 ecx, 1
  001d9	0f bf 50 08	 movsx	 edx, WORD PTR [eax+8]
  001dd	8d 0c 51	 lea	 ecx, DWORD PTR [ecx+edx*2]
  001e0	89 4d a8	 mov	 DWORD PTR _damage$223428[ebp], ecx

; 4088 : 				damage -= (WORD)(Right->m_CurrentDurabilityState * damage);

  001e3	d9 80 a8 00 00
	00		 fld	 DWORD PTR [eax+168]
  001e9	da 4d a8	 fimul	 DWORD PTR _damage$223428[ebp]
  001ec	d9 7d aa	 fnstcw	 WORD PTR tv552[ebp]
  001ef	0f b7 45 aa	 movzx	 eax, WORD PTR tv552[ebp]
  001f3	0d 00 0c 00 00	 or	 eax, 3072		; 00000c00H
  001f8	89 45 a4	 mov	 DWORD PTR tv549[ebp], eax
  001fb	d9 6d a4	 fldcw	 WORD PTR tv549[ebp]
  001fe	db 5d a4	 fistp	 DWORD PTR tv547[ebp]
  00201	d9 6d aa	 fldcw	 WORD PTR tv552[ebp]
  00204	66 8b 45 a4	 mov	 ax, WORD PTR tv547[ebp]
  00208	0f b7 d0	 movzx	 edx, ax
  0020b	2b ca		 sub	 ecx, edx

; 4089 : 
; 4090 : 				damagemin += damagemin * damage / 100;

  0020d	8b d1		 mov	 edx, ecx
  0020f	0f af d3	 imul	 edx, ebx
  00212	b8 1f 85 eb 51	 mov	 eax, 1374389535		; 51eb851fH
  00217	f7 ea		 imul	 edx
  00219	c1 fa 05	 sar	 edx, 5
  0021c	8b c2		 mov	 eax, edx
  0021e	c1 e8 1f	 shr	 eax, 31			; 0000001fH
  00221	03 c2		 add	 eax, edx
  00223	03 d8		 add	 ebx, eax

; 4091 : 				damagemax += damagemax * damage / 100;

  00225	0f af ce	 imul	 ecx, esi
  00228	b8 1f 85 eb 51	 mov	 eax, 1374389535		; 51eb851fH
  0022d	f7 e9		 imul	 ecx
  0022f	c1 fa 05	 sar	 edx, 5
  00232	8b ca		 mov	 ecx, edx
  00234	c1 e9 1f	 shr	 ecx, 31			; 0000001fH
  00237	03 ca		 add	 ecx, edx
  00239	03 f1		 add	 esi, ecx
$LN16@GetAttackD:

; 4092 : 			}
; 4093 : 		}
; 4094 : 		#else
; 4095 : 		if ((Right->m_Type >= ITEMGET(5,0) && Right->m_Type < ITEMGET(6,0) ) ||
; 4096 : 			 Right->m_Type == ITEMGET(0,31) ||
; 4097 : 			 Right->m_Type == ITEMGET(0,21) ||
; 4098 : 			 Right->m_Type == ITEMGET(0,23) ||
; 4099 : 			 Right->m_Type == ITEMGET(0,25) ||
; 4100 : 			 Right->m_Type == ITEMGET(0,28)) //season4 add-on
; 4101 : 		{
; 4102 : 			if ( Right->m_IsValidItem  )
; 4103 : 			{
; 4104 : 				int damage = Right->m_Magic / 2 + Right->m_Level * 2;
; 4105 : 				damage -= (WORD)(Right->m_CurrentDurabilityState * damage);
; 4106 : 
; 4107 : 				damagemin += damagemin * damage / 100;
; 4108 : 				damagemax += damagemax * damage / 100;
; 4109 : 			}
; 4110 : 		}
; 4111 : 		#endif
; 4112 : 	}
; 4113 : 
; 4114 : 	int subd = damagemax - damagemin;

  0023b	8b d6		 mov	 edx, esi
  0023d	2b d3		 sub	 edx, ebx
  0023f	89 55 a0	 mov	 DWORD PTR _subd$[ebp], edx

; 4115 : 
; 4116 : 	__try

  00242	9b		 fwait
  00243	c7 45 fc 00 00
	00 00		 mov	 DWORD PTR __$SEHRec$[ebp+20], 0

; 4119 : 		{
; 4120 : 			ad = ( damagemin + (rand()%(subd+1)) ) * 60 / 100 - targetDefense;

  0024a	e8 00 00 00 00	 call	 _rand
  0024f	8b 4d a0	 mov	 ecx, DWORD PTR _subd$[ebp]
  00252	99		 cdq
  00253	41		 inc	 ecx
  00254	f7 f9		 idiv	 ecx

; 4117 : 	{
; 4118 : 		if ( bIsOnDuel )

  00256	83 7d 18 00	 cmp	 DWORD PTR _bIsOnDuel$[ebp], 0
  0025a	74 26		 je	 SHORT $LN14@GetAttackD

; 4119 : 		{
; 4120 : 			ad = ( damagemin + (rand()%(subd+1)) ) * 60 / 100 - targetDefense;

  0025c	03 d3		 add	 edx, ebx
  0025e	8b ca		 mov	 ecx, edx
  00260	c1 e1 04	 shl	 ecx, 4
  00263	2b ca		 sub	 ecx, edx
  00265	03 c9		 add	 ecx, ecx
  00267	03 c9		 add	 ecx, ecx
  00269	b8 1f 85 eb 51	 mov	 eax, 1374389535		; 51eb851fH
  0026e	f7 e9		 imul	 ecx
  00270	c1 fa 05	 sar	 edx, 5
  00273	8b c2		 mov	 eax, edx
  00275	c1 e8 1f	 shr	 eax, 31			; 0000001fH
  00278	03 c2		 add	 eax, edx
  0027a	2b 45 0c	 sub	 eax, DWORD PTR _targetDefense$[ebp]
  0027d	89 45 ac	 mov	 DWORD PTR _ad$[ebp], eax

; 4121 : 		}
; 4122 : 		else

  00280	eb 08		 jmp	 SHORT $LN13@GetAttackD
$LN14@GetAttackD:

; 4123 : 		{
; 4124 : 			ad = ( damagemin + (rand()%(subd+1)) ) - targetDefense;

  00282	2b 55 0c	 sub	 edx, DWORD PTR _targetDefense$[ebp]
  00285	03 d3		 add	 edx, ebx
  00287	89 55 ac	 mov	 DWORD PTR _ad$[ebp], edx
$LN13@GetAttackD:

; 4125 : 		}
; 4126 : 
; 4127 : 		int nCritical = lpObj->m_CriticalDamage;

  0028a	8b 9f bc 04 00
	00		 mov	 ebx, DWORD PTR [edi+1212]
  00290	89 5d a4	 mov	 DWORD PTR _nCritical$223434[ebp], ebx

; 4128 : 		// ----
; 4129 : 
; 4130 : 		if( gObjSearchActiveEffect(lpObj, 139) )

  00293	68 8b 00 00 00	 push	 139			; 0000008bH
  00298	57		 push	 edi
  00299	e8 00 00 00 00	 call	 ?gObjSearchActiveEffect@@YAEPAUOBJECTSTRUCT@@H@Z ; gObjSearchActiveEffect
  0029e	83 c4 08	 add	 esp, 8
  002a1	84 c0		 test	 al, al
  002a3	74 16		 je	 SHORT $LN12@GetAttackD

; 4131 : 		{
; 4132 : 			float fValue = lpObj->m_MPSkillOpt.ukn_11C;

  002a5	d9 87 30 27 00
	00		 fld	 DWORD PTR [edi+10032]
  002ab	d9 5d 94	 fstp	 DWORD PTR _fValue$223436[ebp]

; 4133 : 			nCritical += fValue;

  002ae	db 45 a4	 fild	 DWORD PTR _nCritical$223434[ebp]
  002b1	d8 45 94	 fadd	 DWORD PTR _fValue$223436[ebp]
  002b4	e8 00 00 00 00	 call	 __ftol2_sse
  002b9	8b d8		 mov	 ebx, eax
$LN12@GetAttackD:

; 4134 : 		}
; 4135 : 
; 4136 : 		// ----
; 4137 : 		if( nCritical > 0 )

  002bb	85 db		 test	 ebx, ebx
  002bd	0f 8e 99 00 00
	00		 jle	 $LN7@GetAttackD

; 4138 : 
; 4139 : 		//if ( lpObj->m_CriticalDamage > 0 )
; 4140 : 		{
; 4141 : 			if ( (rand()%100) < nCritical )

  002c3	e8 00 00 00 00	 call	 _rand
  002c8	99		 cdq
  002c9	b9 64 00 00 00	 mov	 ecx, 100		; 00000064H
  002ce	f7 f9		 idiv	 ecx
  002d0	3b d3		 cmp	 edx, ebx
  002d2	0f 8d 84 00 00
	00		 jge	 $LN7@GetAttackD

; 4142 : 			{
; 4143 : 				if ( bIsOnDuel )

  002d8	83 7d 18 00	 cmp	 DWORD PTR _bIsOnDuel$[ebp], 0
  002dc	74 1e		 je	 SHORT $LN9@GetAttackD

; 4144 : 				{
; 4145 : 					ad = damagemax * 60 / 100 - targetDefense;

  002de	8b ce		 mov	 ecx, esi
  002e0	c1 e1 04	 shl	 ecx, 4
  002e3	2b ce		 sub	 ecx, esi
  002e5	03 c9		 add	 ecx, ecx
  002e7	03 c9		 add	 ecx, ecx
  002e9	b8 1f 85 eb 51	 mov	 eax, 1374389535		; 51eb851fH
  002ee	f7 e9		 imul	 ecx
  002f0	c1 fa 05	 sar	 edx, 5
  002f3	8b c2		 mov	 eax, edx
  002f5	c1 e8 1f	 shr	 eax, 31			; 0000001fH
  002f8	03 c2		 add	 eax, edx

; 4146 : 				}
; 4147 : 				else

  002fa	eb 02		 jmp	 SHORT $LN59@GetAttackD
$LN9@GetAttackD:

; 4148 : 				{
; 4149 : 					ad = damagemax - targetDefense;

  002fc	8b c6		 mov	 eax, esi
$LN59@GetAttackD:
  002fe	2b 45 0c	 sub	 eax, DWORD PTR _targetDefense$[ebp]
  00301	89 45 ac	 mov	 DWORD PTR _ad$[ebp], eax

; 4150 : 				}
; 4151 : 
; 4152 : 				ad += lpObj->SetOpAddCriticalDamage;

  00304	0f bf 8f 2a 11
	00 00		 movsx	 ecx, WORD PTR [edi+4394]
  0030b	03 c1		 add	 eax, ecx
  0030d	89 45 ac	 mov	 DWORD PTR _ad$[ebp], eax

; 4153 : 				ad += lpObj->m_JewelOfHarmonyEffect.HJOpAddCriticalDamage;

  00310	0f bf 97 e2 1f
	00 00		 movsx	 edx, WORD PTR [edi+8162]
  00317	03 c2		 add	 eax, edx
  00319	89 45 ac	 mov	 DWORD PTR _ad$[ebp], eax

; 4154 : 
; 4155 : 				int SkillAddCriticalDamage = 0;

  0031c	c7 45 a8 00 00
	00 00		 mov	 DWORD PTR _SkillAddCriticalDamage$223441[ebp], 0

; 4156 : 				gObjUpdateAppliedBuffEffect(lpObj, AT_INCREASE_CRITICAL_DMG, &SkillAddCriticalDamage, 0);

  00323	6a 00		 push	 0
  00325	8d 45 a8	 lea	 eax, DWORD PTR _SkillAddCriticalDamage$223441[ebp]
  00328	50		 push	 eax
  00329	6a 05		 push	 5
  0032b	57		 push	 edi
  0032c	e8 00 00 00 00	 call	 ?gObjUpdateAppliedBuffEffect@@YAEPAUOBJECTSTRUCT@@HPAH1@Z ; gObjUpdateAppliedBuffEffect
  00331	83 c4 10	 add	 esp, 16			; 00000010H

; 4157 : 				ad += SkillAddCriticalDamage;

  00334	8b 4d a8	 mov	 ecx, DWORD PTR _SkillAddCriticalDamage$223441[ebp]
  00337	01 4d ac	 add	 DWORD PTR _ad$[ebp], ecx

; 4158 : 
; 4159 : 				effect = 3;

  0033a	8b 55 9c	 mov	 edx, DWORD PTR _effect$GSCopy$[ebp]
  0033d	c6 02 03	 mov	 BYTE PTR [edx], 3

; 4160 : 
; 4161 : 				if(g_ZtLicense.user.Rage)

  00340	80 3d cd 00 00
	00 00		 cmp	 BYTE PTR ?g_ZtLicense@@3VCZtLicense@@A+205, 0
  00347	74 13		 je	 SHORT $LN7@GetAttackD

; 4162 : 				{
; 4163 : 					gSystemOfRage.ExlCritDamage(lpObj->m_Index, effect, ad);

  00349	8d 45 ac	 lea	 eax, DWORD PTR _ad$[ebp]
  0034c	50		 push	 eax
  0034d	6a 03		 push	 3
  0034f	8b 0f		 mov	 ecx, DWORD PTR [edi]
  00351	51		 push	 ecx
  00352	b9 00 00 00 00	 mov	 ecx, OFFSET ?gSystemOfRage@@3VcSystemOfRage@@A ; gSystemOfRage
  00357	e8 00 00 00 00	 call	 ?ExlCritDamage@cSystemOfRage@@QAEXHHAAH@Z ; cSystemOfRage::ExlCritDamage
$LN7@GetAttackD:

; 4164 : 				}
; 4165 : 			}
; 4166 : 		}
; 4167 : 
; 4168 : 		if ( lpObj->m_ExcelentDamage > 0 )

  0035c	83 bf c0 04 00
	00 00		 cmp	 DWORD PTR [edi+1216], 0
  00363	0f 8e 88 00 00
	00		 jle	 $LN2@GetAttackD

; 4169 : 		{
; 4170 : 			if ( (rand()%100) < lpObj->m_ExcelentDamage )

  00369	e8 00 00 00 00	 call	 _rand
  0036e	99		 cdq
  0036f	b9 64 00 00 00	 mov	 ecx, 100		; 00000064H
  00374	f7 f9		 idiv	 ecx
  00376	3b 97 c0 04 00
	00		 cmp	 edx, DWORD PTR [edi+1216]
  0037c	7d 73		 jge	 SHORT $LN2@GetAttackD

; 4173 : 				{
; 4174 : 					ad = damagemax * 60 / 100 - targetDefense;

  0037e	8b ce		 mov	 ecx, esi

; 4171 : 			{
; 4172 : 				if ( bIsOnDuel )

  00380	83 7d 18 00	 cmp	 DWORD PTR _bIsOnDuel$[ebp], 0
  00384	74 1a		 je	 SHORT $LN4@GetAttackD

; 4173 : 				{
; 4174 : 					ad = damagemax * 60 / 100 - targetDefense;

  00386	c1 e1 04	 shl	 ecx, 4
  00389	2b ce		 sub	 ecx, esi
  0038b	03 c9		 add	 ecx, ecx
  0038d	03 c9		 add	 ecx, ecx
  0038f	b8 1f 85 eb 51	 mov	 eax, 1374389535		; 51eb851fH
  00394	f7 e9		 imul	 ecx
  00396	c1 fa 05	 sar	 edx, 5
  00399	8b ca		 mov	 ecx, edx
  0039b	c1 e9 1f	 shr	 ecx, 31			; 0000001fH
  0039e	03 ca		 add	 ecx, edx
$LN4@GetAttackD:

; 4175 : 				}
; 4176 : 				else
; 4177 : 				{
; 4178 : 					ad = damagemax - targetDefense;

  003a0	2b 4d 0c	 sub	 ecx, DWORD PTR _targetDefense$[ebp]
  003a3	89 4d ac	 mov	 DWORD PTR _ad$[ebp], ecx

; 4179 : 				}
; 4180 : 
; 4181 : 				ad += damagemax * 20 / 100;

  003a6	8d 34 b6	 lea	 esi, DWORD PTR [esi+esi*4]
  003a9	03 f6		 add	 esi, esi
  003ab	03 f6		 add	 esi, esi
  003ad	b8 1f 85 eb 51	 mov	 eax, 1374389535		; 51eb851fH
  003b2	f7 ee		 imul	 esi
  003b4	c1 fa 05	 sar	 edx, 5
  003b7	8b c2		 mov	 eax, edx
  003b9	c1 e8 1f	 shr	 eax, 31			; 0000001fH
  003bc	03 c2		 add	 eax, edx
  003be	03 c8		 add	 ecx, eax
  003c0	89 4d ac	 mov	 DWORD PTR _ad$[ebp], ecx

; 4182 : 				ad += lpObj->SetOpAddExDamage;

  003c3	0f bf 97 26 11
	00 00		 movsx	 edx, WORD PTR [edi+4390]
  003ca	03 ca		 add	 ecx, edx
  003cc	89 4d ac	 mov	 DWORD PTR _ad$[ebp], ecx

; 4183 : 
; 4184 : 				effect = 2;

  003cf	8b 45 9c	 mov	 eax, DWORD PTR _effect$GSCopy$[ebp]
  003d2	c6 00 02	 mov	 BYTE PTR [eax], 2

; 4185 : 
; 4186 : 				if(g_ZtLicense.user.Rage)

  003d5	80 3d cd 00 00
	00 00		 cmp	 BYTE PTR ?g_ZtLicense@@3VCZtLicense@@A+205, 0
  003dc	74 13		 je	 SHORT $LN2@GetAttackD

; 4187 : 				{
; 4188 : 					gSystemOfRage.ExlCritDamage(lpObj->m_Index, effect, ad);

  003de	8d 4d ac	 lea	 ecx, DWORD PTR _ad$[ebp]
  003e1	51		 push	 ecx
  003e2	6a 02		 push	 2
  003e4	8b 17		 mov	 edx, DWORD PTR [edi]
  003e6	52		 push	 edx
  003e7	b9 00 00 00 00	 mov	 ecx, OFFSET ?gSystemOfRage@@3VcSystemOfRage@@A ; gSystemOfRage
  003ec	e8 00 00 00 00	 call	 ?ExlCritDamage@cSystemOfRage@@QAEXHHAAH@Z ; cSystemOfRage::ExlCritDamage
$LN2@GetAttackD:

; 4189 : 				}
; 4190 : 
; 4191 : 			}
; 4192 : 		}
; 4193 : 	}

  003f1	9b		 fwait
  003f2	c7 45 fc fe ff
	ff ff		 mov	 DWORD PTR __$SEHRec$[ebp+20], -2 ; fffffffeH
  003f9	eb 16		 jmp	 SHORT $LN40@GetAttackD
$LN37@GetAttackD:
$LN60@GetAttackD:

; 4194 : 	__except ( subd=1, 1 )

  003fb	b8 01 00 00 00	 mov	 eax, 1
  00400	89 45 a0	 mov	 DWORD PTR _subd$[ebp], eax
$LN53@GetAttackD:
$LN39@GetAttackD:
  00403	c3		 ret	 0
$LN38@GetAttackD:
  00404	8b 65 e8	 mov	 esp, DWORD PTR __$SEHRec$[ebp]

; 4195 : 	{
; 4196 : 
; 4197 : 	}

  00407	c7 45 fc fe ff
	ff ff		 mov	 DWORD PTR __$SEHRec$[ebp+20], -2 ; fffffffeH
  0040e	8b 7d 98	 mov	 edi, DWORD PTR _lpObj$GSCopy$[ebp]
$LN40@GetAttackD:

; 4198 : 
; 4199 : 	int SkillAttack = 0;
; 4200 : 
; 4201 : 	SkillAttack = gObjGetActiveEffect(lpObj, ADD_OPTION_ATTACK_DAMAGE);

  00411	6a 02		 push	 2
  00413	57		 push	 edi
  00414	e8 00 00 00 00	 call	 ?gObjGetActiveEffect@@YAHPAUOBJECTSTRUCT@@H@Z ; gObjGetActiveEffect
  00419	8b f0		 mov	 esi, eax

; 4202 : 	SkillAttack += gObjGetActiveEffect(lpObj, ADD_OPTION_WIZARDRY); //season4 fix

  0041b	6a 0f		 push	 15			; 0000000fH
  0041d	57		 push	 edi
  0041e	e8 00 00 00 00	 call	 ?gObjGetActiveEffect@@YAHPAUOBJECTSTRUCT@@H@Z ; gObjGetActiveEffect
  00423	83 c4 10	 add	 esp, 16			; 00000010H
  00426	03 f0		 add	 esi, eax

; 4203 : 
; 4204 : 	ad += SkillAttack;

  00428	8b 45 ac	 mov	 eax, DWORD PTR _ad$[ebp]
  0042b	03 c6		 add	 eax, esi

; 4205 : 
; 4206 : 	if ( lpObj->m_SkillAttack )

  0042d	83 bf 24 04 00
	00 00		 cmp	 DWORD PTR [edi+1060], 0
  00434	74 03		 je	 SHORT $LN34@GetAttackD

; 4207 : 	{
; 4208 : 		ad += 10;

  00436	83 c0 0a	 add	 eax, 10			; 0000000aH
$LN34@GetAttackD:

; 4209 : 	}
; 4210 : 
; 4211 : 	return ad;
; 4212 : }

  00439	8b 4d f0	 mov	 ecx, DWORD PTR __$SEHRec$[ebp+8]
  0043c	64 89 0d 00 00
	00 00		 mov	 DWORD PTR fs:0, ecx
  00443	59		 pop	 ecx
  00444	5f		 pop	 edi
  00445	5e		 pop	 esi
  00446	5b		 pop	 ebx
  00447	8b 4d e4	 mov	 ecx, DWORD PTR __$ArrayPad$[ebp]
  0044a	33 cd		 xor	 ecx, ebp
  0044c	e8 00 00 00 00	 call	 @__security_check_cookie@4
  00451	8b e5		 mov	 esp, ebp
  00453	5d		 pop	 ebp
  00454	c2 14 00	 ret	 20			; 00000014H
?GetAttackDamageWizard@CObjAttack@@QAEHPAUOBJECTSTRUCT@@HPAVCMagicInf@@AAEH@Z ENDP ; CObjAttack::GetAttackDamageWizard
_TEXT	ENDS
PUBLIC	__real@00000000
PUBLIC	?gObjDenorantSprite@@YAHPAUOBJECTSTRUCT@@@Z	; gObjDenorantSprite
;	COMDAT __real@00000000
CONST	SEGMENT
__real@00000000 DD 000000000r			; 0
; Function compile flags: /Ogtp
CONST	ENDS
;	COMDAT ?gObjDenorantSprite@@YAHPAUOBJECTSTRUCT@@@Z
_TEXT	SEGMENT
_lpObj$ = 8						; size = 4
?gObjDenorantSprite@@YAHPAUOBJECTSTRUCT@@@Z PROC	; gObjDenorantSprite, COMDAT

; 4215 : {

  00000	55		 push	 ebp
  00001	8b ec		 mov	 ebp, esp
  00003	56		 push	 esi

; 4216 : 	if ( lpObj->Type != OBJ_USER )

  00004	8b 75 08	 mov	 esi, DWORD PTR _lpObj$[ebp]
  00007	66 83 7e 68 01	 cmp	 WORD PTR [esi+104], 1

; 4217 : 	{
; 4218 : 		return FALSE;

  0000c	75 40		 jne	 SHORT $LN1@gObjDenora

; 4219 : 	}
; 4220 : 
; 4221 : 	if ( lpObj->pInventory[8].IsItem() == FALSE )

  0000e	8b 8e 24 0e 00
	00		 mov	 ecx, DWORD PTR [esi+3620]
  00014	81 c1 a0 06 00
	00		 add	 ecx, 1696		; 000006a0H
  0001a	e8 00 00 00 00	 call	 ?IsItem@CItem@@QAEHXZ	; CItem::IsItem
  0001f	85 c0		 test	 eax, eax

; 4222 : 	{
; 4223 : 		return FALSE;

  00021	74 2b		 je	 SHORT $LN1@gObjDenora

; 4224 : 	}
; 4225 : 
; 4226 : 	CItem * Denorant = & lpObj->pInventory[8];

  00023	8b 86 24 0e 00
	00		 mov	 eax, DWORD PTR [esi+3620]

; 4227 : 
; 4228 : 	if ( Denorant->m_Type == ITEMGET(13,3) )

  00029	b9 03 1a 00 00	 mov	 ecx, 6659		; 00001a03H
  0002e	66 39 88 a6 06
	00 00		 cmp	 WORD PTR [eax+1702], cx
  00035	75 17		 jne	 SHORT $LN1@gObjDenora

; 4229 : 	{
; 4230 : 		if ( Denorant->m_Durability > 0.0f )

  00037	d9 ee		 fldz
  00039	d8 98 c4 06 00
	00		 fcomp	 DWORD PTR [eax+1732]
  0003f	df e0		 fnstsw	 ax
  00041	f6 c4 05	 test	 ah, 5
  00044	7a 08		 jp	 SHORT $LN1@gObjDenora

; 4231 : 		{
; 4232 : 			return TRUE;

  00046	b8 01 00 00 00	 mov	 eax, 1
  0004b	5e		 pop	 esi

; 4237 : }

  0004c	5d		 pop	 ebp
  0004d	c3		 ret	 0
$LN1@gObjDenora:

; 4233 : 		}
; 4234 : 	}
; 4235 : 
; 4236 : 	return FALSE;

  0004e	33 c0		 xor	 eax, eax
  00050	5e		 pop	 esi

; 4237 : }

  00051	5d		 pop	 ebp
  00052	c3		 ret	 0
?gObjDenorantSprite@@YAHPAUOBJECTSTRUCT@@@Z ENDP	; gObjDenorantSprite
_TEXT	ENDS
PUBLIC	?gObjDarkHorse@@YAHPAUOBJECTSTRUCT@@@Z		; gObjDarkHorse
; Function compile flags: /Ogtp
;	COMDAT ?gObjDarkHorse@@YAHPAUOBJECTSTRUCT@@@Z
_TEXT	SEGMENT
_lpObj$ = 8						; size = 4
?gObjDarkHorse@@YAHPAUOBJECTSTRUCT@@@Z PROC		; gObjDarkHorse, COMDAT

; 4240 : {

  00000	55		 push	 ebp
  00001	8b ec		 mov	 ebp, esp
  00003	56		 push	 esi

; 4241 : 	if ( lpObj->Type != OBJ_USER )

  00004	8b 75 08	 mov	 esi, DWORD PTR _lpObj$[ebp]
  00007	66 83 7e 68 01	 cmp	 WORD PTR [esi+104], 1

; 4242 : 	{
; 4243 : 		return FALSE;

  0000c	75 40		 jne	 SHORT $LN1@gObjDarkHo

; 4244 : 	}
; 4245 : 
; 4246 : 	if ( lpObj->pInventory[8].IsItem() == FALSE )

  0000e	8b 8e 24 0e 00
	00		 mov	 ecx, DWORD PTR [esi+3620]
  00014	81 c1 a0 06 00
	00		 add	 ecx, 1696		; 000006a0H
  0001a	e8 00 00 00 00	 call	 ?IsItem@CItem@@QAEHXZ	; CItem::IsItem
  0001f	85 c0		 test	 eax, eax

; 4247 : 	{
; 4248 : 		return FALSE;

  00021	74 2b		 je	 SHORT $LN1@gObjDarkHo

; 4249 : 	}
; 4250 : 
; 4251 : 	CItem * Denorant = & lpObj->pInventory[8];

  00023	8b 86 24 0e 00
	00		 mov	 eax, DWORD PTR [esi+3620]

; 4252 : 
; 4253 : 	if ( Denorant->m_Type == ITEMGET(13,4) )

  00029	b9 04 1a 00 00	 mov	 ecx, 6660		; 00001a04H
  0002e	66 39 88 a6 06
	00 00		 cmp	 WORD PTR [eax+1702], cx
  00035	75 17		 jne	 SHORT $LN1@gObjDarkHo

; 4254 : 	{
; 4255 : 		if ( Denorant->m_Durability > 0.0f )

  00037	d9 ee		 fldz
  00039	d8 98 c4 06 00
	00		 fcomp	 DWORD PTR [eax+1732]
  0003f	df e0		 fnstsw	 ax
  00041	f6 c4 05	 test	 ah, 5
  00044	7a 08		 jp	 SHORT $LN1@gObjDarkHo

; 4256 : 		{
; 4257 : 			return TRUE;

  00046	b8 01 00 00 00	 mov	 eax, 1
  0004b	5e		 pop	 esi

; 4262 : }

  0004c	5d		 pop	 ebp
  0004d	c3		 ret	 0
$LN1@gObjDarkHo:

; 4258 : 		}
; 4259 : 	}
; 4260 : 
; 4261 : 	return FALSE;

  0004e	33 c0		 xor	 eax, eax
  00050	5e		 pop	 esi

; 4262 : }

  00051	5d		 pop	 ebp
  00052	c3		 ret	 0
?gObjDarkHorse@@YAHPAUOBJECTSTRUCT@@@Z ENDP		; gObjDarkHorse
_TEXT	ENDS
PUBLIC	?gObjFenrir@@YAHPAUOBJECTSTRUCT@@@Z		; gObjFenrir
; Function compile flags: /Ogtp
;	COMDAT ?gObjFenrir@@YAHPAUOBJECTSTRUCT@@@Z
_TEXT	SEGMENT
_lpObj$ = 8						; size = 4
?gObjFenrir@@YAHPAUOBJECTSTRUCT@@@Z PROC		; gObjFenrir, COMDAT

; 4265 : {

  00000	55		 push	 ebp
  00001	8b ec		 mov	 ebp, esp
  00003	56		 push	 esi

; 4266 : 	if ( lpObj->Type != OBJ_USER )

  00004	8b 75 08	 mov	 esi, DWORD PTR _lpObj$[ebp]
  00007	66 83 7e 68 01	 cmp	 WORD PTR [esi+104], 1

; 4267 : 	{
; 4268 : 		return FALSE;

  0000c	75 40		 jne	 SHORT $LN1@gObjFenrir

; 4269 : 	}
; 4270 : 
; 4271 : 	if ( lpObj->pInventory[8].IsItem() == FALSE )

  0000e	8b 8e 24 0e 00
	00		 mov	 ecx, DWORD PTR [esi+3620]
  00014	81 c1 a0 06 00
	00		 add	 ecx, 1696		; 000006a0H
  0001a	e8 00 00 00 00	 call	 ?IsItem@CItem@@QAEHXZ	; CItem::IsItem
  0001f	85 c0		 test	 eax, eax

; 4272 : 	{
; 4273 : 		return FALSE;

  00021	74 2b		 je	 SHORT $LN1@gObjFenrir

; 4274 : 	}
; 4275 : 
; 4276 : 	CItem * lpFenrir = & lpObj->pInventory[8];

  00023	8b 86 24 0e 00
	00		 mov	 eax, DWORD PTR [esi+3620]

; 4277 : 
; 4278 : 	if ( lpFenrir->m_Type == ITEMGET(13,37) )

  00029	b9 25 1a 00 00	 mov	 ecx, 6693		; 00001a25H
  0002e	66 39 88 a6 06
	00 00		 cmp	 WORD PTR [eax+1702], cx
  00035	75 17		 jne	 SHORT $LN1@gObjFenrir

; 4279 : 	{
; 4280 : 		if ( lpFenrir->m_Durability > 0.0f )

  00037	d9 ee		 fldz
  00039	d8 98 c4 06 00
	00		 fcomp	 DWORD PTR [eax+1732]
  0003f	df e0		 fnstsw	 ax
  00041	f6 c4 05	 test	 ah, 5
  00044	7a 08		 jp	 SHORT $LN1@gObjFenrir

; 4281 : 		{
; 4282 : 			return TRUE;

  00046	b8 01 00 00 00	 mov	 eax, 1
  0004b	5e		 pop	 esi

; 4287 : }

  0004c	5d		 pop	 ebp
  0004d	c3		 ret	 0
$LN1@gObjFenrir:

; 4283 : 		}
; 4284 : 	}
; 4285 : 
; 4286 : 	return FALSE;

  0004e	33 c0		 xor	 eax, eax
  00050	5e		 pop	 esi

; 4287 : }

  00051	5d		 pop	 ebp
  00052	c3		 ret	 0
?gObjFenrir@@YAHPAUOBJECTSTRUCT@@@Z ENDP		; gObjFenrir
_TEXT	ENDS
PUBLIC	__real@4059000000000000
PUBLIC	__real@4034000000000000
PUBLIC	??_C@_0IE@HMIJIHBA@?$FLJewelOfHarmony?$FN?$FLPvP?5System?$FN?5Att@ ; `string'
PUBLIC	?GetShieldDamage@CObjAttack@@QAEHPAUOBJECTSTRUCT@@0H@Z ; CObjAttack::GetShieldDamage
EXTRN	?GCSendEffectInfo@@YAXHE@Z:PROC			; GCSendEffectInfo
EXTRN	?LogAddTD@@3P6AXPADZZA:DWORD			; LogAddTD
EXTRN	?g_iDamageDevideToSDRate@@3HA:DWORD		; g_iDamageDevideToSDRate
;	COMDAT __real@4059000000000000
CONST	SEGMENT
__real@4059000000000000 DQ 04059000000000000r	; 100
CONST	ENDS
;	COMDAT __real@4034000000000000
CONST	SEGMENT
__real@4034000000000000 DQ 04034000000000000r	; 20
CONST	ENDS
;	COMDAT ??_C@_0IE@HMIJIHBA@?$FLJewelOfHarmony?$FN?$FLPvP?5System?$FN?5Att@
CONST	SEGMENT
??_C@_0IE@HMIJIHBA@?$FLJewelOfHarmony?$FN?$FLPvP?5System?$FN?5Att@ DB '[J'
	DB	'ewelOfHarmony][PvP System] Attacker:[%s][%s]-SD Decrease[%d] '
	DB	'SD Ignore[%d] Defender:[%s][%s] SD Increase Option[%d] - SD R'
	DB	'ate[%d]', 00H				; `string'
; Function compile flags: /Ogtp
CONST	ENDS
;	COMDAT ?GetShieldDamage@CObjAttack@@QAEHPAUOBJECTSTRUCT@@0H@Z
_TEXT	SEGMENT
_lpObj$ = 8						; size = 4
_lpTargetObj$ = 12					; size = 4
_iAttackDamage$ = 16					; size = 4
?GetShieldDamage@CObjAttack@@QAEHPAUOBJECTSTRUCT@@0H@Z PROC ; CObjAttack::GetShieldDamage, COMDAT
; _this$ = ecx

; 4290 : {

  00000	55		 push	 ebp
  00001	8b ec		 mov	 ebp, esp

; 4291 : 	int iShieldDamage = 0;
; 4292 : 
; 4293 : 	if ( g_ShieldSystemOn == FALSE )

  00003	83 3d 00 00 00
	00 00		 cmp	 DWORD PTR ?g_ShieldSystemOn@@3HA, 0 ; g_ShieldSystemOn
  0000a	75 06		 jne	 SHORT $LN12@GetShieldD
$LN22@GetShieldD:

; 4294 : 		return 0;

  0000c	33 c0		 xor	 eax, eax

; 4361 : }

  0000e	5d		 pop	 ebp
  0000f	c2 0c 00	 ret	 12			; 0000000cH
$LN12@GetShieldD:

; 4295 : 
; 4296 : 	if ( iAttackDamage <= 0 )

  00012	8b 4d 10	 mov	 ecx, DWORD PTR _iAttackDamage$[ebp]
  00015	85 c9		 test	 ecx, ecx

; 4297 : 		return 0;

  00017	7e f3		 jle	 SHORT $LN22@GetShieldD

; 4298 : 
; 4299 : 	int iReduceLife = 0;
; 4300 : 	int iReduceShield = 0;
; 4301 : 	int iReduceLifeForEffect = 0; 
; 4302 : 	bool bReduceShieldGage = 0;
; 4303 : 	int iDamageDevideToSDRate = g_iDamageDevideToSDRate;
; 4304 : 	iDamageDevideToSDRate -= lpObj->m_JewelOfHarmonyEffect.HJOpDecreaseSDRate;

  00019	53		 push	 ebx
  0001a	8b 5d 08	 mov	 ebx, DWORD PTR _lpObj$[ebp]

; 4305 : 	iDamageDevideToSDRate += lpTargetObj->m_JewelOfHarmonyEffect.HJOpAddSDRate;

  0001d	0f bf 83 e8 1f
	00 00		 movsx	 eax, WORD PTR [ebx+8168]
  00024	56		 push	 esi
  00025	57		 push	 edi
  00026	8b 7d 0c	 mov	 edi, DWORD PTR _lpTargetObj$[ebp]
  00029	0f bf b7 fc 1f
	00 00		 movsx	 esi, WORD PTR [edi+8188]
  00030	2b f0		 sub	 esi, eax
  00032	03 35 00 00 00
	00		 add	 esi, DWORD PTR ?g_iDamageDevideToSDRate@@3HA ; g_iDamageDevideToSDRate

; 4306 : 
; 4307 : 	if ( iDamageDevideToSDRate < 0 )

  00038	79 04		 jns	 SHORT $LN10@GetShieldD

; 4308 : 		iDamageDevideToSDRate = 0;

  0003a	33 f6		 xor	 esi, esi

; 4309 : 
; 4310 : 	if ( iDamageDevideToSDRate > 100 )

  0003c	eb 0a		 jmp	 SHORT $LN9@GetShieldD
$LN10@GetShieldD:
  0003e	83 fe 64	 cmp	 esi, 100		; 00000064H
  00041	7e 05		 jle	 SHORT $LN9@GetShieldD

; 4311 : 		iDamageDevideToSDRate = 100;

  00043	be 64 00 00 00	 mov	 esi, 100		; 00000064H
$LN9@GetShieldD:

; 4312 : 
; 4313 : 	if ( lpObj->m_JewelOfHarmonyEffect.HJOpAddIgnoreSDRate > 0 )

  00048	0f b7 83 ea 1f
	00 00		 movzx	 eax, WORD PTR [ebx+8170]
  0004f	66 85 c0	 test	 ax, ax
  00052	7e 20		 jle	 SHORT $LN7@GetShieldD

; 4314 : 	{
; 4315 : 		int iRand = rand()%100;

  00054	e8 00 00 00 00	 call	 _rand
  00059	99		 cdq
  0005a	b9 64 00 00 00	 mov	 ecx, 100		; 00000064H
  0005f	f7 f9		 idiv	 ecx

; 4316 : 
; 4317 : 		if ( iRand < lpObj->m_JewelOfHarmonyEffect.HJOpAddIgnoreSDRate )

  00061	0f b7 83 ea 1f
	00 00		 movzx	 eax, WORD PTR [ebx+8170]
  00068	0f bf c8	 movsx	 ecx, ax
  0006b	3b d1		 cmp	 edx, ecx

; 4318 : 		{
; 4319 : 			iDamageDevideToSDRate = 0;

  0006d	8b 4d 10	 mov	 ecx, DWORD PTR _iAttackDamage$[ebp]
  00070	7d 02		 jge	 SHORT $LN7@GetShieldD
  00072	33 f6		 xor	 esi, esi
$LN7@GetShieldD:

; 4320 : 		}
; 4321 : 	}
; 4322 : 
; 4323 : 	if ( lpObj->m_JewelOfHarmonyEffect.HJOpDecreaseSDRate ||
; 4324 : 		 lpTargetObj->m_JewelOfHarmonyEffect.HJOpAddSDRate ||
; 4325 : 		 lpObj->m_JewelOfHarmonyEffect.HJOpAddIgnoreSDRate )

  00074	0f b7 93 e8 1f
	00 00		 movzx	 edx, WORD PTR [ebx+8168]
  0007b	66 85 d2	 test	 dx, dx
  0007e	75 0e		 jne	 SHORT $LN5@GetShieldD
  00080	66 39 97 fc 1f
	00 00		 cmp	 WORD PTR [edi+8188], dx
  00087	75 05		 jne	 SHORT $LN5@GetShieldD
  00089	66 85 c0	 test	 ax, ax
  0008c	74 30		 je	 SHORT $LN6@GetShieldD
$LN5@GetShieldD:

; 4326 : 	{
; 4327 : 		LogAddTD("[JewelOfHarmony][PvP System] Attacker:[%s][%s]-SD Decrease[%d] SD Ignore[%d] Defender:[%s][%s] SD Increase Option[%d] - SD Rate[%d]",
; 4328 : 			lpObj->AccountID, lpObj->Name,
; 4329 : 			lpObj->m_JewelOfHarmonyEffect.HJOpDecreaseSDRate,
; 4330 : 			lpObj->m_JewelOfHarmonyEffect.HJOpAddIgnoreSDRate,
; 4331 : 			lpTargetObj->AccountID, lpTargetObj->Name,
; 4332 : 			lpTargetObj->m_JewelOfHarmonyEffect.HJOpAddSDRate,
; 4333 : 			iDamageDevideToSDRate);

  0008e	0f bf 8f fc 1f
	00 00		 movsx	 ecx, WORD PTR [edi+8188]
  00095	56		 push	 esi
  00096	51		 push	 ecx
  00097	8d 4f 77	 lea	 ecx, DWORD PTR [edi+119]
  0009a	51		 push	 ecx
  0009b	8d 4f 6c	 lea	 ecx, DWORD PTR [edi+108]
  0009e	51		 push	 ecx
  0009f	98		 cwde
  000a0	50		 push	 eax
  000a1	0f bf ca	 movsx	 ecx, dx
  000a4	51		 push	 ecx
  000a5	8d 53 77	 lea	 edx, DWORD PTR [ebx+119]
  000a8	52		 push	 edx
  000a9	83 c3 6c	 add	 ebx, 108		; 0000006cH
  000ac	53		 push	 ebx
  000ad	68 00 00 00 00	 push	 OFFSET ??_C@_0IE@HMIJIHBA@?$FLJewelOfHarmony?$FN?$FLPvP?5System?$FN?5Att@
  000b2	ff 15 00 00 00
	00		 call	 DWORD PTR ?LogAddTD@@3P6AXPADZZA ; LogAddTD
  000b8	8b 4d 10	 mov	 ecx, DWORD PTR _iAttackDamage$[ebp]
  000bb	83 c4 24	 add	 esp, 36			; 00000024H
$LN6@GetShieldD:

; 4334 : 	}
; 4335 : 
; 4336 : 	iReduceShield = iAttackDamage * iDamageDevideToSDRate / 100;

  000be	0f af f1	 imul	 esi, ecx
  000c1	b8 1f 85 eb 51	 mov	 eax, 1374389535		; 51eb851fH
  000c6	f7 ee		 imul	 esi

; 4337 : 	iReduceLife = iAttackDamage - iReduceShield;
; 4338 : 
; 4339 : 	if ( (lpTargetObj->iShield-iReduceShield) <0 )

  000c8	8b 87 54 01 00
	00		 mov	 eax, DWORD PTR [edi+340]
  000ce	c1 fa 05	 sar	 edx, 5
  000d1	8b f2		 mov	 esi, edx
  000d3	c1 ee 1f	 shr	 esi, 31			; 0000001fH
  000d6	03 f2		 add	 esi, edx
  000d8	2b ce		 sub	 ecx, esi
  000da	2b c6		 sub	 eax, esi
  000dc	8b d9		 mov	 ebx, ecx
  000de	79 56		 jns	 SHORT $LN1@GetShieldD

; 4340 : 	{
; 4341 : 		iReduceLife += iReduceShield  - lpTargetObj->iShield;

  000e0	8b 87 54 01 00
	00		 mov	 eax, DWORD PTR [edi+340]
  000e6	2b f0		 sub	 esi, eax
  000e8	03 de		 add	 ebx, esi

; 4342 : 		iReduceShield = lpTargetObj->iShield;

  000ea	8b f0		 mov	 esi, eax

; 4343 : 
; 4344 : 		if ( lpTargetObj->iShield > 0 )

  000ec	85 c0		 test	 eax, eax
  000ee	7e 46		 jle	 SHORT $LN1@GetShieldD

; 4345 : 		{
; 4346 : 			bReduceShieldGage = true;
; 4347 : 		}
; 4348 : 	}
; 4349 : 
; 4350 : 	iReduceLifeForEffect = (int)(( lpTargetObj->MaxLife + lpTargetObj->AddLife ) * 20.0f / 100.0f);
; 4351 : 
; 4352 : 	if ( bReduceShieldGage == true && iReduceLife > iReduceLifeForEffect )

  000f0	db 87 4c 01 00
	00		 fild	 DWORD PTR [edi+332]
  000f6	d8 87 00 01 00
	00		 fadd	 DWORD PTR [edi+256]
  000fc	dc 0d 00 00 00
	00		 fmul	 QWORD PTR __real@4034000000000000
  00102	dc 35 00 00 00
	00		 fdiv	 QWORD PTR __real@4059000000000000
  00108	e8 00 00 00 00	 call	 __ftol2_sse
  0010d	3b d8		 cmp	 ebx, eax
  0010f	7e 25		 jle	 SHORT $LN1@GetShieldD

; 4353 : 	{
; 4354 : 		if ( !CC_MAP_RANGE(lpTargetObj->MapNumber) )

  00111	0f b6 87 49 01
	00 00		 movzx	 eax, BYTE PTR [edi+329]
  00118	3c 35		 cmp	 al, 53			; 00000035H
  0011a	74 1a		 je	 SHORT $LN1@GetShieldD
  0011c	3c 12		 cmp	 al, 18			; 00000012H
  0011e	72 09		 jb	 SHORT $LN20@GetShieldD
  00120	b1 17		 mov	 cl, 23			; 00000017H
  00122	3a c8		 cmp	 cl, al
  00124	1b c0		 sbb	 eax, eax
  00126	40		 inc	 eax
  00127	75 0d		 jne	 SHORT $LN1@GetShieldD
$LN20@GetShieldD:

; 4355 : 		{
; 4356 : 			GCSendEffectInfo(lpTargetObj->m_Index, 17);

  00129	8b 17		 mov	 edx, DWORD PTR [edi]
  0012b	6a 11		 push	 17			; 00000011H
  0012d	52		 push	 edx
  0012e	e8 00 00 00 00	 call	 ?GCSendEffectInfo@@YAXHE@Z ; GCSendEffectInfo
  00133	83 c4 08	 add	 esp, 8
$LN1@GetShieldD:

; 4357 : 		}
; 4358 : 	}
; 4359 : 
; 4360 : 	return iReduceShield;

  00136	5f		 pop	 edi
  00137	8b c6		 mov	 eax, esi
  00139	5e		 pop	 esi
  0013a	5b		 pop	 ebx

; 4361 : }

  0013b	5d		 pop	 ebp
  0013c	c2 0c 00	 ret	 12			; 0000000cH
?GetShieldDamage@CObjAttack@@QAEHPAUOBJECTSTRUCT@@0H@Z ENDP ; CObjAttack::GetShieldDamage
_TEXT	ENDS
PUBLIC	?GetAttackDamageSummoner@CObjAttack@@QAEHPAUOBJECTSTRUCT@@HPAVCMagicInf@@AAEH@Z ; CObjAttack::GetAttackDamageSummoner
EXTRN	?GetSkillAttackDamage@CMasterLevelSkillTreeSystem@@QAEMPAUOBJECTSTRUCT@@H@Z:PROC ; CMasterLevelSkillTreeSystem::GetSkillAttackDamage
EXTRN	?CheckRequireStatus@CMasterLevelSkillTreeSystem@@QAEHH@Z:PROC ; CMasterLevelSkillTreeSystem::CheckRequireStatus
EXTRN	?g_MasterSkillSystem@@3VCMasterLevelSkillTreeSystem@@A:BYTE ; g_MasterSkillSystem
EXTRN	?g_SkillAdditionInfo@@3VCSkillAdditionInfo@@A:BYTE ; g_SkillAdditionInfo
;	COMDAT xdata$x
xdata$x	SEGMENT
__sehtable$?GetAttackDamageSummoner@CObjAttack@@QAEHPAUOBJECTSTRUCT@@HPAVCMagicInf@@AAEH@Z DD 0fffffffeH
	DD	00H
	DD	0ffffffc0H
	DD	00H
	DD	0fffffffeH
	DD	FLAT:$LN46@GetAttackD@2
	DD	FLAT:$LN47@GetAttackD@2
; Function compile flags: /Ogtp
xdata$x	ENDS
;	COMDAT ?GetAttackDamageSummoner@CObjAttack@@QAEHPAUOBJECTSTRUCT@@HPAVCMagicInf@@AAEH@Z
_TEXT	SEGMENT
_subd$ = -48						; size = 4
tv830 = -44						; size = 4
tv823 = -44						; size = 4
tv810 = -44						; size = 4
tv803 = -44						; size = 4
tv802 = -44						; size = 4
tv796 = -44						; size = 4
tv762 = -44						; size = 4
tv760 = -44						; size = 4
tv742 = -44						; size = 4
tv730 = -44						; size = 4
tv718 = -44						; size = 4
tv708 = -44						; size = 4
tv608 = -44						; size = 4
tv446 = -44						; size = 4
_damage$223569 = -44					; size = 4
_fDamage$223562 = -44					; size = 4
_damage$223544 = -44					; size = 4
_Left$223540 = -44					; size = 4
_SkillAttack$ = -44					; size = 4
_ebp2C$ = -44						; size = 4
tv632 = -40						; size = 4
_ebp28$ = -40						; size = 4
_ad$ = -36						; size = 4
tv707 = -32						; size = 4
_damagemin$ = -32					; size = 4
_ebp20$ = -32						; size = 4
_damagemax$ = -28					; size = 4
_ebp24$ = -28						; size = 4
tv765 = -26						; size = 2
tv467 = -26						; size = 2
__$SEHRec$ = -24					; size = 24
_lpObj$ = 8						; size = 4
_targetDefense$ = 12					; size = 4
_SkillAddCriticalDamage$223588 = 16			; size = 4
_lpMagic$ = 16						; size = 4
_effect$ = 20						; size = 4
_bIsOnDuel$ = 24					; size = 4
?GetAttackDamageSummoner@CObjAttack@@QAEHPAUOBJECTSTRUCT@@HPAVCMagicInf@@AAEH@Z PROC ; CObjAttack::GetAttackDamageSummoner, COMDAT
; _this$ = ecx

; 4364 : {

  00000	55		 push	 ebp
  00001	8b ec		 mov	 ebp, esp
  00003	6a fe		 push	 -2			; fffffffeH
  00005	68 00 00 00 00	 push	 OFFSET __sehtable$?GetAttackDamageSummoner@CObjAttack@@QAEHPAUOBJECTSTRUCT@@HPAVCMagicInf@@AAEH@Z
  0000a	68 00 00 00 00	 push	 OFFSET __except_handler4
  0000f	64 a1 00 00 00
	00		 mov	 eax, DWORD PTR fs:0
  00015	50		 push	 eax
  00016	83 ec 20	 sub	 esp, 32			; 00000020H
  00019	53		 push	 ebx
  0001a	56		 push	 esi
  0001b	57		 push	 edi
  0001c	a1 00 00 00 00	 mov	 eax, DWORD PTR ___security_cookie
  00021	31 45 f8	 xor	 DWORD PTR __$SEHRec$[ebp+16], eax
  00024	33 c5		 xor	 eax, ebp
  00026	50		 push	 eax
  00027	8d 45 f0	 lea	 eax, DWORD PTR __$SEHRec$[ebp+8]
  0002a	64 a3 00 00 00
	00		 mov	 DWORD PTR fs:0, eax
  00030	89 65 e8	 mov	 DWORD PTR __$SEHRec$[ebp], esp

; 4365 : 	if ( g_ShieldSystemOn == TRUE )

  00033	b8 01 00 00 00	 mov	 eax, 1
  00038	39 05 00 00 00
	00		 cmp	 DWORD PTR ?g_ShieldSystemOn@@3HA, eax ; g_ShieldSystemOn
  0003e	75 0c		 jne	 SHORT $LN41@GetAttackD@2

; 4366 : 	{
; 4367 : 		if ( bIsOnDuel == TRUE )

  00040	39 45 18	 cmp	 DWORD PTR _bIsOnDuel$[ebp], eax
  00043	75 07		 jne	 SHORT $LN41@GetAttackD@2

; 4368 : 		{
; 4369 : 			bIsOnDuel = FALSE;

  00045	c7 45 18 00 00
	00 00		 mov	 DWORD PTR _bIsOnDuel$[ebp], 0
$LN41@GetAttackD@2:

; 4370 : 		}
; 4371 : 	}
; 4372 : 
; 4373 : 	float ebp20 = 0;

  0004c	d9 ee		 fldz
  0004e	d9 55 e0	 fst	 DWORD PTR _ebp20$[ebp]

; 4374 : 	float ebp24 = 0;

  00051	d9 55 e4	 fst	 DWORD PTR _ebp24$[ebp]

; 4375 : 	float ebp28 = 0;

  00054	d9 55 d8	 fst	 DWORD PTR _ebp28$[ebp]

; 4376 : 	float ebp2C = 0;

  00057	d9 5d d4	 fstp	 DWORD PTR _ebp2C$[ebp]

; 4377 : 
; 4378 : 	int damagemin; //ebp30
; 4379 : 	int damagemax; //ebp34
; 4380 : 
; 4381 : 	int ad; //ebp38
; 4382 : 
; 4383 : 	int SkillAttack = 0; //ebp3C
; 4384 : 
; 4385 : 	ad = lpMagic->GetDamage();

  0005a	8b 75 10	 mov	 esi, DWORD PTR _lpMagic$[ebp]
  0005d	8b ce		 mov	 ecx, esi
  0005f	e8 00 00 00 00	 call	 ?GetDamage@CMagicInf@@QAEHXZ ; CMagicInf::GetDamage
  00064	89 45 dc	 mov	 DWORD PTR _ad$[ebp], eax

; 4386 : 
; 4387 : 	switch(lpMagic->m_Skill)

  00067	8b 46 08	 mov	 eax, DWORD PTR [esi+8]
  0006a	05 25 ff ff ff	 add	 eax, -219		; ffffff25H

; 4388 : 	{
; 4389 : 	case 219:
; 4390 : 	case 220:
; 4391 : 	case 221:
; 4392 : 	case 222:
; 4393 : 	case 223:
; 4394 : 	case 224:
; 4395 : 	case 225: //season4 add-on
; 4396 : 		{
; 4397 : 			if(gObjSearchActiveEffect(lpObj, AT_BERSERKER) == 1)

  0006f	6a 51		 push	 81			; 00000051H
  00071	8b 75 08	 mov	 esi, DWORD PTR _lpObj$[ebp]
  00074	56		 push	 esi

; 4386 : 
; 4387 : 	switch(lpMagic->m_Skill)

  00075	83 f8 06	 cmp	 eax, 6
  00078	0f 87 78 02 00
	00		 ja	 $LN28@GetAttackD@2

; 4388 : 	{
; 4389 : 	case 219:
; 4390 : 	case 220:
; 4391 : 	case 221:
; 4392 : 	case 222:
; 4393 : 	case 223:
; 4394 : 	case 224:
; 4395 : 	case 225: //season4 add-on
; 4396 : 		{
; 4397 : 			if(gObjSearchActiveEffect(lpObj, AT_BERSERKER) == 1)

  0007e	e8 00 00 00 00	 call	 ?gObjSearchActiveEffect@@YAEPAUOBJECTSTRUCT@@H@Z ; gObjSearchActiveEffect
  00083	83 c4 08	 add	 esp, 8
  00086	3c 01		 cmp	 al, 1
  00088	75 78		 jne	 SHORT $LN37@GetAttackD@2

; 4398 : 			{
; 4399 : 				int BerserkerEffect = gObjGetActiveEffect(lpObj, 31);

  0008a	6a 1f		 push	 31			; 0000001fH
  0008c	56		 push	 esi
  0008d	e8 00 00 00 00	 call	 ?gObjGetActiveEffect@@YAHPAUOBJECTSTRUCT@@H@Z ; gObjGetActiveEffect
  00092	83 c4 08	 add	 esp, 8

; 4400 : 				//int Ex_BerserkerPower = GetPrivateProfileInt("Summoner","BerserkerPower",50,"..\\Data\\ZtData\\Skills.ini");
; 4401 : 				//ebp24 = ((float)((lpObj->Energy + lpObj->AddEnergy) / 4) + 0.015) * BerserkerEffect / 100.0; //??
; 4402 : 				//ebp20 = (float)(((lpObj->Energy + lpObj->AddEnergy) / 9) * BerserkerEffect / 100);
; 4403 : 				ebp24 = (float)(((lpObj->Energy + lpObj->AddEnergy) / 4) * g_SkillAdditionInfo.BerserkerProcentDamageMax / 100); //??

  00095	0f bf be 26 01
	00 00		 movsx	 edi, WORD PTR [esi+294]
  0009c	0f b7 8e fa 00
	00 00		 movzx	 ecx, WORD PTR [esi+250]
  000a3	03 f9		 add	 edi, ecx
  000a5	0f b7 1d b8 0b
	00 00		 movzx	 ebx, WORD PTR ?g_SkillAdditionInfo@@3VCSkillAdditionInfo@@A+3000
  000ac	8b c7		 mov	 eax, edi
  000ae	99		 cdq
  000af	83 e2 03	 and	 edx, 3
  000b2	8d 0c 02	 lea	 ecx, DWORD PTR [edx+eax]
  000b5	c1 f9 02	 sar	 ecx, 2
  000b8	0f af cb	 imul	 ecx, ebx
  000bb	b8 1f 85 eb 51	 mov	 eax, 1374389535		; 51eb851fH
  000c0	f7 e9		 imul	 ecx
  000c2	c1 fa 05	 sar	 edx, 5
  000c5	8b c2		 mov	 eax, edx
  000c7	c1 e8 1f	 shr	 eax, 31			; 0000001fH
  000ca	03 c2		 add	 eax, edx
  000cc	89 45 d4	 mov	 DWORD PTR tv830[ebp], eax
  000cf	db 45 d4	 fild	 DWORD PTR tv830[ebp]
  000d2	d9 5d e4	 fstp	 DWORD PTR _ebp24$[ebp]

; 4404 : 				ebp20 = (float)(((lpObj->Energy + lpObj->AddEnergy) / 9) * g_SkillAdditionInfo.BerserkerProcentDamageMax / 100);

  000d5	b8 39 8e e3 38	 mov	 eax, 954437177		; 38e38e39H
  000da	f7 ef		 imul	 edi
  000dc	d1 fa		 sar	 edx, 1
  000de	8b ca		 mov	 ecx, edx
  000e0	c1 e9 1f	 shr	 ecx, 31			; 0000001fH
  000e3	03 ca		 add	 ecx, edx
  000e5	0f af cb	 imul	 ecx, ebx
  000e8	b8 1f 85 eb 51	 mov	 eax, 1374389535		; 51eb851fH
  000ed	f7 e9		 imul	 ecx
  000ef	c1 fa 05	 sar	 edx, 5
  000f2	8b c2		 mov	 eax, edx
  000f4	c1 e8 1f	 shr	 eax, 31			; 0000001fH
  000f7	03 c2		 add	 eax, edx
  000f9	89 45 d4	 mov	 DWORD PTR tv823[ebp], eax
  000fc	db 45 d4	 fild	 DWORD PTR tv823[ebp]
  000ff	d9 5d e0	 fstp	 DWORD PTR _ebp20$[ebp]
$LN37@GetAttackD@2:

; 4405 : 			}
; 4406 : 
; 4407 : 			if( gObjSearchActiveEffect(lpObj, 150) == true
; 4408 : 				|| gObjSearchActiveEffect(lpObj, 151) == true
; 4409 : 				|| gObjSearchActiveEffect(lpObj, 152) == true )

  00102	68 96 00 00 00	 push	 150			; 00000096H
  00107	56		 push	 esi
  00108	e8 00 00 00 00	 call	 ?gObjSearchActiveEffect@@YAEPAUOBJECTSTRUCT@@H@Z ; gObjSearchActiveEffect
  0010d	83 c4 08	 add	 esp, 8
  00110	3c 01		 cmp	 al, 1
  00112	74 24		 je	 SHORT $LN35@GetAttackD@2
  00114	68 97 00 00 00	 push	 151			; 00000097H
  00119	56		 push	 esi
  0011a	e8 00 00 00 00	 call	 ?gObjSearchActiveEffect@@YAEPAUOBJECTSTRUCT@@H@Z ; gObjSearchActiveEffect
  0011f	83 c4 08	 add	 esp, 8
  00122	3c 01		 cmp	 al, 1
  00124	74 12		 je	 SHORT $LN35@GetAttackD@2
  00126	68 98 00 00 00	 push	 152			; 00000098H
  0012b	56		 push	 esi
  0012c	e8 00 00 00 00	 call	 ?gObjSearchActiveEffect@@YAEPAUOBJECTSTRUCT@@H@Z ; gObjSearchActiveEffect
  00131	83 c4 08	 add	 esp, 8
  00134	3c 01		 cmp	 al, 1
  00136	75 78		 jne	 SHORT $LN36@GetAttackD@2
$LN35@GetAttackD@2:

; 4410 : 			{
; 4411 : 				float iValue = gObjGetActiveEffect(lpObj, 31);	//gObjGetActiveEffect

  00138	6a 1f		 push	 31			; 0000001fH
  0013a	56		 push	 esi
  0013b	e8 00 00 00 00	 call	 ?gObjGetActiveEffect@@YAHPAUOBJECTSTRUCT@@H@Z ; gObjGetActiveEffect
  00140	83 c4 08	 add	 esp, 8

; 4412 : 				// ----
; 4413 : 				if( lpObj->m_MPSkillOpt.ukn_D8 > 0.0f )
; 4414 : 				{
; 4415 : 					iValue += lpObj->m_MPSkillOpt.ukn_D8;
; 4416 : 				}
; 4417 : 				// ----
; 4418 : 				//ebp24 = ((float)((lpObj->Energy + lpObj->AddEnergy) / 4) + 0.015) * iValue / 100.0;
; 4419 : 				//ebp20 = (float)(((lpObj->Energy + lpObj->AddEnergy) / 9) * iValue / 100);
; 4420 : 
; 4421 : 				ebp24 = (float)(((lpObj->Energy + lpObj->AddEnergy) / 4) * g_SkillAdditionInfo.m_BerserkerProcentDamageMax / 100); //??

  00143	0f bf be 26 01
	00 00		 movsx	 edi, WORD PTR [esi+294]
  0014a	0f b7 96 fa 00
	00 00		 movzx	 edx, WORD PTR [esi+250]
  00151	03 fa		 add	 edi, edx
  00153	0f b7 1d c0 0c
	00 00		 movzx	 ebx, WORD PTR ?g_SkillAdditionInfo@@3VCSkillAdditionInfo@@A+3264
  0015a	8b c7		 mov	 eax, edi
  0015c	99		 cdq
  0015d	83 e2 03	 and	 edx, 3
  00160	8d 0c 02	 lea	 ecx, DWORD PTR [edx+eax]
  00163	c1 f9 02	 sar	 ecx, 2
  00166	0f af cb	 imul	 ecx, ebx
  00169	b8 1f 85 eb 51	 mov	 eax, 1374389535		; 51eb851fH
  0016e	f7 e9		 imul	 ecx
  00170	c1 fa 05	 sar	 edx, 5
  00173	8b c2		 mov	 eax, edx
  00175	c1 e8 1f	 shr	 eax, 31			; 0000001fH
  00178	03 c2		 add	 eax, edx
  0017a	89 45 d4	 mov	 DWORD PTR tv810[ebp], eax
  0017d	db 45 d4	 fild	 DWORD PTR tv810[ebp]
  00180	d9 5d e4	 fstp	 DWORD PTR _ebp24$[ebp]

; 4422 : 				ebp20 = (float)(((lpObj->Energy + lpObj->AddEnergy) / 9) * g_SkillAdditionInfo.m_BerserkerProcentDamageMax / 100);

  00183	b8 39 8e e3 38	 mov	 eax, 954437177		; 38e38e39H
  00188	f7 ef		 imul	 edi
  0018a	d1 fa		 sar	 edx, 1
  0018c	8b ca		 mov	 ecx, edx
  0018e	c1 e9 1f	 shr	 ecx, 31			; 0000001fH
  00191	03 ca		 add	 ecx, edx
  00193	0f af cb	 imul	 ecx, ebx
  00196	b8 1f 85 eb 51	 mov	 eax, 1374389535		; 51eb851fH
  0019b	f7 e9		 imul	 ecx
  0019d	c1 fa 05	 sar	 edx, 5
  001a0	8b c2		 mov	 eax, edx
  001a2	c1 e8 1f	 shr	 eax, 31			; 0000001fH
  001a5	03 c2		 add	 eax, edx
  001a7	89 45 d4	 mov	 DWORD PTR tv803[ebp], eax
  001aa	db 45 d4	 fild	 DWORD PTR tv803[ebp]
  001ad	d9 5d e0	 fstp	 DWORD PTR _ebp20$[ebp]
$LN36@GetAttackD@2:

; 4423 : 			}
; 4424 : 
; 4425 : 			//damagemin = (int)((float)(lpMagic->m_DamageMin + lpObj->m_iSummonerBookSpellDamageMin) + ebp20);
; 4426 : 			//damagemax = (int)((float)(lpMagic->m_DamageMax + lpObj->m_iSummonerBookSpellDamageMax) + ebp24);
; 4427 : 
; 4428 : 			damagemin = (int)((float)(lpMagic->m_DamageMin + lpObj->m_MagicDamageMin) + ebp20);

  001b0	8b 8e 68 04 00
	00		 mov	 ecx, DWORD PTR [esi+1128]
  001b6	8b 55 10	 mov	 edx, DWORD PTR _lpMagic$[ebp]
  001b9	03 4a 0c	 add	 ecx, DWORD PTR [edx+12]
  001bc	89 4d d4	 mov	 DWORD PTR tv802[ebp], ecx
  001bf	db 45 d4	 fild	 DWORD PTR tv802[ebp]
  001c2	d8 45 e0	 fadd	 DWORD PTR _ebp20$[ebp]
  001c5	e8 00 00 00 00	 call	 __ftol2_sse
  001ca	8b f8		 mov	 edi, eax
  001cc	89 7d e0	 mov	 DWORD PTR _damagemin$[ebp], edi

; 4429 : 			damagemax = (int)((float)(lpMagic->m_DamageMax + lpObj->m_MagicDamageMax) + ebp24);

  001cf	8b 86 6c 04 00
	00		 mov	 eax, DWORD PTR [esi+1132]
  001d5	8b 4d 10	 mov	 ecx, DWORD PTR _lpMagic$[ebp]
  001d8	03 41 10	 add	 eax, DWORD PTR [ecx+16]
  001db	89 45 d4	 mov	 DWORD PTR tv796[ebp], eax
  001de	db 45 d4	 fild	 DWORD PTR tv796[ebp]
  001e1	d8 45 e4	 fadd	 DWORD PTR _ebp24$[ebp]
  001e4	e8 00 00 00 00	 call	 __ftol2_sse
  001e9	8b d8		 mov	 ebx, eax
  001eb	89 5d e4	 mov	 DWORD PTR _damagemax$[ebp], ebx

; 4430 : 
; 4431 : 
; 4432 : 			if( lpObj->m_MPSkillOpt.MpsMagicMastery2 > 0.0f )

  001ee	d9 ee		 fldz
  001f0	d8 96 cc 26 00
	00		 fcom	 DWORD PTR [esi+9932]
  001f6	df e0		 fnstsw	 ax
  001f8	f6 c4 05	 test	 ah, 5
  001fb	7a 24		 jp	 SHORT $LN33@GetAttackD@2

; 4433 : 			{
; 4434 : 				damagemin += lpObj->m_MPSkillOpt.MpsMagicMastery2;

  001fd	db 45 e0	 fild	 DWORD PTR _damagemin$[ebp]
  00200	d8 86 cc 26 00
	00		 fadd	 DWORD PTR [esi+9932]
  00206	e8 00 00 00 00	 call	 __ftol2_sse
  0020b	89 45 e0	 mov	 DWORD PTR _damagemin$[ebp], eax

; 4435 : 				damagemax += lpObj->m_MPSkillOpt.MpsMagicMastery2;

  0020e	db 45 e4	 fild	 DWORD PTR _damagemax$[ebp]
  00211	d8 86 cc 26 00
	00		 fadd	 DWORD PTR [esi+9932]
  00217	e8 00 00 00 00	 call	 __ftol2_sse
  0021c	8b d8		 mov	 ebx, eax
  0021e	8b 7d e0	 mov	 edi, DWORD PTR _damagemin$[ebp]
$LN33@GetAttackD@2:

; 4436 : 			}
; 4437 : 			// ----
; 4438 : 			if( lpObj->m_MPSkillOpt.MpsMinWizCurseInc > 0.0f )

  00221	d8 9e 00 27 00
	00		 fcomp	 DWORD PTR [esi+9984]
  00227	df e0		 fnstsw	 ax
  00229	f6 c4 05	 test	 ah, 5
  0022c	7a 13		 jp	 SHORT $LN32@GetAttackD@2

; 4439 : 			{
; 4440 : 				damagemin += lpObj->m_MPSkillOpt.MpsMinWizCurseInc;

  0022e	db 45 e0	 fild	 DWORD PTR _damagemin$[ebp]
  00231	d8 86 00 27 00
	00		 fadd	 DWORD PTR [esi+9984]
  00237	e8 00 00 00 00	 call	 __ftol2_sse
  0023c	89 45 e0	 mov	 DWORD PTR _damagemin$[ebp], eax
  0023f	8b f8		 mov	 edi, eax
$LN32@GetAttackD@2:

; 4441 : 			}
; 4442 : 
; 4443 : 
; 4444 : 			CItem * Left = &lpObj->pInventory[1];

  00241	8b 8e 24 0e 00
	00		 mov	 ecx, DWORD PTR [esi+3620]
  00247	81 c1 d4 00 00
	00		 add	 ecx, 212		; 000000d4H
  0024d	89 4d d4	 mov	 DWORD PTR _Left$223540[ebp], ecx

; 4445 : 
; 4446 : 			if( Left->IsItem() )

  00250	e8 00 00 00 00	 call	 ?IsItem@CItem@@QAEHXZ	; CItem::IsItem
  00255	85 c0		 test	 eax, eax
  00257	0f 84 8c 00 00
	00		 je	 $LN29@GetAttackD@2

; 4447 : 			{
; 4448 : 				if ( Left->m_Type >= ITEMGET(5,0) && Left->m_Type < ITEMGET(6,0) )

  0025d	8b 45 d4	 mov	 eax, DWORD PTR _Left$223540[ebp]
  00260	0f b7 48 06	 movzx	 ecx, WORD PTR [eax+6]
  00264	ba 00 0a 00 00	 mov	 edx, 2560		; 00000a00H
  00269	66 3b ca	 cmp	 cx, dx
  0026c	7c 7b		 jl	 SHORT $LN29@GetAttackD@2
  0026e	ba 00 0c 00 00	 mov	 edx, 3072		; 00000c00H
  00273	66 3b ca	 cmp	 cx, dx
  00276	7d 71		 jge	 SHORT $LN29@GetAttackD@2

; 4449 : 				{
; 4450 : 					if ( Left->m_IsValidItem )

  00278	80 b8 b0 00 00
	00 00		 cmp	 BYTE PTR [eax+176], 0
  0027f	74 68		 je	 SHORT $LN29@GetAttackD@2

; 4451 : 					{
; 4452 : 						int damage = Left->m_BookSpell / 2 + Left->m_Level * 2;

  00281	0f b7 48 22	 movzx	 ecx, WORD PTR [eax+34]
  00285	d1 e9		 shr	 ecx, 1
  00287	0f bf 50 08	 movsx	 edx, WORD PTR [eax+8]
  0028b	8d 0c 51	 lea	 ecx, DWORD PTR [ecx+edx*2]
  0028e	89 4d d4	 mov	 DWORD PTR _damage$223544[ebp], ecx

; 4453 : 						damage -= (WORD)(Left->m_CurrentDurabilityState * damage);

  00291	d9 80 a8 00 00
	00		 fld	 DWORD PTR [eax+168]
  00297	da 4d d4	 fimul	 DWORD PTR _damage$223544[ebp]
  0029a	d9 7d e6	 fnstcw	 WORD PTR tv765[ebp]
  0029d	0f b7 45 e6	 movzx	 eax, WORD PTR tv765[ebp]
  002a1	0d 00 0c 00 00	 or	 eax, 3072		; 00000c00H
  002a6	89 45 d4	 mov	 DWORD PTR tv762[ebp], eax
  002a9	d9 6d d4	 fldcw	 WORD PTR tv762[ebp]
  002ac	db 5d d4	 fistp	 DWORD PTR tv760[ebp]
  002af	d9 6d e6	 fldcw	 WORD PTR tv765[ebp]
  002b2	66 8b 45 d4	 mov	 ax, WORD PTR tv760[ebp]
  002b6	0f b7 d0	 movzx	 edx, ax
  002b9	2b ca		 sub	 ecx, edx

; 4454 : 
; 4455 : 						damagemin += damagemin * damage / 100;

  002bb	8b d1		 mov	 edx, ecx
  002bd	0f af d7	 imul	 edx, edi
  002c0	b8 1f 85 eb 51	 mov	 eax, 1374389535		; 51eb851fH
  002c5	f7 ea		 imul	 edx
  002c7	c1 fa 05	 sar	 edx, 5
  002ca	8b c2		 mov	 eax, edx
  002cc	c1 e8 1f	 shr	 eax, 31			; 0000001fH
  002cf	03 c2		 add	 eax, edx
  002d1	03 f8		 add	 edi, eax

; 4456 : 						damagemax += damagemax * damage / 100;

  002d3	0f af cb	 imul	 ecx, ebx
  002d6	b8 1f 85 eb 51	 mov	 eax, 1374389535		; 51eb851fH
  002db	f7 e9		 imul	 ecx
  002dd	c1 fa 05	 sar	 edx, 5
  002e0	8b ca		 mov	 ecx, edx
  002e2	c1 e9 1f	 shr	 ecx, 31			; 0000001fH
  002e5	03 ca		 add	 ecx, edx
  002e7	03 d9		 add	 ebx, ecx
$LN29@GetAttackD@2:

; 4457 : 					}
; 4458 : 				}
; 4459 : 			}
; 4460 : 
; 4461 : 			SkillAttack += gObjGetActiveEffect(lpObj, 27);

  002e9	6a 1b		 push	 27			; 0000001bH
  002eb	56		 push	 esi
  002ec	e8 00 00 00 00	 call	 ?gObjGetActiveEffect@@YAHPAUOBJECTSTRUCT@@H@Z ; gObjGetActiveEffect

; 4462 : 		}
; 4463 : 		break;

  002f1	e9 a8 02 00 00	 jmp	 $LN64@GetAttackD@2
$LN28@GetAttackD@2:

; 4464 : 	default:
; 4465 : 		{
; 4466 : 			if(gObjSearchActiveEffect(lpObj, AT_BERSERKER) == 1)

  002f6	e8 00 00 00 00	 call	 ?gObjSearchActiveEffect@@YAEPAUOBJECTSTRUCT@@H@Z ; gObjSearchActiveEffect
  002fb	83 c4 08	 add	 esp, 8
  002fe	3c 01		 cmp	 al, 1
  00300	75 78		 jne	 SHORT $LN27@GetAttackD@2

; 4467 : 			{
; 4468 : 				int BerserkerEffect = gObjGetActiveEffect(lpObj, 31);

  00302	6a 1f		 push	 31			; 0000001fH
  00304	56		 push	 esi
  00305	e8 00 00 00 00	 call	 ?gObjGetActiveEffect@@YAHPAUOBJECTSTRUCT@@H@Z ; gObjGetActiveEffect
  0030a	83 c4 08	 add	 esp, 8

; 4469 : 				//int Ex_BerserkerPower = GetPrivateProfileInt("Summoner","BerserkerPower",50,"..\\Data\\ZtData\\Skills.ini");
; 4470 : 				//ebp28 = (float)(((lpObj->Energy + lpObj->AddEnergy) / 9) * BerserkerEffect / 100);
; 4471 : 				//ebp2C = (float)(((lpObj->Energy + lpObj->AddEnergy) / 4) * BerserkerEffect / 100);
; 4472 : 
; 4473 : 				ebp28 = (float)(((lpObj->Energy + lpObj->AddEnergy) / 9) * g_SkillAdditionInfo.BerserkerProcentDamageMax / 100);

  0030d	0f bf be 26 01
	00 00		 movsx	 edi, WORD PTR [esi+294]
  00314	0f b7 86 fa 00
	00 00		 movzx	 eax, WORD PTR [esi+250]
  0031b	03 f8		 add	 edi, eax
  0031d	0f b7 1d b8 0b
	00 00		 movzx	 ebx, WORD PTR ?g_SkillAdditionInfo@@3VCSkillAdditionInfo@@A+3000
  00324	b8 39 8e e3 38	 mov	 eax, 954437177		; 38e38e39H
  00329	f7 ef		 imul	 edi
  0032b	d1 fa		 sar	 edx, 1
  0032d	8b ca		 mov	 ecx, edx
  0032f	c1 e9 1f	 shr	 ecx, 31			; 0000001fH
  00332	03 ca		 add	 ecx, edx
  00334	0f af cb	 imul	 ecx, ebx
  00337	b8 1f 85 eb 51	 mov	 eax, 1374389535		; 51eb851fH
  0033c	f7 e9		 imul	 ecx
  0033e	c1 fa 05	 sar	 edx, 5
  00341	8b c2		 mov	 eax, edx
  00343	c1 e8 1f	 shr	 eax, 31			; 0000001fH
  00346	03 c2		 add	 eax, edx
  00348	89 45 d4	 mov	 DWORD PTR tv742[ebp], eax
  0034b	db 45 d4	 fild	 DWORD PTR tv742[ebp]
  0034e	d9 5d d8	 fstp	 DWORD PTR _ebp28$[ebp]

; 4474 : 				ebp2C = (float)(((lpObj->Energy + lpObj->AddEnergy) / 4) * g_SkillAdditionInfo.BerserkerProcentDamageMax / 100);

  00351	8b c7		 mov	 eax, edi
  00353	99		 cdq
  00354	83 e2 03	 and	 edx, 3
  00357	8d 0c 02	 lea	 ecx, DWORD PTR [edx+eax]
  0035a	c1 f9 02	 sar	 ecx, 2
  0035d	0f af cb	 imul	 ecx, ebx
  00360	b8 1f 85 eb 51	 mov	 eax, 1374389535		; 51eb851fH
  00365	f7 e9		 imul	 ecx
  00367	c1 fa 05	 sar	 edx, 5
  0036a	8b ca		 mov	 ecx, edx
  0036c	c1 e9 1f	 shr	 ecx, 31			; 0000001fH
  0036f	03 ca		 add	 ecx, edx
  00371	89 4d d4	 mov	 DWORD PTR tv730[ebp], ecx
  00374	db 45 d4	 fild	 DWORD PTR tv730[ebp]
  00377	d9 5d d4	 fstp	 DWORD PTR _ebp2C$[ebp]
$LN27@GetAttackD@2:

; 4475 : 			}
; 4476 : 
; 4477 : 			if( gObjSearchActiveEffect(lpObj, 150) == true
; 4478 : 				|| gObjSearchActiveEffect(lpObj, 151) == true
; 4479 : 				|| gObjSearchActiveEffect(lpObj, 152) == true )

  0037a	68 96 00 00 00	 push	 150			; 00000096H
  0037f	56		 push	 esi
  00380	e8 00 00 00 00	 call	 ?gObjSearchActiveEffect@@YAEPAUOBJECTSTRUCT@@H@Z ; gObjSearchActiveEffect
  00385	83 c4 08	 add	 esp, 8
  00388	3c 01		 cmp	 al, 1
  0038a	74 24		 je	 SHORT $LN25@GetAttackD@2
  0038c	68 97 00 00 00	 push	 151			; 00000097H
  00391	56		 push	 esi
  00392	e8 00 00 00 00	 call	 ?gObjSearchActiveEffect@@YAEPAUOBJECTSTRUCT@@H@Z ; gObjSearchActiveEffect
  00397	83 c4 08	 add	 esp, 8
  0039a	3c 01		 cmp	 al, 1
  0039c	74 12		 je	 SHORT $LN25@GetAttackD@2
  0039e	68 98 00 00 00	 push	 152			; 00000098H
  003a3	56		 push	 esi
  003a4	e8 00 00 00 00	 call	 ?gObjSearchActiveEffect@@YAEPAUOBJECTSTRUCT@@H@Z ; gObjSearchActiveEffect
  003a9	83 c4 08	 add	 esp, 8
  003ac	3c 01		 cmp	 al, 1
  003ae	75 78		 jne	 SHORT $LN26@GetAttackD@2
$LN25@GetAttackD@2:

; 4480 : 			{
; 4481 : 				float iValue = gObjGetActiveEffect(lpObj, 31);

  003b0	6a 1f		 push	 31			; 0000001fH
  003b2	56		 push	 esi
  003b3	e8 00 00 00 00	 call	 ?gObjGetActiveEffect@@YAHPAUOBJECTSTRUCT@@H@Z ; gObjGetActiveEffect
  003b8	83 c4 08	 add	 esp, 8

; 4482 : 				// ----
; 4483 : 				if( lpObj->m_MPSkillOpt.ukn_DC > 0.0f )
; 4484 : 				{
; 4485 : 					iValue += lpObj->m_MPSkillOpt.ukn_DC;
; 4486 : 				}
; 4487 : 				// ----
; 4488 : 
; 4489 : 				//LogAddC(2,"m_BerserkerProcentDamageMax:%d", g_SkillAdditionInfo.m_BerserkerProcentDamageMax);
; 4490 : 
; 4491 : 				ebp28 = (float)(((lpObj->Energy + lpObj->AddEnergy) / 9) * g_SkillAdditionInfo.m_BerserkerProcentDamageMax / 100);

  003bb	0f bf be 26 01
	00 00		 movsx	 edi, WORD PTR [esi+294]
  003c2	0f b7 86 fa 00
	00 00		 movzx	 eax, WORD PTR [esi+250]
  003c9	03 f8		 add	 edi, eax
  003cb	0f b7 1d c0 0c
	00 00		 movzx	 ebx, WORD PTR ?g_SkillAdditionInfo@@3VCSkillAdditionInfo@@A+3264
  003d2	b8 39 8e e3 38	 mov	 eax, 954437177		; 38e38e39H
  003d7	f7 ef		 imul	 edi
  003d9	d1 fa		 sar	 edx, 1
  003db	8b ca		 mov	 ecx, edx
  003dd	c1 e9 1f	 shr	 ecx, 31			; 0000001fH
  003e0	03 ca		 add	 ecx, edx
  003e2	0f af cb	 imul	 ecx, ebx
  003e5	b8 1f 85 eb 51	 mov	 eax, 1374389535		; 51eb851fH
  003ea	f7 e9		 imul	 ecx
  003ec	c1 fa 05	 sar	 edx, 5
  003ef	8b c2		 mov	 eax, edx
  003f1	c1 e8 1f	 shr	 eax, 31			; 0000001fH
  003f4	03 c2		 add	 eax, edx
  003f6	89 45 d4	 mov	 DWORD PTR tv718[ebp], eax
  003f9	db 45 d4	 fild	 DWORD PTR tv718[ebp]
  003fc	d9 5d d8	 fstp	 DWORD PTR _ebp28$[ebp]

; 4492 : 				ebp2C = (float)(((lpObj->Energy + lpObj->AddEnergy) / 4) * g_SkillAdditionInfo.m_BerserkerProcentDamageMax / 100);

  003ff	8b c7		 mov	 eax, edi
  00401	99		 cdq
  00402	83 e2 03	 and	 edx, 3
  00405	8d 0c 02	 lea	 ecx, DWORD PTR [edx+eax]
  00408	c1 f9 02	 sar	 ecx, 2
  0040b	0f af cb	 imul	 ecx, ebx
  0040e	b8 1f 85 eb 51	 mov	 eax, 1374389535		; 51eb851fH
  00413	f7 e9		 imul	 ecx
  00415	c1 fa 05	 sar	 edx, 5
  00418	8b ca		 mov	 ecx, edx
  0041a	c1 e9 1f	 shr	 ecx, 31			; 0000001fH
  0041d	03 ca		 add	 ecx, edx
  0041f	89 4d d4	 mov	 DWORD PTR tv708[ebp], ecx
  00422	db 45 d4	 fild	 DWORD PTR tv708[ebp]
  00425	d9 5d d4	 fstp	 DWORD PTR _ebp2C$[ebp]
$LN26@GetAttackD@2:

; 4493 : 			}
; 4494 : 
; 4495 : 			damagemin = (int)((float)(lpMagic->m_DamageMin + lpObj->m_MagicDamageMin) + ebp28);

  00428	8b 96 68 04 00
	00		 mov	 edx, DWORD PTR [esi+1128]
  0042e	8b 7d 10	 mov	 edi, DWORD PTR _lpMagic$[ebp]
  00431	03 57 0c	 add	 edx, DWORD PTR [edi+12]
  00434	89 55 e0	 mov	 DWORD PTR tv707[ebp], edx
  00437	db 45 e0	 fild	 DWORD PTR tv707[ebp]
  0043a	d8 45 d8	 fadd	 DWORD PTR _ebp28$[ebp]
  0043d	e8 00 00 00 00	 call	 __ftol2_sse
  00442	89 45 e0	 mov	 DWORD PTR _damagemin$[ebp], eax

; 4496 : 			damagemax = (int)((float)(lpMagic->m_DamageMax + lpObj->m_MagicDamageMax) + ebp2C);

  00445	8b 86 6c 04 00
	00		 mov	 eax, DWORD PTR [esi+1132]
  0044b	03 47 10	 add	 eax, DWORD PTR [edi+16]
  0044e	89 45 d8	 mov	 DWORD PTR tv632[ebp], eax
  00451	db 45 d8	 fild	 DWORD PTR tv632[ebp]
  00454	d8 45 d4	 fadd	 DWORD PTR _ebp2C$[ebp]
  00457	e8 00 00 00 00	 call	 __ftol2_sse
  0045c	8b d8		 mov	 ebx, eax
  0045e	89 5d e4	 mov	 DWORD PTR _damagemax$[ebp], ebx

; 4497 : 
; 4498 : 
; 4499 : 			if( g_MasterSkillSystem.CheckRequireStatus(lpMagic->m_Skill) )

  00461	8b 4f 08	 mov	 ecx, DWORD PTR [edi+8]
  00464	51		 push	 ecx
  00465	b9 00 00 00 00	 mov	 ecx, OFFSET ?g_MasterSkillSystem@@3VCMasterLevelSkillTreeSystem@@A ; g_MasterSkillSystem
  0046a	e8 00 00 00 00	 call	 ?CheckRequireStatus@CMasterLevelSkillTreeSystem@@QAEHH@Z ; CMasterLevelSkillTreeSystem::CheckRequireStatus
  0046f	85 c0		 test	 eax, eax
  00471	74 31		 je	 SHORT $LN23@GetAttackD@2

; 4500 : 			{
; 4501 : 				float fDamage = g_MasterSkillSystem.GetSkillAttackDamage(lpObj, lpMagic->m_Skill);

  00473	8b 57 08	 mov	 edx, DWORD PTR [edi+8]
  00476	52		 push	 edx
  00477	56		 push	 esi
  00478	b9 00 00 00 00	 mov	 ecx, OFFSET ?g_MasterSkillSystem@@3VCMasterLevelSkillTreeSystem@@A ; g_MasterSkillSystem
  0047d	e8 00 00 00 00	 call	 ?GetSkillAttackDamage@CMasterLevelSkillTreeSystem@@QAEMPAUOBJECTSTRUCT@@H@Z ; CMasterLevelSkillTreeSystem::GetSkillAttackDamage
  00482	d9 5d d4	 fstp	 DWORD PTR _fDamage$223562[ebp]

; 4502 : 				damagemin += fDamage;

  00485	db 45 e0	 fild	 DWORD PTR _damagemin$[ebp]
  00488	d9 45 d4	 fld	 DWORD PTR _fDamage$223562[ebp]
  0048b	dc c1		 fadd	 ST(1), ST(0)
  0048d	d9 c9		 fxch	 ST(1)
  0048f	e8 00 00 00 00	 call	 __ftol2_sse
  00494	89 45 e0	 mov	 DWORD PTR _damagemin$[ebp], eax

; 4503 : 				damagemax += fDamage;

  00497	da 45 e4	 fiadd	 DWORD PTR _damagemax$[ebp]
  0049a	e8 00 00 00 00	 call	 __ftol2_sse
  0049f	8b d8		 mov	 ebx, eax
  004a1	89 45 e4	 mov	 DWORD PTR _damagemax$[ebp], eax
$LN23@GetAttackD@2:

; 4504 : 			}
; 4505 : 			// ----
; 4506 : 			if( lpObj->m_MPSkillOpt.MpsMagicMastery2 > 0.0f )

  004a4	d9 ee		 fldz
  004a6	d8 96 cc 26 00
	00		 fcom	 DWORD PTR [esi+9932]
  004ac	df e0		 fnstsw	 ax
  004ae	f6 c4 05	 test	 ah, 5
  004b1	7a 21		 jp	 SHORT $LN22@GetAttackD@2

; 4507 : 			{
; 4508 : 				damagemin += lpObj->m_MPSkillOpt.MpsMagicMastery2;

  004b3	db 45 e0	 fild	 DWORD PTR _damagemin$[ebp]
  004b6	d8 86 cc 26 00
	00		 fadd	 DWORD PTR [esi+9932]
  004bc	e8 00 00 00 00	 call	 __ftol2_sse
  004c1	89 45 e0	 mov	 DWORD PTR _damagemin$[ebp], eax

; 4509 : 				damagemax += lpObj->m_MPSkillOpt.MpsMagicMastery2;

  004c4	db 45 e4	 fild	 DWORD PTR _damagemax$[ebp]
  004c7	d8 86 cc 26 00
	00		 fadd	 DWORD PTR [esi+9932]
  004cd	e8 00 00 00 00	 call	 __ftol2_sse
  004d2	8b d8		 mov	 ebx, eax
$LN22@GetAttackD@2:

; 4510 : 			}
; 4511 : 			// ----
; 4512 : 			if( lpObj->m_MPSkillOpt.MpsMinWizCurseInc > 0.0f )

  004d4	d8 9e 00 27 00
	00		 fcomp	 DWORD PTR [esi+9984]
  004da	df e0		 fnstsw	 ax
  004dc	f6 c4 05	 test	 ah, 5
  004df	7a 11		 jp	 SHORT $LN21@GetAttackD@2

; 4513 : 			{
; 4514 : 				damagemin += lpObj->m_MPSkillOpt.MpsMinWizCurseInc;

  004e1	db 45 e0	 fild	 DWORD PTR _damagemin$[ebp]
  004e4	d8 86 00 27 00
	00		 fadd	 DWORD PTR [esi+9984]
  004ea	e8 00 00 00 00	 call	 __ftol2_sse
  004ef	89 45 e0	 mov	 DWORD PTR _damagemin$[ebp], eax
$LN21@GetAttackD@2:

; 4515 : 			}
; 4516 : 
; 4517 : 
; 4518 : 			CItem * Right = &lpObj->pInventory[0];

  004f2	8b be 24 0e 00
	00		 mov	 edi, DWORD PTR [esi+3620]

; 4519 : 
; 4520 : 			if( Right->IsItem() )

  004f8	8b cf		 mov	 ecx, edi
  004fa	e8 00 00 00 00	 call	 ?IsItem@CItem@@QAEHXZ	; CItem::IsItem
  004ff	85 c0		 test	 eax, eax
  00501	0f 84 8c 00 00
	00		 je	 $LN18@GetAttackD@2

; 4521 : 			{
; 4522 : 				if ( Right->m_Type >= ITEMGET(5,0) && Right->m_Type < ITEMGET(6,0) )

  00507	0f b7 47 06	 movzx	 eax, WORD PTR [edi+6]
  0050b	b9 00 0a 00 00	 mov	 ecx, 2560		; 00000a00H
  00510	66 3b c1	 cmp	 ax, cx
  00513	7c 7e		 jl	 SHORT $LN18@GetAttackD@2
  00515	ba 00 0c 00 00	 mov	 edx, 3072		; 00000c00H
  0051a	66 3b c2	 cmp	 ax, dx
  0051d	7d 74		 jge	 SHORT $LN18@GetAttackD@2

; 4523 : 				{
; 4524 : 					if ( Right->m_IsValidItem  )

  0051f	80 bf b0 00 00
	00 00		 cmp	 BYTE PTR [edi+176], 0
  00526	74 6b		 je	 SHORT $LN18@GetAttackD@2

; 4525 : 					{
; 4526 : 						int damage = Right->m_Magic / 2 + Right->m_Level * 2;

  00528	0f b7 47 20	 movzx	 eax, WORD PTR [edi+32]
  0052c	d1 e8		 shr	 eax, 1
  0052e	0f bf 4f 08	 movsx	 ecx, WORD PTR [edi+8]
  00532	8d 0c 48	 lea	 ecx, DWORD PTR [eax+ecx*2]
  00535	89 4d d4	 mov	 DWORD PTR _damage$223569[ebp], ecx

; 4527 : 						damage -= (WORD)(Right->m_CurrentDurabilityState * damage);

  00538	d9 87 a8 00 00
	00		 fld	 DWORD PTR [edi+168]
  0053e	da 4d d4	 fimul	 DWORD PTR _damage$223569[ebp]
  00541	d9 7d e6	 fnstcw	 WORD PTR tv467[ebp]
  00544	0f b7 45 e6	 movzx	 eax, WORD PTR tv467[ebp]
  00548	0b c2		 or	 eax, edx
  0054a	89 45 d4	 mov	 DWORD PTR tv446[ebp], eax
  0054d	d9 6d d4	 fldcw	 WORD PTR tv446[ebp]
  00550	db 5d d4	 fistp	 DWORD PTR tv608[ebp]
  00553	d9 6d e6	 fldcw	 WORD PTR tv467[ebp]
  00556	66 8b 55 d4	 mov	 dx, WORD PTR tv608[ebp]
  0055a	0f b7 c2	 movzx	 eax, dx
  0055d	2b c8		 sub	 ecx, eax

; 4528 : 
; 4529 : 						damagemin += damagemin * damage / 100;

  0055f	8b d1		 mov	 edx, ecx
  00561	8b 7d e0	 mov	 edi, DWORD PTR _damagemin$[ebp]
  00564	0f af d7	 imul	 edx, edi
  00567	b8 1f 85 eb 51	 mov	 eax, 1374389535		; 51eb851fH
  0056c	f7 ea		 imul	 edx
  0056e	c1 fa 05	 sar	 edx, 5
  00571	8b c2		 mov	 eax, edx
  00573	c1 e8 1f	 shr	 eax, 31			; 0000001fH
  00576	03 c2		 add	 eax, edx
  00578	03 f8		 add	 edi, eax
  0057a	89 7d e0	 mov	 DWORD PTR _damagemin$[ebp], edi

; 4530 : 						damagemax += damagemax * damage / 100;

  0057d	0f af cb	 imul	 ecx, ebx
  00580	b8 1f 85 eb 51	 mov	 eax, 1374389535		; 51eb851fH
  00585	f7 e9		 imul	 ecx
  00587	c1 fa 05	 sar	 edx, 5
  0058a	8b ca		 mov	 ecx, edx
  0058c	c1 e9 1f	 shr	 ecx, 31			; 0000001fH
  0058f	03 ca		 add	 ecx, edx
  00591	03 d9		 add	 ebx, ecx
$LN18@GetAttackD@2:

; 4531 : 					}
; 4532 : 				}
; 4533 : 			}
; 4534 : 			
; 4535 : 			SkillAttack += gObjGetActiveEffect(lpObj, ADD_OPTION_WIZARDRY);

  00593	6a 0f		 push	 15			; 0000000fH
  00595	56		 push	 esi
  00596	e8 00 00 00 00	 call	 ?gObjGetActiveEffect@@YAHPAUOBJECTSTRUCT@@H@Z ; gObjGetActiveEffect
  0059b	8b 7d e0	 mov	 edi, DWORD PTR _damagemin$[ebp]
$LN64@GetAttackD@2:
  0059e	89 45 d4	 mov	 DWORD PTR _SkillAttack$[ebp], eax
  005a1	83 c4 08	 add	 esp, 8

; 4536 : 		}
; 4537 : 		break;
; 4538 : 	}
; 4539 : 
; 4540 : 	damagemin += lpObj->SetOpAddSkillAttack;

  005a4	0f bf 86 24 11
	00 00		 movsx	 eax, WORD PTR [esi+4388]
  005ab	03 f8		 add	 edi, eax

; 4541 : 	damagemax += lpObj->SetOpAddSkillAttack;

  005ad	03 d8		 add	 ebx, eax

; 4542 : 
; 4543 : 	int SkillAttr = MagicDamageC.GetSkillAttr(lpMagic->m_Skill);

  005af	8b 55 10	 mov	 edx, DWORD PTR _lpMagic$[ebp]
  005b2	8b 42 08	 mov	 eax, DWORD PTR [edx+8]
  005b5	50		 push	 eax
  005b6	b9 00 00 00 00	 mov	 ecx, OFFSET ?MagicDamageC@@3VCMagicDamage@@A ; MagicDamageC
  005bb	e8 00 00 00 00	 call	 ?GetSkillAttr@CMagicDamage@@QAEHH@Z ; CMagicDamage::GetSkillAttr

; 4544 : 
; 4545 : 	if ( SkillAttr != -1 )

  005c0	83 f8 ff	 cmp	 eax, -1
  005c3	74 40		 je	 SHORT $LN14@GetAttackD@2

; 4546 : 	{
; 4547 : 		if((lpObj->Authority&32) == 32 && (lpObj->pInventory[10].m_Type == ITEMGET(13,42) || lpObj->pInventory[11].m_Type == ITEMGET(13,42))) //season 2.5 add-on

  005c5	f6 86 0c 02 00
	00 20		 test	 BYTE PTR [esi+524], 32	; 00000020H
  005cc	74 2b		 je	 SHORT $LN16@GetAttackD@2
  005ce	8b 8e 24 0e 00
	00		 mov	 ecx, DWORD PTR [esi+3620]
  005d4	ba 2a 1a 00 00	 mov	 edx, 6698		; 00001a2aH
  005d9	66 39 91 4e 08
	00 00		 cmp	 WORD PTR [ecx+2126], dx
  005e0	74 09		 je	 SHORT $LN15@GetAttackD@2
  005e2	66 39 91 22 09
	00 00		 cmp	 WORD PTR [ecx+2338], dx
  005e9	75 0e		 jne	 SHORT $LN16@GetAttackD@2
$LN15@GetAttackD@2:

; 4548 : 		{
; 4549 : 			damagemin += (BYTE)255;

  005eb	81 c7 ff 00 00
	00		 add	 edi, 255		; 000000ffH

; 4550 : 			damagemax += (BYTE)255;

  005f1	81 c3 ff 00 00
	00		 add	 ebx, 255		; 000000ffH

; 4551 : 		}
; 4552 : 		else

  005f7	eb 0c		 jmp	 SHORT $LN14@GetAttackD@2
$LN16@GetAttackD@2:

; 4553 : 		{
; 4554 : 			damagemin += (BYTE)lpObj->m_AddResistance[SkillAttr];

  005f9	0f b6 84 30 ff
	04 00 00	 movzx	 eax, BYTE PTR [eax+esi+1279]
  00601	03 f8		 add	 edi, eax

; 4555 : 			damagemax += (BYTE)lpObj->m_AddResistance[SkillAttr];

  00603	03 d8		 add	 ebx, eax
$LN14@GetAttackD@2:

; 4556 : 		}
; 4557 : 	}
; 4558 : 
; 4559 : 	damagemin += lpObj->m_JewelOfHarmonyEffect.HJOpAddSkillAttack;

  00605	0f bf 86 e4 1f
	00 00		 movsx	 eax, WORD PTR [esi+8164]
  0060c	03 f8		 add	 edi, eax
  0060e	89 7d e0	 mov	 DWORD PTR _damagemin$[ebp], edi

; 4560 : 	damagemax += lpObj->m_JewelOfHarmonyEffect.HJOpAddSkillAttack;

  00611	03 d8		 add	 ebx, eax

; 4561 : 
; 4562 : 	int subd = damagemax - damagemin;

  00613	8b c3		 mov	 eax, ebx
  00615	2b c7		 sub	 eax, edi
  00617	89 45 d0	 mov	 DWORD PTR _subd$[ebp], eax

; 4563 : 
; 4564 : 	__try

  0061a	9b		 fwait
  0061b	c7 45 fc 00 00
	00 00		 mov	 DWORD PTR __$SEHRec$[ebp+20], 0

; 4567 : 		{
; 4568 : 			ad = ( damagemin + (rand()%(subd+1)) ) * 60 / 100 - targetDefense;	// #formula

  00622	e8 00 00 00 00	 call	 _rand
  00627	8b 4d d0	 mov	 ecx, DWORD PTR _subd$[ebp]
  0062a	99		 cdq
  0062b	41		 inc	 ecx
  0062c	f7 f9		 idiv	 ecx

; 4565 : 	{
; 4566 : 		if ( bIsOnDuel )

  0062e	83 7d 18 00	 cmp	 DWORD PTR _bIsOnDuel$[ebp], 0
  00632	74 23		 je	 SHORT $LN12@GetAttackD@2

; 4567 : 		{
; 4568 : 			ad = ( damagemin + (rand()%(subd+1)) ) * 60 / 100 - targetDefense;	// #formula

  00634	03 d7		 add	 edx, edi
  00636	8b ca		 mov	 ecx, edx
  00638	c1 e1 04	 shl	 ecx, 4
  0063b	2b ca		 sub	 ecx, edx
  0063d	03 c9		 add	 ecx, ecx
  0063f	03 c9		 add	 ecx, ecx
  00641	b8 1f 85 eb 51	 mov	 eax, 1374389535		; 51eb851fH
  00646	f7 e9		 imul	 ecx
  00648	c1 fa 05	 sar	 edx, 5
  0064b	8b fa		 mov	 edi, edx
  0064d	c1 ef 1f	 shr	 edi, 31			; 0000001fH
  00650	03 fa		 add	 edi, edx
  00652	2b 7d 0c	 sub	 edi, DWORD PTR _targetDefense$[ebp]

; 4569 : 		}
; 4570 : 		else

  00655	eb 08		 jmp	 SHORT $LN65@GetAttackD@2
$LN12@GetAttackD@2:

; 4571 : 		{
; 4572 : 			ad = ( damagemin + (rand()%(subd+1)) ) - targetDefense;

  00657	8b fa		 mov	 edi, edx
  00659	2b 7d 0c	 sub	 edi, DWORD PTR _targetDefense$[ebp]
  0065c	03 7d e0	 add	 edi, DWORD PTR _damagemin$[ebp]
$LN65@GetAttackD@2:
  0065f	89 7d dc	 mov	 DWORD PTR _ad$[ebp], edi

; 4573 : 		}
; 4574 : 
; 4575 : 		if ( lpObj->m_CriticalDamage > 0 )

  00662	83 be bc 04 00
	00 00		 cmp	 DWORD PTR [esi+1212], 0
  00669	7e 7d		 jle	 SHORT $LN9@GetAttackD@2

; 4576 : 		{
; 4577 : 			if ( (rand()%100) < lpObj->m_CriticalDamage )

  0066b	e8 00 00 00 00	 call	 _rand
  00670	99		 cdq
  00671	b9 64 00 00 00	 mov	 ecx, 100		; 00000064H
  00676	f7 f9		 idiv	 ecx
  00678	3b 96 bc 04 00
	00		 cmp	 edx, DWORD PTR [esi+1212]
  0067e	7d 68		 jge	 SHORT $LN9@GetAttackD@2

; 4578 : 			{
; 4579 : 				if ( bIsOnDuel )

  00680	83 7d 18 00	 cmp	 DWORD PTR _bIsOnDuel$[ebp], 0
  00684	74 1e		 je	 SHORT $LN8@GetAttackD@2

; 4580 : 				{
; 4581 : 					ad = damagemax * 60 / 100 - targetDefense;

  00686	8b cb		 mov	 ecx, ebx
  00688	c1 e1 04	 shl	 ecx, 4
  0068b	2b cb		 sub	 ecx, ebx
  0068d	03 c9		 add	 ecx, ecx
  0068f	03 c9		 add	 ecx, ecx
  00691	b8 1f 85 eb 51	 mov	 eax, 1374389535		; 51eb851fH
  00696	f7 e9		 imul	 ecx
  00698	c1 fa 05	 sar	 edx, 5
  0069b	8b fa		 mov	 edi, edx
  0069d	c1 ef 1f	 shr	 edi, 31			; 0000001fH
  006a0	03 fa		 add	 edi, edx

; 4582 : 				}
; 4583 : 				else

  006a2	eb 02		 jmp	 SHORT $LN66@GetAttackD@2
$LN8@GetAttackD@2:

; 4584 : 				{
; 4585 : 					ad = damagemax - targetDefense;

  006a4	8b fb		 mov	 edi, ebx
$LN66@GetAttackD@2:
  006a6	2b 7d 0c	 sub	 edi, DWORD PTR _targetDefense$[ebp]
  006a9	89 7d dc	 mov	 DWORD PTR _ad$[ebp], edi

; 4586 : 				}
; 4587 : 
; 4588 : 				ad += lpObj->SetOpAddCriticalDamage;

  006ac	0f bf 8e 2a 11
	00 00		 movsx	 ecx, WORD PTR [esi+4394]
  006b3	03 f9		 add	 edi, ecx
  006b5	89 7d dc	 mov	 DWORD PTR _ad$[ebp], edi

; 4589 : 				ad += lpObj->m_JewelOfHarmonyEffect.HJOpAddCriticalDamage;

  006b8	0f bf 96 e2 1f
	00 00		 movsx	 edx, WORD PTR [esi+8162]
  006bf	03 fa		 add	 edi, edx
  006c1	89 7d dc	 mov	 DWORD PTR _ad$[ebp], edi

; 4590 : 
; 4591 : 				int SkillAddCriticalDamage = 0;

  006c4	c7 45 10 00 00
	00 00		 mov	 DWORD PTR _SkillAddCriticalDamage$223588[ebp], 0

; 4592 : 				gObjUpdateAppliedBuffEffect(lpObj, AT_INCREASE_CRITICAL_DMG, &SkillAddCriticalDamage, 0);

  006cb	6a 00		 push	 0
  006cd	8d 45 10	 lea	 eax, DWORD PTR _SkillAddCriticalDamage$223588[ebp]
  006d0	50		 push	 eax
  006d1	6a 05		 push	 5
  006d3	56		 push	 esi
  006d4	e8 00 00 00 00	 call	 ?gObjUpdateAppliedBuffEffect@@YAEPAUOBJECTSTRUCT@@HPAH1@Z ; gObjUpdateAppliedBuffEffect
  006d9	83 c4 10	 add	 esp, 16			; 00000010H

; 4593 : 				ad += SkillAddCriticalDamage;

  006dc	03 7d 10	 add	 edi, DWORD PTR _SkillAddCriticalDamage$223588[ebp]
  006df	89 7d dc	 mov	 DWORD PTR _ad$[ebp], edi

; 4594 : 
; 4595 : 				effect = 3;

  006e2	8b 4d 14	 mov	 ecx, DWORD PTR _effect$[ebp]
  006e5	c6 01 03	 mov	 BYTE PTR [ecx], 3
$LN9@GetAttackD@2:

; 4596 : 			}
; 4597 : 		}
; 4598 : 
; 4599 : 		if ( lpObj->m_ExcelentDamage > 0 )

  006e8	83 be c0 04 00
	00 00		 cmp	 DWORD PTR [esi+1216], 0
  006ef	7e 70		 jle	 SHORT $LN5@GetAttackD@2

; 4600 : 		{
; 4601 : 			if ( (rand()%100) < lpObj->m_ExcelentDamage )

  006f1	e8 00 00 00 00	 call	 _rand
  006f6	99		 cdq
  006f7	b9 64 00 00 00	 mov	 ecx, 100		; 00000064H
  006fc	f7 f9		 idiv	 ecx
  006fe	3b 96 c0 04 00
	00		 cmp	 edx, DWORD PTR [esi+1216]
  00704	7d 5b		 jge	 SHORT $LN5@GetAttackD@2

; 4602 : 			{
; 4603 : 				if ( bIsOnDuel )

  00706	83 7d 18 00	 cmp	 DWORD PTR _bIsOnDuel$[ebp], 0
  0070a	74 1e		 je	 SHORT $LN4@GetAttackD@2

; 4604 : 				{
; 4605 : 					ad = damagemax * 60 / 100 - targetDefense;

  0070c	8b cb		 mov	 ecx, ebx
  0070e	c1 e1 04	 shl	 ecx, 4
  00711	2b cb		 sub	 ecx, ebx
  00713	03 c9		 add	 ecx, ecx
  00715	03 c9		 add	 ecx, ecx
  00717	b8 1f 85 eb 51	 mov	 eax, 1374389535		; 51eb851fH
  0071c	f7 e9		 imul	 ecx
  0071e	c1 fa 05	 sar	 edx, 5
  00721	8b fa		 mov	 edi, edx
  00723	c1 ef 1f	 shr	 edi, 31			; 0000001fH
  00726	03 fa		 add	 edi, edx

; 4606 : 				}
; 4607 : 				else

  00728	eb 02		 jmp	 SHORT $LN67@GetAttackD@2
$LN4@GetAttackD@2:

; 4608 : 				{
; 4609 : 					ad = damagemax - targetDefense;

  0072a	8b fb		 mov	 edi, ebx
$LN67@GetAttackD@2:
  0072c	2b 7d 0c	 sub	 edi, DWORD PTR _targetDefense$[ebp]
  0072f	89 7d dc	 mov	 DWORD PTR _ad$[ebp], edi

; 4610 : 				}
; 4611 : 
; 4612 : 				ad += damagemax * 20 / 100;

  00732	8d 1c 9b	 lea	 ebx, DWORD PTR [ebx+ebx*4]
  00735	03 db		 add	 ebx, ebx
  00737	03 db		 add	 ebx, ebx
  00739	b8 1f 85 eb 51	 mov	 eax, 1374389535		; 51eb851fH
  0073e	f7 eb		 imul	 ebx
  00740	c1 fa 05	 sar	 edx, 5
  00743	8b ca		 mov	 ecx, edx
  00745	c1 e9 1f	 shr	 ecx, 31			; 0000001fH
  00748	03 ca		 add	 ecx, edx
  0074a	03 f9		 add	 edi, ecx
  0074c	89 7d dc	 mov	 DWORD PTR _ad$[ebp], edi

; 4613 : 				ad += lpObj->SetOpAddExDamage;

  0074f	0f bf 96 26 11
	00 00		 movsx	 edx, WORD PTR [esi+4390]
  00756	03 fa		 add	 edi, edx
  00758	89 7d dc	 mov	 DWORD PTR _ad$[ebp], edi

; 4614 : 				effect = 2;

  0075b	8b 45 14	 mov	 eax, DWORD PTR _effect$[ebp]
  0075e	c6 00 02	 mov	 BYTE PTR [eax], 2
$LN5@GetAttackD@2:

; 4615 : 			}
; 4616 : 		}
; 4617 : 	}

  00761	9b		 fwait
  00762	c7 45 fc fe ff
	ff ff		 mov	 DWORD PTR __$SEHRec$[ebp+20], -2 ; fffffffeH
  00769	eb 19		 jmp	 SHORT $LN49@GetAttackD@2
$LN46@GetAttackD@2:
$LN68@GetAttackD@2:

; 4618 : 	__except ( subd=1, 1 )

  0076b	b8 01 00 00 00	 mov	 eax, 1
  00770	89 45 d0	 mov	 DWORD PTR _subd$[ebp], eax
$LN63@GetAttackD@2:
$LN48@GetAttackD@2:
  00773	c3		 ret	 0
$LN47@GetAttackD@2:
  00774	8b 65 e8	 mov	 esp, DWORD PTR __$SEHRec$[ebp]

; 4619 : 	{
; 4620 : 
; 4621 : 	}

  00777	c7 45 fc fe ff
	ff ff		 mov	 DWORD PTR __$SEHRec$[ebp+20], -2 ; fffffffeH
  0077e	8b 75 08	 mov	 esi, DWORD PTR _lpObj$[ebp]
  00781	8b 7d dc	 mov	 edi, DWORD PTR _ad$[ebp]
$LN49@GetAttackD@2:

; 4622 : 
; 4623 : 	SkillAttack += gObjGetActiveEffect(lpObj, ADD_OPTION_ATTACK_DAMAGE);

  00784	6a 02		 push	 2
  00786	56		 push	 esi
  00787	e8 00 00 00 00	 call	 ?gObjGetActiveEffect@@YAHPAUOBJECTSTRUCT@@H@Z ; gObjGetActiveEffect
  0078c	83 c4 08	 add	 esp, 8

; 4624 : 
; 4625 : 	ad += SkillAttack;

  0078f	03 45 d4	 add	 eax, DWORD PTR _SkillAttack$[ebp]
  00792	03 f8		 add	 edi, eax
  00794	89 7d dc	 mov	 DWORD PTR _ad$[ebp], edi

; 4626 : 
; 4627 : 	if ( lpObj->m_SkillAttack )

  00797	83 be 24 04 00
	00 00		 cmp	 DWORD PTR [esi+1060], 0
  0079e	74 06		 je	 SHORT $LN2@GetAttackD@2

; 4628 : 	{
; 4629 : 		ad += 10;

  007a0	83 c7 0a	 add	 edi, 10			; 0000000aH
  007a3	89 7d dc	 mov	 DWORD PTR _ad$[ebp], edi
$LN2@GetAttackD@2:

; 4630 : 	}
; 4631 : 
; 4632 : 	if( lpObj->m_MPSkillOpt.ukn_DC > 0.0f )

  007a6	d9 ee		 fldz
  007a8	d8 9e fc 26 00
	00		 fcomp	 DWORD PTR [esi+9980]
  007ae	df e0		 fnstsw	 ax
  007b0	f6 c4 05	 test	 ah, 5
  007b3	7a 1a		 jp	 SHORT $LN1@GetAttackD@2

; 4633 : 	{
; 4634 : 		ad += (double)ad * lpObj->m_MPSkillOpt.ukn_DC / 100.0f;

  007b5	db 45 dc	 fild	 DWORD PTR _ad$[ebp]
  007b8	d9 86 fc 26 00
	00		 fld	 DWORD PTR [esi+9980]
  007be	d8 c9		 fmul	 ST(0), ST(1)
  007c0	dc 35 00 00 00
	00		 fdiv	 QWORD PTR __real@4059000000000000
  007c6	de c1		 faddp	 ST(1), ST(0)
  007c8	e8 00 00 00 00	 call	 __ftol2_sse
  007cd	8b f8		 mov	 edi, eax
$LN1@GetAttackD@2:

; 4635 : 	}
; 4636 : 
; 4637 : 	return ad;

  007cf	8b c7		 mov	 eax, edi

; 4638 : }

  007d1	8b 4d f0	 mov	 ecx, DWORD PTR __$SEHRec$[ebp+8]
  007d4	64 89 0d 00 00
	00 00		 mov	 DWORD PTR fs:0, ecx
  007db	59		 pop	 ecx
  007dc	5f		 pop	 edi
  007dd	5e		 pop	 esi
  007de	5b		 pop	 ebx
  007df	8b e5		 mov	 esp, ebp
  007e1	5d		 pop	 ebp
  007e2	c2 14 00	 ret	 20			; 00000014H
?GetAttackDamageSummoner@CObjAttack@@QAEHPAUOBJECTSTRUCT@@HPAVCMagicInf@@AAEH@Z ENDP ; CObjAttack::GetAttackDamageSummoner
_TEXT	ENDS
PUBLIC	?GetBerserkerSkillAttackDamage@CObjAttack@@QAEEPAUOBJECTSTRUCT@@AAH1@Z ; CObjAttack::GetBerserkerSkillAttackDamage
; Function compile flags: /Ogtp
;	COMDAT ?GetBerserkerSkillAttackDamage@CObjAttack@@QAEEPAUOBJECTSTRUCT@@AAH1@Z
_TEXT	SEGMENT
_iBerserkerValue$ = 8					; size = 4
_lpObj$ = 8						; size = 4
_Value1$ = 12						; size = 4
_Value2$ = 16						; size = 4
?GetBerserkerSkillAttackDamage@CObjAttack@@QAEEPAUOBJECTSTRUCT@@AAH1@Z PROC ; CObjAttack::GetBerserkerSkillAttackDamage, COMDAT
; _this$ = ecx

; 4642 : {

  00000	55		 push	 ebp
  00001	8b ec		 mov	 ebp, esp

; 4643 : 	Value1 = (lpObj->Strength + lpObj->AddStrength + lpObj->Dexterity + lpObj->AddDexterity) / 7;

  00003	53		 push	 ebx
  00004	56		 push	 esi

; 4644 : 	Value2 = (lpObj->Strength + lpObj->AddStrength + lpObj->Dexterity + lpObj->AddDexterity) / 4;

  00005	57		 push	 edi

; 4643 : 	Value1 = (lpObj->Strength + lpObj->AddStrength + lpObj->Dexterity + lpObj->AddDexterity) / 7;

  00006	8b 4d 08	 mov	 ecx, DWORD PTR _lpObj$[ebp]
  00009	0f b7 81 f6 00
	00 00		 movzx	 eax, WORD PTR [ecx+246]
  00010	0f bf 91 22 01
	00 00		 movsx	 edx, WORD PTR [ecx+290]
  00017	0f b7 b1 f4 00
	00 00		 movzx	 esi, WORD PTR [ecx+244]
  0001e	03 f0		 add	 esi, eax
  00020	0f bf 81 20 01
	00 00		 movsx	 eax, WORD PTR [ecx+288]
  00027	03 f2		 add	 esi, edx
  00029	03 f0		 add	 esi, eax
  0002b	b8 93 24 49 92	 mov	 eax, -1840700269	; 92492493H
  00030	f7 ee		 imul	 esi
  00032	03 d6		 add	 edx, esi
  00034	8b 75 0c	 mov	 esi, DWORD PTR _Value1$[ebp]
  00037	c1 fa 02	 sar	 edx, 2
  0003a	8b c2		 mov	 eax, edx
  0003c	c1 e8 1f	 shr	 eax, 31			; 0000001fH
  0003f	03 c2		 add	 eax, edx
  00041	89 06		 mov	 DWORD PTR [esi], eax

; 4644 : 	Value2 = (lpObj->Strength + lpObj->AddStrength + lpObj->Dexterity + lpObj->AddDexterity) / 4;

  00043	0f b7 91 f6 00
	00 00		 movzx	 edx, WORD PTR [ecx+246]
  0004a	0f b7 81 f4 00
	00 00		 movzx	 eax, WORD PTR [ecx+244]
  00051	03 c2		 add	 eax, edx
  00053	0f bf 91 22 01
	00 00		 movsx	 edx, WORD PTR [ecx+290]
  0005a	03 c2		 add	 eax, edx
  0005c	0f bf 91 20 01
	00 00		 movsx	 edx, WORD PTR [ecx+288]
  00063	03 c2		 add	 eax, edx
  00065	99		 cdq
  00066	8b 7d 10	 mov	 edi, DWORD PTR _Value2$[ebp]
  00069	83 e2 03	 and	 edx, 3
  0006c	03 c2		 add	 eax, edx
  0006e	c1 f8 02	 sar	 eax, 2
  00071	89 07		 mov	 DWORD PTR [edi], eax

; 4645 : 
; 4646 : 	int iBerserkerValue = 0;
; 4647 : 
; 4648 : 	gObjUpdateAppliedBuffEffect(lpObj, AT_BERSERKER, &iBerserkerValue, 0);

  00073	6a 00		 push	 0
  00075	8d 45 08	 lea	 eax, DWORD PTR _iBerserkerValue$[ebp]
  00078	50		 push	 eax
  00079	6a 51		 push	 81			; 00000051H
  0007b	51		 push	 ecx
  0007c	c7 45 08 00 00
	00 00		 mov	 DWORD PTR _iBerserkerValue$[ebp], 0
  00083	e8 00 00 00 00	 call	 ?gObjUpdateAppliedBuffEffect@@YAEPAUOBJECTSTRUCT@@HPAH1@Z ; gObjUpdateAppliedBuffEffect

; 4649 : 
; 4650 : 	Value1 = Value1 * iBerserkerValue / 100;

  00088	8b 0e		 mov	 ecx, DWORD PTR [esi]
  0008a	8b 5d 08	 mov	 ebx, DWORD PTR _iBerserkerValue$[ebp]
  0008d	0f af cb	 imul	 ecx, ebx
  00090	b8 1f 85 eb 51	 mov	 eax, 1374389535		; 51eb851fH
  00095	f7 e9		 imul	 ecx
  00097	c1 fa 05	 sar	 edx, 5
  0009a	8b ca		 mov	 ecx, edx
  0009c	c1 e9 1f	 shr	 ecx, 31			; 0000001fH
  0009f	03 ca		 add	 ecx, edx
  000a1	89 0e		 mov	 DWORD PTR [esi], ecx

; 4651 : 	Value2 = Value2 * iBerserkerValue / 100;

  000a3	8b 0f		 mov	 ecx, DWORD PTR [edi]
  000a5	0f af cb	 imul	 ecx, ebx
  000a8	b8 1f 85 eb 51	 mov	 eax, 1374389535		; 51eb851fH
  000ad	f7 e9		 imul	 ecx
  000af	c1 fa 05	 sar	 edx, 5
  000b2	83 c4 10	 add	 esp, 16			; 00000010H
  000b5	8b c2		 mov	 eax, edx
  000b7	c1 e8 1f	 shr	 eax, 31			; 0000001fH
  000ba	03 c2		 add	 eax, edx
  000bc	89 07		 mov	 DWORD PTR [edi], eax
  000be	5f		 pop	 edi
  000bf	5e		 pop	 esi

; 4652 : 
; 4653 : 	return 1;

  000c0	b0 01		 mov	 al, 1
  000c2	5b		 pop	 ebx

; 4654 : }

  000c3	5d		 pop	 ebp
  000c4	c2 0c 00	 ret	 12			; 0000000cH
?GetBerserkerSkillAttackDamage@CObjAttack@@QAEEPAUOBJECTSTRUCT@@AAH1@Z ENDP ; CObjAttack::GetBerserkerSkillAttackDamage
_TEXT	ENDS
EXTRN	??3@YAXPAX@Z:PROC				; operator delete
; Function compile flags: /Ogtp
;	COMDAT ??_GCObjAttack@@UAEPAXI@Z
_TEXT	SEGMENT
___flags$ = 8						; size = 4
??_GCObjAttack@@UAEPAXI@Z PROC				; CObjAttack::`scalar deleting destructor', COMDAT
; _this$ = ecx
  00000	55		 push	 ebp
  00001	8b ec		 mov	 ebp, esp
  00003	56		 push	 esi
  00004	8b f1		 mov	 esi, ecx
  00006	e8 00 00 00 00	 call	 ??1CObjAttack@@UAE@XZ	; CObjAttack::~CObjAttack
  0000b	f6 45 08 01	 test	 BYTE PTR ___flags$[ebp], 1
  0000f	74 09		 je	 SHORT $LN4@scalar
  00011	56		 push	 esi
  00012	e8 00 00 00 00	 call	 ??3@YAXPAX@Z		; operator delete
  00017	83 c4 04	 add	 esp, 4
$LN4@scalar:
  0001a	8b c6		 mov	 eax, esi
  0001c	5e		 pop	 esi
  0001d	5d		 pop	 ebp
  0001e	c2 04 00	 ret	 4
??_GCObjAttack@@UAEPAXI@Z ENDP				; CObjAttack::`scalar deleting destructor'
_TEXT	ENDS
PUBLIC	__real@3fe0000000000000
PUBLIC	__real@0000000000000000
PUBLIC	?GetAttackDamage@CObjAttack@@QAEHPAUOBJECTSTRUCT@@HAAEHPAVCMagicInf@@@Z ; CObjAttack::GetAttackDamage
EXTRN	?GetDetailItemType@CItem@@QAEHXZ:PROC		; CItem::GetDetailItemType
EXTRN	?GetBaseMasterLevelSkill@CMasterLevelSkillTreeSystem@@QAEHH@Z:PROC ; CMasterLevelSkillTreeSystem::GetBaseMasterLevelSkill
EXTRN	?GetPartyMemberCount@CObjBaseAttack@@QAEHPAUOBJECTSTRUCT@@@Z:PROC ; CObjBaseAttack::GetPartyMemberCount
EXTRN	?DefMagicInf@@3PAVCMagicInf@@A:BYTE		; DefMagicInf
;	COMDAT __real@3fe0000000000000
CONST	SEGMENT
__real@3fe0000000000000 DQ 03fe0000000000000r	; 0.5
CONST	ENDS
;	COMDAT __real@0000000000000000
CONST	SEGMENT
__real@0000000000000000 DQ 00000000000000000r	; 0
CONST	ENDS
;	COMDAT xdata$x
xdata$x	SEGMENT
__sehtable$?GetAttackDamage@CObjAttack@@QAEHPAUOBJECTSTRUCT@@HAAEHPAVCMagicInf@@@Z DD 0fffffffeH
	DD	00H
	DD	0ffffffa8H
	DD	00H
	DD	0fffffffeH
	DD	FLAT:$LN109@GetAttackD@3
	DD	FLAT:$LN110@GetAttackD@3
	DD	0fffffffeH
	DD	FLAT:$LN113@GetAttackD@3
	DD	FLAT:$LN114@GetAttackD@3
; Function compile flags: /Ogtp
xdata$x	ENDS
;	COMDAT ?GetAttackDamage@CObjAttack@@QAEHPAUOBJECTSTRUCT@@HAAEHPAVCMagicInf@@@Z
_TEXT	SEGMENT
_Right$ = -72						; size = 4
_SkillWeakness$ = -68					; size = 4
_SkillAddCriticalDamage$223310 = -64			; size = 4
_this$ = -64						; size = 4
_cDamage$223263 = -60					; size = 4
_bTwoHandWeapon$ = -56					; size = 4
_Left$ = -52						; size = 4
tv1506 = -48						; size = 4
tv1055 = -48						; size = 4
tv1053 = -48						; size = 4
_iValue2$223305 = -48					; size = 4
_sub$ = -44						; size = 4
tv1057 = -40						; size = 4
_SkillRightMaxDamage$ = -40				; size = 4
_SkillLeftMaxDamage$ = -36				; size = 4
_SkillRightMinDamage$ = -32				; size = 4
_SkillLeftMinDamage$ = -28				; size = 4
__$SEHRec$ = -24					; size = 24
_lpObj$ = 8						; size = 4
tv1075 = 12						; size = 4
_ad$ = 12						; size = 4
_targetDefense$ = 12					; size = 4
_effect$ = 16						; size = 4
_nAddAttackDamageRight$ = 20				; size = 4
_bIsOnDuel$ = 20					; size = 4
_nAddAttackDamageLeft$ = 24				; size = 4
_iValue1$223304 = 24					; size = 4
_lpMagic$ = 24						; size = 4
?GetAttackDamage@CObjAttack@@QAEHPAUOBJECTSTRUCT@@HAAEHPAVCMagicInf@@@Z PROC ; CObjAttack::GetAttackDamage, COMDAT
; _this$ = ecx

; 3514 : {

  00000	55		 push	 ebp
  00001	8b ec		 mov	 ebp, esp
  00003	6a fe		 push	 -2			; fffffffeH
  00005	68 00 00 00 00	 push	 OFFSET __sehtable$?GetAttackDamage@CObjAttack@@QAEHPAUOBJECTSTRUCT@@HAAEHPAVCMagicInf@@@Z
  0000a	68 00 00 00 00	 push	 OFFSET __except_handler4
  0000f	64 a1 00 00 00
	00		 mov	 eax, DWORD PTR fs:0
  00015	50		 push	 eax
  00016	83 ec 38	 sub	 esp, 56			; 00000038H
  00019	53		 push	 ebx
  0001a	56		 push	 esi
  0001b	57		 push	 edi
  0001c	a1 00 00 00 00	 mov	 eax, DWORD PTR ___security_cookie
  00021	31 45 f8	 xor	 DWORD PTR __$SEHRec$[ebp+16], eax
  00024	33 c5		 xor	 eax, ebp
  00026	50		 push	 eax
  00027	8d 45 f0	 lea	 eax, DWORD PTR __$SEHRec$[ebp+8]
  0002a	64 a3 00 00 00
	00		 mov	 DWORD PTR fs:0, eax
  00030	89 65 e8	 mov	 DWORD PTR __$SEHRec$[ebp], esp
  00033	89 4d c0	 mov	 DWORD PTR _this$[ebp], ecx

; 3515 : 	if ( g_ShieldSystemOn == TRUE )

  00036	ba 01 00 00 00	 mov	 edx, 1
  0003b	39 15 00 00 00
	00		 cmp	 DWORD PTR ?g_ShieldSystemOn@@3HA, edx ; g_ShieldSystemOn
  00041	75 0c		 jne	 SHORT $LN104@GetAttackD@3

; 3516 : 	{
; 3517 : 		if ( bIsOnDuel == TRUE )

  00043	39 55 14	 cmp	 DWORD PTR _bIsOnDuel$[ebp], edx
  00046	75 07		 jne	 SHORT $LN104@GetAttackD@3

; 3518 : 		{
; 3519 : 			bIsOnDuel = FALSE;

  00048	c7 45 14 00 00
	00 00		 mov	 DWORD PTR _bIsOnDuel$[ebp], 0
$LN104@GetAttackD@3:

; 3520 : 		}
; 3521 : 	}
; 3522 : 
; 3523 : 	int ad;
; 3524 : 	int sub;
; 3525 : 	int SkillRightMaxDamage =0;

  0004f	33 ff		 xor	 edi, edi
  00051	33 db		 xor	 ebx, ebx
  00053	89 5d d8	 mov	 DWORD PTR _SkillRightMaxDamage$[ebp], ebx

; 3526 : 	int SkillRightMinDamage =0;

  00056	89 7d e0	 mov	 DWORD PTR _SkillRightMinDamage$[ebp], edi

; 3527 : 	int SkillLeftMaxDamage =0;

  00059	89 7d dc	 mov	 DWORD PTR _SkillLeftMaxDamage$[ebp], edi

; 3528 : 	int SkillLeftMinDamage =0;

  0005c	89 7d e4	 mov	 DWORD PTR _SkillLeftMinDamage$[ebp], edi

; 3529 : 	CItem * Right = &lpObj->pInventory[0];

  0005f	8b 75 08	 mov	 esi, DWORD PTR _lpObj$[ebp]
  00062	8b 86 24 0e 00
	00		 mov	 eax, DWORD PTR [esi+3620]
  00068	8b c8		 mov	 ecx, eax
  0006a	89 4d b8	 mov	 DWORD PTR _Right$[ebp], ecx

; 3530 : 	CItem * Left = &lpObj->pInventory[1];

  0006d	05 d4 00 00 00	 add	 eax, 212		; 000000d4H
  00072	89 45 cc	 mov	 DWORD PTR _Left$[ebp], eax

; 3531 : 	BOOL bTwoHandWeapon = FALSE;

  00075	89 5d c8	 mov	 DWORD PTR _bTwoHandWeapon$[ebp], ebx

; 3532 : 
; 3533 : 	if ( lpObj->Type == OBJ_MONSTER || lpObj->Type == OBJ_NPC )

  00078	0f b7 46 68	 movzx	 eax, WORD PTR [esi+104]
  0007c	83 f8 02	 cmp	 eax, 2
  0007f	0f 84 2f 05 00
	00		 je	 $LN102@GetAttackD@3
  00085	83 f8 03	 cmp	 eax, 3
  00088	0f 84 26 05 00
	00		 je	 $LN102@GetAttackD@3

; 3540 : 	}
; 3541 : 	else
; 3542 : 	{
; 3543 : 		int cDamage=0;

  0008e	89 5d c4	 mov	 DWORD PTR _cDamage$223263[ebp], ebx

; 3544 : 
; 3545 : 		if ( lpObj->Class == CLASS_DARKLORD ||
; 3546 : 			 lpObj->Class == CLASS_KNIGHT   ||
; 3547 : #ifdef MONK
; 3548 : 			 lpObj->Class == CLASS_MONK ||
; 3549 : #endif
; 3550 : 			 lpObj->Class == CLASS_MAGUMSA )

  00091	0f b7 86 b8 00
	00 00		 movzx	 eax, WORD PTR [esi+184]
  00098	83 f8 04	 cmp	 eax, 4
  0009b	74 0f		 je	 SHORT $LN99@GetAttackD@3
  0009d	66 3b c2	 cmp	 ax, dx
  000a0	74 0a		 je	 SHORT $LN99@GetAttackD@3
  000a2	83 f8 06	 cmp	 eax, 6
  000a5	74 05		 je	 SHORT $LN99@GetAttackD@3
  000a7	83 f8 03	 cmp	 eax, 3
  000aa	75 3e		 jne	 SHORT $LN97@GetAttackD@3
$LN99@GetAttackD@3:

; 3551 : 		{
; 3552 : 			if ( Right->m_Type >= ITEMGET(0,0) && Right->m_Type < ITEMGET(4,0) &&
; 3553 : 				 Left->m_Type >= ITEMGET(0,0) && Left->m_Type < ITEMGET(4,0) )

  000ac	0f b7 41 06	 movzx	 eax, WORD PTR [ecx+6]
  000b0	66 85 c0	 test	 ax, ax
  000b3	78 35		 js	 SHORT $LN97@GetAttackD@3
  000b5	ba 00 08 00 00	 mov	 edx, 2048		; 00000800H
  000ba	66 3b c2	 cmp	 ax, dx
  000bd	7d 2b		 jge	 SHORT $LN97@GetAttackD@3
  000bf	8b 45 cc	 mov	 eax, DWORD PTR _Left$[ebp]
  000c2	0f b7 40 06	 movzx	 eax, WORD PTR [eax+6]
  000c6	66 85 c0	 test	 ax, ax
  000c9	78 1f		 js	 SHORT $LN97@GetAttackD@3
  000cb	66 3b c2	 cmp	 ax, dx
  000ce	7d 1a		 jge	 SHORT $LN97@GetAttackD@3

; 3554 : 			{
; 3555 : 				if ( Right->m_IsValidItem && Left->m_IsValidItem )

  000d0	38 99 b0 00 00
	00		 cmp	 BYTE PTR [ecx+176], bl
  000d6	74 12		 je	 SHORT $LN97@GetAttackD@3
  000d8	8b 45 cc	 mov	 eax, DWORD PTR _Left$[ebp]
  000db	38 98 b0 00 00
	00		 cmp	 BYTE PTR [eax+176], bl
  000e1	74 07		 je	 SHORT $LN97@GetAttackD@3

; 3556 : 				{
; 3557 : 					bTwoHandWeapon = TRUE;

  000e3	c7 45 c8 01 00
	00 00		 mov	 DWORD PTR _bTwoHandWeapon$[ebp], 1
$LN97@GetAttackD@3:

; 3558 : 				}
; 3559 : 			}
; 3560 : 		}
; 3561 : 
; 3562 : 		if ( lpMagic )

  000ea	8b 45 18	 mov	 eax, DWORD PTR _lpMagic$[ebp]
  000ed	85 c0		 test	 eax, eax
  000ef	0f 84 94 02 00
	00		 je	 $LN79@GetAttackD@3

; 3563 : 		{
; 3564 : 			if ( lpMagic ->m_Skill == 60 && lpObj->SkillLongSpearChange )

  000f5	8b 48 08	 mov	 ecx, DWORD PTR [eax+8]
  000f8	83 f9 3c	 cmp	 ecx, 60			; 0000003cH
  000fb	75 15		 jne	 SHORT $LN95@GetAttackD@3
  000fd	38 9e 7a 12 00
	00		 cmp	 BYTE PTR [esi+4730], bl
  00103	74 0d		 je	 SHORT $LN95@GetAttackD@3

; 3565 : 			{
; 3566 : 				SkillRightMaxDamage = DefMagicInf[66].m_DamageMax;

  00105	8b 1d 40 06 00
	00		 mov	 ebx, DWORD PTR ?DefMagicInf@@3PAVCMagicInf@@A+1600

; 3567 : 				SkillRightMinDamage = DefMagicInf[66].m_DamageMin;

  0010b	a1 3c 06 00 00	 mov	 eax, DWORD PTR ?DefMagicInf@@3PAVCMagicInf@@A+1596

; 3568 : 			}
; 3569 : 			else

  00110	eb 06		 jmp	 SHORT $LN168@GetAttackD@3
$LN95@GetAttackD@3:

; 3570 : 			{
; 3571 : 				SkillRightMaxDamage = lpMagic->m_DamageMax;

  00112	8b 58 10	 mov	 ebx, DWORD PTR [eax+16]

; 3572 : 				SkillRightMinDamage = lpMagic->m_DamageMin;

  00115	8b 40 0c	 mov	 eax, DWORD PTR [eax+12]
$LN168@GetAttackD@3:
  00118	89 45 e0	 mov	 DWORD PTR _SkillRightMinDamage$[ebp], eax

; 3573 : 			}
; 3574 : 
; 3575 : 			if ( bTwoHandWeapon == FALSE )

  0011b	39 7d c8	 cmp	 DWORD PTR _bTwoHandWeapon$[ebp], edi
  0011e	75 05		 jne	 SHORT $LN93@GetAttackD@3

; 3576 : 			{
; 3577 : 				SkillLeftMaxDamage = SkillRightMaxDamage;

  00120	8b fb		 mov	 edi, ebx

; 3578 : 				SkillLeftMinDamage = SkillRightMinDamage;

  00122	89 45 e4	 mov	 DWORD PTR _SkillLeftMinDamage$[ebp], eax
$LN93@GetAttackD@3:

; 3579 : 			}
; 3580 : 
; 3581 : 			SkillRightMaxDamage += lpObj->SetOpAddSkillAttack;

  00125	0f bf 86 24 11
	00 00		 movsx	 eax, WORD PTR [esi+4388]
  0012c	03 d8		 add	 ebx, eax

; 3582 : 			SkillRightMinDamage += lpObj->SetOpAddSkillAttack;

  0012e	01 45 e0	 add	 DWORD PTR _SkillRightMinDamage$[ebp], eax

; 3583 : 			SkillLeftMaxDamage += lpObj->SetOpAddSkillAttack;

  00131	03 f8		 add	 edi, eax

; 3584 : 			SkillLeftMinDamage += lpObj->SetOpAddSkillAttack;

  00133	01 45 e4	 add	 DWORD PTR _SkillLeftMinDamage$[ebp], eax

; 3585 : 
; 3586 : 			int SkillAttr = MagicDamageC.GetSkillAttr(lpMagic->m_Skill);

  00136	51		 push	 ecx
  00137	b9 00 00 00 00	 mov	 ecx, OFFSET ?MagicDamageC@@3VCMagicDamage@@A ; MagicDamageC
  0013c	e8 00 00 00 00	 call	 ?GetSkillAttr@CMagicDamage@@QAEHH@Z ; CMagicDamage::GetSkillAttr

; 3587 : 
; 3588 : 			if ( SkillAttr != -1 )

  00141	83 f8 ff	 cmp	 eax, -1
  00144	74 3f		 je	 SHORT $LN89@GetAttackD@3

; 3589 : 			{
; 3590 : 				if((lpObj->Authority&32) == 32 && (lpObj->pInventory[10].m_Type == ITEMGET(13,42) || lpObj->pInventory[11].m_Type == ITEMGET(13,42))) //season 2.5 add-on

  00146	f6 86 0c 02 00
	00 20		 test	 BYTE PTR [esi+524], 32	; 00000020H
  0014d	74 24		 je	 SHORT $LN91@GetAttackD@3
  0014f	8b 8e 24 0e 00
	00		 mov	 ecx, DWORD PTR [esi+3620]
  00155	ba 2a 1a 00 00	 mov	 edx, 6698		; 00001a2aH
  0015a	66 39 91 4e 08
	00 00		 cmp	 WORD PTR [ecx+2126], dx
  00161	74 09		 je	 SHORT $LN90@GetAttackD@3
  00163	66 39 91 22 09
	00 00		 cmp	 WORD PTR [ecx+2338], dx
  0016a	75 07		 jne	 SHORT $LN91@GetAttackD@3
$LN90@GetAttackD@3:

; 3591 : 				{
; 3592 : 					SkillRightMaxDamage += (BYTE)255;

  0016c	b8 ff 00 00 00	 mov	 eax, 255		; 000000ffH

; 3593 : 					SkillRightMinDamage += (BYTE)255;
; 3594 : 					SkillLeftMaxDamage  += (BYTE)255;
; 3595 : 					SkillLeftMinDamage  += (BYTE)255;
; 3596 : 				}
; 3597 : 				else

  00171	eb 08		 jmp	 SHORT $LN169@GetAttackD@3
$LN91@GetAttackD@3:

; 3598 : 				{
; 3599 : 					SkillRightMaxDamage += (BYTE)lpObj->m_AddResistance[SkillAttr];

  00173	0f b6 84 30 ff
	04 00 00	 movzx	 eax, BYTE PTR [eax+esi+1279]
$LN169@GetAttackD@3:
  0017b	03 d8		 add	 ebx, eax

; 3600 : 					SkillRightMinDamage += (BYTE)lpObj->m_AddResistance[SkillAttr];

  0017d	01 45 e0	 add	 DWORD PTR _SkillRightMinDamage$[ebp], eax

; 3601 : 					SkillLeftMaxDamage  += (BYTE)lpObj->m_AddResistance[SkillAttr];

  00180	03 f8		 add	 edi, eax

; 3602 : 					SkillLeftMinDamage  += (BYTE)lpObj->m_AddResistance[SkillAttr];

  00182	01 45 e4	 add	 DWORD PTR _SkillLeftMinDamage$[ebp], eax
$LN89@GetAttackD@3:

; 3603 : 				}
; 3604 : 			}
; 3605 : 
; 3606 : 			SkillRightMaxDamage += lpObj->m_JewelOfHarmonyEffect.HJOpAddSkillAttack;

  00185	0f bf 86 e4 1f
	00 00		 movsx	 eax, WORD PTR [esi+8164]
  0018c	03 d8		 add	 ebx, eax
  0018e	89 5d d8	 mov	 DWORD PTR _SkillRightMaxDamage$[ebp], ebx

; 3607 : 			SkillRightMinDamage += lpObj->m_JewelOfHarmonyEffect.HJOpAddSkillAttack;

  00191	01 45 e0	 add	 DWORD PTR _SkillRightMinDamage$[ebp], eax

; 3608 : 			SkillLeftMaxDamage += lpObj->m_JewelOfHarmonyEffect.HJOpAddSkillAttack;

  00194	03 f8		 add	 edi, eax
  00196	89 7d dc	 mov	 DWORD PTR _SkillLeftMaxDamage$[ebp], edi

; 3609 : 			SkillLeftMinDamage += lpObj->m_JewelOfHarmonyEffect.HJOpAddSkillAttack;

  00199	01 45 e4	 add	 DWORD PTR _SkillLeftMinDamage$[ebp], eax

; 3610 : 
; 3611 : 			if ( lpMagic->m_Skill == 65 )

  0019c	8b 45 18	 mov	 eax, DWORD PTR _lpMagic$[ebp]
  0019f	8b 40 08	 mov	 eax, DWORD PTR [eax+8]
  001a2	83 f8 41	 cmp	 eax, 65			; 00000041H
  001a5	75 36		 jne	 SHORT $LN88@GetAttackD@3

; 3612 : 			{
; 3613 : 				int iPartyCount = this->GetPartyMemberCount(lpObj);

  001a7	56		 push	 esi
  001a8	8b 4d c0	 mov	 ecx, DWORD PTR _this$[ebp]
  001ab	e8 00 00 00 00	 call	 ?GetPartyMemberCount@CObjBaseAttack@@QAEHPAUOBJECTSTRUCT@@@Z ; CObjBaseAttack::GetPartyMemberCount
  001b0	8b c8		 mov	 ecx, eax

; 3614 : 				int addskilldamage = ( lpObj->Leadership + lpObj->AddLeadership ) / 10 + ( iPartyCount * 50 );

  001b2	0f b7 96 1a 01
	00 00		 movzx	 edx, WORD PTR [esi+282]
  001b9	0f b7 86 18 01
	00 00		 movzx	 eax, WORD PTR [esi+280]
  001c0	03 d0		 add	 edx, eax
  001c2	b8 67 66 66 66	 mov	 eax, 1717986919		; 66666667H
  001c7	f7 ea		 imul	 edx
  001c9	c1 fa 02	 sar	 edx, 2
  001cc	8b c2		 mov	 eax, edx
  001ce	c1 e8 1f	 shr	 eax, 31			; 0000001fH
  001d1	03 c2		 add	 eax, edx
  001d3	6b c9 32	 imul	 ecx, 50			; 00000032H
  001d6	03 c1		 add	 eax, ecx

; 3615 : 
; 3616 : 				SkillRightMaxDamage += addskilldamage;
; 3617 : 				SkillRightMinDamage += addskilldamage;
; 3618 : 				SkillLeftMaxDamage += addskilldamage;
; 3619 : 				SkillLeftMinDamage += addskilldamage;

  001d8	e9 4f 01 00 00	 jmp	 $LN170@GetAttackD@3
$LN88@GetAttackD@3:

; 3620 : 			}
; 3621 : 			else if( lpMagic->m_Skill == 62 || g_MasterSkillSystem.GetBaseMasterLevelSkill(lpMagic->m_Skill) == 515) //season3 add-on

  001dd	83 f8 3e	 cmp	 eax, 62			; 0000003eH
  001e0	0f 84 d7 00 00
	00		 je	 $LN85@GetAttackD@3
  001e6	50		 push	 eax
  001e7	b9 00 00 00 00	 mov	 ecx, OFFSET ?g_MasterSkillSystem@@3VCMasterLevelSkillTreeSystem@@A ; g_MasterSkillSystem
  001ec	e8 00 00 00 00	 call	 ?GetBaseMasterLevelSkill@CMasterLevelSkillTreeSystem@@QAEHH@Z ; CMasterLevelSkillTreeSystem::GetBaseMasterLevelSkill
  001f1	3d 03 02 00 00	 cmp	 eax, 515		; 00000203H
  001f6	0f 84 c1 00 00
	00		 je	 $LN85@GetAttackD@3

; 3631 : 				}
; 3632 : 			}
; 3633 : 			else if ( lpObj->Class == CLASS_DARKLORD && lpMagic->m_Skill == 238) //season4 add-on

  001fc	0f b7 86 b8 00
	00 00		 movzx	 eax, WORD PTR [esi+184]
  00203	83 f8 04	 cmp	 eax, 4
  00206	0f 85 30 01 00
	00		 jne	 $LN84@GetAttackD@3
  0020c	8b 4d 18	 mov	 ecx, DWORD PTR _lpMagic$[ebp]
  0020f	81 79 08 ee 00
	00 00		 cmp	 DWORD PTR [ecx+8], 238	; 000000eeH
  00216	75 50		 jne	 SHORT $LN82@GetAttackD@3

; 3634 : 			{
; 3635 : 				int iadddamage = ( lpObj->Strength + lpObj->AddStrength ) / 30 + ( lpObj->Energy + lpObj->AddEnergy ) / 55;	// #formula

  00218	0f bf 8e 26 01
	00 00		 movsx	 ecx, WORD PTR [esi+294]
  0021f	0f b7 96 fa 00
	00 00		 movzx	 edx, WORD PTR [esi+250]
  00226	03 ca		 add	 ecx, edx
  00228	b8 95 20 4f 09	 mov	 eax, 156180629		; 094f2095H
  0022d	f7 e9		 imul	 ecx
  0022f	d1 fa		 sar	 edx, 1
  00231	8b c2		 mov	 eax, edx
  00233	c1 e8 1f	 shr	 eax, 31			; 0000001fH
  00236	03 c2		 add	 eax, edx
  00238	0f bf 8e 20 01
	00 00		 movsx	 ecx, WORD PTR [esi+288]
  0023f	0f b7 96 f4 00
	00 00		 movzx	 edx, WORD PTR [esi+244]
  00246	03 ca		 add	 ecx, edx
  00248	89 45 d8	 mov	 DWORD PTR tv1057[ebp], eax
  0024b	b8 89 88 88 88	 mov	 eax, -2004318071	; 88888889H
  00250	f7 e9		 imul	 ecx
  00252	03 d1		 add	 edx, ecx
  00254	c1 fa 04	 sar	 edx, 4
  00257	8b c2		 mov	 eax, edx
  00259	c1 e8 1f	 shr	 eax, 31			; 0000001fH
  0025c	8b 4d d8	 mov	 ecx, DWORD PTR tv1057[ebp]
  0025f	03 ca		 add	 ecx, edx
  00261	03 c1		 add	 eax, ecx

; 3636 : 
; 3637 : 				SkillRightMaxDamage += iadddamage;
; 3638 : 				SkillRightMinDamage += iadddamage;
; 3639 : 				SkillLeftMaxDamage += iadddamage;
; 3640 : 				SkillLeftMinDamage += iadddamage;

  00263	e9 c4 00 00 00	 jmp	 $LN170@GetAttackD@3
$LN82@GetAttackD@3:

; 3641 : 			}
; 3642 : 			else if ( lpObj->Class == CLASS_DARKLORD )

  00268	83 f8 04	 cmp	 eax, 4
  0026b	0f 85 cb 00 00
	00		 jne	 $LN84@GetAttackD@3

; 3643 : 			{
; 3644 : 				int iadddamage = ( lpObj->Strength + lpObj->AddStrength ) / 25 + ( lpObj->Energy + lpObj->AddEnergy ) / 50;	// #formula

  00271	0f bf 8e 26 01
	00 00		 movsx	 ecx, WORD PTR [esi+294]
  00278	0f b7 86 fa 00
	00 00		 movzx	 eax, WORD PTR [esi+250]
  0027f	03 c8		 add	 ecx, eax
  00281	b8 1f 85 eb 51	 mov	 eax, 1374389535		; 51eb851fH
  00286	f7 e9		 imul	 ecx
  00288	c1 fa 04	 sar	 edx, 4
  0028b	8b c2		 mov	 eax, edx
  0028d	c1 e8 1f	 shr	 eax, 31			; 0000001fH
  00290	03 c2		 add	 eax, edx
  00292	0f bf 8e 20 01
	00 00		 movsx	 ecx, WORD PTR [esi+288]
  00299	0f b7 96 f4 00
	00 00		 movzx	 edx, WORD PTR [esi+244]
  002a0	03 ca		 add	 ecx, edx
  002a2	89 45 d0	 mov	 DWORD PTR tv1055[ebp], eax
  002a5	b8 1f 85 eb 51	 mov	 eax, 1374389535		; 51eb851fH
  002aa	f7 e9		 imul	 ecx
  002ac	c1 fa 03	 sar	 edx, 3
  002af	8b c2		 mov	 eax, edx
  002b1	c1 e8 1f	 shr	 eax, 31			; 0000001fH
  002b4	8b 4d d0	 mov	 ecx, DWORD PTR tv1055[ebp]
  002b7	03 ca		 add	 ecx, edx
  002b9	03 c1		 add	 eax, ecx

; 3645 : 
; 3646 : 				SkillRightMaxDamage += iadddamage;
; 3647 : 				SkillRightMinDamage += iadddamage;
; 3648 : 				SkillLeftMaxDamage += iadddamage;
; 3649 : 				SkillLeftMinDamage += iadddamage;

  002bb	eb 6f		 jmp	 SHORT $LN170@GetAttackD@3
$LN85@GetAttackD@3:

; 3622 : 			{
; 3623 : 				if ( lpObj->pInventory[8].m_Type == ITEMGET(13,4) )

  002bd	8b 86 24 0e 00
	00		 mov	 eax, DWORD PTR [esi+3620]
  002c3	b9 04 1a 00 00	 mov	 ecx, 6660		; 00001a04H
  002c8	66 39 88 a6 06
	00 00		 cmp	 WORD PTR [eax+1702], cx
  002cf	75 6b		 jne	 SHORT $LN84@GetAttackD@3

; 3624 : 				{
; 3625 : 					int addskilldamage = ( lpObj->Strength + lpObj->AddStrength ) / 10 + ( lpObj->Leadership + lpObj->AddLeadership ) / 5 + lpObj->pInventory[8].m_PetItem_Level * 10;

  002d1	0f b7 8e 1a 01
	00 00		 movzx	 ecx, WORD PTR [esi+282]
  002d8	0f b7 96 18 01
	00 00		 movzx	 edx, WORD PTR [esi+280]
  002df	03 ca		 add	 ecx, edx
  002e1	b8 67 66 66 66	 mov	 eax, 1717986919		; 66666667H
  002e6	f7 e9		 imul	 ecx
  002e8	d1 fa		 sar	 edx, 1
  002ea	8b c2		 mov	 eax, edx
  002ec	c1 e8 1f	 shr	 eax, 31			; 0000001fH
  002ef	03 c2		 add	 eax, edx
  002f1	0f bf 8e 20 01
	00 00		 movsx	 ecx, WORD PTR [esi+288]
  002f8	0f b7 96 f4 00
	00 00		 movzx	 edx, WORD PTR [esi+244]
  002ff	03 ca		 add	 ecx, edx
  00301	89 45 d0	 mov	 DWORD PTR tv1053[ebp], eax
  00304	b8 67 66 66 66	 mov	 eax, 1717986919		; 66666667H
  00309	f7 e9		 imul	 ecx
  0030b	c1 fa 02	 sar	 edx, 2
  0030e	8b ca		 mov	 ecx, edx
  00310	c1 e9 1f	 shr	 ecx, 31			; 0000001fH
  00313	8b 45 d0	 mov	 eax, DWORD PTR tv1053[ebp]
  00316	03 c2		 add	 eax, edx
  00318	03 c8		 add	 ecx, eax
  0031a	8b 86 24 0e 00
	00		 mov	 eax, DWORD PTR [esi+3620]
  00320	8b 80 5c 07 00
	00		 mov	 eax, DWORD PTR [eax+1884]
  00326	8d 14 80	 lea	 edx, DWORD PTR [eax+eax*4]
  00329	8d 04 51	 lea	 eax, DWORD PTR [ecx+edx*2]
$LN170@GetAttackD@3:

; 3626 : 
; 3627 : 					SkillRightMaxDamage += addskilldamage;

  0032c	03 d8		 add	 ebx, eax

; 3629 : 					SkillLeftMaxDamage += addskilldamage;

  0032e	03 f8		 add	 edi, eax

; 3628 : 					SkillRightMinDamage += addskilldamage;

  00330	01 45 e0	 add	 DWORD PTR _SkillRightMinDamage$[ebp], eax

; 3630 : 					SkillLeftMinDamage += addskilldamage;

  00333	01 45 e4	 add	 DWORD PTR _SkillLeftMinDamage$[ebp], eax

; 3629 : 					SkillLeftMaxDamage += addskilldamage;

  00336	89 7d dc	 mov	 DWORD PTR _SkillLeftMaxDamage$[ebp], edi

; 3626 : 
; 3627 : 					SkillRightMaxDamage += addskilldamage;

  00339	89 5d d8	 mov	 DWORD PTR _SkillRightMaxDamage$[ebp], ebx
$LN84@GetAttackD@3:

; 3650 : 			}
; 3651 : 			
; 3652 : 			if ( lpObj->Class == CLASS_ELF && lpMagic->m_Skill == 235 ) //season4 add-on

  0033c	66 83 be b8 00
	00 00 02	 cmp	 WORD PTR [esi+184], 2
  00344	75 43		 jne	 SHORT $LN79@GetAttackD@3
  00346	8b 45 18	 mov	 eax, DWORD PTR _lpMagic$[ebp]
  00349	81 78 08 eb 00
	00 00		 cmp	 DWORD PTR [eax+8], 235	; 000000ebH
  00350	75 37		 jne	 SHORT $LN79@GetAttackD@3

; 3653 : 			{
; 3654 : 				SkillLeftMaxDamage = SkillLeftMaxDamage * 80 / 100;

  00352	8d 3c bf	 lea	 edi, DWORD PTR [edi+edi*4]
  00355	c1 e7 04	 shl	 edi, 4
  00358	b8 1f 85 eb 51	 mov	 eax, 1374389535		; 51eb851fH
  0035d	f7 ef		 imul	 edi
  0035f	c1 fa 05	 sar	 edx, 5
  00362	8b fa		 mov	 edi, edx
  00364	c1 ef 1f	 shr	 edi, 31			; 0000001fH
  00367	03 fa		 add	 edi, edx
  00369	89 7d dc	 mov	 DWORD PTR _SkillLeftMaxDamage$[ebp], edi

; 3655 : 				SkillLeftMinDamage = SkillLeftMinDamage * 80 / 100;

  0036c	8b 45 e4	 mov	 eax, DWORD PTR _SkillLeftMinDamage$[ebp]
  0036f	8d 0c 80	 lea	 ecx, DWORD PTR [eax+eax*4]
  00372	c1 e1 04	 shl	 ecx, 4
  00375	b8 1f 85 eb 51	 mov	 eax, 1374389535		; 51eb851fH
  0037a	f7 e9		 imul	 ecx
  0037c	c1 fa 05	 sar	 edx, 5
  0037f	8b c2		 mov	 eax, edx
  00381	c1 e8 1f	 shr	 eax, 31			; 0000001fH
  00384	03 c2		 add	 eax, edx
  00386	89 45 e4	 mov	 DWORD PTR _SkillLeftMinDamage$[ebp], eax
$LN79@GetAttackD@3:

; 3656 : 			}
; 3657 : 		}
; 3658 : 
; 3659 : 		if ( lpObj->m_CriticalDamage > 0 )

  00389	83 be bc 04 00
	00 00		 cmp	 DWORD PTR [esi+1212], 0
  00390	7e 22		 jle	 SHORT $LN77@GetAttackD@3

; 3660 : 		{
; 3661 : 			if ( (rand()%100) < lpObj->m_CriticalDamage )

  00392	e8 00 00 00 00	 call	 _rand
  00397	99		 cdq
  00398	b9 64 00 00 00	 mov	 ecx, 100		; 00000064H
  0039d	f7 f9		 idiv	 ecx
  0039f	3b 96 bc 04 00
	00		 cmp	 edx, DWORD PTR [esi+1212]
  003a5	7d 0d		 jge	 SHORT $LN77@GetAttackD@3

; 3662 : 			{
; 3663 : 				cDamage = TRUE;

  003a7	c7 45 c4 01 00
	00 00		 mov	 DWORD PTR _cDamage$223263[ebp], 1

; 3664 : 				effect = 3;

  003ae	8b 55 10	 mov	 edx, DWORD PTR _effect$[ebp]
  003b1	c6 02 03	 mov	 BYTE PTR [edx], 3
$LN77@GetAttackD@3:

; 3665 : 			}
; 3666 : 		}
; 3667 : 
; 3668 : 		if ( lpObj->m_ExcelentDamage > 0 )

  003b4	83 be c0 04 00
	00 00		 cmp	 DWORD PTR [esi+1216], 0
  003bb	7e 22		 jle	 SHORT $LN75@GetAttackD@3

; 3669 : 		{
; 3670 : 			if ( (rand()%100) < lpObj->m_ExcelentDamage )

  003bd	e8 00 00 00 00	 call	 _rand
  003c2	99		 cdq
  003c3	b9 64 00 00 00	 mov	 ecx, 100		; 00000064H
  003c8	f7 f9		 idiv	 ecx
  003ca	3b 96 c0 04 00
	00		 cmp	 edx, DWORD PTR [esi+1216]
  003d0	7d 0d		 jge	 SHORT $LN75@GetAttackD@3

; 3671 : 			{
; 3672 : 				cDamage = TRUE;

  003d2	c7 45 c4 01 00
	00 00		 mov	 DWORD PTR _cDamage$223263[ebp], 1

; 3673 : 				effect = 2;

  003d9	8b 55 10	 mov	 edx, DWORD PTR _effect$[ebp]
  003dc	c6 02 02	 mov	 BYTE PTR [edx], 2
$LN75@GetAttackD@3:

; 3674 : 			}
; 3675 : 		}
; 3676 : 
; 3677 : 		int iValue1 = 0; //season4 add-on

  003df	33 c0		 xor	 eax, eax
  003e1	89 45 18	 mov	 DWORD PTR _iValue1$223304[ebp], eax

; 3678 : 		int iValue2 = 0; //season4 add-on

  003e4	89 45 d0	 mov	 DWORD PTR _iValue2$223305[ebp], eax

; 3679 : 
; 3680 : 		if(gObjSearchActiveEffect(lpObj, AT_BERSERKER) == 1) //season4 add-on

  003e7	6a 51		 push	 81			; 00000051H
  003e9	56		 push	 esi
  003ea	e8 00 00 00 00	 call	 ?gObjSearchActiveEffect@@YAEPAUOBJECTSTRUCT@@H@Z ; gObjSearchActiveEffect
  003ef	83 c4 08	 add	 esp, 8
  003f2	3c 01		 cmp	 al, 1
  003f4	75 11		 jne	 SHORT $LN74@GetAttackD@3

; 3681 : 		{
; 3682 : 			this->GetBerserkerSkillAttackDamage(lpObj, iValue1, iValue2); 

  003f6	8d 45 d0	 lea	 eax, DWORD PTR _iValue2$223305[ebp]
  003f9	50		 push	 eax
  003fa	8d 4d 18	 lea	 ecx, DWORD PTR _iValue1$223304[ebp]
  003fd	51		 push	 ecx
  003fe	56		 push	 esi
  003ff	8b 4d c0	 mov	 ecx, DWORD PTR _this$[ebp]
  00402	e8 00 00 00 00	 call	 ?GetBerserkerSkillAttackDamage@CObjAttack@@QAEEPAUOBJECTSTRUCT@@AAH1@Z ; CObjAttack::GetBerserkerSkillAttackDamage
$LN74@GetAttackD@3:

; 3683 : 		}
; 3684 : 
; 3685 : 		__try

  00407	9b		 fwait
  00408	c7 45 fc 00 00
	00 00		 mov	 DWORD PTR __$SEHRec$[ebp+20], 0

; 3686 : 		{
; 3687 : 			sub = ( lpObj->m_AttackDamageMaxRight + SkillRightMaxDamage + iValue2) - ( lpObj->m_AttackDamageMinRight + SkillRightMinDamage + iValue1); //season4 changed

  0040f	8b 96 80 04 00
	00		 mov	 edx, DWORD PTR [esi+1152]
  00415	2b 55 18	 sub	 edx, DWORD PTR _iValue1$223304[ebp]
  00418	2b 55 e0	 sub	 edx, DWORD PTR _SkillRightMinDamage$[ebp]
  0041b	2b 96 84 04 00
	00		 sub	 edx, DWORD PTR [esi+1156]
  00421	03 55 d0	 add	 edx, DWORD PTR _iValue2$223305[ebp]
  00424	03 d3		 add	 edx, ebx
  00426	89 55 d4	 mov	 DWORD PTR _sub$[ebp], edx

; 3688 : 			lpObj->m_AttackDamageRight = ( lpObj->m_AttackDamageMinRight + SkillRightMinDamage + iValue1) + (rand()%(sub+1)); //season4 changed

  00429	e8 00 00 00 00	 call	 _rand
  0042e	8b 4d d4	 mov	 ecx, DWORD PTR _sub$[ebp]
  00431	41		 inc	 ecx
  00432	99		 cdq
  00433	f7 f9		 idiv	 ecx
  00435	03 55 18	 add	 edx, DWORD PTR _iValue1$223304[ebp]
  00438	03 55 e0	 add	 edx, DWORD PTR _SkillRightMinDamage$[ebp]
  0043b	03 96 84 04 00
	00		 add	 edx, DWORD PTR [esi+1156]
  00441	89 96 74 04 00
	00		 mov	 DWORD PTR [esi+1140], edx

; 3689 : 		}

  00447	9b		 fwait
  00448	c7 45 fc fe ff
	ff ff		 mov	 DWORD PTR __$SEHRec$[ebp+20], -2 ; fffffffeH
  0044f	eb 1c		 jmp	 SHORT $LN112@GetAttackD@3
$LN109@GetAttackD@3:
$LN180@GetAttackD@3:

; 3690 : 		__except ( sub=1, 1 )

  00451	b8 01 00 00 00	 mov	 eax, 1
  00456	89 45 d4	 mov	 DWORD PTR _sub$[ebp], eax
$LN166@GetAttackD@3:
$LN111@GetAttackD@3:
  00459	c3		 ret	 0
$LN110@GetAttackD@3:
  0045a	8b 65 e8	 mov	 esp, DWORD PTR __$SEHRec$[ebp]

; 3691 : 		{
; 3692 : 
; 3693 : 		}

  0045d	c7 45 fc fe ff
	ff ff		 mov	 DWORD PTR __$SEHRec$[ebp+20], -2 ; fffffffeH
  00464	8b 75 08	 mov	 esi, DWORD PTR _lpObj$[ebp]
  00467	8b 5d d8	 mov	 ebx, DWORD PTR _SkillRightMaxDamage$[ebp]
  0046a	8b 7d dc	 mov	 edi, DWORD PTR _SkillLeftMaxDamage$[ebp]
$LN112@GetAttackD@3:

; 3694 : 
; 3695 : 		__try

  0046d	9b		 fwait
  0046e	c7 45 fc 01 00
	00 00		 mov	 DWORD PTR __$SEHRec$[ebp+20], 1

; 3696 : 		{
; 3697 : 			sub = ( lpObj->m_AttackDamageMaxLeft + SkillLeftMaxDamage + iValue2) - ( lpObj->m_AttackDamageMinLeft + SkillLeftMinDamage + iValue1); //season4 changed

  00475	8b 96 78 04 00
	00		 mov	 edx, DWORD PTR [esi+1144]
  0047b	2b 96 7c 04 00
	00		 sub	 edx, DWORD PTR [esi+1148]
  00481	2b 55 18	 sub	 edx, DWORD PTR _iValue1$223304[ebp]
  00484	2b 55 e4	 sub	 edx, DWORD PTR _SkillLeftMinDamage$[ebp]
  00487	03 55 d0	 add	 edx, DWORD PTR _iValue2$223305[ebp]
  0048a	03 d7		 add	 edx, edi
  0048c	89 55 d4	 mov	 DWORD PTR _sub$[ebp], edx

; 3698 : 			lpObj->m_AttackDamageLeft = ( lpObj->m_AttackDamageMinLeft + SkillLeftMinDamage + iValue1) + (rand()%(sub+1)); //season4 changed

  0048f	e8 00 00 00 00	 call	 _rand
  00494	8b 4d d4	 mov	 ecx, DWORD PTR _sub$[ebp]
  00497	41		 inc	 ecx
  00498	99		 cdq
  00499	f7 f9		 idiv	 ecx
  0049b	03 96 7c 04 00
	00		 add	 edx, DWORD PTR [esi+1148]
  004a1	03 55 18	 add	 edx, DWORD PTR _iValue1$223304[ebp]
  004a4	03 55 e4	 add	 edx, DWORD PTR _SkillLeftMinDamage$[ebp]
  004a7	89 96 70 04 00
	00		 mov	 DWORD PTR [esi+1136], edx

; 3699 : 		}

  004ad	9b		 fwait
  004ae	c7 45 fc fe ff
	ff ff		 mov	 DWORD PTR __$SEHRec$[ebp+20], -2 ; fffffffeH
  004b5	eb 1c		 jmp	 SHORT $LN116@GetAttackD@3
$LN113@GetAttackD@3:
$LN181@GetAttackD@3:

; 3700 : 		__except ( sub=1, 1 )

  004b7	b8 01 00 00 00	 mov	 eax, 1
  004bc	89 45 d4	 mov	 DWORD PTR _sub$[ebp], eax
$LN167@GetAttackD@3:
$LN115@GetAttackD@3:
  004bf	c3		 ret	 0
$LN114@GetAttackD@3:
  004c0	8b 65 e8	 mov	 esp, DWORD PTR __$SEHRec$[ebp]

; 3701 : 		{
; 3702 : 
; 3703 : 		}

  004c3	c7 45 fc fe ff
	ff ff		 mov	 DWORD PTR __$SEHRec$[ebp+20], -2 ; fffffffeH
  004ca	8b 75 08	 mov	 esi, DWORD PTR _lpObj$[ebp]
  004cd	8b 5d d8	 mov	 ebx, DWORD PTR _SkillRightMaxDamage$[ebp]
  004d0	8b 7d dc	 mov	 edi, DWORD PTR _SkillLeftMaxDamage$[ebp]
$LN116@GetAttackD@3:

; 3704 : 
; 3705 : 		if ( cDamage )

  004d3	83 7d c4 00	 cmp	 DWORD PTR _cDamage$223263[ebp], 0
  004d7	0f 84 fe 00 00
	00		 je	 $LN70@GetAttackD@3

; 3706 : 		{
; 3707 : 			lpObj->m_AttackDamageRight = lpObj->m_AttackDamageMaxRight + SkillRightMaxDamage + iValue2; //season4 changed
; 3708 : 			lpObj->m_AttackDamageLeft = lpObj->m_AttackDamageMaxLeft + SkillLeftMaxDamage + iValue2; //season4 changed
; 3709 : 
; 3710 : 			lpObj->m_AttackDamageRight += lpObj->SetOpAddCriticalDamage;

  004dd	0f bf 86 2a 11
	00 00		 movsx	 eax, WORD PTR [esi+4394]

; 3711 : 			lpObj->m_AttackDamageLeft += lpObj->SetOpAddCriticalDamage;
; 3712 : 
; 3713 : 			lpObj->m_AttackDamageRight += lpObj->m_JewelOfHarmonyEffect.HJOpAddCriticalDamage;

  004e4	0f bf 8e e2 1f
	00 00		 movsx	 ecx, WORD PTR [esi+8162]
  004eb	8b 96 80 04 00
	00		 mov	 edx, DWORD PTR [esi+1152]
  004f1	03 d1		 add	 edx, ecx
  004f3	03 d0		 add	 edx, eax
  004f5	03 55 d0	 add	 edx, DWORD PTR _iValue2$223305[ebp]
  004f8	03 d3		 add	 edx, ebx
  004fa	89 96 74 04 00
	00		 mov	 DWORD PTR [esi+1140], edx

; 3714 : 			lpObj->m_AttackDamageLeft += lpObj->m_JewelOfHarmonyEffect.HJOpAddCriticalDamage;

  00500	8b 96 78 04 00
	00		 mov	 edx, DWORD PTR [esi+1144]
  00506	0f bf 8e e2 1f
	00 00		 movsx	 ecx, WORD PTR [esi+8162]
  0050d	03 d1		 add	 edx, ecx
  0050f	03 d0		 add	 edx, eax
  00511	03 55 d0	 add	 edx, DWORD PTR _iValue2$223305[ebp]
  00514	03 d7		 add	 edx, edi
  00516	89 96 70 04 00
	00		 mov	 DWORD PTR [esi+1136], edx

; 3715 : 
; 3716 : 			int SkillAddCriticalDamage = 0;

  0051c	c7 45 c0 00 00
	00 00		 mov	 DWORD PTR _SkillAddCriticalDamage$223310[ebp], 0

; 3717 : 			gObjUpdateAppliedBuffEffect(lpObj, AT_INCREASE_CRITICAL_DMG, &SkillAddCriticalDamage, 0);

  00523	6a 00		 push	 0
  00525	8d 45 c0	 lea	 eax, DWORD PTR _SkillAddCriticalDamage$223310[ebp]
  00528	50		 push	 eax
  00529	6a 05		 push	 5
  0052b	56		 push	 esi
  0052c	e8 00 00 00 00	 call	 ?gObjUpdateAppliedBuffEffect@@YAEPAUOBJECTSTRUCT@@HPAH1@Z ; gObjUpdateAppliedBuffEffect
  00531	83 c4 10	 add	 esp, 16			; 00000010H

; 3718 : 
; 3719 : 			lpObj->m_AttackDamageRight += SkillAddCriticalDamage;

  00534	8b 45 c0	 mov	 eax, DWORD PTR _SkillAddCriticalDamage$223310[ebp]
  00537	01 86 74 04 00
	00		 add	 DWORD PTR [esi+1140], eax

; 3720 : 			lpObj->m_AttackDamageLeft += SkillAddCriticalDamage;

  0053d	01 86 70 04 00
	00		 add	 DWORD PTR [esi+1136], eax

; 3721 : 
; 3722 : 			if ( effect == 2 )

  00543	8b 4d 10	 mov	 ecx, DWORD PTR _effect$[ebp]
  00546	80 39 02	 cmp	 BYTE PTR [ecx], 2
  00549	0f 85 8c 00 00
	00		 jne	 $LN70@GetAttackD@3

; 3726 : 
; 3727 : 				lpObj->m_AttackDamageRight += lpObj->SetOpAddExDamage;

  0054f	0f bf 8e 26 11
	00 00		 movsx	 ecx, WORD PTR [esi+4390]
  00556	8b 86 80 04 00
	00		 mov	 eax, DWORD PTR [esi+1152]
  0055c	03 c3		 add	 eax, ebx

; 3723 : 			{
; 3724 : 				lpObj->m_AttackDamageRight += ( lpObj->m_AttackDamageMaxRight + SkillRightMaxDamage ) * 20 / 100;

  0055e	8d 14 80	 lea	 edx, DWORD PTR [eax+eax*4]
  00561	03 d2		 add	 edx, edx
  00563	03 d2		 add	 edx, edx
  00565	b8 1f 85 eb 51	 mov	 eax, 1374389535		; 51eb851fH
  0056a	f7 ea		 imul	 edx
  0056c	c1 fa 05	 sar	 edx, 5
  0056f	8b c2		 mov	 eax, edx
  00571	c1 e8 1f	 shr	 eax, 31			; 0000001fH
  00574	03 c2		 add	 eax, edx

; 3726 : 
; 3727 : 				lpObj->m_AttackDamageRight += lpObj->SetOpAddExDamage;

  00576	03 c1		 add	 eax, ecx
  00578	03 86 74 04 00
	00		 add	 eax, DWORD PTR [esi+1140]
  0057e	89 86 74 04 00
	00		 mov	 DWORD PTR [esi+1140], eax

; 3728 : 				lpObj->m_AttackDamageLeft += lpObj->SetOpAddExDamage;

  00584	8b 86 78 04 00
	00		 mov	 eax, DWORD PTR [esi+1144]
  0058a	03 c7		 add	 eax, edi

; 3725 : 				lpObj->m_AttackDamageLeft += ( lpObj->m_AttackDamageMaxLeft + SkillLeftMaxDamage ) * 20 / 100;

  0058c	8d 14 80	 lea	 edx, DWORD PTR [eax+eax*4]
  0058f	03 d2		 add	 edx, edx
  00591	03 d2		 add	 edx, edx
  00593	b8 1f 85 eb 51	 mov	 eax, 1374389535		; 51eb851fH
  00598	f7 ea		 imul	 edx
  0059a	c1 fa 05	 sar	 edx, 5
  0059d	8b c2		 mov	 eax, edx
  0059f	c1 e8 1f	 shr	 eax, 31			; 0000001fH
  005a2	03 c2		 add	 eax, edx

; 3728 : 				lpObj->m_AttackDamageLeft += lpObj->SetOpAddExDamage;

  005a4	03 c1		 add	 eax, ecx
  005a6	03 86 70 04 00
	00		 add	 eax, DWORD PTR [esi+1136]
  005ac	89 86 70 04 00
	00		 mov	 DWORD PTR [esi+1136], eax
  005b2	eb 27		 jmp	 SHORT $LN70@GetAttackD@3
$LN102@GetAttackD@3:

; 3534 : 	{
; 3535 : 		int AttackMin = 0;
; 3536 : 		sub = lpObj->m_AttackDamageMax - lpObj->m_AttackDamageMin;

  005b4	8b be 64 04 00
	00		 mov	 edi, DWORD PTR [esi+1124]
  005ba	2b be 60 04 00
	00		 sub	 edi, DWORD PTR [esi+1120]

; 3537 : 		AttackMin = lpObj->m_AttackDamageMin + (rand()%(sub+1));

  005c0	e8 00 00 00 00	 call	 _rand
  005c5	47		 inc	 edi
  005c6	99		 cdq
  005c7	f7 ff		 idiv	 edi
  005c9	03 96 60 04 00
	00		 add	 edx, DWORD PTR [esi+1120]

; 3538 : 		lpObj->m_AttackDamageRight = AttackMin;

  005cf	89 96 74 04 00
	00		 mov	 DWORD PTR [esi+1140], edx

; 3539 : 		lpObj->m_AttackDamageLeft = AttackMin;

  005d5	89 96 70 04 00
	00		 mov	 DWORD PTR [esi+1136], edx
$LN70@GetAttackD@3:

; 3729 : 			}
; 3730 : 		}
; 3731 : 	}
; 3732 : 
; 3733 : 	if ( bTwoHandWeapon )

  005db	83 7d c8 00	 cmp	 DWORD PTR _bTwoHandWeapon$[ebp], 0
  005df	74 5c		 je	 SHORT $LN69@GetAttackD@3

; 3734 : 	{
; 3735 : 		if ( bIsOnDuel )

  005e1	83 7d 14 00	 cmp	 DWORD PTR _bIsOnDuel$[ebp], 0
  005e5	74 39		 je	 SHORT $LN68@GetAttackD@3

; 3736 : 		{
; 3737 : 			ad = ( lpObj->m_AttackDamageRight + lpObj->m_AttackDamageLeft ) * 60 / 100 - targetDefense;

  005e7	8b 86 74 04 00
	00		 mov	 eax, DWORD PTR [esi+1140]
  005ed	03 86 70 04 00
	00		 add	 eax, DWORD PTR [esi+1136]
  005f3	8b c8		 mov	 ecx, eax
  005f5	c1 e1 04	 shl	 ecx, 4
  005f8	2b c8		 sub	 ecx, eax
  005fa	03 c9		 add	 ecx, ecx
  005fc	03 c9		 add	 ecx, ecx
  005fe	b8 1f 85 eb 51	 mov	 eax, 1374389535		; 51eb851fH
  00603	f7 e9		 imul	 ecx
  00605	c1 fa 05	 sar	 edx, 5
  00608	8b fa		 mov	 edi, edx
  0060a	c1 ef 1f	 shr	 edi, 31			; 0000001fH
  0060d	03 fa		 add	 edi, edx

; 3738 : 		}
; 3739 : 		else
; 3740 : 		{
; 3741 : 			ad = ( lpObj->m_AttackDamageRight + lpObj->m_AttackDamageLeft ) - targetDefense;

  0060f	2b 7d 0c	 sub	 edi, DWORD PTR _targetDefense$[ebp]

; 3742 : 		}
; 3743 : 		ad -= lpObj->SetOpAddCriticalDamage; //season4 add-on

  00612	0f bf 96 2a 11
	00 00		 movsx	 edx, WORD PTR [esi+4394]
  00619	2b fa		 sub	 edi, edx

; 3744 : 	}
; 3745 : 	else if ( (Left->m_Type >= ITEMGET(4, 0) && Left->m_Type < ITEMGET(4, 7)) ||

  0061b	e9 47 02 00 00	 jmp	 $LN60@GetAttackD@3
$LN68@GetAttackD@3:

; 3738 : 		}
; 3739 : 		else
; 3740 : 		{
; 3741 : 			ad = ( lpObj->m_AttackDamageRight + lpObj->m_AttackDamageLeft ) - targetDefense;

  00620	8b be 74 04 00
	00		 mov	 edi, DWORD PTR [esi+1140]
  00626	03 be 70 04 00
	00		 add	 edi, DWORD PTR [esi+1136]
  0062c	2b 7d 0c	 sub	 edi, DWORD PTR _targetDefense$[ebp]

; 3742 : 		}
; 3743 : 		ad -= lpObj->SetOpAddCriticalDamage; //season4 add-on

  0062f	0f bf 96 2a 11
	00 00		 movsx	 edx, WORD PTR [esi+4394]
  00636	2b fa		 sub	 edi, edx

; 3744 : 	}
; 3745 : 	else if ( (Left->m_Type >= ITEMGET(4, 0) && Left->m_Type < ITEMGET(4, 7)) ||

  00638	e9 2a 02 00 00	 jmp	 $LN60@GetAttackD@3
$LN69@GetAttackD@3:

; 3746 : 			 Left->m_Type == ITEMGET(4,20) || Left->m_Type == ITEMGET(4,21)  ||
; 3747 : 			 Left->m_Type == ITEMGET(4,22) ||
; 3748 : 			 Left->m_Type == ITEMGET(4,23)) //season4 add-on

  0063d	8b 45 cc	 mov	 eax, DWORD PTR _Left$[ebp]
  00640	0f b7 40 06	 movzx	 eax, WORD PTR [eax+6]
  00644	b9 00 08 00 00	 mov	 ecx, 2048		; 00000800H
  00649	66 3b c1	 cmp	 ax, cx
  0064c	7c 0e		 jl	 SHORT $LN63@GetAttackD@3
  0064e	ba 07 08 00 00	 mov	 edx, 2055		; 00000807H
  00653	66 3b c2	 cmp	 ax, dx
  00656	0f 8c b4 01 00
	00		 jl	 $LN64@GetAttackD@3
$LN63@GetAttackD@3:
  0065c	b9 14 08 00 00	 mov	 ecx, 2068		; 00000814H
  00661	66 3b c1	 cmp	 ax, cx
  00664	0f 84 a6 01 00
	00		 je	 $LN64@GetAttackD@3
  0066a	ba 15 08 00 00	 mov	 edx, 2069		; 00000815H
  0066f	66 3b c2	 cmp	 ax, dx
  00672	0f 84 98 01 00
	00		 je	 $LN64@GetAttackD@3
  00678	b9 16 08 00 00	 mov	 ecx, 2070		; 00000816H
  0067d	66 3b c1	 cmp	 ax, cx
  00680	0f 84 8a 01 00
	00		 je	 $LN64@GetAttackD@3
  00686	ba 17 08 00 00	 mov	 edx, 2071		; 00000817H
  0068b	66 3b c2	 cmp	 ax, dx
  0068e	0f 84 7c 01 00
	00		 je	 $LN64@GetAttackD@3

; 3762 : 		}
; 3763 : 
; 3764 : 	}
; 3765 : 	else if ( (Right->m_Type >= ITEMGET(4, 8) && Right->m_Type < ITEMGET(4, 15)) ||
; 3766 : 			  ( Right->m_Type >= ITEMGET(4,16) && Right->m_Type < ITEMGET(5,0) )  )

  00694	8b 45 b8	 mov	 eax, DWORD PTR _Right$[ebp]
  00697	0f b7 40 06	 movzx	 eax, WORD PTR [eax+6]
  0069b	b9 08 08 00 00	 mov	 ecx, 2056		; 00000808H
  006a0	66 3b c1	 cmp	 ax, cx
  006a3	7c 0a		 jl	 SHORT $LN56@GetAttackD@3
  006a5	ba 0f 08 00 00	 mov	 edx, 2063		; 0000080fH
  006aa	66 3b c2	 cmp	 ax, dx
  006ad	7c 14		 jl	 SHORT $LN57@GetAttackD@3
$LN56@GetAttackD@3:
  006af	b9 10 08 00 00	 mov	 ecx, 2064		; 00000810H
  006b4	66 3b c1	 cmp	 ax, cx
  006b7	7c 63		 jl	 SHORT $LN58@GetAttackD@3
  006b9	ba 00 0a 00 00	 mov	 edx, 2560		; 00000a00H
  006be	66 3b c2	 cmp	 ax, dx
  006c1	7d 59		 jge	 SHORT $LN58@GetAttackD@3
$LN57@GetAttackD@3:

; 3767 : 	{
; 3768 : 		if ( bIsOnDuel )

  006c3	83 7d 14 00	 cmp	 DWORD PTR _bIsOnDuel$[ebp], 0
  006c7	74 26		 je	 SHORT $LN55@GetAttackD@3

; 3769 : 		{
; 3770 : 			ad = ( lpObj->m_AttackDamageRight ) * 60 / 100 - targetDefense;

  006c9	8b 86 74 04 00
	00		 mov	 eax, DWORD PTR [esi+1140]
  006cf	8b c8		 mov	 ecx, eax
  006d1	c1 e1 04	 shl	 ecx, 4
  006d4	2b c8		 sub	 ecx, eax
  006d6	03 c9		 add	 ecx, ecx
  006d8	03 c9		 add	 ecx, ecx
  006da	b8 1f 85 eb 51	 mov	 eax, 1374389535		; 51eb851fH
  006df	f7 e9		 imul	 ecx
  006e1	c1 fa 05	 sar	 edx, 5
  006e4	8b c2		 mov	 eax, edx
  006e6	c1 e8 1f	 shr	 eax, 31			; 0000001fH
  006e9	03 c2		 add	 eax, edx
  006eb	8b f8		 mov	 edi, eax

; 3771 : 		}
; 3772 : 		else

  006ed	eb 06		 jmp	 SHORT $LN173@GetAttackD@3
$LN55@GetAttackD@3:

; 3773 : 		{
; 3774 : 			ad = lpObj->m_AttackDamageRight - targetDefense;

  006ef	8b be 74 04 00
	00		 mov	 edi, DWORD PTR [esi+1140]
$LN173@GetAttackD@3:
  006f5	2b 7d 0c	 sub	 edi, DWORD PTR _targetDefense$[ebp]
  006f8	89 7d 0c	 mov	 DWORD PTR _ad$[ebp], edi

; 3775 : 		}
; 3776 : 
; 3777 : 		if( lpObj->m_MPSkillOpt.MpsCrossbowStrength > 0.0f )

  006fb	d9 ee		 fldz
  006fd	d8 9e b4 26 00
	00		 fcomp	 DWORD PTR [esi+9908]
  00703	df e0		 fnstsw	 ax
  00705	f6 c4 05	 test	 ah, 5
  00708	0f 8a 59 01 00
	00		 jp	 $LN60@GetAttackD@3

; 3778 : 		{
; 3779 : 			ad += lpObj->m_MPSkillOpt.MpsCrossbowStrength;

  0070e	db 45 0c	 fild	 DWORD PTR _ad$[ebp]
  00711	d8 86 b4 26 00
	00		 fadd	 DWORD PTR [esi+9908]

; 3780 : 		}
; 3781 : 
; 3782 : 	}

  00717	e9 44 01 00 00	 jmp	 $LN174@GetAttackD@3
$LN58@GetAttackD@3:

; 3783 : 	else if ( Right->m_Type >= ITEMGET(0,0) && Right->m_Type < ITEMGET(4,0) )

  0071c	66 85 c0	 test	 ax, ax
  0071f	78 63		 js	 SHORT $LN51@GetAttackD@3
  00721	b9 00 08 00 00	 mov	 ecx, 2048		; 00000800H
  00726	66 3b c1	 cmp	 ax, cx
  00729	7d 59		 jge	 SHORT $LN51@GetAttackD@3

; 3784 : 	{
; 3785 : 		if ( bIsOnDuel )

  0072b	83 7d 14 00	 cmp	 DWORD PTR _bIsOnDuel$[ebp], 0
  0072f	74 26		 je	 SHORT $LN50@GetAttackD@3

; 3786 : 		{
; 3787 : 			ad = ( lpObj->m_AttackDamageRight ) * 60 / 100 - targetDefense;

  00731	8b 86 74 04 00
	00		 mov	 eax, DWORD PTR [esi+1140]
  00737	8b c8		 mov	 ecx, eax
  00739	c1 e1 04	 shl	 ecx, 4
  0073c	2b c8		 sub	 ecx, eax
  0073e	03 c9		 add	 ecx, ecx
  00740	03 c9		 add	 ecx, ecx
  00742	b8 1f 85 eb 51	 mov	 eax, 1374389535		; 51eb851fH
  00747	f7 e9		 imul	 ecx
  00749	c1 fa 05	 sar	 edx, 5
  0074c	8b c2		 mov	 eax, edx
  0074e	c1 e8 1f	 shr	 eax, 31			; 0000001fH
  00751	03 c2		 add	 eax, edx
  00753	8b f8		 mov	 edi, eax

; 3788 : 		}
; 3789 : 		else

  00755	eb 06		 jmp	 SHORT $LN175@GetAttackD@3
$LN50@GetAttackD@3:

; 3790 : 		{
; 3791 : 			ad = lpObj->m_AttackDamageRight - targetDefense;

  00757	8b be 74 04 00
	00		 mov	 edi, DWORD PTR [esi+1140]
$LN175@GetAttackD@3:
  0075d	2b 7d 0c	 sub	 edi, DWORD PTR _targetDefense$[ebp]
  00760	89 7d 0c	 mov	 DWORD PTR _ad$[ebp], edi

; 3792 : 		}
; 3793 : 
; 3794 : 		if( lpObj->m_MPSkillOpt.MpsTwoHandSwordStrength > 0.0f )

  00763	d9 ee		 fldz
  00765	d8 9e 70 26 00
	00		 fcomp	 DWORD PTR [esi+9840]
  0076b	df e0		 fnstsw	 ax
  0076d	f6 c4 05	 test	 ah, 5
  00770	0f 8a f1 00 00
	00		 jp	 $LN60@GetAttackD@3

; 3795 : 		{
; 3796 : 			ad += lpObj->m_MPSkillOpt.MpsTwoHandSwordStrength;

  00776	db 45 0c	 fild	 DWORD PTR _ad$[ebp]
  00779	d8 86 70 26 00
	00		 fadd	 DWORD PTR [esi+9840]

; 3797 : 		}
; 3798 : 
; 3799 : 	}

  0077f	e9 dc 00 00 00	 jmp	 $LN174@GetAttackD@3
$LN51@GetAttackD@3:

; 3800 : 	else if ( Right->m_Type >= ITEMGET(5,0) && Right->m_Type < ITEMGET(6,0) )

  00784	b9 00 0a 00 00	 mov	 ecx, 2560		; 00000a00H
  00789	66 3b c1	 cmp	 ax, cx
  0078c	7c 4a		 jl	 SHORT $LN46@GetAttackD@3
  0078e	ba 00 0c 00 00	 mov	 edx, 3072		; 00000c00H
  00793	66 3b c2	 cmp	 ax, dx
  00796	7d 40		 jge	 SHORT $LN46@GetAttackD@3

; 3801 : 	{
; 3802 : 		if ( bIsOnDuel )

  00798	83 7d 14 00	 cmp	 DWORD PTR _bIsOnDuel$[ebp], 0
  0079c	74 2c		 je	 SHORT $LN45@GetAttackD@3

; 3803 : 		{
; 3804 : 			ad = ( lpObj->m_AttackDamageRight ) * 60 / 100 - targetDefense;

  0079e	8b 86 74 04 00
	00		 mov	 eax, DWORD PTR [esi+1140]
  007a4	8b c8		 mov	 ecx, eax
  007a6	c1 e1 04	 shl	 ecx, 4
  007a9	2b c8		 sub	 ecx, eax
  007ab	03 c9		 add	 ecx, ecx
  007ad	03 c9		 add	 ecx, ecx
  007af	b8 1f 85 eb 51	 mov	 eax, 1374389535		; 51eb851fH
  007b4	f7 e9		 imul	 ecx
  007b6	c1 fa 05	 sar	 edx, 5
  007b9	8b c2		 mov	 eax, edx
  007bb	c1 e8 1f	 shr	 eax, 31			; 0000001fH
  007be	03 c2		 add	 eax, edx
  007c0	8b f8		 mov	 edi, eax
  007c2	2b 7d 0c	 sub	 edi, DWORD PTR _targetDefense$[ebp]

; 3805 : 		}
; 3806 : 		else

  007c5	e9 9d 00 00 00	 jmp	 $LN60@GetAttackD@3
$LN45@GetAttackD@3:

; 3807 : 		{
; 3808 : 			ad = lpObj->m_AttackDamageRight - targetDefense;

  007ca	8b be 74 04 00
	00		 mov	 edi, DWORD PTR [esi+1140]
  007d0	2b 7d 0c	 sub	 edi, DWORD PTR _targetDefense$[ebp]

; 3809 : 		}

  007d3	e9 8f 00 00 00	 jmp	 $LN60@GetAttackD@3
$LN46@GetAttackD@3:

; 3810 : 	}
; 3811 : 	else if ( bIsOnDuel )

  007d8	83 7d 14 00	 cmp	 DWORD PTR _bIsOnDuel$[ebp], 0
  007dc	74 27		 je	 SHORT $LN42@GetAttackD@3

; 3812 : 	{
; 3813 : 		ad = ( lpObj->m_AttackDamageLeft ) * 60 / 100 - targetDefense;

  007de	8b 86 70 04 00
	00		 mov	 eax, DWORD PTR [esi+1136]
  007e4	8b c8		 mov	 ecx, eax
  007e6	c1 e1 04	 shl	 ecx, 4
  007e9	2b c8		 sub	 ecx, eax
  007eb	03 c9		 add	 ecx, ecx
  007ed	03 c9		 add	 ecx, ecx
  007ef	b8 1f 85 eb 51	 mov	 eax, 1374389535		; 51eb851fH
  007f4	f7 e9		 imul	 ecx
  007f6	c1 fa 05	 sar	 edx, 5
  007f9	8b fa		 mov	 edi, edx
  007fb	c1 ef 1f	 shr	 edi, 31			; 0000001fH
  007fe	03 fa		 add	 edi, edx
  00800	2b 7d 0c	 sub	 edi, DWORD PTR _targetDefense$[ebp]

; 3814 : 	}
; 3815 : 	else

  00803	eb 62		 jmp	 SHORT $LN60@GetAttackD@3
$LN42@GetAttackD@3:

; 3816 : 	{
; 3817 : 		ad = lpObj->m_AttackDamageLeft - targetDefense;

  00805	8b be 70 04 00
	00		 mov	 edi, DWORD PTR [esi+1136]
  0080b	2b 7d 0c	 sub	 edi, DWORD PTR _targetDefense$[ebp]
  0080e	eb 57		 jmp	 SHORT $LN60@GetAttackD@3
$LN64@GetAttackD@3:

; 3749 : 	{
; 3750 : 		if ( bIsOnDuel )

  00810	83 7d 14 00	 cmp	 DWORD PTR _bIsOnDuel$[ebp], 0
  00814	74 26		 je	 SHORT $LN62@GetAttackD@3

; 3751 : 		{
; 3752 : 			ad = ( lpObj->m_AttackDamageLeft ) * 60 / 100 - targetDefense;

  00816	8b 86 70 04 00
	00		 mov	 eax, DWORD PTR [esi+1136]
  0081c	8b c8		 mov	 ecx, eax
  0081e	c1 e1 04	 shl	 ecx, 4
  00821	2b c8		 sub	 ecx, eax
  00823	03 c9		 add	 ecx, ecx
  00825	03 c9		 add	 ecx, ecx
  00827	b8 1f 85 eb 51	 mov	 eax, 1374389535		; 51eb851fH
  0082c	f7 e9		 imul	 ecx
  0082e	c1 fa 05	 sar	 edx, 5
  00831	8b c2		 mov	 eax, edx
  00833	c1 e8 1f	 shr	 eax, 31			; 0000001fH
  00836	03 c2		 add	 eax, edx
  00838	8b f8		 mov	 edi, eax

; 3753 : 		}
; 3754 : 		else

  0083a	eb 06		 jmp	 SHORT $LN176@GetAttackD@3
$LN62@GetAttackD@3:

; 3755 : 		{
; 3756 : 			ad = lpObj->m_AttackDamageLeft - targetDefense;

  0083c	8b be 70 04 00
	00		 mov	 edi, DWORD PTR [esi+1136]
$LN176@GetAttackD@3:
  00842	2b 7d 0c	 sub	 edi, DWORD PTR _targetDefense$[ebp]
  00845	89 7d 0c	 mov	 DWORD PTR _ad$[ebp], edi

; 3757 : 		}
; 3758 : 
; 3759 : 		if( lpObj->m_MPSkillOpt.MpsBowStrength > 0.0f )

  00848	d9 ee		 fldz
  0084a	d8 9e ac 26 00
	00		 fcomp	 DWORD PTR [esi+9900]
  00850	df e0		 fnstsw	 ax
  00852	f6 c4 05	 test	 ah, 5
  00855	7a 10		 jp	 SHORT $LN60@GetAttackD@3

; 3760 : 		{
; 3761 : 			ad += lpObj->m_MPSkillOpt.MpsBowStrength;

  00857	db 45 0c	 fild	 DWORD PTR _ad$[ebp]
  0085a	d8 86 ac 26 00
	00		 fadd	 DWORD PTR [esi+9900]
$LN174@GetAttackD@3:
  00860	e8 00 00 00 00	 call	 __ftol2_sse
  00865	8b f8		 mov	 edi, eax
$LN60@GetAttackD@3:

; 3818 : 	}
; 3819 : 
; 3820 : 	if ( lpObj->SetOpTwoHandSwordImproveDamage )

  00867	8a 86 40 11 00
	00		 mov	 al, BYTE PTR [esi+4416]
  0086d	84 c0		 test	 al, al
  0086f	74 19		 je	 SHORT $LN40@GetAttackD@3

; 3821 : 	{
; 3822 : 		ad += ad * lpObj->SetOpTwoHandSwordImproveDamage  / 100;

  00871	0f b6 c8	 movzx	 ecx, al
  00874	0f af cf	 imul	 ecx, edi
  00877	b8 1f 85 eb 51	 mov	 eax, 1374389535		; 51eb851fH
  0087c	f7 e9		 imul	 ecx
  0087e	c1 fa 05	 sar	 edx, 5
  00881	8b ca		 mov	 ecx, edx
  00883	c1 e9 1f	 shr	 ecx, 31			; 0000001fH
  00886	03 ca		 add	 ecx, edx
  00888	03 f9		 add	 edi, ecx
$LN40@GetAttackD@3:

; 3823 : 	}
; 3824 : 
; 3825 : 	int SkillAttack = 0;
; 3826 : 
; 3827 : 	SkillAttack = gObjGetActiveEffect(lpObj, ADD_OPTION_ATTACK_DAMAGE);

  0088a	6a 02		 push	 2
  0088c	56		 push	 esi
  0088d	e8 00 00 00 00	 call	 ?gObjGetActiveEffect@@YAHPAUOBJECTSTRUCT@@H@Z ; gObjGetActiveEffect
  00892	8b d8		 mov	 ebx, eax

; 3828 : 	SkillAttack += gObjGetActiveEffect(lpObj, ADD_OPTION_WRATH);

  00894	6a 0e		 push	 14			; 0000000eH
  00896	56		 push	 esi
  00897	e8 00 00 00 00	 call	 ?gObjGetActiveEffect@@YAHPAUOBJECTSTRUCT@@H@Z ; gObjGetActiveEffect
  0089c	83 c4 10	 add	 esp, 16			; 00000010H

; 3829 : 
; 3830 : 	ad += SkillAttack;

  0089f	03 c3		 add	 eax, ebx
  008a1	03 f8		 add	 edi, eax
  008a3	89 7d 0c	 mov	 DWORD PTR _ad$[ebp], edi

; 3831 : 	
; 3832 : 	if ( lpObj->m_SkillAttack )

  008a6	83 be 24 04 00
	00 00		 cmp	 DWORD PTR [esi+1060], 0
  008ad	74 06		 je	 SHORT $LN39@GetAttackD@3

; 3833 : 	{
; 3834 : 		ad += 15;

  008af	83 c7 0f	 add	 edi, 15			; 0000000fH
  008b2	89 7d 0c	 mov	 DWORD PTR _ad$[ebp], edi
$LN39@GetAttackD@3:

; 3835 : 	}
; 3836 : 
; 3837 : 	if ( lpObj->m_MonsterSkillElementInfo.m_iSkillElementAttackTime > 0 )

  008b5	83 be 2c 1c 00
	00 00		 cmp	 DWORD PTR [esi+7212], 0
  008bc	7e 10		 jle	 SHORT $LN37@GetAttackD@3

; 3838 : 	{
; 3839 : 		ad += lpObj->m_MonsterSkillElementInfo.m_iSkillElementAttack;

  008be	03 be 28 1c 00
	00		 add	 edi, DWORD PTR [esi+7208]
  008c4	89 7d 0c	 mov	 DWORD PTR _ad$[ebp], edi

; 3840 : 
; 3841 : 		if ( ad < 0 )

  008c7	79 05		 jns	 SHORT $LN37@GetAttackD@3

; 3842 : 		{
; 3843 : 			ad = 0;

  008c9	33 ff		 xor	 edi, edi
  008cb	89 7d 0c	 mov	 DWORD PTR _ad$[ebp], edi
$LN37@GetAttackD@3:

; 3844 : 		}
; 3845 : 	}
; 3846 : 
; 3847 : 	int SkillWeakness = 0;

  008ce	c7 45 bc 00 00
	00 00		 mov	 DWORD PTR _SkillWeakness$[ebp], 0

; 3848 : 
; 3849 : 	gObjUpdateAppliedBuffEffect(lpObj, AT_WEAKNESS, &SkillWeakness, 0);

  008d5	6a 00		 push	 0
  008d7	8d 55 bc	 lea	 edx, DWORD PTR _SkillWeakness$[ebp]
  008da	52		 push	 edx
  008db	6a 4c		 push	 76			; 0000004cH
  008dd	56		 push	 esi
  008de	e8 00 00 00 00	 call	 ?gObjUpdateAppliedBuffEffect@@YAEPAUOBJECTSTRUCT@@HPAH1@Z ; gObjUpdateAppliedBuffEffect
  008e3	83 c4 10	 add	 esp, 16			; 00000010H

; 3850 : 
; 3851 : 	if(SkillWeakness != 0)

  008e6	83 7d bc 00	 cmp	 DWORD PTR _SkillWeakness$[ebp], 0
  008ea	74 2a		 je	 SHORT $LN35@GetAttackD@3

; 3852 : 	{
; 3853 : 		//int Ex_WeaknessPower = GetPrivateProfileInt("Summoner","WeaknessPower",30,"..\\Data\\ZtData\\Skills.ini");
; 3854 : 		if(g_SkillAdditionInfo.WeaknessMaxPower > 0 && g_SkillAdditionInfo.WeaknessMaxPower < 100)

  008ec	a1 20 0c 00 00	 mov	 eax, DWORD PTR ?g_SkillAdditionInfo@@3VCSkillAdditionInfo@@A+3104
  008f1	8d 48 ff	 lea	 ecx, DWORD PTR [eax-1]
  008f4	66 83 f9 62	 cmp	 cx, 98			; 00000062H
  008f8	77 1c		 ja	 SHORT $LN35@GetAttackD@3

; 3855 : 		{
; 3856 : 			ad -= ( ad * g_SkillAdditionInfo.WeaknessMaxPower ) / 100;	//SkillWeakness

  008fa	0f b7 c8	 movzx	 ecx, ax
  008fd	0f af cf	 imul	 ecx, edi
  00900	b8 e1 7a 14 ae	 mov	 eax, -1374389535	; ae147ae1H
  00905	f7 e9		 imul	 ecx
  00907	c1 fa 05	 sar	 edx, 5
  0090a	8b c2		 mov	 eax, edx
  0090c	c1 e8 1f	 shr	 eax, 31			; 0000001fH
  0090f	03 c2		 add	 eax, edx
  00911	03 f8		 add	 edi, eax
  00913	89 7d 0c	 mov	 DWORD PTR _ad$[ebp], edi
$LN35@GetAttackD@3:

; 3857 : 		}
; 3858 : 		
; 3859 : 	}
; 3860 : 
; 3861 : 
; 3862 : 	float nAddAttackDamageLeft	= 0;

  00916	d9 ee		 fldz
  00918	d9 55 18	 fst	 DWORD PTR _nAddAttackDamageLeft$[ebp]

; 3863 : 	float nAddAttackDamageRight = 0;

  0091b	d9 5d 14	 fstp	 DWORD PTR _nAddAttackDamageRight$[ebp]

; 3864 : 	switch(Left->GetDetailItemType())

  0091e	8b 4d cc	 mov	 ecx, DWORD PTR _Left$[ebp]
  00921	e8 00 00 00 00	 call	 ?GetDetailItemType@CItem@@QAEHXZ ; CItem::GetDetailItemType
  00926	48		 dec	 eax
  00927	83 f8 0b	 cmp	 eax, 11			; 0000000bH
  0092a	0f 87 88 00 00
	00		 ja	 $LN23@GetAttackD@3
  00930	0f b6 88 00 00
	00 00		 movzx	 ecx, BYTE PTR $LN117@GetAttackD@3[eax]
  00937	ff 24 8d 00 00
	00 00		 jmp	 DWORD PTR $LN178@GetAttackD@3[ecx*4]
$LN32@GetAttackD@3:

; 3865 : 	{
; 3866 : 	case 1:
; 3867 : 		{
; 3868 : 			if( lpObj->m_MPSkillOpt.MpsOneHandSwordStrength > 0.0f )

  0093e	d9 ee		 fldz
  00940	d8 9e 74 26 00
	00		 fcomp	 DWORD PTR [esi+9844]
  00946	df e0		 fnstsw	 ax
  00948	f6 c4 05	 test	 ah, 5
  0094b	7a 6b		 jp	 SHORT $LN23@GetAttackD@3

; 3869 : 			{
; 3870 : 				nAddAttackDamageLeft += lpObj->m_MPSkillOpt.MpsOneHandSwordStrength;

  0094d	d9 86 74 26 00
	00		 fld	 DWORD PTR [esi+9844]

; 3871 : 			}
; 3872 : 		}
; 3873 : 		break;

  00953	eb 5a		 jmp	 SHORT $LN177@GetAttackD@3
$LN30@GetAttackD@3:

; 3874 : 	case 2:
; 3875 : 		{
; 3876 : 			if( lpObj->m_MPSkillOpt.MpsMaceStrength > 0.0f )

  00955	d9 ee		 fldz
  00957	d8 9e 78 26 00
	00		 fcomp	 DWORD PTR [esi+9848]
  0095d	df e0		 fnstsw	 ax
  0095f	f6 c4 05	 test	 ah, 5
  00962	7a 54		 jp	 SHORT $LN23@GetAttackD@3

; 3877 : 			{
; 3878 : 				nAddAttackDamageLeft += lpObj->m_MPSkillOpt.MpsMaceStrength;

  00964	d9 86 78 26 00
	00		 fld	 DWORD PTR [esi+9848]

; 3879 : 			}
; 3880 : 		}
; 3881 : 		break;

  0096a	eb 43		 jmp	 SHORT $LN177@GetAttackD@3
$LN28@GetAttackD@3:

; 3882 : 	case 3:
; 3883 : 		{
; 3884 : 			if( lpObj->m_MPSkillOpt.MpsSpearStrength > 0.0f )

  0096c	d9 ee		 fldz
  0096e	d8 9e 7c 26 00
	00		 fcomp	 DWORD PTR [esi+9852]
  00974	df e0		 fnstsw	 ax
  00976	f6 c4 05	 test	 ah, 5
  00979	7a 3d		 jp	 SHORT $LN23@GetAttackD@3

; 3885 : 			{
; 3886 : 				nAddAttackDamageLeft += lpObj->m_MPSkillOpt.MpsSpearStrength;

  0097b	d9 86 7c 26 00
	00		 fld	 DWORD PTR [esi+9852]

; 3887 : 			}
; 3888 : 		}
; 3889 : 		break;

  00981	eb 2c		 jmp	 SHORT $LN177@GetAttackD@3
$LN26@GetAttackD@3:

; 3890 : 	case 11:
; 3891 : 		{
; 3892 : 			if( lpObj->m_MPSkillOpt.MpsScepterStrength > 0.0f )

  00983	d9 ee		 fldz
  00985	d8 9e 10 27 00
	00		 fcomp	 DWORD PTR [esi+10000]
  0098b	df e0		 fnstsw	 ax
  0098d	f6 c4 05	 test	 ah, 5
  00990	7a 26		 jp	 SHORT $LN23@GetAttackD@3

; 3893 : 			{
; 3894 : 				nAddAttackDamageLeft += lpObj->m_MPSkillOpt.MpsScepterStrength;

  00992	d9 86 10 27 00
	00		 fld	 DWORD PTR [esi+10000]

; 3895 : 			}
; 3896 : 		}
; 3897 : 		break;

  00998	eb 15		 jmp	 SHORT $LN177@GetAttackD@3
$LN24@GetAttackD@3:

; 3898 : 	case 12:
; 3899 : 		{
; 3900 : 			if( lpObj->m_MPSkillOpt.MpsFistStrength > 0.0f )

  0099a	d9 ee		 fldz
  0099c	d8 9e 94 27 00
	00		 fcomp	 DWORD PTR [esi+10132]
  009a2	df e0		 fnstsw	 ax
  009a4	f6 c4 05	 test	 ah, 5
  009a7	7a 0f		 jp	 SHORT $LN23@GetAttackD@3

; 3901 : 			{
; 3902 : 				nAddAttackDamageLeft += lpObj->m_MPSkillOpt.MpsFistStrength;

  009a9	d9 86 94 27 00
	00		 fld	 DWORD PTR [esi+10132]
$LN177@GetAttackD@3:
  009af	dc 05 00 00 00
	00		 fadd	 QWORD PTR __real@0000000000000000
  009b5	d9 5d 18	 fstp	 DWORD PTR _nAddAttackDamageLeft$[ebp]
$LN23@GetAttackD@3:

; 3903 : 			}
; 3904 : 		}
; 3905 : 		break;
; 3906 : 	}
; 3907 : 
; 3908 : 	switch(Right->GetDetailItemType())

  009b8	8b 4d b8	 mov	 ecx, DWORD PTR _Right$[ebp]
  009bb	e8 00 00 00 00	 call	 ?GetDetailItemType@CItem@@QAEHXZ ; CItem::GetDetailItemType
  009c0	48		 dec	 eax
  009c1	83 f8 0b	 cmp	 eax, 11			; 0000000bH
  009c4	0f 87 b5 00 00
	00		 ja	 $LN130@GetAttackD@3
  009ca	0f b6 90 00 00
	00 00		 movzx	 edx, BYTE PTR $LN118@GetAttackD@3[eax]
  009d1	ff 24 95 00 00
	00 00		 jmp	 DWORD PTR $LN179@GetAttackD@3[edx*4]
$LN20@GetAttackD@3:

; 3909 : 	{
; 3910 : 	case 1:
; 3911 : 		{
; 3912 : 			if( lpObj->m_MPSkillOpt.MpsOneHandSwordStrength > 0.0f )

  009d8	d9 ee		 fldz
  009da	d8 96 74 26 00
	00		 fcom	 DWORD PTR [esi+9844]
  009e0	df e0		 fnstsw	 ax
  009e2	f6 c4 05	 test	 ah, 5
  009e5	0f 8a 96 00 00
	00		 jp	 $LN11@GetAttackD@3

; 3913 : 			{
; 3914 : 				nAddAttackDamageRight += lpObj->m_MPSkillOpt.MpsOneHandSwordStrength;

  009eb	d9 86 74 26 00
	00		 fld	 DWORD PTR [esi+9844]
  009f1	dc 05 00 00 00
	00		 fadd	 QWORD PTR __real@0000000000000000
  009f7	d9 5d 14	 fstp	 DWORD PTR _nAddAttackDamageRight$[ebp]

; 3915 : 			}
; 3916 : 		}
; 3917 : 		break;

  009fa	e9 82 00 00 00	 jmp	 $LN11@GetAttackD@3
$LN18@GetAttackD@3:

; 3918 : 	case 2:
; 3919 : 		{
; 3920 : 			if( lpObj->m_MPSkillOpt.MpsMaceStrength > 0.0f )

  009ff	d9 ee		 fldz
  00a01	d8 96 78 26 00
	00		 fcom	 DWORD PTR [esi+9848]
  00a07	df e0		 fnstsw	 ax
  00a09	f6 c4 05	 test	 ah, 5
  00a0c	7a 73		 jp	 SHORT $LN11@GetAttackD@3

; 3921 : 			{
; 3922 : 				nAddAttackDamageRight += lpObj->m_MPSkillOpt.MpsMaceStrength;

  00a0e	d9 86 78 26 00
	00		 fld	 DWORD PTR [esi+9848]
  00a14	dc 05 00 00 00
	00		 fadd	 QWORD PTR __real@0000000000000000
  00a1a	d9 5d 14	 fstp	 DWORD PTR _nAddAttackDamageRight$[ebp]

; 3923 : 			}
; 3924 : 		}
; 3925 : 		break;

  00a1d	eb 62		 jmp	 SHORT $LN11@GetAttackD@3
$LN16@GetAttackD@3:

; 3926 : 	case 3:
; 3927 : 		{
; 3928 : 			if( lpObj->m_MPSkillOpt.MpsSpearStrength > 0.0f )

  00a1f	d9 ee		 fldz
  00a21	d8 96 7c 26 00
	00		 fcom	 DWORD PTR [esi+9852]
  00a27	df e0		 fnstsw	 ax
  00a29	f6 c4 05	 test	 ah, 5
  00a2c	7a 53		 jp	 SHORT $LN11@GetAttackD@3

; 3929 : 			{
; 3930 : 				nAddAttackDamageRight += lpObj->m_MPSkillOpt.MpsSpearStrength;

  00a2e	d9 86 7c 26 00
	00		 fld	 DWORD PTR [esi+9852]
  00a34	dc 05 00 00 00
	00		 fadd	 QWORD PTR __real@0000000000000000
  00a3a	d9 5d 14	 fstp	 DWORD PTR _nAddAttackDamageRight$[ebp]

; 3931 : 			}
; 3932 : 		}
; 3933 : 		break;

  00a3d	eb 42		 jmp	 SHORT $LN11@GetAttackD@3
$LN14@GetAttackD@3:

; 3934 : 	case 11:
; 3935 : 		{
; 3936 : 			if( lpObj->m_MPSkillOpt.MpsScepterStrength > 0.0f )

  00a3f	d9 ee		 fldz
  00a41	d8 96 10 27 00
	00		 fcom	 DWORD PTR [esi+10000]
  00a47	df e0		 fnstsw	 ax
  00a49	f6 c4 05	 test	 ah, 5
  00a4c	7a 33		 jp	 SHORT $LN11@GetAttackD@3

; 3937 : 			{
; 3938 : 				nAddAttackDamageRight += lpObj->m_MPSkillOpt.MpsScepterStrength;

  00a4e	d9 86 10 27 00
	00		 fld	 DWORD PTR [esi+10000]
  00a54	dc 05 00 00 00
	00		 fadd	 QWORD PTR __real@0000000000000000
  00a5a	d9 5d 14	 fstp	 DWORD PTR _nAddAttackDamageRight$[ebp]

; 3939 : 			}
; 3940 : 		}
; 3941 : 		break;

  00a5d	eb 22		 jmp	 SHORT $LN11@GetAttackD@3
$LN12@GetAttackD@3:

; 3942 : 	case 12:
; 3943 : 		{
; 3944 : 			if( lpObj->m_MPSkillOpt.MpsFistStrength > 0.0f )

  00a5f	d9 ee		 fldz
  00a61	d8 96 94 27 00
	00		 fcom	 DWORD PTR [esi+10132]
  00a67	df e0		 fnstsw	 ax
  00a69	f6 c4 05	 test	 ah, 5
  00a6c	7a 13		 jp	 SHORT $LN11@GetAttackD@3

; 3945 : 			{
; 3946 : 				nAddAttackDamageRight += lpObj->m_MPSkillOpt.MpsFistStrength;

  00a6e	d9 86 94 27 00
	00		 fld	 DWORD PTR [esi+10132]
  00a74	dc 05 00 00 00
	00		 fadd	 QWORD PTR __real@0000000000000000
  00a7a	d9 5d 14	 fstp	 DWORD PTR _nAddAttackDamageRight$[ebp]
  00a7d	eb 02		 jmp	 SHORT $LN11@GetAttackD@3
$LN130@GetAttackD@3:
  00a7f	d9 ee		 fldz
$LN11@GetAttackD@3:

; 3953 : 	{
; 3954 : 		ad += nAddAttackDamageRight * 0.5f + nAddAttackDamageLeft * 0.5f;

  00a81	d9 45 14	 fld	 DWORD PTR _nAddAttackDamageRight$[ebp]

; 3947 : 			}
; 3948 : 		}
; 3949 : 		break;
; 3950 : 	}
; 3951 : 
; 3952 : 	if( bTwoHandWeapon )

  00a84	83 7d c8 00	 cmp	 DWORD PTR _bTwoHandWeapon$[ebp], 0
  00a88	74 1c		 je	 SHORT $LN10@GetAttackD@3

; 3953 : 	{
; 3954 : 		ad += nAddAttackDamageRight * 0.5f + nAddAttackDamageLeft * 0.5f;

  00a8a	dd 05 00 00 00
	00		 fld	 QWORD PTR __real@3fe0000000000000
  00a90	dc c9		 fmul	 ST(1), ST(0)
  00a92	d8 4d 18	 fmul	 DWORD PTR _nAddAttackDamageLeft$[ebp]
  00a95	de c1		 faddp	 ST(1), ST(0)
  00a97	da 45 0c	 fiadd	 DWORD PTR _ad$[ebp]
  00a9a	e8 00 00 00 00	 call	 __ftol2_sse
  00a9f	8b d8		 mov	 ebx, eax
  00aa1	89 5d 0c	 mov	 DWORD PTR _ad$[ebp], ebx

; 3955 : 	}
; 3956 : 	else

  00aa4	eb 10		 jmp	 SHORT $LN9@GetAttackD@3
$LN10@GetAttackD@3:

; 3957 : 	{
; 3958 : 		ad += nAddAttackDamageRight + nAddAttackDamageLeft;

  00aa6	d8 45 18	 fadd	 DWORD PTR _nAddAttackDamageLeft$[ebp]
  00aa9	da 45 0c	 fiadd	 DWORD PTR _ad$[ebp]
  00aac	e8 00 00 00 00	 call	 __ftol2_sse
  00ab1	8b d8		 mov	 ebx, eax
  00ab3	89 45 0c	 mov	 DWORD PTR _ad$[ebp], eax
$LN9@GetAttackD@3:

; 3959 : 	}
; 3960 : 
; 3961 : 	if( lpObj->Class == CLASS_KNIGHT 
; 3962 : 		|| lpObj->Class == CLASS_MAGUMSA 
; 3963 : 		|| lpObj->Class == CLASS_DARKLORD 
; 3964 : #ifdef MONK
; 3965 : 		|| lpObj->Class == CLASS_MONK 
; 3966 : #endif
; 3967 : 		)

  00ab6	0f b7 be b8 00
	00 00		 movzx	 edi, WORD PTR [esi+184]
  00abd	83 ff 01	 cmp	 edi, 1
  00ac0	74 0f		 je	 SHORT $LN7@GetAttackD@3
  00ac2	83 ff 03	 cmp	 edi, 3
  00ac5	74 0a		 je	 SHORT $LN7@GetAttackD@3
  00ac7	83 ff 04	 cmp	 edi, 4
  00aca	74 05		 je	 SHORT $LN7@GetAttackD@3
  00acc	83 ff 06	 cmp	 edi, 6
  00acf	75 20		 jne	 SHORT $LN6@GetAttackD@3
$LN7@GetAttackD@3:

; 3968 : 	{
; 3969 : 		if( lpObj->m_MPSkillOpt.MpsWeaponMastery > 0.0f )

  00ad1	d8 96 6c 26 00
	00		 fcom	 DWORD PTR [esi+9836]
  00ad7	df e0		 fnstsw	 ax
  00ad9	f6 c4 05	 test	 ah, 5
  00adc	7a 13		 jp	 SHORT $LN6@GetAttackD@3

; 3970 : 		{
; 3971 : 			ad += lpObj->m_MPSkillOpt.MpsWeaponMastery;

  00ade	db 45 0c	 fild	 DWORD PTR _ad$[ebp]
  00ae1	d8 86 6c 26 00
	00		 fadd	 DWORD PTR [esi+9836]
  00ae7	e8 00 00 00 00	 call	 __ftol2_sse
  00aec	8b d8		 mov	 ebx, eax
  00aee	89 5d 0c	 mov	 DWORD PTR _ad$[ebp], ebx
$LN6@GetAttackD@3:

; 3972 : 		}
; 3973 : 	}
; 3974 : 
; 3975 : 	if( lpObj->Class == CLASS_ELF )

  00af1	83 ff 02	 cmp	 edi, 2
  00af4	75 1d		 jne	 SHORT $LN4@GetAttackD@3

; 3976 : 	{
; 3977 : 		if( lpObj->m_MPSkillOpt.MpsWeaponMastery2 > 0.0f )

  00af6	d8 96 bc 26 00
	00		 fcom	 DWORD PTR [esi+9916]
  00afc	df e0		 fnstsw	 ax
  00afe	f6 c4 05	 test	 ah, 5
  00b01	7a 10		 jp	 SHORT $LN4@GetAttackD@3

; 3978 : 		{
; 3979 : 			ad += lpObj->m_MPSkillOpt.MpsWeaponMastery2;

  00b03	db 45 0c	 fild	 DWORD PTR _ad$[ebp]
  00b06	d8 86 bc 26 00
	00		 fadd	 DWORD PTR [esi+9916]
  00b0c	e8 00 00 00 00	 call	 __ftol2_sse
  00b11	8b d8		 mov	 ebx, eax
$LN4@GetAttackD@3:

; 3980 : 		}
; 3981 : 	}
; 3982 : 
; 3983 : 	if( lpObj->m_MPSkillOpt.MpsCommandAttackInc > 0.0f )

  00b13	d8 9e 24 27 00
	00		 fcomp	 DWORD PTR [esi+10020]
  00b19	df e0		 fnstsw	 ax
  00b1b	f6 c4 05	 test	 ah, 5
  00b1e	7a 49		 jp	 SHORT $LN2@GetAttackD@3

; 3984 : 	{
; 3985 : 		if( lpObj->pInventory[0].GetDetailItemType() == 11 || lpObj->pInventory[1].GetDetailItemType() == 11 )

  00b20	8b 8e 24 0e 00
	00		 mov	 ecx, DWORD PTR [esi+3620]
  00b26	e8 00 00 00 00	 call	 ?GetDetailItemType@CItem@@QAEHXZ ; CItem::GetDetailItemType
  00b2b	83 f8 0b	 cmp	 eax, 11			; 0000000bH
  00b2e	74 16		 je	 SHORT $LN1@GetAttackD@3
  00b30	8b 8e 24 0e 00
	00		 mov	 ecx, DWORD PTR [esi+3620]
  00b36	81 c1 d4 00 00
	00		 add	 ecx, 212		; 000000d4H
  00b3c	e8 00 00 00 00	 call	 ?GetDetailItemType@CItem@@QAEHXZ ; CItem::GetDetailItemType
  00b41	83 f8 0b	 cmp	 eax, 11			; 0000000bH
  00b44	75 23		 jne	 SHORT $LN2@GetAttackD@3
$LN1@GetAttackD@3:

; 3988 : 			ad += nAddAttack;

  00b46	0f b7 86 1a 01
	00 00		 movzx	 eax, WORD PTR [esi+282]
  00b4d	0f b7 8e 18 01
	00 00		 movzx	 ecx, WORD PTR [esi+280]

; 3986 : 		{
; 3987 : 			int nAddAttack = (lpObj->AddLeadership + lpObj->Leadership) / lpObj->m_MPSkillOpt.MpsCommandAttackInc;

  00b54	03 c1		 add	 eax, ecx

; 3988 : 			ad += nAddAttack;

  00b56	89 45 0c	 mov	 DWORD PTR tv1075[ebp], eax
  00b59	db 45 0c	 fild	 DWORD PTR tv1075[ebp]
  00b5c	d8 b6 24 27 00
	00		 fdiv	 DWORD PTR [esi+10020]
  00b62	e8 00 00 00 00	 call	 __ftol2_sse
  00b67	03 d8		 add	 ebx, eax
$LN2@GetAttackD@3:

; 3989 : 		}
; 3990 : 	}
; 3991 : 
; 3992 : 	return ad;

  00b69	8b c3		 mov	 eax, ebx

; 3993 : }

  00b6b	8b 4d f0	 mov	 ecx, DWORD PTR __$SEHRec$[ebp+8]
  00b6e	64 89 0d 00 00
	00 00		 mov	 DWORD PTR fs:0, ecx
  00b75	59		 pop	 ecx
  00b76	5f		 pop	 edi
  00b77	5e		 pop	 esi
  00b78	5b		 pop	 ebx
  00b79	8b e5		 mov	 esp, ebp
  00b7b	5d		 pop	 ebp
  00b7c	c2 14 00	 ret	 20			; 00000014H
  00b7f	90		 npad	 1
$LN178@GetAttackD@3:
  00b80	00 00 00 00	 DD	 $LN32@GetAttackD@3
  00b84	00 00 00 00	 DD	 $LN30@GetAttackD@3
  00b88	00 00 00 00	 DD	 $LN28@GetAttackD@3
  00b8c	00 00 00 00	 DD	 $LN26@GetAttackD@3
  00b90	00 00 00 00	 DD	 $LN24@GetAttackD@3
  00b94	00 00 00 00	 DD	 $LN23@GetAttackD@3
$LN117@GetAttackD@3:
  00b98	00		 DB	 0
  00b99	01		 DB	 1
  00b9a	02		 DB	 2
  00b9b	05		 DB	 5
  00b9c	05		 DB	 5
  00b9d	05		 DB	 5
  00b9e	05		 DB	 5
  00b9f	05		 DB	 5
  00ba0	05		 DB	 5
  00ba1	05		 DB	 5
  00ba2	03		 DB	 3
  00ba3	04		 DB	 4
$LN179@GetAttackD@3:
  00ba4	00 00 00 00	 DD	 $LN20@GetAttackD@3
  00ba8	00 00 00 00	 DD	 $LN18@GetAttackD@3
  00bac	00 00 00 00	 DD	 $LN16@GetAttackD@3
  00bb0	00 00 00 00	 DD	 $LN14@GetAttackD@3
  00bb4	00 00 00 00	 DD	 $LN12@GetAttackD@3
  00bb8	00 00 00 00	 DD	 $LN130@GetAttackD@3
$LN118@GetAttackD@3:
  00bbc	00		 DB	 0
  00bbd	01		 DB	 1
  00bbe	02		 DB	 2
  00bbf	05		 DB	 5
  00bc0	05		 DB	 5
  00bc1	05		 DB	 5
  00bc2	05		 DB	 5
  00bc3	05		 DB	 5
  00bc4	05		 DB	 5
  00bc5	05		 DB	 5
  00bc6	03		 DB	 3
  00bc7	04		 DB	 4
?GetAttackDamage@CObjAttack@@QAEHPAUOBJECTSTRUCT@@HAAEHPAVCMagicInf@@@Z ENDP ; CObjAttack::GetAttackDamage
_TEXT	ENDS
PUBLIC	??_C@_0FB@HEJCKECH@?$FLPvP?5System?$FN?5Victim?3?$FL?$CFs?$FN?$FL?$CFs?$FN?0?5At@ ; `string'
PUBLIC	??_C@_0DB@MDAHJJLM@error?9Level1?5?3?5?$FL?$CFs?$FN?$FL?$CFs?$FN?5Str?3?$CFd?5?$CF@ ; `string'
PUBLIC	__real@3f800000
PUBLIC	__real@4014000000000000
PUBLIC	__real@408f400000000000
PUBLIC	__real@4002666666666666
PUBLIC	__real@400199999999999a
PUBLIC	__real@404e000000000000
PUBLIC	__real@4004000000000000
PUBLIC	__real@3ff0000000000000
PUBLIC	__real@4024000000000000
PUBLIC	__real@4010000000000000
PUBLIC	??_C@_08FOLAHAHG@CRITICAL?$AA@			; `string'
PUBLIC	__real@4008000000000000
PUBLIC	__real@4000000000000000
PUBLIC	??_C@_0BH@NMKEOPCM@?$CFs?5AttackDamage?3?5?$CFd?5?$CFd?$AA@ ; `string'
PUBLIC	??_C@_09PBMNMIBJ@EXCELLENT?$AA@			; `string'
PUBLIC	_this$GSCopy$
PUBLIC	_lpMagic$GSCopy$
PUBLIC	__$ArrayPad$
PUBLIC	?Attack@CObjAttack@@QAEHPAUOBJECTSTRUCT@@0PAVCMagicInf@@HEHHEE@Z ; CObjAttack::Attack
EXTRN	?GCDamageTable@ZtUser@@QAEXH@Z:PROC		; ZtUser::GCDamageTable
EXTRN	?SpecificSkillAdditionTreat@CObjUseSkill@@QAEXPAUOBJECTSTRUCT@@0PAVCMagicInf@@H@Z:PROC ; CObjUseSkill::SpecificSkillAdditionTreat
EXTRN	?gObjLifeCheck@@YAXPAUOBJECTSTRUCT@@0HHHHGH@Z:PROC ; gObjLifeCheck
EXTRN	?FireScreamExplosionAttack@CObjUseSkill@@QAEHPAUOBJECTSTRUCT@@0H@Z:PROC ; CObjUseSkill::FireScreamExplosionAttack
EXTRN	?LogAdd@@3P6AXPADZZA:DWORD			; LogAdd
EXTRN	?GCManaSend@@YAXHHEEH@Z:PROC			; GCManaSend
EXTRN	?gObjUniriaSprite@@YAHPAUOBJECTSTRUCT@@@Z:PROC	; gObjUniriaSprite
EXTRN	?GCActionSend@@YAXPAUOBJECTSTRUCT@@EHH@Z:PROC	; GCActionSend
EXTRN	?gObjCheckSelfDefense@@YAXPAUOBJECTSTRUCT@@H@Z:PROC ; gObjCheckSelfDefense
EXTRN	?GetPkLevel@PartyClass@@QAEDH@Z:PROC		; PartyClass::GetPkLevel
EXTRN	?gParty@@3VPartyClass@@A:BYTE			; gParty
EXTRN	?gObjTargetGuildWarCheck@@YAHPAUOBJECTSTRUCT@@0@Z:PROC ; gObjTargetGuildWarCheck
EXTRN	?gObjRemoveBuffEffect@@YAEPAUOBJECTSTRUCT@@H@Z:PROC ; gObjRemoveBuffEffect
EXTRN	?GCMagicCancelSend@@YAXPAUOBJECTSTRUCT@@G@Z:PROC ; GCMagicCancelSend
EXTRN	?gObjUpdateSpecificBuffEffectDuration@@YAEPAUOBJECTSTRUCT@@HH@Z:PROC ; gObjUpdateSpecificBuffEffectDuration
EXTRN	?gObjArmorRandomDurDown@@YAXPAUOBJECTSTRUCT@@0@Z:PROC ; gObjArmorRandomDurDown
EXTRN	?gObjGetRelationShip@@YAHPAUOBJECTSTRUCT@@0@Z:PROC ; gObjGetRelationShip
EXTRN	?IncAgro@TMonsterAIAgro@@QAEHHH@Z:PROC		; TMonsterAIAgro::IncAgro
EXTRN	?GCItemDurSend@@YAXHEEE@Z:PROC			; GCItemDurSend
EXTRN	?IsLuckyItemEquipment@LuckyItemManager@@QAEHH@Z:PROC ; LuckyItemManager::IsLuckyItemEquipment
EXTRN	?g_LuckyItemManager@@3ULuckyItemManager@@A:BYTE	; g_LuckyItemManager
EXTRN	?AttackDamageRG@cSystemOfRage@@QAEXPAUOBJECTSTRUCT@@0AAH_N@Z:PROC ; cSystemOfRage::AttackDamageRG
EXTRN	?IsFenrirDecLastAttackDamage@CItem@@QAEHXZ:PROC	; CItem::IsFenrirDecLastAttackDamage
EXTRN	?IsFenrirIncLastAttackDamage@CItem@@QAEHXZ:PROC	; CItem::IsFenrirIncLastAttackDamage
EXTRN	?gObjWeaponDurDownInCastle@@YAXPAUOBJECTSTRUCT@@0H@Z:PROC ; gObjWeaponDurDownInCastle
EXTRN	?GetAltarUserIndex@CCrywolfAltar@@QAEHH@Z:PROC	; CCrywolfAltar::GetAltarUserIndex
EXTRN	?g_CrywolfNPC_Altar@@3VCCrywolfAltar@@A:BYTE	; g_CrywolfNPC_Altar
EXTRN	?Main@cBalanceSystem@@QAEXPAUOBJECTSTRUCT@@0AAH@Z:PROC ; cBalanceSystem::Main
EXTRN	?gBalanceSystem@@3VcBalanceSystem@@A:BYTE	; gBalanceSystem
EXTRN	?gObjBackSpring2@@YAHPAUOBJECTSTRUCT@@0H@Z:PROC	; gObjBackSpring2
EXTRN	?g_UserConfig@@3VCUserConfig@@A:BYTE		; g_UserConfig
EXTRN	?gObjBackSpring@@YAHPAUOBJECTSTRUCT@@0@Z:PROC	; gObjBackSpring
EXTRN	?gObjCheckBuffEffectValue@@YAEPAUOBJECTSTRUCT@@HHH@Z:PROC ; gObjCheckBuffEffectValue
EXTRN	?SkillEletrictSurgeProc@CObjUseSkill@@QAEHPAUOBJECTSTRUCT@@0HHHH@Z:PROC ; CObjUseSkill::SkillEletrictSurgeProc
EXTRN	?GetMasterSkillValue@CMasterLevelSkillTreeSystem@@QAEMHH@Z:PROC ; CMasterLevelSkillTreeSystem::GetMasterSkillValue
EXTRN	?SkillGet@CMagicDamage@@QAEHH@Z:PROC		; CMagicDamage::SkillGet
EXTRN	?ZtConfig@@3VcZtConfigs@@A:BYTE			; ZtConfig
EXTRN	?SetCharHorseAttack@cWingsDamage@@QAEXHHHAAH@Z:PROC ; cWingsDamage::SetCharHorseAttack
EXTRN	?IsDinorantReduceAttackDamaege@CItem@@QAEHXZ:PROC ; CItem::IsDinorantReduceAttackDamaege
EXTRN	?SetCharWingAbsurd@cWingsDamage@@QAEXHHHAAH@Z:PROC ; cWingsDamage::SetCharWingAbsurd
EXTRN	?Defence@cWingsDamage@@QAEXHAAH@Z:PROC		; cWingsDamage::Defence
EXTRN	?gObjAddMsgSendDelay@@YAXPAUOBJECTSTRUCT@@HHHH@Z:PROC ; gObjAddMsgSendDelay
EXTRN	?SetCharWingAttack@cWingsDamage@@QAEXHHHAAH@Z:PROC ; cWingsDamage::SetCharWingAttack
EXTRN	?Attack@cWingsDamage@@QAEXHAAH@Z:PROC		; cWingsDamage::Attack
EXTRN	?gWingsDamage@@3VcWingsDamage@@A:BYTE		; gWingsDamage
EXTRN	?gObjWingSprite@@YAHPAUOBJECTSTRUCT@@@Z:PROC	; gObjWingSprite
EXTRN	?gObjSpiritGuardianSprite@@YAHPAUOBJECTSTRUCT@@@Z:PROC ; gObjSpiritGuardianSprite
EXTRN	?gObjSkeletonSprite@@YAHPAUOBJECTSTRUCT@@@Z:PROC ; gObjSkeletonSprite
EXTRN	?gObjDemonSprite@@YAHPAUOBJECTSTRUCT@@@Z:PROC	; gObjDemonSprite
EXTRN	?gObjAngelSprite@@YAHPAUOBJECTSTRUCT@@@Z:PROC	; gObjAngelSprite
EXTRN	?GCReFillSend@@YAXHHEEH@Z:PROC			; GCReFillSend
EXTRN	?gObjSatanSprite@@YAHPAUOBJECTSTRUCT@@@Z:PROC	; gObjSatanSprite
EXTRN	?gObjSpriteDamage@@YAXPAUOBJECTSTRUCT@@H@Z:PROC	; gObjSpriteDamage
EXTRN	?GCServerMsgStringSend@@YAXPADHE@Z:PROC		; GCServerMsgStringSend
EXTRN	_sprintf:PROC
EXTRN	?g_bAbilityDebug@@3HA:DWORD			; g_bAbilityDebug
EXTRN	?AttackMonster@MonsterZt@@QAEXHHAAH@Z:PROC	; MonsterZt::AttackMonster
EXTRN	?g_MonsterZt@@3VMonsterZt@@A:BYTE		; g_MonsterZt
EXTRN	?gObjWeaponDurDown@@YAXPAUOBJECTSTRUCT@@0H@Z:PROC ; gObjWeaponDurDown
EXTRN	?GetTargetDefense@CObjBaseAttack@@QAEHPAUOBJECTSTRUCT@@0AAE@Z:PROC ; CObjBaseAttack::GetTargetDefense
EXTRN	?gObjSetPosition@@YAXHHH@Z:PROC			; gObjSetPosition
EXTRN	?gObjApplyBuffEffectDuration@@YAEPAUOBJECTSTRUCT@@HEHEHH@Z:PROC ; gObjApplyBuffEffectDuration
EXTRN	?MissCheckPvP@CObjBaseAttack@@QAEHPAUOBJECTSTRUCT@@0HHHAAHE@Z:PROC ; CObjBaseAttack::MissCheckPvP
EXTRN	?RemoveCloakingEffect@CObjUseSkill@@QAEHH@Z:PROC ; CObjUseSkill::RemoveCloakingEffect
EXTRN	?gObjUseSkill@@3VCObjUseSkill@@A:DWORD		; gObjUseSkill
EXTRN	?ResistanceCheck@CObjBaseAttack@@QAEHPAUOBJECTSTRUCT@@0H@Z:PROC ; CObjBaseAttack::ResistanceCheck
EXTRN	?gObjDuelCheck@@YAHPAUOBJECTSTRUCT@@0@Z:PROC	; gObjDuelCheck
EXTRN	?PkCheck@CObjBaseAttack@@QAEHPAUOBJECTSTRUCT@@0@Z:PROC ; CObjBaseAttack::PkCheck
EXTRN	?gObj@@3PAUOBJECTSTRUCT@@A:DWORD		; gObj
EXTRN	?CheckAttackArea@CObjBaseAttack@@QAEHPAUOBJECTSTRUCT@@0@Z:PROC ; CObjBaseAttack::CheckAttackArea
EXTRN	?GCDamageSend@@YAXHHHHHH@Z:PROC			; GCDamageSend
EXTRN	?gObjCheckAttackTypeMagic@@YAHHH@Z:PROC		; gObjCheckAttackTypeMagic
EXTRN	?GCMagicAttackNumberSend@@YAXPAUOBJECTSTRUCT@@GHE@Z:PROC ; GCMagicAttackNumberSend
EXTRN	?gObjMonsterStateProc@@YAXPAUOBJECTSTRUCT@@HHH@Z:PROC ; gObjMonsterStateProc
EXTRN	?DecreaseArrow@CObjBaseAttack@@QAEHPAUOBJECTSTRUCT@@@Z:PROC ; CObjBaseAttack::DecreaseArrow
EXTRN	?gObjCallMonsterSetEnemy@@YAHPAUOBJECTSTRUCT@@H@Z:PROC ; gObjCallMonsterSetEnemy
EXTRN	?gObjAttackQ@@YAHPAUOBJECTSTRUCT@@@Z:PROC	; gObjAttackQ
EXTRN	?SetTarget@CDarkSpirit@@QAEXH@Z:PROC		; CDarkSpirit::SetTarget
EXTRN	?gDarkSpirit@@3PAVCDarkSpirit@@A:BYTE		; gDarkSpirit
EXTRN	?gObjIsConnected@@YAHPAUOBJECTSTRUCT@@@Z:PROC	; gObjIsConnected
EXTRN	?GetBattleSoccerGoalMove@@YAHH@Z:PROC		; GetBattleSoccerGoalMove
EXTRN	?CheckUser@CZtLicense@@QAE_NH@Z:PROC		; CZtLicense::CheckUser
EXTRN	?g_iCharacterRecuperationMaxLevel@@3HA:DWORD	; g_iCharacterRecuperationMaxLevel
EXTRN	__imp__GetTickCount@0:PROC
EXTRN	?g_iUseCharacterAutoRecuperationSystem@@3HA:DWORD ; g_iUseCharacterAutoRecuperationSystem
EXTRN	?CheckAlliancePlayer@ZtUser@@QAE_NHH@Z:PROC	; ZtUser::CheckAlliancePlayer
EXTRN	?g_ZtUser@@3VZtUser@@A:BYTE			; g_ZtUser
EXTRN	?g_CastleSiege@@3VCCastleSiege@@A:BYTE		; g_CastleSiege
EXTRN	?g_Crywolf@@3VCCrywolf@@A:BYTE			; g_Crywolf
EXTRN	?GateAttack@CImperial@@QAE_NH@Z:PROC		; CImperial::GateAttack
EXTRN	?g_Imperial@@3VCImperial@@A:BYTE		; g_Imperial
EXTRN	?PlayerWaitAttack@CDungeonSiege@@QAE_NHH@Z:PROC	; CDungeonSiege::PlayerWaitAttack
EXTRN	?g_DungeonSiege@@3VCDungeonSiege@@A:BYTE	; g_DungeonSiege
EXTRN	?CheckAttackMap@cPvPMapSystem@@QAE_NPAUOBJECTSTRUCT@@0@Z:PROC ; cPvPMapSystem::CheckAttackMap
EXTRN	?PvPMapSystem@@3VcPvPMapSystem@@A:BYTE		; PvPMapSystem
EXTRN	?AllyKillCheck@cTvTEvent@@QAE_NPAUOBJECTSTRUCT@@0@Z:PROC ; cTvTEvent::AllyKillCheck
EXTRN	?TvT@@3VcTvTEvent@@A:BYTE			; TvT
EXTRN	?AttackCheck@CTeamVsTeam@@QAE_NHH@Z:PROC	; CTeamVsTeam::AttackCheck
EXTRN	?g_TeamVsTeam@@3VCTeamVsTeam@@A:BYTE		; g_TeamVsTeam
EXTRN	?GetGensInfluence@GensSystem@@QAEHPAUOBJECTSTRUCT@@@Z:PROC ; GensSystem::GetGensInfluence
EXTRN	?IsMapBattleZone@GensSystem@@QAEHH@Z:PROC	; GensSystem::IsMapBattleZone
EXTRN	?gGensSystem@@3VGensSystem@@A:BYTE		; gGensSystem
EXTRN	?gGENS@@3HA:DWORD				; gGENS
;	COMDAT ??_C@_0FB@HEJCKECH@?$FLPvP?5System?$FN?5Victim?3?$FL?$CFs?$FN?$FL?$CFs?$FN?0?5At@
; File e:\work\tranet_version\gs\gameserver\castlesiege.h
CONST	SEGMENT
??_C@_0FB@HEJCKECH@?$FLPvP?5System?$FN?5Victim?3?$FL?$CFs?$FN?$FL?$CFs?$FN?0?5At@ DB '['
	DB	'PvP System] Victim:[%s][%s], Attacker:[%s][%s] - SD[%d] HP[%f'
	DB	'] -> SD[%d] HP[%f]', 00H			; `string'
CONST	ENDS
;	COMDAT ??_C@_0DB@MDAHJJLM@error?9Level1?5?3?5?$FL?$CFs?$FN?$FL?$CFs?$FN?5Str?3?$CFd?5?$CF@
CONST	SEGMENT
??_C@_0DB@MDAHJJLM@error?9Level1?5?3?5?$FL?$CFs?$FN?$FL?$CFs?$FN?5Str?3?$CFd?5?$CF@ DB 'e'
	DB	'rror-Level1 : [%s][%s] Str:%d %d %d %d %d %d %d', 00H ; `string'
CONST	ENDS
;	COMDAT __real@3f800000
CONST	SEGMENT
__real@3f800000 DD 03f800000r			; 1
CONST	ENDS
;	COMDAT __real@4014000000000000
CONST	SEGMENT
__real@4014000000000000 DQ 04014000000000000r	; 5
CONST	ENDS
;	COMDAT __real@408f400000000000
CONST	SEGMENT
__real@408f400000000000 DQ 0408f400000000000r	; 1000
CONST	ENDS
;	COMDAT __real@4002666666666666
CONST	SEGMENT
__real@4002666666666666 DQ 04002666666666666r	; 2.3
CONST	ENDS
;	COMDAT __real@400199999999999a
CONST	SEGMENT
__real@400199999999999a DQ 0400199999999999ar	; 2.2
CONST	ENDS
;	COMDAT __real@404e000000000000
CONST	SEGMENT
__real@404e000000000000 DQ 0404e000000000000r	; 60
CONST	ENDS
;	COMDAT __real@4004000000000000
CONST	SEGMENT
__real@4004000000000000 DQ 04004000000000000r	; 2.5
CONST	ENDS
;	COMDAT __real@3ff0000000000000
CONST	SEGMENT
__real@3ff0000000000000 DQ 03ff0000000000000r	; 1
CONST	ENDS
;	COMDAT __real@4024000000000000
CONST	SEGMENT
__real@4024000000000000 DQ 04024000000000000r	; 10
CONST	ENDS
;	COMDAT __real@4010000000000000
CONST	SEGMENT
__real@4010000000000000 DQ 04010000000000000r	; 4
CONST	ENDS
;	COMDAT ??_C@_08FOLAHAHG@CRITICAL?$AA@
CONST	SEGMENT
??_C@_08FOLAHAHG@CRITICAL?$AA@ DB 'CRITICAL', 00H	; `string'
CONST	ENDS
;	COMDAT __real@4008000000000000
CONST	SEGMENT
__real@4008000000000000 DQ 04008000000000000r	; 3
CONST	ENDS
;	COMDAT __real@4000000000000000
CONST	SEGMENT
__real@4000000000000000 DQ 04000000000000000r	; 2
CONST	ENDS
;	COMDAT ??_C@_0BH@NMKEOPCM@?$CFs?5AttackDamage?3?5?$CFd?5?$CFd?$AA@
CONST	SEGMENT
??_C@_0BH@NMKEOPCM@?$CFs?5AttackDamage?3?5?$CFd?5?$CFd?$AA@ DB '%s Attack'
	DB	'Damage: %d %d', 00H				; `string'
CONST	ENDS
;	COMDAT ??_C@_09PBMNMIBJ@EXCELLENT?$AA@
CONST	SEGMENT
??_C@_09PBMNMIBJ@EXCELLENT?$AA@ DB 'EXCELLENT', 00H	; `string'
; Function compile flags: /Ogtp
; File e:\work\tranet_version\gs\gameserver\objattack.cpp
CONST	ENDS
;	COMDAT ?Attack@CObjAttack@@QAEHPAUOBJECTSTRUCT@@0PAVCMagicInf@@HEHHEE@Z
_TEXT	SEGMENT
_ManaChange$ = -360					; size = 4
_bDamageReflect$ = -356					; size = 4
_skillSuccess$ = -352					; size = 4
_iDurEquipment$223129 = -348				; size = 4
_iCShopScrollBuffDmgValue$222491 = -348			; size = 4
_iInnovationValue$222430 = -344				; size = 4
_lpCallObj$ = -344					; size = 4
_bAllMiss$ = -340					; size = 4
_Dexterity$ = -336					; size = 4
_Energy$ = -332						; size = 4
_fSpringValue$223231 = -328				; size = 4
tv1686 = -328						; size = 4
tv1677 = -328						; size = 4
tv1654 = -328						; size = 4
tv1642 = -328						; size = 4
_Strength$ = -328					; size = 4
_lpMagic$GSCopy$ = -324					; size = 4
_this$GSCopy$ = -320					; size = 4
tv2887 = -316						; size = 8
tv7003 = -312						; size = 4
tv6999 = -312						; size = 4
tv6879 = -312						; size = 4
_fPercent$223227 = -312					; size = 4
_iComboDamage$223187 = -312				; size = 4
tv3956 = -312						; size = 4
tv3868 = -312						; size = 4
tv3771 = -312						; size = 4
tv3711 = -312						; size = 4
tv3693 = -312						; size = 4
tv3660 = -312						; size = 4
tv3657 = -312						; size = 4
tv3596 = -312						; size = 4
tv3527 = -312						; size = 4
tv3452 = -312						; size = 4
tv3427 = -312						; size = 4
tv3411 = -312						; size = 4
tv3251 = -312						; size = 4
tv3115 = -312						; size = 4
_iEquipmentPos$223028 = -312				; size = 4
tv6781 = -308						; size = 4
_DecValue$222794 = -308					; size = 4
_DecValue$222767 = -308					; size = 4
_iTotalShieldDamage$ = -308				; size = 4
_skill$ = -304						; size = 4
tv5812 = -300						; size = 4
_iDurDecValue$223125 = -300				; size = 4
_iWizardSkillDefense$222962 = -300			; size = 4
_nAddHP$222927 = -300					; size = 4
_iMasterSkillDMGPercentDK$222856 = -300			; size = 4
_iCriticalDamageValue$222467 = -300			; size = 4
_bIsOnDuel$ = -300					; size = 4
tv4055 = -298						; size = 2
tv3663 = -298						; size = 2
tv6784 = -296						; size = 4
tv5929 = -296						; size = 4
_selfdefense$ = -296					; size = 4
_iDurEquipment$223034 = -296				; size = 4
_value$223031 = -296					; size = 4
_iWizardSkillTime$222963 = -296				; size = 4
_iSkillValue$222853 = -296				; size = 4
_iRecvLife$222716 = -296				; size = 4
_decdamage$222676 = -296				; size = 4
_targetdefense$222421 = -296				; size = 4
tv6743 = -292						; size = 4
tv6615 = -292						; size = 4
tv6525 = -292						; size = 4
tv5485 = -292						; size = 4
tv5474 = -292						; size = 4
tv5465 = -292						; size = 4
tv5453 = -292						; size = 4
tv5444 = -292						; size = 4
tv5433 = -292						; size = 4
tv5420 = -292						; size = 4
tv5409 = -292						; size = 4
tv5033 = -292						; size = 4
tv4926 = -292						; size = 4
tv4828 = -292						; size = 4
tv4822 = -292						; size = 4
tv4816 = -292						; size = 4
tv4791 = -292						; size = 4
tv4766 = -292						; size = 4
tv4589 = -292						; size = 4
tv4575 = -292						; size = 4
tv4567 = -292						; size = 4
tv4559 = -292						; size = 4
tv4541 = -292						; size = 4
tv4506 = -292						; size = 4
tv4492 = -292						; size = 4
tv4469 = -292						; size = 4
tv4464 = -292						; size = 4
tv4422 = -292						; size = 4
tv4373 = -292						; size = 4
_fRate$223195 = -292					; size = 4
tv4051 = -292						; size = 4
tv4049 = -292						; size = 4
_iEquipmentPos$223122 = -292				; size = 4
_fDurDownRate$223117 = -292				; size = 4
_fPercent$222956 = -292					; size = 4
_fPercent$222949 = -292					; size = 4
_tmpLife$222932 = -292					; size = 4
_iMLSBase$222855 = -292					; size = 4
tv1632 = -292						; size = 4
tv1602 = -292						; size = 4
_Vitality$ = -292					; size = 4
tv6856 = -288						; size = 4
tv6728 = -288						; size = 4
tv6220 = -288						; size = 4
tv6174 = -288						; size = 4
tv6155 = -288						; size = 4
tv6141 = -288						; size = 4
tv6138 = -288						; size = 4
tv6124 = -288						; size = 4
tv6122 = -288						; size = 4
tv6024 = -288						; size = 4
tv6022 = -288						; size = 4
tv6016 = -288						; size = 4
tv6014 = -288						; size = 4
tv5997 = -288						; size = 4
tv5994 = -288						; size = 4
tv5985 = -288						; size = 4
tv5983 = -288						; size = 4
tv5967 = -288						; size = 4
tv5965 = -288						; size = 4
tv5949 = -288						; size = 4
tv5947 = -288						; size = 4
tv5927 = -288						; size = 4
tv5925 = -288						; size = 4
tv5911 = -288						; size = 4
tv5909 = -288						; size = 4
tv5903 = -288						; size = 4
tv5901 = -288						; size = 4
tv5895 = -288						; size = 4
tv5893 = -288						; size = 4
tv5766 = -288						; size = 4
tv5761 = -288						; size = 4
tv5531 = -288						; size = 4
tv5523 = -288						; size = 4
tv5515 = -288						; size = 4
tv5505 = -288						; size = 4
tv5494 = -288						; size = 4
_replacemana$222964 = -288				; size = 4
tv1890 = -288						; size = 4
tv1885 = -288						; size = 4
tv1880 = -288						; size = 4
tv1862 = -288						; size = 4
tv1851 = -288						; size = 4
tv1844 = -288						; size = 4
tv1840 = -288						; size = 4
_CurrentLife$222721 = -288				; size = 4
tv1758 = -288						; size = 4
tv1701 = -288						; size = 4
_skillIceArrowSuccess$ = -288				; size = 4
_MsgDamage$ = -281					; size = 1
_item_num$223121 = -280					; size = 20
_szTemp$222497 = -260					; size = 256
__$ArrayPad$ = -4					; size = 4
_lpObj$ = 8						; size = 4
_lpTargetObj$ = 12					; size = 4
_lpMagic$ = 16						; size = 4
_magicsend$ = 20					; size = 4
_MSBFlag$ = 24						; size = 1
_AttackDamage$ = 28					; size = 4
_bCombo$ = 32						; size = 4
_byBarrageCount$ = 36					; size = 1
_byReflect$ = 40					; size = 1
?Attack@CObjAttack@@QAEHPAUOBJECTSTRUCT@@0PAVCMagicInf@@HEHHEE@Z PROC ; CObjAttack::Attack, COMDAT
; _this$ = ecx

; 58   : {

  00000	55		 push	 ebp
  00001	8b ec		 mov	 ebp, esp
  00003	81 ec 68 01 00
	00		 sub	 esp, 360		; 00000168H
  00009	a1 00 00 00 00	 mov	 eax, DWORD PTR ___security_cookie
  0000e	33 c5		 xor	 eax, ebp
  00010	89 45 fc	 mov	 DWORD PTR __$ArrayPad$[ebp], eax

; 3504 : 		}
; 3505 : 
; 3506 : 		
; 3507 : 	}
; 3508 : 	#endif
; 3509 : 
; 3510 : 	return TRUE;

  00013	8b 45 10	 mov	 eax, DWORD PTR _lpMagic$[ebp]
  00016	53		 push	 ebx
  00017	56		 push	 esi
  00018	8b 75 08	 mov	 esi, DWORD PTR _lpObj$[ebp]
  0001b	57		 push	 edi
  0001c	8b 7d 0c	 mov	 edi, DWORD PTR _lpTargetObj$[ebp]
  0001f	33 db		 xor	 ebx, ebx
  00021	89 85 bc fe ff
	ff		 mov	 DWORD PTR _lpMagic$GSCopy$[ebp], eax
  00027	8b 87 0c 02 00
	00		 mov	 eax, DWORD PTR [edi+524]
  0002d	89 8d c0 fe ff
	ff		 mov	 DWORD PTR _this$GSCopy$[ebp], ecx
  00033	88 9d e7 fe ff
	ff		 mov	 BYTE PTR _MsgDamage$[ebp], bl
  00039	89 9d 98 fe ff
	ff		 mov	 DWORD PTR _ManaChange$[ebp], ebx
  0003f	89 9d cc fe ff
	ff		 mov	 DWORD PTR _iTotalShieldDamage$[ebp], ebx
  00045	a8 02		 test	 al, 2
  00047	0f 85 e2 03 00
	00		 jne	 $LN1230@Attack

; 59   : //#if(FIX_REF_ON_REF == TRUE)
; 60   : //	if(byReflect)
; 61   : //	{lpMagic
; 62   : //		LogAddC(2, "[%s] vs [%s] :: [%d][%d]", lpObj->Name, lpTargetObj->Name, byReflect, lpObj->FixRefOnRef);
; 63   : //		if(lpObj->FixRefOnRef == true)
; 64   : //		{
; 65   : //			return false;
; 66   : //		}
; 67   : //		lpObj->FixRefOnRef = true;
; 68   : //	}
; 69   : //	else
; 70   : //	{
; 71   : //		lpObj->FixRefOnRef = false;
; 72   : //	}
; 73   : //#endif
; 74   : 
; 75   : #if(FIX_REF2==TRUE)
; 76   : 	//if(byReflect)
; 77   : 	//{
; 78   : 	//	if(lpObj->FixRef2 == true)
; 79   : 	//	{
; 80   : 	//		return false;
; 81   : 	//	}
; 82   : 	//}
; 83   : #endif
; 84   : 
; 85   : 	int skillSuccess = 0;
; 86   : 	LPOBJ lpCallObj;
; 87   : 	LPOBJ lpCallTargetObj;
; 88   : 	BYTE MsgDamage = 0;
; 89   : 	int ManaChange = 0;
; 90   : 	int iTempShieldDamage = 0;
; 91   : 	int iTotalShieldDamage = 0;
; 92   : 
; 93   : 	if ( (lpTargetObj->Authority&2) == 2 )
; 94   : 	{
; 95   : 		return FALSE;
; 96   : 	}
; 97   : 
; 98   : 	if ( (lpObj->Authority&2) == 2 ) //s4 add-on

  0004d	8b 8e 0c 02 00
	00		 mov	 ecx, DWORD PTR [esi+524]
  00053	f6 c1 02	 test	 cl, 2

; 99   : 	{
; 100  : 		return FALSE;

  00056	0f 85 d3 03 00
	00		 jne	 $LN1230@Attack

; 101  : 	}
; 102  : 
; 103  : 	if ( (lpObj->Authority&32) == 32 || (lpTargetObj->Authority&32) == 32) //s4 add-on

  0005c	f6 c1 20	 test	 cl, 32			; 00000020H
  0005f	75 04		 jne	 SHORT $LN739@Attack
  00061	a8 20		 test	 al, 32			; 00000020H
  00063	74 13		 je	 SHORT $LN738@Attack
$LN739@Attack:

; 104  : 	{
; 105  : 		if(gObjSearchActiveEffect(lpObj, AT_INVISIBILITY) == 1)

  00065	6a 12		 push	 18			; 00000012H
  00067	56		 push	 esi
  00068	e8 00 00 00 00	 call	 ?gObjSearchActiveEffect@@YAEPAUOBJECTSTRUCT@@H@Z ; gObjSearchActiveEffect
  0006d	83 c4 08	 add	 esp, 8
  00070	3c 01		 cmp	 al, 1

; 106  : 		{
; 107  : 			return FALSE;

  00072	0f 84 b7 03 00
	00		 je	 $LN1230@Attack
$LN738@Attack:

; 108  : 		}
; 109  : 	}
; 110  : 
; 111  : 	if(gGENS)	//-> Need check

  00078	39 1d 00 00 00
	00		 cmp	 DWORD PTR ?gGENS@@3HA, ebx ; gGENS
  0007e	74 4d		 je	 SHORT $LN888@Attack

; 112  : 	{
; 113  : 		//if( lpObj->Type == OBJ_USER && lpTargetObj->Type == OBJ_USER && !gGensSystem.IsPkEnable(lpObj, lpTargetObj) )
; 114  : 		//{
; 115  : 		//	return false;
; 116  : 		//}
; 117  : 
; 118  : 	#if(DEBUG_CODE)
; 119  : 		LogAddC(2,"[DEBUG_GENS] %d %d",gGensSystem.GetGensInfluence(lpObj),gGensSystem.GetGensInfluence(lpTargetObj));
; 120  : 	#endif
; 121  : 
; 122  : 		if( lpObj->Type == OBJ_USER && lpTargetObj->Type == OBJ_USER )

  00080	66 83 7e 68 01	 cmp	 WORD PTR [esi+104], 1
  00085	75 46		 jne	 SHORT $LN888@Attack
  00087	66 83 7f 68 01	 cmp	 WORD PTR [edi+104], 1
  0008c	75 3f		 jne	 SHORT $LN888@Attack

; 123  : 		{
; 124  : 			if( gGensSystem.IsMapBattleZone(lpObj->MapNumber) )

  0008e	0f b6 8e 49 01
	00 00		 movzx	 ecx, BYTE PTR [esi+329]
  00095	51		 push	 ecx
  00096	b9 00 00 00 00	 mov	 ecx, OFFSET ?gGensSystem@@3VGensSystem@@A ; gGensSystem
  0009b	e8 00 00 00 00	 call	 ?IsMapBattleZone@GensSystem@@QAEHH@Z ; GensSystem::IsMapBattleZone
  000a0	85 c0		 test	 eax, eax
  000a2	74 29		 je	 SHORT $LN888@Attack

; 125  : 			{
; 126  : 				if( gGensSystem.GetGensInfluence(lpObj) == gGensSystem.GetGensInfluence(lpTargetObj) && !gGensSystem.AllowPK )

  000a4	57		 push	 edi
  000a5	b9 00 00 00 00	 mov	 ecx, OFFSET ?gGensSystem@@3VGensSystem@@A ; gGensSystem
  000aa	e8 00 00 00 00	 call	 ?GetGensInfluence@GensSystem@@QAEHPAUOBJECTSTRUCT@@@Z ; GensSystem::GetGensInfluence
  000af	56		 push	 esi
  000b0	b9 00 00 00 00	 mov	 ecx, OFFSET ?gGensSystem@@3VGensSystem@@A ; gGensSystem
  000b5	8b d8		 mov	 ebx, eax
  000b7	e8 00 00 00 00	 call	 ?GetGensInfluence@GensSystem@@QAEHPAUOBJECTSTRUCT@@@Z ; GensSystem::GetGensInfluence
  000bc	3b c3		 cmp	 eax, ebx
  000be	75 0d		 jne	 SHORT $LN888@Attack
  000c0	80 3d b0 00 00
	00 00		 cmp	 BYTE PTR ?gGensSystem@@3VGensSystem@@A+176, 0

; 127  : 				{
; 128  : 					return false;

  000c7	0f 84 62 03 00
	00		 je	 $LN1230@Attack
$LN888@Attack:

; 129  : 				}
; 130  : 			}
; 131  : 		}
; 132  : 	}
; 133  : 
; 134  : 	if ( lpObj->MapNumber != lpTargetObj->MapNumber )

  000cd	8a 96 49 01 00
	00		 mov	 dl, BYTE PTR [esi+329]
  000d3	3a 97 49 01 00
	00		 cmp	 dl, BYTE PTR [edi+329]

; 135  : 	{
; 136  : 		return FALSE;

  000d9	0f 85 50 03 00
	00		 jne	 $LN1230@Attack

; 137  : 	}
; 138  : 
; 139  : #if(EVENT_TEAM_VS_TEAM)
; 140  : 	if(!g_TeamVsTeam.AttackCheck(lpObj->m_Index, lpTargetObj->m_Index))

  000df	8b 07		 mov	 eax, DWORD PTR [edi]
  000e1	8b 0e		 mov	 ecx, DWORD PTR [esi]
  000e3	50		 push	 eax
  000e4	51		 push	 ecx
  000e5	b9 00 00 00 00	 mov	 ecx, OFFSET ?g_TeamVsTeam@@3VCTeamVsTeam@@A ; g_TeamVsTeam
  000ea	e8 00 00 00 00	 call	 ?AttackCheck@CTeamVsTeam@@QAE_NHH@Z ; CTeamVsTeam::AttackCheck
  000ef	84 c0		 test	 al, al

; 141  : 	{
; 142  : 		return false;

  000f1	0f 84 38 03 00
	00		 je	 $LN1230@Attack

; 143  : 	}
; 144  : #endif
; 145  : 
; 146  : #if(DEV_COMBO_CUSTOM==TRUE)
; 147  : 	if(g_ZtLicense.user.ComboCustom)

  000f7	80 3d dc 00 00
	00 00		 cmp	 BYTE PTR ?g_ZtLicense@@3VCZtLicense@@A+220, 0
  000fe	74 10		 je	 SHORT $LN854@Attack

; 148  : 	{
; 149  : 		if(!bCombo)

  00100	83 7d 20 00	 cmp	 DWORD PTR _bCombo$[ebp], 0
  00104	75 0a		 jne	 SHORT $LN854@Attack

; 150  : 		{
; 151  : 			bCombo = lpObj->NewCombo;

  00106	0f b6 96 88 28
	00 00		 movzx	 edx, BYTE PTR [esi+10376]
  0010d	89 55 20	 mov	 DWORD PTR _bCombo$[ebp], edx
$LN854@Attack:

; 152  : 		}
; 153  : 	}
; 154  : #endif
; 155  : 
; 156  : 	if(g_ZtLicense.user.TvTEvent)

  00110	80 3d d1 00 00
	00 00		 cmp	 BYTE PTR ?g_ZtLicense@@3VCZtLicense@@A+209, 0
  00117	74 14		 je	 SHORT $LN728@Attack

; 157  : 	{
; 158  : 		if(!TvT.AllyKillCheck(lpObj,lpTargetObj))return false;

  00119	57		 push	 edi
  0011a	56		 push	 esi
  0011b	b9 00 00 00 00	 mov	 ecx, OFFSET ?TvT@@3VcTvTEvent@@A ; TvT
  00120	e8 00 00 00 00	 call	 ?AllyKillCheck@cTvTEvent@@QAE_NPAUOBJECTSTRUCT@@0@Z ; cTvTEvent::AllyKillCheck
  00125	84 c0		 test	 al, al
  00127	0f 84 02 03 00
	00		 je	 $LN1230@Attack
$LN728@Attack:

; 159  : 	}
; 160  : 
; 161  : 	if(!PvPMapSystem.CheckAttackMap(lpObj,lpTargetObj)) return false;

  0012d	57		 push	 edi
  0012e	56		 push	 esi
  0012f	b9 00 00 00 00	 mov	 ecx, OFFSET ?PvPMapSystem@@3VcPvPMapSystem@@A ; PvPMapSystem
  00134	e8 00 00 00 00	 call	 ?CheckAttackMap@cPvPMapSystem@@QAE_NPAUOBJECTSTRUCT@@0@Z ; cPvPMapSystem::CheckAttackMap
  00139	84 c0		 test	 al, al
  0013b	0f 84 ee 02 00
	00		 je	 $LN1230@Attack

; 162  : 
; 163  : #if(EVENT_DUNGEON_SIEGE)
; 164  : 	if(!g_DungeonSiege.PlayerWaitAttack(lpObj->m_Index, lpTargetObj->m_Index))

  00141	8b 07		 mov	 eax, DWORD PTR [edi]
  00143	8b 0e		 mov	 ecx, DWORD PTR [esi]
  00145	50		 push	 eax
  00146	51		 push	 ecx
  00147	b9 00 00 00 00	 mov	 ecx, OFFSET ?g_DungeonSiege@@3VCDungeonSiege@@A ; g_DungeonSiege
  0014c	e8 00 00 00 00	 call	 ?PlayerWaitAttack@CDungeonSiege@@QAE_NHH@Z ; CDungeonSiege::PlayerWaitAttack
  00151	84 c0		 test	 al, al

; 165  : 	{
; 166  : 		return false;

  00153	0f 84 d6 02 00
	00		 je	 $LN1230@Attack

; 167  : 	}
; 168  : #endif
; 169  : 
; 170  : #ifdef IMPERIAL_CONFLICT_OLD
; 171  : 	if(IMPERIAL_MAP_RANGE(lpObj->MapNumber))	//Season 5 ImperialFort

  00159	0f b6 86 49 01
	00 00		 movzx	 eax, BYTE PTR [esi+329]
  00160	3c 45		 cmp	 al, 69			; 00000045H
  00162	72 23		 jb	 SHORT $LN892@Attack
  00164	b2 48		 mov	 dl, 72			; 00000048H
  00166	3a d0		 cmp	 dl, al
  00168	1b c0		 sbb	 eax, eax
  0016a	40		 inc	 eax
  0016b	74 1a		 je	 SHORT $LN892@Attack

; 172  : 	{
; 173  : 		if(!g_Imperial.GateAttack(lpTargetObj->Class)) 

  0016d	0f b7 87 b8 00
	00 00		 movzx	 eax, WORD PTR [edi+184]
  00174	50		 push	 eax
  00175	b9 00 00 00 00	 mov	 ecx, OFFSET ?g_Imperial@@3VCImperial@@A ; g_Imperial
  0017a	e8 00 00 00 00	 call	 ?GateAttack@CImperial@@QAE_NH@Z ; CImperial::GateAttack
  0017f	84 c0		 test	 al, al

; 174  : 		{	
; 175  : 			return false;

  00181	0f 84 a8 02 00
	00		 je	 $LN1230@Attack
$LN892@Attack:

; 176  : 		}
; 177  : 	}
; 178  : #endif
; 179  : 
; 180  : //#if(GS_CASTLE==1)
; 181  : 	if( g_Crywolf.GetCrywolfState() == 3 || g_Crywolf.GetCrywolfState() == 5 )

  00187	a1 ec b7 0f 00	 mov	 eax, DWORD PTR ?g_Crywolf@@3VCCrywolf@@A+1030124
  0018c	83 f8 03	 cmp	 eax, 3
  0018f	74 05		 je	 SHORT $LN722@Attack
  00191	83 f8 05	 cmp	 eax, 5
  00194	75 14		 jne	 SHORT $LN896@Attack
$LN722@Attack:

; 182  : 	{
; 183  : 		if(CRYWOLF_MAP_RANGE(lpTargetObj->MapNumber))

  00196	80 bf 49 01 00
	00 22		 cmp	 BYTE PTR [edi+329], 34	; 00000022H
  0019d	75 0b		 jne	 SHORT $LN896@Attack

; 184  : 		{
; 185  : 			if(lpTargetObj->Type == OBJ_MONSTER)

  0019f	66 83 7f 68 02	 cmp	 WORD PTR [edi+104], 2

; 186  : 				return FALSE;

  001a4	0f 84 85 02 00
	00		 je	 $LN1230@Attack
$LN896@Attack:

; 187  : 		}
; 188  : 	}
; 189  : //#endif
; 190  : 
; 191  : #if(ADD_CTRL_KEY)
; 192  : 	if(!lpObj->CtrlKey)

  001aa	80 be 1c 2b 00
	00 00		 cmp	 BYTE PTR [esi+11036], 0
  001b1	75 41		 jne	 SHORT $LN891@Attack

; 193  : 	{
; 194  : 		if ( g_CastleSiege.GetCastleState() == CASTLESIEGE_STATE_STARTSIEGE)

  001b3	83 3d 28 00 00
	00 07		 cmp	 DWORD PTR ?g_CastleSiege@@3VCCastleSiege@@A+40, 7
  001ba	75 38		 jne	 SHORT $LN891@Attack

; 195  : 		{
; 196  : 			if ( lpObj->Type == OBJ_USER && lpTargetObj->Type == OBJ_USER )

  001bc	66 83 7e 68 01	 cmp	 WORD PTR [esi+104], 1
  001c1	75 31		 jne	 SHORT $LN891@Attack
  001c3	66 83 7f 68 01	 cmp	 WORD PTR [edi+104], 1
  001c8	75 2a		 jne	 SHORT $LN891@Attack

; 197  : 			{
; 198  : 				if ( lpObj->MapNumber == MAP_INDEX_CASTLESIEGE && lpTargetObj->MapNumber == MAP_INDEX_CASTLESIEGE )

  001ca	80 be 49 01 00
	00 1e		 cmp	 BYTE PTR [esi+329], 30	; 0000001eH
  001d1	75 21		 jne	 SHORT $LN891@Attack
  001d3	80 bf 49 01 00
	00 1e		 cmp	 BYTE PTR [edi+329], 30	; 0000001eH
  001da	75 18		 jne	 SHORT $LN891@Attack

; 199  : 				{
; 200  : 					if(g_ZtUser.CheckAlliancePlayer(lpObj->m_Index, lpTargetObj->m_Index))

  001dc	8b 0f		 mov	 ecx, DWORD PTR [edi]
  001de	8b 16		 mov	 edx, DWORD PTR [esi]
  001e0	51		 push	 ecx
  001e1	52		 push	 edx
  001e2	b9 00 00 00 00	 mov	 ecx, OFFSET ?g_ZtUser@@3VZtUser@@A ; g_ZtUser
  001e7	e8 00 00 00 00	 call	 ?CheckAlliancePlayer@ZtUser@@QAE_NHH@Z ; ZtUser::CheckAlliancePlayer
  001ec	84 c0		 test	 al, al

; 201  : 					{
; 202  : 						return false;

  001ee	0f 85 3b 02 00
	00		 jne	 $LN1230@Attack
$LN891@Attack:

; 203  : 					}
; 204  : 				}
; 205  : 			}
; 206  : 		}
; 207  : 	}
; 208  : #endif
; 209  : 
; 210  : 	if ( g_iUseCharacterAutoRecuperationSystem && lpObj->Level <= g_iCharacterRecuperationMaxLevel )

  001f4	83 3d 00 00 00
	00 00		 cmp	 DWORD PTR ?g_iUseCharacterAutoRecuperationSystem@@3HA, 0 ; g_iUseCharacterAutoRecuperationSystem
  001fb	8b 1d 00 00 00
	00		 mov	 ebx, DWORD PTR __imp__GetTickCount@0
  00201	74 3c		 je	 SHORT $LN895@Attack
  00203	0f bf 86 be 00
	00 00		 movsx	 eax, WORD PTR [esi+190]
  0020a	3b 05 00 00 00
	00		 cmp	 eax, DWORD PTR ?g_iCharacterRecuperationMaxLevel@@3HA ; g_iCharacterRecuperationMaxLevel
  00210	7f 2d		 jg	 SHORT $LN895@Attack

; 211  : 	{
; 212  : 		if ( lpObj->Type == OBJ_USER )

  00212	66 83 7e 68 01	 cmp	 WORD PTR [esi+104], 1
  00217	75 08		 jne	 SHORT $LN712@Attack

; 213  : 		{
; 214  : 			if ( lpObj->Level <= g_iCharacterRecuperationMaxLevel )
; 215  : 			{
; 216  : 				lpObj->m_iAutoRecuperationTime = GetTickCount();

  00219	ff d3		 call	 ebx
  0021b	89 86 cc 1f 00
	00		 mov	 DWORD PTR [esi+8140], eax
$LN712@Attack:

; 217  : 			}
; 218  : 		}
; 219  : 
; 220  : 		if ( lpTargetObj->Type == OBJ_USER )

  00221	66 83 7f 68 01	 cmp	 WORD PTR [edi+104], 1
  00226	75 17		 jne	 SHORT $LN895@Attack

; 221  : 		{
; 222  : 			if ( lpTargetObj->Level <= g_iCharacterRecuperationMaxLevel )

  00228	0f bf 8f be 00
	00 00		 movsx	 ecx, WORD PTR [edi+190]
  0022f	3b 0d 00 00 00
	00		 cmp	 ecx, DWORD PTR ?g_iCharacterRecuperationMaxLevel@@3HA ; g_iCharacterRecuperationMaxLevel
  00235	7f 08		 jg	 SHORT $LN895@Attack

; 223  : 			{
; 224  : 				lpTargetObj->m_iAutoRecuperationTime = GetTickCount();

  00237	ff d3		 call	 ebx
  00239	89 87 cc 1f 00
	00		 mov	 DWORD PTR [edi+8140], eax
$LN895@Attack:

; 225  : 			}
; 226  : 		}
; 227  : 	}
; 228  : 
; 229  : 	if ( lpObj->Type == OBJ_USER )

  0023f	66 83 7e 68 01	 cmp	 WORD PTR [esi+104], 1
  00244	75 08		 jne	 SHORT $LN709@Attack

; 230  : 	{
; 231  : 		lpObj->dwShieldAutoRefillTimer = GetTickCount();

  00246	ff d3		 call	 ebx
  00248	89 86 6c 01 00
	00		 mov	 DWORD PTR [esi+364], eax
$LN709@Attack:

; 232  : 	}
; 233  : 
; 234  : 	if ( lpTargetObj->Type == OBJ_USER )

  0024e	66 83 7f 68 01	 cmp	 WORD PTR [edi+104], 1
  00253	75 08		 jne	 SHORT $LN708@Attack

; 235  : 	{
; 236  : 		lpTargetObj->dwShieldAutoRefillTimer = GetTickCount();

  00255	ff d3		 call	 ebx
  00257	89 87 6c 01 00
	00		 mov	 DWORD PTR [edi+364], eax
$LN708@Attack:

; 237  : 	}
; 238  : 
; 239  : 	int skill = 0;
; 240  : 	
; 241  : 	if ( lpMagic )

  0025d	8b 85 bc fe ff
	ff		 mov	 eax, DWORD PTR _lpMagic$GSCopy$[ebp]
  00263	33 db		 xor	 ebx, ebx
  00265	89 9d d0 fe ff
	ff		 mov	 DWORD PTR _skill$[ebp], ebx
  0026b	85 c0		 test	 eax, eax
  0026d	74 09		 je	 SHORT $LN707@Attack

; 242  : 	{
; 243  : 		skill = lpMagic->m_Skill;

  0026f	8b 58 08	 mov	 ebx, DWORD PTR [eax+8]
  00272	89 9d d0 fe ff
	ff		 mov	 DWORD PTR _skill$[ebp], ebx
$LN707@Attack:

; 244  : 	}
; 245  : 
; 246  : #ifdef DEBUG_CODE
; 247  : 	LogAddC(3,"Test skill: %d",skill);
; 248  : #endif
; 249  : 
; 250  : 	if(g_ZtLicense.CheckUser(eZtUB::SILVER1) || g_ZtLicense.CheckUser(eZtUB::SILVER2))

  00278	6a 07		 push	 7
  0027a	b9 00 00 00 00	 mov	 ecx, OFFSET ?g_ZtLicense@@3VCZtLicense@@A ; g_ZtLicense
  0027f	e8 00 00 00 00	 call	 ?CheckUser@CZtLicense@@QAE_NH@Z ; CZtLicense::CheckUser
  00284	84 c0		 test	 al, al
  00286	75 10		 jne	 SHORT $LN705@Attack
  00288	6a 08		 push	 8
  0028a	b9 00 00 00 00	 mov	 ecx, OFFSET ?g_ZtLicense@@3VCZtLicense@@A ; g_ZtLicense
  0028f	e8 00 00 00 00	 call	 ?CheckUser@CZtLicense@@QAE_NH@Z ; CZtLicense::CheckUser
  00294	84 c0		 test	 al, al
  00296	74 30		 je	 SHORT $LN961@Attack
$LN705@Attack:

; 251  : 	{
; 252  : 		if(BC_MAP_RANGE(lpObj->MapNumber) == TRUE)

  00298	0f b6 86 49 01
	00 00		 movzx	 eax, BYTE PTR [esi+329]
  0029f	3c 34		 cmp	 al, 52			; 00000034H
  002a1	74 10		 je	 SHORT $LN960@Attack
  002a3	3c 0b		 cmp	 al, 11			; 0000000bH
  002a5	72 21		 jb	 SHORT $LN961@Attack
  002a7	b2 11		 mov	 dl, 17			; 00000011H
  002a9	3a d0		 cmp	 dl, al
  002ab	1b c0		 sbb	 eax, eax
  002ad	40		 inc	 eax
  002ae	83 f8 01	 cmp	 eax, 1
  002b1	75 15		 jne	 SHORT $LN961@Attack
$LN960@Attack:

; 253  : 		{
; 254  : 			if ( skill == 52 || skill == 238 )

  002b3	83 fb 34	 cmp	 ebx, 52			; 00000034H
  002b6	0f 84 73 01 00
	00		 je	 $LN1230@Attack
  002bc	81 fb ee 00 00
	00		 cmp	 ebx, 238		; 000000eeH

; 255  : 			{
; 256  : 				return false;

  002c2	0f 84 67 01 00
	00		 je	 $LN1230@Attack
$LN961@Attack:

; 257  : 			}
; 258  : 		}
; 259  : 	}
; 260  : 
; 261  : 	if ( lpObj->Class == 77 )

  002c8	66 83 be b8 00
	00 00 4d	 cmp	 WORD PTR [esi+184], 77	; 0000004dH
  002d0	75 19		 jne	 SHORT $LN962@Attack

; 262  : 	{
; 263  : 		if ( lpObj->m_SkyBossMonSheild && skill == 17 )

  002d2	83 be c4 10 00
	00 00		 cmp	 DWORD PTR [esi+4292], 0
  002d9	74 10		 je	 SHORT $LN962@Attack
  002db	83 fb 11	 cmp	 ebx, 17			; 00000011H
  002de	75 0b		 jne	 SHORT $LN962@Attack

; 264  : 		{
; 265  : 			skill = 3;

  002e0	bb 03 00 00 00	 mov	 ebx, 3
  002e5	89 9d d0 fe ff
	ff		 mov	 DWORD PTR _skill$[ebp], ebx
$LN962@Attack:

; 266  : 		}
; 267  : 	}
; 268  : 
; 269  : 	skillSuccess = TRUE; //28
; 270  : 
; 271  : 	if ( lpObj->GuildNumber > 0 )

  002eb	83 be 34 04 00
	00 00		 cmp	 DWORD PTR [esi+1076], 0
  002f2	0f 8e 4c 01 00
	00		 jle	 $LN963@Attack

; 272  : 	{
; 273  : 		if ( lpObj->lpGuild )

  002f8	8b 86 38 04 00
	00		 mov	 eax, DWORD PTR [esi+1080]
  002fe	85 c0		 test	 eax, eax
  00300	0f 84 3e 01 00
	00		 je	 $LN963@Attack

; 274  : 		{
; 275  : 			if ( lpObj->lpGuild->WarState )

  00306	80 b8 91 05 00
	00 00		 cmp	 BYTE PTR [eax+1425], 0
  0030d	74 1b		 je	 SHORT $LN968@Attack

; 276  : 			{
; 277  : 				if ( lpObj->lpGuild->WarType == 1 )

  0030f	80 b8 92 05 00
	00 01		 cmp	 BYTE PTR [eax+1426], 1
  00316	75 12		 jne	 SHORT $LN968@Attack

; 278  : 				{
; 279  : 					if ( !GetBattleSoccerGoalMove(0) )

  00318	6a 00		 push	 0
  0031a	e8 00 00 00 00	 call	 ?GetBattleSoccerGoalMove@@YAHH@Z ; GetBattleSoccerGoalMove
  0031f	83 c4 04	 add	 esp, 4
  00322	85 c0		 test	 eax, eax

; 280  : 					{
; 281  : 						return TRUE;

  00324	0f 84 39 4b 00
	00		 je	 $LN1@Attack
$LN968@Attack:

; 282  : 					}
; 283  : 				}
; 284  : 			}
; 285  : 
; 286  : 			if ( lpObj->lpGuild->WarState )

  0032a	8b 86 38 04 00
	00		 mov	 eax, DWORD PTR [esi+1080]
  00330	80 b8 91 05 00
	00 00		 cmp	 BYTE PTR [eax+1425], 0
  00337	0f 84 07 01 00
	00		 je	 $LN963@Attack

; 287  : 			{
; 288  : 				if ( lpObj->lpGuild->WarType == 0 )

  0033d	80 b8 92 05 00
	00 00		 cmp	 BYTE PTR [eax+1426], 0
  00344	0f 85 fa 00 00
	00		 jne	 $LN963@Attack

; 289  : 				{
; 290  : 					if ( lpTargetObj->Type == OBJ_MONSTER )

  0034a	66 83 7f 68 02	 cmp	 WORD PTR [edi+104], 2
  0034f	0f 84 0e 4b 00
	00		 je	 $LN1@Attack
$LN679@Attack:

; 358  : 		}
; 359  : 	}
; 360  : 
; 361  : #ifdef IMPERIAL_CONFLICT_NEW
; 362  : 
; 363  : 	if ( lpTargetObj->Class == 523 )
; 364  : 		return TRUE;
; 365  : 
; 366  : 	if ( lpTargetObj->Class >= 524 && lpTargetObj->Class <= 528 
; 367  : 		&& lpTargetObj->Class != 526
; 368  : 		&& !g_ImperialGuardian.IsAttackAbleMonster(lpTargetObj->m_Index) )
; 369  : 	{
; 370  : 		return TRUE;
; 371  : 	}
; 372  : #endif
; 373  : 
; 374  : 	if ( lpObj->Type == OBJ_USER )

  00355	66 83 7e 68 01	 cmp	 WORD PTR [esi+104], 1
  0035a	75 25		 jne	 SHORT $LN678@Attack

; 375  : 	{
; 376  : 		if ( !gObjIsConnected(lpObj) )

  0035c	56		 push	 esi
  0035d	e8 00 00 00 00	 call	 ?gObjIsConnected@@YAHPAUOBJECTSTRUCT@@@Z ; gObjIsConnected
  00362	83 c4 04	 add	 esp, 4
  00365	85 c0		 test	 eax, eax

; 377  : 		{
; 378  : 			return FALSE;

  00367	0f 84 c2 00 00
	00		 je	 $LN1230@Attack

; 379  : 		}
; 380  : 
; 381  : 		/*if ( lpObj->m_Change == 8 )
; 382  : 		{
; 383  : 			skill = 1;
; 384  : 			lpMagic = &DefMagicInf[1];
; 385  : 			magicsend = 1;
; 386  : 		}*/
; 387  : 
; 388  : 		gDarkSpirit[lpObj->m_Index].SetTarget(lpTargetObj->m_Index);

  0036d	8b 06		 mov	 eax, DWORD PTR [esi]
  0036f	8b 17		 mov	 edx, DWORD PTR [edi]
  00371	8d 0c 80	 lea	 ecx, DWORD PTR [eax+eax*4]
  00374	52		 push	 edx
  00375	8d 0c cd 00 00
	00 00		 lea	 ecx, DWORD PTR ?gDarkSpirit@@3PAVCDarkSpirit@@A[ecx*8]
  0037c	e8 00 00 00 00	 call	 ?SetTarget@CDarkSpirit@@QAEXH@Z ; CDarkSpirit::SetTarget
$LN678@Attack:

; 389  : 	}
; 390  : 
; 391  : 	if ( lpTargetObj->Type == OBJ_USER )

  00381	66 83 7f 68 01	 cmp	 WORD PTR [edi+104], 1
  00386	75 11		 jne	 SHORT $LN969@Attack

; 392  : 	{
; 393  : 		if ( !gObjIsConnected(lpTargetObj))

  00388	57		 push	 edi
  00389	e8 00 00 00 00	 call	 ?gObjIsConnected@@YAHPAUOBJECTSTRUCT@@@Z ; gObjIsConnected
  0038e	83 c4 04	 add	 esp, 4
  00391	85 c0		 test	 eax, eax

; 394  : 		{
; 395  : 			return FALSE;

  00393	0f 84 96 00 00
	00		 je	 $LN1230@Attack
$LN969@Attack:

; 396  : 		}
; 397  : 	}
; 398  : 
; 399  : 	if ( lpObj->Type == OBJ_USER && lpTargetObj->Type == OBJ_MONSTER )

  00399	66 83 7e 68 01	 cmp	 WORD PTR [esi+104], 1
  0039e	75 15		 jne	 SHORT $LN672@Attack
  003a0	66 83 7f 68 02	 cmp	 WORD PTR [edi+104], 2
  003a5	75 0e		 jne	 SHORT $LN672@Attack

; 400  : 	{
; 401  : 		if ( lpObj->m_RecallMon >= 0 )

  003a7	8b 86 50 04 00
	00		 mov	 eax, DWORD PTR [esi+1104]
  003ad	85 c0		 test	 eax, eax
  003af	78 04		 js	 SHORT $LN672@Attack

; 402  : 		{
; 403  : 			if ( lpObj->m_RecallMon == lpTargetObj->m_Index )

  003b1	3b 07		 cmp	 eax, DWORD PTR [edi]

; 404  : 			{
; 405  : 				return FALSE;

  003b3	74 7a		 je	 SHORT $LN1230@Attack
$LN672@Attack:

; 406  : 			}
; 407  : 		}
; 408  : 	}
; 409  : 
; 410  : 	if ( !gObjAttackQ(lpTargetObj))

  003b5	57		 push	 edi
  003b6	e8 00 00 00 00	 call	 ?gObjAttackQ@@YAHPAUOBJECTSTRUCT@@@Z ; gObjAttackQ
  003bb	83 c4 04	 add	 esp, 4
  003be	85 c0		 test	 eax, eax

; 411  : 	{
; 412  : 		return FALSE;

  003c0	74 6d		 je	 SHORT $LN1230@Attack

; 413  : 	}
; 414  : 
; 415  : 	if ( lpObj->m_RecallMon >= 0 )

  003c2	83 be 50 04 00
	00 00		 cmp	 DWORD PTR [esi+1104], 0
  003c9	7c 0c		 jl	 SHORT $LN670@Attack

; 416  : 	{
; 417  : 		gObjCallMonsterSetEnemy(lpObj, lpTargetObj->m_Index);

  003cb	8b 07		 mov	 eax, DWORD PTR [edi]
  003cd	50		 push	 eax
  003ce	56		 push	 esi
  003cf	e8 00 00 00 00	 call	 ?gObjCallMonsterSetEnemy@@YAHPAUOBJECTSTRUCT@@H@Z ; gObjCallMonsterSetEnemy
  003d4	83 c4 08	 add	 esp, 8
$LN670@Attack:

; 418  : 	}
; 419  : 
; 420  : 	lpObj->m_TotalAttackCount++;

  003d7	ff 86 98 03 00
	00		 inc	 DWORD PTR [esi+920]

; 421  : 
; 422  : 	if ( AttackDamage == 0 )

  003dd	83 7d 1c 00	 cmp	 DWORD PTR _AttackDamage$[ebp], 0
  003e1	0f 85 6d 01 00
	00		 jne	 $LN897@Attack

; 423  : 	{
; 424  : 		if ( skill != 76 )

  003e7	83 fb 4c	 cmp	 ebx, 76			; 0000004cH
  003ea	0f 84 64 01 00
	00		 je	 $LN897@Attack

; 425  : 		{
; 426  : 			if(!gObjSearchActiveEffect(lpObj, AT_INFINITY_ARROW) &&
; 427  : 			   !gObjSearchActiveEffect(lpObj,BUFF_INFINITY_ARROW2))

  003f0	6a 06		 push	 6
  003f2	56		 push	 esi
  003f3	e8 00 00 00 00	 call	 ?gObjSearchActiveEffect@@YAEPAUOBJECTSTRUCT@@H@Z ; gObjSearchActiveEffect
  003f8	83 c4 08	 add	 esp, 8
  003fb	84 c0		 test	 al, al
  003fd	0f 85 51 01 00
	00		 jne	 $LN897@Attack
  00403	68 8f 00 00 00	 push	 143			; 0000008fH
  00408	56		 push	 esi
  00409	e8 00 00 00 00	 call	 ?gObjSearchActiveEffect@@YAEPAUOBJECTSTRUCT@@H@Z ; gObjSearchActiveEffect
  0040e	83 c4 08	 add	 esp, 8
  00411	84 c0		 test	 al, al
  00413	0f 85 3b 01 00
	00		 jne	 $LN897@Attack

; 428  : 			{
; 429  : 				if ( !this->DecreaseArrow(lpObj) )

  00419	8b 9d c0 fe ff
	ff		 mov	 ebx, DWORD PTR _this$GSCopy$[ebp]
  0041f	56		 push	 esi
  00420	8b cb		 mov	 ecx, ebx
  00422	e8 00 00 00 00	 call	 ?DecreaseArrow@CObjBaseAttack@@QAEHPAUOBJECTSTRUCT@@@Z ; CObjBaseAttack::DecreaseArrow
  00427	85 c0		 test	 eax, eax
  00429	0f 85 2b 01 00
	00		 jne	 $LN666@Attack
$LN1230@Attack:
  0042f	5f		 pop	 edi
  00430	5e		 pop	 esi

; 430  : 				{
; 431  : 					return FALSE;

  00431	33 c0		 xor	 eax, eax
  00433	5b		 pop	 ebx

; 3511 : }

  00434	8b 4d fc	 mov	 ecx, DWORD PTR __$ArrayPad$[ebp]
  00437	33 cd		 xor	 ecx, ebp
  00439	e8 00 00 00 00	 call	 @__security_check_cookie@4
  0043e	8b e5		 mov	 esp, ebp
  00440	5d		 pop	 ebp
  00441	c2 24 00	 ret	 36			; 00000024H
$LN963@Attack:

; 291  : 					{
; 292  : 						return TRUE;
; 293  : 					}
; 294  : 				}
; 295  : 			}
; 296  : 		}
; 297  : 	}
; 298  : 
; 299  : 	if ( lpTargetObj->Type == OBJ_MONSTER )

  00444	66 83 7f 68 02	 cmp	 WORD PTR [edi+104], 2
  00449	0f 85 06 ff ff
	ff		 jne	 $LN679@Attack

; 300  : 	{
; 301  : 		if ( lpTargetObj->m_iMonsterBattleDelay > 0 )

  0044f	80 bf c9 03 00
	00 00		 cmp	 BYTE PTR [edi+969], 0

; 302  : 		{
; 303  : 			return TRUE;

  00456	0f 8f 07 4a 00
	00		 jg	 $LN1@Attack

; 304  : 		}
; 305  : 		
; 306  : 		if ( lpTargetObj->Class == 200 )

  0045c	b8 c8 00 00 00	 mov	 eax, 200		; 000000c8H
  00461	66 39 87 b8 00
	00 00		 cmp	 WORD PTR [edi+184], ax
  00468	75 39		 jne	 SHORT $LN689@Attack

; 307  : 		{
; 308  : 			if ( skill )
; 309  : 			{
; 310  : 				gObjMonsterStateProc(lpTargetObj, 7, lpObj->m_Index, 0);

  0046a	6a 00		 push	 0
  0046c	85 db		 test	 ebx, ebx
  0046e	74 07		 je	 SHORT $LN688@Attack
  00470	8b 0e		 mov	 ecx, DWORD PTR [esi]
  00472	51		 push	 ecx
  00473	6a 07		 push	 7

; 311  : 			}
; 312  : 			else

  00475	eb 05		 jmp	 SHORT $LN1174@Attack
$LN688@Attack:

; 313  : 			{
; 314  : 				gObjMonsterStateProc(lpTargetObj, 6, lpObj->m_Index, 0);

  00477	8b 16		 mov	 edx, DWORD PTR [esi]
  00479	52		 push	 edx
  0047a	6a 06		 push	 6
$LN1174@Attack:
  0047c	57		 push	 edi
  0047d	e8 00 00 00 00	 call	 ?gObjMonsterStateProc@@YAXPAUOBJECTSTRUCT@@HHH@Z ; gObjMonsterStateProc
  00482	83 c4 10	 add	 esp, 16			; 00000010H

; 315  : 			}
; 316  : 
; 317  : 			if ( magicsend )

  00485	83 7d 14 00	 cmp	 DWORD PTR _magicsend$[ebp], 0
  00489	0f 84 d4 49 00
	00		 je	 $LN1@Attack

; 318  : 			{
; 319  : 				GCMagicAttackNumberSend(lpObj, skill, lpTargetObj->m_Index, skillSuccess);

  0048f	8b 07		 mov	 eax, DWORD PTR [edi]
  00491	6a 01		 push	 1
  00493	50		 push	 eax
  00494	53		 push	 ebx
  00495	56		 push	 esi
  00496	e8 00 00 00 00	 call	 ?GCMagicAttackNumberSend@@YAXPAUOBJECTSTRUCT@@GHE@Z ; GCMagicAttackNumberSend
  0049b	83 c4 10	 add	 esp, 16			; 00000010H

; 320  : 			}
; 321  : 
; 322  : 			return TRUE;

  0049e	e9 c0 49 00 00	 jmp	 $LN1@Attack
$LN689@Attack:

; 323  : 		}
; 324  : 
; 325  : 		if(gObjSearchActiveEffect(lpTargetObj, AT_IMMUNE_MAGIC) == 1)

  004a3	6a 3f		 push	 63			; 0000003fH
  004a5	57		 push	 edi
  004a6	e8 00 00 00 00	 call	 ?gObjSearchActiveEffect@@YAEPAUOBJECTSTRUCT@@H@Z ; gObjSearchActiveEffect
  004ab	83 c4 08	 add	 esp, 8
  004ae	3c 01		 cmp	 al, 1
  004b0	75 2a		 jne	 SHORT $LN684@Attack

; 326  : 		{
; 327  : 			BOOL bCheckAttackIsMagicType = gObjCheckAttackTypeMagic(lpObj->Class, skill);
; 328  : 
; 329  : 			if ( bCheckAttackIsMagicType == TRUE )

  004b2	0f b7 8e b8 00
	00 00		 movzx	 ecx, WORD PTR [esi+184]
  004b9	53		 push	 ebx
  004ba	51		 push	 ecx
  004bb	e8 00 00 00 00	 call	 ?gObjCheckAttackTypeMagic@@YAHHH@Z ; gObjCheckAttackTypeMagic
  004c0	83 c4 08	 add	 esp, 8
  004c3	83 f8 01	 cmp	 eax, 1
  004c6	75 14		 jne	 SHORT $LN684@Attack

; 330  : 			{
; 331  : 				GCMagicAttackNumberSend(lpObj, skill, lpTargetObj->m_Index, 0);

  004c8	8b 17		 mov	 edx, DWORD PTR [edi]
  004ca	6a 00		 push	 0
  004cc	52		 push	 edx
  004cd	53		 push	 ebx
  004ce	56		 push	 esi
  004cf	e8 00 00 00 00	 call	 ?GCMagicAttackNumberSend@@YAXPAUOBJECTSTRUCT@@GHE@Z ; GCMagicAttackNumberSend
  004d4	83 c4 10	 add	 esp, 16			; 00000010H

; 332  : 				return TRUE;

  004d7	e9 87 49 00 00	 jmp	 $LN1@Attack
$LN684@Attack:

; 333  : 			}
; 334  : 		}
; 335  : 
; 336  : 		if(gObjSearchActiveEffect(lpTargetObj, AT_IMMUNE_HARM) == 1)

  004dc	6a 40		 push	 64			; 00000040H
  004de	57		 push	 edi
  004df	e8 00 00 00 00	 call	 ?gObjSearchActiveEffect@@YAEPAUOBJECTSTRUCT@@H@Z ; gObjSearchActiveEffect
  004e4	83 c4 08	 add	 esp, 8
  004e7	3c 01		 cmp	 al, 1
  004e9	75 2c		 jne	 SHORT $LN682@Attack

; 337  : 		{
; 338  : 			BOOL bCheckAttackIsMagicType = gObjCheckAttackTypeMagic(lpObj->Class, skill); //loc11
; 339  : 
; 340  : 			if ( bCheckAttackIsMagicType == FALSE )

  004eb	0f b7 86 b8 00
	00 00		 movzx	 eax, WORD PTR [esi+184]
  004f2	53		 push	 ebx
  004f3	50		 push	 eax
  004f4	e8 00 00 00 00	 call	 ?gObjCheckAttackTypeMagic@@YAHHH@Z ; gObjCheckAttackTypeMagic
  004f9	83 c4 08	 add	 esp, 8
  004fc	85 c0		 test	 eax, eax
  004fe	75 17		 jne	 SHORT $LN682@Attack

; 341  : 			{
; 342  : 				GCDamageSend(lpObj->m_Index, lpTargetObj->m_Index, 0, 0, 0, 0);

  00500	8b 0f		 mov	 ecx, DWORD PTR [edi]
  00502	8b 16		 mov	 edx, DWORD PTR [esi]
  00504	50		 push	 eax
  00505	50		 push	 eax
  00506	50		 push	 eax
  00507	50		 push	 eax
  00508	51		 push	 ecx
  00509	52		 push	 edx
  0050a	e8 00 00 00 00	 call	 ?GCDamageSend@@YAXHHHHHH@Z ; GCDamageSend
  0050f	83 c4 18	 add	 esp, 24			; 00000018H

; 343  : 				return TRUE;

  00512	e9 4c 49 00 00	 jmp	 $LN1@Attack
$LN682@Attack:

; 344  : 			}
; 345  : 		}
; 346  : 		if ( lpTargetObj->m_MonsterSkillElementInfo.m_iSkillElementImmuneTime > 0 )

  00517	83 bf 58 1c 00
	00 00		 cmp	 DWORD PTR [edi+7256], 0
  0051e	7e 0c		 jle	 SHORT $LN680@Attack

; 347  : 		{
; 348  : 			if ( lpTargetObj->m_MonsterSkillElementInfo.m_iSkillElementImmuneNumber == skill )

  00520	39 9f 54 1c 00
	00		 cmp	 DWORD PTR [edi+7252], ebx

; 349  : 			{
; 350  : 				return TRUE;

  00526	0f 84 37 49 00
	00		 je	 $LN1@Attack
$LN680@Attack:

; 351  : 			}
; 352  : 		}
; 353  : 		if ( lpTargetObj->m_MonsterSkillElementInfo.m_iSkillElementBerserkTime > 0 ) //season4

  0052c	83 bf 70 1c 00
	00 00		 cmp	 DWORD PTR [edi+7280], 0
  00533	0f 8e 1c fe ff
	ff		 jle	 $LN679@Attack

; 354  : 		{
; 355  : 			int MSBDamage = 32;
; 356  : 			GCDamageSend(lpObj->m_Index, lpTargetObj->m_Index, 0, 0, MSBDamage, 0);

  00539	8b 07		 mov	 eax, DWORD PTR [edi]
  0053b	8b 0e		 mov	 ecx, DWORD PTR [esi]
  0053d	6a 00		 push	 0
  0053f	6a 20		 push	 32			; 00000020H
  00541	6a 00		 push	 0
  00543	6a 00		 push	 0
  00545	50		 push	 eax
  00546	51		 push	 ecx
  00547	e8 00 00 00 00	 call	 ?GCDamageSend@@YAXHHHHHH@Z ; GCDamageSend
  0054c	83 c4 18	 add	 esp, 24			; 00000018H

; 357  : 			return TRUE;

  0054f	e9 0f 49 00 00	 jmp	 $LN1@Attack
$LN897@Attack:

; 428  : 			{
; 429  : 				if ( !this->DecreaseArrow(lpObj) )

  00554	8b 9d c0 fe ff
	ff		 mov	 ebx, DWORD PTR _this$GSCopy$[ebp]
$LN666@Attack:

; 432  : 				}
; 433  : 			}
; 434  : 		}
; 435  : 	}
; 436  : 
; 437  : 	if ( this->CheckAttackArea(lpObj, lpTargetObj) == FALSE )

  0055a	57		 push	 edi
  0055b	56		 push	 esi
  0055c	8b cb		 mov	 ecx, ebx
  0055e	e8 00 00 00 00	 call	 ?CheckAttackArea@CObjBaseAttack@@QAEHPAUOBJECTSTRUCT@@0@Z ; CObjBaseAttack::CheckAttackArea
  00563	85 c0		 test	 eax, eax

; 438  : 	{
; 439  : 		return FALSE;

  00565	0f 84 c4 fe ff
	ff		 je	 $LN1230@Attack

; 440  : 	}
; 441  : 
; 442  : 	lpCallObj = lpObj;
; 443  : 
; 444  : 	if ( lpObj->Type == OBJ_MONSTER )

  0056b	66 83 7e 68 02	 cmp	 WORD PTR [esi+104], 2
  00570	8b ce		 mov	 ecx, esi
  00572	75 18		 jne	 SHORT $LN663@Attack

; 445  : 	{
; 446  : 		if ( lpObj->m_RecallMon >= 0 )

  00574	8b 86 50 04 00
	00		 mov	 eax, DWORD PTR [esi+1104]
  0057a	85 c0		 test	 eax, eax
  0057c	78 0e		 js	 SHORT $LN663@Attack

; 447  : 		{
; 448  : 			lpCallObj = &gObj[lpObj->m_RecallMon];

  0057e	69 c0 50 2b 00
	00		 imul	 eax, 11088		; 00002b50H
  00584	03 05 00 00 00
	00		 add	 eax, DWORD PTR ?gObj@@3PAUOBJECTSTRUCT@@A ; gObj
  0058a	8b c8		 mov	 ecx, eax
$LN663@Attack:

; 449  : 		}
; 450  : 	}
; 451  : 
; 452  : 	lpCallTargetObj = lpTargetObj;
; 453  : 
; 454  : 	if ( lpTargetObj->Type == OBJ_MONSTER )
; 455  : 	{
; 456  : 		if ( lpTargetObj->m_RecallMon >= 0 )
; 457  : 		{
; 458  : 			lpCallTargetObj = &gObj[lpTargetObj->m_RecallMon];
; 459  : 		}
; 460  : 	}
; 461  : 
; 462  : 	if ( this->PkCheck(lpCallObj, lpTargetObj) == FALSE )

  0058c	57		 push	 edi
  0058d	51		 push	 ecx
  0058e	8b cb		 mov	 ecx, ebx
  00590	e8 00 00 00 00	 call	 ?PkCheck@CObjBaseAttack@@QAEHPAUOBJECTSTRUCT@@0@Z ; CObjBaseAttack::PkCheck
  00595	85 c0		 test	 eax, eax

; 463  : 	{
; 464  : 		return FALSE;

  00597	0f 84 92 fe ff
	ff		 je	 $LN1230@Attack

; 465  : 	}
; 466  : 
; 467  : 	int Strength = lpObj->Strength + lpObj->AddStrength; //

  0059d	0f b7 8e f4 00
	00 00		 movzx	 ecx, WORD PTR [esi+244]
  005a4	0f bf 86 20 01
	00 00		 movsx	 eax, WORD PTR [esi+288]

; 468  : 	int Dexterity = lpObj->Dexterity + lpObj->AddDexterity; //

  005ab	0f b7 96 f6 00
	00 00		 movzx	 edx, WORD PTR [esi+246]
  005b2	03 c1		 add	 eax, ecx

; 469  : 	int Vitality = lpObj->Vitality + lpObj->AddVitality; //loc12

  005b4	0f b7 8e f8 00
	00 00		 movzx	 ecx, WORD PTR [esi+248]
  005bb	89 85 b8 fe ff
	ff		 mov	 DWORD PTR _Strength$[ebp], eax
  005c1	0f bf 86 22 01
	00 00		 movsx	 eax, WORD PTR [esi+290]
  005c8	03 c2		 add	 eax, edx

; 470  : 	int Energy = lpObj->Energy + lpObj->AddEnergy; //3c

  005ca	0f b7 96 fa 00
	00 00		 movzx	 edx, WORD PTR [esi+250]
  005d1	89 85 b0 fe ff
	ff		 mov	 DWORD PTR _Dexterity$[ebp], eax
  005d7	0f bf 86 24 01
	00 00		 movsx	 eax, WORD PTR [esi+292]
  005de	03 c1		 add	 eax, ecx
  005e0	89 85 dc fe ff
	ff		 mov	 DWORD PTR _Vitality$[ebp], eax
  005e6	0f bf 86 26 01
	00 00		 movsx	 eax, WORD PTR [esi+294]
  005ed	03 c2		 add	 eax, edx

; 471  : 	BOOL bIsOnDuel = gObjDuelCheck(lpObj, lpTargetObj); //30

  005ef	57		 push	 edi
  005f0	56		 push	 esi
  005f1	89 85 b4 fe ff
	ff		 mov	 DWORD PTR _Energy$[ebp], eax
  005f7	e8 00 00 00 00	 call	 ?gObjDuelCheck@@YAHPAUOBJECTSTRUCT@@0@Z ; gObjDuelCheck
  005fc	83 c4 08	 add	 esp, 8
  005ff	89 85 d4 fe ff
	ff		 mov	 DWORD PTR _bIsOnDuel$[ebp], eax

; 472  : 
; 473  : 	if ( bIsOnDuel )

  00605	85 c0		 test	 eax, eax
  00607	74 16		 je	 SHORT $LN659@Attack

; 474  : 	{
; 475  : 		lpObj->m_iDuelTickCount = GetTickCount();

  00609	8b 1d 00 00 00
	00		 mov	 ebx, DWORD PTR __imp__GetTickCount@0
  0060f	ff d3		 call	 ebx
  00611	89 86 c0 0e 00
	00		 mov	 DWORD PTR [esi+3776], eax

; 476  : 		lpTargetObj->m_iDuelTickCount = GetTickCount();

  00617	ff d3		 call	 ebx
  00619	89 87 c0 0e 00
	00		 mov	 DWORD PTR [edi+3776], eax
$LN659@Attack:

; 477  : 	}
; 478  : 
; 479  : 	if ( lpObj->pInventory[0].m_Type == ITEMGET(2,5) && lpObj->pInventory[0].m_IsValidItem != false )	// Crystal Sword

  0061f	8b 86 24 0e 00
	00		 mov	 eax, DWORD PTR [esi+3620]
  00625	b9 05 04 00 00	 mov	 ecx, 1029		; 00000405H
  0062a	66 39 48 06	 cmp	 WORD PTR [eax+6], cx
  0062e	75 09		 jne	 SHORT $LN658@Attack
  00630	80 b8 b0 00 00
	00 00		 cmp	 BYTE PTR [eax+176], 0

; 480  : 	{
; 481  : 		if ( (rand()%20) == 0 )
; 482  : 		{
; 483  : 			skill = 7;
; 484  : 			lpMagic = &DefMagicInf[7];
; 485  : 			magicsend = 1;
; 486  : 		}
; 487  : 	}

  00637	75 14		 jne	 SHORT $LN1176@Attack
$LN658@Attack:

; 488  : 	else if ( lpObj->pInventory[1].m_Type == ITEMGET(2,5) && lpObj->pInventory[1].m_IsValidItem != false )	// Crystal Sword

  00639	8b d1		 mov	 edx, ecx
  0063b	66 39 90 da 00
	00 00		 cmp	 WORD PTR [eax+218], dx
  00642	75 35		 jne	 SHORT $LN855@Attack
  00644	80 b8 84 01 00
	00 00		 cmp	 BYTE PTR [eax+388], 0
  0064b	74 2c		 je	 SHORT $LN855@Attack
$LN1176@Attack:

; 489  : 	{
; 490  : 		if ( (rand()%20) == 0 )

  0064d	e8 00 00 00 00	 call	 _rand
  00652	99		 cdq
  00653	b9 14 00 00 00	 mov	 ecx, 20			; 00000014H
  00658	f7 f9		 idiv	 ecx
  0065a	85 d2		 test	 edx, edx
  0065c	75 1b		 jne	 SHORT $LN855@Attack

; 491  : 		{
; 492  : 			skill = 7;
; 493  : 			lpMagic = &DefMagicInf[7];
; 494  : 			magicsend = 1;

  0065e	c7 45 14 01 00
	00 00		 mov	 DWORD PTR _magicsend$[ebp], 1
  00665	c7 85 bc fe ff
	ff a8 00 00 00	 mov	 DWORD PTR _lpMagic$GSCopy$[ebp], OFFSET ?DefMagicInf@@3PAVCMagicInf@@A+168
  0066f	c7 85 d0 fe ff
	ff 07 00 00 00	 mov	 DWORD PTR _skill$[ebp], 7
$LN855@Attack:

; 495  : 		}
; 496  : 	}
; 497  : 
; 498  : 	MSBFlag = 0;
; 499  : 	MsgDamage = 0;
; 500  : 	skillSuccess = this->ResistanceCheck(lpObj, lpTargetObj, skill);

  00679	8b 95 d0 fe ff
	ff		 mov	 edx, DWORD PTR _skill$[ebp]
  0067f	8b 8d c0 fe ff
	ff		 mov	 ecx, DWORD PTR _this$GSCopy$[ebp]
  00685	52		 push	 edx
  00686	57		 push	 edi
  00687	56		 push	 esi
  00688	c6 45 18 00	 mov	 BYTE PTR _MSBFlag$[ebp], 0
  0068c	c6 85 e7 fe ff
	ff 00		 mov	 BYTE PTR _MsgDamage$[ebp], 0
  00693	e8 00 00 00 00	 call	 ?ResistanceCheck@CObjBaseAttack@@QAEHPAUOBJECTSTRUCT@@0H@Z ; CObjBaseAttack::ResistanceCheck

; 501  : 	BOOL skillIceArrowSuccess = skillSuccess;
; 502  : 
; 503  : 	if ( skill == 51 || skill == 424 )

  00698	83 bd d0 fe ff
	ff 33		 cmp	 DWORD PTR _skill$[ebp], 51 ; 00000033H
  0069f	8b d8		 mov	 ebx, eax
  006a1	89 9d a0 fe ff
	ff		 mov	 DWORD PTR _skillSuccess$[ebp], ebx
  006a7	89 9d e0 fe ff
	ff		 mov	 DWORD PTR _skillIceArrowSuccess$[ebp], ebx
  006ad	74 0c		 je	 SHORT $LN652@Attack
  006af	81 bd d0 fe ff
	ff a8 01 00 00	 cmp	 DWORD PTR _skill$[ebp], 424 ; 000001a8H
  006b9	75 08		 jne	 SHORT $LN653@Attack
$LN652@Attack:

; 504  : 	{
; 505  : 		skillSuccess = 0;

  006bb	33 db		 xor	 ebx, ebx
  006bd	89 9d a0 fe ff
	ff		 mov	 DWORD PTR _skillSuccess$[ebp], ebx
$LN653@Attack:

; 506  : 	}
; 507  : 
; 508  : 	BOOL bAllMiss = FALSE;
; 509  : 	
; 510  : 	if(gObjSearchActiveEffect(lpObj, AT_INVISIBILITY) == 1 && (lpObj->Authority&32) != 32)

  006c3	6a 12		 push	 18			; 00000012H
  006c5	56		 push	 esi
  006c6	c7 85 ac fe ff
	ff 00 00 00 00	 mov	 DWORD PTR _bAllMiss$[ebp], 0
  006d0	e8 00 00 00 00	 call	 ?gObjSearchActiveEffect@@YAEPAUOBJECTSTRUCT@@H@Z ; gObjSearchActiveEffect
  006d5	83 c4 08	 add	 esp, 8
  006d8	3c 01		 cmp	 al, 1
  006da	75 16		 jne	 SHORT $LN651@Attack
  006dc	f6 86 0c 02 00
	00 20		 test	 BYTE PTR [esi+524], 32	; 00000020H
  006e3	75 0d		 jne	 SHORT $LN651@Attack

; 511  : 	{
; 512  : 		gObjUseSkill.RemoveCloakingEffect(lpObj->m_Index);

  006e5	8b 06		 mov	 eax, DWORD PTR [esi]
  006e7	50		 push	 eax
  006e8	b9 00 00 00 00	 mov	 ecx, OFFSET ?gObjUseSkill@@3VCObjUseSkill@@A ; gObjUseSkill
  006ed	e8 00 00 00 00	 call	 ?RemoveCloakingEffect@CObjUseSkill@@QAEHH@Z ; CObjUseSkill::RemoveCloakingEffect
$LN651@Attack:

; 513  : 	}
; 514  : 
; 515  : 	BOOL bDamageReflect = FALSE;
; 516  : 	
; 517  : 	if ( AttackDamage == 0 )

  006f2	83 7d 1c 00	 cmp	 DWORD PTR _AttackDamage$[ebp], 0
  006f6	c7 85 9c fe ff
	ff 00 00 00 00	 mov	 DWORD PTR _bDamageReflect$[ebp], 0
  00700	0f 85 e4 36 00
	00		 jne	 $LN650@Attack

; 518  : 	{
; 519  : 		if ( g_ShieldSystemOn == TRUE )

  00706	b8 01 00 00 00	 mov	 eax, 1
  0070b	39 05 00 00 00
	00		 cmp	 DWORD PTR ?g_ShieldSystemOn@@3HA, eax ; g_ShieldSystemOn
  00711	0f 85 84 00 00
	00		 jne	 $LN649@Attack

; 520  : 		{
; 521  : 			if ( lpObj->Type == OBJ_USER && lpTargetObj->Type == OBJ_USER )

  00717	66 39 46 68	 cmp	 WORD PTR [esi+104], ax
  0071b	75 41		 jne	 SHORT $LN648@Attack
  0071d	66 39 47 68	 cmp	 WORD PTR [edi+104], ax
  00721	75 3b		 jne	 SHORT $LN648@Attack

; 522  : 			{
; 523  : 				if ( !this->MissCheckPvP(lpObj, lpTargetObj, skill, skillSuccess, magicsend, bAllMiss,byBarrageCount) )

  00723	8b 4d 24	 mov	 ecx, DWORD PTR _byBarrageCount$[ebp]
  00726	8b 45 14	 mov	 eax, DWORD PTR _magicsend$[ebp]
  00729	51		 push	 ecx
  0072a	8b 8d d0 fe ff
	ff		 mov	 ecx, DWORD PTR _skill$[ebp]
  00730	8d 95 ac fe ff
	ff		 lea	 edx, DWORD PTR _bAllMiss$[ebp]
  00736	52		 push	 edx
  00737	50		 push	 eax
  00738	53		 push	 ebx
  00739	51		 push	 ecx
  0073a	8b 8d c0 fe ff
	ff		 mov	 ecx, DWORD PTR _this$GSCopy$[ebp]
  00740	57		 push	 edi
  00741	56		 push	 esi
  00742	e8 00 00 00 00	 call	 ?MissCheckPvP@CObjBaseAttack@@QAEHPAUOBJECTSTRUCT@@0HHHAAHE@Z ; CObjBaseAttack::MissCheckPvP
  00747	85 c0		 test	 eax, eax
  00749	75 7e		 jne	 SHORT $LN643@Attack
  0074b	5f		 pop	 edi
  0074c	5e		 pop	 esi
  0074d	5b		 pop	 ebx

; 3511 : }

  0074e	8b 4d fc	 mov	 ecx, DWORD PTR __$ArrayPad$[ebp]
  00751	33 cd		 xor	 ecx, ebp
  00753	e8 00 00 00 00	 call	 @__security_check_cookie@4
  00758	8b e5		 mov	 esp, ebp
  0075a	5d		 pop	 ebp
  0075b	c2 24 00	 ret	 36			; 00000024H
$LN648@Attack:

; 524  : 				{
; 525  : 					return FALSE;
; 526  : 				}
; 527  : 			}
; 528  : 			else if ( !this->MissCheck(lpObj, lpTargetObj, skill, skillSuccess, magicsend, bAllMiss,byBarrageCount) )

  0075e	8b 45 24	 mov	 eax, DWORD PTR _byBarrageCount$[ebp]
  00761	8b 8d c0 fe ff
	ff		 mov	 ecx, DWORD PTR _this$GSCopy$[ebp]
  00767	8b 11		 mov	 edx, DWORD PTR [ecx]
  00769	8b 52 04	 mov	 edx, DWORD PTR [edx+4]
  0076c	50		 push	 eax
  0076d	8d 85 ac fe ff
	ff		 lea	 eax, DWORD PTR _bAllMiss$[ebp]
  00773	50		 push	 eax
  00774	8b 45 14	 mov	 eax, DWORD PTR _magicsend$[ebp]
  00777	50		 push	 eax
  00778	8b 85 d0 fe ff
	ff		 mov	 eax, DWORD PTR _skill$[ebp]
  0077e	53		 push	 ebx
  0077f	50		 push	 eax
  00780	57		 push	 edi
  00781	56		 push	 esi
  00782	ff d2		 call	 edx
  00784	85 c0		 test	 eax, eax
  00786	75 41		 jne	 SHORT $LN643@Attack
  00788	5f		 pop	 edi
  00789	5e		 pop	 esi
  0078a	5b		 pop	 ebx

; 3511 : }

  0078b	8b 4d fc	 mov	 ecx, DWORD PTR __$ArrayPad$[ebp]
  0078e	33 cd		 xor	 ecx, ebp
  00790	e8 00 00 00 00	 call	 @__security_check_cookie@4
  00795	8b e5		 mov	 esp, ebp
  00797	5d		 pop	 ebp
  00798	c2 24 00	 ret	 36			; 00000024H
$LN649@Attack:

; 529  : 			{
; 530  : 				return FALSE;
; 531  : 			}
; 532  : 
; 533  : 		}
; 534  : 		else if ( !this->MissCheck(lpObj, lpTargetObj, skill, skillSuccess, magicsend, bAllMiss,byBarrageCount) )

  0079b	8b 55 24	 mov	 edx, DWORD PTR _byBarrageCount$[ebp]
  0079e	8b 8d c0 fe ff
	ff		 mov	 ecx, DWORD PTR _this$GSCopy$[ebp]
  007a4	8b 01		 mov	 eax, DWORD PTR [ecx]
  007a6	8b 40 04	 mov	 eax, DWORD PTR [eax+4]
  007a9	52		 push	 edx
  007aa	8d 95 ac fe ff
	ff		 lea	 edx, DWORD PTR _bAllMiss$[ebp]
  007b0	52		 push	 edx
  007b1	8b 55 14	 mov	 edx, DWORD PTR _magicsend$[ebp]
  007b4	52		 push	 edx
  007b5	8b 95 d0 fe ff
	ff		 mov	 edx, DWORD PTR _skill$[ebp]
  007bb	53		 push	 ebx
  007bc	52		 push	 edx
  007bd	57		 push	 edi
  007be	56		 push	 esi
  007bf	ff d0		 call	 eax
  007c1	85 c0		 test	 eax, eax

; 535  : 		{
; 536  : 			return FALSE;

  007c3	0f 84 66 fc ff
	ff		 je	 $LN1230@Attack
$LN643@Attack:

; 537  : 		}
; 538  : 
; 539  : 		if ( ( skill == 51 || skill == 424 ) &&
; 540  : 			skillIceArrowSuccess == TRUE )

  007c9	8b 85 d0 fe ff
	ff		 mov	 eax, DWORD PTR _skill$[ebp]
  007cf	83 f8 33	 cmp	 eax, 51			; 00000033H
  007d2	74 07		 je	 SHORT $LN641@Attack
  007d4	3d a8 01 00 00	 cmp	 eax, 424		; 000001a8H
  007d9	75 57		 jne	 SHORT $LN642@Attack
$LN641@Attack:
  007db	bb 01 00 00 00	 mov	 ebx, 1
  007e0	39 9d e0 fe ff
	ff		 cmp	 DWORD PTR _skillIceArrowSuccess$[ebp], ebx
  007e6	75 4a		 jne	 SHORT $LN642@Attack

; 541  : 		{
; 542  : 			gObjApplyBuffEffectDuration(lpTargetObj, AT_ICE_ARROW, 0, 0, 0, 0, 7);

  007e8	6a 07		 push	 7
  007ea	6a 00		 push	 0
  007ec	6a 00		 push	 0
  007ee	6a 00		 push	 0
  007f0	6a 00		 push	 0
  007f2	6a 39		 push	 57			; 00000039H
  007f4	57		 push	 edi
  007f5	e8 00 00 00 00	 call	 ?gObjApplyBuffEffectDuration@@YAEPAUOBJECTSTRUCT@@HEHEHH@Z ; gObjApplyBuffEffectDuration

; 543  : 			lpTargetObj->lpAttackObj = lpObj;
; 544  : 			lpTargetObj->PathCount = 0;
; 545  : 			lpTargetObj->PathStartEnd = 0;
; 546  : 			skillSuccess = TRUE;
; 547  : 
; 548  : 			//double :|
; 549  : 			lpTargetObj->PathCount = 0;
; 550  : 			lpTargetObj->PathStartEnd = 0;
; 551  : 			skillSuccess = TRUE;
; 552  : 
; 553  : 			gObjSetPosition(lpTargetObj->m_Index, lpTargetObj->X, lpTargetObj->Y);

  007fa	0f bf 8f 46 01
	00 00		 movsx	 ecx, WORD PTR [edi+326]
  00801	0f bf 97 44 01
	00 00		 movsx	 edx, WORD PTR [edi+324]
  00808	8b 07		 mov	 eax, DWORD PTR [edi]
  0080a	51		 push	 ecx
  0080b	52		 push	 edx
  0080c	50		 push	 eax
  0080d	89 b7 d4 03 00
	00		 mov	 DWORD PTR [edi+980], esi
  00813	c7 87 84 01 00
	00 00 00 00 00	 mov	 DWORD PTR [edi+388], 0
  0081d	c6 87 8c 01 00
	00 00		 mov	 BYTE PTR [edi+396], 0
  00824	89 9d a0 fe ff
	ff		 mov	 DWORD PTR _skillSuccess$[ebp], ebx
  0082a	e8 00 00 00 00	 call	 ?gObjSetPosition@@YAXHHH@Z ; gObjSetPosition
  0082f	83 c4 28	 add	 esp, 40			; 00000028H
$LN642@Attack:

; 554  : 		}
; 555  : 
; 556  : 		if (g_ZtLicense.CheckUser(eZtUB::ulasevich) || g_ZtLicense.CheckUser(eZtUB::ulasevich2))

  00832	6a 17		 push	 23			; 00000017H
  00834	b9 00 00 00 00	 mov	 ecx, OFFSET ?g_ZtLicense@@3VCZtLicense@@A ; g_ZtLicense
  00839	e8 00 00 00 00	 call	 ?CheckUser@CZtLicense@@QAE_NH@Z ; CZtLicense::CheckUser
  0083e	84 c0		 test	 al, al
  00840	75 10		 jne	 SHORT $LN639@Attack
  00842	6a 24		 push	 36			; 00000024H
  00844	b9 00 00 00 00	 mov	 ecx, OFFSET ?g_ZtLicense@@3VCZtLicense@@A ; g_ZtLicense
  00849	e8 00 00 00 00	 call	 ?CheckUser@CZtLicense@@QAE_NH@Z ; CZtLicense::CheckUser
  0084e	84 c0		 test	 al, al
  00850	74 0e		 je	 SHORT $LN640@Attack
$LN639@Attack:

; 557  : 		{
; 558  : 			lpObj->m_SkillNumber = skill;

  00852	66 8b 8d d0 fe
	ff ff		 mov	 cx, WORD PTR _skill$[ebp]
  00859	66 89 8e d8 03
	00 00		 mov	 WORD PTR [esi+984], cx
$LN640@Attack:

; 559  : 		}
; 560  : 
; 561  : 		int targetdefense = this->GetTargetDefense(lpObj, lpTargetObj, MsgDamage);

  00860	8b 8d c0 fe ff
	ff		 mov	 ecx, DWORD PTR _this$GSCopy$[ebp]
  00866	8d 95 e7 fe ff
	ff		 lea	 edx, DWORD PTR _MsgDamage$[ebp]
  0086c	52		 push	 edx
  0086d	57		 push	 edi
  0086e	56		 push	 esi
  0086f	e8 00 00 00 00	 call	 ?GetTargetDefense@CObjBaseAttack@@QAEHPAUOBJECTSTRUCT@@0AAE@Z ; CObjBaseAttack::GetTargetDefense
  00874	8b d8		 mov	 ebx, eax

; 562  : 
; 563  : 		//Season4 berserker add-on
; 564  : 		//if(gObjSearchActiveEffect(lpTargetObj, AT_BERSERKER) == 1)
; 565  : 		//{
; 566  : 
; 567  : 		//	//float BerserkerDex = (float)((lpTargetObj->Dexterity + lpTargetObj->AddDexterity) / 3);
; 568  : 		//	float BerserkerEffect = (float)gObjGetActiveEffect(lpTargetObj, 32);
; 569  : 
; 570  : 		//	//float loc24 = (((float)(40.0f) - (float)(BerserkerEffect))/100.0f);
; 571  : 
; 572  : 		//	//loc24 = (0.1f > loc24)?0.1f:loc24;
; 573  : 		//	//targetdefense -= (int)(BerserkerDex * loc24);
; 574  : 		//	//float fDefense = (lpTargetObj->Dexterity+lpTargetObj->AddDexterity)/3;
; 575  : 		//	//float fValue = (float)gObjGetTotalValueOfEffect(lpTargetObj, 32);
; 576  : 		//	//float fPercent = (40- (fValue+lpObj->m_MPSkillOpt.MpsBerserkInc1))/100;
; 577  : 
; 578  : 
; 579  : 		//	targetdefense -= ( targetdefense * ZtConfig.Skills.Ex_BerserkerDex ) / 100;
; 580  : 		//}
; 581  : 
; 582  : 		if( gObjSearchActiveEffect(lpTargetObj,AT_BERSERKER) == TRUE)

  00876	6a 51		 push	 81			; 00000051H
  00878	57		 push	 edi
  00879	89 9d d8 fe ff
	ff		 mov	 DWORD PTR _targetdefense$222421[ebp], ebx
  0087f	e8 00 00 00 00	 call	 ?gObjSearchActiveEffect@@YAEPAUOBJECTSTRUCT@@H@Z ; gObjSearchActiveEffect
  00884	83 c4 08	 add	 esp, 8
  00887	3c 01		 cmp	 al, 1
  00889	75 2a		 jne	 SHORT $LN638@Attack

; 583  : 		{
; 584  : 			//if(g_SkillAdditionInfo.BerserkerDefenceDivProcent)
; 585  : 			//float fDefense = (lpTargetObj->Dexterity+lpTargetObj->AddDexterity)/3;
; 586  : 			float fValue = (float)gObjGetActiveEffect(lpTargetObj, 32);

  0088b	6a 20		 push	 32			; 00000020H
  0088d	57		 push	 edi
  0088e	e8 00 00 00 00	 call	 ?gObjGetActiveEffect@@YAHPAUOBJECTSTRUCT@@H@Z ; gObjGetActiveEffect

; 587  : 			//float fPercent = (40- (fValue+lpObj->m_MPSkillOpt.MpsBerserkInc1))/100;
; 588  : 			//fPercent = (0.1f > fPercent) ? 0.1f : fPercent;
; 589  : 			targetdefense -= ( targetdefense * g_SkillAdditionInfo.BerserkerDefenceDivProcent ) / 100;

  00893	0f b7 0d ba 0b
	00 00		 movzx	 ecx, WORD PTR ?g_SkillAdditionInfo@@3VCSkillAdditionInfo@@A+3002
  0089a	0f af cb	 imul	 ecx, ebx
  0089d	b8 e1 7a 14 ae	 mov	 eax, -1374389535	; ae147ae1H
  008a2	f7 e9		 imul	 ecx
  008a4	c1 fa 05	 sar	 edx, 5
  008a7	8b c2		 mov	 eax, edx
  008a9	c1 e8 1f	 shr	 eax, 31			; 0000001fH
  008ac	03 c2		 add	 eax, edx
  008ae	83 c4 08	 add	 esp, 8
  008b1	03 d8		 add	 ebx, eax

; 590  : 		}
; 591  : 		else if (	gObjSearchActiveEffect(lpTargetObj,150) == TRUE ||

  008b3	eb 5e		 jmp	 SHORT $LN1177@Attack
$LN638@Attack:

; 592  : 					gObjSearchActiveEffect(lpTargetObj,151) == TRUE ||
; 593  : 					gObjSearchActiveEffect(lpTargetObj,152) == TRUE)

  008b5	68 96 00 00 00	 push	 150			; 00000096H
  008ba	57		 push	 edi
  008bb	e8 00 00 00 00	 call	 ?gObjSearchActiveEffect@@YAEPAUOBJECTSTRUCT@@H@Z ; gObjSearchActiveEffect
  008c0	83 c4 08	 add	 esp, 8
  008c3	3c 01		 cmp	 al, 1
  008c5	74 24		 je	 SHORT $LN635@Attack
  008c7	68 97 00 00 00	 push	 151			; 00000097H
  008cc	57		 push	 edi
  008cd	e8 00 00 00 00	 call	 ?gObjSearchActiveEffect@@YAEPAUOBJECTSTRUCT@@H@Z ; gObjSearchActiveEffect
  008d2	83 c4 08	 add	 esp, 8
  008d5	3c 01		 cmp	 al, 1
  008d7	74 12		 je	 SHORT $LN635@Attack
  008d9	68 98 00 00 00	 push	 152			; 00000098H
  008de	57		 push	 edi
  008df	e8 00 00 00 00	 call	 ?gObjSearchActiveEffect@@YAEPAUOBJECTSTRUCT@@H@Z ; gObjSearchActiveEffect
  008e4	83 c4 08	 add	 esp, 8
  008e7	3c 01		 cmp	 al, 1
  008e9	75 2e		 jne	 SHORT $LN636@Attack
$LN635@Attack:

; 594  : 		{
; 595  : 			//float fDefense = (lpTargetObj->Dexterity+lpTargetObj->AddDexterity)/3;
; 596  : 			float fValue = (float)gObjGetActiveEffect(lpTargetObj, 32);

  008eb	6a 20		 push	 32			; 00000020H
  008ed	57		 push	 edi
  008ee	e8 00 00 00 00	 call	 ?gObjGetActiveEffect@@YAHPAUOBJECTSTRUCT@@H@Z ; gObjGetActiveEffect

; 597  : 			//float fPercent = (40- (fValue+lpObj->m_MPSkillOpt.MpsBerserkInc1))/100;
; 598  : 			//fPercent = (0.1f > fPercent) ? 0.1f : fPercent;
; 599  : 			targetdefense -= ( targetdefense * g_SkillAdditionInfo.m_BerserkerDefenceDivProcent ) / 100;

  008f3	0f b7 0d c2 0c
	00 00		 movzx	 ecx, WORD PTR ?g_SkillAdditionInfo@@3VCSkillAdditionInfo@@A+3266
  008fa	0f af cb	 imul	 ecx, ebx
  008fd	b8 e1 7a 14 ae	 mov	 eax, -1374389535	; ae147ae1H
  00902	f7 e9		 imul	 ecx
  00904	c1 fa 05	 sar	 edx, 5
  00907	8b ca		 mov	 ecx, edx
  00909	c1 e9 1f	 shr	 ecx, 31			; 0000001fH
  0090c	03 ca		 add	 ecx, edx
  0090e	83 c4 08	 add	 esp, 8
  00911	03 d9		 add	 ebx, ecx
$LN1177@Attack:
  00913	89 9d d8 fe ff
	ff		 mov	 DWORD PTR _targetdefense$222421[ebp], ebx
$LN636@Attack:

; 600  : 		}
; 601  : 
; 602  : 		int iInnovationValue = 0; //Reduce Target Defense
; 603  : 
; 604  : 		gObjUpdateAppliedBuffEffect(lpTargetObj, AT_INNOVATION, &iInnovationValue, 0);

  00919	6a 00		 push	 0
  0091b	8d 95 a8 fe ff
	ff		 lea	 edx, DWORD PTR _iInnovationValue$222430[ebp]
  00921	52		 push	 edx
  00922	6a 4d		 push	 77			; 0000004dH
  00924	57		 push	 edi
  00925	c7 85 a8 fe ff
	ff 00 00 00 00	 mov	 DWORD PTR _iInnovationValue$222430[ebp], 0
  0092f	e8 00 00 00 00	 call	 ?gObjUpdateAppliedBuffEffect@@YAEPAUOBJECTSTRUCT@@HPAH1@Z ; gObjUpdateAppliedBuffEffect
  00934	83 c4 10	 add	 esp, 16			; 00000010H

; 605  : 
; 606  : 		if(iInnovationValue != 0)

  00937	83 bd a8 fe ff
	ff 00		 cmp	 DWORD PTR _iInnovationValue$222430[ebp], 0
  0093e	74 23		 je	 SHORT $LN634@Attack

; 607  : 		{
; 608  : 			//int Ex_InnovationPower = GetPrivateProfileInt("Summoner","InnovationPower",30,"..\\Data\\ZtData\\Skills.ini");
; 609  : 			targetdefense -= ( targetdefense * g_SkillAdditionInfo.InnovationMaxPower ) / 100;

  00940	0f b7 0d 3a 0c
	00 00		 movzx	 ecx, WORD PTR ?g_SkillAdditionInfo@@3VCSkillAdditionInfo@@A+3130
  00947	0f af cb	 imul	 ecx, ebx
  0094a	b8 e1 7a 14 ae	 mov	 eax, -1374389535	; ae147ae1H
  0094f	f7 e9		 imul	 ecx
  00951	c1 fa 05	 sar	 edx, 5
  00954	8b c2		 mov	 eax, edx
  00956	c1 e8 1f	 shr	 eax, 31			; 0000001fH
  00959	03 c2		 add	 eax, edx
  0095b	03 d8		 add	 ebx, eax
  0095d	89 9d d8 fe ff
	ff		 mov	 DWORD PTR _targetdefense$222421[ebp], ebx
$LN634@Attack:

; 610  : 		}
; 611  : 
; 612  : 		if ( skill == 19
; 613  : 			|| skill == 20
; 614  : 			|| skill == 21
; 615  : 			|| skill == 22
; 616  : 			|| skill == 23
; 617  : 			|| skill == 56
; 618  : 			|| skill == 41
; 619  : 			|| skill == 47
; 620  : 			|| skill == 42
; 621  : 			|| skill == 49
; 622  : 			|| skill == 43
; 623  : 			|| skill == 55
; 624  : 			|| skill == 44
; 625  : 			|| skill == 57
; 626  : 			|| skill == 74
; 627  : 			|| skill == 235
; 628  : 			|| skill == 232
; 629  : 			|| skill == 236
; 630  : 			|| skill == 238
; 631  : 			|| skill == 326
; 632  : 			|| skill == 327
; 633  : 			|| skill == 328
; 634  : 			|| skill == 329
; 635  : 			|| skill == 330
; 636  : 			|| skill == 331
; 637  : 			|| skill == 332
; 638  : 			|| skill == 333
; 639  : 			|| skill == 336
; 640  : 			|| skill == 339
; 641  : 			|| skill == 342
; 642  : 			|| skill == 337
; 643  : 			//case AT_MSKILL_DK_DESTRUCTION2:
; 644  : 			//case AT_MSKILL_DK_DESTRUCTION3:
; 645  : 			|| skill == 344
; 646  : 			|| skill == 346
; 647  : 			|| skill == 411
; 648  : 			|| skill == 431
; 649  : 			|| skill == 479
; 650  : 			|| skill == 481
; 651  : 			|| skill == 493
; 652  : 			//case AT_MSKILL_MG_FIRESLASH2:
; 653  : 			|| skill == 482
; 654  : 			|| skill == 492
; 655  : 			|| skill == 494
; 656  : 			)

  00963	8b 85 d0 fe ff
	ff		 mov	 eax, DWORD PTR _skill$[ebp]
  00969	83 f8 13	 cmp	 eax, 19			; 00000013H
  0096c	0f 84 92 05 00
	00		 je	 $LN632@Attack
  00972	83 f8 14	 cmp	 eax, 20			; 00000014H
  00975	0f 84 89 05 00
	00		 je	 $LN632@Attack
  0097b	83 f8 15	 cmp	 eax, 21			; 00000015H
  0097e	0f 84 80 05 00
	00		 je	 $LN632@Attack
  00984	83 f8 16	 cmp	 eax, 22			; 00000016H
  00987	0f 84 77 05 00
	00		 je	 $LN632@Attack
  0098d	83 f8 17	 cmp	 eax, 23			; 00000017H
  00990	0f 84 6e 05 00
	00		 je	 $LN632@Attack
  00996	83 f8 38	 cmp	 eax, 56			; 00000038H
  00999	0f 84 65 05 00
	00		 je	 $LN632@Attack
  0099f	83 f8 29	 cmp	 eax, 41			; 00000029H
  009a2	0f 84 5c 05 00
	00		 je	 $LN632@Attack
  009a8	83 f8 2f	 cmp	 eax, 47			; 0000002fH
  009ab	0f 84 53 05 00
	00		 je	 $LN632@Attack
  009b1	83 f8 2a	 cmp	 eax, 42			; 0000002aH
  009b4	0f 84 4a 05 00
	00		 je	 $LN632@Attack
  009ba	83 f8 31	 cmp	 eax, 49			; 00000031H
  009bd	0f 84 41 05 00
	00		 je	 $LN632@Attack
  009c3	83 f8 2b	 cmp	 eax, 43			; 0000002bH
  009c6	0f 84 38 05 00
	00		 je	 $LN632@Attack
  009cc	83 f8 37	 cmp	 eax, 55			; 00000037H
  009cf	0f 84 2f 05 00
	00		 je	 $LN632@Attack
  009d5	83 f8 2c	 cmp	 eax, 44			; 0000002cH
  009d8	0f 84 26 05 00
	00		 je	 $LN632@Attack
  009de	83 f8 39	 cmp	 eax, 57			; 00000039H
  009e1	0f 84 1d 05 00
	00		 je	 $LN632@Attack
  009e7	83 f8 4a	 cmp	 eax, 74			; 0000004aH
  009ea	0f 84 14 05 00
	00		 je	 $LN632@Attack
  009f0	3d eb 00 00 00	 cmp	 eax, 235		; 000000ebH
  009f5	0f 84 09 05 00
	00		 je	 $LN632@Attack
  009fb	3d e8 00 00 00	 cmp	 eax, 232		; 000000e8H
  00a00	0f 84 fe 04 00
	00		 je	 $LN632@Attack
  00a06	3d ec 00 00 00	 cmp	 eax, 236		; 000000ecH
  00a0b	0f 84 f3 04 00
	00		 je	 $LN632@Attack
  00a11	3d ee 00 00 00	 cmp	 eax, 238		; 000000eeH
  00a16	0f 84 e8 04 00
	00		 je	 $LN632@Attack
  00a1c	3d 46 01 00 00	 cmp	 eax, 326		; 00000146H
  00a21	0f 84 dd 04 00
	00		 je	 $LN632@Attack
  00a27	3d 47 01 00 00	 cmp	 eax, 327		; 00000147H
  00a2c	0f 84 d2 04 00
	00		 je	 $LN632@Attack
  00a32	3d 48 01 00 00	 cmp	 eax, 328		; 00000148H
  00a37	0f 84 c7 04 00
	00		 je	 $LN632@Attack
  00a3d	3d 49 01 00 00	 cmp	 eax, 329		; 00000149H
  00a42	0f 84 bc 04 00
	00		 je	 $LN632@Attack
  00a48	3d 4a 01 00 00	 cmp	 eax, 330		; 0000014aH
  00a4d	0f 84 b1 04 00
	00		 je	 $LN632@Attack
  00a53	3d 4b 01 00 00	 cmp	 eax, 331		; 0000014bH
  00a58	0f 84 a6 04 00
	00		 je	 $LN632@Attack
  00a5e	3d 4c 01 00 00	 cmp	 eax, 332		; 0000014cH
  00a63	0f 84 9b 04 00
	00		 je	 $LN632@Attack
  00a69	3d 4d 01 00 00	 cmp	 eax, 333		; 0000014dH
  00a6e	0f 84 90 04 00
	00		 je	 $LN632@Attack
  00a74	3d 50 01 00 00	 cmp	 eax, 336		; 00000150H
  00a79	0f 84 85 04 00
	00		 je	 $LN632@Attack
  00a7f	3d 53 01 00 00	 cmp	 eax, 339		; 00000153H
  00a84	0f 84 7a 04 00
	00		 je	 $LN632@Attack
  00a8a	3d 56 01 00 00	 cmp	 eax, 342		; 00000156H
  00a8f	0f 84 6f 04 00
	00		 je	 $LN632@Attack
  00a95	3d 51 01 00 00	 cmp	 eax, 337		; 00000151H
  00a9a	0f 84 64 04 00
	00		 je	 $LN632@Attack
  00aa0	3d 58 01 00 00	 cmp	 eax, 344		; 00000158H
  00aa5	0f 84 59 04 00
	00		 je	 $LN632@Attack
  00aab	3d 5a 01 00 00	 cmp	 eax, 346		; 0000015aH
  00ab0	0f 84 4e 04 00
	00		 je	 $LN632@Attack
  00ab6	3d 9b 01 00 00	 cmp	 eax, 411		; 0000019bH
  00abb	0f 84 43 04 00
	00		 je	 $LN632@Attack
  00ac1	3d af 01 00 00	 cmp	 eax, 431		; 000001afH
  00ac6	0f 84 38 04 00
	00		 je	 $LN632@Attack
  00acc	3d df 01 00 00	 cmp	 eax, 479		; 000001dfH
  00ad1	0f 84 2d 04 00
	00		 je	 $LN632@Attack
  00ad7	3d e1 01 00 00	 cmp	 eax, 481		; 000001e1H
  00adc	0f 84 22 04 00
	00		 je	 $LN632@Attack
  00ae2	3d ed 01 00 00	 cmp	 eax, 493		; 000001edH
  00ae7	0f 84 17 04 00
	00		 je	 $LN632@Attack
  00aed	3d e2 01 00 00	 cmp	 eax, 482		; 000001e2H
  00af2	0f 84 0c 04 00
	00		 je	 $LN632@Attack
  00af8	3d ec 01 00 00	 cmp	 eax, 492		; 000001ecH
  00afd	0f 84 01 04 00
	00		 je	 $LN632@Attack
  00b03	3d ee 01 00 00	 cmp	 eax, 494		; 000001eeH
  00b08	0f 84 f6 03 00
	00		 je	 $LN632@Attack

; 663  : 			}
; 664  : 		}
; 665  : 		else if ( skill == 76 )	// pluzzmanton

  00b0e	83 f8 4c	 cmp	 eax, 76			; 0000004cH
  00b11	0f 85 27 03 00
	00		 jne	 $LN629@Attack

; 666  : 		{
; 667  : 			int iFenrirAttackDmg = 0;
; 668  : 
; 669  : 			if ( lpObj->Class == CLASS_KNIGHT || lpObj->Class == CLASS_MAGUMSA )

  00b17	0f b7 86 b8 00
	00 00		 movzx	 eax, WORD PTR [esi+184]
  00b1e	83 f8 01	 cmp	 eax, 1
  00b21	0f 84 78 01 00
	00		 je	 $LN627@Attack
  00b27	83 f8 03	 cmp	 eax, 3
  00b2a	0f 84 6f 01 00
	00		 je	 $LN627@Attack

; 672  : 			}
; 673  : 			else if ( lpObj->Class == CLASS_WIZARD )

  00b30	66 85 c0	 test	 ax, ax
  00b33	75 6d		 jne	 SHORT $LN625@Attack

; 674  : 			{
; 675  : 				iFenrirAttackDmg = lpObj->Strength / 5 + lpObj->Dexterity / 5 + lpObj->Vitality / 7 + lpObj->Energy / 3;	// #formula

  00b35	0f b7 8e fa 00
	00 00		 movzx	 ecx, WORD PTR [esi+250]
  00b3c	b8 56 55 55 55	 mov	 eax, 1431655766		; 55555556H
  00b41	f7 e9		 imul	 ecx
  00b43	0f b7 8e f8 00
	00 00		 movzx	 ecx, WORD PTR [esi+248]
  00b4a	8b da		 mov	 ebx, edx
  00b4c	c1 eb 1f	 shr	 ebx, 31			; 0000001fH
  00b4f	03 da		 add	 ebx, edx
  00b51	b8 93 24 49 92	 mov	 eax, -1840700269	; 92492493H
  00b56	f7 e9		 imul	 ecx
  00b58	03 d1		 add	 edx, ecx
  00b5a	0f b7 8e f6 00
	00 00		 movzx	 ecx, WORD PTR [esi+246]
  00b61	c1 fa 02	 sar	 edx, 2
  00b64	8b c2		 mov	 eax, edx
  00b66	c1 e8 1f	 shr	 eax, 31			; 0000001fH
  00b69	03 da		 add	 ebx, edx
  00b6b	03 c3		 add	 eax, ebx
  00b6d	8b d8		 mov	 ebx, eax
  00b6f	b8 67 66 66 66	 mov	 eax, 1717986919		; 66666667H
  00b74	f7 e9		 imul	 ecx
  00b76	0f b7 8e f4 00
	00 00		 movzx	 ecx, WORD PTR [esi+244]
  00b7d	d1 fa		 sar	 edx, 1
  00b7f	8b c2		 mov	 eax, edx
  00b81	c1 e8 1f	 shr	 eax, 31			; 0000001fH
  00b84	03 da		 add	 ebx, edx
  00b86	03 c3		 add	 eax, ebx
  00b88	89 85 e0 fe ff
	ff		 mov	 DWORD PTR tv1885[ebp], eax
  00b8e	b8 67 66 66 66	 mov	 eax, 1717986919		; 66666667H
  00b93	f7 e9		 imul	 ecx
  00b95	8b 85 e0 fe ff
	ff		 mov	 eax, DWORD PTR tv1885[ebp]
  00b9b	d1 fa		 sar	 edx, 1
  00b9d	e9 65 01 00 00	 jmp	 $LN1178@Attack
$LN625@Attack:

; 676  : 			}
; 677  : 			else if ( lpObj->Class == CLASS_ELF )

  00ba2	83 f8 02	 cmp	 eax, 2
  00ba5	75 6d		 jne	 SHORT $LN623@Attack

; 678  : 			{
; 679  : 				iFenrirAttackDmg = lpObj->Strength / 5 + lpObj->Dexterity / 3 + lpObj->Vitality / 7 + lpObj->Energy / 5;	// #formula

  00ba7	0f b7 8e fa 00
	00 00		 movzx	 ecx, WORD PTR [esi+250]
  00bae	b8 67 66 66 66	 mov	 eax, 1717986919		; 66666667H
  00bb3	f7 e9		 imul	 ecx
  00bb5	0f b7 8e f8 00
	00 00		 movzx	 ecx, WORD PTR [esi+248]
  00bbc	d1 fa		 sar	 edx, 1
  00bbe	8b da		 mov	 ebx, edx
  00bc0	c1 eb 1f	 shr	 ebx, 31			; 0000001fH
  00bc3	03 da		 add	 ebx, edx
  00bc5	b8 93 24 49 92	 mov	 eax, -1840700269	; 92492493H
  00bca	f7 e9		 imul	 ecx
  00bcc	03 d1		 add	 edx, ecx
  00bce	0f b7 8e f6 00
	00 00		 movzx	 ecx, WORD PTR [esi+246]
  00bd5	c1 fa 02	 sar	 edx, 2
  00bd8	8b c2		 mov	 eax, edx
  00bda	c1 e8 1f	 shr	 eax, 31			; 0000001fH
  00bdd	03 da		 add	 ebx, edx
  00bdf	03 c3		 add	 eax, ebx
  00be1	8b d8		 mov	 ebx, eax
  00be3	b8 56 55 55 55	 mov	 eax, 1431655766		; 55555556H
  00be8	f7 e9		 imul	 ecx
  00bea	0f b7 8e f4 00
	00 00		 movzx	 ecx, WORD PTR [esi+244]
  00bf1	8b c2		 mov	 eax, edx
  00bf3	c1 e8 1f	 shr	 eax, 31			; 0000001fH
  00bf6	03 da		 add	 ebx, edx
  00bf8	03 c3		 add	 eax, ebx
  00bfa	89 85 e0 fe ff
	ff		 mov	 DWORD PTR tv1862[ebp], eax
  00c00	b8 67 66 66 66	 mov	 eax, 1717986919		; 66666667H
  00c05	f7 e9		 imul	 ecx
  00c07	8b 85 e0 fe ff
	ff		 mov	 eax, DWORD PTR tv1862[ebp]
  00c0d	d1 fa		 sar	 edx, 1

; 680  : 			}
; 681  : 			else	// Dark Lord

  00c0f	e9 f3 00 00 00	 jmp	 $LN1178@Attack
$LN623@Attack:

; 682  : 			{
; 683  : 				iFenrirAttackDmg = lpObj->Strength / 5 + lpObj->Dexterity / 5 + lpObj->Vitality / 7 + lpObj->Energy / 3 + lpObj->Leadership / 3;	// #formula

  00c14	0f b7 8e 18 01
	00 00		 movzx	 ecx, WORD PTR [esi+280]
  00c1b	b8 56 55 55 55	 mov	 eax, 1431655766		; 55555556H
  00c20	f7 e9		 imul	 ecx
  00c22	0f b7 8e fa 00
	00 00		 movzx	 ecx, WORD PTR [esi+250]
  00c29	8b da		 mov	 ebx, edx
  00c2b	c1 eb 1f	 shr	 ebx, 31			; 0000001fH
  00c2e	03 da		 add	 ebx, edx
  00c30	b8 56 55 55 55	 mov	 eax, 1431655766		; 55555556H
  00c35	f7 e9		 imul	 ecx
  00c37	0f b7 8e f8 00
	00 00		 movzx	 ecx, WORD PTR [esi+248]
  00c3e	03 da		 add	 ebx, edx
  00c40	8b c2		 mov	 eax, edx
  00c42	c1 e8 1f	 shr	 eax, 31			; 0000001fH
  00c45	03 c3		 add	 eax, ebx
  00c47	89 85 e0 fe ff
	ff		 mov	 DWORD PTR tv1851[ebp], eax
  00c4d	b8 93 24 49 92	 mov	 eax, -1840700269	; 92492493H
  00c52	f7 e9		 imul	 ecx
  00c54	8b 85 e0 fe ff
	ff		 mov	 eax, DWORD PTR tv1851[ebp]
  00c5a	03 d1		 add	 edx, ecx
  00c5c	0f b7 8e f6 00
	00 00		 movzx	 ecx, WORD PTR [esi+246]
  00c63	c1 fa 02	 sar	 edx, 2
  00c66	03 c2		 add	 eax, edx
  00c68	8b da		 mov	 ebx, edx
  00c6a	c1 eb 1f	 shr	 ebx, 31			; 0000001fH
  00c6d	03 d8		 add	 ebx, eax
  00c6f	b8 67 66 66 66	 mov	 eax, 1717986919		; 66666667H
  00c74	f7 e9		 imul	 ecx
  00c76	0f b7 8e f4 00
	00 00		 movzx	 ecx, WORD PTR [esi+244]
  00c7d	d1 fa		 sar	 edx, 1
  00c7f	8b c2		 mov	 eax, edx
  00c81	c1 e8 1f	 shr	 eax, 31			; 0000001fH
  00c84	03 da		 add	 ebx, edx
  00c86	03 c3		 add	 eax, ebx
  00c88	89 85 e0 fe ff
	ff		 mov	 DWORD PTR tv1844[ebp], eax
  00c8e	b8 67 66 66 66	 mov	 eax, 1717986919		; 66666667H
  00c93	f7 e9		 imul	 ecx
  00c95	8b 85 e0 fe ff
	ff		 mov	 eax, DWORD PTR tv1844[ebp]
  00c9b	d1 fa		 sar	 edx, 1
  00c9d	eb 68		 jmp	 SHORT $LN1178@Attack
$LN627@Attack:

; 670  : 			{
; 671  : 				iFenrirAttackDmg = lpObj->Strength / 3 + lpObj->Dexterity / 5 + lpObj->Vitality / 5 + lpObj->Energy / 7;	// #formula

  00c9f	0f b7 8e fa 00
	00 00		 movzx	 ecx, WORD PTR [esi+250]
  00ca6	b8 93 24 49 92	 mov	 eax, -1840700269	; 92492493H
  00cab	f7 e9		 imul	 ecx
  00cad	03 d1		 add	 edx, ecx
  00caf	0f b7 8e f8 00
	00 00		 movzx	 ecx, WORD PTR [esi+248]
  00cb6	c1 fa 02	 sar	 edx, 2
  00cb9	8b da		 mov	 ebx, edx
  00cbb	c1 eb 1f	 shr	 ebx, 31			; 0000001fH
  00cbe	03 da		 add	 ebx, edx
  00cc0	b8 67 66 66 66	 mov	 eax, 1717986919		; 66666667H
  00cc5	f7 e9		 imul	 ecx
  00cc7	0f b7 8e f6 00
	00 00		 movzx	 ecx, WORD PTR [esi+246]
  00cce	d1 fa		 sar	 edx, 1
  00cd0	8b c2		 mov	 eax, edx
  00cd2	c1 e8 1f	 shr	 eax, 31			; 0000001fH
  00cd5	03 da		 add	 ebx, edx
  00cd7	03 c3		 add	 eax, ebx
  00cd9	8b d8		 mov	 ebx, eax
  00cdb	b8 67 66 66 66	 mov	 eax, 1717986919		; 66666667H
  00ce0	f7 e9		 imul	 ecx
  00ce2	0f b7 8e f4 00
	00 00		 movzx	 ecx, WORD PTR [esi+244]
  00ce9	d1 fa		 sar	 edx, 1
  00ceb	8b c2		 mov	 eax, edx
  00ced	c1 e8 1f	 shr	 eax, 31			; 0000001fH
  00cf0	03 da		 add	 ebx, edx
  00cf2	03 c3		 add	 eax, ebx
  00cf4	89 85 e0 fe ff
	ff		 mov	 DWORD PTR tv1758[ebp], eax
  00cfa	b8 56 55 55 55	 mov	 eax, 1431655766		; 55555556H
  00cff	f7 e9		 imul	 ecx
  00d01	8b 85 e0 fe ff
	ff		 mov	 eax, DWORD PTR tv1758[ebp]
$LN1178@Attack:
  00d07	8b da		 mov	 ebx, edx
  00d09	03 c2		 add	 eax, edx
  00d0b	c1 eb 1f	 shr	 ebx, 31			; 0000001fH
  00d0e	03 d8		 add	 ebx, eax

; 684  : 			}
; 685  : 
; 686  : 			if ( iFenrirAttackDmg < 0 )

  00d10	85 db		 test	 ebx, ebx
  00d12	79 02		 jns	 SHORT $LN621@Attack

; 687  : 			{
; 688  : 				iFenrirAttackDmg = 0;

  00d14	33 db		 xor	 ebx, ebx
$LN621@Attack:

; 689  : 			}
; 690  : 
; 691  : 			if ( lpObj->m_CriticalDamage > 0 )

  00d16	83 be bc 04 00
	00 00		 cmp	 DWORD PTR [esi+1212], 0
  00d1d	7e 1c		 jle	 SHORT $LN890@Attack

; 692  : 			{
; 693  : 				if ( (rand()%100) < lpObj->m_CriticalDamage )

  00d1f	e8 00 00 00 00	 call	 _rand
  00d24	99		 cdq
  00d25	b9 64 00 00 00	 mov	 ecx, 100		; 00000064H
  00d2a	f7 f9		 idiv	 ecx
  00d2c	3b 96 bc 04 00
	00		 cmp	 edx, DWORD PTR [esi+1212]
  00d32	7d 07		 jge	 SHORT $LN890@Attack

; 694  : 				{
; 695  : 					MsgDamage = 3;

  00d34	c6 85 e7 fe ff
	ff 03		 mov	 BYTE PTR _MsgDamage$[ebp], 3
$LN890@Attack:

; 696  : 				}
; 697  : 			}
; 698  : 
; 699  : 			if ( lpObj->m_ExcelentDamage > 0 )

  00d3b	83 be c0 04 00
	00 00		 cmp	 DWORD PTR [esi+1216], 0
  00d42	7e 1e		 jle	 SHORT $LN857@Attack

; 700  : 			{
; 701  : 				if ( (rand()%100) < lpObj->m_ExcelentDamage )

  00d44	e8 00 00 00 00	 call	 _rand
  00d49	99		 cdq
  00d4a	b9 64 00 00 00	 mov	 ecx, 100		; 00000064H
  00d4f	f7 f9		 idiv	 ecx
  00d51	3b 96 c0 04 00
	00		 cmp	 edx, DWORD PTR [esi+1216]
  00d57	7d 09		 jge	 SHORT $LN857@Attack

; 702  : 				{
; 703  : 					MsgDamage = 2;

  00d59	c6 85 e7 fe ff
	ff 02		 mov	 BYTE PTR _MsgDamage$[ebp], 2

; 704  : 				}
; 705  : 			}
; 706  : 
; 707  : 			if ( MsgDamage == 3 )	// Critical Damage

  00d60	eb 61		 jmp	 SHORT $LN833@Attack
$LN857@Attack:
  00d62	8a 85 e7 fe ff
	ff		 mov	 al, BYTE PTR _MsgDamage$[ebp]
  00d68	3c 03		 cmp	 al, 3
  00d6a	75 53		 jne	 SHORT $LN616@Attack

; 708  : 			{
; 709  : 				AttackDamage =  iFenrirAttackDmg + lpMagic->m_DamageMax;
; 710  : 				AttackDamage += lpObj->SetOpAddCriticalDamage;

  00d6c	0f bf 96 2a 11
	00 00		 movsx	 edx, WORD PTR [esi+4394]
  00d73	8b 85 bc fe ff
	ff		 mov	 eax, DWORD PTR _lpMagic$GSCopy$[ebp]
  00d79	03 50 10	 add	 edx, DWORD PTR [eax+16]

; 711  : 
; 712  : 				int iCriticalDamageValue = 0;
; 713  : 				gObjUpdateAppliedBuffEffect(lpObj, AT_INCREASE_CRITICAL_DMG, &iCriticalDamageValue, 0);

  00d7c	6a 00		 push	 0
  00d7e	8d 8d d4 fe ff
	ff		 lea	 ecx, DWORD PTR _iCriticalDamageValue$222467[ebp]
  00d84	51		 push	 ecx
  00d85	03 d3		 add	 edx, ebx
  00d87	6a 05		 push	 5
  00d89	56		 push	 esi
  00d8a	89 55 1c	 mov	 DWORD PTR _AttackDamage$[ebp], edx
  00d8d	c7 85 d4 fe ff
	ff 00 00 00 00	 mov	 DWORD PTR _iCriticalDamageValue$222467[ebp], 0
  00d97	e8 00 00 00 00	 call	 ?gObjUpdateAppliedBuffEffect@@YAEPAUOBJECTSTRUCT@@HPAH1@Z ; gObjUpdateAppliedBuffEffect

; 714  : 
; 715  : 				AttackDamage += iCriticalDamageValue;
; 716  : 				AttackDamage += lpObj->m_JewelOfHarmonyEffect.HJOpAddCriticalDamage;
; 717  : 				AttackDamage -= targetdefense;

  00d9c	0f bf 96 e2 1f
	00 00		 movsx	 edx, WORD PTR [esi+8162]
  00da3	2b 95 d8 fe ff
	ff		 sub	 edx, DWORD PTR _targetdefense$222421[ebp]
  00da9	8b 4d 1c	 mov	 ecx, DWORD PTR _AttackDamage$[ebp]
  00dac	03 95 d4 fe ff
	ff		 add	 edx, DWORD PTR _iCriticalDamageValue$222467[ebp]
  00db2	83 c4 10	 add	 esp, 16			; 00000010H
  00db5	03 ca		 add	 ecx, edx
  00db7	89 4d 1c	 mov	 DWORD PTR _AttackDamage$[ebp], ecx
  00dba	e9 7f 01 00 00	 jmp	 $LN858@Attack
$LN616@Attack:

; 718  : 			}
; 719  : 			else if ( MsgDamage == 2 )	// Excellent

  00dbf	3c 02		 cmp	 al, 2
  00dc1	75 3c		 jne	 SHORT $LN614@Attack
$LN833@Attack:

; 720  : 			{
; 721  : 				AttackDamage = iFenrirAttackDmg + lpMagic->m_DamageMax;

  00dc3	8b 85 bc fe ff
	ff		 mov	 eax, DWORD PTR _lpMagic$GSCopy$[ebp]
  00dc9	8b 48 10	 mov	 ecx, DWORD PTR [eax+16]
  00dcc	03 cb		 add	 ecx, ebx

; 722  : 				AttackDamage += AttackDamage * 20 / 100;
; 723  : 				AttackDamage += lpObj->SetOpAddExDamage;
; 724  : 				AttackDamage -= targetdefense;

  00dce	0f bf 9e 26 11
	00 00		 movsx	 ebx, WORD PTR [esi+4390]
  00dd5	8d 14 89	 lea	 edx, DWORD PTR [ecx+ecx*4]
  00dd8	03 d2		 add	 edx, edx
  00dda	03 d2		 add	 edx, edx
  00ddc	b8 1f 85 eb 51	 mov	 eax, 1374389535		; 51eb851fH
  00de1	f7 ea		 imul	 edx
  00de3	c1 fa 05	 sar	 edx, 5
  00de6	8b c2		 mov	 eax, edx
  00de8	c1 e8 1f	 shr	 eax, 31			; 0000001fH
  00deb	03 da		 add	 ebx, edx
  00ded	03 c3		 add	 eax, ebx
  00def	2b 85 d8 fe ff
	ff		 sub	 eax, DWORD PTR _targetdefense$222421[ebp]
  00df5	03 c8		 add	 ecx, eax
  00df7	89 4d 1c	 mov	 DWORD PTR _AttackDamage$[ebp], ecx

; 725  : 			}
; 726  : 			else

  00dfa	e9 3f 01 00 00	 jmp	 $LN858@Attack
$LN614@Attack:

; 727  : 			{
; 728  : 				AttackDamage = (iFenrirAttackDmg + lpMagic->m_DamageMin) + (rand()%(lpMagic->m_DamageMax - lpMagic->m_DamageMin + 1));

  00dff	8b 8d bc fe ff
	ff		 mov	 ecx, DWORD PTR _lpMagic$GSCopy$[ebp]
  00e05	8b 51 0c	 mov	 edx, DWORD PTR [ecx+12]
  00e08	89 95 d4 fe ff
	ff		 mov	 DWORD PTR tv5812[ebp], edx
  00e0e	e8 00 00 00 00	 call	 _rand

; 729  : 				AttackDamage -= targetdefense;

  00e13	8b 8d bc fe ff
	ff		 mov	 ecx, DWORD PTR _lpMagic$GSCopy$[ebp]
  00e19	8b 49 10	 mov	 ecx, DWORD PTR [ecx+16]
  00e1c	2b 8d d4 fe ff
	ff		 sub	 ecx, DWORD PTR tv5812[ebp]
  00e22	99		 cdq
  00e23	41		 inc	 ecx
  00e24	f7 f9		 idiv	 ecx
  00e26	8b ca		 mov	 ecx, edx
  00e28	2b 8d d8 fe ff
	ff		 sub	 ecx, DWORD PTR _targetdefense$222421[ebp]
  00e2e	03 8d d4 fe ff
	ff		 add	 ecx, DWORD PTR tv5812[ebp]
  00e34	03 cb		 add	 ecx, ebx
  00e36	89 4d 1c	 mov	 DWORD PTR _AttackDamage$[ebp], ecx

; 730  : 			}
; 731  : 		}
; 732  : 		else

  00e39	e9 00 01 00 00	 jmp	 $LN858@Attack
$LN629@Attack:

; 733  : 		{
; 734  : 			
; 735  : 			if ( ( lpObj->Class == CLASS_WIZARD || lpObj->Class == CLASS_MAGUMSA ) && skill )

  00e3e	0f b7 8e b8 00
	00 00		 movzx	 ecx, WORD PTR [esi+184]
  00e45	66 85 c9	 test	 cx, cx
  00e48	74 05		 je	 SHORT $LN610@Attack
  00e4a	83 f9 03	 cmp	 ecx, 3
  00e4d	75 31		 jne	 SHORT $LN611@Attack
$LN610@Attack:
  00e4f	85 c0		 test	 eax, eax
  00e51	74 2d		 je	 SHORT $LN611@Attack

; 736  : 			{
; 737  : 				AttackDamage = this->GetAttackDamageWizard(lpObj, targetdefense, lpMagic, MsgDamage, bIsOnDuel);

  00e53	8b 95 d4 fe ff
	ff		 mov	 edx, DWORD PTR _bIsOnDuel$[ebp]
  00e59	8b 8d bc fe ff
	ff		 mov	 ecx, DWORD PTR _lpMagic$GSCopy$[ebp]
  00e5f	52		 push	 edx
  00e60	8d 85 e7 fe ff
	ff		 lea	 eax, DWORD PTR _MsgDamage$[ebp]
  00e66	50		 push	 eax
  00e67	51		 push	 ecx
  00e68	8b 8d c0 fe ff
	ff		 mov	 ecx, DWORD PTR _this$GSCopy$[ebp]
  00e6e	53		 push	 ebx
  00e6f	56		 push	 esi
  00e70	e8 00 00 00 00	 call	 ?GetAttackDamageWizard@CObjAttack@@QAEHPAUOBJECTSTRUCT@@HPAVCMagicInf@@AAEH@Z ; CObjAttack::GetAttackDamageWizard
  00e75	89 45 1c	 mov	 DWORD PTR _AttackDamage$[ebp], eax

; 738  : 
; 739  : 				if ( AttackDamage > 0 )

  00e78	85 c0		 test	 eax, eax
  00e7a	7e 72		 jle	 SHORT $LN601@Attack

; 740  : 				{
; 741  : 					gObjWeaponDurDown(lpObj, lpTargetObj, 1);

  00e7c	6a 01		 push	 1

; 742  : 				}
; 743  : 			}

  00e7e	eb 64		 jmp	 SHORT $LN1179@Attack
$LN611@Attack:

; 744  : 			else if ( lpObj->Class == CLASS_SUMMONER && skill ) //Summoner

  00e80	83 f9 05	 cmp	 ecx, 5
  00e83	75 31		 jne	 SHORT $LN607@Attack
  00e85	85 c0		 test	 eax, eax
  00e87	74 2d		 je	 SHORT $LN607@Attack

; 745  : 			{
; 746  : 				AttackDamage = this->GetAttackDamageSummoner(lpObj, targetdefense, lpMagic, MsgDamage, bIsOnDuel);

  00e89	8b 95 d4 fe ff
	ff		 mov	 edx, DWORD PTR _bIsOnDuel$[ebp]
  00e8f	8b 8d bc fe ff
	ff		 mov	 ecx, DWORD PTR _lpMagic$GSCopy$[ebp]
  00e95	52		 push	 edx
  00e96	8d 85 e7 fe ff
	ff		 lea	 eax, DWORD PTR _MsgDamage$[ebp]
  00e9c	50		 push	 eax
  00e9d	51		 push	 ecx
  00e9e	8b 8d c0 fe ff
	ff		 mov	 ecx, DWORD PTR _this$GSCopy$[ebp]
  00ea4	53		 push	 ebx
  00ea5	56		 push	 esi
  00ea6	e8 00 00 00 00	 call	 ?GetAttackDamageSummoner@CObjAttack@@QAEHPAUOBJECTSTRUCT@@HPAVCMagicInf@@AAEH@Z ; CObjAttack::GetAttackDamageSummoner
  00eab	89 45 1c	 mov	 DWORD PTR _AttackDamage$[ebp], eax

; 747  : 
; 748  : 				if ( AttackDamage > 0 )

  00eae	85 c0		 test	 eax, eax
  00eb0	7e 3c		 jle	 SHORT $LN601@Attack

; 749  : 				{
; 750  : 					gObjWeaponDurDown(lpObj, lpTargetObj, 1);

  00eb2	6a 01		 push	 1

; 751  : 				}
; 752  : 			}

  00eb4	eb 2e		 jmp	 SHORT $LN1179@Attack
$LN607@Attack:

; 753  : #ifdef MONK
; 754  : 			else if( lpObj->Class == CLASS_MONK )
; 755  : 			{
; 756  : 				AttackDamage = GetAttackDamage(lpObj, targetdefense, MsgDamage, bIsOnDuel, lpMagic);

  00eb6	8b 95 bc fe ff
	ff		 mov	 edx, DWORD PTR _lpMagic$GSCopy$[ebp]
  00ebc	8b 85 d4 fe ff
	ff		 mov	 eax, DWORD PTR _bIsOnDuel$[ebp]
  00ec2	52		 push	 edx
  00ec3	50		 push	 eax
  00ec4	83 f9 06	 cmp	 ecx, 6
  00ec7	8d 8d e7 fe ff
	ff		 lea	 ecx, DWORD PTR _MsgDamage$[ebp]
  00ecd	51		 push	 ecx
  00ece	8b 8d c0 fe ff
	ff		 mov	 ecx, DWORD PTR _this$GSCopy$[ebp]
  00ed4	53		 push	 ebx
  00ed5	56		 push	 esi

; 757  : 	
; 758  : 				if ( AttackDamage > 0 )
; 759  : 				{
; 760  : 					gObjWeaponDurDown(lpObj, lpTargetObj, 0);
; 761  : 				}
; 762  : 			}
; 763  : #endif
; 764  : 			else
; 765  : 			{
; 766  : 				AttackDamage = this->GetAttackDamage(lpObj, targetdefense, MsgDamage, bIsOnDuel, lpMagic);

  00ed6	e8 00 00 00 00	 call	 ?GetAttackDamage@CObjAttack@@QAEHPAUOBJECTSTRUCT@@HAAEHPAVCMagicInf@@@Z ; CObjAttack::GetAttackDamage
  00edb	89 45 1c	 mov	 DWORD PTR _AttackDamage$[ebp], eax

; 767  : 
; 768  : 				if ( AttackDamage > 0 )

  00ede	85 c0		 test	 eax, eax
  00ee0	7e 0c		 jle	 SHORT $LN601@Attack

; 769  : 				{
; 770  : 					gObjWeaponDurDown(lpObj, lpTargetObj, 0);

  00ee2	6a 00		 push	 0
$LN1179@Attack:
  00ee4	57		 push	 edi
  00ee5	56		 push	 esi
  00ee6	e8 00 00 00 00	 call	 ?gObjWeaponDurDown@@YAXPAUOBJECTSTRUCT@@0H@Z ; gObjWeaponDurDown
  00eeb	83 c4 0c	 add	 esp, 12			; 0000000cH
$LN601@Attack:

; 771  : 				}
; 772  : 			}
; 773  : #if(CUSTOM_MONSTER_ZT==TRUE)
; 774  : 			g_MonsterZt.AttackMonster(lpTargetObj->m_Index, lpObj->m_Index, AttackDamage);

  00eee	8b 06		 mov	 eax, DWORD PTR [esi]
  00ef0	8b 0f		 mov	 ecx, DWORD PTR [edi]
  00ef2	8d 55 1c	 lea	 edx, DWORD PTR _AttackDamage$[ebp]
  00ef5	52		 push	 edx
  00ef6	50		 push	 eax
  00ef7	51		 push	 ecx
