; Listing generated by Microsoft (R) Optimizing Compiler Version 16.00.30319.01 

	TITLE	E:\work\tranet_version\GS\GameServer\ObjCalCharacter.cpp
	.686P
	.XMM
	include listing.inc
	.model	flat

INCLUDELIB LIBCMT
INCLUDELIB OLDNAMES

_DATA	SEGMENT
_g_iNpcUpDfLevel_CGATE DD 01H
	DD	02H
	DD	02dc6c0H
	DD	02H
	DD	03H
	DD	02dc6c0H
	DD	03H
	DD	04H
	DD	02dc6c0H
_g_iNpcUpDfLevel_CSTATUE DD 01H
	DD	03H
	DD	02dc6c0H
	DD	02H
	DD	05H
	DD	02dc6c0H
	DD	03H
	DD	07H
	DD	02dc6c0H
_g_iNpcUpMaxHP_CGATE DD 02625a0H
	DD	02H
	DD	0f4240H
	DD	03567e0H
	DD	03H
	DD	0f4240H
	DD	04f5880H
	DD	04H
	DD	0f4240H
_g_iNpcUpMaxHP_CSTATUE DD 02191c0H
	DD	03H
	DD	0f4240H
	DD	033e140H
	DD	05H
	DD	0f4240H
	DD	04c4b40H
	DD	07H
	DD	0f4240H
_g_iNpcUpRgLevel_CSTATUE DD 01H
	DD	03H
	DD	04c4b40H
	DD	02H
	DD	05H
	DD	04c4b40H
	DD	03H
	DD	07H
	DD	04c4b40H
_g_iCsUserReSpawnArea DD 023H
	DD	011H
	DD	090H
	DD	030H
	DD	04aH
	DD	090H
	DD	073H
	DD	09aH
	DD	023H
	DD	011H
	DD	090H
	DD	030H
_g_iNpcDefense_CGATE DD 064H
	DD	0b4H
	DD	012cH
	DD	0208H
_g_iNpcDefense_CSTATUE DD 050H
	DD	0b4H
	DD	0154H
	DD	0226H
_g_iCastleWallStepAxisY DD 071H
	DD	0a0H
	DD	0cbH
_DATA	ENDS
PUBLIC	??_H@YGXPAXIHP6EPAX0@Z@Z			; `vector constructor iterator'
; Function compile flags: /Ogtp
;	COMDAT ??_H@YGXPAXIHP6EPAX0@Z@Z
_TEXT	SEGMENT
___t$ = 8						; size = 4
___s$ = 12						; size = 4
___n$ = 16						; size = 4
___f$ = 20						; size = 4
??_H@YGXPAXIHP6EPAX0@Z@Z PROC				; `vector constructor iterator', COMDAT
  00000	55		 push	 ebp
  00001	8b ec		 mov	 ebp, esp
  00003	57		 push	 edi
  00004	8b 7d 10	 mov	 edi, DWORD PTR ___n$[ebp]
  00007	4f		 dec	 edi
  00008	78 14		 js	 SHORT $LN1@vector
  0000a	53		 push	 ebx
  0000b	8b 5d 14	 mov	 ebx, DWORD PTR ___f$[ebp]
  0000e	56		 push	 esi
  0000f	8b 75 08	 mov	 esi, DWORD PTR ___t$[ebp]
$LL2@vector:
  00012	8b ce		 mov	 ecx, esi
  00014	ff d3		 call	 ebx
  00016	03 75 0c	 add	 esi, DWORD PTR ___s$[ebp]
  00019	4f		 dec	 edi
  0001a	79 f6		 jns	 SHORT $LL2@vector
  0001c	5e		 pop	 esi
  0001d	5b		 pop	 ebx
$LN1@vector:
  0001e	5f		 pop	 edi
  0001f	5d		 pop	 ebp
  00020	c2 10 00	 ret	 16			; 00000010H
??_H@YGXPAXIHP6EPAX0@Z@Z ENDP				; `vector constructor iterator'
_TEXT	ENDS
PUBLIC	__real@4059000000000000
PUBLIC	__real@00000000
PUBLIC	__$ArrayPad$
PUBLIC	?GObjExtItemApply@@YAXPAUOBJECTSTRUCT@@@Z	; GObjExtItemApply
EXTRN	?IsExtDamageReflect@CItem@@QAEHXZ:PROC		; CItem::IsExtDamageReflect
EXTRN	?IsExtDamageMinus@CItem@@QAEHXZ:PROC		; CItem::IsExtDamageMinus
EXTRN	?IsExtMonsterMoney@CItem@@QAEHXZ:PROC		; CItem::IsExtMonsterMoney
EXTRN	?IsExtDefenseSuccessfull@CItem@@QAEHXZ:PROC	; CItem::IsExtDefenseSuccessfull
EXTRN	?IsExtManaAdd@CItem@@QAEHXZ:PROC		; CItem::IsExtManaAdd
EXTRN	?IsExtLifeAdd@CItem@@QAEHXZ:PROC		; CItem::IsExtLifeAdd
EXTRN	?IsExtItem@CItem@@QAEHXZ:PROC			; CItem::IsExtItem
EXTRN	?IsExtMonsterDieMana@CItem@@QAEHXZ:PROC		; CItem::IsExtMonsterDieMana
EXTRN	?IsExtMonsterDieLife@CItem@@QAEHXZ:PROC		; CItem::IsExtMonsterDieLife
EXTRN	?IsExtAttackSpeed@CItem@@QAEHXZ:PROC		; CItem::IsExtAttackSpeed
EXTRN	?IsExtExcellentDamage@CItem@@QAEHXZ:PROC	; CItem::IsExtExcellentDamage
EXTRN	?IsExtAttackRate2@CItem@@QAEHXZ:PROC		; CItem::IsExtAttackRate2
EXTRN	?IsExtAttackRate@CItem@@QAEHXZ:PROC		; CItem::IsExtAttackRate
EXTRN	?IsItem@CItem@@QAEHXZ:PROC			; CItem::IsItem
EXTRN	___security_cookie:DWORD
EXTRN	__fltused:DWORD
EXTRN	@__security_check_cookie@4:PROC
EXTRN	__ftol2_sse:PROC
;	COMDAT __real@4059000000000000
; File e:\work\tranet_version\gs\gameserver\objcalcharacter.cpp
CONST	SEGMENT
__real@4059000000000000 DQ 04059000000000000r	; 100
CONST	ENDS
;	COMDAT __real@00000000
CONST	SEGMENT
__real@00000000 DD 000000000r			; 0
; Function compile flags: /Ogtp
CONST	ENDS
;	COMDAT ?GObjExtItemApply@@YAXPAUOBJECTSTRUCT@@@Z
_TEXT	SEGMENT
tv679 = -72						; size = 4
tv655 = -72						; size = 4
_max_count$ = -68					; size = 4
_maxn2_loop$ = -64					; size = 4
_i$ = -60						; size = 4
_temp_n2$ = -56						; size = 40
_temp_n$ = -16						; size = 12
__$ArrayPad$ = -4					; size = 4
_lpObj$ = 8						; size = 4
?GObjExtItemApply@@YAXPAUOBJECTSTRUCT@@@Z PROC		; GObjExtItemApply, COMDAT

; 1635 : {

  00000	55		 push	 ebp
  00001	8b ec		 mov	 ebp, esp
  00003	83 ec 48	 sub	 esp, 72			; 00000048H
  00006	a1 00 00 00 00	 mov	 eax, DWORD PTR ___security_cookie
  0000b	33 c5		 xor	 eax, ebp
  0000d	89 45 fc	 mov	 DWORD PTR __$ArrayPad$[ebp], eax
  00010	53		 push	 ebx

; 1636 : 
; 1637 : 	int n;
; 1638 : 	int i;
; 1639 : 	int max_count = 0;

  00011	33 c0		 xor	 eax, eax
  00013	56		 push	 esi
  00014	8b 75 08	 mov	 esi, DWORD PTR _lpObj$[ebp]

; 1640 : 	int temp_n[3] = {0, 1, 9};

  00017	b9 01 00 00 00	 mov	 ecx, 1
  0001c	ba 09 00 00 00	 mov	 edx, 9
  00021	57		 push	 edi
  00022	89 45 bc	 mov	 DWORD PTR _max_count$[ebp], eax
  00025	89 45 f0	 mov	 DWORD PTR _temp_n$[ebp], eax
  00028	89 4d f4	 mov	 DWORD PTR _temp_n$[ebp+4], ecx
  0002b	89 55 f8	 mov	 DWORD PTR _temp_n$[ebp+8], edx

; 1641 : 	int temp_n2[10] = {2, 3, 4, 5, 6, 7, 8, 10, 11, 1};

  0002e	c7 45 c8 02 00
	00 00		 mov	 DWORD PTR _temp_n2$[ebp], 2
  00035	c7 45 cc 03 00
	00 00		 mov	 DWORD PTR _temp_n2$[ebp+4], 3
  0003c	c7 45 d0 04 00
	00 00		 mov	 DWORD PTR _temp_n2$[ebp+8], 4
  00043	c7 45 d4 05 00
	00 00		 mov	 DWORD PTR _temp_n2$[ebp+12], 5
  0004a	c7 45 d8 06 00
	00 00		 mov	 DWORD PTR _temp_n2$[ebp+16], 6
  00051	c7 45 dc 07 00
	00 00		 mov	 DWORD PTR _temp_n2$[ebp+20], 7
  00058	c7 45 e0 08 00
	00 00		 mov	 DWORD PTR _temp_n2$[ebp+24], 8
  0005f	c7 45 e4 0a 00
	00 00		 mov	 DWORD PTR _temp_n2$[ebp+28], 10 ; 0000000aH
  00066	c7 45 e8 0b 00
	00 00		 mov	 DWORD PTR _temp_n2$[ebp+32], 11 ; 0000000bH
  0006d	89 4d ec	 mov	 DWORD PTR _temp_n2$[ebp+36], ecx

; 1642 : 	int maxn2_loop = 9;

  00070	89 55 c0	 mov	 DWORD PTR _maxn2_loop$[ebp], edx

; 1643 : 
; 1644 : 	for ( i=0;i<3;i++ )

  00073	89 45 c4	 mov	 DWORD PTR _i$[ebp], eax
  00076	eb 08 8d a4 24
	00 00 00 00 90	 npad	 10
$LL49@GObjExtIte:

; 1645 : 	{
; 1646 : 		n = temp_n[i];

  00080	8b 45 c4	 mov	 eax, DWORD PTR _i$[ebp]
  00083	8b 5c 85 f0	 mov	 ebx, DWORD PTR _temp_n$[ebp+eax*4]

; 1647 : 
; 1648 : 		if ( lpObj->pInventory[n].m_Type >= ITEMGET(6, 0) && lpObj->pInventory[n].m_Type < ITEMGET(7, 0) )

  00087	8b 8e 24 0e 00
	00		 mov	 ecx, DWORD PTR [esi+3620]
  0008d	8b fb		 mov	 edi, ebx
  0008f	69 ff d4 00 00
	00		 imul	 edi, 212		; 000000d4H
  00095	0f b7 44 39 06	 movzx	 eax, WORD PTR [ecx+edi+6]
  0009a	03 cf		 add	 ecx, edi
  0009c	ba 00 0c 00 00	 mov	 edx, 3072		; 00000c00H
  000a1	66 3b c2	 cmp	 ax, dx
  000a4	7c 0e		 jl	 SHORT $LN30@GObjExtIte
  000a6	ba 00 0e 00 00	 mov	 edx, 3584		; 00000e00H
  000ab	66 3b c2	 cmp	 ax, dx
  000ae	0f 8c 85 03 00
	00		 jl	 $LN32@GObjExtIte
$LN30@GObjExtIte:

; 1649 : 		{
; 1650 : 			continue;
; 1651 : 		}
; 1652 : 
; 1653 : 		if ( lpObj->pInventory[n].IsItem() == TRUE )

  000b4	e8 00 00 00 00	 call	 ?IsItem@CItem@@QAEHXZ	; CItem::IsItem
  000b9	83 f8 01	 cmp	 eax, 1
  000bc	0f 85 77 03 00
	00		 jne	 $LN32@GObjExtIte

; 1654 : 		{
; 1655 : 			if ( lpObj->pInventory[n].m_Durability != 0.0f )

  000c2	8b 86 24 0e 00
	00		 mov	 eax, DWORD PTR [esi+3620]
  000c8	d9 44 07 24	 fld	 DWORD PTR [edi+eax+36]
  000cc	8d 0c 07	 lea	 ecx, DWORD PTR [edi+eax]
  000cf	d9 ee		 fldz
  000d1	da e9		 fucompp
  000d3	df e0		 fnstsw	 ax
  000d5	f6 c4 44	 test	 ah, 68			; 00000044H
  000d8	0f 8b 5b 03 00
	00		 jnp	 $LN32@GObjExtIte

; 1656 : 			{
; 1657 : 				if ( lpObj->pInventory[n].m_IsValidItem == true )

  000de	80 b9 b0 00 00
	00 01		 cmp	 BYTE PTR [ecx+176], 1
  000e5	0f 85 4e 03 00
	00		 jne	 $LN32@GObjExtIte

; 1658 : 				{
; 1659 : 					if ( lpObj->pInventory[n].IsExtAttackRate() )

  000eb	e8 00 00 00 00	 call	 ?IsExtAttackRate@CItem@@QAEHXZ ; CItem::IsExtAttackRate
  000f0	85 c0		 test	 eax, eax
  000f2	0f 84 48 01 00
	00		 je	 $LN43@GObjExtIte

; 1660 : 					{
; 1661 : 						if ( ( lpObj->pInventory[n].m_Type >= ITEMGET(5, 0) && lpObj->pInventory[n].m_Type < ITEMGET(6, 0) ) ||
; 1662 : 							lpObj->pInventory[n].m_Type == ITEMGET(13,12) ||
; 1663 : 							lpObj->pInventory[n].m_Type == ITEMGET(13,25) ||
; 1664 : 							lpObj->pInventory[n].m_Type == ITEMGET(13,27) )

  000f8	8b 8e 24 0e 00
	00		 mov	 ecx, DWORD PTR [esi+3620]
  000fe	0f b7 44 39 06	 movzx	 eax, WORD PTR [ecx+edi+6]
  00103	03 cf		 add	 ecx, edi
  00105	ba 00 0a 00 00	 mov	 edx, 2560		; 00000a00H
  0010a	66 3b c2	 cmp	 ax, dx
  0010d	7c 0e		 jl	 SHORT $LN23@GObjExtIte
  0010f	ba 00 0c 00 00	 mov	 edx, 3072		; 00000c00H
  00114	66 3b c2	 cmp	 ax, dx
  00117	0f 8c db 00 00
	00		 jl	 $LN40@GObjExtIte
$LN23@GObjExtIte:
  0011d	ba 0c 1a 00 00	 mov	 edx, 6668		; 00001a0cH
  00122	66 3b c2	 cmp	 ax, dx
  00125	0f 84 cd 00 00
	00		 je	 $LN40@GObjExtIte
  0012b	ba 19 1a 00 00	 mov	 edx, 6681		; 00001a19H
  00130	66 3b c2	 cmp	 ax, dx
  00133	0f 84 bf 00 00
	00		 je	 $LN40@GObjExtIte
  00139	ba 1b 1a 00 00	 mov	 edx, 6683		; 00001a1bH
  0013e	66 3b c2	 cmp	 ax, dx
  00141	0f 84 b1 00 00
	00		 je	 $LN40@GObjExtIte

; 1670 : 						}
; 1671 : 						else 
; 1672 : 						{
; 1673 : 							if ( n == 0 || n == 9 )

  00147	85 db		 test	 ebx, ebx
  00149	74 05		 je	 SHORT $LN20@GObjExtIte
  0014b	83 fb 09	 cmp	 ebx, 9
  0014e	75 48		 jne	 SHORT $LN21@GObjExtIte
$LN20@GObjExtIte:

; 1674 : 							{
; 1675 : 								//lpObj->m_AttackDamageMinRight += (lpObj->Level + lpObj->MLevel) / 20;
; 1676 : 								//lpObj->m_AttackDamageMaxRight += (lpObj->Level + lpObj->MLevel) / 20;
; 1677 : 								lpObj->m_AttackDamageMinRight += (lpObj->Level + lpObj->MLevel) / lpObj->pInventory[n].IsExtAttackRate();

  00150	e8 00 00 00 00	 call	 ?IsExtAttackRate@CItem@@QAEHXZ ; CItem::IsExtAttackRate
  00155	0f bf 96 be 00
	00 00		 movsx	 edx, WORD PTR [esi+190]
  0015c	8b c8		 mov	 ecx, eax
  0015e	0f bf 86 d0 00
	00 00		 movsx	 eax, WORD PTR [esi+208]
  00165	03 c2		 add	 eax, edx
  00167	99		 cdq
  00168	f7 f9		 idiv	 ecx

; 1678 : 								lpObj->m_AttackDamageMaxRight += (lpObj->Level + lpObj->MLevel) / lpObj->pInventory[n].IsExtAttackRate();

  0016a	8b 8e 24 0e 00
	00		 mov	 ecx, DWORD PTR [esi+3620]
  00170	03 cf		 add	 ecx, edi
  00172	01 86 84 04 00
	00		 add	 DWORD PTR [esi+1156], eax
  00178	e8 00 00 00 00	 call	 ?IsExtAttackRate@CItem@@QAEHXZ ; CItem::IsExtAttackRate
  0017d	0f bf 96 be 00
	00 00		 movsx	 edx, WORD PTR [esi+190]
  00184	8b c8		 mov	 ecx, eax
  00186	0f bf 86 d0 00
	00 00		 movsx	 eax, WORD PTR [esi+208]
  0018d	03 c2		 add	 eax, edx
  0018f	99		 cdq
  00190	f7 f9		 idiv	 ecx
  00192	01 86 80 04 00
	00		 add	 DWORD PTR [esi+1152], eax
$LN21@GObjExtIte:

; 1679 : 							}
; 1680 : 							
; 1681 : 							if ( n == 1 || n == 9 )

  00198	83 fb 01	 cmp	 ebx, 1
  0019b	74 09		 je	 SHORT $LN18@GObjExtIte
  0019d	83 fb 09	 cmp	 ebx, 9
  001a0	0f 85 9a 00 00
	00		 jne	 $LN43@GObjExtIte
$LN18@GObjExtIte:

; 1682 : 							{
; 1683 : 								//lpObj->m_AttackDamageMinLeft += (lpObj->Level + lpObj->MLevel) / 20;
; 1684 : 								//lpObj->m_AttackDamageMaxLeft += (lpObj->Level) / 20;
; 1685 : 								lpObj->m_AttackDamageMinLeft += (lpObj->Level + lpObj->MLevel) / lpObj->pInventory[n].IsExtAttackRate();

  001a6	8b 8e 24 0e 00
	00		 mov	 ecx, DWORD PTR [esi+3620]
  001ac	03 cf		 add	 ecx, edi
  001ae	e8 00 00 00 00	 call	 ?IsExtAttackRate@CItem@@QAEHXZ ; CItem::IsExtAttackRate
  001b3	0f bf 96 be 00
	00 00		 movsx	 edx, WORD PTR [esi+190]
  001ba	8b c8		 mov	 ecx, eax
  001bc	0f bf 86 d0 00
	00 00		 movsx	 eax, WORD PTR [esi+208]
  001c3	03 c2		 add	 eax, edx
  001c5	99		 cdq
  001c6	f7 f9		 idiv	 ecx

; 1686 : 								lpObj->m_AttackDamageMaxLeft += (lpObj->Level + lpObj->MLevel) / lpObj->pInventory[n].IsExtAttackRate();

  001c8	8b 8e 24 0e 00
	00		 mov	 ecx, DWORD PTR [esi+3620]
  001ce	03 cf		 add	 ecx, edi
  001d0	01 86 7c 04 00
	00		 add	 DWORD PTR [esi+1148], eax
  001d6	e8 00 00 00 00	 call	 ?IsExtAttackRate@CItem@@QAEHXZ ; CItem::IsExtAttackRate
  001db	0f bf 96 be 00
	00 00		 movsx	 edx, WORD PTR [esi+190]
  001e2	8b c8		 mov	 ecx, eax
  001e4	0f bf 86 d0 00
	00 00		 movsx	 eax, WORD PTR [esi+208]
  001eb	03 c2		 add	 eax, edx
  001ed	99		 cdq
  001ee	f7 f9		 idiv	 ecx
  001f0	01 86 78 04 00
	00		 add	 DWORD PTR [esi+1144], eax
  001f6	eb 48		 jmp	 SHORT $LN43@GObjExtIte
$LN40@GObjExtIte:

; 1665 : 						{
; 1666 : 							//lpObj->m_MagicDamageMax += (lpObj->Level + lpObj->MLevel) / 20;
; 1667 : 							//lpObj->m_MagicDamageMin += (lpObj->Level + lpObj->MLevel) / 20;
; 1668 : 							lpObj->m_MagicDamageMax += (lpObj->Level + lpObj->MLevel) / lpObj->pInventory[n].IsExtAttackRate();

  001f8	e8 00 00 00 00	 call	 ?IsExtAttackRate@CItem@@QAEHXZ ; CItem::IsExtAttackRate
  001fd	0f bf 96 be 00
	00 00		 movsx	 edx, WORD PTR [esi+190]
  00204	8b c8		 mov	 ecx, eax
  00206	0f bf 86 d0 00
	00 00		 movsx	 eax, WORD PTR [esi+208]
  0020d	03 c2		 add	 eax, edx
  0020f	99		 cdq
  00210	f7 f9		 idiv	 ecx

; 1669 : 							lpObj->m_MagicDamageMin += (lpObj->Level + lpObj->MLevel) / lpObj->pInventory[n].IsExtAttackRate();

  00212	8b 8e 24 0e 00
	00		 mov	 ecx, DWORD PTR [esi+3620]
  00218	03 cf		 add	 ecx, edi
  0021a	01 86 6c 04 00
	00		 add	 DWORD PTR [esi+1132], eax
  00220	e8 00 00 00 00	 call	 ?IsExtAttackRate@CItem@@QAEHXZ ; CItem::IsExtAttackRate
  00225	0f bf 96 be 00
	00 00		 movsx	 edx, WORD PTR [esi+190]
  0022c	8b c8		 mov	 ecx, eax
  0022e	0f bf 86 d0 00
	00 00		 movsx	 eax, WORD PTR [esi+208]
  00235	03 c2		 add	 eax, edx
  00237	99		 cdq
  00238	f7 f9		 idiv	 ecx
  0023a	01 86 68 04 00
	00		 add	 DWORD PTR [esi+1128], eax
$LN43@GObjExtIte:

; 1687 : 							}
; 1688 : 						}
; 1689 : 					}
; 1690 : 
; 1691 : 					if ( lpObj->pInventory[n].IsExtAttackRate2() )

  00240	8b 8e 24 0e 00
	00		 mov	 ecx, DWORD PTR [esi+3620]
  00246	03 cf		 add	 ecx, edi
  00248	e8 00 00 00 00	 call	 ?IsExtAttackRate2@CItem@@QAEHXZ ; CItem::IsExtAttackRate2
  0024d	85 c0		 test	 eax, eax
  0024f	0f 84 85 01 00
	00		 je	 $LN50@GObjExtIte

; 1692 : 					{
; 1693 : 						if ( ( lpObj->pInventory[n].m_Type >= ITEMGET(5, 0) && lpObj->pInventory[n].m_Type < ITEMGET(6, 0) ) ||
; 1694 : 							lpObj->pInventory[n].m_Type == ITEMGET(13,12) ||
; 1695 : 							lpObj->pInventory[n].m_Type == ITEMGET(13,25) ||
; 1696 : 							lpObj->pInventory[n].m_Type == ITEMGET(13,27) )

  00255	8b 86 24 0e 00
	00		 mov	 eax, DWORD PTR [esi+3620]
  0025b	8d 0c 07	 lea	 ecx, DWORD PTR [edi+eax]
  0025e	0f b7 41 06	 movzx	 eax, WORD PTR [ecx+6]
  00262	ba 00 0a 00 00	 mov	 edx, 2560		; 00000a00H
  00267	66 3b c2	 cmp	 ax, dx
  0026a	7c 0e		 jl	 SHORT $LN14@GObjExtIte
  0026c	ba 00 0c 00 00	 mov	 edx, 3072		; 00000c00H
  00271	66 3b c2	 cmp	 ax, dx
  00274	0f 8c 06 01 00
	00		 jl	 $LN15@GObjExtIte
$LN14@GObjExtIte:
  0027a	ba 0c 1a 00 00	 mov	 edx, 6668		; 00001a0cH
  0027f	66 3b c2	 cmp	 ax, dx
  00282	0f 84 f8 00 00
	00		 je	 $LN15@GObjExtIte
  00288	ba 19 1a 00 00	 mov	 edx, 6681		; 00001a19H
  0028d	66 3b c2	 cmp	 ax, dx
  00290	0f 84 ea 00 00
	00		 je	 $LN15@GObjExtIte
  00296	ba 1b 1a 00 00	 mov	 edx, 6683		; 00001a1bH
  0029b	66 3b c2	 cmp	 ax, dx
  0029e	0f 84 dc 00 00
	00		 je	 $LN15@GObjExtIte

; 1700 : 						}
; 1701 : 						else 
; 1702 : 						{
; 1703 : 							if ( n == 0 || n == 9 )

  002a4	85 db		 test	 ebx, ebx
  002a6	74 05		 je	 SHORT $LN11@GObjExtIte
  002a8	83 fb 09	 cmp	 ebx, 9
  002ab	75 5a		 jne	 SHORT $LN44@GObjExtIte
$LN11@GObjExtIte:

; 1704 : 							{
; 1705 : 								lpObj->m_AttackDamageMinRight += lpObj->m_AttackDamageMinRight * lpObj->pInventory[n].IsExtAttackRate2() / 100;

  002ad	8b 9e 84 04 00
	00		 mov	 ebx, DWORD PTR [esi+1156]
  002b3	e8 00 00 00 00	 call	 ?IsExtAttackRate2@CItem@@QAEHXZ ; CItem::IsExtAttackRate2
  002b8	8b c8		 mov	 ecx, eax
  002ba	0f af cb	 imul	 ecx, ebx
  002bd	b8 1f 85 eb 51	 mov	 eax, 1374389535		; 51eb851fH
  002c2	f7 e9		 imul	 ecx

; 1706 : 								lpObj->m_AttackDamageMaxRight += lpObj->m_AttackDamageMaxRight * lpObj->pInventory[n].IsExtAttackRate2() / 100;

  002c4	8b 8e 24 0e 00
	00		 mov	 ecx, DWORD PTR [esi+3620]
  002ca	c1 fa 05	 sar	 edx, 5
  002cd	8b c2		 mov	 eax, edx
  002cf	c1 e8 1f	 shr	 eax, 31			; 0000001fH
  002d2	03 c2		 add	 eax, edx
  002d4	03 c3		 add	 eax, ebx
  002d6	8b 9e 80 04 00
	00		 mov	 ebx, DWORD PTR [esi+1152]
  002dc	03 cf		 add	 ecx, edi
  002de	89 86 84 04 00
	00		 mov	 DWORD PTR [esi+1156], eax
  002e4	e8 00 00 00 00	 call	 ?IsExtAttackRate2@CItem@@QAEHXZ ; CItem::IsExtAttackRate2
  002e9	8b c8		 mov	 ecx, eax
  002eb	0f af cb	 imul	 ecx, ebx
  002ee	b8 1f 85 eb 51	 mov	 eax, 1374389535		; 51eb851fH
  002f3	f7 e9		 imul	 ecx
  002f5	c1 fa 05	 sar	 edx, 5
  002f8	8b ca		 mov	 ecx, edx
  002fa	c1 e9 1f	 shr	 ecx, 31			; 0000001fH
  002fd	03 ca		 add	 ecx, edx
  002ff	03 cb		 add	 ecx, ebx
  00301	89 8e 80 04 00
	00		 mov	 DWORD PTR [esi+1152], ecx
$LN44@GObjExtIte:

; 1707 : 							}
; 1708 : 							
; 1709 : 							if ( n == 1 || n == 9 )

  00307	8b 55 c4	 mov	 edx, DWORD PTR _i$[ebp]
  0030a	8b 44 95 f0	 mov	 eax, DWORD PTR _temp_n$[ebp+edx*4]
  0030e	83 f8 01	 cmp	 eax, 1
  00311	74 09		 je	 SHORT $LN9@GObjExtIte
  00313	83 f8 09	 cmp	 eax, 9
  00316	0f 85 be 00 00
	00		 jne	 $LN50@GObjExtIte
$LN9@GObjExtIte:

; 1710 : 							{
; 1711 : 								lpObj->m_AttackDamageMinLeft += lpObj->m_AttackDamageMinLeft * lpObj->pInventory[n].IsExtAttackRate2() / 100;

  0031c	8b 8e 24 0e 00
	00		 mov	 ecx, DWORD PTR [esi+3620]
  00322	8b 9e 7c 04 00
	00		 mov	 ebx, DWORD PTR [esi+1148]
  00328	03 cf		 add	 ecx, edi
  0032a	e8 00 00 00 00	 call	 ?IsExtAttackRate2@CItem@@QAEHXZ ; CItem::IsExtAttackRate2
  0032f	8b c8		 mov	 ecx, eax
  00331	0f af cb	 imul	 ecx, ebx
  00334	b8 1f 85 eb 51	 mov	 eax, 1374389535		; 51eb851fH
  00339	f7 e9		 imul	 ecx

; 1712 : 								lpObj->m_AttackDamageMaxLeft += lpObj->m_AttackDamageMaxLeft * lpObj->pInventory[n].IsExtAttackRate2() / 100;

  0033b	8b 8e 24 0e 00
	00		 mov	 ecx, DWORD PTR [esi+3620]
  00341	c1 fa 05	 sar	 edx, 5
  00344	8b c2		 mov	 eax, edx
  00346	c1 e8 1f	 shr	 eax, 31			; 0000001fH
  00349	03 c2		 add	 eax, edx
  0034b	03 c3		 add	 eax, ebx
  0034d	8b 9e 78 04 00
	00		 mov	 ebx, DWORD PTR [esi+1144]
  00353	03 cf		 add	 ecx, edi
  00355	89 86 7c 04 00
	00		 mov	 DWORD PTR [esi+1148], eax
  0035b	e8 00 00 00 00	 call	 ?IsExtAttackRate2@CItem@@QAEHXZ ; CItem::IsExtAttackRate2
  00360	8b c8		 mov	 ecx, eax
  00362	0f af cb	 imul	 ecx, ebx
  00365	b8 1f 85 eb 51	 mov	 eax, 1374389535		; 51eb851fH
  0036a	f7 e9		 imul	 ecx
  0036c	c1 fa 05	 sar	 edx, 5
  0036f	8b ca		 mov	 ecx, edx
  00371	c1 e9 1f	 shr	 ecx, 31			; 0000001fH
  00374	03 ca		 add	 ecx, edx
  00376	03 cb		 add	 ecx, ebx
  00378	89 8e 78 04 00
	00		 mov	 DWORD PTR [esi+1144], ecx
  0037e	eb 5a		 jmp	 SHORT $LN50@GObjExtIte
$LN15@GObjExtIte:

; 1697 : 						{
; 1698 : 							lpObj->m_MagicDamageMax += lpObj->m_MagicDamageMax * lpObj->pInventory[n].IsExtAttackRate2() / 100;

  00380	8b 9e 6c 04 00
	00		 mov	 ebx, DWORD PTR [esi+1132]
  00386	e8 00 00 00 00	 call	 ?IsExtAttackRate2@CItem@@QAEHXZ ; CItem::IsExtAttackRate2
  0038b	8b c8		 mov	 ecx, eax
  0038d	0f af cb	 imul	 ecx, ebx
  00390	b8 1f 85 eb 51	 mov	 eax, 1374389535		; 51eb851fH
  00395	f7 e9		 imul	 ecx

; 1699 : 							lpObj->m_MagicDamageMin += lpObj->m_MagicDamageMin * lpObj->pInventory[n].IsExtAttackRate2() / 100;

  00397	8b 8e 24 0e 00
	00		 mov	 ecx, DWORD PTR [esi+3620]
  0039d	c1 fa 05	 sar	 edx, 5
  003a0	8b c2		 mov	 eax, edx
  003a2	c1 e8 1f	 shr	 eax, 31			; 0000001fH
  003a5	03 c2		 add	 eax, edx
  003a7	03 c3		 add	 eax, ebx
  003a9	8b 9e 68 04 00
	00		 mov	 ebx, DWORD PTR [esi+1128]
  003af	03 cf		 add	 ecx, edi
  003b1	89 86 6c 04 00
	00		 mov	 DWORD PTR [esi+1132], eax
  003b7	e8 00 00 00 00	 call	 ?IsExtAttackRate2@CItem@@QAEHXZ ; CItem::IsExtAttackRate2
  003bc	8b c8		 mov	 ecx, eax
  003be	0f af cb	 imul	 ecx, ebx
  003c1	b8 1f 85 eb 51	 mov	 eax, 1374389535		; 51eb851fH
  003c6	f7 e9		 imul	 ecx
  003c8	c1 fa 05	 sar	 edx, 5
  003cb	8b ca		 mov	 ecx, edx
  003cd	c1 e9 1f	 shr	 ecx, 31			; 0000001fH
  003d0	03 ca		 add	 ecx, edx
  003d2	03 cb		 add	 ecx, ebx
  003d4	89 8e 68 04 00
	00		 mov	 DWORD PTR [esi+1128], ecx
$LN50@GObjExtIte:

; 1713 : 							}
; 1714 : 						}
; 1715 : 					}
; 1716 : 
; 1717 : 					lpObj->m_ExcelentDamage += lpObj->pInventory[n].IsExtExcellentDamage();

  003da	8b 8e 24 0e 00
	00		 mov	 ecx, DWORD PTR [esi+3620]
  003e0	03 cf		 add	 ecx, edi
  003e2	e8 00 00 00 00	 call	 ?IsExtExcellentDamage@CItem@@QAEHXZ ; CItem::IsExtExcellentDamage

; 1718 : 					lpObj->m_AttackSpeed += lpObj->pInventory[n].IsExtAttackSpeed();

  003e7	8b 8e 24 0e 00
	00		 mov	 ecx, DWORD PTR [esi+3620]
  003ed	01 86 c0 04 00
	00		 add	 DWORD PTR [esi+1216], eax
  003f3	03 cf		 add	 ecx, edi
  003f5	e8 00 00 00 00	 call	 ?IsExtAttackSpeed@CItem@@QAEHXZ ; CItem::IsExtAttackSpeed

; 1719 : 					lpObj->m_MagicSpeed += lpObj->pInventory[n].IsExtAttackSpeed();

  003fa	8b 8e 24 0e 00
	00		 mov	 ecx, DWORD PTR [esi+3620]
  00400	01 86 8c 04 00
	00		 add	 DWORD PTR [esi+1164], eax
  00406	03 cf		 add	 ecx, edi
  00408	e8 00 00 00 00	 call	 ?IsExtAttackSpeed@CItem@@QAEHXZ ; CItem::IsExtAttackSpeed

; 1720 : 					lpObj->MonsterDieGetLife += lpObj->pInventory[n].IsExtMonsterDieLife();

  0040d	8b 8e 24 0e 00
	00		 mov	 ecx, DWORD PTR [esi+3620]
  00413	01 86 90 04 00
	00		 add	 DWORD PTR [esi+1168], eax
  00419	03 cf		 add	 ecx, edi
  0041b	e8 00 00 00 00	 call	 ?IsExtMonsterDieLife@CItem@@QAEHXZ ; CItem::IsExtMonsterDieLife

; 1721 : 					lpObj->MonsterDieGetMana += lpObj->pInventory[n].IsExtMonsterDieMana();

  00420	8b 8e 24 0e 00
	00		 mov	 ecx, DWORD PTR [esi+3620]
  00426	00 86 74 01 00
	00		 add	 BYTE PTR [esi+372], al
  0042c	03 cf		 add	 ecx, edi
  0042e	e8 00 00 00 00	 call	 ?IsExtMonsterDieMana@CItem@@QAEHXZ ; CItem::IsExtMonsterDieMana
  00433	00 86 75 01 00
	00		 add	 BYTE PTR [esi+373], al
$LN32@GObjExtIte:

; 1643 : 
; 1644 : 	for ( i=0;i<3;i++ )

  00439	8b 45 c4	 mov	 eax, DWORD PTR _i$[ebp]
  0043c	40		 inc	 eax
  0043d	89 45 c4	 mov	 DWORD PTR _i$[ebp], eax
  00440	83 f8 03	 cmp	 eax, 3
  00443	0f 8c 37 fc ff
	ff		 jl	 $LL49@GObjExtIte

; 1722 : 				}
; 1723 : 			}
; 1724 : 		}
; 1725 : 	}
; 1726 : 		
; 1727 : 	if ( lpObj->pInventory[1].IsItem() == TRUE )

  00449	8b 8e 24 0e 00
	00		 mov	 ecx, DWORD PTR [esi+3620]
  0044f	81 c1 d4 00 00
	00		 add	 ecx, 212		; 000000d4H
  00455	e8 00 00 00 00	 call	 ?IsItem@CItem@@QAEHXZ	; CItem::IsItem
  0045a	83 f8 01	 cmp	 eax, 1
  0045d	75 28		 jne	 SHORT $LN7@GObjExtIte

; 1728 : 	{
; 1729 : #if(FIX_SHIELD)
; 1730 : 		if((lpObj->pInventory[1].m_Type >= ITEMGET(6, 0) && lpObj->pInventory[1].m_Type < ITEMGET(7, 0))) //season4 add-on

  0045f	8b 96 24 0e 00
	00		 mov	 edx, DWORD PTR [esi+3620]
  00465	0f b7 82 da 00
	00 00		 movzx	 eax, WORD PTR [edx+218]
  0046c	b9 00 0c 00 00	 mov	 ecx, 3072		; 00000c00H
  00471	66 3b c1	 cmp	 ax, cx
  00474	7c 11		 jl	 SHORT $LN7@GObjExtIte
  00476	ba 00 0e 00 00	 mov	 edx, 3584		; 00000e00H
  0047b	66 3b c2	 cmp	 ax, dx
  0047e	7d 07		 jge	 SHORT $LN7@GObjExtIte

; 1731 : 		{
; 1732 : 			maxn2_loop = 10;

  00480	c7 45 c0 0a 00
	00 00		 mov	 DWORD PTR _maxn2_loop$[ebp], 10 ; 0000000aH
$LN7@GObjExtIte:

; 1733 : 		}
; 1734 : #else
; 1735 : 		if ( (lpObj->pInventory[1].m_Type >= ITEMGET(6, 0) && lpObj->pInventory[1].m_Type <= ITEMGET(6, 16)) || 
; 1736 : 			lpObj->pInventory[1].m_Type == ITEMGET(6, 21)) //season4 add-on
; 1737 : 		{
; 1738 : 			maxn2_loop = 10;
; 1739 : 		}
; 1740 : #endif
; 1741 : 	}
; 1742 : 
; 1743 : 	for ( i=0;i<maxn2_loop;i++)

  00487	33 c0		 xor	 eax, eax
  00489	89 45 c4	 mov	 DWORD PTR _i$[ebp], eax
  0048c	39 45 c0	 cmp	 DWORD PTR _maxn2_loop$[ebp], eax
  0048f	0f 8e 4e 01 00
	00		 jle	 $LN4@GObjExtIte
  00495	eb 09 8d a4 24
	00 00 00 00 8b
	ff		 npad	 11
$LL6@GObjExtIte:

; 1744 : 	{
; 1745 : 		n = temp_n2[i];
; 1746 : 
; 1747 : 		if ( max_count < 8 )

  004a0	83 7d bc 08	 cmp	 DWORD PTR _max_count$[ebp], 8
  004a4	8b 5c 85 c8	 mov	 ebx, DWORD PTR _temp_n2$[ebp+eax*4]
  004a8	0f 8d 25 01 00
	00		 jge	 $LN5@GObjExtIte

; 1748 : 		{
; 1749 : 			if ( lpObj->pInventory[n].IsItem() == TRUE &&
; 1750 : 				 lpObj->pInventory[n].IsExtItem() &&
; 1751 : 				 lpObj->pInventory[n].m_Durability != 0.0f &&
; 1752 : 				 lpObj->pInventory[n].m_IsValidItem == true )

  004ae	8b 8e 24 0e 00
	00		 mov	 ecx, DWORD PTR [esi+3620]
  004b4	8b fb		 mov	 edi, ebx
  004b6	69 ff d4 00 00
	00		 imul	 edi, 212		; 000000d4H
  004bc	03 cf		 add	 ecx, edi
  004be	e8 00 00 00 00	 call	 ?IsItem@CItem@@QAEHXZ	; CItem::IsItem
  004c3	83 f8 01	 cmp	 eax, 1
  004c6	0f 85 07 01 00
	00		 jne	 $LN5@GObjExtIte
  004cc	8b 8e 24 0e 00
	00		 mov	 ecx, DWORD PTR [esi+3620]
  004d2	03 cf		 add	 ecx, edi
  004d4	e8 00 00 00 00	 call	 ?IsExtItem@CItem@@QAEHXZ ; CItem::IsExtItem
  004d9	85 c0		 test	 eax, eax
  004db	0f 84 f2 00 00
	00		 je	 $LN5@GObjExtIte
  004e1	8b 86 24 0e 00
	00		 mov	 eax, DWORD PTR [esi+3620]
  004e7	d9 44 07 24	 fld	 DWORD PTR [edi+eax+36]
  004eb	8d 0c 07	 lea	 ecx, DWORD PTR [edi+eax]
  004ee	d9 ee		 fldz
  004f0	da e9		 fucompp
  004f2	df e0		 fnstsw	 ax
  004f4	f6 c4 44	 test	 ah, 68			; 00000044H
  004f7	0f 8b d6 00 00
	00		 jnp	 $LN5@GObjExtIte
  004fd	80 b9 b0 00 00
	00 01		 cmp	 BYTE PTR [ecx+176], 1
  00504	0f 85 c9 00 00
	00		 jne	 $LN5@GObjExtIte

; 1753 : 			{
; 1754 : 				if ( n != 7 )

  0050a	83 fb 07	 cmp	 ebx, 7
  0050d	0f 84 c0 00 00
	00		 je	 $LN5@GObjExtIte

; 1755 : 				{
; 1756 : 					lpObj->AddLife += (short)(lpObj->MaxLife * lpObj->pInventory[n].IsExtLifeAdd()  / 100.0f);

  00513	e8 00 00 00 00	 call	 ?IsExtLifeAdd@CItem@@QAEHXZ ; CItem::IsExtLifeAdd
  00518	89 45 b8	 mov	 DWORD PTR tv679[ebp], eax
  0051b	db 45 b8	 fild	 DWORD PTR tv679[ebp]
  0051e	d8 8e 00 01 00
	00		 fmul	 DWORD PTR [esi+256]
  00524	dc 35 00 00 00
	00		 fdiv	 QWORD PTR __real@4059000000000000
  0052a	e8 00 00 00 00	 call	 __ftol2_sse
  0052f	0f bf c8	 movsx	 ecx, ax
  00532	01 8e 4c 01 00
	00		 add	 DWORD PTR [esi+332], ecx

; 1757 : 					lpObj->AddMana += (short)(lpObj->MaxMana * lpObj->pInventory[n].IsExtManaAdd() / 100.0f);

  00538	8b 8e 24 0e 00
	00		 mov	 ecx, DWORD PTR [esi+3620]
  0053e	03 cf		 add	 ecx, edi
  00540	e8 00 00 00 00	 call	 ?IsExtManaAdd@CItem@@QAEHXZ ; CItem::IsExtManaAdd
  00545	89 45 b8	 mov	 DWORD PTR tv655[ebp], eax
  00548	db 45 b8	 fild	 DWORD PTR tv655[ebp]
  0054b	d8 8e 14 01 00
	00		 fmul	 DWORD PTR [esi+276]
  00551	dc 35 00 00 00
	00		 fdiv	 QWORD PTR __real@4059000000000000
  00557	e8 00 00 00 00	 call	 __ftol2_sse

; 1758 : 					lpObj->m_SuccessfulBlocking += lpObj->m_SuccessfulBlocking * lpObj->pInventory[n].IsExtDefenseSuccessfull() / 100;

  0055c	8b 8e 24 0e 00
	00		 mov	 ecx, DWORD PTR [esi+3620]
  00562	8b 9e 9c 04 00
	00		 mov	 ebx, DWORD PTR [esi+1180]
  00568	0f bf d0	 movsx	 edx, ax
  0056b	01 96 50 01 00
	00		 add	 DWORD PTR [esi+336], edx
  00571	03 cf		 add	 ecx, edi
  00573	e8 00 00 00 00	 call	 ?IsExtDefenseSuccessfull@CItem@@QAEHXZ ; CItem::IsExtDefenseSuccessfull
  00578	8b c8		 mov	 ecx, eax
  0057a	0f af cb	 imul	 ecx, ebx
  0057d	b8 1f 85 eb 51	 mov	 eax, 1374389535		; 51eb851fH
  00582	f7 e9		 imul	 ecx

; 1759 : 					lpObj->MonsterDieGetMoney += lpObj->pInventory[n].IsExtMonsterMoney();

  00584	8b 8e 24 0e 00
	00		 mov	 ecx, DWORD PTR [esi+3620]
  0058a	c1 fa 05	 sar	 edx, 5
  0058d	8b c2		 mov	 eax, edx
  0058f	c1 e8 1f	 shr	 eax, 31			; 0000001fH
  00592	03 c2		 add	 eax, edx
  00594	03 c3		 add	 eax, ebx
  00596	03 cf		 add	 ecx, edi
  00598	89 86 9c 04 00
	00		 mov	 DWORD PTR [esi+1180], eax
  0059e	e8 00 00 00 00	 call	 ?IsExtMonsterMoney@CItem@@QAEHXZ ; CItem::IsExtMonsterMoney

; 1760 : 					lpObj->DamageMinus += lpObj->pInventory[n].IsExtDamageMinus();

  005a3	8b 8e 24 0e 00
	00		 mov	 ecx, DWORD PTR [esi+3620]
  005a9	66 01 86 72 01
	00 00		 add	 WORD PTR [esi+370], ax
  005b0	03 cf		 add	 ecx, edi
  005b2	e8 00 00 00 00	 call	 ?IsExtDamageMinus@CItem@@QAEHXZ ; CItem::IsExtDamageMinus

; 1761 : 					lpObj->DamageReflect += lpObj->pInventory[n].IsExtDamageReflect();

  005b7	8b 8e 24 0e 00
	00		 mov	 ecx, DWORD PTR [esi+3620]
  005bd	00 86 70 01 00
	00		 add	 BYTE PTR [esi+368], al
  005c3	03 cf		 add	 ecx, edi
  005c5	e8 00 00 00 00	 call	 ?IsExtDamageReflect@CItem@@QAEHXZ ; CItem::IsExtDamageReflect
  005ca	00 86 71 01 00
	00		 add	 BYTE PTR [esi+369], al

; 1762 : 					max_count++;

  005d0	ff 45 bc	 inc	 DWORD PTR _max_count$[ebp]
$LN5@GObjExtIte:

; 1733 : 		}
; 1734 : #else
; 1735 : 		if ( (lpObj->pInventory[1].m_Type >= ITEMGET(6, 0) && lpObj->pInventory[1].m_Type <= ITEMGET(6, 16)) || 
; 1736 : 			lpObj->pInventory[1].m_Type == ITEMGET(6, 21)) //season4 add-on
; 1737 : 		{
; 1738 : 			maxn2_loop = 10;
; 1739 : 		}
; 1740 : #endif
; 1741 : 	}
; 1742 : 
; 1743 : 	for ( i=0;i<maxn2_loop;i++)

  005d3	8b 45 c4	 mov	 eax, DWORD PTR _i$[ebp]
  005d6	40		 inc	 eax
  005d7	89 45 c4	 mov	 DWORD PTR _i$[ebp], eax
  005da	3b 45 c0	 cmp	 eax, DWORD PTR _maxn2_loop$[ebp]
  005dd	0f 8c bd fe ff
	ff		 jl	 $LL6@GObjExtIte
$LN4@GObjExtIte:

; 1763 : 				}
; 1764 : 			}
; 1765 : 		}
; 1766 : 	}
; 1767 : }

  005e3	8b 4d fc	 mov	 ecx, DWORD PTR __$ArrayPad$[ebp]
  005e6	5f		 pop	 edi
  005e7	5e		 pop	 esi
  005e8	33 cd		 xor	 ecx, ebp
  005ea	5b		 pop	 ebx
  005eb	e8 00 00 00 00	 call	 @__security_check_cookie@4
  005f0	8b e5		 mov	 esp, ebp
  005f2	5d		 pop	 ebp
  005f3	c3		 ret	 0
?GObjExtItemApply@@YAXPAUOBJECTSTRUCT@@@Z ENDP		; GObjExtItemApply
_TEXT	ENDS
PUBLIC	?gObjCalcSetItemStat@@YAXPAUOBJECTSTRUCT@@@Z	; gObjCalcSetItemStat
EXTRN	?SetItemPlusSpecialStat@CItem@@QAEXPAFH@Z:PROC	; CItem::SetItemPlusSpecialStat
EXTRN	?GetAddStatType@CItem@@QAEHXZ:PROC		; CItem::GetAddStatType
EXTRN	?IsSetItem@CItem@@QAEHXZ:PROC			; CItem::IsSetItem
; Function compile flags: /Ogtp
;	COMDAT ?gObjCalcSetItemStat@@YAXPAUOBJECTSTRUCT@@@Z
_TEXT	SEGMENT
_lpObj$ = 8						; size = 4
?gObjCalcSetItemStat@@YAXPAUOBJECTSTRUCT@@@Z PROC	; gObjCalcSetItemStat, COMDAT

; 1770 : {

  00000	55		 push	 ebp
  00001	8b ec		 mov	 ebp, esp
  00003	56		 push	 esi

; 1771 : 	for ( int i=0;i<INVETORY_WEAR_SIZE;i++)

  00004	8b 75 08	 mov	 esi, DWORD PTR _lpObj$[ebp]
  00007	57		 push	 edi
  00008	33 ff		 xor	 edi, edi
  0000a	8d 9b 00 00 00
	00		 npad	 6
$LL10@gObjCalcSe:

; 1772 : 	{
; 1773 : 		if ( lpObj->pInventory[i].IsSetItem() && lpObj->pInventory[i].m_IsValidItem && lpObj->pInventory[i].m_Durability != 0.0f )

  00010	8b 8e 24 0e 00
	00		 mov	 ecx, DWORD PTR [esi+3620]
  00016	03 cf		 add	 ecx, edi
  00018	e8 00 00 00 00	 call	 ?IsSetItem@CItem@@QAEHXZ ; CItem::IsSetItem
  0001d	85 c0		 test	 eax, eax
  0001f	74 73		 je	 SHORT $LN9@gObjCalcSe
  00021	8b 8e 24 0e 00
	00		 mov	 ecx, DWORD PTR [esi+3620]
  00027	03 cf		 add	 ecx, edi
  00029	80 b9 b0 00 00
	00 00		 cmp	 BYTE PTR [ecx+176], 0
  00030	74 62		 je	 SHORT $LN9@gObjCalcSe
  00032	d9 41 24	 fld	 DWORD PTR [ecx+36]
  00035	d9 ee		 fldz
  00037	da e9		 fucompp
  00039	df e0		 fnstsw	 ax
  0003b	f6 c4 44	 test	 ah, 68			; 00000044H
  0003e	7b 54		 jnp	 SHORT $LN9@gObjCalcSe

; 1774 : 		{
; 1775 : 			int AddStatType = lpObj->pInventory[i].GetAddStatType();

  00040	e8 00 00 00 00	 call	 ?GetAddStatType@CItem@@QAEHXZ ; CItem::GetAddStatType

; 1776 : 
; 1777 : 			switch ( AddStatType )

  00045	48		 dec	 eax
  00046	83 f8 03	 cmp	 eax, 3
  00049	77 49		 ja	 SHORT $LN9@gObjCalcSe
  0004b	ff 24 85 00 00
	00 00		 jmp	 DWORD PTR $LN17@gObjCalcSe[eax*4]
$LN4@gObjCalcSe:

; 1778 : 			{
; 1779 : 				case 1:
; 1780 : 					lpObj->pInventory[i].SetItemPlusSpecialStat(&lpObj->AddStrength, 196);

  00052	68 c4 00 00 00	 push	 196			; 000000c4H
  00057	8d 8e 20 01 00
	00		 lea	 ecx, DWORD PTR [esi+288]

; 1781 : 					break;

  0005d	eb 27		 jmp	 SHORT $LN15@gObjCalcSe
$LN3@gObjCalcSe:

; 1782 : 				case 2:
; 1783 : 					lpObj->pInventory[i].SetItemPlusSpecialStat(&lpObj->AddDexterity, 197);

  0005f	68 c5 00 00 00	 push	 197			; 000000c5H
  00064	8d 96 22 01 00
	00		 lea	 edx, DWORD PTR [esi+290]
  0006a	52		 push	 edx

; 1784 : 					break;

  0006b	eb 1a		 jmp	 SHORT $LN16@gObjCalcSe
$LN2@gObjCalcSe:

; 1785 : 				case 3:
; 1786 : 					lpObj->pInventory[i].SetItemPlusSpecialStat(&lpObj->AddEnergy, 198);

  0006d	68 c6 00 00 00	 push	 198			; 000000c6H
  00072	8d 86 26 01 00
	00		 lea	 eax, DWORD PTR [esi+294]
  00078	50		 push	 eax

; 1787 : 					break;

  00079	eb 0c		 jmp	 SHORT $LN16@gObjCalcSe
$LN1@gObjCalcSe:

; 1788 : 				case 4:
; 1789 : 					lpObj->pInventory[i].SetItemPlusSpecialStat(&lpObj->AddVitality, 199);

  0007b	68 c7 00 00 00	 push	 199			; 000000c7H
  00080	8d 8e 24 01 00
	00		 lea	 ecx, DWORD PTR [esi+292]
$LN15@gObjCalcSe:
  00086	51		 push	 ecx
$LN16@gObjCalcSe:
  00087	8b 8e 24 0e 00
	00		 mov	 ecx, DWORD PTR [esi+3620]
  0008d	03 cf		 add	 ecx, edi
  0008f	e8 00 00 00 00	 call	 ?SetItemPlusSpecialStat@CItem@@QAEXPAFH@Z ; CItem::SetItemPlusSpecialStat
$LN9@gObjCalcSe:

; 1771 : 	for ( int i=0;i<INVETORY_WEAR_SIZE;i++)

  00094	81 c7 d4 00 00
	00		 add	 edi, 212		; 000000d4H
  0009a	81 ff f0 09 00
	00		 cmp	 edi, 2544		; 000009f0H
  000a0	0f 8c 6a ff ff
	ff		 jl	 $LL10@gObjCalcSe
  000a6	5f		 pop	 edi
  000a7	5e		 pop	 esi

; 1790 : 					break;
; 1791 : 			}
; 1792 : 		}
; 1793 : 	}
; 1794 : }

  000a8	5d		 pop	 ebp
  000a9	c3		 ret	 0
  000aa	8b ff		 npad	 2
$LN17@gObjCalcSe:
  000ac	00 00 00 00	 DD	 $LN4@gObjCalcSe
  000b0	00 00 00 00	 DD	 $LN3@gObjCalcSe
  000b4	00 00 00 00	 DD	 $LN2@gObjCalcSe
  000b8	00 00 00 00	 DD	 $LN1@gObjCalcSe
?gObjCalcSetItemStat@@YAXPAUOBJECTSTRUCT@@@Z ENDP	; gObjCalcSetItemStat
_TEXT	ENDS
PUBLIC	??_C@_0CG@HNELGANH@?$LJ?$NN?A?v?$LP?$KB?5?$LA?$LA?$MA?$LK?5?$LM?$LM?F?$KO?$LA?$KB?5?$MA?$PL?$LP?k?$LF?G?$LO?z?$LE?Y?5?$LJ?$KL@ ; `string'
PUBLIC	??_C@_0CG@MJJCFDMJ@?$LO?g?$LM?U?$LP?$KB?5?$LA?$LA?$MA?$LK?5?$LM?$LM?F?$KO?$LA?$KB?5?$MA?$PL?$LP?k?$LF?G?$LO?z?$LE?Y?5?$LJ?$KL@ ; `string'
PUBLIC	??_C@_0BL@LIIMDDCM@?$LP?I?$LM?G?5?C?$KD?$LO?R?$LE?Y?5?$CFs?0?5Count?5?$DN?5?$CFd?$AA@ ; `string'
PUBLIC	?gObjGetSetItemOption@@YAXPAUOBJECTSTRUCT@@PAE1PAH@Z ; gObjGetSetItemOption
EXTRN	?GetWeaponType@CItem@@QAEHXZ:PROC		; CItem::GetWeaponType
EXTRN	?LogAddTD@@3P6AXPADZZA:DWORD			; LogAddTD
EXTRN	?GetSetOptionName@CSetItemOption@@QAEPADH@Z:PROC ; CSetItemOption::GetSetOptionName
EXTRN	?GetOptionTableIndex@CSetItemOption@@QAEHHH@Z:PROC ; CSetItemOption::GetOptionTableIndex
EXTRN	?gSetItemOption@@3VCSetItemOption@@A:BYTE	; gSetItemOption
EXTRN	?IsLuckyItemEquipment@LuckyItemManager@@QAEHH@Z:PROC ; LuckyItemManager::IsLuckyItemEquipment
EXTRN	?g_LuckyItemManager@@3ULuckyItemManager@@A:BYTE	; g_LuckyItemManager
;	COMDAT ??_C@_0CG@HNELGANH@?$LJ?$NN?A?v?$LP?$KB?5?$LA?$LA?$MA?$LK?5?$LM?$LM?F?$KO?$LA?$KB?5?$MA?$PL?$LP?k?$LF?G?$LO?z?$LE?Y?5?$LJ?$KL@
CONST	SEGMENT
??_C@_0CG@HNELGANH@?$LJ?$NN?A?v?$LP?$KB?5?$LA?$LA?$MA?$LK?5?$LM?$LM?F?$KO?$LA?$KB?5?$MA?$PL?$LP?k?$LF?G?$LO?z?$LE?Y?5?$LJ?$KL@ DB 0b9H
	DB	0ddH, 0c1H, 0f6H, 0bfH, 0a1H, ' ', 0b0H, 0b0H, 0c0H, 0baH, ' ', 0bcH
	DB	0bcH, 0c6H, 0aeH, 0b0H, 0a1H, ' ', 0c0H, 0fbH, 0bfH, 0ebH, 0b5H
	DB	0c7H, 0beH, 0faH, 0b4H, 0d9H, ' ', 0b9H, 0abH, 0bdH, 0c3H, '..'
	DB	'.', 00H					; `string'
CONST	ENDS
;	COMDAT ??_C@_0CG@MJJCFDMJ@?$LO?g?$LM?U?$LP?$KB?5?$LA?$LA?$MA?$LK?5?$LM?$LM?F?$KO?$LA?$KB?5?$MA?$PL?$LP?k?$LF?G?$LO?z?$LE?Y?5?$LJ?$KL@
CONST	SEGMENT
??_C@_0CG@MJJCFDMJ@?$LO?g?$LM?U?$LP?$KB?5?$LA?$LA?$MA?$LK?5?$LM?$LM?F?$KO?$LA?$KB?5?$MA?$PL?$LP?k?$LF?G?$LO?z?$LE?Y?5?$LJ?$KL@ DB 0beH
	DB	0e7H, 0bcH, 0d5H, 0bfH, 0a1H, ' ', 0b0H, 0b0H, 0c0H, 0baH, ' ', 0bcH
	DB	0bcH, 0c6H, 0aeH, 0b0H, 0a1H, ' ', 0c0H, 0fbH, 0bfH, 0ebH, 0b5H
	DB	0c7H, 0beH, 0faH, 0b4H, 0d9H, ' ', 0b9H, 0abH, 0bdH, 0c3H, '..'
	DB	'.', 00H					; `string'
CONST	ENDS
;	COMDAT ??_C@_0BL@LIIMDDCM@?$LP?I?$LM?G?5?C?$KD?$LO?R?$LE?Y?5?$CFs?0?5Count?5?$DN?5?$CFd?$AA@
CONST	SEGMENT
??_C@_0BL@LIIMDDCM@?$LP?I?$LM?G?5?C?$KD?$LO?R?$LE?Y?5?$CFs?0?5Count?5?$DN?5?$CFd?$AA@ DB 0bfH
	DB	0c9H, 0bcH, 0c7H, ' ', 0c3H, 0a3H, 0beH, 0d2H, 0b4H, 0d9H, ' %'
	DB	's, Count = %d', 00H				; `string'
; Function compile flags: /Ogtp
CONST	ENDS
;	COMDAT ?gObjGetSetItemOption@@YAXPAUOBJECTSTRUCT@@PAE1PAH@Z
_TEXT	SEGMENT
tv347 = -12						; size = 4
_RightRingSetOptionIndex$ = -8				; size = 4
_RightSetOptionIndex$ = -4				; size = 4
_lpObj$ = 8						; size = 4
_pSetOptionTable$ = 12					; size = 4
_pSetOptionCountTable$ = 16				; size = 4
_i$215440 = 20						; size = 4
_pSetOptionCount$ = 20					; size = 4
?gObjGetSetItemOption@@YAXPAUOBJECTSTRUCT@@PAE1PAH@Z PROC ; gObjGetSetItemOption, COMDAT

; 1797 : {

  00000	55		 push	 ebp
  00001	8b ec		 mov	 ebp, esp
  00003	83 ec 0c	 sub	 esp, 12			; 0000000cH
  00006	53		 push	 ebx
  00007	56		 push	 esi
  00008	57		 push	 edi

; 1798 : 	*pSetOptionCount = 0;

  00009	8b 7d 14	 mov	 edi, DWORD PTR _pSetOptionCount$[ebp]

; 1799 : 	int RightSetOptionIndex = -1;

  0000c	83 c8 ff	 or	 eax, -1
  0000f	c7 07 00 00 00
	00		 mov	 DWORD PTR [edi], 0
  00015	89 45 fc	 mov	 DWORD PTR _RightSetOptionIndex$[ebp], eax

; 1800 : 	int RightRingSetOptionIndex = -1;

  00018	89 45 f8	 mov	 DWORD PTR _RightRingSetOptionIndex$[ebp], eax

; 1801 : 
; 1802 : 	for ( int i=0;i<INVETORY_WEAR_SIZE;i++)

  0001b	c7 45 14 00 00
	00 00		 mov	 DWORD PTR _i$215440[ebp], 0
$LL35@gObjGetSet:

; 1803 : 	{
; 1804 : #ifdef LUCKYITEM
; 1805 : 		if( g_LuckyItemManager.IsLuckyItemEquipment(lpObj->pInventory[i].m_Type) 
; 1806 : 			&& lpObj->pInventory[i].m_Durability == 0.0f )

  00022	8b 75 14	 mov	 esi, DWORD PTR _i$215440[ebp]
  00025	8b 5d 08	 mov	 ebx, DWORD PTR _lpObj$[ebp]
  00028	69 f6 d4 00 00
	00		 imul	 esi, 212		; 000000d4H
  0002e	8b 83 24 0e 00
	00		 mov	 eax, DWORD PTR [ebx+3620]
  00034	0f bf 4c 30 06	 movsx	 ecx, WORD PTR [eax+esi+6]
  00039	51		 push	 ecx
  0003a	b9 00 00 00 00	 mov	 ecx, OFFSET ?g_LuckyItemManager@@3ULuckyItemManager@@A ; g_LuckyItemManager
  0003f	e8 00 00 00 00	 call	 ?IsLuckyItemEquipment@LuckyItemManager@@QAEHH@Z ; LuckyItemManager::IsLuckyItemEquipment
  00044	85 c0		 test	 eax, eax
  00046	74 19		 je	 SHORT $LN19@gObjGetSet
  00048	8b 93 24 0e 00
	00		 mov	 edx, DWORD PTR [ebx+3620]
  0004e	d9 44 32 24	 fld	 DWORD PTR [edx+esi+36]
  00052	d9 ee		 fldz
  00054	da e9		 fucompp
  00056	df e0		 fnstsw	 ax
  00058	f6 c4 44	 test	 ah, 68			; 00000044H
  0005b	0f 8b 94 00 00
	00		 jnp	 $LN21@gObjGetSet
$LN19@gObjGetSet:

; 1807 : 		{
; 1808 : 			continue;
; 1809 : 		}
; 1810 : #endif
; 1811 : 		int iSetItemType = lpObj->pInventory[i].IsSetItem();

  00061	8b 8b 24 0e 00
	00		 mov	 ecx, DWORD PTR [ebx+3620]
  00067	03 ce		 add	 ecx, esi
  00069	e8 00 00 00 00	 call	 ?IsSetItem@CItem@@QAEHXZ ; CItem::IsSetItem

; 1812 : 
; 1813 : 		if ( iSetItemType )

  0006e	85 c0		 test	 eax, eax
  00070	0f 84 7f 00 00
	00		 je	 $LN21@gObjGetSet

; 1814 : 		{
; 1815 : 			if ( lpObj->pInventory[i].m_IsValidItem )

  00076	8b 8b 24 0e 00
	00		 mov	 ecx, DWORD PTR [ebx+3620]
  0007c	80 bc 0e b0 00
	00 00 00	 cmp	 BYTE PTR [esi+ecx+176], 0
  00084	74 6f		 je	 SHORT $LN21@gObjGetSet

; 1816 : 			{
; 1817 : 				int iSetItemOption = gSetItemOption.GetOptionTableIndex(lpObj->pInventory[i].m_Type, iSetItemType );

  00086	0f bf 54 0e 06	 movsx	 edx, WORD PTR [esi+ecx+6]
  0008b	50		 push	 eax
  0008c	52		 push	 edx
  0008d	b9 00 00 00 00	 mov	 ecx, OFFSET ?gSetItemOption@@3VCSetItemOption@@A ; gSetItemOption
  00092	e8 00 00 00 00	 call	 ?GetOptionTableIndex@CSetItemOption@@QAEHHH@Z ; CSetItemOption::GetOptionTableIndex
  00097	8b d8		 mov	 ebx, eax

; 1818 : 
; 1819 : 				if ( iSetItemOption != -1 )

  00099	83 fb ff	 cmp	 ebx, -1
  0009c	74 57		 je	 SHORT $LN21@gObjGetSet

; 1820 : 				{
; 1821 : 					if ( i == 0 )

  0009e	8b 45 14	 mov	 eax, DWORD PTR _i$215440[ebp]
  000a1	85 c0		 test	 eax, eax
  000a3	75 67		 jne	 SHORT $LN15@gObjGetSet

; 1822 : 					{
; 1823 : 						RightSetOptionIndex = iSetItemOption;

  000a5	89 5d fc	 mov	 DWORD PTR _RightSetOptionIndex$[ebp], ebx
$LN32@gObjGetSet:

; 1849 : 							}
; 1850 : 						}
; 1851 : 					}
; 1852 : 
; 1853 : 					BOOL bFound = FALSE;
; 1854 : 
; 1855 : 					for ( int n=0;n<*pSetOptionCount;n++)

  000a8	8b 0f		 mov	 ecx, DWORD PTR [edi]
  000aa	33 c0		 xor	 eax, eax
  000ac	85 c9		 test	 ecx, ecx
  000ae	7e 14		 jle	 SHORT $LN33@gObjGetSet
$LL5@gObjGetSet:

; 1856 : 					{
; 1857 : 						if ( pSetOptionTable[n] == iSetItemOption )

  000b0	8b 55 0c	 mov	 edx, DWORD PTR _pSetOptionTable$[ebp]
  000b3	0f b6 14 10	 movzx	 edx, BYTE PTR [eax+edx]
  000b7	3b d3		 cmp	 edx, ebx
  000b9	0f 84 11 01 00
	00		 je	 $LN27@gObjGetSet

; 1849 : 							}
; 1850 : 						}
; 1851 : 					}
; 1852 : 
; 1853 : 					BOOL bFound = FALSE;
; 1854 : 
; 1855 : 					for ( int n=0;n<*pSetOptionCount;n++)

  000bf	40		 inc	 eax
  000c0	3b c1		 cmp	 eax, ecx
  000c2	7c ec		 jl	 SHORT $LL5@gObjGetSet
$LN33@gObjGetSet:

; 1869 : 					{
; 1870 : 						pSetOptionTable[*pSetOptionCount] = iSetItemOption;

  000c4	8b 55 0c	 mov	 edx, DWORD PTR _pSetOptionTable$[ebp]
  000c7	88 1c 11	 mov	 BYTE PTR [ecx+edx], bl

; 1871 : 						pSetOptionCountTable[*pSetOptionCount]++;

  000ca	8b 07		 mov	 eax, DWORD PTR [edi]
  000cc	8b 4d 10	 mov	 ecx, DWORD PTR _pSetOptionCountTable$[ebp]
  000cf	fe 04 08	 inc	 BYTE PTR [eax+ecx]

; 1872 : 
; 1873 : 						LogAddTD("옵션 찾았다 %s, Count = %d", gSetItemOption.GetSetOptionName(iSetItemOption), pSetOptionCountTable[*pSetOptionCount]);

  000d2	8b 17		 mov	 edx, DWORD PTR [edi]
  000d4	0f b6 04 0a	 movzx	 eax, BYTE PTR [edx+ecx]
  000d8	50		 push	 eax
  000d9	53		 push	 ebx
  000da	b9 00 00 00 00	 mov	 ecx, OFFSET ?gSetItemOption@@3VCSetItemOption@@A ; gSetItemOption
  000df	e8 00 00 00 00	 call	 ?GetSetOptionName@CSetItemOption@@QAEPADH@Z ; CSetItemOption::GetSetOptionName
  000e4	50		 push	 eax
  000e5	68 00 00 00 00	 push	 OFFSET ??_C@_0BL@LIIMDDCM@?$LP?I?$LM?G?5?C?$KD?$LO?R?$LE?Y?5?$CFs?0?5Count?5?$DN?5?$CFd?$AA@
  000ea	ff 15 00 00 00
	00		 call	 DWORD PTR ?LogAddTD@@3P6AXPADZZA ; LogAddTD
  000f0	83 c4 0c	 add	 esp, 12			; 0000000cH

; 1874 : 
; 1875 : 						*pSetOptionCount += 1;

  000f3	ff 07		 inc	 DWORD PTR [edi]
$LN21@gObjGetSet:

; 1801 : 
; 1802 : 	for ( int i=0;i<INVETORY_WEAR_SIZE;i++)

  000f5	8b 45 14	 mov	 eax, DWORD PTR _i$215440[ebp]
  000f8	40		 inc	 eax
  000f9	89 45 14	 mov	 DWORD PTR _i$215440[ebp], eax
  000fc	83 f8 0c	 cmp	 eax, 12			; 0000000cH
  000ff	0f 8c 1d ff ff
	ff		 jl	 $LL35@gObjGetSet
  00105	5f		 pop	 edi
  00106	5e		 pop	 esi
  00107	5b		 pop	 ebx

; 1876 : 					}
; 1877 : 				}
; 1878 : 			}
; 1879 : 		}
; 1880 : 	}
; 1881 : }

  00108	8b e5		 mov	 esp, ebp
  0010a	5d		 pop	 ebp
  0010b	c3		 ret	 0
$LN15@gObjGetSet:

; 1824 : 					}
; 1825 : 					else if ( i == 1  )

  0010c	83 f8 01	 cmp	 eax, 1
  0010f	75 55		 jne	 SHORT $LN11@gObjGetSet

; 1826 : 					{
; 1827 : 						if (  RightSetOptionIndex == iSetItemOption )

  00111	39 5d fc	 cmp	 DWORD PTR _RightSetOptionIndex$[ebp], ebx
  00114	75 92		 jne	 SHORT $LN32@gObjGetSet

; 1828 : 						{
; 1829 : 							if ( lpObj->pInventory[0].GetWeaponType() == lpObj->pInventory[1].GetWeaponType() && lpObj->pInventory[0].IsSetItem() )

  00116	8b 75 08	 mov	 esi, DWORD PTR _lpObj$[ebp]
  00119	8b 8e 24 0e 00
	00		 mov	 ecx, DWORD PTR [esi+3620]
  0011f	81 c1 d4 00 00
	00		 add	 ecx, 212		; 000000d4H
  00125	e8 00 00 00 00	 call	 ?GetWeaponType@CItem@@QAEHXZ ; CItem::GetWeaponType
  0012a	8b 8e 24 0e 00
	00		 mov	 ecx, DWORD PTR [esi+3620]
  00130	89 45 f4	 mov	 DWORD PTR tv347[ebp], eax
  00133	e8 00 00 00 00	 call	 ?GetWeaponType@CItem@@QAEHXZ ; CItem::GetWeaponType
  00138	3b 45 f4	 cmp	 eax, DWORD PTR tv347[ebp]
  0013b	0f 85 67 ff ff
	ff		 jne	 $LN32@gObjGetSet
  00141	8b c6		 mov	 eax, esi
  00143	8b 88 24 0e 00
	00		 mov	 ecx, DWORD PTR [eax+3620]
  00149	e8 00 00 00 00	 call	 ?IsSetItem@CItem@@QAEHXZ ; CItem::IsSetItem
  0014e	85 c0		 test	 eax, eax
  00150	0f 84 52 ff ff
	ff		 je	 $LN32@gObjGetSet

; 1830 : 							{
; 1831 : 								LogAddTD("양손에 같은 세트가 적용되었다 무시...");

  00156	68 00 00 00 00	 push	 OFFSET ??_C@_0CG@MJJCFDMJ@?$LO?g?$LM?U?$LP?$KB?5?$LA?$LA?$MA?$LK?5?$LM?$LM?F?$KO?$LA?$KB?5?$MA?$PL?$LP?k?$LF?G?$LO?z?$LE?Y?5?$LJ?$KL@
  0015b	ff 15 00 00 00
	00		 call	 DWORD PTR ?LogAddTD@@3P6AXPADZZA ; LogAddTD
  00161	83 c4 04	 add	 esp, 4

; 1832 : 								continue;

  00164	eb 8f		 jmp	 SHORT $LN21@gObjGetSet
$LN11@gObjGetSet:

; 1833 : 							}
; 1834 : 						}
; 1835 : 					}
; 1836 : 					
; 1837 : 					if ( i == 10 )

  00166	83 f8 0a	 cmp	 eax, 10			; 0000000aH
  00169	75 08		 jne	 SHORT $LN10@gObjGetSet

; 1838 : 					{
; 1839 : 						RightRingSetOptionIndex = iSetItemOption;

  0016b	89 5d f8	 mov	 DWORD PTR _RightRingSetOptionIndex$[ebp], ebx
  0016e	e9 35 ff ff ff	 jmp	 $LN32@gObjGetSet
$LN10@gObjGetSet:

; 1840 : 					}
; 1841 : 					else if ( i == 11   )

  00173	83 f8 0b	 cmp	 eax, 11			; 0000000bH
  00176	0f 85 2c ff ff
	ff		 jne	 $LN32@gObjGetSet

; 1842 : 					{
; 1843 : 						if(RightRingSetOptionIndex == iSetItemOption) //season4 add-on (wz fix o/)

  0017c	39 5d f8	 cmp	 DWORD PTR _RightRingSetOptionIndex$[ebp], ebx
  0017f	0f 85 23 ff ff
	ff		 jne	 $LN32@gObjGetSet

; 1844 : 						{
; 1845 : 							if ( lpObj->pInventory[10].m_Type == lpObj->pInventory[11].m_Type && lpObj->pInventory[10].IsSetItem() )

  00185	8b 4d 08	 mov	 ecx, DWORD PTR _lpObj$[ebp]
  00188	8b 81 24 0e 00
	00		 mov	 eax, DWORD PTR [ecx+3620]
  0018e	66 8b 90 4e 08
	00 00		 mov	 dx, WORD PTR [eax+2126]
  00195	66 3b 90 22 09
	00 00		 cmp	 dx, WORD PTR [eax+2338]
  0019c	0f 85 06 ff ff
	ff		 jne	 $LN32@gObjGetSet
  001a2	8b c1		 mov	 eax, ecx
  001a4	8b 88 24 0e 00
	00		 mov	 ecx, DWORD PTR [eax+3620]
  001aa	81 c1 48 08 00
	00		 add	 ecx, 2120		; 00000848H
  001b0	e8 00 00 00 00	 call	 ?IsSetItem@CItem@@QAEHXZ ; CItem::IsSetItem
  001b5	85 c0		 test	 eax, eax
  001b7	0f 84 eb fe ff
	ff		 je	 $LN32@gObjGetSet

; 1846 : 							{
; 1847 : 								LogAddTD("반지에 같은 세트가 적용되었다 무시...");

  001bd	68 00 00 00 00	 push	 OFFSET ??_C@_0CG@HNELGANH@?$LJ?$NN?A?v?$LP?$KB?5?$LA?$LA?$MA?$LK?5?$LM?$LM?F?$KO?$LA?$KB?5?$MA?$PL?$LP?k?$LF?G?$LO?z?$LE?Y?5?$LJ?$KL@
  001c2	ff 15 00 00 00
	00		 call	 DWORD PTR ?LogAddTD@@3P6AXPADZZA ; LogAddTD
  001c8	83 c4 04	 add	 esp, 4

; 1848 : 								continue;

  001cb	e9 25 ff ff ff	 jmp	 $LN21@gObjGetSet
$LN27@gObjGetSet:

; 1858 : 						{
; 1859 : 							pSetOptionCountTable[n]++;

  001d0	8b 4d 10	 mov	 ecx, DWORD PTR _pSetOptionCountTable$[ebp]
  001d3	fe 04 08	 inc	 BYTE PTR [eax+ecx]

; 1860 : 							bFound = TRUE;
; 1861 : 
; 1862 : 							LogAddTD("옵션 찾았다 %s, Count = %d", gSetItemOption.GetSetOptionName(iSetItemOption), pSetOptionCountTable[n]);

  001d6	0f b6 04 08	 movzx	 eax, BYTE PTR [eax+ecx]
  001da	50		 push	 eax
  001db	53		 push	 ebx
  001dc	b9 00 00 00 00	 mov	 ecx, OFFSET ?gSetItemOption@@3VCSetItemOption@@A ; gSetItemOption
  001e1	e8 00 00 00 00	 call	 ?GetSetOptionName@CSetItemOption@@QAEPADH@Z ; CSetItemOption::GetSetOptionName
  001e6	50		 push	 eax
  001e7	68 00 00 00 00	 push	 OFFSET ??_C@_0BL@LIIMDDCM@?$LP?I?$LM?G?5?C?$KD?$LO?R?$LE?Y?5?$CFs?0?5Count?5?$DN?5?$CFd?$AA@
  001ec	ff 15 00 00 00
	00		 call	 DWORD PTR ?LogAddTD@@3P6AXPADZZA ; LogAddTD
  001f2	83 c4 0c	 add	 esp, 12			; 0000000cH

; 1863 : 
; 1864 : 							break;
; 1865 : 						}
; 1866 : 					}
; 1867 : 
; 1868 : 					if ( bFound == FALSE )

  001f5	e9 fb fe ff ff	 jmp	 $LN21@gObjGetSet
?gObjGetSetItemOption@@YAXPAUOBJECTSTRUCT@@PAE1PAH@Z ENDP ; gObjGetSetItemOption
_TEXT	ENDS
PUBLIC	?gObjSetItemStatPlusSpecial@@YAXPAUOBJECTSTRUCT@@HH@Z ; gObjSetItemStatPlusSpecial
; Function compile flags: /Ogtp
;	COMDAT ?gObjSetItemStatPlusSpecial@@YAXPAUOBJECTSTRUCT@@HH@Z
_TEXT	SEGMENT
_lpObj$ = 8						; size = 4
_option$ = 12						; size = 4
_ivalue$ = 16						; size = 4
?gObjSetItemStatPlusSpecial@@YAXPAUOBJECTSTRUCT@@HH@Z PROC ; gObjSetItemStatPlusSpecial, COMDAT

; 1981 : {

  00000	55		 push	 ebp
  00001	8b ec		 mov	 ebp, esp

; 1982 : 	if ( option == -1 )

  00003	8b 4d 0c	 mov	 ecx, DWORD PTR _option$[ebp]
  00006	83 f9 ff	 cmp	 ecx, -1
  00009	74 53		 je	 SHORT $LN6@gObjSetIte

; 1983 : 		return;
; 1984 : 
; 1985 : 	if(ivalue <= 0)

  0000b	8b 45 10	 mov	 eax, DWORD PTR _ivalue$[ebp]
  0000e	85 c0		 test	 eax, eax
  00010	7e 4c		 jle	 SHORT $LN6@gObjSetIte

; 1986 : 	{
; 1987 : 		return;
; 1988 : 	}
; 1989 : 
; 1990 : 	switch ( option )

  00012	81 c1 60 ff ff
	ff		 add	 ecx, -160		; ffffff60H
  00018	83 f9 04	 cmp	 ecx, 4
  0001b	77 41		 ja	 SHORT $LN6@gObjSetIte
  0001d	ff 24 8d 00 00
	00 00		 jmp	 DWORD PTR $LN12@gObjSetIte[ecx*4]
$LN5@gObjSetIte:

; 1991 : 	{
; 1992 : 		case AT_SET_OPTION_IMPROVE_STRENGTH:
; 1993 : 			lpObj->AddStrength += ivalue;

  00024	8b 4d 08	 mov	 ecx, DWORD PTR _lpObj$[ebp]
  00027	66 01 81 20 01
	00 00		 add	 WORD PTR [ecx+288], ax

; 2006 : 			break;
; 2007 : 	}
; 2008 : }

  0002e	5d		 pop	 ebp
  0002f	c3		 ret	 0
$LN4@gObjSetIte:

; 1994 : 			break;
; 1995 : 		case AT_SET_OPTION_IMPROVE_DEXTERITY:
; 1996 : 			lpObj->AddDexterity += ivalue;

  00030	8b 4d 08	 mov	 ecx, DWORD PTR _lpObj$[ebp]
  00033	66 01 81 22 01
	00 00		 add	 WORD PTR [ecx+290], ax

; 2006 : 			break;
; 2007 : 	}
; 2008 : }

  0003a	5d		 pop	 ebp
  0003b	c3		 ret	 0
$LN3@gObjSetIte:

; 1997 : 			break;
; 1998 : 		case AT_SET_OPTION_IMPROVE_ENERGY:
; 1999 : 			lpObj->AddEnergy += ivalue;

  0003c	8b 4d 08	 mov	 ecx, DWORD PTR _lpObj$[ebp]
  0003f	66 01 81 26 01
	00 00		 add	 WORD PTR [ecx+294], ax

; 2006 : 			break;
; 2007 : 	}
; 2008 : }

  00046	5d		 pop	 ebp
  00047	c3		 ret	 0
$LN2@gObjSetIte:

; 2000 : 			break;
; 2001 : 		case AT_SET_OPTION_IMPROVE_VITALITY:
; 2002 : 			lpObj->AddVitality += ivalue;

  00048	8b 4d 08	 mov	 ecx, DWORD PTR _lpObj$[ebp]
  0004b	66 01 81 24 01
	00 00		 add	 WORD PTR [ecx+292], ax

; 2006 : 			break;
; 2007 : 	}
; 2008 : }

  00052	5d		 pop	 ebp
  00053	c3		 ret	 0
$LN1@gObjSetIte:

; 2003 : 			break;
; 2004 : 		case AT_SET_OPTION_IMPROVE_LEADERSHIP: //season4 add-on
; 2005 : 			lpObj->AddLeadership += ivalue;

  00054	8b 4d 08	 mov	 ecx, DWORD PTR _lpObj$[ebp]
  00057	66 01 81 1a 01
	00 00		 add	 WORD PTR [ecx+282], ax
$LN6@gObjSetIte:

; 2006 : 			break;
; 2007 : 	}
; 2008 : }

  0005e	5d		 pop	 ebp
  0005f	c3		 ret	 0
$LN12@gObjSetIte:
  00060	00 00 00 00	 DD	 $LN5@gObjSetIte
  00064	00 00 00 00	 DD	 $LN4@gObjSetIte
  00068	00 00 00 00	 DD	 $LN3@gObjSetIte
  0006c	00 00 00 00	 DD	 $LN2@gObjSetIte
  00070	00 00 00 00	 DD	 $LN1@gObjSetIte
?gObjSetItemStatPlusSpecial@@YAXPAUOBJECTSTRUCT@@HH@Z ENDP ; gObjSetItemStatPlusSpecial
_TEXT	ENDS
PUBLIC	?gObjSetItemPlusSpecial@@YAXPAUOBJECTSTRUCT@@HH@Z ; gObjSetItemPlusSpecial
; Function compile flags: /Ogtp
;	COMDAT ?gObjSetItemPlusSpecial@@YAXPAUOBJECTSTRUCT@@HH@Z
_TEXT	SEGMENT
_lpObj$ = 8						; size = 4
_option$ = 12						; size = 4
_ivalue$ = 16						; size = 4
?gObjSetItemPlusSpecial@@YAXPAUOBJECTSTRUCT@@HH@Z PROC	; gObjSetItemPlusSpecial, COMDAT

; 2011 : {

  00000	55		 push	 ebp
  00001	8b ec		 mov	 ebp, esp

; 2012 : 	if ( option == -1 )

  00003	8b 45 0c	 mov	 eax, DWORD PTR _option$[ebp]
  00006	83 f8 ff	 cmp	 eax, -1
  00009	0f 84 00 02 00
	00		 je	 $LN32@gObjSetIte@2

; 2013 : 		return;
; 2014 : 
; 2015 : 	if(ivalue <= 0)

  0000f	8b 4d 10	 mov	 ecx, DWORD PTR _ivalue$[ebp]
  00012	85 c9		 test	 ecx, ecx
  00014	0f 8e f5 01 00
	00		 jle	 $LN32@gObjSetIte@2

; 2016 : 	{
; 2017 : 		return;
; 2018 : 	}
; 2019 : 
; 2020 : 	switch ( option )

  0001a	05 5b ff ff ff	 add	 eax, -165		; ffffff5bH
  0001f	83 f8 1e	 cmp	 eax, 30			; 0000001eH
  00022	0f 87 e7 01 00
	00		 ja	 $LN32@gObjSetIte@2
  00028	56		 push	 esi
  00029	ff 24 85 00 00
	00 00		 jmp	 DWORD PTR $LN39@gObjSetIte@2[eax*4]
$LN31@gObjSetIte@2:

; 2021 : 	{
; 2022 : 		case AT_SET_OPTION_DOUBLE_DAMAGE:
; 2023 : 			lpObj->SetOpDoubleDamage += ivalue;

  00030	8b 45 08	 mov	 eax, DWORD PTR _lpObj$[ebp]
  00033	00 88 3f 11 00
	00		 add	 BYTE PTR [eax+4415], cl
  00039	5e		 pop	 esi

; 2114 : 			break;
; 2115 : 	}
; 2116 : }

  0003a	5d		 pop	 ebp
  0003b	c3		 ret	 0
$LN30@gObjSetIte@2:

; 2024 : 			break;
; 2025 : 		case AT_SET_OPTION_IMPROVE_SHIELD_DEFENCE:
; 2026 : 			lpObj->SetOpImproveSheldDefence += ivalue;

  0003c	8b 45 08	 mov	 eax, DWORD PTR _lpObj$[ebp]
  0003f	00 88 43 11 00
	00		 add	 BYTE PTR [eax+4419], cl
  00045	5e		 pop	 esi

; 2114 : 			break;
; 2115 : 	}
; 2116 : }

  00046	5d		 pop	 ebp
  00047	c3		 ret	 0
$LN29@gObjSetIte@2:

; 2027 : 			break;
; 2028 : 		case AT_SET_OPTION_TWO_HAND_SWORD_IMPROVE_DAMAGE:
; 2029 : 			lpObj->SetOpTwoHandSwordImproveDamage += ivalue;

  00048	8b 45 08	 mov	 eax, DWORD PTR _lpObj$[ebp]
  0004b	00 88 40 11 00
	00		 add	 BYTE PTR [eax+4416], cl
  00051	5e		 pop	 esi

; 2114 : 			break;
; 2115 : 	}
; 2116 : }

  00052	5d		 pop	 ebp
  00053	c3		 ret	 0
$LN28@gObjSetIte@2:

; 2030 : 			break;
; 2031 : 		case AT_SET_OPTION_IMPROVE_MINATTACKDAMAGE:
; 2032 : 			lpObj->SetOpAddMinAttackDamage += ivalue;

  00054	8b 45 08	 mov	 eax, DWORD PTR _lpObj$[ebp]
  00057	66 01 88 32 11
	00 00		 add	 WORD PTR [eax+4402], cx
  0005e	5e		 pop	 esi

; 2114 : 			break;
; 2115 : 	}
; 2116 : }

  0005f	5d		 pop	 ebp
  00060	c3		 ret	 0
$LN27@gObjSetIte@2:

; 2033 : 			break;
; 2034 : 		case AT_SET_OPTION_IMPROVE_MAXATTACKDAMAGE:
; 2035 : 			lpObj->SetOpAddMaxAttackDamage += ivalue;

  00061	8b 45 08	 mov	 eax, DWORD PTR _lpObj$[ebp]
  00064	66 01 88 34 11
	00 00		 add	 WORD PTR [eax+4404], cx
  0006b	5e		 pop	 esi

; 2114 : 			break;
; 2115 : 	}
; 2116 : }

  0006c	5d		 pop	 ebp
  0006d	c3		 ret	 0
$LN26@gObjSetIte@2:

; 2036 : 			break;
; 2037 : 		case AT_SET_OPTION_IMPROVE_MAGICDAMAGE:
; 2038 : 			lpObj->SetOpAddMagicPower += ivalue;

  0006e	8b 45 08	 mov	 eax, DWORD PTR _lpObj$[ebp]
  00071	66 01 88 3c 11
	00 00		 add	 WORD PTR [eax+4412], cx
  00078	5e		 pop	 esi

; 2114 : 			break;
; 2115 : 	}
; 2116 : }

  00079	5d		 pop	 ebp
  0007a	c3		 ret	 0
$LN25@gObjSetIte@2:

; 2039 : 			break;
; 2040 : 		case AT_SET_OPTION_IMPROVE_DAMAGE:
; 2041 : 			lpObj->SetOpAddDamage += ivalue;

  0007b	8b 45 08	 mov	 eax, DWORD PTR _lpObj$[ebp]
  0007e	66 01 88 30 11
	00 00		 add	 WORD PTR [eax+4400], cx
  00085	5e		 pop	 esi

; 2114 : 			break;
; 2115 : 	}
; 2116 : }

  00086	5d		 pop	 ebp
  00087	c3		 ret	 0
$LN24@gObjSetIte@2:

; 2042 : 			break;
; 2043 : 		case AT_SET_OPTION_IMPROVE_ATTACKRATE:
; 2044 : 			lpObj->SetOpImproveSuccessAttackRate += ivalue;

  00088	8b 45 08	 mov	 eax, DWORD PTR _lpObj$[ebp]
  0008b	00 88 41 11 00
	00		 add	 BYTE PTR [eax+4417], cl
  00091	5e		 pop	 esi

; 2114 : 			break;
; 2115 : 	}
; 2116 : }

  00092	5d		 pop	 ebp
  00093	c3		 ret	 0
$LN23@gObjSetIte@2:

; 2045 : 			break;
; 2046 : 		case AT_SET_OPTION_IMPROVE_DEFENCE:
; 2047 : 			lpObj->SetOpAddDefence += ivalue;

  00094	8b 45 08	 mov	 eax, DWORD PTR _lpObj$[ebp]
  00097	66 01 88 38 11
	00 00		 add	 WORD PTR [eax+4408], cx
  0009e	5e		 pop	 esi

; 2114 : 			break;
; 2115 : 	}
; 2116 : }

  0009f	5d		 pop	 ebp
  000a0	c3		 ret	 0
$LN22@gObjSetIte@2:

; 2048 : 			break;
; 2049 : 		case AT_SET_OPTION_DEFENCE_IGNORE:
; 2050 : 			lpObj->SetOpIgnoreDefense += ivalue;

  000a1	8b 45 08	 mov	 eax, DWORD PTR _lpObj$[ebp]
  000a4	00 88 3e 11 00
	00		 add	 BYTE PTR [eax+4414], cl
  000aa	5e		 pop	 esi

; 2114 : 			break;
; 2115 : 	}
; 2116 : }

  000ab	5d		 pop	 ebp
  000ac	c3		 ret	 0
$LN21@gObjSetIte@2:

; 2051 : 			break;
; 2052 : 		case AT_SET_OPTION_IMPROVE_MAXLIFE:
; 2053 : 			lpObj->AddLife += ivalue;

  000ad	8b 45 08	 mov	 eax, DWORD PTR _lpObj$[ebp]
  000b0	01 88 4c 01 00
	00		 add	 DWORD PTR [eax+332], ecx
  000b6	5e		 pop	 esi

; 2114 : 			break;
; 2115 : 	}
; 2116 : }

  000b7	5d		 pop	 ebp
  000b8	c3		 ret	 0
$LN20@gObjSetIte@2:

; 2054 : 			break;
; 2055 : 		case AT_SET_OPTION_IMPROVE_MAXMANA:
; 2056 : 			lpObj->AddMana += ivalue;

  000b9	8b 45 08	 mov	 eax, DWORD PTR _lpObj$[ebp]
  000bc	01 88 50 01 00
	00		 add	 DWORD PTR [eax+336], ecx
  000c2	5e		 pop	 esi

; 2114 : 			break;
; 2115 : 	}
; 2116 : }

  000c3	5d		 pop	 ebp
  000c4	c3		 ret	 0
$LN19@gObjSetIte@2:

; 2057 : 			break;
; 2058 : 		case AT_SET_OPTION_IMPROVE_MAXAG:
; 2059 : 			lpObj->AddBP += ivalue;

  000c5	8b 45 08	 mov	 eax, DWORD PTR _lpObj$[ebp]
  000c8	01 88 30 01 00
	00		 add	 DWORD PTR [eax+304], ecx
  000ce	5e		 pop	 esi

; 2114 : 			break;
; 2115 : 	}
; 2116 : }

  000cf	5d		 pop	 ebp
  000d0	c3		 ret	 0
$LN18@gObjSetIte@2:

; 2060 : 			break;
; 2061 : 		case AT_SET_OPTION_IMPROVE_AG_VALUE:
; 2062 : 			lpObj->SetOpIncAGValue += ivalue;

  000d1	8b 45 08	 mov	 eax, DWORD PTR _lpObj$[ebp]
  000d4	66 01 88 2e 11
	00 00		 add	 WORD PTR [eax+4398], cx
  000db	5e		 pop	 esi

; 2114 : 			break;
; 2115 : 	}
; 2116 : }

  000dc	5d		 pop	 ebp
  000dd	c3		 ret	 0
$LN17@gObjSetIte@2:

; 2063 : 			break;
; 2064 : 		case AT_SET_OPTION_IMPROVE_CRITICALDAMAGE:
; 2065 : 			lpObj->SetOpAddCriticalDamage += ivalue;

  000de	8b 45 08	 mov	 eax, DWORD PTR _lpObj$[ebp]
  000e1	66 01 88 2a 11
	00 00		 add	 WORD PTR [eax+4394], cx
  000e8	5e		 pop	 esi

; 2114 : 			break;
; 2115 : 	}
; 2116 : }

  000e9	5d		 pop	 ebp
  000ea	c3		 ret	 0
$LN16@gObjSetIte@2:

; 2066 : 			break;
; 2067 : 		case AT_SET_OPTION_IMPROVE_CRITICALDAMAGE_SUCCESS:
; 2068 : 			lpObj->SetOpAddCriticalDamageSuccessRate += ivalue;

  000eb	8b 45 08	 mov	 eax, DWORD PTR _lpObj$[ebp]
  000ee	66 01 88 2c 11
	00 00		 add	 WORD PTR [eax+4396], cx
  000f5	5e		 pop	 esi

; 2114 : 			break;
; 2115 : 	}
; 2116 : }

  000f6	5d		 pop	 ebp
  000f7	c3		 ret	 0
$LN15@gObjSetIte@2:

; 2069 : 			break;
; 2070 : 		case AT_SET_OPTION_IMPROVE_EX_DAMAGE:
; 2071 : 			lpObj->SetOpAddExDamage += ivalue;

  000f8	8b 45 08	 mov	 eax, DWORD PTR _lpObj$[ebp]
  000fb	66 01 88 26 11
	00 00		 add	 WORD PTR [eax+4390], cx
  00102	5e		 pop	 esi

; 2114 : 			break;
; 2115 : 	}
; 2116 : }

  00103	5d		 pop	 ebp
  00104	c3		 ret	 0
$LN14@gObjSetIte@2:

; 2072 : 			break;
; 2073 : 		case AT_SET_OPTION_IMPROVE_EX_DAMAGE_SUCCESS:
; 2074 : 			lpObj->SetOpAddExDamageSuccessRate += ivalue;

  00105	8b 45 08	 mov	 eax, DWORD PTR _lpObj$[ebp]
  00108	66 01 88 28 11
	00 00		 add	 WORD PTR [eax+4392], cx
  0010f	5e		 pop	 esi

; 2114 : 			break;
; 2115 : 	}
; 2116 : }

  00110	5d		 pop	 ebp
  00111	c3		 ret	 0
$LN13@gObjSetIte@2:

; 2075 : 			break;
; 2076 : 		case AT_SET_OPTION_IMPROVE_SKILLDAMAGE:
; 2077 : 			lpObj->SetOpAddSkillAttack += ivalue;

  00112	8b 45 08	 mov	 eax, DWORD PTR _lpObj$[ebp]
  00115	66 01 88 24 11
	00 00		 add	 WORD PTR [eax+4388], cx
  0011c	5e		 pop	 esi

; 2114 : 			break;
; 2115 : 	}
; 2116 : }

  0011d	5d		 pop	 ebp
  0011e	c3		 ret	 0
$LN12@gObjSetIte@2:

; 2078 : 			break;
; 2079 : 		case AT_SET_OPTION_IMPROVE_ATTACKDAMAGE_WITH_DEX:
; 2080 : 			lpObj->SetOpAddAttackDamage += ( lpObj->Dexterity + lpObj->AddDexterity ) / ivalue;

  0011f	8b 75 08	 mov	 esi, DWORD PTR _lpObj$[ebp]
  00122	0f b7 96 f6 00
	00 00		 movzx	 edx, WORD PTR [esi+246]
  00129	0f bf 86 22 01
	00 00		 movsx	 eax, WORD PTR [esi+290]
  00130	03 c2		 add	 eax, edx
  00132	99		 cdq
  00133	f7 f9		 idiv	 ecx
  00135	66 01 86 36 11
	00 00		 add	 WORD PTR [esi+4406], ax
  0013c	5e		 pop	 esi

; 2114 : 			break;
; 2115 : 	}
; 2116 : }

  0013d	5d		 pop	 ebp
  0013e	c3		 ret	 0
$LN11@gObjSetIte@2:

; 2081 : 			break;
; 2082 : 		case AT_SET_OPTION_IMPROVE_ATTACKDAMAGE_WITH_STR:
; 2083 : 			lpObj->SetOpAddAttackDamage += ( lpObj->Strength + lpObj->AddStrength ) / ivalue;

  0013f	8b 75 08	 mov	 esi, DWORD PTR _lpObj$[ebp]
  00142	0f b7 96 f4 00
	00 00		 movzx	 edx, WORD PTR [esi+244]
  00149	0f bf 86 20 01
	00 00		 movsx	 eax, WORD PTR [esi+288]
  00150	03 c2		 add	 eax, edx
  00152	99		 cdq
  00153	f7 f9		 idiv	 ecx
  00155	66 01 86 36 11
	00 00		 add	 WORD PTR [esi+4406], ax
  0015c	5e		 pop	 esi

; 2114 : 			break;
; 2115 : 	}
; 2116 : }

  0015d	5d		 pop	 ebp
  0015e	c3		 ret	 0
$LN10@gObjSetIte@2:

; 2084 : 			break;
; 2085 : 		case AT_SET_OPTION_IMPROVE_MAGICDAMAGE_WITH_ENERGY:
; 2086 : 			lpObj->SetOpAddMagicPower += ( lpObj->Energy + lpObj->AddEnergy ) / ivalue;

  0015f	8b 75 08	 mov	 esi, DWORD PTR _lpObj$[ebp]
  00162	0f b7 96 fa 00
	00 00		 movzx	 edx, WORD PTR [esi+250]
  00169	0f bf 86 26 01
	00 00		 movsx	 eax, WORD PTR [esi+294]
  00170	03 c2		 add	 eax, edx
  00172	99		 cdq
  00173	f7 f9		 idiv	 ecx
  00175	66 01 86 3c 11
	00 00		 add	 WORD PTR [esi+4412], ax
  0017c	5e		 pop	 esi

; 2114 : 			break;
; 2115 : 	}
; 2116 : }

  0017d	5d		 pop	 ebp
  0017e	c3		 ret	 0
$LN9@gObjSetIte@2:

; 2087 : 			break;
; 2088 : 		case AT_SET_OPTION_IMPROVE_DEFENCE_WITH_DEX:
; 2089 : 			lpObj->SetOpAddDefence += lpObj->Dexterity + ( lpObj->AddDexterity  / ivalue );

  0017f	8b 75 08	 mov	 esi, DWORD PTR _lpObj$[ebp]
  00182	0f bf 86 22 01
	00 00		 movsx	 eax, WORD PTR [esi+290]
  00189	99		 cdq
  0018a	f7 f9		 idiv	 ecx
  0018c	66 03 86 f6 00
	00 00		 add	 ax, WORD PTR [esi+246]
  00193	66 01 86 38 11
	00 00		 add	 WORD PTR [esi+4408], ax
  0019a	5e		 pop	 esi

; 2114 : 			break;
; 2115 : 	}
; 2116 : }

  0019b	5d		 pop	 ebp
  0019c	c3		 ret	 0
$LN8@gObjSetIte@2:

; 2090 : 			break;
; 2091 : 		case AT_SET_OPTION_IMPROVE_DEFENCE_WITH_VIT:
; 2092 : 			lpObj->SetOpAddDefence += ( lpObj->Vitality + lpObj->AddVitality ) / ivalue;

  0019d	8b 75 08	 mov	 esi, DWORD PTR _lpObj$[ebp]
  001a0	0f b7 96 f8 00
	00 00		 movzx	 edx, WORD PTR [esi+248]
  001a7	0f bf 86 24 01
	00 00		 movsx	 eax, WORD PTR [esi+292]
  001ae	03 c2		 add	 eax, edx
  001b0	99		 cdq
  001b1	f7 f9		 idiv	 ecx
  001b3	66 01 86 38 11
	00 00		 add	 WORD PTR [esi+4408], ax
  001ba	5e		 pop	 esi

; 2114 : 			break;
; 2115 : 	}
; 2116 : }

  001bb	5d		 pop	 ebp
  001bc	c3		 ret	 0
$LN7@gObjSetIte@2:

; 2093 : 			break;
; 2094 : 		case AT_SET_OPTION_FIRE_MASTERY:
; 2095 : 			lpObj->m_AddResistance[R_FIRE] += ivalue;

  001bd	8b 45 08	 mov	 eax, DWORD PTR _lpObj$[ebp]
  001c0	00 88 02 05 00
	00		 add	 BYTE PTR [eax+1282], cl
  001c6	5e		 pop	 esi

; 2114 : 			break;
; 2115 : 	}
; 2116 : }

  001c7	5d		 pop	 ebp
  001c8	c3		 ret	 0
$LN6@gObjSetIte@2:

; 2096 : 			break;
; 2097 : 		case AT_SET_OPTION_ICE_MASTERY:
; 2098 : 			lpObj->m_AddResistance[R_ICE] += ivalue;

  001c9	8b 45 08	 mov	 eax, DWORD PTR _lpObj$[ebp]
  001cc	00 88 ff 04 00
	00		 add	 BYTE PTR [eax+1279], cl
  001d2	5e		 pop	 esi

; 2114 : 			break;
; 2115 : 	}
; 2116 : }

  001d3	5d		 pop	 ebp
  001d4	c3		 ret	 0
$LN5@gObjSetIte@2:

; 2099 : 			break;
; 2100 : 		case AT_SET_OPTION_THUNDER_MASTERY:
; 2101 : 			lpObj->m_AddResistance[R_LIGHTNING] += ivalue;

  001d5	8b 45 08	 mov	 eax, DWORD PTR _lpObj$[ebp]
  001d8	00 88 01 05 00
	00		 add	 BYTE PTR [eax+1281], cl
  001de	5e		 pop	 esi

; 2114 : 			break;
; 2115 : 	}
; 2116 : }

  001df	5d		 pop	 ebp
  001e0	c3		 ret	 0
$LN4@gObjSetIte@2:

; 2102 : 			break;
; 2103 : 		case AT_SET_OPTION_POSION_MASTERY:
; 2104 : 			lpObj->m_AddResistance[R_POISON] += ivalue;

  001e1	8b 45 08	 mov	 eax, DWORD PTR _lpObj$[ebp]
  001e4	00 88 00 05 00
	00		 add	 BYTE PTR [eax+1280], cl
  001ea	5e		 pop	 esi

; 2114 : 			break;
; 2115 : 	}
; 2116 : }

  001eb	5d		 pop	 ebp
  001ec	c3		 ret	 0
$LN3@gObjSetIte@2:

; 2105 : 			break;
; 2106 : 		case AT_SET_OPTION_WATER_MASTERY:
; 2107 : 			lpObj->m_AddResistance[R_WATER] += ivalue;

  001ed	8b 45 08	 mov	 eax, DWORD PTR _lpObj$[ebp]
  001f0	00 88 05 05 00
	00		 add	 BYTE PTR [eax+1285], cl
  001f6	5e		 pop	 esi

; 2114 : 			break;
; 2115 : 	}
; 2116 : }

  001f7	5d		 pop	 ebp
  001f8	c3		 ret	 0
$LN2@gObjSetIte@2:

; 2108 : 			break;
; 2109 : 		case AT_SET_OPTION_WIND_MASTERY:
; 2110 : 			lpObj->m_AddResistance[R_WIND] += ivalue;

  001f9	8b 45 08	 mov	 eax, DWORD PTR _lpObj$[ebp]
  001fc	00 88 04 05 00
	00		 add	 BYTE PTR [eax+1284], cl
  00202	5e		 pop	 esi

; 2114 : 			break;
; 2115 : 	}
; 2116 : }

  00203	5d		 pop	 ebp
  00204	c3		 ret	 0
$LN1@gObjSetIte@2:

; 2111 : 			break;
; 2112 : 		case AT_SET_OPTION_EARTH_MASTERY:
; 2113 : 			lpObj->m_AddResistance[R_EARTH] += ivalue;

  00205	8b 45 08	 mov	 eax, DWORD PTR _lpObj$[ebp]
  00208	00 88 03 05 00
	00		 add	 BYTE PTR [eax+1283], cl
$LN38@gObjSetIte@2:
  0020e	5e		 pop	 esi
$LN32@gObjSetIte@2:

; 2114 : 			break;
; 2115 : 	}
; 2116 : }

  0020f	5d		 pop	 ebp
  00210	c3		 ret	 0
  00211	8d 49 00	 npad	 3
$LN39@gObjSetIte@2:
  00214	00 00 00 00	 DD	 $LN28@gObjSetIte@2
  00218	00 00 00 00	 DD	 $LN27@gObjSetIte@2
  0021c	00 00 00 00	 DD	 $LN26@gObjSetIte@2
  00220	00 00 00 00	 DD	 $LN25@gObjSetIte@2
  00224	00 00 00 00	 DD	 $LN24@gObjSetIte@2
  00228	00 00 00 00	 DD	 $LN23@gObjSetIte@2
  0022c	00 00 00 00	 DD	 $LN21@gObjSetIte@2
  00230	00 00 00 00	 DD	 $LN20@gObjSetIte@2
  00234	00 00 00 00	 DD	 $LN19@gObjSetIte@2
  00238	00 00 00 00	 DD	 $LN18@gObjSetIte@2
  0023c	00 00 00 00	 DD	 $LN16@gObjSetIte@2
  00240	00 00 00 00	 DD	 $LN17@gObjSetIte@2
  00244	00 00 00 00	 DD	 $LN14@gObjSetIte@2
  00248	00 00 00 00	 DD	 $LN15@gObjSetIte@2
  0024c	00 00 00 00	 DD	 $LN13@gObjSetIte@2
  00250	00 00 00 00	 DD	 $LN31@gObjSetIte@2
  00254	00 00 00 00	 DD	 $LN22@gObjSetIte@2
  00258	00 00 00 00	 DD	 $LN30@gObjSetIte@2
  0025c	00 00 00 00	 DD	 $LN29@gObjSetIte@2
  00260	00 00 00 00	 DD	 $LN11@gObjSetIte@2
  00264	00 00 00 00	 DD	 $LN12@gObjSetIte@2
  00268	00 00 00 00	 DD	 $LN9@gObjSetIte@2
  0026c	00 00 00 00	 DD	 $LN8@gObjSetIte@2
  00270	00 00 00 00	 DD	 $LN10@gObjSetIte@2
  00274	00 00 00 00	 DD	 $LN6@gObjSetIte@2
  00278	00 00 00 00	 DD	 $LN4@gObjSetIte@2
  0027c	00 00 00 00	 DD	 $LN5@gObjSetIte@2
  00280	00 00 00 00	 DD	 $LN7@gObjSetIte@2
  00284	00 00 00 00	 DD	 $LN1@gObjSetIte@2
  00288	00 00 00 00	 DD	 $LN2@gObjSetIte@2
  0028c	00 00 00 00	 DD	 $LN3@gObjSetIte@2
?gObjSetItemPlusSpecial@@YAXPAUOBJECTSTRUCT@@HH@Z ENDP	; gObjSetItemPlusSpecial
_TEXT	ENDS
PUBLIC	?gObjSetItemApply@@YAXPAUOBJECTSTRUCT@@@Z	; gObjSetItemApply
EXTRN	?GCManaSend@@YAXHHEEH@Z:PROC			; GCManaSend
EXTRN	?gObjSetBP@@YAXH@Z:PROC				; gObjSetBP
EXTRN	?GCReFillSend@@YAXHHEEH@Z:PROC			; GCReFillSend
EXTRN	?PlusSpecialSetRing@CItem@@QAEXPAE@Z:PROC	; CItem::PlusSpecialSetRing
EXTRN	?DCInfo@@3Vclassdef@@A:BYTE			; DCInfo
; Function compile flags: /Ogtp
;	COMDAT ?gObjSetItemApply@@YAXPAUOBJECTSTRUCT@@@Z
_TEXT	SEGMENT
tv615 = 8						; size = 4
tv611 = 8						; size = 4
tv583 = 8						; size = 4
tv563 = 8						; size = 4
_lpObj$ = 8						; size = 4
?gObjSetItemApply@@YAXPAUOBJECTSTRUCT@@@Z PROC		; gObjSetItemApply, COMDAT

; 2119 : {

  00000	55		 push	 ebp
  00001	8b ec		 mov	 ebp, esp
  00003	53		 push	 ebx
  00004	56		 push	 esi

; 2120 : 	lpObj->m_AttackDamageMinLeft += lpObj->SetOpAddAttackDamage;

  00005	8b 75 08	 mov	 esi, DWORD PTR _lpObj$[ebp]
  00008	0f bf 86 36 11
	00 00		 movsx	 eax, WORD PTR [esi+4406]

; 2121 : 	lpObj->m_AttackDamageMaxLeft += lpObj->SetOpAddAttackDamage;
; 2122 : 	lpObj->m_AttackDamageMinRight += lpObj->SetOpAddAttackDamage;
; 2123 : 	lpObj->m_AttackDamageMaxRight += lpObj->SetOpAddAttackDamage;
; 2124 : 
; 2125 : 	lpObj->m_AttackDamageMinLeft += lpObj->SetOpAddMinAttackDamage;

  0000f	0f bf 8e 32 11
	00 00		 movsx	 ecx, WORD PTR [esi+4402]

; 2126 : 	lpObj->m_AttackDamageMinRight += lpObj->SetOpAddMinAttackDamage;
; 2127 : 
; 2128 : 	lpObj->m_AttackDamageMaxLeft += lpObj->SetOpAddMaxAttackDamage;
; 2129 : 	lpObj->m_AttackDamageMaxRight += lpObj->SetOpAddMaxAttackDamage;
; 2130 : 
; 2131 : 	lpObj->m_MagicDamageMin += lpObj->m_MagicDamageMin * lpObj->SetOpAddMagicPower / 100;

  00016	8b 9e 68 04 00
	00		 mov	 ebx, DWORD PTR [esi+1128]
  0001c	8d 14 01	 lea	 edx, DWORD PTR [ecx+eax]
  0001f	01 96 7c 04 00
	00		 add	 DWORD PTR [esi+1148], edx
  00025	03 c8		 add	 ecx, eax
  00027	01 8e 84 04 00
	00		 add	 DWORD PTR [esi+1156], ecx
  0002d	0f bf 8e 34 11
	00 00		 movsx	 ecx, WORD PTR [esi+4404]
  00034	8d 14 01	 lea	 edx, DWORD PTR [ecx+eax]
  00037	01 96 78 04 00
	00		 add	 DWORD PTR [esi+1144], edx
  0003d	03 c8		 add	 ecx, eax
  0003f	01 8e 80 04 00
	00		 add	 DWORD PTR [esi+1152], ecx
  00045	57		 push	 edi
  00046	0f bf be 3c 11
	00 00		 movsx	 edi, WORD PTR [esi+4412]
  0004d	8b cb		 mov	 ecx, ebx
  0004f	0f af cf	 imul	 ecx, edi
  00052	b8 1f 85 eb 51	 mov	 eax, 1374389535		; 51eb851fH
  00057	f7 e9		 imul	 ecx
  00059	c1 fa 05	 sar	 edx, 5
  0005c	8b c2		 mov	 eax, edx
  0005e	c1 e8 1f	 shr	 eax, 31			; 0000001fH
  00061	03 c2		 add	 eax, edx
  00063	03 c3		 add	 eax, ebx

; 2132 : 	lpObj->m_MagicDamageMax += lpObj->m_MagicDamageMax * lpObj->SetOpAddMagicPower / 100;

  00065	8b 9e 6c 04 00
	00		 mov	 ebx, DWORD PTR [esi+1132]
  0006b	8b cb		 mov	 ecx, ebx
  0006d	0f af cf	 imul	 ecx, edi

; 2133 : 
; 2134 : 	lpObj->AddLife += INT(lpObj->AddVitality * DCInfo.DefClass[lpObj->Class].VitalityToLife);

  00070	0f b7 be b8 00
	00 00		 movzx	 edi, WORD PTR [esi+184]
  00077	89 86 68 04 00
	00		 mov	 DWORD PTR [esi+1128], eax
  0007d	69 ff c8 0b 00
	00		 imul	 edi, 3016		; 00000bc8H
  00083	b8 1f 85 eb 51	 mov	 eax, 1374389535		; 51eb851fH
  00088	f7 e9		 imul	 ecx
  0008a	c1 fa 05	 sar	 edx, 5
  0008d	8b ca		 mov	 ecx, edx
  0008f	c1 e9 1f	 shr	 ecx, 31			; 0000001fH
  00092	03 ca		 add	 ecx, edx
  00094	0f bf 96 24 01
	00 00		 movsx	 edx, WORD PTR [esi+292]
  0009b	03 cb		 add	 ecx, ebx
  0009d	89 8e 6c 04 00
	00		 mov	 DWORD PTR [esi+1132], ecx
  000a3	89 55 08	 mov	 DWORD PTR tv615[ebp], edx
  000a6	d9 87 28 00 00
	00		 fld	 DWORD PTR ?DCInfo@@3Vclassdef@@A[edi+40]
  000ac	db 45 08	 fild	 DWORD PTR tv615[ebp]
  000af	de c9		 fmulp	 ST(1), ST(0)
  000b1	e8 00 00 00 00	 call	 __ftol2_sse
  000b6	01 86 4c 01 00
	00		 add	 DWORD PTR [esi+332], eax

; 2135 : 	lpObj->AddMana += INT(lpObj->AddEnergy * DCInfo.DefClass[lpObj->Class].EnergyToMana);

  000bc	d9 87 2c 00 00
	00		 fld	 DWORD PTR ?DCInfo@@3Vclassdef@@A[edi+44]
  000c2	0f bf 86 26 01
	00 00		 movsx	 eax, WORD PTR [esi+294]
  000c9	89 45 08	 mov	 DWORD PTR tv611[ebp], eax
  000cc	db 45 08	 fild	 DWORD PTR tv611[ebp]
  000cf	de c9		 fmulp	 ST(1), ST(0)
  000d1	e8 00 00 00 00	 call	 __ftol2_sse

; 2136 : 
; 2137 : 	lpObj->m_CriticalDamage += lpObj->SetOpAddCriticalDamageSuccessRate;

  000d6	0f bf 8e 2c 11
	00 00		 movsx	 ecx, WORD PTR [esi+4396]
  000dd	01 8e bc 04 00
	00		 add	 DWORD PTR [esi+1212], ecx

; 2138 : 	lpObj->m_ExcelentDamage += lpObj->SetOpAddExDamageSuccessRate;

  000e3	0f bf 96 28 11
	00 00		 movsx	 edx, WORD PTR [esi+4392]

; 2139 : 
; 2140 : 	if ( lpObj->pInventory[10].IsSetItem() )

  000ea	8b 8e 24 0e 00
	00		 mov	 ecx, DWORD PTR [esi+3620]
  000f0	01 86 50 01 00
	00		 add	 DWORD PTR [esi+336], eax
  000f6	01 96 c0 04 00
	00		 add	 DWORD PTR [esi+1216], edx
  000fc	81 c1 48 08 00
	00		 add	 ecx, 2120		; 00000848H
  00102	e8 00 00 00 00	 call	 ?IsSetItem@CItem@@QAEHXZ ; CItem::IsSetItem
  00107	85 c0		 test	 eax, eax
  00109	74 18		 je	 SHORT $LN11@gObjSetIte@3

; 2141 : 	{
; 2142 : 		lpObj->pInventory[10].PlusSpecialSetRing((LPBYTE)lpObj->m_AddResistance);

  0010b	8b 8e 24 0e 00
	00		 mov	 ecx, DWORD PTR [esi+3620]
  00111	8d 86 ff 04 00
	00		 lea	 eax, DWORD PTR [esi+1279]
  00117	50		 push	 eax
  00118	81 c1 48 08 00
	00		 add	 ecx, 2120		; 00000848H
  0011e	e8 00 00 00 00	 call	 ?PlusSpecialSetRing@CItem@@QAEXPAE@Z ; CItem::PlusSpecialSetRing
$LN11@gObjSetIte@3:

; 2143 : 	}
; 2144 : 
; 2145 : 	if ( lpObj->pInventory[11].IsSetItem() )

  00123	8b 8e 24 0e 00
	00		 mov	 ecx, DWORD PTR [esi+3620]
  00129	81 c1 1c 09 00
	00		 add	 ecx, 2332		; 0000091cH
  0012f	e8 00 00 00 00	 call	 ?IsSetItem@CItem@@QAEHXZ ; CItem::IsSetItem
  00134	85 c0		 test	 eax, eax
  00136	74 18		 je	 SHORT $LN10@gObjSetIte@3

; 2146 : 	{
; 2147 : 		lpObj->pInventory[11].PlusSpecialSetRing((LPBYTE)lpObj->m_AddResistance);

  00138	8d 8e ff 04 00
	00		 lea	 ecx, DWORD PTR [esi+1279]
  0013e	51		 push	 ecx
  0013f	8b 8e 24 0e 00
	00		 mov	 ecx, DWORD PTR [esi+3620]
  00145	81 c1 1c 09 00
	00		 add	 ecx, 2332		; 0000091cH
  0014b	e8 00 00 00 00	 call	 ?PlusSpecialSetRing@CItem@@QAEXPAE@Z ; CItem::PlusSpecialSetRing
$LN10@gObjSetIte@3:

; 2148 : 	}
; 2149 : 
; 2150 : 	if ( lpObj->pInventory[9].IsSetItem() )

  00150	8b 8e 24 0e 00
	00		 mov	 ecx, DWORD PTR [esi+3620]
  00156	81 c1 74 07 00
	00		 add	 ecx, 1908		; 00000774H
  0015c	e8 00 00 00 00	 call	 ?IsSetItem@CItem@@QAEHXZ ; CItem::IsSetItem
  00161	85 c0		 test	 eax, eax
  00163	74 18		 je	 SHORT $LN9@gObjSetIte@3

; 2151 : 	{
; 2152 : 		lpObj->pInventory[9].PlusSpecialSetRing((LPBYTE)lpObj->m_AddResistance);

  00165	8b 8e 24 0e 00
	00		 mov	 ecx, DWORD PTR [esi+3620]
  0016b	8d 96 ff 04 00
	00		 lea	 edx, DWORD PTR [esi+1279]
  00171	52		 push	 edx
  00172	81 c1 74 07 00
	00		 add	 ecx, 1908		; 00000774H
  00178	e8 00 00 00 00	 call	 ?PlusSpecialSetRing@CItem@@QAEXPAE@Z ; CItem::PlusSpecialSetRing
$LN9@gObjSetIte@3:

; 2153 : 	}
; 2154 : 
; 2155 : 	if ( lpObj->SetOpTwoHandSwordImproveDamage )

  0017d	33 db		 xor	 ebx, ebx
  0017f	38 9e 40 11 00
	00		 cmp	 BYTE PTR [esi+4416], bl
  00185	74 73		 je	 SHORT $LN5@gObjSetIte@3

; 2156 : 	{
; 2157 : 		if ( !lpObj->pInventory[1].IsItem() && !lpObj->pInventory[0].IsItem() )

  00187	8b 8e 24 0e 00
	00		 mov	 ecx, DWORD PTR [esi+3620]
  0018d	81 c1 d4 00 00
	00		 add	 ecx, 212		; 000000d4H
  00193	e8 00 00 00 00	 call	 ?IsItem@CItem@@QAEHXZ	; CItem::IsItem
  00198	85 c0		 test	 eax, eax
  0019a	75 15		 jne	 SHORT $LN7@gObjSetIte@3
  0019c	8b 8e 24 0e 00
	00		 mov	 ecx, DWORD PTR [esi+3620]
  001a2	e8 00 00 00 00	 call	 ?IsItem@CItem@@QAEHXZ	; CItem::IsItem
  001a7	85 c0		 test	 eax, eax
  001a9	75 06		 jne	 SHORT $LN7@gObjSetIte@3

; 2158 : 		{
; 2159 : 			lpObj->SetOpTwoHandSwordImproveDamage = 0;

  001ab	88 9e 40 11 00
	00		 mov	 BYTE PTR [esi+4416], bl
$LN7@gObjSetIte@3:

; 2160 : 		}
; 2161 : 
; 2162 : 		if ( lpObj->pInventory[1].IsItem() && lpObj->pInventory[1].m_TwoHand == FALSE )

  001b1	8b 8e 24 0e 00
	00		 mov	 ecx, DWORD PTR [esi+3620]
  001b7	81 c1 d4 00 00
	00		 add	 ecx, 212		; 000000d4H
  001bd	e8 00 00 00 00	 call	 ?IsItem@CItem@@QAEHXZ	; CItem::IsItem
  001c2	85 c0		 test	 eax, eax
  001c4	74 14		 je	 SHORT $LN6@gObjSetIte@3
  001c6	8b 86 24 0e 00
	00		 mov	 eax, DWORD PTR [esi+3620]
  001cc	38 98 e0 00 00
	00		 cmp	 BYTE PTR [eax+224], bl
  001d2	75 06		 jne	 SHORT $LN6@gObjSetIte@3

; 2163 : 		{
; 2164 : 			lpObj->SetOpTwoHandSwordImproveDamage = 0;

  001d4	88 9e 40 11 00
	00		 mov	 BYTE PTR [esi+4416], bl
$LN6@gObjSetIte@3:

; 2165 : 		}
; 2166 : 
; 2167 : 		if ( lpObj->pInventory[0].IsItem() && lpObj->pInventory[0].m_TwoHand == FALSE )

  001da	8b 8e 24 0e 00
	00		 mov	 ecx, DWORD PTR [esi+3620]
  001e0	e8 00 00 00 00	 call	 ?IsItem@CItem@@QAEHXZ	; CItem::IsItem
  001e5	85 c0		 test	 eax, eax
  001e7	74 11		 je	 SHORT $LN5@gObjSetIte@3
  001e9	8b 8e 24 0e 00
	00		 mov	 ecx, DWORD PTR [esi+3620]
  001ef	38 59 0c	 cmp	 BYTE PTR [ecx+12], bl
  001f2	75 06		 jne	 SHORT $LN5@gObjSetIte@3

; 2168 : 		{
; 2169 : 			lpObj->SetOpTwoHandSwordImproveDamage = 0;

  001f4	88 9e 40 11 00
	00		 mov	 BYTE PTR [esi+4416], bl
$LN5@gObjSetIte@3:

; 2170 : 		}
; 2171 : 	}
; 2172 : 
; 2173 : 	if(lpObj->MLInfoLoad == 1 && lpObj->ChangeUP3rd == 0) //season4.5 add-on

  001fa	83 be ec 00 00
	00 01		 cmp	 DWORD PTR [esi+236], 1
  00201	75 51		 jne	 SHORT $LN3@gObjSetIte@3
  00203	38 9e bc 00 00
	00		 cmp	 BYTE PTR [esi+188], bl
  00209	75 49		 jne	 SHORT $LN3@gObjSetIte@3

; 2174 : 	{
; 2175 : 		if ( (lpObj->MaxLife + lpObj->AddLife ) < lpObj->Life )

  0020b	d9 86 00 01 00
	00		 fld	 DWORD PTR [esi+256]
  00211	da 86 4c 01 00
	00		 fiadd	 DWORD PTR [esi+332]
  00217	d9 86 fc 00 00
	00		 fld	 DWORD PTR [esi+252]
  0021d	d8 d9		 fcomp	 ST(1)
  0021f	df e0		 fnstsw	 ax
  00221	f6 c4 41	 test	 ah, 65			; 00000041H
  00224	75 2c		 jne	 SHORT $LN15@gObjSetIte@3

; 2176 : 		{
; 2177 : 			lpObj->Life = lpObj->MaxLife + lpObj->AddLife;
; 2178 : 			GCReFillSend(lpObj->m_Index, lpObj->Life, 0xFF, 0, lpObj->iShield);

  00226	8b 96 54 01 00
	00		 mov	 edx, DWORD PTR [esi+340]
  0022c	d9 5d 08	 fstp	 DWORD PTR tv563[ebp]
  0022f	d9 45 08	 fld	 DWORD PTR tv563[ebp]
  00232	52		 push	 edx
  00233	53		 push	 ebx
  00234	d9 96 fc 00 00
	00		 fst	 DWORD PTR [esi+252]
  0023a	68 ff 00 00 00	 push	 255			; 000000ffH
  0023f	e8 00 00 00 00	 call	 __ftol2_sse
  00244	50		 push	 eax
  00245	8b 06		 mov	 eax, DWORD PTR [esi]
  00247	50		 push	 eax
  00248	e8 00 00 00 00	 call	 ?GCReFillSend@@YAXHHEEH@Z ; GCReFillSend
  0024d	83 c4 14	 add	 esp, 20			; 00000014H
  00250	eb 02		 jmp	 SHORT $LN3@gObjSetIte@3
$LN15@gObjSetIte@3:
  00252	dd d8		 fstp	 ST(0)
$LN3@gObjSetIte@3:

; 2179 : 		}
; 2180 : 	}
; 2181 : 
; 2182 : 	gObjSetBP(lpObj->m_Index);

  00254	8b 0e		 mov	 ecx, DWORD PTR [esi]
  00256	51		 push	 ecx
  00257	e8 00 00 00 00	 call	 ?gObjSetBP@@YAXH@Z	; gObjSetBP

; 2183 : 
; 2184 : 	if ( (lpObj->MaxMana + lpObj->AddMana ) < lpObj->Mana )

  0025c	d9 86 14 01 00
	00		 fld	 DWORD PTR [esi+276]
  00262	da 86 50 01 00
	00		 fiadd	 DWORD PTR [esi+336]
  00268	83 c4 04	 add	 esp, 4
  0026b	d9 86 10 01 00
	00		 fld	 DWORD PTR [esi+272]
  00271	d8 d9		 fcomp	 ST(1)
  00273	df e0		 fnstsw	 ax
  00275	f6 c4 41	 test	 ah, 65			; 00000041H
  00278	75 2c		 jne	 SHORT $LN18@gObjSetIte@3

; 2185 : 	{
; 2186 : 		lpObj->Mana = lpObj->MaxMana + lpObj->AddMana;
; 2187 : 		GCManaSend(lpObj->m_Index, lpObj->Mana, 0xFF, 0, lpObj->BP);

  0027a	8b 96 28 01 00
	00		 mov	 edx, DWORD PTR [esi+296]
  00280	d9 5d 08	 fstp	 DWORD PTR tv583[ebp]
  00283	d9 45 08	 fld	 DWORD PTR tv583[ebp]
  00286	52		 push	 edx
  00287	53		 push	 ebx
  00288	d9 96 10 01 00
	00		 fst	 DWORD PTR [esi+272]
  0028e	68 ff 00 00 00	 push	 255			; 000000ffH
  00293	e8 00 00 00 00	 call	 __ftol2_sse
  00298	50		 push	 eax
  00299	8b 06		 mov	 eax, DWORD PTR [esi]
  0029b	50		 push	 eax
  0029c	e8 00 00 00 00	 call	 ?GCManaSend@@YAXHHEEH@Z	; GCManaSend
  002a1	83 c4 14	 add	 esp, 20			; 00000014H
  002a4	eb 02		 jmp	 SHORT $LN2@gObjSetIte@3
$LN18@gObjSetIte@3:
  002a6	dd d8		 fstp	 ST(0)
$LN2@gObjSetIte@3:

; 2188 : 	}
; 2189 : 
; 2190 : 	lpObj->m_Defense += lpObj->SetOpAddDefence * 10 / 20;

  002a8	0f bf 86 38 11
	00 00		 movsx	 eax, WORD PTR [esi+4408]
  002af	8d 0c 80	 lea	 ecx, DWORD PTR [eax+eax*4]
  002b2	03 c9		 add	 ecx, ecx
  002b4	b8 67 66 66 66	 mov	 eax, 1717986919		; 66666667H
  002b9	f7 e9		 imul	 ecx

; 2191 : 	lpObj->m_Defense += lpObj->m_Defense * lpObj->SetOpAddDefenceRate / 100;

  002bb	0f bf 8e 3a 11
	00 00		 movsx	 ecx, WORD PTR [esi+4410]
  002c2	c1 fa 03	 sar	 edx, 3
  002c5	8b fa		 mov	 edi, edx
  002c7	c1 ef 1f	 shr	 edi, 31			; 0000001fH
  002ca	03 fa		 add	 edi, edx
  002cc	03 be 94 04 00
	00		 add	 edi, DWORD PTR [esi+1172]
  002d2	b8 1f 85 eb 51	 mov	 eax, 1374389535		; 51eb851fH
  002d7	0f af cf	 imul	 ecx, edi
  002da	f7 e9		 imul	 ecx
  002dc	c1 fa 05	 sar	 edx, 5
  002df	8b ca		 mov	 ecx, edx
  002e1	c1 e9 1f	 shr	 ecx, 31			; 0000001fH
  002e4	03 ca		 add	 ecx, edx

; 2192 : 
; 2193 : 	if ( lpObj->pInventory[1].m_Type >= ITEMGET(6,0) && lpObj->pInventory[1].m_Type < ITEMGET(7,0) )

  002e6	8b 96 24 0e 00
	00		 mov	 edx, DWORD PTR [esi+3620]
  002ec	03 cf		 add	 ecx, edi
  002ee	89 8e 94 04 00
	00		 mov	 DWORD PTR [esi+1172], ecx
  002f4	0f b7 82 da 00
	00 00		 movzx	 eax, WORD PTR [edx+218]
  002fb	ba 00 0c 00 00	 mov	 edx, 3072		; 00000c00H
  00300	66 3b c2	 cmp	 ax, dx
  00303	7c 2d		 jl	 SHORT $LN1@gObjSetIte@3
  00305	ba 00 0e 00 00	 mov	 edx, 3584		; 00000e00H
  0030a	66 3b c2	 cmp	 ax, dx
  0030d	7d 23		 jge	 SHORT $LN1@gObjSetIte@3

; 2194 : 	{
; 2195 : 		lpObj->m_Defense += lpObj->m_Defense * lpObj->SetOpImproveSheldDefence / 100;

  0030f	0f b6 96 43 11
	00 00		 movzx	 edx, BYTE PTR [esi+4419]
  00316	0f af d1	 imul	 edx, ecx
  00319	b8 1f 85 eb 51	 mov	 eax, 1374389535		; 51eb851fH
  0031e	f7 ea		 imul	 edx
  00320	c1 fa 05	 sar	 edx, 5
  00323	8b c2		 mov	 eax, edx
  00325	c1 e8 1f	 shr	 eax, 31			; 0000001fH
  00328	03 c2		 add	 eax, edx
  0032a	03 c1		 add	 eax, ecx
  0032c	89 86 94 04 00
	00		 mov	 DWORD PTR [esi+1172], eax
$LN1@gObjSetIte@3:
  00332	5f		 pop	 edi
  00333	5e		 pop	 esi
  00334	5b		 pop	 ebx

; 2196 : 	}
; 2197 : 
; 2198 : 	//season4 removed... Why? :|
; 2199 : 	//lpObj->m_Defense += lpObj->m_MLPassiveSkill.m_iML_DefenseIncrease; //season3 add-on
; 2200 : }

  00335	5d		 pop	 ebp
  00336	c3		 ret	 0
?gObjSetItemApply@@YAXPAUOBJECTSTRUCT@@@Z ENDP		; gObjSetItemApply
_TEXT	ENDS
PUBLIC	?gObjValidItem@@YAHPAUOBJECTSTRUCT@@PAVCItem@@H@Z ; gObjValidItem
EXTRN	?ItemAttribute@@3PAUITEM_ATTRIBUTE@@A:BYTE	; ItemAttribute
; Function compile flags: /Ogtp
;	COMDAT ?gObjValidItem@@YAHPAUOBJECTSTRUCT@@PAVCItem@@H@Z
_TEXT	SEGMENT
_lpObj$ = 8						; size = 4
_lpItem$ = 12						; size = 4
_pos$ = 16						; size = 4
?gObjValidItem@@YAHPAUOBJECTSTRUCT@@PAVCItem@@H@Z PROC	; gObjValidItem, COMDAT

; 2203 : {

  00000	55		 push	 ebp
  00001	8b ec		 mov	 ebp, esp

; 2204 : 	LPITEM_ATTRIBUTE p = &ItemAttribute[lpItem->m_Type];

  00003	8b 55 0c	 mov	 edx, DWORD PTR _lpItem$[ebp]
  00006	0f b7 42 06	 movzx	 eax, WORD PTR [edx+6]

; 2205 : 	
; 2206 : 	if ( p->RequireStrength != 0 )

  0000a	8b 4d 08	 mov	 ecx, DWORD PTR _lpObj$[ebp]
  0000d	98		 cwde
  0000e	6b c0 70	 imul	 eax, 112		; 00000070H
  00011	53		 push	 ebx
  00012	05 00 00 00 00	 add	 eax, OFFSET ?ItemAttribute@@3PAUITEM_ATTRIBUTE@@A ; ItemAttribute
  00017	66 83 78 34 00	 cmp	 WORD PTR [eax+52], 0
  0001c	56		 push	 esi
  0001d	57		 push	 edi
  0001e	74 28		 je	 SHORT $LN18@gObjValidI

; 2207 : 	{
; 2208 : 		if ( (lpObj->Strength + lpObj->AddStrength) < ( lpItem->m_RequireStrength - lpItem->m_HJOpStrength ) )

  00020	0f b7 b9 f4 00
	00 00		 movzx	 edi, WORD PTR [ecx+244]
  00027	0f bf b1 20 01
	00 00		 movsx	 esi, WORD PTR [ecx+288]
  0002e	0f b7 5a 4a	 movzx	 ebx, WORD PTR [edx+74]
  00032	03 f7		 add	 esi, edi
  00034	0f b7 ba c6 00
	00 00		 movzx	 edi, WORD PTR [edx+198]
  0003b	2b df		 sub	 ebx, edi
  0003d	3b f3		 cmp	 esi, ebx
  0003f	7d 07		 jge	 SHORT $LN18@gObjValidI
$LN22@gObjValidI:
  00041	5f		 pop	 edi
  00042	5e		 pop	 esi

; 2209 : 		{
; 2210 : 			return FALSE;

  00043	33 c0		 xor	 eax, eax
  00045	5b		 pop	 ebx

; 2267 : }

  00046	5d		 pop	 ebp
  00047	c3		 ret	 0
$LN18@gObjValidI:

; 2211 : 		}
; 2212 : 	}
; 2213 : 
; 2214 : 	if ( p->RequireDexterity != 0 )

  00048	66 83 78 36 00	 cmp	 WORD PTR [eax+54], 0
  0004d	74 21		 je	 SHORT $LN19@gObjValidI

; 2215 : 	{
; 2216 : 		if ( (lpObj->Dexterity + lpObj->AddDexterity) < ( lpItem->m_RequireDexterity - lpItem->m_HJOpDexterity ) )

  0004f	0f b7 b9 f6 00
	00 00		 movzx	 edi, WORD PTR [ecx+246]
  00056	0f bf b1 22 01
	00 00		 movsx	 esi, WORD PTR [ecx+290]
  0005d	0f b7 5a 4c	 movzx	 ebx, WORD PTR [edx+76]
  00061	03 f7		 add	 esi, edi
  00063	0f b7 ba c8 00
	00 00		 movzx	 edi, WORD PTR [edx+200]
  0006a	2b df		 sub	 ebx, edi
  0006c	3b f3		 cmp	 esi, ebx

; 2217 : 		{
; 2218 : 			return FALSE;

  0006e	7c d1		 jl	 SHORT $LN22@gObjValidI
$LN19@gObjValidI:

; 2219 : 		}
; 2220 : 	}
; 2221 : 
; 2222 : 
; 2223 : 	if ( p->RequireEnergy != 0 )

  00070	66 83 78 38 00	 cmp	 WORD PTR [eax+56], 0
  00075	74 18		 je	 SHORT $LN10@gObjValidI

; 2224 : 	{
; 2225 : 		if ( (lpObj->Energy + lpObj->AddEnergy) < lpItem->m_RequireEnergy )

  00077	0f b7 b9 fa 00
	00 00		 movzx	 edi, WORD PTR [ecx+250]
  0007e	0f bf b1 26 01
	00 00		 movsx	 esi, WORD PTR [ecx+294]
  00085	03 f7		 add	 esi, edi
  00087	0f b7 7a 4e	 movzx	 edi, WORD PTR [edx+78]
  0008b	3b f7		 cmp	 esi, edi

; 2226 : 		{
; 2227 : 			return FALSE;

  0008d	7c b2		 jl	 SHORT $LN22@gObjValidI
$LN10@gObjValidI:

; 2228 : 		}
; 2229 : 	}
; 2230 : 
; 2231 : 	if ( p->RequireLeadership != 0 )

  0008f	8b 78 6c	 mov	 edi, DWORD PTR [eax+108]
  00092	85 ff		 test	 edi, edi
  00094	74 18		 je	 SHORT $LN20@gObjValidI

; 2232 : 	{
; 2233 : 		if ( (lpObj->Leadership + lpObj->AddLeadership ) < lpItem->m_RequireLeaderShip )

  00096	0f b7 99 18 01
	00 00		 movzx	 ebx, WORD PTR [ecx+280]
  0009d	0f b7 b1 1a 01
	00 00		 movzx	 esi, WORD PTR [ecx+282]
  000a4	03 f3		 add	 esi, ebx
  000a6	0f b7 5a 54	 movzx	 ebx, WORD PTR [edx+84]
  000aa	3b f3		 cmp	 esi, ebx

; 2234 : 		{
; 2235 : 			return FALSE;

  000ac	7c 93		 jl	 SHORT $LN22@gObjValidI
$LN20@gObjValidI:

; 2236 : 		}
; 2237 : 	}
; 2238 : 
; 2239 : 	if ( p->RequireLevel != 0 )

  000ae	66 83 78 3a 00	 cmp	 WORD PTR [eax+58], 0
  000b3	74 13		 je	 SHORT $LN21@gObjValidI

; 2240 : 	{
; 2241 : 		if ( (lpObj->Level) < lpItem->m_RequireLevel )

  000b5	0f bf b1 be 00
	00 00		 movsx	 esi, WORD PTR [ecx+190]
  000bc	0f b7 5a 50	 movzx	 ebx, WORD PTR [edx+80]
  000c0	3b f3		 cmp	 esi, ebx

; 2242 : 		{
; 2243 : 			return FALSE;

  000c2	0f 8c 79 ff ff
	ff		 jl	 $LN22@gObjValidI
$LN21@gObjValidI:

; 2244 : 		}
; 2245 : 	}
; 2246 : 
; 2247 : 	if ( lpItem->m_Type >= ITEMGET(0,0) && lpItem->m_Type <= ITEMGET(11, 0) )

  000c8	0f b7 72 06	 movzx	 esi, WORD PTR [edx+6]
  000cc	66 85 f6	 test	 si, si
  000cf	78 4d		 js	 SHORT $LN1@gObjValidI
  000d1	bb 00 16 00 00	 mov	 ebx, 5632		; 00001600H
  000d6	66 3b f3	 cmp	 si, bx
  000d9	7f 43		 jg	 SHORT $LN1@gObjValidI

; 2248 : 	{
; 2249 : 		if ( p->RequireVitality )

  000db	66 83 78 4c 00	 cmp	 WORD PTR [eax+76], 0
  000e0	74 1c		 je	 SHORT $LN3@gObjValidI

; 2250 : 		{
; 2251 : 			if ( (lpObj->Vitality + lpObj->AddVitality ) < lpItem->m_RequireVitality )

  000e2	0f b7 b1 f8 00
	00 00		 movzx	 esi, WORD PTR [ecx+248]
  000e9	0f bf 81 24 01
	00 00		 movsx	 eax, WORD PTR [ecx+292]
  000f0	03 c6		 add	 eax, esi
  000f2	0f b7 72 52	 movzx	 esi, WORD PTR [edx+82]
  000f6	3b c6		 cmp	 eax, esi

; 2252 : 			{
; 2253 : 				return FALSE;

  000f8	0f 8c 43 ff ff
	ff		 jl	 $LN22@gObjValidI
$LN3@gObjValidI:

; 2254 : 			}
; 2255 : 		}
; 2256 : 
; 2257 : 		if ( p->RequireLeadership )

  000fe	85 ff		 test	 edi, edi
  00100	74 1c		 je	 SHORT $LN1@gObjValidI

; 2258 : 		{
; 2259 : 			if ( (lpObj->Leadership + lpObj->AddLeadership ) < lpItem->m_RequireLeaderShip )

  00102	0f b7 81 1a 01
	00 00		 movzx	 eax, WORD PTR [ecx+282]
  00109	0f b7 89 18 01
	00 00		 movzx	 ecx, WORD PTR [ecx+280]
  00110	0f b7 52 54	 movzx	 edx, WORD PTR [edx+84]
  00114	03 c1		 add	 eax, ecx
  00116	3b c2		 cmp	 eax, edx

; 2260 : 			{
; 2261 : 				return FALSE;

  00118	0f 8c 23 ff ff
	ff		 jl	 $LN22@gObjValidI
$LN1@gObjValidI:
  0011e	5f		 pop	 edi
  0011f	5e		 pop	 esi

; 2262 : 			}
; 2263 : 		}
; 2264 : 	}
; 2265 : 
; 2266 : 	return TRUE;

  00120	b8 01 00 00 00	 mov	 eax, 1
  00125	5b		 pop	 ebx

; 2267 : }

  00126	5d		 pop	 ebp
  00127	c3		 ret	 0
?gObjValidItem@@YAHPAUOBJECTSTRUCT@@PAVCItem@@H@Z ENDP	; gObjValidItem
_TEXT	ENDS
PUBLIC	?gObjCalcShieldPoint@@YAXPAUOBJECTSTRUCT@@@Z	; gObjCalcShieldPoint
EXTRN	?g_iShieldGageConstA@@3HA:DWORD			; g_iShieldGageConstA
EXTRN	?g_iShieldGageConstB@@3HA:DWORD			; g_iShieldGageConstB
; Function compile flags: /Ogtp
;	COMDAT ?gObjCalcShieldPoint@@YAXPAUOBJECTSTRUCT@@@Z
_TEXT	SEGMENT
_lpObj$ = 8						; size = 4
?gObjCalcShieldPoint@@YAXPAUOBJECTSTRUCT@@@Z PROC	; gObjCalcShieldPoint, COMDAT

; 2270 : {

  00000	55		 push	 ebp
  00001	8b ec		 mov	 ebp, esp

; 2271 : 	int iMaxShieldPoint = 0;
; 2272 : 	int iExpressionA;
; 2273 : 	int iExpressionB;
; 2274 : 	int iBaseLevel;
; 2275 : 
; 2276 : 	iExpressionA = ( lpObj->Strength + lpObj->AddStrength ) + ( lpObj->Dexterity + lpObj->AddDexterity ) + ( lpObj->Vitality + lpObj->AddVitality ) + (lpObj->Energy + lpObj->AddEnergy );

  00003	8b 4d 08	 mov	 ecx, DWORD PTR _lpObj$[ebp]
  00006	0f bf 81 24 01
	00 00		 movsx	 eax, WORD PTR [ecx+292]
  0000d	0f bf 91 22 01
	00 00		 movsx	 edx, WORD PTR [ecx+290]
  00014	56		 push	 esi
  00015	0f bf b1 26 01
	00 00		 movsx	 esi, WORD PTR [ecx+294]
  0001c	03 f0		 add	 esi, eax
  0001e	0f bf 81 20 01
	00 00		 movsx	 eax, WORD PTR [ecx+288]
  00025	03 f2		 add	 esi, edx
  00027	0f b7 91 fa 00
	00 00		 movzx	 edx, WORD PTR [ecx+250]
  0002e	03 f0		 add	 esi, eax
  00030	0f b7 81 f8 00
	00 00		 movzx	 eax, WORD PTR [ecx+248]
  00037	03 f2		 add	 esi, edx
  00039	0f b7 91 f6 00
	00 00		 movzx	 edx, WORD PTR [ecx+246]
  00040	03 f0		 add	 esi, eax
  00042	0f b7 81 f4 00
	00 00		 movzx	 eax, WORD PTR [ecx+244]
  00049	03 f2		 add	 esi, edx
  0004b	03 f0		 add	 esi, eax

; 2277 : 
; 2278 : 	if ( lpObj->Class == CLASS_DARKLORD )

  0004d	66 83 b9 b8 00
	00 00 04	 cmp	 WORD PTR [ecx+184], 4
  00055	57		 push	 edi
  00056	75 12		 jne	 SHORT $LN3@gObjCalcSh

; 2279 : 	{
; 2280 : 		iExpressionA += lpObj->Leadership + lpObj->AddLeadership;

  00058	0f b7 81 18 01
	00 00		 movzx	 eax, WORD PTR [ecx+280]
  0005f	0f b7 91 1a 01
	00 00		 movzx	 edx, WORD PTR [ecx+282]
  00066	03 f0		 add	 esi, eax
  00068	03 f2		 add	 esi, edx
$LN3@gObjCalcSh:

; 2281 : 	}
; 2282 : 
; 2283 : 	if ( g_iShieldGageConstB == 0 )

  0006a	8b 3d 00 00 00
	00		 mov	 edi, DWORD PTR ?g_iShieldGageConstB@@3HA ; g_iShieldGageConstB
  00070	85 ff		 test	 edi, edi
  00072	75 0b		 jne	 SHORT $LN2@gObjCalcSh

; 2284 : 	{
; 2285 : 		g_iShieldGageConstB = 30;

  00074	bf 1e 00 00 00	 mov	 edi, 30			; 0000001eH
  00079	89 3d 00 00 00
	00		 mov	 DWORD PTR ?g_iShieldGageConstB@@3HA, edi ; g_iShieldGageConstB
$LN2@gObjCalcSh:

; 2286 : 	}
; 2287 : 
; 2288 : 	iBaseLevel = lpObj->Level + lpObj->MLevel;

  0007f	0f bf 91 be 00
	00 00		 movsx	 edx, WORD PTR [ecx+190]
  00086	0f bf 81 d0 00
	00 00		 movsx	 eax, WORD PTR [ecx+208]
  0008d	03 c2		 add	 eax, edx

; 2289 : 
; 2290 : 	iExpressionB = ( iBaseLevel * iBaseLevel) / g_iShieldGageConstB;

  0008f	0f af c0	 imul	 eax, eax
  00092	99		 cdq
  00093	f7 ff		 idiv	 edi
  00095	8b f8		 mov	 edi, eax

; 2291 : 
; 2292 : 	if ( g_iShieldGageConstA == 0 )

  00097	a1 00 00 00 00	 mov	 eax, DWORD PTR ?g_iShieldGageConstA@@3HA ; g_iShieldGageConstA
  0009c	85 c0		 test	 eax, eax
  0009e	75 0a		 jne	 SHORT $LN1@gObjCalcSh

; 2293 : 	{
; 2294 : 		g_iShieldGageConstA = 12;

  000a0	b8 0c 00 00 00	 mov	 eax, 12			; 0000000cH
  000a5	a3 00 00 00 00	 mov	 DWORD PTR ?g_iShieldGageConstA@@3HA, eax ; g_iShieldGageConstA
$LN1@gObjCalcSh:

; 2295 : 	}
; 2296 : 
; 2297 : 	iMaxShieldPoint = ( iExpressionA * g_iShieldGageConstA ) / 10 + iExpressionB  + lpObj->m_Defense;

  000aa	0f af c6	 imul	 eax, esi
  000ad	8b d0		 mov	 edx, eax
  000af	b8 67 66 66 66	 mov	 eax, 1717986919		; 66666667H
  000b4	f7 ea		 imul	 edx
  000b6	c1 fa 02	 sar	 edx, 2
  000b9	8b c2		 mov	 eax, edx
  000bb	c1 e8 1f	 shr	 eax, 31			; 0000001fH
  000be	03 c2		 add	 eax, edx
  000c0	03 81 94 04 00
	00		 add	 eax, DWORD PTR [ecx+1172]
  000c6	03 c7		 add	 eax, edi
  000c8	5f		 pop	 edi

; 2298 : 	lpObj->iMaxShield = iMaxShieldPoint;

  000c9	89 81 58 01 00
	00		 mov	 DWORD PTR [ecx+344], eax
  000cf	5e		 pop	 esi

; 2299 : }

  000d0	5d		 pop	 ebp
  000d1	c3		 ret	 0
?gObjCalcShieldPoint@@YAXPAUOBJECTSTRUCT@@@Z ENDP	; gObjCalcShieldPoint
_TEXT	ENDS
PUBLIC	?gObjCalcMLSkillItemOption@@YAXPAUOBJECTSTRUCT@@@Z ; gObjCalcMLSkillItemOption
EXTRN	?GetDetailItemType@CItem@@QAEHXZ:PROC		; CItem::GetDetailItemType
; Function compile flags: /Ogtp
;	COMDAT ?gObjCalcMLSkillItemOption@@YAXPAUOBJECTSTRUCT@@@Z
_TEXT	SEGMENT
_lpObj$ = 8						; size = 4
?gObjCalcMLSkillItemOption@@YAXPAUOBJECTSTRUCT@@@Z PROC	; gObjCalcMLSkillItemOption, COMDAT

; 2303 : {

  00000	55		 push	 ebp
  00001	8b ec		 mov	 ebp, esp

; 2304 : 	if( lpObj->m_MPSkillOpt.MpsTwoHandSwordStrength > 0.0f )

  00003	d9 ee		 fldz
  00005	56		 push	 esi
  00006	8b 75 08	 mov	 esi, DWORD PTR _lpObj$[ebp]
  00009	d8 9e 70 26 00
	00		 fcomp	 DWORD PTR [esi+9840]
  0000f	df e0		 fnstsw	 ax
  00011	f6 c4 05	 test	 ah, 5
  00014	7a 2c		 jp	 SHORT $LN71@gObjCalcML

; 2305 : 	{
; 2306 : 		if( lpObj->pInventory[0].GetDetailItemType() && lpObj->pInventory[1].GetDetailItemType() )

  00016	8b 8e 24 0e 00
	00		 mov	 ecx, DWORD PTR [esi+3620]
  0001c	e8 00 00 00 00	 call	 ?GetDetailItemType@CItem@@QAEHXZ ; CItem::GetDetailItemType
  00021	85 c0		 test	 eax, eax
  00023	74 1d		 je	 SHORT $LN71@gObjCalcML
  00025	8b 8e 24 0e 00
	00		 mov	 ecx, DWORD PTR [esi+3620]
  0002b	81 c1 d4 00 00
	00		 add	 ecx, 212		; 000000d4H
  00031	e8 00 00 00 00	 call	 ?GetDetailItemType@CItem@@QAEHXZ ; CItem::GetDetailItemType
  00036	85 c0		 test	 eax, eax
  00038	74 08		 je	 SHORT $LN71@gObjCalcML

; 2307 : 		{
; 2308 : 			lpObj->m_MPSkillOpt.MpsTwoHandSwordStrength = 0;

  0003a	d9 ee		 fldz
  0003c	d9 9e 70 26 00
	00		 fstp	 DWORD PTR [esi+9840]
$LN71@gObjCalcML:

; 2309 : 		}
; 2310 : 	}
; 2311 : 	// ----
; 2312 : 	if( lpObj->m_MPSkillOpt.MpsTwoHandSwordMastery > 0.0f )

  00042	d9 ee		 fldz
  00044	d8 9e 80 26 00
	00		 fcomp	 DWORD PTR [esi+9856]
  0004a	df e0		 fnstsw	 ax
  0004c	f6 c4 05	 test	 ah, 5
  0004f	7a 2c		 jp	 SHORT $LN72@gObjCalcML

; 2313 : 	{
; 2314 : 		if( lpObj->pInventory[0].GetDetailItemType() && lpObj->pInventory[1].GetDetailItemType() )

  00051	8b 8e 24 0e 00
	00		 mov	 ecx, DWORD PTR [esi+3620]
  00057	e8 00 00 00 00	 call	 ?GetDetailItemType@CItem@@QAEHXZ ; CItem::GetDetailItemType
  0005c	85 c0		 test	 eax, eax
  0005e	74 1d		 je	 SHORT $LN72@gObjCalcML
  00060	8b 8e 24 0e 00
	00		 mov	 ecx, DWORD PTR [esi+3620]
  00066	81 c1 d4 00 00
	00		 add	 ecx, 212		; 000000d4H
  0006c	e8 00 00 00 00	 call	 ?GetDetailItemType@CItem@@QAEHXZ ; CItem::GetDetailItemType
  00071	85 c0		 test	 eax, eax
  00073	74 08		 je	 SHORT $LN72@gObjCalcML

; 2315 : 		{
; 2316 : 			lpObj->m_MPSkillOpt.MpsTwoHandSwordMastery = 0;

  00075	d9 ee		 fldz
  00077	d9 9e 80 26 00
	00		 fstp	 DWORD PTR [esi+9856]
$LN72@gObjCalcML:

; 2317 : 		}
; 2318 : 	}
; 2319 : 	// ----
; 2320 : 	if( lpObj->m_MPSkillOpt.MpsTwoHandStaffStrength > 0.0f )

  0007d	d9 ee		 fldz
  0007f	d8 9e 94 26 00
	00		 fcomp	 DWORD PTR [esi+9876]
  00085	df e0		 fnstsw	 ax
  00087	f6 c4 05	 test	 ah, 5
  0008a	7a 54		 jp	 SHORT $LN73@gObjCalcML

; 2321 : 	{
; 2322 : 		if( lpObj->pInventory[0].GetDetailItemType() == 5 || lpObj->pInventory[1].GetDetailItemType() == 5 )

  0008c	8b 8e 24 0e 00
	00		 mov	 ecx, DWORD PTR [esi+3620]
  00092	e8 00 00 00 00	 call	 ?GetDetailItemType@CItem@@QAEHXZ ; CItem::GetDetailItemType
  00097	83 f8 05	 cmp	 eax, 5
  0009a	74 16		 je	 SHORT $LN62@gObjCalcML
  0009c	8b 8e 24 0e 00
	00		 mov	 ecx, DWORD PTR [esi+3620]
  000a2	81 c1 d4 00 00
	00		 add	 ecx, 212		; 000000d4H
  000a8	e8 00 00 00 00	 call	 ?GetDetailItemType@CItem@@QAEHXZ ; CItem::GetDetailItemType
  000ad	83 f8 05	 cmp	 eax, 5
  000b0	75 2e		 jne	 SHORT $LN73@gObjCalcML
$LN62@gObjCalcML:

; 2323 : 		{
; 2324 : 			lpObj->m_MagicDamageMin += lpObj->m_MPSkillOpt.MpsTwoHandStaffStrength;

  000b2	db 86 68 04 00
	00		 fild	 DWORD PTR [esi+1128]
  000b8	d8 86 94 26 00
	00		 fadd	 DWORD PTR [esi+9876]
  000be	e8 00 00 00 00	 call	 __ftol2_sse

; 2325 : 			lpObj->m_MagicDamageMax += lpObj->m_MPSkillOpt.MpsTwoHandStaffStrength;

  000c3	db 86 6c 04 00
	00		 fild	 DWORD PTR [esi+1132]
  000c9	89 86 68 04 00
	00		 mov	 DWORD PTR [esi+1128], eax
  000cf	d8 86 94 26 00
	00		 fadd	 DWORD PTR [esi+9876]
  000d5	e8 00 00 00 00	 call	 __ftol2_sse
  000da	89 86 6c 04 00
	00		 mov	 DWORD PTR [esi+1132], eax
$LN73@gObjCalcML:

; 2326 : 		}
; 2327 : 	}
; 2328 : 	// ----
; 2329 : 	if( lpObj->m_MPSkillOpt.MpsOneHandStaffStrength > 0.0f )

  000e0	d9 ee		 fldz
  000e2	d8 9e 98 26 00
	00		 fcomp	 DWORD PTR [esi+9880]
  000e8	df e0		 fnstsw	 ax
  000ea	f6 c4 05	 test	 ah, 5
  000ed	7a 54		 jp	 SHORT $LN74@gObjCalcML

; 2330 : 	{
; 2331 : 		if( lpObj->pInventory[0].GetDetailItemType() == 4 || lpObj->pInventory[1].GetDetailItemType() == 4 )

  000ef	8b 8e 24 0e 00
	00		 mov	 ecx, DWORD PTR [esi+3620]
  000f5	e8 00 00 00 00	 call	 ?GetDetailItemType@CItem@@QAEHXZ ; CItem::GetDetailItemType
  000fa	83 f8 04	 cmp	 eax, 4
  000fd	74 16		 je	 SHORT $LN59@gObjCalcML
  000ff	8b 8e 24 0e 00
	00		 mov	 ecx, DWORD PTR [esi+3620]
  00105	81 c1 d4 00 00
	00		 add	 ecx, 212		; 000000d4H
  0010b	e8 00 00 00 00	 call	 ?GetDetailItemType@CItem@@QAEHXZ ; CItem::GetDetailItemType
  00110	83 f8 04	 cmp	 eax, 4
  00113	75 2e		 jne	 SHORT $LN74@gObjCalcML
$LN59@gObjCalcML:

; 2332 : 		{
; 2333 : 			lpObj->m_MagicDamageMin += lpObj->m_MPSkillOpt.MpsOneHandStaffStrength;

  00115	db 86 68 04 00
	00		 fild	 DWORD PTR [esi+1128]
  0011b	d8 86 98 26 00
	00		 fadd	 DWORD PTR [esi+9880]
  00121	e8 00 00 00 00	 call	 __ftol2_sse

; 2334 : 			lpObj->m_MagicDamageMax += lpObj->m_MPSkillOpt.MpsOneHandStaffStrength;

  00126	db 86 6c 04 00
	00		 fild	 DWORD PTR [esi+1132]
  0012c	89 86 68 04 00
	00		 mov	 DWORD PTR [esi+1128], eax
  00132	d8 86 98 26 00
	00		 fadd	 DWORD PTR [esi+9880]
  00138	e8 00 00 00 00	 call	 __ftol2_sse
  0013d	89 86 6c 04 00
	00		 mov	 DWORD PTR [esi+1132], eax
$LN74@gObjCalcML:

; 2335 : 		}
; 2336 : 	}
; 2337 : 	// ----
; 2338 : 	if( lpObj->m_MPSkillOpt.MpsStickStrength > 0.0f )

  00143	d9 ee		 fldz
  00145	d8 9e e8 26 00
	00		 fcomp	 DWORD PTR [esi+9960]
  0014b	df e0		 fnstsw	 ax
  0014d	f6 c4 05	 test	 ah, 5
  00150	7a 54		 jp	 SHORT $LN75@gObjCalcML

; 2339 : 	{
; 2340 : 		if( lpObj->pInventory[0].GetDetailItemType() == 9 || lpObj->pInventory[1].GetDetailItemType() == 9 )

  00152	8b 8e 24 0e 00
	00		 mov	 ecx, DWORD PTR [esi+3620]
  00158	e8 00 00 00 00	 call	 ?GetDetailItemType@CItem@@QAEHXZ ; CItem::GetDetailItemType
  0015d	83 f8 09	 cmp	 eax, 9
  00160	74 16		 je	 SHORT $LN56@gObjCalcML
  00162	8b 8e 24 0e 00
	00		 mov	 ecx, DWORD PTR [esi+3620]
  00168	81 c1 d4 00 00
	00		 add	 ecx, 212		; 000000d4H
  0016e	e8 00 00 00 00	 call	 ?GetDetailItemType@CItem@@QAEHXZ ; CItem::GetDetailItemType
  00173	83 f8 09	 cmp	 eax, 9
  00176	75 2e		 jne	 SHORT $LN75@gObjCalcML
$LN56@gObjCalcML:

; 2341 : 		{
; 2342 : 			lpObj->m_MagicDamageMin += lpObj->m_MPSkillOpt.MpsStickStrength;

  00178	db 86 68 04 00
	00		 fild	 DWORD PTR [esi+1128]
  0017e	d8 86 e8 26 00
	00		 fadd	 DWORD PTR [esi+9960]
  00184	e8 00 00 00 00	 call	 __ftol2_sse

; 2343 : 			lpObj->m_MagicDamageMax += lpObj->m_MPSkillOpt.MpsStickStrength;

  00189	db 86 6c 04 00
	00		 fild	 DWORD PTR [esi+1132]
  0018f	89 86 68 04 00
	00		 mov	 DWORD PTR [esi+1128], eax
  00195	d8 86 e8 26 00
	00		 fadd	 DWORD PTR [esi+9960]
  0019b	e8 00 00 00 00	 call	 __ftol2_sse
  001a0	89 86 6c 04 00
	00		 mov	 DWORD PTR [esi+1132], eax
$LN75@gObjCalcML:

; 2344 : 		}
; 2345 : 	}
; 2346 : 	// ----
; 2347 : 	if( lpObj->m_MPSkillOpt.MpsShieldStrength > 0.0f )

  001a6	d9 ee		 fldz
  001a8	d8 9e 9c 26 00
	00		 fcomp	 DWORD PTR [esi+9884]
  001ae	df e0		 fnstsw	 ax
  001b0	f6 c4 05	 test	 ah, 5
  001b3	7a 3d		 jp	 SHORT $LN76@gObjCalcML

; 2348 : 	{
; 2349 : 		if( lpObj->pInventory[0].GetDetailItemType() == 6 || lpObj->pInventory[1].GetDetailItemType() == 6 )

  001b5	8b 8e 24 0e 00
	00		 mov	 ecx, DWORD PTR [esi+3620]
  001bb	e8 00 00 00 00	 call	 ?GetDetailItemType@CItem@@QAEHXZ ; CItem::GetDetailItemType
  001c0	83 f8 06	 cmp	 eax, 6
  001c3	74 16		 je	 SHORT $LN53@gObjCalcML
  001c5	8b 8e 24 0e 00
	00		 mov	 ecx, DWORD PTR [esi+3620]
  001cb	81 c1 d4 00 00
	00		 add	 ecx, 212		; 000000d4H
  001d1	e8 00 00 00 00	 call	 ?GetDetailItemType@CItem@@QAEHXZ ; CItem::GetDetailItemType
  001d6	83 f8 06	 cmp	 eax, 6
  001d9	75 17		 jne	 SHORT $LN76@gObjCalcML
$LN53@gObjCalcML:

; 2350 : 		{
; 2351 : 			lpObj->m_Defense += lpObj->m_MPSkillOpt.MpsShieldStrength;

  001db	db 86 94 04 00
	00		 fild	 DWORD PTR [esi+1172]
  001e1	d8 86 9c 26 00
	00		 fadd	 DWORD PTR [esi+9884]
  001e7	e8 00 00 00 00	 call	 __ftol2_sse
  001ec	89 86 94 04 00
	00		 mov	 DWORD PTR [esi+1172], eax
$LN76@gObjCalcML:

; 2352 : 			//lpObj->m_Defense +=
; 2353 : 		}
; 2354 : 	}
; 2355 : 	// ----
; 2356 : 	//
; 2357 : 	// ----
; 2358 : 	if( lpObj->m_MPSkillOpt.MpsShieldStrength3 > 0.0f )

  001f2	d9 ee		 fldz
  001f4	d8 9e 18 27 00
	00		 fcomp	 DWORD PTR [esi+10008]
  001fa	df e0		 fnstsw	 ax
  001fc	f6 c4 05	 test	 ah, 5
  001ff	7a 3d		 jp	 SHORT $LN77@gObjCalcML

; 2359 : 	{
; 2360 : 		if( lpObj->pInventory[0].GetDetailItemType() == 6 || lpObj->pInventory[1].GetDetailItemType() == 6 )

  00201	8b 8e 24 0e 00
	00		 mov	 ecx, DWORD PTR [esi+3620]
  00207	e8 00 00 00 00	 call	 ?GetDetailItemType@CItem@@QAEHXZ ; CItem::GetDetailItemType
  0020c	83 f8 06	 cmp	 eax, 6
  0020f	74 16		 je	 SHORT $LN50@gObjCalcML
  00211	8b 8e 24 0e 00
	00		 mov	 ecx, DWORD PTR [esi+3620]
  00217	81 c1 d4 00 00
	00		 add	 ecx, 212		; 000000d4H
  0021d	e8 00 00 00 00	 call	 ?GetDetailItemType@CItem@@QAEHXZ ; CItem::GetDetailItemType
  00222	83 f8 06	 cmp	 eax, 6
  00225	75 17		 jne	 SHORT $LN77@gObjCalcML
$LN50@gObjCalcML:

; 2361 : 		{
; 2362 : 			lpObj->m_Defense += lpObj->m_MPSkillOpt.MpsShieldStrength3;

  00227	db 86 94 04 00
	00		 fild	 DWORD PTR [esi+1172]
  0022d	d8 86 18 27 00
	00		 fadd	 DWORD PTR [esi+10008]
  00233	e8 00 00 00 00	 call	 __ftol2_sse
  00238	89 86 94 04 00
	00		 mov	 DWORD PTR [esi+1172], eax
$LN77@gObjCalcML:

; 2363 : 		}
; 2364 : 	}
; 2365 : 	// ----
; 2366 : 	if( lpObj->m_MPSkillOpt.MpsOneHandStaffMastery > 0.0f )

  0023e	d9 ee		 fldz
  00240	d8 9e a0 26 00
	00		 fcomp	 DWORD PTR [esi+9888]
  00246	df e0		 fnstsw	 ax
  00248	f6 c4 05	 test	 ah, 5
  0024b	7a 3d		 jp	 SHORT $LN78@gObjCalcML

; 2367 : 	{
; 2368 : 		if( lpObj->pInventory[0].GetDetailItemType() == 4 || lpObj->pInventory[1].GetDetailItemType() == 4 )

  0024d	8b 8e 24 0e 00
	00		 mov	 ecx, DWORD PTR [esi+3620]
  00253	e8 00 00 00 00	 call	 ?GetDetailItemType@CItem@@QAEHXZ ; CItem::GetDetailItemType
  00258	83 f8 04	 cmp	 eax, 4
  0025b	74 16		 je	 SHORT $LN47@gObjCalcML
  0025d	8b 8e 24 0e 00
	00		 mov	 ecx, DWORD PTR [esi+3620]
  00263	81 c1 d4 00 00
	00		 add	 ecx, 212		; 000000d4H
  00269	e8 00 00 00 00	 call	 ?GetDetailItemType@CItem@@QAEHXZ ; CItem::GetDetailItemType
  0026e	83 f8 04	 cmp	 eax, 4
  00271	75 17		 jne	 SHORT $LN78@gObjCalcML
$LN47@gObjCalcML:

; 2369 : 		{
; 2370 : 			lpObj->m_AttackSpeed += lpObj->m_MPSkillOpt.MpsOneHandStaffMastery;

  00273	db 86 8c 04 00
	00		 fild	 DWORD PTR [esi+1164]
  00279	d8 86 a0 26 00
	00		 fadd	 DWORD PTR [esi+9888]
  0027f	e8 00 00 00 00	 call	 __ftol2_sse
  00284	89 86 8c 04 00
	00		 mov	 DWORD PTR [esi+1164], eax
$LN78@gObjCalcML:

; 2371 : 		}
; 2372 : 	}
; 2373 : 	// ----
; 2374 : 	if( lpObj->m_MPSkillOpt.MpsTomeMastery > 0.0f )

  0028a	d9 ee		 fldz
  0028c	d8 9e f4 26 00
	00		 fcomp	 DWORD PTR [esi+9972]
  00292	df e0		 fnstsw	 ax
  00294	f6 c4 05	 test	 ah, 5
  00297	7a 3d		 jp	 SHORT $LN79@gObjCalcML

; 2375 : 	{
; 2376 : 		if( lpObj->pInventory[0].GetDetailItemType() == 10 || lpObj->pInventory[1].GetDetailItemType() == 10 )

  00299	8b 8e 24 0e 00
	00		 mov	 ecx, DWORD PTR [esi+3620]
  0029f	e8 00 00 00 00	 call	 ?GetDetailItemType@CItem@@QAEHXZ ; CItem::GetDetailItemType
  002a4	83 f8 0a	 cmp	 eax, 10			; 0000000aH
  002a7	74 16		 je	 SHORT $LN44@gObjCalcML
  002a9	8b 8e 24 0e 00
	00		 mov	 ecx, DWORD PTR [esi+3620]
  002af	81 c1 d4 00 00
	00		 add	 ecx, 212		; 000000d4H
  002b5	e8 00 00 00 00	 call	 ?GetDetailItemType@CItem@@QAEHXZ ; CItem::GetDetailItemType
  002ba	83 f8 0a	 cmp	 eax, 10			; 0000000aH
  002bd	75 17		 jne	 SHORT $LN79@gObjCalcML
$LN44@gObjCalcML:

; 2377 : 		{
; 2378 : 			lpObj->m_AttackSpeed += lpObj->m_MPSkillOpt.MpsTomeMastery;

  002bf	db 86 8c 04 00
	00		 fild	 DWORD PTR [esi+1164]
  002c5	d8 86 f4 26 00
	00		 fadd	 DWORD PTR [esi+9972]
  002cb	e8 00 00 00 00	 call	 __ftol2_sse
  002d0	89 86 8c 04 00
	00		 mov	 DWORD PTR [esi+1164], eax
$LN79@gObjCalcML:

; 2379 : 		}
; 2380 : 	}
; 2381 : 	// ----
; 2382 : 	if( lpObj->m_MPSkillOpt.MpsTomeStrength > 0.0f )

  002d6	d9 ee		 fldz
  002d8	d8 9e ec 26 00
	00		 fcomp	 DWORD PTR [esi+9964]
  002de	df e0		 fnstsw	 ax
  002e0	f6 c4 05	 test	 ah, 5
  002e3	7a 54		 jp	 SHORT $LN80@gObjCalcML

; 2383 : 	{
; 2384 : 		if( lpObj->pInventory[0].GetDetailItemType() == 10 || lpObj->pInventory[1].GetDetailItemType() == 10 )

  002e5	8b 8e 24 0e 00
	00		 mov	 ecx, DWORD PTR [esi+3620]
  002eb	e8 00 00 00 00	 call	 ?GetDetailItemType@CItem@@QAEHXZ ; CItem::GetDetailItemType
  002f0	83 f8 0a	 cmp	 eax, 10			; 0000000aH
  002f3	74 16		 je	 SHORT $LN41@gObjCalcML
  002f5	8b 8e 24 0e 00
	00		 mov	 ecx, DWORD PTR [esi+3620]
  002fb	81 c1 d4 00 00
	00		 add	 ecx, 212		; 000000d4H
  00301	e8 00 00 00 00	 call	 ?GetDetailItemType@CItem@@QAEHXZ ; CItem::GetDetailItemType
  00306	83 f8 0a	 cmp	 eax, 10			; 0000000aH
  00309	75 2e		 jne	 SHORT $LN80@gObjCalcML
$LN41@gObjCalcML:

; 2385 : 		{
; 2386 : 			lpObj->m_iSummonerBookSpellDamageMin += lpObj->m_MPSkillOpt.MpsTomeStrength;

  0030b	db 86 a4 04 00
	00		 fild	 DWORD PTR [esi+1188]
  00311	d8 86 ec 26 00
	00		 fadd	 DWORD PTR [esi+9964]
  00317	e8 00 00 00 00	 call	 __ftol2_sse

; 2387 : 			lpObj->m_iSummonerBookSpellDamageMax += lpObj->m_MPSkillOpt.MpsTomeStrength;

  0031c	db 86 a8 04 00
	00		 fild	 DWORD PTR [esi+1192]
  00322	89 86 a4 04 00
	00		 mov	 DWORD PTR [esi+1188], eax
  00328	d8 86 ec 26 00
	00		 fadd	 DWORD PTR [esi+9964]
  0032e	e8 00 00 00 00	 call	 __ftol2_sse
  00333	89 86 a8 04 00
	00		 mov	 DWORD PTR [esi+1192], eax
$LN80@gObjCalcML:

; 2388 : 		}
; 2389 : 	}
; 2390 : 	// ----
; 2391 : 	if( lpObj->m_MPSkillOpt.MpsTwoHandStaffMastery > 0.0f )

  00339	d9 ee		 fldz
  0033b	d8 9e a4 26 00
	00		 fcomp	 DWORD PTR [esi+9892]
  00341	df e0		 fnstsw	 ax
  00343	f6 c4 05	 test	 ah, 5
  00346	7a 2e		 jp	 SHORT $LN81@gObjCalcML

; 2392 : 	{
; 2393 : 		if( lpObj->pInventory[0].GetDetailItemType() != 5 && lpObj->pInventory[1].GetDetailItemType() != 5 )

  00348	8b 8e 24 0e 00
	00		 mov	 ecx, DWORD PTR [esi+3620]
  0034e	e8 00 00 00 00	 call	 ?GetDetailItemType@CItem@@QAEHXZ ; CItem::GetDetailItemType
  00353	83 f8 05	 cmp	 eax, 5
  00356	74 1e		 je	 SHORT $LN81@gObjCalcML
  00358	8b 8e 24 0e 00
	00		 mov	 ecx, DWORD PTR [esi+3620]
  0035e	81 c1 d4 00 00
	00		 add	 ecx, 212		; 000000d4H
  00364	e8 00 00 00 00	 call	 ?GetDetailItemType@CItem@@QAEHXZ ; CItem::GetDetailItemType
  00369	83 f8 05	 cmp	 eax, 5
  0036c	74 08		 je	 SHORT $LN81@gObjCalcML

; 2394 : 		{
; 2395 : 			lpObj->m_MPSkillOpt.MpsTwoHandStaffMastery = 0;

  0036e	d9 ee		 fldz
  00370	d9 9e a4 26 00
	00		 fstp	 DWORD PTR [esi+9892]
$LN81@gObjCalcML:

; 2396 : 		}
; 2397 : 	}
; 2398 : 	// ----
; 2399 : 	if( lpObj->m_MPSkillOpt.MpsCrossbowMastery > 0.0f )

  00376	d9 ee		 fldz
  00378	d8 9e b8 26 00
	00		 fcomp	 DWORD PTR [esi+9912]
  0037e	df e0		 fnstsw	 ax
  00380	f6 c4 05	 test	 ah, 5
  00383	7a 2e		 jp	 SHORT $LN82@gObjCalcML

; 2400 : 	{
; 2401 : 		if( lpObj->pInventory[0].GetDetailItemType() != 8 && lpObj->pInventory[1].GetDetailItemType() != 8 )

  00385	8b 8e 24 0e 00
	00		 mov	 ecx, DWORD PTR [esi+3620]
  0038b	e8 00 00 00 00	 call	 ?GetDetailItemType@CItem@@QAEHXZ ; CItem::GetDetailItemType
  00390	83 f8 08	 cmp	 eax, 8
  00393	74 1e		 je	 SHORT $LN82@gObjCalcML
  00395	8b 8e 24 0e 00
	00		 mov	 ecx, DWORD PTR [esi+3620]
  0039b	81 c1 d4 00 00
	00		 add	 ecx, 212		; 000000d4H
  003a1	e8 00 00 00 00	 call	 ?GetDetailItemType@CItem@@QAEHXZ ; CItem::GetDetailItemType
  003a6	83 f8 08	 cmp	 eax, 8
  003a9	74 08		 je	 SHORT $LN82@gObjCalcML

; 2402 : 		{
; 2403 : 			lpObj->m_MPSkillOpt.MpsCrossbowMastery = 0;

  003ab	d9 ee		 fldz
  003ad	d9 9e b8 26 00
	00		 fstp	 DWORD PTR [esi+9912]
$LN82@gObjCalcML:

; 2404 : 		}
; 2405 : 	}
; 2406 : 	// ----
; 2407 : 	if( lpObj->m_MPSkillOpt.MpsStickMastery > 0.0f )

  003b3	d9 ee		 fldz
  003b5	d8 9e f0 26 00
	00		 fcomp	 DWORD PTR [esi+9968]
  003bb	df e0		 fnstsw	 ax
  003bd	f6 c4 05	 test	 ah, 5
  003c0	7a 2e		 jp	 SHORT $LN83@gObjCalcML

; 2408 : 	{
; 2409 : 		if( lpObj->pInventory[0].GetDetailItemType() != 9 && lpObj->pInventory[1].GetDetailItemType() != 9 )

  003c2	8b 8e 24 0e 00
	00		 mov	 ecx, DWORD PTR [esi+3620]
  003c8	e8 00 00 00 00	 call	 ?GetDetailItemType@CItem@@QAEHXZ ; CItem::GetDetailItemType
  003cd	83 f8 09	 cmp	 eax, 9
  003d0	74 1e		 je	 SHORT $LN83@gObjCalcML
  003d2	8b 8e 24 0e 00
	00		 mov	 ecx, DWORD PTR [esi+3620]
  003d8	81 c1 d4 00 00
	00		 add	 ecx, 212		; 000000d4H
  003de	e8 00 00 00 00	 call	 ?GetDetailItemType@CItem@@QAEHXZ ; CItem::GetDetailItemType
  003e3	83 f8 09	 cmp	 eax, 9
  003e6	74 08		 je	 SHORT $LN83@gObjCalcML

; 2410 : 		{
; 2411 : 			lpObj->m_MPSkillOpt.MpsStickMastery = 0;

  003e8	d9 ee		 fldz
  003ea	d9 9e f0 26 00
	00		 fstp	 DWORD PTR [esi+9968]
$LN83@gObjCalcML:

; 2412 : 		}
; 2413 : 	}
; 2414 : 	// ----
; 2415 : 	if( lpObj->m_MPSkillOpt.MpsScepterMastery > 0.0f )

  003f0	d9 ee		 fldz
  003f2	d8 9e 14 27 00
	00		 fcomp	 DWORD PTR [esi+10004]
  003f8	df e0		 fnstsw	 ax
  003fa	f6 c4 05	 test	 ah, 5
  003fd	7a 2e		 jp	 SHORT $LN84@gObjCalcML

; 2416 : 	{
; 2417 : 		if( lpObj->pInventory[0].GetDetailItemType() != 11 && lpObj->pInventory[1].GetDetailItemType() != 11 )

  003ff	8b 8e 24 0e 00
	00		 mov	 ecx, DWORD PTR [esi+3620]
  00405	e8 00 00 00 00	 call	 ?GetDetailItemType@CItem@@QAEHXZ ; CItem::GetDetailItemType
  0040a	83 f8 0b	 cmp	 eax, 11			; 0000000bH
  0040d	74 1e		 je	 SHORT $LN84@gObjCalcML
  0040f	8b 8e 24 0e 00
	00		 mov	 ecx, DWORD PTR [esi+3620]
  00415	81 c1 d4 00 00
	00		 add	 ecx, 212		; 000000d4H
  0041b	e8 00 00 00 00	 call	 ?GetDetailItemType@CItem@@QAEHXZ ; CItem::GetDetailItemType
  00420	83 f8 0b	 cmp	 eax, 11			; 0000000bH
  00423	74 08		 je	 SHORT $LN84@gObjCalcML

; 2418 : 		{
; 2419 : 			lpObj->m_MPSkillOpt.MpsScepterMastery = 0;

  00425	d9 ee		 fldz
  00427	d9 9e 14 27 00
	00		 fstp	 DWORD PTR [esi+10004]
$LN84@gObjCalcML:

; 2420 : 		}
; 2421 : 	}
; 2422 : 	// ----
; 2423 : 	if( lpObj->m_MPSkillOpt.MpsShieldMastery > 0.0f )

  0042d	d9 ee		 fldz
  0042f	d8 9e a8 26 00
	00		 fcomp	 DWORD PTR [esi+9896]
  00435	df e0		 fnstsw	 ax
  00437	f6 c4 05	 test	 ah, 5
  0043a	7a 2e		 jp	 SHORT $LN85@gObjCalcML

; 2424 : 	{
; 2425 : 		if( lpObj->pInventory[0].GetDetailItemType() != 6 && lpObj->pInventory[1].GetDetailItemType() != 6 )

  0043c	8b 8e 24 0e 00
	00		 mov	 ecx, DWORD PTR [esi+3620]
  00442	e8 00 00 00 00	 call	 ?GetDetailItemType@CItem@@QAEHXZ ; CItem::GetDetailItemType
  00447	83 f8 06	 cmp	 eax, 6
  0044a	74 1e		 je	 SHORT $LN85@gObjCalcML
  0044c	8b 8e 24 0e 00
	00		 mov	 ecx, DWORD PTR [esi+3620]
  00452	81 c1 d4 00 00
	00		 add	 ecx, 212		; 000000d4H
  00458	e8 00 00 00 00	 call	 ?GetDetailItemType@CItem@@QAEHXZ ; CItem::GetDetailItemType
  0045d	83 f8 06	 cmp	 eax, 6
  00460	74 08		 je	 SHORT $LN85@gObjCalcML

; 2426 : 		{
; 2427 : 			lpObj->m_MPSkillOpt.MpsShieldMastery = 0;

  00462	d9 ee		 fldz
  00464	d9 9e a8 26 00
	00		 fstp	 DWORD PTR [esi+9896]
$LN85@gObjCalcML:

; 2428 : 		}
; 2429 : 	}
; 2430 : 	// ----
; 2431 : 	//
; 2432 : 	// ----
; 2433 : 	if( lpObj->m_MPSkillOpt.MpsShieldMastery3 > 0.0f )

  0046a	d9 ee		 fldz
  0046c	d8 9e 1c 27 00
	00		 fcomp	 DWORD PTR [esi+10012]
  00472	df e0		 fnstsw	 ax
  00474	f6 c4 05	 test	 ah, 5
  00477	7a 2e		 jp	 SHORT $LN86@gObjCalcML

; 2434 : 	{
; 2435 : 		if( lpObj->pInventory[0].GetDetailItemType() != 6 && lpObj->pInventory[1].GetDetailItemType() != 6 )

  00479	8b 8e 24 0e 00
	00		 mov	 ecx, DWORD PTR [esi+3620]
  0047f	e8 00 00 00 00	 call	 ?GetDetailItemType@CItem@@QAEHXZ ; CItem::GetDetailItemType
  00484	83 f8 06	 cmp	 eax, 6
  00487	74 1e		 je	 SHORT $LN86@gObjCalcML
  00489	8b 8e 24 0e 00
	00		 mov	 ecx, DWORD PTR [esi+3620]
  0048f	81 c1 d4 00 00
	00		 add	 ecx, 212		; 000000d4H
  00495	e8 00 00 00 00	 call	 ?GetDetailItemType@CItem@@QAEHXZ ; CItem::GetDetailItemType
  0049a	83 f8 06	 cmp	 eax, 6
  0049d	74 08		 je	 SHORT $LN86@gObjCalcML

; 2436 : 		{
; 2437 : 			lpObj->m_MPSkillOpt.MpsShieldMastery3 = 0;

  0049f	d9 ee		 fldz
  004a1	d9 9e 1c 27 00
	00		 fstp	 DWORD PTR [esi+10012]
$LN86@gObjCalcML:

; 2438 : 		}
; 2439 : 	}
; 2440 : 	// ----
; 2441 : 	if( lpObj->m_MPSkillOpt.MpsOneHandSwordMastery > 0.0f )

  004a7	d9 ee		 fldz
  004a9	d8 9e 84 26 00
	00		 fcomp	 DWORD PTR [esi+9860]
  004af	df e0		 fnstsw	 ax
  004b1	f6 c4 05	 test	 ah, 5
  004b4	7a 3d		 jp	 SHORT $LN87@gObjCalcML

; 2442 : 	{
; 2443 : 		if( lpObj->pInventory[0].GetDetailItemType() == 1 && lpObj->pInventory[1].GetDetailItemType() == 1 )

  004b6	8b 8e 24 0e 00
	00		 mov	 ecx, DWORD PTR [esi+3620]
  004bc	e8 00 00 00 00	 call	 ?GetDetailItemType@CItem@@QAEHXZ ; CItem::GetDetailItemType
  004c1	83 f8 01	 cmp	 eax, 1
  004c4	75 2d		 jne	 SHORT $LN87@gObjCalcML
  004c6	8b 8e 24 0e 00
	00		 mov	 ecx, DWORD PTR [esi+3620]
  004cc	81 c1 d4 00 00
	00		 add	 ecx, 212		; 000000d4H
  004d2	e8 00 00 00 00	 call	 ?GetDetailItemType@CItem@@QAEHXZ ; CItem::GetDetailItemType
  004d7	83 f8 01	 cmp	 eax, 1
  004da	75 17		 jne	 SHORT $LN87@gObjCalcML

; 2444 : 		{
; 2445 : 			lpObj->m_AttackSpeed += lpObj->m_MPSkillOpt.MpsOneHandSwordMastery;

  004dc	db 86 8c 04 00
	00		 fild	 DWORD PTR [esi+1164]
  004e2	d8 86 84 26 00
	00		 fadd	 DWORD PTR [esi+9860]
  004e8	e8 00 00 00 00	 call	 __ftol2_sse
  004ed	89 86 8c 04 00
	00		 mov	 DWORD PTR [esi+1164], eax
$LN87@gObjCalcML:

; 2446 : 		}
; 2447 : 	}
; 2448 : 	// ----
; 2449 : 	if( lpObj->m_MPSkillOpt.MpsOneHandSwordStrength > 0.0f )

  004f3	d9 ee		 fldz
  004f5	d8 9e 74 26 00
	00		 fcomp	 DWORD PTR [esi+9844]
  004fb	df e0		 fnstsw	 ax
  004fd	f6 c4 05	 test	 ah, 5
  00500	7a 2e		 jp	 SHORT $LN88@gObjCalcML

; 2450 : 	{
; 2451 : 		if( lpObj->pInventory[0].GetDetailItemType() != 1 && lpObj->pInventory[1].GetDetailItemType() != 1 )

  00502	8b 8e 24 0e 00
	00		 mov	 ecx, DWORD PTR [esi+3620]
  00508	e8 00 00 00 00	 call	 ?GetDetailItemType@CItem@@QAEHXZ ; CItem::GetDetailItemType
  0050d	83 f8 01	 cmp	 eax, 1
  00510	74 1e		 je	 SHORT $LN88@gObjCalcML
  00512	8b 8e 24 0e 00
	00		 mov	 ecx, DWORD PTR [esi+3620]
  00518	81 c1 d4 00 00
	00		 add	 ecx, 212		; 000000d4H
  0051e	e8 00 00 00 00	 call	 ?GetDetailItemType@CItem@@QAEHXZ ; CItem::GetDetailItemType
  00523	83 f8 01	 cmp	 eax, 1
  00526	74 08		 je	 SHORT $LN88@gObjCalcML

; 2452 : 		{
; 2453 : 			lpObj->m_MPSkillOpt.MpsOneHandSwordStrength = 0;

  00528	d9 ee		 fldz
  0052a	d9 9e 74 26 00
	00		 fstp	 DWORD PTR [esi+9844]
$LN88@gObjCalcML:

; 2454 : 		}
; 2455 : 	}
; 2456 : 	// ----
; 2457 : 	if( lpObj->m_MPSkillOpt.MpsMaceStrength > 0.0f )

  00530	d9 ee		 fldz
  00532	d8 9e 78 26 00
	00		 fcomp	 DWORD PTR [esi+9848]
  00538	df e0		 fnstsw	 ax
  0053a	f6 c4 05	 test	 ah, 5
  0053d	7a 2e		 jp	 SHORT $LN89@gObjCalcML

; 2458 : 	{
; 2459 : 		if( lpObj->pInventory[0].GetDetailItemType() != 2 && lpObj->pInventory[1].GetDetailItemType() != 2 )

  0053f	8b 8e 24 0e 00
	00		 mov	 ecx, DWORD PTR [esi+3620]
  00545	e8 00 00 00 00	 call	 ?GetDetailItemType@CItem@@QAEHXZ ; CItem::GetDetailItemType
  0054a	83 f8 02	 cmp	 eax, 2
  0054d	74 1e		 je	 SHORT $LN89@gObjCalcML
  0054f	8b 8e 24 0e 00
	00		 mov	 ecx, DWORD PTR [esi+3620]
  00555	81 c1 d4 00 00
	00		 add	 ecx, 212		; 000000d4H
  0055b	e8 00 00 00 00	 call	 ?GetDetailItemType@CItem@@QAEHXZ ; CItem::GetDetailItemType
  00560	83 f8 02	 cmp	 eax, 2
  00563	74 08		 je	 SHORT $LN89@gObjCalcML

; 2460 : 		{
; 2461 : 			lpObj->m_MPSkillOpt.MpsMaceStrength = 0;

  00565	d9 ee		 fldz
  00567	d9 9e 78 26 00
	00		 fstp	 DWORD PTR [esi+9848]
$LN89@gObjCalcML:

; 2462 : 		}
; 2463 : 	}
; 2464 : 	// ----
; 2465 : 	if( lpObj->m_MPSkillOpt.MpsMaceMastery > 0.0f )

  0056d	d9 ee		 fldz
  0056f	d8 9e 8c 26 00
	00		 fcomp	 DWORD PTR [esi+9868]
  00575	df e0		 fnstsw	 ax
  00577	f6 c4 05	 test	 ah, 5
  0057a	7a 2e		 jp	 SHORT $LN90@gObjCalcML

; 2466 : 	{
; 2467 : 		if( lpObj->pInventory[0].GetDetailItemType() != 2 && lpObj->pInventory[1].GetDetailItemType() != 2 )

  0057c	8b 8e 24 0e 00
	00		 mov	 ecx, DWORD PTR [esi+3620]
  00582	e8 00 00 00 00	 call	 ?GetDetailItemType@CItem@@QAEHXZ ; CItem::GetDetailItemType
  00587	83 f8 02	 cmp	 eax, 2
  0058a	74 1e		 je	 SHORT $LN90@gObjCalcML
  0058c	8b 8e 24 0e 00
	00		 mov	 ecx, DWORD PTR [esi+3620]
  00592	81 c1 d4 00 00
	00		 add	 ecx, 212		; 000000d4H
  00598	e8 00 00 00 00	 call	 ?GetDetailItemType@CItem@@QAEHXZ ; CItem::GetDetailItemType
  0059d	83 f8 02	 cmp	 eax, 2
  005a0	74 08		 je	 SHORT $LN90@gObjCalcML

; 2468 : 		{
; 2469 : 			lpObj->m_MPSkillOpt.MpsMaceMastery = 0;

  005a2	d9 ee		 fldz
  005a4	d9 9e 8c 26 00
	00		 fstp	 DWORD PTR [esi+9868]
$LN90@gObjCalcML:

; 2470 : 		}
; 2471 : 	}
; 2472 : 	// ----
; 2473 : 	if( lpObj->m_MPSkillOpt.MpsSpearStrength > 0.0f )

  005aa	d9 ee		 fldz
  005ac	d8 9e 7c 26 00
	00		 fcomp	 DWORD PTR [esi+9852]
  005b2	df e0		 fnstsw	 ax
  005b4	f6 c4 05	 test	 ah, 5
  005b7	7a 2e		 jp	 SHORT $LN91@gObjCalcML

; 2474 : 	{
; 2475 : 		if( lpObj->pInventory[0].GetDetailItemType() != 3 && lpObj->pInventory[1].GetDetailItemType() != 3 )

  005b9	8b 8e 24 0e 00
	00		 mov	 ecx, DWORD PTR [esi+3620]
  005bf	e8 00 00 00 00	 call	 ?GetDetailItemType@CItem@@QAEHXZ ; CItem::GetDetailItemType
  005c4	83 f8 03	 cmp	 eax, 3
  005c7	74 1e		 je	 SHORT $LN91@gObjCalcML
  005c9	8b 8e 24 0e 00
	00		 mov	 ecx, DWORD PTR [esi+3620]
  005cf	81 c1 d4 00 00
	00		 add	 ecx, 212		; 000000d4H
  005d5	e8 00 00 00 00	 call	 ?GetDetailItemType@CItem@@QAEHXZ ; CItem::GetDetailItemType
  005da	83 f8 03	 cmp	 eax, 3
  005dd	74 08		 je	 SHORT $LN91@gObjCalcML

; 2476 : 		{
; 2477 : 			lpObj->m_MPSkillOpt.MpsSpearStrength = 0;

  005df	d9 ee		 fldz
  005e1	d9 9e 7c 26 00
	00		 fstp	 DWORD PTR [esi+9852]
$LN91@gObjCalcML:

; 2478 : 		} 
; 2479 : 	}
; 2480 : 	// ----
; 2481 : 	if( lpObj->m_MPSkillOpt.MpsSpearMastery > 0.0f )

  005e7	d9 ee		 fldz
  005e9	d8 9e 88 26 00
	00		 fcomp	 DWORD PTR [esi+9864]
  005ef	df e0		 fnstsw	 ax
  005f1	f6 c4 05	 test	 ah, 5
  005f4	7a 2e		 jp	 SHORT $LN92@gObjCalcML

; 2482 : 	{
; 2483 : 		if( lpObj->pInventory[0].GetDetailItemType() != 3 && lpObj->pInventory[1].GetDetailItemType() != 3 )

  005f6	8b 8e 24 0e 00
	00		 mov	 ecx, DWORD PTR [esi+3620]
  005fc	e8 00 00 00 00	 call	 ?GetDetailItemType@CItem@@QAEHXZ ; CItem::GetDetailItemType
  00601	83 f8 03	 cmp	 eax, 3
  00604	74 1e		 je	 SHORT $LN92@gObjCalcML
  00606	8b 8e 24 0e 00
	00		 mov	 ecx, DWORD PTR [esi+3620]
  0060c	81 c1 d4 00 00
	00		 add	 ecx, 212		; 000000d4H
  00612	e8 00 00 00 00	 call	 ?GetDetailItemType@CItem@@QAEHXZ ; CItem::GetDetailItemType
  00617	83 f8 03	 cmp	 eax, 3
  0061a	74 08		 je	 SHORT $LN92@gObjCalcML

; 2484 : 		{
; 2485 : 			lpObj->m_MPSkillOpt.MpsSpearMastery = 0;

  0061c	d9 ee		 fldz
  0061e	d9 9e 88 26 00
	00		 fstp	 DWORD PTR [esi+9864]
$LN92@gObjCalcML:

; 2486 : 		} 
; 2487 : 	}
; 2488 : 	// ----
; 2489 : 	if( lpObj->m_MPSkillOpt.MpsBowStrength > 0.0f )

  00624	d9 ee		 fldz
  00626	d8 9e ac 26 00
	00		 fcomp	 DWORD PTR [esi+9900]
  0062c	df e0		 fnstsw	 ax
  0062e	f6 c4 05	 test	 ah, 5
  00631	7a 2e		 jp	 SHORT $LN93@gObjCalcML

; 2490 : 	{
; 2491 : 		if( lpObj->pInventory[0].GetDetailItemType() != 7 && lpObj->pInventory[1].GetDetailItemType() != 7 )

  00633	8b 8e 24 0e 00
	00		 mov	 ecx, DWORD PTR [esi+3620]
  00639	e8 00 00 00 00	 call	 ?GetDetailItemType@CItem@@QAEHXZ ; CItem::GetDetailItemType
  0063e	83 f8 07	 cmp	 eax, 7
  00641	74 1e		 je	 SHORT $LN93@gObjCalcML
  00643	8b 8e 24 0e 00
	00		 mov	 ecx, DWORD PTR [esi+3620]
  00649	81 c1 d4 00 00
	00		 add	 ecx, 212		; 000000d4H
  0064f	e8 00 00 00 00	 call	 ?GetDetailItemType@CItem@@QAEHXZ ; CItem::GetDetailItemType
  00654	83 f8 07	 cmp	 eax, 7
  00657	74 08		 je	 SHORT $LN93@gObjCalcML

; 2492 : 		{
; 2493 : 			lpObj->m_MPSkillOpt.MpsBowStrength = 0;

  00659	d9 ee		 fldz
  0065b	d9 9e ac 26 00
	00		 fstp	 DWORD PTR [esi+9900]
$LN93@gObjCalcML:

; 2494 : 		} 
; 2495 : 	}
; 2496 : 	// ----
; 2497 : 	if( lpObj->m_MPSkillOpt.MpsScepterStrength > 0.0f )

  00661	d9 ee		 fldz
  00663	d8 9e 10 27 00
	00		 fcomp	 DWORD PTR [esi+10000]
  00669	df e0		 fnstsw	 ax
  0066b	f6 c4 05	 test	 ah, 5
  0066e	7a 2e		 jp	 SHORT $LN94@gObjCalcML

; 2498 : 	{
; 2499 : 		if( lpObj->pInventory[0].GetDetailItemType() != 11 && lpObj->pInventory[1].GetDetailItemType() != 11 )

  00670	8b 8e 24 0e 00
	00		 mov	 ecx, DWORD PTR [esi+3620]
  00676	e8 00 00 00 00	 call	 ?GetDetailItemType@CItem@@QAEHXZ ; CItem::GetDetailItemType
  0067b	83 f8 0b	 cmp	 eax, 11			; 0000000bH
  0067e	74 1e		 je	 SHORT $LN94@gObjCalcML
  00680	8b 8e 24 0e 00
	00		 mov	 ecx, DWORD PTR [esi+3620]
  00686	81 c1 d4 00 00
	00		 add	 ecx, 212		; 000000d4H
  0068c	e8 00 00 00 00	 call	 ?GetDetailItemType@CItem@@QAEHXZ ; CItem::GetDetailItemType
  00691	83 f8 0b	 cmp	 eax, 11			; 0000000bH
  00694	74 08		 je	 SHORT $LN94@gObjCalcML

; 2500 : 		{
; 2501 : 			lpObj->m_MPSkillOpt.MpsScepterStrength = 0;

  00696	d9 ee		 fldz
  00698	d9 9e 10 27 00
	00		 fstp	 DWORD PTR [esi+10000]
$LN94@gObjCalcML:

; 2502 : 		} 
; 2503 : 	}
; 2504 : 	// ----
; 2505 : 	if( lpObj->m_MPSkillOpt.MpsUseScepterPetStr > 0.0f )

  0069e	d9 ee		 fldz
  006a0	d8 9e 20 27 00
	00		 fcomp	 DWORD PTR [esi+10016]
  006a6	df e0		 fnstsw	 ax
  006a8	f6 c4 05	 test	 ah, 5
  006ab	7a 2e		 jp	 SHORT $LN95@gObjCalcML

; 2506 : 	{
; 2507 : 		if( lpObj->pInventory[0].GetDetailItemType() != 11 && lpObj->pInventory[1].GetDetailItemType() != 11 )

  006ad	8b 8e 24 0e 00
	00		 mov	 ecx, DWORD PTR [esi+3620]
  006b3	e8 00 00 00 00	 call	 ?GetDetailItemType@CItem@@QAEHXZ ; CItem::GetDetailItemType
  006b8	83 f8 0b	 cmp	 eax, 11			; 0000000bH
  006bb	74 1e		 je	 SHORT $LN95@gObjCalcML
  006bd	8b 8e 24 0e 00
	00		 mov	 ecx, DWORD PTR [esi+3620]
  006c3	81 c1 d4 00 00
	00		 add	 ecx, 212		; 000000d4H
  006c9	e8 00 00 00 00	 call	 ?GetDetailItemType@CItem@@QAEHXZ ; CItem::GetDetailItemType
  006ce	83 f8 0b	 cmp	 eax, 11			; 0000000bH
  006d1	74 08		 je	 SHORT $LN95@gObjCalcML

; 2508 : 		{
; 2509 : 			lpObj->m_MPSkillOpt.MpsUseScepterPetStr = 0;

  006d3	d9 ee		 fldz
  006d5	d9 9e 20 27 00
	00		 fstp	 DWORD PTR [esi+10016]
$LN95@gObjCalcML:

; 2510 : 		} 
; 2511 : 	}
; 2512 : 	// ----
; 2513 : 	if( lpObj->m_MPSkillOpt.MpsFistMastery > 0.0f )

  006db	d9 ee		 fldz
  006dd	d8 9e 98 27 00
	00		 fcomp	 DWORD PTR [esi+10136]
  006e3	df e0		 fnstsw	 ax
  006e5	f6 c4 05	 test	 ah, 5
  006e8	7a 2e		 jp	 SHORT $LN96@gObjCalcML

; 2514 : 	{
; 2515 : 		if( lpObj->pInventory[0].GetDetailItemType() != 12 && lpObj->pInventory[1].GetDetailItemType() != 12 )

  006ea	8b 8e 24 0e 00
	00		 mov	 ecx, DWORD PTR [esi+3620]
  006f0	e8 00 00 00 00	 call	 ?GetDetailItemType@CItem@@QAEHXZ ; CItem::GetDetailItemType
  006f5	83 f8 0c	 cmp	 eax, 12			; 0000000cH
  006f8	74 1e		 je	 SHORT $LN96@gObjCalcML
  006fa	8b 8e 24 0e 00
	00		 mov	 ecx, DWORD PTR [esi+3620]
  00700	81 c1 d4 00 00
	00		 add	 ecx, 212		; 000000d4H
  00706	e8 00 00 00 00	 call	 ?GetDetailItemType@CItem@@QAEHXZ ; CItem::GetDetailItemType
  0070b	83 f8 0c	 cmp	 eax, 12			; 0000000cH
  0070e	74 08		 je	 SHORT $LN96@gObjCalcML

; 2516 : 		{
; 2517 : 			lpObj->m_MPSkillOpt.MpsFistMastery = 0;

  00710	d9 ee		 fldz
  00712	d9 9e 98 27 00
	00		 fstp	 DWORD PTR [esi+10136]
$LN96@gObjCalcML:

; 2518 : 		} 
; 2519 : 	}
; 2520 : 	// ----
; 2521 : 	if( lpObj->m_MPSkillOpt.MpsFistStrength > 0.0f )

  00718	d9 ee		 fldz
  0071a	d8 9e 94 27 00
	00		 fcomp	 DWORD PTR [esi+10132]
  00720	df e0		 fnstsw	 ax
  00722	f6 c4 05	 test	 ah, 5
  00725	7a 2e		 jp	 SHORT $LN97@gObjCalcML

; 2522 : 	{
; 2523 : 		if( lpObj->pInventory[0].GetDetailItemType() != 12 && lpObj->pInventory[1].GetDetailItemType() != 12 )

  00727	8b 8e 24 0e 00
	00		 mov	 ecx, DWORD PTR [esi+3620]
  0072d	e8 00 00 00 00	 call	 ?GetDetailItemType@CItem@@QAEHXZ ; CItem::GetDetailItemType
  00732	83 f8 0c	 cmp	 eax, 12			; 0000000cH
  00735	74 1e		 je	 SHORT $LN97@gObjCalcML
  00737	8b 8e 24 0e 00
	00		 mov	 ecx, DWORD PTR [esi+3620]
  0073d	81 c1 d4 00 00
	00		 add	 ecx, 212		; 000000d4H
  00743	e8 00 00 00 00	 call	 ?GetDetailItemType@CItem@@QAEHXZ ; CItem::GetDetailItemType
  00748	83 f8 0c	 cmp	 eax, 12			; 0000000cH
  0074b	74 08		 je	 SHORT $LN97@gObjCalcML

; 2524 : 		{
; 2525 : 			lpObj->m_MPSkillOpt.MpsFistStrength = 0;

  0074d	d9 ee		 fldz
  0074f	d9 9e 94 27 00
	00		 fstp	 DWORD PTR [esi+10132]
$LN97@gObjCalcML:

; 2526 : 		} 
; 2527 : 	}
; 2528 : 	// ----
; 2529 : 	if( lpObj->m_MPSkillOpt.MpsCommandAttackInc > 0.0f )

  00755	d9 ee		 fldz
  00757	d8 9e 24 27 00
	00		 fcomp	 DWORD PTR [esi+10020]
  0075d	df e0		 fnstsw	 ax
  0075f	f6 c4 05	 test	 ah, 5
  00762	7a 2e		 jp	 SHORT $LN98@gObjCalcML

; 2530 : 	{
; 2531 : 		if( lpObj->pInventory[0].GetDetailItemType() != 11 && lpObj->pInventory[1].GetDetailItemType() != 11 )

  00764	8b 8e 24 0e 00
	00		 mov	 ecx, DWORD PTR [esi+3620]
  0076a	e8 00 00 00 00	 call	 ?GetDetailItemType@CItem@@QAEHXZ ; CItem::GetDetailItemType
  0076f	83 f8 0b	 cmp	 eax, 11			; 0000000bH
  00772	74 1e		 je	 SHORT $LN98@gObjCalcML
  00774	8b 8e 24 0e 00
	00		 mov	 ecx, DWORD PTR [esi+3620]
  0077a	81 c1 d4 00 00
	00		 add	 ecx, 212		; 000000d4H
  00780	e8 00 00 00 00	 call	 ?GetDetailItemType@CItem@@QAEHXZ ; CItem::GetDetailItemType
  00785	83 f8 0b	 cmp	 eax, 11			; 0000000bH
  00788	74 08		 je	 SHORT $LN98@gObjCalcML

; 2532 : 		{
; 2533 : 			lpObj->m_MPSkillOpt.MpsCommandAttackInc = 0;

  0078a	d9 ee		 fldz
  0078c	d9 9e 24 27 00
	00		 fstp	 DWORD PTR [esi+10020]
$LN98@gObjCalcML:

; 2534 : 		} 
; 2535 : 	}
; 2536 : 	// ----
; 2537 : 	if( lpObj->m_MPSkillOpt.MpsBowMastery > 0.0f )

  00792	d9 ee		 fldz
  00794	d8 9e b0 26 00
	00		 fcomp	 DWORD PTR [esi+9904]
  0079a	df e0		 fnstsw	 ax
  0079c	f6 c4 05	 test	 ah, 5
  0079f	7a 3d		 jp	 SHORT $LN99@gObjCalcML

; 2538 : 	{
; 2539 : 		if( lpObj->pInventory[0].GetDetailItemType() != 7 && lpObj->pInventory[1].GetDetailItemType() != 7 )

  007a1	8b 8e 24 0e 00
	00		 mov	 ecx, DWORD PTR [esi+3620]
  007a7	e8 00 00 00 00	 call	 ?GetDetailItemType@CItem@@QAEHXZ ; CItem::GetDetailItemType
  007ac	83 f8 07	 cmp	 eax, 7
  007af	74 2d		 je	 SHORT $LN99@gObjCalcML
  007b1	8b 8e 24 0e 00
	00		 mov	 ecx, DWORD PTR [esi+3620]
  007b7	81 c1 d4 00 00
	00		 add	 ecx, 212		; 000000d4H
  007bd	e8 00 00 00 00	 call	 ?GetDetailItemType@CItem@@QAEHXZ ; CItem::GetDetailItemType
  007c2	83 f8 07	 cmp	 eax, 7
  007c5	74 17		 je	 SHORT $LN99@gObjCalcML

; 2540 : 		{
; 2541 : 			lpObj->m_AttackSpeed += lpObj->m_MPSkillOpt.MpsBowMastery;

  007c7	db 86 8c 04 00
	00		 fild	 DWORD PTR [esi+1164]
  007cd	d8 86 b0 26 00
	00		 fadd	 DWORD PTR [esi+9904]
  007d3	e8 00 00 00 00	 call	 __ftol2_sse
  007d8	89 86 8c 04 00
	00		 mov	 DWORD PTR [esi+1164], eax
$LN99@gObjCalcML:

; 2542 : 		}
; 2543 : 	}
; 2544 : 	// ----
; 2545 : 	if( lpObj->m_MPSkillOpt.MpsCrossbowStrength > 0.0f )

  007de	d9 ee		 fldz
  007e0	d8 9e b4 26 00
	00		 fcomp	 DWORD PTR [esi+9908]
  007e6	df e0		 fnstsw	 ax
  007e8	f6 c4 05	 test	 ah, 5
  007eb	7a 2e		 jp	 SHORT $LN1@gObjCalcML

; 2546 : 	{
; 2547 : 		if( lpObj->pInventory[0].GetDetailItemType() != 8 && lpObj->pInventory[1].GetDetailItemType() != 8 )

  007ed	8b 8e 24 0e 00
	00		 mov	 ecx, DWORD PTR [esi+3620]
  007f3	e8 00 00 00 00	 call	 ?GetDetailItemType@CItem@@QAEHXZ ; CItem::GetDetailItemType
  007f8	83 f8 08	 cmp	 eax, 8
  007fb	74 1e		 je	 SHORT $LN1@gObjCalcML
  007fd	8b 8e 24 0e 00
	00		 mov	 ecx, DWORD PTR [esi+3620]
  00803	81 c1 d4 00 00
	00		 add	 ecx, 212		; 000000d4H
  00809	e8 00 00 00 00	 call	 ?GetDetailItemType@CItem@@QAEHXZ ; CItem::GetDetailItemType
  0080e	83 f8 08	 cmp	 eax, 8
  00811	74 08		 je	 SHORT $LN1@gObjCalcML

; 2548 : 		{
; 2549 : 			lpObj->m_MPSkillOpt.MpsCrossbowStrength = 0;

  00813	d9 ee		 fldz
  00815	d9 9e b4 26 00
	00		 fstp	 DWORD PTR [esi+9908]
$LN1@gObjCalcML:
  0081b	5e		 pop	 esi

; 2550 : 		}
; 2551 : 	}
; 2552 : 	// ----
; 2553 : 	//
; 2554 : }

  0081c	5d		 pop	 ebp
  0081d	c3		 ret	 0
?gObjCalcMLSkillItemOption@@YAXPAUOBJECTSTRUCT@@@Z ENDP	; gObjCalcMLSkillItemOption
_TEXT	ENDS
PUBLIC	??_C@_0BK@POCCBAFD@?$FL?$CFs?$FN?$FL?$CFs?$FN?5?$LM?$LM?F?$KO?5?$CFs?$LP?I?$LM?G?5?$MA?$PL?$LP?k?$AA@ ; `string'
PUBLIC	??_C@_0M@CMDBHBEK@?G?$KO?$LP?I?$LM?G?5?$MA?$PL?$LP?k?$AA@ ; `string'
PUBLIC	__$ArrayPad$
PUBLIC	?gObjCalcSetItemOption@@YAXPAUOBJECTSTRUCT@@@Z	; gObjCalcSetItemOption
EXTRN	?LogAdd@@3P6AXPADZZA:DWORD			; LogAdd
EXTRN	?GetGetFullSetOption@CSetItemOption@@QAEHHAAH000000000HH@Z:PROC ; CSetItemOption::GetGetFullSetOption
EXTRN	?LogAddC@@3P6AXEPADZZA:DWORD			; LogAddC
EXTRN	?GetMaxSetOptionCount@CSetItemOption@@QAEHH@Z:PROC ; CSetItemOption::GetMaxSetOptionCount
EXTRN	?GetSetOption@CSetItemOption@@QAEHHHAAH000HH@Z:PROC ; CSetItemOption::GetSetOption
EXTRN	?IsRequireClass@CSetItemOption@@QAEHHHH@Z:PROC	; CSetItemOption::IsRequireClass
;	COMDAT ??_C@_0BK@POCCBAFD@?$FL?$CFs?$FN?$FL?$CFs?$FN?5?$LM?$LM?F?$KO?5?$CFs?$LP?I?$LM?G?5?$MA?$PL?$LP?k?$AA@
CONST	SEGMENT
??_C@_0BK@POCCBAFD@?$FL?$CFs?$FN?$FL?$CFs?$FN?5?$LM?$LM?F?$KO?5?$CFs?$LP?I?$LM?G?5?$MA?$PL?$LP?k?$AA@ DB '['
	DB	'%s][%s] ', 0bcH, 0bcH, 0c6H, 0aeH, ' %s', 0bfH, 0c9H, 0bcH, 0c7H
	DB	' ', 0c0H, 0fbH, 0bfH, 0ebH, 00H		; `string'
CONST	ENDS
;	COMDAT ??_C@_0M@CMDBHBEK@?G?$KO?$LP?I?$LM?G?5?$MA?$PL?$LP?k?$AA@
CONST	SEGMENT
??_C@_0M@CMDBHBEK@?G?$KO?$LP?I?$LM?G?5?$MA?$PL?$LP?k?$AA@ DB 0c7H, 0aeH, 0bfH
	DB	0c9H, 0bcH, 0c7H, ' ', 0c0H, 0fbH, 0bfH, 0ebH, 00H ; `string'
; Function compile flags: /Ogtp
CONST	ENDS
;	COMDAT ?gObjCalcSetItemOption@@YAXPAUOBJECTSTRUCT@@@Z
_TEXT	SEGMENT
_opvalue4$ = -120					; size = 4
_op4$ = -116						; size = 4
_opvalue3$ = -112					; size = 4
_opvalue5$ = -108					; size = 4
$T215878 = -104						; size = 4
$T215879 = -104						; size = 4
_op5$ = -100						; size = 4
_op3$ = -96						; size = 4
_SetOptionCount$ = -92					; size = 4
_opvalue1$ = -88					; size = 4
_op1$ = -84						; size = 4
_opvalue2$ = -80					; size = 4
_op2$ = -76						; size = 4
_optioncount$215500 = -72				; size = 4
_optioncount$215486 = -72				; size = 4
_SetOptionTable$ = -68					; size = 29
_SetOptionCountTable$ = -36				; size = 29
__$ArrayPad$ = -4					; size = 4
_lpObj$ = 8						; size = 4
?gObjCalcSetItemOption@@YAXPAUOBJECTSTRUCT@@@Z PROC	; gObjCalcSetItemOption, COMDAT

; 1884 : {

  00000	55		 push	 ebp
  00001	8b ec		 mov	 ebp, esp
  00003	83 ec 78	 sub	 esp, 120		; 00000078H
  00006	a1 00 00 00 00	 mov	 eax, DWORD PTR ___security_cookie
  0000b	33 c5		 xor	 eax, ebp
  0000d	89 45 fc	 mov	 DWORD PTR __$ArrayPad$[ebp], eax

; 1885 : 	BYTE SetOptionTable[29];
; 1886 : 	BYTE SetOptionCountTable[29];
; 1887 : 	int SetOptionCount = 0;
; 1888 : 	int op1;
; 1889 : 	int op2;
; 1890 : 	int op3;
; 1891 : 	int op4;
; 1892 : 	int op5;
; 1893 : 	int opvalue1;
; 1894 : 	int opvalue2;
; 1895 : 	int opvalue3;
; 1896 : 	int opvalue4;
; 1897 : 	int opvalue5;
; 1898 : 
; 1899 : 	memset(SetOptionTable, 0, sizeof(SetOptionTable));

  00010	33 c0		 xor	 eax, eax
  00012	53		 push	 ebx
  00013	56		 push	 esi
  00014	8b 75 08	 mov	 esi, DWORD PTR _lpObj$[ebp]
  00017	57		 push	 edi
  00018	89 45 bc	 mov	 DWORD PTR _SetOptionTable$[ebp], eax
  0001b	89 45 c0	 mov	 DWORD PTR _SetOptionTable$[ebp+4], eax
  0001e	89 45 c4	 mov	 DWORD PTR _SetOptionTable$[ebp+8], eax
  00021	89 45 c8	 mov	 DWORD PTR _SetOptionTable$[ebp+12], eax
  00024	89 45 cc	 mov	 DWORD PTR _SetOptionTable$[ebp+16], eax
  00027	89 45 d0	 mov	 DWORD PTR _SetOptionTable$[ebp+20], eax
  0002a	89 45 d4	 mov	 DWORD PTR _SetOptionTable$[ebp+24], eax
  0002d	88 45 d8	 mov	 BYTE PTR _SetOptionTable$[ebp+28], al

; 1900 : 	memset(SetOptionCountTable, 0, sizeof(SetOptionCountTable));

  00030	89 45 dc	 mov	 DWORD PTR _SetOptionCountTable$[ebp], eax
  00033	89 45 e0	 mov	 DWORD PTR _SetOptionCountTable$[ebp+4], eax
  00036	89 45 e4	 mov	 DWORD PTR _SetOptionCountTable$[ebp+8], eax
  00039	89 45 e8	 mov	 DWORD PTR _SetOptionCountTable$[ebp+12], eax
  0003c	89 45 ec	 mov	 DWORD PTR _SetOptionCountTable$[ebp+16], eax
  0003f	89 45 f0	 mov	 DWORD PTR _SetOptionCountTable$[ebp+20], eax
  00042	89 45 f4	 mov	 DWORD PTR _SetOptionCountTable$[ebp+24], eax
  00045	88 45 f8	 mov	 BYTE PTR _SetOptionCountTable$[ebp+28], al

; 1901 : 	gObjGetSetItemOption(lpObj, SetOptionTable, SetOptionCountTable, &SetOptionCount);

  00048	8d 45 a4	 lea	 eax, DWORD PTR _SetOptionCount$[ebp]
  0004b	50		 push	 eax
  0004c	8d 4d dc	 lea	 ecx, DWORD PTR _SetOptionCountTable$[ebp]
  0004f	51		 push	 ecx
  00050	8d 55 bc	 lea	 edx, DWORD PTR _SetOptionTable$[ebp]
  00053	52		 push	 edx
  00054	56		 push	 esi
  00055	c7 45 a4 00 00
	00 00		 mov	 DWORD PTR _SetOptionCount$[ebp], 0
  0005c	e8 00 00 00 00	 call	 ?gObjGetSetItemOption@@YAXPAUOBJECTSTRUCT@@PAE1PAH@Z ; gObjGetSetItemOption

; 1902 : 
; 1903 : 	for ( int optioncount=0;optioncount<SetOptionCount;optioncount++)

  00061	8b 4d a4	 mov	 ecx, DWORD PTR _SetOptionCount$[ebp]
  00064	33 c0		 xor	 eax, eax
  00066	83 c4 10	 add	 esp, 16			; 00000010H
  00069	89 45 b8	 mov	 DWORD PTR _optioncount$215486[ebp], eax
  0006c	85 c9		 test	 ecx, ecx
  0006e	0f 8e 71 01 00
	00		 jle	 $LN16@gObjCalcSe@2
  00074	eb 0a 8d a4 24
	00 00 00 00 8d
	49 00		 npad	 12
$LL31@gObjCalcSe@2:

; 1904 : 	{
; 1905 : 		int OptionTableIndex = SetOptionTable[optioncount];
; 1906 : 		int OptionTableCount = SetOptionCountTable[optioncount];

  00080	0f b6 4c 05 dc	 movzx	 ecx, BYTE PTR _SetOptionCountTable$[ebp+eax]
  00085	0f b6 5c 05 bc	 movzx	 ebx, BYTE PTR _SetOptionTable$[ebp+eax]

; 1907 : 
; 1908 : 		if ( OptionTableCount >= 2 )

  0008a	83 f9 02	 cmp	 ecx, 2
  0008d	0f 8c 43 01 00
	00		 jl	 $LN17@gObjCalcSe@2

; 1909 : 		{
; 1910 : 			gSetItemOption.IsRequireClass(OptionTableIndex, lpObj->Class, lpObj->ChangeUP);

  00093	0f b6 86 bb 00
	00 00		 movzx	 eax, BYTE PTR [esi+187]
  0009a	0f b7 8e b8 00
	00 00		 movzx	 ecx, WORD PTR [esi+184]
  000a1	50		 push	 eax
  000a2	51		 push	 ecx
  000a3	53		 push	 ebx
  000a4	b9 00 00 00 00	 mov	 ecx, OFFSET ?gSetItemOption@@3VCSetItemOption@@A ; gSetItemOption
  000a9	e8 00 00 00 00	 call	 ?IsRequireClass@CSetItemOption@@QAEHHHH@Z ; CSetItemOption::IsRequireClass

; 1911 : 
; 1912 : 			for ( int tablecnt=0;tablecnt<(OptionTableCount-1);tablecnt++)

  000ae	8b 55 b8	 mov	 edx, DWORD PTR _optioncount$215486[ebp]
  000b1	0f b6 44 15 dc	 movzx	 eax, BYTE PTR _SetOptionCountTable$[ebp+edx]
  000b6	48		 dec	 eax
  000b7	33 ff		 xor	 edi, edi
  000b9	89 45 98	 mov	 DWORD PTR $T215878[ebp], eax
  000bc	85 c0		 test	 eax, eax
  000be	7e 55		 jle	 SHORT $LN12@gObjCalcSe@2
$LL14@gObjCalcSe@2:

; 1913 : 			{
; 1914 : 				if ( gSetItemOption.GetSetOption(OptionTableIndex, tablecnt,
; 1915 : 					op1, op2, opvalue1, opvalue2, lpObj->Class, lpObj->ChangeUP) )

  000c0	0f b6 86 bb 00
	00 00		 movzx	 eax, BYTE PTR [esi+187]
  000c7	0f b7 8e b8 00
	00 00		 movzx	 ecx, WORD PTR [esi+184]
  000ce	50		 push	 eax
  000cf	51		 push	 ecx
  000d0	8d 55 b0	 lea	 edx, DWORD PTR _opvalue2$[ebp]
  000d3	52		 push	 edx
  000d4	8d 45 a8	 lea	 eax, DWORD PTR _opvalue1$[ebp]
  000d7	50		 push	 eax
  000d8	8d 4d b4	 lea	 ecx, DWORD PTR _op2$[ebp]
  000db	51		 push	 ecx
  000dc	8d 55 ac	 lea	 edx, DWORD PTR _op1$[ebp]
  000df	52		 push	 edx
  000e0	57		 push	 edi
  000e1	53		 push	 ebx
  000e2	b9 00 00 00 00	 mov	 ecx, OFFSET ?gSetItemOption@@3VCSetItemOption@@A ; gSetItemOption
  000e7	e8 00 00 00 00	 call	 ?GetSetOption@CSetItemOption@@QAEHHHAAH000HH@Z ; CSetItemOption::GetSetOption
  000ec	85 c0		 test	 eax, eax
  000ee	74 1f		 je	 SHORT $LN13@gObjCalcSe@2

; 1916 : 				{
; 1917 : 					gObjSetItemStatPlusSpecial(lpObj, op1, opvalue1);

  000f0	8b 45 a8	 mov	 eax, DWORD PTR _opvalue1$[ebp]
  000f3	8b 4d ac	 mov	 ecx, DWORD PTR _op1$[ebp]
  000f6	50		 push	 eax
  000f7	51		 push	 ecx
  000f8	56		 push	 esi
  000f9	e8 00 00 00 00	 call	 ?gObjSetItemStatPlusSpecial@@YAXPAUOBJECTSTRUCT@@HH@Z ; gObjSetItemStatPlusSpecial

; 1918 : 					gObjSetItemStatPlusSpecial(lpObj, op2, opvalue2);

  000fe	8b 55 b0	 mov	 edx, DWORD PTR _opvalue2$[ebp]
  00101	8b 45 b4	 mov	 eax, DWORD PTR _op2$[ebp]
  00104	52		 push	 edx
  00105	50		 push	 eax
  00106	56		 push	 esi
  00107	e8 00 00 00 00	 call	 ?gObjSetItemStatPlusSpecial@@YAXPAUOBJECTSTRUCT@@HH@Z ; gObjSetItemStatPlusSpecial
  0010c	83 c4 18	 add	 esp, 24			; 00000018H
$LN13@gObjCalcSe@2:

; 1911 : 
; 1912 : 			for ( int tablecnt=0;tablecnt<(OptionTableCount-1);tablecnt++)

  0010f	47		 inc	 edi
  00110	3b 7d 98	 cmp	 edi, DWORD PTR $T215878[ebp]
  00113	7c ab		 jl	 SHORT $LL14@gObjCalcSe@2
$LN12@gObjCalcSe@2:

; 1919 : 				}
; 1920 : 			}
; 1921 : 
; 1922 : 			if ( gSetItemOption.GetMaxSetOptionCount(OptionTableIndex) < OptionTableCount )

  00115	53		 push	 ebx
  00116	b9 00 00 00 00	 mov	 ecx, OFFSET ?gSetItemOption@@3VCSetItemOption@@A ; gSetItemOption
  0011b	e8 00 00 00 00	 call	 ?GetMaxSetOptionCount@CSetItemOption@@QAEHH@Z ; CSetItemOption::GetMaxSetOptionCount
  00120	8b 4d b8	 mov	 ecx, DWORD PTR _optioncount$215486[ebp]
  00123	0f b6 4c 0d dc	 movzx	 ecx, BYTE PTR _SetOptionCountTable$[ebp+ecx]
  00128	3b c1		 cmp	 eax, ecx
  0012a	0f 8d a3 00 00
	00		 jge	 $LN29@gObjCalcSe@2

; 1923 : 			{
; 1924 : 				lpObj->IsFullSetItem = true;
; 1925 : 				LogAddC(2, "풀옵션 적용");

  00130	68 00 00 00 00	 push	 OFFSET ??_C@_0M@CMDBHBEK@?G?$KO?$LP?I?$LM?G?5?$MA?$PL?$LP?k?$AA@
  00135	6a 02		 push	 2
  00137	c6 86 46 11 00
	00 01		 mov	 BYTE PTR [esi+4422], 1
  0013e	ff 15 00 00 00
	00		 call	 DWORD PTR ?LogAddC@@3P6AXEPADZZA ; LogAddC

; 1926 : 
; 1927 : 				gSetItemOption.GetGetFullSetOption(OptionTableIndex, op1, op2, op3, op4, op5, opvalue1, opvalue2, opvalue3, opvalue4, opvalue5,	lpObj->Class, lpObj->ChangeUP);

  00144	0f b6 96 bb 00
	00 00		 movzx	 edx, BYTE PTR [esi+187]
  0014b	0f b7 86 b8 00
	00 00		 movzx	 eax, WORD PTR [esi+184]
  00152	83 c4 08	 add	 esp, 8
  00155	52		 push	 edx
  00156	50		 push	 eax
  00157	8d 4d 94	 lea	 ecx, DWORD PTR _opvalue5$[ebp]
  0015a	51		 push	 ecx
  0015b	8d 55 88	 lea	 edx, DWORD PTR _opvalue4$[ebp]
  0015e	52		 push	 edx
  0015f	8d 45 90	 lea	 eax, DWORD PTR _opvalue3$[ebp]
  00162	50		 push	 eax
  00163	8d 4d b0	 lea	 ecx, DWORD PTR _opvalue2$[ebp]
  00166	51		 push	 ecx
  00167	8d 55 a8	 lea	 edx, DWORD PTR _opvalue1$[ebp]
  0016a	52		 push	 edx
  0016b	8d 45 9c	 lea	 eax, DWORD PTR _op5$[ebp]
  0016e	50		 push	 eax
  0016f	8d 4d 8c	 lea	 ecx, DWORD PTR _op4$[ebp]
  00172	51		 push	 ecx
  00173	8d 55 a0	 lea	 edx, DWORD PTR _op3$[ebp]
  00176	52		 push	 edx
  00177	8d 45 b4	 lea	 eax, DWORD PTR _op2$[ebp]
  0017a	50		 push	 eax
  0017b	8d 4d ac	 lea	 ecx, DWORD PTR _op1$[ebp]
  0017e	51		 push	 ecx
  0017f	53		 push	 ebx
  00180	b9 00 00 00 00	 mov	 ecx, OFFSET ?gSetItemOption@@3VCSetItemOption@@A ; gSetItemOption
  00185	e8 00 00 00 00	 call	 ?GetGetFullSetOption@CSetItemOption@@QAEHHAAH000000000HH@Z ; CSetItemOption::GetGetFullSetOption

; 1928 : 
; 1929 : 				gObjSetItemStatPlusSpecial(lpObj, op1, opvalue1);

  0018a	8b 55 a8	 mov	 edx, DWORD PTR _opvalue1$[ebp]
  0018d	8b 45 ac	 mov	 eax, DWORD PTR _op1$[ebp]
  00190	52		 push	 edx
  00191	50		 push	 eax
  00192	56		 push	 esi
  00193	e8 00 00 00 00	 call	 ?gObjSetItemStatPlusSpecial@@YAXPAUOBJECTSTRUCT@@HH@Z ; gObjSetItemStatPlusSpecial

; 1930 : 				gObjSetItemStatPlusSpecial(lpObj, op2, opvalue2);

  00198	8b 4d b0	 mov	 ecx, DWORD PTR _opvalue2$[ebp]
  0019b	8b 55 b4	 mov	 edx, DWORD PTR _op2$[ebp]
  0019e	51		 push	 ecx
  0019f	52		 push	 edx
  001a0	56		 push	 esi
  001a1	e8 00 00 00 00	 call	 ?gObjSetItemStatPlusSpecial@@YAXPAUOBJECTSTRUCT@@HH@Z ; gObjSetItemStatPlusSpecial

; 1931 : 				gObjSetItemStatPlusSpecial(lpObj, op3, opvalue3);

  001a6	8b 45 90	 mov	 eax, DWORD PTR _opvalue3$[ebp]
  001a9	8b 4d a0	 mov	 ecx, DWORD PTR _op3$[ebp]
  001ac	50		 push	 eax
  001ad	51		 push	 ecx
  001ae	56		 push	 esi
  001af	e8 00 00 00 00	 call	 ?gObjSetItemStatPlusSpecial@@YAXPAUOBJECTSTRUCT@@HH@Z ; gObjSetItemStatPlusSpecial

; 1932 : 				gObjSetItemStatPlusSpecial(lpObj, op4, opvalue4);

  001b4	8b 55 88	 mov	 edx, DWORD PTR _opvalue4$[ebp]
  001b7	8b 45 8c	 mov	 eax, DWORD PTR _op4$[ebp]
  001ba	52		 push	 edx
  001bb	50		 push	 eax
  001bc	56		 push	 esi
  001bd	e8 00 00 00 00	 call	 ?gObjSetItemStatPlusSpecial@@YAXPAUOBJECTSTRUCT@@HH@Z ; gObjSetItemStatPlusSpecial

; 1933 : 				gObjSetItemStatPlusSpecial(lpObj, op5, opvalue5);

  001c2	8b 4d 94	 mov	 ecx, DWORD PTR _opvalue5$[ebp]
  001c5	8b 55 9c	 mov	 edx, DWORD PTR _op5$[ebp]
  001c8	51		 push	 ecx
  001c9	52		 push	 edx
  001ca	56		 push	 esi
  001cb	e8 00 00 00 00	 call	 ?gObjSetItemStatPlusSpecial@@YAXPAUOBJECTSTRUCT@@HH@Z ; gObjSetItemStatPlusSpecial
  001d0	83 c4 3c	 add	 esp, 60			; 0000003cH
$LN29@gObjCalcSe@2:
  001d3	8b 45 b8	 mov	 eax, DWORD PTR _optioncount$215486[ebp]
$LN17@gObjCalcSe@2:

; 1902 : 
; 1903 : 	for ( int optioncount=0;optioncount<SetOptionCount;optioncount++)

  001d6	8b 4d a4	 mov	 ecx, DWORD PTR _SetOptionCount$[ebp]
  001d9	40		 inc	 eax
  001da	89 45 b8	 mov	 DWORD PTR _optioncount$215486[ebp], eax
  001dd	3b c1		 cmp	 eax, ecx
  001df	0f 8c 9b fe ff
	ff		 jl	 $LL31@gObjCalcSe@2
$LN16@gObjCalcSe@2:

; 1934 : 			}		
; 1935 : 		}
; 1936 : 	}
; 1937 : 
; 1938 : 	for (int optioncount=0;optioncount<SetOptionCount;optioncount++)

  001e5	33 c0		 xor	 eax, eax
  001e7	89 45 b8	 mov	 DWORD PTR _optioncount$215500[ebp], eax
  001ea	85 c9		 test	 ecx, ecx
  001ec	0f 8e 71 01 00
	00		 jle	 $LN7@gObjCalcSe@2
$LL32@gObjCalcSe@2:

; 1939 : 	{
; 1940 : 		int OptionTableIndex = SetOptionTable[optioncount];
; 1941 : 		int OptionTableCount = SetOptionCountTable[optioncount];

  001f2	0f b6 4c 05 dc	 movzx	 ecx, BYTE PTR _SetOptionCountTable$[ebp+eax]
  001f7	0f b6 5c 05 bc	 movzx	 ebx, BYTE PTR _SetOptionTable$[ebp+eax]

; 1942 : 
; 1943 : 		if ( OptionTableCount >= 2 )

  001fc	83 f9 02	 cmp	 ecx, 2
  001ff	0f 8c 51 01 00
	00		 jl	 $LN8@gObjCalcSe@2

; 1944 : 		{
; 1945 : 			LogAdd("[%s][%s] 세트 %s옵션 적용",	lpObj->AccountID, lpObj->Name, gSetItemOption.GetSetOptionName(OptionTableIndex));

  00205	53		 push	 ebx
  00206	b9 00 00 00 00	 mov	 ecx, OFFSET ?gSetItemOption@@3VCSetItemOption@@A ; gSetItemOption
  0020b	e8 00 00 00 00	 call	 ?GetSetOptionName@CSetItemOption@@QAEPADH@Z ; CSetItemOption::GetSetOptionName
  00210	50		 push	 eax
  00211	8d 46 77	 lea	 eax, DWORD PTR [esi+119]
  00214	50		 push	 eax
  00215	8d 4e 6c	 lea	 ecx, DWORD PTR [esi+108]
  00218	51		 push	 ecx
  00219	68 00 00 00 00	 push	 OFFSET ??_C@_0BK@POCCBAFD@?$FL?$CFs?$FN?$FL?$CFs?$FN?5?$LM?$LM?F?$KO?5?$CFs?$LP?I?$LM?G?5?$MA?$PL?$LP?k?$AA@
  0021e	ff 15 00 00 00
	00		 call	 DWORD PTR ?LogAdd@@3P6AXPADZZA ; LogAdd

; 1946 : 
; 1947 : 			for ( int tablecnt=0;tablecnt<(OptionTableCount-1);tablecnt++)

  00224	8b 55 b8	 mov	 edx, DWORD PTR _optioncount$215500[ebp]
  00227	0f b6 44 15 dc	 movzx	 eax, BYTE PTR _SetOptionCountTable$[ebp+edx]
  0022c	48		 dec	 eax
  0022d	83 c4 10	 add	 esp, 16			; 00000010H
  00230	33 ff		 xor	 edi, edi
  00232	89 45 98	 mov	 DWORD PTR $T215879[ebp], eax
  00235	85 c0		 test	 eax, eax
  00237	7e 5c		 jle	 SHORT $LN3@gObjCalcSe@2
  00239	8d a4 24 00 00
	00 00		 npad	 7
$LL5@gObjCalcSe@2:

; 1948 : 			{
; 1949 : 				if ( gSetItemOption.GetSetOption(OptionTableIndex, tablecnt, op1, op2, opvalue1, opvalue2, lpObj->Class, lpObj->ChangeUP) )

  00240	0f b6 86 bb 00
	00 00		 movzx	 eax, BYTE PTR [esi+187]
  00247	0f b7 8e b8 00
	00 00		 movzx	 ecx, WORD PTR [esi+184]
  0024e	50		 push	 eax
  0024f	51		 push	 ecx
  00250	8d 55 b0	 lea	 edx, DWORD PTR _opvalue2$[ebp]
  00253	52		 push	 edx
  00254	8d 45 a8	 lea	 eax, DWORD PTR _opvalue1$[ebp]
  00257	50		 push	 eax
  00258	8d 4d b4	 lea	 ecx, DWORD PTR _op2$[ebp]
  0025b	51		 push	 ecx
  0025c	8d 55 ac	 lea	 edx, DWORD PTR _op1$[ebp]
  0025f	52		 push	 edx
  00260	57		 push	 edi
  00261	53		 push	 ebx
  00262	b9 00 00 00 00	 mov	 ecx, OFFSET ?gSetItemOption@@3VCSetItemOption@@A ; gSetItemOption
  00267	e8 00 00 00 00	 call	 ?GetSetOption@CSetItemOption@@QAEHHHAAH000HH@Z ; CSetItemOption::GetSetOption
  0026c	85 c0		 test	 eax, eax
  0026e	74 1f		 je	 SHORT $LN4@gObjCalcSe@2

; 1950 : 				{
; 1951 : 					gObjSetItemPlusSpecial(lpObj, op1, opvalue1);

  00270	8b 45 a8	 mov	 eax, DWORD PTR _opvalue1$[ebp]
  00273	8b 4d ac	 mov	 ecx, DWORD PTR _op1$[ebp]
  00276	50		 push	 eax
  00277	51		 push	 ecx
  00278	56		 push	 esi
  00279	e8 00 00 00 00	 call	 ?gObjSetItemPlusSpecial@@YAXPAUOBJECTSTRUCT@@HH@Z ; gObjSetItemPlusSpecial

; 1952 : 					gObjSetItemPlusSpecial(lpObj, op2, opvalue2);

  0027e	8b 55 b0	 mov	 edx, DWORD PTR _opvalue2$[ebp]
  00281	8b 45 b4	 mov	 eax, DWORD PTR _op2$[ebp]
  00284	52		 push	 edx
  00285	50		 push	 eax
  00286	56		 push	 esi
  00287	e8 00 00 00 00	 call	 ?gObjSetItemPlusSpecial@@YAXPAUOBJECTSTRUCT@@HH@Z ; gObjSetItemPlusSpecial
  0028c	83 c4 18	 add	 esp, 24			; 00000018H
$LN4@gObjCalcSe@2:

; 1946 : 
; 1947 : 			for ( int tablecnt=0;tablecnt<(OptionTableCount-1);tablecnt++)

  0028f	47		 inc	 edi
  00290	3b 7d 98	 cmp	 edi, DWORD PTR $T215879[ebp]
  00293	7c ab		 jl	 SHORT $LL5@gObjCalcSe@2
$LN3@gObjCalcSe@2:

; 1953 : 				}
; 1954 : 			}
; 1955 : 				
; 1956 : 			if ( gSetItemOption.GetMaxSetOptionCount(OptionTableIndex) < OptionTableCount )

  00295	53		 push	 ebx
  00296	b9 00 00 00 00	 mov	 ecx, OFFSET ?gSetItemOption@@3VCSetItemOption@@A ; gSetItemOption
  0029b	e8 00 00 00 00	 call	 ?GetMaxSetOptionCount@CSetItemOption@@QAEHH@Z ; CSetItemOption::GetMaxSetOptionCount
  002a0	8b 4d b8	 mov	 ecx, DWORD PTR _optioncount$215500[ebp]
  002a3	0f b6 4c 0d dc	 movzx	 ecx, BYTE PTR _SetOptionCountTable$[ebp+ecx]
  002a8	3b c1		 cmp	 eax, ecx
  002aa	0f 8d a3 00 00
	00		 jge	 $LN30@gObjCalcSe@2

; 1957 : 			{
; 1958 : 				LogAddC(2, "풀옵션 적용");

  002b0	68 00 00 00 00	 push	 OFFSET ??_C@_0M@CMDBHBEK@?G?$KO?$LP?I?$LM?G?5?$MA?$PL?$LP?k?$AA@
  002b5	6a 02		 push	 2
  002b7	ff 15 00 00 00
	00		 call	 DWORD PTR ?LogAddC@@3P6AXEPADZZA ; LogAddC

; 1959 : 				lpObj->IsFullSetItem = true;
; 1960 : 
; 1961 : 				gSetItemOption.GetGetFullSetOption(OptionTableIndex, op1, op2, op3, op4, op5, opvalue1, opvalue2, opvalue3, opvalue4, opvalue5, lpObj->Class, lpObj->ChangeUP);

  002bd	0f b6 96 bb 00
	00 00		 movzx	 edx, BYTE PTR [esi+187]
  002c4	0f b7 86 b8 00
	00 00		 movzx	 eax, WORD PTR [esi+184]
  002cb	83 c4 08	 add	 esp, 8
  002ce	52		 push	 edx
  002cf	50		 push	 eax
  002d0	8d 4d 94	 lea	 ecx, DWORD PTR _opvalue5$[ebp]
  002d3	51		 push	 ecx
  002d4	8d 55 88	 lea	 edx, DWORD PTR _opvalue4$[ebp]
  002d7	52		 push	 edx
  002d8	8d 45 90	 lea	 eax, DWORD PTR _opvalue3$[ebp]
  002db	50		 push	 eax
  002dc	8d 4d b0	 lea	 ecx, DWORD PTR _opvalue2$[ebp]
  002df	51		 push	 ecx
  002e0	8d 55 a8	 lea	 edx, DWORD PTR _opvalue1$[ebp]
  002e3	52		 push	 edx
  002e4	8d 45 9c	 lea	 eax, DWORD PTR _op5$[ebp]
  002e7	50		 push	 eax
  002e8	8d 4d 8c	 lea	 ecx, DWORD PTR _op4$[ebp]
  002eb	51		 push	 ecx
  002ec	8d 55 a0	 lea	 edx, DWORD PTR _op3$[ebp]
  002ef	52		 push	 edx
  002f0	8d 45 b4	 lea	 eax, DWORD PTR _op2$[ebp]
  002f3	50		 push	 eax
  002f4	8d 4d ac	 lea	 ecx, DWORD PTR _op1$[ebp]
  002f7	51		 push	 ecx
  002f8	53		 push	 ebx
  002f9	b9 00 00 00 00	 mov	 ecx, OFFSET ?gSetItemOption@@3VCSetItemOption@@A ; gSetItemOption
  002fe	c6 86 46 11 00
	00 01		 mov	 BYTE PTR [esi+4422], 1
  00305	e8 00 00 00 00	 call	 ?GetGetFullSetOption@CSetItemOption@@QAEHHAAH000000000HH@Z ; CSetItemOption::GetGetFullSetOption

; 1962 : 
; 1963 : 				gObjSetItemPlusSpecial(lpObj, op1, opvalue1);

  0030a	8b 55 a8	 mov	 edx, DWORD PTR _opvalue1$[ebp]
  0030d	8b 45 ac	 mov	 eax, DWORD PTR _op1$[ebp]
  00310	52		 push	 edx
  00311	50		 push	 eax
  00312	56		 push	 esi
  00313	e8 00 00 00 00	 call	 ?gObjSetItemPlusSpecial@@YAXPAUOBJECTSTRUCT@@HH@Z ; gObjSetItemPlusSpecial

; 1964 : 				gObjSetItemPlusSpecial(lpObj, op2, opvalue2);

  00318	8b 4d b0	 mov	 ecx, DWORD PTR _opvalue2$[ebp]
  0031b	8b 55 b4	 mov	 edx, DWORD PTR _op2$[ebp]
  0031e	51		 push	 ecx
  0031f	52		 push	 edx
  00320	56		 push	 esi
  00321	e8 00 00 00 00	 call	 ?gObjSetItemPlusSpecial@@YAXPAUOBJECTSTRUCT@@HH@Z ; gObjSetItemPlusSpecial

; 1965 : 				gObjSetItemPlusSpecial(lpObj, op3, opvalue3);

  00326	8b 45 90	 mov	 eax, DWORD PTR _opvalue3$[ebp]
  00329	8b 4d a0	 mov	 ecx, DWORD PTR _op3$[ebp]
  0032c	50		 push	 eax
  0032d	51		 push	 ecx
  0032e	56		 push	 esi
  0032f	e8 00 00 00 00	 call	 ?gObjSetItemPlusSpecial@@YAXPAUOBJECTSTRUCT@@HH@Z ; gObjSetItemPlusSpecial

; 1966 : 				gObjSetItemPlusSpecial(lpObj, op4, opvalue4);

  00334	8b 55 88	 mov	 edx, DWORD PTR _opvalue4$[ebp]
  00337	8b 45 8c	 mov	 eax, DWORD PTR _op4$[ebp]
  0033a	52		 push	 edx
  0033b	50		 push	 eax
  0033c	56		 push	 esi
  0033d	e8 00 00 00 00	 call	 ?gObjSetItemPlusSpecial@@YAXPAUOBJECTSTRUCT@@HH@Z ; gObjSetItemPlusSpecial

; 1967 : 				gObjSetItemPlusSpecial(lpObj, op5, opvalue5);

  00342	8b 4d 94	 mov	 ecx, DWORD PTR _opvalue5$[ebp]
  00345	8b 55 9c	 mov	 edx, DWORD PTR _op5$[ebp]
  00348	51		 push	 ecx
  00349	52		 push	 edx
  0034a	56		 push	 esi
  0034b	e8 00 00 00 00	 call	 ?gObjSetItemPlusSpecial@@YAXPAUOBJECTSTRUCT@@HH@Z ; gObjSetItemPlusSpecial
  00350	83 c4 3c	 add	 esp, 60			; 0000003cH
$LN30@gObjCalcSe@2:
  00353	8b 45 b8	 mov	 eax, DWORD PTR _optioncount$215500[ebp]
$LN8@gObjCalcSe@2:

; 1934 : 			}		
; 1935 : 		}
; 1936 : 	}
; 1937 : 
; 1938 : 	for (int optioncount=0;optioncount<SetOptionCount;optioncount++)

  00356	40		 inc	 eax
  00357	89 45 b8	 mov	 DWORD PTR _optioncount$215500[ebp], eax
  0035a	3b 45 a4	 cmp	 eax, DWORD PTR _SetOptionCount$[ebp]
  0035d	0f 8c 8f fe ff
	ff		 jl	 $LL32@gObjCalcSe@2
$LN7@gObjCalcSe@2:

; 1968 : 
; 1969 : 				/*if(g_bAbilityDebug == 1)
; 1970 : 				{
; 1971 : 					char szTemp[256];
; 1972 : 					strcpy(szTemp, "Apply FullSet Option");
; 1973 : 					GCServerMsgStringSend(szTemp, lpObj->m_Index, 1);
; 1974 : 				}*/
; 1975 : 			}		
; 1976 : 		}
; 1977 : 	}
; 1978 : }

  00363	8b 4d fc	 mov	 ecx, DWORD PTR __$ArrayPad$[ebp]
  00366	5f		 pop	 edi
  00367	5e		 pop	 esi
  00368	33 cd		 xor	 ecx, ebp
  0036a	5b		 pop	 ebx
  0036b	e8 00 00 00 00	 call	 @__security_check_cookie@4
  00370	8b e5		 mov	 esp, ebp
  00372	5d		 pop	 ebp
  00373	c3		 ret	 0
?gObjCalcSetItemOption@@YAXPAUOBJECTSTRUCT@@@Z ENDP	; gObjCalcSetItemOption
_TEXT	ENDS
PUBLIC	__real@3fb1eb8520000000
PUBLIC	__real@3fa99999a0000000
PUBLIC	__real@3ff0000000000000
PUBLIC	__real@3f9eb851e0000000
PUBLIC	__real@4034000000000000
PUBLIC	__real@4f800000
PUBLIC	??_C@_0BC@GFGEFHFO@Leadership?3?5?$CFd?0?$CFd?$AA@ ; `string'
PUBLIC	??_C@_0CB@KNPOLDNB@Vitality?3?5?$CFd?0?$CFd?5?5?5?5Energy?3?5?$CFd?0?$CFd@ ; `string'
PUBLIC	??_C@_0CE@OBLIFBFL@Strength?3?5?$CFd?0?$CFd?5?5?5?5Dexterity?3?5?$CFd@ ; `string'
PUBLIC	_aIndex$GSCopy$
PUBLIC	__$ArrayPad$
PUBLIC	?gObjCalCharacter@@YAXH@Z			; gObjCalCharacter
EXTRN	?Send@CStatsAdvance@@QAEXH@Z:PROC		; CStatsAdvance::Send
EXTRN	?g_StatsAdvance@@3VCStatsAdvance@@A:DWORD	; g_StatsAdvance
EXTRN	?PlayerCalculator@cWingsDamage@@QAEXH@Z:PROC	; cWingsDamage::PlayerCalculator
EXTRN	?gWingsDamage@@3VcWingsDamage@@A:BYTE		; gWingsDamage
EXTRN	?Refflect@cBalanceSystem@@QAEXPAUOBJECTSTRUCT@@@Z:PROC ; cBalanceSystem::Refflect
EXTRN	?gBalanceSystem@@3VcBalanceSystem@@A:BYTE	; gBalanceSystem
EXTRN	?PlayerCalculator@Voter@@QAEXH@Z:PROC		; Voter::PlayerCalculator
EXTRN	?gVoter@@3VVoter@@A:BYTE			; gVoter
EXTRN	?Main@cMaxPower@@QAEXH@Z:PROC			; cMaxPower::Main
EXTRN	?gMaxPower@@3VcMaxPower@@A:BYTE			; gMaxPower
EXTRN	?Calc@CPetZt@@QAEXH@Z:PROC			; CPetZt::Calc
EXTRN	?g_PetZt@@3VCPetZt@@A:BYTE			; g_PetZt
EXTRN	?CalculatorPower@CAchievements@@QAEXH@Z:PROC	; CAchievements::CalculatorPower
EXTRN	?g_Achievements@@3VCAchievements@@A:BYTE	; g_Achievements
EXTRN	?GuildBuffCharacter@CDungeonSiege@@QAEXH@Z:PROC	; CDungeonSiege::GuildBuffCharacter
EXTRN	?g_DungeonSiege@@3VCDungeonSiege@@A:BYTE	; g_DungeonSiege
EXTRN	?gObjSearchActiveEffect@@YAEPAUOBJECTSTRUCT@@H@Z:PROC ; gObjSearchActiveEffect
EXTRN	?AddedCharacter@CMarriage@@QAEXH@Z:PROC		; CMarriage::AddedCharacter
EXTRN	?g_Marriage@@3VCMarriage@@A:BYTE		; g_Marriage
EXTRN	?AddedCharacter@cBMQuest@@QAEXH@Z:PROC		; cBMQuest::AddedCharacter
EXTRN	?BMQuest@@3VcBMQuest@@A:BYTE			; BMQuest
EXTRN	?CharacterAdded@Brotherhood@@QAEXPAUOBJECTSTRUCT@@@Z:PROC ; Brotherhood::CharacterAdded
EXTRN	?gBrotherhood@@3VBrotherhood@@A:BYTE		; gBrotherhood
EXTRN	?Options@cExclusiveOptions@@QAEXH@Z:PROC	; cExclusiveOptions::Options
EXTRN	?gExclusiveOptions@@3VcExclusiveOptions@@A:BYTE	; gExclusiveOptions
EXTRN	?CharOptions@cWinQuestSystem@@QAEXH@Z:PROC	; cWinQuestSystem::CharOptions
EXTRN	?gWinQuestSystem@@3VcWinQuestSystem@@A:BYTE	; gWinQuestSystem
EXTRN	?CalcCharacter@cSystemOfRage@@QAEXH@Z:PROC	; cSystemOfRage::CalcCharacter
EXTRN	?ApplyForEquipment@CItemAddOption@@QAE_NPAUOBJECTSTRUCT@@@Z:PROC ; CItemAddOption::ApplyForEquipment
EXTRN	?NextSetItemLastEffectForHallowin@CItemAddOption@@QAE_NPAUOBJECTSTRUCT@@@Z:PROC ; CItemAddOption::NextSetItemLastEffectForHallowin
EXTRN	?NextSetBuffLastEffect@CViewportSkillState@@QAEXPAUOBJECTSTRUCT@@@Z:PROC ; CViewportSkillState::NextSetBuffLastEffect
EXTRN	?UserCalculatorPlus@PremiumSystemZt@@QAEXH@Z:PROC ; PremiumSystemZt::UserCalculatorPlus
EXTRN	?g_PremiumSystemZt@@3VPremiumSystemZt@@A:BYTE	; g_PremiumSystemZt
EXTRN	?NextSetItemLastEffectForCashShop@CItemAddOption@@QAE_NPAUOBJECTSTRUCT@@@Z:PROC ; CItemAddOption::NextSetItemLastEffectForCashShop
EXTRN	?ItemOption@cGrandHero@@QAEXH@Z:PROC		; cGrandHero::ItemOption
EXTRN	?GrandHero@@3VcGrandHero@@A:BYTE		; GrandHero
EXTRN	?gObjNextExpCal@@YAXPAUOBJECTSTRUCT@@@Z:PROC	; gObjNextExpCal
EXTRN	?gObjInventoryEquipment@@YAHPAUOBJECTSTRUCT@@@Z:PROC ; gObjInventoryEquipment
EXTRN	?CalCharacterSocketOption@CSocketOption@@QAEEPAUOBJECTSTRUCT@@@Z:PROC ; CSocketOption::CalCharacterSocketOption
EXTRN	?g_SocketOption@@3VCSocketOption@@A:BYTE	; g_SocketOption
EXTRN	?SetApplyStrengthenItem@CJewelOfHarmonySystem@@QAEXPAUOBJECTSTRUCT@@@Z:PROC ; CJewelOfHarmonySystem::SetApplyStrengthenItem
EXTRN	?g_kJewelOfHarmonySystem@@3VCJewelOfHarmonySystem@@A:BYTE ; g_kJewelOfHarmonySystem
EXTRN	?ApplyFor380Option@CItemSystemFor380@@QAEHPAUOBJECTSTRUCT@@@Z:PROC ; CItemSystemFor380::ApplyFor380Option
EXTRN	?g_kItemSystemFor380@@3VCItemSystemFor380@@A:BYTE ; g_kItemSystemFor380
EXTRN	?BookSpellDmg@CItem@@QAEHXZ:PROC		; CItem::BookSpellDmg
EXTRN	?PlusSpecialPercentEx@CItem@@QAEXPAHHH@Z:PROC	; CItem::PlusSpecialPercentEx
EXTRN	?gObjCheckUserPCBang@@YAHPAUOBJECTSTRUCT@@@Z:PROC ; gObjCheckUserPCBang
EXTRN	?Set@CDarkSpirit@@QAEXHPAVCItem@@@Z:PROC	; CDarkSpirit::Set
EXTRN	?gDarkSpirit@@3PAVCDarkSpirit@@A:BYTE		; gDarkSpirit
EXTRN	?gObjPandaSprite@@YAHPAUOBJECTSTRUCT@@@Z:PROC	; gObjPandaSprite
EXTRN	?gObjSpiritGuardianSprite@@YAHPAUOBJECTSTRUCT@@@Z:PROC ; gObjSpiritGuardianSprite
EXTRN	?gObjSkeletonSprite@@YAHPAUOBJECTSTRUCT@@@Z:PROC ; gObjSkeletonSprite
EXTRN	?gObjDemonSprite@@YAHPAUOBJECTSTRUCT@@@Z:PROC	; gObjDemonSprite
EXTRN	?IsFenrirDecLastAttackDamage@CItem@@QAEHXZ:PROC	; CItem::IsFenrirDecLastAttackDamage
EXTRN	?IsFenrirIncLastAttackDamage@CItem@@QAEHXZ:PROC	; CItem::IsFenrirIncLastAttackDamage
EXTRN	?IsFenrirSpecial@CItem@@QAEHXZ:PROC		; CItem::IsFenrirSpecial
EXTRN	?gMinimumAttackSpeedTime@@3HA:DWORD		; gMinimumAttackSpeedTime
EXTRN	?gDecTimePerAttackSpeed@@3MA:DWORD		; gDecTimePerAttackSpeed
EXTRN	?gAttackSpeedTimeLimit@@3KA:DWORD		; gAttackSpeedTimeLimit
EXTRN	?ItemDefense@CItem@@QAEHXZ:PROC			; CItem::ItemDefense
EXTRN	?PlusSpecial@CItem@@QAEXPAHH@Z:PROC		; CItem::PlusSpecial
EXTRN	?CalculatorManager@@3VcCalculatorManager@@A:BYTE ; CalculatorManager
EXTRN	?CheckUser@CZtLicense@@QAE_NH@Z:PROC		; CZtLicense::CheckUser
EXTRN	?ZtConfig@@3VcZtConfigs@@A:BYTE			; ZtConfig
EXTRN	?GCServerMsgStringSend@@YAXPADHE@Z:PROC		; GCServerMsgStringSend
EXTRN	_sprintf:PROC
EXTRN	?g_bAbilityDebug@@3HA:DWORD			; g_bAbilityDebug
EXTRN	?CalcStats@cSystemOfRage@@QAEXH@Z:PROC		; cSystemOfRage::CalcStats
EXTRN	?gSystemOfRage@@3VcSystemOfRage@@A:BYTE		; gSystemOfRage
EXTRN	?g_ZtLicense@@3VCZtLicense@@A:BYTE		; g_ZtLicense
EXTRN	?CalCharacterRemoveBuffEffect@CViewportSkillState@@QAEXPAUOBJECTSTRUCT@@@Z:PROC ; CViewportSkillState::CalCharacterRemoveBuffEffect
EXTRN	?PrevBuffLastEffect@CViewportSkillState@@QAEXPAUOBJECTSTRUCT@@@Z:PROC ; CViewportSkillState::PrevBuffLastEffect
EXTRN	?g_ViewportSkillState@@3VCViewportSkillState@@A:DWORD ; g_ViewportSkillState
EXTRN	?PrevSetItemLastEffectForCashShop@CItemAddOption@@QAE_NPAUOBJECTSTRUCT@@@Z:PROC ; CItemAddOption::PrevSetItemLastEffectForCashShop
EXTRN	?PrevSetItemLastEffectForHallowin@CItemAddOption@@QAE_NPAUOBJECTSTRUCT@@@Z:PROC ; CItemAddOption::PrevSetItemLastEffectForHallowin
EXTRN	?g_ItemAddOption@@3VCItemAddOption@@A:BYTE	; g_ItemAddOption
EXTRN	?gObj@@3PAUOBJECTSTRUCT@@A:DWORD		; gObj
EXTRN	_memset:PROC
;	COMDAT __real@3fb1eb8520000000
CONST	SEGMENT
__real@3fb1eb8520000000 DQ 03fb1eb8520000000r	; 0.07
CONST	ENDS
;	COMDAT __real@3fa99999a0000000
CONST	SEGMENT
__real@3fa99999a0000000 DQ 03fa99999a0000000r	; 0.05
CONST	ENDS
;	COMDAT __real@3ff0000000000000
CONST	SEGMENT
__real@3ff0000000000000 DQ 03ff0000000000000r	; 1
CONST	ENDS
;	COMDAT __real@3f9eb851e0000000
CONST	SEGMENT
__real@3f9eb851e0000000 DQ 03f9eb851e0000000r	; 0.03
CONST	ENDS
;	COMDAT __real@4034000000000000
CONST	SEGMENT
__real@4034000000000000 DQ 04034000000000000r	; 20
CONST	ENDS
;	COMDAT __real@4f800000
CONST	SEGMENT
__real@4f800000 DD 04f800000r			; 4.29497e+009
CONST	ENDS
;	COMDAT ??_C@_0BC@GFGEFHFO@Leadership?3?5?$CFd?0?$CFd?$AA@
CONST	SEGMENT
??_C@_0BC@GFGEFHFO@Leadership?3?5?$CFd?0?$CFd?$AA@ DB 'Leadership: %d,%d', 00H ; `string'
CONST	ENDS
;	COMDAT ??_C@_0CB@KNPOLDNB@Vitality?3?5?$CFd?0?$CFd?5?5?5?5Energy?3?5?$CFd?0?$CFd@
CONST	SEGMENT
??_C@_0CB@KNPOLDNB@Vitality?3?5?$CFd?0?$CFd?5?5?5?5Energy?3?5?$CFd?0?$CFd@ DB 'V'
	DB	'itality: %d,%d    Energy: %d,%d', 00H	; `string'
CONST	ENDS
;	COMDAT ??_C@_0CE@OBLIFBFL@Strength?3?5?$CFd?0?$CFd?5?5?5?5Dexterity?3?5?$CFd@
CONST	SEGMENT
??_C@_0CE@OBLIFBFL@Strength?3?5?$CFd?0?$CFd?5?5?5?5Dexterity?3?5?$CFd@ DB 'S'
	DB	'trength: %d,%d    Dexterity: %d,%d', 00H	; `string'
; Function compile flags: /Ogtp
CONST	ENDS
;	COMDAT ?gObjCalCharacter@@YAXH@Z
_TEXT	SEGMENT
_iAttackDamageStrengthMin$215045 = -356			; size = 4
_iAttackDamageDexterityMax$215048 = -352		; size = 4
_iAttackDamageVitalityMax$215050 = -348			; size = 4
_addmana$ = -344					; size = 4
_Helper$ = -340						; size = 4
_addlife$ = -336					; size = 4
tv8650 = -332						; size = 4
_Gloves$ = -332						; size = 4
_AddLeadership$ = -328					; size = 4
tv6277 = -324						; size = 4
_iAttackDamageStrengthMax$215046 = -324			; size = 4
tv6917 = -320						; size = 4
tv6906 = -320						; size = 4
tv5981 = -320						; size = 4
tv5979 = -320						; size = 4
_iAttackDamageEnergyMax$215052 = -320			; size = 4
_aIndex$GSCopy$ = -316					; size = 4
_Right$ = -312						; size = 4
_Left$ = -308						; size = 4
_Level10Count$ = -304					; size = 4
_iAttackDamageEnergyMin$215051 = -304			; size = 4
_Level15Count$ = -300					; size = 4
_iAttackDamageDexterityMin$215047 = -300		; size = 4
_Level14Count$ = -296					; size = 4
_iAttackDamageVitalityMin$215049 = -296			; size = 4
tv2861 = -289						; size = 1
_bLeft$ = -289						; size = 1
_Level12Count$ = -288					; size = 4
_bIsChangeItem$ = -288					; size = 4
_Vitality$ = -288					; size = 4
tv2941 = -281						; size = 1
_bRight$ = -281						; size = 1
_Level13Count$ = -280					; size = 4
_Strength$ = -280					; size = 4
tv5819 = -276						; size = 4
tv5816 = -276						; size = 4
tv5813 = -276						; size = 4
tv5810 = -276						; size = 4
_Level11Count$ = -276					; size = 4
_iItemIndex$ = -276					; size = 4
_Energy$ = -276						; size = 4
tv6764 = -272						; size = 4
tv6762 = -272						; size = 4
tv6755 = -272						; size = 4
tv6686 = -272						; size = 4
tv6418 = -272						; size = 4
tv6412 = -272						; size = 4
tv6406 = -272						; size = 4
tv6372 = -272						; size = 4
tv6370 = -272						; size = 4
tv6364 = -272						; size = 4
tv6362 = -272						; size = 4
tv6356 = -272						; size = 4
tv6354 = -272						; size = 4
tv6348 = -272						; size = 4
tv6346 = -272						; size = 4
tv6340 = -272						; size = 4
tv6338 = -272						; size = 4
tv6332 = -272						; size = 4
tv6330 = -272						; size = 4
tv6324 = -272						; size = 4
tv6322 = -272						; size = 4
tv6316 = -272						; size = 4
tv6314 = -272						; size = 4
tv6308 = -272						; size = 4
tv6306 = -272						; size = 4
tv6300 = -272						; size = 4
tv6298 = -272						; size = 4
tv6292 = -272						; size = 4
tv6290 = -272						; size = 4
tv6284 = -272						; size = 4
tv6282 = -272						; size = 4
tv5977 = -272						; size = 4
tv5975 = -272						; size = 4
tv5973 = -272						; size = 4
_Amulet$ = -272						; size = 4
_Dexterity$ = -268					; size = 4
tv6375 = -266						; size = 2
tv6367 = -266						; size = 2
tv6359 = -266						; size = 2
tv6351 = -266						; size = 2
tv6343 = -266						; size = 2
tv6335 = -266						; size = 2
tv6327 = -266						; size = 2
tv6319 = -266						; size = 2
tv6311 = -266						; size = 2
tv6303 = -266						; size = 2
tv6295 = -266						; size = 2
tv6287 = -266						; size = 2
tv6878 = -265						; size = 1
tv2901 = -261						; size = 1
_Success$ = -261					; size = 1
_szTemp$215014 = -260					; size = 256
__$ArrayPad$ = -4					; size = 4
_aIndex$ = 8						; size = 4
?gObjCalCharacter@@YAXH@Z PROC				; gObjCalCharacter, COMDAT

; 42   : {

  00000	55		 push	 ebp
  00001	8b ec		 mov	 ebp, esp
  00003	81 ec 64 01 00
	00		 sub	 esp, 356		; 00000164H
  00009	a1 00 00 00 00	 mov	 eax, DWORD PTR ___security_cookie
  0000e	33 c5		 xor	 eax, ebp
  00010	89 45 fc	 mov	 DWORD PTR __$ArrayPad$[ebp], eax
  00013	53		 push	 ebx
  00014	56		 push	 esi
  00015	8b 75 08	 mov	 esi, DWORD PTR _aIndex$[ebp]

; 43   : 	LPOBJ lpObj = &gObj[aIndex];
; 44   : 	int Strength = 0;
; 45   : 	int Dexterity = 0;
; 46   : 	int Vitality = 0;
; 47   : 	int Energy = 0;
; 48   : 	CItem * Right = &lpObj->pInventory[0];

  00018	89 b5 c4 fe ff
	ff		 mov	 DWORD PTR _aIndex$GSCopy$[ebp], esi
  0001e	69 f6 50 2b 00
	00		 imul	 esi, 11088		; 00002b50H
  00024	03 35 00 00 00
	00		 add	 esi, DWORD PTR ?gObj@@3PAUOBJECTSTRUCT@@A ; gObj
  0002a	57		 push	 edi
  0002b	8b 86 24 0e 00
	00		 mov	 eax, DWORD PTR [esi+3620]

; 49   : 	CItem * Left  = &lpObj->pInventory[1];
; 50   : 	CItem * Gloves = &lpObj->pInventory[5];

  00031	8d 88 24 04 00
	00		 lea	 ecx, DWORD PTR [eax+1060]
  00037	8b d8		 mov	 ebx, eax
  00039	8d b8 d4 00 00
	00		 lea	 edi, DWORD PTR [eax+212]

; 51   : 	CItem * Amulet = &lpObj->pInventory[9];

  0003f	8d 90 74 07 00
	00		 lea	 edx, DWORD PTR [eax+1908]
  00045	89 8d b4 fe ff
	ff		 mov	 DWORD PTR _Gloves$[ebp], ecx

; 52   : 	CItem * Helper = &lpObj->pInventory[8];

  0004b	05 a0 06 00 00	 add	 eax, 1696		; 000006a0H

; 53   : 	lpObj->HaveWeaponInHand = true;
; 54   : 
; 55   : 	if ( Right->IsItem() == FALSE && Left->IsItem() == FALSE )

  00050	8b cb		 mov	 ecx, ebx
  00052	89 9d c8 fe ff
	ff		 mov	 DWORD PTR _Right$[ebp], ebx
  00058	89 bd cc fe ff
	ff		 mov	 DWORD PTR _Left$[ebp], edi
  0005e	89 95 f0 fe ff
	ff		 mov	 DWORD PTR _Amulet$[ebp], edx
  00064	89 85 ac fe ff
	ff		 mov	 DWORD PTR _Helper$[ebp], eax
  0006a	c6 86 47 10 00
	00 01		 mov	 BYTE PTR [esi+4167], 1
  00071	e8 00 00 00 00	 call	 ?IsItem@CItem@@QAEHXZ	; CItem::IsItem
  00076	85 c0		 test	 eax, eax
  00078	75 0b		 jne	 SHORT $LN293@gObjCalCha
  0007a	8b cf		 mov	 ecx, edi
  0007c	e8 00 00 00 00	 call	 ?IsItem@CItem@@QAEHXZ	; CItem::IsItem
  00081	85 c0		 test	 eax, eax

; 56   : 	{
; 57   : 		lpObj->HaveWeaponInHand = false;

  00083	74 43		 je	 SHORT $LN511@gObjCalCha
$LN293@gObjCalCha:

; 58   : 	}
; 59   : 	else if ( Left->IsItem() == FALSE && Right->m_Type == ITEMGET(4,15) )

  00085	8b cf		 mov	 ecx, edi
  00087	e8 00 00 00 00	 call	 ?IsItem@CItem@@QAEHXZ	; CItem::IsItem
  0008c	85 c0		 test	 eax, eax
  0008e	75 0b		 jne	 SHORT $LN291@gObjCalCha
  00090	b8 0f 08 00 00	 mov	 eax, 2063		; 0000080fH
  00095	66 39 43 06	 cmp	 WORD PTR [ebx+6], ax

; 60   : 	{
; 61   : 		lpObj->HaveWeaponInHand = false;

  00099	74 2d		 je	 SHORT $LN511@gObjCalCha
$LN291@gObjCalCha:

; 62   : 	}
; 63   : 	else if ( Right->IsItem() == FALSE )

  0009b	8b cb		 mov	 ecx, ebx
  0009d	e8 00 00 00 00	 call	 ?IsItem@CItem@@QAEHXZ	; CItem::IsItem
  000a2	85 c0		 test	 eax, eax
  000a4	75 29		 jne	 SHORT $LN286@gObjCalCha

; 64   : 	{
; 65   : 		int iType = Left->m_Type / MAX_SUBTYPE_ITEMS;

  000a6	0f b7 4f 06	 movzx	 ecx, WORD PTR [edi+6]
  000aa	0f bf c1	 movsx	 eax, cx
  000ad	99		 cdq
  000ae	81 e2 ff 01 00
	00		 and	 edx, 511		; 000001ffH
  000b4	03 c2		 add	 eax, edx

; 66   : 
; 67   : 		if ( Left->m_Type == ITEMGET(4,7) )

  000b6	ba 07 08 00 00	 mov	 edx, 2055		; 00000807H
  000bb	c1 f8 09	 sar	 eax, 9
  000be	66 3b ca	 cmp	 cx, dx

; 68   : 		{
; 69   : 			lpObj->HaveWeaponInHand = false;

  000c1	74 05		 je	 SHORT $LN511@gObjCalCha

; 70   : 		}
; 71   : 		else if ( iType == 6 )

  000c3	83 f8 06	 cmp	 eax, 6
  000c6	75 07		 jne	 SHORT $LN286@gObjCalCha
$LN511@gObjCalCha:

; 72   : 		{
; 73   : 			lpObj->HaveWeaponInHand = false;

  000c8	c6 86 47 10 00
	00 00		 mov	 BYTE PTR [esi+4167], 0
$LN286@gObjCalCha:

; 74   : 		}
; 75   : 	}
; 76   : 
; 77   : 	lpObj->AddLife = 0;

  000cf	33 ff		 xor	 edi, edi

; 78   : 	lpObj->AddMana = 0;
; 79   : 	lpObj->MonsterDieGetMoney = 0;

  000d1	33 c0		 xor	 eax, eax
  000d3	89 be 4c 01 00
	00		 mov	 DWORD PTR [esi+332], edi
  000d9	89 be 50 01 00
	00		 mov	 DWORD PTR [esi+336], edi
  000df	89 86 72 01 00
	00		 mov	 DWORD PTR [esi+370], eax

; 80   : 	lpObj->MonsterDieGetLife = 0;
; 81   : 	lpObj->MonsterDieGetMana = 0;
; 82   : 	lpObj->DamageReflect = 0;

  000e5	66 89 86 70 01
	00 00		 mov	 WORD PTR [esi+368], ax

; 83   : 	lpObj->DamageMinus = 0;
; 84   : 	lpObj->SkillLongSpearChange = false;

  000ec	88 86 7a 12 00
	00		 mov	 BYTE PTR [esi+4730], al

; 85   : 
; 86   : 	lpObj->RecoveryHp = 0;

  000f2	89 be c0 27 00
	00		 mov	 DWORD PTR [esi+10176], edi

; 87   : 	lpObj->RecoverySd = 0;

  000f8	89 be c4 27 00
	00		 mov	 DWORD PTR [esi+10180], edi

; 88   : 	lpObj->RecoveryMp = 0;

  000fe	89 be c8 27 00
	00		 mov	 DWORD PTR [esi+10184], edi

; 89   : 	lpObj->RecoveryAg = 0;

  00104	89 be cc 27 00
	00		 mov	 DWORD PTR [esi+10188], edi

; 90   : 
; 91   : #if(CUSTOM_FLAGS)
; 92   : 	lpObj->m_ShowLag = 0;

  0010a	88 86 4c 2b 00
	00		 mov	 BYTE PTR [esi+11084], al

; 93   : #endif
; 94   : 	if ( lpObj->m_iItemEffectValidTime > 0 )

  00110	39 be 18 20 00
	00		 cmp	 DWORD PTR [esi+8216], edi
  00116	7e 0b		 jle	 SHORT $LL285@gObjCalCha

; 95   : 	{
; 96   : 		g_ItemAddOption.PrevSetItemLastEffectForHallowin(lpObj); //clear previous halloween effect (apply again later)

  00118	56		 push	 esi
  00119	b9 00 00 00 00	 mov	 ecx, OFFSET ?g_ItemAddOption@@3VCItemAddOption@@A ; g_ItemAddOption
  0011e	e8 00 00 00 00	 call	 ?PrevSetItemLastEffectForHallowin@CItemAddOption@@QAE_NPAUOBJECTSTRUCT@@@Z ; CItemAddOption::PrevSetItemLastEffectForHallowin
$LL285@gObjCalCha:

; 103  : 	{
; 104  : 		if ( lpObj->pInventory[iItemIndex].IsItem() != FALSE )

  00123	8b 8e 24 0e 00
	00		 mov	 ecx, DWORD PTR [esi+3620]
  00129	03 cf		 add	 ecx, edi
  0012b	e8 00 00 00 00	 call	 ?IsItem@CItem@@QAEHXZ	; CItem::IsItem
  00130	85 c0		 test	 eax, eax
  00132	74 0e		 je	 SHORT $LN283@gObjCalCha

; 105  : 		{
; 106  : 			lpObj->pInventory[iItemIndex].m_IsValidItem = true;

  00134	8b 8e 24 0e 00
	00		 mov	 ecx, DWORD PTR [esi+3620]
  0013a	c6 84 39 b0 00
	00 00 01	 mov	 BYTE PTR [ecx+edi+176], 1
$LN283@gObjCalCha:

; 97   : 	}
; 98   : 
; 99   : 	int iItemIndex;
; 100  : 	BOOL bIsChangeItem;
; 101  : 
; 102  : 	for ( iItemIndex=0; iItemIndex<MAX_PLAYER_EQUIPMENT;iItemIndex++)

  00142	81 c7 d4 00 00
	00		 add	 edi, 212		; 000000d4H
  00148	81 ff f0 09 00
	00		 cmp	 edi, 2544		; 000009f0H
  0014e	7c d3		 jl	 SHORT $LL285@gObjCalCha
$LL280@gObjCalCha:

; 107  : 		}
; 108  : 	}
; 109  : 
; 110  : 	do
; 111  : 	{
; 112  : 		lpObj->SetOpAddMaxAttackDamage = 0;
; 113  : 		lpObj->SetOpAddMinAttackDamage = 0;
; 114  : 		lpObj->SetOpAddDamage = 0;
; 115  : 		lpObj->SetOpIncAGValue = 0;
; 116  : 		lpObj->SetOpAddCriticalDamageSuccessRate = 0;

  00150	33 c0		 xor	 eax, eax
  00152	33 c9		 xor	 ecx, ecx
  00154	33 d2		 xor	 edx, edx
  00156	89 8e 2e 11 00
	00		 mov	 DWORD PTR [esi+4398], ecx

; 117  : 		lpObj->SetOpAddCriticalDamage = 0;
; 118  : 		lpObj->SetOpAddExDamageSuccessRate = 0;
; 119  : 		lpObj->SetOpAddExDamage = 0;
; 120  : 		lpObj->SetOpAddSkillAttack = 0;

  0015c	66 89 8e 24 11
	00 00		 mov	 WORD PTR [esi+4388], cx

; 121  : 		lpObj->AddStrength = 0;
; 122  : 		lpObj->AddDexterity = 0;
; 123  : 		lpObj->AddVitality = 0;

  00163	89 8e 24 01 00
	00		 mov	 DWORD PTR [esi+292], ecx

; 124  : 		lpObj->AddEnergy = 0;
; 125  : 		lpObj->AddLeadership = 0; //season4 add-on (wz fix o/)
; 126  : 		lpObj->AddBP = 0;

  00169	33 db		 xor	 ebx, ebx

; 127  : 		lpObj->iAddShield = 0;
; 128  : 		lpObj->SetOpAddAttackDamage = 0;

  0016b	89 8e 36 11 00
	00		 mov	 DWORD PTR [esi+4406], ecx
  00171	89 96 32 11 00
	00		 mov	 DWORD PTR [esi+4402], edx
  00177	89 86 2a 11 00
	00		 mov	 DWORD PTR [esi+4394], eax
  0017d	89 96 26 11 00
	00		 mov	 DWORD PTR [esi+4390], edx
  00183	89 96 20 01 00
	00		 mov	 DWORD PTR [esi+288], edx
  00189	66 89 86 1a 01
	00 00		 mov	 WORD PTR [esi+282], ax
  00190	89 9e 30 01 00
	00		 mov	 DWORD PTR [esi+304], ebx
  00196	89 9e 5c 01 00
	00		 mov	 DWORD PTR [esi+348], ebx

; 129  : 		lpObj->SetOpAddDefence = 0;
; 130  : 		lpObj->SetOpAddMagicPower = 0;

  0019c	89 86 3a 11 00
	00		 mov	 DWORD PTR [esi+4410], eax

; 131  : 		lpObj->SetOpAddDefenceRate = 0;
; 132  : 		lpObj->SetOpIgnoreDefense = 0;

  001a2	89 86 3e 11 00
	00		 mov	 DWORD PTR [esi+4414], eax

; 133  : 		lpObj->SetOpDoubleDamage = 0;
; 134  : 		lpObj->SetOpTwoHandSwordImproveDamage = 0;
; 135  : 		lpObj->SetOpImproveSuccessAttackRate = 0;
; 136  : 		lpObj->SetOpReflectionDamage = 0;

  001a8	89 86 42 11 00
	00		 mov	 DWORD PTR [esi+4418], eax

; 137  : 		lpObj->SetOpImproveSheldDefence = 0;
; 138  : 		lpObj->SetOpDecreaseAG = 0;
; 139  : 		lpObj->SetOpImproveItemDropRate = 0;
; 140  : 		lpObj->IsFullSetItem = false;

  001ae	88 86 46 11 00
	00		 mov	 BYTE PTR [esi+4422], al

; 141  : 
; 142  : 		memset(lpObj->m_AddResistance, 0, sizeof(lpObj->m_AddResistance));

  001b4	89 86 ff 04 00
	00		 mov	 DWORD PTR [esi+1279], eax
  001ba	66 89 86 03 05
	00 00		 mov	 WORD PTR [esi+1283], ax

; 143  : 
; 144  : 		bIsChangeItem = FALSE;
; 145  : 
; 146  : 		g_ItemAddOption.PrevSetItemLastEffectForCashShop(lpObj); //Clear Active CashShop Attributes (Leap Effect most in any case)

  001c1	56		 push	 esi
  001c2	b9 00 00 00 00	 mov	 ecx, OFFSET ?g_ItemAddOption@@3VCItemAddOption@@A ; g_ItemAddOption
  001c7	88 86 05 05 00
	00		 mov	 BYTE PTR [esi+1285], al
  001cd	89 9d e0 fe ff
	ff		 mov	 DWORD PTR _bIsChangeItem$[ebp], ebx
  001d3	e8 00 00 00 00	 call	 ?PrevSetItemLastEffectForCashShop@CItemAddOption@@QAE_NPAUOBJECTSTRUCT@@@Z ; CItemAddOption::PrevSetItemLastEffectForCashShop

; 147  : 		g_ViewportSkillState.PrevBuffLastEffect(lpObj); //Clear BuffEffect Attributes

  001d8	56		 push	 esi
  001d9	b9 00 00 00 00	 mov	 ecx, OFFSET ?g_ViewportSkillState@@3VCViewportSkillState@@A ; g_ViewportSkillState
  001de	e8 00 00 00 00	 call	 ?PrevBuffLastEffect@CViewportSkillState@@QAEXPAUOBJECTSTRUCT@@@Z ; CViewportSkillState::PrevBuffLastEffect

; 148  : 
; 149  : 		gObjCalcSetItemStat(lpObj);

  001e3	56		 push	 esi
  001e4	e8 00 00 00 00	 call	 ?gObjCalcSetItemStat@@YAXPAUOBJECTSTRUCT@@@Z ; gObjCalcSetItemStat

; 150  : 		gObjCalcSetItemOption(lpObj);

  001e9	56		 push	 esi
  001ea	e8 00 00 00 00	 call	 ?gObjCalcSetItemOption@@YAXPAUOBJECTSTRUCT@@@Z ; gObjCalcSetItemOption
  001ef	83 c4 08	 add	 esp, 8

; 151  : 
; 152  : 		for (iItemIndex=0;iItemIndex<MAX_PLAYER_EQUIPMENT;iItemIndex++)

  001f2	89 9d ec fe ff
	ff		 mov	 DWORD PTR _iItemIndex$[ebp], ebx
  001f8	eb 06 8d 9b 00
	00 00 00	 npad	 8
$LL467@gObjCalCha:

; 153  : 		{
; 154  : 			if ( lpObj->pInventory[iItemIndex].IsItem() != FALSE && lpObj->pInventory[iItemIndex].m_IsValidItem != false )

  00200	8b 8e 24 0e 00
	00		 mov	 ecx, DWORD PTR [esi+3620]
  00206	03 cb		 add	 ecx, ebx
  00208	e8 00 00 00 00	 call	 ?IsItem@CItem@@QAEHXZ	; CItem::IsItem
  0020d	85 c0		 test	 eax, eax
  0020f	74 4b		 je	 SHORT $LN276@gObjCalCha
  00211	8b be 24 0e 00
	00		 mov	 edi, DWORD PTR [esi+3620]
  00217	03 fb		 add	 edi, ebx
  00219	80 bf b0 00 00
	00 00		 cmp	 BYTE PTR [edi+176], 0
  00220	74 3a		 je	 SHORT $LN276@gObjCalCha

; 155  : 			{
; 156  : 				if ( gObjValidItem( lpObj, &lpObj->pInventory[iItemIndex], iItemIndex) != FALSE )

  00222	8b 85 ec fe ff
	ff		 mov	 eax, DWORD PTR _iItemIndex$[ebp]
  00228	50		 push	 eax
  00229	57		 push	 edi
  0022a	56		 push	 esi
  0022b	e8 00 00 00 00	 call	 ?gObjValidItem@@YAHPAUOBJECTSTRUCT@@PAVCItem@@H@Z ; gObjValidItem
  00230	83 c4 0c	 add	 esp, 12			; 0000000cH
  00233	85 c0		 test	 eax, eax
  00235	74 09		 je	 SHORT $LN273@gObjCalCha

; 157  : 				{
; 158  : 					lpObj->pInventory[iItemIndex].m_IsValidItem = true;

  00237	c6 87 b0 00 00
	00 01		 mov	 BYTE PTR [edi+176], 1

; 159  : 				}
; 160  : 				else

  0023e	eb 1c		 jmp	 SHORT $LN276@gObjCalCha
$LN273@gObjCalCha:

; 161  : 				{
; 162  : 					lpObj->pInventory[iItemIndex].m_IsValidItem  = false;
; 163  : 					g_ViewportSkillState.CalCharacterRemoveBuffEffect(lpObj); //season4 add-on

  00240	56		 push	 esi
  00241	b9 00 00 00 00	 mov	 ecx, OFFSET ?g_ViewportSkillState@@3VCViewportSkillState@@A ; g_ViewportSkillState
  00246	c6 87 b0 00 00
	00 00		 mov	 BYTE PTR [edi+176], 0
  0024d	e8 00 00 00 00	 call	 ?CalCharacterRemoveBuffEffect@CViewportSkillState@@QAEXPAUOBJECTSTRUCT@@@Z ; CViewportSkillState::CalCharacterRemoveBuffEffect

; 164  : 					bIsChangeItem = TRUE;

  00252	c7 85 e0 fe ff
	ff 01 00 00 00	 mov	 DWORD PTR _bIsChangeItem$[ebp], 1
$LN276@gObjCalCha:

; 151  : 
; 152  : 		for (iItemIndex=0;iItemIndex<MAX_PLAYER_EQUIPMENT;iItemIndex++)

  0025c	ff 85 ec fe ff
	ff		 inc	 DWORD PTR _iItemIndex$[ebp]
  00262	81 c3 d4 00 00
	00		 add	 ebx, 212		; 000000d4H
  00268	81 fb f0 09 00
	00		 cmp	 ebx, 2544		; 000009f0H
  0026e	7c 90		 jl	 SHORT $LL467@gObjCalCha

; 165  : 				}
; 166  : 			}
; 167  : 		}
; 168  : 	}
; 169  : 	while ( bIsChangeItem != FALSE );

  00270	83 bd e0 fe ff
	ff 00		 cmp	 DWORD PTR _bIsChangeItem$[ebp], 0
  00277	0f 85 d3 fe ff
	ff		 jne	 $LL280@gObjCalCha

; 170  : 
; 171  : 	if(g_ZtLicense.user.Rage)

  0027d	80 3d cd 00 00
	00 00		 cmp	 BYTE PTR ?g_ZtLicense@@3VCZtLicense@@A+205, 0
  00284	74 11		 je	 SHORT $LN271@gObjCalCha

; 172  : 	{
; 173  : 		gSystemOfRage.CalcStats(aIndex);

  00286	8b 8d c4 fe ff
	ff		 mov	 ecx, DWORD PTR _aIndex$GSCopy$[ebp]
  0028c	51		 push	 ecx
  0028d	b9 00 00 00 00	 mov	 ecx, OFFSET ?gSystemOfRage@@3VcSystemOfRage@@A ; gSystemOfRage
  00292	e8 00 00 00 00	 call	 ?CalcStats@cSystemOfRage@@QAEXH@Z ; cSystemOfRage::CalcStats
$LN271@gObjCalCha:

; 174  : 	}
; 175  : 
; 176  : 	Strength = lpObj->Strength + lpObj->AddStrength;

  00297	0f bf 86 20 01
	00 00		 movsx	 eax, WORD PTR [esi+288]
  0029e	0f b7 8e f4 00
	00 00		 movzx	 ecx, WORD PTR [esi+244]

; 177  : 	Dexterity = lpObj->Dexterity + lpObj->AddDexterity;

  002a5	0f b7 be f6 00
	00 00		 movzx	 edi, WORD PTR [esi+246]

; 178  : 	Vitality = lpObj->Vitality + lpObj->AddVitality;

  002ac	0f b7 9e f8 00
	00 00		 movzx	 ebx, WORD PTR [esi+248]
  002b3	8d 14 01	 lea	 edx, DWORD PTR [ecx+eax]
  002b6	89 95 e8 fe ff
	ff		 mov	 DWORD PTR _Strength$[ebp], edx
  002bc	0f bf 96 22 01
	00 00		 movsx	 edx, WORD PTR [esi+290]
  002c3	03 fa		 add	 edi, edx
  002c5	89 bd f4 fe ff
	ff		 mov	 DWORD PTR _Dexterity$[ebp], edi
  002cb	0f bf be 24 01
	00 00		 movsx	 edi, WORD PTR [esi+292]
  002d2	03 fb		 add	 edi, ebx

; 179  : 	Energy = lpObj->Energy + lpObj->AddEnergy; //loc5

  002d4	0f b7 9e fa 00
	00 00		 movzx	 ebx, WORD PTR [esi+250]
  002db	89 bd e0 fe ff
	ff		 mov	 DWORD PTR _Vitality$[ebp], edi
  002e1	0f bf be 26 01
	00 00		 movsx	 edi, WORD PTR [esi+294]
  002e8	03 fb		 add	 edi, ebx

; 180  : 
; 181  : 	if(g_bAbilityDebug == 1) //season3 add-on for GM

  002ea	83 3d 00 00 00
	00 01		 cmp	 DWORD PTR ?g_bAbilityDebug@@3HA, 1 ; g_bAbilityDebug
  002f1	89 bd ec fe ff
	ff		 mov	 DWORD PTR _Energy$[ebp], edi
  002f7	0f 85 cd 00 00
	00		 jne	 $LN270@gObjCalCha

; 182  : 	{
; 183  : 		char szTemp[256];
; 184  : 		
; 185  : 		sprintf(szTemp, "Strength: %d,%d    Dexterity: %d,%d", lpObj->Strength, lpObj->AddStrength, lpObj->Dexterity, lpObj->AddDexterity);

  002fd	52		 push	 edx
  002fe	0f b7 96 f6 00
	00 00		 movzx	 edx, WORD PTR [esi+246]
  00305	52		 push	 edx
  00306	50		 push	 eax
  00307	51		 push	 ecx
  00308	8d 85 fc fe ff
	ff		 lea	 eax, DWORD PTR _szTemp$215014[ebp]
  0030e	68 00 00 00 00	 push	 OFFSET ??_C@_0CE@OBLIFBFL@Strength?3?5?$CFd?0?$CFd?5?5?5?5Dexterity?3?5?$CFd@
  00313	50		 push	 eax
  00314	e8 00 00 00 00	 call	 _sprintf

; 186  : 		GCServerMsgStringSend(szTemp, lpObj->m_Index, 1);

  00319	8b 0e		 mov	 ecx, DWORD PTR [esi]
  0031b	6a 01		 push	 1
  0031d	51		 push	 ecx
  0031e	8d 95 fc fe ff
	ff		 lea	 edx, DWORD PTR _szTemp$215014[ebp]
  00324	52		 push	 edx
  00325	e8 00 00 00 00	 call	 ?GCServerMsgStringSend@@YAXPADHE@Z ; GCServerMsgStringSend

; 187  : 
; 188  : 		memset(szTemp, 0, 256);

  0032a	68 00 01 00 00	 push	 256			; 00000100H
  0032f	8d 85 fc fe ff
	ff		 lea	 eax, DWORD PTR _szTemp$215014[ebp]
  00335	6a 00		 push	 0
  00337	50		 push	 eax
  00338	e8 00 00 00 00	 call	 _memset

; 189  : 
; 190  : 		sprintf(szTemp, "Vitality: %d,%d    Energy: %d,%d", lpObj->Vitality, lpObj->AddVitality, lpObj->Energy, lpObj->AddEnergy);

  0033d	0f bf 8e 26 01
	00 00		 movsx	 ecx, WORD PTR [esi+294]
  00344	0f b7 96 fa 00
	00 00		 movzx	 edx, WORD PTR [esi+250]
  0034b	0f bf 86 24 01
	00 00		 movsx	 eax, WORD PTR [esi+292]
  00352	51		 push	 ecx
  00353	0f b7 8e f8 00
	00 00		 movzx	 ecx, WORD PTR [esi+248]
  0035a	52		 push	 edx
  0035b	50		 push	 eax
  0035c	51		 push	 ecx
  0035d	8d 95 fc fe ff
	ff		 lea	 edx, DWORD PTR _szTemp$215014[ebp]
  00363	68 00 00 00 00	 push	 OFFSET ??_C@_0CB@KNPOLDNB@Vitality?3?5?$CFd?0?$CFd?5?5?5?5Energy?3?5?$CFd?0?$CFd@
  00368	52		 push	 edx
  00369	e8 00 00 00 00	 call	 _sprintf

; 191  : 		GCServerMsgStringSend(szTemp, lpObj->m_Index, 1);

  0036e	8b 06		 mov	 eax, DWORD PTR [esi]
  00370	83 c4 48	 add	 esp, 72			; 00000048H
  00373	6a 01		 push	 1
  00375	50		 push	 eax
  00376	8d 8d fc fe ff
	ff		 lea	 ecx, DWORD PTR _szTemp$215014[ebp]
  0037c	51		 push	 ecx
  0037d	e8 00 00 00 00	 call	 ?GCServerMsgStringSend@@YAXPADHE@Z ; GCServerMsgStringSend

; 192  : 
; 193  : 		//season4 add-on
; 194  : 		memset(szTemp, 0, 256);

  00382	68 00 01 00 00	 push	 256			; 00000100H
  00387	8d 95 fc fe ff
	ff		 lea	 edx, DWORD PTR _szTemp$215014[ebp]
  0038d	6a 00		 push	 0
  0038f	52		 push	 edx
  00390	e8 00 00 00 00	 call	 _memset

; 195  : 
; 196  : 		sprintf(szTemp, "Leadership: %d,%d", lpObj->Leadership, lpObj->AddLeadership);

  00395	0f b7 86 1a 01
	00 00		 movzx	 eax, WORD PTR [esi+282]
  0039c	0f b7 8e 18 01
	00 00		 movzx	 ecx, WORD PTR [esi+280]
  003a3	50		 push	 eax
  003a4	51		 push	 ecx
  003a5	8d 95 fc fe ff
	ff		 lea	 edx, DWORD PTR _szTemp$215014[ebp]
  003ab	68 00 00 00 00	 push	 OFFSET ??_C@_0BC@GFGEFHFO@Leadership?3?5?$CFd?0?$CFd?$AA@
  003b0	52		 push	 edx
  003b1	e8 00 00 00 00	 call	 _sprintf

; 197  : 		GCServerMsgStringSend(szTemp, lpObj->m_Index, 1);

  003b6	8b 06		 mov	 eax, DWORD PTR [esi]
  003b8	6a 01		 push	 1
  003ba	50		 push	 eax
  003bb	8d 8d fc fe ff
	ff		 lea	 ecx, DWORD PTR _szTemp$215014[ebp]
  003c1	51		 push	 ecx
  003c2	e8 00 00 00 00	 call	 ?GCServerMsgStringSend@@YAXPADHE@Z ; GCServerMsgStringSend
  003c7	83 c4 34	 add	 esp, 52			; 00000034H
$LN270@gObjCalCha:

; 198  : 	}
; 199  : 
; 200  : 	if ( lpObj->Class == CLASS_ELF )

  003ca	0f b7 86 b8 00
	00 00		 movzx	 eax, WORD PTR [esi+184]
  003d1	83 f8 02	 cmp	 eax, 2
  003d4	0f 85 9c 03 00
	00		 jne	 $LN269@gObjCalCha

; 201  : 	{
; 202  : 		/*if ( (Right->m_Type >= ITEMGET(4,8) && Right->m_Type < ITEMGET(4,15) ) ||
; 203  : 			 (Left->m_Type >= ITEMGET(4,0) && Left->m_Type < ITEMGET(4,7)) ||
; 204  : 			  Right->m_Type == ITEMGET(4,16) ||
; 205  : 			  Left->m_Type == ITEMGET(4,20) ||
; 206  : 			  Left->m_Type == ITEMGET(4,21) || Left->m_Type == ITEMGET(4,22) || //loc7 Item 4,22 Add-on Season 2.5 GS-CS 56 (Albatross Fix)
; 207  : 			  Left->m_Type == ITEMGET(4,23) || //season4 add-on
; 208  : 			  Right->m_Type == ITEMGET(4,18) ||
; 209  : 			  Right->m_Type == ITEMGET(4,19) ||
; 210  : 			  Left->m_Type == ITEMGET(4,17) )*/
; 211  : 
; 212  : 		if((Right->m_Type >= ITEMGET(4,0) && Right->m_Type < ITEMGET(5,0)) || 
; 213  : 		   (Left->m_Type >= ITEMGET(4,0) && Left->m_Type < ITEMGET(5,0)))

  003da	8b 95 c8 fe ff
	ff		 mov	 edx, DWORD PTR _Right$[ebp]
  003e0	0f b7 42 06	 movzx	 eax, WORD PTR [edx+6]
  003e4	b9 00 08 00 00	 mov	 ecx, 2048		; 00000800H
  003e9	66 3b c1	 cmp	 ax, cx
  003ec	7c 0a		 jl	 SHORT $LN266@gObjCalCha
  003ee	ba 00 0a 00 00	 mov	 edx, 2560		; 00000a00H
  003f3	66 3b c2	 cmp	 ax, dx
  003f6	7c 21		 jl	 SHORT $LN267@gObjCalCha
$LN266@gObjCalCha:
  003f8	8b 85 cc fe ff
	ff		 mov	 eax, DWORD PTR _Left$[ebp]
  003fe	0f b7 40 06	 movzx	 eax, WORD PTR [eax+6]
  00402	66 3b c1	 cmp	 ax, cx
  00405	0f 8c 21 01 00
	00		 jl	 $LN268@gObjCalCha
  0040b	ba 00 0a 00 00	 mov	 edx, 2560		; 00000a00H
  00410	66 3b c2	 cmp	 ax, dx
  00413	0f 8d 13 01 00
	00		 jge	 $LN268@gObjCalCha
$LN267@gObjCalCha:

; 214  : 		{
; 215  : 			if ( (Right->IsItem() != FALSE && Right->m_IsValidItem == false) || (Left->IsItem() != FALSE && Left->m_IsValidItem == false) )

  00419	8b bd c8 fe ff
	ff		 mov	 edi, DWORD PTR _Right$[ebp]
  0041f	8b cf		 mov	 ecx, edi
  00421	e8 00 00 00 00	 call	 ?IsItem@CItem@@QAEHXZ	; CItem::IsItem
  00426	85 c0		 test	 eax, eax
  00428	74 09		 je	 SHORT $LN263@gObjCalCha
  0042a	80 bf b0 00 00
	00 00		 cmp	 BYTE PTR [edi+176], 0
  00431	74 1a		 je	 SHORT $LN264@gObjCalCha
$LN263@gObjCalCha:
  00433	8b bd cc fe ff
	ff		 mov	 edi, DWORD PTR _Left$[ebp]
  00439	8b cf		 mov	 ecx, edi
  0043b	e8 00 00 00 00	 call	 ?IsItem@CItem@@QAEHXZ	; CItem::IsItem
  00440	85 c0		 test	 eax, eax
  00442	74 54		 je	 SHORT $LN265@gObjCalCha
  00444	80 bf b0 00 00
	00 00		 cmp	 BYTE PTR [edi+176], 0
  0044b	75 4b		 jne	 SHORT $LN265@gObjCalCha
$LN264@gObjCalCha:

; 216  : 			{
; 217  : 				//int DamageMax_Bow_StrDexRight = GetPrivateProfileInt("Fairy_Elf","DamageMax_Bow_StrDexRight",4,"..\\Data\\ZtData\\Character.ini");
; 218  : 				//int DamageMin_Bow_StrDexRight = GetPrivateProfileInt("Fairy_Elf","DamageMin_Bow_StrDexRight",7,"..\\Data\\ZtData\\Character.ini");
; 219  : 				//int DamageMax_Bow_StrDexLeft = GetPrivateProfileInt("Fairy_Elf","DamageMax_Bow_StrDexLeft",4,"..\\Data\\ZtData\\Character.ini");
; 220  : 				//int DamageMin_Bow_StrDexLeft = GetPrivateProfileInt("Fairy_Elf","DamageMin_Bow_StrDexLeft",7,"..\\Data\\ZtData\\Character.ini");
; 221  : 				lpObj->m_AttackDamageMinRight = (Dexterity + Strength ) / ZtConfig.Character.ELFDamageMin_Bow_StrDexRight;	//7

  0044d	8b 8d e8 fe ff
	ff		 mov	 ecx, DWORD PTR _Strength$[ebp]
  00453	03 8d f4 fe ff
	ff		 add	 ecx, DWORD PTR _Dexterity$[ebp]
  00459	8d be 84 04 00
	00		 lea	 edi, DWORD PTR [esi+1156]
  0045f	8b c1		 mov	 eax, ecx
  00461	99		 cdq
  00462	f7 3d 9c 01 00
	00		 idiv	 DWORD PTR ?ZtConfig@@3VcZtConfigs@@A+412

; 222  : 				lpObj->m_AttackDamageMaxRight = (Dexterity + Strength ) / ZtConfig.Character.ELFDamageMax_Bow_StrDexRight;	//4

  00468	8d 9e 80 04 00
	00		 lea	 ebx, DWORD PTR [esi+1152]
  0046e	89 07		 mov	 DWORD PTR [edi], eax
  00470	8b c1		 mov	 eax, ecx
  00472	99		 cdq
  00473	f7 3d 98 01 00
	00		 idiv	 DWORD PTR ?ZtConfig@@3VcZtConfigs@@A+408
  00479	89 03		 mov	 DWORD PTR [ebx], eax

; 223  : 				lpObj->m_AttackDamageMinLeft = (Dexterity + Strength ) / ZtConfig.Character.ELFDamageMin_Bow_StrDexLeft;		//7

  0047b	8b c1		 mov	 eax, ecx
  0047d	99		 cdq
  0047e	f7 3d a4 01 00
	00		 idiv	 DWORD PTR ?ZtConfig@@3VcZtConfigs@@A+420
  00484	89 86 7c 04 00
	00		 mov	 DWORD PTR [esi+1148], eax

; 224  : 				lpObj->m_AttackDamageMaxLeft = (Dexterity + Strength ) / ZtConfig.Character.ELFDamageMax_Bow_StrDexLeft;		//4

  0048a	8b c1		 mov	 eax, ecx
  0048c	99		 cdq
  0048d	f7 3d a0 01 00
	00		 idiv	 DWORD PTR ?ZtConfig@@3VcZtConfigs@@A+416

; 225  : 			}
; 226  : 			else

  00493	e9 da 00 00 00	 jmp	 $LN512@gObjCalCha
$LN265@gObjCalCha:

; 227  : 			{
; 228  : 				//int DamageMax_NoBow_StrRight = GetPrivateProfileInt("Fairy_Elf","DamageMax_NoBow_StrRight",8,"..\\Data\\ZtData\\Character.ini");
; 229  : 				//int DamageMax_NoBow_DexRight = GetPrivateProfileInt("Fairy_Elf","DamageMax_NoBow_DexRight",4,"..\\Data\\ZtData\\Character.ini");
; 230  : 				//int DamageMin_NoBow_StrRight = GetPrivateProfileInt("Fairy_Elf","DamageMin_NoBow_StrRight",14,"..\\Data\\ZtData\\Character.ini");
; 231  : 				//int DamageMin_NoBow_DexRight = GetPrivateProfileInt("Fairy_Elf","DamageMin_NoBow_DexRight",7,"..\\Data\\ZtData\\Character.ini");
; 232  : 
; 233  : 				//int DamageMax_NoBow_StrLeft = GetPrivateProfileInt("Fairy_Elf","DamageMax_NoBow_StrLeft",8,"..\\Data\\ZtData\\Character.ini");
; 234  : 				//int DamageMax_NoBow_DexLeft = GetPrivateProfileInt("Fairy_Elf","DamageMax_NoBow_DexLeft",4,"..\\Data\\ZtData\\Character.ini");
; 235  : 				//int DamageMin_NoBow_StrLeft = GetPrivateProfileInt("Fairy_Elf","DamageMin_NoBow_StrLeft",14,"..\\Data\\ZtData\\Character.ini");
; 236  : 				//int DamageMin_NoBow_DexLeft = GetPrivateProfileInt("Fairy_Elf","DamageMin_NoBow_DexLeft",7,"..\\Data\\ZtData\\Character.ini");
; 237  : 
; 238  : 				lpObj->m_AttackDamageMinRight = (Dexterity / ZtConfig.Character.ELFDamageMin_NoBow_DexRight) + (Strength / ZtConfig.Character.ELFDamageMin_NoBow_StrRight);

  00498	8b 8d e8 fe ff
	ff		 mov	 ecx, DWORD PTR _Strength$[ebp]
  0049e	8b c1		 mov	 eax, ecx
  004a0	99		 cdq
  004a1	f7 3d b0 01 00
	00		 idiv	 DWORD PTR ?ZtConfig@@3VcZtConfigs@@A+432
  004a7	8d be 84 04 00
	00		 lea	 edi, DWORD PTR [esi+1156]
  004ad	8b d8		 mov	 ebx, eax
  004af	8b 85 f4 fe ff
	ff		 mov	 eax, DWORD PTR _Dexterity$[ebp]
  004b5	99		 cdq
  004b6	f7 3d b4 01 00
	00		 idiv	 DWORD PTR ?ZtConfig@@3VcZtConfigs@@A+436
  004bc	03 d8		 add	 ebx, eax

; 239  : 				lpObj->m_AttackDamageMaxRight = (Dexterity / ZtConfig.Character.ELFDamageMax_NoBow_DexRight) + (Strength / ZtConfig.Character.ELFDamageMax_NoBow_StrRight );

  004be	8b c1		 mov	 eax, ecx
  004c0	99		 cdq
  004c1	89 1f		 mov	 DWORD PTR [edi], ebx
  004c3	f7 3d a8 01 00
	00		 idiv	 DWORD PTR ?ZtConfig@@3VcZtConfigs@@A+424
  004c9	8d 9e 80 04 00
	00		 lea	 ebx, DWORD PTR [esi+1152]
  004cf	8b c8		 mov	 ecx, eax
  004d1	8b 85 f4 fe ff
	ff		 mov	 eax, DWORD PTR _Dexterity$[ebp]
  004d7	99		 cdq
  004d8	f7 3d ac 01 00
	00		 idiv	 DWORD PTR ?ZtConfig@@3VcZtConfigs@@A+428
  004de	03 c8		 add	 ecx, eax

; 240  : 				lpObj->m_AttackDamageMinLeft = (Dexterity / ZtConfig.Character.ELFDamageMin_NoBow_DexLeft) + (Strength / ZtConfig.Character.ELFDamageMin_NoBow_StrLeft);

  004e0	8b 85 e8 fe ff
	ff		 mov	 eax, DWORD PTR _Strength$[ebp]
  004e6	99		 cdq
  004e7	89 0b		 mov	 DWORD PTR [ebx], ecx
  004e9	f7 3d c0 01 00
	00		 idiv	 DWORD PTR ?ZtConfig@@3VcZtConfigs@@A+448
  004ef	8b c8		 mov	 ecx, eax
  004f1	8b 85 f4 fe ff
	ff		 mov	 eax, DWORD PTR _Dexterity$[ebp]
  004f7	99		 cdq
  004f8	f7 3d c4 01 00
	00		 idiv	 DWORD PTR ?ZtConfig@@3VcZtConfigs@@A+452
  004fe	03 c8		 add	 ecx, eax

; 241  : 				lpObj->m_AttackDamageMaxLeft = (Dexterity / ZtConfig.Character.ELFDamageMax_NoBow_DexLeft) + (Strength / ZtConfig.Character.ELFDamageMax_NoBow_StrLeft );

  00500	8b 85 e8 fe ff
	ff		 mov	 eax, DWORD PTR _Strength$[ebp]
  00506	99		 cdq
  00507	89 8e 7c 04 00
	00		 mov	 DWORD PTR [esi+1148], ecx
  0050d	f7 3d b8 01 00
	00		 idiv	 DWORD PTR ?ZtConfig@@3VcZtConfigs@@A+440
  00513	8b c8		 mov	 ecx, eax
  00515	8b 85 f4 fe ff
	ff		 mov	 eax, DWORD PTR _Dexterity$[ebp]
  0051b	99		 cdq
  0051c	f7 3d bc 01 00
	00		 idiv	 DWORD PTR ?ZtConfig@@3VcZtConfigs@@A+444
  00522	03 c8		 add	 ecx, eax
  00524	89 8e 78 04 00
	00		 mov	 DWORD PTR [esi+1144], ecx

; 242  : 			}
; 243  : 		}
; 244  : 		else

  0052a	eb 4c		 jmp	 SHORT $LN261@gObjCalCha
$LN268@gObjCalCha:

; 245  : 		{
; 246  : 			//int DamageMax_DexStrRight = GetPrivateProfileInt("Fairy_Elf","DamageMax_DexStrRight",4,"..\\Data\\ZtData\\Character.ini");
; 247  : 			//int DamageMin_DexStrRight = GetPrivateProfileInt("Fairy_Elf","DamageMin_DexStrRight",7,"..\\Data\\ZtData\\Character.ini");
; 248  : 			//int DamageMax_DexStrLeft = GetPrivateProfileInt("Fairy_Elf","DamageMax_DexStrLeft",4,"..\\Data\\ZtData\\Character.ini");
; 249  : 			//int DamageMin_DexStrLeft = GetPrivateProfileInt("Fairy_Elf","DamageMin_DexStrLeft",7,"..\\Data\\ZtData\\Character.ini");
; 250  : 
; 251  : 			lpObj->m_AttackDamageMinRight = (Dexterity + Strength) / ZtConfig.Character.ELFDamageMin_DexStrRight;	// 7

  0052c	8b 8d f4 fe ff
	ff		 mov	 ecx, DWORD PTR _Dexterity$[ebp]
  00532	03 8d e8 fe ff
	ff		 add	 ecx, DWORD PTR _Strength$[ebp]
  00538	8d be 84 04 00
	00		 lea	 edi, DWORD PTR [esi+1156]
  0053e	8b c1		 mov	 eax, ecx
  00540	99		 cdq
  00541	f7 3d cc 01 00
	00		 idiv	 DWORD PTR ?ZtConfig@@3VcZtConfigs@@A+460

; 252  : 			lpObj->m_AttackDamageMaxRight = (Dexterity + Strength) / ZtConfig.Character.ELFDamageMax_DexStrRight;	// 4

  00547	8d 9e 80 04 00
	00		 lea	 ebx, DWORD PTR [esi+1152]
  0054d	89 07		 mov	 DWORD PTR [edi], eax
  0054f	8b c1		 mov	 eax, ecx
  00551	99		 cdq
  00552	f7 3d c8 01 00
	00		 idiv	 DWORD PTR ?ZtConfig@@3VcZtConfigs@@A+456
  00558	89 03		 mov	 DWORD PTR [ebx], eax

; 253  : 			lpObj->m_AttackDamageMinLeft = (Dexterity + Strength) / ZtConfig.Character.ELFDamageMin_DexStrLeft;	// 7

  0055a	8b c1		 mov	 eax, ecx
  0055c	99		 cdq
  0055d	f7 3d d4 01 00
	00		 idiv	 DWORD PTR ?ZtConfig@@3VcZtConfigs@@A+468
  00563	89 86 7c 04 00
	00		 mov	 DWORD PTR [esi+1148], eax

; 254  : 			lpObj->m_AttackDamageMaxLeft = (Dexterity + Strength) / ZtConfig.Character.ELFDamageMax_DexStrLeft;	// 4

  00569	8b c1		 mov	 eax, ecx
  0056b	99		 cdq
  0056c	f7 3d d0 01 00
	00		 idiv	 DWORD PTR ?ZtConfig@@3VcZtConfigs@@A+464
$LN512@gObjCalCha:
  00572	89 86 78 04 00
	00		 mov	 DWORD PTR [esi+1144], eax
$LN261@gObjCalCha:

; 255  : 		}
; 256  : 	
; 257  : 		if (g_ZtLicense.CheckUser(eZtUB::ulasevich) || g_ZtLicense.CheckUser(eZtUB::ulasevich2))

  00578	6a 17		 push	 23			; 00000017H
  0057a	b9 00 00 00 00	 mov	 ecx, OFFSET ?g_ZtLicense@@3VCZtLicense@@A ; g_ZtLicense
  0057f	e8 00 00 00 00	 call	 ?CheckUser@CZtLicense@@QAE_NH@Z ; CZtLicense::CheckUser
  00584	84 c0		 test	 al, al
  00586	75 14		 jne	 SHORT $LN259@gObjCalCha
  00588	6a 24		 push	 36			; 00000024H
  0058a	b9 00 00 00 00	 mov	 ecx, OFFSET ?g_ZtLicense@@3VCZtLicense@@A ; g_ZtLicense
  0058f	e8 00 00 00 00	 call	 ?CheckUser@CZtLicense@@QAE_NH@Z ; CZtLicense::CheckUser
  00594	84 c0		 test	 al, al
  00596	0f 84 38 01 00
	00		 je	 $LN260@gObjCalCha
$LN259@gObjCalCha:

; 258  : 		{
; 259  : 			int iAttackDamageStrengthMin = 0;
; 260  : 			int iAttackDamageStrengthMax = 0;
; 261  : 			int iAttackDamageDexterityMin = 0;
; 262  : 			int iAttackDamageDexterityMax = 0;
; 263  : 			int iAttackDamageVitalityMin = 0;
; 264  : 			int iAttackDamageVitalityMax = 0;
; 265  : 			int iAttackDamageEnergyMin = 0;
; 266  : 			int iAttackDamageEnergyMax = 0;
; 267  : 
; 268  : 			if(ZtConfig.Character.AEAttackDamageStrengthMin > 0)

  0059c	8b 0d 10 03 00
	00		 mov	 ecx, DWORD PTR ?ZtConfig@@3VcZtConfigs@@A+784
  005a2	33 c0		 xor	 eax, eax
  005a4	89 85 9c fe ff
	ff		 mov	 DWORD PTR _iAttackDamageStrengthMin$215045[ebp], eax
  005aa	89 85 bc fe ff
	ff		 mov	 DWORD PTR _iAttackDamageStrengthMax$215046[ebp], eax
  005b0	89 85 d4 fe ff
	ff		 mov	 DWORD PTR _iAttackDamageDexterityMin$215047[ebp], eax
  005b6	89 85 a0 fe ff
	ff		 mov	 DWORD PTR _iAttackDamageDexterityMax$215048[ebp], eax
  005bc	89 85 d8 fe ff
	ff		 mov	 DWORD PTR _iAttackDamageVitalityMin$215049[ebp], eax
  005c2	89 85 a4 fe ff
	ff		 mov	 DWORD PTR _iAttackDamageVitalityMax$215050[ebp], eax
  005c8	89 85 d0 fe ff
	ff		 mov	 DWORD PTR _iAttackDamageEnergyMin$215051[ebp], eax
  005ce	89 85 c0 fe ff
	ff		 mov	 DWORD PTR _iAttackDamageEnergyMax$215052[ebp], eax
  005d4	3b c8		 cmp	 ecx, eax
  005d6	7e 0f		 jle	 SHORT $LN258@gObjCalCha

; 269  : 			{
; 270  : 				iAttackDamageStrengthMin = Strength / ZtConfig.Character.AEAttackDamageStrengthMin;

  005d8	8b 85 e8 fe ff
	ff		 mov	 eax, DWORD PTR _Strength$[ebp]
  005de	99		 cdq
  005df	f7 f9		 idiv	 ecx
  005e1	89 85 9c fe ff
	ff		 mov	 DWORD PTR _iAttackDamageStrengthMin$215045[ebp], eax
$LN258@gObjCalCha:

; 271  : 			}
; 272  : 
; 273  : 			if(ZtConfig.Character.AEAttackDamageStrengthMax > 0)

  005e7	8b 0d 14 03 00
	00		 mov	 ecx, DWORD PTR ?ZtConfig@@3VcZtConfigs@@A+788
  005ed	85 c9		 test	 ecx, ecx
  005ef	7e 0f		 jle	 SHORT $LN257@gObjCalCha

; 274  : 			{
; 275  : 				iAttackDamageStrengthMax = Strength / ZtConfig.Character.AEAttackDamageStrengthMax;

  005f1	8b 85 e8 fe ff
	ff		 mov	 eax, DWORD PTR _Strength$[ebp]
  005f7	99		 cdq
  005f8	f7 f9		 idiv	 ecx
  005fa	89 85 bc fe ff
	ff		 mov	 DWORD PTR _iAttackDamageStrengthMax$215046[ebp], eax
$LN257@gObjCalCha:

; 276  : 			}
; 277  : 
; 278  : 			if(ZtConfig.Character.AEAttackDamageDexterityMin > 0)

  00600	8b 0d 18 03 00
	00		 mov	 ecx, DWORD PTR ?ZtConfig@@3VcZtConfigs@@A+792
  00606	85 c9		 test	 ecx, ecx
  00608	7e 0f		 jle	 SHORT $LN256@gObjCalCha

; 279  : 			{
; 280  : 				iAttackDamageDexterityMin = Dexterity / ZtConfig.Character.AEAttackDamageDexterityMin;

  0060a	8b 85 f4 fe ff
	ff		 mov	 eax, DWORD PTR _Dexterity$[ebp]
  00610	99		 cdq
  00611	f7 f9		 idiv	 ecx
  00613	89 85 d4 fe ff
	ff		 mov	 DWORD PTR _iAttackDamageDexterityMin$215047[ebp], eax
$LN256@gObjCalCha:

; 281  : 			}
; 282  : 			
; 283  : 			if(ZtConfig.Character.AEAttackDamageDexterityMax > 0)

  00619	8b 0d 1c 03 00
	00		 mov	 ecx, DWORD PTR ?ZtConfig@@3VcZtConfigs@@A+796
  0061f	85 c9		 test	 ecx, ecx
  00621	7e 0f		 jle	 SHORT $LN255@gObjCalCha

; 284  : 			{
; 285  : 				iAttackDamageDexterityMax = Dexterity / ZtConfig.Character.AEAttackDamageDexterityMax;

  00623	8b 85 f4 fe ff
	ff		 mov	 eax, DWORD PTR _Dexterity$[ebp]
  00629	99		 cdq
  0062a	f7 f9		 idiv	 ecx
  0062c	89 85 a0 fe ff
	ff		 mov	 DWORD PTR _iAttackDamageDexterityMax$215048[ebp], eax
$LN255@gObjCalCha:

; 286  : 			}		
; 287  : 
; 288  : 			if(ZtConfig.Character.AEAttackDamageVitalityMin > 0)

  00632	8b 0d 20 03 00
	00		 mov	 ecx, DWORD PTR ?ZtConfig@@3VcZtConfigs@@A+800
  00638	85 c9		 test	 ecx, ecx
  0063a	7e 0f		 jle	 SHORT $LN254@gObjCalCha

; 289  : 			{
; 290  : 				iAttackDamageVitalityMin = Vitality / ZtConfig.Character.AEAttackDamageVitalityMin;

  0063c	8b 85 e0 fe ff
	ff		 mov	 eax, DWORD PTR _Vitality$[ebp]
  00642	99		 cdq
  00643	f7 f9		 idiv	 ecx
  00645	89 85 d8 fe ff
	ff		 mov	 DWORD PTR _iAttackDamageVitalityMin$215049[ebp], eax
$LN254@gObjCalCha:

; 291  : 			}	
; 292  : 
; 293  : 			if(ZtConfig.Character.AEAttackDamageVitalityMax > 0)

  0064b	8b 0d 24 03 00
	00		 mov	 ecx, DWORD PTR ?ZtConfig@@3VcZtConfigs@@A+804
  00651	85 c9		 test	 ecx, ecx
  00653	7e 0f		 jle	 SHORT $LN253@gObjCalCha

; 294  : 			{
; 295  : 				iAttackDamageVitalityMax = Vitality / ZtConfig.Character.AEAttackDamageVitalityMax;

  00655	8b 85 e0 fe ff
	ff		 mov	 eax, DWORD PTR _Vitality$[ebp]
  0065b	99		 cdq
  0065c	f7 f9		 idiv	 ecx
  0065e	89 85 a4 fe ff
	ff		 mov	 DWORD PTR _iAttackDamageVitalityMax$215050[ebp], eax
$LN253@gObjCalCha:

; 296  : 			}	
; 297  : 			
; 298  : 			if(ZtConfig.Character.AEAttackDamageEnergyMin > 0)

  00664	8b 0d 28 03 00
	00		 mov	 ecx, DWORD PTR ?ZtConfig@@3VcZtConfigs@@A+808
  0066a	85 c9		 test	 ecx, ecx
  0066c	7e 0f		 jle	 SHORT $LN252@gObjCalCha

; 299  : 			{
; 300  : 				iAttackDamageEnergyMin = Energy / ZtConfig.Character.AEAttackDamageEnergyMin;

  0066e	8b 85 ec fe ff
	ff		 mov	 eax, DWORD PTR _Energy$[ebp]
  00674	99		 cdq
  00675	f7 f9		 idiv	 ecx
  00677	89 85 d0 fe ff
	ff		 mov	 DWORD PTR _iAttackDamageEnergyMin$215051[ebp], eax
$LN252@gObjCalCha:

; 301  : 			}	
; 302  : 
; 303  : 			if(ZtConfig.Character.AEAttackDamageEnergyMax > 0)

  0067d	8b 0d 2c 03 00
	00		 mov	 ecx, DWORD PTR ?ZtConfig@@3VcZtConfigs@@A+812
  00683	85 c9		 test	 ecx, ecx
  00685	7e 0d		 jle	 SHORT $LN464@gObjCalCha

; 304  : 			{
; 305  : 				iAttackDamageEnergyMax = Energy / ZtConfig.Character.AEAttackDamageEnergyMax;

  00687	8b 85 ec fe ff
	ff		 mov	 eax, DWORD PTR _Energy$[ebp]
  0068d	99		 cdq
  0068e	f7 f9		 idiv	 ecx
  00690	8b c8		 mov	 ecx, eax
  00692	eb 06		 jmp	 SHORT $LN251@gObjCalCha
$LN464@gObjCalCha:
  00694	8b 8d c0 fe ff
	ff		 mov	 ecx, DWORD PTR _iAttackDamageEnergyMax$215052[ebp]
$LN251@gObjCalCha:

; 306  : 			}	
; 307  : 
; 308  : 			int iAttackDamageMin = iAttackDamageStrengthMin + iAttackDamageDexterityMin + iAttackDamageVitalityMin + iAttackDamageEnergyMin;

  0069a	8b 85 d8 fe ff
	ff		 mov	 eax, DWORD PTR _iAttackDamageVitalityMin$215049[ebp]
  006a0	03 85 d0 fe ff
	ff		 add	 eax, DWORD PTR _iAttackDamageEnergyMin$215051[ebp]

; 309  : 			int iAttackDamageMax = iAttackDamageStrengthMax + iAttackDamageDexterityMax + iAttackDamageVitalityMax + iAttackDamageEnergyMax;

  006a6	03 8d a4 fe ff
	ff		 add	 ecx, DWORD PTR _iAttackDamageVitalityMax$215050[ebp]
  006ac	03 85 d4 fe ff
	ff		 add	 eax, DWORD PTR _iAttackDamageDexterityMin$215047[ebp]
  006b2	03 8d a0 fe ff
	ff		 add	 ecx, DWORD PTR _iAttackDamageDexterityMax$215048[ebp]
  006b8	03 85 9c fe ff
	ff		 add	 eax, DWORD PTR _iAttackDamageStrengthMin$215045[ebp]
  006be	03 8d bc fe ff
	ff		 add	 ecx, DWORD PTR _iAttackDamageStrengthMax$215046[ebp]

; 310  : 
; 311  : 			lpObj->m_AttackDamageMinRight = iAttackDamageMin;

  006c4	89 07		 mov	 DWORD PTR [edi], eax

; 312  : 			lpObj->m_AttackDamageMaxRight = iAttackDamageMax;

  006c6	89 0b		 mov	 DWORD PTR [ebx], ecx

; 313  : 			lpObj->m_AttackDamageMinLeft = iAttackDamageMin;

  006c8	89 86 7c 04 00
	00		 mov	 DWORD PTR [esi+1148], eax

; 314  : 			lpObj->m_AttackDamageMaxLeft = iAttackDamageMax;

  006ce	89 8e 78 04 00
	00		 mov	 DWORD PTR [esi+1144], ecx
$LN260@gObjCalCha:

; 315  : 		}
; 316  : 
; 317  : #ifdef CALCULATOR_MANAGER
; 318  : 		if (g_ZtLicense.CheckUser(eZtUB::ulasevich) || g_ZtLicense.CheckUser(eZtUB::ConflictNoCustom) || g_ZtLicense.CheckUser(eZtUB::ulasevich2))

  006d4	6a 17		 push	 23			; 00000017H
  006d6	b9 00 00 00 00	 mov	 ecx, OFFSET ?g_ZtLicense@@3VCZtLicense@@A ; g_ZtLicense
  006db	e8 00 00 00 00	 call	 ?CheckUser@CZtLicense@@QAE_NH@Z ; CZtLicense::CheckUser
  006e0	84 c0		 test	 al, al
  006e2	75 24		 jne	 SHORT $LN249@gObjCalCha
  006e4	6a 28		 push	 40			; 00000028H
  006e6	b9 00 00 00 00	 mov	 ecx, OFFSET ?g_ZtLicense@@3VCZtLicense@@A ; g_ZtLicense
  006eb	e8 00 00 00 00	 call	 ?CheckUser@CZtLicense@@QAE_NH@Z ; CZtLicense::CheckUser
  006f0	84 c0		 test	 al, al
  006f2	75 14		 jne	 SHORT $LN249@gObjCalCha
  006f4	6a 24		 push	 36			; 00000024H
  006f6	b9 00 00 00 00	 mov	 ecx, OFFSET ?g_ZtLicense@@3VCZtLicense@@A ; g_ZtLicense
  006fb	e8 00 00 00 00	 call	 ?CheckUser@CZtLicense@@QAE_NH@Z ; CZtLicense::CheckUser
  00700	84 c0		 test	 al, al
  00702	0f 84 21 06 00
	00		 je	 $LN228@gObjCalCha
$LN249@gObjCalCha:

; 319  : 		{
; 320  : 			lpObj->m_AttackDamageMinRight = (lpObj->m_AttackDamageMinRight * CalculatorManager.FE_MinDamagePercent) / 100;

  00708	8b 0f		 mov	 ecx, DWORD PTR [edi]
  0070a	0f af 0d 10 00
	00 00		 imul	 ecx, DWORD PTR ?CalculatorManager@@3VcCalculatorManager@@A+16
  00711	b8 1f 85 eb 51	 mov	 eax, 1374389535		; 51eb851fH
  00716	f7 e9		 imul	 ecx
  00718	c1 fa 05	 sar	 edx, 5
  0071b	8b c2		 mov	 eax, edx
  0071d	c1 e8 1f	 shr	 eax, 31			; 0000001fH
  00720	03 c2		 add	 eax, edx

; 321  : 			lpObj->m_AttackDamageMinLeft = (lpObj->m_AttackDamageMinLeft * CalculatorManager.FE_MinDamagePercent) / 100;

  00722	8b 96 7c 04 00
	00		 mov	 edx, DWORD PTR [esi+1148]
  00728	89 07		 mov	 DWORD PTR [edi], eax
  0072a	0f af 15 10 00
	00 00		 imul	 edx, DWORD PTR ?CalculatorManager@@3VcCalculatorManager@@A+16
  00731	b8 1f 85 eb 51	 mov	 eax, 1374389535		; 51eb851fH
  00736	f7 ea		 imul	 edx
  00738	c1 fa 05	 sar	 edx, 5
  0073b	8b ca		 mov	 ecx, edx
  0073d	c1 e9 1f	 shr	 ecx, 31			; 0000001fH
  00740	03 ca		 add	 ecx, edx
  00742	89 8e 7c 04 00
	00		 mov	 DWORD PTR [esi+1148], ecx

; 322  : 
; 323  : 			lpObj->m_AttackDamageMaxRight = (lpObj->m_AttackDamageMaxRight * CalculatorManager.FE_MaxDamagePercent) / 100;

  00748	8b 0b		 mov	 ecx, DWORD PTR [ebx]
  0074a	0f af 0d 14 00
	00 00		 imul	 ecx, DWORD PTR ?CalculatorManager@@3VcCalculatorManager@@A+20
  00751	b8 1f 85 eb 51	 mov	 eax, 1374389535		; 51eb851fH
  00756	f7 e9		 imul	 ecx
  00758	c1 fa 05	 sar	 edx, 5
  0075b	8b c2		 mov	 eax, edx
  0075d	c1 e8 1f	 shr	 eax, 31			; 0000001fH
  00760	03 c2		 add	 eax, edx

; 324  : 			lpObj->m_AttackDamageMaxLeft = (lpObj->m_AttackDamageMaxLeft * CalculatorManager.FE_MaxDamagePercent) / 100;

  00762	8b 96 78 04 00
	00		 mov	 edx, DWORD PTR [esi+1144]
  00768	89 03		 mov	 DWORD PTR [ebx], eax
  0076a	0f af 15 14 00
	00 00		 imul	 edx, DWORD PTR ?CalculatorManager@@3VcCalculatorManager@@A+20

; 325  : 		}
; 326  : #endif
; 327  : 	}

  00771	e9 67 05 00 00	 jmp	 $LN514@gObjCalCha
$LN269@gObjCalCha:

; 328  : 	else if ( lpObj->Class == CLASS_KNIGHT )
; 329  : 	{
; 330  : 		//int DamageMax_StrRight = GetPrivateProfileInt("Dark_Knight","DamageMax_StrRight",4,"..\\Data\\ZtData\\Character.ini");
; 331  : 		//int DamageMin_StrRight = GetPrivateProfileInt("Dark_Knight","DamageMin_StrRight",6,"..\\Data\\ZtData\\Character.ini");
; 332  : 		//int DamageMax_StrLeft = GetPrivateProfileInt("Dark_Knight","DamageMax_StrLeft",4,"..\\Data\\ZtData\\Character.ini");
; 333  : 		//int DamageMin_StrLeft = GetPrivateProfileInt("Dark_Knight","DamageMin_StrLeft",6,"..\\Data\\ZtData\\Character.ini");
; 334  : 
; 335  : 		lpObj->m_AttackDamageMinRight = Strength / ZtConfig.Character.DKDamageMin_StrRight;	// 6

  00776	8d be 84 04 00
	00		 lea	 edi, DWORD PTR [esi+1156]
  0077c	83 f8 01	 cmp	 eax, 1
  0077f	0f 85 e2 00 00
	00		 jne	 $LN247@gObjCalCha
  00785	8b 8d e8 fe ff
	ff		 mov	 ecx, DWORD PTR _Strength$[ebp]
  0078b	8b c1		 mov	 eax, ecx
  0078d	99		 cdq
  0078e	f7 3d dc 01 00
	00		 idiv	 DWORD PTR ?ZtConfig@@3VcZtConfigs@@A+476

; 336  : 		lpObj->m_AttackDamageMaxRight = Strength / ZtConfig.Character.DKDamageMax_StrRight;	// 4

  00794	8d 9e 80 04 00
	00		 lea	 ebx, DWORD PTR [esi+1152]

; 337  : 		lpObj->m_AttackDamageMinLeft = Strength / ZtConfig.Character.DKDamageMin_StrLeft;	// 6
; 338  : 		lpObj->m_AttackDamageMaxLeft = Strength / ZtConfig.Character.DKDamageMax_StrLeft;	// 4
; 339  : 
; 340  : #ifdef CALCULATOR_MANAGER
; 341  : 		if (g_ZtLicense.CheckUser(eZtUB::ulasevich) || g_ZtLicense.CheckUser(eZtUB::ConflictNoCustom) || g_ZtLicense.CheckUser(eZtUB::ulasevich2))

  0079a	6a 17		 push	 23			; 00000017H
  0079c	89 07		 mov	 DWORD PTR [edi], eax
  0079e	8b c1		 mov	 eax, ecx
  007a0	99		 cdq
  007a1	f7 3d d8 01 00
	00		 idiv	 DWORD PTR ?ZtConfig@@3VcZtConfigs@@A+472
  007a7	89 03		 mov	 DWORD PTR [ebx], eax
  007a9	8b c1		 mov	 eax, ecx
  007ab	99		 cdq
  007ac	f7 3d e4 01 00
	00		 idiv	 DWORD PTR ?ZtConfig@@3VcZtConfigs@@A+484
  007b2	89 86 7c 04 00
	00		 mov	 DWORD PTR [esi+1148], eax
  007b8	8b c1		 mov	 eax, ecx
  007ba	99		 cdq
  007bb	f7 3d e0 01 00
	00		 idiv	 DWORD PTR ?ZtConfig@@3VcZtConfigs@@A+480
  007c1	b9 00 00 00 00	 mov	 ecx, OFFSET ?g_ZtLicense@@3VCZtLicense@@A ; g_ZtLicense
  007c6	89 86 78 04 00
	00		 mov	 DWORD PTR [esi+1144], eax
  007cc	e8 00 00 00 00	 call	 ?CheckUser@CZtLicense@@QAE_NH@Z ; CZtLicense::CheckUser
  007d1	84 c0		 test	 al, al
  007d3	75 24		 jne	 SHORT $LN245@gObjCalCha
  007d5	6a 28		 push	 40			; 00000028H
  007d7	b9 00 00 00 00	 mov	 ecx, OFFSET ?g_ZtLicense@@3VCZtLicense@@A ; g_ZtLicense
  007dc	e8 00 00 00 00	 call	 ?CheckUser@CZtLicense@@QAE_NH@Z ; CZtLicense::CheckUser
  007e1	84 c0		 test	 al, al
  007e3	75 14		 jne	 SHORT $LN245@gObjCalCha
  007e5	6a 24		 push	 36			; 00000024H
  007e7	b9 00 00 00 00	 mov	 ecx, OFFSET ?g_ZtLicense@@3VCZtLicense@@A ; g_ZtLicense
  007ec	e8 00 00 00 00	 call	 ?CheckUser@CZtLicense@@QAE_NH@Z ; CZtLicense::CheckUser
  007f1	84 c0		 test	 al, al
  007f3	0f 84 30 05 00
	00		 je	 $LN228@gObjCalCha
$LN245@gObjCalCha:

; 342  : 		{
; 343  : 			lpObj->m_AttackDamageMinRight = (lpObj->m_AttackDamageMinRight * CalculatorManager.DK_MinDamagePercent) / 100;

  007f9	8b 0f		 mov	 ecx, DWORD PTR [edi]
  007fb	0f af 0d 08 00
	00 00		 imul	 ecx, DWORD PTR ?CalculatorManager@@3VcCalculatorManager@@A+8
  00802	b8 1f 85 eb 51	 mov	 eax, 1374389535		; 51eb851fH
  00807	f7 e9		 imul	 ecx
  00809	c1 fa 05	 sar	 edx, 5
  0080c	8b c2		 mov	 eax, edx
  0080e	c1 e8 1f	 shr	 eax, 31			; 0000001fH
  00811	03 c2		 add	 eax, edx

; 344  : 			lpObj->m_AttackDamageMinLeft = (lpObj->m_AttackDamageMinLeft * CalculatorManager.DK_MinDamagePercent) / 100;

  00813	8b 96 7c 04 00
	00		 mov	 edx, DWORD PTR [esi+1148]
  00819	89 07		 mov	 DWORD PTR [edi], eax
  0081b	0f af 15 08 00
	00 00		 imul	 edx, DWORD PTR ?CalculatorManager@@3VcCalculatorManager@@A+8
  00822	b8 1f 85 eb 51	 mov	 eax, 1374389535		; 51eb851fH
  00827	f7 ea		 imul	 edx
  00829	c1 fa 05	 sar	 edx, 5
  0082c	8b ca		 mov	 ecx, edx
  0082e	c1 e9 1f	 shr	 ecx, 31			; 0000001fH
  00831	03 ca		 add	 ecx, edx
  00833	89 8e 7c 04 00
	00		 mov	 DWORD PTR [esi+1148], ecx

; 345  : 
; 346  : 			lpObj->m_AttackDamageMaxRight = (lpObj->m_AttackDamageMaxRight * CalculatorManager.DK_MaxDamagePercent) / 100;

  00839	8b 0b		 mov	 ecx, DWORD PTR [ebx]
  0083b	0f af 0d 0c 00
	00 00		 imul	 ecx, DWORD PTR ?CalculatorManager@@3VcCalculatorManager@@A+12
  00842	b8 1f 85 eb 51	 mov	 eax, 1374389535		; 51eb851fH
  00847	f7 e9		 imul	 ecx
  00849	c1 fa 05	 sar	 edx, 5
  0084c	8b c2		 mov	 eax, edx
  0084e	c1 e8 1f	 shr	 eax, 31			; 0000001fH
  00851	03 c2		 add	 eax, edx

; 347  : 			lpObj->m_AttackDamageMaxLeft = (lpObj->m_AttackDamageMaxLeft * CalculatorManager.DK_MaxDamagePercent) / 100;

  00853	8b 96 78 04 00
	00		 mov	 edx, DWORD PTR [esi+1144]
  00859	89 03		 mov	 DWORD PTR [ebx], eax
  0085b	0f af 15 0c 00
	00 00		 imul	 edx, DWORD PTR ?CalculatorManager@@3VcCalculatorManager@@A+12

; 348  : 		}
; 349  : #endif
; 350  : 	}

  00862	e9 76 04 00 00	 jmp	 $LN514@gObjCalCha
$LN247@gObjCalCha:

; 351  : 	else if (lpObj->Class == CLASS_MAGUMSA )

  00867	83 f8 03	 cmp	 eax, 3
  0086a	0f 85 38 01 00
	00		 jne	 $LN243@gObjCalCha

; 352  : 	{
; 353  : 		//int DamageMax_StrRight = GetPrivateProfileInt("Magic_Gladiator","DamageMax_StrRight",4,"..\\Data\\ZtData\\Character.ini");
; 354  : 		//int DamageMax_EneRight = GetPrivateProfileInt("Magic_Gladiator","DamageMax_EneRight",8,"..\\Data\\ZtData\\Character.ini");
; 355  : 		//int DamageMin_StrRight = GetPrivateProfileInt("Magic_Gladiator","DamageMin_StrRight",6,"..\\Data\\ZtData\\Character.ini");
; 356  : 		//int DamageMin_EneRight = GetPrivateProfileInt("Magic_Gladiator","DamageMin_EneRight",12,"..\\Data\\ZtData\\Character.ini");
; 357  : 
; 358  : 		//int DamageMax_StrLeft = GetPrivateProfileInt("Magic_Gladiator","DamageMax_StrLeft",4,"..\\Data\\ZtData\\Character.ini");
; 359  : 		//int DamageMax_EneLeft = GetPrivateProfileInt("Magic_Gladiator","DamageMax_EneLeft",8,"..\\Data\\ZtData\\Character.ini");
; 360  : 		//int DamageMin_StrLeft = GetPrivateProfileInt("Magic_Gladiator","DamageMin_StrLeft",6,"..\\Data\\ZtData\\Character.ini");
; 361  : 		//int DamageMin_EneLeft = GetPrivateProfileInt("Magic_Gladiator","DamageMin_EneLeft",12,"..\\Data\\ZtData\\Character.ini");
; 362  : 
; 363  : 		lpObj->m_AttackDamageMinRight = (Strength / ZtConfig.Character.MGDamageMin_StrRight) + (Energy / ZtConfig.Character.MGDamageMin_EneRight);

  00870	8b 85 ec fe ff
	ff		 mov	 eax, DWORD PTR _Energy$[ebp]
  00876	99		 cdq
  00877	f7 3d f4 01 00
	00		 idiv	 DWORD PTR ?ZtConfig@@3VcZtConfigs@@A+500
  0087d	8b 8d e8 fe ff
	ff		 mov	 ecx, DWORD PTR _Strength$[ebp]

; 364  : 		lpObj->m_AttackDamageMaxRight = (Strength / ZtConfig.Character.MGDamageMax_StrRight) + (Energy / ZtConfig.Character.MGDamageMax_EneRight);
; 365  : 		lpObj->m_AttackDamageMinLeft = (Strength / ZtConfig.Character.MGDamageMin_StrLeft) + (Energy / ZtConfig.Character.MGDamageMin_EneLeft);
; 366  : 		lpObj->m_AttackDamageMaxLeft = (Strength / ZtConfig.Character.MGDamageMax_StrLeft) + (Energy / ZtConfig.Character.MGDamageMax_EneLeft);
; 367  : 
; 368  : 
; 369  : #ifdef CALCULATOR_MANAGER
; 370  : 		if (g_ZtLicense.CheckUser(eZtUB::ulasevich) || g_ZtLicense.CheckUser(eZtUB::ConflictNoCustom) || g_ZtLicense.CheckUser(eZtUB::ulasevich2))

  00883	6a 17		 push	 23			; 00000017H
  00885	8b d8		 mov	 ebx, eax
  00887	8b c1		 mov	 eax, ecx
  00889	99		 cdq
  0088a	f7 3d f0 01 00
	00		 idiv	 DWORD PTR ?ZtConfig@@3VcZtConfigs@@A+496
  00890	03 d8		 add	 ebx, eax
  00892	8b 85 ec fe ff
	ff		 mov	 eax, DWORD PTR _Energy$[ebp]
  00898	99		 cdq
  00899	89 1f		 mov	 DWORD PTR [edi], ebx
  0089b	f7 3d ec 01 00
	00		 idiv	 DWORD PTR ?ZtConfig@@3VcZtConfigs@@A+492
  008a1	8d 9e 80 04 00
	00		 lea	 ebx, DWORD PTR [esi+1152]
  008a7	89 85 c0 fe ff
	ff		 mov	 DWORD PTR tv5981[ebp], eax
  008ad	8b c1		 mov	 eax, ecx
  008af	99		 cdq
  008b0	f7 3d e8 01 00
	00		 idiv	 DWORD PTR ?ZtConfig@@3VcZtConfigs@@A+488
  008b6	8b 8d c0 fe ff
	ff		 mov	 ecx, DWORD PTR tv5981[ebp]
  008bc	03 c8		 add	 ecx, eax
  008be	8b 85 ec fe ff
	ff		 mov	 eax, DWORD PTR _Energy$[ebp]
  008c4	99		 cdq
  008c5	89 0b		 mov	 DWORD PTR [ebx], ecx
  008c7	f7 3d 04 02 00
	00		 idiv	 DWORD PTR ?ZtConfig@@3VcZtConfigs@@A+516
  008cd	8b c8		 mov	 ecx, eax
  008cf	8b 85 e8 fe ff
	ff		 mov	 eax, DWORD PTR _Strength$[ebp]
  008d5	99		 cdq
  008d6	f7 3d 00 02 00
	00		 idiv	 DWORD PTR ?ZtConfig@@3VcZtConfigs@@A+512
  008dc	03 c8		 add	 ecx, eax
  008de	8b 85 ec fe ff
	ff		 mov	 eax, DWORD PTR _Energy$[ebp]
  008e4	99		 cdq
  008e5	89 8e 7c 04 00
	00		 mov	 DWORD PTR [esi+1148], ecx
  008eb	f7 3d fc 01 00
	00		 idiv	 DWORD PTR ?ZtConfig@@3VcZtConfigs@@A+508
  008f1	8b c8		 mov	 ecx, eax
  008f3	8b 85 e8 fe ff
	ff		 mov	 eax, DWORD PTR _Strength$[ebp]
  008f9	99		 cdq
  008fa	f7 3d f8 01 00
	00		 idiv	 DWORD PTR ?ZtConfig@@3VcZtConfigs@@A+504
  00900	03 c8		 add	 ecx, eax
  00902	89 8e 78 04 00
	00		 mov	 DWORD PTR [esi+1144], ecx
  00908	b9 00 00 00 00	 mov	 ecx, OFFSET ?g_ZtLicense@@3VCZtLicense@@A ; g_ZtLicense
  0090d	e8 00 00 00 00	 call	 ?CheckUser@CZtLicense@@QAE_NH@Z ; CZtLicense::CheckUser
  00912	84 c0		 test	 al, al
  00914	75 24		 jne	 SHORT $LN241@gObjCalCha
  00916	6a 28		 push	 40			; 00000028H
  00918	b9 00 00 00 00	 mov	 ecx, OFFSET ?g_ZtLicense@@3VCZtLicense@@A ; g_ZtLicense
  0091d	e8 00 00 00 00	 call	 ?CheckUser@CZtLicense@@QAE_NH@Z ; CZtLicense::CheckUser
  00922	84 c0		 test	 al, al
  00924	75 14		 jne	 SHORT $LN241@gObjCalCha
  00926	6a 24		 push	 36			; 00000024H
  00928	b9 00 00 00 00	 mov	 ecx, OFFSET ?g_ZtLicense@@3VCZtLicense@@A ; g_ZtLicense
  0092d	e8 00 00 00 00	 call	 ?CheckUser@CZtLicense@@QAE_NH@Z ; CZtLicense::CheckUser
  00932	84 c0		 test	 al, al
  00934	0f 84 ef 03 00
	00		 je	 $LN228@gObjCalCha
$LN241@gObjCalCha:

; 371  : 		{
; 372  : 			lpObj->m_AttackDamageMinRight = (lpObj->m_AttackDamageMinRight * CalculatorManager.MG_MinDamagePercent) / 100;

  0093a	8b 0f		 mov	 ecx, DWORD PTR [edi]
  0093c	0f af 0d 18 00
	00 00		 imul	 ecx, DWORD PTR ?CalculatorManager@@3VcCalculatorManager@@A+24
  00943	b8 1f 85 eb 51	 mov	 eax, 1374389535		; 51eb851fH
  00948	f7 e9		 imul	 ecx
  0094a	c1 fa 05	 sar	 edx, 5
  0094d	8b c2		 mov	 eax, edx
  0094f	c1 e8 1f	 shr	 eax, 31			; 0000001fH
  00952	03 c2		 add	 eax, edx

; 373  : 			lpObj->m_AttackDamageMinLeft = (lpObj->m_AttackDamageMinLeft * CalculatorManager.MG_MinDamagePercent) / 100;

  00954	8b 96 7c 04 00
	00		 mov	 edx, DWORD PTR [esi+1148]
  0095a	89 07		 mov	 DWORD PTR [edi], eax
  0095c	0f af 15 18 00
	00 00		 imul	 edx, DWORD PTR ?CalculatorManager@@3VcCalculatorManager@@A+24
  00963	b8 1f 85 eb 51	 mov	 eax, 1374389535		; 51eb851fH
  00968	f7 ea		 imul	 edx
  0096a	c1 fa 05	 sar	 edx, 5
  0096d	8b ca		 mov	 ecx, edx
  0096f	c1 e9 1f	 shr	 ecx, 31			; 0000001fH
  00972	03 ca		 add	 ecx, edx
  00974	89 8e 7c 04 00
	00		 mov	 DWORD PTR [esi+1148], ecx

; 374  : 
; 375  : 			lpObj->m_AttackDamageMaxRight = (lpObj->m_AttackDamageMaxRight * CalculatorManager.MG_MaxDamagePercent) / 100;

  0097a	8b 0b		 mov	 ecx, DWORD PTR [ebx]
  0097c	0f af 0d 1c 00
	00 00		 imul	 ecx, DWORD PTR ?CalculatorManager@@3VcCalculatorManager@@A+28
  00983	b8 1f 85 eb 51	 mov	 eax, 1374389535		; 51eb851fH
  00988	f7 e9		 imul	 ecx
  0098a	c1 fa 05	 sar	 edx, 5
  0098d	8b c2		 mov	 eax, edx
  0098f	c1 e8 1f	 shr	 eax, 31			; 0000001fH
  00992	03 c2		 add	 eax, edx

; 376  : 			lpObj->m_AttackDamageMaxLeft = (lpObj->m_AttackDamageMaxLeft * CalculatorManager.MG_MaxDamagePercent) / 100;

  00994	8b 96 78 04 00
	00		 mov	 edx, DWORD PTR [esi+1144]
  0099a	89 03		 mov	 DWORD PTR [ebx], eax
  0099c	0f af 15 1c 00
	00 00		 imul	 edx, DWORD PTR ?CalculatorManager@@3VcCalculatorManager@@A+28

; 377  : 		}
; 378  : #endif
; 379  : 	}

  009a3	e9 35 03 00 00	 jmp	 $LN514@gObjCalCha
$LN243@gObjCalCha:

; 380  : 	else if ( lpObj->Class == CLASS_DARKLORD )

  009a8	83 f8 04	 cmp	 eax, 4
  009ab	0f 85 38 01 00
	00		 jne	 $LN239@gObjCalCha

; 381  : 	{
; 382  : 		//int DamageMax_StrRight = GetPrivateProfileInt("Dark_Lord","DamageMax_StrRight",5,"..\\Data\\ZtData\\Character.ini");
; 383  : 		//int DamageMax_EneRight = GetPrivateProfileInt("Dark_Lord","DamageMax_EneRight",10,"..\\Data\\ZtData\\Character.ini");
; 384  : 		//int DamageMin_StrRight = GetPrivateProfileInt("Dark_Lord","DamageMin_StrRight",7,"..\\Data\\ZtData\\Character.ini");
; 385  : 		//int DamageMin_EneRight = GetPrivateProfileInt("Dark_Lord","DamageMin_EneRight",14,"..\\Data\\ZtData\\Character.ini");
; 386  : 
; 387  : 		//int DamageMax_StrLeft = GetPrivateProfileInt("Dark_Lord","DamageMax_StrLeft",5,"..\\Data\\ZtData\\Character.ini");
; 388  : 		//int DamageMax_EneLeft = GetPrivateProfileInt("Dark_Lord","DamageMax_EneLeft",10,"..\\Data\\ZtData\\Character.ini");
; 389  : 		//int DamageMin_StrLeft = GetPrivateProfileInt("Dark_Lord","DamageMin_StrLeft",7,"..\\Data\\ZtData\\Character.ini");
; 390  : 		//int DamageMin_EneLeft = GetPrivateProfileInt("Dark_Lord","DamageMin_EneLeft",14,"..\\Data\\ZtData\\Character.ini");
; 391  : 
; 392  : 		lpObj->m_AttackDamageMinRight = (Strength / ZtConfig.Character.DLDamageMin_StrRight) + (Energy / ZtConfig.Character.DLDamageMin_EneRight);

  009b1	8b 85 ec fe ff
	ff		 mov	 eax, DWORD PTR _Energy$[ebp]
  009b7	99		 cdq
  009b8	f7 3d 34 02 00
	00		 idiv	 DWORD PTR ?ZtConfig@@3VcZtConfigs@@A+564
  009be	8b 8d e8 fe ff
	ff		 mov	 ecx, DWORD PTR _Strength$[ebp]

; 393  : 		lpObj->m_AttackDamageMaxRight = (Strength / ZtConfig.Character.DLDamageMax_StrRight) + (Energy / ZtConfig.Character.DLDamageMax_EneRight);
; 394  : 		lpObj->m_AttackDamageMinLeft = (Strength / ZtConfig.Character.DLDamageMin_StrLeft) + (Energy / ZtConfig.Character.DLDamageMin_EneLeft);
; 395  : 		lpObj->m_AttackDamageMaxLeft = (Strength / ZtConfig.Character.DLDamageMax_StrLeft) + (Energy / ZtConfig.Character.DLDamageMax_EneLeft);
; 396  : 
; 397  : 
; 398  : #ifdef CALCULATOR_MANAGER
; 399  : 		if (g_ZtLicense.CheckUser(eZtUB::ulasevich) || g_ZtLicense.CheckUser(eZtUB::ConflictNoCustom) || g_ZtLicense.CheckUser(eZtUB::ulasevich2))

  009c4	6a 17		 push	 23			; 00000017H
  009c6	8b d8		 mov	 ebx, eax
  009c8	8b c1		 mov	 eax, ecx
  009ca	99		 cdq
  009cb	f7 3d 30 02 00
	00		 idiv	 DWORD PTR ?ZtConfig@@3VcZtConfigs@@A+560
  009d1	03 d8		 add	 ebx, eax
  009d3	8b 85 ec fe ff
	ff		 mov	 eax, DWORD PTR _Energy$[ebp]
  009d9	99		 cdq
  009da	89 1f		 mov	 DWORD PTR [edi], ebx
  009dc	f7 3d 2c 02 00
	00		 idiv	 DWORD PTR ?ZtConfig@@3VcZtConfigs@@A+556
  009e2	8d 9e 80 04 00
	00		 lea	 ebx, DWORD PTR [esi+1152]
  009e8	89 85 c0 fe ff
	ff		 mov	 DWORD PTR tv5979[ebp], eax
  009ee	8b c1		 mov	 eax, ecx
  009f0	99		 cdq
  009f1	f7 3d 28 02 00
	00		 idiv	 DWORD PTR ?ZtConfig@@3VcZtConfigs@@A+552
  009f7	8b 8d c0 fe ff
	ff		 mov	 ecx, DWORD PTR tv5979[ebp]
  009fd	03 c8		 add	 ecx, eax
  009ff	8b 85 ec fe ff
	ff		 mov	 eax, DWORD PTR _Energy$[ebp]
  00a05	99		 cdq
  00a06	89 0b		 mov	 DWORD PTR [ebx], ecx
  00a08	f7 3d 44 02 00
	00		 idiv	 DWORD PTR ?ZtConfig@@3VcZtConfigs@@A+580
  00a0e	8b c8		 mov	 ecx, eax
  00a10	8b 85 e8 fe ff
	ff		 mov	 eax, DWORD PTR _Strength$[ebp]
  00a16	99		 cdq
  00a17	f7 3d 40 02 00
	00		 idiv	 DWORD PTR ?ZtConfig@@3VcZtConfigs@@A+576
  00a1d	03 c8		 add	 ecx, eax
  00a1f	8b 85 ec fe ff
	ff		 mov	 eax, DWORD PTR _Energy$[ebp]
  00a25	99		 cdq
  00a26	89 8e 7c 04 00
	00		 mov	 DWORD PTR [esi+1148], ecx
  00a2c	f7 3d 3c 02 00
	00		 idiv	 DWORD PTR ?ZtConfig@@3VcZtConfigs@@A+572
  00a32	8b c8		 mov	 ecx, eax
  00a34	8b 85 e8 fe ff
	ff		 mov	 eax, DWORD PTR _Strength$[ebp]
  00a3a	99		 cdq
  00a3b	f7 3d 38 02 00
	00		 idiv	 DWORD PTR ?ZtConfig@@3VcZtConfigs@@A+568
  00a41	03 c8		 add	 ecx, eax
  00a43	89 8e 78 04 00
	00		 mov	 DWORD PTR [esi+1144], ecx
  00a49	b9 00 00 00 00	 mov	 ecx, OFFSET ?g_ZtLicense@@3VCZtLicense@@A ; g_ZtLicense
  00a4e	e8 00 00 00 00	 call	 ?CheckUser@CZtLicense@@QAE_NH@Z ; CZtLicense::CheckUser
  00a53	84 c0		 test	 al, al
  00a55	75 24		 jne	 SHORT $LN237@gObjCalCha
  00a57	6a 28		 push	 40			; 00000028H
  00a59	b9 00 00 00 00	 mov	 ecx, OFFSET ?g_ZtLicense@@3VCZtLicense@@A ; g_ZtLicense
  00a5e	e8 00 00 00 00	 call	 ?CheckUser@CZtLicense@@QAE_NH@Z ; CZtLicense::CheckUser
  00a63	84 c0		 test	 al, al
  00a65	75 14		 jne	 SHORT $LN237@gObjCalCha
  00a67	6a 24		 push	 36			; 00000024H
  00a69	b9 00 00 00 00	 mov	 ecx, OFFSET ?g_ZtLicense@@3VCZtLicense@@A ; g_ZtLicense
  00a6e	e8 00 00 00 00	 call	 ?CheckUser@CZtLicense@@QAE_NH@Z ; CZtLicense::CheckUser
  00a73	84 c0		 test	 al, al
  00a75	0f 84 ae 02 00
	00		 je	 $LN228@gObjCalCha
$LN237@gObjCalCha:

; 400  : 		{
; 401  : 			lpObj->m_AttackDamageMinRight = (lpObj->m_AttackDamageMinRight * CalculatorManager.DL_MinDamagePercent) / 100;

  00a7b	8b 0f		 mov	 ecx, DWORD PTR [edi]
  00a7d	0f af 0d 28 00
	00 00		 imul	 ecx, DWORD PTR ?CalculatorManager@@3VcCalculatorManager@@A+40
  00a84	b8 1f 85 eb 51	 mov	 eax, 1374389535		; 51eb851fH
  00a89	f7 e9		 imul	 ecx
  00a8b	c1 fa 05	 sar	 edx, 5
  00a8e	8b c2		 mov	 eax, edx
  00a90	c1 e8 1f	 shr	 eax, 31			; 0000001fH
  00a93	03 c2		 add	 eax, edx

; 402  : 			lpObj->m_AttackDamageMinLeft = (lpObj->m_AttackDamageMinLeft * CalculatorManager.DL_MinDamagePercent) / 100;

  00a95	8b 96 7c 04 00
	00		 mov	 edx, DWORD PTR [esi+1148]
  00a9b	89 07		 mov	 DWORD PTR [edi], eax
  00a9d	0f af 15 28 00
	00 00		 imul	 edx, DWORD PTR ?CalculatorManager@@3VcCalculatorManager@@A+40
  00aa4	b8 1f 85 eb 51	 mov	 eax, 1374389535		; 51eb851fH
  00aa9	f7 ea		 imul	 edx
  00aab	c1 fa 05	 sar	 edx, 5
  00aae	8b ca		 mov	 ecx, edx
  00ab0	c1 e9 1f	 shr	 ecx, 31			; 0000001fH
  00ab3	03 ca		 add	 ecx, edx
  00ab5	89 8e 7c 04 00
	00		 mov	 DWORD PTR [esi+1148], ecx

; 403  : 
; 404  : 			lpObj->m_AttackDamageMaxRight = (lpObj->m_AttackDamageMaxRight * CalculatorManager.DL_MaxDamagePercent) / 100;

  00abb	8b 0b		 mov	 ecx, DWORD PTR [ebx]
  00abd	0f af 0d 2c 00
	00 00		 imul	 ecx, DWORD PTR ?CalculatorManager@@3VcCalculatorManager@@A+44
  00ac4	b8 1f 85 eb 51	 mov	 eax, 1374389535		; 51eb851fH
  00ac9	f7 e9		 imul	 ecx
  00acb	c1 fa 05	 sar	 edx, 5
  00ace	8b c2		 mov	 eax, edx
  00ad0	c1 e8 1f	 shr	 eax, 31			; 0000001fH
  00ad3	03 c2		 add	 eax, edx

; 405  : 			lpObj->m_AttackDamageMaxLeft = (lpObj->m_AttackDamageMaxLeft * CalculatorManager.DL_MaxDamagePercent) / 100;

  00ad5	8b 96 78 04 00
	00		 mov	 edx, DWORD PTR [esi+1144]
  00adb	89 03		 mov	 DWORD PTR [ebx], eax
  00add	0f af 15 2c 00
	00 00		 imul	 edx, DWORD PTR ?CalculatorManager@@3VcCalculatorManager@@A+44

; 406  : 		}
; 407  : #endif
; 408  : 	}

  00ae4	e9 f4 01 00 00	 jmp	 $LN514@gObjCalCha
$LN239@gObjCalCha:

; 409  : 	else if ( lpObj->Class == CLASS_SUMMONER )

  00ae9	83 f8 05	 cmp	 eax, 5
  00aec	75 45		 jne	 SHORT $LN235@gObjCalCha

; 410  : 	{
; 411  : 		//int DamageMax_StrRight = GetPrivateProfileInt("Summoner","DamageMax_StrRight",4,"..\\Data\\ZtData\\Character.ini");
; 412  : 		//int DamageMin_StrRight = GetPrivateProfileInt("Summoner","DamageMin_StrRight",7,"..\\Data\\ZtData\\Character.ini");
; 413  : 		//int DamageMax_StrLeft = GetPrivateProfileInt("Summoner","DamageMax_StrLeft",4,"..\\Data\\ZtData\\Character.ini");
; 414  : 		//int DamageMin_StrLeft = GetPrivateProfileInt("Summoner","DamageMin_StrLeft",7,"..\\Data\\ZtData\\Character.ini");
; 415  : 
; 416  : 		lpObj->m_AttackDamageMinRight = ((Strength + Dexterity) / ZtConfig.Character.SUMDamageMin_StrRight);	// 7

  00aee	8b 8d f4 fe ff
	ff		 mov	 ecx, DWORD PTR _Dexterity$[ebp]
  00af4	03 8d e8 fe ff
	ff		 add	 ecx, DWORD PTR _Strength$[ebp]

; 417  : 		lpObj->m_AttackDamageMaxRight = ((Strength + Dexterity) / ZtConfig.Character.SUMDamageMax_StrRight);	// 4

  00afa	8d 9e 80 04 00
	00		 lea	 ebx, DWORD PTR [esi+1152]
  00b00	8b c1		 mov	 eax, ecx
  00b02	99		 cdq
  00b03	f7 3d 0c 02 00
	00		 idiv	 DWORD PTR ?ZtConfig@@3VcZtConfigs@@A+524
  00b09	89 07		 mov	 DWORD PTR [edi], eax
  00b0b	8b c1		 mov	 eax, ecx
  00b0d	99		 cdq
  00b0e	f7 3d 08 02 00
	00		 idiv	 DWORD PTR ?ZtConfig@@3VcZtConfigs@@A+520
  00b14	89 03		 mov	 DWORD PTR [ebx], eax

; 418  : 		lpObj->m_AttackDamageMinLeft = ((Strength + Dexterity) / ZtConfig.Character.SUMDamageMin_StrLeft);	// 7

  00b16	8b c1		 mov	 eax, ecx
  00b18	99		 cdq
  00b19	f7 3d 14 02 00
	00		 idiv	 DWORD PTR ?ZtConfig@@3VcZtConfigs@@A+532
  00b1f	89 86 7c 04 00
	00		 mov	 DWORD PTR [esi+1148], eax

; 419  : 		lpObj->m_AttackDamageMaxLeft = ((Strength + Dexterity) / ZtConfig.Character.SUMDamageMax_StrLeft);	// 4

  00b25	8b c1		 mov	 eax, ecx
  00b27	99		 cdq
  00b28	f7 3d 10 02 00
	00		 idiv	 DWORD PTR ?ZtConfig@@3VcZtConfigs@@A+528
  00b2e	e9 f0 01 00 00	 jmp	 $LN513@gObjCalCha
$LN235@gObjCalCha:

; 420  : 	}
; 421  : 	else if (lpObj->Class == CLASS_WIZARD)

  00b33	66 85 c0	 test	 ax, ax
  00b36	75 73		 jne	 SHORT $LN233@gObjCalCha

; 422  : 	{
; 423  : 		//int DamageMax_StrRight = GetPrivateProfileInt("Dark_Wizard","DamageMax_StrRight",4,"..\\Data\\ZtData\\Character.ini");
; 424  : 		//int DamageMin_StrRight = GetPrivateProfileInt("Dark_Wizard","DamageMin_StrRight",6,"..\\Data\\ZtData\\Character.ini");
; 425  : 		//int DamageMax_StrLeft = GetPrivateProfileInt("Dark_Wizard","DamageMax_StrLeft",4,"..\\Data\\ZtData\\Character.ini");
; 426  : 		//int DamageMin_StrLeft = GetPrivateProfileInt("Dark_Wizard","DamageMin_StrLeft",6,"..\\Data\\ZtData\\Character.ini");
; 427  : 
; 428  : 		lpObj->m_AttackDamageMinRight = (Strength / ZtConfig.Character.DWDamageMin_StrRight);

  00b38	8b 8d e8 fe ff
	ff		 mov	 ecx, DWORD PTR _Strength$[ebp]
  00b3e	8b c1		 mov	 eax, ecx
  00b40	99		 cdq
  00b41	f7 3d 1c 02 00
	00		 idiv	 DWORD PTR ?ZtConfig@@3VcZtConfigs@@A+540

; 429  : 		lpObj->m_AttackDamageMaxRight = (Strength / ZtConfig.Character.DWDamageMax_StrRight);

  00b47	8d 9e 80 04 00
	00		 lea	 ebx, DWORD PTR [esi+1152]
  00b4d	89 07		 mov	 DWORD PTR [edi], eax
  00b4f	8b c1		 mov	 eax, ecx
  00b51	99		 cdq
  00b52	f7 3d 18 02 00
	00		 idiv	 DWORD PTR ?ZtConfig@@3VcZtConfigs@@A+536
  00b58	89 03		 mov	 DWORD PTR [ebx], eax

; 430  : 		lpObj->m_AttackDamageMinLeft = (Strength / ZtConfig.Character.DWDamageMin_StrLeft);

  00b5a	8b c1		 mov	 eax, ecx
  00b5c	99		 cdq
  00b5d	f7 3d 24 02 00
	00		 idiv	 DWORD PTR ?ZtConfig@@3VcZtConfigs@@A+548
  00b63	89 86 7c 04 00
	00		 mov	 DWORD PTR [esi+1148], eax

; 431  : 		lpObj->m_AttackDamageMaxLeft = (Strength / ZtConfig.Character.DWDamageMax_StrLeft);

  00b69	8b c1		 mov	 eax, ecx
  00b6b	99		 cdq
  00b6c	f7 3d 20 02 00
	00		 idiv	 DWORD PTR ?ZtConfig@@3VcZtConfigs@@A+544
  00b72	89 86 78 04 00
	00		 mov	 DWORD PTR [esi+1144], eax

; 432  : 
; 433  : 			lpObj->m_AttackDamageMinRight = (Strength / ZtConfig.Character.DWDamageMin_StrRight);

  00b78	8b c1		 mov	 eax, ecx
  00b7a	99		 cdq
  00b7b	f7 3d 1c 02 00
	00		 idiv	 DWORD PTR ?ZtConfig@@3VcZtConfigs@@A+540
  00b81	89 07		 mov	 DWORD PTR [edi], eax

; 434  : 		lpObj->m_AttackDamageMaxRight = (Strength / ZtConfig.Character.DWDamageMax_StrRight);

  00b83	8b c1		 mov	 eax, ecx
  00b85	99		 cdq
  00b86	f7 3d 18 02 00
	00		 idiv	 DWORD PTR ?ZtConfig@@3VcZtConfigs@@A+536
  00b8c	89 03		 mov	 DWORD PTR [ebx], eax

; 435  : 		lpObj->m_AttackDamageMinLeft = (Strength / ZtConfig.Character.DWDamageMin_StrLeft);

  00b8e	8b c1		 mov	 eax, ecx
  00b90	99		 cdq
  00b91	f7 3d 24 02 00
	00		 idiv	 DWORD PTR ?ZtConfig@@3VcZtConfigs@@A+548
  00b97	89 86 7c 04 00
	00		 mov	 DWORD PTR [esi+1148], eax

; 436  : 		lpObj->m_AttackDamageMaxLeft = (Strength / ZtConfig.Character.DWDamageMax_StrLeft);

  00b9d	8b c1		 mov	 eax, ecx
  00b9f	99		 cdq
  00ba0	f7 3d 20 02 00
	00		 idiv	 DWORD PTR ?ZtConfig@@3VcZtConfigs@@A+544
  00ba6	e9 78 01 00 00	 jmp	 $LN513@gObjCalCha
$LN233@gObjCalCha:

; 437  : 	}
; 438  : #ifdef MONK
; 439  : 	else if( lpObj->Class == CLASS_MONK )

  00bab	83 f8 06	 cmp	 eax, 6
  00bae	0f 85 42 01 00
	00		 jne	 $LN231@gObjCalCha

; 440  : 	{
; 441  : 		lpObj->m_AttackDamageMinRight	= Vitality / ZtConfig.Character.RFDamageMin_VitRight /*15*/ + Strength / ZtConfig.Character.RFDamageMin_StrRight;

  00bb4	8b 8d e8 fe ff
	ff		 mov	 ecx, DWORD PTR _Strength$[ebp]
  00bba	8b c1		 mov	 eax, ecx
  00bbc	99		 cdq
  00bbd	f7 3d 94 02 00
	00		 idiv	 DWORD PTR ?ZtConfig@@3VcZtConfigs@@A+660

; 442  : 		lpObj->m_AttackDamageMaxRight	= Vitality / ZtConfig.Character.RFDamageMax_VitRight + Strength / ZtConfig.Character.RFDamageMax_StrRight;
; 443  : 		lpObj->m_AttackDamageMinLeft	= Vitality / ZtConfig.Character.RFDamageMin_VitLeft + Strength / ZtConfig.Character.RFDamageMin_StrLeft;
; 444  : 		lpObj->m_AttackDamageMaxLeft	= Vitality / ZtConfig.Character.RFDamageMax_VitLeft + Strength / ZtConfig.Character.RFDamageMax_StrLeft;
; 445  : 
; 446  : #ifdef CALCULATOR_MANAGER
; 447  : 		if (g_ZtLicense.CheckUser(eZtUB::ulasevich) || g_ZtLicense.CheckUser(eZtUB::ConflictNoCustom) || g_ZtLicense.CheckUser(eZtUB::ulasevich2))

  00bc3	6a 17		 push	 23			; 00000017H
  00bc5	8b d8		 mov	 ebx, eax
  00bc7	8b 85 e0 fe ff
	ff		 mov	 eax, DWORD PTR _Vitality$[ebp]
  00bcd	99		 cdq
  00bce	f7 3d 90 02 00
	00		 idiv	 DWORD PTR ?ZtConfig@@3VcZtConfigs@@A+656
  00bd4	03 d8		 add	 ebx, eax
  00bd6	8b c1		 mov	 eax, ecx
  00bd8	99		 cdq
  00bd9	89 1f		 mov	 DWORD PTR [edi], ebx
  00bdb	f7 3d 9c 02 00
	00		 idiv	 DWORD PTR ?ZtConfig@@3VcZtConfigs@@A+668
  00be1	8d 9e 80 04 00
	00		 lea	 ebx, DWORD PTR [esi+1152]
  00be7	8b c8		 mov	 ecx, eax
  00be9	8b 85 e0 fe ff
	ff		 mov	 eax, DWORD PTR _Vitality$[ebp]
  00bef	99		 cdq
  00bf0	f7 3d 98 02 00
	00		 idiv	 DWORD PTR ?ZtConfig@@3VcZtConfigs@@A+664
  00bf6	03 c8		 add	 ecx, eax
  00bf8	8b 85 e8 fe ff
	ff		 mov	 eax, DWORD PTR _Strength$[ebp]
  00bfe	99		 cdq
  00bff	89 0b		 mov	 DWORD PTR [ebx], ecx
  00c01	f7 3d a4 02 00
	00		 idiv	 DWORD PTR ?ZtConfig@@3VcZtConfigs@@A+676
  00c07	8b c8		 mov	 ecx, eax
  00c09	8b 85 e0 fe ff
	ff		 mov	 eax, DWORD PTR _Vitality$[ebp]
  00c0f	99		 cdq
  00c10	f7 3d a0 02 00
	00		 idiv	 DWORD PTR ?ZtConfig@@3VcZtConfigs@@A+672
  00c16	03 c8		 add	 ecx, eax
  00c18	8b 85 e8 fe ff
	ff		 mov	 eax, DWORD PTR _Strength$[ebp]
  00c1e	99		 cdq
  00c1f	89 8e 7c 04 00
	00		 mov	 DWORD PTR [esi+1148], ecx
  00c25	f7 3d ac 02 00
	00		 idiv	 DWORD PTR ?ZtConfig@@3VcZtConfigs@@A+684
  00c2b	8b c8		 mov	 ecx, eax
  00c2d	8b 85 e0 fe ff
	ff		 mov	 eax, DWORD PTR _Vitality$[ebp]
  00c33	99		 cdq
  00c34	f7 3d a8 02 00
	00		 idiv	 DWORD PTR ?ZtConfig@@3VcZtConfigs@@A+680
  00c3a	03 c8		 add	 ecx, eax
  00c3c	89 8e 78 04 00
	00		 mov	 DWORD PTR [esi+1144], ecx
  00c42	b9 00 00 00 00	 mov	 ecx, OFFSET ?g_ZtLicense@@3VCZtLicense@@A ; g_ZtLicense
  00c47	e8 00 00 00 00	 call	 ?CheckUser@CZtLicense@@QAE_NH@Z ; CZtLicense::CheckUser
  00c4c	84 c0		 test	 al, al
  00c4e	75 24		 jne	 SHORT $LN229@gObjCalCha
  00c50	6a 28		 push	 40			; 00000028H
  00c52	b9 00 00 00 00	 mov	 ecx, OFFSET ?g_ZtLicense@@3VCZtLicense@@A ; g_ZtLicense
  00c57	e8 00 00 00 00	 call	 ?CheckUser@CZtLicense@@QAE_NH@Z ; CZtLicense::CheckUser
  00c5c	84 c0		 test	 al, al
  00c5e	75 14		 jne	 SHORT $LN229@gObjCalCha
  00c60	6a 24		 push	 36			; 00000024H
  00c62	b9 00 00 00 00	 mov	 ecx, OFFSET ?g_ZtLicense@@3VCZtLicense@@A ; g_ZtLicense
  00c67	e8 00 00 00 00	 call	 ?CheckUser@CZtLicense@@QAE_NH@Z ; CZtLicense::CheckUser
  00c6c	84 c0		 test	 al, al
  00c6e	0f 84 b5 00 00
	00		 je	 $LN228@gObjCalCha
$LN229@gObjCalCha:

; 448  : 		{
; 449  : 			lpObj->m_AttackDamageMinRight = (lpObj->m_AttackDamageMinRight * CalculatorManager.RF_DamageMinPercent) / 100;

  00c74	8b 0f		 mov	 ecx, DWORD PTR [edi]
  00c76	0f af 0d 40 00
	00 00		 imul	 ecx, DWORD PTR ?CalculatorManager@@3VcCalculatorManager@@A+64
  00c7d	b8 1f 85 eb 51	 mov	 eax, 1374389535		; 51eb851fH
  00c82	f7 e9		 imul	 ecx
  00c84	c1 fa 05	 sar	 edx, 5
  00c87	8b c2		 mov	 eax, edx
  00c89	c1 e8 1f	 shr	 eax, 31			; 0000001fH
  00c8c	03 c2		 add	 eax, edx

; 450  : 			lpObj->m_AttackDamageMinLeft = (lpObj->m_AttackDamageMinLeft * CalculatorManager.RF_DamageMinPercent) / 100;

  00c8e	8b 96 7c 04 00
	00		 mov	 edx, DWORD PTR [esi+1148]
  00c94	89 07		 mov	 DWORD PTR [edi], eax
  00c96	0f af 15 40 00
	00 00		 imul	 edx, DWORD PTR ?CalculatorManager@@3VcCalculatorManager@@A+64
  00c9d	b8 1f 85 eb 51	 mov	 eax, 1374389535		; 51eb851fH
  00ca2	f7 ea		 imul	 edx
  00ca4	c1 fa 05	 sar	 edx, 5
  00ca7	8b ca		 mov	 ecx, edx
  00ca9	c1 e9 1f	 shr	 ecx, 31			; 0000001fH
  00cac	03 ca		 add	 ecx, edx
  00cae	89 8e 7c 04 00
	00		 mov	 DWORD PTR [esi+1148], ecx

; 451  : 
; 452  : 			lpObj->m_AttackDamageMaxRight = (lpObj->m_AttackDamageMaxRight * CalculatorManager.RF_DamageMaxPercent) / 100;

  00cb4	8b 0b		 mov	 ecx, DWORD PTR [ebx]
  00cb6	0f af 0d 44 00
	00 00		 imul	 ecx, DWORD PTR ?CalculatorManager@@3VcCalculatorManager@@A+68
  00cbd	b8 1f 85 eb 51	 mov	 eax, 1374389535		; 51eb851fH
  00cc2	f7 e9		 imul	 ecx
  00cc4	c1 fa 05	 sar	 edx, 5
  00cc7	8b c2		 mov	 eax, edx
  00cc9	c1 e8 1f	 shr	 eax, 31			; 0000001fH
  00ccc	03 c2		 add	 eax, edx

; 453  : 			lpObj->m_AttackDamageMaxLeft = (lpObj->m_AttackDamageMaxLeft * CalculatorManager.RF_DamageMaxPercent) / 100;

  00cce	8b 96 78 04 00
	00		 mov	 edx, DWORD PTR [esi+1144]
  00cd4	89 03		 mov	 DWORD PTR [ebx], eax
  00cd6	0f af 15 44 00
	00 00		 imul	 edx, DWORD PTR ?CalculatorManager@@3VcCalculatorManager@@A+68
$LN514@gObjCalCha:
  00cdd	b8 1f 85 eb 51	 mov	 eax, 1374389535		; 51eb851fH
  00ce2	f7 ea		 imul	 edx
  00ce4	c1 fa 05	 sar	 edx, 5
  00ce7	8b ca		 mov	 ecx, edx
  00ce9	c1 e9 1f	 shr	 ecx, 31			; 0000001fH
  00cec	03 ca		 add	 ecx, edx
  00cee	89 8e 78 04 00
	00		 mov	 DWORD PTR [esi+1144], ecx

; 454  : 		}
; 455  : #endif
; 456  : 
; 457  : 	}
; 458  : #endif
; 459  : 	else

  00cf4	eb 33		 jmp	 SHORT $LN228@gObjCalCha
$LN231@gObjCalCha:

; 460  : 	{
; 461  : 		lpObj->m_AttackDamageMinRight = (Strength / 8);

  00cf6	8b 9d e8 fe ff
	ff		 mov	 ebx, DWORD PTR _Strength$[ebp]
  00cfc	8b c3		 mov	 eax, ebx
  00cfe	99		 cdq
  00cff	83 e2 07	 and	 edx, 7
  00d02	8d 0c 02	 lea	 ecx, DWORD PTR [edx+eax]

; 462  : 		lpObj->m_AttackDamageMaxRight = (Strength / 4);

  00d05	8b c3		 mov	 eax, ebx
  00d07	99		 cdq
  00d08	83 e2 03	 and	 edx, 3
  00d0b	c1 f9 03	 sar	 ecx, 3
  00d0e	03 c2		 add	 eax, edx
  00d10	c1 f8 02	 sar	 eax, 2
  00d13	8d 9e 80 04 00
	00		 lea	 ebx, DWORD PTR [esi+1152]
  00d19	89 0f		 mov	 DWORD PTR [edi], ecx
  00d1b	89 03		 mov	 DWORD PTR [ebx], eax

; 463  : 		lpObj->m_AttackDamageMinLeft = (Strength / 8);

  00d1d	89 8e 7c 04 00
	00		 mov	 DWORD PTR [esi+1148], ecx
$LN513@gObjCalCha:

; 464  : 		lpObj->m_AttackDamageMaxLeft = (Strength / 4);

  00d23	89 86 78 04 00
	00		 mov	 DWORD PTR [esi+1144], eax
$LN228@gObjCalCha:

; 465  : 	}
; 466  : 	if(lpObj->Class == CLASS_KNIGHT || lpObj->Class == CLASS_ELF || lpObj->Class == CLASS_DARKLORD)

  00d29	0f b7 86 b8 00
	00 00		 movzx	 eax, WORD PTR [esi+184]
  00d30	83 f8 01	 cmp	 eax, 1
  00d33	74 0a		 je	 SHORT $LN226@gObjCalCha
  00d35	83 f8 02	 cmp	 eax, 2
  00d38	74 05		 je	 SHORT $LN226@gObjCalCha
  00d3a	83 f8 04	 cmp	 eax, 4
  00d3d	75 4c		 jne	 SHORT $LN227@gObjCalCha
$LN226@gObjCalCha:

; 467  : 	{
; 468  : 		lpObj->m_AttackDamageMaxRight += lpObj->m_MPSkillOpt.MpsMaxAttackInc;

  00d3f	db 03		 fild	 DWORD PTR [ebx]
  00d41	d8 86 2c 27 00
	00		 fadd	 DWORD PTR [esi+10028]
  00d47	e8 00 00 00 00	 call	 __ftol2_sse

; 469  : 		lpObj->m_AttackDamageMaxLeft += lpObj->m_MPSkillOpt.MpsMaxAttackInc;

  00d4c	db 86 78 04 00
	00		 fild	 DWORD PTR [esi+1144]
  00d52	89 03		 mov	 DWORD PTR [ebx], eax
  00d54	d8 86 2c 27 00
	00		 fadd	 DWORD PTR [esi+10028]
  00d5a	e8 00 00 00 00	 call	 __ftol2_sse

; 470  : 		lpObj->m_AttackDamageMinRight += lpObj->m_MPSkillOpt.MpsMinAttackInc;

  00d5f	db 07		 fild	 DWORD PTR [edi]
  00d61	89 86 78 04 00
	00		 mov	 DWORD PTR [esi+1144], eax
  00d67	d8 86 28 27 00
	00		 fadd	 DWORD PTR [esi+10024]
  00d6d	e8 00 00 00 00	 call	 __ftol2_sse

; 471  : 		lpObj->m_AttackDamageMinLeft += lpObj->m_MPSkillOpt.MpsMinAttackInc;

  00d72	db 86 7c 04 00
	00		 fild	 DWORD PTR [esi+1148]
  00d78	89 07		 mov	 DWORD PTR [edi], eax
  00d7a	d8 86 28 27 00
	00		 fadd	 DWORD PTR [esi+10024]
  00d80	e8 00 00 00 00	 call	 __ftol2_sse
  00d85	89 86 7c 04 00
	00		 mov	 DWORD PTR [esi+1148], eax
$LN227@gObjCalCha:

; 472  : 	}
; 473  : 
; 474  : 	lpObj->pInventory[7].PlusSpecial(&lpObj->m_AttackDamageMinRight, 80);

  00d8b	8b 8e 24 0e 00
	00		 mov	 ecx, DWORD PTR [esi+3620]
  00d91	6a 50		 push	 80			; 00000050H
  00d93	57		 push	 edi
  00d94	81 c1 cc 05 00
	00		 add	 ecx, 1484		; 000005ccH
  00d9a	e8 00 00 00 00	 call	 ?PlusSpecial@CItem@@QAEXPAHH@Z ; CItem::PlusSpecial

; 475  : 	lpObj->pInventory[7].PlusSpecial(&lpObj->m_AttackDamageMaxRight, 80);

  00d9f	8b 8e 24 0e 00
	00		 mov	 ecx, DWORD PTR [esi+3620]
  00da5	6a 50		 push	 80			; 00000050H
  00da7	53		 push	 ebx
  00da8	81 c1 cc 05 00
	00		 add	 ecx, 1484		; 000005ccH
  00dae	e8 00 00 00 00	 call	 ?PlusSpecial@CItem@@QAEXPAHH@Z ; CItem::PlusSpecial

; 476  : 	lpObj->pInventory[7].PlusSpecial(&lpObj->m_AttackDamageMinLeft, 80);

  00db3	8b 8e 24 0e 00
	00		 mov	 ecx, DWORD PTR [esi+3620]
  00db9	6a 50		 push	 80			; 00000050H
  00dbb	8d 86 7c 04 00
	00		 lea	 eax, DWORD PTR [esi+1148]
  00dc1	50		 push	 eax
  00dc2	81 c1 cc 05 00
	00		 add	 ecx, 1484		; 000005ccH
  00dc8	e8 00 00 00 00	 call	 ?PlusSpecial@CItem@@QAEXPAHH@Z ; CItem::PlusSpecial

; 477  : 	lpObj->pInventory[7].PlusSpecial(&lpObj->m_AttackDamageMaxLeft, 80);

  00dcd	8b 8e 24 0e 00
	00		 mov	 ecx, DWORD PTR [esi+3620]
  00dd3	6a 50		 push	 80			; 00000050H
  00dd5	8d 86 78 04 00
	00		 lea	 eax, DWORD PTR [esi+1144]
  00ddb	50		 push	 eax
  00ddc	81 c1 cc 05 00
	00		 add	 ecx, 1484		; 000005ccH
  00de2	e8 00 00 00 00	 call	 ?PlusSpecial@CItem@@QAEXPAHH@Z ; CItem::PlusSpecial

; 478  : 
; 479  : 	int AddLeadership = 0;

  00de7	c7 85 b8 fe ff
	ff 00 00 00 00	 mov	 DWORD PTR _AddLeadership$[ebp], 0

; 480  : 
; 481  : 	if ( lpObj->pInventory[7].IsItem() != FALSE && lpObj->pInventory[7].m_IsValidItem != false)

  00df1	8b 8e 24 0e 00
	00		 mov	 ecx, DWORD PTR [esi+3620]
  00df7	81 c1 cc 05 00
	00		 add	 ecx, 1484		; 000005ccH
  00dfd	e8 00 00 00 00	 call	 ?IsItem@CItem@@QAEHXZ	; CItem::IsItem
  00e02	85 c0		 test	 eax, eax
  00e04	74 1c		 je	 SHORT $LN225@gObjCalCha
  00e06	8b 86 24 0e 00
	00		 mov	 eax, DWORD PTR [esi+3620]
  00e0c	80 b8 7c 06 00
	00 00		 cmp	 BYTE PTR [eax+1660], 0
  00e13	74 0d		 je	 SHORT $LN225@gObjCalCha

; 482  : 	{
; 483  : 		AddLeadership += lpObj->pInventory[7].m_Leadership;

  00e15	0f b7 90 22 06
	00 00		 movzx	 edx, WORD PTR [eax+1570]
  00e1c	01 95 b8 fe ff
	ff		 add	 DWORD PTR _AddLeadership$[ebp], edx
$LN225@gObjCalCha:

; 484  : 	}
; 485  : 
; 486  : 	if ( Right->m_Type != -1 )

  00e22	8b 85 c8 fe ff
	ff		 mov	 eax, DWORD PTR _Right$[ebp]
  00e28	0f b7 48 06	 movzx	 ecx, WORD PTR [eax+6]
  00e2c	66 83 f9 ff	 cmp	 cx, -1
  00e30	74 65		 je	 SHORT $LN224@gObjCalCha

; 487  : 	{
; 488  : 		if ( Right->m_IsValidItem != false )

  00e32	80 b8 b0 00 00
	00 00		 cmp	 BYTE PTR [eax+176], 0
  00e39	74 30		 je	 SHORT $LN221@gObjCalCha

; 489  : 		{
; 490  : 			if ( Right->m_Type >= ITEMGET(5,0) && Right->m_Type <= ITEMGET(6,0) )

  00e3b	ba 00 0a 00 00	 mov	 edx, 2560		; 00000a00H
  00e40	66 3b ca	 cmp	 cx, dx
  00e43	7c 1a		 jl	 SHORT $LN222@gObjCalCha
  00e45	ba 00 0c 00 00	 mov	 edx, 3072		; 00000c00H
  00e4a	66 3b ca	 cmp	 cx, dx
  00e4d	7f 10		 jg	 SHORT $LN222@gObjCalCha

; 491  : 			{
; 492  : 				lpObj->m_AttackDamageMinRight += Right->m_DamageMin / 2; //check?

  00e4f	0f b7 48 10	 movzx	 ecx, WORD PTR [eax+16]
  00e53	d1 e9		 shr	 ecx, 1
  00e55	01 0f		 add	 DWORD PTR [edi], ecx

; 493  : 				lpObj->m_AttackDamageMaxRight += Right->m_DamageMax / 2; //check?

  00e57	0f b7 50 12	 movzx	 edx, WORD PTR [eax+18]
  00e5b	d1 ea		 shr	 edx, 1

; 494  : 			}
; 495  : 			else

  00e5d	eb 0a		 jmp	 SHORT $LN515@gObjCalCha
$LN222@gObjCalCha:

; 496  : 			{
; 497  : 				lpObj->m_AttackDamageMinRight += Right->m_DamageMin;

  00e5f	0f b7 48 10	 movzx	 ecx, WORD PTR [eax+16]
  00e63	01 0f		 add	 DWORD PTR [edi], ecx

; 498  : 				lpObj->m_AttackDamageMaxRight += Right->m_DamageMax;

  00e65	0f b7 50 12	 movzx	 edx, WORD PTR [eax+18]
$LN515@gObjCalCha:
  00e69	01 13		 add	 DWORD PTR [ebx], edx
$LN221@gObjCalCha:

; 499  : 			}
; 500  : 		}
; 501  : 
; 502  : 		if ( lpObj->pInventory[0].m_SkillChange != FALSE )

  00e6b	8b 8e 24 0e 00
	00		 mov	 ecx, DWORD PTR [esi+3620]
  00e71	80 b9 ac 00 00
	00 00		 cmp	 BYTE PTR [ecx+172], 0
  00e78	74 07		 je	 SHORT $LN220@gObjCalCha

; 503  : 		{
; 504  : 			lpObj->SkillLongSpearChange = true;

  00e7a	c6 86 7a 12 00
	00 01		 mov	 BYTE PTR [esi+4730], 1
$LN220@gObjCalCha:

; 505  : 		}
; 506  : 
; 507  : 		lpObj->pInventory[0].PlusSpecial(&lpObj->m_AttackDamageMinRight, 80);

  00e81	6a 50		 push	 80			; 00000050H
  00e83	57		 push	 edi
  00e84	e8 00 00 00 00	 call	 ?PlusSpecial@CItem@@QAEXPAHH@Z ; CItem::PlusSpecial

; 508  : 		lpObj->pInventory[0].PlusSpecial(&lpObj->m_AttackDamageMaxRight, 80);

  00e89	8b 8e 24 0e 00
	00		 mov	 ecx, DWORD PTR [esi+3620]
  00e8f	6a 50		 push	 80			; 00000050H
  00e91	53		 push	 ebx
  00e92	e8 00 00 00 00	 call	 ?PlusSpecial@CItem@@QAEXPAHH@Z ; CItem::PlusSpecial
$LN224@gObjCalCha:

; 509  : 	}
; 510  : 		
; 511  : 	if ( Left->m_Type != -1 )

  00e97	8b 85 cc fe ff
	ff		 mov	 eax, DWORD PTR _Left$[ebp]
  00e9d	66 83 78 06 ff	 cmp	 WORD PTR [eax+6], -1
  00ea2	74 51		 je	 SHORT $LN219@gObjCalCha

; 512  : 	{
; 513  : 		if ( Left->m_IsValidItem != false)

  00ea4	80 b8 b0 00 00
	00 00		 cmp	 BYTE PTR [eax+176], 0
  00eab	74 14		 je	 SHORT $LN218@gObjCalCha

; 514  : 		{
; 515  : 			lpObj->m_AttackDamageMinLeft += Left->m_DamageMin;

  00ead	0f b7 48 10	 movzx	 ecx, WORD PTR [eax+16]
  00eb1	01 8e 7c 04 00
	00		 add	 DWORD PTR [esi+1148], ecx

; 516  : 			lpObj->m_AttackDamageMaxLeft += Left->m_DamageMax;

  00eb7	0f b7 50 12	 movzx	 edx, WORD PTR [eax+18]
  00ebb	01 96 78 04 00
	00		 add	 DWORD PTR [esi+1144], edx
$LN218@gObjCalCha:

; 517  : 		}
; 518  : 
; 519  : 		lpObj->pInventory[1].PlusSpecial(&lpObj->m_AttackDamageMinLeft, 80);

  00ec1	8b 8e 24 0e 00
	00		 mov	 ecx, DWORD PTR [esi+3620]
  00ec7	6a 50		 push	 80			; 00000050H
  00ec9	8d 86 7c 04 00
	00		 lea	 eax, DWORD PTR [esi+1148]
  00ecf	50		 push	 eax
  00ed0	81 c1 d4 00 00
	00		 add	 ecx, 212		; 000000d4H
  00ed6	e8 00 00 00 00	 call	 ?PlusSpecial@CItem@@QAEXPAHH@Z ; CItem::PlusSpecial

; 520  : 		lpObj->pInventory[1].PlusSpecial(&lpObj->m_AttackDamageMaxLeft, 80);

  00edb	8b 8e 24 0e 00
	00		 mov	 ecx, DWORD PTR [esi+3620]
  00ee1	6a 50		 push	 80			; 00000050H
  00ee3	8d 86 78 04 00
	00		 lea	 eax, DWORD PTR [esi+1144]
  00ee9	50		 push	 eax
  00eea	81 c1 d4 00 00
	00		 add	 ecx, 212		; 000000d4H
  00ef0	e8 00 00 00 00	 call	 ?PlusSpecial@CItem@@QAEXPAHH@Z ; CItem::PlusSpecial
$LN219@gObjCalCha:

; 521  : 	}
; 522  : 
; 523  : 	lpObj->m_CriticalDamage = 0;
; 524  : 	lpObj->m_ExcelentDamage = 0;
; 525  : 
; 526  : 	lpObj->pInventory[0].PlusSpecial(&lpObj->m_CriticalDamage, 84);

  00ef5	8b 8e 24 0e 00
	00		 mov	 ecx, DWORD PTR [esi+3620]
  00efb	8d 86 bc 04 00
	00		 lea	 eax, DWORD PTR [esi+1212]
  00f01	6a 54		 push	 84			; 00000054H
  00f03	50		 push	 eax
  00f04	c7 00 00 00 00
	00		 mov	 DWORD PTR [eax], 0
  00f0a	c7 86 c0 04 00
	00 00 00 00 00	 mov	 DWORD PTR [esi+1216], 0
  00f14	e8 00 00 00 00	 call	 ?PlusSpecial@CItem@@QAEXPAHH@Z ; CItem::PlusSpecial

; 527  : 	lpObj->pInventory[1].PlusSpecial(&lpObj->m_CriticalDamage, 84);

  00f19	8b 8e 24 0e 00
	00		 mov	 ecx, DWORD PTR [esi+3620]
  00f1f	6a 54		 push	 84			; 00000054H
  00f21	8d 86 bc 04 00
	00		 lea	 eax, DWORD PTR [esi+1212]
  00f27	50		 push	 eax
  00f28	81 c1 d4 00 00
	00		 add	 ecx, 212		; 000000d4H
  00f2e	e8 00 00 00 00	 call	 ?PlusSpecial@CItem@@QAEXPAHH@Z ; CItem::PlusSpecial

; 528  : 	lpObj->pInventory[2].PlusSpecial(&lpObj->m_CriticalDamage, 84);

  00f33	8b 8e 24 0e 00
	00		 mov	 ecx, DWORD PTR [esi+3620]
  00f39	6a 54		 push	 84			; 00000054H
  00f3b	8d 86 bc 04 00
	00		 lea	 eax, DWORD PTR [esi+1212]
  00f41	50		 push	 eax
  00f42	81 c1 a8 01 00
	00		 add	 ecx, 424		; 000001a8H
  00f48	e8 00 00 00 00	 call	 ?PlusSpecial@CItem@@QAEXPAHH@Z ; CItem::PlusSpecial

; 529  : 	lpObj->pInventory[3].PlusSpecial(&lpObj->m_CriticalDamage, 84);

  00f4d	8b 8e 24 0e 00
	00		 mov	 ecx, DWORD PTR [esi+3620]
  00f53	6a 54		 push	 84			; 00000054H
  00f55	8d 86 bc 04 00
	00		 lea	 eax, DWORD PTR [esi+1212]
  00f5b	50		 push	 eax
  00f5c	81 c1 7c 02 00
	00		 add	 ecx, 636		; 0000027cH
  00f62	e8 00 00 00 00	 call	 ?PlusSpecial@CItem@@QAEXPAHH@Z ; CItem::PlusSpecial

; 530  : 	lpObj->pInventory[4].PlusSpecial(&lpObj->m_CriticalDamage, 84);

  00f67	8b 8e 24 0e 00
	00		 mov	 ecx, DWORD PTR [esi+3620]
  00f6d	6a 54		 push	 84			; 00000054H
  00f6f	8d 86 bc 04 00
	00		 lea	 eax, DWORD PTR [esi+1212]
  00f75	50		 push	 eax
  00f76	81 c1 50 03 00
	00		 add	 ecx, 848		; 00000350H
  00f7c	e8 00 00 00 00	 call	 ?PlusSpecial@CItem@@QAEXPAHH@Z ; CItem::PlusSpecial

; 531  : 	lpObj->pInventory[5].PlusSpecial(&lpObj->m_CriticalDamage, 84);

  00f81	8b 8e 24 0e 00
	00		 mov	 ecx, DWORD PTR [esi+3620]
  00f87	6a 54		 push	 84			; 00000054H
  00f89	8d 86 bc 04 00
	00		 lea	 eax, DWORD PTR [esi+1212]
  00f8f	50		 push	 eax
  00f90	81 c1 24 04 00
	00		 add	 ecx, 1060		; 00000424H
  00f96	e8 00 00 00 00	 call	 ?PlusSpecial@CItem@@QAEXPAHH@Z ; CItem::PlusSpecial

; 532  : 	lpObj->pInventory[6].PlusSpecial(&lpObj->m_CriticalDamage, 84);

  00f9b	8b 8e 24 0e 00
	00		 mov	 ecx, DWORD PTR [esi+3620]
  00fa1	6a 54		 push	 84			; 00000054H
  00fa3	8d 86 bc 04 00
	00		 lea	 eax, DWORD PTR [esi+1212]
  00fa9	50		 push	 eax
  00faa	81 c1 f8 04 00
	00		 add	 ecx, 1272		; 000004f8H
  00fb0	e8 00 00 00 00	 call	 ?PlusSpecial@CItem@@QAEXPAHH@Z ; CItem::PlusSpecial

; 533  : 	lpObj->pInventory[7].PlusSpecial(&lpObj->m_CriticalDamage, 84);

  00fb5	8b 8e 24 0e 00
	00		 mov	 ecx, DWORD PTR [esi+3620]
  00fbb	6a 54		 push	 84			; 00000054H
  00fbd	8d 86 bc 04 00
	00		 lea	 eax, DWORD PTR [esi+1212]
  00fc3	50		 push	 eax
  00fc4	81 c1 cc 05 00
	00		 add	 ecx, 1484		; 000005ccH
  00fca	e8 00 00 00 00	 call	 ?PlusSpecial@CItem@@QAEXPAHH@Z ; CItem::PlusSpecial

; 534  : 
; 535  : 
; 536  : 
; 537  : 	lpObj->m_MagicDamageMin = Energy / 9;

  00fcf	8b 8d ec fe ff
	ff		 mov	 ecx, DWORD PTR _Energy$[ebp]
  00fd5	b8 39 8e e3 38	 mov	 eax, 954437177		; 38e38e39H
  00fda	f7 e9		 imul	 ecx
  00fdc	d1 fa		 sar	 edx, 1
  00fde	8b c2		 mov	 eax, edx
  00fe0	c1 e8 1f	 shr	 eax, 31			; 0000001fH
  00fe3	03 c2		 add	 eax, edx
  00fe5	89 86 68 04 00
	00		 mov	 DWORD PTR [esi+1128], eax

; 538  : 	lpObj->m_MagicDamageMax = Energy / 4;

  00feb	8b c1		 mov	 eax, ecx
  00fed	99		 cdq
  00fee	83 e2 03	 and	 edx, 3
  00ff1	03 c2		 add	 eax, edx
  00ff3	c1 f8 02	 sar	 eax, 2

; 539  : 
; 540  : 
; 541  : 
; 542  : 	if(lpObj->Class == CLASS_SUMMONER) //stronger!!!

  00ff6	66 83 be b8 00
	00 00 05	 cmp	 WORD PTR [esi+184], 5
  00ffe	89 86 6c 04 00
	00		 mov	 DWORD PTR [esi+1132], eax
  01004	0f 85 80 01 00
	00		 jne	 $LN214@gObjCalCha

; 543  : 	{
; 544  : 		//int MagicDamageMax = GetPrivateProfileInt("Summoner","MagicDamageMax",4,"..\\Data\\ZtData\\Character.ini");
; 545  : 		//int MagicDamageMin = GetPrivateProfileInt("Summoner","MagicDamageMin",9,"..\\Data\\ZtData\\Character.ini");
; 546  : 
; 547  : 		lpObj->m_MagicDamageMin = Energy / ZtConfig.Character.SUMMagicDamageMin;	// 9

  0100a	8b c1		 mov	 eax, ecx
  0100c	99		 cdq
  0100d	f7 3d 4c 02 00
	00		 idiv	 DWORD PTR ?ZtConfig@@3VcZtConfigs@@A+588

; 548  : 		lpObj->m_MagicDamageMax = Energy / ZtConfig.Character.SUMMagicDamageMax;	// 4
; 549  : 
; 550  : 		lpObj->m_iSummonerBookSpellDamageMin = Energy / ZtConfig.Character.SUMMagicDamageMin;	// Energy / 9
; 551  : 		lpObj->m_iSummonerBookSpellDamageMax = Energy / ZtConfig.Character.SUMMagicDamageMax;	// (Energy / 4) + 0.015
; 552  : 
; 553  : 		
; 554  : #ifdef CALCULATOR_MANAGER
; 555  : 		if (g_ZtLicense.CheckUser(eZtUB::ulasevich) || g_ZtLicense.CheckUser(eZtUB::ConflictNoCustom) || g_ZtLicense.CheckUser(eZtUB::ulasevich2))

  01013	6a 17		 push	 23			; 00000017H
  01015	89 86 68 04 00
	00		 mov	 DWORD PTR [esi+1128], eax
  0101b	8b c1		 mov	 eax, ecx
  0101d	99		 cdq
  0101e	f7 3d 48 02 00
	00		 idiv	 DWORD PTR ?ZtConfig@@3VcZtConfigs@@A+584
  01024	89 86 6c 04 00
	00		 mov	 DWORD PTR [esi+1132], eax
  0102a	8b c1		 mov	 eax, ecx
  0102c	99		 cdq
  0102d	f7 3d 4c 02 00
	00		 idiv	 DWORD PTR ?ZtConfig@@3VcZtConfigs@@A+588
  01033	89 86 a4 04 00
	00		 mov	 DWORD PTR [esi+1188], eax
  01039	8b c1		 mov	 eax, ecx
  0103b	99		 cdq
  0103c	f7 3d 48 02 00
	00		 idiv	 DWORD PTR ?ZtConfig@@3VcZtConfigs@@A+584
  01042	b9 00 00 00 00	 mov	 ecx, OFFSET ?g_ZtLicense@@3VCZtLicense@@A ; g_ZtLicense
  01047	89 86 a8 04 00
	00		 mov	 DWORD PTR [esi+1192], eax
  0104d	e8 00 00 00 00	 call	 ?CheckUser@CZtLicense@@QAE_NH@Z ; CZtLicense::CheckUser
  01052	84 c0		 test	 al, al
  01054	75 24		 jne	 SHORT $LN215@gObjCalCha
  01056	6a 28		 push	 40			; 00000028H
  01058	b9 00 00 00 00	 mov	 ecx, OFFSET ?g_ZtLicense@@3VCZtLicense@@A ; g_ZtLicense
  0105d	e8 00 00 00 00	 call	 ?CheckUser@CZtLicense@@QAE_NH@Z ; CZtLicense::CheckUser
  01062	84 c0		 test	 al, al
  01064	75 14		 jne	 SHORT $LN215@gObjCalCha
  01066	6a 24		 push	 36			; 00000024H
  01068	b9 00 00 00 00	 mov	 ecx, OFFSET ?g_ZtLicense@@3VCZtLicense@@A ; g_ZtLicense
  0106d	e8 00 00 00 00	 call	 ?CheckUser@CZtLicense@@QAE_NH@Z ; CZtLicense::CheckUser
  01072	84 c0		 test	 al, al
  01074	0f 84 90 00 00
	00		 je	 $LN216@gObjCalCha
$LN215@gObjCalCha:

; 556  : 		{
; 557  : 			lpObj->m_MagicDamageMin = (lpObj->m_MagicDamageMin * CalculatorManager.SUM_MinimumWizardryDamagePercent) / 100;

  0107a	8b 96 68 04 00
	00		 mov	 edx, DWORD PTR [esi+1128]
  01080	0f af 15 30 00
	00 00		 imul	 edx, DWORD PTR ?CalculatorManager@@3VcCalculatorManager@@A+48
  01087	b8 1f 85 eb 51	 mov	 eax, 1374389535		; 51eb851fH
  0108c	f7 ea		 imul	 edx
  0108e	c1 fa 05	 sar	 edx, 5
  01091	8b ca		 mov	 ecx, edx
  01093	c1 e9 1f	 shr	 ecx, 31			; 0000001fH
  01096	03 ca		 add	 ecx, edx

; 558  : 			lpObj->m_MagicDamageMax = (lpObj->m_MagicDamageMax * CalculatorManager.SUM_MaximumWizardryDamagePercent) / 100;

  01098	8b 96 6c 04 00
	00		 mov	 edx, DWORD PTR [esi+1132]
  0109e	89 8e 68 04 00
	00		 mov	 DWORD PTR [esi+1128], ecx
  010a4	0f af 15 34 00
	00 00		 imul	 edx, DWORD PTR ?CalculatorManager@@3VcCalculatorManager@@A+52

; 559  : 
; 560  : 			lpObj->m_iSummonerBookSpellDamageMin = (lpObj->m_iSummonerBookSpellDamageMin * CalculatorManager.SUM_MinimumCurseDamagePercent) / 100;

  010ab	8b 8e a4 04 00
	00		 mov	 ecx, DWORD PTR [esi+1188]
  010b1	b8 1f 85 eb 51	 mov	 eax, 1374389535		; 51eb851fH
  010b6	f7 ea		 imul	 edx
  010b8	c1 fa 05	 sar	 edx, 5
  010bb	8b c2		 mov	 eax, edx
  010bd	c1 e8 1f	 shr	 eax, 31			; 0000001fH
  010c0	03 c2		 add	 eax, edx
  010c2	89 86 6c 04 00
	00		 mov	 DWORD PTR [esi+1132], eax
  010c8	0f af 0d 38 00
	00 00		 imul	 ecx, DWORD PTR ?CalculatorManager@@3VcCalculatorManager@@A+56
  010cf	b8 1f 85 eb 51	 mov	 eax, 1374389535		; 51eb851fH
  010d4	f7 e9		 imul	 ecx
  010d6	c1 fa 05	 sar	 edx, 5
  010d9	8b ca		 mov	 ecx, edx
  010db	c1 e9 1f	 shr	 ecx, 31			; 0000001fH
  010de	03 ca		 add	 ecx, edx
  010e0	89 8e a4 04 00
	00		 mov	 DWORD PTR [esi+1188], ecx

; 561  : 			lpObj->m_iSummonerBookSpellDamageMax = (lpObj->m_iSummonerBookSpellDamageMax * CalculatorManager.SUM_MaximumCurseDamagePercent) / 100;

  010e6	8b 8e a8 04 00
	00		 mov	 ecx, DWORD PTR [esi+1192]
  010ec	0f af 0d 3c 00
	00 00		 imul	 ecx, DWORD PTR ?CalculatorManager@@3VcCalculatorManager@@A+60
  010f3	b8 1f 85 eb 51	 mov	 eax, 1374389535		; 51eb851fH
  010f8	f7 e9		 imul	 ecx
  010fa	c1 fa 05	 sar	 edx, 5
  010fd	8b c2		 mov	 eax, edx
  010ff	c1 e8 1f	 shr	 eax, 31			; 0000001fH
  01102	03 c2		 add	 eax, edx
  01104	89 86 a8 04 00
	00		 mov	 DWORD PTR [esi+1192], eax
$LN216@gObjCalCha:

; 562  : 		}
; 563  : #endif
; 564  : 
; 565  : 		lpObj->m_MagicDamageMax += lpObj->m_MPSkillOpt.MpsMaxMagicDamage;

  0110a	db 86 6c 04 00
	00		 fild	 DWORD PTR [esi+1132]
  01110	d8 86 64 27 00
	00		 fadd	 DWORD PTR [esi+10084]
  01116	e8 00 00 00 00	 call	 __ftol2_sse

; 566  : 		lpObj->m_MagicDamageMin += lpObj->m_MPSkillOpt.MpsMinMagicDamage;

  0111b	db 86 68 04 00
	00		 fild	 DWORD PTR [esi+1128]
  01121	89 86 6c 04 00
	00		 mov	 DWORD PTR [esi+1132], eax
  01127	d8 86 68 27 00
	00		 fadd	 DWORD PTR [esi+10088]
  0112d	e8 00 00 00 00	 call	 __ftol2_sse

; 567  : 
; 568  : 		if(g_ZtLicense.CheckUser(eZtUB::MuPrime))

  01132	6a 5a		 push	 90			; 0000005aH
  01134	b9 00 00 00 00	 mov	 ecx, OFFSET ?g_ZtLicense@@3VCZtLicense@@A ; g_ZtLicense
  01139	89 86 68 04 00
	00		 mov	 DWORD PTR [esi+1128], eax
  0113f	e8 00 00 00 00	 call	 ?CheckUser@CZtLicense@@QAE_NH@Z ; CZtLicense::CheckUser
  01144	84 c0		 test	 al, al
  01146	74 42		 je	 SHORT $LN214@gObjCalCha

; 569  : 		{
; 570  : 			lpObj->m_MagicDamageMin += (Strength / ZtConfig.Character.SUMDamageMin_StrRight);

  01148	8b 8d e8 fe ff
	ff		 mov	 ecx, DWORD PTR _Strength$[ebp]
  0114e	8b c1		 mov	 eax, ecx
  01150	99		 cdq
  01151	f7 3d 0c 02 00
	00		 idiv	 DWORD PTR ?ZtConfig@@3VcZtConfigs@@A+524
  01157	01 86 68 04 00
	00		 add	 DWORD PTR [esi+1128], eax

; 571  : 			lpObj->m_MagicDamageMax += (Strength / ZtConfig.Character.SUMDamageMax_StrRight);

  0115d	8b c1		 mov	 eax, ecx
  0115f	99		 cdq
  01160	f7 3d 08 02 00
	00		 idiv	 DWORD PTR ?ZtConfig@@3VcZtConfigs@@A+520
  01166	01 86 6c 04 00
	00		 add	 DWORD PTR [esi+1132], eax

; 572  : 
; 573  : 			lpObj->m_iSummonerBookSpellDamageMin += (Strength / ZtConfig.Character.SUMDamageMin_StrRight);

  0116c	8b c1		 mov	 eax, ecx
  0116e	99		 cdq
  0116f	f7 3d 0c 02 00
	00		 idiv	 DWORD PTR ?ZtConfig@@3VcZtConfigs@@A+524
  01175	01 86 a4 04 00
	00		 add	 DWORD PTR [esi+1188], eax

; 574  : 			lpObj->m_iSummonerBookSpellDamageMax += (Strength / ZtConfig.Character.SUMDamageMax_StrRight);

  0117b	8b c1		 mov	 eax, ecx
  0117d	99		 cdq
  0117e	f7 3d 08 02 00
	00		 idiv	 DWORD PTR ?ZtConfig@@3VcZtConfigs@@A+520
  01184	01 86 a8 04 00
	00		 add	 DWORD PTR [esi+1192], eax
$LN214@gObjCalCha:

; 575  : 		}
; 576  : 	}
; 577  : 
; 578  : 	if(lpObj->Class == CLASS_MAGUMSA) //season4 add-on

  0118a	66 83 be b8 00
	00 00 03	 cmp	 WORD PTR [esi+184], 3
  01192	0f 85 ca 00 00
	00		 jne	 $LN213@gObjCalCha

; 579  : 	{
; 580  : 		//int MagicDamageMax = GetPrivateProfileInt("Magic_Gladiator","MagicDamageMax",4,"..\\Data\\ZtData\\Character.ini");
; 581  : 		//int MagicDamageMin = GetPrivateProfileInt("Magic_Gladiator","MagicDamageMin",9,"..\\Data\\ZtData\\Character.ini");
; 582  : 
; 583  : 		lpObj->m_MagicDamageMin = Energy / ZtConfig.Character.MGMagicDamageMin;

  01198	8b 8d ec fe ff
	ff		 mov	 ecx, DWORD PTR _Energy$[ebp]
  0119e	8b c1		 mov	 eax, ecx
  011a0	99		 cdq
  011a1	f7 3d 54 02 00
	00		 idiv	 DWORD PTR ?ZtConfig@@3VcZtConfigs@@A+596

; 584  : 		lpObj->m_MagicDamageMax = Energy / ZtConfig.Character.MGMagicDamageMax;
; 585  : 
; 586  : 		
; 587  : #ifdef CALCULATOR_MANAGER
; 588  : 		if (g_ZtLicense.CheckUser(eZtUB::ulasevich) || g_ZtLicense.CheckUser(eZtUB::ConflictNoCustom) || g_ZtLicense.CheckUser(eZtUB::ulasevich2))

  011a7	6a 17		 push	 23			; 00000017H
  011a9	89 86 68 04 00
	00		 mov	 DWORD PTR [esi+1128], eax
  011af	8b c1		 mov	 eax, ecx
  011b1	99		 cdq
  011b2	f7 3d 50 02 00
	00		 idiv	 DWORD PTR ?ZtConfig@@3VcZtConfigs@@A+592
  011b8	b9 00 00 00 00	 mov	 ecx, OFFSET ?g_ZtLicense@@3VCZtLicense@@A ; g_ZtLicense
  011bd	89 86 6c 04 00
	00		 mov	 DWORD PTR [esi+1132], eax
  011c3	e8 00 00 00 00	 call	 ?CheckUser@CZtLicense@@QAE_NH@Z ; CZtLicense::CheckUser
  011c8	84 c0		 test	 al, al
  011ca	75 20		 jne	 SHORT $LN211@gObjCalCha
  011cc	6a 28		 push	 40			; 00000028H
  011ce	b9 00 00 00 00	 mov	 ecx, OFFSET ?g_ZtLicense@@3VCZtLicense@@A ; g_ZtLicense
  011d3	e8 00 00 00 00	 call	 ?CheckUser@CZtLicense@@QAE_NH@Z ; CZtLicense::CheckUser
  011d8	84 c0		 test	 al, al
  011da	75 10		 jne	 SHORT $LN211@gObjCalCha
  011dc	6a 24		 push	 36			; 00000024H
  011de	b9 00 00 00 00	 mov	 ecx, OFFSET ?g_ZtLicense@@3VCZtLicense@@A ; g_ZtLicense
  011e3	e8 00 00 00 00	 call	 ?CheckUser@CZtLicense@@QAE_NH@Z ; CZtLicense::CheckUser
  011e8	84 c0		 test	 al, al
  011ea	74 48		 je	 SHORT $LN212@gObjCalCha
$LN211@gObjCalCha:

; 589  : 		{
; 590  : 			lpObj->m_MagicDamageMin = (lpObj->m_MagicDamageMin * CalculatorManager.MG_MinWizDamagePercent) / 100;

  011ec	8b 96 68 04 00
	00		 mov	 edx, DWORD PTR [esi+1128]
  011f2	0f af 15 20 00
	00 00		 imul	 edx, DWORD PTR ?CalculatorManager@@3VcCalculatorManager@@A+32
  011f9	b8 1f 85 eb 51	 mov	 eax, 1374389535		; 51eb851fH
  011fe	f7 ea		 imul	 edx
  01200	c1 fa 05	 sar	 edx, 5
  01203	8b ca		 mov	 ecx, edx
  01205	c1 e9 1f	 shr	 ecx, 31			; 0000001fH
  01208	03 ca		 add	 ecx, edx

; 591  : 			lpObj->m_MagicDamageMax = (lpObj->m_MagicDamageMax * CalculatorManager.MG_MaxWizDamagePercent) / 100;

  0120a	8b 96 6c 04 00
	00		 mov	 edx, DWORD PTR [esi+1132]
  01210	89 8e 68 04 00
	00		 mov	 DWORD PTR [esi+1128], ecx
  01216	0f af 15 24 00
	00 00		 imul	 edx, DWORD PTR ?CalculatorManager@@3VcCalculatorManager@@A+36
  0121d	b8 1f 85 eb 51	 mov	 eax, 1374389535		; 51eb851fH
  01222	f7 ea		 imul	 edx
  01224	c1 fa 05	 sar	 edx, 5
  01227	8b c2		 mov	 eax, edx
  01229	c1 e8 1f	 shr	 eax, 31			; 0000001fH
  0122c	03 c2		 add	 eax, edx
  0122e	89 86 6c 04 00
	00		 mov	 DWORD PTR [esi+1132], eax
$LN212@gObjCalCha:

; 592  : 
; 593  : 		}
; 594  : #endif
; 595  : 
; 596  : 		lpObj->m_MagicDamageMax += lpObj->m_MPSkillOpt.MpsMagicMastery;

  01234	db 86 6c 04 00
	00		 fild	 DWORD PTR [esi+1132]
  0123a	d8 86 90 26 00
	00		 fadd	 DWORD PTR [esi+9872]
  01240	e8 00 00 00 00	 call	 __ftol2_sse

; 597  : 		lpObj->m_MagicDamageMin += lpObj->m_MPSkillOpt.MpsMagicMastery;

  01245	db 86 68 04 00
	00		 fild	 DWORD PTR [esi+1128]
  0124b	89 86 6c 04 00
	00		 mov	 DWORD PTR [esi+1132], eax
  01251	d8 86 90 26 00
	00		 fadd	 DWORD PTR [esi+9872]
  01257	e8 00 00 00 00	 call	 __ftol2_sse
  0125c	89 86 68 04 00
	00		 mov	 DWORD PTR [esi+1128], eax
$LN213@gObjCalCha:

; 598  : 	}
; 599  : 
; 600  : 	if(lpObj->Class == CLASS_WIZARD) //season4 add-on

  01262	66 83 be b8 00
	00 00 00	 cmp	 WORD PTR [esi+184], 0
  0126a	0f 85 2c 01 00
	00		 jne	 $LN210@gObjCalCha

; 601  : 	{
; 602  : 		//int MagicDamageMax = GetPrivateProfileInt("Dark_Wizard","MagicDamageMax",4,"..\\Data\\ZtData\\Character.ini");
; 603  : 		//int MagicDamageMin = GetPrivateProfileInt("Dark_Wizard","MagicDamageMin",9,"..\\Data\\ZtData\\Character.ini");
; 604  : 
; 605  : 		lpObj->m_MagicDamageMin = Energy / ZtConfig.Character.DWMagicDamageMin;

  01270	8b 8d ec fe ff
	ff		 mov	 ecx, DWORD PTR _Energy$[ebp]
  01276	8b c1		 mov	 eax, ecx
  01278	99		 cdq
  01279	f7 3d 5c 02 00
	00		 idiv	 DWORD PTR ?ZtConfig@@3VcZtConfigs@@A+604

; 606  : 		lpObj->m_MagicDamageMax = Energy / ZtConfig.Character.DWMagicDamageMax;
; 607  : 
; 608  : 		if(g_ZtLicense.CheckUser(eZtUB::MuPrime))

  0127f	6a 5a		 push	 90			; 0000005aH
  01281	89 86 68 04 00
	00		 mov	 DWORD PTR [esi+1128], eax
  01287	8b c1		 mov	 eax, ecx
  01289	99		 cdq
  0128a	f7 3d 58 02 00
	00		 idiv	 DWORD PTR ?ZtConfig@@3VcZtConfigs@@A+600
  01290	b9 00 00 00 00	 mov	 ecx, OFFSET ?g_ZtLicense@@3VCZtLicense@@A ; g_ZtLicense
  01295	89 86 6c 04 00
	00		 mov	 DWORD PTR [esi+1132], eax
  0129b	e8 00 00 00 00	 call	 ?CheckUser@CZtLicense@@QAE_NH@Z ; CZtLicense::CheckUser
  012a0	84 c0		 test	 al, al
  012a2	74 24		 je	 SHORT $LN209@gObjCalCha

; 609  : 		{
; 610  : 			lpObj->m_MagicDamageMin += (Strength / ZtConfig.Character.DWDamageMin_StrRight);

  012a4	8b 8d e8 fe ff
	ff		 mov	 ecx, DWORD PTR _Strength$[ebp]
  012aa	8b c1		 mov	 eax, ecx
  012ac	99		 cdq
  012ad	f7 3d 1c 02 00
	00		 idiv	 DWORD PTR ?ZtConfig@@3VcZtConfigs@@A+540
  012b3	01 86 68 04 00
	00		 add	 DWORD PTR [esi+1128], eax

; 611  : 			lpObj->m_MagicDamageMax += (Strength / ZtConfig.Character.DWDamageMax_StrRight);

  012b9	8b c1		 mov	 eax, ecx
  012bb	99		 cdq
  012bc	f7 3d 18 02 00
	00		 idiv	 DWORD PTR ?ZtConfig@@3VcZtConfigs@@A+536
  012c2	01 86 6c 04 00
	00		 add	 DWORD PTR [esi+1132], eax
$LN209@gObjCalCha:

; 612  : 		}
; 613  : 
; 614  : #ifdef CALCULATOR_MANAGER
; 615  : 		if (g_ZtLicense.CheckUser(eZtUB::ulasevich) || g_ZtLicense.CheckUser(eZtUB::ConflictNoCustom) || g_ZtLicense.CheckUser(eZtUB::ulasevich2))

  012c8	6a 17		 push	 23			; 00000017H
  012ca	b9 00 00 00 00	 mov	 ecx, OFFSET ?g_ZtLicense@@3VCZtLicense@@A ; g_ZtLicense
  012cf	e8 00 00 00 00	 call	 ?CheckUser@CZtLicense@@QAE_NH@Z ; CZtLicense::CheckUser
  012d4	84 c0		 test	 al, al
  012d6	75 20		 jne	 SHORT $LN207@gObjCalCha
  012d8	6a 28		 push	 40			; 00000028H
  012da	b9 00 00 00 00	 mov	 ecx, OFFSET ?g_ZtLicense@@3VCZtLicense@@A ; g_ZtLicense
  012df	e8 00 00 00 00	 call	 ?CheckUser@CZtLicense@@QAE_NH@Z ; CZtLicense::CheckUser
  012e4	84 c0		 test	 al, al
  012e6	75 10		 jne	 SHORT $LN207@gObjCalCha
  012e8	6a 24		 push	 36			; 00000024H
  012ea	b9 00 00 00 00	 mov	 ecx, OFFSET ?g_ZtLicense@@3VCZtLicense@@A ; g_ZtLicense
  012ef	e8 00 00 00 00	 call	 ?CheckUser@CZtLicense@@QAE_NH@Z ; CZtLicense::CheckUser
  012f4	84 c0		 test	 al, al
  012f6	74 48		 je	 SHORT $LN208@gObjCalCha
$LN207@gObjCalCha:

; 616  : 		{
; 617  : 			lpObj->m_MagicDamageMin = (lpObj->m_MagicDamageMin * CalculatorManager.DW_MinWizDamagePercent) / 100;

  012f8	8b 96 68 04 00
	00		 mov	 edx, DWORD PTR [esi+1128]
  012fe	0f af 15 00 00
	00 00		 imul	 edx, DWORD PTR ?CalculatorManager@@3VcCalculatorManager@@A
  01305	b8 1f 85 eb 51	 mov	 eax, 1374389535		; 51eb851fH
  0130a	f7 ea		 imul	 edx
  0130c	c1 fa 05	 sar	 edx, 5
  0130f	8b ca		 mov	 ecx, edx
  01311	c1 e9 1f	 shr	 ecx, 31			; 0000001fH
  01314	03 ca		 add	 ecx, edx

; 618  : 			lpObj->m_MagicDamageMax = (lpObj->m_MagicDamageMax * CalculatorManager.DW_MaxWizDamagePercent) / 100;

  01316	8b 96 6c 04 00
	00		 mov	 edx, DWORD PTR [esi+1132]
  0131c	89 8e 68 04 00
	00		 mov	 DWORD PTR [esi+1128], ecx
  01322	0f af 15 04 00
	00 00		 imul	 edx, DWORD PTR ?CalculatorManager@@3VcCalculatorManager@@A+4
  01329	b8 1f 85 eb 51	 mov	 eax, 1374389535		; 51eb851fH
  0132e	f7 ea		 imul	 edx
  01330	c1 fa 05	 sar	 edx, 5
  01333	8b c2		 mov	 eax, edx
  01335	c1 e8 1f	 shr	 eax, 31			; 0000001fH
  01338	03 c2		 add	 eax, edx
  0133a	89 86 6c 04 00
	00		 mov	 DWORD PTR [esi+1132], eax
$LN208@gObjCalCha:

; 619  : 		}
; 620  : #endif
; 621  : 
; 622  : 		lpObj->m_MagicDamageMax += lpObj->m_MPSkillOpt.MpsMaxMagicDamage;
; 623  : 		lpObj->m_MagicDamageMin += lpObj->m_MPSkillOpt.MpsMinMagicDamage;
; 624  : 		lpObj->m_MagicDamageMax += lpObj->m_MPSkillOpt.MpsMagicMastery;

  01340	db 86 6c 04 00
	00		 fild	 DWORD PTR [esi+1132]
  01346	d8 86 64 27 00
	00		 fadd	 DWORD PTR [esi+10084]
  0134c	e8 00 00 00 00	 call	 __ftol2_sse
  01351	89 85 c0 fe ff
	ff		 mov	 DWORD PTR tv6917[ebp], eax
  01357	db 85 c0 fe ff
	ff		 fild	 DWORD PTR tv6917[ebp]
  0135d	d8 86 90 26 00
	00		 fadd	 DWORD PTR [esi+9872]
  01363	e8 00 00 00 00	 call	 __ftol2_sse

; 625  : 		lpObj->m_MagicDamageMin += lpObj->m_MPSkillOpt.MpsMagicMastery;

  01368	db 86 68 04 00
	00		 fild	 DWORD PTR [esi+1128]
  0136e	89 86 6c 04 00
	00		 mov	 DWORD PTR [esi+1132], eax
  01374	d8 86 68 27 00
	00		 fadd	 DWORD PTR [esi+10088]
  0137a	e8 00 00 00 00	 call	 __ftol2_sse
  0137f	89 85 c0 fe ff
	ff		 mov	 DWORD PTR tv6906[ebp], eax
  01385	db 85 c0 fe ff
	ff		 fild	 DWORD PTR tv6906[ebp]
  0138b	d8 86 90 26 00
	00		 fadd	 DWORD PTR [esi+9872]
  01391	e8 00 00 00 00	 call	 __ftol2_sse
  01396	89 86 68 04 00
	00		 mov	 DWORD PTR [esi+1128], eax
$LN210@gObjCalCha:

; 626  : 	}
; 627  : 
; 628  : 	lpObj->pInventory[7].PlusSpecial(&lpObj->m_MagicDamageMin, 81);

  0139c	8b 8e 24 0e 00
	00		 mov	 ecx, DWORD PTR [esi+3620]
  013a2	6a 51		 push	 81			; 00000051H
  013a4	8d 86 68 04 00
	00		 lea	 eax, DWORD PTR [esi+1128]
  013aa	50		 push	 eax
  013ab	81 c1 cc 05 00
	00		 add	 ecx, 1484		; 000005ccH
  013b1	e8 00 00 00 00	 call	 ?PlusSpecial@CItem@@QAEXPAHH@Z ; CItem::PlusSpecial

; 629  : 	lpObj->pInventory[7].PlusSpecial(&lpObj->m_MagicDamageMax, 81);

  013b6	8b 8e 24 0e 00
	00		 mov	 ecx, DWORD PTR [esi+3620]
  013bc	6a 51		 push	 81			; 00000051H
  013be	8d 86 6c 04 00
	00		 lea	 eax, DWORD PTR [esi+1132]
  013c4	50		 push	 eax
  013c5	81 c1 cc 05 00
	00		 add	 ecx, 1484		; 000005ccH
  013cb	e8 00 00 00 00	 call	 ?PlusSpecial@CItem@@QAEXPAHH@Z ; CItem::PlusSpecial

; 630  : 
; 631  : 	lpObj->pInventory[7].PlusSpecial(&lpObj->m_iSummonerBookSpellDamageMin, 113); //summoner wings

  013d0	8b 8e 24 0e 00
	00		 mov	 ecx, DWORD PTR [esi+3620]
  013d6	8d 86 a4 04 00
	00		 lea	 eax, DWORD PTR [esi+1188]
  013dc	6a 71		 push	 113			; 00000071H
  013de	50		 push	 eax
  013df	81 c1 cc 05 00
	00		 add	 ecx, 1484		; 000005ccH
  013e5	e8 00 00 00 00	 call	 ?PlusSpecial@CItem@@QAEXPAHH@Z ; CItem::PlusSpecial

; 632  : 	lpObj->pInventory[7].PlusSpecial(&lpObj->m_iSummonerBookSpellDamageMax, 113); //summoner wings

  013ea	8b 8e 24 0e 00
	00		 mov	 ecx, DWORD PTR [esi+3620]
  013f0	8d 86 a8 04 00
	00		 lea	 eax, DWORD PTR [esi+1192]
  013f6	6a 71		 push	 113			; 00000071H
  013f8	50		 push	 eax
  013f9	81 c1 cc 05 00
	00		 add	 ecx, 1484		; 000005ccH
  013ff	e8 00 00 00 00	 call	 ?PlusSpecial@CItem@@QAEXPAHH@Z ; CItem::PlusSpecial

; 633  : 
; 634  : 	if ( Right->m_Type != -1 )

  01404	8b 8d c8 fe ff
	ff		 mov	 ecx, DWORD PTR _Right$[ebp]
  0140a	66 83 79 06 ff	 cmp	 WORD PTR [ecx+6], -1
  0140f	74 4d		 je	 SHORT $LN204@gObjCalCha

; 635  : 	{
; 636  : 		#if(FIX_MG_WIZDMG)
; 637  : 		if (lpObj->pInventory[0].m_Type >= ITEMGET(0,00) && lpObj->pInventory[0].m_Type < ITEMGET(1,00))

  01411	8b 8e 24 0e 00
	00		 mov	 ecx, DWORD PTR [esi+3620]
  01417	0f b7 41 06	 movzx	 eax, WORD PTR [ecx+6]
  0141b	66 85 c0	 test	 ax, ax
  0141e	78 1c		 js	 SHORT $LN205@gObjCalCha
  01420	ba 00 02 00 00	 mov	 edx, 512		; 00000200H
  01425	66 3b c2	 cmp	 ax, dx
  01428	7d 12		 jge	 SHORT $LN205@gObjCalCha

; 638  : 		{
; 639  : 			lpObj->pInventory[0].PlusSpecial(&lpObj->m_MagicDamageMin, 80);

  0142a	6a 50		 push	 80			; 00000050H
  0142c	8d 86 68 04 00
	00		 lea	 eax, DWORD PTR [esi+1128]
  01432	50		 push	 eax
  01433	e8 00 00 00 00	 call	 ?PlusSpecial@CItem@@QAEXPAHH@Z ; CItem::PlusSpecial

; 640  : 			lpObj->pInventory[0].PlusSpecial(&lpObj->m_MagicDamageMax, 80);

  01438	6a 50		 push	 80			; 00000050H

; 641  : 		}
; 642  : 		else

  0143a	eb 10		 jmp	 SHORT $LN516@gObjCalCha
$LN205@gObjCalCha:

; 643  : 		{
; 644  : 			lpObj->pInventory[0].PlusSpecial(&lpObj->m_MagicDamageMin, 81);

  0143c	6a 51		 push	 81			; 00000051H
  0143e	8d 86 68 04 00
	00		 lea	 eax, DWORD PTR [esi+1128]
  01444	50		 push	 eax
  01445	e8 00 00 00 00	 call	 ?PlusSpecial@CItem@@QAEXPAHH@Z ; CItem::PlusSpecial

; 645  : 			lpObj->pInventory[0].PlusSpecial(&lpObj->m_MagicDamageMax, 81);

  0144a	6a 51		 push	 81			; 00000051H
$LN516@gObjCalCha:
  0144c	8b 8e 24 0e 00
	00		 mov	 ecx, DWORD PTR [esi+3620]
  01452	8d 86 6c 04 00
	00		 lea	 eax, DWORD PTR [esi+1132]
  01458	50		 push	 eax
  01459	e8 00 00 00 00	 call	 ?PlusSpecial@CItem@@QAEXPAHH@Z ; CItem::PlusSpecial
$LN204@gObjCalCha:

; 646  : 		}
; 647  : 		#else
; 648  : 		if ( lpObj->pInventory[0].m_Type == ITEMGET(0,31) ||
; 649  : 			 lpObj->pInventory[0].m_Type == ITEMGET(0,21) ||
; 650  : 			 lpObj->pInventory[0].m_Type == ITEMGET(0,23) ||
; 651  : 			 lpObj->pInventory[0].m_Type == ITEMGET(0,25) ||
; 652  : 			 lpObj->pInventory[0].m_Type == ITEMGET(0,28)) //season4 add-on 
; 653  : 		{
; 654  : 			lpObj->pInventory[0].PlusSpecial(&lpObj->m_MagicDamageMin, 80);
; 655  : 			lpObj->pInventory[0].PlusSpecial(&lpObj->m_MagicDamageMax, 80);
; 656  : 		}
; 657  : 		else
; 658  : 		{
; 659  : 			lpObj->pInventory[0].PlusSpecial(&lpObj->m_MagicDamageMin, 81);
; 660  : 			lpObj->pInventory[0].PlusSpecial(&lpObj->m_MagicDamageMax, 81);
; 661  : 		}
; 662  : 		#endif
; 663  : 	}
; 664  : 
; 665  : 	if ( Left->m_Type != -1 ) //season3 add-on

  0145e	8b 85 cc fe ff
	ff		 mov	 eax, DWORD PTR _Left$[ebp]
  01464	66 83 78 06 ff	 cmp	 WORD PTR [eax+6], -1
  01469	74 34		 je	 SHORT $LN203@gObjCalCha

; 666  : 	{
; 667  : 		lpObj->pInventory[1].PlusSpecial(&lpObj->m_iSummonerBookSpellDamageMin, 113); //summoner book

  0146b	8b 8e 24 0e 00
	00		 mov	 ecx, DWORD PTR [esi+3620]
  01471	6a 71		 push	 113			; 00000071H
  01473	8d 86 a4 04 00
	00		 lea	 eax, DWORD PTR [esi+1188]
  01479	50		 push	 eax
  0147a	81 c1 d4 00 00
	00		 add	 ecx, 212		; 000000d4H
  01480	e8 00 00 00 00	 call	 ?PlusSpecial@CItem@@QAEXPAHH@Z ; CItem::PlusSpecial

; 668  : 		lpObj->pInventory[1].PlusSpecial(&lpObj->m_iSummonerBookSpellDamageMax, 113); //summoner book

  01485	8b 8e 24 0e 00
	00		 mov	 ecx, DWORD PTR [esi+3620]
  0148b	6a 71		 push	 113			; 00000071H
  0148d	8d 86 a8 04 00
	00		 lea	 eax, DWORD PTR [esi+1192]
  01493	50		 push	 eax
  01494	81 c1 d4 00 00
	00		 add	 ecx, 212		; 000000d4H
  0149a	e8 00 00 00 00	 call	 ?PlusSpecial@CItem@@QAEXPAHH@Z ; CItem::PlusSpecial
$LN203@gObjCalCha:

; 669  : 	}
; 670  : 
; 671  : 	lpObj->m_AttackRating = (Strength + Dexterity) / 2;

  0149f	8b 95 e8 fe ff
	ff		 mov	 edx, DWORD PTR _Strength$[ebp]
  014a5	8b 85 f4 fe ff
	ff		 mov	 eax, DWORD PTR _Dexterity$[ebp]

; 672  : 	lpObj->m_AttackRating += lpObj->pInventory[5].ItemDefense();

  014ab	8b 8e 24 0e 00
	00		 mov	 ecx, DWORD PTR [esi+3620]
  014b1	8d 04 10	 lea	 eax, DWORD PTR [eax+edx]
  014b4	99		 cdq
  014b5	2b c2		 sub	 eax, edx
  014b7	d1 f8		 sar	 eax, 1
  014b9	81 c1 24 04 00
	00		 add	 ecx, 1060		; 00000424H
  014bf	89 86 88 04 00
	00		 mov	 DWORD PTR [esi+1160], eax
  014c5	e8 00 00 00 00	 call	 ?ItemDefense@CItem@@QAEHXZ ; CItem::ItemDefense
  014ca	01 86 88 04 00
	00		 add	 DWORD PTR [esi+1160], eax

; 673  : 
; 674  : 	if ( lpObj->Class == CLASS_ELF )

  014d0	0f b7 86 b8 00
	00 00		 movzx	 eax, WORD PTR [esi+184]
  014d7	83 f8 02	 cmp	 eax, 2
  014da	75 10		 jne	 SHORT $LN202@gObjCalCha

; 675  : 	{
; 676  : 		lpObj->m_AttackSpeed = Dexterity / 50;

  014dc	b8 1f 85 eb 51	 mov	 eax, 1374389535		; 51eb851fH
  014e1	f7 ad f4 fe ff
	ff		 imul	 DWORD PTR _Dexterity$[ebp]
  014e7	c1 fa 04	 sar	 edx, 4

; 677  : 		lpObj->m_MagicSpeed = Dexterity / 50;

  014ea	eb 46		 jmp	 SHORT $LN518@gObjCalCha
$LN202@gObjCalCha:

; 678  : 	}
; 679  : 	else if ( lpObj->Class == CLASS_KNIGHT || lpObj->Class == CLASS_MAGUMSA)

  014ec	83 f8 01	 cmp	 eax, 1
  014ef	74 7f		 je	 SHORT $LN199@gObjCalCha
  014f1	83 f8 03	 cmp	 eax, 3
  014f4	74 7a		 je	 SHORT $LN199@gObjCalCha

; 683  : 	}
; 684  : 	else if ( lpObj->Class == CLASS_DARKLORD )

  014f6	83 f8 04	 cmp	 eax, 4
  014f9	75 10		 jne	 SHORT $LN197@gObjCalCha

; 685  : 	{
; 686  : 		lpObj->m_AttackSpeed = Dexterity / 10;

  014fb	b8 67 66 66 66	 mov	 eax, 1717986919		; 66666667H
  01500	f7 ad f4 fe ff
	ff		 imul	 DWORD PTR _Dexterity$[ebp]
  01506	c1 fa 02	 sar	 edx, 2

; 687  : 		lpObj->m_MagicSpeed = Dexterity / 10;

  01509	eb 27		 jmp	 SHORT $LN518@gObjCalCha
$LN197@gObjCalCha:

; 688  : 	}
; 689  : 	else if ( lpObj->Class == CLASS_SUMMONER ) //strong!

  0150b	83 f8 05	 cmp	 eax, 5
  0150e	75 10		 jne	 SHORT $LN195@gObjCalCha

; 690  : 	{
; 691  : 		lpObj->m_AttackSpeed = Dexterity / 20;

  01510	b8 67 66 66 66	 mov	 eax, 1717986919		; 66666667H
  01515	f7 ad f4 fe ff
	ff		 imul	 DWORD PTR _Dexterity$[ebp]
  0151b	c1 fa 03	 sar	 edx, 3

; 692  : 		lpObj->m_MagicSpeed = Dexterity / 20;

  0151e	eb 12		 jmp	 SHORT $LN518@gObjCalCha
$LN195@gObjCalCha:

; 693  : 	}
; 694  : #ifdef MONK
; 695  : 	else if( lpObj->Class == CLASS_MONK )

  01520	83 f8 06	 cmp	 eax, 6
  01523	75 22		 jne	 SHORT $LN193@gObjCalCha

; 696  : 	{
; 697  : 		lpObj->m_AttackSpeed	= Dexterity / 9;

  01525	b8 39 8e e3 38	 mov	 eax, 954437177		; 38e38e39H
  0152a	f7 ad f4 fe ff
	ff		 imul	 DWORD PTR _Dexterity$[ebp]
  01530	d1 fa		 sar	 edx, 1
$LN518@gObjCalCha:
  01532	8b c2		 mov	 eax, edx
  01534	c1 e8 1f	 shr	 eax, 31			; 0000001fH
  01537	03 c2		 add	 eax, edx
  01539	89 86 8c 04 00
	00		 mov	 DWORD PTR [esi+1164], eax

; 698  : 		lpObj->m_MagicSpeed		= Dexterity / 9;

  0153f	89 86 90 04 00
	00		 mov	 DWORD PTR [esi+1168], eax

; 699  : 	}
; 700  : #endif
; 701  : 	else

  01545	eb 5f		 jmp	 SHORT $LN192@gObjCalCha
$LN193@gObjCalCha:

; 702  : 	{
; 703  : 		lpObj->m_AttackSpeed = Dexterity / 20;

  01547	8b 8d f4 fe ff
	ff		 mov	 ecx, DWORD PTR _Dexterity$[ebp]
  0154d	b8 67 66 66 66	 mov	 eax, 1717986919		; 66666667H
  01552	f7 e9		 imul	 ecx
  01554	c1 fa 03	 sar	 edx, 3
  01557	8b c2		 mov	 eax, edx
  01559	c1 e8 1f	 shr	 eax, 31			; 0000001fH
  0155c	03 c2		 add	 eax, edx
  0155e	89 86 8c 04 00
	00		 mov	 DWORD PTR [esi+1164], eax

; 704  : 		lpObj->m_MagicSpeed = Dexterity / 10;

  01564	b8 67 66 66 66	 mov	 eax, 1717986919		; 66666667H
  01569	f7 e9		 imul	 ecx
  0156b	c1 fa 02	 sar	 edx, 2
  0156e	eb 29		 jmp	 SHORT $LN517@gObjCalCha
$LN199@gObjCalCha:

; 680  : 	{
; 681  : 		lpObj->m_AttackSpeed = Dexterity / 15;

  01570	8b 8d f4 fe ff
	ff		 mov	 ecx, DWORD PTR _Dexterity$[ebp]
  01576	b8 89 88 88 88	 mov	 eax, -2004318071	; 88888889H
  0157b	f7 e9		 imul	 ecx
  0157d	03 d1		 add	 edx, ecx
  0157f	c1 fa 03	 sar	 edx, 3
  01582	8b c2		 mov	 eax, edx
  01584	c1 e8 1f	 shr	 eax, 31			; 0000001fH
  01587	03 c2		 add	 eax, edx
  01589	89 86 8c 04 00
	00		 mov	 DWORD PTR [esi+1164], eax

; 682  : 		lpObj->m_MagicSpeed = Dexterity / 20;

  0158f	b8 67 66 66 66	 mov	 eax, 1717986919		; 66666667H
  01594	f7 e9		 imul	 ecx
  01596	c1 fa 03	 sar	 edx, 3
$LN517@gObjCalCha:
  01599	8b ca		 mov	 ecx, edx
  0159b	c1 e9 1f	 shr	 ecx, 31			; 0000001fH
  0159e	03 ca		 add	 ecx, edx
  015a0	89 8e 90 04 00
	00		 mov	 DWORD PTR [esi+1168], ecx
$LN192@gObjCalCha:

; 705  : 	}
; 706  : 
; 707  : 
; 708  : 	bool bRight = false;
; 709  : 	bool bLeft = false;
; 710  : 
; 711  : 	if ( Right->m_Type != ITEMGET(4,7) && Right->m_Type != ITEMGET(4,15) && Right->m_Type >= ITEMGET(0,0) && Right->m_Type < ITEMGET(6,0) )

  015a6	8b 8d c8 fe ff
	ff		 mov	 ecx, DWORD PTR _Right$[ebp]
  015ac	d9 ee		 fldz
  015ae	0f b7 41 06	 movzx	 eax, WORD PTR [ecx+6]
  015b2	ba 07 08 00 00	 mov	 edx, 2055		; 00000807H
  015b7	c6 85 e7 fe ff
	ff 00		 mov	 BYTE PTR _bRight$[ebp], 0
  015be	c6 85 df fe ff
	ff 00		 mov	 BYTE PTR _bLeft$[ebp], 0
  015c5	66 3b c2	 cmp	 ax, dx
  015c8	74 33		 je	 SHORT $LN442@gObjCalCha
  015ca	ba 0f 08 00 00	 mov	 edx, 2063		; 0000080fH
  015cf	66 3b c2	 cmp	 ax, dx
  015d2	74 29		 je	 SHORT $LN442@gObjCalCha
  015d4	66 85 c0	 test	 ax, ax
  015d7	78 24		 js	 SHORT $LN442@gObjCalCha
  015d9	ba 00 0c 00 00	 mov	 edx, 3072		; 00000c00H
  015de	66 3b c2	 cmp	 ax, dx
  015e1	7d 1a		 jge	 SHORT $LN442@gObjCalCha

; 712  : 	{
; 713  : 		if ( Right->m_IsValidItem != false && Right->m_Durability > 0.0f)

  015e3	80 b9 b0 00 00
	00 00		 cmp	 BYTE PTR [ecx+176], 0
  015ea	74 11		 je	 SHORT $LN442@gObjCalCha
  015ec	d8 51 24	 fcom	 DWORD PTR [ecx+36]
  015ef	df e0		 fnstsw	 ax
  015f1	f6 c4 05	 test	 ah, 5
  015f4	7a 07		 jp	 SHORT $LN442@gObjCalCha

; 714  : 		{
; 715  : 			bRight = true;

  015f6	c6 85 e7 fe ff
	ff 01		 mov	 BYTE PTR _bRight$[ebp], 1
$LN442@gObjCalCha:

; 716  : 		}
; 717  : 	}
; 718  : 
; 719  : 	if ( Left->m_Type != ITEMGET(4,7) && Left->m_Type != ITEMGET(4,15) && Left->m_Type >= ITEMGET(0,0) && Left->m_Type < ITEMGET(6,0) )

  015fd	8b 8d cc fe ff
	ff		 mov	 ecx, DWORD PTR _Left$[ebp]
  01603	0f b7 41 06	 movzx	 eax, WORD PTR [ecx+6]
  01607	ba 07 08 00 00	 mov	 edx, 2055		; 00000807H
  0160c	66 3b c2	 cmp	 ax, dx
  0160f	74 30		 je	 SHORT $LN496@gObjCalCha
  01611	ba 0f 08 00 00	 mov	 edx, 2063		; 0000080fH
  01616	66 3b c2	 cmp	 ax, dx
  01619	74 26		 je	 SHORT $LN496@gObjCalCha
  0161b	66 85 c0	 test	 ax, ax
  0161e	78 21		 js	 SHORT $LN496@gObjCalCha
  01620	ba 00 0c 00 00	 mov	 edx, 3072		; 00000c00H
  01625	66 3b c2	 cmp	 ax, dx
  01628	7d 17		 jge	 SHORT $LN496@gObjCalCha

; 720  : 	{
; 721  : 		if ( Left->m_IsValidItem != false && Left->m_Durability > 0.0f)

  0162a	80 b9 b0 00 00
	00 00		 cmp	 BYTE PTR [ecx+176], 0
  01631	74 0e		 je	 SHORT $LN496@gObjCalCha
  01633	d8 59 24	 fcomp	 DWORD PTR [ecx+36]
  01636	df e0		 fnstsw	 ax
  01638	f6 c4 05	 test	 ah, 5
  0163b	7a 06		 jp	 SHORT $LN459@gObjCalCha

; 722  : 		{
; 723  : 			bLeft = true;

  0163d	b0 01		 mov	 al, 1
  0163f	eb 08		 jmp	 SHORT $LN188@gObjCalCha
$LN496@gObjCalCha:

; 720  : 	{
; 721  : 		if ( Left->m_IsValidItem != false && Left->m_Durability > 0.0f)

  01641	dd d8		 fstp	 ST(0)
$LN459@gObjCalCha:

; 722  : 		{
; 723  : 			bLeft = true;

  01643	8a 85 df fe ff
	ff		 mov	 al, BYTE PTR _bLeft$[ebp]
$LN188@gObjCalCha:

; 724  : 		}
; 725  : 	}
; 726  : 
; 727  : 	if ( bRight != false && bLeft != false )

  01649	80 bd e7 fe ff
	ff 00		 cmp	 BYTE PTR _bRight$[ebp], 0
  01650	74 58		 je	 SHORT $LN185@gObjCalCha
  01652	84 c0		 test	 al, al
  01654	74 38		 je	 SHORT $LN187@gObjCalCha

; 728  : 	{
; 729  : 		lpObj->m_AttackSpeed += (Right->m_AttackSpeed + Left->m_AttackSpeed)/2;

  01656	0f b6 41 0d	 movzx	 eax, BYTE PTR [ecx+13]
  0165a	8b 95 c8 fe ff
	ff		 mov	 edx, DWORD PTR _Right$[ebp]
  01660	0f b6 52 0d	 movzx	 edx, BYTE PTR [edx+13]
  01664	03 c2		 add	 eax, edx
  01666	99		 cdq
  01667	2b c2		 sub	 eax, edx
  01669	d1 f8		 sar	 eax, 1
  0166b	01 86 8c 04 00
	00		 add	 DWORD PTR [esi+1164], eax

; 730  : 		lpObj->m_MagicSpeed += (Right->m_AttackSpeed + Left->m_AttackSpeed)/2;

  01671	0f b6 41 0d	 movzx	 eax, BYTE PTR [ecx+13]
  01675	8b 8d c8 fe ff
	ff		 mov	 ecx, DWORD PTR _Right$[ebp]
  0167b	0f b6 51 0d	 movzx	 edx, BYTE PTR [ecx+13]
  0167f	03 c2		 add	 eax, edx
  01681	99		 cdq
  01682	2b c2		 sub	 eax, edx
  01684	d1 f8		 sar	 eax, 1
  01686	01 86 90 04 00
	00		 add	 DWORD PTR [esi+1168], eax
  0168c	eb 34		 jmp	 SHORT $LN183@gObjCalCha
$LN187@gObjCalCha:

; 731  : 	}
; 732  : 	else if ( bRight!= false )
; 733  : 	{
; 734  : 		lpObj->m_AttackSpeed += Right->m_AttackSpeed;

  0168e	8b 85 c8 fe ff
	ff		 mov	 eax, DWORD PTR _Right$[ebp]
  01694	0f b6 48 0d	 movzx	 ecx, BYTE PTR [eax+13]
  01698	01 8e 8c 04 00
	00		 add	 DWORD PTR [esi+1164], ecx

; 735  : 		lpObj->m_MagicSpeed += Right->m_AttackSpeed;

  0169e	0f b6 50 0d	 movzx	 edx, BYTE PTR [eax+13]
  016a2	01 96 90 04 00
	00		 add	 DWORD PTR [esi+1168], edx
  016a8	eb 18		 jmp	 SHORT $LN183@gObjCalCha
$LN185@gObjCalCha:

; 736  : 	}
; 737  : 	else if ( bLeft != false )

  016aa	84 c0		 test	 al, al
  016ac	74 14		 je	 SHORT $LN183@gObjCalCha

; 738  : 	{
; 739  : 		lpObj->m_AttackSpeed += Left->m_AttackSpeed;

  016ae	0f b6 41 0d	 movzx	 eax, BYTE PTR [ecx+13]
  016b2	01 86 8c 04 00
	00		 add	 DWORD PTR [esi+1164], eax

; 740  : 		lpObj->m_MagicSpeed += Left->m_AttackSpeed;

  016b8	0f b6 49 0d	 movzx	 ecx, BYTE PTR [ecx+13]
  016bc	01 8e 90 04 00
	00		 add	 DWORD PTR [esi+1168], ecx
$LN183@gObjCalCha:

; 741  : 	}
; 742  : 
; 743  : 	if ( Gloves->m_Type != -1 )

  016c2	8b 85 b4 fe ff
	ff		 mov	 eax, DWORD PTR _Gloves$[ebp]
  016c8	83 c9 ff	 or	 ecx, -1
  016cb	66 39 48 06	 cmp	 WORD PTR [eax+6], cx
  016cf	74 1d		 je	 SHORT $LN181@gObjCalCha

; 744  : 	{
; 745  : 		if ( Gloves->m_IsValidItem != false )

  016d1	80 b8 b0 00 00
	00 00		 cmp	 BYTE PTR [eax+176], 0
  016d8	74 14		 je	 SHORT $LN181@gObjCalCha

; 746  : 		{
; 747  : 			lpObj->m_AttackSpeed += Gloves->m_AttackSpeed;

  016da	0f b6 50 0d	 movzx	 edx, BYTE PTR [eax+13]
  016de	01 96 8c 04 00
	00		 add	 DWORD PTR [esi+1164], edx

; 748  : 			lpObj->m_MagicSpeed += Gloves->m_AttackSpeed;

  016e4	0f b6 40 0d	 movzx	 eax, BYTE PTR [eax+13]
  016e8	01 86 90 04 00
	00		 add	 DWORD PTR [esi+1168], eax
$LN181@gObjCalCha:

; 749  : 		}
; 750  : 	}
; 751  : 
; 752  : 	if ( Helper->m_Type != -1 )

  016ee	8b 85 ac fe ff
	ff		 mov	 eax, DWORD PTR _Helper$[ebp]
  016f4	66 39 48 06	 cmp	 WORD PTR [eax+6], cx
  016f8	74 1d		 je	 SHORT $LN179@gObjCalCha

; 753  : 	{
; 754  : 		if ( Helper->m_IsValidItem != false )

  016fa	80 b8 b0 00 00
	00 00		 cmp	 BYTE PTR [eax+176], 0
  01701	74 14		 je	 SHORT $LN179@gObjCalCha

; 755  : 		{
; 756  : 			lpObj->m_AttackSpeed += Helper->m_AttackSpeed;

  01703	0f b6 50 0d	 movzx	 edx, BYTE PTR [eax+13]
  01707	01 96 8c 04 00
	00		 add	 DWORD PTR [esi+1164], edx

; 757  : 			lpObj->m_MagicSpeed += Helper->m_AttackSpeed;

  0170d	0f b6 40 0d	 movzx	 eax, BYTE PTR [eax+13]
  01711	01 86 90 04 00
	00		 add	 DWORD PTR [esi+1168], eax
$LN179@gObjCalCha:

; 758  : 		}
; 759  : 	}
; 760  : 
; 761  : 	if ( Amulet->m_Type != -1 )

  01717	8b 85 f0 fe ff
	ff		 mov	 eax, DWORD PTR _Amulet$[ebp]
  0171d	66 39 48 06	 cmp	 WORD PTR [eax+6], cx
  01721	74 1d		 je	 SHORT $LN177@gObjCalCha

; 762  : 	{
; 763  : 		if ( Amulet->m_IsValidItem != false )

  01723	80 b8 b0 00 00
	00 00		 cmp	 BYTE PTR [eax+176], 0
  0172a	74 14		 je	 SHORT $LN177@gObjCalCha

; 764  : 		{
; 765  : 			lpObj->m_AttackSpeed += Amulet->m_AttackSpeed;

  0172c	0f b6 48 0d	 movzx	 ecx, BYTE PTR [eax+13]
  01730	01 8e 8c 04 00
	00		 add	 DWORD PTR [esi+1164], ecx

; 766  : 			lpObj->m_MagicSpeed += Amulet->m_AttackSpeed;

  01736	0f b6 50 0d	 movzx	 edx, BYTE PTR [eax+13]
  0173a	01 96 90 04 00
	00		 add	 DWORD PTR [esi+1168], edx
$LN177@gObjCalCha:

; 767  : 		}
; 768  : 	}
; 769  : 
; 770  : 	// Wizard Ring effect
; 771  : 	if ( (lpObj->pInventory[10].IsItem() == TRUE && lpObj->pInventory[10].m_Type == ITEMGET(13,20) && lpObj->pInventory[10].m_Level == 0 && lpObj->pInventory[10].m_Durability > 0.0f ) || (lpObj->pInventory[11].IsItem() == TRUE && lpObj->pInventory[11].m_Type == ITEMGET(13,20) && lpObj->pInventory[11].m_Level == 0 && lpObj->pInventory[11].m_Durability > 0.0f ) )

  01740	8b 8e 24 0e 00
	00		 mov	 ecx, DWORD PTR [esi+3620]
  01746	81 c1 48 08 00
	00		 add	 ecx, 2120		; 00000848H
  0174c	e8 00 00 00 00	 call	 ?IsItem@CItem@@QAEHXZ	; CItem::IsItem
  01751	83 f8 01	 cmp	 eax, 1
  01754	75 2d		 jne	 SHORT $LN174@gObjCalCha
  01756	8b 86 24 0e 00
	00		 mov	 eax, DWORD PTR [esi+3620]
  0175c	b9 14 1a 00 00	 mov	 ecx, 6676		; 00001a14H
  01761	66 39 88 4e 08
	00 00		 cmp	 WORD PTR [eax+2126], cx
  01768	75 19		 jne	 SHORT $LN174@gObjCalCha
  0176a	66 83 b8 50 08
	00 00 00	 cmp	 WORD PTR [eax+2128], 0
  01772	75 0f		 jne	 SHORT $LN174@gObjCalCha
  01774	d9 ee		 fldz
  01776	d8 98 6c 08 00
	00		 fcomp	 DWORD PTR [eax+2156]
  0177c	df e0		 fnstsw	 ax
  0177e	f6 c4 05	 test	 ah, 5
  01781	7b 53		 jnp	 SHORT $LN175@gObjCalCha
$LN174@gObjCalCha:
  01783	8b 8e 24 0e 00
	00		 mov	 ecx, DWORD PTR [esi+3620]
  01789	81 c1 1c 09 00
	00		 add	 ecx, 2332		; 0000091cH
  0178f	e8 00 00 00 00	 call	 ?IsItem@CItem@@QAEHXZ	; CItem::IsItem
  01794	83 f8 01	 cmp	 eax, 1
  01797	0f 85 12 01 00
	00		 jne	 $LN176@gObjCalCha
  0179d	8b 86 24 0e 00
	00		 mov	 eax, DWORD PTR [esi+3620]
  017a3	ba 14 1a 00 00	 mov	 edx, 6676		; 00001a14H
  017a8	66 39 90 22 09
	00 00		 cmp	 WORD PTR [eax+2338], dx
  017af	0f 85 fa 00 00
	00		 jne	 $LN176@gObjCalCha
  017b5	66 83 b8 24 09
	00 00 00	 cmp	 WORD PTR [eax+2340], 0
  017bd	0f 85 ec 00 00
	00		 jne	 $LN176@gObjCalCha
  017c3	d9 ee		 fldz
  017c5	d8 98 40 09 00
	00		 fcomp	 DWORD PTR [eax+2368]
  017cb	df e0		 fnstsw	 ax
  017cd	f6 c4 05	 test	 ah, 5
  017d0	0f 8a d9 00 00
	00		 jp	 $LN176@gObjCalCha
$LN175@gObjCalCha:

; 772  : 	{
; 773  : 		lpObj->m_AttackDamageMinRight += lpObj->m_AttackDamageMinRight * 10 / 100;

  017d6	8b 0f		 mov	 ecx, DWORD PTR [edi]
  017d8	8d 14 89	 lea	 edx, DWORD PTR [ecx+ecx*4]
  017db	03 d2		 add	 edx, edx
  017dd	b8 1f 85 eb 51	 mov	 eax, 1374389535		; 51eb851fH
  017e2	f7 ea		 imul	 edx
  017e4	c1 fa 05	 sar	 edx, 5
  017e7	8b c2		 mov	 eax, edx
  017e9	c1 e8 1f	 shr	 eax, 31			; 0000001fH
  017ec	03 c2		 add	 eax, edx
  017ee	03 c1		 add	 eax, ecx

; 774  : 		lpObj->m_AttackDamageMaxRight += lpObj->m_AttackDamageMaxRight * 10 / 100;

  017f0	8b 0b		 mov	 ecx, DWORD PTR [ebx]
  017f2	89 07		 mov	 DWORD PTR [edi], eax
  017f4	8d 14 89	 lea	 edx, DWORD PTR [ecx+ecx*4]
  017f7	03 d2		 add	 edx, edx
  017f9	b8 1f 85 eb 51	 mov	 eax, 1374389535		; 51eb851fH
  017fe	f7 ea		 imul	 edx
  01800	c1 fa 05	 sar	 edx, 5
  01803	8b c2		 mov	 eax, edx
  01805	c1 e8 1f	 shr	 eax, 31			; 0000001fH
  01808	03 c2		 add	 eax, edx
  0180a	03 c1		 add	 eax, ecx

; 775  : 		lpObj->m_AttackDamageMinLeft += lpObj->m_AttackDamageMinLeft * 10 / 100;

  0180c	8b 8e 7c 04 00
	00		 mov	 ecx, DWORD PTR [esi+1148]
  01812	89 03		 mov	 DWORD PTR [ebx], eax
  01814	8d 14 89	 lea	 edx, DWORD PTR [ecx+ecx*4]
  01817	03 d2		 add	 edx, edx
  01819	b8 1f 85 eb 51	 mov	 eax, 1374389535		; 51eb851fH
  0181e	f7 ea		 imul	 edx
  01820	c1 fa 05	 sar	 edx, 5
  01823	8b c2		 mov	 eax, edx
  01825	c1 e8 1f	 shr	 eax, 31			; 0000001fH
  01828	03 c2		 add	 eax, edx
  0182a	03 c1		 add	 eax, ecx

; 776  : 		lpObj->m_AttackDamageMaxLeft += lpObj->m_AttackDamageMaxLeft * 10 / 100;

  0182c	8b 8e 78 04 00
	00		 mov	 ecx, DWORD PTR [esi+1144]
  01832	89 86 7c 04 00
	00		 mov	 DWORD PTR [esi+1148], eax
  01838	8d 14 89	 lea	 edx, DWORD PTR [ecx+ecx*4]
  0183b	03 d2		 add	 edx, edx
  0183d	b8 1f 85 eb 51	 mov	 eax, 1374389535		; 51eb851fH
  01842	f7 ea		 imul	 edx
  01844	c1 fa 05	 sar	 edx, 5
  01847	8b c2		 mov	 eax, edx
  01849	c1 e8 1f	 shr	 eax, 31			; 0000001fH
  0184c	03 c2		 add	 eax, edx
  0184e	03 c1		 add	 eax, ecx

; 777  : 		lpObj->m_MagicDamageMin += lpObj->m_MagicDamageMin * 10 / 100;

  01850	8b 8e 68 04 00
	00		 mov	 ecx, DWORD PTR [esi+1128]
  01856	89 86 78 04 00
	00		 mov	 DWORD PTR [esi+1144], eax
  0185c	8d 14 89	 lea	 edx, DWORD PTR [ecx+ecx*4]
  0185f	03 d2		 add	 edx, edx
  01861	b8 1f 85 eb 51	 mov	 eax, 1374389535		; 51eb851fH
  01866	f7 ea		 imul	 edx
  01868	c1 fa 05	 sar	 edx, 5
  0186b	8b c2		 mov	 eax, edx
  0186d	c1 e8 1f	 shr	 eax, 31			; 0000001fH
  01870	03 c2		 add	 eax, edx
  01872	03 c1		 add	 eax, ecx

; 778  : 		lpObj->m_MagicDamageMax += lpObj->m_MagicDamageMax * 10 / 100;

  01874	8b 8e 6c 04 00
	00		 mov	 ecx, DWORD PTR [esi+1132]
  0187a	89 86 68 04 00
	00		 mov	 DWORD PTR [esi+1128], eax
  01880	8d 14 89	 lea	 edx, DWORD PTR [ecx+ecx*4]
  01883	03 d2		 add	 edx, edx
  01885	b8 1f 85 eb 51	 mov	 eax, 1374389535		; 51eb851fH
  0188a	f7 ea		 imul	 edx
  0188c	c1 fa 05	 sar	 edx, 5
  0188f	8b c2		 mov	 eax, edx
  01891	c1 e8 1f	 shr	 eax, 31			; 0000001fH
  01894	03 c2		 add	 eax, edx
  01896	03 c1		 add	 eax, ecx
  01898	89 86 6c 04 00
	00		 mov	 DWORD PTR [esi+1132], eax

; 779  : 		lpObj->m_AttackSpeed += 10;

  0189e	b8 0a 00 00 00	 mov	 eax, 10			; 0000000aH
  018a3	01 86 8c 04 00
	00		 add	 DWORD PTR [esi+1164], eax

; 780  : 		lpObj->m_MagicSpeed += 10;

  018a9	01 86 90 04 00
	00		 add	 DWORD PTR [esi+1168], eax
$LN176@gObjCalCha:

; 781  : 	}
; 782  : 
; 783  : #if(CUSTOM_FLAGS)
; 784  : 	if ((lpObj->pInventory[10].IsItem() == TRUE && lpObj->pInventory[10].m_Type == ITEMGET(13, 20) && lpObj->pInventory[10].m_Level == 3 && lpObj->pInventory[10].m_Durability > 0.0f) || (lpObj->pInventory[11].IsItem() == TRUE && lpObj->pInventory[11].m_Type == ITEMGET(13, 20) && lpObj->pInventory[11].m_Level == 3 && lpObj->pInventory[11].m_Durability > 0.0f))

  018af	8b 8e 24 0e 00
	00		 mov	 ecx, DWORD PTR [esi+3620]
  018b5	81 c1 48 08 00
	00		 add	 ecx, 2120		; 00000848H
  018bb	e8 00 00 00 00	 call	 ?IsItem@CItem@@QAEHXZ	; CItem::IsItem
  018c0	83 f8 01	 cmp	 eax, 1
  018c3	75 2d		 jne	 SHORT $LN171@gObjCalCha
  018c5	8b 86 24 0e 00
	00		 mov	 eax, DWORD PTR [esi+3620]
  018cb	b9 14 1a 00 00	 mov	 ecx, 6676		; 00001a14H
  018d0	66 39 88 4e 08
	00 00		 cmp	 WORD PTR [eax+2126], cx
  018d7	75 19		 jne	 SHORT $LN171@gObjCalCha
  018d9	66 83 b8 50 08
	00 00 03	 cmp	 WORD PTR [eax+2128], 3
  018e1	75 0f		 jne	 SHORT $LN171@gObjCalCha
  018e3	d9 ee		 fldz
  018e5	d8 98 6c 08 00
	00		 fcomp	 DWORD PTR [eax+2156]
  018eb	df e0		 fnstsw	 ax
  018ed	f6 c4 05	 test	 ah, 5
  018f0	7b 53		 jnp	 SHORT $LN172@gObjCalCha
$LN171@gObjCalCha:
  018f2	8b 8e 24 0e 00
	00		 mov	 ecx, DWORD PTR [esi+3620]
  018f8	81 c1 1c 09 00
	00		 add	 ecx, 2332		; 0000091cH
  018fe	e8 00 00 00 00	 call	 ?IsItem@CItem@@QAEHXZ	; CItem::IsItem
  01903	83 f8 01	 cmp	 eax, 1
  01906	0f 85 38 01 00
	00		 jne	 $LN441@gObjCalCha
  0190c	8b 86 24 0e 00
	00		 mov	 eax, DWORD PTR [esi+3620]
  01912	ba 14 1a 00 00	 mov	 edx, 6676		; 00001a14H
  01917	66 39 90 22 09
	00 00		 cmp	 WORD PTR [eax+2338], dx
  0191e	0f 85 20 01 00
	00		 jne	 $LN441@gObjCalCha
  01924	66 83 b8 24 09
	00 00 03	 cmp	 WORD PTR [eax+2340], 3
  0192c	0f 85 12 01 00
	00		 jne	 $LN441@gObjCalCha
  01932	d9 ee		 fldz
  01934	d8 98 40 09 00
	00		 fcomp	 DWORD PTR [eax+2368]
  0193a	df e0		 fnstsw	 ax
  0193c	f6 c4 05	 test	 ah, 5
  0193f	0f 8a ff 00 00
	00		 jp	 $LN441@gObjCalCha
$LN172@gObjCalCha:

; 785  : 	{
; 786  : 		lpObj->m_AttackDamageMinRight += lpObj->m_AttackDamageMinRight * ZtConfig.CommonServer.Ringstrength / 100;

  01945	8b 0f		 mov	 ecx, DWORD PTR [edi]
  01947	8b d1		 mov	 edx, ecx
  01949	0f af 15 4c 01
	00 00		 imul	 edx, DWORD PTR ?ZtConfig@@3VcZtConfigs@@A+332
  01950	b8 1f 85 eb 51	 mov	 eax, 1374389535		; 51eb851fH
  01955	f7 ea		 imul	 edx
  01957	c1 fa 05	 sar	 edx, 5
  0195a	8b c2		 mov	 eax, edx
  0195c	c1 e8 1f	 shr	 eax, 31			; 0000001fH
  0195f	03 c2		 add	 eax, edx
  01961	03 c1		 add	 eax, ecx

; 787  : 		lpObj->m_AttackDamageMaxRight += lpObj->m_AttackDamageMaxRight * ZtConfig.CommonServer.Ringstrength / 100;

  01963	8b 0b		 mov	 ecx, DWORD PTR [ebx]
  01965	89 07		 mov	 DWORD PTR [edi], eax
  01967	8b d1		 mov	 edx, ecx
  01969	0f af 15 4c 01
	00 00		 imul	 edx, DWORD PTR ?ZtConfig@@3VcZtConfigs@@A+332
  01970	b8 1f 85 eb 51	 mov	 eax, 1374389535		; 51eb851fH
  01975	f7 ea		 imul	 edx
  01977	c1 fa 05	 sar	 edx, 5
  0197a	8b c2		 mov	 eax, edx
  0197c	c1 e8 1f	 shr	 eax, 31			; 0000001fH
  0197f	03 c2		 add	 eax, edx
  01981	03 c1		 add	 eax, ecx

; 788  : 		lpObj->m_AttackDamageMinLeft += lpObj->m_AttackDamageMinLeft * ZtConfig.CommonServer.Ringstrength / 100;

  01983	8b 8e 7c 04 00
	00		 mov	 ecx, DWORD PTR [esi+1148]
  01989	89 03		 mov	 DWORD PTR [ebx], eax
  0198b	8b d1		 mov	 edx, ecx
  0198d	0f af 15 4c 01
	00 00		 imul	 edx, DWORD PTR ?ZtConfig@@3VcZtConfigs@@A+332
  01994	b8 1f 85 eb 51	 mov	 eax, 1374389535		; 51eb851fH
  01999	f7 ea		 imul	 edx
  0199b	c1 fa 05	 sar	 edx, 5
  0199e	8b c2		 mov	 eax, edx
  019a0	c1 e8 1f	 shr	 eax, 31			; 0000001fH
  019a3	03 c2		 add	 eax, edx
  019a5	03 c1		 add	 eax, ecx

; 789  : 		lpObj->m_AttackDamageMaxLeft += lpObj->m_AttackDamageMaxLeft * ZtConfig.CommonServer.Ringstrength / 100;

  019a7	8b 8e 78 04 00
	00		 mov	 ecx, DWORD PTR [esi+1144]
  019ad	89 86 7c 04 00
	00		 mov	 DWORD PTR [esi+1148], eax
  019b3	8b d1		 mov	 edx, ecx
  019b5	0f af 15 4c 01
	00 00		 imul	 edx, DWORD PTR ?ZtConfig@@3VcZtConfigs@@A+332
  019bc	b8 1f 85 eb 51	 mov	 eax, 1374389535		; 51eb851fH
  019c1	f7 ea		 imul	 edx
  019c3	c1 fa 05	 sar	 edx, 5
  019c6	8b c2		 mov	 eax, edx
  019c8	c1 e8 1f	 shr	 eax, 31			; 0000001fH
  019cb	03 c2		 add	 eax, edx
  019cd	03 c1		 add	 eax, ecx

; 790  : 		lpObj->m_MagicDamageMin += lpObj->m_MagicDamageMin * ZtConfig.CommonServer.Ringstrength / 100;

  019cf	8b 8e 68 04 00
	00		 mov	 ecx, DWORD PTR [esi+1128]
  019d5	89 86 78 04 00
	00		 mov	 DWORD PTR [esi+1144], eax
  019db	8b d1		 mov	 edx, ecx
  019dd	0f af 15 4c 01
	00 00		 imul	 edx, DWORD PTR ?ZtConfig@@3VcZtConfigs@@A+332
  019e4	b8 1f 85 eb 51	 mov	 eax, 1374389535		; 51eb851fH
  019e9	f7 ea		 imul	 edx
  019eb	c1 fa 05	 sar	 edx, 5
  019ee	8b c2		 mov	 eax, edx
  019f0	c1 e8 1f	 shr	 eax, 31			; 0000001fH
  019f3	03 c2		 add	 eax, edx
  019f5	03 c1		 add	 eax, ecx

; 791  : 		lpObj->m_MagicDamageMax += lpObj->m_MagicDamageMax * ZtConfig.CommonServer.Ringstrength / 100;

  019f7	8b 8e 6c 04 00
	00		 mov	 ecx, DWORD PTR [esi+1132]
  019fd	89 86 68 04 00
	00		 mov	 DWORD PTR [esi+1128], eax
  01a03	8b d1		 mov	 edx, ecx
  01a05	0f af 15 4c 01
	00 00		 imul	 edx, DWORD PTR ?ZtConfig@@3VcZtConfigs@@A+332
  01a0c	b8 1f 85 eb 51	 mov	 eax, 1374389535		; 51eb851fH
  01a11	f7 ea		 imul	 edx
  01a13	c1 fa 05	 sar	 edx, 5
  01a16	8b c2		 mov	 eax, edx
  01a18	c1 e8 1f	 shr	 eax, 31			; 0000001fH
  01a1b	03 c2		 add	 eax, edx
  01a1d	03 c1		 add	 eax, ecx
  01a1f	89 86 6c 04 00
	00		 mov	 DWORD PTR [esi+1132], eax

; 792  : 		lpObj->m_AttackSpeed += ZtConfig.CommonServer.Ringstrength;

  01a25	8b 0d 4c 01 00
	00		 mov	 ecx, DWORD PTR ?ZtConfig@@3VcZtConfigs@@A+332
  01a2b	01 8e 8c 04 00
	00		 add	 DWORD PTR [esi+1164], ecx

; 793  : 		lpObj->m_MagicSpeed += ZtConfig.CommonServer.Ringstrength;

  01a31	8b 15 4c 01 00
	00		 mov	 edx, DWORD PTR ?ZtConfig@@3VcZtConfigs@@A+332
  01a37	01 96 90 04 00
	00		 add	 DWORD PTR [esi+1168], edx

; 794  : 		lpObj->m_ShowLag = 1;

  01a3d	c6 86 4c 2b 00
	00 01		 mov	 BYTE PTR [esi+11084], 1
$LN441@gObjCalCha:

; 795  : 	}
; 796  : #endif
; 797  : 	if ( lpObj->Class == CLASS_WIZARD )

  01a44	0f b7 86 b8 00
	00 00		 movzx	 eax, WORD PTR [esi+184]

; 798  : 	{
; 799  : 		lpObj->m_DetectSpeedHackTime = (int)(gAttackSpeedTimeLimit - (lpObj->m_MagicSpeed*2 * gDecTimePerAttackSpeed) );

  01a4b	db 05 00 00 00
	00		 fild	 DWORD PTR ?gAttackSpeedTimeLimit@@3KA ; gAttackSpeedTimeLimit
  01a51	89 85 b4 fe ff
	ff		 mov	 DWORD PTR tv8650[ebp], eax
  01a57	66 85 c0	 test	 ax, ax
  01a5a	75 25		 jne	 SHORT $LN170@gObjCalCha
  01a5c	a1 00 00 00 00	 mov	 eax, DWORD PTR ?gAttackSpeedTimeLimit@@3KA ; gAttackSpeedTimeLimit
  01a61	85 c0		 test	 eax, eax
  01a63	79 06		 jns	 SHORT $LN498@gObjCalCha
  01a65	d8 05 00 00 00
	00		 fadd	 DWORD PTR __real@4f800000
$LN498@gObjCalCha:
  01a6b	8b 8e 90 04 00
	00		 mov	 ecx, DWORD PTR [esi+1168]
  01a71	03 c9		 add	 ecx, ecx
  01a73	89 8d f0 fe ff
	ff		 mov	 DWORD PTR tv6762[ebp], ecx
  01a79	db 85 f0 fe ff
	ff		 fild	 DWORD PTR tv6762[ebp]

; 800  : 	}
; 801  : 	else

  01a7f	eb 16		 jmp	 SHORT $LN519@gObjCalCha
$LN170@gObjCalCha:

; 802  : 	{
; 803  : 		lpObj->m_DetectSpeedHackTime = (int)(gAttackSpeedTimeLimit - (lpObj->m_AttackSpeed * gDecTimePerAttackSpeed) );

  01a81	8b 15 00 00 00
	00		 mov	 edx, DWORD PTR ?gAttackSpeedTimeLimit@@3KA ; gAttackSpeedTimeLimit
  01a87	85 d2		 test	 edx, edx
  01a89	79 06		 jns	 SHORT $LN499@gObjCalCha
  01a8b	d8 05 00 00 00
	00		 fadd	 DWORD PTR __real@4f800000
$LN499@gObjCalCha:
  01a91	db 86 8c 04 00
	00		 fild	 DWORD PTR [esi+1164]
$LN519@gObjCalCha:
  01a97	d8 0d 00 00 00
	00		 fmul	 DWORD PTR ?gDecTimePerAttackSpeed@@3MA ; gDecTimePerAttackSpeed
  01a9d	de e9		 fsubp	 ST(1), ST(0)
  01a9f	e8 00 00 00 00	 call	 __ftol2_sse
  01aa4	89 86 74 03 00
	00		 mov	 DWORD PTR [esi+884], eax

; 804  : 	}
; 805  : 
; 806  : 	if ( lpObj->m_DetectSpeedHackTime < gMinimumAttackSpeedTime )

  01aaa	a1 00 00 00 00	 mov	 eax, DWORD PTR ?gMinimumAttackSpeedTime@@3HA ; gMinimumAttackSpeedTime
  01aaf	39 86 74 03 00
	00		 cmp	 DWORD PTR [esi+884], eax
  01ab5	7d 06		 jge	 SHORT $LN168@gObjCalCha

; 807  : 	{
; 808  : 		lpObj->m_DetectSpeedHackTime = gMinimumAttackSpeedTime;

  01ab7	89 86 74 03 00
	00		 mov	 DWORD PTR [esi+884], eax
$LN168@gObjCalCha:

; 809  : 	}
; 810  : 
; 811  : 
; 812  : 	if ( lpObj->Class == CLASS_ELF )

  01abd	8b 85 b4 fe ff
	ff		 mov	 eax, DWORD PTR tv8650[ebp]
  01ac3	66 83 f8 02	 cmp	 ax, 2
  01ac7	75 12		 jne	 SHORT $LN167@gObjCalCha

; 813  : 	{
; 814  : 		//int SuccessfulBlocking = GetPrivateProfileInt("Fairy_Elf","SuccessfulBlocking",4,"..\\Data\\ZtData\\Character.ini");
; 815  : 		lpObj->m_SuccessfulBlocking = Dexterity / ZtConfig.Character.ELFSuccessfulBlocking;	// 4

  01ac9	8b 85 f4 fe ff
	ff		 mov	 eax, DWORD PTR _Dexterity$[ebp]
  01acf	99		 cdq
  01ad0	f7 3d 60 02 00
	00		 idiv	 DWORD PTR ?ZtConfig@@3VcZtConfigs@@A+608
  01ad6	e9 8f 00 00 00	 jmp	 $LN520@gObjCalCha
$LN167@gObjCalCha:

; 816  : 	}
; 817  : 	else if ( lpObj->Class == CLASS_DARKLORD )

  01adb	66 83 f8 04	 cmp	 ax, 4
  01adf	75 0f		 jne	 SHORT $LN165@gObjCalCha

; 818  : 	{
; 819  : 		//int SuccessfulBlocking = GetPrivateProfileInt("Dark_Lord","SuccessfulBlocking",7,"..\\Data\\ZtData\\Character.ini");
; 820  : 		lpObj->m_SuccessfulBlocking = Dexterity / ZtConfig.Character.DLSuccessfulBlocking;	// 7

  01ae1	8b 85 f4 fe ff
	ff		 mov	 eax, DWORD PTR _Dexterity$[ebp]
  01ae7	99		 cdq
  01ae8	f7 3d 64 02 00
	00		 idiv	 DWORD PTR ?ZtConfig@@3VcZtConfigs@@A+612
  01aee	eb 7a		 jmp	 SHORT $LN520@gObjCalCha
$LN165@gObjCalCha:

; 821  : 	}
; 822  : 	else if ( lpObj->Class == CLASS_SUMMONER ) //Not much but its alot

  01af0	66 83 f8 05	 cmp	 ax, 5
  01af4	75 0f		 jne	 SHORT $LN163@gObjCalCha

; 823  : 	{
; 824  : 		//int SuccessfulBlocking = GetPrivateProfileInt("Summoner","SuccessfulBlocking",4,"..\\Data\\ZtData\\Character.ini");
; 825  : 		lpObj->m_SuccessfulBlocking = Dexterity / ZtConfig.Character.SUMSuccessfulBlocking;	 // 4

  01af6	8b 85 f4 fe ff
	ff		 mov	 eax, DWORD PTR _Dexterity$[ebp]
  01afc	99		 cdq
  01afd	f7 3d 68 02 00
	00		 idiv	 DWORD PTR ?ZtConfig@@3VcZtConfigs@@A+616
  01b03	eb 65		 jmp	 SHORT $LN520@gObjCalCha
$LN163@gObjCalCha:

; 826  : 	}
; 827  : 	else if ( lpObj->Class == CLASS_WIZARD )

  01b05	66 85 c0	 test	 ax, ax
  01b08	75 0f		 jne	 SHORT $LN161@gObjCalCha

; 828  : 	{
; 829  : 		//int SuccessfulBlocking = GetPrivateProfileInt("Dark_Wizard","SuccessfulBlocking",3,"..\\Data\\ZtData\\Character.ini");
; 830  : 		lpObj->m_SuccessfulBlocking = Dexterity / ZtConfig.Character.DWSuccessfulBlocking;	 // 3

  01b0a	8b 85 f4 fe ff
	ff		 mov	 eax, DWORD PTR _Dexterity$[ebp]
  01b10	99		 cdq
  01b11	f7 3d 6c 02 00
	00		 idiv	 DWORD PTR ?ZtConfig@@3VcZtConfigs@@A+620
  01b17	eb 51		 jmp	 SHORT $LN520@gObjCalCha
$LN161@gObjCalCha:

; 831  : 	}
; 832  : 	else if ( lpObj->Class == CLASS_KNIGHT )

  01b19	66 83 f8 01	 cmp	 ax, 1
  01b1d	75 0f		 jne	 SHORT $LN159@gObjCalCha

; 833  : 	{
; 834  : 		//int SuccessfulBlocking = GetPrivateProfileInt("Dark_Knight","SuccessfulBlocking",3,"..\\Data\\ZtData\\Character.ini");
; 835  : 		lpObj->m_SuccessfulBlocking = Dexterity / ZtConfig.Character.DKSuccessfulBlocking;	 // 3

  01b1f	8b 85 f4 fe ff
	ff		 mov	 eax, DWORD PTR _Dexterity$[ebp]
  01b25	99		 cdq
  01b26	f7 3d 70 02 00
	00		 idiv	 DWORD PTR ?ZtConfig@@3VcZtConfigs@@A+624
  01b2c	eb 3c		 jmp	 SHORT $LN520@gObjCalCha
$LN159@gObjCalCha:

; 836  : 	}
; 837  : 	else if ( lpObj->Class == CLASS_MAGUMSA )

  01b2e	66 83 f8 03	 cmp	 ax, 3
  01b32	75 0f		 jne	 SHORT $LN157@gObjCalCha

; 838  : 	{
; 839  : 		//int SuccessfulBlocking = GetPrivateProfileInt("Magic_Gladiator","SuccessfulBlocking",3,"..\\Data\\ZtData\\Character.ini");
; 840  : 		lpObj->m_SuccessfulBlocking = Dexterity / ZtConfig.Character.MGSuccessfulBlocking;	 // 3

  01b34	8b 85 f4 fe ff
	ff		 mov	 eax, DWORD PTR _Dexterity$[ebp]
  01b3a	99		 cdq
  01b3b	f7 3d 74 02 00
	00		 idiv	 DWORD PTR ?ZtConfig@@3VcZtConfigs@@A+628
  01b41	eb 27		 jmp	 SHORT $LN520@gObjCalCha
$LN157@gObjCalCha:

; 841  : 	}
; 842  : #ifdef MONK
; 843  : 	else if( lpObj->Class == CLASS_MONK )

  01b43	66 83 f8 06	 cmp	 ax, 6
  01b47	75 0f		 jne	 SHORT $LN155@gObjCalCha

; 844  : 	{
; 845  : 		lpObj->m_SuccessfulBlocking = Dexterity / ZtConfig.Character.RFSuccessfulBlocking;

  01b49	8b 85 f4 fe ff
	ff		 mov	 eax, DWORD PTR _Dexterity$[ebp]
  01b4f	99		 cdq
  01b50	f7 3d b0 02 00
	00		 idiv	 DWORD PTR ?ZtConfig@@3VcZtConfigs@@A+688

; 846  : 	}
; 847  : #endif
; 848  : 	else

  01b56	eb 12		 jmp	 SHORT $LN520@gObjCalCha
$LN155@gObjCalCha:

; 849  : 	{
; 850  : 		lpObj->m_SuccessfulBlocking = Dexterity / 3;

  01b58	b8 56 55 55 55	 mov	 eax, 1431655766		; 55555556H
  01b5d	f7 ad f4 fe ff
	ff		 imul	 DWORD PTR _Dexterity$[ebp]
  01b63	8b c2		 mov	 eax, edx
  01b65	c1 e8 1f	 shr	 eax, 31			; 0000001fH
  01b68	03 c2		 add	 eax, edx
$LN520@gObjCalCha:
  01b6a	89 86 9c 04 00
	00		 mov	 DWORD PTR [esi+1180], eax

; 851  : 	}
; 852  : 	if ( Left->m_Type != -1 )

  01b70	8b 85 cc fe ff
	ff		 mov	 eax, DWORD PTR _Left$[ebp]
  01b76	66 83 78 06 ff	 cmp	 WORD PTR [eax+6], -1
  01b7b	74 2f		 je	 SHORT $LN152@gObjCalCha

; 853  : 	{
; 854  : 		if ( Left->m_IsValidItem != false )

  01b7d	80 b8 b0 00 00
	00 00		 cmp	 BYTE PTR [eax+176], 0
  01b84	74 26		 je	 SHORT $LN152@gObjCalCha

; 855  : 		{
; 856  : 			lpObj->m_SuccessfulBlocking += Left->m_SuccessfulBlocking;

  01b86	8b c8		 mov	 ecx, eax
  01b88	0f b6 51 14	 movzx	 edx, BYTE PTR [ecx+20]

; 857  : 			lpObj->pInventory[1].PlusSpecial(&lpObj->m_SuccessfulBlocking, 82);

  01b8c	8b 8e 24 0e 00
	00		 mov	 ecx, DWORD PTR [esi+3620]
  01b92	01 96 9c 04 00
	00		 add	 DWORD PTR [esi+1180], edx
  01b98	8d 86 9c 04 00
	00		 lea	 eax, DWORD PTR [esi+1180]
  01b9e	6a 52		 push	 82			; 00000052H
  01ba0	50		 push	 eax
  01ba1	81 c1 d4 00 00
	00		 add	 ecx, 212		; 000000d4H
  01ba7	e8 00 00 00 00	 call	 ?PlusSpecial@CItem@@QAEXPAHH@Z ; CItem::PlusSpecial
$LN152@gObjCalCha:

; 858  : 		}
; 859  : 	}
; 860  : 
; 861  : 	bool Success = true;
; 862  : 
; 863  : 	if ( lpObj->Class == CLASS_MAGUMSA )

  01bac	66 83 be b8 00
	00 00 03	 cmp	 WORD PTR [esi+184], 3

; 864  : 	{
; 865  : 		for ( int j=3;j<=6;j++)

  01bb4	8b 86 24 0e 00
	00		 mov	 eax, DWORD PTR [esi+3620]
  01bba	b2 01		 mov	 dl, 1
  01bbc	88 95 fb fe ff
	ff		 mov	 BYTE PTR _Success$[ebp], dl
  01bc2	75 28		 jne	 SHORT $LN151@gObjCalCha
  01bc4	b9 03 00 00 00	 mov	 ecx, 3
  01bc9	05 2c 03 00 00	 add	 eax, 812		; 0000032cH
  01bce	8b ff		 npad	 2
$LL468@gObjCalCha:

; 866  : 		{
; 867  : 			if ( lpObj->pInventory[j].m_Type == -1 )

  01bd0	66 83 b8 56 ff
	ff ff ff	 cmp	 WORD PTR [eax-170], -1
  01bd8	74 38		 je	 SHORT $LN348@gObjCalCha

; 871  : 			}
; 872  : 
; 873  : 			if ( lpObj->pInventory[j].m_IsValidItem == false )

  01bda	80 38 00	 cmp	 BYTE PTR [eax], 0
  01bdd	74 33		 je	 SHORT $LN348@gObjCalCha

; 864  : 	{
; 865  : 		for ( int j=3;j<=6;j++)

  01bdf	41		 inc	 ecx
  01be0	05 d4 00 00 00	 add	 eax, 212		; 000000d4H
  01be5	83 f9 06	 cmp	 ecx, 6
  01be8	7e e6		 jle	 SHORT $LL468@gObjCalCha

; 868  : 			{
; 869  : 				Success = false;
; 870  : 				break;

  01bea	eb 2e		 jmp	 SHORT $LN142@gObjCalCha
$LN151@gObjCalCha:

; 874  : 			{
; 875  : 				Success = false;
; 876  : 				break;
; 877  : 			}
; 878  : 		}
; 879  : 	}
; 880  : 	else
; 881  : 	{
; 882  : 		for  ( int k=2;k<=6;k++)

  01bec	b9 02 00 00 00	 mov	 ecx, 2
  01bf1	05 58 02 00 00	 add	 eax, 600		; 00000258H
$LL469@gObjCalCha:

; 883  : 		{
; 884  : 			if ( lpObj->pInventory[k].m_Type == -1 )

  01bf6	66 83 b8 56 ff
	ff ff ff	 cmp	 WORD PTR [eax-170], -1
  01bfe	74 12		 je	 SHORT $LN348@gObjCalCha

; 885  : 			{
; 886  : 				Success = false;
; 887  : 				break;
; 888  : 			}
; 889  : 
; 890  : 			if ( lpObj->pInventory[k].m_IsValidItem == false )

  01c00	80 38 00	 cmp	 BYTE PTR [eax], 0
  01c03	74 0d		 je	 SHORT $LN348@gObjCalCha

; 874  : 			{
; 875  : 				Success = false;
; 876  : 				break;
; 877  : 			}
; 878  : 		}
; 879  : 	}
; 880  : 	else
; 881  : 	{
; 882  : 		for  ( int k=2;k<=6;k++)

  01c05	41		 inc	 ecx
  01c06	05 d4 00 00 00	 add	 eax, 212		; 000000d4H
  01c0b	83 f9 06	 cmp	 ecx, 6
  01c0e	7e e6		 jle	 SHORT $LL469@gObjCalCha

; 885  : 			{
; 886  : 				Success = false;
; 887  : 				break;
; 888  : 			}
; 889  : 
; 890  : 			if ( lpObj->pInventory[k].m_IsValidItem == false )

  01c10	eb 08		 jmp	 SHORT $LN142@gObjCalCha
$LN348@gObjCalCha:

; 891  : 			{
; 892  : 				Success = false;

  01c12	32 d2		 xor	 dl, dl
  01c14	88 95 fb fe ff
	ff		 mov	 BYTE PTR _Success$[ebp], dl
$LN142@gObjCalCha:

; 893  : 				break;
; 894  : 			}
; 895  : 		}
; 896  : 	}
; 897  : 
; 898  : 	int Level11Count = 0;

  01c1a	33 c0		 xor	 eax, eax
  01c1c	89 85 ec fe ff
	ff		 mov	 DWORD PTR _Level11Count$[ebp], eax

; 899  : 	int Level10Count = 0;

  01c22	89 85 d0 fe ff
	ff		 mov	 DWORD PTR _Level10Count$[ebp], eax

; 900  : 	int Level12Count = 0;

  01c28	89 85 e0 fe ff
	ff		 mov	 DWORD PTR _Level12Count$[ebp], eax

; 901  : 	int Level13Count = 0;

  01c2e	89 85 e8 fe ff
	ff		 mov	 DWORD PTR _Level13Count$[ebp], eax

; 902  : 	//Season 5 +15 Items
; 903  : 	int Level14Count = 0;

  01c34	89 85 d8 fe ff
	ff		 mov	 DWORD PTR _Level14Count$[ebp], eax

; 904  : 	int Level15Count = 0;

  01c3a	89 85 d4 fe ff
	ff		 mov	 DWORD PTR _Level15Count$[ebp], eax

; 905  : 
; 906  : 	if ( Success != false )

  01c40	84 d2		 test	 dl, dl
  01c42	0f 84 d2 03 00
	00		 je	 $LN104@gObjCalCha

; 907  : 	{
; 908  : 		int in;
; 909  : 
; 910  : 		if ( lpObj->Class == CLASS_MAGUMSA )

  01c48	66 83 be b8 00
	00 00 03	 cmp	 WORD PTR [esi+184], 3

; 911  : 		{
; 912  : 			in = lpObj->pInventory[3].m_Type % MAX_SUBTYPE_ITEMS;

  01c50	8b 86 24 0e 00
	00		 mov	 eax, DWORD PTR [esi+3620]
  01c56	0f 85 04 01 00
	00		 jne	 $LN138@gObjCalCha
  01c5c	0f bf 90 82 02
	00 00		 movsx	 edx, WORD PTR [eax+642]
  01c63	81 e2 ff 01 00
	80		 and	 edx, -2147483137	; 800001ffH
  01c69	79 08		 jns	 SHORT $LN500@gObjCalCha
  01c6b	4a		 dec	 edx
  01c6c	81 ca 00 fe ff
	ff		 or	 edx, -512		; fffffe00H
  01c72	42		 inc	 edx
$LN500@gObjCalCha:

; 913  : 
; 914  : 			if ( in != ITEMGET(0,15) &&
; 915  : 				 in != ITEMGET(0,20) &&
; 916  : 				 in != ITEMGET(0,23) &&
; 917  : 				 in != ITEMGET(0,33) &&
; 918  : 				 in != ITEMGET(0,32) &&
; 919  : 				 in != ITEMGET(0,37) &&
; 920  : 				 //season4 add-on
; 921  : 				 in != ITEMGET(0,47) &&
; 922  : 				 in != ITEMGET(0,48))

  01c73	83 fa 0f	 cmp	 edx, 15			; 0000000fH
  01c76	74 2f		 je	 SHORT $LN137@gObjCalCha
  01c78	83 fa 14	 cmp	 edx, 20			; 00000014H
  01c7b	74 2a		 je	 SHORT $LN137@gObjCalCha
  01c7d	83 fa 17	 cmp	 edx, 23			; 00000017H
  01c80	74 25		 je	 SHORT $LN137@gObjCalCha
  01c82	83 fa 21	 cmp	 edx, 33			; 00000021H
  01c85	74 20		 je	 SHORT $LN137@gObjCalCha
  01c87	83 fa 20	 cmp	 edx, 32			; 00000020H
  01c8a	74 1b		 je	 SHORT $LN137@gObjCalCha
  01c8c	83 fa 25	 cmp	 edx, 37			; 00000025H
  01c8f	74 16		 je	 SHORT $LN137@gObjCalCha
  01c91	83 fa 2f	 cmp	 edx, 47			; 0000002fH
  01c94	74 11		 je	 SHORT $LN137@gObjCalCha
  01c96	83 fa 30	 cmp	 edx, 48			; 00000030H
  01c99	74 0c		 je	 SHORT $LN137@gObjCalCha

; 923  : 			{
; 924  : 				Success = false;

  01c9b	c6 85 fb fe ff
	ff 00		 mov	 BYTE PTR _Success$[ebp], 0

; 925  : 			}
; 926  : 			else

  01ca2	e9 73 03 00 00	 jmp	 $LN104@gObjCalCha
$LN137@gObjCalCha:

; 927  : 			{
; 928  : 				Level13Count++;
; 929  : 
; 930  : 				for (int m=3;m<=6;m++)
; 931  : 				{
; 932  : 					if ( in != ( lpObj->pInventory[m].m_Type % MAX_SUBTYPE_ITEMS) )

  01ca7	8b 8e 24 0e 00
	00		 mov	 ecx, DWORD PTR [esi+3620]
  01cad	0f bf 81 82 02
	00 00		 movsx	 eax, WORD PTR [ecx+642]
  01cb4	25 ff 01 00 80	 and	 eax, -2147483137	; 800001ffH
  01cb9	c7 85 e8 fe ff
	ff 01 00 00 00	 mov	 DWORD PTR _Level13Count$[ebp], 1
  01cc3	79 07		 jns	 SHORT $LN501@gObjCalCha
  01cc5	48		 dec	 eax
  01cc6	0d 00 fe ff ff	 or	 eax, -512		; fffffe00H
  01ccb	40		 inc	 eax
$LN501@gObjCalCha:
  01ccc	3b d0		 cmp	 edx, eax
  01cce	74 07		 je	 SHORT $LN132@gObjCalCha

; 933  : 					{
; 934  : 						Success = false;

  01cd0	c6 85 fb fe ff
	ff 00		 mov	 BYTE PTR _Success$[ebp], 0
$LN132@gObjCalCha:

; 935  : 					}
; 936  : 					//Season 5 +15 Items
; 937  : 					if ( lpObj->pInventory[m].m_Level > 14 )

  01cd7	0f b7 81 84 02
	00 00		 movzx	 eax, WORD PTR [ecx+644]
  01cde	66 83 f8 0e	 cmp	 ax, 14			; 0000000eH
  01ce2	7e 0f		 jle	 SHORT $LN131@gObjCalCha

; 938  : 					{
; 939  : 						Level15Count++;

  01ce4	c7 85 d4 fe ff
	ff 01 00 00 00	 mov	 DWORD PTR _Level15Count$[ebp], 1
  01cee	e9 94 01 00 00	 jmp	 $LN404@gObjCalCha
$LN131@gObjCalCha:

; 940  : 					}
; 941  : 					else if ( lpObj->pInventory[m].m_Level > 13 )

  01cf3	66 83 f8 0d	 cmp	 ax, 13			; 0000000dH
  01cf7	7e 0f		 jle	 SHORT $LN129@gObjCalCha

; 942  : 					{
; 943  : 						Level14Count++;

  01cf9	c7 85 d8 fe ff
	ff 01 00 00 00	 mov	 DWORD PTR _Level14Count$[ebp], 1
  01d03	e9 7f 01 00 00	 jmp	 $LN404@gObjCalCha
$LN129@gObjCalCha:

; 944  : 					}
; 945  : 					else if ( lpObj->pInventory[m].m_Level > 12 )

  01d08	66 83 f8 0c	 cmp	 ax, 12			; 0000000cH
  01d0c	7e 0f		 jle	 SHORT $LN127@gObjCalCha

; 946  : 					{
; 947  : 						Level13Count++;

  01d0e	c7 85 e8 fe ff
	ff 02 00 00 00	 mov	 DWORD PTR _Level13Count$[ebp], 2
  01d18	e9 6a 01 00 00	 jmp	 $LN404@gObjCalCha
$LN127@gObjCalCha:

; 948  : 					}
; 949  : 					else if ( lpObj->pInventory[m].m_Level > 11 )

  01d1d	66 83 f8 0b	 cmp	 ax, 11			; 0000000bH
  01d21	7e 0f		 jle	 SHORT $LN125@gObjCalCha

; 950  : 					{
; 951  : 						Level12Count++;

  01d23	c7 85 e0 fe ff
	ff 01 00 00 00	 mov	 DWORD PTR _Level12Count$[ebp], 1
  01d2d	e9 55 01 00 00	 jmp	 $LN404@gObjCalCha
$LN125@gObjCalCha:

; 952  : 					}
; 953  : 					else if ( lpObj->pInventory[m].m_Level > 10 )

  01d32	66 83 f8 0a	 cmp	 ax, 10			; 0000000aH
  01d36	7e 0f		 jle	 SHORT $LN123@gObjCalCha

; 954  : 					{
; 955  : 						Level11Count++;

  01d38	c7 85 ec fe ff
	ff 01 00 00 00	 mov	 DWORD PTR _Level11Count$[ebp], 1
  01d42	e9 40 01 00 00	 jmp	 $LN404@gObjCalCha
$LN123@gObjCalCha:

; 956  : 					}
; 957  : 					else if ( lpObj->pInventory[m].m_Level > 9 )

  01d47	66 83 f8 09	 cmp	 ax, 9
  01d4b	0f 8e 36 01 00
	00		 jle	 $LN404@gObjCalCha

; 958  : 					{
; 959  : 						Level10Count++;

  01d51	c7 85 d0 fe ff
	ff 01 00 00 00	 mov	 DWORD PTR _Level10Count$[ebp], 1

; 960  : 					}
; 961  : 				}
; 962  : 			}
; 963  : 		}
; 964  : 		else

  01d5b	e9 27 01 00 00	 jmp	 $LN404@gObjCalCha
$LN138@gObjCalCha:

; 965  : 		{
; 966  : 			in = lpObj->pInventory[2].m_Type % MAX_SUBTYPE_ITEMS;

  01d60	0f bf 90 ae 01
	00 00		 movsx	 edx, WORD PTR [eax+430]
  01d67	81 e2 ff 01 00
	80		 and	 edx, -2147483137	; 800001ffH
  01d6d	79 08		 jns	 SHORT $LN505@gObjCalCha
  01d6f	4a		 dec	 edx
  01d70	81 ca 00 fe ff
	ff		 or	 edx, -512		; fffffe00H
  01d76	42		 inc	 edx
$LN505@gObjCalCha:

; 967  : 
; 968  : 			for (int m=2;m<=6;m++)
; 969  : 			{
; 970  : 				if ( in !=  ( lpObj->pInventory[m].m_Type % MAX_SUBTYPE_ITEMS) )

  01d77	8b 8e 24 0e 00
	00		 mov	 ecx, DWORD PTR [esi+3620]
  01d7d	0f bf 81 ae 01
	00 00		 movsx	 eax, WORD PTR [ecx+430]
  01d84	25 ff 01 00 80	 and	 eax, -2147483137	; 800001ffH
  01d89	79 07		 jns	 SHORT $LN506@gObjCalCha
  01d8b	48		 dec	 eax
  01d8c	0d 00 fe ff ff	 or	 eax, -512		; fffffe00H
  01d91	40		 inc	 eax
$LN506@gObjCalCha:
  01d92	3b d0		 cmp	 edx, eax
  01d94	74 07		 je	 SHORT $LN116@gObjCalCha

; 971  : 				{
; 972  : 					Success = false;

  01d96	c6 85 fb fe ff
	ff 00		 mov	 BYTE PTR _Success$[ebp], 0
$LN116@gObjCalCha:

; 973  : 				}
; 974  : 				//Season 5 +15 Items
; 975  : 				if ( lpObj->pInventory[m].m_Level > 14 )

  01d9d	0f b7 81 b0 01
	00 00		 movzx	 eax, WORD PTR [ecx+432]
  01da4	66 83 f8 0e	 cmp	 ax, 14			; 0000000eH
  01da8	7e 0c		 jle	 SHORT $LN115@gObjCalCha

; 976  : 				{
; 977  : 					Level15Count++;

  01daa	c7 85 d4 fe ff
	ff 01 00 00 00	 mov	 DWORD PTR _Level15Count$[ebp], 1
  01db4	eb 58		 jmp	 SHORT $LN118@gObjCalCha
$LN115@gObjCalCha:

; 978  : 				}
; 979  : 				else if ( lpObj->pInventory[m].m_Level > 13 )

  01db6	66 83 f8 0d	 cmp	 ax, 13			; 0000000dH
  01dba	7e 0c		 jle	 SHORT $LN113@gObjCalCha

; 980  : 				{
; 981  : 					Level14Count++;

  01dbc	c7 85 d8 fe ff
	ff 01 00 00 00	 mov	 DWORD PTR _Level14Count$[ebp], 1
  01dc6	eb 46		 jmp	 SHORT $LN118@gObjCalCha
$LN113@gObjCalCha:

; 982  : 				}
; 983  : 				else if ( lpObj->pInventory[m].m_Level > 12 )

  01dc8	66 83 f8 0c	 cmp	 ax, 12			; 0000000cH
  01dcc	7e 0c		 jle	 SHORT $LN111@gObjCalCha

; 984  : 				{
; 985  : 					Level13Count++;

  01dce	c7 85 e8 fe ff
	ff 01 00 00 00	 mov	 DWORD PTR _Level13Count$[ebp], 1
  01dd8	eb 34		 jmp	 SHORT $LN118@gObjCalCha
$LN111@gObjCalCha:

; 986  : 				}
; 987  : 				else if ( lpObj->pInventory[m].m_Level > 11 )

  01dda	66 83 f8 0b	 cmp	 ax, 11			; 0000000bH
  01dde	7e 0c		 jle	 SHORT $LN109@gObjCalCha

; 988  : 				{
; 989  : 					Level12Count++;

  01de0	c7 85 e0 fe ff
	ff 01 00 00 00	 mov	 DWORD PTR _Level12Count$[ebp], 1
  01dea	eb 22		 jmp	 SHORT $LN118@gObjCalCha
$LN109@gObjCalCha:

; 990  : 				}
; 991  : 				else if ( lpObj->pInventory[m].m_Level > 10 )

  01dec	66 83 f8 0a	 cmp	 ax, 10			; 0000000aH
  01df0	7e 0c		 jle	 SHORT $LN107@gObjCalCha

; 992  : 				{
; 993  : 					Level11Count++;

  01df2	c7 85 ec fe ff
	ff 01 00 00 00	 mov	 DWORD PTR _Level11Count$[ebp], 1
  01dfc	eb 10		 jmp	 SHORT $LN118@gObjCalCha
$LN107@gObjCalCha:

; 994  : 				}
; 995  : 				else if ( lpObj->pInventory[m].m_Level > 9 )

  01dfe	66 83 f8 09	 cmp	 ax, 9
  01e02	7e 0a		 jle	 SHORT $LN118@gObjCalCha

; 996  : 				{
; 997  : 					Level10Count++;

  01e04	c7 85 d0 fe ff
	ff 01 00 00 00	 mov	 DWORD PTR _Level10Count$[ebp], 1
$LN118@gObjCalCha:

; 967  : 
; 968  : 			for (int m=2;m<=6;m++)
; 969  : 			{
; 970  : 				if ( in !=  ( lpObj->pInventory[m].m_Type % MAX_SUBTYPE_ITEMS) )

  01e0e	0f bf 81 82 02
	00 00		 movsx	 eax, WORD PTR [ecx+642]
  01e15	25 ff 01 00 80	 and	 eax, -2147483137	; 800001ffH
  01e1a	79 07		 jns	 SHORT $LN507@gObjCalCha
  01e1c	48		 dec	 eax
  01e1d	0d 00 fe ff ff	 or	 eax, -512		; fffffe00H
  01e22	40		 inc	 eax
$LN507@gObjCalCha:
  01e23	3b d0		 cmp	 edx, eax
  01e25	74 07		 je	 SHORT $LN398@gObjCalCha

; 971  : 				{
; 972  : 					Success = false;

  01e27	c6 85 fb fe ff
	ff 00		 mov	 BYTE PTR _Success$[ebp], 0
$LN398@gObjCalCha:

; 973  : 				}
; 974  : 				//Season 5 +15 Items
; 975  : 				if ( lpObj->pInventory[m].m_Level > 14 )

  01e2e	0f b7 81 84 02
	00 00		 movzx	 eax, WORD PTR [ecx+644]
  01e35	66 83 f8 0e	 cmp	 ax, 14			; 0000000eH
  01e39	7e 08		 jle	 SHORT $LN399@gObjCalCha

; 976  : 				{
; 977  : 					Level15Count++;

  01e3b	ff 85 d4 fe ff
	ff		 inc	 DWORD PTR _Level15Count$[ebp]
  01e41	eb 44		 jmp	 SHORT $LN404@gObjCalCha
$LN399@gObjCalCha:

; 978  : 				}
; 979  : 				else if ( lpObj->pInventory[m].m_Level > 13 )

  01e43	66 83 f8 0d	 cmp	 ax, 13			; 0000000dH
  01e47	7e 08		 jle	 SHORT $LN400@gObjCalCha

; 980  : 				{
; 981  : 					Level14Count++;

  01e49	ff 85 d8 fe ff
	ff		 inc	 DWORD PTR _Level14Count$[ebp]
  01e4f	eb 36		 jmp	 SHORT $LN404@gObjCalCha
$LN400@gObjCalCha:

; 982  : 				}
; 983  : 				else if ( lpObj->pInventory[m].m_Level > 12 )

  01e51	66 83 f8 0c	 cmp	 ax, 12			; 0000000cH
  01e55	7e 08		 jle	 SHORT $LN401@gObjCalCha

; 984  : 				{
; 985  : 					Level13Count++;

  01e57	ff 85 e8 fe ff
	ff		 inc	 DWORD PTR _Level13Count$[ebp]
  01e5d	eb 28		 jmp	 SHORT $LN404@gObjCalCha
$LN401@gObjCalCha:

; 986  : 				}
; 987  : 				else if ( lpObj->pInventory[m].m_Level > 11 )

  01e5f	66 83 f8 0b	 cmp	 ax, 11			; 0000000bH
  01e63	7e 08		 jle	 SHORT $LN402@gObjCalCha

; 988  : 				{
; 989  : 					Level12Count++;

  01e65	ff 85 e0 fe ff
	ff		 inc	 DWORD PTR _Level12Count$[ebp]
  01e6b	eb 1a		 jmp	 SHORT $LN404@gObjCalCha
$LN402@gObjCalCha:

; 990  : 				}
; 991  : 				else if ( lpObj->pInventory[m].m_Level > 10 )

  01e6d	66 83 f8 0a	 cmp	 ax, 10			; 0000000aH
  01e71	7e 08		 jle	 SHORT $LN403@gObjCalCha

; 992  : 				{
; 993  : 					Level11Count++;

  01e73	ff 85 ec fe ff
	ff		 inc	 DWORD PTR _Level11Count$[ebp]
  01e79	eb 0c		 jmp	 SHORT $LN404@gObjCalCha
$LN403@gObjCalCha:

; 994  : 				}
; 995  : 				else if ( lpObj->pInventory[m].m_Level > 9 )

  01e7b	66 83 f8 09	 cmp	 ax, 9
  01e7f	7e 06		 jle	 SHORT $LN404@gObjCalCha

; 996  : 				{
; 997  : 					Level10Count++;

  01e81	ff 85 d0 fe ff
	ff		 inc	 DWORD PTR _Level10Count$[ebp]
$LN404@gObjCalCha:

; 967  : 
; 968  : 			for (int m=2;m<=6;m++)
; 969  : 			{
; 970  : 				if ( in !=  ( lpObj->pInventory[m].m_Type % MAX_SUBTYPE_ITEMS) )

  01e87	0f bf 81 56 03
	00 00		 movsx	 eax, WORD PTR [ecx+854]
  01e8e	25 ff 01 00 80	 and	 eax, -2147483137	; 800001ffH
  01e93	79 07		 jns	 SHORT $LN508@gObjCalCha
  01e95	48		 dec	 eax
  01e96	0d 00 fe ff ff	 or	 eax, -512		; fffffe00H
  01e9b	40		 inc	 eax
$LN508@gObjCalCha:
  01e9c	3b d0		 cmp	 edx, eax
  01e9e	74 07		 je	 SHORT $LN406@gObjCalCha

; 971  : 				{
; 972  : 					Success = false;

  01ea0	c6 85 fb fe ff
	ff 00		 mov	 BYTE PTR _Success$[ebp], 0
$LN406@gObjCalCha:

; 973  : 				}
; 974  : 				//Season 5 +15 Items
; 975  : 				if ( lpObj->pInventory[m].m_Level > 14 )

  01ea7	0f b7 81 58 03
	00 00		 movzx	 eax, WORD PTR [ecx+856]
  01eae	66 83 f8 0e	 cmp	 ax, 14			; 0000000eH
  01eb2	7e 08		 jle	 SHORT $LN407@gObjCalCha

; 976  : 				{
; 977  : 					Level15Count++;

  01eb4	ff 85 d4 fe ff
	ff		 inc	 DWORD PTR _Level15Count$[ebp]
  01eba	eb 44		 jmp	 SHORT $LN412@gObjCalCha
$LN407@gObjCalCha:

; 978  : 				}
; 979  : 				else if ( lpObj->pInventory[m].m_Level > 13 )

  01ebc	66 83 f8 0d	 cmp	 ax, 13			; 0000000dH
  01ec0	7e 08		 jle	 SHORT $LN408@gObjCalCha

; 980  : 				{
; 981  : 					Level14Count++;

  01ec2	ff 85 d8 fe ff
	ff		 inc	 DWORD PTR _Level14Count$[ebp]
  01ec8	eb 36		 jmp	 SHORT $LN412@gObjCalCha
$LN408@gObjCalCha:

; 982  : 				}
; 983  : 				else if ( lpObj->pInventory[m].m_Level > 12 )

  01eca	66 83 f8 0c	 cmp	 ax, 12			; 0000000cH
  01ece	7e 08		 jle	 SHORT $LN409@gObjCalCha

; 984  : 				{
; 985  : 					Level13Count++;

  01ed0	ff 85 e8 fe ff
	ff		 inc	 DWORD PTR _Level13Count$[ebp]
  01ed6	eb 28		 jmp	 SHORT $LN412@gObjCalCha
$LN409@gObjCalCha:

; 986  : 				}
; 987  : 				else if ( lpObj->pInventory[m].m_Level > 11 )

  01ed8	66 83 f8 0b	 cmp	 ax, 11			; 0000000bH
  01edc	7e 08		 jle	 SHORT $LN410@gObjCalCha

; 988  : 				{
; 989  : 					Level12Count++;

  01ede	ff 85 e0 fe ff
	ff		 inc	 DWORD PTR _Level12Count$[ebp]
  01ee4	eb 1a		 jmp	 SHORT $LN412@gObjCalCha
$LN410@gObjCalCha:

; 990  : 				}
; 991  : 				else if ( lpObj->pInventory[m].m_Level > 10 )

  01ee6	66 83 f8 0a	 cmp	 ax, 10			; 0000000aH
  01eea	7e 08		 jle	 SHORT $LN411@gObjCalCha

; 992  : 				{
; 993  : 					Level11Count++;

  01eec	ff 85 ec fe ff
	ff		 inc	 DWORD PTR _Level11Count$[ebp]
  01ef2	eb 0c		 jmp	 SHORT $LN412@gObjCalCha
$LN411@gObjCalCha:

; 994  : 				}
; 995  : 				else if ( lpObj->pInventory[m].m_Level > 9 )

  01ef4	66 83 f8 09	 cmp	 ax, 9
  01ef8	7e 06		 jle	 SHORT $LN412@gObjCalCha

; 996  : 				{
; 997  : 					Level10Count++;

  01efa	ff 85 d0 fe ff
	ff		 inc	 DWORD PTR _Level10Count$[ebp]
$LN412@gObjCalCha:

; 967  : 
; 968  : 			for (int m=2;m<=6;m++)
; 969  : 			{
; 970  : 				if ( in !=  ( lpObj->pInventory[m].m_Type % MAX_SUBTYPE_ITEMS) )

  01f00	0f bf 81 2a 04
	00 00		 movsx	 eax, WORD PTR [ecx+1066]
  01f07	25 ff 01 00 80	 and	 eax, -2147483137	; 800001ffH
  01f0c	79 07		 jns	 SHORT $LN509@gObjCalCha
  01f0e	48		 dec	 eax
  01f0f	0d 00 fe ff ff	 or	 eax, -512		; fffffe00H
  01f14	40		 inc	 eax
$LN509@gObjCalCha:
  01f15	3b d0		 cmp	 edx, eax
  01f17	74 07		 je	 SHORT $LN414@gObjCalCha

; 971  : 				{
; 972  : 					Success = false;

  01f19	c6 85 fb fe ff
	ff 00		 mov	 BYTE PTR _Success$[ebp], 0
$LN414@gObjCalCha:

; 973  : 				}
; 974  : 				//Season 5 +15 Items
; 975  : 				if ( lpObj->pInventory[m].m_Level > 14 )

  01f20	0f b7 81 2c 04
	00 00		 movzx	 eax, WORD PTR [ecx+1068]
  01f27	66 83 f8 0e	 cmp	 ax, 14			; 0000000eH
  01f2b	7e 08		 jle	 SHORT $LN415@gObjCalCha

; 976  : 				{
; 977  : 					Level15Count++;

  01f2d	ff 85 d4 fe ff
	ff		 inc	 DWORD PTR _Level15Count$[ebp]
  01f33	eb 44		 jmp	 SHORT $LN420@gObjCalCha
$LN415@gObjCalCha:

; 978  : 				}
; 979  : 				else if ( lpObj->pInventory[m].m_Level > 13 )

  01f35	66 83 f8 0d	 cmp	 ax, 13			; 0000000dH
  01f39	7e 08		 jle	 SHORT $LN416@gObjCalCha

; 980  : 				{
; 981  : 					Level14Count++;

  01f3b	ff 85 d8 fe ff
	ff		 inc	 DWORD PTR _Level14Count$[ebp]
  01f41	eb 36		 jmp	 SHORT $LN420@gObjCalCha
$LN416@gObjCalCha:

; 982  : 				}
; 983  : 				else if ( lpObj->pInventory[m].m_Level > 12 )

  01f43	66 83 f8 0c	 cmp	 ax, 12			; 0000000cH
  01f47	7e 08		 jle	 SHORT $LN417@gObjCalCha

; 984  : 				{
; 985  : 					Level13Count++;

  01f49	ff 85 e8 fe ff
	ff		 inc	 DWORD PTR _Level13Count$[ebp]
  01f4f	eb 28		 jmp	 SHORT $LN420@gObjCalCha
$LN417@gObjCalCha:

; 986  : 				}
; 987  : 				else if ( lpObj->pInventory[m].m_Level > 11 )

  01f51	66 83 f8 0b	 cmp	 ax, 11			; 0000000bH
  01f55	7e 08		 jle	 SHORT $LN418@gObjCalCha

; 988  : 				{
; 989  : 					Level12Count++;

  01f57	ff 85 e0 fe ff
	ff		 inc	 DWORD PTR _Level12Count$[ebp]
  01f5d	eb 1a		 jmp	 SHORT $LN420@gObjCalCha
$LN418@gObjCalCha:

; 990  : 				}
; 991  : 				else if ( lpObj->pInventory[m].m_Level > 10 )

  01f5f	66 83 f8 0a	 cmp	 ax, 10			; 0000000aH
  01f63	7e 08		 jle	 SHORT $LN419@gObjCalCha

; 992  : 				{
; 993  : 					Level11Count++;

  01f65	ff 85 ec fe ff
	ff		 inc	 DWORD PTR _Level11Count$[ebp]
  01f6b	eb 0c		 jmp	 SHORT $LN420@gObjCalCha
$LN419@gObjCalCha:

; 994  : 				}
; 995  : 				else if ( lpObj->pInventory[m].m_Level > 9 )

  01f6d	66 83 f8 09	 cmp	 ax, 9
  01f71	7e 06		 jle	 SHORT $LN420@gObjCalCha

; 996  : 				{
; 997  : 					Level10Count++;

  01f73	ff 85 d0 fe ff
	ff		 inc	 DWORD PTR _Level10Count$[ebp]
$LN420@gObjCalCha:

; 967  : 
; 968  : 			for (int m=2;m<=6;m++)
; 969  : 			{
; 970  : 				if ( in !=  ( lpObj->pInventory[m].m_Type % MAX_SUBTYPE_ITEMS) )

  01f79	0f bf 81 fe 04
	00 00		 movsx	 eax, WORD PTR [ecx+1278]
  01f80	25 ff 01 00 80	 and	 eax, -2147483137	; 800001ffH
  01f85	79 07		 jns	 SHORT $LN510@gObjCalCha
  01f87	48		 dec	 eax
  01f88	0d 00 fe ff ff	 or	 eax, -512		; fffffe00H
  01f8d	40		 inc	 eax
$LN510@gObjCalCha:
  01f8e	3b d0		 cmp	 edx, eax
  01f90	74 07		 je	 SHORT $LN463@gObjCalCha

; 971  : 				{
; 972  : 					Success = false;

  01f92	c6 85 fb fe ff
	ff 00		 mov	 BYTE PTR _Success$[ebp], 0
$LN463@gObjCalCha:

; 973  : 				}
; 974  : 				//Season 5 +15 Items
; 975  : 				if ( lpObj->pInventory[m].m_Level > 14 )

  01f99	0f b7 81 00 05
	00 00		 movzx	 eax, WORD PTR [ecx+1280]
  01fa0	66 83 f8 0e	 cmp	 ax, 14			; 0000000eH
  01fa4	7e 08		 jle	 SHORT $LN423@gObjCalCha

; 976  : 				{
; 977  : 					Level15Count++;

  01fa6	ff 85 d4 fe ff
	ff		 inc	 DWORD PTR _Level15Count$[ebp]
  01fac	eb 44		 jmp	 SHORT $LN428@gObjCalCha
$LN423@gObjCalCha:

; 978  : 				}
; 979  : 				else if ( lpObj->pInventory[m].m_Level > 13 )

  01fae	66 83 f8 0d	 cmp	 ax, 13			; 0000000dH
  01fb2	7e 08		 jle	 SHORT $LN424@gObjCalCha

; 980  : 				{
; 981  : 					Level14Count++;

  01fb4	ff 85 d8 fe ff
	ff		 inc	 DWORD PTR _Level14Count$[ebp]
  01fba	eb 36		 jmp	 SHORT $LN428@gObjCalCha
$LN424@gObjCalCha:

; 982  : 				}
; 983  : 				else if ( lpObj->pInventory[m].m_Level > 12 )

  01fbc	66 83 f8 0c	 cmp	 ax, 12			; 0000000cH
  01fc0	7e 08		 jle	 SHORT $LN425@gObjCalCha

; 984  : 				{
; 985  : 					Level13Count++;

  01fc2	ff 85 e8 fe ff
	ff		 inc	 DWORD PTR _Level13Count$[ebp]
  01fc8	eb 28		 jmp	 SHORT $LN428@gObjCalCha
$LN425@gObjCalCha:

; 986  : 				}
; 987  : 				else if ( lpObj->pInventory[m].m_Level > 11 )

  01fca	66 83 f8 0b	 cmp	 ax, 11			; 0000000bH
  01fce	7e 08		 jle	 SHORT $LN426@gObjCalCha

; 988  : 				{
; 989  : 					Level12Count++;

  01fd0	ff 85 e0 fe ff
	ff		 inc	 DWORD PTR _Level12Count$[ebp]
  01fd6	eb 1a		 jmp	 SHORT $LN428@gObjCalCha
$LN426@gObjCalCha:

; 990  : 				}
; 991  : 				else if ( lpObj->pInventory[m].m_Level > 10 )

  01fd8	66 83 f8 0a	 cmp	 ax, 10			; 0000000aH
  01fdc	7e 08		 jle	 SHORT $LN427@gObjCalCha

; 992  : 				{
; 993  : 					Level11Count++;

  01fde	ff 85 ec fe ff
	ff		 inc	 DWORD PTR _Level11Count$[ebp]
  01fe4	eb 0c		 jmp	 SHORT $LN428@gObjCalCha
$LN427@gObjCalCha:

; 994  : 				}
; 995  : 				else if ( lpObj->pInventory[m].m_Level > 9 )

  01fe6	66 83 f8 09	 cmp	 ax, 9
  01fea	7e 06		 jle	 SHORT $LN428@gObjCalCha

; 996  : 				{
; 997  : 					Level10Count++;

  01fec	ff 85 d0 fe ff
	ff		 inc	 DWORD PTR _Level10Count$[ebp]
$LN428@gObjCalCha:

; 998  : 				}
; 999  : 			}
; 1000 : 		}
; 1001 : 
; 1002 : 		if ( Success != false )

  01ff2	80 bd fb fe ff
	ff 00		 cmp	 BYTE PTR _Success$[ebp], 0
  01ff9	74 1f		 je	 SHORT $LN104@gObjCalCha

; 1003 : 		{
; 1004 : 			lpObj->m_SuccessfulBlocking += lpObj->m_SuccessfulBlocking / 10;

  01ffb	8b 8e 9c 04 00
	00		 mov	 ecx, DWORD PTR [esi+1180]
  02001	b8 67 66 66 66	 mov	 eax, 1717986919		; 66666667H
  02006	f7 e9		 imul	 ecx
  02008	c1 fa 02	 sar	 edx, 2
  0200b	8b c2		 mov	 eax, edx
  0200d	c1 e8 1f	 shr	 eax, 31			; 0000001fH
  02010	03 c2		 add	 eax, edx
  02012	03 c1		 add	 eax, ecx
  02014	89 86 9c 04 00
	00		 mov	 DWORD PTR [esi+1180], eax
$LN104@gObjCalCha:

; 1005 : 		}
; 1006 : 	}
; 1007 : 
; 1008 : 	if( lpObj->m_MPSkillOpt.MpsBlockingRate > 0.0f )

  0201a	d9 ee		 fldz
  0201c	d8 9e 38 26 00
	00		 fcomp	 DWORD PTR [esi+9784]
  02022	df e0		 fnstsw	 ax
  02024	f6 c4 05	 test	 ah, 5
  02027	7a 2f		 jp	 SHORT $LN103@gObjCalCha

; 1009 : 	{
; 1010 : 		lpObj->m_SuccessfulBlocking += lpObj->m_SuccessfulBlocking / 100.0f * lpObj->m_MPSkillOpt.MpsBlockingRate;

  02029	8b 8e 9c 04 00
	00		 mov	 ecx, DWORD PTR [esi+1180]
  0202f	89 8d bc fe ff
	ff		 mov	 DWORD PTR tv6277[ebp], ecx
  02035	db 85 bc fe ff
	ff		 fild	 DWORD PTR tv6277[ebp]
  0203b	dc 35 00 00 00
	00		 fdiv	 QWORD PTR __real@4059000000000000
  02041	d8 8e 38 26 00
	00		 fmul	 DWORD PTR [esi+9784]
  02047	da 85 bc fe ff
	ff		 fiadd	 DWORD PTR tv6277[ebp]
  0204d	e8 00 00 00 00	 call	 __ftol2_sse
  02052	89 86 9c 04 00
	00		 mov	 DWORD PTR [esi+1180], eax
$LN103@gObjCalCha:

; 1011 : 	}
; 1012 : 
; 1013 : 	lpObj->m_SuccessfulBlocking += lpObj->m_MPSkillOpt.MpsShieldMastery;
; 1014 : 	//lpObj->m_SuccessfulBlocking += lpObj->m_MPSkillOpt.MpsShieldMastery2;
; 1015 : 	lpObj->m_SuccessfulBlocking += lpObj->m_MPSkillOpt.MpsShieldMastery3;

  02058	db 86 9c 04 00
	00		 fild	 DWORD PTR [esi+1180]
  0205e	d8 86 a8 26 00
	00		 fadd	 DWORD PTR [esi+9896]
  02064	e8 00 00 00 00	 call	 __ftol2_sse
  02069	89 85 f0 fe ff
	ff		 mov	 DWORD PTR tv6686[ebp], eax
  0206f	db 85 f0 fe ff
	ff		 fild	 DWORD PTR tv6686[ebp]
  02075	d8 86 1c 27 00
	00		 fadd	 DWORD PTR [esi+10012]
  0207b	e8 00 00 00 00	 call	 __ftol2_sse

; 1016 : 
; 1017 : 	if ( lpObj->Class == CLASS_ELF )

  02080	66 83 be b8 00
	00 00 02	 cmp	 WORD PTR [esi+184], 2
  02088	89 86 9c 04 00
	00		 mov	 DWORD PTR [esi+1180], eax
  0208e	75 12		 jne	 SHORT $LN102@gObjCalCha

; 1018 : 	{
; 1019 : 		//int Defense = GetPrivateProfileInt("Fairy_Elf","Defense",10,"..\\Data\\ZtData\\Character.ini");
; 1020 : 		lpObj->m_Defense = Dexterity / ZtConfig.Character.ELFDefense;

  02090	8b 85 f4 fe ff
	ff		 mov	 eax, DWORD PTR _Dexterity$[ebp]
  02096	99		 cdq
  02097	f7 3d 78 02 00
	00		 idiv	 DWORD PTR ?ZtConfig@@3VcZtConfigs@@A+632
  0209d	e9 87 00 00 00	 jmp	 $LN569@gObjCalCha
$LN102@gObjCalCha:

; 1021 : 	}
; 1022 : 	else if ( lpObj->Class == CLASS_KNIGHT )

  020a2	0f b7 86 b8 00
	00 00		 movzx	 eax, WORD PTR [esi+184]
  020a9	83 f8 01	 cmp	 eax, 1
  020ac	75 0f		 jne	 SHORT $LN100@gObjCalCha

; 1023 : 	{
; 1024 : 		//int Defense = GetPrivateProfileInt("Dark_Knight","Defense",3,"..\\Data\\ZtData\\Character.ini");
; 1025 : 		lpObj->m_Defense = Dexterity / ZtConfig.Character.DKDefense;

  020ae	8b 85 f4 fe ff
	ff		 mov	 eax, DWORD PTR _Dexterity$[ebp]
  020b4	99		 cdq
  020b5	f7 3d 7c 02 00
	00		 idiv	 DWORD PTR ?ZtConfig@@3VcZtConfigs@@A+636
  020bb	eb 6c		 jmp	 SHORT $LN569@gObjCalCha
$LN100@gObjCalCha:

; 1026 : 	}
; 1027 : 	else if ( lpObj->Class == CLASS_DARKLORD )

  020bd	83 f8 04	 cmp	 eax, 4
  020c0	75 0f		 jne	 SHORT $LN98@gObjCalCha

; 1028 : 	{
; 1029 : 		//int Defense = GetPrivateProfileInt("Dark_Lord","Defense",7,"..\\Data\\ZtData\\Character.ini");
; 1030 : 		lpObj->m_Defense = Dexterity / ZtConfig.Character.DLDefense;

  020c2	8b 85 f4 fe ff
	ff		 mov	 eax, DWORD PTR _Dexterity$[ebp]
  020c8	99		 cdq
  020c9	f7 3d 80 02 00
	00		 idiv	 DWORD PTR ?ZtConfig@@3VcZtConfigs@@A+640
  020cf	eb 58		 jmp	 SHORT $LN569@gObjCalCha
$LN98@gObjCalCha:

; 1031 : 	}
; 1032 : 	else if ( lpObj->Class == CLASS_SUMMONER ) //strong like BK

  020d1	83 f8 05	 cmp	 eax, 5
  020d4	75 0f		 jne	 SHORT $LN96@gObjCalCha

; 1033 : 	{
; 1034 : 		//int Defense = GetPrivateProfileInt("Summoner","Defense",3,"..\\Data\\ZtData\\Character.ini");
; 1035 : 		lpObj->m_Defense = Dexterity / ZtConfig.Character.SUMDefense;

  020d6	8b 85 f4 fe ff
	ff		 mov	 eax, DWORD PTR _Dexterity$[ebp]
  020dc	99		 cdq
  020dd	f7 3d 84 02 00
	00		 idiv	 DWORD PTR ?ZtConfig@@3VcZtConfigs@@A+644
  020e3	eb 44		 jmp	 SHORT $LN569@gObjCalCha
$LN96@gObjCalCha:

; 1036 : 	}
; 1037 : 	else if ( lpObj->Class == CLASS_MAGUMSA ) //MG

  020e5	83 f8 03	 cmp	 eax, 3
  020e8	75 0f		 jne	 SHORT $LN94@gObjCalCha

; 1038 : 	{
; 1039 : 		//int Defense = GetPrivateProfileInt("Magic_Gladiator","Defense",4,"..\\Data\\ZtData\\Character.ini");
; 1040 : 		lpObj->m_Defense = Dexterity / ZtConfig.Character.MGDefense;

  020ea	8b 85 f4 fe ff
	ff		 mov	 eax, DWORD PTR _Dexterity$[ebp]
  020f0	99		 cdq
  020f1	f7 3d 88 02 00
	00		 idiv	 DWORD PTR ?ZtConfig@@3VcZtConfigs@@A+648
  020f7	eb 30		 jmp	 SHORT $LN569@gObjCalCha
$LN94@gObjCalCha:

; 1041 : 	}
; 1042 : 	else if ( lpObj->Class == CLASS_WIZARD ) //DW

  020f9	66 85 c0	 test	 ax, ax
  020fc	75 0f		 jne	 SHORT $LN92@gObjCalCha

; 1043 : 	{
; 1044 : 		//int Defense = GetPrivateProfileInt("Dark_Wizard","Defense",4,"..\\Data\\ZtData\\Character.ini");
; 1045 : 		lpObj->m_Defense = Dexterity / ZtConfig.Character.DWDefense;

  020fe	8b 85 f4 fe ff
	ff		 mov	 eax, DWORD PTR _Dexterity$[ebp]
  02104	99		 cdq
  02105	f7 3d 8c 02 00
	00		 idiv	 DWORD PTR ?ZtConfig@@3VcZtConfigs@@A+652
  0210b	eb 1c		 jmp	 SHORT $LN569@gObjCalCha
$LN92@gObjCalCha:

; 1046 : 	}
; 1047 : #ifdef MONK
; 1048 : 	else if( lpObj->Class == CLASS_MONK )

  0210d	83 f8 06	 cmp	 eax, 6

; 1049 : 	{
; 1050 : 		lpObj->m_Defense = Dexterity / ZtConfig.Character.RFDefense;

  02110	8b 85 f4 fe ff
	ff		 mov	 eax, DWORD PTR _Dexterity$[ebp]
  02116	99		 cdq
  02117	75 08		 jne	 SHORT $LN90@gObjCalCha
  02119	f7 3d b4 02 00
	00		 idiv	 DWORD PTR ?ZtConfig@@3VcZtConfigs@@A+692

; 1051 : 	}
; 1052 : #endif
; 1053 : 	else

  0211f	eb 08		 jmp	 SHORT $LN569@gObjCalCha
$LN90@gObjCalCha:

; 1054 : 	{
; 1055 : 		lpObj->m_Defense = Dexterity / 4;

  02121	83 e2 03	 and	 edx, 3
  02124	03 c2		 add	 eax, edx
  02126	c1 f8 02	 sar	 eax, 2
$LN569@gObjCalCha:

; 1056 : 	}
; 1057 : 
; 1058 : 
; 1059 : 
; 1060 : 	lpObj->m_Defense += lpObj->pInventory[2].ItemDefense();

  02129	8b 8e 24 0e 00
	00		 mov	 ecx, DWORD PTR [esi+3620]
  0212f	8d 89 a8 01 00
	00		 lea	 ecx, DWORD PTR [ecx+424]
  02135	89 86 94 04 00
	00		 mov	 DWORD PTR [esi+1172], eax
  0213b	e8 00 00 00 00	 call	 ?ItemDefense@CItem@@QAEHXZ ; CItem::ItemDefense

; 1061 : 	lpObj->m_Defense += lpObj->pInventory[3].ItemDefense();

  02140	8b 8e 24 0e 00
	00		 mov	 ecx, DWORD PTR [esi+3620]
  02146	01 86 94 04 00
	00		 add	 DWORD PTR [esi+1172], eax
  0214c	81 c1 7c 02 00
	00		 add	 ecx, 636		; 0000027cH
  02152	e8 00 00 00 00	 call	 ?ItemDefense@CItem@@QAEHXZ ; CItem::ItemDefense

; 1062 : 	lpObj->m_Defense += lpObj->pInventory[4].ItemDefense();

  02157	8b 8e 24 0e 00
	00		 mov	 ecx, DWORD PTR [esi+3620]
  0215d	01 86 94 04 00
	00		 add	 DWORD PTR [esi+1172], eax
  02163	81 c1 50 03 00
	00		 add	 ecx, 848		; 00000350H
  02169	e8 00 00 00 00	 call	 ?ItemDefense@CItem@@QAEHXZ ; CItem::ItemDefense

; 1063 : 	lpObj->m_Defense += lpObj->pInventory[5].ItemDefense();

  0216e	8b 8e 24 0e 00
	00		 mov	 ecx, DWORD PTR [esi+3620]
  02174	01 86 94 04 00
	00		 add	 DWORD PTR [esi+1172], eax
  0217a	81 c1 24 04 00
	00		 add	 ecx, 1060		; 00000424H
  02180	e8 00 00 00 00	 call	 ?ItemDefense@CItem@@QAEHXZ ; CItem::ItemDefense

; 1064 : 	lpObj->m_Defense += lpObj->pInventory[6].ItemDefense();

  02185	8b 8e 24 0e 00
	00		 mov	 ecx, DWORD PTR [esi+3620]
  0218b	01 86 94 04 00
	00		 add	 DWORD PTR [esi+1172], eax
  02191	81 c1 f8 04 00
	00		 add	 ecx, 1272		; 000004f8H
  02197	e8 00 00 00 00	 call	 ?ItemDefense@CItem@@QAEHXZ ; CItem::ItemDefense

; 1065 : 	lpObj->m_Defense += lpObj->pInventory[1].ItemDefense();

  0219c	8b 8e 24 0e 00
	00		 mov	 ecx, DWORD PTR [esi+3620]
  021a2	01 86 94 04 00
	00		 add	 DWORD PTR [esi+1172], eax
  021a8	81 c1 d4 00 00
	00		 add	 ecx, 212		; 000000d4H
  021ae	e8 00 00 00 00	 call	 ?ItemDefense@CItem@@QAEHXZ ; CItem::ItemDefense

; 1066 : 	lpObj->m_Defense += lpObj->pInventory[7].ItemDefense();

  021b3	8b 8e 24 0e 00
	00		 mov	 ecx, DWORD PTR [esi+3620]
  021b9	01 86 94 04 00
	00		 add	 DWORD PTR [esi+1172], eax
  021bf	81 c1 cc 05 00
	00		 add	 ecx, 1484		; 000005ccH
  021c5	e8 00 00 00 00	 call	 ?ItemDefense@CItem@@QAEHXZ ; CItem::ItemDefense

; 1067 : 
; 1068 : 	if ( lpObj->pInventory[8].IsItem() != FALSE )

  021ca	8b 8e 24 0e 00
	00		 mov	 ecx, DWORD PTR [esi+3620]
  021d0	01 86 94 04 00
	00		 add	 DWORD PTR [esi+1172], eax
  021d6	81 c1 a0 06 00
	00		 add	 ecx, 1696		; 000006a0H
  021dc	e8 00 00 00 00	 call	 ?IsItem@CItem@@QAEHXZ	; CItem::IsItem
  021e1	85 c0		 test	 eax, eax
  021e3	74 4e		 je	 SHORT $LN87@gObjCalCha

; 1069 : 	{
; 1070 : 		if ( lpObj->pInventory[8].m_Type == ITEMGET(13,4) && lpObj->pInventory[8].m_Durability > 0.0f )

  021e5	8b 86 24 0e 00
	00		 mov	 eax, DWORD PTR [esi+3620]
  021eb	ba 04 1a 00 00	 mov	 edx, 6660		; 00001a04H
  021f0	66 39 90 a6 06
	00 00		 cmp	 WORD PTR [eax+1702], dx
  021f7	75 3a		 jne	 SHORT $LN87@gObjCalCha
  021f9	d9 ee		 fldz
  021fb	d8 98 c4 06 00
	00		 fcomp	 DWORD PTR [eax+1732]
  02201	df e0		 fnstsw	 ax
  02203	f6 c4 05	 test	 ah, 5
  02206	7a 2b		 jp	 SHORT $LN87@gObjCalCha

; 1071 : 		{
; 1072 : 			lpObj->m_Defense += INT( Dexterity / 20 + 5 + Helper->m_PetItem_Level * 2 );

  02208	8b 85 ac fe ff
	ff		 mov	 eax, DWORD PTR _Helper$[ebp]
  0220e	8b 88 bc 00 00
	00		 mov	 ecx, DWORD PTR [eax+188]
  02214	b8 67 66 66 66	 mov	 eax, 1717986919		; 66666667H
  02219	f7 ad f4 fe ff
	ff		 imul	 DWORD PTR _Dexterity$[ebp]
  0221f	c1 fa 03	 sar	 edx, 3
  02222	8b c2		 mov	 eax, edx
  02224	c1 e8 1f	 shr	 eax, 31			; 0000001fH
  02227	03 c2		 add	 eax, edx
  02229	8d 4c 48 05	 lea	 ecx, DWORD PTR [eax+ecx*2+5]
  0222d	01 8e 94 04 00
	00		 add	 DWORD PTR [esi+1172], ecx
$LN87@gObjCalCha:

; 1073 : 		}
; 1074 : 	}
; 1075 : 
; 1076 : 	if ( lpObj->pInventory[8].IsItem() != FALSE )

  02233	8b 8e 24 0e 00
	00		 mov	 ecx, DWORD PTR [esi+3620]
  02239	81 c1 a0 06 00
	00		 add	 ecx, 1696		; 000006a0H
  0223f	e8 00 00 00 00	 call	 ?IsItem@CItem@@QAEHXZ	; CItem::IsItem
  02244	85 c0		 test	 eax, eax
  02246	0f 84 d0 05 00
	00		 je	 $LN74@gObjCalCha

; 1077 : 	{
; 1078 : 		if ( lpObj->pInventory[8].m_Type == ITEMGET(13,37) && lpObj->pInventory[8].m_Durability > 0.0f ) // Golden Fenrir (Season 2.5 add-on)

  0224c	8b 8e 24 0e 00
	00		 mov	 ecx, DWORD PTR [esi+3620]
  02252	ba 25 1a 00 00	 mov	 edx, 6693		; 00001a25H
  02257	66 39 91 a6 06
	00 00		 cmp	 WORD PTR [ecx+1702], dx
  0225e	0f 85 b8 05 00
	00		 jne	 $LN74@gObjCalCha
  02264	d9 ee		 fldz
  02266	d8 99 c4 06 00
	00		 fcomp	 DWORD PTR [ecx+1732]
  0226c	df e0		 fnstsw	 ax
  0226e	f6 c4 05	 test	 ah, 5
  02271	0f 8a a5 05 00
	00		 jp	 $LN74@gObjCalCha

; 1079 : 		{
; 1080 : 			if ( lpObj->pInventory[8].IsFenrirSpecial() != FALSE )

  02277	81 c1 a0 06 00
	00		 add	 ecx, 1696		; 000006a0H
  0227d	e8 00 00 00 00	 call	 ?IsFenrirSpecial@CItem@@QAEHXZ ; CItem::IsFenrirSpecial
  02282	85 c0		 test	 eax, eax
  02284	0f 84 f6 00 00
	00		 je	 $LN83@gObjCalCha

; 1081 : 			{
; 1082 : 
; 1083 : 				int BaseLevel = lpObj->Level + lpObj->MLevel;

  0228a	0f bf 86 be 00
	00 00		 movsx	 eax, WORD PTR [esi+190]
  02291	0f bf 8e d0 00
	00 00		 movsx	 ecx, WORD PTR [esi+208]
  02298	03 c8		 add	 ecx, eax

; 1084 : 
; 1085 : 				lpObj->AddLife += BaseLevel/2; //season3 changed

  0229a	8b c1		 mov	 eax, ecx
  0229c	99		 cdq
  0229d	2b c2		 sub	 eax, edx
  0229f	d1 f8		 sar	 eax, 1
  022a1	01 86 4c 01 00
	00		 add	 DWORD PTR [esi+332], eax

; 1086 : 				lpObj->AddMana += BaseLevel/2; //season3 changed

  022a7	01 86 50 01 00
	00		 add	 DWORD PTR [esi+336], eax

; 1087 : 
; 1088 : 
; 1089 : 				lpObj->m_AttackDamageMinRight += BaseLevel/12;

  022ad	b8 ab aa aa 2a	 mov	 eax, 715827883		; 2aaaaaabH
  022b2	f7 e9		 imul	 ecx
  022b4	d1 fa		 sar	 edx, 1
  022b6	8b c2		 mov	 eax, edx
  022b8	c1 e8 1f	 shr	 eax, 31			; 0000001fH
  022bb	03 c2		 add	 eax, edx
  022bd	01 07		 add	 DWORD PTR [edi], eax

; 1090 : 				lpObj->m_AttackDamageMaxRight += BaseLevel/12;

  022bf	01 03		 add	 DWORD PTR [ebx], eax

; 1091 : 
; 1092 : 				lpObj->m_AttackDamageMinLeft += BaseLevel/12;

  022c1	01 86 7c 04 00
	00		 add	 DWORD PTR [esi+1148], eax

; 1093 : 				lpObj->m_AttackDamageMaxLeft += BaseLevel/12;

  022c7	01 86 78 04 00
	00		 add	 DWORD PTR [esi+1144], eax

; 1094 : 
; 1095 : 				lpObj->m_MagicDamageMax += BaseLevel/25;

  022cd	b8 1f 85 eb 51	 mov	 eax, 1374389535		; 51eb851fH
  022d2	f7 e9		 imul	 ecx
  022d4	c1 fa 03	 sar	 edx, 3
  022d7	8b c2		 mov	 eax, edx
  022d9	c1 e8 1f	 shr	 eax, 31			; 0000001fH
  022dc	03 c2		 add	 eax, edx
  022de	01 86 6c 04 00
	00		 add	 DWORD PTR [esi+1132], eax

; 1096 : 				lpObj->m_MagicDamageMin += BaseLevel/25;

  022e4	01 86 68 04 00
	00		 add	 DWORD PTR [esi+1128], eax

; 1097 : #ifdef FENRIR_CONFIG
; 1098 : 				//illusian
; 1099 : 
; 1100 : 				if(g_ZtLicense.CheckUser(eZtUB::PrideMuLocal) || g_ZtLicense.CheckUser(eZtUB::PrideMu) || g_ZtLicense.CheckUser(eZtUB::Local3) || g_ZtLicense.CheckUser(eZtUB::Local))

  022ea	6a 1a		 push	 26			; 0000001aH
  022ec	b9 00 00 00 00	 mov	 ecx, OFFSET ?g_ZtLicense@@3VCZtLicense@@A ; g_ZtLicense
  022f1	e8 00 00 00 00	 call	 ?CheckUser@CZtLicense@@QAE_NH@Z ; CZtLicense::CheckUser
  022f6	84 c0		 test	 al, al
  022f8	75 30		 jne	 SHORT $LN82@gObjCalCha
  022fa	6a 11		 push	 17			; 00000011H
  022fc	b9 00 00 00 00	 mov	 ecx, OFFSET ?g_ZtLicense@@3VCZtLicense@@A ; g_ZtLicense
  02301	e8 00 00 00 00	 call	 ?CheckUser@CZtLicense@@QAE_NH@Z ; CZtLicense::CheckUser
  02306	84 c0		 test	 al, al
  02308	75 20		 jne	 SHORT $LN82@gObjCalCha
  0230a	6a 1c		 push	 28			; 0000001cH
  0230c	b9 00 00 00 00	 mov	 ecx, OFFSET ?g_ZtLicense@@3VCZtLicense@@A ; g_ZtLicense
  02311	e8 00 00 00 00	 call	 ?CheckUser@CZtLicense@@QAE_NH@Z ; CZtLicense::CheckUser
  02316	84 c0		 test	 al, al
  02318	75 10		 jne	 SHORT $LN82@gObjCalCha
  0231a	6a 00		 push	 0
  0231c	b9 00 00 00 00	 mov	 ecx, OFFSET ?g_ZtLicense@@3VCZtLicense@@A ; g_ZtLicense
  02321	e8 00 00 00 00	 call	 ?CheckUser@CZtLicense@@QAE_NH@Z ; CZtLicense::CheckUser
  02326	84 c0		 test	 al, al
  02328	74 56		 je	 SHORT $LN83@gObjCalCha
$LN82@gObjCalCha:

; 1101 : 				{
; 1102 : 					lpObj->AddLife += ZtConfig.PrideMu.AddLife; 

  0232a	8b 0d a8 0b 00
	00		 mov	 ecx, DWORD PTR ?ZtConfig@@3VcZtConfigs@@A+2984
  02330	01 8e 4c 01 00
	00		 add	 DWORD PTR [esi+332], ecx

; 1103 : 					lpObj->AddMana += ZtConfig.PrideMu.AddMana; 

  02336	8b 15 ac 0b 00
	00		 mov	 edx, DWORD PTR ?ZtConfig@@3VcZtConfigs@@A+2988
  0233c	01 96 50 01 00
	00		 add	 DWORD PTR [esi+336], edx

; 1104 : 
; 1105 : 
; 1106 : 					lpObj->m_AttackDamageMinRight += ZtConfig.PrideMu.AttackDamageMin;

  02342	a1 b0 0b 00 00	 mov	 eax, DWORD PTR ?ZtConfig@@3VcZtConfigs@@A+2992
  02347	01 07		 add	 DWORD PTR [edi], eax

; 1107 : 					lpObj->m_AttackDamageMaxRight += ZtConfig.PrideMu.AttackDamageMax;

  02349	8b 0d b4 0b 00
	00		 mov	 ecx, DWORD PTR ?ZtConfig@@3VcZtConfigs@@A+2996
  0234f	01 0b		 add	 DWORD PTR [ebx], ecx

; 1108 : 
; 1109 : 					lpObj->m_AttackDamageMinLeft += ZtConfig.PrideMu.AttackDamageMin;

  02351	8b 15 b0 0b 00
	00		 mov	 edx, DWORD PTR ?ZtConfig@@3VcZtConfigs@@A+2992
  02357	01 96 7c 04 00
	00		 add	 DWORD PTR [esi+1148], edx

; 1110 : 					lpObj->m_AttackDamageMaxLeft += ZtConfig.PrideMu.AttackDamageMax;

  0235d	a1 b4 0b 00 00	 mov	 eax, DWORD PTR ?ZtConfig@@3VcZtConfigs@@A+2996
  02362	01 86 78 04 00
	00		 add	 DWORD PTR [esi+1144], eax

; 1111 : 
; 1112 : 					lpObj->m_MagicDamageMax += ZtConfig.PrideMu.MagicDamageMax;

  02368	8b 0d bc 0b 00
	00		 mov	 ecx, DWORD PTR ?ZtConfig@@3VcZtConfigs@@A+3004
  0236e	01 8e 6c 04 00
	00		 add	 DWORD PTR [esi+1132], ecx

; 1113 : 					lpObj->m_MagicDamageMin += ZtConfig.PrideMu.MagicDamageMin;

  02374	8b 15 b8 0b 00
	00		 mov	 edx, DWORD PTR ?ZtConfig@@3VcZtConfigs@@A+3000
  0237a	01 96 68 04 00
	00		 add	 DWORD PTR [esi+1128], edx
$LN83@gObjCalCha:

; 1114 : 				}
; 1115 : #endif
; 1116 : 			}
; 1117 : 
; 1118 : 			if(g_ZtLicense.CheckUser(eZtUB::Gredy) || g_ZtLicense.CheckUser(eZtUB::GredyLocal) || g_ZtLicense.CheckUser(eZtUB::Gredy2) ||
; 1119 : 				g_ZtLicense.CheckUser(eZtUB::ulasevich) || g_ZtLicense.CheckUser(eZtUB::ulasevich2))

  02380	6a 20		 push	 32			; 00000020H
  02382	b9 00 00 00 00	 mov	 ecx, OFFSET ?g_ZtLicense@@3VCZtLicense@@A ; g_ZtLicense
  02387	e8 00 00 00 00	 call	 ?CheckUser@CZtLicense@@QAE_NH@Z ; CZtLicense::CheckUser
  0238c	84 c0		 test	 al, al
  0238e	75 44		 jne	 SHORT $LN80@gObjCalCha
  02390	6a 21		 push	 33			; 00000021H
  02392	b9 00 00 00 00	 mov	 ecx, OFFSET ?g_ZtLicense@@3VCZtLicense@@A ; g_ZtLicense
  02397	e8 00 00 00 00	 call	 ?CheckUser@CZtLicense@@QAE_NH@Z ; CZtLicense::CheckUser
  0239c	84 c0		 test	 al, al
  0239e	75 34		 jne	 SHORT $LN80@gObjCalCha
  023a0	6a 22		 push	 34			; 00000022H
  023a2	b9 00 00 00 00	 mov	 ecx, OFFSET ?g_ZtLicense@@3VCZtLicense@@A ; g_ZtLicense
  023a7	e8 00 00 00 00	 call	 ?CheckUser@CZtLicense@@QAE_NH@Z ; CZtLicense::CheckUser
  023ac	84 c0		 test	 al, al
  023ae	75 24		 jne	 SHORT $LN80@gObjCalCha
  023b0	6a 17		 push	 23			; 00000017H
  023b2	b9 00 00 00 00	 mov	 ecx, OFFSET ?g_ZtLicense@@3VCZtLicense@@A ; g_ZtLicense
  023b7	e8 00 00 00 00	 call	 ?CheckUser@CZtLicense@@QAE_NH@Z ; CZtLicense::CheckUser
  023bc	84 c0		 test	 al, al
  023be	75 14		 jne	 SHORT $LN80@gObjCalCha
  023c0	6a 24		 push	 36			; 00000024H
  023c2	b9 00 00 00 00	 mov	 ecx, OFFSET ?g_ZtLicense@@3VCZtLicense@@A ; g_ZtLicense
  023c7	e8 00 00 00 00	 call	 ?CheckUser@CZtLicense@@QAE_NH@Z ; CZtLicense::CheckUser
  023cc	84 c0		 test	 al, al
  023ce	0f 84 48 04 00
	00		 je	 $LN74@gObjCalCha
$LN80@gObjCalCha:

; 1120 : 			{
; 1121 : 				if ( lpObj->pInventory[8].IsFenrirIncLastAttackDamage() != FALSE )	// Black Fenrir

  023d4	8b 8e 24 0e 00
	00		 mov	 ecx, DWORD PTR [esi+3620]
  023da	81 c1 a0 06 00
	00		 add	 ecx, 1696		; 000006a0H
  023e0	e8 00 00 00 00	 call	 ?IsFenrirIncLastAttackDamage@CItem@@QAEHXZ ; CItem::IsFenrirIncLastAttackDamage
  023e5	85 c0		 test	 eax, eax
  023e7	0f 84 fd 00 00
	00		 je	 $LN79@gObjCalCha

; 1122 : 				{
; 1123 : 					lpObj->m_AttackDamageMinRight += ( lpObj->m_AttackDamageMinRight * ZtConfig.Pet.BlackFenrirProcDamage ) / 100; 

  023ed	8b 0f		 mov	 ecx, DWORD PTR [edi]

; 1124 : 					lpObj->m_AttackDamageMaxRight += ( lpObj->m_AttackDamageMaxRight * ZtConfig.Pet.BlackFenrirProcDamage ) / 100; 
; 1125 : 					lpObj->m_AttackDamageMinLeft += ( lpObj->m_AttackDamageMinLeft * ZtConfig.Pet.BlackFenrirProcDamage ) / 100; 
; 1126 : 					lpObj->m_AttackDamageMaxLeft += ( lpObj->m_AttackDamageMaxLeft * ZtConfig.Pet.BlackFenrirProcDamage ) / 100; 
; 1127 : 					lpObj->m_MagicDamageMax += ( lpObj->m_MagicDamageMax * ZtConfig.Pet.BlackFenrirProcDamage ) / 100; 
; 1128 : 					lpObj->m_MagicDamageMin += ( lpObj->m_MagicDamageMin * ZtConfig.Pet.BlackFenrirProcDamage ) / 100; 
; 1129 : 					lpObj->DamageMinus += ZtConfig.Pet.BlackFenrirProcAbsurd;
; 1130 : 					lpObj->AddLife += ( lpObj->MaxLife * ZtConfig.Pet.BlackFenrirProcLife ) / 100; 

  023ef	d9 86 00 01 00
	00		 fld	 DWORD PTR [esi+256]
  023f5	8b d1		 mov	 edx, ecx
  023f7	0f af 15 e8 08
	00 00		 imul	 edx, DWORD PTR ?ZtConfig@@3VcZtConfigs@@A+2280
  023fe	b8 1f 85 eb 51	 mov	 eax, 1374389535		; 51eb851fH
  02403	f7 ea		 imul	 edx
  02405	c1 fa 05	 sar	 edx, 5
  02408	8b c2		 mov	 eax, edx
  0240a	c1 e8 1f	 shr	 eax, 31			; 0000001fH
  0240d	03 c2		 add	 eax, edx
  0240f	03 c1		 add	 eax, ecx
  02411	8b 0b		 mov	 ecx, DWORD PTR [ebx]
  02413	89 07		 mov	 DWORD PTR [edi], eax
  02415	8b d1		 mov	 edx, ecx
  02417	0f af 15 e8 08
	00 00		 imul	 edx, DWORD PTR ?ZtConfig@@3VcZtConfigs@@A+2280
  0241e	b8 1f 85 eb 51	 mov	 eax, 1374389535		; 51eb851fH
  02423	f7 ea		 imul	 edx
  02425	c1 fa 05	 sar	 edx, 5
  02428	8b c2		 mov	 eax, edx
  0242a	c1 e8 1f	 shr	 eax, 31			; 0000001fH
  0242d	03 c2		 add	 eax, edx
  0242f	03 c1		 add	 eax, ecx
  02431	8b 8e 7c 04 00
	00		 mov	 ecx, DWORD PTR [esi+1148]
  02437	89 03		 mov	 DWORD PTR [ebx], eax
  02439	8b d1		 mov	 edx, ecx
  0243b	0f af 15 e8 08
	00 00		 imul	 edx, DWORD PTR ?ZtConfig@@3VcZtConfigs@@A+2280
  02442	b8 1f 85 eb 51	 mov	 eax, 1374389535		; 51eb851fH
  02447	f7 ea		 imul	 edx
  02449	c1 fa 05	 sar	 edx, 5
  0244c	8b c2		 mov	 eax, edx
  0244e	c1 e8 1f	 shr	 eax, 31			; 0000001fH
  02451	03 c2		 add	 eax, edx
  02453	03 c1		 add	 eax, ecx
  02455	8b 8e 78 04 00
	00		 mov	 ecx, DWORD PTR [esi+1144]
  0245b	89 86 7c 04 00
	00		 mov	 DWORD PTR [esi+1148], eax
  02461	8b d1		 mov	 edx, ecx
  02463	0f af 15 e8 08
	00 00		 imul	 edx, DWORD PTR ?ZtConfig@@3VcZtConfigs@@A+2280
  0246a	b8 1f 85 eb 51	 mov	 eax, 1374389535		; 51eb851fH
  0246f	f7 ea		 imul	 edx
  02471	c1 fa 05	 sar	 edx, 5
  02474	8b c2		 mov	 eax, edx
  02476	c1 e8 1f	 shr	 eax, 31			; 0000001fH
  02479	03 c2		 add	 eax, edx
  0247b	03 c1		 add	 eax, ecx
  0247d	8b 8e 6c 04 00
	00		 mov	 ecx, DWORD PTR [esi+1132]
  02483	89 86 78 04 00
	00		 mov	 DWORD PTR [esi+1144], eax
  02489	8b d1		 mov	 edx, ecx
  0248b	0f af 15 e8 08
	00 00		 imul	 edx, DWORD PTR ?ZtConfig@@3VcZtConfigs@@A+2280
  02492	b8 1f 85 eb 51	 mov	 eax, 1374389535		; 51eb851fH
  02497	f7 ea		 imul	 edx
  02499	c1 fa 05	 sar	 edx, 5
  0249c	8b c2		 mov	 eax, edx
  0249e	c1 e8 1f	 shr	 eax, 31			; 0000001fH
  024a1	03 c2		 add	 eax, edx
  024a3	03 c1		 add	 eax, ecx
  024a5	8b 8e 68 04 00
	00		 mov	 ecx, DWORD PTR [esi+1128]
  024ab	89 86 6c 04 00
	00		 mov	 DWORD PTR [esi+1132], eax
  024b1	8b d1		 mov	 edx, ecx
  024b3	0f af 15 e8 08
	00 00		 imul	 edx, DWORD PTR ?ZtConfig@@3VcZtConfigs@@A+2280
  024ba	b8 1f 85 eb 51	 mov	 eax, 1374389535		; 51eb851fH
  024bf	f7 ea		 imul	 edx
  024c1	c1 fa 05	 sar	 edx, 5
  024c4	8b c2		 mov	 eax, edx
  024c6	c1 e8 1f	 shr	 eax, 31			; 0000001fH
  024c9	03 c2		 add	 eax, edx
  024cb	03 c1		 add	 eax, ecx
  024cd	89 86 68 04 00
	00		 mov	 DWORD PTR [esi+1128], eax
  024d3	8a 0d ec 08 00
	00		 mov	 cl, BYTE PTR ?ZtConfig@@3VcZtConfigs@@A+2284
  024d9	00 8e 70 01 00
	00		 add	 BYTE PTR [esi+368], cl
  024df	da 0d f0 08 00
	00		 fimul	 DWORD PTR ?ZtConfig@@3VcZtConfigs@@A+2288
  024e5	e9 1b 03 00 00	 jmp	 $LN570@gObjCalCha
$LN79@gObjCalCha:

; 1131 : 				}
; 1132 : 				else if ( lpObj->pInventory[8].IsFenrirDecLastAttackDamage() != FALSE )	// Blue Fenrir

  024ea	8b 8e 24 0e 00
	00		 mov	 ecx, DWORD PTR [esi+3620]
  024f0	81 c1 a0 06 00
	00		 add	 ecx, 1696		; 000006a0H
  024f6	e8 00 00 00 00	 call	 ?IsFenrirDecLastAttackDamage@CItem@@QAEHXZ ; CItem::IsFenrirDecLastAttackDamage
  024fb	85 c0		 test	 eax, eax
  024fd	0f 84 fd 00 00
	00		 je	 $LN77@gObjCalCha

; 1133 : 				{
; 1134 : 					lpObj->m_AttackDamageMinRight += ( lpObj->m_AttackDamageMinRight * ZtConfig.Pet.BlueFenrirProcDamage ) / 100; 

  02503	8b 0f		 mov	 ecx, DWORD PTR [edi]

; 1135 : 					lpObj->m_AttackDamageMaxRight += ( lpObj->m_AttackDamageMaxRight * ZtConfig.Pet.BlueFenrirProcDamage ) / 100; 
; 1136 : 					lpObj->m_AttackDamageMinLeft += ( lpObj->m_AttackDamageMinLeft * ZtConfig.Pet.BlueFenrirProcDamage ) / 100; 
; 1137 : 					lpObj->m_AttackDamageMaxLeft += ( lpObj->m_AttackDamageMaxLeft * ZtConfig.Pet.BlueFenrirProcDamage ) / 100; 
; 1138 : 					lpObj->m_MagicDamageMax += ( lpObj->m_MagicDamageMax * ZtConfig.Pet.BlueFenrirProcDamage ) / 100; 
; 1139 : 					lpObj->m_MagicDamageMin += ( lpObj->m_MagicDamageMin * ZtConfig.Pet.BlueFenrirProcDamage ) / 100; 
; 1140 : 					lpObj->DamageMinus += ZtConfig.Pet.BlueFenrirProcAbsurd;
; 1141 : 					lpObj->AddLife += ( lpObj->MaxLife * ZtConfig.Pet.BlueFenrirProcLife ) / 100; 				 

  02505	d9 86 00 01 00
	00		 fld	 DWORD PTR [esi+256]
  0250b	8b d1		 mov	 edx, ecx
  0250d	0f af 15 d8 08
	00 00		 imul	 edx, DWORD PTR ?ZtConfig@@3VcZtConfigs@@A+2264
  02514	b8 1f 85 eb 51	 mov	 eax, 1374389535		; 51eb851fH
  02519	f7 ea		 imul	 edx
  0251b	c1 fa 05	 sar	 edx, 5
  0251e	8b c2		 mov	 eax, edx
  02520	c1 e8 1f	 shr	 eax, 31			; 0000001fH
  02523	03 c2		 add	 eax, edx
  02525	03 c1		 add	 eax, ecx
  02527	8b 0b		 mov	 ecx, DWORD PTR [ebx]
  02529	89 07		 mov	 DWORD PTR [edi], eax
  0252b	8b d1		 mov	 edx, ecx
  0252d	0f af 15 d8 08
	00 00		 imul	 edx, DWORD PTR ?ZtConfig@@3VcZtConfigs@@A+2264
  02534	b8 1f 85 eb 51	 mov	 eax, 1374389535		; 51eb851fH
  02539	f7 ea		 imul	 edx
  0253b	c1 fa 05	 sar	 edx, 5
  0253e	8b c2		 mov	 eax, edx
  02540	c1 e8 1f	 shr	 eax, 31			; 0000001fH
  02543	03 c2		 add	 eax, edx
  02545	03 c1		 add	 eax, ecx
  02547	8b 8e 7c 04 00
	00		 mov	 ecx, DWORD PTR [esi+1148]
  0254d	89 03		 mov	 DWORD PTR [ebx], eax
  0254f	8b d1		 mov	 edx, ecx
  02551	0f af 15 d8 08
	00 00		 imul	 edx, DWORD PTR ?ZtConfig@@3VcZtConfigs@@A+2264
  02558	b8 1f 85 eb 51	 mov	 eax, 1374389535		; 51eb851fH
  0255d	f7 ea		 imul	 edx
  0255f	c1 fa 05	 sar	 edx, 5
  02562	8b c2		 mov	 eax, edx
  02564	c1 e8 1f	 shr	 eax, 31			; 0000001fH
  02567	03 c2		 add	 eax, edx
  02569	03 c1		 add	 eax, ecx
  0256b	8b 8e 78 04 00
	00		 mov	 ecx, DWORD PTR [esi+1144]
  02571	89 86 7c 04 00
	00		 mov	 DWORD PTR [esi+1148], eax
  02577	8b d1		 mov	 edx, ecx
  02579	0f af 15 d8 08
	00 00		 imul	 edx, DWORD PTR ?ZtConfig@@3VcZtConfigs@@A+2264
  02580	b8 1f 85 eb 51	 mov	 eax, 1374389535		; 51eb851fH
  02585	f7 ea		 imul	 edx
  02587	c1 fa 05	 sar	 edx, 5
  0258a	8b c2		 mov	 eax, edx
  0258c	c1 e8 1f	 shr	 eax, 31			; 0000001fH
  0258f	03 c2		 add	 eax, edx
  02591	03 c1		 add	 eax, ecx
  02593	8b 8e 6c 04 00
	00		 mov	 ecx, DWORD PTR [esi+1132]
  02599	89 86 78 04 00
	00		 mov	 DWORD PTR [esi+1144], eax
  0259f	8b d1		 mov	 edx, ecx
  025a1	0f af 15 d8 08
	00 00		 imul	 edx, DWORD PTR ?ZtConfig@@3VcZtConfigs@@A+2264
  025a8	b8 1f 85 eb 51	 mov	 eax, 1374389535		; 51eb851fH
  025ad	f7 ea		 imul	 edx
  025af	c1 fa 05	 sar	 edx, 5
  025b2	8b c2		 mov	 eax, edx
  025b4	c1 e8 1f	 shr	 eax, 31			; 0000001fH
  025b7	03 c2		 add	 eax, edx
  025b9	03 c1		 add	 eax, ecx
  025bb	8b 8e 68 04 00
	00		 mov	 ecx, DWORD PTR [esi+1128]
  025c1	89 86 6c 04 00
	00		 mov	 DWORD PTR [esi+1132], eax
  025c7	8b d1		 mov	 edx, ecx
  025c9	0f af 15 d8 08
	00 00		 imul	 edx, DWORD PTR ?ZtConfig@@3VcZtConfigs@@A+2264
  025d0	b8 1f 85 eb 51	 mov	 eax, 1374389535		; 51eb851fH
  025d5	f7 ea		 imul	 edx
  025d7	c1 fa 05	 sar	 edx, 5
  025da	8b c2		 mov	 eax, edx
  025dc	c1 e8 1f	 shr	 eax, 31			; 0000001fH
  025df	03 c2		 add	 eax, edx
  025e1	03 c1		 add	 eax, ecx
  025e3	89 86 68 04 00
	00		 mov	 DWORD PTR [esi+1128], eax
  025e9	8a 0d dc 08 00
	00		 mov	 cl, BYTE PTR ?ZtConfig@@3VcZtConfigs@@A+2268
  025ef	00 8e 70 01 00
	00		 add	 BYTE PTR [esi+368], cl
  025f5	da 0d e0 08 00
	00		 fimul	 DWORD PTR ?ZtConfig@@3VcZtConfigs@@A+2272
  025fb	e9 05 02 00 00	 jmp	 $LN570@gObjCalCha
$LN77@gObjCalCha:

; 1142 : 				}
; 1143 : 				else if ( lpObj->pInventory[8].IsFenrirSpecial() != FALSE )	// Illusion Fenrir

  02600	8b 8e 24 0e 00
	00		 mov	 ecx, DWORD PTR [esi+3620]
  02606	81 c1 a0 06 00
	00		 add	 ecx, 1696		; 000006a0H
  0260c	e8 00 00 00 00	 call	 ?IsFenrirSpecial@CItem@@QAEHXZ ; CItem::IsFenrirSpecial

; 1144 : 				{
; 1145 : 					lpObj->m_AttackDamageMinRight += ( lpObj->m_AttackDamageMinRight * ZtConfig.Pet.GoldFenrirProcDamage ) / 100; 

  02611	8b 0f		 mov	 ecx, DWORD PTR [edi]
  02613	85 c0		 test	 eax, eax
  02615	8b d1		 mov	 edx, ecx
  02617	b8 1f 85 eb 51	 mov	 eax, 1374389535		; 51eb851fH
  0261c	0f 84 f4 00 00
	00		 je	 $LN75@gObjCalCha
  02622	0f af 15 f8 08
	00 00		 imul	 edx, DWORD PTR ?ZtConfig@@3VcZtConfigs@@A+2296

; 1146 : 					lpObj->m_AttackDamageMaxRight += ( lpObj->m_AttackDamageMaxRight * ZtConfig.Pet.GoldFenrirProcDamage ) / 100; 
; 1147 : 					lpObj->m_AttackDamageMinLeft += ( lpObj->m_AttackDamageMinLeft * ZtConfig.Pet.GoldFenrirProcDamage ) / 100; 
; 1148 : 					lpObj->m_AttackDamageMaxLeft += ( lpObj->m_AttackDamageMaxLeft * ZtConfig.Pet.GoldFenrirProcDamage ) / 100; 
; 1149 : 					lpObj->m_MagicDamageMax += ( lpObj->m_MagicDamageMax * ZtConfig.Pet.GoldFenrirProcDamage ) / 100; 
; 1150 : 					lpObj->m_MagicDamageMin += ( lpObj->m_MagicDamageMin * ZtConfig.Pet.GoldFenrirProcDamage ) / 100; 
; 1151 : 					lpObj->DamageMinus += ZtConfig.Pet.GoldFenrirProcAbsurd;
; 1152 : 					lpObj->AddLife += ( lpObj->MaxLife * ZtConfig.Pet.GoldFenrirProcLife ) / 100; 				

  02629	d9 86 00 01 00
	00		 fld	 DWORD PTR [esi+256]
  0262f	f7 ea		 imul	 edx
  02631	c1 fa 05	 sar	 edx, 5
  02634	8b c2		 mov	 eax, edx
  02636	c1 e8 1f	 shr	 eax, 31			; 0000001fH
  02639	03 c2		 add	 eax, edx
  0263b	03 c1		 add	 eax, ecx
  0263d	8b 0b		 mov	 ecx, DWORD PTR [ebx]
  0263f	89 07		 mov	 DWORD PTR [edi], eax
  02641	8b d1		 mov	 edx, ecx
  02643	0f af 15 f8 08
	00 00		 imul	 edx, DWORD PTR ?ZtConfig@@3VcZtConfigs@@A+2296
  0264a	b8 1f 85 eb 51	 mov	 eax, 1374389535		; 51eb851fH
  0264f	f7 ea		 imul	 edx
  02651	c1 fa 05	 sar	 edx, 5
  02654	8b c2		 mov	 eax, edx
  02656	c1 e8 1f	 shr	 eax, 31			; 0000001fH
  02659	03 c2		 add	 eax, edx
  0265b	03 c1		 add	 eax, ecx
  0265d	8b 8e 7c 04 00
	00		 mov	 ecx, DWORD PTR [esi+1148]
  02663	89 03		 mov	 DWORD PTR [ebx], eax
  02665	8b d1		 mov	 edx, ecx
  02667	0f af 15 f8 08
	00 00		 imul	 edx, DWORD PTR ?ZtConfig@@3VcZtConfigs@@A+2296
  0266e	b8 1f 85 eb 51	 mov	 eax, 1374389535		; 51eb851fH
  02673	f7 ea		 imul	 edx
  02675	c1 fa 05	 sar	 edx, 5
  02678	8b c2		 mov	 eax, edx
  0267a	c1 e8 1f	 shr	 eax, 31			; 0000001fH
  0267d	03 c2		 add	 eax, edx
  0267f	03 c1		 add	 eax, ecx
  02681	8b 8e 78 04 00
	00		 mov	 ecx, DWORD PTR [esi+1144]
  02687	89 86 7c 04 00
	00		 mov	 DWORD PTR [esi+1148], eax
  0268d	8b d1		 mov	 edx, ecx
  0268f	0f af 15 f8 08
	00 00		 imul	 edx, DWORD PTR ?ZtConfig@@3VcZtConfigs@@A+2296
  02696	b8 1f 85 eb 51	 mov	 eax, 1374389535		; 51eb851fH
  0269b	f7 ea		 imul	 edx
  0269d	c1 fa 05	 sar	 edx, 5
  026a0	8b c2		 mov	 eax, edx
  026a2	c1 e8 1f	 shr	 eax, 31			; 0000001fH
  026a5	03 c2		 add	 eax, edx
  026a7	03 c1		 add	 eax, ecx
  026a9	8b 8e 6c 04 00
	00		 mov	 ecx, DWORD PTR [esi+1132]
  026af	89 86 78 04 00
	00		 mov	 DWORD PTR [esi+1144], eax
  026b5	8b d1		 mov	 edx, ecx
  026b7	0f af 15 f8 08
	00 00		 imul	 edx, DWORD PTR ?ZtConfig@@3VcZtConfigs@@A+2296
  026be	b8 1f 85 eb 51	 mov	 eax, 1374389535		; 51eb851fH
  026c3	f7 ea		 imul	 edx
  026c5	c1 fa 05	 sar	 edx, 5
  026c8	8b c2		 mov	 eax, edx
  026ca	c1 e8 1f	 shr	 eax, 31			; 0000001fH
  026cd	03 c2		 add	 eax, edx
  026cf	03 c1		 add	 eax, ecx
  026d1	8b 8e 68 04 00
	00		 mov	 ecx, DWORD PTR [esi+1128]
  026d7	89 86 6c 04 00
	00		 mov	 DWORD PTR [esi+1132], eax
  026dd	8b d1		 mov	 edx, ecx
  026df	0f af 15 f8 08
	00 00		 imul	 edx, DWORD PTR ?ZtConfig@@3VcZtConfigs@@A+2296
  026e6	b8 1f 85 eb 51	 mov	 eax, 1374389535		; 51eb851fH
  026eb	f7 ea		 imul	 edx
  026ed	c1 fa 05	 sar	 edx, 5
  026f0	8b c2		 mov	 eax, edx
  026f2	c1 e8 1f	 shr	 eax, 31			; 0000001fH
  026f5	03 c2		 add	 eax, edx
  026f7	03 c1		 add	 eax, ecx
  026f9	89 86 68 04 00
	00		 mov	 DWORD PTR [esi+1128], eax
  026ff	8a 0d fc 08 00
	00		 mov	 cl, BYTE PTR ?ZtConfig@@3VcZtConfigs@@A+2300
  02705	00 8e 70 01 00
	00		 add	 BYTE PTR [esi+368], cl
  0270b	da 0d 00 09 00
	00		 fimul	 DWORD PTR ?ZtConfig@@3VcZtConfigs@@A+2304

; 1153 : 				}
; 1154 : 				else	//red 

  02711	e9 ef 00 00 00	 jmp	 $LN570@gObjCalCha
$LN75@gObjCalCha:

; 1155 : 				{
; 1156 : 					lpObj->m_AttackDamageMinRight += ( lpObj->m_AttackDamageMinRight * ZtConfig.Pet.RedFenrirProcDamage ) / 100; 

  02716	0f af 15 c8 08
	00 00		 imul	 edx, DWORD PTR ?ZtConfig@@3VcZtConfigs@@A+2248

; 1157 : 					lpObj->m_AttackDamageMaxRight += ( lpObj->m_AttackDamageMaxRight * ZtConfig.Pet.RedFenrirProcDamage ) / 100; 
; 1158 : 					lpObj->m_AttackDamageMinLeft += ( lpObj->m_AttackDamageMinLeft * ZtConfig.Pet.RedFenrirProcDamage ) / 100; 
; 1159 : 					lpObj->m_AttackDamageMaxLeft += ( lpObj->m_AttackDamageMaxLeft * ZtConfig.Pet.RedFenrirProcDamage ) / 100; 
; 1160 : 					lpObj->m_MagicDamageMax += ( lpObj->m_MagicDamageMax * ZtConfig.Pet.RedFenrirProcDamage ) / 100; 
; 1161 : 					lpObj->m_MagicDamageMin += ( lpObj->m_MagicDamageMin * ZtConfig.Pet.RedFenrirProcDamage ) / 100; 
; 1162 : 					lpObj->DamageMinus += ZtConfig.Pet.RedFenrirProcAbsurd;
; 1163 : 					lpObj->AddLife += ( lpObj->MaxLife * ZtConfig.Pet.RedFenrirProcLife ) / 100; 

  0271d	d9 86 00 01 00
	00		 fld	 DWORD PTR [esi+256]
  02723	f7 ea		 imul	 edx
  02725	c1 fa 05	 sar	 edx, 5
  02728	8b c2		 mov	 eax, edx
  0272a	c1 e8 1f	 shr	 eax, 31			; 0000001fH
  0272d	03 c2		 add	 eax, edx
  0272f	03 c1		 add	 eax, ecx
  02731	8b 0b		 mov	 ecx, DWORD PTR [ebx]
  02733	89 07		 mov	 DWORD PTR [edi], eax
  02735	8b d1		 mov	 edx, ecx
  02737	0f af 15 c8 08
	00 00		 imul	 edx, DWORD PTR ?ZtConfig@@3VcZtConfigs@@A+2248
  0273e	b8 1f 85 eb 51	 mov	 eax, 1374389535		; 51eb851fH
  02743	f7 ea		 imul	 edx
  02745	c1 fa 05	 sar	 edx, 5
  02748	8b c2		 mov	 eax, edx
  0274a	c1 e8 1f	 shr	 eax, 31			; 0000001fH
  0274d	03 c2		 add	 eax, edx
  0274f	03 c1		 add	 eax, ecx
  02751	8b 8e 7c 04 00
	00		 mov	 ecx, DWORD PTR [esi+1148]
  02757	89 03		 mov	 DWORD PTR [ebx], eax
  02759	8b d1		 mov	 edx, ecx
  0275b	0f af 15 c8 08
	00 00		 imul	 edx, DWORD PTR ?ZtConfig@@3VcZtConfigs@@A+2248
  02762	b8 1f 85 eb 51	 mov	 eax, 1374389535		; 51eb851fH
  02767	f7 ea		 imul	 edx
  02769	c1 fa 05	 sar	 edx, 5
  0276c	8b c2		 mov	 eax, edx
  0276e	c1 e8 1f	 shr	 eax, 31			; 0000001fH
  02771	03 c2		 add	 eax, edx
  02773	03 c1		 add	 eax, ecx
  02775	8b 8e 78 04 00
	00		 mov	 ecx, DWORD PTR [esi+1144]
  0277b	89 86 7c 04 00
	00		 mov	 DWORD PTR [esi+1148], eax
  02781	8b d1		 mov	 edx, ecx
  02783	0f af 15 c8 08
	00 00		 imul	 edx, DWORD PTR ?ZtConfig@@3VcZtConfigs@@A+2248
  0278a	b8 1f 85 eb 51	 mov	 eax, 1374389535		; 51eb851fH
  0278f	f7 ea		 imul	 edx
  02791	c1 fa 05	 sar	 edx, 5
  02794	8b c2		 mov	 eax, edx
  02796	c1 e8 1f	 shr	 eax, 31			; 0000001fH
  02799	03 c2		 add	 eax, edx
  0279b	03 c1		 add	 eax, ecx
  0279d	8b 8e 6c 04 00
	00		 mov	 ecx, DWORD PTR [esi+1132]
  027a3	89 86 78 04 00
	00		 mov	 DWORD PTR [esi+1144], eax
  027a9	8b d1		 mov	 edx, ecx
  027ab	0f af 15 c8 08
	00 00		 imul	 edx, DWORD PTR ?ZtConfig@@3VcZtConfigs@@A+2248
  027b2	b8 1f 85 eb 51	 mov	 eax, 1374389535		; 51eb851fH
  027b7	f7 ea		 imul	 edx
  027b9	c1 fa 05	 sar	 edx, 5
  027bc	8b c2		 mov	 eax, edx
  027be	c1 e8 1f	 shr	 eax, 31			; 0000001fH
  027c1	03 c2		 add	 eax, edx
  027c3	03 c1		 add	 eax, ecx
  027c5	8b 8e 68 04 00
	00		 mov	 ecx, DWORD PTR [esi+1128]
  027cb	89 86 6c 04 00
	00		 mov	 DWORD PTR [esi+1132], eax
  027d1	8b d1		 mov	 edx, ecx
  027d3	0f af 15 c8 08
	00 00		 imul	 edx, DWORD PTR ?ZtConfig@@3VcZtConfigs@@A+2248
  027da	b8 1f 85 eb 51	 mov	 eax, 1374389535		; 51eb851fH
  027df	f7 ea		 imul	 edx
  027e1	c1 fa 05	 sar	 edx, 5
  027e4	8b c2		 mov	 eax, edx
  027e6	c1 e8 1f	 shr	 eax, 31			; 0000001fH
  027e9	03 c2		 add	 eax, edx
  027eb	03 c1		 add	 eax, ecx
  027ed	89 86 68 04 00
	00		 mov	 DWORD PTR [esi+1128], eax
  027f3	8a 0d cc 08 00
	00		 mov	 cl, BYTE PTR ?ZtConfig@@3VcZtConfigs@@A+2252
  027f9	00 8e 70 01 00
	00		 add	 BYTE PTR [esi+368], cl
  027ff	da 0d d0 08 00
	00		 fimul	 DWORD PTR ?ZtConfig@@3VcZtConfigs@@A+2256
$LN570@gObjCalCha:
  02805	dc 35 00 00 00
	00		 fdiv	 QWORD PTR __real@4059000000000000
  0280b	da 86 4c 01 00
	00		 fiadd	 DWORD PTR [esi+332]
  02811	e8 00 00 00 00	 call	 __ftol2_sse
  02816	89 86 4c 01 00
	00		 mov	 DWORD PTR [esi+332], eax
$LN74@gObjCalCha:

; 1164 : 				}
; 1165 : 
; 1166 : 			}
; 1167 : 		}
; 1168 : 	}
; 1169 : 	//Season 5 +15 Items
; 1170 : 	if ( (Level15Count + Level14Count + Level13Count + Level12Count + Level11Count + Level10Count) >= 5 )

  0281c	8b 85 d4 fe ff
	ff		 mov	 eax, DWORD PTR _Level15Count$[ebp]
  02822	03 85 d8 fe ff
	ff		 add	 eax, DWORD PTR _Level14Count$[ebp]
  02828	8b 8d e0 fe ff
	ff		 mov	 ecx, DWORD PTR _Level12Count$[ebp]
  0282e	03 85 e8 fe ff
	ff		 add	 eax, DWORD PTR _Level13Count$[ebp]
  02834	8b 95 ec fe ff
	ff		 mov	 edx, DWORD PTR _Level11Count$[ebp]
  0283a	03 c1		 add	 eax, ecx
  0283c	03 85 d0 fe ff
	ff		 add	 eax, DWORD PTR _Level10Count$[ebp]
  02842	03 c2		 add	 eax, edx
  02844	83 f8 05	 cmp	 eax, 5
  02847	0f 8c c8 00 00
	00		 jl	 $LN59@gObjCalCha

; 1171 : 	{
; 1172 : 		if ( Success != false )

  0284d	80 bd fb fe ff
	ff 00		 cmp	 BYTE PTR _Success$[ebp], 0
  02854	0f 84 bb 00 00
	00		 je	 $LN59@gObjCalCha

; 1173 : 		{
; 1174 : 			if ( Level15Count == 5 )

  0285a	b8 05 00 00 00	 mov	 eax, 5
  0285f	39 85 d4 fe ff
	ff		 cmp	 DWORD PTR _Level15Count$[ebp], eax
  02865	75 14		 jne	 SHORT $LN71@gObjCalCha

; 1175 : 			{
; 1176 : 				lpObj->m_Defense += lpObj->m_Defense * 30 / 100;

  02867	8b 8e 94 04 00
	00		 mov	 ecx, DWORD PTR [esi+1172]
  0286d	8b d1		 mov	 edx, ecx
  0286f	c1 e2 04	 shl	 edx, 4
  02872	2b d1		 sub	 edx, ecx
  02874	03 d2		 add	 edx, edx
  02876	e9 81 00 00 00	 jmp	 $LN571@gObjCalCha
$LN71@gObjCalCha:

; 1177 : 			}
; 1178 : 			else if ( Level14Count == 5 )

  0287b	39 85 d8 fe ff
	ff		 cmp	 DWORD PTR _Level14Count$[ebp], eax
  02881	75 0d		 jne	 SHORT $LN69@gObjCalCha

; 1179 : 			{
; 1180 : 				lpObj->m_Defense += lpObj->m_Defense * 25 / 100;

  02883	8b 8e 94 04 00
	00		 mov	 ecx, DWORD PTR [esi+1172]
  02889	8b d1		 mov	 edx, ecx
  0288b	6b d2 19	 imul	 edx, 25			; 00000019H
  0288e	eb 6c		 jmp	 SHORT $LN571@gObjCalCha
$LN69@gObjCalCha:

; 1181 : 			}
; 1182 : 			else if ( Level13Count == 5 )

  02890	8b 85 e8 fe ff
	ff		 mov	 eax, DWORD PTR _Level13Count$[ebp]
  02896	83 f8 05	 cmp	 eax, 5
  02899	75 0f		 jne	 SHORT $LN67@gObjCalCha

; 1183 : 			{
; 1184 : 				lpObj->m_Defense += lpObj->m_Defense * 20 / 100;

  0289b	8b 8e 94 04 00
	00		 mov	 ecx, DWORD PTR [esi+1172]
  028a1	8d 14 89	 lea	 edx, DWORD PTR [ecx+ecx*4]
  028a4	03 d2		 add	 edx, edx
  028a6	03 d2		 add	 edx, edx
  028a8	eb 52		 jmp	 SHORT $LN571@gObjCalCha
$LN67@gObjCalCha:

; 1185 : 			}
; 1186 : 			else if ( Level12Count == 5 || (Level12Count + Level13Count) == 5 )

  028aa	83 f9 05	 cmp	 ecx, 5
  028ad	74 40		 je	 SHORT $LN64@gObjCalCha
  028af	03 c1		 add	 eax, ecx
  028b1	83 f8 05	 cmp	 eax, 5
  028b4	74 39		 je	 SHORT $LN64@gObjCalCha

; 1189 : 			}
; 1190 : 			else if ( Level11Count == 5 || (Level11Count + Level12Count + Level13Count) == 5 )

  028b6	83 fa 05	 cmp	 edx, 5
  028b9	74 27		 je	 SHORT $LN61@gObjCalCha
  028bb	8d 0c 02	 lea	 ecx, DWORD PTR [edx+eax]
  028be	83 f9 05	 cmp	 ecx, 5
  028c1	74 1f		 je	 SHORT $LN61@gObjCalCha

; 1193 : 			}
; 1194 : 			else if ( Level10Count == 5 || (Level10Count + Level11Count + Level12Count + Level13Count) == 5)

  028c3	8b 8d d0 fe ff
	ff		 mov	 ecx, DWORD PTR _Level10Count$[ebp]
  028c9	83 f9 05	 cmp	 ecx, 5
  028cc	74 09		 je	 SHORT $LN58@gObjCalCha
  028ce	03 ca		 add	 ecx, edx
  028d0	03 c8		 add	 ecx, eax
  028d2	83 f9 05	 cmp	 ecx, 5
  028d5	75 3e		 jne	 SHORT $LN59@gObjCalCha
$LN58@gObjCalCha:

; 1195 : 			{
; 1196 : 				lpObj->m_Defense += lpObj->m_Defense * 5 / 100;

  028d7	8b 8e 94 04 00
	00		 mov	 ecx, DWORD PTR [esi+1172]
  028dd	8d 14 89	 lea	 edx, DWORD PTR [ecx+ecx*4]
  028e0	eb 1a		 jmp	 SHORT $LN571@gObjCalCha
$LN61@gObjCalCha:

; 1191 : 			{
; 1192 : 				lpObj->m_Defense += lpObj->m_Defense * 10 / 100;

  028e2	8b 8e 94 04 00
	00		 mov	 ecx, DWORD PTR [esi+1172]
  028e8	8d 14 89	 lea	 edx, DWORD PTR [ecx+ecx*4]
  028eb	03 d2		 add	 edx, edx
  028ed	eb 0d		 jmp	 SHORT $LN571@gObjCalCha
$LN64@gObjCalCha:

; 1187 : 			{
; 1188 : 				lpObj->m_Defense += lpObj->m_Defense * 15 / 100;

  028ef	8b 8e 94 04 00
	00		 mov	 ecx, DWORD PTR [esi+1172]
  028f5	8b d1		 mov	 edx, ecx
  028f7	c1 e2 04	 shl	 edx, 4
  028fa	2b d1		 sub	 edx, ecx
$LN571@gObjCalCha:
  028fc	b8 1f 85 eb 51	 mov	 eax, 1374389535		; 51eb851fH
  02901	f7 ea		 imul	 edx
  02903	c1 fa 05	 sar	 edx, 5
  02906	8b c2		 mov	 eax, edx
  02908	c1 e8 1f	 shr	 eax, 31			; 0000001fH
  0290b	03 c2		 add	 eax, edx
  0290d	03 c1		 add	 eax, ecx
  0290f	89 86 94 04 00
	00		 mov	 DWORD PTR [esi+1172], eax
$LN59@gObjCalCha:

; 1197 : 			}
; 1198 : 		}
; 1199 : 	}
; 1200 : 
; 1201 : 	lpObj->m_Defense += lpObj->m_MPSkillOpt.MpsDefence;
; 1202 : 
; 1203 : 	lpObj->m_Defense = lpObj->m_Defense * 10 / 20;

  02915	db 86 94 04 00
	00		 fild	 DWORD PTR [esi+1172]
  0291b	d8 86 34 27 00
	00		 fadd	 DWORD PTR [esi+10036]
  02921	e8 00 00 00 00	 call	 __ftol2_sse
  02926	8d 0c 80	 lea	 ecx, DWORD PTR [eax+eax*4]
  02929	03 c9		 add	 ecx, ecx
  0292b	b8 67 66 66 66	 mov	 eax, 1717986919		; 66666667H
  02930	f7 e9		 imul	 ecx

; 1204 : 
; 1205 : 	if ( lpObj->m_Change == 9 )

  02932	8b 86 54 04 00
	00		 mov	 eax, DWORD PTR [esi+1108]
  02938	c1 fa 03	 sar	 edx, 3
  0293b	8b ca		 mov	 ecx, edx
  0293d	c1 e9 1f	 shr	 ecx, 31			; 0000001fH
  02940	03 ca		 add	 ecx, edx
  02942	89 8e 94 04 00
	00		 mov	 DWORD PTR [esi+1172], ecx
  02948	83 f8 09	 cmp	 eax, 9
  0294b	0f 84 0a 01 00
	00		 je	 $LN47@gObjCalCha

; 1206 : 	{
; 1207 : 		//Empty
; 1208 : 	}
; 1209 : 	else if ( lpObj->m_Change == 41 )

  02951	83 f8 29	 cmp	 eax, 41			; 00000029H
  02954	75 2f		 jne	 SHORT $LN55@gObjCalCha

; 1210 : 	{
; 1211 : 		lpObj->AddLife = ((int)(lpObj->MaxLife * 20.0f))/100;

  02956	d9 86 00 01 00
	00		 fld	 DWORD PTR [esi+256]
  0295c	dc 0d 00 00 00
	00		 fmul	 QWORD PTR __real@4034000000000000
  02962	e8 00 00 00 00	 call	 __ftol2_sse
  02967	8b c8		 mov	 ecx, eax
  02969	b8 1f 85 eb 51	 mov	 eax, 1374389535		; 51eb851fH
  0296e	f7 e9		 imul	 ecx
  02970	c1 fa 05	 sar	 edx, 5
  02973	8b ca		 mov	 ecx, edx
  02975	c1 e9 1f	 shr	 ecx, 31			; 0000001fH
  02978	03 ca		 add	 ecx, edx
  0297a	89 8e 4c 01 00
	00		 mov	 DWORD PTR [esi+332], ecx
  02980	e9 d6 00 00 00	 jmp	 $LN47@gObjCalCha
$LN55@gObjCalCha:

; 1212 : 	}
; 1213 : 	else if ( lpObj->m_Change == 372 )

  02985	3d 74 01 00 00	 cmp	 eax, 372		; 00000174H
  0298a	75 34		 jne	 SHORT $LN53@gObjCalCha

; 1214 : 	{
; 1215 : 		lpObj->m_Defense += lpObj->m_Defense / 10;

  0298c	b8 67 66 66 66	 mov	 eax, 1717986919		; 66666667H
  02991	f7 e9		 imul	 ecx
  02993	c1 fa 02	 sar	 edx, 2
  02996	8b c2		 mov	 eax, edx
  02998	c1 e8 1f	 shr	 eax, 31			; 0000001fH
  0299b	03 c2		 add	 eax, edx

; 1216 : 		lpObj->AddLife += lpObj->Level + lpObj->MLevel;

  0299d	0f bf 96 be 00
	00 00		 movsx	 edx, WORD PTR [esi+190]
  029a4	03 c1		 add	 eax, ecx
  029a6	0f bf 8e d0 00
	00 00		 movsx	 ecx, WORD PTR [esi+208]
  029ad	03 ca		 add	 ecx, edx
  029af	01 8e 4c 01 00
	00		 add	 DWORD PTR [esi+332], ecx
  029b5	89 86 94 04 00
	00		 mov	 DWORD PTR [esi+1172], eax
  029bb	e9 9b 00 00 00	 jmp	 $LN47@gObjCalCha
$LN53@gObjCalCha:

; 1217 : 	}
; 1218 : 	else if ( lpObj->m_Change == 374 ) //Santa Girl Polymorph Ring (Season 2.5 Add-on)

  029c0	3d 76 01 00 00	 cmp	 eax, 374		; 00000176H
  029c5	75 24		 jne	 SHORT $LN51@gObjCalCha

; 1219 : 	{
; 1220 : 		lpObj->m_AttackDamageMaxLeft += 20;

  029c7	83 86 78 04 00
	00 14		 add	 DWORD PTR [esi+1144], 20 ; 00000014H

; 1221 : 		lpObj->m_AttackDamageMinLeft += 20;

  029ce	83 86 7c 04 00
	00 14		 add	 DWORD PTR [esi+1148], 20 ; 00000014H

; 1222 : 		lpObj->m_AttackDamageMaxRight += 20;

  029d5	83 03 14	 add	 DWORD PTR [ebx], 20	; 00000014H

; 1223 : 		lpObj->m_AttackDamageMinRight += 20;

  029d8	83 07 14	 add	 DWORD PTR [edi], 20	; 00000014H

; 1224 : 		lpObj->m_MagicDamageMin += 20;

  029db	83 86 68 04 00
	00 14		 add	 DWORD PTR [esi+1128], 20 ; 00000014H

; 1225 : 		lpObj->m_MagicDamageMax += 20;

  029e2	83 86 6c 04 00
	00 14		 add	 DWORD PTR [esi+1132], 20 ; 00000014H
  029e9	eb 70		 jmp	 SHORT $LN47@gObjCalCha
$LN51@gObjCalCha:

; 1226 : 	}
; 1227 : 	else if ( lpObj->m_Change == 503 ) //Panda Ring (Season 4.6 Add-on)

  029eb	3d f7 01 00 00	 cmp	 eax, 503		; 000001f7H
  029f0	75 40		 jne	 SHORT $LN49@gObjCalCha

; 1228 : 	{
; 1229 : 		//int Zt_PandaRingAttack = GetPrivateProfileInt("PandaRing","AttackDamage",30,"..\\Data\\ZtData\\Pets.ini");
; 1230 : 		//int Zt_PandaRingAttack = ZtConfig.Pet.Zt_PandaRingAttack;
; 1231 : 		lpObj->m_AttackDamageMaxLeft += ZtConfig.Pet.Zt_PandaRingAttack;

  029f2	a1 a0 08 00 00	 mov	 eax, DWORD PTR ?ZtConfig@@3VcZtConfigs@@A+2208
  029f7	01 86 78 04 00
	00		 add	 DWORD PTR [esi+1144], eax

; 1232 : 		lpObj->m_AttackDamageMinLeft += ZtConfig.Pet.Zt_PandaRingAttack;

  029fd	8b 0d a0 08 00
	00		 mov	 ecx, DWORD PTR ?ZtConfig@@3VcZtConfigs@@A+2208
  02a03	01 8e 7c 04 00
	00		 add	 DWORD PTR [esi+1148], ecx

; 1233 : 		lpObj->m_AttackDamageMaxRight += ZtConfig.Pet.Zt_PandaRingAttack;

  02a09	8b 15 a0 08 00
	00		 mov	 edx, DWORD PTR ?ZtConfig@@3VcZtConfigs@@A+2208
  02a0f	01 13		 add	 DWORD PTR [ebx], edx

; 1234 : 		lpObj->m_AttackDamageMinRight += ZtConfig.Pet.Zt_PandaRingAttack;

  02a11	a1 a0 08 00 00	 mov	 eax, DWORD PTR ?ZtConfig@@3VcZtConfigs@@A+2208
  02a16	01 07		 add	 DWORD PTR [edi], eax

; 1235 : 		lpObj->m_MagicDamageMin += ZtConfig.Pet.Zt_PandaRingAttack;

  02a18	8b 0d a0 08 00
	00		 mov	 ecx, DWORD PTR ?ZtConfig@@3VcZtConfigs@@A+2208
  02a1e	01 8e 68 04 00
	00		 add	 DWORD PTR [esi+1128], ecx

; 1236 : 		lpObj->m_MagicDamageMax += ZtConfig.Pet.Zt_PandaRingAttack;

  02a24	8b 15 a0 08 00
	00		 mov	 edx, DWORD PTR ?ZtConfig@@3VcZtConfigs@@A+2208
  02a2a	01 96 6c 04 00
	00		 add	 DWORD PTR [esi+1132], edx
  02a30	eb 29		 jmp	 SHORT $LN47@gObjCalCha
$LN49@gObjCalCha:

; 1237 : 	}
; 1238 : 	else if ( lpObj->m_Change == 548 ) //Season 5 Skeleton Ring

  02a32	3d 24 02 00 00	 cmp	 eax, 548		; 00000224H
  02a37	75 22		 jne	 SHORT $LN47@gObjCalCha

; 1239 : 	{
; 1240 : 		lpObj->m_AttackDamageMaxLeft += 40;

  02a39	83 86 78 04 00
	00 28		 add	 DWORD PTR [esi+1144], 40 ; 00000028H

; 1241 : 		lpObj->m_AttackDamageMinLeft += 40;

  02a40	83 86 7c 04 00
	00 28		 add	 DWORD PTR [esi+1148], 40 ; 00000028H

; 1242 : 		lpObj->m_AttackDamageMaxRight += 40;

  02a47	83 03 28	 add	 DWORD PTR [ebx], 40	; 00000028H

; 1243 : 		lpObj->m_AttackDamageMinRight += 40;

  02a4a	83 07 28	 add	 DWORD PTR [edi], 40	; 00000028H

; 1244 : 		lpObj->m_MagicDamageMin += 40;

  02a4d	83 86 68 04 00
	00 28		 add	 DWORD PTR [esi+1128], 40 ; 00000028H

; 1245 : 		lpObj->m_MagicDamageMax += 40;

  02a54	83 86 6c 04 00
	00 28		 add	 DWORD PTR [esi+1132], 40 ; 00000028H
$LN47@gObjCalCha:

; 1246 : 	}
; 1247 : 	if(gObjDemonSprite(lpObj) == TRUE) //CashShop Demon Pet (Season 3.5 Add-on)

  02a5b	56		 push	 esi
  02a5c	e8 00 00 00 00	 call	 ?gObjDemonSprite@@YAHPAUOBJECTSTRUCT@@@Z ; gObjDemonSprite
  02a61	83 c4 04	 add	 esp, 4
  02a64	83 f8 01	 cmp	 eax, 1
  02a67	75 11		 jne	 SHORT $LN46@gObjCalCha

; 1248 : 	{
; 1249 : 		//season4 changed (all these removed... Why? :|)
; 1250 : 		/*lpObj->m_AttackDamageMinRight += lpObj->m_AttackDamageMinRight * 40 / 100;
; 1251 : 		lpObj->m_AttackDamageMaxRight += lpObj->m_AttackDamageMaxRight * 40 / 100;
; 1252 : 
; 1253 : 		lpObj->m_AttackDamageMinLeft += lpObj->m_AttackDamageMinLeft * 40 / 100;
; 1254 : 		lpObj->m_AttackDamageMaxLeft += lpObj->m_AttackDamageMaxLeft * 40 / 100;
; 1255 : 
; 1256 : 		lpObj->m_MagicDamageMin += lpObj->m_MagicDamageMin * 40 / 100;
; 1257 : 		lpObj->m_MagicDamageMax += lpObj->m_MagicDamageMax * 40 / 100;*/
; 1258 : 
; 1259 : 		lpObj->m_AttackSpeed += 10;

  02a69	b8 0a 00 00 00	 mov	 eax, 10			; 0000000aH
  02a6e	01 86 8c 04 00
	00		 add	 DWORD PTR [esi+1164], eax

; 1260 : 		lpObj->m_MagicSpeed += 10;

  02a74	01 86 90 04 00
	00		 add	 DWORD PTR [esi+1168], eax
$LN46@gObjCalCha:

; 1261 : 	}
; 1262 : 
; 1263 : 	if(gObjSkeletonSprite(lpObj) == TRUE) //Season 5 Skeleton Pet

  02a7a	56		 push	 esi
  02a7b	e8 00 00 00 00	 call	 ?gObjSkeletonSprite@@YAHPAUOBJECTSTRUCT@@@Z ; gObjSkeletonSprite
  02a80	83 c4 04	 add	 esp, 4
  02a83	83 f8 01	 cmp	 eax, 1
  02a86	75 11		 jne	 SHORT $LN45@gObjCalCha

; 1264 : 	{
; 1265 : 		lpObj->m_AttackSpeed += 10;

  02a88	b8 0a 00 00 00	 mov	 eax, 10			; 0000000aH
  02a8d	01 86 8c 04 00
	00		 add	 DWORD PTR [esi+1164], eax

; 1266 : 		lpObj->m_MagicSpeed += 10;

  02a93	01 86 90 04 00
	00		 add	 DWORD PTR [esi+1168], eax
$LN45@gObjCalCha:

; 1267 : 	}
; 1268 : 
; 1269 : 	if(gObjSpiritGuardianSprite(lpObj) == TRUE) //CashShop Spirit Guardian Pet (Season 3.5 Add-on) Sucks like Angel

  02a99	56		 push	 esi
  02a9a	e8 00 00 00 00	 call	 ?gObjSpiritGuardianSprite@@YAHPAUOBJECTSTRUCT@@@Z ; gObjSpiritGuardianSprite
  02a9f	83 c4 04	 add	 esp, 4
  02aa2	83 f8 01	 cmp	 eax, 1
  02aa5	75 07		 jne	 SHORT $LN44@gObjCalCha

; 1270 : 	{
; 1271 : 		lpObj->AddLife += 50;

  02aa7	83 86 4c 01 00
	00 32		 add	 DWORD PTR [esi+332], 50	; 00000032H
$LN44@gObjCalCha:

; 1272 : 	}
; 1273 : 
; 1274 : 	if(gObjPandaSprite(lpObj) == TRUE) //Panda

  02aae	56		 push	 esi
  02aaf	e8 00 00 00 00	 call	 ?gObjPandaSprite@@YAHPAUOBJECTSTRUCT@@@Z ; gObjPandaSprite
  02ab4	83 c4 04	 add	 esp, 4
  02ab7	83 f8 01	 cmp	 eax, 1
  02aba	75 0b		 jne	 SHORT $LN43@gObjCalCha

; 1275 : 	{
; 1276 : 		//int Zt_PandaDef = GetPrivateProfileInt("Panda","Defense",50,"..\\Data\\ZtData\\Pets.ini");
; 1277 : 		lpObj->m_Defense += ZtConfig.Pet.Zt_PandaDef;

  02abc	a1 a4 08 00 00	 mov	 eax, DWORD PTR ?ZtConfig@@3VcZtConfigs@@A+2212
  02ac1	01 86 94 04 00
	00		 add	 DWORD PTR [esi+1172], eax
$LN43@gObjCalCha:

; 1278 : 	}
; 1279 : 
; 1280 : 	//if( gObjUnicornSprite(lpObj) == TRUE ) // Season 5 Episode 2 JPN
; 1281 : 	//{
; 1282 : 	//	lpObj->m_Defense				+= 50;
; 1283 : 	//}
; 1284 : 
; 1285 : 	if ( lpObj->pInventory[8].m_Type == ITEMGET(13,0) )

  02ac7	8b 8e 24 0e 00
	00		 mov	 ecx, DWORD PTR [esi+3620]
  02acd	ba 00 1a 00 00	 mov	 edx, 6656		; 00001a00H
  02ad2	66 39 91 a6 06
	00 00		 cmp	 WORD PTR [ecx+1702], dx
  02ad9	75 07		 jne	 SHORT $LN42@gObjCalCha

; 1286 : 	{
; 1287 : 		lpObj->AddLife += 50;

  02adb	83 86 4c 01 00
	00 32		 add	 DWORD PTR [esi+332], 50	; 00000032H
$LN42@gObjCalCha:

; 1288 : 	}
; 1289 : 
; 1290 : 	int addlife = 0;

  02ae2	33 c0		 xor	 eax, eax
  02ae4	89 85 b0 fe ff
	ff		 mov	 DWORD PTR _addlife$[ebp], eax

; 1291 : 	int addmana = 0;

  02aea	89 85 a8 fe ff
	ff		 mov	 DWORD PTR _addmana$[ebp], eax

; 1292 : 
; 1293 : 	lpObj->pInventory[7].PlusSpecial(&addlife, 100);

  02af0	8b 8e 24 0e 00
	00		 mov	 ecx, DWORD PTR [esi+3620]
  02af6	6a 64		 push	 100			; 00000064H
  02af8	8d 85 b0 fe ff
	ff		 lea	 eax, DWORD PTR _addlife$[ebp]
  02afe	50		 push	 eax
  02aff	81 c1 cc 05 00
	00		 add	 ecx, 1484		; 000005ccH
  02b05	e8 00 00 00 00	 call	 ?PlusSpecial@CItem@@QAEXPAHH@Z ; CItem::PlusSpecial

; 1294 : 	lpObj->pInventory[7].PlusSpecial(&addmana, 101);

  02b0a	6a 65		 push	 101			; 00000065H
  02b0c	8d 8d a8 fe ff
	ff		 lea	 ecx, DWORD PTR _addmana$[ebp]
  02b12	51		 push	 ecx
  02b13	8b 8e 24 0e 00
	00		 mov	 ecx, DWORD PTR [esi+3620]
  02b19	81 c1 cc 05 00
	00		 add	 ecx, 1484		; 000005ccH
  02b1f	e8 00 00 00 00	 call	 ?PlusSpecial@CItem@@QAEXPAHH@Z ; CItem::PlusSpecial

; 1295 : 
; 1296 : 	lpObj->pInventory[7].PlusSpecial(&AddLeadership, 105);

  02b24	8b 8e 24 0e 00
	00		 mov	 ecx, DWORD PTR [esi+3620]
  02b2a	6a 69		 push	 105			; 00000069H
  02b2c	8d 95 b8 fe ff
	ff		 lea	 edx, DWORD PTR _AddLeadership$[ebp]
  02b32	52		 push	 edx
  02b33	81 c1 cc 05 00
	00		 add	 ecx, 1484		; 000005ccH
  02b39	e8 00 00 00 00	 call	 ?PlusSpecial@CItem@@QAEXPAHH@Z ; CItem::PlusSpecial

; 1297 : 
; 1298 : 	lpObj->AddLeadership += AddLeadership; //season4 changed (wz fix o/)

  02b3e	66 8b 85 b8 fe
	ff ff		 mov	 ax, WORD PTR _AddLeadership$[ebp]
  02b45	66 01 86 1a 01
	00 00		 add	 WORD PTR [esi+282], ax

; 1299 : 
; 1300 : 	lpObj->AddLife += addlife;

  02b4c	8b 8d b0 fe ff
	ff		 mov	 ecx, DWORD PTR _addlife$[ebp]
  02b52	01 8e 4c 01 00
	00		 add	 DWORD PTR [esi+332], ecx

; 1301 : 	lpObj->AddMana += addmana;

  02b58	8b 95 a8 fe ff
	ff		 mov	 edx, DWORD PTR _addmana$[ebp]

; 1302 : 
; 1303 : 	if ( lpObj->pInventory[8].m_Type == ITEMGET(13,3) )

  02b5e	8b 86 24 0e 00
	00		 mov	 eax, DWORD PTR [esi+3620]
  02b64	01 96 50 01 00
	00		 add	 DWORD PTR [esi+336], edx
  02b6a	b9 03 1a 00 00	 mov	 ecx, 6659		; 00001a03H
  02b6f	66 39 88 a6 06
	00 00		 cmp	 WORD PTR [eax+1702], cx
  02b76	75 14		 jne	 SHORT $LN41@gObjCalCha

; 1304 : 	{
; 1305 : 		lpObj->pInventory[8].PlusSpecial(&lpObj->AddBP, 103 );

  02b78	6a 67		 push	 103			; 00000067H
  02b7a	8d 8e 30 01 00
	00		 lea	 ecx, DWORD PTR [esi+304]
  02b80	51		 push	 ecx
  02b81	8d 88 a0 06 00
	00		 lea	 ecx, DWORD PTR [eax+1696]
  02b87	e8 00 00 00 00	 call	 ?PlusSpecial@CItem@@QAEXPAHH@Z ; CItem::PlusSpecial
$LN41@gObjCalCha:

; 1306 : 	}
; 1307 : 
; 1308 : 	if ( lpObj->Type == OBJ_USER )

  02b8c	66 83 7e 68 01	 cmp	 WORD PTR [esi+104], 1
  02b91	75 1f		 jne	 SHORT $LN40@gObjCalCha

; 1309 : 	{
; 1310 : 		gDarkSpirit[lpObj->m_Index].Set(lpObj->m_Index, &lpObj->pInventory[1]);

  02b93	8b 96 24 0e 00
	00		 mov	 edx, DWORD PTR [esi+3620]
  02b99	8b 06		 mov	 eax, DWORD PTR [esi]
  02b9b	81 c2 d4 00 00
	00		 add	 edx, 212		; 000000d4H
  02ba1	52		 push	 edx
  02ba2	8d 0c 80	 lea	 ecx, DWORD PTR [eax+eax*4]
  02ba5	50		 push	 eax
  02ba6	8d 0c cd 00 00
	00 00		 lea	 ecx, DWORD PTR ?gDarkSpirit@@3PAVCDarkSpirit@@A[ecx*8]
  02bad	e8 00 00 00 00	 call	 ?Set@CDarkSpirit@@QAEXHPAVCItem@@@Z ; CDarkSpirit::Set
$LN40@gObjCalCha:

; 1311 : 	}
; 1312 : 
; 1313 : 	if ( gObjCheckUserPCBang(lpObj) != 0 ) //season 4.5 add-on (LanHouse Bonus)

  02bb2	56		 push	 esi
  02bb3	e8 00 00 00 00	 call	 ?gObjCheckUserPCBang@@YAHPAUOBJECTSTRUCT@@@Z ; gObjCheckUserPCBang
  02bb8	83 c4 04	 add	 esp, 4
  02bbb	85 c0		 test	 eax, eax
  02bbd	74 1e		 je	 SHORT $LN39@gObjCalCha

; 1314 : 	{
; 1315 : 		lpObj->AddLife += 40;
; 1316 : 		lpObj->AddMana += 40;
; 1317 : 		lpObj->AddBP += 20;

  02bbf	83 86 30 01 00
	00 14		 add	 DWORD PTR [esi+304], 20	; 00000014H
  02bc6	b8 28 00 00 00	 mov	 eax, 40			; 00000028H
  02bcb	01 86 4c 01 00
	00		 add	 DWORD PTR [esi+332], eax
  02bd1	01 86 50 01 00
	00		 add	 DWORD PTR [esi+336], eax

; 1318 : 		lpObj->m_Defense += 40;

  02bd7	01 86 94 04 00
	00		 add	 DWORD PTR [esi+1172], eax
$LN39@gObjCalCha:

; 1319 : 	}
; 1320 : 
; 1321 : 	lpObj->pInventory[9].PlusSpecialPercentEx(&lpObj->AddBP, lpObj->MaxBP, 173);

  02bdd	8b 86 2c 01 00
	00		 mov	 eax, DWORD PTR [esi+300]
  02be3	8b 8e 24 0e 00
	00		 mov	 ecx, DWORD PTR [esi+3620]
  02be9	68 ad 00 00 00	 push	 173			; 000000adH
  02bee	50		 push	 eax
  02bef	8d 86 30 01 00
	00		 lea	 eax, DWORD PTR [esi+304]
  02bf5	50		 push	 eax
  02bf6	81 c1 74 07 00
	00		 add	 ecx, 1908		; 00000774H
  02bfc	e8 00 00 00 00	 call	 ?PlusSpecialPercentEx@CItem@@QAEXPAHHH@Z ; CItem::PlusSpecialPercentEx

; 1322 : 	lpObj->pInventory[10].PlusSpecialPercentEx(&lpObj->AddMana, (int)lpObj->MaxMana, 172);

  02c01	d9 86 14 01 00
	00		 fld	 DWORD PTR [esi+276]
  02c07	68 ac 00 00 00	 push	 172			; 000000acH
  02c0c	e8 00 00 00 00	 call	 __ftol2_sse
  02c11	8b 8e 24 0e 00
	00		 mov	 ecx, DWORD PTR [esi+3620]
  02c17	50		 push	 eax
  02c18	8d 86 50 01 00
	00		 lea	 eax, DWORD PTR [esi+336]
  02c1e	50		 push	 eax
  02c1f	81 c1 48 08 00
	00		 add	 ecx, 2120		; 00000848H
  02c25	e8 00 00 00 00	 call	 ?PlusSpecialPercentEx@CItem@@QAEXPAHHH@Z ; CItem::PlusSpecialPercentEx

; 1323 : 	lpObj->pInventory[11].PlusSpecialPercentEx(&lpObj->AddMana, (int)lpObj->MaxMana, 172);

  02c2a	d9 86 14 01 00
	00		 fld	 DWORD PTR [esi+276]
  02c30	68 ac 00 00 00	 push	 172			; 000000acH
  02c35	e8 00 00 00 00	 call	 __ftol2_sse
  02c3a	8b 8e 24 0e 00
	00		 mov	 ecx, DWORD PTR [esi+3620]
  02c40	50		 push	 eax
  02c41	8d 86 50 01 00
	00		 lea	 eax, DWORD PTR [esi+336]
  02c47	50		 push	 eax
  02c48	81 c1 1c 09 00
	00		 add	 ecx, 2332		; 0000091cH
  02c4e	e8 00 00 00 00	 call	 ?PlusSpecialPercentEx@CItem@@QAEXPAHHH@Z ; CItem::PlusSpecialPercentEx

; 1324 : 
; 1325 : 	if(lpObj->Class == CLASS_SUMMONER) //Season 3 add-on (Summoning Book Skills Value)

  02c53	66 83 be b8 00
	00 00 05	 cmp	 WORD PTR [esi+184], 5
  02c5b	75 17		 jne	 SHORT $LN38@gObjCalCha

; 1326 : 	{
; 1327 : 		lpObj->m_iSummonerBookSpellDamageMax = lpObj->pInventory[1].BookSpellDmg(); //

  02c5d	8b 8e 24 0e 00
	00		 mov	 ecx, DWORD PTR [esi+3620]
  02c63	81 c1 d4 00 00
	00		 add	 ecx, 212		; 000000d4H
  02c69	e8 00 00 00 00	 call	 ?BookSpellDmg@CItem@@QAEHXZ ; CItem::BookSpellDmg
  02c6e	89 86 a8 04 00
	00		 mov	 DWORD PTR [esi+1192], eax
$LN38@gObjCalCha:

; 1328 : 	}
; 1329 : 
; 1330 : 	CItem * rItem[3];
; 1331 : 	int comparecount = 0;
; 1332 : 	
; 1333 : 	rItem[0] = &lpObj->pInventory[10];

  02c74	8b 86 24 0e 00
	00		 mov	 eax, DWORD PTR [esi+3620]

; 1334 : 	rItem[1] = &lpObj->pInventory[11];
; 1335 : 	rItem[2] = &lpObj->pInventory[9];
; 1336 : 
; 1337 : 	#define GET_MAX_RESISTANCE(x,y,z) ( ( ( ( (x) > (y) ) ? (x) : (y) ) > (z) ) ? ( ( (x) > (y) ) ? (x) : (y) ) : (z) )	
; 1338 : 
; 1339 : 	lpObj->m_Resistance[1] = GET_MAX_RESISTANCE(rItem[0]->m_Resistance[1], rItem[1]->m_Resistance[1], rItem[2]->m_Resistance[1]); //Poison

  02c7a	8a 88 7c 09 00
	00		 mov	 cl, BYTE PTR [eax+2428]
  02c80	8a 90 a8 08 00
	00		 mov	 dl, BYTE PTR [eax+2216]
  02c86	3a d1		 cmp	 dl, cl
  02c88	77 02		 ja	 SHORT $LN297@gObjCalCha
  02c8a	8a d1		 mov	 dl, cl
$LN297@gObjCalCha:
  02c8c	8a 88 d4 07 00
	00		 mov	 cl, BYTE PTR [eax+2004]
  02c92	3a d1		 cmp	 dl, cl
  02c94	76 1a		 jbe	 SHORT $LN300@gObjCalCha
  02c96	8a 88 7c 09 00
	00		 mov	 cl, BYTE PTR [eax+2428]
  02c9c	8a 90 a8 08 00
	00		 mov	 dl, BYTE PTR [eax+2216]
  02ca2	3a d1		 cmp	 dl, cl
  02ca4	76 0a		 jbe	 SHORT $LN300@gObjCalCha
  02ca6	8a ca		 mov	 cl, dl
  02ca8	88 95 df fe ff
	ff		 mov	 BYTE PTR tv2861[ebp], dl
  02cae	eb 06		 jmp	 SHORT $LN301@gObjCalCha
$LN300@gObjCalCha:
  02cb0	88 8d df fe ff
	ff		 mov	 BYTE PTR tv2861[ebp], cl
$LN301@gObjCalCha:
  02cb6	88 8e f9 04 00
	00		 mov	 BYTE PTR [esi+1273], cl

; 1340 : 	lpObj->m_Resistance[0] = GET_MAX_RESISTANCE(rItem[0]->m_Resistance[0], rItem[1]->m_Resistance[0], rItem[2]->m_Resistance[0]); //Cold

  02cbc	8a 88 7b 09 00
	00		 mov	 cl, BYTE PTR [eax+2427]
  02cc2	8a 90 a7 08 00
	00		 mov	 dl, BYTE PTR [eax+2215]
  02cc8	3a d1		 cmp	 dl, cl
  02cca	77 02		 ja	 SHORT $LN303@gObjCalCha
  02ccc	8a d1		 mov	 dl, cl
$LN303@gObjCalCha:
  02cce	8a 88 d3 07 00
	00		 mov	 cl, BYTE PTR [eax+2003]
  02cd4	3a d1		 cmp	 dl, cl
  02cd6	76 16		 jbe	 SHORT $LN306@gObjCalCha
  02cd8	8a 90 a7 08 00
	00		 mov	 dl, BYTE PTR [eax+2215]
  02cde	8a 88 7b 09 00
	00		 mov	 cl, BYTE PTR [eax+2427]
  02ce4	88 95 fb fe ff
	ff		 mov	 BYTE PTR tv2901[ebp], dl
  02cea	3a d1		 cmp	 dl, cl
  02cec	77 06		 ja	 SHORT $LN307@gObjCalCha
$LN306@gObjCalCha:
  02cee	88 8d fb fe ff
	ff		 mov	 BYTE PTR tv2901[ebp], cl
$LN307@gObjCalCha:
  02cf4	0f b6 8d fb fe
	ff ff		 movzx	 ecx, BYTE PTR tv2901[ebp]
  02cfb	88 8e f8 04 00
	00		 mov	 BYTE PTR [esi+1272], cl

; 1341 : 	lpObj->m_Resistance[2] = GET_MAX_RESISTANCE(rItem[0]->m_Resistance[2], rItem[1]->m_Resistance[2], rItem[2]->m_Resistance[2]); //Thunder

  02d01	8a 88 7d 09 00
	00		 mov	 cl, BYTE PTR [eax+2429]
  02d07	8a 90 a9 08 00
	00		 mov	 dl, BYTE PTR [eax+2217]
  02d0d	3a d1		 cmp	 dl, cl
  02d0f	77 02		 ja	 SHORT $LN309@gObjCalCha
  02d11	8a d1		 mov	 dl, cl
$LN309@gObjCalCha:
  02d13	8a 88 d5 07 00
	00		 mov	 cl, BYTE PTR [eax+2005]
  02d19	3a d1		 cmp	 dl, cl
  02d1b	76 1a		 jbe	 SHORT $LN312@gObjCalCha
  02d1d	8a 88 7d 09 00
	00		 mov	 cl, BYTE PTR [eax+2429]
  02d23	8a 90 a9 08 00
	00		 mov	 dl, BYTE PTR [eax+2217]
  02d29	3a d1		 cmp	 dl, cl
  02d2b	76 0a		 jbe	 SHORT $LN312@gObjCalCha
  02d2d	8a ca		 mov	 cl, dl
  02d2f	88 95 e7 fe ff
	ff		 mov	 BYTE PTR tv2941[ebp], dl
  02d35	eb 06		 jmp	 SHORT $LN313@gObjCalCha
$LN312@gObjCalCha:
  02d37	88 8d e7 fe ff
	ff		 mov	 BYTE PTR tv2941[ebp], cl
$LN313@gObjCalCha:
  02d3d	88 8e fa 04 00
	00		 mov	 BYTE PTR [esi+1274], cl

; 1342 : 	lpObj->m_Resistance[3] = GET_MAX_RESISTANCE(rItem[0]->m_Resistance[3], rItem[1]->m_Resistance[3], rItem[2]->m_Resistance[3]); //Fire

  02d43	8a 88 7e 09 00
	00		 mov	 cl, BYTE PTR [eax+2430]
  02d49	8a 90 aa 08 00
	00		 mov	 dl, BYTE PTR [eax+2218]
  02d4f	3a d1		 cmp	 dl, cl
  02d51	77 02		 ja	 SHORT $LN315@gObjCalCha
  02d53	8a d1		 mov	 dl, cl
$LN315@gObjCalCha:
  02d55	8a 88 d6 07 00
	00		 mov	 cl, BYTE PTR [eax+2006]
  02d5b	3a d1		 cmp	 dl, cl
  02d5d	76 12		 jbe	 SHORT $LN318@gObjCalCha
  02d5f	8a 88 7e 09 00
	00		 mov	 cl, BYTE PTR [eax+2430]
  02d65	8a 90 aa 08 00
	00		 mov	 dl, BYTE PTR [eax+2218]
  02d6b	3a d1		 cmp	 dl, cl
  02d6d	76 02		 jbe	 SHORT $LN318@gObjCalCha
  02d6f	8a ca		 mov	 cl, dl
$LN318@gObjCalCha:
  02d71	88 8e fb 04 00
	00		 mov	 BYTE PTR [esi+1275], cl

; 1343 : 
; 1344 : 	lpObj->m_Resistance[4] = GET_MAX_RESISTANCE(rItem[0]->m_Resistance[4], rItem[1]->m_Resistance[4], rItem[2]->m_Resistance[4]);

  02d77	8a 88 7f 09 00
	00		 mov	 cl, BYTE PTR [eax+2431]
  02d7d	8a 90 ab 08 00
	00		 mov	 dl, BYTE PTR [eax+2219]
  02d83	3a d1		 cmp	 dl, cl
  02d85	77 02		 ja	 SHORT $LN321@gObjCalCha
  02d87	8a d1		 mov	 dl, cl
$LN321@gObjCalCha:
  02d89	8a 88 d7 07 00
	00		 mov	 cl, BYTE PTR [eax+2007]
  02d8f	3a d1		 cmp	 dl, cl
  02d91	76 12		 jbe	 SHORT $LN324@gObjCalCha
  02d93	8a 88 7f 09 00
	00		 mov	 cl, BYTE PTR [eax+2431]
  02d99	8a 90 ab 08 00
	00		 mov	 dl, BYTE PTR [eax+2219]
  02d9f	3a d1		 cmp	 dl, cl
  02da1	76 02		 jbe	 SHORT $LN324@gObjCalCha
  02da3	8a ca		 mov	 cl, dl
$LN324@gObjCalCha:
  02da5	88 8e fc 04 00
	00		 mov	 BYTE PTR [esi+1276], cl

; 1345 : 	lpObj->m_Resistance[5] = GET_MAX_RESISTANCE(rItem[0]->m_Resistance[5], rItem[1]->m_Resistance[5], rItem[2]->m_Resistance[5]);

  02dab	8a 88 80 09 00
	00		 mov	 cl, BYTE PTR [eax+2432]
  02db1	8a 90 ac 08 00
	00		 mov	 dl, BYTE PTR [eax+2220]
  02db7	3a d1		 cmp	 dl, cl
  02db9	77 02		 ja	 SHORT $LN327@gObjCalCha
  02dbb	8a d1		 mov	 dl, cl
$LN327@gObjCalCha:
  02dbd	8a 88 d8 07 00
	00		 mov	 cl, BYTE PTR [eax+2008]
  02dc3	3a d1		 cmp	 dl, cl
  02dc5	76 12		 jbe	 SHORT $LN330@gObjCalCha
  02dc7	8a 88 80 09 00
	00		 mov	 cl, BYTE PTR [eax+2432]
  02dcd	8a 90 ac 08 00
	00		 mov	 dl, BYTE PTR [eax+2220]
  02dd3	3a d1		 cmp	 dl, cl
  02dd5	76 02		 jbe	 SHORT $LN330@gObjCalCha
  02dd7	8a ca		 mov	 cl, dl
$LN330@gObjCalCha:
  02dd9	88 8e fd 04 00
	00		 mov	 BYTE PTR [esi+1277], cl

; 1346 : 	lpObj->m_Resistance[6] = GET_MAX_RESISTANCE(rItem[0]->m_Resistance[6], rItem[1]->m_Resistance[6], rItem[2]->m_Resistance[6]);

  02ddf	8a 90 ad 08 00
	00		 mov	 dl, BYTE PTR [eax+2221]
  02de5	8a 88 81 09 00
	00		 mov	 cl, BYTE PTR [eax+2433]
  02deb	88 95 f7 fe ff
	ff		 mov	 BYTE PTR tv6878[ebp], dl
  02df1	3a d1		 cmp	 dl, cl
  02df3	77 02		 ja	 SHORT $LN333@gObjCalCha
  02df5	8a d1		 mov	 dl, cl
$LN333@gObjCalCha:
  02df7	8a 80 d9 07 00
	00		 mov	 al, BYTE PTR [eax+2009]
  02dfd	3a d0		 cmp	 dl, al
  02dff	76 0c		 jbe	 SHORT $LN336@gObjCalCha
  02e01	8a 85 f7 fe ff
	ff		 mov	 al, BYTE PTR tv6878[ebp]
  02e07	3a c1		 cmp	 al, cl
  02e09	77 02		 ja	 SHORT $LN336@gObjCalCha
  02e0b	8a c1		 mov	 al, cl
$LN336@gObjCalCha:

; 1347 : 
; 1348 : 	lpObj->m_Resistance[1] += lpObj->m_MPSkillOpt.MpsResistancePoison;//m_MLPassiveSkill.m_iML_ResistanceIncrease_Poison;

  02e0d	0f be 95 df fe
	ff ff		 movsx	 edx, BYTE PTR tv2861[ebp]
  02e14	89 95 f0 fe ff
	ff		 mov	 DWORD PTR tv6418[ebp], edx
  02e1a	88 86 fe 04 00
	00		 mov	 BYTE PTR [esi+1278], al
  02e20	db 85 f0 fe ff
	ff		 fild	 DWORD PTR tv6418[ebp]
  02e26	d8 86 54 26 00
	00		 fadd	 DWORD PTR [esi+9812]
  02e2c	e8 00 00 00 00	 call	 __ftol2_sse
  02e31	88 86 f9 04 00
	00		 mov	 BYTE PTR [esi+1273], al

; 1349 : 	lpObj->m_Resistance[2] += lpObj->m_MPSkillOpt.MpsResistanceThunder;//m_MLPassiveSkill.m_iML_ResistanceIncrease_Lightning;

  02e37	0f be 85 e7 fe
	ff ff		 movsx	 eax, BYTE PTR tv2941[ebp]
  02e3e	89 85 f0 fe ff
	ff		 mov	 DWORD PTR tv6412[ebp], eax
  02e44	db 85 f0 fe ff
	ff		 fild	 DWORD PTR tv6412[ebp]
  02e4a	d8 86 58 26 00
	00		 fadd	 DWORD PTR [esi+9816]
  02e50	e8 00 00 00 00	 call	 __ftol2_sse

; 1350 : 	lpObj->m_Resistance[0] += lpObj->m_MPSkillOpt.MpsResistanceIce;//m_MLPassiveSkill.m_iML_ResistanceIncrease_Ice;

  02e55	0f be 8d fb fe
	ff ff		 movsx	 ecx, BYTE PTR tv2901[ebp]
  02e5c	89 8d f0 fe ff
	ff		 mov	 DWORD PTR tv6406[ebp], ecx
  02e62	88 86 fa 04 00
	00		 mov	 BYTE PTR [esi+1274], al
  02e68	db 85 f0 fe ff
	ff		 fild	 DWORD PTR tv6406[ebp]
  02e6e	d8 86 5c 26 00
	00		 fadd	 DWORD PTR [esi+9820]
  02e74	e8 00 00 00 00	 call	 __ftol2_sse

; 1351 : 
; 1352 : 	g_kItemSystemFor380.ApplyFor380Option(lpObj);

  02e79	56		 push	 esi
  02e7a	b9 00 00 00 00	 mov	 ecx, OFFSET ?g_kItemSystemFor380@@3VCItemSystemFor380@@A ; g_kItemSystemFor380
  02e7f	88 86 f8 04 00
	00		 mov	 BYTE PTR [esi+1272], al
  02e85	e8 00 00 00 00	 call	 ?ApplyFor380Option@CItemSystemFor380@@QAEHPAUOBJECTSTRUCT@@@Z ; CItemSystemFor380::ApplyFor380Option

; 1353 : 	g_kJewelOfHarmonySystem.SetApplyStrengthenItem(lpObj);

  02e8a	56		 push	 esi
  02e8b	b9 00 00 00 00	 mov	 ecx, OFFSET ?g_kJewelOfHarmonySystem@@3VCJewelOfHarmonySystem@@A ; g_kJewelOfHarmonySystem
  02e90	e8 00 00 00 00	 call	 ?SetApplyStrengthenItem@CJewelOfHarmonySystem@@QAEXPAUOBJECTSTRUCT@@@Z ; CJewelOfHarmonySystem::SetApplyStrengthenItem

; 1354 : 	g_SocketOption.CalCharacterSocketOption(lpObj); //season4 add-on

  02e95	56		 push	 esi
  02e96	b9 00 00 00 00	 mov	 ecx, OFFSET ?g_SocketOption@@3VCSocketOption@@A ; g_SocketOption
  02e9b	e8 00 00 00 00	 call	 ?CalCharacterSocketOption@CSocketOption@@QAEEPAUOBJECTSTRUCT@@@Z ; CSocketOption::CalCharacterSocketOption

; 1355 : 
; 1356 : 	lpObj->AddLife		+= lpObj->m_MPSkillOpt.MpsMaxHP;

  02ea0	db 86 4c 01 00
	00		 fild	 DWORD PTR [esi+332]
  02ea6	d8 86 38 27 00
	00		 fadd	 DWORD PTR [esi+10040]
  02eac	e8 00 00 00 00	 call	 __ftol2_sse

; 1357 : 	lpObj->AddBP		+= lpObj->m_MPSkillOpt.MpsMaxBP;

  02eb1	db 86 30 01 00
	00		 fild	 DWORD PTR [esi+304]
  02eb7	89 86 4c 01 00
	00		 mov	 DWORD PTR [esi+332], eax
  02ebd	d8 86 3c 27 00
	00		 fadd	 DWORD PTR [esi+10044]
  02ec3	e8 00 00 00 00	 call	 __ftol2_sse

; 1358 : 	lpObj->iAddShield	+= lpObj->m_MPSkillOpt.MpsMaxSD;

  02ec8	db 86 5c 01 00
	00		 fild	 DWORD PTR [esi+348]
  02ece	89 86 30 01 00
	00		 mov	 DWORD PTR [esi+304], eax
  02ed4	d8 86 50 27 00
	00		 fadd	 DWORD PTR [esi+10064]
  02eda	e8 00 00 00 00	 call	 __ftol2_sse

; 1359 : 	lpObj->AddMana		+= lpObj->m_MPSkillOpt.MpsMaxMP;

  02edf	db 86 50 01 00
	00		 fild	 DWORD PTR [esi+336]
  02ee5	89 86 5c 01 00
	00		 mov	 DWORD PTR [esi+348], eax
  02eeb	d8 86 40 27 00
	00		 fadd	 DWORD PTR [esi+10048]
  02ef1	e8 00 00 00 00	 call	 __ftol2_sse

; 1360 : 
; 1361 : 	gObjInventoryEquipment(lpObj);

  02ef6	56		 push	 esi
  02ef7	89 86 50 01 00
	00		 mov	 DWORD PTR [esi+336], eax
  02efd	e8 00 00 00 00	 call	 ?gObjInventoryEquipment@@YAHPAUOBJECTSTRUCT@@@Z ; gObjInventoryEquipment

; 1362 : 
; 1363 : 
; 1364 : 	GObjExtItemApply(lpObj);

  02f02	56		 push	 esi
  02f03	e8 00 00 00 00	 call	 ?GObjExtItemApply@@YAXPAUOBJECTSTRUCT@@@Z ; GObjExtItemApply

; 1365 : 	gObjSetItemApply(lpObj);

  02f08	56		 push	 esi
  02f09	e8 00 00 00 00	 call	 ?gObjSetItemApply@@YAXPAUOBJECTSTRUCT@@@Z ; gObjSetItemApply

; 1366 : 	gObjNextExpCal(lpObj);

  02f0e	56		 push	 esi
  02f0f	e8 00 00 00 00	 call	 ?gObjNextExpCal@@YAXPAUOBJECTSTRUCT@@@Z ; gObjNextExpCal

; 1367 : #if(GRAND_HERO_DEV)
; 1368 : 	GrandHero.ItemOption(aIndex);

  02f14	8b 95 c4 fe ff
	ff		 mov	 edx, DWORD PTR _aIndex$GSCopy$[ebp]
  02f1a	83 c4 10	 add	 esp, 16			; 00000010H
  02f1d	52		 push	 edx
  02f1e	b9 00 00 00 00	 mov	 ecx, OFFSET ?GrandHero@@3VcGrandHero@@A ; GrandHero
  02f23	e8 00 00 00 00	 call	 ?ItemOption@cGrandHero@@QAEXH@Z ; cGrandHero::ItemOption

; 1369 : #endif
; 1370 : 
; 1371 : 	if ( (Left->m_Type >= ITEMGET(4,0) && Left->m_Type < ITEMGET(4,7) ) || Left->m_Type == ITEMGET(4,17) || Left->m_Type == ITEMGET(4,20) || Left->m_Type == ITEMGET(4,21) || Left->m_Type == ITEMGET(4,22) ||
; 1372 : 		Left->m_Type == ITEMGET(4,23)) //season4 add-on

  02f28	8b 85 cc fe ff
	ff		 mov	 eax, DWORD PTR _Left$[ebp]
  02f2e	0f b7 40 06	 movzx	 eax, WORD PTR [eax+6]
  02f32	b9 00 08 00 00	 mov	 ecx, 2048		; 00000800H
  02f37	66 3b c1	 cmp	 ax, cx
  02f3a	7c 0e		 jl	 SHORT $LN445@gObjCalCha
  02f3c	ba 07 08 00 00	 mov	 edx, 2055		; 00000807H
  02f41	66 3b c2	 cmp	 ax, dx
  02f44	0f 8c a4 02 00
	00		 jl	 $LN36@gObjCalCha
$LN445@gObjCalCha:
  02f4a	b9 11 08 00 00	 mov	 ecx, 2065		; 00000811H
  02f4f	66 3b c1	 cmp	 ax, cx
  02f52	0f 84 96 02 00
	00		 je	 $LN36@gObjCalCha
  02f58	ba 14 08 00 00	 mov	 edx, 2068		; 00000814H
  02f5d	66 3b c2	 cmp	 ax, dx
  02f60	0f 84 88 02 00
	00		 je	 $LN36@gObjCalCha
  02f66	b9 15 08 00 00	 mov	 ecx, 2069		; 00000815H
  02f6b	66 3b c1	 cmp	 ax, cx
  02f6e	0f 84 7a 02 00
	00		 je	 $LN36@gObjCalCha
  02f74	ba 16 08 00 00	 mov	 edx, 2070		; 00000816H
  02f79	66 3b c2	 cmp	 ax, dx
  02f7c	0f 84 6c 02 00
	00		 je	 $LN36@gObjCalCha
  02f82	b9 17 08 00 00	 mov	 ecx, 2071		; 00000817H
  02f87	66 3b c1	 cmp	 ax, cx
  02f8a	0f 84 5e 02 00
	00		 je	 $LN36@gObjCalCha

; 1388 : 		}
; 1389 : 	}
; 1390 : 	else if ( (Right->m_Type >= ITEMGET(4,8) && Right->m_Type < ITEMGET(4,15) ) || (Right->m_Type >= ITEMGET(4,16) && Right->m_Type < ITEMGET(5,0)) )

  02f90	8b 95 c8 fe ff
	ff		 mov	 edx, DWORD PTR _Right$[ebp]
  02f96	0f b7 4a 06	 movzx	 ecx, WORD PTR [edx+6]
  02f9a	ba 08 08 00 00	 mov	 edx, 2056		; 00000808H
  02f9f	66 3b ca	 cmp	 cx, dx
  02fa2	7c 0a		 jl	 SHORT $LN26@gObjCalCha
  02fa4	ba 0f 08 00 00	 mov	 edx, 2063		; 0000080fH
  02fa9	66 3b ca	 cmp	 cx, dx
  02fac	7c 1c		 jl	 SHORT $LN27@gObjCalCha
$LN26@gObjCalCha:
  02fae	ba 10 08 00 00	 mov	 edx, 2064		; 00000810H
  02fb3	66 3b ca	 cmp	 cx, dx
  02fb6	0f 8c 69 04 00
	00		 jl	 $LN448@gObjCalCha
  02fbc	ba 00 0a 00 00	 mov	 edx, 2560		; 00000a00H
  02fc1	66 3b ca	 cmp	 cx, dx
  02fc4	0f 8d 5b 04 00
	00		 jge	 $LN448@gObjCalCha
$LN27@gObjCalCha:

; 1391 : 	{
; 1392 : 		if ( Left->m_Type == ITEMGET(4,7) && Left->m_Level == 1 )

  02fca	b9 07 08 00 00	 mov	 ecx, 2055		; 00000807H
  02fcf	66 3b c1	 cmp	 ax, cx
  02fd2	0f 85 4d 04 00
	00		 jne	 $LN448@gObjCalCha
  02fd8	8b 95 cc fe ff
	ff		 mov	 edx, DWORD PTR _Left$[ebp]
  02fde	66 83 7a 08 01	 cmp	 WORD PTR [edx+8], 1
  02fe3	0f 85 9b 00 00
	00		 jne	 $LN446@gObjCalCha

; 1393 : 		{
; 1394 : 				lpObj->m_AttackDamageMinRight += (WORD)(lpObj->m_AttackDamageMinRight * 0.03f + 1.0f);

  02fe9	8b 0f		 mov	 ecx, DWORD PTR [edi]
  02feb	d9 bd f6 fe ff
	ff		 fnstcw	 WORD PTR tv6375[ebp]
  02ff1	0f b7 85 f6 fe
	ff ff		 movzx	 eax, WORD PTR tv6375[ebp]
  02ff8	89 8d ec fe ff
	ff		 mov	 DWORD PTR tv5810[ebp], ecx
  02ffe	0d 00 0c 00 00	 or	 eax, 3072		; 00000c00H
  03003	89 85 f0 fe ff
	ff		 mov	 DWORD PTR tv6372[ebp], eax
  03009	db 85 ec fe ff
	ff		 fild	 DWORD PTR tv5810[ebp]
  0300f	dd 05 00 00 00
	00		 fld	 QWORD PTR __real@3f9eb851e0000000
  03015	dc c9		 fmul	 ST(1), ST(0)
  03017	d9 e8		 fld1
  03019	dc c2		 fadd	 ST(2), ST(0)
  0301b	d9 ad f0 fe ff
	ff		 fldcw	 WORD PTR tv6372[ebp]
  03021	d9 ca		 fxch	 ST(2)
  03023	db 9d f0 fe ff
	ff		 fistp	 DWORD PTR tv6370[ebp]
  03029	0f b7 95 f0 fe
	ff ff		 movzx	 edx, WORD PTR tv6370[ebp]
  03030	03 d1		 add	 edx, ecx

; 1395 : 				lpObj->m_AttackDamageMaxRight += (WORD)(lpObj->m_AttackDamageMaxRight * 0.03f + 1.0f);

  03032	8b 0b		 mov	 ecx, DWORD PTR [ebx]
  03034	d9 ad f6 fe ff
	ff		 fldcw	 WORD PTR tv6375[ebp]
  0303a	89 8d ec fe ff
	ff		 mov	 DWORD PTR tv5816[ebp], ecx
  03040	89 17		 mov	 DWORD PTR [edi], edx
  03042	da 8d ec fe ff
	ff		 fimul	 DWORD PTR tv5816[ebp]
  03048	d9 bd f6 fe ff
	ff		 fnstcw	 WORD PTR tv6367[ebp]
  0304e	0f b7 85 f6 fe
	ff ff		 movzx	 eax, WORD PTR tv6367[ebp]
  03055	0d 00 0c 00 00	 or	 eax, 3072		; 00000c00H
  0305a	89 85 f0 fe ff
	ff		 mov	 DWORD PTR tv6364[ebp], eax
  03060	de c1		 faddp	 ST(1), ST(0)
  03062	d9 ad f0 fe ff
	ff		 fldcw	 WORD PTR tv6364[ebp]
  03068	db 9d f0 fe ff
	ff		 fistp	 DWORD PTR tv6362[ebp]
  0306e	0f b7 95 f0 fe
	ff ff		 movzx	 edx, WORD PTR tv6362[ebp]
  03075	03 d1		 add	 edx, ecx
  03077	89 13		 mov	 DWORD PTR [ebx], edx
  03079	d9 ad f6 fe ff
	ff		 fldcw	 WORD PTR tv6367[ebp]
  0307f	e9 a1 03 00 00	 jmp	 $LN448@gObjCalCha
$LN446@gObjCalCha:

; 1396 : 		}
; 1397 : 		else if ( Left->m_Type == ITEMGET(4,7) && Left->m_Level == 2 )

  03084	66 3b c1	 cmp	 ax, cx
  03087	0f 85 98 03 00
	00		 jne	 $LN448@gObjCalCha
  0308d	8b 95 cc fe ff
	ff		 mov	 edx, DWORD PTR _Left$[ebp]
  03093	66 83 7a 08 02	 cmp	 WORD PTR [edx+8], 2
  03098	0f 85 9b 00 00
	00		 jne	 $LN465@gObjCalCha

; 1398 : 		{
; 1399 : 				lpObj->m_AttackDamageMinRight += (WORD)(lpObj->m_AttackDamageMinRight * 0.05f + 1.0f);

  0309e	8b 0f		 mov	 ecx, DWORD PTR [edi]
  030a0	d9 bd f6 fe ff
	ff		 fnstcw	 WORD PTR tv6359[ebp]
  030a6	0f b7 85 f6 fe
	ff ff		 movzx	 eax, WORD PTR tv6359[ebp]
  030ad	89 8d ec fe ff
	ff		 mov	 DWORD PTR tv5810[ebp], ecx
  030b3	0d 00 0c 00 00	 or	 eax, 3072		; 00000c00H
  030b8	89 85 f0 fe ff
	ff		 mov	 DWORD PTR tv6356[ebp], eax
  030be	db 85 ec fe ff
	ff		 fild	 DWORD PTR tv5810[ebp]
  030c4	dd 05 00 00 00
	00		 fld	 QWORD PTR __real@3fa99999a0000000
  030ca	dc c9		 fmul	 ST(1), ST(0)
  030cc	d9 e8		 fld1
  030ce	dc c2		 fadd	 ST(2), ST(0)
  030d0	d9 ad f0 fe ff
	ff		 fldcw	 WORD PTR tv6356[ebp]
  030d6	d9 ca		 fxch	 ST(2)
  030d8	db 9d f0 fe ff
	ff		 fistp	 DWORD PTR tv6354[ebp]
  030de	0f b7 95 f0 fe
	ff ff		 movzx	 edx, WORD PTR tv6354[ebp]
  030e5	03 d1		 add	 edx, ecx

; 1400 : 				lpObj->m_AttackDamageMaxRight += (WORD)(lpObj->m_AttackDamageMaxRight * 0.05f + 1.0f);

  030e7	8b 0b		 mov	 ecx, DWORD PTR [ebx]
  030e9	d9 ad f6 fe ff
	ff		 fldcw	 WORD PTR tv6359[ebp]
  030ef	89 8d ec fe ff
	ff		 mov	 DWORD PTR tv5816[ebp], ecx
  030f5	89 17		 mov	 DWORD PTR [edi], edx
  030f7	da 8d ec fe ff
	ff		 fimul	 DWORD PTR tv5816[ebp]
  030fd	d9 bd f6 fe ff
	ff		 fnstcw	 WORD PTR tv6351[ebp]
  03103	0f b7 85 f6 fe
	ff ff		 movzx	 eax, WORD PTR tv6351[ebp]
  0310a	0d 00 0c 00 00	 or	 eax, 3072		; 00000c00H
  0310f	89 85 f0 fe ff
	ff		 mov	 DWORD PTR tv6348[ebp], eax
  03115	de c1		 faddp	 ST(1), ST(0)
  03117	d9 ad f0 fe ff
	ff		 fldcw	 WORD PTR tv6348[ebp]
  0311d	db 9d f0 fe ff
	ff		 fistp	 DWORD PTR tv6346[ebp]
  03123	0f b7 95 f0 fe
	ff ff		 movzx	 edx, WORD PTR tv6346[ebp]
  0312a	03 d1		 add	 edx, ecx
  0312c	89 13		 mov	 DWORD PTR [ebx], edx
  0312e	d9 ad f6 fe ff
	ff		 fldcw	 WORD PTR tv6351[ebp]
  03134	e9 ec 02 00 00	 jmp	 $LN448@gObjCalCha
$LN465@gObjCalCha:

; 1401 : 		}
; 1402 : 		else if ( Left->m_Type == ITEMGET(4,7) && Left->m_Level == 3 ) //season4 add-on

  03139	66 3b c1	 cmp	 ax, cx
  0313c	0f 85 e3 02 00
	00		 jne	 $LN448@gObjCalCha
  03142	8b 95 cc fe ff
	ff		 mov	 edx, DWORD PTR _Left$[ebp]
  03148	66 83 7a 08 03	 cmp	 WORD PTR [edx+8], 3
  0314d	0f 85 d2 02 00
	00		 jne	 $LN448@gObjCalCha

; 1403 : 		{
; 1404 : 				lpObj->m_AttackDamageMinRight += (WORD)(lpObj->m_AttackDamageMinRight * 0.07f + 1.0f);

  03153	8b 0f		 mov	 ecx, DWORD PTR [edi]
  03155	d9 bd f6 fe ff
	ff		 fnstcw	 WORD PTR tv6343[ebp]
  0315b	0f b7 85 f6 fe
	ff ff		 movzx	 eax, WORD PTR tv6343[ebp]
  03162	89 8d ec fe ff
	ff		 mov	 DWORD PTR tv5810[ebp], ecx
  03168	0d 00 0c 00 00	 or	 eax, 3072		; 00000c00H
  0316d	89 85 f0 fe ff
	ff		 mov	 DWORD PTR tv6340[ebp], eax
  03173	db 85 ec fe ff
	ff		 fild	 DWORD PTR tv5810[ebp]
  03179	dd 05 00 00 00
	00		 fld	 QWORD PTR __real@3fb1eb8520000000
  0317f	dc c9		 fmul	 ST(1), ST(0)
  03181	d9 e8		 fld1
  03183	dc c2		 fadd	 ST(2), ST(0)
  03185	d9 ad f0 fe ff
	ff		 fldcw	 WORD PTR tv6340[ebp]
  0318b	d9 ca		 fxch	 ST(2)
  0318d	db 9d f0 fe ff
	ff		 fistp	 DWORD PTR tv6338[ebp]
  03193	0f b7 95 f0 fe
	ff ff		 movzx	 edx, WORD PTR tv6338[ebp]
  0319a	03 d1		 add	 edx, ecx

; 1405 : 				lpObj->m_AttackDamageMaxRight += (WORD)(lpObj->m_AttackDamageMaxRight * 0.07f + 1.0f);

  0319c	8b 0b		 mov	 ecx, DWORD PTR [ebx]
  0319e	d9 ad f6 fe ff
	ff		 fldcw	 WORD PTR tv6343[ebp]
  031a4	89 8d ec fe ff
	ff		 mov	 DWORD PTR tv5816[ebp], ecx
  031aa	89 17		 mov	 DWORD PTR [edi], edx
  031ac	da 8d ec fe ff
	ff		 fimul	 DWORD PTR tv5816[ebp]
  031b2	d9 bd f6 fe ff
	ff		 fnstcw	 WORD PTR tv6335[ebp]
  031b8	0f b7 85 f6 fe
	ff ff		 movzx	 eax, WORD PTR tv6335[ebp]
  031bf	0d 00 0c 00 00	 or	 eax, 3072		; 00000c00H
  031c4	89 85 f0 fe ff
	ff		 mov	 DWORD PTR tv6332[ebp], eax
  031ca	de c1		 faddp	 ST(1), ST(0)
  031cc	d9 ad f0 fe ff
	ff		 fldcw	 WORD PTR tv6332[ebp]
  031d2	db 9d f0 fe ff
	ff		 fistp	 DWORD PTR tv6330[ebp]
  031d8	0f b7 95 f0 fe
	ff ff		 movzx	 edx, WORD PTR tv6330[ebp]
  031df	03 d1		 add	 edx, ecx
  031e1	89 13		 mov	 DWORD PTR [ebx], edx
  031e3	d9 ad f6 fe ff
	ff		 fldcw	 WORD PTR tv6335[ebp]
  031e9	e9 37 02 00 00	 jmp	 $LN448@gObjCalCha
$LN36@gObjCalCha:

; 1373 : 	{
; 1374 : 		if ( Right->m_Type == ITEMGET(4,15) && Right->m_Level == 1 )

  031ee	8b 8d c8 fe ff
	ff		 mov	 ecx, DWORD PTR _Right$[ebp]
  031f4	0f b7 41 06	 movzx	 eax, WORD PTR [ecx+6]
  031f8	ba 0f 08 00 00	 mov	 edx, 2063		; 0000080fH
  031fd	66 3b c2	 cmp	 ax, dx
  03200	0f 85 1f 02 00
	00		 jne	 $LN448@gObjCalCha
  03206	66 83 79 08 01	 cmp	 WORD PTR [ecx+8], 1
  0320b	0f 85 a3 00 00
	00		 jne	 $LN447@gObjCalCha

; 1375 : 		{
; 1376 : 			lpObj->m_AttackDamageMinLeft += (WORD)(lpObj->m_AttackDamageMinLeft * 0.03f + 1.0f);

  03211	8b 8e 7c 04 00
	00		 mov	 ecx, DWORD PTR [esi+1148]
  03217	d9 bd f6 fe ff
	ff		 fnstcw	 WORD PTR tv6327[ebp]
  0321d	0f b7 85 f6 fe
	ff ff		 movzx	 eax, WORD PTR tv6327[ebp]
  03224	89 8d ec fe ff
	ff		 mov	 DWORD PTR tv5813[ebp], ecx
  0322a	0d 00 0c 00 00	 or	 eax, 3072		; 00000c00H
  0322f	89 85 f0 fe ff
	ff		 mov	 DWORD PTR tv6324[ebp], eax
  03235	db 85 ec fe ff
	ff		 fild	 DWORD PTR tv5813[ebp]
  0323b	dd 05 00 00 00
	00		 fld	 QWORD PTR __real@3f9eb851e0000000
  03241	dc c9		 fmul	 ST(1), ST(0)
  03243	d9 e8		 fld1
  03245	dc c2		 fadd	 ST(2), ST(0)
  03247	d9 ad f0 fe ff
	ff		 fldcw	 WORD PTR tv6324[ebp]
  0324d	d9 ca		 fxch	 ST(2)
  0324f	db 9d f0 fe ff
	ff		 fistp	 DWORD PTR tv6322[ebp]
  03255	0f b7 95 f0 fe
	ff ff		 movzx	 edx, WORD PTR tv6322[ebp]
  0325c	03 d1		 add	 edx, ecx

; 1377 : 			lpObj->m_AttackDamageMaxLeft += (WORD)(lpObj->m_AttackDamageMaxLeft * 0.03f + 1.0f);

  0325e	8b 8e 78 04 00
	00		 mov	 ecx, DWORD PTR [esi+1144]
  03264	d9 ad f6 fe ff
	ff		 fldcw	 WORD PTR tv6327[ebp]
  0326a	89 8d ec fe ff
	ff		 mov	 DWORD PTR tv5819[ebp], ecx
  03270	89 96 7c 04 00
	00		 mov	 DWORD PTR [esi+1148], edx
  03276	da 8d ec fe ff
	ff		 fimul	 DWORD PTR tv5819[ebp]
  0327c	d9 bd f6 fe ff
	ff		 fnstcw	 WORD PTR tv6319[ebp]
  03282	0f b7 85 f6 fe
	ff ff		 movzx	 eax, WORD PTR tv6319[ebp]
  03289	0d 00 0c 00 00	 or	 eax, 3072		; 00000c00H
  0328e	89 85 f0 fe ff
	ff		 mov	 DWORD PTR tv6316[ebp], eax
  03294	de c1		 faddp	 ST(1), ST(0)
  03296	d9 ad f0 fe ff
	ff		 fldcw	 WORD PTR tv6316[ebp]
  0329c	db 9d f0 fe ff
	ff		 fistp	 DWORD PTR tv6314[ebp]
  032a2	0f b7 95 f0 fe
	ff ff		 movzx	 edx, WORD PTR tv6314[ebp]
  032a9	d9 ad f6 fe ff
	ff		 fldcw	 WORD PTR tv6319[ebp]
  032af	e9 69 01 00 00	 jmp	 $LN576@gObjCalCha
$LN447@gObjCalCha:

; 1378 : 		}
; 1379 : 		else if ( Right->m_Type == ITEMGET(4,15) && Right->m_Level == 2 )

  032b4	66 3b c2	 cmp	 ax, dx
  032b7	0f 85 68 01 00
	00		 jne	 $LN448@gObjCalCha
  032bd	66 83 79 08 02	 cmp	 WORD PTR [ecx+8], 2
  032c2	0f 85 a3 00 00
	00		 jne	 $LN32@gObjCalCha

; 1380 : 		{
; 1381 : 			lpObj->m_AttackDamageMinLeft += (WORD)(lpObj->m_AttackDamageMinLeft * 0.05f + 1.0f);

  032c8	8b 8e 7c 04 00
	00		 mov	 ecx, DWORD PTR [esi+1148]
  032ce	d9 bd f6 fe ff
	ff		 fnstcw	 WORD PTR tv6311[ebp]
  032d4	0f b7 85 f6 fe
	ff ff		 movzx	 eax, WORD PTR tv6311[ebp]
  032db	89 8d ec fe ff
	ff		 mov	 DWORD PTR tv5813[ebp], ecx
  032e1	0d 00 0c 00 00	 or	 eax, 3072		; 00000c00H
  032e6	89 85 f0 fe ff
	ff		 mov	 DWORD PTR tv6308[ebp], eax
  032ec	db 85 ec fe ff
	ff		 fild	 DWORD PTR tv5813[ebp]
  032f2	dd 05 00 00 00
	00		 fld	 QWORD PTR __real@3fa99999a0000000
  032f8	dc c9		 fmul	 ST(1), ST(0)
  032fa	d9 e8		 fld1
  032fc	dc c2		 fadd	 ST(2), ST(0)
  032fe	d9 ad f0 fe ff
	ff		 fldcw	 WORD PTR tv6308[ebp]
  03304	d9 ca		 fxch	 ST(2)
  03306	db 9d f0 fe ff
	ff		 fistp	 DWORD PTR tv6306[ebp]
  0330c	0f b7 95 f0 fe
	ff ff		 movzx	 edx, WORD PTR tv6306[ebp]
  03313	03 d1		 add	 edx, ecx

; 1382 : 			lpObj->m_AttackDamageMaxLeft += (WORD)(lpObj->m_AttackDamageMaxLeft * 0.05f + 1.0f);

  03315	8b 8e 78 04 00
	00		 mov	 ecx, DWORD PTR [esi+1144]
  0331b	d9 ad f6 fe ff
	ff		 fldcw	 WORD PTR tv6311[ebp]
  03321	89 8d ec fe ff
	ff		 mov	 DWORD PTR tv5819[ebp], ecx
  03327	89 96 7c 04 00
	00		 mov	 DWORD PTR [esi+1148], edx
  0332d	da 8d ec fe ff
	ff		 fimul	 DWORD PTR tv5819[ebp]
  03333	d9 bd f6 fe ff
	ff		 fnstcw	 WORD PTR tv6303[ebp]
  03339	0f b7 85 f6 fe
	ff ff		 movzx	 eax, WORD PTR tv6303[ebp]
  03340	0d 00 0c 00 00	 or	 eax, 3072		; 00000c00H
  03345	89 85 f0 fe ff
	ff		 mov	 DWORD PTR tv6300[ebp], eax
  0334b	de c1		 faddp	 ST(1), ST(0)
  0334d	d9 ad f0 fe ff
	ff		 fldcw	 WORD PTR tv6300[ebp]
  03353	db 9d f0 fe ff
	ff		 fistp	 DWORD PTR tv6298[ebp]
  03359	0f b7 95 f0 fe
	ff ff		 movzx	 edx, WORD PTR tv6298[ebp]
  03360	d9 ad f6 fe ff
	ff		 fldcw	 WORD PTR tv6303[ebp]
  03366	e9 b2 00 00 00	 jmp	 $LN576@gObjCalCha
$LN32@gObjCalCha:

; 1383 : 		}
; 1384 : 		else if ( Right->m_Type == ITEMGET(4,15) && Right->m_Level == 3 ) //season4 add-on

  0336b	66 3b c2	 cmp	 ax, dx
  0336e	0f 85 b1 00 00
	00		 jne	 $LN448@gObjCalCha
  03374	66 83 79 08 03	 cmp	 WORD PTR [ecx+8], 3
  03379	0f 85 a6 00 00
	00		 jne	 $LN448@gObjCalCha

; 1385 : 		{
; 1386 : 			lpObj->m_AttackDamageMinLeft += (WORD)(lpObj->m_AttackDamageMinLeft * 0.07f + 1.0f);

  0337f	8b 8e 7c 04 00
	00		 mov	 ecx, DWORD PTR [esi+1148]
  03385	d9 bd f6 fe ff
	ff		 fnstcw	 WORD PTR tv6295[ebp]
  0338b	0f b7 85 f6 fe
	ff ff		 movzx	 eax, WORD PTR tv6295[ebp]
  03392	89 8d ec fe ff
	ff		 mov	 DWORD PTR tv5813[ebp], ecx
  03398	0d 00 0c 00 00	 or	 eax, 3072		; 00000c00H
  0339d	89 85 f0 fe ff
	ff		 mov	 DWORD PTR tv6292[ebp], eax
  033a3	db 85 ec fe ff
	ff		 fild	 DWORD PTR tv5813[ebp]
  033a9	dd 05 00 00 00
	00		 fld	 QWORD PTR __real@3fb1eb8520000000
  033af	dc c9		 fmul	 ST(1), ST(0)
  033b1	d9 e8		 fld1
  033b3	dc c2		 fadd	 ST(2), ST(0)
  033b5	d9 ad f0 fe ff
	ff		 fldcw	 WORD PTR tv6292[ebp]
  033bb	d9 ca		 fxch	 ST(2)
  033bd	db 9d f0 fe ff
	ff		 fistp	 DWORD PTR tv6290[ebp]
  033c3	0f b7 95 f0 fe
	ff ff		 movzx	 edx, WORD PTR tv6290[ebp]
  033ca	03 d1		 add	 edx, ecx

; 1387 : 			lpObj->m_AttackDamageMaxLeft += (WORD)(lpObj->m_AttackDamageMaxLeft * 0.07f + 1.0f);

  033cc	8b 8e 78 04 00
	00		 mov	 ecx, DWORD PTR [esi+1144]
  033d2	d9 ad f6 fe ff
	ff		 fldcw	 WORD PTR tv6295[ebp]
  033d8	89 8d ec fe ff
	ff		 mov	 DWORD PTR tv5819[ebp], ecx
  033de	89 96 7c 04 00
	00		 mov	 DWORD PTR [esi+1148], edx
  033e4	da 8d ec fe ff
	ff		 fimul	 DWORD PTR tv5819[ebp]
  033ea	d9 bd f6 fe ff
	ff		 fnstcw	 WORD PTR tv6287[ebp]
  033f0	0f b7 85 f6 fe
	ff ff		 movzx	 eax, WORD PTR tv6287[ebp]
  033f7	0d 00 0c 00 00	 or	 eax, 3072		; 00000c00H
  033fc	89 85 f0 fe ff
	ff		 mov	 DWORD PTR tv6284[ebp], eax
  03402	de c1		 faddp	 ST(1), ST(0)
  03404	d9 ad f0 fe ff
	ff		 fldcw	 WORD PTR tv6284[ebp]
  0340a	db 9d f0 fe ff
	ff		 fistp	 DWORD PTR tv6282[ebp]
  03410	0f b7 95 f0 fe
	ff ff		 movzx	 edx, WORD PTR tv6282[ebp]
  03417	d9 ad f6 fe ff
	ff		 fldcw	 WORD PTR tv6287[ebp]
$LN576@gObjCalCha:
  0341d	03 d1		 add	 edx, ecx
  0341f	89 96 78 04 00
	00		 mov	 DWORD PTR [esi+1144], edx
$LN448@gObjCalCha:

; 1406 : 		}
; 1407 : 	}
; 1408 : 
; 1409 : 	if ( lpObj->Class == CLASS_KNIGHT || lpObj->Class == CLASS_MAGUMSA || lpObj->Class == CLASS_DARKLORD  )

  03425	0f b7 86 b8 00
	00 00		 movzx	 eax, WORD PTR [esi+184]
  0342c	83 f8 01	 cmp	 eax, 1
  0342f	74 0e		 je	 SHORT $LN19@gObjCalCha
  03431	83 f8 03	 cmp	 eax, 3
  03434	74 09		 je	 SHORT $LN19@gObjCalCha
  03436	83 f8 04	 cmp	 eax, 4
  03439	0f 85 bb 00 00
	00		 jne	 $LN452@gObjCalCha
$LN19@gObjCalCha:

; 1410 : 	{
; 1411 : 		if ( Right->m_Type != -1 && Left->m_Type != -1 )

  0343f	8b 85 c8 fe ff
	ff		 mov	 eax, DWORD PTR _Right$[ebp]
  03445	0f b7 40 06	 movzx	 eax, WORD PTR [eax+6]
  03449	66 83 f8 ff	 cmp	 ax, -1
  0344d	0f 84 a7 00 00
	00		 je	 $LN452@gObjCalCha
  03453	8b 8d cc fe ff
	ff		 mov	 ecx, DWORD PTR _Left$[ebp]
  03459	0f b7 51 06	 movzx	 edx, WORD PTR [ecx+6]
  0345d	66 83 fa ff	 cmp	 dx, -1
  03461	0f 84 93 00 00
	00		 je	 $LN452@gObjCalCha

; 1412 : 		{
; 1413 : 			if ( Right->m_Type >= ITEMGET(0,0) && Right->m_Type < ITEMGET(4,0) && Left->m_Type >= ITEMGET(0,0) && Left->m_Type < ITEMGET(4,0) )

  03467	66 85 c0	 test	 ax, ax
  0346a	0f 88 8a 00 00
	00		 js	 $LN452@gObjCalCha
  03470	b9 00 08 00 00	 mov	 ecx, 2048		; 00000800H
  03475	66 3b c1	 cmp	 ax, cx
  03478	0f 8d 7c 00 00
	00		 jge	 $LN452@gObjCalCha
  0347e	66 85 d2	 test	 dx, dx
  03481	78 77		 js	 SHORT $LN452@gObjCalCha
  03483	8b c1		 mov	 eax, ecx
  03485	66 3b d0	 cmp	 dx, ax
  03488	7d 70		 jge	 SHORT $LN452@gObjCalCha

; 1414 : 			{
; 1415 : 				lpObj->m_AttackDamageMinRight = lpObj->m_AttackDamageMinRight * 55 / 100;

  0348a	8b 17		 mov	 edx, DWORD PTR [edi]
  0348c	6b d2 37	 imul	 edx, 55			; 00000037H
  0348f	b8 1f 85 eb 51	 mov	 eax, 1374389535		; 51eb851fH
  03494	f7 ea		 imul	 edx
  03496	c1 fa 05	 sar	 edx, 5
  03499	8b ca		 mov	 ecx, edx
  0349b	c1 e9 1f	 shr	 ecx, 31			; 0000001fH
  0349e	03 ca		 add	 ecx, edx

; 1416 : 				lpObj->m_AttackDamageMaxRight = lpObj->m_AttackDamageMaxRight * 55 / 100;

  034a0	8b 13		 mov	 edx, DWORD PTR [ebx]
  034a2	6b d2 37	 imul	 edx, 55			; 00000037H
  034a5	b8 1f 85 eb 51	 mov	 eax, 1374389535		; 51eb851fH
  034aa	f7 ea		 imul	 edx
  034ac	c1 fa 05	 sar	 edx, 5
  034af	8b c2		 mov	 eax, edx
  034b1	c1 e8 1f	 shr	 eax, 31			; 0000001fH
  034b4	03 c2		 add	 eax, edx

; 1417 : 				lpObj->m_AttackDamageMinLeft = lpObj->m_AttackDamageMinLeft * 55 / 100;

  034b6	8b 96 7c 04 00
	00		 mov	 edx, DWORD PTR [esi+1148]
  034bc	6b d2 37	 imul	 edx, 55			; 00000037H
  034bf	89 03		 mov	 DWORD PTR [ebx], eax
  034c1	b8 1f 85 eb 51	 mov	 eax, 1374389535		; 51eb851fH
  034c6	f7 ea		 imul	 edx
  034c8	c1 fa 05	 sar	 edx, 5
  034cb	89 0f		 mov	 DWORD PTR [edi], ecx
  034cd	8b ca		 mov	 ecx, edx
  034cf	c1 e9 1f	 shr	 ecx, 31			; 0000001fH
  034d2	03 ca		 add	 ecx, edx

; 1418 : 				lpObj->m_AttackDamageMaxLeft = lpObj->m_AttackDamageMaxLeft * 55 / 100;

  034d4	8b 96 78 04 00
	00		 mov	 edx, DWORD PTR [esi+1144]
  034da	6b d2 37	 imul	 edx, 55			; 00000037H
  034dd	b8 1f 85 eb 51	 mov	 eax, 1374389535		; 51eb851fH
  034e2	f7 ea		 imul	 edx
  034e4	c1 fa 05	 sar	 edx, 5
  034e7	8b c2		 mov	 eax, edx
  034e9	c1 e8 1f	 shr	 eax, 31			; 0000001fH
  034ec	03 c2		 add	 eax, edx
  034ee	89 8e 7c 04 00
	00		 mov	 DWORD PTR [esi+1148], ecx
  034f4	89 86 78 04 00
	00		 mov	 DWORD PTR [esi+1144], eax
$LN452@gObjCalCha:

; 1419 : 			}
; 1420 : 		}
; 1421 : 	}
; 1422 : 
; 1423 : #ifdef MONK
; 1424 : 	if( lpObj->Class == CLASS_MONK )

  034fa	66 83 be b8 00
	00 00 06	 cmp	 WORD PTR [esi+184], 6
  03502	0f 85 db 00 00
	00		 jne	 $LN14@gObjCalCha

; 1425 : 	{
; 1426 : 		if( Right->m_Type != -1 && Left->m_Type != -1 )

  03508	8b 8d c8 fe ff
	ff		 mov	 ecx, DWORD PTR _Right$[ebp]
  0350e	0f b7 41 06	 movzx	 eax, WORD PTR [ecx+6]
  03512	66 83 f8 ff	 cmp	 ax, -1
  03516	0f 84 c7 00 00
	00		 je	 $LN14@gObjCalCha
  0351c	8b 95 cc fe ff
	ff		 mov	 edx, DWORD PTR _Left$[ebp]
  03522	0f b7 4a 06	 movzx	 ecx, WORD PTR [edx+6]
  03526	66 83 f9 ff	 cmp	 cx, -1
  0352a	0f 84 b3 00 00
	00		 je	 $LN14@gObjCalCha

; 1427 : 		{
; 1428 : 			if( Right->m_Type >= ITEMGET(0,0) && Right->m_Type < ITEMGET(4,0) && Left->m_Type >= ITEMGET(0,0) && Left->m_Type < ITEMGET(4,0) )

  03530	66 85 c0	 test	 ax, ax
  03533	0f 88 aa 00 00
	00		 js	 $LN14@gObjCalCha
  03539	ba 00 08 00 00	 mov	 edx, 2048		; 00000800H
  0353e	66 3b c2	 cmp	 ax, dx
  03541	0f 8d 9c 00 00
	00		 jge	 $LN14@gObjCalCha
  03547	66 85 c9	 test	 cx, cx
  0354a	0f 88 93 00 00
	00		 js	 $LN14@gObjCalCha
  03550	8b c2		 mov	 eax, edx
  03552	66 3b c8	 cmp	 cx, ax
  03555	0f 8d 88 00 00
	00		 jge	 $LN14@gObjCalCha

; 1429 : 			{
; 1430 : 				lpObj->m_AttackDamageMinRight	= lpObj->m_AttackDamageMinRight * 60 / 100;

  0355b	8b 07		 mov	 eax, DWORD PTR [edi]
  0355d	8b c8		 mov	 ecx, eax
  0355f	c1 e1 04	 shl	 ecx, 4
  03562	2b c8		 sub	 ecx, eax
  03564	03 c9		 add	 ecx, ecx
  03566	03 c9		 add	 ecx, ecx
  03568	b8 1f 85 eb 51	 mov	 eax, 1374389535		; 51eb851fH
  0356d	f7 e9		 imul	 ecx

; 1431 : 				lpObj->m_AttackDamageMaxRight	= lpObj->m_AttackDamageMaxRight * 65 / 100;

  0356f	8b 03		 mov	 eax, DWORD PTR [ebx]
  03571	c1 fa 05	 sar	 edx, 5
  03574	8b ca		 mov	 ecx, edx
  03576	c1 e9 1f	 shr	 ecx, 31			; 0000001fH
  03579	03 ca		 add	 ecx, edx
  0357b	89 0f		 mov	 DWORD PTR [edi], ecx
  0357d	8b c8		 mov	 ecx, eax
  0357f	c1 e1 06	 shl	 ecx, 6
  03582	03 c8		 add	 ecx, eax
  03584	b8 1f 85 eb 51	 mov	 eax, 1374389535		; 51eb851fH
  03589	f7 e9		 imul	 ecx
  0358b	c1 fa 05	 sar	 edx, 5
  0358e	8b c2		 mov	 eax, edx
  03590	c1 e8 1f	 shr	 eax, 31			; 0000001fH
  03593	03 c2		 add	 eax, edx
  03595	89 03		 mov	 DWORD PTR [ebx], eax

; 1432 : 				lpObj->m_AttackDamageMinLeft	= lpObj->m_AttackDamageMinLeft  * 60 / 100;

  03597	8b 86 7c 04 00
	00		 mov	 eax, DWORD PTR [esi+1148]
  0359d	8b d0		 mov	 edx, eax
  0359f	c1 e2 04	 shl	 edx, 4
  035a2	2b d0		 sub	 edx, eax
  035a4	03 d2		 add	 edx, edx
  035a6	03 d2		 add	 edx, edx
  035a8	b8 1f 85 eb 51	 mov	 eax, 1374389535		; 51eb851fH
  035ad	f7 ea		 imul	 edx

; 1433 : 				lpObj->m_AttackDamageMaxLeft	= lpObj->m_AttackDamageMaxLeft  * 65 / 100;

  035af	8b 86 78 04 00
	00		 mov	 eax, DWORD PTR [esi+1144]
  035b5	c1 fa 05	 sar	 edx, 5
  035b8	8b ca		 mov	 ecx, edx
  035ba	c1 e9 1f	 shr	 ecx, 31			; 0000001fH
  035bd	03 ca		 add	 ecx, edx
  035bf	8b d0		 mov	 edx, eax
  035c1	c1 e2 06	 shl	 edx, 6
  035c4	03 d0		 add	 edx, eax
  035c6	b8 1f 85 eb 51	 mov	 eax, 1374389535		; 51eb851fH
  035cb	f7 ea		 imul	 edx
  035cd	c1 fa 05	 sar	 edx, 5
  035d0	8b c2		 mov	 eax, edx
  035d2	c1 e8 1f	 shr	 eax, 31			; 0000001fH
  035d5	03 c2		 add	 eax, edx
  035d7	89 8e 7c 04 00
	00		 mov	 DWORD PTR [esi+1148], ecx
  035dd	89 86 78 04 00
	00		 mov	 DWORD PTR [esi+1144], eax
$LN14@gObjCalCha:

; 1434 : 			}
; 1435 : 		}
; 1436 : 	}
; 1437 : #endif
; 1438 : 	
; 1439 : 	g_ItemAddOption.NextSetItemLastEffectForCashShop(lpObj); //Apply again CashShop Attributes (Leaps and Scrolls)

  035e3	56		 push	 esi
  035e4	b9 00 00 00 00	 mov	 ecx, OFFSET ?g_ItemAddOption@@3VCItemAddOption@@A ; g_ItemAddOption
  035e9	e8 00 00 00 00	 call	 ?NextSetItemLastEffectForCashShop@CItemAddOption@@QAE_NPAUOBJECTSTRUCT@@@Z ; CItemAddOption::NextSetItemLastEffectForCashShop

; 1440 : 
; 1441 : #if(CUSTOM_PREMIUM_SYSTEM==TRUE)
; 1442 : 	g_PremiumSystemZt.UserCalculatorPlus(aIndex);

  035ee	8b 8d c4 fe ff
	ff		 mov	 ecx, DWORD PTR _aIndex$GSCopy$[ebp]
  035f4	51		 push	 ecx
  035f5	b9 00 00 00 00	 mov	 ecx, OFFSET ?g_PremiumSystemZt@@3VPremiumSystemZt@@A ; g_PremiumSystemZt
  035fa	e8 00 00 00 00	 call	 ?UserCalculatorPlus@PremiumSystemZt@@QAEXH@Z ; PremiumSystemZt::UserCalculatorPlus

; 1443 : #endif
; 1444 : 
; 1445 : 	g_ViewportSkillState.NextSetBuffLastEffect(lpObj); //season3 add-on for buffeffect (Set All attributes)

  035ff	56		 push	 esi
  03600	b9 00 00 00 00	 mov	 ecx, OFFSET ?g_ViewportSkillState@@3VCViewportSkillState@@A ; g_ViewportSkillState
  03605	e8 00 00 00 00	 call	 ?NextSetBuffLastEffect@CViewportSkillState@@QAEXPAUOBJECTSTRUCT@@@Z ; CViewportSkillState::NextSetBuffLastEffect

; 1446 : 
; 1447 : 	if ( lpObj->m_iItemEffectValidTime > 0 )

  0360a	83 be 18 20 00
	00 00		 cmp	 DWORD PTR [esi+8216], 0
  03611	7e 0b		 jle	 SHORT $LN13@gObjCalCha

; 1448 : 	{
; 1449 : 		g_ItemAddOption.NextSetItemLastEffectForHallowin(lpObj);

  03613	56		 push	 esi
  03614	b9 00 00 00 00	 mov	 ecx, OFFSET ?g_ItemAddOption@@3VCItemAddOption@@A ; g_ItemAddOption
  03619	e8 00 00 00 00	 call	 ?NextSetItemLastEffectForHallowin@CItemAddOption@@QAE_NPAUOBJECTSTRUCT@@@Z ; CItemAddOption::NextSetItemLastEffectForHallowin
$LN13@gObjCalCha:

; 1450 : 	}
; 1451 : 
; 1452 : #ifdef DEBUG_CODE2
; 1453 : 	LogAddC(2,"DAMAGE: %d",lpObj->m_AttackDamageMaxRight);
; 1454 : #endif
; 1455 : 
; 1456 : #ifdef EN_RINGS
; 1457 : 	g_ItemAddOption.ApplyForEquipment(lpObj);

  0361e	56		 push	 esi
  0361f	b9 00 00 00 00	 mov	 ecx, OFFSET ?g_ItemAddOption@@3VCItemAddOption@@A ; g_ItemAddOption
  03624	e8 00 00 00 00	 call	 ?ApplyForEquipment@CItemAddOption@@QAE_NPAUOBJECTSTRUCT@@@Z ; CItemAddOption::ApplyForEquipment

; 1458 : #endif
; 1459 : 
; 1460 : 	gObjCalcShieldPoint(lpObj);

  03629	56		 push	 esi
  0362a	e8 00 00 00 00	 call	 ?gObjCalcShieldPoint@@YAXPAUOBJECTSTRUCT@@@Z ; gObjCalcShieldPoint
  0362f	83 c4 04	 add	 esp, 4

; 1461 : 
; 1462 : 	if(g_ZtLicense.user.Rage)

  03632	80 3d cd 00 00
	00 00		 cmp	 BYTE PTR ?g_ZtLicense@@3VCZtLicense@@A+205, 0
  03639	74 11		 je	 SHORT $LN12@gObjCalCha

; 1463 : 	{
; 1464 : 		gSystemOfRage.CalcCharacter(aIndex);

  0363b	8b 95 c4 fe ff
	ff		 mov	 edx, DWORD PTR _aIndex$GSCopy$[ebp]
  03641	52		 push	 edx
  03642	b9 00 00 00 00	 mov	 ecx, OFFSET ?gSystemOfRage@@3VcSystemOfRage@@A ; gSystemOfRage
  03647	e8 00 00 00 00	 call	 ?CalcCharacter@cSystemOfRage@@QAEXH@Z ; cSystemOfRage::CalcCharacter
$LN12@gObjCalCha:

; 1465 : 	}
; 1466 : 
; 1467 : 
; 1468 : 	if(g_ZtLicense.user.WinQuest) gWinQuestSystem.CharOptions(aIndex);

  0364c	80 3d ce 00 00
	00 00		 cmp	 BYTE PTR ?g_ZtLicense@@3VCZtLicense@@A+206, 0
  03653	74 11		 je	 SHORT $LN11@gObjCalCha
  03655	8b 85 c4 fe ff
	ff		 mov	 eax, DWORD PTR _aIndex$GSCopy$[ebp]
  0365b	50		 push	 eax
  0365c	b9 00 00 00 00	 mov	 ecx, OFFSET ?gWinQuestSystem@@3VcWinQuestSystem@@A ; gWinQuestSystem
  03661	e8 00 00 00 00	 call	 ?CharOptions@cWinQuestSystem@@QAEXH@Z ; cWinQuestSystem::CharOptions
$LN11@gObjCalCha:

; 1469 : 
; 1470 : 	gExclusiveOptions.Options(aIndex);

  03666	8b 8d c4 fe ff
	ff		 mov	 ecx, DWORD PTR _aIndex$GSCopy$[ebp]
  0366c	51		 push	 ecx
  0366d	b9 00 00 00 00	 mov	 ecx, OFFSET ?gExclusiveOptions@@3VcExclusiveOptions@@A ; gExclusiveOptions
  03672	e8 00 00 00 00	 call	 ?Options@cExclusiveOptions@@QAEXH@Z ; cExclusiveOptions::Options

; 1471 : 
; 1472 : 	
; 1473 : #if(SYSTEMOF_BROTHER==TRUE)
; 1474 : 	gBrotherhood.CharacterAdded(lpObj);

  03677	56		 push	 esi
  03678	b9 00 00 00 00	 mov	 ecx, OFFSET ?gBrotherhood@@3VBrotherhood@@A ; gBrotherhood
  0367d	e8 00 00 00 00	 call	 ?CharacterAdded@Brotherhood@@QAEXPAUOBJECTSTRUCT@@@Z ; Brotherhood::CharacterAdded

; 1475 : #endif
; 1476 : 
; 1477 : #if(CUSTOM_NPC_BUFFER==TRUE)
; 1478 : 	if(g_ZtLicense.user.NpcBuffer)

  03682	80 3d dd 00 00
	00 00		 cmp	 BYTE PTR ?g_ZtLicense@@3VCZtLicense@@A+221, 0
  03689	0f 84 45 01 00
	00		 je	 $LN6@gObjCalCha

; 1479 : 	{
; 1480 : 		if(lpObj->DamageBuffTime > 0 )

  0368f	83 be 94 28 00
	00 00		 cmp	 DWORD PTR [esi+10388], 0
  03696	0f 86 c0 00 00
	00		 jbe	 $LN456@gObjCalCha

; 1481 : 		{
; 1482 : 			int AddProcentDamage = 10;
; 1483 : 
; 1484 : 			lpObj->m_AttackDamageMaxLeft += ( lpObj->m_AttackDamageMaxLeft * AddProcentDamage ) / 100;

  0369c	8b 8e 78 04 00
	00		 mov	 ecx, DWORD PTR [esi+1144]
  036a2	8d 14 89	 lea	 edx, DWORD PTR [ecx+ecx*4]
  036a5	03 d2		 add	 edx, edx
  036a7	b8 1f 85 eb 51	 mov	 eax, 1374389535		; 51eb851fH
  036ac	f7 ea		 imul	 edx
  036ae	c1 fa 05	 sar	 edx, 5
  036b1	8b c2		 mov	 eax, edx
  036b3	c1 e8 1f	 shr	 eax, 31			; 0000001fH
  036b6	03 c2		 add	 eax, edx
  036b8	03 c1		 add	 eax, ecx

; 1485 : 			lpObj->m_AttackDamageMinLeft += ( lpObj->m_AttackDamageMinLeft * AddProcentDamage ) / 100;

  036ba	8b 8e 7c 04 00
	00		 mov	 ecx, DWORD PTR [esi+1148]
  036c0	89 86 78 04 00
	00		 mov	 DWORD PTR [esi+1144], eax
  036c6	8d 14 89	 lea	 edx, DWORD PTR [ecx+ecx*4]
  036c9	03 d2		 add	 edx, edx
  036cb	b8 1f 85 eb 51	 mov	 eax, 1374389535		; 51eb851fH
  036d0	f7 ea		 imul	 edx
  036d2	c1 fa 05	 sar	 edx, 5
  036d5	8b c2		 mov	 eax, edx
  036d7	c1 e8 1f	 shr	 eax, 31			; 0000001fH
  036da	03 c2		 add	 eax, edx
  036dc	03 c1		 add	 eax, ecx

; 1486 : 			lpObj->m_AttackDamageMaxRight += ( lpObj->m_AttackDamageMaxRight * AddProcentDamage ) / 100;

  036de	8b 0b		 mov	 ecx, DWORD PTR [ebx]
  036e0	89 86 7c 04 00
	00		 mov	 DWORD PTR [esi+1148], eax
  036e6	8d 14 89	 lea	 edx, DWORD PTR [ecx+ecx*4]
  036e9	03 d2		 add	 edx, edx
  036eb	b8 1f 85 eb 51	 mov	 eax, 1374389535		; 51eb851fH
  036f0	f7 ea		 imul	 edx
  036f2	c1 fa 05	 sar	 edx, 5
  036f5	8b c2		 mov	 eax, edx
  036f7	c1 e8 1f	 shr	 eax, 31			; 0000001fH
  036fa	03 c2		 add	 eax, edx
  036fc	03 c1		 add	 eax, ecx

; 1487 : 			lpObj->m_AttackDamageMinRight += ( lpObj->m_AttackDamageMinRight * AddProcentDamage ) / 100;

  036fe	8b 0f		 mov	 ecx, DWORD PTR [edi]
  03700	89 03		 mov	 DWORD PTR [ebx], eax
  03702	8d 14 89	 lea	 edx, DWORD PTR [ecx+ecx*4]
  03705	03 d2		 add	 edx, edx
  03707	b8 1f 85 eb 51	 mov	 eax, 1374389535		; 51eb851fH
  0370c	f7 ea		 imul	 edx
  0370e	c1 fa 05	 sar	 edx, 5
  03711	8b c2		 mov	 eax, edx
  03713	c1 e8 1f	 shr	 eax, 31			; 0000001fH
  03716	03 c2		 add	 eax, edx
  03718	03 c1		 add	 eax, ecx

; 1488 : 			lpObj->m_MagicDamageMin += ( lpObj->m_MagicDamageMin * AddProcentDamage ) / 100;

  0371a	8b 8e 68 04 00
	00		 mov	 ecx, DWORD PTR [esi+1128]
  03720	8d 14 89	 lea	 edx, DWORD PTR [ecx+ecx*4]
  03723	89 07		 mov	 DWORD PTR [edi], eax
  03725	03 d2		 add	 edx, edx
  03727	b8 1f 85 eb 51	 mov	 eax, 1374389535		; 51eb851fH
  0372c	f7 ea		 imul	 edx
  0372e	c1 fa 05	 sar	 edx, 5
  03731	8b c2		 mov	 eax, edx
  03733	c1 e8 1f	 shr	 eax, 31			; 0000001fH
  03736	03 c2		 add	 eax, edx
  03738	03 c8		 add	 ecx, eax
  0373a	89 8e 68 04 00
	00		 mov	 DWORD PTR [esi+1128], ecx

; 1489 : 			lpObj->m_MagicDamageMax += ( lpObj->m_MagicDamageMin * AddProcentDamage ) / 100;

  03740	8d 0c 89	 lea	 ecx, DWORD PTR [ecx+ecx*4]
  03743	03 c9		 add	 ecx, ecx
  03745	b8 1f 85 eb 51	 mov	 eax, 1374389535		; 51eb851fH
  0374a	f7 e9		 imul	 ecx
  0374c	c1 fa 05	 sar	 edx, 5
  0374f	8b ca		 mov	 ecx, edx
  03751	c1 e9 1f	 shr	 ecx, 31			; 0000001fH
  03754	03 ca		 add	 ecx, edx
  03756	01 8e 6c 04 00
	00		 add	 DWORD PTR [esi+1132], ecx
$LN456@gObjCalCha:

; 1490 : 		}
; 1491 : 		// ----
; 1492 : 		if( lpObj->DefenceBuffTime > 0 )

  0375c	83 be 98 28 00
	00 00		 cmp	 DWORD PTR [esi+10392], 0
  03763	76 48		 jbe	 SHORT $LN8@gObjCalCha

; 1493 : 		{
; 1494 : 			int AddProcentDefence = 10;
; 1495 : 
; 1496 : 			lpObj->m_Defense += ( lpObj->m_Defense * AddProcentDefence ) / 100;

  03765	8b 8e 94 04 00
	00		 mov	 ecx, DWORD PTR [esi+1172]
  0376b	8d 14 89	 lea	 edx, DWORD PTR [ecx+ecx*4]
  0376e	03 d2		 add	 edx, edx
  03770	b8 1f 85 eb 51	 mov	 eax, 1374389535		; 51eb851fH
  03775	f7 ea		 imul	 edx
  03777	c1 fa 05	 sar	 edx, 5
  0377a	8b c2		 mov	 eax, edx
  0377c	c1 e8 1f	 shr	 eax, 31			; 0000001fH
  0377f	03 c2		 add	 eax, edx
  03781	03 c1		 add	 eax, ecx
  03783	89 86 94 04 00
	00		 mov	 DWORD PTR [esi+1172], eax

; 1497 : 			lpObj->m_MagicDefense += ( lpObj->m_MagicDefense * AddProcentDefence ) / 100;

  03789	8b 8e 98 04 00
	00		 mov	 ecx, DWORD PTR [esi+1176]
  0378f	8d 14 89	 lea	 edx, DWORD PTR [ecx+ecx*4]
  03792	03 d2		 add	 edx, edx
  03794	b8 1f 85 eb 51	 mov	 eax, 1374389535		; 51eb851fH
  03799	f7 ea		 imul	 edx
  0379b	c1 fa 05	 sar	 edx, 5
  0379e	8b c2		 mov	 eax, edx
  037a0	c1 e8 1f	 shr	 eax, 31			; 0000001fH
  037a3	03 c2		 add	 eax, edx
  037a5	03 c1		 add	 eax, ecx
  037a7	89 86 98 04 00
	00		 mov	 DWORD PTR [esi+1176], eax
$LN8@gObjCalCha:

; 1498 : 		}
; 1499 : 		// ----
; 1500 : 		if( lpObj->BattleBuffTime > 0 )

  037ad	83 be 9c 28 00
	00 00		 cmp	 DWORD PTR [esi+10396], 0
  037b4	76 0e		 jbe	 SHORT $LN7@gObjCalCha

; 1501 : 		{
; 1502 : 			int AddProcentCriticalDamage = 5;
; 1503 : 			int AddProcentExellentDamage = 5;
; 1504 : 
; 1505 : 			lpObj->m_CriticalDamage += AddProcentCriticalDamage;

  037b6	83 86 bc 04 00
	00 05		 add	 DWORD PTR [esi+1212], 5

; 1506 : 			lpObj->m_ExcelentDamage += AddProcentExellentDamage;

  037bd	83 86 c0 04 00
	00 05		 add	 DWORD PTR [esi+1216], 5
$LN7@gObjCalCha:

; 1507 : 		}
; 1508 : 		// ----
; 1509 : 		if( lpObj->DoubleBuffTime > 0 )

  037c4	83 be a4 28 00
	00 00		 cmp	 DWORD PTR [esi+10404], 0
  037cb	76 07		 jbe	 SHORT $LN6@gObjCalCha

; 1510 : 		{
; 1511 : 			int AddProcentDoubleDamage  = 5;
; 1512 : 
; 1513 : 			lpObj->SetOpDoubleDamage += AddProcentDoubleDamage;

  037cd	80 86 3f 11 00
	00 05		 add	 BYTE PTR [esi+4415], 5
$LN6@gObjCalCha:

; 1514 : 		}	
; 1515 : 	}
; 1516 : #endif
; 1517 : 
; 1518 : 	BMQuest.AddedCharacter(aIndex);	//BMQuest

  037d4	8b 8d c4 fe ff
	ff		 mov	 ecx, DWORD PTR _aIndex$GSCopy$[ebp]
  037da	51		 push	 ecx
  037db	b9 00 00 00 00	 mov	 ecx, OFFSET ?BMQuest@@3VcBMQuest@@A ; BMQuest
  037e0	e8 00 00 00 00	 call	 ?AddedCharacter@cBMQuest@@QAEXH@Z ; cBMQuest::AddedCharacter

; 1519 : 
; 1520 : #if(CUSTOM_MARRIAGE)
; 1521 : 	g_Marriage.AddedCharacter(aIndex);

  037e5	8b 95 c4 fe ff
	ff		 mov	 edx, DWORD PTR _aIndex$GSCopy$[ebp]
  037eb	52		 push	 edx
  037ec	b9 00 00 00 00	 mov	 ecx, OFFSET ?g_Marriage@@3VCMarriage@@A ; g_Marriage
  037f1	e8 00 00 00 00	 call	 ?AddedCharacter@CMarriage@@QAEXH@Z ; CMarriage::AddedCharacter

; 1522 : #endif
; 1523 : #if(CUSTOM_NOOBBUFF)
; 1524 : 	if(gObjSearchActiveEffect(lpObj,AT_NOOB_BUFF) == TRUE)

  037f6	68 b6 00 00 00	 push	 182			; 000000b6H
  037fb	56		 push	 esi
  037fc	e8 00 00 00 00	 call	 ?gObjSearchActiveEffect@@YAEPAUOBJECTSTRUCT@@H@Z ; gObjSearchActiveEffect
  03801	83 c4 08	 add	 esp, 8
  03804	3c 01		 cmp	 al, 1
  03806	0f 85 24 01 00
	00		 jne	 $LN5@gObjCalCha

; 1525 : 	{
; 1526 : 		int AddProcentDamage = ZtConfig.CommonServer.m_NoobDamage;

  0380c	8b 0d 28 01 00
	00		 mov	 ecx, DWORD PTR ?ZtConfig@@3VcZtConfigs@@A+296

; 1527 : 
; 1528 : 		lpObj->m_AttackDamageMaxLeft += ( lpObj->m_AttackDamageMaxLeft * AddProcentDamage ) / 100;

  03812	8b d1		 mov	 edx, ecx
  03814	0f af 96 78 04
	00 00		 imul	 edx, DWORD PTR [esi+1144]
  0381b	b8 1f 85 eb 51	 mov	 eax, 1374389535		; 51eb851fH
  03820	f7 ea		 imul	 edx
  03822	c1 fa 05	 sar	 edx, 5
  03825	8b c2		 mov	 eax, edx
  03827	c1 e8 1f	 shr	 eax, 31			; 0000001fH
  0382a	03 c2		 add	 eax, edx
  0382c	03 86 78 04 00
	00		 add	 eax, DWORD PTR [esi+1144]

; 1529 : 		lpObj->m_AttackDamageMinLeft += ( lpObj->m_AttackDamageMinLeft * AddProcentDamage ) / 100;

  03832	8b d1		 mov	 edx, ecx
  03834	0f af 96 7c 04
	00 00		 imul	 edx, DWORD PTR [esi+1148]
  0383b	89 86 78 04 00
	00		 mov	 DWORD PTR [esi+1144], eax
  03841	b8 1f 85 eb 51	 mov	 eax, 1374389535		; 51eb851fH
  03846	f7 ea		 imul	 edx
  03848	c1 fa 05	 sar	 edx, 5
  0384b	8b c2		 mov	 eax, edx
  0384d	c1 e8 1f	 shr	 eax, 31			; 0000001fH
  03850	03 c2		 add	 eax, edx
  03852	03 86 7c 04 00
	00		 add	 eax, DWORD PTR [esi+1148]

; 1530 : 		lpObj->m_AttackDamageMaxRight += ( lpObj->m_AttackDamageMaxRight * AddProcentDamage ) / 100;

  03858	8b d1		 mov	 edx, ecx
  0385a	0f af 13	 imul	 edx, DWORD PTR [ebx]
  0385d	89 86 7c 04 00
	00		 mov	 DWORD PTR [esi+1148], eax
  03863	b8 1f 85 eb 51	 mov	 eax, 1374389535		; 51eb851fH
  03868	f7 ea		 imul	 edx
  0386a	c1 fa 05	 sar	 edx, 5
  0386d	8b c2		 mov	 eax, edx
  0386f	c1 e8 1f	 shr	 eax, 31			; 0000001fH
  03872	03 c2		 add	 eax, edx
  03874	03 03		 add	 eax, DWORD PTR [ebx]

; 1531 : 		lpObj->m_AttackDamageMinRight += ( lpObj->m_AttackDamageMinRight * AddProcentDamage ) / 100;

  03876	8b d1		 mov	 edx, ecx
  03878	0f af 17	 imul	 edx, DWORD PTR [edi]
  0387b	89 03		 mov	 DWORD PTR [ebx], eax
  0387d	b8 1f 85 eb 51	 mov	 eax, 1374389535		; 51eb851fH
  03882	f7 ea		 imul	 edx
  03884	c1 fa 05	 sar	 edx, 5
  03887	8b c2		 mov	 eax, edx
  03889	c1 e8 1f	 shr	 eax, 31			; 0000001fH
  0388c	03 c2		 add	 eax, edx
  0388e	03 07		 add	 eax, DWORD PTR [edi]

; 1532 : 		lpObj->m_MagicDamageMin += ( lpObj->m_MagicDamageMin * AddProcentDamage ) / 100;

  03890	8b d1		 mov	 edx, ecx
  03892	0f af 96 68 04
	00 00		 imul	 edx, DWORD PTR [esi+1128]
  03899	89 07		 mov	 DWORD PTR [edi], eax
  0389b	b8 1f 85 eb 51	 mov	 eax, 1374389535		; 51eb851fH
  038a0	f7 ea		 imul	 edx
  038a2	c1 fa 05	 sar	 edx, 5
  038a5	8b c2		 mov	 eax, edx
  038a7	c1 e8 1f	 shr	 eax, 31			; 0000001fH
  038aa	03 c2		 add	 eax, edx
  038ac	89 85 f0 fe ff
	ff		 mov	 DWORD PTR tv5977[ebp], eax
  038b2	8b 86 68 04 00
	00		 mov	 eax, DWORD PTR [esi+1128]
  038b8	03 85 f0 fe ff
	ff		 add	 eax, DWORD PTR tv5977[ebp]

; 1533 : 		lpObj->m_MagicDamageMax += ( lpObj->m_MagicDamageMin * AddProcentDamage ) / 100;

  038be	0f af c8	 imul	 ecx, eax
  038c1	89 86 68 04 00
	00		 mov	 DWORD PTR [esi+1128], eax
  038c7	b8 1f 85 eb 51	 mov	 eax, 1374389535		; 51eb851fH
  038cc	f7 e9		 imul	 ecx
  038ce	c1 fa 05	 sar	 edx, 5
  038d1	8b ca		 mov	 ecx, edx
  038d3	c1 e9 1f	 shr	 ecx, 31			; 0000001fH
  038d6	03 ca		 add	 ecx, edx
  038d8	01 8e 6c 04 00
	00		 add	 DWORD PTR [esi+1132], ecx

; 1534 : 
; 1535 : 		int AddProcentDefence = ZtConfig.CommonServer.m_NoobDefence;

  038de	8b 0d 2c 01 00
	00		 mov	 ecx, DWORD PTR ?ZtConfig@@3VcZtConfigs@@A+300

; 1536 : 
; 1537 : 		lpObj->m_Defense += ( lpObj->m_Defense * AddProcentDefence ) / 100;

  038e4	8b d1		 mov	 edx, ecx
  038e6	0f af 96 94 04
	00 00		 imul	 edx, DWORD PTR [esi+1172]
  038ed	b8 1f 85 eb 51	 mov	 eax, 1374389535		; 51eb851fH
  038f2	f7 ea		 imul	 edx
  038f4	c1 fa 05	 sar	 edx, 5
  038f7	8b c2		 mov	 eax, edx
  038f9	c1 e8 1f	 shr	 eax, 31			; 0000001fH
  038fc	03 c2		 add	 eax, edx
  038fe	03 86 94 04 00
	00		 add	 eax, DWORD PTR [esi+1172]
  03904	89 86 94 04 00
	00		 mov	 DWORD PTR [esi+1172], eax

; 1538 : 		lpObj->m_MagicDefense += ( lpObj->m_MagicDefense * AddProcentDefence ) / 100;

  0390a	8b 96 98 04 00
	00		 mov	 edx, DWORD PTR [esi+1176]
  03910	0f af d1	 imul	 edx, ecx
  03913	b8 1f 85 eb 51	 mov	 eax, 1374389535		; 51eb851fH
  03918	f7 ea		 imul	 edx
  0391a	c1 fa 05	 sar	 edx, 5
  0391d	8b ca		 mov	 ecx, edx
  0391f	c1 e9 1f	 shr	 ecx, 31			; 0000001fH
  03922	03 ca		 add	 ecx, edx
  03924	03 8e 98 04 00
	00		 add	 ecx, DWORD PTR [esi+1176]
  0392a	89 8e 98 04 00
	00		 mov	 DWORD PTR [esi+1176], ecx
$LN5@gObjCalCha:

; 1539 : 	}
; 1540 : #endif
; 1541 : 
; 1542 : #if(CUSTOM_NEWBUFF)
; 1543 : 	if(gObjSearchActiveEffect(lpObj,AT_NEWPREMIUM_BUFF) == TRUE)

  03930	68 ba 00 00 00	 push	 186			; 000000baH
  03935	56		 push	 esi
  03936	e8 00 00 00 00	 call	 ?gObjSearchActiveEffect@@YAEPAUOBJECTSTRUCT@@H@Z ; gObjSearchActiveEffect
  0393b	83 c4 08	 add	 esp, 8
  0393e	3c 01		 cmp	 al, 1
  03940	0f 85 24 01 00
	00		 jne	 $LN4@gObjCalCha

; 1544 : 	{
; 1545 : 		int AddProcentDamage = ZtConfig.m_iNewBuffPremiumDamage;

  03946	8b 0d 78 0d 00
	00		 mov	 ecx, DWORD PTR ?ZtConfig@@3VcZtConfigs@@A+3448

; 1546 : 
; 1547 : 		lpObj->m_AttackDamageMaxLeft += ( lpObj->m_AttackDamageMaxLeft * AddProcentDamage ) / 100;

  0394c	8b d1		 mov	 edx, ecx
  0394e	0f af 96 78 04
	00 00		 imul	 edx, DWORD PTR [esi+1144]
  03955	b8 1f 85 eb 51	 mov	 eax, 1374389535		; 51eb851fH
  0395a	f7 ea		 imul	 edx
  0395c	c1 fa 05	 sar	 edx, 5
  0395f	8b c2		 mov	 eax, edx
  03961	c1 e8 1f	 shr	 eax, 31			; 0000001fH
  03964	03 c2		 add	 eax, edx
  03966	03 86 78 04 00
	00		 add	 eax, DWORD PTR [esi+1144]

; 1548 : 		lpObj->m_AttackDamageMinLeft += ( lpObj->m_AttackDamageMinLeft * AddProcentDamage ) / 100;

  0396c	8b d1		 mov	 edx, ecx
  0396e	0f af 96 7c 04
	00 00		 imul	 edx, DWORD PTR [esi+1148]
  03975	89 86 78 04 00
	00		 mov	 DWORD PTR [esi+1144], eax
  0397b	b8 1f 85 eb 51	 mov	 eax, 1374389535		; 51eb851fH
  03980	f7 ea		 imul	 edx
  03982	c1 fa 05	 sar	 edx, 5
  03985	8b c2		 mov	 eax, edx
  03987	c1 e8 1f	 shr	 eax, 31			; 0000001fH
  0398a	03 c2		 add	 eax, edx
  0398c	03 86 7c 04 00
	00		 add	 eax, DWORD PTR [esi+1148]

; 1549 : 		lpObj->m_AttackDamageMaxRight += ( lpObj->m_AttackDamageMaxRight * AddProcentDamage ) / 100;

  03992	8b d1		 mov	 edx, ecx
  03994	0f af 13	 imul	 edx, DWORD PTR [ebx]
  03997	89 86 7c 04 00
	00		 mov	 DWORD PTR [esi+1148], eax
  0399d	b8 1f 85 eb 51	 mov	 eax, 1374389535		; 51eb851fH
  039a2	f7 ea		 imul	 edx
  039a4	c1 fa 05	 sar	 edx, 5
  039a7	8b c2		 mov	 eax, edx
  039a9	c1 e8 1f	 shr	 eax, 31			; 0000001fH
  039ac	03 c2		 add	 eax, edx
  039ae	03 03		 add	 eax, DWORD PTR [ebx]

; 1550 : 		lpObj->m_AttackDamageMinRight += ( lpObj->m_AttackDamageMinRight * AddProcentDamage ) / 100;

  039b0	8b d1		 mov	 edx, ecx
  039b2	0f af 17	 imul	 edx, DWORD PTR [edi]
  039b5	89 03		 mov	 DWORD PTR [ebx], eax
  039b7	b8 1f 85 eb 51	 mov	 eax, 1374389535		; 51eb851fH
  039bc	f7 ea		 imul	 edx
  039be	c1 fa 05	 sar	 edx, 5
  039c1	8b c2		 mov	 eax, edx
  039c3	c1 e8 1f	 shr	 eax, 31			; 0000001fH
  039c6	03 c2		 add	 eax, edx
  039c8	03 07		 add	 eax, DWORD PTR [edi]

; 1551 : 		lpObj->m_MagicDamageMin += ( lpObj->m_MagicDamageMin * AddProcentDamage ) / 100;

  039ca	8b d1		 mov	 edx, ecx
  039cc	0f af 96 68 04
	00 00		 imul	 edx, DWORD PTR [esi+1128]
  039d3	89 07		 mov	 DWORD PTR [edi], eax
  039d5	b8 1f 85 eb 51	 mov	 eax, 1374389535		; 51eb851fH
  039da	f7 ea		 imul	 edx
  039dc	c1 fa 05	 sar	 edx, 5
  039df	8b c2		 mov	 eax, edx
  039e1	c1 e8 1f	 shr	 eax, 31			; 0000001fH
  039e4	03 c2		 add	 eax, edx
  039e6	89 85 f0 fe ff
	ff		 mov	 DWORD PTR tv5975[ebp], eax
  039ec	8b 86 68 04 00
	00		 mov	 eax, DWORD PTR [esi+1128]
  039f2	03 85 f0 fe ff
	ff		 add	 eax, DWORD PTR tv5975[ebp]

; 1552 : 		lpObj->m_MagicDamageMax += ( lpObj->m_MagicDamageMin * AddProcentDamage ) / 100;

  039f8	0f af c8	 imul	 ecx, eax
  039fb	89 86 68 04 00
	00		 mov	 DWORD PTR [esi+1128], eax
  03a01	b8 1f 85 eb 51	 mov	 eax, 1374389535		; 51eb851fH
  03a06	f7 e9		 imul	 ecx
  03a08	c1 fa 05	 sar	 edx, 5
  03a0b	8b ca		 mov	 ecx, edx
  03a0d	c1 e9 1f	 shr	 ecx, 31			; 0000001fH
  03a10	03 ca		 add	 ecx, edx
  03a12	01 8e 6c 04 00
	00		 add	 DWORD PTR [esi+1132], ecx

; 1553 : 
; 1554 : 		int AddProcentDefence = ZtConfig.m_iNewBuffPremiumDefence;

  03a18	8b 0d 7c 0d 00
	00		 mov	 ecx, DWORD PTR ?ZtConfig@@3VcZtConfigs@@A+3452

; 1555 : 
; 1556 : 		lpObj->m_Defense += ( lpObj->m_Defense * AddProcentDefence ) / 100;

  03a1e	8b d1		 mov	 edx, ecx
  03a20	0f af 96 94 04
	00 00		 imul	 edx, DWORD PTR [esi+1172]
  03a27	b8 1f 85 eb 51	 mov	 eax, 1374389535		; 51eb851fH
  03a2c	f7 ea		 imul	 edx
  03a2e	c1 fa 05	 sar	 edx, 5
  03a31	8b c2		 mov	 eax, edx
  03a33	c1 e8 1f	 shr	 eax, 31			; 0000001fH
  03a36	03 c2		 add	 eax, edx
  03a38	03 86 94 04 00
	00		 add	 eax, DWORD PTR [esi+1172]
  03a3e	89 86 94 04 00
	00		 mov	 DWORD PTR [esi+1172], eax

; 1557 : 		lpObj->m_MagicDefense += ( lpObj->m_MagicDefense * AddProcentDefence ) / 100;

  03a44	8b 96 98 04 00
	00		 mov	 edx, DWORD PTR [esi+1176]
  03a4a	0f af d1	 imul	 edx, ecx
  03a4d	b8 1f 85 eb 51	 mov	 eax, 1374389535		; 51eb851fH
  03a52	f7 ea		 imul	 edx
  03a54	c1 fa 05	 sar	 edx, 5
  03a57	8b ca		 mov	 ecx, edx
  03a59	c1 e9 1f	 shr	 ecx, 31			; 0000001fH
  03a5c	03 ca		 add	 ecx, edx
  03a5e	03 8e 98 04 00
	00		 add	 ecx, DWORD PTR [esi+1176]
  03a64	89 8e 98 04 00
	00		 mov	 DWORD PTR [esi+1176], ecx
$LN4@gObjCalCha:

; 1558 : 	}
; 1559 : 
; 1560 : 	if(gObjSearchActiveEffect(lpObj,AT_NEWGUILD_BUFF) == TRUE)

  03a6a	68 bb 00 00 00	 push	 187			; 000000bbH
  03a6f	56		 push	 esi
  03a70	e8 00 00 00 00	 call	 ?gObjSearchActiveEffect@@YAEPAUOBJECTSTRUCT@@H@Z ; gObjSearchActiveEffect
  03a75	83 c4 08	 add	 esp, 8
  03a78	3c 01		 cmp	 al, 1
  03a7a	0f 85 24 01 00
	00		 jne	 $LN3@gObjCalCha

; 1561 : 	{
; 1562 : 		int AddProcentDamage = ZtConfig.m_iNewBuffGuildDamage;

  03a80	8b 0d 88 0d 00
	00		 mov	 ecx, DWORD PTR ?ZtConfig@@3VcZtConfigs@@A+3464

; 1563 : 
; 1564 : 		lpObj->m_AttackDamageMaxLeft += ( lpObj->m_AttackDamageMaxLeft * AddProcentDamage ) / 100;

  03a86	8b d1		 mov	 edx, ecx
  03a88	0f af 96 78 04
	00 00		 imul	 edx, DWORD PTR [esi+1144]
  03a8f	b8 1f 85 eb 51	 mov	 eax, 1374389535		; 51eb851fH
  03a94	f7 ea		 imul	 edx
  03a96	c1 fa 05	 sar	 edx, 5
  03a99	8b c2		 mov	 eax, edx
  03a9b	c1 e8 1f	 shr	 eax, 31			; 0000001fH
  03a9e	03 c2		 add	 eax, edx
  03aa0	03 86 78 04 00
	00		 add	 eax, DWORD PTR [esi+1144]

; 1565 : 		lpObj->m_AttackDamageMinLeft += ( lpObj->m_AttackDamageMinLeft * AddProcentDamage ) / 100;

  03aa6	8b d1		 mov	 edx, ecx
  03aa8	0f af 96 7c 04
	00 00		 imul	 edx, DWORD PTR [esi+1148]
  03aaf	89 86 78 04 00
	00		 mov	 DWORD PTR [esi+1144], eax
  03ab5	b8 1f 85 eb 51	 mov	 eax, 1374389535		; 51eb851fH
  03aba	f7 ea		 imul	 edx
  03abc	c1 fa 05	 sar	 edx, 5
  03abf	8b c2		 mov	 eax, edx
  03ac1	c1 e8 1f	 shr	 eax, 31			; 0000001fH
  03ac4	03 c2		 add	 eax, edx
  03ac6	03 86 7c 04 00
	00		 add	 eax, DWORD PTR [esi+1148]

; 1566 : 		lpObj->m_AttackDamageMaxRight += ( lpObj->m_AttackDamageMaxRight * AddProcentDamage ) / 100;

  03acc	8b d1		 mov	 edx, ecx
  03ace	0f af 13	 imul	 edx, DWORD PTR [ebx]
  03ad1	89 86 7c 04 00
	00		 mov	 DWORD PTR [esi+1148], eax
  03ad7	b8 1f 85 eb 51	 mov	 eax, 1374389535		; 51eb851fH
  03adc	f7 ea		 imul	 edx
  03ade	c1 fa 05	 sar	 edx, 5
  03ae1	8b c2		 mov	 eax, edx
  03ae3	c1 e8 1f	 shr	 eax, 31			; 0000001fH
  03ae6	03 c2		 add	 eax, edx
  03ae8	03 03		 add	 eax, DWORD PTR [ebx]

; 1567 : 		lpObj->m_AttackDamageMinRight += ( lpObj->m_AttackDamageMinRight * AddProcentDamage ) / 100;

  03aea	8b d1		 mov	 edx, ecx
  03aec	0f af 17	 imul	 edx, DWORD PTR [edi]
  03aef	89 03		 mov	 DWORD PTR [ebx], eax
  03af1	b8 1f 85 eb 51	 mov	 eax, 1374389535		; 51eb851fH
  03af6	f7 ea		 imul	 edx
  03af8	c1 fa 05	 sar	 edx, 5
  03afb	8b c2		 mov	 eax, edx
  03afd	c1 e8 1f	 shr	 eax, 31			; 0000001fH
  03b00	03 c2		 add	 eax, edx
  03b02	03 07		 add	 eax, DWORD PTR [edi]

; 1568 : 		lpObj->m_MagicDamageMin += ( lpObj->m_MagicDamageMin * AddProcentDamage ) / 100;

  03b04	8b d1		 mov	 edx, ecx
  03b06	0f af 96 68 04
	00 00		 imul	 edx, DWORD PTR [esi+1128]
  03b0d	89 07		 mov	 DWORD PTR [edi], eax
  03b0f	b8 1f 85 eb 51	 mov	 eax, 1374389535		; 51eb851fH
  03b14	f7 ea		 imul	 edx
  03b16	c1 fa 05	 sar	 edx, 5
  03b19	8b c2		 mov	 eax, edx
  03b1b	c1 e8 1f	 shr	 eax, 31			; 0000001fH
  03b1e	03 c2		 add	 eax, edx
  03b20	89 85 f0 fe ff
	ff		 mov	 DWORD PTR tv5973[ebp], eax
  03b26	8b 86 68 04 00
	00		 mov	 eax, DWORD PTR [esi+1128]
  03b2c	03 85 f0 fe ff
	ff		 add	 eax, DWORD PTR tv5973[ebp]

; 1569 : 		lpObj->m_MagicDamageMax += ( lpObj->m_MagicDamageMin * AddProcentDamage ) / 100;

  03b32	0f af c8	 imul	 ecx, eax
  03b35	89 86 68 04 00
	00		 mov	 DWORD PTR [esi+1128], eax
  03b3b	b8 1f 85 eb 51	 mov	 eax, 1374389535		; 51eb851fH
  03b40	f7 e9		 imul	 ecx
  03b42	c1 fa 05	 sar	 edx, 5
  03b45	8b ca		 mov	 ecx, edx
  03b47	c1 e9 1f	 shr	 ecx, 31			; 0000001fH
  03b4a	03 ca		 add	 ecx, edx
  03b4c	01 8e 6c 04 00
	00		 add	 DWORD PTR [esi+1132], ecx

; 1570 : 
; 1571 : 		int AddProcentDefence = ZtConfig.m_iNewBuffGuildDefence;

  03b52	8b 0d 8c 0d 00
	00		 mov	 ecx, DWORD PTR ?ZtConfig@@3VcZtConfigs@@A+3468

; 1572 : 
; 1573 : 		lpObj->m_Defense += ( lpObj->m_Defense * AddProcentDefence ) / 100;

  03b58	8b d1		 mov	 edx, ecx
  03b5a	0f af 96 94 04
	00 00		 imul	 edx, DWORD PTR [esi+1172]
  03b61	b8 1f 85 eb 51	 mov	 eax, 1374389535		; 51eb851fH
  03b66	f7 ea		 imul	 edx
  03b68	c1 fa 05	 sar	 edx, 5
  03b6b	8b c2		 mov	 eax, edx
  03b6d	c1 e8 1f	 shr	 eax, 31			; 0000001fH
  03b70	03 c2		 add	 eax, edx
  03b72	03 86 94 04 00
	00		 add	 eax, DWORD PTR [esi+1172]
  03b78	89 86 94 04 00
	00		 mov	 DWORD PTR [esi+1172], eax

; 1574 : 		lpObj->m_MagicDefense += ( lpObj->m_MagicDefense * AddProcentDefence ) / 100;

  03b7e	8b 96 98 04 00
	00		 mov	 edx, DWORD PTR [esi+1176]
  03b84	0f af d1	 imul	 edx, ecx
  03b87	b8 1f 85 eb 51	 mov	 eax, 1374389535		; 51eb851fH
  03b8c	f7 ea		 imul	 edx
  03b8e	c1 fa 05	 sar	 edx, 5
  03b91	8b ca		 mov	 ecx, edx
  03b93	c1 e9 1f	 shr	 ecx, 31			; 0000001fH
  03b96	03 ca		 add	 ecx, edx
  03b98	03 8e 98 04 00
	00		 add	 ecx, DWORD PTR [esi+1176]
  03b9e	89 8e 98 04 00
	00		 mov	 DWORD PTR [esi+1176], ecx
$LN3@gObjCalCha:

; 1575 : 	}
; 1576 : 
; 1577 : 	if(gObjSearchActiveEffect(lpObj,AT_NEWPARTY_BUFF) == TRUE)

  03ba4	68 bc 00 00 00	 push	 188			; 000000bcH
  03ba9	56		 push	 esi
  03baa	e8 00 00 00 00	 call	 ?gObjSearchActiveEffect@@YAEPAUOBJECTSTRUCT@@H@Z ; gObjSearchActiveEffect
  03baf	83 c4 08	 add	 esp, 8
  03bb2	3c 01		 cmp	 al, 1
  03bb4	0f 85 12 01 00
	00		 jne	 $LN2@gObjCalCha

; 1578 : 	{
; 1579 : 		int AddProcentDamage = ZtConfig.m_iNewBuffPartyDamage;

  03bba	8b 0d 98 0d 00
	00		 mov	 ecx, DWORD PTR ?ZtConfig@@3VcZtConfigs@@A+3480

; 1580 : 
; 1581 : 		lpObj->m_AttackDamageMaxLeft += ( lpObj->m_AttackDamageMaxLeft * AddProcentDamage ) / 100;

  03bc0	8b d1		 mov	 edx, ecx
  03bc2	0f af 96 78 04
	00 00		 imul	 edx, DWORD PTR [esi+1144]
  03bc9	b8 1f 85 eb 51	 mov	 eax, 1374389535		; 51eb851fH
  03bce	f7 ea		 imul	 edx
  03bd0	c1 fa 05	 sar	 edx, 5
  03bd3	8b c2		 mov	 eax, edx
  03bd5	c1 e8 1f	 shr	 eax, 31			; 0000001fH
  03bd8	03 c2		 add	 eax, edx
  03bda	03 86 78 04 00
	00		 add	 eax, DWORD PTR [esi+1144]

; 1582 : 		lpObj->m_AttackDamageMinLeft += ( lpObj->m_AttackDamageMinLeft * AddProcentDamage ) / 100;

  03be0	8b d1		 mov	 edx, ecx
  03be2	0f af 96 7c 04
	00 00		 imul	 edx, DWORD PTR [esi+1148]
  03be9	89 86 78 04 00
	00		 mov	 DWORD PTR [esi+1144], eax
  03bef	b8 1f 85 eb 51	 mov	 eax, 1374389535		; 51eb851fH
  03bf4	f7 ea		 imul	 edx
  03bf6	c1 fa 05	 sar	 edx, 5
  03bf9	8b c2		 mov	 eax, edx
  03bfb	c1 e8 1f	 shr	 eax, 31			; 0000001fH
  03bfe	03 c2		 add	 eax, edx
  03c00	03 86 7c 04 00
	00		 add	 eax, DWORD PTR [esi+1148]

; 1583 : 		lpObj->m_AttackDamageMaxRight += ( lpObj->m_AttackDamageMaxRight * AddProcentDamage ) / 100;

  03c06	8b d1		 mov	 edx, ecx
  03c08	0f af 13	 imul	 edx, DWORD PTR [ebx]
  03c0b	89 86 7c 04 00
	00		 mov	 DWORD PTR [esi+1148], eax
  03c11	b8 1f 85 eb 51	 mov	 eax, 1374389535		; 51eb851fH
  03c16	f7 ea		 imul	 edx
  03c18	c1 fa 05	 sar	 edx, 5
  03c1b	8b c2		 mov	 eax, edx
  03c1d	c1 e8 1f	 shr	 eax, 31			; 0000001fH
  03c20	03 c2		 add	 eax, edx
  03c22	03 03		 add	 eax, DWORD PTR [ebx]

; 1584 : 		lpObj->m_AttackDamageMinRight += ( lpObj->m_AttackDamageMinRight * AddProcentDamage ) / 100;

  03c24	8b d1		 mov	 edx, ecx
  03c26	89 03		 mov	 DWORD PTR [ebx], eax
  03c28	8b 1f		 mov	 ebx, DWORD PTR [edi]
  03c2a	0f af d3	 imul	 edx, ebx
  03c2d	b8 1f 85 eb 51	 mov	 eax, 1374389535		; 51eb851fH
  03c32	f7 ea		 imul	 edx
  03c34	c1 fa 05	 sar	 edx, 5
  03c37	8b c2		 mov	 eax, edx
  03c39	c1 e8 1f	 shr	 eax, 31			; 0000001fH
  03c3c	03 c2		 add	 eax, edx
  03c3e	03 c3		 add	 eax, ebx
  03c40	89 07		 mov	 DWORD PTR [edi], eax

; 1585 : 		lpObj->m_MagicDamageMin += ( lpObj->m_MagicDamageMin * AddProcentDamage ) / 100;

  03c42	8b be 68 04 00
	00		 mov	 edi, DWORD PTR [esi+1128]
  03c48	8b d1		 mov	 edx, ecx
  03c4a	0f af d7	 imul	 edx, edi
  03c4d	b8 1f 85 eb 51	 mov	 eax, 1374389535		; 51eb851fH
  03c52	f7 ea		 imul	 edx
  03c54	c1 fa 05	 sar	 edx, 5
  03c57	8b c2		 mov	 eax, edx
  03c59	c1 e8 1f	 shr	 eax, 31			; 0000001fH
  03c5c	03 c2		 add	 eax, edx
  03c5e	03 c7		 add	 eax, edi

; 1586 : 		lpObj->m_MagicDamageMax += ( lpObj->m_MagicDamageMin * AddProcentDamage ) / 100;

  03c60	0f af c8	 imul	 ecx, eax
  03c63	89 86 68 04 00
	00		 mov	 DWORD PTR [esi+1128], eax

; 1587 : 
; 1588 : 		int AddProcentDefence = ZtConfig.m_iNewBuffPartyDefence;
; 1589 : 
; 1590 : 		lpObj->m_Defense += ( lpObj->m_Defense * AddProcentDefence ) / 100;

  03c69	8b be 94 04 00
	00		 mov	 edi, DWORD PTR [esi+1172]
  03c6f	b8 1f 85 eb 51	 mov	 eax, 1374389535		; 51eb851fH
  03c74	f7 e9		 imul	 ecx
  03c76	c1 fa 05	 sar	 edx, 5
  03c79	8b ca		 mov	 ecx, edx
  03c7b	c1 e9 1f	 shr	 ecx, 31			; 0000001fH
  03c7e	03 ca		 add	 ecx, edx
  03c80	01 8e 6c 04 00
	00		 add	 DWORD PTR [esi+1132], ecx
  03c86	8b 0d 9c 0d 00
	00		 mov	 ecx, DWORD PTR ?ZtConfig@@3VcZtConfigs@@A+3484
  03c8c	8b d1		 mov	 edx, ecx
  03c8e	0f af d7	 imul	 edx, edi
  03c91	b8 1f 85 eb 51	 mov	 eax, 1374389535		; 51eb851fH
  03c96	f7 ea		 imul	 edx
  03c98	c1 fa 05	 sar	 edx, 5
  03c9b	8b c2		 mov	 eax, edx
  03c9d	c1 e8 1f	 shr	 eax, 31			; 0000001fH
  03ca0	03 c2		 add	 eax, edx
  03ca2	03 c7		 add	 eax, edi
  03ca4	89 86 94 04 00
	00		 mov	 DWORD PTR [esi+1172], eax

; 1591 : 		lpObj->m_MagicDefense += ( lpObj->m_MagicDefense * AddProcentDefence ) / 100;

  03caa	8b be 98 04 00
	00		 mov	 edi, DWORD PTR [esi+1176]
  03cb0	0f af cf	 imul	 ecx, edi
  03cb3	b8 1f 85 eb 51	 mov	 eax, 1374389535		; 51eb851fH
  03cb8	f7 e9		 imul	 ecx
  03cba	c1 fa 05	 sar	 edx, 5
  03cbd	8b ca		 mov	 ecx, edx
  03cbf	c1 e9 1f	 shr	 ecx, 31			; 0000001fH
  03cc2	03 ca		 add	 ecx, edx
  03cc4	03 cf		 add	 ecx, edi
  03cc6	89 8e 98 04 00
	00		 mov	 DWORD PTR [esi+1176], ecx
$LN2@gObjCalCha:

; 1592 : 	}
; 1593 : #endif
; 1594 : 
; 1595 : 
; 1596 : 	#if(EVENT_DUNGEON_SIEGE)
; 1597 : 	g_DungeonSiege.GuildBuffCharacter(aIndex);

  03ccc	8b bd c4 fe ff
	ff		 mov	 edi, DWORD PTR _aIndex$GSCopy$[ebp]
  03cd2	57		 push	 edi
  03cd3	b9 00 00 00 00	 mov	 ecx, OFFSET ?g_DungeonSiege@@3VCDungeonSiege@@A ; g_DungeonSiege
  03cd8	e8 00 00 00 00	 call	 ?GuildBuffCharacter@CDungeonSiege@@QAEXH@Z ; CDungeonSiege::GuildBuffCharacter

; 1598 : 	#endif
; 1599 : 	#if(SYSTEM_ACHIEVEMENTS)
; 1600 : 	g_Achievements.CalculatorPower(aIndex);

  03cdd	57		 push	 edi
  03cde	b9 00 00 00 00	 mov	 ecx, OFFSET ?g_Achievements@@3VCAchievements@@A ; g_Achievements
  03ce3	e8 00 00 00 00	 call	 ?CalculatorPower@CAchievements@@QAEXH@Z ; CAchievements::CalculatorPower

; 1601 : 	#endif
; 1602 : 	#if(ENABLE_PETZT)
; 1603 : 	g_PetZt.Calc(aIndex);

  03ce8	57		 push	 edi
  03ce9	b9 00 00 00 00	 mov	 ecx, OFFSET ?g_PetZt@@3VCPetZt@@A ; g_PetZt
  03cee	e8 00 00 00 00	 call	 ?Calc@CPetZt@@QAEXH@Z	; CPetZt::Calc

; 1604 : 	#endif
; 1605 : 
; 1606 : 	gMaxPower.Main(aIndex);	//check max parametrs char

  03cf3	57		 push	 edi
  03cf4	b9 00 00 00 00	 mov	 ecx, OFFSET ?gMaxPower@@3VcMaxPower@@A ; gMaxPower
  03cf9	e8 00 00 00 00	 call	 ?Main@cMaxPower@@QAEXH@Z ; cMaxPower::Main

; 1607 : 
; 1608 : #ifdef _VOTER_						
; 1609 : 	gVoter.PlayerCalculator(lpObj->m_Index);

  03cfe	8b 16		 mov	 edx, DWORD PTR [esi]
  03d00	52		 push	 edx
  03d01	b9 00 00 00 00	 mov	 ecx, OFFSET ?gVoter@@3VVoter@@A ; gVoter
  03d06	e8 00 00 00 00	 call	 ?PlayerCalculator@Voter@@QAEXH@Z ; Voter::PlayerCalculator

; 1610 : #endif
; 1611 : 
; 1612 : 	gBalanceSystem.Refflect(lpObj);

  03d0b	56		 push	 esi
  03d0c	b9 00 00 00 00	 mov	 ecx, OFFSET ?gBalanceSystem@@3VcBalanceSystem@@A ; gBalanceSystem
  03d11	e8 00 00 00 00	 call	 ?Refflect@cBalanceSystem@@QAEXPAUOBJECTSTRUCT@@@Z ; cBalanceSystem::Refflect

; 1613 : 
; 1614 : 	if ( lpObj->iShield > ( lpObj->iMaxShield + lpObj->iAddShield ) )

  03d16	8b 86 5c 01 00
	00		 mov	 eax, DWORD PTR [esi+348]
  03d1c	03 86 58 01 00
	00		 add	 eax, DWORD PTR [esi+344]
  03d22	39 86 54 01 00
	00		 cmp	 DWORD PTR [esi+340], eax
  03d28	7e 25		 jle	 SHORT $LN457@gObjCalCha

; 1615 : 	{
; 1616 : 		lpObj->iShield = lpObj->iMaxShield + lpObj->iAddShield ;
; 1617 : 		GCReFillSend(lpObj->m_Index, lpObj->Life, 0xFF, 0, lpObj->iShield);

  03d2a	50		 push	 eax
  03d2b	89 86 54 01 00
	00		 mov	 DWORD PTR [esi+340], eax
  03d31	d9 86 fc 00 00
	00		 fld	 DWORD PTR [esi+252]
  03d37	6a 00		 push	 0
  03d39	68 ff 00 00 00	 push	 255			; 000000ffH
  03d3e	e8 00 00 00 00	 call	 __ftol2_sse
  03d43	8b 16		 mov	 edx, DWORD PTR [esi]
  03d45	50		 push	 eax
  03d46	52		 push	 edx
  03d47	e8 00 00 00 00	 call	 ?GCReFillSend@@YAXHHEEH@Z ; GCReFillSend
  03d4c	83 c4 14	 add	 esp, 20			; 00000014H
$LN457@gObjCalCha:

; 1618 : 	}
; 1619 : 
; 1620 : 	GCReFillSend(lpObj->m_Index, (lpObj->MaxLife + lpObj->AddLife), 0xFE, 0, (lpObj->iMaxShield + lpObj->iAddShield));

  03d4f	8b 86 5c 01 00
	00		 mov	 eax, DWORD PTR [esi+348]
  03d55	d9 86 00 01 00
	00		 fld	 DWORD PTR [esi+256]
  03d5b	03 86 58 01 00
	00		 add	 eax, DWORD PTR [esi+344]
  03d61	da 86 4c 01 00
	00		 fiadd	 DWORD PTR [esi+332]
  03d67	50		 push	 eax
  03d68	6a 00		 push	 0
  03d6a	68 fe 00 00 00	 push	 254			; 000000feH
  03d6f	e8 00 00 00 00	 call	 __ftol2_sse
  03d74	8b 0e		 mov	 ecx, DWORD PTR [esi]
  03d76	50		 push	 eax
  03d77	51		 push	 ecx
  03d78	e8 00 00 00 00	 call	 ?GCReFillSend@@YAXHHEEH@Z ; GCReFillSend

; 1621 : 	GCManaSend(lpObj->m_Index, (lpObj->MaxMana + lpObj->AddMana), 0xFE, 0, (lpObj->MaxBP + lpObj->AddBP));

  03d7d	db 86 50 01 00
	00		 fild	 DWORD PTR [esi+336]
  03d83	8b 96 30 01 00
	00		 mov	 edx, DWORD PTR [esi+304]
  03d89	03 96 2c 01 00
	00		 add	 edx, DWORD PTR [esi+300]
  03d8f	d8 86 14 01 00
	00		 fadd	 DWORD PTR [esi+276]
  03d95	83 c4 14	 add	 esp, 20			; 00000014H
  03d98	52		 push	 edx
  03d99	6a 00		 push	 0
  03d9b	68 fe 00 00 00	 push	 254			; 000000feH
  03da0	e8 00 00 00 00	 call	 __ftol2_sse
  03da5	50		 push	 eax
  03da6	8b 06		 mov	 eax, DWORD PTR [esi]
  03da8	50		 push	 eax
  03da9	e8 00 00 00 00	 call	 ?GCManaSend@@YAXHHEEH@Z	; GCManaSend
  03dae	83 c4 14	 add	 esp, 20			; 00000014H

; 1622 : 
; 1623 : #ifdef DEBUG_CODE2
; 1624 : 	LogAddC(2,"FINAL DAMAGE: %d",lpObj->m_AttackDamageMaxRight);
; 1625 : #endif
; 1626 : 
; 1627 : 	gWingsDamage.PlayerCalculator(aIndex);

  03db1	57		 push	 edi
  03db2	b9 00 00 00 00	 mov	 ecx, OFFSET ?gWingsDamage@@3VcWingsDamage@@A ; gWingsDamage
  03db7	e8 00 00 00 00	 call	 ?PlayerCalculator@cWingsDamage@@QAEXH@Z ; cWingsDamage::PlayerCalculator

; 1628 : 
; 1629 : 	#if(DEV_STATS_ADVANCE)
; 1630 : 	g_StatsAdvance.Send(aIndex);

  03dbc	57		 push	 edi
  03dbd	b9 00 00 00 00	 mov	 ecx, OFFSET ?g_StatsAdvance@@3VCStatsAdvance@@A ; g_StatsAdvance
  03dc2	e8 00 00 00 00	 call	 ?Send@CStatsAdvance@@QAEXH@Z ; CStatsAdvance::Send

; 1631 : 	#endif
; 1632 : }

  03dc7	8b 4d fc	 mov	 ecx, DWORD PTR __$ArrayPad$[ebp]
  03dca	5f		 pop	 edi
  03dcb	5e		 pop	 esi
  03dcc	33 cd		 xor	 ecx, ebp
  03dce	5b		 pop	 ebx
  03dcf	e8 00 00 00 00	 call	 @__security_check_cookie@4
  03dd4	8b e5		 mov	 esp, ebp
  03dd6	5d		 pop	 ebp
  03dd7	c3		 ret	 0
?gObjCalCharacter@@YAXH@Z ENDP				; gObjCalCharacter
_TEXT	ENDS
END
