; Listing generated by Microsoft (R) Optimizing Compiler Version 16.00.30319.01 

	TITLE	E:\work\tranet_version\GS\GameServer\OfflineMode.cpp
	.686P
	.XMM
	include listing.inc
	.model	flat

INCLUDELIB LIBCMT
INCLUDELIB OLDNAMES

_DATA	SEGMENT
_g_iNpcUpDfLevel_CGATE DD 01H
	DD	02H
	DD	02dc6c0H
	DD	02H
	DD	03H
	DD	02dc6c0H
	DD	03H
	DD	04H
	DD	02dc6c0H
_g_iNpcUpDfLevel_CSTATUE DD 01H
	DD	03H
	DD	02dc6c0H
	DD	02H
	DD	05H
	DD	02dc6c0H
	DD	03H
	DD	07H
	DD	02dc6c0H
_g_iNpcUpMaxHP_CGATE DD 02625a0H
	DD	02H
	DD	0f4240H
	DD	03567e0H
	DD	03H
	DD	0f4240H
	DD	04f5880H
	DD	04H
	DD	0f4240H
_g_iNpcUpMaxHP_CSTATUE DD 02191c0H
	DD	03H
	DD	0f4240H
	DD	033e140H
	DD	05H
	DD	0f4240H
	DD	04c4b40H
	DD	07H
	DD	0f4240H
_g_iNpcUpRgLevel_CSTATUE DD 01H
	DD	03H
	DD	04c4b40H
	DD	02H
	DD	05H
	DD	04c4b40H
	DD	03H
	DD	07H
	DD	04c4b40H
_g_iCsUserReSpawnArea DD 023H
	DD	011H
	DD	090H
	DD	030H
	DD	04aH
	DD	090H
	DD	073H
	DD	09aH
	DD	023H
	DD	011H
	DD	090H
	DD	030H
_g_iNpcDefense_CGATE DD 064H
	DD	0b4H
	DD	012cH
	DD	0208H
_g_iNpcDefense_CSTATUE DD 050H
	DD	0b4H
	DD	0154H
	DD	0226H
_g_iCastleWallStepAxisY DD 071H
	DD	0a0H
	DD	0cbH
_DATA	ENDS
PUBLIC	?set@PBMSG_HEAD2@@QAEXPAEEEE@Z			; PBMSG_HEAD2::set
; Function compile flags: /Ogtp
; File e:\work\tranet_version\gs\include\prodef.h
;	COMDAT ?set@PBMSG_HEAD2@@QAEXPAEEEE@Z
_TEXT	SEGMENT
_lpBuf$ = 8						; size = 4
_head$ = 12						; size = 1
_sub$ = 16						; size = 1
_size$ = 20						; size = 1
?set@PBMSG_HEAD2@@QAEXPAEEEE@Z PROC			; PBMSG_HEAD2::set, COMDAT
; _this$ = ecx

; 104  : 	{

  00000	55		 push	 ebp
  00001	8b ec		 mov	 ebp, esp

; 105  : 		lpBuf[0] = 0xC1;

  00003	8b 45 08	 mov	 eax, DWORD PTR _lpBuf$[ebp]

; 106  : 		lpBuf[1] = size;

  00006	8a 4d 14	 mov	 cl, BYTE PTR _size$[ebp]

; 107  : 		lpBuf[2] = head;

  00009	8a 55 0c	 mov	 dl, BYTE PTR _head$[ebp]
  0000c	88 48 01	 mov	 BYTE PTR [eax+1], cl

; 108  : 		lpBuf[3] = sub;

  0000f	8a 4d 10	 mov	 cl, BYTE PTR _sub$[ebp]
  00012	c6 00 c1	 mov	 BYTE PTR [eax], 193	; 000000c1H
  00015	88 50 02	 mov	 BYTE PTR [eax+2], dl
  00018	88 48 03	 mov	 BYTE PTR [eax+3], cl

; 109  : 	};

  0001b	5d		 pop	 ebp
  0001c	c2 10 00	 ret	 16			; 00000010H
?set@PBMSG_HEAD2@@QAEXPAEEEE@Z ENDP			; PBMSG_HEAD2::set
_TEXT	ENDS
PUBLIC	?set@PWMSG_HEAD@@QAEXPAEEH@Z			; PWMSG_HEAD::set
; Function compile flags: /Ogtp
;	COMDAT ?set@PWMSG_HEAD@@QAEXPAEEH@Z
_TEXT	SEGMENT
_lpBuf$ = 8						; size = 4
_head$ = 12						; size = 1
_size$ = 16						; size = 4
?set@PWMSG_HEAD@@QAEXPAEEH@Z PROC			; PWMSG_HEAD::set, COMDAT
; _this$ = ecx

; 122  : 	{

  00000	55		 push	 ebp
  00001	8b ec		 mov	 ebp, esp

; 123  : 		lpBuf[0] = 0xC2;

  00003	8b 45 08	 mov	 eax, DWORD PTR _lpBuf$[ebp]

; 124  : 		lpBuf[1] = SET_NUMBERH(size);

  00006	8b 4d 10	 mov	 ecx, DWORD PTR _size$[ebp]
  00009	8b d1		 mov	 edx, ecx

; 125  : 		lpBuf[2] = SET_NUMBERL(size);

  0000b	88 48 02	 mov	 BYTE PTR [eax+2], cl

; 126  : 		lpBuf[3] = head;

  0000e	8a 4d 0c	 mov	 cl, BYTE PTR _head$[ebp]
  00011	c1 ea 08	 shr	 edx, 8
  00014	c6 00 c2	 mov	 BYTE PTR [eax], 194	; 000000c2H
  00017	88 50 01	 mov	 BYTE PTR [eax+1], dl
  0001a	88 48 03	 mov	 BYTE PTR [eax+3], cl

; 127  : 	};

  0001d	5d		 pop	 ebp
  0001e	c2 0c 00	 ret	 12			; 0000000cH
?set@PWMSG_HEAD@@QAEXPAEEH@Z ENDP			; PWMSG_HEAD::set
_TEXT	ENDS
PUBLIC	??2@YAPAXIPAX@Z					; operator new
; Function compile flags: /Ogtp
; File d:\program files (x86)\microsoft visual studio 10.0\vc\include\new.h
;	COMDAT ??2@YAPAXIPAX@Z
_TEXT	SEGMENT
___formal$ = 8						; size = 4
__Where$ = 12						; size = 4
??2@YAPAXIPAX@Z PROC					; operator new, COMDAT

; 81   :         {return (_Where); }

  00000	55		 push	 ebp
  00001	8b ec		 mov	 ebp, esp
  00003	8b 45 0c	 mov	 eax, DWORD PTR __Where$[ebp]
  00006	5d		 pop	 ebp
  00007	c3		 ret	 0
??2@YAPAXIPAX@Z ENDP					; operator new
_TEXT	ENDS
PUBLIC	??3@YAXPAX0@Z					; operator delete
; Function compile flags: /Ogtp
;	COMDAT ??3@YAXPAX0@Z
_TEXT	SEGMENT
___formal$ = 8						; size = 4
___formal$ = 12						; size = 4
??3@YAXPAX0@Z PROC					; operator delete, COMDAT

; 83   :         {return; }

  00000	c3		 ret	 0
??3@YAXPAX0@Z ENDP					; operator delete
_TEXT	ENDS
PUBLIC	??_H@YGXPAXIHP6EPAX0@Z@Z			; `vector constructor iterator'
; Function compile flags: /Ogtp
;	COMDAT ??_H@YGXPAXIHP6EPAX0@Z@Z
_TEXT	SEGMENT
___t$ = 8						; size = 4
___s$ = 12						; size = 4
___n$ = 16						; size = 4
___f$ = 20						; size = 4
??_H@YGXPAXIHP6EPAX0@Z@Z PROC				; `vector constructor iterator', COMDAT
  00000	55		 push	 ebp
  00001	8b ec		 mov	 ebp, esp
  00003	57		 push	 edi
  00004	8b 7d 10	 mov	 edi, DWORD PTR ___n$[ebp]
  00007	4f		 dec	 edi
  00008	78 14		 js	 SHORT $LN1@vector
  0000a	53		 push	 ebx
  0000b	8b 5d 14	 mov	 ebx, DWORD PTR ___f$[ebp]
  0000e	56		 push	 esi
  0000f	8b 75 08	 mov	 esi, DWORD PTR ___t$[ebp]
$LL2@vector:
  00012	8b ce		 mov	 ecx, esi
  00014	ff d3		 call	 ebx
  00016	03 75 0c	 add	 esi, DWORD PTR ___s$[ebp]
  00019	4f		 dec	 edi
  0001a	79 f6		 jns	 SHORT $LL2@vector
  0001c	5e		 pop	 esi
  0001d	5b		 pop	 ebx
$LN1@vector:
  0001e	5f		 pop	 edi
  0001f	5d		 pop	 ebp
  00020	c2 10 00	 ret	 16			; 00000010H
??_H@YGXPAXIHP6EPAX0@Z@Z ENDP				; `vector constructor iterator'
_TEXT	ENDS
PUBLIC	?MagicGladiator@OfflineMode@@QAEXH@Z		; OfflineMode::MagicGladiator
EXTRN	?gObjAttack@@YAHPAUOBJECTSTRUCT@@0PAVCMagicInf@@HEHHEE@Z:PROC ; gObjAttack
EXTRN	?gObjCalDistance@@YAHPAUOBJECTSTRUCT@@0@Z:PROC	; gObjCalDistance
EXTRN	?InSafeZone@ZtUser@@QAE_NH@Z:PROC		; ZtUser::InSafeZone
EXTRN	?g_ZtUser@@3VZtUser@@A:BYTE			; g_ZtUser
EXTRN	?UseSkill@CObjUseSkill@@QAEXHPAVCMagicInf@@EEEEH@Z:PROC ; CObjUseSkill::UseSkill
EXTRN	?gObjUseSkill@@3VCObjUseSkill@@A:DWORD		; gObjUseSkill
EXTRN	?gObjGetMagicSearch@@YAPAVCMagicInf@@PAUOBJECTSTRUCT@@H@Z:PROC ; gObjGetMagicSearch
EXTRN	?gObj@@3PAUOBJECTSTRUCT@@A:DWORD		; gObj
EXTRN	?gObjIsConnectedZt@@YA_NH@Z:PROC		; gObjIsConnectedZt
; Function compile flags: /Ogtp
; File e:\work\tranet_version\gs\gameserver\offlinemode.cpp
;	COMDAT ?MagicGladiator@OfflineMode@@QAEXH@Z
_TEXT	SEGMENT
_lpMagic$ = -8						; size = 4
tv171 = -4						; size = 4
_MaxDis$ = 8						; size = 4
_UserIndex$ = 8						; size = 4
?MagicGladiator@OfflineMode@@QAEXH@Z PROC		; OfflineMode::MagicGladiator, COMDAT
; _this$ = ecx

; 915  : {

  00000	55		 push	 ebp
  00001	8b ec		 mov	 ebp, esp
  00003	83 ec 08	 sub	 esp, 8
  00006	57		 push	 edi

; 916  : 	if(!gObjIsConnectedZt(UserIndex))

  00007	8b 7d 08	 mov	 edi, DWORD PTR _UserIndex$[ebp]
  0000a	57		 push	 edi
  0000b	e8 00 00 00 00	 call	 ?gObjIsConnectedZt@@YA_NH@Z ; gObjIsConnectedZt
  00010	83 c4 04	 add	 esp, 4
  00013	84 c0		 test	 al, al
  00015	0f 84 8e 01 00
	00		 je	 $LN6@MagicGladi

; 917  : 	{
; 918  : 		return;
; 919  : 	}
; 920  : 
; 921  : 	LPOBJ lpUser = &gObj[UserIndex];

  0001b	56		 push	 esi
  0001c	8b f7		 mov	 esi, edi
  0001e	69 f6 50 2b 00
	00		 imul	 esi, 11088		; 00002b50H
  00024	03 35 00 00 00
	00		 add	 esi, DWORD PTR ?gObj@@3PAUOBJECTSTRUCT@@A ; gObj

; 922  : 
; 923  : 	CMagicInf *lpMagic;
; 924  : 
; 925  : 	// Ignore Buff
; 926  : 	/*if(lpUser->m_OfflineAutoBuff == true && lpUser->m_OfflineBuffTime == 0)
; 927  : 	{
; 928  : 		lpMagic = gObjGetMagicSearch(lpUser, 266);
; 929  : 		if(lpMagic != NULL) 
; 930  : 		{		
; 931  : 			gObjUseSkill.UseSkill(lpUser->m_Index, lpUser->m_Index, lpMagic);
; 932  : 		}
; 933  : 	}*/
; 934  : 
; 935  : 	lpUser->m_OfflineBuffTime++;

  0002a	fe 86 d8 28 00
	00		 inc	 BYTE PTR [esi+10456]

; 936  : 	if(lpUser->m_OfflineBuffTime >= OFFMAXTIME_FOR_BUFF)

  00030	80 be d8 28 00
	00 14		 cmp	 BYTE PTR [esi+10456], 20 ; 00000014H
  00037	72 07		 jb	 SHORT $LN20@MagicGladi

; 937  : 	{
; 938  : 		lpUser->m_OfflineBuffTime = 0;

  00039	c6 86 d8 28 00
	00 00		 mov	 BYTE PTR [esi+10456], 0
$LN20@MagicGladi:

; 939  : 	}
; 940  : 
; 941  : 	lpMagic = gObjGetMagicSearch(lpUser, lpUser->m_OfflineSkill);

  00040	0f b7 86 d6 28
	00 00		 movzx	 eax, WORD PTR [esi+10454]
  00047	50		 push	 eax
  00048	56		 push	 esi
  00049	e8 00 00 00 00	 call	 ?gObjGetMagicSearch@@YAPAVCMagicInf@@PAUOBJECTSTRUCT@@H@Z ; gObjGetMagicSearch
  0004e	8b c8		 mov	 ecx, eax
  00050	83 c4 08	 add	 esp, 8
  00053	89 4d f8	 mov	 DWORD PTR _lpMagic$[ebp], ecx

; 942  : 
; 943  : 	if(!lpMagic)

  00056	85 c9		 test	 ecx, ecx
  00058	0f 84 4a 01 00
	00		 je	 $LN30@MagicGladi

; 944  : 	{
; 945  : 		return;
; 946  : 	}
; 947  : 
; 948  : 	int tObjNum;
; 949  : 	int MaxDis = 0;
; 950  : 
; 951  : 	if(lpUser->m_OfflineSkill == 9 || lpUser->m_OfflineSkill == 237 || lpUser->m_OfflineSkill == 487)

  0005e	0f b7 86 d6 28
	00 00		 movzx	 eax, WORD PTR [esi+10454]
  00065	c7 45 08 00 00
	00 00		 mov	 DWORD PTR _MaxDis$[ebp], 0
  0006c	83 f8 09	 cmp	 eax, 9
  0006f	74 58		 je	 SHORT $LN17@MagicGladi
  00071	ba ed 00 00 00	 mov	 edx, 237		; 000000edH
  00076	66 3b c2	 cmp	 ax, dx
  00079	74 4e		 je	 SHORT $LN17@MagicGladi
  0007b	ba e7 01 00 00	 mov	 edx, 487		; 000001e7H
  00080	66 3b c2	 cmp	 ax, dx
  00083	74 44		 je	 SHORT $LN17@MagicGladi

; 954  : 	}
; 955  : 	else if(lpUser->m_OfflineSkill == 41 || lpUser->m_OfflineSkill == 330 || lpUser->m_OfflineSkill == 332 || lpUser->m_OfflineSkill == 481)

  00085	83 f8 29	 cmp	 eax, 41			; 00000029H
  00088	74 36		 je	 SHORT $LN14@MagicGladi
  0008a	ba 4a 01 00 00	 mov	 edx, 330		; 0000014aH
  0008f	66 3b c2	 cmp	 ax, dx
  00092	74 2c		 je	 SHORT $LN14@MagicGladi
  00094	ba 4c 01 00 00	 mov	 edx, 332		; 0000014cH
  00099	66 3b c2	 cmp	 ax, dx
  0009c	74 22		 je	 SHORT $LN14@MagicGladi
  0009e	ba e1 01 00 00	 mov	 edx, 481		; 000001e1H
  000a3	66 3b c2	 cmp	 ax, dx
  000a6	74 18		 je	 SHORT $LN14@MagicGladi

; 958  : 	}
; 959  : 	else if(lpUser->m_OfflineSkill == 56 || lpUser->m_OfflineSkill == 482)

  000a8	83 f8 38	 cmp	 eax, 56			; 00000038H
  000ab	74 0a		 je	 SHORT $LN11@MagicGladi
  000ad	ba e2 01 00 00	 mov	 edx, 482		; 000001e2H
  000b2	66 3b c2	 cmp	 ax, dx
  000b5	75 19		 jne	 SHORT $LN12@MagicGladi
$LN11@MagicGladi:

; 960  : 	{
; 961  : 		MaxDis = 5;

  000b7	c7 45 08 05 00
	00 00		 mov	 DWORD PTR _MaxDis$[ebp], 5
  000be	eb 10		 jmp	 SHORT $LN12@MagicGladi
$LN14@MagicGladi:

; 956  : 	{
; 957  : 		MaxDis = 2;

  000c0	c7 45 08 02 00
	00 00		 mov	 DWORD PTR _MaxDis$[ebp], 2
  000c7	eb 07		 jmp	 SHORT $LN12@MagicGladi
$LN17@MagicGladi:

; 952  : 	{
; 953  : 		MaxDis = 6;

  000c9	c7 45 08 06 00
	00 00		 mov	 DWORD PTR _MaxDis$[ebp], 6
$LN12@MagicGladi:

; 962  : 	}
; 963  : 
; 964  : 	// Evil Spirit or Inferno
; 965  : 	if(lpUser->m_OfflineSkill == 9 || lpUser->m_OfflineSkill == 41 || lpUser->m_OfflineSkill == 56 || lpUser->m_OfflineSkill == 237 || lpUser->m_OfflineSkill == 487)

  000d0	83 f8 09	 cmp	 eax, 9
  000d3	74 22		 je	 SHORT $LN9@MagicGladi
  000d5	83 f8 29	 cmp	 eax, 41			; 00000029H
  000d8	74 1d		 je	 SHORT $LN9@MagicGladi
  000da	83 f8 38	 cmp	 eax, 56			; 00000038H
  000dd	74 18		 je	 SHORT $LN9@MagicGladi
  000df	ba ed 00 00 00	 mov	 edx, 237		; 000000edH
  000e4	66 3b c2	 cmp	 ax, dx
  000e7	74 0e		 je	 SHORT $LN9@MagicGladi
  000e9	ba e7 01 00 00	 mov	 edx, 487		; 000001e7H
  000ee	66 3b c2	 cmp	 ax, dx
  000f1	0f 85 b1 00 00
	00		 jne	 $LN30@MagicGladi
$LN9@MagicGladi:

; 966  : 	{
; 967  : 		gObjUseSkill.UseSkill(UserIndex, lpMagic, lpUser->X, lpUser->Y, 0, 0, -1);

  000f7	0f b6 86 46 01
	00 00		 movzx	 eax, BYTE PTR [esi+326]
  000fe	0f b6 96 44 01
	00 00		 movzx	 edx, BYTE PTR [esi+324]
  00105	53		 push	 ebx
  00106	6a ff		 push	 -1
  00108	6a 00		 push	 0
  0010a	6a 00		 push	 0
  0010c	50		 push	 eax
  0010d	52		 push	 edx
  0010e	51		 push	 ecx
  0010f	57		 push	 edi
  00110	b9 00 00 00 00	 mov	 ecx, OFFSET ?gObjUseSkill@@3VCObjUseSkill@@A ; gObjUseSkill
  00115	e8 00 00 00 00	 call	 ?UseSkill@CObjUseSkill@@QAEXHPAVCMagicInf@@EEEEH@Z ; CObjUseSkill::UseSkill
  0011a	8d 9e ac 08 00
	00		 lea	 ebx, DWORD PTR [esi+2220]
  00120	c7 45 fc 4b 00
	00 00		 mov	 DWORD PTR tv171[ebp], 75 ; 0000004bH
$LL8@MagicGladi:

; 970  : 		{
; 971  : 			tObjNum = lpUser->VpPlayer2[n].number;
; 972  : 
; 973  : 			if(lpUser->VpPlayer2[n].state == 0)

  00127	80 3b 00	 cmp	 BYTE PTR [ebx], 0
  0012a	0f bf 43 02	 movsx	 eax, WORD PTR [ebx+2]
  0012e	74 6f		 je	 SHORT $LN7@MagicGladi

; 974  : 			{
; 975  : 				continue;
; 976  : 			}
; 977  : 			if (OBJMAX_RANGE(tObjNum) == FALSE)

  00130	85 c0		 test	 eax, eax
  00132	78 6b		 js	 SHORT $LN7@MagicGladi
  00134	33 c9		 xor	 ecx, ecx
  00136	3d 97 3a 00 00	 cmp	 eax, 14999		; 00003a97H
  0013b	0f 9e c1	 setle	 cl
  0013e	85 c9		 test	 ecx, ecx
  00140	74 5d		 je	 SHORT $LN7@MagicGladi

; 978  : 			{
; 979  : 				continue;
; 980  : 			}
; 981  : 			if ( gObj[tObjNum].Type != OBJ_MONSTER )

  00142	8b 0d 00 00 00
	00		 mov	 ecx, DWORD PTR ?gObj@@3PAUOBJECTSTRUCT@@A ; gObj
  00148	8b f8		 mov	 edi, eax
  0014a	69 ff 50 2b 00
	00		 imul	 edi, 11088		; 00002b50H
  00150	66 83 7c 0f 68
	02		 cmp	 WORD PTR [edi+ecx+104], 2
  00156	75 47		 jne	 SHORT $LN7@MagicGladi

; 982  : 			{
; 983  : 				continue;
; 984  : 			}
; 985  : 			if(g_ZtUser.InSafeZone(tObjNum) == true)

  00158	50		 push	 eax
  00159	b9 00 00 00 00	 mov	 ecx, OFFSET ?g_ZtUser@@3VZtUser@@A ; g_ZtUser
  0015e	e8 00 00 00 00	 call	 ?InSafeZone@ZtUser@@QAE_NH@Z ; ZtUser::InSafeZone
  00163	3c 01		 cmp	 al, 1
  00165	74 38		 je	 SHORT $LN7@MagicGladi

; 986  : 			{
; 987  : 				continue;
; 988  : 			}
; 989  : 			if(MaxDis >= gObjCalDistance(lpUser, &gObj[tObjNum]))

  00167	8b 15 00 00 00
	00		 mov	 edx, DWORD PTR ?gObj@@3PAUOBJECTSTRUCT@@A ; gObj
  0016d	8d 04 17	 lea	 eax, DWORD PTR [edi+edx]
  00170	50		 push	 eax
  00171	56		 push	 esi
  00172	e8 00 00 00 00	 call	 ?gObjCalDistance@@YAHPAUOBJECTSTRUCT@@0@Z ; gObjCalDistance
  00177	83 c4 08	 add	 esp, 8
  0017a	39 45 08	 cmp	 DWORD PTR _MaxDis$[ebp], eax
  0017d	7c 20		 jl	 SHORT $LN7@MagicGladi

; 990  : 			{
; 991  : 				gObjAttack(lpUser, &gObj[tObjNum], lpMagic, FALSE, 1, 0, FALSE, 0, 0);

  0017f	8b 4d f8	 mov	 ecx, DWORD PTR _lpMagic$[ebp]
  00182	03 3d 00 00 00
	00		 add	 edi, DWORD PTR ?gObj@@3PAUOBJECTSTRUCT@@A ; gObj
  00188	6a 00		 push	 0
  0018a	6a 00		 push	 0
  0018c	6a 00		 push	 0
  0018e	6a 00		 push	 0
  00190	6a 01		 push	 1
  00192	6a 00		 push	 0
  00194	51		 push	 ecx
  00195	57		 push	 edi
  00196	56		 push	 esi
  00197	e8 00 00 00 00	 call	 ?gObjAttack@@YAHPAUOBJECTSTRUCT@@0PAVCMagicInf@@HEHHEE@Z ; gObjAttack
  0019c	83 c4 24	 add	 esp, 36			; 00000024H
$LN7@MagicGladi:

; 968  : 
; 969  : 		for (int n=0;n<MAX_VIEWPORT_MONSTER;n++)

  0019f	83 c3 0c	 add	 ebx, 12			; 0000000cH
  001a2	ff 4d fc	 dec	 DWORD PTR tv171[ebp]
  001a5	75 80		 jne	 SHORT $LL8@MagicGladi
  001a7	5b		 pop	 ebx
$LN30@MagicGladi:
  001a8	5e		 pop	 esi
$LN6@MagicGladi:
  001a9	5f		 pop	 edi

; 992  : 			}
; 993  : 		}
; 994  : 	}
; 995  : }

  001aa	8b e5		 mov	 esp, ebp
  001ac	5d		 pop	 ebp
  001ad	c2 04 00	 ret	 4
?MagicGladiator@OfflineMode@@QAEXH@Z ENDP		; OfflineMode::MagicGladiator
_TEXT	ENDS
PUBLIC	__$ArrayPad$
PUBLIC	?SearchTarget@OfflineMode@@QAEHHH@Z		; OfflineMode::SearchTarget
EXTRN	_rand:PROC
EXTRN	___security_cookie:DWORD
EXTRN	@__security_check_cookie@4:PROC
; Function compile flags: /Ogtp
;	COMDAT ?SearchTarget@OfflineMode@@QAEHHH@Z
_TEXT	SEGMENT
_lpUser$ = -316						; size = 4
tv154 = -312						; size = 4
_TargetCount$ = -308					; size = 4
_TargetIndex$ = -304					; size = 300
__$ArrayPad$ = -4					; size = 4
_UserIndex$ = 8						; size = 4
_maxdis$ = 12						; size = 4
?SearchTarget@OfflineMode@@QAEHHH@Z PROC		; OfflineMode::SearchTarget, COMDAT
; _this$ = ecx

; 1342 : {

  00000	55		 push	 ebp
  00001	8b ec		 mov	 ebp, esp
  00003	81 ec 3c 01 00
	00		 sub	 esp, 316		; 0000013cH
  00009	a1 00 00 00 00	 mov	 eax, DWORD PTR ___security_cookie
  0000e	33 c5		 xor	 eax, ebp
  00010	89 45 fc	 mov	 DWORD PTR __$ArrayPad$[ebp], eax
  00013	56		 push	 esi
  00014	8b 75 08	 mov	 esi, DWORD PTR _UserIndex$[ebp]

; 1343 : 	if(!gObjIsConnectedZt(UserIndex))

  00017	56		 push	 esi
  00018	e8 00 00 00 00	 call	 ?gObjIsConnectedZt@@YA_NH@Z ; gObjIsConnectedZt
  0001d	83 c4 04	 add	 esp, 4
  00020	84 c0		 test	 al, al
  00022	75 14		 jne	 SHORT $LN10@SearchTarg
$LN20@SearchTarg:

; 1344 : 	{
; 1345 : 		return -1;

  00024	83 c8 ff	 or	 eax, -1
  00027	5e		 pop	 esi

; 1388 : 
; 1389 : 	searchtarget = TargetIndex[IndexNumber];
; 1390 : 
; 1391 : 	return searchtarget;
; 1392 : }

  00028	8b 4d fc	 mov	 ecx, DWORD PTR __$ArrayPad$[ebp]
  0002b	33 cd		 xor	 ecx, ebp
  0002d	e8 00 00 00 00	 call	 @__security_check_cookie@4
  00032	8b e5		 mov	 esp, ebp
  00034	5d		 pop	 ebp
  00035	c2 08 00	 ret	 8
$LN10@SearchTarg:

; 1346 : 	}
; 1347 : 
; 1348 : 	LPOBJ lpUser = &gObj[UserIndex];

  00038	69 f6 50 2b 00
	00		 imul	 esi, 11088		; 00002b50H
  0003e	03 35 00 00 00
	00		 add	 esi, DWORD PTR ?gObj@@3PAUOBJECTSTRUCT@@A ; gObj
  00044	53		 push	 ebx
  00045	57		 push	 edi
  00046	89 b5 c4 fe ff
	ff		 mov	 DWORD PTR _lpUser$[ebp], esi

; 1349 : 
; 1350 : 	int searchtarget = -1;
; 1351 : 	int TargetIndex[MAX_VIEWPORT_MONSTER];
; 1352 : 	int TargetCount = 0;

  0004c	c7 85 cc fe ff
	ff 00 00 00 00	 mov	 DWORD PTR _TargetCount$[ebp], 0
  00056	8d 9e ac 08 00
	00		 lea	 ebx, DWORD PTR [esi+2220]
  0005c	c7 85 c8 fe ff
	ff 4b 00 00 00	 mov	 DWORD PTR tv154[ebp], 75 ; 0000004bH
$LL19@SearchTarg:

; 1356 : 	{
; 1357 : 		int tObjNum = lpUser->VpPlayer2[n].number;
; 1358 : 
; 1359 : 		if(lpUser->VpPlayer2[n].state == 0)

  00066	80 3b 00	 cmp	 BYTE PTR [ebx], 0
  00069	0f bf 7b 02	 movsx	 edi, WORD PTR [ebx+2]
  0006d	74 66		 je	 SHORT $LN8@SearchTarg

; 1360 : 		{
; 1361 : 			continue;
; 1362 : 		}
; 1363 : 		if (OBJMAX_RANGE(tObjNum) == FALSE)

  0006f	85 ff		 test	 edi, edi
  00071	78 62		 js	 SHORT $LN8@SearchTarg
  00073	33 c0		 xor	 eax, eax
  00075	81 ff 97 3a 00
	00		 cmp	 edi, 14999		; 00003a97H
  0007b	0f 9e c0	 setle	 al
  0007e	85 c0		 test	 eax, eax
  00080	74 53		 je	 SHORT $LN8@SearchTarg

; 1364 : 		{
; 1365 : 			continue;
; 1366 : 		}
; 1367 : 		if ( gObj[tObjNum].Type != OBJ_MONSTER )

  00082	a1 00 00 00 00	 mov	 eax, DWORD PTR ?gObj@@3PAUOBJECTSTRUCT@@A ; gObj
  00087	8b f7		 mov	 esi, edi
  00089	69 f6 50 2b 00
	00		 imul	 esi, 11088		; 00002b50H
  0008f	66 83 7c 06 68
	02		 cmp	 WORD PTR [esi+eax+104], 2
  00095	75 3e		 jne	 SHORT $LN8@SearchTarg

; 1368 : 		{
; 1369 : 			continue;
; 1370 : 		}
; 1371 : 		if(g_ZtUser.InSafeZone(tObjNum) == true)

  00097	57		 push	 edi
  00098	b9 00 00 00 00	 mov	 ecx, OFFSET ?g_ZtUser@@3VZtUser@@A ; g_ZtUser
  0009d	e8 00 00 00 00	 call	 ?InSafeZone@ZtUser@@QAE_NH@Z ; ZtUser::InSafeZone
  000a2	3c 01		 cmp	 al, 1
  000a4	74 2f		 je	 SHORT $LN8@SearchTarg

; 1372 : 		{
; 1373 : 			continue;
; 1374 : 		}
; 1375 : 		if(maxdis >= gObjCalDistance(lpUser, &gObj[tObjNum]))

  000a6	03 35 00 00 00
	00		 add	 esi, DWORD PTR ?gObj@@3PAUOBJECTSTRUCT@@A ; gObj
  000ac	8b 95 c4 fe ff
	ff		 mov	 edx, DWORD PTR _lpUser$[ebp]
  000b2	56		 push	 esi
  000b3	52		 push	 edx
  000b4	e8 00 00 00 00	 call	 ?gObjCalDistance@@YAHPAUOBJECTSTRUCT@@0@Z ; gObjCalDistance
  000b9	83 c4 08	 add	 esp, 8
  000bc	39 45 0c	 cmp	 DWORD PTR _maxdis$[ebp], eax
  000bf	7c 14		 jl	 SHORT $LN8@SearchTarg

; 1376 : 		{
; 1377 : 			TargetIndex[TargetCount] = tObjNum;

  000c1	8b 85 cc fe ff
	ff		 mov	 eax, DWORD PTR _TargetCount$[ebp]
  000c7	89 bc 85 d0 fe
	ff ff		 mov	 DWORD PTR _TargetIndex$[ebp+eax*4], edi

; 1378 : 			TargetCount++;

  000ce	40		 inc	 eax
  000cf	89 85 cc fe ff
	ff		 mov	 DWORD PTR _TargetCount$[ebp], eax
$LN8@SearchTarg:

; 1353 : 	int IndexNumber;
; 1354 : 
; 1355 : 	for (int n=0;n<MAX_VIEWPORT_MONSTER;n++)

  000d5	83 c3 0c	 add	 ebx, 12			; 0000000cH
  000d8	ff 8d c8 fe ff
	ff		 dec	 DWORD PTR tv154[ebp]
  000de	75 86		 jne	 SHORT $LL19@SearchTarg

; 1379 : 		}
; 1380 : 	}
; 1381 : 
; 1382 : 	if(TargetCount <= 0)

  000e0	83 bd cc fe ff
	ff 00		 cmp	 DWORD PTR _TargetCount$[ebp], 0
  000e7	5f		 pop	 edi
  000e8	5b		 pop	 ebx

; 1383 : 	{
; 1384 : 		return -1;

  000e9	0f 8e 35 ff ff
	ff		 jle	 $LN20@SearchTarg

; 1385 : 	}
; 1386 : 	
; 1387 : 	IndexNumber = rand()%TargetCount;

  000ef	e8 00 00 00 00	 call	 _rand
  000f4	99		 cdq
  000f5	f7 bd cc fe ff
	ff		 idiv	 DWORD PTR _TargetCount$[ebp]

; 1388 : 
; 1389 : 	searchtarget = TargetIndex[IndexNumber];
; 1390 : 
; 1391 : 	return searchtarget;
; 1392 : }

  000fb	8b 4d fc	 mov	 ecx, DWORD PTR __$ArrayPad$[ebp]
  000fe	33 cd		 xor	 ecx, ebp
  00100	5e		 pop	 esi
  00101	8b 84 95 d0 fe
	ff ff		 mov	 eax, DWORD PTR _TargetIndex$[ebp+edx*4]
  00108	e8 00 00 00 00	 call	 @__security_check_cookie@4
  0010d	8b e5		 mov	 esp, ebp
  0010f	5d		 pop	 ebp
  00110	c2 08 00	 ret	 8
?SearchTarget@OfflineMode@@QAEHHH@Z ENDP		; OfflineMode::SearchTarget
_TEXT	ENDS
PUBLIC	?OffTimer@OfflineMode@@QAE_NHH@Z		; OfflineMode::OffTimer
; Function compile flags: /Ogtp
;	COMDAT ?OffTimer@OfflineMode@@QAE_NHH@Z
_TEXT	SEGMENT
_UserIndex$ = 8						; size = 4
_DivTime$ = 12						; size = 4
?OffTimer@OfflineMode@@QAE_NHH@Z PROC			; OfflineMode::OffTimer, COMDAT
; _this$ = ecx

; 1396 : {

  00000	55		 push	 ebp
  00001	8b ec		 mov	 ebp, esp
  00003	56		 push	 esi

; 1397 : 	if ( OBJMAX_RANGE(UserIndex) == FALSE )

  00004	8b 75 08	 mov	 esi, DWORD PTR _UserIndex$[ebp]
  00007	85 f6		 test	 esi, esi
  00009	78 42		 js	 SHORT $LN2@OffTimer
  0000b	33 c0		 xor	 eax, eax
  0000d	81 fe 97 3a 00
	00		 cmp	 esi, 14999		; 00003a97H
  00013	0f 9e c0	 setle	 al
  00016	85 c0		 test	 eax, eax

; 1398 : 	{
; 1399 : 		return false;

  00018	74 33		 je	 SHORT $LN2@OffTimer

; 1400 : 	}
; 1401 : 
; 1402 : 	if(!gObjIsConnectedZt(UserIndex))

  0001a	56		 push	 esi
  0001b	e8 00 00 00 00	 call	 ?gObjIsConnectedZt@@YA_NH@Z ; gObjIsConnectedZt
  00020	83 c4 04	 add	 esp, 4
  00023	84 c0		 test	 al, al

; 1403 : 	{
; 1404 : 		return false;

  00025	74 26		 je	 SHORT $LN2@OffTimer

; 1405 : 	}
; 1406 : 	
; 1407 : 	LPOBJ lpUser = &gObj[UserIndex];

  00027	8b 55 0c	 mov	 edx, DWORD PTR _DivTime$[ebp]
  0002a	69 f6 50 2b 00
	00		 imul	 esi, 11088		; 00002b50H
  00030	03 35 00 00 00
	00		 add	 esi, DWORD PTR ?gObj@@3PAUOBJECTSTRUCT@@A ; gObj

; 1408 : 
; 1409 : 	for(int i = 0; i < OFFMAXTIME_FOR_BUFF; i++)

  00036	33 c0		 xor	 eax, eax
  00038	0f b6 b6 d8 28
	00 00		 movzx	 esi, BYTE PTR [esi+10456]
  0003f	33 c9		 xor	 ecx, ecx
$LL4@OffTimer:

; 1410 : 	{
; 1411 : 		int res = DivTime * i;
; 1412 : 		if(res == lpUser->m_OfflineBuffTime)

  00041	3b ce		 cmp	 ecx, esi
  00043	74 0f		 je	 SHORT $LN12@OffTimer

; 1408 : 
; 1409 : 	for(int i = 0; i < OFFMAXTIME_FOR_BUFF; i++)

  00045	40		 inc	 eax
  00046	03 ca		 add	 ecx, edx
  00048	83 f8 14	 cmp	 eax, 20			; 00000014H
  0004b	7c f4		 jl	 SHORT $LL4@OffTimer
$LN2@OffTimer:

; 1415 : 		}
; 1416 : 	}
; 1417 : 
; 1418 : 	return false;

  0004d	32 c0		 xor	 al, al
  0004f	5e		 pop	 esi

; 1419 : }

  00050	5d		 pop	 ebp
  00051	c2 08 00	 ret	 8
$LN12@OffTimer:

; 1413 : 		{
; 1414 : 			return true;

  00054	b0 01		 mov	 al, 1
  00056	5e		 pop	 esi

; 1419 : }

  00057	5d		 pop	 ebp
  00058	c2 08 00	 ret	 8
?OffTimer@OfflineMode@@QAE_NHH@Z ENDP			; OfflineMode::OffTimer
_TEXT	ENDS
PUBLIC	??_C@_0O@CKAEPJAF@error?5?3?5?$CFs?5?$CFd?$AA@	; `string'
PUBLIC	??_C@_0BA@JOKPEPKE@OfflineMode?4cpp?$AA@	; `string'
PUBLIC	__$ArrayPad$
PUBLIC	?GCConfig@OfflineMode@@QAEXH@Z			; OfflineMode::GCConfig
EXTRN	?DataSend@@YAHHPAEK@Z:PROC			; DataSend
EXTRN	?LogAdd@@3P6AXPADZZA:DWORD			; LogAdd
;	COMDAT ??_C@_0O@CKAEPJAF@error?5?3?5?$CFs?5?$CFd?$AA@
; File e:\work\tranet_version\gs\include\prodef.h
CONST	SEGMENT
??_C@_0O@CKAEPJAF@error?5?3?5?$CFs?5?$CFd?$AA@ DB 'error : %s %d', 00H ; `string'
CONST	ENDS
;	COMDAT ??_C@_0BA@JOKPEPKE@OfflineMode?4cpp?$AA@
CONST	SEGMENT
??_C@_0BA@JOKPEPKE@OfflineMode?4cpp?$AA@ DB 'OfflineMode.cpp', 00H ; `string'
; Function compile flags: /Ogtp
; File e:\work\tranet_version\gs\gameserver\offlinemode.cpp
CONST	ENDS
;	COMDAT ?GCConfig@OfflineMode@@QAEXH@Z
_TEXT	SEGMENT
_pSend$ = -32						; size = 28
__$ArrayPad$ = -4					; size = 4
_aIndex$ = 8						; size = 4
?GCConfig@OfflineMode@@QAEXH@Z PROC			; OfflineMode::GCConfig, COMDAT
; _this$ = ecx

; 1555 : {

  00000	55		 push	 ebp
  00001	8b ec		 mov	 ebp, esp
  00003	83 ec 20	 sub	 esp, 32			; 00000020H
  00006	a1 00 00 00 00	 mov	 eax, DWORD PTR ___security_cookie
  0000b	33 c5		 xor	 eax, ebp
  0000d	89 45 fc	 mov	 DWORD PTR __$ArrayPad$[ebp], eax
  00010	8b c1		 mov	 eax, ecx
  00012	8b 4d 08	 mov	 ecx, DWORD PTR _aIndex$[ebp]

; 1556 : 	if ( OBJMAX_RANGE(aIndex) == FALSE )

  00015	85 c9		 test	 ecx, ecx
  00017	78 0f		 js	 SHORT $LN8@GCConfig
  00019	33 d2		 xor	 edx, edx
  0001b	81 f9 97 3a 00
	00		 cmp	 ecx, 14999		; 00003a97H
  00021	0f 9e c2	 setle	 dl
  00024	85 d2		 test	 edx, edx
  00026	75 28		 jne	 SHORT $LN1@GCConfig
$LN8@GCConfig:

; 1557 : 	{
; 1558 : 		LogAdd("error : %s %d", __FILE__, __LINE__ );

  00028	68 16 06 00 00	 push	 1558			; 00000616H
  0002d	68 00 00 00 00	 push	 OFFSET ??_C@_0BA@JOKPEPKE@OfflineMode?4cpp?$AA@
  00032	68 00 00 00 00	 push	 OFFSET ??_C@_0O@CKAEPJAF@error?5?3?5?$CFs?5?$CFd?$AA@
  00037	ff 15 00 00 00
	00		 call	 DWORD PTR ?LogAdd@@3P6AXPADZZA ; LogAdd

; 1579 : 	#endif
; 1580 : 
; 1581 : 	DataSend(lpUser->m_Index, (LPBYTE)&pSend, pSend.h.size);

  0003d	83 c4 0c	 add	 esp, 12			; 0000000cH

; 1582 : }

  00040	8b 4d fc	 mov	 ecx, DWORD PTR __$ArrayPad$[ebp]
  00043	33 cd		 xor	 ecx, ebp
  00045	e8 00 00 00 00	 call	 @__security_check_cookie@4
  0004a	8b e5		 mov	 esp, ebp
  0004c	5d		 pop	 ebp
  0004d	c2 04 00	 ret	 4
$LN1@GCConfig:

; 1559 : 		return;
; 1560 : 	}
; 1561 : 
; 1562 : 	LPOBJ lpUser = &gObj[aIndex];
; 1563 : 
; 1564 : 	/*if(lpUser->Connected < PLAYER_PLAYING)
; 1565 : 	{
; 1566 : 		return;
; 1567 : 	}*/
; 1568 : 
; 1569 : 	GC_OFFMODE_CONFIG pSend;
; 1570 : 	pSend.h.set((LPBYTE)&pSend, 0xFB, 0x30, sizeof(pSend));
; 1571 : 	pSend.PriceZen = this->PriceZen;

  00050	8b 50 0c	 mov	 edx, DWORD PTR [eax+12]
  00053	69 c9 50 2b 00
	00		 imul	 ecx, 11088		; 00002b50H
  00059	89 55 e4	 mov	 DWORD PTR _pSend$[ebp+4], edx

; 1572 : 	pSend.PriceWcoin = this->PriceWcoin;

  0005c	8b 50 10	 mov	 edx, DWORD PTR [eax+16]
  0005f	89 55 e8	 mov	 DWORD PTR _pSend$[ebp+8], edx

; 1573 : 	pSend.iHourCredit = this->HourCredit;

  00062	8b 50 14	 mov	 edx, DWORD PTR [eax+20]
  00065	89 55 ec	 mov	 DWORD PTR _pSend$[ebp+12], edx

; 1574 : 
; 1575 : 	#if(ADD_OFFMODE_TIMER)
; 1576 : 	pSend.StandartPlayerTime = this->m_StandartPlayerTime;

  00068	8b 50 1c	 mov	 edx, DWORD PTR [eax+28]
  0006b	89 55 f0	 mov	 DWORD PTR _pSend$[ebp+16], edx

; 1577 : 	pSend.OtherPlayerMaxTime = this->m_OtherPlayerMaxTime;

  0006e	8b 50 20	 mov	 edx, DWORD PTR [eax+32]

; 1578 : 	pSend.PremiumPlayerMaxTime = this->m_PremiumPlayerMaxTime;

  00071	8b 40 24	 mov	 eax, DWORD PTR [eax+36]
  00074	89 55 f4	 mov	 DWORD PTR _pSend$[ebp+20], edx
  00077	89 45 f8	 mov	 DWORD PTR _pSend$[ebp+24], eax

; 1579 : 	#endif
; 1580 : 
; 1581 : 	DataSend(lpUser->m_Index, (LPBYTE)&pSend, pSend.h.size);

  0007a	a1 00 00 00 00	 mov	 eax, DWORD PTR ?gObj@@3PAUOBJECTSTRUCT@@A ; gObj
  0007f	6a 1c		 push	 28			; 0000001cH
  00081	8d 55 e0	 lea	 edx, DWORD PTR _pSend$[ebp]
  00084	c7 45 e0 c1 1c
	fb 30		 mov	 DWORD PTR _pSend$[ebp], 821763265 ; 30fb1cc1H
  0008b	8b 0c 01	 mov	 ecx, DWORD PTR [ecx+eax]
  0008e	52		 push	 edx
  0008f	51		 push	 ecx
  00090	e8 00 00 00 00	 call	 ?DataSend@@YAHHPAEK@Z	; DataSend

; 1582 : }

  00095	8b 4d fc	 mov	 ecx, DWORD PTR __$ArrayPad$[ebp]
  00098	33 cd		 xor	 ecx, ebp
  0009a	83 c4 0c	 add	 esp, 12			; 0000000cH
  0009d	e8 00 00 00 00	 call	 @__security_check_cookie@4
  000a2	8b e5		 mov	 esp, ebp
  000a4	5d		 pop	 ebp
  000a5	c2 04 00	 ret	 4
?GCConfig@OfflineMode@@QAEXH@Z ENDP			; OfflineMode::GCConfig
_TEXT	ENDS
PUBLIC	?AddIndexPlayer@OfflineMode@@QAEFXZ		; OfflineMode::AddIndexPlayer
EXTRN	?gObjCount@@3HA:DWORD				; gObjCount
EXTRN	?gServerMaxUser@@3HA:DWORD			; gServerMaxUser
EXTRN	?gObjTotalUser@@3HA:DWORD			; gObjTotalUser
EXTRN	?gDisconnect@@3HA:DWORD				; gDisconnect
; Function compile flags: /Ogtp
;	COMDAT ?AddIndexPlayer@OfflineMode@@QAEFXZ
_TEXT	SEGMENT
?AddIndexPlayer@OfflineMode@@QAEFXZ PROC		; OfflineMode::AddIndexPlayer, COMDAT
; _this$ = ecx

; 1588 : 	#if(ENABLE_OPTIMIZATION)
; 1589 : 	return g_Optimization.AddObjectOffmoder();
; 1590 : 	#endif
; 1591 : 
; 1592 : 	if(gDisconnect == 1)

  00000	83 3d 00 00 00
	00 01		 cmp	 DWORD PTR ?gDisconnect@@3HA, 1 ; gDisconnect
  00007	75 04		 jne	 SHORT $LN7@AddIndexPl
$LN15@AddIndexPl:

; 1593 : 	{
; 1594 : 		return -1;

  00009	83 c8 ff	 or	 eax, -1

; 1629 : }

  0000c	c3		 ret	 0
$LN7@AddIndexPl:

; 1595 : 	}
; 1596 : 
; 1597 : 	if(gObjTotalUser >= gServerMaxUser)

  0000d	a1 00 00 00 00	 mov	 eax, DWORD PTR ?gObjTotalUser@@3HA ; gObjTotalUser
  00012	3b 05 00 00 00
	00		 cmp	 eax, DWORD PTR ?gServerMaxUser@@3HA ; gServerMaxUser

; 1598 : 	{
; 1599 : 		return -1;

  00018	7d ef		 jge	 SHORT $LN15@AddIndexPl

; 1600 : 	}
; 1601 : 
; 1602 : 	int totalcount = 0;
; 1603 : 	int count = gObjCount;

  0001a	a1 00 00 00 00	 mov	 eax, DWORD PTR ?gObjCount@@3HA ; gObjCount

; 1604 : 	
; 1605 : 	while(true)
; 1606 : 	{
; 1607 : 		if(gObj[count].Connected == PLAYER_EMPTY)

  0001f	8b 15 00 00 00
	00		 mov	 edx, DWORD PTR ?gObj@@3PAUOBJECTSTRUCT@@A ; gObj
  00025	56		 push	 esi
  00026	8b f0		 mov	 esi, eax
  00028	69 f6 50 2b 00
	00		 imul	 esi, 11088		; 00002b50H
  0002e	33 c9		 xor	 ecx, ecx
  00030	39 4c 16 04	 cmp	 DWORD PTR [esi+edx+4], ecx
  00034	74 2a		 je	 SHORT $LN14@AddIndexPl
$LL5@AddIndexPl:

; 1608 : 		{
; 1609 : 			return count;
; 1610 : 			break;
; 1611 : 		}
; 1612 : 
; 1613 : 		count++;

  00036	40		 inc	 eax

; 1614 : 
; 1615 : 		if(count >= OBJMAX)

  00037	3d 98 3a 00 00	 cmp	 eax, 15000		; 00003a98H
  0003c	7c 05		 jl	 SHORT $LN2@AddIndexPl

; 1616 : 		{
; 1617 : 			count = OBJ_STARTUSERINDZT;

  0003e	b8 b0 36 00 00	 mov	 eax, 14000		; 000036b0H
$LN2@AddIndexPl:

; 1618 : 		}
; 1619 : 
; 1620 : 		totalcount++;

  00043	41		 inc	 ecx

; 1621 : 
; 1622 : 		if(totalcount >= OBJMAXUSER)

  00044	81 f9 e8 03 00
	00		 cmp	 ecx, 1000		; 000003e8H
  0004a	7d 11		 jge	 SHORT $LN13@AddIndexPl

; 1604 : 	
; 1605 : 	while(true)
; 1606 : 	{
; 1607 : 		if(gObj[count].Connected == PLAYER_EMPTY)

  0004c	8b f0		 mov	 esi, eax
  0004e	69 f6 50 2b 00
	00		 imul	 esi, 11088		; 00002b50H
  00054	83 7c 16 04 00	 cmp	 DWORD PTR [esi+edx+4], 0
  00059	75 db		 jne	 SHORT $LL5@AddIndexPl
  0005b	5e		 pop	 esi

; 1629 : }

  0005c	c3		 ret	 0
$LN13@AddIndexPl:

; 1623 : 		{
; 1624 : 			break;
; 1625 : 		}
; 1626 : 	}
; 1627 : 
; 1628 : 	return -1;

  0005d	83 c8 ff	 or	 eax, -1
$LN14@AddIndexPl:
  00060	5e		 pop	 esi

; 1629 : }

  00061	c3		 ret	 0
?AddIndexPlayer@OfflineMode@@QAEFXZ ENDP		; OfflineMode::AddIndexPlayer
_TEXT	ENDS
PUBLIC	?GDReqAllPlayer@OfflineMode@@QAEXXZ		; OfflineMode::GDReqAllPlayer
EXTRN	?Send@DBSockMng@@QAEHPADH@Z:PROC		; DBSockMng::Send
EXTRN	?cDBSMng@@3VDBSockMng@@A:BYTE			; cDBSMng
EXTRN	?g_WaitOpen@@3_NA:BYTE				; g_WaitOpen
; Function compile flags: /Ogtp
;	COMDAT ?GDReqAllPlayer@OfflineMode@@QAEXXZ
_TEXT	SEGMENT
_pMsg$ = -4						; size = 4
?GDReqAllPlayer@OfflineMode@@QAEXXZ PROC		; OfflineMode::GDReqAllPlayer, COMDAT
; _this$ = ecx

; 1632 : {

  00000	55		 push	 ebp
  00001	8b ec		 mov	 ebp, esp
  00003	51		 push	 ecx

; 1633 : 	if(g_WaitOpen == true)

  00004	b0 01		 mov	 al, 1
  00006	38 05 00 00 00
	00		 cmp	 BYTE PTR ?g_WaitOpen@@3_NA, al ; g_WaitOpen
  0000c	74 1f		 je	 SHORT $LN3@GDReqAllPl

; 1634 : 	{
; 1635 : 		return;
; 1636 : 	}
; 1637 : 
; 1638 : 	if(this->m_bLoadedDB == true)

  0000e	38 41 19	 cmp	 BYTE PTR [ecx+25], al
  00011	74 1a		 je	 SHORT $LN3@GDReqAllPl

; 1639 : 	{
; 1640 : 		return;
; 1641 : 	}
; 1642 : 
; 1643 : 	this->m_bLoadedDB = true;

  00013	88 41 19	 mov	 BYTE PTR [ecx+25], al

; 1644 : 
; 1645 : 	PBMSG_HEAD2 pMsg;
; 1646 : 	pMsg.set((LPBYTE)&pMsg, 0xEB, 0x11, sizeof(pMsg));
; 1647 : 	cDBSMng.Send((char*)&pMsg, pMsg.size);

  00016	6a 04		 push	 4
  00018	8d 45 fc	 lea	 eax, DWORD PTR _pMsg$[ebp]
  0001b	50		 push	 eax
  0001c	b9 00 00 00 00	 mov	 ecx, OFFSET ?cDBSMng@@3VDBSockMng@@A ; cDBSMng
  00021	c7 45 fc c1 04
	eb 11		 mov	 DWORD PTR _pMsg$[ebp], 300614849 ; 11eb04c1H
  00028	e8 00 00 00 00	 call	 ?Send@DBSockMng@@QAEHPADH@Z ; DBSockMng::Send
$LN3@GDReqAllPl:

; 1648 : }

  0002d	8b e5		 mov	 esp, ebp
  0002f	5d		 pop	 ebp
  00030	c3		 ret	 0
?GDReqAllPlayer@OfflineMode@@QAEXXZ ENDP		; OfflineMode::GDReqAllPlayer
_TEXT	ENDS
PUBLIC	__$ArrayPad$
PUBLIC	?GDReqOffCharacter@OfflineMode@@QAEXH@Z		; OfflineMode::GDReqOffCharacter
; Function compile flags: /Ogtp
;	COMDAT ?GDReqOffCharacter@OfflineMode@@QAEXH@Z
_TEXT	SEGMENT
_pMsg$ = -32						; size = 28
__$ArrayPad$ = -4					; size = 4
_aIndex$ = 8						; size = 4
?GDReqOffCharacter@OfflineMode@@QAEXH@Z PROC		; OfflineMode::GDReqOffCharacter, COMDAT
; _this$ = ecx

; 1776 : {

  00000	55		 push	 ebp
  00001	8b ec		 mov	 ebp, esp
  00003	83 ec 20	 sub	 esp, 32			; 00000020H
  00006	a1 00 00 00 00	 mov	 eax, DWORD PTR ___security_cookie
  0000b	33 c5		 xor	 eax, ebp
  0000d	89 45 fc	 mov	 DWORD PTR __$ArrayPad$[ebp], eax
  00010	8b 55 08	 mov	 edx, DWORD PTR _aIndex$[ebp]

; 1777 : 	if(!OBJMAX_RANGE(aIndex))

  00013	33 c9		 xor	 ecx, ecx
  00015	3b d1		 cmp	 edx, ecx
  00017	0f 8c 8e 00 00
	00		 jl	 $LN2@GDReqOffCh
  0001d	33 c0		 xor	 eax, eax
  0001f	81 fa 97 3a 00
	00		 cmp	 edx, 14999		; 00003a97H
  00025	0f 9e c0	 setle	 al
  00028	3b c1		 cmp	 eax, ecx
  0002a	74 7f		 je	 SHORT $LN2@GDReqOffCh

; 1778 : 	{
; 1779 : 		return;
; 1780 : 	}
; 1781 : 
; 1782 : 	LPOBJ lpUser = &gObj[aIndex];

  0002c	8b c2		 mov	 eax, edx
  0002e	69 c0 50 2b 00
	00		 imul	 eax, 11088		; 00002b50H
  00034	03 05 00 00 00
	00		 add	 eax, DWORD PTR ?gObj@@3PAUOBJECTSTRUCT@@A ; gObj

; 1783 : 
; 1784 : 	lpUser->m_ReOfflineMode = false;
; 1785 : 
; 1786 : 	PMSG_GDREQ_OFFMODE_CHAR pMsg = { 0 };
; 1787 : 	pMsg.h.set((LPBYTE)&pMsg, 0xEB, 0x12, sizeof(pMsg));
; 1788 : 	memcpy(pMsg.AccountID, lpUser->AccountID, sizeof(pMsg.AccountID));
; 1789 : 	memcpy(pMsg.Name, lpUser->Name, sizeof(pMsg.Name));
; 1790 : 	pMsg.Number = aIndex;
; 1791 : 	cDBSMng.Send((char*)&pMsg, pMsg.h.size);

  0003a	6a 1c		 push	 28			; 0000001cH
  0003c	88 88 ec 28 00
	00		 mov	 BYTE PTR [eax+10476], cl
  00042	89 4d e1	 mov	 DWORD PTR _pMsg$[ebp+1], ecx
  00045	89 4d ed	 mov	 DWORD PTR _pMsg$[ebp+13], ecx
  00048	89 4d e5	 mov	 DWORD PTR _pMsg$[ebp+5], ecx
  0004b	89 4d e9	 mov	 DWORD PTR _pMsg$[ebp+9], ecx
  0004e	89 4d f1	 mov	 DWORD PTR _pMsg$[ebp+17], ecx
  00051	89 4d f5	 mov	 DWORD PTR _pMsg$[ebp+21], ecx
  00054	66 89 4d f9	 mov	 WORD PTR _pMsg$[ebp+25], cx
  00058	88 4d fb	 mov	 BYTE PTR _pMsg$[ebp+27], cl
  0005b	c7 45 e0 c1 1c
	eb 12		 mov	 DWORD PTR _pMsg$[ebp], 317398209 ; 12eb1cc1H
  00062	8b 48 6c	 mov	 ecx, DWORD PTR [eax+108]
  00065	89 4d e4	 mov	 DWORD PTR _pMsg$[ebp+4], ecx
  00068	8b 48 70	 mov	 ecx, DWORD PTR [eax+112]
  0006b	89 4d e8	 mov	 DWORD PTR _pMsg$[ebp+8], ecx
  0006e	0f b7 48 74	 movzx	 ecx, WORD PTR [eax+116]
  00072	66 89 4d ec	 mov	 WORD PTR _pMsg$[ebp+12], cx
  00076	8a 48 76	 mov	 cl, BYTE PTR [eax+118]
  00079	88 4d ee	 mov	 BYTE PTR _pMsg$[ebp+14], cl
  0007c	8b 48 77	 mov	 ecx, DWORD PTR [eax+119]
  0007f	89 4d ef	 mov	 DWORD PTR _pMsg$[ebp+15], ecx
  00082	8b 48 7b	 mov	 ecx, DWORD PTR [eax+123]
  00085	89 4d f3	 mov	 DWORD PTR _pMsg$[ebp+19], ecx
  00088	0f b7 48 7f	 movzx	 ecx, WORD PTR [eax+127]
  0008c	66 89 4d f7	 mov	 WORD PTR _pMsg$[ebp+23], cx
  00090	8a 80 81 00 00
	00		 mov	 al, BYTE PTR [eax+129]
  00096	8d 4d e0	 lea	 ecx, DWORD PTR _pMsg$[ebp]
  00099	51		 push	 ecx
  0009a	b9 00 00 00 00	 mov	 ecx, OFFSET ?cDBSMng@@3VDBSockMng@@A ; cDBSMng
  0009f	88 45 f9	 mov	 BYTE PTR _pMsg$[ebp+25], al
  000a2	66 89 55 fa	 mov	 WORD PTR _pMsg$[ebp+26], dx
  000a6	e8 00 00 00 00	 call	 ?Send@DBSockMng@@QAEHPADH@Z ; DBSockMng::Send
$LN2@GDReqOffCh:

; 1792 : }

  000ab	8b 4d fc	 mov	 ecx, DWORD PTR __$ArrayPad$[ebp]
  000ae	33 cd		 xor	 ecx, ebp
  000b0	e8 00 00 00 00	 call	 @__security_check_cookie@4
  000b5	8b e5		 mov	 esp, ebp
  000b7	5d		 pop	 ebp
  000b8	c2 04 00	 ret	 4
?GDReqOffCharacter@OfflineMode@@QAEXH@Z ENDP		; OfflineMode::GDReqOffCharacter
_TEXT	ENDS
PUBLIC	??_C@_0EB@KJANBCDD@?$FLMapServerMng?$FN?5Request?5to?5Move?5M@ ; `string'
PUBLIC	??_C@_0EM@ICCPKMCE@?$FLMapServerMng?$FN?5Map?5Server?5Move?5F@ ; `string'
PUBLIC	??_C@_0BB@LBNJKNBE@error?9L3?5?3?5?$CFs?5?$CFd?$AA@ ; `string'
PUBLIC	??_C@_0CA@ICFKKJJD@?$FL?5ZEN?5MODIFY?5?$FN?5?$FL?$CFs?$FN?$FL?$CFs?$FN?5?$CFd?5?9?$DO?50?$AA@ ; `string'
PUBLIC	??_C@_0FE@JOJGEKKO@?$FLAnti?9HACK?$FN?$FLJGGetCharacterInfo?$FN?5@ ; `string'
PUBLIC	??_C@_0CL@ECFCLMFK@error?9L1?5?3?5Load?5Block?5Character?5@ ; `string'
PUBLIC	__$ArrayPad$
PUBLIC	?DGAnsOffCharacter@OfflineMode@@QAEXPAUSDHP_DBCHAR_INFORESULT@@@Z ; OfflineMode::DGAnsOffCharacter
EXTRN	?RestoreParty@PartyClass@@QAEXH@Z:PROC		; PartyClass::RestoreParty
EXTRN	?gParty@@3VPartyClass@@A:BYTE			; gParty
EXTRN	?UserConnect@PremiumSystemZt@@QAEXH@Z:PROC	; PremiumSystemZt::UserConnect
EXTRN	?g_PremiumSystemZt@@3VPremiumSystemZt@@A:BYTE	; g_PremiumSystemZt
EXTRN	?SkillChangeUse@CObjUseSkill@@QAEHH@Z:PROC	; CObjUseSkill::SkillChangeUse
EXTRN	?FriendListRequest@@YAXH@Z:PROC			; FriendListRequest
EXTRN	?DGGuildMemberInfoRequest@@YAXH@Z:PROC		; DGGuildMemberInfoRequest
EXTRN	?Quest3rdRequestInfo@CQuestUtil@@QAEXPAUOBJECTSTRUCT@@@Z:PROC ; CQuestUtil::Quest3rdRequestInfo
EXTRN	?g_QuestUtil@@3VCQuestUtil@@A:DWORD		; g_QuestUtil
EXTRN	?GDReqMasterLevelInfo@CMasterLevelSystem@@QAEXPAUOBJECTSTRUCT@@@Z:PROC ; CMasterLevelSystem::GDReqMasterLevelInfo
EXTRN	?DB_Load@CZtGDManager@@QAEXH@Z:PROC		; CZtGDManager::DB_Load
EXTRN	?g_ZtGDManager@@3VCZtGDManager@@A:BYTE		; g_ZtGDManager
EXTRN	?QuestInfoSave@CQuestInfo@@QAEXPAUOBJECTSTRUCT@@@Z:PROC ; CQuestInfo::QuestInfoSave
EXTRN	?g_QuestInfo@@3VCQuestInfo@@A:BYTE		; g_QuestInfo
EXTRN	?CheckIsMasterLevelCharacter@CMasterLevelSystem@@QAEHPAUOBJECTSTRUCT@@@Z:PROC ; CMasterLevelSystem::CheckIsMasterLevelCharacter
EXTRN	?g_MasterLevelSystem@@3VCMasterLevelSystem@@A:BYTE ; g_MasterLevelSystem
EXTRN	?GJReqMapSvrMove@@YAXHGGEE@Z:PROC		; GJReqMapSvrMove
EXTRN	?gGameServerCode@@3FA:WORD			; gGameServerCode
EXTRN	?CheckMoveMapSvr@CMapServerManager@@QAEFHHF@Z:PROC ; CMapServerManager::CheckMoveMapSvr
EXTRN	?g_MapServerManager@@3VCMapServerManager@@A:BYTE ; g_MapServerManager
EXTRN	?MapNumberCheck@@YAHH@Z:PROC			; MapNumberCheck
EXTRN	?LogAddTD@@3P6AXPADZZA:DWORD			; LogAddTD
EXTRN	?gObjSetCharacter@@YAHPAEH@Z:PROC		; gObjSetCharacter
EXTRN	_strncmp:PROC
EXTRN	?CloseClient@@YAXH@Z:PROC			; CloseClient
EXTRN	?LogAddC@@3P6AXEPADZZA:DWORD			; LogAddC
EXTRN	?Get@CMsg@@QAEPADH@Z:PROC			; CMsg::Get
EXTRN	?lMsg@@3VCMsg@@A:BYTE				; lMsg
EXTRN	?gObjIsAccontConnect@@YAHHPAD@Z:PROC		; gObjIsAccontConnect
;	COMDAT ??_C@_0EB@KJANBCDD@?$FLMapServerMng?$FN?5Request?5to?5Move?5M@
CONST	SEGMENT
??_C@_0EB@KJANBCDD@?$FLMapServerMng?$FN?5Request?5to?5Move?5M@ DB '[MapSe'
	DB	'rverMng] Request to Move Map Server : (%d) - [%s][%s] (%d)', 00H ; `string'
CONST	ENDS
;	COMDAT ??_C@_0EM@ICCPKMCE@?$FLMapServerMng?$FN?5Map?5Server?5Move?5F@
CONST	SEGMENT
??_C@_0EM@ICCPKMCE@?$FLMapServerMng?$FN?5Map?5Server?5Move?5F@ DB '[MapSe'
	DB	'rverMng] Map Server Move Fail : CheckMoveMapSvr() == -1 [%s]['
	DB	'%s] (%d)', 00H				; `string'
CONST	ENDS
;	COMDAT ??_C@_0BB@LBNJKNBE@error?9L3?5?3?5?$CFs?5?$CFd?$AA@
CONST	SEGMENT
??_C@_0BB@LBNJKNBE@error?9L3?5?3?5?$CFs?5?$CFd?$AA@ DB 'error-L3 : %s %d', 00H ; `string'
CONST	ENDS
;	COMDAT ??_C@_0CA@ICFKKJJD@?$FL?5ZEN?5MODIFY?5?$FN?5?$FL?$CFs?$FN?$FL?$CFs?$FN?5?$CFd?5?9?$DO?50?$AA@
CONST	SEGMENT
??_C@_0CA@ICFKKJJD@?$FL?5ZEN?5MODIFY?5?$FN?5?$FL?$CFs?$FN?$FL?$CFs?$FN?5?$CFd?5?9?$DO?50?$AA@ DB '['
	DB	' ZEN MODIFY ] [%s][%s] %d -> 0', 00H	; `string'
CONST	ENDS
;	COMDAT ??_C@_0FE@JOJGEKKO@?$FLAnti?9HACK?$FN?$FLJGGetCharacterInfo?$FN?5@
CONST	SEGMENT
??_C@_0FE@JOJGEKKO@?$FLAnti?9HACK?$FN?$FLJGGetCharacterInfo?$FN?5@ DB '[A'
	DB	'nti-HACK][JGGetCharacterInfo] Attempted Character-Copy by dou'
	DB	'ble logging [%s][%s]', 00H			; `string'
CONST	ENDS
;	COMDAT ??_C@_0CL@ECFCLMFK@error?9L1?5?3?5Load?5Block?5Character?5@
CONST	SEGMENT
??_C@_0CL@ECFCLMFK@error?9L1?5?3?5Load?5Block?5Character?5@ DB 'error-L1 '
	DB	': Load Block Character infomation', 00H	; `string'
; Function compile flags: /Ogtp
CONST	ENDS
;	COMDAT ?DGAnsOffCharacter@OfflineMode@@QAEXPAUSDHP_DBCHAR_INFORESULT@@@Z
_TEXT	SEGMENT
_szAccountID$ = -28					; size = 11
_szName$ = -16						; size = 11
__$ArrayPad$ = -4					; size = 4
_lpMsg$ = 8						; size = 4
?DGAnsOffCharacter@OfflineMode@@QAEXPAUSDHP_DBCHAR_INFORESULT@@@Z PROC ; OfflineMode::DGAnsOffCharacter, COMDAT
; _this$ = ecx

; 1795 : {

  00000	55		 push	 ebp
  00001	8b ec		 mov	 ebp, esp
  00003	83 ec 1c	 sub	 esp, 28			; 0000001cH
  00006	a1 00 00 00 00	 mov	 eax, DWORD PTR ___security_cookie
  0000b	33 c5		 xor	 eax, ebp
  0000d	89 45 fc	 mov	 DWORD PTR __$ArrayPad$[ebp], eax
  00010	53		 push	 ebx
  00011	8b 5d 08	 mov	 ebx, DWORD PTR _lpMsg$[ebp]

; 1796 : 	short aIndex = lpMsg->Number;

  00014	0f b7 4b 06	 movzx	 ecx, WORD PTR [ebx+6]

; 1797 : 
; 1798 : 	if(!OBJMAX_RANGE(aIndex))

  00018	66 85 c9	 test	 cx, cx
  0001b	0f 88 48 04 00
	00		 js	 $LN21@DGAnsOffCh
  00021	33 d2		 xor	 edx, edx
  00023	b8 97 3a 00 00	 mov	 eax, 14999		; 00003a97H
  00028	66 3b c8	 cmp	 cx, ax
  0002b	0f 9e c2	 setle	 dl
  0002e	8b c2		 mov	 eax, edx
  00030	85 c0		 test	 eax, eax
  00032	0f 84 31 04 00
	00		 je	 $LN21@DGAnsOffCh

; 1799 : 	{
; 1800 : 		return;
; 1801 : 	}
; 1802 : 
; 1803 : 	char szAccountID[11] = { 0 };
; 1804 : 	char szName[11] = { 0 };
; 1805 : 
; 1806 : 	memcpy(szAccountID, lpMsg->AccountID, sizeof(lpMsg->AccountID));

  00038	8b 53 0c	 mov	 edx, DWORD PTR [ebx+12]
  0003b	33 c0		 xor	 eax, eax
  0003d	89 45 e5	 mov	 DWORD PTR _szAccountID$[ebp+1], eax
  00040	89 45 e9	 mov	 DWORD PTR _szAccountID$[ebp+5], eax
  00043	89 45 f1	 mov	 DWORD PTR _szName$[ebp+1], eax
  00046	89 45 f5	 mov	 DWORD PTR _szName$[ebp+5], eax
  00049	66 89 45 ed	 mov	 WORD PTR _szAccountID$[ebp+9], ax
  0004d	66 89 45 f9	 mov	 WORD PTR _szName$[ebp+9], ax
  00051	8b 43 08	 mov	 eax, DWORD PTR [ebx+8]
  00054	89 45 e4	 mov	 DWORD PTR _szAccountID$[ebp], eax
  00057	66 8b 43 10	 mov	 ax, WORD PTR [ebx+16]
  0005b	66 89 45 ec	 mov	 WORD PTR _szAccountID$[ebp+8], ax

; 1807 : 	memcpy(szName, lpMsg->Name, MAX_ACCOUNT_LEN);

  0005f	8b 43 16	 mov	 eax, DWORD PTR [ebx+22]
  00062	57		 push	 edi
  00063	89 55 e8	 mov	 DWORD PTR _szAccountID$[ebp+4], edx
  00066	8b 53 12	 mov	 edx, DWORD PTR [ebx+18]
  00069	89 45 f4	 mov	 DWORD PTR _szName$[ebp+4], eax

; 1808 : 
; 1809 : 	if(gObjIsAccontConnect(aIndex, szAccountID) == FALSE)

  0006c	0f bf f9	 movsx	 edi, cx
  0006f	8d 45 e4	 lea	 eax, DWORD PTR _szAccountID$[ebp]
  00072	89 55 f0	 mov	 DWORD PTR _szName$[ebp], edx
  00075	66 8b 53 1a	 mov	 dx, WORD PTR [ebx+26]
  00079	50		 push	 eax
  0007a	57		 push	 edi
  0007b	66 89 55 f8	 mov	 WORD PTR _szName$[ebp+8], dx
  0007f	e8 00 00 00 00	 call	 ?gObjIsAccontConnect@@YAHHPAD@Z ; gObjIsAccontConnect
  00084	83 c4 08	 add	 esp, 8
  00087	85 c0		 test	 eax, eax
  00089	75 37		 jne	 SHORT $LN19@DGAnsOffCh

; 1810 : 	{
; 1811 : 		LogAddC(2, lMsg.Get(MSGGET(1, 170)), szAccountID);

  0008b	8d 4d e4	 lea	 ecx, DWORD PTR _szAccountID$[ebp]
  0008e	51		 push	 ecx
  0008f	68 aa 01 00 00	 push	 426			; 000001aaH
  00094	b9 00 00 00 00	 mov	 ecx, OFFSET ?lMsg@@3VCMsg@@A ; lMsg
  00099	e8 00 00 00 00	 call	 ?Get@CMsg@@QAEPADH@Z	; CMsg::Get
  0009e	50		 push	 eax
  0009f	6a 02		 push	 2
  000a1	ff 15 00 00 00
	00		 call	 DWORD PTR ?LogAddC@@3P6AXEPADZZA ; LogAddC

; 1812 : 		CloseClient(aIndex);

  000a7	57		 push	 edi
  000a8	e8 00 00 00 00	 call	 ?CloseClient@@YAXH@Z	; CloseClient
  000ad	83 c4 10	 add	 esp, 16			; 00000010H
  000b0	5f		 pop	 edi
  000b1	5b		 pop	 ebx

; 1943 : }

  000b2	8b 4d fc	 mov	 ecx, DWORD PTR __$ArrayPad$[ebp]
  000b5	33 cd		 xor	 ecx, ebp
  000b7	e8 00 00 00 00	 call	 @__security_check_cookie@4
  000bc	8b e5		 mov	 esp, ebp
  000be	5d		 pop	 ebp
  000bf	c2 04 00	 ret	 4
$LN19@DGAnsOffCh:

; 1813 : 		return;
; 1814 : 	}
; 1815 : 
; 1816 : 	if(lpMsg->result == false)

  000c2	80 7b 04 00	 cmp	 BYTE PTR [ebx+4], 0
  000c6	75 28		 jne	 SHORT $LN18@DGAnsOffCh

; 1817 : 	{
; 1818 : 		LogAddC(2, lMsg.Get(MSGGET(1, 171)), szName, gObj[aIndex].AccountID);

  000c8	a1 00 00 00 00	 mov	 eax, DWORD PTR ?gObj@@3PAUOBJECTSTRUCT@@A ; gObj
  000cd	8b d7		 mov	 edx, edi
  000cf	69 d2 50 2b 00
	00		 imul	 edx, 11088		; 00002b50H
  000d5	8d 4c 02 6c	 lea	 ecx, DWORD PTR [edx+eax+108]
  000d9	51		 push	 ecx
  000da	8d 55 f0	 lea	 edx, DWORD PTR _szName$[ebp]
  000dd	52		 push	 edx
  000de	68 ab 01 00 00	 push	 427			; 000001abH
  000e3	b9 00 00 00 00	 mov	 ecx, OFFSET ?lMsg@@3VCMsg@@A ; lMsg
  000e8	e8 00 00 00 00	 call	 ?Get@CMsg@@QAEPADH@Z	; CMsg::Get
  000ed	50		 push	 eax

; 1819 : 		CloseClient(aIndex);
; 1820 : 		return;

  000ee	eb 25		 jmp	 SHORT $LN30@DGAnsOffCh
$LN18@DGAnsOffCh:

; 1821 : 	}
; 1822 : 
; 1823 : 	if((lpMsg->CtlCode&1) != 0)

  000f0	f6 83 d4 10 00
	00 01		 test	 BYTE PTR [ebx+4308], 1
  000f7	74 3f		 je	 SHORT $LN17@DGAnsOffCh

; 1824 : 	{
; 1825 : 		LogAddC(2, "error-L1 : Load Block Character infomation", szName, gObj[aIndex].AccountID);

  000f9	8b 0d 00 00 00
	00		 mov	 ecx, DWORD PTR ?gObj@@3PAUOBJECTSTRUCT@@A ; gObj
  000ff	8b c7		 mov	 eax, edi
  00101	69 c0 50 2b 00
	00		 imul	 eax, 11088		; 00002b50H
  00107	8d 54 08 6c	 lea	 edx, DWORD PTR [eax+ecx+108]
  0010b	52		 push	 edx
  0010c	8d 45 f0	 lea	 eax, DWORD PTR _szName$[ebp]
  0010f	50		 push	 eax
  00110	68 00 00 00 00	 push	 OFFSET ??_C@_0CL@ECFCLMFK@error?9L1?5?3?5Load?5Block?5Character?5@
$LN30@DGAnsOffCh:
  00115	6a 02		 push	 2
  00117	ff 15 00 00 00
	00		 call	 DWORD PTR ?LogAddC@@3P6AXEPADZZA ; LogAddC

; 1826 : 		CloseClient(aIndex);

  0011d	57		 push	 edi
  0011e	e8 00 00 00 00	 call	 ?CloseClient@@YAXH@Z	; CloseClient
  00123	83 c4 14	 add	 esp, 20			; 00000014H
  00126	5f		 pop	 edi
  00127	5b		 pop	 ebx

; 1943 : }

  00128	8b 4d fc	 mov	 ecx, DWORD PTR __$ArrayPad$[ebp]
  0012b	33 cd		 xor	 ecx, ebp
  0012d	e8 00 00 00 00	 call	 @__security_check_cookie@4
  00132	8b e5		 mov	 esp, ebp
  00134	5d		 pop	 ebp
  00135	c2 04 00	 ret	 4
$LN17@DGAnsOffCh:

; 1827 : 		return;
; 1828 : 	}
; 1829 : 
; 1830 : 	for(int i = OBJ_STARTUSERINDZT; i < OBJMAX; i++)

  00138	a1 00 00 00 00	 mov	 eax, DWORD PTR ?gObj@@3PAUOBJECTSTRUCT@@A ; gObj
  0013d	56		 push	 esi
  0013e	be 00 a7 40 09	 mov	 esi, 155232000		; 0940a700H
$LL16@DGAnsOffCh:

; 1831 : 	{
; 1832 : 		if(gObj[i].Connected == PLAYER_PLAYING)

  00143	83 7c 06 04 03	 cmp	 DWORD PTR [esi+eax+4], 3
  00148	75 44		 jne	 SHORT $LN15@DGAnsOffCh

; 1833 : 		{
; 1834 : 			if(gObj[i].Type == OBJ_USER)

  0014a	66 83 7c 06 68
	01		 cmp	 WORD PTR [esi+eax+104], 1
  00150	75 3c		 jne	 SHORT $LN15@DGAnsOffCh

; 1835 : 			{
; 1836 : 				if(!strncmp(szName, gObj[i].Name, MAX_ACCOUNT_LEN) || !strncmp(szAccountID, gObj[i].AccountID, MAX_ACCOUNT_LEN))

  00152	6a 0a		 push	 10			; 0000000aH
  00154	8d 4c 06 77	 lea	 ecx, DWORD PTR [esi+eax+119]
  00158	51		 push	 ecx
  00159	8d 55 f0	 lea	 edx, DWORD PTR _szName$[ebp]
  0015c	52		 push	 edx
  0015d	e8 00 00 00 00	 call	 _strncmp
  00162	83 c4 0c	 add	 esp, 12			; 0000000cH
  00165	85 c0		 test	 eax, eax
  00167	0f 84 85 00 00
	00		 je	 $LN10@DGAnsOffCh
  0016d	a1 00 00 00 00	 mov	 eax, DWORD PTR ?gObj@@3PAUOBJECTSTRUCT@@A ; gObj
  00172	6a 0a		 push	 10			; 0000000aH
  00174	8d 4c 06 6c	 lea	 ecx, DWORD PTR [esi+eax+108]
  00178	51		 push	 ecx
  00179	8d 55 e4	 lea	 edx, DWORD PTR _szAccountID$[ebp]
  0017c	52		 push	 edx
  0017d	e8 00 00 00 00	 call	 _strncmp
  00182	83 c4 0c	 add	 esp, 12			; 0000000cH
  00185	85 c0		 test	 eax, eax
  00187	74 69		 je	 SHORT $LN10@DGAnsOffCh
  00189	a1 00 00 00 00	 mov	 eax, DWORD PTR ?gObj@@3PAUOBJECTSTRUCT@@A ; gObj
$LN15@DGAnsOffCh:

; 1827 : 		return;
; 1828 : 	}
; 1829 : 
; 1830 : 	for(int i = OBJ_STARTUSERINDZT; i < OBJMAX; i++)

  0018e	81 c6 50 2b 00
	00		 add	 esi, 11088		; 00002b50H
  00194	81 fe 80 d7 e9
	09		 cmp	 esi, 166320000		; 09e9d780H
  0019a	7c a7		 jl	 SHORT $LL16@DGAnsOffCh

; 1840 : 					return;
; 1841 : 				}
; 1842 : 			}
; 1843 : 		}
; 1844 : 	}
; 1845 : 
; 1846 : 	gObj[aIndex].Connected = PLAYER_LOGGED;	//!!!

  0019c	8b f7		 mov	 esi, edi
  0019e	69 f6 50 2b 00
	00		 imul	 esi, 11088		; 00002b50H

; 1847 : 
; 1848 : 	if(gObjSetCharacter((LPBYTE)lpMsg, aIndex) == FALSE)

  001a4	57		 push	 edi
  001a5	53		 push	 ebx
  001a6	c7 44 06 04 02
	00 00 00	 mov	 DWORD PTR [esi+eax+4], 2
  001ae	e8 00 00 00 00	 call	 ?gObjSetCharacter@@YAHPAEH@Z ; gObjSetCharacter
  001b3	83 c4 08	 add	 esp, 8
  001b6	85 c0		 test	 eax, eax
  001b8	75 76		 jne	 SHORT $LN9@DGAnsOffCh

; 1849 : 	{
; 1850 : 		LogAddC(2, lMsg.Get(MSGGET(1, 172)), szName);

  001ba	8d 4d f0	 lea	 ecx, DWORD PTR _szName$[ebp]
  001bd	51		 push	 ecx
  001be	68 ac 01 00 00	 push	 428			; 000001acH
  001c3	b9 00 00 00 00	 mov	 ecx, OFFSET ?lMsg@@3VCMsg@@A ; lMsg
  001c8	e8 00 00 00 00	 call	 ?Get@CMsg@@QAEPADH@Z	; CMsg::Get
  001cd	50		 push	 eax
  001ce	6a 02		 push	 2
  001d0	ff 15 00 00 00
	00		 call	 DWORD PTR ?LogAddC@@3P6AXEPADZZA ; LogAddC

; 1851 : 		CloseClient(aIndex);

  001d6	57		 push	 edi
  001d7	e8 00 00 00 00	 call	 ?CloseClient@@YAXH@Z	; CloseClient
  001dc	83 c4 10	 add	 esp, 16			; 00000010H
  001df	5e		 pop	 esi
  001e0	5f		 pop	 edi
  001e1	5b		 pop	 ebx

; 1943 : }

  001e2	8b 4d fc	 mov	 ecx, DWORD PTR __$ArrayPad$[ebp]
  001e5	33 cd		 xor	 ecx, ebp
  001e7	e8 00 00 00 00	 call	 @__security_check_cookie@4
  001ec	8b e5		 mov	 esp, ebp
  001ee	5d		 pop	 ebp
  001ef	c2 04 00	 ret	 4
$LN10@DGAnsOffCh:

; 1837 : 				{
; 1838 : 					LogAddTD("[Anti-HACK][JGGetCharacterInfo] Attempted Character-Copy by double logging [%s][%s]",	szName, gObj[aIndex].AccountID);

  001f2	8b 0d 00 00 00
	00		 mov	 ecx, DWORD PTR ?gObj@@3PAUOBJECTSTRUCT@@A ; gObj
  001f8	8b c7		 mov	 eax, edi
  001fa	69 c0 50 2b 00
	00		 imul	 eax, 11088		; 00002b50H
  00200	8d 54 08 6c	 lea	 edx, DWORD PTR [eax+ecx+108]
  00204	52		 push	 edx
  00205	8d 45 f0	 lea	 eax, DWORD PTR _szName$[ebp]
  00208	50		 push	 eax
  00209	68 00 00 00 00	 push	 OFFSET ??_C@_0FE@JOJGEKKO@?$FLAnti?9HACK?$FN?$FLJGGetCharacterInfo?$FN?5@
  0020e	ff 15 00 00 00
	00		 call	 DWORD PTR ?LogAddTD@@3P6AXPADZZA ; LogAddTD

; 1839 : 					CloseClient(aIndex);

  00214	57		 push	 edi
  00215	e8 00 00 00 00	 call	 ?CloseClient@@YAXH@Z	; CloseClient
  0021a	83 c4 10	 add	 esp, 16			; 00000010H
  0021d	5e		 pop	 esi
  0021e	5f		 pop	 edi
  0021f	5b		 pop	 ebx

; 1943 : }

  00220	8b 4d fc	 mov	 ecx, DWORD PTR __$ArrayPad$[ebp]
  00223	33 cd		 xor	 ecx, ebp
  00225	e8 00 00 00 00	 call	 @__security_check_cookie@4
  0022a	8b e5		 mov	 esp, ebp
  0022c	5d		 pop	 ebp
  0022d	c2 04 00	 ret	 4
$LN9@DGAnsOffCh:

; 1852 : 		return;
; 1853 : 	}
; 1854 : 
; 1855 : 	gObj[aIndex].CheckSumTime = 0;//!!!

  00230	8b 15 00 00 00
	00		 mov	 edx, DWORD PTR ?gObj@@3PAUOBJECTSTRUCT@@A ; gObj
  00236	33 db		 xor	 ebx, ebx
  00238	89 5c 16 64	 mov	 DWORD PTR [esi+edx+100], ebx

; 1856 : 
; 1857 : 	gObj[aIndex].iShield = gObj[aIndex].iMaxShield + gObj[aIndex].iAddShield;

  0023c	a1 00 00 00 00	 mov	 eax, DWORD PTR ?gObj@@3PAUOBJECTSTRUCT@@A ; gObj
  00241	8b 8c 06 5c 01
	00 00		 mov	 ecx, DWORD PTR [esi+eax+348]
  00248	03 8c 06 58 01
	00 00		 add	 ecx, DWORD PTR [esi+eax+344]
  0024f	89 8c 06 54 01
	00 00		 mov	 DWORD PTR [esi+eax+340], ecx

; 1858 : 
; 1859 : 	LPOBJ lpObj = &gObj[aIndex];

  00256	03 35 00 00 00
	00		 add	 esi, DWORD PTR ?gObj@@3PAUOBJECTSTRUCT@@A ; gObj

; 1860 : 
; 1861 : 	if(gObj[aIndex].m_Index != aIndex)

  0025c	39 3e		 cmp	 DWORD PTR [esi], edi
  0025e	74 3e		 je	 SHORT $LN8@DGAnsOffCh

; 1862 : 	{
; 1863 : 		LogAddC(2, lMsg.Get(MSGGET(1, 173)), __FILE__, __LINE__);

  00260	68 47 07 00 00	 push	 1863			; 00000747H
  00265	68 00 00 00 00	 push	 OFFSET ??_C@_0BA@JOKPEPKE@OfflineMode?4cpp?$AA@
  0026a	68 ad 01 00 00	 push	 429			; 000001adH
  0026f	b9 00 00 00 00	 mov	 ecx, OFFSET ?lMsg@@3VCMsg@@A ; lMsg
  00274	e8 00 00 00 00	 call	 ?Get@CMsg@@QAEPADH@Z	; CMsg::Get
  00279	50		 push	 eax
  0027a	6a 02		 push	 2
  0027c	ff 15 00 00 00
	00		 call	 DWORD PTR ?LogAddC@@3P6AXEPADZZA ; LogAddC

; 1864 : 		CloseClient(aIndex);

  00282	57		 push	 edi
  00283	e8 00 00 00 00	 call	 ?CloseClient@@YAXH@Z	; CloseClient
  00288	83 c4 14	 add	 esp, 20			; 00000014H
  0028b	5e		 pop	 esi
  0028c	5f		 pop	 edi
  0028d	5b		 pop	 ebx

; 1943 : }

  0028e	8b 4d fc	 mov	 ecx, DWORD PTR __$ArrayPad$[ebp]
  00291	33 cd		 xor	 ecx, ebp
  00293	e8 00 00 00 00	 call	 @__security_check_cookie@4
  00298	8b e5		 mov	 esp, ebp
  0029a	5d		 pop	 ebp
  0029b	c2 04 00	 ret	 4
$LN8@DGAnsOffCh:

; 1865 : 		return;
; 1866 : 	}
; 1867 : 
; 1868 : 	if(lpObj->Money < 0)

  0029e	8b 86 f0 00 00
	00		 mov	 eax, DWORD PTR [esi+240]
  002a4	3b c3		 cmp	 eax, ebx
  002a6	7d 1f		 jge	 SHORT $LN27@DGAnsOffCh

; 1869 : 	{
; 1870 : 		LogAddC(2, "[ ZEN MODIFY ] [%s][%s] %d -> 0", szName, gObj[aIndex].AccountID, lpObj->Money);

  002a8	50		 push	 eax
  002a9	8d 46 6c	 lea	 eax, DWORD PTR [esi+108]
  002ac	50		 push	 eax
  002ad	8d 4d f0	 lea	 ecx, DWORD PTR _szName$[ebp]
  002b0	51		 push	 ecx
  002b1	68 00 00 00 00	 push	 OFFSET ??_C@_0CA@ICFKKJJD@?$FL?5ZEN?5MODIFY?5?$FN?5?$FL?$CFs?$FN?$FL?$CFs?$FN?5?$CFd?5?9?$DO?50?$AA@
  002b6	6a 02		 push	 2
  002b8	ff 15 00 00 00
	00		 call	 DWORD PTR ?LogAddC@@3P6AXEPADZZA ; LogAddC
  002be	83 c4 14	 add	 esp, 20			; 00000014H

; 1871 : 		lpObj->Money = 0;

  002c1	89 9e f0 00 00
	00		 mov	 DWORD PTR [esi+240], ebx
$LN27@DGAnsOffCh:

; 1872 : 	}
; 1873 : 	
; 1874 : 	if(lpObj->m_bMapSvrMoveReq == false)	//???

  002c7	38 9e e5 1b 00
	00		 cmp	 BYTE PTR [esi+7141], bl
  002cd	0f 85 fd 00 00
	00		 jne	 $LN4@DGAnsOffCh

; 1875 : 	{
; 1876 : 		if(MapNumberCheck(lpObj->MapNumber) == FALSE)

  002d3	0f b6 96 49 01
	00 00		 movzx	 edx, BYTE PTR [esi+329]
  002da	52		 push	 edx
  002db	e8 00 00 00 00	 call	 ?MapNumberCheck@@YAHH@Z	; MapNumberCheck
  002e0	83 c4 04	 add	 esp, 4
  002e3	85 c0		 test	 eax, eax
  002e5	75 31		 jne	 SHORT $LN5@DGAnsOffCh

; 1877 : 		{
; 1878 : 			LogAdd("error-L3 : %s %d", __FILE__, __LINE__);

  002e7	68 56 07 00 00	 push	 1878			; 00000756H
  002ec	68 00 00 00 00	 push	 OFFSET ??_C@_0BA@JOKPEPKE@OfflineMode?4cpp?$AA@
  002f1	68 00 00 00 00	 push	 OFFSET ??_C@_0BB@LBNJKNBE@error?9L3?5?3?5?$CFs?5?$CFd?$AA@
  002f6	ff 15 00 00 00
	00		 call	 DWORD PTR ?LogAdd@@3P6AXPADZZA ; LogAdd

; 1879 : 			CloseClient(aIndex);

  002fc	57		 push	 edi
  002fd	e8 00 00 00 00	 call	 ?CloseClient@@YAXH@Z	; CloseClient
  00302	83 c4 10	 add	 esp, 16			; 00000010H
  00305	5e		 pop	 esi
  00306	5f		 pop	 edi
  00307	5b		 pop	 ebx

; 1943 : }

  00308	8b 4d fc	 mov	 ecx, DWORD PTR __$ArrayPad$[ebp]
  0030b	33 cd		 xor	 ecx, ebp
  0030d	e8 00 00 00 00	 call	 @__security_check_cookie@4
  00312	8b e5		 mov	 esp, ebp
  00314	5d		 pop	 ebp
  00315	c2 04 00	 ret	 4
$LN5@DGAnsOffCh:

; 1880 : 			return;
; 1881 : 		}
; 1882 : 
; 1883 : 		short wGameServerCode = g_MapServerManager.CheckMoveMapSvr(lpObj->m_Index, lpObj->MapNumber, lpObj->m_sPrevMapSvrCode);

  00318	0f b7 86 ec 1b
	00 00		 movzx	 eax, WORD PTR [esi+7148]
  0031f	0f b6 8e 49 01
	00 00		 movzx	 ecx, BYTE PTR [esi+329]
  00326	8b 16		 mov	 edx, DWORD PTR [esi]
  00328	50		 push	 eax
  00329	51		 push	 ecx
  0032a	52		 push	 edx
  0032b	b9 00 00 00 00	 mov	 ecx, OFFSET ?g_MapServerManager@@3VCMapServerManager@@A ; g_MapServerManager
  00330	e8 00 00 00 00	 call	 ?CheckMoveMapSvr@CMapServerManager@@QAEFHHF@Z ; CMapServerManager::CheckMoveMapSvr
  00335	0f b7 d8	 movzx	 ebx, ax

; 1884 : 
; 1885 : 		if(wGameServerCode != gGameServerCode)

  00338	66 3b 1d 00 00
	00 00		 cmp	 bx, WORD PTR ?gGameServerCode@@3FA ; gGameServerCode
  0033f	0f 84 8b 00 00
	00		 je	 $LN4@DGAnsOffCh

; 1886 : 		{
; 1887 : 			if(wGameServerCode == -1)

  00345	66 83 fb ff	 cmp	 bx, -1
  00349	75 34		 jne	 SHORT $LN3@DGAnsOffCh

; 1888 : 			{
; 1889 : 				LogAddC(2,"[MapServerMng] Map Server Move Fail : CheckMoveMapSvr() == -1 [%s][%s] (%d)", lpObj->AccountID, lpObj->Name, lpObj->m_Index);

  0034b	8b 06		 mov	 eax, DWORD PTR [esi]
  0034d	50		 push	 eax
  0034e	8d 4e 77	 lea	 ecx, DWORD PTR [esi+119]
  00351	51		 push	 ecx
  00352	83 c6 6c	 add	 esi, 108		; 0000006cH
  00355	56		 push	 esi
  00356	68 00 00 00 00	 push	 OFFSET ??_C@_0EM@ICCPKMCE@?$FLMapServerMng?$FN?5Map?5Server?5Move?5F@
  0035b	6a 02		 push	 2
  0035d	ff 15 00 00 00
	00		 call	 DWORD PTR ?LogAddC@@3P6AXEPADZZA ; LogAddC

; 1890 : 				CloseClient(aIndex);

  00363	57		 push	 edi
  00364	e8 00 00 00 00	 call	 ?CloseClient@@YAXH@Z	; CloseClient
  00369	83 c4 18	 add	 esp, 24			; 00000018H
  0036c	5e		 pop	 esi
  0036d	5f		 pop	 edi
  0036e	5b		 pop	 ebx

; 1943 : }

  0036f	8b 4d fc	 mov	 ecx, DWORD PTR __$ArrayPad$[ebp]
  00372	33 cd		 xor	 ecx, ebp
  00374	e8 00 00 00 00	 call	 @__security_check_cookie@4
  00379	8b e5		 mov	 esp, ebp
  0037b	5d		 pop	 ebp
  0037c	c2 04 00	 ret	 4
$LN3@DGAnsOffCh:

; 1891 : 				return;
; 1892 : 			}
; 1893 : 
; 1894 : 			GJReqMapSvrMove(lpObj->m_Index, wGameServerCode, lpObj->MapNumber, lpObj->X, lpObj->Y);

  0037f	0f b6 96 46 01
	00 00		 movzx	 edx, BYTE PTR [esi+326]
  00386	0f b6 86 44 01
	00 00		 movzx	 eax, BYTE PTR [esi+324]
  0038d	52		 push	 edx
  0038e	0f b6 96 49 01
	00 00		 movzx	 edx, BYTE PTR [esi+329]
  00395	50		 push	 eax
  00396	8b 06		 mov	 eax, DWORD PTR [esi]
  00398	52		 push	 edx
  00399	53		 push	 ebx
  0039a	50		 push	 eax
  0039b	e8 00 00 00 00	 call	 ?GJReqMapSvrMove@@YAXHGGEE@Z ; GJReqMapSvrMove

; 1895 : 			LogAddTD("[MapServerMng] Request to Move Map Server : (%d) - [%s][%s] (%d)", wGameServerCode, lpObj->AccountID, lpObj->Name, lpObj->m_Index);

  003a0	8b 0e		 mov	 ecx, DWORD PTR [esi]
  003a2	51		 push	 ecx
  003a3	8d 56 77	 lea	 edx, DWORD PTR [esi+119]
  003a6	52		 push	 edx
  003a7	0f bf c3	 movsx	 eax, bx
  003aa	83 c6 6c	 add	 esi, 108		; 0000006cH
  003ad	56		 push	 esi
  003ae	50		 push	 eax
  003af	68 00 00 00 00	 push	 OFFSET ??_C@_0EB@KJANBCDD@?$FLMapServerMng?$FN?5Request?5to?5Move?5M@
  003b4	ff 15 00 00 00
	00		 call	 DWORD PTR ?LogAddTD@@3P6AXPADZZA ; LogAddTD
  003ba	83 c4 28	 add	 esp, 40			; 00000028H
  003bd	5e		 pop	 esi
  003be	5f		 pop	 edi
  003bf	5b		 pop	 ebx

; 1943 : }

  003c0	8b 4d fc	 mov	 ecx, DWORD PTR __$ArrayPad$[ebp]
  003c3	33 cd		 xor	 ecx, ebp
  003c5	e8 00 00 00 00	 call	 @__security_check_cookie@4
  003ca	8b e5		 mov	 esp, ebp
  003cc	5d		 pop	 ebp
  003cd	c2 04 00	 ret	 4
$LN4@DGAnsOffCh:

; 1896 : 			return;
; 1897 : 		}
; 1898 : 	}
; 1899 : 	
; 1900 : 	lpObj->m_bMapSvrMoveReq = false;
; 1901 : 
; 1902 : 	__int64 Experience = lpObj->Experience;
; 1903 : 
; 1904 : 	if(g_MasterLevelSystem.CheckIsMasterLevelCharacter(lpObj) != FALSE)

  003d0	56		 push	 esi
  003d1	b9 00 00 00 00	 mov	 ecx, OFFSET ?g_MasterLevelSystem@@3VCMasterLevelSystem@@A ; g_MasterLevelSystem
  003d6	c6 86 e5 1b 00
	00 00		 mov	 BYTE PTR [esi+7141], 0
  003dd	e8 00 00 00 00	 call	 ?CheckIsMasterLevelCharacter@CMasterLevelSystem@@QAEHPAUOBJECTSTRUCT@@@Z ; CMasterLevelSystem::CheckIsMasterLevelCharacter

; 1905 : 	{
; 1906 : 		Experience = lpObj->MLExp;
; 1907 : 	}
; 1908 : 
; 1909 : 	__int64 NextExperience = lpObj->NextExp;
; 1910 : 
; 1911 : 	if(g_MasterLevelSystem.CheckIsMasterLevelCharacter(lpObj) != FALSE)

  003e2	56		 push	 esi
  003e3	b9 00 00 00 00	 mov	 ecx, OFFSET ?g_MasterLevelSystem@@3VCMasterLevelSystem@@A ; g_MasterLevelSystem
  003e8	e8 00 00 00 00	 call	 ?CheckIsMasterLevelCharacter@CMasterLevelSystem@@QAEHPAUOBJECTSTRUCT@@@Z ; CMasterLevelSystem::CheckIsMasterLevelCharacter

; 1912 : 	{
; 1913 : 		NextExperience = lpObj->MLExp;
; 1914 : 	}
; 1915 : 
; 1916 : 	g_QuestInfo.QuestInfoSave(lpObj);

  003ed	56		 push	 esi
  003ee	b9 00 00 00 00	 mov	 ecx, OFFSET ?g_QuestInfo@@3VCQuestInfo@@A ; g_QuestInfo
  003f3	e8 00 00 00 00	 call	 ?QuestInfoSave@CQuestInfo@@QAEXPAUOBJECTSTRUCT@@@Z ; CQuestInfo::QuestInfoSave

; 1917 : 	g_ZtGDManager.DB_Load(aIndex);

  003f8	57		 push	 edi
  003f9	b9 00 00 00 00	 mov	 ecx, OFFSET ?g_ZtGDManager@@3VCZtGDManager@@A ; g_ZtGDManager
  003fe	e8 00 00 00 00	 call	 ?DB_Load@CZtGDManager@@QAEXH@Z ; CZtGDManager::DB_Load

; 1918 : 	g_MasterLevelSystem.GDReqMasterLevelInfo(lpObj);

  00403	56		 push	 esi
  00404	b9 00 00 00 00	 mov	 ecx, OFFSET ?g_MasterLevelSystem@@3VCMasterLevelSystem@@A ; g_MasterLevelSystem
  00409	e8 00 00 00 00	 call	 ?GDReqMasterLevelInfo@CMasterLevelSystem@@QAEXPAUOBJECTSTRUCT@@@Z ; CMasterLevelSystem::GDReqMasterLevelInfo

; 1919 : 	g_QuestUtil.Quest3rdRequestInfo(lpObj);

  0040e	56		 push	 esi
  0040f	b9 00 00 00 00	 mov	 ecx, OFFSET ?g_QuestUtil@@3VCQuestUtil@@A ; g_QuestUtil
  00414	e8 00 00 00 00	 call	 ?Quest3rdRequestInfo@CQuestUtil@@QAEXPAUOBJECTSTRUCT@@@Z ; CQuestUtil::Quest3rdRequestInfo

; 1920 : 	DGGuildMemberInfoRequest(aIndex);

  00419	57		 push	 edi
  0041a	e8 00 00 00 00	 call	 ?DGGuildMemberInfoRequest@@YAXH@Z ; DGGuildMemberInfoRequest

; 1921 : 
; 1922 : 	#if(FIX_LAND_OWNDER==TRUE)
; 1923 : 	lpObj->GuildLoadTick = 1;

  0041f	b9 01 00 00 00	 mov	 ecx, 1

; 1924 : 	#endif
; 1925 : 
; 1926 : 	FriendListRequest(aIndex);

  00424	57		 push	 edi
  00425	66 89 8e 10 29
	00 00		 mov	 WORD PTR [esi+10512], cx
  0042c	e8 00 00 00 00	 call	 ?FriendListRequest@@YAXH@Z ; FriendListRequest

; 1927 : 	gObjUseSkill.SkillChangeUse(lpObj->m_Index);

  00431	8b 16		 mov	 edx, DWORD PTR [esi]
  00433	83 c4 08	 add	 esp, 8
  00436	52		 push	 edx
  00437	b9 00 00 00 00	 mov	 ecx, OFFSET ?gObjUseSkill@@3VCObjUseSkill@@A ; gObjUseSkill
  0043c	e8 00 00 00 00	 call	 ?SkillChangeUse@CObjUseSkill@@QAEHH@Z ; CObjUseSkill::SkillChangeUse

; 1928 : 
; 1929 : 	#if(CUSTOM_PREMIUM_SYSTEM==TRUE)
; 1930 : 	g_PremiumSystemZt.UserConnect(aIndex);

  00441	57		 push	 edi
  00442	b9 00 00 00 00	 mov	 ecx, OFFSET ?g_PremiumSystemZt@@3VPremiumSystemZt@@A ; g_PremiumSystemZt
  00447	e8 00 00 00 00	 call	 ?UserConnect@PremiumSystemZt@@QAEXH@Z ; PremiumSystemZt::UserConnect

; 1931 : 	#endif
; 1932 : 
; 1933 : 	#if(CUSTOM_SAVE_PT==TRUE)
; 1934 : 	gParty.RestoreParty(aIndex);

  0044c	57		 push	 edi
  0044d	b9 00 00 00 00	 mov	 ecx, OFFSET ?gParty@@3VPartyClass@@A ; gParty
  00452	e8 00 00 00 00	 call	 ?RestoreParty@PartyClass@@QAEXH@Z ; PartyClass::RestoreParty

; 1935 : 	#endif
; 1936 : 
; 1937 : 	#if(CUSTOM_RETURNSPOT==TRUE)
; 1938 : 	//g_SpotReturn.GDStatusUpdate(aIndex, eStatusNormal);
; 1939 : 	#endif
; 1940 : 
; 1941 : 	lpObj->m_OfflineMode = true;
; 1942 : 	lpObj->m_OfflineSkill = 0;

  00457	33 c0		 xor	 eax, eax
  00459	c6 86 d4 28 00
	00 01		 mov	 BYTE PTR [esi+10452], 1
  00460	66 89 86 d6 28
	00 00		 mov	 WORD PTR [esi+10454], ax
  00467	5e		 pop	 esi
  00468	5f		 pop	 edi
$LN21@DGAnsOffCh:

; 1943 : }

  00469	8b 4d fc	 mov	 ecx, DWORD PTR __$ArrayPad$[ebp]
  0046c	33 cd		 xor	 ecx, ebp
  0046e	5b		 pop	 ebx
  0046f	e8 00 00 00 00	 call	 @__security_check_cookie@4
  00474	8b e5		 mov	 esp, ebp
  00476	5d		 pop	 ebp
  00477	c2 04 00	 ret	 4
?DGAnsOffCharacter@OfflineMode@@QAEXPAUSDHP_DBCHAR_INFORESULT@@@Z ENDP ; OfflineMode::DGAnsOffCharacter
_TEXT	ENDS
PUBLIC	__$ArrayPad$
PUBLIC	?DGPSelectData@OfflineMode@@QAEXPAUPMSG_GDLOAD_OFFMODE_DATA@@@Z ; OfflineMode::DGPSelectData
EXTRN	?MsgSendV2@@YAXPAUOBJECTSTRUCT@@PAEH@Z:PROC	; MsgSendV2
EXTRN	?PHeadSubSetB@@YAXPAEEEH@Z:PROC			; PHeadSubSetB
; Function compile flags: /Ogtp
;	COMDAT ?DGPSelectData@OfflineMode@@QAEXPAUPMSG_GDLOAD_OFFMODE_DATA@@@Z
_TEXT	SEGMENT
_lpUser$ = -80						; size = 4
_aIndex$ = -76						; size = 2
tv582 = -72						; size = 4
tv781 = -68						; size = 4
tv718 = -64						; size = 4
tv583 = -64						; size = 4
_iCredSize$215751 = -60					; size = 4
_pMsg$215797 = -56					; size = 52
__$ArrayPad$ = -4					; size = 4
_lpMsg$ = 8						; size = 4
?DGPSelectData@OfflineMode@@QAEXPAUPMSG_GDLOAD_OFFMODE_DATA@@@Z PROC ; OfflineMode::DGPSelectData, COMDAT
; _this$ = ecx

; 1946 : {

  00000	55		 push	 ebp
  00001	8b ec		 mov	 ebp, esp
  00003	83 ec 50	 sub	 esp, 80			; 00000050H
  00006	a1 00 00 00 00	 mov	 eax, DWORD PTR ___security_cookie
  0000b	33 c5		 xor	 eax, ebp
  0000d	89 45 fc	 mov	 DWORD PTR __$ArrayPad$[ebp], eax
  00010	8b 4d 08	 mov	 ecx, DWORD PTR _lpMsg$[ebp]

; 1947 : 	short aIndex = lpMsg->Number;

  00013	0f b7 41 04	 movzx	 eax, WORD PTR [ecx+4]
  00017	89 45 b4	 mov	 DWORD PTR _aIndex$[ebp], eax

; 1948 : 
; 1949 : 	if(!OBJMAX_RANGE(aIndex))

  0001a	66 85 c0	 test	 ax, ax
  0001d	0f 88 4b 02 00
	00		 js	 $LN5@DGPSelectD
  00023	53		 push	 ebx
  00024	33 db		 xor	 ebx, ebx
  00026	ba 97 3a 00 00	 mov	 edx, 14999		; 00003a97H
  0002b	66 3b c2	 cmp	 ax, dx
  0002e	0f 9e c3	 setle	 bl
  00031	8b d3		 mov	 edx, ebx
  00033	85 d2		 test	 edx, edx
  00035	0f 84 32 02 00
	00		 je	 $LN13@DGPSelectD

; 1950 : 	{
; 1951 : 		return;
; 1952 : 	}
; 1953 : 
; 1954 : 	LPOBJ lpUser = &gObj[aIndex];

  0003b	0f bf d8	 movsx	 ebx, ax
  0003e	a1 00 00 00 00	 mov	 eax, DWORD PTR ?gObj@@3PAUOBJECTSTRUCT@@A ; gObj
  00043	89 5d b8	 mov	 DWORD PTR tv582[ebp], ebx
  00046	69 db 50 2b 00
	00		 imul	 ebx, 11088		; 00002b50H
  0004c	8d 14 03	 lea	 edx, DWORD PTR [ebx+eax]

; 1955 : 
; 1956 : 	lpUser->m_OfflineSkill = MAKE_NUMBERW(lpMsg->AttackData[0], lpMsg->AttackData[1]);

  0004f	0f b6 41 06	 movzx	 eax, BYTE PTR [ecx+6]
  00053	66 c1 e0 08	 shl	 ax, 8
  00057	56		 push	 esi
  00058	0f b6 71 07	 movzx	 esi, BYTE PTR [ecx+7]
  0005c	66 0b c6	 or	 ax, si
  0005f	66 89 82 d6 28
	00 00		 mov	 WORD PTR [edx+10454], ax

; 1957 : 	lpUser->m_OfflineAutoBuff = lpMsg->AttackData[2];

  00066	80 79 08 00	 cmp	 BYTE PTR [ecx+8], 0
  0006a	89 5d c0	 mov	 DWORD PTR tv583[ebp], ebx
  0006d	0f 95 c0	 setne	 al
  00070	88 82 d9 28 00
	00		 mov	 BYTE PTR [edx+10457], al

; 1958 : 	lpUser->m_OfflinePickZen = lpMsg->AttackData[3];

  00076	80 79 09 00	 cmp	 BYTE PTR [ecx+9], 0
  0007a	89 55 b0	 mov	 DWORD PTR _lpUser$[ebp], edx
  0007d	0f 95 c0	 setne	 al
  00080	88 82 e0 28 00
	00		 mov	 BYTE PTR [edx+10464], al

; 1959 : 	lpUser->m_OfflinePickJewel = lpMsg->AttackData[4];

  00086	80 79 0a 00	 cmp	 BYTE PTR [ecx+10], 0
  0008a	0f 95 c0	 setne	 al
  0008d	88 82 e1 28 00
	00		 mov	 BYTE PTR [edx+10465], al

; 1960 : 	lpUser->m_OfflinePickExel = lpMsg->AttackData[5];

  00093	80 79 0b 00	 cmp	 BYTE PTR [ecx+11], 0
  00097	0f 95 c0	 setne	 al
  0009a	88 82 e2 28 00
	00		 mov	 BYTE PTR [edx+10466], al

; 1961 : 	lpUser->m_OfflinePickAnc = lpMsg->AttackData[6];

  000a0	80 79 0c 00	 cmp	 BYTE PTR [ecx+12], 0
  000a4	0f 95 c0	 setne	 al
  000a7	88 82 e3 28 00
	00		 mov	 BYTE PTR [edx+10467], al

; 1962 : 	//lpUser->m_OfflinePickForBonus = lpMsg->AttackData[7];
; 1963 : 
; 1964 : 	if(lpMsg->PShopOpen)

  000ad	80 79 0e 00	 cmp	 BYTE PTR [ecx+14], 0
  000b1	0f 84 b5 01 00
	00		 je	 $LN14@DGPSelectD

; 1965 : 	{
; 1966 : 		int iSize = 0;

  000b7	33 c0		 xor	 eax, eax
  000b9	be f0 a8 00 00	 mov	 esi, 43248		; 0000a8f0H

; 1967 : 		int iCredSize = 0;

  000be	89 45 c4	 mov	 DWORD PTR _iCredSize$215751[ebp], eax
  000c1	89 75 bc	 mov	 DWORD PTR tv781[ebp], esi
  000c4	57		 push	 edi
$LL4@DGPSelectD:

; 1968 : 
; 1969 : 		for(int i = MAIN_INVENTORY_SIZE; i < INVENTORY_SIZE; i++)
; 1970 : 		{
; 1971 : 			if(!lpMsg->PriceData[iSize])

  000c5	80 7c 01 33 00	 cmp	 BYTE PTR [ecx+eax+51], 0

; 1972 : 			{
; 1973 : 				iSize += 17;
; 1974 : 				iCredSize += 4;
; 1975 : 				continue;

  000ca	0f 84 0e 01 00
	00		 je	 $LN15@DGPSelectD

; 1976 : 			}
; 1977 : 
; 1978 : 			iSize++;
; 1979 : 
; 1980 : 			CItem * sitem = &gObj[aIndex].Inventory1[i];

  000d0	8b 15 00 00 00
	00		 mov	 edx, DWORD PTR ?gObj@@3PAUOBJECTSTRUCT@@A ; gObj
  000d6	8b 94 13 34 0e
	00 00		 mov	 edx, DWORD PTR [ebx+edx+3636]
  000dd	03 d6		 add	 edx, esi

; 1981 : 		
; 1982 : 			sitem->m_iPShopValue = MAKE_NUMBERDW(MAKE_NUMBERW(lpMsg->PriceData[iSize], lpMsg->PriceData[iSize+1]), MAKE_NUMBERW(lpMsg->PriceData[iSize+2], lpMsg->PriceData[iSize+3]));

  000df	0f b6 74 01 34	 movzx	 esi, BYTE PTR [ecx+eax+52]
  000e4	0f b6 7c 01 35	 movzx	 edi, BYTE PTR [ecx+eax+53]
  000e9	0f b6 5c 01 37	 movzx	 ebx, BYTE PTR [ecx+eax+55]
  000ee	66 c1 e6 08	 shl	 si, 8
  000f2	0f b7 f6	 movzx	 esi, si
  000f5	0b f7		 or	 esi, edi
  000f7	0f b6 7c 01 36	 movzx	 edi, BYTE PTR [ecx+eax+54]
  000fc	c1 e6 10	 shl	 esi, 16			; 00000010H
  000ff	66 c1 e7 08	 shl	 di, 8
  00103	0f b7 ff	 movzx	 edi, di
  00106	0b fb		 or	 edi, ebx
  00108	0b f7		 or	 esi, edi
  0010a	89 72 74	 mov	 DWORD PTR [edx+116], esi

; 1983 : 			iSize += 4;
; 1984 : 
; 1985 : 			sitem->m_iPShopBonus = MAKE_NUMBERDW(MAKE_NUMBERW(lpMsg->PriceData[iSize], lpMsg->PriceData[iSize+1]), MAKE_NUMBERW(lpMsg->PriceData[iSize+2], lpMsg->PriceData[iSize+3]));

  0010d	0f b6 74 01 38	 movzx	 esi, BYTE PTR [ecx+eax+56]
  00112	0f b6 7c 01 39	 movzx	 edi, BYTE PTR [ecx+eax+57]
  00117	0f b6 5c 01 3b	 movzx	 ebx, BYTE PTR [ecx+eax+59]
  0011c	66 c1 e6 08	 shl	 si, 8
  00120	0f b7 f6	 movzx	 esi, si
  00123	0b f7		 or	 esi, edi
  00125	0f b6 7c 01 3a	 movzx	 edi, BYTE PTR [ecx+eax+58]
  0012a	66 c1 e7 08	 shl	 di, 8
  0012e	c1 e6 10	 shl	 esi, 16			; 00000010H
  00131	0f b7 ff	 movzx	 edi, di
  00134	0b fb		 or	 edi, ebx
  00136	0b f7		 or	 esi, edi
  00138	89 72 78	 mov	 DWORD PTR [edx+120], esi

; 1986 : 			iSize += 4;
; 1987 : 
; 1988 : 			sitem->m_PShopBlessValue = MAKE_NUMBERW(lpMsg->PriceData[iSize], lpMsg->PriceData[iSize+1]);

  0013b	0f b6 74 01 3c	 movzx	 esi, BYTE PTR [ecx+eax+60]
  00140	0f b6 7c 01 3d	 movzx	 edi, BYTE PTR [ecx+eax+61]
  00145	66 c1 e6 08	 shl	 si, 8
  00149	66 0b f7	 or	 si, di
  0014c	66 89 72 7c	 mov	 WORD PTR [edx+124], si

; 1989 : 			iSize += 2;
; 1990 : 
; 1991 : 			sitem->m_PShopSoulValue = MAKE_NUMBERW(lpMsg->PriceData[iSize], lpMsg->PriceData[iSize+1]);

  00150	0f b6 74 01 3e	 movzx	 esi, BYTE PTR [ecx+eax+62]
  00155	0f b6 7c 01 3f	 movzx	 edi, BYTE PTR [ecx+eax+63]
  0015a	66 c1 e6 08	 shl	 si, 8
  0015e	66 0b f7	 or	 si, di
  00161	66 89 72 7e	 mov	 WORD PTR [edx+126], si

; 1992 : 			iSize += 2;
; 1993 : 
; 1994 : 			sitem->m_PShopChaosValue = MAKE_NUMBERW(lpMsg->PriceData[iSize], lpMsg->PriceData[iSize+1]);

  00165	0f b6 74 01 40	 movzx	 esi, BYTE PTR [ecx+eax+64]
  0016a	0f b6 7c 01 41	 movzx	 edi, BYTE PTR [ecx+eax+65]
  0016f	66 c1 e6 08	 shl	 si, 8
  00173	66 0b f7	 or	 si, di
  00176	66 89 b2 80 00
	00 00		 mov	 WORD PTR [edx+128], si

; 1995 : 			iSize += 2;
; 1996 : 
; 1997 : 			sitem->m_PShopLifeValue = MAKE_NUMBERW(lpMsg->PriceData[iSize], lpMsg->PriceData[iSize+1]);

  0017d	0f b6 74 01 42	 movzx	 esi, BYTE PTR [ecx+eax+66]
  00182	0f b6 7c 01 43	 movzx	 edi, BYTE PTR [ecx+eax+67]
  00187	66 c1 e6 08	 shl	 si, 8
  0018b	66 0b f7	 or	 si, di
  0018e	66 89 b2 82 00
	00 00		 mov	 WORD PTR [edx+130], si

; 1998 : 			iSize += 2;
; 1999 : 
; 2000 : 			sitem->m_iPShopCredit = MAKE_NUMBERDW(MAKE_NUMBERW(lpMsg->CreditData[iCredSize], lpMsg->CreditData[iCredSize+1]), MAKE_NUMBERW(lpMsg->CreditData[iCredSize+2], lpMsg->CreditData[iCredSize+3]));

  00195	8b 75 c4	 mov	 esi, DWORD PTR _iCredSize$215751[ebp]
  00198	0f b6 bc 31 53
	02 00 00	 movzx	 edi, BYTE PTR [ecx+esi+595]
  001a0	0f b6 9c 31 54
	02 00 00	 movzx	 ebx, BYTE PTR [ecx+esi+596]
  001a8	66 c1 e7 08	 shl	 di, 8
  001ac	0f b7 ff	 movzx	 edi, di
  001af	0b fb		 or	 edi, ebx
  001b1	0f b6 9c 31 55
	02 00 00	 movzx	 ebx, BYTE PTR [ecx+esi+597]
  001b9	0f b6 b4 31 56
	02 00 00	 movzx	 esi, BYTE PTR [ecx+esi+598]
  001c1	66 c1 e3 08	 shl	 bx, 8
  001c5	0f b7 db	 movzx	 ebx, bx
  001c8	0b de		 or	 ebx, esi

; 2001 : 			iCredSize += 4;

  001ca	8b 75 bc	 mov	 esi, DWORD PTR tv781[ebp]
  001cd	c1 e7 10	 shl	 edi, 16			; 00000010H
  001d0	0b fb		 or	 edi, ebx
  001d2	8b 5d c0	 mov	 ebx, DWORD PTR tv583[ebp]
  001d5	89 ba 84 00 00
	00		 mov	 DWORD PTR [edx+132], edi
  001db	8b 55 b0	 mov	 edx, DWORD PTR _lpUser$[ebp]
$LN15@DGPSelectD:
  001de	83 45 c4 04	 add	 DWORD PTR _iCredSize$215751[ebp], 4
  001e2	81 c6 d4 00 00
	00		 add	 esi, 212		; 000000d4H
  001e8	83 c0 11	 add	 eax, 17			; 00000011H
  001eb	89 75 bc	 mov	 DWORD PTR tv781[ebp], esi
  001ee	81 fe 70 c3 00
	00		 cmp	 esi, 50032		; 0000c370H
  001f4	0f 8c cb fe ff
	ff		 jl	 $LL4@DGPSelectD

; 2002 : 		}
; 2003 : 
; 2004 : 		memcpy(lpUser->m_szPShopText, lpMsg->PShopText, sizeof(lpMsg->PShopText));
; 2005 : 		lpUser->m_bPShopOpen = true;
; 2006 : 
; 2007 : 		PMSG_ANS_PSHOP_TEXT_CHANGED pMsg;
; 2008 : 		PHeadSubSetB((LPBYTE)&pMsg, 0x3F, 0x10, sizeof(pMsg));

  001fa	6a 34		 push	 52			; 00000034H
  001fc	8d 71 0f	 lea	 esi, DWORD PTR [ecx+15]
  001ff	6a 10		 push	 16			; 00000010H
  00201	8d ba c8 0e 00
	00		 lea	 edi, DWORD PTR [edx+3784]
  00207	8d 45 c8	 lea	 eax, DWORD PTR _pMsg$215797[ebp]
  0020a	b9 09 00 00 00	 mov	 ecx, 9
  0020f	6a 3f		 push	 63			; 0000003fH
  00211	89 75 c0	 mov	 DWORD PTR tv718[ebp], esi
  00214	f3 a5		 rep movsd
  00216	50		 push	 eax
  00217	c6 82 c4 0e 00
	00 01		 mov	 BYTE PTR [edx+3780], 1
  0021e	e8 00 00 00 00	 call	 ?PHeadSubSetB@@YAXPAEEEH@Z ; PHeadSubSetB

; 2009 : 		pMsg.NumberH = SET_NUMBERH(aIndex);

  00223	8b 4d b8	 mov	 ecx, DWORD PTR tv582[ebp]

; 2010 : 		pMsg.NumberL = SET_NUMBERL(aIndex);
; 2011 : 		memcpy(pMsg.btPShopText, lpMsg->PShopText, sizeof(pMsg.btPShopText));
; 2012 : 		memcpy(pMsg.btName, gObj[aIndex].Name, sizeof(pMsg.btName));

  00226	03 1d 00 00 00
	00		 add	 ebx, DWORD PTR ?gObj@@3PAUOBJECTSTRUCT@@A ; gObj
  0022c	8a 55 b4	 mov	 dl, BYTE PTR _aIndex$[ebp]
  0022f	8b 75 c0	 mov	 esi, DWORD PTR tv718[ebp]
  00232	c1 e9 08	 shr	 ecx, 8
  00235	88 4d cc	 mov	 BYTE PTR _pMsg$215797[ebp+4], cl
  00238	88 55 cd	 mov	 BYTE PTR _pMsg$215797[ebp+5], dl
  0023b	b9 09 00 00 00	 mov	 ecx, 9
  00240	8d 7d ce	 lea	 edi, DWORD PTR _pMsg$215797[ebp+6]
  00243	f3 a5		 rep movsd
  00245	8b 4b 77	 mov	 ecx, DWORD PTR [ebx+119]
  00248	89 4d f2	 mov	 DWORD PTR _pMsg$215797[ebp+42], ecx
  0024b	8b 53 7b	 mov	 edx, DWORD PTR [ebx+123]

; 2013 : 		MsgSendV2(&gObj[aIndex], (LPBYTE)&pMsg, pMsg.h.size);

  0024e	0f b6 4d c9	 movzx	 ecx, BYTE PTR _pMsg$215797[ebp+1]
  00252	89 55 f6	 mov	 DWORD PTR _pMsg$215797[ebp+46], edx
  00255	66 8b 43 7f	 mov	 ax, WORD PTR [ebx+127]
  00259	51		 push	 ecx
  0025a	8d 55 c8	 lea	 edx, DWORD PTR _pMsg$215797[ebp]
  0025d	52		 push	 edx
  0025e	53		 push	 ebx
  0025f	66 89 45 fa	 mov	 WORD PTR _pMsg$215797[ebp+50], ax
  00263	e8 00 00 00 00	 call	 ?MsgSendV2@@YAXPAUOBJECTSTRUCT@@PAEH@Z ; MsgSendV2
  00268	83 c4 1c	 add	 esp, 28			; 0000001cH
  0026b	5f		 pop	 edi
$LN14@DGPSelectD:
  0026c	5e		 pop	 esi
$LN13@DGPSelectD:
  0026d	5b		 pop	 ebx
$LN5@DGPSelectD:

; 2014 : 	}
; 2015 : }

  0026e	8b 4d fc	 mov	 ecx, DWORD PTR __$ArrayPad$[ebp]
  00271	33 cd		 xor	 ecx, ebp
  00273	e8 00 00 00 00	 call	 @__security_check_cookie@4
  00278	8b e5		 mov	 esp, ebp
  0027a	5d		 pop	 ebp
  0027b	c2 04 00	 ret	 4
?DGPSelectData@OfflineMode@@QAEXPAUPMSG_GDLOAD_OFFMODE_DATA@@@Z ENDP ; OfflineMode::DGPSelectData
_TEXT	ENDS
PUBLIC	__$ArrayPad$
PUBLIC	?GDUpdateData@OfflineMode@@QAEXH@Z		; OfflineMode::GDUpdateData
EXTRN	?IsItem@CItem@@QAEHXZ:PROC			; CItem::IsItem
EXTRN	_memset:PROC
; Function compile flags: /Ogtp
;	COMDAT ?GDUpdateData@OfflineMode@@QAEXH@Z
_TEXT	SEGMENT
tv451 = -1424						; size = 4
_btBuff$ = -1420					; size = 8
tv643 = -1416						; size = 4
_pMsg$ = -1412						; size = 733
_btPacket$ = -676					; size = 544
_btCredit$ = -132					; size = 128
__$ArrayPad$ = -4					; size = 4
_aIndex$ = 8						; size = 4
?GDUpdateData@OfflineMode@@QAEXH@Z PROC			; OfflineMode::GDUpdateData, COMDAT
; _this$ = ecx

; 2018 : {

  00000	55		 push	 ebp
  00001	8b ec		 mov	 ebp, esp
  00003	81 ec 90 05 00
	00		 sub	 esp, 1424		; 00000590H
  00009	a1 00 00 00 00	 mov	 eax, DWORD PTR ___security_cookie
  0000e	33 c5		 xor	 eax, ebp
  00010	89 45 fc	 mov	 DWORD PTR __$ArrayPad$[ebp], eax
  00013	53		 push	 ebx
  00014	8b 5d 08	 mov	 ebx, DWORD PTR _aIndex$[ebp]

; 2019 : 	if(!OBJMAX_RANGE(aIndex))

  00017	85 db		 test	 ebx, ebx
  00019	0f 88 d1 02 00
	00		 js	 $LN7@GDUpdateDa
  0001f	33 c0		 xor	 eax, eax
  00021	81 fb 97 3a 00
	00		 cmp	 ebx, 14999		; 00003a97H
  00027	0f 9e c0	 setle	 al
  0002a	85 c0		 test	 eax, eax
  0002c	0f 84 be 02 00
	00		 je	 $LN7@GDUpdateDa

; 2020 : 	{
; 2021 : 		return;
; 2022 : 	}
; 2023 : 
; 2024 : 	LPOBJ lpUser = &gObj[aIndex];

  00032	56		 push	 esi
  00033	69 db 50 2b 00
	00		 imul	 ebx, 11088		; 00002b50H
  00039	57		 push	 edi

; 2025 : 
; 2026 : 	PMSG_GDSAVE_OFFMODE_DATA pMsg = { 0 };

  0003a	68 dc 02 00 00	 push	 732			; 000002dcH
  0003f	8d 85 7d fa ff
	ff		 lea	 eax, DWORD PTR _pMsg$[ebp+1]
  00045	6a 00		 push	 0
  00047	50		 push	 eax
  00048	89 9d 70 fa ff
	ff		 mov	 DWORD PTR tv451[ebp], ebx
  0004e	e8 00 00 00 00	 call	 _memset

; 2027 : 	pMsg.h.set((LPBYTE)&pMsg, 0xED, sizeof(pMsg));
; 2028 : 	memcpy(pMsg.Name, lpUser->Name, sizeof(pMsg.Name));

  00053	a1 00 00 00 00	 mov	 eax, DWORD PTR ?gObj@@3PAUOBJECTSTRUCT@@A ; gObj
  00058	c7 85 7c fa ff
	ff c2 02 dd ed	 mov	 DWORD PTR _pMsg$[ebp], -304282942 ; eddd02c2H
  00062	8b 4c 03 77	 mov	 ecx, DWORD PTR [ebx+eax+119]
  00066	89 8d 80 fa ff
	ff		 mov	 DWORD PTR _pMsg$[ebp+4], ecx
  0006c	8b 54 03 7b	 mov	 edx, DWORD PTR [ebx+eax+123]
  00070	89 95 84 fa ff
	ff		 mov	 DWORD PTR _pMsg$[ebp+8], edx
  00076	66 8b 4c 03 7f	 mov	 cx, WORD PTR [ebx+eax+127]
  0007b	66 89 8d 88 fa
	ff ff		 mov	 WORD PTR _pMsg$[ebp+12], cx
  00082	8a 94 03 81 00
	00 00		 mov	 dl, BYTE PTR [ebx+eax+129]
  00089	88 95 8a fa ff
	ff		 mov	 BYTE PTR _pMsg$[ebp+14], dl

; 2029 : 	pMsg.Status = lpUser->m_OfflineMode;

  0008f	8a 8c 03 d4 28
	00 00		 mov	 cl, BYTE PTR [ebx+eax+10452]
  00096	88 8d 8b fa ff
	ff		 mov	 BYTE PTR _pMsg$[ebp+15], cl

; 2030 : 	memcpy(pMsg.PShopText, lpUser->m_szPShopText, sizeof(pMsg.PShopText));

  0009c	8d b4 03 c8 0e
	00 00		 lea	 esi, DWORD PTR [ebx+eax+3784]
  000a3	b9 09 00 00 00	 mov	 ecx, 9
  000a8	8d bd 95 fa ff
	ff		 lea	 edi, DWORD PTR _pMsg$[ebp+25]
  000ae	83 c4 0c	 add	 esp, 12			; 0000000cH
  000b1	f3 a5		 rep movsd

; 2031 : 
; 2032 : 	if(lpUser->m_OfflineMode && lpUser->m_bPShopOpen)

  000b3	80 bc 03 d4 28
	00 00 00	 cmp	 BYTE PTR [ebx+eax+10452], 0
  000bb	74 11		 je	 SHORT $LN5@GDUpdateDa
  000bd	80 bc 03 c4 0e
	00 00 00	 cmp	 BYTE PTR [ebx+eax+3780], 0

; 2033 : 	{
; 2034 : 		pMsg.PShopOpen = true;

  000c5	c6 85 94 fa ff
	ff 01		 mov	 BYTE PTR _pMsg$[ebp+24], 1
  000cc	75 07		 jne	 SHORT $LN4@GDUpdateDa
$LN5@GDUpdateDa:

; 2035 : 	}
; 2036 : 	else
; 2037 : 	{
; 2038 : 		pMsg.PShopOpen = false;

  000ce	c6 85 94 fa ff
	ff 00		 mov	 BYTE PTR _pMsg$[ebp+24], 0
$LN4@GDUpdateDa:

; 2039 : 	}
; 2040 : 
; 2041 : 	BYTE btBuff[OFFLINEMODE_DBMAX] = { 0 };
; 2042 : 
; 2043 : 	btBuff[0] = SET_NUMBERH(lpUser->m_OfflineSkill);

  000d5	0f b6 94 03 d7
	28 00 00	 movzx	 edx, BYTE PTR [ebx+eax+10455]
  000dd	33 c9		 xor	 ecx, ecx
  000df	89 8d 75 fa ff
	ff		 mov	 DWORD PTR _btBuff$[ebp+1], ecx
  000e5	66 89 8d 79 fa
	ff ff		 mov	 WORD PTR _btBuff$[ebp+5], cx
  000ec	88 95 74 fa ff
	ff		 mov	 BYTE PTR _btBuff$[ebp], dl

; 2044 : 	btBuff[1] = SET_NUMBERL(lpUser->m_OfflineSkill);	
; 2045 : 	btBuff[2] = lpUser->m_OfflineAutoBuff;				

  000f2	0f b6 94 03 d9
	28 00 00	 movzx	 edx, BYTE PTR [ebx+eax+10457]
  000fa	88 8d 7b fa ff
	ff		 mov	 BYTE PTR _btBuff$[ebp+7], cl
  00100	0f b6 8c 03 d6
	28 00 00	 movzx	 ecx, BYTE PTR [ebx+eax+10454]
  00108	88 95 76 fa ff
	ff		 mov	 BYTE PTR _btBuff$[ebp+2], dl

; 2046 : 	btBuff[3] = lpUser->m_OfflinePickZen;				
; 2047 : 	btBuff[4] = lpUser->m_OfflinePickJewel;				

  0010e	0f b6 94 03 e1
	28 00 00	 movzx	 edx, BYTE PTR [ebx+eax+10465]
  00116	88 8d 75 fa ff
	ff		 mov	 BYTE PTR _btBuff$[ebp+1], cl
  0011c	0f b6 8c 03 e0
	28 00 00	 movzx	 ecx, BYTE PTR [ebx+eax+10464]
  00124	88 95 78 fa ff
	ff		 mov	 BYTE PTR _btBuff$[ebp+4], dl

; 2048 : 	btBuff[5] = lpUser->m_OfflinePickExel;				
; 2049 : 	btBuff[6] = lpUser->m_OfflinePickAnc;				

  0012a	0f b6 94 03 e3
	28 00 00	 movzx	 edx, BYTE PTR [ebx+eax+10467]
  00132	88 8d 77 fa ff
	ff		 mov	 BYTE PTR _btBuff$[ebp+3], cl
  00138	0f b6 8c 03 e2
	28 00 00	 movzx	 ecx, BYTE PTR [ebx+eax+10466]

; 2050 : 	btBuff[7] = 0;			
; 2051 : 
; 2052 : 	memcpy(pMsg.AttackData, btBuff, OFFLINEMODE_DBMAX);

  00140	8b 85 74 fa ff
	ff		 mov	 eax, DWORD PTR _btBuff$[ebp]
  00146	88 95 7a fa ff
	ff		 mov	 BYTE PTR _btBuff$[ebp+6], dl

; 2053 : 
; 2054 : 	int iSize = 0;
; 2055 : 	BYTE btPacket[OFFLINEMODE_DBPRICE] = { 0 };

  0014c	68 1f 02 00 00	 push	 543			; 0000021fH
  00151	88 8d 79 fa ff
	ff		 mov	 BYTE PTR _btBuff$[ebp+5], cl
  00157	8d 95 5d fd ff
	ff		 lea	 edx, DWORD PTR _btPacket$[ebp+1]
  0015d	c6 85 7b fa ff
	ff 00		 mov	 BYTE PTR _btBuff$[ebp+7], 0
  00164	8b 8d 78 fa ff
	ff		 mov	 ecx, DWORD PTR _btBuff$[ebp+4]
  0016a	6a 00		 push	 0
  0016c	52		 push	 edx
  0016d	89 85 8c fa ff
	ff		 mov	 DWORD PTR _pMsg$[ebp+16], eax
  00173	89 8d 90 fa ff
	ff		 mov	 DWORD PTR _pMsg$[ebp+20], ecx
  00179	c6 85 5c fd ff
	ff 00		 mov	 BYTE PTR _btPacket$[ebp], 0
  00180	e8 00 00 00 00	 call	 _memset

; 2056 : 
; 2057 : 	int iCredSize = 0;
; 2058 : 	BYTE btCredit[OFFLINEMODE_DBCREDIT] = { 0 };

  00185	6a 7f		 push	 127			; 0000007fH
  00187	8d 85 7d ff ff
	ff		 lea	 eax, DWORD PTR _btCredit$[ebp+1]
  0018d	6a 00		 push	 0
  0018f	50		 push	 eax
  00190	c6 85 7c ff ff
	ff 00		 mov	 BYTE PTR _btCredit$[ebp], 0
  00197	e8 00 00 00 00	 call	 _memset
  0019c	83 c4 18	 add	 esp, 24			; 00000018H
  0019f	8d 9d 7c ff ff
	ff		 lea	 ebx, DWORD PTR _btCredit$[ebp]
  001a5	8d b5 5c fd ff
	ff		 lea	 esi, DWORD PTR _btPacket$[ebp]
  001ab	c7 85 78 fa ff
	ff f0 a8 00 00	 mov	 DWORD PTR tv643[ebp], 43248 ; 0000a8f0H
  001b5	eb 09 8d a4 24
	00 00 00 00 8b
	ff		 npad	 11
$LL15@GDUpdateDa:

; 2059 : 
; 2060 : 	for(int i = MAIN_INVENTORY_SIZE; i < INVENTORY_SIZE; i++)
; 2061 : 	{
; 2062 : 		CItem* sitem = &gObj[aIndex].Inventory1[i];

  001c0	8b 0d 00 00 00
	00		 mov	 ecx, DWORD PTR ?gObj@@3PAUOBJECTSTRUCT@@A ; gObj
  001c6	8b 95 70 fa ff
	ff		 mov	 edx, DWORD PTR tv451[ebp]
  001cc	8b bc 0a 34 0e
	00 00		 mov	 edi, DWORD PTR [edx+ecx+3636]
  001d3	03 bd 78 fa ff
	ff		 add	 edi, DWORD PTR tv643[ebp]

; 2063 : 
; 2064 : 		btPacket[iSize] = sitem->IsItem();									iSize++;

  001d9	8b cf		 mov	 ecx, edi
  001db	e8 00 00 00 00	 call	 ?IsItem@CItem@@QAEHXZ	; CItem::IsItem
  001e0	88 06		 mov	 BYTE PTR [esi], al

; 2065 : 
; 2066 : 		btPacket[iSize] = SET_NUMBERH(SET_NUMBERHW(sitem->m_iPShopValue));	iSize++;

  001e2	0f b7 47 76	 movzx	 eax, WORD PTR [edi+118]

; 2067 : 		btPacket[iSize] = SET_NUMBERL(SET_NUMBERHW(sitem->m_iPShopValue));	iSize++;
; 2068 : 		btPacket[iSize] = SET_NUMBERH(SET_NUMBERLW(sitem->m_iPShopValue));	iSize++;

  001e6	0f b6 57 75	 movzx	 edx, BYTE PTR [edi+117]
  001ea	8b c8		 mov	 ecx, eax
  001ec	c1 e9 08	 shr	 ecx, 8
  001ef	88 4e 01	 mov	 BYTE PTR [esi+1], cl
  001f2	88 46 02	 mov	 BYTE PTR [esi+2], al

; 2069 : 		btPacket[iSize] = SET_NUMBERL(SET_NUMBERLW(sitem->m_iPShopValue));	iSize++;

  001f5	0f b6 47 74	 movzx	 eax, BYTE PTR [edi+116]
  001f9	88 56 03	 mov	 BYTE PTR [esi+3], dl

; 2070 : 
; 2071 : 		btPacket[iSize] = SET_NUMBERH(SET_NUMBERHW(sitem->m_iPShopBonus));	iSize++;
; 2072 : 		btPacket[iSize] = SET_NUMBERL(SET_NUMBERHW(sitem->m_iPShopBonus));	iSize++;
; 2073 : 		btPacket[iSize] = SET_NUMBERH(SET_NUMBERLW(sitem->m_iPShopBonus));	iSize++;

  001fc	0f b6 57 79	 movzx	 edx, BYTE PTR [edi+121]
  00200	88 46 04	 mov	 BYTE PTR [esi+4], al
  00203	0f b7 47 7a	 movzx	 eax, WORD PTR [edi+122]
  00207	8b c8		 mov	 ecx, eax
  00209	c1 e9 08	 shr	 ecx, 8
  0020c	88 4e 05	 mov	 BYTE PTR [esi+5], cl

; 2074 : 		btPacket[iSize] = SET_NUMBERL(SET_NUMBERLW(sitem->m_iPShopBonus));	iSize++;
; 2075 : 
; 2076 : 		btPacket[iSize] = SET_NUMBERH(sitem->m_PShopBlessValue);			iSize++;

  0020f	0f bf 4f 7c	 movsx	 ecx, WORD PTR [edi+124]
  00213	88 46 06	 mov	 BYTE PTR [esi+6], al
  00216	0f b6 47 78	 movzx	 eax, BYTE PTR [edi+120]
  0021a	88 56 07	 mov	 BYTE PTR [esi+7], dl

; 2077 : 		btPacket[iSize] = SET_NUMBERL(sitem->m_PShopBlessValue);			iSize++;

  0021d	0f b6 57 7c	 movzx	 edx, BYTE PTR [edi+124]
  00221	88 46 08	 mov	 BYTE PTR [esi+8], al

; 2078 : 			
; 2079 : 		btPacket[iSize] = SET_NUMBERH(sitem->m_PShopSoulValue);				iSize++;

  00224	0f bf 47 7e	 movsx	 eax, WORD PTR [edi+126]
  00228	c1 e9 08	 shr	 ecx, 8
  0022b	88 4e 09	 mov	 BYTE PTR [esi+9], cl

; 2080 : 		btPacket[iSize] = SET_NUMBERL(sitem->m_PShopSoulValue);				iSize++;

  0022e	8a 4f 7e	 mov	 cl, BYTE PTR [edi+126]
  00231	88 56 0a	 mov	 BYTE PTR [esi+10], dl

; 2081 : 
; 2082 : 		btPacket[iSize] = SET_NUMBERH(sitem->m_PShopChaosValue);			iSize++;

  00234	0f bf 97 80 00
	00 00		 movsx	 edx, WORD PTR [edi+128]
  0023b	c1 e8 08	 shr	 eax, 8
  0023e	88 46 0b	 mov	 BYTE PTR [esi+11], al

; 2083 : 		btPacket[iSize] = SET_NUMBERL(sitem->m_PShopChaosValue);			iSize++;

  00241	0f b6 87 80 00
	00 00		 movzx	 eax, BYTE PTR [edi+128]
  00248	88 4e 0c	 mov	 BYTE PTR [esi+12], cl

; 2084 : 
; 2085 : 		btPacket[iSize] = SET_NUMBERH(sitem->m_PShopLifeValue);				iSize++;

  0024b	0f bf 8f 82 00
	00 00		 movsx	 ecx, WORD PTR [edi+130]
  00252	c1 ea 08	 shr	 edx, 8
  00255	88 56 0d	 mov	 BYTE PTR [esi+13], dl

; 2086 : 		btPacket[iSize] = SET_NUMBERL(sitem->m_PShopLifeValue);				iSize++;

  00258	0f b6 97 82 00
	00 00		 movzx	 edx, BYTE PTR [edi+130]
  0025f	88 46 0e	 mov	 BYTE PTR [esi+14], al

; 2087 : 
; 2088 : 		btCredit[iCredSize] = SET_NUMBERH(SET_NUMBERHW(sitem->m_iPShopCredit));	iCredSize++;

  00262	0f b7 87 86 00
	00 00		 movzx	 eax, WORD PTR [edi+134]
  00269	c1 e9 08	 shr	 ecx, 8
  0026c	88 4e 0f	 mov	 BYTE PTR [esi+15], cl
  0026f	8b c8		 mov	 ecx, eax
  00271	c1 e9 08	 shr	 ecx, 8
  00274	88 0b		 mov	 BYTE PTR [ebx], cl

; 2089 : 		btCredit[iCredSize] = SET_NUMBERL(SET_NUMBERHW(sitem->m_iPShopCredit));	iCredSize++;

  00276	88 43 01	 mov	 BYTE PTR [ebx+1], al

; 2090 : 		btCredit[iCredSize] = SET_NUMBERH(SET_NUMBERLW(sitem->m_iPShopCredit));	iCredSize++;
; 2091 : 		btCredit[iCredSize] = SET_NUMBERL(SET_NUMBERLW(sitem->m_iPShopCredit));	iCredSize++;

  00279	0f b6 87 84 00
	00 00		 movzx	 eax, BYTE PTR [edi+132]
  00280	88 56 10	 mov	 BYTE PTR [esi+16], dl
  00283	0f b6 97 85 00
	00 00		 movzx	 edx, BYTE PTR [edi+133]
  0028a	88 53 02	 mov	 BYTE PTR [ebx+2], dl
  0028d	88 43 03	 mov	 BYTE PTR [ebx+3], al
  00290	8b 85 78 fa ff
	ff		 mov	 eax, DWORD PTR tv643[ebp]
  00296	05 d4 00 00 00	 add	 eax, 212		; 000000d4H
  0029b	83 c6 11	 add	 esi, 17			; 00000011H
  0029e	83 c3 04	 add	 ebx, 4
  002a1	89 85 78 fa ff
	ff		 mov	 DWORD PTR tv643[ebp], eax
  002a7	3d 70 c3 00 00	 cmp	 eax, 50032		; 0000c370H
  002ac	0f 8c 0e ff ff
	ff		 jl	 $LL15@GDUpdateDa

; 2092 : 	}
; 2093 : 
; 2094 : 	memcpy(pMsg.PriceData, btPacket, OFFLINEMODE_DBPRICE);

  002b2	b9 88 00 00 00	 mov	 ecx, 136		; 00000088H
  002b7	8d b5 5c fd ff
	ff		 lea	 esi, DWORD PTR _btPacket$[ebp]
  002bd	8d bd b9 fa ff
	ff		 lea	 edi, DWORD PTR _pMsg$[ebp+61]
  002c3	f3 a5		 rep movsd

; 2095 : 
; 2096 : 	memcpy(pMsg.CreditData, btCredit, OFFLINEMODE_DBCREDIT);

  002c5	b9 20 00 00 00	 mov	 ecx, 32			; 00000020H
  002ca	8d b5 7c ff ff
	ff		 lea	 esi, DWORD PTR _btCredit$[ebp]
  002d0	8d bd d9 fc ff
	ff		 lea	 edi, DWORD PTR _pMsg$[ebp+605]
  002d6	f3 a5		 rep movsd

; 2097 : 
; 2098 : 	cDBSMng.Send((char*)&pMsg, sizeof(pMsg));

  002d8	68 dd 02 00 00	 push	 733			; 000002ddH
  002dd	8d 8d 7c fa ff
	ff		 lea	 ecx, DWORD PTR _pMsg$[ebp]
  002e3	51		 push	 ecx
  002e4	b9 00 00 00 00	 mov	 ecx, OFFSET ?cDBSMng@@3VDBSockMng@@A ; cDBSMng
  002e9	e8 00 00 00 00	 call	 ?Send@DBSockMng@@QAEHPADH@Z ; DBSockMng::Send
  002ee	5f		 pop	 edi
  002ef	5e		 pop	 esi
$LN7@GDUpdateDa:

; 2099 : }

  002f0	8b 4d fc	 mov	 ecx, DWORD PTR __$ArrayPad$[ebp]
  002f3	33 cd		 xor	 ecx, ebp
  002f5	5b		 pop	 ebx
  002f6	e8 00 00 00 00	 call	 @__security_check_cookie@4
  002fb	8b e5		 mov	 esp, ebp
  002fd	5d		 pop	 ebp
  002fe	c2 04 00	 ret	 4
?GDUpdateData@OfflineMode@@QAEXH@Z ENDP			; OfflineMode::GDUpdateData
_TEXT	ENDS
PUBLIC	__$ArrayPad$
PUBLIC	?GDReqUpdateStatus@OfflineMode@@QAEXH@Z		; OfflineMode::GDReqUpdateStatus
; Function compile flags: /Ogtp
;	COMDAT ?GDReqUpdateStatus@OfflineMode@@QAEXH@Z
_TEXT	SEGMENT
_pMsg$ = -20						; size = 16
__$ArrayPad$ = -4					; size = 4
_aIndex$ = 8						; size = 4
?GDReqUpdateStatus@OfflineMode@@QAEXH@Z PROC		; OfflineMode::GDReqUpdateStatus, COMDAT
; _this$ = ecx

; 2102 : {

  00000	55		 push	 ebp
  00001	8b ec		 mov	 ebp, esp
  00003	83 ec 14	 sub	 esp, 20			; 00000014H
  00006	a1 00 00 00 00	 mov	 eax, DWORD PTR ___security_cookie
  0000b	33 c5		 xor	 eax, ebp
  0000d	89 45 fc	 mov	 DWORD PTR __$ArrayPad$[ebp], eax
  00010	8b 45 08	 mov	 eax, DWORD PTR _aIndex$[ebp]

; 2103 : 	if(!OBJMAX_RANGE(aIndex))

  00013	85 c0		 test	 eax, eax
  00015	78 57		 js	 SHORT $LN2@GDReqUpdat
  00017	33 c9		 xor	 ecx, ecx
  00019	3d 97 3a 00 00	 cmp	 eax, 14999		; 00003a97H
  0001e	0f 9e c1	 setle	 cl
  00021	85 c9		 test	 ecx, ecx
  00023	74 49		 je	 SHORT $LN2@GDReqUpdat

; 2104 : 	{
; 2105 : 		return;
; 2106 : 	}
; 2107 : 
; 2108 : 	LPOBJ lpUser = &gObj[aIndex];

  00025	69 c0 50 2b 00
	00		 imul	 eax, 11088		; 00002b50H
  0002b	03 05 00 00 00
	00		 add	 eax, DWORD PTR ?gObj@@3PAUOBJECTSTRUCT@@A ; gObj

; 2109 : 
; 2110 : 	PMSG_GDREQ_OFFMODE_STATUS pMsg;
; 2111 : 	pMsg.h.set((LPBYTE)&pMsg, 0xEB, 0x13, sizeof(pMsg));

  00031	c7 45 ec c1 10
	eb 13		 mov	 DWORD PTR _pMsg$[ebp], 334172353 ; 13eb10c1H

; 2112 : 	memcpy(pMsg.Name, lpUser->Name, sizeof(pMsg.Name));

  00038	8b 48 77	 mov	 ecx, DWORD PTR [eax+119]
  0003b	89 4d f0	 mov	 DWORD PTR _pMsg$[ebp+4], ecx
  0003e	8b 50 7b	 mov	 edx, DWORD PTR [eax+123]
  00041	89 55 f4	 mov	 DWORD PTR _pMsg$[ebp+8], edx
  00044	66 8b 48 7f	 mov	 cx, WORD PTR [eax+127]
  00048	66 89 4d f8	 mov	 WORD PTR _pMsg$[ebp+12], cx
  0004c	8a 90 81 00 00
	00		 mov	 dl, BYTE PTR [eax+129]

; 2113 : 	pMsg.Status = lpUser->m_OfflineMode;
; 2114 : 	cDBSMng.Send((char*)&pMsg, pMsg.h.size);	

  00052	6a 10		 push	 16			; 00000010H
  00054	8d 4d ec	 lea	 ecx, DWORD PTR _pMsg$[ebp]
  00057	88 55 fa	 mov	 BYTE PTR _pMsg$[ebp+14], dl
  0005a	8a 80 d4 28 00
	00		 mov	 al, BYTE PTR [eax+10452]
  00060	51		 push	 ecx
  00061	b9 00 00 00 00	 mov	 ecx, OFFSET ?cDBSMng@@3VDBSockMng@@A ; cDBSMng
  00066	88 45 fb	 mov	 BYTE PTR _pMsg$[ebp+15], al
  00069	e8 00 00 00 00	 call	 ?Send@DBSockMng@@QAEHPADH@Z ; DBSockMng::Send
$LN2@GDReqUpdat:

; 2115 : 
; 2116 : //	lpUser->m_OfflineMode = Status;
; 2117 : 
; 2118 : 	//this->GDUpdateData(aIndex);	//need add other packet status 
; 2119 : }

  0006e	8b 4d fc	 mov	 ecx, DWORD PTR __$ArrayPad$[ebp]
  00071	33 cd		 xor	 ecx, ebp
  00073	e8 00 00 00 00	 call	 @__security_check_cookie@4
  00078	8b e5		 mov	 esp, ebp
  0007a	5d		 pop	 ebp
  0007b	c2 04 00	 ret	 4
?GDReqUpdateStatus@OfflineMode@@QAEXH@Z ENDP		; OfflineMode::GDReqUpdateStatus
_TEXT	ENDS
PUBLIC	?size@?$vector@UOFFMODE_BLOCK_MAP@@V?$allocator@UOFFMODE_BLOCK_MAP@@@std@@@std@@QBEIXZ ; std::vector<OFFMODE_BLOCK_MAP,std::allocator<OFFMODE_BLOCK_MAP> >::size
; Function compile flags: /Ogtp
; File d:\program files (x86)\microsoft visual studio 10.0\vc\include\vector
;	COMDAT ?size@?$vector@UOFFMODE_BLOCK_MAP@@V?$allocator@UOFFMODE_BLOCK_MAP@@@std@@@std@@QBEIXZ
_TEXT	SEGMENT
?size@?$vector@UOFFMODE_BLOCK_MAP@@V?$allocator@UOFFMODE_BLOCK_MAP@@@std@@@std@@QBEIXZ PROC ; std::vector<OFFMODE_BLOCK_MAP,std::allocator<OFFMODE_BLOCK_MAP> >::size, COMDAT
; _this$ = ecx

; 879  : 		return (this->_Mylast - this->_Myfirst);

  00000	8b 41 04	 mov	 eax, DWORD PTR [ecx+4]
  00003	2b 01		 sub	 eax, DWORD PTR [ecx]
  00005	c1 f8 02	 sar	 eax, 2

; 880  : 		}

  00008	c3		 ret	 0
?size@?$vector@UOFFMODE_BLOCK_MAP@@V?$allocator@UOFFMODE_BLOCK_MAP@@@std@@@std@@QBEIXZ ENDP ; std::vector<OFFMODE_BLOCK_MAP,std::allocator<OFFMODE_BLOCK_MAP> >::size
_TEXT	ENDS
PUBLIC	??A?$vector@UOFFMODE_BLOCK_MAP@@V?$allocator@UOFFMODE_BLOCK_MAP@@@std@@@std@@QAEAAUOFFMODE_BLOCK_MAP@@I@Z ; std::vector<OFFMODE_BLOCK_MAP,std::allocator<OFFMODE_BLOCK_MAP> >::operator[]
; Function compile flags: /Ogtp
;	COMDAT ??A?$vector@UOFFMODE_BLOCK_MAP@@V?$allocator@UOFFMODE_BLOCK_MAP@@@std@@@std@@QAEAAUOFFMODE_BLOCK_MAP@@I@Z
_TEXT	SEGMENT
__Pos$ = 8						; size = 4
??A?$vector@UOFFMODE_BLOCK_MAP@@V?$allocator@UOFFMODE_BLOCK_MAP@@@std@@@std@@QAEAAUOFFMODE_BLOCK_MAP@@I@Z PROC ; std::vector<OFFMODE_BLOCK_MAP,std::allocator<OFFMODE_BLOCK_MAP> >::operator[], COMDAT
; _this$ = ecx

; 928  : 		{	// subscript mutable sequence

  00000	55		 push	 ebp
  00001	8b ec		 mov	 ebp, esp

; 929  :  #if _ITERATOR_DEBUG_LEVEL == 2
; 930  : 		if (size() <= _Pos)
; 931  : 			{	// report error
; 932  : 			_DEBUG_ERROR("vector subscript out of range");
; 933  : 			_SCL_SECURE_OUT_OF_RANGE;
; 934  : 			}
; 935  : 
; 936  :  #elif _ITERATOR_DEBUG_LEVEL == 1
; 937  : 		_SCL_SECURE_VALIDATE_RANGE(_Pos < size());
; 938  :  #endif /* _ITERATOR_DEBUG_LEVEL */
; 939  : 
; 940  : 		return (*(this->_Myfirst + _Pos));

  00003	8b 01		 mov	 eax, DWORD PTR [ecx]
  00005	8b 4d 08	 mov	 ecx, DWORD PTR __Pos$[ebp]
  00008	8d 04 88	 lea	 eax, DWORD PTR [eax+ecx*4]

; 941  : 		}

  0000b	5d		 pop	 ebp
  0000c	c2 04 00	 ret	 4
??A?$vector@UOFFMODE_BLOCK_MAP@@V?$allocator@UOFFMODE_BLOCK_MAP@@@std@@@std@@QAEAAUOFFMODE_BLOCK_MAP@@I@Z ENDP ; std::vector<OFFMODE_BLOCK_MAP,std::allocator<OFFMODE_BLOCK_MAP> >::operator[]
_TEXT	ENDS
PUBLIC	?_Inside@?$vector@UOFFMODE_BLOCK_MAP@@V?$allocator@UOFFMODE_BLOCK_MAP@@@std@@@std@@IBE_NPBUOFFMODE_BLOCK_MAP@@@Z ; std::vector<OFFMODE_BLOCK_MAP,std::allocator<OFFMODE_BLOCK_MAP> >::_Inside
; Function compile flags: /Ogtp
;	COMDAT ?_Inside@?$vector@UOFFMODE_BLOCK_MAP@@V?$allocator@UOFFMODE_BLOCK_MAP@@@std@@@std@@IBE_NPBUOFFMODE_BLOCK_MAP@@@Z
_TEXT	SEGMENT
__Ptr$ = 8						; size = 4
?_Inside@?$vector@UOFFMODE_BLOCK_MAP@@V?$allocator@UOFFMODE_BLOCK_MAP@@@std@@@std@@IBE_NPBUOFFMODE_BLOCK_MAP@@@Z PROC ; std::vector<OFFMODE_BLOCK_MAP,std::allocator<OFFMODE_BLOCK_MAP> >::_Inside, COMDAT
; _this$ = ecx

; 1285 : 		{	// test if _Ptr points inside vector

  00000	55		 push	 ebp
  00001	8b ec		 mov	 ebp, esp

; 1286 : 		return (_Ptr < this->_Mylast && this->_Myfirst <= _Ptr);

  00003	8b 45 08	 mov	 eax, DWORD PTR __Ptr$[ebp]
  00006	3b 41 04	 cmp	 eax, DWORD PTR [ecx+4]
  00009	73 0d		 jae	 SHORT $LN3@Inside
  0000b	39 01		 cmp	 DWORD PTR [ecx], eax
  0000d	77 09		 ja	 SHORT $LN3@Inside
  0000f	b8 01 00 00 00	 mov	 eax, 1

; 1287 : 		}

  00014	5d		 pop	 ebp
  00015	c2 04 00	 ret	 4
$LN3@Inside:

; 1286 : 		return (_Ptr < this->_Mylast && this->_Myfirst <= _Ptr);

  00018	33 c0		 xor	 eax, eax

; 1287 : 		}

  0001a	5d		 pop	 ebp
  0001b	c2 04 00	 ret	 4
?_Inside@?$vector@UOFFMODE_BLOCK_MAP@@V?$allocator@UOFFMODE_BLOCK_MAP@@@std@@@std@@IBE_NPBUOFFMODE_BLOCK_MAP@@@Z ENDP ; std::vector<OFFMODE_BLOCK_MAP,std::allocator<OFFMODE_BLOCK_MAP> >::_Inside
_TEXT	ENDS
PUBLIC	?_Orphan_range@?$vector@UOFFMODE_BLOCK_MAP@@V?$allocator@UOFFMODE_BLOCK_MAP@@@std@@@std@@IBEXPAUOFFMODE_BLOCK_MAP@@0@Z ; std::vector<OFFMODE_BLOCK_MAP,std::allocator<OFFMODE_BLOCK_MAP> >::_Orphan_range
; Function compile flags: /Ogtp
;	COMDAT ?_Orphan_range@?$vector@UOFFMODE_BLOCK_MAP@@V?$allocator@UOFFMODE_BLOCK_MAP@@@std@@@std@@IBEXPAUOFFMODE_BLOCK_MAP@@0@Z
_TEXT	SEGMENT
___formal$ = 8						; size = 4
___formal$ = 12						; size = 4
?_Orphan_range@?$vector@UOFFMODE_BLOCK_MAP@@V?$allocator@UOFFMODE_BLOCK_MAP@@@std@@@std@@IBEXPAUOFFMODE_BLOCK_MAP@@0@Z PROC ; std::vector<OFFMODE_BLOCK_MAP,std::allocator<OFFMODE_BLOCK_MAP> >::_Orphan_range, COMDAT
; _this$ = ecx

; 1454 : 		}

  00000	c2 08 00	 ret	 8
?_Orphan_range@?$vector@UOFFMODE_BLOCK_MAP@@V?$allocator@UOFFMODE_BLOCK_MAP@@@std@@@std@@IBEXPAUOFFMODE_BLOCK_MAP@@0@Z ENDP ; std::vector<OFFMODE_BLOCK_MAP,std::allocator<OFFMODE_BLOCK_MAP> >::_Orphan_range
_TEXT	ENDS
PUBLIC	??1?$_Vector_val@UOFFMODE_BLOCK_MAP@@V?$allocator@UOFFMODE_BLOCK_MAP@@@std@@@std@@QAE@XZ ; std::_Vector_val<OFFMODE_BLOCK_MAP,std::allocator<OFFMODE_BLOCK_MAP> >::~_Vector_val<OFFMODE_BLOCK_MAP,std::allocator<OFFMODE_BLOCK_MAP> >
; Function compile flags: /Ogtp
;	COMDAT ??1?$_Vector_val@UOFFMODE_BLOCK_MAP@@V?$allocator@UOFFMODE_BLOCK_MAP@@@std@@@std@@QAE@XZ
_TEXT	SEGMENT
??1?$_Vector_val@UOFFMODE_BLOCK_MAP@@V?$allocator@UOFFMODE_BLOCK_MAP@@@std@@@std@@QAE@XZ PROC ; std::_Vector_val<OFFMODE_BLOCK_MAP,std::allocator<OFFMODE_BLOCK_MAP> >::~_Vector_val<OFFMODE_BLOCK_MAP,std::allocator<OFFMODE_BLOCK_MAP> >, COMDAT
; _this$ = ecx

; 434  : 		}

  00000	c3		 ret	 0
??1?$_Vector_val@UOFFMODE_BLOCK_MAP@@V?$allocator@UOFFMODE_BLOCK_MAP@@@std@@@std@@QAE@XZ ENDP ; std::_Vector_val<OFFMODE_BLOCK_MAP,std::allocator<OFFMODE_BLOCK_MAP> >::~_Vector_val<OFFMODE_BLOCK_MAP,std::allocator<OFFMODE_BLOCK_MAP> >
_TEXT	ENDS
PUBLIC	??0?$allocator@UOFFMODE_BLOCK_MAP@@@std@@QAE@XZ	; std::allocator<OFFMODE_BLOCK_MAP>::allocator<OFFMODE_BLOCK_MAP>
; Function compile flags: /Ogtp
; File d:\program files (x86)\microsoft visual studio 10.0\vc\include\xmemory
;	COMDAT ??0?$allocator@UOFFMODE_BLOCK_MAP@@@std@@QAE@XZ
_TEXT	SEGMENT
??0?$allocator@UOFFMODE_BLOCK_MAP@@@std@@QAE@XZ PROC	; std::allocator<OFFMODE_BLOCK_MAP>::allocator<OFFMODE_BLOCK_MAP>, COMDAT
; _this$ = ecx

; 161  : 	_ALLOCATOR() _THROW0()

  00000	8b c1		 mov	 eax, ecx

; 162  : 		{	// construct default allocator (do nothing)
; 163  : 		}

  00002	c3		 ret	 0
??0?$allocator@UOFFMODE_BLOCK_MAP@@@std@@QAE@XZ ENDP	; std::allocator<OFFMODE_BLOCK_MAP>::allocator<OFFMODE_BLOCK_MAP>
_TEXT	ENDS
PUBLIC	?capacity@?$vector@UOFFMODE_BLOCK_MAP@@V?$allocator@UOFFMODE_BLOCK_MAP@@@std@@@std@@QBEIXZ ; std::vector<OFFMODE_BLOCK_MAP,std::allocator<OFFMODE_BLOCK_MAP> >::capacity
; Function compile flags: /Ogtp
; File d:\program files (x86)\microsoft visual studio 10.0\vc\include\vector
;	COMDAT ?capacity@?$vector@UOFFMODE_BLOCK_MAP@@V?$allocator@UOFFMODE_BLOCK_MAP@@@std@@@std@@QBEIXZ
_TEXT	SEGMENT
?capacity@?$vector@UOFFMODE_BLOCK_MAP@@V?$allocator@UOFFMODE_BLOCK_MAP@@@std@@@std@@QBEIXZ PROC ; std::vector<OFFMODE_BLOCK_MAP,std::allocator<OFFMODE_BLOCK_MAP> >::capacity, COMDAT
; _this$ = ecx

; 777  : 		return (this->_Myend - this->_Myfirst);

  00000	8b 41 08	 mov	 eax, DWORD PTR [ecx+8]
  00003	2b 01		 sub	 eax, DWORD PTR [ecx]
  00005	c1 f8 02	 sar	 eax, 2

; 778  : 		}

  00008	c3		 ret	 0
?capacity@?$vector@UOFFMODE_BLOCK_MAP@@V?$allocator@UOFFMODE_BLOCK_MAP@@@std@@@std@@QBEIXZ ENDP ; std::vector<OFFMODE_BLOCK_MAP,std::allocator<OFFMODE_BLOCK_MAP> >::capacity
_TEXT	ENDS
PUBLIC	??_C@_0BD@OLBABOEK@vector?$DMT?$DO?5too?5long?$AA@ ; `string'
PUBLIC	?_Xlen@?$vector@UOFFMODE_BLOCK_MAP@@V?$allocator@UOFFMODE_BLOCK_MAP@@@std@@@std@@IBEXXZ ; std::vector<OFFMODE_BLOCK_MAP,std::allocator<OFFMODE_BLOCK_MAP> >::_Xlen
EXTRN	?_Xlength_error@std@@YAXPBD@Z:PROC		; std::_Xlength_error
;	COMDAT ??_C@_0BD@OLBABOEK@vector?$DMT?$DO?5too?5long?$AA@
CONST	SEGMENT
??_C@_0BD@OLBABOEK@vector?$DMT?$DO?5too?5long?$AA@ DB 'vector<T> too long'
	DB	00H						; `string'
; Function compile flags: /Ogtp
CONST	ENDS
;	COMDAT ?_Xlen@?$vector@UOFFMODE_BLOCK_MAP@@V?$allocator@UOFFMODE_BLOCK_MAP@@@std@@@std@@IBEXXZ
_TEXT	SEGMENT
?_Xlen@?$vector@UOFFMODE_BLOCK_MAP@@V?$allocator@UOFFMODE_BLOCK_MAP@@@std@@@std@@IBEXXZ PROC ; std::vector<OFFMODE_BLOCK_MAP,std::allocator<OFFMODE_BLOCK_MAP> >::_Xlen, COMDAT
; _this$ = ecx

; 1427 : 		_Xlength_error("vector<T> too long");

  00000	68 00 00 00 00	 push	 OFFSET ??_C@_0BD@OLBABOEK@vector?$DMT?$DO?5too?5long?$AA@
  00005	e8 00 00 00 00	 call	 ?_Xlength_error@std@@YAXPBD@Z ; std::_Xlength_error
$LN4@Xlen:
$LN3@Xlen:
  0000a	cc		 int	 3
?_Xlen@?$vector@UOFFMODE_BLOCK_MAP@@V?$allocator@UOFFMODE_BLOCK_MAP@@@std@@@std@@IBEXXZ ENDP ; std::vector<OFFMODE_BLOCK_MAP,std::allocator<OFFMODE_BLOCK_MAP> >::_Xlen
_TEXT	ENDS
PUBLIC	??0?$allocator@UOFFMODE_BLOCK_MAP@@@std@@QAE@ABV01@@Z ; std::allocator<OFFMODE_BLOCK_MAP>::allocator<OFFMODE_BLOCK_MAP>
; Function compile flags: /Ogtp
; File d:\program files (x86)\microsoft visual studio 10.0\vc\include\xmemory
;	COMDAT ??0?$allocator@UOFFMODE_BLOCK_MAP@@@std@@QAE@ABV01@@Z
_TEXT	SEGMENT
___formal$ = 8						; size = 4
??0?$allocator@UOFFMODE_BLOCK_MAP@@@std@@QAE@ABV01@@Z PROC ; std::allocator<OFFMODE_BLOCK_MAP>::allocator<OFFMODE_BLOCK_MAP>, COMDAT
; _this$ = ecx

; 165  : 	_ALLOCATOR(const _ALLOCATOR<_Ty>&) _THROW0()

  00000	8b c1		 mov	 eax, ecx

; 166  : 		{	// construct by copying (do nothing)
; 167  : 		}

  00002	c2 04 00	 ret	 4
??0?$allocator@UOFFMODE_BLOCK_MAP@@@std@@QAE@ABV01@@Z ENDP ; std::allocator<OFFMODE_BLOCK_MAP>::allocator<OFFMODE_BLOCK_MAP>
_TEXT	ENDS
PUBLIC	?deallocate@?$allocator@UOFFMODE_BLOCK_MAP@@@std@@QAEXPAUOFFMODE_BLOCK_MAP@@I@Z ; std::allocator<OFFMODE_BLOCK_MAP>::deallocate
EXTRN	??3@YAXPAX@Z:PROC				; operator delete
; Function compile flags: /Ogtp
;	COMDAT ?deallocate@?$allocator@UOFFMODE_BLOCK_MAP@@@std@@QAEXPAUOFFMODE_BLOCK_MAP@@I@Z
_TEXT	SEGMENT
__Ptr$ = 8						; size = 4
___formal$ = 12						; size = 4
?deallocate@?$allocator@UOFFMODE_BLOCK_MAP@@@std@@QAEXPAUOFFMODE_BLOCK_MAP@@I@Z PROC ; std::allocator<OFFMODE_BLOCK_MAP>::deallocate, COMDAT
; _this$ = ecx

; 181  : 		{	// deallocate object at _Ptr, ignore size

  00000	55		 push	 ebp
  00001	8b ec		 mov	 ebp, esp

; 182  : 		::operator delete(_Ptr);

  00003	8b 45 08	 mov	 eax, DWORD PTR __Ptr$[ebp]
  00006	50		 push	 eax
  00007	e8 00 00 00 00	 call	 ??3@YAXPAX@Z		; operator delete
  0000c	83 c4 04	 add	 esp, 4

; 183  : 		}

  0000f	5d		 pop	 ebp
  00010	c2 08 00	 ret	 8
?deallocate@?$allocator@UOFFMODE_BLOCK_MAP@@@std@@QAEXPAUOFFMODE_BLOCK_MAP@@I@Z ENDP ; std::allocator<OFFMODE_BLOCK_MAP>::deallocate
_TEXT	ENDS
PUBLIC	?max_size@?$allocator@UOFFMODE_BLOCK_MAP@@@std@@QBEIXZ ; std::allocator<OFFMODE_BLOCK_MAP>::max_size
; Function compile flags: /Ogtp
;	COMDAT ?max_size@?$allocator@UOFFMODE_BLOCK_MAP@@@std@@QBEIXZ
_TEXT	SEGMENT
?max_size@?$allocator@UOFFMODE_BLOCK_MAP@@@std@@QBEIXZ PROC ; std::allocator<OFFMODE_BLOCK_MAP>::max_size, COMDAT
; _this$ = ecx

; 218  : 		_SIZT _Count = (_SIZT)(-1) / sizeof (_Ty);
; 219  : 		return (0 < _Count ? _Count : 1);

  00000	b8 ff ff ff 3f	 mov	 eax, 1073741823		; 3fffffffH

; 220  : 		}

  00005	c3		 ret	 0
?max_size@?$allocator@UOFFMODE_BLOCK_MAP@@@std@@QBEIXZ ENDP ; std::allocator<OFFMODE_BLOCK_MAP>::max_size
_TEXT	ENDS
PUBLIC	?_Compat@?$_Vector_const_iterator@V?$_Vector_val@UOFFMODE_BLOCK_MAP@@V?$allocator@UOFFMODE_BLOCK_MAP@@@std@@@std@@@std@@QBEXABV12@@Z ; std::_Vector_const_iterator<std::_Vector_val<OFFMODE_BLOCK_MAP,std::allocator<OFFMODE_BLOCK_MAP> > >::_Compat
; Function compile flags: /Ogtp
; File d:\program files (x86)\microsoft visual studio 10.0\vc\include\vector
;	COMDAT ?_Compat@?$_Vector_const_iterator@V?$_Vector_val@UOFFMODE_BLOCK_MAP@@V?$allocator@UOFFMODE_BLOCK_MAP@@@std@@@std@@@std@@QBEXABV12@@Z
_TEXT	SEGMENT
___formal$ = 8						; size = 4
?_Compat@?$_Vector_const_iterator@V?$_Vector_val@UOFFMODE_BLOCK_MAP@@V?$allocator@UOFFMODE_BLOCK_MAP@@@std@@@std@@@std@@QBEXABV12@@Z PROC ; std::_Vector_const_iterator<std::_Vector_val<OFFMODE_BLOCK_MAP,std::allocator<OFFMODE_BLOCK_MAP> > >::_Compat, COMDAT
; _this$ = ecx

; 253  : 		}

  00000	c2 04 00	 ret	 4
?_Compat@?$_Vector_const_iterator@V?$_Vector_val@UOFFMODE_BLOCK_MAP@@V?$allocator@UOFFMODE_BLOCK_MAP@@@std@@@std@@@std@@QBEXABV12@@Z ENDP ; std::_Vector_const_iterator<std::_Vector_val<OFFMODE_BLOCK_MAP,std::allocator<OFFMODE_BLOCK_MAP> > >::_Compat
_TEXT	ENDS
PUBLIC	??$sprintf_s@$0BAA@@@YAHAAY0BAA@DPBDZZ		; sprintf_s<256>
EXTRN	_vsprintf_s:PROC
; Function compile flags: /Ogtp
; File d:\program files (x86)\microsoft visual studio 10.0\vc\include\stdio.h
;	COMDAT ??$sprintf_s@$0BAA@@@YAHAAY0BAA@DPBDZZ
_TEXT	SEGMENT
__Dest$ = 8						; size = 4
__Format$ = 12						; size = 4
??$sprintf_s@$0BAA@@@YAHAAY0BAA@DPBDZZ PROC		; sprintf_s<256>, COMDAT

; 323  : __DEFINE_CPP_OVERLOAD_SECURE_FUNC_0_1_ARGLIST(int, sprintf_s, vsprintf_s, _Deref_post_z_ char, _Dest, _In_z_ _Printf_format_string_ const char *, _Format)

  00000	55		 push	 ebp
  00001	8b ec		 mov	 ebp, esp
  00003	8b 4d 0c	 mov	 ecx, DWORD PTR __Format$[ebp]
  00006	8b 55 08	 mov	 edx, DWORD PTR __Dest$[ebp]
  00009	8d 45 10	 lea	 eax, DWORD PTR __Format$[ebp+4]
  0000c	50		 push	 eax
  0000d	51		 push	 ecx
  0000e	68 00 01 00 00	 push	 256			; 00000100H
  00013	52		 push	 edx
  00014	e8 00 00 00 00	 call	 _vsprintf_s
  00019	83 c4 10	 add	 esp, 16			; 00000010H
  0001c	5d		 pop	 ebp
  0001d	c3		 ret	 0
??$sprintf_s@$0BAA@@@YAHAAY0BAA@DPBDZZ ENDP		; sprintf_s<256>
_TEXT	ENDS
PUBLIC	??$addressof@$$CBUOFFMODE_BLOCK_MAP@@@std@@YAPBUOFFMODE_BLOCK_MAP@@ABU1@@Z ; std::addressof<OFFMODE_BLOCK_MAP const >
; Function compile flags: /Ogtp
; File d:\program files (x86)\microsoft visual studio 10.0\vc\include\xmemory
;	COMDAT ??$addressof@$$CBUOFFMODE_BLOCK_MAP@@@std@@YAPBUOFFMODE_BLOCK_MAP@@ABU1@@Z
_TEXT	SEGMENT
__Val$ = 8						; size = 4
??$addressof@$$CBUOFFMODE_BLOCK_MAP@@@std@@YAPBUOFFMODE_BLOCK_MAP@@ABU1@@Z PROC ; std::addressof<OFFMODE_BLOCK_MAP const >, COMDAT

; 110  : 	{	// return address of _Val

  00000	55		 push	 ebp
  00001	8b ec		 mov	 ebp, esp

; 111  : 	return ((_Ty *) &(char&)_Val);

  00003	8b 45 08	 mov	 eax, DWORD PTR __Val$[ebp]

; 112  : 	}

  00006	5d		 pop	 ebp
  00007	c3		 ret	 0
??$addressof@$$CBUOFFMODE_BLOCK_MAP@@@std@@YAPBUOFFMODE_BLOCK_MAP@@ABU1@@Z ENDP ; std::addressof<OFFMODE_BLOCK_MAP const >
_TEXT	ENDS
PUBLIC	??$forward@AAUOFFMODE_BLOCK_MAP@@@std@@YAAAUOFFMODE_BLOCK_MAP@@AAU1@@Z ; std::forward<OFFMODE_BLOCK_MAP &>
; Function compile flags: /Ogtp
; File d:\program files (x86)\microsoft visual studio 10.0\vc\include\utility
;	COMDAT ??$forward@AAUOFFMODE_BLOCK_MAP@@@std@@YAAAUOFFMODE_BLOCK_MAP@@AAU1@@Z
_TEXT	SEGMENT
__Arg$ = 8						; size = 4
??$forward@AAUOFFMODE_BLOCK_MAP@@@std@@YAAAUOFFMODE_BLOCK_MAP@@AAU1@@Z PROC ; std::forward<OFFMODE_BLOCK_MAP &>, COMDAT

; 78   : 	{	// forward _Arg, given explicitly specified type parameter

  00000	55		 push	 ebp
  00001	8b ec		 mov	 ebp, esp

; 79   : 	return ((_Ty&&)_Arg);

  00003	8b 45 08	 mov	 eax, DWORD PTR __Arg$[ebp]

; 80   : 	}

  00006	5d		 pop	 ebp
  00007	c3		 ret	 0
??$forward@AAUOFFMODE_BLOCK_MAP@@@std@@YAAAUOFFMODE_BLOCK_MAP@@AAU1@@Z ENDP ; std::forward<OFFMODE_BLOCK_MAP &>
_TEXT	ENDS
PUBLIC	??$construct@AAUOFFMODE_BLOCK_MAP@@@?$allocator@UOFFMODE_BLOCK_MAP@@@std@@QAEXPAUOFFMODE_BLOCK_MAP@@AAU2@@Z ; std::allocator<OFFMODE_BLOCK_MAP>::construct<OFFMODE_BLOCK_MAP &>
; Function compile flags: /Ogtp
; File d:\program files (x86)\microsoft visual studio 10.0\vc\include\xmemory
;	COMDAT ??$construct@AAUOFFMODE_BLOCK_MAP@@@?$allocator@UOFFMODE_BLOCK_MAP@@@std@@QAEXPAUOFFMODE_BLOCK_MAP@@AAU2@@Z
_TEXT	SEGMENT
__Ptr$ = 8						; size = 4
__Val$ = 12						; size = 4
??$construct@AAUOFFMODE_BLOCK_MAP@@@?$allocator@UOFFMODE_BLOCK_MAP@@@std@@QAEXPAUOFFMODE_BLOCK_MAP@@AAU2@@Z PROC ; std::allocator<OFFMODE_BLOCK_MAP>::construct<OFFMODE_BLOCK_MAP &>, COMDAT
; _this$ = ecx

; 206  : 		void construct(pointer _Ptr, _Other&& _Val)

  00000	55		 push	 ebp
  00001	8b ec		 mov	 ebp, esp

; 207  : 		{	// construct object at _Ptr with value _Val
; 208  : 		::new ((void _FARQ *)_Ptr) _Ty(_STD forward<_Other>(_Val));

  00003	8b 45 08	 mov	 eax, DWORD PTR __Ptr$[ebp]
  00006	85 c0		 test	 eax, eax
  00008	74 07		 je	 SHORT $LN3@construct
  0000a	8b 4d 0c	 mov	 ecx, DWORD PTR __Val$[ebp]
  0000d	8b 11		 mov	 edx, DWORD PTR [ecx]
  0000f	89 10		 mov	 DWORD PTR [eax], edx
$LN3@construct:

; 209  : 		}

  00011	5d		 pop	 ebp
  00012	c2 08 00	 ret	 8
??$construct@AAUOFFMODE_BLOCK_MAP@@@?$allocator@UOFFMODE_BLOCK_MAP@@@std@@QAEXPAUOFFMODE_BLOCK_MAP@@AAU2@@Z ENDP ; std::allocator<OFFMODE_BLOCK_MAP>::construct<OFFMODE_BLOCK_MAP &>
_TEXT	ENDS
PUBLIC	??$forward@ABUOFFMODE_BLOCK_MAP@@@std@@YAABUOFFMODE_BLOCK_MAP@@ABU1@@Z ; std::forward<OFFMODE_BLOCK_MAP const &>
; Function compile flags: /Ogtp
; File d:\program files (x86)\microsoft visual studio 10.0\vc\include\utility
;	COMDAT ??$forward@ABUOFFMODE_BLOCK_MAP@@@std@@YAABUOFFMODE_BLOCK_MAP@@ABU1@@Z
_TEXT	SEGMENT
__Arg$ = 8						; size = 4
??$forward@ABUOFFMODE_BLOCK_MAP@@@std@@YAABUOFFMODE_BLOCK_MAP@@ABU1@@Z PROC ; std::forward<OFFMODE_BLOCK_MAP const &>, COMDAT

; 78   : 	{	// forward _Arg, given explicitly specified type parameter

  00000	55		 push	 ebp
  00001	8b ec		 mov	 ebp, esp

; 79   : 	return ((_Ty&&)_Arg);

  00003	8b 45 08	 mov	 eax, DWORD PTR __Arg$[ebp]

; 80   : 	}

  00006	5d		 pop	 ebp
  00007	c3		 ret	 0
??$forward@ABUOFFMODE_BLOCK_MAP@@@std@@YAABUOFFMODE_BLOCK_MAP@@ABU1@@Z ENDP ; std::forward<OFFMODE_BLOCK_MAP const &>
_TEXT	ENDS
PUBLIC	??$_Ptr_cat@UOFFMODE_BLOCK_MAP@@U1@@std@@YA?AU_Nonscalar_ptr_iterator_tag@0@PAUOFFMODE_BLOCK_MAP@@0@Z ; std::_Ptr_cat<OFFMODE_BLOCK_MAP,OFFMODE_BLOCK_MAP>
; Function compile flags: /Ogtp
; File d:\program files (x86)\microsoft visual studio 10.0\vc\include\xutility
;	COMDAT ??$_Ptr_cat@UOFFMODE_BLOCK_MAP@@U1@@std@@YA?AU_Nonscalar_ptr_iterator_tag@0@PAUOFFMODE_BLOCK_MAP@@0@Z
_TEXT	SEGMENT
__Cat$ = -1						; size = 1
___formal$ = 8						; size = 4
___formal$ = 12						; size = 4
??$_Ptr_cat@UOFFMODE_BLOCK_MAP@@U1@@std@@YA?AU_Nonscalar_ptr_iterator_tag@0@PAUOFFMODE_BLOCK_MAP@@0@Z PROC ; std::_Ptr_cat<OFFMODE_BLOCK_MAP,OFFMODE_BLOCK_MAP>, COMDAT

; 516  : 	{	// return pointer category from pointers

  00000	55		 push	 ebp
  00001	8b ec		 mov	 ebp, esp
  00003	51		 push	 ecx

; 517  : 	typename _Ptr_cat_helper<_Elem1, _Elem2>::_Type _Cat;
; 518  : 	return (_Cat);

  00004	8a 45 ff	 mov	 al, BYTE PTR __Cat$[ebp]

; 519  : 	}

  00007	8b e5		 mov	 esp, ebp
  00009	5d		 pop	 ebp
  0000a	c3		 ret	 0
??$_Ptr_cat@UOFFMODE_BLOCK_MAP@@U1@@std@@YA?AU_Nonscalar_ptr_iterator_tag@0@PAUOFFMODE_BLOCK_MAP@@0@Z ENDP ; std::_Ptr_cat<OFFMODE_BLOCK_MAP,OFFMODE_BLOCK_MAP>
_TEXT	ENDS
PUBLIC	??$_Construct@UOFFMODE_BLOCK_MAP@@ABU1@@std@@YAXPAUOFFMODE_BLOCK_MAP@@ABU1@@Z ; std::_Construct<OFFMODE_BLOCK_MAP,OFFMODE_BLOCK_MAP const &>
; Function compile flags: /Ogtp
; File d:\program files (x86)\microsoft visual studio 10.0\vc\include\xmemory
;	COMDAT ??$_Construct@UOFFMODE_BLOCK_MAP@@ABU1@@std@@YAXPAUOFFMODE_BLOCK_MAP@@ABU1@@Z
_TEXT	SEGMENT
__Ptr$ = 8						; size = 4
__Val$ = 12						; size = 4
??$_Construct@UOFFMODE_BLOCK_MAP@@ABU1@@std@@YAXPAUOFFMODE_BLOCK_MAP@@ABU1@@Z PROC ; std::_Construct<OFFMODE_BLOCK_MAP,OFFMODE_BLOCK_MAP const &>, COMDAT

; 46   : 	{	// construct object at _Ptr with value _Val

  00000	55		 push	 ebp
  00001	8b ec		 mov	 ebp, esp

; 47   : 	void _FARQ *_Vptr = _Ptr;
; 48   : 	::new (_Vptr) _Ty1(_STD forward<_Ty2>(_Val));

  00003	8b 45 08	 mov	 eax, DWORD PTR __Ptr$[ebp]
  00006	85 c0		 test	 eax, eax
  00008	74 07		 je	 SHORT $LN3@Construct
  0000a	8b 4d 0c	 mov	 ecx, DWORD PTR __Val$[ebp]
  0000d	8b 11		 mov	 edx, DWORD PTR [ecx]
  0000f	89 10		 mov	 DWORD PTR [eax], edx
$LN3@Construct:

; 49   : 	}

  00011	5d		 pop	 ebp
  00012	c3		 ret	 0
??$_Construct@UOFFMODE_BLOCK_MAP@@ABU1@@std@@YAXPAUOFFMODE_BLOCK_MAP@@ABU1@@Z ENDP ; std::_Construct<OFFMODE_BLOCK_MAP,OFFMODE_BLOCK_MAP const &>
_TEXT	ENDS
PUBLIC	??$move@AAUOFFMODE_BLOCK_MAP@@@std@@YA$$QAUOFFMODE_BLOCK_MAP@@AAU1@@Z ; std::move<OFFMODE_BLOCK_MAP &>
; Function compile flags: /Ogtp
; File d:\program files (x86)\microsoft visual studio 10.0\vc\include\utility
;	COMDAT ??$move@AAUOFFMODE_BLOCK_MAP@@@std@@YA$$QAUOFFMODE_BLOCK_MAP@@AAU1@@Z
_TEXT	SEGMENT
__Arg$ = 8						; size = 4
??$move@AAUOFFMODE_BLOCK_MAP@@@std@@YA$$QAUOFFMODE_BLOCK_MAP@@AAU1@@Z PROC ; std::move<OFFMODE_BLOCK_MAP &>, COMDAT

; 86   : 	{	// forward _Arg as movable

  00000	55		 push	 ebp
  00001	8b ec		 mov	 ebp, esp

; 87   : 	return ((typename tr1::_Remove_reference<_Ty>::_Type&&)_Arg);

  00003	8b 45 08	 mov	 eax, DWORD PTR __Arg$[ebp]

; 88   : 	}

  00006	5d		 pop	 ebp
  00007	c3		 ret	 0
??$move@AAUOFFMODE_BLOCK_MAP@@@std@@YA$$QAUOFFMODE_BLOCK_MAP@@AAU1@@Z ENDP ; std::move<OFFMODE_BLOCK_MAP &>
_TEXT	ENDS
PUBLIC	??$_Val_type@PAUOFFMODE_BLOCK_MAP@@@std@@YAPAUOFFMODE_BLOCK_MAP@@PAU1@@Z ; std::_Val_type<OFFMODE_BLOCK_MAP *>
; Function compile flags: /Ogtp
; File d:\program files (x86)\microsoft visual studio 10.0\vc\include\xutility
;	COMDAT ??$_Val_type@PAUOFFMODE_BLOCK_MAP@@@std@@YAPAUOFFMODE_BLOCK_MAP@@PAU1@@Z
_TEXT	SEGMENT
___formal$ = 8						; size = 4
??$_Val_type@PAUOFFMODE_BLOCK_MAP@@@std@@YAPAUOFFMODE_BLOCK_MAP@@PAU1@@Z PROC ; std::_Val_type<OFFMODE_BLOCK_MAP *>, COMDAT

; 790  : 	return (0);

  00000	33 c0		 xor	 eax, eax

; 791  : 	}

  00002	c3		 ret	 0
??$_Val_type@PAUOFFMODE_BLOCK_MAP@@@std@@YAPAUOFFMODE_BLOCK_MAP@@PAU1@@Z ENDP ; std::_Val_type<OFFMODE_BLOCK_MAP *>
_TEXT	ENDS
PUBLIC	??$_Destroy@UOFFMODE_BLOCK_MAP@@@std@@YAXPAUOFFMODE_BLOCK_MAP@@@Z ; std::_Destroy<OFFMODE_BLOCK_MAP>
; Function compile flags: /Ogtp
; File d:\program files (x86)\microsoft visual studio 10.0\vc\include\xmemory
;	COMDAT ??$_Destroy@UOFFMODE_BLOCK_MAP@@@std@@YAXPAUOFFMODE_BLOCK_MAP@@@Z
_TEXT	SEGMENT
__Ptr$ = 8						; size = 4
??$_Destroy@UOFFMODE_BLOCK_MAP@@@std@@YAXPAUOFFMODE_BLOCK_MAP@@@Z PROC ; std::_Destroy<OFFMODE_BLOCK_MAP>, COMDAT

; 63   : 	_Ptr->~_Ty();
; 64   : 	}

  00000	c3		 ret	 0
??$_Destroy@UOFFMODE_BLOCK_MAP@@@std@@YAXPAUOFFMODE_BLOCK_MAP@@@Z ENDP ; std::_Destroy<OFFMODE_BLOCK_MAP>
_TEXT	ENDS
PUBLIC	??$forward@UOFFMODE_BLOCK_MAP@@@std@@YA$$QAUOFFMODE_BLOCK_MAP@@AAU1@@Z ; std::forward<OFFMODE_BLOCK_MAP>
; Function compile flags: /Ogtp
; File d:\program files (x86)\microsoft visual studio 10.0\vc\include\utility
;	COMDAT ??$forward@UOFFMODE_BLOCK_MAP@@@std@@YA$$QAUOFFMODE_BLOCK_MAP@@AAU1@@Z
_TEXT	SEGMENT
__Arg$ = 8						; size = 4
??$forward@UOFFMODE_BLOCK_MAP@@@std@@YA$$QAUOFFMODE_BLOCK_MAP@@AAU1@@Z PROC ; std::forward<OFFMODE_BLOCK_MAP>, COMDAT

; 78   : 	{	// forward _Arg, given explicitly specified type parameter

  00000	55		 push	 ebp
  00001	8b ec		 mov	 ebp, esp

; 79   : 	return ((_Ty&&)_Arg);

  00003	8b 45 08	 mov	 eax, DWORD PTR __Arg$[ebp]

; 80   : 	}

  00006	5d		 pop	 ebp
  00007	c3		 ret	 0
??$forward@UOFFMODE_BLOCK_MAP@@@std@@YA$$QAUOFFMODE_BLOCK_MAP@@AAU1@@Z ENDP ; std::forward<OFFMODE_BLOCK_MAP>
_TEXT	ENDS
PUBLIC	_sqrtf
EXTRN	__fltused:DWORD
EXTRN	__CIsqrt:PROC
; Function compile flags: /Ogtp
; File d:\program files (x86)\microsoft visual studio 10.0\vc\include\math.h
;	COMDAT _sqrtf
_TEXT	SEGMENT
tv69 = 8						; size = 4
__X$ = 8						; size = 4
_sqrtf	PROC						; COMDAT

; 434  :         {return ((float)sqrt((double)_X)); }

  00000	55		 push	 ebp
  00001	8b ec		 mov	 ebp, esp
  00003	d9 45 08	 fld	 DWORD PTR __X$[ebp]
  00006	e8 00 00 00 00	 call	 __CIsqrt
  0000b	d9 5d 08	 fstp	 DWORD PTR tv69[ebp]
  0000e	d9 45 08	 fld	 DWORD PTR tv69[ebp]
  00011	5d		 pop	 ebp
  00012	c3		 ret	 0
_sqrtf	ENDP
_TEXT	ENDS
PUBLIC	?sqrt@@YAMM@Z					; sqrt
; Function compile flags: /Ogtp
;	COMDAT ?sqrt@@YAMM@Z
_TEXT	SEGMENT
tv73 = 8						; size = 4
__X$ = 8						; size = 4
?sqrt@@YAMM@Z PROC					; sqrt, COMDAT

; 542  :         {return (sqrtf(_X)); }

  00000	55		 push	 ebp
  00001	8b ec		 mov	 ebp, esp
  00003	d9 45 08	 fld	 DWORD PTR __X$[ebp]
  00006	e8 00 00 00 00	 call	 __CIsqrt
  0000b	d9 5d 08	 fstp	 DWORD PTR tv73[ebp]
  0000e	d9 45 08	 fld	 DWORD PTR tv73[ebp]
  00011	5d		 pop	 ebp
  00012	c3		 ret	 0
?sqrt@@YAMM@Z ENDP					; sqrt
_TEXT	ENDS
PUBLIC	??_7bad_alloc@std@@6B@				; std::bad_alloc::`vftable'
PUBLIC	??0bad_alloc@std@@QAE@PBD@Z			; std::bad_alloc::bad_alloc
PUBLIC	??_R4bad_alloc@std@@6B@				; std::bad_alloc::`RTTI Complete Object Locator'
PUBLIC	??_R0?AVbad_alloc@std@@@8			; std::bad_alloc `RTTI Type Descriptor'
PUBLIC	??_R3bad_alloc@std@@8				; std::bad_alloc::`RTTI Class Hierarchy Descriptor'
PUBLIC	??_R2bad_alloc@std@@8				; std::bad_alloc::`RTTI Base Class Array'
PUBLIC	??_R1A@?0A@EA@bad_alloc@std@@8			; std::bad_alloc::`RTTI Base Class Descriptor at (0,-1,0,64)'
PUBLIC	??_R1A@?0A@EA@exception@std@@8			; std::exception::`RTTI Base Class Descriptor at (0,-1,0,64)'
PUBLIC	??_R0?AVexception@std@@@8			; std::exception `RTTI Type Descriptor'
PUBLIC	??_R3exception@std@@8				; std::exception::`RTTI Class Hierarchy Descriptor'
PUBLIC	??_R2exception@std@@8				; std::exception::`RTTI Base Class Array'
EXTRN	??0exception@std@@QAE@ABQBD@Z:PROC		; std::exception::exception
EXTRN	??_7type_info@@6B@:QWORD			; type_info::`vftable'
EXTRN	??_Ebad_alloc@std@@UAEPAXI@Z:PROC		; std::bad_alloc::`vector deleting destructor'
EXTRN	?what@exception@std@@UBEPBDXZ:PROC		; std::exception::what
;	COMDAT ??_R2exception@std@@8
; File d:\program files (x86)\microsoft visual studio 10.0\vc\include\exception
rdata$r	SEGMENT
??_R2exception@std@@8 DD FLAT:??_R1A@?0A@EA@exception@std@@8 ; std::exception::`RTTI Base Class Array'
rdata$r	ENDS
;	COMDAT ??_R3exception@std@@8
rdata$r	SEGMENT
??_R3exception@std@@8 DD 00H				; std::exception::`RTTI Class Hierarchy Descriptor'
	DD	00H
	DD	01H
	DD	FLAT:??_R2exception@std@@8
rdata$r	ENDS
;	COMDAT ??_R0?AVexception@std@@@8
_DATA	SEGMENT
??_R0?AVexception@std@@@8 DD FLAT:??_7type_info@@6B@	; std::exception `RTTI Type Descriptor'
	DD	00H
	DB	'.?AVexception@std@@', 00H
_DATA	ENDS
;	COMDAT ??_R1A@?0A@EA@exception@std@@8
rdata$r	SEGMENT
??_R1A@?0A@EA@exception@std@@8 DD FLAT:??_R0?AVexception@std@@@8 ; std::exception::`RTTI Base Class Descriptor at (0,-1,0,64)'
	DD	00H
	DD	00H
	DD	0ffffffffH
	DD	00H
	DD	040H
	DD	FLAT:??_R3exception@std@@8
rdata$r	ENDS
;	COMDAT ??_R1A@?0A@EA@bad_alloc@std@@8
rdata$r	SEGMENT
??_R1A@?0A@EA@bad_alloc@std@@8 DD FLAT:??_R0?AVbad_alloc@std@@@8 ; std::bad_alloc::`RTTI Base Class Descriptor at (0,-1,0,64)'
	DD	01H
	DD	00H
	DD	0ffffffffH
	DD	00H
	DD	040H
	DD	FLAT:??_R3bad_alloc@std@@8
rdata$r	ENDS
;	COMDAT ??_R2bad_alloc@std@@8
rdata$r	SEGMENT
??_R2bad_alloc@std@@8 DD FLAT:??_R1A@?0A@EA@bad_alloc@std@@8 ; std::bad_alloc::`RTTI Base Class Array'
	DD	FLAT:??_R1A@?0A@EA@exception@std@@8
rdata$r	ENDS
;	COMDAT ??_R3bad_alloc@std@@8
rdata$r	SEGMENT
??_R3bad_alloc@std@@8 DD 00H				; std::bad_alloc::`RTTI Class Hierarchy Descriptor'
	DD	00H
	DD	02H
	DD	FLAT:??_R2bad_alloc@std@@8
rdata$r	ENDS
;	COMDAT ??_R0?AVbad_alloc@std@@@8
_DATA	SEGMENT
??_R0?AVbad_alloc@std@@@8 DD FLAT:??_7type_info@@6B@	; std::bad_alloc `RTTI Type Descriptor'
	DD	00H
	DB	'.?AVbad_alloc@std@@', 00H
_DATA	ENDS
;	COMDAT ??_R4bad_alloc@std@@6B@
rdata$r	SEGMENT
??_R4bad_alloc@std@@6B@ DD 00H				; std::bad_alloc::`RTTI Complete Object Locator'
	DD	00H
	DD	00H
	DD	FLAT:??_R0?AVbad_alloc@std@@@8
	DD	FLAT:??_R3bad_alloc@std@@8
rdata$r	ENDS
;	COMDAT ??_7bad_alloc@std@@6B@
CONST	SEGMENT
??_7bad_alloc@std@@6B@ DD FLAT:??_R4bad_alloc@std@@6B@	; std::bad_alloc::`vftable'
	DD	FLAT:??_Ebad_alloc@std@@UAEPAXI@Z
	DD	FLAT:?what@exception@std@@UBEPBDXZ
; Function compile flags: /Ogtp
CONST	ENDS
;	COMDAT ??0bad_alloc@std@@QAE@PBD@Z
_TEXT	SEGMENT
__Message$ = 8						; size = 4
??0bad_alloc@std@@QAE@PBD@Z PROC			; std::bad_alloc::bad_alloc, COMDAT
; _this$ = ecx

; 345  : 		{	// construct from message string

  00000	55		 push	 ebp
  00001	8b ec		 mov	 ebp, esp
  00003	56		 push	 esi
  00004	8d 45 08	 lea	 eax, DWORD PTR __Message$[ebp]
  00007	50		 push	 eax
  00008	8b f1		 mov	 esi, ecx
  0000a	e8 00 00 00 00	 call	 ??0exception@std@@QAE@ABQBD@Z ; std::exception::exception
  0000f	c7 06 00 00 00
	00		 mov	 DWORD PTR [esi], OFFSET ??_7bad_alloc@std@@6B@

; 346  : 		}

  00015	8b c6		 mov	 eax, esi
  00017	5e		 pop	 esi
  00018	5d		 pop	 ebp
  00019	c2 04 00	 ret	 4
??0bad_alloc@std@@QAE@PBD@Z ENDP			; std::bad_alloc::bad_alloc
_TEXT	ENDS
PUBLIC	??1bad_alloc@std@@UAE@XZ			; std::bad_alloc::~bad_alloc
EXTRN	??1exception@std@@UAE@XZ:PROC			; std::exception::~exception
; Function compile flags: /Ogtp
;	COMDAT ??1bad_alloc@std@@UAE@XZ
_TEXT	SEGMENT
??1bad_alloc@std@@UAE@XZ PROC				; std::bad_alloc::~bad_alloc, COMDAT
; _this$ = ecx

; 354  : 		{	// destroy the object

  00000	c7 01 00 00 00
	00		 mov	 DWORD PTR [ecx], OFFSET ??_7bad_alloc@std@@6B@

; 355  : 		}

  00006	e9 00 00 00 00	 jmp	 ??1exception@std@@UAE@XZ ; std::exception::~exception
??1bad_alloc@std@@UAE@XZ ENDP				; std::bad_alloc::~bad_alloc
; Function compile flags: /Ogtp
_TEXT	ENDS
;	COMDAT ??_Gbad_alloc@std@@UAEPAXI@Z
_TEXT	SEGMENT
___flags$ = 8						; size = 4
??_Gbad_alloc@std@@UAEPAXI@Z PROC			; std::bad_alloc::`scalar deleting destructor', COMDAT
; _this$ = ecx
  00000	55		 push	 ebp
  00001	8b ec		 mov	 ebp, esp
  00003	56		 push	 esi
  00004	8b f1		 mov	 esi, ecx
  00006	c7 06 00 00 00
	00		 mov	 DWORD PTR [esi], OFFSET ??_7bad_alloc@std@@6B@
  0000c	e8 00 00 00 00	 call	 ??1exception@std@@UAE@XZ ; std::exception::~exception
  00011	f6 45 08 01	 test	 BYTE PTR ___flags$[ebp], 1
  00015	74 09		 je	 SHORT $LN6@scalar
  00017	56		 push	 esi
  00018	e8 00 00 00 00	 call	 ??3@YAXPAX@Z		; operator delete
  0001d	83 c4 04	 add	 esp, 4
$LN6@scalar:
  00020	8b c6		 mov	 eax, esi
  00022	5e		 pop	 esi
  00023	5d		 pop	 ebp
  00024	c2 04 00	 ret	 4
??_Gbad_alloc@std@@UAEPAXI@Z ENDP			; std::bad_alloc::`scalar deleting destructor'
_TEXT	ENDS
PUBLIC	?_Orphan_all@_Container_base0@std@@QAEXXZ	; std::_Container_base0::_Orphan_all
; Function compile flags: /Ogtp
; File d:\program files (x86)\microsoft visual studio 10.0\vc\include\xutility
;	COMDAT ?_Orphan_all@_Container_base0@std@@QAEXXZ
_TEXT	SEGMENT
?_Orphan_all@_Container_base0@std@@QAEXXZ PROC		; std::_Container_base0::_Orphan_all, COMDAT
; _this$ = ecx

; 38   : 		}

  00000	c3		 ret	 0
?_Orphan_all@_Container_base0@std@@QAEXXZ ENDP		; std::_Container_base0::_Orphan_all
_TEXT	ENDS
PUBLIC	?_Adopt@_Iterator_base0@std@@QAEXPBX@Z		; std::_Iterator_base0::_Adopt
; Function compile flags: /Ogtp
;	COMDAT ?_Adopt@_Iterator_base0@std@@QAEXPBX@Z
_TEXT	SEGMENT
___formal$ = 8						; size = 4
?_Adopt@_Iterator_base0@std@@QAEXPBX@Z PROC		; std::_Iterator_base0::_Adopt, COMDAT
; _this$ = ecx

; 49   : 		}

  00000	c2 04 00	 ret	 4
?_Adopt@_Iterator_base0@std@@QAEXPBX@Z ENDP		; std::_Iterator_base0::_Adopt
_TEXT	ENDS
PUBLIC	?DarkWizard@OfflineMode@@QAEXH@Z		; OfflineMode::DarkWizard
EXTRN	?UseSkill@CObjUseSkill@@QAEXHHPAVCMagicInf@@@Z:PROC ; CObjUseSkill::UseSkill
; Function compile flags: /Ogtp
; File e:\work\tranet_version\gs\gameserver\offlinemode.cpp
;	COMDAT ?DarkWizard@OfflineMode@@QAEXH@Z
_TEXT	SEGMENT
_lpMagic$ = -12						; size = 4
_this$ = -8						; size = 4
tv74 = -4						; size = 4
_MaxDis$ = -4						; size = 4
tv84 = 8						; size = 4
_UserIndex$ = 8						; size = 4
?DarkWizard@OfflineMode@@QAEXH@Z PROC			; OfflineMode::DarkWizard, COMDAT
; _this$ = ecx

; 350  : {

  00000	55		 push	 ebp
  00001	8b ec		 mov	 ebp, esp
  00003	83 ec 0c	 sub	 esp, 12			; 0000000cH
  00006	56		 push	 esi

; 351  : 	if(!gObjIsConnectedZt(UserIndex))

  00007	8b 75 08	 mov	 esi, DWORD PTR _UserIndex$[ebp]
  0000a	56		 push	 esi
  0000b	89 4d f8	 mov	 DWORD PTR _this$[ebp], ecx
  0000e	e8 00 00 00 00	 call	 ?gObjIsConnectedZt@@YA_NH@Z ; gObjIsConnectedZt
  00013	83 c4 04	 add	 esp, 4
  00016	84 c0		 test	 al, al
  00018	0f 84 c3 02 00
	00		 je	 $LN12@DarkWizard

; 352  : 	{
; 353  : 		return;
; 354  : 	}
; 355  : 
; 356  : 	LPOBJ lpUser = &gObj[UserIndex];

  0001e	69 f6 50 2b 00
	00		 imul	 esi, 11088		; 00002b50H
  00024	03 35 00 00 00
	00		 add	 esi, DWORD PTR ?gObj@@3PAUOBJECTSTRUCT@@A ; gObj
  0002a	53		 push	 ebx

; 357  : 
; 358  : 	CMagicInf *lpMagic;
; 359  : 
; 360  : 	//Buff Mana shield
; 361  : 	if(lpUser->m_OfflineAutoBuff == true && lpUser->m_OfflineBuffTime == 0)

  0002b	80 be d9 28 00
	00 01		 cmp	 BYTE PTR [esi+10457], 1
  00032	57		 push	 edi
  00033	0f 85 17 01 00
	00		 jne	 $LN54@DarkWizard
  00039	80 be d8 28 00
	00 00		 cmp	 BYTE PTR [esi+10456], 0
  00040	0f 85 0a 01 00
	00		 jne	 $LN54@DarkWizard

; 362  : 	{
; 363  : 		int partynum = -1;
; 364  : 		int partycount;
; 365  : 		int number;
; 366  : 
; 367  : 		LPOBJ lpPartyObj;
; 368  : 
; 369  : 		partynum = lpUser->PartyNumber;

  00046	8b 86 2c 04 00
	00		 mov	 eax, DWORD PTR [esi+1068]

; 370  : 
; 371  : 		if(partynum != -1)

  0004c	83 f8 ff	 cmp	 eax, -1
  0004f	0f 84 98 00 00
	00		 je	 $LN37@DarkWizard

; 372  : 		{
; 373  : 			partycount = gParty.m_PartyS[partynum].Count;
; 374  : 
; 375  : 			for(int j = 0; j < MAX_USER_IN_PARTY; j++)

  00055	6b c0 68	 imul	 eax, 104		; 00000068H
  00058	05 0c 00 00 00	 add	 eax, OFFSET ?gParty@@3VPartyClass@@A+12
  0005d	8b d8		 mov	 ebx, eax
  0005f	c7 45 fc 0a 00
	00 00		 mov	 DWORD PTR tv74[ebp], 10	; 0000000aH
$LL55@DarkWizard:

; 376  : 			{
; 377  : 				number = gParty.m_PartyS[partynum].Number[j];

  00066	8b 03		 mov	 eax, DWORD PTR [ebx]

; 378  : 
; 379  : 				if ( OBJMAX_RANGE(number) == TRUE )

  00068	85 c0		 test	 eax, eax
  0006a	78 73		 js	 SHORT $LN35@DarkWizard
  0006c	33 c9		 xor	 ecx, ecx
  0006e	3d 97 3a 00 00	 cmp	 eax, 14999		; 00003a97H
  00073	0f 9e c1	 setle	 cl
  00076	83 f9 01	 cmp	 ecx, 1
  00079	75 64		 jne	 SHORT $LN35@DarkWizard

; 380  : 				{
; 381  : 					lpPartyObj = &gObj[number];

  0007b	69 c0 50 2b 00
	00		 imul	 eax, 11088		; 00002b50H
  00081	03 05 00 00 00
	00		 add	 eax, DWORD PTR ?gObj@@3PAUOBJECTSTRUCT@@A ; gObj
  00087	8b f8		 mov	 edi, eax

; 382  : 
; 383  : 					if(lpUser->MapNumber == lpPartyObj->MapNumber)

  00089	8a 86 49 01 00
	00		 mov	 al, BYTE PTR [esi+329]
  0008f	3a 87 49 01 00
	00		 cmp	 al, BYTE PTR [edi+329]
  00095	75 48		 jne	 SHORT $LN35@DarkWizard

; 384  : 					{
; 385  : 						if(gObjCalDistance(lpUser, lpPartyObj) < 6)

  00097	57		 push	 edi
  00098	56		 push	 esi
  00099	e8 00 00 00 00	 call	 ?gObjCalDistance@@YAHPAUOBJECTSTRUCT@@0@Z ; gObjCalDistance
  0009e	83 c4 08	 add	 esp, 8
  000a1	83 f8 06	 cmp	 eax, 6
  000a4	7d 39		 jge	 SHORT $LN35@DarkWizard

; 386  : 						{
; 387  : 							//MS
; 388  : 							lpMagic = gObjGetMagicSearch( lpUser, 16);

  000a6	6a 10		 push	 16			; 00000010H
  000a8	56		 push	 esi
  000a9	e8 00 00 00 00	 call	 ?gObjGetMagicSearch@@YAPAVCMagicInf@@PAUOBJECTSTRUCT@@H@Z ; gObjGetMagicSearch
  000ae	83 c4 08	 add	 esp, 8

; 389  : 							if(lpMagic != NULL) 

  000b1	85 c0		 test	 eax, eax
  000b3	74 09		 je	 SHORT $LN30@DarkWizard

; 390  : 							{		
; 391  : 								gObjUseSkill.UseSkill(lpUser->m_Index, lpPartyObj->m_Index, lpMagic);

  000b5	8b 0f		 mov	 ecx, DWORD PTR [edi]
  000b7	8b 16		 mov	 edx, DWORD PTR [esi]
  000b9	50		 push	 eax
  000ba	51		 push	 ecx
  000bb	52		 push	 edx

; 392  : 							}
; 393  : 							else

  000bc	eb 17		 jmp	 SHORT $LN58@DarkWizard
$LN30@DarkWizard:

; 394  : 							{	
; 395  : 								lpMagic = gObjGetMagicSearch(lpUser, 403);

  000be	68 93 01 00 00	 push	 403			; 00000193H
  000c3	56		 push	 esi
  000c4	e8 00 00 00 00	 call	 ?gObjGetMagicSearch@@YAPAVCMagicInf@@PAUOBJECTSTRUCT@@H@Z ; gObjGetMagicSearch
  000c9	83 c4 08	 add	 esp, 8

; 396  : 								if(lpMagic != NULL) 

  000cc	85 c0		 test	 eax, eax
  000ce	74 0f		 je	 SHORT $LN35@DarkWizard

; 397  : 								{		
; 398  : 									gObjUseSkill.UseSkill(lpUser->m_Index, lpUser->m_Index, lpMagic);

  000d0	8b 0e		 mov	 ecx, DWORD PTR [esi]
  000d2	50		 push	 eax
  000d3	51		 push	 ecx
  000d4	51		 push	 ecx
$LN58@DarkWizard:
  000d5	b9 00 00 00 00	 mov	 ecx, OFFSET ?gObjUseSkill@@3VCObjUseSkill@@A ; gObjUseSkill
  000da	e8 00 00 00 00	 call	 ?UseSkill@CObjUseSkill@@QAEXHHPAVCMagicInf@@@Z ; CObjUseSkill::UseSkill
$LN35@DarkWizard:

; 372  : 		{
; 373  : 			partycount = gParty.m_PartyS[partynum].Count;
; 374  : 
; 375  : 			for(int j = 0; j < MAX_USER_IN_PARTY; j++)

  000df	83 c3 04	 add	 ebx, 4
  000e2	ff 4d fc	 dec	 DWORD PTR tv74[ebp]
  000e5	0f 85 7b ff ff
	ff		 jne	 $LL55@DarkWizard

; 399  : 								}
; 400  : 							}
; 401  : 						}
; 402  : 					}
; 403  : 				}
; 404  : 			}
; 405  : 		}
; 406  : 		else

  000eb	eb 30		 jmp	 SHORT $LN53@DarkWizard
$LN37@DarkWizard:

; 407  : 		{
; 408  : 			//MS
; 409  : 			lpMagic = gObjGetMagicSearch(lpUser, 16);

  000ed	6a 10		 push	 16			; 00000010H
  000ef	56		 push	 esi
  000f0	e8 00 00 00 00	 call	 ?gObjGetMagicSearch@@YAPAVCMagicInf@@PAUOBJECTSTRUCT@@H@Z ; gObjGetMagicSearch
  000f5	83 c4 08	 add	 esp, 8

; 410  : 			if(lpMagic != NULL) 

  000f8	85 c0		 test	 eax, eax

; 411  : 			{		
; 412  : 				gObjUseSkill.UseSkill(lpUser->m_Index, lpUser->m_Index, lpMagic);
; 413  : 			}
; 414  : 			else

  000fa	75 12		 jne	 SHORT $LN59@DarkWizard

; 415  : 			{	
; 416  : 				lpMagic = gObjGetMagicSearch(lpUser, 403);

  000fc	68 93 01 00 00	 push	 403			; 00000193H
  00101	56		 push	 esi
  00102	e8 00 00 00 00	 call	 ?gObjGetMagicSearch@@YAPAVCMagicInf@@PAUOBJECTSTRUCT@@H@Z ; gObjGetMagicSearch
  00107	83 c4 08	 add	 esp, 8

; 417  : 				if(lpMagic != NULL) 

  0010a	85 c0		 test	 eax, eax
  0010c	74 0f		 je	 SHORT $LN53@DarkWizard
$LN59@DarkWizard:

; 418  : 				{		
; 419  : 					gObjUseSkill.UseSkill(lpUser->m_Index, lpUser->m_Index, lpMagic);

  0010e	8b 0e		 mov	 ecx, DWORD PTR [esi]
  00110	50		 push	 eax
  00111	51		 push	 ecx
  00112	51		 push	 ecx
  00113	b9 00 00 00 00	 mov	 ecx, OFFSET ?gObjUseSkill@@3VCObjUseSkill@@A ; gObjUseSkill
  00118	e8 00 00 00 00	 call	 ?UseSkill@CObjUseSkill@@QAEXHHPAVCMagicInf@@@Z ; CObjUseSkill::UseSkill
$LN53@DarkWizard:

; 420  : 				}
; 421  : 			}
; 422  : 		}
; 423  : 
; 424  : 		// Wizard Buff Damage
; 425  : 		lpMagic = gObjGetMagicSearch(lpUser, 233);

  0011d	68 e9 00 00 00	 push	 233			; 000000e9H
  00122	56		 push	 esi
  00123	e8 00 00 00 00	 call	 ?gObjGetMagicSearch@@YAPAVCMagicInf@@PAUOBJECTSTRUCT@@H@Z ; gObjGetMagicSearch
  00128	83 c4 08	 add	 esp, 8

; 426  : 		if(lpMagic != NULL) 

  0012b	85 c0		 test	 eax, eax

; 427  : 		{		
; 428  : 			gObjUseSkill.UseSkill(lpUser->m_Index, lpUser->m_Index, lpMagic);
; 429  : 		}
; 430  : 		else

  0012d	75 12		 jne	 SHORT $LN60@DarkWizard

; 431  : 		{
; 432  : 			lpMagic = gObjGetMagicSearch(lpUser, 380);

  0012f	68 7c 01 00 00	 push	 380			; 0000017cH
  00134	56		 push	 esi
  00135	e8 00 00 00 00	 call	 ?gObjGetMagicSearch@@YAPAVCMagicInf@@PAUOBJECTSTRUCT@@H@Z ; gObjGetMagicSearch
  0013a	83 c4 08	 add	 esp, 8

; 433  : 			if(lpMagic != NULL) 

  0013d	85 c0		 test	 eax, eax
  0013f	74 0f		 je	 SHORT $LN54@DarkWizard
$LN60@DarkWizard:

; 434  : 			{		
; 435  : 				gObjUseSkill.UseSkill(lpUser->m_Index, lpUser->m_Index, lpMagic);

  00141	8b 0e		 mov	 ecx, DWORD PTR [esi]
  00143	50		 push	 eax
  00144	51		 push	 ecx
  00145	51		 push	 ecx
  00146	b9 00 00 00 00	 mov	 ecx, OFFSET ?gObjUseSkill@@3VCObjUseSkill@@A ; gObjUseSkill
  0014b	e8 00 00 00 00	 call	 ?UseSkill@CObjUseSkill@@QAEXHHPAVCMagicInf@@@Z ; CObjUseSkill::UseSkill
$LN54@DarkWizard:

; 436  : 			}
; 437  : 		}
; 438  : 	}
; 439  : 
; 440  : 	lpUser->m_OfflineBuffTime++;

  00150	fe 86 d8 28 00
	00		 inc	 BYTE PTR [esi+10456]

; 441  : 	if(lpUser->m_OfflineBuffTime >= OFFMAXTIME_FOR_BUFF)

  00156	80 be d8 28 00
	00 14		 cmp	 BYTE PTR [esi+10456], 20 ; 00000014H
  0015d	72 07		 jb	 SHORT $LN20@DarkWizard

; 442  : 	{
; 443  : 		lpUser->m_OfflineBuffTime = 0;

  0015f	c6 86 d8 28 00
	00 00		 mov	 BYTE PTR [esi+10456], 0
$LN20@DarkWizard:

; 444  : 	}
; 445  : 
; 446  : 	lpMagic = gObjGetMagicSearch(lpUser, lpUser->m_OfflineSkill);

  00166	0f b7 86 d6 28
	00 00		 movzx	 eax, WORD PTR [esi+10454]
  0016d	50		 push	 eax
  0016e	56		 push	 esi
  0016f	e8 00 00 00 00	 call	 ?gObjGetMagicSearch@@YAPAVCMagicInf@@PAUOBJECTSTRUCT@@H@Z ; gObjGetMagicSearch
  00174	8b f8		 mov	 edi, eax
  00176	83 c4 08	 add	 esp, 8
  00179	89 7d f4	 mov	 DWORD PTR _lpMagic$[ebp], edi

; 447  : 
; 448  : 	if(!lpMagic)

  0017c	85 ff		 test	 edi, edi
  0017e	0f 84 5b 01 00
	00		 je	 $LN56@DarkWizard

; 449  : 	{
; 450  : 		return;
; 451  : 	}
; 452  : 
; 453  : 	int tObjNum;
; 454  : 	int MaxDis = 0;
; 455  : 
; 456  : 	if(lpUser->m_OfflineSkill == 9)

  00184	0f b7 86 d6 28
	00 00		 movzx	 eax, WORD PTR [esi+10454]
  0018b	33 c9		 xor	 ecx, ecx
  0018d	83 f8 09	 cmp	 eax, 9
  00190	0f 95 c1	 setne	 cl
  00193	49		 dec	 ecx
  00194	83 e1 03	 and	 ecx, 3
  00197	83 c1 03	 add	 ecx, 3
  0019a	89 4d fc	 mov	 DWORD PTR _MaxDis$[ebp], ecx

; 457  : 	{
; 458  : 		MaxDis = 6;
; 459  : 	}
; 460  : 	else
; 461  : 	{
; 462  : 		MaxDis = 3;
; 463  : 	}
; 464  : 
; 465  : 	// Evil Spirit or Inferno
; 466  : 	if(lpUser->m_OfflineSkill == 9		|| 
; 467  : 		lpUser->m_OfflineSkill == 385	|| 
; 468  : 		lpUser->m_OfflineSkill == 14	||
; 469  : 		lpUser->m_OfflineSkill == 381)

  0019d	83 f8 09	 cmp	 eax, 9
  001a0	0f 84 88 00 00
	00		 je	 $LN15@DarkWizard
  001a6	ba 81 01 00 00	 mov	 edx, 385		; 00000181H
  001ab	66 3b c2	 cmp	 ax, dx
  001ae	74 7e		 je	 SHORT $LN15@DarkWizard
  001b0	83 f8 0e	 cmp	 eax, 14			; 0000000eH
  001b3	74 79		 je	 SHORT $LN15@DarkWizard
  001b5	ba 7d 01 00 00	 mov	 edx, 381		; 0000017dH
  001ba	66 3b c2	 cmp	 ax, dx
  001bd	74 6f		 je	 SHORT $LN15@DarkWizard

; 496  : 			}
; 497  : 		}
; 498  : 	}
; 499  : 	// Ice Shtorm
; 500  : 	else if(lpUser->m_OfflineSkill == 39)

  001bf	83 f8 27	 cmp	 eax, 39			; 00000027H
  001c2	0f 85 17 01 00
	00		 jne	 $LN56@DarkWizard

; 501  : 	{
; 502  : 		int TargetIndex = this->SearchTarget(UserIndex, MaxDis);

  001c8	8b 75 08	 mov	 esi, DWORD PTR _UserIndex$[ebp]
  001cb	51		 push	 ecx
  001cc	8b 4d f8	 mov	 ecx, DWORD PTR _this$[ebp]
  001cf	56		 push	 esi
  001d0	e8 00 00 00 00	 call	 ?SearchTarget@OfflineMode@@QAEHHH@Z ; OfflineMode::SearchTarget

; 503  : 
; 504  : 		if(TargetIndex == -1) 

  001d5	83 f8 ff	 cmp	 eax, -1
  001d8	0f 84 01 01 00
	00		 je	 $LN56@DarkWizard

; 505  : 		{
; 506  : 			return;
; 507  : 		}
; 508  : 		if ( TargetIndex < 0 || TargetIndex > OBJMAX-1)

  001de	3d 97 3a 00 00	 cmp	 eax, 14999		; 00003a97H
  001e3	0f 87 f6 00 00
	00		 ja	 $LN56@DarkWizard

; 509  : 		{
; 510  : 			return;
; 511  : 		}
; 512  : 		if ( gObj[TargetIndex].Connected < PLAYER_PLAYING )

  001e9	8b 15 00 00 00
	00		 mov	 edx, DWORD PTR ?gObj@@3PAUOBJECTSTRUCT@@A ; gObj
  001ef	8b c8		 mov	 ecx, eax
  001f1	69 c9 50 2b 00
	00		 imul	 ecx, 11088		; 00002b50H
  001f7	83 7c 11 04 03	 cmp	 DWORD PTR [ecx+edx+4], 3
  001fc	0f 8c dd 00 00
	00		 jl	 $LN56@DarkWizard

; 513  : 		{
; 514  : 			return;
; 515  : 		}
; 516  : 
; 517  : 		LPOBJ lpMonster = &gObj[TargetIndex];
; 518  : 
; 519  : 		gObjUseSkill.UseSkill(UserIndex, lpMagic, lpMonster->X, lpMonster->Y, 0, 0, TargetIndex);

  00202	50		 push	 eax
  00203	0f b6 84 11 46
	01 00 00	 movzx	 eax, BYTE PTR [ecx+edx+326]
  0020b	0f b6 8c 11 44
	01 00 00	 movzx	 ecx, BYTE PTR [ecx+edx+324]
  00213	6a 00		 push	 0
  00215	6a 00		 push	 0
  00217	50		 push	 eax
  00218	51		 push	 ecx
  00219	57		 push	 edi
  0021a	56		 push	 esi
  0021b	b9 00 00 00 00	 mov	 ecx, OFFSET ?gObjUseSkill@@3VCObjUseSkill@@A ; gObjUseSkill
  00220	e8 00 00 00 00	 call	 ?UseSkill@CObjUseSkill@@QAEXHPAVCMagicInf@@EEEEH@Z ; CObjUseSkill::UseSkill
  00225	5f		 pop	 edi
  00226	5b		 pop	 ebx
  00227	5e		 pop	 esi

; 520  : 	}
; 521  : }

  00228	8b e5		 mov	 esp, ebp
  0022a	5d		 pop	 ebp
  0022b	c2 04 00	 ret	 4
$LN15@DarkWizard:

; 470  : 	{
; 471  : 		gObjUseSkill.UseSkill(UserIndex, lpMagic, lpUser->X, lpUser->Y, 0, 0, -1);

  0022e	0f b6 96 46 01
	00 00		 movzx	 edx, BYTE PTR [esi+326]
  00235	0f b6 86 44 01
	00 00		 movzx	 eax, BYTE PTR [esi+324]
  0023c	8b 4d 08	 mov	 ecx, DWORD PTR _UserIndex$[ebp]
  0023f	6a ff		 push	 -1
  00241	6a 00		 push	 0
  00243	6a 00		 push	 0
  00245	52		 push	 edx
  00246	50		 push	 eax
  00247	57		 push	 edi
  00248	51		 push	 ecx
  00249	b9 00 00 00 00	 mov	 ecx, OFFSET ?gObjUseSkill@@3VCObjUseSkill@@A ; gObjUseSkill
  0024e	e8 00 00 00 00	 call	 ?UseSkill@CObjUseSkill@@QAEXHPAVCMagicInf@@EEEEH@Z ; CObjUseSkill::UseSkill
  00253	8d 9e ac 08 00
	00		 lea	 ebx, DWORD PTR [esi+2220]
  00259	c7 45 08 4b 00
	00 00		 mov	 DWORD PTR tv84[ebp], 75	; 0000004bH
$LL14@DarkWizard:

; 474  : 		{
; 475  : 			tObjNum = lpUser->VpPlayer2[n].number;
; 476  : 
; 477  : 			if(lpUser->VpPlayer2[n].state == 0)

  00260	80 3b 00	 cmp	 BYTE PTR [ebx], 0
  00263	0f bf 43 02	 movsx	 eax, WORD PTR [ebx+2]
  00267	74 6e		 je	 SHORT $LN13@DarkWizard

; 478  : 			{
; 479  : 				continue;
; 480  : 			}
; 481  : 			if (OBJMAX_RANGE(tObjNum) == FALSE)

  00269	85 c0		 test	 eax, eax
  0026b	78 6a		 js	 SHORT $LN13@DarkWizard
  0026d	33 c9		 xor	 ecx, ecx
  0026f	3d 97 3a 00 00	 cmp	 eax, 14999		; 00003a97H
  00274	0f 9e c1	 setle	 cl
  00277	85 c9		 test	 ecx, ecx
  00279	74 5c		 je	 SHORT $LN13@DarkWizard

; 482  : 			{
; 483  : 				continue;
; 484  : 			}
; 485  : 			if ( gObj[tObjNum].Type != OBJ_MONSTER )

  0027b	8b 15 00 00 00
	00		 mov	 edx, DWORD PTR ?gObj@@3PAUOBJECTSTRUCT@@A ; gObj
  00281	8b f8		 mov	 edi, eax
  00283	69 ff 50 2b 00
	00		 imul	 edi, 11088		; 00002b50H
  00289	66 83 7c 17 68
	02		 cmp	 WORD PTR [edi+edx+104], 2
  0028f	75 46		 jne	 SHORT $LN13@DarkWizard

; 486  : 			{
; 487  : 				continue;
; 488  : 			}
; 489  : 			if(g_ZtUser.InSafeZone(tObjNum) == true)

  00291	50		 push	 eax
  00292	b9 00 00 00 00	 mov	 ecx, OFFSET ?g_ZtUser@@3VZtUser@@A ; g_ZtUser
  00297	e8 00 00 00 00	 call	 ?InSafeZone@ZtUser@@QAE_NH@Z ; ZtUser::InSafeZone
  0029c	3c 01		 cmp	 al, 1
  0029e	74 37		 je	 SHORT $LN13@DarkWizard

; 490  : 			{
; 491  : 				continue;
; 492  : 			}
; 493  : 			if(MaxDis >= gObjCalDistance(lpUser, &gObj[tObjNum]))

  002a0	a1 00 00 00 00	 mov	 eax, DWORD PTR ?gObj@@3PAUOBJECTSTRUCT@@A ; gObj
  002a5	8d 0c 07	 lea	 ecx, DWORD PTR [edi+eax]
  002a8	51		 push	 ecx
  002a9	56		 push	 esi
  002aa	e8 00 00 00 00	 call	 ?gObjCalDistance@@YAHPAUOBJECTSTRUCT@@0@Z ; gObjCalDistance
  002af	83 c4 08	 add	 esp, 8
  002b2	39 45 fc	 cmp	 DWORD PTR _MaxDis$[ebp], eax
  002b5	7c 20		 jl	 SHORT $LN13@DarkWizard

; 494  : 			{
; 495  : 				gObjAttack(lpUser, &gObj[tObjNum], lpMagic, FALSE, 1, 0, FALSE, 0, 0);

  002b7	8b 55 f4	 mov	 edx, DWORD PTR _lpMagic$[ebp]
  002ba	03 3d 00 00 00
	00		 add	 edi, DWORD PTR ?gObj@@3PAUOBJECTSTRUCT@@A ; gObj
  002c0	6a 00		 push	 0
  002c2	6a 00		 push	 0
  002c4	6a 00		 push	 0
  002c6	6a 00		 push	 0
  002c8	6a 01		 push	 1
  002ca	6a 00		 push	 0
  002cc	52		 push	 edx
  002cd	57		 push	 edi
  002ce	56		 push	 esi
  002cf	e8 00 00 00 00	 call	 ?gObjAttack@@YAHPAUOBJECTSTRUCT@@0PAVCMagicInf@@HEHHEE@Z ; gObjAttack
  002d4	83 c4 24	 add	 esp, 36			; 00000024H
$LN13@DarkWizard:

; 472  : 
; 473  : 		for (int n=0;n<MAX_VIEWPORT_MONSTER;n++)

  002d7	83 c3 0c	 add	 ebx, 12			; 0000000cH
  002da	ff 4d 08	 dec	 DWORD PTR tv84[ebp]
  002dd	75 81		 jne	 SHORT $LL14@DarkWizard
$LN56@DarkWizard:
  002df	5f		 pop	 edi
  002e0	5b		 pop	 ebx
$LN12@DarkWizard:
  002e1	5e		 pop	 esi

; 520  : 	}
; 521  : }

  002e2	8b e5		 mov	 esp, ebp
  002e4	5d		 pop	 ebp
  002e5	c2 04 00	 ret	 4
?DarkWizard@OfflineMode@@QAEXH@Z ENDP			; OfflineMode::DarkWizard
_TEXT	ENDS
PUBLIC	?DarkKnight@OfflineMode@@QAEXH@Z		; OfflineMode::DarkKnight
; Function compile flags: /Ogtp
;	COMDAT ?DarkKnight@OfflineMode@@QAEXH@Z
_TEXT	SEGMENT
_lpMagic$ = -8						; size = 4
tv268 = -4						; size = 4
tv206 = -4						; size = 4
_this$ = -4						; size = 4
_MaxDis$ = 8						; size = 4
_UserIndex$ = 8						; size = 4
?DarkKnight@OfflineMode@@QAEXH@Z PROC			; OfflineMode::DarkKnight, COMDAT
; _this$ = ecx

; 525  : {

  00000	55		 push	 ebp
  00001	8b ec		 mov	 ebp, esp
  00003	83 ec 08	 sub	 esp, 8
  00006	57		 push	 edi

; 526  : 	if(!gObjIsConnectedZt(UserIndex))

  00007	8b 7d 08	 mov	 edi, DWORD PTR _UserIndex$[ebp]
  0000a	57		 push	 edi
  0000b	89 4d fc	 mov	 DWORD PTR _this$[ebp], ecx
  0000e	e8 00 00 00 00	 call	 ?gObjIsConnectedZt@@YA_NH@Z ; gObjIsConnectedZt
  00013	83 c4 04	 add	 esp, 4
  00016	84 c0		 test	 al, al
  00018	0f 84 a3 03 00
	00		 je	 $LN25@DarkKnight

; 527  : 	{
; 528  : 		return;
; 529  : 	}
; 530  : 
; 531  : 	LPOBJ lpUser = &gObj[UserIndex];

  0001e	56		 push	 esi
  0001f	8b f7		 mov	 esi, edi
  00021	69 f6 50 2b 00
	00		 imul	 esi, 11088		; 00002b50H
  00027	03 35 00 00 00
	00		 add	 esi, DWORD PTR ?gObj@@3PAUOBJECTSTRUCT@@A ; gObj

; 532  : 
; 533  : 	CMagicInf *lpMagic;
; 534  : 
; 535  : 	// HP Buff
; 536  : 	if(lpUser->m_OfflineAutoBuff == true && lpUser->m_OfflineBuffTime == 0)

  0002d	80 be d9 28 00
	00 01		 cmp	 BYTE PTR [esi+10457], 1
  00034	75 39		 jne	 SHORT $LN58@DarkKnight
  00036	80 be d8 28 00
	00 00		 cmp	 BYTE PTR [esi+10456], 0
  0003d	75 30		 jne	 SHORT $LN58@DarkKnight

; 537  : 	{
; 538  : 		lpMagic = gObjGetMagicSearch( lpUser, 48);

  0003f	6a 30		 push	 48			; 00000030H
  00041	56		 push	 esi
  00042	e8 00 00 00 00	 call	 ?gObjGetMagicSearch@@YAPAVCMagicInf@@PAUOBJECTSTRUCT@@H@Z ; gObjGetMagicSearch
  00047	83 c4 08	 add	 esp, 8

; 539  : 		if(lpMagic != NULL) 

  0004a	85 c0		 test	 eax, eax

; 540  : 		{		
; 541  : 			gObjUseSkill.UseSkill(lpUser->m_Index, lpUser->m_Index, lpMagic);
; 542  : 		}
; 543  : 		else

  0004c	75 12		 jne	 SHORT $LN68@DarkKnight

; 544  : 		{
; 545  : 			lpMagic = gObjGetMagicSearch(lpUser, 356);

  0004e	68 64 01 00 00	 push	 356			; 00000164H
  00053	56		 push	 esi
  00054	e8 00 00 00 00	 call	 ?gObjGetMagicSearch@@YAPAVCMagicInf@@PAUOBJECTSTRUCT@@H@Z ; gObjGetMagicSearch
  00059	83 c4 08	 add	 esp, 8

; 546  : 			if(lpMagic != NULL) 

  0005c	85 c0		 test	 eax, eax
  0005e	74 0f		 je	 SHORT $LN58@DarkKnight
$LN68@DarkKnight:

; 547  : 			{		
; 548  : 				gObjUseSkill.UseSkill(lpUser->m_Index, lpUser->m_Index, lpMagic);

  00060	8b 0e		 mov	 ecx, DWORD PTR [esi]
  00062	50		 push	 eax
  00063	51		 push	 ecx
  00064	51		 push	 ecx
  00065	b9 00 00 00 00	 mov	 ecx, OFFSET ?gObjUseSkill@@3VCObjUseSkill@@A ; gObjUseSkill
  0006a	e8 00 00 00 00	 call	 ?UseSkill@CObjUseSkill@@QAEXHHPAVCMagicInf@@@Z ; CObjUseSkill::UseSkill
$LN58@DarkKnight:

; 549  : 			}			
; 550  : 		}
; 551  : 	}
; 552  : 
; 553  : 	lpUser->m_OfflineBuffTime++;

  0006f	fe 86 d8 28 00
	00		 inc	 BYTE PTR [esi+10456]

; 554  : 	if(lpUser->m_OfflineBuffTime >= OFFMAXTIME_FOR_BUFF)

  00075	80 be d8 28 00
	00 14		 cmp	 BYTE PTR [esi+10456], 20 ; 00000014H
  0007c	72 07		 jb	 SHORT $LN40@DarkKnight

; 555  : 	{
; 556  : 		lpUser->m_OfflineBuffTime = 0;

  0007e	c6 86 d8 28 00
	00 00		 mov	 BYTE PTR [esi+10456], 0
$LN40@DarkKnight:

; 557  : 	}
; 558  : 
; 559  : 	lpMagic = gObjGetMagicSearch(lpUser, lpUser->m_OfflineSkill);

  00085	0f b7 86 d6 28
	00 00		 movzx	 eax, WORD PTR [esi+10454]
  0008c	53		 push	 ebx
  0008d	50		 push	 eax
  0008e	56		 push	 esi
  0008f	e8 00 00 00 00	 call	 ?gObjGetMagicSearch@@YAPAVCMagicInf@@PAUOBJECTSTRUCT@@H@Z ; gObjGetMagicSearch
  00094	8b d8		 mov	 ebx, eax
  00096	83 c4 08	 add	 esp, 8
  00099	89 5d f8	 mov	 DWORD PTR _lpMagic$[ebp], ebx

; 560  : 
; 561  : 	if(!lpMagic)

  0009c	85 db		 test	 ebx, ebx
  0009e	0f 84 1b 03 00
	00		 je	 $LN67@DarkKnight

; 562  : 	{
; 563  : 		return;
; 564  : 	}
; 565  : 
; 566  : 	int tObjNum;
; 567  : 	int MaxDis = 0;
; 568  : 
; 569  : 	if(lpUser->m_OfflineSkill == 41 || lpUser->m_OfflineSkill == 330 || lpUser->m_OfflineSkill == 332 || lpUser->m_OfflineSkill == 481)

  000a4	0f b7 86 d6 28
	00 00		 movzx	 eax, WORD PTR [esi+10454]
  000ab	c7 45 08 00 00
	00 00		 mov	 DWORD PTR _MaxDis$[ebp], 0
  000b2	83 f8 29	 cmp	 eax, 41			; 00000029H
  000b5	74 71		 je	 SHORT $LN37@DarkKnight
  000b7	b9 4a 01 00 00	 mov	 ecx, 330		; 0000014aH
  000bc	66 3b c1	 cmp	 ax, cx
  000bf	74 67		 je	 SHORT $LN37@DarkKnight
  000c1	ba 4c 01 00 00	 mov	 edx, 332		; 0000014cH
  000c6	66 3b c2	 cmp	 ax, dx
  000c9	74 5d		 je	 SHORT $LN37@DarkKnight
  000cb	b9 e1 01 00 00	 mov	 ecx, 481		; 000001e1H
  000d0	66 3b c1	 cmp	 ax, cx
  000d3	74 53		 je	 SHORT $LN37@DarkKnight

; 572  : 	}
; 573  : 	else if(lpUser->m_OfflineSkill == 42 || lpUser->m_OfflineSkill == 331 || lpUser->m_OfflineSkill == 333)

  000d5	83 f8 2a	 cmp	 eax, 42			; 0000002aH
  000d8	74 45		 je	 SHORT $LN34@DarkKnight
  000da	ba 4b 01 00 00	 mov	 edx, 331		; 0000014bH
  000df	66 3b c2	 cmp	 ax, dx
  000e2	74 3b		 je	 SHORT $LN34@DarkKnight
  000e4	b9 4d 01 00 00	 mov	 ecx, 333		; 0000014dH
  000e9	66 3b c1	 cmp	 ax, cx
  000ec	74 31		 je	 SHORT $LN34@DarkKnight

; 576  : 	}
; 577  : 	else if(lpUser->m_OfflineSkill == 232 || lpUser->m_OfflineSkill == 337 || lpUser->m_OfflineSkill == 340 || lpUser->m_OfflineSkill == 343)

  000ee	ba e8 00 00 00	 mov	 edx, 232		; 000000e8H
  000f3	66 3b c2	 cmp	 ax, dx
  000f6	74 1e		 je	 SHORT $LN31@DarkKnight
  000f8	b9 51 01 00 00	 mov	 ecx, 337		; 00000151H
  000fd	66 3b c1	 cmp	 ax, cx
  00100	74 14		 je	 SHORT $LN31@DarkKnight
  00102	ba 54 01 00 00	 mov	 edx, 340		; 00000154H
  00107	66 3b c2	 cmp	 ax, dx
  0010a	74 0a		 je	 SHORT $LN31@DarkKnight
  0010c	b9 57 01 00 00	 mov	 ecx, 343		; 00000157H
  00111	66 3b c1	 cmp	 ax, cx
  00114	75 19		 jne	 SHORT $LN63@DarkKnight
$LN31@DarkKnight:

; 578  : 	{
; 579  : 		MaxDis = 5;

  00116	c7 45 08 05 00
	00 00		 mov	 DWORD PTR _MaxDis$[ebp], 5
  0011d	eb 10		 jmp	 SHORT $LN63@DarkKnight
$LN34@DarkKnight:

; 574  : 	{
; 575  : 		MaxDis = 3;

  0011f	c7 45 08 03 00
	00 00		 mov	 DWORD PTR _MaxDis$[ebp], 3
  00126	eb 07		 jmp	 SHORT $LN63@DarkKnight
$LN37@DarkKnight:

; 570  : 	{
; 571  : 		MaxDis = 2;

  00128	c7 45 08 02 00
	00 00		 mov	 DWORD PTR _MaxDis$[ebp], 2
$LN63@DarkKnight:

; 580  : 	}
; 581  : 
; 582  : 	// Twisting Slash
; 583  : 	if( lpUser->m_OfflineSkill == 41  || 
; 584  : 		lpUser->m_OfflineSkill == 330 ||
; 585  : 		lpUser->m_OfflineSkill == 332 ||
; 586  : 		lpUser->m_OfflineSkill == 481 )	//42 - ? ?2-3 

  0012f	83 f8 29	 cmp	 eax, 41			; 00000029H
  00132	0f 84 c1 01 00
	00		 je	 $LN29@DarkKnight
  00138	ba 4a 01 00 00	 mov	 edx, 330		; 0000014aH
  0013d	66 3b c2	 cmp	 ax, dx
  00140	0f 84 b3 01 00
	00		 je	 $LN29@DarkKnight
  00146	b9 4c 01 00 00	 mov	 ecx, 332		; 0000014cH
  0014b	66 3b c1	 cmp	 ax, cx
  0014e	0f 84 a5 01 00
	00		 je	 $LN29@DarkKnight
  00154	ba e1 01 00 00	 mov	 edx, 481		; 000001e1H
  00159	66 3b c2	 cmp	 ax, dx
  0015c	0f 84 97 01 00
	00		 je	 $LN29@DarkKnight

; 615  : 				}
; 616  : 			}
; 617  : 		}
; 618  : 	}
; 619  : 	// Rageful Blow
; 620  : 	else if( lpUser->m_OfflineSkill == 42  ||
; 621  : 		lpUser->m_OfflineSkill == 331 ||
; 622  : 		lpUser->m_OfflineSkill == 333 )	//42 - ? ?2-3 

  00162	83 f8 2a	 cmp	 eax, 42			; 0000002aH
  00165	0f 84 c1 00 00
	00		 je	 $LN17@DarkKnight
  0016b	b9 4b 01 00 00	 mov	 ecx, 331		; 0000014bH
  00170	66 3b c1	 cmp	 ax, cx
  00173	0f 84 b3 00 00
	00		 je	 $LN17@DarkKnight
  00179	ba 4d 01 00 00	 mov	 edx, 333		; 0000014dH
  0017e	66 3b c2	 cmp	 ax, dx
  00181	0f 84 a5 00 00
	00		 je	 $LN17@DarkKnight

; 651  : 				}
; 652  : 			}
; 653  : 		}
; 654  : 	}
; 655  : 	// BK top skill
; 656  : 	else if(lpUser->m_OfflineSkill == 232 ||
; 657  : 			lpUser->m_OfflineSkill == 337 ||
; 658  : 			lpUser->m_OfflineSkill == 340 ||
; 659  : 			lpUser->m_OfflineSkill == 343 &&
; 660  : 			this->OffTimer(UserIndex, 4) == true)	//232 - ? ?3-4 

  00187	b9 e8 00 00 00	 mov	 ecx, 232		; 000000e8H
  0018c	66 3b c1	 cmp	 ax, cx
  0018f	74 35		 je	 SHORT $LN64@DarkKnight
  00191	ba 51 01 00 00	 mov	 edx, 337		; 00000151H
  00196	66 3b c2	 cmp	 ax, dx
  00199	74 2b		 je	 SHORT $LN64@DarkKnight
  0019b	b9 54 01 00 00	 mov	 ecx, 340		; 00000154H
  001a0	66 3b c1	 cmp	 ax, cx
  001a3	74 21		 je	 SHORT $LN64@DarkKnight
  001a5	ba 57 01 00 00	 mov	 edx, 343		; 00000157H
  001aa	66 3b c2	 cmp	 ax, dx
  001ad	0f 85 0c 02 00
	00		 jne	 $LN67@DarkKnight
  001b3	8b 4d fc	 mov	 ecx, DWORD PTR _this$[ebp]
  001b6	6a 04		 push	 4
  001b8	57		 push	 edi
  001b9	e8 00 00 00 00	 call	 ?OffTimer@OfflineMode@@QAE_NHH@Z ; OfflineMode::OffTimer
  001be	3c 01		 cmp	 al, 1
  001c0	0f 85 f9 01 00
	00		 jne	 $LN67@DarkKnight
$LN64@DarkKnight:

; 661  : 	{
; 662  : 		int TargetIndex = this->SearchTarget(UserIndex, MaxDis);

  001c6	8b 45 08	 mov	 eax, DWORD PTR _MaxDis$[ebp]
  001c9	8b 4d fc	 mov	 ecx, DWORD PTR _this$[ebp]
  001cc	50		 push	 eax
  001cd	57		 push	 edi
  001ce	e8 00 00 00 00	 call	 ?SearchTarget@OfflineMode@@QAEHHH@Z ; OfflineMode::SearchTarget

; 663  : 
; 664  : 		if(TargetIndex == -1) 

  001d3	83 f8 ff	 cmp	 eax, -1
  001d6	0f 84 e3 01 00
	00		 je	 $LN67@DarkKnight

; 665  : 		{
; 666  : 			return;
; 667  : 		}
; 668  : 		if (TargetIndex < 0 || TargetIndex > OBJMAX-1)

  001dc	3d 97 3a 00 00	 cmp	 eax, 14999		; 00003a97H
  001e1	0f 87 d8 01 00
	00		 ja	 $LN67@DarkKnight

; 669  : 		{
; 670  : 			return;
; 671  : 		}
; 672  : 		if (gObj[TargetIndex].Connected < PLAYER_PLAYING)

  001e7	8b 15 00 00 00
	00		 mov	 edx, DWORD PTR ?gObj@@3PAUOBJECTSTRUCT@@A ; gObj
  001ed	8b c8		 mov	 ecx, eax
  001ef	69 c9 50 2b 00
	00		 imul	 ecx, 11088		; 00002b50H
  001f5	83 7c 11 04 03	 cmp	 DWORD PTR [ecx+edx+4], 3
  001fa	0f 8c bf 01 00
	00		 jl	 $LN67@DarkKnight

; 673  : 		{
; 674  : 			return;
; 675  : 		}
; 676  : 
; 677  : 		LPOBJ lpMonster = &gObj[TargetIndex];
; 678  : 
; 679  : 		gObjUseSkill.UseSkill(UserIndex, lpMagic, lpMonster->X, lpMonster->Y, 0, 0, TargetIndex);

  00200	50		 push	 eax
  00201	0f b6 84 11 46
	01 00 00	 movzx	 eax, BYTE PTR [ecx+edx+326]
  00209	0f b6 8c 11 44
	01 00 00	 movzx	 ecx, BYTE PTR [ecx+edx+324]
  00211	6a 00		 push	 0
  00213	6a 00		 push	 0
  00215	50		 push	 eax
  00216	51		 push	 ecx
  00217	53		 push	 ebx
  00218	57		 push	 edi
  00219	b9 00 00 00 00	 mov	 ecx, OFFSET ?gObjUseSkill@@3VCObjUseSkill@@A ; gObjUseSkill
  0021e	e8 00 00 00 00	 call	 ?UseSkill@CObjUseSkill@@QAEXHPAVCMagicInf@@EEEEH@Z ; CObjUseSkill::UseSkill
  00223	5b		 pop	 ebx
  00224	5e		 pop	 esi
  00225	5f		 pop	 edi

; 680  : 	}
; 681  : }

  00226	8b e5		 mov	 esp, ebp
  00228	5d		 pop	 ebp
  00229	c2 04 00	 ret	 4
$LN17@DarkKnight:

; 623  : 	{
; 624  : 		if(this->OffTimer(UserIndex, 4) == true)

  0022c	8b 4d fc	 mov	 ecx, DWORD PTR _this$[ebp]
  0022f	6a 04		 push	 4
  00231	57		 push	 edi
  00232	e8 00 00 00 00	 call	 ?OffTimer@OfflineMode@@QAE_NHH@Z ; OfflineMode::OffTimer
  00237	3c 01		 cmp	 al, 1
  00239	0f 85 80 01 00
	00		 jne	 $LN67@DarkKnight

; 625  : 		{
; 626  : 			gObjUseSkill.UseSkill(UserIndex, lpMagic,lpUser->X, lpUser->Y,0,0,-1);

  0023f	0f b6 96 46 01
	00 00		 movzx	 edx, BYTE PTR [esi+326]
  00246	0f b6 86 44 01
	00 00		 movzx	 eax, BYTE PTR [esi+324]
  0024d	6a ff		 push	 -1
  0024f	6a 00		 push	 0
  00251	6a 00		 push	 0
  00253	52		 push	 edx
  00254	50		 push	 eax
  00255	53		 push	 ebx
  00256	57		 push	 edi
  00257	b9 00 00 00 00	 mov	 ecx, OFFSET ?gObjUseSkill@@3VCObjUseSkill@@A ; gObjUseSkill
  0025c	e8 00 00 00 00	 call	 ?UseSkill@CObjUseSkill@@QAEXHPAVCMagicInf@@EEEEH@Z ; CObjUseSkill::UseSkill
  00261	8d 9e ac 08 00
	00		 lea	 ebx, DWORD PTR [esi+2220]
  00267	c7 45 fc 4b 00
	00 00		 mov	 DWORD PTR tv268[ebp], 75 ; 0000004bH
  0026e	8b ff		 npad	 2
$LL15@DarkKnight:

; 629  : 			{
; 630  : 				tObjNum = lpUser->VpPlayer2[n].number;
; 631  : 
; 632  : 				if(lpUser->VpPlayer2[n].state == 0)

  00270	80 3b 00	 cmp	 BYTE PTR [ebx], 0
  00273	0f bf 43 02	 movsx	 eax, WORD PTR [ebx+2]
  00277	74 6f		 je	 SHORT $LN14@DarkKnight

; 633  : 				{
; 634  : 					continue;
; 635  : 				}
; 636  : 				if (OBJMAX_RANGE(tObjNum) == FALSE)

  00279	85 c0		 test	 eax, eax
  0027b	78 6b		 js	 SHORT $LN14@DarkKnight
  0027d	33 c9		 xor	 ecx, ecx
  0027f	3d 97 3a 00 00	 cmp	 eax, 14999		; 00003a97H
  00284	0f 9e c1	 setle	 cl
  00287	85 c9		 test	 ecx, ecx
  00289	74 5d		 je	 SHORT $LN14@DarkKnight

; 637  : 				{
; 638  : 					continue;
; 639  : 				}
; 640  : 				if ( gObj[tObjNum].Type != OBJ_MONSTER )

  0028b	8b 0d 00 00 00
	00		 mov	 ecx, DWORD PTR ?gObj@@3PAUOBJECTSTRUCT@@A ; gObj
  00291	8b f8		 mov	 edi, eax
  00293	69 ff 50 2b 00
	00		 imul	 edi, 11088		; 00002b50H
  00299	66 83 7c 0f 68
	02		 cmp	 WORD PTR [edi+ecx+104], 2
  0029f	75 47		 jne	 SHORT $LN14@DarkKnight

; 641  : 				{
; 642  : 					continue;
; 643  : 				}
; 644  : 				if(g_ZtUser.InSafeZone(tObjNum) == true)

  002a1	50		 push	 eax
  002a2	b9 00 00 00 00	 mov	 ecx, OFFSET ?g_ZtUser@@3VZtUser@@A ; g_ZtUser
  002a7	e8 00 00 00 00	 call	 ?InSafeZone@ZtUser@@QAE_NH@Z ; ZtUser::InSafeZone
  002ac	3c 01		 cmp	 al, 1
  002ae	74 38		 je	 SHORT $LN14@DarkKnight

; 645  : 				{
; 646  : 					continue;
; 647  : 				}
; 648  : 				if(MaxDis >= gObjCalDistance(lpUser, &gObj[tObjNum]))

  002b0	8b 15 00 00 00
	00		 mov	 edx, DWORD PTR ?gObj@@3PAUOBJECTSTRUCT@@A ; gObj
  002b6	8d 04 17	 lea	 eax, DWORD PTR [edi+edx]
  002b9	50		 push	 eax
  002ba	56		 push	 esi
  002bb	e8 00 00 00 00	 call	 ?gObjCalDistance@@YAHPAUOBJECTSTRUCT@@0@Z ; gObjCalDistance
  002c0	83 c4 08	 add	 esp, 8
  002c3	39 45 08	 cmp	 DWORD PTR _MaxDis$[ebp], eax
  002c6	7c 20		 jl	 SHORT $LN14@DarkKnight

; 649  : 				{
; 650  : 					gObjAttack(lpUser, &gObj[tObjNum], lpMagic, FALSE, 1, 0, FALSE, 0, 0);

  002c8	8b 4d f8	 mov	 ecx, DWORD PTR _lpMagic$[ebp]
  002cb	03 3d 00 00 00
	00		 add	 edi, DWORD PTR ?gObj@@3PAUOBJECTSTRUCT@@A ; gObj
  002d1	6a 00		 push	 0
  002d3	6a 00		 push	 0
  002d5	6a 00		 push	 0
  002d7	6a 00		 push	 0
  002d9	6a 01		 push	 1
  002db	6a 00		 push	 0
  002dd	51		 push	 ecx
  002de	57		 push	 edi
  002df	56		 push	 esi
  002e0	e8 00 00 00 00	 call	 ?gObjAttack@@YAHPAUOBJECTSTRUCT@@0PAVCMagicInf@@HEHHEE@Z ; gObjAttack
  002e5	83 c4 24	 add	 esp, 36			; 00000024H
$LN14@DarkKnight:

; 627  : 
; 628  : 			for (int n=0;n<MAX_VIEWPORT_MONSTER;n++)

  002e8	83 c3 0c	 add	 ebx, 12			; 0000000cH
  002eb	ff 4d fc	 dec	 DWORD PTR tv268[ebp]
  002ee	75 80		 jne	 SHORT $LL15@DarkKnight
  002f0	5b		 pop	 ebx
  002f1	5e		 pop	 esi
  002f2	5f		 pop	 edi

; 680  : 	}
; 681  : }

  002f3	8b e5		 mov	 esp, ebp
  002f5	5d		 pop	 ebp
  002f6	c2 04 00	 ret	 4
$LN29@DarkKnight:

; 587  : 	{
; 588  : 		if(this->OffTimer(UserIndex, 3) == true)	//3

  002f9	8b 4d fc	 mov	 ecx, DWORD PTR _this$[ebp]
  002fc	6a 03		 push	 3
  002fe	57		 push	 edi
  002ff	e8 00 00 00 00	 call	 ?OffTimer@OfflineMode@@QAE_NHH@Z ; OfflineMode::OffTimer
  00304	3c 01		 cmp	 al, 1
  00306	0f 85 b3 00 00
	00		 jne	 $LN67@DarkKnight

; 589  : 		{
; 590  : 			gObjUseSkill.UseSkill(UserIndex, lpMagic,lpUser->X, lpUser->Y,0,0,-1);

  0030c	0f b6 86 46 01
	00 00		 movzx	 eax, BYTE PTR [esi+326]
  00313	0f b6 8e 44 01
	00 00		 movzx	 ecx, BYTE PTR [esi+324]
  0031a	6a ff		 push	 -1
  0031c	6a 00		 push	 0
  0031e	6a 00		 push	 0
  00320	50		 push	 eax
  00321	51		 push	 ecx
  00322	53		 push	 ebx
  00323	57		 push	 edi
  00324	b9 00 00 00 00	 mov	 ecx, OFFSET ?gObjUseSkill@@3VCObjUseSkill@@A ; gObjUseSkill
  00329	e8 00 00 00 00	 call	 ?UseSkill@CObjUseSkill@@QAEXHPAVCMagicInf@@EEEEH@Z ; CObjUseSkill::UseSkill
  0032e	8d 9e ac 08 00
	00		 lea	 ebx, DWORD PTR [esi+2220]
  00334	c7 45 fc 4b 00
	00 00		 mov	 DWORD PTR tv206[ebp], 75 ; 0000004bH
  0033b	eb 03 8d 49 00	 npad	 5
$LL27@DarkKnight:

; 593  : 			{
; 594  : 				tObjNum = lpUser->VpPlayer2[n].number;
; 595  : 
; 596  : 				if(lpUser->VpPlayer2[n].state == 0)

  00340	80 3b 00	 cmp	 BYTE PTR [ebx], 0
  00343	0f bf 43 02	 movsx	 eax, WORD PTR [ebx+2]
  00347	74 6e		 je	 SHORT $LN26@DarkKnight

; 597  : 				{
; 598  : 					continue;
; 599  : 				}
; 600  : 				if (OBJMAX_RANGE(tObjNum) == FALSE)

  00349	85 c0		 test	 eax, eax
  0034b	78 6a		 js	 SHORT $LN26@DarkKnight
  0034d	33 c9		 xor	 ecx, ecx
  0034f	3d 97 3a 00 00	 cmp	 eax, 14999		; 00003a97H
  00354	0f 9e c1	 setle	 cl
  00357	85 c9		 test	 ecx, ecx
  00359	74 5c		 je	 SHORT $LN26@DarkKnight

; 601  : 				{
; 602  : 					continue;
; 603  : 				}
; 604  : 				if ( gObj[tObjNum].Type != OBJ_MONSTER )

  0035b	8b 15 00 00 00
	00		 mov	 edx, DWORD PTR ?gObj@@3PAUOBJECTSTRUCT@@A ; gObj
  00361	8b f8		 mov	 edi, eax
  00363	69 ff 50 2b 00
	00		 imul	 edi, 11088		; 00002b50H
  00369	66 83 7c 17 68
	02		 cmp	 WORD PTR [edi+edx+104], 2
  0036f	75 46		 jne	 SHORT $LN26@DarkKnight

; 605  : 				{
; 606  : 					continue;
; 607  : 				}
; 608  : 				if(g_ZtUser.InSafeZone(tObjNum) == true)

  00371	50		 push	 eax
  00372	b9 00 00 00 00	 mov	 ecx, OFFSET ?g_ZtUser@@3VZtUser@@A ; g_ZtUser
  00377	e8 00 00 00 00	 call	 ?InSafeZone@ZtUser@@QAE_NH@Z ; ZtUser::InSafeZone
  0037c	3c 01		 cmp	 al, 1
  0037e	74 37		 je	 SHORT $LN26@DarkKnight

; 609  : 				{
; 610  : 					continue;
; 611  : 				}
; 612  : 				if(MaxDis >= gObjCalDistance(lpUser, &gObj[tObjNum]))

  00380	a1 00 00 00 00	 mov	 eax, DWORD PTR ?gObj@@3PAUOBJECTSTRUCT@@A ; gObj
  00385	8d 0c 07	 lea	 ecx, DWORD PTR [edi+eax]
  00388	51		 push	 ecx
  00389	56		 push	 esi
  0038a	e8 00 00 00 00	 call	 ?gObjCalDistance@@YAHPAUOBJECTSTRUCT@@0@Z ; gObjCalDistance
  0038f	83 c4 08	 add	 esp, 8
  00392	39 45 08	 cmp	 DWORD PTR _MaxDis$[ebp], eax
  00395	7c 20		 jl	 SHORT $LN26@DarkKnight

; 613  : 				{
; 614  : 					gObjAttack(lpUser, &gObj[tObjNum], lpMagic, FALSE, 1, 0, FALSE, 0, 0);

  00397	8b 55 f8	 mov	 edx, DWORD PTR _lpMagic$[ebp]
  0039a	03 3d 00 00 00
	00		 add	 edi, DWORD PTR ?gObj@@3PAUOBJECTSTRUCT@@A ; gObj
  003a0	6a 00		 push	 0
  003a2	6a 00		 push	 0
  003a4	6a 00		 push	 0
  003a6	6a 00		 push	 0
  003a8	6a 01		 push	 1
  003aa	6a 00		 push	 0
  003ac	52		 push	 edx
  003ad	57		 push	 edi
  003ae	56		 push	 esi
  003af	e8 00 00 00 00	 call	 ?gObjAttack@@YAHPAUOBJECTSTRUCT@@0PAVCMagicInf@@HEHHEE@Z ; gObjAttack
  003b4	83 c4 24	 add	 esp, 36			; 00000024H
$LN26@DarkKnight:

; 591  : 
; 592  : 			for (int n=0;n<MAX_VIEWPORT_MONSTER;n++)

  003b7	83 c3 0c	 add	 ebx, 12			; 0000000cH
  003ba	ff 4d fc	 dec	 DWORD PTR tv206[ebp]
  003bd	75 81		 jne	 SHORT $LL27@DarkKnight
$LN67@DarkKnight:
  003bf	5b		 pop	 ebx
  003c0	5e		 pop	 esi
$LN25@DarkKnight:
  003c1	5f		 pop	 edi

; 680  : 	}
; 681  : }

  003c2	8b e5		 mov	 esp, ebp
  003c4	5d		 pop	 ebp
  003c5	c2 04 00	 ret	 4
?DarkKnight@OfflineMode@@QAEXH@Z ENDP			; OfflineMode::DarkKnight
_TEXT	ENDS
PUBLIC	?FairyElf@OfflineMode@@QAEXH@Z			; OfflineMode::FairyElf
; Function compile flags: /Ogtp
;	COMDAT ?FairyElf@OfflineMode@@QAEXH@Z
_TEXT	SEGMENT
_lpMagic$ = -16						; size = 4
tv238 = -12						; size = 4
_this$ = -12						; size = 4
tv672 = -8						; size = 4
tv248 = -4						; size = 4
_MaxDis$ = -4						; size = 4
_UserIndex$ = 8						; size = 4
?FairyElf@OfflineMode@@QAEXH@Z PROC			; OfflineMode::FairyElf, COMDAT
; _this$ = ecx

; 685  : {

  00000	55		 push	 ebp
  00001	8b ec		 mov	 ebp, esp
  00003	83 ec 10	 sub	 esp, 16			; 00000010H
  00006	56		 push	 esi

; 686  : 	if(!gObjIsConnectedZt(UserIndex))

  00007	8b 75 08	 mov	 esi, DWORD PTR _UserIndex$[ebp]
  0000a	56		 push	 esi
  0000b	89 4d f4	 mov	 DWORD PTR _this$[ebp], ecx
  0000e	e8 00 00 00 00	 call	 ?gObjIsConnectedZt@@YA_NH@Z ; gObjIsConnectedZt
  00013	83 c4 04	 add	 esp, 4
  00016	84 c0		 test	 al, al
  00018	0f 84 bd 03 00
	00		 je	 $LN2@FairyElf

; 687  : 	{
; 688  : 		return;
; 689  : 	}
; 690  : 
; 691  : 	LPOBJ lpUser = &gObj[UserIndex];

  0001e	69 f6 50 2b 00
	00		 imul	 esi, 11088		; 00002b50H
  00024	03 35 00 00 00
	00		 add	 esi, DWORD PTR ?gObj@@3PAUOBJECTSTRUCT@@A ; gObj
  0002a	53		 push	 ebx

; 692  : 
; 693  : 	CMagicInf *lpMagic;
; 694  : 
; 695  : 	//Buff
; 696  : 	if(lpUser->m_OfflineAutoBuff == true && lpUser->m_OfflineBuffTime == 0)

  0002b	80 be d9 28 00
	00 01		 cmp	 BYTE PTR [esi+10457], 1
  00032	57		 push	 edi
  00033	0f 85 cf 01 00
	00		 jne	 $LN71@FairyElf
  00039	80 be d8 28 00
	00 00		 cmp	 BYTE PTR [esi+10456], 0
  00040	0f 85 c2 01 00
	00		 jne	 $LN71@FairyElf

; 697  : 	{
; 698  : 		int partynum = -1;
; 699  : 		int partycount;
; 700  : 		int number = -1;
; 701  : 
; 702  : 		LPOBJ lpPartyObj;
; 703  : 
; 704  : 		partynum = lpUser->PartyNumber;

  00046	8b 86 2c 04 00
	00		 mov	 eax, DWORD PTR [esi+1068]

; 705  : 
; 706  : 		if(partynum != -1)

  0004c	83 f8 ff	 cmp	 eax, -1
  0004f	0f 84 23 01 00
	00		 je	 $LN52@FairyElf

; 707  : 		{
; 708  : 			partycount = gParty.m_PartyS[partynum].Count;
; 709  : 
; 710  : 			for(int j = 0; j < MAX_USER_IN_PARTY; j++)

  00055	6b c0 68	 imul	 eax, 104		; 00000068H
  00058	05 0c 00 00 00	 add	 eax, OFFSET ?gParty@@3VPartyClass@@A+12
  0005d	8b d8		 mov	 ebx, eax
  0005f	c7 45 fc 0a 00
	00 00		 mov	 DWORD PTR tv248[ebp], 10 ; 0000000aH
$LL76@FairyElf:

; 711  : 			{
; 712  : 				number = gParty.m_PartyS[partynum].Number[j];

  00066	8b 03		 mov	 eax, DWORD PTR [ebx]

; 713  : 
; 714  : 				if ( OBJMAX_RANGE(number) == TRUE )

  00068	85 c0		 test	 eax, eax
  0006a	0f 88 f7 00 00
	00		 js	 $LN50@FairyElf
  00070	33 c9		 xor	 ecx, ecx
  00072	3d 97 3a 00 00	 cmp	 eax, 14999		; 00003a97H
  00077	0f 9e c1	 setle	 cl
  0007a	83 f9 01	 cmp	 ecx, 1
  0007d	0f 85 e4 00 00
	00		 jne	 $LN50@FairyElf

; 715  : 				{
; 716  : 					lpPartyObj = &gObj[number];

  00083	69 c0 50 2b 00
	00		 imul	 eax, 11088		; 00002b50H
  00089	03 05 00 00 00
	00		 add	 eax, DWORD PTR ?gObj@@3PAUOBJECTSTRUCT@@A ; gObj
  0008f	8b f8		 mov	 edi, eax

; 717  : 
; 718  : 					if(lpUser->MapNumber == lpPartyObj->MapNumber)

  00091	8a 86 49 01 00
	00		 mov	 al, BYTE PTR [esi+329]
  00097	3a 87 49 01 00
	00		 cmp	 al, BYTE PTR [edi+329]
  0009d	0f 85 c4 00 00
	00		 jne	 $LN50@FairyElf

; 719  : 					{
; 720  : 						if(gObjCalDistance(lpUser, lpPartyObj) < 6)

  000a3	57		 push	 edi
  000a4	56		 push	 esi
  000a5	e8 00 00 00 00	 call	 ?gObjCalDistance@@YAHPAUOBJECTSTRUCT@@0@Z ; gObjCalDistance
  000aa	83 c4 08	 add	 esp, 8
  000ad	83 f8 06	 cmp	 eax, 6
  000b0	0f 8d b1 00 00
	00		 jge	 $LN50@FairyElf

; 721  : 						{
; 722  : 							//Defence Baf
; 723  : 							lpMagic = gObjGetMagicSearch(lpUser, 27);

  000b6	6a 1b		 push	 27			; 0000001bH
  000b8	56		 push	 esi
  000b9	e8 00 00 00 00	 call	 ?gObjGetMagicSearch@@YAPAVCMagicInf@@PAUOBJECTSTRUCT@@H@Z ; gObjGetMagicSearch
  000be	83 c4 08	 add	 esp, 8

; 724  : 							if(lpMagic != NULL) 

  000c1	85 c0		 test	 eax, eax
  000c3	74 09		 je	 SHORT $LN45@FairyElf

; 725  : 							{		
; 726  : 								gObjUseSkill.UseSkill(lpUser->m_Index, lpPartyObj->m_Index, lpMagic);

  000c5	8b 0f		 mov	 ecx, DWORD PTR [edi]
  000c7	8b 16		 mov	 edx, DWORD PTR [esi]
  000c9	50		 push	 eax
  000ca	51		 push	 ecx
  000cb	52		 push	 edx

; 727  : 							}
; 728  : 							else

  000cc	eb 19		 jmp	 SHORT $LN80@FairyElf
$LN45@FairyElf:

; 729  : 							{
; 730  : 								lpMagic = gObjGetMagicSearch(lpUser, 417);

  000ce	68 a1 01 00 00	 push	 417			; 000001a1H
  000d3	56		 push	 esi
  000d4	e8 00 00 00 00	 call	 ?gObjGetMagicSearch@@YAPAVCMagicInf@@PAUOBJECTSTRUCT@@H@Z ; gObjGetMagicSearch
  000d9	83 c4 08	 add	 esp, 8

; 731  : 								if(lpMagic != NULL) 

  000dc	85 c0		 test	 eax, eax
  000de	74 11		 je	 SHORT $LN67@FairyElf

; 732  : 								{		
; 733  : 									gObjUseSkill.UseSkill(lpUser->m_Index, lpPartyObj->m_Index, lpMagic);

  000e0	8b 0e		 mov	 ecx, DWORD PTR [esi]
  000e2	50		 push	 eax
  000e3	8b 07		 mov	 eax, DWORD PTR [edi]
  000e5	50		 push	 eax
  000e6	51		 push	 ecx
$LN80@FairyElf:
  000e7	b9 00 00 00 00	 mov	 ecx, OFFSET ?gObjUseSkill@@3VCObjUseSkill@@A ; gObjUseSkill
  000ec	e8 00 00 00 00	 call	 ?UseSkill@CObjUseSkill@@QAEXHHPAVCMagicInf@@@Z ; CObjUseSkill::UseSkill
$LN67@FairyElf:

; 734  : 								}
; 735  : 							}
; 736  : 							//Damage Baf
; 737  : 							lpMagic = gObjGetMagicSearch(lpUser, 28);

  000f1	6a 1c		 push	 28			; 0000001cH
  000f3	56		 push	 esi
  000f4	e8 00 00 00 00	 call	 ?gObjGetMagicSearch@@YAPAVCMagicInf@@PAUOBJECTSTRUCT@@H@Z ; gObjGetMagicSearch
  000f9	83 c4 08	 add	 esp, 8

; 738  : 							if(lpMagic != NULL) 

  000fc	85 c0		 test	 eax, eax
  000fe	74 09		 je	 SHORT $LN42@FairyElf

; 739  : 							{		
; 740  : 								gObjUseSkill.UseSkill(lpUser->m_Index, lpPartyObj->m_Index, lpMagic);

  00100	8b 17		 mov	 edx, DWORD PTR [edi]
  00102	50		 push	 eax
  00103	8b 06		 mov	 eax, DWORD PTR [esi]
  00105	52		 push	 edx
  00106	50		 push	 eax

; 741  : 							}
; 742  : 							else

  00107	eb 19		 jmp	 SHORT $LN81@FairyElf
$LN42@FairyElf:

; 743  : 							{
; 744  : 								lpMagic = gObjGetMagicSearch(lpUser, 420);

  00109	68 a4 01 00 00	 push	 420			; 000001a4H
  0010e	56		 push	 esi
  0010f	e8 00 00 00 00	 call	 ?gObjGetMagicSearch@@YAPAVCMagicInf@@PAUOBJECTSTRUCT@@H@Z ; gObjGetMagicSearch
  00114	83 c4 08	 add	 esp, 8

; 745  : 								if(lpMagic != NULL) 

  00117	85 c0		 test	 eax, eax
  00119	74 11		 je	 SHORT $LN40@FairyElf

; 746  : 								{		
; 747  : 									gObjUseSkill.UseSkill(lpUser->m_Index, lpPartyObj->m_Index, lpMagic);

  0011b	8b 0f		 mov	 ecx, DWORD PTR [edi]
  0011d	8b 16		 mov	 edx, DWORD PTR [esi]
  0011f	50		 push	 eax
  00120	51		 push	 ecx
  00121	52		 push	 edx
$LN81@FairyElf:
  00122	b9 00 00 00 00	 mov	 ecx, OFFSET ?gObjUseSkill@@3VCObjUseSkill@@A ; gObjUseSkill
  00127	e8 00 00 00 00	 call	 ?UseSkill@CObjUseSkill@@QAEXHHPAVCMagicInf@@@Z ; CObjUseSkill::UseSkill
$LN40@FairyElf:

; 748  : 								}
; 749  : 							}
; 750  : 							//Heal Baf
; 751  : 							lpMagic = gObjGetMagicSearch(lpUser, 26);

  0012c	6a 1a		 push	 26			; 0000001aH
  0012e	56		 push	 esi
  0012f	e8 00 00 00 00	 call	 ?gObjGetMagicSearch@@YAPAVCMagicInf@@PAUOBJECTSTRUCT@@H@Z ; gObjGetMagicSearch
  00134	83 c4 08	 add	 esp, 8

; 752  : 							if(lpMagic != NULL) 

  00137	85 c0		 test	 eax, eax
  00139	74 09		 je	 SHORT $LN39@FairyElf

; 753  : 							{		
; 754  : 								gObjUseSkill.UseSkill(lpUser->m_Index, lpPartyObj->m_Index, lpMagic);

  0013b	8b 0e		 mov	 ecx, DWORD PTR [esi]
  0013d	50		 push	 eax
  0013e	8b 07		 mov	 eax, DWORD PTR [edi]
  00140	50		 push	 eax
  00141	51		 push	 ecx

; 755  : 							}
; 756  : 							else

  00142	eb 19		 jmp	 SHORT $LN82@FairyElf
$LN39@FairyElf:

; 757  : 							{
; 758  : 								lpMagic = gObjGetMagicSearch(lpUser, 413);

  00144	68 9d 01 00 00	 push	 413			; 0000019dH
  00149	56		 push	 esi
  0014a	e8 00 00 00 00	 call	 ?gObjGetMagicSearch@@YAPAVCMagicInf@@PAUOBJECTSTRUCT@@H@Z ; gObjGetMagicSearch
  0014f	83 c4 08	 add	 esp, 8

; 759  : 								if(lpMagic != NULL) 

  00152	85 c0		 test	 eax, eax
  00154	74 11		 je	 SHORT $LN50@FairyElf

; 760  : 								{		
; 761  : 									gObjUseSkill.UseSkill(lpUser->m_Index, lpPartyObj->m_Index, lpMagic);

  00156	8b 17		 mov	 edx, DWORD PTR [edi]
  00158	50		 push	 eax
  00159	8b 06		 mov	 eax, DWORD PTR [esi]
  0015b	52		 push	 edx
  0015c	50		 push	 eax
$LN82@FairyElf:
  0015d	b9 00 00 00 00	 mov	 ecx, OFFSET ?gObjUseSkill@@3VCObjUseSkill@@A ; gObjUseSkill
  00162	e8 00 00 00 00	 call	 ?UseSkill@CObjUseSkill@@QAEXHHPAVCMagicInf@@@Z ; CObjUseSkill::UseSkill
$LN50@FairyElf:

; 707  : 		{
; 708  : 			partycount = gParty.m_PartyS[partynum].Count;
; 709  : 
; 710  : 			for(int j = 0; j < MAX_USER_IN_PARTY; j++)

  00167	83 c3 04	 add	 ebx, 4
  0016a	ff 4d fc	 dec	 DWORD PTR tv248[ebp]
  0016d	0f 85 f3 fe ff
	ff		 jne	 $LL76@FairyElf

; 762  : 								}
; 763  : 							}
; 764  : 						}
; 765  : 					}
; 766  : 				}
; 767  : 			}
; 768  : 		}
; 769  : 		else

  00173	e9 90 00 00 00	 jmp	 $LN71@FairyElf
$LN52@FairyElf:

; 770  : 		{
; 771  : 			//Defence Baf
; 772  : 			lpMagic = gObjGetMagicSearch(lpUser, 27);

  00178	6a 1b		 push	 27			; 0000001bH
  0017a	56		 push	 esi
  0017b	e8 00 00 00 00	 call	 ?gObjGetMagicSearch@@YAPAVCMagicInf@@PAUOBJECTSTRUCT@@H@Z ; gObjGetMagicSearch
  00180	83 c4 08	 add	 esp, 8

; 773  : 			if(lpMagic != NULL) 

  00183	85 c0		 test	 eax, eax

; 774  : 			{		
; 775  : 				gObjUseSkill.UseSkill(lpUser->m_Index, lpUser->m_Index, lpMagic);
; 776  : 			}
; 777  : 			else

  00185	75 12		 jne	 SHORT $LN83@FairyElf

; 778  : 			{
; 779  : 				lpMagic = gObjGetMagicSearch(lpUser, 417);

  00187	68 a1 01 00 00	 push	 417			; 000001a1H
  0018c	56		 push	 esi
  0018d	e8 00 00 00 00	 call	 ?gObjGetMagicSearch@@YAPAVCMagicInf@@PAUOBJECTSTRUCT@@H@Z ; gObjGetMagicSearch
  00192	83 c4 08	 add	 esp, 8

; 780  : 				if(lpMagic != NULL) 

  00195	85 c0		 test	 eax, eax
  00197	74 0f		 je	 SHORT $LN70@FairyElf
$LN83@FairyElf:

; 781  : 				{		
; 782  : 					gObjUseSkill.UseSkill(lpUser->m_Index, lpUser->m_Index, lpMagic);

  00199	8b 0e		 mov	 ecx, DWORD PTR [esi]
  0019b	50		 push	 eax
  0019c	51		 push	 ecx
  0019d	51		 push	 ecx
  0019e	b9 00 00 00 00	 mov	 ecx, OFFSET ?gObjUseSkill@@3VCObjUseSkill@@A ; gObjUseSkill
  001a3	e8 00 00 00 00	 call	 ?UseSkill@CObjUseSkill@@QAEXHHPAVCMagicInf@@@Z ; CObjUseSkill::UseSkill
$LN70@FairyElf:

; 783  : 				}
; 784  : 			}
; 785  : 			//Damage Baf
; 786  : 			lpMagic = gObjGetMagicSearch(lpUser, 28);

  001a8	6a 1c		 push	 28			; 0000001cH
  001aa	56		 push	 esi
  001ab	e8 00 00 00 00	 call	 ?gObjGetMagicSearch@@YAPAVCMagicInf@@PAUOBJECTSTRUCT@@H@Z ; gObjGetMagicSearch
  001b0	83 c4 08	 add	 esp, 8

; 787  : 			if(lpMagic != NULL) 

  001b3	85 c0		 test	 eax, eax

; 788  : 			{		
; 789  : 				gObjUseSkill.UseSkill(lpUser->m_Index, lpUser->m_Index, lpMagic);
; 790  : 			}
; 791  : 			else

  001b5	75 12		 jne	 SHORT $LN84@FairyElf

; 792  : 			{
; 793  : 				lpMagic = gObjGetMagicSearch(lpUser, 420);

  001b7	68 a4 01 00 00	 push	 420			; 000001a4H
  001bc	56		 push	 esi
  001bd	e8 00 00 00 00	 call	 ?gObjGetMagicSearch@@YAPAVCMagicInf@@PAUOBJECTSTRUCT@@H@Z ; gObjGetMagicSearch
  001c2	83 c4 08	 add	 esp, 8

; 794  : 				if(lpMagic != NULL) 

  001c5	85 c0		 test	 eax, eax
  001c7	74 0f		 je	 SHORT $LN77@FairyElf
$LN84@FairyElf:

; 795  : 				{		
; 796  : 					gObjUseSkill.UseSkill(lpUser->m_Index, lpUser->m_Index, lpMagic);

  001c9	8b 0e		 mov	 ecx, DWORD PTR [esi]
  001cb	50		 push	 eax
  001cc	51		 push	 ecx
  001cd	51		 push	 ecx
  001ce	b9 00 00 00 00	 mov	 ecx, OFFSET ?gObjUseSkill@@3VCObjUseSkill@@A ; gObjUseSkill
  001d3	e8 00 00 00 00	 call	 ?UseSkill@CObjUseSkill@@QAEXHHPAVCMagicInf@@@Z ; CObjUseSkill::UseSkill
$LN77@FairyElf:

; 797  : 				}
; 798  : 			}
; 799  : 			//Heal Baf
; 800  : 			lpMagic = gObjGetMagicSearch(lpUser, 26);

  001d8	6a 1a		 push	 26			; 0000001aH
  001da	56		 push	 esi
  001db	e8 00 00 00 00	 call	 ?gObjGetMagicSearch@@YAPAVCMagicInf@@PAUOBJECTSTRUCT@@H@Z ; gObjGetMagicSearch
  001e0	83 c4 08	 add	 esp, 8

; 801  : 			if(lpMagic != NULL) 

  001e3	85 c0		 test	 eax, eax

; 802  : 			{		
; 803  : 				gObjUseSkill.UseSkill(lpUser->m_Index, lpUser->m_Index, lpMagic);
; 804  : 			}
; 805  : 			else

  001e5	75 12		 jne	 SHORT $LN85@FairyElf

; 806  : 			{
; 807  : 				lpMagic = gObjGetMagicSearch(lpUser, 413);

  001e7	68 9d 01 00 00	 push	 413			; 0000019dH
  001ec	56		 push	 esi
  001ed	e8 00 00 00 00	 call	 ?gObjGetMagicSearch@@YAPAVCMagicInf@@PAUOBJECTSTRUCT@@H@Z ; gObjGetMagicSearch
  001f2	83 c4 08	 add	 esp, 8

; 808  : 				if(lpMagic != NULL) 

  001f5	85 c0		 test	 eax, eax
  001f7	74 0f		 je	 SHORT $LN71@FairyElf
$LN85@FairyElf:

; 809  : 				{		
; 810  : 					gObjUseSkill.UseSkill(lpUser->m_Index, lpUser->m_Index, lpMagic);

  001f9	8b 0e		 mov	 ecx, DWORD PTR [esi]
  001fb	50		 push	 eax
  001fc	51		 push	 ecx
  001fd	51		 push	 ecx
  001fe	b9 00 00 00 00	 mov	 ecx, OFFSET ?gObjUseSkill@@3VCObjUseSkill@@A ; gObjUseSkill
  00203	e8 00 00 00 00	 call	 ?UseSkill@CObjUseSkill@@QAEXHHPAVCMagicInf@@@Z ; CObjUseSkill::UseSkill
$LN71@FairyElf:

; 811  : 				}
; 812  : 			}
; 813  : 		}
; 814  : 	}
; 815  : 
; 816  : 	lpUser->m_OfflineBuffTime++;

  00208	fe 86 d8 28 00
	00		 inc	 BYTE PTR [esi+10456]

; 817  : 	if(lpUser->m_OfflineBuffTime >= OFFMAXTIME_FOR_BUFF)

  0020e	80 be d8 28 00
	00 14		 cmp	 BYTE PTR [esi+10456], 20 ; 00000014H
  00215	72 07		 jb	 SHORT $LN26@FairyElf

; 818  : 	{
; 819  : 		lpUser->m_OfflineBuffTime = 0;

  00217	c6 86 d8 28 00
	00 00		 mov	 BYTE PTR [esi+10456], 0
$LN26@FairyElf:

; 820  : 	}
; 821  : 
; 822  : 	lpMagic = gObjGetMagicSearch(lpUser, lpUser->m_OfflineSkill);

  0021e	0f b7 8e d6 28
	00 00		 movzx	 ecx, WORD PTR [esi+10454]
  00225	51		 push	 ecx
  00226	56		 push	 esi
  00227	e8 00 00 00 00	 call	 ?gObjGetMagicSearch@@YAPAVCMagicInf@@PAUOBJECTSTRUCT@@H@Z ; gObjGetMagicSearch
  0022c	8b f8		 mov	 edi, eax

; 823  : 
; 824  : 	if(!lpMagic)

  0022e	33 db		 xor	 ebx, ebx
  00230	83 c4 08	 add	 esp, 8
  00233	89 7d f0	 mov	 DWORD PTR _lpMagic$[ebp], edi
  00236	3b fb		 cmp	 edi, ebx
  00238	0f 84 9b 01 00
	00		 je	 $LN78@FairyElf

; 825  : 	{
; 826  : 		return;
; 827  : 	}
; 828  : 
; 829  : 	int tObjNum;
; 830  : 	int MaxDis = 0;
; 831  : 	int AttackCount = 0;
; 832  : 	int MaxCount = 7;
; 833  : 	int TargetIndex = -1;
; 834  : 
; 835  : 	if(lpUser->m_OfflineSkill == 24 || lpUser->m_OfflineSkill == 414 || lpUser->m_OfflineSkill == 418)

  0023e	0f b7 86 d6 28
	00 00		 movzx	 eax, WORD PTR [esi+10454]
  00245	89 5d fc	 mov	 DWORD PTR _MaxDis$[ebp], ebx
  00248	83 f8 18	 cmp	 eax, 24			; 00000018H
  0024b	74 36		 je	 SHORT $LN23@FairyElf
  0024d	ba 9e 01 00 00	 mov	 edx, 414		; 0000019eH
  00252	66 3b c2	 cmp	 ax, dx
  00255	74 2c		 je	 SHORT $LN23@FairyElf
  00257	b9 a2 01 00 00	 mov	 ecx, 418		; 000001a2H
  0025c	66 3b c1	 cmp	 ax, cx
  0025f	74 22		 je	 SHORT $LN23@FairyElf

; 838  : 	}
; 839  : 	else if(lpUser->m_OfflineSkill == 235)

  00261	ba eb 00 00 00	 mov	 edx, 235		; 000000ebH
  00266	66 3b c2	 cmp	 ax, dx

; 840  : 	{
; 841  : 		MaxDis = 6;

  00269	74 18		 je	 SHORT $LN23@FairyElf

; 842  : 	}
; 843  : 	else if(lpUser->m_OfflineSkill == 51 || lpUser->m_OfflineSkill == 424)

  0026b	83 f8 33	 cmp	 eax, 51			; 00000033H
  0026e	74 0a		 je	 SHORT $LN18@FairyElf
  00270	b9 a8 01 00 00	 mov	 ecx, 424		; 000001a8H
  00275	66 3b c1	 cmp	 ax, cx
  00278	75 10		 jne	 SHORT $LN19@FairyElf
$LN18@FairyElf:

; 844  : 	{
; 845  : 		MaxDis = 8;

  0027a	c7 45 fc 08 00
	00 00		 mov	 DWORD PTR _MaxDis$[ebp], 8
  00281	eb 07		 jmp	 SHORT $LN19@FairyElf
$LN23@FairyElf:

; 836  : 	{
; 837  : 		MaxDis = 6;

  00283	c7 45 fc 06 00
	00 00		 mov	 DWORD PTR _MaxDis$[ebp], 6
$LN19@FairyElf:

; 846  : 	}
; 847  : 
; 848  : 	// Multi Shot
; 849  : 	if( lpUser->m_OfflineSkill == 235)

  0028a	ba eb 00 00 00	 mov	 edx, 235		; 000000ebH
  0028f	66 3b c2	 cmp	 ax, dx
  00292	0f 85 d9 00 00
	00		 jne	 $LN17@FairyElf

; 850  : 	{
; 851  : 		for (int n=0;n<MAX_VIEWPORT_MONSTER;n++)

  00298	8d 8e ac 08 00
	00		 lea	 ecx, DWORD PTR [esi+2220]
  0029e	89 4d f8	 mov	 DWORD PTR tv672[ebp], ecx
  002a1	c7 45 f4 4b 00
	00 00		 mov	 DWORD PTR tv238[ebp], 75 ; 0000004bH
  002a8	eb 06 8d 9b 00
	00 00 00	 npad	 8
$LL16@FairyElf:

; 852  : 		{
; 853  : 			tObjNum = lpUser->VpPlayer2[n].number;
; 854  : 
; 855  : 			if(lpUser->VpPlayer2[n].state == 0)

  002b0	80 39 00	 cmp	 BYTE PTR [ecx], 0
  002b3	0f bf 41 02	 movsx	 eax, WORD PTR [ecx+2]
  002b7	74 75		 je	 SHORT $LN15@FairyElf

; 856  : 			{
; 857  : 				continue;
; 858  : 			}
; 859  : 			if (OBJMAX_RANGE(tObjNum) == FALSE)

  002b9	85 c0		 test	 eax, eax
  002bb	78 71		 js	 SHORT $LN15@FairyElf
  002bd	33 c9		 xor	 ecx, ecx
  002bf	3d 97 3a 00 00	 cmp	 eax, 14999		; 00003a97H
  002c4	0f 9e c1	 setle	 cl
  002c7	85 c9		 test	 ecx, ecx
  002c9	74 63		 je	 SHORT $LN15@FairyElf

; 860  : 			{
; 861  : 				continue;
; 862  : 			}
; 863  : 			if ( gObj[tObjNum].Type != OBJ_MONSTER )

  002cb	8b 0d 00 00 00
	00		 mov	 ecx, DWORD PTR ?gObj@@3PAUOBJECTSTRUCT@@A ; gObj
  002d1	8b f8		 mov	 edi, eax
  002d3	69 ff 50 2b 00
	00		 imul	 edi, 11088		; 00002b50H
  002d9	66 83 7c 0f 68
	02		 cmp	 WORD PTR [edi+ecx+104], 2
  002df	75 4d		 jne	 SHORT $LN15@FairyElf

; 864  : 			{
; 865  : 				continue;
; 866  : 			}
; 867  : 			if(g_ZtUser.InSafeZone(tObjNum) == true)

  002e1	50		 push	 eax
  002e2	b9 00 00 00 00	 mov	 ecx, OFFSET ?g_ZtUser@@3VZtUser@@A ; g_ZtUser
  002e7	e8 00 00 00 00	 call	 ?InSafeZone@ZtUser@@QAE_NH@Z ; ZtUser::InSafeZone
  002ec	3c 01		 cmp	 al, 1
  002ee	74 3e		 je	 SHORT $LN15@FairyElf

; 868  : 			{
; 869  : 				continue;
; 870  : 			}
; 871  : 			if(AttackCount >= MaxCount)

  002f0	83 fb 07	 cmp	 ebx, 7
  002f3	7d 39		 jge	 SHORT $LN15@FairyElf

; 872  : 			{
; 873  : 				continue;
; 874  : 			}
; 875  : 
; 876  : 			if(MaxDis >= gObjCalDistance(lpUser, &gObj[tObjNum]))

  002f5	8b 15 00 00 00
	00		 mov	 edx, DWORD PTR ?gObj@@3PAUOBJECTSTRUCT@@A ; gObj
  002fb	8d 04 17	 lea	 eax, DWORD PTR [edi+edx]
  002fe	50		 push	 eax
  002ff	56		 push	 esi
  00300	e8 00 00 00 00	 call	 ?gObjCalDistance@@YAHPAUOBJECTSTRUCT@@0@Z ; gObjCalDistance
  00305	83 c4 08	 add	 esp, 8
  00308	39 45 fc	 cmp	 DWORD PTR _MaxDis$[ebp], eax
  0030b	7c 21		 jl	 SHORT $LN15@FairyElf

; 877  : 			{
; 878  : 				TargetIndex = tObjNum;
; 879  : 				gObjAttack(lpUser, &gObj[tObjNum], lpMagic, FALSE, 1, 0, FALSE, 0, 0);

  0030d	8b 4d f0	 mov	 ecx, DWORD PTR _lpMagic$[ebp]
  00310	03 3d 00 00 00
	00		 add	 edi, DWORD PTR ?gObj@@3PAUOBJECTSTRUCT@@A ; gObj
  00316	6a 00		 push	 0
  00318	6a 00		 push	 0
  0031a	6a 00		 push	 0
  0031c	6a 00		 push	 0
  0031e	6a 01		 push	 1
  00320	6a 00		 push	 0
  00322	51		 push	 ecx
  00323	57		 push	 edi
  00324	56		 push	 esi
  00325	e8 00 00 00 00	 call	 ?gObjAttack@@YAHPAUOBJECTSTRUCT@@0PAVCMagicInf@@HEHHEE@Z ; gObjAttack
  0032a	83 c4 24	 add	 esp, 36			; 00000024H

; 880  : 				AttackCount++;

  0032d	43		 inc	 ebx
$LN15@FairyElf:

; 850  : 	{
; 851  : 		for (int n=0;n<MAX_VIEWPORT_MONSTER;n++)

  0032e	8b 4d f8	 mov	 ecx, DWORD PTR tv672[ebp]
  00331	83 c1 0c	 add	 ecx, 12			; 0000000cH
  00334	ff 4d f4	 dec	 DWORD PTR tv238[ebp]
  00337	89 4d f8	 mov	 DWORD PTR tv672[ebp], ecx
  0033a	0f 85 70 ff ff
	ff		 jne	 $LL16@FairyElf

; 881  : 			}
; 882  : 		}
; 883  : 		gObjUseSkill.UseSkill(UserIndex, lpMagic,lpUser->X, lpUser->Y,0,0,-1);

  00340	0f b6 86 46 01
	00 00		 movzx	 eax, BYTE PTR [esi+326]
  00347	0f b6 8e 44 01
	00 00		 movzx	 ecx, BYTE PTR [esi+324]
  0034e	8b 55 f0	 mov	 edx, DWORD PTR _lpMagic$[ebp]
  00351	6a ff		 push	 -1
  00353	6a 00		 push	 0
  00355	6a 00		 push	 0
  00357	50		 push	 eax
  00358	8b 45 08	 mov	 eax, DWORD PTR _UserIndex$[ebp]
  0035b	51		 push	 ecx
  0035c	52		 push	 edx
  0035d	50		 push	 eax
  0035e	b9 00 00 00 00	 mov	 ecx, OFFSET ?gObjUseSkill@@3VCObjUseSkill@@A ; gObjUseSkill
  00363	e8 00 00 00 00	 call	 ?UseSkill@CObjUseSkill@@QAEXHPAVCMagicInf@@EEEEH@Z ; CObjUseSkill::UseSkill
  00368	5f		 pop	 edi
  00369	5b		 pop	 ebx
  0036a	5e		 pop	 esi

; 910  : 	}
; 911  : }

  0036b	8b e5		 mov	 esp, ebp
  0036d	5d		 pop	 ebp
  0036e	c2 04 00	 ret	 4
$LN17@FairyElf:

; 884  : 	}
; 885  : 	// Triple Shot
; 886  : 	else if(lpUser->m_OfflineSkill == 24	|| 
; 887  : 			lpUser->m_OfflineSkill == 51	||
; 888  : 			lpUser->m_OfflineSkill == 414	|| 
; 889  : 			lpUser->m_OfflineSkill == 418	||
; 890  : 			lpUser->m_OfflineSkill == 424)

  00371	83 f8 18	 cmp	 eax, 24			; 00000018H
  00374	74 23		 je	 SHORT $LN5@FairyElf
  00376	83 f8 33	 cmp	 eax, 51			; 00000033H
  00379	74 1e		 je	 SHORT $LN5@FairyElf
  0037b	b9 9e 01 00 00	 mov	 ecx, 414		; 0000019eH
  00380	66 3b c1	 cmp	 ax, cx
  00383	74 14		 je	 SHORT $LN5@FairyElf
  00385	ba a2 01 00 00	 mov	 edx, 418		; 000001a2H
  0038a	66 3b c2	 cmp	 ax, dx
  0038d	74 0a		 je	 SHORT $LN5@FairyElf
  0038f	b9 a8 01 00 00	 mov	 ecx, 424		; 000001a8H
  00394	66 3b c1	 cmp	 ax, cx
  00397	75 40		 jne	 SHORT $LN78@FairyElf
$LN5@FairyElf:

; 891  : 	{
; 892  : 		TargetIndex = this->SearchTarget(UserIndex, MaxDis);

  00399	8b 55 fc	 mov	 edx, DWORD PTR _MaxDis$[ebp]
  0039c	8b 45 08	 mov	 eax, DWORD PTR _UserIndex$[ebp]
  0039f	8b 4d f4	 mov	 ecx, DWORD PTR _this$[ebp]
  003a2	52		 push	 edx
  003a3	50		 push	 eax
  003a4	e8 00 00 00 00	 call	 ?SearchTarget@OfflineMode@@QAEHHH@Z ; OfflineMode::SearchTarget

; 893  : 
; 894  : 		if(TargetIndex == -1) 

  003a9	83 f8 ff	 cmp	 eax, -1
  003ac	74 2b		 je	 SHORT $LN78@FairyElf

; 895  : 		{
; 896  : 			return;
; 897  : 		}
; 898  : 		if(TargetIndex < 0 || TargetIndex > OBJMAX-1)

  003ae	3d 97 3a 00 00	 cmp	 eax, 14999		; 00003a97H
  003b3	77 24		 ja	 SHORT $LN78@FairyElf

; 899  : 		{
; 900  : 			return;
; 901  : 		}
; 902  : 		if(gObj[TargetIndex].Connected < PLAYER_PLAYING)

  003b5	8b 15 00 00 00
	00		 mov	 edx, DWORD PTR ?gObj@@3PAUOBJECTSTRUCT@@A ; gObj
  003bb	8b c8		 mov	 ecx, eax
  003bd	69 c9 50 2b 00
	00		 imul	 ecx, 11088		; 00002b50H
  003c3	83 7c 11 04 03	 cmp	 DWORD PTR [ecx+edx+4], 3
  003c8	7c 0f		 jl	 SHORT $LN78@FairyElf

; 903  : 		{
; 904  : 			return;
; 905  : 		}
; 906  : 
; 907  : 		LPOBJ lpMonster = &gObj[TargetIndex];
; 908  : 
; 909  : 		gObjUseSkill.UseSkill(lpUser->m_Index,TargetIndex,lpMagic);

  003ca	57		 push	 edi
  003cb	50		 push	 eax
  003cc	8b 06		 mov	 eax, DWORD PTR [esi]
  003ce	50		 push	 eax
  003cf	b9 00 00 00 00	 mov	 ecx, OFFSET ?gObjUseSkill@@3VCObjUseSkill@@A ; gObjUseSkill
  003d4	e8 00 00 00 00	 call	 ?UseSkill@CObjUseSkill@@QAEXHHPAVCMagicInf@@@Z ; CObjUseSkill::UseSkill
$LN78@FairyElf:
  003d9	5f		 pop	 edi
  003da	5b		 pop	 ebx
$LN2@FairyElf:
  003db	5e		 pop	 esi

; 910  : 	}
; 911  : }

  003dc	8b e5		 mov	 esp, ebp
  003de	5d		 pop	 ebp
  003df	c2 04 00	 ret	 4
?FairyElf@OfflineMode@@QAEXH@Z ENDP			; OfflineMode::FairyElf
_TEXT	ENDS
PUBLIC	?DarkLord@OfflineMode@@QAEXH@Z			; OfflineMode::DarkLord
; Function compile flags: /Ogtp
;	COMDAT ?DarkLord@OfflineMode@@QAEXH@Z
_TEXT	SEGMENT
_lpMagic$ = -8						; size = 4
tv77 = -4						; size = 4
_this$ = -4						; size = 4
_MaxDis$ = 8						; size = 4
_UserIndex$ = 8						; size = 4
?DarkLord@OfflineMode@@QAEXH@Z PROC			; OfflineMode::DarkLord, COMDAT
; _this$ = ecx

; 999  : {

  00000	55		 push	 ebp
  00001	8b ec		 mov	 ebp, esp
  00003	83 ec 08	 sub	 esp, 8
  00006	57		 push	 edi

; 1000 : 	if(!gObjIsConnectedZt(UserIndex))

  00007	8b 7d 08	 mov	 edi, DWORD PTR _UserIndex$[ebp]
  0000a	57		 push	 edi
  0000b	89 4d fc	 mov	 DWORD PTR _this$[ebp], ecx
  0000e	e8 00 00 00 00	 call	 ?gObjIsConnectedZt@@YA_NH@Z ; gObjIsConnectedZt
  00013	83 c4 04	 add	 esp, 4
  00016	84 c0		 test	 al, al
  00018	0f 84 f9 01 00
	00		 je	 $LN13@DarkLord

; 1001 : 	{
; 1002 : 		return;
; 1003 : 	}
; 1004 : 
; 1005 : 	LPOBJ lpUser = &gObj[UserIndex];

  0001e	56		 push	 esi
  0001f	8b f7		 mov	 esi, edi
  00021	69 f6 50 2b 00
	00		 imul	 esi, 11088		; 00002b50H
  00027	03 35 00 00 00
	00		 add	 esi, DWORD PTR ?gObj@@3PAUOBJECTSTRUCT@@A ; gObj

; 1006 : 
; 1007 : 	CMagicInf * lpMagic;
; 1008 : 	int MaxDis = 0;

  0002d	c7 45 08 00 00
	00 00		 mov	 DWORD PTR _MaxDis$[ebp], 0

; 1009 : 
; 1010 : 	if(lpUser->m_OfflineSkill == 61 || lpUser->m_OfflineSkill == 78)

  00034	0f b7 86 d6 28
	00 00		 movzx	 eax, WORD PTR [esi+10454]
  0003b	83 f8 3d	 cmp	 eax, 61			; 0000003dH
  0003e	74 18		 je	 SHORT $LN26@DarkLord
  00040	83 f8 4e	 cmp	 eax, 78			; 0000004eH
  00043	74 13		 je	 SHORT $LN26@DarkLord

; 1013 : 	}
; 1014 : 	else if(lpUser->m_OfflineSkill == 238)

  00045	b9 ee 00 00 00	 mov	 ecx, 238		; 000000eeH
  0004a	66 3b c1	 cmp	 ax, cx
  0004d	75 10		 jne	 SHORT $LN24@DarkLord

; 1015 : 	{
; 1016 : 		MaxDis = 4;

  0004f	c7 45 08 04 00
	00 00		 mov	 DWORD PTR _MaxDis$[ebp], 4
  00056	eb 07		 jmp	 SHORT $LN24@DarkLord
$LN26@DarkLord:

; 1011 : 	{
; 1012 : 		MaxDis = 6;

  00058	c7 45 08 06 00
	00 00		 mov	 DWORD PTR _MaxDis$[ebp], 6
$LN24@DarkLord:

; 1017 : 	}
; 1018 : 
; 1019 : 	// Critical Buff
; 1020 : 	if(lpUser->m_OfflineAutoBuff == true && lpUser->m_OfflineBuffTime == 0)

  0005f	80 be d9 28 00
	00 01		 cmp	 BYTE PTR [esi+10457], 1
  00066	75 39		 jne	 SHORT $LN20@DarkLord
  00068	80 be d8 28 00
	00 00		 cmp	 BYTE PTR [esi+10456], 0
  0006f	75 30		 jne	 SHORT $LN20@DarkLord

; 1021 : 	{
; 1022 : 		lpMagic = gObjGetMagicSearch(lpUser, 64);

  00071	6a 40		 push	 64			; 00000040H
  00073	56		 push	 esi
  00074	e8 00 00 00 00	 call	 ?gObjGetMagicSearch@@YAPAVCMagicInf@@PAUOBJECTSTRUCT@@H@Z ; gObjGetMagicSearch
  00079	83 c4 08	 add	 esp, 8

; 1023 : 		if(lpMagic != NULL) 

  0007c	85 c0		 test	 eax, eax

; 1024 : 		{		
; 1025 : 			gObjUseSkill.UseSkill(lpUser->m_Index, lpUser->m_Index, lpMagic);
; 1026 : 		}
; 1027 : 		else

  0007e	75 12		 jne	 SHORT $LN38@DarkLord

; 1028 : 		{
; 1029 : 			lpMagic = gObjGetMagicSearch(lpUser, 511);

  00080	68 ff 01 00 00	 push	 511			; 000001ffH
  00085	56		 push	 esi
  00086	e8 00 00 00 00	 call	 ?gObjGetMagicSearch@@YAPAVCMagicInf@@PAUOBJECTSTRUCT@@H@Z ; gObjGetMagicSearch
  0008b	83 c4 08	 add	 esp, 8

; 1030 : 			if(lpMagic != NULL) 

  0008e	85 c0		 test	 eax, eax
  00090	74 0f		 je	 SHORT $LN20@DarkLord
$LN38@DarkLord:

; 1031 : 			{		
; 1032 : 				gObjUseSkill.UseSkill(lpUser->m_Index, lpUser->m_Index, lpMagic);

  00092	8b 0e		 mov	 ecx, DWORD PTR [esi]
  00094	50		 push	 eax
  00095	51		 push	 ecx
  00096	51		 push	 ecx
  00097	b9 00 00 00 00	 mov	 ecx, OFFSET ?gObjUseSkill@@3VCObjUseSkill@@A ; gObjUseSkill
  0009c	e8 00 00 00 00	 call	 ?UseSkill@CObjUseSkill@@QAEXHHPAVCMagicInf@@@Z ; CObjUseSkill::UseSkill
$LN20@DarkLord:

; 1033 : 			}
; 1034 : 		}
; 1035 : 	}
; 1036 : 
; 1037 : 	lpUser->m_OfflineBuffTime++;

  000a1	fe 86 d8 28 00
	00		 inc	 BYTE PTR [esi+10456]

; 1038 : 	if(lpUser->m_OfflineBuffTime >= OFFMAXTIME_FOR_BUFF)

  000a7	80 be d8 28 00
	00 14		 cmp	 BYTE PTR [esi+10456], 20 ; 00000014H
  000ae	72 07		 jb	 SHORT $LN19@DarkLord

; 1039 : 	{
; 1040 : 		lpUser->m_OfflineBuffTime = 0;

  000b0	c6 86 d8 28 00
	00 00		 mov	 BYTE PTR [esi+10456], 0
$LN19@DarkLord:

; 1041 : 	}
; 1042 : 
; 1043 : 	lpMagic = gObjGetMagicSearch(lpUser, lpUser->m_OfflineSkill);

  000b7	0f b7 96 d6 28
	00 00		 movzx	 edx, WORD PTR [esi+10454]
  000be	53		 push	 ebx
  000bf	52		 push	 edx
  000c0	56		 push	 esi
  000c1	e8 00 00 00 00	 call	 ?gObjGetMagicSearch@@YAPAVCMagicInf@@PAUOBJECTSTRUCT@@H@Z ; gObjGetMagicSearch
  000c6	8b d8		 mov	 ebx, eax
  000c8	83 c4 08	 add	 esp, 8
  000cb	89 5d f8	 mov	 DWORD PTR _lpMagic$[ebp], ebx

; 1044 : 
; 1045 : 	if(!lpMagic)

  000ce	85 db		 test	 ebx, ebx
  000d0	0f 84 3f 01 00
	00		 je	 $LN37@DarkLord

; 1046 : 	{
; 1047 : 		return;
; 1048 : 	}
; 1049 : 
; 1050 : 	if( lpUser->m_OfflineSkill == 61 || 
; 1051 : 		lpUser->m_OfflineSkill == 508 || 
; 1052 : 		lpUser->m_OfflineSkill == 514 || 
; 1053 : 		lpUser->m_OfflineSkill == 238)

  000d6	0f b7 86 d6 28
	00 00		 movzx	 eax, WORD PTR [esi+10454]
  000dd	83 f8 3d	 cmp	 eax, 61			; 0000003dH
  000e0	0f 84 f4 00 00
	00		 je	 $LN16@DarkLord
  000e6	b9 fc 01 00 00	 mov	 ecx, 508		; 000001fcH
  000eb	66 3b c1	 cmp	 ax, cx
  000ee	0f 84 e6 00 00
	00		 je	 $LN16@DarkLord
  000f4	ba 02 02 00 00	 mov	 edx, 514		; 00000202H
  000f9	66 3b c2	 cmp	 ax, dx
  000fc	0f 84 d8 00 00
	00		 je	 $LN16@DarkLord
  00102	b9 ee 00 00 00	 mov	 ecx, 238		; 000000eeH
  00107	66 3b c1	 cmp	 ax, cx
  0010a	0f 84 ca 00 00
	00		 je	 $LN16@DarkLord

; 1071 : 	}
; 1072 : 	else if(lpUser->m_OfflineSkill == 78 || lpUser->m_OfflineSkill == 518)

  00110	83 f8 4e	 cmp	 eax, 78			; 0000004eH
  00113	74 0e		 je	 SHORT $LN9@DarkLord
  00115	ba 06 02 00 00	 mov	 edx, 518		; 00000206H
  0011a	66 3b c2	 cmp	 ax, dx
  0011d	0f 85 f2 00 00
	00		 jne	 $LN37@DarkLord
$LN9@DarkLord:

; 1073 : 	{
; 1074 : 		gObjUseSkill.UseSkill(UserIndex, lpMagic, lpUser->X, lpUser->Y, 0, 0, -1);

  00123	0f b6 86 46 01
	00 00		 movzx	 eax, BYTE PTR [esi+326]
  0012a	0f b6 8e 44 01
	00 00		 movzx	 ecx, BYTE PTR [esi+324]
  00131	6a ff		 push	 -1
  00133	6a 00		 push	 0
  00135	6a 00		 push	 0
  00137	50		 push	 eax
  00138	51		 push	 ecx
  00139	53		 push	 ebx
  0013a	57		 push	 edi
  0013b	b9 00 00 00 00	 mov	 ecx, OFFSET ?gObjUseSkill@@3VCObjUseSkill@@A ; gObjUseSkill
  00140	e8 00 00 00 00	 call	 ?UseSkill@CObjUseSkill@@QAEXHPAVCMagicInf@@EEEEH@Z ; CObjUseSkill::UseSkill
  00145	8d 9e ac 08 00
	00		 lea	 ebx, DWORD PTR [esi+2220]
  0014b	c7 45 fc 4b 00
	00 00		 mov	 DWORD PTR tv77[ebp], 75	; 0000004bH
$LL8@DarkLord:

; 1077 : 		{
; 1078 : 			int tObjNum = lpUser->VpPlayer2[n].number;
; 1079 : 
; 1080 : 			if(lpUser->VpPlayer2[n].state == 0)

  00152	80 3b 00	 cmp	 BYTE PTR [ebx], 0
  00155	0f bf 43 02	 movsx	 eax, WORD PTR [ebx+2]
  00159	74 6e		 je	 SHORT $LN7@DarkLord

; 1081 : 			{
; 1082 : 				continue;
; 1083 : 			}
; 1084 : 			if (OBJMAX_RANGE(tObjNum) == FALSE)

  0015b	85 c0		 test	 eax, eax
  0015d	78 6a		 js	 SHORT $LN7@DarkLord
  0015f	33 c9		 xor	 ecx, ecx
  00161	3d 97 3a 00 00	 cmp	 eax, 14999		; 00003a97H
  00166	0f 9e c1	 setle	 cl
  00169	85 c9		 test	 ecx, ecx
  0016b	74 5c		 je	 SHORT $LN7@DarkLord

; 1085 : 			{
; 1086 : 				continue;
; 1087 : 			}
; 1088 : 			if ( gObj[tObjNum].Type != OBJ_MONSTER )

  0016d	8b 15 00 00 00
	00		 mov	 edx, DWORD PTR ?gObj@@3PAUOBJECTSTRUCT@@A ; gObj
  00173	8b f8		 mov	 edi, eax
  00175	69 ff 50 2b 00
	00		 imul	 edi, 11088		; 00002b50H
  0017b	66 83 7c 17 68
	02		 cmp	 WORD PTR [edi+edx+104], 2
  00181	75 46		 jne	 SHORT $LN7@DarkLord

; 1089 : 			{
; 1090 : 				continue;
; 1091 : 			}
; 1092 : 			if(g_ZtUser.InSafeZone(tObjNum) == true)

  00183	50		 push	 eax
  00184	b9 00 00 00 00	 mov	 ecx, OFFSET ?g_ZtUser@@3VZtUser@@A ; g_ZtUser
  00189	e8 00 00 00 00	 call	 ?InSafeZone@ZtUser@@QAE_NH@Z ; ZtUser::InSafeZone
  0018e	3c 01		 cmp	 al, 1
  00190	74 37		 je	 SHORT $LN7@DarkLord

; 1093 : 			{
; 1094 : 				continue;
; 1095 : 			}
; 1096 : 			if(MaxDis >= gObjCalDistance(lpUser, &gObj[tObjNum]))

  00192	a1 00 00 00 00	 mov	 eax, DWORD PTR ?gObj@@3PAUOBJECTSTRUCT@@A ; gObj
  00197	8d 0c 07	 lea	 ecx, DWORD PTR [edi+eax]
  0019a	51		 push	 ecx
  0019b	56		 push	 esi
  0019c	e8 00 00 00 00	 call	 ?gObjCalDistance@@YAHPAUOBJECTSTRUCT@@0@Z ; gObjCalDistance
  001a1	83 c4 08	 add	 esp, 8
  001a4	39 45 08	 cmp	 DWORD PTR _MaxDis$[ebp], eax
  001a7	7c 20		 jl	 SHORT $LN7@DarkLord

; 1097 : 			{
; 1098 : 				gObjAttack(lpUser, &gObj[tObjNum], lpMagic, FALSE, 1, 0, FALSE, 0, 0);

  001a9	8b 55 f8	 mov	 edx, DWORD PTR _lpMagic$[ebp]
  001ac	03 3d 00 00 00
	00		 add	 edi, DWORD PTR ?gObj@@3PAUOBJECTSTRUCT@@A ; gObj
  001b2	6a 00		 push	 0
  001b4	6a 00		 push	 0
  001b6	6a 00		 push	 0
  001b8	6a 00		 push	 0
  001ba	6a 01		 push	 1
  001bc	6a 00		 push	 0
  001be	52		 push	 edx
  001bf	57		 push	 edi
  001c0	56		 push	 esi
  001c1	e8 00 00 00 00	 call	 ?gObjAttack@@YAHPAUOBJECTSTRUCT@@0PAVCMagicInf@@HEHHEE@Z ; gObjAttack
  001c6	83 c4 24	 add	 esp, 36			; 00000024H
$LN7@DarkLord:

; 1075 : 
; 1076 : 		for (int n=0;n<MAX_VIEWPORT_MONSTER;n++)

  001c9	83 c3 0c	 add	 ebx, 12			; 0000000cH
  001cc	ff 4d fc	 dec	 DWORD PTR tv77[ebp]
  001cf	75 81		 jne	 SHORT $LL8@DarkLord
  001d1	5b		 pop	 ebx
  001d2	5e		 pop	 esi
  001d3	5f		 pop	 edi

; 1099 : 			}
; 1100 : 		}
; 1101 : 	}
; 1102 : 
; 1103 : }

  001d4	8b e5		 mov	 esp, ebp
  001d6	5d		 pop	 ebp
  001d7	c2 04 00	 ret	 4
$LN16@DarkLord:

; 1054 : 	{
; 1055 : 		int TargetIndex = this->SearchTarget(UserIndex, 6);

  001da	8b 4d fc	 mov	 ecx, DWORD PTR _this$[ebp]
  001dd	6a 06		 push	 6
  001df	57		 push	 edi
  001e0	e8 00 00 00 00	 call	 ?SearchTarget@OfflineMode@@QAEHHH@Z ; OfflineMode::SearchTarget

; 1056 : 
; 1057 : 		if(TargetIndex == -1) 

  001e5	83 f8 ff	 cmp	 eax, -1
  001e8	74 2b		 je	 SHORT $LN37@DarkLord

; 1058 : 		{
; 1059 : 			return;
; 1060 : 		}
; 1061 : 		if ( TargetIndex < 0 || TargetIndex > OBJMAX-1)

  001ea	3d 97 3a 00 00	 cmp	 eax, 14999		; 00003a97H
  001ef	77 24		 ja	 SHORT $LN37@DarkLord

; 1062 : 		{
; 1063 : 			return;
; 1064 : 		}
; 1065 : 		if ( gObj[TargetIndex].Connected < PLAYER_PLAYING )

  001f1	8b 15 00 00 00
	00		 mov	 edx, DWORD PTR ?gObj@@3PAUOBJECTSTRUCT@@A ; gObj
  001f7	8b c8		 mov	 ecx, eax
  001f9	69 c9 50 2b 00
	00		 imul	 ecx, 11088		; 00002b50H
  001ff	83 7c 11 04 03	 cmp	 DWORD PTR [ecx+edx+4], 3
  00204	7c 0f		 jl	 SHORT $LN37@DarkLord

; 1066 : 		{
; 1067 : 			return;
; 1068 : 		}
; 1069 : 
; 1070 : 		gObjUseSkill.UseSkill(lpUser->m_Index, TargetIndex, lpMagic);

  00206	53		 push	 ebx
  00207	50		 push	 eax
  00208	8b 06		 mov	 eax, DWORD PTR [esi]
  0020a	50		 push	 eax
  0020b	b9 00 00 00 00	 mov	 ecx, OFFSET ?gObjUseSkill@@3VCObjUseSkill@@A ; gObjUseSkill
  00210	e8 00 00 00 00	 call	 ?UseSkill@CObjUseSkill@@QAEXHHPAVCMagicInf@@@Z ; CObjUseSkill::UseSkill
$LN37@DarkLord:
  00215	5b		 pop	 ebx
  00216	5e		 pop	 esi
$LN13@DarkLord:
  00217	5f		 pop	 edi

; 1099 : 			}
; 1100 : 		}
; 1101 : 	}
; 1102 : 
; 1103 : }

  00218	8b e5		 mov	 esp, ebp
  0021a	5d		 pop	 ebp
  0021b	c2 04 00	 ret	 4
?DarkLord@OfflineMode@@QAEXH@Z ENDP			; OfflineMode::DarkLord
_TEXT	ENDS
PUBLIC	?Summoner@OfflineMode@@QAEXH@Z			; OfflineMode::Summoner
; Function compile flags: /Ogtp
;	COMDAT ?Summoner@OfflineMode@@QAEXH@Z
_TEXT	SEGMENT
_lpMagic$ = -8						; size = 4
_this$ = -4						; size = 4
tv71 = 8						; size = 4
_UserIndex$ = 8						; size = 4
?Summoner@OfflineMode@@QAEXH@Z PROC			; OfflineMode::Summoner, COMDAT
; _this$ = ecx

; 1107 : {

  00000	55		 push	 ebp
  00001	8b ec		 mov	 ebp, esp
  00003	83 ec 08	 sub	 esp, 8
  00006	57		 push	 edi

; 1108 : 	if(!gObjIsConnectedZt(UserIndex))

  00007	8b 7d 08	 mov	 edi, DWORD PTR _UserIndex$[ebp]
  0000a	57		 push	 edi
  0000b	89 4d fc	 mov	 DWORD PTR _this$[ebp], ecx
  0000e	e8 00 00 00 00	 call	 ?gObjIsConnectedZt@@YA_NH@Z ; gObjIsConnectedZt
  00013	83 c4 04	 add	 esp, 4
  00016	84 c0		 test	 al, al
  00018	0f 84 63 02 00
	00		 je	 $LN20@Summoner

; 1109 : 	{
; 1110 : 		return;
; 1111 : 	}
; 1112 : 
; 1113 : 	LPOBJ lpUser = &gObj[UserIndex];

  0001e	56		 push	 esi
  0001f	8b f7		 mov	 esi, edi
  00021	69 f6 50 2b 00
	00		 imul	 esi, 11088		; 00002b50H
  00027	03 35 00 00 00
	00		 add	 esi, DWORD PTR ?gObj@@3PAUOBJECTSTRUCT@@A ; gObj

; 1114 : 
; 1115 : 	CMagicInf * lpMagic;
; 1116 : 
; 1117 : 	int MaxDis = 6;
; 1118 : 
; 1119 : 	// Bersaker Buff
; 1120 : 	if(lpUser->m_OfflineAutoBuff == true && lpUser->m_OfflineBuffTime == 0)

  0002d	80 be d9 28 00
	00 01		 cmp	 BYTE PTR [esi+10457], 1
  00034	75 3c		 jne	 SHORT $LN39@Summoner
  00036	80 be d8 28 00
	00 00		 cmp	 BYTE PTR [esi+10456], 0
  0003d	75 33		 jne	 SHORT $LN39@Summoner

; 1121 : 	{
; 1122 : 		lpMagic = gObjGetMagicSearch(lpUser, 218);

  0003f	68 da 00 00 00	 push	 218			; 000000daH
  00044	56		 push	 esi
  00045	e8 00 00 00 00	 call	 ?gObjGetMagicSearch@@YAPAVCMagicInf@@PAUOBJECTSTRUCT@@H@Z ; gObjGetMagicSearch
  0004a	83 c4 08	 add	 esp, 8

; 1123 : 		if(lpMagic != NULL) 

  0004d	85 c0		 test	 eax, eax

; 1124 : 		{		
; 1125 : 			gObjUseSkill.UseSkill(lpUser->m_Index, lpUser->m_Index, lpMagic);
; 1126 : 		}
; 1127 : 		else

  0004f	75 12		 jne	 SHORT $LN42@Summoner

; 1128 : 		{
; 1129 : 			lpMagic = gObjGetMagicSearch(lpUser, 469);

  00051	68 d5 01 00 00	 push	 469			; 000001d5H
  00056	56		 push	 esi
  00057	e8 00 00 00 00	 call	 ?gObjGetMagicSearch@@YAPAVCMagicInf@@PAUOBJECTSTRUCT@@H@Z ; gObjGetMagicSearch
  0005c	83 c4 08	 add	 esp, 8

; 1130 : 			if(lpMagic != NULL) 

  0005f	85 c0		 test	 eax, eax
  00061	74 0f		 je	 SHORT $LN39@Summoner
$LN42@Summoner:

; 1131 : 			{		
; 1132 : 				gObjUseSkill.UseSkill(lpUser->m_Index, lpUser->m_Index, lpMagic);

  00063	8b 0e		 mov	 ecx, DWORD PTR [esi]
  00065	50		 push	 eax
  00066	51		 push	 ecx
  00067	51		 push	 ecx
  00068	b9 00 00 00 00	 mov	 ecx, OFFSET ?gObjUseSkill@@3VCObjUseSkill@@A ; gObjUseSkill
  0006d	e8 00 00 00 00	 call	 ?UseSkill@CObjUseSkill@@QAEXHHPAVCMagicInf@@@Z ; CObjUseSkill::UseSkill
$LN39@Summoner:

; 1133 : 			}
; 1134 : 		}
; 1135 : 	}
; 1136 : 
; 1137 : 	lpUser->m_OfflineBuffTime++;

  00072	fe 86 d8 28 00
	00		 inc	 BYTE PTR [esi+10456]

; 1138 : 	if(lpUser->m_OfflineBuffTime >= OFFMAXTIME_FOR_BUFF)

  00078	80 be d8 28 00
	00 14		 cmp	 BYTE PTR [esi+10456], 20 ; 00000014H
  0007f	72 07		 jb	 SHORT $LN26@Summoner

; 1139 : 	{
; 1140 : 		lpUser->m_OfflineBuffTime = 0;

  00081	c6 86 d8 28 00
	00 00		 mov	 BYTE PTR [esi+10456], 0
$LN26@Summoner:

; 1141 : 	}
; 1142 : 
; 1143 : 	lpMagic = gObjGetMagicSearch(lpUser, lpUser->m_OfflineSkill);

  00088	0f b7 86 d6 28
	00 00		 movzx	 eax, WORD PTR [esi+10454]
  0008f	53		 push	 ebx
  00090	50		 push	 eax
  00091	56		 push	 esi
  00092	e8 00 00 00 00	 call	 ?gObjGetMagicSearch@@YAPAVCMagicInf@@PAUOBJECTSTRUCT@@H@Z ; gObjGetMagicSearch
  00097	8b d8		 mov	 ebx, eax
  00099	83 c4 08	 add	 esp, 8
  0009c	89 5d f8	 mov	 DWORD PTR _lpMagic$[ebp], ebx

; 1144 : 
; 1145 : 	if(!lpMagic)

  0009f	85 db		 test	 ebx, ebx
  000a1	0f 84 d8 01 00
	00		 je	 $LN41@Summoner

; 1146 : 	{
; 1147 : 		return;
; 1148 : 	}
; 1149 : 
; 1150 : 	if(lpUser->m_OfflineSkill == 230 || lpUser->m_OfflineSkill == 456)

  000a7	0f b7 86 d6 28
	00 00		 movzx	 eax, WORD PTR [esi+10454]
  000ae	b9 e6 00 00 00	 mov	 ecx, 230		; 000000e6H
  000b3	66 3b c1	 cmp	 ax, cx
  000b6	0f 84 13 01 00
	00		 je	 $LN23@Summoner
  000bc	ba c8 01 00 00	 mov	 edx, 456		; 000001c8H
  000c1	66 3b c2	 cmp	 ax, dx
  000c4	0f 84 05 01 00
	00		 je	 $LN23@Summoner

; 1177 : 			}
; 1178 : 		}
; 1179 : 	}
; 1180 : 	else if(lpUser->m_OfflineSkill == 215 || lpUser->m_OfflineSkill == 455)

  000ca	b9 d7 00 00 00	 mov	 ecx, 215		; 000000d7H
  000cf	66 3b c1	 cmp	 ax, cx
  000d2	0f 84 93 00 00
	00		 je	 $LN12@Summoner
  000d8	ba c7 01 00 00	 mov	 edx, 455		; 000001c7H
  000dd	66 3b c2	 cmp	 ax, dx
  000e0	0f 84 85 00 00
	00		 je	 $LN12@Summoner

; 1200 : 	}
; 1201 : 	else if(lpUser->m_OfflineSkill == 225)	//225   

  000e6	b9 e1 00 00 00	 mov	 ecx, 225		; 000000e1H
  000eb	66 3b c1	 cmp	 ax, cx
  000ee	0f 85 8b 01 00
	00		 jne	 $LN41@Summoner

; 1202 : 	{
; 1203 : 		if(this->OffTimer(UserIndex, 6) == true)

  000f4	8b 75 fc	 mov	 esi, DWORD PTR _this$[ebp]
  000f7	6a 06		 push	 6
  000f9	57		 push	 edi
  000fa	8b ce		 mov	 ecx, esi
  000fc	e8 00 00 00 00	 call	 ?OffTimer@OfflineMode@@QAE_NHH@Z ; OfflineMode::OffTimer
  00101	3c 01		 cmp	 al, 1
  00103	0f 85 76 01 00
	00		 jne	 $LN41@Summoner

; 1204 : 		{
; 1205 : 			int TargetIndex = this->SearchTarget(UserIndex, 6);

  00109	6a 06		 push	 6
  0010b	57		 push	 edi
  0010c	8b ce		 mov	 ecx, esi
  0010e	e8 00 00 00 00	 call	 ?SearchTarget@OfflineMode@@QAEHHH@Z ; OfflineMode::SearchTarget

; 1206 : 
; 1207 : 			if(TargetIndex == -1) 

  00113	83 f8 ff	 cmp	 eax, -1
  00116	0f 84 63 01 00
	00		 je	 $LN41@Summoner

; 1208 : 			{
; 1209 : 				return;
; 1210 : 			}
; 1211 : 			if ( TargetIndex < 0 || TargetIndex > OBJMAX-1)

  0011c	3d 97 3a 00 00	 cmp	 eax, 14999		; 00003a97H
  00121	0f 87 58 01 00
	00		 ja	 $LN41@Summoner

; 1212 : 			{
; 1213 : 				return;
; 1214 : 			}
; 1215 : 			if ( gObj[TargetIndex].Connected < PLAYER_PLAYING )

  00127	8b 0d 00 00 00
	00		 mov	 ecx, DWORD PTR ?gObj@@3PAUOBJECTSTRUCT@@A ; gObj
  0012d	8b d0		 mov	 edx, eax
  0012f	69 d2 50 2b 00
	00		 imul	 edx, 11088		; 00002b50H
  00135	03 ca		 add	 ecx, edx
  00137	83 79 04 03	 cmp	 DWORD PTR [ecx+4], 3
  0013b	0f 8c 3e 01 00
	00		 jl	 $LN41@Summoner

; 1216 : 			{
; 1217 : 				return;
; 1218 : 			}
; 1219 : 
; 1220 : 			LPOBJ lpMonster = &gObj[TargetIndex];
; 1221 : 
; 1222 : 			gObjUseSkill.UseSkill(UserIndex, lpMagic, lpMonster->X, lpMonster->Y, 0, 0, TargetIndex);

  00141	0f b6 91 46 01
	00 00		 movzx	 edx, BYTE PTR [ecx+326]
  00148	50		 push	 eax
  00149	0f b6 81 44 01
	00 00		 movzx	 eax, BYTE PTR [ecx+324]
  00150	6a 00		 push	 0
  00152	6a 00		 push	 0
  00154	52		 push	 edx
  00155	50		 push	 eax
  00156	53		 push	 ebx
  00157	57		 push	 edi
  00158	b9 00 00 00 00	 mov	 ecx, OFFSET ?gObjUseSkill@@3VCObjUseSkill@@A ; gObjUseSkill
  0015d	e8 00 00 00 00	 call	 ?UseSkill@CObjUseSkill@@QAEXHPAVCMagicInf@@EEEEH@Z ; CObjUseSkill::UseSkill
  00162	5b		 pop	 ebx
  00163	5e		 pop	 esi
  00164	5f		 pop	 edi

; 1223 : 		}
; 1224 : 	}
; 1225 : }

  00165	8b e5		 mov	 esp, ebp
  00167	5d		 pop	 ebp
  00168	c2 04 00	 ret	 4
$LN12@Summoner:

; 1181 : 	{
; 1182 : 		int TargetIndex = this->SearchTarget(UserIndex, 6);

  0016b	8b 4d fc	 mov	 ecx, DWORD PTR _this$[ebp]
  0016e	6a 06		 push	 6
  00170	57		 push	 edi
  00171	e8 00 00 00 00	 call	 ?SearchTarget@OfflineMode@@QAEHHH@Z ; OfflineMode::SearchTarget

; 1183 : 
; 1184 : 		if(TargetIndex == -1) 

  00176	83 f8 ff	 cmp	 eax, -1
  00179	0f 84 00 01 00
	00		 je	 $LN41@Summoner

; 1185 : 		{
; 1186 : 			return;
; 1187 : 		}
; 1188 : 		if ( TargetIndex < 0 || TargetIndex > OBJMAX-1)

  0017f	3d 97 3a 00 00	 cmp	 eax, 14999		; 00003a97H
  00184	0f 87 f5 00 00
	00		 ja	 $LN41@Summoner

; 1189 : 		{
; 1190 : 			return;
; 1191 : 		}
; 1192 : 		if ( gObj[TargetIndex].Connected < PLAYER_PLAYING )

  0018a	8b 15 00 00 00
	00		 mov	 edx, DWORD PTR ?gObj@@3PAUOBJECTSTRUCT@@A ; gObj
  00190	8b c8		 mov	 ecx, eax
  00192	69 c9 50 2b 00
	00		 imul	 ecx, 11088		; 00002b50H
  00198	83 7c 11 04 03	 cmp	 DWORD PTR [ecx+edx+4], 3
  0019d	0f 8c dc 00 00
	00		 jl	 $LN41@Summoner

; 1193 : 		{
; 1194 : 			return;
; 1195 : 		}
; 1196 : 
; 1197 : 		LPOBJ lpMonster = &gObj[TargetIndex];
; 1198 : 
; 1199 : 		gObjUseSkill.UseSkill(UserIndex, lpMagic, lpMonster->X, lpMonster->Y, 0, 0, TargetIndex);

  001a3	50		 push	 eax
  001a4	0f b6 84 11 46
	01 00 00	 movzx	 eax, BYTE PTR [ecx+edx+326]
  001ac	0f b6 8c 11 44
	01 00 00	 movzx	 ecx, BYTE PTR [ecx+edx+324]
  001b4	6a 00		 push	 0
  001b6	6a 00		 push	 0
  001b8	50		 push	 eax
  001b9	51		 push	 ecx
  001ba	53		 push	 ebx
  001bb	57		 push	 edi
  001bc	b9 00 00 00 00	 mov	 ecx, OFFSET ?gObjUseSkill@@3VCObjUseSkill@@A ; gObjUseSkill
  001c1	e8 00 00 00 00	 call	 ?UseSkill@CObjUseSkill@@QAEXHPAVCMagicInf@@EEEEH@Z ; CObjUseSkill::UseSkill
  001c6	5b		 pop	 ebx
  001c7	5e		 pop	 esi
  001c8	5f		 pop	 edi

; 1223 : 		}
; 1224 : 	}
; 1225 : }

  001c9	8b e5		 mov	 esp, ebp
  001cb	5d		 pop	 ebp
  001cc	c2 04 00	 ret	 4
$LN23@Summoner:

; 1151 : 	{
; 1152 : 		gObjUseSkill.UseSkill(lpUser->m_Index, lpMagic, lpUser->X, lpUser->Y,0,0,-1);

  001cf	0f b6 96 46 01
	00 00		 movzx	 edx, BYTE PTR [esi+326]
  001d6	0f b6 86 44 01
	00 00		 movzx	 eax, BYTE PTR [esi+324]
  001dd	8b 0e		 mov	 ecx, DWORD PTR [esi]
  001df	6a ff		 push	 -1
  001e1	6a 00		 push	 0
  001e3	6a 00		 push	 0
  001e5	52		 push	 edx
  001e6	50		 push	 eax
  001e7	53		 push	 ebx
  001e8	51		 push	 ecx
  001e9	b9 00 00 00 00	 mov	 ecx, OFFSET ?gObjUseSkill@@3VCObjUseSkill@@A ; gObjUseSkill
  001ee	e8 00 00 00 00	 call	 ?UseSkill@CObjUseSkill@@QAEXHPAVCMagicInf@@EEEEH@Z ; CObjUseSkill::UseSkill
  001f3	8d 9e ac 08 00
	00		 lea	 ebx, DWORD PTR [esi+2220]
  001f9	c7 45 08 4b 00
	00 00		 mov	 DWORD PTR tv71[ebp], 75	; 0000004bH
$LL22@Summoner:

; 1155 : 		{
; 1156 : 			int tObjNum = lpUser->VpPlayer2[n].number;
; 1157 : 
; 1158 : 			if(lpUser->VpPlayer2[n].state == 0)

  00200	80 3b 00	 cmp	 BYTE PTR [ebx], 0
  00203	0f bf 43 02	 movsx	 eax, WORD PTR [ebx+2]
  00207	74 6e		 je	 SHORT $LN21@Summoner

; 1159 : 			{
; 1160 : 				continue;
; 1161 : 			}
; 1162 : 			if (OBJMAX_RANGE(tObjNum) == FALSE)

  00209	85 c0		 test	 eax, eax
  0020b	78 6a		 js	 SHORT $LN21@Summoner
  0020d	33 c9		 xor	 ecx, ecx
  0020f	3d 97 3a 00 00	 cmp	 eax, 14999		; 00003a97H
  00214	0f 9e c1	 setle	 cl
  00217	85 c9		 test	 ecx, ecx
  00219	74 5c		 je	 SHORT $LN21@Summoner

; 1163 : 			{
; 1164 : 				continue;
; 1165 : 			}
; 1166 : 			if ( gObj[tObjNum].Type != OBJ_MONSTER )

  0021b	8b 15 00 00 00
	00		 mov	 edx, DWORD PTR ?gObj@@3PAUOBJECTSTRUCT@@A ; gObj
  00221	8b f8		 mov	 edi, eax
  00223	69 ff 50 2b 00
	00		 imul	 edi, 11088		; 00002b50H
  00229	66 83 7c 17 68
	02		 cmp	 WORD PTR [edi+edx+104], 2
  0022f	75 46		 jne	 SHORT $LN21@Summoner

; 1167 : 			{
; 1168 : 				continue;
; 1169 : 			}
; 1170 : 			if(g_ZtUser.InSafeZone(tObjNum) == true)

  00231	50		 push	 eax
  00232	b9 00 00 00 00	 mov	 ecx, OFFSET ?g_ZtUser@@3VZtUser@@A ; g_ZtUser
  00237	e8 00 00 00 00	 call	 ?InSafeZone@ZtUser@@QAE_NH@Z ; ZtUser::InSafeZone
  0023c	3c 01		 cmp	 al, 1
  0023e	74 37		 je	 SHORT $LN21@Summoner

; 1171 : 			{
; 1172 : 				continue;
; 1173 : 			}
; 1174 : 			if(MaxDis >= gObjCalDistance(lpUser, &gObj[tObjNum]))

  00240	a1 00 00 00 00	 mov	 eax, DWORD PTR ?gObj@@3PAUOBJECTSTRUCT@@A ; gObj
  00245	8d 0c 07	 lea	 ecx, DWORD PTR [edi+eax]
  00248	51		 push	 ecx
  00249	56		 push	 esi
  0024a	e8 00 00 00 00	 call	 ?gObjCalDistance@@YAHPAUOBJECTSTRUCT@@0@Z ; gObjCalDistance
  0024f	83 c4 08	 add	 esp, 8
  00252	83 f8 06	 cmp	 eax, 6
  00255	7f 20		 jg	 SHORT $LN21@Summoner

; 1175 : 			{
; 1176 : 				gObjAttack(lpUser, &gObj[tObjNum], lpMagic, FALSE, 1, 0, FALSE, 0, 0);

  00257	8b 55 f8	 mov	 edx, DWORD PTR _lpMagic$[ebp]
  0025a	03 3d 00 00 00
	00		 add	 edi, DWORD PTR ?gObj@@3PAUOBJECTSTRUCT@@A ; gObj
  00260	6a 00		 push	 0
  00262	6a 00		 push	 0
  00264	6a 00		 push	 0
  00266	6a 00		 push	 0
  00268	6a 01		 push	 1
  0026a	6a 00		 push	 0
  0026c	52		 push	 edx
  0026d	57		 push	 edi
  0026e	56		 push	 esi
  0026f	e8 00 00 00 00	 call	 ?gObjAttack@@YAHPAUOBJECTSTRUCT@@0PAVCMagicInf@@HEHHEE@Z ; gObjAttack
  00274	83 c4 24	 add	 esp, 36			; 00000024H
$LN21@Summoner:

; 1153 : 
; 1154 : 		for (int n=0;n<MAX_VIEWPORT_MONSTER;n++)

  00277	83 c3 0c	 add	 ebx, 12			; 0000000cH
  0027a	ff 4d 08	 dec	 DWORD PTR tv71[ebp]
  0027d	75 81		 jne	 SHORT $LL22@Summoner
$LN41@Summoner:
  0027f	5b		 pop	 ebx
  00280	5e		 pop	 esi
$LN20@Summoner:
  00281	5f		 pop	 edi

; 1223 : 		}
; 1224 : 	}
; 1225 : }

  00282	8b e5		 mov	 esp, ebp
  00284	5d		 pop	 ebp
  00285	c2 04 00	 ret	 4
?Summoner@OfflineMode@@QAEXH@Z ENDP			; OfflineMode::Summoner
_TEXT	ENDS
PUBLIC	?Fighter@OfflineMode@@QAEXH@Z			; OfflineMode::Fighter
; Function compile flags: /Ogtp
;	COMDAT ?Fighter@OfflineMode@@QAEXH@Z
_TEXT	SEGMENT
_this$ = -8						; size = 4
_lpMagic$ = -4						; size = 4
tv235 = 8						; size = 4
tv164 = 8						; size = 4
_UserIndex$ = 8						; size = 4
?Fighter@OfflineMode@@QAEXH@Z PROC			; OfflineMode::Fighter, COMDAT
; _this$ = ecx

; 1229 : {

  00000	55		 push	 ebp
  00001	8b ec		 mov	 ebp, esp
  00003	83 ec 08	 sub	 esp, 8
  00006	53		 push	 ebx

; 1230 : 	if(!gObjIsConnectedZt(UserIndex))

  00007	8b 5d 08	 mov	 ebx, DWORD PTR _UserIndex$[ebp]
  0000a	53		 push	 ebx
  0000b	89 4d f8	 mov	 DWORD PTR _this$[ebp], ecx
  0000e	e8 00 00 00 00	 call	 ?gObjIsConnectedZt@@YA_NH@Z ; gObjIsConnectedZt
  00013	83 c4 04	 add	 esp, 4
  00016	84 c0		 test	 al, al
  00018	0f 84 74 02 00
	00		 je	 $LN17@Fighter

; 1231 : 	{
; 1232 : 		return;
; 1233 : 	}
; 1234 : 
; 1235 : 	LPOBJ lpUser = &gObj[UserIndex];

  0001e	56		 push	 esi
  0001f	8b f3		 mov	 esi, ebx
  00021	69 f6 50 2b 00
	00		 imul	 esi, 11088		; 00002b50H
  00027	03 35 00 00 00
	00		 add	 esi, DWORD PTR ?gObj@@3PAUOBJECTSTRUCT@@A ; gObj

; 1236 : 
; 1237 : 	CMagicInf * lpMagic;
; 1238 : 
; 1239 : 	int MaxDis = 6;
; 1240 : 
; 1241 : 	if(lpUser->m_OfflineAutoBuff == true && lpUser->m_OfflineBuffTime == 0)

  0002d	80 be d9 28 00
	00 01		 cmp	 BYTE PTR [esi+10457], 1
  00034	75 6c		 jne	 SHORT $LN42@Fighter
  00036	80 be d8 28 00
	00 00		 cmp	 BYTE PTR [esi+10456], 0
  0003d	75 63		 jne	 SHORT $LN42@Fighter

; 1242 : 	{
; 1243 : 		lpMagic = gObjGetMagicSearch(lpUser, 266);//fix

  0003f	68 0a 01 00 00	 push	 266			; 0000010aH
  00044	56		 push	 esi
  00045	e8 00 00 00 00	 call	 ?gObjGetMagicSearch@@YAPAVCMagicInf@@PAUOBJECTSTRUCT@@H@Z ; gObjGetMagicSearch
  0004a	83 c4 08	 add	 esp, 8

; 1244 : 		if(lpMagic != NULL) 

  0004d	85 c0		 test	 eax, eax
  0004f	74 0f		 je	 SHORT $LN47@Fighter

; 1245 : 		{		
; 1246 : 			gObjUseSkill.UseSkill(lpUser->m_Index, lpUser->m_Index, lpMagic);

  00051	8b 0e		 mov	 ecx, DWORD PTR [esi]
  00053	50		 push	 eax
  00054	51		 push	 ecx
  00055	51		 push	 ecx
  00056	b9 00 00 00 00	 mov	 ecx, OFFSET ?gObjUseSkill@@3VCObjUseSkill@@A ; gObjUseSkill
  0005b	e8 00 00 00 00	 call	 ?UseSkill@CObjUseSkill@@QAEXHHPAVCMagicInf@@@Z ; CObjUseSkill::UseSkill
$LN47@Fighter:

; 1247 : 		}
; 1248 : 
; 1249 : 		lpMagic = gObjGetMagicSearch(lpUser, 267);//fix

  00060	68 0b 01 00 00	 push	 267			; 0000010bH
  00065	56		 push	 esi
  00066	e8 00 00 00 00	 call	 ?gObjGetMagicSearch@@YAPAVCMagicInf@@PAUOBJECTSTRUCT@@H@Z ; gObjGetMagicSearch
  0006b	83 c4 08	 add	 esp, 8

; 1250 : 		if(lpMagic != NULL) 

  0006e	85 c0		 test	 eax, eax
  00070	74 0f		 je	 SHORT $LN48@Fighter

; 1251 : 		{		
; 1252 : 			gObjUseSkill.UseSkill(lpUser->m_Index, lpUser->m_Index, lpMagic);

  00072	8b 0e		 mov	 ecx, DWORD PTR [esi]
  00074	50		 push	 eax
  00075	51		 push	 ecx
  00076	51		 push	 ecx
  00077	b9 00 00 00 00	 mov	 ecx, OFFSET ?gObjUseSkill@@3VCObjUseSkill@@A ; gObjUseSkill
  0007c	e8 00 00 00 00	 call	 ?UseSkill@CObjUseSkill@@QAEXHHPAVCMagicInf@@@Z ; CObjUseSkill::UseSkill
$LN48@Fighter:

; 1253 : 		}
; 1254 : 
; 1255 : 		lpMagic = gObjGetMagicSearch(lpUser, 268);//fix

  00081	68 0c 01 00 00	 push	 268			; 0000010cH
  00086	56		 push	 esi
  00087	e8 00 00 00 00	 call	 ?gObjGetMagicSearch@@YAPAVCMagicInf@@PAUOBJECTSTRUCT@@H@Z ; gObjGetMagicSearch
  0008c	83 c4 08	 add	 esp, 8

; 1256 : 		if(lpMagic != NULL) 

  0008f	85 c0		 test	 eax, eax
  00091	74 0f		 je	 SHORT $LN42@Fighter

; 1257 : 		{		
; 1258 : 			gObjUseSkill.UseSkill(lpUser->m_Index, lpUser->m_Index, lpMagic);

  00093	8b 0e		 mov	 ecx, DWORD PTR [esi]
  00095	50		 push	 eax
  00096	51		 push	 ecx
  00097	51		 push	 ecx
  00098	b9 00 00 00 00	 mov	 ecx, OFFSET ?gObjUseSkill@@3VCObjUseSkill@@A ; gObjUseSkill
  0009d	e8 00 00 00 00	 call	 ?UseSkill@CObjUseSkill@@QAEXHHPAVCMagicInf@@@Z ; CObjUseSkill::UseSkill
$LN42@Fighter:

; 1259 : 		}
; 1260 : 	}
; 1261 : 
; 1262 : 	lpUser->m_OfflineBuffTime++;

  000a2	fe 86 d8 28 00
	00		 inc	 BYTE PTR [esi+10456]

; 1263 : 	if(lpUser->m_OfflineBuffTime >= OFFMAXTIME_FOR_BUFF)

  000a8	80 be d8 28 00
	00 14		 cmp	 BYTE PTR [esi+10456], 20 ; 00000014H
  000af	72 07		 jb	 SHORT $LN24@Fighter

; 1264 : 	{
; 1265 : 		lpUser->m_OfflineBuffTime = 0;

  000b1	c6 86 d8 28 00
	00 00		 mov	 BYTE PTR [esi+10456], 0
$LN24@Fighter:

; 1266 : 	}
; 1267 : 
; 1268 : 	lpMagic = gObjGetMagicSearch(lpUser, lpUser->m_OfflineSkill);

  000b8	0f b7 86 d6 28
	00 00		 movzx	 eax, WORD PTR [esi+10454]
  000bf	57		 push	 edi
  000c0	50		 push	 eax
  000c1	56		 push	 esi
  000c2	e8 00 00 00 00	 call	 ?gObjGetMagicSearch@@YAPAVCMagicInf@@PAUOBJECTSTRUCT@@H@Z ; gObjGetMagicSearch
  000c7	8b f8		 mov	 edi, eax
  000c9	83 c4 08	 add	 esp, 8
  000cc	89 7d fc	 mov	 DWORD PTR _lpMagic$[ebp], edi

; 1269 : 
; 1270 : 	if(!lpMagic)

  000cf	85 ff		 test	 edi, edi
  000d1	0f 84 b9 01 00
	00		 je	 $LN50@Fighter

; 1271 : 	{
; 1272 : 		return;
; 1273 : 	}
; 1274 : 
; 1275 : 	if(lpUser->m_OfflineSkill == 264 || lpUser->m_OfflineSkill == 560)

  000d7	0f b7 86 d6 28
	00 00		 movzx	 eax, WORD PTR [esi+10454]
  000de	b9 08 01 00 00	 mov	 ecx, 264		; 00000108H
  000e3	66 3b c1	 cmp	 ax, cx
  000e6	0f 84 e0 00 00
	00		 je	 $LN21@Fighter
  000ec	ba 30 02 00 00	 mov	 edx, 560		; 00000230H
  000f1	66 3b c2	 cmp	 ax, dx
  000f4	0f 84 d2 00 00
	00		 je	 $LN21@Fighter

; 1304 : 				}
; 1305 : 			}
; 1306 : 		}
; 1307 : 	}
; 1308 : 	else if(lpUser->m_OfflineSkill == 263 || lpUser->m_OfflineSkill == 559)

  000fa	b9 07 01 00 00	 mov	 ecx, 263		; 00000107H
  000ff	66 3b c1	 cmp	 ax, cx
  00102	74 0e		 je	 SHORT $LN9@Fighter
  00104	ba 2f 02 00 00	 mov	 edx, 559		; 0000022fH
  00109	66 3b c2	 cmp	 ax, dx
  0010c	0f 85 7e 01 00
	00		 jne	 $LN50@Fighter
$LN9@Fighter:

; 1309 : 	{
; 1310 : 		gObjUseSkill.UseSkill(lpUser->m_Index, lpMagic, lpUser->X, lpUser->Y,0,0,-1);

  00112	0f b6 86 46 01
	00 00		 movzx	 eax, BYTE PTR [esi+326]
  00119	0f b6 8e 44 01
	00 00		 movzx	 ecx, BYTE PTR [esi+324]
  00120	8b 16		 mov	 edx, DWORD PTR [esi]
  00122	6a ff		 push	 -1
  00124	6a 00		 push	 0
  00126	6a 00		 push	 0
  00128	50		 push	 eax
  00129	51		 push	 ecx
  0012a	57		 push	 edi
  0012b	52		 push	 edx
  0012c	b9 00 00 00 00	 mov	 ecx, OFFSET ?gObjUseSkill@@3VCObjUseSkill@@A ; gObjUseSkill
  00131	e8 00 00 00 00	 call	 ?UseSkill@CObjUseSkill@@QAEXHPAVCMagicInf@@EEEEH@Z ; CObjUseSkill::UseSkill
  00136	8d 9e ac 08 00
	00		 lea	 ebx, DWORD PTR [esi+2220]
  0013c	c7 45 08 4b 00
	00 00		 mov	 DWORD PTR tv164[ebp], 75 ; 0000004bH
$LL8@Fighter:

; 1313 : 		{
; 1314 : 			int tObjNum = lpUser->VpPlayer2[n].number;
; 1315 : 
; 1316 : 			if(lpUser->VpPlayer2[n].state == 0)

  00143	80 3b 00	 cmp	 BYTE PTR [ebx], 0
  00146	0f bf 43 02	 movsx	 eax, WORD PTR [ebx+2]
  0014a	74 6f		 je	 SHORT $LN7@Fighter

; 1317 : 			{
; 1318 : 				continue;
; 1319 : 			}
; 1320 : 			if (OBJMAX_RANGE(tObjNum) == FALSE)

  0014c	85 c0		 test	 eax, eax
  0014e	78 6b		 js	 SHORT $LN7@Fighter
  00150	33 c9		 xor	 ecx, ecx
  00152	3d 97 3a 00 00	 cmp	 eax, 14999		; 00003a97H
  00157	0f 9e c1	 setle	 cl
  0015a	85 c9		 test	 ecx, ecx
  0015c	74 5d		 je	 SHORT $LN7@Fighter

; 1321 : 			{
; 1322 : 				continue;
; 1323 : 			}
; 1324 : 			if ( gObj[tObjNum].Type != OBJ_MONSTER )

  0015e	8b 0d 00 00 00
	00		 mov	 ecx, DWORD PTR ?gObj@@3PAUOBJECTSTRUCT@@A ; gObj
  00164	8b f8		 mov	 edi, eax
  00166	69 ff 50 2b 00
	00		 imul	 edi, 11088		; 00002b50H
  0016c	66 83 7c 0f 68
	02		 cmp	 WORD PTR [edi+ecx+104], 2
  00172	75 47		 jne	 SHORT $LN7@Fighter

; 1325 : 			{
; 1326 : 				continue;
; 1327 : 			}
; 1328 : 			if(g_ZtUser.InSafeZone(tObjNum) == true)

  00174	50		 push	 eax
  00175	b9 00 00 00 00	 mov	 ecx, OFFSET ?g_ZtUser@@3VZtUser@@A ; g_ZtUser
  0017a	e8 00 00 00 00	 call	 ?InSafeZone@ZtUser@@QAE_NH@Z ; ZtUser::InSafeZone
  0017f	3c 01		 cmp	 al, 1
  00181	74 38		 je	 SHORT $LN7@Fighter

; 1329 : 			{
; 1330 : 				continue;
; 1331 : 			}
; 1332 : 			if(MaxDis >= gObjCalDistance(lpUser, &gObj[tObjNum]))

  00183	8b 15 00 00 00
	00		 mov	 edx, DWORD PTR ?gObj@@3PAUOBJECTSTRUCT@@A ; gObj
  00189	8d 04 17	 lea	 eax, DWORD PTR [edi+edx]
  0018c	50		 push	 eax
  0018d	56		 push	 esi
  0018e	e8 00 00 00 00	 call	 ?gObjCalDistance@@YAHPAUOBJECTSTRUCT@@0@Z ; gObjCalDistance
  00193	83 c4 08	 add	 esp, 8
  00196	83 f8 06	 cmp	 eax, 6
  00199	7f 20		 jg	 SHORT $LN7@Fighter

; 1333 : 			{
; 1334 : 				gObjAttack(lpUser, &gObj[tObjNum], lpMagic, FALSE, 1, 0, FALSE, 0, 0);

  0019b	8b 4d fc	 mov	 ecx, DWORD PTR _lpMagic$[ebp]
  0019e	03 3d 00 00 00
	00		 add	 edi, DWORD PTR ?gObj@@3PAUOBJECTSTRUCT@@A ; gObj
  001a4	6a 00		 push	 0
  001a6	6a 00		 push	 0
  001a8	6a 00		 push	 0
  001aa	6a 00		 push	 0
  001ac	6a 01		 push	 1
  001ae	6a 00		 push	 0
  001b0	51		 push	 ecx
  001b1	57		 push	 edi
  001b2	56		 push	 esi
  001b3	e8 00 00 00 00	 call	 ?gObjAttack@@YAHPAUOBJECTSTRUCT@@0PAVCMagicInf@@HEHHEE@Z ; gObjAttack
  001b8	83 c4 24	 add	 esp, 36			; 00000024H
$LN7@Fighter:

; 1311 : 
; 1312 : 		for (int n=0;n<MAX_VIEWPORT_MONSTER;n++)

  001bb	83 c3 0c	 add	 ebx, 12			; 0000000cH
  001be	ff 4d 08	 dec	 DWORD PTR tv164[ebp]
  001c1	75 80		 jne	 SHORT $LL8@Fighter
  001c3	5f		 pop	 edi
  001c4	5e		 pop	 esi
  001c5	5b		 pop	 ebx

; 1335 : 			}
; 1336 : 		}
; 1337 : 	}
; 1338 : }

  001c6	8b e5		 mov	 esp, ebp
  001c8	5d		 pop	 ebp
  001c9	c2 04 00	 ret	 4
$LN21@Fighter:

; 1276 : 	{
; 1277 : 		if(this->OffTimer(UserIndex, 4) == true)

  001cc	8b 4d f8	 mov	 ecx, DWORD PTR _this$[ebp]
  001cf	6a 04		 push	 4
  001d1	53		 push	 ebx
  001d2	e8 00 00 00 00	 call	 ?OffTimer@OfflineMode@@QAE_NHH@Z ; OfflineMode::OffTimer
  001d7	3c 01		 cmp	 al, 1
  001d9	0f 85 b1 00 00
	00		 jne	 $LN50@Fighter

; 1278 : 		{
; 1279 : 			gObjUseSkill.UseSkill(lpUser->m_Index, lpMagic, lpUser->X, lpUser->Y,0,0,-1);

  001df	0f b6 86 46 01
	00 00		 movzx	 eax, BYTE PTR [esi+326]
  001e6	0f b6 8e 44 01
	00 00		 movzx	 ecx, BYTE PTR [esi+324]
  001ed	8b 16		 mov	 edx, DWORD PTR [esi]
  001ef	6a ff		 push	 -1
  001f1	6a 00		 push	 0
  001f3	6a 00		 push	 0
  001f5	50		 push	 eax
  001f6	51		 push	 ecx
  001f7	57		 push	 edi
  001f8	52		 push	 edx
  001f9	b9 00 00 00 00	 mov	 ecx, OFFSET ?gObjUseSkill@@3VCObjUseSkill@@A ; gObjUseSkill
  001fe	e8 00 00 00 00	 call	 ?UseSkill@CObjUseSkill@@QAEXHPAVCMagicInf@@EEEEH@Z ; CObjUseSkill::UseSkill
  00203	8d 9e ac 08 00
	00		 lea	 ebx, DWORD PTR [esi+2220]
  00209	c7 45 08 4b 00
	00 00		 mov	 DWORD PTR tv235[ebp], 75 ; 0000004bH
$LL19@Fighter:

; 1282 : 			{
; 1283 : 				int tObjNum = lpUser->VpPlayer2[n].number;
; 1284 : 
; 1285 : 				if(lpUser->VpPlayer2[n].state == 0)

  00210	80 3b 00	 cmp	 BYTE PTR [ebx], 0
  00213	0f bf 43 02	 movsx	 eax, WORD PTR [ebx+2]
  00217	74 6f		 je	 SHORT $LN18@Fighter

; 1286 : 				{
; 1287 : 					continue;
; 1288 : 				}
; 1289 : 				if (OBJMAX_RANGE(tObjNum) == FALSE)

  00219	85 c0		 test	 eax, eax
  0021b	78 6b		 js	 SHORT $LN18@Fighter
  0021d	33 c9		 xor	 ecx, ecx
  0021f	3d 97 3a 00 00	 cmp	 eax, 14999		; 00003a97H
  00224	0f 9e c1	 setle	 cl
  00227	85 c9		 test	 ecx, ecx
  00229	74 5d		 je	 SHORT $LN18@Fighter

; 1290 : 				{
; 1291 : 					continue;
; 1292 : 				}
; 1293 : 				if ( gObj[tObjNum].Type != OBJ_MONSTER )

  0022b	8b 0d 00 00 00
	00		 mov	 ecx, DWORD PTR ?gObj@@3PAUOBJECTSTRUCT@@A ; gObj
  00231	8b f8		 mov	 edi, eax
  00233	69 ff 50 2b 00
	00		 imul	 edi, 11088		; 00002b50H
  00239	66 83 7c 0f 68
	02		 cmp	 WORD PTR [edi+ecx+104], 2
  0023f	75 47		 jne	 SHORT $LN18@Fighter

; 1294 : 				{
; 1295 : 					continue;
; 1296 : 				}
; 1297 : 				if(g_ZtUser.InSafeZone(tObjNum) == true)

  00241	50		 push	 eax
  00242	b9 00 00 00 00	 mov	 ecx, OFFSET ?g_ZtUser@@3VZtUser@@A ; g_ZtUser
  00247	e8 00 00 00 00	 call	 ?InSafeZone@ZtUser@@QAE_NH@Z ; ZtUser::InSafeZone
  0024c	3c 01		 cmp	 al, 1
  0024e	74 38		 je	 SHORT $LN18@Fighter

; 1298 : 				{
; 1299 : 					continue;
; 1300 : 				}
; 1301 : 				if(MaxDis >= gObjCalDistance(lpUser, &gObj[tObjNum]))

  00250	8b 15 00 00 00
	00		 mov	 edx, DWORD PTR ?gObj@@3PAUOBJECTSTRUCT@@A ; gObj
  00256	8d 04 17	 lea	 eax, DWORD PTR [edi+edx]
  00259	50		 push	 eax
  0025a	56		 push	 esi
  0025b	e8 00 00 00 00	 call	 ?gObjCalDistance@@YAHPAUOBJECTSTRUCT@@0@Z ; gObjCalDistance
  00260	83 c4 08	 add	 esp, 8
  00263	83 f8 06	 cmp	 eax, 6
  00266	7f 20		 jg	 SHORT $LN18@Fighter

; 1302 : 				{
; 1303 : 					gObjAttack(lpUser, &gObj[tObjNum], lpMagic, FALSE, 1, 0, FALSE, 0, 0);

  00268	8b 4d fc	 mov	 ecx, DWORD PTR _lpMagic$[ebp]
  0026b	03 3d 00 00 00
	00		 add	 edi, DWORD PTR ?gObj@@3PAUOBJECTSTRUCT@@A ; gObj
  00271	6a 00		 push	 0
  00273	6a 00		 push	 0
  00275	6a 00		 push	 0
  00277	6a 00		 push	 0
  00279	6a 01		 push	 1
  0027b	6a 00		 push	 0
  0027d	51		 push	 ecx
  0027e	57		 push	 edi
  0027f	56		 push	 esi
  00280	e8 00 00 00 00	 call	 ?gObjAttack@@YAHPAUOBJECTSTRUCT@@0PAVCMagicInf@@HEHHEE@Z ; gObjAttack
  00285	83 c4 24	 add	 esp, 36			; 00000024H
$LN18@Fighter:

; 1280 : 
; 1281 : 			for (int n=0;n<MAX_VIEWPORT_MONSTER;n++)

  00288	83 c3 0c	 add	 ebx, 12			; 0000000cH
  0028b	ff 4d 08	 dec	 DWORD PTR tv235[ebp]
  0028e	75 80		 jne	 SHORT $LL19@Fighter
$LN50@Fighter:
  00290	5f		 pop	 edi
  00291	5e		 pop	 esi
$LN17@Fighter:
  00292	5b		 pop	 ebx

; 1335 : 			}
; 1336 : 		}
; 1337 : 	}
; 1338 : }

  00293	8b e5		 mov	 esp, ebp
  00295	5d		 pop	 ebp
  00296	c2 04 00	 ret	 4
?Fighter@OfflineMode@@QAEXH@Z ENDP			; OfflineMode::Fighter
_TEXT	ENDS
PUBLIC	?PickUP@OfflineMode@@QAEXH@Z			; OfflineMode::PickUP
EXTRN	?GCSendGetItemInfoForParty@@YAXHPAVCMapItem@@@Z:PROC ; GCSendGetItemInfoForParty
EXTRN	?gObjInventoryInsertItem@@YAEHPAVCMapItem@@@Z:PROC ; gObjInventoryInsertItem
EXTRN	?gObjInventoryInsertItemTemp@@YAEPAUOBJECTSTRUCT@@PAVCMapItem@@@Z:PROC ; gObjInventoryInsertItemTemp
EXTRN	?gObjCheckMaxZen@@YAHHH@Z:PROC			; gObjCheckMaxZen
EXTRN	?ItemGive@MapClass@@QAEHHH_N@Z:PROC		; MapClass::ItemGive
EXTRN	?CountQuestItemInInventory@CQuestInfo@@QAEHHFF@Z:PROC ; CQuestInfo::CountQuestItemInInventory
EXTRN	?MapC@@3PAVMapClass@@A:BYTE			; MapC
EXTRN	__ftol2_sse:PROC
; Function compile flags: /Ogtp
;	COMDAT ?PickUP@OfflineMode@@QAEXH@Z
_TEXT	SEGMENT
tv356 = -16						; size = 4
tv871 = -12						; size = 4
tv865 = -12						; size = 4
tv370 = -8						; size = 4
_item_num$215596 = -4					; size = 4
_aIndex$ = 8						; size = 4
?PickUP@OfflineMode@@QAEXH@Z PROC			; OfflineMode::PickUP, COMDAT
; _this$ = ecx

; 1424 : {

  00000	55		 push	 ebp
  00001	8b ec		 mov	 ebp, esp
  00003	83 ec 10	 sub	 esp, 16			; 00000010H
  00006	53		 push	 ebx

; 1425 : 	if(!OBJMAX_RANGE(aIndex))

  00007	8b 5d 08	 mov	 ebx, DWORD PTR _aIndex$[ebp]
  0000a	85 db		 test	 ebx, ebx
  0000c	0f 88 85 02 00
	00		 js	 $LN22@PickUP
  00012	33 c0		 xor	 eax, eax
  00014	81 fb 97 3a 00
	00		 cmp	 ebx, 14999		; 00003a97H
  0001a	0f 9e c0	 setle	 al
  0001d	85 c0		 test	 eax, eax
  0001f	0f 84 72 02 00
	00		 je	 $LN22@PickUP

; 1426 : 	{
; 1427 : 		return;
; 1428 : 	}
; 1429 : 
; 1430 : 	if(!gObjIsConnectedZt(aIndex))

  00025	53		 push	 ebx
  00026	e8 00 00 00 00	 call	 ?gObjIsConnectedZt@@YA_NH@Z ; gObjIsConnectedZt
  0002b	83 c4 04	 add	 esp, 4
  0002e	84 c0		 test	 al, al
  00030	0f 84 61 02 00
	00		 je	 $LN22@PickUP

; 1431 : 	{
; 1432 : 		return;
; 1433 : 	}
; 1434 : 	int distance = 3;
; 1435 : 	CMapItem * lpMapItem;
; 1436 : 	LPOBJ lpUser = &gObj[aIndex];

  00036	69 db 50 2b 00
	00		 imul	 ebx, 11088		; 00002b50H
  0003c	89 5d f0	 mov	 DWORD PTR tv356[ebp], ebx
  0003f	03 1d 00 00 00
	00		 add	 ebx, DWORD PTR ?gObj@@3PAUOBJECTSTRUCT@@A ; gObj

; 1437 : 	int map_num = gObj[aIndex].MapNumber;
; 1438 : 
; 1439 : 	if(gObj[aIndex].DieRegen != 0)

  00045	80 bb a2 03 00
	00 00		 cmp	 BYTE PTR [ebx+930], 0
  0004c	0f b6 83 49 01
	00 00		 movzx	 eax, BYTE PTR [ebx+329]
  00053	0f 85 3e 02 00
	00		 jne	 $LN22@PickUP

; 1440 : 	{
; 1441 : 		return;
; 1442 : 	}
; 1443 : 
; 1444 : 	if (MAX_MAP_RANGE(map_num) == FALSE)

  00059	85 c0		 test	 eax, eax
  0005b	78 0c		 js	 SHORT $LN41@PickUP
  0005d	33 c9		 xor	 ecx, ecx
  0005f	83 f8 52	 cmp	 eax, 82			; 00000052H
  00062	0f 9e c1	 setle	 cl
  00065	85 c9		 test	 ecx, ecx
  00067	75 1f		 jne	 SHORT $LN25@PickUP
$LN41@PickUP:

; 1445 : 	{
; 1446 : 		LogAdd("error-L3 : %s %d", __FILE__, __LINE__);

  00069	68 a6 05 00 00	 push	 1446			; 000005a6H
  0006e	68 00 00 00 00	 push	 OFFSET ??_C@_0BA@JOKPEPKE@OfflineMode?4cpp?$AA@
  00073	68 00 00 00 00	 push	 OFFSET ??_C@_0BB@LBNJKNBE@error?9L3?5?3?5?$CFs?5?$CFd?$AA@
  00078	ff 15 00 00 00
	00		 call	 DWORD PTR ?LogAdd@@3P6AXPADZZA ; LogAdd
  0007e	83 c4 0c	 add	 esp, 12			; 0000000cH
  00081	5b		 pop	 ebx

; 1545 : 					}
; 1546 : 				}
; 1547 : 			}
; 1548 : 		}			
; 1549 : 	}
; 1550 : }

  00082	8b e5		 mov	 esp, ebp
  00084	5d		 pop	 ebp
  00085	c2 04 00	 ret	 4
$LN25@PickUP:
  00088	56		 push	 esi
  00089	57		 push	 edi

; 1447 : 		return;
; 1448 : 	}
; 1449 : 
; 1450 : 	for(int item_num = 0; item_num < MAX_MAPITEM; item_num++)

  0008a	8b f8		 mov	 edi, eax
  0008c	69 ff 48 3d 05
	00		 imul	 edi, 343368		; 00053d48H
  00092	c7 45 fc 00 00
	00 00		 mov	 DWORD PTR _item_num$215596[ebp], 0
  00099	89 7d f8	 mov	 DWORD PTR tv370[ebp], edi
  0009c	8d b7 fb 00 00
	00		 lea	 esi, DWORD PTR ?MapC@@3PAVMapClass@@A[edi+251]
$LL24@PickUP:

; 1451 : 	{
; 1452 : 		lpMapItem = &MapC[map_num].m_cItem[item_num];
; 1453 : 
; 1454 : 		if(lpMapItem->IsItem() == TRUE && lpMapItem->Give == false && lpMapItem->live == true)

  000a2	8d 8e 29 ff ff
	ff		 lea	 ecx, DWORD PTR [esi-215]
  000a8	e8 00 00 00 00	 call	 ?IsItem@CItem@@QAEHXZ	; CItem::IsItem
  000ad	83 f8 01	 cmp	 eax, 1
  000b0	0f 85 c7 01 00
	00		 jne	 $LN23@PickUP
  000b6	80 3e 00	 cmp	 BYTE PTR [esi], 0
  000b9	0f 85 be 01 00
	00		 jne	 $LN23@PickUP
  000bf	38 46 ff	 cmp	 BYTE PTR [esi-1], al
  000c2	0f 85 b5 01 00
	00		 jne	 $LN23@PickUP

; 1455 : 		{
; 1456 : 			int tx = lpUser->X - lpMapItem->px;

  000c8	0f b6 4e fd	 movzx	 ecx, BYTE PTR [esi-3]
  000cc	0f bf 83 44 01
	00 00		 movsx	 eax, WORD PTR [ebx+324]

; 1457 : 			int ty = lpUser->Y - lpMapItem->py;

  000d3	0f b6 56 fe	 movzx	 edx, BYTE PTR [esi-2]
  000d7	2b c1		 sub	 eax, ecx
  000d9	0f bf 8b 46 01
	00 00		 movsx	 ecx, WORD PTR [ebx+326]

; 1458 : 					
; 1459 : 			int dis = sqrt((float) (tx*tx+ty*ty));	//? ?

  000e0	0f af c0	 imul	 eax, eax
  000e3	2b ca		 sub	 ecx, edx
  000e5	0f af c9	 imul	 ecx, ecx
  000e8	03 c8		 add	 ecx, eax

; 1460 : 
; 1461 : 			if(dis > distance)

  000ea	89 4d f4	 mov	 DWORD PTR tv871[ebp], ecx
  000ed	db 45 f4	 fild	 DWORD PTR tv871[ebp]
  000f0	e8 00 00 00 00	 call	 __CIsqrt
  000f5	d9 5d f4	 fstp	 DWORD PTR tv865[ebp]
  000f8	d9 45 f4	 fld	 DWORD PTR tv865[ebp]
  000fb	e8 00 00 00 00	 call	 __ftol2_sse
  00100	83 f8 03	 cmp	 eax, 3
  00103	0f 8f 74 01 00
	00		 jg	 $LN23@PickUP

; 1462 : 			{
; 1463 : 				continue;
; 1464 : 			}
; 1465 : 
; 1466 : 			//all items
; 1467 : 			if(lpMapItem->m_QuestItem != false )

  00109	80 7e d6 00	 cmp	 BYTE PTR [esi-42], 0
  0010d	74 26		 je	 SHORT $LN18@PickUP

; 1468 : 			{
; 1469 : 				if(!g_QuestInfo.CountQuestItemInInventory(aIndex, lpMapItem->m_Type, lpMapItem->m_Level))

  0010f	0f b7 86 31 ff
	ff ff		 movzx	 eax, WORD PTR [esi-207]
  00116	0f b7 8e 2f ff
	ff ff		 movzx	 ecx, WORD PTR [esi-209]
  0011d	8b 55 08	 mov	 edx, DWORD PTR _aIndex$[ebp]
  00120	50		 push	 eax
  00121	51		 push	 ecx
  00122	52		 push	 edx
  00123	b9 00 00 00 00	 mov	 ecx, OFFSET ?g_QuestInfo@@3VCQuestInfo@@A ; g_QuestInfo
  00128	e8 00 00 00 00	 call	 ?CountQuestItemInInventory@CQuestInfo@@QAEHHFF@Z ; CQuestInfo::CountQuestItemInInventory
  0012d	85 c0		 test	 eax, eax
  0012f	0f 84 48 01 00
	00		 je	 $LN23@PickUP
$LN18@PickUP:

; 1470 : 				{
; 1471 : 					continue;
; 1472 : 				}
; 1473 : 			}
; 1474 : 
; 1475 : 			bool PickItem = false;
; 1476 : 
; 1477 : 			//zen item
; 1478 : 			if(lpMapItem->m_Type == ITEMGET(14,15))

  00135	0f b7 86 2f ff
	ff ff		 movzx	 eax, WORD PTR [esi-209]
  0013c	ba 0f 1c 00 00	 mov	 edx, 7183		; 00001c0fH
  00141	32 c9		 xor	 cl, cl
  00143	66 3b c2	 cmp	 ax, dx
  00146	75 65		 jne	 SHORT $LN16@PickUP

; 1479 : 			{
; 1480 : 				if(lpUser->m_OfflinePickZen == true)

  00148	80 bb e0 28 00
	00 01		 cmp	 BYTE PTR [ebx+10464], 1
  0014f	75 5c		 jne	 SHORT $LN16@PickUP

; 1481 : 				{
; 1482 : 					if(MapC[map_num].ItemGive(aIndex, item_num, false) == TRUE)

  00151	8b 45 fc	 mov	 eax, DWORD PTR _item_num$215596[ebp]
  00154	8b 4d 08	 mov	 ecx, DWORD PTR _aIndex$[ebp]
  00157	6a 00		 push	 0
  00159	50		 push	 eax
  0015a	51		 push	 ecx
  0015b	8d 8f 00 00 00
	00		 lea	 ecx, DWORD PTR ?MapC@@3PAVMapClass@@A[edi]
  00161	e8 00 00 00 00	 call	 ?ItemGive@MapClass@@QAEHHH_N@Z ; MapClass::ItemGive
  00166	83 f8 01	 cmp	 eax, 1
  00169	0f 85 0e 01 00
	00		 jne	 $LN23@PickUP

; 1483 : 					{
; 1484 : 						if(!gObjCheckMaxZen(aIndex, lpMapItem->m_BuyMoney))

  0016f	8b 56 99	 mov	 edx, DWORD PTR [esi-103]
  00172	8b 45 08	 mov	 eax, DWORD PTR _aIndex$[ebp]
  00175	52		 push	 edx
  00176	50		 push	 eax
  00177	e8 00 00 00 00	 call	 ?gObjCheckMaxZen@@YAHHH@Z ; gObjCheckMaxZen
  0017c	83 c4 08	 add	 esp, 8
  0017f	85 c0		 test	 eax, eax
  00181	75 1c		 jne	 SHORT $LN14@PickUP

; 1485 : 						{
; 1486 : 							if(lpUser->Money < MAX_ZEN)

  00183	b8 00 94 35 77	 mov	 eax, 2000000000		; 77359400H
  00188	39 83 f0 00 00
	00		 cmp	 DWORD PTR [ebx+240], eax
  0018e	0f 8d e9 00 00
	00		 jge	 $LN23@PickUP

; 1487 : 							{
; 1488 : 								lpUser->Money = MAX_ZEN;

  00194	89 83 f0 00 00
	00		 mov	 DWORD PTR [ebx+240], eax

; 1489 : 								continue;

  0019a	e9 de 00 00 00	 jmp	 $LN23@PickUP
$LN14@PickUP:

; 1490 : 							}
; 1491 : 						}
; 1492 : 						else
; 1493 : 						{
; 1494 : 							lpUser->Money += lpMapItem->m_BuyMoney;

  0019f	8b 4e 99	 mov	 ecx, DWORD PTR [esi-103]
  001a2	01 8b f0 00 00
	00		 add	 DWORD PTR [ebx+240], ecx

; 1495 : 						}
; 1496 : 					}
; 1497 : 					continue;

  001a8	e9 d0 00 00 00	 jmp	 $LN23@PickUP
$LN16@PickUP:

; 1498 : 				}
; 1499 : 			}
; 1500 : 			//Exellent
; 1501 : 			if(lpMapItem->m_NewOption > 0)

  001ad	80 7e c0 00	 cmp	 BYTE PTR [esi-64], 0
  001b1	76 0b		 jbe	 SHORT $LN10@PickUP

; 1502 : 			{
; 1503 : 				if(lpUser->m_OfflinePickExel == true)

  001b3	80 bb e2 28 00
	00 01		 cmp	 BYTE PTR [ebx+10466], 1
  001ba	75 02		 jne	 SHORT $LN10@PickUP

; 1504 : 				{
; 1505 : 					PickItem = true;

  001bc	b1 01		 mov	 cl, 1
$LN10@PickUP:

; 1506 : 				}
; 1507 : 			}
; 1508 : 			//Ancent
; 1509 : 			if(lpMapItem->m_SetOption > 0)

  001be	80 7e d7 00	 cmp	 BYTE PTR [esi-41], 0
  001c2	76 0b		 jbe	 SHORT $LN8@PickUP

; 1510 : 			{
; 1511 : 				if(lpUser->m_OfflinePickAnc == true)

  001c4	80 bb e3 28 00
	00 01		 cmp	 BYTE PTR [ebx+10467], 1
  001cb	75 02		 jne	 SHORT $LN8@PickUP

; 1512 : 				{
; 1513 : 					PickItem = true;

  001cd	b1 01		 mov	 cl, 1
$LN8@PickUP:

; 1514 : 				}
; 1515 : 			}
; 1516 : 			//Jewels
; 1517 : 			if(lpMapItem->m_Type == ITEMGET(12, 15) ||
; 1518 : 			   lpMapItem->m_Type == ITEMGET(14, 13) ||
; 1519 : 			   lpMapItem->m_Type == ITEMGET(14, 14) ||
; 1520 : 			   lpMapItem->m_Type == ITEMGET(14, 16) ||
; 1521 : 			   lpMapItem->m_Type == ITEMGET(14, 22) ||
; 1522 : 			   lpMapItem->m_Type == ITEMGET(14, 31) ||
; 1523 : 			   lpMapItem->m_Type == ITEMGET(14, 42))

  001cf	ba 0f 18 00 00	 mov	 edx, 6159		; 0000180fH
  001d4	66 3b c2	 cmp	 ax, dx
  001d7	74 3c		 je	 SHORT $LN6@PickUP
  001d9	ba 0d 1c 00 00	 mov	 edx, 7181		; 00001c0dH
  001de	66 3b c2	 cmp	 ax, dx
  001e1	74 32		 je	 SHORT $LN6@PickUP
  001e3	ba 0e 1c 00 00	 mov	 edx, 7182		; 00001c0eH
  001e8	66 3b c2	 cmp	 ax, dx
  001eb	74 28		 je	 SHORT $LN6@PickUP
  001ed	ba 10 1c 00 00	 mov	 edx, 7184		; 00001c10H
  001f2	66 3b c2	 cmp	 ax, dx
  001f5	74 1e		 je	 SHORT $LN6@PickUP
  001f7	ba 16 1c 00 00	 mov	 edx, 7190		; 00001c16H
  001fc	66 3b c2	 cmp	 ax, dx
  001ff	74 14		 je	 SHORT $LN6@PickUP
  00201	ba 1f 1c 00 00	 mov	 edx, 7199		; 00001c1fH
  00206	66 3b c2	 cmp	 ax, dx
  00209	74 0a		 je	 SHORT $LN6@PickUP
  0020b	ba 2a 1c 00 00	 mov	 edx, 7210		; 00001c2aH
  00210	66 3b c2	 cmp	 ax, dx
  00213	75 09		 jne	 SHORT $LN5@PickUP
$LN6@PickUP:

; 1524 : 			{
; 1525 : 				if(lpUser->m_OfflinePickJewel == true)

  00215	80 bb e1 28 00
	00 01		 cmp	 BYTE PTR [ebx+10465], 1

; 1526 : 				{
; 1527 : 					PickItem =  true;
; 1528 : 				}
; 1529 : 			}
; 1530 : 			//PickUP
; 1531 : 			if(PickItem == false)

  0021c	74 04		 je	 SHORT $LN42@PickUP
$LN5@PickUP:
  0021e	84 c9		 test	 cl, cl
  00220	74 5b		 je	 SHORT $LN23@PickUP
$LN42@PickUP:

; 1532 : 			{
; 1533 : 				continue;
; 1534 : 			}
; 1535 : 
; 1536 : 			BYTE result = ::gObjInventoryInsertItemTemp(&gObj[aIndex], lpMapItem);

  00222	8b 4d f0	 mov	 ecx, DWORD PTR tv356[ebp]
  00225	03 0d 00 00 00
	00		 add	 ecx, DWORD PTR ?gObj@@3PAUOBJECTSTRUCT@@A ; gObj
  0022b	8d be 25 ff ff
	ff		 lea	 edi, DWORD PTR [esi-219]
  00231	57		 push	 edi
  00232	51		 push	 ecx
  00233	e8 00 00 00 00	 call	 ?gObjInventoryInsertItemTemp@@YAEPAUOBJECTSTRUCT@@PAVCMapItem@@@Z ; gObjInventoryInsertItemTemp
  00238	83 c4 08	 add	 esp, 8

; 1537 : 			if (result != 0xFF)

  0023b	3c ff		 cmp	 al, 255			; 000000ffH
  0023d	74 3b		 je	 SHORT $LN43@PickUP

; 1538 : 			{
; 1539 : 				if(MapC[map_num].ItemGive(aIndex, item_num, false) == TRUE)

  0023f	8b 55 fc	 mov	 edx, DWORD PTR _item_num$215596[ebp]
  00242	8b 45 08	 mov	 eax, DWORD PTR _aIndex$[ebp]
  00245	8b 4d f8	 mov	 ecx, DWORD PTR tv370[ebp]
  00248	6a 00		 push	 0
  0024a	52		 push	 edx
  0024b	50		 push	 eax
  0024c	8d 89 00 00 00
	00		 lea	 ecx, DWORD PTR ?MapC@@3PAVMapClass@@A[ecx]
  00252	e8 00 00 00 00	 call	 ?ItemGive@MapClass@@QAEHHH_N@Z ; MapClass::ItemGive
  00257	83 f8 01	 cmp	 eax, 1
  0025a	75 1e		 jne	 SHORT $LN43@PickUP

; 1540 : 				{
; 1541 : 					BYTE pos = ::gObjInventoryInsertItem(aIndex, lpMapItem);

  0025c	8b 4d 08	 mov	 ecx, DWORD PTR _aIndex$[ebp]
  0025f	57		 push	 edi
  00260	51		 push	 ecx
  00261	e8 00 00 00 00	 call	 ?gObjInventoryInsertItem@@YAEHPAVCMapItem@@@Z ; gObjInventoryInsertItem
  00266	83 c4 08	 add	 esp, 8

; 1542 : 					if(pos != 0xFF)

  00269	3c ff		 cmp	 al, 255			; 000000ffH
  0026b	74 0d		 je	 SHORT $LN43@PickUP

; 1543 : 					{
; 1544 : 						::GCSendGetItemInfoForParty(aIndex, lpMapItem);

  0026d	8b 55 08	 mov	 edx, DWORD PTR _aIndex$[ebp]
  00270	57		 push	 edi
  00271	52		 push	 edx
  00272	e8 00 00 00 00	 call	 ?GCSendGetItemInfoForParty@@YAXHPAVCMapItem@@@Z ; GCSendGetItemInfoForParty
  00277	83 c4 08	 add	 esp, 8
$LN43@PickUP:
  0027a	8b 7d f8	 mov	 edi, DWORD PTR tv370[ebp]
$LN23@PickUP:

; 1447 : 		return;
; 1448 : 	}
; 1449 : 
; 1450 : 	for(int item_num = 0; item_num < MAX_MAPITEM; item_num++)

  0027d	8b 45 fc	 mov	 eax, DWORD PTR _item_num$215596[ebp]
  00280	40		 inc	 eax
  00281	81 c6 74 04 00
	00		 add	 esi, 1140		; 00000474H
  00287	89 45 fc	 mov	 DWORD PTR _item_num$215596[ebp], eax
  0028a	3d 2c 01 00 00	 cmp	 eax, 300		; 0000012cH
  0028f	0f 8c 0d fe ff
	ff		 jl	 $LL24@PickUP
  00295	5f		 pop	 edi
  00296	5e		 pop	 esi
$LN22@PickUP:
  00297	5b		 pop	 ebx

; 1545 : 					}
; 1546 : 				}
; 1547 : 			}
; 1548 : 		}			
; 1549 : 	}
; 1550 : }

  00298	8b e5		 mov	 esp, ebp
  0029a	5d		 pop	 ebp
  0029b	c2 04 00	 ret	 4
?PickUP@OfflineMode@@QAEXH@Z ENDP			; OfflineMode::PickUP
_TEXT	ENDS
PUBLIC	??_C@_0BD@CICILPEN@join?5send?5?3?5?$CI?$CFd?$CJ?$CFs?$AA@ ; `string'
PUBLIC	??_C@_0BB@PPEDKKBK@error?5?3?5?$CFd?5?$CFs?5?$CFd?$AA@ ; `string'
PUBLIC	??_C@_09PFCHIMEP@127?40?40?41?$AA@		; `string'
PUBLIC	_Data$GSCopy$
PUBLIC	__$ArrayPad$
PUBLIC	?DGAnsAccauntPassword@OfflineMode@@QAEXPAUPMSG_DGANS_OFFMODE_START@@@Z ; OfflineMode::DGAnsAccauntPassword
EXTRN	?DataSend@wsJoinServerCli@@QAEHPADH@Z:PROC	; wsJoinServerCli::DataSend
EXTRN	?wsJServerCli@@3VwsJoinServerCli@@A:BYTE	; wsJServerCli
EXTRN	__imp__GetTickCount@0:PROC
EXTRN	?PHeadSetB@@YAXPAEEH@Z:PROC			; PHeadSetB
EXTRN	?gObjDel@@YAFH@Z:PROC				; gObjDel
EXTRN	?GJPUserClose@@YAXPAD@Z:PROC			; GJPUserClose
EXTRN	?BuxConvert@@YAXPADH@Z:PROC			; BuxConvert
EXTRN	?gObjAdd@@YAFIPADH@Z:PROC			; gObjAdd
;	COMDAT ??_C@_0BD@CICILPEN@join?5send?5?3?5?$CI?$CFd?$CJ?$CFs?$AA@
CONST	SEGMENT
??_C@_0BD@CICILPEN@join?5send?5?3?5?$CI?$CFd?$CJ?$CFs?$AA@ DB 'join send '
	DB	': (%d)%s', 00H				; `string'
CONST	ENDS
;	COMDAT ??_C@_0BB@PPEDKKBK@error?5?3?5?$CFd?5?$CFs?5?$CFd?$AA@
CONST	SEGMENT
??_C@_0BB@PPEDKKBK@error?5?3?5?$CFd?5?$CFs?5?$CFd?$AA@ DB 'error : %d %s '
	DB	'%d', 00H					; `string'
CONST	ENDS
;	COMDAT ??_C@_09PFCHIMEP@127?40?40?41?$AA@
CONST	SEGMENT
??_C@_09PFCHIMEP@127?40?40?41?$AA@ DB '127.0.0.1', 00H	; `string'
; Function compile flags: /Ogtp
CONST	ENDS
;	COMDAT ?DGAnsAccauntPassword@OfflineMode@@QAEXPAUPMSG_DGANS_OFFMODE_START@@@Z
_TEXT	SEGMENT
_aIndex$ = -112						; size = 2
_Data$GSCopy$ = -108					; size = 4
tv449 = -104						; size = 4
_sObj$215676 = -100					; size = 4
_i$215672 = -96						; size = 4
tv417 = -92						; size = 4
tv581 = -88						; size = 4
_lpObj$ = -88						; size = 4
_spMsg$ = -84						; size = 44
_psw$ = -40						; size = 21
_id$ = -16						; size = 11
__$ArrayPad$ = -4					; size = 4
_Data$ = 8						; size = 4
?DGAnsAccauntPassword@OfflineMode@@QAEXPAUPMSG_DGANS_OFFMODE_START@@@Z PROC ; OfflineMode::DGAnsAccauntPassword, COMDAT
; _this$ = ecx

; 1651 : {

  00000	55		 push	 ebp
  00001	8b ec		 mov	 ebp, esp
  00003	83 ec 70	 sub	 esp, 112		; 00000070H
  00006	a1 00 00 00 00	 mov	 eax, DWORD PTR ___security_cookie
  0000b	33 c5		 xor	 eax, ebp
  0000d	89 45 fc	 mov	 DWORD PTR __$ArrayPad$[ebp], eax
  00010	53		 push	 ebx
  00011	8b 5d 08	 mov	 ebx, DWORD PTR _Data$[ebp]
  00014	57		 push	 edi

; 1652 : 	short aIndex = this->AddIndexPlayer();

  00015	89 5d 94	 mov	 DWORD PTR _Data$GSCopy$[ebp], ebx
  00018	e8 00 00 00 00	 call	 ?AddIndexPlayer@OfflineMode@@QAEFXZ ; OfflineMode::AddIndexPlayer
  0001d	0f b7 f8	 movzx	 edi, ax
  00020	89 7d 90	 mov	 DWORD PTR _aIndex$[ebp], edi

; 1653 : 
; 1654 : 	if(aIndex == -1)

  00023	66 83 ff ff	 cmp	 di, -1
  00027	0f 84 05 04 00
	00		 je	 $LN17@DGAnsAccau

; 1655 : 	{
; 1656 : 		return;
; 1657 : 	}
; 1658 : 
; 1659 : 	//if(!gObjIsAccontConnect(aIndex, gObj[aIndex].AccountID))
; 1660 : 	//{
; 1661 : 	//	return;
; 1662 : 	//}
; 1663 : 
; 1664 : 	if(gObj[aIndex].Connected == PLAYER_PLAYING)

  0002d	8b 0d 00 00 00
	00		 mov	 ecx, DWORD PTR ?gObj@@3PAUOBJECTSTRUCT@@A ; gObj
  00033	0f bf c7	 movsx	 eax, di
  00036	56		 push	 esi
  00037	8b f0		 mov	 esi, eax
  00039	69 f6 50 2b 00
	00		 imul	 esi, 11088		; 00002b50H
  0003f	83 7c 0e 04 03	 cmp	 DWORD PTR [esi+ecx+4], 3
  00044	89 45 a4	 mov	 DWORD PTR tv417[ebp], eax
  00047	0f 84 e4 03 00
	00		 je	 $LN28@DGAnsAccau

; 1665 : 	{
; 1666 : 		return;
; 1667 : 	}
; 1668 : 
; 1669 : 	if(gObjAdd(INVALID_SOCKET, "127.0.0.1", aIndex) == -1)

  0004d	50		 push	 eax
  0004e	68 00 00 00 00	 push	 OFFSET ??_C@_09PFCHIMEP@127?40?40?41?$AA@
  00053	6a ff		 push	 -1
  00055	e8 00 00 00 00	 call	 ?gObjAdd@@YAFIPADH@Z	; gObjAdd
  0005a	83 c4 0c	 add	 esp, 12			; 0000000cH
  0005d	66 83 f8 ff	 cmp	 ax, -1
  00061	0f 84 ca 03 00
	00		 je	 $LN28@DGAnsAccau

; 1670 : 	{
; 1671 : 		return;
; 1672 : 	}
; 1673 : 
; 1674 : 	if(!OBJMAX_RANGE(aIndex))

  00067	66 85 ff	 test	 di, di
  0006a	0f 88 c1 03 00
	00		 js	 $LN28@DGAnsAccau
  00070	33 c0		 xor	 eax, eax
  00072	ba 97 3a 00 00	 mov	 edx, 14999		; 00003a97H
  00077	66 3b fa	 cmp	 di, dx
  0007a	0f 9e c0	 setle	 al
  0007d	85 c0		 test	 eax, eax
  0007f	0f 84 ac 03 00
	00		 je	 $LN28@DGAnsAccau

; 1675 : 	{
; 1676 : 		return;
; 1677 : 	}
; 1678 : 
; 1679 : 	char id[11] = { 0 };
; 1680 : 	memcpy(id, Data->AccountID, sizeof(Data->AccountID));

  00085	8b 43 08	 mov	 eax, DWORD PTR [ebx+8]
  00088	0f b7 53 0c	 movzx	 edx, WORD PTR [ebx+12]
  0008c	8b 4b 04	 mov	 ecx, DWORD PTR [ebx+4]
  0008f	89 45 f4	 mov	 DWORD PTR _id$[ebp+4], eax
  00092	0f b6 43 0e	 movzx	 eax, BYTE PTR [ebx+14]
  00096	66 89 55 f8	 mov	 WORD PTR _id$[ebp+8], dx

; 1681 : 	memcpy(gObj[aIndex].AccountID, id, sizeof(Data->AccountID));

  0009a	8b 15 00 00 00
	00		 mov	 edx, DWORD PTR ?gObj@@3PAUOBJECTSTRUCT@@A ; gObj
  000a0	88 45 fa	 mov	 BYTE PTR _id$[ebp+10], al
  000a3	89 4d f0	 mov	 DWORD PTR _id$[ebp], ecx
  000a6	89 4c 16 6c	 mov	 DWORD PTR [esi+edx+108], ecx
  000aa	8b 4d f4	 mov	 ecx, DWORD PTR _id$[ebp+4]
  000ad	89 4c 16 70	 mov	 DWORD PTR [esi+edx+112], ecx
  000b1	8d 7b 04	 lea	 edi, DWORD PTR [ebx+4]
  000b4	8d 44 16 6c	 lea	 eax, DWORD PTR [esi+edx+108]
  000b8	0f b7 55 f8	 movzx	 edx, WORD PTR _id$[ebp+8]
  000bc	66 89 50 08	 mov	 WORD PTR [eax+8], dx
  000c0	0f b6 4d fa	 movzx	 ecx, BYTE PTR _id$[ebp+10]
  000c4	88 48 0a	 mov	 BYTE PTR [eax+10], cl

; 1682 : 	memcpy(gObj[aIndex].Name, Data->Name, sizeof(Data->Name));

  000c7	8b 15 00 00 00
	00		 mov	 edx, DWORD PTR ?gObj@@3PAUOBJECTSTRUCT@@A ; gObj
  000cd	8b 4b 1a	 mov	 ecx, DWORD PTR [ebx+26]
  000d0	89 4c 16 77	 mov	 DWORD PTR [esi+edx+119], ecx
  000d4	8d 44 16 77	 lea	 eax, DWORD PTR [esi+edx+119]
  000d8	8b 53 1e	 mov	 edx, DWORD PTR [ebx+30]
  000db	89 50 04	 mov	 DWORD PTR [eax+4], edx
  000de	66 8b 4b 22	 mov	 cx, WORD PTR [ebx+34]
  000e2	66 89 48 08	 mov	 WORD PTR [eax+8], cx
  000e6	8a 53 24	 mov	 dl, BYTE PTR [ebx+36]
  000e9	88 50 0a	 mov	 BYTE PTR [eax+10], dl

; 1683 : 
; 1684 : 	//#if(CUSTOM_PASSWORD==TRUE)
; 1685 : 	char psw[21] = { 0 };
; 1686 : 	memcpy(psw, Data->Password, sizeof(Data->Password));

  000ec	0f b7 53 17	 movzx	 edx, WORD PTR [ebx+23]
  000f0	8b 4b 0f	 mov	 ecx, DWORD PTR [ebx+15]
  000f3	33 c0		 xor	 eax, eax
  000f5	89 45 e1	 mov	 DWORD PTR _psw$[ebp+9], eax
  000f8	89 45 dd	 mov	 DWORD PTR _psw$[ebp+5], eax
  000fb	89 45 d9	 mov	 DWORD PTR _psw$[ebp+1], eax
  000fe	89 45 e5	 mov	 DWORD PTR _psw$[ebp+13], eax
  00101	89 45 e9	 mov	 DWORD PTR _psw$[ebp+17], eax
  00104	8b 43 13	 mov	 eax, DWORD PTR [ebx+19]
  00107	89 45 dc	 mov	 DWORD PTR _psw$[ebp+4], eax
  0010a	0f b6 43 19	 movzx	 eax, BYTE PTR [ebx+25]
  0010e	83 c3 0f	 add	 ebx, 15			; 0000000fH
  00111	66 89 55 e0	 mov	 WORD PTR _psw$[ebp+8], dx

; 1687 : 	memcpy(gObj[aIndex].Pass, psw, sizeof(psw));

  00115	8b 15 00 00 00
	00		 mov	 edx, DWORD PTR ?gObj@@3PAUOBJECTSTRUCT@@A ; gObj
  0011b	88 45 e2	 mov	 BYTE PTR _psw$[ebp+10], al
  0011e	8d 84 16 82 00
	00 00		 lea	 eax, DWORD PTR [esi+edx+130]
  00125	89 4d d8	 mov	 DWORD PTR _psw$[ebp], ecx
  00128	89 08		 mov	 DWORD PTR [eax], ecx
  0012a	8b 4d dc	 mov	 ecx, DWORD PTR _psw$[ebp+4]
  0012d	89 48 04	 mov	 DWORD PTR [eax+4], ecx
  00130	8b 55 e0	 mov	 edx, DWORD PTR _psw$[ebp+8]
  00133	89 50 08	 mov	 DWORD PTR [eax+8], edx
  00136	8b 4d e4	 mov	 ecx, DWORD PTR _psw$[ebp+12]
  00139	89 48 0c	 mov	 DWORD PTR [eax+12], ecx
  0013c	8b 55 e8	 mov	 edx, DWORD PTR _psw$[ebp+16]
  0013f	89 50 10	 mov	 DWORD PTR [eax+16], edx
  00142	0f b6 4d ec	 movzx	 ecx, BYTE PTR _psw$[ebp+20]
  00146	88 48 14	 mov	 BYTE PTR [eax+20], cl

; 1688 : 	gObj[aIndex].Pass[10] = 0;

  00149	8b 15 00 00 00
	00		 mov	 edx, DWORD PTR ?gObj@@3PAUOBJECTSTRUCT@@A ; gObj
  0014f	b8 80 76 97 08	 mov	 eax, 144144000		; 08977680H
  00154	c6 84 16 8c 00
	00 00 00	 mov	 BYTE PTR [esi+edx+140], 0

; 1689 : 	//#endif
; 1690 : 
; 1691 : 	for(int i = OBJ_MAXMONSTER; i < OBJMAX; i++)

  0015c	c7 45 a0 c8 32
	00 00		 mov	 DWORD PTR _i$215672[ebp], 13000 ; 000032c8H
  00163	89 45 a8	 mov	 DWORD PTR tv581[ebp], eax
  00166	eb 08 8d a4 24
	00 00 00 00 90	 npad	 10
$LL12@DGAnsAccau:

; 1692 : 	{
; 1693 : 		LPOBJ sObj = &gObj[i];

  00170	8b 0d 00 00 00
	00		 mov	 ecx, DWORD PTR ?gObj@@3PAUOBJECTSTRUCT@@A ; gObj
  00176	03 c8		 add	 ecx, eax

; 1694 : 
; 1695 : 		if(sObj->Connected != PLAYER_PLAYING)

  00178	83 79 04 03	 cmp	 DWORD PTR [ecx+4], 3
  0017c	89 4d 9c	 mov	 DWORD PTR _sObj$215676[ebp], ecx
  0017f	75 53		 jne	 SHORT $LN11@DGAnsAccau

; 1696 : 		{
; 1697 : 			continue;
; 1698 : 		}
; 1699 : 		
; 1700 : 		if(id[0] == sObj->AccountID[0] && psw[0] == sObj->Pass[0])

  00181	8a 55 f0	 mov	 dl, BYTE PTR _id$[ebp]
  00184	83 c1 6c	 add	 ecx, 108		; 0000006cH
  00187	89 4d 98	 mov	 DWORD PTR tv449[ebp], ecx
  0018a	3a 11		 cmp	 dl, BYTE PTR [ecx]
  0018c	75 46		 jne	 SHORT $LN11@DGAnsAccau
  0018e	8b 4d 9c	 mov	 ecx, DWORD PTR _sObj$215676[ebp]
  00191	8a 55 d8	 mov	 dl, BYTE PTR _psw$[ebp]
  00194	3a 91 82 00 00
	00		 cmp	 dl, BYTE PTR [ecx+130]
  0019a	75 38		 jne	 SHORT $LN11@DGAnsAccau

; 1701 : 		{
; 1702 : 			if(!strncmp(id, sObj->AccountID, 10) && !strncmp(psw, sObj->Pass, 10))

  0019c	8b 45 98	 mov	 eax, DWORD PTR tv449[ebp]
  0019f	6a 0a		 push	 10			; 0000000aH
  001a1	50		 push	 eax
  001a2	8d 4d f0	 lea	 ecx, DWORD PTR _id$[ebp]
  001a5	51		 push	 ecx
  001a6	e8 00 00 00 00	 call	 _strncmp
  001ab	83 c4 0c	 add	 esp, 12			; 0000000cH
  001ae	85 c0		 test	 eax, eax
  001b0	75 1f		 jne	 SHORT $LN26@DGAnsAccau
  001b2	8b 45 9c	 mov	 eax, DWORD PTR _sObj$215676[ebp]
  001b5	6a 0a		 push	 10			; 0000000aH
  001b7	05 82 00 00 00	 add	 eax, 130		; 00000082H
  001bc	50		 push	 eax
  001bd	8d 55 d8	 lea	 edx, DWORD PTR _psw$[ebp]
  001c0	52		 push	 edx
  001c1	e8 00 00 00 00	 call	 _strncmp
  001c6	83 c4 0c	 add	 esp, 12			; 0000000cH
  001c9	85 c0		 test	 eax, eax
  001cb	0f 84 82 00 00
	00		 je	 $LN24@DGAnsAccau
$LN26@DGAnsAccau:
  001d1	8b 45 a8	 mov	 eax, DWORD PTR tv581[ebp]
$LN11@DGAnsAccau:

; 1689 : 	//#endif
; 1690 : 
; 1691 : 	for(int i = OBJ_MAXMONSTER; i < OBJMAX; i++)

  001d4	ff 45 a0	 inc	 DWORD PTR _i$215672[ebp]
  001d7	05 50 2b 00 00	 add	 eax, 11088		; 00002b50H
  001dc	89 45 a8	 mov	 DWORD PTR tv581[ebp], eax
  001df	3d 80 d7 e9 09	 cmp	 eax, 166320000		; 09e9d780H
  001e4	7c 8a		 jl	 SHORT $LL12@DGAnsAccau

; 1711 : 				return;
; 1712 : 			}
; 1713 : 		}
; 1714 : 	}
; 1715 : 
; 1716 : 	LPOBJ lpObj = &gObj[aIndex];

  001e6	a1 00 00 00 00	 mov	 eax, DWORD PTR ?gObj@@3PAUOBJECTSTRUCT@@A ; gObj
  001eb	8d 0c 06	 lea	 ecx, DWORD PTR [esi+eax]

; 1717 : 
; 1718 : 	BuxConvert(Data->AccountID, MAX_ACCOUNT_LEN);

  001ee	6a 0a		 push	 10			; 0000000aH
  001f0	57		 push	 edi
  001f1	89 4d a8	 mov	 DWORD PTR _lpObj$[ebp], ecx
  001f4	e8 00 00 00 00	 call	 ?BuxConvert@@YAXPADH@Z	; BuxConvert

; 1719 : 	BuxConvert(Data->Password, MAX_ACCOUNT_LEN);

  001f9	6a 0a		 push	 10			; 0000000aH
  001fb	53		 push	 ebx
  001fc	e8 00 00 00 00	 call	 ?BuxConvert@@YAXPADH@Z	; BuxConvert

; 1720 : 
; 1721 : 	GJPUserClose(id);

  00201	8d 55 f0	 lea	 edx, DWORD PTR _id$[ebp]
  00204	52		 push	 edx
  00205	e8 00 00 00 00	 call	 ?GJPUserClose@@YAXPAD@Z	; GJPUserClose

; 1722 : 
; 1723 : 	if(gObj[aIndex].Connected != PLAYER_CONNECTED)

  0020a	a1 00 00 00 00	 mov	 eax, DWORD PTR ?gObj@@3PAUOBJECTSTRUCT@@A ; gObj
  0020f	83 c4 14	 add	 esp, 20			; 00000014H
  00212	83 7c 06 04 01	 cmp	 DWORD PTR [esi+eax+4], 1
  00217	74 73		 je	 SHORT $LN5@DGAnsAccau

; 1724 : 	{
; 1725 : 		LogAdd(lMsg.Get(MSGGET(1, 218)), aIndex, id);

  00219	8b 75 a4	 mov	 esi, DWORD PTR tv417[ebp]
  0021c	8d 45 f0	 lea	 eax, DWORD PTR _id$[ebp]
  0021f	50		 push	 eax
  00220	56		 push	 esi
  00221	68 da 01 00 00	 push	 474			; 000001daH
  00226	b9 00 00 00 00	 mov	 ecx, OFFSET ?lMsg@@3VCMsg@@A ; lMsg
  0022b	e8 00 00 00 00	 call	 ?Get@CMsg@@QAEPADH@Z	; CMsg::Get
  00230	50		 push	 eax
  00231	ff 15 00 00 00
	00		 call	 DWORD PTR ?LogAdd@@3P6AXPADZZA ; LogAdd

; 1726 : 		CloseClient(aIndex);

  00237	56		 push	 esi
  00238	e8 00 00 00 00	 call	 ?CloseClient@@YAXH@Z	; CloseClient
  0023d	83 c4 10	 add	 esp, 16			; 00000010H
  00240	5e		 pop	 esi
  00241	5f		 pop	 edi
  00242	5b		 pop	 ebx

; 1772 : 	lpObj->m_btDestY = 0;
; 1773 : }

  00243	8b 4d fc	 mov	 ecx, DWORD PTR __$ArrayPad$[ebp]
  00246	33 cd		 xor	 ecx, ebp
  00248	e8 00 00 00 00	 call	 @__security_check_cookie@4
  0024d	8b e5		 mov	 esp, ebp
  0024f	5d		 pop	 ebp
  00250	c2 04 00	 ret	 4
$LN24@DGAnsAccau:

; 1703 : 			{
; 1704 : 				if(sObj->m_OfflineMode == false)

  00253	8b 45 9c	 mov	 eax, DWORD PTR _sObj$215676[ebp]
  00256	80 b8 d4 28 00
	00 00		 cmp	 BYTE PTR [eax+10452], 0
  0025d	75 0e		 jne	 SHORT $LN6@DGAnsAccau

; 1705 : 				{
; 1706 : 					#if(OFFLINE_MODE_RESTORE)
; 1707 : 					g_OfflineMode.GDReqUpdateStatus(i);

  0025f	8b 4d a0	 mov	 ecx, DWORD PTR _i$215672[ebp]
  00262	51		 push	 ecx
  00263	b9 00 00 00 00	 mov	 ecx, OFFSET ?g_OfflineMode@@3VOfflineMode@@A ; g_OfflineMode
  00268	e8 00 00 00 00	 call	 ?GDReqUpdateStatus@OfflineMode@@QAEXH@Z ; OfflineMode::GDReqUpdateStatus
$LN6@DGAnsAccau:

; 1708 : 					#endif
; 1709 : 				}
; 1710 : 				gObjDel(aIndex);

  0026d	8b 55 a4	 mov	 edx, DWORD PTR tv417[ebp]
  00270	52		 push	 edx
  00271	e8 00 00 00 00	 call	 ?gObjDel@@YAFH@Z	; gObjDel
  00276	83 c4 04	 add	 esp, 4
  00279	5e		 pop	 esi
  0027a	5f		 pop	 edi
  0027b	5b		 pop	 ebx

; 1772 : 	lpObj->m_btDestY = 0;
; 1773 : }

  0027c	8b 4d fc	 mov	 ecx, DWORD PTR __$ArrayPad$[ebp]
  0027f	33 cd		 xor	 ecx, ebp
  00281	e8 00 00 00 00	 call	 @__security_check_cookie@4
  00286	8b e5		 mov	 esp, ebp
  00288	5d		 pop	 ebp
  00289	c2 04 00	 ret	 4
$LN5@DGAnsAccau:

; 1727 : 		return;
; 1728 : 	}
; 1729 : 
; 1730 : 	if(gObj[aIndex].LoginMsgSnd != FALSE)

  0028c	8a 4c 06 08	 mov	 cl, BYTE PTR [esi+eax+8]
  00290	84 c9		 test	 cl, cl
  00292	74 6d		 je	 SHORT $LN4@DGAnsAccau

; 1731 : 	{
; 1732 : 		if(gObj[aIndex].LoginMsgSnd == TRUE)

  00294	80 f9 01	 cmp	 cl, 1
  00297	75 39		 jne	 SHORT $LN3@DGAnsAccau

; 1733 : 		{
; 1734 : 			LogAdd(lMsg.Get(MSGGET(1, 219)), aIndex, id, gObj[aIndex].Ip_addr );

  00299	8d 4c 06 18	 lea	 ecx, DWORD PTR [esi+eax+24]
  0029d	8b 45 a4	 mov	 eax, DWORD PTR tv417[ebp]
  002a0	51		 push	 ecx
  002a1	8d 55 f0	 lea	 edx, DWORD PTR _id$[ebp]
  002a4	52		 push	 edx
  002a5	50		 push	 eax
  002a6	68 db 01 00 00	 push	 475			; 000001dbH
  002ab	b9 00 00 00 00	 mov	 ecx, OFFSET ?lMsg@@3VCMsg@@A ; lMsg
  002b0	e8 00 00 00 00	 call	 ?Get@CMsg@@QAEPADH@Z	; CMsg::Get
  002b5	50		 push	 eax
  002b6	ff 15 00 00 00
	00		 call	 DWORD PTR ?LogAdd@@3P6AXPADZZA ; LogAdd
  002bc	83 c4 10	 add	 esp, 16			; 00000010H
  002bf	5e		 pop	 esi
  002c0	5f		 pop	 edi
  002c1	5b		 pop	 ebx

; 1772 : 	lpObj->m_btDestY = 0;
; 1773 : }

  002c2	8b 4d fc	 mov	 ecx, DWORD PTR __$ArrayPad$[ebp]
  002c5	33 cd		 xor	 ecx, ebp
  002c7	e8 00 00 00 00	 call	 @__security_check_cookie@4
  002cc	8b e5		 mov	 esp, ebp
  002ce	5d		 pop	 ebp
  002cf	c2 04 00	 ret	 4
$LN3@DGAnsAccau:

; 1735 : 		}
; 1736 : 		else
; 1737 : 		{
; 1738 : 			LogAdd("error : %d %s %d", gObj[aIndex].LoginMsgSnd, __FILE__, __LINE__);

  002d2	68 ca 06 00 00	 push	 1738			; 000006caH
  002d7	0f be c9	 movsx	 ecx, cl
  002da	68 00 00 00 00	 push	 OFFSET ??_C@_0BA@JOKPEPKE@OfflineMode?4cpp?$AA@
  002df	51		 push	 ecx
  002e0	68 00 00 00 00	 push	 OFFSET ??_C@_0BB@PPEDKKBK@error?5?3?5?$CFd?5?$CFs?5?$CFd?$AA@
  002e5	ff 15 00 00 00
	00		 call	 DWORD PTR ?LogAdd@@3P6AXPADZZA ; LogAdd
  002eb	83 c4 10	 add	 esp, 16			; 00000010H
  002ee	5e		 pop	 esi
  002ef	5f		 pop	 edi
  002f0	5b		 pop	 ebx

; 1772 : 	lpObj->m_btDestY = 0;
; 1773 : }

  002f1	8b 4d fc	 mov	 ecx, DWORD PTR __$ArrayPad$[ebp]
  002f4	33 cd		 xor	 ecx, ebp
  002f6	e8 00 00 00 00	 call	 @__security_check_cookie@4
  002fb	8b e5		 mov	 esp, ebp
  002fd	5d		 pop	 ebp
  002fe	c2 04 00	 ret	 4
$LN4@DGAnsAccau:

; 1739 : 		}
; 1740 : 		return;
; 1741 : 	}
; 1742 : 
; 1743 : 	if(lpObj->Connected >= PLAYER_LOGGED)

  00301	8b 55 a8	 mov	 edx, DWORD PTR _lpObj$[ebp]
  00304	83 7a 04 02	 cmp	 DWORD PTR [edx+4], 2
  00308	0f 8d 23 01 00
	00		 jge	 $LN28@DGAnsAccau

; 1744 : 	{
; 1745 : 		return;
; 1746 : 	}
; 1747 : 
; 1748 : 	SDHP_IDPASS spMsg;
; 1749 : 
; 1750 : 	PHeadSetB((LPBYTE)&spMsg, 0x01, sizeof(spMsg));

  0030e	6a 2c		 push	 44			; 0000002cH
  00310	8d 45 ac	 lea	 eax, DWORD PTR _spMsg$[ebp]
  00313	6a 01		 push	 1
  00315	50		 push	 eax
  00316	e8 00 00 00 00	 call	 ?PHeadSetB@@YAXPAEEH@Z	; PHeadSetB

; 1751 : 	spMsg.Number = aIndex;

  0031b	0f b7 4d 90	 movzx	 ecx, WORD PTR _aIndex$[ebp]

; 1752 : 	memcpy(spMsg.Id, Data->AccountID, sizeof(spMsg.Id));

  0031f	8b 17		 mov	 edx, DWORD PTR [edi]
  00321	8b 47 04	 mov	 eax, DWORD PTR [edi+4]
  00324	66 89 4d c4	 mov	 WORD PTR _spMsg$[ebp+24], cx
  00328	0f b7 4f 08	 movzx	 ecx, WORD PTR [edi+8]

; 1753 : 	memcpy(spMsg.Pass, Data->Password, sizeof(spMsg.Pass));
; 1754 : 	strcpy(spMsg.IpAddress, gObj[aIndex].Ip_addr);

  0032c	8b 3d 00 00 00
	00		 mov	 edi, DWORD PTR ?gObj@@3PAUOBJECTSTRUCT@@A ; gObj
  00332	89 55 af	 mov	 DWORD PTR _spMsg$[ebp+3], edx
  00335	8b 13		 mov	 edx, DWORD PTR [ebx]
  00337	89 45 b3	 mov	 DWORD PTR _spMsg$[ebp+7], eax
  0033a	8b 43 04	 mov	 eax, DWORD PTR [ebx+4]
  0033d	66 89 4d b7	 mov	 WORD PTR _spMsg$[ebp+11], cx
  00341	0f b7 4b 08	 movzx	 ecx, WORD PTR [ebx+8]
  00345	89 55 b9	 mov	 DWORD PTR _spMsg$[ebp+13], edx
  00348	89 45 bd	 mov	 DWORD PTR _spMsg$[ebp+17], eax
  0034b	8d 44 3e 18	 lea	 eax, DWORD PTR [esi+edi+24]
  0034f	8d 55 c6	 lea	 edx, DWORD PTR _spMsg$[ebp+26]
  00352	83 c4 0c	 add	 esp, 12			; 0000000cH
  00355	66 89 4d c1	 mov	 WORD PTR _spMsg$[ebp+21], cx
  00359	2b d0		 sub	 edx, eax
  0035b	eb 03 8d 49 00	 npad	 5
$LL21@DGAnsAccau:
  00360	8a 08		 mov	 cl, BYTE PTR [eax]
  00362	88 0c 02	 mov	 BYTE PTR [edx+eax], cl
  00365	40		 inc	 eax
  00366	84 c9		 test	 cl, cl
  00368	75 f6		 jne	 SHORT $LL21@DGAnsAccau

; 1755 : 	gObj[aIndex].CheckTick = Data->TickCount;

  0036a	8b 55 94	 mov	 edx, DWORD PTR _Data$GSCopy$[ebp]
  0036d	8b 42 28	 mov	 eax, DWORD PTR [edx+40]
  00370	89 44 3e 40	 mov	 DWORD PTR [esi+edi+64], eax

; 1756 : 	gObj[aIndex].CheckTick2 = GetTickCount();

  00374	8b 3d 00 00 00
	00		 mov	 edi, DWORD PTR __imp__GetTickCount@0
  0037a	ff d7		 call	 edi
  0037c	8b 0d 00 00 00
	00		 mov	 ecx, DWORD PTR ?gObj@@3PAUOBJECTSTRUCT@@A ; gObj
  00382	89 44 0e 48	 mov	 DWORD PTR [esi+ecx+72], eax

; 1757 : 	gObj[aIndex].ConnectCheckTime = GetTickCount();

  00386	ff d7		 call	 edi
  00388	8b 15 00 00 00
	00		 mov	 edx, DWORD PTR ?gObj@@3PAUOBJECTSTRUCT@@A ; gObj
  0038e	89 44 16 3c	 mov	 DWORD PTR [esi+edx+60], eax

; 1758 : 	gObj[aIndex].CheckSpeedHack = true;

  00392	a1 00 00 00 00	 mov	 eax, DWORD PTR ?gObj@@3PAUOBJECTSTRUCT@@A ; gObj
  00397	c6 44 06 44 01	 mov	 BYTE PTR [esi+eax+68], 1

; 1759 : 	gObj[aIndex].LoginMsgSnd = 1;

  0039c	8b 0d 00 00 00
	00		 mov	 ecx, DWORD PTR ?gObj@@3PAUOBJECTSTRUCT@@A ; gObj
  003a2	c6 44 0e 08 01	 mov	 BYTE PTR [esi+ecx+8], 1

; 1760 : 	gObj[aIndex].LoginMsgCount = 1;

  003a7	8b 15 00 00 00
	00		 mov	 edx, DWORD PTR ?gObj@@3PAUOBJECTSTRUCT@@A ; gObj
  003ad	c6 44 16 09 01	 mov	 BYTE PTR [esi+edx+9], 1

; 1761 : 	gObj[aIndex].m_cAccountItemBlock = 0;

  003b2	a1 00 00 00 00	 mov	 eax, DWORD PTR ?gObj@@3PAUOBJECTSTRUCT@@A ; gObj
  003b7	c6 84 06 14 02
	00 00 00	 mov	 BYTE PTR [esi+eax+532], 0

; 1762 : 	gObj[aIndex].m_ReOfflineMode = true;

  003bf	8b 0d 00 00 00
	00		 mov	 ecx, DWORD PTR ?gObj@@3PAUOBJECTSTRUCT@@A ; gObj
  003c5	c6 84 0e ec 28
	00 00 01	 mov	 BYTE PTR [esi+ecx+10476], 1

; 1763 : 	gObj[aIndex].ukn_30 = 0;

  003cd	8b 15 00 00 00
	00		 mov	 edx, DWORD PTR ?gObj@@3PAUOBJECTSTRUCT@@A ; gObj
  003d3	c7 44 16 30 00
	00 00 00	 mov	 DWORD PTR [esi+edx+48], 0

; 1764 : 
; 1765 : 	wsJServerCli.DataSend((char*)&spMsg, spMsg.h.size);

  003db	0f b6 45 ad	 movzx	 eax, BYTE PTR _spMsg$[ebp+1]
  003df	50		 push	 eax
  003e0	8d 4d ac	 lea	 ecx, DWORD PTR _spMsg$[ebp]
  003e3	51		 push	 ecx
  003e4	b9 00 00 00 00	 mov	 ecx, OFFSET ?wsJServerCli@@3VwsJoinServerCli@@A ; wsJServerCli
  003e9	e8 00 00 00 00	 call	 ?DataSend@wsJoinServerCli@@QAEHPADH@Z ; wsJoinServerCli::DataSend

; 1766 : 	LogAddTD("join send : (%d)%s", aIndex, gObj[aIndex].AccountID);

  003ee	8b 15 00 00 00
	00		 mov	 edx, DWORD PTR ?gObj@@3PAUOBJECTSTRUCT@@A ; gObj
  003f4	8b 4d a4	 mov	 ecx, DWORD PTR tv417[ebp]
  003f7	8d 44 16 6c	 lea	 eax, DWORD PTR [esi+edx+108]
  003fb	50		 push	 eax
  003fc	51		 push	 ecx
  003fd	68 00 00 00 00	 push	 OFFSET ??_C@_0BD@CICILPEN@join?5send?5?3?5?$CI?$CFd?$CJ?$CFs?$AA@
  00402	ff 15 00 00 00
	00		 call	 DWORD PTR ?LogAddTD@@3P6AXPADZZA ; LogAddTD

; 1767 : 	
; 1768 : 	lpObj->m_bMapSvrMoveReq = false;

  00408	8b 45 a8	 mov	 eax, DWORD PTR _lpObj$[ebp]

; 1769 : 	lpObj->m_sPrevMapSvrCode = -1; 

  0040b	83 ca ff	 or	 edx, -1
  0040e	83 c4 0c	 add	 esp, 12			; 0000000cH

; 1770 : 	lpObj->m_sDestMapNumber = -1;

  00411	0b ca		 or	 ecx, edx
  00413	c6 80 e5 1b 00
	00 00		 mov	 BYTE PTR [eax+7141], 0
  0041a	66 89 90 ec 1b
	00 00		 mov	 WORD PTR [eax+7148], dx
  00421	66 89 88 ee 1b
	00 00		 mov	 WORD PTR [eax+7150], cx

; 1771 : 	lpObj->m_btDestX = 0;

  00428	66 c7 80 f0 1b
	00 00 00 00	 mov	 WORD PTR [eax+7152], 0
$LN28@DGAnsAccau:
  00431	5e		 pop	 esi
$LN17@DGAnsAccau:

; 1772 : 	lpObj->m_btDestY = 0;
; 1773 : }

  00432	8b 4d fc	 mov	 ecx, DWORD PTR __$ArrayPad$[ebp]
  00435	5f		 pop	 edi
  00436	33 cd		 xor	 ecx, ebp
  00438	5b		 pop	 ebx
  00439	e8 00 00 00 00	 call	 @__security_check_cookie@4
  0043e	8b e5		 mov	 esp, ebp
  00440	5d		 pop	 ebp
  00441	c2 04 00	 ret	 4
?DGAnsAccauntPassword@OfflineMode@@QAEXPAUPMSG_DGANS_OFFMODE_START@@@Z ENDP ; OfflineMode::DGAnsAccauntPassword
_TEXT	ENDS
PUBLIC	?CheckBlockMap@OfflineMode@@QAE_NH@Z		; OfflineMode::CheckBlockMap
EXTRN	?CheckUser@CZtLicense@@QAE_NH@Z:PROC		; CZtLicense::CheckUser
EXTRN	?g_ZtLicense@@3VCZtLicense@@A:BYTE		; g_ZtLicense
; Function compile flags: /Ogtp
;	COMDAT ?CheckBlockMap@OfflineMode@@QAE_NH@Z
_TEXT	SEGMENT
_Map$ = 8						; size = 4
?CheckBlockMap@OfflineMode@@QAE_NH@Z PROC		; OfflineMode::CheckBlockMap, COMDAT
; _this$ = ecx

; 2123 : {

  00000	55		 push	 ebp
  00001	8b ec		 mov	 ebp, esp
  00003	56		 push	 esi
  00004	8b f1		 mov	 esi, ecx

; 2124 : 	if( g_ZtLicense.CheckUser(eZtUB::SILVER1) || g_ZtLicense.CheckUser(eZtUB::SILVER2) || g_ZtLicense.CheckUser(eZtUB::Local) )

  00006	6a 07		 push	 7
  00008	b9 00 00 00 00	 mov	 ecx, OFFSET ?g_ZtLicense@@3VCZtLicense@@A ; g_ZtLicense
  0000d	e8 00 00 00 00	 call	 ?CheckUser@CZtLicense@@QAE_NH@Z ; CZtLicense::CheckUser
  00012	84 c0		 test	 al, al
  00014	75 20		 jne	 SHORT $LN5@CheckBlock
  00016	6a 08		 push	 8
  00018	b9 00 00 00 00	 mov	 ecx, OFFSET ?g_ZtLicense@@3VCZtLicense@@A ; g_ZtLicense
  0001d	e8 00 00 00 00	 call	 ?CheckUser@CZtLicense@@QAE_NH@Z ; CZtLicense::CheckUser
  00022	84 c0		 test	 al, al
  00024	75 10		 jne	 SHORT $LN5@CheckBlock
  00026	6a 00		 push	 0
  00028	b9 00 00 00 00	 mov	 ecx, OFFSET ?g_ZtLicense@@3VCZtLicense@@A ; g_ZtLicense
  0002d	e8 00 00 00 00	 call	 ?CheckUser@CZtLicense@@QAE_NH@Z ; CZtLicense::CheckUser
  00032	84 c0		 test	 al, al
  00034	74 26		 je	 SHORT $LN2@CheckBlock
$LN5@CheckBlock:

; 2125 : 	{
; 2126 : 		for(int i = 0; i < this->m_BlockMap.size(); i++)

  00036	8b 46 2c	 mov	 eax, DWORD PTR [esi+44]
  00039	2b 46 28	 sub	 eax, DWORD PTR [esi+40]
  0003c	33 c9		 xor	 ecx, ecx
  0003e	c1 f8 02	 sar	 eax, 2
  00041	85 c0		 test	 eax, eax
  00043	74 17		 je	 SHORT $LN2@CheckBlock
  00045	8b 56 28	 mov	 edx, DWORD PTR [esi+40]
  00048	8b 75 08	 mov	 esi, DWORD PTR _Map$[ebp]
  0004b	eb 03 8d 49 00	 npad	 5
$LL4@CheckBlock:

; 2127 : 		{
; 2128 : 			if(this->m_BlockMap[i].MapNumber == Map)

  00050	39 32		 cmp	 DWORD PTR [edx], esi
  00052	74 0f		 je	 SHORT $LN14@CheckBlock

; 2125 : 	{
; 2126 : 		for(int i = 0; i < this->m_BlockMap.size(); i++)

  00054	41		 inc	 ecx
  00055	83 c2 04	 add	 edx, 4
  00058	3b c8		 cmp	 ecx, eax
  0005a	72 f4		 jb	 SHORT $LL4@CheckBlock
$LN2@CheckBlock:

; 2131 : 			}
; 2132 : 		}
; 2133 : 	}
; 2134 : 
; 2135 : 	return true;

  0005c	b0 01		 mov	 al, 1
  0005e	5e		 pop	 esi

; 2136 : }

  0005f	5d		 pop	 ebp
  00060	c2 04 00	 ret	 4
$LN14@CheckBlock:

; 2129 : 			{
; 2130 : 				return false;

  00063	32 c0		 xor	 al, al
  00065	5e		 pop	 esi

; 2136 : }

  00066	5d		 pop	 ebp
  00067	c2 04 00	 ret	 4
?CheckBlockMap@OfflineMode@@QAE_NH@Z ENDP		; OfflineMode::CheckBlockMap
_TEXT	ENDS
PUBLIC	??0?$_Vector_val@UOFFMODE_BLOCK_MAP@@V?$allocator@UOFFMODE_BLOCK_MAP@@@std@@@std@@QAE@V?$allocator@UOFFMODE_BLOCK_MAP@@@1@@Z ; std::_Vector_val<OFFMODE_BLOCK_MAP,std::allocator<OFFMODE_BLOCK_MAP> >::_Vector_val<OFFMODE_BLOCK_MAP,std::allocator<OFFMODE_BLOCK_MAP> >
; Function compile flags: /Ogtp
; File d:\program files (x86)\microsoft visual studio 10.0\vc\include\vector
;	COMDAT ??0?$_Vector_val@UOFFMODE_BLOCK_MAP@@V?$allocator@UOFFMODE_BLOCK_MAP@@@std@@@std@@QAE@V?$allocator@UOFFMODE_BLOCK_MAP@@@1@@Z
_TEXT	SEGMENT
__Al$ = 8						; size = 1
??0?$_Vector_val@UOFFMODE_BLOCK_MAP@@V?$allocator@UOFFMODE_BLOCK_MAP@@@std@@@std@@QAE@V?$allocator@UOFFMODE_BLOCK_MAP@@@1@@Z PROC ; std::_Vector_val<OFFMODE_BLOCK_MAP,std::allocator<OFFMODE_BLOCK_MAP> >::_Vector_val<OFFMODE_BLOCK_MAP,std::allocator<OFFMODE_BLOCK_MAP> >, COMDAT
; _this$ = ecx

; 426  : 		{	// construct allocator from _Al

  00000	8b c1		 mov	 eax, ecx

; 427  : 		_Myfirst = 0;

  00002	33 c9		 xor	 ecx, ecx
  00004	89 08		 mov	 DWORD PTR [eax], ecx

; 428  : 		_Mylast = 0;

  00006	89 48 04	 mov	 DWORD PTR [eax+4], ecx

; 429  : 		_Myend = 0;

  00009	89 48 08	 mov	 DWORD PTR [eax+8], ecx

; 430  : 		}

  0000c	c2 04 00	 ret	 4
??0?$_Vector_val@UOFFMODE_BLOCK_MAP@@V?$allocator@UOFFMODE_BLOCK_MAP@@@std@@@std@@QAE@V?$allocator@UOFFMODE_BLOCK_MAP@@@1@@Z ENDP ; std::_Vector_val<OFFMODE_BLOCK_MAP,std::allocator<OFFMODE_BLOCK_MAP> >::_Vector_val<OFFMODE_BLOCK_MAP,std::allocator<OFFMODE_BLOCK_MAP> >
_TEXT	ENDS
PUBLIC	?max_size@?$vector@UOFFMODE_BLOCK_MAP@@V?$allocator@UOFFMODE_BLOCK_MAP@@@std@@@std@@QBEIXZ ; std::vector<OFFMODE_BLOCK_MAP,std::allocator<OFFMODE_BLOCK_MAP> >::max_size
; Function compile flags: /Ogtp
;	COMDAT ?max_size@?$vector@UOFFMODE_BLOCK_MAP@@V?$allocator@UOFFMODE_BLOCK_MAP@@@std@@@std@@QBEIXZ
_TEXT	SEGMENT
?max_size@?$vector@UOFFMODE_BLOCK_MAP@@V?$allocator@UOFFMODE_BLOCK_MAP@@@std@@@std@@QBEIXZ PROC ; std::vector<OFFMODE_BLOCK_MAP,std::allocator<OFFMODE_BLOCK_MAP> >::max_size, COMDAT
; _this$ = ecx

; 884  : 		return (this->_Alval.max_size());

  00000	b8 ff ff ff 3f	 mov	 eax, 1073741823		; 3fffffffH

; 885  : 		}

  00005	c3		 ret	 0
?max_size@?$vector@UOFFMODE_BLOCK_MAP@@V?$allocator@UOFFMODE_BLOCK_MAP@@@std@@@std@@QBEIXZ ENDP ; std::vector<OFFMODE_BLOCK_MAP,std::allocator<OFFMODE_BLOCK_MAP> >::max_size
_TEXT	ENDS
PUBLIC	?_Grow_to@?$vector@UOFFMODE_BLOCK_MAP@@V?$allocator@UOFFMODE_BLOCK_MAP@@@std@@@std@@IBEII@Z ; std::vector<OFFMODE_BLOCK_MAP,std::allocator<OFFMODE_BLOCK_MAP> >::_Grow_to
; Function compile flags: /Ogtp
;	COMDAT ?_Grow_to@?$vector@UOFFMODE_BLOCK_MAP@@V?$allocator@UOFFMODE_BLOCK_MAP@@@std@@@std@@IBEII@Z
_TEXT	SEGMENT
__Count$ = 8						; size = 4
?_Grow_to@?$vector@UOFFMODE_BLOCK_MAP@@V?$allocator@UOFFMODE_BLOCK_MAP@@@std@@@std@@IBEII@Z PROC ; std::vector<OFFMODE_BLOCK_MAP,std::allocator<OFFMODE_BLOCK_MAP> >::_Grow_to, COMDAT
; _this$ = ecx

; 1274 : 		{	// grow by 50% or at least to _Count

  00000	55		 push	 ebp
  00001	8b ec		 mov	 ebp, esp

; 1275 : 		size_type _Capacity = capacity();

  00003	8b 41 08	 mov	 eax, DWORD PTR [ecx+8]
  00006	2b 01		 sub	 eax, DWORD PTR [ecx]

; 1276 : 
; 1277 : 		_Capacity = max_size() - _Capacity / 2 < _Capacity
; 1278 : 			? 0 : _Capacity + _Capacity / 2;	// try to grow by 50%

  00008	ba ff ff ff 3f	 mov	 edx, 1073741823		; 3fffffffH
  0000d	c1 f8 02	 sar	 eax, 2
  00010	8b c8		 mov	 ecx, eax
  00012	d1 e9		 shr	 ecx, 1
  00014	2b d1		 sub	 edx, ecx
  00016	3b d0		 cmp	 edx, eax
  00018	73 04		 jae	 SHORT $LN4@Grow_to
  0001a	33 c0		 xor	 eax, eax
  0001c	eb 02		 jmp	 SHORT $LN5@Grow_to
$LN4@Grow_to:
  0001e	03 c1		 add	 eax, ecx
$LN5@Grow_to:

; 1279 : 		if (_Capacity < _Count)

  00020	8b 4d 08	 mov	 ecx, DWORD PTR __Count$[ebp]
  00023	3b c1		 cmp	 eax, ecx
  00025	73 02		 jae	 SHORT $LN1@Grow_to

; 1280 : 			_Capacity = _Count;
; 1281 : 		return (_Capacity);

  00027	8b c1		 mov	 eax, ecx
$LN1@Grow_to:

; 1282 : 		}

  00029	5d		 pop	 ebp
  0002a	c2 04 00	 ret	 4
?_Grow_to@?$vector@UOFFMODE_BLOCK_MAP@@V?$allocator@UOFFMODE_BLOCK_MAP@@@std@@@std@@IBEII@Z ENDP ; std::vector<OFFMODE_BLOCK_MAP,std::allocator<OFFMODE_BLOCK_MAP> >::_Grow_to
_TEXT	ENDS
PUBLIC	??0?$_Vector_const_iterator@V?$_Vector_val@UOFFMODE_BLOCK_MAP@@V?$allocator@UOFFMODE_BLOCK_MAP@@@std@@@std@@@std@@QAE@PAUOFFMODE_BLOCK_MAP@@PBU_Container_base0@1@@Z ; std::_Vector_const_iterator<std::_Vector_val<OFFMODE_BLOCK_MAP,std::allocator<OFFMODE_BLOCK_MAP> > >::_Vector_const_iterator<std::_Vector_val<OFFMODE_BLOCK_MAP,std::allocator<OFFMODE_BLOCK_MAP> > >
; Function compile flags: /Ogtp
;	COMDAT ??0?$_Vector_const_iterator@V?$_Vector_val@UOFFMODE_BLOCK_MAP@@V?$allocator@UOFFMODE_BLOCK_MAP@@@std@@@std@@@std@@QAE@PAUOFFMODE_BLOCK_MAP@@PBU_Container_base0@1@@Z
_TEXT	SEGMENT
__Parg$ = 8						; size = 4
__Pvector$ = 12						; size = 4
??0?$_Vector_const_iterator@V?$_Vector_val@UOFFMODE_BLOCK_MAP@@V?$allocator@UOFFMODE_BLOCK_MAP@@@std@@@std@@@std@@QAE@PAUOFFMODE_BLOCK_MAP@@PBU_Container_base0@1@@Z PROC ; std::_Vector_const_iterator<std::_Vector_val<OFFMODE_BLOCK_MAP,std::allocator<OFFMODE_BLOCK_MAP> > >::_Vector_const_iterator<std::_Vector_val<OFFMODE_BLOCK_MAP,std::allocator<OFFMODE_BLOCK_MAP> > >, COMDAT
; _this$ = ecx

; 45   : 		{	// construct with pointer _Parg

  00000	55		 push	 ebp
  00001	8b ec		 mov	 ebp, esp
  00003	8b c1		 mov	 eax, ecx
  00005	8b 4d 08	 mov	 ecx, DWORD PTR __Parg$[ebp]
  00008	89 08		 mov	 DWORD PTR [eax], ecx

; 46   : 		this->_Adopt(_Pvector);
; 47   : 		}

  0000a	5d		 pop	 ebp
  0000b	c2 08 00	 ret	 8
??0?$_Vector_const_iterator@V?$_Vector_val@UOFFMODE_BLOCK_MAP@@V?$allocator@UOFFMODE_BLOCK_MAP@@@std@@@std@@@std@@QAE@PAUOFFMODE_BLOCK_MAP@@PBU_Container_base0@1@@Z ENDP ; std::_Vector_const_iterator<std::_Vector_val<OFFMODE_BLOCK_MAP,std::allocator<OFFMODE_BLOCK_MAP> > >::_Vector_const_iterator<std::_Vector_val<OFFMODE_BLOCK_MAP,std::allocator<OFFMODE_BLOCK_MAP> > >
_TEXT	ENDS
PUBLIC	??8?$_Vector_const_iterator@V?$_Vector_val@UOFFMODE_BLOCK_MAP@@V?$allocator@UOFFMODE_BLOCK_MAP@@@std@@@std@@@std@@QBE_NABV01@@Z ; std::_Vector_const_iterator<std::_Vector_val<OFFMODE_BLOCK_MAP,std::allocator<OFFMODE_BLOCK_MAP> > >::operator==
; Function compile flags: /Ogtp
;	COMDAT ??8?$_Vector_const_iterator@V?$_Vector_val@UOFFMODE_BLOCK_MAP@@V?$allocator@UOFFMODE_BLOCK_MAP@@@std@@@std@@@std@@QBE_NABV01@@Z
_TEXT	SEGMENT
__Right$ = 8						; size = 4
??8?$_Vector_const_iterator@V?$_Vector_val@UOFFMODE_BLOCK_MAP@@V?$allocator@UOFFMODE_BLOCK_MAP@@@std@@@std@@@std@@QBE_NABV01@@Z PROC ; std::_Vector_const_iterator<std::_Vector_val<OFFMODE_BLOCK_MAP,std::allocator<OFFMODE_BLOCK_MAP> > >::operator==, COMDAT
; _this$ = ecx

; 201  : 		{	// test for iterator equality

  00000	55		 push	 ebp
  00001	8b ec		 mov	 ebp, esp

; 202  : 		_Compat(_Right);
; 203  : 		return (this->_Ptr == _Right._Ptr);

  00003	8b 01		 mov	 eax, DWORD PTR [ecx]
  00005	8b 55 08	 mov	 edx, DWORD PTR __Right$[ebp]
  00008	33 c9		 xor	 ecx, ecx
  0000a	3b 02		 cmp	 eax, DWORD PTR [edx]
  0000c	0f 94 c0	 sete	 al

; 204  : 		}

  0000f	5d		 pop	 ebp
  00010	c2 04 00	 ret	 4
??8?$_Vector_const_iterator@V?$_Vector_val@UOFFMODE_BLOCK_MAP@@V?$allocator@UOFFMODE_BLOCK_MAP@@@std@@@std@@@std@@QBE_NABV01@@Z ENDP ; std::_Vector_const_iterator<std::_Vector_val<OFFMODE_BLOCK_MAP,std::allocator<OFFMODE_BLOCK_MAP> > >::operator==
_TEXT	ENDS
PUBLIC	??$_Cons_val@V?$allocator@UOFFMODE_BLOCK_MAP@@@std@@UOFFMODE_BLOCK_MAP@@AAU3@@std@@YAXAAV?$allocator@UOFFMODE_BLOCK_MAP@@@0@PAUOFFMODE_BLOCK_MAP@@AAU2@@Z ; std::_Cons_val<std::allocator<OFFMODE_BLOCK_MAP>,OFFMODE_BLOCK_MAP,OFFMODE_BLOCK_MAP &>
; Function compile flags: /Ogtp
; File d:\program files (x86)\microsoft visual studio 10.0\vc\include\xmemory
;	COMDAT ??$_Cons_val@V?$allocator@UOFFMODE_BLOCK_MAP@@@std@@UOFFMODE_BLOCK_MAP@@AAU3@@std@@YAXAAV?$allocator@UOFFMODE_BLOCK_MAP@@@0@PAUOFFMODE_BLOCK_MAP@@AAU2@@Z
_TEXT	SEGMENT
__Alval$ = 8						; size = 4
__Pdest$ = 12						; size = 4
__Src$ = 16						; size = 4
??$_Cons_val@V?$allocator@UOFFMODE_BLOCK_MAP@@@std@@UOFFMODE_BLOCK_MAP@@AAU3@@std@@YAXAAV?$allocator@UOFFMODE_BLOCK_MAP@@@0@PAUOFFMODE_BLOCK_MAP@@AAU2@@Z PROC ; std::_Cons_val<std::allocator<OFFMODE_BLOCK_MAP>,OFFMODE_BLOCK_MAP,OFFMODE_BLOCK_MAP &>, COMDAT

; 279  : 	{	// construct using allocator

  00000	55		 push	 ebp
  00001	8b ec		 mov	 ebp, esp

; 280  : 	_Alval.construct(_Pdest, _STD forward<_Ty2>(_Src));

  00003	8b 45 0c	 mov	 eax, DWORD PTR __Pdest$[ebp]
  00006	85 c0		 test	 eax, eax
  00008	74 07		 je	 SHORT $LN7@Cons_val
  0000a	8b 4d 10	 mov	 ecx, DWORD PTR __Src$[ebp]
  0000d	8b 11		 mov	 edx, DWORD PTR [ecx]
  0000f	89 10		 mov	 DWORD PTR [eax], edx
$LN7@Cons_val:

; 281  : 	}

  00011	5d		 pop	 ebp
  00012	c3		 ret	 0
??$_Cons_val@V?$allocator@UOFFMODE_BLOCK_MAP@@@std@@UOFFMODE_BLOCK_MAP@@AAU3@@std@@YAXAAV?$allocator@UOFFMODE_BLOCK_MAP@@@0@PAUOFFMODE_BLOCK_MAP@@AAU2@@Z ENDP ; std::_Cons_val<std::allocator<OFFMODE_BLOCK_MAP>,OFFMODE_BLOCK_MAP,OFFMODE_BLOCK_MAP &>
_TEXT	ENDS
PUBLIC	__TI2?AVbad_alloc@std@@
PUBLIC	??$_Allocate@UOFFMODE_BLOCK_MAP@@@std@@YAPAUOFFMODE_BLOCK_MAP@@IPAU1@@Z ; std::_Allocate<OFFMODE_BLOCK_MAP>
PUBLIC	__CTA2?AVbad_alloc@std@@
PUBLIC	__CT??_R0?AVbad_alloc@std@@@8??0bad_alloc@std@@QAE@ABV01@@Z12
PUBLIC	??0bad_alloc@std@@QAE@ABV01@@Z			; std::bad_alloc::bad_alloc
PUBLIC	__CT??_R0?AVexception@std@@@8??0exception@std@@QAE@ABV01@@Z12
EXTRN	??2@YAPAXI@Z:PROC				; operator new
EXTRN	__CxxThrowException@8:PROC
EXTRN	??0exception@std@@QAE@ABV01@@Z:PROC		; std::exception::exception
;	COMDAT __CT??_R0?AVexception@std@@@8??0exception@std@@QAE@ABV01@@Z12
; File d:\program files (x86)\microsoft visual studio 10.0\vc\include\exception
xdata$x	SEGMENT
__CT??_R0?AVexception@std@@@8??0exception@std@@QAE@ABV01@@Z12 DD 00H
	DD	FLAT:??_R0?AVexception@std@@@8
	DD	00H
	DD	0ffffffffH
	ORG $+4
	DD	0cH
	DD	FLAT:??0exception@std@@QAE@ABV01@@Z
xdata$x	ENDS
;	COMDAT __CT??_R0?AVbad_alloc@std@@@8??0bad_alloc@std@@QAE@ABV01@@Z12
xdata$x	SEGMENT
__CT??_R0?AVbad_alloc@std@@@8??0bad_alloc@std@@QAE@ABV01@@Z12 DD 00H
	DD	FLAT:??_R0?AVbad_alloc@std@@@8
	DD	00H
	DD	0ffffffffH
	ORG $+4
	DD	0cH
	DD	FLAT:??0bad_alloc@std@@QAE@ABV01@@Z
xdata$x	ENDS
;	COMDAT __CTA2?AVbad_alloc@std@@
xdata$x	SEGMENT
__CTA2?AVbad_alloc@std@@ DD 02H
	DD	FLAT:__CT??_R0?AVbad_alloc@std@@@8??0bad_alloc@std@@QAE@ABV01@@Z12
	DD	FLAT:__CT??_R0?AVexception@std@@@8??0exception@std@@QAE@ABV01@@Z12
xdata$x	ENDS
;	COMDAT __TI2?AVbad_alloc@std@@
xdata$x	SEGMENT
__TI2?AVbad_alloc@std@@ DD 00H
	DD	FLAT:??1bad_alloc@std@@UAE@XZ
	DD	00H
	DD	FLAT:__CTA2?AVbad_alloc@std@@
; Function compile flags: /Ogtp
; File d:\program files (x86)\microsoft visual studio 10.0\vc\include\xmemory
xdata$x	ENDS
;	COMDAT ??$_Allocate@UOFFMODE_BLOCK_MAP@@@std@@YAPAUOFFMODE_BLOCK_MAP@@IPAU1@@Z
_TEXT	SEGMENT
$T217409 = -12						; size = 12
$T217414 = 8						; size = 4
__Count$ = 8						; size = 4
___formal$ = 12						; size = 4
??$_Allocate@UOFFMODE_BLOCK_MAP@@@std@@YAPAUOFFMODE_BLOCK_MAP@@IPAU1@@Z PROC ; std::_Allocate<OFFMODE_BLOCK_MAP>, COMDAT

; 30   : 	{	// allocate storage for _Count elements of type _Ty

  00000	55		 push	 ebp
  00001	8b ec		 mov	 ebp, esp

; 31   : 	void *_Ptr = 0;
; 32   : 
; 33   : 	if (_Count <= 0)

  00003	8b 4d 08	 mov	 ecx, DWORD PTR __Count$[ebp]
  00006	83 ec 0c	 sub	 esp, 12			; 0000000cH
  00009	33 c0		 xor	 eax, eax
  0000b	85 c9		 test	 ecx, ecx

; 34   : 		_Count = 0;
; 35   : 	else if (((_SIZT)(-1) / sizeof (_Ty) < _Count)

  0000d	74 44		 je	 SHORT $LN5@Allocate

; 36   : 		|| (_Ptr = ::operator new(_Count * sizeof (_Ty))) == 0)

  0000f	81 f9 ff ff ff
	3f		 cmp	 ecx, 1073741823		; 3fffffffH
  00015	77 14		 ja	 SHORT $LN1@Allocate
  00017	8d 04 8d 00 00
	00 00		 lea	 eax, DWORD PTR [ecx*4]
  0001e	50		 push	 eax
  0001f	e8 00 00 00 00	 call	 ??2@YAPAXI@Z		; operator new
  00024	83 c4 04	 add	 esp, 4
  00027	85 c0		 test	 eax, eax

; 38   : 
; 39   : 	return ((_Ty _FARQ *)_Ptr);

  00029	75 28		 jne	 SHORT $LN5@Allocate
$LN1@Allocate:

; 37   : 		_THROW_NCEE(bad_alloc, 0);

  0002b	8d 4d 08	 lea	 ecx, DWORD PTR $T217414[ebp]
  0002e	51		 push	 ecx
  0002f	8d 4d f4	 lea	 ecx, DWORD PTR $T217409[ebp]
  00032	c7 45 08 00 00
	00 00		 mov	 DWORD PTR $T217414[ebp], 0
  00039	e8 00 00 00 00	 call	 ??0exception@std@@QAE@ABQBD@Z ; std::exception::exception
  0003e	68 00 00 00 00	 push	 OFFSET __TI2?AVbad_alloc@std@@
  00043	8d 55 f4	 lea	 edx, DWORD PTR $T217409[ebp]
  00046	52		 push	 edx
  00047	c7 45 f4 00 00
	00 00		 mov	 DWORD PTR $T217409[ebp], OFFSET ??_7bad_alloc@std@@6B@
  0004e	e8 00 00 00 00	 call	 __CxxThrowException@8
$LN10@Allocate:
$LN5@Allocate:

; 40   : 	}

  00053	8b e5		 mov	 esp, ebp
  00055	5d		 pop	 ebp
  00056	c3		 ret	 0
$LN9@Allocate:
??$_Allocate@UOFFMODE_BLOCK_MAP@@@std@@YAPAUOFFMODE_BLOCK_MAP@@IPAU1@@Z ENDP ; std::_Allocate<OFFMODE_BLOCK_MAP>
; Function compile flags: /Ogtp
_TEXT	ENDS
;	COMDAT ??0bad_alloc@std@@QAE@ABV01@@Z
_TEXT	SEGMENT
___that$ = 8						; size = 4
??0bad_alloc@std@@QAE@ABV01@@Z PROC			; std::bad_alloc::bad_alloc, COMDAT
; _this$ = ecx
  00000	55		 push	 ebp
  00001	8b ec		 mov	 ebp, esp
  00003	8b 45 08	 mov	 eax, DWORD PTR ___that$[ebp]
  00006	56		 push	 esi
  00007	50		 push	 eax
  00008	8b f1		 mov	 esi, ecx
  0000a	e8 00 00 00 00	 call	 ??0exception@std@@QAE@ABV01@@Z ; std::exception::exception
  0000f	c7 06 00 00 00
	00		 mov	 DWORD PTR [esi], OFFSET ??_7bad_alloc@std@@6B@
  00015	8b c6		 mov	 eax, esi
  00017	5e		 pop	 esi
  00018	5d		 pop	 ebp
  00019	c2 04 00	 ret	 4
??0bad_alloc@std@@QAE@ABV01@@Z ENDP			; std::bad_alloc::bad_alloc
_TEXT	ENDS
PUBLIC	?construct@?$allocator@UOFFMODE_BLOCK_MAP@@@std@@QAEXPAUOFFMODE_BLOCK_MAP@@ABU3@@Z ; std::allocator<OFFMODE_BLOCK_MAP>::construct
; Function compile flags: /Ogtp
;	COMDAT ?construct@?$allocator@UOFFMODE_BLOCK_MAP@@@std@@QAEXPAUOFFMODE_BLOCK_MAP@@ABU3@@Z
_TEXT	SEGMENT
__Ptr$ = 8						; size = 4
__Val$ = 12						; size = 4
?construct@?$allocator@UOFFMODE_BLOCK_MAP@@@std@@QAEXPAUOFFMODE_BLOCK_MAP@@ABU3@@Z PROC ; std::allocator<OFFMODE_BLOCK_MAP>::construct, COMDAT
; _this$ = ecx

; 196  : 		{	// construct object at _Ptr with value _Val

  00000	55		 push	 ebp
  00001	8b ec		 mov	 ebp, esp

; 197  : 		_Construct(_Ptr, _Val);

  00003	8b 45 08	 mov	 eax, DWORD PTR __Ptr$[ebp]
  00006	85 c0		 test	 eax, eax
  00008	74 07		 je	 SHORT $LN5@construct@2
  0000a	8b 4d 0c	 mov	 ecx, DWORD PTR __Val$[ebp]
  0000d	8b 11		 mov	 edx, DWORD PTR [ecx]
  0000f	89 10		 mov	 DWORD PTR [eax], edx
$LN5@construct@2:

; 198  : 		}

  00011	5d		 pop	 ebp
  00012	c2 08 00	 ret	 8
?construct@?$allocator@UOFFMODE_BLOCK_MAP@@@std@@QAEXPAUOFFMODE_BLOCK_MAP@@ABU3@@Z ENDP ; std::allocator<OFFMODE_BLOCK_MAP>::construct
_TEXT	ENDS
PUBLIC	??$_Move@PAUOFFMODE_BLOCK_MAP@@PAU1@@std@@YAPAUOFFMODE_BLOCK_MAP@@PAU1@00U_Nonscalar_ptr_iterator_tag@0@@Z ; std::_Move<OFFMODE_BLOCK_MAP *,OFFMODE_BLOCK_MAP *>
; Function compile flags: /Ogtp
; File d:\program files (x86)\microsoft visual studio 10.0\vc\include\xutility
;	COMDAT ??$_Move@PAUOFFMODE_BLOCK_MAP@@PAU1@@std@@YAPAUOFFMODE_BLOCK_MAP@@PAU1@00U_Nonscalar_ptr_iterator_tag@0@@Z
_TEXT	SEGMENT
__First$ = 8						; size = 4
__Last$ = 12						; size = 4
__Dest$ = 16						; size = 4
___formal$ = 20						; size = 1
??$_Move@PAUOFFMODE_BLOCK_MAP@@PAU1@@std@@YAPAUOFFMODE_BLOCK_MAP@@PAU1@00U_Nonscalar_ptr_iterator_tag@0@@Z PROC ; std::_Move<OFFMODE_BLOCK_MAP *,OFFMODE_BLOCK_MAP *>, COMDAT

; 2512 : 	{	// move [_First, _Last) to [_Dest, ...), arbitrary iterators

  00000	55		 push	 ebp
  00001	8b ec		 mov	 ebp, esp

; 2513 : 	for (; _First != _Last; ++_Dest, ++_First)

  00003	8b 4d 08	 mov	 ecx, DWORD PTR __First$[ebp]
  00006	8b 55 0c	 mov	 edx, DWORD PTR __Last$[ebp]
  00009	8b 45 10	 mov	 eax, DWORD PTR __Dest$[ebp]
  0000c	3b ca		 cmp	 ecx, edx
  0000e	74 10		 je	 SHORT $LN1@Move
  00010	56		 push	 esi
$LL3@Move:

; 2514 : 		*_Dest = _STD move(*_First);

  00011	8b 31		 mov	 esi, DWORD PTR [ecx]
  00013	89 30		 mov	 DWORD PTR [eax], esi
  00015	83 c1 04	 add	 ecx, 4
  00018	83 c0 04	 add	 eax, 4
  0001b	3b ca		 cmp	 ecx, edx
  0001d	75 f2		 jne	 SHORT $LL3@Move
  0001f	5e		 pop	 esi
$LN1@Move:

; 2515 : 	return (_Dest);
; 2516 : 	}

  00020	5d		 pop	 ebp
  00021	c3		 ret	 0
??$_Move@PAUOFFMODE_BLOCK_MAP@@PAU1@@std@@YAPAUOFFMODE_BLOCK_MAP@@PAU1@00U_Nonscalar_ptr_iterator_tag@0@@Z ENDP ; std::_Move<OFFMODE_BLOCK_MAP *,OFFMODE_BLOCK_MAP *>
_TEXT	ENDS
PUBLIC	?destroy@?$allocator@UOFFMODE_BLOCK_MAP@@@std@@QAEXPAUOFFMODE_BLOCK_MAP@@@Z ; std::allocator<OFFMODE_BLOCK_MAP>::destroy
; Function compile flags: /Ogtp
; File d:\program files (x86)\microsoft visual studio 10.0\vc\include\xmemory
;	COMDAT ?destroy@?$allocator@UOFFMODE_BLOCK_MAP@@@std@@QAEXPAUOFFMODE_BLOCK_MAP@@@Z
_TEXT	SEGMENT
__Ptr$ = 8						; size = 4
?destroy@?$allocator@UOFFMODE_BLOCK_MAP@@@std@@QAEXPAUOFFMODE_BLOCK_MAP@@@Z PROC ; std::allocator<OFFMODE_BLOCK_MAP>::destroy, COMDAT
; _this$ = ecx

; 213  : 		_Destroy(_Ptr);
; 214  : 		}

  00000	c2 04 00	 ret	 4
?destroy@?$allocator@UOFFMODE_BLOCK_MAP@@@std@@QAEXPAUOFFMODE_BLOCK_MAP@@@Z ENDP ; std::allocator<OFFMODE_BLOCK_MAP>::destroy
_TEXT	ENDS
PUBLIC	?construct@?$allocator@UOFFMODE_BLOCK_MAP@@@std@@QAEXPAUOFFMODE_BLOCK_MAP@@$$QAU3@@Z ; std::allocator<OFFMODE_BLOCK_MAP>::construct
; Function compile flags: /Ogtp
;	COMDAT ?construct@?$allocator@UOFFMODE_BLOCK_MAP@@@std@@QAEXPAUOFFMODE_BLOCK_MAP@@$$QAU3@@Z
_TEXT	SEGMENT
__Ptr$ = 8						; size = 4
__Val$ = 12						; size = 4
?construct@?$allocator@UOFFMODE_BLOCK_MAP@@@std@@QAEXPAUOFFMODE_BLOCK_MAP@@$$QAU3@@Z PROC ; std::allocator<OFFMODE_BLOCK_MAP>::construct, COMDAT
; _this$ = ecx

; 201  : 		{	// construct object at _Ptr with value _Val

  00000	55		 push	 ebp
  00001	8b ec		 mov	 ebp, esp

; 202  : 		::new ((void _FARQ *)_Ptr) _Ty(_STD forward<_Ty>(_Val));

  00003	8b 45 08	 mov	 eax, DWORD PTR __Ptr$[ebp]
  00006	85 c0		 test	 eax, eax
  00008	74 07		 je	 SHORT $LN3@construct@3
  0000a	8b 4d 0c	 mov	 ecx, DWORD PTR __Val$[ebp]
  0000d	8b 11		 mov	 edx, DWORD PTR [ecx]
  0000f	89 10		 mov	 DWORD PTR [eax], edx
$LN3@construct@3:

; 203  : 		}

  00011	5d		 pop	 ebp
  00012	c2 08 00	 ret	 8
?construct@?$allocator@UOFFMODE_BLOCK_MAP@@@std@@QAEXPAUOFFMODE_BLOCK_MAP@@$$QAU3@@Z ENDP ; std::allocator<OFFMODE_BLOCK_MAP>::construct
_TEXT	ENDS
PUBLIC	??_C@_0CF@OAEPPEMH@?$FLOfflineMode?$FN?5work?5only?5special?5@ ; `string'
PUBLIC	__$ArrayPad$
PUBLIC	?Start@OfflineMode@@QAEXPAUCG_OFFMODE_RESULT@@H@Z ; OfflineMode::Start
EXTRN	?SendClose@ConnectZt@@QAEXHH@Z:PROC		; ConnectZt::SendClose
EXTRN	?g_ConnectZt@@3VConnectZt@@A:QWORD		; g_ConnectZt
EXTRN	?AllSendServerMsg@@YAXPAD@Z:PROC		; AllSendServerMsg
EXTRN	?MsgNormal@@YAXHPADZZ:PROC			; MsgNormal
EXTRN	?GetText@CZtText@@QAEPADH@Z:PROC		; CZtText::GetText
EXTRN	?g_ZtText@@3VCZtText@@A:BYTE			; g_ZtText
;	COMDAT ??_C@_0CF@OAEPPEMH@?$FLOfflineMode?$FN?5work?5only?5special?5@
; File e:\work\tranet_version\gs\gameserver\offlinemode.cpp
CONST	SEGMENT
??_C@_0CF@OAEPPEMH@?$FLOfflineMode?$FN?5work?5only?5special?5@ DB '[Offli'
	DB	'neMode] work only special maps', 00H	; `string'
; Function compile flags: /Ogtp
CONST	ENDS
;	COMDAT ?Start@OfflineMode@@QAEXPAUCG_OFFMODE_RESULT@@H@Z
_TEXT	SEGMENT
_szBuff$215156 = -260					; size = 256
__$ArrayPad$ = -4					; size = 4
_aRecv$ = 8						; size = 4
_UserIndex$ = 12					; size = 4
?Start@OfflineMode@@QAEXPAUCG_OFFMODE_RESULT@@H@Z PROC	; OfflineMode::Start, COMDAT
; _this$ = ecx

; 114  : {

  00000	55		 push	 ebp
  00001	8b ec		 mov	 ebp, esp
  00003	81 ec 04 01 00
	00		 sub	 esp, 260		; 00000104H
  00009	a1 00 00 00 00	 mov	 eax, DWORD PTR ___security_cookie
  0000e	33 c5		 xor	 eax, ebp
  00010	89 45 fc	 mov	 DWORD PTR __$ArrayPad$[ebp], eax

; 115  : 	if(!g_ZtLicense.user.OfflineMode)

  00013	80 3d e6 00 00
	00 00		 cmp	 BYTE PTR ?g_ZtLicense@@3VCZtLicense@@A+230, 0
  0001a	53		 push	 ebx
  0001b	57		 push	 edi
  0001c	8b 7d 0c	 mov	 edi, DWORD PTR _UserIndex$[ebp]
  0001f	8b d9		 mov	 ebx, ecx
  00021	0f 84 77 01 00
	00		 je	 $LN8@Start

; 116  : 	{
; 117  : 		return;
; 118  : 	}
; 119  : 
; 120  : 	if(!gObjIsConnectedZt(UserIndex))

  00027	57		 push	 edi
  00028	e8 00 00 00 00	 call	 ?gObjIsConnectedZt@@YA_NH@Z ; gObjIsConnectedZt
  0002d	83 c4 04	 add	 esp, 4
  00030	84 c0		 test	 al, al
  00032	0f 84 66 01 00
	00		 je	 $LN8@Start

; 121  : 	{
; 122  : 		return;
; 123  : 	}
; 124  : 	
; 125  : 	LPOBJ lpUser = &gObj[UserIndex];

  00038	56		 push	 esi
  00039	8b f7		 mov	 esi, edi
  0003b	69 f6 50 2b 00
	00		 imul	 esi, 11088		; 00002b50H
  00041	03 35 00 00 00
	00		 add	 esi, DWORD PTR ?gObj@@3PAUOBJECTSTRUCT@@A ; gObj

; 126  : 
; 127  : 	if(lpUser->MapNumber == MAP_INDEX_CASTLESIEGE)

  00047	8a 86 49 01 00
	00		 mov	 al, BYTE PTR [esi+329]
  0004d	3c 1e		 cmp	 al, 30			; 0000001eH
  0004f	75 29		 jne	 SHORT $LN5@Start

; 128  : 	{
; 129  : 		MsgNormal(UserIndex,g_ZtText.GetText(42));

  00051	6a 2a		 push	 42			; 0000002aH
  00053	b9 00 00 00 00	 mov	 ecx, OFFSET ?g_ZtText@@3VCZtText@@A ; g_ZtText
  00058	e8 00 00 00 00	 call	 ?GetText@CZtText@@QAEPADH@Z ; CZtText::GetText
  0005d	50		 push	 eax
  0005e	57		 push	 edi
  0005f	e8 00 00 00 00	 call	 ?MsgNormal@@YAXHPADZZ	; MsgNormal
  00064	83 c4 08	 add	 esp, 8
  00067	5e		 pop	 esi
  00068	5f		 pop	 edi
  00069	5b		 pop	 ebx

; 183  : #else
; 184  : 	CloseClient(UserIndex);
; 185  : 	lpObj->m_OfflineMode = true;
; 186  : #endif
; 187  : }

  0006a	8b 4d fc	 mov	 ecx, DWORD PTR __$ArrayPad$[ebp]
  0006d	33 cd		 xor	 ecx, ebp
  0006f	e8 00 00 00 00	 call	 @__security_check_cookie@4
  00074	8b e5		 mov	 esp, ebp
  00076	5d		 pop	 ebp
  00077	c2 08 00	 ret	 8
$LN5@Start:

; 130  : 		return;
; 131  : 	}
; 132  : 
; 133  : 	if(!this->CheckBlockMap(lpUser->MapNumber))

  0007a	0f b6 c0	 movzx	 eax, al
  0007d	50		 push	 eax
  0007e	8b cb		 mov	 ecx, ebx
  00080	e8 00 00 00 00	 call	 ?CheckBlockMap@OfflineMode@@QAE_NH@Z ; OfflineMode::CheckBlockMap
  00085	84 c0		 test	 al, al
  00087	75 21		 jne	 SHORT $LN4@Start

; 134  : 	{
; 135  : 		MsgNormal(UserIndex,"[OfflineMode] work only special maps");

  00089	68 00 00 00 00	 push	 OFFSET ??_C@_0CF@OAEPPEMH@?$FLOfflineMode?$FN?5work?5only?5special?5@
  0008e	57		 push	 edi
  0008f	e8 00 00 00 00	 call	 ?MsgNormal@@YAXHPADZZ	; MsgNormal
  00094	83 c4 08	 add	 esp, 8
  00097	5e		 pop	 esi
  00098	5f		 pop	 edi
  00099	5b		 pop	 ebx

; 183  : #else
; 184  : 	CloseClient(UserIndex);
; 185  : 	lpObj->m_OfflineMode = true;
; 186  : #endif
; 187  : }

  0009a	8b 4d fc	 mov	 ecx, DWORD PTR __$ArrayPad$[ebp]
  0009d	33 cd		 xor	 ecx, ebp
  0009f	e8 00 00 00 00	 call	 @__security_check_cookie@4
  000a4	8b e5		 mov	 esp, ebp
  000a6	5d		 pop	 ebp
  000a7	c2 08 00	 ret	 8
$LN4@Start:

; 136  : 		return;
; 137  : 	}
; 138  : 
; 139  : 	if(/*g_ZtUser.InSafeZone(UserIndex) && */lpUser->m_bPShopOpen == true)

  000aa	80 be c4 0e 00
	00 01		 cmp	 BYTE PTR [esi+3780], 1
  000b1	0f 85 81 00 00
	00		 jne	 $LN1@Start

; 140  : 	{
; 141  : 		char szBuff[256] = { 0 };

  000b7	68 ff 00 00 00	 push	 255			; 000000ffH
  000bc	8d 8d fd fe ff
	ff		 lea	 ecx, DWORD PTR _szBuff$215156[ebp+1]
  000c2	6a 00		 push	 0
  000c4	51		 push	 ecx
  000c5	c6 85 fc fe ff
	ff 00		 mov	 BYTE PTR _szBuff$215156[ebp], 0
  000cc	e8 00 00 00 00	 call	 _memset
  000d1	83 c4 0c	 add	 esp, 12			; 0000000cH

; 142  : 		if(this->bOnlyLorenMarket && lpUser->MapNumber != 79)

  000d4	80 7b 18 00	 cmp	 BYTE PTR [ebx+24], 0
  000d8	74 32		 je	 SHORT $LN2@Start
  000da	80 be 49 01 00
	00 4f		 cmp	 BYTE PTR [esi+329], 79	; 0000004fH
  000e1	74 29		 je	 SHORT $LN2@Start

; 143  : 		{
; 144  : 			MsgNormal(UserIndex,g_ZtText.GetText(43));

  000e3	6a 2b		 push	 43			; 0000002bH
  000e5	b9 00 00 00 00	 mov	 ecx, OFFSET ?g_ZtText@@3VCZtText@@A ; g_ZtText
  000ea	e8 00 00 00 00	 call	 ?GetText@CZtText@@QAEPADH@Z ; CZtText::GetText
  000ef	50		 push	 eax
  000f0	57		 push	 edi
  000f1	e8 00 00 00 00	 call	 ?MsgNormal@@YAXHPADZZ	; MsgNormal
  000f6	83 c4 08	 add	 esp, 8
  000f9	5e		 pop	 esi
  000fa	5f		 pop	 edi
  000fb	5b		 pop	 ebx

; 183  : #else
; 184  : 	CloseClient(UserIndex);
; 185  : 	lpObj->m_OfflineMode = true;
; 186  : #endif
; 187  : }

  000fc	8b 4d fc	 mov	 ecx, DWORD PTR __$ArrayPad$[ebp]
  000ff	33 cd		 xor	 ecx, ebp
  00101	e8 00 00 00 00	 call	 @__security_check_cookie@4
  00106	8b e5		 mov	 esp, ebp
  00108	5d		 pop	 ebp
  00109	c2 08 00	 ret	 8
$LN2@Start:

; 145  : 			return;
; 146  : 		}
; 147  : 		else
; 148  : 		{
; 149  : 			sprintf_s(szBuff,g_ZtText.GetText(44),lpUser->Name);

  0010c	8d 56 77	 lea	 edx, DWORD PTR [esi+119]
  0010f	52		 push	 edx
  00110	6a 2c		 push	 44			; 0000002cH
  00112	b9 00 00 00 00	 mov	 ecx, OFFSET ?g_ZtText@@3VCZtText@@A ; g_ZtText
  00117	e8 00 00 00 00	 call	 ?GetText@CZtText@@QAEPADH@Z ; CZtText::GetText
  0011c	50		 push	 eax
  0011d	8d 85 fc fe ff
	ff		 lea	 eax, DWORD PTR _szBuff$215156[ebp]
  00123	50		 push	 eax
  00124	e8 00 00 00 00	 call	 ??$sprintf_s@$0BAA@@@YAHAAY0BAA@DPBDZZ ; sprintf_s<256>

; 150  : 			AllSendServerMsg(szBuff);

  00129	8d 8d fc fe ff
	ff		 lea	 ecx, DWORD PTR _szBuff$215156[ebp]
  0012f	51		 push	 ecx
  00130	e8 00 00 00 00	 call	 ?AllSendServerMsg@@YAXPAD@Z ; AllSendServerMsg
  00135	83 c4 10	 add	 esp, 16			; 00000010H
$LN1@Start:

; 151  : 		}
; 152  : 	}
; 153  : 
; 154  : 	lpUser->m_OfflineSkill = aRecv->Result;

  00138	8b 45 08	 mov	 eax, DWORD PTR _aRecv$[ebp]
  0013b	66 8b 50 04	 mov	 dx, WORD PTR [eax+4]
  0013f	66 89 96 d6 28
	00 00		 mov	 WORD PTR [esi+10454], dx

; 155  : 	lpUser->m_OfflineAutoBuff = aRecv->BuffResult;

  00146	80 78 06 00	 cmp	 BYTE PTR [eax+6], 0

; 156  : #if(ADD_OFFMODE_PICKUP==TRUE)
; 157  : 	lpUser->m_OfflinePickZen = aRecv->bPickZen;
; 158  : 	lpUser->m_OfflinePickJewel = aRecv->bPickJewel;
; 159  : 	lpUser->m_OfflinePickExel = aRecv->bPickExel;
; 160  : 	lpUser->m_OfflinePickAnc = aRecv->bPickAnc;
; 161  : #endif
; 162  : 
; 163  : 	#if(ADD_OFFMODE_TIMER)
; 164  : 	lpUser->m_OfflineTimerMax = aRecv->TimerMax;
; 165  : 	#endif
; 166  : 	
; 167  : 	/*
; 168  : 	if(lpUser->PremiumType <= 0 || lpUser->PremiumTime <= 0)
; 169  : 	{
; 170  : 		if(!g_ZtUser.InSafeZone(UserIndex))
; 171  : 		{
; 172  : 			if(this->StartBonusPay > lpUser->Bonus)
; 173  : 			{
; 174  : 				lpUser->m_OfflineMode = false;
; 175  : 				return;
; 176  : 			}
; 177  : 			lpUser->Bonus -= this->StartBonusPay;
; 178  : 		}
; 179  : 	}
; 180  : 	*/
; 181  : #if(_RECONNECT_==TRUE)
; 182  : 	g_ConnectZt.SendClose(UserIndex, TRUE);

  0014a	6a 01		 push	 1
  0014c	0f 95 c1	 setne	 cl
  0014f	88 8e d9 28 00
	00		 mov	 BYTE PTR [esi+10457], cl
  00155	80 78 07 00	 cmp	 BYTE PTR [eax+7], 0
  00159	57		 push	 edi
  0015a	0f 95 c2	 setne	 dl
  0015d	88 96 e0 28 00
	00		 mov	 BYTE PTR [esi+10464], dl
  00163	80 78 08 00	 cmp	 BYTE PTR [eax+8], 0
  00167	0f 95 c1	 setne	 cl
  0016a	88 8e e1 28 00
	00		 mov	 BYTE PTR [esi+10465], cl
  00170	80 78 09 00	 cmp	 BYTE PTR [eax+9], 0
  00174	0f 95 c2	 setne	 dl
  00177	88 96 e2 28 00
	00		 mov	 BYTE PTR [esi+10466], dl
  0017d	80 78 0a 00	 cmp	 BYTE PTR [eax+10], 0
  00181	0f 95 c1	 setne	 cl
  00184	88 8e e3 28 00
	00		 mov	 BYTE PTR [esi+10467], cl
  0018a	8b 50 0c	 mov	 edx, DWORD PTR [eax+12]
  0018d	b9 00 00 00 00	 mov	 ecx, OFFSET ?g_ConnectZt@@3VConnectZt@@A ; g_ConnectZt
  00192	89 96 e8 28 00
	00		 mov	 DWORD PTR [esi+10472], edx
  00198	e8 00 00 00 00	 call	 ?SendClose@ConnectZt@@QAEXHH@Z ; ConnectZt::SendClose
  0019d	5e		 pop	 esi
$LN8@Start:

; 183  : #else
; 184  : 	CloseClient(UserIndex);
; 185  : 	lpObj->m_OfflineMode = true;
; 186  : #endif
; 187  : }

  0019e	8b 4d fc	 mov	 ecx, DWORD PTR __$ArrayPad$[ebp]
  001a1	5f		 pop	 edi
  001a2	33 cd		 xor	 ecx, ebp
  001a4	5b		 pop	 ebx
  001a5	e8 00 00 00 00	 call	 @__security_check_cookie@4
  001aa	8b e5		 mov	 esp, ebp
  001ac	5d		 pop	 ebp
  001ad	c2 08 00	 ret	 8
?Start@OfflineMode@@QAEXPAUCG_OFFMODE_RESULT@@H@Z ENDP	; OfflineMode::Start
_TEXT	ENDS
PUBLIC	?Attack@OfflineMode@@QAEXH@Z			; OfflineMode::Attack
EXTRN	?GDSaveUserInfo@GameShop@@QAEXH@Z:PROC		; GameShop::GDSaveUserInfo
EXTRN	?gGameShop@@3VGameShop@@A:BYTE			; gGameShop
; Function compile flags: /Ogtp
;	COMDAT ?Attack@OfflineMode@@QAEXH@Z
_TEXT	SEGMENT
tv348 = 8						; size = 4
tv346 = 8						; size = 4
tv328 = 8						; size = 4
_UserIndex$ = 8						; size = 4
?Attack@OfflineMode@@QAEXH@Z PROC			; OfflineMode::Attack, COMDAT
; _this$ = ecx

; 191  : {

  00000	55		 push	 ebp
  00001	8b ec		 mov	 ebp, esp

; 192  : 	if(!g_ZtLicense.user.OfflineMode)

  00003	80 3d e6 00 00
	00 00		 cmp	 BYTE PTR ?g_ZtLicense@@3VCZtLicense@@A+230, 0
  0000a	53		 push	 ebx
  0000b	8b d9		 mov	 ebx, ecx
  0000d	0f 84 49 02 00
	00		 je	 $LN1@Attack

; 193  : 	{
; 194  : 		return;
; 195  : 	}
; 196  : 
; 197  : 	if ( OBJMAX_RANGE(UserIndex) == FALSE )

  00013	57		 push	 edi
  00014	8b 7d 08	 mov	 edi, DWORD PTR _UserIndex$[ebp]
  00017	85 ff		 test	 edi, edi
  00019	0f 88 3c 02 00
	00		 js	 $LN44@Attack
  0001f	33 c0		 xor	 eax, eax
  00021	81 ff 97 3a 00
	00		 cmp	 edi, 14999		; 00003a97H
  00027	0f 9e c0	 setle	 al
  0002a	85 c0		 test	 eax, eax
  0002c	0f 84 29 02 00
	00		 je	 $LN44@Attack

; 198  : 	{
; 199  : 		return;
; 200  : 	}
; 201  : 
; 202  : 	if(!gObjIsConnectedZt(UserIndex))

  00032	57		 push	 edi
  00033	e8 00 00 00 00	 call	 ?gObjIsConnectedZt@@YA_NH@Z ; gObjIsConnectedZt
  00038	83 c4 04	 add	 esp, 4
  0003b	84 c0		 test	 al, al
  0003d	0f 84 18 02 00
	00		 je	 $LN44@Attack

; 203  : 	{
; 204  : 		return;
; 205  : 	}
; 206  : 
; 207  : 	LPOBJ lpUser = &gObj[UserIndex];

  00043	56		 push	 esi
  00044	8b f7		 mov	 esi, edi
  00046	69 f6 50 2b 00
	00		 imul	 esi, 11088		; 00002b50H
  0004c	03 35 00 00 00
	00		 add	 esi, DWORD PTR ?gObj@@3PAUOBJECTSTRUCT@@A ; gObj

; 208  : 
; 209  : 	if(lpUser->m_OfflineMode == false) 

  00052	80 be d4 28 00
	00 00		 cmp	 BYTE PTR [esi+10452], 0
  00059	0f 84 fb 01 00
	00		 je	 $LN45@Attack

; 210  : 	{
; 211  : 		return;
; 212  : 	}
; 213  : 
; 214  : 	if(g_ZtUser.InSafeZone(UserIndex) == true)

  0005f	57		 push	 edi
  00060	b9 00 00 00 00	 mov	 ecx, OFFSET ?g_ZtUser@@3VZtUser@@A ; g_ZtUser
  00065	e8 00 00 00 00	 call	 ?InSafeZone@ZtUser@@QAE_NH@Z ; ZtUser::InSafeZone
  0006a	3c 01		 cmp	 al, 1
  0006c	0f 84 e8 01 00
	00		 je	 $LN45@Attack

; 215  : 	{
; 216  : 		return;
; 217  : 	}
; 218  : 
; 219  : 	if(!lpUser->m_OfflineSkill && !lpUser->m_OfflineAutoBuff)

  00072	66 83 be d6 28
	00 00 00	 cmp	 WORD PTR [esi+10454], 0
  0007a	75 0d		 jne	 SHORT $LN32@Attack
  0007c	80 be d9 28 00
	00 00		 cmp	 BYTE PTR [esi+10457], 0
  00083	0f 84 d1 01 00
	00		 je	 $LN45@Attack
$LN32@Attack:

; 220  : 	{
; 221  : 		return;
; 222  : 	}
; 223  : 
; 224  : 	/*
; 225  : 	if(lpUser->PremiumType <= 0 || lpUser->PremiumTime <= 0)
; 226  : 	{
; 227  : 		lpUser->m_OfflineAttackTime++;
; 228  : 		if(lpUser->m_OfflineAttackTime >= (3600*2))
; 229  : 		{
; 230  : 			if(this->HourZenPay > lpUser->Money)
; 231  : 			{
; 232  : 				lpUser->m_OfflineMode = false;
; 233  : 				return;
; 234  : 			}
; 235  : 			lpUser->Money -= this->HourZenPay;
; 236  : 			lpUser->m_OfflineAttackTime = 0;
; 237  : 		}
; 238  : 	}
; 239  : 	*/
; 240  : 
; 241  : 	bool AttackFree = false;
; 242  : 
; 243  : 	if(g_ZtLicense.CheckUser(eZtUB::SILVER1) || g_ZtLicense.CheckUser(eZtUB::SILVER2))

  00089	6a 07		 push	 7
  0008b	b9 00 00 00 00	 mov	 ecx, OFFSET ?g_ZtLicense@@3VCZtLicense@@A ; g_ZtLicense
  00090	e8 00 00 00 00	 call	 ?CheckUser@CZtLicense@@QAE_NH@Z ; CZtLicense::CheckUser
  00095	84 c0		 test	 al, al
  00097	75 10		 jne	 SHORT $LN30@Attack
  00099	6a 08		 push	 8
  0009b	b9 00 00 00 00	 mov	 ecx, OFFSET ?g_ZtLicense@@3VCZtLicense@@A ; g_ZtLicense
  000a0	e8 00 00 00 00	 call	 ?CheckUser@CZtLicense@@QAE_NH@Z ; CZtLicense::CheckUser
  000a5	84 c0		 test	 al, al
  000a7	74 1b		 je	 SHORT $LN42@Attack
$LN30@Attack:

; 244  : 	{
; 245  : 		if(lpUser->PremiumTimeType == g_PremiumSystemZt.m_iOfflineModeAttackFreePremiumRang && lpUser->PremiumTime > 0)

  000a9	8b 86 bc 22 00
	00		 mov	 eax, DWORD PTR [esi+8892]
  000af	3b 05 4c 00 00
	00		 cmp	 eax, DWORD PTR ?g_PremiumSystemZt@@3VPremiumSystemZt@@A+76
  000b5	75 0d		 jne	 SHORT $LN42@Attack
  000b7	83 be b8 22 00
	00 00		 cmp	 DWORD PTR [esi+8888], 0

; 246  : 		{
; 247  : 			AttackFree = true;
; 248  : 		}		
; 249  : 	}
; 250  : 
; 251  : 	if(AttackFree == false)

  000be	0f 8f a9 00 00
	00		 jg	 $LN20@Attack
$LN42@Attack:

; 252  : 	{
; 253  : 		if(this->PriceZen > lpUser->Money || this->PriceWcoin > lpUser->GameShop.WCoinC)

  000c4	8b 53 0c	 mov	 edx, DWORD PTR [ebx+12]
  000c7	8b 8e f0 00 00
	00		 mov	 ecx, DWORD PTR [esi+240]
  000cd	3b d1		 cmp	 edx, ecx
  000cf	0f 8f 85 01 00
	00		 jg	 $LN45@Attack
  000d5	db 43 10	 fild	 DWORD PTR [ebx+16]
  000d8	dc 9e 00 23 00
	00		 fcomp	 QWORD PTR [esi+8960]
  000de	df e0		 fnstsw	 ax
  000e0	f6 c4 41	 test	 ah, 65			; 00000041H
  000e3	0f 84 71 01 00
	00		 je	 $LN45@Attack

; 254  : 		{
; 255  : 			return;
; 256  : 		}
; 257  : 
; 258  : 		if(lpUser->m_OfflineAttackTime == 0)

  000e9	83 be dc 28 00
	00 00		 cmp	 DWORD PTR [esi+10460], 0
  000f0	75 7b		 jne	 SHORT $LN20@Attack

; 259  : 		{
; 260  : 			if(this->PriceZen > 0)

  000f2	85 d2		 test	 edx, edx
  000f4	7e 08		 jle	 SHORT $LN24@Attack

; 261  : 			{
; 262  : 				if(this->PriceZen > lpUser->Money)
; 263  : 				{
; 264  : 					lpUser->m_OfflineMode = false;
; 265  : 					return;
; 266  : 				}
; 267  : 				lpUser->Money -= this->PriceZen;

  000f6	2b ca		 sub	 ecx, edx
  000f8	89 8e f0 00 00
	00		 mov	 DWORD PTR [esi+240], ecx
$LN24@Attack:

; 268  : 			}
; 269  : 
; 270  : 			if(this->PriceWcoin > 0)

  000fe	8b 43 10	 mov	 eax, DWORD PTR [ebx+16]
  00101	89 45 08	 mov	 DWORD PTR tv328[ebp], eax
  00104	85 c0		 test	 eax, eax
  00106	7e 27		 jle	 SHORT $LN22@Attack

; 271  : 			{
; 272  : 				if(this->PriceWcoin > lpUser->GameShop.WCoinC)

  00108	db 45 08	 fild	 DWORD PTR tv328[ebp]
  0010b	dc 96 00 23 00
	00		 fcom	 QWORD PTR [esi+8960]
  00111	df e0		 fnstsw	 ax
  00113	f6 c4 41	 test	 ah, 65			; 00000041H

; 273  : 				{
; 274  : 					lpUser->m_OfflineMode = false;
; 275  : 					return;

  00116	74 39		 je	 SHORT $LN54@Attack

; 276  : 				}
; 277  : 				lpUser->GameShop.WCoinC -= this->PriceWcoin;

  00118	dc ae 00 23 00
	00		 fsubr	 QWORD PTR [esi+8960]

; 278  : 				gGameShop.GDSaveUserInfo(UserIndex);

  0011e	57		 push	 edi
  0011f	b9 00 00 00 00	 mov	 ecx, OFFSET ?gGameShop@@3VGameShop@@A ; gGameShop
  00124	dd 9e 00 23 00
	00		 fstp	 QWORD PTR [esi+8960]
  0012a	e8 00 00 00 00	 call	 ?GDSaveUserInfo@GameShop@@QAEXH@Z ; GameShop::GDSaveUserInfo
$LN22@Attack:

; 279  : 			}
; 280  : 
; 281  : 			if(this->HourCredit > 0)

  0012f	8b 43 14	 mov	 eax, DWORD PTR [ebx+20]
  00132	89 45 08	 mov	 DWORD PTR tv346[ebp], eax
  00135	85 c0		 test	 eax, eax
  00137	7e 34		 jle	 SHORT $LN20@Attack

; 282  : 			{
; 283  : 				if(this->HourCredit > lpUser->ZtCred)

  00139	db 45 08	 fild	 DWORD PTR tv346[ebp]
  0013c	d9 5d 08	 fstp	 DWORD PTR tv348[ebp]
  0013f	d9 45 08	 fld	 DWORD PTR tv348[ebp]
  00142	d9 86 a8 22 00
	00		 fld	 DWORD PTR [esi+8872]
  00148	d8 d9		 fcomp	 ST(1)
  0014a	df e0		 fnstsw	 ax
  0014c	f6 c4 05	 test	 ah, 5
  0014f	7a 10		 jp	 SHORT $LN19@Attack
$LN54@Attack:

; 284  : 				{
; 285  : 					lpUser->m_OfflineMode = false;

  00151	c6 86 d4 28 00
	00 00		 mov	 BYTE PTR [esi+10452], 0
  00158	dd d8		 fstp	 ST(0)
  0015a	5e		 pop	 esi
  0015b	5f		 pop	 edi
  0015c	5b		 pop	 ebx

; 344  : 	}
; 345  : #endif
; 346  : }

  0015d	5d		 pop	 ebp
  0015e	c2 04 00	 ret	 4
$LN19@Attack:

; 286  : 					return;
; 287  : 				}
; 288  : 				lpUser->ZtCred -= this->HourCredit;

  00161	d8 ae a8 22 00
	00		 fsubr	 DWORD PTR [esi+8872]
  00167	d9 9e a8 22 00
	00		 fstp	 DWORD PTR [esi+8872]
$LN20@Attack:

; 289  : 			}
; 290  : 		}
; 291  : 	}
; 292  : 
; 293  : 	lpUser->m_OfflineAttackTime++;

  0016d	ff 86 dc 28 00
	00		 inc	 DWORD PTR [esi+10460]

; 294  : 	if(lpUser->m_OfflineAttackTime >= (3600*2))

  00173	81 be dc 28 00
	00 20 1c 00 00	 cmp	 DWORD PTR [esi+10460], 7200 ; 00001c20H
  0017d	7c 35		 jl	 SHORT $LN18@Attack

; 295  : 	{
; 296  : 		#if(ADD_OFFMODE_TIMER)
; 297  : 		if(g_ZtLicense.CheckUser(eZtUB::eternalmu))

  0017f	6a 4f		 push	 79			; 0000004fH
  00181	b9 00 00 00 00	 mov	 ecx, OFFSET ?g_ZtLicense@@3VCZtLicense@@A ; g_ZtLicense
  00186	e8 00 00 00 00	 call	 ?CheckUser@CZtLicense@@QAE_NH@Z ; CZtLicense::CheckUser
  0018b	84 c0		 test	 al, al
  0018d	74 1b		 je	 SHORT $LN16@Attack

; 298  : 		{
; 299  : 			lpUser->m_OfflineTimerUser++;

  0018f	ff 86 e4 28 00
	00		 inc	 DWORD PTR [esi+10468]
  00195	8b 86 e4 28 00
	00		 mov	 eax, DWORD PTR [esi+10468]

; 300  : 			if(lpUser->m_OfflineTimerUser >= lpUser->m_OfflineTimerMax)

  0019b	3b 86 e8 28 00
	00		 cmp	 eax, DWORD PTR [esi+10472]
  001a1	7c 07		 jl	 SHORT $LN16@Attack

; 301  : 			{
; 302  : 			
; 303  : 				lpUser->m_OfflineMode = false;

  001a3	c6 86 d4 28 00
	00 00		 mov	 BYTE PTR [esi+10452], 0
$LN16@Attack:

; 304  : 			}
; 305  : 		}
; 306  : 		#endif
; 307  : 		lpUser->m_OfflineAttackTime = 0;

  001aa	c7 86 dc 28 00
	00 00 00 00 00	 mov	 DWORD PTR [esi+10460], 0
$LN18@Attack:

; 308  : 	}
; 309  : 
; 310  : 	switch(lpUser->Class)

  001b4	0f b7 86 b8 00
	00 00		 movzx	 eax, WORD PTR [esi+184]
  001bb	83 f8 06	 cmp	 eax, 6
  001be	77 4b		 ja	 SHORT $LN14@Attack
  001c0	ff 24 85 00 00
	00 00		 jmp	 DWORD PTR $LN55@Attack[eax*4]
$LN13@Attack:

; 311  : 	{
; 312  : 		case 0:	this->DarkWizard(UserIndex);		break;

  001c7	57		 push	 edi
  001c8	8b cb		 mov	 ecx, ebx
  001ca	e8 00 00 00 00	 call	 ?DarkWizard@OfflineMode@@QAEXH@Z ; OfflineMode::DarkWizard
  001cf	eb 3a		 jmp	 SHORT $LN14@Attack
$LN12@Attack:

; 313  : 		case 1:	this->DarkKnight(UserIndex);		break;

  001d1	57		 push	 edi
  001d2	8b cb		 mov	 ecx, ebx
  001d4	e8 00 00 00 00	 call	 ?DarkKnight@OfflineMode@@QAEXH@Z ; OfflineMode::DarkKnight
  001d9	eb 30		 jmp	 SHORT $LN14@Attack
$LN11@Attack:

; 314  : 		case 2:	this->FairyElf(UserIndex);			break;

  001db	57		 push	 edi
  001dc	8b cb		 mov	 ecx, ebx
  001de	e8 00 00 00 00	 call	 ?FairyElf@OfflineMode@@QAEXH@Z ; OfflineMode::FairyElf
  001e3	eb 26		 jmp	 SHORT $LN14@Attack
$LN10@Attack:

; 315  : 		case 3:	this->MagicGladiator(UserIndex);	break;

  001e5	57		 push	 edi
  001e6	8b cb		 mov	 ecx, ebx
  001e8	e8 00 00 00 00	 call	 ?MagicGladiator@OfflineMode@@QAEXH@Z ; OfflineMode::MagicGladiator
  001ed	eb 1c		 jmp	 SHORT $LN14@Attack
$LN9@Attack:

; 316  : 		case 4:	this->DarkLord(UserIndex);			break;

  001ef	57		 push	 edi
  001f0	8b cb		 mov	 ecx, ebx
  001f2	e8 00 00 00 00	 call	 ?DarkLord@OfflineMode@@QAEXH@Z ; OfflineMode::DarkLord
  001f7	eb 12		 jmp	 SHORT $LN14@Attack
$LN8@Attack:

; 317  : 		case 5:	this->Summoner(UserIndex);			break;

  001f9	57		 push	 edi
  001fa	8b cb		 mov	 ecx, ebx
  001fc	e8 00 00 00 00	 call	 ?Summoner@OfflineMode@@QAEXH@Z ; OfflineMode::Summoner
  00201	eb 08		 jmp	 SHORT $LN14@Attack
$LN7@Attack:

; 318  : 		case 6: this->Fighter(UserIndex);			break;

  00203	57		 push	 edi
  00204	8b cb		 mov	 ecx, ebx
  00206	e8 00 00 00 00	 call	 ?Fighter@OfflineMode@@QAEXH@Z ; OfflineMode::Fighter
$LN14@Attack:

; 319  : 	}
; 320  : 
; 321  : #if(ADD_OFFMODE_PICKUP==TRUE)
; 322  : 
; 323  : 	bool PremiumResult = false;
; 324  : 
; 325  : 	if(g_ZtLicense.CheckUser(eZtUB::SILVER1) || g_ZtLicense.CheckUser(eZtUB::SILVER2) || g_ZtLicense.CheckUser(eZtUB::MedoniAndrei))

  0020b	6a 07		 push	 7
  0020d	b9 00 00 00 00	 mov	 ecx, OFFSET ?g_ZtLicense@@3VCZtLicense@@A ; g_ZtLicense
  00212	e8 00 00 00 00	 call	 ?CheckUser@CZtLicense@@QAE_NH@Z ; CZtLicense::CheckUser
  00217	84 c0		 test	 al, al
  00219	75 20		 jne	 SHORT $LN5@Attack
  0021b	6a 08		 push	 8
  0021d	b9 00 00 00 00	 mov	 ecx, OFFSET ?g_ZtLicense@@3VCZtLicense@@A ; g_ZtLicense
  00222	e8 00 00 00 00	 call	 ?CheckUser@CZtLicense@@QAE_NH@Z ; CZtLicense::CheckUser
  00227	84 c0		 test	 al, al
  00229	75 10		 jne	 SHORT $LN5@Attack
  0022b	6a 32		 push	 50			; 00000032H
  0022d	b9 00 00 00 00	 mov	 ecx, OFFSET ?g_ZtLicense@@3VCZtLicense@@A ; g_ZtLicense
  00232	e8 00 00 00 00	 call	 ?CheckUser@CZtLicense@@QAE_NH@Z ; CZtLicense::CheckUser
  00237	84 c0		 test	 al, al

; 328  : 		{
; 329  : 			PremiumResult = true;
; 330  : 		}		
; 331  : 	}
; 332  : 	else
; 333  : 	{
; 334  : 		if(lpUser->PremiumTime > 0)
; 335  : 		{
; 336  : 			PremiumResult = true;

  00239	74 0e		 je	 SHORT $LN53@Attack
$LN5@Attack:

; 326  : 	{
; 327  : 		if(lpUser->PremiumTimeType == g_PremiumSystemZt.m_iOfflineModePickUpPremiumRang && lpUser->PremiumTime > 0)

  0023b	8b 8e bc 22 00
	00		 mov	 ecx, DWORD PTR [esi+8892]
  00241	3b 0d 50 00 00
	00		 cmp	 ecx, DWORD PTR ?g_PremiumSystemZt@@3VPremiumSystemZt@@A+80
  00247	75 11		 jne	 SHORT $LN45@Attack
$LN53@Attack:
  00249	83 be b8 22 00
	00 00		 cmp	 DWORD PTR [esi+8888], 0
  00250	7e 08		 jle	 SHORT $LN45@Attack

; 337  : 		}
; 338  : 	}
; 339  : 
; 340  : 	//if(lpUser->PremiumTime > 0 /*&& lpUser->PremiumTime > 0*/)
; 341  : 	if(PremiumResult)
; 342  : 	{
; 343  : 		this->PickUP(UserIndex);

  00252	57		 push	 edi
  00253	8b cb		 mov	 ecx, ebx
  00255	e8 00 00 00 00	 call	 ?PickUP@OfflineMode@@QAEXH@Z ; OfflineMode::PickUP
$LN45@Attack:
  0025a	5e		 pop	 esi
$LN44@Attack:
  0025b	5f		 pop	 edi
$LN1@Attack:
  0025c	5b		 pop	 ebx

; 344  : 	}
; 345  : #endif
; 346  : }

  0025d	5d		 pop	 ebp
  0025e	c2 04 00	 ret	 4
  00261	8d 49 00	 npad	 3
$LN55@Attack:
  00264	00 00 00 00	 DD	 $LN13@Attack
  00268	00 00 00 00	 DD	 $LN12@Attack
  0026c	00 00 00 00	 DD	 $LN11@Attack
  00270	00 00 00 00	 DD	 $LN10@Attack
  00274	00 00 00 00	 DD	 $LN9@Attack
  00278	00 00 00 00	 DD	 $LN8@Attack
  0027c	00 00 00 00	 DD	 $LN7@Attack
?Attack@OfflineMode@@QAEXH@Z ENDP			; OfflineMode::Attack
_TEXT	ENDS
PUBLIC	??0?$vector@UOFFMODE_BLOCK_MAP@@V?$allocator@UOFFMODE_BLOCK_MAP@@@std@@@std@@QAE@XZ ; std::vector<OFFMODE_BLOCK_MAP,std::allocator<OFFMODE_BLOCK_MAP> >::vector<OFFMODE_BLOCK_MAP,std::allocator<OFFMODE_BLOCK_MAP> >
; Function compile flags: /Ogtp
; File d:\program files (x86)\microsoft visual studio 10.0\vc\include\vector
;	COMDAT ??0?$vector@UOFFMODE_BLOCK_MAP@@V?$allocator@UOFFMODE_BLOCK_MAP@@@std@@@std@@QAE@XZ
_TEXT	SEGMENT
??0?$vector@UOFFMODE_BLOCK_MAP@@V?$allocator@UOFFMODE_BLOCK_MAP@@@std@@@std@@QAE@XZ PROC ; std::vector<OFFMODE_BLOCK_MAP,std::allocator<OFFMODE_BLOCK_MAP> >::vector<OFFMODE_BLOCK_MAP,std::allocator<OFFMODE_BLOCK_MAP> >, COMDAT
; _this$ = ecx

; 507  : 		{	// construct empty vector

  00000	8b c1		 mov	 eax, ecx
  00002	33 c9		 xor	 ecx, ecx
  00004	89 08		 mov	 DWORD PTR [eax], ecx
  00006	89 48 04	 mov	 DWORD PTR [eax+4], ecx
  00009	89 48 08	 mov	 DWORD PTR [eax+8], ecx

; 508  : 		}

  0000c	c3		 ret	 0
??0?$vector@UOFFMODE_BLOCK_MAP@@V?$allocator@UOFFMODE_BLOCK_MAP@@@std@@@std@@QAE@XZ ENDP ; std::vector<OFFMODE_BLOCK_MAP,std::allocator<OFFMODE_BLOCK_MAP> >::vector<OFFMODE_BLOCK_MAP,std::allocator<OFFMODE_BLOCK_MAP> >
_TEXT	ENDS
PUBLIC	??0?$_Vector_iterator@V?$_Vector_val@UOFFMODE_BLOCK_MAP@@V?$allocator@UOFFMODE_BLOCK_MAP@@@std@@@std@@@std@@QAE@PAUOFFMODE_BLOCK_MAP@@PBU_Container_base0@1@@Z ; std::_Vector_iterator<std::_Vector_val<OFFMODE_BLOCK_MAP,std::allocator<OFFMODE_BLOCK_MAP> > >::_Vector_iterator<std::_Vector_val<OFFMODE_BLOCK_MAP,std::allocator<OFFMODE_BLOCK_MAP> > >
; Function compile flags: /Ogtp
;	COMDAT ??0?$_Vector_iterator@V?$_Vector_val@UOFFMODE_BLOCK_MAP@@V?$allocator@UOFFMODE_BLOCK_MAP@@@std@@@std@@@std@@QAE@PAUOFFMODE_BLOCK_MAP@@PBU_Container_base0@1@@Z
_TEXT	SEGMENT
__Parg$ = 8						; size = 4
__Pvector$ = 12						; size = 4
??0?$_Vector_iterator@V?$_Vector_val@UOFFMODE_BLOCK_MAP@@V?$allocator@UOFFMODE_BLOCK_MAP@@@std@@@std@@@std@@QAE@PAUOFFMODE_BLOCK_MAP@@PBU_Container_base0@1@@Z PROC ; std::_Vector_iterator<std::_Vector_val<OFFMODE_BLOCK_MAP,std::allocator<OFFMODE_BLOCK_MAP> > >::_Vector_iterator<std::_Vector_val<OFFMODE_BLOCK_MAP,std::allocator<OFFMODE_BLOCK_MAP> > >, COMDAT
; _this$ = ecx

; 304  : 		{	// construct with pointer _Parg

  00000	55		 push	 ebp
  00001	8b ec		 mov	 ebp, esp
  00003	8b c1		 mov	 eax, ecx
  00005	8b 4d 08	 mov	 ecx, DWORD PTR __Parg$[ebp]
  00008	89 08		 mov	 DWORD PTR [eax], ecx

; 305  : 		}

  0000a	5d		 pop	 ebp
  0000b	c2 08 00	 ret	 8
??0?$_Vector_iterator@V?$_Vector_val@UOFFMODE_BLOCK_MAP@@V?$allocator@UOFFMODE_BLOCK_MAP@@@std@@@std@@@std@@QAE@PAUOFFMODE_BLOCK_MAP@@PBU_Container_base0@1@@Z ENDP ; std::_Vector_iterator<std::_Vector_val<OFFMODE_BLOCK_MAP,std::allocator<OFFMODE_BLOCK_MAP> > >::_Vector_iterator<std::_Vector_val<OFFMODE_BLOCK_MAP,std::allocator<OFFMODE_BLOCK_MAP> > >
_TEXT	ENDS
PUBLIC	??9?$_Vector_const_iterator@V?$_Vector_val@UOFFMODE_BLOCK_MAP@@V?$allocator@UOFFMODE_BLOCK_MAP@@@std@@@std@@@std@@QBE_NABV01@@Z ; std::_Vector_const_iterator<std::_Vector_val<OFFMODE_BLOCK_MAP,std::allocator<OFFMODE_BLOCK_MAP> > >::operator!=
; Function compile flags: /Ogtp
;	COMDAT ??9?$_Vector_const_iterator@V?$_Vector_val@UOFFMODE_BLOCK_MAP@@V?$allocator@UOFFMODE_BLOCK_MAP@@@std@@@std@@@std@@QBE_NABV01@@Z
_TEXT	SEGMENT
__Right$ = 8						; size = 4
??9?$_Vector_const_iterator@V?$_Vector_val@UOFFMODE_BLOCK_MAP@@V?$allocator@UOFFMODE_BLOCK_MAP@@@std@@@std@@@std@@QBE_NABV01@@Z PROC ; std::_Vector_const_iterator<std::_Vector_val<OFFMODE_BLOCK_MAP,std::allocator<OFFMODE_BLOCK_MAP> > >::operator!=, COMDAT
; _this$ = ecx

; 207  : 		{	// test for iterator inequality

  00000	55		 push	 ebp
  00001	8b ec		 mov	 ebp, esp

; 208  : 		return (!(*this == _Right));

  00003	8b 01		 mov	 eax, DWORD PTR [ecx]
  00005	8b 55 08	 mov	 edx, DWORD PTR __Right$[ebp]
  00008	33 c9		 xor	 ecx, ecx
  0000a	3b 02		 cmp	 eax, DWORD PTR [edx]
  0000c	0f 95 c0	 setne	 al

; 209  : 		}

  0000f	5d		 pop	 ebp
  00010	c2 04 00	 ret	 4
??9?$_Vector_const_iterator@V?$_Vector_val@UOFFMODE_BLOCK_MAP@@V?$allocator@UOFFMODE_BLOCK_MAP@@@std@@@std@@@std@@QBE_NABV01@@Z ENDP ; std::_Vector_const_iterator<std::_Vector_val<OFFMODE_BLOCK_MAP,std::allocator<OFFMODE_BLOCK_MAP> > >::operator!=
_TEXT	ENDS
PUBLIC	?allocate@?$allocator@UOFFMODE_BLOCK_MAP@@@std@@QAEPAUOFFMODE_BLOCK_MAP@@I@Z ; std::allocator<OFFMODE_BLOCK_MAP>::allocate
; Function compile flags: /Ogtp
; File d:\program files (x86)\microsoft visual studio 10.0\vc\include\xmemory
;	COMDAT ?allocate@?$allocator@UOFFMODE_BLOCK_MAP@@@std@@QAEPAUOFFMODE_BLOCK_MAP@@I@Z
_TEXT	SEGMENT
$T217541 = -12						; size = 12
$T217539 = 8						; size = 4
__Count$ = 8						; size = 4
?allocate@?$allocator@UOFFMODE_BLOCK_MAP@@@std@@QAEPAUOFFMODE_BLOCK_MAP@@I@Z PROC ; std::allocator<OFFMODE_BLOCK_MAP>::allocate, COMDAT
; _this$ = ecx

; 186  : 		{	// allocate array of _Count elements

  00000	55		 push	 ebp
  00001	8b ec		 mov	 ebp, esp

; 187  : 		return (_Allocate(_Count, (pointer)0));

  00003	8b 4d 08	 mov	 ecx, DWORD PTR __Count$[ebp]
  00006	83 ec 0c	 sub	 esp, 12			; 0000000cH
  00009	33 c0		 xor	 eax, eax
  0000b	85 c9		 test	 ecx, ecx
  0000d	74 44		 je	 SHORT $LN1@allocate
  0000f	81 f9 ff ff ff
	3f		 cmp	 ecx, 1073741823		; 3fffffffH
  00015	77 14		 ja	 SHORT $LN3@allocate
  00017	8d 04 8d 00 00
	00 00		 lea	 eax, DWORD PTR [ecx*4]
  0001e	50		 push	 eax
  0001f	e8 00 00 00 00	 call	 ??2@YAPAXI@Z		; operator new
  00024	83 c4 04	 add	 esp, 4
  00027	85 c0		 test	 eax, eax
  00029	75 28		 jne	 SHORT $LN1@allocate
$LN3@allocate:
  0002b	8d 4d 08	 lea	 ecx, DWORD PTR $T217539[ebp]
  0002e	51		 push	 ecx
  0002f	8d 4d f4	 lea	 ecx, DWORD PTR $T217541[ebp]
  00032	c7 45 08 00 00
	00 00		 mov	 DWORD PTR $T217539[ebp], 0
  00039	e8 00 00 00 00	 call	 ??0exception@std@@QAE@ABQBD@Z ; std::exception::exception
  0003e	68 00 00 00 00	 push	 OFFSET __TI2?AVbad_alloc@std@@
  00043	8d 55 f4	 lea	 edx, DWORD PTR $T217541[ebp]
  00046	52		 push	 edx
  00047	c7 45 f4 00 00
	00 00		 mov	 DWORD PTR $T217541[ebp], OFFSET ??_7bad_alloc@std@@6B@
  0004e	e8 00 00 00 00	 call	 __CxxThrowException@8
$LN13@allocate:
$LN1@allocate:

; 188  : 		}

  00053	8b e5		 mov	 esp, ebp
  00055	5d		 pop	 ebp
  00056	c2 04 00	 ret	 4
$LN12@allocate:
?allocate@?$allocator@UOFFMODE_BLOCK_MAP@@@std@@QAEPAUOFFMODE_BLOCK_MAP@@I@Z ENDP ; std::allocator<OFFMODE_BLOCK_MAP>::allocate
_TEXT	ENDS
PUBLIC	??$_Cons_val@V?$allocator@UOFFMODE_BLOCK_MAP@@@std@@UOFFMODE_BLOCK_MAP@@ABU3@@std@@YAXAAV?$allocator@UOFFMODE_BLOCK_MAP@@@0@PAUOFFMODE_BLOCK_MAP@@ABU2@@Z ; std::_Cons_val<std::allocator<OFFMODE_BLOCK_MAP>,OFFMODE_BLOCK_MAP,OFFMODE_BLOCK_MAP const &>
; Function compile flags: /Ogtp
;	COMDAT ??$_Cons_val@V?$allocator@UOFFMODE_BLOCK_MAP@@@std@@UOFFMODE_BLOCK_MAP@@ABU3@@std@@YAXAAV?$allocator@UOFFMODE_BLOCK_MAP@@@0@PAUOFFMODE_BLOCK_MAP@@ABU2@@Z
_TEXT	SEGMENT
__Alval$ = 8						; size = 4
__Pdest$ = 12						; size = 4
__Src$ = 16						; size = 4
??$_Cons_val@V?$allocator@UOFFMODE_BLOCK_MAP@@@std@@UOFFMODE_BLOCK_MAP@@ABU3@@std@@YAXAAV?$allocator@UOFFMODE_BLOCK_MAP@@@0@PAUOFFMODE_BLOCK_MAP@@ABU2@@Z PROC ; std::_Cons_val<std::allocator<OFFMODE_BLOCK_MAP>,OFFMODE_BLOCK_MAP,OFFMODE_BLOCK_MAP const &>, COMDAT

; 279  : 	{	// construct using allocator

  00000	55		 push	 ebp
  00001	8b ec		 mov	 ebp, esp

; 280  : 	_Alval.construct(_Pdest, _STD forward<_Ty2>(_Src));

  00003	8b 45 0c	 mov	 eax, DWORD PTR __Pdest$[ebp]
  00006	85 c0		 test	 eax, eax
  00008	74 07		 je	 SHORT $LN9@Cons_val@2
  0000a	8b 4d 10	 mov	 ecx, DWORD PTR __Src$[ebp]
  0000d	8b 11		 mov	 edx, DWORD PTR [ecx]
  0000f	89 10		 mov	 DWORD PTR [eax], edx
$LN9@Cons_val@2:

; 281  : 	}

  00011	5d		 pop	 ebp
  00012	c3		 ret	 0
??$_Cons_val@V?$allocator@UOFFMODE_BLOCK_MAP@@@std@@UOFFMODE_BLOCK_MAP@@ABU3@@std@@YAXAAV?$allocator@UOFFMODE_BLOCK_MAP@@@0@PAUOFFMODE_BLOCK_MAP@@ABU2@@Z ENDP ; std::_Cons_val<std::allocator<OFFMODE_BLOCK_MAP>,OFFMODE_BLOCK_MAP,OFFMODE_BLOCK_MAP const &>
_TEXT	ENDS
PUBLIC	??$_Move@PAUOFFMODE_BLOCK_MAP@@PAU1@@std@@YAPAUOFFMODE_BLOCK_MAP@@PAU1@00@Z ; std::_Move<OFFMODE_BLOCK_MAP *,OFFMODE_BLOCK_MAP *>
; Function compile flags: /Ogtp
; File d:\program files (x86)\microsoft visual studio 10.0\vc\include\xutility
;	COMDAT ??$_Move@PAUOFFMODE_BLOCK_MAP@@PAU1@@std@@YAPAUOFFMODE_BLOCK_MAP@@PAU1@00@Z
_TEXT	SEGMENT
__First$ = 8						; size = 4
__Last$ = 12						; size = 4
__Dest$ = 16						; size = 4
??$_Move@PAUOFFMODE_BLOCK_MAP@@PAU1@@std@@YAPAUOFFMODE_BLOCK_MAP@@PAU1@00@Z PROC ; std::_Move<OFFMODE_BLOCK_MAP *,OFFMODE_BLOCK_MAP *>, COMDAT

; 2533 : 	{	// move [_First, _Last) to [_Dest, ...), unchecked

  00000	55		 push	 ebp
  00001	8b ec		 mov	 ebp, esp

; 2534 : 	return (_Move(_First, _Last,
; 2535 : 		_Dest, _Ptr_cat(_First, _Dest)));

  00003	8b 4d 08	 mov	 ecx, DWORD PTR __First$[ebp]
  00006	8b 55 0c	 mov	 edx, DWORD PTR __Last$[ebp]
  00009	8b 45 10	 mov	 eax, DWORD PTR __Dest$[ebp]
  0000c	3b ca		 cmp	 ecx, edx
  0000e	74 10		 je	 SHORT $LN5@Move@2
  00010	56		 push	 esi
$LL7@Move@2:
  00011	8b 31		 mov	 esi, DWORD PTR [ecx]
  00013	89 30		 mov	 DWORD PTR [eax], esi
  00015	83 c1 04	 add	 ecx, 4
  00018	83 c0 04	 add	 eax, 4
  0001b	3b ca		 cmp	 ecx, edx
  0001d	75 f2		 jne	 SHORT $LL7@Move@2
  0001f	5e		 pop	 esi
$LN5@Move@2:

; 2536 : 	}

  00020	5d		 pop	 ebp
  00021	c3		 ret	 0
??$_Move@PAUOFFMODE_BLOCK_MAP@@PAU1@@std@@YAPAUOFFMODE_BLOCK_MAP@@PAU1@00@Z ENDP ; std::_Move<OFFMODE_BLOCK_MAP *,OFFMODE_BLOCK_MAP *>
_TEXT	ENDS
PUBLIC	??$_Dest_val@V?$allocator@UOFFMODE_BLOCK_MAP@@@std@@UOFFMODE_BLOCK_MAP@@@std@@YAXAAV?$allocator@UOFFMODE_BLOCK_MAP@@@0@PAUOFFMODE_BLOCK_MAP@@@Z ; std::_Dest_val<std::allocator<OFFMODE_BLOCK_MAP>,OFFMODE_BLOCK_MAP>
; Function compile flags: /Ogtp
; File d:\program files (x86)\microsoft visual studio 10.0\vc\include\xmemory
;	COMDAT ??$_Dest_val@V?$allocator@UOFFMODE_BLOCK_MAP@@@std@@UOFFMODE_BLOCK_MAP@@@std@@YAXAAV?$allocator@UOFFMODE_BLOCK_MAP@@@0@PAUOFFMODE_BLOCK_MAP@@@Z
_TEXT	SEGMENT
__Alval$ = 8						; size = 4
__Pdest$ = 12						; size = 4
??$_Dest_val@V?$allocator@UOFFMODE_BLOCK_MAP@@@std@@UOFFMODE_BLOCK_MAP@@@std@@YAXAAV?$allocator@UOFFMODE_BLOCK_MAP@@@0@PAUOFFMODE_BLOCK_MAP@@@Z PROC ; std::_Dest_val<std::allocator<OFFMODE_BLOCK_MAP>,OFFMODE_BLOCK_MAP>, COMDAT

; 287  : 	_Alval.destroy(_Pdest);
; 288  : 	}

  00000	c3		 ret	 0
??$_Dest_val@V?$allocator@UOFFMODE_BLOCK_MAP@@@std@@UOFFMODE_BLOCK_MAP@@@std@@YAXAAV?$allocator@UOFFMODE_BLOCK_MAP@@@0@PAUOFFMODE_BLOCK_MAP@@@Z ENDP ; std::_Dest_val<std::allocator<OFFMODE_BLOCK_MAP>,OFFMODE_BLOCK_MAP>
_TEXT	ENDS
PUBLIC	??$_Cons_val@V?$allocator@UOFFMODE_BLOCK_MAP@@@std@@UOFFMODE_BLOCK_MAP@@U3@@std@@YAXAAV?$allocator@UOFFMODE_BLOCK_MAP@@@0@PAUOFFMODE_BLOCK_MAP@@$$QAU2@@Z ; std::_Cons_val<std::allocator<OFFMODE_BLOCK_MAP>,OFFMODE_BLOCK_MAP,OFFMODE_BLOCK_MAP>
; Function compile flags: /Ogtp
;	COMDAT ??$_Cons_val@V?$allocator@UOFFMODE_BLOCK_MAP@@@std@@UOFFMODE_BLOCK_MAP@@U3@@std@@YAXAAV?$allocator@UOFFMODE_BLOCK_MAP@@@0@PAUOFFMODE_BLOCK_MAP@@$$QAU2@@Z
_TEXT	SEGMENT
__Alval$ = 8						; size = 4
__Pdest$ = 12						; size = 4
__Src$ = 16						; size = 4
??$_Cons_val@V?$allocator@UOFFMODE_BLOCK_MAP@@@std@@UOFFMODE_BLOCK_MAP@@U3@@std@@YAXAAV?$allocator@UOFFMODE_BLOCK_MAP@@@0@PAUOFFMODE_BLOCK_MAP@@$$QAU2@@Z PROC ; std::_Cons_val<std::allocator<OFFMODE_BLOCK_MAP>,OFFMODE_BLOCK_MAP,OFFMODE_BLOCK_MAP>, COMDAT

; 279  : 	{	// construct using allocator

  00000	55		 push	 ebp
  00001	8b ec		 mov	 ebp, esp

; 280  : 	_Alval.construct(_Pdest, _STD forward<_Ty2>(_Src));

  00003	8b 45 0c	 mov	 eax, DWORD PTR __Pdest$[ebp]
  00006	85 c0		 test	 eax, eax
  00008	74 07		 je	 SHORT $LN7@Cons_val@3
  0000a	8b 4d 10	 mov	 ecx, DWORD PTR __Src$[ebp]
  0000d	8b 11		 mov	 edx, DWORD PTR [ecx]
  0000f	89 10		 mov	 DWORD PTR [eax], edx
$LN7@Cons_val@3:

; 281  : 	}

  00011	5d		 pop	 ebp
  00012	c3		 ret	 0
??$_Cons_val@V?$allocator@UOFFMODE_BLOCK_MAP@@@std@@UOFFMODE_BLOCK_MAP@@U3@@std@@YAXAAV?$allocator@UOFFMODE_BLOCK_MAP@@@0@PAUOFFMODE_BLOCK_MAP@@$$QAU2@@Z ENDP ; std::_Cons_val<std::allocator<OFFMODE_BLOCK_MAP>,OFFMODE_BLOCK_MAP,OFFMODE_BLOCK_MAP>
_TEXT	ENDS
PUBLIC	?begin@?$vector@UOFFMODE_BLOCK_MAP@@V?$allocator@UOFFMODE_BLOCK_MAP@@@std@@@std@@QAE?AV?$_Vector_iterator@V?$_Vector_val@UOFFMODE_BLOCK_MAP@@V?$allocator@UOFFMODE_BLOCK_MAP@@@std@@@std@@@2@XZ ; std::vector<OFFMODE_BLOCK_MAP,std::allocator<OFFMODE_BLOCK_MAP> >::begin
; Function compile flags: /Ogtp
; File d:\program files (x86)\microsoft visual studio 10.0\vc\include\vector
;	COMDAT ?begin@?$vector@UOFFMODE_BLOCK_MAP@@V?$allocator@UOFFMODE_BLOCK_MAP@@@std@@@std@@QAE?AV?$_Vector_iterator@V?$_Vector_val@UOFFMODE_BLOCK_MAP@@V?$allocator@UOFFMODE_BLOCK_MAP@@@std@@@std@@@2@XZ
_TEXT	SEGMENT
___$ReturnUdt$ = 8					; size = 4
?begin@?$vector@UOFFMODE_BLOCK_MAP@@V?$allocator@UOFFMODE_BLOCK_MAP@@@std@@@std@@QAE?AV?$_Vector_iterator@V?$_Vector_val@UOFFMODE_BLOCK_MAP@@V?$allocator@UOFFMODE_BLOCK_MAP@@@std@@@std@@@2@XZ PROC ; std::vector<OFFMODE_BLOCK_MAP,std::allocator<OFFMODE_BLOCK_MAP> >::begin, COMDAT
; _this$ = ecx

; 781  : 		{	// return iterator for beginning of mutable sequence

  00000	55		 push	 ebp
  00001	8b ec		 mov	 ebp, esp

; 782  : 		return (iterator(this->_Myfirst, this));

  00003	8b 09		 mov	 ecx, DWORD PTR [ecx]
  00005	8b 45 08	 mov	 eax, DWORD PTR ___$ReturnUdt$[ebp]
  00008	89 08		 mov	 DWORD PTR [eax], ecx

; 783  : 		}

  0000a	5d		 pop	 ebp
  0000b	c2 04 00	 ret	 4
?begin@?$vector@UOFFMODE_BLOCK_MAP@@V?$allocator@UOFFMODE_BLOCK_MAP@@@std@@@std@@QAE?AV?$_Vector_iterator@V?$_Vector_val@UOFFMODE_BLOCK_MAP@@V?$allocator@UOFFMODE_BLOCK_MAP@@@std@@@std@@@2@XZ ENDP ; std::vector<OFFMODE_BLOCK_MAP,std::allocator<OFFMODE_BLOCK_MAP> >::begin
_TEXT	ENDS
PUBLIC	?end@?$vector@UOFFMODE_BLOCK_MAP@@V?$allocator@UOFFMODE_BLOCK_MAP@@@std@@@std@@QAE?AV?$_Vector_iterator@V?$_Vector_val@UOFFMODE_BLOCK_MAP@@V?$allocator@UOFFMODE_BLOCK_MAP@@@std@@@std@@@2@XZ ; std::vector<OFFMODE_BLOCK_MAP,std::allocator<OFFMODE_BLOCK_MAP> >::end
; Function compile flags: /Ogtp
;	COMDAT ?end@?$vector@UOFFMODE_BLOCK_MAP@@V?$allocator@UOFFMODE_BLOCK_MAP@@@std@@@std@@QAE?AV?$_Vector_iterator@V?$_Vector_val@UOFFMODE_BLOCK_MAP@@V?$allocator@UOFFMODE_BLOCK_MAP@@@std@@@std@@@2@XZ
_TEXT	SEGMENT
___$ReturnUdt$ = 8					; size = 4
?end@?$vector@UOFFMODE_BLOCK_MAP@@V?$allocator@UOFFMODE_BLOCK_MAP@@@std@@@std@@QAE?AV?$_Vector_iterator@V?$_Vector_val@UOFFMODE_BLOCK_MAP@@V?$allocator@UOFFMODE_BLOCK_MAP@@@std@@@std@@@2@XZ PROC ; std::vector<OFFMODE_BLOCK_MAP,std::allocator<OFFMODE_BLOCK_MAP> >::end, COMDAT
; _this$ = ecx

; 791  : 		{	// return iterator for end of mutable sequence

  00000	55		 push	 ebp
  00001	8b ec		 mov	 ebp, esp

; 792  : 		return (iterator(this->_Mylast, this));

  00003	8b 49 04	 mov	 ecx, DWORD PTR [ecx+4]
  00006	8b 45 08	 mov	 eax, DWORD PTR ___$ReturnUdt$[ebp]
  00009	89 08		 mov	 DWORD PTR [eax], ecx

; 793  : 		}

  0000b	5d		 pop	 ebp
  0000c	c2 04 00	 ret	 4
?end@?$vector@UOFFMODE_BLOCK_MAP@@V?$allocator@UOFFMODE_BLOCK_MAP@@@std@@@std@@QAE?AV?$_Vector_iterator@V?$_Vector_val@UOFFMODE_BLOCK_MAP@@V?$allocator@UOFFMODE_BLOCK_MAP@@@std@@@std@@@2@XZ ENDP ; std::vector<OFFMODE_BLOCK_MAP,std::allocator<OFFMODE_BLOCK_MAP> >::end
_TEXT	ENDS
PUBLIC	?_Make_iter@?$vector@UOFFMODE_BLOCK_MAP@@V?$allocator@UOFFMODE_BLOCK_MAP@@@std@@@std@@QBE?AV?$_Vector_iterator@V?$_Vector_val@UOFFMODE_BLOCK_MAP@@V?$allocator@UOFFMODE_BLOCK_MAP@@@std@@@std@@@2@V?$_Vector_const_iterator@V?$_Vector_val@UOFFMODE_BLOCK_MAP@@V?$allocator@UOFFMODE_BLOCK_MAP@@@std@@@std@@@2@@Z ; std::vector<OFFMODE_BLOCK_MAP,std::allocator<OFFMODE_BLOCK_MAP> >::_Make_iter
; Function compile flags: /Ogtp
;	COMDAT ?_Make_iter@?$vector@UOFFMODE_BLOCK_MAP@@V?$allocator@UOFFMODE_BLOCK_MAP@@@std@@@std@@QBE?AV?$_Vector_iterator@V?$_Vector_val@UOFFMODE_BLOCK_MAP@@V?$allocator@UOFFMODE_BLOCK_MAP@@@std@@@std@@@2@V?$_Vector_const_iterator@V?$_Vector_val@UOFFMODE_BLOCK_MAP@@V?$allocator@UOFFMODE_BLOCK_MAP@@@std@@@std@@@2@@Z
_TEXT	SEGMENT
___$ReturnUdt$ = 8					; size = 4
__Where$ = 12						; size = 4
?_Make_iter@?$vector@UOFFMODE_BLOCK_MAP@@V?$allocator@UOFFMODE_BLOCK_MAP@@@std@@@std@@QBE?AV?$_Vector_iterator@V?$_Vector_val@UOFFMODE_BLOCK_MAP@@V?$allocator@UOFFMODE_BLOCK_MAP@@@std@@@std@@@2@V?$_Vector_const_iterator@V?$_Vector_val@UOFFMODE_BLOCK_MAP@@V?$allocator@UOFFMODE_BLOCK_MAP@@@std@@@std@@@2@@Z PROC ; std::vector<OFFMODE_BLOCK_MAP,std::allocator<OFFMODE_BLOCK_MAP> >::_Make_iter, COMDAT
; _this$ = ecx

; 801  : 		{	// make iterator from const_iterator

  00000	55		 push	 ebp
  00001	8b ec		 mov	 ebp, esp

; 802  : 		return (iterator(_Where._Ptr, this));

  00003	8b 45 08	 mov	 eax, DWORD PTR ___$ReturnUdt$[ebp]
  00006	8b 4d 0c	 mov	 ecx, DWORD PTR __Where$[ebp]
  00009	89 08		 mov	 DWORD PTR [eax], ecx

; 803  : 		}

  0000b	5d		 pop	 ebp
  0000c	c2 08 00	 ret	 8
?_Make_iter@?$vector@UOFFMODE_BLOCK_MAP@@V?$allocator@UOFFMODE_BLOCK_MAP@@@std@@@std@@QBE?AV?$_Vector_iterator@V?$_Vector_val@UOFFMODE_BLOCK_MAP@@V?$allocator@UOFFMODE_BLOCK_MAP@@@std@@@std@@@2@V?$_Vector_const_iterator@V?$_Vector_val@UOFFMODE_BLOCK_MAP@@V?$allocator@UOFFMODE_BLOCK_MAP@@@std@@@std@@@2@@Z ENDP ; std::vector<OFFMODE_BLOCK_MAP,std::allocator<OFFMODE_BLOCK_MAP> >::_Make_iter
_TEXT	ENDS
PUBLIC	??$_Destroy_range@V?$allocator@UOFFMODE_BLOCK_MAP@@@std@@@std@@YAXPAUOFFMODE_BLOCK_MAP@@0AAV?$allocator@UOFFMODE_BLOCK_MAP@@@0@U_Nonscalar_ptr_iterator_tag@0@@Z ; std::_Destroy_range<std::allocator<OFFMODE_BLOCK_MAP> >
; Function compile flags: /Ogtp
; File d:\program files (x86)\microsoft visual studio 10.0\vc\include\xmemory
;	COMDAT ??$_Destroy_range@V?$allocator@UOFFMODE_BLOCK_MAP@@@std@@@std@@YAXPAUOFFMODE_BLOCK_MAP@@0AAV?$allocator@UOFFMODE_BLOCK_MAP@@@0@U_Nonscalar_ptr_iterator_tag@0@@Z
_TEXT	SEGMENT
__First$ = 8						; size = 4
__Last$ = 12						; size = 4
__Al$ = 16						; size = 4
___formal$ = 20						; size = 1
??$_Destroy_range@V?$allocator@UOFFMODE_BLOCK_MAP@@@std@@@std@@YAXPAUOFFMODE_BLOCK_MAP@@0AAV?$allocator@UOFFMODE_BLOCK_MAP@@@0@U_Nonscalar_ptr_iterator_tag@0@@Z PROC ; std::_Destroy_range<std::allocator<OFFMODE_BLOCK_MAP> >, COMDAT

; 96   : 	for (; _First != _Last; ++_First)
; 97   : 		_Dest_val(_Al, _First);
; 98   : 	}

  00000	c3		 ret	 0
??$_Destroy_range@V?$allocator@UOFFMODE_BLOCK_MAP@@@std@@@std@@YAXPAUOFFMODE_BLOCK_MAP@@0AAV?$allocator@UOFFMODE_BLOCK_MAP@@@0@U_Nonscalar_ptr_iterator_tag@0@@Z ENDP ; std::_Destroy_range<std::allocator<OFFMODE_BLOCK_MAP> >
_TEXT	ENDS
PUBLIC	??$_Uninit_move@PAUOFFMODE_BLOCK_MAP@@PAU1@V?$allocator@UOFFMODE_BLOCK_MAP@@@std@@U1@@std@@YAPAUOFFMODE_BLOCK_MAP@@PAU1@00AAV?$allocator@UOFFMODE_BLOCK_MAP@@@0@0U_Nonscalar_ptr_iterator_tag@0@@Z ; std::_Uninit_move<OFFMODE_BLOCK_MAP *,OFFMODE_BLOCK_MAP *,std::allocator<OFFMODE_BLOCK_MAP>,OFFMODE_BLOCK_MAP>
; Function compile flags: /Ogtp
; File d:\program files (x86)\microsoft visual studio 10.0\vc\include\memory
;	COMDAT ??$_Uninit_move@PAUOFFMODE_BLOCK_MAP@@PAU1@V?$allocator@UOFFMODE_BLOCK_MAP@@@std@@U1@@std@@YAPAUOFFMODE_BLOCK_MAP@@PAU1@00AAV?$allocator@UOFFMODE_BLOCK_MAP@@@0@0U_Nonscalar_ptr_iterator_tag@0@@Z
_TEXT	SEGMENT
__First$ = 8						; size = 4
__Last$ = 12						; size = 4
__Dest$ = 16						; size = 4
__Al$ = 20						; size = 4
___formal$ = 24						; size = 4
___formal$ = 28						; size = 1
??$_Uninit_move@PAUOFFMODE_BLOCK_MAP@@PAU1@V?$allocator@UOFFMODE_BLOCK_MAP@@@std@@U1@@std@@YAPAUOFFMODE_BLOCK_MAP@@PAU1@00AAV?$allocator@UOFFMODE_BLOCK_MAP@@@0@0U_Nonscalar_ptr_iterator_tag@0@@Z PROC ; std::_Uninit_move<OFFMODE_BLOCK_MAP *,OFFMODE_BLOCK_MAP *,std::allocator<OFFMODE_BLOCK_MAP>,OFFMODE_BLOCK_MAP>, COMDAT

; 424  : 	{	// move [_First, _Last) to raw _Dest, using _Al, arbitrary type

  00000	55		 push	 ebp
  00001	8b ec		 mov	 ebp, esp
  00003	53		 push	 ebx

; 425  : 	_DEBUG_RANGE(_First, _Last);
; 426  : 	_DEBUG_POINTER(_Dest);
; 427  : 	_FwdIt _Next = _Dest;
; 428  : 
; 429  : 	_TRY_BEGIN
; 430  : 	for (; _First != _Last; ++_Dest, ++_First)

  00004	8b 5d 0c	 mov	 ebx, DWORD PTR __Last$[ebp]
  00007	56		 push	 esi
  00008	8b 75 08	 mov	 esi, DWORD PTR __First$[ebp]
  0000b	3b f3		 cmp	 esi, ebx
  0000d	74 23		 je	 SHORT $LN17@Uninit_mov
  0000f	57		 push	 edi
  00010	8b 7d 10	 mov	 edi, DWORD PTR __Dest$[ebp]
$LL6@Uninit_mov:

; 431  : 		_Cons_val(_Al, _Dest, (_Valty &&)*_First);

  00013	8b 45 14	 mov	 eax, DWORD PTR __Al$[ebp]
  00016	56		 push	 esi
  00017	57		 push	 edi
  00018	50		 push	 eax
  00019	e8 00 00 00 00	 call	 ??$_Cons_val@V?$allocator@UOFFMODE_BLOCK_MAP@@@std@@UOFFMODE_BLOCK_MAP@@U3@@std@@YAXAAV?$allocator@UOFFMODE_BLOCK_MAP@@@0@PAUOFFMODE_BLOCK_MAP@@$$QAU2@@Z ; std::_Cons_val<std::allocator<OFFMODE_BLOCK_MAP>,OFFMODE_BLOCK_MAP,OFFMODE_BLOCK_MAP>
  0001e	83 c6 04	 add	 esi, 4
  00021	83 c4 0c	 add	 esp, 12			; 0000000cH
  00024	83 c7 04	 add	 edi, 4
  00027	3b f3		 cmp	 esi, ebx
  00029	75 e8		 jne	 SHORT $LL6@Uninit_mov

; 432  : 	_CATCH_ALL
; 433  : 	for (; _Next != _Dest; ++_Next)
; 434  : 		_Dest_val(_Al, _Next);
; 435  : 	_RERAISE;
; 436  : 	_CATCH_END
; 437  : 	return (_Dest);

  0002b	8b c7		 mov	 eax, edi
  0002d	5f		 pop	 edi
  0002e	5e		 pop	 esi
  0002f	5b		 pop	 ebx

; 438  : 	}

  00030	5d		 pop	 ebp
  00031	c3		 ret	 0
$LN17@Uninit_mov:

; 432  : 	_CATCH_ALL
; 433  : 	for (; _Next != _Dest; ++_Next)
; 434  : 		_Dest_val(_Al, _Next);
; 435  : 	_RERAISE;
; 436  : 	_CATCH_END
; 437  : 	return (_Dest);

  00032	8b 45 10	 mov	 eax, DWORD PTR __Dest$[ebp]
  00035	5e		 pop	 esi
  00036	5b		 pop	 ebx

; 438  : 	}

  00037	5d		 pop	 ebp
  00038	c3		 ret	 0
??$_Uninit_move@PAUOFFMODE_BLOCK_MAP@@PAU1@V?$allocator@UOFFMODE_BLOCK_MAP@@@std@@U1@@std@@YAPAUOFFMODE_BLOCK_MAP@@PAU1@00AAV?$allocator@UOFFMODE_BLOCK_MAP@@@0@0U_Nonscalar_ptr_iterator_tag@0@@Z ENDP ; std::_Uninit_move<OFFMODE_BLOCK_MAP *,OFFMODE_BLOCK_MAP *,std::allocator<OFFMODE_BLOCK_MAP>,OFFMODE_BLOCK_MAP>
_TEXT	ENDS
PUBLIC	??$_Destroy_range@V?$allocator@UOFFMODE_BLOCK_MAP@@@std@@@std@@YAXPAUOFFMODE_BLOCK_MAP@@0AAV?$allocator@UOFFMODE_BLOCK_MAP@@@0@@Z ; std::_Destroy_range<std::allocator<OFFMODE_BLOCK_MAP> >
; Function compile flags: /Ogtp
; File d:\program files (x86)\microsoft visual studio 10.0\vc\include\xmemory
;	COMDAT ??$_Destroy_range@V?$allocator@UOFFMODE_BLOCK_MAP@@@std@@@std@@YAXPAUOFFMODE_BLOCK_MAP@@0AAV?$allocator@UOFFMODE_BLOCK_MAP@@@0@@Z
_TEXT	SEGMENT
__First$ = 8						; size = 4
__Last$ = 12						; size = 4
__Al$ = 16						; size = 4
??$_Destroy_range@V?$allocator@UOFFMODE_BLOCK_MAP@@@std@@@std@@YAXPAUOFFMODE_BLOCK_MAP@@0AAV?$allocator@UOFFMODE_BLOCK_MAP@@@0@@Z PROC ; std::_Destroy_range<std::allocator<OFFMODE_BLOCK_MAP> >, COMDAT

; 88   : 	_Destroy_range(_First, _Last, _Al, _Ptr_cat(_First, _Last));
; 89   : 	}

  00000	c3		 ret	 0
??$_Destroy_range@V?$allocator@UOFFMODE_BLOCK_MAP@@@std@@@std@@YAXPAUOFFMODE_BLOCK_MAP@@0AAV?$allocator@UOFFMODE_BLOCK_MAP@@@0@@Z ENDP ; std::_Destroy_range<std::allocator<OFFMODE_BLOCK_MAP> >
_TEXT	ENDS
PUBLIC	??$_Uninitialized_move@PAUOFFMODE_BLOCK_MAP@@PAU1@V?$allocator@UOFFMODE_BLOCK_MAP@@@std@@@std@@YAPAUOFFMODE_BLOCK_MAP@@PAU1@00AAV?$allocator@UOFFMODE_BLOCK_MAP@@@0@@Z ; std::_Uninitialized_move<OFFMODE_BLOCK_MAP *,OFFMODE_BLOCK_MAP *,std::allocator<OFFMODE_BLOCK_MAP> >
; Function compile flags: /Ogtp
; File d:\program files (x86)\microsoft visual studio 10.0\vc\include\memory
;	COMDAT ??$_Uninitialized_move@PAUOFFMODE_BLOCK_MAP@@PAU1@V?$allocator@UOFFMODE_BLOCK_MAP@@@std@@@std@@YAPAUOFFMODE_BLOCK_MAP@@PAU1@00AAV?$allocator@UOFFMODE_BLOCK_MAP@@@0@@Z
_TEXT	SEGMENT
__Cat$217733 = -4					; size = 1
__First$ = 8						; size = 4
__Last$ = 12						; size = 4
__Dest$ = 16						; size = 4
__Al$ = 20						; size = 4
??$_Uninitialized_move@PAUOFFMODE_BLOCK_MAP@@PAU1@V?$allocator@UOFFMODE_BLOCK_MAP@@@std@@@std@@YAPAUOFFMODE_BLOCK_MAP@@PAU1@00AAV?$allocator@UOFFMODE_BLOCK_MAP@@@0@@Z PROC ; std::_Uninitialized_move<OFFMODE_BLOCK_MAP *,OFFMODE_BLOCK_MAP *,std::allocator<OFFMODE_BLOCK_MAP> >, COMDAT

; 469  : 	{	// move [_First, _Last) to raw _Dest, using _Al

  00000	55		 push	 ebp
  00001	8b ec		 mov	 ebp, esp
  00003	51		 push	 ecx

; 470  : 	return (_Uninit_move(_First, _Last, _Dest, _Al,
; 471  : 		_Val_type(_First), _Ptr_cat(_First, _Dest)));

  00004	8b 45 fc	 mov	 eax, DWORD PTR __Cat$217733[ebp]
  00007	8b 4d 14	 mov	 ecx, DWORD PTR __Al$[ebp]
  0000a	8b 55 10	 mov	 edx, DWORD PTR __Dest$[ebp]
  0000d	50		 push	 eax
  0000e	8b 45 0c	 mov	 eax, DWORD PTR __Last$[ebp]
  00011	6a 00		 push	 0
  00013	51		 push	 ecx
  00014	8b 4d 08	 mov	 ecx, DWORD PTR __First$[ebp]
  00017	52		 push	 edx
  00018	50		 push	 eax
  00019	51		 push	 ecx
  0001a	e8 00 00 00 00	 call	 ??$_Uninit_move@PAUOFFMODE_BLOCK_MAP@@PAU1@V?$allocator@UOFFMODE_BLOCK_MAP@@@std@@U1@@std@@YAPAUOFFMODE_BLOCK_MAP@@PAU1@00AAV?$allocator@UOFFMODE_BLOCK_MAP@@@0@0U_Nonscalar_ptr_iterator_tag@0@@Z ; std::_Uninit_move<OFFMODE_BLOCK_MAP *,OFFMODE_BLOCK_MAP *,std::allocator<OFFMODE_BLOCK_MAP>,OFFMODE_BLOCK_MAP>
  0001f	83 c4 18	 add	 esp, 24			; 00000018H

; 472  : 	}

  00022	8b e5		 mov	 esp, ebp
  00024	5d		 pop	 ebp
  00025	c3		 ret	 0
??$_Uninitialized_move@PAUOFFMODE_BLOCK_MAP@@PAU1@V?$allocator@UOFFMODE_BLOCK_MAP@@@std@@@std@@YAPAUOFFMODE_BLOCK_MAP@@PAU1@00AAV?$allocator@UOFFMODE_BLOCK_MAP@@@0@@Z ENDP ; std::_Uninitialized_move<OFFMODE_BLOCK_MAP *,OFFMODE_BLOCK_MAP *,std::allocator<OFFMODE_BLOCK_MAP> >
_TEXT	ENDS
PUBLIC	?_Destroy@?$vector@UOFFMODE_BLOCK_MAP@@V?$allocator@UOFFMODE_BLOCK_MAP@@@std@@@std@@IAEXPAUOFFMODE_BLOCK_MAP@@0@Z ; std::vector<OFFMODE_BLOCK_MAP,std::allocator<OFFMODE_BLOCK_MAP> >::_Destroy
; Function compile flags: /Ogtp
; File d:\program files (x86)\microsoft visual studio 10.0\vc\include\vector
;	COMDAT ?_Destroy@?$vector@UOFFMODE_BLOCK_MAP@@V?$allocator@UOFFMODE_BLOCK_MAP@@@std@@@std@@IAEXPAUOFFMODE_BLOCK_MAP@@0@Z
_TEXT	SEGMENT
__First$ = 8						; size = 4
__Last$ = 12						; size = 4
?_Destroy@?$vector@UOFFMODE_BLOCK_MAP@@V?$allocator@UOFFMODE_BLOCK_MAP@@@std@@@std@@IAEXPAUOFFMODE_BLOCK_MAP@@0@Z PROC ; std::vector<OFFMODE_BLOCK_MAP,std::allocator<OFFMODE_BLOCK_MAP> >::_Destroy, COMDAT
; _this$ = ecx

; 1270 : 		_Destroy_range(_First, _Last, this->_Alval);
; 1271 : 		}

  00000	c2 08 00	 ret	 8
?_Destroy@?$vector@UOFFMODE_BLOCK_MAP@@V?$allocator@UOFFMODE_BLOCK_MAP@@@std@@@std@@IAEXPAUOFFMODE_BLOCK_MAP@@0@Z ENDP ; std::vector<OFFMODE_BLOCK_MAP,std::allocator<OFFMODE_BLOCK_MAP> >::_Destroy
_TEXT	ENDS
PUBLIC	??$_Umove@PAUOFFMODE_BLOCK_MAP@@@?$vector@UOFFMODE_BLOCK_MAP@@V?$allocator@UOFFMODE_BLOCK_MAP@@@std@@@std@@IAEPAUOFFMODE_BLOCK_MAP@@PAU2@00@Z ; std::vector<OFFMODE_BLOCK_MAP,std::allocator<OFFMODE_BLOCK_MAP> >::_Umove<OFFMODE_BLOCK_MAP *>
; Function compile flags: /Ogtp
;	COMDAT ??$_Umove@PAUOFFMODE_BLOCK_MAP@@@?$vector@UOFFMODE_BLOCK_MAP@@V?$allocator@UOFFMODE_BLOCK_MAP@@@std@@@std@@IAEPAUOFFMODE_BLOCK_MAP@@PAU2@00@Z
_TEXT	SEGMENT
__First$ = 8						; size = 4
__Last$ = 12						; size = 4
__Cat$217756 = 16					; size = 1
__Ptr$ = 16						; size = 4
??$_Umove@PAUOFFMODE_BLOCK_MAP@@@?$vector@UOFFMODE_BLOCK_MAP@@V?$allocator@UOFFMODE_BLOCK_MAP@@@std@@@std@@IAEPAUOFFMODE_BLOCK_MAP@@PAU2@00@Z PROC ; std::vector<OFFMODE_BLOCK_MAP,std::allocator<OFFMODE_BLOCK_MAP> >::_Umove<OFFMODE_BLOCK_MAP *>, COMDAT
; _this$ = ecx

; 1322 : 		pointer _Umove(_Iter _First, _Iter _Last, pointer _Ptr)

  00000	55		 push	 ebp
  00001	8b ec		 mov	 ebp, esp

; 1323 : 		{	// move initializing [_First, _Last), using allocator
; 1324 : 		return (_Uninitialized_move(_First, _Last,
; 1325 : 			_Ptr, this->_Alval));

  00003	8b 45 10	 mov	 eax, DWORD PTR __Cat$217756[ebp]
  00006	8b 55 0c	 mov	 edx, DWORD PTR __Last$[ebp]
  00009	50		 push	 eax
  0000a	8b 45 08	 mov	 eax, DWORD PTR __First$[ebp]
  0000d	6a 00		 push	 0
  0000f	83 c1 0c	 add	 ecx, 12			; 0000000cH
  00012	51		 push	 ecx
  00013	8b 4d 10	 mov	 ecx, DWORD PTR __Ptr$[ebp]
  00016	51		 push	 ecx
  00017	52		 push	 edx
  00018	50		 push	 eax
  00019	e8 00 00 00 00	 call	 ??$_Uninit_move@PAUOFFMODE_BLOCK_MAP@@PAU1@V?$allocator@UOFFMODE_BLOCK_MAP@@@std@@U1@@std@@YAPAUOFFMODE_BLOCK_MAP@@PAU1@00AAV?$allocator@UOFFMODE_BLOCK_MAP@@@0@0U_Nonscalar_ptr_iterator_tag@0@@Z ; std::_Uninit_move<OFFMODE_BLOCK_MAP *,OFFMODE_BLOCK_MAP *,std::allocator<OFFMODE_BLOCK_MAP>,OFFMODE_BLOCK_MAP>
  0001e	83 c4 18	 add	 esp, 24			; 00000018H

; 1326 : 		}

  00021	5d		 pop	 ebp
  00022	c2 0c 00	 ret	 12			; 0000000cH
??$_Umove@PAUOFFMODE_BLOCK_MAP@@@?$vector@UOFFMODE_BLOCK_MAP@@V?$allocator@UOFFMODE_BLOCK_MAP@@@std@@@std@@IAEPAUOFFMODE_BLOCK_MAP@@PAU2@00@Z ENDP ; std::vector<OFFMODE_BLOCK_MAP,std::allocator<OFFMODE_BLOCK_MAP> >::_Umove<OFFMODE_BLOCK_MAP *>
_TEXT	ENDS
PUBLIC	?erase@?$vector@UOFFMODE_BLOCK_MAP@@V?$allocator@UOFFMODE_BLOCK_MAP@@@std@@@std@@QAE?AV?$_Vector_iterator@V?$_Vector_val@UOFFMODE_BLOCK_MAP@@V?$allocator@UOFFMODE_BLOCK_MAP@@@std@@@std@@@2@V?$_Vector_const_iterator@V?$_Vector_val@UOFFMODE_BLOCK_MAP@@V?$allocator@UOFFMODE_BLOCK_MAP@@@std@@@std@@@2@0@Z ; std::vector<OFFMODE_BLOCK_MAP,std::allocator<OFFMODE_BLOCK_MAP> >::erase
; Function compile flags: /Ogtp
;	COMDAT ?erase@?$vector@UOFFMODE_BLOCK_MAP@@V?$allocator@UOFFMODE_BLOCK_MAP@@@std@@@std@@QAE?AV?$_Vector_iterator@V?$_Vector_val@UOFFMODE_BLOCK_MAP@@V?$allocator@UOFFMODE_BLOCK_MAP@@@std@@@std@@@2@V?$_Vector_const_iterator@V?$_Vector_val@UOFFMODE_BLOCK_MAP@@V?$allocator@UOFFMODE_BLOCK_MAP@@@std@@@std@@@2@0@Z
_TEXT	SEGMENT
___$ReturnUdt$ = 8					; size = 4
__First_arg$ = 12					; size = 4
__Last_arg$ = 16					; size = 4
?erase@?$vector@UOFFMODE_BLOCK_MAP@@V?$allocator@UOFFMODE_BLOCK_MAP@@@std@@@std@@QAE?AV?$_Vector_iterator@V?$_Vector_val@UOFFMODE_BLOCK_MAP@@V?$allocator@UOFFMODE_BLOCK_MAP@@@std@@@std@@@2@V?$_Vector_const_iterator@V?$_Vector_val@UOFFMODE_BLOCK_MAP@@V?$allocator@UOFFMODE_BLOCK_MAP@@@std@@@std@@@2@0@Z PROC ; std::vector<OFFMODE_BLOCK_MAP,std::allocator<OFFMODE_BLOCK_MAP> >::erase, COMDAT
; _this$ = ecx

; 1190 : 		{	// erase [_First, _Last)

  00000	55		 push	 ebp
  00001	8b ec		 mov	 ebp, esp

; 1191 : 		iterator _First = _Make_iter(_First_arg);
; 1192 : 		iterator _Last = _Make_iter(_Last_arg);
; 1193 : 
; 1194 : 		if (_First != _Last)

  00003	8b 55 10	 mov	 edx, DWORD PTR __Last_arg$[ebp]
  00006	8b 45 08	 mov	 eax, DWORD PTR ___$ReturnUdt$[ebp]
  00009	56		 push	 esi
  0000a	8b 75 0c	 mov	 esi, DWORD PTR __First_arg$[ebp]
  0000d	89 30		 mov	 DWORD PTR [eax], esi
  0000f	3b f2		 cmp	 esi, edx
  00011	74 20		 je	 SHORT $LN1@erase

; 1195 : 			{	// worth doing, copy down over hole
; 1196 :  #if _ITERATOR_DEBUG_LEVEL == 2
; 1197 : 			if (_Last < _First || _VICONT(_First) != this
; 1198 : 				|| _VIPTR(_First) < this->_Myfirst
; 1199 : 				|| this->_Mylast < _VIPTR(_Last))
; 1200 : 				_DEBUG_ERROR("vector erase iterator outside range");
; 1201 : 			pointer _Ptr = _Move(_VIPTR(_Last), this->_Mylast,
; 1202 : 				_VIPTR(_First));
; 1203 : 			_Orphan_range(_VIPTR(_First), this->_Mylast);
; 1204 : 
; 1205 :  #else /* _ITERATOR_DEBUG_LEVEL == 2 */
; 1206 : 			pointer _Ptr = _Move(_VIPTR(_Last), this->_Mylast,
; 1207 : 				_VIPTR(_First));

  00013	57		 push	 edi
  00014	8b 79 04	 mov	 edi, DWORD PTR [ecx+4]
  00017	3b d7		 cmp	 edx, edi
  00019	74 14		 je	 SHORT $LN30@erase
  0001b	53		 push	 ebx
  0001c	8d 64 24 00	 npad	 4
$LL32@erase:
  00020	8b 1a		 mov	 ebx, DWORD PTR [edx]
  00022	89 1e		 mov	 DWORD PTR [esi], ebx
  00024	83 c2 04	 add	 edx, 4
  00027	83 c6 04	 add	 esi, 4
  0002a	3b d7		 cmp	 edx, edi
  0002c	75 f2		 jne	 SHORT $LL32@erase
  0002e	5b		 pop	 ebx
$LN30@erase:

; 1208 :  #endif /* _ITERATOR_DEBUG_LEVEL == 2 */
; 1209 : 
; 1210 : 			_Destroy(_Ptr, this->_Mylast);
; 1211 : 			this->_Mylast = _Ptr;

  0002f	89 71 04	 mov	 DWORD PTR [ecx+4], esi
  00032	5f		 pop	 edi
$LN1@erase:
  00033	5e		 pop	 esi

; 1212 : 			}
; 1213 : 		return (_First);
; 1214 : 		}

  00034	5d		 pop	 ebp
  00035	c2 0c 00	 ret	 12			; 0000000cH
?erase@?$vector@UOFFMODE_BLOCK_MAP@@V?$allocator@UOFFMODE_BLOCK_MAP@@@std@@@std@@QAE?AV?$_Vector_iterator@V?$_Vector_val@UOFFMODE_BLOCK_MAP@@V?$allocator@UOFFMODE_BLOCK_MAP@@@std@@@std@@@2@V?$_Vector_const_iterator@V?$_Vector_val@UOFFMODE_BLOCK_MAP@@V?$allocator@UOFFMODE_BLOCK_MAP@@@std@@@std@@@2@0@Z ENDP ; std::vector<OFFMODE_BLOCK_MAP,std::allocator<OFFMODE_BLOCK_MAP> >::erase
_TEXT	ENDS
PUBLIC	?_Tidy@?$vector@UOFFMODE_BLOCK_MAP@@V?$allocator@UOFFMODE_BLOCK_MAP@@@std@@@std@@IAEXXZ ; std::vector<OFFMODE_BLOCK_MAP,std::allocator<OFFMODE_BLOCK_MAP> >::_Tidy
; Function compile flags: /Ogtp
;	COMDAT ?_Tidy@?$vector@UOFFMODE_BLOCK_MAP@@V?$allocator@UOFFMODE_BLOCK_MAP@@@std@@@std@@IAEXXZ
_TEXT	SEGMENT
?_Tidy@?$vector@UOFFMODE_BLOCK_MAP@@V?$allocator@UOFFMODE_BLOCK_MAP@@@std@@@std@@IAEXXZ PROC ; std::vector<OFFMODE_BLOCK_MAP,std::allocator<OFFMODE_BLOCK_MAP> >::_Tidy, COMDAT
; _this$ = ecx

; 1301 : 		{	// free all storage

  00000	56		 push	 esi
  00001	8b f1		 mov	 esi, ecx

; 1302 : 		if (this->_Myfirst != 0)

  00003	8b 06		 mov	 eax, DWORD PTR [esi]
  00005	85 c0		 test	 eax, eax
  00007	74 09		 je	 SHORT $LN6@Tidy

; 1303 : 			{	// something to free, destroy and deallocate it
; 1304 : 			this->_Orphan_all();
; 1305 : 			_Destroy(this->_Myfirst, this->_Mylast);
; 1306 : 			this->_Alval.deallocate(this->_Myfirst,
; 1307 : 				this->_Myend - this->_Myfirst);

  00009	50		 push	 eax
  0000a	e8 00 00 00 00	 call	 ??3@YAXPAX@Z		; operator delete
  0000f	83 c4 04	 add	 esp, 4
$LN6@Tidy:

; 1308 : 			}
; 1309 : 		this->_Myfirst = 0;

  00012	c7 06 00 00 00
	00		 mov	 DWORD PTR [esi], 0

; 1310 : 		this->_Mylast = 0;

  00018	c7 46 04 00 00
	00 00		 mov	 DWORD PTR [esi+4], 0

; 1311 : 		this->_Myend = 0;

  0001f	c7 46 08 00 00
	00 00		 mov	 DWORD PTR [esi+8], 0
  00026	5e		 pop	 esi

; 1312 : 		}

  00027	c3		 ret	 0
?_Tidy@?$vector@UOFFMODE_BLOCK_MAP@@V?$allocator@UOFFMODE_BLOCK_MAP@@@std@@@std@@IAEXXZ ENDP ; std::vector<OFFMODE_BLOCK_MAP,std::allocator<OFFMODE_BLOCK_MAP> >::_Tidy
_TEXT	ENDS
PUBLIC	?reserve@?$vector@UOFFMODE_BLOCK_MAP@@V?$allocator@UOFFMODE_BLOCK_MAP@@@std@@@std@@QAEXI@Z ; std::vector<OFFMODE_BLOCK_MAP,std::allocator<OFFMODE_BLOCK_MAP> >::reserve
EXTRN	___CxxFrameHandler3:PROC
;	COMDAT xdata$x
; File d:\program files (x86)\microsoft visual studio 10.0\vc\include\xutility
xdata$x	SEGMENT
__catchsym$?reserve@?$vector@UOFFMODE_BLOCK_MAP@@V?$allocator@UOFFMODE_BLOCK_MAP@@@std@@@std@@QAEXI@Z$2 DD 040H
	DD	00H
	DD	00H
	DD	FLAT:__catch$?reserve@?$vector@UOFFMODE_BLOCK_MAP@@V?$allocator@UOFFMODE_BLOCK_MAP@@@std@@@std@@QAEXI@Z$0
__unwindtable$?reserve@?$vector@UOFFMODE_BLOCK_MAP@@V?$allocator@UOFFMODE_BLOCK_MAP@@@std@@@std@@QAEXI@Z DD 0ffffffffH
	DD	00H
	DD	0ffffffffH
	DD	00H
__tryblocktable$?reserve@?$vector@UOFFMODE_BLOCK_MAP@@V?$allocator@UOFFMODE_BLOCK_MAP@@@std@@@std@@QAEXI@Z DD 00H
	DD	00H
	DD	01H
	DD	01H
	DD	FLAT:__catchsym$?reserve@?$vector@UOFFMODE_BLOCK_MAP@@V?$allocator@UOFFMODE_BLOCK_MAP@@@std@@@std@@QAEXI@Z$2
__ehfuncinfo$?reserve@?$vector@UOFFMODE_BLOCK_MAP@@V?$allocator@UOFFMODE_BLOCK_MAP@@@std@@@std@@QAEXI@Z DD 019930522H
	DD	02H
	DD	FLAT:__unwindtable$?reserve@?$vector@UOFFMODE_BLOCK_MAP@@V?$allocator@UOFFMODE_BLOCK_MAP@@@std@@@std@@QAEXI@Z
	DD	01H
	DD	FLAT:__tryblocktable$?reserve@?$vector@UOFFMODE_BLOCK_MAP@@V?$allocator@UOFFMODE_BLOCK_MAP@@@std@@@std@@QAEXI@Z
	DD	2 DUP(00H)
	DD	00H
	DD	01H
; Function compile flags: /Ogtp
; File d:\program files (x86)\microsoft visual studio 10.0\vc\include\vector
xdata$x	ENDS
;	COMDAT ?reserve@?$vector@UOFFMODE_BLOCK_MAP@@V?$allocator@UOFFMODE_BLOCK_MAP@@@std@@@std@@QAEXI@Z
_TEXT	SEGMENT
__Ptr$216172 = -20					; size = 4
__$EHRec$ = -16						; size = 16
__Cat$217927 = 8					; size = 1
__Count$ = 8						; size = 4
?reserve@?$vector@UOFFMODE_BLOCK_MAP@@V?$allocator@UOFFMODE_BLOCK_MAP@@@std@@@std@@QAEXI@Z PROC ; std::vector<OFFMODE_BLOCK_MAP,std::allocator<OFFMODE_BLOCK_MAP> >::reserve, COMDAT
; _this$ = ecx

; 746  : 		{	// determine new minimum length of allocated storage

  00000	55		 push	 ebp
  00001	8b ec		 mov	 ebp, esp
  00003	6a ff		 push	 -1
  00005	68 00 00 00 00	 push	 __ehhandler$?reserve@?$vector@UOFFMODE_BLOCK_MAP@@V?$allocator@UOFFMODE_BLOCK_MAP@@@std@@@std@@QAEXI@Z
  0000a	64 a1 00 00 00
	00		 mov	 eax, DWORD PTR fs:0
  00010	50		 push	 eax
  00011	83 ec 08	 sub	 esp, 8
  00014	53		 push	 ebx
  00015	56		 push	 esi
  00016	57		 push	 edi
  00017	a1 00 00 00 00	 mov	 eax, DWORD PTR ___security_cookie
  0001c	33 c5		 xor	 eax, ebp
  0001e	50		 push	 eax
  0001f	8d 45 f4	 lea	 eax, DWORD PTR __$EHRec$[ebp+4]
  00022	64 a3 00 00 00
	00		 mov	 DWORD PTR fs:0, eax
  00028	89 65 f0	 mov	 DWORD PTR __$EHRec$[ebp], esp
  0002b	8b f1		 mov	 esi, ecx

; 747  : 		if (max_size() < _Count)

  0002d	8b 45 08	 mov	 eax, DWORD PTR __Count$[ebp]
  00030	3d ff ff ff 3f	 cmp	 eax, 1073741823		; 3fffffffH
  00035	76 0a		 jbe	 SHORT $LN5@reserve

; 748  : 			_Xlen();	// result too long

  00037	68 00 00 00 00	 push	 OFFSET ??_C@_0BD@OLBABOEK@vector?$DMT?$DO?5too?5long?$AA@
  0003c	e8 00 00 00 00	 call	 ?_Xlength_error@std@@YAXPBD@Z ; std::_Xlength_error
$LN42@reserve:
$LN5@reserve:

; 749  : 		else if (capacity() < _Count)

  00041	8b 4e 08	 mov	 ecx, DWORD PTR [esi+8]
  00044	2b 0e		 sub	 ecx, DWORD PTR [esi]
  00046	c1 f9 02	 sar	 ecx, 2
  00049	3b c8		 cmp	 ecx, eax
  0004b	73 56		 jae	 SHORT $LN3@reserve

; 750  : 			{	// not enough room, reallocate
; 751  : 			pointer _Ptr = this->_Alval.allocate(_Count);

  0004d	8d 7e 0c	 lea	 edi, DWORD PTR [esi+12]
  00050	50		 push	 eax
  00051	8b cf		 mov	 ecx, edi
  00053	e8 00 00 00 00	 call	 ?allocate@?$allocator@UOFFMODE_BLOCK_MAP@@@std@@QAEPAUOFFMODE_BLOCK_MAP@@I@Z ; std::allocator<OFFMODE_BLOCK_MAP>::allocate

; 752  : 
; 753  : 			_TRY_BEGIN
; 754  : 			_Umove(this->_Myfirst, this->_Mylast, _Ptr);

  00058	8b 55 08	 mov	 edx, DWORD PTR __Cat$217927[ebp]
  0005b	8b 0e		 mov	 ecx, DWORD PTR [esi]
  0005d	52		 push	 edx
  0005e	6a 00		 push	 0
  00060	8b d8		 mov	 ebx, eax
  00062	8b 46 04	 mov	 eax, DWORD PTR [esi+4]
  00065	57		 push	 edi
  00066	53		 push	 ebx
  00067	50		 push	 eax
  00068	51		 push	 ecx
  00069	89 5d ec	 mov	 DWORD PTR __Ptr$216172[ebp], ebx
  0006c	c7 45 fc 00 00
	00 00		 mov	 DWORD PTR __$EHRec$[ebp+12], 0
  00073	e8 00 00 00 00	 call	 ??$_Uninit_move@PAUOFFMODE_BLOCK_MAP@@PAU1@V?$allocator@UOFFMODE_BLOCK_MAP@@@std@@U1@@std@@YAPAUOFFMODE_BLOCK_MAP@@PAU1@00AAV?$allocator@UOFFMODE_BLOCK_MAP@@@0@0U_Nonscalar_ptr_iterator_tag@0@@Z ; std::_Uninit_move<OFFMODE_BLOCK_MAP *,OFFMODE_BLOCK_MAP *,std::allocator<OFFMODE_BLOCK_MAP>,OFFMODE_BLOCK_MAP>

; 758  : 			_CATCH_END
; 759  : 
; 760  : 			size_type _Size = size();

  00078	8b 06		 mov	 eax, DWORD PTR [esi]
  0007a	8b 7e 04	 mov	 edi, DWORD PTR [esi+4]
  0007d	2b f8		 sub	 edi, eax
  0007f	83 c4 18	 add	 esp, 24			; 00000018H
  00082	c1 ff 02	 sar	 edi, 2

; 761  : 			if (this->_Myfirst != 0)

  00085	85 c0		 test	 eax, eax
  00087	74 09		 je	 SHORT $LN35@reserve

; 762  : 				{	// destroy and deallocate old array
; 763  : 				_Destroy(this->_Myfirst, this->_Mylast);
; 764  : 				this->_Alval.deallocate(this->_Myfirst,
; 765  : 					this->_Myend - this->_Myfirst);

  00089	50		 push	 eax
  0008a	e8 00 00 00 00	 call	 ??3@YAXPAX@Z		; operator delete
  0008f	83 c4 04	 add	 esp, 4
$LN35@reserve:

; 766  : 				}
; 767  : 
; 768  : 			this->_Orphan_all();
; 769  : 			this->_Myend = _Ptr + _Count;

  00092	8b 45 08	 mov	 eax, DWORD PTR __Count$[ebp]
  00095	8d 0c 83	 lea	 ecx, DWORD PTR [ebx+eax*4]

; 770  : 			this->_Mylast = _Ptr + _Size;

  00098	8d 14 bb	 lea	 edx, DWORD PTR [ebx+edi*4]
  0009b	89 4e 08	 mov	 DWORD PTR [esi+8], ecx
  0009e	89 56 04	 mov	 DWORD PTR [esi+4], edx

; 771  : 			this->_Myfirst = _Ptr;

  000a1	89 1e		 mov	 DWORD PTR [esi], ebx
$LN3@reserve:

; 772  : 			}
; 773  : 		}

  000a3	8b 4d f4	 mov	 ecx, DWORD PTR __$EHRec$[ebp+4]
  000a6	64 89 0d 00 00
	00 00		 mov	 DWORD PTR fs:0, ecx
  000ad	59		 pop	 ecx
  000ae	5f		 pop	 edi
  000af	5e		 pop	 esi
  000b0	5b		 pop	 ebx
  000b1	8b e5		 mov	 esp, ebp
  000b3	5d		 pop	 ebp
  000b4	c2 04 00	 ret	 4
__catch$?reserve@?$vector@UOFFMODE_BLOCK_MAP@@V?$allocator@UOFFMODE_BLOCK_MAP@@@std@@@std@@QAEXI@Z$0:

; 755  : 			_CATCH_ALL
; 756  : 			this->_Alval.deallocate(_Ptr, _Count);

  000b7	8b 45 ec	 mov	 eax, DWORD PTR __Ptr$216172[ebp]
  000ba	50		 push	 eax
  000bb	e8 00 00 00 00	 call	 ??3@YAXPAX@Z		; operator delete
  000c0	83 c4 04	 add	 esp, 4

; 757  : 			_RERAISE;

  000c3	6a 00		 push	 0
  000c5	6a 00		 push	 0
  000c7	e8 00 00 00 00	 call	 __CxxThrowException@8
$LN43@reserve:
$LN41@reserve:
  000cc	cc		 int	 3
_TEXT	ENDS
;	COMDAT text$x
text$x	SEGMENT
__ehhandler$?reserve@?$vector@UOFFMODE_BLOCK_MAP@@V?$allocator@UOFFMODE_BLOCK_MAP@@@std@@@std@@QAEXI@Z:
  00000	8b 54 24 08	 mov	 edx, DWORD PTR [esp+8]
  00004	8d 42 0c	 lea	 eax, DWORD PTR [edx+12]
  00007	8b 4a e8	 mov	 ecx, DWORD PTR [edx-24]
  0000a	33 c8		 xor	 ecx, eax
  0000c	e8 00 00 00 00	 call	 @__security_check_cookie@4
  00011	b8 00 00 00 00	 mov	 eax, OFFSET __ehfuncinfo$?reserve@?$vector@UOFFMODE_BLOCK_MAP@@V?$allocator@UOFFMODE_BLOCK_MAP@@@std@@@std@@QAEXI@Z
  00016	e9 00 00 00 00	 jmp	 ___CxxFrameHandler3
text$x	ENDS
?reserve@?$vector@UOFFMODE_BLOCK_MAP@@V?$allocator@UOFFMODE_BLOCK_MAP@@@std@@@std@@QAEXI@Z ENDP ; std::vector<OFFMODE_BLOCK_MAP,std::allocator<OFFMODE_BLOCK_MAP> >::reserve
PUBLIC	??1?$vector@UOFFMODE_BLOCK_MAP@@V?$allocator@UOFFMODE_BLOCK_MAP@@@std@@@std@@QAE@XZ ; std::vector<OFFMODE_BLOCK_MAP,std::allocator<OFFMODE_BLOCK_MAP> >::~vector<OFFMODE_BLOCK_MAP,std::allocator<OFFMODE_BLOCK_MAP> >
; Function compile flags: /Ogtp
;	COMDAT ??1?$vector@UOFFMODE_BLOCK_MAP@@V?$allocator@UOFFMODE_BLOCK_MAP@@@std@@@std@@QAE@XZ
_TEXT	SEGMENT
??1?$vector@UOFFMODE_BLOCK_MAP@@V?$allocator@UOFFMODE_BLOCK_MAP@@@std@@@std@@QAE@XZ PROC ; std::vector<OFFMODE_BLOCK_MAP,std::allocator<OFFMODE_BLOCK_MAP> >::~vector<OFFMODE_BLOCK_MAP,std::allocator<OFFMODE_BLOCK_MAP> >, COMDAT
; _this$ = ecx

; 704  : 		{	// destroy the object

  00000	56		 push	 esi
  00001	8b f1		 mov	 esi, ecx

; 705  : 		_Tidy();

  00003	8b 06		 mov	 eax, DWORD PTR [esi]
  00005	85 c0		 test	 eax, eax
  00007	74 09		 je	 SHORT $LN8@vector@2
  00009	50		 push	 eax
  0000a	e8 00 00 00 00	 call	 ??3@YAXPAX@Z		; operator delete
  0000f	83 c4 04	 add	 esp, 4
$LN8@vector@2:
  00012	c7 06 00 00 00
	00		 mov	 DWORD PTR [esi], 0
  00018	c7 46 04 00 00
	00 00		 mov	 DWORD PTR [esi+4], 0
  0001f	c7 46 08 00 00
	00 00		 mov	 DWORD PTR [esi+8], 0
  00026	5e		 pop	 esi

; 706  : 		}

  00027	c3		 ret	 0
??1?$vector@UOFFMODE_BLOCK_MAP@@V?$allocator@UOFFMODE_BLOCK_MAP@@@std@@@std@@QAE@XZ ENDP ; std::vector<OFFMODE_BLOCK_MAP,std::allocator<OFFMODE_BLOCK_MAP> >::~vector<OFFMODE_BLOCK_MAP,std::allocator<OFFMODE_BLOCK_MAP> >
_TEXT	ENDS
PUBLIC	?clear@?$vector@UOFFMODE_BLOCK_MAP@@V?$allocator@UOFFMODE_BLOCK_MAP@@@std@@@std@@QAEXXZ ; std::vector<OFFMODE_BLOCK_MAP,std::allocator<OFFMODE_BLOCK_MAP> >::clear
; Function compile flags: /Ogtp
;	COMDAT ?clear@?$vector@UOFFMODE_BLOCK_MAP@@V?$allocator@UOFFMODE_BLOCK_MAP@@@std@@@std@@QAEXXZ
_TEXT	SEGMENT
?clear@?$vector@UOFFMODE_BLOCK_MAP@@V?$allocator@UOFFMODE_BLOCK_MAP@@@std@@@std@@QAEXXZ PROC ; std::vector<OFFMODE_BLOCK_MAP,std::allocator<OFFMODE_BLOCK_MAP> >::clear, COMDAT
; _this$ = ecx

; 1218 : 		erase(begin(), end());

  00000	8b 51 04	 mov	 edx, DWORD PTR [ecx+4]
  00003	56		 push	 esi
  00004	8b 31		 mov	 esi, DWORD PTR [ecx]
  00006	3b f2		 cmp	 esi, edx
  00008	74 19		 je	 SHORT $LN19@clear
  0000a	8b c2		 mov	 eax, edx
  0000c	3b d2		 cmp	 edx, edx
  0000e	74 10		 je	 SHORT $LN48@clear
  00010	57		 push	 edi
$LL50@clear:
  00011	8b 38		 mov	 edi, DWORD PTR [eax]
  00013	89 3e		 mov	 DWORD PTR [esi], edi
  00015	83 c0 04	 add	 eax, 4
  00018	83 c6 04	 add	 esi, 4
  0001b	3b c2		 cmp	 eax, edx
  0001d	75 f2		 jne	 SHORT $LL50@clear
  0001f	5f		 pop	 edi
$LN48@clear:
  00020	89 71 04	 mov	 DWORD PTR [ecx+4], esi
$LN19@clear:
  00023	5e		 pop	 esi

; 1219 : 		}

  00024	c3		 ret	 0
?clear@?$vector@UOFFMODE_BLOCK_MAP@@V?$allocator@UOFFMODE_BLOCK_MAP@@@std@@@std@@QAEXXZ ENDP ; std::vector<OFFMODE_BLOCK_MAP,std::allocator<OFFMODE_BLOCK_MAP> >::clear
_TEXT	ENDS
PUBLIC	?_Reserve@?$vector@UOFFMODE_BLOCK_MAP@@V?$allocator@UOFFMODE_BLOCK_MAP@@@std@@@std@@IAEXI@Z ; std::vector<OFFMODE_BLOCK_MAP,std::allocator<OFFMODE_BLOCK_MAP> >::_Reserve
; Function compile flags: /Ogtp
;	COMDAT ?_Reserve@?$vector@UOFFMODE_BLOCK_MAP@@V?$allocator@UOFFMODE_BLOCK_MAP@@@std@@@std@@IAEXI@Z
_TEXT	SEGMENT
__Count$ = 8						; size = 4
?_Reserve@?$vector@UOFFMODE_BLOCK_MAP@@V?$allocator@UOFFMODE_BLOCK_MAP@@@std@@@std@@IAEXI@Z PROC ; std::vector<OFFMODE_BLOCK_MAP,std::allocator<OFFMODE_BLOCK_MAP> >::_Reserve, COMDAT
; _this$ = ecx

; 1290 : 		{	// ensure room for _Count new elements, grow exponentially

  00000	55		 push	 ebp
  00001	8b ec		 mov	 ebp, esp

; 1291 : 		size_type _Size = size();

  00003	8b 41 04	 mov	 eax, DWORD PTR [ecx+4]

; 1292 : 		if (max_size() - _Count < _Size)

  00006	8b 55 08	 mov	 edx, DWORD PTR __Count$[ebp]
  00009	56		 push	 esi
  0000a	8b 31		 mov	 esi, DWORD PTR [ecx]
  0000c	57		 push	 edi
  0000d	2b c6		 sub	 eax, esi
  0000f	bf ff ff ff 3f	 mov	 edi, 1073741823		; 3fffffffH
  00014	c1 f8 02	 sar	 eax, 2
  00017	2b fa		 sub	 edi, edx
  00019	3b f8		 cmp	 edi, eax
  0001b	73 0a		 jae	 SHORT $LN4@Reserve

; 1293 : 			_Xlen();

  0001d	68 00 00 00 00	 push	 OFFSET ??_C@_0BD@OLBABOEK@vector?$DMT?$DO?5too?5long?$AA@
  00022	e8 00 00 00 00	 call	 ?_Xlength_error@std@@YAXPBD@Z ; std::_Xlength_error
$LN34@Reserve:
$LN4@Reserve:

; 1294 : 		else if ((_Size += _Count) <= capacity())

  00027	03 c2		 add	 eax, edx
  00029	8b 51 08	 mov	 edx, DWORD PTR [ecx+8]
  0002c	2b d6		 sub	 edx, esi
  0002e	c1 fa 02	 sar	 edx, 2
  00031	3b c2		 cmp	 eax, edx
  00033	76 21		 jbe	 SHORT $LN1@Reserve

; 1295 : 			;
; 1296 : 		else
; 1297 : 			reserve(_Grow_to(_Size));

  00035	8b f2		 mov	 esi, edx
  00037	d1 ee		 shr	 esi, 1
  00039	bf ff ff ff 3f	 mov	 edi, 1073741823		; 3fffffffH
  0003e	2b fe		 sub	 edi, esi
  00040	3b fa		 cmp	 edi, edx
  00042	73 04		 jae	 SHORT $LN23@Reserve
  00044	33 d2		 xor	 edx, edx
  00046	eb 02		 jmp	 SHORT $LN24@Reserve
$LN23@Reserve:
  00048	03 d6		 add	 edx, esi
$LN24@Reserve:
  0004a	3b d0		 cmp	 edx, eax
  0004c	73 02		 jae	 SHORT $LN20@Reserve
  0004e	8b d0		 mov	 edx, eax
$LN20@Reserve:
  00050	52		 push	 edx
  00051	e8 00 00 00 00	 call	 ?reserve@?$vector@UOFFMODE_BLOCK_MAP@@V?$allocator@UOFFMODE_BLOCK_MAP@@@std@@@std@@QAEXI@Z ; std::vector<OFFMODE_BLOCK_MAP,std::allocator<OFFMODE_BLOCK_MAP> >::reserve
$LN1@Reserve:
  00056	5f		 pop	 edi
  00057	5e		 pop	 esi

; 1298 : 		}

  00058	5d		 pop	 ebp
  00059	c2 04 00	 ret	 4
$LN33@Reserve:
?_Reserve@?$vector@UOFFMODE_BLOCK_MAP@@V?$allocator@UOFFMODE_BLOCK_MAP@@@std@@@std@@IAEXI@Z ENDP ; std::vector<OFFMODE_BLOCK_MAP,std::allocator<OFFMODE_BLOCK_MAP> >::_Reserve
_TEXT	ENDS
PUBLIC	??0OfflineMode@@QAE@XZ				; OfflineMode::OfflineMode
; Function compile flags: /Ogtp
; File e:\work\tranet_version\gs\gameserver\offlinemode.cpp
;	COMDAT ??0OfflineMode@@QAE@XZ
_TEXT	SEGMENT
??0OfflineMode@@QAE@XZ PROC				; OfflineMode::OfflineMode, COMDAT
; _this$ = ecx

; 35   : {

  00000	8b c1		 mov	 eax, ecx
  00002	33 c9		 xor	 ecx, ecx
  00004	89 48 28	 mov	 DWORD PTR [eax+40], ecx
  00007	89 48 2c	 mov	 DWORD PTR [eax+44], ecx
  0000a	89 48 30	 mov	 DWORD PTR [eax+48], ecx

; 36   : 	this->StartBonusPay = 0;

  0000d	89 48 04	 mov	 DWORD PTR [eax+4], ecx

; 37   : 	this->HourCredit = 0;

  00010	89 48 14	 mov	 DWORD PTR [eax+20], ecx

; 38   : 	this->m_bLoadedDB = false;

  00013	88 48 19	 mov	 BYTE PTR [eax+25], cl

; 39   : }

  00016	c3		 ret	 0
??0OfflineMode@@QAE@XZ ENDP				; OfflineMode::OfflineMode
_TEXT	ENDS
PUBLIC	??1OfflineMode@@QAE@XZ				; OfflineMode::~OfflineMode
; Function compile flags: /Ogtp
;	COMDAT ??1OfflineMode@@QAE@XZ
_TEXT	SEGMENT
??1OfflineMode@@QAE@XZ PROC				; OfflineMode::~OfflineMode, COMDAT
; _this$ = ecx

; 43   : {

  00000	56		 push	 esi
  00001	8b f1		 mov	 esi, ecx

; 44   : }

  00003	8b 46 28	 mov	 eax, DWORD PTR [esi+40]
  00006	85 c0		 test	 eax, eax
  00008	74 09		 je	 SHORT $LN11@OfflineMod
  0000a	50		 push	 eax
  0000b	e8 00 00 00 00	 call	 ??3@YAXPAX@Z		; operator delete
  00010	83 c4 04	 add	 esp, 4
$LN11@OfflineMod:
  00013	c7 46 28 00 00
	00 00		 mov	 DWORD PTR [esi+40], 0
  0001a	c7 46 2c 00 00
	00 00		 mov	 DWORD PTR [esi+44], 0
  00021	c7 46 30 00 00
	00 00		 mov	 DWORD PTR [esi+48], 0
  00028	5e		 pop	 esi
  00029	c3		 ret	 0
??1OfflineMode@@QAE@XZ ENDP				; OfflineMode::~OfflineMode
_TEXT	ENDS
PUBLIC	?push_back@?$vector@UOFFMODE_BLOCK_MAP@@V?$allocator@UOFFMODE_BLOCK_MAP@@@std@@@std@@QAEXABUOFFMODE_BLOCK_MAP@@@Z ; std::vector<OFFMODE_BLOCK_MAP,std::allocator<OFFMODE_BLOCK_MAP> >::push_back
; Function compile flags: /Ogtp
; File d:\program files (x86)\microsoft visual studio 10.0\vc\include\vector
;	COMDAT ?push_back@?$vector@UOFFMODE_BLOCK_MAP@@V?$allocator@UOFFMODE_BLOCK_MAP@@@std@@@std@@QAEXABUOFFMODE_BLOCK_MAP@@@Z
_TEXT	SEGMENT
__Val$ = 8						; size = 4
?push_back@?$vector@UOFFMODE_BLOCK_MAP@@V?$allocator@UOFFMODE_BLOCK_MAP@@@std@@@std@@QAEXABUOFFMODE_BLOCK_MAP@@@Z PROC ; std::vector<OFFMODE_BLOCK_MAP,std::allocator<OFFMODE_BLOCK_MAP> >::push_back, COMDAT
; _this$ = ecx

; 976  : 		{	// insert element at end

  00000	55		 push	 ebp
  00001	8b ec		 mov	 ebp, esp
  00003	56		 push	 esi
  00004	8b f1		 mov	 esi, ecx

; 977  : 		if (_Inside(_STD addressof(_Val)))

  00006	8b 46 04	 mov	 eax, DWORD PTR [esi+4]
  00009	57		 push	 edi
  0000a	8b 7d 08	 mov	 edi, DWORD PTR __Val$[ebp]
  0000d	3b f8		 cmp	 edi, eax
  0000f	73 39		 jae	 SHORT $LN4@push_back
  00011	8b 0e		 mov	 ecx, DWORD PTR [esi]
  00013	3b cf		 cmp	 ecx, edi
  00015	77 33		 ja	 SHORT $LN4@push_back

; 978  : 			{	// push back an element
; 979  : 			size_type _Idx = _STD addressof(_Val) - this->_Myfirst;

  00017	2b f9		 sub	 edi, ecx
  00019	c1 ff 02	 sar	 edi, 2

; 980  : 			if (this->_Mylast == this->_Myend)

  0001c	3b 46 08	 cmp	 eax, DWORD PTR [esi+8]
  0001f	75 09		 jne	 SHORT $LN3@push_back

; 981  : 				_Reserve(1);

  00021	6a 01		 push	 1
  00023	8b ce		 mov	 ecx, esi
  00025	e8 00 00 00 00	 call	 ?_Reserve@?$vector@UOFFMODE_BLOCK_MAP@@V?$allocator@UOFFMODE_BLOCK_MAP@@@std@@@std@@IAEXI@Z ; std::vector<OFFMODE_BLOCK_MAP,std::allocator<OFFMODE_BLOCK_MAP> >::_Reserve
$LN3@push_back:

; 982  : 			_Orphan_range(this->_Mylast, this->_Mylast);
; 983  : 			_Cons_val(this->_Alval,
; 984  : 				this->_Mylast,
; 985  : 				this->_Myfirst[_Idx]);

  0002a	8b 06		 mov	 eax, DWORD PTR [esi]
  0002c	8b 56 04	 mov	 edx, DWORD PTR [esi+4]
  0002f	8d 0c b8	 lea	 ecx, DWORD PTR [eax+edi*4]
  00032	51		 push	 ecx
  00033	52		 push	 edx
  00034	8d 46 0c	 lea	 eax, DWORD PTR [esi+12]
  00037	50		 push	 eax
  00038	e8 00 00 00 00	 call	 ??$_Cons_val@V?$allocator@UOFFMODE_BLOCK_MAP@@@std@@UOFFMODE_BLOCK_MAP@@AAU3@@std@@YAXAAV?$allocator@UOFFMODE_BLOCK_MAP@@@0@PAUOFFMODE_BLOCK_MAP@@AAU2@@Z ; std::_Cons_val<std::allocator<OFFMODE_BLOCK_MAP>,OFFMODE_BLOCK_MAP,OFFMODE_BLOCK_MAP &>

; 992  : 			_Orphan_range(this->_Mylast, this->_Mylast);
; 993  : 			_Cons_val(this->_Alval,
; 994  : 				this->_Mylast,
; 995  : 				_Val);

  0003d	83 c4 0c	 add	 esp, 12			; 0000000cH

; 996  : 			++this->_Mylast;

  00040	83 46 04 04	 add	 DWORD PTR [esi+4], 4
  00044	5f		 pop	 edi
  00045	5e		 pop	 esi

; 997  : 			}
; 998  : 		}

  00046	5d		 pop	 ebp
  00047	c2 04 00	 ret	 4
$LN4@push_back:

; 986  : 			++this->_Mylast;
; 987  : 			}
; 988  : 		else
; 989  : 			{	// push back a non-element
; 990  : 			if (this->_Mylast == this->_Myend)

  0004a	3b 46 08	 cmp	 eax, DWORD PTR [esi+8]
  0004d	75 09		 jne	 SHORT $LN1@push_back

; 991  : 				_Reserve(1);

  0004f	6a 01		 push	 1
  00051	8b ce		 mov	 ecx, esi
  00053	e8 00 00 00 00	 call	 ?_Reserve@?$vector@UOFFMODE_BLOCK_MAP@@V?$allocator@UOFFMODE_BLOCK_MAP@@@std@@@std@@IAEXI@Z ; std::vector<OFFMODE_BLOCK_MAP,std::allocator<OFFMODE_BLOCK_MAP> >::_Reserve
$LN1@push_back:

; 992  : 			_Orphan_range(this->_Mylast, this->_Mylast);
; 993  : 			_Cons_val(this->_Alval,
; 994  : 				this->_Mylast,
; 995  : 				_Val);

  00058	8b 4e 04	 mov	 ecx, DWORD PTR [esi+4]
  0005b	57		 push	 edi
  0005c	51		 push	 ecx
  0005d	8d 56 0c	 lea	 edx, DWORD PTR [esi+12]
  00060	52		 push	 edx
  00061	e8 00 00 00 00	 call	 ??$_Cons_val@V?$allocator@UOFFMODE_BLOCK_MAP@@@std@@UOFFMODE_BLOCK_MAP@@ABU3@@std@@YAXAAV?$allocator@UOFFMODE_BLOCK_MAP@@@0@PAUOFFMODE_BLOCK_MAP@@ABU2@@Z ; std::_Cons_val<std::allocator<OFFMODE_BLOCK_MAP>,OFFMODE_BLOCK_MAP,OFFMODE_BLOCK_MAP const &>
  00066	83 c4 0c	 add	 esp, 12			; 0000000cH

; 996  : 			++this->_Mylast;

  00069	83 46 04 04	 add	 DWORD PTR [esi+4], 4
  0006d	5f		 pop	 edi
  0006e	5e		 pop	 esi

; 997  : 			}
; 998  : 		}

  0006f	5d		 pop	 ebp
  00070	c2 04 00	 ret	 4
?push_back@?$vector@UOFFMODE_BLOCK_MAP@@V?$allocator@UOFFMODE_BLOCK_MAP@@@std@@@std@@QAEXABUOFFMODE_BLOCK_MAP@@@Z ENDP ; std::vector<OFFMODE_BLOCK_MAP,std::allocator<OFFMODE_BLOCK_MAP> >::push_back
_TEXT	ENDS
PUBLIC	??_C@_02DPKJAMEF@?$CFd?$AA@			; `string'
PUBLIC	??_C@_0BA@PIOFNAIM@LOAD?5FILE?5ERROR?$AA@	; `string'
PUBLIC	??_C@_01KDCPPGHE@r?$AA@				; `string'
PUBLIC	??_C@_0BF@ILJJBLEP@PremiumPlayerMaxTime?$AA@	; `string'
PUBLIC	??_C@_0BD@FGMGOFJI@OtherPlayerMaxTime?$AA@	; `string'
PUBLIC	??_C@_0BD@NEOBABLC@StandartPlayerTime?$AA@	; `string'
PUBLIC	??_C@_0BA@NMLGBFAO@OnlyLorenMarket?$AA@		; `string'
PUBLIC	??_C@_0L@FGJEOOCJ@HourCredit?$AA@		; `string'
PUBLIC	??_C@_0L@HJHEFBHG@PriceWcoin?$AA@		; `string'
PUBLIC	??_C@_06CNKIADGI@ZtTeam?$AA@			; `string'
PUBLIC	??_C@_08FFJPBABB@PriceZen?$AA@			; `string'
PUBLIC	__$ArrayPad$
PUBLIC	?Read@OfflineMode@@QAEXPAD@Z			; OfflineMode::Read
EXTRN	_fclose:PROC
EXTRN	_sscanf:PROC
EXTRN	?Zt_IsBadFileLine@@YA_NPADAAH@Z:PROC		; Zt_IsBadFileLine
EXTRN	_fgets:PROC
EXTRN	_feof:PROC
EXTRN	__imp__MessageBoxA@16:PROC
EXTRN	_fopen:PROC
EXTRN	__imp__GetPrivateProfileIntA@16:PROC
;	COMDAT ??_C@_02DPKJAMEF@?$CFd?$AA@
; File d:\program files (x86)\microsoft visual studio 10.0\vc\include\utility
CONST	SEGMENT
??_C@_02DPKJAMEF@?$CFd?$AA@ DB '%d', 00H		; `string'
CONST	ENDS
;	COMDAT ??_C@_0BA@PIOFNAIM@LOAD?5FILE?5ERROR?$AA@
CONST	SEGMENT
??_C@_0BA@PIOFNAIM@LOAD?5FILE?5ERROR?$AA@ DB 'LOAD FILE ERROR', 00H ; `string'
CONST	ENDS
;	COMDAT ??_C@_01KDCPPGHE@r?$AA@
CONST	SEGMENT
??_C@_01KDCPPGHE@r?$AA@ DB 'r', 00H			; `string'
CONST	ENDS
;	COMDAT ??_C@_0BF@ILJJBLEP@PremiumPlayerMaxTime?$AA@
CONST	SEGMENT
??_C@_0BF@ILJJBLEP@PremiumPlayerMaxTime?$AA@ DB 'PremiumPlayerMaxTime', 00H ; `string'
CONST	ENDS
;	COMDAT ??_C@_0BD@FGMGOFJI@OtherPlayerMaxTime?$AA@
CONST	SEGMENT
??_C@_0BD@FGMGOFJI@OtherPlayerMaxTime?$AA@ DB 'OtherPlayerMaxTime', 00H ; `string'
CONST	ENDS
;	COMDAT ??_C@_0BD@NEOBABLC@StandartPlayerTime?$AA@
CONST	SEGMENT
??_C@_0BD@NEOBABLC@StandartPlayerTime?$AA@ DB 'StandartPlayerTime', 00H ; `string'
CONST	ENDS
;	COMDAT ??_C@_0BA@NMLGBFAO@OnlyLorenMarket?$AA@
CONST	SEGMENT
??_C@_0BA@NMLGBFAO@OnlyLorenMarket?$AA@ DB 'OnlyLorenMarket', 00H ; `string'
CONST	ENDS
;	COMDAT ??_C@_0L@FGJEOOCJ@HourCredit?$AA@
CONST	SEGMENT
??_C@_0L@FGJEOOCJ@HourCredit?$AA@ DB 'HourCredit', 00H	; `string'
CONST	ENDS
;	COMDAT ??_C@_0L@HJHEFBHG@PriceWcoin?$AA@
CONST	SEGMENT
??_C@_0L@HJHEFBHG@PriceWcoin?$AA@ DB 'PriceWcoin', 00H	; `string'
CONST	ENDS
;	COMDAT ??_C@_06CNKIADGI@ZtTeam?$AA@
CONST	SEGMENT
??_C@_06CNKIADGI@ZtTeam?$AA@ DB 'ZtTeam', 00H		; `string'
CONST	ENDS
;	COMDAT ??_C@_08FFJPBABB@PriceZen?$AA@
CONST	SEGMENT
??_C@_08FFJPBABB@PriceZen?$AA@ DB 'PriceZen', 00H	; `string'
; Function compile flags: /Ogtp
; File e:\work\tranet_version\gs\gameserver\offlinemode.cpp
CONST	ENDS
;	COMDAT ?Read@OfflineMode@@QAEXPAD@Z
_TEXT	SEGMENT
_List$215127 = -272					; size = 4
_n$215126 = -268					; size = 4
_Flag$215118 = -264					; size = 4
_Buff$215117 = -260					; size = 256
__$ArrayPad$ = -4					; size = 4
_filename$ = 8						; size = 4
?Read@OfflineMode@@QAEXPAD@Z PROC			; OfflineMode::Read, COMDAT
; _this$ = ecx

; 54   : {

  00000	55		 push	 ebp
  00001	8b ec		 mov	 ebp, esp
  00003	81 ec 10 01 00
	00		 sub	 esp, 272		; 00000110H
  00009	a1 00 00 00 00	 mov	 eax, DWORD PTR ___security_cookie
  0000e	33 c5		 xor	 eax, ebp
  00010	89 45 fc	 mov	 DWORD PTR __$ArrayPad$[ebp], eax
  00013	53		 push	 ebx
  00014	8b 5d 08	 mov	 ebx, DWORD PTR _filename$[ebp]
  00017	56		 push	 esi
  00018	57		 push	 edi

; 55   : 	//this->StartBonusPay = GetPrivateProfileInt("ZtTeam", "StartBonusPay", 0, filename);
; 56   : 	//this->HourZenPay = GetPrivateProfileInt("ZtTeam", "HourZenPay", 0, filename);
; 57   : 	this->PriceZen = GetPrivateProfileInt("ZtTeam", "PriceZen", 0, filename);

  00019	8b 3d 00 00 00
	00		 mov	 edi, DWORD PTR __imp__GetPrivateProfileIntA@16
  0001f	53		 push	 ebx
  00020	6a 00		 push	 0
  00022	68 00 00 00 00	 push	 OFFSET ??_C@_08FFJPBABB@PriceZen?$AA@
  00027	68 00 00 00 00	 push	 OFFSET ??_C@_06CNKIADGI@ZtTeam?$AA@
  0002c	8b f1		 mov	 esi, ecx
  0002e	ff d7		 call	 edi

; 58   : 	this->PriceWcoin = GetPrivateProfileInt("ZtTeam", "PriceWcoin", 0, filename);

  00030	53		 push	 ebx
  00031	6a 00		 push	 0
  00033	68 00 00 00 00	 push	 OFFSET ??_C@_0L@HJHEFBHG@PriceWcoin?$AA@
  00038	68 00 00 00 00	 push	 OFFSET ??_C@_06CNKIADGI@ZtTeam?$AA@
  0003d	89 46 0c	 mov	 DWORD PTR [esi+12], eax
  00040	ff d7		 call	 edi

; 59   : 	this->HourCredit = GetPrivateProfileInt("ZtTeam", "HourCredit", 0, filename);

  00042	53		 push	 ebx
  00043	6a 00		 push	 0
  00045	68 00 00 00 00	 push	 OFFSET ??_C@_0L@FGJEOOCJ@HourCredit?$AA@
  0004a	68 00 00 00 00	 push	 OFFSET ??_C@_06CNKIADGI@ZtTeam?$AA@
  0004f	89 46 10	 mov	 DWORD PTR [esi+16], eax
  00052	ff d7		 call	 edi

; 60   : 	this->bOnlyLorenMarket = GetPrivateProfileInt("ZtTeam", "OnlyLorenMarket", 0, filename);

  00054	53		 push	 ebx
  00055	6a 00		 push	 0
  00057	68 00 00 00 00	 push	 OFFSET ??_C@_0BA@NMLGBFAO@OnlyLorenMarket?$AA@
  0005c	68 00 00 00 00	 push	 OFFSET ??_C@_06CNKIADGI@ZtTeam?$AA@
  00061	89 46 14	 mov	 DWORD PTR [esi+20], eax
  00064	ff d7		 call	 edi
  00066	85 c0		 test	 eax, eax
  00068	0f 95 c0	 setne	 al

; 61   : 
; 62   : 	#if(ADD_OFFMODE_TIMER)
; 63   : 	if(g_ZtLicense.CheckUser(eZtUB::eternalmu))

  0006b	6a 4f		 push	 79			; 0000004fH
  0006d	b9 00 00 00 00	 mov	 ecx, OFFSET ?g_ZtLicense@@3VCZtLicense@@A ; g_ZtLicense
  00072	88 46 18	 mov	 BYTE PTR [esi+24], al
  00075	e8 00 00 00 00	 call	 ?CheckUser@CZtLicense@@QAE_NH@Z ; CZtLicense::CheckUser
  0007a	84 c0		 test	 al, al
  0007c	74 36		 je	 SHORT $LN10@Read

; 64   : 	{
; 65   : 		this->m_StandartPlayerTime = GetPrivateProfileInt("ZtTeam", "StandartPlayerTime", 12, filename);

  0007e	53		 push	 ebx
  0007f	6a 0c		 push	 12			; 0000000cH
  00081	68 00 00 00 00	 push	 OFFSET ??_C@_0BD@NEOBABLC@StandartPlayerTime?$AA@
  00086	68 00 00 00 00	 push	 OFFSET ??_C@_06CNKIADGI@ZtTeam?$AA@
  0008b	ff d7		 call	 edi

; 66   : 		this->m_OtherPlayerMaxTime = GetPrivateProfileInt("ZtTeam", "OtherPlayerMaxTime", 24, filename);

  0008d	53		 push	 ebx
  0008e	6a 18		 push	 24			; 00000018H
  00090	68 00 00 00 00	 push	 OFFSET ??_C@_0BD@FGMGOFJI@OtherPlayerMaxTime?$AA@
  00095	68 00 00 00 00	 push	 OFFSET ??_C@_06CNKIADGI@ZtTeam?$AA@
  0009a	89 46 1c	 mov	 DWORD PTR [esi+28], eax
  0009d	ff d7		 call	 edi

; 67   : 		this->m_PremiumPlayerMaxTime = GetPrivateProfileInt("ZtTeam", "PremiumPlayerMaxTime", 72, filename);

  0009f	53		 push	 ebx
  000a0	6a 48		 push	 72			; 00000048H
  000a2	68 00 00 00 00	 push	 OFFSET ??_C@_0BF@ILJJBLEP@PremiumPlayerMaxTime?$AA@
  000a7	68 00 00 00 00	 push	 OFFSET ??_C@_06CNKIADGI@ZtTeam?$AA@
  000ac	89 46 20	 mov	 DWORD PTR [esi+32], eax
  000af	ff d7		 call	 edi
  000b1	89 46 24	 mov	 DWORD PTR [esi+36], eax
$LN10@Read:

; 68   : 	}
; 69   : 	#endif
; 70   : 
; 71   : 	this->m_BlockMap.clear();

  000b4	8b 56 28	 mov	 edx, DWORD PTR [esi+40]
  000b7	8b 4e 2c	 mov	 ecx, DWORD PTR [esi+44]
  000ba	8d 7e 28	 lea	 edi, DWORD PTR [esi+40]
  000bd	3b d1		 cmp	 edx, ecx
  000bf	74 17		 je	 SHORT $LN31@Read
  000c1	8b c1		 mov	 eax, ecx
  000c3	3b c9		 cmp	 ecx, ecx
  000c5	74 0e		 je	 SHORT $LN60@Read
$LL62@Read:
  000c7	8b 30		 mov	 esi, DWORD PTR [eax]
  000c9	89 32		 mov	 DWORD PTR [edx], esi
  000cb	83 c0 04	 add	 eax, 4
  000ce	83 c2 04	 add	 edx, 4
  000d1	3b c1		 cmp	 eax, ecx
  000d3	75 f2		 jne	 SHORT $LL62@Read
$LN60@Read:
  000d5	89 57 04	 mov	 DWORD PTR [edi+4], edx
$LN31@Read:

; 72   : 
; 73   : 	if( g_ZtLicense.CheckUser(eZtUB::Local)		 || 
; 74   : 		g_ZtLicense.CheckUser(eZtUB::SILVER1)	 || 
; 75   : 		g_ZtLicense.CheckUser(eZtUB::SILVER2) )

  000d8	6a 00		 push	 0
  000da	b9 00 00 00 00	 mov	 ecx, OFFSET ?g_ZtLicense@@3VCZtLicense@@A ; g_ZtLicense
  000df	e8 00 00 00 00	 call	 ?CheckUser@CZtLicense@@QAE_NH@Z ; CZtLicense::CheckUser
  000e4	84 c0		 test	 al, al
  000e6	75 24		 jne	 SHORT $LN8@Read
  000e8	6a 07		 push	 7
  000ea	b9 00 00 00 00	 mov	 ecx, OFFSET ?g_ZtLicense@@3VCZtLicense@@A ; g_ZtLicense
  000ef	e8 00 00 00 00	 call	 ?CheckUser@CZtLicense@@QAE_NH@Z ; CZtLicense::CheckUser
  000f4	84 c0		 test	 al, al
  000f6	75 14		 jne	 SHORT $LN8@Read
  000f8	6a 08		 push	 8
  000fa	b9 00 00 00 00	 mov	 ecx, OFFSET ?g_ZtLicense@@3VCZtLicense@@A ; g_ZtLicense
  000ff	e8 00 00 00 00	 call	 ?CheckUser@CZtLicense@@QAE_NH@Z ; CZtLicense::CheckUser
  00104	84 c0		 test	 al, al
  00106	0f 84 f7 00 00
	00		 je	 $LN9@Read
$LN8@Read:

; 76   : 	{
; 77   : 
; 78   : 		FILE * file = fopen(filename,"r");

  0010c	68 00 00 00 00	 push	 OFFSET ??_C@_01KDCPPGHE@r?$AA@
  00111	53		 push	 ebx
  00112	e8 00 00 00 00	 call	 _fopen
  00117	8b f0		 mov	 esi, eax
  00119	83 c4 08	 add	 esp, 8

; 79   : 
; 80   : 		if(file == NULL)

  0011c	85 f6		 test	 esi, esi
  0011e	75 0e		 jne	 SHORT $LN7@Read

; 81   : 		{
; 82   : 			MessageBoxA(0,filename,"LOAD FILE ERROR",0);

  00120	50		 push	 eax
  00121	68 00 00 00 00	 push	 OFFSET ??_C@_0BA@PIOFNAIM@LOAD?5FILE?5ERROR?$AA@
  00126	53		 push	 ebx
  00127	50		 push	 eax
  00128	ff 15 00 00 00
	00		 call	 DWORD PTR __imp__MessageBoxA@16
$LN7@Read:

; 83   : 		}
; 84   : 
; 85   : 		char Buff[256];
; 86   : 		int Flag = 0;
; 87   : 
; 88   : 		while(!feof(file))

  0012e	56		 push	 esi
  0012f	c7 85 f8 fe ff
	ff 00 00 00 00	 mov	 DWORD PTR _Flag$215118[ebp], 0
  00139	e8 00 00 00 00	 call	 _feof
  0013e	83 c4 04	 add	 esp, 4
  00141	85 c0		 test	 eax, eax
  00143	0f 85 b1 00 00
	00		 jne	 $LN5@Read
  00149	8d 58 01	 lea	 ebx, DWORD PTR [eax+1]
  0014c	8d 64 24 00	 npad	 4
$LL6@Read:

; 89   : 		{
; 90   : 			fgets(Buff,256,file);

  00150	56		 push	 esi
  00151	8d 8d fc fe ff
	ff		 lea	 ecx, DWORD PTR _Buff$215117[ebp]
  00157	68 00 01 00 00	 push	 256			; 00000100H
  0015c	51		 push	 ecx
  0015d	e8 00 00 00 00	 call	 _fgets

; 91   : 			if(Zt_IsBadFileLine(Buff, Flag))

  00162	8d 95 f8 fe ff
	ff		 lea	 edx, DWORD PTR _Flag$215118[ebp]
  00168	52		 push	 edx
  00169	8d 85 fc fe ff
	ff		 lea	 eax, DWORD PTR _Buff$215117[ebp]
  0016f	50		 push	 eax
  00170	e8 00 00 00 00	 call	 ?Zt_IsBadFileLine@@YA_NPADAAH@Z ; Zt_IsBadFileLine
  00175	83 c4 14	 add	 esp, 20			; 00000014H
  00178	84 c0		 test	 al, al
  0017a	75 6d		 jne	 SHORT $LN1@Read

; 92   : 				continue;
; 93   : 
; 94   : 			if( g_ZtLicense.CheckUser(eZtUB::Local)		 || 
; 95   : 				g_ZtLicense.CheckUser(eZtUB::SILVER1)	 || 
; 96   : 				g_ZtLicense.CheckUser(eZtUB::SILVER2) )

  0017c	6a 00		 push	 0
  0017e	b9 00 00 00 00	 mov	 ecx, OFFSET ?g_ZtLicense@@3VCZtLicense@@A ; g_ZtLicense
  00183	e8 00 00 00 00	 call	 ?CheckUser@CZtLicense@@QAE_NH@Z ; CZtLicense::CheckUser
  00188	84 c0		 test	 al, al
  0018a	75 20		 jne	 SHORT $LN2@Read
  0018c	6a 07		 push	 7
  0018e	b9 00 00 00 00	 mov	 ecx, OFFSET ?g_ZtLicense@@3VCZtLicense@@A ; g_ZtLicense
  00193	e8 00 00 00 00	 call	 ?CheckUser@CZtLicense@@QAE_NH@Z ; CZtLicense::CheckUser
  00198	84 c0		 test	 al, al
  0019a	75 10		 jne	 SHORT $LN2@Read
  0019c	6a 08		 push	 8
  0019e	b9 00 00 00 00	 mov	 ecx, OFFSET ?g_ZtLicense@@3VCZtLicense@@A ; g_ZtLicense
  001a3	e8 00 00 00 00	 call	 ?CheckUser@CZtLicense@@QAE_NH@Z ; CZtLicense::CheckUser
  001a8	84 c0		 test	 al, al
  001aa	74 3d		 je	 SHORT $LN1@Read
$LN2@Read:

; 97   : 			{
; 98   : 				if(Flag == 1)

  001ac	39 9d f8 fe ff
	ff		 cmp	 DWORD PTR _Flag$215118[ebp], ebx
  001b2	75 35		 jne	 SHORT $LN1@Read

; 99   : 				{
; 100  : 					int n;
; 101  : 					sscanf(Buff, "%d", &n);

  001b4	8d 8d f4 fe ff
	ff		 lea	 ecx, DWORD PTR _n$215126[ebp]
  001ba	51		 push	 ecx
  001bb	8d 95 fc fe ff
	ff		 lea	 edx, DWORD PTR _Buff$215117[ebp]
  001c1	68 00 00 00 00	 push	 OFFSET ??_C@_02DPKJAMEF@?$CFd?$AA@
  001c6	52		 push	 edx
  001c7	e8 00 00 00 00	 call	 _sscanf

; 102  : 					OFFMODE_BLOCK_MAP List;			
; 103  : 					List.MapNumber = n;

  001cc	8b 85 f4 fe ff
	ff		 mov	 eax, DWORD PTR _n$215126[ebp]
  001d2	83 c4 0c	 add	 esp, 12			; 0000000cH

; 104  : 					this->m_BlockMap.push_back(List);

  001d5	8d 8d f0 fe ff
	ff		 lea	 ecx, DWORD PTR _List$215127[ebp]
  001db	51		 push	 ecx
  001dc	8b cf		 mov	 ecx, edi
  001de	89 85 f0 fe ff
	ff		 mov	 DWORD PTR _List$215127[ebp], eax
  001e4	e8 00 00 00 00	 call	 ?push_back@?$vector@UOFFMODE_BLOCK_MAP@@V?$allocator@UOFFMODE_BLOCK_MAP@@@std@@@std@@QAEXABUOFFMODE_BLOCK_MAP@@@Z ; std::vector<OFFMODE_BLOCK_MAP,std::allocator<OFFMODE_BLOCK_MAP> >::push_back
$LN1@Read:

; 83   : 		}
; 84   : 
; 85   : 		char Buff[256];
; 86   : 		int Flag = 0;
; 87   : 
; 88   : 		while(!feof(file))

  001e9	56		 push	 esi
  001ea	e8 00 00 00 00	 call	 _feof
  001ef	83 c4 04	 add	 esp, 4
  001f2	85 c0		 test	 eax, eax
  001f4	0f 84 56 ff ff
	ff		 je	 $LL6@Read
$LN5@Read:

; 105  : 				}
; 106  : 			}
; 107  : 		}
; 108  : 
; 109  : 		fclose(file);

  001fa	56		 push	 esi
  001fb	e8 00 00 00 00	 call	 _fclose
  00200	83 c4 04	 add	 esp, 4
$LN9@Read:

; 110  : 	}
; 111  : }

  00203	8b 4d fc	 mov	 ecx, DWORD PTR __$ArrayPad$[ebp]
  00206	5f		 pop	 edi
  00207	5e		 pop	 esi
  00208	33 cd		 xor	 ecx, ebp
  0020a	5b		 pop	 ebx
  0020b	e8 00 00 00 00	 call	 @__security_check_cookie@4
  00210	8b e5		 mov	 esp, ebp
  00212	5d		 pop	 ebp
  00213	c2 04 00	 ret	 4
?Read@OfflineMode@@QAEXPAD@Z ENDP			; OfflineMode::Read
_TEXT	ENDS
PUBLIC	??_C@_0BH@FGOKEEOJ@ZtData?2OfflineMode?4ini?$AA@ ; `string'
PUBLIC	?Load@OfflineMode@@QAEXXZ			; OfflineMode::Load
EXTRN	?GetNewPath@CDirPath@@QAEPADPAD@Z:PROC		; CDirPath::GetNewPath
EXTRN	?gDirPath@@3VCDirPath@@A:BYTE			; gDirPath
;	COMDAT ??_C@_0BH@FGOKEEOJ@ZtData?2OfflineMode?4ini?$AA@
CONST	SEGMENT
??_C@_0BH@FGOKEEOJ@ZtData?2OfflineMode?4ini?$AA@ DB 'ZtData\OfflineMode.i'
	DB	'ni', 00H					; `string'
; Function compile flags: /Ogtp
CONST	ENDS
;	COMDAT ?Load@OfflineMode@@QAEXXZ
_TEXT	SEGMENT
?Load@OfflineMode@@QAEXXZ PROC				; OfflineMode::Load, COMDAT
; _this$ = ecx

; 48   : {

  00000	56		 push	 esi
  00001	8b f1		 mov	 esi, ecx

; 49   : 	this->Read(gDirPath.GetNewPath("ZtData\\OfflineMode.ini"));

  00003	68 00 00 00 00	 push	 OFFSET ??_C@_0BH@FGOKEEOJ@ZtData?2OfflineMode?4ini?$AA@
  00008	b9 00 00 00 00	 mov	 ecx, OFFSET ?gDirPath@@3VCDirPath@@A ; gDirPath
  0000d	e8 00 00 00 00	 call	 ?GetNewPath@CDirPath@@QAEPADPAD@Z ; CDirPath::GetNewPath
  00012	50		 push	 eax
  00013	8b ce		 mov	 ecx, esi
  00015	e8 00 00 00 00	 call	 ?Read@OfflineMode@@QAEXPAD@Z ; OfflineMode::Read
  0001a	5e		 pop	 esi

; 50   : }

  0001b	c3		 ret	 0
?Load@OfflineMode@@QAEXXZ ENDP				; OfflineMode::Load
_TEXT	ENDS
EXTRN	_atexit:PROC
; Function compile flags: /Ogtp
;	COMDAT ??__Eg_OfflineMode@@YAXXZ
text$yc	SEGMENT
??__Eg_OfflineMode@@YAXXZ PROC				; `dynamic initializer for 'g_OfflineMode'', COMDAT

; 31   : OfflineMode g_OfflineMode;

  00000	b9 00 00 00 00	 mov	 ecx, OFFSET ?g_OfflineMode@@3VOfflineMode@@A ; g_OfflineMode
  00005	e8 00 00 00 00	 call	 ??0OfflineMode@@QAE@XZ	; OfflineMode::OfflineMode
  0000a	68 00 00 00 00	 push	 OFFSET ??__Fg_OfflineMode@@YAXXZ ; `dynamic atexit destructor for 'g_OfflineMode''
  0000f	e8 00 00 00 00	 call	 _atexit
  00014	59		 pop	 ecx
  00015	c3		 ret	 0
??__Eg_OfflineMode@@YAXXZ ENDP				; `dynamic initializer for 'g_OfflineMode''
; Function compile flags: /Ogtp
text$yc	ENDS
;	COMDAT ??__Fg_OfflineMode@@YAXXZ
text$yd	SEGMENT
??__Fg_OfflineMode@@YAXXZ PROC				; `dynamic atexit destructor for 'g_OfflineMode'', COMDAT
  00000	b9 00 00 00 00	 mov	 ecx, OFFSET ?g_OfflineMode@@3VOfflineMode@@A ; g_OfflineMode
  00005	e9 00 00 00 00	 jmp	 ??1OfflineMode@@QAE@XZ	; OfflineMode::~OfflineMode
??__Fg_OfflineMode@@YAXXZ ENDP				; `dynamic atexit destructor for 'g_OfflineMode''
text$yd	ENDS
PUBLIC	?g_OfflineMode@@3VOfflineMode@@A		; g_OfflineMode
_BSS	SEGMENT
?g_OfflineMode@@3VOfflineMode@@A DB 038H DUP (?)	; g_OfflineMode
_BSS	ENDS
CRT$XCU	SEGMENT
_g_OfflineMode$initializer$ DD FLAT:??__Eg_OfflineMode@@YAXXZ
CRT$XCU	ENDS
END
