; Listing generated by Microsoft (R) Optimizing Compiler Version 16.00.30319.01 

	TITLE	E:\work\tranet_version\GS\GameServer\PackManager.cpp
	.686P
	.XMM
	include listing.inc
	.model	flat

INCLUDELIB LIBCMT
INCLUDELIB OLDNAMES

PUBLIC	??0CPackManager@@QAE@XZ				; CPackManager::CPackManager
; Function compile flags: /Ogtp
; File e:\work\tranet_version\gs\gameserver\packmanager.cpp
;	COMDAT ??0CPackManager@@QAE@XZ
_TEXT	SEGMENT
??0CPackManager@@QAE@XZ PROC				; CPackManager::CPackManager, COMDAT
; _this$ = ecx

; 9    : {

  00000	8b c1		 mov	 eax, ecx

; 10   : }

  00002	c3		 ret	 0
??0CPackManager@@QAE@XZ ENDP				; CPackManager::CPackManager
_TEXT	ENDS
PUBLIC	??1CPackManager@@QAE@XZ				; CPackManager::~CPackManager
; Function compile flags: /Ogtp
;	COMDAT ??1CPackManager@@QAE@XZ
_TEXT	SEGMENT
??1CPackManager@@QAE@XZ PROC				; CPackManager::~CPackManager, COMDAT
; _this$ = ecx

; 14   : }

  00000	c3		 ret	 0
??1CPackManager@@QAE@XZ ENDP				; CPackManager::~CPackManager
_TEXT	ENDS
EXTRN	_atexit:PROC
; Function compile flags: /Ogtp
;	COMDAT ??__Eg_PackManager@@YAXXZ
text$yc	SEGMENT
??__Eg_PackManager@@YAXXZ PROC				; `dynamic initializer for 'g_PackManager'', COMDAT

; 6    : CPackManager g_PackManager;

  00000	68 00 00 00 00	 push	 OFFSET ??__Fg_PackManager@@YAXXZ ; `dynamic atexit destructor for 'g_PackManager''
  00005	e8 00 00 00 00	 call	 _atexit
  0000a	59		 pop	 ecx
  0000b	c3		 ret	 0
??__Eg_PackManager@@YAXXZ ENDP				; `dynamic initializer for 'g_PackManager''
; Function compile flags: /Ogtp
text$yc	ENDS
;	COMDAT ??__Fg_PackManager@@YAXXZ
text$yd	SEGMENT
??__Fg_PackManager@@YAXXZ PROC				; `dynamic atexit destructor for 'g_PackManager'', COMDAT
  00000	c3		 ret	 0
??__Fg_PackManager@@YAXXZ ENDP				; `dynamic atexit destructor for 'g_PackManager''
text$yd	ENDS
PUBLIC	?g_PackManager@@3VCPackManager@@A		; g_PackManager
_BSS	SEGMENT
?g_PackManager@@3VCPackManager@@A DB 01H DUP (?)	; g_PackManager
_BSS	ENDS
CRT$XCU	SEGMENT
_g_PackManager$initializer$ DD FLAT:??__Eg_PackManager@@YAXXZ
CRT$XCU	ENDS
END
