; Listing generated by Microsoft (R) Optimizing Compiler Version 16.00.30319.01 

	TITLE	E:\work\tranet_version\GS\GameServer\PvPMapSystem.cpp
	.686P
	.XMM
	include listing.inc
	.model	flat

INCLUDELIB LIBCMT
INCLUDELIB OLDNAMES

PUBLIC	??2@YAPAXIPAX@Z					; operator new
; Function compile flags: /Ogtp
; File d:\program files (x86)\microsoft visual studio 10.0\vc\include\new.h
;	COMDAT ??2@YAPAXIPAX@Z
_TEXT	SEGMENT
___formal$ = 8						; size = 4
__Where$ = 12						; size = 4
??2@YAPAXIPAX@Z PROC					; operator new, COMDAT

; 81   :         {return (_Where); }

  00000	55		 push	 ebp
  00001	8b ec		 mov	 ebp, esp
  00003	8b 45 0c	 mov	 eax, DWORD PTR __Where$[ebp]
  00006	5d		 pop	 ebp
  00007	c3		 ret	 0
??2@YAPAXIPAX@Z ENDP					; operator new
_TEXT	ENDS
PUBLIC	??3@YAXPAX0@Z					; operator delete
; Function compile flags: /Ogtp
;	COMDAT ??3@YAXPAX0@Z
_TEXT	SEGMENT
___formal$ = 8						; size = 4
___formal$ = 12						; size = 4
??3@YAXPAX0@Z PROC					; operator delete, COMDAT

; 83   :         {return; }

  00000	c3		 ret	 0
??3@YAXPAX0@Z ENDP					; operator delete
_TEXT	ENDS
PUBLIC	??_H@YGXPAXIHP6EPAX0@Z@Z			; `vector constructor iterator'
; Function compile flags: /Ogtp
;	COMDAT ??_H@YGXPAXIHP6EPAX0@Z@Z
_TEXT	SEGMENT
___t$ = 8						; size = 4
___s$ = 12						; size = 4
___n$ = 16						; size = 4
___f$ = 20						; size = 4
??_H@YGXPAXIHP6EPAX0@Z@Z PROC				; `vector constructor iterator', COMDAT
  00000	55		 push	 ebp
  00001	8b ec		 mov	 ebp, esp
  00003	57		 push	 edi
  00004	8b 7d 10	 mov	 edi, DWORD PTR ___n$[ebp]
  00007	4f		 dec	 edi
  00008	78 14		 js	 SHORT $LN1@vector
  0000a	53		 push	 ebx
  0000b	8b 5d 14	 mov	 ebx, DWORD PTR ___f$[ebp]
  0000e	56		 push	 esi
  0000f	8b 75 08	 mov	 esi, DWORD PTR ___t$[ebp]
$LL2@vector:
  00012	8b ce		 mov	 ecx, esi
  00014	ff d3		 call	 ebx
  00016	03 75 0c	 add	 esi, DWORD PTR ___s$[ebp]
  00019	4f		 dec	 edi
  0001a	79 f6		 jns	 SHORT $LL2@vector
  0001c	5e		 pop	 esi
  0001d	5b		 pop	 ebx
$LN1@vector:
  0001e	5f		 pop	 edi
  0001f	5d		 pop	 ebp
  00020	c2 10 00	 ret	 16			; 00000010H
??_H@YGXPAXIHP6EPAX0@Z@Z ENDP				; `vector constructor iterator'
_TEXT	ENDS
PUBLIC	?CheckPkMap@cPvPMapSystem@@QAE_NPAUOBJECTSTRUCT@@0@Z ; cPvPMapSystem::CheckPkMap
; Function compile flags: /Ogtp
; File e:\work\tranet_version\gs\gameserver\pvpmapsystem.cpp
;	COMDAT ?CheckPkMap@cPvPMapSystem@@QAE_NPAUOBJECTSTRUCT@@0@Z
_TEXT	SEGMENT
_lpObj$ = 8						; size = 4
_lpTargetObj$ = 12					; size = 4
?CheckPkMap@cPvPMapSystem@@QAE_NPAUOBJECTSTRUCT@@0@Z PROC ; cPvPMapSystem::CheckPkMap, COMDAT
; _this$ = ecx

; 151  : {

  00000	55		 push	 ebp
  00001	8b ec		 mov	 ebp, esp

; 152  : 	if(!this->EnablePvPMap) return true;

  00003	83 39 00	 cmp	 DWORD PTR [ecx], 0
  00006	75 06		 jne	 SHORT $LN9@CheckPkMap
  00008	b0 01		 mov	 al, 1

; 172  : }

  0000a	5d		 pop	 ebp
  0000b	c2 08 00	 ret	 8
$LN9@CheckPkMap:
  0000e	53		 push	 ebx
  0000f	56		 push	 esi
  00010	57		 push	 edi

; 153  : 	if(lpObj->Type == OBJ_USER && lpTargetObj->Type == OBJ_USER)

  00011	8b 7d 08	 mov	 edi, DWORD PTR _lpObj$[ebp]
  00014	b8 01 00 00 00	 mov	 eax, 1
  00019	66 39 47 68	 cmp	 WORD PTR [edi+104], ax
  0001d	0f 85 94 00 00
	00		 jne	 $LN3@CheckPkMap
  00023	8b 55 0c	 mov	 edx, DWORD PTR _lpTargetObj$[ebp]
  00026	66 39 42 68	 cmp	 WORD PTR [edx+104], ax
  0002a	0f 85 87 00 00
	00		 jne	 $LN3@CheckPkMap

; 154  : 	{
; 155  : 		if(this->EnableLoraRing)

  00030	83 79 04 00	 cmp	 DWORD PTR [ecx+4], 0
  00034	74 37		 je	 SHORT $LN15@CheckPkMap

; 156  : 		{
; 157  : 			if(lpObj->MapNumber==0 && lpObj->X >= this->m_LoraRingX1 && lpObj->X <= this->m_LoraRingX2 && lpObj->Y >= this->m_LoraRingY1 && lpObj->Y <= this->m_LoraRingY2) return false;

  00036	80 bf 49 01 00
	00 00		 cmp	 BYTE PTR [edi+329], 0
  0003d	75 2e		 jne	 SHORT $LN15@CheckPkMap
  0003f	0f bf 97 44 01
	00 00		 movsx	 edx, WORD PTR [edi+324]
  00046	3b 91 d4 07 00
	00		 cmp	 edx, DWORD PTR [ecx+2004]
  0004c	7c 1f		 jl	 SHORT $LN15@CheckPkMap
  0004e	3b 91 dc 07 00
	00		 cmp	 edx, DWORD PTR [ecx+2012]
  00054	7f 17		 jg	 SHORT $LN15@CheckPkMap
  00056	0f bf 97 46 01
	00 00		 movsx	 edx, WORD PTR [edi+326]
  0005d	3b 91 d8 07 00
	00		 cmp	 edx, DWORD PTR [ecx+2008]
  00063	7c 08		 jl	 SHORT $LN15@CheckPkMap
  00065	3b 91 e0 07 00
	00		 cmp	 edx, DWORD PTR [ecx+2016]
  0006b	7e 53		 jle	 SHORT $LN13@CheckPkMap
$LN15@CheckPkMap:
  0006d	8b 99 d0 07 00
	00		 mov	 ebx, DWORD PTR [ecx+2000]

; 158  : 		}
; 159  : 		for(int i=0;i<this->pCount;i++)

  00073	33 f6		 xor	 esi, esi
  00075	85 db		 test	 ebx, ebx
  00077	7e 3e		 jle	 SHORT $LN3@CheckPkMap
  00079	0f b6 87 49 01
	00 00		 movzx	 eax, BYTE PTR [edi+329]
  00080	83 c1 0c	 add	 ecx, 12			; 0000000cH
$LL5@CheckPkMap:

; 160  : 		{
; 161  : 			if(this->PvP[i].Map == lpObj->MapNumber && this->PvP[i].Status == 1)

  00083	39 41 fc	 cmp	 DWORD PTR [ecx-4], eax
  00086	75 27		 jne	 SHORT $LN4@CheckPkMap
  00088	83 39 01	 cmp	 DWORD PTR [ecx], 1
  0008b	75 22		 jne	 SHORT $LN4@CheckPkMap

; 162  : 			{
; 163  : 				if(		(lpObj->X >= this->PvP[i].X1 && lpObj->X <= this->PvP[i].X2)
; 164  : 					&&	(lpObj->Y >= this->PvP[i].Y1 && lpObj->Y <= this->PvP[i].Y2) )

  0008d	0f bf 97 44 01
	00 00		 movsx	 edx, WORD PTR [edi+324]
  00094	3b 51 04	 cmp	 edx, DWORD PTR [ecx+4]
  00097	7c 16		 jl	 SHORT $LN4@CheckPkMap
  00099	3b 51 08	 cmp	 edx, DWORD PTR [ecx+8]
  0009c	7f 11		 jg	 SHORT $LN4@CheckPkMap
  0009e	0f bf 97 46 01
	00 00		 movsx	 edx, WORD PTR [edi+326]
  000a5	3b 51 0c	 cmp	 edx, DWORD PTR [ecx+12]
  000a8	7c 05		 jl	 SHORT $LN4@CheckPkMap
  000aa	3b 51 10	 cmp	 edx, DWORD PTR [ecx+16]
  000ad	7e 11		 jle	 SHORT $LN13@CheckPkMap
$LN4@CheckPkMap:

; 158  : 		}
; 159  : 		for(int i=0;i<this->pCount;i++)

  000af	46		 inc	 esi
  000b0	83 c1 18	 add	 ecx, 24			; 00000018H
  000b3	3b f3		 cmp	 esi, ebx
  000b5	7c cc		 jl	 SHORT $LL5@CheckPkMap
$LN3@CheckPkMap:
  000b7	5f		 pop	 edi
  000b8	5e		 pop	 esi

; 167  : 				}
; 168  : 			}
; 169  : 		}
; 170  : 	}
; 171  : 	return true;

  000b9	b0 01		 mov	 al, 1
  000bb	5b		 pop	 ebx

; 172  : }

  000bc	5d		 pop	 ebp
  000bd	c2 08 00	 ret	 8
$LN13@CheckPkMap:
  000c0	5f		 pop	 edi
  000c1	5e		 pop	 esi

; 165  : 				{
; 166  : 					return false;

  000c2	32 c0		 xor	 al, al
  000c4	5b		 pop	 ebx

; 172  : }

  000c5	5d		 pop	 ebp
  000c6	c2 08 00	 ret	 8
?CheckPkMap@cPvPMapSystem@@QAE_NPAUOBJECTSTRUCT@@0@Z ENDP ; cPvPMapSystem::CheckPkMap
_TEXT	ENDS
PUBLIC	?CheckPvPMap@cPvPMapSystem@@QAE_NPAUOBJECTSTRUCT@@@Z ; cPvPMapSystem::CheckPvPMap
; Function compile flags: /Ogtp
;	COMDAT ?CheckPvPMap@cPvPMapSystem@@QAE_NPAUOBJECTSTRUCT@@@Z
_TEXT	SEGMENT
_lpObj$ = 8						; size = 4
?CheckPvPMap@cPvPMapSystem@@QAE_NPAUOBJECTSTRUCT@@@Z PROC ; cPvPMapSystem::CheckPvPMap, COMDAT
; _this$ = ecx

; 175  : {

  00000	55		 push	 ebp
  00001	8b ec		 mov	 ebp, esp

; 176  : 	if(!this->EnablePvPMap) return true;

  00003	83 39 00	 cmp	 DWORD PTR [ecx], 0
  00006	75 06		 jne	 SHORT $LN7@CheckPvPMa
  00008	b0 01		 mov	 al, 1

; 194  : }

  0000a	5d		 pop	 ebp
  0000b	c2 04 00	 ret	 4
$LN7@CheckPvPMa:
  0000e	53		 push	 ebx
  0000f	56		 push	 esi

; 177  : 
; 178  : 	if(lpObj->Type == OBJ_USER)

  00010	8b 75 08	 mov	 esi, DWORD PTR _lpObj$[ebp]
  00013	66 83 7e 68 01	 cmp	 WORD PTR [esi+104], 1
  00018	57		 push	 edi
  00019	75 4a		 jne	 SHORT $LN3@CheckPvPMa

; 179  : 	{
; 180  : 		for(int i=0;i<this->pCount;i++)

  0001b	8b b9 d0 07 00
	00		 mov	 edi, DWORD PTR [ecx+2000]
  00021	33 d2		 xor	 edx, edx
  00023	85 ff		 test	 edi, edi
  00025	7e 3e		 jle	 SHORT $LN3@CheckPvPMa
  00027	0f b6 9e 49 01
	00 00		 movzx	 ebx, BYTE PTR [esi+329]
  0002e	8d 41 0c	 lea	 eax, DWORD PTR [ecx+12]
$LL5@CheckPvPMa:

; 181  : 		{
; 182  : 			if(this->PvP[i].Map == lpObj->MapNumber && this->PvP[i].Status == 2)

  00031	39 58 fc	 cmp	 DWORD PTR [eax-4], ebx
  00034	75 27		 jne	 SHORT $LN4@CheckPvPMa
  00036	83 38 02	 cmp	 DWORD PTR [eax], 2
  00039	75 22		 jne	 SHORT $LN4@CheckPvPMa

; 183  : 			{
; 184  : 				if(	(lpObj->X >= this->PvP[i].X1 && lpObj->X <= this->PvP[i].X2) &&	
; 185  : 					(lpObj->Y >= this->PvP[i].Y1 && lpObj->Y <= this->PvP[i].Y2) )

  0003b	0f bf 8e 44 01
	00 00		 movsx	 ecx, WORD PTR [esi+324]
  00042	3b 48 04	 cmp	 ecx, DWORD PTR [eax+4]
  00045	7c 16		 jl	 SHORT $LN4@CheckPvPMa
  00047	3b 48 08	 cmp	 ecx, DWORD PTR [eax+8]
  0004a	7f 11		 jg	 SHORT $LN4@CheckPvPMa
  0004c	0f bf 8e 46 01
	00 00		 movsx	 ecx, WORD PTR [esi+326]
  00053	3b 48 0c	 cmp	 ecx, DWORD PTR [eax+12]
  00056	7c 05		 jl	 SHORT $LN4@CheckPvPMa
  00058	3b 48 10	 cmp	 ecx, DWORD PTR [eax+16]
  0005b	7e 11		 jle	 SHORT $LN11@CheckPvPMa
$LN4@CheckPvPMa:

; 179  : 	{
; 180  : 		for(int i=0;i<this->pCount;i++)

  0005d	42		 inc	 edx
  0005e	83 c0 18	 add	 eax, 24			; 00000018H
  00061	3b d7		 cmp	 edx, edi
  00063	7c cc		 jl	 SHORT $LL5@CheckPvPMa
$LN3@CheckPvPMa:
  00065	5f		 pop	 edi
  00066	5e		 pop	 esi

; 188  : 				}
; 189  : 			}
; 190  : 		}
; 191  : 	}
; 192  : 
; 193  : 	return true;

  00067	b0 01		 mov	 al, 1
  00069	5b		 pop	 ebx

; 194  : }

  0006a	5d		 pop	 ebp
  0006b	c2 04 00	 ret	 4
$LN11@CheckPvPMa:
  0006e	5f		 pop	 edi
  0006f	5e		 pop	 esi

; 186  : 				{
; 187  : 					return false;

  00070	32 c0		 xor	 al, al
  00072	5b		 pop	 ebx

; 194  : }

  00073	5d		 pop	 ebp
  00074	c2 04 00	 ret	 4
?CheckPvPMap@cPvPMapSystem@@QAE_NPAUOBJECTSTRUCT@@@Z ENDP ; cPvPMapSystem::CheckPvPMap
_TEXT	ENDS
PUBLIC	?size@?$vector@UMAP_RULE_DATA@@V?$allocator@UMAP_RULE_DATA@@@std@@@std@@QBEIXZ ; std::vector<MAP_RULE_DATA,std::allocator<MAP_RULE_DATA> >::size
; Function compile flags: /Ogtp
; File d:\program files (x86)\microsoft visual studio 10.0\vc\include\vector
;	COMDAT ?size@?$vector@UMAP_RULE_DATA@@V?$allocator@UMAP_RULE_DATA@@@std@@@std@@QBEIXZ
_TEXT	SEGMENT
?size@?$vector@UMAP_RULE_DATA@@V?$allocator@UMAP_RULE_DATA@@@std@@@std@@QBEIXZ PROC ; std::vector<MAP_RULE_DATA,std::allocator<MAP_RULE_DATA> >::size, COMDAT
; _this$ = ecx

; 879  : 		return (this->_Mylast - this->_Myfirst);

  00000	8b 51 04	 mov	 edx, DWORD PTR [ecx+4]
  00003	2b 11		 sub	 edx, DWORD PTR [ecx]
  00005	b8 67 66 66 66	 mov	 eax, 1717986919		; 66666667H
  0000a	f7 ea		 imul	 edx
  0000c	c1 fa 03	 sar	 edx, 3
  0000f	8b c2		 mov	 eax, edx
  00011	c1 e8 1f	 shr	 eax, 31			; 0000001fH
  00014	03 c2		 add	 eax, edx

; 880  : 		}

  00016	c3		 ret	 0
?size@?$vector@UMAP_RULE_DATA@@V?$allocator@UMAP_RULE_DATA@@@std@@@std@@QBEIXZ ENDP ; std::vector<MAP_RULE_DATA,std::allocator<MAP_RULE_DATA> >::size
_TEXT	ENDS
PUBLIC	??A?$vector@UMAP_RULE_DATA@@V?$allocator@UMAP_RULE_DATA@@@std@@@std@@QAEAAUMAP_RULE_DATA@@I@Z ; std::vector<MAP_RULE_DATA,std::allocator<MAP_RULE_DATA> >::operator[]
; Function compile flags: /Ogtp
;	COMDAT ??A?$vector@UMAP_RULE_DATA@@V?$allocator@UMAP_RULE_DATA@@@std@@@std@@QAEAAUMAP_RULE_DATA@@I@Z
_TEXT	SEGMENT
__Pos$ = 8						; size = 4
??A?$vector@UMAP_RULE_DATA@@V?$allocator@UMAP_RULE_DATA@@@std@@@std@@QAEAAUMAP_RULE_DATA@@I@Z PROC ; std::vector<MAP_RULE_DATA,std::allocator<MAP_RULE_DATA> >::operator[], COMDAT
; _this$ = ecx

; 928  : 		{	// subscript mutable sequence

  00000	55		 push	 ebp
  00001	8b ec		 mov	 ebp, esp

; 929  :  #if _ITERATOR_DEBUG_LEVEL == 2
; 930  : 		if (size() <= _Pos)
; 931  : 			{	// report error
; 932  : 			_DEBUG_ERROR("vector subscript out of range");
; 933  : 			_SCL_SECURE_OUT_OF_RANGE;
; 934  : 			}
; 935  : 
; 936  :  #elif _ITERATOR_DEBUG_LEVEL == 1
; 937  : 		_SCL_SECURE_VALIDATE_RANGE(_Pos < size());
; 938  :  #endif /* _ITERATOR_DEBUG_LEVEL */
; 939  : 
; 940  : 		return (*(this->_Myfirst + _Pos));

  00003	8b 45 08	 mov	 eax, DWORD PTR __Pos$[ebp]
  00006	8b 09		 mov	 ecx, DWORD PTR [ecx]
  00008	8d 04 80	 lea	 eax, DWORD PTR [eax+eax*4]
  0000b	8d 04 81	 lea	 eax, DWORD PTR [ecx+eax*4]

; 941  : 		}

  0000e	5d		 pop	 ebp
  0000f	c2 04 00	 ret	 4
??A?$vector@UMAP_RULE_DATA@@V?$allocator@UMAP_RULE_DATA@@@std@@@std@@QAEAAUMAP_RULE_DATA@@I@Z ENDP ; std::vector<MAP_RULE_DATA,std::allocator<MAP_RULE_DATA> >::operator[]
_TEXT	ENDS
PUBLIC	?_Inside@?$vector@UMAP_RULE_DATA@@V?$allocator@UMAP_RULE_DATA@@@std@@@std@@IBE_NPBUMAP_RULE_DATA@@@Z ; std::vector<MAP_RULE_DATA,std::allocator<MAP_RULE_DATA> >::_Inside
; Function compile flags: /Ogtp
;	COMDAT ?_Inside@?$vector@UMAP_RULE_DATA@@V?$allocator@UMAP_RULE_DATA@@@std@@@std@@IBE_NPBUMAP_RULE_DATA@@@Z
_TEXT	SEGMENT
__Ptr$ = 8						; size = 4
?_Inside@?$vector@UMAP_RULE_DATA@@V?$allocator@UMAP_RULE_DATA@@@std@@@std@@IBE_NPBUMAP_RULE_DATA@@@Z PROC ; std::vector<MAP_RULE_DATA,std::allocator<MAP_RULE_DATA> >::_Inside, COMDAT
; _this$ = ecx

; 1285 : 		{	// test if _Ptr points inside vector

  00000	55		 push	 ebp
  00001	8b ec		 mov	 ebp, esp

; 1286 : 		return (_Ptr < this->_Mylast && this->_Myfirst <= _Ptr);

  00003	8b 45 08	 mov	 eax, DWORD PTR __Ptr$[ebp]
  00006	3b 41 04	 cmp	 eax, DWORD PTR [ecx+4]
  00009	73 0d		 jae	 SHORT $LN3@Inside
  0000b	39 01		 cmp	 DWORD PTR [ecx], eax
  0000d	77 09		 ja	 SHORT $LN3@Inside
  0000f	b8 01 00 00 00	 mov	 eax, 1

; 1287 : 		}

  00014	5d		 pop	 ebp
  00015	c2 04 00	 ret	 4
$LN3@Inside:

; 1286 : 		return (_Ptr < this->_Mylast && this->_Myfirst <= _Ptr);

  00018	33 c0		 xor	 eax, eax

; 1287 : 		}

  0001a	5d		 pop	 ebp
  0001b	c2 04 00	 ret	 4
?_Inside@?$vector@UMAP_RULE_DATA@@V?$allocator@UMAP_RULE_DATA@@@std@@@std@@IBE_NPBUMAP_RULE_DATA@@@Z ENDP ; std::vector<MAP_RULE_DATA,std::allocator<MAP_RULE_DATA> >::_Inside
_TEXT	ENDS
PUBLIC	?_Orphan_range@?$vector@UMAP_RULE_DATA@@V?$allocator@UMAP_RULE_DATA@@@std@@@std@@IBEXPAUMAP_RULE_DATA@@0@Z ; std::vector<MAP_RULE_DATA,std::allocator<MAP_RULE_DATA> >::_Orphan_range
; Function compile flags: /Ogtp
;	COMDAT ?_Orphan_range@?$vector@UMAP_RULE_DATA@@V?$allocator@UMAP_RULE_DATA@@@std@@@std@@IBEXPAUMAP_RULE_DATA@@0@Z
_TEXT	SEGMENT
___formal$ = 8						; size = 4
___formal$ = 12						; size = 4
?_Orphan_range@?$vector@UMAP_RULE_DATA@@V?$allocator@UMAP_RULE_DATA@@@std@@@std@@IBEXPAUMAP_RULE_DATA@@0@Z PROC ; std::vector<MAP_RULE_DATA,std::allocator<MAP_RULE_DATA> >::_Orphan_range, COMDAT
; _this$ = ecx

; 1454 : 		}

  00000	c2 08 00	 ret	 8
?_Orphan_range@?$vector@UMAP_RULE_DATA@@V?$allocator@UMAP_RULE_DATA@@@std@@@std@@IBEXPAUMAP_RULE_DATA@@0@Z ENDP ; std::vector<MAP_RULE_DATA,std::allocator<MAP_RULE_DATA> >::_Orphan_range
_TEXT	ENDS
PUBLIC	??1?$_Vector_val@UMAP_RULE_DATA@@V?$allocator@UMAP_RULE_DATA@@@std@@@std@@QAE@XZ ; std::_Vector_val<MAP_RULE_DATA,std::allocator<MAP_RULE_DATA> >::~_Vector_val<MAP_RULE_DATA,std::allocator<MAP_RULE_DATA> >
; Function compile flags: /Ogtp
;	COMDAT ??1?$_Vector_val@UMAP_RULE_DATA@@V?$allocator@UMAP_RULE_DATA@@@std@@@std@@QAE@XZ
_TEXT	SEGMENT
??1?$_Vector_val@UMAP_RULE_DATA@@V?$allocator@UMAP_RULE_DATA@@@std@@@std@@QAE@XZ PROC ; std::_Vector_val<MAP_RULE_DATA,std::allocator<MAP_RULE_DATA> >::~_Vector_val<MAP_RULE_DATA,std::allocator<MAP_RULE_DATA> >, COMDAT
; _this$ = ecx

; 434  : 		}

  00000	c3		 ret	 0
??1?$_Vector_val@UMAP_RULE_DATA@@V?$allocator@UMAP_RULE_DATA@@@std@@@std@@QAE@XZ ENDP ; std::_Vector_val<MAP_RULE_DATA,std::allocator<MAP_RULE_DATA> >::~_Vector_val<MAP_RULE_DATA,std::allocator<MAP_RULE_DATA> >
_TEXT	ENDS
PUBLIC	??0?$allocator@UMAP_RULE_DATA@@@std@@QAE@XZ	; std::allocator<MAP_RULE_DATA>::allocator<MAP_RULE_DATA>
; Function compile flags: /Ogtp
; File d:\program files (x86)\microsoft visual studio 10.0\vc\include\xmemory
;	COMDAT ??0?$allocator@UMAP_RULE_DATA@@@std@@QAE@XZ
_TEXT	SEGMENT
??0?$allocator@UMAP_RULE_DATA@@@std@@QAE@XZ PROC	; std::allocator<MAP_RULE_DATA>::allocator<MAP_RULE_DATA>, COMDAT
; _this$ = ecx

; 161  : 	_ALLOCATOR() _THROW0()

  00000	8b c1		 mov	 eax, ecx

; 162  : 		{	// construct default allocator (do nothing)
; 163  : 		}

  00002	c3		 ret	 0
??0?$allocator@UMAP_RULE_DATA@@@std@@QAE@XZ ENDP	; std::allocator<MAP_RULE_DATA>::allocator<MAP_RULE_DATA>
_TEXT	ENDS
PUBLIC	?capacity@?$vector@UMAP_RULE_DATA@@V?$allocator@UMAP_RULE_DATA@@@std@@@std@@QBEIXZ ; std::vector<MAP_RULE_DATA,std::allocator<MAP_RULE_DATA> >::capacity
; Function compile flags: /Ogtp
; File d:\program files (x86)\microsoft visual studio 10.0\vc\include\vector
;	COMDAT ?capacity@?$vector@UMAP_RULE_DATA@@V?$allocator@UMAP_RULE_DATA@@@std@@@std@@QBEIXZ
_TEXT	SEGMENT
?capacity@?$vector@UMAP_RULE_DATA@@V?$allocator@UMAP_RULE_DATA@@@std@@@std@@QBEIXZ PROC ; std::vector<MAP_RULE_DATA,std::allocator<MAP_RULE_DATA> >::capacity, COMDAT
; _this$ = ecx

; 777  : 		return (this->_Myend - this->_Myfirst);

  00000	8b 51 08	 mov	 edx, DWORD PTR [ecx+8]
  00003	2b 11		 sub	 edx, DWORD PTR [ecx]
  00005	b8 67 66 66 66	 mov	 eax, 1717986919		; 66666667H
  0000a	f7 ea		 imul	 edx
  0000c	c1 fa 03	 sar	 edx, 3
  0000f	8b c2		 mov	 eax, edx
  00011	c1 e8 1f	 shr	 eax, 31			; 0000001fH
  00014	03 c2		 add	 eax, edx

; 778  : 		}

  00016	c3		 ret	 0
?capacity@?$vector@UMAP_RULE_DATA@@V?$allocator@UMAP_RULE_DATA@@@std@@@std@@QBEIXZ ENDP ; std::vector<MAP_RULE_DATA,std::allocator<MAP_RULE_DATA> >::capacity
_TEXT	ENDS
PUBLIC	??_C@_0BD@OLBABOEK@vector?$DMT?$DO?5too?5long?$AA@ ; `string'
PUBLIC	?_Xlen@?$vector@UMAP_RULE_DATA@@V?$allocator@UMAP_RULE_DATA@@@std@@@std@@IBEXXZ ; std::vector<MAP_RULE_DATA,std::allocator<MAP_RULE_DATA> >::_Xlen
EXTRN	?_Xlength_error@std@@YAXPBD@Z:PROC		; std::_Xlength_error
;	COMDAT ??_C@_0BD@OLBABOEK@vector?$DMT?$DO?5too?5long?$AA@
CONST	SEGMENT
??_C@_0BD@OLBABOEK@vector?$DMT?$DO?5too?5long?$AA@ DB 'vector<T> too long'
	DB	00H						; `string'
; Function compile flags: /Ogtp
CONST	ENDS
;	COMDAT ?_Xlen@?$vector@UMAP_RULE_DATA@@V?$allocator@UMAP_RULE_DATA@@@std@@@std@@IBEXXZ
_TEXT	SEGMENT
?_Xlen@?$vector@UMAP_RULE_DATA@@V?$allocator@UMAP_RULE_DATA@@@std@@@std@@IBEXXZ PROC ; std::vector<MAP_RULE_DATA,std::allocator<MAP_RULE_DATA> >::_Xlen, COMDAT
; _this$ = ecx

; 1427 : 		_Xlength_error("vector<T> too long");

  00000	68 00 00 00 00	 push	 OFFSET ??_C@_0BD@OLBABOEK@vector?$DMT?$DO?5too?5long?$AA@
  00005	e8 00 00 00 00	 call	 ?_Xlength_error@std@@YAXPBD@Z ; std::_Xlength_error
$LN4@Xlen:
$LN3@Xlen:
  0000a	cc		 int	 3
?_Xlen@?$vector@UMAP_RULE_DATA@@V?$allocator@UMAP_RULE_DATA@@@std@@@std@@IBEXXZ ENDP ; std::vector<MAP_RULE_DATA,std::allocator<MAP_RULE_DATA> >::_Xlen
_TEXT	ENDS
PUBLIC	??0?$allocator@UMAP_RULE_DATA@@@std@@QAE@ABV01@@Z ; std::allocator<MAP_RULE_DATA>::allocator<MAP_RULE_DATA>
; Function compile flags: /Ogtp
; File d:\program files (x86)\microsoft visual studio 10.0\vc\include\xmemory
;	COMDAT ??0?$allocator@UMAP_RULE_DATA@@@std@@QAE@ABV01@@Z
_TEXT	SEGMENT
___formal$ = 8						; size = 4
??0?$allocator@UMAP_RULE_DATA@@@std@@QAE@ABV01@@Z PROC	; std::allocator<MAP_RULE_DATA>::allocator<MAP_RULE_DATA>, COMDAT
; _this$ = ecx

; 165  : 	_ALLOCATOR(const _ALLOCATOR<_Ty>&) _THROW0()

  00000	8b c1		 mov	 eax, ecx

; 166  : 		{	// construct by copying (do nothing)
; 167  : 		}

  00002	c2 04 00	 ret	 4
??0?$allocator@UMAP_RULE_DATA@@@std@@QAE@ABV01@@Z ENDP	; std::allocator<MAP_RULE_DATA>::allocator<MAP_RULE_DATA>
_TEXT	ENDS
PUBLIC	?deallocate@?$allocator@UMAP_RULE_DATA@@@std@@QAEXPAUMAP_RULE_DATA@@I@Z ; std::allocator<MAP_RULE_DATA>::deallocate
EXTRN	??3@YAXPAX@Z:PROC				; operator delete
; Function compile flags: /Ogtp
;	COMDAT ?deallocate@?$allocator@UMAP_RULE_DATA@@@std@@QAEXPAUMAP_RULE_DATA@@I@Z
_TEXT	SEGMENT
__Ptr$ = 8						; size = 4
___formal$ = 12						; size = 4
?deallocate@?$allocator@UMAP_RULE_DATA@@@std@@QAEXPAUMAP_RULE_DATA@@I@Z PROC ; std::allocator<MAP_RULE_DATA>::deallocate, COMDAT
; _this$ = ecx

; 181  : 		{	// deallocate object at _Ptr, ignore size

  00000	55		 push	 ebp
  00001	8b ec		 mov	 ebp, esp

; 182  : 		::operator delete(_Ptr);

  00003	8b 45 08	 mov	 eax, DWORD PTR __Ptr$[ebp]
  00006	50		 push	 eax
  00007	e8 00 00 00 00	 call	 ??3@YAXPAX@Z		; operator delete
  0000c	83 c4 04	 add	 esp, 4

; 183  : 		}

  0000f	5d		 pop	 ebp
  00010	c2 08 00	 ret	 8
?deallocate@?$allocator@UMAP_RULE_DATA@@@std@@QAEXPAUMAP_RULE_DATA@@I@Z ENDP ; std::allocator<MAP_RULE_DATA>::deallocate
_TEXT	ENDS
PUBLIC	?max_size@?$allocator@UMAP_RULE_DATA@@@std@@QBEIXZ ; std::allocator<MAP_RULE_DATA>::max_size
; Function compile flags: /Ogtp
;	COMDAT ?max_size@?$allocator@UMAP_RULE_DATA@@@std@@QBEIXZ
_TEXT	SEGMENT
?max_size@?$allocator@UMAP_RULE_DATA@@@std@@QBEIXZ PROC	; std::allocator<MAP_RULE_DATA>::max_size, COMDAT
; _this$ = ecx

; 218  : 		_SIZT _Count = (_SIZT)(-1) / sizeof (_Ty);
; 219  : 		return (0 < _Count ? _Count : 1);

  00000	b8 cc cc cc 0c	 mov	 eax, 214748364		; 0cccccccH

; 220  : 		}

  00005	c3		 ret	 0
?max_size@?$allocator@UMAP_RULE_DATA@@@std@@QBEIXZ ENDP	; std::allocator<MAP_RULE_DATA>::max_size
_TEXT	ENDS
PUBLIC	?_Compat@?$_Vector_const_iterator@V?$_Vector_val@UMAP_RULE_DATA@@V?$allocator@UMAP_RULE_DATA@@@std@@@std@@@std@@QBEXABV12@@Z ; std::_Vector_const_iterator<std::_Vector_val<MAP_RULE_DATA,std::allocator<MAP_RULE_DATA> > >::_Compat
; Function compile flags: /Ogtp
; File d:\program files (x86)\microsoft visual studio 10.0\vc\include\vector
;	COMDAT ?_Compat@?$_Vector_const_iterator@V?$_Vector_val@UMAP_RULE_DATA@@V?$allocator@UMAP_RULE_DATA@@@std@@@std@@@std@@QBEXABV12@@Z
_TEXT	SEGMENT
___formal$ = 8						; size = 4
?_Compat@?$_Vector_const_iterator@V?$_Vector_val@UMAP_RULE_DATA@@V?$allocator@UMAP_RULE_DATA@@@std@@@std@@@std@@QBEXABV12@@Z PROC ; std::_Vector_const_iterator<std::_Vector_val<MAP_RULE_DATA,std::allocator<MAP_RULE_DATA> > >::_Compat, COMDAT
; _this$ = ecx

; 253  : 		}

  00000	c2 04 00	 ret	 4
?_Compat@?$_Vector_const_iterator@V?$_Vector_val@UMAP_RULE_DATA@@V?$allocator@UMAP_RULE_DATA@@@std@@@std@@@std@@QBEXABV12@@Z ENDP ; std::_Vector_const_iterator<std::_Vector_val<MAP_RULE_DATA,std::allocator<MAP_RULE_DATA> > >::_Compat
_TEXT	ENDS
PUBLIC	??$addressof@$$CBUMAP_RULE_DATA@@@std@@YAPBUMAP_RULE_DATA@@ABU1@@Z ; std::addressof<MAP_RULE_DATA const >
; Function compile flags: /Ogtp
; File d:\program files (x86)\microsoft visual studio 10.0\vc\include\xmemory
;	COMDAT ??$addressof@$$CBUMAP_RULE_DATA@@@std@@YAPBUMAP_RULE_DATA@@ABU1@@Z
_TEXT	SEGMENT
__Val$ = 8						; size = 4
??$addressof@$$CBUMAP_RULE_DATA@@@std@@YAPBUMAP_RULE_DATA@@ABU1@@Z PROC ; std::addressof<MAP_RULE_DATA const >, COMDAT

; 110  : 	{	// return address of _Val

  00000	55		 push	 ebp
  00001	8b ec		 mov	 ebp, esp

; 111  : 	return ((_Ty *) &(char&)_Val);

  00003	8b 45 08	 mov	 eax, DWORD PTR __Val$[ebp]

; 112  : 	}

  00006	5d		 pop	 ebp
  00007	c3		 ret	 0
??$addressof@$$CBUMAP_RULE_DATA@@@std@@YAPBUMAP_RULE_DATA@@ABU1@@Z ENDP ; std::addressof<MAP_RULE_DATA const >
_TEXT	ENDS
PUBLIC	??$forward@AAUMAP_RULE_DATA@@@std@@YAAAUMAP_RULE_DATA@@AAU1@@Z ; std::forward<MAP_RULE_DATA &>
; Function compile flags: /Ogtp
; File d:\program files (x86)\microsoft visual studio 10.0\vc\include\utility
;	COMDAT ??$forward@AAUMAP_RULE_DATA@@@std@@YAAAUMAP_RULE_DATA@@AAU1@@Z
_TEXT	SEGMENT
__Arg$ = 8						; size = 4
??$forward@AAUMAP_RULE_DATA@@@std@@YAAAUMAP_RULE_DATA@@AAU1@@Z PROC ; std::forward<MAP_RULE_DATA &>, COMDAT

; 78   : 	{	// forward _Arg, given explicitly specified type parameter

  00000	55		 push	 ebp
  00001	8b ec		 mov	 ebp, esp

; 79   : 	return ((_Ty&&)_Arg);

  00003	8b 45 08	 mov	 eax, DWORD PTR __Arg$[ebp]

; 80   : 	}

  00006	5d		 pop	 ebp
  00007	c3		 ret	 0
??$forward@AAUMAP_RULE_DATA@@@std@@YAAAUMAP_RULE_DATA@@AAU1@@Z ENDP ; std::forward<MAP_RULE_DATA &>
_TEXT	ENDS
PUBLIC	??$construct@AAUMAP_RULE_DATA@@@?$allocator@UMAP_RULE_DATA@@@std@@QAEXPAUMAP_RULE_DATA@@AAU2@@Z ; std::allocator<MAP_RULE_DATA>::construct<MAP_RULE_DATA &>
; Function compile flags: /Ogtp
; File d:\program files (x86)\microsoft visual studio 10.0\vc\include\xmemory
;	COMDAT ??$construct@AAUMAP_RULE_DATA@@@?$allocator@UMAP_RULE_DATA@@@std@@QAEXPAUMAP_RULE_DATA@@AAU2@@Z
_TEXT	SEGMENT
__Ptr$ = 8						; size = 4
__Val$ = 12						; size = 4
??$construct@AAUMAP_RULE_DATA@@@?$allocator@UMAP_RULE_DATA@@@std@@QAEXPAUMAP_RULE_DATA@@AAU2@@Z PROC ; std::allocator<MAP_RULE_DATA>::construct<MAP_RULE_DATA &>, COMDAT
; _this$ = ecx

; 206  : 		void construct(pointer _Ptr, _Other&& _Val)

  00000	55		 push	 ebp
  00001	8b ec		 mov	 ebp, esp

; 207  : 		{	// construct object at _Ptr with value _Val
; 208  : 		::new ((void _FARQ *)_Ptr) _Ty(_STD forward<_Other>(_Val));

  00003	8b 45 08	 mov	 eax, DWORD PTR __Ptr$[ebp]
  00006	85 c0		 test	 eax, eax
  00008	74 1f		 je	 SHORT $LN3@construct
  0000a	8b 4d 0c	 mov	 ecx, DWORD PTR __Val$[ebp]
  0000d	8b 11		 mov	 edx, DWORD PTR [ecx]
  0000f	89 10		 mov	 DWORD PTR [eax], edx
  00011	8b 51 04	 mov	 edx, DWORD PTR [ecx+4]
  00014	89 50 04	 mov	 DWORD PTR [eax+4], edx
  00017	8b 51 08	 mov	 edx, DWORD PTR [ecx+8]
  0001a	89 50 08	 mov	 DWORD PTR [eax+8], edx
  0001d	8b 51 0c	 mov	 edx, DWORD PTR [ecx+12]
  00020	89 50 0c	 mov	 DWORD PTR [eax+12], edx
  00023	8b 49 10	 mov	 ecx, DWORD PTR [ecx+16]
  00026	89 48 10	 mov	 DWORD PTR [eax+16], ecx
$LN3@construct:

; 209  : 		}

  00029	5d		 pop	 ebp
  0002a	c2 08 00	 ret	 8
??$construct@AAUMAP_RULE_DATA@@@?$allocator@UMAP_RULE_DATA@@@std@@QAEXPAUMAP_RULE_DATA@@AAU2@@Z ENDP ; std::allocator<MAP_RULE_DATA>::construct<MAP_RULE_DATA &>
_TEXT	ENDS
PUBLIC	??$forward@ABUMAP_RULE_DATA@@@std@@YAABUMAP_RULE_DATA@@ABU1@@Z ; std::forward<MAP_RULE_DATA const &>
; Function compile flags: /Ogtp
; File d:\program files (x86)\microsoft visual studio 10.0\vc\include\utility
;	COMDAT ??$forward@ABUMAP_RULE_DATA@@@std@@YAABUMAP_RULE_DATA@@ABU1@@Z
_TEXT	SEGMENT
__Arg$ = 8						; size = 4
??$forward@ABUMAP_RULE_DATA@@@std@@YAABUMAP_RULE_DATA@@ABU1@@Z PROC ; std::forward<MAP_RULE_DATA const &>, COMDAT

; 78   : 	{	// forward _Arg, given explicitly specified type parameter

  00000	55		 push	 ebp
  00001	8b ec		 mov	 ebp, esp

; 79   : 	return ((_Ty&&)_Arg);

  00003	8b 45 08	 mov	 eax, DWORD PTR __Arg$[ebp]

; 80   : 	}

  00006	5d		 pop	 ebp
  00007	c3		 ret	 0
??$forward@ABUMAP_RULE_DATA@@@std@@YAABUMAP_RULE_DATA@@ABU1@@Z ENDP ; std::forward<MAP_RULE_DATA const &>
_TEXT	ENDS
PUBLIC	??$_Ptr_cat@UMAP_RULE_DATA@@U1@@std@@YA?AU_Nonscalar_ptr_iterator_tag@0@PAUMAP_RULE_DATA@@0@Z ; std::_Ptr_cat<MAP_RULE_DATA,MAP_RULE_DATA>
; Function compile flags: /Ogtp
; File d:\program files (x86)\microsoft visual studio 10.0\vc\include\xutility
;	COMDAT ??$_Ptr_cat@UMAP_RULE_DATA@@U1@@std@@YA?AU_Nonscalar_ptr_iterator_tag@0@PAUMAP_RULE_DATA@@0@Z
_TEXT	SEGMENT
__Cat$ = -1						; size = 1
___formal$ = 8						; size = 4
___formal$ = 12						; size = 4
??$_Ptr_cat@UMAP_RULE_DATA@@U1@@std@@YA?AU_Nonscalar_ptr_iterator_tag@0@PAUMAP_RULE_DATA@@0@Z PROC ; std::_Ptr_cat<MAP_RULE_DATA,MAP_RULE_DATA>, COMDAT

; 516  : 	{	// return pointer category from pointers

  00000	55		 push	 ebp
  00001	8b ec		 mov	 ebp, esp
  00003	51		 push	 ecx

; 517  : 	typename _Ptr_cat_helper<_Elem1, _Elem2>::_Type _Cat;
; 518  : 	return (_Cat);

  00004	8a 45 ff	 mov	 al, BYTE PTR __Cat$[ebp]

; 519  : 	}

  00007	8b e5		 mov	 esp, ebp
  00009	5d		 pop	 ebp
  0000a	c3		 ret	 0
??$_Ptr_cat@UMAP_RULE_DATA@@U1@@std@@YA?AU_Nonscalar_ptr_iterator_tag@0@PAUMAP_RULE_DATA@@0@Z ENDP ; std::_Ptr_cat<MAP_RULE_DATA,MAP_RULE_DATA>
_TEXT	ENDS
PUBLIC	??$_Construct@UMAP_RULE_DATA@@ABU1@@std@@YAXPAUMAP_RULE_DATA@@ABU1@@Z ; std::_Construct<MAP_RULE_DATA,MAP_RULE_DATA const &>
; Function compile flags: /Ogtp
; File d:\program files (x86)\microsoft visual studio 10.0\vc\include\xmemory
;	COMDAT ??$_Construct@UMAP_RULE_DATA@@ABU1@@std@@YAXPAUMAP_RULE_DATA@@ABU1@@Z
_TEXT	SEGMENT
__Ptr$ = 8						; size = 4
__Val$ = 12						; size = 4
??$_Construct@UMAP_RULE_DATA@@ABU1@@std@@YAXPAUMAP_RULE_DATA@@ABU1@@Z PROC ; std::_Construct<MAP_RULE_DATA,MAP_RULE_DATA const &>, COMDAT

; 46   : 	{	// construct object at _Ptr with value _Val

  00000	55		 push	 ebp
  00001	8b ec		 mov	 ebp, esp

; 47   : 	void _FARQ *_Vptr = _Ptr;
; 48   : 	::new (_Vptr) _Ty1(_STD forward<_Ty2>(_Val));

  00003	8b 45 08	 mov	 eax, DWORD PTR __Ptr$[ebp]
  00006	85 c0		 test	 eax, eax
  00008	74 1f		 je	 SHORT $LN3@Construct
  0000a	8b 4d 0c	 mov	 ecx, DWORD PTR __Val$[ebp]
  0000d	8b 11		 mov	 edx, DWORD PTR [ecx]
  0000f	89 10		 mov	 DWORD PTR [eax], edx
  00011	8b 51 04	 mov	 edx, DWORD PTR [ecx+4]
  00014	89 50 04	 mov	 DWORD PTR [eax+4], edx
  00017	8b 51 08	 mov	 edx, DWORD PTR [ecx+8]
  0001a	89 50 08	 mov	 DWORD PTR [eax+8], edx
  0001d	8b 51 0c	 mov	 edx, DWORD PTR [ecx+12]
  00020	89 50 0c	 mov	 DWORD PTR [eax+12], edx
  00023	8b 49 10	 mov	 ecx, DWORD PTR [ecx+16]
  00026	89 48 10	 mov	 DWORD PTR [eax+16], ecx
$LN3@Construct:

; 49   : 	}

  00029	5d		 pop	 ebp
  0002a	c3		 ret	 0
??$_Construct@UMAP_RULE_DATA@@ABU1@@std@@YAXPAUMAP_RULE_DATA@@ABU1@@Z ENDP ; std::_Construct<MAP_RULE_DATA,MAP_RULE_DATA const &>
_TEXT	ENDS
PUBLIC	??$move@AAUMAP_RULE_DATA@@@std@@YA$$QAUMAP_RULE_DATA@@AAU1@@Z ; std::move<MAP_RULE_DATA &>
; Function compile flags: /Ogtp
; File d:\program files (x86)\microsoft visual studio 10.0\vc\include\utility
;	COMDAT ??$move@AAUMAP_RULE_DATA@@@std@@YA$$QAUMAP_RULE_DATA@@AAU1@@Z
_TEXT	SEGMENT
__Arg$ = 8						; size = 4
??$move@AAUMAP_RULE_DATA@@@std@@YA$$QAUMAP_RULE_DATA@@AAU1@@Z PROC ; std::move<MAP_RULE_DATA &>, COMDAT

; 86   : 	{	// forward _Arg as movable

  00000	55		 push	 ebp
  00001	8b ec		 mov	 ebp, esp

; 87   : 	return ((typename tr1::_Remove_reference<_Ty>::_Type&&)_Arg);

  00003	8b 45 08	 mov	 eax, DWORD PTR __Arg$[ebp]

; 88   : 	}

  00006	5d		 pop	 ebp
  00007	c3		 ret	 0
??$move@AAUMAP_RULE_DATA@@@std@@YA$$QAUMAP_RULE_DATA@@AAU1@@Z ENDP ; std::move<MAP_RULE_DATA &>
_TEXT	ENDS
PUBLIC	??$_Val_type@PAUMAP_RULE_DATA@@@std@@YAPAUMAP_RULE_DATA@@PAU1@@Z ; std::_Val_type<MAP_RULE_DATA *>
; Function compile flags: /Ogtp
; File d:\program files (x86)\microsoft visual studio 10.0\vc\include\xutility
;	COMDAT ??$_Val_type@PAUMAP_RULE_DATA@@@std@@YAPAUMAP_RULE_DATA@@PAU1@@Z
_TEXT	SEGMENT
___formal$ = 8						; size = 4
??$_Val_type@PAUMAP_RULE_DATA@@@std@@YAPAUMAP_RULE_DATA@@PAU1@@Z PROC ; std::_Val_type<MAP_RULE_DATA *>, COMDAT

; 790  : 	return (0);

  00000	33 c0		 xor	 eax, eax

; 791  : 	}

  00002	c3		 ret	 0
??$_Val_type@PAUMAP_RULE_DATA@@@std@@YAPAUMAP_RULE_DATA@@PAU1@@Z ENDP ; std::_Val_type<MAP_RULE_DATA *>
_TEXT	ENDS
PUBLIC	??$_Destroy@UMAP_RULE_DATA@@@std@@YAXPAUMAP_RULE_DATA@@@Z ; std::_Destroy<MAP_RULE_DATA>
; Function compile flags: /Ogtp
; File d:\program files (x86)\microsoft visual studio 10.0\vc\include\xmemory
;	COMDAT ??$_Destroy@UMAP_RULE_DATA@@@std@@YAXPAUMAP_RULE_DATA@@@Z
_TEXT	SEGMENT
__Ptr$ = 8						; size = 4
??$_Destroy@UMAP_RULE_DATA@@@std@@YAXPAUMAP_RULE_DATA@@@Z PROC ; std::_Destroy<MAP_RULE_DATA>, COMDAT

; 63   : 	_Ptr->~_Ty();
; 64   : 	}

  00000	c3		 ret	 0
??$_Destroy@UMAP_RULE_DATA@@@std@@YAXPAUMAP_RULE_DATA@@@Z ENDP ; std::_Destroy<MAP_RULE_DATA>
_TEXT	ENDS
PUBLIC	??$forward@UMAP_RULE_DATA@@@std@@YA$$QAUMAP_RULE_DATA@@AAU1@@Z ; std::forward<MAP_RULE_DATA>
; Function compile flags: /Ogtp
; File d:\program files (x86)\microsoft visual studio 10.0\vc\include\utility
;	COMDAT ??$forward@UMAP_RULE_DATA@@@std@@YA$$QAUMAP_RULE_DATA@@AAU1@@Z
_TEXT	SEGMENT
__Arg$ = 8						; size = 4
??$forward@UMAP_RULE_DATA@@@std@@YA$$QAUMAP_RULE_DATA@@AAU1@@Z PROC ; std::forward<MAP_RULE_DATA>, COMDAT

; 78   : 	{	// forward _Arg, given explicitly specified type parameter

  00000	55		 push	 ebp
  00001	8b ec		 mov	 ebp, esp

; 79   : 	return ((_Ty&&)_Arg);

  00003	8b 45 08	 mov	 eax, DWORD PTR __Arg$[ebp]

; 80   : 	}

  00006	5d		 pop	 ebp
  00007	c3		 ret	 0
??$forward@UMAP_RULE_DATA@@@std@@YA$$QAUMAP_RULE_DATA@@AAU1@@Z ENDP ; std::forward<MAP_RULE_DATA>
_TEXT	ENDS
PUBLIC	??_7bad_alloc@std@@6B@				; std::bad_alloc::`vftable'
PUBLIC	??0bad_alloc@std@@QAE@PBD@Z			; std::bad_alloc::bad_alloc
PUBLIC	??_R4bad_alloc@std@@6B@				; std::bad_alloc::`RTTI Complete Object Locator'
PUBLIC	??_R0?AVbad_alloc@std@@@8			; std::bad_alloc `RTTI Type Descriptor'
PUBLIC	??_R3bad_alloc@std@@8				; std::bad_alloc::`RTTI Class Hierarchy Descriptor'
PUBLIC	??_R2bad_alloc@std@@8				; std::bad_alloc::`RTTI Base Class Array'
PUBLIC	??_R1A@?0A@EA@bad_alloc@std@@8			; std::bad_alloc::`RTTI Base Class Descriptor at (0,-1,0,64)'
PUBLIC	??_R1A@?0A@EA@exception@std@@8			; std::exception::`RTTI Base Class Descriptor at (0,-1,0,64)'
PUBLIC	??_R0?AVexception@std@@@8			; std::exception `RTTI Type Descriptor'
PUBLIC	??_R3exception@std@@8				; std::exception::`RTTI Class Hierarchy Descriptor'
PUBLIC	??_R2exception@std@@8				; std::exception::`RTTI Base Class Array'
EXTRN	??0exception@std@@QAE@ABQBD@Z:PROC		; std::exception::exception
EXTRN	??_7type_info@@6B@:QWORD			; type_info::`vftable'
EXTRN	??_Ebad_alloc@std@@UAEPAXI@Z:PROC		; std::bad_alloc::`vector deleting destructor'
EXTRN	?what@exception@std@@UBEPBDXZ:PROC		; std::exception::what
;	COMDAT ??_R2exception@std@@8
; File d:\program files (x86)\microsoft visual studio 10.0\vc\include\exception
rdata$r	SEGMENT
??_R2exception@std@@8 DD FLAT:??_R1A@?0A@EA@exception@std@@8 ; std::exception::`RTTI Base Class Array'
rdata$r	ENDS
;	COMDAT ??_R3exception@std@@8
rdata$r	SEGMENT
??_R3exception@std@@8 DD 00H				; std::exception::`RTTI Class Hierarchy Descriptor'
	DD	00H
	DD	01H
	DD	FLAT:??_R2exception@std@@8
rdata$r	ENDS
;	COMDAT ??_R0?AVexception@std@@@8
_DATA	SEGMENT
??_R0?AVexception@std@@@8 DD FLAT:??_7type_info@@6B@	; std::exception `RTTI Type Descriptor'
	DD	00H
	DB	'.?AVexception@std@@', 00H
_DATA	ENDS
;	COMDAT ??_R1A@?0A@EA@exception@std@@8
rdata$r	SEGMENT
??_R1A@?0A@EA@exception@std@@8 DD FLAT:??_R0?AVexception@std@@@8 ; std::exception::`RTTI Base Class Descriptor at (0,-1,0,64)'
	DD	00H
	DD	00H
	DD	0ffffffffH
	DD	00H
	DD	040H
	DD	FLAT:??_R3exception@std@@8
rdata$r	ENDS
;	COMDAT ??_R1A@?0A@EA@bad_alloc@std@@8
rdata$r	SEGMENT
??_R1A@?0A@EA@bad_alloc@std@@8 DD FLAT:??_R0?AVbad_alloc@std@@@8 ; std::bad_alloc::`RTTI Base Class Descriptor at (0,-1,0,64)'
	DD	01H
	DD	00H
	DD	0ffffffffH
	DD	00H
	DD	040H
	DD	FLAT:??_R3bad_alloc@std@@8
rdata$r	ENDS
;	COMDAT ??_R2bad_alloc@std@@8
rdata$r	SEGMENT
??_R2bad_alloc@std@@8 DD FLAT:??_R1A@?0A@EA@bad_alloc@std@@8 ; std::bad_alloc::`RTTI Base Class Array'
	DD	FLAT:??_R1A@?0A@EA@exception@std@@8
rdata$r	ENDS
;	COMDAT ??_R3bad_alloc@std@@8
rdata$r	SEGMENT
??_R3bad_alloc@std@@8 DD 00H				; std::bad_alloc::`RTTI Class Hierarchy Descriptor'
	DD	00H
	DD	02H
	DD	FLAT:??_R2bad_alloc@std@@8
rdata$r	ENDS
;	COMDAT ??_R0?AVbad_alloc@std@@@8
_DATA	SEGMENT
??_R0?AVbad_alloc@std@@@8 DD FLAT:??_7type_info@@6B@	; std::bad_alloc `RTTI Type Descriptor'
	DD	00H
	DB	'.?AVbad_alloc@std@@', 00H
_DATA	ENDS
;	COMDAT ??_R4bad_alloc@std@@6B@
rdata$r	SEGMENT
??_R4bad_alloc@std@@6B@ DD 00H				; std::bad_alloc::`RTTI Complete Object Locator'
	DD	00H
	DD	00H
	DD	FLAT:??_R0?AVbad_alloc@std@@@8
	DD	FLAT:??_R3bad_alloc@std@@8
rdata$r	ENDS
;	COMDAT ??_7bad_alloc@std@@6B@
CONST	SEGMENT
??_7bad_alloc@std@@6B@ DD FLAT:??_R4bad_alloc@std@@6B@	; std::bad_alloc::`vftable'
	DD	FLAT:??_Ebad_alloc@std@@UAEPAXI@Z
	DD	FLAT:?what@exception@std@@UBEPBDXZ
; Function compile flags: /Ogtp
CONST	ENDS
;	COMDAT ??0bad_alloc@std@@QAE@PBD@Z
_TEXT	SEGMENT
__Message$ = 8						; size = 4
??0bad_alloc@std@@QAE@PBD@Z PROC			; std::bad_alloc::bad_alloc, COMDAT
; _this$ = ecx

; 345  : 		{	// construct from message string

  00000	55		 push	 ebp
  00001	8b ec		 mov	 ebp, esp
  00003	56		 push	 esi
  00004	8d 45 08	 lea	 eax, DWORD PTR __Message$[ebp]
  00007	50		 push	 eax
  00008	8b f1		 mov	 esi, ecx
  0000a	e8 00 00 00 00	 call	 ??0exception@std@@QAE@ABQBD@Z ; std::exception::exception
  0000f	c7 06 00 00 00
	00		 mov	 DWORD PTR [esi], OFFSET ??_7bad_alloc@std@@6B@

; 346  : 		}

  00015	8b c6		 mov	 eax, esi
  00017	5e		 pop	 esi
  00018	5d		 pop	 ebp
  00019	c2 04 00	 ret	 4
??0bad_alloc@std@@QAE@PBD@Z ENDP			; std::bad_alloc::bad_alloc
_TEXT	ENDS
PUBLIC	??1bad_alloc@std@@UAE@XZ			; std::bad_alloc::~bad_alloc
EXTRN	??1exception@std@@UAE@XZ:PROC			; std::exception::~exception
; Function compile flags: /Ogtp
;	COMDAT ??1bad_alloc@std@@UAE@XZ
_TEXT	SEGMENT
??1bad_alloc@std@@UAE@XZ PROC				; std::bad_alloc::~bad_alloc, COMDAT
; _this$ = ecx

; 354  : 		{	// destroy the object

  00000	c7 01 00 00 00
	00		 mov	 DWORD PTR [ecx], OFFSET ??_7bad_alloc@std@@6B@

; 355  : 		}

  00006	e9 00 00 00 00	 jmp	 ??1exception@std@@UAE@XZ ; std::exception::~exception
??1bad_alloc@std@@UAE@XZ ENDP				; std::bad_alloc::~bad_alloc
; Function compile flags: /Ogtp
_TEXT	ENDS
;	COMDAT ??_Gbad_alloc@std@@UAEPAXI@Z
_TEXT	SEGMENT
___flags$ = 8						; size = 4
??_Gbad_alloc@std@@UAEPAXI@Z PROC			; std::bad_alloc::`scalar deleting destructor', COMDAT
; _this$ = ecx
  00000	55		 push	 ebp
  00001	8b ec		 mov	 ebp, esp
  00003	56		 push	 esi
  00004	8b f1		 mov	 esi, ecx
  00006	c7 06 00 00 00
	00		 mov	 DWORD PTR [esi], OFFSET ??_7bad_alloc@std@@6B@
  0000c	e8 00 00 00 00	 call	 ??1exception@std@@UAE@XZ ; std::exception::~exception
  00011	f6 45 08 01	 test	 BYTE PTR ___flags$[ebp], 1
  00015	74 09		 je	 SHORT $LN6@scalar
  00017	56		 push	 esi
  00018	e8 00 00 00 00	 call	 ??3@YAXPAX@Z		; operator delete
  0001d	83 c4 04	 add	 esp, 4
$LN6@scalar:
  00020	8b c6		 mov	 eax, esi
  00022	5e		 pop	 esi
  00023	5d		 pop	 ebp
  00024	c2 04 00	 ret	 4
??_Gbad_alloc@std@@UAEPAXI@Z ENDP			; std::bad_alloc::`scalar deleting destructor'
_TEXT	ENDS
PUBLIC	?_Orphan_all@_Container_base0@std@@QAEXXZ	; std::_Container_base0::_Orphan_all
; Function compile flags: /Ogtp
; File d:\program files (x86)\microsoft visual studio 10.0\vc\include\xutility
;	COMDAT ?_Orphan_all@_Container_base0@std@@QAEXXZ
_TEXT	SEGMENT
?_Orphan_all@_Container_base0@std@@QAEXXZ PROC		; std::_Container_base0::_Orphan_all, COMDAT
; _this$ = ecx

; 38   : 		}

  00000	c3		 ret	 0
?_Orphan_all@_Container_base0@std@@QAEXXZ ENDP		; std::_Container_base0::_Orphan_all
_TEXT	ENDS
PUBLIC	?_Adopt@_Iterator_base0@std@@QAEXPBX@Z		; std::_Iterator_base0::_Adopt
; Function compile flags: /Ogtp
;	COMDAT ?_Adopt@_Iterator_base0@std@@QAEXPBX@Z
_TEXT	SEGMENT
___formal$ = 8						; size = 4
?_Adopt@_Iterator_base0@std@@QAEXPBX@Z PROC		; std::_Iterator_base0::_Adopt, COMDAT
; _this$ = ecx

; 49   : 		}

  00000	c2 04 00	 ret	 4
?_Adopt@_Iterator_base0@std@@QAEXPBX@Z ENDP		; std::_Iterator_base0::_Adopt
_TEXT	ENDS
PUBLIC	?GetMapRule@cPvPMapSystem@@QAE_NHH@Z		; cPvPMapSystem::GetMapRule
EXTRN	?gObj@@3PAUOBJECTSTRUCT@@A:DWORD		; gObj
EXTRN	?CheckUser@CZtLicense@@QAE_NH@Z:PROC		; CZtLicense::CheckUser
EXTRN	?g_ZtLicense@@3VCZtLicense@@A:BYTE		; g_ZtLicense
; Function compile flags: /Ogtp
; File e:\work\tranet_version\gs\gameserver\pvpmapsystem.cpp
;	COMDAT ?GetMapRule@cPvPMapSystem@@QAE_NHH@Z
_TEXT	SEGMENT
_aIndex$ = 8						; size = 4
_MapNum$ = 12						; size = 4
?GetMapRule@cPvPMapSystem@@QAE_NHH@Z PROC		; cPvPMapSystem::GetMapRule, COMDAT
; _this$ = ecx

; 198  : {

  00000	55		 push	 ebp
  00001	8b ec		 mov	 ebp, esp
  00003	57		 push	 edi
  00004	8b f9		 mov	 edi, ecx

; 199  : 	if( !g_ZtLicense.CheckUser(eZtUB::Gredy)      && 
; 200  : 		!g_ZtLicense.CheckUser(eZtUB::GredyLocal) && 
; 201  : 		!g_ZtLicense.CheckUser(eZtUB::Gredy2) )

  00006	6a 20		 push	 32			; 00000020H
  00008	b9 00 00 00 00	 mov	 ecx, OFFSET ?g_ZtLicense@@3VCZtLicense@@A ; g_ZtLicense
  0000d	e8 00 00 00 00	 call	 ?CheckUser@CZtLicense@@QAE_NH@Z ; CZtLicense::CheckUser
  00012	84 c0		 test	 al, al
  00014	75 27		 jne	 SHORT $LN9@GetMapRule
  00016	6a 21		 push	 33			; 00000021H
  00018	b9 00 00 00 00	 mov	 ecx, OFFSET ?g_ZtLicense@@3VCZtLicense@@A ; g_ZtLicense
  0001d	e8 00 00 00 00	 call	 ?CheckUser@CZtLicense@@QAE_NH@Z ; CZtLicense::CheckUser
  00022	84 c0		 test	 al, al
  00024	75 17		 jne	 SHORT $LN9@GetMapRule
  00026	6a 22		 push	 34			; 00000022H
  00028	b9 00 00 00 00	 mov	 ecx, OFFSET ?g_ZtLicense@@3VCZtLicense@@A ; g_ZtLicense
  0002d	e8 00 00 00 00	 call	 ?CheckUser@CZtLicense@@QAE_NH@Z ; CZtLicense::CheckUser
  00032	84 c0		 test	 al, al
  00034	75 07		 jne	 SHORT $LN9@GetMapRule

; 202  : 	{		
; 203  : 		return true;

  00036	b0 01		 mov	 al, 1
  00038	5f		 pop	 edi

; 228  : }

  00039	5d		 pop	 ebp
  0003a	c2 08 00	 ret	 8
$LN9@GetMapRule:

; 207  : 
; 208  : 	for(int i = 0; i < this->m_MapRule.size(); i++)

  0003d	8b 97 e8 07 00
	00		 mov	 edx, DWORD PTR [edi+2024]
  00043	2b 97 e4 07 00
	00		 sub	 edx, DWORD PTR [edi+2020]
  00049	8b 4d 08	 mov	 ecx, DWORD PTR _aIndex$[ebp]
  0004c	b8 67 66 66 66	 mov	 eax, 1717986919		; 66666667H
  00051	69 c9 50 2b 00
	00		 imul	 ecx, 11088		; 00002b50H
  00057	03 0d 00 00 00
	00		 add	 ecx, DWORD PTR ?gObj@@3PAUOBJECTSTRUCT@@A ; gObj
  0005d	f7 ea		 imul	 edx
  0005f	53		 push	 ebx
  00060	56		 push	 esi
  00061	c1 fa 03	 sar	 edx, 3
  00064	8b f2		 mov	 esi, edx
  00066	c1 ee 1f	 shr	 esi, 31			; 0000001fH
  00069	33 db		 xor	 ebx, ebx
  0006b	03 f2		 add	 esi, edx
  0006d	74 35		 je	 SHORT $LN6@GetMapRule

; 204  : 	}
; 205  : 
; 206  : 	LPOBJ lpUser = &gObj[aIndex];

  0006f	8b 87 e4 07 00
	00		 mov	 eax, DWORD PTR [edi+2020]
  00075	8b 7d 0c	 mov	 edi, DWORD PTR _MapNum$[ebp]
$LL8@GetMapRule:

; 209  : 	{
; 210  : 		if(this->m_MapRule[i].MapNumber != MapNum)

  00078	39 38		 cmp	 DWORD PTR [eax], edi
  0007a	75 20		 jne	 SHORT $LN7@GetMapRule

; 211  : 		{
; 212  : 			continue;
; 213  : 		}
; 214  : 
; 215  : 		if(lpUser->GReset < this->m_MapRule[i].MinGrand || lpUser->GReset > this->m_MapRule[i].MaxGrand)

  0007c	8b 91 94 22 00
	00		 mov	 edx, DWORD PTR [ecx+8852]
  00082	3b 50 0c	 cmp	 edx, DWORD PTR [eax+12]
  00085	7c 26		 jl	 SHORT $LN3@GetMapRule
  00087	3b 50 10	 cmp	 edx, DWORD PTR [eax+16]
  0008a	7f 21		 jg	 SHORT $LN3@GetMapRule

; 219  : 		}
; 220  : 
; 221  : 		if(lpUser->Reset < this->m_MapRule[i].MinReset || lpUser->Reset > this->m_MapRule[i].MaxReset)

  0008c	8b 91 90 22 00
	00		 mov	 edx, DWORD PTR [ecx+8848]
  00092	3b 50 04	 cmp	 edx, DWORD PTR [eax+4]
  00095	7c 16		 jl	 SHORT $LN3@GetMapRule
  00097	3b 50 08	 cmp	 edx, DWORD PTR [eax+8]
  0009a	7f 11		 jg	 SHORT $LN3@GetMapRule
$LN7@GetMapRule:

; 207  : 
; 208  : 	for(int i = 0; i < this->m_MapRule.size(); i++)

  0009c	43		 inc	 ebx
  0009d	83 c0 14	 add	 eax, 20			; 00000014H
  000a0	3b de		 cmp	 ebx, esi
  000a2	72 d4		 jb	 SHORT $LL8@GetMapRule
$LN6@GetMapRule:
  000a4	5e		 pop	 esi
  000a5	5b		 pop	 ebx

; 222  : 		{
; 223  : 			return false;
; 224  : 		}
; 225  : 	}
; 226  : 
; 227  : 	return true;

  000a6	b0 01		 mov	 al, 1
  000a8	5f		 pop	 edi

; 228  : }

  000a9	5d		 pop	 ebp
  000aa	c2 08 00	 ret	 8
$LN3@GetMapRule:
  000ad	5e		 pop	 esi
  000ae	5b		 pop	 ebx

; 216  : 		{
; 217  : 			//MsgOutput(aIndex, "[PvP Rule]  %d"
; 218  : 			return false;

  000af	32 c0		 xor	 al, al
  000b1	5f		 pop	 edi

; 228  : }

  000b2	5d		 pop	 ebp
  000b3	c2 08 00	 ret	 8
?GetMapRule@cPvPMapSystem@@QAE_NHH@Z ENDP		; cPvPMapSystem::GetMapRule
_TEXT	ENDS
PUBLIC	??0?$_Vector_val@UMAP_RULE_DATA@@V?$allocator@UMAP_RULE_DATA@@@std@@@std@@QAE@V?$allocator@UMAP_RULE_DATA@@@1@@Z ; std::_Vector_val<MAP_RULE_DATA,std::allocator<MAP_RULE_DATA> >::_Vector_val<MAP_RULE_DATA,std::allocator<MAP_RULE_DATA> >
; Function compile flags: /Ogtp
; File d:\program files (x86)\microsoft visual studio 10.0\vc\include\vector
;	COMDAT ??0?$_Vector_val@UMAP_RULE_DATA@@V?$allocator@UMAP_RULE_DATA@@@std@@@std@@QAE@V?$allocator@UMAP_RULE_DATA@@@1@@Z
_TEXT	SEGMENT
__Al$ = 8						; size = 1
??0?$_Vector_val@UMAP_RULE_DATA@@V?$allocator@UMAP_RULE_DATA@@@std@@@std@@QAE@V?$allocator@UMAP_RULE_DATA@@@1@@Z PROC ; std::_Vector_val<MAP_RULE_DATA,std::allocator<MAP_RULE_DATA> >::_Vector_val<MAP_RULE_DATA,std::allocator<MAP_RULE_DATA> >, COMDAT
; _this$ = ecx

; 426  : 		{	// construct allocator from _Al

  00000	8b c1		 mov	 eax, ecx

; 427  : 		_Myfirst = 0;

  00002	33 c9		 xor	 ecx, ecx
  00004	89 08		 mov	 DWORD PTR [eax], ecx

; 428  : 		_Mylast = 0;

  00006	89 48 04	 mov	 DWORD PTR [eax+4], ecx

; 429  : 		_Myend = 0;

  00009	89 48 08	 mov	 DWORD PTR [eax+8], ecx

; 430  : 		}

  0000c	c2 04 00	 ret	 4
??0?$_Vector_val@UMAP_RULE_DATA@@V?$allocator@UMAP_RULE_DATA@@@std@@@std@@QAE@V?$allocator@UMAP_RULE_DATA@@@1@@Z ENDP ; std::_Vector_val<MAP_RULE_DATA,std::allocator<MAP_RULE_DATA> >::_Vector_val<MAP_RULE_DATA,std::allocator<MAP_RULE_DATA> >
_TEXT	ENDS
PUBLIC	?max_size@?$vector@UMAP_RULE_DATA@@V?$allocator@UMAP_RULE_DATA@@@std@@@std@@QBEIXZ ; std::vector<MAP_RULE_DATA,std::allocator<MAP_RULE_DATA> >::max_size
; Function compile flags: /Ogtp
;	COMDAT ?max_size@?$vector@UMAP_RULE_DATA@@V?$allocator@UMAP_RULE_DATA@@@std@@@std@@QBEIXZ
_TEXT	SEGMENT
?max_size@?$vector@UMAP_RULE_DATA@@V?$allocator@UMAP_RULE_DATA@@@std@@@std@@QBEIXZ PROC ; std::vector<MAP_RULE_DATA,std::allocator<MAP_RULE_DATA> >::max_size, COMDAT
; _this$ = ecx

; 884  : 		return (this->_Alval.max_size());

  00000	b8 cc cc cc 0c	 mov	 eax, 214748364		; 0cccccccH

; 885  : 		}

  00005	c3		 ret	 0
?max_size@?$vector@UMAP_RULE_DATA@@V?$allocator@UMAP_RULE_DATA@@@std@@@std@@QBEIXZ ENDP ; std::vector<MAP_RULE_DATA,std::allocator<MAP_RULE_DATA> >::max_size
_TEXT	ENDS
PUBLIC	?_Grow_to@?$vector@UMAP_RULE_DATA@@V?$allocator@UMAP_RULE_DATA@@@std@@@std@@IBEII@Z ; std::vector<MAP_RULE_DATA,std::allocator<MAP_RULE_DATA> >::_Grow_to
; Function compile flags: /Ogtp
;	COMDAT ?_Grow_to@?$vector@UMAP_RULE_DATA@@V?$allocator@UMAP_RULE_DATA@@@std@@@std@@IBEII@Z
_TEXT	SEGMENT
__Count$ = 8						; size = 4
?_Grow_to@?$vector@UMAP_RULE_DATA@@V?$allocator@UMAP_RULE_DATA@@@std@@@std@@IBEII@Z PROC ; std::vector<MAP_RULE_DATA,std::allocator<MAP_RULE_DATA> >::_Grow_to, COMDAT
; _this$ = ecx

; 1274 : 		{	// grow by 50% or at least to _Count

  00000	55		 push	 ebp
  00001	8b ec		 mov	 ebp, esp

; 1275 : 		size_type _Capacity = capacity();

  00003	8b 51 08	 mov	 edx, DWORD PTR [ecx+8]
  00006	2b 11		 sub	 edx, DWORD PTR [ecx]
  00008	b8 67 66 66 66	 mov	 eax, 1717986919		; 66666667H
  0000d	f7 ea		 imul	 edx
  0000f	c1 fa 03	 sar	 edx, 3
  00012	8b c2		 mov	 eax, edx
  00014	c1 e8 1f	 shr	 eax, 31			; 0000001fH
  00017	03 c2		 add	 eax, edx

; 1276 : 
; 1277 : 		_Capacity = max_size() - _Capacity / 2 < _Capacity
; 1278 : 			? 0 : _Capacity + _Capacity / 2;	// try to grow by 50%

  00019	8b c8		 mov	 ecx, eax
  0001b	d1 e9		 shr	 ecx, 1
  0001d	ba cc cc cc 0c	 mov	 edx, 214748364		; 0cccccccH
  00022	2b d1		 sub	 edx, ecx
  00024	3b d0		 cmp	 edx, eax
  00026	73 04		 jae	 SHORT $LN4@Grow_to
  00028	33 c0		 xor	 eax, eax
  0002a	eb 02		 jmp	 SHORT $LN5@Grow_to
$LN4@Grow_to:
  0002c	03 c1		 add	 eax, ecx
$LN5@Grow_to:

; 1279 : 		if (_Capacity < _Count)

  0002e	8b 4d 08	 mov	 ecx, DWORD PTR __Count$[ebp]
  00031	3b c1		 cmp	 eax, ecx
  00033	73 02		 jae	 SHORT $LN1@Grow_to

; 1280 : 			_Capacity = _Count;
; 1281 : 		return (_Capacity);

  00035	8b c1		 mov	 eax, ecx
$LN1@Grow_to:

; 1282 : 		}

  00037	5d		 pop	 ebp
  00038	c2 04 00	 ret	 4
?_Grow_to@?$vector@UMAP_RULE_DATA@@V?$allocator@UMAP_RULE_DATA@@@std@@@std@@IBEII@Z ENDP ; std::vector<MAP_RULE_DATA,std::allocator<MAP_RULE_DATA> >::_Grow_to
_TEXT	ENDS
PUBLIC	??0?$_Vector_const_iterator@V?$_Vector_val@UMAP_RULE_DATA@@V?$allocator@UMAP_RULE_DATA@@@std@@@std@@@std@@QAE@PAUMAP_RULE_DATA@@PBU_Container_base0@1@@Z ; std::_Vector_const_iterator<std::_Vector_val<MAP_RULE_DATA,std::allocator<MAP_RULE_DATA> > >::_Vector_const_iterator<std::_Vector_val<MAP_RULE_DATA,std::allocator<MAP_RULE_DATA> > >
; Function compile flags: /Ogtp
;	COMDAT ??0?$_Vector_const_iterator@V?$_Vector_val@UMAP_RULE_DATA@@V?$allocator@UMAP_RULE_DATA@@@std@@@std@@@std@@QAE@PAUMAP_RULE_DATA@@PBU_Container_base0@1@@Z
_TEXT	SEGMENT
__Parg$ = 8						; size = 4
__Pvector$ = 12						; size = 4
??0?$_Vector_const_iterator@V?$_Vector_val@UMAP_RULE_DATA@@V?$allocator@UMAP_RULE_DATA@@@std@@@std@@@std@@QAE@PAUMAP_RULE_DATA@@PBU_Container_base0@1@@Z PROC ; std::_Vector_const_iterator<std::_Vector_val<MAP_RULE_DATA,std::allocator<MAP_RULE_DATA> > >::_Vector_const_iterator<std::_Vector_val<MAP_RULE_DATA,std::allocator<MAP_RULE_DATA> > >, COMDAT
; _this$ = ecx

; 45   : 		{	// construct with pointer _Parg

  00000	55		 push	 ebp
  00001	8b ec		 mov	 ebp, esp
  00003	8b c1		 mov	 eax, ecx
  00005	8b 4d 08	 mov	 ecx, DWORD PTR __Parg$[ebp]
  00008	89 08		 mov	 DWORD PTR [eax], ecx

; 46   : 		this->_Adopt(_Pvector);
; 47   : 		}

  0000a	5d		 pop	 ebp
  0000b	c2 08 00	 ret	 8
??0?$_Vector_const_iterator@V?$_Vector_val@UMAP_RULE_DATA@@V?$allocator@UMAP_RULE_DATA@@@std@@@std@@@std@@QAE@PAUMAP_RULE_DATA@@PBU_Container_base0@1@@Z ENDP ; std::_Vector_const_iterator<std::_Vector_val<MAP_RULE_DATA,std::allocator<MAP_RULE_DATA> > >::_Vector_const_iterator<std::_Vector_val<MAP_RULE_DATA,std::allocator<MAP_RULE_DATA> > >
_TEXT	ENDS
PUBLIC	??8?$_Vector_const_iterator@V?$_Vector_val@UMAP_RULE_DATA@@V?$allocator@UMAP_RULE_DATA@@@std@@@std@@@std@@QBE_NABV01@@Z ; std::_Vector_const_iterator<std::_Vector_val<MAP_RULE_DATA,std::allocator<MAP_RULE_DATA> > >::operator==
; Function compile flags: /Ogtp
;	COMDAT ??8?$_Vector_const_iterator@V?$_Vector_val@UMAP_RULE_DATA@@V?$allocator@UMAP_RULE_DATA@@@std@@@std@@@std@@QBE_NABV01@@Z
_TEXT	SEGMENT
__Right$ = 8						; size = 4
??8?$_Vector_const_iterator@V?$_Vector_val@UMAP_RULE_DATA@@V?$allocator@UMAP_RULE_DATA@@@std@@@std@@@std@@QBE_NABV01@@Z PROC ; std::_Vector_const_iterator<std::_Vector_val<MAP_RULE_DATA,std::allocator<MAP_RULE_DATA> > >::operator==, COMDAT
; _this$ = ecx

; 201  : 		{	// test for iterator equality

  00000	55		 push	 ebp
  00001	8b ec		 mov	 ebp, esp

; 202  : 		_Compat(_Right);
; 203  : 		return (this->_Ptr == _Right._Ptr);

  00003	8b 01		 mov	 eax, DWORD PTR [ecx]
  00005	8b 55 08	 mov	 edx, DWORD PTR __Right$[ebp]
  00008	33 c9		 xor	 ecx, ecx
  0000a	3b 02		 cmp	 eax, DWORD PTR [edx]
  0000c	0f 94 c0	 sete	 al

; 204  : 		}

  0000f	5d		 pop	 ebp
  00010	c2 04 00	 ret	 4
??8?$_Vector_const_iterator@V?$_Vector_val@UMAP_RULE_DATA@@V?$allocator@UMAP_RULE_DATA@@@std@@@std@@@std@@QBE_NABV01@@Z ENDP ; std::_Vector_const_iterator<std::_Vector_val<MAP_RULE_DATA,std::allocator<MAP_RULE_DATA> > >::operator==
_TEXT	ENDS
PUBLIC	??$_Cons_val@V?$allocator@UMAP_RULE_DATA@@@std@@UMAP_RULE_DATA@@AAU3@@std@@YAXAAV?$allocator@UMAP_RULE_DATA@@@0@PAUMAP_RULE_DATA@@AAU2@@Z ; std::_Cons_val<std::allocator<MAP_RULE_DATA>,MAP_RULE_DATA,MAP_RULE_DATA &>
; Function compile flags: /Ogtp
; File d:\program files (x86)\microsoft visual studio 10.0\vc\include\xmemory
;	COMDAT ??$_Cons_val@V?$allocator@UMAP_RULE_DATA@@@std@@UMAP_RULE_DATA@@AAU3@@std@@YAXAAV?$allocator@UMAP_RULE_DATA@@@0@PAUMAP_RULE_DATA@@AAU2@@Z
_TEXT	SEGMENT
__Alval$ = 8						; size = 4
__Pdest$ = 12						; size = 4
__Src$ = 16						; size = 4
??$_Cons_val@V?$allocator@UMAP_RULE_DATA@@@std@@UMAP_RULE_DATA@@AAU3@@std@@YAXAAV?$allocator@UMAP_RULE_DATA@@@0@PAUMAP_RULE_DATA@@AAU2@@Z PROC ; std::_Cons_val<std::allocator<MAP_RULE_DATA>,MAP_RULE_DATA,MAP_RULE_DATA &>, COMDAT

; 279  : 	{	// construct using allocator

  00000	55		 push	 ebp
  00001	8b ec		 mov	 ebp, esp

; 280  : 	_Alval.construct(_Pdest, _STD forward<_Ty2>(_Src));

  00003	8b 45 0c	 mov	 eax, DWORD PTR __Pdest$[ebp]
  00006	85 c0		 test	 eax, eax
  00008	74 1f		 je	 SHORT $LN7@Cons_val
  0000a	8b 4d 10	 mov	 ecx, DWORD PTR __Src$[ebp]
  0000d	8b 11		 mov	 edx, DWORD PTR [ecx]
  0000f	89 10		 mov	 DWORD PTR [eax], edx
  00011	8b 51 04	 mov	 edx, DWORD PTR [ecx+4]
  00014	89 50 04	 mov	 DWORD PTR [eax+4], edx
  00017	8b 51 08	 mov	 edx, DWORD PTR [ecx+8]
  0001a	89 50 08	 mov	 DWORD PTR [eax+8], edx
  0001d	8b 51 0c	 mov	 edx, DWORD PTR [ecx+12]
  00020	89 50 0c	 mov	 DWORD PTR [eax+12], edx
  00023	8b 49 10	 mov	 ecx, DWORD PTR [ecx+16]
  00026	89 48 10	 mov	 DWORD PTR [eax+16], ecx
$LN7@Cons_val:

; 281  : 	}

  00029	5d		 pop	 ebp
  0002a	c3		 ret	 0
??$_Cons_val@V?$allocator@UMAP_RULE_DATA@@@std@@UMAP_RULE_DATA@@AAU3@@std@@YAXAAV?$allocator@UMAP_RULE_DATA@@@0@PAUMAP_RULE_DATA@@AAU2@@Z ENDP ; std::_Cons_val<std::allocator<MAP_RULE_DATA>,MAP_RULE_DATA,MAP_RULE_DATA &>
_TEXT	ENDS
PUBLIC	__TI2?AVbad_alloc@std@@
PUBLIC	??$_Allocate@UMAP_RULE_DATA@@@std@@YAPAUMAP_RULE_DATA@@IPAU1@@Z ; std::_Allocate<MAP_RULE_DATA>
PUBLIC	__CTA2?AVbad_alloc@std@@
PUBLIC	__CT??_R0?AVbad_alloc@std@@@8??0bad_alloc@std@@QAE@ABV01@@Z12
PUBLIC	??0bad_alloc@std@@QAE@ABV01@@Z			; std::bad_alloc::bad_alloc
PUBLIC	__CT??_R0?AVexception@std@@@8??0exception@std@@QAE@ABV01@@Z12
EXTRN	??2@YAPAXI@Z:PROC				; operator new
EXTRN	__CxxThrowException@8:PROC
EXTRN	??0exception@std@@QAE@ABV01@@Z:PROC		; std::exception::exception
;	COMDAT __CT??_R0?AVexception@std@@@8??0exception@std@@QAE@ABV01@@Z12
; File d:\program files (x86)\microsoft visual studio 10.0\vc\include\exception
xdata$x	SEGMENT
__CT??_R0?AVexception@std@@@8??0exception@std@@QAE@ABV01@@Z12 DD 00H
	DD	FLAT:??_R0?AVexception@std@@@8
	DD	00H
	DD	0ffffffffH
	ORG $+4
	DD	0cH
	DD	FLAT:??0exception@std@@QAE@ABV01@@Z
xdata$x	ENDS
;	COMDAT __CT??_R0?AVbad_alloc@std@@@8??0bad_alloc@std@@QAE@ABV01@@Z12
xdata$x	SEGMENT
__CT??_R0?AVbad_alloc@std@@@8??0bad_alloc@std@@QAE@ABV01@@Z12 DD 00H
	DD	FLAT:??_R0?AVbad_alloc@std@@@8
	DD	00H
	DD	0ffffffffH
	ORG $+4
	DD	0cH
	DD	FLAT:??0bad_alloc@std@@QAE@ABV01@@Z
xdata$x	ENDS
;	COMDAT __CTA2?AVbad_alloc@std@@
xdata$x	SEGMENT
__CTA2?AVbad_alloc@std@@ DD 02H
	DD	FLAT:__CT??_R0?AVbad_alloc@std@@@8??0bad_alloc@std@@QAE@ABV01@@Z12
	DD	FLAT:__CT??_R0?AVexception@std@@@8??0exception@std@@QAE@ABV01@@Z12
xdata$x	ENDS
;	COMDAT __TI2?AVbad_alloc@std@@
xdata$x	SEGMENT
__TI2?AVbad_alloc@std@@ DD 00H
	DD	FLAT:??1bad_alloc@std@@UAE@XZ
	DD	00H
	DD	FLAT:__CTA2?AVbad_alloc@std@@
; Function compile flags: /Ogtp
; File d:\program files (x86)\microsoft visual studio 10.0\vc\include\xmemory
xdata$x	ENDS
;	COMDAT ??$_Allocate@UMAP_RULE_DATA@@@std@@YAPAUMAP_RULE_DATA@@IPAU1@@Z
_TEXT	SEGMENT
$T203993 = -12						; size = 12
$T203998 = 8						; size = 4
__Count$ = 8						; size = 4
___formal$ = 12						; size = 4
??$_Allocate@UMAP_RULE_DATA@@@std@@YAPAUMAP_RULE_DATA@@IPAU1@@Z PROC ; std::_Allocate<MAP_RULE_DATA>, COMDAT

; 30   : 	{	// allocate storage for _Count elements of type _Ty

  00000	55		 push	 ebp
  00001	8b ec		 mov	 ebp, esp

; 31   : 	void *_Ptr = 0;
; 32   : 
; 33   : 	if (_Count <= 0)

  00003	8b 4d 08	 mov	 ecx, DWORD PTR __Count$[ebp]
  00006	83 ec 0c	 sub	 esp, 12			; 0000000cH
  00009	33 c0		 xor	 eax, eax
  0000b	85 c9		 test	 ecx, ecx

; 34   : 		_Count = 0;
; 35   : 	else if (((_SIZT)(-1) / sizeof (_Ty) < _Count)

  0000d	74 44		 je	 SHORT $LN5@Allocate

; 36   : 		|| (_Ptr = ::operator new(_Count * sizeof (_Ty))) == 0)

  0000f	81 f9 cc cc cc
	0c		 cmp	 ecx, 214748364		; 0cccccccH
  00015	77 14		 ja	 SHORT $LN1@Allocate
  00017	8d 04 89	 lea	 eax, DWORD PTR [ecx+ecx*4]
  0001a	03 c0		 add	 eax, eax
  0001c	03 c0		 add	 eax, eax
  0001e	50		 push	 eax
  0001f	e8 00 00 00 00	 call	 ??2@YAPAXI@Z		; operator new
  00024	83 c4 04	 add	 esp, 4
  00027	85 c0		 test	 eax, eax

; 38   : 
; 39   : 	return ((_Ty _FARQ *)_Ptr);

  00029	75 28		 jne	 SHORT $LN5@Allocate
$LN1@Allocate:

; 37   : 		_THROW_NCEE(bad_alloc, 0);

  0002b	8d 4d 08	 lea	 ecx, DWORD PTR $T203998[ebp]
  0002e	51		 push	 ecx
  0002f	8d 4d f4	 lea	 ecx, DWORD PTR $T203993[ebp]
  00032	c7 45 08 00 00
	00 00		 mov	 DWORD PTR $T203998[ebp], 0
  00039	e8 00 00 00 00	 call	 ??0exception@std@@QAE@ABQBD@Z ; std::exception::exception
  0003e	68 00 00 00 00	 push	 OFFSET __TI2?AVbad_alloc@std@@
  00043	8d 55 f4	 lea	 edx, DWORD PTR $T203993[ebp]
  00046	52		 push	 edx
  00047	c7 45 f4 00 00
	00 00		 mov	 DWORD PTR $T203993[ebp], OFFSET ??_7bad_alloc@std@@6B@
  0004e	e8 00 00 00 00	 call	 __CxxThrowException@8
$LN10@Allocate:
$LN5@Allocate:

; 40   : 	}

  00053	8b e5		 mov	 esp, ebp
  00055	5d		 pop	 ebp
  00056	c3		 ret	 0
$LN9@Allocate:
??$_Allocate@UMAP_RULE_DATA@@@std@@YAPAUMAP_RULE_DATA@@IPAU1@@Z ENDP ; std::_Allocate<MAP_RULE_DATA>
; Function compile flags: /Ogtp
_TEXT	ENDS
;	COMDAT ??0bad_alloc@std@@QAE@ABV01@@Z
_TEXT	SEGMENT
___that$ = 8						; size = 4
??0bad_alloc@std@@QAE@ABV01@@Z PROC			; std::bad_alloc::bad_alloc, COMDAT
; _this$ = ecx
  00000	55		 push	 ebp
  00001	8b ec		 mov	 ebp, esp
  00003	8b 45 08	 mov	 eax, DWORD PTR ___that$[ebp]
  00006	56		 push	 esi
  00007	50		 push	 eax
  00008	8b f1		 mov	 esi, ecx
  0000a	e8 00 00 00 00	 call	 ??0exception@std@@QAE@ABV01@@Z ; std::exception::exception
  0000f	c7 06 00 00 00
	00		 mov	 DWORD PTR [esi], OFFSET ??_7bad_alloc@std@@6B@
  00015	8b c6		 mov	 eax, esi
  00017	5e		 pop	 esi
  00018	5d		 pop	 ebp
  00019	c2 04 00	 ret	 4
??0bad_alloc@std@@QAE@ABV01@@Z ENDP			; std::bad_alloc::bad_alloc
_TEXT	ENDS
PUBLIC	?construct@?$allocator@UMAP_RULE_DATA@@@std@@QAEXPAUMAP_RULE_DATA@@ABU3@@Z ; std::allocator<MAP_RULE_DATA>::construct
; Function compile flags: /Ogtp
;	COMDAT ?construct@?$allocator@UMAP_RULE_DATA@@@std@@QAEXPAUMAP_RULE_DATA@@ABU3@@Z
_TEXT	SEGMENT
__Ptr$ = 8						; size = 4
__Val$ = 12						; size = 4
?construct@?$allocator@UMAP_RULE_DATA@@@std@@QAEXPAUMAP_RULE_DATA@@ABU3@@Z PROC ; std::allocator<MAP_RULE_DATA>::construct, COMDAT
; _this$ = ecx

; 196  : 		{	// construct object at _Ptr with value _Val

  00000	55		 push	 ebp
  00001	8b ec		 mov	 ebp, esp

; 197  : 		_Construct(_Ptr, _Val);

  00003	8b 45 08	 mov	 eax, DWORD PTR __Ptr$[ebp]
  00006	85 c0		 test	 eax, eax
  00008	74 1f		 je	 SHORT $LN5@construct@2
  0000a	8b 4d 0c	 mov	 ecx, DWORD PTR __Val$[ebp]
  0000d	8b 11		 mov	 edx, DWORD PTR [ecx]
  0000f	89 10		 mov	 DWORD PTR [eax], edx
  00011	8b 51 04	 mov	 edx, DWORD PTR [ecx+4]
  00014	89 50 04	 mov	 DWORD PTR [eax+4], edx
  00017	8b 51 08	 mov	 edx, DWORD PTR [ecx+8]
  0001a	89 50 08	 mov	 DWORD PTR [eax+8], edx
  0001d	8b 51 0c	 mov	 edx, DWORD PTR [ecx+12]
  00020	89 50 0c	 mov	 DWORD PTR [eax+12], edx
  00023	8b 49 10	 mov	 ecx, DWORD PTR [ecx+16]
  00026	89 48 10	 mov	 DWORD PTR [eax+16], ecx
$LN5@construct@2:

; 198  : 		}

  00029	5d		 pop	 ebp
  0002a	c2 08 00	 ret	 8
?construct@?$allocator@UMAP_RULE_DATA@@@std@@QAEXPAUMAP_RULE_DATA@@ABU3@@Z ENDP ; std::allocator<MAP_RULE_DATA>::construct
_TEXT	ENDS
PUBLIC	??$_Move@PAUMAP_RULE_DATA@@PAU1@@std@@YAPAUMAP_RULE_DATA@@PAU1@00U_Nonscalar_ptr_iterator_tag@0@@Z ; std::_Move<MAP_RULE_DATA *,MAP_RULE_DATA *>
; Function compile flags: /Ogtp
; File d:\program files (x86)\microsoft visual studio 10.0\vc\include\xutility
;	COMDAT ??$_Move@PAUMAP_RULE_DATA@@PAU1@@std@@YAPAUMAP_RULE_DATA@@PAU1@00U_Nonscalar_ptr_iterator_tag@0@@Z
_TEXT	SEGMENT
__First$ = 8						; size = 4
__Last$ = 12						; size = 4
__Dest$ = 16						; size = 4
___formal$ = 20						; size = 1
??$_Move@PAUMAP_RULE_DATA@@PAU1@@std@@YAPAUMAP_RULE_DATA@@PAU1@00U_Nonscalar_ptr_iterator_tag@0@@Z PROC ; std::_Move<MAP_RULE_DATA *,MAP_RULE_DATA *>, COMDAT

; 2512 : 	{	// move [_First, _Last) to [_Dest, ...), arbitrary iterators

  00000	55		 push	 ebp
  00001	8b ec		 mov	 ebp, esp

; 2513 : 	for (; _First != _Last; ++_Dest, ++_First)

  00003	8b 4d 08	 mov	 ecx, DWORD PTR __First$[ebp]
  00006	8b 55 0c	 mov	 edx, DWORD PTR __Last$[ebp]
  00009	8b 45 10	 mov	 eax, DWORD PTR __Dest$[ebp]
  0000c	3b ca		 cmp	 ecx, edx
  0000e	74 28		 je	 SHORT $LN1@Move
  00010	56		 push	 esi
$LL3@Move:

; 2514 : 		*_Dest = _STD move(*_First);

  00011	8b 31		 mov	 esi, DWORD PTR [ecx]
  00013	89 30		 mov	 DWORD PTR [eax], esi
  00015	8b 71 04	 mov	 esi, DWORD PTR [ecx+4]
  00018	89 70 04	 mov	 DWORD PTR [eax+4], esi
  0001b	8b 71 08	 mov	 esi, DWORD PTR [ecx+8]
  0001e	89 70 08	 mov	 DWORD PTR [eax+8], esi
  00021	8b 71 0c	 mov	 esi, DWORD PTR [ecx+12]
  00024	89 70 0c	 mov	 DWORD PTR [eax+12], esi
  00027	8b 71 10	 mov	 esi, DWORD PTR [ecx+16]
  0002a	89 70 10	 mov	 DWORD PTR [eax+16], esi
  0002d	83 c1 14	 add	 ecx, 20			; 00000014H
  00030	83 c0 14	 add	 eax, 20			; 00000014H
  00033	3b ca		 cmp	 ecx, edx
  00035	75 da		 jne	 SHORT $LL3@Move
  00037	5e		 pop	 esi
$LN1@Move:

; 2515 : 	return (_Dest);
; 2516 : 	}

  00038	5d		 pop	 ebp
  00039	c3		 ret	 0
??$_Move@PAUMAP_RULE_DATA@@PAU1@@std@@YAPAUMAP_RULE_DATA@@PAU1@00U_Nonscalar_ptr_iterator_tag@0@@Z ENDP ; std::_Move<MAP_RULE_DATA *,MAP_RULE_DATA *>
_TEXT	ENDS
PUBLIC	?destroy@?$allocator@UMAP_RULE_DATA@@@std@@QAEXPAUMAP_RULE_DATA@@@Z ; std::allocator<MAP_RULE_DATA>::destroy
; Function compile flags: /Ogtp
; File d:\program files (x86)\microsoft visual studio 10.0\vc\include\xmemory
;	COMDAT ?destroy@?$allocator@UMAP_RULE_DATA@@@std@@QAEXPAUMAP_RULE_DATA@@@Z
_TEXT	SEGMENT
__Ptr$ = 8						; size = 4
?destroy@?$allocator@UMAP_RULE_DATA@@@std@@QAEXPAUMAP_RULE_DATA@@@Z PROC ; std::allocator<MAP_RULE_DATA>::destroy, COMDAT
; _this$ = ecx

; 213  : 		_Destroy(_Ptr);
; 214  : 		}

  00000	c2 04 00	 ret	 4
?destroy@?$allocator@UMAP_RULE_DATA@@@std@@QAEXPAUMAP_RULE_DATA@@@Z ENDP ; std::allocator<MAP_RULE_DATA>::destroy
_TEXT	ENDS
PUBLIC	?construct@?$allocator@UMAP_RULE_DATA@@@std@@QAEXPAUMAP_RULE_DATA@@$$QAU3@@Z ; std::allocator<MAP_RULE_DATA>::construct
; Function compile flags: /Ogtp
;	COMDAT ?construct@?$allocator@UMAP_RULE_DATA@@@std@@QAEXPAUMAP_RULE_DATA@@$$QAU3@@Z
_TEXT	SEGMENT
__Ptr$ = 8						; size = 4
__Val$ = 12						; size = 4
?construct@?$allocator@UMAP_RULE_DATA@@@std@@QAEXPAUMAP_RULE_DATA@@$$QAU3@@Z PROC ; std::allocator<MAP_RULE_DATA>::construct, COMDAT
; _this$ = ecx

; 201  : 		{	// construct object at _Ptr with value _Val

  00000	55		 push	 ebp
  00001	8b ec		 mov	 ebp, esp

; 202  : 		::new ((void _FARQ *)_Ptr) _Ty(_STD forward<_Ty>(_Val));

  00003	8b 45 08	 mov	 eax, DWORD PTR __Ptr$[ebp]
  00006	85 c0		 test	 eax, eax
  00008	74 1f		 je	 SHORT $LN3@construct@3
  0000a	8b 4d 0c	 mov	 ecx, DWORD PTR __Val$[ebp]
  0000d	8b 11		 mov	 edx, DWORD PTR [ecx]
  0000f	89 10		 mov	 DWORD PTR [eax], edx
  00011	8b 51 04	 mov	 edx, DWORD PTR [ecx+4]
  00014	89 50 04	 mov	 DWORD PTR [eax+4], edx
  00017	8b 51 08	 mov	 edx, DWORD PTR [ecx+8]
  0001a	89 50 08	 mov	 DWORD PTR [eax+8], edx
  0001d	8b 51 0c	 mov	 edx, DWORD PTR [ecx+12]
  00020	89 50 0c	 mov	 DWORD PTR [eax+12], edx
  00023	8b 49 10	 mov	 ecx, DWORD PTR [ecx+16]
  00026	89 48 10	 mov	 DWORD PTR [eax+16], ecx
$LN3@construct@3:

; 203  : 		}

  00029	5d		 pop	 ebp
  0002a	c2 08 00	 ret	 8
?construct@?$allocator@UMAP_RULE_DATA@@@std@@QAEXPAUMAP_RULE_DATA@@$$QAU3@@Z ENDP ; std::allocator<MAP_RULE_DATA>::construct
_TEXT	ENDS
PUBLIC	?CheckAttackMap@cPvPMapSystem@@QAE_NPAUOBJECTSTRUCT@@0@Z ; cPvPMapSystem::CheckAttackMap
; Function compile flags: /Ogtp
; File e:\work\tranet_version\gs\gameserver\pvpmapsystem.cpp
;	COMDAT ?CheckAttackMap@cPvPMapSystem@@QAE_NPAUOBJECTSTRUCT@@0@Z
_TEXT	SEGMENT
_lpObj$ = 8						; size = 4
_lpTargetObj$ = 12					; size = 4
?CheckAttackMap@cPvPMapSystem@@QAE_NPAUOBJECTSTRUCT@@0@Z PROC ; cPvPMapSystem::CheckAttackMap, COMDAT
; _this$ = ecx

; 123  : {

  00000	55		 push	 ebp
  00001	8b ec		 mov	 ebp, esp
  00003	56		 push	 esi
  00004	8b f1		 mov	 esi, ecx

; 124  : 	if(!this->EnablePvPMap) return true;

  00006	83 3e 00	 cmp	 DWORD PTR [esi], 0
  00009	75 07		 jne	 SHORT $LN8@CheckAttac
  0000b	b0 01		 mov	 al, 1
  0000d	5e		 pop	 esi

; 148  : }

  0000e	5d		 pop	 ebp
  0000f	c2 08 00	 ret	 8
$LN8@CheckAttac:
  00012	53		 push	 ebx

; 125  : 
; 126  : 	if(lpObj->Type == OBJ_USER && lpTargetObj->Type == OBJ_USER)

  00013	8b 5d 08	 mov	 ebx, DWORD PTR _lpObj$[ebp]
  00016	b9 01 00 00 00	 mov	 ecx, 1
  0001b	57		 push	 edi
  0001c	66 39 4b 68	 cmp	 WORD PTR [ebx+104], cx
  00020	75 69		 jne	 SHORT $LN3@CheckAttac
  00022	8b 45 0c	 mov	 eax, DWORD PTR _lpTargetObj$[ebp]
  00025	66 39 48 68	 cmp	 WORD PTR [eax+104], cx
  00029	75 60		 jne	 SHORT $LN3@CheckAttac

; 127  : 	{
; 128  : 		#if(ENABLE_MAP_RULE)
; 129  : 		if(!this->GetMapRule(lpTargetObj->m_Index, lpTargetObj->MapNumber))

  0002b	0f b6 88 49 01
	00 00		 movzx	 ecx, BYTE PTR [eax+329]
  00032	8b 10		 mov	 edx, DWORD PTR [eax]
  00034	51		 push	 ecx
  00035	52		 push	 edx
  00036	8b ce		 mov	 ecx, esi
  00038	e8 00 00 00 00	 call	 ?GetMapRule@cPvPMapSystem@@QAE_NHH@Z ; cPvPMapSystem::GetMapRule
  0003d	84 c0		 test	 al, al

; 130  : 		{
; 131  : 			return false;

  0003f	74 53		 je	 SHORT $LN12@CheckAttac

; 132  : 		}
; 133  : 		#endif
; 134  : 
; 135  : 		for(int i=0;i<this->pCount;i++)

  00041	8b be d0 07 00
	00		 mov	 edi, DWORD PTR [esi+2000]
  00047	33 d2		 xor	 edx, edx
  00049	85 ff		 test	 edi, edi
  0004b	7e 3e		 jle	 SHORT $LN3@CheckAttac
  0004d	8d 46 0c	 lea	 eax, DWORD PTR [esi+12]
$LL5@CheckAttac:

; 136  : 		{
; 137  : 			if(this->PvP[i].Map == lpObj->MapNumber && this->PvP[i].Status == 2)

  00050	0f b6 8b 49 01
	00 00		 movzx	 ecx, BYTE PTR [ebx+329]
  00057	39 48 fc	 cmp	 DWORD PTR [eax-4], ecx
  0005a	75 27		 jne	 SHORT $LN4@CheckAttac
  0005c	83 38 02	 cmp	 DWORD PTR [eax], 2
  0005f	75 22		 jne	 SHORT $LN4@CheckAttac

; 138  : 			{
; 139  : 				if(		(lpObj->X >= this->PvP[i].X1 && lpObj->X <= this->PvP[i].X2)
; 140  : 					&&	(lpObj->Y >= this->PvP[i].Y1 && lpObj->Y <= this->PvP[i].Y2) )

  00061	0f bf 8b 44 01
	00 00		 movsx	 ecx, WORD PTR [ebx+324]
  00068	3b 48 04	 cmp	 ecx, DWORD PTR [eax+4]
  0006b	7c 16		 jl	 SHORT $LN4@CheckAttac
  0006d	3b 48 08	 cmp	 ecx, DWORD PTR [eax+8]
  00070	7f 11		 jg	 SHORT $LN4@CheckAttac
  00072	0f bf 8b 46 01
	00 00		 movsx	 ecx, WORD PTR [ebx+326]
  00079	3b 48 0c	 cmp	 ecx, DWORD PTR [eax+12]
  0007c	7c 05		 jl	 SHORT $LN4@CheckAttac
  0007e	3b 48 10	 cmp	 ecx, DWORD PTR [eax+16]
  00081	7e 11		 jle	 SHORT $LN12@CheckAttac
$LN4@CheckAttac:

; 132  : 		}
; 133  : 		#endif
; 134  : 
; 135  : 		for(int i=0;i<this->pCount;i++)

  00083	42		 inc	 edx
  00084	83 c0 18	 add	 eax, 24			; 00000018H
  00087	3b d7		 cmp	 edx, edi
  00089	7c c5		 jl	 SHORT $LL5@CheckAttac
$LN3@CheckAttac:
  0008b	5f		 pop	 edi
  0008c	5b		 pop	 ebx

; 143  : 				}
; 144  : 			}
; 145  : 		}
; 146  : 	}
; 147  : 	return true;

  0008d	b0 01		 mov	 al, 1
  0008f	5e		 pop	 esi

; 148  : }

  00090	5d		 pop	 ebp
  00091	c2 08 00	 ret	 8
$LN12@CheckAttac:
  00094	5f		 pop	 edi
  00095	5b		 pop	 ebx

; 141  : 				{
; 142  : 					return false;

  00096	32 c0		 xor	 al, al
  00098	5e		 pop	 esi

; 148  : }

  00099	5d		 pop	 ebp
  0009a	c2 08 00	 ret	 8
?CheckAttackMap@cPvPMapSystem@@QAE_NPAUOBJECTSTRUCT@@0@Z ENDP ; cPvPMapSystem::CheckAttackMap
_TEXT	ENDS
PUBLIC	??0?$vector@UMAP_RULE_DATA@@V?$allocator@UMAP_RULE_DATA@@@std@@@std@@QAE@XZ ; std::vector<MAP_RULE_DATA,std::allocator<MAP_RULE_DATA> >::vector<MAP_RULE_DATA,std::allocator<MAP_RULE_DATA> >
; Function compile flags: /Ogtp
; File d:\program files (x86)\microsoft visual studio 10.0\vc\include\vector
;	COMDAT ??0?$vector@UMAP_RULE_DATA@@V?$allocator@UMAP_RULE_DATA@@@std@@@std@@QAE@XZ
_TEXT	SEGMENT
??0?$vector@UMAP_RULE_DATA@@V?$allocator@UMAP_RULE_DATA@@@std@@@std@@QAE@XZ PROC ; std::vector<MAP_RULE_DATA,std::allocator<MAP_RULE_DATA> >::vector<MAP_RULE_DATA,std::allocator<MAP_RULE_DATA> >, COMDAT
; _this$ = ecx

; 507  : 		{	// construct empty vector

  00000	8b c1		 mov	 eax, ecx
  00002	33 c9		 xor	 ecx, ecx
  00004	89 08		 mov	 DWORD PTR [eax], ecx
  00006	89 48 04	 mov	 DWORD PTR [eax+4], ecx
  00009	89 48 08	 mov	 DWORD PTR [eax+8], ecx

; 508  : 		}

  0000c	c3		 ret	 0
??0?$vector@UMAP_RULE_DATA@@V?$allocator@UMAP_RULE_DATA@@@std@@@std@@QAE@XZ ENDP ; std::vector<MAP_RULE_DATA,std::allocator<MAP_RULE_DATA> >::vector<MAP_RULE_DATA,std::allocator<MAP_RULE_DATA> >
_TEXT	ENDS
PUBLIC	??0?$_Vector_iterator@V?$_Vector_val@UMAP_RULE_DATA@@V?$allocator@UMAP_RULE_DATA@@@std@@@std@@@std@@QAE@PAUMAP_RULE_DATA@@PBU_Container_base0@1@@Z ; std::_Vector_iterator<std::_Vector_val<MAP_RULE_DATA,std::allocator<MAP_RULE_DATA> > >::_Vector_iterator<std::_Vector_val<MAP_RULE_DATA,std::allocator<MAP_RULE_DATA> > >
; Function compile flags: /Ogtp
;	COMDAT ??0?$_Vector_iterator@V?$_Vector_val@UMAP_RULE_DATA@@V?$allocator@UMAP_RULE_DATA@@@std@@@std@@@std@@QAE@PAUMAP_RULE_DATA@@PBU_Container_base0@1@@Z
_TEXT	SEGMENT
__Parg$ = 8						; size = 4
__Pvector$ = 12						; size = 4
??0?$_Vector_iterator@V?$_Vector_val@UMAP_RULE_DATA@@V?$allocator@UMAP_RULE_DATA@@@std@@@std@@@std@@QAE@PAUMAP_RULE_DATA@@PBU_Container_base0@1@@Z PROC ; std::_Vector_iterator<std::_Vector_val<MAP_RULE_DATA,std::allocator<MAP_RULE_DATA> > >::_Vector_iterator<std::_Vector_val<MAP_RULE_DATA,std::allocator<MAP_RULE_DATA> > >, COMDAT
; _this$ = ecx

; 304  : 		{	// construct with pointer _Parg

  00000	55		 push	 ebp
  00001	8b ec		 mov	 ebp, esp
  00003	8b c1		 mov	 eax, ecx
  00005	8b 4d 08	 mov	 ecx, DWORD PTR __Parg$[ebp]
  00008	89 08		 mov	 DWORD PTR [eax], ecx

; 305  : 		}

  0000a	5d		 pop	 ebp
  0000b	c2 08 00	 ret	 8
??0?$_Vector_iterator@V?$_Vector_val@UMAP_RULE_DATA@@V?$allocator@UMAP_RULE_DATA@@@std@@@std@@@std@@QAE@PAUMAP_RULE_DATA@@PBU_Container_base0@1@@Z ENDP ; std::_Vector_iterator<std::_Vector_val<MAP_RULE_DATA,std::allocator<MAP_RULE_DATA> > >::_Vector_iterator<std::_Vector_val<MAP_RULE_DATA,std::allocator<MAP_RULE_DATA> > >
_TEXT	ENDS
PUBLIC	??9?$_Vector_const_iterator@V?$_Vector_val@UMAP_RULE_DATA@@V?$allocator@UMAP_RULE_DATA@@@std@@@std@@@std@@QBE_NABV01@@Z ; std::_Vector_const_iterator<std::_Vector_val<MAP_RULE_DATA,std::allocator<MAP_RULE_DATA> > >::operator!=
; Function compile flags: /Ogtp
;	COMDAT ??9?$_Vector_const_iterator@V?$_Vector_val@UMAP_RULE_DATA@@V?$allocator@UMAP_RULE_DATA@@@std@@@std@@@std@@QBE_NABV01@@Z
_TEXT	SEGMENT
__Right$ = 8						; size = 4
??9?$_Vector_const_iterator@V?$_Vector_val@UMAP_RULE_DATA@@V?$allocator@UMAP_RULE_DATA@@@std@@@std@@@std@@QBE_NABV01@@Z PROC ; std::_Vector_const_iterator<std::_Vector_val<MAP_RULE_DATA,std::allocator<MAP_RULE_DATA> > >::operator!=, COMDAT
; _this$ = ecx

; 207  : 		{	// test for iterator inequality

  00000	55		 push	 ebp
  00001	8b ec		 mov	 ebp, esp

; 208  : 		return (!(*this == _Right));

  00003	8b 01		 mov	 eax, DWORD PTR [ecx]
  00005	8b 55 08	 mov	 edx, DWORD PTR __Right$[ebp]
  00008	33 c9		 xor	 ecx, ecx
  0000a	3b 02		 cmp	 eax, DWORD PTR [edx]
  0000c	0f 95 c0	 setne	 al

; 209  : 		}

  0000f	5d		 pop	 ebp
  00010	c2 04 00	 ret	 4
??9?$_Vector_const_iterator@V?$_Vector_val@UMAP_RULE_DATA@@V?$allocator@UMAP_RULE_DATA@@@std@@@std@@@std@@QBE_NABV01@@Z ENDP ; std::_Vector_const_iterator<std::_Vector_val<MAP_RULE_DATA,std::allocator<MAP_RULE_DATA> > >::operator!=
_TEXT	ENDS
PUBLIC	?allocate@?$allocator@UMAP_RULE_DATA@@@std@@QAEPAUMAP_RULE_DATA@@I@Z ; std::allocator<MAP_RULE_DATA>::allocate
; Function compile flags: /Ogtp
; File d:\program files (x86)\microsoft visual studio 10.0\vc\include\xmemory
;	COMDAT ?allocate@?$allocator@UMAP_RULE_DATA@@@std@@QAEPAUMAP_RULE_DATA@@I@Z
_TEXT	SEGMENT
$T204109 = -12						; size = 12
$T204107 = 8						; size = 4
__Count$ = 8						; size = 4
?allocate@?$allocator@UMAP_RULE_DATA@@@std@@QAEPAUMAP_RULE_DATA@@I@Z PROC ; std::allocator<MAP_RULE_DATA>::allocate, COMDAT
; _this$ = ecx

; 186  : 		{	// allocate array of _Count elements

  00000	55		 push	 ebp
  00001	8b ec		 mov	 ebp, esp

; 187  : 		return (_Allocate(_Count, (pointer)0));

  00003	8b 4d 08	 mov	 ecx, DWORD PTR __Count$[ebp]
  00006	83 ec 0c	 sub	 esp, 12			; 0000000cH
  00009	33 c0		 xor	 eax, eax
  0000b	85 c9		 test	 ecx, ecx
  0000d	74 44		 je	 SHORT $LN1@allocate
  0000f	81 f9 cc cc cc
	0c		 cmp	 ecx, 214748364		; 0cccccccH
  00015	77 14		 ja	 SHORT $LN3@allocate
  00017	8d 04 89	 lea	 eax, DWORD PTR [ecx+ecx*4]
  0001a	03 c0		 add	 eax, eax
  0001c	03 c0		 add	 eax, eax
  0001e	50		 push	 eax
  0001f	e8 00 00 00 00	 call	 ??2@YAPAXI@Z		; operator new
  00024	83 c4 04	 add	 esp, 4
  00027	85 c0		 test	 eax, eax
  00029	75 28		 jne	 SHORT $LN1@allocate
$LN3@allocate:
  0002b	8d 4d 08	 lea	 ecx, DWORD PTR $T204107[ebp]
  0002e	51		 push	 ecx
  0002f	8d 4d f4	 lea	 ecx, DWORD PTR $T204109[ebp]
  00032	c7 45 08 00 00
	00 00		 mov	 DWORD PTR $T204107[ebp], 0
  00039	e8 00 00 00 00	 call	 ??0exception@std@@QAE@ABQBD@Z ; std::exception::exception
  0003e	68 00 00 00 00	 push	 OFFSET __TI2?AVbad_alloc@std@@
  00043	8d 55 f4	 lea	 edx, DWORD PTR $T204109[ebp]
  00046	52		 push	 edx
  00047	c7 45 f4 00 00
	00 00		 mov	 DWORD PTR $T204109[ebp], OFFSET ??_7bad_alloc@std@@6B@
  0004e	e8 00 00 00 00	 call	 __CxxThrowException@8
$LN13@allocate:
$LN1@allocate:

; 188  : 		}

  00053	8b e5		 mov	 esp, ebp
  00055	5d		 pop	 ebp
  00056	c2 04 00	 ret	 4
$LN12@allocate:
?allocate@?$allocator@UMAP_RULE_DATA@@@std@@QAEPAUMAP_RULE_DATA@@I@Z ENDP ; std::allocator<MAP_RULE_DATA>::allocate
_TEXT	ENDS
PUBLIC	??$_Cons_val@V?$allocator@UMAP_RULE_DATA@@@std@@UMAP_RULE_DATA@@ABU3@@std@@YAXAAV?$allocator@UMAP_RULE_DATA@@@0@PAUMAP_RULE_DATA@@ABU2@@Z ; std::_Cons_val<std::allocator<MAP_RULE_DATA>,MAP_RULE_DATA,MAP_RULE_DATA const &>
; Function compile flags: /Ogtp
;	COMDAT ??$_Cons_val@V?$allocator@UMAP_RULE_DATA@@@std@@UMAP_RULE_DATA@@ABU3@@std@@YAXAAV?$allocator@UMAP_RULE_DATA@@@0@PAUMAP_RULE_DATA@@ABU2@@Z
_TEXT	SEGMENT
__Alval$ = 8						; size = 4
__Pdest$ = 12						; size = 4
__Src$ = 16						; size = 4
??$_Cons_val@V?$allocator@UMAP_RULE_DATA@@@std@@UMAP_RULE_DATA@@ABU3@@std@@YAXAAV?$allocator@UMAP_RULE_DATA@@@0@PAUMAP_RULE_DATA@@ABU2@@Z PROC ; std::_Cons_val<std::allocator<MAP_RULE_DATA>,MAP_RULE_DATA,MAP_RULE_DATA const &>, COMDAT

; 279  : 	{	// construct using allocator

  00000	55		 push	 ebp
  00001	8b ec		 mov	 ebp, esp

; 280  : 	_Alval.construct(_Pdest, _STD forward<_Ty2>(_Src));

  00003	8b 45 0c	 mov	 eax, DWORD PTR __Pdest$[ebp]
  00006	85 c0		 test	 eax, eax
  00008	74 1f		 je	 SHORT $LN9@Cons_val@2
  0000a	8b 4d 10	 mov	 ecx, DWORD PTR __Src$[ebp]
  0000d	8b 11		 mov	 edx, DWORD PTR [ecx]
  0000f	89 10		 mov	 DWORD PTR [eax], edx
  00011	8b 51 04	 mov	 edx, DWORD PTR [ecx+4]
  00014	89 50 04	 mov	 DWORD PTR [eax+4], edx
  00017	8b 51 08	 mov	 edx, DWORD PTR [ecx+8]
  0001a	89 50 08	 mov	 DWORD PTR [eax+8], edx
  0001d	8b 51 0c	 mov	 edx, DWORD PTR [ecx+12]
  00020	89 50 0c	 mov	 DWORD PTR [eax+12], edx
  00023	8b 49 10	 mov	 ecx, DWORD PTR [ecx+16]
  00026	89 48 10	 mov	 DWORD PTR [eax+16], ecx
$LN9@Cons_val@2:

; 281  : 	}

  00029	5d		 pop	 ebp
  0002a	c3		 ret	 0
??$_Cons_val@V?$allocator@UMAP_RULE_DATA@@@std@@UMAP_RULE_DATA@@ABU3@@std@@YAXAAV?$allocator@UMAP_RULE_DATA@@@0@PAUMAP_RULE_DATA@@ABU2@@Z ENDP ; std::_Cons_val<std::allocator<MAP_RULE_DATA>,MAP_RULE_DATA,MAP_RULE_DATA const &>
_TEXT	ENDS
PUBLIC	??$_Move@PAUMAP_RULE_DATA@@PAU1@@std@@YAPAUMAP_RULE_DATA@@PAU1@00@Z ; std::_Move<MAP_RULE_DATA *,MAP_RULE_DATA *>
; Function compile flags: /Ogtp
; File d:\program files (x86)\microsoft visual studio 10.0\vc\include\xutility
;	COMDAT ??$_Move@PAUMAP_RULE_DATA@@PAU1@@std@@YAPAUMAP_RULE_DATA@@PAU1@00@Z
_TEXT	SEGMENT
__First$ = 8						; size = 4
__Last$ = 12						; size = 4
__Dest$ = 16						; size = 4
??$_Move@PAUMAP_RULE_DATA@@PAU1@@std@@YAPAUMAP_RULE_DATA@@PAU1@00@Z PROC ; std::_Move<MAP_RULE_DATA *,MAP_RULE_DATA *>, COMDAT

; 2533 : 	{	// move [_First, _Last) to [_Dest, ...), unchecked

  00000	55		 push	 ebp
  00001	8b ec		 mov	 ebp, esp

; 2534 : 	return (_Move(_First, _Last,
; 2535 : 		_Dest, _Ptr_cat(_First, _Dest)));

  00003	8b 4d 08	 mov	 ecx, DWORD PTR __First$[ebp]
  00006	8b 55 0c	 mov	 edx, DWORD PTR __Last$[ebp]
  00009	8b 45 10	 mov	 eax, DWORD PTR __Dest$[ebp]
  0000c	3b ca		 cmp	 ecx, edx
  0000e	74 28		 je	 SHORT $LN5@Move@2
  00010	56		 push	 esi
$LL7@Move@2:
  00011	8b 31		 mov	 esi, DWORD PTR [ecx]
  00013	89 30		 mov	 DWORD PTR [eax], esi
  00015	8b 71 04	 mov	 esi, DWORD PTR [ecx+4]
  00018	89 70 04	 mov	 DWORD PTR [eax+4], esi
  0001b	8b 71 08	 mov	 esi, DWORD PTR [ecx+8]
  0001e	89 70 08	 mov	 DWORD PTR [eax+8], esi
  00021	8b 71 0c	 mov	 esi, DWORD PTR [ecx+12]
  00024	89 70 0c	 mov	 DWORD PTR [eax+12], esi
  00027	8b 71 10	 mov	 esi, DWORD PTR [ecx+16]
  0002a	89 70 10	 mov	 DWORD PTR [eax+16], esi
  0002d	83 c1 14	 add	 ecx, 20			; 00000014H
  00030	83 c0 14	 add	 eax, 20			; 00000014H
  00033	3b ca		 cmp	 ecx, edx
  00035	75 da		 jne	 SHORT $LL7@Move@2
  00037	5e		 pop	 esi
$LN5@Move@2:

; 2536 : 	}

  00038	5d		 pop	 ebp
  00039	c3		 ret	 0
??$_Move@PAUMAP_RULE_DATA@@PAU1@@std@@YAPAUMAP_RULE_DATA@@PAU1@00@Z ENDP ; std::_Move<MAP_RULE_DATA *,MAP_RULE_DATA *>
_TEXT	ENDS
PUBLIC	??$_Dest_val@V?$allocator@UMAP_RULE_DATA@@@std@@UMAP_RULE_DATA@@@std@@YAXAAV?$allocator@UMAP_RULE_DATA@@@0@PAUMAP_RULE_DATA@@@Z ; std::_Dest_val<std::allocator<MAP_RULE_DATA>,MAP_RULE_DATA>
; Function compile flags: /Ogtp
; File d:\program files (x86)\microsoft visual studio 10.0\vc\include\xmemory
;	COMDAT ??$_Dest_val@V?$allocator@UMAP_RULE_DATA@@@std@@UMAP_RULE_DATA@@@std@@YAXAAV?$allocator@UMAP_RULE_DATA@@@0@PAUMAP_RULE_DATA@@@Z
_TEXT	SEGMENT
__Alval$ = 8						; size = 4
__Pdest$ = 12						; size = 4
??$_Dest_val@V?$allocator@UMAP_RULE_DATA@@@std@@UMAP_RULE_DATA@@@std@@YAXAAV?$allocator@UMAP_RULE_DATA@@@0@PAUMAP_RULE_DATA@@@Z PROC ; std::_Dest_val<std::allocator<MAP_RULE_DATA>,MAP_RULE_DATA>, COMDAT

; 287  : 	_Alval.destroy(_Pdest);
; 288  : 	}

  00000	c3		 ret	 0
??$_Dest_val@V?$allocator@UMAP_RULE_DATA@@@std@@UMAP_RULE_DATA@@@std@@YAXAAV?$allocator@UMAP_RULE_DATA@@@0@PAUMAP_RULE_DATA@@@Z ENDP ; std::_Dest_val<std::allocator<MAP_RULE_DATA>,MAP_RULE_DATA>
_TEXT	ENDS
PUBLIC	??$_Cons_val@V?$allocator@UMAP_RULE_DATA@@@std@@UMAP_RULE_DATA@@U3@@std@@YAXAAV?$allocator@UMAP_RULE_DATA@@@0@PAUMAP_RULE_DATA@@$$QAU2@@Z ; std::_Cons_val<std::allocator<MAP_RULE_DATA>,MAP_RULE_DATA,MAP_RULE_DATA>
; Function compile flags: /Ogtp
;	COMDAT ??$_Cons_val@V?$allocator@UMAP_RULE_DATA@@@std@@UMAP_RULE_DATA@@U3@@std@@YAXAAV?$allocator@UMAP_RULE_DATA@@@0@PAUMAP_RULE_DATA@@$$QAU2@@Z
_TEXT	SEGMENT
__Alval$ = 8						; size = 4
__Pdest$ = 12						; size = 4
__Src$ = 16						; size = 4
??$_Cons_val@V?$allocator@UMAP_RULE_DATA@@@std@@UMAP_RULE_DATA@@U3@@std@@YAXAAV?$allocator@UMAP_RULE_DATA@@@0@PAUMAP_RULE_DATA@@$$QAU2@@Z PROC ; std::_Cons_val<std::allocator<MAP_RULE_DATA>,MAP_RULE_DATA,MAP_RULE_DATA>, COMDAT

; 279  : 	{	// construct using allocator

  00000	55		 push	 ebp
  00001	8b ec		 mov	 ebp, esp

; 280  : 	_Alval.construct(_Pdest, _STD forward<_Ty2>(_Src));

  00003	8b 45 0c	 mov	 eax, DWORD PTR __Pdest$[ebp]
  00006	85 c0		 test	 eax, eax
  00008	74 1f		 je	 SHORT $LN7@Cons_val@3
  0000a	8b 4d 10	 mov	 ecx, DWORD PTR __Src$[ebp]
  0000d	8b 11		 mov	 edx, DWORD PTR [ecx]
  0000f	89 10		 mov	 DWORD PTR [eax], edx
  00011	8b 51 04	 mov	 edx, DWORD PTR [ecx+4]
  00014	89 50 04	 mov	 DWORD PTR [eax+4], edx
  00017	8b 51 08	 mov	 edx, DWORD PTR [ecx+8]
  0001a	89 50 08	 mov	 DWORD PTR [eax+8], edx
  0001d	8b 51 0c	 mov	 edx, DWORD PTR [ecx+12]
  00020	89 50 0c	 mov	 DWORD PTR [eax+12], edx
  00023	8b 49 10	 mov	 ecx, DWORD PTR [ecx+16]
  00026	89 48 10	 mov	 DWORD PTR [eax+16], ecx
$LN7@Cons_val@3:

; 281  : 	}

  00029	5d		 pop	 ebp
  0002a	c3		 ret	 0
??$_Cons_val@V?$allocator@UMAP_RULE_DATA@@@std@@UMAP_RULE_DATA@@U3@@std@@YAXAAV?$allocator@UMAP_RULE_DATA@@@0@PAUMAP_RULE_DATA@@$$QAU2@@Z ENDP ; std::_Cons_val<std::allocator<MAP_RULE_DATA>,MAP_RULE_DATA,MAP_RULE_DATA>
_TEXT	ENDS
PUBLIC	?begin@?$vector@UMAP_RULE_DATA@@V?$allocator@UMAP_RULE_DATA@@@std@@@std@@QAE?AV?$_Vector_iterator@V?$_Vector_val@UMAP_RULE_DATA@@V?$allocator@UMAP_RULE_DATA@@@std@@@std@@@2@XZ ; std::vector<MAP_RULE_DATA,std::allocator<MAP_RULE_DATA> >::begin
; Function compile flags: /Ogtp
; File d:\program files (x86)\microsoft visual studio 10.0\vc\include\vector
;	COMDAT ?begin@?$vector@UMAP_RULE_DATA@@V?$allocator@UMAP_RULE_DATA@@@std@@@std@@QAE?AV?$_Vector_iterator@V?$_Vector_val@UMAP_RULE_DATA@@V?$allocator@UMAP_RULE_DATA@@@std@@@std@@@2@XZ
_TEXT	SEGMENT
___$ReturnUdt$ = 8					; size = 4
?begin@?$vector@UMAP_RULE_DATA@@V?$allocator@UMAP_RULE_DATA@@@std@@@std@@QAE?AV?$_Vector_iterator@V?$_Vector_val@UMAP_RULE_DATA@@V?$allocator@UMAP_RULE_DATA@@@std@@@std@@@2@XZ PROC ; std::vector<MAP_RULE_DATA,std::allocator<MAP_RULE_DATA> >::begin, COMDAT
; _this$ = ecx

; 781  : 		{	// return iterator for beginning of mutable sequence

  00000	55		 push	 ebp
  00001	8b ec		 mov	 ebp, esp

; 782  : 		return (iterator(this->_Myfirst, this));

  00003	8b 09		 mov	 ecx, DWORD PTR [ecx]
  00005	8b 45 08	 mov	 eax, DWORD PTR ___$ReturnUdt$[ebp]
  00008	89 08		 mov	 DWORD PTR [eax], ecx

; 783  : 		}

  0000a	5d		 pop	 ebp
  0000b	c2 04 00	 ret	 4
?begin@?$vector@UMAP_RULE_DATA@@V?$allocator@UMAP_RULE_DATA@@@std@@@std@@QAE?AV?$_Vector_iterator@V?$_Vector_val@UMAP_RULE_DATA@@V?$allocator@UMAP_RULE_DATA@@@std@@@std@@@2@XZ ENDP ; std::vector<MAP_RULE_DATA,std::allocator<MAP_RULE_DATA> >::begin
_TEXT	ENDS
PUBLIC	?end@?$vector@UMAP_RULE_DATA@@V?$allocator@UMAP_RULE_DATA@@@std@@@std@@QAE?AV?$_Vector_iterator@V?$_Vector_val@UMAP_RULE_DATA@@V?$allocator@UMAP_RULE_DATA@@@std@@@std@@@2@XZ ; std::vector<MAP_RULE_DATA,std::allocator<MAP_RULE_DATA> >::end
; Function compile flags: /Ogtp
;	COMDAT ?end@?$vector@UMAP_RULE_DATA@@V?$allocator@UMAP_RULE_DATA@@@std@@@std@@QAE?AV?$_Vector_iterator@V?$_Vector_val@UMAP_RULE_DATA@@V?$allocator@UMAP_RULE_DATA@@@std@@@std@@@2@XZ
_TEXT	SEGMENT
___$ReturnUdt$ = 8					; size = 4
?end@?$vector@UMAP_RULE_DATA@@V?$allocator@UMAP_RULE_DATA@@@std@@@std@@QAE?AV?$_Vector_iterator@V?$_Vector_val@UMAP_RULE_DATA@@V?$allocator@UMAP_RULE_DATA@@@std@@@std@@@2@XZ PROC ; std::vector<MAP_RULE_DATA,std::allocator<MAP_RULE_DATA> >::end, COMDAT
; _this$ = ecx

; 791  : 		{	// return iterator for end of mutable sequence

  00000	55		 push	 ebp
  00001	8b ec		 mov	 ebp, esp

; 792  : 		return (iterator(this->_Mylast, this));

  00003	8b 49 04	 mov	 ecx, DWORD PTR [ecx+4]
  00006	8b 45 08	 mov	 eax, DWORD PTR ___$ReturnUdt$[ebp]
  00009	89 08		 mov	 DWORD PTR [eax], ecx

; 793  : 		}

  0000b	5d		 pop	 ebp
  0000c	c2 04 00	 ret	 4
?end@?$vector@UMAP_RULE_DATA@@V?$allocator@UMAP_RULE_DATA@@@std@@@std@@QAE?AV?$_Vector_iterator@V?$_Vector_val@UMAP_RULE_DATA@@V?$allocator@UMAP_RULE_DATA@@@std@@@std@@@2@XZ ENDP ; std::vector<MAP_RULE_DATA,std::allocator<MAP_RULE_DATA> >::end
_TEXT	ENDS
PUBLIC	?_Make_iter@?$vector@UMAP_RULE_DATA@@V?$allocator@UMAP_RULE_DATA@@@std@@@std@@QBE?AV?$_Vector_iterator@V?$_Vector_val@UMAP_RULE_DATA@@V?$allocator@UMAP_RULE_DATA@@@std@@@std@@@2@V?$_Vector_const_iterator@V?$_Vector_val@UMAP_RULE_DATA@@V?$allocator@UMAP_RULE_DATA@@@std@@@std@@@2@@Z ; std::vector<MAP_RULE_DATA,std::allocator<MAP_RULE_DATA> >::_Make_iter
; Function compile flags: /Ogtp
;	COMDAT ?_Make_iter@?$vector@UMAP_RULE_DATA@@V?$allocator@UMAP_RULE_DATA@@@std@@@std@@QBE?AV?$_Vector_iterator@V?$_Vector_val@UMAP_RULE_DATA@@V?$allocator@UMAP_RULE_DATA@@@std@@@std@@@2@V?$_Vector_const_iterator@V?$_Vector_val@UMAP_RULE_DATA@@V?$allocator@UMAP_RULE_DATA@@@std@@@std@@@2@@Z
_TEXT	SEGMENT
___$ReturnUdt$ = 8					; size = 4
__Where$ = 12						; size = 4
?_Make_iter@?$vector@UMAP_RULE_DATA@@V?$allocator@UMAP_RULE_DATA@@@std@@@std@@QBE?AV?$_Vector_iterator@V?$_Vector_val@UMAP_RULE_DATA@@V?$allocator@UMAP_RULE_DATA@@@std@@@std@@@2@V?$_Vector_const_iterator@V?$_Vector_val@UMAP_RULE_DATA@@V?$allocator@UMAP_RULE_DATA@@@std@@@std@@@2@@Z PROC ; std::vector<MAP_RULE_DATA,std::allocator<MAP_RULE_DATA> >::_Make_iter, COMDAT
; _this$ = ecx

; 801  : 		{	// make iterator from const_iterator

  00000	55		 push	 ebp
  00001	8b ec		 mov	 ebp, esp

; 802  : 		return (iterator(_Where._Ptr, this));

  00003	8b 45 08	 mov	 eax, DWORD PTR ___$ReturnUdt$[ebp]
  00006	8b 4d 0c	 mov	 ecx, DWORD PTR __Where$[ebp]
  00009	89 08		 mov	 DWORD PTR [eax], ecx

; 803  : 		}

  0000b	5d		 pop	 ebp
  0000c	c2 08 00	 ret	 8
?_Make_iter@?$vector@UMAP_RULE_DATA@@V?$allocator@UMAP_RULE_DATA@@@std@@@std@@QBE?AV?$_Vector_iterator@V?$_Vector_val@UMAP_RULE_DATA@@V?$allocator@UMAP_RULE_DATA@@@std@@@std@@@2@V?$_Vector_const_iterator@V?$_Vector_val@UMAP_RULE_DATA@@V?$allocator@UMAP_RULE_DATA@@@std@@@std@@@2@@Z ENDP ; std::vector<MAP_RULE_DATA,std::allocator<MAP_RULE_DATA> >::_Make_iter
_TEXT	ENDS
PUBLIC	??$_Destroy_range@V?$allocator@UMAP_RULE_DATA@@@std@@@std@@YAXPAUMAP_RULE_DATA@@0AAV?$allocator@UMAP_RULE_DATA@@@0@U_Nonscalar_ptr_iterator_tag@0@@Z ; std::_Destroy_range<std::allocator<MAP_RULE_DATA> >
; Function compile flags: /Ogtp
; File d:\program files (x86)\microsoft visual studio 10.0\vc\include\xmemory
;	COMDAT ??$_Destroy_range@V?$allocator@UMAP_RULE_DATA@@@std@@@std@@YAXPAUMAP_RULE_DATA@@0AAV?$allocator@UMAP_RULE_DATA@@@0@U_Nonscalar_ptr_iterator_tag@0@@Z
_TEXT	SEGMENT
__First$ = 8						; size = 4
__Last$ = 12						; size = 4
__Al$ = 16						; size = 4
___formal$ = 20						; size = 1
??$_Destroy_range@V?$allocator@UMAP_RULE_DATA@@@std@@@std@@YAXPAUMAP_RULE_DATA@@0AAV?$allocator@UMAP_RULE_DATA@@@0@U_Nonscalar_ptr_iterator_tag@0@@Z PROC ; std::_Destroy_range<std::allocator<MAP_RULE_DATA> >, COMDAT

; 96   : 	for (; _First != _Last; ++_First)
; 97   : 		_Dest_val(_Al, _First);
; 98   : 	}

  00000	c3		 ret	 0
??$_Destroy_range@V?$allocator@UMAP_RULE_DATA@@@std@@@std@@YAXPAUMAP_RULE_DATA@@0AAV?$allocator@UMAP_RULE_DATA@@@0@U_Nonscalar_ptr_iterator_tag@0@@Z ENDP ; std::_Destroy_range<std::allocator<MAP_RULE_DATA> >
_TEXT	ENDS
PUBLIC	??$_Uninit_move@PAUMAP_RULE_DATA@@PAU1@V?$allocator@UMAP_RULE_DATA@@@std@@U1@@std@@YAPAUMAP_RULE_DATA@@PAU1@00AAV?$allocator@UMAP_RULE_DATA@@@0@0U_Nonscalar_ptr_iterator_tag@0@@Z ; std::_Uninit_move<MAP_RULE_DATA *,MAP_RULE_DATA *,std::allocator<MAP_RULE_DATA>,MAP_RULE_DATA>
; Function compile flags: /Ogtp
; File d:\program files (x86)\microsoft visual studio 10.0\vc\include\memory
;	COMDAT ??$_Uninit_move@PAUMAP_RULE_DATA@@PAU1@V?$allocator@UMAP_RULE_DATA@@@std@@U1@@std@@YAPAUMAP_RULE_DATA@@PAU1@00AAV?$allocator@UMAP_RULE_DATA@@@0@0U_Nonscalar_ptr_iterator_tag@0@@Z
_TEXT	SEGMENT
__First$ = 8						; size = 4
__Last$ = 12						; size = 4
__Dest$ = 16						; size = 4
__Al$ = 20						; size = 4
___formal$ = 24						; size = 4
___formal$ = 28						; size = 1
??$_Uninit_move@PAUMAP_RULE_DATA@@PAU1@V?$allocator@UMAP_RULE_DATA@@@std@@U1@@std@@YAPAUMAP_RULE_DATA@@PAU1@00AAV?$allocator@UMAP_RULE_DATA@@@0@0U_Nonscalar_ptr_iterator_tag@0@@Z PROC ; std::_Uninit_move<MAP_RULE_DATA *,MAP_RULE_DATA *,std::allocator<MAP_RULE_DATA>,MAP_RULE_DATA>, COMDAT

; 424  : 	{	// move [_First, _Last) to raw _Dest, using _Al, arbitrary type

  00000	55		 push	 ebp
  00001	8b ec		 mov	 ebp, esp
  00003	53		 push	 ebx

; 425  : 	_DEBUG_RANGE(_First, _Last);
; 426  : 	_DEBUG_POINTER(_Dest);
; 427  : 	_FwdIt _Next = _Dest;
; 428  : 
; 429  : 	_TRY_BEGIN
; 430  : 	for (; _First != _Last; ++_Dest, ++_First)

  00004	8b 5d 0c	 mov	 ebx, DWORD PTR __Last$[ebp]
  00007	56		 push	 esi
  00008	8b 75 08	 mov	 esi, DWORD PTR __First$[ebp]
  0000b	3b f3		 cmp	 esi, ebx
  0000d	74 23		 je	 SHORT $LN17@Uninit_mov
  0000f	57		 push	 edi
  00010	8b 7d 10	 mov	 edi, DWORD PTR __Dest$[ebp]
$LL6@Uninit_mov:

; 431  : 		_Cons_val(_Al, _Dest, (_Valty &&)*_First);

  00013	8b 45 14	 mov	 eax, DWORD PTR __Al$[ebp]
  00016	56		 push	 esi
  00017	57		 push	 edi
  00018	50		 push	 eax
  00019	e8 00 00 00 00	 call	 ??$_Cons_val@V?$allocator@UMAP_RULE_DATA@@@std@@UMAP_RULE_DATA@@U3@@std@@YAXAAV?$allocator@UMAP_RULE_DATA@@@0@PAUMAP_RULE_DATA@@$$QAU2@@Z ; std::_Cons_val<std::allocator<MAP_RULE_DATA>,MAP_RULE_DATA,MAP_RULE_DATA>
  0001e	83 c6 14	 add	 esi, 20			; 00000014H
  00021	83 c4 0c	 add	 esp, 12			; 0000000cH
  00024	83 c7 14	 add	 edi, 20			; 00000014H
  00027	3b f3		 cmp	 esi, ebx
  00029	75 e8		 jne	 SHORT $LL6@Uninit_mov

; 432  : 	_CATCH_ALL
; 433  : 	for (; _Next != _Dest; ++_Next)
; 434  : 		_Dest_val(_Al, _Next);
; 435  : 	_RERAISE;
; 436  : 	_CATCH_END
; 437  : 	return (_Dest);

  0002b	8b c7		 mov	 eax, edi
  0002d	5f		 pop	 edi
  0002e	5e		 pop	 esi
  0002f	5b		 pop	 ebx

; 438  : 	}

  00030	5d		 pop	 ebp
  00031	c3		 ret	 0
$LN17@Uninit_mov:

; 432  : 	_CATCH_ALL
; 433  : 	for (; _Next != _Dest; ++_Next)
; 434  : 		_Dest_val(_Al, _Next);
; 435  : 	_RERAISE;
; 436  : 	_CATCH_END
; 437  : 	return (_Dest);

  00032	8b 45 10	 mov	 eax, DWORD PTR __Dest$[ebp]
  00035	5e		 pop	 esi
  00036	5b		 pop	 ebx

; 438  : 	}

  00037	5d		 pop	 ebp
  00038	c3		 ret	 0
??$_Uninit_move@PAUMAP_RULE_DATA@@PAU1@V?$allocator@UMAP_RULE_DATA@@@std@@U1@@std@@YAPAUMAP_RULE_DATA@@PAU1@00AAV?$allocator@UMAP_RULE_DATA@@@0@0U_Nonscalar_ptr_iterator_tag@0@@Z ENDP ; std::_Uninit_move<MAP_RULE_DATA *,MAP_RULE_DATA *,std::allocator<MAP_RULE_DATA>,MAP_RULE_DATA>
_TEXT	ENDS
PUBLIC	??$_Destroy_range@V?$allocator@UMAP_RULE_DATA@@@std@@@std@@YAXPAUMAP_RULE_DATA@@0AAV?$allocator@UMAP_RULE_DATA@@@0@@Z ; std::_Destroy_range<std::allocator<MAP_RULE_DATA> >
; Function compile flags: /Ogtp
; File d:\program files (x86)\microsoft visual studio 10.0\vc\include\xmemory
;	COMDAT ??$_Destroy_range@V?$allocator@UMAP_RULE_DATA@@@std@@@std@@YAXPAUMAP_RULE_DATA@@0AAV?$allocator@UMAP_RULE_DATA@@@0@@Z
_TEXT	SEGMENT
__First$ = 8						; size = 4
__Last$ = 12						; size = 4
__Al$ = 16						; size = 4
??$_Destroy_range@V?$allocator@UMAP_RULE_DATA@@@std@@@std@@YAXPAUMAP_RULE_DATA@@0AAV?$allocator@UMAP_RULE_DATA@@@0@@Z PROC ; std::_Destroy_range<std::allocator<MAP_RULE_DATA> >, COMDAT

; 88   : 	_Destroy_range(_First, _Last, _Al, _Ptr_cat(_First, _Last));
; 89   : 	}

  00000	c3		 ret	 0
??$_Destroy_range@V?$allocator@UMAP_RULE_DATA@@@std@@@std@@YAXPAUMAP_RULE_DATA@@0AAV?$allocator@UMAP_RULE_DATA@@@0@@Z ENDP ; std::_Destroy_range<std::allocator<MAP_RULE_DATA> >
_TEXT	ENDS
PUBLIC	??$_Uninitialized_move@PAUMAP_RULE_DATA@@PAU1@V?$allocator@UMAP_RULE_DATA@@@std@@@std@@YAPAUMAP_RULE_DATA@@PAU1@00AAV?$allocator@UMAP_RULE_DATA@@@0@@Z ; std::_Uninitialized_move<MAP_RULE_DATA *,MAP_RULE_DATA *,std::allocator<MAP_RULE_DATA> >
; Function compile flags: /Ogtp
; File d:\program files (x86)\microsoft visual studio 10.0\vc\include\memory
;	COMDAT ??$_Uninitialized_move@PAUMAP_RULE_DATA@@PAU1@V?$allocator@UMAP_RULE_DATA@@@std@@@std@@YAPAUMAP_RULE_DATA@@PAU1@00AAV?$allocator@UMAP_RULE_DATA@@@0@@Z
_TEXT	SEGMENT
__Cat$204302 = -4					; size = 1
__First$ = 8						; size = 4
__Last$ = 12						; size = 4
__Dest$ = 16						; size = 4
__Al$ = 20						; size = 4
??$_Uninitialized_move@PAUMAP_RULE_DATA@@PAU1@V?$allocator@UMAP_RULE_DATA@@@std@@@std@@YAPAUMAP_RULE_DATA@@PAU1@00AAV?$allocator@UMAP_RULE_DATA@@@0@@Z PROC ; std::_Uninitialized_move<MAP_RULE_DATA *,MAP_RULE_DATA *,std::allocator<MAP_RULE_DATA> >, COMDAT

; 469  : 	{	// move [_First, _Last) to raw _Dest, using _Al

  00000	55		 push	 ebp
  00001	8b ec		 mov	 ebp, esp
  00003	51		 push	 ecx

; 470  : 	return (_Uninit_move(_First, _Last, _Dest, _Al,
; 471  : 		_Val_type(_First), _Ptr_cat(_First, _Dest)));

  00004	8b 45 fc	 mov	 eax, DWORD PTR __Cat$204302[ebp]
  00007	8b 4d 14	 mov	 ecx, DWORD PTR __Al$[ebp]
  0000a	8b 55 10	 mov	 edx, DWORD PTR __Dest$[ebp]
  0000d	50		 push	 eax
  0000e	8b 45 0c	 mov	 eax, DWORD PTR __Last$[ebp]
  00011	6a 00		 push	 0
  00013	51		 push	 ecx
  00014	8b 4d 08	 mov	 ecx, DWORD PTR __First$[ebp]
  00017	52		 push	 edx
  00018	50		 push	 eax
  00019	51		 push	 ecx
  0001a	e8 00 00 00 00	 call	 ??$_Uninit_move@PAUMAP_RULE_DATA@@PAU1@V?$allocator@UMAP_RULE_DATA@@@std@@U1@@std@@YAPAUMAP_RULE_DATA@@PAU1@00AAV?$allocator@UMAP_RULE_DATA@@@0@0U_Nonscalar_ptr_iterator_tag@0@@Z ; std::_Uninit_move<MAP_RULE_DATA *,MAP_RULE_DATA *,std::allocator<MAP_RULE_DATA>,MAP_RULE_DATA>
  0001f	83 c4 18	 add	 esp, 24			; 00000018H

; 472  : 	}

  00022	8b e5		 mov	 esp, ebp
  00024	5d		 pop	 ebp
  00025	c3		 ret	 0
??$_Uninitialized_move@PAUMAP_RULE_DATA@@PAU1@V?$allocator@UMAP_RULE_DATA@@@std@@@std@@YAPAUMAP_RULE_DATA@@PAU1@00AAV?$allocator@UMAP_RULE_DATA@@@0@@Z ENDP ; std::_Uninitialized_move<MAP_RULE_DATA *,MAP_RULE_DATA *,std::allocator<MAP_RULE_DATA> >
_TEXT	ENDS
PUBLIC	?_Destroy@?$vector@UMAP_RULE_DATA@@V?$allocator@UMAP_RULE_DATA@@@std@@@std@@IAEXPAUMAP_RULE_DATA@@0@Z ; std::vector<MAP_RULE_DATA,std::allocator<MAP_RULE_DATA> >::_Destroy
; Function compile flags: /Ogtp
; File d:\program files (x86)\microsoft visual studio 10.0\vc\include\vector
;	COMDAT ?_Destroy@?$vector@UMAP_RULE_DATA@@V?$allocator@UMAP_RULE_DATA@@@std@@@std@@IAEXPAUMAP_RULE_DATA@@0@Z
_TEXT	SEGMENT
__First$ = 8						; size = 4
__Last$ = 12						; size = 4
?_Destroy@?$vector@UMAP_RULE_DATA@@V?$allocator@UMAP_RULE_DATA@@@std@@@std@@IAEXPAUMAP_RULE_DATA@@0@Z PROC ; std::vector<MAP_RULE_DATA,std::allocator<MAP_RULE_DATA> >::_Destroy, COMDAT
; _this$ = ecx

; 1270 : 		_Destroy_range(_First, _Last, this->_Alval);
; 1271 : 		}

  00000	c2 08 00	 ret	 8
?_Destroy@?$vector@UMAP_RULE_DATA@@V?$allocator@UMAP_RULE_DATA@@@std@@@std@@IAEXPAUMAP_RULE_DATA@@0@Z ENDP ; std::vector<MAP_RULE_DATA,std::allocator<MAP_RULE_DATA> >::_Destroy
_TEXT	ENDS
PUBLIC	??$_Umove@PAUMAP_RULE_DATA@@@?$vector@UMAP_RULE_DATA@@V?$allocator@UMAP_RULE_DATA@@@std@@@std@@IAEPAUMAP_RULE_DATA@@PAU2@00@Z ; std::vector<MAP_RULE_DATA,std::allocator<MAP_RULE_DATA> >::_Umove<MAP_RULE_DATA *>
; Function compile flags: /Ogtp
;	COMDAT ??$_Umove@PAUMAP_RULE_DATA@@@?$vector@UMAP_RULE_DATA@@V?$allocator@UMAP_RULE_DATA@@@std@@@std@@IAEPAUMAP_RULE_DATA@@PAU2@00@Z
_TEXT	SEGMENT
__First$ = 8						; size = 4
__Last$ = 12						; size = 4
__Cat$204324 = 16					; size = 1
__Ptr$ = 16						; size = 4
??$_Umove@PAUMAP_RULE_DATA@@@?$vector@UMAP_RULE_DATA@@V?$allocator@UMAP_RULE_DATA@@@std@@@std@@IAEPAUMAP_RULE_DATA@@PAU2@00@Z PROC ; std::vector<MAP_RULE_DATA,std::allocator<MAP_RULE_DATA> >::_Umove<MAP_RULE_DATA *>, COMDAT
; _this$ = ecx

; 1322 : 		pointer _Umove(_Iter _First, _Iter _Last, pointer _Ptr)

  00000	55		 push	 ebp
  00001	8b ec		 mov	 ebp, esp

; 1323 : 		{	// move initializing [_First, _Last), using allocator
; 1324 : 		return (_Uninitialized_move(_First, _Last,
; 1325 : 			_Ptr, this->_Alval));

  00003	8b 45 10	 mov	 eax, DWORD PTR __Cat$204324[ebp]
  00006	8b 55 0c	 mov	 edx, DWORD PTR __Last$[ebp]
  00009	50		 push	 eax
  0000a	8b 45 08	 mov	 eax, DWORD PTR __First$[ebp]
  0000d	6a 00		 push	 0
  0000f	83 c1 0c	 add	 ecx, 12			; 0000000cH
  00012	51		 push	 ecx
  00013	8b 4d 10	 mov	 ecx, DWORD PTR __Ptr$[ebp]
  00016	51		 push	 ecx
  00017	52		 push	 edx
  00018	50		 push	 eax
  00019	e8 00 00 00 00	 call	 ??$_Uninit_move@PAUMAP_RULE_DATA@@PAU1@V?$allocator@UMAP_RULE_DATA@@@std@@U1@@std@@YAPAUMAP_RULE_DATA@@PAU1@00AAV?$allocator@UMAP_RULE_DATA@@@0@0U_Nonscalar_ptr_iterator_tag@0@@Z ; std::_Uninit_move<MAP_RULE_DATA *,MAP_RULE_DATA *,std::allocator<MAP_RULE_DATA>,MAP_RULE_DATA>
  0001e	83 c4 18	 add	 esp, 24			; 00000018H

; 1326 : 		}

  00021	5d		 pop	 ebp
  00022	c2 0c 00	 ret	 12			; 0000000cH
??$_Umove@PAUMAP_RULE_DATA@@@?$vector@UMAP_RULE_DATA@@V?$allocator@UMAP_RULE_DATA@@@std@@@std@@IAEPAUMAP_RULE_DATA@@PAU2@00@Z ENDP ; std::vector<MAP_RULE_DATA,std::allocator<MAP_RULE_DATA> >::_Umove<MAP_RULE_DATA *>
_TEXT	ENDS
PUBLIC	?erase@?$vector@UMAP_RULE_DATA@@V?$allocator@UMAP_RULE_DATA@@@std@@@std@@QAE?AV?$_Vector_iterator@V?$_Vector_val@UMAP_RULE_DATA@@V?$allocator@UMAP_RULE_DATA@@@std@@@std@@@2@V?$_Vector_const_iterator@V?$_Vector_val@UMAP_RULE_DATA@@V?$allocator@UMAP_RULE_DATA@@@std@@@std@@@2@0@Z ; std::vector<MAP_RULE_DATA,std::allocator<MAP_RULE_DATA> >::erase
; Function compile flags: /Ogtp
;	COMDAT ?erase@?$vector@UMAP_RULE_DATA@@V?$allocator@UMAP_RULE_DATA@@@std@@@std@@QAE?AV?$_Vector_iterator@V?$_Vector_val@UMAP_RULE_DATA@@V?$allocator@UMAP_RULE_DATA@@@std@@@std@@@2@V?$_Vector_const_iterator@V?$_Vector_val@UMAP_RULE_DATA@@V?$allocator@UMAP_RULE_DATA@@@std@@@std@@@2@0@Z
_TEXT	SEGMENT
___$ReturnUdt$ = 8					; size = 4
__First_arg$ = 12					; size = 4
__Last_arg$ = 16					; size = 4
?erase@?$vector@UMAP_RULE_DATA@@V?$allocator@UMAP_RULE_DATA@@@std@@@std@@QAE?AV?$_Vector_iterator@V?$_Vector_val@UMAP_RULE_DATA@@V?$allocator@UMAP_RULE_DATA@@@std@@@std@@@2@V?$_Vector_const_iterator@V?$_Vector_val@UMAP_RULE_DATA@@V?$allocator@UMAP_RULE_DATA@@@std@@@std@@@2@0@Z PROC ; std::vector<MAP_RULE_DATA,std::allocator<MAP_RULE_DATA> >::erase, COMDAT
; _this$ = ecx

; 1190 : 		{	// erase [_First, _Last)

  00000	55		 push	 ebp
  00001	8b ec		 mov	 ebp, esp

; 1191 : 		iterator _First = _Make_iter(_First_arg);

  00003	8b 45 0c	 mov	 eax, DWORD PTR __First_arg$[ebp]
  00006	56		 push	 esi
  00007	8b f1		 mov	 esi, ecx

; 1192 : 		iterator _Last = _Make_iter(_Last_arg);
; 1193 : 
; 1194 : 		if (_First != _Last)

  00009	8b 4d 10	 mov	 ecx, DWORD PTR __Last_arg$[ebp]
  0000c	57		 push	 edi
  0000d	8b 7d 08	 mov	 edi, DWORD PTR ___$ReturnUdt$[ebp]
  00010	89 07		 mov	 DWORD PTR [edi], eax
  00012	3b c1		 cmp	 eax, ecx
  00014	74 11		 je	 SHORT $LN26@erase

; 1195 : 			{	// worth doing, copy down over hole
; 1196 :  #if _ITERATOR_DEBUG_LEVEL == 2
; 1197 : 			if (_Last < _First || _VICONT(_First) != this
; 1198 : 				|| _VIPTR(_First) < this->_Myfirst
; 1199 : 				|| this->_Mylast < _VIPTR(_Last))
; 1200 : 				_DEBUG_ERROR("vector erase iterator outside range");
; 1201 : 			pointer _Ptr = _Move(_VIPTR(_Last), this->_Mylast,
; 1202 : 				_VIPTR(_First));
; 1203 : 			_Orphan_range(_VIPTR(_First), this->_Mylast);
; 1204 : 
; 1205 :  #else /* _ITERATOR_DEBUG_LEVEL == 2 */
; 1206 : 			pointer _Ptr = _Move(_VIPTR(_Last), this->_Mylast,
; 1207 : 				_VIPTR(_First));

  00016	50		 push	 eax
  00017	8b 46 04	 mov	 eax, DWORD PTR [esi+4]
  0001a	50		 push	 eax
  0001b	51		 push	 ecx
  0001c	e8 00 00 00 00	 call	 ??$_Move@PAUMAP_RULE_DATA@@PAU1@@std@@YAPAUMAP_RULE_DATA@@PAU1@00@Z ; std::_Move<MAP_RULE_DATA *,MAP_RULE_DATA *>
  00021	83 c4 0c	 add	 esp, 12			; 0000000cH

; 1208 :  #endif /* _ITERATOR_DEBUG_LEVEL == 2 */
; 1209 : 
; 1210 : 			_Destroy(_Ptr, this->_Mylast);
; 1211 : 			this->_Mylast = _Ptr;

  00024	89 46 04	 mov	 DWORD PTR [esi+4], eax
$LN26@erase:

; 1212 : 			}
; 1213 : 		return (_First);

  00027	8b c7		 mov	 eax, edi
  00029	5f		 pop	 edi
  0002a	5e		 pop	 esi

; 1214 : 		}

  0002b	5d		 pop	 ebp
  0002c	c2 0c 00	 ret	 12			; 0000000cH
?erase@?$vector@UMAP_RULE_DATA@@V?$allocator@UMAP_RULE_DATA@@@std@@@std@@QAE?AV?$_Vector_iterator@V?$_Vector_val@UMAP_RULE_DATA@@V?$allocator@UMAP_RULE_DATA@@@std@@@std@@@2@V?$_Vector_const_iterator@V?$_Vector_val@UMAP_RULE_DATA@@V?$allocator@UMAP_RULE_DATA@@@std@@@std@@@2@0@Z ENDP ; std::vector<MAP_RULE_DATA,std::allocator<MAP_RULE_DATA> >::erase
_TEXT	ENDS
PUBLIC	?_Tidy@?$vector@UMAP_RULE_DATA@@V?$allocator@UMAP_RULE_DATA@@@std@@@std@@IAEXXZ ; std::vector<MAP_RULE_DATA,std::allocator<MAP_RULE_DATA> >::_Tidy
; Function compile flags: /Ogtp
;	COMDAT ?_Tidy@?$vector@UMAP_RULE_DATA@@V?$allocator@UMAP_RULE_DATA@@@std@@@std@@IAEXXZ
_TEXT	SEGMENT
?_Tidy@?$vector@UMAP_RULE_DATA@@V?$allocator@UMAP_RULE_DATA@@@std@@@std@@IAEXXZ PROC ; std::vector<MAP_RULE_DATA,std::allocator<MAP_RULE_DATA> >::_Tidy, COMDAT
; _this$ = ecx

; 1301 : 		{	// free all storage

  00000	56		 push	 esi
  00001	8b f1		 mov	 esi, ecx

; 1302 : 		if (this->_Myfirst != 0)

  00003	8b 06		 mov	 eax, DWORD PTR [esi]
  00005	85 c0		 test	 eax, eax
  00007	74 09		 je	 SHORT $LN6@Tidy

; 1303 : 			{	// something to free, destroy and deallocate it
; 1304 : 			this->_Orphan_all();
; 1305 : 			_Destroy(this->_Myfirst, this->_Mylast);
; 1306 : 			this->_Alval.deallocate(this->_Myfirst,
; 1307 : 				this->_Myend - this->_Myfirst);

  00009	50		 push	 eax
  0000a	e8 00 00 00 00	 call	 ??3@YAXPAX@Z		; operator delete
  0000f	83 c4 04	 add	 esp, 4
$LN6@Tidy:

; 1308 : 			}
; 1309 : 		this->_Myfirst = 0;

  00012	c7 06 00 00 00
	00		 mov	 DWORD PTR [esi], 0

; 1310 : 		this->_Mylast = 0;

  00018	c7 46 04 00 00
	00 00		 mov	 DWORD PTR [esi+4], 0

; 1311 : 		this->_Myend = 0;

  0001f	c7 46 08 00 00
	00 00		 mov	 DWORD PTR [esi+8], 0
  00026	5e		 pop	 esi

; 1312 : 		}

  00027	c3		 ret	 0
?_Tidy@?$vector@UMAP_RULE_DATA@@V?$allocator@UMAP_RULE_DATA@@@std@@@std@@IAEXXZ ENDP ; std::vector<MAP_RULE_DATA,std::allocator<MAP_RULE_DATA> >::_Tidy
_TEXT	ENDS
PUBLIC	?reserve@?$vector@UMAP_RULE_DATA@@V?$allocator@UMAP_RULE_DATA@@@std@@@std@@QAEXI@Z ; std::vector<MAP_RULE_DATA,std::allocator<MAP_RULE_DATA> >::reserve
EXTRN	___security_cookie:DWORD
EXTRN	___CxxFrameHandler3:PROC
EXTRN	@__security_check_cookie@4:PROC
;	COMDAT xdata$x
; File d:\program files (x86)\microsoft visual studio 10.0\vc\include\xutility
xdata$x	SEGMENT
__catchsym$?reserve@?$vector@UMAP_RULE_DATA@@V?$allocator@UMAP_RULE_DATA@@@std@@@std@@QAEXI@Z$2 DD 040H
	DD	00H
	DD	00H
	DD	FLAT:__catch$?reserve@?$vector@UMAP_RULE_DATA@@V?$allocator@UMAP_RULE_DATA@@@std@@@std@@QAEXI@Z$0
__unwindtable$?reserve@?$vector@UMAP_RULE_DATA@@V?$allocator@UMAP_RULE_DATA@@@std@@@std@@QAEXI@Z DD 0ffffffffH
	DD	00H
	DD	0ffffffffH
	DD	00H
__tryblocktable$?reserve@?$vector@UMAP_RULE_DATA@@V?$allocator@UMAP_RULE_DATA@@@std@@@std@@QAEXI@Z DD 00H
	DD	00H
	DD	01H
	DD	01H
	DD	FLAT:__catchsym$?reserve@?$vector@UMAP_RULE_DATA@@V?$allocator@UMAP_RULE_DATA@@@std@@@std@@QAEXI@Z$2
__ehfuncinfo$?reserve@?$vector@UMAP_RULE_DATA@@V?$allocator@UMAP_RULE_DATA@@@std@@@std@@QAEXI@Z DD 019930522H
	DD	02H
	DD	FLAT:__unwindtable$?reserve@?$vector@UMAP_RULE_DATA@@V?$allocator@UMAP_RULE_DATA@@@std@@@std@@QAEXI@Z
	DD	01H
	DD	FLAT:__tryblocktable$?reserve@?$vector@UMAP_RULE_DATA@@V?$allocator@UMAP_RULE_DATA@@@std@@@std@@QAEXI@Z
	DD	2 DUP(00H)
	DD	00H
	DD	01H
; Function compile flags: /Ogtp
; File d:\program files (x86)\microsoft visual studio 10.0\vc\include\vector
xdata$x	ENDS
;	COMDAT ?reserve@?$vector@UMAP_RULE_DATA@@V?$allocator@UMAP_RULE_DATA@@@std@@@std@@QAEXI@Z
_TEXT	SEGMENT
__Ptr$203066 = -20					; size = 4
__$EHRec$ = -16						; size = 16
__Cat$204458 = 8					; size = 1
__Count$ = 8						; size = 4
?reserve@?$vector@UMAP_RULE_DATA@@V?$allocator@UMAP_RULE_DATA@@@std@@@std@@QAEXI@Z PROC ; std::vector<MAP_RULE_DATA,std::allocator<MAP_RULE_DATA> >::reserve, COMDAT
; _this$ = ecx

; 746  : 		{	// determine new minimum length of allocated storage

  00000	55		 push	 ebp
  00001	8b ec		 mov	 ebp, esp
  00003	6a ff		 push	 -1
  00005	68 00 00 00 00	 push	 __ehhandler$?reserve@?$vector@UMAP_RULE_DATA@@V?$allocator@UMAP_RULE_DATA@@@std@@@std@@QAEXI@Z
  0000a	64 a1 00 00 00
	00		 mov	 eax, DWORD PTR fs:0
  00010	50		 push	 eax
  00011	83 ec 08	 sub	 esp, 8
  00014	53		 push	 ebx
  00015	56		 push	 esi
  00016	57		 push	 edi
  00017	a1 00 00 00 00	 mov	 eax, DWORD PTR ___security_cookie
  0001c	33 c5		 xor	 eax, ebp
  0001e	50		 push	 eax
  0001f	8d 45 f4	 lea	 eax, DWORD PTR __$EHRec$[ebp+4]
  00022	64 a3 00 00 00
	00		 mov	 DWORD PTR fs:0, eax
  00028	89 65 f0	 mov	 DWORD PTR __$EHRec$[ebp], esp
  0002b	8b f1		 mov	 esi, ecx

; 747  : 		if (max_size() < _Count)

  0002d	8b 5d 08	 mov	 ebx, DWORD PTR __Count$[ebp]
  00030	81 fb cc cc cc
	0c		 cmp	 ebx, 214748364		; 0cccccccH
  00036	76 0a		 jbe	 SHORT $LN5@reserve

; 748  : 			_Xlen();	// result too long

  00038	68 00 00 00 00	 push	 OFFSET ??_C@_0BD@OLBABOEK@vector?$DMT?$DO?5too?5long?$AA@
  0003d	e8 00 00 00 00	 call	 ?_Xlength_error@std@@YAXPBD@Z ; std::_Xlength_error
$LN42@reserve:
$LN5@reserve:

; 749  : 		else if (capacity() < _Count)

  00042	8b 4e 08	 mov	 ecx, DWORD PTR [esi+8]
  00045	2b 0e		 sub	 ecx, DWORD PTR [esi]
  00047	b8 67 66 66 66	 mov	 eax, 1717986919		; 66666667H
  0004c	f7 e9		 imul	 ecx
  0004e	c1 fa 03	 sar	 edx, 3
  00051	8b c2		 mov	 eax, edx
  00053	c1 e8 1f	 shr	 eax, 31			; 0000001fH
  00056	03 c2		 add	 eax, edx
  00058	3b c3		 cmp	 eax, ebx
  0005a	73 6b		 jae	 SHORT $LN3@reserve

; 750  : 			{	// not enough room, reallocate
; 751  : 			pointer _Ptr = this->_Alval.allocate(_Count);

  0005c	8d 7e 0c	 lea	 edi, DWORD PTR [esi+12]
  0005f	53		 push	 ebx
  00060	8b cf		 mov	 ecx, edi
  00062	e8 00 00 00 00	 call	 ?allocate@?$allocator@UMAP_RULE_DATA@@@std@@QAEPAUMAP_RULE_DATA@@I@Z ; std::allocator<MAP_RULE_DATA>::allocate

; 752  : 
; 753  : 			_TRY_BEGIN
; 754  : 			_Umove(this->_Myfirst, this->_Mylast, _Ptr);

  00067	8b 5d 08	 mov	 ebx, DWORD PTR __Cat$204458[ebp]
  0006a	8b 4e 04	 mov	 ecx, DWORD PTR [esi+4]
  0006d	8b 16		 mov	 edx, DWORD PTR [esi]
  0006f	53		 push	 ebx
  00070	6a 00		 push	 0
  00072	57		 push	 edi
  00073	50		 push	 eax
  00074	51		 push	 ecx
  00075	52		 push	 edx
  00076	89 45 ec	 mov	 DWORD PTR __Ptr$203066[ebp], eax
  00079	c7 45 fc 00 00
	00 00		 mov	 DWORD PTR __$EHRec$[ebp+12], 0
  00080	e8 00 00 00 00	 call	 ??$_Uninit_move@PAUMAP_RULE_DATA@@PAU1@V?$allocator@UMAP_RULE_DATA@@@std@@U1@@std@@YAPAUMAP_RULE_DATA@@PAU1@00AAV?$allocator@UMAP_RULE_DATA@@@0@0U_Nonscalar_ptr_iterator_tag@0@@Z ; std::_Uninit_move<MAP_RULE_DATA *,MAP_RULE_DATA *,std::allocator<MAP_RULE_DATA>,MAP_RULE_DATA>

; 758  : 			_CATCH_END
; 759  : 
; 760  : 			size_type _Size = size();

  00085	8b 1e		 mov	 ebx, DWORD PTR [esi]
  00087	8b 4e 04	 mov	 ecx, DWORD PTR [esi+4]
  0008a	2b cb		 sub	 ecx, ebx
  0008c	b8 67 66 66 66	 mov	 eax, 1717986919		; 66666667H
  00091	f7 e9		 imul	 ecx
  00093	c1 fa 03	 sar	 edx, 3
  00096	8b fa		 mov	 edi, edx
  00098	c1 ef 1f	 shr	 edi, 31			; 0000001fH
  0009b	83 c4 18	 add	 esp, 24			; 00000018H
  0009e	03 fa		 add	 edi, edx

; 761  : 			if (this->_Myfirst != 0)

  000a0	85 db		 test	 ebx, ebx
  000a2	74 09		 je	 SHORT $LN35@reserve

; 762  : 				{	// destroy and deallocate old array
; 763  : 				_Destroy(this->_Myfirst, this->_Mylast);
; 764  : 				this->_Alval.deallocate(this->_Myfirst,
; 765  : 					this->_Myend - this->_Myfirst);

  000a4	53		 push	 ebx
  000a5	e8 00 00 00 00	 call	 ??3@YAXPAX@Z		; operator delete
  000aa	83 c4 04	 add	 esp, 4
$LN35@reserve:

; 766  : 				}
; 767  : 
; 768  : 			this->_Orphan_all();
; 769  : 			this->_Myend = _Ptr + _Count;

  000ad	8b 45 08	 mov	 eax, DWORD PTR __Count$[ebp]
  000b0	8d 0c 80	 lea	 ecx, DWORD PTR [eax+eax*4]
  000b3	8b 45 ec	 mov	 eax, DWORD PTR __Ptr$203066[ebp]
  000b6	8d 14 88	 lea	 edx, DWORD PTR [eax+ecx*4]

; 770  : 			this->_Mylast = _Ptr + _Size;

  000b9	8d 0c bf	 lea	 ecx, DWORD PTR [edi+edi*4]
  000bc	89 56 08	 mov	 DWORD PTR [esi+8], edx
  000bf	8d 14 88	 lea	 edx, DWORD PTR [eax+ecx*4]
  000c2	89 56 04	 mov	 DWORD PTR [esi+4], edx

; 771  : 			this->_Myfirst = _Ptr;

  000c5	89 06		 mov	 DWORD PTR [esi], eax
$LN3@reserve:

; 772  : 			}
; 773  : 		}

  000c7	8b 4d f4	 mov	 ecx, DWORD PTR __$EHRec$[ebp+4]
  000ca	64 89 0d 00 00
	00 00		 mov	 DWORD PTR fs:0, ecx
  000d1	59		 pop	 ecx
  000d2	5f		 pop	 edi
  000d3	5e		 pop	 esi
  000d4	5b		 pop	 ebx
  000d5	8b e5		 mov	 esp, ebp
  000d7	5d		 pop	 ebp
  000d8	c2 04 00	 ret	 4
__catch$?reserve@?$vector@UMAP_RULE_DATA@@V?$allocator@UMAP_RULE_DATA@@@std@@@std@@QAEXI@Z$0:

; 755  : 			_CATCH_ALL
; 756  : 			this->_Alval.deallocate(_Ptr, _Count);

  000db	8b 45 ec	 mov	 eax, DWORD PTR __Ptr$203066[ebp]
  000de	50		 push	 eax
  000df	e8 00 00 00 00	 call	 ??3@YAXPAX@Z		; operator delete
  000e4	83 c4 04	 add	 esp, 4

; 757  : 			_RERAISE;

  000e7	6a 00		 push	 0
  000e9	6a 00		 push	 0
  000eb	e8 00 00 00 00	 call	 __CxxThrowException@8
$LN43@reserve:
$LN41@reserve:
  000f0	cc		 int	 3
_TEXT	ENDS
;	COMDAT text$x
text$x	SEGMENT
__ehhandler$?reserve@?$vector@UMAP_RULE_DATA@@V?$allocator@UMAP_RULE_DATA@@@std@@@std@@QAEXI@Z:
  00000	8b 54 24 08	 mov	 edx, DWORD PTR [esp+8]
  00004	8d 42 0c	 lea	 eax, DWORD PTR [edx+12]
  00007	8b 4a e8	 mov	 ecx, DWORD PTR [edx-24]
  0000a	33 c8		 xor	 ecx, eax
  0000c	e8 00 00 00 00	 call	 @__security_check_cookie@4
  00011	b8 00 00 00 00	 mov	 eax, OFFSET __ehfuncinfo$?reserve@?$vector@UMAP_RULE_DATA@@V?$allocator@UMAP_RULE_DATA@@@std@@@std@@QAEXI@Z
  00016	e9 00 00 00 00	 jmp	 ___CxxFrameHandler3
text$x	ENDS
?reserve@?$vector@UMAP_RULE_DATA@@V?$allocator@UMAP_RULE_DATA@@@std@@@std@@QAEXI@Z ENDP ; std::vector<MAP_RULE_DATA,std::allocator<MAP_RULE_DATA> >::reserve
PUBLIC	??1?$vector@UMAP_RULE_DATA@@V?$allocator@UMAP_RULE_DATA@@@std@@@std@@QAE@XZ ; std::vector<MAP_RULE_DATA,std::allocator<MAP_RULE_DATA> >::~vector<MAP_RULE_DATA,std::allocator<MAP_RULE_DATA> >
; Function compile flags: /Ogtp
;	COMDAT ??1?$vector@UMAP_RULE_DATA@@V?$allocator@UMAP_RULE_DATA@@@std@@@std@@QAE@XZ
_TEXT	SEGMENT
??1?$vector@UMAP_RULE_DATA@@V?$allocator@UMAP_RULE_DATA@@@std@@@std@@QAE@XZ PROC ; std::vector<MAP_RULE_DATA,std::allocator<MAP_RULE_DATA> >::~vector<MAP_RULE_DATA,std::allocator<MAP_RULE_DATA> >, COMDAT
; _this$ = ecx

; 704  : 		{	// destroy the object

  00000	56		 push	 esi
  00001	8b f1		 mov	 esi, ecx

; 705  : 		_Tidy();

  00003	8b 06		 mov	 eax, DWORD PTR [esi]
  00005	85 c0		 test	 eax, eax
  00007	74 09		 je	 SHORT $LN8@vector@2
  00009	50		 push	 eax
  0000a	e8 00 00 00 00	 call	 ??3@YAXPAX@Z		; operator delete
  0000f	83 c4 04	 add	 esp, 4
$LN8@vector@2:
  00012	c7 06 00 00 00
	00		 mov	 DWORD PTR [esi], 0
  00018	c7 46 04 00 00
	00 00		 mov	 DWORD PTR [esi+4], 0
  0001f	c7 46 08 00 00
	00 00		 mov	 DWORD PTR [esi+8], 0
  00026	5e		 pop	 esi

; 706  : 		}

  00027	c3		 ret	 0
??1?$vector@UMAP_RULE_DATA@@V?$allocator@UMAP_RULE_DATA@@@std@@@std@@QAE@XZ ENDP ; std::vector<MAP_RULE_DATA,std::allocator<MAP_RULE_DATA> >::~vector<MAP_RULE_DATA,std::allocator<MAP_RULE_DATA> >
_TEXT	ENDS
PUBLIC	?clear@?$vector@UMAP_RULE_DATA@@V?$allocator@UMAP_RULE_DATA@@@std@@@std@@QAEXXZ ; std::vector<MAP_RULE_DATA,std::allocator<MAP_RULE_DATA> >::clear
; Function compile flags: /Ogtp
;	COMDAT ?clear@?$vector@UMAP_RULE_DATA@@V?$allocator@UMAP_RULE_DATA@@@std@@@std@@QAEXXZ
_TEXT	SEGMENT
?clear@?$vector@UMAP_RULE_DATA@@V?$allocator@UMAP_RULE_DATA@@@std@@@std@@QAEXXZ PROC ; std::vector<MAP_RULE_DATA,std::allocator<MAP_RULE_DATA> >::clear, COMDAT
; _this$ = ecx

; 1217 : 		{	// erase all

  00000	56		 push	 esi
  00001	8b f1		 mov	 esi, ecx

; 1218 : 		erase(begin(), end());

  00003	8b 46 04	 mov	 eax, DWORD PTR [esi+4]
  00006	8b 0e		 mov	 ecx, DWORD PTR [esi]
  00008	3b c8		 cmp	 ecx, eax
  0000a	74 0e		 je	 SHORT $LN19@clear
  0000c	51		 push	 ecx
  0000d	50		 push	 eax
  0000e	50		 push	 eax
  0000f	e8 00 00 00 00	 call	 ??$_Move@PAUMAP_RULE_DATA@@PAU1@@std@@YAPAUMAP_RULE_DATA@@PAU1@00@Z ; std::_Move<MAP_RULE_DATA *,MAP_RULE_DATA *>
  00014	83 c4 0c	 add	 esp, 12			; 0000000cH
  00017	89 46 04	 mov	 DWORD PTR [esi+4], eax
$LN19@clear:
  0001a	5e		 pop	 esi

; 1219 : 		}

  0001b	c3		 ret	 0
?clear@?$vector@UMAP_RULE_DATA@@V?$allocator@UMAP_RULE_DATA@@@std@@@std@@QAEXXZ ENDP ; std::vector<MAP_RULE_DATA,std::allocator<MAP_RULE_DATA> >::clear
_TEXT	ENDS
PUBLIC	?_Reserve@?$vector@UMAP_RULE_DATA@@V?$allocator@UMAP_RULE_DATA@@@std@@@std@@IAEXI@Z ; std::vector<MAP_RULE_DATA,std::allocator<MAP_RULE_DATA> >::_Reserve
; Function compile flags: /Ogtp
;	COMDAT ?_Reserve@?$vector@UMAP_RULE_DATA@@V?$allocator@UMAP_RULE_DATA@@@std@@@std@@IAEXI@Z
_TEXT	SEGMENT
__Count$ = 8						; size = 4
?_Reserve@?$vector@UMAP_RULE_DATA@@V?$allocator@UMAP_RULE_DATA@@@std@@@std@@IAEXI@Z PROC ; std::vector<MAP_RULE_DATA,std::allocator<MAP_RULE_DATA> >::_Reserve, COMDAT
; _this$ = ecx

; 1290 : 		{	// ensure room for _Count new elements, grow exponentially

  00000	55		 push	 ebp
  00001	8b ec		 mov	 ebp, esp

; 1291 : 		size_type _Size = size();

  00003	8b 51 04	 mov	 edx, DWORD PTR [ecx+4]
  00006	56		 push	 esi
  00007	57		 push	 edi
  00008	8b 39		 mov	 edi, DWORD PTR [ecx]
  0000a	2b d7		 sub	 edx, edi
  0000c	b8 67 66 66 66	 mov	 eax, 1717986919		; 66666667H
  00011	f7 ea		 imul	 edx

; 1292 : 		if (max_size() - _Count < _Size)

  00013	8b 45 08	 mov	 eax, DWORD PTR __Count$[ebp]
  00016	c1 fa 03	 sar	 edx, 3
  00019	8b f2		 mov	 esi, edx
  0001b	c1 ee 1f	 shr	 esi, 31			; 0000001fH
  0001e	03 f2		 add	 esi, edx
  00020	ba cc cc cc 0c	 mov	 edx, 214748364		; 0cccccccH
  00025	2b d0		 sub	 edx, eax
  00027	3b d6		 cmp	 edx, esi
  00029	73 0a		 jae	 SHORT $LN4@Reserve

; 1293 : 			_Xlen();

  0002b	68 00 00 00 00	 push	 OFFSET ??_C@_0BD@OLBABOEK@vector?$DMT?$DO?5too?5long?$AA@
  00030	e8 00 00 00 00	 call	 ?_Xlength_error@std@@YAXPBD@Z ; std::_Xlength_error
$LN34@Reserve:
$LN4@Reserve:

; 1294 : 		else if ((_Size += _Count) <= capacity())

  00035	8b 51 08	 mov	 edx, DWORD PTR [ecx+8]
  00038	03 f0		 add	 esi, eax
  0003a	2b d7		 sub	 edx, edi
  0003c	b8 67 66 66 66	 mov	 eax, 1717986919		; 66666667H
  00041	f7 ea		 imul	 edx
  00043	c1 fa 03	 sar	 edx, 3
  00046	8b c2		 mov	 eax, edx
  00048	c1 e8 1f	 shr	 eax, 31			; 0000001fH
  0004b	03 c2		 add	 eax, edx
  0004d	3b f0		 cmp	 esi, eax
  0004f	76 21		 jbe	 SHORT $LN1@Reserve

; 1295 : 			;
; 1296 : 		else
; 1297 : 			reserve(_Grow_to(_Size));

  00051	8b d0		 mov	 edx, eax
  00053	d1 ea		 shr	 edx, 1
  00055	bf cc cc cc 0c	 mov	 edi, 214748364		; 0cccccccH
  0005a	2b fa		 sub	 edi, edx
  0005c	3b f8		 cmp	 edi, eax
  0005e	73 04		 jae	 SHORT $LN23@Reserve
  00060	33 c0		 xor	 eax, eax
  00062	eb 02		 jmp	 SHORT $LN24@Reserve
$LN23@Reserve:
  00064	03 c2		 add	 eax, edx
$LN24@Reserve:
  00066	3b c6		 cmp	 eax, esi
  00068	73 02		 jae	 SHORT $LN20@Reserve
  0006a	8b c6		 mov	 eax, esi
$LN20@Reserve:
  0006c	50		 push	 eax
  0006d	e8 00 00 00 00	 call	 ?reserve@?$vector@UMAP_RULE_DATA@@V?$allocator@UMAP_RULE_DATA@@@std@@@std@@QAEXI@Z ; std::vector<MAP_RULE_DATA,std::allocator<MAP_RULE_DATA> >::reserve
$LN1@Reserve:
  00072	5f		 pop	 edi
  00073	5e		 pop	 esi

; 1298 : 		}

  00074	5d		 pop	 ebp
  00075	c2 04 00	 ret	 4
$LN33@Reserve:
?_Reserve@?$vector@UMAP_RULE_DATA@@V?$allocator@UMAP_RULE_DATA@@@std@@@std@@IAEXI@Z ENDP ; std::vector<MAP_RULE_DATA,std::allocator<MAP_RULE_DATA> >::_Reserve
_TEXT	ENDS
PUBLIC	??0cPvPMapSystem@@QAE@XZ			; cPvPMapSystem::cPvPMapSystem
; Function compile flags: /Ogtp
;	COMDAT ??0cPvPMapSystem@@QAE@XZ
_TEXT	SEGMENT
??0cPvPMapSystem@@QAE@XZ PROC				; cPvPMapSystem::cPvPMapSystem, COMDAT
; _this$ = ecx
  00000	8b c1		 mov	 eax, ecx
  00002	33 c9		 xor	 ecx, ecx
  00004	89 88 e4 07 00
	00		 mov	 DWORD PTR [eax+2020], ecx
  0000a	89 88 e8 07 00
	00		 mov	 DWORD PTR [eax+2024], ecx
  00010	89 88 ec 07 00
	00		 mov	 DWORD PTR [eax+2028], ecx
  00016	c3		 ret	 0
??0cPvPMapSystem@@QAE@XZ ENDP				; cPvPMapSystem::cPvPMapSystem
_TEXT	ENDS
PUBLIC	??1cPvPMapSystem@@QAE@XZ			; cPvPMapSystem::~cPvPMapSystem
; Function compile flags: /Ogtp
;	COMDAT ??1cPvPMapSystem@@QAE@XZ
_TEXT	SEGMENT
??1cPvPMapSystem@@QAE@XZ PROC				; cPvPMapSystem::~cPvPMapSystem, COMDAT
; _this$ = ecx
  00000	56		 push	 esi
  00001	8b f1		 mov	 esi, ecx
  00003	8b 86 e4 07 00
	00		 mov	 eax, DWORD PTR [esi+2020]
  00009	85 c0		 test	 eax, eax
  0000b	74 09		 je	 SHORT $LN11@cPvPMapSys
  0000d	50		 push	 eax
  0000e	e8 00 00 00 00	 call	 ??3@YAXPAX@Z		; operator delete
  00013	83 c4 04	 add	 esp, 4
$LN11@cPvPMapSys:
  00016	c7 86 e4 07 00
	00 00 00 00 00	 mov	 DWORD PTR [esi+2020], 0
  00020	c7 86 e8 07 00
	00 00 00 00 00	 mov	 DWORD PTR [esi+2024], 0
  0002a	c7 86 ec 07 00
	00 00 00 00 00	 mov	 DWORD PTR [esi+2028], 0
  00034	5e		 pop	 esi
  00035	c3		 ret	 0
??1cPvPMapSystem@@QAE@XZ ENDP				; cPvPMapSystem::~cPvPMapSystem
_TEXT	ENDS
PUBLIC	?push_back@?$vector@UMAP_RULE_DATA@@V?$allocator@UMAP_RULE_DATA@@@std@@@std@@QAEXABUMAP_RULE_DATA@@@Z ; std::vector<MAP_RULE_DATA,std::allocator<MAP_RULE_DATA> >::push_back
; Function compile flags: /Ogtp
;	COMDAT ?push_back@?$vector@UMAP_RULE_DATA@@V?$allocator@UMAP_RULE_DATA@@@std@@@std@@QAEXABUMAP_RULE_DATA@@@Z
_TEXT	SEGMENT
__Val$ = 8						; size = 4
?push_back@?$vector@UMAP_RULE_DATA@@V?$allocator@UMAP_RULE_DATA@@@std@@@std@@QAEXABUMAP_RULE_DATA@@@Z PROC ; std::vector<MAP_RULE_DATA,std::allocator<MAP_RULE_DATA> >::push_back, COMDAT
; _this$ = ecx

; 976  : 		{	// insert element at end

  00000	55		 push	 ebp
  00001	8b ec		 mov	 ebp, esp
  00003	56		 push	 esi
  00004	8b f1		 mov	 esi, ecx

; 977  : 		if (_Inside(_STD addressof(_Val)))

  00006	8b 4e 04	 mov	 ecx, DWORD PTR [esi+4]
  00009	57		 push	 edi
  0000a	8b 7d 08	 mov	 edi, DWORD PTR __Val$[ebp]
  0000d	3b f9		 cmp	 edi, ecx
  0000f	73 4a		 jae	 SHORT $LN4@push_back
  00011	8b 06		 mov	 eax, DWORD PTR [esi]
  00013	3b c7		 cmp	 eax, edi
  00015	77 44		 ja	 SHORT $LN4@push_back

; 978  : 			{	// push back an element
; 979  : 			size_type _Idx = _STD addressof(_Val) - this->_Myfirst;

  00017	2b f8		 sub	 edi, eax
  00019	b8 67 66 66 66	 mov	 eax, 1717986919		; 66666667H
  0001e	f7 ef		 imul	 edi
  00020	c1 fa 03	 sar	 edx, 3
  00023	8b fa		 mov	 edi, edx
  00025	c1 ef 1f	 shr	 edi, 31			; 0000001fH
  00028	03 fa		 add	 edi, edx

; 980  : 			if (this->_Mylast == this->_Myend)

  0002a	3b 4e 08	 cmp	 ecx, DWORD PTR [esi+8]
  0002d	75 09		 jne	 SHORT $LN3@push_back

; 981  : 				_Reserve(1);

  0002f	6a 01		 push	 1
  00031	8b ce		 mov	 ecx, esi
  00033	e8 00 00 00 00	 call	 ?_Reserve@?$vector@UMAP_RULE_DATA@@V?$allocator@UMAP_RULE_DATA@@@std@@@std@@IAEXI@Z ; std::vector<MAP_RULE_DATA,std::allocator<MAP_RULE_DATA> >::_Reserve
$LN3@push_back:

; 982  : 			_Orphan_range(this->_Mylast, this->_Mylast);
; 983  : 			_Cons_val(this->_Alval,
; 984  : 				this->_Mylast,
; 985  : 				this->_Myfirst[_Idx]);

  00038	8b 0e		 mov	 ecx, DWORD PTR [esi]
  0003a	8d 04 bf	 lea	 eax, DWORD PTR [edi+edi*4]
  0003d	8d 14 81	 lea	 edx, DWORD PTR [ecx+eax*4]
  00040	8b 46 04	 mov	 eax, DWORD PTR [esi+4]
  00043	52		 push	 edx
  00044	50		 push	 eax
  00045	8d 4e 0c	 lea	 ecx, DWORD PTR [esi+12]
  00048	51		 push	 ecx
  00049	e8 00 00 00 00	 call	 ??$_Cons_val@V?$allocator@UMAP_RULE_DATA@@@std@@UMAP_RULE_DATA@@AAU3@@std@@YAXAAV?$allocator@UMAP_RULE_DATA@@@0@PAUMAP_RULE_DATA@@AAU2@@Z ; std::_Cons_val<std::allocator<MAP_RULE_DATA>,MAP_RULE_DATA,MAP_RULE_DATA &>

; 992  : 			_Orphan_range(this->_Mylast, this->_Mylast);
; 993  : 			_Cons_val(this->_Alval,
; 994  : 				this->_Mylast,
; 995  : 				_Val);

  0004e	83 c4 0c	 add	 esp, 12			; 0000000cH

; 996  : 			++this->_Mylast;

  00051	83 46 04 14	 add	 DWORD PTR [esi+4], 20	; 00000014H
  00055	5f		 pop	 edi
  00056	5e		 pop	 esi

; 997  : 			}
; 998  : 		}

  00057	5d		 pop	 ebp
  00058	c2 04 00	 ret	 4
$LN4@push_back:

; 986  : 			++this->_Mylast;
; 987  : 			}
; 988  : 		else
; 989  : 			{	// push back a non-element
; 990  : 			if (this->_Mylast == this->_Myend)

  0005b	3b 4e 08	 cmp	 ecx, DWORD PTR [esi+8]
  0005e	75 09		 jne	 SHORT $LN1@push_back

; 991  : 				_Reserve(1);

  00060	6a 01		 push	 1
  00062	8b ce		 mov	 ecx, esi
  00064	e8 00 00 00 00	 call	 ?_Reserve@?$vector@UMAP_RULE_DATA@@V?$allocator@UMAP_RULE_DATA@@@std@@@std@@IAEXI@Z ; std::vector<MAP_RULE_DATA,std::allocator<MAP_RULE_DATA> >::_Reserve
$LN1@push_back:

; 992  : 			_Orphan_range(this->_Mylast, this->_Mylast);
; 993  : 			_Cons_val(this->_Alval,
; 994  : 				this->_Mylast,
; 995  : 				_Val);

  00069	8b 56 04	 mov	 edx, DWORD PTR [esi+4]
  0006c	57		 push	 edi
  0006d	52		 push	 edx
  0006e	8d 46 0c	 lea	 eax, DWORD PTR [esi+12]
  00071	50		 push	 eax
  00072	e8 00 00 00 00	 call	 ??$_Cons_val@V?$allocator@UMAP_RULE_DATA@@@std@@UMAP_RULE_DATA@@ABU3@@std@@YAXAAV?$allocator@UMAP_RULE_DATA@@@0@PAUMAP_RULE_DATA@@ABU2@@Z ; std::_Cons_val<std::allocator<MAP_RULE_DATA>,MAP_RULE_DATA,MAP_RULE_DATA const &>
  00077	83 c4 0c	 add	 esp, 12			; 0000000cH

; 996  : 			++this->_Mylast;

  0007a	83 46 04 14	 add	 DWORD PTR [esi+4], 20	; 00000014H
  0007e	5f		 pop	 edi
  0007f	5e		 pop	 esi

; 997  : 			}
; 998  : 		}

  00080	5d		 pop	 ebp
  00081	c2 04 00	 ret	 4
?push_back@?$vector@UMAP_RULE_DATA@@V?$allocator@UMAP_RULE_DATA@@@std@@@std@@QAEXABUMAP_RULE_DATA@@@Z ENDP ; std::vector<MAP_RULE_DATA,std::allocator<MAP_RULE_DATA> >::push_back
_TEXT	ENDS
PUBLIC	??_C@_0P@GNCPONOH@?$CFd?5?$CFd?5?$CFd?5?$CFd?5?$CFd?$AA@ ; `string'
PUBLIC	??_C@_0BC@HDIJPDCG@?$CFd?5?$CFd?5?$CFd?5?$CFd?5?$CFd?5?$CFd?$AA@ ; `string'
PUBLIC	??_C@_0BA@PIOFNAIM@LOAD?5FILE?5ERROR?$AA@	; `string'
PUBLIC	??_C@_01KDCPPGHE@r?$AA@				; `string'
PUBLIC	??_C@_0L@DPINDAGE@LoraRingY2?$AA@		; `string'
PUBLIC	??_C@_0L@DOEPFKFD@LoraRingX2?$AA@		; `string'
PUBLIC	??_C@_0L@BEKAGDKH@LoraRingY1?$AA@		; `string'
PUBLIC	??_C@_0L@BFGCAJJA@LoraRingX1?$AA@		; `string'
PUBLIC	??_C@_0P@JCALJFB@EnableLoraRing?$AA@		; `string'
PUBLIC	??_C@_06POMJKEPM@Common?$AA@			; `string'
PUBLIC	??_C@_0N@DOLHPFKI@EnablePvPMap?$AA@		; `string'
PUBLIC	??_C@_0BN@FIOMFOPK@?4?4?2Data?2ZtData?2PvPSystem?4ini?$AA@ ; `string'
PUBLIC	__$ArrayPad$
PUBLIC	?LoadConfig@cPvPMapSystem@@QAEXXZ		; cPvPMapSystem::LoadConfig
EXTRN	_fclose:PROC
EXTRN	_sscanf:PROC
EXTRN	?Zt_IsBadFileLine@@YA_NPADAAH@Z:PROC		; Zt_IsBadFileLine
EXTRN	_fgets:PROC
EXTRN	_feof:PROC
EXTRN	__imp__MessageBoxA@16:PROC
EXTRN	_fopen:PROC
EXTRN	__imp__GetPrivateProfileIntA@16:PROC
;	COMDAT ??_C@_0P@GNCPONOH@?$CFd?5?$CFd?5?$CFd?5?$CFd?5?$CFd?$AA@
; File d:\program files (x86)\microsoft visual studio 10.0\vc\include\utility
CONST	SEGMENT
??_C@_0P@GNCPONOH@?$CFd?5?$CFd?5?$CFd?5?$CFd?5?$CFd?$AA@ DB '%d %d %d %d '
	DB	'%d', 00H					; `string'
CONST	ENDS
;	COMDAT ??_C@_0BC@HDIJPDCG@?$CFd?5?$CFd?5?$CFd?5?$CFd?5?$CFd?5?$CFd?$AA@
CONST	SEGMENT
??_C@_0BC@HDIJPDCG@?$CFd?5?$CFd?5?$CFd?5?$CFd?5?$CFd?5?$CFd?$AA@ DB '%d %'
	DB	'd %d %d %d %d', 00H				; `string'
CONST	ENDS
;	COMDAT ??_C@_0BA@PIOFNAIM@LOAD?5FILE?5ERROR?$AA@
CONST	SEGMENT
??_C@_0BA@PIOFNAIM@LOAD?5FILE?5ERROR?$AA@ DB 'LOAD FILE ERROR', 00H ; `string'
CONST	ENDS
;	COMDAT ??_C@_01KDCPPGHE@r?$AA@
CONST	SEGMENT
??_C@_01KDCPPGHE@r?$AA@ DB 'r', 00H			; `string'
CONST	ENDS
;	COMDAT ??_C@_0L@DPINDAGE@LoraRingY2?$AA@
CONST	SEGMENT
??_C@_0L@DPINDAGE@LoraRingY2?$AA@ DB 'LoraRingY2', 00H	; `string'
CONST	ENDS
;	COMDAT ??_C@_0L@DOEPFKFD@LoraRingX2?$AA@
CONST	SEGMENT
??_C@_0L@DOEPFKFD@LoraRingX2?$AA@ DB 'LoraRingX2', 00H	; `string'
CONST	ENDS
;	COMDAT ??_C@_0L@BEKAGDKH@LoraRingY1?$AA@
CONST	SEGMENT
??_C@_0L@BEKAGDKH@LoraRingY1?$AA@ DB 'LoraRingY1', 00H	; `string'
CONST	ENDS
;	COMDAT ??_C@_0L@BFGCAJJA@LoraRingX1?$AA@
CONST	SEGMENT
??_C@_0L@BFGCAJJA@LoraRingX1?$AA@ DB 'LoraRingX1', 00H	; `string'
CONST	ENDS
;	COMDAT ??_C@_0P@JCALJFB@EnableLoraRing?$AA@
CONST	SEGMENT
??_C@_0P@JCALJFB@EnableLoraRing?$AA@ DB 'EnableLoraRing', 00H ; `string'
CONST	ENDS
;	COMDAT ??_C@_06POMJKEPM@Common?$AA@
CONST	SEGMENT
??_C@_06POMJKEPM@Common?$AA@ DB 'Common', 00H		; `string'
CONST	ENDS
;	COMDAT ??_C@_0N@DOLHPFKI@EnablePvPMap?$AA@
CONST	SEGMENT
??_C@_0N@DOLHPFKI@EnablePvPMap?$AA@ DB 'EnablePvPMap', 00H ; `string'
CONST	ENDS
;	COMDAT ??_C@_0BN@FIOMFOPK@?4?4?2Data?2ZtData?2PvPSystem?4ini?$AA@
CONST	SEGMENT
??_C@_0BN@FIOMFOPK@?4?4?2Data?2ZtData?2PvPSystem?4ini?$AA@ DB '..\Data\Zt'
	DB	'Data\PvPSystem.ini', 00H			; `string'
; Function compile flags: /Ogtp
; File e:\work\tranet_version\gs\gameserver\pvpmapsystem.cpp
CONST	ENDS
;	COMDAT ?LoadConfig@cPvPMapSystem@@QAEXXZ
_TEXT	SEGMENT
_file$ = -312						; size = 4
_Flag$ = -308						; size = 4
_n$202766 = -304					; size = 20
_n$202761 = -284					; size = 20
_n$202758 = -284					; size = 24
_List$202767 = -280					; size = 20
_Buff$ = -260						; size = 256
__$ArrayPad$ = -4					; size = 4
?LoadConfig@cPvPMapSystem@@QAEXXZ PROC			; cPvPMapSystem::LoadConfig, COMDAT
; _this$ = ecx

; 11   : {

  00000	55		 push	 ebp
  00001	8b ec		 mov	 ebp, esp
  00003	81 ec 38 01 00
	00		 sub	 esp, 312		; 00000138H
  00009	a1 00 00 00 00	 mov	 eax, DWORD PTR ___security_cookie
  0000e	33 c5		 xor	 eax, ebp
  00010	89 45 fc	 mov	 DWORD PTR __$ArrayPad$[ebp], eax
  00013	53		 push	 ebx
  00014	56		 push	 esi
  00015	57		 push	 edi

; 12   : 	this->EnablePvPMap = GetPrivateProfileInt("Common","EnablePvPMap",0,PVPMAPSYSTEM_DIR);

  00016	8b 3d 00 00 00
	00		 mov	 edi, DWORD PTR __imp__GetPrivateProfileIntA@16
  0001c	68 00 00 00 00	 push	 OFFSET ??_C@_0BN@FIOMFOPK@?4?4?2Data?2ZtData?2PvPSystem?4ini?$AA@
  00021	33 db		 xor	 ebx, ebx
  00023	53		 push	 ebx
  00024	68 00 00 00 00	 push	 OFFSET ??_C@_0N@DOLHPFKI@EnablePvPMap?$AA@
  00029	68 00 00 00 00	 push	 OFFSET ??_C@_06POMJKEPM@Common?$AA@
  0002e	8b f1		 mov	 esi, ecx
  00030	ff d7		 call	 edi

; 13   : 	this->EnableLoraRing = GetPrivateProfileInt("Common","EnableLoraRing",0,PVPMAPSYSTEM_DIR);

  00032	68 00 00 00 00	 push	 OFFSET ??_C@_0BN@FIOMFOPK@?4?4?2Data?2ZtData?2PvPSystem?4ini?$AA@
  00037	53		 push	 ebx
  00038	68 00 00 00 00	 push	 OFFSET ??_C@_0P@JCALJFB@EnableLoraRing?$AA@
  0003d	68 00 00 00 00	 push	 OFFSET ??_C@_06POMJKEPM@Common?$AA@
  00042	89 06		 mov	 DWORD PTR [esi], eax
  00044	ff d7		 call	 edi

; 14   : 
; 15   : 	//lpObj->X >= 137 && lpObj->X <= 144 && lpObj->Y >= 124 && lpObj->Y <= 131
; 16   : 	this->m_LoraRingX1 = GetPrivateProfileInt("Common","LoraRingX1",137,PVPMAPSYSTEM_DIR);

  00046	68 00 00 00 00	 push	 OFFSET ??_C@_0BN@FIOMFOPK@?4?4?2Data?2ZtData?2PvPSystem?4ini?$AA@
  0004b	68 89 00 00 00	 push	 137			; 00000089H
  00050	68 00 00 00 00	 push	 OFFSET ??_C@_0L@BFGCAJJA@LoraRingX1?$AA@
  00055	68 00 00 00 00	 push	 OFFSET ??_C@_06POMJKEPM@Common?$AA@
  0005a	89 46 04	 mov	 DWORD PTR [esi+4], eax
  0005d	ff d7		 call	 edi

; 17   : 	this->m_LoraRingY1 = GetPrivateProfileInt("Common","LoraRingY1",124,PVPMAPSYSTEM_DIR);

  0005f	68 00 00 00 00	 push	 OFFSET ??_C@_0BN@FIOMFOPK@?4?4?2Data?2ZtData?2PvPSystem?4ini?$AA@
  00064	6a 7c		 push	 124			; 0000007cH
  00066	68 00 00 00 00	 push	 OFFSET ??_C@_0L@BEKAGDKH@LoraRingY1?$AA@
  0006b	68 00 00 00 00	 push	 OFFSET ??_C@_06POMJKEPM@Common?$AA@
  00070	89 86 d4 07 00
	00		 mov	 DWORD PTR [esi+2004], eax
  00076	ff d7		 call	 edi

; 18   : 	this->m_LoraRingX2 = GetPrivateProfileInt("Common","LoraRingX2",144,PVPMAPSYSTEM_DIR);

  00078	68 00 00 00 00	 push	 OFFSET ??_C@_0BN@FIOMFOPK@?4?4?2Data?2ZtData?2PvPSystem?4ini?$AA@
  0007d	68 90 00 00 00	 push	 144			; 00000090H
  00082	68 00 00 00 00	 push	 OFFSET ??_C@_0L@DOEPFKFD@LoraRingX2?$AA@
  00087	68 00 00 00 00	 push	 OFFSET ??_C@_06POMJKEPM@Common?$AA@
  0008c	89 86 d8 07 00
	00		 mov	 DWORD PTR [esi+2008], eax
  00092	ff d7		 call	 edi

; 19   : 	this->m_LoraRingY2 = GetPrivateProfileInt("Common","LoraRingY2",131,PVPMAPSYSTEM_DIR);

  00094	68 00 00 00 00	 push	 OFFSET ??_C@_0BN@FIOMFOPK@?4?4?2Data?2ZtData?2PvPSystem?4ini?$AA@
  00099	68 83 00 00 00	 push	 131			; 00000083H
  0009e	68 00 00 00 00	 push	 OFFSET ??_C@_0L@DPINDAGE@LoraRingY2?$AA@
  000a3	68 00 00 00 00	 push	 OFFSET ??_C@_06POMJKEPM@Common?$AA@
  000a8	89 86 dc 07 00
	00		 mov	 DWORD PTR [esi+2012], eax
  000ae	ff d7		 call	 edi
  000b0	89 86 e0 07 00
	00		 mov	 DWORD PTR [esi+2016], eax

; 20   : 
; 21   : 	for(int i(0);i<MAX_NUMBER_MAP;i++)
; 22   : 	{
; 23   : 		this->PvP[i].Map = 0;

  000b6	8d 46 0c	 lea	 eax, DWORD PTR [esi+12]
  000b9	8d 4b 53	 lea	 ecx, DWORD PTR [ebx+83]
  000bc	bf 01 00 00 00	 mov	 edi, 1
$LL13@LoadConfig:
  000c1	89 58 fc	 mov	 DWORD PTR [eax-4], ebx

; 24   : 		this->PvP[i].Status = 0;

  000c4	89 18		 mov	 DWORD PTR [eax], ebx
  000c6	83 c0 18	 add	 eax, 24			; 00000018H
  000c9	2b cf		 sub	 ecx, edi
  000cb	75 f4		 jne	 SHORT $LL13@LoadConfig

; 25   : 	}
; 26   : 
; 27   : 	FILE * file = fopen(PVPMAPSYSTEM_DIR,"r");

  000cd	68 00 00 00 00	 push	 OFFSET ??_C@_01KDCPPGHE@r?$AA@
  000d2	68 00 00 00 00	 push	 OFFSET ??_C@_0BN@FIOMFOPK@?4?4?2Data?2ZtData?2PvPSystem?4ini?$AA@
  000d7	e8 00 00 00 00	 call	 _fopen
  000dc	8b d8		 mov	 ebx, eax

; 28   : 
; 29   : 	if(file == NULL)

  000de	33 c0		 xor	 eax, eax
  000e0	83 c4 08	 add	 esp, 8
  000e3	89 9d c8 fe ff
	ff		 mov	 DWORD PTR _file$[ebp], ebx
  000e9	3b d8		 cmp	 ebx, eax
  000eb	75 29		 jne	 SHORT $LN10@LoadConfig

; 30   : 	{
; 31   : 		MessageBoxA(0,PVPMAPSYSTEM_DIR,"LOAD FILE ERROR",0);

  000ed	50		 push	 eax
  000ee	68 00 00 00 00	 push	 OFFSET ??_C@_0BA@PIOFNAIM@LOAD?5FILE?5ERROR?$AA@
  000f3	68 00 00 00 00	 push	 OFFSET ??_C@_0BN@FIOMFOPK@?4?4?2Data?2ZtData?2PvPSystem?4ini?$AA@
  000f8	50		 push	 eax
  000f9	ff 15 00 00 00
	00		 call	 DWORD PTR __imp__MessageBoxA@16
  000ff	5f		 pop	 edi

; 32   : 		this->EnablePvPMap = false;

  00100	c7 06 00 00 00
	00		 mov	 DWORD PTR [esi], 0
  00106	5e		 pop	 esi
  00107	5b		 pop	 ebx

; 120  : }

  00108	8b 4d fc	 mov	 ecx, DWORD PTR __$ArrayPad$[ebp]
  0010b	33 cd		 xor	 ecx, ebp
  0010d	e8 00 00 00 00	 call	 @__security_check_cookie@4
  00112	8b e5		 mov	 esp, ebp
  00114	5d		 pop	 ebp
  00115	c3		 ret	 0
$LN10@LoadConfig:

; 33   : 	}
; 34   : 
; 35   : 	if(!this->EnablePvPMap)return;

  00116	39 06		 cmp	 DWORD PTR [esi], eax
  00118	0f 84 79 03 00
	00		 je	 $LN14@LoadConfig

; 36   : 
; 37   : 	char Buff[256];
; 38   : 	int Flag = 0;
; 39   : 	this->pCount = 0;

  0011e	89 86 d0 07 00
	00		 mov	 DWORD PTR [esi+2000], eax

; 40   : 
; 41   : 	#if(ENABLE_MAP_RULE)
; 42   : 	this->m_MapRule.clear();

  00124	8b 8e e4 07 00
	00		 mov	 ecx, DWORD PTR [esi+2020]
  0012a	8b 96 e8 07 00
	00		 mov	 edx, DWORD PTR [esi+2024]
  00130	89 85 cc fe ff
	ff		 mov	 DWORD PTR _Flag$[ebp], eax
  00136	3b ca		 cmp	 ecx, edx
  00138	74 38		 je	 SHORT $LN34@LoadConfig
  0013a	8b c2		 mov	 eax, edx
  0013c	3b d2		 cmp	 edx, edx
  0013e	74 2c		 je	 SHORT $LN63@LoadConfig
$LL65@LoadConfig:
  00140	8b 18		 mov	 ebx, DWORD PTR [eax]
  00142	89 19		 mov	 DWORD PTR [ecx], ebx
  00144	8b 58 04	 mov	 ebx, DWORD PTR [eax+4]
  00147	89 59 04	 mov	 DWORD PTR [ecx+4], ebx
  0014a	8b 58 08	 mov	 ebx, DWORD PTR [eax+8]
  0014d	89 59 08	 mov	 DWORD PTR [ecx+8], ebx
  00150	8b 58 0c	 mov	 ebx, DWORD PTR [eax+12]
  00153	89 59 0c	 mov	 DWORD PTR [ecx+12], ebx
  00156	8b 58 10	 mov	 ebx, DWORD PTR [eax+16]
  00159	89 59 10	 mov	 DWORD PTR [ecx+16], ebx
  0015c	83 c0 14	 add	 eax, 20			; 00000014H
  0015f	83 c1 14	 add	 ecx, 20			; 00000014H
  00162	3b c2		 cmp	 eax, edx
  00164	75 da		 jne	 SHORT $LL65@LoadConfig
  00166	8b 9d c8 fe ff
	ff		 mov	 ebx, DWORD PTR _file$[ebp]
$LN63@LoadConfig:
  0016c	89 8e e8 07 00
	00		 mov	 DWORD PTR [esi+2024], ecx
$LN34@LoadConfig:

; 43   : 	#endif
; 44   : 
; 45   : #ifdef _CONFLICT_
; 46   : #ifdef _FIX_PK_IN_DUEL_
; 47   : 	this->PvP[this->pCount].Map		= 64;

  00172	8b 86 d0 07 00
	00		 mov	 eax, DWORD PTR [esi+2000]
  00178	8d 04 40	 lea	 eax, DWORD PTR [eax+eax*2]
  0017b	c7 44 c6 08 40
	00 00 00	 mov	 DWORD PTR [esi+eax*8+8], 64 ; 00000040H

; 48   : 	this->PvP[this->pCount].Status	= 1;

  00183	8b 86 d0 07 00
	00		 mov	 eax, DWORD PTR [esi+2000]
  00189	8d 0c 40	 lea	 ecx, DWORD PTR [eax+eax*2]
  0018c	89 7c ce 0c	 mov	 DWORD PTR [esi+ecx*8+12], edi

; 49   : #if UPDATE_PVP == 1
; 50   : 	this->PvP[this->pCount].X1		= 0;

  00190	8b 86 d0 07 00
	00		 mov	 eax, DWORD PTR [esi+2000]
  00196	8d 14 40	 lea	 edx, DWORD PTR [eax+eax*2]
  00199	c7 44 d6 10 00
	00 00 00	 mov	 DWORD PTR [esi+edx*8+16], 0

; 51   : 	this->PvP[this->pCount].Y1		= 0;

  001a1	8b 86 d0 07 00
	00		 mov	 eax, DWORD PTR [esi+2000]
  001a7	03 c7		 add	 eax, edi
  001a9	8d 04 40	 lea	 eax, DWORD PTR [eax+eax*2]
  001ac	c7 04 c6 00 00
	00 00		 mov	 DWORD PTR [esi+eax*8], 0

; 52   : 	this->PvP[this->pCount].X2		= 255;

  001b3	8b 86 d0 07 00
	00		 mov	 eax, DWORD PTR [esi+2000]
  001b9	8d 14 40	 lea	 edx, DWORD PTR [eax+eax*2]
  001bc	b9 ff 00 00 00	 mov	 ecx, 255		; 000000ffH
  001c1	89 4c d6 14	 mov	 DWORD PTR [esi+edx*8+20], ecx

; 53   : 	this->PvP[this->pCount].Y2		= 255;

  001c5	8b 86 d0 07 00
	00		 mov	 eax, DWORD PTR [esi+2000]
  001cb	8d 04 40	 lea	 eax, DWORD PTR [eax+eax*2]
  001ce	89 4c c6 1c	 mov	 DWORD PTR [esi+eax*8+28], ecx

; 54   : #endif
; 55   : 	this->pCount++;

  001d2	01 be d0 07 00
	00		 add	 DWORD PTR [esi+2000], edi

; 56   : #endif
; 57   : #endif
; 58   : 	while(!feof(file)) //     ??

  001d8	53		 push	 ebx
  001d9	e8 00 00 00 00	 call	 _feof
  001de	83 c4 04	 add	 esp, 4
  001e1	85 c0		 test	 eax, eax
  001e3	0f 85 a5 02 00
	00		 jne	 $LN7@LoadConfig
  001e9	8d a4 24 00 00
	00 00		 npad	 7
$LL8@LoadConfig:

; 59   : 	{
; 60   : 		fgets(Buff,256,file);//  ?

  001f0	53		 push	 ebx
  001f1	8d 8d fc fe ff
	ff		 lea	 ecx, DWORD PTR _Buff$[ebp]
  001f7	68 00 01 00 00	 push	 256			; 00000100H
  001fc	51		 push	 ecx
  001fd	e8 00 00 00 00	 call	 _fgets

; 61   : 		if(Zt_IsBadFileLine(Buff, Flag)) // 

  00202	8d 95 cc fe ff
	ff		 lea	 edx, DWORD PTR _Flag$[ebp]
  00208	52		 push	 edx
  00209	8d 85 fc fe ff
	ff		 lea	 eax, DWORD PTR _Buff$[ebp]
  0020f	50		 push	 eax
  00210	e8 00 00 00 00	 call	 ?Zt_IsBadFileLine@@YA_NPADAAH@Z ; Zt_IsBadFileLine
  00215	83 c4 14	 add	 esp, 20			; 00000014H
  00218	84 c0		 test	 al, al
  0021a	0f 85 5d 02 00
	00		 jne	 $LN1@LoadConfig

; 62   : 			continue;
; 63   : 		if(Flag == 1)

  00220	39 bd cc fe ff
	ff		 cmp	 DWORD PTR _Flag$[ebp], edi
  00226	0f 85 b7 00 00
	00		 jne	 $LN5@LoadConfig

; 64   : 		{
; 65   : 			int n[6];
; 66   : #if UPDATE_PVP == 1
; 67   : 			sscanf(Buff, "%d %d %d %d %d %d", &n[0], &n[1], &n[2], &n[3], &n[4], &n[5]);

  0022c	8d 8d f8 fe ff
	ff		 lea	 ecx, DWORD PTR _n$202758[ebp+20]
  00232	51		 push	 ecx
  00233	8d 95 f4 fe ff
	ff		 lea	 edx, DWORD PTR _n$202758[ebp+16]
  00239	52		 push	 edx
  0023a	8d 85 f0 fe ff
	ff		 lea	 eax, DWORD PTR _n$202758[ebp+12]
  00240	50		 push	 eax
  00241	8d 8d ec fe ff
	ff		 lea	 ecx, DWORD PTR _n$202758[ebp+8]
  00247	51		 push	 ecx
  00248	8d 95 e8 fe ff
	ff		 lea	 edx, DWORD PTR _n$202758[ebp+4]
  0024e	52		 push	 edx
  0024f	8d 85 e4 fe ff
	ff		 lea	 eax, DWORD PTR _n$202758[ebp]
  00255	50		 push	 eax
  00256	8d 8d fc fe ff
	ff		 lea	 ecx, DWORD PTR _Buff$[ebp]
  0025c	68 00 00 00 00	 push	 OFFSET ??_C@_0BC@HDIJPDCG@?$CFd?5?$CFd?5?$CFd?5?$CFd?5?$CFd?5?$CFd?$AA@
  00261	51		 push	 ecx
  00262	e8 00 00 00 00	 call	 _sscanf

; 68   : 			this->PvP[this->pCount].Map		= n[0];

  00267	8b 86 d0 07 00
	00		 mov	 eax, DWORD PTR [esi+2000]
  0026d	8d 14 40	 lea	 edx, DWORD PTR [eax+eax*2]
  00270	8b 85 e4 fe ff
	ff		 mov	 eax, DWORD PTR _n$202758[ebp]
  00276	89 44 d6 08	 mov	 DWORD PTR [esi+edx*8+8], eax

; 69   : 			this->PvP[this->pCount].Status	= n[1];

  0027a	8b 86 d0 07 00
	00		 mov	 eax, DWORD PTR [esi+2000]
  00280	8b 95 e8 fe ff
	ff		 mov	 edx, DWORD PTR _n$202758[ebp+4]
  00286	8d 0c 40	 lea	 ecx, DWORD PTR [eax+eax*2]
  00289	89 54 ce 0c	 mov	 DWORD PTR [esi+ecx*8+12], edx

; 70   : 			this->PvP[this->pCount].X1		= n[2];

  0028d	8b 86 d0 07 00
	00		 mov	 eax, DWORD PTR [esi+2000]
  00293	8b 8d ec fe ff
	ff		 mov	 ecx, DWORD PTR _n$202758[ebp+8]
  00299	8d 04 40	 lea	 eax, DWORD PTR [eax+eax*2]
  0029c	89 4c c6 10	 mov	 DWORD PTR [esi+eax*8+16], ecx

; 71   : 			this->PvP[this->pCount].Y1		= n[3];

  002a0	8b 86 d0 07 00
	00		 mov	 eax, DWORD PTR [esi+2000]
  002a6	03 c7		 add	 eax, edi
  002a8	8d 14 40	 lea	 edx, DWORD PTR [eax+eax*2]
  002ab	8b 85 f0 fe ff
	ff		 mov	 eax, DWORD PTR _n$202758[ebp+12]
  002b1	89 04 d6	 mov	 DWORD PTR [esi+edx*8], eax

; 72   : 			this->PvP[this->pCount].X2		= n[4];

  002b4	8b 86 d0 07 00
	00		 mov	 eax, DWORD PTR [esi+2000]
  002ba	8b 95 f4 fe ff
	ff		 mov	 edx, DWORD PTR _n$202758[ebp+16]
  002c0	8d 0c 40	 lea	 ecx, DWORD PTR [eax+eax*2]
  002c3	89 54 ce 14	 mov	 DWORD PTR [esi+ecx*8+20], edx

; 73   : 			this->PvP[this->pCount].Y2		= n[5];

  002c7	8b 86 d0 07 00
	00		 mov	 eax, DWORD PTR [esi+2000]
  002cd	8b 8d f8 fe ff
	ff		 mov	 ecx, DWORD PTR _n$202758[ebp+20]
  002d3	8d 04 40	 lea	 eax, DWORD PTR [eax+eax*2]
  002d6	83 c4 20	 add	 esp, 32			; 00000020H
  002d9	89 4c c6 1c	 mov	 DWORD PTR [esi+eax*8+28], ecx

; 74   : #else
; 75   : 			sscanf(Buff, "%d %d", &n[0], &n[1]);
; 76   : 			this->PvP[this->pCount].Map = n[0];
; 77   : 			this->PvP[this->pCount].Status = n[1];
; 78   : #endif
; 79   : 			this->pCount++;

  002dd	01 be d0 07 00
	00		 add	 DWORD PTR [esi+2000], edi
$LN5@LoadConfig:

; 80   : 		}
; 81   : 
; 82   : 		if(Flag == 2)

  002e3	83 bd cc fe ff
	ff 02		 cmp	 DWORD PTR _Flag$[ebp], 2
  002ea	0f 85 b7 00 00
	00		 jne	 $LN4@LoadConfig

; 83   : 		{
; 84   : 			int n[5];
; 85   : 
; 86   : 			sscanf(Buff, "%d %d %d %d %d", &n[0], &n[1], &n[2], &n[3], &n[4], &n[5]);

  002f0	8d 95 f8 fe ff
	ff		 lea	 edx, DWORD PTR _n$202761[ebp+20]
  002f6	52		 push	 edx
  002f7	8d 85 f4 fe ff
	ff		 lea	 eax, DWORD PTR _n$202761[ebp+16]
  002fd	50		 push	 eax
  002fe	8d 8d f0 fe ff
	ff		 lea	 ecx, DWORD PTR _n$202761[ebp+12]
  00304	51		 push	 ecx
  00305	8d 95 ec fe ff
	ff		 lea	 edx, DWORD PTR _n$202761[ebp+8]
  0030b	52		 push	 edx
  0030c	8d 85 e8 fe ff
	ff		 lea	 eax, DWORD PTR _n$202761[ebp+4]
  00312	50		 push	 eax
  00313	8d 8d e4 fe ff
	ff		 lea	 ecx, DWORD PTR _n$202761[ebp]
  00319	51		 push	 ecx
  0031a	8d 95 fc fe ff
	ff		 lea	 edx, DWORD PTR _Buff$[ebp]
  00320	68 00 00 00 00	 push	 OFFSET ??_C@_0P@GNCPONOH@?$CFd?5?$CFd?5?$CFd?5?$CFd?5?$CFd?$AA@
  00325	52		 push	 edx
  00326	e8 00 00 00 00	 call	 _sscanf

; 87   : 			this->PvP[this->pCount].Map		= n[0];

  0032b	8b 86 d0 07 00
	00		 mov	 eax, DWORD PTR [esi+2000]
  00331	8b 8d e4 fe ff
	ff		 mov	 ecx, DWORD PTR _n$202761[ebp]
  00337	8d 04 40	 lea	 eax, DWORD PTR [eax+eax*2]
  0033a	89 4c c6 08	 mov	 DWORD PTR [esi+eax*8+8], ecx

; 88   : 			this->PvP[this->pCount].Status	= n[1];

  0033e	8b 86 d0 07 00
	00		 mov	 eax, DWORD PTR [esi+2000]
  00344	8d 14 40	 lea	 edx, DWORD PTR [eax+eax*2]
  00347	8b 85 e8 fe ff
	ff		 mov	 eax, DWORD PTR _n$202761[ebp+4]
  0034d	89 44 d6 0c	 mov	 DWORD PTR [esi+edx*8+12], eax

; 89   : 			this->PvP[this->pCount].X1		= n[2];

  00351	8b 86 d0 07 00
	00		 mov	 eax, DWORD PTR [esi+2000]
  00357	8b 95 ec fe ff
	ff		 mov	 edx, DWORD PTR _n$202761[ebp+8]
  0035d	8d 0c 40	 lea	 ecx, DWORD PTR [eax+eax*2]
  00360	89 54 ce 10	 mov	 DWORD PTR [esi+ecx*8+16], edx

; 90   : 			this->PvP[this->pCount].Y1		= n[3];

  00364	8b 86 d0 07 00
	00		 mov	 eax, DWORD PTR [esi+2000]
  0036a	8b 8d f0 fe ff
	ff		 mov	 ecx, DWORD PTR _n$202761[ebp+12]
  00370	03 c7		 add	 eax, edi
  00372	8d 04 40	 lea	 eax, DWORD PTR [eax+eax*2]
  00375	89 0c c6	 mov	 DWORD PTR [esi+eax*8], ecx

; 91   : 			this->PvP[this->pCount].X2		= n[4];

  00378	8b 86 d0 07 00
	00		 mov	 eax, DWORD PTR [esi+2000]
  0037e	8d 14 40	 lea	 edx, DWORD PTR [eax+eax*2]
  00381	8b 85 f4 fe ff
	ff		 mov	 eax, DWORD PTR _n$202761[ebp+16]
  00387	89 44 d6 14	 mov	 DWORD PTR [esi+edx*8+20], eax

; 92   : 			this->PvP[this->pCount].Y2		= n[5];

  0038b	8b 86 d0 07 00
	00		 mov	 eax, DWORD PTR [esi+2000]
  00391	8b 95 f8 fe ff
	ff		 mov	 edx, DWORD PTR _n$202761[ebp+20]
  00397	8d 0c 40	 lea	 ecx, DWORD PTR [eax+eax*2]
  0039a	83 c4 20	 add	 esp, 32			; 00000020H
  0039d	89 54 ce 1c	 mov	 DWORD PTR [esi+ecx*8+28], edx

; 93   : 
; 94   : 			this->pCount++;

  003a1	01 be d0 07 00
	00		 add	 DWORD PTR [esi+2000], edi
$LN4@LoadConfig:

; 95   : 		}
; 96   : 
; 97   : 		if( g_ZtLicense.CheckUser(eZtUB::Local)		 || 
; 98   : 			g_ZtLicense.CheckUser(eZtUB::Gredy)		 || 
; 99   : 			g_ZtLicense.CheckUser(eZtUB::Gredy2)	 || 
; 100  : 			g_ZtLicense.CheckUser(eZtUB::GredyLocal) )

  003a7	6a 00		 push	 0
  003a9	b9 00 00 00 00	 mov	 ecx, OFFSET ?g_ZtLicense@@3VCZtLicense@@A ; g_ZtLicense
  003ae	e8 00 00 00 00	 call	 ?CheckUser@CZtLicense@@QAE_NH@Z ; CZtLicense::CheckUser
  003b3	84 c0		 test	 al, al
  003b5	75 34		 jne	 SHORT $LN2@LoadConfig
  003b7	6a 20		 push	 32			; 00000020H
  003b9	b9 00 00 00 00	 mov	 ecx, OFFSET ?g_ZtLicense@@3VCZtLicense@@A ; g_ZtLicense
  003be	e8 00 00 00 00	 call	 ?CheckUser@CZtLicense@@QAE_NH@Z ; CZtLicense::CheckUser
  003c3	84 c0		 test	 al, al
  003c5	75 24		 jne	 SHORT $LN2@LoadConfig
  003c7	6a 22		 push	 34			; 00000022H
  003c9	b9 00 00 00 00	 mov	 ecx, OFFSET ?g_ZtLicense@@3VCZtLicense@@A ; g_ZtLicense
  003ce	e8 00 00 00 00	 call	 ?CheckUser@CZtLicense@@QAE_NH@Z ; CZtLicense::CheckUser
  003d3	84 c0		 test	 al, al
  003d5	75 14		 jne	 SHORT $LN2@LoadConfig
  003d7	6a 21		 push	 33			; 00000021H
  003d9	b9 00 00 00 00	 mov	 ecx, OFFSET ?g_ZtLicense@@3VCZtLicense@@A ; g_ZtLicense
  003de	e8 00 00 00 00	 call	 ?CheckUser@CZtLicense@@QAE_NH@Z ; CZtLicense::CheckUser
  003e3	84 c0		 test	 al, al
  003e5	0f 84 92 00 00
	00		 je	 $LN1@LoadConfig
$LN2@LoadConfig:

; 101  : 		{
; 102  : 			if(Flag == 3)

  003eb	83 bd cc fe ff
	ff 03		 cmp	 DWORD PTR _Flag$[ebp], 3
  003f2	0f 85 85 00 00
	00		 jne	 $LN1@LoadConfig

; 103  : 			{
; 104  : 				int n[5];
; 105  : 				sscanf(Buff, "%d %d %d %d %d", &n[0], &n[1], &n[2], &n[3], &n[4]);

  003f8	8d 85 e0 fe ff
	ff		 lea	 eax, DWORD PTR _n$202766[ebp+16]
  003fe	50		 push	 eax
  003ff	8d 8d dc fe ff
	ff		 lea	 ecx, DWORD PTR _n$202766[ebp+12]
  00405	51		 push	 ecx
  00406	8d 95 d8 fe ff
	ff		 lea	 edx, DWORD PTR _n$202766[ebp+8]
  0040c	52		 push	 edx
  0040d	8d 85 d4 fe ff
	ff		 lea	 eax, DWORD PTR _n$202766[ebp+4]
  00413	50		 push	 eax
  00414	8d 8d d0 fe ff
	ff		 lea	 ecx, DWORD PTR _n$202766[ebp]
  0041a	51		 push	 ecx
  0041b	8d 95 fc fe ff
	ff		 lea	 edx, DWORD PTR _Buff$[ebp]
  00421	68 00 00 00 00	 push	 OFFSET ??_C@_0P@GNCPONOH@?$CFd?5?$CFd?5?$CFd?5?$CFd?5?$CFd?$AA@
  00426	52		 push	 edx
  00427	e8 00 00 00 00	 call	 _sscanf

; 106  : 				MAP_RULE_DATA List;			
; 107  : 				List.MapNumber = n[0];
; 108  : 				List.MinReset = n[1];

  0042c	8b 8d d4 fe ff
	ff		 mov	 ecx, DWORD PTR _n$202766[ebp+4]

; 109  : 				List.MaxReset = n[2];

  00432	8b 95 d8 fe ff
	ff		 mov	 edx, DWORD PTR _n$202766[ebp+8]
  00438	8b 85 d0 fe ff
	ff		 mov	 eax, DWORD PTR _n$202766[ebp]
  0043e	89 8d ec fe ff
	ff		 mov	 DWORD PTR _List$202767[ebp+4], ecx

; 110  : 				List.MinGrand = n[3];
; 111  : 				List.MaxGrand = n[4];

  00444	8b 8d e0 fe ff
	ff		 mov	 ecx, DWORD PTR _n$202766[ebp+16]
  0044a	89 95 f0 fe ff
	ff		 mov	 DWORD PTR _List$202767[ebp+8], edx
  00450	83 c4 1c	 add	 esp, 28			; 0000001cH
  00453	89 85 e8 fe ff
	ff		 mov	 DWORD PTR _List$202767[ebp], eax
  00459	8b 85 dc fe ff
	ff		 mov	 eax, DWORD PTR _n$202766[ebp+12]

; 112  : 				this->m_MapRule.push_back(List);

  0045f	8d 95 e8 fe ff
	ff		 lea	 edx, DWORD PTR _List$202767[ebp]
  00465	89 8d f8 fe ff
	ff		 mov	 DWORD PTR _List$202767[ebp+16], ecx
  0046b	52		 push	 edx
  0046c	8d 8e e4 07 00
	00		 lea	 ecx, DWORD PTR [esi+2020]
  00472	89 85 f4 fe ff
	ff		 mov	 DWORD PTR _List$202767[ebp+12], eax
  00478	e8 00 00 00 00	 call	 ?push_back@?$vector@UMAP_RULE_DATA@@V?$allocator@UMAP_RULE_DATA@@@std@@@std@@QAEXABUMAP_RULE_DATA@@@Z ; std::vector<MAP_RULE_DATA,std::allocator<MAP_RULE_DATA> >::push_back
$LN1@LoadConfig:

; 56   : #endif
; 57   : #endif
; 58   : 	while(!feof(file)) //     ??

  0047d	53		 push	 ebx
  0047e	e8 00 00 00 00	 call	 _feof
  00483	83 c4 04	 add	 esp, 4
  00486	85 c0		 test	 eax, eax
  00488	0f 84 62 fd ff
	ff		 je	 $LL8@LoadConfig
$LN7@LoadConfig:

; 113  : 			}
; 114  : 		}
; 115  : 
; 116  : 
; 117  : 	}
; 118  : 
; 119  : 	fclose(file);

  0048e	53		 push	 ebx
  0048f	e8 00 00 00 00	 call	 _fclose
  00494	83 c4 04	 add	 esp, 4
$LN14@LoadConfig:

; 120  : }

  00497	8b 4d fc	 mov	 ecx, DWORD PTR __$ArrayPad$[ebp]
  0049a	5f		 pop	 edi
  0049b	5e		 pop	 esi
  0049c	33 cd		 xor	 ecx, ebp
  0049e	5b		 pop	 ebx
  0049f	e8 00 00 00 00	 call	 @__security_check_cookie@4
  004a4	8b e5		 mov	 esp, ebp
  004a6	5d		 pop	 ebp
  004a7	c3		 ret	 0
?LoadConfig@cPvPMapSystem@@QAEXXZ ENDP			; cPvPMapSystem::LoadConfig
_TEXT	ENDS
EXTRN	_atexit:PROC
; Function compile flags: /Ogtp
;	COMDAT ??__EPvPMapSystem@@YAXXZ
text$yc	SEGMENT
??__EPvPMapSystem@@YAXXZ PROC				; `dynamic initializer for 'PvPMapSystem'', COMDAT

; 8    : cPvPMapSystem PvPMapSystem;

  00000	68 00 00 00 00	 push	 OFFSET ??__FPvPMapSystem@@YAXXZ ; `dynamic atexit destructor for 'PvPMapSystem''
  00005	e8 00 00 00 00	 call	 _atexit
  0000a	59		 pop	 ecx
  0000b	c3		 ret	 0
??__EPvPMapSystem@@YAXXZ ENDP				; `dynamic initializer for 'PvPMapSystem''
; Function compile flags: /Ogtp
text$yc	ENDS
;	COMDAT ??__FPvPMapSystem@@YAXXZ
text$yd	SEGMENT
??__FPvPMapSystem@@YAXXZ PROC				; `dynamic atexit destructor for 'PvPMapSystem'', COMDAT
  00000	a1 e4 07 00 00	 mov	 eax, DWORD PTR ?PvPMapSystem@@3VcPvPMapSystem@@A+2020
  00005	85 c0		 test	 eax, eax
  00007	74 09		 je	 SHORT $LN12@dynamic
  00009	50		 push	 eax
  0000a	e8 00 00 00 00	 call	 ??3@YAXPAX@Z		; operator delete
  0000f	83 c4 04	 add	 esp, 4
$LN12@dynamic:
  00012	c7 05 e4 07 00
	00 00 00 00 00	 mov	 DWORD PTR ?PvPMapSystem@@3VcPvPMapSystem@@A+2020, 0
  0001c	c7 05 e8 07 00
	00 00 00 00 00	 mov	 DWORD PTR ?PvPMapSystem@@3VcPvPMapSystem@@A+2024, 0
  00026	c7 05 ec 07 00
	00 00 00 00 00	 mov	 DWORD PTR ?PvPMapSystem@@3VcPvPMapSystem@@A+2028, 0
  00030	c3		 ret	 0
??__FPvPMapSystem@@YAXXZ ENDP				; `dynamic atexit destructor for 'PvPMapSystem''
text$yd	ENDS
PUBLIC	?PvPMapSystem@@3VcPvPMapSystem@@A		; PvPMapSystem
_BSS	SEGMENT
?PvPMapSystem@@3VcPvPMapSystem@@A DB 07f4H DUP (?)	; PvPMapSystem
_BSS	ENDS
CRT$XCU	SEGMENT
_PvPMapSystem$initializer$ DD FLAT:??__EPvPMapSystem@@YAXXZ
CRT$XCU	ENDS
END
