; Listing generated by Microsoft (R) Optimizing Compiler Version 16.00.30319.01 

	TITLE	E:\work\tranet_version\GS\GameServer\RaklionSelupan.cpp
	.686P
	.XMM
	include listing.inc
	.model	flat

INCLUDELIB LIBCMT
INCLUDELIB OLDNAMES

_DATA	SEGMENT
_g_iNpcUpDfLevel_CGATE DD 01H
	DD	02H
	DD	02dc6c0H
	DD	02H
	DD	03H
	DD	02dc6c0H
	DD	03H
	DD	04H
	DD	02dc6c0H
_g_iNpcUpDfLevel_CSTATUE DD 01H
	DD	03H
	DD	02dc6c0H
	DD	02H
	DD	05H
	DD	02dc6c0H
	DD	03H
	DD	07H
	DD	02dc6c0H
_g_iNpcUpMaxHP_CGATE DD 02625a0H
	DD	02H
	DD	0f4240H
	DD	03567e0H
	DD	03H
	DD	0f4240H
	DD	04f5880H
	DD	04H
	DD	0f4240H
_g_iNpcUpMaxHP_CSTATUE DD 02191c0H
	DD	03H
	DD	0f4240H
	DD	033e140H
	DD	05H
	DD	0f4240H
	DD	04c4b40H
	DD	07H
	DD	0f4240H
_g_iNpcUpRgLevel_CSTATUE DD 01H
	DD	03H
	DD	04c4b40H
	DD	02H
	DD	05H
	DD	04c4b40H
	DD	03H
	DD	07H
	DD	04c4b40H
_g_iCsUserReSpawnArea DD 023H
	DD	011H
	DD	090H
	DD	030H
	DD	04aH
	DD	090H
	DD	073H
	DD	09aH
	DD	023H
	DD	011H
	DD	090H
	DD	030H
_g_iNpcDefense_CGATE DD 064H
	DD	0b4H
	DD	012cH
	DD	0208H
_g_iNpcDefense_CSTATUE DD 050H
	DD	0b4H
	DD	0154H
	DD	0226H
_g_iCastleWallStepAxisY DD 071H
	DD	0a0H
	DD	0cbH
_DATA	ENDS
PUBLIC	??_7CRaklionObjInfo@@6B@			; CRaklionObjInfo::`vftable'
PUBLIC	??1CRaklionObjInfo@@UAE@XZ			; CRaklionObjInfo::~CRaklionObjInfo
PUBLIC	??_R4CRaklionObjInfo@@6B@			; CRaklionObjInfo::`RTTI Complete Object Locator'
PUBLIC	??_R0?AVCRaklionObjInfo@@@8			; CRaklionObjInfo `RTTI Type Descriptor'
PUBLIC	??_R3CRaklionObjInfo@@8				; CRaklionObjInfo::`RTTI Class Hierarchy Descriptor'
PUBLIC	??_R2CRaklionObjInfo@@8				; CRaklionObjInfo::`RTTI Base Class Array'
PUBLIC	??_R1A@?0A@EA@CRaklionObjInfo@@8		; CRaklionObjInfo::`RTTI Base Class Descriptor at (0,-1,0,64)'
EXTRN	??_7type_info@@6B@:QWORD			; type_info::`vftable'
EXTRN	??_ECRaklionObjInfo@@UAEPAXI@Z:PROC		; CRaklionObjInfo::`vector deleting destructor'
;	COMDAT ??_R1A@?0A@EA@CRaklionObjInfo@@8
; File e:\work\tranet_version\gs\gameserver\raklionobjinfo.h
rdata$r	SEGMENT
??_R1A@?0A@EA@CRaklionObjInfo@@8 DD FLAT:??_R0?AVCRaklionObjInfo@@@8 ; CRaklionObjInfo::`RTTI Base Class Descriptor at (0,-1,0,64)'
	DD	00H
	DD	00H
	DD	0ffffffffH
	DD	00H
	DD	040H
	DD	FLAT:??_R3CRaklionObjInfo@@8
rdata$r	ENDS
;	COMDAT ??_R2CRaklionObjInfo@@8
rdata$r	SEGMENT
??_R2CRaklionObjInfo@@8 DD FLAT:??_R1A@?0A@EA@CRaklionObjInfo@@8 ; CRaklionObjInfo::`RTTI Base Class Array'
rdata$r	ENDS
;	COMDAT ??_R3CRaklionObjInfo@@8
rdata$r	SEGMENT
??_R3CRaklionObjInfo@@8 DD 00H				; CRaklionObjInfo::`RTTI Class Hierarchy Descriptor'
	DD	00H
	DD	01H
	DD	FLAT:??_R2CRaklionObjInfo@@8
rdata$r	ENDS
;	COMDAT ??_R0?AVCRaklionObjInfo@@@8
_DATA	SEGMENT
??_R0?AVCRaklionObjInfo@@@8 DD FLAT:??_7type_info@@6B@	; CRaklionObjInfo `RTTI Type Descriptor'
	DD	00H
	DB	'.?AVCRaklionObjInfo@@', 00H
_DATA	ENDS
;	COMDAT ??_R4CRaklionObjInfo@@6B@
rdata$r	SEGMENT
??_R4CRaklionObjInfo@@6B@ DD 00H			; CRaklionObjInfo::`RTTI Complete Object Locator'
	DD	00H
	DD	00H
	DD	FLAT:??_R0?AVCRaklionObjInfo@@@8
	DD	FLAT:??_R3CRaklionObjInfo@@8
rdata$r	ENDS
;	COMDAT ??_7CRaklionObjInfo@@6B@
CONST	SEGMENT
??_7CRaklionObjInfo@@6B@ DD FLAT:??_R4CRaklionObjInfo@@6B@ ; CRaklionObjInfo::`vftable'
	DD	FLAT:??_ECRaklionObjInfo@@UAEPAXI@Z
; Function compile flags: /Ogtp
CONST	ENDS
;	COMDAT ??1CRaklionObjInfo@@UAE@XZ
_TEXT	SEGMENT
??1CRaklionObjInfo@@UAE@XZ PROC				; CRaklionObjInfo::~CRaklionObjInfo, COMDAT
; _this$ = ecx

; 16   : 	virtual ~CRaklionObjInfo() { return; }

  00000	c7 01 00 00 00
	00		 mov	 DWORD PTR [ecx], OFFSET ??_7CRaklionObjInfo@@6B@
  00006	c3		 ret	 0
??1CRaklionObjInfo@@UAE@XZ ENDP				; CRaklionObjInfo::~CRaklionObjInfo
_TEXT	ENDS
PUBLIC	?Reset@CRaklionObjInfo@@QAEXXZ			; CRaklionObjInfo::Reset
; Function compile flags: /Ogtp
;	COMDAT ?Reset@CRaklionObjInfo@@QAEXXZ
_TEXT	SEGMENT
?Reset@CRaklionObjInfo@@QAEXXZ PROC			; CRaklionObjInfo::Reset, COMDAT
; _this$ = ecx

; 19   : 	{

  00000	8b d1		 mov	 edx, ecx
  00002	57		 push	 edi

; 20   : 		for ( int iCount=0;iCount<MAX_RAKLION_OBJ_INDEX;iCount++)

  00003	8d 7a 08	 lea	 edi, DWORD PTR [edx+8]

; 21   : 		{
; 22   : 			this->m_iObjIndex[iCount] = -1 ;// 0060C2A0;

  00006	b9 20 03 00 00	 mov	 ecx, 800		; 00000320H
  0000b	83 c8 ff	 or	 eax, -1
  0000e	f3 ab		 rep stosd

; 23   : 		}
; 24   : 
; 25   : 		this->m_iObjCount = 0;

  00010	c7 42 04 00 00
	00 00		 mov	 DWORD PTR [edx+4], 0
  00017	5f		 pop	 edi

; 26   : 	}

  00018	c3		 ret	 0
?Reset@CRaklionObjInfo@@QAEXXZ ENDP			; CRaklionObjInfo::Reset
_TEXT	ENDS
EXTRN	??3@YAXPAX@Z:PROC				; operator delete
; Function compile flags: /Ogtp
;	COMDAT ??_GCRaklionObjInfo@@UAEPAXI@Z
_TEXT	SEGMENT
___flags$ = 8						; size = 4
??_GCRaklionObjInfo@@UAEPAXI@Z PROC			; CRaklionObjInfo::`scalar deleting destructor', COMDAT
; _this$ = ecx
  00000	55		 push	 ebp
  00001	8b ec		 mov	 ebp, esp
  00003	f6 45 08 01	 test	 BYTE PTR ___flags$[ebp], 1
  00007	56		 push	 esi
  00008	8b f1		 mov	 esi, ecx
  0000a	c7 06 00 00 00
	00		 mov	 DWORD PTR [esi], OFFSET ??_7CRaklionObjInfo@@6B@
  00010	74 09		 je	 SHORT $LN6@scalar
  00012	56		 push	 esi
  00013	e8 00 00 00 00	 call	 ??3@YAXPAX@Z		; operator delete
  00018	83 c4 04	 add	 esp, 4
$LN6@scalar:
  0001b	8b c6		 mov	 eax, esi
  0001d	5e		 pop	 esi
  0001e	5d		 pop	 ebp
  0001f	c2 04 00	 ret	 4
??_GCRaklionObjInfo@@UAEPAXI@Z ENDP			; CRaklionObjInfo::`scalar deleting destructor'
_TEXT	ENDS
PUBLIC	??_H@YGXPAXIHP6EPAX0@Z@Z			; `vector constructor iterator'
; Function compile flags: /Ogtp
;	COMDAT ??_H@YGXPAXIHP6EPAX0@Z@Z
_TEXT	SEGMENT
___t$ = 8						; size = 4
___s$ = 12						; size = 4
___n$ = 16						; size = 4
___f$ = 20						; size = 4
??_H@YGXPAXIHP6EPAX0@Z@Z PROC				; `vector constructor iterator', COMDAT
  00000	55		 push	 ebp
  00001	8b ec		 mov	 ebp, esp
  00003	57		 push	 edi
  00004	8b 7d 10	 mov	 edi, DWORD PTR ___n$[ebp]
  00007	4f		 dec	 edi
  00008	78 14		 js	 SHORT $LN1@vector
  0000a	53		 push	 ebx
  0000b	8b 5d 14	 mov	 ebx, DWORD PTR ___f$[ebp]
  0000e	56		 push	 esi
  0000f	8b 75 08	 mov	 esi, DWORD PTR ___t$[ebp]
$LL2@vector:
  00012	8b ce		 mov	 ecx, esi
  00014	ff d3		 call	 ebx
  00016	03 75 0c	 add	 esi, DWORD PTR ___s$[ebp]
  00019	4f		 dec	 edi
  0001a	79 f6		 jns	 SHORT $LL2@vector
  0001c	5e		 pop	 esi
  0001d	5b		 pop	 ebx
$LN1@vector:
  0001e	5f		 pop	 edi
  0001f	5d		 pop	 ebp
  00020	c2 10 00	 ret	 16			; 00000010H
??_H@YGXPAXIHP6EPAX0@Z@Z ENDP				; `vector constructor iterator'
_TEXT	ENDS
PUBLIC	??_7CRaklionSelupan@@6B@			; CRaklionSelupan::`vftable'
PUBLIC	??1CRaklionSelupan@@UAE@XZ			; CRaklionSelupan::~CRaklionSelupan
PUBLIC	??_R4CRaklionSelupan@@6B@			; CRaklionSelupan::`RTTI Complete Object Locator'
PUBLIC	??_R0?AVCRaklionSelupan@@@8			; CRaklionSelupan `RTTI Type Descriptor'
PUBLIC	??_R3CRaklionSelupan@@8				; CRaklionSelupan::`RTTI Class Hierarchy Descriptor'
PUBLIC	??_R2CRaklionSelupan@@8				; CRaklionSelupan::`RTTI Base Class Array'
PUBLIC	??_R1A@?0A@EA@CRaklionSelupan@@8		; CRaklionSelupan::`RTTI Base Class Descriptor at (0,-1,0,64)'
EXTRN	??_ECRaklionSelupan@@UAEPAXI@Z:PROC		; CRaklionSelupan::`vector deleting destructor'
;	COMDAT ??_R1A@?0A@EA@CRaklionSelupan@@8
rdata$r	SEGMENT
??_R1A@?0A@EA@CRaklionSelupan@@8 DD FLAT:??_R0?AVCRaklionSelupan@@@8 ; CRaklionSelupan::`RTTI Base Class Descriptor at (0,-1,0,64)'
	DD	00H
	DD	00H
	DD	0ffffffffH
	DD	00H
	DD	040H
	DD	FLAT:??_R3CRaklionSelupan@@8
rdata$r	ENDS
;	COMDAT ??_R2CRaklionSelupan@@8
rdata$r	SEGMENT
??_R2CRaklionSelupan@@8 DD FLAT:??_R1A@?0A@EA@CRaklionSelupan@@8 ; CRaklionSelupan::`RTTI Base Class Array'
rdata$r	ENDS
;	COMDAT ??_R3CRaklionSelupan@@8
rdata$r	SEGMENT
??_R3CRaklionSelupan@@8 DD 00H				; CRaklionSelupan::`RTTI Class Hierarchy Descriptor'
	DD	00H
	DD	01H
	DD	FLAT:??_R2CRaklionSelupan@@8
rdata$r	ENDS
;	COMDAT ??_R0?AVCRaklionSelupan@@@8
_DATA	SEGMENT
??_R0?AVCRaklionSelupan@@@8 DD FLAT:??_7type_info@@6B@	; CRaklionSelupan `RTTI Type Descriptor'
	DD	00H
	DB	'.?AVCRaklionSelupan@@', 00H
_DATA	ENDS
;	COMDAT ??_R4CRaklionSelupan@@6B@
rdata$r	SEGMENT
??_R4CRaklionSelupan@@6B@ DD 00H			; CRaklionSelupan::`RTTI Complete Object Locator'
	DD	00H
	DD	00H
	DD	FLAT:??_R0?AVCRaklionSelupan@@@8
	DD	FLAT:??_R3CRaklionSelupan@@8
rdata$r	ENDS
;	COMDAT ??_7CRaklionSelupan@@6B@
CONST	SEGMENT
??_7CRaklionSelupan@@6B@ DD FLAT:??_R4CRaklionSelupan@@6B@ ; CRaklionSelupan::`vftable'
	DD	FLAT:??_ECRaklionSelupan@@UAEPAXI@Z
; Function compile flags: /Ogtp
; File e:\work\tranet_version\gs\gameserver\raklionselupan.cpp
CONST	ENDS
;	COMDAT ??1CRaklionSelupan@@UAE@XZ
_TEXT	SEGMENT
??1CRaklionSelupan@@UAE@XZ PROC				; CRaklionSelupan::~CRaklionSelupan, COMDAT
; _this$ = ecx

; 23   : {

  00000	c7 01 00 00 00
	00		 mov	 DWORD PTR [ecx], OFFSET ??_7CRaklionSelupan@@6B@

; 24   : 
; 25   : }

  00006	c7 41 08 00 00
	00 00		 mov	 DWORD PTR [ecx+8], OFFSET ??_7CRaklionObjInfo@@6B@
  0000d	c3		 ret	 0
??1CRaklionSelupan@@UAE@XZ ENDP				; CRaklionSelupan::~CRaklionSelupan
_TEXT	ENDS
PUBLIC	?ClearData@CRaklionSelupan@@QAEXXZ		; CRaklionSelupan::ClearData
; Function compile flags: /Ogtp
;	COMDAT ?ClearData@CRaklionSelupan@@QAEXXZ
_TEXT	SEGMENT
?ClearData@CRaklionSelupan@@QAEXXZ PROC			; CRaklionSelupan::ClearData, COMDAT
; _this$ = ecx

; 29   : 	this->m_iSelupanObjIndex	= -1;
; 30   : 	this->m_iBerserkIndex		= 0;

  00000	33 c0		 xor	 eax, eax
  00002	c7 41 04 ff ff
	ff ff		 mov	 DWORD PTR [ecx+4], -1
  00009	89 81 94 0c 00
	00		 mov	 DWORD PTR [ecx+3220], eax

; 31   : 	this->m_iBossAttackMin		= 0;

  0000f	89 81 98 0c 00
	00		 mov	 DWORD PTR [ecx+3224], eax

; 32   : 	this->m_iBossAttackMax		= 0;

  00015	89 81 9c 0c 00
	00		 mov	 DWORD PTR [ecx+3228], eax

; 33   : }

  0001b	c3		 ret	 0
?ClearData@CRaklionSelupan@@QAEXXZ ENDP			; CRaklionSelupan::ClearData
_TEXT	ENDS
PUBLIC	??_C@_0DN@GNLDFGOG@?$FL?5RAKLION?5?$FN?5?$FL?5InitSelupanIndex?5?$FN@ ; `string'
PUBLIC	?InitSelupanObjIndex@CRaklionSelupan@@QAEXXZ	; CRaklionSelupan::InitSelupanObjIndex
EXTRN	?LogAddC@@3P6AXEPADZZA:DWORD			; LogAddC
EXTRN	?gObj@@3PAUOBJECTSTRUCT@@A:DWORD		; gObj
;	COMDAT ??_C@_0DN@GNLDFGOG@?$FL?5RAKLION?5?$FN?5?$FL?5InitSelupanIndex?5?$FN@
CONST	SEGMENT
??_C@_0DN@GNLDFGOG@?$FL?5RAKLION?5?$FN?5?$FL?5InitSelupanIndex?5?$FN@ DB '['
	DB	' RAKLION ] [ InitSelupanIndex ] error : SelupanObjIndex(%d)', 00H ; `string'
; Function compile flags: /Ogtp
CONST	ENDS
;	COMDAT ?InitSelupanObjIndex@CRaklionSelupan@@QAEXXZ
_TEXT	SEGMENT
?InitSelupanObjIndex@CRaklionSelupan@@QAEXXZ PROC	; CRaklionSelupan::InitSelupanObjIndex, COMDAT
; _this$ = ecx

; 324  : 	for(int i = 0;i < OBJ_MAXMONSTER;i++)

  00000	8b 15 00 00 00
	00		 mov	 edx, DWORD PTR ?gObj@@3PAUOBJECTSTRUCT@@A ; gObj
  00006	53		 push	 ebx
  00007	56		 push	 esi
  00008	33 c0		 xor	 eax, eax
  0000a	57		 push	 edi
  0000b	8d 70 02	 lea	 esi, DWORD PTR [eax+2]
  0000e	bf 03 00 00 00	 mov	 edi, 3
$LL6@InitSelupa:

; 325  : 	{
; 326  : 		if( gObj[i].Connected == PLAYER_PLAYING )

  00013	39 7c 10 04	 cmp	 DWORD PTR [eax+edx+4], edi
  00017	75 1b		 jne	 SHORT $LN5@InitSelupa

; 327  : 		{
; 328  : 			if( gObj[i].Class == 459)

  00019	bb cb 01 00 00	 mov	 ebx, 459		; 000001cbH
  0001e	66 39 9c 10 b8
	00 00 00	 cmp	 WORD PTR [eax+edx+184], bx
  00026	75 0c		 jne	 SHORT $LN5@InitSelupa

; 329  : 			{
; 330  : 				this->m_iSelupanObjIndex = i;

  00028	8d 56 fe	 lea	 edx, DWORD PTR [esi-2]
  0002b	89 51 04	 mov	 DWORD PTR [ecx+4], edx
  0002e	8b 15 00 00 00
	00		 mov	 edx, DWORD PTR ?gObj@@3PAUOBJECTSTRUCT@@A ; gObj
$LN5@InitSelupa:

; 325  : 	{
; 326  : 		if( gObj[i].Connected == PLAYER_PLAYING )

  00034	39 bc 10 54 2b
	00 00		 cmp	 DWORD PTR [eax+edx+11092], edi
  0003b	75 1b		 jne	 SHORT $LN12@InitSelupa

; 327  : 		{
; 328  : 			if( gObj[i].Class == 459)

  0003d	bb cb 01 00 00	 mov	 ebx, 459		; 000001cbH
  00042	66 39 9c 10 08
	2c 00 00	 cmp	 WORD PTR [eax+edx+11272], bx
  0004a	75 0c		 jne	 SHORT $LN12@InitSelupa

; 329  : 			{
; 330  : 				this->m_iSelupanObjIndex = i;

  0004c	8d 56 ff	 lea	 edx, DWORD PTR [esi-1]
  0004f	89 51 04	 mov	 DWORD PTR [ecx+4], edx
  00052	8b 15 00 00 00
	00		 mov	 edx, DWORD PTR ?gObj@@3PAUOBJECTSTRUCT@@A ; gObj
$LN12@InitSelupa:

; 325  : 	{
; 326  : 		if( gObj[i].Connected == PLAYER_PLAYING )

  00058	39 bc 10 a4 56
	00 00		 cmp	 DWORD PTR [eax+edx+22180], edi
  0005f	75 18		 jne	 SHORT $LN13@InitSelupa

; 327  : 		{
; 328  : 			if( gObj[i].Class == 459)

  00061	bb cb 01 00 00	 mov	 ebx, 459		; 000001cbH
  00066	66 39 9c 10 58
	57 00 00	 cmp	 WORD PTR [eax+edx+22360], bx
  0006e	75 09		 jne	 SHORT $LN13@InitSelupa

; 329  : 			{
; 330  : 				this->m_iSelupanObjIndex = i;

  00070	89 71 04	 mov	 DWORD PTR [ecx+4], esi
  00073	8b 15 00 00 00
	00		 mov	 edx, DWORD PTR ?gObj@@3PAUOBJECTSTRUCT@@A ; gObj
$LN13@InitSelupa:

; 325  : 	{
; 326  : 		if( gObj[i].Connected == PLAYER_PLAYING )

  00079	39 bc 10 f4 81
	00 00		 cmp	 DWORD PTR [eax+edx+33268], edi
  00080	75 1b		 jne	 SHORT $LN14@InitSelupa

; 327  : 		{
; 328  : 			if( gObj[i].Class == 459)

  00082	bb cb 01 00 00	 mov	 ebx, 459		; 000001cbH
  00087	66 39 9c 10 a8
	82 00 00	 cmp	 WORD PTR [eax+edx+33448], bx
  0008f	75 0c		 jne	 SHORT $LN14@InitSelupa

; 329  : 			{
; 330  : 				this->m_iSelupanObjIndex = i;

  00091	8d 56 01	 lea	 edx, DWORD PTR [esi+1]
  00094	89 51 04	 mov	 DWORD PTR [ecx+4], edx
  00097	8b 15 00 00 00
	00		 mov	 edx, DWORD PTR ?gObj@@3PAUOBJECTSTRUCT@@A ; gObj
$LN14@InitSelupa:

; 325  : 	{
; 326  : 		if( gObj[i].Connected == PLAYER_PLAYING )

  0009d	39 bc 10 44 ad
	00 00		 cmp	 DWORD PTR [eax+edx+44356], edi
  000a4	75 1b		 jne	 SHORT $LN15@InitSelupa

; 327  : 		{
; 328  : 			if( gObj[i].Class == 459)

  000a6	bb cb 01 00 00	 mov	 ebx, 459		; 000001cbH
  000ab	66 39 9c 10 f8
	ad 00 00	 cmp	 WORD PTR [eax+edx+44536], bx
  000b3	75 0c		 jne	 SHORT $LN15@InitSelupa

; 329  : 			{
; 330  : 				this->m_iSelupanObjIndex = i;

  000b5	8d 56 02	 lea	 edx, DWORD PTR [esi+2]
  000b8	89 51 04	 mov	 DWORD PTR [ecx+4], edx
  000bb	8b 15 00 00 00
	00		 mov	 edx, DWORD PTR ?gObj@@3PAUOBJECTSTRUCT@@A ; gObj
$LN15@InitSelupa:

; 324  : 	for(int i = 0;i < OBJ_MAXMONSTER;i++)

  000c1	83 c6 05	 add	 esi, 5
  000c4	8d 5e fe	 lea	 ebx, DWORD PTR [esi-2]
  000c7	05 90 d8 00 00	 add	 eax, 55440		; 0000d890H
  000cc	81 fb c8 32 00
	00		 cmp	 ebx, 13000		; 000032c8H
  000d2	0f 8c 3b ff ff
	ff		 jl	 $LL6@InitSelupa

; 331  : 			}
; 332  : 		}	
; 333  : 	}
; 334  : 
; 335  : 	if( this->m_iSelupanObjIndex == -1 )

  000d8	83 79 04 ff	 cmp	 DWORD PTR [ecx+4], -1
  000dc	5f		 pop	 edi
  000dd	5e		 pop	 esi
  000de	5b		 pop	 ebx
  000df	75 12		 jne	 SHORT $LN1@InitSelupa

; 336  : 	{
; 337  : 		LogAddC(2,"[ RAKLION ] [ InitSelupanIndex ] error : SelupanObjIndex(%d)",this->m_iSelupanObjIndex);

  000e1	6a ff		 push	 -1
  000e3	68 00 00 00 00	 push	 OFFSET ??_C@_0DN@GNLDFGOG@?$FL?5RAKLION?5?$FN?5?$FL?5InitSelupanIndex?5?$FN@
  000e8	6a 02		 push	 2
  000ea	ff 15 00 00 00
	00		 call	 DWORD PTR ?LogAddC@@3P6AXEPADZZA ; LogAddC
  000f0	83 c4 0c	 add	 esp, 12			; 0000000cH
$LN1@InitSelupa:

; 338  : 	}
; 339  : }

  000f3	c3		 ret	 0
?InitSelupanObjIndex@CRaklionSelupan@@QAEXXZ ENDP	; CRaklionSelupan::InitSelupanObjIndex
_TEXT	ENDS
PUBLIC	??_C@_0CK@FKMFPLA@?$FLRAKLION?$FN?5Create?5Selupan?5?3?5X?5?$CI?$CFd@ ; `string'
PUBLIC	??_C@_0BO@MCDHLBHK@?$FLRAKLION?$FN?5CreateSelupan?5error?$AA@ ; `string'
PUBLIC	?CreateSelupan@CRaklionSelupan@@QAEHXZ		; CRaklionSelupan::CreateSelupan
EXTRN	?gObjSetState@@YAXXZ:PROC			; gObjSetState
EXTRN	?gObjViewportListProtocol@@YAXF@Z:PROC		; gObjViewportListProtocol
EXTRN	?gObjViewportListCreate@@YAXF@Z:PROC		; gObjViewportListCreate
EXTRN	?gObjViewportListDestroy@@YAXF@Z:PROC		; gObjViewportListDestroy
EXTRN	?gObjStateSetCreate@@YAXH@Z:PROC		; gObjStateSetCreate
EXTRN	?gObjMonsterHitDamageInit@@YAXPAUOBJECTSTRUCT@@@Z:PROC ; gObjMonsterHitDamageInit
EXTRN	?gObjSetMonster@@YAHHH@Z:PROC			; gObjSetMonster
EXTRN	?gObjSetPosMonster@@YAHHH@Z:PROC		; gObjSetPosMonster
EXTRN	?LogAddTD@@3P6AXPADZZA:DWORD			; LogAddTD
EXTRN	?gObjAddMonster@@YAFH@Z:PROC			; gObjAddMonster
EXTRN	?gMSetBase@@3VCMonsterSetBase@@A:BYTE		; gMSetBase
;	COMDAT ??_C@_0CK@FKMFPLA@?$FLRAKLION?$FN?5Create?5Selupan?5?3?5X?5?$CI?$CFd@
CONST	SEGMENT
??_C@_0CK@FKMFPLA@?$FLRAKLION?$FN?5Create?5Selupan?5?3?5X?5?$CI?$CFd@ DB '['
	DB	'RAKLION] Create Selupan : X (%d) / Y(%d)', 00H ; `string'
CONST	ENDS
;	COMDAT ??_C@_0BO@MCDHLBHK@?$FLRAKLION?$FN?5CreateSelupan?5error?$AA@
CONST	SEGMENT
??_C@_0BO@MCDHLBHK@?$FLRAKLION?$FN?5CreateSelupan?5error?$AA@ DB '[RAKLIO'
	DB	'N] CreateSelupan error', 00H		; `string'
; Function compile flags: /Ogtp
CONST	ENDS
;	COMDAT ?CreateSelupan@CRaklionSelupan@@QAEHXZ
_TEXT	SEGMENT
_this$ = -8						; size = 4
_lpObj$ = -4						; size = 4
?CreateSelupan@CRaklionSelupan@@QAEHXZ PROC		; CRaklionSelupan::CreateSelupan, COMDAT
; _this$ = ecx

; 342  : {

  00000	55		 push	 ebp
  00001	8b ec		 mov	 ebp, esp
  00003	83 ec 08	 sub	 esp, 8

; 344  : 
; 345  : 	for ( int n=0;n<gMSetBase.m_Count;n++)

  00006	8b 15 84 2c 03
	00		 mov	 edx, DWORD PTR ?gMSetBase@@3VCMonsterSetBase@@A+208004
  0000c	53		 push	 ebx
  0000d	56		 push	 esi
  0000e	83 cb ff	 or	 ebx, -1
  00011	33 c0		 xor	 eax, eax
  00013	57		 push	 edi
  00014	89 4d f8	 mov	 DWORD PTR _this$[ebp], ecx
  00017	85 d2		 test	 edx, edx
  00019	7e 19		 jle	 SHORT $LN19@CreateSelu

; 343  : 	int m_Type = -1;

  0001b	b9 06 00 00 00	 mov	 ecx, OFFSET ?gMSetBase@@3VCMonsterSetBase@@A+6
$LL21@CreateSelu:

; 346  : 	{
; 347  : 		if( gMSetBase.m_Mp[n].m_Type == 459 )

  00020	be cb 01 00 00	 mov	 esi, 459		; 000001cbH
  00025	66 39 31	 cmp	 WORD PTR [ecx], si
  00028	75 02		 jne	 SHORT $LN20@CreateSelu

; 348  : 		{
; 349  : 			m_Type = n;

  0002a	8b d8		 mov	 ebx, eax
$LN20@CreateSelu:

; 344  : 
; 345  : 	for ( int n=0;n<gMSetBase.m_Count;n++)

  0002c	40		 inc	 eax
  0002d	83 c1 10	 add	 ecx, 16			; 00000010H
  00030	3b c2		 cmp	 eax, edx
  00032	7c ec		 jl	 SHORT $LL21@CreateSelu
$LN19@CreateSelu:

; 350  : 		}
; 351  : 	}
; 352  : 
; 353  : 	LPOBJ lpObj = NULL;
; 354  : 	int result = 0;
; 355  : 
; 356  : 
; 357  : 	result = gObjAddMonster(MAP_INDEX_RAKLION_BOSS);

  00034	6a 3a		 push	 58			; 0000003aH
  00036	e8 00 00 00 00	 call	 ?gObjAddMonster@@YAFH@Z	; gObjAddMonster
  0003b	0f bf f8	 movsx	 edi, ax
  0003e	83 c4 04	 add	 esp, 4

; 358  : 
; 359  : 	if ( result < 0 )

  00041	85 ff		 test	 edi, edi
  00043	79 17		 jns	 SHORT $LN17@CreateSelu

; 360  : 	{
; 361  : 		LogAddTD("[RAKLION] CreateSelupan error");

  00045	68 00 00 00 00	 push	 OFFSET ??_C@_0BO@MCDHLBHK@?$FLRAKLION?$FN?5CreateSelupan?5error?$AA@
  0004a	ff 15 00 00 00
	00		 call	 DWORD PTR ?LogAddTD@@3P6AXPADZZA ; LogAddTD
  00050	83 c4 04	 add	 esp, 4
  00053	5f		 pop	 edi
  00054	5e		 pop	 esi

; 362  : 		return FALSE;

  00055	33 c0		 xor	 eax, eax
  00057	5b		 pop	 ebx

; 427  : }

  00058	8b e5		 mov	 esp, ebp
  0005a	5d		 pop	 ebp
  0005b	c3		 ret	 0
$LN17@CreateSelu:

; 363  : 	}
; 364  : 	
; 365  : 	lpObj = &gObj[result];

  0005c	a1 00 00 00 00	 mov	 eax, DWORD PTR ?gObj@@3PAUOBJECTSTRUCT@@A ; gObj
  00061	8b f7		 mov	 esi, edi
  00063	69 f6 50 2b 00
	00		 imul	 esi, 11088		; 00002b50H
  00069	8d 0c 06	 lea	 ecx, DWORD PTR [esi+eax]

; 366  : 	
; 367  : 	gObjSetPosMonster(result, m_Type);

  0006c	53		 push	 ebx
  0006d	57		 push	 edi
  0006e	89 4d fc	 mov	 DWORD PTR _lpObj$[ebp], ecx
  00071	e8 00 00 00 00	 call	 ?gObjSetPosMonster@@YAHHH@Z ; gObjSetPosMonster

; 368  : 	
; 369  : 	gObjSetMonster(result, 459); 

  00076	68 cb 01 00 00	 push	 459			; 000001cbH
  0007b	57		 push	 edi
  0007c	e8 00 00 00 00	 call	 ?gObjSetMonster@@YAHHH@Z ; gObjSetMonster

; 370  : 
; 371  : 	#if(FIX_SELUPAN_REGEN)
; 372  : 	gObjMonsterHitDamageInit(&gObj[result]);

  00081	8b 15 00 00 00
	00		 mov	 edx, DWORD PTR ?gObj@@3PAUOBJECTSTRUCT@@A ; gObj
  00087	8d 04 16	 lea	 eax, DWORD PTR [esi+edx]
  0008a	50		 push	 eax
  0008b	e8 00 00 00 00	 call	 ?gObjMonsterHitDamageInit@@YAXPAUOBJECTSTRUCT@@@Z ; gObjMonsterHitDamageInit

; 373  : 	gObj[result].DieRegen = 0;

  00090	8b 0d 00 00 00
	00		 mov	 ecx, DWORD PTR ?gObj@@3PAUOBJECTSTRUCT@@A ; gObj

; 374  : 	gObj[result].m_State = 1;
; 375  : 	#endif
; 376  : 	
; 377  : 	LogAddTD("[RAKLION] Create Selupan : X (%d) / Y(%d)",lpObj->X,lpObj->Y);

  00096	8b 5d fc	 mov	 ebx, DWORD PTR _lpObj$[ebp]
  00099	c6 84 0e a2 03
	00 00 00	 mov	 BYTE PTR [esi+ecx+930], 0
  000a1	8b 15 00 00 00
	00		 mov	 edx, DWORD PTR ?gObj@@3PAUOBJECTSTRUCT@@A ; gObj
  000a7	c7 84 16 20 02
	00 00 01 00 00
	00		 mov	 DWORD PTR [esi+edx+544], 1
  000b2	0f bf 83 46 01
	00 00		 movsx	 eax, WORD PTR [ebx+326]
  000b9	0f bf 8b 44 01
	00 00		 movsx	 ecx, WORD PTR [ebx+324]
  000c0	50		 push	 eax
  000c1	51		 push	 ecx
  000c2	68 00 00 00 00	 push	 OFFSET ??_C@_0CK@FKMFPLA@?$FLRAKLION?$FN?5Create?5Selupan?5?3?5X?5?$CI?$CFd@
  000c7	ff 15 00 00 00
	00		 call	 DWORD PTR ?LogAddTD@@3P6AXPADZZA ; LogAddTD
  000cd	83 c4 20	 add	 esp, 32			; 00000020H

; 378  : 
; 379  : 	LPOBJ lpTargetObj = NULL;
; 380  : 
; 381  : 	for (int n=0;n<OBJMAX;n++)

  000d0	33 ff		 xor	 edi, edi
  000d2	33 f6		 xor	 esi, esi
  000d4	eb 0a 8d a4 24
	00 00 00 00 8d
	49 00		 npad	 12
$LL16@CreateSelu:

; 382  : 	{
; 383  : 		lpTargetObj = &gObj[n];
; 384  : 
; 385  : 		if(lpTargetObj->MapNumber == MAP_INDEX_RAKLION_BOSS)

  000e0	8b 15 00 00 00
	00		 mov	 edx, DWORD PTR ?gObj@@3PAUOBJECTSTRUCT@@A ; gObj
  000e6	80 bc 16 49 01
	00 00 3a	 cmp	 BYTE PTR [esi+edx+329], 58 ; 0000003aH
  000ee	75 09		 jne	 SHORT $LN15@CreateSelu

; 386  : 		{
; 387  : 			gObjStateSetCreate(n);

  000f0	57		 push	 edi
  000f1	e8 00 00 00 00	 call	 ?gObjStateSetCreate@@YAXH@Z ; gObjStateSetCreate
  000f6	83 c4 04	 add	 esp, 4
$LN15@CreateSelu:

; 378  : 
; 379  : 	LPOBJ lpTargetObj = NULL;
; 380  : 
; 381  : 	for (int n=0;n<OBJMAX;n++)

  000f9	81 c6 50 2b 00
	00		 add	 esi, 11088		; 00002b50H
  000ff	47		 inc	 edi
  00100	81 fe 80 d7 e9
	09		 cmp	 esi, 166320000		; 09e9d780H
  00106	7c d8		 jl	 SHORT $LL16@CreateSelu

; 388  : 		}
; 389  : 	}
; 390  : 
; 391  : 	for (int  n=0;n<OBJMAX;n++)

  00108	33 ff		 xor	 edi, edi
  0010a	33 f6		 xor	 esi, esi
  0010c	8d 64 24 00	 npad	 4
$LL12@CreateSelu:

; 392  : 	{
; 393  : 		lpTargetObj = &gObj[n];
; 394  : 
; 395  : 		if(lpTargetObj->MapNumber == MAP_INDEX_RAKLION_BOSS)

  00110	a1 00 00 00 00	 mov	 eax, DWORD PTR ?gObj@@3PAUOBJECTSTRUCT@@A ; gObj
  00115	80 bc 06 49 01
	00 00 3a	 cmp	 BYTE PTR [esi+eax+329], 58 ; 0000003aH
  0011d	75 09		 jne	 SHORT $LN11@CreateSelu

; 396  : 		{
; 397  : 			gObjViewportListDestroy(n);

  0011f	57		 push	 edi
  00120	e8 00 00 00 00	 call	 ?gObjViewportListDestroy@@YAXF@Z ; gObjViewportListDestroy
  00125	83 c4 04	 add	 esp, 4
$LN11@CreateSelu:

; 388  : 		}
; 389  : 	}
; 390  : 
; 391  : 	for (int  n=0;n<OBJMAX;n++)

  00128	81 c6 50 2b 00
	00		 add	 esi, 11088		; 00002b50H
  0012e	47		 inc	 edi
  0012f	81 fe 80 d7 e9
	09		 cmp	 esi, 166320000		; 09e9d780H
  00135	7c d9		 jl	 SHORT $LL12@CreateSelu

; 398  : 		}
; 399  : 	}
; 400  : 	
; 401  : 	for (int  n=0;n<OBJMAX;n++)

  00137	33 ff		 xor	 edi, edi
  00139	33 f6		 xor	 esi, esi
  0013b	eb 03 8d 49 00	 npad	 5
$LL8@CreateSelu:

; 402  : 	{
; 403  : 		lpTargetObj = &gObj[n];
; 404  : 
; 405  : 		if(lpTargetObj->MapNumber == MAP_INDEX_RAKLION_BOSS)

  00140	8b 0d 00 00 00
	00		 mov	 ecx, DWORD PTR ?gObj@@3PAUOBJECTSTRUCT@@A ; gObj
  00146	80 bc 0e 49 01
	00 00 3a	 cmp	 BYTE PTR [esi+ecx+329], 58 ; 0000003aH
  0014e	75 09		 jne	 SHORT $LN7@CreateSelu

; 406  : 		{
; 407  : 			gObjViewportListCreate(n);

  00150	57		 push	 edi
  00151	e8 00 00 00 00	 call	 ?gObjViewportListCreate@@YAXF@Z ; gObjViewportListCreate
  00156	83 c4 04	 add	 esp, 4
$LN7@CreateSelu:

; 398  : 		}
; 399  : 	}
; 400  : 	
; 401  : 	for (int  n=0;n<OBJMAX;n++)

  00159	81 c6 50 2b 00
	00		 add	 esi, 11088		; 00002b50H
  0015f	47		 inc	 edi
  00160	81 fe 80 d7 e9
	09		 cmp	 esi, 166320000		; 09e9d780H
  00166	7c d8		 jl	 SHORT $LL8@CreateSelu

; 408  : 		}
; 409  : 	}
; 410  : 	
; 411  : 	for (int n=0;n<OBJMAX;n++)

  00168	33 ff		 xor	 edi, edi
  0016a	33 f6		 xor	 esi, esi
  0016c	8d 64 24 00	 npad	 4
$LL4@CreateSelu:

; 412  : 	{
; 413  : 		lpTargetObj = &gObj[n];
; 414  : 
; 415  : 		if(lpTargetObj->MapNumber == MAP_INDEX_RAKLION_BOSS)

  00170	8b 15 00 00 00
	00		 mov	 edx, DWORD PTR ?gObj@@3PAUOBJECTSTRUCT@@A ; gObj
  00176	80 bc 16 49 01
	00 00 3a	 cmp	 BYTE PTR [esi+edx+329], 58 ; 0000003aH
  0017e	75 09		 jne	 SHORT $LN3@CreateSelu

; 416  : 		{
; 417  : 			gObjViewportListProtocol(n);

  00180	57		 push	 edi
  00181	e8 00 00 00 00	 call	 ?gObjViewportListProtocol@@YAXF@Z ; gObjViewportListProtocol
  00186	83 c4 04	 add	 esp, 4
$LN3@CreateSelu:

; 408  : 		}
; 409  : 	}
; 410  : 	
; 411  : 	for (int n=0;n<OBJMAX;n++)

  00189	81 c6 50 2b 00
	00		 add	 esi, 11088		; 00002b50H
  0018f	47		 inc	 edi
  00190	81 fe 80 d7 e9
	09		 cmp	 esi, 166320000		; 09e9d780H
  00196	7c d8		 jl	 SHORT $LL4@CreateSelu

; 418  : 		}
; 419  : 	}
; 420  : 
; 421  : 	gObjSetState();

  00198	e8 00 00 00 00	 call	 ?gObjSetState@@YAXXZ	; gObjSetState

; 422  : 
; 423  : 	this->m_iBossAttackMin = lpObj->m_AttackDamageMin;

  0019d	8b 8b 60 04 00
	00		 mov	 ecx, DWORD PTR [ebx+1120]
  001a3	8b 45 f8	 mov	 eax, DWORD PTR _this$[ebp]
  001a6	89 88 98 0c 00
	00		 mov	 DWORD PTR [eax+3224], ecx

; 424  : 	this->m_iBossAttackMax = lpObj->m_AttackDamageMax;

  001ac	8b 93 64 04 00
	00		 mov	 edx, DWORD PTR [ebx+1124]
  001b2	5f		 pop	 edi
  001b3	5e		 pop	 esi
  001b4	89 90 9c 0c 00
	00		 mov	 DWORD PTR [eax+3228], edx

; 425  : 
; 426  : 	return TRUE;

  001ba	b8 01 00 00 00	 mov	 eax, 1
  001bf	5b		 pop	 ebx

; 427  : }

  001c0	8b e5		 mov	 esp, ebp
  001c2	5d		 pop	 ebp
  001c3	c3		 ret	 0
?CreateSelupan@CRaklionSelupan@@QAEHXZ ENDP		; CRaklionSelupan::CreateSelupan
_TEXT	ENDS
PUBLIC	??_C@_0EB@HCMLCFKN@?$FL?5RAKLION?5?$FN?$FL?5SetSelupanSkillDela@ ; `string'
PUBLIC	?SetSelupanSkillDelay@CRaklionSelupan@@QAEXH@Z	; CRaklionSelupan::SetSelupanSkillDelay
;	COMDAT ??_C@_0EB@HCMLCFKN@?$FL?5RAKLION?5?$FN?$FL?5SetSelupanSkillDela@
CONST	SEGMENT
??_C@_0EB@HCMLCFKN@?$FL?5RAKLION?5?$FN?$FL?5SetSelupanSkillDela@ DB '[ RA'
	DB	'KLION ][ SetSelupanSkillDelay ] SkillDelay error : Delay(%d)', 00H ; `string'
; Function compile flags: /Ogtp
CONST	ENDS
;	COMDAT ?SetSelupanSkillDelay@CRaklionSelupan@@QAEXH@Z
_TEXT	SEGMENT
_SkillDelay$ = 8					; size = 4
?SetSelupanSkillDelay@CRaklionSelupan@@QAEXH@Z PROC	; CRaklionSelupan::SetSelupanSkillDelay, COMDAT
; _this$ = ecx

; 453  : {

  00000	55		 push	 ebp
  00001	8b ec		 mov	 ebp, esp

; 454  : 	if ( SkillDelay < 0 || SkillDelay > 50000 )

  00003	8b 45 08	 mov	 eax, DWORD PTR _SkillDelay$[ebp]
  00006	3d 50 c3 00 00	 cmp	 eax, 50000		; 0000c350H
  0000b	77 0a		 ja	 SHORT $LN1@SetSelupan

; 457  : 		return;
; 458  : 	}
; 459  : 	
; 460  : 	this->m_iSelupanSkillDelay = SkillDelay;

  0000d	89 81 90 0c 00
	00		 mov	 DWORD PTR [ecx+3216], eax

; 461  : }

  00013	5d		 pop	 ebp
  00014	c2 04 00	 ret	 4
$LN1@SetSelupan:

; 455  : 	{
; 456  : 		LogAddC(2,"[ RAKLION ][ SetSelupanSkillDelay ] SkillDelay error : Delay(%d)",this->m_iSelupanSkillDelay);

  00017	8b 81 90 0c 00
	00		 mov	 eax, DWORD PTR [ecx+3216]
  0001d	50		 push	 eax
  0001e	68 00 00 00 00	 push	 OFFSET ??_C@_0EB@HCMLCFKN@?$FL?5RAKLION?5?$FN?$FL?5SetSelupanSkillDela@
  00023	6a 02		 push	 2
  00025	ff 15 00 00 00
	00		 call	 DWORD PTR ?LogAddC@@3P6AXEPADZZA ; LogAddC
  0002b	83 c4 0c	 add	 esp, 12			; 0000000cH

; 461  : }

  0002e	5d		 pop	 ebp
  0002f	c2 04 00	 ret	 4
?SetSelupanSkillDelay@CRaklionSelupan@@QAEXH@Z ENDP	; CRaklionSelupan::SetSelupanSkillDelay
_TEXT	ENDS
PUBLIC	??_C@_0EB@CEPDAMEN@?$FL?5RAKLION?5?$FN?$FL?5GetSelupanSkillDela@ ; `string'
PUBLIC	?GetSelupanSkillDelay@CRaklionSelupan@@QAEHXZ	; CRaklionSelupan::GetSelupanSkillDelay
;	COMDAT ??_C@_0EB@CEPDAMEN@?$FL?5RAKLION?5?$FN?$FL?5GetSelupanSkillDela@
CONST	SEGMENT
??_C@_0EB@CEPDAMEN@?$FL?5RAKLION?5?$FN?$FL?5GetSelupanSkillDela@ DB '[ RA'
	DB	'KLION ][ GetSelupanSkillDelay ] SkillDelay error : Delay(%d)', 00H ; `string'
; Function compile flags: /Ogtp
CONST	ENDS
;	COMDAT ?GetSelupanSkillDelay@CRaklionSelupan@@QAEHXZ
_TEXT	SEGMENT
?GetSelupanSkillDelay@CRaklionSelupan@@QAEHXZ PROC	; CRaklionSelupan::GetSelupanSkillDelay, COMDAT
; _this$ = ecx

; 465  : 	if ( this->m_iSelupanSkillDelay < 0 || this->m_iSelupanSkillDelay > 50000 )

  00000	8b 81 90 0c 00
	00		 mov	 eax, DWORD PTR [ecx+3216]
  00006	85 c0		 test	 eax, eax
  00008	78 07		 js	 SHORT $LN1@GetSelupan
  0000a	3d 50 c3 00 00	 cmp	 eax, 50000		; 0000c350H

; 469  : 	}
; 470  : 
; 471  : 	return this->m_iSelupanSkillDelay;

  0000f	7e 14		 jle	 SHORT $LN3@GetSelupan
$LN1@GetSelupan:

; 466  : 	{
; 467  : 		LogAddC(2,"[ RAKLION ][ GetSelupanSkillDelay ] SkillDelay error : Delay(%d)",this->m_iSelupanSkillDelay);

  00011	50		 push	 eax
  00012	68 00 00 00 00	 push	 OFFSET ??_C@_0EB@CEPDAMEN@?$FL?5RAKLION?5?$FN?$FL?5GetSelupanSkillDela@
  00017	6a 02		 push	 2
  00019	ff 15 00 00 00
	00		 call	 DWORD PTR ?LogAddC@@3P6AXEPADZZA ; LogAddC
  0001f	83 c4 0c	 add	 esp, 12			; 0000000cH

; 468  : 		return -1;

  00022	83 c8 ff	 or	 eax, -1
$LN3@GetSelupan:

; 472  : }

  00025	c3		 ret	 0
?GetSelupanSkillDelay@CRaklionSelupan@@QAEHXZ ENDP	; CRaklionSelupan::GetSelupanSkillDelay
_TEXT	ENDS
PUBLIC	?GetBerserkIndex@CRaklionSelupan@@QAEHXZ	; CRaklionSelupan::GetBerserkIndex
; Function compile flags: /Ogtp
;	COMDAT ?GetBerserkIndex@CRaklionSelupan@@QAEHXZ
_TEXT	SEGMENT
?GetBerserkIndex@CRaklionSelupan@@QAEHXZ PROC		; CRaklionSelupan::GetBerserkIndex, COMDAT
; _this$ = ecx

; 476  : 	return this->m_iBerserkIndex;

  00000	8b 81 94 0c 00
	00		 mov	 eax, DWORD PTR [ecx+3220]

; 477  : }

  00006	c3		 ret	 0
?GetBerserkIndex@CRaklionSelupan@@QAEHXZ ENDP		; CRaklionSelupan::GetBerserkIndex
_TEXT	ENDS
PUBLIC	?SetBossAttackDamage@CRaklionSelupan@@QAEXHH@Z	; CRaklionSelupan::SetBossAttackDamage
; Function compile flags: /Ogtp
;	COMDAT ?SetBossAttackDamage@CRaklionSelupan@@QAEXHH@Z
_TEXT	SEGMENT
_DamageMin$ = 8						; size = 4
_DamageMax$ = 12					; size = 4
?SetBossAttackDamage@CRaklionSelupan@@QAEXHH@Z PROC	; CRaklionSelupan::SetBossAttackDamage, COMDAT
; _this$ = ecx

; 480  : {

  00000	55		 push	 ebp
  00001	8b ec		 mov	 ebp, esp

; 481  : 	this->m_iBossAttackMin = DamageMin;

  00003	8b 45 08	 mov	 eax, DWORD PTR _DamageMin$[ebp]

; 482  : 	this->m_iBossAttackMax = DamageMax;

  00006	8b 55 0c	 mov	 edx, DWORD PTR _DamageMax$[ebp]
  00009	89 81 98 0c 00
	00		 mov	 DWORD PTR [ecx+3224], eax
  0000f	89 91 9c 0c 00
	00		 mov	 DWORD PTR [ecx+3228], edx

; 483  : }

  00015	5d		 pop	 ebp
  00016	c2 08 00	 ret	 8
?SetBossAttackDamage@CRaklionSelupan@@QAEXHH@Z ENDP	; CRaklionSelupan::SetBossAttackDamage
_TEXT	ENDS
PUBLIC	??_C@_0EE@JEAHABCI@?$FL?5RAKLION?5?$FN?$FL?5SetSelupanObjIndex?5@ ; `string'
PUBLIC	?SetSelupanObjIndex@CRaklionSelupan@@QAEXH@Z	; CRaklionSelupan::SetSelupanObjIndex
;	COMDAT ??_C@_0EE@JEAHABCI@?$FL?5RAKLION?5?$FN?$FL?5SetSelupanObjIndex?5@
CONST	SEGMENT
??_C@_0EE@JEAHABCI@?$FL?5RAKLION?5?$FN?$FL?5SetSelupanObjIndex?5@ DB '[ R'
	DB	'AKLION ][ SetSelupanObjIndex ] SelupanObjIndex error : Index('
	DB	'%d)', 00H					; `string'
; Function compile flags: /Ogtp
CONST	ENDS
;	COMDAT ?SetSelupanObjIndex@CRaklionSelupan@@QAEXH@Z
_TEXT	SEGMENT
_arg1$ = 8						; size = 4
?SetSelupanObjIndex@CRaklionSelupan@@QAEXH@Z PROC	; CRaklionSelupan::SetSelupanObjIndex, COMDAT
; _this$ = ecx

; 486  : {

  00000	55		 push	 ebp
  00001	8b ec		 mov	 ebp, esp

; 487  : 	if ( arg1 < 0 || arg1 > OBJ_MAXMONSTER ) 

  00003	8b 45 08	 mov	 eax, DWORD PTR _arg1$[ebp]
  00006	3d c8 32 00 00	 cmp	 eax, 13000		; 000032c8H
  0000b	77 07		 ja	 SHORT $LN1@SetSelupan@2

; 490  : 		return;
; 491  : 	}
; 492  : 
; 493  : 	this->m_iSelupanObjIndex = arg1;

  0000d	89 41 04	 mov	 DWORD PTR [ecx+4], eax

; 494  : }

  00010	5d		 pop	 ebp
  00011	c2 04 00	 ret	 4
$LN1@SetSelupan@2:

; 488  : 	{
; 489  : 		LogAddC(2,"[ RAKLION ][ SetSelupanObjIndex ] SelupanObjIndex error : Index(%d)", arg1);

  00014	50		 push	 eax
  00015	68 00 00 00 00	 push	 OFFSET ??_C@_0EE@JEAHABCI@?$FL?5RAKLION?5?$FN?$FL?5SetSelupanObjIndex?5@
  0001a	6a 02		 push	 2
  0001c	ff 15 00 00 00
	00		 call	 DWORD PTR ?LogAddC@@3P6AXEPADZZA ; LogAddC
  00022	83 c4 0c	 add	 esp, 12			; 0000000cH

; 494  : }

  00025	5d		 pop	 ebp
  00026	c2 04 00	 ret	 4
?SetSelupanObjIndex@CRaklionSelupan@@QAEXH@Z ENDP	; CRaklionSelupan::SetSelupanObjIndex
_TEXT	ENDS
PUBLIC	?GetSelupanObjIndex@CRaklionSelupan@@QAEHXZ	; CRaklionSelupan::GetSelupanObjIndex
; Function compile flags: /Ogtp
;	COMDAT ?GetSelupanObjIndex@CRaklionSelupan@@QAEHXZ
_TEXT	SEGMENT
?GetSelupanObjIndex@CRaklionSelupan@@QAEHXZ PROC	; CRaklionSelupan::GetSelupanObjIndex, COMDAT
; _this$ = ecx

; 497  : {

  00000	56		 push	 esi
  00001	8b f1		 mov	 esi, ecx

; 498  : 	this->InitSelupanObjIndex();

  00003	e8 00 00 00 00	 call	 ?InitSelupanObjIndex@CRaklionSelupan@@QAEXXZ ; CRaklionSelupan::InitSelupanObjIndex

; 499  : 
; 500  : 	return this->m_iSelupanObjIndex;

  00008	8b 46 04	 mov	 eax, DWORD PTR [esi+4]
  0000b	5e		 pop	 esi

; 501  : }

  0000c	c3		 ret	 0
?GetSelupanObjIndex@CRaklionSelupan@@QAEHXZ ENDP	; CRaklionSelupan::GetSelupanObjIndex
_TEXT	ENDS
PUBLIC	??_C@_0DB@NHKFKAEF@?$FLRAKLION?$FN?5Summoned?5Monster?5?3?5?$CFs?5@ ; `string'
PUBLIC	?CreateSummonMonster@CRaklionSelupan@@QAEXXZ	; CRaklionSelupan::CreateSummonMonster
EXTRN	?gObjDel@@YAFH@Z:PROC				; gObjDel
EXTRN	?gObjCharZeroSet@@YAXH@Z:PROC			; gObjCharZeroSet
;	COMDAT ??_C@_0DB@NHKFKAEF@?$FLRAKLION?$FN?5Summoned?5Monster?5?3?5?$CFs?5@
CONST	SEGMENT
??_C@_0DB@NHKFKAEF@?$FLRAKLION?$FN?5Summoned?5Monster?5?3?5?$CFs?5@ DB '['
	DB	'RAKLION] Summoned Monster : %s => X-(%d) Y-(%d)', 00H ; `string'
; Function compile flags: /Ogtp
CONST	ENDS
;	COMDAT ?CreateSummonMonster@CRaklionSelupan@@QAEXXZ
_TEXT	SEGMENT
_loc3$ = -4						; size = 4
?CreateSummonMonster@CRaklionSelupan@@QAEXXZ PROC	; CRaklionSelupan::CreateSummonMonster, COMDAT
; _this$ = ecx

; 504  : {

  00000	55		 push	 ebp
  00001	8b ec		 mov	 ebp, esp
  00003	51		 push	 ecx
  00004	56		 push	 esi

; 505  : 	LPOBJ lpObj = NULL;//loc2 
; 506  : 	int loc3 = -1;
; 507  : 	int loc4 = -1;
; 508  : 
; 509  : 	for (int i = 0; i < OBJ_MAXMONSTER; ++i )

  00005	8b 35 00 00 00
	00		 mov	 esi, DWORD PTR ?gObj@@3PAUOBJECTSTRUCT@@A ; gObj
  0000b	33 c9		 xor	 ecx, ecx
  0000d	57		 push	 edi
  0000e	81 c6 b8 00 00
	00		 add	 esi, 184		; 000000b8H
  00014	8d 51 03	 lea	 edx, DWORD PTR [ecx+3]
$LL8@CreateSumm:

; 510  : 	{
; 511  : 		lpObj = &gObj[i];
; 512  : 
; 513  : 		if ( lpObj->MapNumber != MAP_INDEX_RAKLION_BOSS )

  00017	80 be 91 00 00
	00 3a		 cmp	 BYTE PTR [esi+145], 58	; 0000003aH
  0001e	75 2e		 jne	 SHORT $LN7@CreateSumm

; 514  : 		{
; 515  : 			continue;
; 516  : 		}
; 517  : 
; 518  : 		if(lpObj->Class == 457 || lpObj->Class == 458)

  00020	0f b7 06	 movzx	 eax, WORD PTR [esi]
  00023	bf c9 01 00 00	 mov	 edi, 457		; 000001c9H
  00028	66 3b c7	 cmp	 ax, di
  0002b	74 0a		 je	 SHORT $LN3@CreateSumm
  0002d	bf ca 01 00 00	 mov	 edi, 458		; 000001caH
  00032	66 3b c7	 cmp	 ax, di
  00035	75 17		 jne	 SHORT $LN7@CreateSumm
$LN3@CreateSumm:

; 519  : 		{
; 520  : 			if(lpObj->Connected == 3 && lpObj->DieRegen == 0 && lpObj->Live == 1) 

  00037	39 96 4c ff ff
	ff		 cmp	 DWORD PTR [esi-180], edx
  0003d	75 24		 jne	 SHORT $LN2@CreateSumm
  0003f	80 be ea 02 00
	00 00		 cmp	 BYTE PTR [esi+746], 0
  00046	75 1b		 jne	 SHORT $LN2@CreateSumm
  00048	80 7e b2 01	 cmp	 BYTE PTR [esi-78], 1
  0004c	75 15		 jne	 SHORT $LN2@CreateSumm
$LN7@CreateSumm:

; 505  : 	LPOBJ lpObj = NULL;//loc2 
; 506  : 	int loc3 = -1;
; 507  : 	int loc4 = -1;
; 508  : 
; 509  : 	for (int i = 0; i < OBJ_MAXMONSTER; ++i )

  0004e	41		 inc	 ecx
  0004f	81 c6 50 2b 00
	00		 add	 esi, 11088		; 00002b50H
  00055	81 f9 c8 32 00
	00		 cmp	 ecx, 13000		; 000032c8H
  0005b	7c ba		 jl	 SHORT $LL8@CreateSumm
  0005d	5f		 pop	 edi
  0005e	5e		 pop	 esi

; 549  : 			return;
; 550  : 		}
; 551  : 	}
; 552  : }

  0005f	8b e5		 mov	 esp, ebp
  00061	5d		 pop	 ebp
  00062	c3		 ret	 0
$LN2@CreateSumm:

; 521  : 			{
; 522  : 				continue;
; 523  : 			}
; 524  : 
; 525  : 			loc4 = lpObj->Class;
; 526  : 			loc3 = lpObj->m_PosNum;

  00063	0f bf 86 f8 02
	00 00		 movsx	 eax, WORD PTR [esi+760]
  0006a	53		 push	 ebx
  0006b	0f b7 1e	 movzx	 ebx, WORD PTR [esi]

; 527  : 			
; 528  : 			gObjCharZeroSet(i);

  0006e	51		 push	 ecx
  0006f	89 45 fc	 mov	 DWORD PTR _loc3$[ebp], eax
  00072	e8 00 00 00 00	 call	 ?gObjCharZeroSet@@YAXH@Z ; gObjCharZeroSet

; 529  : 			
; 530  : 			gObjDel(lpObj->m_Index);

  00077	8b 8e 48 ff ff
	ff		 mov	 ecx, DWORD PTR [esi-184]
  0007d	51		 push	 ecx
  0007e	e8 00 00 00 00	 call	 ?gObjDel@@YAFH@Z	; gObjDel

; 531  : 
; 532  : 			lpObj->Class = 0;

  00083	33 d2		 xor	 edx, edx

; 533  : 
; 534  : 			int iMonsterIndex = gObjAddMonster(MAP_INDEX_RAKLION_BOSS);

  00085	6a 3a		 push	 58			; 0000003aH
  00087	66 89 16	 mov	 WORD PTR [esi], dx
  0008a	e8 00 00 00 00	 call	 ?gObjAddMonster@@YAFH@Z	; gObjAddMonster
  0008f	0f bf f8	 movsx	 edi, ax

; 535  : 
; 536  : 			lpObj = &gObj[iMonsterIndex];

  00092	8b f7		 mov	 esi, edi
  00094	69 f6 50 2b 00
	00		 imul	 esi, 11088		; 00002b50H
  0009a	03 35 00 00 00
	00		 add	 esi, DWORD PTR ?gObj@@3PAUOBJECTSTRUCT@@A ; gObj
  000a0	83 c4 0c	 add	 esp, 12			; 0000000cH

; 537  : 
; 538  : 			if (iMonsterIndex >= 0)

  000a3	85 ff		 test	 edi, edi
  000a5	78 45		 js	 SHORT $LN1@CreateSumm

; 539  : 			{
; 540  : 				gObjSetPosMonster(iMonsterIndex, loc3);

  000a7	8b 45 fc	 mov	 eax, DWORD PTR _loc3$[ebp]
  000aa	50		 push	 eax
  000ab	57		 push	 edi
  000ac	e8 00 00 00 00	 call	 ?gObjSetPosMonster@@YAHHH@Z ; gObjSetPosMonster

; 541  : 				gObjSetMonster(iMonsterIndex, loc4); 

  000b1	53		 push	 ebx
  000b2	57		 push	 edi
  000b3	e8 00 00 00 00	 call	 ?gObjSetMonster@@YAHHH@Z ; gObjSetMonster

; 542  : 				lpObj->Live = 1;
; 543  : 				lpObj->DieRegen = 0;
; 544  : 				LogAddTD("[RAKLION] Summoned Monster : %s => X-(%d) Y-(%d)",lpObj->Name,lpObj->X,lpObj->Y);

  000b8	0f bf 8e 46 01
	00 00		 movsx	 ecx, WORD PTR [esi+326]
  000bf	0f bf 96 44 01
	00 00		 movsx	 edx, WORD PTR [esi+324]
  000c6	51		 push	 ecx
  000c7	c6 46 6a 01	 mov	 BYTE PTR [esi+106], 1
  000cb	c6 86 a2 03 00
	00 00		 mov	 BYTE PTR [esi+930], 0
  000d2	52		 push	 edx
  000d3	83 c6 77	 add	 esi, 119		; 00000077H
  000d6	56		 push	 esi
  000d7	68 00 00 00 00	 push	 OFFSET ??_C@_0DB@NHKFKAEF@?$FLRAKLION?$FN?5Summoned?5Monster?5?3?5?$CFs?5@
  000dc	ff 15 00 00 00
	00		 call	 DWORD PTR ?LogAddTD@@3P6AXPADZZA ; LogAddTD
  000e2	83 c4 20	 add	 esp, 32			; 00000020H
  000e5	5b		 pop	 ebx
  000e6	5f		 pop	 edi
  000e7	5e		 pop	 esi

; 549  : 			return;
; 550  : 		}
; 551  : 	}
; 552  : }

  000e8	8b e5		 mov	 esp, ebp
  000ea	5d		 pop	 ebp
  000eb	c3		 ret	 0
$LN1@CreateSumm:

; 545  : 				return;
; 546  : 			}
; 547  : 
; 548  : 			LogAddTD("[RAKLION] CreateSelupan error");	

  000ec	68 00 00 00 00	 push	 OFFSET ??_C@_0BO@MCDHLBHK@?$FLRAKLION?$FN?5CreateSelupan?5error?$AA@
  000f1	ff 15 00 00 00
	00		 call	 DWORD PTR ?LogAddTD@@3P6AXPADZZA ; LogAddTD
  000f7	83 c4 04	 add	 esp, 4
  000fa	5b		 pop	 ebx
  000fb	5f		 pop	 edi
  000fc	5e		 pop	 esi

; 549  : 			return;
; 550  : 		}
; 551  : 	}
; 552  : }

  000fd	8b e5		 mov	 esp, ebp
  000ff	5d		 pop	 ebp
  00100	c3		 ret	 0
?CreateSummonMonster@CRaklionSelupan@@QAEXXZ ENDP	; CRaklionSelupan::CreateSummonMonster
_TEXT	ENDS
PUBLIC	??_C@_0DN@EPHHAGJF@?$FL?5RAKLION?5?$FN?5?$FL?5DeleteSummonMonste@ ; `string'
PUBLIC	?DeleteSummonMonster@CRaklionSelupan@@QAEXXZ	; CRaklionSelupan::DeleteSummonMonster
EXTRN	?gObjViewportClose@@YAXPAUOBJECTSTRUCT@@@Z:PROC	; gObjViewportClose
EXTRN	?gObjViewportListProtocolDestroy@@YAXPAUOBJECTSTRUCT@@@Z:PROC ; gObjViewportListProtocolDestroy
;	COMDAT ??_C@_0DN@EPHHAGJF@?$FL?5RAKLION?5?$FN?5?$FL?5DeleteSummonMonste@
CONST	SEGMENT
??_C@_0DN@EPHHAGJF@?$FL?5RAKLION?5?$FN?5?$FL?5DeleteSummonMonste@ DB '[ R'
	DB	'AKLION ] [ DeleteSummonMonster ] Delete All SummonMonster', 00H ; `string'
; Function compile flags: /Ogtp
CONST	ENDS
;	COMDAT ?DeleteSummonMonster@CRaklionSelupan@@QAEXXZ
_TEXT	SEGMENT
?DeleteSummonMonster@CRaklionSelupan@@QAEXXZ PROC	; CRaklionSelupan::DeleteSummonMonster, COMDAT
; _this$ = ecx

; 555  : {

  00000	56		 push	 esi
  00001	57		 push	 edi

; 556  : 	LPOBJ lpObj = NULL;
; 557  : 
; 558  : 	for(int i=0;i< OBJ_MAXMONSTER;i++)

  00002	33 ff		 xor	 edi, edi
  00004	eb 0a 8d a4 24
	00 00 00 00 8d
	49 00		 npad	 12
$LL6@DeleteSumm:

; 559  : 	{
; 560  : 		lpObj = &gObj[i];

  00010	a1 00 00 00 00	 mov	 eax, DWORD PTR ?gObj@@3PAUOBJECTSTRUCT@@A ; gObj

; 561  : 
; 562  : 		if(lpObj->MapNumber != MAP_INDEX_RAKLION_BOSS)

  00015	80 bc 07 49 01
	00 00 3a	 cmp	 BYTE PTR [edi+eax+329], 58 ; 0000003aH
  0001d	8d 34 07	 lea	 esi, DWORD PTR [edi+eax]
  00020	75 3d		 jne	 SHORT $LN5@DeleteSumm

; 563  : 		{
; 564  : 			continue;
; 565  : 		}
; 566  : 			
; 567  : 		if(lpObj->Class == 457 || lpObj->Class == 458)

  00022	0f b7 86 b8 00
	00 00		 movzx	 eax, WORD PTR [esi+184]
  00029	b9 c9 01 00 00	 mov	 ecx, 457		; 000001c9H
  0002e	66 3b c1	 cmp	 ax, cx
  00031	74 0a		 je	 SHORT $LN1@DeleteSumm
  00033	ba ca 01 00 00	 mov	 edx, 458		; 000001caH
  00038	66 3b c2	 cmp	 ax, dx
  0003b	75 22		 jne	 SHORT $LN5@DeleteSumm
$LN1@DeleteSumm:

; 568  : 		{
; 569  : 			gObjViewportListProtocolDestroy(lpObj);

  0003d	56		 push	 esi
  0003e	e8 00 00 00 00	 call	 ?gObjViewportListProtocolDestroy@@YAXPAUOBJECTSTRUCT@@@Z ; gObjViewportListProtocolDestroy

; 570  : 			gObjViewportClose(lpObj);

  00043	56		 push	 esi
  00044	e8 00 00 00 00	 call	 ?gObjViewportClose@@YAXPAUOBJECTSTRUCT@@@Z ; gObjViewportClose

; 571  : 			gObjDel(lpObj->m_Index);

  00049	8b 06		 mov	 eax, DWORD PTR [esi]
  0004b	50		 push	 eax
  0004c	e8 00 00 00 00	 call	 ?gObjDel@@YAFH@Z	; gObjDel
  00051	83 c4 0c	 add	 esp, 12			; 0000000cH

; 572  : 			lpObj->Live = FALSE; 

  00054	c6 46 6a 00	 mov	 BYTE PTR [esi+106], 0

; 573  : 			lpObj->DieRegen = TRUE;

  00058	c6 86 a2 03 00
	00 01		 mov	 BYTE PTR [esi+930], 1
$LN5@DeleteSumm:

; 556  : 	LPOBJ lpObj = NULL;
; 557  : 
; 558  : 	for(int i=0;i< OBJ_MAXMONSTER;i++)

  0005f	81 c7 50 2b 00
	00		 add	 edi, 11088		; 00002b50H
  00065	81 ff 80 76 97
	08		 cmp	 edi, 144144000		; 08977680H
  0006b	7c a3		 jl	 SHORT $LL6@DeleteSumm

; 574  : 		}
; 575  : 	}
; 576  : 
; 577  : 	LogAddC(5,"[ RAKLION ] [ DeleteSummonMonster ] Delete All SummonMonster");

  0006d	68 00 00 00 00	 push	 OFFSET ??_C@_0DN@EPHHAGJF@?$FL?5RAKLION?5?$FN?5?$FL?5DeleteSummonMonste@
  00072	6a 05		 push	 5
  00074	ff 15 00 00 00
	00		 call	 DWORD PTR ?LogAddC@@3P6AXEPADZZA ; LogAddC
  0007a	83 c4 08	 add	 esp, 8
  0007d	5f		 pop	 edi
  0007e	5e		 pop	 esi

; 578  : }

  0007f	c3		 ret	 0
?DeleteSummonMonster@CRaklionSelupan@@QAEXXZ ENDP	; CRaklionSelupan::DeleteSummonMonster
_TEXT	ENDS
PUBLIC	??0CRaklionObjInfo@@QAE@XZ			; CRaklionObjInfo::CRaklionObjInfo
; Function compile flags: /Ogtp
; File e:\work\tranet_version\gs\gameserver\raklionobjinfo.h
;	COMDAT ??0CRaklionObjInfo@@QAE@XZ
_TEXT	SEGMENT
??0CRaklionObjInfo@@QAE@XZ PROC				; CRaklionObjInfo::CRaklionObjInfo, COMDAT
; _this$ = ecx

; 15   : 	CRaklionObjInfo() { this->Reset(); }

  00000	8b d1		 mov	 edx, ecx
  00002	57		 push	 edi
  00003	83 c8 ff	 or	 eax, -1
  00006	8d 7a 08	 lea	 edi, DWORD PTR [edx+8]
  00009	b9 20 03 00 00	 mov	 ecx, 800		; 00000320H
  0000e	c7 02 00 00 00
	00		 mov	 DWORD PTR [edx], OFFSET ??_7CRaklionObjInfo@@6B@
  00014	f3 ab		 rep stosd
  00016	c7 42 04 00 00
	00 00		 mov	 DWORD PTR [edx+4], 0
  0001d	8b c2		 mov	 eax, edx
  0001f	5f		 pop	 edi
  00020	c3		 ret	 0
??0CRaklionObjInfo@@QAE@XZ ENDP				; CRaklionObjInfo::CRaklionObjInfo
_TEXT	ENDS
PUBLIC	??0CRaklionSelupan@@QAE@XZ			; CRaklionSelupan::CRaklionSelupan
; Function compile flags: /Ogtp
; File e:\work\tranet_version\gs\gameserver\raklionselupan.cpp
;	COMDAT ??0CRaklionSelupan@@QAE@XZ
_TEXT	SEGMENT
??0CRaklionSelupan@@QAE@XZ PROC				; CRaklionSelupan::CRaklionSelupan, COMDAT
; _this$ = ecx

; 18   : {

  00000	8b d1		 mov	 edx, ecx
  00002	57		 push	 edi
  00003	c7 02 00 00 00
	00		 mov	 DWORD PTR [edx], OFFSET ??_7CRaklionSelupan@@6B@
  00009	83 c8 ff	 or	 eax, -1
  0000c	c7 42 08 00 00
	00 00		 mov	 DWORD PTR [edx+8], OFFSET ??_7CRaklionObjInfo@@6B@
  00013	8d 7a 10	 lea	 edi, DWORD PTR [edx+16]
  00016	b9 20 03 00 00	 mov	 ecx, 800		; 00000320H
  0001b	f3 ab		 rep stosd

; 19   : 	this->ClearData();

  0001d	8b ca		 mov	 ecx, edx
  0001f	c7 42 0c 00 00
	00 00		 mov	 DWORD PTR [edx+12], 0
  00026	e8 00 00 00 00	 call	 ?ClearData@CRaklionSelupan@@QAEXXZ ; CRaklionSelupan::ClearData

; 20   : }

  0002b	8b c2		 mov	 eax, edx
  0002d	5f		 pop	 edi
  0002e	c3		 ret	 0
??0CRaklionSelupan@@QAE@XZ ENDP				; CRaklionSelupan::CRaklionSelupan
; Function compile flags: /Ogtp
_TEXT	ENDS
;	COMDAT ??_GCRaklionSelupan@@UAEPAXI@Z
_TEXT	SEGMENT
___flags$ = 8						; size = 4
??_GCRaklionSelupan@@UAEPAXI@Z PROC			; CRaklionSelupan::`scalar deleting destructor', COMDAT
; _this$ = ecx
  00000	55		 push	 ebp
  00001	8b ec		 mov	 ebp, esp
  00003	56		 push	 esi
  00004	8b f1		 mov	 esi, ecx
  00006	e8 00 00 00 00	 call	 ??1CRaklionSelupan@@UAE@XZ ; CRaklionSelupan::~CRaklionSelupan
  0000b	f6 45 08 01	 test	 BYTE PTR ___flags$[ebp], 1
  0000f	74 09		 je	 SHORT $LN4@scalar@2
  00011	56		 push	 esi
  00012	e8 00 00 00 00	 call	 ??3@YAXPAX@Z		; operator delete
  00017	83 c4 04	 add	 esp, 4
$LN4@scalar@2:
  0001a	8b c6		 mov	 eax, esi
  0001c	5e		 pop	 esi
  0001d	5d		 pop	 ebp
  0001e	c2 04 00	 ret	 4
??_GCRaklionSelupan@@UAEPAXI@Z ENDP			; CRaklionSelupan::`scalar deleting destructor'
_TEXT	ENDS
PUBLIC	??_C@_0DI@MNJIILJK@?$FL?5RAKLION?5?$FN?$FL?5SummonMonster?5?$FN?5Ski@ ; `string'
PUBLIC	?SelupanAct_SummonMonster@CRaklionSelupan@@QAEXXZ ; CRaklionSelupan::SelupanAct_SummonMonster
EXTRN	?UseMonsterSkill@TMonsterSkillManager@@SAXHHHHPAVCMagicInf@@@Z:PROC ; TMonsterSkillManager::UseMonsterSkill
;	COMDAT ??_C@_0DI@MNJIILJK@?$FL?5RAKLION?5?$FN?$FL?5SummonMonster?5?$FN?5Ski@
CONST	SEGMENT
??_C@_0DI@MNJIILJK@?$FL?5RAKLION?5?$FN?$FL?5SummonMonster?5?$FN?5Ski@ DB '['
	DB	' RAKLION ][ SummonMonster ] Skill Using : Index(%d) %s', 00H ; `string'
; Function compile flags: /Ogtp
CONST	ENDS
;	COMDAT ?SelupanAct_SummonMonster@CRaklionSelupan@@QAEXXZ
_TEXT	SEGMENT
?SelupanAct_SummonMonster@CRaklionSelupan@@QAEXXZ PROC	; CRaklionSelupan::SelupanAct_SummonMonster, COMDAT
; _this$ = ecx

; 131  : {

  00000	53		 push	 ebx
  00001	56		 push	 esi
  00002	57		 push	 edi
  00003	8b d9		 mov	 ebx, ecx

; 132  : 	int aIndex = this->GetSelupanObjIndex();

  00005	e8 00 00 00 00	 call	 ?GetSelupanObjIndex@CRaklionSelupan@@QAEHXZ ; CRaklionSelupan::GetSelupanObjIndex
  0000a	8b f8		 mov	 edi, eax

; 133  : 	int tIndex = aIndex;
; 134  : 
; 135  : 	LPOBJ lpObj = &gObj[aIndex];

  0000c	8b f7		 mov	 esi, edi

; 136  : 	
; 137  : 	TMonsterSkillManager::UseMonsterSkill(aIndex, tIndex, 30, 4, NULL);

  0000e	6a 00		 push	 0
  00010	69 f6 50 2b 00
	00		 imul	 esi, 11088		; 00002b50H
  00016	03 35 00 00 00
	00		 add	 esi, DWORD PTR ?gObj@@3PAUOBJECTSTRUCT@@A ; gObj
  0001c	6a 04		 push	 4
  0001e	6a 1e		 push	 30			; 0000001eH
  00020	57		 push	 edi
  00021	57		 push	 edi
  00022	e8 00 00 00 00	 call	 ?UseMonsterSkill@TMonsterSkillManager@@SAXHHHHPAVCMagicInf@@@Z ; TMonsterSkillManager::UseMonsterSkill
  00027	83 c4 14	 add	 esp, 20			; 00000014H

; 138  : 	
; 139  : 	this->CreateSummonMonster();

  0002a	8b cb		 mov	 ecx, ebx
  0002c	e8 00 00 00 00	 call	 ?CreateSummonMonster@CRaklionSelupan@@QAEXXZ ; CRaklionSelupan::CreateSummonMonster

; 140  : 	
; 141  : 	LogAddTD("[ RAKLION ][ SummonMonster ] Skill Using : Index(%d) %s", aIndex,lpObj->Name);

  00031	83 c6 77	 add	 esi, 119		; 00000077H
  00034	56		 push	 esi
  00035	57		 push	 edi
  00036	68 00 00 00 00	 push	 OFFSET ??_C@_0DI@MNJIILJK@?$FL?5RAKLION?5?$FN?$FL?5SummonMonster?5?$FN?5Ski@
  0003b	ff 15 00 00 00
	00		 call	 DWORD PTR ?LogAddTD@@3P6AXPADZZA ; LogAddTD
  00041	83 c4 0c	 add	 esp, 12			; 0000000cH
  00044	5f		 pop	 edi
  00045	5e		 pop	 esi
  00046	5b		 pop	 ebx

; 142  : }

  00047	c3		 ret	 0
?SelupanAct_SummonMonster@CRaklionSelupan@@QAEXXZ ENDP	; CRaklionSelupan::SelupanAct_SummonMonster
_TEXT	ENDS
PUBLIC	??_C@_0CP@FPMFGMGG@?$FL?5RAKLION?5?$FN?$FL?5Heal?5?$FN?5Skill?5Using?5@ ; `string'
PUBLIC	?SelupanAct_Heal@CRaklionSelupan@@QAEXXZ	; CRaklionSelupan::SelupanAct_Heal
;	COMDAT ??_C@_0CP@FPMFGMGG@?$FL?5RAKLION?5?$FN?$FL?5Heal?5?$FN?5Skill?5Using?5@
CONST	SEGMENT
??_C@_0CP@FPMFGMGG@?$FL?5RAKLION?5?$FN?$FL?5Heal?5?$FN?5Skill?5Using?5@ DB '['
	DB	' RAKLION ][ Heal ] Skill Using : Index(%d) %s', 00H ; `string'
; Function compile flags: /Ogtp
CONST	ENDS
;	COMDAT ?SelupanAct_Heal@CRaklionSelupan@@QAEXXZ
_TEXT	SEGMENT
?SelupanAct_Heal@CRaklionSelupan@@QAEXXZ PROC		; CRaklionSelupan::SelupanAct_Heal, COMDAT
; _this$ = ecx

; 145  : {

  00000	56		 push	 esi
  00001	57		 push	 edi

; 146  : 	int aIndex = this->GetSelupanObjIndex();

  00002	e8 00 00 00 00	 call	 ?GetSelupanObjIndex@CRaklionSelupan@@QAEHXZ ; CRaklionSelupan::GetSelupanObjIndex
  00007	8b f8		 mov	 edi, eax

; 147  : 	int tIndex = aIndex;
; 148  : 
; 149  : 	LPOBJ lpObj = &gObj[aIndex];

  00009	8b f7		 mov	 esi, edi

; 150  : 
; 151  : 	TMonsterSkillManager::UseMonsterSkill(aIndex, tIndex, 20, 5, NULL);

  0000b	6a 00		 push	 0
  0000d	69 f6 50 2b 00
	00		 imul	 esi, 11088		; 00002b50H
  00013	03 35 00 00 00
	00		 add	 esi, DWORD PTR ?gObj@@3PAUOBJECTSTRUCT@@A ; gObj
  00019	6a 05		 push	 5
  0001b	6a 14		 push	 20			; 00000014H
  0001d	57		 push	 edi
  0001e	57		 push	 edi
  0001f	e8 00 00 00 00	 call	 ?UseMonsterSkill@TMonsterSkillManager@@SAXHHHHPAVCMagicInf@@@Z ; TMonsterSkillManager::UseMonsterSkill

; 152  : 
; 153  : 	LogAddTD("[ RAKLION ][ Heal ] Skill Using : Index(%d) %s", aIndex,lpObj->Name);

  00024	83 c6 77	 add	 esi, 119		; 00000077H
  00027	56		 push	 esi
  00028	57		 push	 edi
  00029	68 00 00 00 00	 push	 OFFSET ??_C@_0CP@FPMFGMGG@?$FL?5RAKLION?5?$FN?$FL?5Heal?5?$FN?5Skill?5Using?5@
  0002e	ff 15 00 00 00
	00		 call	 DWORD PTR ?LogAddTD@@3P6AXPADZZA ; LogAddTD
  00034	83 c4 20	 add	 esp, 32			; 00000020H
  00037	5f		 pop	 edi
  00038	5e		 pop	 esi

; 154  : }

  00039	c3		 ret	 0
?SelupanAct_Heal@CRaklionSelupan@@QAEXXZ ENDP		; CRaklionSelupan::SelupanAct_Heal
_TEXT	ENDS
PUBLIC	??_C@_0DI@HEJHANHK@?$FL?5RAKLION?5?$FN?$FL?5Invincibility?5?$FN?5Ski@ ; `string'
PUBLIC	?SelupanAct_Invincibility@CRaklionSelupan@@QAEXXZ ; CRaklionSelupan::SelupanAct_Invincibility
;	COMDAT ??_C@_0DI@HEJHANHK@?$FL?5RAKLION?5?$FN?$FL?5Invincibility?5?$FN?5Ski@
CONST	SEGMENT
??_C@_0DI@HEJHANHK@?$FL?5RAKLION?5?$FN?$FL?5Invincibility?5?$FN?5Ski@ DB '['
	DB	' RAKLION ][ Invincibility ] Skill Using : Index(%d) %s', 00H ; `string'
; Function compile flags: /Ogtp
CONST	ENDS
;	COMDAT ?SelupanAct_Invincibility@CRaklionSelupan@@QAEXXZ
_TEXT	SEGMENT
?SelupanAct_Invincibility@CRaklionSelupan@@QAEXXZ PROC	; CRaklionSelupan::SelupanAct_Invincibility, COMDAT
; _this$ = ecx

; 193  : {

  00000	56		 push	 esi
  00001	57		 push	 edi

; 194  : 	int aIndex = this->GetSelupanObjIndex();

  00002	e8 00 00 00 00	 call	 ?GetSelupanObjIndex@CRaklionSelupan@@QAEHXZ ; CRaklionSelupan::GetSelupanObjIndex
  00007	8b f8		 mov	 edi, eax

; 195  : 	int tIndex = aIndex;
; 196  : 
; 197  : 	LPOBJ lpObj = &gObj[aIndex];

  00009	8b f7		 mov	 esi, edi

; 198  : 	
; 199  : 	TMonsterSkillManager::UseMonsterSkill(aIndex, tIndex, 10, 8, NULL);

  0000b	6a 00		 push	 0
  0000d	69 f6 50 2b 00
	00		 imul	 esi, 11088		; 00002b50H
  00013	03 35 00 00 00
	00		 add	 esi, DWORD PTR ?gObj@@3PAUOBJECTSTRUCT@@A ; gObj
  00019	6a 08		 push	 8
  0001b	6a 0a		 push	 10			; 0000000aH
  0001d	57		 push	 edi
  0001e	57		 push	 edi
  0001f	e8 00 00 00 00	 call	 ?UseMonsterSkill@TMonsterSkillManager@@SAXHHHHPAVCMagicInf@@@Z ; TMonsterSkillManager::UseMonsterSkill

; 200  : 	
; 201  : 	LogAddTD("[ RAKLION ][ Invincibility ] Skill Using : Index(%d) %s", aIndex,lpObj->Name);

  00024	83 c6 77	 add	 esi, 119		; 00000077H
  00027	56		 push	 esi
  00028	57		 push	 edi
  00029	68 00 00 00 00	 push	 OFFSET ??_C@_0DI@HEJHANHK@?$FL?5RAKLION?5?$FN?$FL?5Invincibility?5?$FN?5Ski@
  0002e	ff 15 00 00 00
	00		 call	 DWORD PTR ?LogAddTD@@3P6AXPADZZA ; LogAddTD
  00034	83 c4 20	 add	 esp, 32			; 00000020H
  00037	5f		 pop	 edi
  00038	5e		 pop	 esi

; 202  : 
; 203  : }

  00039	c3		 ret	 0
?SelupanAct_Invincibility@CRaklionSelupan@@QAEXXZ ENDP	; CRaklionSelupan::SelupanAct_Invincibility
_TEXT	ENDS
PUBLIC	??_C@_0DK@MIJHEJFK@?$FL?5RAKLION?5?$FN?$FL?5Berserk?5Cancel?5?$FN?5Mi@ ; `string'
PUBLIC	?SelupanAct_BerserkCansel@CRaklionSelupan@@QAEXXZ ; CRaklionSelupan::SelupanAct_BerserkCansel
;	COMDAT ??_C@_0DK@MIJHEJFK@?$FL?5RAKLION?5?$FN?$FL?5Berserk?5Cancel?5?$FN?5Mi@
CONST	SEGMENT
??_C@_0DK@MIJHEJFK@?$FL?5RAKLION?5?$FN?$FL?5Berserk?5Cancel?5?$FN?5Mi@ DB '['
	DB	' RAKLION ][ Berserk Cancel ] MinDamage(%d) Damage(%d~%d)', 00H ; `string'
; Function compile flags: /Ogtp
CONST	ENDS
;	COMDAT ?SelupanAct_BerserkCansel@CRaklionSelupan@@QAEXXZ
_TEXT	SEGMENT
?SelupanAct_BerserkCansel@CRaklionSelupan@@QAEXXZ PROC	; CRaklionSelupan::SelupanAct_BerserkCansel, COMDAT
; _this$ = ecx

; 206  : {

  00000	56		 push	 esi
  00001	8b f1		 mov	 esi, ecx

; 207  : 	int aIndex = this->GetSelupanObjIndex();

  00003	e8 00 00 00 00	 call	 ?GetSelupanObjIndex@CRaklionSelupan@@QAEHXZ ; CRaklionSelupan::GetSelupanObjIndex

; 208  : 	
; 209  : 	LPOBJ lpObj = &gObj[aIndex];

  00008	69 c0 50 2b 00
	00		 imul	 eax, 11088		; 00002b50H
  0000e	03 05 00 00 00
	00		 add	 eax, DWORD PTR ?gObj@@3PAUOBJECTSTRUCT@@A ; gObj

; 210  : 	
; 211  : 	lpObj->m_AttackDamageMin = this->m_iBossAttackMin;

  00014	8b 8e 98 0c 00
	00		 mov	 ecx, DWORD PTR [esi+3224]
  0001a	89 88 60 04 00
	00		 mov	 DWORD PTR [eax+1120], ecx

; 212  : 	lpObj->m_AttackDamageMax = this->m_iBossAttackMax;

  00020	8b b6 9c 0c 00
	00		 mov	 esi, DWORD PTR [esi+3228]
  00026	89 b0 64 04 00
	00		 mov	 DWORD PTR [eax+1124], esi

; 213  : 	
; 214  : 	LogAddTD("[ RAKLION ][ Berserk Cancel ] MinDamage(%d) Damage(%d~%d)",lpObj->m_AttackDamageMin,lpObj->m_AttackDamageMin,lpObj->m_AttackDamageMax);

  0002c	8b c1		 mov	 eax, ecx
  0002e	56		 push	 esi
  0002f	50		 push	 eax
  00030	50		 push	 eax
  00031	68 00 00 00 00	 push	 OFFSET ??_C@_0DK@MIJHEJFK@?$FL?5RAKLION?5?$FN?$FL?5Berserk?5Cancel?5?$FN?5Mi@
  00036	ff 15 00 00 00
	00		 call	 DWORD PTR ?LogAddTD@@3P6AXPADZZA ; LogAddTD
  0003c	83 c4 10	 add	 esp, 16			; 00000010H
  0003f	5e		 pop	 esi

; 215  : 
; 216  : }

  00040	c3		 ret	 0
?SelupanAct_BerserkCansel@CRaklionSelupan@@QAEXXZ ENDP	; CRaklionSelupan::SelupanAct_BerserkCansel
_TEXT	ENDS
PUBLIC	??_C@_0DO@CBMKDMPF@?$FL?5RAKLION?5?$FN?$FL?5Berserk1?5?$FN?5Skill?5Us@ ; `string'
PUBLIC	?SelupanAct_Berserk1@CRaklionSelupan@@QAEXXZ	; CRaklionSelupan::SelupanAct_Berserk1
;	COMDAT ??_C@_0DO@CBMKDMPF@?$FL?5RAKLION?5?$FN?$FL?5Berserk1?5?$FN?5Skill?5Us@
CONST	SEGMENT
??_C@_0DO@CBMKDMPF@?$FL?5RAKLION?5?$FN?$FL?5Berserk1?5?$FN?5Skill?5Us@ DB '['
	DB	' RAKLION ][ Berserk1 ] Skill Using : Index(%d) Damage(%d~%d)', 00H ; `string'
; Function compile flags: /Ogtp
CONST	ENDS
;	COMDAT ?SelupanAct_Berserk1@CRaklionSelupan@@QAEXXZ
_TEXT	SEGMENT
?SelupanAct_Berserk1@CRaklionSelupan@@QAEXXZ PROC	; CRaklionSelupan::SelupanAct_Berserk1, COMDAT
; _this$ = ecx

; 219  : {

  00000	53		 push	 ebx
  00001	56		 push	 esi
  00002	57		 push	 edi
  00003	8b f9		 mov	 edi, ecx

; 220  : 	int aIndex = this->GetSelupanObjIndex();

  00005	e8 00 00 00 00	 call	 ?GetSelupanObjIndex@CRaklionSelupan@@QAEHXZ ; CRaklionSelupan::GetSelupanObjIndex
  0000a	8b d8		 mov	 ebx, eax

; 221  : 	int tIndex = aIndex;
; 222  : 
; 223  : 	LPOBJ lpObj = &gObj[aIndex];

  0000c	8b f3		 mov	 esi, ebx

; 224  : 
; 225  : 	TMonsterSkillManager::UseMonsterSkill(aIndex, tIndex, 1, 9, NULL);

  0000e	6a 00		 push	 0
  00010	69 f6 50 2b 00
	00		 imul	 esi, 11088		; 00002b50H
  00016	03 35 00 00 00
	00		 add	 esi, DWORD PTR ?gObj@@3PAUOBJECTSTRUCT@@A ; gObj
  0001c	6a 09		 push	 9
  0001e	6a 01		 push	 1
  00020	53		 push	 ebx
  00021	53		 push	 ebx
  00022	e8 00 00 00 00	 call	 ?UseMonsterSkill@TMonsterSkillManager@@SAXHHHHPAVCMagicInf@@@Z ; TMonsterSkillManager::UseMonsterSkill

; 226  : 	
; 227  : 	this->m_iBerserkIndex = 1;
; 228  : 
; 229  : 	int loc5 = 0;
; 230  : 	loc5 = this->m_iBerserkIndex * lpObj->m_MonsterSkillElementInfo.m_iSkillElementAttack;
; 231  : 
; 232  : 	lpObj->m_AttackDamageMin = this->m_iBossAttackMin + loc5;

  00027	8b 8f 98 0c 00
	00		 mov	 ecx, DWORD PTR [edi+3224]
  0002d	c7 87 94 0c 00
	00 01 00 00 00	 mov	 DWORD PTR [edi+3220], 1
  00037	8b 86 28 1c 00
	00		 mov	 eax, DWORD PTR [esi+7208]
  0003d	03 c8		 add	 ecx, eax
  0003f	89 8e 60 04 00
	00		 mov	 DWORD PTR [esi+1120], ecx

; 233  : 	lpObj->m_AttackDamageMax = this->m_iBossAttackMax + loc5;

  00045	03 87 9c 0c 00
	00		 add	 eax, DWORD PTR [edi+3228]

; 234  : 
; 235  : 
; 236  : 	LogAddTD("[ RAKLION ][ Berserk1 ] Skill Using : Index(%d) Damage(%d~%d)",aIndex,lpObj->m_AttackDamageMin,lpObj->m_AttackDamageMax);

  0004b	50		 push	 eax
  0004c	51		 push	 ecx
  0004d	53		 push	 ebx
  0004e	68 00 00 00 00	 push	 OFFSET ??_C@_0DO@CBMKDMPF@?$FL?5RAKLION?5?$FN?$FL?5Berserk1?5?$FN?5Skill?5Us@
  00053	89 86 64 04 00
	00		 mov	 DWORD PTR [esi+1124], eax
  00059	ff 15 00 00 00
	00		 call	 DWORD PTR ?LogAddTD@@3P6AXPADZZA ; LogAddTD
  0005f	83 c4 24	 add	 esp, 36			; 00000024H
  00062	5f		 pop	 edi
  00063	5e		 pop	 esi
  00064	5b		 pop	 ebx

; 237  : }

  00065	c3		 ret	 0
?SelupanAct_Berserk1@CRaklionSelupan@@QAEXXZ ENDP	; CRaklionSelupan::SelupanAct_Berserk1
_TEXT	ENDS
PUBLIC	??_C@_0DO@BJPBLHIG@?$FL?5RAKLION?5?$FN?$FL?5Berserk2?5?$FN?5Skill?5Us@ ; `string'
PUBLIC	?SelupanAct_Berserk2@CRaklionSelupan@@QAEXXZ	; CRaklionSelupan::SelupanAct_Berserk2
;	COMDAT ??_C@_0DO@BJPBLHIG@?$FL?5RAKLION?5?$FN?$FL?5Berserk2?5?$FN?5Skill?5Us@
CONST	SEGMENT
??_C@_0DO@BJPBLHIG@?$FL?5RAKLION?5?$FN?$FL?5Berserk2?5?$FN?5Skill?5Us@ DB '['
	DB	' RAKLION ][ Berserk2 ] Skill Using : Index(%d) Damage(%d~%d)', 00H ; `string'
; Function compile flags: /Ogtp
CONST	ENDS
;	COMDAT ?SelupanAct_Berserk2@CRaklionSelupan@@QAEXXZ
_TEXT	SEGMENT
?SelupanAct_Berserk2@CRaklionSelupan@@QAEXXZ PROC	; CRaklionSelupan::SelupanAct_Berserk2, COMDAT
; _this$ = ecx

; 240  : {

  00000	53		 push	 ebx
  00001	56		 push	 esi
  00002	57		 push	 edi
  00003	8b f9		 mov	 edi, ecx

; 241  : 	int aIndex = this->GetSelupanObjIndex();

  00005	e8 00 00 00 00	 call	 ?GetSelupanObjIndex@CRaklionSelupan@@QAEHXZ ; CRaklionSelupan::GetSelupanObjIndex
  0000a	8b d8		 mov	 ebx, eax

; 242  : 	int tIndex = aIndex;
; 243  : 
; 244  : 	LPOBJ lpObj = &gObj[aIndex];

  0000c	8b f3		 mov	 esi, ebx

; 245  : 
; 246  : 	TMonsterSkillManager::UseMonsterSkill(aIndex, tIndex, 1, 9, NULL);

  0000e	6a 00		 push	 0
  00010	69 f6 50 2b 00
	00		 imul	 esi, 11088		; 00002b50H
  00016	03 35 00 00 00
	00		 add	 esi, DWORD PTR ?gObj@@3PAUOBJECTSTRUCT@@A ; gObj
  0001c	6a 09		 push	 9
  0001e	6a 01		 push	 1
  00020	53		 push	 ebx
  00021	53		 push	 ebx
  00022	e8 00 00 00 00	 call	 ?UseMonsterSkill@TMonsterSkillManager@@SAXHHHHPAVCMagicInf@@@Z ; TMonsterSkillManager::UseMonsterSkill

; 247  : 	
; 248  : 	this->m_iBerserkIndex = 2;
; 249  : 
; 250  : 	int loc5 = 0;
; 251  : 	loc5 = this->m_iBerserkIndex * lpObj->m_MonsterSkillElementInfo.m_iSkillElementAttack;
; 252  : 
; 253  : 	lpObj->m_AttackDamageMin = this->m_iBossAttackMin + loc5;

  00027	8b 8f 98 0c 00
	00		 mov	 ecx, DWORD PTR [edi+3224]
  0002d	c7 87 94 0c 00
	00 02 00 00 00	 mov	 DWORD PTR [edi+3220], 2
  00037	8b 86 28 1c 00
	00		 mov	 eax, DWORD PTR [esi+7208]
  0003d	03 c0		 add	 eax, eax
  0003f	03 c8		 add	 ecx, eax
  00041	89 8e 60 04 00
	00		 mov	 DWORD PTR [esi+1120], ecx

; 254  : 	lpObj->m_AttackDamageMax = this->m_iBossAttackMax + loc5;

  00047	03 87 9c 0c 00
	00		 add	 eax, DWORD PTR [edi+3228]

; 255  : 
; 256  : 
; 257  : 	LogAddTD("[ RAKLION ][ Berserk2 ] Skill Using : Index(%d) Damage(%d~%d)",aIndex,lpObj->m_AttackDamageMin,lpObj->m_AttackDamageMax);

  0004d	50		 push	 eax
  0004e	51		 push	 ecx
  0004f	53		 push	 ebx
  00050	68 00 00 00 00	 push	 OFFSET ??_C@_0DO@BJPBLHIG@?$FL?5RAKLION?5?$FN?$FL?5Berserk2?5?$FN?5Skill?5Us@
  00055	89 86 64 04 00
	00		 mov	 DWORD PTR [esi+1124], eax
  0005b	ff 15 00 00 00
	00		 call	 DWORD PTR ?LogAddTD@@3P6AXPADZZA ; LogAddTD
  00061	83 c4 24	 add	 esp, 36			; 00000024H
  00064	5f		 pop	 edi
  00065	5e		 pop	 esi
  00066	5b		 pop	 ebx

; 258  : }

  00067	c3		 ret	 0
?SelupanAct_Berserk2@CRaklionSelupan@@QAEXXZ ENDP	; CRaklionSelupan::SelupanAct_Berserk2
_TEXT	ENDS
PUBLIC	??_C@_0DO@LIMIDDGI@?$FL?5RAKLION?5?$FN?$FL?5Berserk3?5?$FN?5Skill?5Us@ ; `string'
PUBLIC	?SelupanAct_Berserk3@CRaklionSelupan@@QAEXXZ	; CRaklionSelupan::SelupanAct_Berserk3
;	COMDAT ??_C@_0DO@LIMIDDGI@?$FL?5RAKLION?5?$FN?$FL?5Berserk3?5?$FN?5Skill?5Us@
CONST	SEGMENT
??_C@_0DO@LIMIDDGI@?$FL?5RAKLION?5?$FN?$FL?5Berserk3?5?$FN?5Skill?5Us@ DB '['
	DB	' RAKLION ][ Berserk3 ] Skill Using : Index(%d) Damage(%d~%d)', 00H ; `string'
; Function compile flags: /Ogtp
CONST	ENDS
;	COMDAT ?SelupanAct_Berserk3@CRaklionSelupan@@QAEXXZ
_TEXT	SEGMENT
?SelupanAct_Berserk3@CRaklionSelupan@@QAEXXZ PROC	; CRaklionSelupan::SelupanAct_Berserk3, COMDAT
; _this$ = ecx

; 261  : {

  00000	53		 push	 ebx
  00001	56		 push	 esi
  00002	57		 push	 edi
  00003	8b f9		 mov	 edi, ecx

; 262  : 	int aIndex = this->GetSelupanObjIndex();

  00005	e8 00 00 00 00	 call	 ?GetSelupanObjIndex@CRaklionSelupan@@QAEHXZ ; CRaklionSelupan::GetSelupanObjIndex
  0000a	8b d8		 mov	 ebx, eax

; 263  : 	int tIndex = aIndex;
; 264  : 
; 265  : 	LPOBJ lpObj = &gObj[aIndex];

  0000c	8b f3		 mov	 esi, ebx

; 266  : 
; 267  : 	TMonsterSkillManager::UseMonsterSkill(aIndex, tIndex, 1, 9, NULL);

  0000e	6a 00		 push	 0
  00010	69 f6 50 2b 00
	00		 imul	 esi, 11088		; 00002b50H
  00016	03 35 00 00 00
	00		 add	 esi, DWORD PTR ?gObj@@3PAUOBJECTSTRUCT@@A ; gObj
  0001c	6a 09		 push	 9
  0001e	6a 01		 push	 1
  00020	53		 push	 ebx
  00021	53		 push	 ebx
  00022	e8 00 00 00 00	 call	 ?UseMonsterSkill@TMonsterSkillManager@@SAXHHHHPAVCMagicInf@@@Z ; TMonsterSkillManager::UseMonsterSkill

; 268  : 	
; 269  : 	this->m_iBerserkIndex = 3;
; 270  : 
; 271  : 	int loc5 = 0;
; 272  : 	loc5 = this->m_iBerserkIndex * lpObj->m_MonsterSkillElementInfo.m_iSkillElementAttack;
; 273  : 
; 274  : 	lpObj->m_AttackDamageMin = this->m_iBossAttackMin + loc5;

  00027	8b 8f 98 0c 00
	00		 mov	 ecx, DWORD PTR [edi+3224]
  0002d	c7 87 94 0c 00
	00 03 00 00 00	 mov	 DWORD PTR [edi+3220], 3
  00037	8b 86 28 1c 00
	00		 mov	 eax, DWORD PTR [esi+7208]
  0003d	8d 04 40	 lea	 eax, DWORD PTR [eax+eax*2]
  00040	03 c8		 add	 ecx, eax
  00042	89 8e 60 04 00
	00		 mov	 DWORD PTR [esi+1120], ecx

; 275  : 	lpObj->m_AttackDamageMax = this->m_iBossAttackMax + loc5;

  00048	03 87 9c 0c 00
	00		 add	 eax, DWORD PTR [edi+3228]

; 276  : 
; 277  : 
; 278  : 	LogAddTD("[ RAKLION ][ Berserk3 ] Skill Using : Index(%d) Damage(%d~%d)",aIndex,lpObj->m_AttackDamageMin,lpObj->m_AttackDamageMax);

  0004e	50		 push	 eax
  0004f	51		 push	 ecx
  00050	53		 push	 ebx
  00051	68 00 00 00 00	 push	 OFFSET ??_C@_0DO@LIMIDDGI@?$FL?5RAKLION?5?$FN?$FL?5Berserk3?5?$FN?5Skill?5Us@
  00056	89 86 64 04 00
	00		 mov	 DWORD PTR [esi+1124], eax
  0005c	ff 15 00 00 00
	00		 call	 DWORD PTR ?LogAddTD@@3P6AXPADZZA ; LogAddTD
  00062	83 c4 24	 add	 esp, 36			; 00000024H
  00065	5f		 pop	 edi
  00066	5e		 pop	 esi
  00067	5b		 pop	 ebx

; 279  : }

  00068	c3		 ret	 0
?SelupanAct_Berserk3@CRaklionSelupan@@QAEXXZ ENDP	; CRaklionSelupan::SelupanAct_Berserk3
_TEXT	ENDS
PUBLIC	??_C@_0DO@GJIGKBGA@?$FL?5RAKLION?5?$FN?$FL?5Berserk4?5?$FN?5Skill?5Us@ ; `string'
PUBLIC	?SelupanAct_Berserk4@CRaklionSelupan@@QAEXXZ	; CRaklionSelupan::SelupanAct_Berserk4
;	COMDAT ??_C@_0DO@GJIGKBGA@?$FL?5RAKLION?5?$FN?$FL?5Berserk4?5?$FN?5Skill?5Us@
CONST	SEGMENT
??_C@_0DO@GJIGKBGA@?$FL?5RAKLION?5?$FN?$FL?5Berserk4?5?$FN?5Skill?5Us@ DB '['
	DB	' RAKLION ][ Berserk4 ] Skill Using : Index(%d) Damage(%d~%d)', 00H ; `string'
; Function compile flags: /Ogtp
CONST	ENDS
;	COMDAT ?SelupanAct_Berserk4@CRaklionSelupan@@QAEXXZ
_TEXT	SEGMENT
?SelupanAct_Berserk4@CRaklionSelupan@@QAEXXZ PROC	; CRaklionSelupan::SelupanAct_Berserk4, COMDAT
; _this$ = ecx

; 282  : {

  00000	53		 push	 ebx
  00001	56		 push	 esi
  00002	57		 push	 edi
  00003	8b f9		 mov	 edi, ecx

; 283  : 	int aIndex = this->GetSelupanObjIndex();

  00005	e8 00 00 00 00	 call	 ?GetSelupanObjIndex@CRaklionSelupan@@QAEHXZ ; CRaklionSelupan::GetSelupanObjIndex
  0000a	8b d8		 mov	 ebx, eax

; 284  : 	int tIndex = aIndex;
; 285  : 
; 286  : 	LPOBJ lpObj = &gObj[aIndex];

  0000c	8b f3		 mov	 esi, ebx

; 287  : 
; 288  : 	TMonsterSkillManager::UseMonsterSkill(aIndex, tIndex, 1, 9, NULL);

  0000e	6a 00		 push	 0
  00010	69 f6 50 2b 00
	00		 imul	 esi, 11088		; 00002b50H
  00016	03 35 00 00 00
	00		 add	 esi, DWORD PTR ?gObj@@3PAUOBJECTSTRUCT@@A ; gObj
  0001c	6a 09		 push	 9
  0001e	6a 01		 push	 1
  00020	53		 push	 ebx
  00021	53		 push	 ebx
  00022	e8 00 00 00 00	 call	 ?UseMonsterSkill@TMonsterSkillManager@@SAXHHHHPAVCMagicInf@@@Z ; TMonsterSkillManager::UseMonsterSkill

; 289  : 	
; 290  : 	this->m_iBerserkIndex = 4;
; 291  : 
; 292  : 	int loc5 = 0;
; 293  : 	loc5 = this->m_iBerserkIndex * lpObj->m_MonsterSkillElementInfo.m_iSkillElementAttack;
; 294  : 
; 295  : 	lpObj->m_AttackDamageMin = this->m_iBossAttackMin + loc5;

  00027	8b 8f 98 0c 00
	00		 mov	 ecx, DWORD PTR [edi+3224]
  0002d	c7 87 94 0c 00
	00 04 00 00 00	 mov	 DWORD PTR [edi+3220], 4
  00037	8b 86 28 1c 00
	00		 mov	 eax, DWORD PTR [esi+7208]
  0003d	03 c0		 add	 eax, eax
  0003f	03 c0		 add	 eax, eax
  00041	03 c8		 add	 ecx, eax
  00043	89 8e 60 04 00
	00		 mov	 DWORD PTR [esi+1120], ecx

; 296  : 	lpObj->m_AttackDamageMax = this->m_iBossAttackMax + loc5;

  00049	03 87 9c 0c 00
	00		 add	 eax, DWORD PTR [edi+3228]

; 297  : 
; 298  : 
; 299  : 	LogAddTD("[ RAKLION ][ Berserk4 ] Skill Using : Index(%d) Damage(%d~%d)",aIndex,lpObj->m_AttackDamageMin,lpObj->m_AttackDamageMax);

  0004f	50		 push	 eax
  00050	51		 push	 ecx
  00051	53		 push	 ebx
  00052	68 00 00 00 00	 push	 OFFSET ??_C@_0DO@GJIGKBGA@?$FL?5RAKLION?5?$FN?$FL?5Berserk4?5?$FN?5Skill?5Us@
  00057	89 86 64 04 00
	00		 mov	 DWORD PTR [esi+1124], eax
  0005d	ff 15 00 00 00
	00		 call	 DWORD PTR ?LogAddTD@@3P6AXPADZZA ; LogAddTD
  00063	83 c4 24	 add	 esp, 36			; 00000024H
  00066	5f		 pop	 edi
  00067	5e		 pop	 esi
  00068	5b		 pop	 ebx

; 300  : }

  00069	c3		 ret	 0
?SelupanAct_Berserk4@CRaklionSelupan@@QAEXXZ ENDP	; CRaklionSelupan::SelupanAct_Berserk4
_TEXT	ENDS
PUBLIC	?GetSelupanLife@CRaklionSelupan@@QAEKXZ		; CRaklionSelupan::GetSelupanLife
; Function compile flags: /Ogtp
;	COMDAT ?GetSelupanLife@CRaklionSelupan@@QAEKXZ
_TEXT	SEGMENT
tv72 = -12						; size = 8
tv67 = -8						; size = 4
tv129 = -2						; size = 2
?GetSelupanLife@CRaklionSelupan@@QAEKXZ PROC		; CRaklionSelupan::GetSelupanLife, COMDAT
; _this$ = ecx

; 303  : {

  00000	55		 push	 ebp
  00001	8b ec		 mov	 ebp, esp
  00003	83 ec 0c	 sub	 esp, 12			; 0000000cH

; 304  : 	int aIndex = this->GetSelupanObjIndex();

  00006	e8 00 00 00 00	 call	 ?GetSelupanObjIndex@CRaklionSelupan@@QAEHXZ ; CRaklionSelupan::GetSelupanObjIndex

; 305  : 	
; 306  : 	LPOBJ lpObj = &gObj[aIndex];

  0000b	69 c0 50 2b 00
	00		 imul	 eax, 11088		; 00002b50H

; 307  : 
; 308  : 	return (DWORD)lpObj->Life;

  00011	d9 7d fe	 fnstcw	 WORD PTR tv129[ebp]
  00014	8b 0d 00 00 00
	00		 mov	 ecx, DWORD PTR ?gObj@@3PAUOBJECTSTRUCT@@A ; gObj
  0001a	d9 84 08 fc 00
	00 00		 fld	 DWORD PTR [eax+ecx+252]
  00021	0f b7 45 fe	 movzx	 eax, WORD PTR tv129[ebp]
  00025	0d 00 0c 00 00	 or	 eax, 3072		; 00000c00H
  0002a	89 45 f8	 mov	 DWORD PTR tv67[ebp], eax
  0002d	d9 6d f8	 fldcw	 WORD PTR tv67[ebp]
  00030	df 7d f4	 fistp	 QWORD PTR tv72[ebp]
  00033	8b 45 f4	 mov	 eax, DWORD PTR tv72[ebp]
  00036	d9 6d fe	 fldcw	 WORD PTR tv129[ebp]

; 309  : }

  00039	8b e5		 mov	 esp, ebp
  0003b	5d		 pop	 ebp
  0003c	c3		 ret	 0
?GetSelupanLife@CRaklionSelupan@@QAEKXZ ENDP		; CRaklionSelupan::GetSelupanLife
_TEXT	ENDS
PUBLIC	__real@4059000000000000
PUBLIC	?SetSelupanLife@CRaklionSelupan@@QAEXH@Z	; CRaklionSelupan::SetSelupanLife
EXTRN	__fltused:DWORD
;	COMDAT __real@4059000000000000
CONST	SEGMENT
__real@4059000000000000 DQ 04059000000000000r	; 100
; Function compile flags: /Ogtp
CONST	ENDS
;	COMDAT ?SetSelupanLife@CRaklionSelupan@@QAEXH@Z
_TEXT	SEGMENT
tv174 = -4						; size = 4
_Percent$ = 8						; size = 4
?SetSelupanLife@CRaklionSelupan@@QAEXH@Z PROC		; CRaklionSelupan::SetSelupanLife, COMDAT
; _this$ = ecx

; 312  : {

  00000	55		 push	 ebp
  00001	8b ec		 mov	 ebp, esp
  00003	51		 push	 ecx

; 313  : 	int aIndex = this->GetSelupanObjIndex();

  00004	e8 00 00 00 00	 call	 ?GetSelupanObjIndex@CRaklionSelupan@@QAEHXZ ; CRaklionSelupan::GetSelupanObjIndex

; 314  : 
; 315  : 	LPOBJ lpObj = &gObj[aIndex];

  00009	69 c0 50 2b 00
	00		 imul	 eax, 11088		; 00002b50H
  0000f	03 05 00 00 00
	00		 add	 eax, DWORD PTR ?gObj@@3PAUOBJECTSTRUCT@@A ; gObj

; 316  : 	
; 317  : 	float loc4 = lpObj->AddLife + lpObj->MaxLife;
; 318  : 
; 319  : 	lpObj->Life = loc4 * Percent / 100;

  00015	db 80 4c 01 00
	00		 fild	 DWORD PTR [eax+332]
  0001b	d8 80 00 01 00
	00		 fadd	 DWORD PTR [eax+256]
  00021	d9 5d fc	 fstp	 DWORD PTR tv174[ebp]
  00024	d9 45 fc	 fld	 DWORD PTR tv174[ebp]
  00027	da 4d 08	 fimul	 DWORD PTR _Percent$[ebp]
  0002a	dc 35 00 00 00
	00		 fdiv	 QWORD PTR __real@4059000000000000
  00030	d9 98 fc 00 00
	00		 fstp	 DWORD PTR [eax+252]

; 320  : }

  00036	8b e5		 mov	 esp, ebp
  00038	5d		 pop	 ebp
  00039	c2 04 00	 ret	 4
?SetSelupanLife@CRaklionSelupan@@QAEXH@Z ENDP		; CRaklionSelupan::SetSelupanLife
_TEXT	ENDS
PUBLIC	?DeleteSelupan@CRaklionSelupan@@QAEXXZ		; CRaklionSelupan::DeleteSelupan
; Function compile flags: /Ogtp
;	COMDAT ?DeleteSelupan@CRaklionSelupan@@QAEXXZ
_TEXT	SEGMENT
?DeleteSelupan@CRaklionSelupan@@QAEXXZ PROC		; CRaklionSelupan::DeleteSelupan, COMDAT
; _this$ = ecx

; 430  : {

  00000	56		 push	 esi
  00001	57		 push	 edi

; 431  : 	int aIndex = this->GetSelupanObjIndex();

  00002	e8 00 00 00 00	 call	 ?GetSelupanObjIndex@CRaklionSelupan@@QAEHXZ ; CRaklionSelupan::GetSelupanObjIndex
  00007	8b f8		 mov	 edi, eax

; 432  : 	gObjViewportListProtocolDestroy(&gObj[aIndex]);

  00009	a1 00 00 00 00	 mov	 eax, DWORD PTR ?gObj@@3PAUOBJECTSTRUCT@@A ; gObj
  0000e	8b f7		 mov	 esi, edi
  00010	69 f6 50 2b 00
	00		 imul	 esi, 11088		; 00002b50H
  00016	8d 0c 06	 lea	 ecx, DWORD PTR [esi+eax]
  00019	51		 push	 ecx
  0001a	e8 00 00 00 00	 call	 ?gObjViewportListProtocolDestroy@@YAXPAUOBJECTSTRUCT@@@Z ; gObjViewportListProtocolDestroy

; 433  : 	gObjViewportClose(&gObj[aIndex]);

  0001f	03 35 00 00 00
	00		 add	 esi, DWORD PTR ?gObj@@3PAUOBJECTSTRUCT@@A ; gObj
  00025	56		 push	 esi
  00026	e8 00 00 00 00	 call	 ?gObjViewportClose@@YAXPAUOBJECTSTRUCT@@@Z ; gObjViewportClose

; 434  : 	gObjDel(aIndex);

  0002b	57		 push	 edi
  0002c	e8 00 00 00 00	 call	 ?gObjDel@@YAFH@Z	; gObjDel
  00031	83 c4 0c	 add	 esp, 12			; 0000000cH
  00034	5f		 pop	 edi
  00035	5e		 pop	 esi

; 435  : }

  00036	c3		 ret	 0
?DeleteSelupan@CRaklionSelupan@@QAEXXZ ENDP		; CRaklionSelupan::DeleteSelupan
_TEXT	ENDS
PUBLIC	?GetSelupanTargetIndex@CRaklionSelupan@@QAEHXZ	; CRaklionSelupan::GetSelupanTargetIndex
EXTRN	?gObjMonsterSearchEnemy@@YAHPAUOBJECTSTRUCT@@E@Z:PROC ; gObjMonsterSearchEnemy
; Function compile flags: /Ogtp
;	COMDAT ?GetSelupanTargetIndex@CRaklionSelupan@@QAEHXZ
_TEXT	SEGMENT
?GetSelupanTargetIndex@CRaklionSelupan@@QAEHXZ PROC	; CRaklionSelupan::GetSelupanTargetIndex, COMDAT
; _this$ = ecx

; 439  : 	int iSelupanIndex = this->GetSelupanObjIndex();

  00000	e8 00 00 00 00	 call	 ?GetSelupanObjIndex@CRaklionSelupan@@QAEHXZ ; CRaklionSelupan::GetSelupanObjIndex

; 440  : 
; 441  : 	LPOBJ lpObj = &gObj[iSelupanIndex];

  00005	69 c0 50 2b 00
	00		 imul	 eax, 11088		; 00002b50H
  0000b	03 05 00 00 00
	00		 add	 eax, DWORD PTR ?gObj@@3PAUOBJECTSTRUCT@@A ; gObj

; 442  : 
; 443  : 	
; 444  : 	if ( lpObj->TargetNumber >= 0 && lpObj->TargetNumber < OBJMAX ) 

  00011	0f b7 88 58 04
	00 00		 movzx	 ecx, WORD PTR [eax+1112]
  00018	66 85 c9	 test	 cx, cx
  0001b	78 0e		 js	 SHORT $LN1@GetSelupan@2
  0001d	ba 98 3a 00 00	 mov	 edx, 15000		; 00003a98H
  00022	66 3b ca	 cmp	 cx, dx
  00025	7d 04		 jge	 SHORT $LN1@GetSelupan@2

; 445  : 	{
; 446  : 		return lpObj->TargetNumber;

  00027	0f bf c1	 movsx	 eax, cx

; 450  : }

  0002a	c3		 ret	 0
$LN1@GetSelupan@2:

; 447  : 	}
; 448  : 
; 449  : 	return gObjMonsterSearchEnemy(lpObj,lpObj->Type);

  0002b	0f b6 48 68	 movzx	 ecx, BYTE PTR [eax+104]
  0002f	51		 push	 ecx
  00030	50		 push	 eax
  00031	e8 00 00 00 00	 call	 ?gObjMonsterSearchEnemy@@YAHPAUOBJECTSTRUCT@@E@Z ; gObjMonsterSearchEnemy
  00036	83 c4 08	 add	 esp, 8

; 450  : }

  00039	c3		 ret	 0
?GetSelupanTargetIndex@CRaklionSelupan@@QAEHXZ ENDP	; CRaklionSelupan::GetSelupanTargetIndex
_TEXT	ENDS
PUBLIC	??_C@_0DF@DHONPPND@?$FL?5RAKLION?5?$FN?$FL?5FirstSkill?5?$FN?5Skill?5@ ; `string'
PUBLIC	?SelupanAct_FirstSkill@CRaklionSelupan@@QAEXXZ	; CRaklionSelupan::SelupanAct_FirstSkill
EXTRN	??1CMagicInf@@UAE@XZ:PROC			; CMagicInf::~CMagicInf
EXTRN	??0CMagicInf@@QAE@XZ:PROC			; CMagicInf::CMagicInf
EXTRN	___security_cookie:DWORD
EXTRN	___CxxFrameHandler3:PROC
EXTRN	@__security_check_cookie@4:PROC
;	COMDAT ??_C@_0DF@DHONPPND@?$FL?5RAKLION?5?$FN?$FL?5FirstSkill?5?$FN?5Skill?5@
CONST	SEGMENT
??_C@_0DF@DHONPPND@?$FL?5RAKLION?5?$FN?$FL?5FirstSkill?5?$FN?5Skill?5@ DB '['
	DB	' RAKLION ][ FirstSkill ] Skill Using : Index(%d) %s', 00H ; `string'
CONST	ENDS
;	COMDAT xdata$x
xdata$x	SEGMENT
__unwindtable$?SelupanAct_FirstSkill@CRaklionSelupan@@QAEXXZ DD 0ffffffffH
	DD	FLAT:__unwindfunclet$?SelupanAct_FirstSkill@CRaklionSelupan@@QAEXXZ$0
__ehfuncinfo$?SelupanAct_FirstSkill@CRaklionSelupan@@QAEXXZ DD 019930522H
	DD	01H
	DD	FLAT:__unwindtable$?SelupanAct_FirstSkill@CRaklionSelupan@@QAEXXZ
	DD	2 DUP(00H)
	DD	2 DUP(00H)
	DD	00H
	DD	01H
; Function compile flags: /Ogtp
xdata$x	ENDS
;	COMDAT ?SelupanAct_FirstSkill@CRaklionSelupan@@QAEXXZ
_TEXT	SEGMENT
_lpMagic$209498 = -36					; size = 24
__$EHRec$ = -12						; size = 12
?SelupanAct_FirstSkill@CRaklionSelupan@@QAEXXZ PROC	; CRaklionSelupan::SelupanAct_FirstSkill, COMDAT
; _this$ = ecx

; 36   : {

  00000	55		 push	 ebp
  00001	8b ec		 mov	 ebp, esp
  00003	6a ff		 push	 -1
  00005	68 00 00 00 00	 push	 __ehhandler$?SelupanAct_FirstSkill@CRaklionSelupan@@QAEXXZ
  0000a	64 a1 00 00 00
	00		 mov	 eax, DWORD PTR fs:0
  00010	50		 push	 eax
  00011	83 ec 18	 sub	 esp, 24			; 00000018H
  00014	53		 push	 ebx
  00015	56		 push	 esi
  00016	57		 push	 edi
  00017	a1 00 00 00 00	 mov	 eax, DWORD PTR ___security_cookie
  0001c	33 c5		 xor	 eax, ebp
  0001e	50		 push	 eax
  0001f	8d 45 f4	 lea	 eax, DWORD PTR __$EHRec$[ebp]
  00022	64 a3 00 00 00
	00		 mov	 DWORD PTR fs:0, eax
  00028	8b f1		 mov	 esi, ecx

; 37   : 	int aIndex = this->GetSelupanObjIndex();

  0002a	e8 00 00 00 00	 call	 ?GetSelupanObjIndex@CRaklionSelupan@@QAEHXZ ; CRaklionSelupan::GetSelupanObjIndex

; 38   : 	int tIndex = this->GetSelupanTargetIndex();

  0002f	8b ce		 mov	 ecx, esi
  00031	8b f8		 mov	 edi, eax
  00033	e8 00 00 00 00	 call	 ?GetSelupanTargetIndex@CRaklionSelupan@@QAEHXZ ; CRaklionSelupan::GetSelupanTargetIndex

; 39   : 	
; 40   : 	LPOBJ lpObj = &gObj[aIndex];

  00038	8b f7		 mov	 esi, edi
  0003a	69 f6 50 2b 00
	00		 imul	 esi, 11088		; 00002b50H
  00040	03 35 00 00 00
	00		 add	 esi, DWORD PTR ?gObj@@3PAUOBJECTSTRUCT@@A ; gObj
  00046	8b d8		 mov	 ebx, eax

; 41   : 
; 42   : 	if ( tIndex == -1 )

  00048	83 fb ff	 cmp	 ebx, -1
  0004b	75 02		 jne	 SHORT $LN1@SelupanAct

; 43   : 	{
; 44   : 		tIndex = aIndex;

  0004d	8b df		 mov	 ebx, edi
$LN1@SelupanAct:

; 45   : 	}
; 46   : 
; 47   : 	//if ( tIndex != -1 )
; 48   : 	{
; 49   : 		CMagicInf lpMagic;

  0004f	8d 4d dc	 lea	 ecx, DWORD PTR _lpMagic$209498[ebp]
  00052	e8 00 00 00 00	 call	 ??0CMagicInf@@QAE@XZ	; CMagicInf::CMagicInf
  00057	33 c0		 xor	 eax, eax

; 50   : 		memset(&lpMagic, 0, sizeof(lpMagic));
; 51   : 		lpMagic.m_Skill = 253;
; 52   : 		TMonsterSkillManager::UseMonsterSkill(aIndex, tIndex, 31, 0,&lpMagic);

  00059	8d 4d dc	 lea	 ecx, DWORD PTR _lpMagic$209498[ebp]
  0005c	51		 push	 ecx
  0005d	50		 push	 eax
  0005e	6a 1f		 push	 31			; 0000001fH
  00060	53		 push	 ebx
  00061	89 45 e4	 mov	 DWORD PTR _lpMagic$209498[ebp+8], eax
  00064	57		 push	 edi
  00065	89 45 fc	 mov	 DWORD PTR __$EHRec$[ebp+8], eax
  00068	89 45 dc	 mov	 DWORD PTR _lpMagic$209498[ebp], eax
  0006b	89 45 e0	 mov	 DWORD PTR _lpMagic$209498[ebp+4], eax
  0006e	89 45 e8	 mov	 DWORD PTR _lpMagic$209498[ebp+12], eax
  00071	89 45 ec	 mov	 DWORD PTR _lpMagic$209498[ebp+16], eax
  00074	89 45 f0	 mov	 DWORD PTR _lpMagic$209498[ebp+20], eax
  00077	c7 45 e4 fd 00
	00 00		 mov	 DWORD PTR _lpMagic$209498[ebp+8], 253 ; 000000fdH
  0007e	e8 00 00 00 00	 call	 ?UseMonsterSkill@TMonsterSkillManager@@SAXHHHHPAVCMagicInf@@@Z ; TMonsterSkillManager::UseMonsterSkill
  00083	83 c4 14	 add	 esp, 20			; 00000014H

; 53   : 	}

  00086	8d 4d dc	 lea	 ecx, DWORD PTR _lpMagic$209498[ebp]
  00089	c7 45 fc ff ff
	ff ff		 mov	 DWORD PTR __$EHRec$[ebp+8], -1
  00090	e8 00 00 00 00	 call	 ??1CMagicInf@@UAE@XZ	; CMagicInf::~CMagicInf

; 54   : 
; 55   : 	LogAddTD("[ RAKLION ][ FirstSkill ] Skill Using : Index(%d) %s", aIndex,lpObj->Name);

  00095	83 c6 77	 add	 esi, 119		; 00000077H
  00098	56		 push	 esi
  00099	57		 push	 edi
  0009a	68 00 00 00 00	 push	 OFFSET ??_C@_0DF@DHONPPND@?$FL?5RAKLION?5?$FN?$FL?5FirstSkill?5?$FN?5Skill?5@
  0009f	ff 15 00 00 00
	00		 call	 DWORD PTR ?LogAddTD@@3P6AXPADZZA ; LogAddTD
  000a5	83 c4 0c	 add	 esp, 12			; 0000000cH

; 56   : }

  000a8	8b 4d f4	 mov	 ecx, DWORD PTR __$EHRec$[ebp]
  000ab	64 89 0d 00 00
	00 00		 mov	 DWORD PTR fs:0, ecx
  000b2	59		 pop	 ecx
  000b3	5f		 pop	 edi
  000b4	5e		 pop	 esi
  000b5	5b		 pop	 ebx
  000b6	8b e5		 mov	 esp, ebp
  000b8	5d		 pop	 ebp
  000b9	c3		 ret	 0
_TEXT	ENDS
;	COMDAT text$x
text$x	SEGMENT
__unwindfunclet$?SelupanAct_FirstSkill@CRaklionSelupan@@QAEXXZ$0:
  00000	8d 4d dc	 lea	 ecx, DWORD PTR _lpMagic$209498[ebp]
  00003	e9 00 00 00 00	 jmp	 ??1CMagicInf@@UAE@XZ	; CMagicInf::~CMagicInf
__ehhandler$?SelupanAct_FirstSkill@CRaklionSelupan@@QAEXXZ:
  00008	8b 54 24 08	 mov	 edx, DWORD PTR [esp+8]
  0000c	8d 42 0c	 lea	 eax, DWORD PTR [edx+12]
  0000f	8b 4a d8	 mov	 ecx, DWORD PTR [edx-40]
  00012	33 c8		 xor	 ecx, eax
  00014	e8 00 00 00 00	 call	 @__security_check_cookie@4
  00019	b8 00 00 00 00	 mov	 eax, OFFSET __ehfuncinfo$?SelupanAct_FirstSkill@CRaklionSelupan@@QAEXXZ
  0001e	e9 00 00 00 00	 jmp	 ___CxxFrameHandler3
text$x	ENDS
?SelupanAct_FirstSkill@CRaklionSelupan@@QAEXXZ ENDP	; CRaklionSelupan::SelupanAct_FirstSkill
PUBLIC	??_C@_0DH@HBHGOP@?$FL?5RAKLION?5?$FN?$FL?5PoisonAttack?5?$FN?5Skil@ ; `string'
PUBLIC	?SelupanAct_PoisonAttack@CRaklionSelupan@@QAEXXZ ; CRaklionSelupan::SelupanAct_PoisonAttack
;	COMDAT ??_C@_0DH@HBHGOP@?$FL?5RAKLION?5?$FN?$FL?5PoisonAttack?5?$FN?5Skil@
CONST	SEGMENT
??_C@_0DH@HBHGOP@?$FL?5RAKLION?5?$FN?$FL?5PoisonAttack?5?$FN?5Skil@ DB '['
	DB	' RAKLION ][ PoisonAttack ] Skill Using : Index(%d) %s', 00H ; `string'
CONST	ENDS
;	COMDAT xdata$x
xdata$x	SEGMENT
__unwindtable$?SelupanAct_PoisonAttack@CRaklionSelupan@@QAEXXZ DD 0ffffffffH
	DD	FLAT:__unwindfunclet$?SelupanAct_PoisonAttack@CRaklionSelupan@@QAEXXZ$0
__ehfuncinfo$?SelupanAct_PoisonAttack@CRaklionSelupan@@QAEXXZ DD 019930522H
	DD	01H
	DD	FLAT:__unwindtable$?SelupanAct_PoisonAttack@CRaklionSelupan@@QAEXXZ
	DD	2 DUP(00H)
	DD	2 DUP(00H)
	DD	00H
	DD	01H
; Function compile flags: /Ogtp
xdata$x	ENDS
;	COMDAT ?SelupanAct_PoisonAttack@CRaklionSelupan@@QAEXXZ
_TEXT	SEGMENT
_lpMagic$209508 = -36					; size = 24
__$EHRec$ = -12						; size = 12
?SelupanAct_PoisonAttack@CRaklionSelupan@@QAEXXZ PROC	; CRaklionSelupan::SelupanAct_PoisonAttack, COMDAT
; _this$ = ecx

; 59   : {

  00000	55		 push	 ebp
  00001	8b ec		 mov	 ebp, esp
  00003	6a ff		 push	 -1
  00005	68 00 00 00 00	 push	 __ehhandler$?SelupanAct_PoisonAttack@CRaklionSelupan@@QAEXXZ
  0000a	64 a1 00 00 00
	00		 mov	 eax, DWORD PTR fs:0
  00010	50		 push	 eax
  00011	83 ec 18	 sub	 esp, 24			; 00000018H
  00014	53		 push	 ebx
  00015	56		 push	 esi
  00016	57		 push	 edi
  00017	a1 00 00 00 00	 mov	 eax, DWORD PTR ___security_cookie
  0001c	33 c5		 xor	 eax, ebp
  0001e	50		 push	 eax
  0001f	8d 45 f4	 lea	 eax, DWORD PTR __$EHRec$[ebp]
  00022	64 a3 00 00 00
	00		 mov	 DWORD PTR fs:0, eax
  00028	8b f1		 mov	 esi, ecx

; 60   : 	int aIndex = this->GetSelupanObjIndex();

  0002a	e8 00 00 00 00	 call	 ?GetSelupanObjIndex@CRaklionSelupan@@QAEHXZ ; CRaklionSelupan::GetSelupanObjIndex

; 61   : 	int tIndex = this->GetSelupanTargetIndex();

  0002f	8b ce		 mov	 ecx, esi
  00031	8b f8		 mov	 edi, eax
  00033	e8 00 00 00 00	 call	 ?GetSelupanTargetIndex@CRaklionSelupan@@QAEHXZ ; CRaklionSelupan::GetSelupanTargetIndex

; 62   : 
; 63   : 	LPOBJ lpObj = &gObj[aIndex];

  00038	8b f7		 mov	 esi, edi
  0003a	69 f6 50 2b 00
	00		 imul	 esi, 11088		; 00002b50H
  00040	03 35 00 00 00
	00		 add	 esi, DWORD PTR ?gObj@@3PAUOBJECTSTRUCT@@A ; gObj
  00046	8b d8		 mov	 ebx, eax

; 64   : 
; 65   : 
; 66   : 	if ( tIndex == -1 )

  00048	83 fb ff	 cmp	 ebx, -1
  0004b	75 12		 jne	 SHORT $LN2@SelupanAct@2

; 67   : 	{
; 68   : 		tIndex = aIndex;
; 69   : 		TMonsterSkillManager::UseMonsterSkill(aIndex, tIndex, 1, 7, NULL);

  0004d	6a 00		 push	 0
  0004f	6a 07		 push	 7
  00051	6a 01		 push	 1
  00053	57		 push	 edi
  00054	57		 push	 edi
  00055	e8 00 00 00 00	 call	 ?UseMonsterSkill@TMonsterSkillManager@@SAXHHHHPAVCMagicInf@@@Z ; TMonsterSkillManager::UseMonsterSkill
  0005a	83 c4 14	 add	 esp, 20			; 00000014H

; 70   : 	}
; 71   : 	else

  0005d	eb 47		 jmp	 SHORT $LN1@SelupanAct@2
$LN2@SelupanAct@2:

; 72   : 	{
; 73   : 		CMagicInf lpMagic;

  0005f	8d 4d dc	 lea	 ecx, DWORD PTR _lpMagic$209508[ebp]
  00062	e8 00 00 00 00	 call	 ??0CMagicInf@@QAE@XZ	; CMagicInf::CMagicInf
  00067	33 c0		 xor	 eax, eax

; 74   : 		memset(&lpMagic, 0, sizeof(lpMagic));

  00069	89 45 e4	 mov	 DWORD PTR _lpMagic$209508[ebp+8], eax
  0006c	89 45 fc	 mov	 DWORD PTR __$EHRec$[ebp+8], eax
  0006f	89 45 dc	 mov	 DWORD PTR _lpMagic$209508[ebp], eax
  00072	89 45 e0	 mov	 DWORD PTR _lpMagic$209508[ebp+4], eax
  00075	89 45 e8	 mov	 DWORD PTR _lpMagic$209508[ebp+12], eax
  00078	89 45 ec	 mov	 DWORD PTR _lpMagic$209508[ebp+16], eax
  0007b	89 45 f0	 mov	 DWORD PTR _lpMagic$209508[ebp+20], eax

; 75   : 		lpMagic.m_Skill = 250;
; 76   : 		TMonsterSkillManager::UseMonsterSkill(aIndex, tIndex, 1, 1,&lpMagic);

  0007e	8d 45 dc	 lea	 eax, DWORD PTR _lpMagic$209508[ebp]
  00081	50		 push	 eax
  00082	6a 01		 push	 1
  00084	6a 01		 push	 1
  00086	53		 push	 ebx
  00087	57		 push	 edi
  00088	c7 45 e4 fa 00
	00 00		 mov	 DWORD PTR _lpMagic$209508[ebp+8], 250 ; 000000faH
  0008f	e8 00 00 00 00	 call	 ?UseMonsterSkill@TMonsterSkillManager@@SAXHHHHPAVCMagicInf@@@Z ; TMonsterSkillManager::UseMonsterSkill
  00094	83 c4 14	 add	 esp, 20			; 00000014H

; 77   : 	}

  00097	8d 4d dc	 lea	 ecx, DWORD PTR _lpMagic$209508[ebp]
  0009a	c7 45 fc ff ff
	ff ff		 mov	 DWORD PTR __$EHRec$[ebp+8], -1
  000a1	e8 00 00 00 00	 call	 ??1CMagicInf@@UAE@XZ	; CMagicInf::~CMagicInf
$LN1@SelupanAct@2:

; 78   : 
; 79   : 	LogAddTD("[ RAKLION ][ PoisonAttack ] Skill Using : Index(%d) %s", aIndex,lpObj->Name);

  000a6	83 c6 77	 add	 esi, 119		; 00000077H
  000a9	56		 push	 esi
  000aa	57		 push	 edi
  000ab	68 00 00 00 00	 push	 OFFSET ??_C@_0DH@HBHGOP@?$FL?5RAKLION?5?$FN?$FL?5PoisonAttack?5?$FN?5Skil@
  000b0	ff 15 00 00 00
	00		 call	 DWORD PTR ?LogAddTD@@3P6AXPADZZA ; LogAddTD
  000b6	83 c4 0c	 add	 esp, 12			; 0000000cH

; 80   : 
; 81   : }

  000b9	8b 4d f4	 mov	 ecx, DWORD PTR __$EHRec$[ebp]
  000bc	64 89 0d 00 00
	00 00		 mov	 DWORD PTR fs:0, ecx
  000c3	59		 pop	 ecx
  000c4	5f		 pop	 edi
  000c5	5e		 pop	 esi
  000c6	5b		 pop	 ebx
  000c7	8b e5		 mov	 esp, ebp
  000c9	5d		 pop	 ebp
  000ca	c3		 ret	 0
_TEXT	ENDS
;	COMDAT text$x
text$x	SEGMENT
__unwindfunclet$?SelupanAct_PoisonAttack@CRaklionSelupan@@QAEXXZ$0:
  00000	8d 4d dc	 lea	 ecx, DWORD PTR _lpMagic$209508[ebp]
  00003	e9 00 00 00 00	 jmp	 ??1CMagicInf@@UAE@XZ	; CMagicInf::~CMagicInf
__ehhandler$?SelupanAct_PoisonAttack@CRaklionSelupan@@QAEXXZ:
  00008	8b 54 24 08	 mov	 edx, DWORD PTR [esp+8]
  0000c	8d 42 0c	 lea	 eax, DWORD PTR [edx+12]
  0000f	8b 4a d8	 mov	 ecx, DWORD PTR [edx-40]
  00012	33 c8		 xor	 ecx, eax
  00014	e8 00 00 00 00	 call	 @__security_check_cookie@4
  00019	b8 00 00 00 00	 mov	 eax, OFFSET __ehfuncinfo$?SelupanAct_PoisonAttack@CRaklionSelupan@@QAEXXZ
  0001e	e9 00 00 00 00	 jmp	 ___CxxFrameHandler3
text$x	ENDS
?SelupanAct_PoisonAttack@CRaklionSelupan@@QAEXXZ ENDP	; CRaklionSelupan::SelupanAct_PoisonAttack
PUBLIC	??_C@_0DD@GKIFGDCG@?$FL?5RAKLION?5?$FN?$FL?5IceStorm?5?$FN?5Skill?5Us@ ; `string'
PUBLIC	?SelupanAct_IceStorm@CRaklionSelupan@@QAEXXZ	; CRaklionSelupan::SelupanAct_IceStorm
;	COMDAT ??_C@_0DD@GKIFGDCG@?$FL?5RAKLION?5?$FN?$FL?5IceStorm?5?$FN?5Skill?5Us@
CONST	SEGMENT
??_C@_0DD@GKIFGDCG@?$FL?5RAKLION?5?$FN?$FL?5IceStorm?5?$FN?5Skill?5Us@ DB '['
	DB	' RAKLION ][ IceStorm ] Skill Using : Index(%d) %s', 00H ; `string'
CONST	ENDS
;	COMDAT xdata$x
xdata$x	SEGMENT
__unwindtable$?SelupanAct_IceStorm@CRaklionSelupan@@QAEXXZ DD 0ffffffffH
	DD	FLAT:__unwindfunclet$?SelupanAct_IceStorm@CRaklionSelupan@@QAEXXZ$0
__ehfuncinfo$?SelupanAct_IceStorm@CRaklionSelupan@@QAEXXZ DD 019930522H
	DD	01H
	DD	FLAT:__unwindtable$?SelupanAct_IceStorm@CRaklionSelupan@@QAEXXZ
	DD	2 DUP(00H)
	DD	2 DUP(00H)
	DD	00H
	DD	01H
; Function compile flags: /Ogtp
xdata$x	ENDS
;	COMDAT ?SelupanAct_IceStorm@CRaklionSelupan@@QAEXXZ
_TEXT	SEGMENT
_lpMagic$209518 = -36					; size = 24
__$EHRec$ = -12						; size = 12
?SelupanAct_IceStorm@CRaklionSelupan@@QAEXXZ PROC	; CRaklionSelupan::SelupanAct_IceStorm, COMDAT
; _this$ = ecx

; 84   : {

  00000	55		 push	 ebp
  00001	8b ec		 mov	 ebp, esp
  00003	6a ff		 push	 -1
  00005	68 00 00 00 00	 push	 __ehhandler$?SelupanAct_IceStorm@CRaklionSelupan@@QAEXXZ
  0000a	64 a1 00 00 00
	00		 mov	 eax, DWORD PTR fs:0
  00010	50		 push	 eax
  00011	83 ec 18	 sub	 esp, 24			; 00000018H
  00014	53		 push	 ebx
  00015	56		 push	 esi
  00016	57		 push	 edi
  00017	a1 00 00 00 00	 mov	 eax, DWORD PTR ___security_cookie
  0001c	33 c5		 xor	 eax, ebp
  0001e	50		 push	 eax
  0001f	8d 45 f4	 lea	 eax, DWORD PTR __$EHRec$[ebp]
  00022	64 a3 00 00 00
	00		 mov	 DWORD PTR fs:0, eax
  00028	8b f1		 mov	 esi, ecx

; 85   : 	int aIndex = this->GetSelupanObjIndex();

  0002a	e8 00 00 00 00	 call	 ?GetSelupanObjIndex@CRaklionSelupan@@QAEHXZ ; CRaklionSelupan::GetSelupanObjIndex

; 86   : 	int tIndex = this->GetSelupanTargetIndex();

  0002f	8b ce		 mov	 ecx, esi
  00031	8b f8		 mov	 edi, eax
  00033	e8 00 00 00 00	 call	 ?GetSelupanTargetIndex@CRaklionSelupan@@QAEHXZ ; CRaklionSelupan::GetSelupanTargetIndex

; 87   : 
; 88   : 	LPOBJ lpObj = &gObj[aIndex];

  00038	8b f7		 mov	 esi, edi
  0003a	69 f6 50 2b 00
	00		 imul	 esi, 11088		; 00002b50H
  00040	03 35 00 00 00
	00		 add	 esi, DWORD PTR ?gObj@@3PAUOBJECTSTRUCT@@A ; gObj
  00046	8b d8		 mov	 ebx, eax

; 89   : 
; 90   : 	if ( tIndex == -1 )

  00048	83 fb ff	 cmp	 ebx, -1
  0004b	75 12		 jne	 SHORT $LN2@SelupanAct@3

; 91   : 	{
; 92   : 		tIndex = aIndex;
; 93   : 		TMonsterSkillManager::UseMonsterSkill(aIndex, tIndex, 1, 7, NULL);

  0004d	6a 00		 push	 0
  0004f	6a 07		 push	 7
  00051	6a 01		 push	 1
  00053	57		 push	 edi
  00054	57		 push	 edi
  00055	e8 00 00 00 00	 call	 ?UseMonsterSkill@TMonsterSkillManager@@SAXHHHHPAVCMagicInf@@@Z ; TMonsterSkillManager::UseMonsterSkill
  0005a	83 c4 14	 add	 esp, 20			; 00000014H

; 94   : 	}
; 95   : 	else

  0005d	eb 47		 jmp	 SHORT $LN1@SelupanAct@3
$LN2@SelupanAct@3:

; 96   : 	{
; 97   : 		CMagicInf lpMagic;

  0005f	8d 4d dc	 lea	 ecx, DWORD PTR _lpMagic$209518[ebp]
  00062	e8 00 00 00 00	 call	 ??0CMagicInf@@QAE@XZ	; CMagicInf::CMagicInf
  00067	33 c0		 xor	 eax, eax

; 98   : 
; 99   : 		memset(&lpMagic, 0, sizeof(lpMagic));

  00069	89 45 e4	 mov	 DWORD PTR _lpMagic$209518[ebp+8], eax
  0006c	89 45 fc	 mov	 DWORD PTR __$EHRec$[ebp+8], eax
  0006f	89 45 dc	 mov	 DWORD PTR _lpMagic$209518[ebp], eax
  00072	89 45 e0	 mov	 DWORD PTR _lpMagic$209518[ebp+4], eax
  00075	89 45 e8	 mov	 DWORD PTR _lpMagic$209518[ebp+12], eax
  00078	89 45 ec	 mov	 DWORD PTR _lpMagic$209518[ebp+16], eax
  0007b	89 45 f0	 mov	 DWORD PTR _lpMagic$209518[ebp+20], eax

; 100  : 
; 101  : 		lpMagic.m_Skill = 251;
; 102  : 		TMonsterSkillManager::UseMonsterSkill(aIndex, tIndex, 1, 2,&lpMagic);

  0007e	8d 45 dc	 lea	 eax, DWORD PTR _lpMagic$209518[ebp]
  00081	50		 push	 eax
  00082	6a 02		 push	 2
  00084	6a 01		 push	 1
  00086	53		 push	 ebx
  00087	57		 push	 edi
  00088	c7 45 e4 fb 00
	00 00		 mov	 DWORD PTR _lpMagic$209518[ebp+8], 251 ; 000000fbH
  0008f	e8 00 00 00 00	 call	 ?UseMonsterSkill@TMonsterSkillManager@@SAXHHHHPAVCMagicInf@@@Z ; TMonsterSkillManager::UseMonsterSkill
  00094	83 c4 14	 add	 esp, 20			; 00000014H

; 103  : 	}

  00097	8d 4d dc	 lea	 ecx, DWORD PTR _lpMagic$209518[ebp]
  0009a	c7 45 fc ff ff
	ff ff		 mov	 DWORD PTR __$EHRec$[ebp+8], -1
  000a1	e8 00 00 00 00	 call	 ??1CMagicInf@@UAE@XZ	; CMagicInf::~CMagicInf
$LN1@SelupanAct@3:

; 104  : 	LogAddTD("[ RAKLION ][ IceStorm ] Skill Using : Index(%d) %s", aIndex,lpObj->Name);

  000a6	83 c6 77	 add	 esi, 119		; 00000077H
  000a9	56		 push	 esi
  000aa	57		 push	 edi
  000ab	68 00 00 00 00	 push	 OFFSET ??_C@_0DD@GKIFGDCG@?$FL?5RAKLION?5?$FN?$FL?5IceStorm?5?$FN?5Skill?5Us@
  000b0	ff 15 00 00 00
	00		 call	 DWORD PTR ?LogAddTD@@3P6AXPADZZA ; LogAddTD
  000b6	83 c4 0c	 add	 esp, 12			; 0000000cH

; 105  : }

  000b9	8b 4d f4	 mov	 ecx, DWORD PTR __$EHRec$[ebp]
  000bc	64 89 0d 00 00
	00 00		 mov	 DWORD PTR fs:0, ecx
  000c3	59		 pop	 ecx
  000c4	5f		 pop	 edi
  000c5	5e		 pop	 esi
  000c6	5b		 pop	 ebx
  000c7	8b e5		 mov	 esp, ebp
  000c9	5d		 pop	 ebp
  000ca	c3		 ret	 0
_TEXT	ENDS
;	COMDAT text$x
text$x	SEGMENT
__unwindfunclet$?SelupanAct_IceStorm@CRaklionSelupan@@QAEXXZ$0:
  00000	8d 4d dc	 lea	 ecx, DWORD PTR _lpMagic$209518[ebp]
  00003	e9 00 00 00 00	 jmp	 ??1CMagicInf@@UAE@XZ	; CMagicInf::~CMagicInf
__ehhandler$?SelupanAct_IceStorm@CRaklionSelupan@@QAEXXZ:
  00008	8b 54 24 08	 mov	 edx, DWORD PTR [esp+8]
  0000c	8d 42 0c	 lea	 eax, DWORD PTR [edx+12]
  0000f	8b 4a d8	 mov	 ecx, DWORD PTR [edx-40]
  00012	33 c8		 xor	 ecx, eax
  00014	e8 00 00 00 00	 call	 @__security_check_cookie@4
  00019	b8 00 00 00 00	 mov	 eax, OFFSET __ehfuncinfo$?SelupanAct_IceStorm@CRaklionSelupan@@QAEXXZ
  0001e	e9 00 00 00 00	 jmp	 ___CxxFrameHandler3
text$x	ENDS
?SelupanAct_IceStorm@CRaklionSelupan@@QAEXXZ ENDP	; CRaklionSelupan::SelupanAct_IceStorm
PUBLIC	??_C@_0DE@LMJIKHAC@?$FL?5RAKLION?5?$FN?$FL?5IceStrike?5?$FN?5Skill?5U@ ; `string'
PUBLIC	?SelupanAct_IceStrike@CRaklionSelupan@@QAEXXZ	; CRaklionSelupan::SelupanAct_IceStrike
;	COMDAT ??_C@_0DE@LMJIKHAC@?$FL?5RAKLION?5?$FN?$FL?5IceStrike?5?$FN?5Skill?5U@
CONST	SEGMENT
??_C@_0DE@LMJIKHAC@?$FL?5RAKLION?5?$FN?$FL?5IceStrike?5?$FN?5Skill?5U@ DB '['
	DB	' RAKLION ][ IceStrike ] Skill Using : Index(%d) %s', 00H ; `string'
CONST	ENDS
;	COMDAT xdata$x
xdata$x	SEGMENT
__unwindtable$?SelupanAct_IceStrike@CRaklionSelupan@@QAEXXZ DD 0ffffffffH
	DD	FLAT:__unwindfunclet$?SelupanAct_IceStrike@CRaklionSelupan@@QAEXXZ$0
__ehfuncinfo$?SelupanAct_IceStrike@CRaklionSelupan@@QAEXXZ DD 019930522H
	DD	01H
	DD	FLAT:__unwindtable$?SelupanAct_IceStrike@CRaklionSelupan@@QAEXXZ
	DD	2 DUP(00H)
	DD	2 DUP(00H)
	DD	00H
	DD	01H
; Function compile flags: /Ogtp
xdata$x	ENDS
;	COMDAT ?SelupanAct_IceStrike@CRaklionSelupan@@QAEXXZ
_TEXT	SEGMENT
_lpMagic$209528 = -36					; size = 24
__$EHRec$ = -12						; size = 12
?SelupanAct_IceStrike@CRaklionSelupan@@QAEXXZ PROC	; CRaklionSelupan::SelupanAct_IceStrike, COMDAT
; _this$ = ecx

; 108  : {

  00000	55		 push	 ebp
  00001	8b ec		 mov	 ebp, esp
  00003	6a ff		 push	 -1
  00005	68 00 00 00 00	 push	 __ehhandler$?SelupanAct_IceStrike@CRaklionSelupan@@QAEXXZ
  0000a	64 a1 00 00 00
	00		 mov	 eax, DWORD PTR fs:0
  00010	50		 push	 eax
  00011	83 ec 18	 sub	 esp, 24			; 00000018H
  00014	53		 push	 ebx
  00015	56		 push	 esi
  00016	57		 push	 edi
  00017	a1 00 00 00 00	 mov	 eax, DWORD PTR ___security_cookie
  0001c	33 c5		 xor	 eax, ebp
  0001e	50		 push	 eax
  0001f	8d 45 f4	 lea	 eax, DWORD PTR __$EHRec$[ebp]
  00022	64 a3 00 00 00
	00		 mov	 DWORD PTR fs:0, eax
  00028	8b f1		 mov	 esi, ecx

; 109  : 	int aIndex = this->GetSelupanObjIndex();

  0002a	e8 00 00 00 00	 call	 ?GetSelupanObjIndex@CRaklionSelupan@@QAEHXZ ; CRaklionSelupan::GetSelupanObjIndex

; 110  : 	int tIndex = this->GetSelupanTargetIndex();

  0002f	8b ce		 mov	 ecx, esi
  00031	8b f8		 mov	 edi, eax
  00033	e8 00 00 00 00	 call	 ?GetSelupanTargetIndex@CRaklionSelupan@@QAEHXZ ; CRaklionSelupan::GetSelupanTargetIndex

; 111  : 
; 112  : 	LPOBJ lpObj = &gObj[aIndex];

  00038	8b f7		 mov	 esi, edi
  0003a	69 f6 50 2b 00
	00		 imul	 esi, 11088		; 00002b50H
  00040	03 35 00 00 00
	00		 add	 esi, DWORD PTR ?gObj@@3PAUOBJECTSTRUCT@@A ; gObj
  00046	8b d8		 mov	 ebx, eax

; 113  : 
; 114  : 	if ( tIndex == -1 )

  00048	83 fb ff	 cmp	 ebx, -1
  0004b	75 12		 jne	 SHORT $LN2@SelupanAct@4

; 115  : 	{
; 116  : 		tIndex = aIndex;
; 117  : 		TMonsterSkillManager::UseMonsterSkill(aIndex, tIndex, 1, 7, NULL);

  0004d	6a 00		 push	 0
  0004f	6a 07		 push	 7
  00051	6a 01		 push	 1
  00053	57		 push	 edi
  00054	57		 push	 edi
  00055	e8 00 00 00 00	 call	 ?UseMonsterSkill@TMonsterSkillManager@@SAXHHHHPAVCMagicInf@@@Z ; TMonsterSkillManager::UseMonsterSkill
  0005a	83 c4 14	 add	 esp, 20			; 00000014H

; 118  : 	}
; 119  : 	else

  0005d	eb 47		 jmp	 SHORT $LN1@SelupanAct@4
$LN2@SelupanAct@4:

; 120  : 	{
; 121  : 		CMagicInf lpMagic;

  0005f	8d 4d dc	 lea	 ecx, DWORD PTR _lpMagic$209528[ebp]
  00062	e8 00 00 00 00	 call	 ??0CMagicInf@@QAE@XZ	; CMagicInf::CMagicInf
  00067	33 c0		 xor	 eax, eax

; 122  : 		memset(&lpMagic, 0, sizeof(lpMagic));

  00069	89 45 e4	 mov	 DWORD PTR _lpMagic$209528[ebp+8], eax
  0006c	89 45 fc	 mov	 DWORD PTR __$EHRec$[ebp+8], eax
  0006f	89 45 dc	 mov	 DWORD PTR _lpMagic$209528[ebp], eax
  00072	89 45 e0	 mov	 DWORD PTR _lpMagic$209528[ebp+4], eax
  00075	89 45 e8	 mov	 DWORD PTR _lpMagic$209528[ebp+12], eax
  00078	89 45 ec	 mov	 DWORD PTR _lpMagic$209528[ebp+16], eax
  0007b	89 45 f0	 mov	 DWORD PTR _lpMagic$209528[ebp+20], eax

; 123  : 		lpMagic.m_Skill = 252;
; 124  : 		TMonsterSkillManager::UseMonsterSkill(aIndex, tIndex, 1, 3,&lpMagic);

  0007e	8d 45 dc	 lea	 eax, DWORD PTR _lpMagic$209528[ebp]
  00081	50		 push	 eax
  00082	6a 03		 push	 3
  00084	6a 01		 push	 1
  00086	53		 push	 ebx
  00087	57		 push	 edi
  00088	c7 45 e4 fc 00
	00 00		 mov	 DWORD PTR _lpMagic$209528[ebp+8], 252 ; 000000fcH
  0008f	e8 00 00 00 00	 call	 ?UseMonsterSkill@TMonsterSkillManager@@SAXHHHHPAVCMagicInf@@@Z ; TMonsterSkillManager::UseMonsterSkill
  00094	83 c4 14	 add	 esp, 20			; 00000014H

; 125  : 	}

  00097	8d 4d dc	 lea	 ecx, DWORD PTR _lpMagic$209528[ebp]
  0009a	c7 45 fc ff ff
	ff ff		 mov	 DWORD PTR __$EHRec$[ebp+8], -1
  000a1	e8 00 00 00 00	 call	 ??1CMagicInf@@UAE@XZ	; CMagicInf::~CMagicInf
$LN1@SelupanAct@4:

; 126  : 
; 127  : 	LogAddTD("[ RAKLION ][ IceStrike ] Skill Using : Index(%d) %s", aIndex,lpObj->Name);

  000a6	83 c6 77	 add	 esi, 119		; 00000077H
  000a9	56		 push	 esi
  000aa	57		 push	 edi
  000ab	68 00 00 00 00	 push	 OFFSET ??_C@_0DE@LMJIKHAC@?$FL?5RAKLION?5?$FN?$FL?5IceStrike?5?$FN?5Skill?5U@
  000b0	ff 15 00 00 00
	00		 call	 DWORD PTR ?LogAddTD@@3P6AXPADZZA ; LogAddTD
  000b6	83 c4 0c	 add	 esp, 12			; 0000000cH

; 128  : }

  000b9	8b 4d f4	 mov	 ecx, DWORD PTR __$EHRec$[ebp]
  000bc	64 89 0d 00 00
	00 00		 mov	 DWORD PTR fs:0, ecx
  000c3	59		 pop	 ecx
  000c4	5f		 pop	 edi
  000c5	5e		 pop	 esi
  000c6	5b		 pop	 ebx
  000c7	8b e5		 mov	 esp, ebp
  000c9	5d		 pop	 ebp
  000ca	c3		 ret	 0
_TEXT	ENDS
;	COMDAT text$x
text$x	SEGMENT
__unwindfunclet$?SelupanAct_IceStrike@CRaklionSelupan@@QAEXXZ$0:
  00000	8d 4d dc	 lea	 ecx, DWORD PTR _lpMagic$209528[ebp]
  00003	e9 00 00 00 00	 jmp	 ??1CMagicInf@@UAE@XZ	; CMagicInf::~CMagicInf
__ehhandler$?SelupanAct_IceStrike@CRaklionSelupan@@QAEXXZ:
  00008	8b 54 24 08	 mov	 edx, DWORD PTR [esp+8]
  0000c	8d 42 0c	 lea	 eax, DWORD PTR [edx+12]
  0000f	8b 4a d8	 mov	 ecx, DWORD PTR [edx-40]
  00012	33 c8		 xor	 ecx, eax
  00014	e8 00 00 00 00	 call	 @__security_check_cookie@4
  00019	b8 00 00 00 00	 mov	 eax, OFFSET __ehfuncinfo$?SelupanAct_IceStrike@CRaklionSelupan@@QAEXXZ
  0001e	e9 00 00 00 00	 jmp	 ___CxxFrameHandler3
text$x	ENDS
?SelupanAct_IceStrike@CRaklionSelupan@@QAEXXZ ENDP	; CRaklionSelupan::SelupanAct_IceStrike
PUBLIC	??_C@_0DB@JDHBEKMA@?$FL?5RAKLION?5?$FN?$FL?5Freeze?5?$FN?5Skill?5Usin@ ; `string'
PUBLIC	?SelupanAct_Freeze@CRaklionSelupan@@QAEXXZ	; CRaklionSelupan::SelupanAct_Freeze
;	COMDAT ??_C@_0DB@JDHBEKMA@?$FL?5RAKLION?5?$FN?$FL?5Freeze?5?$FN?5Skill?5Usin@
CONST	SEGMENT
??_C@_0DB@JDHBEKMA@?$FL?5RAKLION?5?$FN?$FL?5Freeze?5?$FN?5Skill?5Usin@ DB '['
	DB	' RAKLION ][ Freeze ] Skill Using : Index(%d) %s', 00H ; `string'
; Function compile flags: /Ogtp
CONST	ENDS
;	COMDAT ?SelupanAct_Freeze@CRaklionSelupan@@QAEXXZ
_TEXT	SEGMENT
?SelupanAct_Freeze@CRaklionSelupan@@QAEXXZ PROC		; CRaklionSelupan::SelupanAct_Freeze, COMDAT
; _this$ = ecx

; 157  : {

  00000	56		 push	 esi
  00001	57		 push	 edi
  00002	8b f1		 mov	 esi, ecx

; 158  : 	int aIndex = this->GetSelupanObjIndex();

  00004	e8 00 00 00 00	 call	 ?GetSelupanObjIndex@CRaklionSelupan@@QAEHXZ ; CRaklionSelupan::GetSelupanObjIndex

; 159  : 	int tIndex = this->GetSelupanTargetIndex();

  00009	8b ce		 mov	 ecx, esi
  0000b	8b f8		 mov	 edi, eax
  0000d	e8 00 00 00 00	 call	 ?GetSelupanTargetIndex@CRaklionSelupan@@QAEHXZ ; CRaklionSelupan::GetSelupanTargetIndex

; 160  : 
; 161  : 	LPOBJ lpObj = &gObj[aIndex];

  00012	8b f7		 mov	 esi, edi
  00014	69 f6 50 2b 00
	00		 imul	 esi, 11088		; 00002b50H
  0001a	03 35 00 00 00
	00		 add	 esi, DWORD PTR ?gObj@@3PAUOBJECTSTRUCT@@A ; gObj

; 162  : 
; 163  : 	if ( tIndex == -1 )
; 164  : 	{
; 165  : 		tIndex = aIndex;
; 166  : 		TMonsterSkillManager::UseMonsterSkill(aIndex, tIndex, 1, 7, NULL);

  00020	6a 00		 push	 0
  00022	83 f8 ff	 cmp	 eax, -1
  00025	75 07		 jne	 SHORT $LN2@SelupanAct@5
  00027	6a 07		 push	 7
  00029	6a 01		 push	 1
  0002b	57		 push	 edi

; 167  : 	}
; 168  : 	else

  0002c	eb 05		 jmp	 SHORT $LN5@SelupanAct@5
$LN2@SelupanAct@5:

; 169  : 	{
; 170  : 		TMonsterSkillManager::UseMonsterSkill(aIndex, tIndex, 1, 6, NULL);

  0002e	6a 06		 push	 6
  00030	6a 01		 push	 1
  00032	50		 push	 eax
$LN5@SelupanAct@5:
  00033	57		 push	 edi
  00034	e8 00 00 00 00	 call	 ?UseMonsterSkill@TMonsterSkillManager@@SAXHHHHPAVCMagicInf@@@Z ; TMonsterSkillManager::UseMonsterSkill
  00039	83 c4 14	 add	 esp, 20			; 00000014H

; 171  : 	}
; 172  : 	LogAddTD("[ RAKLION ][ Freeze ] Skill Using : Index(%d) %s", aIndex,lpObj->Name);

  0003c	83 c6 77	 add	 esi, 119		; 00000077H
  0003f	56		 push	 esi
  00040	57		 push	 edi
  00041	68 00 00 00 00	 push	 OFFSET ??_C@_0DB@JDHBEKMA@?$FL?5RAKLION?5?$FN?$FL?5Freeze?5?$FN?5Skill?5Usin@
  00046	ff 15 00 00 00
	00		 call	 DWORD PTR ?LogAddTD@@3P6AXPADZZA ; LogAddTD
  0004c	83 c4 0c	 add	 esp, 12			; 0000000cH
  0004f	5f		 pop	 edi
  00050	5e		 pop	 esi

; 173  : }

  00051	c3		 ret	 0
?SelupanAct_Freeze@CRaklionSelupan@@QAEXXZ ENDP		; CRaklionSelupan::SelupanAct_Freeze
_TEXT	ENDS
PUBLIC	??_C@_0DD@PGAKKADA@?$FL?5RAKLION?5?$FN?$FL?5Teleport?5?$FN?5Skill?5Us@ ; `string'
PUBLIC	?SelupanAct_Teleport@CRaklionSelupan@@QAEXXZ	; CRaklionSelupan::SelupanAct_Teleport
;	COMDAT ??_C@_0DD@PGAKKADA@?$FL?5RAKLION?5?$FN?$FL?5Teleport?5?$FN?5Skill?5Us@
CONST	SEGMENT
??_C@_0DD@PGAKKADA@?$FL?5RAKLION?5?$FN?$FL?5Teleport?5?$FN?5Skill?5Us@ DB '['
	DB	' RAKLION ][ Teleport ] Skill Using : Index(%d) %s', 00H ; `string'
; Function compile flags: /Ogtp
CONST	ENDS
;	COMDAT ?SelupanAct_Teleport@CRaklionSelupan@@QAEXXZ
_TEXT	SEGMENT
?SelupanAct_Teleport@CRaklionSelupan@@QAEXXZ PROC	; CRaklionSelupan::SelupanAct_Teleport, COMDAT
; _this$ = ecx

; 176  : {

  00000	56		 push	 esi
  00001	57		 push	 edi
  00002	8b f1		 mov	 esi, ecx

; 177  : 	int aIndex = this->GetSelupanObjIndex();

  00004	e8 00 00 00 00	 call	 ?GetSelupanObjIndex@CRaklionSelupan@@QAEHXZ ; CRaklionSelupan::GetSelupanObjIndex

; 178  : 	int tIndex = this->GetSelupanTargetIndex();

  00009	8b ce		 mov	 ecx, esi
  0000b	8b f8		 mov	 edi, eax
  0000d	e8 00 00 00 00	 call	 ?GetSelupanTargetIndex@CRaklionSelupan@@QAEHXZ ; CRaklionSelupan::GetSelupanTargetIndex

; 179  : 
; 180  : 	LPOBJ lpObj = &gObj[aIndex];

  00012	8b f7		 mov	 esi, edi
  00014	69 f6 50 2b 00
	00		 imul	 esi, 11088		; 00002b50H
  0001a	03 35 00 00 00
	00		 add	 esi, DWORD PTR ?gObj@@3PAUOBJECTSTRUCT@@A ; gObj

; 181  : 	LPOBJ lpTargetObj = &gObj[tIndex];
; 182  : 	
; 183  : 	if ( tIndex < 0 )

  00020	85 c0		 test	 eax, eax
  00022	79 02		 jns	 SHORT $LN1@SelupanAct@6

; 184  : 	{
; 185  : 		tIndex = aIndex;

  00024	8b c7		 mov	 eax, edi
$LN1@SelupanAct@6:

; 186  : 	}
; 187  : 
; 188  : 	TMonsterSkillManager::UseMonsterSkill(aIndex, tIndex, 1, 7, NULL);

  00026	6a 00		 push	 0
  00028	6a 07		 push	 7
  0002a	6a 01		 push	 1
  0002c	50		 push	 eax
  0002d	57		 push	 edi
  0002e	e8 00 00 00 00	 call	 ?UseMonsterSkill@TMonsterSkillManager@@SAXHHHHPAVCMagicInf@@@Z ; TMonsterSkillManager::UseMonsterSkill

; 189  : 	LogAddTD("[ RAKLION ][ Teleport ] Skill Using : Index(%d) %s", aIndex,lpObj->Name);

  00033	83 c6 77	 add	 esi, 119		; 00000077H
  00036	56		 push	 esi
  00037	57		 push	 edi
  00038	68 00 00 00 00	 push	 OFFSET ??_C@_0DD@PGAKKADA@?$FL?5RAKLION?5?$FN?$FL?5Teleport?5?$FN?5Skill?5Us@
  0003d	ff 15 00 00 00
	00		 call	 DWORD PTR ?LogAddTD@@3P6AXPADZZA ; LogAddTD
  00043	83 c4 20	 add	 esp, 32			; 00000020H
  00046	5f		 pop	 edi
  00047	5e		 pop	 esi

; 190  : }

  00048	c3		 ret	 0
?SelupanAct_Teleport@CRaklionSelupan@@QAEXXZ ENDP	; CRaklionSelupan::SelupanAct_Teleport
_TEXT	ENDS
END
